; Listing generated by Microsoft (R) Optimizing Compiler Version 13.10.3077 

	TITLE	\darkeden\Designed_Common\Project\New - vs_ui\src\Imm\CImm.cpp
	.386P
include listing.inc
if @Version gt 510
.model FLAT
else
_TEXT	SEGMENT PARA USE32 PUBLIC 'CODE'
_TEXT	ENDS
_DATA	SEGMENT DWORD USE32 PUBLIC 'DATA'
_DATA	ENDS
CONST	SEGMENT DWORD USE32 PUBLIC 'CONST'
CONST	ENDS
_BSS	SEGMENT DWORD USE32 PUBLIC 'BSS'
_BSS	ENDS
$$SYMBOLS	SEGMENT BYTE USE32 'DEBSYM'
$$SYMBOLS	ENDS
$$TYPES	SEGMENT BYTE USE32 'DEBTYP'
$$TYPES	ENDS
_TLS	SEGMENT DWORD USE32 PUBLIC 'TLS'
_TLS	ENDS
;	COMDAT ??_C@_0O@JKENFCBN@MinTrace?52003?$AA@
CONST	SEGMENT DWORD USE32 PUBLIC 'CONST'
CONST	ENDS
;	COMDAT ??_C@_0BE@MNEJIGLM@__MinTrace?5Window__?$AA@
CONST	SEGMENT DWORD USE32 PUBLIC 'CONST'
CONST	ENDS
;	COMDAT ??_C@_06KLPNNMEP@?$CF8d?0?$CFs?$AA@
CONST	SEGMENT DWORD USE32 PUBLIC 'CONST'
CONST	ENDS
;	COMDAT ??_C@_0BN@ODLNCKCA@Data?2?2Info?2?2ClientConfig?4inf?$AA@
CONST	SEGMENT DWORD USE32 PUBLIC 'CONST'
CONST	ENDS
;	COMDAT ??_C@_0BM@DFPLPGPC@Data?2?2Info?2?2GuildMapper?4inf?$AA@
CONST	SEGMENT DWORD USE32 PUBLIC 'CONST'
CONST	ENDS
;	COMDAT ??_C@_0BN@LHODHNBK@Data?2?2Info?2?2GuildVersion?4inf?$AA@
CONST	SEGMENT DWORD USE32 PUBLIC 'CONST'
CONST	ENDS
;	COMDAT ??_C@_0BH@DDPLNCOL@Data?2?2Info?2?2Player?4inf?$AA@
CONST	SEGMENT DWORD USE32 PUBLIC 'CONST'
CONST	ENDS
;	COMDAT ??_C@_0BL@ILLNAPHB@Data?2?2Info?2?2Resolution?4inf?$AA@
CONST	SEGMENT DWORD USE32 PUBLIC 'CONST'
CONST	ENDS
;	COMDAT ??_C@_0CA@HEIGFDLG@Data?2?2Info?2?2SelectedChannel?4inf?$AA@
CONST	SEGMENT DWORD USE32 PUBLIC 'CONST'
CONST	ENDS
;	COMDAT ??_C@_0BD@MGCMMJMJ@data?2ui?2txt?2ui?4ifr?$AA@
CONST	SEGMENT DWORD USE32 PUBLIC 'CONST'
CONST	ENDS
;	COMDAT ??_C@_04DGDBMCAL@Drag?$AA@
CONST	SEGMENT DWORD USE32 PUBLIC 'CONST'
CONST	ENDS
;	COMDAT ??_C@_06BKKJGDHO@Window?$AA@
CONST	SEGMENT DWORD USE32 PUBLIC 'CONST'
CONST	ENDS
;	COMDAT ??_C@_06LKBCGDFD@Button?$AA@
CONST	SEGMENT DWORD USE32 PUBLIC 'CONST'
CONST	ENDS
;	COMDAT ??_C@_04FEKPLKKA@Grid?$AA@
CONST	SEGMENT DWORD USE32 PUBLIC 'CONST'
CONST	ENDS
;	COMDAT ??_C@_0BH@LIHMOODJ@data?2ui?2txt?2action?4ifr?$AA@
CONST	SEGMENT DWORD USE32 PUBLIC 'CONST'
CONST	ENDS
;	COMDAT ??_C@_0BG@KPBDAELM@data?2ui?2txt?2skill?4ifr?$AA@
CONST	SEGMENT DWORD USE32 PUBLIC 'CONST'
CONST	ENDS
;	COMDAT ??_C@_0BK@GOHMGALP@data?2ui?2txt?2inventory?4ifr?$AA@
CONST	SEGMENT DWORD USE32 PUBLIC 'CONST'
CONST	ENDS
;	COMDAT ??_C@_0BI@CILFIJOK@data?2ui?2txt?2useitem?4ifr?$AA@
CONST	SEGMENT DWORD USE32 PUBLIC 'CONST'
CONST	ENDS
;	COMDAT ??_C@_0N@GOPDCEEB@basic_string?$AA@
CONST	SEGMENT DWORD USE32 PUBLIC 'CONST'
CONST	ENDS
rdata$r	SEGMENT DWORD USE32 PUBLIC 'CONST'
rdata$r	ENDS
text$yc	SEGMENT PARA USE32 PUBLIC 'CODE'
text$yc	ENDS
CRT$XCA	SEGMENT DWORD USE32 PUBLIC 'DATA'
CRT$XCA	ENDS
CRT$XCU	SEGMENT DWORD USE32 PUBLIC 'DATA'
CRT$XCU	ENDS
CRT$XCL	SEGMENT DWORD USE32 PUBLIC 'DATA'
CRT$XCL	ENDS
CRT$XCC	SEGMENT DWORD USE32 PUBLIC 'DATA'
CRT$XCC	ENDS
CRT$XCZ	SEGMENT DWORD USE32 PUBLIC 'DATA'
CRT$XCZ	ENDS
text$yd	SEGMENT PARA USE32 PUBLIC 'CODE'
text$yd	ENDS
;	COMDAT __imp_??0CEffectList@@QAE@XZ
_TEXT	SEGMENT PARA USE32 PUBLIC 'CODE'
_TEXT	ENDS
;	COMDAT __imp_?GetEffectType@CImmPeriodic@@UAEKXZ
_TEXT	SEGMENT PARA USE32 PUBLIC 'CODE'
_TEXT	ENDS
;	COMDAT __imp_?GetIsCompatibleGUID@CImmPeriodic@@UAEHAAU_GUID@@@Z
_TEXT	SEGMENT PARA USE32 PUBLIC 'CODE'
_TEXT	ENDS
;	COMDAT ?IsDevice@CImm@@QAE_NXZ
_TEXT	SEGMENT PARA USE32 PUBLIC 'CODE'
_TEXT	ENDS
;	COMDAT ?_MinTraceA@@YAXPBD@Z
_TEXT	SEGMENT PARA USE32 PUBLIC 'CODE'
_TEXT	ENDS
;	COMDAT ?_MinTraceErrA@@YAXPBD@Z
_TEXT	SEGMENT PARA USE32 PUBLIC 'CODE'
_TEXT	ENDS
;	COMDAT ?_MinTraceWarA@@YAXPBD@Z
_TEXT	SEGMENT PARA USE32 PUBLIC 'CODE'
_TEXT	ENDS
;	COMDAT ?_ClMinTraceA@@YAXKPBD@Z
_TEXT	SEGMENT PARA USE32 PUBLIC 'CODE'
_TEXT	ENDS
;	COMDAT ?_CmdMinTraceA@@YAXHPBD@Z
_TEXT	SEGMENT PARA USE32 PUBLIC 'CODE'
_TEXT	ENDS
;	COMDAT ?start@CNFS@@QAE_NPADH@Z
_TEXT	SEGMENT PARA USE32 PUBLIC 'CODE'
_TEXT	ENDS
;	COMDAT ?end@CNFS@@QAEXXZ
_TEXT	SEGMENT PARA USE32 PUBLIC 'CODE'
_TEXT	ENDS
;	COMDAT ?Init@VirtualFileHeader@@QAEXXZ
_TEXT	SEGMENT PARA USE32 PUBLIC 'CODE'
_TEXT	ENDS
;	COMDAT ??1IFileIO@@UAE@XZ
_TEXT	SEGMENT PARA USE32 PUBLIC 'CODE'
_TEXT	ENDS
;	COMDAT ??_GIFileIO@@UAEPAXI@Z
_TEXT	SEGMENT PARA USE32 PUBLIC 'CODE'
_TEXT	ENDS
;	COMDAT ??0iovfs_base@@QAE@XZ
_TEXT	SEGMENT PARA USE32 PUBLIC 'CODE'
_TEXT	ENDS
;	COMDAT ??_Giovfs_base@@UAEPAXI@Z
_TEXT	SEGMENT PARA USE32 PUBLIC 'CODE'
_TEXT	ENDS
;	COMDAT ??1iovfs_base@@UAE@XZ
_TEXT	SEGMENT PARA USE32 PUBLIC 'CODE'
_TEXT	ENDS
;	COMDAT ?Init@iovfs_base@@QAEXXZ
_TEXT	SEGMENT PARA USE32 PUBLIC 'CODE'
_TEXT	ENDS
;	COMDAT ??_Givfstream@@UAEPAXI@Z
_TEXT	SEGMENT PARA USE32 PUBLIC 'CODE'
_TEXT	ENDS
;	COMDAT ??1ivfstream@@UAE@XZ
_TEXT	SEGMENT PARA USE32 PUBLIC 'CODE'
_TEXT	ENDS
;	COMDAT ?open@ivfstream@@UAEXPBDH@Z
_TEXT	SEGMENT PARA USE32 PUBLIC 'CODE'
_TEXT	ENDS
;	COMDAT ??_Govfstream@@UAEPAXI@Z
_TEXT	SEGMENT PARA USE32 PUBLIC 'CODE'
_TEXT	ENDS
;	COMDAT ??1ovfstream@@UAE@XZ
_TEXT	SEGMENT PARA USE32 PUBLIC 'CODE'
_TEXT	ENDS
;	COMDAT ?open@ovfstream@@UAEXPBDH@Z
_TEXT	SEGMENT PARA USE32 PUBLIC 'CODE'
_TEXT	ENDS
;	COMDAT ?GetString@MString@@QBEPADXZ
_TEXT	SEGMENT PARA USE32 PUBLIC 'CODE'
_TEXT	ENDS
;	COMDAT ??0CImm@@QAE@XZ
_TEXT	SEGMENT PARA USE32 PUBLIC 'CODE'
_TEXT	ENDS
;	COMDAT ??1CImm@@QAE@XZ
_TEXT	SEGMENT PARA USE32 PUBLIC 'CODE'
_TEXT	ENDS
;	COMDAT ?Enable@CImm@@QAEXXZ
_TEXT	SEGMENT PARA USE32 PUBLIC 'CODE'
_TEXT	ENDS
;	COMDAT ??_GCImmPeriodic@@UAEPAXI@Z
_TEXT	SEGMENT PARA USE32 PUBLIC 'CODE'
_TEXT	ENDS
;	COMDAT ??_GCImmProject@@QAEPAXI@Z
_TEXT	SEGMENT PARA USE32 PUBLIC 'CODE'
_TEXT	ENDS
;	COMDAT ?Disable@CImm@@QAEXXZ
_TEXT	SEGMENT PARA USE32 PUBLIC 'CODE'
_TEXT	ENDS
;	COMDAT ?ForceUI@CImm@@QBEXI@Z
_TEXT	SEGMENT PARA USE32 PUBLIC 'CODE'
_TEXT	ENDS
;	COMDAT ?ForceAction@CImm@@QBEXH@Z
_TEXT	SEGMENT PARA USE32 PUBLIC 'CODE'
_TEXT	ENDS
;	COMDAT ?ForceSkill@CImm@@QBEXH@Z
_TEXT	SEGMENT PARA USE32 PUBLIC 'CODE'
_TEXT	ENDS
;	COMDAT ?ForceUseItem@CImm@@QBEXH@Z
_TEXT	SEGMENT PARA USE32 PUBLIC 'CODE'
_TEXT	ENDS
;	COMDAT ?ForceInventory@CImm@@QBEXH@Z
_TEXT	SEGMENT PARA USE32 PUBLIC 'CODE'
_TEXT	ENDS
;	COMDAT ?eq@?$__char_traits_base@DH@_STL@@SA_NABD0@Z
_TEXT	SEGMENT PARA USE32 PUBLIC 'CODE'
_TEXT	ENDS
;	COMDAT ?not_eof@?$__char_traits_base@DH@_STL@@SAHABH@Z
_TEXT	SEGMENT PARA USE32 PUBLIC 'CODE'
_TEXT	ENDS
;	COMDAT ?eq_int_type@?$__char_traits_base@DH@_STL@@SA_NABH0@Z
_TEXT	SEGMENT PARA USE32 PUBLIC 'CODE'
_TEXT	ENDS
;	COMDAT ??4?$basic_string@DV?$char_traits@D@_STL@@V?$allocator@D@2@@_STL@@QAEAAV01@PBD@Z
_TEXT	SEGMENT PARA USE32 PUBLIC 'CODE'
_TEXT	ENDS
;	COMDAT ??0?$fpos@H@_STL@@QAE@J@Z
_TEXT	SEGMENT PARA USE32 PUBLIC 'CODE'
_TEXT	ENDS
;	COMDAT ??B?$fpos@H@_STL@@QBEJXZ
_TEXT	SEGMENT PARA USE32 PUBLIC 'CODE'
_TEXT	ENDS
;	COMDAT ?state@?$fpos@H@_STL@@QBEHXZ
_TEXT	SEGMENT PARA USE32 PUBLIC 'CODE'
_TEXT	ENDS
;	COMDAT ?is_open@?$basic_filebuf@DV?$char_traits@D@_STL@@@_STL@@QBE_NXZ
_TEXT	SEGMENT PARA USE32 PUBLIC 'CODE'
_TEXT	ENDS
;	COMDAT ?_M_seek_return@?$basic_filebuf@DV?$char_traits@D@_STL@@@_STL@@AAE?AV?$fpos@H@2@JH@Z
_TEXT	SEGMENT PARA USE32 PUBLIC 'CODE'
_TEXT	ENDS
;	COMDAT ??0?$_Filebuf_Tmp_Buf@D@_STL@@QAE@H@Z
_TEXT	SEGMENT PARA USE32 PUBLIC 'CODE'
_TEXT	ENDS
;	COMDAT ??1?$_Filebuf_Tmp_Buf@D@_STL@@QAE@XZ
_TEXT	SEGMENT PARA USE32 PUBLIC 'CODE'
_TEXT	ENDS
;	COMDAT ?size@?$vector@PAVCImmPeriodic@@V?$allocator@PAVCImmPeriodic@@@_STL@@@_STL@@QBEIXZ
_TEXT	SEGMENT PARA USE32 PUBLIC 'CODE'
_TEXT	ENDS
;	COMDAT ??A?$vector@PAVCImmPeriodic@@V?$allocator@PAVCImmPeriodic@@@_STL@@@_STL@@QAEAAPAVCImmPeriodic@@I@Z
_TEXT	SEGMENT PARA USE32 PUBLIC 'CODE'
_TEXT	ENDS
;	COMDAT ??A?$vector@PAVCImmPeriodic@@V?$allocator@PAVCImmPeriodic@@@_STL@@@_STL@@QBEABQAVCImmPeriodic@@I@Z
_TEXT	SEGMENT PARA USE32 PUBLIC 'CODE'
_TEXT	ENDS
;	COMDAT ??0?$vector@PAVCImmPeriodic@@V?$allocator@PAVCImmPeriodic@@@_STL@@@_STL@@QAE@ABV?$allocator@PAVCImmPeriodic@@@1@@Z
_TEXT	SEGMENT PARA USE32 PUBLIC 'CODE'
_TEXT	ENDS
;	COMDAT ??1?$vector@PAVCImmPeriodic@@V?$allocator@PAVCImmPeriodic@@@_STL@@@_STL@@QAE@XZ
_TEXT	SEGMENT PARA USE32 PUBLIC 'CODE'
_TEXT	ENDS
;	COMDAT ?push_back@?$vector@PAVCImmPeriodic@@V?$allocator@PAVCImmPeriodic@@@_STL@@@_STL@@QAEXABQAVCImmPeriodic@@@Z
_TEXT	SEGMENT PARA USE32 PUBLIC 'CODE'
_TEXT	ENDS
;	COMDAT ?clear@?$vector@PAVCImmPeriodic@@V?$allocator@PAVCImmPeriodic@@@_STL@@@_STL@@QAEXXZ
_TEXT	SEGMENT PARA USE32 PUBLIC 'CODE'
_TEXT	ENDS
;	COMDAT ??0?$allocator@PAVCImmPeriodic@@@_STL@@QAE@XZ
_TEXT	SEGMENT PARA USE32 PUBLIC 'CODE'
_TEXT	ENDS
;	COMDAT ??1?$allocator@PAVCImmPeriodic@@@_STL@@QAE@XZ
_TEXT	SEGMENT PARA USE32 PUBLIC 'CODE'
_TEXT	ENDS
;	COMDAT ?GetSize@?$CTypeTable@VSOUNDTABLE_INFO@@@@QBEHXZ
_TEXT	SEGMENT PARA USE32 PUBLIC 'CODE'
_TEXT	ENDS
;	COMDAT ??A?$CTypeTable@VSOUNDTABLE_INFO@@@@QAEAAVSOUNDTABLE_INFO@@H@Z
_TEXT	SEGMENT PARA USE32 PUBLIC 'CODE'
_TEXT	ENDS
;	COMDAT ?assign@?$basic_string@DV?$char_traits@D@_STL@@V?$allocator@D@2@@_STL@@QAEAAV12@PBD0@Z
_TEXT	SEGMENT PARA USE32 PUBLIC 'CODE'
_TEXT	ENDS
;	COMDAT ?state@?$fpos@H@_STL@@QAEXH@Z
_TEXT	SEGMENT PARA USE32 PUBLIC 'CODE'
_TEXT	ENDS
;	COMDAT ?_M_insert_overflow@?$vector@PAVCImmPeriodic@@V?$allocator@PAVCImmPeriodic@@@_STL@@@_STL@@IAEXPAPAVCImmPeriodic@@ABQAV3@ABU__true_type@2@I_N@Z
_TEXT	SEGMENT PARA USE32 PUBLIC 'CODE'
_TEXT	ENDS
;	COMDAT ?begin@?$vector@PAVCImmPeriodic@@V?$allocator@PAVCImmPeriodic@@@_STL@@@_STL@@QAEPAPAVCImmPeriodic@@XZ
_TEXT	SEGMENT PARA USE32 PUBLIC 'CODE'
_TEXT	ENDS
;	COMDAT ?begin@?$vector@PAVCImmPeriodic@@V?$allocator@PAVCImmPeriodic@@@_STL@@@_STL@@QBEPBQAVCImmPeriodic@@XZ
_TEXT	SEGMENT PARA USE32 PUBLIC 'CODE'
_TEXT	ENDS
;	COMDAT ?end@?$vector@PAVCImmPeriodic@@V?$allocator@PAVCImmPeriodic@@@_STL@@@_STL@@QAEPAPAVCImmPeriodic@@XZ
_TEXT	SEGMENT PARA USE32 PUBLIC 'CODE'
_TEXT	ENDS
;	COMDAT ?erase@?$vector@PAVCImmPeriodic@@V?$allocator@PAVCImmPeriodic@@@_STL@@@_STL@@QAEPAPAVCImmPeriodic@@PAPAV3@0@Z
_TEXT	SEGMENT PARA USE32 PUBLIC 'CODE'
_TEXT	ENDS
;	COMDAT ??0?$_Vector_base@PAVCImmPeriodic@@V?$allocator@PAVCImmPeriodic@@@_STL@@@_STL@@QAE@ABV?$allocator@PAVCImmPeriodic@@@1@@Z
_TEXT	SEGMENT PARA USE32 PUBLIC 'CODE'
_TEXT	ENDS
;	COMDAT ??1?$_Vector_base@PAVCImmPeriodic@@V?$allocator@PAVCImmPeriodic@@@_STL@@@_STL@@QAE@XZ
_TEXT	SEGMENT PARA USE32 PUBLIC 'CODE'
_TEXT	ENDS
;	COMDAT ??1?$_STLP_alloc_proxy@PAPAVCImmPeriodic@@PAV1@V?$allocator@PAVCImmPeriodic@@@_STL@@@_STL@@QAE@XZ
_TEXT	SEGMENT PARA USE32 PUBLIC 'CODE'
_TEXT	ENDS
;	COMDAT ?copy@?$__char_traits_base@DH@_STL@@SAPADPADPBDI@Z
_TEXT	SEGMENT PARA USE32 PUBLIC 'CODE'
_TEXT	ENDS
;	COMDAT ?begin@?$basic_string@DV?$char_traits@D@_STL@@V?$allocator@D@2@@_STL@@QAEPADXZ
_TEXT	SEGMENT PARA USE32 PUBLIC 'CODE'
_TEXT	ENDS
;	COMDAT ?end@?$basic_string@DV?$char_traits@D@_STL@@V?$allocator@D@2@@_STL@@QAEPADXZ
_TEXT	SEGMENT PARA USE32 PUBLIC 'CODE'
_TEXT	ENDS
;	COMDAT ?size@?$basic_string@DV?$char_traits@D@_STL@@V?$allocator@D@2@@_STL@@QBEIXZ
_TEXT	SEGMENT PARA USE32 PUBLIC 'CODE'
_TEXT	ENDS
;	COMDAT ?erase@?$basic_string@DV?$char_traits@D@_STL@@V?$allocator@D@2@@_STL@@QAEPADPAD0@Z
_TEXT	SEGMENT PARA USE32 PUBLIC 'CODE'
_TEXT	ENDS
;	COMDAT ?_M_clear@?$vector@PAVCImmPeriodic@@V?$allocator@PAVCImmPeriodic@@@_STL@@@_STL@@IAEXXZ
_TEXT	SEGMENT PARA USE32 PUBLIC 'CODE'
_TEXT	ENDS
;	COMDAT ?_M_set@?$vector@PAVCImmPeriodic@@V?$allocator@PAVCImmPeriodic@@@_STL@@@_STL@@IAEXPAPAVCImmPeriodic@@00@Z
_TEXT	SEGMENT PARA USE32 PUBLIC 'CODE'
_TEXT	ENDS
;	COMDAT ?allocate@?$allocator@PAVCImmPeriodic@@@_STL@@QAEPAPAVCImmPeriodic@@IPBX@Z
_TEXT	SEGMENT PARA USE32 PUBLIC 'CODE'
_TEXT	ENDS
;	COMDAT ?deallocate@?$allocator@PAVCImmPeriodic@@@_STL@@QAEXPAPAVCImmPeriodic@@I@Z
_TEXT	SEGMENT PARA USE32 PUBLIC 'CODE'
_TEXT	ENDS
;	COMDAT ??0?$_STLP_alloc_proxy@PAPAVCImmPeriodic@@PAV1@V?$allocator@PAVCImmPeriodic@@@_STL@@@_STL@@QAE@ABV?$allocator@PAVCImmPeriodic@@@1@PAPAVCImmPeriodic@@@Z
_TEXT	SEGMENT PARA USE32 PUBLIC 'CODE'
_TEXT	ENDS
;	COMDAT ?move@?$__char_traits_base@DH@_STL@@SAPADPADPBDI@Z
_TEXT	SEGMENT PARA USE32 PUBLIC 'CODE'
_TEXT	ENDS
;	COMDAT ?allocate@?$__node_alloc@$00$0A@@_STL@@SAPAXI@Z
_TEXT	SEGMENT PARA USE32 PUBLIC 'CODE'
_TEXT	ENDS
;	COMDAT ??0?$allocator@PAVCImmPeriodic@@@_STL@@QAE@ABV01@@Z
_TEXT	SEGMENT PARA USE32 PUBLIC 'CODE'
_TEXT	ENDS
;	COMDAT ?close@?$basic_filebuf@DV?$char_traits@D@_STL@@@_STL@@QAEPAV12@XZ
_TEXT	SEGMENT PARA USE32 PUBLIC 'CODE'
_TEXT	ENDS
;	COMDAT ?_M_exit_input_mode@?$basic_filebuf@DV?$char_traits@D@_STL@@@_STL@@AAEXXZ
_TEXT	SEGMENT PARA USE32 PUBLIC 'CODE'
_TEXT	ENDS
;	COMDAT ?_M_switch_to_output_mode@?$basic_filebuf@DV?$char_traits@D@_STL@@@_STL@@AAE_NXZ
_TEXT	SEGMENT PARA USE32 PUBLIC 'CODE'
_TEXT	ENDS
;	COMDAT ?_M_output_error@?$basic_filebuf@DV?$char_traits@D@_STL@@@_STL@@AAEHXZ
_TEXT	SEGMENT PARA USE32 PUBLIC 'CODE'
_TEXT	ENDS
;	COMDAT ?_M_allocate_buffers@?$basic_filebuf@DV?$char_traits@D@_STL@@@_STL@@AAE_NPADH@Z
_TEXT	SEGMENT PARA USE32 PUBLIC 'CODE'
_TEXT	ENDS
;	COMDAT ?_M_deallocate_buffers@?$basic_filebuf@DV?$char_traits@D@_STL@@@_STL@@AAEXXZ
_TEXT	SEGMENT PARA USE32 PUBLIC 'CODE'
_TEXT	ENDS
;	COMDAT ?_M_seek_init@?$basic_filebuf@DV?$char_traits@D@_STL@@@_STL@@AAE_N_N@Z
_TEXT	SEGMENT PARA USE32 PUBLIC 'CODE'
_TEXT	ENDS
;	COMDAT ?_M_setup_codecvt@?$basic_filebuf@DV?$char_traits@D@_STL@@@_STL@@AAEXABVlocale@2@@Z
_TEXT	SEGMENT PARA USE32 PUBLIC 'CODE'
_TEXT	ENDS
;	COMDAT ??$equal@PADPADU?$_Eq_traits@V?$char_traits@D@_STL@@@_STL@@@_STL@@YA_NPAD00U?$_Eq_traits@V?$char_traits@D@_STL@@@0@@Z
_TEXT	SEGMENT PARA USE32 PUBLIC 'CODE'
_TEXT	ENDS
;	COMDAT ??0?$CPartManager@GEPAUIDirectSoundBuffer@@@@QAE@XZ
_TEXT	SEGMENT PARA USE32 PUBLIC 'CODE'
_TEXT	ENDS
;	COMDAT ??1?$CPartManager@GEPAUIDirectSoundBuffer@@@@QAE@XZ
_TEXT	SEGMENT PARA USE32 PUBLIC 'CODE'
_TEXT	ENDS
;	COMDAT ??0?$basic_string@DV?$char_traits@D@_STL@@V?$allocator@D@2@@_STL@@QAE@XZ
_TEXT	SEGMENT PARA USE32 PUBLIC 'CODE'
_TEXT	ENDS
;	COMDAT ??$_Destroy@PAPAVCImmPeriodic@@@_STL@@YAXPAPAVCImmPeriodic@@0@Z
_TEXT	SEGMENT PARA USE32 PUBLIC 'CODE'
_TEXT	ENDS
;	COMDAT ??$_Construct@PAVCImmPeriodic@@PAV1@@_STL@@YAXPAPAVCImmPeriodic@@ABQAV1@@Z
_TEXT	SEGMENT PARA USE32 PUBLIC 'CODE'
_TEXT	ENDS
;	COMDAT ??$append@PBD@?$basic_string@DV?$char_traits@D@_STL@@V?$allocator@D@2@@_STL@@QAEAAV01@PBD0@Z
_TEXT	SEGMENT PARA USE32 PUBLIC 'CODE'
_TEXT	ENDS
;	COMDAT ??$max@I@_STL@@YAABIABI0@Z
_TEXT	SEGMENT PARA USE32 PUBLIC 'CODE'
_TEXT	ENDS
;	COMDAT ??$fill_n@PAPAVCImmPeriodic@@IPAV1@@_STL@@YAPAPAVCImmPeriodic@@PAPAV1@IABQAV1@@Z
_TEXT	SEGMENT PARA USE32 PUBLIC 'CODE'
_TEXT	ENDS
;	COMDAT ??$__copy_ptrs@PAPAVCImmPeriodic@@PAPAV1@@_STL@@YAPAPAVCImmPeriodic@@PAPAV1@00ABU__true_type@0@@Z
_TEXT	SEGMENT PARA USE32 PUBLIC 'CODE'
_TEXT	ENDS
;	COMDAT ?_M_terminate_string@?$basic_string@DV?$char_traits@D@_STL@@V?$allocator@D@2@@_STL@@AAEXXZ
_TEXT	SEGMENT PARA USE32 PUBLIC 'CODE'
_TEXT	ENDS
;	COMDAT ??0?$_String_base@DV?$allocator@D@_STL@@@_STL@@QAE@ABV?$allocator@D@1@@Z
_TEXT	SEGMENT PARA USE32 PUBLIC 'CODE'
_TEXT	ENDS
;	COMDAT ??0?$allocator@D@_STL@@QAE@XZ
_TEXT	SEGMENT PARA USE32 PUBLIC 'CODE'
_TEXT	ENDS
;	COMDAT ?allocate@?$allocator@D@_STL@@QAEPADIPBX@Z
_TEXT	SEGMENT PARA USE32 PUBLIC 'CODE'
_TEXT	ENDS
;	COMDAT ?_M_exit_putback_mode@?$basic_filebuf@DV?$char_traits@D@_STL@@@_STL@@AAEXXZ
_TEXT	SEGMENT PARA USE32 PUBLIC 'CODE'
_TEXT	ENDS
;	COMDAT ??R?$_Eq_traits@V?$char_traits@D@_STL@@@_STL@@QBE_NABD0@Z
_TEXT	SEGMENT PARA USE32 PUBLIC 'CODE'
_TEXT	ENDS
;	COMDAT ??0?$list@EV?$allocator@E@_STL@@@_STL@@QAE@ABV?$allocator@E@1@@Z
_TEXT	SEGMENT PARA USE32 PUBLIC 'CODE'
_TEXT	ENDS
;	COMDAT ??1?$list@EV?$allocator@E@_STL@@@_STL@@QAE@XZ
_TEXT	SEGMENT PARA USE32 PUBLIC 'CODE'
_TEXT	ENDS
;	COMDAT ??0?$allocator@E@_STL@@QAE@XZ
_TEXT	SEGMENT PARA USE32 PUBLIC 'CODE'
_TEXT	ENDS
;	COMDAT ??1?$allocator@E@_STL@@QAE@XZ
_TEXT	SEGMENT PARA USE32 PUBLIC 'CODE'
_TEXT	ENDS
;	COMDAT ?_M_terminate_string_aux@?$basic_string@DV?$char_traits@D@_STL@@V?$allocator@D@2@@_STL@@AAEXABU__true_type@2@@Z
_TEXT	SEGMENT PARA USE32 PUBLIC 'CODE'
_TEXT	ENDS
;	COMDAT ??0?$_STLP_alloc_proxy@PADDV?$allocator@D@_STL@@@_STL@@QAE@ABV?$allocator@D@1@PAD@Z
_TEXT	SEGMENT PARA USE32 PUBLIC 'CODE'
_TEXT	ENDS
;	COMDAT ??0?$_List_base@EV?$allocator@E@_STL@@@_STL@@QAE@ABV?$allocator@E@1@@Z
_TEXT	SEGMENT PARA USE32 PUBLIC 'CODE'
_TEXT	ENDS
;	COMDAT ??1?$_List_base@EV?$allocator@E@_STL@@@_STL@@QAE@XZ
_TEXT	SEGMENT PARA USE32 PUBLIC 'CODE'
_TEXT	ENDS
;	COMDAT ??1?$_STLP_alloc_proxy@PAU?$_List_node@E@_STL@@U12@V?$allocator@U?$_List_node@E@_STL@@@2@@_STL@@QAE@XZ
_TEXT	SEGMENT PARA USE32 PUBLIC 'CODE'
_TEXT	ENDS
;	COMDAT ??0?$allocator@D@_STL@@QAE@ABV01@@Z
_TEXT	SEGMENT PARA USE32 PUBLIC 'CODE'
_TEXT	ENDS
;	COMDAT ??0?$_STLP_alloc_proxy@PAU?$_List_node@E@_STL@@U12@V?$allocator@U?$_List_node@E@_STL@@@2@@_STL@@QAE@ABV?$allocator@U?$_List_node@E@_STL@@@1@PAU?$_List_node@E@1@@Z
_TEXT	SEGMENT PARA USE32 PUBLIC 'CODE'
_TEXT	ENDS
;	COMDAT ??1?$allocator@U?$_List_node@E@_STL@@@_STL@@QAE@XZ
_TEXT	SEGMENT PARA USE32 PUBLIC 'CODE'
_TEXT	ENDS
;	COMDAT ?allocate@?$allocator@U?$_List_node@E@_STL@@@_STL@@QAEPAU?$_List_node@E@2@IPBX@Z
_TEXT	SEGMENT PARA USE32 PUBLIC 'CODE'
_TEXT	ENDS
;	COMDAT ?deallocate@?$allocator@U?$_List_node@E@_STL@@@_STL@@QAEXPAU?$_List_node@E@2@I@Z
_TEXT	SEGMENT PARA USE32 PUBLIC 'CODE'
_TEXT	ENDS
;	COMDAT ??0?$allocator@U?$_List_node@E@_STL@@@_STL@@QAE@ABV01@@Z
_TEXT	SEGMENT PARA USE32 PUBLIC 'CODE'
_TEXT	ENDS
;	COMDAT ?_M_unshift@?$basic_filebuf@DV?$char_traits@D@_STL@@@_STL@@AAE_NXZ
_TEXT	SEGMENT PARA USE32 PUBLIC 'CODE'
_TEXT	ENDS
;	COMDAT ?_M_allocate_buffers@?$basic_filebuf@DV?$char_traits@D@_STL@@@_STL@@AAE_NXZ
_TEXT	SEGMENT PARA USE32 PUBLIC 'CODE'
_TEXT	ENDS
;	COMDAT ??$max@H@_STL@@YAABHABH0@Z
_TEXT	SEGMENT PARA USE32 PUBLIC 'CODE'
_TEXT	ENDS
;	COMDAT ??$use_facet@V?$codecvt@DDH@_STL@@@_STL@@YAABV?$codecvt@DDH@0@ABVlocale@0@@Z
_TEXT	SEGMENT PARA USE32 PUBLIC 'CODE'
_TEXT	ENDS
;	COMDAT ?Release@?$CPartManager@GEPAUIDirectSoundBuffer@@@@QAEXXZ
_TEXT	SEGMENT PARA USE32 PUBLIC 'CODE'
_TEXT	ENDS
;	COMDAT ??$__destroy@PAPAVCImmPeriodic@@PAV1@@_STL@@YAXPAPAVCImmPeriodic@@00@Z
_TEXT	SEGMENT PARA USE32 PUBLIC 'CODE'
_TEXT	ENDS
;	COMDAT ??$_M_append_dispatch@PBD@?$basic_string@DV?$char_traits@D@_STL@@V?$allocator@D@2@@_STL@@AAEAAV01@PBD0ABU__false_type@1@@Z
_TEXT	SEGMENT PARA USE32 PUBLIC 'CODE'
_TEXT	ENDS
;	COMDAT ?clear@?$_List_base@EV?$allocator@E@_STL@@@_STL@@QAEXXZ
_TEXT	SEGMENT PARA USE32 PUBLIC 'CODE'
_TEXT	ENDS
;	COMDAT ??$?0E@?$allocator@U?$_List_node@E@_STL@@@_STL@@QAE@ABV?$allocator@E@1@@Z
_TEXT	SEGMENT PARA USE32 PUBLIC 'CODE'
_TEXT	ENDS
;	COMDAT ??$__destroy_aux@PAPAVCImmPeriodic@@@_STL@@YAXPAPAVCImmPeriodic@@0ABU__true_type@0@@Z
_TEXT	SEGMENT PARA USE32 PUBLIC 'CODE'
_TEXT	ENDS
;	COMDAT ??$append@PBD@?$basic_string@DV?$char_traits@D@_STL@@V?$allocator@D@2@@_STL@@AAEAAV01@PBD0ABUforward_iterator_tag@1@@Z
_TEXT	SEGMENT PARA USE32 PUBLIC 'CODE'
_TEXT	ENDS
;	COMDAT ??$_Destroy@E@_STL@@YAXPAE@Z
_TEXT	SEGMENT PARA USE32 PUBLIC 'CODE'
_TEXT	ENDS
;	COMDAT ?_M_construct_null@?$basic_string@DV?$char_traits@D@_STL@@V?$allocator@D@2@@_STL@@AAEXPAD@Z
_TEXT	SEGMENT PARA USE32 PUBLIC 'CODE'
_TEXT	ENDS
;	COMDAT ?max_size@?$basic_string@DV?$char_traits@D@_STL@@V?$allocator@D@2@@_STL@@QBEIXZ
_TEXT	SEGMENT PARA USE32 PUBLIC 'CODE'
_TEXT	ENDS
;	COMDAT ?capacity@?$basic_string@DV?$char_traits@D@_STL@@V?$allocator@D@2@@_STL@@QBEIXZ
_TEXT	SEGMENT PARA USE32 PUBLIC 'CODE'
_TEXT	ENDS
;	COMDAT ?_M_construct_null_aux@?$basic_string@DV?$char_traits@D@_STL@@V?$allocator@D@2@@_STL@@AAEXPADABU__true_type@2@@Z
_TEXT	SEGMENT PARA USE32 PUBLIC 'CODE'
_TEXT	ENDS
;	COMDAT ?max_size@?$_String_base@DV?$allocator@D@_STL@@@_STL@@QBEIXZ
_TEXT	SEGMENT PARA USE32 PUBLIC 'CODE'
_TEXT	ENDS
;	COMDAT ??$distance@PBD@_STL@@YAHABQBD0@Z
_TEXT	SEGMENT PARA USE32 PUBLIC 'CODE'
_TEXT	ENDS
;	COMDAT ?_M_throw_length_error@?$_String_base@DV?$allocator@D@_STL@@@_STL@@QBEXXZ
_TEXT	SEGMENT PARA USE32 PUBLIC 'CODE'
_TEXT	ENDS
;	COMDAT ??$uninitialized_copy@PADPAD@_STL@@YAPADPAD00@Z
_TEXT	SEGMENT PARA USE32 PUBLIC 'CODE'
_TEXT	ENDS
;	COMDAT ??$__distance@PBD@_STL@@YAHABQBD0ABUrandom_access_iterator_tag@0@@Z
_TEXT	SEGMENT PARA USE32 PUBLIC 'CODE'
_TEXT	ENDS
;	COMDAT ??$__uninitialized_copy@PADPAD@_STL@@YAPADPAD00ABU__true_type@0@@Z
_TEXT	SEGMENT PARA USE32 PUBLIC 'CODE'
_TEXT	ENDS
;	COMDAT ?_Ret@?$_BothPtrType@PADPAD@_STL@@SA?AU__true_type@2@XZ
_TEXT	SEGMENT PARA USE32 PUBLIC 'CODE'
_TEXT	ENDS
;	COMDAT ??$__copy_aux@PADPAD@_STL@@YAPADPAD00ABU__true_type@0@@Z
_TEXT	SEGMENT PARA USE32 PUBLIC 'CODE'
_TEXT	ENDS
;	COMDAT ?_Ret@?$_OKToMemCpy@DD@_STL@@SA?AU__true_type@2@XZ
_TEXT	SEGMENT PARA USE32 PUBLIC 'CODE'
_TEXT	ENDS
;	COMDAT ??$_IsOKToMemCpy@DD@_STL@@YA?AU?$_OKToMemCpy@DD@0@PAD0@Z
_TEXT	SEGMENT PARA USE32 PUBLIC 'CODE'
_TEXT	ENDS
;	COMDAT ??$__copy_ptrs@PADPAD@_STL@@YAPADPAD00ABU__true_type@0@@Z
_TEXT	SEGMENT PARA USE32 PUBLIC 'CODE'
_TEXT	ENDS
;	COMDAT ??_R3CImmPeriodic@@8
rdata$r	SEGMENT DWORD USE32 PUBLIC 'CONST'
rdata$r	ENDS
;	COMDAT ??_R3IFileIO@@8
rdata$r	SEGMENT DWORD USE32 PUBLIC 'CONST'
rdata$r	ENDS
;	COMDAT ??_R3ivfstream@@8
rdata$r	SEGMENT DWORD USE32 PUBLIC 'CONST'
rdata$r	ENDS
;	COMDAT ??_R3iovfs_base@@8
rdata$r	SEGMENT DWORD USE32 PUBLIC 'CONST'
rdata$r	ENDS
;	COMDAT ??_R3ovfstream@@8
rdata$r	SEGMENT DWORD USE32 PUBLIC 'CONST'
rdata$r	ENDS
;	COMDAT ??_R2CImmPeriodic@@8
rdata$r	SEGMENT DWORD USE32 PUBLIC 'CONST'
rdata$r	ENDS
;	COMDAT ??_R2IFileIO@@8
rdata$r	SEGMENT DWORD USE32 PUBLIC 'CONST'
rdata$r	ENDS
;	COMDAT ??_R2ivfstream@@8
rdata$r	SEGMENT DWORD USE32 PUBLIC 'CONST'
rdata$r	ENDS
;	COMDAT ??_R2iovfs_base@@8
rdata$r	SEGMENT DWORD USE32 PUBLIC 'CONST'
rdata$r	ENDS
;	COMDAT ??_R2ovfstream@@8
rdata$r	SEGMENT DWORD USE32 PUBLIC 'CONST'
rdata$r	ENDS
;	COMDAT ??_R1A@?0A@A@CImmEffect@@8
rdata$r	SEGMENT DWORD USE32 PUBLIC 'CONST'
rdata$r	ENDS
;	COMDAT ??_R1A@?0A@A@CImmPeriodic@@8
rdata$r	SEGMENT DWORD USE32 PUBLIC 'CONST'
rdata$r	ENDS
;	COMDAT ??_R1A@?0A@A@IFileIO@@8
rdata$r	SEGMENT DWORD USE32 PUBLIC 'CONST'
rdata$r	ENDS
;	COMDAT ??_R1A@?0A@A@ivfstream@@8
rdata$r	SEGMENT DWORD USE32 PUBLIC 'CONST'
rdata$r	ENDS
;	COMDAT ??_R1A@?0A@A@iovfs_base@@8
rdata$r	SEGMENT DWORD USE32 PUBLIC 'CONST'
rdata$r	ENDS
;	COMDAT ??_R1A@?0A@A@ovfstream@@8
rdata$r	SEGMENT DWORD USE32 PUBLIC 'CONST'
rdata$r	ENDS
;	COMDAT ??_R0?AVCImmEffect@@@8
_DATA	SEGMENT DWORD USE32 PUBLIC 'DATA'
_DATA	ENDS
;	COMDAT ??_R0?AVCImmPeriodic@@@8
_DATA	SEGMENT DWORD USE32 PUBLIC 'DATA'
_DATA	ENDS
;	COMDAT ??_R0?AVIFileIO@@@8
_DATA	SEGMENT DWORD USE32 PUBLIC 'DATA'
_DATA	ENDS
;	COMDAT ??_R0?AVivfstream@@@8
_DATA	SEGMENT DWORD USE32 PUBLIC 'DATA'
_DATA	ENDS
;	COMDAT ??_R0?AViovfs_base@@@8
_DATA	SEGMENT DWORD USE32 PUBLIC 'DATA'
_DATA	ENDS
;	COMDAT ??_R0?AVovfstream@@@8
_DATA	SEGMENT DWORD USE32 PUBLIC 'DATA'
_DATA	ENDS
;	COMDAT ??_R4CImmPeriodic@@6B@
rdata$r	SEGMENT DWORD USE32 PUBLIC 'CONST'
rdata$r	ENDS
;	COMDAT ??_R4IFileIO@@6B@
rdata$r	SEGMENT DWORD USE32 PUBLIC 'CONST'
rdata$r	ENDS
;	COMDAT ??_R4ivfstream@@6B@
rdata$r	SEGMENT DWORD USE32 PUBLIC 'CONST'
rdata$r	ENDS
;	COMDAT ??_R4iovfs_base@@6B@
rdata$r	SEGMENT DWORD USE32 PUBLIC 'CONST'
rdata$r	ENDS
;	COMDAT ??_R4ovfstream@@6B@
rdata$r	SEGMENT DWORD USE32 PUBLIC 'CONST'
rdata$r	ENDS
;	COMDAT ?assign@?$char_traits@D@_STL@@SAXAADABD@Z
_TEXT	SEGMENT PARA USE32 PUBLIC 'CODE'
_TEXT	ENDS
;	COMDAT ?_M_deallocate_block@?$_String_base@DV?$allocator@D@_STL@@@_STL@@QAEXXZ
_TEXT	SEGMENT PARA USE32 PUBLIC 'CODE'
_TEXT	ENDS
;	COMDAT ?deallocate@?$allocator@D@_STL@@QAEXPADI@Z
_TEXT	SEGMENT PARA USE32 PUBLIC 'CODE'
_TEXT	ENDS
;	COMDAT ?uninitialized_copy@_STL@@YAPADPBD0PAD@Z
_TEXT	SEGMENT PARA USE32 PUBLIC 'CODE'
_TEXT	ENDS
;	COMDAT ?__page_size@_Filebuf_base@_STL@@SAIXZ
_TEXT	SEGMENT PARA USE32 PUBLIC 'CODE'
_TEXT	ENDS
;	COMDAT ?_M_write@?$basic_filebuf@DV?$char_traits@D@_STL@@@_STL@@QAE_NPADH@Z
_TEXT	SEGMENT PARA USE32 PUBLIC 'CODE'
_TEXT	ENDS
;	COMDAT ?unshift@?$codecvt@DDH@_STL@@QBE?AW4result@codecvt_base@2@AAHPAD1AAPAD@Z
_TEXT	SEGMENT PARA USE32 PUBLIC 'CODE'
_TEXT	ENDS
;	COMDAT ??1?$_STLP_alloc_proxy@PADDV?$allocator@D@_STL@@@_STL@@QAE@XZ
_TEXT	SEGMENT PARA USE32 PUBLIC 'CODE'
_TEXT	ENDS
;	COMDAT ??2@YAPAXIPAX@Z
_TEXT	SEGMENT PARA USE32 PUBLIC 'CODE'
_TEXT	ENDS
;	COMDAT ??1?$_String_base@DV?$allocator@D@_STL@@@_STL@@QAE@XZ
_TEXT	SEGMENT PARA USE32 PUBLIC 'CODE'
_TEXT	ENDS
;	COMDAT ??1?$allocator@D@_STL@@QAE@XZ
_TEXT	SEGMENT PARA USE32 PUBLIC 'CODE'
_TEXT	ENDS
;	COMDAT ?always_noconv@?$codecvt@DDH@_STL@@QBE_NXZ
_TEXT	SEGMENT PARA USE32 PUBLIC 'CODE'
_TEXT	ENDS
;	COMDAT ?encoding@?$codecvt@DDH@_STL@@QBEHXZ
_TEXT	SEGMENT PARA USE32 PUBLIC 'CODE'
_TEXT	ENDS
;	COMDAT ?max_length@?$codecvt@DDH@_STL@@QBEHXZ
_TEXT	SEGMENT PARA USE32 PUBLIC 'CODE'
_TEXT	ENDS
;	COMDAT ?__o_mode@_Filebuf_base@_STL@@QBEHXZ
_TEXT	SEGMENT PARA USE32 PUBLIC 'CODE'
_TEXT	ENDS
;	COMDAT ?__stl_new@_STL@@YAPAXI@Z
_TEXT	SEGMENT PARA USE32 PUBLIC 'CODE'
_TEXT	ENDS
;	COMDAT ?deallocate@?$__node_alloc@$00$0A@@_STL@@SAXPAXI@Z
_TEXT	SEGMENT PARA USE32 PUBLIC 'CODE'
_TEXT	ENDS
;	COMDAT ?__stl_delete@_STL@@YAXPAX@Z
_TEXT	SEGMENT PARA USE32 PUBLIC 'CODE'
_TEXT	ENDS
;	COMDAT ?_Destroy@_STL@@YAXPAD0@Z
_TEXT	SEGMENT PARA USE32 PUBLIC 'CODE'
_TEXT	ENDS
;	COMDAT ?__copy_trivial@_STL@@YAPAXPBX0PAX@Z
_TEXT	SEGMENT PARA USE32 PUBLIC 'CODE'
_TEXT	ENDS
;	COMDAT ?setp@?$basic_streambuf@DV?$char_traits@D@_STL@@@_STL@@IAEXPAD0@Z
_TEXT	SEGMENT PARA USE32 PUBLIC 'CODE'
_TEXT	ENDS
;	COMDAT ?_FILE_O_set@_STL@@YAXPAU_iobuf@@PAD11@Z
_TEXT	SEGMENT PARA USE32 PUBLIC 'CODE'
_TEXT	ENDS
;	COMDAT ?_FILE_I_set@_STL@@YAXPAU_iobuf@@PAD11@Z
_TEXT	SEGMENT PARA USE32 PUBLIC 'CODE'
_TEXT	ENDS
;	COMDAT ?setg@?$basic_streambuf@DV?$char_traits@D@_STL@@@_STL@@IAEXPAD00@Z
_TEXT	SEGMENT PARA USE32 PUBLIC 'CODE'
_TEXT	ENDS
;	COMDAT ?__is_open@_Filebuf_base@_STL@@QBE_NXZ
_TEXT	SEGMENT PARA USE32 PUBLIC 'CODE'
_TEXT	ENDS
;	COMDAT ?length@?$char_traits@D@_STL@@SAIPBD@Z
_TEXT	SEGMENT PARA USE32 PUBLIC 'CODE'
_TEXT	ENDS
;	COMDAT ?eof@?$__char_traits_base@DH@_STL@@SAHXZ
_TEXT	SEGMENT PARA USE32 PUBLIC 'CODE'
_TEXT	ENDS
;	COMDAT ??_SCImmPeriodic@@6B@
CONST	SEGMENT DWORD USE32 PUBLIC 'CONST'
CONST	ENDS
;	COMDAT ??_7ovfstream@@6B@
CONST	SEGMENT DWORD USE32 PUBLIC 'CONST'
CONST	ENDS
;	COMDAT ??_7ivfstream@@6B@
CONST	SEGMENT DWORD USE32 PUBLIC 'CONST'
CONST	ENDS
;	COMDAT ??1?$basic_string@DV?$char_traits@D@_STL@@V?$allocator@D@2@@_STL@@QAE@XZ
_TEXT	SEGMENT PARA USE32 PUBLIC 'CODE'
_TEXT	ENDS
;	COMDAT ??_7iovfs_base@@6B@
CONST	SEGMENT DWORD USE32 PUBLIC 'CONST'
CONST	ENDS
;	COMDAT ??_7IFileIO@@6B@
CONST	SEGMENT DWORD USE32 PUBLIC 'CONST'
CONST	ENDS
;	COMDAT _IsEqualGUID
_TEXT	SEGMENT PARA USE32 PUBLIC 'CODE'
_TEXT	ENDS
sxdata	SEGMENT DWORD USE32 'SXDATA'
sxdata	ENDS
FLAT	GROUP _DATA, CONST, _BSS
	ASSUME	CS: FLAT, DS: FLAT, SS: FLAT
endif

INCLUDELIB LIBCMT
INCLUDELIB OLDNAMES

PUBLIC	??_C@_0O@JKENFCBN@MinTrace?52003?$AA@		; `string'
PUBLIC	??_C@_0BE@MNEJIGLM@__MinTrace?5Window__?$AA@	; `string'
;	COMDAT ??_C@_0O@JKENFCBN@MinTrace?52003?$AA@
CONST	SEGMENT
??_C@_0O@JKENFCBN@MinTrace?52003?$AA@ DB 'MinTrace 2003', 00H ; `string'
CONST	ENDS
_DATA	SEGMENT
_g_pszMinTraceTitle DD FLAT:??_C@_0O@JKENFCBN@MinTrace?52003?$AA@
_DATA	ENDS
;	COMDAT ??_C@_0BE@MNEJIGLM@__MinTrace?5Window__?$AA@
CONST	SEGMENT
??_C@_0BE@MNEJIGLM@__MinTrace?5Window__?$AA@ DB '__MinTrace Window__', 00H ; `string'
CONST	ENDS
_DATA	SEGMENT
_g_pszMinTraceClassName DD FLAT:??_C@_0BE@MNEJIGLM@__MinTrace?5Window__?$AA@
_DATA	ENDS
PUBLIC	??2@YAPAXIPAX@Z					; operator new
; Function compile flags: /Ogty
; File c:\program files\microsoft visual studio .net 2003\vc7\include\new
;	COMDAT ??2@YAPAXIPAX@Z
_TEXT	SEGMENT
___formal$ = 8						; size = 4
__Where$ = 12						; size = 4
??2@YAPAXIPAX@Z PROC NEAR				; operator new, COMDAT

; 64   : 	return (_Where);

  00000	8b 44 24 08	 mov	 eax, DWORD PTR __Where$[esp-4]

; 65   : 	}

  00004	c3		 ret	 0
??2@YAPAXIPAX@Z ENDP					; operator new
_TEXT	ENDS
PUBLIC	?__stl_new@_STL@@YAPAXI@Z			; _STL::__stl_new
EXTRN	??2@YAPAXI@Z:NEAR				; operator new
; Function compile flags: /Ogty
; File c:\stlport-4.6.1\stlport\stl\_new.h
;	COMDAT ?__stl_new@_STL@@YAPAXI@Z
_TEXT	SEGMENT
___n$ = 8						; size = 4
?__stl_new@_STL@@YAPAXI@Z PROC NEAR			; _STL::__stl_new, COMDAT

; 86   : inline void*  _STLP_CALL __stl_new(size_t __n)   { _STLP_CHECK_NULL_ALLOC(::operator _STLP_NEW(__n)); }

  00000	e9 00 00 00 00	 jmp	 ??2@YAPAXI@Z		; operator new
?__stl_new@_STL@@YAPAXI@Z ENDP				; _STL::__stl_new
_TEXT	ENDS
PUBLIC	?__stl_delete@_STL@@YAXPAX@Z			; _STL::__stl_delete
EXTRN	??3@YAXPAX@Z:NEAR				; operator delete
; Function compile flags: /Ogty
;	COMDAT ?__stl_delete@_STL@@YAXPAX@Z
_TEXT	SEGMENT
___p$ = 8						; size = 4
?__stl_delete@_STL@@YAXPAX@Z PROC NEAR			; _STL::__stl_delete, COMDAT

; 87   : inline void   _STLP_CALL __stl_delete(void* __p) { ::operator delete(__p); }

  00000	e9 00 00 00 00	 jmp	 ??3@YAXPAX@Z		; operator delete
?__stl_delete@_STL@@YAXPAX@Z ENDP			; _STL::__stl_delete
_TEXT	ENDS
PUBLIC	?__copy_trivial@_STL@@YAPAXPBX0PAX@Z		; _STL::__copy_trivial
EXTRN	_memmove:NEAR
; Function compile flags: /Ogty
; File c:\stlport-4.6.1\stlport\stl\_algobase.h
;	COMDAT ?__copy_trivial@_STL@@YAPAXPBX0PAX@Z
_TEXT	SEGMENT
___first$ = 8						; size = 4
___last$ = 12						; size = 4
___result$ = 16						; size = 4
?__copy_trivial@_STL@@YAPAXPBX0PAX@Z PROC NEAR		; _STL::__copy_trivial, COMDAT

; 148  :   return (__last == __first) ? __result : 
; 149  :     ((char*)memmove(__result, __first, ((const char*)__last - (const char*)__first))) + 
; 150  :     ((const char*)__last - (const char*)__first);

  00000	8b 44 24 04	 mov	 eax, DWORD PTR ___first$[esp-4]
  00004	56		 push	 esi
  00005	8b 74 24 0c	 mov	 esi, DWORD PTR ___last$[esp]
  00009	3b f0		 cmp	 esi, eax
  0000b	75 06		 jne	 SHORT $L85183
  0000d	8b 44 24 10	 mov	 eax, DWORD PTR ___result$[esp]
  00011	5e		 pop	 esi

; 151  : }

  00012	c3		 ret	 0
$L85183:

; 148  :   return (__last == __first) ? __result : 
; 149  :     ((char*)memmove(__result, __first, ((const char*)__last - (const char*)__first))) + 
; 150  :     ((const char*)__last - (const char*)__first);

  00013	2b f0		 sub	 esi, eax
  00015	56		 push	 esi
  00016	50		 push	 eax
  00017	8b 44 24 18	 mov	 eax, DWORD PTR ___result$[esp+8]
  0001b	50		 push	 eax
  0001c	e8 00 00 00 00	 call	 _memmove
  00021	83 c4 0c	 add	 esp, 12			; 0000000cH
  00024	03 c6		 add	 eax, esi
  00026	5e		 pop	 esi

; 151  : }

  00027	c3		 ret	 0
?__copy_trivial@_STL@@YAPAXPBX0PAX@Z ENDP		; _STL::__copy_trivial
_TEXT	ENDS
PUBLIC	?IsDevice@CImm@@QAE_NXZ				; CImm::IsDevice
; Function compile flags: /Ogty
; File c:\darkeden\designed_common\project\new - vs_ui\src\imm\cimm.h
;	COMDAT ?IsDevice@CImm@@QAE_NXZ
_TEXT	SEGMENT
?IsDevice@CImm@@QAE_NXZ PROC NEAR			; CImm::IsDevice, COMDAT
; _this$ = ecx

; 64   : 	bool	IsDevice()	{ return m_pDevice != NULL; }

  00000	8b 51 04	 mov	 edx, DWORD PTR [ecx+4]
  00003	33 c0		 xor	 eax, eax
  00005	85 d2		 test	 edx, edx
  00007	0f 95 c0	 setne	 al
  0000a	c3		 ret	 0
?IsDevice@CImm@@QAE_NXZ ENDP				; CImm::IsDevice
_TEXT	ENDS
PUBLIC	?GetString@MString@@QBEPADXZ			; MString::GetString
; Function compile flags: /Ogty
; File c:\darkeden\designed_common\project\client\mstring.h
;	COMDAT ?GetString@MString@@QBEPADXZ
_TEXT	SEGMENT
?GetString@MString@@QBEPADXZ PROC NEAR			; MString::GetString, COMDAT
; _this$ = ecx

; 39   : 		char*		GetString() const		{ return m_pString; }

  00000	8b 41 08	 mov	 eax, DWORD PTR [ecx+8]
  00003	c3		 ret	 0
?GetString@MString@@QBEPADXZ ENDP			; MString::GetString
_TEXT	ENDS
PUBLIC	??_GCImmProject@@QAEPAXI@Z			; CImmProject::`scalar deleting destructor'
EXTRN	__imp_??1CImmProject@@QAE@XZ:NEAR
; Function compile flags: /Ogty
;	COMDAT ??_GCImmProject@@QAEPAXI@Z
_TEXT	SEGMENT
___flags$ = 8						; size = 4
??_GCImmProject@@QAEPAXI@Z PROC NEAR			; CImmProject::`scalar deleting destructor', COMDAT
; _this$ = ecx
  00000	56		 push	 esi
  00001	8b f1		 mov	 esi, ecx
  00003	ff 15 00 00 00
	00		 call	 DWORD PTR __imp_??1CImmProject@@QAE@XZ
  00009	f6 44 24 08 01	 test	 BYTE PTR ___flags$[esp], 1
  0000e	74 09		 je	 SHORT $L85194
  00010	56		 push	 esi
  00011	e8 00 00 00 00	 call	 ??3@YAXPAX@Z		; operator delete
  00016	83 c4 04	 add	 esp, 4
$L85194:
  00019	8b c6		 mov	 eax, esi
  0001b	5e		 pop	 esi
  0001c	c2 04 00	 ret	 4
??_GCImmProject@@QAEPAXI@Z ENDP				; CImmProject::`scalar deleting destructor'
_TEXT	ENDS
PUBLIC	?size@?$vector@PAVCImmPeriodic@@V?$allocator@PAVCImmPeriodic@@@_STL@@@_STL@@QBEIXZ ; _STL::vector<CImmPeriodic *,_STL::allocator<CImmPeriodic *> >::size
; Function compile flags: /Ogty
; File c:\stlport-4.6.1\stlport\stl\_vector.h
;	COMDAT ?size@?$vector@PAVCImmPeriodic@@V?$allocator@PAVCImmPeriodic@@@_STL@@@_STL@@QBEIXZ
_TEXT	SEGMENT
?size@?$vector@PAVCImmPeriodic@@V?$allocator@PAVCImmPeriodic@@@_STL@@@_STL@@QBEIXZ PROC NEAR ; _STL::vector<CImmPeriodic *,_STL::allocator<CImmPeriodic *> >::size, COMDAT
; _this$ = ecx

; 182  :   size_type size() const        { return size_type(this->_M_finish - this->_M_start); }

  00000	8b 41 04	 mov	 eax, DWORD PTR [ecx+4]
  00003	2b 01		 sub	 eax, DWORD PTR [ecx]
  00005	c1 f8 02	 sar	 eax, 2
  00008	c3		 ret	 0
?size@?$vector@PAVCImmPeriodic@@V?$allocator@PAVCImmPeriodic@@@_STL@@@_STL@@QBEIXZ ENDP ; _STL::vector<CImmPeriodic *,_STL::allocator<CImmPeriodic *> >::size
_TEXT	ENDS
PUBLIC	??0?$allocator@PAVCImmPeriodic@@@_STL@@QAE@XZ	; _STL::allocator<CImmPeriodic *>::allocator<CImmPeriodic *>
; Function compile flags: /Ogty
; File c:\stlport-4.6.1\stlport\stl\_alloc.h
;	COMDAT ??0?$allocator@PAVCImmPeriodic@@@_STL@@QAE@XZ
_TEXT	SEGMENT
??0?$allocator@PAVCImmPeriodic@@@_STL@@QAE@XZ PROC NEAR	; _STL::allocator<CImmPeriodic *>::allocator<CImmPeriodic *>, COMDAT
; _this$ = ecx

; 345  :   allocator() _STLP_NOTHROW {}

  00000	8b c1		 mov	 eax, ecx
  00002	c3		 ret	 0
??0?$allocator@PAVCImmPeriodic@@@_STL@@QAE@XZ ENDP	; _STL::allocator<CImmPeriodic *>::allocator<CImmPeriodic *>
_TEXT	ENDS
PUBLIC	??1?$allocator@PAVCImmPeriodic@@@_STL@@QAE@XZ	; _STL::allocator<CImmPeriodic *>::~allocator<CImmPeriodic *>
; Function compile flags: /Ogty
;	COMDAT ??1?$allocator@PAVCImmPeriodic@@@_STL@@QAE@XZ
_TEXT	SEGMENT
??1?$allocator@PAVCImmPeriodic@@@_STL@@QAE@XZ PROC NEAR	; _STL::allocator<CImmPeriodic *>::~allocator<CImmPeriodic *>, COMDAT
; _this$ = ecx

; 350  :   ~allocator() _STLP_NOTHROW {}

  00000	c3		 ret	 0
??1?$allocator@PAVCImmPeriodic@@@_STL@@QAE@XZ ENDP	; _STL::allocator<CImmPeriodic *>::~allocator<CImmPeriodic *>
_TEXT	ENDS
PUBLIC	?GetSize@?$CTypeTable@VSOUNDTABLE_INFO@@@@QBEHXZ ; CTypeTable<SOUNDTABLE_INFO>::GetSize
; Function compile flags: /Ogty
; File c:\darkeden\designed_common\project\client\ctypetable.h
;	COMDAT ?GetSize@?$CTypeTable@VSOUNDTABLE_INFO@@@@QBEHXZ
_TEXT	SEGMENT
?GetSize@?$CTypeTable@VSOUNDTABLE_INFO@@@@QBEHXZ PROC NEAR ; CTypeTable<SOUNDTABLE_INFO>::GetSize, COMDAT
; _this$ = ecx

; 32   : 		int				GetSize() const		{ return m_Size; }

  00000	8b 01		 mov	 eax, DWORD PTR [ecx]
  00002	c3		 ret	 0
?GetSize@?$CTypeTable@VSOUNDTABLE_INFO@@@@QBEHXZ ENDP	; CTypeTable<SOUNDTABLE_INFO>::GetSize
_TEXT	ENDS
PUBLIC	??A?$CTypeTable@VSOUNDTABLE_INFO@@@@QAEAAVSOUNDTABLE_INFO@@H@Z ; CTypeTable<SOUNDTABLE_INFO>::operator[]
; Function compile flags: /Ogty
;	COMDAT ??A?$CTypeTable@VSOUNDTABLE_INFO@@@@QAEAAVSOUNDTABLE_INFO@@H@Z
_TEXT	SEGMENT
_type$ = 8						; size = 4
??A?$CTypeTable@VSOUNDTABLE_INFO@@@@QAEAAVSOUNDTABLE_INFO@@H@Z PROC NEAR ; CTypeTable<SOUNDTABLE_INFO>::operator[], COMDAT
; _this$ = ecx

; 38   : 		Type&	operator [] (int type)				{ return m_pTypeInfo[type]; }

  00000	8b 44 24 04	 mov	 eax, DWORD PTR _type$[esp-4]
  00004	8b 49 04	 mov	 ecx, DWORD PTR [ecx+4]
  00007	8d 04 40	 lea	 eax, DWORD PTR [eax+eax*2]
  0000a	8d 04 81	 lea	 eax, DWORD PTR [ecx+eax*4]
  0000d	c2 04 00	 ret	 4
??A?$CTypeTable@VSOUNDTABLE_INFO@@@@QAEAAVSOUNDTABLE_INFO@@H@Z ENDP ; CTypeTable<SOUNDTABLE_INFO>::operator[]
_TEXT	ENDS
PUBLIC	?begin@?$vector@PAVCImmPeriodic@@V?$allocator@PAVCImmPeriodic@@@_STL@@@_STL@@QAEPAPAVCImmPeriodic@@XZ ; _STL::vector<CImmPeriodic *,_STL::allocator<CImmPeriodic *> >::begin
; Function compile flags: /Ogty
; File c:\stlport-4.6.1\stlport\stl\_vector.h
;	COMDAT ?begin@?$vector@PAVCImmPeriodic@@V?$allocator@PAVCImmPeriodic@@@_STL@@@_STL@@QAEPAPAVCImmPeriodic@@XZ
_TEXT	SEGMENT
?begin@?$vector@PAVCImmPeriodic@@V?$allocator@PAVCImmPeriodic@@@_STL@@@_STL@@QAEPAPAVCImmPeriodic@@XZ PROC NEAR ; _STL::vector<CImmPeriodic *,_STL::allocator<CImmPeriodic *> >::begin, COMDAT
; _this$ = ecx

; 172  :   iterator begin()             { return this->_M_start; }

  00000	8b 01		 mov	 eax, DWORD PTR [ecx]
  00002	c3		 ret	 0
?begin@?$vector@PAVCImmPeriodic@@V?$allocator@PAVCImmPeriodic@@@_STL@@@_STL@@QAEPAPAVCImmPeriodic@@XZ ENDP ; _STL::vector<CImmPeriodic *,_STL::allocator<CImmPeriodic *> >::begin
_TEXT	ENDS
PUBLIC	?begin@?$vector@PAVCImmPeriodic@@V?$allocator@PAVCImmPeriodic@@@_STL@@@_STL@@QBEPBQAVCImmPeriodic@@XZ ; _STL::vector<CImmPeriodic *,_STL::allocator<CImmPeriodic *> >::begin
; Function compile flags: /Ogty
;	COMDAT ?begin@?$vector@PAVCImmPeriodic@@V?$allocator@PAVCImmPeriodic@@@_STL@@@_STL@@QBEPBQAVCImmPeriodic@@XZ
_TEXT	SEGMENT
?begin@?$vector@PAVCImmPeriodic@@V?$allocator@PAVCImmPeriodic@@@_STL@@@_STL@@QBEPBQAVCImmPeriodic@@XZ PROC NEAR ; _STL::vector<CImmPeriodic *,_STL::allocator<CImmPeriodic *> >::begin, COMDAT
; _this$ = ecx

; 173  :   const_iterator begin() const { return this->_M_start; }

  00000	8b 01		 mov	 eax, DWORD PTR [ecx]
  00002	c3		 ret	 0
?begin@?$vector@PAVCImmPeriodic@@V?$allocator@PAVCImmPeriodic@@@_STL@@@_STL@@QBEPBQAVCImmPeriodic@@XZ ENDP ; _STL::vector<CImmPeriodic *,_STL::allocator<CImmPeriodic *> >::begin
_TEXT	ENDS
PUBLIC	?end@?$vector@PAVCImmPeriodic@@V?$allocator@PAVCImmPeriodic@@@_STL@@@_STL@@QAEPAPAVCImmPeriodic@@XZ ; _STL::vector<CImmPeriodic *,_STL::allocator<CImmPeriodic *> >::end
; Function compile flags: /Ogty
;	COMDAT ?end@?$vector@PAVCImmPeriodic@@V?$allocator@PAVCImmPeriodic@@@_STL@@@_STL@@QAEPAPAVCImmPeriodic@@XZ
_TEXT	SEGMENT
?end@?$vector@PAVCImmPeriodic@@V?$allocator@PAVCImmPeriodic@@@_STL@@@_STL@@QAEPAPAVCImmPeriodic@@XZ PROC NEAR ; _STL::vector<CImmPeriodic *,_STL::allocator<CImmPeriodic *> >::end, COMDAT
; _this$ = ecx

; 174  :   iterator end()               { return this->_M_finish; }

  00000	8b 41 04	 mov	 eax, DWORD PTR [ecx+4]
  00003	c3		 ret	 0
?end@?$vector@PAVCImmPeriodic@@V?$allocator@PAVCImmPeriodic@@@_STL@@@_STL@@QAEPAPAVCImmPeriodic@@XZ ENDP ; _STL::vector<CImmPeriodic *,_STL::allocator<CImmPeriodic *> >::end
_TEXT	ENDS
PUBLIC	??1?$_STLP_alloc_proxy@PAPAVCImmPeriodic@@PAV1@V?$allocator@PAVCImmPeriodic@@@_STL@@@_STL@@QAE@XZ ; _STL::_STLP_alloc_proxy<CImmPeriodic * *,CImmPeriodic *,_STL::allocator<CImmPeriodic *> >::~_STLP_alloc_proxy<CImmPeriodic * *,CImmPeriodic *,_STL::allocator<CImmPeriodic *> >
; Function compile flags: /Ogty
;	COMDAT ??1?$_STLP_alloc_proxy@PAPAVCImmPeriodic@@PAV1@V?$allocator@PAVCImmPeriodic@@@_STL@@@_STL@@QAE@XZ
_TEXT	SEGMENT
??1?$_STLP_alloc_proxy@PAPAVCImmPeriodic@@PAV1@V?$allocator@PAVCImmPeriodic@@@_STL@@@_STL@@QAE@XZ PROC NEAR ; _STL::_STLP_alloc_proxy<CImmPeriodic * *,CImmPeriodic *,_STL::allocator<CImmPeriodic *> >::~_STLP_alloc_proxy<CImmPeriodic * *,CImmPeriodic *,_STL::allocator<CImmPeriodic *> >, COMDAT
; _this$ = ecx
  00000	c3		 ret	 0
??1?$_STLP_alloc_proxy@PAPAVCImmPeriodic@@PAV1@V?$allocator@PAVCImmPeriodic@@@_STL@@@_STL@@QAE@XZ ENDP ; _STL::_STLP_alloc_proxy<CImmPeriodic * *,CImmPeriodic *,_STL::allocator<CImmPeriodic *> >::~_STLP_alloc_proxy<CImmPeriodic * *,CImmPeriodic *,_STL::allocator<CImmPeriodic *> >
_TEXT	ENDS
PUBLIC	?_M_set@?$vector@PAVCImmPeriodic@@V?$allocator@PAVCImmPeriodic@@@_STL@@@_STL@@IAEXPAPAVCImmPeriodic@@00@Z ; _STL::vector<CImmPeriodic *,_STL::allocator<CImmPeriodic *> >::_M_set
; Function compile flags: /Ogty
;	COMDAT ?_M_set@?$vector@PAVCImmPeriodic@@V?$allocator@PAVCImmPeriodic@@@_STL@@@_STL@@IAEXPAPAVCImmPeriodic@@00@Z
_TEXT	SEGMENT
___s$ = 8						; size = 4
___f$ = 12						; size = 4
___e$ = 16						; size = 4
?_M_set@?$vector@PAVCImmPeriodic@@V?$allocator@PAVCImmPeriodic@@@_STL@@@_STL@@IAEXPAPAVCImmPeriodic@@00@Z PROC NEAR ; _STL::vector<CImmPeriodic *,_STL::allocator<CImmPeriodic *> >::_M_set, COMDAT
; _this$ = ecx

; 501  :     this->_M_start = __s;

  00000	8b 44 24 04	 mov	 eax, DWORD PTR ___s$[esp-4]

; 502  :     this->_M_finish = __f;

  00004	8b 54 24 08	 mov	 edx, DWORD PTR ___f$[esp-4]
  00008	89 01		 mov	 DWORD PTR [ecx], eax

; 503  :     this->_M_end_of_storage._M_data = __e;

  0000a	8b 44 24 0c	 mov	 eax, DWORD PTR ___e$[esp-4]
  0000e	89 51 04	 mov	 DWORD PTR [ecx+4], edx
  00011	89 41 08	 mov	 DWORD PTR [ecx+8], eax

; 504  :   }

  00014	c2 0c 00	 ret	 12			; 0000000cH
?_M_set@?$vector@PAVCImmPeriodic@@V?$allocator@PAVCImmPeriodic@@@_STL@@@_STL@@IAEXPAPAVCImmPeriodic@@00@Z ENDP ; _STL::vector<CImmPeriodic *,_STL::allocator<CImmPeriodic *> >::_M_set
_TEXT	ENDS
PUBLIC	?allocate@?$__node_alloc@$00$0A@@_STL@@SAPAXI@Z	; _STL::__node_alloc<1,0>::allocate
EXTRN	?_M_allocate@?$__node_alloc@$00$0A@@_STL@@CAPAXI@Z:NEAR ; _STL::__node_alloc<1,0>::_M_allocate
; Function compile flags: /Ogty
; File c:\stlport-4.6.1\stlport\stl\_alloc.h
;	COMDAT ?allocate@?$__node_alloc@$00$0A@@_STL@@SAPAXI@Z
_TEXT	SEGMENT
___n$ = 8						; size = 4
?allocate@?$__node_alloc@$00$0A@@_STL@@SAPAXI@Z PROC NEAR ; _STL::__node_alloc<1,0>::allocate, COMDAT

; 251  :   static void * _STLP_CALL allocate(size_t __n) { return (__n > (size_t)_MAX_BYTES) ?  __stl_new(__n) : _M_allocate(__n); }

  00000	8b 44 24 04	 mov	 eax, DWORD PTR ___n$[esp-4]
  00004	3d 80 00 00 00	 cmp	 eax, 128		; 00000080H
  00009	76 09		 jbe	 SHORT $L85231
  0000b	89 44 24 04	 mov	 DWORD PTR ___n$[esp-4], eax
  0000f	e9 00 00 00 00	 jmp	 ??2@YAPAXI@Z		; operator new
$L85231:
  00014	89 44 24 04	 mov	 DWORD PTR ___n$[esp-4], eax
  00018	e9 00 00 00 00	 jmp	 ?_M_allocate@?$__node_alloc@$00$0A@@_STL@@CAPAXI@Z ; _STL::__node_alloc<1,0>::_M_allocate
?allocate@?$__node_alloc@$00$0A@@_STL@@SAPAXI@Z ENDP	; _STL::__node_alloc<1,0>::allocate
_TEXT	ENDS
PUBLIC	??0?$allocator@PAVCImmPeriodic@@@_STL@@QAE@ABV01@@Z ; _STL::allocator<CImmPeriodic *>::allocator<CImmPeriodic *>
; Function compile flags: /Ogty
;	COMDAT ??0?$allocator@PAVCImmPeriodic@@@_STL@@QAE@ABV01@@Z
_TEXT	SEGMENT
___formal$ = 8						; size = 4
??0?$allocator@PAVCImmPeriodic@@@_STL@@QAE@ABV01@@Z PROC NEAR ; _STL::allocator<CImmPeriodic *>::allocator<CImmPeriodic *>, COMDAT
; _this$ = ecx

; 349  :   allocator(const allocator<_Tp>&) _STLP_NOTHROW {}

  00000	8b c1		 mov	 eax, ecx
  00002	c2 04 00	 ret	 4
??0?$allocator@PAVCImmPeriodic@@@_STL@@QAE@ABV01@@Z ENDP ; _STL::allocator<CImmPeriodic *>::allocator<CImmPeriodic *>
_TEXT	ENDS
PUBLIC	??$_Construct@PAVCImmPeriodic@@PAV1@@_STL@@YAXPAPAVCImmPeriodic@@ABQAV1@@Z ; _STL::_Construct<CImmPeriodic *,CImmPeriodic *>
; Function compile flags: /Ogty
; File c:\stlport-4.6.1\stlport\stl\_construct.h
;	COMDAT ??$_Construct@PAVCImmPeriodic@@PAV1@@_STL@@YAXPAPAVCImmPeriodic@@ABQAV1@@Z
_TEXT	SEGMENT
___p$ = 8						; size = 4
___val$ = 12						; size = 4
??$_Construct@PAVCImmPeriodic@@PAV1@@_STL@@YAXPAPAVCImmPeriodic@@ABQAV1@@Z PROC NEAR ; _STL::_Construct<CImmPeriodic *,CImmPeriodic *>, COMDAT

; 94   : # ifdef _STLP_DEBUG_UNINITIALIZED
; 95   : 	memset((char*)__p, _STLP_SHRED_BYTE, sizeof(_T1));
; 96   : # endif
; 97   :     _STLP_PLACEMENT_NEW (__p) _T1(__val);

  00000	8b 44 24 04	 mov	 eax, DWORD PTR ___p$[esp-4]
  00004	85 c0		 test	 eax, eax
  00006	74 08		 je	 SHORT $L85243
  00008	8b 4c 24 08	 mov	 ecx, DWORD PTR ___val$[esp-4]
  0000c	8b 11		 mov	 edx, DWORD PTR [ecx]
  0000e	89 10		 mov	 DWORD PTR [eax], edx
$L85243:

; 98   : }

  00010	c3		 ret	 0
??$_Construct@PAVCImmPeriodic@@PAV1@@_STL@@YAXPAPAVCImmPeriodic@@ABQAV1@@Z ENDP ; _STL::_Construct<CImmPeriodic *,CImmPeriodic *>
_TEXT	ENDS
PUBLIC	??$max@I@_STL@@YAABIABI0@Z			; _STL::max<unsigned int>
; Function compile flags: /Ogty
; File c:\stlport-4.6.1\stlport\stl\_algobase.h
;	COMDAT ??$max@I@_STL@@YAABIABI0@Z
_TEXT	SEGMENT
___a$ = 8						; size = 4
___b$ = 12						; size = 4
??$max@I@_STL@@YAABIABI0@Z PROC NEAR			; _STL::max<unsigned int>, COMDAT

; 79   : inline const _Tp& (max)(const _Tp& __a, const _Tp& __b) {  return  __a < __b ? __b : __a; }

  00000	8b 44 24 04	 mov	 eax, DWORD PTR ___a$[esp-4]
  00004	8b 4c 24 08	 mov	 ecx, DWORD PTR ___b$[esp-4]
  00008	8b 10		 mov	 edx, DWORD PTR [eax]
  0000a	3b 11		 cmp	 edx, DWORD PTR [ecx]
  0000c	73 02		 jae	 SHORT $L85253
  0000e	8b c1		 mov	 eax, ecx
$L85253:
  00010	c3		 ret	 0
??$max@I@_STL@@YAABIABI0@Z ENDP				; _STL::max<unsigned int>
_TEXT	ENDS
PUBLIC	??$fill_n@PAPAVCImmPeriodic@@IPAV1@@_STL@@YAPAPAVCImmPeriodic@@PAPAV1@IABQAV1@@Z ; _STL::fill_n<CImmPeriodic * *,unsigned int,CImmPeriodic *>
; Function compile flags: /Ogty
;	COMDAT ??$fill_n@PAPAVCImmPeriodic@@IPAV1@@_STL@@YAPAPAVCImmPeriodic@@PAPAV1@IABQAV1@@Z
_TEXT	SEGMENT
___first$ = 8						; size = 4
___n$ = 12						; size = 4
___val$ = 16						; size = 4
??$fill_n@PAPAVCImmPeriodic@@IPAV1@@_STL@@YAPAPAVCImmPeriodic@@PAPAV1@IABQAV1@@Z PROC NEAR ; _STL::fill_n<CImmPeriodic * *,unsigned int,CImmPeriodic *>, COMDAT

; 333  :   _STLP_FIX_LITERAL_BUG(__first)
; 334  :   for ( ; __n > 0; --__n, ++__first)

  00000	8b 4c 24 08	 mov	 ecx, DWORD PTR ___n$[esp-4]
  00004	85 c9		 test	 ecx, ecx
  00006	8b 44 24 04	 mov	 eax, DWORD PTR ___first$[esp-4]
  0000a	76 10		 jbe	 SHORT $L84487
  0000c	8b 54 24 0c	 mov	 edx, DWORD PTR ___val$[esp-4]
  00010	56		 push	 esi
$L84485:

; 335  :     *__first = __val;

  00011	8b 32		 mov	 esi, DWORD PTR [edx]
  00013	89 30		 mov	 DWORD PTR [eax], esi
  00015	83 c0 04	 add	 eax, 4
  00018	49		 dec	 ecx
  00019	75 f6		 jne	 SHORT $L84485
  0001b	5e		 pop	 esi
$L84487:

; 336  :   return __first;
; 337  : }

  0001c	c3		 ret	 0
??$fill_n@PAPAVCImmPeriodic@@IPAV1@@_STL@@YAPAPAVCImmPeriodic@@PAPAV1@IABQAV1@@Z ENDP ; _STL::fill_n<CImmPeriodic * *,unsigned int,CImmPeriodic *>
_TEXT	ENDS
PUBLIC	??$__copy_ptrs@PAPAVCImmPeriodic@@PAPAV1@@_STL@@YAPAPAVCImmPeriodic@@PAPAV1@00ABU__true_type@0@@Z ; _STL::__copy_ptrs<CImmPeriodic * *,CImmPeriodic * *>
; Function compile flags: /Ogty
;	COMDAT ??$__copy_ptrs@PAPAVCImmPeriodic@@PAPAV1@@_STL@@YAPAPAVCImmPeriodic@@PAPAV1@00ABU__true_type@0@@Z
_TEXT	SEGMENT
___first$ = 8						; size = 4
___last$ = 12						; size = 4
___result$ = 16						; size = 4
___formal$ = 20						; size = 4
??$__copy_ptrs@PAPAVCImmPeriodic@@PAPAV1@@_STL@@YAPAPAVCImmPeriodic@@PAPAV1@00ABU__true_type@0@@Z PROC NEAR ; _STL::__copy_ptrs<CImmPeriodic * *,CImmPeriodic * *>, COMDAT

; 195  : // we know they all pointers, so this cast is OK 
; 196  :   //  return (_OutputIter)__copy_trivial(&(*__first), &(*__last), &(*__result));
; 197  :   return (_OutputIter)__copy_trivial(__first, __last, __result);

  00000	8b 44 24 04	 mov	 eax, DWORD PTR ___first$[esp-4]
  00004	56		 push	 esi
  00005	8b 74 24 0c	 mov	 esi, DWORD PTR ___last$[esp]
  00009	3b f0		 cmp	 esi, eax
  0000b	75 06		 jne	 SHORT $L85268
  0000d	8b 44 24 10	 mov	 eax, DWORD PTR ___result$[esp]
  00011	5e		 pop	 esi

; 198  : }

  00012	c3		 ret	 0

; 195  : // we know they all pointers, so this cast is OK 
; 196  :   //  return (_OutputIter)__copy_trivial(&(*__first), &(*__last), &(*__result));
; 197  :   return (_OutputIter)__copy_trivial(__first, __last, __result);

$L85268:
  00013	2b f0		 sub	 esi, eax
  00015	56		 push	 esi
  00016	50		 push	 eax
  00017	8b 44 24 18	 mov	 eax, DWORD PTR ___result$[esp+8]
  0001b	50		 push	 eax
  0001c	e8 00 00 00 00	 call	 _memmove
  00021	83 c4 0c	 add	 esp, 12			; 0000000cH
  00024	03 c6		 add	 eax, esi
  00026	5e		 pop	 esi

; 198  : }

  00027	c3		 ret	 0
??$__copy_ptrs@PAPAVCImmPeriodic@@PAPAV1@@_STL@@YAPAPAVCImmPeriodic@@PAPAV1@00ABU__true_type@0@@Z ENDP ; _STL::__copy_ptrs<CImmPeriodic * *,CImmPeriodic * *>
_TEXT	ENDS
PUBLIC	??$__destroy_aux@PAPAVCImmPeriodic@@@_STL@@YAXPAPAVCImmPeriodic@@0ABU__true_type@0@@Z ; _STL::__destroy_aux<CImmPeriodic * *>
; Function compile flags: /Ogty
; File c:\stlport-4.6.1\stlport\stl\_construct.h
;	COMDAT ??$__destroy_aux@PAPAVCImmPeriodic@@@_STL@@YAXPAPAVCImmPeriodic@@0ABU__true_type@0@@Z
_TEXT	SEGMENT
___formal$ = 8						; size = 4
___formal$ = 12						; size = 4
___formal$ = 16						; size = 4
??$__destroy_aux@PAPAVCImmPeriodic@@@_STL@@YAXPAPAVCImmPeriodic@@0ABU__true_type@0@@Z PROC NEAR ; _STL::__destroy_aux<CImmPeriodic * *>, COMDAT

; 128  : inline void __destroy_aux(_ForwardIterator, _ForwardIterator, const __true_type&) {}

  00000	c3		 ret	 0
??$__destroy_aux@PAPAVCImmPeriodic@@@_STL@@YAXPAPAVCImmPeriodic@@0ABU__true_type@0@@Z ENDP ; _STL::__destroy_aux<CImmPeriodic * *>
_TEXT	ENDS
PUBLIC	?deallocate@?$__node_alloc@$00$0A@@_STL@@SAXPAXI@Z ; _STL::__node_alloc<1,0>::deallocate
EXTRN	?_M_deallocate@?$__node_alloc@$00$0A@@_STL@@CAXPAXI@Z:NEAR ; _STL::__node_alloc<1,0>::_M_deallocate
; Function compile flags: /Ogty
; File c:\stlport-4.6.1\stlport\stl\_alloc.h
;	COMDAT ?deallocate@?$__node_alloc@$00$0A@@_STL@@SAXPAXI@Z
_TEXT	SEGMENT
___p$ = 8						; size = 4
___n$ = 12						; size = 4
?deallocate@?$__node_alloc@$00$0A@@_STL@@SAXPAXI@Z PROC NEAR ; _STL::__node_alloc<1,0>::deallocate, COMDAT

; 253  :   static void _STLP_CALL deallocate(void *__p, size_t __n) { if (__n > (size_t)_MAX_BYTES) __stl_delete(__p); else _M_deallocate(__p, __n); }

  00000	8b 44 24 08	 mov	 eax, DWORD PTR ___n$[esp-4]
  00004	3d 80 00 00 00	 cmp	 eax, 128		; 00000080H
  00009	76 0e		 jbe	 SHORT $L73486
  0000b	8b 44 24 04	 mov	 eax, DWORD PTR ___p$[esp-4]
  0000f	50		 push	 eax
  00010	e8 00 00 00 00	 call	 ??3@YAXPAX@Z		; operator delete
  00015	83 c4 04	 add	 esp, 4
  00018	c3		 ret	 0
$L73486:
  00019	89 44 24 08	 mov	 DWORD PTR ___n$[esp-4], eax
  0001d	e9 00 00 00 00	 jmp	 ?_M_deallocate@?$__node_alloc@$00$0A@@_STL@@CAXPAXI@Z ; _STL::__node_alloc<1,0>::_M_deallocate
?deallocate@?$__node_alloc@$00$0A@@_STL@@SAXPAXI@Z ENDP	; _STL::__node_alloc<1,0>::deallocate
_TEXT	ENDS
PUBLIC	?ForceAction@CImm@@QBEXH@Z			; CImm::ForceAction
EXTRN	__imp_?Start@CImmProject@@QAEHPBDKKPAVCImmDevice@@@Z:NEAR
EXTRN	_strrchr:NEAR
EXTRN	?g_pSoundTable@@3PAV?$CTypeTable@VSOUNDTABLE_INFO@@@@A:DWORD ; g_pSoundTable
; Function compile flags: /Ogty
; File c:\darkeden\designed_common\project\new - vs_ui\src\imm\cimm.cpp
;	COMDAT ?ForceAction@CImm@@QBEXH@Z
_TEXT	SEGMENT
_sound_id$ = 8						; size = 4
?ForceAction@CImm@@QBEXH@Z PROC NEAR			; CImm::ForceAction, COMDAT
; _this$ = ecx

; 195  : {

  00000	56		 push	 esi
  00001	8b f1		 mov	 esi, ecx

; 196  : 	if(m_bPlay && m_pDevice && m_ProjectAction && g_pSoundTable && sound_id < g_pSoundTable->GetSize())

  00003	80 3e 00	 cmp	 BYTE PTR [esi], 0
  00006	74 4d		 je	 SHORT $L84105
  00008	8b 46 04	 mov	 eax, DWORD PTR [esi+4]
  0000b	85 c0		 test	 eax, eax
  0000d	74 46		 je	 SHORT $L84105
  0000f	8b 46 08	 mov	 eax, DWORD PTR [esi+8]
  00012	85 c0		 test	 eax, eax
  00014	74 3f		 je	 SHORT $L84105
  00016	8b 0d 00 00 00
	00		 mov	 ecx, DWORD PTR ?g_pSoundTable@@3PAV?$CTypeTable@VSOUNDTABLE_INFO@@@@A ; g_pSoundTable
  0001c	85 c9		 test	 ecx, ecx
  0001e	74 35		 je	 SHORT $L84105
  00020	8b 44 24 08	 mov	 eax, DWORD PTR _sound_id$[esp]
  00024	3b 01		 cmp	 eax, DWORD PTR [ecx]
  00026	7d 2d		 jge	 SHORT $L84105

; 197  : 	{
; 198  : 		const char *pFilename = strrchr((*g_pSoundTable)[sound_id].Filename.GetString(), '\\');

  00028	8b 49 04	 mov	 ecx, DWORD PTR [ecx+4]
  0002b	8d 04 40	 lea	 eax, DWORD PTR [eax+eax*2]
  0002e	8b 44 81 08	 mov	 eax, DWORD PTR [ecx+eax*4+8]
  00032	6a 5c		 push	 92			; 0000005cH
  00034	50		 push	 eax
  00035	e8 00 00 00 00	 call	 _strrchr
  0003a	83 c4 08	 add	 esp, 8

; 199  : 		if(pFilename != NULL)

  0003d	85 c0		 test	 eax, eax
  0003f	74 14		 je	 SHORT $L84105

; 200  : 		{
; 201  : 			m_ProjectAction->Start(pFilename+1);

  00041	8b 4e 08	 mov	 ecx, DWORD PTR [esi+8]
  00044	6a 00		 push	 0
  00046	6a 00		 push	 0
  00048	68 00 00 00 80	 push	 -2147483648		; 80000000H
  0004d	40		 inc	 eax
  0004e	50		 push	 eax
  0004f	ff 15 00 00 00
	00		 call	 DWORD PTR __imp_?Start@CImmProject@@QAEHPBDKKPAVCImmDevice@@@Z
$L84105:
  00055	5e		 pop	 esi

; 202  : 		}
; 203  : 	}
; 204  : }

  00056	c2 04 00	 ret	 4
?ForceAction@CImm@@QBEXH@Z ENDP				; CImm::ForceAction
_TEXT	ENDS
PUBLIC	?ForceSkill@CImm@@QBEXH@Z			; CImm::ForceSkill
; Function compile flags: /Ogty
;	COMDAT ?ForceSkill@CImm@@QBEXH@Z
_TEXT	SEGMENT
_sound_id$ = 8						; size = 4
?ForceSkill@CImm@@QBEXH@Z PROC NEAR			; CImm::ForceSkill, COMDAT
; _this$ = ecx

; 208  : {

  00000	56		 push	 esi
  00001	8b f1		 mov	 esi, ecx

; 209  : 	if(m_bPlay && m_pDevice && m_ProjectSkill && g_pSoundTable && sound_id < g_pSoundTable->GetSize())

  00003	80 3e 00	 cmp	 BYTE PTR [esi], 0
  00006	74 4d		 je	 SHORT $L84112
  00008	8b 46 04	 mov	 eax, DWORD PTR [esi+4]
  0000b	85 c0		 test	 eax, eax
  0000d	74 46		 je	 SHORT $L84112
  0000f	8b 46 0c	 mov	 eax, DWORD PTR [esi+12]
  00012	85 c0		 test	 eax, eax
  00014	74 3f		 je	 SHORT $L84112
  00016	8b 0d 00 00 00
	00		 mov	 ecx, DWORD PTR ?g_pSoundTable@@3PAV?$CTypeTable@VSOUNDTABLE_INFO@@@@A ; g_pSoundTable
  0001c	85 c9		 test	 ecx, ecx
  0001e	74 35		 je	 SHORT $L84112
  00020	8b 44 24 08	 mov	 eax, DWORD PTR _sound_id$[esp]
  00024	3b 01		 cmp	 eax, DWORD PTR [ecx]
  00026	7d 2d		 jge	 SHORT $L84112

; 210  : 	{
; 211  : 		const char *pFilename = strrchr((*g_pSoundTable)[sound_id].Filename.GetString(), '\\');

  00028	8b 49 04	 mov	 ecx, DWORD PTR [ecx+4]
  0002b	8d 04 40	 lea	 eax, DWORD PTR [eax+eax*2]
  0002e	8b 44 81 08	 mov	 eax, DWORD PTR [ecx+eax*4+8]
  00032	6a 5c		 push	 92			; 0000005cH
  00034	50		 push	 eax
  00035	e8 00 00 00 00	 call	 _strrchr
  0003a	83 c4 08	 add	 esp, 8

; 212  : 		if(pFilename != NULL)

  0003d	85 c0		 test	 eax, eax
  0003f	74 14		 je	 SHORT $L84112

; 213  : 		{
; 214  : 			m_ProjectSkill->Start(pFilename+1);

  00041	8b 4e 0c	 mov	 ecx, DWORD PTR [esi+12]
  00044	6a 00		 push	 0
  00046	6a 00		 push	 0
  00048	68 00 00 00 80	 push	 -2147483648		; 80000000H
  0004d	40		 inc	 eax
  0004e	50		 push	 eax
  0004f	ff 15 00 00 00
	00		 call	 DWORD PTR __imp_?Start@CImmProject@@QAEHPBDKKPAVCImmDevice@@@Z
$L84112:
  00055	5e		 pop	 esi

; 215  : 		}
; 216  : 	}
; 217  : }

  00056	c2 04 00	 ret	 4
?ForceSkill@CImm@@QBEXH@Z ENDP				; CImm::ForceSkill
_TEXT	ENDS
PUBLIC	?ForceUseItem@CImm@@QBEXH@Z			; CImm::ForceUseItem
; Function compile flags: /Ogty
;	COMDAT ?ForceUseItem@CImm@@QBEXH@Z
_TEXT	SEGMENT
_sound_id$ = 8						; size = 4
?ForceUseItem@CImm@@QBEXH@Z PROC NEAR			; CImm::ForceUseItem, COMDAT
; _this$ = ecx

; 221  : {

  00000	56		 push	 esi
  00001	8b f1		 mov	 esi, ecx

; 222  : 	if(m_bPlay && m_pDevice && m_ProjectUseItem && g_pSoundTable && sound_id < g_pSoundTable->GetSize())

  00003	80 3e 00	 cmp	 BYTE PTR [esi], 0
  00006	74 4d		 je	 SHORT $L84119
  00008	8b 46 04	 mov	 eax, DWORD PTR [esi+4]
  0000b	85 c0		 test	 eax, eax
  0000d	74 46		 je	 SHORT $L84119
  0000f	8b 46 14	 mov	 eax, DWORD PTR [esi+20]
  00012	85 c0		 test	 eax, eax
  00014	74 3f		 je	 SHORT $L84119
  00016	8b 0d 00 00 00
	00		 mov	 ecx, DWORD PTR ?g_pSoundTable@@3PAV?$CTypeTable@VSOUNDTABLE_INFO@@@@A ; g_pSoundTable
  0001c	85 c9		 test	 ecx, ecx
  0001e	74 35		 je	 SHORT $L84119
  00020	8b 44 24 08	 mov	 eax, DWORD PTR _sound_id$[esp]
  00024	3b 01		 cmp	 eax, DWORD PTR [ecx]
  00026	7d 2d		 jge	 SHORT $L84119

; 223  : 	{
; 224  : 		const char *pFilename = strrchr((*g_pSoundTable)[sound_id].Filename.GetString(), '\\');

  00028	8b 49 04	 mov	 ecx, DWORD PTR [ecx+4]
  0002b	8d 04 40	 lea	 eax, DWORD PTR [eax+eax*2]
  0002e	8b 44 81 08	 mov	 eax, DWORD PTR [ecx+eax*4+8]
  00032	6a 5c		 push	 92			; 0000005cH
  00034	50		 push	 eax
  00035	e8 00 00 00 00	 call	 _strrchr
  0003a	83 c4 08	 add	 esp, 8

; 225  : 		if(pFilename != NULL)

  0003d	85 c0		 test	 eax, eax
  0003f	74 14		 je	 SHORT $L84119

; 226  : 		{
; 227  : 			m_ProjectUseItem->Start(pFilename+1);

  00041	8b 4e 14	 mov	 ecx, DWORD PTR [esi+20]
  00044	6a 00		 push	 0
  00046	6a 00		 push	 0
  00048	68 00 00 00 80	 push	 -2147483648		; 80000000H
  0004d	40		 inc	 eax
  0004e	50		 push	 eax
  0004f	ff 15 00 00 00
	00		 call	 DWORD PTR __imp_?Start@CImmProject@@QAEHPBDKKPAVCImmDevice@@@Z
$L84119:
  00055	5e		 pop	 esi

; 228  : 		}
; 229  : 	}
; 230  : }

  00056	c2 04 00	 ret	 4
?ForceUseItem@CImm@@QBEXH@Z ENDP			; CImm::ForceUseItem
_TEXT	ENDS
PUBLIC	?ForceInventory@CImm@@QBEXH@Z			; CImm::ForceInventory
; Function compile flags: /Ogty
;	COMDAT ?ForceInventory@CImm@@QBEXH@Z
_TEXT	SEGMENT
_sound_id$ = 8						; size = 4
?ForceInventory@CImm@@QBEXH@Z PROC NEAR			; CImm::ForceInventory, COMDAT
; _this$ = ecx

; 234  : {

  00000	56		 push	 esi
  00001	8b f1		 mov	 esi, ecx

; 235  : 	if(m_bPlay && m_pDevice && m_ProjectInventory && g_pSoundTable && sound_id < g_pSoundTable->GetSize())

  00003	80 3e 00	 cmp	 BYTE PTR [esi], 0
  00006	74 4d		 je	 SHORT $L84126
  00008	8b 46 04	 mov	 eax, DWORD PTR [esi+4]
  0000b	85 c0		 test	 eax, eax
  0000d	74 46		 je	 SHORT $L84126
  0000f	8b 46 10	 mov	 eax, DWORD PTR [esi+16]
  00012	85 c0		 test	 eax, eax
  00014	74 3f		 je	 SHORT $L84126
  00016	8b 0d 00 00 00
	00		 mov	 ecx, DWORD PTR ?g_pSoundTable@@3PAV?$CTypeTable@VSOUNDTABLE_INFO@@@@A ; g_pSoundTable
  0001c	85 c9		 test	 ecx, ecx
  0001e	74 35		 je	 SHORT $L84126
  00020	8b 44 24 08	 mov	 eax, DWORD PTR _sound_id$[esp]
  00024	3b 01		 cmp	 eax, DWORD PTR [ecx]
  00026	7d 2d		 jge	 SHORT $L84126

; 236  : 	{
; 237  : 		const char *pFilename = strrchr((*g_pSoundTable)[sound_id].Filename.GetString(), '\\');

  00028	8b 49 04	 mov	 ecx, DWORD PTR [ecx+4]
  0002b	8d 04 40	 lea	 eax, DWORD PTR [eax+eax*2]
  0002e	8b 44 81 08	 mov	 eax, DWORD PTR [ecx+eax*4+8]
  00032	6a 5c		 push	 92			; 0000005cH
  00034	50		 push	 eax
  00035	e8 00 00 00 00	 call	 _strrchr
  0003a	83 c4 08	 add	 esp, 8

; 238  : 		if(pFilename != NULL)

  0003d	85 c0		 test	 eax, eax
  0003f	74 14		 je	 SHORT $L84126

; 239  : 		{
; 240  : 			m_ProjectInventory->Start(pFilename+1);

  00041	8b 4e 10	 mov	 ecx, DWORD PTR [esi+16]
  00044	6a 00		 push	 0
  00046	6a 00		 push	 0
  00048	68 00 00 00 80	 push	 -2147483648		; 80000000H
  0004d	40		 inc	 eax
  0004e	50		 push	 eax
  0004f	ff 15 00 00 00
	00		 call	 DWORD PTR __imp_?Start@CImmProject@@QAEHPBDKKPAVCImmDevice@@@Z
$L84126:
  00055	5e		 pop	 esi

; 241  : 		}
; 242  : 	}
; 243  : }

  00056	c2 04 00	 ret	 4
?ForceInventory@CImm@@QBEXH@Z ENDP			; CImm::ForceInventory
_TEXT	ENDS
PUBLIC	??A?$vector@PAVCImmPeriodic@@V?$allocator@PAVCImmPeriodic@@@_STL@@@_STL@@QAEAAPAVCImmPeriodic@@I@Z ; _STL::vector<CImmPeriodic *,_STL::allocator<CImmPeriodic *> >::operator[]
; Function compile flags: /Ogty
; File c:\stlport-4.6.1\stlport\stl\_vector.h
;	COMDAT ??A?$vector@PAVCImmPeriodic@@V?$allocator@PAVCImmPeriodic@@@_STL@@@_STL@@QAEAAPAVCImmPeriodic@@I@Z
_TEXT	SEGMENT
___n$ = 8						; size = 4
??A?$vector@PAVCImmPeriodic@@V?$allocator@PAVCImmPeriodic@@@_STL@@@_STL@@QAEAAPAVCImmPeriodic@@I@Z PROC NEAR ; _STL::vector<CImmPeriodic *,_STL::allocator<CImmPeriodic *> >::operator[], COMDAT
; _this$ = ecx

; 187  :   reference operator[](size_type __n) { return *(begin() + __n); }

  00000	8b 01		 mov	 eax, DWORD PTR [ecx]
  00002	8b 4c 24 04	 mov	 ecx, DWORD PTR ___n$[esp-4]
  00006	8d 04 88	 lea	 eax, DWORD PTR [eax+ecx*4]
  00009	c2 04 00	 ret	 4
??A?$vector@PAVCImmPeriodic@@V?$allocator@PAVCImmPeriodic@@@_STL@@@_STL@@QAEAAPAVCImmPeriodic@@I@Z ENDP ; _STL::vector<CImmPeriodic *,_STL::allocator<CImmPeriodic *> >::operator[]
_TEXT	ENDS
PUBLIC	??A?$vector@PAVCImmPeriodic@@V?$allocator@PAVCImmPeriodic@@@_STL@@@_STL@@QBEABQAVCImmPeriodic@@I@Z ; _STL::vector<CImmPeriodic *,_STL::allocator<CImmPeriodic *> >::operator[]
; Function compile flags: /Ogty
;	COMDAT ??A?$vector@PAVCImmPeriodic@@V?$allocator@PAVCImmPeriodic@@@_STL@@@_STL@@QBEABQAVCImmPeriodic@@I@Z
_TEXT	SEGMENT
___n$ = 8						; size = 4
??A?$vector@PAVCImmPeriodic@@V?$allocator@PAVCImmPeriodic@@@_STL@@@_STL@@QBEABQAVCImmPeriodic@@I@Z PROC NEAR ; _STL::vector<CImmPeriodic *,_STL::allocator<CImmPeriodic *> >::operator[], COMDAT
; _this$ = ecx

; 188  :   const_reference operator[](size_type __n) const { return *(begin() + __n); }

  00000	8b 01		 mov	 eax, DWORD PTR [ecx]
  00002	8b 4c 24 04	 mov	 ecx, DWORD PTR ___n$[esp-4]
  00006	8d 04 88	 lea	 eax, DWORD PTR [eax+ecx*4]
  00009	c2 04 00	 ret	 4
??A?$vector@PAVCImmPeriodic@@V?$allocator@PAVCImmPeriodic@@@_STL@@@_STL@@QBEABQAVCImmPeriodic@@I@Z ENDP ; _STL::vector<CImmPeriodic *,_STL::allocator<CImmPeriodic *> >::operator[]
_TEXT	ENDS
PUBLIC	?allocate@?$allocator@PAVCImmPeriodic@@@_STL@@QAEPAPAVCImmPeriodic@@IPBX@Z ; _STL::allocator<CImmPeriodic *>::allocate
; Function compile flags: /Ogty
; File c:\stlport-4.6.1\stlport\stl\_alloc.h
;	COMDAT ?allocate@?$allocator@PAVCImmPeriodic@@@_STL@@QAEPAPAVCImmPeriodic@@IPBX@Z
_TEXT	SEGMENT
___n$ = 8						; size = 4
___formal$ = 12						; size = 4
?allocate@?$allocator@PAVCImmPeriodic@@@_STL@@QAEPAPAVCImmPeriodic@@IPBX@Z PROC NEAR ; _STL::allocator<CImmPeriodic *>::allocate, COMDAT
; _this$ = ecx

; 355  :     return __n != 0 ? __REINTERPRET_CAST(value_type*,__sgi_alloc::allocate(__n * sizeof(value_type))) : 0;

  00000	8b 44 24 04	 mov	 eax, DWORD PTR ___n$[esp-4]
  00004	85 c0		 test	 eax, eax
  00006	74 21		 je	 SHORT $L85352
  00008	c1 e0 02	 shl	 eax, 2
  0000b	3d 80 00 00 00	 cmp	 eax, 128		; 00000080H
  00010	50		 push	 eax
  00011	76 0b		 jbe	 SHORT $L85362
  00013	e8 00 00 00 00	 call	 ??2@YAPAXI@Z		; operator new
  00018	83 c4 04	 add	 esp, 4

; 356  :   }

  0001b	c2 08 00	 ret	 8

; 355  :     return __n != 0 ? __REINTERPRET_CAST(value_type*,__sgi_alloc::allocate(__n * sizeof(value_type))) : 0;

$L85362:
  0001e	e8 00 00 00 00	 call	 ?_M_allocate@?$__node_alloc@$00$0A@@_STL@@CAPAXI@Z ; _STL::__node_alloc<1,0>::_M_allocate
  00023	83 c4 04	 add	 esp, 4

; 356  :   }

  00026	c2 08 00	 ret	 8
$L85352:

; 355  :     return __n != 0 ? __REINTERPRET_CAST(value_type*,__sgi_alloc::allocate(__n * sizeof(value_type))) : 0;

  00029	33 c0		 xor	 eax, eax

; 356  :   }

  0002b	c2 08 00	 ret	 8
?allocate@?$allocator@PAVCImmPeriodic@@@_STL@@QAEPAPAVCImmPeriodic@@IPBX@Z ENDP ; _STL::allocator<CImmPeriodic *>::allocate
_TEXT	ENDS
PUBLIC	?deallocate@?$allocator@PAVCImmPeriodic@@@_STL@@QAEXPAPAVCImmPeriodic@@I@Z ; _STL::allocator<CImmPeriodic *>::deallocate
; Function compile flags: /Ogty
;	COMDAT ?deallocate@?$allocator@PAVCImmPeriodic@@@_STL@@QAEXPAPAVCImmPeriodic@@I@Z
_TEXT	SEGMENT
___p$ = 8						; size = 4
___n$ = 12						; size = 4
?deallocate@?$allocator@PAVCImmPeriodic@@@_STL@@QAEXPAPAVCImmPeriodic@@I@Z PROC NEAR ; _STL::allocator<CImmPeriodic *>::deallocate, COMDAT
; _this$ = ecx

; 359  :     _STLP_ASSERT( (__p == 0) == (__n == 0) )
; 360  :       if (__p != 0) __sgi_alloc::deallocate((void*)__p, __n * sizeof(value_type));

  00000	8b 4c 24 04	 mov	 ecx, DWORD PTR ___p$[esp-4]
  00004	85 c9		 test	 ecx, ecx
  00006	74 24		 je	 SHORT $L85379
  00008	8b 44 24 08	 mov	 eax, DWORD PTR ___n$[esp-4]
  0000c	c1 e0 02	 shl	 eax, 2
  0000f	3d 80 00 00 00	 cmp	 eax, 128		; 00000080H
  00014	76 0c		 jbe	 SHORT $L85378
  00016	51		 push	 ecx
  00017	e8 00 00 00 00	 call	 ??3@YAXPAX@Z		; operator delete
  0001c	83 c4 04	 add	 esp, 4

; 361  :   }

  0001f	c2 08 00	 ret	 8

; 359  :     _STLP_ASSERT( (__p == 0) == (__n == 0) )
; 360  :       if (__p != 0) __sgi_alloc::deallocate((void*)__p, __n * sizeof(value_type));

$L85378:
  00022	50		 push	 eax
  00023	51		 push	 ecx
  00024	e8 00 00 00 00	 call	 ?_M_deallocate@?$__node_alloc@$00$0A@@_STL@@CAXPAXI@Z ; _STL::__node_alloc<1,0>::_M_deallocate
  00029	83 c4 08	 add	 esp, 8
$L85379:

; 361  :   }

  0002c	c2 08 00	 ret	 8
?deallocate@?$allocator@PAVCImmPeriodic@@@_STL@@QAEXPAPAVCImmPeriodic@@I@Z ENDP ; _STL::allocator<CImmPeriodic *>::deallocate
_TEXT	ENDS
PUBLIC	??0?$_STLP_alloc_proxy@PAPAVCImmPeriodic@@PAV1@V?$allocator@PAVCImmPeriodic@@@_STL@@@_STL@@QAE@ABV?$allocator@PAVCImmPeriodic@@@1@PAPAVCImmPeriodic@@@Z ; _STL::_STLP_alloc_proxy<CImmPeriodic * *,CImmPeriodic *,_STL::allocator<CImmPeriodic *> >::_STLP_alloc_proxy<CImmPeriodic * *,CImmPeriodic *,_STL::allocator<CImmPeriodic *> >
; Function compile flags: /Ogty
;	COMDAT ??0?$_STLP_alloc_proxy@PAPAVCImmPeriodic@@PAV1@V?$allocator@PAVCImmPeriodic@@@_STL@@@_STL@@QAE@ABV?$allocator@PAVCImmPeriodic@@@1@PAPAVCImmPeriodic@@@Z
_TEXT	SEGMENT
___a$ = 8						; size = 4
___p$ = 12						; size = 4
??0?$_STLP_alloc_proxy@PAPAVCImmPeriodic@@PAV1@V?$allocator@PAVCImmPeriodic@@@_STL@@@_STL@@QAE@ABV?$allocator@PAVCImmPeriodic@@@1@PAPAVCImmPeriodic@@@Z PROC NEAR ; _STL::_STLP_alloc_proxy<CImmPeriodic * *,CImmPeriodic *,_STL::allocator<CImmPeriodic *> >::_STLP_alloc_proxy<CImmPeriodic * *,CImmPeriodic *,_STL::allocator<CImmPeriodic *> >, COMDAT
; _this$ = ecx

; 487  :   inline _STLP_alloc_proxy(const _MaybeReboundAlloc& __a, _Value __p) : _MaybeReboundAlloc(__a), _M_data(__p) {}

  00000	8b c1		 mov	 eax, ecx
  00002	8b 4c 24 08	 mov	 ecx, DWORD PTR ___p$[esp-4]
  00006	89 08		 mov	 DWORD PTR [eax], ecx
  00008	c2 08 00	 ret	 8
??0?$_STLP_alloc_proxy@PAPAVCImmPeriodic@@PAV1@V?$allocator@PAVCImmPeriodic@@@_STL@@@_STL@@QAE@ABV?$allocator@PAVCImmPeriodic@@@1@PAPAVCImmPeriodic@@@Z ENDP ; _STL::_STLP_alloc_proxy<CImmPeriodic * *,CImmPeriodic *,_STL::allocator<CImmPeriodic *> >::_STLP_alloc_proxy<CImmPeriodic * *,CImmPeriodic *,_STL::allocator<CImmPeriodic *> >
_TEXT	ENDS
PUBLIC	??$__destroy@PAPAVCImmPeriodic@@PAV1@@_STL@@YAXPAPAVCImmPeriodic@@00@Z ; _STL::__destroy<CImmPeriodic * *,CImmPeriodic *>
; Function compile flags: /Ogty
; File c:\stlport-4.6.1\stlport\stl\_construct.h
;	COMDAT ??$__destroy@PAPAVCImmPeriodic@@PAV1@@_STL@@YAXPAPAVCImmPeriodic@@00@Z
_TEXT	SEGMENT
___first$ = 8						; size = 4
___last$ = 12						; size = 4
___formal$ = 16						; size = 4
??$__destroy@PAPAVCImmPeriodic@@PAV1@@_STL@@YAXPAPAVCImmPeriodic@@00@Z PROC NEAR ; _STL::__destroy<CImmPeriodic * *,CImmPeriodic *>, COMDAT

; 133  :   typedef typename __type_traits<_Tp>::has_trivial_destructor _Trivial_destructor;
; 134  :   __destroy_aux(__first, __last, _Trivial_destructor());
; 135  : }

  00000	c3		 ret	 0
??$__destroy@PAPAVCImmPeriodic@@PAV1@@_STL@@YAXPAPAVCImmPeriodic@@00@Z ENDP ; _STL::__destroy<CImmPeriodic * *,CImmPeriodic *>
_TEXT	ENDS
PUBLIC	?ForceUI@CImm@@QBEXI@Z				; CImm::ForceUI
; Function compile flags: /Ogty
; File c:\darkeden\designed_common\project\new - vs_ui\src\imm\cimm.cpp
;	COMDAT ?ForceUI@CImm@@QBEXI@Z
_TEXT	SEGMENT
_ID$ = 8						; size = 4
?ForceUI@CImm@@QBEXI@Z PROC NEAR			; CImm::ForceUI, COMDAT
; _this$ = ecx

; 188  : 	if(m_bPlay && m_pDevice)

  00000	80 39 00	 cmp	 BYTE PTR [ecx], 0
  00003	74 32		 je	 SHORT $L84065
  00005	8b 41 04	 mov	 eax, DWORD PTR [ecx+4]
  00008	85 c0		 test	 eax, eax
  0000a	74 2b		 je	 SHORT $L84065

; 189  : 		if(ID < m_vUI.size() && m_vUI[ID] != NULL)

  0000c	8b 41 18	 mov	 eax, DWORD PTR [ecx+24]
  0000f	8b 51 1c	 mov	 edx, DWORD PTR [ecx+28]
  00012	2b d0		 sub	 edx, eax
  00014	8b 44 24 04	 mov	 eax, DWORD PTR _ID$[esp-4]
  00018	c1 fa 02	 sar	 edx, 2
  0001b	3b c2		 cmp	 eax, edx
  0001d	73 18		 jae	 SHORT $L84065
  0001f	8b 49 18	 mov	 ecx, DWORD PTR [ecx+24]
  00022	8b 0c 81	 mov	 ecx, DWORD PTR [ecx+eax*4]
  00025	85 c9		 test	 ecx, ecx
  00027	74 0e		 je	 SHORT $L84065

; 190  : 			m_vUI[ID]->Start();

  00029	8b 11		 mov	 edx, DWORD PTR [ecx]
  0002b	6a 01		 push	 1
  0002d	6a 00		 push	 0
  0002f	68 00 00 00 80	 push	 -2147483648		; 80000000H
  00034	ff 52 14	 call	 DWORD PTR [edx+20]
$L84065:

; 191  : }

  00037	c2 04 00	 ret	 4
?ForceUI@CImm@@QBEXI@Z ENDP				; CImm::ForceUI
_TEXT	ENDS
PUBLIC	??0?$_Vector_base@PAVCImmPeriodic@@V?$allocator@PAVCImmPeriodic@@@_STL@@@_STL@@QAE@ABV?$allocator@PAVCImmPeriodic@@@1@@Z ; _STL::_Vector_base<CImmPeriodic *,_STL::allocator<CImmPeriodic *> >::_Vector_base<CImmPeriodic *,_STL::allocator<CImmPeriodic *> >
; Function compile flags: /Ogty
; File c:\stlport-4.6.1\stlport\stl\_vector.h
;	COMDAT ??0?$_Vector_base@PAVCImmPeriodic@@V?$allocator@PAVCImmPeriodic@@@_STL@@@_STL@@QAE@ABV?$allocator@PAVCImmPeriodic@@@1@@Z
_TEXT	SEGMENT
___a$ = 8						; size = 4
??0?$_Vector_base@PAVCImmPeriodic@@V?$allocator@PAVCImmPeriodic@@@_STL@@@_STL@@QAE@ABV?$allocator@PAVCImmPeriodic@@@1@@Z PROC NEAR ; _STL::_Vector_base<CImmPeriodic *,_STL::allocator<CImmPeriodic *> >::_Vector_base<CImmPeriodic *,_STL::allocator<CImmPeriodic *> >, COMDAT
; _this$ = ecx

; 72   :     : _M_start(0), _M_finish(0), _M_end_of_storage(__a, 0) {

  00000	8b 44 24 04	 mov	 eax, DWORD PTR ___a$[esp-4]
  00004	56		 push	 esi
  00005	8b f1		 mov	 esi, ecx
  00007	6a 00		 push	 0
  00009	50		 push	 eax
  0000a	8d 4e 08	 lea	 ecx, DWORD PTR [esi+8]
  0000d	c7 06 00 00 00
	00		 mov	 DWORD PTR [esi], 0
  00013	c7 46 04 00 00
	00 00		 mov	 DWORD PTR [esi+4], 0
  0001a	e8 00 00 00 00	 call	 ??0?$_STLP_alloc_proxy@PAPAVCImmPeriodic@@PAV1@V?$allocator@PAVCImmPeriodic@@@_STL@@@_STL@@QAE@ABV?$allocator@PAVCImmPeriodic@@@1@PAPAVCImmPeriodic@@@Z ; _STL::_STLP_alloc_proxy<CImmPeriodic * *,CImmPeriodic *,_STL::allocator<CImmPeriodic *> >::_STLP_alloc_proxy<CImmPeriodic * *,CImmPeriodic *,_STL::allocator<CImmPeriodic *> >

; 73   :   }

  0001f	8b c6		 mov	 eax, esi
  00021	5e		 pop	 esi
  00022	c2 04 00	 ret	 4
??0?$_Vector_base@PAVCImmPeriodic@@V?$allocator@PAVCImmPeriodic@@@_STL@@@_STL@@QAE@ABV?$allocator@PAVCImmPeriodic@@@1@@Z ENDP ; _STL::_Vector_base<CImmPeriodic *,_STL::allocator<CImmPeriodic *> >::_Vector_base<CImmPeriodic *,_STL::allocator<CImmPeriodic *> >
_TEXT	ENDS
PUBLIC	??1?$_Vector_base@PAVCImmPeriodic@@V?$allocator@PAVCImmPeriodic@@@_STL@@@_STL@@QAE@XZ ; _STL::_Vector_base<CImmPeriodic *,_STL::allocator<CImmPeriodic *> >::~_Vector_base<CImmPeriodic *,_STL::allocator<CImmPeriodic *> >
; Function compile flags: /Ogty
;	COMDAT ??1?$_Vector_base@PAVCImmPeriodic@@V?$allocator@PAVCImmPeriodic@@@_STL@@@_STL@@QAE@XZ
_TEXT	SEGMENT
??1?$_Vector_base@PAVCImmPeriodic@@V?$allocator@PAVCImmPeriodic@@@_STL@@@_STL@@QAE@XZ PROC NEAR ; _STL::_Vector_base<CImmPeriodic *,_STL::allocator<CImmPeriodic *> >::~_Vector_base<CImmPeriodic *,_STL::allocator<CImmPeriodic *> >, COMDAT
; _this$ = ecx

; 84   :     if (_M_start !=0) 

  00000	8b 11		 mov	 edx, DWORD PTR [ecx]
  00002	85 d2		 test	 edx, edx
  00004	74 26		 je	 SHORT $L85442

; 85   :     _M_end_of_storage.deallocate(_M_start, _M_end_of_storage._M_data - _M_start); 

  00006	8b 41 08	 mov	 eax, DWORD PTR [ecx+8]
  00009	2b c2		 sub	 eax, edx
  0000b	c1 f8 02	 sar	 eax, 2
  0000e	c1 e0 02	 shl	 eax, 2
  00011	3d 80 00 00 00	 cmp	 eax, 128		; 00000080H
  00016	76 0a		 jbe	 SHORT $L85441
  00018	52		 push	 edx
  00019	e8 00 00 00 00	 call	 ??3@YAXPAX@Z		; operator delete
  0001e	83 c4 04	 add	 esp, 4

; 86   :   }

  00021	c3		 ret	 0

; 85   :     _M_end_of_storage.deallocate(_M_start, _M_end_of_storage._M_data - _M_start); 

$L85441:
  00022	50		 push	 eax
  00023	52		 push	 edx
  00024	e8 00 00 00 00	 call	 ?_M_deallocate@?$__node_alloc@$00$0A@@_STL@@CAXPAXI@Z ; _STL::__node_alloc<1,0>::_M_deallocate
  00029	83 c4 08	 add	 esp, 8
$L85442:

; 86   :   }

  0002c	c3		 ret	 0
??1?$_Vector_base@PAVCImmPeriodic@@V?$allocator@PAVCImmPeriodic@@@_STL@@@_STL@@QAE@XZ ENDP ; _STL::_Vector_base<CImmPeriodic *,_STL::allocator<CImmPeriodic *> >::~_Vector_base<CImmPeriodic *,_STL::allocator<CImmPeriodic *> >
_TEXT	ENDS
PUBLIC	??$_Destroy@PAPAVCImmPeriodic@@@_STL@@YAXPAPAVCImmPeriodic@@0@Z ; _STL::_Destroy<CImmPeriodic * *>
; Function compile flags: /Ogty
; File c:\stlport-4.6.1\stlport\stl\_construct.h
;	COMDAT ??$_Destroy@PAPAVCImmPeriodic@@@_STL@@YAXPAPAVCImmPeriodic@@0@Z
_TEXT	SEGMENT
___first$ = 8						; size = 4
___last$ = 12						; size = 4
??$_Destroy@PAPAVCImmPeriodic@@@_STL@@YAXPAPAVCImmPeriodic@@0@Z PROC NEAR ; _STL::_Destroy<CImmPeriodic * *>, COMDAT

; 139  :   __destroy(__first, __last, _STLP_VALUE_TYPE(__first, _ForwardIterator));
; 140  : }

  00000	c3		 ret	 0
??$_Destroy@PAPAVCImmPeriodic@@@_STL@@YAXPAPAVCImmPeriodic@@0@Z ENDP ; _STL::_Destroy<CImmPeriodic * *>
_TEXT	ENDS
PUBLIC	??0?$vector@PAVCImmPeriodic@@V?$allocator@PAVCImmPeriodic@@@_STL@@@_STL@@QAE@ABV?$allocator@PAVCImmPeriodic@@@1@@Z ; _STL::vector<CImmPeriodic *,_STL::allocator<CImmPeriodic *> >::vector<CImmPeriodic *,_STL::allocator<CImmPeriodic *> >
; Function compile flags: /Ogty
; File c:\stlport-4.6.1\stlport\stl\_vector.h
;	COMDAT ??0?$vector@PAVCImmPeriodic@@V?$allocator@PAVCImmPeriodic@@@_STL@@@_STL@@QAE@ABV?$allocator@PAVCImmPeriodic@@@1@@Z
_TEXT	SEGMENT
___a$ = 8						; size = 4
??0?$vector@PAVCImmPeriodic@@V?$allocator@PAVCImmPeriodic@@@_STL@@@_STL@@QAE@ABV?$allocator@PAVCImmPeriodic@@@1@@Z PROC NEAR ; _STL::vector<CImmPeriodic *,_STL::allocator<CImmPeriodic *> >::vector<CImmPeriodic *,_STL::allocator<CImmPeriodic *> >, COMDAT
; _this$ = ecx

; 199  :     _Vector_base<_Tp, _Alloc>(__a) {}

  00000	8b c1		 mov	 eax, ecx
  00002	33 c9		 xor	 ecx, ecx
  00004	89 08		 mov	 DWORD PTR [eax], ecx
  00006	89 48 04	 mov	 DWORD PTR [eax+4], ecx
  00009	89 48 08	 mov	 DWORD PTR [eax+8], ecx
  0000c	c2 04 00	 ret	 4
??0?$vector@PAVCImmPeriodic@@V?$allocator@PAVCImmPeriodic@@@_STL@@@_STL@@QAE@ABV?$allocator@PAVCImmPeriodic@@@1@@Z ENDP ; _STL::vector<CImmPeriodic *,_STL::allocator<CImmPeriodic *> >::vector<CImmPeriodic *,_STL::allocator<CImmPeriodic *> >
_TEXT	ENDS
PUBLIC	??1?$vector@PAVCImmPeriodic@@V?$allocator@PAVCImmPeriodic@@@_STL@@@_STL@@QAE@XZ ; _STL::vector<CImmPeriodic *,_STL::allocator<CImmPeriodic *> >::~vector<CImmPeriodic *,_STL::allocator<CImmPeriodic *> >
; Function compile flags: /Ogty
;	COMDAT ??1?$vector@PAVCImmPeriodic@@V?$allocator@PAVCImmPeriodic@@@_STL@@@_STL@@QAE@XZ
_TEXT	SEGMENT
??1?$vector@PAVCImmPeriodic@@V?$allocator@PAVCImmPeriodic@@@_STL@@@_STL@@QAE@XZ PROC NEAR ; _STL::vector<CImmPeriodic *,_STL::allocator<CImmPeriodic *> >::~vector<CImmPeriodic *,_STL::allocator<CImmPeriodic *> >, COMDAT
; _this$ = ecx

; 258  :   ~vector() { _Destroy(this->_M_start, this->_M_finish); }

  00000	8b 11		 mov	 edx, DWORD PTR [ecx]
  00002	85 d2		 test	 edx, edx
  00004	74 26		 je	 SHORT $L85500
  00006	8b 41 08	 mov	 eax, DWORD PTR [ecx+8]
  00009	2b c2		 sub	 eax, edx
  0000b	c1 f8 02	 sar	 eax, 2
  0000e	c1 e0 02	 shl	 eax, 2
  00011	3d 80 00 00 00	 cmp	 eax, 128		; 00000080H
  00016	76 0a		 jbe	 SHORT $L85499
  00018	52		 push	 edx
  00019	e8 00 00 00 00	 call	 ??3@YAXPAX@Z		; operator delete
  0001e	83 c4 04	 add	 esp, 4
  00021	c3		 ret	 0
$L85499:
  00022	50		 push	 eax
  00023	52		 push	 edx
  00024	e8 00 00 00 00	 call	 ?_M_deallocate@?$__node_alloc@$00$0A@@_STL@@CAXPAXI@Z ; _STL::__node_alloc<1,0>::_M_deallocate
  00029	83 c4 08	 add	 esp, 8
$L85500:
  0002c	c3		 ret	 0
??1?$vector@PAVCImmPeriodic@@V?$allocator@PAVCImmPeriodic@@@_STL@@@_STL@@QAE@XZ ENDP ; _STL::vector<CImmPeriodic *,_STL::allocator<CImmPeriodic *> >::~vector<CImmPeriodic *,_STL::allocator<CImmPeriodic *> >
_TEXT	ENDS
PUBLIC	?erase@?$vector@PAVCImmPeriodic@@V?$allocator@PAVCImmPeriodic@@@_STL@@@_STL@@QAEPAPAVCImmPeriodic@@PAPAV3@0@Z ; _STL::vector<CImmPeriodic *,_STL::allocator<CImmPeriodic *> >::erase
; Function compile flags: /Ogty
;	COMDAT ?erase@?$vector@PAVCImmPeriodic@@V?$allocator@PAVCImmPeriodic@@@_STL@@@_STL@@QAEPAPAVCImmPeriodic@@PAPAV3@0@Z
_TEXT	SEGMENT
___first$ = 8						; size = 4
___last$ = 12						; size = 4
?erase@?$vector@PAVCImmPeriodic@@V?$allocator@PAVCImmPeriodic@@@_STL@@@_STL@@QAEPAPAVCImmPeriodic@@PAPAV3@0@Z PROC NEAR ; _STL::vector<CImmPeriodic *,_STL::allocator<CImmPeriodic *> >::erase, COMDAT
; _this$ = ecx

; 474  :     pointer __i = __copy_ptrs(__last, this->_M_finish, __first, _TrivialAss());

  00000	8b 44 24 08	 mov	 eax, DWORD PTR ___last$[esp-4]
  00004	56		 push	 esi
  00005	57		 push	 edi
  00006	8b f9		 mov	 edi, ecx
  00008	8b 77 04	 mov	 esi, DWORD PTR [edi+4]
  0000b	3b f0		 cmp	 esi, eax
  0000d	75 0c		 jne	 SHORT $L85516
  0000f	8b 44 24 0c	 mov	 eax, DWORD PTR ___first$[esp+4]

; 475  :     _Destroy(__i, this->_M_finish);
; 476  :     this->_M_finish = __i;

  00013	89 47 04	 mov	 DWORD PTR [edi+4], eax
  00016	5f		 pop	 edi
  00017	5e		 pop	 esi

; 478  :   }

  00018	c2 08 00	 ret	 8

; 474  :     pointer __i = __copy_ptrs(__last, this->_M_finish, __first, _TrivialAss());

$L85516:
  0001b	53		 push	 ebx
  0001c	8b 5c 24 10	 mov	 ebx, DWORD PTR ___first$[esp+8]
  00020	2b f0		 sub	 esi, eax
  00022	56		 push	 esi
  00023	50		 push	 eax
  00024	53		 push	 ebx
  00025	e8 00 00 00 00	 call	 _memmove
  0002a	03 c6		 add	 eax, esi
  0002c	83 c4 0c	 add	 esp, 12			; 0000000cH

; 475  :     _Destroy(__i, this->_M_finish);
; 476  :     this->_M_finish = __i;

  0002f	89 47 04	 mov	 DWORD PTR [edi+4], eax

; 477  :     return __first;

  00032	8b c3		 mov	 eax, ebx
  00034	5b		 pop	 ebx
  00035	5f		 pop	 edi
  00036	5e		 pop	 esi

; 478  :   }

  00037	c2 08 00	 ret	 8
?erase@?$vector@PAVCImmPeriodic@@V?$allocator@PAVCImmPeriodic@@@_STL@@@_STL@@QAEPAPAVCImmPeriodic@@PAPAV3@0@Z ENDP ; _STL::vector<CImmPeriodic *,_STL::allocator<CImmPeriodic *> >::erase
_TEXT	ENDS
PUBLIC	?_M_clear@?$vector@PAVCImmPeriodic@@V?$allocator@PAVCImmPeriodic@@@_STL@@@_STL@@IAEXXZ ; _STL::vector<CImmPeriodic *,_STL::allocator<CImmPeriodic *> >::_M_clear
; Function compile flags: /Ogty
;	COMDAT ?_M_clear@?$vector@PAVCImmPeriodic@@V?$allocator@PAVCImmPeriodic@@@_STL@@@_STL@@IAEXXZ
_TEXT	SEGMENT
?_M_clear@?$vector@PAVCImmPeriodic@@V?$allocator@PAVCImmPeriodic@@@_STL@@@_STL@@IAEXXZ PROC NEAR ; _STL::vector<CImmPeriodic *,_STL::allocator<CImmPeriodic *> >::_M_clear, COMDAT
; _this$ = ecx

; 494  :     //    if (this->_M_start) {
; 495  :     _Destroy(this->_M_start, this->_M_finish);
; 496  :     this->_M_end_of_storage.deallocate(this->_M_start, this->_M_end_of_storage._M_data - this->_M_start);

  00000	8b 11		 mov	 edx, DWORD PTR [ecx]
  00002	85 d2		 test	 edx, edx
  00004	74 26		 je	 SHORT $L85543
  00006	8b 41 08	 mov	 eax, DWORD PTR [ecx+8]
  00009	2b c2		 sub	 eax, edx
  0000b	c1 f8 02	 sar	 eax, 2
  0000e	c1 e0 02	 shl	 eax, 2
  00011	3d 80 00 00 00	 cmp	 eax, 128		; 00000080H
  00016	76 0a		 jbe	 SHORT $L85542
  00018	52		 push	 edx
  00019	e8 00 00 00 00	 call	 ??3@YAXPAX@Z		; operator delete
  0001e	83 c4 04	 add	 esp, 4

; 497  :     //    }
; 498  :   }

  00021	c3		 ret	 0

; 494  :     //    if (this->_M_start) {
; 495  :     _Destroy(this->_M_start, this->_M_finish);
; 496  :     this->_M_end_of_storage.deallocate(this->_M_start, this->_M_end_of_storage._M_data - this->_M_start);

$L85542:
  00022	50		 push	 eax
  00023	52		 push	 edx
  00024	e8 00 00 00 00	 call	 ?_M_deallocate@?$__node_alloc@$00$0A@@_STL@@CAXPAXI@Z ; _STL::__node_alloc<1,0>::_M_deallocate
  00029	83 c4 08	 add	 esp, 8
$L85543:

; 497  :     //    }
; 498  :   }

  0002c	c3		 ret	 0
?_M_clear@?$vector@PAVCImmPeriodic@@V?$allocator@PAVCImmPeriodic@@@_STL@@@_STL@@IAEXXZ ENDP ; _STL::vector<CImmPeriodic *,_STL::allocator<CImmPeriodic *> >::_M_clear
_TEXT	ENDS
PUBLIC	??0CImm@@QAE@XZ					; CImm::CImm
EXTRN	__imp_?CreateDevice@CImmDevice@@SAPAV1@PAUHINSTANCE__@@PAUHWND__@@@Z:NEAR
EXTRN	__except_list:DWORD
EXTRN	___CxxFrameHandler:NEAR
EXTRN	?g_hWnd@@3PAUHWND__@@A:DWORD			; g_hWnd
;	COMDAT xdata$x
; File c:\stlport-4.6.1\stlport\stl\_alloc.h
xdata$x	SEGMENT
$T85580	DD	0ffffffffH
	DD	FLAT:$L85550
$T85577	DD	019930520H
	DD	01H
	DD	FLAT:$T85580
	DD	2 DUP(00H)
	DD	2 DUP(00H)
; Function compile flags: /Ogty
; File c:\darkeden\designed_common\project\new - vs_ui\src\imm\cimm.cpp
xdata$x	ENDS
;	COMDAT ??0CImm@@QAE@XZ
_TEXT	SEGMENT
_this$ = -16						; size = 4
__$EHRec$ = -12						; size = 12
??0CImm@@QAE@XZ PROC NEAR				; CImm::CImm, COMDAT
; _this$ = ecx

; 20   : {

  00000	6a ff		 push	 -1
  00002	68 00 00 00 00	 push	 __ehhandler$??0CImm@@QAE@XZ
  00007	64 a1 00 00 00
	00		 mov	 eax, DWORD PTR fs:__except_list
  0000d	50		 push	 eax
  0000e	64 89 25 00 00
	00 00		 mov	 DWORD PTR fs:__except_list, esp
  00015	51		 push	 ecx
  00016	53		 push	 ebx
  00017	33 db		 xor	 ebx, ebx
  00019	56		 push	 esi
  0001a	8b f1		 mov	 esi, ecx
  0001c	89 5e 18	 mov	 DWORD PTR [esi+24], ebx
  0001f	89 5e 1c	 mov	 DWORD PTR [esi+28], ebx
  00022	89 74 24 08	 mov	 DWORD PTR _this$[esp+24], esi
  00026	89 5e 20	 mov	 DWORD PTR [esi+32], ebx

; 21   : 	//Logitech iFeel Mouse  
; 22   : 	m_bPlay = false;

  00029	88 1e		 mov	 BYTE PTR [esi], bl

; 23   : 	m_pDevice = CImmDevice::CreateDevice(NULL, g_hWnd);

  0002b	a1 00 00 00 00	 mov	 eax, DWORD PTR ?g_hWnd@@3PAUHWND__@@A ; g_hWnd
  00030	50		 push	 eax
  00031	53		 push	 ebx
  00032	89 5c 24 1c	 mov	 DWORD PTR __$EHRec$[esp+40], ebx
  00036	ff 15 00 00 00
	00		 call	 DWORD PTR __imp_?CreateDevice@CImmDevice@@SAPAV1@PAUHINSTANCE__@@PAUHWND__@@@Z

; 24   : 
; 25   : //	if (m_pDevice)
; 26   : //	{
; 27   : //		m_strAction[FORCE_ACTION_DAMAGED] = "Damaged";
; 28   : //		m_strAction[FORCE_ACTION_SWORD] = "Sword";
; 29   : //		m_strAction[FORCE_ACTION_BLADE] = "Blade";
; 30   : //		m_strAction[FORCE_ACTION_CROSS] = "Cross";
; 31   : //		m_strAction[FORCE_ACTION_MACE] = "Mace";
; 32   : //		m_strAction[FORCE_ACTION_SR] = "Sr";
; 33   : //		m_strAction[FORCE_ACTION_SMG] = "Smg";
; 34   : //		m_strAction[FORCE_ACTION_SG] = "Sg";
; 35   : //		m_strAction[FORCE_ACTION_AR] = "Ar";
; 36   : //		m_strAction[FORCE_ACTION_BIKE_UP] = "BikeUp";
; 37   : //		m_strAction[FORCE_ACTION_BIKE_DOWN] = "BikeDown";
; 38   : //		m_strAction[FORCE_ACTION_BIKE_ING] = "BikeIng";
; 39   : //	}
; 40   : 	m_ProjectAction = NULL;
; 41   : 	m_ProjectSkill = NULL;
; 42   : 	m_ProjectInventory = NULL;
; 43   : 	m_ProjectUseItem = NULL;
; 44   : 
; 45   : }

  0003c	8b 4c 24 14	 mov	 ecx, DWORD PTR __$EHRec$[esp+32]
  00040	89 46 04	 mov	 DWORD PTR [esi+4], eax
  00043	83 c4 08	 add	 esp, 8
  00046	89 5e 08	 mov	 DWORD PTR [esi+8], ebx
  00049	89 5e 0c	 mov	 DWORD PTR [esi+12], ebx
  0004c	89 5e 10	 mov	 DWORD PTR [esi+16], ebx
  0004f	89 5e 14	 mov	 DWORD PTR [esi+20], ebx
  00052	8b c6		 mov	 eax, esi
  00054	5e		 pop	 esi
  00055	5b		 pop	 ebx
  00056	64 89 0d 00 00
	00 00		 mov	 DWORD PTR fs:__except_list, ecx
  0005d	83 c4 10	 add	 esp, 16			; 00000010H
  00060	c3		 ret	 0
_TEXT	ENDS
;	COMDAT text$x
text$x	SEGMENT
$L85550:
  00000	8b 4d f0	 mov	 ecx, DWORD PTR _this$[ebp]
  00003	83 c1 18	 add	 ecx, 24			; 00000018H
  00006	e9 00 00 00 00	 jmp	 ??1?$vector@PAVCImmPeriodic@@V?$allocator@PAVCImmPeriodic@@@_STL@@@_STL@@QAE@XZ ; _STL::vector<CImmPeriodic *,_STL::allocator<CImmPeriodic *> >::~vector<CImmPeriodic *,_STL::allocator<CImmPeriodic *> >
__ehhandler$??0CImm@@QAE@XZ:
  0000b	b8 00 00 00 00	 mov	 eax, OFFSET FLAT:$T85577
  00010	e9 00 00 00 00	 jmp	 ___CxxFrameHandler
text$x	ENDS
??0CImm@@QAE@XZ ENDP					; CImm::CImm
PUBLIC	?clear@?$vector@PAVCImmPeriodic@@V?$allocator@PAVCImmPeriodic@@@_STL@@@_STL@@QAEXXZ ; _STL::vector<CImmPeriodic *,_STL::allocator<CImmPeriodic *> >::clear
; Function compile flags: /Ogty
; File c:\stlport-4.6.1\stlport\stl\_vector.h
;	COMDAT ?clear@?$vector@PAVCImmPeriodic@@V?$allocator@PAVCImmPeriodic@@@_STL@@@_STL@@QAEXXZ
_TEXT	SEGMENT
?clear@?$vector@PAVCImmPeriodic@@V?$allocator@PAVCImmPeriodic@@@_STL@@@_STL@@QAEXXZ PROC NEAR ; _STL::vector<CImmPeriodic *,_STL::allocator<CImmPeriodic *> >::clear, COMDAT
; _this$ = ecx

; 487  :   void clear() { 

  00000	57		 push	 edi
  00001	8b f9		 mov	 edi, ecx

; 488  :     erase(begin(), end());

  00003	8b 47 04	 mov	 eax, DWORD PTR [edi+4]
  00006	3b c0		 cmp	 eax, eax
  00008	8b 0f		 mov	 ecx, DWORD PTR [edi]
  0000a	75 05		 jne	 SHORT $L85620
  0000c	89 4f 04	 mov	 DWORD PTR [edi+4], ecx
  0000f	5f		 pop	 edi

; 489  :   }

  00010	c3		 ret	 0

; 488  :     erase(begin(), end());

$L85620:
  00011	56		 push	 esi
  00012	8b f0		 mov	 esi, eax
  00014	2b f0		 sub	 esi, eax
  00016	56		 push	 esi
  00017	50		 push	 eax
  00018	51		 push	 ecx
  00019	e8 00 00 00 00	 call	 _memmove
  0001e	83 c4 0c	 add	 esp, 12			; 0000000cH
  00021	03 c6		 add	 eax, esi
  00023	5e		 pop	 esi
  00024	89 47 04	 mov	 DWORD PTR [edi+4], eax
  00027	5f		 pop	 edi

; 489  :   }

  00028	c3		 ret	 0
?clear@?$vector@PAVCImmPeriodic@@V?$allocator@PAVCImmPeriodic@@@_STL@@@_STL@@QAEXXZ ENDP ; _STL::vector<CImmPeriodic *,_STL::allocator<CImmPeriodic *> >::clear
_TEXT	ENDS
PUBLIC	?_M_insert_overflow@?$vector@PAVCImmPeriodic@@V?$allocator@PAVCImmPeriodic@@@_STL@@@_STL@@IAEXPAPAVCImmPeriodic@@ABQAV3@ABU__true_type@2@I_N@Z ; _STL::vector<CImmPeriodic *,_STL::allocator<CImmPeriodic *> >::_M_insert_overflow
; Function compile flags: /Ogty
;	COMDAT ?_M_insert_overflow@?$vector@PAVCImmPeriodic@@V?$allocator@PAVCImmPeriodic@@@_STL@@@_STL@@IAEXPAPAVCImmPeriodic@@ABQAV3@ABU__true_type@2@I_N@Z
_TEXT	SEGMENT
___len$ = -4						; size = 4
___old_size$ = -4					; size = 4
___position$ = 8					; size = 4
___x$ = 12						; size = 4
___formal$ = 16						; size = 4
___new_start$ = 20					; size = 4
___fill_len$ = 20					; size = 4
___atend$ = 24						; size = 1
?_M_insert_overflow@?$vector@PAVCImmPeriodic@@V?$allocator@PAVCImmPeriodic@@@_STL@@@_STL@@IAEXPAPAVCImmPeriodic@@ABQAV3@ABU__true_type@2@I_N@Z PROC NEAR ; _STL::vector<CImmPeriodic *,_STL::allocator<CImmPeriodic *> >::_M_insert_overflow, COMDAT
; _this$ = ecx

; 151  : 			  size_type __fill_len, bool __atend = false) {

  00000	51		 push	 ecx
  00001	55		 push	 ebp
  00002	8b e9		 mov	 ebp, ecx

; 152  :     const size_type __old_size = size();

  00004	8b 45 04	 mov	 eax, DWORD PTR [ebp+4]
  00007	56		 push	 esi
  00008	2b 45 00	 sub	 eax, DWORD PTR [ebp]
  0000b	57		 push	 edi

; 153  :     const size_type __len = __old_size + (max)(__old_size, __fill_len);

  0000c	8b 7c 24 20	 mov	 edi, DWORD PTR ___fill_len$[esp+12]
  00010	c1 f8 02	 sar	 eax, 2
  00013	3b c7		 cmp	 eax, edi
  00015	89 44 24 0c	 mov	 DWORD PTR ___old_size$[esp+16], eax
  00019	8d 4c 24 20	 lea	 ecx, DWORD PTR ___fill_len$[esp+12]
  0001d	72 04		 jb	 SHORT $L85636
  0001f	8d 4c 24 0c	 lea	 ecx, DWORD PTR ___old_size$[esp+16]
$L85636:
  00023	8b 09		 mov	 ecx, DWORD PTR [ecx]
  00025	03 c8		 add	 ecx, eax
  00027	89 4c 24 0c	 mov	 DWORD PTR ___len$[esp+16], ecx

; 154  :     
; 155  :     pointer __new_start = this->_M_end_of_storage.allocate(__len);

  0002b	74 2b		 je	 SHORT $L85655
  0002d	8d 04 8d 00 00
	00 00		 lea	 eax, DWORD PTR [ecx*4]
  00034	3d 80 00 00 00	 cmp	 eax, 128		; 00000080H
  00039	50		 push	 eax
  0003a	76 0e		 jbe	 SHORT $L85659
  0003c	e8 00 00 00 00	 call	 ??2@YAPAXI@Z		; operator new
  00041	83 c4 04	 add	 esp, 4
  00044	89 44 24 20	 mov	 DWORD PTR ___new_start$[esp+12], eax
  00048	eb 16		 jmp	 SHORT $L85656
$L85659:
  0004a	e8 00 00 00 00	 call	 ?_M_allocate@?$__node_alloc@$00$0A@@_STL@@CAPAXI@Z ; _STL::__node_alloc<1,0>::_M_allocate
  0004f	83 c4 04	 add	 esp, 4
  00052	89 44 24 20	 mov	 DWORD PTR ___new_start$[esp+12], eax
  00056	eb 08		 jmp	 SHORT $L85656
$L85655:
  00058	c7 44 24 20 00
	00 00 00	 mov	 DWORD PTR ___new_start$[esp+12], 0
$L85656:

; 156  :     pointer __new_finish = (pointer)__copy_trivial(this->_M_start, __position, __new_start);

  00060	8b 45 00	 mov	 eax, DWORD PTR [ebp]
  00063	53		 push	 ebx
  00064	8b 5c 24 18	 mov	 ebx, DWORD PTR ___position$[esp+16]
  00068	3b d8		 cmp	 ebx, eax
  0006a	75 06		 jne	 SHORT $L85668
  0006c	8b 44 24 24	 mov	 eax, DWORD PTR ___new_start$[esp+16]
  00070	eb 15		 jmp	 SHORT $L85669
$L85668:
  00072	8b f3		 mov	 esi, ebx
  00074	2b f0		 sub	 esi, eax
  00076	56		 push	 esi
  00077	50		 push	 eax
  00078	8b 44 24 2c	 mov	 eax, DWORD PTR ___new_start$[esp+24]
  0007c	50		 push	 eax
  0007d	e8 00 00 00 00	 call	 _memmove
  00082	83 c4 0c	 add	 esp, 12			; 0000000cH
  00085	03 c6		 add	 eax, esi
$L85669:

; 157  :       // handle insertion
; 158  :     __new_finish = fill_n(__new_finish, __fill_len, __x);

  00087	85 ff		 test	 edi, edi
  00089	76 10		 jbe	 SHORT $L85675
  0008b	8b 54 24 1c	 mov	 edx, DWORD PTR ___x$[esp+16]
  0008f	8b cf		 mov	 ecx, edi
$L85673:
  00091	8b 32		 mov	 esi, DWORD PTR [edx]
  00093	89 30		 mov	 DWORD PTR [eax], esi
  00095	83 c0 04	 add	 eax, 4
  00098	49		 dec	 ecx
  00099	75 f6		 jne	 SHORT $L85673
$L85675:

; 159  :     if (!__atend)

  0009b	8a 4c 24 28	 mov	 cl, BYTE PTR ___atend$[esp+16]
  0009f	84 c9		 test	 cl, cl
  000a1	8b f8		 mov	 edi, eax
  000a3	75 18		 jne	 SHORT $L85685

; 160  :       // copy remainder
; 161  :       __new_finish = (pointer)__copy_trivial(__position, this->_M_finish, __new_finish);

  000a5	8b 75 04	 mov	 esi, DWORD PTR [ebp+4]
  000a8	3b f3		 cmp	 esi, ebx
  000aa	74 11		 je	 SHORT $L85685
  000ac	2b f3		 sub	 esi, ebx
  000ae	56		 push	 esi
  000af	53		 push	 ebx
  000b0	50		 push	 eax
  000b1	e8 00 00 00 00	 call	 _memmove
  000b6	8b f8		 mov	 edi, eax
  000b8	83 c4 0c	 add	 esp, 12			; 0000000cH
  000bb	03 fe		 add	 edi, esi
$L85685:

; 162  :     _M_clear();

  000bd	8b 4d 00	 mov	 ecx, DWORD PTR [ebp]
  000c0	85 c9		 test	 ecx, ecx
  000c2	5b		 pop	 ebx
  000c3	74 27		 je	 SHORT $L85721
  000c5	8b 45 08	 mov	 eax, DWORD PTR [ebp+8]
  000c8	2b c1		 sub	 eax, ecx
  000ca	c1 f8 02	 sar	 eax, 2
  000cd	c1 e0 02	 shl	 eax, 2
  000d0	3d 80 00 00 00	 cmp	 eax, 128		; 00000080H
  000d5	76 0b		 jbe	 SHORT $L85720
  000d7	51		 push	 ecx
  000d8	e8 00 00 00 00	 call	 ??3@YAXPAX@Z		; operator delete
  000dd	83 c4 04	 add	 esp, 4
  000e0	eb 0a		 jmp	 SHORT $L85721
$L85720:
  000e2	50		 push	 eax
  000e3	51		 push	 ecx
  000e4	e8 00 00 00 00	 call	 ?_M_deallocate@?$__node_alloc@$00$0A@@_STL@@CAXPAXI@Z ; _STL::__node_alloc<1,0>::_M_deallocate
  000e9	83 c4 08	 add	 esp, 8
$L85721:

; 163  :     _M_set(__new_start, __new_finish, __new_start + __len);

  000ec	8b 44 24 20	 mov	 eax, DWORD PTR ___new_start$[esp+12]
  000f0	8b 4c 24 0c	 mov	 ecx, DWORD PTR ___len$[esp+16]
  000f4	89 7d 04	 mov	 DWORD PTR [ebp+4], edi
  000f7	5f		 pop	 edi
  000f8	8d 14 88	 lea	 edx, DWORD PTR [eax+ecx*4]
  000fb	5e		 pop	 esi
  000fc	89 45 00	 mov	 DWORD PTR [ebp], eax
  000ff	89 55 08	 mov	 DWORD PTR [ebp+8], edx
  00102	5d		 pop	 ebp

; 164  :   }

  00103	59		 pop	 ecx
  00104	c2 14 00	 ret	 20			; 00000014H
?_M_insert_overflow@?$vector@PAVCImmPeriodic@@V?$allocator@PAVCImmPeriodic@@@_STL@@@_STL@@IAEXPAPAVCImmPeriodic@@ABQAV3@ABU__true_type@2@I_N@Z ENDP ; _STL::vector<CImmPeriodic *,_STL::allocator<CImmPeriodic *> >::_M_insert_overflow
_TEXT	ENDS
PUBLIC	?Disable@CImm@@QAEXXZ				; CImm::Disable
EXTRN	__imp_?Close@CImmProject@@QAEXXZ:NEAR
; Function compile flags: /Ogty
; File c:\darkeden\designed_common\project\new - vs_ui\src\imm\cimm.cpp
;	COMDAT ?Disable@CImm@@QAEXXZ
_TEXT	SEGMENT
?Disable@CImm@@QAEXXZ PROC NEAR				; CImm::Disable, COMDAT
; _this$ = ecx

; 143  : {

  00000	53		 push	 ebx
  00001	56		 push	 esi
  00002	8b f1		 mov	 esi, ecx

; 144  : 	if(!IsDevice())return;

  00004	8b 46 04	 mov	 eax, DWORD PTR [esi+4]
  00007	33 db		 xor	 ebx, ebx
  00009	3b c3		 cmp	 eax, ebx
  0000b	0f 84 eb 00 00
	00		 je	 $L84057
  00011	55		 push	 ebp

; 145  : 	m_bPlay = false; 

  00012	88 1e		 mov	 BYTE PTR [esi], bl

; 146  : 
; 147  : 	//UI  
; 148  : 	for(unsigned int i = 0; i < m_vUI.size(); i++)

  00014	8b 46 1c	 mov	 eax, DWORD PTR [esi+28]
  00017	2b 46 18	 sub	 eax, DWORD PTR [esi+24]
  0001a	57		 push	 edi
  0001b	c1 f8 02	 sar	 eax, 2
  0001e	33 ff		 xor	 edi, edi
  00020	85 c0		 test	 eax, eax
  00022	76 1e		 jbe	 SHORT $L84044
$L84042:

; 149  : 	{
; 150  : 		if(m_vUI[i] != NULL)

  00024	8b 4e 18	 mov	 ecx, DWORD PTR [esi+24]
  00027	8b 0c b9	 mov	 ecx, DWORD PTR [ecx+edi*4]
  0002a	3b cb		 cmp	 ecx, ebx
  0002c	74 06		 je	 SHORT $L84043

; 151  : 			delete m_vUI[i];

  0002e	8b 11		 mov	 edx, DWORD PTR [ecx]
  00030	6a 01		 push	 1
  00032	ff 12		 call	 DWORD PTR [edx]
$L84043:
  00034	8b 46 1c	 mov	 eax, DWORD PTR [esi+28]
  00037	2b 46 18	 sub	 eax, DWORD PTR [esi+24]
  0003a	47		 inc	 edi
  0003b	c1 f8 02	 sar	 eax, 2
  0003e	3b f8		 cmp	 edi, eax
  00040	72 e2		 jb	 SHORT $L84042
$L84044:

; 152  : 	}
; 153  : 	m_vUI.clear();

  00042	8b 46 1c	 mov	 eax, DWORD PTR [esi+28]
  00045	3b c0		 cmp	 eax, eax
  00047	8b 4e 18	 mov	 ecx, DWORD PTR [esi+24]
  0004a	75 04		 jne	 SHORT $L85825
  0004c	8b c1		 mov	 eax, ecx
  0004e	eb 11		 jmp	 SHORT $L85826
$L85825:
  00050	8b f8		 mov	 edi, eax
  00052	2b f8		 sub	 edi, eax
  00054	57		 push	 edi
  00055	50		 push	 eax
  00056	51		 push	 ecx
  00057	e8 00 00 00 00	 call	 _memmove
  0005c	83 c4 0c	 add	 esp, 12			; 0000000cH
  0005f	03 c7		 add	 eax, edi
$L85826:

; 154  : 
; 155  : 	if(m_ProjectAction != NULL)

  00061	8b 2d 00 00 00
	00		 mov	 ebp, DWORD PTR __imp_?Close@CImmProject@@QAEXXZ
  00067	89 46 1c	 mov	 DWORD PTR [esi+28], eax
  0006a	8b 4e 08	 mov	 ecx, DWORD PTR [esi+8]
  0006d	3b cb		 cmp	 ecx, ebx
  0006f	74 1d		 je	 SHORT $L84048

; 156  : 	{
; 157  : 		m_ProjectAction->Close();

  00071	ff d5		 call	 ebp

; 158  : 		delete m_ProjectAction;

  00073	8b 7e 08	 mov	 edi, DWORD PTR [esi+8]
  00076	3b fb		 cmp	 edi, ebx
  00078	74 11		 je	 SHORT $L85736
  0007a	8b cf		 mov	 ecx, edi
  0007c	ff 15 00 00 00
	00		 call	 DWORD PTR __imp_??1CImmProject@@QAE@XZ
  00082	57		 push	 edi
  00083	e8 00 00 00 00	 call	 ??3@YAXPAX@Z		; operator delete
  00088	83 c4 04	 add	 esp, 4
$L85736:

; 159  : 		m_ProjectAction = NULL;

  0008b	89 5e 08	 mov	 DWORD PTR [esi+8], ebx
$L84048:

; 160  : 	}
; 161  : 
; 162  : 	if(m_ProjectSkill != NULL)

  0008e	8b 4e 0c	 mov	 ecx, DWORD PTR [esi+12]
  00091	3b cb		 cmp	 ecx, ebx
  00093	74 1d		 je	 SHORT $L84051

; 163  : 	{
; 164  : 		m_ProjectSkill->Close();

  00095	ff d5		 call	 ebp

; 165  : 		delete m_ProjectSkill;

  00097	8b 7e 0c	 mov	 edi, DWORD PTR [esi+12]
  0009a	3b fb		 cmp	 edi, ebx
  0009c	74 11		 je	 SHORT $L85740
  0009e	8b cf		 mov	 ecx, edi
  000a0	ff 15 00 00 00
	00		 call	 DWORD PTR __imp_??1CImmProject@@QAE@XZ
  000a6	57		 push	 edi
  000a7	e8 00 00 00 00	 call	 ??3@YAXPAX@Z		; operator delete
  000ac	83 c4 04	 add	 esp, 4
$L85740:

; 166  : 		m_ProjectSkill = NULL;

  000af	89 5e 0c	 mov	 DWORD PTR [esi+12], ebx
$L84051:

; 167  : 	}
; 168  : 
; 169  : 	if(m_ProjectInventory != NULL)

  000b2	8b 4e 10	 mov	 ecx, DWORD PTR [esi+16]
  000b5	3b cb		 cmp	 ecx, ebx
  000b7	74 1d		 je	 SHORT $L84054

; 170  : 	{
; 171  : 		m_ProjectInventory->Close();

  000b9	ff d5		 call	 ebp

; 172  : 		delete m_ProjectInventory;

  000bb	8b 7e 10	 mov	 edi, DWORD PTR [esi+16]
  000be	3b fb		 cmp	 edi, ebx
  000c0	74 11		 je	 SHORT $L85744
  000c2	8b cf		 mov	 ecx, edi
  000c4	ff 15 00 00 00
	00		 call	 DWORD PTR __imp_??1CImmProject@@QAE@XZ
  000ca	57		 push	 edi
  000cb	e8 00 00 00 00	 call	 ??3@YAXPAX@Z		; operator delete
  000d0	83 c4 04	 add	 esp, 4
$L85744:

; 173  : 		m_ProjectInventory = NULL;

  000d3	89 5e 10	 mov	 DWORD PTR [esi+16], ebx
$L84054:

; 174  : 	}
; 175  : 
; 176  : 	if(m_ProjectUseItem != NULL)

  000d6	8b 4e 14	 mov	 ecx, DWORD PTR [esi+20]
  000d9	3b cb		 cmp	 ecx, ebx
  000db	74 1d		 je	 SHORT $L85846

; 177  : 	{
; 178  : 		m_ProjectUseItem->Close();

  000dd	ff d5		 call	 ebp

; 179  : 		delete m_ProjectUseItem;

  000df	8b 7e 14	 mov	 edi, DWORD PTR [esi+20]
  000e2	3b fb		 cmp	 edi, ebx
  000e4	74 11		 je	 SHORT $L85748
  000e6	8b cf		 mov	 ecx, edi
  000e8	ff 15 00 00 00
	00		 call	 DWORD PTR __imp_??1CImmProject@@QAE@XZ
  000ee	57		 push	 edi
  000ef	e8 00 00 00 00	 call	 ??3@YAXPAX@Z		; operator delete
  000f4	83 c4 04	 add	 esp, 4
$L85748:

; 180  : 		m_ProjectUseItem = NULL;

  000f7	89 5e 14	 mov	 DWORD PTR [esi+20], ebx
$L85846:
  000fa	5f		 pop	 edi
  000fb	5d		 pop	 ebp
$L84057:
  000fc	5e		 pop	 esi
  000fd	5b		 pop	 ebx

; 181  : 	}
; 182  : 
; 183  : }

  000fe	c3		 ret	 0
?Disable@CImm@@QAEXXZ ENDP				; CImm::Disable
_TEXT	ENDS
PUBLIC	?push_back@?$vector@PAVCImmPeriodic@@V?$allocator@PAVCImmPeriodic@@@_STL@@@_STL@@QAEXABQAVCImmPeriodic@@@Z ; _STL::vector<CImmPeriodic *,_STL::allocator<CImmPeriodic *> >::push_back
; Function compile flags: /Ogty
; File c:\stlport-4.6.1\stlport\stl\_vector.h
;	COMDAT ?push_back@?$vector@PAVCImmPeriodic@@V?$allocator@PAVCImmPeriodic@@@_STL@@@_STL@@QAEXABQAVCImmPeriodic@@@Z
_TEXT	SEGMENT
$T85851 = 8						; size = 1
___x$ = 8						; size = 4
?push_back@?$vector@PAVCImmPeriodic@@V?$allocator@PAVCImmPeriodic@@@_STL@@@_STL@@QAEXABQAVCImmPeriodic@@@Z PROC NEAR ; _STL::vector<CImmPeriodic *,_STL::allocator<CImmPeriodic *> >::push_back, COMDAT
; _this$ = ecx

; 332  :     if (this->_M_finish != this->_M_end_of_storage._M_data) {

  00000	8b 41 04	 mov	 eax, DWORD PTR [ecx+4]
  00003	3b 41 08	 cmp	 eax, DWORD PTR [ecx+8]
  00006	74 13		 je	 SHORT $L84176

; 333  :       _Construct(this->_M_finish, __x);

  00008	85 c0		 test	 eax, eax
  0000a	74 08		 je	 SHORT $L85862
  0000c	8b 54 24 04	 mov	 edx, DWORD PTR ___x$[esp-4]
  00010	8b 12		 mov	 edx, DWORD PTR [edx]
  00012	89 10		 mov	 DWORD PTR [eax], edx
$L85862:

; 334  :       ++this->_M_finish;

  00014	83 41 04 04	 add	 DWORD PTR [ecx+4], 4

; 338  :   }

  00018	c2 04 00	 ret	 4
$L84176:

; 335  :     }
; 336  :     else
; 337  :       _M_insert_overflow(this->_M_finish, __x, _IsPODType(), 1UL, true);

  0001b	6a 01		 push	 1
  0001d	6a 01		 push	 1
  0001f	8d 54 24 0c	 lea	 edx, DWORD PTR $T85851[esp+4]
  00023	52		 push	 edx
  00024	8b 54 24 10	 mov	 edx, DWORD PTR ___x$[esp+8]
  00028	52		 push	 edx
  00029	50		 push	 eax
  0002a	e8 00 00 00 00	 call	 ?_M_insert_overflow@?$vector@PAVCImmPeriodic@@V?$allocator@PAVCImmPeriodic@@@_STL@@@_STL@@IAEXPAPAVCImmPeriodic@@ABQAV3@ABU__true_type@2@I_N@Z ; _STL::vector<CImmPeriodic *,_STL::allocator<CImmPeriodic *> >::_M_insert_overflow

; 338  :   }

  0002f	c2 04 00	 ret	 4
?push_back@?$vector@PAVCImmPeriodic@@V?$allocator@PAVCImmPeriodic@@@_STL@@@_STL@@QAEXABQAVCImmPeriodic@@@Z ENDP ; _STL::vector<CImmPeriodic *,_STL::allocator<CImmPeriodic *> >::push_back
_TEXT	ENDS
PUBLIC	??1CImm@@QAE@XZ					; CImm::~CImm
;	COMDAT xdata$x
; File c:\stlport-4.6.1\stlport\stl\_new.h
xdata$x	SEGMENT
$T85931	DD	0ffffffffH
	DD	FLAT:$L85874
$T85929	DD	019930520H
	DD	01H
	DD	FLAT:$T85931
	DD	2 DUP(00H)
	DD	2 DUP(00H)
; Function compile flags: /Ogty
; File c:\darkeden\designed_common\project\new - vs_ui\src\imm\cimm.cpp
xdata$x	ENDS
;	COMDAT ??1CImm@@QAE@XZ
_TEXT	SEGMENT
_this$ = -16						; size = 4
__$EHRec$ = -12						; size = 12
??1CImm@@QAE@XZ PROC NEAR				; CImm::~CImm, COMDAT
; _this$ = ecx

; 48   : {

  00000	6a ff		 push	 -1
  00002	68 00 00 00 00	 push	 __ehhandler$??1CImm@@QAE@XZ
  00007	64 a1 00 00 00
	00		 mov	 eax, DWORD PTR fs:__except_list
  0000d	50		 push	 eax
  0000e	64 89 25 00 00
	00 00		 mov	 DWORD PTR fs:__except_list, esp
  00015	51		 push	 ecx
  00016	56		 push	 esi
  00017	8b f1		 mov	 esi, ecx
  00019	89 74 24 04	 mov	 DWORD PTR _this$[esp+20], esi
  0001d	c7 44 24 10 00
	00 00 00	 mov	 DWORD PTR __$EHRec$[esp+28], 0

; 49   : 	//Logitech iFeel Mouse 
; 50   : 
; 51   : 	Disable();

  00025	e8 00 00 00 00	 call	 ?Disable@CImm@@QAEXXZ	; CImm::Disable

; 52   : 	delete m_pDevice; // Release device

  0002a	8b 4e 04	 mov	 ecx, DWORD PTR [esi+4]
  0002d	85 c9		 test	 ecx, ecx
  0002f	74 06		 je	 SHORT $L85872
  00031	8b 01		 mov	 eax, DWORD PTR [ecx]
  00033	6a 01		 push	 1
  00035	ff 10		 call	 DWORD PTR [eax]
$L85872:

; 53   : 
; 54   : }

  00037	8b 4e 18	 mov	 ecx, DWORD PTR [esi+24]
  0003a	85 c9		 test	 ecx, ecx
  0003c	c7 44 24 10 ff
	ff ff ff	 mov	 DWORD PTR __$EHRec$[esp+28], -1
  00044	74 35		 je	 SHORT $L85923
  00046	8b 46 20	 mov	 eax, DWORD PTR [esi+32]
  00049	2b c1		 sub	 eax, ecx
  0004b	c1 f8 02	 sar	 eax, 2
  0004e	c1 e0 02	 shl	 eax, 2
  00051	3d 80 00 00 00	 cmp	 eax, 128		; 00000080H
  00056	76 19		 jbe	 SHORT $L85922
  00058	51		 push	 ecx
  00059	e8 00 00 00 00	 call	 ??3@YAXPAX@Z		; operator delete
  0005e	83 c4 04	 add	 esp, 4
  00061	5e		 pop	 esi
  00062	8b 4c 24 04	 mov	 ecx, DWORD PTR __$EHRec$[esp+16]
  00066	64 89 0d 00 00
	00 00		 mov	 DWORD PTR fs:__except_list, ecx
  0006d	83 c4 10	 add	 esp, 16			; 00000010H
  00070	c3		 ret	 0
$L85922:
  00071	50		 push	 eax
  00072	51		 push	 ecx
  00073	e8 00 00 00 00	 call	 ?_M_deallocate@?$__node_alloc@$00$0A@@_STL@@CAXPAXI@Z ; _STL::__node_alloc<1,0>::_M_deallocate
  00078	83 c4 08	 add	 esp, 8
$L85923:
  0007b	8b 4c 24 08	 mov	 ecx, DWORD PTR __$EHRec$[esp+20]
  0007f	5e		 pop	 esi
  00080	64 89 0d 00 00
	00 00		 mov	 DWORD PTR fs:__except_list, ecx
  00087	83 c4 10	 add	 esp, 16			; 00000010H
  0008a	c3		 ret	 0
_TEXT	ENDS
;	COMDAT text$x
text$x	SEGMENT
$L85874:
  00000	8b 4d f0	 mov	 ecx, DWORD PTR _this$[ebp]
  00003	83 c1 18	 add	 ecx, 24			; 00000018H
  00006	e9 00 00 00 00	 jmp	 ??1?$vector@PAVCImmPeriodic@@V?$allocator@PAVCImmPeriodic@@@_STL@@@_STL@@QAE@XZ ; _STL::vector<CImmPeriodic *,_STL::allocator<CImmPeriodic *> >::~vector<CImmPeriodic *,_STL::allocator<CImmPeriodic *> >
__ehhandler$??1CImm@@QAE@XZ:
  0000b	b8 00 00 00 00	 mov	 eax, OFFSET FLAT:$T85929
  00010	e9 00 00 00 00	 jmp	 ___CxxFrameHandler
text$x	ENDS
??1CImm@@QAE@XZ ENDP					; CImm::~CImm
PUBLIC	??_C@_04DGDBMCAL@Drag?$AA@			; `string'
PUBLIC	??_C@_06BKKJGDHO@Window?$AA@			; `string'
PUBLIC	??_C@_06LKBCGDFD@Button?$AA@			; `string'
PUBLIC	??_C@_04FEKPLKKA@Grid?$AA@			; `string'
PUBLIC	??_C@_0BH@LIHMOODJ@data?2ui?2txt?2action?4ifr?$AA@ ; `string'
PUBLIC	??_C@_0BG@KPBDAELM@data?2ui?2txt?2skill?4ifr?$AA@ ; `string'
PUBLIC	??_C@_0BK@GOHMGALP@data?2ui?2txt?2inventory?4ifr?$AA@ ; `string'
PUBLIC	??_C@_0BI@CILFIJOK@data?2ui?2txt?2useitem?4ifr?$AA@ ; `string'
PUBLIC	??_SCImmPeriodic@@6B@				; CImmPeriodic::`local vftable'
PUBLIC	??_GCImmPeriodic@@UAEPAXI@Z			; CImmPeriodic::`scalar deleting destructor'
PUBLIC	?Enable@CImm@@QAEXXZ				; CImm::Enable
PUBLIC	??_R4CImmPeriodic@@6B@				; CImmPeriodic::`RTTI Complete Object Locator'
PUBLIC	??_R0?AVCImmPeriodic@@@8			; CImmPeriodic `RTTI Type Descriptor'
PUBLIC	??_R3CImmPeriodic@@8				; CImmPeriodic::`RTTI Class Hierarchy Descriptor'
PUBLIC	??_R2CImmPeriodic@@8				; CImmPeriodic::`RTTI Base Class Array'
PUBLIC	??_R1A@?0A@A@CImmPeriodic@@8			; CImmPeriodic::`RTTI Base Class Descriptor at (0,-1,0,0)'
PUBLIC	??_R1A@?0A@A@CImmEffect@@8			; CImmEffect::`RTTI Base Class Descriptor at (0,-1,0,0)'
PUBLIC	??_R0?AVCImmEffect@@@8				; CImmEffect `RTTI Type Descriptor'
PUBLIC	??_C@_0BD@MGCMMJMJ@data?2ui?2txt?2ui?4ifr?$AA@	; `string'
EXTRN	__imp_??0CImmProject@@QAE@XZ:NEAR
EXTRN	__imp_?OpenFile@CImmProject@@QAEHPBDPAVCImmDevice@@@Z:NEAR
EXTRN	?InitializePolar@CImmPeriodic@@UAEHPAVCImmDevice@@KKKJJKPAUFEELIT_ENVELOPE@@K@Z:NEAR ; CImmPeriodic::InitializePolar
EXTRN	?Initialize@CImmPeriodic@@UAEHPAVCImmDevice@@KKKJJJKPAUFEELIT_ENVELOPE@@K@Z:NEAR ; CImmPeriodic::Initialize
EXTRN	?get_ffe_data@CImmPeriodic@@MAEHPAUDIEFFECT@@@Z:NEAR ; CImmPeriodic::get_ffe_data
EXTRN	?buffer_ifr_data@CImmPeriodic@@MAEHPAD@Z:NEAR	; CImmPeriodic::buffer_ifr_data
EXTRN	?Reload@CImmEffect@@UAEXXZ:NEAR			; CImmEffect::Reload
EXTRN	?Unload@CImmEffect@@UAEJXZ:NEAR			; CImmEffect::Unload
EXTRN	?Stop@CImmEffect@@UAEHXZ:NEAR			; CImmEffect::Stop
EXTRN	?Start@CImmEffect@@UAEHKKH@Z:NEAR		; CImmEffect::Start
EXTRN	?InitializeFromProject@CImmEffect@@UAEHAAVCImmProject@@PBDPAVCImmDevice@@K@Z:NEAR ; CImmEffect::InitializeFromProject
EXTRN	?Initialize@CImmPeriodic@@UAEHPAVCImmDevice@@ABUFEELIT_EFFECT@@K@Z:NEAR ; CImmPeriodic::Initialize
EXTRN	___security_cookie:DWORD
EXTRN	@__security_check_cookie@4:NEAR
EXTRN	??_7type_info@@6B@:QWORD			; type_info::`vftable'
EXTRN	__imp_??0CImmPeriodic@@QAE@XZ:NEAR
EXTRN	??_ECImmPeriodic@@UAEPAXI@Z:NEAR		; CImmPeriodic::`vector deleting destructor'
EXTRN	?GetEffectType@CImmPeriodic@@UAEKXZ:NEAR	; CImmPeriodic::GetEffectType
EXTRN	?GetIsCompatibleGUID@CImmPeriodic@@UAEHAAU_GUID@@@Z:NEAR ; CImmPeriodic::GetIsCompatibleGUID
;	COMDAT xdata$x
xdata$x	SEGMENT
$T86158	DD	0ffffffffH
	DD	FLAT:$L86002
	DD	00H
	DD	FLAT:$L86003
	DD	00H
	DD	FLAT:$L86004
	DD	00H
	DD	FLAT:$L86005
	DD	00H
	DD	FLAT:$L86006
	DD	00H
	DD	FLAT:$L86007
	DD	00H
	DD	FLAT:$L86008
	DD	00H
	DD	FLAT:$L86009
	DD	00H
	DD	FLAT:$L86010
$T86151	DD	019930520H
	DD	09H
	DD	FLAT:$T86158
	DD	2 DUP(00H)
	DD	2 DUP(00H)
xdata$x	ENDS
;	COMDAT ??_C@_0BD@MGCMMJMJ@data?2ui?2txt?2ui?4ifr?$AA@
CONST	SEGMENT
??_C@_0BD@MGCMMJMJ@data?2ui?2txt?2ui?4ifr?$AA@ DB 'data\ui\txt\ui.ifr', 00H ; `string'
CONST	ENDS
;	COMDAT ??_SCImmPeriodic@@6B@
CONST	SEGMENT
??_SCImmPeriodic@@6B@ DD FLAT:??_R4CImmPeriodic@@6B@	; CImmPeriodic::`local vftable'
	DD	FLAT:??_ECImmPeriodic@@UAEPAXI@Z
	DD	FLAT:?GetIsCompatibleGUID@CImmPeriodic@@UAEHAAU_GUID@@@Z
	DD	FLAT:?GetEffectType@CImmPeriodic@@UAEKXZ
	DD	FLAT:?Initialize@CImmPeriodic@@UAEHPAVCImmDevice@@ABUFEELIT_EFFECT@@K@Z
	DD	FLAT:?InitializeFromProject@CImmEffect@@UAEHAAVCImmProject@@PBDPAVCImmDevice@@K@Z
	DD	FLAT:?Start@CImmEffect@@UAEHKKH@Z
	DD	FLAT:?Stop@CImmEffect@@UAEHXZ
	DD	FLAT:?Unload@CImmEffect@@UAEJXZ
	DD	FLAT:?Reload@CImmEffect@@UAEXXZ
	DD	FLAT:?buffer_ifr_data@CImmPeriodic@@MAEHPAD@Z
	DD	FLAT:?get_ffe_data@CImmPeriodic@@MAEHPAUDIEFFECT@@@Z
	DD	FLAT:?Initialize@CImmPeriodic@@UAEHPAVCImmDevice@@KKKJJJKPAUFEELIT_ENVELOPE@@K@Z
	DD	FLAT:?InitializePolar@CImmPeriodic@@UAEHPAVCImmDevice@@KKKJJKPAUFEELIT_ENVELOPE@@K@Z
CONST	ENDS
;	COMDAT ??_C@_04DGDBMCAL@Drag?$AA@
CONST	SEGMENT
??_C@_04DGDBMCAL@Drag?$AA@ DB 'Drag', 00H		; `string'
CONST	ENDS
;	COMDAT ??_C@_06BKKJGDHO@Window?$AA@
CONST	SEGMENT
??_C@_06BKKJGDHO@Window?$AA@ DB 'Window', 00H		; `string'
CONST	ENDS
;	COMDAT ??_C@_06LKBCGDFD@Button?$AA@
CONST	SEGMENT
??_C@_06LKBCGDFD@Button?$AA@ DB 'Button', 00H		; `string'
CONST	ENDS
;	COMDAT ??_C@_04FEKPLKKA@Grid?$AA@
CONST	SEGMENT
??_C@_04FEKPLKKA@Grid?$AA@ DB 'Grid', 00H		; `string'
CONST	ENDS
;	COMDAT ??_C@_0BH@LIHMOODJ@data?2ui?2txt?2action?4ifr?$AA@
CONST	SEGMENT
??_C@_0BH@LIHMOODJ@data?2ui?2txt?2action?4ifr?$AA@ DB 'data\ui\txt\action'
	DB	'.ifr', 00H					; `string'
CONST	ENDS
;	COMDAT ??_C@_0BG@KPBDAELM@data?2ui?2txt?2skill?4ifr?$AA@
CONST	SEGMENT
??_C@_0BG@KPBDAELM@data?2ui?2txt?2skill?4ifr?$AA@ DB 'data\ui\txt\skill.i'
	DB	'fr', 00H					; `string'
CONST	ENDS
;	COMDAT ??_C@_0BK@GOHMGALP@data?2ui?2txt?2inventory?4ifr?$AA@
CONST	SEGMENT
??_C@_0BK@GOHMGALP@data?2ui?2txt?2inventory?4ifr?$AA@ DB 'data\ui\txt\inv'
	DB	'entory.ifr', 00H				; `string'
CONST	ENDS
;	COMDAT ??_C@_0BI@CILFIJOK@data?2ui?2txt?2useitem?4ifr?$AA@
CONST	SEGMENT
??_C@_0BI@CILFIJOK@data?2ui?2txt?2useitem?4ifr?$AA@ DB 'data\ui\txt\useit'
	DB	'em.ifr', 00H				; `string'
CONST	ENDS
;	COMDAT ??_R4CImmPeriodic@@6B@
rdata$r	SEGMENT
??_R4CImmPeriodic@@6B@ DD 00H				; CImmPeriodic::`RTTI Complete Object Locator'
	DD	00H
	DD	00H
	DD	FLAT:??_R0?AVCImmPeriodic@@@8
	DD	FLAT:??_R3CImmPeriodic@@8
rdata$r	ENDS
;	COMDAT ??_R0?AVCImmPeriodic@@@8
_DATA	SEGMENT
??_R0?AVCImmPeriodic@@@8 DD FLAT:??_7type_info@@6B@	; CImmPeriodic `RTTI Type Descriptor'
	DD	00H
	DB	'.?AVCImmPeriodic@@', 00H
_DATA	ENDS
;	COMDAT ??_R3CImmPeriodic@@8
rdata$r	SEGMENT
??_R3CImmPeriodic@@8 DD 00H				; CImmPeriodic::`RTTI Class Hierarchy Descriptor'
	DD	00H
	DD	02H
	DD	FLAT:??_R2CImmPeriodic@@8
rdata$r	ENDS
;	COMDAT ??_R2CImmPeriodic@@8
rdata$r	SEGMENT
??_R2CImmPeriodic@@8 DD FLAT:??_R1A@?0A@A@CImmPeriodic@@8 ; CImmPeriodic::`RTTI Base Class Array'
	DD	FLAT:??_R1A@?0A@A@CImmEffect@@8
rdata$r	ENDS
;	COMDAT ??_R1A@?0A@A@CImmPeriodic@@8
rdata$r	SEGMENT
??_R1A@?0A@A@CImmPeriodic@@8 DD FLAT:??_R0?AVCImmPeriodic@@@8 ; CImmPeriodic::`RTTI Base Class Descriptor at (0,-1,0,0)'
	DD	01H
	DD	00H
	DD	0ffffffffH
	DD	00H
	DD	00H
rdata$r	ENDS
;	COMDAT ??_R1A@?0A@A@CImmEffect@@8
rdata$r	SEGMENT
??_R1A@?0A@A@CImmEffect@@8 DD FLAT:??_R0?AVCImmEffect@@@8 ; CImmEffect::`RTTI Base Class Descriptor at (0,-1,0,0)'
	DD	00H
	DD	00H
	DD	0ffffffffH
	DD	00H
	DD	00H
rdata$r	ENDS
;	COMDAT ??_R0?AVCImmEffect@@@8
_DATA	SEGMENT
??_R0?AVCImmEffect@@@8 DD FLAT:??_7type_info@@6B@	; CImmEffect `RTTI Type Descriptor'
	DD	00H
	DB	'.?AVCImmEffect@@', 00H
; Function compile flags: /Ogty
_DATA	ENDS
;	COMDAT ?Enable@CImm@@QAEXXZ
_TEXT	SEGMENT
$T85995 = -316						; size = 4
$T85987 = -316						; size = 4
$T85979 = -316						; size = 4
$T85971 = -316						; size = 4
$T85963 = -316						; size = 4
$T85955 = -316						; size = 4
$T85947 = -316						; size = 4
$T85939 = -316						; size = 4
_m_pTemp$83964 = -316					; size = 4
$T86122 = -309						; size = 1
$T86092 = -309						; size = 1
$T86062 = -309						; size = 1
$T86042 = -309						; size = 1
_ImmProject$ = -308					; size = 292
__$ArrayPad$ = -16					; size = 4
__$EHRec$ = -12						; size = 12
__$ReturnAddr$ = 4					; size = 4
?Enable@CImm@@QAEXXZ PROC NEAR				; CImm::Enable, COMDAT
; _this$ = ecx

; 58   : {

  00000	6a ff		 push	 -1
  00002	68 00 00 00 00	 push	 __ehhandler$?Enable@CImm@@QAEXXZ
  00007	64 a1 00 00 00
	00		 mov	 eax, DWORD PTR fs:__except_list
  0000d	50		 push	 eax
  0000e	64 89 25 00 00
	00 00		 mov	 DWORD PTR fs:__except_list, esp
  00015	81 ec 30 01 00
	00		 sub	 esp, 304		; 00000130H
  0001b	a1 00 00 00 00	 mov	 eax, DWORD PTR ___security_cookie
  00020	53		 push	 ebx
  00021	55		 push	 ebp
  00022	8b e9		 mov	 ebp, ecx
  00024	89 84 24 34 01
	00 00		 mov	 DWORD PTR __$ArrayPad$[esp+324], eax

; 59   : 	if(!IsDevice())return;

  0002b	8b 45 04	 mov	 eax, DWORD PTR [ebp+4]
  0002e	33 db		 xor	 ebx, ebx
  00030	3b c3		 cmp	 eax, ebx
  00032	0f 84 0d 04 00
	00		 je	 $L83958
  00038	56		 push	 esi
  00039	57		 push	 edi

; 60   : 	Disable();

  0003a	e8 00 00 00 00	 call	 ?Disable@CImm@@QAEXXZ	; CImm::Disable

; 61   : 	m_bPlay = true; 
; 62   : 	
; 63   : 	BOOL bRes;
; 64   : 
; 65   : 	//UI  
; 66   : 	CImmProject ImmProject;

  0003f	8d 4c 24 18	 lea	 ecx, DWORD PTR _ImmProject$[esp+332]
  00043	c6 45 00 01	 mov	 BYTE PTR [ebp], 1
  00047	ff 15 00 00 00
	00		 call	 DWORD PTR __imp_??0CImmProject@@QAE@XZ

; 67   : 	if (ImmProject.OpenFile(IFR_UI, m_pDevice))

  0004d	8b 45 04	 mov	 eax, DWORD PTR [ebp+4]
  00050	8b 3d 00 00 00
	00		 mov	 edi, DWORD PTR __imp_?OpenFile@CImmProject@@QAEHPBDPAVCImmDevice@@@Z
  00056	50		 push	 eax
  00057	68 00 00 00 00	 push	 OFFSET FLAT:??_C@_0BD@MGCMMJMJ@data?2ui?2txt?2ui?4ifr?$AA@
  0005c	8d 4c 24 20	 lea	 ecx, DWORD PTR _ImmProject$[esp+340]
  00060	89 9c 24 50 01
	00 00		 mov	 DWORD PTR __$EHRec$[esp+348], ebx
  00067	ff d7		 call	 edi
  00069	85 c0		 test	 eax, eax
  0006b	0f 84 41 02 00
	00		 je	 $L83962

; 68   : 	{
; 69   : 		// Square Wave Vibration from Immersion Studio resource file 
; 70   : 		
; 71   : 		CImmPeriodic *m_pTemp;
; 72   : 		
; 73   : 		m_pTemp = new CImmPeriodic;

  00071	68 d8 00 00 00	 push	 216			; 000000d8H
  00076	e8 00 00 00 00	 call	 ??2@YAPAXI@Z		; operator new
  0007b	8b f0		 mov	 esi, eax
  0007d	83 c4 04	 add	 esp, 4
  00080	89 74 24 10	 mov	 DWORD PTR $T85939[esp+332], esi
  00084	3b f3		 cmp	 esi, ebx
  00086	c6 84 24 48 01
	00 00 01	 mov	 BYTE PTR __$EHRec$[esp+340], 1
  0008e	74 10		 je	 SHORT $L85940
  00090	8b ce		 mov	 ecx, esi
  00092	ff 15 00 00 00
	00		 call	 DWORD PTR __imp_??0CImmPeriodic@@QAE@XZ
  00098	c7 06 00 00 00
	00		 mov	 DWORD PTR [esi], OFFSET FLAT:??_SCImmPeriodic@@6B@
  0009e	eb 02		 jmp	 SHORT $L85941
$L85940:
  000a0	33 f6		 xor	 esi, esi
$L85941:

; 74   : 		bRes = m_pTemp->InitializeFromProject(ImmProject, "Drag");

  000a2	8b 16		 mov	 edx, DWORD PTR [esi]
  000a4	53		 push	 ebx
  000a5	53		 push	 ebx
  000a6	68 00 00 00 00	 push	 OFFSET FLAT:??_C@_04DGDBMCAL@Drag?$AA@
  000ab	8d 44 24 24	 lea	 eax, DWORD PTR _ImmProject$[esp+344]
  000af	50		 push	 eax
  000b0	8b ce		 mov	 ecx, esi
  000b2	88 9c 24 58 01
	00 00		 mov	 BYTE PTR __$EHRec$[esp+356], bl
  000b9	89 74 24 20	 mov	 DWORD PTR _m_pTemp$83964[esp+348], esi
  000bd	ff 52 10	 call	 DWORD PTR [edx+16]

; 75   : 		if (!bRes)

  000c0	3b c3		 cmp	 eax, ebx
  000c2	75 0e		 jne	 SHORT $L83970

; 76   : 		{
; 77   : 			delete m_pTemp;

  000c4	8b 16		 mov	 edx, DWORD PTR [esi]
  000c6	6a 01		 push	 1
  000c8	8b ce		 mov	 ecx, esi
  000ca	ff 12		 call	 DWORD PTR [edx]

; 78   : 			m_pTemp = NULL;

  000cc	33 f6		 xor	 esi, esi
  000ce	89 74 24 10	 mov	 DWORD PTR _m_pTemp$83964[esp+332], esi
$L83970:

; 79   : 		}
; 80   : 		m_vUI.push_back(m_pTemp);

  000d2	8b 45 1c	 mov	 eax, DWORD PTR [ebp+28]
  000d5	8b 4d 20	 mov	 ecx, DWORD PTR [ebp+32]
  000d8	3b c1		 cmp	 eax, ecx
  000da	8d 7d 18	 lea	 edi, DWORD PTR [ebp+24]
  000dd	74 0c		 je	 SHORT $L86039
  000df	3b c3		 cmp	 eax, ebx
  000e1	74 02		 je	 SHORT $L86033
  000e3	89 30		 mov	 DWORD PTR [eax], esi
$L86033:
  000e5	83 47 04 04	 add	 DWORD PTR [edi+4], 4
  000e9	eb 16		 jmp	 SHORT $L86040
$L86039:
  000eb	6a 01		 push	 1
  000ed	6a 01		 push	 1
  000ef	8d 4c 24 1f	 lea	 ecx, DWORD PTR $T86042[esp+340]
  000f3	51		 push	 ecx
  000f4	8d 54 24 1c	 lea	 edx, DWORD PTR _m_pTemp$83964[esp+344]
  000f8	52		 push	 edx
  000f9	50		 push	 eax
  000fa	8b cf		 mov	 ecx, edi
  000fc	e8 00 00 00 00	 call	 ?_M_insert_overflow@?$vector@PAVCImmPeriodic@@V?$allocator@PAVCImmPeriodic@@@_STL@@@_STL@@IAEXPAPAVCImmPeriodic@@ABQAV3@ABU__true_type@2@I_N@Z ; _STL::vector<CImmPeriodic *,_STL::allocator<CImmPeriodic *> >::_M_insert_overflow
$L86040:

; 81   : 		
; 82   : 		m_pTemp = new CImmPeriodic;

  00101	68 d8 00 00 00	 push	 216			; 000000d8H
  00106	e8 00 00 00 00	 call	 ??2@YAPAXI@Z		; operator new
  0010b	8b f0		 mov	 esi, eax
  0010d	83 c4 04	 add	 esp, 4
  00110	89 74 24 10	 mov	 DWORD PTR $T85947[esp+332], esi
  00114	3b f3		 cmp	 esi, ebx
  00116	c6 84 24 48 01
	00 00 02	 mov	 BYTE PTR __$EHRec$[esp+340], 2
  0011e	74 10		 je	 SHORT $L85948
  00120	8b ce		 mov	 ecx, esi
  00122	ff 15 00 00 00
	00		 call	 DWORD PTR __imp_??0CImmPeriodic@@QAE@XZ
  00128	c7 06 00 00 00
	00		 mov	 DWORD PTR [esi], OFFSET FLAT:??_SCImmPeriodic@@6B@
  0012e	eb 02		 jmp	 SHORT $L85949
$L85948:
  00130	33 f6		 xor	 esi, esi
$L85949:

; 83   : 		bRes = m_pTemp->InitializeFromProject(ImmProject, "Window");

  00132	8b 06		 mov	 eax, DWORD PTR [esi]
  00134	53		 push	 ebx
  00135	53		 push	 ebx
  00136	68 00 00 00 00	 push	 OFFSET FLAT:??_C@_06BKKJGDHO@Window?$AA@
  0013b	8d 4c 24 24	 lea	 ecx, DWORD PTR _ImmProject$[esp+344]
  0013f	51		 push	 ecx
  00140	8b ce		 mov	 ecx, esi
  00142	88 9c 24 58 01
	00 00		 mov	 BYTE PTR __$EHRec$[esp+356], bl
  00149	89 74 24 20	 mov	 DWORD PTR _m_pTemp$83964[esp+348], esi
  0014d	ff 50 10	 call	 DWORD PTR [eax+16]

; 84   : 		if (!bRes)

  00150	3b c3		 cmp	 eax, ebx
  00152	75 0e		 jne	 SHORT $L83978

; 85   : 		{
; 86   : 			delete m_pTemp;

  00154	8b 16		 mov	 edx, DWORD PTR [esi]
  00156	6a 01		 push	 1
  00158	8b ce		 mov	 ecx, esi
  0015a	ff 12		 call	 DWORD PTR [edx]

; 87   : 			m_pTemp = NULL;

  0015c	33 f6		 xor	 esi, esi
  0015e	89 74 24 10	 mov	 DWORD PTR _m_pTemp$83964[esp+332], esi
$L83978:

; 88   : 		}
; 89   : 		m_vUI.push_back(m_pTemp);

  00162	8b 47 04	 mov	 eax, DWORD PTR [edi+4]
  00165	3b 47 08	 cmp	 eax, DWORD PTR [edi+8]
  00168	74 0c		 je	 SHORT $L86071
  0016a	3b c3		 cmp	 eax, ebx
  0016c	74 02		 je	 SHORT $L86065
  0016e	89 30		 mov	 DWORD PTR [eax], esi
$L86065:
  00170	83 47 04 04	 add	 DWORD PTR [edi+4], 4
  00174	eb 16		 jmp	 SHORT $L86072
$L86071:
  00176	6a 01		 push	 1
  00178	6a 01		 push	 1
  0017a	8d 4c 24 1f	 lea	 ecx, DWORD PTR $T86062[esp+340]
  0017e	51		 push	 ecx
  0017f	8d 54 24 1c	 lea	 edx, DWORD PTR _m_pTemp$83964[esp+344]
  00183	52		 push	 edx
  00184	50		 push	 eax
  00185	8b cf		 mov	 ecx, edi
  00187	e8 00 00 00 00	 call	 ?_M_insert_overflow@?$vector@PAVCImmPeriodic@@V?$allocator@PAVCImmPeriodic@@@_STL@@@_STL@@IAEXPAPAVCImmPeriodic@@ABQAV3@ABU__true_type@2@I_N@Z ; _STL::vector<CImmPeriodic *,_STL::allocator<CImmPeriodic *> >::_M_insert_overflow
$L86072:

; 90   : 		
; 91   : 		m_pTemp = new CImmPeriodic;

  0018c	68 d8 00 00 00	 push	 216			; 000000d8H
  00191	e8 00 00 00 00	 call	 ??2@YAPAXI@Z		; operator new
  00196	8b f0		 mov	 esi, eax
  00198	83 c4 04	 add	 esp, 4
  0019b	89 74 24 10	 mov	 DWORD PTR $T85955[esp+332], esi
  0019f	3b f3		 cmp	 esi, ebx
  001a1	c6 84 24 48 01
	00 00 03	 mov	 BYTE PTR __$EHRec$[esp+340], 3
  001a9	74 10		 je	 SHORT $L85956
  001ab	8b ce		 mov	 ecx, esi
  001ad	ff 15 00 00 00
	00		 call	 DWORD PTR __imp_??0CImmPeriodic@@QAE@XZ
  001b3	c7 06 00 00 00
	00		 mov	 DWORD PTR [esi], OFFSET FLAT:??_SCImmPeriodic@@6B@
  001b9	eb 02		 jmp	 SHORT $L85957
$L85956:
  001bb	33 f6		 xor	 esi, esi
$L85957:

; 92   : 		bRes = m_pTemp->InitializeFromProject(ImmProject, "Button");

  001bd	8b 06		 mov	 eax, DWORD PTR [esi]
  001bf	53		 push	 ebx
  001c0	53		 push	 ebx
  001c1	68 00 00 00 00	 push	 OFFSET FLAT:??_C@_06LKBCGDFD@Button?$AA@
  001c6	8d 4c 24 24	 lea	 ecx, DWORD PTR _ImmProject$[esp+344]
  001ca	51		 push	 ecx
  001cb	8b ce		 mov	 ecx, esi
  001cd	88 9c 24 58 01
	00 00		 mov	 BYTE PTR __$EHRec$[esp+356], bl
  001d4	89 74 24 20	 mov	 DWORD PTR _m_pTemp$83964[esp+348], esi
  001d8	ff 50 10	 call	 DWORD PTR [eax+16]

; 93   : 		if (!bRes)

  001db	3b c3		 cmp	 eax, ebx
  001dd	75 0e		 jne	 SHORT $L83986

; 94   : 		{
; 95   : 			delete m_pTemp;

  001df	8b 16		 mov	 edx, DWORD PTR [esi]
  001e1	6a 01		 push	 1
  001e3	8b ce		 mov	 ecx, esi
  001e5	ff 12		 call	 DWORD PTR [edx]

; 96   : 			m_pTemp = NULL;

  001e7	33 f6		 xor	 esi, esi
  001e9	89 74 24 10	 mov	 DWORD PTR _m_pTemp$83964[esp+332], esi
$L83986:

; 97   : 		}
; 98   : 		m_vUI.push_back(m_pTemp);

  001ed	8b 47 04	 mov	 eax, DWORD PTR [edi+4]
  001f0	3b 47 08	 cmp	 eax, DWORD PTR [edi+8]
  001f3	74 0c		 je	 SHORT $L86101
  001f5	3b c3		 cmp	 eax, ebx
  001f7	74 02		 je	 SHORT $L86095
  001f9	89 30		 mov	 DWORD PTR [eax], esi
$L86095:
  001fb	83 47 04 04	 add	 DWORD PTR [edi+4], 4
  001ff	eb 16		 jmp	 SHORT $L86102
$L86101:
  00201	6a 01		 push	 1
  00203	6a 01		 push	 1
  00205	8d 4c 24 1f	 lea	 ecx, DWORD PTR $T86092[esp+340]
  00209	51		 push	 ecx
  0020a	8d 54 24 1c	 lea	 edx, DWORD PTR _m_pTemp$83964[esp+344]
  0020e	52		 push	 edx
  0020f	50		 push	 eax
  00210	8b cf		 mov	 ecx, edi
  00212	e8 00 00 00 00	 call	 ?_M_insert_overflow@?$vector@PAVCImmPeriodic@@V?$allocator@PAVCImmPeriodic@@@_STL@@@_STL@@IAEXPAPAVCImmPeriodic@@ABQAV3@ABU__true_type@2@I_N@Z ; _STL::vector<CImmPeriodic *,_STL::allocator<CImmPeriodic *> >::_M_insert_overflow
$L86102:

; 99   : 		
; 100  : 		m_pTemp = new CImmPeriodic;

  00217	68 d8 00 00 00	 push	 216			; 000000d8H
  0021c	e8 00 00 00 00	 call	 ??2@YAPAXI@Z		; operator new
  00221	8b f0		 mov	 esi, eax
  00223	83 c4 04	 add	 esp, 4
  00226	89 74 24 10	 mov	 DWORD PTR $T85963[esp+332], esi
  0022a	3b f3		 cmp	 esi, ebx
  0022c	c6 84 24 48 01
	00 00 04	 mov	 BYTE PTR __$EHRec$[esp+340], 4
  00234	74 10		 je	 SHORT $L85964
  00236	8b ce		 mov	 ecx, esi
  00238	ff 15 00 00 00
	00		 call	 DWORD PTR __imp_??0CImmPeriodic@@QAE@XZ
  0023e	c7 06 00 00 00
	00		 mov	 DWORD PTR [esi], OFFSET FLAT:??_SCImmPeriodic@@6B@
  00244	eb 02		 jmp	 SHORT $L85965
$L85964:
  00246	33 f6		 xor	 esi, esi
$L85965:

; 101  : 		bRes = m_pTemp->InitializeFromProject(ImmProject, "Grid");

  00248	8b 06		 mov	 eax, DWORD PTR [esi]
  0024a	53		 push	 ebx
  0024b	53		 push	 ebx
  0024c	68 00 00 00 00	 push	 OFFSET FLAT:??_C@_04FEKPLKKA@Grid?$AA@
  00251	8d 4c 24 24	 lea	 ecx, DWORD PTR _ImmProject$[esp+344]
  00255	51		 push	 ecx
  00256	8b ce		 mov	 ecx, esi
  00258	88 9c 24 58 01
	00 00		 mov	 BYTE PTR __$EHRec$[esp+356], bl
  0025f	89 74 24 20	 mov	 DWORD PTR _m_pTemp$83964[esp+348], esi
  00263	ff 50 10	 call	 DWORD PTR [eax+16]

; 102  : 		if (!bRes)

  00266	3b c3		 cmp	 eax, ebx
  00268	75 0e		 jne	 SHORT $L83994

; 103  : 		{
; 104  : 			delete m_pTemp;

  0026a	8b 16		 mov	 edx, DWORD PTR [esi]
  0026c	6a 01		 push	 1
  0026e	8b ce		 mov	 ecx, esi
  00270	ff 12		 call	 DWORD PTR [edx]

; 105  : 			m_pTemp = NULL;

  00272	33 f6		 xor	 esi, esi
  00274	89 74 24 10	 mov	 DWORD PTR _m_pTemp$83964[esp+332], esi
$L83994:

; 106  : 		}
; 107  : 		m_vUI.push_back(m_pTemp);

  00278	8b 47 04	 mov	 eax, DWORD PTR [edi+4]
  0027b	3b 47 08	 cmp	 eax, DWORD PTR [edi+8]
  0027e	74 0c		 je	 SHORT $L86131
  00280	3b c3		 cmp	 eax, ebx
  00282	74 02		 je	 SHORT $L86125
  00284	89 30		 mov	 DWORD PTR [eax], esi
$L86125:
  00286	83 47 04 04	 add	 DWORD PTR [edi+4], 4
  0028a	eb 16		 jmp	 SHORT $L86132
$L86131:
  0028c	6a 01		 push	 1
  0028e	6a 01		 push	 1
  00290	8d 4c 24 1f	 lea	 ecx, DWORD PTR $T86122[esp+340]
  00294	51		 push	 ecx
  00295	8d 54 24 1c	 lea	 edx, DWORD PTR _m_pTemp$83964[esp+344]
  00299	52		 push	 edx
  0029a	50		 push	 eax
  0029b	8b cf		 mov	 ecx, edi
  0029d	e8 00 00 00 00	 call	 ?_M_insert_overflow@?$vector@PAVCImmPeriodic@@V?$allocator@PAVCImmPeriodic@@@_STL@@@_STL@@IAEXPAPAVCImmPeriodic@@ABQAV3@ABU__true_type@2@I_N@Z ; _STL::vector<CImmPeriodic *,_STL::allocator<CImmPeriodic *> >::_M_insert_overflow
$L86132:

; 108  : 		
; 109  : 		ImmProject.Close();

  002a2	8d 4c 24 18	 lea	 ecx, DWORD PTR _ImmProject$[esp+332]
  002a6	ff 15 00 00 00
	00		 call	 DWORD PTR __imp_?Close@CImmProject@@QAEXXZ
  002ac	8b 3d 00 00 00
	00		 mov	 edi, DWORD PTR __imp_?OpenFile@CImmProject@@QAEHPBDPAVCImmDevice@@@Z
$L83962:

; 110  : 	}
; 111  : 
; 112  : 	m_ProjectAction = new CImmProject;

  002b2	68 24 01 00 00	 push	 292			; 00000124H
  002b7	e8 00 00 00 00	 call	 ??2@YAPAXI@Z		; operator new
  002bc	83 c4 04	 add	 esp, 4
  002bf	89 44 24 10	 mov	 DWORD PTR $T85971[esp+332], eax
  002c3	3b c3		 cmp	 eax, ebx
  002c5	c6 84 24 48 01
	00 00 05	 mov	 BYTE PTR __$EHRec$[esp+340], 5
  002cd	74 0a		 je	 SHORT $L85972
  002cf	8b c8		 mov	 ecx, eax
  002d1	ff 15 00 00 00
	00		 call	 DWORD PTR __imp_??0CImmProject@@QAE@XZ
  002d7	eb 02		 jmp	 SHORT $L85973
$L85972:
  002d9	33 c0		 xor	 eax, eax
$L85973:

; 113  : 	if(!m_ProjectAction->OpenFile(IFR_ACTION, m_pDevice))	// delete

  002db	8b 4d 04	 mov	 ecx, DWORD PTR [ebp+4]
  002de	51		 push	 ecx
  002df	68 00 00 00 00	 push	 OFFSET FLAT:??_C@_0BH@LIHMOODJ@data?2ui?2txt?2action?4ifr?$AA@
  002e4	8b c8		 mov	 ecx, eax
  002e6	88 9c 24 50 01
	00 00		 mov	 BYTE PTR __$EHRec$[esp+348], bl
  002ed	89 45 08	 mov	 DWORD PTR [ebp+8], eax
  002f0	ff d7		 call	 edi
  002f2	85 c0		 test	 eax, eax
  002f4	75 1b		 jne	 SHORT $L84001

; 114  : 	{
; 115  : 		delete m_ProjectAction;

  002f6	8b 75 08	 mov	 esi, DWORD PTR [ebp+8]
  002f9	3b f3		 cmp	 esi, ebx
  002fb	74 11		 je	 SHORT $L85976
  002fd	8b ce		 mov	 ecx, esi
  002ff	ff 15 00 00 00
	00		 call	 DWORD PTR __imp_??1CImmProject@@QAE@XZ
  00305	56		 push	 esi
  00306	e8 00 00 00 00	 call	 ??3@YAXPAX@Z		; operator delete
  0030b	83 c4 04	 add	 esp, 4
$L85976:

; 116  : 		m_ProjectAction = NULL;

  0030e	89 5d 08	 mov	 DWORD PTR [ebp+8], ebx
$L84001:

; 117  : 	}
; 118  : 	
; 119  : 	m_ProjectSkill = new CImmProject;

  00311	68 24 01 00 00	 push	 292			; 00000124H
  00316	e8 00 00 00 00	 call	 ??2@YAPAXI@Z		; operator new
  0031b	83 c4 04	 add	 esp, 4
  0031e	89 44 24 10	 mov	 DWORD PTR $T85979[esp+332], eax
  00322	3b c3		 cmp	 eax, ebx
  00324	c6 84 24 48 01
	00 00 06	 mov	 BYTE PTR __$EHRec$[esp+340], 6
  0032c	74 0a		 je	 SHORT $L85980
  0032e	8b c8		 mov	 ecx, eax
  00330	ff 15 00 00 00
	00		 call	 DWORD PTR __imp_??0CImmProject@@QAE@XZ
  00336	eb 02		 jmp	 SHORT $L85981
$L85980:
  00338	33 c0		 xor	 eax, eax
$L85981:

; 120  : 	if(!m_ProjectSkill->OpenFile(IFR_SKILL, m_pDevice))	// delete

  0033a	8b 55 04	 mov	 edx, DWORD PTR [ebp+4]
  0033d	52		 push	 edx
  0033e	68 00 00 00 00	 push	 OFFSET FLAT:??_C@_0BG@KPBDAELM@data?2ui?2txt?2skill?4ifr?$AA@
  00343	8b c8		 mov	 ecx, eax
  00345	88 9c 24 50 01
	00 00		 mov	 BYTE PTR __$EHRec$[esp+348], bl
  0034c	89 45 0c	 mov	 DWORD PTR [ebp+12], eax
  0034f	ff d7		 call	 edi
  00351	85 c0		 test	 eax, eax
  00353	75 1b		 jne	 SHORT $L84009

; 121  : 	{
; 122  : 		delete m_ProjectSkill;

  00355	8b 75 0c	 mov	 esi, DWORD PTR [ebp+12]
  00358	3b f3		 cmp	 esi, ebx
  0035a	74 11		 je	 SHORT $L85984
  0035c	8b ce		 mov	 ecx, esi
  0035e	ff 15 00 00 00
	00		 call	 DWORD PTR __imp_??1CImmProject@@QAE@XZ
  00364	56		 push	 esi
  00365	e8 00 00 00 00	 call	 ??3@YAXPAX@Z		; operator delete
  0036a	83 c4 04	 add	 esp, 4
$L85984:

; 123  : 		m_ProjectSkill = NULL;

  0036d	89 5d 0c	 mov	 DWORD PTR [ebp+12], ebx
$L84009:

; 124  : 	}
; 125  : 	
; 126  : 	m_ProjectInventory = new CImmProject;

  00370	68 24 01 00 00	 push	 292			; 00000124H
  00375	e8 00 00 00 00	 call	 ??2@YAPAXI@Z		; operator new
  0037a	83 c4 04	 add	 esp, 4
  0037d	89 44 24 10	 mov	 DWORD PTR $T85987[esp+332], eax
  00381	3b c3		 cmp	 eax, ebx
  00383	c6 84 24 48 01
	00 00 07	 mov	 BYTE PTR __$EHRec$[esp+340], 7
  0038b	74 0a		 je	 SHORT $L85988
  0038d	8b c8		 mov	 ecx, eax
  0038f	ff 15 00 00 00
	00		 call	 DWORD PTR __imp_??0CImmProject@@QAE@XZ
  00395	eb 02		 jmp	 SHORT $L85989
$L85988:
  00397	33 c0		 xor	 eax, eax
$L85989:

; 127  : 	if(!m_ProjectInventory->OpenFile(IFR_INVENTORY, m_pDevice))	// delete

  00399	8b 4d 04	 mov	 ecx, DWORD PTR [ebp+4]
  0039c	51		 push	 ecx
  0039d	68 00 00 00 00	 push	 OFFSET FLAT:??_C@_0BK@GOHMGALP@data?2ui?2txt?2inventory?4ifr?$AA@
  003a2	8b c8		 mov	 ecx, eax
  003a4	88 9c 24 50 01
	00 00		 mov	 BYTE PTR __$EHRec$[esp+348], bl
  003ab	89 45 10	 mov	 DWORD PTR [ebp+16], eax
  003ae	ff d7		 call	 edi
  003b0	85 c0		 test	 eax, eax
  003b2	75 1b		 jne	 SHORT $L84017

; 128  : 	{
; 129  : 		delete m_ProjectInventory;

  003b4	8b 75 10	 mov	 esi, DWORD PTR [ebp+16]
  003b7	3b f3		 cmp	 esi, ebx
  003b9	74 11		 je	 SHORT $L85992
  003bb	8b ce		 mov	 ecx, esi
  003bd	ff 15 00 00 00
	00		 call	 DWORD PTR __imp_??1CImmProject@@QAE@XZ
  003c3	56		 push	 esi
  003c4	e8 00 00 00 00	 call	 ??3@YAXPAX@Z		; operator delete
  003c9	83 c4 04	 add	 esp, 4
$L85992:

; 130  : 		m_ProjectInventory = NULL;

  003cc	89 5d 10	 mov	 DWORD PTR [ebp+16], ebx
$L84017:

; 131  : 	}
; 132  : 	
; 133  : 	m_ProjectUseItem = new CImmProject;

  003cf	68 24 01 00 00	 push	 292			; 00000124H
  003d4	e8 00 00 00 00	 call	 ??2@YAPAXI@Z		; operator new
  003d9	83 c4 04	 add	 esp, 4
  003dc	89 44 24 10	 mov	 DWORD PTR $T85995[esp+332], eax
  003e0	3b c3		 cmp	 eax, ebx
  003e2	c6 84 24 48 01
	00 00 08	 mov	 BYTE PTR __$EHRec$[esp+340], 8
  003ea	74 0a		 je	 SHORT $L85996
  003ec	8b c8		 mov	 ecx, eax
  003ee	ff 15 00 00 00
	00		 call	 DWORD PTR __imp_??0CImmProject@@QAE@XZ
  003f4	eb 02		 jmp	 SHORT $L85997
$L85996:
  003f6	33 c0		 xor	 eax, eax
$L85997:

; 134  : 	if(!m_ProjectUseItem->OpenFile(IFR_USE_ITEM, m_pDevice))	// delete

  003f8	8b 55 04	 mov	 edx, DWORD PTR [ebp+4]
  003fb	52		 push	 edx
  003fc	68 00 00 00 00	 push	 OFFSET FLAT:??_C@_0BI@CILFIJOK@data?2ui?2txt?2useitem?4ifr?$AA@
  00401	8b c8		 mov	 ecx, eax
  00403	88 9c 24 50 01
	00 00		 mov	 BYTE PTR __$EHRec$[esp+348], bl
  0040a	89 45 14	 mov	 DWORD PTR [ebp+20], eax
  0040d	ff d7		 call	 edi
  0040f	85 c0		 test	 eax, eax
  00411	75 1b		 jne	 SHORT $L86153

; 135  : 	{
; 136  : 		delete m_ProjectUseItem;

  00413	8b 75 14	 mov	 esi, DWORD PTR [ebp+20]
  00416	3b f3		 cmp	 esi, ebx
  00418	74 11		 je	 SHORT $L86152
  0041a	8b ce		 mov	 ecx, esi
  0041c	ff 15 00 00 00
	00		 call	 DWORD PTR __imp_??1CImmProject@@QAE@XZ
  00422	56		 push	 esi
  00423	e8 00 00 00 00	 call	 ??3@YAXPAX@Z		; operator delete
  00428	83 c4 04	 add	 esp, 4
$L86152:

; 137  : 		m_ProjectUseItem = NULL;

  0042b	89 5d 14	 mov	 DWORD PTR [ebp+20], ebx
$L86153:

; 138  : 	}
; 139  : 	
; 140  : }

  0042e	8d 4c 24 18	 lea	 ecx, DWORD PTR _ImmProject$[esp+332]
  00432	c7 84 24 48 01
	00 00 ff ff ff
	ff		 mov	 DWORD PTR __$EHRec$[esp+340], -1
  0043d	ff 15 00 00 00
	00		 call	 DWORD PTR __imp_??1CImmProject@@QAE@XZ
  00443	5f		 pop	 edi
  00444	5e		 pop	 esi
$L83958:
  00445	8b 8c 24 38 01
	00 00		 mov	 ecx, DWORD PTR __$EHRec$[esp+324]
  0044c	5d		 pop	 ebp
  0044d	64 89 0d 00 00
	00 00		 mov	 DWORD PTR fs:__except_list, ecx
  00454	8b 8c 24 30 01
	00 00		 mov	 ecx, DWORD PTR __$ArrayPad$[esp+320]
  0045b	5b		 pop	 ebx
  0045c	e8 00 00 00 00	 call	 @__security_check_cookie@4
  00461	81 c4 3c 01 00
	00		 add	 esp, 316		; 0000013cH
  00467	c3		 ret	 0
_TEXT	ENDS
;	COMDAT text$x
text$x	SEGMENT
$L86002:
  00000	8d 8d cc fe ff
	ff		 lea	 ecx, DWORD PTR _ImmProject$[ebp]
  00006	ff 25 00 00 00
	00		 jmp	 DWORD PTR __imp_??1CImmProject@@QAE@XZ
$L86003:
  0000c	8b 85 c4 fe ff
	ff		 mov	 eax, DWORD PTR $T85939[ebp]
  00012	50		 push	 eax
  00013	e8 00 00 00 00	 call	 ??3@YAXPAX@Z		; operator delete
  00018	59		 pop	 ecx
  00019	c3		 ret	 0
$L86004:
  0001a	8b 85 c4 fe ff
	ff		 mov	 eax, DWORD PTR $T85947[ebp]
  00020	50		 push	 eax
  00021	e8 00 00 00 00	 call	 ??3@YAXPAX@Z		; operator delete
  00026	59		 pop	 ecx
  00027	c3		 ret	 0
$L86005:
  00028	8b 85 c4 fe ff
	ff		 mov	 eax, DWORD PTR $T85955[ebp]
  0002e	50		 push	 eax
  0002f	e8 00 00 00 00	 call	 ??3@YAXPAX@Z		; operator delete
  00034	59		 pop	 ecx
  00035	c3		 ret	 0
$L86006:
  00036	8b 85 c4 fe ff
	ff		 mov	 eax, DWORD PTR $T85963[ebp]
  0003c	50		 push	 eax
  0003d	e8 00 00 00 00	 call	 ??3@YAXPAX@Z		; operator delete
  00042	59		 pop	 ecx
  00043	c3		 ret	 0
$L86007:
  00044	8b 85 c4 fe ff
	ff		 mov	 eax, DWORD PTR $T85971[ebp]
  0004a	50		 push	 eax
  0004b	e8 00 00 00 00	 call	 ??3@YAXPAX@Z		; operator delete
  00050	59		 pop	 ecx
  00051	c3		 ret	 0
$L86008:
  00052	8b 85 c4 fe ff
	ff		 mov	 eax, DWORD PTR $T85979[ebp]
  00058	50		 push	 eax
  00059	e8 00 00 00 00	 call	 ??3@YAXPAX@Z		; operator delete
  0005e	59		 pop	 ecx
  0005f	c3		 ret	 0
$L86009:
  00060	8b 85 c4 fe ff
	ff		 mov	 eax, DWORD PTR $T85987[ebp]
  00066	50		 push	 eax
  00067	e8 00 00 00 00	 call	 ??3@YAXPAX@Z		; operator delete
  0006c	59		 pop	 ecx
  0006d	c3		 ret	 0
$L86010:
  0006e	8b 85 c4 fe ff
	ff		 mov	 eax, DWORD PTR $T85995[ebp]
  00074	50		 push	 eax
  00075	e8 00 00 00 00	 call	 ??3@YAXPAX@Z		; operator delete
  0007a	59		 pop	 ecx
  0007b	c3		 ret	 0
__ehhandler$?Enable@CImm@@QAEXXZ:
  0007c	b8 00 00 00 00	 mov	 eax, OFFSET FLAT:$T86151
  00081	e9 00 00 00 00	 jmp	 ___CxxFrameHandler
text$x	ENDS
?Enable@CImm@@QAEXXZ ENDP				; CImm::Enable
EXTRN	__imp_??1CImmPeriodic@@UAE@XZ:NEAR
; Function compile flags: /Ogty
;	COMDAT ??_GCImmPeriodic@@UAEPAXI@Z
_TEXT	SEGMENT
___flags$ = 8						; size = 4
??_GCImmPeriodic@@UAEPAXI@Z PROC NEAR			; CImmPeriodic::`scalar deleting destructor', COMDAT
; _this$ = ecx
  00000	56		 push	 esi
  00001	8b f1		 mov	 esi, ecx
  00003	ff 15 00 00 00
	00		 call	 DWORD PTR __imp_??1CImmPeriodic@@UAE@XZ
  00009	f6 44 24 08 01	 test	 BYTE PTR ___flags$[esp], 1
  0000e	74 09		 je	 SHORT $L86164
  00010	56		 push	 esi
  00011	e8 00 00 00 00	 call	 ??3@YAXPAX@Z		; operator delete
  00016	83 c4 04	 add	 esp, 4
$L86164:
  00019	8b c6		 mov	 eax, esi
  0001b	5e		 pop	 esi
  0001c	c2 04 00	 ret	 4
??_GCImmPeriodic@@UAEPAXI@Z ENDP			; CImmPeriodic::`scalar deleting destructor'
_TEXT	ENDS
END
