; Listing generated by Microsoft (R) Optimizing Compiler Version 13.10.3077 

	TITLE	\darkeden\Designed_Common\Project\New - vs_ui\src\widget\pi_core.cpp
	.386P
include listing.inc
if @Version gt 510
.model FLAT
else
_TEXT	SEGMENT PARA USE32 PUBLIC 'CODE'
_TEXT	ENDS
_DATA	SEGMENT DWORD USE32 PUBLIC 'DATA'
_DATA	ENDS
CONST	SEGMENT DWORD USE32 PUBLIC 'CONST'
CONST	ENDS
_BSS	SEGMENT DWORD USE32 PUBLIC 'BSS'
_BSS	ENDS
$$SYMBOLS	SEGMENT BYTE USE32 'DEBSYM'
$$SYMBOLS	ENDS
$$TYPES	SEGMENT BYTE USE32 'DEBTYP'
$$TYPES	ENDS
_TLS	SEGMENT DWORD USE32 PUBLIC 'TLS'
_TLS	ENDS
;	COMDAT ??_C@_0EM@OGKKDBGH@c?3?2darkeden?2designed_common?2proj@
CONST	SEGMENT DWORD USE32 PUBLIC 'CONST'
CONST	ENDS
rdata$r	SEGMENT DWORD USE32 PUBLIC 'CONST'
rdata$r	ENDS
text$yc	SEGMENT PARA USE32 PUBLIC 'CODE'
text$yc	ENDS
CRT$XCA	SEGMENT DWORD USE32 PUBLIC 'DATA'
CRT$XCA	ENDS
CRT$XCU	SEGMENT DWORD USE32 PUBLIC 'DATA'
CRT$XCU	ENDS
CRT$XCL	SEGMENT DWORD USE32 PUBLIC 'DATA'
CRT$XCL	ENDS
CRT$XCC	SEGMENT DWORD USE32 PUBLIC 'DATA'
CRT$XCC	ENDS
CRT$XCZ	SEGMENT DWORD USE32 PUBLIC 'DATA'
CRT$XCZ	ENDS
text$yd	SEGMENT PARA USE32 PUBLIC 'CODE'
text$yd	ENDS
;	COMDAT ?Start@PI_Processor@@UAEXXZ
_TEXT	SEGMENT PARA USE32 PUBLIC 'CODE'
_TEXT	ENDS
;	COMDAT ?Finish@PI_Processor@@UAEXXZ
_TEXT	SEGMENT PARA USE32 PUBLIC 'CODE'
_TEXT	ENDS
;	COMDAT ?Process@PI_Processor@@UAEXXZ
_TEXT	SEGMENT PARA USE32 PUBLIC 'CODE'
_TEXT	ENDS
;	COMDAT ?Running@PI_Processor@@QBE_NXZ
_TEXT	SEGMENT PARA USE32 PUBLIC 'CODE'
_TEXT	ENDS
;	COMDAT ?Process@PI_ProcessRunner@@QAEXXZ
_TEXT	SEGMENT PARA USE32 PUBLIC 'CODE'
_TEXT	ENDS
;	COMDAT ??0PI_Processor@@QAE@XZ
_TEXT	SEGMENT PARA USE32 PUBLIC 'CODE'
_TEXT	ENDS
;	COMDAT ??1PI_Processor@@QAE@XZ
_TEXT	SEGMENT PARA USE32 PUBLIC 'CODE'
_TEXT	ENDS
;	COMDAT ?eq@?$__char_traits_base@DH@_STL@@SA_NABD0@Z
_TEXT	SEGMENT PARA USE32 PUBLIC 'CODE'
_TEXT	ENDS
;	COMDAT ?not_eof@?$__char_traits_base@DH@_STL@@SAHABH@Z
_TEXT	SEGMENT PARA USE32 PUBLIC 'CODE'
_TEXT	ENDS
;	COMDAT ?eq_int_type@?$__char_traits_base@DH@_STL@@SA_NABH0@Z
_TEXT	SEGMENT PARA USE32 PUBLIC 'CODE'
_TEXT	ENDS
;	COMDAT ??0?$fpos@H@_STL@@QAE@J@Z
_TEXT	SEGMENT PARA USE32 PUBLIC 'CODE'
_TEXT	ENDS
;	COMDAT ??B?$fpos@H@_STL@@QBEJXZ
_TEXT	SEGMENT PARA USE32 PUBLIC 'CODE'
_TEXT	ENDS
;	COMDAT ?state@?$fpos@H@_STL@@QBEHXZ
_TEXT	SEGMENT PARA USE32 PUBLIC 'CODE'
_TEXT	ENDS
;	COMDAT ?is_open@?$basic_filebuf@DV?$char_traits@D@_STL@@@_STL@@QBE_NXZ
_TEXT	SEGMENT PARA USE32 PUBLIC 'CODE'
_TEXT	ENDS
;	COMDAT ?_M_seek_return@?$basic_filebuf@DV?$char_traits@D@_STL@@@_STL@@AAE?AV?$fpos@H@2@JH@Z
_TEXT	SEGMENT PARA USE32 PUBLIC 'CODE'
_TEXT	ENDS
;	COMDAT ??0?$_Filebuf_Tmp_Buf@D@_STL@@QAE@H@Z
_TEXT	SEGMENT PARA USE32 PUBLIC 'CODE'
_TEXT	ENDS
;	COMDAT ??1?$_Filebuf_Tmp_Buf@D@_STL@@QAE@XZ
_TEXT	SEGMENT PARA USE32 PUBLIC 'CODE'
_TEXT	ENDS
;	COMDAT ?Size@?$SimpleDataList@PAVPI_Processor@@@@QBEHXZ
_TEXT	SEGMENT PARA USE32 PUBLIC 'CODE'
_TEXT	ENDS
;	COMDAT ?state@?$fpos@H@_STL@@QAEXH@Z
_TEXT	SEGMENT PARA USE32 PUBLIC 'CODE'
_TEXT	ENDS
;	COMDAT ?close@?$basic_filebuf@DV?$char_traits@D@_STL@@@_STL@@QAEPAV12@XZ
_TEXT	SEGMENT PARA USE32 PUBLIC 'CODE'
_TEXT	ENDS
;	COMDAT ?_M_exit_input_mode@?$basic_filebuf@DV?$char_traits@D@_STL@@@_STL@@AAEXXZ
_TEXT	SEGMENT PARA USE32 PUBLIC 'CODE'
_TEXT	ENDS
;	COMDAT ?_M_switch_to_output_mode@?$basic_filebuf@DV?$char_traits@D@_STL@@@_STL@@AAE_NXZ
_TEXT	SEGMENT PARA USE32 PUBLIC 'CODE'
_TEXT	ENDS
;	COMDAT ?_M_output_error@?$basic_filebuf@DV?$char_traits@D@_STL@@@_STL@@AAEHXZ
_TEXT	SEGMENT PARA USE32 PUBLIC 'CODE'
_TEXT	ENDS
;	COMDAT ?_M_allocate_buffers@?$basic_filebuf@DV?$char_traits@D@_STL@@@_STL@@AAE_NPADH@Z
_TEXT	SEGMENT PARA USE32 PUBLIC 'CODE'
_TEXT	ENDS
;	COMDAT ?_M_deallocate_buffers@?$basic_filebuf@DV?$char_traits@D@_STL@@@_STL@@AAEXXZ
_TEXT	SEGMENT PARA USE32 PUBLIC 'CODE'
_TEXT	ENDS
;	COMDAT ?_M_seek_init@?$basic_filebuf@DV?$char_traits@D@_STL@@@_STL@@AAE_N_N@Z
_TEXT	SEGMENT PARA USE32 PUBLIC 'CODE'
_TEXT	ENDS
;	COMDAT ?_M_setup_codecvt@?$basic_filebuf@DV?$char_traits@D@_STL@@@_STL@@AAEXABVlocale@2@@Z
_TEXT	SEGMENT PARA USE32 PUBLIC 'CODE'
_TEXT	ENDS
;	COMDAT ??$equal@PADPADU?$_Eq_traits@V?$char_traits@D@_STL@@@_STL@@@_STL@@YA_NPAD00U?$_Eq_traits@V?$char_traits@D@_STL@@@0@@Z
_TEXT	SEGMENT PARA USE32 PUBLIC 'CODE'
_TEXT	ENDS
;	COMDAT ??1?$SimpleDataList@PAVPI_Processor@@@@UAE@XZ
_TEXT	SEGMENT PARA USE32 PUBLIC 'CODE'
_TEXT	ENDS
;	COMDAT ?Add@?$SimpleDataList@PAVPI_Processor@@@@QAE_NPAVPI_Processor@@@Z
_TEXT	SEGMENT PARA USE32 PUBLIC 'CODE'
_TEXT	ENDS
;	COMDAT ?Delete@?$SimpleDataList@PAVPI_Processor@@@@QAE_NPAVPI_Processor@@@Z
_TEXT	SEGMENT PARA USE32 PUBLIC 'CODE'
_TEXT	ENDS
;	COMDAT ?Data@?$SimpleDataList@PAVPI_Processor@@@@QBE_NHAAPAVPI_Processor@@@Z
_TEXT	SEGMENT PARA USE32 PUBLIC 'CODE'
_TEXT	ENDS
;	COMDAT ??_G?$SimpleDataList@PAVPI_Processor@@@@UAEPAXI@Z
_TEXT	SEGMENT PARA USE32 PUBLIC 'CODE'
_TEXT	ENDS
;	COMDAT ?_M_exit_putback_mode@?$basic_filebuf@DV?$char_traits@D@_STL@@@_STL@@AAEXXZ
_TEXT	SEGMENT PARA USE32 PUBLIC 'CODE'
_TEXT	ENDS
;	COMDAT ??R?$_Eq_traits@V?$char_traits@D@_STL@@@_STL@@QBE_NABD0@Z
_TEXT	SEGMENT PARA USE32 PUBLIC 'CODE'
_TEXT	ENDS
;	COMDAT ?_M_unshift@?$basic_filebuf@DV?$char_traits@D@_STL@@@_STL@@AAE_NXZ
_TEXT	SEGMENT PARA USE32 PUBLIC 'CODE'
_TEXT	ENDS
;	COMDAT ?_M_allocate_buffers@?$basic_filebuf@DV?$char_traits@D@_STL@@@_STL@@AAE_NXZ
_TEXT	SEGMENT PARA USE32 PUBLIC 'CODE'
_TEXT	ENDS
;	COMDAT ??$max@H@_STL@@YAABHABH0@Z
_TEXT	SEGMENT PARA USE32 PUBLIC 'CODE'
_TEXT	ENDS
;	COMDAT ??$use_facet@V?$codecvt@DDH@_STL@@@_STL@@YAABV?$codecvt@DDH@0@ABVlocale@0@@Z
_TEXT	SEGMENT PARA USE32 PUBLIC 'CODE'
_TEXT	ENDS
;	COMDAT ?Find@?$SimpleDataList@PAVPI_Processor@@@@QBE_NPAVPI_Processor@@@Z
_TEXT	SEGMENT PARA USE32 PUBLIC 'CODE'
_TEXT	ENDS
;	COMDAT ??_R3?$SimpleDataList@PAVPI_Processor@@@@8
rdata$r	SEGMENT DWORD USE32 PUBLIC 'CONST'
rdata$r	ENDS
;	COMDAT ??_R3PI_Processor@@8
rdata$r	SEGMENT DWORD USE32 PUBLIC 'CONST'
rdata$r	ENDS
;	COMDAT ??_R2?$SimpleDataList@PAVPI_Processor@@@@8
rdata$r	SEGMENT DWORD USE32 PUBLIC 'CONST'
rdata$r	ENDS
;	COMDAT ??_R2PI_Processor@@8
rdata$r	SEGMENT DWORD USE32 PUBLIC 'CONST'
rdata$r	ENDS
;	COMDAT ??_R1A@?0A@A@?$SimpleDataList@PAVPI_Processor@@@@8
rdata$r	SEGMENT DWORD USE32 PUBLIC 'CONST'
rdata$r	ENDS
;	COMDAT ??_R1A@?0A@A@PI_Processor@@8
rdata$r	SEGMENT DWORD USE32 PUBLIC 'CONST'
rdata$r	ENDS
;	COMDAT ??_R0?AV?$SimpleDataList@PAVPI_Processor@@@@@8
_DATA	SEGMENT DWORD USE32 PUBLIC 'DATA'
_DATA	ENDS
;	COMDAT ??_R0?AVPI_Processor@@@8
_DATA	SEGMENT DWORD USE32 PUBLIC 'DATA'
_DATA	ENDS
;	COMDAT ??_R4?$SimpleDataList@PAVPI_Processor@@@@6B@
rdata$r	SEGMENT DWORD USE32 PUBLIC 'CONST'
rdata$r	ENDS
;	COMDAT ??_R4PI_Processor@@6B@
rdata$r	SEGMENT DWORD USE32 PUBLIC 'CONST'
rdata$r	ENDS
;	COMDAT ?__page_size@_Filebuf_base@_STL@@SAIXZ
_TEXT	SEGMENT PARA USE32 PUBLIC 'CODE'
_TEXT	ENDS
;	COMDAT ?_M_write@?$basic_filebuf@DV?$char_traits@D@_STL@@@_STL@@QAE_NPADH@Z
_TEXT	SEGMENT PARA USE32 PUBLIC 'CODE'
_TEXT	ENDS
;	COMDAT ?unshift@?$codecvt@DDH@_STL@@QBE?AW4result@codecvt_base@2@AAHPAD1AAPAD@Z
_TEXT	SEGMENT PARA USE32 PUBLIC 'CODE'
_TEXT	ENDS
;	COMDAT ??_7?$SimpleDataList@PAVPI_Processor@@@@6B@
CONST	SEGMENT DWORD USE32 PUBLIC 'CONST'
CONST	ENDS
;	COMDAT ?always_noconv@?$codecvt@DDH@_STL@@QBE_NXZ
_TEXT	SEGMENT PARA USE32 PUBLIC 'CODE'
_TEXT	ENDS
;	COMDAT ?encoding@?$codecvt@DDH@_STL@@QBEHXZ
_TEXT	SEGMENT PARA USE32 PUBLIC 'CODE'
_TEXT	ENDS
;	COMDAT ?max_length@?$codecvt@DDH@_STL@@QBEHXZ
_TEXT	SEGMENT PARA USE32 PUBLIC 'CODE'
_TEXT	ENDS
;	COMDAT ?__o_mode@_Filebuf_base@_STL@@QBEHXZ
_TEXT	SEGMENT PARA USE32 PUBLIC 'CODE'
_TEXT	ENDS
;	COMDAT ?setp@?$basic_streambuf@DV?$char_traits@D@_STL@@@_STL@@IAEXPAD0@Z
_TEXT	SEGMENT PARA USE32 PUBLIC 'CODE'
_TEXT	ENDS
;	COMDAT ?_FILE_O_set@_STL@@YAXPAU_iobuf@@PAD11@Z
_TEXT	SEGMENT PARA USE32 PUBLIC 'CODE'
_TEXT	ENDS
;	COMDAT ?_FILE_I_set@_STL@@YAXPAU_iobuf@@PAD11@Z
_TEXT	SEGMENT PARA USE32 PUBLIC 'CODE'
_TEXT	ENDS
;	COMDAT ?setg@?$basic_streambuf@DV?$char_traits@D@_STL@@@_STL@@IAEXPAD00@Z
_TEXT	SEGMENT PARA USE32 PUBLIC 'CODE'
_TEXT	ENDS
;	COMDAT ?__is_open@_Filebuf_base@_STL@@QBE_NXZ
_TEXT	SEGMENT PARA USE32 PUBLIC 'CODE'
_TEXT	ENDS
;	COMDAT ?eof@?$__char_traits_base@DH@_STL@@SAHXZ
_TEXT	SEGMENT PARA USE32 PUBLIC 'CODE'
_TEXT	ENDS
;	COMDAT ??_7PI_Processor@@6B@
CONST	SEGMENT DWORD USE32 PUBLIC 'CONST'
CONST	ENDS
sxdata	SEGMENT DWORD USE32 'SXDATA'
sxdata	ENDS
FLAT	GROUP _DATA, CONST, _BSS
	ASSUME	CS: FLAT, DS: FLAT, SS: FLAT
endif

INCLUDELIB LIBCMT
INCLUDELIB OLDNAMES

PUBLIC	?gpC_process_runner@@3PAVPI_ProcessRunner@@A	; gpC_process_runner
_BSS	SEGMENT
?gpC_process_runner@@3PAVPI_ProcessRunner@@A DD 01H DUP (?) ; gpC_process_runner
_BSS	ENDS
PUBLIC	?Running@PI_Processor@@QBE_NXZ			; PI_Processor::Running
; Function compile flags: /Ogty
; File c:\darkeden\designed_common\project\new - vs_ui\src\widget\pi_core.h
;	COMDAT ?Running@PI_Processor@@QBE_NXZ
_TEXT	SEGMENT
?Running@PI_Processor@@QBE_NXZ PROC NEAR		; PI_Processor::Running, COMDAT
; _this$ = ecx

; 53   : 	bool	Running() const { return m_bl_running; }

  00000	8a 41 04	 mov	 al, BYTE PTR [ecx+4]
  00003	c3		 ret	 0
?Running@PI_Processor@@QBE_NXZ ENDP			; PI_Processor::Running
_TEXT	ENDS
PUBLIC	?Size@?$SimpleDataList@PAVPI_Processor@@@@QBEHXZ ; SimpleDataList<PI_Processor *>::Size
; Function compile flags: /Ogty
; File c:\darkeden\designed_common\project\new - vs_ui\src\widget\simpledatalist.h
;	COMDAT ?Size@?$SimpleDataList@PAVPI_Processor@@@@QBEHXZ
_TEXT	SEGMENT
?Size@?$SimpleDataList@PAVPI_Processor@@@@QBEHXZ PROC NEAR ; SimpleDataList<PI_Processor *>::Size, COMDAT
; _this$ = ecx

; 37   : 	int	Size() const { return m_size; }

  00000	8b 41 08	 mov	 eax, DWORD PTR [ecx+8]
  00003	c3		 ret	 0
?Size@?$SimpleDataList@PAVPI_Processor@@@@QBEHXZ ENDP	; SimpleDataList<PI_Processor *>::Size
_TEXT	ENDS
PUBLIC	?Delete@?$SimpleDataList@PAVPI_Processor@@@@QAE_NPAVPI_Processor@@@Z ; SimpleDataList<PI_Processor *>::Delete
PUBLIC	??_C@_0EM@OGKKDBGH@c?3?2darkeden?2designed_common?2proj@ ; `string'
EXTRN	??_V@YAXPAX@Z:NEAR				; operator delete[]
EXTRN	??_U@YAPAXI@Z:NEAR				; operator new[]
EXTRN	?g_BasicException@@YAXW4EXCEPTION_CODE@@PAD1K@Z:NEAR ; g_BasicException
;	COMDAT ??_C@_0EM@OGKKDBGH@c?3?2darkeden?2designed_common?2proj@
CONST	SEGMENT
??_C@_0EM@OGKKDBGH@c?3?2darkeden?2designed_common?2proj@ DB 'c:\darkeden\'
	DB	'designed_common\project\new - vs_ui\src\widget\SimpleDataList'
	DB	'.h', 00H					; `string'
; Function compile flags: /Ogty
CONST	ENDS
;	COMDAT ?Delete@?$SimpleDataList@PAVPI_Processor@@@@QAE_NPAVPI_Processor@@@Z
_TEXT	SEGMENT
_data$ = 8						; size = 4
?Delete@?$SimpleDataList@PAVPI_Processor@@@@QAE_NPAVPI_Processor@@@Z PROC NEAR ; SimpleDataList<PI_Processor *>::Delete, COMDAT
; _this$ = ecx

; 145  : {

  00000	53		 push	 ebx
  00001	56		 push	 esi
  00002	8b f1		 mov	 esi, ecx

; 146  : 	for (int i=0; i < m_size; i++) // find

  00004	8b 4e 08	 mov	 ecx, DWORD PTR [esi+8]
  00007	57		 push	 edi
  00008	33 ff		 xor	 edi, edi
  0000a	85 c9		 test	 ecx, ecx
  0000c	7e 16		 jle	 SHORT $L74332
  0000e	8b 46 04	 mov	 eax, DWORD PTR [esi+4]
  00011	8b 54 24 10	 mov	 edx, DWORD PTR _data$[esp+8]
$L74330:

; 147  : 	{
; 148  : 		if (m_p_buf[i] == data)

  00015	39 10		 cmp	 DWORD PTR [eax], edx
  00017	74 13		 je	 SHORT $L74496
  00019	8b 5e 08	 mov	 ebx, DWORD PTR [esi+8]
  0001c	47		 inc	 edi
  0001d	83 c0 04	 add	 eax, 4
  00020	3b fb		 cmp	 edi, ebx
  00022	7c f1		 jl	 SHORT $L74330
$L74332:
  00024	5f		 pop	 edi
  00025	5e		 pop	 esi

; 171  : 		}
; 172  : 	}
; 173  : 
; 174  : 	return false;

  00026	32 c0		 xor	 al, al
  00028	5b		 pop	 ebx

; 175  : }

  00029	c2 04 00	 ret	 4
$L74496:

; 149  : 		{
; 150  : 			Ta *		p_temp = NULL;
; 151  : 			int		new_size = m_size-1;

  0002c	8d 41 ff	 lea	 eax, DWORD PTR [ecx-1]
  0002f	33 db		 xor	 ebx, ebx

; 152  : 
; 153  : 			if (new_size > 0)

  00031	85 c0		 test	 eax, eax
  00033	7e 49		 jle	 SHORT $L74344

; 154  : 			{
; 155  : 				p_temp = new Ta[new_size];

  00035	c1 e0 02	 shl	 eax, 2
  00038	50		 push	 eax
  00039	e8 00 00 00 00	 call	 ??_U@YAPAXI@Z		; operator new[]
  0003e	8b d8		 mov	 ebx, eax
  00040	83 c4 04	 add	 esp, 4

; 156  : 				CheckMemAlloc(p_temp);

  00043	85 db		 test	 ebx, ebx
  00045	75 15		 jne	 SHORT $L74339
  00047	68 9c 00 00 00	 push	 156			; 0000009cH
  0004c	68 00 00 00 00	 push	 OFFSET FLAT:??_C@_0EM@OGKKDBGH@c?3?2darkeden?2designed_common?2proj@
  00051	50		 push	 eax
  00052	6a 01		 push	 1
  00054	e8 00 00 00 00	 call	 ?g_BasicException@@YAXW4EXCEPTION_CODE@@PAD1K@Z ; g_BasicException
  00059	83 c4 10	 add	 esp, 16			; 00000010H
$L74339:

; 157  : 
; 158  : 				for (int m=0, t=0; m < m_size; m++)

  0005c	8b 4e 08	 mov	 ecx, DWORD PTR [esi+8]
  0005f	33 c0		 xor	 eax, eax
  00061	85 c9		 test	 ecx, ecx
  00063	7e 19		 jle	 SHORT $L74344
  00065	8b cb		 mov	 ecx, ebx
$L74342:

; 159  : 					if (m != i)

  00067	3b c7		 cmp	 eax, edi
  00069	74 0b		 je	 SHORT $L74343

; 160  : 					{
; 161  : 						p_temp[t] = m_p_buf[m];

  0006b	8b 56 04	 mov	 edx, DWORD PTR [esi+4]
  0006e	8b 14 82	 mov	 edx, DWORD PTR [edx+eax*4]
  00071	89 11		 mov	 DWORD PTR [ecx], edx

; 162  : 						t++;

  00073	83 c1 04	 add	 ecx, 4
$L74343:
  00076	8b 56 08	 mov	 edx, DWORD PTR [esi+8]
  00079	40		 inc	 eax
  0007a	3b c2		 cmp	 eax, edx
  0007c	7c e9		 jl	 SHORT $L74342
$L74344:

; 163  : 					}
; 164  : 			}
; 165  : 
; 166  : 			DeleteNewArray(m_p_buf);

  0007e	8b 46 04	 mov	 eax, DWORD PTR [esi+4]
  00081	85 c0		 test	 eax, eax
  00083	74 10		 je	 SHORT $L74346
  00085	50		 push	 eax
  00086	e8 00 00 00 00	 call	 ??_V@YAXPAX@Z		; operator delete[]
  0008b	83 c4 04	 add	 esp, 4
  0008e	c7 46 04 00 00
	00 00		 mov	 DWORD PTR [esi+4], 0
$L74346:

; 167  : 			m_size--;

  00095	8b 46 08	 mov	 eax, DWORD PTR [esi+8]
  00098	48		 dec	 eax
  00099	5f		 pop	 edi
  0009a	89 46 08	 mov	 DWORD PTR [esi+8], eax

; 168  : 			m_p_buf = p_temp;

  0009d	89 5e 04	 mov	 DWORD PTR [esi+4], ebx
  000a0	5e		 pop	 esi

; 169  : 
; 170  : 			return true;

  000a1	b0 01		 mov	 al, 1
  000a3	5b		 pop	 ebx

; 175  : }

  000a4	c2 04 00	 ret	 4
?Delete@?$SimpleDataList@PAVPI_Processor@@@@QAE_NPAVPI_Processor@@@Z ENDP ; SimpleDataList<PI_Processor *>::Delete
_TEXT	ENDS
PUBLIC	?Data@?$SimpleDataList@PAVPI_Processor@@@@QBE_NHAAPAVPI_Processor@@@Z ; SimpleDataList<PI_Processor *>::Data
; Function compile flags: /Ogty
;	COMDAT ?Data@?$SimpleDataList@PAVPI_Processor@@@@QBE_NHAAPAVPI_Processor@@@Z
_TEXT	SEGMENT
_index$ = 8						; size = 4
_data$ = 12						; size = 4
?Data@?$SimpleDataList@PAVPI_Processor@@@@QBE_NHAAPAVPI_Processor@@@Z PROC NEAR ; SimpleDataList<PI_Processor *>::Data, COMDAT
; _this$ = ecx

; 89   : 	if (index < 0 || index >= m_size)

  00000	8b 44 24 04	 mov	 eax, DWORD PTR _index$[esp-4]
  00004	85 c0		 test	 eax, eax
  00006	7c 16		 jl	 SHORT $L74355
  00008	3b 41 08	 cmp	 eax, DWORD PTR [ecx+8]
  0000b	7d 11		 jge	 SHORT $L74355

; 91   : 
; 92   : 	data = m_p_buf[index];

  0000d	8b 49 04	 mov	 ecx, DWORD PTR [ecx+4]
  00010	8b 14 81	 mov	 edx, DWORD PTR [ecx+eax*4]
  00013	8b 44 24 08	 mov	 eax, DWORD PTR _data$[esp-4]
  00017	89 10		 mov	 DWORD PTR [eax], edx

; 93   : 
; 94   : 	return true;

  00019	b0 01		 mov	 al, 1

; 95   : }

  0001b	c2 08 00	 ret	 8
$L74355:

; 90   : 		return false;

  0001e	32 c0		 xor	 al, al

; 95   : }

  00020	c2 08 00	 ret	 8
?Data@?$SimpleDataList@PAVPI_Processor@@@@QBE_NHAAPAVPI_Processor@@@Z ENDP ; SimpleDataList<PI_Processor *>::Data
_TEXT	ENDS
PUBLIC	?Find@?$SimpleDataList@PAVPI_Processor@@@@QBE_NPAVPI_Processor@@@Z ; SimpleDataList<PI_Processor *>::Find
; Function compile flags: /Ogty
;	COMDAT ?Find@?$SimpleDataList@PAVPI_Processor@@@@QBE_NPAVPI_Processor@@@Z
_TEXT	SEGMENT
_data$ = 8						; size = 4
?Find@?$SimpleDataList@PAVPI_Processor@@@@QBE_NPAVPI_Processor@@@Z PROC NEAR ; SimpleDataList<PI_Processor *>::Find, COMDAT
; _this$ = ecx

; 77   : 
; 78   : 	return false;

  00000	8b 51 08	 mov	 edx, DWORD PTR [ecx+8]
  00003	56		 push	 esi
  00004	33 c0		 xor	 eax, eax
  00006	85 d2		 test	 edx, edx
  00008	7e 13		 jle	 SHORT $L74400
  0000a	8b 49 04	 mov	 ecx, DWORD PTR [ecx+4]
  0000d	8b 74 24 08	 mov	 esi, DWORD PTR _data$[esp]
$L74398:
  00011	39 31		 cmp	 DWORD PTR [ecx], esi
  00013	74 0e		 je	 SHORT $L74506
  00015	40		 inc	 eax
  00016	83 c1 04	 add	 ecx, 4
  00019	3b c2		 cmp	 eax, edx
  0001b	7c f4		 jl	 SHORT $L74398
$L74400:
  0001d	32 c0		 xor	 al, al
  0001f	5e		 pop	 esi

; 79   : }

  00020	c2 04 00	 ret	 4
$L74506:

; 74   : 	for (int i=0; i < m_size; i++)
; 75   : 		if (m_p_buf[i] == data)
; 76   : 			return true;

  00023	b0 01		 mov	 al, 1
  00025	5e		 pop	 esi

; 79   : }

  00026	c2 04 00	 ret	 4
?Find@?$SimpleDataList@PAVPI_Processor@@@@QBE_NPAVPI_Processor@@@Z ENDP ; SimpleDataList<PI_Processor *>::Find
_TEXT	ENDS
PUBLIC	?Process@PI_ProcessRunner@@QAEXXZ		; PI_ProcessRunner::Process
; Function compile flags: /Ogty
; File c:\darkeden\designed_common\project\new - vs_ui\src\widget\pi_core.cpp
;	COMDAT ?Process@PI_ProcessRunner@@QAEXXZ
_TEXT	SEGMENT
?Process@PI_ProcessRunner@@QAEXXZ PROC NEAR		; PI_ProcessRunner::Process, COMDAT
; _this$ = ecx

; 16   : {

  00000	56		 push	 esi
  00001	57		 push	 edi
  00002	8b f9		 mov	 edi, ecx

; 17   : 	PI_Processor * data;
; 18   : 	for (int i=0; i < Size(); i++)

  00004	8b 47 08	 mov	 eax, DWORD PTR [edi+8]
  00007	33 f6		 xor	 esi, esi
  00009	85 c0		 test	 eax, eax
  0000b	7e 25		 jle	 SHORT $L74158
  0000d	8d 49 00	 npad	 3
$L74156:

; 19   : 		if (Data(i, data))

  00010	85 f6		 test	 esi, esi
  00012	7c 16		 jl	 SHORT $L74157
  00014	3b f0		 cmp	 esi, eax
  00016	7d 12		 jge	 SHORT $L74157
  00018	8b 47 04	 mov	 eax, DWORD PTR [edi+4]
  0001b	8b 0c b0	 mov	 ecx, DWORD PTR [eax+esi*4]

; 20   : 			if (data->Running())

  0001e	8a 41 04	 mov	 al, BYTE PTR [ecx+4]
  00021	84 c0		 test	 al, al
  00023	74 05		 je	 SHORT $L74157

; 21   : 				data->Process();

  00025	8b 11		 mov	 edx, DWORD PTR [ecx]
  00027	ff 52 08	 call	 DWORD PTR [edx+8]
$L74157:
  0002a	8b 47 08	 mov	 eax, DWORD PTR [edi+8]
  0002d	46		 inc	 esi
  0002e	3b f0		 cmp	 esi, eax
  00030	7c de		 jl	 SHORT $L74156
$L74158:
  00032	5f		 pop	 edi
  00033	5e		 pop	 esi

; 22   : }

  00034	c3		 ret	 0
?Process@PI_ProcessRunner@@QAEXXZ ENDP			; PI_ProcessRunner::Process
_TEXT	ENDS
PUBLIC	?Start@PI_Processor@@UAEXXZ			; PI_Processor::Start
PUBLIC	?Finish@PI_Processor@@UAEXXZ			; PI_Processor::Finish
PUBLIC	?Process@PI_Processor@@UAEXXZ			; PI_Processor::Process
PUBLIC	??1PI_Processor@@QAE@XZ				; PI_Processor::~PI_Processor
PUBLIC	??_7PI_Processor@@6B@				; PI_Processor::`vftable'
PUBLIC	??_R4PI_Processor@@6B@				; PI_Processor::`RTTI Complete Object Locator'
PUBLIC	??_R0?AVPI_Processor@@@8			; PI_Processor `RTTI Type Descriptor'
PUBLIC	??_R3PI_Processor@@8				; PI_Processor::`RTTI Class Hierarchy Descriptor'
PUBLIC	??_R2PI_Processor@@8				; PI_Processor::`RTTI Base Class Array'
PUBLIC	??_R1A@?0A@A@PI_Processor@@8			; PI_Processor::`RTTI Base Class Descriptor at (0,-1,0,0)'
EXTRN	??_7type_info@@6B@:QWORD			; type_info::`vftable'
;	COMDAT ??_7PI_Processor@@6B@
CONST	SEGMENT
??_7PI_Processor@@6B@ DD FLAT:??_R4PI_Processor@@6B@	; PI_Processor::`vftable'
	DD	FLAT:?Start@PI_Processor@@UAEXXZ
	DD	FLAT:?Finish@PI_Processor@@UAEXXZ
	DD	FLAT:?Process@PI_Processor@@UAEXXZ
CONST	ENDS
;	COMDAT ??_R4PI_Processor@@6B@
rdata$r	SEGMENT
??_R4PI_Processor@@6B@ DD 00H				; PI_Processor::`RTTI Complete Object Locator'
	DD	00H
	DD	00H
	DD	FLAT:??_R0?AVPI_Processor@@@8
	DD	FLAT:??_R3PI_Processor@@8
rdata$r	ENDS
;	COMDAT ??_R0?AVPI_Processor@@@8
_DATA	SEGMENT
??_R0?AVPI_Processor@@@8 DD FLAT:??_7type_info@@6B@	; PI_Processor `RTTI Type Descriptor'
	DD	00H
	DB	'.?AVPI_Processor@@', 00H
_DATA	ENDS
;	COMDAT ??_R3PI_Processor@@8
rdata$r	SEGMENT
??_R3PI_Processor@@8 DD 00H				; PI_Processor::`RTTI Class Hierarchy Descriptor'
	DD	00H
	DD	01H
	DD	FLAT:??_R2PI_Processor@@8
rdata$r	ENDS
;	COMDAT ??_R2PI_Processor@@8
rdata$r	SEGMENT
??_R2PI_Processor@@8 DD FLAT:??_R1A@?0A@A@PI_Processor@@8 ; PI_Processor::`RTTI Base Class Array'
rdata$r	ENDS
;	COMDAT ??_R1A@?0A@A@PI_Processor@@8
rdata$r	SEGMENT
??_R1A@?0A@A@PI_Processor@@8 DD FLAT:??_R0?AVPI_Processor@@@8 ; PI_Processor::`RTTI Base Class Descriptor at (0,-1,0,0)'
	DD	00H
	DD	00H
	DD	0ffffffffH
	DD	00H
	DD	00H
; Function compile flags: /Ogty
rdata$r	ENDS
;	COMDAT ??1PI_Processor@@QAE@XZ
_TEXT	SEGMENT
??1PI_Processor@@QAE@XZ PROC NEAR			; PI_Processor::~PI_Processor, COMDAT
; _this$ = ecx

; 44   : {

  00000	c7 01 00 00 00
	00		 mov	 DWORD PTR [ecx], OFFSET FLAT:??_7PI_Processor@@6B@

; 45   : 	assert(gpC_process_runner != NULL);
; 46   : 
; 47   : 	gpC_process_runner->Delete(this);

  00006	51		 push	 ecx
  00007	8b 0d 00 00 00
	00		 mov	 ecx, DWORD PTR ?gpC_process_runner@@3PAVPI_ProcessRunner@@A ; gpC_process_runner
  0000d	e8 00 00 00 00	 call	 ?Delete@?$SimpleDataList@PAVPI_Processor@@@@QAE_NPAVPI_Processor@@@Z ; SimpleDataList<PI_Processor *>::Delete

; 48   : }

  00012	c3		 ret	 0
??1PI_Processor@@QAE@XZ ENDP				; PI_Processor::~PI_Processor
; Function compile flags: /Ogty
; File c:\darkeden\designed_common\project\new - vs_ui\src\widget\pi_core.h
_TEXT	ENDS
;	COMDAT ?Start@PI_Processor@@UAEXXZ
_TEXT	SEGMENT
?Start@PI_Processor@@UAEXXZ PROC NEAR			; PI_Processor::Start, COMDAT
; _this$ = ecx

; 43   : 	virtual void	Start() { m_bl_running = true; }

  00000	c6 41 04 01	 mov	 BYTE PTR [ecx+4], 1
  00004	c3		 ret	 0
?Start@PI_Processor@@UAEXXZ ENDP			; PI_Processor::Start
; Function compile flags: /Ogty
_TEXT	ENDS
;	COMDAT ?Finish@PI_Processor@@UAEXXZ
_TEXT	SEGMENT
?Finish@PI_Processor@@UAEXXZ PROC NEAR			; PI_Processor::Finish, COMDAT
; _this$ = ecx

; 44   : 	virtual void	Finish() { m_bl_running = false; }

  00000	c6 41 04 00	 mov	 BYTE PTR [ecx+4], 0
  00004	c3		 ret	 0
?Finish@PI_Processor@@UAEXXZ ENDP			; PI_Processor::Finish
; Function compile flags: /Ogty
_TEXT	ENDS
;	COMDAT ?Process@PI_Processor@@UAEXXZ
_TEXT	SEGMENT
?Process@PI_Processor@@UAEXXZ PROC NEAR			; PI_Processor::Process, COMDAT
; _this$ = ecx

; 51   : 	virtual void	Process() {}; // no pure

  00000	c3		 ret	 0
?Process@PI_Processor@@UAEXXZ ENDP			; PI_Processor::Process
_TEXT	ENDS
PUBLIC	?Add@?$SimpleDataList@PAVPI_Processor@@@@QAE_NPAVPI_Processor@@@Z ; SimpleDataList<PI_Processor *>::Add
; Function compile flags: /Ogty
; File c:\darkeden\designed_common\project\new - vs_ui\src\widget\simpledatalist.h
;	COMDAT ?Add@?$SimpleDataList@PAVPI_Processor@@@@QAE_NPAVPI_Processor@@@Z
_TEXT	SEGMENT
_data$ = 8						; size = 4
?Add@?$SimpleDataList@PAVPI_Processor@@@@QAE_NPAVPI_Processor@@@Z PROC NEAR ; SimpleDataList<PI_Processor *>::Add, COMDAT
; _this$ = ecx

; 106  : {

  00000	55		 push	 ebp

; 107  : 	if (Find(data) == true)

  00001	8b 6c 24 08	 mov	 ebp, DWORD PTR _data$[esp]
  00005	56		 push	 esi
  00006	8b f1		 mov	 esi, ecx
  00008	57		 push	 edi
  00009	8b 7e 08	 mov	 edi, DWORD PTR [esi+8]
  0000c	33 c0		 xor	 eax, eax
  0000e	85 ff		 test	 edi, edi
  00010	7e 16		 jle	 SHORT $L74302
  00012	8b 4e 04	 mov	 ecx, DWORD PTR [esi+4]
$L74551:
  00015	39 29		 cmp	 DWORD PTR [ecx], ebp
  00017	0f 84 d1 00 00
	00		 je	 $L74564
  0001d	8b 56 08	 mov	 edx, DWORD PTR [esi+8]
  00020	40		 inc	 eax
  00021	83 c1 04	 add	 ecx, 4
  00024	3b c2		 cmp	 eax, edx
  00026	7c ed		 jl	 SHORT $L74551
$L74302:
  00028	53		 push	 ebx

; 109  : 
; 110  : 	Ta *		p_temp = NULL;

  00029	33 db		 xor	 ebx, ebx

; 111  : 	int		prev_size = m_size;
; 112  : 	int		i;
; 113  : 
; 114  : 	if (prev_size > 0) // backup prev-data

  0002b	85 ff		 test	 edi, edi
  0002d	7e 3f		 jle	 SHORT $L74566

; 115  : 	{
; 116  : 		p_temp = new Ta[prev_size];

  0002f	8d 04 bd 00 00
	00 00		 lea	 eax, DWORD PTR [edi*4]
  00036	50		 push	 eax
  00037	e8 00 00 00 00	 call	 ??_U@YAPAXI@Z		; operator new[]
  0003c	8b d8		 mov	 ebx, eax
  0003e	83 c4 04	 add	 esp, 4

; 117  : 		CheckMemAlloc(p_temp);

  00041	85 db		 test	 ebx, ebx
  00043	75 12		 jne	 SHORT $L74565
  00045	6a 75		 push	 117			; 00000075H
  00047	68 00 00 00 00	 push	 OFFSET FLAT:??_C@_0EM@OGKKDBGH@c?3?2darkeden?2designed_common?2proj@
  0004c	50		 push	 eax
  0004d	6a 01		 push	 1
  0004f	e8 00 00 00 00	 call	 ?g_BasicException@@YAXW4EXCEPTION_CODE@@PAD1K@Z ; g_BasicException
  00054	83 c4 10	 add	 esp, 16			; 00000010H
$L74565:

; 118  : 
; 119  : 		for (i=0; i < prev_size; i++)

  00057	33 c0		 xor	 eax, eax
  00059	85 ff		 test	 edi, edi
  0005b	7e 11		 jle	 SHORT $L74566
  0005d	8d 49 00	 npad	 3
$L74311:

; 120  : 			p_temp[i] = m_p_buf[i];

  00060	8b 4e 04	 mov	 ecx, DWORD PTR [esi+4]
  00063	8b 14 81	 mov	 edx, DWORD PTR [ecx+eax*4]
  00066	89 14 83	 mov	 DWORD PTR [ebx+eax*4], edx
  00069	40		 inc	 eax
  0006a	3b c7		 cmp	 eax, edi
  0006c	7c f2		 jl	 SHORT $L74311
$L74566:

; 121  : 	}
; 122  : 	
; 123  : 	DeleteNewArray(m_p_buf);

  0006e	8b 46 04	 mov	 eax, DWORD PTR [esi+4]
  00071	85 c0		 test	 eax, eax
  00073	74 10		 je	 SHORT $L74314
  00075	50		 push	 eax
  00076	e8 00 00 00 00	 call	 ??_V@YAXPAX@Z		; operator delete[]
  0007b	83 c4 04	 add	 esp, 4
  0007e	c7 46 04 00 00
	00 00		 mov	 DWORD PTR [esi+4], 0
$L74314:

; 124  : 	m_size++;

  00085	8b 56 08	 mov	 edx, DWORD PTR [esi+8]
  00088	42		 inc	 edx
  00089	8b c2		 mov	 eax, edx

; 125  : 	m_p_buf = new Ta[m_size];

  0008b	c1 e0 02	 shl	 eax, 2
  0008e	50		 push	 eax
  0008f	89 56 08	 mov	 DWORD PTR [esi+8], edx
  00092	e8 00 00 00 00	 call	 ??_U@YAPAXI@Z		; operator new[]
  00097	83 c4 04	 add	 esp, 4

; 126  : 	CheckMemAlloc(m_p_buf);

  0009a	85 c0		 test	 eax, eax
  0009c	89 46 04	 mov	 DWORD PTR [esi+4], eax
  0009f	75 12		 jne	 SHORT $L74318
  000a1	6a 7e		 push	 126			; 0000007eH
  000a3	68 00 00 00 00	 push	 OFFSET FLAT:??_C@_0EM@OGKKDBGH@c?3?2darkeden?2designed_common?2proj@
  000a8	50		 push	 eax
  000a9	6a 01		 push	 1
  000ab	e8 00 00 00 00	 call	 ?g_BasicException@@YAXW4EXCEPTION_CODE@@PAD1K@Z ; g_BasicException
  000b0	83 c4 10	 add	 esp, 16			; 00000010H
$L74318:

; 127  : 
; 128  : 	for (i=0; i < prev_size; i++) // restore backup data

  000b3	33 c0		 xor	 eax, eax
  000b5	85 ff		 test	 edi, edi
  000b7	7e 15		 jle	 SHORT $L74321
  000b9	8d a4 24 00 00
	00 00		 npad	 7
$L74319:

; 129  : 		m_p_buf[i] = p_temp[i];

  000c0	8b 14 83	 mov	 edx, DWORD PTR [ebx+eax*4]
  000c3	8b 4e 04	 mov	 ecx, DWORD PTR [esi+4]
  000c6	89 14 81	 mov	 DWORD PTR [ecx+eax*4], edx
  000c9	40		 inc	 eax
  000ca	3b c7		 cmp	 eax, edi
  000cc	7c f2		 jl	 SHORT $L74319
$L74321:

; 130  : 
; 131  : 	m_p_buf[m_size-1] = data;
; 132  : 
; 133  : 	DeleteNewArray(p_temp);

  000ce	85 db		 test	 ebx, ebx
  000d0	8b 46 08	 mov	 eax, DWORD PTR [esi+8]
  000d3	8b 4e 04	 mov	 ecx, DWORD PTR [esi+4]
  000d6	89 6c 81 fc	 mov	 DWORD PTR [ecx+eax*4-4], ebp
  000da	74 09		 je	 SHORT $L74322
  000dc	53		 push	 ebx
  000dd	e8 00 00 00 00	 call	 ??_V@YAXPAX@Z		; operator delete[]
  000e2	83 c4 04	 add	 esp, 4
$L74322:
  000e5	5b		 pop	 ebx
  000e6	5f		 pop	 edi
  000e7	5e		 pop	 esi

; 134  : 
; 135  : 	return true;

  000e8	b0 01		 mov	 al, 1
  000ea	5d		 pop	 ebp

; 136  : }

  000eb	c2 04 00	 ret	 4
$L74564:
  000ee	5f		 pop	 edi
  000ef	5e		 pop	 esi

; 108  : 		return false;

  000f0	32 c0		 xor	 al, al
  000f2	5d		 pop	 ebp

; 136  : }

  000f3	c2 04 00	 ret	 4
?Add@?$SimpleDataList@PAVPI_Processor@@@@QAE_NPAVPI_Processor@@@Z ENDP ; SimpleDataList<PI_Processor *>::Add
_TEXT	ENDS
PUBLIC	??0PI_Processor@@QAE@XZ				; PI_Processor::PI_Processor
; Function compile flags: /Ogty
; File c:\darkeden\designed_common\project\new - vs_ui\src\widget\pi_core.cpp
;	COMDAT ??0PI_Processor@@QAE@XZ
_TEXT	SEGMENT
??0PI_Processor@@QAE@XZ PROC NEAR			; PI_Processor::PI_Processor, COMDAT
; _this$ = ecx

; 30   : { 

  00000	56		 push	 esi
  00001	8b f1		 mov	 esi, ecx
  00003	c7 06 00 00 00
	00		 mov	 DWORD PTR [esi], OFFSET FLAT:??_7PI_Processor@@6B@

; 31   : 	m_bl_running = false;

  00009	c6 46 04 00	 mov	 BYTE PTR [esi+4], 0

; 32   : 
; 33   : 	assert(gpC_process_runner != NULL);
; 34   : 
; 35   : 	gpC_process_runner->Add(this);

  0000d	8b 0d 00 00 00
	00		 mov	 ecx, DWORD PTR ?gpC_process_runner@@3PAVPI_ProcessRunner@@A ; gpC_process_runner
  00013	56		 push	 esi
  00014	e8 00 00 00 00	 call	 ?Add@?$SimpleDataList@PAVPI_Processor@@@@QAE_NPAVPI_Processor@@@Z ; SimpleDataList<PI_Processor *>::Add

; 36   : }

  00019	8b c6		 mov	 eax, esi
  0001b	5e		 pop	 esi
  0001c	c3		 ret	 0
??0PI_Processor@@QAE@XZ ENDP				; PI_Processor::PI_Processor
_TEXT	ENDS
END
