; Listing generated by Microsoft (R) Optimizing Compiler Version 13.10.3077 

	TITLE	\darkeden\Designed_Common\Project\New - vs_ui\src\SkinManager.cpp
	.386P
include listing.inc
if @Version gt 510
.model FLAT
else
_TEXT	SEGMENT PARA USE32 PUBLIC 'CODE'
_TEXT	ENDS
_DATA	SEGMENT DWORD USE32 PUBLIC 'DATA'
_DATA	ENDS
CONST	SEGMENT DWORD USE32 PUBLIC 'CONST'
CONST	ENDS
_BSS	SEGMENT DWORD USE32 PUBLIC 'BSS'
_BSS	ENDS
$$SYMBOLS	SEGMENT BYTE USE32 'DEBSYM'
$$SYMBOLS	ENDS
$$TYPES	SEGMENT BYTE USE32 'DEBTYP'
$$TYPES	ENDS
_TLS	SEGMENT DWORD USE32 PUBLIC 'TLS'
_TLS	ENDS
;	COMDAT ??_C@_0BN@ODLNCKCA@Data?2?2Info?2?2ClientConfig?4inf?$AA@
CONST	SEGMENT DWORD USE32 PUBLIC 'CONST'
CONST	ENDS
;	COMDAT ??_C@_0BM@DFPLPGPC@Data?2?2Info?2?2GuildMapper?4inf?$AA@
CONST	SEGMENT DWORD USE32 PUBLIC 'CONST'
CONST	ENDS
;	COMDAT ??_C@_0BN@LHODHNBK@Data?2?2Info?2?2GuildVersion?4inf?$AA@
CONST	SEGMENT DWORD USE32 PUBLIC 'CONST'
CONST	ENDS
;	COMDAT ??_C@_0BH@DDPLNCOL@Data?2?2Info?2?2Player?4inf?$AA@
CONST	SEGMENT DWORD USE32 PUBLIC 'CONST'
CONST	ENDS
;	COMDAT ??_C@_0BL@ILLNAPHB@Data?2?2Info?2?2Resolution?4inf?$AA@
CONST	SEGMENT DWORD USE32 PUBLIC 'CONST'
CONST	ENDS
;	COMDAT ??_C@_0CA@HEIGFDLG@Data?2?2Info?2?2SelectedChannel?4inf?$AA@
CONST	SEGMENT DWORD USE32 PUBLIC 'CONST'
CONST	ENDS
;	COMDAT ??_C@_00CNPNBAHC@?$AA@
CONST	SEGMENT DWORD USE32 PUBLIC 'CONST'
CONST	ENDS
;	COMDAT ??_C@_05OKMLJOMC@?$CFd?5?$CFd?$AA@
CONST	SEGMENT DWORD USE32 PUBLIC 'CONST'
CONST	ENDS
;	COMDAT ??_C@_0M@FMGEODLN@?$CFd?5?$CFd?5?$CFd?5?$CFd?$AA@
CONST	SEGMENT DWORD USE32 PUBLIC 'CONST'
CONST	ENDS
;	COMDAT ??_C@_08NEOEAKGJ@cjdgorkr?$AA@
CONST	SEGMENT DWORD USE32 PUBLIC 'CONST'
CONST	ENDS
;	COMDAT ??_C@_0BH@DGGGJIIO@data?2info?2infodata?4rpk?$AA@
CONST	SEGMENT DWORD USE32 PUBLIC 'CONST'
CONST	ENDS
;	COMDAT ??_C@_04BEADLPGM@INFO?$AA@
CONST	SEGMENT DWORD USE32 PUBLIC 'CONST'
CONST	ENDS
;	COMDAT ??_C@_09EBOIJGPI@GAME_MENU?$AA@
CONST	SEGMENT DWORD USE32 PUBLIC 'CONST'
CONST	ENDS
;	COMDAT ??_C@_06OCONPLCM@OPTION?$AA@
CONST	SEGMENT DWORD USE32 PUBLIC 'CONST'
CONST	ENDS
;	COMDAT ??_C@_05DMCAHJJE@TITLE?$AA@
CONST	SEGMENT DWORD USE32 PUBLIC 'CONST'
CONST	ENDS
;	COMDAT ??_C@_08MNFHBIDM@NEW_CHAR?$AA@
CONST	SEGMENT DWORD USE32 PUBLIC 'CONST'
CONST	ENDS
;	COMDAT ??_C@_0P@ONEMFDMP@LOGIN_1024_768?$AA@
CONST	SEGMENT DWORD USE32 PUBLIC 'CONST'
CONST	ENDS
;	COMDAT ??_C@_0O@HFIMKCOI@LOGIN_800_600?$AA@
CONST	SEGMENT DWORD USE32 PUBLIC 'CONST'
CONST	ENDS
;	COMDAT ??_C@_05DNIIFBMG@?$CFs?5?$CFs?$AA@
CONST	SEGMENT DWORD USE32 PUBLIC 'CONST'
CONST	ENDS
;	COMDAT ??_C@_0L@CMCBHHFJ@POINT_LIST?$AA@
CONST	SEGMENT DWORD USE32 PUBLIC 'CONST'
CONST	ENDS
;	COMDAT ??_C@_09HDPDJPHK@RECT_LIST?$AA@
CONST	SEGMENT DWORD USE32 PUBLIC 'CONST'
CONST	ENDS
;	COMDAT ??_C@_02DKCKIIND@?$CFs?$AA@
CONST	SEGMENT DWORD USE32 PUBLIC 'CONST'
CONST	ENDS
;	COMDAT ??_C@_03JMGAKCCH@END?$AA@
CONST	SEGMENT DWORD USE32 PUBLIC 'CONST'
CONST	ENDS
;	COMDAT ??_C@_0N@GOPDCEEB@basic_string?$AA@
CONST	SEGMENT DWORD USE32 PUBLIC 'CONST'
CONST	ENDS
rdata$r	SEGMENT DWORD USE32 PUBLIC 'CONST'
rdata$r	ENDS
text$yc	SEGMENT PARA USE32 PUBLIC 'CODE'
text$yc	ENDS
CRT$XCA	SEGMENT DWORD USE32 PUBLIC 'DATA'
CRT$XCA	ENDS
CRT$XCU	SEGMENT DWORD USE32 PUBLIC 'DATA'
CRT$XCU	ENDS
CRT$XCL	SEGMENT DWORD USE32 PUBLIC 'DATA'
CRT$XCL	ENDS
CRT$XCC	SEGMENT DWORD USE32 PUBLIC 'DATA'
CRT$XCC	ENDS
CRT$XCZ	SEGMENT DWORD USE32 PUBLIC 'DATA'
CRT$XCZ	ENDS
text$yd	SEGMENT PARA USE32 PUBLIC 'CODE'
text$yd	ENDS
;	COMDAT ?start@CNFS@@QAE_NPADH@Z
_TEXT	SEGMENT PARA USE32 PUBLIC 'CODE'
_TEXT	ENDS
;	COMDAT ?end@CNFS@@QAEXXZ
_TEXT	SEGMENT PARA USE32 PUBLIC 'CODE'
_TEXT	ENDS
;	COMDAT ?Init@VirtualFileHeader@@QAEXXZ
_TEXT	SEGMENT PARA USE32 PUBLIC 'CODE'
_TEXT	ENDS
;	COMDAT ??1IFileIO@@UAE@XZ
_TEXT	SEGMENT PARA USE32 PUBLIC 'CODE'
_TEXT	ENDS
;	COMDAT ??_GIFileIO@@UAEPAXI@Z
_TEXT	SEGMENT PARA USE32 PUBLIC 'CODE'
_TEXT	ENDS
;	COMDAT ??0iovfs_base@@QAE@XZ
_TEXT	SEGMENT PARA USE32 PUBLIC 'CODE'
_TEXT	ENDS
;	COMDAT ??_Giovfs_base@@UAEPAXI@Z
_TEXT	SEGMENT PARA USE32 PUBLIC 'CODE'
_TEXT	ENDS
;	COMDAT ??1iovfs_base@@UAE@XZ
_TEXT	SEGMENT PARA USE32 PUBLIC 'CODE'
_TEXT	ENDS
;	COMDAT ?Init@iovfs_base@@QAEXXZ
_TEXT	SEGMENT PARA USE32 PUBLIC 'CODE'
_TEXT	ENDS
;	COMDAT ??_Givfstream@@UAEPAXI@Z
_TEXT	SEGMENT PARA USE32 PUBLIC 'CODE'
_TEXT	ENDS
;	COMDAT ??1ivfstream@@UAE@XZ
_TEXT	SEGMENT PARA USE32 PUBLIC 'CODE'
_TEXT	ENDS
;	COMDAT ?open@ivfstream@@UAEXPBDH@Z
_TEXT	SEGMENT PARA USE32 PUBLIC 'CODE'
_TEXT	ENDS
;	COMDAT ??_Govfstream@@UAEPAXI@Z
_TEXT	SEGMENT PARA USE32 PUBLIC 'CODE'
_TEXT	ENDS
;	COMDAT ??1ovfstream@@UAE@XZ
_TEXT	SEGMENT PARA USE32 PUBLIC 'CODE'
_TEXT	ENDS
;	COMDAT ?open@ovfstream@@UAEXPBDH@Z
_TEXT	SEGMENT PARA USE32 PUBLIC 'CODE'
_TEXT	ENDS
;	COMDAT ?IsSet@CRarFile@@QAE_NXZ
_TEXT	SEGMENT PARA USE32 PUBLIC 'CODE'
_TEXT	ENDS
;	COMDAT ??0InterfaceInformation@@QAE@XZ
_TEXT	SEGMENT PARA USE32 PUBLIC 'CODE'
_TEXT	ENDS
;	COMDAT ??1InterfaceInformation@@QAE@XZ
_TEXT	SEGMENT PARA USE32 PUBLIC 'CODE'
_TEXT	ENDS
;	COMDAT ?LoadFromLinePointList@InterfaceInformation@@QAE_NPBD@Z
_TEXT	SEGMENT PARA USE32 PUBLIC 'CODE'
_TEXT	ENDS
;	COMDAT ?LoadFromLineRectList@InterfaceInformation@@QAE_NPBD@Z
_TEXT	SEGMENT PARA USE32 PUBLIC 'CODE'
_TEXT	ENDS
;	COMDAT ??0SkinManager@@QAE@XZ
_TEXT	SEGMENT PARA USE32 PUBLIC 'CODE'
_TEXT	ENDS
;	COMDAT ??1SkinManager@@QAE@XZ
_TEXT	SEGMENT PARA USE32 PUBLIC 'CODE'
_TEXT	ENDS
;	COMDAT ?LoadInformation@SkinManager@@QAE_NPBD@Z
_TEXT	SEGMENT PARA USE32 PUBLIC 'CODE'
_TEXT	ENDS
;	COMDAT ??1?$map@V?$basic_string@DV?$char_traits@D@_STL@@V?$allocator@D@2@@_STL@@HU?$less@V?$basic_string@DV?$char_traits@D@_STL@@V?$allocator@D@2@@_STL@@@2@V?$allocator@U?$pair@$$CBV?$basic_string@DV?$char_traits@D@_STL@@V?$allocator@D@2@@_STL@@H@_STL@@@2@@_STL@@QAE@XZ
_TEXT	SEGMENT PARA USE32 PUBLIC 'CODE'
_TEXT	ENDS
;	COMDAT ?LoadRectList@SkinManager@@IAEXHPAX@Z
_TEXT	SEGMENT PARA USE32 PUBLIC 'CODE'
_TEXT	ENDS
;	COMDAT ?LoadPointList@SkinManager@@IAEXHPAX@Z
_TEXT	SEGMENT PARA USE32 PUBLIC 'CODE'
_TEXT	ENDS
;	COMDAT ?eq@?$__char_traits_base@DH@_STL@@SA_NABD0@Z
_TEXT	SEGMENT PARA USE32 PUBLIC 'CODE'
_TEXT	ENDS
;	COMDAT ?not_eof@?$__char_traits_base@DH@_STL@@SAHABH@Z
_TEXT	SEGMENT PARA USE32 PUBLIC 'CODE'
_TEXT	ENDS
;	COMDAT ?eq_int_type@?$__char_traits_base@DH@_STL@@SA_NABH0@Z
_TEXT	SEGMENT PARA USE32 PUBLIC 'CODE'
_TEXT	ENDS
;	COMDAT ??4?$basic_string@DV?$char_traits@D@_STL@@V?$allocator@D@2@@_STL@@QAEAAV01@PBD@Z
_TEXT	SEGMENT PARA USE32 PUBLIC 'CODE'
_TEXT	ENDS
;	COMDAT ??0?$allocator@D@_STL@@QAE@XZ
_TEXT	SEGMENT PARA USE32 PUBLIC 'CODE'
_TEXT	ENDS
;	COMDAT ??0?$fpos@H@_STL@@QAE@J@Z
_TEXT	SEGMENT PARA USE32 PUBLIC 'CODE'
_TEXT	ENDS
;	COMDAT ??B?$fpos@H@_STL@@QBEJXZ
_TEXT	SEGMENT PARA USE32 PUBLIC 'CODE'
_TEXT	ENDS
;	COMDAT ?state@?$fpos@H@_STL@@QBEHXZ
_TEXT	SEGMENT PARA USE32 PUBLIC 'CODE'
_TEXT	ENDS
;	COMDAT ?is_open@?$basic_filebuf@DV?$char_traits@D@_STL@@@_STL@@QBE_NXZ
_TEXT	SEGMENT PARA USE32 PUBLIC 'CODE'
_TEXT	ENDS
;	COMDAT ?_M_seek_return@?$basic_filebuf@DV?$char_traits@D@_STL@@@_STL@@AAE?AV?$fpos@H@2@JH@Z
_TEXT	SEGMENT PARA USE32 PUBLIC 'CODE'
_TEXT	ENDS
;	COMDAT ??0?$_Filebuf_Tmp_Buf@D@_STL@@QAE@H@Z
_TEXT	SEGMENT PARA USE32 PUBLIC 'CODE'
_TEXT	ENDS
;	COMDAT ??1?$_Filebuf_Tmp_Buf@D@_STL@@QAE@XZ
_TEXT	SEGMENT PARA USE32 PUBLIC 'CODE'
_TEXT	ENDS
;	COMDAT ??A?$vector@UtagPOINT@@V?$allocator@UtagPOINT@@@_STL@@@_STL@@QBEABUtagPOINT@@I@Z
_TEXT	SEGMENT PARA USE32 PUBLIC 'CODE'
_TEXT	ENDS
;	COMDAT ??0?$vector@UtagPOINT@@V?$allocator@UtagPOINT@@@_STL@@@_STL@@QAE@ABV?$allocator@UtagPOINT@@@1@@Z
_TEXT	SEGMENT PARA USE32 PUBLIC 'CODE'
_TEXT	ENDS
;	COMDAT ??1?$vector@UtagPOINT@@V?$allocator@UtagPOINT@@@_STL@@@_STL@@QAE@XZ
_TEXT	SEGMENT PARA USE32 PUBLIC 'CODE'
_TEXT	ENDS
;	COMDAT ?push_back@?$vector@UtagPOINT@@V?$allocator@UtagPOINT@@@_STL@@@_STL@@QAEXABUtagPOINT@@@Z
_TEXT	SEGMENT PARA USE32 PUBLIC 'CODE'
_TEXT	ENDS
;	COMDAT ?clear@?$vector@UtagPOINT@@V?$allocator@UtagPOINT@@@_STL@@@_STL@@QAEXXZ
_TEXT	SEGMENT PARA USE32 PUBLIC 'CODE'
_TEXT	ENDS
;	COMDAT ??0?$allocator@UtagPOINT@@@_STL@@QAE@XZ
_TEXT	SEGMENT PARA USE32 PUBLIC 'CODE'
_TEXT	ENDS
;	COMDAT ??1?$allocator@UtagPOINT@@@_STL@@QAE@XZ
_TEXT	SEGMENT PARA USE32 PUBLIC 'CODE'
_TEXT	ENDS
;	COMDAT ??A?$vector@UtagRECT@@V?$allocator@UtagRECT@@@_STL@@@_STL@@QBEABUtagRECT@@I@Z
_TEXT	SEGMENT PARA USE32 PUBLIC 'CODE'
_TEXT	ENDS
;	COMDAT ??0?$vector@UtagRECT@@V?$allocator@UtagRECT@@@_STL@@@_STL@@QAE@ABV?$allocator@UtagRECT@@@1@@Z
_TEXT	SEGMENT PARA USE32 PUBLIC 'CODE'
_TEXT	ENDS
;	COMDAT ??1?$vector@UtagRECT@@V?$allocator@UtagRECT@@@_STL@@@_STL@@QAE@XZ
_TEXT	SEGMENT PARA USE32 PUBLIC 'CODE'
_TEXT	ENDS
;	COMDAT ?push_back@?$vector@UtagRECT@@V?$allocator@UtagRECT@@@_STL@@@_STL@@QAEXABUtagRECT@@@Z
_TEXT	SEGMENT PARA USE32 PUBLIC 'CODE'
_TEXT	ENDS
;	COMDAT ?clear@?$vector@UtagRECT@@V?$allocator@UtagRECT@@@_STL@@@_STL@@QAEXXZ
_TEXT	SEGMENT PARA USE32 PUBLIC 'CODE'
_TEXT	ENDS
;	COMDAT ??0?$allocator@UtagRECT@@@_STL@@QAE@XZ
_TEXT	SEGMENT PARA USE32 PUBLIC 'CODE'
_TEXT	ENDS
;	COMDAT ??1?$allocator@UtagRECT@@@_STL@@QAE@XZ
_TEXT	SEGMENT PARA USE32 PUBLIC 'CODE'
_TEXT	ENDS
;	COMDAT ??0?$map@V?$basic_string@DV?$char_traits@D@_STL@@V?$allocator@D@2@@_STL@@HU?$less@V?$basic_string@DV?$char_traits@D@_STL@@V?$allocator@D@2@@_STL@@@2@V?$allocator@U?$pair@$$CBV?$basic_string@DV?$char_traits@D@_STL@@V?$allocator@D@2@@_STL@@H@_STL@@@2@@_STL@@QAE@XZ
_TEXT	SEGMENT PARA USE32 PUBLIC 'CODE'
_TEXT	ENDS
;	COMDAT ?end@?$map@V?$basic_string@DV?$char_traits@D@_STL@@V?$allocator@D@2@@_STL@@HU?$less@V?$basic_string@DV?$char_traits@D@_STL@@V?$allocator@D@2@@_STL@@@2@V?$allocator@U?$pair@$$CBV?$basic_string@DV?$char_traits@D@_STL@@V?$allocator@D@2@@_STL@@H@_STL@@@2@@_STL@@QAE?AU?$_Rb_tree_iterator@U?$pair@$$CBV?$basic_string@DV?$char_traits@D@_STL@@V?$allocator@D@2@@_STL@@H@_STL@@U?$_Nonconst_traits@U?$pair@$$CBV?$basic_string@DV?$char_traits@D@_STL@@V?$allocator@D@2@@_STL@@H@_STL@@@2@@2@XZ
_TEXT	SEGMENT PARA USE32 PUBLIC 'CODE'
_TEXT	ENDS
;	COMDAT ??A?$map@V?$basic_string@DV?$char_traits@D@_STL@@V?$allocator@D@2@@_STL@@HU?$less@V?$basic_string@DV?$char_traits@D@_STL@@V?$allocator@D@2@@_STL@@@2@V?$allocator@U?$pair@$$CBV?$basic_string@DV?$char_traits@D@_STL@@V?$allocator@D@2@@_STL@@H@_STL@@@2@@_STL@@QAEAAHABV?$basic_string@DV?$char_traits@D@_STL@@V?$allocator@D@2@@1@@Z
_TEXT	SEGMENT PARA USE32 PUBLIC 'CODE'
_TEXT	ENDS
;	COMDAT ?find@?$map@V?$basic_string@DV?$char_traits@D@_STL@@V?$allocator@D@2@@_STL@@HU?$less@V?$basic_string@DV?$char_traits@D@_STL@@V?$allocator@D@2@@_STL@@@2@V?$allocator@U?$pair@$$CBV?$basic_string@DV?$char_traits@D@_STL@@V?$allocator@D@2@@_STL@@H@_STL@@@2@@_STL@@QAE?AU?$_Rb_tree_iterator@U?$pair@$$CBV?$basic_string@DV?$char_traits@D@_STL@@V?$allocator@D@2@@_STL@@H@_STL@@U?$_Nonconst_traits@U?$pair@$$CBV?$basic_string@DV?$char_traits@D@_STL@@V?$allocator@D@2@@_STL@@H@_STL@@@2@@2@ABV?$basic_string@DV?$char_traits@D@_STL@@V?$allocator@D@2@@2@@Z
_TEXT	SEGMENT PARA USE32 PUBLIC 'CODE'
_TEXT	ENDS
;	COMDAT ??1?$_Rb_tree@V?$basic_string@DV?$char_traits@D@_STL@@V?$allocator@D@2@@_STL@@U?$pair@$$CBV?$basic_string@DV?$char_traits@D@_STL@@V?$allocator@D@2@@_STL@@H@2@U?$_Select1st@U?$pair@$$CBV?$basic_string@DV?$char_traits@D@_STL@@V?$allocator@D@2@@_STL@@H@_STL@@@2@U?$less@V?$basic_string@DV?$char_traits@D@_STL@@V?$allocator@D@2@@_STL@@@2@V?$allocator@U?$pair@$$CBV?$basic_string@DV?$char_traits@D@_STL@@V?$allocator@D@2@@_STL@@H@_STL@@@2@@_STL@@QAE@XZ
_TEXT	SEGMENT PARA USE32 PUBLIC 'CODE'
_TEXT	ENDS
;	COMDAT ??C?$_Rb_tree_iterator@U?$pair@$$CBV?$basic_string@DV?$char_traits@D@_STL@@V?$allocator@D@2@@_STL@@H@_STL@@U?$_Nonconst_traits@U?$pair@$$CBV?$basic_string@DV?$char_traits@D@_STL@@V?$allocator@D@2@@_STL@@H@_STL@@@2@@_STL@@QBEPAU?$pair@$$CBV?$basic_string@DV?$char_traits@D@_STL@@V?$allocator@D@2@@_STL@@H@1@XZ
_TEXT	SEGMENT PARA USE32 PUBLIC 'CODE'
_TEXT	ENDS
;	COMDAT ??1?$pair@$$CBV?$basic_string@DV?$char_traits@D@_STL@@V?$allocator@D@2@@_STL@@H@_STL@@QAE@XZ
_TEXT	SEGMENT PARA USE32 PUBLIC 'CODE'
_TEXT	ENDS
;	COMDAT ?assign@?$basic_string@DV?$char_traits@D@_STL@@V?$allocator@D@2@@_STL@@QAEAAV12@PBD0@Z
_TEXT	SEGMENT PARA USE32 PUBLIC 'CODE'
_TEXT	ENDS
;	COMDAT ?state@?$fpos@H@_STL@@QAEXH@Z
_TEXT	SEGMENT PARA USE32 PUBLIC 'CODE'
_TEXT	ENDS
;	COMDAT ?_M_insert_overflow@?$vector@UtagPOINT@@V?$allocator@UtagPOINT@@@_STL@@@_STL@@IAEXPAUtagPOINT@@ABU3@ABU__false_type@2@I_N@Z
_TEXT	SEGMENT PARA USE32 PUBLIC 'CODE'
_TEXT	ENDS
;	COMDAT ?begin@?$vector@UtagPOINT@@V?$allocator@UtagPOINT@@@_STL@@@_STL@@QAEPAUtagPOINT@@XZ
_TEXT	SEGMENT PARA USE32 PUBLIC 'CODE'
_TEXT	ENDS
;	COMDAT ?begin@?$vector@UtagPOINT@@V?$allocator@UtagPOINT@@@_STL@@@_STL@@QBEPBUtagPOINT@@XZ
_TEXT	SEGMENT PARA USE32 PUBLIC 'CODE'
_TEXT	ENDS
;	COMDAT ?end@?$vector@UtagPOINT@@V?$allocator@UtagPOINT@@@_STL@@@_STL@@QAEPAUtagPOINT@@XZ
_TEXT	SEGMENT PARA USE32 PUBLIC 'CODE'
_TEXT	ENDS
;	COMDAT ?erase@?$vector@UtagPOINT@@V?$allocator@UtagPOINT@@@_STL@@@_STL@@QAEPAUtagPOINT@@PAU3@0@Z
_TEXT	SEGMENT PARA USE32 PUBLIC 'CODE'
_TEXT	ENDS
;	COMDAT ??0?$_Vector_base@UtagPOINT@@V?$allocator@UtagPOINT@@@_STL@@@_STL@@QAE@ABV?$allocator@UtagPOINT@@@1@@Z
_TEXT	SEGMENT PARA USE32 PUBLIC 'CODE'
_TEXT	ENDS
;	COMDAT ??1?$_Vector_base@UtagPOINT@@V?$allocator@UtagPOINT@@@_STL@@@_STL@@QAE@XZ
_TEXT	SEGMENT PARA USE32 PUBLIC 'CODE'
_TEXT	ENDS
;	COMDAT ?_M_insert_overflow@?$vector@UtagRECT@@V?$allocator@UtagRECT@@@_STL@@@_STL@@IAEXPAUtagRECT@@ABU3@ABU__false_type@2@I_N@Z
_TEXT	SEGMENT PARA USE32 PUBLIC 'CODE'
_TEXT	ENDS
;	COMDAT ?begin@?$vector@UtagRECT@@V?$allocator@UtagRECT@@@_STL@@@_STL@@QAEPAUtagRECT@@XZ
_TEXT	SEGMENT PARA USE32 PUBLIC 'CODE'
_TEXT	ENDS
;	COMDAT ?begin@?$vector@UtagRECT@@V?$allocator@UtagRECT@@@_STL@@@_STL@@QBEPBUtagRECT@@XZ
_TEXT	SEGMENT PARA USE32 PUBLIC 'CODE'
_TEXT	ENDS
;	COMDAT ?end@?$vector@UtagRECT@@V?$allocator@UtagRECT@@@_STL@@@_STL@@QAEPAUtagRECT@@XZ
_TEXT	SEGMENT PARA USE32 PUBLIC 'CODE'
_TEXT	ENDS
;	COMDAT ?erase@?$vector@UtagRECT@@V?$allocator@UtagRECT@@@_STL@@@_STL@@QAEPAUtagRECT@@PAU3@0@Z
_TEXT	SEGMENT PARA USE32 PUBLIC 'CODE'
_TEXT	ENDS
;	COMDAT ??0?$_Vector_base@UtagRECT@@V?$allocator@UtagRECT@@@_STL@@@_STL@@QAE@ABV?$allocator@UtagRECT@@@1@@Z
_TEXT	SEGMENT PARA USE32 PUBLIC 'CODE'
_TEXT	ENDS
;	COMDAT ??1?$_Vector_base@UtagRECT@@V?$allocator@UtagRECT@@@_STL@@@_STL@@QAE@XZ
_TEXT	SEGMENT PARA USE32 PUBLIC 'CODE'
_TEXT	ENDS
;	COMDAT ?key_comp@?$map@V?$basic_string@DV?$char_traits@D@_STL@@V?$allocator@D@2@@_STL@@HU?$less@V?$basic_string@DV?$char_traits@D@_STL@@V?$allocator@D@2@@_STL@@@2@V?$allocator@U?$pair@$$CBV?$basic_string@DV?$char_traits@D@_STL@@V?$allocator@D@2@@_STL@@H@_STL@@@2@@_STL@@QBE?AU?$less@V?$basic_string@DV?$char_traits@D@_STL@@V?$allocator@D@2@@_STL@@@2@XZ
_TEXT	SEGMENT PARA USE32 PUBLIC 'CODE'
_TEXT	ENDS
;	COMDAT ?insert@?$map@V?$basic_string@DV?$char_traits@D@_STL@@V?$allocator@D@2@@_STL@@HU?$less@V?$basic_string@DV?$char_traits@D@_STL@@V?$allocator@D@2@@_STL@@@2@V?$allocator@U?$pair@$$CBV?$basic_string@DV?$char_traits@D@_STL@@V?$allocator@D@2@@_STL@@H@_STL@@@2@@_STL@@QAE?AU?$_Rb_tree_iterator@U?$pair@$$CBV?$basic_string@DV?$char_traits@D@_STL@@V?$allocator@D@2@@_STL@@H@_STL@@U?$_Nonconst_traits@U?$pair@$$CBV?$basic_string@DV?$char_traits@D@_STL@@V?$allocator@D@2@@_STL@@H@_STL@@@2@@2@U32@ABU?$pair@$$CBV?$basic_string@DV?$char_traits@D@_STL@@V?$allocator@D@2@@_STL@@H@2@@Z
_TEXT	SEGMENT PARA USE32 PUBLIC 'CODE'
_TEXT	ENDS
;	COMDAT ?lower_bound@?$map@V?$basic_string@DV?$char_traits@D@_STL@@V?$allocator@D@2@@_STL@@HU?$less@V?$basic_string@DV?$char_traits@D@_STL@@V?$allocator@D@2@@_STL@@@2@V?$allocator@U?$pair@$$CBV?$basic_string@DV?$char_traits@D@_STL@@V?$allocator@D@2@@_STL@@H@_STL@@@2@@_STL@@QAE?AU?$_Rb_tree_iterator@U?$pair@$$CBV?$basic_string@DV?$char_traits@D@_STL@@V?$allocator@D@2@@_STL@@H@_STL@@U?$_Nonconst_traits@U?$pair@$$CBV?$basic_string@DV?$char_traits@D@_STL@@V?$allocator@D@2@@_STL@@H@_STL@@@2@@2@ABV?$basic_string@DV?$char_traits@D@_STL@@V?$allocator@D@2@@2@@Z
_TEXT	SEGMENT PARA USE32 PUBLIC 'CODE'
_TEXT	ENDS
;	COMDAT ??0?$_Rb_tree@V?$basic_string@DV?$char_traits@D@_STL@@V?$allocator@D@2@@_STL@@U?$pair@$$CBV?$basic_string@DV?$char_traits@D@_STL@@V?$allocator@D@2@@_STL@@H@2@U?$_Select1st@U?$pair@$$CBV?$basic_string@DV?$char_traits@D@_STL@@V?$allocator@D@2@@_STL@@H@_STL@@@2@U?$less@V?$basic_string@DV?$char_traits@D@_STL@@V?$allocator@D@2@@_STL@@@2@V?$allocator@U?$pair@$$CBV?$basic_string@DV?$char_traits@D@_STL@@V?$allocator@D@2@@_STL@@H@_STL@@@2@@_STL@@QAE@ABU?$less@V?$basic_string@DV?$char_traits@D@_STL@@V?$allocator@D@2@@_STL@@@1@ABV?$allocator@U?$pair@$$CBV?$basic_string@DV?$char_traits@D@_STL@@V?$allocator@D@2@@_STL@@H@_STL@@@1@@Z
_TEXT	SEGMENT PARA USE32 PUBLIC 'CODE'
_TEXT	ENDS
;	COMDAT ?end@?$_Rb_tree@V?$basic_string@DV?$char_traits@D@_STL@@V?$allocator@D@2@@_STL@@U?$pair@$$CBV?$basic_string@DV?$char_traits@D@_STL@@V?$allocator@D@2@@_STL@@H@2@U?$_Select1st@U?$pair@$$CBV?$basic_string@DV?$char_traits@D@_STL@@V?$allocator@D@2@@_STL@@H@_STL@@@2@U?$less@V?$basic_string@DV?$char_traits@D@_STL@@V?$allocator@D@2@@_STL@@@2@V?$allocator@U?$pair@$$CBV?$basic_string@DV?$char_traits@D@_STL@@V?$allocator@D@2@@_STL@@H@_STL@@@2@@_STL@@QAE?AU?$_Rb_tree_iterator@U?$pair@$$CBV?$basic_string@DV?$char_traits@D@_STL@@V?$allocator@D@2@@_STL@@H@_STL@@U?$_Nonconst_traits@U?$pair@$$CBV?$basic_string@DV?$char_traits@D@_STL@@V?$allocator@D@2@@_STL@@H@_STL@@@2@@2@XZ
_TEXT	SEGMENT PARA USE32 PUBLIC 'CODE'
_TEXT	ENDS
;	COMDAT ?clear@?$_Rb_tree@V?$basic_string@DV?$char_traits@D@_STL@@V?$allocator@D@2@@_STL@@U?$pair@$$CBV?$basic_string@DV?$char_traits@D@_STL@@V?$allocator@D@2@@_STL@@H@2@U?$_Select1st@U?$pair@$$CBV?$basic_string@DV?$char_traits@D@_STL@@V?$allocator@D@2@@_STL@@H@_STL@@@2@U?$less@V?$basic_string@DV?$char_traits@D@_STL@@V?$allocator@D@2@@_STL@@@2@V?$allocator@U?$pair@$$CBV?$basic_string@DV?$char_traits@D@_STL@@V?$allocator@D@2@@_STL@@H@_STL@@@2@@_STL@@QAEXXZ
_TEXT	SEGMENT PARA USE32 PUBLIC 'CODE'
_TEXT	ENDS
;	COMDAT ??1?$_Rb_tree_base@U?$pair@$$CBV?$basic_string@DV?$char_traits@D@_STL@@V?$allocator@D@2@@_STL@@H@_STL@@V?$allocator@U?$pair@$$CBV?$basic_string@DV?$char_traits@D@_STL@@V?$allocator@D@2@@_STL@@H@_STL@@@2@@_STL@@QAE@XZ
_TEXT	SEGMENT PARA USE32 PUBLIC 'CODE'
_TEXT	ENDS
;	COMDAT ??0?$allocator@U?$pair@$$CBV?$basic_string@DV?$char_traits@D@_STL@@V?$allocator@D@2@@_STL@@H@_STL@@@_STL@@QAE@XZ
_TEXT	SEGMENT PARA USE32 PUBLIC 'CODE'
_TEXT	ENDS
;	COMDAT ??1?$allocator@U?$pair@$$CBV?$basic_string@DV?$char_traits@D@_STL@@V?$allocator@D@2@@_STL@@H@_STL@@@_STL@@QAE@XZ
_TEXT	SEGMENT PARA USE32 PUBLIC 'CODE'
_TEXT	ENDS
;	COMDAT ??R?$less@V?$basic_string@DV?$char_traits@D@_STL@@V?$allocator@D@2@@_STL@@@_STL@@QBE_NABV?$basic_string@DV?$char_traits@D@_STL@@V?$allocator@D@2@@1@0@Z
_TEXT	SEGMENT PARA USE32 PUBLIC 'CODE'
_TEXT	ENDS
;	COMDAT ??0?$_Rb_tree_iterator@U?$pair@$$CBV?$basic_string@DV?$char_traits@D@_STL@@V?$allocator@D@2@@_STL@@H@_STL@@U?$_Nonconst_traits@U?$pair@$$CBV?$basic_string@DV?$char_traits@D@_STL@@V?$allocator@D@2@@_STL@@H@_STL@@@2@@_STL@@QAE@ABU01@@Z
_TEXT	SEGMENT PARA USE32 PUBLIC 'CODE'
_TEXT	ENDS
;	COMDAT ??D?$_Rb_tree_iterator@U?$pair@$$CBV?$basic_string@DV?$char_traits@D@_STL@@V?$allocator@D@2@@_STL@@H@_STL@@U?$_Nonconst_traits@U?$pair@$$CBV?$basic_string@DV?$char_traits@D@_STL@@V?$allocator@D@2@@_STL@@H@_STL@@@2@@_STL@@QBEAAU?$pair@$$CBV?$basic_string@DV?$char_traits@D@_STL@@V?$allocator@D@2@@_STL@@H@1@XZ
_TEXT	SEGMENT PARA USE32 PUBLIC 'CODE'
_TEXT	ENDS
;	COMDAT ??0?$pair@$$CBV?$basic_string@DV?$char_traits@D@_STL@@V?$allocator@D@2@@_STL@@H@_STL@@QAE@ABV?$basic_string@DV?$char_traits@D@_STL@@V?$allocator@D@2@@1@ABH@Z
_TEXT	SEGMENT PARA USE32 PUBLIC 'CODE'
_TEXT	ENDS
;	COMDAT ??1?$_STLP_alloc_proxy@PAUtagPOINT@@U1@V?$allocator@UtagPOINT@@@_STL@@@_STL@@QAE@XZ
_TEXT	SEGMENT PARA USE32 PUBLIC 'CODE'
_TEXT	ENDS
;	COMDAT ??1?$_STLP_alloc_proxy@PAUtagRECT@@U1@V?$allocator@UtagRECT@@@_STL@@@_STL@@QAE@XZ
_TEXT	SEGMENT PARA USE32 PUBLIC 'CODE'
_TEXT	ENDS
;	COMDAT ??1?$_STLP_alloc_proxy@PAU?$_Rb_tree_node@U?$pair@$$CBV?$basic_string@DV?$char_traits@D@_STL@@V?$allocator@D@2@@_STL@@H@_STL@@@_STL@@U12@V?$allocator@U?$_Rb_tree_node@U?$pair@$$CBV?$basic_string@DV?$char_traits@D@_STL@@V?$allocator@D@2@@_STL@@H@_STL@@@_STL@@@2@@_STL@@QAE@XZ
_TEXT	SEGMENT PARA USE32 PUBLIC 'CODE'
_TEXT	ENDS
;	COMDAT ?copy@?$__char_traits_base@DH@_STL@@SAPADPADPBDI@Z
_TEXT	SEGMENT PARA USE32 PUBLIC 'CODE'
_TEXT	ENDS
;	COMDAT ?begin@?$basic_string@DV?$char_traits@D@_STL@@V?$allocator@D@2@@_STL@@QAEPADXZ
_TEXT	SEGMENT PARA USE32 PUBLIC 'CODE'
_TEXT	ENDS
;	COMDAT ?end@?$basic_string@DV?$char_traits@D@_STL@@V?$allocator@D@2@@_STL@@QAEPADXZ
_TEXT	SEGMENT PARA USE32 PUBLIC 'CODE'
_TEXT	ENDS
;	COMDAT ?size@?$basic_string@DV?$char_traits@D@_STL@@V?$allocator@D@2@@_STL@@QBEIXZ
_TEXT	SEGMENT PARA USE32 PUBLIC 'CODE'
_TEXT	ENDS
;	COMDAT ?erase@?$basic_string@DV?$char_traits@D@_STL@@V?$allocator@D@2@@_STL@@QAEPADPAD0@Z
_TEXT	SEGMENT PARA USE32 PUBLIC 'CODE'
_TEXT	ENDS
;	COMDAT ?size@?$vector@UtagPOINT@@V?$allocator@UtagPOINT@@@_STL@@@_STL@@QBEIXZ
_TEXT	SEGMENT PARA USE32 PUBLIC 'CODE'
_TEXT	ENDS
;	COMDAT ?_M_clear@?$vector@UtagPOINT@@V?$allocator@UtagPOINT@@@_STL@@@_STL@@IAEXXZ
_TEXT	SEGMENT PARA USE32 PUBLIC 'CODE'
_TEXT	ENDS
;	COMDAT ?_M_set@?$vector@UtagPOINT@@V?$allocator@UtagPOINT@@@_STL@@@_STL@@IAEXPAUtagPOINT@@00@Z
_TEXT	SEGMENT PARA USE32 PUBLIC 'CODE'
_TEXT	ENDS
;	COMDAT ?allocate@?$allocator@UtagPOINT@@@_STL@@QAEPAUtagPOINT@@IPBX@Z
_TEXT	SEGMENT PARA USE32 PUBLIC 'CODE'
_TEXT	ENDS
;	COMDAT ?deallocate@?$allocator@UtagPOINT@@@_STL@@QAEXPAUtagPOINT@@I@Z
_TEXT	SEGMENT PARA USE32 PUBLIC 'CODE'
_TEXT	ENDS
;	COMDAT ??0?$_STLP_alloc_proxy@PAUtagPOINT@@U1@V?$allocator@UtagPOINT@@@_STL@@@_STL@@QAE@ABV?$allocator@UtagPOINT@@@1@PAUtagPOINT@@@Z
_TEXT	SEGMENT PARA USE32 PUBLIC 'CODE'
_TEXT	ENDS
;	COMDAT ?size@?$vector@UtagRECT@@V?$allocator@UtagRECT@@@_STL@@@_STL@@QBEIXZ
_TEXT	SEGMENT PARA USE32 PUBLIC 'CODE'
_TEXT	ENDS
;	COMDAT ?_M_clear@?$vector@UtagRECT@@V?$allocator@UtagRECT@@@_STL@@@_STL@@IAEXXZ
_TEXT	SEGMENT PARA USE32 PUBLIC 'CODE'
_TEXT	ENDS
;	COMDAT ?_M_set@?$vector@UtagRECT@@V?$allocator@UtagRECT@@@_STL@@@_STL@@IAEXPAUtagRECT@@00@Z
_TEXT	SEGMENT PARA USE32 PUBLIC 'CODE'
_TEXT	ENDS
;	COMDAT ?allocate@?$allocator@UtagRECT@@@_STL@@QAEPAUtagRECT@@IPBX@Z
_TEXT	SEGMENT PARA USE32 PUBLIC 'CODE'
_TEXT	ENDS
;	COMDAT ?deallocate@?$allocator@UtagRECT@@@_STL@@QAEXPAUtagRECT@@I@Z
_TEXT	SEGMENT PARA USE32 PUBLIC 'CODE'
_TEXT	ENDS
;	COMDAT ??0?$_STLP_alloc_proxy@PAUtagRECT@@U1@V?$allocator@UtagRECT@@@_STL@@@_STL@@QAE@ABV?$allocator@UtagRECT@@@1@PAUtagRECT@@@Z
_TEXT	SEGMENT PARA USE32 PUBLIC 'CODE'
_TEXT	ENDS
;	COMDAT ?_M_root@?$_Rb_tree@V?$basic_string@DV?$char_traits@D@_STL@@V?$allocator@D@2@@_STL@@U?$pair@$$CBV?$basic_string@DV?$char_traits@D@_STL@@V?$allocator@D@2@@_STL@@H@2@U?$_Select1st@U?$pair@$$CBV?$basic_string@DV?$char_traits@D@_STL@@V?$allocator@D@2@@_STL@@H@_STL@@@2@U?$less@V?$basic_string@DV?$char_traits@D@_STL@@V?$allocator@D@2@@_STL@@@2@V?$allocator@U?$pair@$$CBV?$basic_string@DV?$char_traits@D@_STL@@V?$allocator@D@2@@_STL@@H@_STL@@@2@@_STL@@IBEAAPAU?$_Rb_tree_node@U?$pair@$$CBV?$basic_string@DV?$char_traits@D@_STL@@V?$allocator@D@2@@_STL@@H@_STL@@@2@XZ
_TEXT	SEGMENT PARA USE32 PUBLIC 'CODE'
_TEXT	ENDS
;	COMDAT ?_M_leftmost@?$_Rb_tree@V?$basic_string@DV?$char_traits@D@_STL@@V?$allocator@D@2@@_STL@@U?$pair@$$CBV?$basic_string@DV?$char_traits@D@_STL@@V?$allocator@D@2@@_STL@@H@2@U?$_Select1st@U?$pair@$$CBV?$basic_string@DV?$char_traits@D@_STL@@V?$allocator@D@2@@_STL@@H@_STL@@@2@U?$less@V?$basic_string@DV?$char_traits@D@_STL@@V?$allocator@D@2@@_STL@@@2@V?$allocator@U?$pair@$$CBV?$basic_string@DV?$char_traits@D@_STL@@V?$allocator@D@2@@_STL@@H@_STL@@@2@@_STL@@IBEAAPAU?$_Rb_tree_node@U?$pair@$$CBV?$basic_string@DV?$char_traits@D@_STL@@V?$allocator@D@2@@_STL@@H@_STL@@@2@XZ
_TEXT	SEGMENT PARA USE32 PUBLIC 'CODE'
_TEXT	ENDS
;	COMDAT ?_M_rightmost@?$_Rb_tree@V?$basic_string@DV?$char_traits@D@_STL@@V?$allocator@D@2@@_STL@@U?$pair@$$CBV?$basic_string@DV?$char_traits@D@_STL@@V?$allocator@D@2@@_STL@@H@2@U?$_Select1st@U?$pair@$$CBV?$basic_string@DV?$char_traits@D@_STL@@V?$allocator@D@2@@_STL@@H@_STL@@@2@U?$less@V?$basic_string@DV?$char_traits@D@_STL@@V?$allocator@D@2@@_STL@@@2@V?$allocator@U?$pair@$$CBV?$basic_string@DV?$char_traits@D@_STL@@V?$allocator@D@2@@_STL@@H@_STL@@@2@@_STL@@IBEAAPAU?$_Rb_tree_node@U?$pair@$$CBV?$basic_string@DV?$char_traits@D@_STL@@V?$allocator@D@2@@_STL@@H@_STL@@@2@XZ
_TEXT	SEGMENT PARA USE32 PUBLIC 'CODE'
_TEXT	ENDS
;	COMDAT ?_M_empty_initialize@?$_Rb_tree@V?$basic_string@DV?$char_traits@D@_STL@@V?$allocator@D@2@@_STL@@U?$pair@$$CBV?$basic_string@DV?$char_traits@D@_STL@@V?$allocator@D@2@@_STL@@H@2@U?$_Select1st@U?$pair@$$CBV?$basic_string@DV?$char_traits@D@_STL@@V?$allocator@D@2@@_STL@@H@_STL@@@2@U?$less@V?$basic_string@DV?$char_traits@D@_STL@@V?$allocator@D@2@@_STL@@@2@V?$allocator@U?$pair@$$CBV?$basic_string@DV?$char_traits@D@_STL@@V?$allocator@D@2@@_STL@@H@_STL@@@2@@_STL@@AAEXXZ
_TEXT	SEGMENT PARA USE32 PUBLIC 'CODE'
_TEXT	ENDS
;	COMDAT ?key_comp@?$_Rb_tree@V?$basic_string@DV?$char_traits@D@_STL@@V?$allocator@D@2@@_STL@@U?$pair@$$CBV?$basic_string@DV?$char_traits@D@_STL@@V?$allocator@D@2@@_STL@@H@2@U?$_Select1st@U?$pair@$$CBV?$basic_string@DV?$char_traits@D@_STL@@V?$allocator@D@2@@_STL@@H@_STL@@@2@U?$less@V?$basic_string@DV?$char_traits@D@_STL@@V?$allocator@D@2@@_STL@@@2@V?$allocator@U?$pair@$$CBV?$basic_string@DV?$char_traits@D@_STL@@V?$allocator@D@2@@_STL@@H@_STL@@@2@@_STL@@QBE?AU?$less@V?$basic_string@DV?$char_traits@D@_STL@@V?$allocator@D@2@@_STL@@@2@XZ
_TEXT	SEGMENT PARA USE32 PUBLIC 'CODE'
_TEXT	ENDS
;	COMDAT ?lower_bound@?$_Rb_tree@V?$basic_string@DV?$char_traits@D@_STL@@V?$allocator@D@2@@_STL@@U?$pair@$$CBV?$basic_string@DV?$char_traits@D@_STL@@V?$allocator@D@2@@_STL@@H@2@U?$_Select1st@U?$pair@$$CBV?$basic_string@DV?$char_traits@D@_STL@@V?$allocator@D@2@@_STL@@H@_STL@@@2@U?$less@V?$basic_string@DV?$char_traits@D@_STL@@V?$allocator@D@2@@_STL@@@2@V?$allocator@U?$pair@$$CBV?$basic_string@DV?$char_traits@D@_STL@@V?$allocator@D@2@@_STL@@H@_STL@@@2@@_STL@@QAE?AU?$_Rb_tree_iterator@U?$pair@$$CBV?$basic_string@DV?$char_traits@D@_STL@@V?$allocator@D@2@@_STL@@H@_STL@@U?$_Nonconst_traits@U?$pair@$$CBV?$basic_string@DV?$char_traits@D@_STL@@V?$allocator@D@2@@_STL@@H@_STL@@@2@@2@ABV?$basic_string@DV?$char_traits@D@_STL@@V?$allocator@D@2@@2@@Z
_TEXT	SEGMENT PARA USE32 PUBLIC 'CODE'
_TEXT	ENDS
;	COMDAT ??0?$_Rb_tree_base@U?$pair@$$CBV?$basic_string@DV?$char_traits@D@_STL@@V?$allocator@D@2@@_STL@@H@_STL@@V?$allocator@U?$pair@$$CBV?$basic_string@DV?$char_traits@D@_STL@@V?$allocator@D@2@@_STL@@H@_STL@@@2@@_STL@@QAE@ABV?$allocator@U?$pair@$$CBV?$basic_string@DV?$char_traits@D@_STL@@V?$allocator@D@2@@_STL@@H@_STL@@@1@@Z
_TEXT	SEGMENT PARA USE32 PUBLIC 'CODE'
_TEXT	ENDS
;	COMDAT ??1?$allocator@U?$_Rb_tree_node@U?$pair@$$CBV?$basic_string@DV?$char_traits@D@_STL@@V?$allocator@D@2@@_STL@@H@_STL@@@_STL@@@_STL@@QAE@XZ
_TEXT	SEGMENT PARA USE32 PUBLIC 'CODE'
_TEXT	ENDS
;	COMDAT ?deallocate@?$allocator@U?$_Rb_tree_node@U?$pair@$$CBV?$basic_string@DV?$char_traits@D@_STL@@V?$allocator@D@2@@_STL@@H@_STL@@@_STL@@@_STL@@QAEXPAU?$_Rb_tree_node@U?$pair@$$CBV?$basic_string@DV?$char_traits@D@_STL@@V?$allocator@D@2@@_STL@@H@_STL@@@2@I@Z
_TEXT	SEGMENT PARA USE32 PUBLIC 'CODE'
_TEXT	ENDS
;	COMDAT ??0?$_Rb_tree_iterator@U?$pair@$$CBV?$basic_string@DV?$char_traits@D@_STL@@V?$allocator@D@2@@_STL@@H@_STL@@U?$_Nonconst_traits@U?$pair@$$CBV?$basic_string@DV?$char_traits@D@_STL@@V?$allocator@D@2@@_STL@@H@_STL@@@2@@_STL@@QAE@PAU?$_Rb_tree_node@U?$pair@$$CBV?$basic_string@DV?$char_traits@D@_STL@@V?$allocator@D@2@@_STL@@H@_STL@@@1@@Z
_TEXT	SEGMENT PARA USE32 PUBLIC 'CODE'
_TEXT	ENDS
;	COMDAT ?move@?$__char_traits_base@DH@_STL@@SAPADPADPBDI@Z
_TEXT	SEGMENT PARA USE32 PUBLIC 'CODE'
_TEXT	ENDS
;	COMDAT ?allocate@?$__node_alloc@$00$0A@@_STL@@SAPAXI@Z
_TEXT	SEGMENT PARA USE32 PUBLIC 'CODE'
_TEXT	ENDS
;	COMDAT ??0?$allocator@UtagPOINT@@@_STL@@QAE@ABV01@@Z
_TEXT	SEGMENT PARA USE32 PUBLIC 'CODE'
_TEXT	ENDS
;	COMDAT ??0?$allocator@UtagRECT@@@_STL@@QAE@ABV01@@Z
_TEXT	SEGMENT PARA USE32 PUBLIC 'CODE'
_TEXT	ENDS
;	COMDAT ?_S_color@?$_Rb_tree@V?$basic_string@DV?$char_traits@D@_STL@@V?$allocator@D@2@@_STL@@U?$pair@$$CBV?$basic_string@DV?$char_traits@D@_STL@@V?$allocator@D@2@@_STL@@H@2@U?$_Select1st@U?$pair@$$CBV?$basic_string@DV?$char_traits@D@_STL@@V?$allocator@D@2@@_STL@@H@_STL@@@2@U?$less@V?$basic_string@DV?$char_traits@D@_STL@@V?$allocator@D@2@@_STL@@@2@V?$allocator@U?$pair@$$CBV?$basic_string@DV?$char_traits@D@_STL@@V?$allocator@D@2@@_STL@@H@_STL@@@2@@_STL@@KAAA_NPAU?$_Rb_tree_node@U?$pair@$$CBV?$basic_string@DV?$char_traits@D@_STL@@V?$allocator@D@2@@_STL@@H@_STL@@@2@@Z
_TEXT	SEGMENT PARA USE32 PUBLIC 'CODE'
_TEXT	ENDS
;	COMDAT ?_M_lower_bound@?$_Rb_tree@V?$basic_string@DV?$char_traits@D@_STL@@V?$allocator@D@2@@_STL@@U?$pair@$$CBV?$basic_string@DV?$char_traits@D@_STL@@V?$allocator@D@2@@_STL@@H@2@U?$_Select1st@U?$pair@$$CBV?$basic_string@DV?$char_traits@D@_STL@@V?$allocator@D@2@@_STL@@H@_STL@@@2@U?$less@V?$basic_string@DV?$char_traits@D@_STL@@V?$allocator@D@2@@_STL@@@2@V?$allocator@U?$pair@$$CBV?$basic_string@DV?$char_traits@D@_STL@@V?$allocator@D@2@@_STL@@H@_STL@@@2@@_STL@@ABEPAU?$_Rb_tree_node@U?$pair@$$CBV?$basic_string@DV?$char_traits@D@_STL@@V?$allocator@D@2@@_STL@@H@_STL@@@2@ABV?$basic_string@DV?$char_traits@D@_STL@@V?$allocator@D@2@@2@@Z
_TEXT	SEGMENT PARA USE32 PUBLIC 'CODE'
_TEXT	ENDS
;	COMDAT ??0?$_STLP_alloc_proxy@PAU?$_Rb_tree_node@U?$pair@$$CBV?$basic_string@DV?$char_traits@D@_STL@@V?$allocator@D@2@@_STL@@H@_STL@@@_STL@@U12@V?$allocator@U?$_Rb_tree_node@U?$pair@$$CBV?$basic_string@DV?$char_traits@D@_STL@@V?$allocator@D@2@@_STL@@H@_STL@@@_STL@@@2@@_STL@@QAE@ABV?$allocator@U?$_Rb_tree_node@U?$pair@$$CBV?$basic_string@DV?$char_traits@D@_STL@@V?$allocator@D@2@@_STL@@H@_STL@@@_STL@@@1@PAU?$_Rb_tree_node@U?$pair@$$CBV?$basic_string@DV?$char_traits@D@_STL@@V?$allocator@D@2@@_STL@@H@_STL@@@1@@Z
_TEXT	SEGMENT PARA USE32 PUBLIC 'CODE'
_TEXT	ENDS
;	COMDAT ?allocate@?$allocator@U?$_Rb_tree_node@U?$pair@$$CBV?$basic_string@DV?$char_traits@D@_STL@@V?$allocator@D@2@@_STL@@H@_STL@@@_STL@@@_STL@@QAEPAU?$_Rb_tree_node@U?$pair@$$CBV?$basic_string@DV?$char_traits@D@_STL@@V?$allocator@D@2@@_STL@@H@_STL@@@2@IPBX@Z
_TEXT	SEGMENT PARA USE32 PUBLIC 'CODE'
_TEXT	ENDS
;	COMDAT ?_S_left@?$_Rb_tree@V?$basic_string@DV?$char_traits@D@_STL@@V?$allocator@D@2@@_STL@@U?$pair@$$CBV?$basic_string@DV?$char_traits@D@_STL@@V?$allocator@D@2@@_STL@@H@2@U?$_Select1st@U?$pair@$$CBV?$basic_string@DV?$char_traits@D@_STL@@V?$allocator@D@2@@_STL@@H@_STL@@@2@U?$less@V?$basic_string@DV?$char_traits@D@_STL@@V?$allocator@D@2@@_STL@@@2@V?$allocator@U?$pair@$$CBV?$basic_string@DV?$char_traits@D@_STL@@V?$allocator@D@2@@_STL@@H@_STL@@@2@@_STL@@KAAAPAU?$_Rb_tree_node@U?$pair@$$CBV?$basic_string@DV?$char_traits@D@_STL@@V?$allocator@D@2@@_STL@@H@_STL@@@2@PAU32@@Z
_TEXT	SEGMENT PARA USE32 PUBLIC 'CODE'
_TEXT	ENDS
;	COMDAT ?_S_right@?$_Rb_tree@V?$basic_string@DV?$char_traits@D@_STL@@V?$allocator@D@2@@_STL@@U?$pair@$$CBV?$basic_string@DV?$char_traits@D@_STL@@V?$allocator@D@2@@_STL@@H@2@U?$_Select1st@U?$pair@$$CBV?$basic_string@DV?$char_traits@D@_STL@@V?$allocator@D@2@@_STL@@H@_STL@@@2@U?$less@V?$basic_string@DV?$char_traits@D@_STL@@V?$allocator@D@2@@_STL@@@2@V?$allocator@U?$pair@$$CBV?$basic_string@DV?$char_traits@D@_STL@@V?$allocator@D@2@@_STL@@H@_STL@@@2@@_STL@@KAAAPAU?$_Rb_tree_node@U?$pair@$$CBV?$basic_string@DV?$char_traits@D@_STL@@V?$allocator@D@2@@_STL@@H@_STL@@@2@PAU32@@Z
_TEXT	SEGMENT PARA USE32 PUBLIC 'CODE'
_TEXT	ENDS
;	COMDAT ?_S_key@?$_Rb_tree@V?$basic_string@DV?$char_traits@D@_STL@@V?$allocator@D@2@@_STL@@U?$pair@$$CBV?$basic_string@DV?$char_traits@D@_STL@@V?$allocator@D@2@@_STL@@H@2@U?$_Select1st@U?$pair@$$CBV?$basic_string@DV?$char_traits@D@_STL@@V?$allocator@D@2@@_STL@@H@_STL@@@2@U?$less@V?$basic_string@DV?$char_traits@D@_STL@@V?$allocator@D@2@@_STL@@@2@V?$allocator@U?$pair@$$CBV?$basic_string@DV?$char_traits@D@_STL@@V?$allocator@D@2@@_STL@@H@_STL@@@2@@_STL@@KAABV?$basic_string@DV?$char_traits@D@_STL@@V?$allocator@D@2@@2@PAU?$_Rb_tree_node@U?$pair@$$CBV?$basic_string@DV?$char_traits@D@_STL@@V?$allocator@D@2@@_STL@@H@_STL@@@2@@Z
_TEXT	SEGMENT PARA USE32 PUBLIC 'CODE'
_TEXT	ENDS
;	COMDAT ??0?$allocator@U?$_Rb_tree_node@U?$pair@$$CBV?$basic_string@DV?$char_traits@D@_STL@@V?$allocator@D@2@@_STL@@H@_STL@@@_STL@@@_STL@@QAE@ABV01@@Z
_TEXT	SEGMENT PARA USE32 PUBLIC 'CODE'
_TEXT	ENDS
;	COMDAT ?_S_value@?$_Rb_tree@V?$basic_string@DV?$char_traits@D@_STL@@V?$allocator@D@2@@_STL@@U?$pair@$$CBV?$basic_string@DV?$char_traits@D@_STL@@V?$allocator@D@2@@_STL@@H@2@U?$_Select1st@U?$pair@$$CBV?$basic_string@DV?$char_traits@D@_STL@@V?$allocator@D@2@@_STL@@H@_STL@@@2@U?$less@V?$basic_string@DV?$char_traits@D@_STL@@V?$allocator@D@2@@_STL@@@2@V?$allocator@U?$pair@$$CBV?$basic_string@DV?$char_traits@D@_STL@@V?$allocator@D@2@@_STL@@H@_STL@@@2@@_STL@@KAAAU?$pair@$$CBV?$basic_string@DV?$char_traits@D@_STL@@V?$allocator@D@2@@_STL@@H@2@PAU?$_Rb_tree_node@U?$pair@$$CBV?$basic_string@DV?$char_traits@D@_STL@@V?$allocator@D@2@@_STL@@H@_STL@@@2@@Z
_TEXT	SEGMENT PARA USE32 PUBLIC 'CODE'
_TEXT	ENDS
;	COMDAT ??R?$_Select1st@U?$pair@$$CBV?$basic_string@DV?$char_traits@D@_STL@@V?$allocator@D@2@@_STL@@H@_STL@@@_STL@@QBEABV?$basic_string@DV?$char_traits@D@_STL@@V?$allocator@D@2@@1@ABU?$pair@$$CBV?$basic_string@DV?$char_traits@D@_STL@@V?$allocator@D@2@@_STL@@H@1@@Z
_TEXT	SEGMENT PARA USE32 PUBLIC 'CODE'
_TEXT	ENDS
;	COMDAT ?close@?$basic_filebuf@DV?$char_traits@D@_STL@@@_STL@@QAEPAV12@XZ
_TEXT	SEGMENT PARA USE32 PUBLIC 'CODE'
_TEXT	ENDS
;	COMDAT ?_M_exit_input_mode@?$basic_filebuf@DV?$char_traits@D@_STL@@@_STL@@AAEXXZ
_TEXT	SEGMENT PARA USE32 PUBLIC 'CODE'
_TEXT	ENDS
;	COMDAT ?_M_switch_to_output_mode@?$basic_filebuf@DV?$char_traits@D@_STL@@@_STL@@AAE_NXZ
_TEXT	SEGMENT PARA USE32 PUBLIC 'CODE'
_TEXT	ENDS
;	COMDAT ?_M_output_error@?$basic_filebuf@DV?$char_traits@D@_STL@@@_STL@@AAEHXZ
_TEXT	SEGMENT PARA USE32 PUBLIC 'CODE'
_TEXT	ENDS
;	COMDAT ?_M_allocate_buffers@?$basic_filebuf@DV?$char_traits@D@_STL@@@_STL@@AAE_NPADH@Z
_TEXT	SEGMENT PARA USE32 PUBLIC 'CODE'
_TEXT	ENDS
;	COMDAT ?_M_deallocate_buffers@?$basic_filebuf@DV?$char_traits@D@_STL@@@_STL@@AAEXXZ
_TEXT	SEGMENT PARA USE32 PUBLIC 'CODE'
_TEXT	ENDS
;	COMDAT ?_M_seek_init@?$basic_filebuf@DV?$char_traits@D@_STL@@@_STL@@AAE_N_N@Z
_TEXT	SEGMENT PARA USE32 PUBLIC 'CODE'
_TEXT	ENDS
;	COMDAT ?_M_setup_codecvt@?$basic_filebuf@DV?$char_traits@D@_STL@@@_STL@@AAEXABVlocale@2@@Z
_TEXT	SEGMENT PARA USE32 PUBLIC 'CODE'
_TEXT	ENDS
;	COMDAT ??$equal@PADPADU?$_Eq_traits@V?$char_traits@D@_STL@@@_STL@@@_STL@@YA_NPAD00U?$_Eq_traits@V?$char_traits@D@_STL@@@0@@Z
_TEXT	SEGMENT PARA USE32 PUBLIC 'CODE'
_TEXT	ENDS
;	COMDAT ??0?$basic_string@DV?$char_traits@D@_STL@@V?$allocator@D@2@@_STL@@QAE@PBDABV?$allocator@D@1@@Z
_TEXT	SEGMENT PARA USE32 PUBLIC 'CODE'
_TEXT	ENDS
;	COMDAT ??0?$basic_string@DV?$char_traits@D@_STL@@V?$allocator@D@2@@_STL@@QAE@ABV01@@Z
_TEXT	SEGMENT PARA USE32 PUBLIC 'CODE'
_TEXT	ENDS
;	COMDAT ??0?$basic_string@DV?$char_traits@D@_STL@@V?$allocator@D@2@@_STL@@QAE@XZ
_TEXT	SEGMENT PARA USE32 PUBLIC 'CODE'
_TEXT	ENDS
;	COMDAT ??0?$CTypeTable@VInterfaceInformation@@@@QAE@XZ
_TEXT	SEGMENT PARA USE32 PUBLIC 'CODE'
_TEXT	ENDS
;	COMDAT ??1?$CTypeTable@VInterfaceInformation@@@@QAE@XZ
_TEXT	SEGMENT PARA USE32 PUBLIC 'CODE'
_TEXT	ENDS
;	COMDAT ?Init@?$CTypeTable@VInterfaceInformation@@@@QAEXH@Z
_TEXT	SEGMENT PARA USE32 PUBLIC 'CODE'
_TEXT	ENDS
;	COMDAT ??$?9DV?$char_traits@D@_STL@@V?$allocator@D@1@@_STL@@YA_NABV?$basic_string@DV?$char_traits@D@_STL@@V?$allocator@D@2@@0@PBD@Z
_TEXT	SEGMENT PARA USE32 PUBLIC 'CODE'
_TEXT	ENDS
;	COMDAT ?_M_erase@?$_Rb_tree@V?$basic_string@DV?$char_traits@D@_STL@@V?$allocator@D@2@@_STL@@U?$pair@$$CBV?$basic_string@DV?$char_traits@D@_STL@@V?$allocator@D@2@@_STL@@H@2@U?$_Select1st@U?$pair@$$CBV?$basic_string@DV?$char_traits@D@_STL@@V?$allocator@D@2@@_STL@@H@_STL@@@2@U?$less@V?$basic_string@DV?$char_traits@D@_STL@@V?$allocator@D@2@@_STL@@@2@V?$allocator@U?$pair@$$CBV?$basic_string@DV?$char_traits@D@_STL@@V?$allocator@D@2@@_STL@@H@_STL@@@2@@_STL@@AAEXPAU?$_Rb_tree_node@U?$pair@$$CBV?$basic_string@DV?$char_traits@D@_STL@@V?$allocator@D@2@@_STL@@H@_STL@@@2@@Z
_TEXT	SEGMENT PARA USE32 PUBLIC 'CODE'
_TEXT	ENDS
;	COMDAT ?insert_unique@?$_Rb_tree@V?$basic_string@DV?$char_traits@D@_STL@@V?$allocator@D@2@@_STL@@U?$pair@$$CBV?$basic_string@DV?$char_traits@D@_STL@@V?$allocator@D@2@@_STL@@H@2@U?$_Select1st@U?$pair@$$CBV?$basic_string@DV?$char_traits@D@_STL@@V?$allocator@D@2@@_STL@@H@_STL@@@2@U?$less@V?$basic_string@DV?$char_traits@D@_STL@@V?$allocator@D@2@@_STL@@@2@V?$allocator@U?$pair@$$CBV?$basic_string@DV?$char_traits@D@_STL@@V?$allocator@D@2@@_STL@@H@_STL@@@2@@_STL@@QAE?AU?$_Rb_tree_iterator@U?$pair@$$CBV?$basic_string@DV?$char_traits@D@_STL@@V?$allocator@D@2@@_STL@@H@_STL@@U?$_Nonconst_traits@U?$pair@$$CBV?$basic_string@DV?$char_traits@D@_STL@@V?$allocator@D@2@@_STL@@H@_STL@@@2@@2@U32@ABU?$pair@$$CBV?$basic_string@DV?$char_traits@D@_STL@@V?$allocator@D@2@@_STL@@H@2@@Z
_TEXT	SEGMENT PARA USE32 PUBLIC 'CODE'
_TEXT	ENDS
;	COMDAT ??$_Destroy@PAUtagPOINT@@@_STL@@YAXPAUtagPOINT@@0@Z
_TEXT	SEGMENT PARA USE32 PUBLIC 'CODE'
_TEXT	ENDS
;	COMDAT ??$_Construct@UtagPOINT@@U1@@_STL@@YAXPAUtagPOINT@@ABU1@@Z
_TEXT	SEGMENT PARA USE32 PUBLIC 'CODE'
_TEXT	ENDS
;	COMDAT ??$_Destroy@PAUtagRECT@@@_STL@@YAXPAUtagRECT@@0@Z
_TEXT	SEGMENT PARA USE32 PUBLIC 'CODE'
_TEXT	ENDS
;	COMDAT ??$_Construct@UtagRECT@@U1@@_STL@@YAXPAUtagRECT@@ABU1@@Z
_TEXT	SEGMENT PARA USE32 PUBLIC 'CODE'
_TEXT	ENDS
;	COMDAT ??$find@V?$basic_string@DV?$char_traits@D@_STL@@V?$allocator@D@2@@_STL@@@?$_Rb_tree@V?$basic_string@DV?$char_traits@D@_STL@@V?$allocator@D@2@@_STL@@U?$pair@$$CBV?$basic_string@DV?$char_traits@D@_STL@@V?$allocator@D@2@@_STL@@H@2@U?$_Select1st@U?$pair@$$CBV?$basic_string@DV?$char_traits@D@_STL@@V?$allocator@D@2@@_STL@@H@_STL@@@2@U?$less@V?$basic_string@DV?$char_traits@D@_STL@@V?$allocator@D@2@@_STL@@@2@V?$allocator@U?$pair@$$CBV?$basic_string@DV?$char_traits@D@_STL@@V?$allocator@D@2@@_STL@@H@_STL@@@2@@_STL@@QAE?AU?$_Rb_tree_iterator@U?$pair@$$CBV?$basic_string@DV?$char_traits@D@_STL@@V?$allocator@D@2@@_STL@@H@_STL@@U?$_Nonconst_traits@U?$pair@$$CBV?$basic_string@DV?$char_traits@D@_STL@@V?$allocator@D@2@@_STL@@H@_STL@@@2@@1@ABV?$basic_string@DV?$char_traits@D@_STL@@V?$allocator@D@2@@1@@Z
_TEXT	SEGMENT PARA USE32 PUBLIC 'CODE'
_TEXT	ENDS
;	COMDAT ??$append@PBD@?$basic_string@DV?$char_traits@D@_STL@@V?$allocator@D@2@@_STL@@QAEAAV01@PBD0@Z
_TEXT	SEGMENT PARA USE32 PUBLIC 'CODE'
_TEXT	ENDS
;	COMDAT ??$max@I@_STL@@YAABIABI0@Z
_TEXT	SEGMENT PARA USE32 PUBLIC 'CODE'
_TEXT	ENDS
;	COMDAT ??$__uninitialized_copy@PAUtagPOINT@@PAU1@@_STL@@YAPAUtagPOINT@@PAU1@00ABU__false_type@0@@Z
_TEXT	SEGMENT PARA USE32 PUBLIC 'CODE'
_TEXT	ENDS
;	COMDAT ??$__uninitialized_fill_n@PAUtagPOINT@@IU1@@_STL@@YAPAUtagPOINT@@PAU1@IABU1@ABU__false_type@0@@Z
_TEXT	SEGMENT PARA USE32 PUBLIC 'CODE'
_TEXT	ENDS
;	COMDAT ??$__copy_ptrs@PAUtagPOINT@@PAU1@@_STL@@YAPAUtagPOINT@@PAU1@00ABU__false_type@0@@Z
_TEXT	SEGMENT PARA USE32 PUBLIC 'CODE'
_TEXT	ENDS
;	COMDAT ??$__uninitialized_copy@PAUtagRECT@@PAU1@@_STL@@YAPAUtagRECT@@PAU1@00ABU__false_type@0@@Z
_TEXT	SEGMENT PARA USE32 PUBLIC 'CODE'
_TEXT	ENDS
;	COMDAT ??$__uninitialized_fill_n@PAUtagRECT@@IU1@@_STL@@YAPAUtagRECT@@PAU1@IABU1@ABU__false_type@0@@Z
_TEXT	SEGMENT PARA USE32 PUBLIC 'CODE'
_TEXT	ENDS
;	COMDAT ??$__copy_ptrs@PAUtagRECT@@PAU1@@_STL@@YAPAUtagRECT@@PAU1@00ABU__false_type@0@@Z
_TEXT	SEGMENT PARA USE32 PUBLIC 'CODE'
_TEXT	ENDS
;	COMDAT ??$?MDV?$char_traits@D@_STL@@V?$allocator@D@1@@_STL@@YA_NABV?$basic_string@DV?$char_traits@D@_STL@@V?$allocator@D@2@@0@0@Z
_TEXT	SEGMENT PARA USE32 PUBLIC 'CODE'
_TEXT	ENDS
;	COMDAT ??$?0U?$pair@$$CBV?$basic_string@DV?$char_traits@D@_STL@@V?$allocator@D@2@@_STL@@H@_STL@@@?$allocator@U?$_Rb_tree_node@U?$pair@$$CBV?$basic_string@DV?$char_traits@D@_STL@@V?$allocator@D@2@@_STL@@H@_STL@@@_STL@@@_STL@@QAE@ABV?$allocator@U?$pair@$$CBV?$basic_string@DV?$char_traits@D@_STL@@V?$allocator@D@2@@_STL@@H@_STL@@@1@@Z
_TEXT	SEGMENT PARA USE32 PUBLIC 'CODE'
_TEXT	ENDS
;	COMDAT ??_EInterfaceInformation@@QAEPAXI@Z
_TEXT	SEGMENT PARA USE32 PUBLIC 'CODE'
_TEXT	ENDS
;	COMDAT ?get_allocator@?$basic_string@DV?$char_traits@D@_STL@@V?$allocator@D@2@@_STL@@QBE?AV?$allocator@D@2@XZ
_TEXT	SEGMENT PARA USE32 PUBLIC 'CODE'
_TEXT	ENDS
;	COMDAT ?_M_terminate_string@?$basic_string@DV?$char_traits@D@_STL@@V?$allocator@D@2@@_STL@@AAEXXZ
_TEXT	SEGMENT PARA USE32 PUBLIC 'CODE'
_TEXT	ENDS
;	COMDAT ?begin@?$basic_string@DV?$char_traits@D@_STL@@V?$allocator@D@2@@_STL@@QBEPBDXZ
_TEXT	SEGMENT PARA USE32 PUBLIC 'CODE'
_TEXT	ENDS
;	COMDAT ?end@?$basic_string@DV?$char_traits@D@_STL@@V?$allocator@D@2@@_STL@@QBEPBDXZ
_TEXT	SEGMENT PARA USE32 PUBLIC 'CODE'
_TEXT	ENDS
;	COMDAT ?_M_compare@?$basic_string@DV?$char_traits@D@_STL@@V?$allocator@D@2@@_STL@@SAHPBD000@Z
_TEXT	SEGMENT PARA USE32 PUBLIC 'CODE'
_TEXT	ENDS
;	COMDAT ??0?$_String_base@DV?$allocator@D@_STL@@@_STL@@QAE@ABV?$allocator@D@1@@Z
_TEXT	SEGMENT PARA USE32 PUBLIC 'CODE'
_TEXT	ENDS
;	COMDAT ?allocate@?$allocator@D@_STL@@QAEPADIPBX@Z
_TEXT	SEGMENT PARA USE32 PUBLIC 'CODE'
_TEXT	ENDS
;	COMDAT ?_M_exit_putback_mode@?$basic_filebuf@DV?$char_traits@D@_STL@@@_STL@@AAEXXZ
_TEXT	SEGMENT PARA USE32 PUBLIC 'CODE'
_TEXT	ENDS
;	COMDAT ??R?$_Eq_traits@V?$char_traits@D@_STL@@@_STL@@QBE_NABD0@Z
_TEXT	SEGMENT PARA USE32 PUBLIC 'CODE'
_TEXT	ENDS
;	COMDAT ?_S_right@?$_Rb_tree@V?$basic_string@DV?$char_traits@D@_STL@@V?$allocator@D@2@@_STL@@U?$pair@$$CBV?$basic_string@DV?$char_traits@D@_STL@@V?$allocator@D@2@@_STL@@H@2@U?$_Select1st@U?$pair@$$CBV?$basic_string@DV?$char_traits@D@_STL@@V?$allocator@D@2@@_STL@@H@_STL@@@2@U?$less@V?$basic_string@DV?$char_traits@D@_STL@@V?$allocator@D@2@@_STL@@@2@V?$allocator@U?$pair@$$CBV?$basic_string@DV?$char_traits@D@_STL@@V?$allocator@D@2@@_STL@@H@_STL@@@2@@_STL@@KAAAPAU?$_Rb_tree_node@U?$pair@$$CBV?$basic_string@DV?$char_traits@D@_STL@@V?$allocator@D@2@@_STL@@H@_STL@@@2@PAU_Rb_tree_node_base@2@@Z
_TEXT	SEGMENT PARA USE32 PUBLIC 'CODE'
_TEXT	ENDS
;	COMDAT ?_S_key@?$_Rb_tree@V?$basic_string@DV?$char_traits@D@_STL@@V?$allocator@D@2@@_STL@@U?$pair@$$CBV?$basic_string@DV?$char_traits@D@_STL@@V?$allocator@D@2@@_STL@@H@2@U?$_Select1st@U?$pair@$$CBV?$basic_string@DV?$char_traits@D@_STL@@V?$allocator@D@2@@_STL@@H@_STL@@@2@U?$less@V?$basic_string@DV?$char_traits@D@_STL@@V?$allocator@D@2@@_STL@@@2@V?$allocator@U?$pair@$$CBV?$basic_string@DV?$char_traits@D@_STL@@V?$allocator@D@2@@_STL@@H@_STL@@@2@@_STL@@KAABV?$basic_string@DV?$char_traits@D@_STL@@V?$allocator@D@2@@2@PAU_Rb_tree_node_base@2@@Z
_TEXT	SEGMENT PARA USE32 PUBLIC 'CODE'
_TEXT	ENDS
;	COMDAT ?size@?$_Rb_tree@V?$basic_string@DV?$char_traits@D@_STL@@V?$allocator@D@2@@_STL@@U?$pair@$$CBV?$basic_string@DV?$char_traits@D@_STL@@V?$allocator@D@2@@_STL@@H@2@U?$_Select1st@U?$pair@$$CBV?$basic_string@DV?$char_traits@D@_STL@@V?$allocator@D@2@@_STL@@H@_STL@@@2@U?$less@V?$basic_string@DV?$char_traits@D@_STL@@V?$allocator@D@2@@_STL@@@2@V?$allocator@U?$pair@$$CBV?$basic_string@DV?$char_traits@D@_STL@@V?$allocator@D@2@@_STL@@H@_STL@@@2@@_STL@@QBEIXZ
_TEXT	SEGMENT PARA USE32 PUBLIC 'CODE'
_TEXT	ENDS
;	COMDAT ??E?$_Rb_tree_iterator@U?$pair@$$CBV?$basic_string@DV?$char_traits@D@_STL@@V?$allocator@D@2@@_STL@@H@_STL@@U?$_Nonconst_traits@U?$pair@$$CBV?$basic_string@DV?$char_traits@D@_STL@@V?$allocator@D@2@@_STL@@H@_STL@@@2@@_STL@@QAEAAU01@XZ
_TEXT	SEGMENT PARA USE32 PUBLIC 'CODE'
_TEXT	ENDS
;	COMDAT ??F?$_Rb_tree_iterator@U?$pair@$$CBV?$basic_string@DV?$char_traits@D@_STL@@V?$allocator@D@2@@_STL@@H@_STL@@U?$_Nonconst_traits@U?$pair@$$CBV?$basic_string@DV?$char_traits@D@_STL@@V?$allocator@D@2@@_STL@@H@_STL@@@2@@_STL@@QAEAAU01@XZ
_TEXT	SEGMENT PARA USE32 PUBLIC 'CODE'
_TEXT	ENDS
;	COMDAT ?_M_terminate_string_aux@?$basic_string@DV?$char_traits@D@_STL@@V?$allocator@D@2@@_STL@@AAEXABU__true_type@2@@Z
_TEXT	SEGMENT PARA USE32 PUBLIC 'CODE'
_TEXT	ENDS
;	COMDAT ??0?$allocator@D@_STL@@QAE@ABV01@@Z
_TEXT	SEGMENT PARA USE32 PUBLIC 'CODE'
_TEXT	ENDS
;	COMDAT ??0?$_STLP_alloc_proxy@PADDV?$allocator@D@_STL@@@_STL@@QAE@ABV?$allocator@D@1@PAD@Z
_TEXT	SEGMENT PARA USE32 PUBLIC 'CODE'
_TEXT	ENDS
;	COMDAT ?_M_unshift@?$basic_filebuf@DV?$char_traits@D@_STL@@@_STL@@AAE_NXZ
_TEXT	SEGMENT PARA USE32 PUBLIC 'CODE'
_TEXT	ENDS
;	COMDAT ?_M_allocate_buffers@?$basic_filebuf@DV?$char_traits@D@_STL@@@_STL@@AAE_NXZ
_TEXT	SEGMENT PARA USE32 PUBLIC 'CODE'
_TEXT	ENDS
;	COMDAT ??$max@H@_STL@@YAABHABH0@Z
_TEXT	SEGMENT PARA USE32 PUBLIC 'CODE'
_TEXT	ENDS
;	COMDAT ??$use_facet@V?$codecvt@DDH@_STL@@@_STL@@YAABV?$codecvt@DDH@0@ABVlocale@0@@Z
_TEXT	SEGMENT PARA USE32 PUBLIC 'CODE'
_TEXT	ENDS
;	COMDAT ??$_M_range_initialize@PBD@?$basic_string@DV?$char_traits@D@_STL@@V?$allocator@D@2@@_STL@@AAEXPBD0@Z
_TEXT	SEGMENT PARA USE32 PUBLIC 'CODE'
_TEXT	ENDS
;	COMDAT ??$_M_range_initialize@PAD@?$basic_string@DV?$char_traits@D@_STL@@V?$allocator@D@2@@_STL@@AAEXPAD0@Z
_TEXT	SEGMENT PARA USE32 PUBLIC 'CODE'
_TEXT	ENDS
;	COMDAT ?Release@?$CTypeTable@VInterfaceInformation@@@@QAEXXZ
_TEXT	SEGMENT PARA USE32 PUBLIC 'CODE'
_TEXT	ENDS
;	COMDAT ??$?8DV?$char_traits@D@_STL@@V?$allocator@D@1@@_STL@@YA_NABV?$basic_string@DV?$char_traits@D@_STL@@V?$allocator@D@2@@0@PBD@Z
_TEXT	SEGMENT PARA USE32 PUBLIC 'CODE'
_TEXT	ENDS
;	COMDAT ?_M_insert@?$_Rb_tree@V?$basic_string@DV?$char_traits@D@_STL@@V?$allocator@D@2@@_STL@@U?$pair@$$CBV?$basic_string@DV?$char_traits@D@_STL@@V?$allocator@D@2@@_STL@@H@2@U?$_Select1st@U?$pair@$$CBV?$basic_string@DV?$char_traits@D@_STL@@V?$allocator@D@2@@_STL@@H@_STL@@@2@U?$less@V?$basic_string@DV?$char_traits@D@_STL@@V?$allocator@D@2@@_STL@@@2@V?$allocator@U?$pair@$$CBV?$basic_string@DV?$char_traits@D@_STL@@V?$allocator@D@2@@_STL@@H@_STL@@@2@@_STL@@AAE?AU?$_Rb_tree_iterator@U?$pair@$$CBV?$basic_string@DV?$char_traits@D@_STL@@V?$allocator@D@2@@_STL@@H@_STL@@U?$_Nonconst_traits@U?$pair@$$CBV?$basic_string@DV?$char_traits@D@_STL@@V?$allocator@D@2@@_STL@@H@_STL@@@2@@2@PAU_Rb_tree_node_base@2@0ABU?$pair@$$CBV?$basic_string@DV?$char_traits@D@_STL@@V?$allocator@D@2@@_STL@@H@2@0@Z
_TEXT	SEGMENT PARA USE32 PUBLIC 'CODE'
_TEXT	ENDS
;	COMDAT ?insert_unique@?$_Rb_tree@V?$basic_string@DV?$char_traits@D@_STL@@V?$allocator@D@2@@_STL@@U?$pair@$$CBV?$basic_string@DV?$char_traits@D@_STL@@V?$allocator@D@2@@_STL@@H@2@U?$_Select1st@U?$pair@$$CBV?$basic_string@DV?$char_traits@D@_STL@@V?$allocator@D@2@@_STL@@H@_STL@@@2@U?$less@V?$basic_string@DV?$char_traits@D@_STL@@V?$allocator@D@2@@_STL@@@2@V?$allocator@U?$pair@$$CBV?$basic_string@DV?$char_traits@D@_STL@@V?$allocator@D@2@@_STL@@H@_STL@@@2@@_STL@@QAE?AU?$pair@U?$_Rb_tree_iterator@U?$pair@$$CBV?$basic_string@DV?$char_traits@D@_STL@@V?$allocator@D@2@@_STL@@H@_STL@@U?$_Nonconst_traits@U?$pair@$$CBV?$basic_string@DV?$char_traits@D@_STL@@V?$allocator@D@2@@_STL@@H@_STL@@@2@@_STL@@_N@2@ABU?$pair@$$CBV?$basic_string@DV?$char_traits@D@_STL@@V?$allocator@D@2@@_STL@@H@2@@Z
_TEXT	SEGMENT PARA USE32 PUBLIC 'CODE'
_TEXT	ENDS
;	COMDAT ??$_Destroy@U?$pair@$$CBV?$basic_string@DV?$char_traits@D@_STL@@V?$allocator@D@2@@_STL@@H@_STL@@@_STL@@YAXPAU?$pair@$$CBV?$basic_string@DV?$char_traits@D@_STL@@V?$allocator@D@2@@_STL@@H@0@@Z
_TEXT	SEGMENT PARA USE32 PUBLIC 'CODE'
_TEXT	ENDS
;	COMDAT ??$__destroy@PAUtagPOINT@@U1@@_STL@@YAXPAUtagPOINT@@00@Z
_TEXT	SEGMENT PARA USE32 PUBLIC 'CODE'
_TEXT	ENDS
;	COMDAT ??$__destroy@PAUtagRECT@@U1@@_STL@@YAXPAUtagRECT@@00@Z
_TEXT	SEGMENT PARA USE32 PUBLIC 'CODE'
_TEXT	ENDS
;	COMDAT ??$_M_find@V?$basic_string@DV?$char_traits@D@_STL@@V?$allocator@D@2@@_STL@@@?$_Rb_tree@V?$basic_string@DV?$char_traits@D@_STL@@V?$allocator@D@2@@_STL@@U?$pair@$$CBV?$basic_string@DV?$char_traits@D@_STL@@V?$allocator@D@2@@_STL@@H@2@U?$_Select1st@U?$pair@$$CBV?$basic_string@DV?$char_traits@D@_STL@@V?$allocator@D@2@@_STL@@H@_STL@@@2@U?$less@V?$basic_string@DV?$char_traits@D@_STL@@V?$allocator@D@2@@_STL@@@2@V?$allocator@U?$pair@$$CBV?$basic_string@DV?$char_traits@D@_STL@@V?$allocator@D@2@@_STL@@H@_STL@@@2@@_STL@@ABEPAU?$_Rb_tree_node@U?$pair@$$CBV?$basic_string@DV?$char_traits@D@_STL@@V?$allocator@D@2@@_STL@@H@_STL@@@1@ABV?$basic_string@DV?$char_traits@D@_STL@@V?$allocator@D@2@@1@@Z
_TEXT	SEGMENT PARA USE32 PUBLIC 'CODE'
_TEXT	ENDS
;	COMDAT ??$_M_append_dispatch@PBD@?$basic_string@DV?$char_traits@D@_STL@@V?$allocator@D@2@@_STL@@AAEAAV01@PBD0ABU__false_type@1@@Z
_TEXT	SEGMENT PARA USE32 PUBLIC 'CODE'
_TEXT	ENDS
;	COMDAT ??$__copy@PAUtagPOINT@@PAU1@H@_STL@@YAPAUtagPOINT@@PAU1@00ABUrandom_access_iterator_tag@0@PAH@Z
_TEXT	SEGMENT PARA USE32 PUBLIC 'CODE'
_TEXT	ENDS
;	COMDAT ??$__copy@PAUtagRECT@@PAU1@H@_STL@@YAPAUtagRECT@@PAU1@00ABUrandom_access_iterator_tag@0@PAH@Z
_TEXT	SEGMENT PARA USE32 PUBLIC 'CODE'
_TEXT	ENDS
;	COMDAT ??_G?$pair@$$CBV?$basic_string@DV?$char_traits@D@_STL@@V?$allocator@D@2@@_STL@@H@_STL@@QAEPAXI@Z
_TEXT	SEGMENT PARA USE32 PUBLIC 'CODE'
_TEXT	ENDS
;	COMDAT ?data@?$basic_string@DV?$char_traits@D@_STL@@V?$allocator@D@2@@_STL@@QBEPBDXZ
_TEXT	SEGMENT PARA USE32 PUBLIC 'CODE'
_TEXT	ENDS
;	COMDAT ?_M_create_node@?$_Rb_tree@V?$basic_string@DV?$char_traits@D@_STL@@V?$allocator@D@2@@_STL@@U?$pair@$$CBV?$basic_string@DV?$char_traits@D@_STL@@V?$allocator@D@2@@_STL@@H@2@U?$_Select1st@U?$pair@$$CBV?$basic_string@DV?$char_traits@D@_STL@@V?$allocator@D@2@@_STL@@H@_STL@@@2@U?$less@V?$basic_string@DV?$char_traits@D@_STL@@V?$allocator@D@2@@_STL@@@2@V?$allocator@U?$pair@$$CBV?$basic_string@DV?$char_traits@D@_STL@@V?$allocator@D@2@@_STL@@H@_STL@@@2@@_STL@@IAEPAU?$_Rb_tree_node@U?$pair@$$CBV?$basic_string@DV?$char_traits@D@_STL@@V?$allocator@D@2@@_STL@@H@_STL@@@2@ABU?$pair@$$CBV?$basic_string@DV?$char_traits@D@_STL@@V?$allocator@D@2@@_STL@@H@2@@Z
_TEXT	SEGMENT PARA USE32 PUBLIC 'CODE'
_TEXT	ENDS
;	COMDAT ?_S_parent@?$_Rb_tree@V?$basic_string@DV?$char_traits@D@_STL@@V?$allocator@D@2@@_STL@@U?$pair@$$CBV?$basic_string@DV?$char_traits@D@_STL@@V?$allocator@D@2@@_STL@@H@2@U?$_Select1st@U?$pair@$$CBV?$basic_string@DV?$char_traits@D@_STL@@V?$allocator@D@2@@_STL@@H@_STL@@@2@U?$less@V?$basic_string@DV?$char_traits@D@_STL@@V?$allocator@D@2@@_STL@@@2@V?$allocator@U?$pair@$$CBV?$basic_string@DV?$char_traits@D@_STL@@V?$allocator@D@2@@_STL@@H@_STL@@@2@@_STL@@KAAAPAU?$_Rb_tree_node@U?$pair@$$CBV?$basic_string@DV?$char_traits@D@_STL@@V?$allocator@D@2@@_STL@@H@_STL@@@2@PAU32@@Z
_TEXT	SEGMENT PARA USE32 PUBLIC 'CODE'
_TEXT	ENDS
;	COMDAT ?begin@?$_Rb_tree@V?$basic_string@DV?$char_traits@D@_STL@@V?$allocator@D@2@@_STL@@U?$pair@$$CBV?$basic_string@DV?$char_traits@D@_STL@@V?$allocator@D@2@@_STL@@H@2@U?$_Select1st@U?$pair@$$CBV?$basic_string@DV?$char_traits@D@_STL@@V?$allocator@D@2@@_STL@@H@_STL@@@2@U?$less@V?$basic_string@DV?$char_traits@D@_STL@@V?$allocator@D@2@@_STL@@@2@V?$allocator@U?$pair@$$CBV?$basic_string@DV?$char_traits@D@_STL@@V?$allocator@D@2@@_STL@@H@_STL@@@2@@_STL@@QAE?AU?$_Rb_tree_iterator@U?$pair@$$CBV?$basic_string@DV?$char_traits@D@_STL@@V?$allocator@D@2@@_STL@@H@_STL@@U?$_Nonconst_traits@U?$pair@$$CBV?$basic_string@DV?$char_traits@D@_STL@@V?$allocator@D@2@@_STL@@H@_STL@@@2@@2@XZ
_TEXT	SEGMENT PARA USE32 PUBLIC 'CODE'
_TEXT	ENDS
;	COMDAT ??0?$pair@U?$_Rb_tree_iterator@U?$pair@$$CBV?$basic_string@DV?$char_traits@D@_STL@@V?$allocator@D@2@@_STL@@H@_STL@@U?$_Nonconst_traits@U?$pair@$$CBV?$basic_string@DV?$char_traits@D@_STL@@V?$allocator@D@2@@_STL@@H@_STL@@@2@@_STL@@_N@_STL@@QAE@ABU?$_Rb_tree_iterator@U?$pair@$$CBV?$basic_string@DV?$char_traits@D@_STL@@V?$allocator@D@2@@_STL@@H@_STL@@U?$_Nonconst_traits@U?$pair@$$CBV?$basic_string@DV?$char_traits@D@_STL@@V?$allocator@D@2@@_STL@@H@_STL@@@2@@1@AB_N@Z
_TEXT	SEGMENT PARA USE32 PUBLIC 'CODE'
_TEXT	ENDS
;	COMDAT ??$_M_range_initialize@PBD@?$basic_string@DV?$char_traits@D@_STL@@V?$allocator@D@2@@_STL@@AAEXPBD0ABUforward_iterator_tag@1@@Z
_TEXT	SEGMENT PARA USE32 PUBLIC 'CODE'
_TEXT	ENDS
;	COMDAT ??$_M_range_initialize@PAD@?$basic_string@DV?$char_traits@D@_STL@@V?$allocator@D@2@@_STL@@AAEXPAD0ABUforward_iterator_tag@1@@Z
_TEXT	SEGMENT PARA USE32 PUBLIC 'CODE'
_TEXT	ENDS
;	COMDAT ??$__destroy_aux@PAUtagPOINT@@@_STL@@YAXPAUtagPOINT@@0ABU__false_type@0@@Z
_TEXT	SEGMENT PARA USE32 PUBLIC 'CODE'
_TEXT	ENDS
;	COMDAT ??$__destroy_aux@PAUtagRECT@@@_STL@@YAXPAUtagRECT@@0ABU__false_type@0@@Z
_TEXT	SEGMENT PARA USE32 PUBLIC 'CODE'
_TEXT	ENDS
;	COMDAT ??$append@PBD@?$basic_string@DV?$char_traits@D@_STL@@V?$allocator@D@2@@_STL@@AAEAAV01@PBD0ABUforward_iterator_tag@1@@Z
_TEXT	SEGMENT PARA USE32 PUBLIC 'CODE'
_TEXT	ENDS
;	COMDAT ??$_Construct@U?$pair@$$CBV?$basic_string@DV?$char_traits@D@_STL@@V?$allocator@D@2@@_STL@@H@_STL@@U12@@_STL@@YAXPAU?$pair@$$CBV?$basic_string@DV?$char_traits@D@_STL@@V?$allocator@D@2@@_STL@@H@0@ABU10@@Z
_TEXT	SEGMENT PARA USE32 PUBLIC 'CODE'
_TEXT	ENDS
;	COMDAT ?_M_construct_null@?$basic_string@DV?$char_traits@D@_STL@@V?$allocator@D@2@@_STL@@AAEXPAD@Z
_TEXT	SEGMENT PARA USE32 PUBLIC 'CODE'
_TEXT	ENDS
;	COMDAT ?max_size@?$basic_string@DV?$char_traits@D@_STL@@V?$allocator@D@2@@_STL@@QBEIXZ
_TEXT	SEGMENT PARA USE32 PUBLIC 'CODE'
_TEXT	ENDS
;	COMDAT ?capacity@?$basic_string@DV?$char_traits@D@_STL@@V?$allocator@D@2@@_STL@@QBEIXZ
_TEXT	SEGMENT PARA USE32 PUBLIC 'CODE'
_TEXT	ENDS
;	COMDAT ??0?$pair@$$CBV?$basic_string@DV?$char_traits@D@_STL@@V?$allocator@D@2@@_STL@@H@_STL@@QAE@ABU01@@Z
_TEXT	SEGMENT PARA USE32 PUBLIC 'CODE'
_TEXT	ENDS
;	COMDAT ?_M_construct_null_aux@?$basic_string@DV?$char_traits@D@_STL@@V?$allocator@D@2@@_STL@@AAEXPADABU__true_type@2@@Z
_TEXT	SEGMENT PARA USE32 PUBLIC 'CODE'
_TEXT	ENDS
;	COMDAT ?max_size@?$_String_base@DV?$allocator@D@_STL@@@_STL@@QBEIXZ
_TEXT	SEGMENT PARA USE32 PUBLIC 'CODE'
_TEXT	ENDS
;	COMDAT ??$distance@PBD@_STL@@YAHABQBD0@Z
_TEXT	SEGMENT PARA USE32 PUBLIC 'CODE'
_TEXT	ENDS
;	COMDAT ?_M_allocate_block@?$_String_base@DV?$allocator@D@_STL@@@_STL@@QAEXI@Z
_TEXT	SEGMENT PARA USE32 PUBLIC 'CODE'
_TEXT	ENDS
;	COMDAT ?_M_throw_length_error@?$_String_base@DV?$allocator@D@_STL@@@_STL@@QBEXXZ
_TEXT	SEGMENT PARA USE32 PUBLIC 'CODE'
_TEXT	ENDS
;	COMDAT ??$distance@PAD@_STL@@YAHABQAD0@Z
_TEXT	SEGMENT PARA USE32 PUBLIC 'CODE'
_TEXT	ENDS
;	COMDAT ??$uninitialized_copy@PADPAD@_STL@@YAPADPAD00@Z
_TEXT	SEGMENT PARA USE32 PUBLIC 'CODE'
_TEXT	ENDS
;	COMDAT ??$_Destroy@UtagPOINT@@@_STL@@YAXPAUtagPOINT@@@Z
_TEXT	SEGMENT PARA USE32 PUBLIC 'CODE'
_TEXT	ENDS
;	COMDAT ??$_Destroy@UtagRECT@@@_STL@@YAXPAUtagRECT@@@Z
_TEXT	SEGMENT PARA USE32 PUBLIC 'CODE'
_TEXT	ENDS
;	COMDAT ??$__distance@PBD@_STL@@YAHABQBD0ABUrandom_access_iterator_tag@0@@Z
_TEXT	SEGMENT PARA USE32 PUBLIC 'CODE'
_TEXT	ENDS
;	COMDAT ??$__distance@PAD@_STL@@YAHABQAD0ABUrandom_access_iterator_tag@0@@Z
_TEXT	SEGMENT PARA USE32 PUBLIC 'CODE'
_TEXT	ENDS
;	COMDAT ??$__uninitialized_copy@PADPAD@_STL@@YAPADPAD00ABU__true_type@0@@Z
_TEXT	SEGMENT PARA USE32 PUBLIC 'CODE'
_TEXT	ENDS
;	COMDAT ?_Ret@?$_BothPtrType@PADPAD@_STL@@SA?AU__true_type@2@XZ
_TEXT	SEGMENT PARA USE32 PUBLIC 'CODE'
_TEXT	ENDS
;	COMDAT ??$__copy_aux@PADPAD@_STL@@YAPADPAD00ABU__true_type@0@@Z
_TEXT	SEGMENT PARA USE32 PUBLIC 'CODE'
_TEXT	ENDS
;	COMDAT ?_Ret@?$_OKToMemCpy@DD@_STL@@SA?AU__true_type@2@XZ
_TEXT	SEGMENT PARA USE32 PUBLIC 'CODE'
_TEXT	ENDS
;	COMDAT ??$_IsOKToMemCpy@DD@_STL@@YA?AU?$_OKToMemCpy@DD@0@PAD0@Z
_TEXT	SEGMENT PARA USE32 PUBLIC 'CODE'
_TEXT	ENDS
;	COMDAT ??$__copy_ptrs@PADPAD@_STL@@YAPADPAD00ABU__true_type@0@@Z
_TEXT	SEGMENT PARA USE32 PUBLIC 'CODE'
_TEXT	ENDS
;	COMDAT ??_R3IFileIO@@8
rdata$r	SEGMENT DWORD USE32 PUBLIC 'CONST'
rdata$r	ENDS
;	COMDAT ??_R3ovfstream@@8
rdata$r	SEGMENT DWORD USE32 PUBLIC 'CONST'
rdata$r	ENDS
;	COMDAT ??_R3ivfstream@@8
rdata$r	SEGMENT DWORD USE32 PUBLIC 'CONST'
rdata$r	ENDS
;	COMDAT ??_R3iovfs_base@@8
rdata$r	SEGMENT DWORD USE32 PUBLIC 'CONST'
rdata$r	ENDS
;	COMDAT ??_R2IFileIO@@8
rdata$r	SEGMENT DWORD USE32 PUBLIC 'CONST'
rdata$r	ENDS
;	COMDAT ??_R2ovfstream@@8
rdata$r	SEGMENT DWORD USE32 PUBLIC 'CONST'
rdata$r	ENDS
;	COMDAT ??_R2ivfstream@@8
rdata$r	SEGMENT DWORD USE32 PUBLIC 'CONST'
rdata$r	ENDS
;	COMDAT ??_R2iovfs_base@@8
rdata$r	SEGMENT DWORD USE32 PUBLIC 'CONST'
rdata$r	ENDS
;	COMDAT ??_R1A@?0A@A@IFileIO@@8
rdata$r	SEGMENT DWORD USE32 PUBLIC 'CONST'
rdata$r	ENDS
;	COMDAT ??_R1A@?0A@A@ovfstream@@8
rdata$r	SEGMENT DWORD USE32 PUBLIC 'CONST'
rdata$r	ENDS
;	COMDAT ??_R1A@?0A@A@ivfstream@@8
rdata$r	SEGMENT DWORD USE32 PUBLIC 'CONST'
rdata$r	ENDS
;	COMDAT ??_R1A@?0A@A@iovfs_base@@8
rdata$r	SEGMENT DWORD USE32 PUBLIC 'CONST'
rdata$r	ENDS
;	COMDAT ??_R0?AVIFileIO@@@8
_DATA	SEGMENT DWORD USE32 PUBLIC 'DATA'
_DATA	ENDS
;	COMDAT ??_R0?AVovfstream@@@8
_DATA	SEGMENT DWORD USE32 PUBLIC 'DATA'
_DATA	ENDS
;	COMDAT ??_R0?AVivfstream@@@8
_DATA	SEGMENT DWORD USE32 PUBLIC 'DATA'
_DATA	ENDS
;	COMDAT ??_R0?AViovfs_base@@@8
_DATA	SEGMENT DWORD USE32 PUBLIC 'DATA'
_DATA	ENDS
;	COMDAT ??_R4IFileIO@@6B@
rdata$r	SEGMENT DWORD USE32 PUBLIC 'CONST'
rdata$r	ENDS
;	COMDAT ??_R4ovfstream@@6B@
rdata$r	SEGMENT DWORD USE32 PUBLIC 'CONST'
rdata$r	ENDS
;	COMDAT ??_R4ivfstream@@6B@
rdata$r	SEGMENT DWORD USE32 PUBLIC 'CONST'
rdata$r	ENDS
;	COMDAT ??_R4iovfs_base@@6B@
rdata$r	SEGMENT DWORD USE32 PUBLIC 'CONST'
rdata$r	ENDS
;	COMDAT ?__copy_trivial@_STL@@YAPAXPBX0PAX@Z
_TEXT	SEGMENT PARA USE32 PUBLIC 'CODE'
_TEXT	ENDS
;	COMDAT ??3@YAXPAX0@Z
_TEXT	SEGMENT PARA USE32 PUBLIC 'CODE'
_TEXT	ENDS
;	COMDAT ?assign@?$char_traits@D@_STL@@SAXAADABD@Z
_TEXT	SEGMENT PARA USE32 PUBLIC 'CODE'
_TEXT	ENDS
;	COMDAT ?_M_deallocate_block@?$_String_base@DV?$allocator@D@_STL@@@_STL@@QAEXXZ
_TEXT	SEGMENT PARA USE32 PUBLIC 'CODE'
_TEXT	ENDS
;	COMDAT ?deallocate@?$allocator@D@_STL@@QAEXPADI@Z
_TEXT	SEGMENT PARA USE32 PUBLIC 'CODE'
_TEXT	ENDS
;	COMDAT ?uninitialized_copy@_STL@@YAPADPBD0PAD@Z
_TEXT	SEGMENT PARA USE32 PUBLIC 'CODE'
_TEXT	ENDS
;	COMDAT ?__page_size@_Filebuf_base@_STL@@SAIXZ
_TEXT	SEGMENT PARA USE32 PUBLIC 'CODE'
_TEXT	ENDS
;	COMDAT ?_M_write@?$basic_filebuf@DV?$char_traits@D@_STL@@@_STL@@QAE_NPADH@Z
_TEXT	SEGMENT PARA USE32 PUBLIC 'CODE'
_TEXT	ENDS
;	COMDAT ?unshift@?$codecvt@DDH@_STL@@QBE?AW4result@codecvt_base@2@AAHPAD1AAPAD@Z
_TEXT	SEGMENT PARA USE32 PUBLIC 'CODE'
_TEXT	ENDS
;	COMDAT ??1?$_STLP_alloc_proxy@PADDV?$allocator@D@_STL@@@_STL@@QAE@XZ
_TEXT	SEGMENT PARA USE32 PUBLIC 'CODE'
_TEXT	ENDS
;	COMDAT ??$min@H@_STL@@YAABHABH0@Z
_TEXT	SEGMENT PARA USE32 PUBLIC 'CODE'
_TEXT	ENDS
;	COMDAT ?compare@?$char_traits@D@_STL@@SAHPBD0I@Z
_TEXT	SEGMENT PARA USE32 PUBLIC 'CODE'
_TEXT	ENDS
;	COMDAT ??2@YAPAXIPAX@Z
_TEXT	SEGMENT PARA USE32 PUBLIC 'CODE'
_TEXT	ENDS
;	COMDAT ??1?$_String_base@DV?$allocator@D@_STL@@@_STL@@QAE@XZ
_TEXT	SEGMENT PARA USE32 PUBLIC 'CODE'
_TEXT	ENDS
;	COMDAT ?always_noconv@?$codecvt@DDH@_STL@@QBE_NXZ
_TEXT	SEGMENT PARA USE32 PUBLIC 'CODE'
_TEXT	ENDS
;	COMDAT ?encoding@?$codecvt@DDH@_STL@@QBEHXZ
_TEXT	SEGMENT PARA USE32 PUBLIC 'CODE'
_TEXT	ENDS
;	COMDAT ?max_length@?$codecvt@DDH@_STL@@QBEHXZ
_TEXT	SEGMENT PARA USE32 PUBLIC 'CODE'
_TEXT	ENDS
;	COMDAT ?__o_mode@_Filebuf_base@_STL@@QBEHXZ
_TEXT	SEGMENT PARA USE32 PUBLIC 'CODE'
_TEXT	ENDS
;	COMDAT ?__stl_new@_STL@@YAPAXI@Z
_TEXT	SEGMENT PARA USE32 PUBLIC 'CODE'
_TEXT	ENDS
;	COMDAT ?deallocate@?$__node_alloc@$00$0A@@_STL@@SAXPAXI@Z
_TEXT	SEGMENT PARA USE32 PUBLIC 'CODE'
_TEXT	ENDS
;	COMDAT ?__stl_delete@_STL@@YAXPAX@Z
_TEXT	SEGMENT PARA USE32 PUBLIC 'CODE'
_TEXT	ENDS
;	COMDAT ?_Destroy@_STL@@YAXPAD0@Z
_TEXT	SEGMENT PARA USE32 PUBLIC 'CODE'
_TEXT	ENDS
;	COMDAT ??8_Rb_tree_base_iterator@_STL@@QBE_NABU01@@Z
_TEXT	SEGMENT PARA USE32 PUBLIC 'CODE'
_TEXT	ENDS
;	COMDAT ?setp@?$basic_streambuf@DV?$char_traits@D@_STL@@@_STL@@IAEXPAD0@Z
_TEXT	SEGMENT PARA USE32 PUBLIC 'CODE'
_TEXT	ENDS
;	COMDAT ?_FILE_O_set@_STL@@YAXPAU_iobuf@@PAD11@Z
_TEXT	SEGMENT PARA USE32 PUBLIC 'CODE'
_TEXT	ENDS
;	COMDAT ?_FILE_I_set@_STL@@YAXPAU_iobuf@@PAD11@Z
_TEXT	SEGMENT PARA USE32 PUBLIC 'CODE'
_TEXT	ENDS
;	COMDAT ?setg@?$basic_streambuf@DV?$char_traits@D@_STL@@@_STL@@IAEXPAD00@Z
_TEXT	SEGMENT PARA USE32 PUBLIC 'CODE'
_TEXT	ENDS
;	COMDAT ?__is_open@_Filebuf_base@_STL@@QBE_NXZ
_TEXT	SEGMENT PARA USE32 PUBLIC 'CODE'
_TEXT	ENDS
;	COMDAT ?length@?$char_traits@D@_STL@@SAIPBD@Z
_TEXT	SEGMENT PARA USE32 PUBLIC 'CODE'
_TEXT	ENDS
;	COMDAT ?eof@?$__char_traits_base@DH@_STL@@SAHXZ
_TEXT	SEGMENT PARA USE32 PUBLIC 'CODE'
_TEXT	ENDS
;	COMDAT ??9_Rb_tree_base_iterator@_STL@@QBE_NABU01@@Z
_TEXT	SEGMENT PARA USE32 PUBLIC 'CODE'
_TEXT	ENDS
;	COMDAT ??1?$allocator@D@_STL@@QAE@XZ
_TEXT	SEGMENT PARA USE32 PUBLIC 'CODE'
_TEXT	ENDS
;	COMDAT ??_7ovfstream@@6B@
CONST	SEGMENT DWORD USE32 PUBLIC 'CONST'
CONST	ENDS
;	COMDAT ??_7ivfstream@@6B@
CONST	SEGMENT DWORD USE32 PUBLIC 'CONST'
CONST	ENDS
;	COMDAT ??1?$basic_string@DV?$char_traits@D@_STL@@V?$allocator@D@2@@_STL@@QAE@XZ
_TEXT	SEGMENT PARA USE32 PUBLIC 'CODE'
_TEXT	ENDS
;	COMDAT ??_7iovfs_base@@6B@
CONST	SEGMENT DWORD USE32 PUBLIC 'CONST'
CONST	ENDS
;	COMDAT ??_7IFileIO@@6B@
CONST	SEGMENT DWORD USE32 PUBLIC 'CONST'
CONST	ENDS
sxdata	SEGMENT DWORD USE32 'SXDATA'
sxdata	ENDS
FLAT	GROUP _DATA, CONST, _BSS
	ASSUME	CS: FLAT, DS: FLAT, SS: FLAT
endif

INCLUDELIB LIBCMT
INCLUDELIB OLDNAMES

PUBLIC	?g_pSkinManager@@3PAVSkinManager@@A		; g_pSkinManager
_BSS	SEGMENT
?g_pSkinManager@@3PAVSkinManager@@A DD 01H DUP (?)	; g_pSkinManager
_BSS	ENDS
PUBLIC	??2@YAPAXIPAX@Z					; operator new
; Function compile flags: /Ogty
; File c:\program files\microsoft visual studio .net 2003\vc7\include\new
;	COMDAT ??2@YAPAXIPAX@Z
_TEXT	SEGMENT
___formal$ = 8						; size = 4
__Where$ = 12						; size = 4
??2@YAPAXIPAX@Z PROC NEAR				; operator new, COMDAT

; 64   : 	return (_Where);

  00000	8b 44 24 08	 mov	 eax, DWORD PTR __Where$[esp-4]

; 65   : 	}

  00004	c3		 ret	 0
??2@YAPAXIPAX@Z ENDP					; operator new
_TEXT	ENDS
PUBLIC	??3@YAXPAX0@Z					; operator delete
; Function compile flags: /Ogty
;	COMDAT ??3@YAXPAX0@Z
_TEXT	SEGMENT
___formal$ = 8						; size = 4
___formal$ = 12						; size = 4
??3@YAXPAX0@Z PROC NEAR					; operator delete, COMDAT

; 69   : 	}

  00000	c3		 ret	 0
??3@YAXPAX0@Z ENDP					; operator delete
_TEXT	ENDS
PUBLIC	?__stl_new@_STL@@YAPAXI@Z			; _STL::__stl_new
EXTRN	??2@YAPAXI@Z:NEAR				; operator new
; Function compile flags: /Ogty
; File c:\stlport-4.6.1\stlport\stl\_new.h
;	COMDAT ?__stl_new@_STL@@YAPAXI@Z
_TEXT	SEGMENT
___n$ = 8						; size = 4
?__stl_new@_STL@@YAPAXI@Z PROC NEAR			; _STL::__stl_new, COMDAT

; 86   : inline void*  _STLP_CALL __stl_new(size_t __n)   { _STLP_CHECK_NULL_ALLOC(::operator _STLP_NEW(__n)); }

  00000	e9 00 00 00 00	 jmp	 ??2@YAPAXI@Z		; operator new
?__stl_new@_STL@@YAPAXI@Z ENDP				; _STL::__stl_new
_TEXT	ENDS
PUBLIC	?__stl_delete@_STL@@YAXPAX@Z			; _STL::__stl_delete
EXTRN	??3@YAXPAX@Z:NEAR				; operator delete
; Function compile flags: /Ogty
;	COMDAT ?__stl_delete@_STL@@YAXPAX@Z
_TEXT	SEGMENT
___p$ = 8						; size = 4
?__stl_delete@_STL@@YAXPAX@Z PROC NEAR			; _STL::__stl_delete, COMDAT

; 87   : inline void   _STLP_CALL __stl_delete(void* __p) { ::operator delete(__p); }

  00000	e9 00 00 00 00	 jmp	 ??3@YAXPAX@Z		; operator delete
?__stl_delete@_STL@@YAXPAX@Z ENDP			; _STL::__stl_delete
_TEXT	ENDS
PUBLIC	?_Destroy@_STL@@YAXPAD0@Z			; _STL::_Destroy
; Function compile flags: /Ogty
; File c:\stlport-4.6.1\stlport\stl\_construct.h
;	COMDAT ?_Destroy@_STL@@YAXPAD0@Z
_TEXT	SEGMENT
___formal$ = 8						; size = 4
___formal$ = 12						; size = 4
?_Destroy@_STL@@YAXPAD0@Z PROC NEAR			; _STL::_Destroy, COMDAT

; 142  : inline void _Destroy(char*, char*) {}

  00000	c3		 ret	 0
?_Destroy@_STL@@YAXPAD0@Z ENDP				; _STL::_Destroy
_TEXT	ENDS
PUBLIC	?__copy_trivial@_STL@@YAPAXPBX0PAX@Z		; _STL::__copy_trivial
EXTRN	_memmove:NEAR
; Function compile flags: /Ogty
; File c:\stlport-4.6.1\stlport\stl\_algobase.h
;	COMDAT ?__copy_trivial@_STL@@YAPAXPBX0PAX@Z
_TEXT	SEGMENT
___first$ = 8						; size = 4
___last$ = 12						; size = 4
___result$ = 16						; size = 4
?__copy_trivial@_STL@@YAPAXPBX0PAX@Z PROC NEAR		; _STL::__copy_trivial, COMDAT

; 148  :   return (__last == __first) ? __result : 
; 149  :     ((char*)memmove(__result, __first, ((const char*)__last - (const char*)__first))) + 
; 150  :     ((const char*)__last - (const char*)__first);

  00000	8b 44 24 04	 mov	 eax, DWORD PTR ___first$[esp-4]
  00004	56		 push	 esi
  00005	8b 74 24 0c	 mov	 esi, DWORD PTR ___last$[esp]
  00009	3b f0		 cmp	 esi, eax
  0000b	75 06		 jne	 SHORT $L78100
  0000d	8b 44 24 10	 mov	 eax, DWORD PTR ___result$[esp]
  00011	5e		 pop	 esi

; 151  : }

  00012	c3		 ret	 0
$L78100:

; 148  :   return (__last == __first) ? __result : 
; 149  :     ((char*)memmove(__result, __first, ((const char*)__last - (const char*)__first))) + 
; 150  :     ((const char*)__last - (const char*)__first);

  00013	2b f0		 sub	 esi, eax
  00015	56		 push	 esi
  00016	50		 push	 eax
  00017	8b 44 24 18	 mov	 eax, DWORD PTR ___result$[esp+8]
  0001b	50		 push	 eax
  0001c	e8 00 00 00 00	 call	 _memmove
  00021	83 c4 0c	 add	 esp, 12			; 0000000cH
  00024	03 c6		 add	 eax, esi
  00026	5e		 pop	 esi

; 151  : }

  00027	c3		 ret	 0
?__copy_trivial@_STL@@YAPAXPBX0PAX@Z ENDP		; _STL::__copy_trivial
_TEXT	ENDS
PUBLIC	?uninitialized_copy@_STL@@YAPADPBD0PAD@Z	; _STL::uninitialized_copy
; Function compile flags: /Ogty
; File c:\stlport-4.6.1\stlport\stl\_uninitialized.h
;	COMDAT ?uninitialized_copy@_STL@@YAPADPBD0PAD@Z
_TEXT	SEGMENT
___first$ = 8						; size = 4
___last$ = 12						; size = 4
___result$ = 16						; size = 4
?uninitialized_copy@_STL@@YAPADPBD0PAD@Z PROC NEAR	; _STL::uninitialized_copy, COMDAT

; 84   :   return  (char*)__copy_trivial (__first, __last, __result);

  00000	8b 44 24 04	 mov	 eax, DWORD PTR ___first$[esp-4]
  00004	56		 push	 esi
  00005	8b 74 24 0c	 mov	 esi, DWORD PTR ___last$[esp]
  00009	3b f0		 cmp	 esi, eax
  0000b	75 06		 jne	 SHORT $L78110
  0000d	8b 44 24 10	 mov	 eax, DWORD PTR ___result$[esp]
  00011	5e		 pop	 esi

; 85   : }

  00012	c3		 ret	 0

; 84   :   return  (char*)__copy_trivial (__first, __last, __result);

$L78110:
  00013	2b f0		 sub	 esi, eax
  00015	56		 push	 esi
  00016	50		 push	 eax
  00017	8b 44 24 18	 mov	 eax, DWORD PTR ___result$[esp+8]
  0001b	50		 push	 eax
  0001c	e8 00 00 00 00	 call	 _memmove
  00021	83 c4 0c	 add	 esp, 12			; 0000000cH
  00024	03 c6		 add	 eax, esi
  00026	5e		 pop	 esi

; 85   : }

  00027	c3		 ret	 0
?uninitialized_copy@_STL@@YAPADPBD0PAD@Z ENDP		; _STL::uninitialized_copy
_TEXT	ENDS
PUBLIC	?compare@?$char_traits@D@_STL@@SAHPBD0I@Z	; _STL::char_traits<char>::compare
; Function compile flags: /Ogty
; File c:\stlport-4.6.1\stlport\stl\char_traits.h
;	COMDAT ?compare@?$char_traits@D@_STL@@SAHPBD0I@Z
_TEXT	SEGMENT
___s1$ = 8						; size = 4
___s2$ = 12						; size = 4
___n$ = 16						; size = 4
?compare@?$char_traits@D@_STL@@SAHPBD0I@Z PROC NEAR	; _STL::char_traits<char>::compare, COMDAT

; 236  :     { return memcmp(__s1, __s2, __n); }

  00000	8b 4c 24 0c	 mov	 ecx, DWORD PTR ___n$[esp-4]
  00004	56		 push	 esi
  00005	8b 74 24 08	 mov	 esi, DWORD PTR ___s1$[esp]
  00009	57		 push	 edi
  0000a	8b 7c 24 10	 mov	 edi, DWORD PTR ___s2$[esp+4]
  0000e	33 c0		 xor	 eax, eax
  00010	f3 a6		 repe cmpsb
  00012	5f		 pop	 edi
  00013	5e		 pop	 esi
  00014	74 05		 je	 SHORT $L78115
  00016	1b c0		 sbb	 eax, eax
  00018	83 d8 ff	 sbb	 eax, -1
$L78115:
  0001b	c3		 ret	 0
?compare@?$char_traits@D@_STL@@SAHPBD0I@Z ENDP		; _STL::char_traits<char>::compare
_TEXT	ENDS
PUBLIC	?length@?$char_traits@D@_STL@@SAIPBD@Z		; _STL::char_traits<char>::length
; Function compile flags: /Ogty
;	COMDAT ?length@?$char_traits@D@_STL@@SAIPBD@Z
_TEXT	SEGMENT
___s$ = 8						; size = 4
?length@?$char_traits@D@_STL@@SAIPBD@Z PROC NEAR	; _STL::char_traits<char>::length, COMDAT

; 238  :   static size_t _STLP_CALL length(const char* __s) { return strlen(__s); }

  00000	8b 44 24 04	 mov	 eax, DWORD PTR ___s$[esp-4]
  00004	8d 50 01	 lea	 edx, DWORD PTR [eax+1]
$L78120:
  00007	8a 08		 mov	 cl, BYTE PTR [eax]
  00009	40		 inc	 eax
  0000a	84 c9		 test	 cl, cl
  0000c	75 f9		 jne	 SHORT $L78120
  0000e	2b c2		 sub	 eax, edx
  00010	c3		 ret	 0
?length@?$char_traits@D@_STL@@SAIPBD@Z ENDP		; _STL::char_traits<char>::length
_TEXT	ENDS
PUBLIC	??0?$allocator@D@_STL@@QAE@XZ			; _STL::allocator<char>::allocator<char>
; Function compile flags: /Ogty
; File c:\stlport-4.6.1\stlport\stl\_alloc.h
;	COMDAT ??0?$allocator@D@_STL@@QAE@XZ
_TEXT	SEGMENT
??0?$allocator@D@_STL@@QAE@XZ PROC NEAR			; _STL::allocator<char>::allocator<char>, COMDAT
; _this$ = ecx

; 345  :   allocator() _STLP_NOTHROW {}

  00000	8b c1		 mov	 eax, ecx
  00002	c3		 ret	 0
??0?$allocator@D@_STL@@QAE@XZ ENDP			; _STL::allocator<char>::allocator<char>
_TEXT	ENDS
PUBLIC	??0?$allocator@UtagPOINT@@@_STL@@QAE@XZ		; _STL::allocator<tagPOINT>::allocator<tagPOINT>
; Function compile flags: /Ogty
;	COMDAT ??0?$allocator@UtagPOINT@@@_STL@@QAE@XZ
_TEXT	SEGMENT
??0?$allocator@UtagPOINT@@@_STL@@QAE@XZ PROC NEAR	; _STL::allocator<tagPOINT>::allocator<tagPOINT>, COMDAT
; _this$ = ecx

; 345  :   allocator() _STLP_NOTHROW {}

  00000	8b c1		 mov	 eax, ecx
  00002	c3		 ret	 0
??0?$allocator@UtagPOINT@@@_STL@@QAE@XZ ENDP		; _STL::allocator<tagPOINT>::allocator<tagPOINT>
_TEXT	ENDS
PUBLIC	??1?$allocator@UtagPOINT@@@_STL@@QAE@XZ		; _STL::allocator<tagPOINT>::~allocator<tagPOINT>
; Function compile flags: /Ogty
;	COMDAT ??1?$allocator@UtagPOINT@@@_STL@@QAE@XZ
_TEXT	SEGMENT
??1?$allocator@UtagPOINT@@@_STL@@QAE@XZ PROC NEAR	; _STL::allocator<tagPOINT>::~allocator<tagPOINT>, COMDAT
; _this$ = ecx

; 350  :   ~allocator() _STLP_NOTHROW {}

  00000	c3		 ret	 0
??1?$allocator@UtagPOINT@@@_STL@@QAE@XZ ENDP		; _STL::allocator<tagPOINT>::~allocator<tagPOINT>
_TEXT	ENDS
PUBLIC	??0?$allocator@UtagRECT@@@_STL@@QAE@XZ		; _STL::allocator<tagRECT>::allocator<tagRECT>
; Function compile flags: /Ogty
;	COMDAT ??0?$allocator@UtagRECT@@@_STL@@QAE@XZ
_TEXT	SEGMENT
??0?$allocator@UtagRECT@@@_STL@@QAE@XZ PROC NEAR	; _STL::allocator<tagRECT>::allocator<tagRECT>, COMDAT
; _this$ = ecx

; 345  :   allocator() _STLP_NOTHROW {}

  00000	8b c1		 mov	 eax, ecx
  00002	c3		 ret	 0
??0?$allocator@UtagRECT@@@_STL@@QAE@XZ ENDP		; _STL::allocator<tagRECT>::allocator<tagRECT>
_TEXT	ENDS
PUBLIC	??1?$allocator@UtagRECT@@@_STL@@QAE@XZ		; _STL::allocator<tagRECT>::~allocator<tagRECT>
; Function compile flags: /Ogty
;	COMDAT ??1?$allocator@UtagRECT@@@_STL@@QAE@XZ
_TEXT	SEGMENT
??1?$allocator@UtagRECT@@@_STL@@QAE@XZ PROC NEAR	; _STL::allocator<tagRECT>::~allocator<tagRECT>, COMDAT
; _this$ = ecx

; 350  :   ~allocator() _STLP_NOTHROW {}

  00000	c3		 ret	 0
??1?$allocator@UtagRECT@@@_STL@@QAE@XZ ENDP		; _STL::allocator<tagRECT>::~allocator<tagRECT>
_TEXT	ENDS
PUBLIC	??8_Rb_tree_base_iterator@_STL@@QBE_NABU01@@Z	; _STL::_Rb_tree_base_iterator::operator==
; Function compile flags: /Ogty
; File c:\stlport-4.6.1\stlport\stl\_tree.h
;	COMDAT ??8_Rb_tree_base_iterator@_STL@@QBE_NABU01@@Z
_TEXT	SEGMENT
___y$ = 8						; size = 4
??8_Rb_tree_base_iterator@_STL@@QBE_NABU01@@Z PROC NEAR	; _STL::_Rb_tree_base_iterator::operator==, COMDAT
; _this$ = ecx

; 147  :     return _M_node == __y._M_node;

  00000	8b 01		 mov	 eax, DWORD PTR [ecx]
  00002	8b 4c 24 04	 mov	 ecx, DWORD PTR ___y$[esp-4]
  00006	2b 01		 sub	 eax, DWORD PTR [ecx]
  00008	f7 d8		 neg	 eax
  0000a	1b c0		 sbb	 eax, eax
  0000c	40		 inc	 eax

; 148  :   }

  0000d	c2 04 00	 ret	 4
??8_Rb_tree_base_iterator@_STL@@QBE_NABU01@@Z ENDP	; _STL::_Rb_tree_base_iterator::operator==
_TEXT	ENDS
PUBLIC	??9_Rb_tree_base_iterator@_STL@@QBE_NABU01@@Z	; _STL::_Rb_tree_base_iterator::operator!=
; Function compile flags: /Ogty
;	COMDAT ??9_Rb_tree_base_iterator@_STL@@QBE_NABU01@@Z
_TEXT	SEGMENT
___y$ = 8						; size = 4
??9_Rb_tree_base_iterator@_STL@@QBE_NABU01@@Z PROC NEAR	; _STL::_Rb_tree_base_iterator::operator!=, COMDAT
; _this$ = ecx

; 150  :     return _M_node != __y._M_node;

  00000	8b 01		 mov	 eax, DWORD PTR [ecx]
  00002	8b 54 24 04	 mov	 edx, DWORD PTR ___y$[esp-4]
  00006	56		 push	 esi
  00007	8b 32		 mov	 esi, DWORD PTR [edx]
  00009	33 c9		 xor	 ecx, ecx
  0000b	3b c6		 cmp	 eax, esi
  0000d	0f 95 c1	 setne	 cl
  00010	8a c1		 mov	 al, cl
  00012	5e		 pop	 esi

; 151  :   }

  00013	c2 04 00	 ret	 4
??9_Rb_tree_base_iterator@_STL@@QBE_NABU01@@Z ENDP	; _STL::_Rb_tree_base_iterator::operator!=
_TEXT	ENDS
PUBLIC	?begin@?$vector@UtagPOINT@@V?$allocator@UtagPOINT@@@_STL@@@_STL@@QAEPAUtagPOINT@@XZ ; _STL::vector<tagPOINT,_STL::allocator<tagPOINT> >::begin
; Function compile flags: /Ogty
; File c:\stlport-4.6.1\stlport\stl\_vector.h
;	COMDAT ?begin@?$vector@UtagPOINT@@V?$allocator@UtagPOINT@@@_STL@@@_STL@@QAEPAUtagPOINT@@XZ
_TEXT	SEGMENT
?begin@?$vector@UtagPOINT@@V?$allocator@UtagPOINT@@@_STL@@@_STL@@QAEPAUtagPOINT@@XZ PROC NEAR ; _STL::vector<tagPOINT,_STL::allocator<tagPOINT> >::begin, COMDAT
; _this$ = ecx

; 172  :   iterator begin()             { return this->_M_start; }

  00000	8b 01		 mov	 eax, DWORD PTR [ecx]
  00002	c3		 ret	 0
?begin@?$vector@UtagPOINT@@V?$allocator@UtagPOINT@@@_STL@@@_STL@@QAEPAUtagPOINT@@XZ ENDP ; _STL::vector<tagPOINT,_STL::allocator<tagPOINT> >::begin
_TEXT	ENDS
PUBLIC	?end@?$vector@UtagPOINT@@V?$allocator@UtagPOINT@@@_STL@@@_STL@@QAEPAUtagPOINT@@XZ ; _STL::vector<tagPOINT,_STL::allocator<tagPOINT> >::end
; Function compile flags: /Ogty
;	COMDAT ?end@?$vector@UtagPOINT@@V?$allocator@UtagPOINT@@@_STL@@@_STL@@QAEPAUtagPOINT@@XZ
_TEXT	SEGMENT
?end@?$vector@UtagPOINT@@V?$allocator@UtagPOINT@@@_STL@@@_STL@@QAEPAUtagPOINT@@XZ PROC NEAR ; _STL::vector<tagPOINT,_STL::allocator<tagPOINT> >::end, COMDAT
; _this$ = ecx

; 174  :   iterator end()               { return this->_M_finish; }

  00000	8b 41 04	 mov	 eax, DWORD PTR [ecx+4]
  00003	c3		 ret	 0
?end@?$vector@UtagPOINT@@V?$allocator@UtagPOINT@@@_STL@@@_STL@@QAEPAUtagPOINT@@XZ ENDP ; _STL::vector<tagPOINT,_STL::allocator<tagPOINT> >::end
_TEXT	ENDS
PUBLIC	?begin@?$vector@UtagRECT@@V?$allocator@UtagRECT@@@_STL@@@_STL@@QAEPAUtagRECT@@XZ ; _STL::vector<tagRECT,_STL::allocator<tagRECT> >::begin
; Function compile flags: /Ogty
;	COMDAT ?begin@?$vector@UtagRECT@@V?$allocator@UtagRECT@@@_STL@@@_STL@@QAEPAUtagRECT@@XZ
_TEXT	SEGMENT
?begin@?$vector@UtagRECT@@V?$allocator@UtagRECT@@@_STL@@@_STL@@QAEPAUtagRECT@@XZ PROC NEAR ; _STL::vector<tagRECT,_STL::allocator<tagRECT> >::begin, COMDAT
; _this$ = ecx

; 172  :   iterator begin()             { return this->_M_start; }

  00000	8b 01		 mov	 eax, DWORD PTR [ecx]
  00002	c3		 ret	 0
?begin@?$vector@UtagRECT@@V?$allocator@UtagRECT@@@_STL@@@_STL@@QAEPAUtagRECT@@XZ ENDP ; _STL::vector<tagRECT,_STL::allocator<tagRECT> >::begin
_TEXT	ENDS
PUBLIC	?end@?$vector@UtagRECT@@V?$allocator@UtagRECT@@@_STL@@@_STL@@QAEPAUtagRECT@@XZ ; _STL::vector<tagRECT,_STL::allocator<tagRECT> >::end
; Function compile flags: /Ogty
;	COMDAT ?end@?$vector@UtagRECT@@V?$allocator@UtagRECT@@@_STL@@@_STL@@QAEPAUtagRECT@@XZ
_TEXT	SEGMENT
?end@?$vector@UtagRECT@@V?$allocator@UtagRECT@@@_STL@@@_STL@@QAEPAUtagRECT@@XZ PROC NEAR ; _STL::vector<tagRECT,_STL::allocator<tagRECT> >::end, COMDAT
; _this$ = ecx

; 174  :   iterator end()               { return this->_M_finish; }

  00000	8b 41 04	 mov	 eax, DWORD PTR [ecx+4]
  00003	c3		 ret	 0
?end@?$vector@UtagRECT@@V?$allocator@UtagRECT@@@_STL@@@_STL@@QAEPAUtagRECT@@XZ ENDP ; _STL::vector<tagRECT,_STL::allocator<tagRECT> >::end
_TEXT	ENDS
PUBLIC	??0?$allocator@U?$pair@$$CBV?$basic_string@DV?$char_traits@D@_STL@@V?$allocator@D@2@@_STL@@H@_STL@@@_STL@@QAE@XZ ; _STL::allocator<_STL::pair<_STL::basic_string<char,_STL::char_traits<char>,_STL::allocator<char> > const ,int> >::allocator<_STL::pair<_STL::basic_string<char,_STL::char_traits<char>,_STL::allocator<char> > const ,int> >
; Function compile flags: /Ogty
; File c:\stlport-4.6.1\stlport\stl\_alloc.h
;	COMDAT ??0?$allocator@U?$pair@$$CBV?$basic_string@DV?$char_traits@D@_STL@@V?$allocator@D@2@@_STL@@H@_STL@@@_STL@@QAE@XZ
_TEXT	SEGMENT
??0?$allocator@U?$pair@$$CBV?$basic_string@DV?$char_traits@D@_STL@@V?$allocator@D@2@@_STL@@H@_STL@@@_STL@@QAE@XZ PROC NEAR ; _STL::allocator<_STL::pair<_STL::basic_string<char,_STL::char_traits<char>,_STL::allocator<char> > const ,int> >::allocator<_STL::pair<_STL::basic_string<char,_STL::char_traits<char>,_STL::allocator<char> > const ,int> >, COMDAT
; _this$ = ecx

; 345  :   allocator() _STLP_NOTHROW {}

  00000	8b c1		 mov	 eax, ecx
  00002	c3		 ret	 0
??0?$allocator@U?$pair@$$CBV?$basic_string@DV?$char_traits@D@_STL@@V?$allocator@D@2@@_STL@@H@_STL@@@_STL@@QAE@XZ ENDP ; _STL::allocator<_STL::pair<_STL::basic_string<char,_STL::char_traits<char>,_STL::allocator<char> > const ,int> >::allocator<_STL::pair<_STL::basic_string<char,_STL::char_traits<char>,_STL::allocator<char> > const ,int> >
_TEXT	ENDS
PUBLIC	??1?$allocator@U?$pair@$$CBV?$basic_string@DV?$char_traits@D@_STL@@V?$allocator@D@2@@_STL@@H@_STL@@@_STL@@QAE@XZ ; _STL::allocator<_STL::pair<_STL::basic_string<char,_STL::char_traits<char>,_STL::allocator<char> > const ,int> >::~allocator<_STL::pair<_STL::basic_string<char,_STL::char_traits<char>,_STL::allocator<char> > const ,int> >
; Function compile flags: /Ogty
;	COMDAT ??1?$allocator@U?$pair@$$CBV?$basic_string@DV?$char_traits@D@_STL@@V?$allocator@D@2@@_STL@@H@_STL@@@_STL@@QAE@XZ
_TEXT	SEGMENT
??1?$allocator@U?$pair@$$CBV?$basic_string@DV?$char_traits@D@_STL@@V?$allocator@D@2@@_STL@@H@_STL@@@_STL@@QAE@XZ PROC NEAR ; _STL::allocator<_STL::pair<_STL::basic_string<char,_STL::char_traits<char>,_STL::allocator<char> > const ,int> >::~allocator<_STL::pair<_STL::basic_string<char,_STL::char_traits<char>,_STL::allocator<char> > const ,int> >, COMDAT
; _this$ = ecx

; 350  :   ~allocator() _STLP_NOTHROW {}

  00000	c3		 ret	 0
??1?$allocator@U?$pair@$$CBV?$basic_string@DV?$char_traits@D@_STL@@V?$allocator@D@2@@_STL@@H@_STL@@@_STL@@QAE@XZ ENDP ; _STL::allocator<_STL::pair<_STL::basic_string<char,_STL::char_traits<char>,_STL::allocator<char> > const ,int> >::~allocator<_STL::pair<_STL::basic_string<char,_STL::char_traits<char>,_STL::allocator<char> > const ,int> >
_TEXT	ENDS
PUBLIC	??0?$_Rb_tree_iterator@U?$pair@$$CBV?$basic_string@DV?$char_traits@D@_STL@@V?$allocator@D@2@@_STL@@H@_STL@@U?$_Nonconst_traits@U?$pair@$$CBV?$basic_string@DV?$char_traits@D@_STL@@V?$allocator@D@2@@_STL@@H@_STL@@@2@@_STL@@QAE@ABU01@@Z ; _STL::_Rb_tree_iterator<_STL::pair<_STL::basic_string<char,_STL::char_traits<char>,_STL::allocator<char> > const ,int>,_STL::_Nonconst_traits<_STL::pair<_STL::basic_string<char,_STL::char_traits<char>,_STL::allocator<char> > const ,int> > >::_Rb_tree_iterator<_STL::pair<_STL::basic_string<char,_STL::char_traits<char>,_STL::allocator<char> > const ,int>,_STL::_Nonconst_traits<_STL::pair<_STL::basic_string<char,_STL::char_traits<char>,_STL::allocator<char> > const ,int> > >
; Function compile flags: /Ogty
; File c:\stlport-4.6.1\stlport\stl\_tree.h
;	COMDAT ??0?$_Rb_tree_iterator@U?$pair@$$CBV?$basic_string@DV?$char_traits@D@_STL@@V?$allocator@D@2@@_STL@@H@_STL@@U?$_Nonconst_traits@U?$pair@$$CBV?$basic_string@DV?$char_traits@D@_STL@@V?$allocator@D@2@@_STL@@H@_STL@@@2@@_STL@@QAE@ABU01@@Z
_TEXT	SEGMENT
___it$ = 8						; size = 4
??0?$_Rb_tree_iterator@U?$pair@$$CBV?$basic_string@DV?$char_traits@D@_STL@@V?$allocator@D@2@@_STL@@H@_STL@@U?$_Nonconst_traits@U?$pair@$$CBV?$basic_string@DV?$char_traits@D@_STL@@V?$allocator@D@2@@_STL@@H@_STL@@@2@@_STL@@QAE@ABU01@@Z PROC NEAR ; _STL::_Rb_tree_iterator<_STL::pair<_STL::basic_string<char,_STL::char_traits<char>,_STL::allocator<char> > const ,int>,_STL::_Nonconst_traits<_STL::pair<_STL::basic_string<char,_STL::char_traits<char>,_STL::allocator<char> > const ,int> > >::_Rb_tree_iterator<_STL::pair<_STL::basic_string<char,_STL::char_traits<char>,_STL::allocator<char> > const ,int>,_STL::_Nonconst_traits<_STL::pair<_STL::basic_string<char,_STL::char_traits<char>,_STL::allocator<char> > const ,int> > >, COMDAT
; _this$ = ecx

; 165  :   _Rb_tree_iterator(const _Rb_tree_iterator<_Value, 

  00000	8b c1		 mov	 eax, ecx
  00002	8b 4c 24 04	 mov	 ecx, DWORD PTR ___it$[esp-4]
  00006	8b 11		 mov	 edx, DWORD PTR [ecx]
  00008	89 10		 mov	 DWORD PTR [eax], edx

; 166  :                     _Nonconst_traits<_Value> >& __it) { _M_node = __it._M_node; }

  0000a	c2 04 00	 ret	 4
??0?$_Rb_tree_iterator@U?$pair@$$CBV?$basic_string@DV?$char_traits@D@_STL@@V?$allocator@D@2@@_STL@@H@_STL@@U?$_Nonconst_traits@U?$pair@$$CBV?$basic_string@DV?$char_traits@D@_STL@@V?$allocator@D@2@@_STL@@H@_STL@@@2@@_STL@@QAE@ABU01@@Z ENDP ; _STL::_Rb_tree_iterator<_STL::pair<_STL::basic_string<char,_STL::char_traits<char>,_STL::allocator<char> > const ,int>,_STL::_Nonconst_traits<_STL::pair<_STL::basic_string<char,_STL::char_traits<char>,_STL::allocator<char> > const ,int> > >::_Rb_tree_iterator<_STL::pair<_STL::basic_string<char,_STL::char_traits<char>,_STL::allocator<char> > const ,int>,_STL::_Nonconst_traits<_STL::pair<_STL::basic_string<char,_STL::char_traits<char>,_STL::allocator<char> > const ,int> > >
_TEXT	ENDS
PUBLIC	??D?$_Rb_tree_iterator@U?$pair@$$CBV?$basic_string@DV?$char_traits@D@_STL@@V?$allocator@D@2@@_STL@@H@_STL@@U?$_Nonconst_traits@U?$pair@$$CBV?$basic_string@DV?$char_traits@D@_STL@@V?$allocator@D@2@@_STL@@H@_STL@@@2@@_STL@@QBEAAU?$pair@$$CBV?$basic_string@DV?$char_traits@D@_STL@@V?$allocator@D@2@@_STL@@H@1@XZ ; _STL::_Rb_tree_iterator<_STL::pair<_STL::basic_string<char,_STL::char_traits<char>,_STL::allocator<char> > const ,int>,_STL::_Nonconst_traits<_STL::pair<_STL::basic_string<char,_STL::char_traits<char>,_STL::allocator<char> > const ,int> > >::operator*
; Function compile flags: /Ogty
;	COMDAT ??D?$_Rb_tree_iterator@U?$pair@$$CBV?$basic_string@DV?$char_traits@D@_STL@@V?$allocator@D@2@@_STL@@H@_STL@@U?$_Nonconst_traits@U?$pair@$$CBV?$basic_string@DV?$char_traits@D@_STL@@V?$allocator@D@2@@_STL@@H@_STL@@@2@@_STL@@QBEAAU?$pair@$$CBV?$basic_string@DV?$char_traits@D@_STL@@V?$allocator@D@2@@_STL@@H@1@XZ
_TEXT	SEGMENT
??D?$_Rb_tree_iterator@U?$pair@$$CBV?$basic_string@DV?$char_traits@D@_STL@@V?$allocator@D@2@@_STL@@H@_STL@@U?$_Nonconst_traits@U?$pair@$$CBV?$basic_string@DV?$char_traits@D@_STL@@V?$allocator@D@2@@_STL@@H@_STL@@@2@@_STL@@QBEAAU?$pair@$$CBV?$basic_string@DV?$char_traits@D@_STL@@V?$allocator@D@2@@_STL@@H@1@XZ PROC NEAR ; _STL::_Rb_tree_iterator<_STL::pair<_STL::basic_string<char,_STL::char_traits<char>,_STL::allocator<char> > const ,int>,_STL::_Nonconst_traits<_STL::pair<_STL::basic_string<char,_STL::char_traits<char>,_STL::allocator<char> > const ,int> > >::operator*, COMDAT
; _this$ = ecx

; 169  :     return _Link_type(_M_node)->_M_value_field; 

  00000	8b 01		 mov	 eax, DWORD PTR [ecx]
  00002	83 c0 10	 add	 eax, 16			; 00000010H

; 170  :   }

  00005	c3		 ret	 0
??D?$_Rb_tree_iterator@U?$pair@$$CBV?$basic_string@DV?$char_traits@D@_STL@@V?$allocator@D@2@@_STL@@H@_STL@@U?$_Nonconst_traits@U?$pair@$$CBV?$basic_string@DV?$char_traits@D@_STL@@V?$allocator@D@2@@_STL@@H@_STL@@@2@@_STL@@QBEAAU?$pair@$$CBV?$basic_string@DV?$char_traits@D@_STL@@V?$allocator@D@2@@_STL@@H@1@XZ ENDP ; _STL::_Rb_tree_iterator<_STL::pair<_STL::basic_string<char,_STL::char_traits<char>,_STL::allocator<char> > const ,int>,_STL::_Nonconst_traits<_STL::pair<_STL::basic_string<char,_STL::char_traits<char>,_STL::allocator<char> > const ,int> > >::operator*
_TEXT	ENDS
PUBLIC	??1?$_STLP_alloc_proxy@PAUtagPOINT@@U1@V?$allocator@UtagPOINT@@@_STL@@@_STL@@QAE@XZ ; _STL::_STLP_alloc_proxy<tagPOINT *,tagPOINT,_STL::allocator<tagPOINT> >::~_STLP_alloc_proxy<tagPOINT *,tagPOINT,_STL::allocator<tagPOINT> >
; Function compile flags: /Ogty
;	COMDAT ??1?$_STLP_alloc_proxy@PAUtagPOINT@@U1@V?$allocator@UtagPOINT@@@_STL@@@_STL@@QAE@XZ
_TEXT	SEGMENT
??1?$_STLP_alloc_proxy@PAUtagPOINT@@U1@V?$allocator@UtagPOINT@@@_STL@@@_STL@@QAE@XZ PROC NEAR ; _STL::_STLP_alloc_proxy<tagPOINT *,tagPOINT,_STL::allocator<tagPOINT> >::~_STLP_alloc_proxy<tagPOINT *,tagPOINT,_STL::allocator<tagPOINT> >, COMDAT
; _this$ = ecx
  00000	c3		 ret	 0
??1?$_STLP_alloc_proxy@PAUtagPOINT@@U1@V?$allocator@UtagPOINT@@@_STL@@@_STL@@QAE@XZ ENDP ; _STL::_STLP_alloc_proxy<tagPOINT *,tagPOINT,_STL::allocator<tagPOINT> >::~_STLP_alloc_proxy<tagPOINT *,tagPOINT,_STL::allocator<tagPOINT> >
_TEXT	ENDS
PUBLIC	??1?$_STLP_alloc_proxy@PAUtagRECT@@U1@V?$allocator@UtagRECT@@@_STL@@@_STL@@QAE@XZ ; _STL::_STLP_alloc_proxy<tagRECT *,tagRECT,_STL::allocator<tagRECT> >::~_STLP_alloc_proxy<tagRECT *,tagRECT,_STL::allocator<tagRECT> >
; Function compile flags: /Ogty
;	COMDAT ??1?$_STLP_alloc_proxy@PAUtagRECT@@U1@V?$allocator@UtagRECT@@@_STL@@@_STL@@QAE@XZ
_TEXT	SEGMENT
??1?$_STLP_alloc_proxy@PAUtagRECT@@U1@V?$allocator@UtagRECT@@@_STL@@@_STL@@QAE@XZ PROC NEAR ; _STL::_STLP_alloc_proxy<tagRECT *,tagRECT,_STL::allocator<tagRECT> >::~_STLP_alloc_proxy<tagRECT *,tagRECT,_STL::allocator<tagRECT> >, COMDAT
; _this$ = ecx
  00000	c3		 ret	 0
??1?$_STLP_alloc_proxy@PAUtagRECT@@U1@V?$allocator@UtagRECT@@@_STL@@@_STL@@QAE@XZ ENDP ; _STL::_STLP_alloc_proxy<tagRECT *,tagRECT,_STL::allocator<tagRECT> >::~_STLP_alloc_proxy<tagRECT *,tagRECT,_STL::allocator<tagRECT> >
_TEXT	ENDS
PUBLIC	?size@?$basic_string@DV?$char_traits@D@_STL@@V?$allocator@D@2@@_STL@@QBEIXZ ; _STL::basic_string<char,_STL::char_traits<char>,_STL::allocator<char> >::size
; Function compile flags: /Ogty
; File c:\stlport-4.6.1\stlport\stl\_string.h
;	COMDAT ?size@?$basic_string@DV?$char_traits@D@_STL@@V?$allocator@D@2@@_STL@@QBEIXZ
_TEXT	SEGMENT
?size@?$basic_string@DV?$char_traits@D@_STL@@V?$allocator@D@2@@_STL@@QBEIXZ PROC NEAR ; _STL::basic_string<char,_STL::char_traits<char>,_STL::allocator<char> >::size, COMDAT
; _this$ = ecx

; 431  :   size_type size() const { return this->_M_finish - this->_M_start; }

  00000	8b 41 04	 mov	 eax, DWORD PTR [ecx+4]
  00003	2b 01		 sub	 eax, DWORD PTR [ecx]
  00005	c3		 ret	 0
?size@?$basic_string@DV?$char_traits@D@_STL@@V?$allocator@D@2@@_STL@@QBEIXZ ENDP ; _STL::basic_string<char,_STL::char_traits<char>,_STL::allocator<char> >::size
_TEXT	ENDS
PUBLIC	?size@?$vector@UtagPOINT@@V?$allocator@UtagPOINT@@@_STL@@@_STL@@QBEIXZ ; _STL::vector<tagPOINT,_STL::allocator<tagPOINT> >::size
; Function compile flags: /Ogty
; File c:\stlport-4.6.1\stlport\stl\_vector.h
;	COMDAT ?size@?$vector@UtagPOINT@@V?$allocator@UtagPOINT@@@_STL@@@_STL@@QBEIXZ
_TEXT	SEGMENT
?size@?$vector@UtagPOINT@@V?$allocator@UtagPOINT@@@_STL@@@_STL@@QBEIXZ PROC NEAR ; _STL::vector<tagPOINT,_STL::allocator<tagPOINT> >::size, COMDAT
; _this$ = ecx

; 182  :   size_type size() const        { return size_type(this->_M_finish - this->_M_start); }

  00000	8b 41 04	 mov	 eax, DWORD PTR [ecx+4]
  00003	2b 01		 sub	 eax, DWORD PTR [ecx]
  00005	c1 f8 03	 sar	 eax, 3
  00008	c3		 ret	 0
?size@?$vector@UtagPOINT@@V?$allocator@UtagPOINT@@@_STL@@@_STL@@QBEIXZ ENDP ; _STL::vector<tagPOINT,_STL::allocator<tagPOINT> >::size
_TEXT	ENDS
PUBLIC	?_M_set@?$vector@UtagPOINT@@V?$allocator@UtagPOINT@@@_STL@@@_STL@@IAEXPAUtagPOINT@@00@Z ; _STL::vector<tagPOINT,_STL::allocator<tagPOINT> >::_M_set
; Function compile flags: /Ogty
;	COMDAT ?_M_set@?$vector@UtagPOINT@@V?$allocator@UtagPOINT@@@_STL@@@_STL@@IAEXPAUtagPOINT@@00@Z
_TEXT	SEGMENT
___s$ = 8						; size = 4
___f$ = 12						; size = 4
___e$ = 16						; size = 4
?_M_set@?$vector@UtagPOINT@@V?$allocator@UtagPOINT@@@_STL@@@_STL@@IAEXPAUtagPOINT@@00@Z PROC NEAR ; _STL::vector<tagPOINT,_STL::allocator<tagPOINT> >::_M_set, COMDAT
; _this$ = ecx

; 501  :     this->_M_start = __s;

  00000	8b 44 24 04	 mov	 eax, DWORD PTR ___s$[esp-4]

; 502  :     this->_M_finish = __f;

  00004	8b 54 24 08	 mov	 edx, DWORD PTR ___f$[esp-4]
  00008	89 01		 mov	 DWORD PTR [ecx], eax

; 503  :     this->_M_end_of_storage._M_data = __e;

  0000a	8b 44 24 0c	 mov	 eax, DWORD PTR ___e$[esp-4]
  0000e	89 51 04	 mov	 DWORD PTR [ecx+4], edx
  00011	89 41 08	 mov	 DWORD PTR [ecx+8], eax

; 504  :   }

  00014	c2 0c 00	 ret	 12			; 0000000cH
?_M_set@?$vector@UtagPOINT@@V?$allocator@UtagPOINT@@@_STL@@@_STL@@IAEXPAUtagPOINT@@00@Z ENDP ; _STL::vector<tagPOINT,_STL::allocator<tagPOINT> >::_M_set
_TEXT	ENDS
PUBLIC	?size@?$vector@UtagRECT@@V?$allocator@UtagRECT@@@_STL@@@_STL@@QBEIXZ ; _STL::vector<tagRECT,_STL::allocator<tagRECT> >::size
; Function compile flags: /Ogty
;	COMDAT ?size@?$vector@UtagRECT@@V?$allocator@UtagRECT@@@_STL@@@_STL@@QBEIXZ
_TEXT	SEGMENT
?size@?$vector@UtagRECT@@V?$allocator@UtagRECT@@@_STL@@@_STL@@QBEIXZ PROC NEAR ; _STL::vector<tagRECT,_STL::allocator<tagRECT> >::size, COMDAT
; _this$ = ecx

; 182  :   size_type size() const        { return size_type(this->_M_finish - this->_M_start); }

  00000	8b 41 04	 mov	 eax, DWORD PTR [ecx+4]
  00003	2b 01		 sub	 eax, DWORD PTR [ecx]
  00005	c1 f8 04	 sar	 eax, 4
  00008	c3		 ret	 0
?size@?$vector@UtagRECT@@V?$allocator@UtagRECT@@@_STL@@@_STL@@QBEIXZ ENDP ; _STL::vector<tagRECT,_STL::allocator<tagRECT> >::size
_TEXT	ENDS
PUBLIC	?_M_set@?$vector@UtagRECT@@V?$allocator@UtagRECT@@@_STL@@@_STL@@IAEXPAUtagRECT@@00@Z ; _STL::vector<tagRECT,_STL::allocator<tagRECT> >::_M_set
; Function compile flags: /Ogty
;	COMDAT ?_M_set@?$vector@UtagRECT@@V?$allocator@UtagRECT@@@_STL@@@_STL@@IAEXPAUtagRECT@@00@Z
_TEXT	SEGMENT
___s$ = 8						; size = 4
___f$ = 12						; size = 4
___e$ = 16						; size = 4
?_M_set@?$vector@UtagRECT@@V?$allocator@UtagRECT@@@_STL@@@_STL@@IAEXPAUtagRECT@@00@Z PROC NEAR ; _STL::vector<tagRECT,_STL::allocator<tagRECT> >::_M_set, COMDAT
; _this$ = ecx

; 501  :     this->_M_start = __s;

  00000	8b 44 24 04	 mov	 eax, DWORD PTR ___s$[esp-4]

; 502  :     this->_M_finish = __f;

  00004	8b 54 24 08	 mov	 edx, DWORD PTR ___f$[esp-4]
  00008	89 01		 mov	 DWORD PTR [ecx], eax

; 503  :     this->_M_end_of_storage._M_data = __e;

  0000a	8b 44 24 0c	 mov	 eax, DWORD PTR ___e$[esp-4]
  0000e	89 51 04	 mov	 DWORD PTR [ecx+4], edx
  00011	89 41 08	 mov	 DWORD PTR [ecx+8], eax

; 504  :   }

  00014	c2 0c 00	 ret	 12			; 0000000cH
?_M_set@?$vector@UtagRECT@@V?$allocator@UtagRECT@@@_STL@@@_STL@@IAEXPAUtagRECT@@00@Z ENDP ; _STL::vector<tagRECT,_STL::allocator<tagRECT> >::_M_set
_TEXT	ENDS
PUBLIC	?_M_root@?$_Rb_tree@V?$basic_string@DV?$char_traits@D@_STL@@V?$allocator@D@2@@_STL@@U?$pair@$$CBV?$basic_string@DV?$char_traits@D@_STL@@V?$allocator@D@2@@_STL@@H@2@U?$_Select1st@U?$pair@$$CBV?$basic_string@DV?$char_traits@D@_STL@@V?$allocator@D@2@@_STL@@H@_STL@@@2@U?$less@V?$basic_string@DV?$char_traits@D@_STL@@V?$allocator@D@2@@_STL@@@2@V?$allocator@U?$pair@$$CBV?$basic_string@DV?$char_traits@D@_STL@@V?$allocator@D@2@@_STL@@H@_STL@@@2@@_STL@@IBEAAPAU?$_Rb_tree_node@U?$pair@$$CBV?$basic_string@DV?$char_traits@D@_STL@@V?$allocator@D@2@@_STL@@H@_STL@@@2@XZ ; _STL::_Rb_tree<_STL::basic_string<char,_STL::char_traits<char>,_STL::allocator<char> >,_STL::pair<_STL::basic_string<char,_STL::char_traits<char>,_STL::allocator<char> > const ,int>,_STL::_Select1st<_STL::pair<_STL::basic_string<char,_STL::char_traits<char>,_STL::allocator<char> > const ,int> >,_STL::less<_STL::basic_string<char,_STL::char_traits<char>,_STL::allocator<char> > >,_STL::allocator<_STL::pair<_STL::basic_string<char,_STL::char_traits<char>,_STL::allocator<char> > const ,int> > >::_M_root
; Function compile flags: /Ogty
; File c:\stlport-4.6.1\stlport\stl\_tree.h
;	COMDAT ?_M_root@?$_Rb_tree@V?$basic_string@DV?$char_traits@D@_STL@@V?$allocator@D@2@@_STL@@U?$pair@$$CBV?$basic_string@DV?$char_traits@D@_STL@@V?$allocator@D@2@@_STL@@H@2@U?$_Select1st@U?$pair@$$CBV?$basic_string@DV?$char_traits@D@_STL@@V?$allocator@D@2@@_STL@@H@_STL@@@2@U?$less@V?$basic_string@DV?$char_traits@D@_STL@@V?$allocator@D@2@@_STL@@@2@V?$allocator@U?$pair@$$CBV?$basic_string@DV?$char_traits@D@_STL@@V?$allocator@D@2@@_STL@@H@_STL@@@2@@_STL@@IBEAAPAU?$_Rb_tree_node@U?$pair@$$CBV?$basic_string@DV?$char_traits@D@_STL@@V?$allocator@D@2@@_STL@@H@_STL@@@2@XZ
_TEXT	SEGMENT
?_M_root@?$_Rb_tree@V?$basic_string@DV?$char_traits@D@_STL@@V?$allocator@D@2@@_STL@@U?$pair@$$CBV?$basic_string@DV?$char_traits@D@_STL@@V?$allocator@D@2@@_STL@@H@2@U?$_Select1st@U?$pair@$$CBV?$basic_string@DV?$char_traits@D@_STL@@V?$allocator@D@2@@_STL@@H@_STL@@@2@U?$less@V?$basic_string@DV?$char_traits@D@_STL@@V?$allocator@D@2@@_STL@@@2@V?$allocator@U?$pair@$$CBV?$basic_string@DV?$char_traits@D@_STL@@V?$allocator@D@2@@_STL@@H@_STL@@@2@@_STL@@IBEAAPAU?$_Rb_tree_node@U?$pair@$$CBV?$basic_string@DV?$char_traits@D@_STL@@V?$allocator@D@2@@_STL@@H@_STL@@@2@XZ PROC NEAR ; _STL::_Rb_tree<_STL::basic_string<char,_STL::char_traits<char>,_STL::allocator<char> >,_STL::pair<_STL::basic_string<char,_STL::char_traits<char>,_STL::allocator<char> > const ,int>,_STL::_Select1st<_STL::pair<_STL::basic_string<char,_STL::char_traits<char>,_STL::allocator<char> > const ,int> >,_STL::less<_STL::basic_string<char,_STL::char_traits<char>,_STL::allocator<char> > >,_STL::allocator<_STL::pair<_STL::basic_string<char,_STL::char_traits<char>,_STL::allocator<char> > const ,int> > >::_M_root, COMDAT
; _this$ = ecx

; 265  :     { return (_Link_type&) this->_M_header._M_data->_M_parent; }

  00000	8b 01		 mov	 eax, DWORD PTR [ecx]
  00002	83 c0 04	 add	 eax, 4
  00005	c3		 ret	 0
?_M_root@?$_Rb_tree@V?$basic_string@DV?$char_traits@D@_STL@@V?$allocator@D@2@@_STL@@U?$pair@$$CBV?$basic_string@DV?$char_traits@D@_STL@@V?$allocator@D@2@@_STL@@H@2@U?$_Select1st@U?$pair@$$CBV?$basic_string@DV?$char_traits@D@_STL@@V?$allocator@D@2@@_STL@@H@_STL@@@2@U?$less@V?$basic_string@DV?$char_traits@D@_STL@@V?$allocator@D@2@@_STL@@@2@V?$allocator@U?$pair@$$CBV?$basic_string@DV?$char_traits@D@_STL@@V?$allocator@D@2@@_STL@@H@_STL@@@2@@_STL@@IBEAAPAU?$_Rb_tree_node@U?$pair@$$CBV?$basic_string@DV?$char_traits@D@_STL@@V?$allocator@D@2@@_STL@@H@_STL@@@2@XZ ENDP ; _STL::_Rb_tree<_STL::basic_string<char,_STL::char_traits<char>,_STL::allocator<char> >,_STL::pair<_STL::basic_string<char,_STL::char_traits<char>,_STL::allocator<char> > const ,int>,_STL::_Select1st<_STL::pair<_STL::basic_string<char,_STL::char_traits<char>,_STL::allocator<char> > const ,int> >,_STL::less<_STL::basic_string<char,_STL::char_traits<char>,_STL::allocator<char> > >,_STL::allocator<_STL::pair<_STL::basic_string<char,_STL::char_traits<char>,_STL::allocator<char> > const ,int> > >::_M_root
_TEXT	ENDS
PUBLIC	?_M_leftmost@?$_Rb_tree@V?$basic_string@DV?$char_traits@D@_STL@@V?$allocator@D@2@@_STL@@U?$pair@$$CBV?$basic_string@DV?$char_traits@D@_STL@@V?$allocator@D@2@@_STL@@H@2@U?$_Select1st@U?$pair@$$CBV?$basic_string@DV?$char_traits@D@_STL@@V?$allocator@D@2@@_STL@@H@_STL@@@2@U?$less@V?$basic_string@DV?$char_traits@D@_STL@@V?$allocator@D@2@@_STL@@@2@V?$allocator@U?$pair@$$CBV?$basic_string@DV?$char_traits@D@_STL@@V?$allocator@D@2@@_STL@@H@_STL@@@2@@_STL@@IBEAAPAU?$_Rb_tree_node@U?$pair@$$CBV?$basic_string@DV?$char_traits@D@_STL@@V?$allocator@D@2@@_STL@@H@_STL@@@2@XZ ; _STL::_Rb_tree<_STL::basic_string<char,_STL::char_traits<char>,_STL::allocator<char> >,_STL::pair<_STL::basic_string<char,_STL::char_traits<char>,_STL::allocator<char> > const ,int>,_STL::_Select1st<_STL::pair<_STL::basic_string<char,_STL::char_traits<char>,_STL::allocator<char> > const ,int> >,_STL::less<_STL::basic_string<char,_STL::char_traits<char>,_STL::allocator<char> > >,_STL::allocator<_STL::pair<_STL::basic_string<char,_STL::char_traits<char>,_STL::allocator<char> > const ,int> > >::_M_leftmost
; Function compile flags: /Ogty
;	COMDAT ?_M_leftmost@?$_Rb_tree@V?$basic_string@DV?$char_traits@D@_STL@@V?$allocator@D@2@@_STL@@U?$pair@$$CBV?$basic_string@DV?$char_traits@D@_STL@@V?$allocator@D@2@@_STL@@H@2@U?$_Select1st@U?$pair@$$CBV?$basic_string@DV?$char_traits@D@_STL@@V?$allocator@D@2@@_STL@@H@_STL@@@2@U?$less@V?$basic_string@DV?$char_traits@D@_STL@@V?$allocator@D@2@@_STL@@@2@V?$allocator@U?$pair@$$CBV?$basic_string@DV?$char_traits@D@_STL@@V?$allocator@D@2@@_STL@@H@_STL@@@2@@_STL@@IBEAAPAU?$_Rb_tree_node@U?$pair@$$CBV?$basic_string@DV?$char_traits@D@_STL@@V?$allocator@D@2@@_STL@@H@_STL@@@2@XZ
_TEXT	SEGMENT
?_M_leftmost@?$_Rb_tree@V?$basic_string@DV?$char_traits@D@_STL@@V?$allocator@D@2@@_STL@@U?$pair@$$CBV?$basic_string@DV?$char_traits@D@_STL@@V?$allocator@D@2@@_STL@@H@2@U?$_Select1st@U?$pair@$$CBV?$basic_string@DV?$char_traits@D@_STL@@V?$allocator@D@2@@_STL@@H@_STL@@@2@U?$less@V?$basic_string@DV?$char_traits@D@_STL@@V?$allocator@D@2@@_STL@@@2@V?$allocator@U?$pair@$$CBV?$basic_string@DV?$char_traits@D@_STL@@V?$allocator@D@2@@_STL@@H@_STL@@@2@@_STL@@IBEAAPAU?$_Rb_tree_node@U?$pair@$$CBV?$basic_string@DV?$char_traits@D@_STL@@V?$allocator@D@2@@_STL@@H@_STL@@@2@XZ PROC NEAR ; _STL::_Rb_tree<_STL::basic_string<char,_STL::char_traits<char>,_STL::allocator<char> >,_STL::pair<_STL::basic_string<char,_STL::char_traits<char>,_STL::allocator<char> > const ,int>,_STL::_Select1st<_STL::pair<_STL::basic_string<char,_STL::char_traits<char>,_STL::allocator<char> > const ,int> >,_STL::less<_STL::basic_string<char,_STL::char_traits<char>,_STL::allocator<char> > >,_STL::allocator<_STL::pair<_STL::basic_string<char,_STL::char_traits<char>,_STL::allocator<char> > const ,int> > >::_M_leftmost, COMDAT
; _this$ = ecx

; 267  :     { return (_Link_type&) this->_M_header._M_data->_M_left; }

  00000	8b 01		 mov	 eax, DWORD PTR [ecx]
  00002	83 c0 08	 add	 eax, 8
  00005	c3		 ret	 0
?_M_leftmost@?$_Rb_tree@V?$basic_string@DV?$char_traits@D@_STL@@V?$allocator@D@2@@_STL@@U?$pair@$$CBV?$basic_string@DV?$char_traits@D@_STL@@V?$allocator@D@2@@_STL@@H@2@U?$_Select1st@U?$pair@$$CBV?$basic_string@DV?$char_traits@D@_STL@@V?$allocator@D@2@@_STL@@H@_STL@@@2@U?$less@V?$basic_string@DV?$char_traits@D@_STL@@V?$allocator@D@2@@_STL@@@2@V?$allocator@U?$pair@$$CBV?$basic_string@DV?$char_traits@D@_STL@@V?$allocator@D@2@@_STL@@H@_STL@@@2@@_STL@@IBEAAPAU?$_Rb_tree_node@U?$pair@$$CBV?$basic_string@DV?$char_traits@D@_STL@@V?$allocator@D@2@@_STL@@H@_STL@@@2@XZ ENDP ; _STL::_Rb_tree<_STL::basic_string<char,_STL::char_traits<char>,_STL::allocator<char> >,_STL::pair<_STL::basic_string<char,_STL::char_traits<char>,_STL::allocator<char> > const ,int>,_STL::_Select1st<_STL::pair<_STL::basic_string<char,_STL::char_traits<char>,_STL::allocator<char> > const ,int> >,_STL::less<_STL::basic_string<char,_STL::char_traits<char>,_STL::allocator<char> > >,_STL::allocator<_STL::pair<_STL::basic_string<char,_STL::char_traits<char>,_STL::allocator<char> > const ,int> > >::_M_leftmost
_TEXT	ENDS
PUBLIC	?_M_rightmost@?$_Rb_tree@V?$basic_string@DV?$char_traits@D@_STL@@V?$allocator@D@2@@_STL@@U?$pair@$$CBV?$basic_string@DV?$char_traits@D@_STL@@V?$allocator@D@2@@_STL@@H@2@U?$_Select1st@U?$pair@$$CBV?$basic_string@DV?$char_traits@D@_STL@@V?$allocator@D@2@@_STL@@H@_STL@@@2@U?$less@V?$basic_string@DV?$char_traits@D@_STL@@V?$allocator@D@2@@_STL@@@2@V?$allocator@U?$pair@$$CBV?$basic_string@DV?$char_traits@D@_STL@@V?$allocator@D@2@@_STL@@H@_STL@@@2@@_STL@@IBEAAPAU?$_Rb_tree_node@U?$pair@$$CBV?$basic_string@DV?$char_traits@D@_STL@@V?$allocator@D@2@@_STL@@H@_STL@@@2@XZ ; _STL::_Rb_tree<_STL::basic_string<char,_STL::char_traits<char>,_STL::allocator<char> >,_STL::pair<_STL::basic_string<char,_STL::char_traits<char>,_STL::allocator<char> > const ,int>,_STL::_Select1st<_STL::pair<_STL::basic_string<char,_STL::char_traits<char>,_STL::allocator<char> > const ,int> >,_STL::less<_STL::basic_string<char,_STL::char_traits<char>,_STL::allocator<char> > >,_STL::allocator<_STL::pair<_STL::basic_string<char,_STL::char_traits<char>,_STL::allocator<char> > const ,int> > >::_M_rightmost
; Function compile flags: /Ogty
;	COMDAT ?_M_rightmost@?$_Rb_tree@V?$basic_string@DV?$char_traits@D@_STL@@V?$allocator@D@2@@_STL@@U?$pair@$$CBV?$basic_string@DV?$char_traits@D@_STL@@V?$allocator@D@2@@_STL@@H@2@U?$_Select1st@U?$pair@$$CBV?$basic_string@DV?$char_traits@D@_STL@@V?$allocator@D@2@@_STL@@H@_STL@@@2@U?$less@V?$basic_string@DV?$char_traits@D@_STL@@V?$allocator@D@2@@_STL@@@2@V?$allocator@U?$pair@$$CBV?$basic_string@DV?$char_traits@D@_STL@@V?$allocator@D@2@@_STL@@H@_STL@@@2@@_STL@@IBEAAPAU?$_Rb_tree_node@U?$pair@$$CBV?$basic_string@DV?$char_traits@D@_STL@@V?$allocator@D@2@@_STL@@H@_STL@@@2@XZ
_TEXT	SEGMENT
?_M_rightmost@?$_Rb_tree@V?$basic_string@DV?$char_traits@D@_STL@@V?$allocator@D@2@@_STL@@U?$pair@$$CBV?$basic_string@DV?$char_traits@D@_STL@@V?$allocator@D@2@@_STL@@H@2@U?$_Select1st@U?$pair@$$CBV?$basic_string@DV?$char_traits@D@_STL@@V?$allocator@D@2@@_STL@@H@_STL@@@2@U?$less@V?$basic_string@DV?$char_traits@D@_STL@@V?$allocator@D@2@@_STL@@@2@V?$allocator@U?$pair@$$CBV?$basic_string@DV?$char_traits@D@_STL@@V?$allocator@D@2@@_STL@@H@_STL@@@2@@_STL@@IBEAAPAU?$_Rb_tree_node@U?$pair@$$CBV?$basic_string@DV?$char_traits@D@_STL@@V?$allocator@D@2@@_STL@@H@_STL@@@2@XZ PROC NEAR ; _STL::_Rb_tree<_STL::basic_string<char,_STL::char_traits<char>,_STL::allocator<char> >,_STL::pair<_STL::basic_string<char,_STL::char_traits<char>,_STL::allocator<char> > const ,int>,_STL::_Select1st<_STL::pair<_STL::basic_string<char,_STL::char_traits<char>,_STL::allocator<char> > const ,int> >,_STL::less<_STL::basic_string<char,_STL::char_traits<char>,_STL::allocator<char> > >,_STL::allocator<_STL::pair<_STL::basic_string<char,_STL::char_traits<char>,_STL::allocator<char> > const ,int> > >::_M_rightmost, COMDAT
; _this$ = ecx

; 269  :     { return (_Link_type&) this->_M_header._M_data->_M_right; }

  00000	8b 01		 mov	 eax, DWORD PTR [ecx]
  00002	83 c0 0c	 add	 eax, 12			; 0000000cH
  00005	c3		 ret	 0
?_M_rightmost@?$_Rb_tree@V?$basic_string@DV?$char_traits@D@_STL@@V?$allocator@D@2@@_STL@@U?$pair@$$CBV?$basic_string@DV?$char_traits@D@_STL@@V?$allocator@D@2@@_STL@@H@2@U?$_Select1st@U?$pair@$$CBV?$basic_string@DV?$char_traits@D@_STL@@V?$allocator@D@2@@_STL@@H@_STL@@@2@U?$less@V?$basic_string@DV?$char_traits@D@_STL@@V?$allocator@D@2@@_STL@@@2@V?$allocator@U?$pair@$$CBV?$basic_string@DV?$char_traits@D@_STL@@V?$allocator@D@2@@_STL@@H@_STL@@@2@@_STL@@IBEAAPAU?$_Rb_tree_node@U?$pair@$$CBV?$basic_string@DV?$char_traits@D@_STL@@V?$allocator@D@2@@_STL@@H@_STL@@@2@XZ ENDP ; _STL::_Rb_tree<_STL::basic_string<char,_STL::char_traits<char>,_STL::allocator<char> >,_STL::pair<_STL::basic_string<char,_STL::char_traits<char>,_STL::allocator<char> > const ,int>,_STL::_Select1st<_STL::pair<_STL::basic_string<char,_STL::char_traits<char>,_STL::allocator<char> > const ,int> >,_STL::less<_STL::basic_string<char,_STL::char_traits<char>,_STL::allocator<char> > >,_STL::allocator<_STL::pair<_STL::basic_string<char,_STL::char_traits<char>,_STL::allocator<char> > const ,int> > >::_M_rightmost
_TEXT	ENDS
PUBLIC	?key_comp@?$_Rb_tree@V?$basic_string@DV?$char_traits@D@_STL@@V?$allocator@D@2@@_STL@@U?$pair@$$CBV?$basic_string@DV?$char_traits@D@_STL@@V?$allocator@D@2@@_STL@@H@2@U?$_Select1st@U?$pair@$$CBV?$basic_string@DV?$char_traits@D@_STL@@V?$allocator@D@2@@_STL@@H@_STL@@@2@U?$less@V?$basic_string@DV?$char_traits@D@_STL@@V?$allocator@D@2@@_STL@@@2@V?$allocator@U?$pair@$$CBV?$basic_string@DV?$char_traits@D@_STL@@V?$allocator@D@2@@_STL@@H@_STL@@@2@@_STL@@QBE?AU?$less@V?$basic_string@DV?$char_traits@D@_STL@@V?$allocator@D@2@@_STL@@@2@XZ ; _STL::_Rb_tree<_STL::basic_string<char,_STL::char_traits<char>,_STL::allocator<char> >,_STL::pair<_STL::basic_string<char,_STL::char_traits<char>,_STL::allocator<char> > const ,int>,_STL::_Select1st<_STL::pair<_STL::basic_string<char,_STL::char_traits<char>,_STL::allocator<char> > const ,int> >,_STL::less<_STL::basic_string<char,_STL::char_traits<char>,_STL::allocator<char> > >,_STL::allocator<_STL::pair<_STL::basic_string<char,_STL::char_traits<char>,_STL::allocator<char> > const ,int> > >::key_comp
; Function compile flags: /Ogty
;	COMDAT ?key_comp@?$_Rb_tree@V?$basic_string@DV?$char_traits@D@_STL@@V?$allocator@D@2@@_STL@@U?$pair@$$CBV?$basic_string@DV?$char_traits@D@_STL@@V?$allocator@D@2@@_STL@@H@2@U?$_Select1st@U?$pair@$$CBV?$basic_string@DV?$char_traits@D@_STL@@V?$allocator@D@2@@_STL@@H@_STL@@@2@U?$less@V?$basic_string@DV?$char_traits@D@_STL@@V?$allocator@D@2@@_STL@@@2@V?$allocator@U?$pair@$$CBV?$basic_string@DV?$char_traits@D@_STL@@V?$allocator@D@2@@_STL@@H@_STL@@@2@@_STL@@QBE?AU?$less@V?$basic_string@DV?$char_traits@D@_STL@@V?$allocator@D@2@@_STL@@@2@XZ
_TEXT	SEGMENT
___$ReturnUdt$ = 8					; size = 4
?key_comp@?$_Rb_tree@V?$basic_string@DV?$char_traits@D@_STL@@V?$allocator@D@2@@_STL@@U?$pair@$$CBV?$basic_string@DV?$char_traits@D@_STL@@V?$allocator@D@2@@_STL@@H@2@U?$_Select1st@U?$pair@$$CBV?$basic_string@DV?$char_traits@D@_STL@@V?$allocator@D@2@@_STL@@H@_STL@@@2@U?$less@V?$basic_string@DV?$char_traits@D@_STL@@V?$allocator@D@2@@_STL@@@2@V?$allocator@U?$pair@$$CBV?$basic_string@DV?$char_traits@D@_STL@@V?$allocator@D@2@@_STL@@H@_STL@@@2@@_STL@@QBE?AU?$less@V?$basic_string@DV?$char_traits@D@_STL@@V?$allocator@D@2@@_STL@@@2@XZ PROC NEAR ; _STL::_Rb_tree<_STL::basic_string<char,_STL::char_traits<char>,_STL::allocator<char> >,_STL::pair<_STL::basic_string<char,_STL::char_traits<char>,_STL::allocator<char> > const ,int>,_STL::_Select1st<_STL::pair<_STL::basic_string<char,_STL::char_traits<char>,_STL::allocator<char> > const ,int> >,_STL::less<_STL::basic_string<char,_STL::char_traits<char>,_STL::allocator<char> > >,_STL::allocator<_STL::pair<_STL::basic_string<char,_STL::char_traits<char>,_STL::allocator<char> > const ,int> > >::key_comp, COMDAT
; _this$ = ecx

; 355  :   _Compare key_comp() const { return _M_key_compare; }

  00000	8b 44 24 04	 mov	 eax, DWORD PTR ___$ReturnUdt$[esp-4]
  00004	c2 04 00	 ret	 4
?key_comp@?$_Rb_tree@V?$basic_string@DV?$char_traits@D@_STL@@V?$allocator@D@2@@_STL@@U?$pair@$$CBV?$basic_string@DV?$char_traits@D@_STL@@V?$allocator@D@2@@_STL@@H@2@U?$_Select1st@U?$pair@$$CBV?$basic_string@DV?$char_traits@D@_STL@@V?$allocator@D@2@@_STL@@H@_STL@@@2@U?$less@V?$basic_string@DV?$char_traits@D@_STL@@V?$allocator@D@2@@_STL@@@2@V?$allocator@U?$pair@$$CBV?$basic_string@DV?$char_traits@D@_STL@@V?$allocator@D@2@@_STL@@H@_STL@@@2@@_STL@@QBE?AU?$less@V?$basic_string@DV?$char_traits@D@_STL@@V?$allocator@D@2@@_STL@@@2@XZ ENDP ; _STL::_Rb_tree<_STL::basic_string<char,_STL::char_traits<char>,_STL::allocator<char> >,_STL::pair<_STL::basic_string<char,_STL::char_traits<char>,_STL::allocator<char> > const ,int>,_STL::_Select1st<_STL::pair<_STL::basic_string<char,_STL::char_traits<char>,_STL::allocator<char> > const ,int> >,_STL::less<_STL::basic_string<char,_STL::char_traits<char>,_STL::allocator<char> > >,_STL::allocator<_STL::pair<_STL::basic_string<char,_STL::char_traits<char>,_STL::allocator<char> > const ,int> > >::key_comp
_TEXT	ENDS
PUBLIC	??1?$allocator@U?$_Rb_tree_node@U?$pair@$$CBV?$basic_string@DV?$char_traits@D@_STL@@V?$allocator@D@2@@_STL@@H@_STL@@@_STL@@@_STL@@QAE@XZ ; _STL::allocator<_STL::_Rb_tree_node<_STL::pair<_STL::basic_string<char,_STL::char_traits<char>,_STL::allocator<char> > const ,int> > >::~allocator<_STL::_Rb_tree_node<_STL::pair<_STL::basic_string<char,_STL::char_traits<char>,_STL::allocator<char> > const ,int> > >
; Function compile flags: /Ogty
; File c:\stlport-4.6.1\stlport\stl\_alloc.h
;	COMDAT ??1?$allocator@U?$_Rb_tree_node@U?$pair@$$CBV?$basic_string@DV?$char_traits@D@_STL@@V?$allocator@D@2@@_STL@@H@_STL@@@_STL@@@_STL@@QAE@XZ
_TEXT	SEGMENT
??1?$allocator@U?$_Rb_tree_node@U?$pair@$$CBV?$basic_string@DV?$char_traits@D@_STL@@V?$allocator@D@2@@_STL@@H@_STL@@@_STL@@@_STL@@QAE@XZ PROC NEAR ; _STL::allocator<_STL::_Rb_tree_node<_STL::pair<_STL::basic_string<char,_STL::char_traits<char>,_STL::allocator<char> > const ,int> > >::~allocator<_STL::_Rb_tree_node<_STL::pair<_STL::basic_string<char,_STL::char_traits<char>,_STL::allocator<char> > const ,int> > >, COMDAT
; _this$ = ecx

; 350  :   ~allocator() _STLP_NOTHROW {}

  00000	c3		 ret	 0
??1?$allocator@U?$_Rb_tree_node@U?$pair@$$CBV?$basic_string@DV?$char_traits@D@_STL@@V?$allocator@D@2@@_STL@@H@_STL@@@_STL@@@_STL@@QAE@XZ ENDP ; _STL::allocator<_STL::_Rb_tree_node<_STL::pair<_STL::basic_string<char,_STL::char_traits<char>,_STL::allocator<char> > const ,int> > >::~allocator<_STL::_Rb_tree_node<_STL::pair<_STL::basic_string<char,_STL::char_traits<char>,_STL::allocator<char> > const ,int> > >
_TEXT	ENDS
PUBLIC	??0?$_Rb_tree_iterator@U?$pair@$$CBV?$basic_string@DV?$char_traits@D@_STL@@V?$allocator@D@2@@_STL@@H@_STL@@U?$_Nonconst_traits@U?$pair@$$CBV?$basic_string@DV?$char_traits@D@_STL@@V?$allocator@D@2@@_STL@@H@_STL@@@2@@_STL@@QAE@PAU?$_Rb_tree_node@U?$pair@$$CBV?$basic_string@DV?$char_traits@D@_STL@@V?$allocator@D@2@@_STL@@H@_STL@@@1@@Z ; _STL::_Rb_tree_iterator<_STL::pair<_STL::basic_string<char,_STL::char_traits<char>,_STL::allocator<char> > const ,int>,_STL::_Nonconst_traits<_STL::pair<_STL::basic_string<char,_STL::char_traits<char>,_STL::allocator<char> > const ,int> > >::_Rb_tree_iterator<_STL::pair<_STL::basic_string<char,_STL::char_traits<char>,_STL::allocator<char> > const ,int>,_STL::_Nonconst_traits<_STL::pair<_STL::basic_string<char,_STL::char_traits<char>,_STL::allocator<char> > const ,int> > >
; Function compile flags: /Ogty
; File c:\stlport-4.6.1\stlport\stl\_tree.h
;	COMDAT ??0?$_Rb_tree_iterator@U?$pair@$$CBV?$basic_string@DV?$char_traits@D@_STL@@V?$allocator@D@2@@_STL@@H@_STL@@U?$_Nonconst_traits@U?$pair@$$CBV?$basic_string@DV?$char_traits@D@_STL@@V?$allocator@D@2@@_STL@@H@_STL@@@2@@_STL@@QAE@PAU?$_Rb_tree_node@U?$pair@$$CBV?$basic_string@DV?$char_traits@D@_STL@@V?$allocator@D@2@@_STL@@H@_STL@@@1@@Z
_TEXT	SEGMENT
___x$ = 8						; size = 4
??0?$_Rb_tree_iterator@U?$pair@$$CBV?$basic_string@DV?$char_traits@D@_STL@@V?$allocator@D@2@@_STL@@H@_STL@@U?$_Nonconst_traits@U?$pair@$$CBV?$basic_string@DV?$char_traits@D@_STL@@V?$allocator@D@2@@_STL@@H@_STL@@@2@@_STL@@QAE@PAU?$_Rb_tree_node@U?$pair@$$CBV?$basic_string@DV?$char_traits@D@_STL@@V?$allocator@D@2@@_STL@@H@_STL@@@1@@Z PROC NEAR ; _STL::_Rb_tree_iterator<_STL::pair<_STL::basic_string<char,_STL::char_traits<char>,_STL::allocator<char> > const ,int>,_STL::_Nonconst_traits<_STL::pair<_STL::basic_string<char,_STL::char_traits<char>,_STL::allocator<char> > const ,int> > >::_Rb_tree_iterator<_STL::pair<_STL::basic_string<char,_STL::char_traits<char>,_STL::allocator<char> > const ,int>,_STL::_Nonconst_traits<_STL::pair<_STL::basic_string<char,_STL::char_traits<char>,_STL::allocator<char> > const ,int> > >, COMDAT
; _this$ = ecx

; 164  :   _Rb_tree_iterator(_Link_type __x) { _M_node = __x; }

  00000	8b c1		 mov	 eax, ecx
  00002	8b 4c 24 04	 mov	 ecx, DWORD PTR ___x$[esp-4]
  00006	89 08		 mov	 DWORD PTR [eax], ecx
  00008	c2 04 00	 ret	 4
??0?$_Rb_tree_iterator@U?$pair@$$CBV?$basic_string@DV?$char_traits@D@_STL@@V?$allocator@D@2@@_STL@@H@_STL@@U?$_Nonconst_traits@U?$pair@$$CBV?$basic_string@DV?$char_traits@D@_STL@@V?$allocator@D@2@@_STL@@H@_STL@@@2@@_STL@@QAE@PAU?$_Rb_tree_node@U?$pair@$$CBV?$basic_string@DV?$char_traits@D@_STL@@V?$allocator@D@2@@_STL@@H@_STL@@@1@@Z ENDP ; _STL::_Rb_tree_iterator<_STL::pair<_STL::basic_string<char,_STL::char_traits<char>,_STL::allocator<char> > const ,int>,_STL::_Nonconst_traits<_STL::pair<_STL::basic_string<char,_STL::char_traits<char>,_STL::allocator<char> > const ,int> > >::_Rb_tree_iterator<_STL::pair<_STL::basic_string<char,_STL::char_traits<char>,_STL::allocator<char> > const ,int>,_STL::_Nonconst_traits<_STL::pair<_STL::basic_string<char,_STL::char_traits<char>,_STL::allocator<char> > const ,int> > >
_TEXT	ENDS
PUBLIC	?allocate@?$__node_alloc@$00$0A@@_STL@@SAPAXI@Z	; _STL::__node_alloc<1,0>::allocate
EXTRN	?_M_allocate@?$__node_alloc@$00$0A@@_STL@@CAPAXI@Z:NEAR ; _STL::__node_alloc<1,0>::_M_allocate
; Function compile flags: /Ogty
; File c:\stlport-4.6.1\stlport\stl\_alloc.h
;	COMDAT ?allocate@?$__node_alloc@$00$0A@@_STL@@SAPAXI@Z
_TEXT	SEGMENT
___n$ = 8						; size = 4
?allocate@?$__node_alloc@$00$0A@@_STL@@SAPAXI@Z PROC NEAR ; _STL::__node_alloc<1,0>::allocate, COMDAT

; 251  :   static void * _STLP_CALL allocate(size_t __n) { return (__n > (size_t)_MAX_BYTES) ?  __stl_new(__n) : _M_allocate(__n); }

  00000	8b 44 24 04	 mov	 eax, DWORD PTR ___n$[esp-4]
  00004	3d 80 00 00 00	 cmp	 eax, 128		; 00000080H
  00009	76 09		 jbe	 SHORT $L78214
  0000b	89 44 24 04	 mov	 DWORD PTR ___n$[esp-4], eax
  0000f	e9 00 00 00 00	 jmp	 ??2@YAPAXI@Z		; operator new
$L78214:
  00014	89 44 24 04	 mov	 DWORD PTR ___n$[esp-4], eax
  00018	e9 00 00 00 00	 jmp	 ?_M_allocate@?$__node_alloc@$00$0A@@_STL@@CAPAXI@Z ; _STL::__node_alloc<1,0>::_M_allocate
?allocate@?$__node_alloc@$00$0A@@_STL@@SAPAXI@Z ENDP	; _STL::__node_alloc<1,0>::allocate
_TEXT	ENDS
PUBLIC	??0?$allocator@UtagPOINT@@@_STL@@QAE@ABV01@@Z	; _STL::allocator<tagPOINT>::allocator<tagPOINT>
; Function compile flags: /Ogty
;	COMDAT ??0?$allocator@UtagPOINT@@@_STL@@QAE@ABV01@@Z
_TEXT	SEGMENT
___formal$ = 8						; size = 4
??0?$allocator@UtagPOINT@@@_STL@@QAE@ABV01@@Z PROC NEAR	; _STL::allocator<tagPOINT>::allocator<tagPOINT>, COMDAT
; _this$ = ecx

; 349  :   allocator(const allocator<_Tp>&) _STLP_NOTHROW {}

  00000	8b c1		 mov	 eax, ecx
  00002	c2 04 00	 ret	 4
??0?$allocator@UtagPOINT@@@_STL@@QAE@ABV01@@Z ENDP	; _STL::allocator<tagPOINT>::allocator<tagPOINT>
_TEXT	ENDS
PUBLIC	??0?$allocator@UtagRECT@@@_STL@@QAE@ABV01@@Z	; _STL::allocator<tagRECT>::allocator<tagRECT>
; Function compile flags: /Ogty
;	COMDAT ??0?$allocator@UtagRECT@@@_STL@@QAE@ABV01@@Z
_TEXT	SEGMENT
___formal$ = 8						; size = 4
??0?$allocator@UtagRECT@@@_STL@@QAE@ABV01@@Z PROC NEAR	; _STL::allocator<tagRECT>::allocator<tagRECT>, COMDAT
; _this$ = ecx

; 349  :   allocator(const allocator<_Tp>&) _STLP_NOTHROW {}

  00000	8b c1		 mov	 eax, ecx
  00002	c2 04 00	 ret	 4
??0?$allocator@UtagRECT@@@_STL@@QAE@ABV01@@Z ENDP	; _STL::allocator<tagRECT>::allocator<tagRECT>
_TEXT	ENDS
PUBLIC	?_S_color@?$_Rb_tree@V?$basic_string@DV?$char_traits@D@_STL@@V?$allocator@D@2@@_STL@@U?$pair@$$CBV?$basic_string@DV?$char_traits@D@_STL@@V?$allocator@D@2@@_STL@@H@2@U?$_Select1st@U?$pair@$$CBV?$basic_string@DV?$char_traits@D@_STL@@V?$allocator@D@2@@_STL@@H@_STL@@@2@U?$less@V?$basic_string@DV?$char_traits@D@_STL@@V?$allocator@D@2@@_STL@@@2@V?$allocator@U?$pair@$$CBV?$basic_string@DV?$char_traits@D@_STL@@V?$allocator@D@2@@_STL@@H@_STL@@@2@@_STL@@KAAA_NPAU?$_Rb_tree_node@U?$pair@$$CBV?$basic_string@DV?$char_traits@D@_STL@@V?$allocator@D@2@@_STL@@H@_STL@@@2@@Z ; _STL::_Rb_tree<_STL::basic_string<char,_STL::char_traits<char>,_STL::allocator<char> >,_STL::pair<_STL::basic_string<char,_STL::char_traits<char>,_STL::allocator<char> > const ,int>,_STL::_Select1st<_STL::pair<_STL::basic_string<char,_STL::char_traits<char>,_STL::allocator<char> > const ,int> >,_STL::less<_STL::basic_string<char,_STL::char_traits<char>,_STL::allocator<char> > >,_STL::allocator<_STL::pair<_STL::basic_string<char,_STL::char_traits<char>,_STL::allocator<char> > const ,int> > >::_S_color
; Function compile flags: /Ogty
; File c:\stlport-4.6.1\stlport\stl\_tree.h
;	COMDAT ?_S_color@?$_Rb_tree@V?$basic_string@DV?$char_traits@D@_STL@@V?$allocator@D@2@@_STL@@U?$pair@$$CBV?$basic_string@DV?$char_traits@D@_STL@@V?$allocator@D@2@@_STL@@H@2@U?$_Select1st@U?$pair@$$CBV?$basic_string@DV?$char_traits@D@_STL@@V?$allocator@D@2@@_STL@@H@_STL@@@2@U?$less@V?$basic_string@DV?$char_traits@D@_STL@@V?$allocator@D@2@@_STL@@@2@V?$allocator@U?$pair@$$CBV?$basic_string@DV?$char_traits@D@_STL@@V?$allocator@D@2@@_STL@@H@_STL@@@2@@_STL@@KAAA_NPAU?$_Rb_tree_node@U?$pair@$$CBV?$basic_string@DV?$char_traits@D@_STL@@V?$allocator@D@2@@_STL@@H@_STL@@@2@@Z
_TEXT	SEGMENT
___x$ = 8						; size = 4
?_S_color@?$_Rb_tree@V?$basic_string@DV?$char_traits@D@_STL@@V?$allocator@D@2@@_STL@@U?$pair@$$CBV?$basic_string@DV?$char_traits@D@_STL@@V?$allocator@D@2@@_STL@@H@2@U?$_Select1st@U?$pair@$$CBV?$basic_string@DV?$char_traits@D@_STL@@V?$allocator@D@2@@_STL@@H@_STL@@@2@U?$less@V?$basic_string@DV?$char_traits@D@_STL@@V?$allocator@D@2@@_STL@@@2@V?$allocator@U?$pair@$$CBV?$basic_string@DV?$char_traits@D@_STL@@V?$allocator@D@2@@_STL@@H@_STL@@@2@@_STL@@KAAA_NPAU?$_Rb_tree_node@U?$pair@$$CBV?$basic_string@DV?$char_traits@D@_STL@@V?$allocator@D@2@@_STL@@H@_STL@@@2@@Z PROC NEAR ; _STL::_Rb_tree<_STL::basic_string<char,_STL::char_traits<char>,_STL::allocator<char> >,_STL::pair<_STL::basic_string<char,_STL::char_traits<char>,_STL::allocator<char> > const ,int>,_STL::_Select1st<_STL::pair<_STL::basic_string<char,_STL::char_traits<char>,_STL::allocator<char> > const ,int> >,_STL::less<_STL::basic_string<char,_STL::char_traits<char>,_STL::allocator<char> > >,_STL::allocator<_STL::pair<_STL::basic_string<char,_STL::char_traits<char>,_STL::allocator<char> > const ,int> > >::_S_color, COMDAT

; 282  :     { return (_Color_type&)(__x->_M_color); }

  00000	8b 44 24 04	 mov	 eax, DWORD PTR ___x$[esp-4]
  00004	c3		 ret	 0
?_S_color@?$_Rb_tree@V?$basic_string@DV?$char_traits@D@_STL@@V?$allocator@D@2@@_STL@@U?$pair@$$CBV?$basic_string@DV?$char_traits@D@_STL@@V?$allocator@D@2@@_STL@@H@2@U?$_Select1st@U?$pair@$$CBV?$basic_string@DV?$char_traits@D@_STL@@V?$allocator@D@2@@_STL@@H@_STL@@@2@U?$less@V?$basic_string@DV?$char_traits@D@_STL@@V?$allocator@D@2@@_STL@@@2@V?$allocator@U?$pair@$$CBV?$basic_string@DV?$char_traits@D@_STL@@V?$allocator@D@2@@_STL@@H@_STL@@@2@@_STL@@KAAA_NPAU?$_Rb_tree_node@U?$pair@$$CBV?$basic_string@DV?$char_traits@D@_STL@@V?$allocator@D@2@@_STL@@H@_STL@@@2@@Z ENDP ; _STL::_Rb_tree<_STL::basic_string<char,_STL::char_traits<char>,_STL::allocator<char> >,_STL::pair<_STL::basic_string<char,_STL::char_traits<char>,_STL::allocator<char> > const ,int>,_STL::_Select1st<_STL::pair<_STL::basic_string<char,_STL::char_traits<char>,_STL::allocator<char> > const ,int> >,_STL::less<_STL::basic_string<char,_STL::char_traits<char>,_STL::allocator<char> > >,_STL::allocator<_STL::pair<_STL::basic_string<char,_STL::char_traits<char>,_STL::allocator<char> > const ,int> > >::_S_color
_TEXT	ENDS
PUBLIC	?allocate@?$allocator@U?$_Rb_tree_node@U?$pair@$$CBV?$basic_string@DV?$char_traits@D@_STL@@V?$allocator@D@2@@_STL@@H@_STL@@@_STL@@@_STL@@QAEPAU?$_Rb_tree_node@U?$pair@$$CBV?$basic_string@DV?$char_traits@D@_STL@@V?$allocator@D@2@@_STL@@H@_STL@@@2@IPBX@Z ; _STL::allocator<_STL::_Rb_tree_node<_STL::pair<_STL::basic_string<char,_STL::char_traits<char>,_STL::allocator<char> > const ,int> > >::allocate
; Function compile flags: /Ogty
; File c:\stlport-4.6.1\stlport\stl\_alloc.h
;	COMDAT ?allocate@?$allocator@U?$_Rb_tree_node@U?$pair@$$CBV?$basic_string@DV?$char_traits@D@_STL@@V?$allocator@D@2@@_STL@@H@_STL@@@_STL@@@_STL@@QAEPAU?$_Rb_tree_node@U?$pair@$$CBV?$basic_string@DV?$char_traits@D@_STL@@V?$allocator@D@2@@_STL@@H@_STL@@@2@IPBX@Z
_TEXT	SEGMENT
___n$ = 8						; size = 4
___formal$ = 12						; size = 4
?allocate@?$allocator@U?$_Rb_tree_node@U?$pair@$$CBV?$basic_string@DV?$char_traits@D@_STL@@V?$allocator@D@2@@_STL@@H@_STL@@@_STL@@@_STL@@QAEPAU?$_Rb_tree_node@U?$pair@$$CBV?$basic_string@DV?$char_traits@D@_STL@@V?$allocator@D@2@@_STL@@H@_STL@@@2@IPBX@Z PROC NEAR ; _STL::allocator<_STL::_Rb_tree_node<_STL::pair<_STL::basic_string<char,_STL::char_traits<char>,_STL::allocator<char> > const ,int> > >::allocate, COMDAT
; _this$ = ecx

; 355  :     return __n != 0 ? __REINTERPRET_CAST(value_type*,__sgi_alloc::allocate(__n * sizeof(value_type))) : 0;

  00000	8b 44 24 04	 mov	 eax, DWORD PTR ___n$[esp-4]
  00004	85 c0		 test	 eax, eax
  00006	74 21		 je	 SHORT $L78231
  00008	c1 e0 05	 shl	 eax, 5
  0000b	3d 80 00 00 00	 cmp	 eax, 128		; 00000080H
  00010	50		 push	 eax
  00011	76 0b		 jbe	 SHORT $L78240
  00013	e8 00 00 00 00	 call	 ??2@YAPAXI@Z		; operator new
  00018	83 c4 04	 add	 esp, 4

; 356  :   }

  0001b	c2 08 00	 ret	 8

; 355  :     return __n != 0 ? __REINTERPRET_CAST(value_type*,__sgi_alloc::allocate(__n * sizeof(value_type))) : 0;

$L78240:
  0001e	e8 00 00 00 00	 call	 ?_M_allocate@?$__node_alloc@$00$0A@@_STL@@CAPAXI@Z ; _STL::__node_alloc<1,0>::_M_allocate
  00023	83 c4 04	 add	 esp, 4

; 356  :   }

  00026	c2 08 00	 ret	 8
$L78231:

; 355  :     return __n != 0 ? __REINTERPRET_CAST(value_type*,__sgi_alloc::allocate(__n * sizeof(value_type))) : 0;

  00029	33 c0		 xor	 eax, eax

; 356  :   }

  0002b	c2 08 00	 ret	 8
?allocate@?$allocator@U?$_Rb_tree_node@U?$pair@$$CBV?$basic_string@DV?$char_traits@D@_STL@@V?$allocator@D@2@@_STL@@H@_STL@@@_STL@@@_STL@@QAEPAU?$_Rb_tree_node@U?$pair@$$CBV?$basic_string@DV?$char_traits@D@_STL@@V?$allocator@D@2@@_STL@@H@_STL@@@2@IPBX@Z ENDP ; _STL::allocator<_STL::_Rb_tree_node<_STL::pair<_STL::basic_string<char,_STL::char_traits<char>,_STL::allocator<char> > const ,int> > >::allocate
_TEXT	ENDS
PUBLIC	?_S_left@?$_Rb_tree@V?$basic_string@DV?$char_traits@D@_STL@@V?$allocator@D@2@@_STL@@U?$pair@$$CBV?$basic_string@DV?$char_traits@D@_STL@@V?$allocator@D@2@@_STL@@H@2@U?$_Select1st@U?$pair@$$CBV?$basic_string@DV?$char_traits@D@_STL@@V?$allocator@D@2@@_STL@@H@_STL@@@2@U?$less@V?$basic_string@DV?$char_traits@D@_STL@@V?$allocator@D@2@@_STL@@@2@V?$allocator@U?$pair@$$CBV?$basic_string@DV?$char_traits@D@_STL@@V?$allocator@D@2@@_STL@@H@_STL@@@2@@_STL@@KAAAPAU?$_Rb_tree_node@U?$pair@$$CBV?$basic_string@DV?$char_traits@D@_STL@@V?$allocator@D@2@@_STL@@H@_STL@@@2@PAU32@@Z ; _STL::_Rb_tree<_STL::basic_string<char,_STL::char_traits<char>,_STL::allocator<char> >,_STL::pair<_STL::basic_string<char,_STL::char_traits<char>,_STL::allocator<char> > const ,int>,_STL::_Select1st<_STL::pair<_STL::basic_string<char,_STL::char_traits<char>,_STL::allocator<char> > const ,int> >,_STL::less<_STL::basic_string<char,_STL::char_traits<char>,_STL::allocator<char> > >,_STL::allocator<_STL::pair<_STL::basic_string<char,_STL::char_traits<char>,_STL::allocator<char> > const ,int> > >::_S_left
; Function compile flags: /Ogty
; File c:\stlport-4.6.1\stlport\stl\_tree.h
;	COMDAT ?_S_left@?$_Rb_tree@V?$basic_string@DV?$char_traits@D@_STL@@V?$allocator@D@2@@_STL@@U?$pair@$$CBV?$basic_string@DV?$char_traits@D@_STL@@V?$allocator@D@2@@_STL@@H@2@U?$_Select1st@U?$pair@$$CBV?$basic_string@DV?$char_traits@D@_STL@@V?$allocator@D@2@@_STL@@H@_STL@@@2@U?$less@V?$basic_string@DV?$char_traits@D@_STL@@V?$allocator@D@2@@_STL@@@2@V?$allocator@U?$pair@$$CBV?$basic_string@DV?$char_traits@D@_STL@@V?$allocator@D@2@@_STL@@H@_STL@@@2@@_STL@@KAAAPAU?$_Rb_tree_node@U?$pair@$$CBV?$basic_string@DV?$char_traits@D@_STL@@V?$allocator@D@2@@_STL@@H@_STL@@@2@PAU32@@Z
_TEXT	SEGMENT
___x$ = 8						; size = 4
?_S_left@?$_Rb_tree@V?$basic_string@DV?$char_traits@D@_STL@@V?$allocator@D@2@@_STL@@U?$pair@$$CBV?$basic_string@DV?$char_traits@D@_STL@@V?$allocator@D@2@@_STL@@H@2@U?$_Select1st@U?$pair@$$CBV?$basic_string@DV?$char_traits@D@_STL@@V?$allocator@D@2@@_STL@@H@_STL@@@2@U?$less@V?$basic_string@DV?$char_traits@D@_STL@@V?$allocator@D@2@@_STL@@@2@V?$allocator@U?$pair@$$CBV?$basic_string@DV?$char_traits@D@_STL@@V?$allocator@D@2@@_STL@@H@_STL@@@2@@_STL@@KAAAPAU?$_Rb_tree_node@U?$pair@$$CBV?$basic_string@DV?$char_traits@D@_STL@@V?$allocator@D@2@@_STL@@H@_STL@@@2@PAU32@@Z PROC NEAR ; _STL::_Rb_tree<_STL::basic_string<char,_STL::char_traits<char>,_STL::allocator<char> >,_STL::pair<_STL::basic_string<char,_STL::char_traits<char>,_STL::allocator<char> > const ,int>,_STL::_Select1st<_STL::pair<_STL::basic_string<char,_STL::char_traits<char>,_STL::allocator<char> > const ,int> >,_STL::less<_STL::basic_string<char,_STL::char_traits<char>,_STL::allocator<char> > >,_STL::allocator<_STL::pair<_STL::basic_string<char,_STL::char_traits<char>,_STL::allocator<char> > const ,int> > >::_S_left, COMDAT

; 272  :     { return (_Link_type&)(__x->_M_left); }

  00000	8b 44 24 04	 mov	 eax, DWORD PTR ___x$[esp-4]
  00004	83 c0 08	 add	 eax, 8
  00007	c3		 ret	 0
?_S_left@?$_Rb_tree@V?$basic_string@DV?$char_traits@D@_STL@@V?$allocator@D@2@@_STL@@U?$pair@$$CBV?$basic_string@DV?$char_traits@D@_STL@@V?$allocator@D@2@@_STL@@H@2@U?$_Select1st@U?$pair@$$CBV?$basic_string@DV?$char_traits@D@_STL@@V?$allocator@D@2@@_STL@@H@_STL@@@2@U?$less@V?$basic_string@DV?$char_traits@D@_STL@@V?$allocator@D@2@@_STL@@@2@V?$allocator@U?$pair@$$CBV?$basic_string@DV?$char_traits@D@_STL@@V?$allocator@D@2@@_STL@@H@_STL@@@2@@_STL@@KAAAPAU?$_Rb_tree_node@U?$pair@$$CBV?$basic_string@DV?$char_traits@D@_STL@@V?$allocator@D@2@@_STL@@H@_STL@@@2@PAU32@@Z ENDP ; _STL::_Rb_tree<_STL::basic_string<char,_STL::char_traits<char>,_STL::allocator<char> >,_STL::pair<_STL::basic_string<char,_STL::char_traits<char>,_STL::allocator<char> > const ,int>,_STL::_Select1st<_STL::pair<_STL::basic_string<char,_STL::char_traits<char>,_STL::allocator<char> > const ,int> >,_STL::less<_STL::basic_string<char,_STL::char_traits<char>,_STL::allocator<char> > >,_STL::allocator<_STL::pair<_STL::basic_string<char,_STL::char_traits<char>,_STL::allocator<char> > const ,int> > >::_S_left
_TEXT	ENDS
PUBLIC	?_S_right@?$_Rb_tree@V?$basic_string@DV?$char_traits@D@_STL@@V?$allocator@D@2@@_STL@@U?$pair@$$CBV?$basic_string@DV?$char_traits@D@_STL@@V?$allocator@D@2@@_STL@@H@2@U?$_Select1st@U?$pair@$$CBV?$basic_string@DV?$char_traits@D@_STL@@V?$allocator@D@2@@_STL@@H@_STL@@@2@U?$less@V?$basic_string@DV?$char_traits@D@_STL@@V?$allocator@D@2@@_STL@@@2@V?$allocator@U?$pair@$$CBV?$basic_string@DV?$char_traits@D@_STL@@V?$allocator@D@2@@_STL@@H@_STL@@@2@@_STL@@KAAAPAU?$_Rb_tree_node@U?$pair@$$CBV?$basic_string@DV?$char_traits@D@_STL@@V?$allocator@D@2@@_STL@@H@_STL@@@2@PAU32@@Z ; _STL::_Rb_tree<_STL::basic_string<char,_STL::char_traits<char>,_STL::allocator<char> >,_STL::pair<_STL::basic_string<char,_STL::char_traits<char>,_STL::allocator<char> > const ,int>,_STL::_Select1st<_STL::pair<_STL::basic_string<char,_STL::char_traits<char>,_STL::allocator<char> > const ,int> >,_STL::less<_STL::basic_string<char,_STL::char_traits<char>,_STL::allocator<char> > >,_STL::allocator<_STL::pair<_STL::basic_string<char,_STL::char_traits<char>,_STL::allocator<char> > const ,int> > >::_S_right
; Function compile flags: /Ogty
;	COMDAT ?_S_right@?$_Rb_tree@V?$basic_string@DV?$char_traits@D@_STL@@V?$allocator@D@2@@_STL@@U?$pair@$$CBV?$basic_string@DV?$char_traits@D@_STL@@V?$allocator@D@2@@_STL@@H@2@U?$_Select1st@U?$pair@$$CBV?$basic_string@DV?$char_traits@D@_STL@@V?$allocator@D@2@@_STL@@H@_STL@@@2@U?$less@V?$basic_string@DV?$char_traits@D@_STL@@V?$allocator@D@2@@_STL@@@2@V?$allocator@U?$pair@$$CBV?$basic_string@DV?$char_traits@D@_STL@@V?$allocator@D@2@@_STL@@H@_STL@@@2@@_STL@@KAAAPAU?$_Rb_tree_node@U?$pair@$$CBV?$basic_string@DV?$char_traits@D@_STL@@V?$allocator@D@2@@_STL@@H@_STL@@@2@PAU32@@Z
_TEXT	SEGMENT
___x$ = 8						; size = 4
?_S_right@?$_Rb_tree@V?$basic_string@DV?$char_traits@D@_STL@@V?$allocator@D@2@@_STL@@U?$pair@$$CBV?$basic_string@DV?$char_traits@D@_STL@@V?$allocator@D@2@@_STL@@H@2@U?$_Select1st@U?$pair@$$CBV?$basic_string@DV?$char_traits@D@_STL@@V?$allocator@D@2@@_STL@@H@_STL@@@2@U?$less@V?$basic_string@DV?$char_traits@D@_STL@@V?$allocator@D@2@@_STL@@@2@V?$allocator@U?$pair@$$CBV?$basic_string@DV?$char_traits@D@_STL@@V?$allocator@D@2@@_STL@@H@_STL@@@2@@_STL@@KAAAPAU?$_Rb_tree_node@U?$pair@$$CBV?$basic_string@DV?$char_traits@D@_STL@@V?$allocator@D@2@@_STL@@H@_STL@@@2@PAU32@@Z PROC NEAR ; _STL::_Rb_tree<_STL::basic_string<char,_STL::char_traits<char>,_STL::allocator<char> >,_STL::pair<_STL::basic_string<char,_STL::char_traits<char>,_STL::allocator<char> > const ,int>,_STL::_Select1st<_STL::pair<_STL::basic_string<char,_STL::char_traits<char>,_STL::allocator<char> > const ,int> >,_STL::less<_STL::basic_string<char,_STL::char_traits<char>,_STL::allocator<char> > >,_STL::allocator<_STL::pair<_STL::basic_string<char,_STL::char_traits<char>,_STL::allocator<char> > const ,int> > >::_S_right, COMDAT

; 274  :     { return (_Link_type&)(__x->_M_right); }

  00000	8b 44 24 04	 mov	 eax, DWORD PTR ___x$[esp-4]
  00004	83 c0 0c	 add	 eax, 12			; 0000000cH
  00007	c3		 ret	 0
?_S_right@?$_Rb_tree@V?$basic_string@DV?$char_traits@D@_STL@@V?$allocator@D@2@@_STL@@U?$pair@$$CBV?$basic_string@DV?$char_traits@D@_STL@@V?$allocator@D@2@@_STL@@H@2@U?$_Select1st@U?$pair@$$CBV?$basic_string@DV?$char_traits@D@_STL@@V?$allocator@D@2@@_STL@@H@_STL@@@2@U?$less@V?$basic_string@DV?$char_traits@D@_STL@@V?$allocator@D@2@@_STL@@@2@V?$allocator@U?$pair@$$CBV?$basic_string@DV?$char_traits@D@_STL@@V?$allocator@D@2@@_STL@@H@_STL@@@2@@_STL@@KAAAPAU?$_Rb_tree_node@U?$pair@$$CBV?$basic_string@DV?$char_traits@D@_STL@@V?$allocator@D@2@@_STL@@H@_STL@@@2@PAU32@@Z ENDP ; _STL::_Rb_tree<_STL::basic_string<char,_STL::char_traits<char>,_STL::allocator<char> >,_STL::pair<_STL::basic_string<char,_STL::char_traits<char>,_STL::allocator<char> > const ,int>,_STL::_Select1st<_STL::pair<_STL::basic_string<char,_STL::char_traits<char>,_STL::allocator<char> > const ,int> >,_STL::less<_STL::basic_string<char,_STL::char_traits<char>,_STL::allocator<char> > >,_STL::allocator<_STL::pair<_STL::basic_string<char,_STL::char_traits<char>,_STL::allocator<char> > const ,int> > >::_S_right
_TEXT	ENDS
PUBLIC	??0?$allocator@U?$_Rb_tree_node@U?$pair@$$CBV?$basic_string@DV?$char_traits@D@_STL@@V?$allocator@D@2@@_STL@@H@_STL@@@_STL@@@_STL@@QAE@ABV01@@Z ; _STL::allocator<_STL::_Rb_tree_node<_STL::pair<_STL::basic_string<char,_STL::char_traits<char>,_STL::allocator<char> > const ,int> > >::allocator<_STL::_Rb_tree_node<_STL::pair<_STL::basic_string<char,_STL::char_traits<char>,_STL::allocator<char> > const ,int> > >
; Function compile flags: /Ogty
; File c:\stlport-4.6.1\stlport\stl\_alloc.h
;	COMDAT ??0?$allocator@U?$_Rb_tree_node@U?$pair@$$CBV?$basic_string@DV?$char_traits@D@_STL@@V?$allocator@D@2@@_STL@@H@_STL@@@_STL@@@_STL@@QAE@ABV01@@Z
_TEXT	SEGMENT
___formal$ = 8						; size = 4
??0?$allocator@U?$_Rb_tree_node@U?$pair@$$CBV?$basic_string@DV?$char_traits@D@_STL@@V?$allocator@D@2@@_STL@@H@_STL@@@_STL@@@_STL@@QAE@ABV01@@Z PROC NEAR ; _STL::allocator<_STL::_Rb_tree_node<_STL::pair<_STL::basic_string<char,_STL::char_traits<char>,_STL::allocator<char> > const ,int> > >::allocator<_STL::_Rb_tree_node<_STL::pair<_STL::basic_string<char,_STL::char_traits<char>,_STL::allocator<char> > const ,int> > >, COMDAT
; _this$ = ecx

; 349  :   allocator(const allocator<_Tp>&) _STLP_NOTHROW {}

  00000	8b c1		 mov	 eax, ecx
  00002	c2 04 00	 ret	 4
??0?$allocator@U?$_Rb_tree_node@U?$pair@$$CBV?$basic_string@DV?$char_traits@D@_STL@@V?$allocator@D@2@@_STL@@H@_STL@@@_STL@@@_STL@@QAE@ABV01@@Z ENDP ; _STL::allocator<_STL::_Rb_tree_node<_STL::pair<_STL::basic_string<char,_STL::char_traits<char>,_STL::allocator<char> > const ,int> > >::allocator<_STL::_Rb_tree_node<_STL::pair<_STL::basic_string<char,_STL::char_traits<char>,_STL::allocator<char> > const ,int> > >
_TEXT	ENDS
PUBLIC	?_S_value@?$_Rb_tree@V?$basic_string@DV?$char_traits@D@_STL@@V?$allocator@D@2@@_STL@@U?$pair@$$CBV?$basic_string@DV?$char_traits@D@_STL@@V?$allocator@D@2@@_STL@@H@2@U?$_Select1st@U?$pair@$$CBV?$basic_string@DV?$char_traits@D@_STL@@V?$allocator@D@2@@_STL@@H@_STL@@@2@U?$less@V?$basic_string@DV?$char_traits@D@_STL@@V?$allocator@D@2@@_STL@@@2@V?$allocator@U?$pair@$$CBV?$basic_string@DV?$char_traits@D@_STL@@V?$allocator@D@2@@_STL@@H@_STL@@@2@@_STL@@KAAAU?$pair@$$CBV?$basic_string@DV?$char_traits@D@_STL@@V?$allocator@D@2@@_STL@@H@2@PAU?$_Rb_tree_node@U?$pair@$$CBV?$basic_string@DV?$char_traits@D@_STL@@V?$allocator@D@2@@_STL@@H@_STL@@@2@@Z ; _STL::_Rb_tree<_STL::basic_string<char,_STL::char_traits<char>,_STL::allocator<char> >,_STL::pair<_STL::basic_string<char,_STL::char_traits<char>,_STL::allocator<char> > const ,int>,_STL::_Select1st<_STL::pair<_STL::basic_string<char,_STL::char_traits<char>,_STL::allocator<char> > const ,int> >,_STL::less<_STL::basic_string<char,_STL::char_traits<char>,_STL::allocator<char> > >,_STL::allocator<_STL::pair<_STL::basic_string<char,_STL::char_traits<char>,_STL::allocator<char> > const ,int> > >::_S_value
; Function compile flags: /Ogty
; File c:\stlport-4.6.1\stlport\stl\_tree.h
;	COMDAT ?_S_value@?$_Rb_tree@V?$basic_string@DV?$char_traits@D@_STL@@V?$allocator@D@2@@_STL@@U?$pair@$$CBV?$basic_string@DV?$char_traits@D@_STL@@V?$allocator@D@2@@_STL@@H@2@U?$_Select1st@U?$pair@$$CBV?$basic_string@DV?$char_traits@D@_STL@@V?$allocator@D@2@@_STL@@H@_STL@@@2@U?$less@V?$basic_string@DV?$char_traits@D@_STL@@V?$allocator@D@2@@_STL@@@2@V?$allocator@U?$pair@$$CBV?$basic_string@DV?$char_traits@D@_STL@@V?$allocator@D@2@@_STL@@H@_STL@@@2@@_STL@@KAAAU?$pair@$$CBV?$basic_string@DV?$char_traits@D@_STL@@V?$allocator@D@2@@_STL@@H@2@PAU?$_Rb_tree_node@U?$pair@$$CBV?$basic_string@DV?$char_traits@D@_STL@@V?$allocator@D@2@@_STL@@H@_STL@@@2@@Z
_TEXT	SEGMENT
___x$ = 8						; size = 4
?_S_value@?$_Rb_tree@V?$basic_string@DV?$char_traits@D@_STL@@V?$allocator@D@2@@_STL@@U?$pair@$$CBV?$basic_string@DV?$char_traits@D@_STL@@V?$allocator@D@2@@_STL@@H@2@U?$_Select1st@U?$pair@$$CBV?$basic_string@DV?$char_traits@D@_STL@@V?$allocator@D@2@@_STL@@H@_STL@@@2@U?$less@V?$basic_string@DV?$char_traits@D@_STL@@V?$allocator@D@2@@_STL@@@2@V?$allocator@U?$pair@$$CBV?$basic_string@DV?$char_traits@D@_STL@@V?$allocator@D@2@@_STL@@H@_STL@@@2@@_STL@@KAAAU?$pair@$$CBV?$basic_string@DV?$char_traits@D@_STL@@V?$allocator@D@2@@_STL@@H@2@PAU?$_Rb_tree_node@U?$pair@$$CBV?$basic_string@DV?$char_traits@D@_STL@@V?$allocator@D@2@@_STL@@H@_STL@@@2@@Z PROC NEAR ; _STL::_Rb_tree<_STL::basic_string<char,_STL::char_traits<char>,_STL::allocator<char> >,_STL::pair<_STL::basic_string<char,_STL::char_traits<char>,_STL::allocator<char> > const ,int>,_STL::_Select1st<_STL::pair<_STL::basic_string<char,_STL::char_traits<char>,_STL::allocator<char> > const ,int> >,_STL::less<_STL::basic_string<char,_STL::char_traits<char>,_STL::allocator<char> > >,_STL::allocator<_STL::pair<_STL::basic_string<char,_STL::char_traits<char>,_STL::allocator<char> > const ,int> > >::_S_value, COMDAT

; 278  :     { return __x->_M_value_field; }

  00000	8b 44 24 04	 mov	 eax, DWORD PTR ___x$[esp-4]
  00004	83 c0 10	 add	 eax, 16			; 00000010H
  00007	c3		 ret	 0
?_S_value@?$_Rb_tree@V?$basic_string@DV?$char_traits@D@_STL@@V?$allocator@D@2@@_STL@@U?$pair@$$CBV?$basic_string@DV?$char_traits@D@_STL@@V?$allocator@D@2@@_STL@@H@2@U?$_Select1st@U?$pair@$$CBV?$basic_string@DV?$char_traits@D@_STL@@V?$allocator@D@2@@_STL@@H@_STL@@@2@U?$less@V?$basic_string@DV?$char_traits@D@_STL@@V?$allocator@D@2@@_STL@@@2@V?$allocator@U?$pair@$$CBV?$basic_string@DV?$char_traits@D@_STL@@V?$allocator@D@2@@_STL@@H@_STL@@@2@@_STL@@KAAAU?$pair@$$CBV?$basic_string@DV?$char_traits@D@_STL@@V?$allocator@D@2@@_STL@@H@2@PAU?$_Rb_tree_node@U?$pair@$$CBV?$basic_string@DV?$char_traits@D@_STL@@V?$allocator@D@2@@_STL@@H@_STL@@@2@@Z ENDP ; _STL::_Rb_tree<_STL::basic_string<char,_STL::char_traits<char>,_STL::allocator<char> >,_STL::pair<_STL::basic_string<char,_STL::char_traits<char>,_STL::allocator<char> > const ,int>,_STL::_Select1st<_STL::pair<_STL::basic_string<char,_STL::char_traits<char>,_STL::allocator<char> > const ,int> >,_STL::less<_STL::basic_string<char,_STL::char_traits<char>,_STL::allocator<char> > >,_STL::allocator<_STL::pair<_STL::basic_string<char,_STL::char_traits<char>,_STL::allocator<char> > const ,int> > >::_S_value
_TEXT	ENDS
PUBLIC	??R?$_Select1st@U?$pair@$$CBV?$basic_string@DV?$char_traits@D@_STL@@V?$allocator@D@2@@_STL@@H@_STL@@@_STL@@QBEABV?$basic_string@DV?$char_traits@D@_STL@@V?$allocator@D@2@@1@ABU?$pair@$$CBV?$basic_string@DV?$char_traits@D@_STL@@V?$allocator@D@2@@_STL@@H@1@@Z ; _STL::_Select1st<_STL::pair<_STL::basic_string<char,_STL::char_traits<char>,_STL::allocator<char> > const ,int> >::operator()
; Function compile flags: /Ogty
; File c:\stlport-4.6.1\stlport\stl\_function_base.h
;	COMDAT ??R?$_Select1st@U?$pair@$$CBV?$basic_string@DV?$char_traits@D@_STL@@V?$allocator@D@2@@_STL@@H@_STL@@@_STL@@QBEABV?$basic_string@DV?$char_traits@D@_STL@@V?$allocator@D@2@@1@ABU?$pair@$$CBV?$basic_string@DV?$char_traits@D@_STL@@V?$allocator@D@2@@_STL@@H@1@@Z
_TEXT	SEGMENT
___x$ = 8						; size = 4
??R?$_Select1st@U?$pair@$$CBV?$basic_string@DV?$char_traits@D@_STL@@V?$allocator@D@2@@_STL@@H@_STL@@@_STL@@QBEABV?$basic_string@DV?$char_traits@D@_STL@@V?$allocator@D@2@@1@ABU?$pair@$$CBV?$basic_string@DV?$char_traits@D@_STL@@V?$allocator@D@2@@_STL@@H@1@@Z PROC NEAR ; _STL::_Select1st<_STL::pair<_STL::basic_string<char,_STL::char_traits<char>,_STL::allocator<char> > const ,int> >::operator(), COMDAT
; _this$ = ecx

; 153  :     return __x.first;

  00000	8b 44 24 04	 mov	 eax, DWORD PTR ___x$[esp-4]

; 154  :   }

  00004	c2 04 00	 ret	 4
??R?$_Select1st@U?$pair@$$CBV?$basic_string@DV?$char_traits@D@_STL@@V?$allocator@D@2@@_STL@@H@_STL@@@_STL@@QBEABV?$basic_string@DV?$char_traits@D@_STL@@V?$allocator@D@2@@1@ABU?$pair@$$CBV?$basic_string@DV?$char_traits@D@_STL@@V?$allocator@D@2@@_STL@@H@1@@Z ENDP ; _STL::_Select1st<_STL::pair<_STL::basic_string<char,_STL::char_traits<char>,_STL::allocator<char> > const ,int> >::operator()
_TEXT	ENDS
PUBLIC	??0?$CTypeTable@VInterfaceInformation@@@@QAE@XZ	; CTypeTable<InterfaceInformation>::CTypeTable<InterfaceInformation>
; Function compile flags: /Ogty
; File c:\darkeden\designed_common\project\client\ctypetable.h
;	COMDAT ??0?$CTypeTable@VInterfaceInformation@@@@QAE@XZ
_TEXT	SEGMENT
??0?$CTypeTable@VInterfaceInformation@@@@QAE@XZ PROC NEAR ; CTypeTable<InterfaceInformation>::CTypeTable<InterfaceInformation>, COMDAT
; _this$ = ecx

; 64   : {

  00000	8b c1		 mov	 eax, ecx

; 65   : 	m_pTypeInfo	= NULL;

  00002	c7 40 04 00 00
	00 00		 mov	 DWORD PTR [eax+4], 0

; 66   : 	m_Size		= 0;

  00009	c7 00 00 00 00
	00		 mov	 DWORD PTR [eax], 0

; 67   : }

  0000f	c3		 ret	 0
??0?$CTypeTable@VInterfaceInformation@@@@QAE@XZ ENDP	; CTypeTable<InterfaceInformation>::CTypeTable<InterfaceInformation>
_TEXT	ENDS
PUBLIC	??$_Construct@UtagPOINT@@U1@@_STL@@YAXPAUtagPOINT@@ABU1@@Z ; _STL::_Construct<tagPOINT,tagPOINT>
; Function compile flags: /Ogty
; File c:\stlport-4.6.1\stlport\stl\_construct.h
;	COMDAT ??$_Construct@UtagPOINT@@U1@@_STL@@YAXPAUtagPOINT@@ABU1@@Z
_TEXT	SEGMENT
___p$ = 8						; size = 4
___val$ = 12						; size = 4
??$_Construct@UtagPOINT@@U1@@_STL@@YAXPAUtagPOINT@@ABU1@@Z PROC NEAR ; _STL::_Construct<tagPOINT,tagPOINT>, COMDAT

; 94   : # ifdef _STLP_DEBUG_UNINITIALIZED
; 95   : 	memset((char*)__p, _STLP_SHRED_BYTE, sizeof(_T1));
; 96   : # endif
; 97   :     _STLP_PLACEMENT_NEW (__p) _T1(__val);

  00000	8b 44 24 04	 mov	 eax, DWORD PTR ___p$[esp-4]
  00004	85 c0		 test	 eax, eax
  00006	74 0e		 je	 SHORT $L78268
  00008	8b 4c 24 08	 mov	 ecx, DWORD PTR ___val$[esp-4]
  0000c	8b 11		 mov	 edx, DWORD PTR [ecx]
  0000e	89 10		 mov	 DWORD PTR [eax], edx
  00010	8b 49 04	 mov	 ecx, DWORD PTR [ecx+4]
  00013	89 48 04	 mov	 DWORD PTR [eax+4], ecx
$L78268:

; 98   : }

  00016	c3		 ret	 0
??$_Construct@UtagPOINT@@U1@@_STL@@YAXPAUtagPOINT@@ABU1@@Z ENDP ; _STL::_Construct<tagPOINT,tagPOINT>
_TEXT	ENDS
PUBLIC	??$_Construct@UtagRECT@@U1@@_STL@@YAXPAUtagRECT@@ABU1@@Z ; _STL::_Construct<tagRECT,tagRECT>
; Function compile flags: /Ogty
;	COMDAT ??$_Construct@UtagRECT@@U1@@_STL@@YAXPAUtagRECT@@ABU1@@Z
_TEXT	SEGMENT
___p$ = 8						; size = 4
___val$ = 12						; size = 4
??$_Construct@UtagRECT@@U1@@_STL@@YAXPAUtagRECT@@ABU1@@Z PROC NEAR ; _STL::_Construct<tagRECT,tagRECT>, COMDAT

; 94   : # ifdef _STLP_DEBUG_UNINITIALIZED
; 95   : 	memset((char*)__p, _STLP_SHRED_BYTE, sizeof(_T1));
; 96   : # endif
; 97   :     _STLP_PLACEMENT_NEW (__p) _T1(__val);

  00000	8b 44 24 04	 mov	 eax, DWORD PTR ___p$[esp-4]
  00004	85 c0		 test	 eax, eax
  00006	74 1a		 je	 SHORT $L78277
  00008	8b 4c 24 08	 mov	 ecx, DWORD PTR ___val$[esp-4]
  0000c	8b 11		 mov	 edx, DWORD PTR [ecx]
  0000e	89 10		 mov	 DWORD PTR [eax], edx
  00010	8b 51 04	 mov	 edx, DWORD PTR [ecx+4]
  00013	89 50 04	 mov	 DWORD PTR [eax+4], edx
  00016	8b 51 08	 mov	 edx, DWORD PTR [ecx+8]
  00019	89 50 08	 mov	 DWORD PTR [eax+8], edx
  0001c	8b 49 0c	 mov	 ecx, DWORD PTR [ecx+12]
  0001f	89 48 0c	 mov	 DWORD PTR [eax+12], ecx
$L78277:

; 98   : }

  00022	c3		 ret	 0
??$_Construct@UtagRECT@@U1@@_STL@@YAXPAUtagRECT@@ABU1@@Z ENDP ; _STL::_Construct<tagRECT,tagRECT>
_TEXT	ENDS
PUBLIC	??$max@I@_STL@@YAABIABI0@Z			; _STL::max<unsigned int>
; Function compile flags: /Ogty
; File c:\stlport-4.6.1\stlport\stl\_algobase.h
;	COMDAT ??$max@I@_STL@@YAABIABI0@Z
_TEXT	SEGMENT
___a$ = 8						; size = 4
___b$ = 12						; size = 4
??$max@I@_STL@@YAABIABI0@Z PROC NEAR			; _STL::max<unsigned int>, COMDAT

; 79   : inline const _Tp& (max)(const _Tp& __a, const _Tp& __b) {  return  __a < __b ? __b : __a; }

  00000	8b 44 24 04	 mov	 eax, DWORD PTR ___a$[esp-4]
  00004	8b 4c 24 08	 mov	 ecx, DWORD PTR ___b$[esp-4]
  00008	8b 10		 mov	 edx, DWORD PTR [eax]
  0000a	3b 11		 cmp	 edx, DWORD PTR [ecx]
  0000c	73 02		 jae	 SHORT $L78287
  0000e	8b c1		 mov	 eax, ecx
$L78287:
  00010	c3		 ret	 0
??$max@I@_STL@@YAABIABI0@Z ENDP				; _STL::max<unsigned int>
_TEXT	ENDS
PUBLIC	??$?0U?$pair@$$CBV?$basic_string@DV?$char_traits@D@_STL@@V?$allocator@D@2@@_STL@@H@_STL@@@?$allocator@U?$_Rb_tree_node@U?$pair@$$CBV?$basic_string@DV?$char_traits@D@_STL@@V?$allocator@D@2@@_STL@@H@_STL@@@_STL@@@_STL@@QAE@ABV?$allocator@U?$pair@$$CBV?$basic_string@DV?$char_traits@D@_STL@@V?$allocator@D@2@@_STL@@H@_STL@@@1@@Z ; _STL::allocator<_STL::_Rb_tree_node<_STL::pair<_STL::basic_string<char,_STL::char_traits<char>,_STL::allocator<char> > const ,int> > >::allocator<_STL::_Rb_tree_node<_STL::pair<_STL::basic_string<char,_STL::char_traits<char>,_STL::allocator<char> > const ,int> > ><_STL::pair<_STL::basic_string<char,_STL::char_traits<char>,_STL::allocator<char> > const ,int> >
; Function compile flags: /Ogty
; File c:\stlport-4.6.1\stlport\stl\_alloc.h
;	COMDAT ??$?0U?$pair@$$CBV?$basic_string@DV?$char_traits@D@_STL@@V?$allocator@D@2@@_STL@@H@_STL@@@?$allocator@U?$_Rb_tree_node@U?$pair@$$CBV?$basic_string@DV?$char_traits@D@_STL@@V?$allocator@D@2@@_STL@@H@_STL@@@_STL@@@_STL@@QAE@ABV?$allocator@U?$pair@$$CBV?$basic_string@DV?$char_traits@D@_STL@@V?$allocator@D@2@@_STL@@H@_STL@@@1@@Z
_TEXT	SEGMENT
___formal$ = 8						; size = 4
??$?0U?$pair@$$CBV?$basic_string@DV?$char_traits@D@_STL@@V?$allocator@D@2@@_STL@@H@_STL@@@?$allocator@U?$_Rb_tree_node@U?$pair@$$CBV?$basic_string@DV?$char_traits@D@_STL@@V?$allocator@D@2@@_STL@@H@_STL@@@_STL@@@_STL@@QAE@ABV?$allocator@U?$pair@$$CBV?$basic_string@DV?$char_traits@D@_STL@@V?$allocator@D@2@@_STL@@H@_STL@@@1@@Z PROC NEAR ; _STL::allocator<_STL::_Rb_tree_node<_STL::pair<_STL::basic_string<char,_STL::char_traits<char>,_STL::allocator<char> > const ,int> > >::allocator<_STL::_Rb_tree_node<_STL::pair<_STL::basic_string<char,_STL::char_traits<char>,_STL::allocator<char> > const ,int> > ><_STL::pair<_STL::basic_string<char,_STL::char_traits<char>,_STL::allocator<char> > const ,int> >, COMDAT
; _this$ = ecx

; 347  :   template <class _Tp1> allocator(const allocator<_Tp1>&) _STLP_NOTHROW {}

  00000	8b c1		 mov	 eax, ecx
  00002	c2 04 00	 ret	 4
??$?0U?$pair@$$CBV?$basic_string@DV?$char_traits@D@_STL@@V?$allocator@D@2@@_STL@@H@_STL@@@?$allocator@U?$_Rb_tree_node@U?$pair@$$CBV?$basic_string@DV?$char_traits@D@_STL@@V?$allocator@D@2@@_STL@@H@_STL@@@_STL@@@_STL@@QAE@ABV?$allocator@U?$pair@$$CBV?$basic_string@DV?$char_traits@D@_STL@@V?$allocator@D@2@@_STL@@H@_STL@@@1@@Z ENDP ; _STL::allocator<_STL::_Rb_tree_node<_STL::pair<_STL::basic_string<char,_STL::char_traits<char>,_STL::allocator<char> > const ,int> > >::allocator<_STL::_Rb_tree_node<_STL::pair<_STL::basic_string<char,_STL::char_traits<char>,_STL::allocator<char> > const ,int> > ><_STL::pair<_STL::basic_string<char,_STL::char_traits<char>,_STL::allocator<char> > const ,int> >
_TEXT	ENDS
PUBLIC	?begin@?$basic_string@DV?$char_traits@D@_STL@@V?$allocator@D@2@@_STL@@QBEPBDXZ ; _STL::basic_string<char,_STL::char_traits<char>,_STL::allocator<char> >::begin
; Function compile flags: /Ogty
; File c:\stlport-4.6.1\stlport\stl\_string.h
;	COMDAT ?begin@?$basic_string@DV?$char_traits@D@_STL@@V?$allocator@D@2@@_STL@@QBEPBDXZ
_TEXT	SEGMENT
?begin@?$basic_string@DV?$char_traits@D@_STL@@V?$allocator@D@2@@_STL@@QBEPBDXZ PROC NEAR ; _STL::basic_string<char,_STL::char_traits<char>,_STL::allocator<char> >::begin, COMDAT
; _this$ = ecx

; 418  :   const_iterator begin() const { return this->_M_start; }

  00000	8b 01		 mov	 eax, DWORD PTR [ecx]
  00002	c3		 ret	 0
?begin@?$basic_string@DV?$char_traits@D@_STL@@V?$allocator@D@2@@_STL@@QBEPBDXZ ENDP ; _STL::basic_string<char,_STL::char_traits<char>,_STL::allocator<char> >::begin
_TEXT	ENDS
PUBLIC	?end@?$basic_string@DV?$char_traits@D@_STL@@V?$allocator@D@2@@_STL@@QBEPBDXZ ; _STL::basic_string<char,_STL::char_traits<char>,_STL::allocator<char> >::end
; Function compile flags: /Ogty
;	COMDAT ?end@?$basic_string@DV?$char_traits@D@_STL@@V?$allocator@D@2@@_STL@@QBEPBDXZ
_TEXT	SEGMENT
?end@?$basic_string@DV?$char_traits@D@_STL@@V?$allocator@D@2@@_STL@@QBEPBDXZ PROC NEAR ; _STL::basic_string<char,_STL::char_traits<char>,_STL::allocator<char> >::end, COMDAT
; _this$ = ecx

; 419  :   const_iterator end()   const { return this->_M_finish; }  

  00000	8b 41 04	 mov	 eax, DWORD PTR [ecx+4]
  00003	c3		 ret	 0
?end@?$basic_string@DV?$char_traits@D@_STL@@V?$allocator@D@2@@_STL@@QBEPBDXZ ENDP ; _STL::basic_string<char,_STL::char_traits<char>,_STL::allocator<char> >::end
_TEXT	ENDS
PUBLIC	?allocate@?$allocator@D@_STL@@QAEPADIPBX@Z	; _STL::allocator<char>::allocate
; Function compile flags: /Ogty
; File c:\stlport-4.6.1\stlport\stl\_alloc.h
;	COMDAT ?allocate@?$allocator@D@_STL@@QAEPADIPBX@Z
_TEXT	SEGMENT
___n$ = 8						; size = 4
___formal$ = 12						; size = 4
?allocate@?$allocator@D@_STL@@QAEPADIPBX@Z PROC NEAR	; _STL::allocator<char>::allocate, COMDAT
; _this$ = ecx

; 355  :     return __n != 0 ? __REINTERPRET_CAST(value_type*,__sgi_alloc::allocate(__n * sizeof(value_type))) : 0;

  00000	8b 44 24 04	 mov	 eax, DWORD PTR ___n$[esp-4]
  00004	85 c0		 test	 eax, eax
  00006	74 1e		 je	 SHORT $L78300
  00008	3d 80 00 00 00	 cmp	 eax, 128		; 00000080H
  0000d	50		 push	 eax
  0000e	76 0b		 jbe	 SHORT $L78309
  00010	e8 00 00 00 00	 call	 ??2@YAPAXI@Z		; operator new
  00015	83 c4 04	 add	 esp, 4

; 356  :   }

  00018	c2 08 00	 ret	 8

; 355  :     return __n != 0 ? __REINTERPRET_CAST(value_type*,__sgi_alloc::allocate(__n * sizeof(value_type))) : 0;

$L78309:
  0001b	e8 00 00 00 00	 call	 ?_M_allocate@?$__node_alloc@$00$0A@@_STL@@CAPAXI@Z ; _STL::__node_alloc<1,0>::_M_allocate
  00020	83 c4 04	 add	 esp, 4

; 356  :   }

  00023	c2 08 00	 ret	 8
$L78300:

; 355  :     return __n != 0 ? __REINTERPRET_CAST(value_type*,__sgi_alloc::allocate(__n * sizeof(value_type))) : 0;

  00026	33 c0		 xor	 eax, eax

; 356  :   }

  00028	c2 08 00	 ret	 8
?allocate@?$allocator@D@_STL@@QAEPADIPBX@Z ENDP		; _STL::allocator<char>::allocate
_TEXT	ENDS
PUBLIC	?_S_right@?$_Rb_tree@V?$basic_string@DV?$char_traits@D@_STL@@V?$allocator@D@2@@_STL@@U?$pair@$$CBV?$basic_string@DV?$char_traits@D@_STL@@V?$allocator@D@2@@_STL@@H@2@U?$_Select1st@U?$pair@$$CBV?$basic_string@DV?$char_traits@D@_STL@@V?$allocator@D@2@@_STL@@H@_STL@@@2@U?$less@V?$basic_string@DV?$char_traits@D@_STL@@V?$allocator@D@2@@_STL@@@2@V?$allocator@U?$pair@$$CBV?$basic_string@DV?$char_traits@D@_STL@@V?$allocator@D@2@@_STL@@H@_STL@@@2@@_STL@@KAAAPAU?$_Rb_tree_node@U?$pair@$$CBV?$basic_string@DV?$char_traits@D@_STL@@V?$allocator@D@2@@_STL@@H@_STL@@@2@PAU_Rb_tree_node_base@2@@Z ; _STL::_Rb_tree<_STL::basic_string<char,_STL::char_traits<char>,_STL::allocator<char> >,_STL::pair<_STL::basic_string<char,_STL::char_traits<char>,_STL::allocator<char> > const ,int>,_STL::_Select1st<_STL::pair<_STL::basic_string<char,_STL::char_traits<char>,_STL::allocator<char> > const ,int> >,_STL::less<_STL::basic_string<char,_STL::char_traits<char>,_STL::allocator<char> > >,_STL::allocator<_STL::pair<_STL::basic_string<char,_STL::char_traits<char>,_STL::allocator<char> > const ,int> > >::_S_right
; Function compile flags: /Ogty
; File c:\stlport-4.6.1\stlport\stl\_tree.h
;	COMDAT ?_S_right@?$_Rb_tree@V?$basic_string@DV?$char_traits@D@_STL@@V?$allocator@D@2@@_STL@@U?$pair@$$CBV?$basic_string@DV?$char_traits@D@_STL@@V?$allocator@D@2@@_STL@@H@2@U?$_Select1st@U?$pair@$$CBV?$basic_string@DV?$char_traits@D@_STL@@V?$allocator@D@2@@_STL@@H@_STL@@@2@U?$less@V?$basic_string@DV?$char_traits@D@_STL@@V?$allocator@D@2@@_STL@@@2@V?$allocator@U?$pair@$$CBV?$basic_string@DV?$char_traits@D@_STL@@V?$allocator@D@2@@_STL@@H@_STL@@@2@@_STL@@KAAAPAU?$_Rb_tree_node@U?$pair@$$CBV?$basic_string@DV?$char_traits@D@_STL@@V?$allocator@D@2@@_STL@@H@_STL@@@2@PAU_Rb_tree_node_base@2@@Z
_TEXT	SEGMENT
___x$ = 8						; size = 4
?_S_right@?$_Rb_tree@V?$basic_string@DV?$char_traits@D@_STL@@V?$allocator@D@2@@_STL@@U?$pair@$$CBV?$basic_string@DV?$char_traits@D@_STL@@V?$allocator@D@2@@_STL@@H@2@U?$_Select1st@U?$pair@$$CBV?$basic_string@DV?$char_traits@D@_STL@@V?$allocator@D@2@@_STL@@H@_STL@@@2@U?$less@V?$basic_string@DV?$char_traits@D@_STL@@V?$allocator@D@2@@_STL@@@2@V?$allocator@U?$pair@$$CBV?$basic_string@DV?$char_traits@D@_STL@@V?$allocator@D@2@@_STL@@H@_STL@@@2@@_STL@@KAAAPAU?$_Rb_tree_node@U?$pair@$$CBV?$basic_string@DV?$char_traits@D@_STL@@V?$allocator@D@2@@_STL@@H@_STL@@@2@PAU_Rb_tree_node_base@2@@Z PROC NEAR ; _STL::_Rb_tree<_STL::basic_string<char,_STL::char_traits<char>,_STL::allocator<char> >,_STL::pair<_STL::basic_string<char,_STL::char_traits<char>,_STL::allocator<char> > const ,int>,_STL::_Select1st<_STL::pair<_STL::basic_string<char,_STL::char_traits<char>,_STL::allocator<char> > const ,int> >,_STL::less<_STL::basic_string<char,_STL::char_traits<char>,_STL::allocator<char> > >,_STL::allocator<_STL::pair<_STL::basic_string<char,_STL::char_traits<char>,_STL::allocator<char> > const ,int> > >::_S_right, COMDAT

; 287  :     { return (_Link_type&)(__x->_M_right); }

  00000	8b 44 24 04	 mov	 eax, DWORD PTR ___x$[esp-4]
  00004	83 c0 0c	 add	 eax, 12			; 0000000cH
  00007	c3		 ret	 0
?_S_right@?$_Rb_tree@V?$basic_string@DV?$char_traits@D@_STL@@V?$allocator@D@2@@_STL@@U?$pair@$$CBV?$basic_string@DV?$char_traits@D@_STL@@V?$allocator@D@2@@_STL@@H@2@U?$_Select1st@U?$pair@$$CBV?$basic_string@DV?$char_traits@D@_STL@@V?$allocator@D@2@@_STL@@H@_STL@@@2@U?$less@V?$basic_string@DV?$char_traits@D@_STL@@V?$allocator@D@2@@_STL@@@2@V?$allocator@U?$pair@$$CBV?$basic_string@DV?$char_traits@D@_STL@@V?$allocator@D@2@@_STL@@H@_STL@@@2@@_STL@@KAAAPAU?$_Rb_tree_node@U?$pair@$$CBV?$basic_string@DV?$char_traits@D@_STL@@V?$allocator@D@2@@_STL@@H@_STL@@@2@PAU_Rb_tree_node_base@2@@Z ENDP ; _STL::_Rb_tree<_STL::basic_string<char,_STL::char_traits<char>,_STL::allocator<char> >,_STL::pair<_STL::basic_string<char,_STL::char_traits<char>,_STL::allocator<char> > const ,int>,_STL::_Select1st<_STL::pair<_STL::basic_string<char,_STL::char_traits<char>,_STL::allocator<char> > const ,int> >,_STL::less<_STL::basic_string<char,_STL::char_traits<char>,_STL::allocator<char> > >,_STL::allocator<_STL::pair<_STL::basic_string<char,_STL::char_traits<char>,_STL::allocator<char> > const ,int> > >::_S_right
_TEXT	ENDS
PUBLIC	?_S_key@?$_Rb_tree@V?$basic_string@DV?$char_traits@D@_STL@@V?$allocator@D@2@@_STL@@U?$pair@$$CBV?$basic_string@DV?$char_traits@D@_STL@@V?$allocator@D@2@@_STL@@H@2@U?$_Select1st@U?$pair@$$CBV?$basic_string@DV?$char_traits@D@_STL@@V?$allocator@D@2@@_STL@@H@_STL@@@2@U?$less@V?$basic_string@DV?$char_traits@D@_STL@@V?$allocator@D@2@@_STL@@@2@V?$allocator@U?$pair@$$CBV?$basic_string@DV?$char_traits@D@_STL@@V?$allocator@D@2@@_STL@@H@_STL@@@2@@_STL@@KAABV?$basic_string@DV?$char_traits@D@_STL@@V?$allocator@D@2@@2@PAU_Rb_tree_node_base@2@@Z ; _STL::_Rb_tree<_STL::basic_string<char,_STL::char_traits<char>,_STL::allocator<char> >,_STL::pair<_STL::basic_string<char,_STL::char_traits<char>,_STL::allocator<char> > const ,int>,_STL::_Select1st<_STL::pair<_STL::basic_string<char,_STL::char_traits<char>,_STL::allocator<char> > const ,int> >,_STL::less<_STL::basic_string<char,_STL::char_traits<char>,_STL::allocator<char> > >,_STL::allocator<_STL::pair<_STL::basic_string<char,_STL::char_traits<char>,_STL::allocator<char> > const ,int> > >::_S_key
; Function compile flags: /Ogty
;	COMDAT ?_S_key@?$_Rb_tree@V?$basic_string@DV?$char_traits@D@_STL@@V?$allocator@D@2@@_STL@@U?$pair@$$CBV?$basic_string@DV?$char_traits@D@_STL@@V?$allocator@D@2@@_STL@@H@2@U?$_Select1st@U?$pair@$$CBV?$basic_string@DV?$char_traits@D@_STL@@V?$allocator@D@2@@_STL@@H@_STL@@@2@U?$less@V?$basic_string@DV?$char_traits@D@_STL@@V?$allocator@D@2@@_STL@@@2@V?$allocator@U?$pair@$$CBV?$basic_string@DV?$char_traits@D@_STL@@V?$allocator@D@2@@_STL@@H@_STL@@@2@@_STL@@KAABV?$basic_string@DV?$char_traits@D@_STL@@V?$allocator@D@2@@2@PAU_Rb_tree_node_base@2@@Z
_TEXT	SEGMENT
___x$ = 8						; size = 4
?_S_key@?$_Rb_tree@V?$basic_string@DV?$char_traits@D@_STL@@V?$allocator@D@2@@_STL@@U?$pair@$$CBV?$basic_string@DV?$char_traits@D@_STL@@V?$allocator@D@2@@_STL@@H@2@U?$_Select1st@U?$pair@$$CBV?$basic_string@DV?$char_traits@D@_STL@@V?$allocator@D@2@@_STL@@H@_STL@@@2@U?$less@V?$basic_string@DV?$char_traits@D@_STL@@V?$allocator@D@2@@_STL@@@2@V?$allocator@U?$pair@$$CBV?$basic_string@DV?$char_traits@D@_STL@@V?$allocator@D@2@@_STL@@H@_STL@@@2@@_STL@@KAABV?$basic_string@DV?$char_traits@D@_STL@@V?$allocator@D@2@@2@PAU_Rb_tree_node_base@2@@Z PROC NEAR ; _STL::_Rb_tree<_STL::basic_string<char,_STL::char_traits<char>,_STL::allocator<char> >,_STL::pair<_STL::basic_string<char,_STL::char_traits<char>,_STL::allocator<char> > const ,int>,_STL::_Select1st<_STL::pair<_STL::basic_string<char,_STL::char_traits<char>,_STL::allocator<char> > const ,int> >,_STL::less<_STL::basic_string<char,_STL::char_traits<char>,_STL::allocator<char> > >,_STL::allocator<_STL::pair<_STL::basic_string<char,_STL::char_traits<char>,_STL::allocator<char> > const ,int> > >::_S_key, COMDAT

; 293  :     { return _KeyOfValue()(_S_value(_Link_type(__x)));} 

  00000	8b 44 24 04	 mov	 eax, DWORD PTR ___x$[esp-4]
  00004	83 c0 10	 add	 eax, 16			; 00000010H
  00007	c3		 ret	 0
?_S_key@?$_Rb_tree@V?$basic_string@DV?$char_traits@D@_STL@@V?$allocator@D@2@@_STL@@U?$pair@$$CBV?$basic_string@DV?$char_traits@D@_STL@@V?$allocator@D@2@@_STL@@H@2@U?$_Select1st@U?$pair@$$CBV?$basic_string@DV?$char_traits@D@_STL@@V?$allocator@D@2@@_STL@@H@_STL@@@2@U?$less@V?$basic_string@DV?$char_traits@D@_STL@@V?$allocator@D@2@@_STL@@@2@V?$allocator@U?$pair@$$CBV?$basic_string@DV?$char_traits@D@_STL@@V?$allocator@D@2@@_STL@@H@_STL@@@2@@_STL@@KAABV?$basic_string@DV?$char_traits@D@_STL@@V?$allocator@D@2@@2@PAU_Rb_tree_node_base@2@@Z ENDP ; _STL::_Rb_tree<_STL::basic_string<char,_STL::char_traits<char>,_STL::allocator<char> >,_STL::pair<_STL::basic_string<char,_STL::char_traits<char>,_STL::allocator<char> > const ,int>,_STL::_Select1st<_STL::pair<_STL::basic_string<char,_STL::char_traits<char>,_STL::allocator<char> > const ,int> >,_STL::less<_STL::basic_string<char,_STL::char_traits<char>,_STL::allocator<char> > >,_STL::allocator<_STL::pair<_STL::basic_string<char,_STL::char_traits<char>,_STL::allocator<char> > const ,int> > >::_S_key
_TEXT	ENDS
PUBLIC	?size@?$_Rb_tree@V?$basic_string@DV?$char_traits@D@_STL@@V?$allocator@D@2@@_STL@@U?$pair@$$CBV?$basic_string@DV?$char_traits@D@_STL@@V?$allocator@D@2@@_STL@@H@2@U?$_Select1st@U?$pair@$$CBV?$basic_string@DV?$char_traits@D@_STL@@V?$allocator@D@2@@_STL@@H@_STL@@@2@U?$less@V?$basic_string@DV?$char_traits@D@_STL@@V?$allocator@D@2@@_STL@@@2@V?$allocator@U?$pair@$$CBV?$basic_string@DV?$char_traits@D@_STL@@V?$allocator@D@2@@_STL@@H@_STL@@@2@@_STL@@QBEIXZ ; _STL::_Rb_tree<_STL::basic_string<char,_STL::char_traits<char>,_STL::allocator<char> >,_STL::pair<_STL::basic_string<char,_STL::char_traits<char>,_STL::allocator<char> > const ,int>,_STL::_Select1st<_STL::pair<_STL::basic_string<char,_STL::char_traits<char>,_STL::allocator<char> > const ,int> >,_STL::less<_STL::basic_string<char,_STL::char_traits<char>,_STL::allocator<char> > >,_STL::allocator<_STL::pair<_STL::basic_string<char,_STL::char_traits<char>,_STL::allocator<char> > const ,int> > >::size
; Function compile flags: /Ogty
;	COMDAT ?size@?$_Rb_tree@V?$basic_string@DV?$char_traits@D@_STL@@V?$allocator@D@2@@_STL@@U?$pair@$$CBV?$basic_string@DV?$char_traits@D@_STL@@V?$allocator@D@2@@_STL@@H@2@U?$_Select1st@U?$pair@$$CBV?$basic_string@DV?$char_traits@D@_STL@@V?$allocator@D@2@@_STL@@H@_STL@@@2@U?$less@V?$basic_string@DV?$char_traits@D@_STL@@V?$allocator@D@2@@_STL@@@2@V?$allocator@U?$pair@$$CBV?$basic_string@DV?$char_traits@D@_STL@@V?$allocator@D@2@@_STL@@H@_STL@@@2@@_STL@@QBEIXZ
_TEXT	SEGMENT
?size@?$_Rb_tree@V?$basic_string@DV?$char_traits@D@_STL@@V?$allocator@D@2@@_STL@@U?$pair@$$CBV?$basic_string@DV?$char_traits@D@_STL@@V?$allocator@D@2@@_STL@@H@2@U?$_Select1st@U?$pair@$$CBV?$basic_string@DV?$char_traits@D@_STL@@V?$allocator@D@2@@_STL@@H@_STL@@@2@U?$less@V?$basic_string@DV?$char_traits@D@_STL@@V?$allocator@D@2@@_STL@@@2@V?$allocator@U?$pair@$$CBV?$basic_string@DV?$char_traits@D@_STL@@V?$allocator@D@2@@_STL@@H@_STL@@@2@@_STL@@QBEIXZ PROC NEAR ; _STL::_Rb_tree<_STL::basic_string<char,_STL::char_traits<char>,_STL::allocator<char> >,_STL::pair<_STL::basic_string<char,_STL::char_traits<char>,_STL::allocator<char> > const ,int>,_STL::_Select1st<_STL::pair<_STL::basic_string<char,_STL::char_traits<char>,_STL::allocator<char> > const ,int> >,_STL::less<_STL::basic_string<char,_STL::char_traits<char>,_STL::allocator<char> > >,_STL::allocator<_STL::pair<_STL::basic_string<char,_STL::char_traits<char>,_STL::allocator<char> > const ,int> > >::size, COMDAT
; _this$ = ecx

; 371  :   size_type size() const { return _M_node_count; }

  00000	8b 41 04	 mov	 eax, DWORD PTR [ecx+4]
  00003	c3		 ret	 0
?size@?$_Rb_tree@V?$basic_string@DV?$char_traits@D@_STL@@V?$allocator@D@2@@_STL@@U?$pair@$$CBV?$basic_string@DV?$char_traits@D@_STL@@V?$allocator@D@2@@_STL@@H@2@U?$_Select1st@U?$pair@$$CBV?$basic_string@DV?$char_traits@D@_STL@@V?$allocator@D@2@@_STL@@H@_STL@@@2@U?$less@V?$basic_string@DV?$char_traits@D@_STL@@V?$allocator@D@2@@_STL@@@2@V?$allocator@U?$pair@$$CBV?$basic_string@DV?$char_traits@D@_STL@@V?$allocator@D@2@@_STL@@H@_STL@@@2@@_STL@@QBEIXZ ENDP ; _STL::_Rb_tree<_STL::basic_string<char,_STL::char_traits<char>,_STL::allocator<char> >,_STL::pair<_STL::basic_string<char,_STL::char_traits<char>,_STL::allocator<char> > const ,int>,_STL::_Select1st<_STL::pair<_STL::basic_string<char,_STL::char_traits<char>,_STL::allocator<char> > const ,int> >,_STL::less<_STL::basic_string<char,_STL::char_traits<char>,_STL::allocator<char> > >,_STL::allocator<_STL::pair<_STL::basic_string<char,_STL::char_traits<char>,_STL::allocator<char> > const ,int> > >::size
_TEXT	ENDS
PUBLIC	??E?$_Rb_tree_iterator@U?$pair@$$CBV?$basic_string@DV?$char_traits@D@_STL@@V?$allocator@D@2@@_STL@@H@_STL@@U?$_Nonconst_traits@U?$pair@$$CBV?$basic_string@DV?$char_traits@D@_STL@@V?$allocator@D@2@@_STL@@H@_STL@@@2@@_STL@@QAEAAU01@XZ ; _STL::_Rb_tree_iterator<_STL::pair<_STL::basic_string<char,_STL::char_traits<char>,_STL::allocator<char> > const ,int>,_STL::_Nonconst_traits<_STL::pair<_STL::basic_string<char,_STL::char_traits<char>,_STL::allocator<char> > const ,int> > >::operator++
EXTRN	?_M_increment@?$_Rb_global@_N@_STL@@SAPAU_Rb_tree_node_base@2@PAU32@@Z:NEAR ; _STL::_Rb_global<bool>::_M_increment
; Function compile flags: /Ogty
;	COMDAT ??E?$_Rb_tree_iterator@U?$pair@$$CBV?$basic_string@DV?$char_traits@D@_STL@@V?$allocator@D@2@@_STL@@H@_STL@@U?$_Nonconst_traits@U?$pair@$$CBV?$basic_string@DV?$char_traits@D@_STL@@V?$allocator@D@2@@_STL@@H@_STL@@@2@@_STL@@QAEAAU01@XZ
_TEXT	SEGMENT
??E?$_Rb_tree_iterator@U?$pair@$$CBV?$basic_string@DV?$char_traits@D@_STL@@V?$allocator@D@2@@_STL@@H@_STL@@U?$_Nonconst_traits@U?$pair@$$CBV?$basic_string@DV?$char_traits@D@_STL@@V?$allocator@D@2@@_STL@@H@_STL@@@2@@_STL@@QAEAAU01@XZ PROC NEAR ; _STL::_Rb_tree_iterator<_STL::pair<_STL::basic_string<char,_STL::char_traits<char>,_STL::allocator<char> > const ,int>,_STL::_Nonconst_traits<_STL::pair<_STL::basic_string<char,_STL::char_traits<char>,_STL::allocator<char> > const ,int> > >::operator++, COMDAT
; _this$ = ecx

; 174  :   _Self& operator++() { _M_node = _Rb_global_inst::_M_increment(_M_node); return *this; }

  00000	56		 push	 esi
  00001	8b f1		 mov	 esi, ecx
  00003	8b 06		 mov	 eax, DWORD PTR [esi]
  00005	50		 push	 eax
  00006	e8 00 00 00 00	 call	 ?_M_increment@?$_Rb_global@_N@_STL@@SAPAU_Rb_tree_node_base@2@PAU32@@Z ; _STL::_Rb_global<bool>::_M_increment
  0000b	89 06		 mov	 DWORD PTR [esi], eax
  0000d	83 c4 04	 add	 esp, 4
  00010	8b c6		 mov	 eax, esi
  00012	5e		 pop	 esi
  00013	c3		 ret	 0
??E?$_Rb_tree_iterator@U?$pair@$$CBV?$basic_string@DV?$char_traits@D@_STL@@V?$allocator@D@2@@_STL@@H@_STL@@U?$_Nonconst_traits@U?$pair@$$CBV?$basic_string@DV?$char_traits@D@_STL@@V?$allocator@D@2@@_STL@@H@_STL@@@2@@_STL@@QAEAAU01@XZ ENDP ; _STL::_Rb_tree_iterator<_STL::pair<_STL::basic_string<char,_STL::char_traits<char>,_STL::allocator<char> > const ,int>,_STL::_Nonconst_traits<_STL::pair<_STL::basic_string<char,_STL::char_traits<char>,_STL::allocator<char> > const ,int> > >::operator++
_TEXT	ENDS
PUBLIC	??F?$_Rb_tree_iterator@U?$pair@$$CBV?$basic_string@DV?$char_traits@D@_STL@@V?$allocator@D@2@@_STL@@H@_STL@@U?$_Nonconst_traits@U?$pair@$$CBV?$basic_string@DV?$char_traits@D@_STL@@V?$allocator@D@2@@_STL@@H@_STL@@@2@@_STL@@QAEAAU01@XZ ; _STL::_Rb_tree_iterator<_STL::pair<_STL::basic_string<char,_STL::char_traits<char>,_STL::allocator<char> > const ,int>,_STL::_Nonconst_traits<_STL::pair<_STL::basic_string<char,_STL::char_traits<char>,_STL::allocator<char> > const ,int> > >::operator--
EXTRN	?_M_decrement@?$_Rb_global@_N@_STL@@SAPAU_Rb_tree_node_base@2@PAU32@@Z:NEAR ; _STL::_Rb_global<bool>::_M_decrement
; Function compile flags: /Ogty
;	COMDAT ??F?$_Rb_tree_iterator@U?$pair@$$CBV?$basic_string@DV?$char_traits@D@_STL@@V?$allocator@D@2@@_STL@@H@_STL@@U?$_Nonconst_traits@U?$pair@$$CBV?$basic_string@DV?$char_traits@D@_STL@@V?$allocator@D@2@@_STL@@H@_STL@@@2@@_STL@@QAEAAU01@XZ
_TEXT	SEGMENT
??F?$_Rb_tree_iterator@U?$pair@$$CBV?$basic_string@DV?$char_traits@D@_STL@@V?$allocator@D@2@@_STL@@H@_STL@@U?$_Nonconst_traits@U?$pair@$$CBV?$basic_string@DV?$char_traits@D@_STL@@V?$allocator@D@2@@_STL@@H@_STL@@@2@@_STL@@QAEAAU01@XZ PROC NEAR ; _STL::_Rb_tree_iterator<_STL::pair<_STL::basic_string<char,_STL::char_traits<char>,_STL::allocator<char> > const ,int>,_STL::_Nonconst_traits<_STL::pair<_STL::basic_string<char,_STL::char_traits<char>,_STL::allocator<char> > const ,int> > >::operator--, COMDAT
; _this$ = ecx

; 181  :   _Self& operator--() { _M_node = _Rb_global_inst::_M_decrement(_M_node); return *this; }

  00000	56		 push	 esi
  00001	8b f1		 mov	 esi, ecx
  00003	8b 06		 mov	 eax, DWORD PTR [esi]
  00005	50		 push	 eax
  00006	e8 00 00 00 00	 call	 ?_M_decrement@?$_Rb_global@_N@_STL@@SAPAU_Rb_tree_node_base@2@PAU32@@Z ; _STL::_Rb_global<bool>::_M_decrement
  0000b	89 06		 mov	 DWORD PTR [esi], eax
  0000d	83 c4 04	 add	 esp, 4
  00010	8b c6		 mov	 eax, esi
  00012	5e		 pop	 esi
  00013	c3		 ret	 0
??F?$_Rb_tree_iterator@U?$pair@$$CBV?$basic_string@DV?$char_traits@D@_STL@@V?$allocator@D@2@@_STL@@H@_STL@@U?$_Nonconst_traits@U?$pair@$$CBV?$basic_string@DV?$char_traits@D@_STL@@V?$allocator@D@2@@_STL@@H@_STL@@@2@@_STL@@QAEAAU01@XZ ENDP ; _STL::_Rb_tree_iterator<_STL::pair<_STL::basic_string<char,_STL::char_traits<char>,_STL::allocator<char> > const ,int>,_STL::_Nonconst_traits<_STL::pair<_STL::basic_string<char,_STL::char_traits<char>,_STL::allocator<char> > const ,int> > >::operator--
_TEXT	ENDS
PUBLIC	?_M_terminate_string_aux@?$basic_string@DV?$char_traits@D@_STL@@V?$allocator@D@2@@_STL@@AAEXABU__true_type@2@@Z ; _STL::basic_string<char,_STL::char_traits<char>,_STL::allocator<char> >::_M_terminate_string_aux
; Function compile flags: /Ogty
; File c:\stlport-4.6.1\stlport\stl\_string.h
;	COMDAT ?_M_terminate_string_aux@?$basic_string@DV?$char_traits@D@_STL@@V?$allocator@D@2@@_STL@@AAEXABU__true_type@2@@Z
_TEXT	SEGMENT
___formal$ = 8						; size = 4
?_M_terminate_string_aux@?$basic_string@DV?$char_traits@D@_STL@@V?$allocator@D@2@@_STL@@AAEXABU__true_type@2@@Z PROC NEAR ; _STL::basic_string<char,_STL::char_traits<char>,_STL::allocator<char> >::_M_terminate_string_aux, COMDAT
; _this$ = ecx

; 351  :     *(this->_M_finish)=0;

  00000	8b 41 04	 mov	 eax, DWORD PTR [ecx+4]
  00003	c6 00 00	 mov	 BYTE PTR [eax], 0

; 352  :   }

  00006	c2 04 00	 ret	 4
?_M_terminate_string_aux@?$basic_string@DV?$char_traits@D@_STL@@V?$allocator@D@2@@_STL@@AAEXABU__true_type@2@@Z ENDP ; _STL::basic_string<char,_STL::char_traits<char>,_STL::allocator<char> >::_M_terminate_string_aux
_TEXT	ENDS
PUBLIC	??0?$allocator@D@_STL@@QAE@ABV01@@Z		; _STL::allocator<char>::allocator<char>
; Function compile flags: /Ogty
; File c:\stlport-4.6.1\stlport\stl\_alloc.h
;	COMDAT ??0?$allocator@D@_STL@@QAE@ABV01@@Z
_TEXT	SEGMENT
___formal$ = 8						; size = 4
??0?$allocator@D@_STL@@QAE@ABV01@@Z PROC NEAR		; _STL::allocator<char>::allocator<char>, COMDAT
; _this$ = ecx

; 349  :   allocator(const allocator<_Tp>&) _STLP_NOTHROW {}

  00000	8b c1		 mov	 eax, ecx
  00002	c2 04 00	 ret	 4
??0?$allocator@D@_STL@@QAE@ABV01@@Z ENDP		; _STL::allocator<char>::allocator<char>
_TEXT	ENDS
PUBLIC	??$__copy@PAUtagPOINT@@PAU1@H@_STL@@YAPAUtagPOINT@@PAU1@00ABUrandom_access_iterator_tag@0@PAH@Z ; _STL::__copy<tagPOINT *,tagPOINT *,int>
; Function compile flags: /Ogty
; File c:\stlport-4.6.1\stlport\stl\_algobase.h
;	COMDAT ??$__copy@PAUtagPOINT@@PAU1@H@_STL@@YAPAUtagPOINT@@PAU1@00ABUrandom_access_iterator_tag@0@PAH@Z
_TEXT	SEGMENT
___first$ = 8						; size = 4
___last$ = 12						; size = 4
___result$ = 16						; size = 4
___formal$ = 20						; size = 4
___formal$ = 24						; size = 4
??$__copy@PAUtagPOINT@@PAU1@H@_STL@@YAPAUtagPOINT@@PAU1@00ABUrandom_access_iterator_tag@0@PAH@Z PROC NEAR ; _STL::__copy<tagPOINT *,tagPOINT *,int>, COMDAT

; 138  :   for (_Distance __n = __last - __first; __n > 0; --__n) {

  00000	8b 44 24 08	 mov	 eax, DWORD PTR ___last$[esp-4]
  00004	8b 4c 24 04	 mov	 ecx, DWORD PTR ___first$[esp-4]
  00008	2b c1		 sub	 eax, ecx
  0000a	c1 f8 03	 sar	 eax, 3
  0000d	85 c0		 test	 eax, eax
  0000f	7e 1c		 jle	 SHORT $L78347
  00011	8b d0		 mov	 edx, eax
  00013	8b 44 24 0c	 mov	 eax, DWORD PTR ___result$[esp-4]
  00017	56		 push	 esi
$L77468:

; 139  :     *__result = *__first;

  00018	8b 31		 mov	 esi, DWORD PTR [ecx]
  0001a	89 30		 mov	 DWORD PTR [eax], esi
  0001c	8b 71 04	 mov	 esi, DWORD PTR [ecx+4]
  0001f	89 70 04	 mov	 DWORD PTR [eax+4], esi

; 140  :     ++__first;

  00022	83 c1 08	 add	 ecx, 8

; 141  :     ++__result;

  00025	83 c0 08	 add	 eax, 8
  00028	4a		 dec	 edx
  00029	75 ed		 jne	 SHORT $L77468
  0002b	5e		 pop	 esi

; 144  : }

  0002c	c3		 ret	 0
$L78347:

; 142  :   }
; 143  :   return __result;

  0002d	8b 44 24 0c	 mov	 eax, DWORD PTR ___result$[esp-4]

; 144  : }

  00031	c3		 ret	 0
??$__copy@PAUtagPOINT@@PAU1@H@_STL@@YAPAUtagPOINT@@PAU1@00ABUrandom_access_iterator_tag@0@PAH@Z ENDP ; _STL::__copy<tagPOINT *,tagPOINT *,int>
_TEXT	ENDS
PUBLIC	??$__copy@PAUtagRECT@@PAU1@H@_STL@@YAPAUtagRECT@@PAU1@00ABUrandom_access_iterator_tag@0@PAH@Z ; _STL::__copy<tagRECT *,tagRECT *,int>
; Function compile flags: /Ogty
;	COMDAT ??$__copy@PAUtagRECT@@PAU1@H@_STL@@YAPAUtagRECT@@PAU1@00ABUrandom_access_iterator_tag@0@PAH@Z
_TEXT	SEGMENT
___first$ = 8						; size = 4
___last$ = 12						; size = 4
___result$ = 16						; size = 4
___formal$ = 20						; size = 4
___formal$ = 24						; size = 4
??$__copy@PAUtagRECT@@PAU1@H@_STL@@YAPAUtagRECT@@PAU1@00ABUrandom_access_iterator_tag@0@PAH@Z PROC NEAR ; _STL::__copy<tagRECT *,tagRECT *,int>, COMDAT

; 138  :   for (_Distance __n = __last - __first; __n > 0; --__n) {

  00000	8b 44 24 08	 mov	 eax, DWORD PTR ___last$[esp-4]
  00004	8b 4c 24 04	 mov	 ecx, DWORD PTR ___first$[esp-4]
  00008	2b c1		 sub	 eax, ecx
  0000a	c1 f8 04	 sar	 eax, 4
  0000d	85 c0		 test	 eax, eax
  0000f	7e 36		 jle	 SHORT $L78353
  00011	53		 push	 ebx
  00012	56		 push	 esi
  00013	8b d0		 mov	 edx, eax
  00015	8b 44 24 14	 mov	 eax, DWORD PTR ___result$[esp+4]
  00019	57		 push	 edi
  0001a	8d 9b 00 00 00
	00		 npad	 6
$L77473:

; 139  :     *__result = *__first;

  00020	8b f1		 mov	 esi, ecx
  00022	8b 1e		 mov	 ebx, DWORD PTR [esi]
  00024	8b f8		 mov	 edi, eax
  00026	89 1f		 mov	 DWORD PTR [edi], ebx
  00028	8b 5e 04	 mov	 ebx, DWORD PTR [esi+4]
  0002b	89 5f 04	 mov	 DWORD PTR [edi+4], ebx
  0002e	8b 5e 08	 mov	 ebx, DWORD PTR [esi+8]
  00031	89 5f 08	 mov	 DWORD PTR [edi+8], ebx
  00034	8b 76 0c	 mov	 esi, DWORD PTR [esi+12]

; 140  :     ++__first;

  00037	83 c1 10	 add	 ecx, 16			; 00000010H

; 141  :     ++__result;

  0003a	83 c0 10	 add	 eax, 16			; 00000010H
  0003d	4a		 dec	 edx
  0003e	89 77 0c	 mov	 DWORD PTR [edi+12], esi
  00041	75 dd		 jne	 SHORT $L77473
  00043	5f		 pop	 edi
  00044	5e		 pop	 esi
  00045	5b		 pop	 ebx

; 144  : }

  00046	c3		 ret	 0
$L78353:

; 142  :   }
; 143  :   return __result;

  00047	8b 44 24 0c	 mov	 eax, DWORD PTR ___result$[esp-4]

; 144  : }

  0004b	c3		 ret	 0
??$__copy@PAUtagRECT@@PAU1@H@_STL@@YAPAUtagRECT@@PAU1@00ABUrandom_access_iterator_tag@0@PAH@Z ENDP ; _STL::__copy<tagRECT *,tagRECT *,int>
_TEXT	ENDS
PUBLIC	?data@?$basic_string@DV?$char_traits@D@_STL@@V?$allocator@D@2@@_STL@@QBEPBDXZ ; _STL::basic_string<char,_STL::char_traits<char>,_STL::allocator<char> >::data
; Function compile flags: /Ogty
; File c:\stlport-4.6.1\stlport\stl\_string.h
;	COMDAT ?data@?$basic_string@DV?$char_traits@D@_STL@@V?$allocator@D@2@@_STL@@QBEPBDXZ
_TEXT	SEGMENT
?data@?$basic_string@DV?$char_traits@D@_STL@@V?$allocator@D@2@@_STL@@QBEPBDXZ PROC NEAR ; _STL::basic_string<char,_STL::char_traits<char>,_STL::allocator<char> >::data, COMDAT
; _this$ = ecx

; 1066 :   const _CharT* data()  const { return this->_M_start; }

  00000	8b 01		 mov	 eax, DWORD PTR [ecx]
  00002	c3		 ret	 0
?data@?$basic_string@DV?$char_traits@D@_STL@@V?$allocator@D@2@@_STL@@QBEPBDXZ ENDP ; _STL::basic_string<char,_STL::char_traits<char>,_STL::allocator<char> >::data
_TEXT	ENDS
PUBLIC	?_S_parent@?$_Rb_tree@V?$basic_string@DV?$char_traits@D@_STL@@V?$allocator@D@2@@_STL@@U?$pair@$$CBV?$basic_string@DV?$char_traits@D@_STL@@V?$allocator@D@2@@_STL@@H@2@U?$_Select1st@U?$pair@$$CBV?$basic_string@DV?$char_traits@D@_STL@@V?$allocator@D@2@@_STL@@H@_STL@@@2@U?$less@V?$basic_string@DV?$char_traits@D@_STL@@V?$allocator@D@2@@_STL@@@2@V?$allocator@U?$pair@$$CBV?$basic_string@DV?$char_traits@D@_STL@@V?$allocator@D@2@@_STL@@H@_STL@@@2@@_STL@@KAAAPAU?$_Rb_tree_node@U?$pair@$$CBV?$basic_string@DV?$char_traits@D@_STL@@V?$allocator@D@2@@_STL@@H@_STL@@@2@PAU32@@Z ; _STL::_Rb_tree<_STL::basic_string<char,_STL::char_traits<char>,_STL::allocator<char> >,_STL::pair<_STL::basic_string<char,_STL::char_traits<char>,_STL::allocator<char> > const ,int>,_STL::_Select1st<_STL::pair<_STL::basic_string<char,_STL::char_traits<char>,_STL::allocator<char> > const ,int> >,_STL::less<_STL::basic_string<char,_STL::char_traits<char>,_STL::allocator<char> > >,_STL::allocator<_STL::pair<_STL::basic_string<char,_STL::char_traits<char>,_STL::allocator<char> > const ,int> > >::_S_parent
; Function compile flags: /Ogty
; File c:\stlport-4.6.1\stlport\stl\_tree.h
;	COMDAT ?_S_parent@?$_Rb_tree@V?$basic_string@DV?$char_traits@D@_STL@@V?$allocator@D@2@@_STL@@U?$pair@$$CBV?$basic_string@DV?$char_traits@D@_STL@@V?$allocator@D@2@@_STL@@H@2@U?$_Select1st@U?$pair@$$CBV?$basic_string@DV?$char_traits@D@_STL@@V?$allocator@D@2@@_STL@@H@_STL@@@2@U?$less@V?$basic_string@DV?$char_traits@D@_STL@@V?$allocator@D@2@@_STL@@@2@V?$allocator@U?$pair@$$CBV?$basic_string@DV?$char_traits@D@_STL@@V?$allocator@D@2@@_STL@@H@_STL@@@2@@_STL@@KAAAPAU?$_Rb_tree_node@U?$pair@$$CBV?$basic_string@DV?$char_traits@D@_STL@@V?$allocator@D@2@@_STL@@H@_STL@@@2@PAU32@@Z
_TEXT	SEGMENT
___x$ = 8						; size = 4
?_S_parent@?$_Rb_tree@V?$basic_string@DV?$char_traits@D@_STL@@V?$allocator@D@2@@_STL@@U?$pair@$$CBV?$basic_string@DV?$char_traits@D@_STL@@V?$allocator@D@2@@_STL@@H@2@U?$_Select1st@U?$pair@$$CBV?$basic_string@DV?$char_traits@D@_STL@@V?$allocator@D@2@@_STL@@H@_STL@@@2@U?$less@V?$basic_string@DV?$char_traits@D@_STL@@V?$allocator@D@2@@_STL@@@2@V?$allocator@U?$pair@$$CBV?$basic_string@DV?$char_traits@D@_STL@@V?$allocator@D@2@@_STL@@H@_STL@@@2@@_STL@@KAAAPAU?$_Rb_tree_node@U?$pair@$$CBV?$basic_string@DV?$char_traits@D@_STL@@V?$allocator@D@2@@_STL@@H@_STL@@@2@PAU32@@Z PROC NEAR ; _STL::_Rb_tree<_STL::basic_string<char,_STL::char_traits<char>,_STL::allocator<char> >,_STL::pair<_STL::basic_string<char,_STL::char_traits<char>,_STL::allocator<char> > const ,int>,_STL::_Select1st<_STL::pair<_STL::basic_string<char,_STL::char_traits<char>,_STL::allocator<char> > const ,int> >,_STL::less<_STL::basic_string<char,_STL::char_traits<char>,_STL::allocator<char> > >,_STL::allocator<_STL::pair<_STL::basic_string<char,_STL::char_traits<char>,_STL::allocator<char> > const ,int> > >::_S_parent, COMDAT

; 276  :     { return (_Link_type&)(__x->_M_parent); }

  00000	8b 44 24 04	 mov	 eax, DWORD PTR ___x$[esp-4]
  00004	83 c0 04	 add	 eax, 4
  00007	c3		 ret	 0
?_S_parent@?$_Rb_tree@V?$basic_string@DV?$char_traits@D@_STL@@V?$allocator@D@2@@_STL@@U?$pair@$$CBV?$basic_string@DV?$char_traits@D@_STL@@V?$allocator@D@2@@_STL@@H@2@U?$_Select1st@U?$pair@$$CBV?$basic_string@DV?$char_traits@D@_STL@@V?$allocator@D@2@@_STL@@H@_STL@@@2@U?$less@V?$basic_string@DV?$char_traits@D@_STL@@V?$allocator@D@2@@_STL@@@2@V?$allocator@U?$pair@$$CBV?$basic_string@DV?$char_traits@D@_STL@@V?$allocator@D@2@@_STL@@H@_STL@@@2@@_STL@@KAAAPAU?$_Rb_tree_node@U?$pair@$$CBV?$basic_string@DV?$char_traits@D@_STL@@V?$allocator@D@2@@_STL@@H@_STL@@@2@PAU32@@Z ENDP ; _STL::_Rb_tree<_STL::basic_string<char,_STL::char_traits<char>,_STL::allocator<char> >,_STL::pair<_STL::basic_string<char,_STL::char_traits<char>,_STL::allocator<char> > const ,int>,_STL::_Select1st<_STL::pair<_STL::basic_string<char,_STL::char_traits<char>,_STL::allocator<char> > const ,int> >,_STL::less<_STL::basic_string<char,_STL::char_traits<char>,_STL::allocator<char> > >,_STL::allocator<_STL::pair<_STL::basic_string<char,_STL::char_traits<char>,_STL::allocator<char> > const ,int> > >::_S_parent
_TEXT	ENDS
PUBLIC	?begin@?$_Rb_tree@V?$basic_string@DV?$char_traits@D@_STL@@V?$allocator@D@2@@_STL@@U?$pair@$$CBV?$basic_string@DV?$char_traits@D@_STL@@V?$allocator@D@2@@_STL@@H@2@U?$_Select1st@U?$pair@$$CBV?$basic_string@DV?$char_traits@D@_STL@@V?$allocator@D@2@@_STL@@H@_STL@@@2@U?$less@V?$basic_string@DV?$char_traits@D@_STL@@V?$allocator@D@2@@_STL@@@2@V?$allocator@U?$pair@$$CBV?$basic_string@DV?$char_traits@D@_STL@@V?$allocator@D@2@@_STL@@H@_STL@@@2@@_STL@@QAE?AU?$_Rb_tree_iterator@U?$pair@$$CBV?$basic_string@DV?$char_traits@D@_STL@@V?$allocator@D@2@@_STL@@H@_STL@@U?$_Nonconst_traits@U?$pair@$$CBV?$basic_string@DV?$char_traits@D@_STL@@V?$allocator@D@2@@_STL@@H@_STL@@@2@@2@XZ ; _STL::_Rb_tree<_STL::basic_string<char,_STL::char_traits<char>,_STL::allocator<char> >,_STL::pair<_STL::basic_string<char,_STL::char_traits<char>,_STL::allocator<char> > const ,int>,_STL::_Select1st<_STL::pair<_STL::basic_string<char,_STL::char_traits<char>,_STL::allocator<char> > const ,int> >,_STL::less<_STL::basic_string<char,_STL::char_traits<char>,_STL::allocator<char> > >,_STL::allocator<_STL::pair<_STL::basic_string<char,_STL::char_traits<char>,_STL::allocator<char> > const ,int> > >::begin
; Function compile flags: /Ogty
;	COMDAT ?begin@?$_Rb_tree@V?$basic_string@DV?$char_traits@D@_STL@@V?$allocator@D@2@@_STL@@U?$pair@$$CBV?$basic_string@DV?$char_traits@D@_STL@@V?$allocator@D@2@@_STL@@H@2@U?$_Select1st@U?$pair@$$CBV?$basic_string@DV?$char_traits@D@_STL@@V?$allocator@D@2@@_STL@@H@_STL@@@2@U?$less@V?$basic_string@DV?$char_traits@D@_STL@@V?$allocator@D@2@@_STL@@@2@V?$allocator@U?$pair@$$CBV?$basic_string@DV?$char_traits@D@_STL@@V?$allocator@D@2@@_STL@@H@_STL@@@2@@_STL@@QAE?AU?$_Rb_tree_iterator@U?$pair@$$CBV?$basic_string@DV?$char_traits@D@_STL@@V?$allocator@D@2@@_STL@@H@_STL@@U?$_Nonconst_traits@U?$pair@$$CBV?$basic_string@DV?$char_traits@D@_STL@@V?$allocator@D@2@@_STL@@H@_STL@@@2@@2@XZ
_TEXT	SEGMENT
___$ReturnUdt$ = 8					; size = 4
?begin@?$_Rb_tree@V?$basic_string@DV?$char_traits@D@_STL@@V?$allocator@D@2@@_STL@@U?$pair@$$CBV?$basic_string@DV?$char_traits@D@_STL@@V?$allocator@D@2@@_STL@@H@2@U?$_Select1st@U?$pair@$$CBV?$basic_string@DV?$char_traits@D@_STL@@V?$allocator@D@2@@_STL@@H@_STL@@@2@U?$less@V?$basic_string@DV?$char_traits@D@_STL@@V?$allocator@D@2@@_STL@@@2@V?$allocator@U?$pair@$$CBV?$basic_string@DV?$char_traits@D@_STL@@V?$allocator@D@2@@_STL@@H@_STL@@@2@@_STL@@QAE?AU?$_Rb_tree_iterator@U?$pair@$$CBV?$basic_string@DV?$char_traits@D@_STL@@V?$allocator@D@2@@_STL@@H@_STL@@U?$_Nonconst_traits@U?$pair@$$CBV?$basic_string@DV?$char_traits@D@_STL@@V?$allocator@D@2@@_STL@@H@_STL@@@2@@2@XZ PROC NEAR ; _STL::_Rb_tree<_STL::basic_string<char,_STL::char_traits<char>,_STL::allocator<char> >,_STL::pair<_STL::basic_string<char,_STL::char_traits<char>,_STL::allocator<char> > const ,int>,_STL::_Select1st<_STL::pair<_STL::basic_string<char,_STL::char_traits<char>,_STL::allocator<char> > const ,int> >,_STL::less<_STL::basic_string<char,_STL::char_traits<char>,_STL::allocator<char> > >,_STL::allocator<_STL::pair<_STL::basic_string<char,_STL::char_traits<char>,_STL::allocator<char> > const ,int> > >::begin, COMDAT
; _this$ = ecx

; 357  :   iterator begin() { return iterator(_M_leftmost()); }

  00000	8b 01		 mov	 eax, DWORD PTR [ecx]
  00002	8b 48 08	 mov	 ecx, DWORD PTR [eax+8]
  00005	8b 44 24 04	 mov	 eax, DWORD PTR ___$ReturnUdt$[esp-4]
  00009	89 08		 mov	 DWORD PTR [eax], ecx
  0000b	c2 04 00	 ret	 4
?begin@?$_Rb_tree@V?$basic_string@DV?$char_traits@D@_STL@@V?$allocator@D@2@@_STL@@U?$pair@$$CBV?$basic_string@DV?$char_traits@D@_STL@@V?$allocator@D@2@@_STL@@H@2@U?$_Select1st@U?$pair@$$CBV?$basic_string@DV?$char_traits@D@_STL@@V?$allocator@D@2@@_STL@@H@_STL@@@2@U?$less@V?$basic_string@DV?$char_traits@D@_STL@@V?$allocator@D@2@@_STL@@@2@V?$allocator@U?$pair@$$CBV?$basic_string@DV?$char_traits@D@_STL@@V?$allocator@D@2@@_STL@@H@_STL@@@2@@_STL@@QAE?AU?$_Rb_tree_iterator@U?$pair@$$CBV?$basic_string@DV?$char_traits@D@_STL@@V?$allocator@D@2@@_STL@@H@_STL@@U?$_Nonconst_traits@U?$pair@$$CBV?$basic_string@DV?$char_traits@D@_STL@@V?$allocator@D@2@@_STL@@H@_STL@@@2@@2@XZ ENDP ; _STL::_Rb_tree<_STL::basic_string<char,_STL::char_traits<char>,_STL::allocator<char> >,_STL::pair<_STL::basic_string<char,_STL::char_traits<char>,_STL::allocator<char> > const ,int>,_STL::_Select1st<_STL::pair<_STL::basic_string<char,_STL::char_traits<char>,_STL::allocator<char> > const ,int> >,_STL::less<_STL::basic_string<char,_STL::char_traits<char>,_STL::allocator<char> > >,_STL::allocator<_STL::pair<_STL::basic_string<char,_STL::char_traits<char>,_STL::allocator<char> > const ,int> > >::begin
_TEXT	ENDS
PUBLIC	??0?$pair@U?$_Rb_tree_iterator@U?$pair@$$CBV?$basic_string@DV?$char_traits@D@_STL@@V?$allocator@D@2@@_STL@@H@_STL@@U?$_Nonconst_traits@U?$pair@$$CBV?$basic_string@DV?$char_traits@D@_STL@@V?$allocator@D@2@@_STL@@H@_STL@@@2@@_STL@@_N@_STL@@QAE@ABU?$_Rb_tree_iterator@U?$pair@$$CBV?$basic_string@DV?$char_traits@D@_STL@@V?$allocator@D@2@@_STL@@H@_STL@@U?$_Nonconst_traits@U?$pair@$$CBV?$basic_string@DV?$char_traits@D@_STL@@V?$allocator@D@2@@_STL@@H@_STL@@@2@@1@AB_N@Z ; _STL::pair<_STL::_Rb_tree_iterator<_STL::pair<_STL::basic_string<char,_STL::char_traits<char>,_STL::allocator<char> > const ,int>,_STL::_Nonconst_traits<_STL::pair<_STL::basic_string<char,_STL::char_traits<char>,_STL::allocator<char> > const ,int> > >,bool>::pair<_STL::_Rb_tree_iterator<_STL::pair<_STL::basic_string<char,_STL::char_traits<char>,_STL::allocator<char> > const ,int>,_STL::_Nonconst_traits<_STL::pair<_STL::basic_string<char,_STL::char_traits<char>,_STL::allocator<char> > const ,int> > >,bool>
; Function compile flags: /Ogty
; File c:\stlport-4.6.1\stlport\stl\_pair.h
;	COMDAT ??0?$pair@U?$_Rb_tree_iterator@U?$pair@$$CBV?$basic_string@DV?$char_traits@D@_STL@@V?$allocator@D@2@@_STL@@H@_STL@@U?$_Nonconst_traits@U?$pair@$$CBV?$basic_string@DV?$char_traits@D@_STL@@V?$allocator@D@2@@_STL@@H@_STL@@@2@@_STL@@_N@_STL@@QAE@ABU?$_Rb_tree_iterator@U?$pair@$$CBV?$basic_string@DV?$char_traits@D@_STL@@V?$allocator@D@2@@_STL@@H@_STL@@U?$_Nonconst_traits@U?$pair@$$CBV?$basic_string@DV?$char_traits@D@_STL@@V?$allocator@D@2@@_STL@@H@_STL@@@2@@1@AB_N@Z
_TEXT	SEGMENT
___a$ = 8						; size = 4
___b$ = 12						; size = 4
??0?$pair@U?$_Rb_tree_iterator@U?$pair@$$CBV?$basic_string@DV?$char_traits@D@_STL@@V?$allocator@D@2@@_STL@@H@_STL@@U?$_Nonconst_traits@U?$pair@$$CBV?$basic_string@DV?$char_traits@D@_STL@@V?$allocator@D@2@@_STL@@H@_STL@@@2@@_STL@@_N@_STL@@QAE@ABU?$_Rb_tree_iterator@U?$pair@$$CBV?$basic_string@DV?$char_traits@D@_STL@@V?$allocator@D@2@@_STL@@H@_STL@@U?$_Nonconst_traits@U?$pair@$$CBV?$basic_string@DV?$char_traits@D@_STL@@V?$allocator@D@2@@_STL@@H@_STL@@@2@@1@AB_N@Z PROC NEAR ; _STL::pair<_STL::_Rb_tree_iterator<_STL::pair<_STL::basic_string<char,_STL::char_traits<char>,_STL::allocator<char> > const ,int>,_STL::_Nonconst_traits<_STL::pair<_STL::basic_string<char,_STL::char_traits<char>,_STL::allocator<char> > const ,int> > >,bool>::pair<_STL::_Rb_tree_iterator<_STL::pair<_STL::basic_string<char,_STL::char_traits<char>,_STL::allocator<char> > const ,int>,_STL::_Nonconst_traits<_STL::pair<_STL::basic_string<char,_STL::char_traits<char>,_STL::allocator<char> > const ,int> > >,bool>, COMDAT
; _this$ = ecx

; 48   :   pair(const _T1& __a, const _T2& __b) : first(__a), second(__b) {}

  00000	8b c1		 mov	 eax, ecx
  00002	8b 4c 24 04	 mov	 ecx, DWORD PTR ___a$[esp-4]
  00006	8b 11		 mov	 edx, DWORD PTR [ecx]
  00008	8b 4c 24 08	 mov	 ecx, DWORD PTR ___b$[esp-4]
  0000c	89 10		 mov	 DWORD PTR [eax], edx
  0000e	8a 11		 mov	 dl, BYTE PTR [ecx]
  00010	88 50 04	 mov	 BYTE PTR [eax+4], dl
  00013	c2 08 00	 ret	 8
??0?$pair@U?$_Rb_tree_iterator@U?$pair@$$CBV?$basic_string@DV?$char_traits@D@_STL@@V?$allocator@D@2@@_STL@@H@_STL@@U?$_Nonconst_traits@U?$pair@$$CBV?$basic_string@DV?$char_traits@D@_STL@@V?$allocator@D@2@@_STL@@H@_STL@@@2@@_STL@@_N@_STL@@QAE@ABU?$_Rb_tree_iterator@U?$pair@$$CBV?$basic_string@DV?$char_traits@D@_STL@@V?$allocator@D@2@@_STL@@H@_STL@@U?$_Nonconst_traits@U?$pair@$$CBV?$basic_string@DV?$char_traits@D@_STL@@V?$allocator@D@2@@_STL@@H@_STL@@@2@@1@AB_N@Z ENDP ; _STL::pair<_STL::_Rb_tree_iterator<_STL::pair<_STL::basic_string<char,_STL::char_traits<char>,_STL::allocator<char> > const ,int>,_STL::_Nonconst_traits<_STL::pair<_STL::basic_string<char,_STL::char_traits<char>,_STL::allocator<char> > const ,int> > >,bool>::pair<_STL::_Rb_tree_iterator<_STL::pair<_STL::basic_string<char,_STL::char_traits<char>,_STL::allocator<char> > const ,int>,_STL::_Nonconst_traits<_STL::pair<_STL::basic_string<char,_STL::char_traits<char>,_STL::allocator<char> > const ,int> > >,bool>
_TEXT	ENDS
PUBLIC	?max_size@?$_String_base@DV?$allocator@D@_STL@@@_STL@@QBEIXZ ; _STL::_String_base<char,_STL::allocator<char> >::max_size
; Function compile flags: /Ogty
; File c:\stlport-4.6.1\stlport\stl\_string.h
;	COMDAT ?max_size@?$_String_base@DV?$allocator@D@_STL@@@_STL@@QBEIXZ
_TEXT	SEGMENT
?max_size@?$_String_base@DV?$allocator@D@_STL@@@_STL@@QBEIXZ PROC NEAR ; _STL::_String_base<char,_STL::allocator<char> >::max_size, COMDAT
; _this$ = ecx

; 126  :   size_t max_size() const { return (size_t(-1) / sizeof(_Tp)) - 1; }

  00000	b8 fe ff ff ff	 mov	 eax, -2			; fffffffeH
  00005	c3		 ret	 0
?max_size@?$_String_base@DV?$allocator@D@_STL@@@_STL@@QBEIXZ ENDP ; _STL::_String_base<char,_STL::allocator<char> >::max_size
_TEXT	ENDS
PUBLIC	?_M_throw_length_error@?$_String_base@DV?$allocator@D@_STL@@@_STL@@QBEXXZ ; _STL::_String_base<char,_STL::allocator<char> >::_M_throw_length_error
PUBLIC	??_C@_0N@GOPDCEEB@basic_string?$AA@		; `string'
EXTRN	?__stl_throw_length_error@_STL@@YAXPBD@Z:NEAR	; _STL::__stl_throw_length_error
;	COMDAT ??_C@_0N@GOPDCEEB@basic_string?$AA@
; File c:\stlport-4.6.1\stlport\stl\_string.c
CONST	SEGMENT
??_C@_0N@GOPDCEEB@basic_string?$AA@ DB 'basic_string', 00H ; `string'
; Function compile flags: /Ogty
CONST	ENDS
;	COMDAT ?_M_throw_length_error@?$_String_base@DV?$allocator@D@_STL@@@_STL@@QBEXXZ
_TEXT	SEGMENT
?_M_throw_length_error@?$_String_base@DV?$allocator@D@_STL@@@_STL@@QBEXXZ PROC NEAR ; _STL::_String_base<char,_STL::allocator<char> >::_M_throw_length_error, COMDAT
; _this$ = ecx

; 523  :     __stl_throw_length_error("basic_string");

  00000	68 00 00 00 00	 push	 OFFSET FLAT:??_C@_0N@GOPDCEEB@basic_string?$AA@
  00005	e8 00 00 00 00	 call	 ?__stl_throw_length_error@_STL@@YAXPBD@Z ; _STL::__stl_throw_length_error
  0000a	59		 pop	 ecx

; 524  : }

  0000b	c3		 ret	 0
?_M_throw_length_error@?$_String_base@DV?$allocator@D@_STL@@@_STL@@QBEXXZ ENDP ; _STL::_String_base<char,_STL::allocator<char> >::_M_throw_length_error
_TEXT	ENDS
PUBLIC	??$_Destroy@UtagPOINT@@@_STL@@YAXPAUtagPOINT@@@Z ; _STL::_Destroy<tagPOINT>
; Function compile flags: /Ogty
; File c:\stlport-4.6.1\stlport\stl\_construct.h
;	COMDAT ??$_Destroy@UtagPOINT@@@_STL@@YAXPAUtagPOINT@@@Z
_TEXT	SEGMENT
___pointer$ = 8						; size = 4
??$_Destroy@UtagPOINT@@@_STL@@YAXPAUtagPOINT@@@Z PROC NEAR ; _STL::_Destroy<tagPOINT>, COMDAT

; 57   : # if _MSC_VER >= 1010
; 58   :   __pointer;
; 59   : # endif	// _MSC_VER >= 1000
; 60   : # ifdef _STLP_TRIVIAL_DESTRUCTOR_BUG
; 61   :   typedef typename __type_traits<_Tp>::has_trivial_destructor _Trivial_destructor;
; 62   :   __destroy_aux(__pointer, _Trivial_destructor());
; 63   : # else
; 64   : #  if ( defined (__BORLANDC__) && ( __BORLANDC__ < 0x500 ) )
; 65   :     __pointer->_Tp::~_Tp();
; 66   : #  else
; 67   :     __pointer->~_Tp();
; 68   : #  endif
; 69   : # endif
; 70   : # ifdef _STLP_DEBUG_UNINITIALIZED
; 71   : 	memset((char*)__pointer, _STLP_SHRED_BYTE, sizeof(_Tp));
; 72   : # endif
; 73   : }

  00000	c3		 ret	 0
??$_Destroy@UtagPOINT@@@_STL@@YAXPAUtagPOINT@@@Z ENDP	; _STL::_Destroy<tagPOINT>
_TEXT	ENDS
PUBLIC	??$_Destroy@UtagRECT@@@_STL@@YAXPAUtagRECT@@@Z	; _STL::_Destroy<tagRECT>
; Function compile flags: /Ogty
;	COMDAT ??$_Destroy@UtagRECT@@@_STL@@YAXPAUtagRECT@@@Z
_TEXT	SEGMENT
___pointer$ = 8						; size = 4
??$_Destroy@UtagRECT@@@_STL@@YAXPAUtagRECT@@@Z PROC NEAR ; _STL::_Destroy<tagRECT>, COMDAT

; 57   : # if _MSC_VER >= 1010
; 58   :   __pointer;
; 59   : # endif	// _MSC_VER >= 1000
; 60   : # ifdef _STLP_TRIVIAL_DESTRUCTOR_BUG
; 61   :   typedef typename __type_traits<_Tp>::has_trivial_destructor _Trivial_destructor;
; 62   :   __destroy_aux(__pointer, _Trivial_destructor());
; 63   : # else
; 64   : #  if ( defined (__BORLANDC__) && ( __BORLANDC__ < 0x500 ) )
; 65   :     __pointer->_Tp::~_Tp();
; 66   : #  else
; 67   :     __pointer->~_Tp();
; 68   : #  endif
; 69   : # endif
; 70   : # ifdef _STLP_DEBUG_UNINITIALIZED
; 71   : 	memset((char*)__pointer, _STLP_SHRED_BYTE, sizeof(_Tp));
; 72   : # endif
; 73   : }

  00000	c3		 ret	 0
??$_Destroy@UtagRECT@@@_STL@@YAXPAUtagRECT@@@Z ENDP	; _STL::_Destroy<tagRECT>
_TEXT	ENDS
PUBLIC	??$__distance@PBD@_STL@@YAHABQBD0ABUrandom_access_iterator_tag@0@@Z ; _STL::__distance<char const *>
; Function compile flags: /Ogty
; File c:\stlport-4.6.1\stlport\stl\_iterator_base.h
;	COMDAT ??$__distance@PBD@_STL@@YAHABQBD0ABUrandom_access_iterator_tag@0@@Z
_TEXT	SEGMENT
___first$ = 8						; size = 4
___last$ = 12						; size = 4
___formal$ = 16						; size = 4
??$__distance@PBD@_STL@@YAHABQBD0ABUrandom_access_iterator_tag@0@@Z PROC NEAR ; _STL::__distance<char const *>, COMDAT

; 363  :   return __last - __first;

  00000	8b 44 24 08	 mov	 eax, DWORD PTR ___last$[esp-4]
  00004	8b 4c 24 04	 mov	 ecx, DWORD PTR ___first$[esp-4]
  00008	8b 00		 mov	 eax, DWORD PTR [eax]
  0000a	2b 01		 sub	 eax, DWORD PTR [ecx]

; 364  : }

  0000c	c3		 ret	 0
??$__distance@PBD@_STL@@YAHABQBD0ABUrandom_access_iterator_tag@0@@Z ENDP ; _STL::__distance<char const *>
_TEXT	ENDS
PUBLIC	??$__distance@PAD@_STL@@YAHABQAD0ABUrandom_access_iterator_tag@0@@Z ; _STL::__distance<char *>
; Function compile flags: /Ogty
;	COMDAT ??$__distance@PAD@_STL@@YAHABQAD0ABUrandom_access_iterator_tag@0@@Z
_TEXT	SEGMENT
___first$ = 8						; size = 4
___last$ = 12						; size = 4
___formal$ = 16						; size = 4
??$__distance@PAD@_STL@@YAHABQAD0ABUrandom_access_iterator_tag@0@@Z PROC NEAR ; _STL::__distance<char *>, COMDAT

; 363  :   return __last - __first;

  00000	8b 44 24 08	 mov	 eax, DWORD PTR ___last$[esp-4]
  00004	8b 4c 24 04	 mov	 ecx, DWORD PTR ___first$[esp-4]
  00008	8b 00		 mov	 eax, DWORD PTR [eax]
  0000a	2b 01		 sub	 eax, DWORD PTR [ecx]

; 364  : }

  0000c	c3		 ret	 0
??$__distance@PAD@_STL@@YAHABQAD0ABUrandom_access_iterator_tag@0@@Z ENDP ; _STL::__distance<char *>
_TEXT	ENDS
PUBLIC	?_Ret@?$_BothPtrType@PADPAD@_STL@@SA?AU__true_type@2@XZ ; _STL::_BothPtrType<char *,char *>::_Ret
; Function compile flags: /Ogty
; File c:\stlport-4.6.1\stlport\stl\type_traits.h
;	COMDAT ?_Ret@?$_BothPtrType@PADPAD@_STL@@SA?AU__true_type@2@XZ
_TEXT	SEGMENT
?_Ret@?$_BothPtrType@PADPAD@_STL@@SA?AU__true_type@2@XZ PROC NEAR ; _STL::_BothPtrType<char *,char *>::_Ret, COMDAT

; 234  :   static __true_type _Ret() { return __true_type();} 

  00000	32 c0		 xor	 al, al
  00002	c3		 ret	 0
?_Ret@?$_BothPtrType@PADPAD@_STL@@SA?AU__true_type@2@XZ ENDP ; _STL::_BothPtrType<char *,char *>::_Ret
_TEXT	ENDS
PUBLIC	?_Ret@?$_OKToMemCpy@DD@_STL@@SA?AU__true_type@2@XZ ; _STL::_OKToMemCpy<char,char>::_Ret
; Function compile flags: /Ogty
;	COMDAT ?_Ret@?$_OKToMemCpy@DD@_STL@@SA?AU__true_type@2@XZ
_TEXT	SEGMENT
?_Ret@?$_OKToMemCpy@DD@_STL@@SA?AU__true_type@2@XZ PROC NEAR ; _STL::_OKToMemCpy<char,char>::_Ret, COMDAT

; 361  :   static _Type _Ret() { return _Type(); }

  00000	32 c0		 xor	 al, al
  00002	c3		 ret	 0
?_Ret@?$_OKToMemCpy@DD@_STL@@SA?AU__true_type@2@XZ ENDP	; _STL::_OKToMemCpy<char,char>::_Ret
_TEXT	ENDS
PUBLIC	??$_IsOKToMemCpy@DD@_STL@@YA?AU?$_OKToMemCpy@DD@0@PAD0@Z ; _STL::_IsOKToMemCpy<char,char>
; Function compile flags: /Ogty
;	COMDAT ??$_IsOKToMemCpy@DD@_STL@@YA?AU?$_OKToMemCpy@DD@0@PAD0@Z
_TEXT	SEGMENT
___formal$ = 8						; size = 4
___formal$ = 12						; size = 4
??$_IsOKToMemCpy@DD@_STL@@YA?AU?$_OKToMemCpy@DD@0@PAD0@Z PROC NEAR ; _STL::_IsOKToMemCpy<char,char>, COMDAT

; 366  :   return _OKToMemCpy<_Tp1, _Tp2>();

  00000	32 c0		 xor	 al, al

; 367  : }

  00002	c3		 ret	 0
??$_IsOKToMemCpy@DD@_STL@@YA?AU?$_OKToMemCpy@DD@0@PAD0@Z ENDP ; _STL::_IsOKToMemCpy<char,char>
_TEXT	ENDS
PUBLIC	??$__copy_ptrs@PADPAD@_STL@@YAPADPAD00ABU__true_type@0@@Z ; _STL::__copy_ptrs<char *,char *>
; Function compile flags: /Ogty
; File c:\stlport-4.6.1\stlport\stl\_algobase.h
;	COMDAT ??$__copy_ptrs@PADPAD@_STL@@YAPADPAD00ABU__true_type@0@@Z
_TEXT	SEGMENT
___first$ = 8						; size = 4
___last$ = 12						; size = 4
___result$ = 16						; size = 4
___formal$ = 20						; size = 4
??$__copy_ptrs@PADPAD@_STL@@YAPADPAD00ABU__true_type@0@@Z PROC NEAR ; _STL::__copy_ptrs<char *,char *>, COMDAT

; 195  : // we know they all pointers, so this cast is OK 
; 196  :   //  return (_OutputIter)__copy_trivial(&(*__first), &(*__last), &(*__result));
; 197  :   return (_OutputIter)__copy_trivial(__first, __last, __result);

  00000	8b 44 24 04	 mov	 eax, DWORD PTR ___first$[esp-4]
  00004	56		 push	 esi
  00005	8b 74 24 0c	 mov	 esi, DWORD PTR ___last$[esp]
  00009	3b f0		 cmp	 esi, eax
  0000b	75 06		 jne	 SHORT $L78414
  0000d	8b 44 24 10	 mov	 eax, DWORD PTR ___result$[esp]
  00011	5e		 pop	 esi

; 198  : }

  00012	c3		 ret	 0

; 195  : // we know they all pointers, so this cast is OK 
; 196  :   //  return (_OutputIter)__copy_trivial(&(*__first), &(*__last), &(*__result));
; 197  :   return (_OutputIter)__copy_trivial(__first, __last, __result);

$L78414:
  00013	2b f0		 sub	 esi, eax
  00015	56		 push	 esi
  00016	50		 push	 eax
  00017	8b 44 24 18	 mov	 eax, DWORD PTR ___result$[esp+8]
  0001b	50		 push	 eax
  0001c	e8 00 00 00 00	 call	 _memmove
  00021	83 c4 0c	 add	 esp, 12			; 0000000cH
  00024	03 c6		 add	 eax, esi
  00026	5e		 pop	 esi

; 198  : }

  00027	c3		 ret	 0
??$__copy_ptrs@PADPAD@_STL@@YAPADPAD00ABU__true_type@0@@Z ENDP ; _STL::__copy_ptrs<char *,char *>
_TEXT	ENDS
PUBLIC	??1?$allocator@D@_STL@@QAE@XZ			; _STL::allocator<char>::~allocator<char>
; Function compile flags: /Ogty
; File c:\stlport-4.6.1\stlport\stl\_alloc.h
;	COMDAT ??1?$allocator@D@_STL@@QAE@XZ
_TEXT	SEGMENT
??1?$allocator@D@_STL@@QAE@XZ PROC NEAR			; _STL::allocator<char>::~allocator<char>, COMDAT
; _this$ = ecx

; 350  :   ~allocator() _STLP_NOTHROW {}

  00000	c3		 ret	 0
??1?$allocator@D@_STL@@QAE@XZ ENDP			; _STL::allocator<char>::~allocator<char>
_TEXT	ENDS
PUBLIC	?deallocate@?$__node_alloc@$00$0A@@_STL@@SAXPAXI@Z ; _STL::__node_alloc<1,0>::deallocate
EXTRN	?_M_deallocate@?$__node_alloc@$00$0A@@_STL@@CAXPAXI@Z:NEAR ; _STL::__node_alloc<1,0>::_M_deallocate
; Function compile flags: /Ogty
;	COMDAT ?deallocate@?$__node_alloc@$00$0A@@_STL@@SAXPAXI@Z
_TEXT	SEGMENT
___p$ = 8						; size = 4
___n$ = 12						; size = 4
?deallocate@?$__node_alloc@$00$0A@@_STL@@SAXPAXI@Z PROC NEAR ; _STL::__node_alloc<1,0>::deallocate, COMDAT

; 253  :   static void _STLP_CALL deallocate(void *__p, size_t __n) { if (__n > (size_t)_MAX_BYTES) __stl_delete(__p); else _M_deallocate(__p, __n); }

  00000	8b 44 24 08	 mov	 eax, DWORD PTR ___n$[esp-4]
  00004	3d 80 00 00 00	 cmp	 eax, 128		; 00000080H
  00009	76 0e		 jbe	 SHORT $L73486
  0000b	8b 44 24 04	 mov	 eax, DWORD PTR ___p$[esp-4]
  0000f	50		 push	 eax
  00010	e8 00 00 00 00	 call	 ??3@YAXPAX@Z		; operator delete
  00015	83 c4 04	 add	 esp, 4
  00018	c3		 ret	 0
$L73486:
  00019	89 44 24 08	 mov	 DWORD PTR ___n$[esp-4], eax
  0001d	e9 00 00 00 00	 jmp	 ?_M_deallocate@?$__node_alloc@$00$0A@@_STL@@CAXPAXI@Z ; _STL::__node_alloc<1,0>::_M_deallocate
?deallocate@?$__node_alloc@$00$0A@@_STL@@SAXPAXI@Z ENDP	; _STL::__node_alloc<1,0>::deallocate
_TEXT	ENDS
PUBLIC	??$min@H@_STL@@YAABHABH0@Z			; _STL::min<int>
; Function compile flags: /Ogty
; File c:\stlport-4.6.1\stlport\stl\_algobase.h
;	COMDAT ??$min@H@_STL@@YAABHABH0@Z
_TEXT	SEGMENT
___a$ = 8						; size = 4
___b$ = 12						; size = 4
??$min@H@_STL@@YAABHABH0@Z PROC NEAR			; _STL::min<int>, COMDAT

; 77   : inline const _Tp& (min)(const _Tp& __a, const _Tp& __b) { return __b < __a ? __b : __a; }

  00000	8b 44 24 08	 mov	 eax, DWORD PTR ___b$[esp-4]
  00004	8b 4c 24 04	 mov	 ecx, DWORD PTR ___a$[esp-4]
  00008	8b 10		 mov	 edx, DWORD PTR [eax]
  0000a	3b 11		 cmp	 edx, DWORD PTR [ecx]
  0000c	7c 02		 jl	 SHORT $L78430
  0000e	8b c1		 mov	 eax, ecx
$L78430:
  00010	c3		 ret	 0
??$min@H@_STL@@YAABHABH0@Z ENDP				; _STL::min<int>
_TEXT	ENDS
PUBLIC	??C?$_Rb_tree_iterator@U?$pair@$$CBV?$basic_string@DV?$char_traits@D@_STL@@V?$allocator@D@2@@_STL@@H@_STL@@U?$_Nonconst_traits@U?$pair@$$CBV?$basic_string@DV?$char_traits@D@_STL@@V?$allocator@D@2@@_STL@@H@_STL@@@2@@_STL@@QBEPAU?$pair@$$CBV?$basic_string@DV?$char_traits@D@_STL@@V?$allocator@D@2@@_STL@@H@1@XZ ; _STL::_Rb_tree_iterator<_STL::pair<_STL::basic_string<char,_STL::char_traits<char>,_STL::allocator<char> > const ,int>,_STL::_Nonconst_traits<_STL::pair<_STL::basic_string<char,_STL::char_traits<char>,_STL::allocator<char> > const ,int> > >::operator->
; Function compile flags: /Ogty
; File c:\stlport-4.6.1\stlport\stl\_tree.h
;	COMDAT ??C?$_Rb_tree_iterator@U?$pair@$$CBV?$basic_string@DV?$char_traits@D@_STL@@V?$allocator@D@2@@_STL@@H@_STL@@U?$_Nonconst_traits@U?$pair@$$CBV?$basic_string@DV?$char_traits@D@_STL@@V?$allocator@D@2@@_STL@@H@_STL@@@2@@_STL@@QBEPAU?$pair@$$CBV?$basic_string@DV?$char_traits@D@_STL@@V?$allocator@D@2@@_STL@@H@1@XZ
_TEXT	SEGMENT
??C?$_Rb_tree_iterator@U?$pair@$$CBV?$basic_string@DV?$char_traits@D@_STL@@V?$allocator@D@2@@_STL@@H@_STL@@U?$_Nonconst_traits@U?$pair@$$CBV?$basic_string@DV?$char_traits@D@_STL@@V?$allocator@D@2@@_STL@@H@_STL@@@2@@_STL@@QBEPAU?$pair@$$CBV?$basic_string@DV?$char_traits@D@_STL@@V?$allocator@D@2@@_STL@@H@1@XZ PROC NEAR ; _STL::_Rb_tree_iterator<_STL::pair<_STL::basic_string<char,_STL::char_traits<char>,_STL::allocator<char> > const ,int>,_STL::_Nonconst_traits<_STL::pair<_STL::basic_string<char,_STL::char_traits<char>,_STL::allocator<char> > const ,int> > >::operator->, COMDAT
; _this$ = ecx

; 172  :   _STLP_DEFINE_ARROW_OPERATOR

  00000	8b 01		 mov	 eax, DWORD PTR [ecx]
  00002	83 c0 10	 add	 eax, 16			; 00000010H
  00005	c3		 ret	 0
??C?$_Rb_tree_iterator@U?$pair@$$CBV?$basic_string@DV?$char_traits@D@_STL@@V?$allocator@D@2@@_STL@@H@_STL@@U?$_Nonconst_traits@U?$pair@$$CBV?$basic_string@DV?$char_traits@D@_STL@@V?$allocator@D@2@@_STL@@H@_STL@@@2@@_STL@@QBEPAU?$pair@$$CBV?$basic_string@DV?$char_traits@D@_STL@@V?$allocator@D@2@@_STL@@H@1@XZ ENDP ; _STL::_Rb_tree_iterator<_STL::pair<_STL::basic_string<char,_STL::char_traits<char>,_STL::allocator<char> > const ,int>,_STL::_Nonconst_traits<_STL::pair<_STL::basic_string<char,_STL::char_traits<char>,_STL::allocator<char> > const ,int> > >::operator->
_TEXT	ENDS
PUBLIC	?key_comp@?$map@V?$basic_string@DV?$char_traits@D@_STL@@V?$allocator@D@2@@_STL@@HU?$less@V?$basic_string@DV?$char_traits@D@_STL@@V?$allocator@D@2@@_STL@@@2@V?$allocator@U?$pair@$$CBV?$basic_string@DV?$char_traits@D@_STL@@V?$allocator@D@2@@_STL@@H@_STL@@@2@@_STL@@QBE?AU?$less@V?$basic_string@DV?$char_traits@D@_STL@@V?$allocator@D@2@@_STL@@@2@XZ ; _STL::map<_STL::basic_string<char,_STL::char_traits<char>,_STL::allocator<char> >,int,_STL::less<_STL::basic_string<char,_STL::char_traits<char>,_STL::allocator<char> > >,_STL::allocator<_STL::pair<_STL::basic_string<char,_STL::char_traits<char>,_STL::allocator<char> > const ,int> > >::key_comp
; Function compile flags: /Ogty
; File c:\stlport-4.6.1\stlport\stl\_map.h
;	COMDAT ?key_comp@?$map@V?$basic_string@DV?$char_traits@D@_STL@@V?$allocator@D@2@@_STL@@HU?$less@V?$basic_string@DV?$char_traits@D@_STL@@V?$allocator@D@2@@_STL@@@2@V?$allocator@U?$pair@$$CBV?$basic_string@DV?$char_traits@D@_STL@@V?$allocator@D@2@@_STL@@H@_STL@@@2@@_STL@@QBE?AU?$less@V?$basic_string@DV?$char_traits@D@_STL@@V?$allocator@D@2@@_STL@@@2@XZ
_TEXT	SEGMENT
___$ReturnUdt$ = 8					; size = 4
?key_comp@?$map@V?$basic_string@DV?$char_traits@D@_STL@@V?$allocator@D@2@@_STL@@HU?$less@V?$basic_string@DV?$char_traits@D@_STL@@V?$allocator@D@2@@_STL@@@2@V?$allocator@U?$pair@$$CBV?$basic_string@DV?$char_traits@D@_STL@@V?$allocator@D@2@@_STL@@H@_STL@@@2@@_STL@@QBE?AU?$less@V?$basic_string@DV?$char_traits@D@_STL@@V?$allocator@D@2@@_STL@@@2@XZ PROC NEAR ; _STL::map<_STL::basic_string<char,_STL::char_traits<char>,_STL::allocator<char> >,int,_STL::less<_STL::basic_string<char,_STL::char_traits<char>,_STL::allocator<char> > >,_STL::allocator<_STL::pair<_STL::basic_string<char,_STL::char_traits<char>,_STL::allocator<char> > const ,int> > >::key_comp, COMDAT
; _this$ = ecx

; 143  :   key_compare key_comp() const { return _M_t.key_comp(); }

  00000	8b 44 24 04	 mov	 eax, DWORD PTR ___$ReturnUdt$[esp-4]
  00004	c2 04 00	 ret	 4
?key_comp@?$map@V?$basic_string@DV?$char_traits@D@_STL@@V?$allocator@D@2@@_STL@@HU?$less@V?$basic_string@DV?$char_traits@D@_STL@@V?$allocator@D@2@@_STL@@@2@V?$allocator@U?$pair@$$CBV?$basic_string@DV?$char_traits@D@_STL@@V?$allocator@D@2@@_STL@@H@_STL@@@2@@_STL@@QBE?AU?$less@V?$basic_string@DV?$char_traits@D@_STL@@V?$allocator@D@2@@_STL@@@2@XZ ENDP ; _STL::map<_STL::basic_string<char,_STL::char_traits<char>,_STL::allocator<char> >,int,_STL::less<_STL::basic_string<char,_STL::char_traits<char>,_STL::allocator<char> > >,_STL::allocator<_STL::pair<_STL::basic_string<char,_STL::char_traits<char>,_STL::allocator<char> > const ,int> > >::key_comp
_TEXT	ENDS
PUBLIC	?end@?$_Rb_tree@V?$basic_string@DV?$char_traits@D@_STL@@V?$allocator@D@2@@_STL@@U?$pair@$$CBV?$basic_string@DV?$char_traits@D@_STL@@V?$allocator@D@2@@_STL@@H@2@U?$_Select1st@U?$pair@$$CBV?$basic_string@DV?$char_traits@D@_STL@@V?$allocator@D@2@@_STL@@H@_STL@@@2@U?$less@V?$basic_string@DV?$char_traits@D@_STL@@V?$allocator@D@2@@_STL@@@2@V?$allocator@U?$pair@$$CBV?$basic_string@DV?$char_traits@D@_STL@@V?$allocator@D@2@@_STL@@H@_STL@@@2@@_STL@@QAE?AU?$_Rb_tree_iterator@U?$pair@$$CBV?$basic_string@DV?$char_traits@D@_STL@@V?$allocator@D@2@@_STL@@H@_STL@@U?$_Nonconst_traits@U?$pair@$$CBV?$basic_string@DV?$char_traits@D@_STL@@V?$allocator@D@2@@_STL@@H@_STL@@@2@@2@XZ ; _STL::_Rb_tree<_STL::basic_string<char,_STL::char_traits<char>,_STL::allocator<char> >,_STL::pair<_STL::basic_string<char,_STL::char_traits<char>,_STL::allocator<char> > const ,int>,_STL::_Select1st<_STL::pair<_STL::basic_string<char,_STL::char_traits<char>,_STL::allocator<char> > const ,int> >,_STL::less<_STL::basic_string<char,_STL::char_traits<char>,_STL::allocator<char> > >,_STL::allocator<_STL::pair<_STL::basic_string<char,_STL::char_traits<char>,_STL::allocator<char> > const ,int> > >::end
; Function compile flags: /Ogty
; File c:\stlport-4.6.1\stlport\stl\_tree.h
;	COMDAT ?end@?$_Rb_tree@V?$basic_string@DV?$char_traits@D@_STL@@V?$allocator@D@2@@_STL@@U?$pair@$$CBV?$basic_string@DV?$char_traits@D@_STL@@V?$allocator@D@2@@_STL@@H@2@U?$_Select1st@U?$pair@$$CBV?$basic_string@DV?$char_traits@D@_STL@@V?$allocator@D@2@@_STL@@H@_STL@@@2@U?$less@V?$basic_string@DV?$char_traits@D@_STL@@V?$allocator@D@2@@_STL@@@2@V?$allocator@U?$pair@$$CBV?$basic_string@DV?$char_traits@D@_STL@@V?$allocator@D@2@@_STL@@H@_STL@@@2@@_STL@@QAE?AU?$_Rb_tree_iterator@U?$pair@$$CBV?$basic_string@DV?$char_traits@D@_STL@@V?$allocator@D@2@@_STL@@H@_STL@@U?$_Nonconst_traits@U?$pair@$$CBV?$basic_string@DV?$char_traits@D@_STL@@V?$allocator@D@2@@_STL@@H@_STL@@@2@@2@XZ
_TEXT	SEGMENT
___$ReturnUdt$ = 8					; size = 4
?end@?$_Rb_tree@V?$basic_string@DV?$char_traits@D@_STL@@V?$allocator@D@2@@_STL@@U?$pair@$$CBV?$basic_string@DV?$char_traits@D@_STL@@V?$allocator@D@2@@_STL@@H@2@U?$_Select1st@U?$pair@$$CBV?$basic_string@DV?$char_traits@D@_STL@@V?$allocator@D@2@@_STL@@H@_STL@@@2@U?$less@V?$basic_string@DV?$char_traits@D@_STL@@V?$allocator@D@2@@_STL@@@2@V?$allocator@U?$pair@$$CBV?$basic_string@DV?$char_traits@D@_STL@@V?$allocator@D@2@@_STL@@H@_STL@@@2@@_STL@@QAE?AU?$_Rb_tree_iterator@U?$pair@$$CBV?$basic_string@DV?$char_traits@D@_STL@@V?$allocator@D@2@@_STL@@H@_STL@@U?$_Nonconst_traits@U?$pair@$$CBV?$basic_string@DV?$char_traits@D@_STL@@V?$allocator@D@2@@_STL@@H@_STL@@@2@@2@XZ PROC NEAR ; _STL::_Rb_tree<_STL::basic_string<char,_STL::char_traits<char>,_STL::allocator<char> >,_STL::pair<_STL::basic_string<char,_STL::char_traits<char>,_STL::allocator<char> > const ,int>,_STL::_Select1st<_STL::pair<_STL::basic_string<char,_STL::char_traits<char>,_STL::allocator<char> > const ,int> >,_STL::less<_STL::basic_string<char,_STL::char_traits<char>,_STL::allocator<char> > >,_STL::allocator<_STL::pair<_STL::basic_string<char,_STL::char_traits<char>,_STL::allocator<char> > const ,int> > >::end, COMDAT
; _this$ = ecx

; 359  :   iterator end() { return iterator(this->_M_header._M_data); }

  00000	8b 09		 mov	 ecx, DWORD PTR [ecx]
  00002	8b 44 24 04	 mov	 eax, DWORD PTR ___$ReturnUdt$[esp-4]
  00006	89 08		 mov	 DWORD PTR [eax], ecx
  00008	c2 04 00	 ret	 4
?end@?$_Rb_tree@V?$basic_string@DV?$char_traits@D@_STL@@V?$allocator@D@2@@_STL@@U?$pair@$$CBV?$basic_string@DV?$char_traits@D@_STL@@V?$allocator@D@2@@_STL@@H@2@U?$_Select1st@U?$pair@$$CBV?$basic_string@DV?$char_traits@D@_STL@@V?$allocator@D@2@@_STL@@H@_STL@@@2@U?$less@V?$basic_string@DV?$char_traits@D@_STL@@V?$allocator@D@2@@_STL@@@2@V?$allocator@U?$pair@$$CBV?$basic_string@DV?$char_traits@D@_STL@@V?$allocator@D@2@@_STL@@H@_STL@@@2@@_STL@@QAE?AU?$_Rb_tree_iterator@U?$pair@$$CBV?$basic_string@DV?$char_traits@D@_STL@@V?$allocator@D@2@@_STL@@H@_STL@@U?$_Nonconst_traits@U?$pair@$$CBV?$basic_string@DV?$char_traits@D@_STL@@V?$allocator@D@2@@_STL@@H@_STL@@@2@@2@XZ ENDP ; _STL::_Rb_tree<_STL::basic_string<char,_STL::char_traits<char>,_STL::allocator<char> >,_STL::pair<_STL::basic_string<char,_STL::char_traits<char>,_STL::allocator<char> > const ,int>,_STL::_Select1st<_STL::pair<_STL::basic_string<char,_STL::char_traits<char>,_STL::allocator<char> > const ,int> >,_STL::less<_STL::basic_string<char,_STL::char_traits<char>,_STL::allocator<char> > >,_STL::allocator<_STL::pair<_STL::basic_string<char,_STL::char_traits<char>,_STL::allocator<char> > const ,int> > >::end
_TEXT	ENDS
PUBLIC	??1?$_STLP_alloc_proxy@PAU?$_Rb_tree_node@U?$pair@$$CBV?$basic_string@DV?$char_traits@D@_STL@@V?$allocator@D@2@@_STL@@H@_STL@@@_STL@@U12@V?$allocator@U?$_Rb_tree_node@U?$pair@$$CBV?$basic_string@DV?$char_traits@D@_STL@@V?$allocator@D@2@@_STL@@H@_STL@@@_STL@@@2@@_STL@@QAE@XZ ; _STL::_STLP_alloc_proxy<_STL::_Rb_tree_node<_STL::pair<_STL::basic_string<char,_STL::char_traits<char>,_STL::allocator<char> > const ,int> > *,_STL::_Rb_tree_node<_STL::pair<_STL::basic_string<char,_STL::char_traits<char>,_STL::allocator<char> > const ,int> >,_STL::allocator<_STL::_Rb_tree_node<_STL::pair<_STL::basic_string<char,_STL::char_traits<char>,_STL::allocator<char> > const ,int> > > >::~_STLP_alloc_proxy<_STL::_Rb_tree_node<_STL::pair<_STL::basic_string<char,_STL::char_traits<char>,_STL::allocator<char> > const ,int> > *,_STL::_Rb_tree_node<_STL::pair<_STL::basic_string<char,_STL::char_traits<char>,_STL::allocator<char> > const ,int> >,_STL::allocator<_STL::_Rb_tree_node<_STL::pair<_STL::basic_string<char,_STL::char_traits<char>,_STL::allocator<char> > const ,int> > > >
; Function compile flags: /Ogty
;	COMDAT ??1?$_STLP_alloc_proxy@PAU?$_Rb_tree_node@U?$pair@$$CBV?$basic_string@DV?$char_traits@D@_STL@@V?$allocator@D@2@@_STL@@H@_STL@@@_STL@@U12@V?$allocator@U?$_Rb_tree_node@U?$pair@$$CBV?$basic_string@DV?$char_traits@D@_STL@@V?$allocator@D@2@@_STL@@H@_STL@@@_STL@@@2@@_STL@@QAE@XZ
_TEXT	SEGMENT
??1?$_STLP_alloc_proxy@PAU?$_Rb_tree_node@U?$pair@$$CBV?$basic_string@DV?$char_traits@D@_STL@@V?$allocator@D@2@@_STL@@H@_STL@@@_STL@@U12@V?$allocator@U?$_Rb_tree_node@U?$pair@$$CBV?$basic_string@DV?$char_traits@D@_STL@@V?$allocator@D@2@@_STL@@H@_STL@@@_STL@@@2@@_STL@@QAE@XZ PROC NEAR ; _STL::_STLP_alloc_proxy<_STL::_Rb_tree_node<_STL::pair<_STL::basic_string<char,_STL::char_traits<char>,_STL::allocator<char> > const ,int> > *,_STL::_Rb_tree_node<_STL::pair<_STL::basic_string<char,_STL::char_traits<char>,_STL::allocator<char> > const ,int> >,_STL::allocator<_STL::_Rb_tree_node<_STL::pair<_STL::basic_string<char,_STL::char_traits<char>,_STL::allocator<char> > const ,int> > > >::~_STLP_alloc_proxy<_STL::_Rb_tree_node<_STL::pair<_STL::basic_string<char,_STL::char_traits<char>,_STL::allocator<char> > const ,int> > *,_STL::_Rb_tree_node<_STL::pair<_STL::basic_string<char,_STL::char_traits<char>,_STL::allocator<char> > const ,int> >,_STL::allocator<_STL::_Rb_tree_node<_STL::pair<_STL::basic_string<char,_STL::char_traits<char>,_STL::allocator<char> > const ,int> > > >, COMDAT
; _this$ = ecx
  00000	c3		 ret	 0
??1?$_STLP_alloc_proxy@PAU?$_Rb_tree_node@U?$pair@$$CBV?$basic_string@DV?$char_traits@D@_STL@@V?$allocator@D@2@@_STL@@H@_STL@@@_STL@@U12@V?$allocator@U?$_Rb_tree_node@U?$pair@$$CBV?$basic_string@DV?$char_traits@D@_STL@@V?$allocator@D@2@@_STL@@H@_STL@@@_STL@@@2@@_STL@@QAE@XZ ENDP ; _STL::_STLP_alloc_proxy<_STL::_Rb_tree_node<_STL::pair<_STL::basic_string<char,_STL::char_traits<char>,_STL::allocator<char> > const ,int> > *,_STL::_Rb_tree_node<_STL::pair<_STL::basic_string<char,_STL::char_traits<char>,_STL::allocator<char> > const ,int> >,_STL::allocator<_STL::_Rb_tree_node<_STL::pair<_STL::basic_string<char,_STL::char_traits<char>,_STL::allocator<char> > const ,int> > > >::~_STLP_alloc_proxy<_STL::_Rb_tree_node<_STL::pair<_STL::basic_string<char,_STL::char_traits<char>,_STL::allocator<char> > const ,int> > *,_STL::_Rb_tree_node<_STL::pair<_STL::basic_string<char,_STL::char_traits<char>,_STL::allocator<char> > const ,int> >,_STL::allocator<_STL::_Rb_tree_node<_STL::pair<_STL::basic_string<char,_STL::char_traits<char>,_STL::allocator<char> > const ,int> > > >
_TEXT	ENDS
PUBLIC	?allocate@?$allocator@UtagPOINT@@@_STL@@QAEPAUtagPOINT@@IPBX@Z ; _STL::allocator<tagPOINT>::allocate
; Function compile flags: /Ogty
; File c:\stlport-4.6.1\stlport\stl\_alloc.h
;	COMDAT ?allocate@?$allocator@UtagPOINT@@@_STL@@QAEPAUtagPOINT@@IPBX@Z
_TEXT	SEGMENT
___n$ = 8						; size = 4
___formal$ = 12						; size = 4
?allocate@?$allocator@UtagPOINT@@@_STL@@QAEPAUtagPOINT@@IPBX@Z PROC NEAR ; _STL::allocator<tagPOINT>::allocate, COMDAT
; _this$ = ecx

; 355  :     return __n != 0 ? __REINTERPRET_CAST(value_type*,__sgi_alloc::allocate(__n * sizeof(value_type))) : 0;

  00000	8b 44 24 04	 mov	 eax, DWORD PTR ___n$[esp-4]
  00004	85 c0		 test	 eax, eax
  00006	74 21		 je	 SHORT $L78459
  00008	c1 e0 03	 shl	 eax, 3
  0000b	3d 80 00 00 00	 cmp	 eax, 128		; 00000080H
  00010	50		 push	 eax
  00011	76 0b		 jbe	 SHORT $L78468
  00013	e8 00 00 00 00	 call	 ??2@YAPAXI@Z		; operator new
  00018	83 c4 04	 add	 esp, 4

; 356  :   }

  0001b	c2 08 00	 ret	 8

; 355  :     return __n != 0 ? __REINTERPRET_CAST(value_type*,__sgi_alloc::allocate(__n * sizeof(value_type))) : 0;

$L78468:
  0001e	e8 00 00 00 00	 call	 ?_M_allocate@?$__node_alloc@$00$0A@@_STL@@CAPAXI@Z ; _STL::__node_alloc<1,0>::_M_allocate
  00023	83 c4 04	 add	 esp, 4

; 356  :   }

  00026	c2 08 00	 ret	 8
$L78459:

; 355  :     return __n != 0 ? __REINTERPRET_CAST(value_type*,__sgi_alloc::allocate(__n * sizeof(value_type))) : 0;

  00029	33 c0		 xor	 eax, eax

; 356  :   }

  0002b	c2 08 00	 ret	 8
?allocate@?$allocator@UtagPOINT@@@_STL@@QAEPAUtagPOINT@@IPBX@Z ENDP ; _STL::allocator<tagPOINT>::allocate
_TEXT	ENDS
PUBLIC	?deallocate@?$allocator@UtagPOINT@@@_STL@@QAEXPAUtagPOINT@@I@Z ; _STL::allocator<tagPOINT>::deallocate
; Function compile flags: /Ogty
;	COMDAT ?deallocate@?$allocator@UtagPOINT@@@_STL@@QAEXPAUtagPOINT@@I@Z
_TEXT	SEGMENT
___p$ = 8						; size = 4
___n$ = 12						; size = 4
?deallocate@?$allocator@UtagPOINT@@@_STL@@QAEXPAUtagPOINT@@I@Z PROC NEAR ; _STL::allocator<tagPOINT>::deallocate, COMDAT
; _this$ = ecx

; 359  :     _STLP_ASSERT( (__p == 0) == (__n == 0) )
; 360  :       if (__p != 0) __sgi_alloc::deallocate((void*)__p, __n * sizeof(value_type));

  00000	8b 4c 24 04	 mov	 ecx, DWORD PTR ___p$[esp-4]
  00004	85 c9		 test	 ecx, ecx
  00006	74 24		 je	 SHORT $L78486
  00008	8b 44 24 08	 mov	 eax, DWORD PTR ___n$[esp-4]
  0000c	c1 e0 03	 shl	 eax, 3
  0000f	3d 80 00 00 00	 cmp	 eax, 128		; 00000080H
  00014	76 0c		 jbe	 SHORT $L78485
  00016	51		 push	 ecx
  00017	e8 00 00 00 00	 call	 ??3@YAXPAX@Z		; operator delete
  0001c	83 c4 04	 add	 esp, 4

; 361  :   }

  0001f	c2 08 00	 ret	 8

; 359  :     _STLP_ASSERT( (__p == 0) == (__n == 0) )
; 360  :       if (__p != 0) __sgi_alloc::deallocate((void*)__p, __n * sizeof(value_type));

$L78485:
  00022	50		 push	 eax
  00023	51		 push	 ecx
  00024	e8 00 00 00 00	 call	 ?_M_deallocate@?$__node_alloc@$00$0A@@_STL@@CAXPAXI@Z ; _STL::__node_alloc<1,0>::_M_deallocate
  00029	83 c4 08	 add	 esp, 8
$L78486:

; 361  :   }

  0002c	c2 08 00	 ret	 8
?deallocate@?$allocator@UtagPOINT@@@_STL@@QAEXPAUtagPOINT@@I@Z ENDP ; _STL::allocator<tagPOINT>::deallocate
_TEXT	ENDS
PUBLIC	??0?$_STLP_alloc_proxy@PAUtagPOINT@@U1@V?$allocator@UtagPOINT@@@_STL@@@_STL@@QAE@ABV?$allocator@UtagPOINT@@@1@PAUtagPOINT@@@Z ; _STL::_STLP_alloc_proxy<tagPOINT *,tagPOINT,_STL::allocator<tagPOINT> >::_STLP_alloc_proxy<tagPOINT *,tagPOINT,_STL::allocator<tagPOINT> >
; Function compile flags: /Ogty
;	COMDAT ??0?$_STLP_alloc_proxy@PAUtagPOINT@@U1@V?$allocator@UtagPOINT@@@_STL@@@_STL@@QAE@ABV?$allocator@UtagPOINT@@@1@PAUtagPOINT@@@Z
_TEXT	SEGMENT
___a$ = 8						; size = 4
___p$ = 12						; size = 4
??0?$_STLP_alloc_proxy@PAUtagPOINT@@U1@V?$allocator@UtagPOINT@@@_STL@@@_STL@@QAE@ABV?$allocator@UtagPOINT@@@1@PAUtagPOINT@@@Z PROC NEAR ; _STL::_STLP_alloc_proxy<tagPOINT *,tagPOINT,_STL::allocator<tagPOINT> >::_STLP_alloc_proxy<tagPOINT *,tagPOINT,_STL::allocator<tagPOINT> >, COMDAT
; _this$ = ecx

; 487  :   inline _STLP_alloc_proxy(const _MaybeReboundAlloc& __a, _Value __p) : _MaybeReboundAlloc(__a), _M_data(__p) {}

  00000	8b c1		 mov	 eax, ecx
  00002	8b 4c 24 08	 mov	 ecx, DWORD PTR ___p$[esp-4]
  00006	89 08		 mov	 DWORD PTR [eax], ecx
  00008	c2 08 00	 ret	 8
??0?$_STLP_alloc_proxy@PAUtagPOINT@@U1@V?$allocator@UtagPOINT@@@_STL@@@_STL@@QAE@ABV?$allocator@UtagPOINT@@@1@PAUtagPOINT@@@Z ENDP ; _STL::_STLP_alloc_proxy<tagPOINT *,tagPOINT,_STL::allocator<tagPOINT> >::_STLP_alloc_proxy<tagPOINT *,tagPOINT,_STL::allocator<tagPOINT> >
_TEXT	ENDS
PUBLIC	?allocate@?$allocator@UtagRECT@@@_STL@@QAEPAUtagRECT@@IPBX@Z ; _STL::allocator<tagRECT>::allocate
; Function compile flags: /Ogty
;	COMDAT ?allocate@?$allocator@UtagRECT@@@_STL@@QAEPAUtagRECT@@IPBX@Z
_TEXT	SEGMENT
___n$ = 8						; size = 4
___formal$ = 12						; size = 4
?allocate@?$allocator@UtagRECT@@@_STL@@QAEPAUtagRECT@@IPBX@Z PROC NEAR ; _STL::allocator<tagRECT>::allocate, COMDAT
; _this$ = ecx

; 355  :     return __n != 0 ? __REINTERPRET_CAST(value_type*,__sgi_alloc::allocate(__n * sizeof(value_type))) : 0;

  00000	8b 44 24 04	 mov	 eax, DWORD PTR ___n$[esp-4]
  00004	85 c0		 test	 eax, eax
  00006	74 21		 je	 SHORT $L78494
  00008	c1 e0 04	 shl	 eax, 4
  0000b	3d 80 00 00 00	 cmp	 eax, 128		; 00000080H
  00010	50		 push	 eax
  00011	76 0b		 jbe	 SHORT $L78503
  00013	e8 00 00 00 00	 call	 ??2@YAPAXI@Z		; operator new
  00018	83 c4 04	 add	 esp, 4

; 356  :   }

  0001b	c2 08 00	 ret	 8

; 355  :     return __n != 0 ? __REINTERPRET_CAST(value_type*,__sgi_alloc::allocate(__n * sizeof(value_type))) : 0;

$L78503:
  0001e	e8 00 00 00 00	 call	 ?_M_allocate@?$__node_alloc@$00$0A@@_STL@@CAPAXI@Z ; _STL::__node_alloc<1,0>::_M_allocate
  00023	83 c4 04	 add	 esp, 4

; 356  :   }

  00026	c2 08 00	 ret	 8
$L78494:

; 355  :     return __n != 0 ? __REINTERPRET_CAST(value_type*,__sgi_alloc::allocate(__n * sizeof(value_type))) : 0;

  00029	33 c0		 xor	 eax, eax

; 356  :   }

  0002b	c2 08 00	 ret	 8
?allocate@?$allocator@UtagRECT@@@_STL@@QAEPAUtagRECT@@IPBX@Z ENDP ; _STL::allocator<tagRECT>::allocate
_TEXT	ENDS
PUBLIC	?deallocate@?$allocator@UtagRECT@@@_STL@@QAEXPAUtagRECT@@I@Z ; _STL::allocator<tagRECT>::deallocate
; Function compile flags: /Ogty
;	COMDAT ?deallocate@?$allocator@UtagRECT@@@_STL@@QAEXPAUtagRECT@@I@Z
_TEXT	SEGMENT
___p$ = 8						; size = 4
___n$ = 12						; size = 4
?deallocate@?$allocator@UtagRECT@@@_STL@@QAEXPAUtagRECT@@I@Z PROC NEAR ; _STL::allocator<tagRECT>::deallocate, COMDAT
; _this$ = ecx

; 359  :     _STLP_ASSERT( (__p == 0) == (__n == 0) )
; 360  :       if (__p != 0) __sgi_alloc::deallocate((void*)__p, __n * sizeof(value_type));

  00000	8b 4c 24 04	 mov	 ecx, DWORD PTR ___p$[esp-4]
  00004	85 c9		 test	 ecx, ecx
  00006	74 24		 je	 SHORT $L78521
  00008	8b 44 24 08	 mov	 eax, DWORD PTR ___n$[esp-4]
  0000c	c1 e0 04	 shl	 eax, 4
  0000f	3d 80 00 00 00	 cmp	 eax, 128		; 00000080H
  00014	76 0c		 jbe	 SHORT $L78520
  00016	51		 push	 ecx
  00017	e8 00 00 00 00	 call	 ??3@YAXPAX@Z		; operator delete
  0001c	83 c4 04	 add	 esp, 4

; 361  :   }

  0001f	c2 08 00	 ret	 8

; 359  :     _STLP_ASSERT( (__p == 0) == (__n == 0) )
; 360  :       if (__p != 0) __sgi_alloc::deallocate((void*)__p, __n * sizeof(value_type));

$L78520:
  00022	50		 push	 eax
  00023	51		 push	 ecx
  00024	e8 00 00 00 00	 call	 ?_M_deallocate@?$__node_alloc@$00$0A@@_STL@@CAXPAXI@Z ; _STL::__node_alloc<1,0>::_M_deallocate
  00029	83 c4 08	 add	 esp, 8
$L78521:

; 361  :   }

  0002c	c2 08 00	 ret	 8
?deallocate@?$allocator@UtagRECT@@@_STL@@QAEXPAUtagRECT@@I@Z ENDP ; _STL::allocator<tagRECT>::deallocate
_TEXT	ENDS
PUBLIC	??0?$_STLP_alloc_proxy@PAUtagRECT@@U1@V?$allocator@UtagRECT@@@_STL@@@_STL@@QAE@ABV?$allocator@UtagRECT@@@1@PAUtagRECT@@@Z ; _STL::_STLP_alloc_proxy<tagRECT *,tagRECT,_STL::allocator<tagRECT> >::_STLP_alloc_proxy<tagRECT *,tagRECT,_STL::allocator<tagRECT> >
; Function compile flags: /Ogty
;	COMDAT ??0?$_STLP_alloc_proxy@PAUtagRECT@@U1@V?$allocator@UtagRECT@@@_STL@@@_STL@@QAE@ABV?$allocator@UtagRECT@@@1@PAUtagRECT@@@Z
_TEXT	SEGMENT
___a$ = 8						; size = 4
___p$ = 12						; size = 4
??0?$_STLP_alloc_proxy@PAUtagRECT@@U1@V?$allocator@UtagRECT@@@_STL@@@_STL@@QAE@ABV?$allocator@UtagRECT@@@1@PAUtagRECT@@@Z PROC NEAR ; _STL::_STLP_alloc_proxy<tagRECT *,tagRECT,_STL::allocator<tagRECT> >::_STLP_alloc_proxy<tagRECT *,tagRECT,_STL::allocator<tagRECT> >, COMDAT
; _this$ = ecx

; 487  :   inline _STLP_alloc_proxy(const _MaybeReboundAlloc& __a, _Value __p) : _MaybeReboundAlloc(__a), _M_data(__p) {}

  00000	8b c1		 mov	 eax, ecx
  00002	8b 4c 24 08	 mov	 ecx, DWORD PTR ___p$[esp-4]
  00006	89 08		 mov	 DWORD PTR [eax], ecx
  00008	c2 08 00	 ret	 8
??0?$_STLP_alloc_proxy@PAUtagRECT@@U1@V?$allocator@UtagRECT@@@_STL@@@_STL@@QAE@ABV?$allocator@UtagRECT@@@1@PAUtagRECT@@@Z ENDP ; _STL::_STLP_alloc_proxy<tagRECT *,tagRECT,_STL::allocator<tagRECT> >::_STLP_alloc_proxy<tagRECT *,tagRECT,_STL::allocator<tagRECT> >
_TEXT	ENDS
PUBLIC	?_M_empty_initialize@?$_Rb_tree@V?$basic_string@DV?$char_traits@D@_STL@@V?$allocator@D@2@@_STL@@U?$pair@$$CBV?$basic_string@DV?$char_traits@D@_STL@@V?$allocator@D@2@@_STL@@H@2@U?$_Select1st@U?$pair@$$CBV?$basic_string@DV?$char_traits@D@_STL@@V?$allocator@D@2@@_STL@@H@_STL@@@2@U?$less@V?$basic_string@DV?$char_traits@D@_STL@@V?$allocator@D@2@@_STL@@@2@V?$allocator@U?$pair@$$CBV?$basic_string@DV?$char_traits@D@_STL@@V?$allocator@D@2@@_STL@@H@_STL@@@2@@_STL@@AAEXXZ ; _STL::_Rb_tree<_STL::basic_string<char,_STL::char_traits<char>,_STL::allocator<char> >,_STL::pair<_STL::basic_string<char,_STL::char_traits<char>,_STL::allocator<char> > const ,int>,_STL::_Select1st<_STL::pair<_STL::basic_string<char,_STL::char_traits<char>,_STL::allocator<char> > const ,int> >,_STL::less<_STL::basic_string<char,_STL::char_traits<char>,_STL::allocator<char> > >,_STL::allocator<_STL::pair<_STL::basic_string<char,_STL::char_traits<char>,_STL::allocator<char> > const ,int> > >::_M_empty_initialize
; Function compile flags: /Ogty
; File c:\stlport-4.6.1\stlport\stl\_tree.h
;	COMDAT ?_M_empty_initialize@?$_Rb_tree@V?$basic_string@DV?$char_traits@D@_STL@@V?$allocator@D@2@@_STL@@U?$pair@$$CBV?$basic_string@DV?$char_traits@D@_STL@@V?$allocator@D@2@@_STL@@H@2@U?$_Select1st@U?$pair@$$CBV?$basic_string@DV?$char_traits@D@_STL@@V?$allocator@D@2@@_STL@@H@_STL@@@2@U?$less@V?$basic_string@DV?$char_traits@D@_STL@@V?$allocator@D@2@@_STL@@@2@V?$allocator@U?$pair@$$CBV?$basic_string@DV?$char_traits@D@_STL@@V?$allocator@D@2@@_STL@@H@_STL@@@2@@_STL@@AAEXXZ
_TEXT	SEGMENT
?_M_empty_initialize@?$_Rb_tree@V?$basic_string@DV?$char_traits@D@_STL@@V?$allocator@D@2@@_STL@@U?$pair@$$CBV?$basic_string@DV?$char_traits@D@_STL@@V?$allocator@D@2@@_STL@@H@2@U?$_Select1st@U?$pair@$$CBV?$basic_string@DV?$char_traits@D@_STL@@V?$allocator@D@2@@_STL@@H@_STL@@@2@U?$less@V?$basic_string@DV?$char_traits@D@_STL@@V?$allocator@D@2@@_STL@@@2@V?$allocator@U?$pair@$$CBV?$basic_string@DV?$char_traits@D@_STL@@V?$allocator@D@2@@_STL@@H@_STL@@@2@@_STL@@AAEXXZ PROC NEAR ; _STL::_Rb_tree<_STL::basic_string<char,_STL::char_traits<char>,_STL::allocator<char> >,_STL::pair<_STL::basic_string<char,_STL::char_traits<char>,_STL::allocator<char> > const ,int>,_STL::_Select1st<_STL::pair<_STL::basic_string<char,_STL::char_traits<char>,_STL::allocator<char> > const ,int> >,_STL::less<_STL::basic_string<char,_STL::char_traits<char>,_STL::allocator<char> > >,_STL::allocator<_STL::pair<_STL::basic_string<char,_STL::char_traits<char>,_STL::allocator<char> > const ,int> > >::_M_empty_initialize, COMDAT
; _this$ = ecx

; 346  :     _S_color(this->_M_header._M_data) = _S_rb_tree_red; // used to distinguish header from 

  00000	8b 01		 mov	 eax, DWORD PTR [ecx]
  00002	c6 00 00	 mov	 BYTE PTR [eax], 0

; 347  :                                           // __root, in iterator.operator++
; 348  :     _M_root() = 0;

  00005	8b 11		 mov	 edx, DWORD PTR [ecx]
  00007	c7 42 04 00 00
	00 00		 mov	 DWORD PTR [edx+4], 0

; 349  :     _M_leftmost() = this->_M_header._M_data;

  0000e	8b 01		 mov	 eax, DWORD PTR [ecx]
  00010	89 40 08	 mov	 DWORD PTR [eax+8], eax

; 350  :     _M_rightmost() = this->_M_header._M_data;

  00013	8b 09		 mov	 ecx, DWORD PTR [ecx]
  00015	89 49 0c	 mov	 DWORD PTR [ecx+12], ecx

; 351  :   }

  00018	c3		 ret	 0
?_M_empty_initialize@?$_Rb_tree@V?$basic_string@DV?$char_traits@D@_STL@@V?$allocator@D@2@@_STL@@U?$pair@$$CBV?$basic_string@DV?$char_traits@D@_STL@@V?$allocator@D@2@@_STL@@H@2@U?$_Select1st@U?$pair@$$CBV?$basic_string@DV?$char_traits@D@_STL@@V?$allocator@D@2@@_STL@@H@_STL@@@2@U?$less@V?$basic_string@DV?$char_traits@D@_STL@@V?$allocator@D@2@@_STL@@@2@V?$allocator@U?$pair@$$CBV?$basic_string@DV?$char_traits@D@_STL@@V?$allocator@D@2@@_STL@@H@_STL@@@2@@_STL@@AAEXXZ ENDP ; _STL::_Rb_tree<_STL::basic_string<char,_STL::char_traits<char>,_STL::allocator<char> >,_STL::pair<_STL::basic_string<char,_STL::char_traits<char>,_STL::allocator<char> > const ,int>,_STL::_Select1st<_STL::pair<_STL::basic_string<char,_STL::char_traits<char>,_STL::allocator<char> > const ,int> >,_STL::less<_STL::basic_string<char,_STL::char_traits<char>,_STL::allocator<char> > >,_STL::allocator<_STL::pair<_STL::basic_string<char,_STL::char_traits<char>,_STL::allocator<char> > const ,int> > >::_M_empty_initialize
_TEXT	ENDS
PUBLIC	?deallocate@?$allocator@U?$_Rb_tree_node@U?$pair@$$CBV?$basic_string@DV?$char_traits@D@_STL@@V?$allocator@D@2@@_STL@@H@_STL@@@_STL@@@_STL@@QAEXPAU?$_Rb_tree_node@U?$pair@$$CBV?$basic_string@DV?$char_traits@D@_STL@@V?$allocator@D@2@@_STL@@H@_STL@@@2@I@Z ; _STL::allocator<_STL::_Rb_tree_node<_STL::pair<_STL::basic_string<char,_STL::char_traits<char>,_STL::allocator<char> > const ,int> > >::deallocate
; Function compile flags: /Ogty
; File c:\stlport-4.6.1\stlport\stl\_alloc.h
;	COMDAT ?deallocate@?$allocator@U?$_Rb_tree_node@U?$pair@$$CBV?$basic_string@DV?$char_traits@D@_STL@@V?$allocator@D@2@@_STL@@H@_STL@@@_STL@@@_STL@@QAEXPAU?$_Rb_tree_node@U?$pair@$$CBV?$basic_string@DV?$char_traits@D@_STL@@V?$allocator@D@2@@_STL@@H@_STL@@@2@I@Z
_TEXT	SEGMENT
___p$ = 8						; size = 4
___n$ = 12						; size = 4
?deallocate@?$allocator@U?$_Rb_tree_node@U?$pair@$$CBV?$basic_string@DV?$char_traits@D@_STL@@V?$allocator@D@2@@_STL@@H@_STL@@@_STL@@@_STL@@QAEXPAU?$_Rb_tree_node@U?$pair@$$CBV?$basic_string@DV?$char_traits@D@_STL@@V?$allocator@D@2@@_STL@@H@_STL@@@2@I@Z PROC NEAR ; _STL::allocator<_STL::_Rb_tree_node<_STL::pair<_STL::basic_string<char,_STL::char_traits<char>,_STL::allocator<char> > const ,int> > >::deallocate, COMDAT
; _this$ = ecx

; 359  :     _STLP_ASSERT( (__p == 0) == (__n == 0) )
; 360  :       if (__p != 0) __sgi_alloc::deallocate((void*)__p, __n * sizeof(value_type));

  00000	8b 4c 24 04	 mov	 ecx, DWORD PTR ___p$[esp-4]
  00004	85 c9		 test	 ecx, ecx
  00006	74 24		 je	 SHORT $L78554
  00008	8b 44 24 08	 mov	 eax, DWORD PTR ___n$[esp-4]
  0000c	c1 e0 05	 shl	 eax, 5
  0000f	3d 80 00 00 00	 cmp	 eax, 128		; 00000080H
  00014	76 0c		 jbe	 SHORT $L78553
  00016	51		 push	 ecx
  00017	e8 00 00 00 00	 call	 ??3@YAXPAX@Z		; operator delete
  0001c	83 c4 04	 add	 esp, 4

; 361  :   }

  0001f	c2 08 00	 ret	 8

; 359  :     _STLP_ASSERT( (__p == 0) == (__n == 0) )
; 360  :       if (__p != 0) __sgi_alloc::deallocate((void*)__p, __n * sizeof(value_type));

$L78553:
  00022	50		 push	 eax
  00023	51		 push	 ecx
  00024	e8 00 00 00 00	 call	 ?_M_deallocate@?$__node_alloc@$00$0A@@_STL@@CAXPAXI@Z ; _STL::__node_alloc<1,0>::_M_deallocate
  00029	83 c4 08	 add	 esp, 8
$L78554:

; 361  :   }

  0002c	c2 08 00	 ret	 8
?deallocate@?$allocator@U?$_Rb_tree_node@U?$pair@$$CBV?$basic_string@DV?$char_traits@D@_STL@@V?$allocator@D@2@@_STL@@H@_STL@@@_STL@@@_STL@@QAEXPAU?$_Rb_tree_node@U?$pair@$$CBV?$basic_string@DV?$char_traits@D@_STL@@V?$allocator@D@2@@_STL@@H@_STL@@@2@I@Z ENDP ; _STL::allocator<_STL::_Rb_tree_node<_STL::pair<_STL::basic_string<char,_STL::char_traits<char>,_STL::allocator<char> > const ,int> > >::deallocate
_TEXT	ENDS
PUBLIC	??0?$_STLP_alloc_proxy@PAU?$_Rb_tree_node@U?$pair@$$CBV?$basic_string@DV?$char_traits@D@_STL@@V?$allocator@D@2@@_STL@@H@_STL@@@_STL@@U12@V?$allocator@U?$_Rb_tree_node@U?$pair@$$CBV?$basic_string@DV?$char_traits@D@_STL@@V?$allocator@D@2@@_STL@@H@_STL@@@_STL@@@2@@_STL@@QAE@ABV?$allocator@U?$_Rb_tree_node@U?$pair@$$CBV?$basic_string@DV?$char_traits@D@_STL@@V?$allocator@D@2@@_STL@@H@_STL@@@_STL@@@1@PAU?$_Rb_tree_node@U?$pair@$$CBV?$basic_string@DV?$char_traits@D@_STL@@V?$allocator@D@2@@_STL@@H@_STL@@@1@@Z ; _STL::_STLP_alloc_proxy<_STL::_Rb_tree_node<_STL::pair<_STL::basic_string<char,_STL::char_traits<char>,_STL::allocator<char> > const ,int> > *,_STL::_Rb_tree_node<_STL::pair<_STL::basic_string<char,_STL::char_traits<char>,_STL::allocator<char> > const ,int> >,_STL::allocator<_STL::_Rb_tree_node<_STL::pair<_STL::basic_string<char,_STL::char_traits<char>,_STL::allocator<char> > const ,int> > > >::_STLP_alloc_proxy<_STL::_Rb_tree_node<_STL::pair<_STL::basic_string<char,_STL::char_traits<char>,_STL::allocator<char> > const ,int> > *,_STL::_Rb_tree_node<_STL::pair<_STL::basic_string<char,_STL::char_traits<char>,_STL::allocator<char> > const ,int> >,_STL::allocator<_STL::_Rb_tree_node<_STL::pair<_STL::basic_string<char,_STL::char_traits<char>,_STL::allocator<char> > const ,int> > > >
; Function compile flags: /Ogty
;	COMDAT ??0?$_STLP_alloc_proxy@PAU?$_Rb_tree_node@U?$pair@$$CBV?$basic_string@DV?$char_traits@D@_STL@@V?$allocator@D@2@@_STL@@H@_STL@@@_STL@@U12@V?$allocator@U?$_Rb_tree_node@U?$pair@$$CBV?$basic_string@DV?$char_traits@D@_STL@@V?$allocator@D@2@@_STL@@H@_STL@@@_STL@@@2@@_STL@@QAE@ABV?$allocator@U?$_Rb_tree_node@U?$pair@$$CBV?$basic_string@DV?$char_traits@D@_STL@@V?$allocator@D@2@@_STL@@H@_STL@@@_STL@@@1@PAU?$_Rb_tree_node@U?$pair@$$CBV?$basic_string@DV?$char_traits@D@_STL@@V?$allocator@D@2@@_STL@@H@_STL@@@1@@Z
_TEXT	SEGMENT
___a$ = 8						; size = 4
___p$ = 12						; size = 4
??0?$_STLP_alloc_proxy@PAU?$_Rb_tree_node@U?$pair@$$CBV?$basic_string@DV?$char_traits@D@_STL@@V?$allocator@D@2@@_STL@@H@_STL@@@_STL@@U12@V?$allocator@U?$_Rb_tree_node@U?$pair@$$CBV?$basic_string@DV?$char_traits@D@_STL@@V?$allocator@D@2@@_STL@@H@_STL@@@_STL@@@2@@_STL@@QAE@ABV?$allocator@U?$_Rb_tree_node@U?$pair@$$CBV?$basic_string@DV?$char_traits@D@_STL@@V?$allocator@D@2@@_STL@@H@_STL@@@_STL@@@1@PAU?$_Rb_tree_node@U?$pair@$$CBV?$basic_string@DV?$char_traits@D@_STL@@V?$allocator@D@2@@_STL@@H@_STL@@@1@@Z PROC NEAR ; _STL::_STLP_alloc_proxy<_STL::_Rb_tree_node<_STL::pair<_STL::basic_string<char,_STL::char_traits<char>,_STL::allocator<char> > const ,int> > *,_STL::_Rb_tree_node<_STL::pair<_STL::basic_string<char,_STL::char_traits<char>,_STL::allocator<char> > const ,int> >,_STL::allocator<_STL::_Rb_tree_node<_STL::pair<_STL::basic_string<char,_STL::char_traits<char>,_STL::allocator<char> > const ,int> > > >::_STLP_alloc_proxy<_STL::_Rb_tree_node<_STL::pair<_STL::basic_string<char,_STL::char_traits<char>,_STL::allocator<char> > const ,int> > *,_STL::_Rb_tree_node<_STL::pair<_STL::basic_string<char,_STL::char_traits<char>,_STL::allocator<char> > const ,int> >,_STL::allocator<_STL::_Rb_tree_node<_STL::pair<_STL::basic_string<char,_STL::char_traits<char>,_STL::allocator<char> > const ,int> > > >, COMDAT
; _this$ = ecx

; 487  :   inline _STLP_alloc_proxy(const _MaybeReboundAlloc& __a, _Value __p) : _MaybeReboundAlloc(__a), _M_data(__p) {}

  00000	8b c1		 mov	 eax, ecx
  00002	8b 4c 24 08	 mov	 ecx, DWORD PTR ___p$[esp-4]
  00006	89 08		 mov	 DWORD PTR [eax], ecx
  00008	c2 08 00	 ret	 8
??0?$_STLP_alloc_proxy@PAU?$_Rb_tree_node@U?$pair@$$CBV?$basic_string@DV?$char_traits@D@_STL@@V?$allocator@D@2@@_STL@@H@_STL@@@_STL@@U12@V?$allocator@U?$_Rb_tree_node@U?$pair@$$CBV?$basic_string@DV?$char_traits@D@_STL@@V?$allocator@D@2@@_STL@@H@_STL@@@_STL@@@2@@_STL@@QAE@ABV?$allocator@U?$_Rb_tree_node@U?$pair@$$CBV?$basic_string@DV?$char_traits@D@_STL@@V?$allocator@D@2@@_STL@@H@_STL@@@_STL@@@1@PAU?$_Rb_tree_node@U?$pair@$$CBV?$basic_string@DV?$char_traits@D@_STL@@V?$allocator@D@2@@_STL@@H@_STL@@@1@@Z ENDP ; _STL::_STLP_alloc_proxy<_STL::_Rb_tree_node<_STL::pair<_STL::basic_string<char,_STL::char_traits<char>,_STL::allocator<char> > const ,int> > *,_STL::_Rb_tree_node<_STL::pair<_STL::basic_string<char,_STL::char_traits<char>,_STL::allocator<char> > const ,int> >,_STL::allocator<_STL::_Rb_tree_node<_STL::pair<_STL::basic_string<char,_STL::char_traits<char>,_STL::allocator<char> > const ,int> > > >::_STLP_alloc_proxy<_STL::_Rb_tree_node<_STL::pair<_STL::basic_string<char,_STL::char_traits<char>,_STL::allocator<char> > const ,int> > *,_STL::_Rb_tree_node<_STL::pair<_STL::basic_string<char,_STL::char_traits<char>,_STL::allocator<char> > const ,int> >,_STL::allocator<_STL::_Rb_tree_node<_STL::pair<_STL::basic_string<char,_STL::char_traits<char>,_STL::allocator<char> > const ,int> > > >
_TEXT	ENDS
PUBLIC	?_S_key@?$_Rb_tree@V?$basic_string@DV?$char_traits@D@_STL@@V?$allocator@D@2@@_STL@@U?$pair@$$CBV?$basic_string@DV?$char_traits@D@_STL@@V?$allocator@D@2@@_STL@@H@2@U?$_Select1st@U?$pair@$$CBV?$basic_string@DV?$char_traits@D@_STL@@V?$allocator@D@2@@_STL@@H@_STL@@@2@U?$less@V?$basic_string@DV?$char_traits@D@_STL@@V?$allocator@D@2@@_STL@@@2@V?$allocator@U?$pair@$$CBV?$basic_string@DV?$char_traits@D@_STL@@V?$allocator@D@2@@_STL@@H@_STL@@@2@@_STL@@KAABV?$basic_string@DV?$char_traits@D@_STL@@V?$allocator@D@2@@2@PAU?$_Rb_tree_node@U?$pair@$$CBV?$basic_string@DV?$char_traits@D@_STL@@V?$allocator@D@2@@_STL@@H@_STL@@@2@@Z ; _STL::_Rb_tree<_STL::basic_string<char,_STL::char_traits<char>,_STL::allocator<char> >,_STL::pair<_STL::basic_string<char,_STL::char_traits<char>,_STL::allocator<char> > const ,int>,_STL::_Select1st<_STL::pair<_STL::basic_string<char,_STL::char_traits<char>,_STL::allocator<char> > const ,int> >,_STL::less<_STL::basic_string<char,_STL::char_traits<char>,_STL::allocator<char> > >,_STL::allocator<_STL::pair<_STL::basic_string<char,_STL::char_traits<char>,_STL::allocator<char> > const ,int> > >::_S_key
; Function compile flags: /Ogty
; File c:\stlport-4.6.1\stlport\stl\_tree.h
;	COMDAT ?_S_key@?$_Rb_tree@V?$basic_string@DV?$char_traits@D@_STL@@V?$allocator@D@2@@_STL@@U?$pair@$$CBV?$basic_string@DV?$char_traits@D@_STL@@V?$allocator@D@2@@_STL@@H@2@U?$_Select1st@U?$pair@$$CBV?$basic_string@DV?$char_traits@D@_STL@@V?$allocator@D@2@@_STL@@H@_STL@@@2@U?$less@V?$basic_string@DV?$char_traits@D@_STL@@V?$allocator@D@2@@_STL@@@2@V?$allocator@U?$pair@$$CBV?$basic_string@DV?$char_traits@D@_STL@@V?$allocator@D@2@@_STL@@H@_STL@@@2@@_STL@@KAABV?$basic_string@DV?$char_traits@D@_STL@@V?$allocator@D@2@@2@PAU?$_Rb_tree_node@U?$pair@$$CBV?$basic_string@DV?$char_traits@D@_STL@@V?$allocator@D@2@@_STL@@H@_STL@@@2@@Z
_TEXT	SEGMENT
___x$ = 8						; size = 4
?_S_key@?$_Rb_tree@V?$basic_string@DV?$char_traits@D@_STL@@V?$allocator@D@2@@_STL@@U?$pair@$$CBV?$basic_string@DV?$char_traits@D@_STL@@V?$allocator@D@2@@_STL@@H@2@U?$_Select1st@U?$pair@$$CBV?$basic_string@DV?$char_traits@D@_STL@@V?$allocator@D@2@@_STL@@H@_STL@@@2@U?$less@V?$basic_string@DV?$char_traits@D@_STL@@V?$allocator@D@2@@_STL@@@2@V?$allocator@U?$pair@$$CBV?$basic_string@DV?$char_traits@D@_STL@@V?$allocator@D@2@@_STL@@H@_STL@@@2@@_STL@@KAABV?$basic_string@DV?$char_traits@D@_STL@@V?$allocator@D@2@@2@PAU?$_Rb_tree_node@U?$pair@$$CBV?$basic_string@DV?$char_traits@D@_STL@@V?$allocator@D@2@@_STL@@H@_STL@@@2@@Z PROC NEAR ; _STL::_Rb_tree<_STL::basic_string<char,_STL::char_traits<char>,_STL::allocator<char> >,_STL::pair<_STL::basic_string<char,_STL::char_traits<char>,_STL::allocator<char> > const ,int>,_STL::_Select1st<_STL::pair<_STL::basic_string<char,_STL::char_traits<char>,_STL::allocator<char> > const ,int> >,_STL::less<_STL::basic_string<char,_STL::char_traits<char>,_STL::allocator<char> > >,_STL::allocator<_STL::pair<_STL::basic_string<char,_STL::char_traits<char>,_STL::allocator<char> > const ,int> > >::_S_key, COMDAT

; 280  :     { return _KeyOfValue()(_S_value(__x)); }

  00000	8b 44 24 04	 mov	 eax, DWORD PTR ___x$[esp-4]
  00004	83 c0 10	 add	 eax, 16			; 00000010H
  00007	c3		 ret	 0
?_S_key@?$_Rb_tree@V?$basic_string@DV?$char_traits@D@_STL@@V?$allocator@D@2@@_STL@@U?$pair@$$CBV?$basic_string@DV?$char_traits@D@_STL@@V?$allocator@D@2@@_STL@@H@2@U?$_Select1st@U?$pair@$$CBV?$basic_string@DV?$char_traits@D@_STL@@V?$allocator@D@2@@_STL@@H@_STL@@@2@U?$less@V?$basic_string@DV?$char_traits@D@_STL@@V?$allocator@D@2@@_STL@@@2@V?$allocator@U?$pair@$$CBV?$basic_string@DV?$char_traits@D@_STL@@V?$allocator@D@2@@_STL@@H@_STL@@@2@@_STL@@KAABV?$basic_string@DV?$char_traits@D@_STL@@V?$allocator@D@2@@2@PAU?$_Rb_tree_node@U?$pair@$$CBV?$basic_string@DV?$char_traits@D@_STL@@V?$allocator@D@2@@_STL@@H@_STL@@@2@@Z ENDP ; _STL::_Rb_tree<_STL::basic_string<char,_STL::char_traits<char>,_STL::allocator<char> >,_STL::pair<_STL::basic_string<char,_STL::char_traits<char>,_STL::allocator<char> > const ,int>,_STL::_Select1st<_STL::pair<_STL::basic_string<char,_STL::char_traits<char>,_STL::allocator<char> > const ,int> >,_STL::less<_STL::basic_string<char,_STL::char_traits<char>,_STL::allocator<char> > >,_STL::allocator<_STL::pair<_STL::basic_string<char,_STL::char_traits<char>,_STL::allocator<char> > const ,int> > >::_S_key
_TEXT	ENDS
PUBLIC	??$__copy_ptrs@PAUtagPOINT@@PAU1@@_STL@@YAPAUtagPOINT@@PAU1@00ABU__false_type@0@@Z ; _STL::__copy_ptrs<tagPOINT *,tagPOINT *>
; Function compile flags: /Ogty
; File c:\stlport-4.6.1\stlport\stl\_algobase.h
;	COMDAT ??$__copy_ptrs@PAUtagPOINT@@PAU1@@_STL@@YAPAUtagPOINT@@PAU1@00ABU__false_type@0@@Z
_TEXT	SEGMENT
___first$ = 8						; size = 4
___last$ = 12						; size = 4
___result$ = 16						; size = 4
___formal$ = 20						; size = 4
??$__copy_ptrs@PAUtagPOINT@@PAU1@@_STL@@YAPAUtagPOINT@@PAU1@00ABU__false_type@0@@Z PROC NEAR ; _STL::__copy_ptrs<tagPOINT *,tagPOINT *>, COMDAT

; 189  :   return __copy(__first, __last, __result, 
; 190  :                 _STLP_ITERATOR_CATEGORY(__first, _InputIter), 
; 191  :                 _STLP_DISTANCE_TYPE(__first, _InputIter));

  00000	8b 54 24 08	 mov	 edx, DWORD PTR ___last$[esp-4]
  00004	8b 4c 24 04	 mov	 ecx, DWORD PTR ___first$[esp-4]
  00008	8b 44 24 0c	 mov	 eax, DWORD PTR ___result$[esp-4]
  0000c	2b d1		 sub	 edx, ecx
  0000e	c1 fa 03	 sar	 edx, 3
  00011	85 d2		 test	 edx, edx
  00013	7e 1e		 jle	 SHORT $L78578
  00015	2b c8		 sub	 ecx, eax
  00017	56		 push	 esi
  00018	eb 06 8d 9b 00
	00 00 00	 npad	 8
$L78576:
  00020	8b 34 01	 mov	 esi, DWORD PTR [ecx+eax]
  00023	89 30		 mov	 DWORD PTR [eax], esi
  00025	8b 74 01 04	 mov	 esi, DWORD PTR [ecx+eax+4]
  00029	89 70 04	 mov	 DWORD PTR [eax+4], esi
  0002c	83 c0 08	 add	 eax, 8
  0002f	4a		 dec	 edx
  00030	75 ee		 jne	 SHORT $L78576
  00032	5e		 pop	 esi
$L78578:

; 192  : }

  00033	c3		 ret	 0
??$__copy_ptrs@PAUtagPOINT@@PAU1@@_STL@@YAPAUtagPOINT@@PAU1@00ABU__false_type@0@@Z ENDP ; _STL::__copy_ptrs<tagPOINT *,tagPOINT *>
_TEXT	ENDS
PUBLIC	??$__copy_ptrs@PAUtagRECT@@PAU1@@_STL@@YAPAUtagRECT@@PAU1@00ABU__false_type@0@@Z ; _STL::__copy_ptrs<tagRECT *,tagRECT *>
; Function compile flags: /Ogty
;	COMDAT ??$__copy_ptrs@PAUtagRECT@@PAU1@@_STL@@YAPAUtagRECT@@PAU1@00ABU__false_type@0@@Z
_TEXT	SEGMENT
$T78588 = -1						; size = 1
___first$ = 8						; size = 4
___last$ = 12						; size = 4
___result$ = 16						; size = 4
___formal$ = 20						; size = 4
??$__copy_ptrs@PAUtagRECT@@PAU1@@_STL@@YAPAUtagRECT@@PAU1@00ABU__false_type@0@@Z PROC NEAR ; _STL::__copy_ptrs<tagRECT *,tagRECT *>, COMDAT

; 188  : inline _OutputIter __copy_ptrs(_InputIter __first, _InputIter __last, _OutputIter __result, const __false_type&) {

  00000	51		 push	 ecx

; 189  :   return __copy(__first, __last, __result, 
; 190  :                 _STLP_ITERATOR_CATEGORY(__first, _InputIter), 
; 191  :                 _STLP_DISTANCE_TYPE(__first, _InputIter));

  00001	8b 4c 24 10	 mov	 ecx, DWORD PTR ___result$[esp]
  00005	8b 54 24 0c	 mov	 edx, DWORD PTR ___last$[esp]
  00009	6a 00		 push	 0
  0000b	8d 44 24 07	 lea	 eax, DWORD PTR $T78588[esp+8]
  0000f	50		 push	 eax
  00010	8b 44 24 10	 mov	 eax, DWORD PTR ___first$[esp+8]
  00014	51		 push	 ecx
  00015	52		 push	 edx
  00016	50		 push	 eax
  00017	e8 00 00 00 00	 call	 ??$__copy@PAUtagRECT@@PAU1@H@_STL@@YAPAUtagRECT@@PAU1@00ABUrandom_access_iterator_tag@0@PAH@Z ; _STL::__copy<tagRECT *,tagRECT *,int>

; 192  : }

  0001c	83 c4 18	 add	 esp, 24			; 00000018H
  0001f	c3		 ret	 0
??$__copy_ptrs@PAUtagRECT@@PAU1@@_STL@@YAPAUtagRECT@@PAU1@00ABU__false_type@0@@Z ENDP ; _STL::__copy_ptrs<tagRECT *,tagRECT *>
_TEXT	ENDS
PUBLIC	?get_allocator@?$basic_string@DV?$char_traits@D@_STL@@V?$allocator@D@2@@_STL@@QBE?AV?$allocator@D@2@XZ ; _STL::basic_string<char,_STL::char_traits<char>,_STL::allocator<char> >::get_allocator
; Function compile flags: /Ogty
; File c:\stlport-4.6.1\stlport\stl\_string.h
;	COMDAT ?get_allocator@?$basic_string@DV?$char_traits@D@_STL@@V?$allocator@D@2@@_STL@@QBE?AV?$allocator@D@2@XZ
_TEXT	SEGMENT
___$ReturnUdt$ = 8					; size = 4
?get_allocator@?$basic_string@DV?$char_traits@D@_STL@@V?$allocator@D@2@@_STL@@QBE?AV?$allocator@D@2@XZ PROC NEAR ; _STL::basic_string<char,_STL::char_traits<char>,_STL::allocator<char> >::get_allocator, COMDAT
; _this$ = ecx

; 216  :     return _STLP_CONVERT_ALLOCATOR((const allocator_type&)this->_M_end_of_storage, _CharT);

  00000	8b 44 24 04	 mov	 eax, DWORD PTR ___$ReturnUdt$[esp-4]

; 217  :   }

  00004	c2 04 00	 ret	 4
?get_allocator@?$basic_string@DV?$char_traits@D@_STL@@V?$allocator@D@2@@_STL@@QBE?AV?$allocator@D@2@XZ ENDP ; _STL::basic_string<char,_STL::char_traits<char>,_STL::allocator<char> >::get_allocator
_TEXT	ENDS
PUBLIC	?_M_terminate_string@?$basic_string@DV?$char_traits@D@_STL@@V?$allocator@D@2@@_STL@@AAEXXZ ; _STL::basic_string<char,_STL::char_traits<char>,_STL::allocator<char> >::_M_terminate_string
; Function compile flags: /Ogty
;	COMDAT ?_M_terminate_string@?$basic_string@DV?$char_traits@D@_STL@@V?$allocator@D@2@@_STL@@AAEXXZ
_TEXT	SEGMENT
?_M_terminate_string@?$basic_string@DV?$char_traits@D@_STL@@V?$allocator@D@2@@_STL@@AAEXXZ PROC NEAR ; _STL::basic_string<char,_STL::char_traits<char>,_STL::allocator<char> >::_M_terminate_string, COMDAT
; _this$ = ecx

; 355  :     _M_terminate_string_aux(_Char_Is_Integral());

  00000	8b 41 04	 mov	 eax, DWORD PTR [ecx+4]
  00003	c6 00 00	 mov	 BYTE PTR [eax], 0

; 356  :   }

  00006	c3		 ret	 0
?_M_terminate_string@?$basic_string@DV?$char_traits@D@_STL@@V?$allocator@D@2@@_STL@@AAEXXZ ENDP ; _STL::basic_string<char,_STL::char_traits<char>,_STL::allocator<char> >::_M_terminate_string
_TEXT	ENDS
PUBLIC	?_M_compare@?$basic_string@DV?$char_traits@D@_STL@@V?$allocator@D@2@@_STL@@SAHPBD000@Z ; _STL::basic_string<char,_STL::char_traits<char>,_STL::allocator<char> >::_M_compare
; Function compile flags: /Ogty
;	COMDAT ?_M_compare@?$basic_string@DV?$char_traits@D@_STL@@V?$allocator@D@2@@_STL@@SAHPBD000@Z
_TEXT	SEGMENT
___n1$ = 8						; size = 4
___f1$ = 8						; size = 4
___n2$ = 12						; size = 4
___l1$ = 12						; size = 4
___f2$ = 16						; size = 4
___l2$ = 20						; size = 4
?_M_compare@?$basic_string@DV?$char_traits@D@_STL@@V?$allocator@D@2@@_STL@@SAHPBD000@Z PROC NEAR ; _STL::basic_string<char,_STL::char_traits<char>,_STL::allocator<char> >::_M_compare, COMDAT

; 1214 :     const ptrdiff_t __n1 = __l1 - __f1;

  00000	8b 54 24 08	 mov	 edx, DWORD PTR ___l1$[esp-4]
  00004	53		 push	 ebx

; 1215 :     const ptrdiff_t __n2 = __l2 - __f2;

  00005	8b 5c 24 14	 mov	 ebx, DWORD PTR ___l2$[esp]
  00009	56		 push	 esi
  0000a	8b 74 24 0c	 mov	 esi, DWORD PTR ___f1$[esp+4]
  0000e	57		 push	 edi
  0000f	8b 7c 24 18	 mov	 edi, DWORD PTR ___f2$[esp+8]
  00013	2b d6		 sub	 edx, esi
  00015	2b df		 sub	 ebx, edi

; 1216 :     const int cmp = _Traits::compare(__f1, __f2, (min) (__n1, __n2));

  00017	3b da		 cmp	 ebx, edx
  00019	89 54 24 10	 mov	 DWORD PTR ___n1$[esp+8], edx
  0001d	89 5c 24 14	 mov	 DWORD PTR ___n2$[esp+8], ebx
  00021	8d 44 24 14	 lea	 eax, DWORD PTR ___n2$[esp+8]
  00025	7c 04		 jl	 SHORT $L78613
  00027	8d 44 24 10	 lea	 eax, DWORD PTR ___n1$[esp+8]
$L78613:
  0002b	8b 08		 mov	 ecx, DWORD PTR [eax]
  0002d	33 c0		 xor	 eax, eax
  0002f	f3 a6		 repe cmpsb
  00031	74 05		 je	 SHORT $L78619
  00033	1b c0		 sbb	 eax, eax
  00035	83 d8 ff	 sbb	 eax, -1
$L78619:

; 1217 :     return cmp != 0 ? cmp : (__n1 < __n2 ? -1 : (__n1 > __n2 ? 1 : 0));

  00038	85 c0		 test	 eax, eax
  0003a	75 12		 jne	 SHORT $L78603
  0003c	3b d3		 cmp	 edx, ebx
  0003e	7d 07		 jge	 SHORT $L78602
  00040	5f		 pop	 edi
  00041	5e		 pop	 esi
  00042	83 c8 ff	 or	 eax, -1
  00045	5b		 pop	 ebx

; 1218 :   }

  00046	c3		 ret	 0
$L78602:

; 1217 :     return cmp != 0 ? cmp : (__n1 < __n2 ? -1 : (__n1 > __n2 ? 1 : 0));

  00047	33 c0		 xor	 eax, eax
  00049	3b d3		 cmp	 edx, ebx
  0004b	0f 9f c0	 setg	 al
$L78603:
  0004e	5f		 pop	 edi
  0004f	5e		 pop	 esi
  00050	5b		 pop	 ebx

; 1218 :   }

  00051	c3		 ret	 0
?_M_compare@?$basic_string@DV?$char_traits@D@_STL@@V?$allocator@D@2@@_STL@@SAHPBD000@Z ENDP ; _STL::basic_string<char,_STL::char_traits<char>,_STL::allocator<char> >::_M_compare
_TEXT	ENDS
PUBLIC	??0?$_STLP_alloc_proxy@PADDV?$allocator@D@_STL@@@_STL@@QAE@ABV?$allocator@D@1@PAD@Z ; _STL::_STLP_alloc_proxy<char *,char,_STL::allocator<char> >::_STLP_alloc_proxy<char *,char,_STL::allocator<char> >
; Function compile flags: /Ogty
; File c:\stlport-4.6.1\stlport\stl\_alloc.h
;	COMDAT ??0?$_STLP_alloc_proxy@PADDV?$allocator@D@_STL@@@_STL@@QAE@ABV?$allocator@D@1@PAD@Z
_TEXT	SEGMENT
___a$ = 8						; size = 4
___p$ = 12						; size = 4
??0?$_STLP_alloc_proxy@PADDV?$allocator@D@_STL@@@_STL@@QAE@ABV?$allocator@D@1@PAD@Z PROC NEAR ; _STL::_STLP_alloc_proxy<char *,char,_STL::allocator<char> >::_STLP_alloc_proxy<char *,char,_STL::allocator<char> >, COMDAT
; _this$ = ecx

; 487  :   inline _STLP_alloc_proxy(const _MaybeReboundAlloc& __a, _Value __p) : _MaybeReboundAlloc(__a), _M_data(__p) {}

  00000	8b c1		 mov	 eax, ecx
  00002	8b 4c 24 08	 mov	 ecx, DWORD PTR ___p$[esp-4]
  00006	89 08		 mov	 DWORD PTR [eax], ecx
  00008	c2 08 00	 ret	 8
??0?$_STLP_alloc_proxy@PADDV?$allocator@D@_STL@@@_STL@@QAE@ABV?$allocator@D@1@PAD@Z ENDP ; _STL::_STLP_alloc_proxy<char *,char,_STL::allocator<char> >::_STLP_alloc_proxy<char *,char,_STL::allocator<char> >
_TEXT	ENDS
PUBLIC	??$?8DV?$char_traits@D@_STL@@V?$allocator@D@1@@_STL@@YA_NABV?$basic_string@DV?$char_traits@D@_STL@@V?$allocator@D@2@@0@PBD@Z ; _STL::operator==<char,_STL::char_traits<char>,_STL::allocator<char> >
; Function compile flags: /Ogty
; File c:\stlport-4.6.1\stlport\stl\_string.h
;	COMDAT ??$?8DV?$char_traits@D@_STL@@V?$allocator@D@1@@_STL@@YA_NABV?$basic_string@DV?$char_traits@D@_STL@@V?$allocator@D@2@@0@PBD@Z
_TEXT	SEGMENT
___x$ = 8						; size = 4
___s$ = 12						; size = 4
??$?8DV?$char_traits@D@_STL@@V?$allocator@D@1@@_STL@@YA_NABV?$basic_string@DV?$char_traits@D@_STL@@V?$allocator@D@2@@0@PBD@Z PROC NEAR ; _STL::operator==<char,_STL::char_traits<char>,_STL::allocator<char> >, COMDAT

; 1342 :            const _CharT* __s) {

  00000	56		 push	 esi
  00001	57		 push	 edi

; 1343 :   _STLP_FIX_LITERAL_BUG(__s)
; 1344 :   size_t __n = _Traits::length(__s);

  00002	8b 7c 24 10	 mov	 edi, DWORD PTR ___s$[esp+4]
  00006	8b c7		 mov	 eax, edi
  00008	8d 50 01	 lea	 edx, DWORD PTR [eax+1]
  0000b	eb 03 8d 49 00	 npad	 5
$L78641:
  00010	8a 08		 mov	 cl, BYTE PTR [eax]
  00012	40		 inc	 eax
  00013	84 c9		 test	 cl, cl
  00015	75 f9		 jne	 SHORT $L78641

; 1345 :   return __x.size() == __n && _Traits::compare(__x.data(), __s, __n) == 0;

  00017	8b 4c 24 0c	 mov	 ecx, DWORD PTR ___x$[esp+4]
  0001b	8b 31		 mov	 esi, DWORD PTR [ecx]
  0001d	8b 49 04	 mov	 ecx, DWORD PTR [ecx+4]
  00020	2b c2		 sub	 eax, edx
  00022	2b ce		 sub	 ecx, esi
  00024	3b c8		 cmp	 ecx, eax
  00026	75 10		 jne	 SHORT $L78626
  00028	8b c8		 mov	 ecx, eax
  0002a	33 d2		 xor	 edx, edx
  0002c	f3 a6		 repe cmpsb
  0002e	75 08		 jne	 SHORT $L78626
  00030	5f		 pop	 edi
  00031	b8 01 00 00 00	 mov	 eax, 1
  00036	5e		 pop	 esi

; 1346 : }

  00037	c3		 ret	 0
$L78626:
  00038	5f		 pop	 edi

; 1345 :   return __x.size() == __n && _Traits::compare(__x.data(), __s, __n) == 0;

  00039	33 c0		 xor	 eax, eax
  0003b	5e		 pop	 esi

; 1346 : }

  0003c	c3		 ret	 0
??$?8DV?$char_traits@D@_STL@@V?$allocator@D@1@@_STL@@YA_NABV?$basic_string@DV?$char_traits@D@_STL@@V?$allocator@D@2@@0@PBD@Z ENDP ; _STL::operator==<char,_STL::char_traits<char>,_STL::allocator<char> >
_TEXT	ENDS
PUBLIC	??$__destroy_aux@PAUtagPOINT@@@_STL@@YAXPAUtagPOINT@@0ABU__false_type@0@@Z ; _STL::__destroy_aux<tagPOINT *>
; Function compile flags: /Ogty
; File c:\stlport-4.6.1\stlport\stl\_construct.h
;	COMDAT ??$__destroy_aux@PAUtagPOINT@@@_STL@@YAXPAUtagPOINT@@0ABU__false_type@0@@Z
_TEXT	SEGMENT
___first$ = 8						; size = 4
___last$ = 12						; size = 4
___formal$ = 16						; size = 4
??$__destroy_aux@PAUtagPOINT@@@_STL@@YAXPAUtagPOINT@@0ABU__false_type@0@@Z PROC NEAR ; _STL::__destroy_aux<tagPOINT *>, COMDAT

; 123  :   for ( ; __first != __last; ++__first)
; 124  :     _STLP_STD::_Destroy(&*__first);
; 125  : }

  00000	c3		 ret	 0
??$__destroy_aux@PAUtagPOINT@@@_STL@@YAXPAUtagPOINT@@0ABU__false_type@0@@Z ENDP ; _STL::__destroy_aux<tagPOINT *>
_TEXT	ENDS
PUBLIC	??$__destroy_aux@PAUtagRECT@@@_STL@@YAXPAUtagRECT@@0ABU__false_type@0@@Z ; _STL::__destroy_aux<tagRECT *>
; Function compile flags: /Ogty
;	COMDAT ??$__destroy_aux@PAUtagRECT@@@_STL@@YAXPAUtagRECT@@0ABU__false_type@0@@Z
_TEXT	SEGMENT
___first$ = 8						; size = 4
___last$ = 12						; size = 4
___formal$ = 16						; size = 4
??$__destroy_aux@PAUtagRECT@@@_STL@@YAXPAUtagRECT@@0ABU__false_type@0@@Z PROC NEAR ; _STL::__destroy_aux<tagRECT *>, COMDAT

; 123  :   for ( ; __first != __last; ++__first)
; 124  :     _STLP_STD::_Destroy(&*__first);
; 125  : }

  00000	c3		 ret	 0
??$__destroy_aux@PAUtagRECT@@@_STL@@YAXPAUtagRECT@@0ABU__false_type@0@@Z ENDP ; _STL::__destroy_aux<tagRECT *>
_TEXT	ENDS
PUBLIC	??$distance@PBD@_STL@@YAHABQBD0@Z		; _STL::distance<char const *>
; Function compile flags: /Ogty
; File c:\stlport-4.6.1\stlport\stl\_iterator_base.h
;	COMDAT ??$distance@PBD@_STL@@YAHABQBD0@Z
_TEXT	SEGMENT
___first$ = 8						; size = 4
___last$ = 12						; size = 4
??$distance@PBD@_STL@@YAHABQBD0@Z PROC NEAR		; _STL::distance<char const *>, COMDAT

; 369  :   return __distance(__first, __last, _STLP_ITERATOR_CATEGORY(__first, _InputIterator));  

  00000	8b 44 24 08	 mov	 eax, DWORD PTR ___last$[esp-4]
  00004	8b 4c 24 04	 mov	 ecx, DWORD PTR ___first$[esp-4]
  00008	8b 00		 mov	 eax, DWORD PTR [eax]
  0000a	2b 01		 sub	 eax, DWORD PTR [ecx]

; 370  : }

  0000c	c3		 ret	 0
??$distance@PBD@_STL@@YAHABQBD0@Z ENDP			; _STL::distance<char const *>
_TEXT	ENDS
PUBLIC	?_M_allocate_block@?$_String_base@DV?$allocator@D@_STL@@@_STL@@QAEXI@Z ; _STL::_String_base<char,_STL::allocator<char> >::_M_allocate_block
; Function compile flags: /Ogty
; File c:\stlport-4.6.1\stlport\stl\_string.c
;	COMDAT ?_M_allocate_block@?$_String_base@DV?$allocator@D@_STL@@@_STL@@QAEXI@Z
_TEXT	SEGMENT
___n$ = 8						; size = 4
?_M_allocate_block@?$_String_base@DV?$allocator@D@_STL@@@_STL@@QAEXI@Z PROC NEAR ; _STL::_String_base<char,_STL::allocator<char> >::_M_allocate_block, COMDAT
; _this$ = ecx

; 530  : template <class _Tp, class _Alloc> void _String_base<_Tp, _Alloc>::_M_allocate_block(size_t __n) {  

  00000	56		 push	 esi

; 531  :   if ((__n <= (max_size()+1)) && (__n>0)){ 

  00001	8b 74 24 08	 mov	 esi, DWORD PTR ___n$[esp]
  00005	83 fe ff	 cmp	 esi, -1
  00008	57		 push	 edi
  00009	8b f9		 mov	 edi, ecx
  0000b	77 3b		 ja	 SHORT $L77609
  0000d	85 f6		 test	 esi, esi
  0000f	76 37		 jbe	 SHORT $L77609

; 532  :     _M_start  = _M_end_of_storage.allocate(__n); 

  00011	81 fe 80 00 00
	00		 cmp	 esi, 128		; 00000080H
  00017	56		 push	 esi
  00018	76 17		 jbe	 SHORT $L78692
  0001a	e8 00 00 00 00	 call	 ??2@YAPAXI@Z		; operator new
  0001f	83 c4 04	 add	 esp, 4
  00022	89 07		 mov	 DWORD PTR [edi], eax

; 533  :     _M_finish = _M_start; 

  00024	89 47 04	 mov	 DWORD PTR [edi+4], eax

; 534  :     _M_end_of_storage._M_data = _M_start + __n; 

  00027	03 c6		 add	 eax, esi
  00029	89 47 08	 mov	 DWORD PTR [edi+8], eax
  0002c	5f		 pop	 edi
  0002d	5e		 pop	 esi

; 538  : } 

  0002e	c2 04 00	 ret	 4

; 532  :     _M_start  = _M_end_of_storage.allocate(__n); 

$L78692:
  00031	e8 00 00 00 00	 call	 ?_M_allocate@?$__node_alloc@$00$0A@@_STL@@CAPAXI@Z ; _STL::__node_alloc<1,0>::_M_allocate
  00036	83 c4 04	 add	 esp, 4
  00039	89 07		 mov	 DWORD PTR [edi], eax

; 533  :     _M_finish = _M_start; 

  0003b	89 47 04	 mov	 DWORD PTR [edi+4], eax

; 534  :     _M_end_of_storage._M_data = _M_start + __n; 

  0003e	03 c6		 add	 eax, esi
  00040	89 47 08	 mov	 DWORD PTR [edi+8], eax
  00043	5f		 pop	 edi
  00044	5e		 pop	 esi

; 538  : } 

  00045	c2 04 00	 ret	 4
$L77609:

; 535  :   } 
; 536  :     else 
; 537  :       _M_throw_length_error(); 

  00048	68 00 00 00 00	 push	 OFFSET FLAT:??_C@_0N@GOPDCEEB@basic_string?$AA@
  0004d	e8 00 00 00 00	 call	 ?__stl_throw_length_error@_STL@@YAXPBD@Z ; _STL::__stl_throw_length_error
  00052	83 c4 04	 add	 esp, 4
  00055	5f		 pop	 edi
  00056	5e		 pop	 esi

; 538  : } 

  00057	c2 04 00	 ret	 4
?_M_allocate_block@?$_String_base@DV?$allocator@D@_STL@@@_STL@@QAEXI@Z ENDP ; _STL::_String_base<char,_STL::allocator<char> >::_M_allocate_block
_TEXT	ENDS
PUBLIC	??$distance@PAD@_STL@@YAHABQAD0@Z		; _STL::distance<char *>
; Function compile flags: /Ogty
; File c:\stlport-4.6.1\stlport\stl\_iterator_base.h
;	COMDAT ??$distance@PAD@_STL@@YAHABQAD0@Z
_TEXT	SEGMENT
___first$ = 8						; size = 4
___last$ = 12						; size = 4
??$distance@PAD@_STL@@YAHABQAD0@Z PROC NEAR		; _STL::distance<char *>, COMDAT

; 369  :   return __distance(__first, __last, _STLP_ITERATOR_CATEGORY(__first, _InputIterator));  

  00000	8b 44 24 08	 mov	 eax, DWORD PTR ___last$[esp-4]
  00004	8b 4c 24 04	 mov	 ecx, DWORD PTR ___first$[esp-4]
  00008	8b 00		 mov	 eax, DWORD PTR [eax]
  0000a	2b 01		 sub	 eax, DWORD PTR [ecx]

; 370  : }

  0000c	c3		 ret	 0
??$distance@PAD@_STL@@YAHABQAD0@Z ENDP			; _STL::distance<char *>
_TEXT	ENDS
PUBLIC	??$__copy_aux@PADPAD@_STL@@YAPADPAD00ABU__true_type@0@@Z ; _STL::__copy_aux<char *,char *>
; Function compile flags: /Ogty
; File c:\stlport-4.6.1\stlport\stl\_algobase.h
;	COMDAT ??$__copy_aux@PADPAD@_STL@@YAPADPAD00ABU__true_type@0@@Z
_TEXT	SEGMENT
___first$ = 8						; size = 4
___last$ = 12						; size = 4
___result$ = 16						; size = 4
___formal$ = 20						; size = 4
??$__copy_aux@PADPAD@_STL@@YAPADPAD00ABU__true_type@0@@Z PROC NEAR ; _STL::__copy_aux<char *,char *>, COMDAT

; 202  :   return __copy_ptrs(__first, __last, __result, 
; 203  :                      _IsOKToMemCpy(_STLP_VALUE_TYPE(__first, _InputIter), 
; 204  :                                    _STLP_VALUE_TYPE(__result, _OutputIter))._Ret());

  00000	8b 44 24 04	 mov	 eax, DWORD PTR ___first$[esp-4]
  00004	56		 push	 esi
  00005	8b 74 24 0c	 mov	 esi, DWORD PTR ___last$[esp]
  00009	3b f0		 cmp	 esi, eax
  0000b	75 06		 jne	 SHORT $L78734
  0000d	8b 44 24 10	 mov	 eax, DWORD PTR ___result$[esp]
  00011	5e		 pop	 esi

; 205  : }

  00012	c3		 ret	 0

; 202  :   return __copy_ptrs(__first, __last, __result, 
; 203  :                      _IsOKToMemCpy(_STLP_VALUE_TYPE(__first, _InputIter), 
; 204  :                                    _STLP_VALUE_TYPE(__result, _OutputIter))._Ret());

$L78734:
  00013	2b f0		 sub	 esi, eax
  00015	56		 push	 esi
  00016	50		 push	 eax
  00017	8b 44 24 18	 mov	 eax, DWORD PTR ___result$[esp+8]
  0001b	50		 push	 eax
  0001c	e8 00 00 00 00	 call	 _memmove
  00021	83 c4 0c	 add	 esp, 12			; 0000000cH
  00024	03 c6		 add	 eax, esi
  00026	5e		 pop	 esi

; 205  : }

  00027	c3		 ret	 0
??$__copy_aux@PADPAD@_STL@@YAPADPAD00ABU__true_type@0@@Z ENDP ; _STL::__copy_aux<char *,char *>
_TEXT	ENDS
PUBLIC	??1?$_STLP_alloc_proxy@PADDV?$allocator@D@_STL@@@_STL@@QAE@XZ ; _STL::_STLP_alloc_proxy<char *,char,_STL::allocator<char> >::~_STLP_alloc_proxy<char *,char,_STL::allocator<char> >
; Function compile flags: /Ogty
;	COMDAT ??1?$_STLP_alloc_proxy@PADDV?$allocator@D@_STL@@@_STL@@QAE@XZ
_TEXT	SEGMENT
??1?$_STLP_alloc_proxy@PADDV?$allocator@D@_STL@@@_STL@@QAE@XZ PROC NEAR ; _STL::_STLP_alloc_proxy<char *,char,_STL::allocator<char> >::~_STLP_alloc_proxy<char *,char,_STL::allocator<char> >, COMDAT
; _this$ = ecx
  00000	c3		 ret	 0
??1?$_STLP_alloc_proxy@PADDV?$allocator@D@_STL@@@_STL@@QAE@XZ ENDP ; _STL::_STLP_alloc_proxy<char *,char,_STL::allocator<char> >::~_STLP_alloc_proxy<char *,char,_STL::allocator<char> >
_TEXT	ENDS
PUBLIC	?deallocate@?$allocator@D@_STL@@QAEXPADI@Z	; _STL::allocator<char>::deallocate
; Function compile flags: /Ogty
; File c:\stlport-4.6.1\stlport\stl\_alloc.h
;	COMDAT ?deallocate@?$allocator@D@_STL@@QAEXPADI@Z
_TEXT	SEGMENT
___p$ = 8						; size = 4
___n$ = 12						; size = 4
?deallocate@?$allocator@D@_STL@@QAEXPADI@Z PROC NEAR	; _STL::allocator<char>::deallocate, COMDAT
; _this$ = ecx

; 359  :     _STLP_ASSERT( (__p == 0) == (__n == 0) )
; 360  :       if (__p != 0) __sgi_alloc::deallocate((void*)__p, __n * sizeof(value_type));

  00000	8b 44 24 04	 mov	 eax, DWORD PTR ___p$[esp-4]
  00004	85 c0		 test	 eax, eax
  00006	74 22		 je	 SHORT $L78752
  00008	8b 4c 24 08	 mov	 ecx, DWORD PTR ___n$[esp-4]
  0000c	81 f9 80 00 00
	00		 cmp	 ecx, 128		; 00000080H
  00012	76 0c		 jbe	 SHORT $L78751
  00014	50		 push	 eax
  00015	e8 00 00 00 00	 call	 ??3@YAXPAX@Z		; operator delete
  0001a	83 c4 04	 add	 esp, 4

; 361  :   }

  0001d	c2 08 00	 ret	 8

; 359  :     _STLP_ASSERT( (__p == 0) == (__n == 0) )
; 360  :       if (__p != 0) __sgi_alloc::deallocate((void*)__p, __n * sizeof(value_type));

$L78751:
  00020	51		 push	 ecx
  00021	50		 push	 eax
  00022	e8 00 00 00 00	 call	 ?_M_deallocate@?$__node_alloc@$00$0A@@_STL@@CAXPAXI@Z ; _STL::__node_alloc<1,0>::_M_deallocate
  00027	83 c4 08	 add	 esp, 8
$L78752:

; 361  :   }

  0002a	c2 08 00	 ret	 8
?deallocate@?$allocator@D@_STL@@QAEXPADI@Z ENDP		; _STL::allocator<char>::deallocate
_TEXT	ENDS
PUBLIC	?end@?$map@V?$basic_string@DV?$char_traits@D@_STL@@V?$allocator@D@2@@_STL@@HU?$less@V?$basic_string@DV?$char_traits@D@_STL@@V?$allocator@D@2@@_STL@@@2@V?$allocator@U?$pair@$$CBV?$basic_string@DV?$char_traits@D@_STL@@V?$allocator@D@2@@_STL@@H@_STL@@@2@@_STL@@QAE?AU?$_Rb_tree_iterator@U?$pair@$$CBV?$basic_string@DV?$char_traits@D@_STL@@V?$allocator@D@2@@_STL@@H@_STL@@U?$_Nonconst_traits@U?$pair@$$CBV?$basic_string@DV?$char_traits@D@_STL@@V?$allocator@D@2@@_STL@@H@_STL@@@2@@2@XZ ; _STL::map<_STL::basic_string<char,_STL::char_traits<char>,_STL::allocator<char> >,int,_STL::less<_STL::basic_string<char,_STL::char_traits<char>,_STL::allocator<char> > >,_STL::allocator<_STL::pair<_STL::basic_string<char,_STL::char_traits<char>,_STL::allocator<char> > const ,int> > >::end
; Function compile flags: /Ogty
; File c:\stlport-4.6.1\stlport\stl\_map.h
;	COMDAT ?end@?$map@V?$basic_string@DV?$char_traits@D@_STL@@V?$allocator@D@2@@_STL@@HU?$less@V?$basic_string@DV?$char_traits@D@_STL@@V?$allocator@D@2@@_STL@@@2@V?$allocator@U?$pair@$$CBV?$basic_string@DV?$char_traits@D@_STL@@V?$allocator@D@2@@_STL@@H@_STL@@@2@@_STL@@QAE?AU?$_Rb_tree_iterator@U?$pair@$$CBV?$basic_string@DV?$char_traits@D@_STL@@V?$allocator@D@2@@_STL@@H@_STL@@U?$_Nonconst_traits@U?$pair@$$CBV?$basic_string@DV?$char_traits@D@_STL@@V?$allocator@D@2@@_STL@@H@_STL@@@2@@2@XZ
_TEXT	SEGMENT
___$ReturnUdt$ = 8					; size = 4
?end@?$map@V?$basic_string@DV?$char_traits@D@_STL@@V?$allocator@D@2@@_STL@@HU?$less@V?$basic_string@DV?$char_traits@D@_STL@@V?$allocator@D@2@@_STL@@@2@V?$allocator@U?$pair@$$CBV?$basic_string@DV?$char_traits@D@_STL@@V?$allocator@D@2@@_STL@@H@_STL@@@2@@_STL@@QAE?AU?$_Rb_tree_iterator@U?$pair@$$CBV?$basic_string@DV?$char_traits@D@_STL@@V?$allocator@D@2@@_STL@@H@_STL@@U?$_Nonconst_traits@U?$pair@$$CBV?$basic_string@DV?$char_traits@D@_STL@@V?$allocator@D@2@@_STL@@H@_STL@@@2@@2@XZ PROC NEAR ; _STL::map<_STL::basic_string<char,_STL::char_traits<char>,_STL::allocator<char> >,int,_STL::less<_STL::basic_string<char,_STL::char_traits<char>,_STL::allocator<char> > >,_STL::allocator<_STL::pair<_STL::basic_string<char,_STL::char_traits<char>,_STL::allocator<char> > const ,int> > >::end, COMDAT
; _this$ = ecx

; 149  :   iterator end() { return _M_t.end(); }

  00000	8b 09		 mov	 ecx, DWORD PTR [ecx]
  00002	8b 44 24 04	 mov	 eax, DWORD PTR ___$ReturnUdt$[esp-4]
  00006	89 08		 mov	 DWORD PTR [eax], ecx
  00008	c2 04 00	 ret	 4
?end@?$map@V?$basic_string@DV?$char_traits@D@_STL@@V?$allocator@D@2@@_STL@@HU?$less@V?$basic_string@DV?$char_traits@D@_STL@@V?$allocator@D@2@@_STL@@@2@V?$allocator@U?$pair@$$CBV?$basic_string@DV?$char_traits@D@_STL@@V?$allocator@D@2@@_STL@@H@_STL@@@2@@_STL@@QAE?AU?$_Rb_tree_iterator@U?$pair@$$CBV?$basic_string@DV?$char_traits@D@_STL@@V?$allocator@D@2@@_STL@@H@_STL@@U?$_Nonconst_traits@U?$pair@$$CBV?$basic_string@DV?$char_traits@D@_STL@@V?$allocator@D@2@@_STL@@H@_STL@@@2@@2@XZ ENDP ; _STL::map<_STL::basic_string<char,_STL::char_traits<char>,_STL::allocator<char> >,int,_STL::less<_STL::basic_string<char,_STL::char_traits<char>,_STL::allocator<char> > >,_STL::allocator<_STL::pair<_STL::basic_string<char,_STL::char_traits<char>,_STL::allocator<char> > const ,int> > >::end
_TEXT	ENDS
PUBLIC	??0?$_Vector_base@UtagPOINT@@V?$allocator@UtagPOINT@@@_STL@@@_STL@@QAE@ABV?$allocator@UtagPOINT@@@1@@Z ; _STL::_Vector_base<tagPOINT,_STL::allocator<tagPOINT> >::_Vector_base<tagPOINT,_STL::allocator<tagPOINT> >
; Function compile flags: /Ogty
; File c:\stlport-4.6.1\stlport\stl\_vector.h
;	COMDAT ??0?$_Vector_base@UtagPOINT@@V?$allocator@UtagPOINT@@@_STL@@@_STL@@QAE@ABV?$allocator@UtagPOINT@@@1@@Z
_TEXT	SEGMENT
___a$ = 8						; size = 4
??0?$_Vector_base@UtagPOINT@@V?$allocator@UtagPOINT@@@_STL@@@_STL@@QAE@ABV?$allocator@UtagPOINT@@@1@@Z PROC NEAR ; _STL::_Vector_base<tagPOINT,_STL::allocator<tagPOINT> >::_Vector_base<tagPOINT,_STL::allocator<tagPOINT> >, COMDAT
; _this$ = ecx

; 72   :     : _M_start(0), _M_finish(0), _M_end_of_storage(__a, 0) {

  00000	8b 44 24 04	 mov	 eax, DWORD PTR ___a$[esp-4]
  00004	56		 push	 esi
  00005	8b f1		 mov	 esi, ecx
  00007	6a 00		 push	 0
  00009	50		 push	 eax
  0000a	8d 4e 08	 lea	 ecx, DWORD PTR [esi+8]
  0000d	c7 06 00 00 00
	00		 mov	 DWORD PTR [esi], 0
  00013	c7 46 04 00 00
	00 00		 mov	 DWORD PTR [esi+4], 0
  0001a	e8 00 00 00 00	 call	 ??0?$_STLP_alloc_proxy@PAUtagPOINT@@U1@V?$allocator@UtagPOINT@@@_STL@@@_STL@@QAE@ABV?$allocator@UtagPOINT@@@1@PAUtagPOINT@@@Z ; _STL::_STLP_alloc_proxy<tagPOINT *,tagPOINT,_STL::allocator<tagPOINT> >::_STLP_alloc_proxy<tagPOINT *,tagPOINT,_STL::allocator<tagPOINT> >

; 73   :   }

  0001f	8b c6		 mov	 eax, esi
  00021	5e		 pop	 esi
  00022	c2 04 00	 ret	 4
??0?$_Vector_base@UtagPOINT@@V?$allocator@UtagPOINT@@@_STL@@@_STL@@QAE@ABV?$allocator@UtagPOINT@@@1@@Z ENDP ; _STL::_Vector_base<tagPOINT,_STL::allocator<tagPOINT> >::_Vector_base<tagPOINT,_STL::allocator<tagPOINT> >
_TEXT	ENDS
PUBLIC	??1?$_Vector_base@UtagPOINT@@V?$allocator@UtagPOINT@@@_STL@@@_STL@@QAE@XZ ; _STL::_Vector_base<tagPOINT,_STL::allocator<tagPOINT> >::~_Vector_base<tagPOINT,_STL::allocator<tagPOINT> >
; Function compile flags: /Ogty
;	COMDAT ??1?$_Vector_base@UtagPOINT@@V?$allocator@UtagPOINT@@@_STL@@@_STL@@QAE@XZ
_TEXT	SEGMENT
??1?$_Vector_base@UtagPOINT@@V?$allocator@UtagPOINT@@@_STL@@@_STL@@QAE@XZ PROC NEAR ; _STL::_Vector_base<tagPOINT,_STL::allocator<tagPOINT> >::~_Vector_base<tagPOINT,_STL::allocator<tagPOINT> >, COMDAT
; _this$ = ecx

; 84   :     if (_M_start !=0) 

  00000	8b 11		 mov	 edx, DWORD PTR [ecx]
  00002	85 d2		 test	 edx, edx
  00004	74 26		 je	 SHORT $L78791

; 85   :     _M_end_of_storage.deallocate(_M_start, _M_end_of_storage._M_data - _M_start); 

  00006	8b 41 08	 mov	 eax, DWORD PTR [ecx+8]
  00009	2b c2		 sub	 eax, edx
  0000b	c1 f8 03	 sar	 eax, 3
  0000e	c1 e0 03	 shl	 eax, 3
  00011	3d 80 00 00 00	 cmp	 eax, 128		; 00000080H
  00016	76 0a		 jbe	 SHORT $L78790
  00018	52		 push	 edx
  00019	e8 00 00 00 00	 call	 ??3@YAXPAX@Z		; operator delete
  0001e	83 c4 04	 add	 esp, 4

; 86   :   }

  00021	c3		 ret	 0

; 85   :     _M_end_of_storage.deallocate(_M_start, _M_end_of_storage._M_data - _M_start); 

$L78790:
  00022	50		 push	 eax
  00023	52		 push	 edx
  00024	e8 00 00 00 00	 call	 ?_M_deallocate@?$__node_alloc@$00$0A@@_STL@@CAXPAXI@Z ; _STL::__node_alloc<1,0>::_M_deallocate
  00029	83 c4 08	 add	 esp, 8
$L78791:

; 86   :   }

  0002c	c3		 ret	 0
??1?$_Vector_base@UtagPOINT@@V?$allocator@UtagPOINT@@@_STL@@@_STL@@QAE@XZ ENDP ; _STL::_Vector_base<tagPOINT,_STL::allocator<tagPOINT> >::~_Vector_base<tagPOINT,_STL::allocator<tagPOINT> >
_TEXT	ENDS
PUBLIC	??0?$_Vector_base@UtagRECT@@V?$allocator@UtagRECT@@@_STL@@@_STL@@QAE@ABV?$allocator@UtagRECT@@@1@@Z ; _STL::_Vector_base<tagRECT,_STL::allocator<tagRECT> >::_Vector_base<tagRECT,_STL::allocator<tagRECT> >
; Function compile flags: /Ogty
;	COMDAT ??0?$_Vector_base@UtagRECT@@V?$allocator@UtagRECT@@@_STL@@@_STL@@QAE@ABV?$allocator@UtagRECT@@@1@@Z
_TEXT	SEGMENT
___a$ = 8						; size = 4
??0?$_Vector_base@UtagRECT@@V?$allocator@UtagRECT@@@_STL@@@_STL@@QAE@ABV?$allocator@UtagRECT@@@1@@Z PROC NEAR ; _STL::_Vector_base<tagRECT,_STL::allocator<tagRECT> >::_Vector_base<tagRECT,_STL::allocator<tagRECT> >, COMDAT
; _this$ = ecx

; 72   :     : _M_start(0), _M_finish(0), _M_end_of_storage(__a, 0) {

  00000	8b 44 24 04	 mov	 eax, DWORD PTR ___a$[esp-4]
  00004	56		 push	 esi
  00005	8b f1		 mov	 esi, ecx
  00007	6a 00		 push	 0
  00009	50		 push	 eax
  0000a	8d 4e 08	 lea	 ecx, DWORD PTR [esi+8]
  0000d	c7 06 00 00 00
	00		 mov	 DWORD PTR [esi], 0
  00013	c7 46 04 00 00
	00 00		 mov	 DWORD PTR [esi+4], 0
  0001a	e8 00 00 00 00	 call	 ??0?$_STLP_alloc_proxy@PAUtagRECT@@U1@V?$allocator@UtagRECT@@@_STL@@@_STL@@QAE@ABV?$allocator@UtagRECT@@@1@PAUtagRECT@@@Z ; _STL::_STLP_alloc_proxy<tagRECT *,tagRECT,_STL::allocator<tagRECT> >::_STLP_alloc_proxy<tagRECT *,tagRECT,_STL::allocator<tagRECT> >

; 73   :   }

  0001f	8b c6		 mov	 eax, esi
  00021	5e		 pop	 esi
  00022	c2 04 00	 ret	 4
??0?$_Vector_base@UtagRECT@@V?$allocator@UtagRECT@@@_STL@@@_STL@@QAE@ABV?$allocator@UtagRECT@@@1@@Z ENDP ; _STL::_Vector_base<tagRECT,_STL::allocator<tagRECT> >::_Vector_base<tagRECT,_STL::allocator<tagRECT> >
_TEXT	ENDS
PUBLIC	??1?$_Vector_base@UtagRECT@@V?$allocator@UtagRECT@@@_STL@@@_STL@@QAE@XZ ; _STL::_Vector_base<tagRECT,_STL::allocator<tagRECT> >::~_Vector_base<tagRECT,_STL::allocator<tagRECT> >
; Function compile flags: /Ogty
;	COMDAT ??1?$_Vector_base@UtagRECT@@V?$allocator@UtagRECT@@@_STL@@@_STL@@QAE@XZ
_TEXT	SEGMENT
??1?$_Vector_base@UtagRECT@@V?$allocator@UtagRECT@@@_STL@@@_STL@@QAE@XZ PROC NEAR ; _STL::_Vector_base<tagRECT,_STL::allocator<tagRECT> >::~_Vector_base<tagRECT,_STL::allocator<tagRECT> >, COMDAT
; _this$ = ecx

; 84   :     if (_M_start !=0) 

  00000	8b 11		 mov	 edx, DWORD PTR [ecx]
  00002	85 d2		 test	 edx, edx
  00004	74 26		 je	 SHORT $L78820

; 85   :     _M_end_of_storage.deallocate(_M_start, _M_end_of_storage._M_data - _M_start); 

  00006	8b 41 08	 mov	 eax, DWORD PTR [ecx+8]
  00009	2b c2		 sub	 eax, edx
  0000b	c1 f8 04	 sar	 eax, 4
  0000e	c1 e0 04	 shl	 eax, 4
  00011	3d 80 00 00 00	 cmp	 eax, 128		; 00000080H
  00016	76 0a		 jbe	 SHORT $L78819
  00018	52		 push	 edx
  00019	e8 00 00 00 00	 call	 ??3@YAXPAX@Z		; operator delete
  0001e	83 c4 04	 add	 esp, 4

; 86   :   }

  00021	c3		 ret	 0

; 85   :     _M_end_of_storage.deallocate(_M_start, _M_end_of_storage._M_data - _M_start); 

$L78819:
  00022	50		 push	 eax
  00023	52		 push	 edx
  00024	e8 00 00 00 00	 call	 ?_M_deallocate@?$__node_alloc@$00$0A@@_STL@@CAXPAXI@Z ; _STL::__node_alloc<1,0>::_M_deallocate
  00029	83 c4 08	 add	 esp, 8
$L78820:

; 86   :   }

  0002c	c3		 ret	 0
??1?$_Vector_base@UtagRECT@@V?$allocator@UtagRECT@@@_STL@@@_STL@@QAE@XZ ENDP ; _STL::_Vector_base<tagRECT,_STL::allocator<tagRECT> >::~_Vector_base<tagRECT,_STL::allocator<tagRECT> >
_TEXT	ENDS
PUBLIC	??1?$_Rb_tree_base@U?$pair@$$CBV?$basic_string@DV?$char_traits@D@_STL@@V?$allocator@D@2@@_STL@@H@_STL@@V?$allocator@U?$pair@$$CBV?$basic_string@DV?$char_traits@D@_STL@@V?$allocator@D@2@@_STL@@H@_STL@@@2@@_STL@@QAE@XZ ; _STL::_Rb_tree_base<_STL::pair<_STL::basic_string<char,_STL::char_traits<char>,_STL::allocator<char> > const ,int>,_STL::allocator<_STL::pair<_STL::basic_string<char,_STL::char_traits<char>,_STL::allocator<char> > const ,int> > >::~_Rb_tree_base<_STL::pair<_STL::basic_string<char,_STL::char_traits<char>,_STL::allocator<char> > const ,int>,_STL::allocator<_STL::pair<_STL::basic_string<char,_STL::char_traits<char>,_STL::allocator<char> > const ,int> > >
; Function compile flags: /Ogty
; File c:\stlport-4.6.1\stlport\stl\_tree.h
;	COMDAT ??1?$_Rb_tree_base@U?$pair@$$CBV?$basic_string@DV?$char_traits@D@_STL@@V?$allocator@D@2@@_STL@@H@_STL@@V?$allocator@U?$pair@$$CBV?$basic_string@DV?$char_traits@D@_STL@@V?$allocator@D@2@@_STL@@H@_STL@@@2@@_STL@@QAE@XZ
_TEXT	SEGMENT
??1?$_Rb_tree_base@U?$pair@$$CBV?$basic_string@DV?$char_traits@D@_STL@@V?$allocator@D@2@@_STL@@H@_STL@@V?$allocator@U?$pair@$$CBV?$basic_string@DV?$char_traits@D@_STL@@V?$allocator@D@2@@_STL@@H@_STL@@@2@@_STL@@QAE@XZ PROC NEAR ; _STL::_Rb_tree_base<_STL::pair<_STL::basic_string<char,_STL::char_traits<char>,_STL::allocator<char> > const ,int>,_STL::allocator<_STL::pair<_STL::basic_string<char,_STL::char_traits<char>,_STL::allocator<char> > const ,int> > >::~_Rb_tree_base<_STL::pair<_STL::basic_string<char,_STL::char_traits<char>,_STL::allocator<char> > const ,int>,_STL::allocator<_STL::pair<_STL::basic_string<char,_STL::char_traits<char>,_STL::allocator<char> > const ,int> > >, COMDAT
; _this$ = ecx

; 208  :     _M_header.deallocate(_M_header._M_data,1); 

  00000	8b 01		 mov	 eax, DWORD PTR [ecx]
  00002	85 c0		 test	 eax, eax
  00004	74 0b		 je	 SHORT $L78846
  00006	6a 20		 push	 32			; 00000020H
  00008	50		 push	 eax
  00009	e8 00 00 00 00	 call	 ?_M_deallocate@?$__node_alloc@$00$0A@@_STL@@CAXPAXI@Z ; _STL::__node_alloc<1,0>::_M_deallocate
  0000e	83 c4 08	 add	 esp, 8
$L78846:

; 209  :   }

  00011	c3		 ret	 0
??1?$_Rb_tree_base@U?$pair@$$CBV?$basic_string@DV?$char_traits@D@_STL@@V?$allocator@D@2@@_STL@@H@_STL@@V?$allocator@U?$pair@$$CBV?$basic_string@DV?$char_traits@D@_STL@@V?$allocator@D@2@@_STL@@H@_STL@@@2@@_STL@@QAE@XZ ENDP ; _STL::_Rb_tree_base<_STL::pair<_STL::basic_string<char,_STL::char_traits<char>,_STL::allocator<char> > const ,int>,_STL::allocator<_STL::pair<_STL::basic_string<char,_STL::char_traits<char>,_STL::allocator<char> > const ,int> > >::~_Rb_tree_base<_STL::pair<_STL::basic_string<char,_STL::char_traits<char>,_STL::allocator<char> > const ,int>,_STL::allocator<_STL::pair<_STL::basic_string<char,_STL::char_traits<char>,_STL::allocator<char> > const ,int> > >
_TEXT	ENDS
PUBLIC	??0?$_Rb_tree_base@U?$pair@$$CBV?$basic_string@DV?$char_traits@D@_STL@@V?$allocator@D@2@@_STL@@H@_STL@@V?$allocator@U?$pair@$$CBV?$basic_string@DV?$char_traits@D@_STL@@V?$allocator@D@2@@_STL@@H@_STL@@@2@@_STL@@QAE@ABV?$allocator@U?$pair@$$CBV?$basic_string@DV?$char_traits@D@_STL@@V?$allocator@D@2@@_STL@@H@_STL@@@1@@Z ; _STL::_Rb_tree_base<_STL::pair<_STL::basic_string<char,_STL::char_traits<char>,_STL::allocator<char> > const ,int>,_STL::allocator<_STL::pair<_STL::basic_string<char,_STL::char_traits<char>,_STL::allocator<char> > const ,int> > >::_Rb_tree_base<_STL::pair<_STL::basic_string<char,_STL::char_traits<char>,_STL::allocator<char> > const ,int>,_STL::allocator<_STL::pair<_STL::basic_string<char,_STL::char_traits<char>,_STL::allocator<char> > const ,int> > >
; Function compile flags: /Ogty
;	COMDAT ??0?$_Rb_tree_base@U?$pair@$$CBV?$basic_string@DV?$char_traits@D@_STL@@V?$allocator@D@2@@_STL@@H@_STL@@V?$allocator@U?$pair@$$CBV?$basic_string@DV?$char_traits@D@_STL@@V?$allocator@D@2@@_STL@@H@_STL@@@2@@_STL@@QAE@ABV?$allocator@U?$pair@$$CBV?$basic_string@DV?$char_traits@D@_STL@@V?$allocator@D@2@@_STL@@H@_STL@@@1@@Z
_TEXT	SEGMENT
$T78854 = -1						; size = 1
___a$ = 8						; size = 4
??0?$_Rb_tree_base@U?$pair@$$CBV?$basic_string@DV?$char_traits@D@_STL@@V?$allocator@D@2@@_STL@@H@_STL@@V?$allocator@U?$pair@$$CBV?$basic_string@DV?$char_traits@D@_STL@@V?$allocator@D@2@@_STL@@H@_STL@@@2@@_STL@@QAE@ABV?$allocator@U?$pair@$$CBV?$basic_string@DV?$char_traits@D@_STL@@V?$allocator@D@2@@_STL@@H@_STL@@@1@@Z PROC NEAR ; _STL::_Rb_tree_base<_STL::pair<_STL::basic_string<char,_STL::char_traits<char>,_STL::allocator<char> > const ,int>,_STL::allocator<_STL::pair<_STL::basic_string<char,_STL::char_traits<char>,_STL::allocator<char> > const ,int> > >::_Rb_tree_base<_STL::pair<_STL::basic_string<char,_STL::char_traits<char>,_STL::allocator<char> > const ,int>,_STL::allocator<_STL::pair<_STL::basic_string<char,_STL::char_traits<char>,_STL::allocator<char> > const ,int> > >, COMDAT
; _this$ = ecx

; 204  :     _M_header(_STLP_CONVERT_ALLOCATOR(__a, _Node), (_Node*)0) { 

  00000	51		 push	 ecx
  00001	56		 push	 esi
  00002	6a 00		 push	 0
  00004	8d 44 24 0b	 lea	 eax, DWORD PTR $T78854[esp+12]
  00008	50		 push	 eax
  00009	8b f1		 mov	 esi, ecx
  0000b	e8 00 00 00 00	 call	 ??0?$_STLP_alloc_proxy@PAU?$_Rb_tree_node@U?$pair@$$CBV?$basic_string@DV?$char_traits@D@_STL@@V?$allocator@D@2@@_STL@@H@_STL@@@_STL@@U12@V?$allocator@U?$_Rb_tree_node@U?$pair@$$CBV?$basic_string@DV?$char_traits@D@_STL@@V?$allocator@D@2@@_STL@@H@_STL@@@_STL@@@2@@_STL@@QAE@ABV?$allocator@U?$_Rb_tree_node@U?$pair@$$CBV?$basic_string@DV?$char_traits@D@_STL@@V?$allocator@D@2@@_STL@@H@_STL@@@_STL@@@1@PAU?$_Rb_tree_node@U?$pair@$$CBV?$basic_string@DV?$char_traits@D@_STL@@V?$allocator@D@2@@_STL@@H@_STL@@@1@@Z ; _STL::_STLP_alloc_proxy<_STL::_Rb_tree_node<_STL::pair<_STL::basic_string<char,_STL::char_traits<char>,_STL::allocator<char> > const ,int> > *,_STL::_Rb_tree_node<_STL::pair<_STL::basic_string<char,_STL::char_traits<char>,_STL::allocator<char> > const ,int> >,_STL::allocator<_STL::_Rb_tree_node<_STL::pair<_STL::basic_string<char,_STL::char_traits<char>,_STL::allocator<char> > const ,int> > > >::_STLP_alloc_proxy<_STL::_Rb_tree_node<_STL::pair<_STL::basic_string<char,_STL::char_traits<char>,_STL::allocator<char> > const ,int> > *,_STL::_Rb_tree_node<_STL::pair<_STL::basic_string<char,_STL::char_traits<char>,_STL::allocator<char> > const ,int> >,_STL::allocator<_STL::_Rb_tree_node<_STL::pair<_STL::basic_string<char,_STL::char_traits<char>,_STL::allocator<char> > const ,int> > > >

; 205  :       _M_header._M_data = _M_header.allocate(1); 

  00010	6a 20		 push	 32			; 00000020H
  00012	e8 00 00 00 00	 call	 ?_M_allocate@?$__node_alloc@$00$0A@@_STL@@CAPAXI@Z ; _STL::__node_alloc<1,0>::_M_allocate
  00017	89 06		 mov	 DWORD PTR [esi], eax
  00019	83 c4 04	 add	 esp, 4

; 206  :   }

  0001c	8b c6		 mov	 eax, esi
  0001e	5e		 pop	 esi
  0001f	59		 pop	 ecx
  00020	c2 04 00	 ret	 4
??0?$_Rb_tree_base@U?$pair@$$CBV?$basic_string@DV?$char_traits@D@_STL@@V?$allocator@D@2@@_STL@@H@_STL@@V?$allocator@U?$pair@$$CBV?$basic_string@DV?$char_traits@D@_STL@@V?$allocator@D@2@@_STL@@H@_STL@@@2@@_STL@@QAE@ABV?$allocator@U?$pair@$$CBV?$basic_string@DV?$char_traits@D@_STL@@V?$allocator@D@2@@_STL@@H@_STL@@@1@@Z ENDP ; _STL::_Rb_tree_base<_STL::pair<_STL::basic_string<char,_STL::char_traits<char>,_STL::allocator<char> > const ,int>,_STL::allocator<_STL::pair<_STL::basic_string<char,_STL::char_traits<char>,_STL::allocator<char> > const ,int> > >::_Rb_tree_base<_STL::pair<_STL::basic_string<char,_STL::char_traits<char>,_STL::allocator<char> > const ,int>,_STL::allocator<_STL::pair<_STL::basic_string<char,_STL::char_traits<char>,_STL::allocator<char> > const ,int> > >
_TEXT	ENDS
PUBLIC	??$?9DV?$char_traits@D@_STL@@V?$allocator@D@1@@_STL@@YA_NABV?$basic_string@DV?$char_traits@D@_STL@@V?$allocator@D@2@@0@PBD@Z ; _STL::operator!=<char,_STL::char_traits<char>,_STL::allocator<char> >
; Function compile flags: /Ogty
; File c:\stlport-4.6.1\stlport\stl\_string.h
;	COMDAT ??$?9DV?$char_traits@D@_STL@@V?$allocator@D@1@@_STL@@YA_NABV?$basic_string@DV?$char_traits@D@_STL@@V?$allocator@D@2@@0@PBD@Z
_TEXT	SEGMENT
___x$ = 8						; size = 4
___s$ = 12						; size = 4
??$?9DV?$char_traits@D@_STL@@V?$allocator@D@1@@_STL@@YA_NABV?$basic_string@DV?$char_traits@D@_STL@@V?$allocator@D@2@@0@PBD@Z PROC NEAR ; _STL::operator!=<char,_STL::char_traits<char>,_STL::allocator<char> >, COMDAT

; 1410 :            const _CharT* __s) {

  00000	56		 push	 esi
  00001	57		 push	 edi

; 1411 :   _STLP_FIX_LITERAL_BUG(__s)
; 1412 :   return !(__x == __s);

  00002	8b 7c 24 10	 mov	 edi, DWORD PTR ___s$[esp+4]
  00006	8b c7		 mov	 eax, edi
  00008	8d 50 01	 lea	 edx, DWORD PTR [eax+1]
  0000b	eb 03 8d 49 00	 npad	 5
$L78916:
  00010	8a 08		 mov	 cl, BYTE PTR [eax]
  00012	40		 inc	 eax
  00013	84 c9		 test	 cl, cl
  00015	75 f9		 jne	 SHORT $L78916
  00017	8b 4c 24 0c	 mov	 ecx, DWORD PTR ___x$[esp+4]
  0001b	8b 31		 mov	 esi, DWORD PTR [ecx]
  0001d	8b 49 04	 mov	 ecx, DWORD PTR [ecx+4]
  00020	2b c2		 sub	 eax, edx
  00022	2b ce		 sub	 ecx, esi
  00024	3b c8		 cmp	 ecx, eax
  00026	75 19		 jne	 SHORT $L78904
  00028	8b c8		 mov	 ecx, eax
  0002a	33 d2		 xor	 edx, edx
  0002c	f3 a6		 repe cmpsb
  0002e	75 11		 jne	 SHORT $L78904
  00030	b8 01 00 00 00	 mov	 eax, 1
  00035	33 c9		 xor	 ecx, ecx
  00037	84 c0		 test	 al, al
  00039	0f 94 c1	 sete	 cl
  0003c	5f		 pop	 edi
  0003d	8a c1		 mov	 al, cl
  0003f	5e		 pop	 esi

; 1413 : }

  00040	c3		 ret	 0

; 1411 :   _STLP_FIX_LITERAL_BUG(__s)
; 1412 :   return !(__x == __s);

$L78904:
  00041	33 c0		 xor	 eax, eax
  00043	33 c9		 xor	 ecx, ecx
  00045	84 c0		 test	 al, al
  00047	0f 94 c1	 sete	 cl
  0004a	5f		 pop	 edi
  0004b	8a c1		 mov	 al, cl
  0004d	5e		 pop	 esi

; 1413 : }

  0004e	c3		 ret	 0
??$?9DV?$char_traits@D@_STL@@V?$allocator@D@1@@_STL@@YA_NABV?$basic_string@DV?$char_traits@D@_STL@@V?$allocator@D@2@@0@PBD@Z ENDP ; _STL::operator!=<char,_STL::char_traits<char>,_STL::allocator<char> >
_TEXT	ENDS
PUBLIC	??$?MDV?$char_traits@D@_STL@@V?$allocator@D@1@@_STL@@YA_NABV?$basic_string@DV?$char_traits@D@_STL@@V?$allocator@D@2@@0@0@Z ; _STL::operator<<char,_STL::char_traits<char>,_STL::allocator<char> >
; Function compile flags: /Ogty
;	COMDAT ??$?MDV?$char_traits@D@_STL@@V?$allocator@D@1@@_STL@@YA_NABV?$basic_string@DV?$char_traits@D@_STL@@V?$allocator@D@2@@0@0@Z
_TEXT	SEGMENT
___n1$78968 = 8						; size = 4
___x$ = 8						; size = 4
___n2$78969 = 12					; size = 4
___y$ = 12						; size = 4
??$?MDV?$char_traits@D@_STL@@V?$allocator@D@1@@_STL@@YA_NABV?$basic_string@DV?$char_traits@D@_STL@@V?$allocator@D@2@@0@0@Z PROC NEAR ; _STL::operator<<char,_STL::char_traits<char>,_STL::allocator<char> >, COMDAT

; 1353 :   return basic_string<_CharT,_Traits,_Alloc> ::_M_compare(__x.begin(), __x.end(), 
; 1354 : 		 __y.begin(), __y.end()) < 0;

  00000	8b 4c 24 08	 mov	 ecx, DWORD PTR ___y$[esp-4]
  00004	8b 44 24 04	 mov	 eax, DWORD PTR ___x$[esp-4]
  00008	8b 51 04	 mov	 edx, DWORD PTR [ecx+4]
  0000b	53		 push	 ebx
  0000c	56		 push	 esi
  0000d	8b 30		 mov	 esi, DWORD PTR [eax]
  0000f	8b 40 04	 mov	 eax, DWORD PTR [eax+4]
  00012	57		 push	 edi
  00013	8b 39		 mov	 edi, DWORD PTR [ecx]
  00015	2b c6		 sub	 eax, esi
  00017	2b d7		 sub	 edx, edi
  00019	3b d0		 cmp	 edx, eax
  0001b	89 44 24 10	 mov	 DWORD PTR ___n1$78968[esp+8], eax
  0001f	89 54 24 14	 mov	 DWORD PTR ___n2$78969[esp+8], edx
  00023	8d 4c 24 14	 lea	 ecx, DWORD PTR ___n2$78969[esp+8]
  00027	7c 04		 jl	 SHORT $L78963
  00029	8d 4c 24 10	 lea	 ecx, DWORD PTR ___n1$78968[esp+8]
$L78963:
  0002d	8b 09		 mov	 ecx, DWORD PTR [ecx]
  0002f	33 db		 xor	 ebx, ebx
  00031	f3 a6		 repe cmpsb
  00033	74 05		 je	 SHORT $L78971
  00035	1b db		 sbb	 ebx, ebx
  00037	83 db ff	 sbb	 ebx, -1
$L78971:
  0003a	85 db		 test	 ebx, ebx
  0003c	75 19		 jne	 SHORT $L78957
  0003e	3b c2		 cmp	 eax, edx
  00040	7d 0e		 jge	 SHORT $L78956
  00042	83 cb ff	 or	 ebx, -1
  00045	5f		 pop	 edi
  00046	33 c0		 xor	 eax, eax
  00048	85 db		 test	 ebx, ebx
  0004a	5e		 pop	 esi
  0004b	0f 9c c0	 setl	 al
  0004e	5b		 pop	 ebx

; 1355 : }

  0004f	c3		 ret	 0

; 1353 :   return basic_string<_CharT,_Traits,_Alloc> ::_M_compare(__x.begin(), __x.end(), 
; 1354 : 		 __y.begin(), __y.end()) < 0;

$L78956:
  00050	33 db		 xor	 ebx, ebx
  00052	3b c2		 cmp	 eax, edx
  00054	0f 9f c3	 setg	 bl
$L78957:
  00057	5f		 pop	 edi
  00058	33 c0		 xor	 eax, eax
  0005a	85 db		 test	 ebx, ebx
  0005c	5e		 pop	 esi
  0005d	0f 9c c0	 setl	 al
  00060	5b		 pop	 ebx

; 1355 : }

  00061	c3		 ret	 0
??$?MDV?$char_traits@D@_STL@@V?$allocator@D@1@@_STL@@YA_NABV?$basic_string@DV?$char_traits@D@_STL@@V?$allocator@D@2@@0@0@Z ENDP ; _STL::operator<<char,_STL::char_traits<char>,_STL::allocator<char> >
_TEXT	ENDS
PUBLIC	??0?$_String_base@DV?$allocator@D@_STL@@@_STL@@QAE@ABV?$allocator@D@1@@Z ; _STL::_String_base<char,_STL::allocator<char> >::_String_base<char,_STL::allocator<char> >
; Function compile flags: /Ogty
;	COMDAT ??0?$_String_base@DV?$allocator@D@_STL@@@_STL@@QAE@ABV?$allocator@D@1@@Z
_TEXT	SEGMENT
___a$ = 8						; size = 4
??0?$_String_base@DV?$allocator@D@_STL@@@_STL@@QAE@ABV?$allocator@D@1@@Z PROC NEAR ; _STL::_String_base<char,_STL::allocator<char> >::_String_base<char,_STL::allocator<char> >, COMDAT
; _this$ = ecx

; 129  :     : _M_start(0), _M_finish(0), _M_end_of_storage(__a, (_Tp*)0) {}

  00000	8b 44 24 04	 mov	 eax, DWORD PTR ___a$[esp-4]
  00004	56		 push	 esi
  00005	8b f1		 mov	 esi, ecx
  00007	6a 00		 push	 0
  00009	50		 push	 eax
  0000a	8d 4e 08	 lea	 ecx, DWORD PTR [esi+8]
  0000d	c7 06 00 00 00
	00		 mov	 DWORD PTR [esi], 0
  00013	c7 46 04 00 00
	00 00		 mov	 DWORD PTR [esi+4], 0
  0001a	e8 00 00 00 00	 call	 ??0?$_STLP_alloc_proxy@PADDV?$allocator@D@_STL@@@_STL@@QAE@ABV?$allocator@D@1@PAD@Z ; _STL::_STLP_alloc_proxy<char *,char,_STL::allocator<char> >::_STLP_alloc_proxy<char *,char,_STL::allocator<char> >
  0001f	8b c6		 mov	 eax, esi
  00021	5e		 pop	 esi
  00022	c2 04 00	 ret	 4
??0?$_String_base@DV?$allocator@D@_STL@@@_STL@@QAE@ABV?$allocator@D@1@@Z ENDP ; _STL::_String_base<char,_STL::allocator<char> >::_String_base<char,_STL::allocator<char> >
_TEXT	ENDS
PUBLIC	??$__destroy@PAUtagPOINT@@U1@@_STL@@YAXPAUtagPOINT@@00@Z ; _STL::__destroy<tagPOINT *,tagPOINT>
; Function compile flags: /Ogty
; File c:\stlport-4.6.1\stlport\stl\_construct.h
;	COMDAT ??$__destroy@PAUtagPOINT@@U1@@_STL@@YAXPAUtagPOINT@@00@Z
_TEXT	SEGMENT
___first$ = 8						; size = 4
___last$ = 12						; size = 4
___formal$ = 16						; size = 4
??$__destroy@PAUtagPOINT@@U1@@_STL@@YAXPAUtagPOINT@@00@Z PROC NEAR ; _STL::__destroy<tagPOINT *,tagPOINT>, COMDAT

; 133  :   typedef typename __type_traits<_Tp>::has_trivial_destructor _Trivial_destructor;
; 134  :   __destroy_aux(__first, __last, _Trivial_destructor());
; 135  : }

  00000	c3		 ret	 0
??$__destroy@PAUtagPOINT@@U1@@_STL@@YAXPAUtagPOINT@@00@Z ENDP ; _STL::__destroy<tagPOINT *,tagPOINT>
_TEXT	ENDS
PUBLIC	??$__destroy@PAUtagRECT@@U1@@_STL@@YAXPAUtagRECT@@00@Z ; _STL::__destroy<tagRECT *,tagRECT>
; Function compile flags: /Ogty
;	COMDAT ??$__destroy@PAUtagRECT@@U1@@_STL@@YAXPAUtagRECT@@00@Z
_TEXT	SEGMENT
___first$ = 8						; size = 4
___last$ = 12						; size = 4
___formal$ = 16						; size = 4
??$__destroy@PAUtagRECT@@U1@@_STL@@YAXPAUtagRECT@@00@Z PROC NEAR ; _STL::__destroy<tagRECT *,tagRECT>, COMDAT

; 133  :   typedef typename __type_traits<_Tp>::has_trivial_destructor _Trivial_destructor;
; 134  :   __destroy_aux(__first, __last, _Trivial_destructor());
; 135  : }

  00000	c3		 ret	 0
??$__destroy@PAUtagRECT@@U1@@_STL@@YAXPAUtagRECT@@00@Z ENDP ; _STL::__destroy<tagRECT *,tagRECT>
_TEXT	ENDS
PUBLIC	??$_M_range_initialize@PBD@?$basic_string@DV?$char_traits@D@_STL@@V?$allocator@D@2@@_STL@@AAEXPBD0ABUforward_iterator_tag@1@@Z ; _STL::basic_string<char,_STL::char_traits<char>,_STL::allocator<char> >::_M_range_initialize<char const *>
; Function compile flags: /Ogty
; File c:\stlport-4.6.1\stlport\stl\_string.h
;	COMDAT ??$_M_range_initialize@PBD@?$basic_string@DV?$char_traits@D@_STL@@V?$allocator@D@2@@_STL@@AAEXPBD0ABUforward_iterator_tag@1@@Z
_TEXT	SEGMENT
___f$ = 8						; size = 4
___l$ = 12						; size = 4
___formal$ = 16						; size = 4
??$_M_range_initialize@PBD@?$basic_string@DV?$char_traits@D@_STL@@V?$allocator@D@2@@_STL@@AAEXPBD0ABUforward_iterator_tag@1@@Z PROC NEAR ; _STL::basic_string<char,_STL::char_traits<char>,_STL::allocator<char> >::_M_range_initialize<char const *>, COMDAT
; _this$ = ecx

; 382  :   template <class _ForwardIter> void _M_range_initialize(_ForwardIter __f, _ForwardIter __l, 

  00000	53		 push	 ebx

; 383  :                            const forward_iterator_tag &) {
; 384  :     difference_type __n = distance(__f, __l);
; 385  :     this->_M_allocate_block(__n + 1);
; 386  :     this->_M_finish = uninitialized_copy(__f, __l, this->_M_start);
; 387  :     _M_terminate_string();

  00001	8b 5c 24 08	 mov	 ebx, DWORD PTR ___f$[esp]
  00005	55		 push	 ebp
  00006	8b 6c 24 10	 mov	 ebp, DWORD PTR ___l$[esp+4]
  0000a	56		 push	 esi
  0000b	8b f5		 mov	 esi, ebp
  0000d	57		 push	 edi
  0000e	2b f3		 sub	 esi, ebx
  00010	8d 46 01	 lea	 eax, DWORD PTR [esi+1]
  00013	50		 push	 eax
  00014	8b f9		 mov	 edi, ecx
  00016	e8 00 00 00 00	 call	 ?_M_allocate_block@?$_String_base@DV?$allocator@D@_STL@@@_STL@@QAEXI@Z ; _STL::_String_base<char,_STL::allocator<char> >::_M_allocate_block
  0001b	3b eb		 cmp	 ebp, ebx
  0001d	8b 07		 mov	 eax, DWORD PTR [edi]
  0001f	74 0d		 je	 SHORT $L79023
  00021	56		 push	 esi
  00022	53		 push	 ebx
  00023	50		 push	 eax
  00024	e8 00 00 00 00	 call	 _memmove
  00029	83 c4 0c	 add	 esp, 12			; 0000000cH
  0002c	03 c6		 add	 eax, esi
$L79023:
  0002e	89 47 04	 mov	 DWORD PTR [edi+4], eax
  00031	5f		 pop	 edi
  00032	5e		 pop	 esi
  00033	5d		 pop	 ebp
  00034	c6 00 00	 mov	 BYTE PTR [eax], 0
  00037	5b		 pop	 ebx

; 388  :   }

  00038	c2 0c 00	 ret	 12			; 0000000cH
??$_M_range_initialize@PBD@?$basic_string@DV?$char_traits@D@_STL@@V?$allocator@D@2@@_STL@@AAEXPBD0ABUforward_iterator_tag@1@@Z ENDP ; _STL::basic_string<char,_STL::char_traits<char>,_STL::allocator<char> >::_M_range_initialize<char const *>
_TEXT	ENDS
PUBLIC	??$__uninitialized_copy@PADPAD@_STL@@YAPADPAD00ABU__true_type@0@@Z ; _STL::__uninitialized_copy<char *,char *>
; Function compile flags: /Ogty
; File c:\stlport-4.6.1\stlport\stl\_uninitialized.h
;	COMDAT ??$__uninitialized_copy@PADPAD@_STL@@YAPADPAD00ABU__true_type@0@@Z
_TEXT	SEGMENT
___first$ = 8						; size = 4
___last$ = 12						; size = 4
___result$ = 16						; size = 4
___formal$ = 20						; size = 4
??$__uninitialized_copy@PADPAD@_STL@@YAPADPAD00ABU__true_type@0@@Z PROC NEAR ; _STL::__uninitialized_copy<char *,char *>, COMDAT

; 55   :   return __copy_aux(__first, __last, __result, _BothPtrType< _InputIter, _ForwardIter> :: _Ret());

  00000	8b 44 24 04	 mov	 eax, DWORD PTR ___first$[esp-4]
  00004	56		 push	 esi
  00005	8b 74 24 0c	 mov	 esi, DWORD PTR ___last$[esp]
  00009	3b f0		 cmp	 esi, eax
  0000b	75 06		 jne	 SHORT $L79072
  0000d	8b 44 24 10	 mov	 eax, DWORD PTR ___result$[esp]
  00011	5e		 pop	 esi

; 56   : }

  00012	c3		 ret	 0

; 55   :   return __copy_aux(__first, __last, __result, _BothPtrType< _InputIter, _ForwardIter> :: _Ret());

$L79072:
  00013	2b f0		 sub	 esi, eax
  00015	56		 push	 esi
  00016	50		 push	 eax
  00017	8b 44 24 18	 mov	 eax, DWORD PTR ___result$[esp+8]
  0001b	50		 push	 eax
  0001c	e8 00 00 00 00	 call	 _memmove
  00021	83 c4 0c	 add	 esp, 12			; 0000000cH
  00024	03 c6		 add	 eax, esi
  00026	5e		 pop	 esi

; 56   : }

  00027	c3		 ret	 0
??$__uninitialized_copy@PADPAD@_STL@@YAPADPAD00ABU__true_type@0@@Z ENDP ; _STL::__uninitialized_copy<char *,char *>
_TEXT	ENDS
PUBLIC	?_M_deallocate_block@?$_String_base@DV?$allocator@D@_STL@@@_STL@@QAEXXZ ; _STL::_String_base<char,_STL::allocator<char> >::_M_deallocate_block
; Function compile flags: /Ogty
; File c:\stlport-4.6.1\stlport\stl\_string.h
;	COMDAT ?_M_deallocate_block@?$_String_base@DV?$allocator@D@_STL@@@_STL@@QAEXXZ
_TEXT	SEGMENT
?_M_deallocate_block@?$_String_base@DV?$allocator@D@_STL@@@_STL@@QAEXXZ PROC NEAR ; _STL::_String_base<char,_STL::allocator<char> >::_M_deallocate_block, COMDAT
; _this$ = ecx

; 124  :     { _M_end_of_storage.deallocate(_M_start, _M_end_of_storage._M_data - _M_start); }

  00000	8b 11		 mov	 edx, DWORD PTR [ecx]
  00002	8b 41 08	 mov	 eax, DWORD PTR [ecx+8]
  00005	2b c2		 sub	 eax, edx
  00007	85 d2		 test	 edx, edx
  00009	74 1b		 je	 SHORT $L79096
  0000b	3d 80 00 00 00	 cmp	 eax, 128		; 00000080H
  00010	76 0a		 jbe	 SHORT $L79095
  00012	52		 push	 edx
  00013	e8 00 00 00 00	 call	 ??3@YAXPAX@Z		; operator delete
  00018	83 c4 04	 add	 esp, 4
  0001b	c3		 ret	 0
$L79095:
  0001c	50		 push	 eax
  0001d	52		 push	 edx
  0001e	e8 00 00 00 00	 call	 ?_M_deallocate@?$__node_alloc@$00$0A@@_STL@@CAXPAXI@Z ; _STL::__node_alloc<1,0>::_M_deallocate
  00023	83 c4 08	 add	 esp, 8
$L79096:
  00026	c3		 ret	 0
?_M_deallocate_block@?$_String_base@DV?$allocator@D@_STL@@@_STL@@QAEXXZ ENDP ; _STL::_String_base<char,_STL::allocator<char> >::_M_deallocate_block
_TEXT	ENDS
PUBLIC	?IsSet@CRarFile@@QAE_NXZ			; CRarFile::IsSet
PUBLIC	??_C@_00CNPNBAHC@?$AA@				; `string'
;	COMDAT ??_C@_00CNPNBAHC@?$AA@
; File c:\stlport-4.6.1\stlport\stl\char_traits.h
CONST	SEGMENT
??_C@_00CNPNBAHC@?$AA@ DB 00H				; `string'
; Function compile flags: /Ogty
; File c:\darkeden\designed_common\project\client\rarlib\rarfile.h
CONST	ENDS
;	COMDAT ?IsSet@CRarFile@@QAE_NXZ
_TEXT	SEGMENT
?IsSet@CRarFile@@QAE_NXZ PROC NEAR			; CRarFile::IsSet, COMDAT
; _this$ = ecx

; 99   : 	bool	IsSet()	{ return (m_rar_filename !=""); }

  00000	8b 41 04	 mov	 eax, DWORD PTR [ecx+4]
  00003	56		 push	 esi
  00004	8b 31		 mov	 esi, DWORD PTR [ecx]
  00006	2b c6		 sub	 eax, esi
  00008	75 28		 jne	 SHORT $L79137
  0000a	57		 push	 edi
  0000b	33 c9		 xor	 ecx, ecx
  0000d	bf 00 00 00 00	 mov	 edi, OFFSET FLAT:??_C@_00CNPNBAHC@?$AA@
  00012	33 c0		 xor	 eax, eax
  00014	f3 a6		 repe cmpsb
  00016	5f		 pop	 edi
  00017	74 05		 je	 SHORT $L79149
  00019	1b c0		 sbb	 eax, eax
  0001b	83 d8 ff	 sbb	 eax, -1
$L79149:
  0001e	85 c0		 test	 eax, eax
  00020	75 10		 jne	 SHORT $L79137
  00022	b8 01 00 00 00	 mov	 eax, 1
  00027	33 c9		 xor	 ecx, ecx
  00029	84 c0		 test	 al, al
  0002b	0f 94 c1	 sete	 cl
  0002e	8a c1		 mov	 al, cl
  00030	5e		 pop	 esi
  00031	c3		 ret	 0
$L79137:
  00032	33 c0		 xor	 eax, eax
  00034	33 c9		 xor	 ecx, ecx
  00036	84 c0		 test	 al, al
  00038	0f 94 c1	 sete	 cl
  0003b	8a c1		 mov	 al, cl
  0003d	5e		 pop	 esi
  0003e	c3		 ret	 0
?IsSet@CRarFile@@QAE_NXZ ENDP				; CRarFile::IsSet
_TEXT	ENDS
PUBLIC	??0?$vector@UtagPOINT@@V?$allocator@UtagPOINT@@@_STL@@@_STL@@QAE@ABV?$allocator@UtagPOINT@@@1@@Z ; _STL::vector<tagPOINT,_STL::allocator<tagPOINT> >::vector<tagPOINT,_STL::allocator<tagPOINT> >
; Function compile flags: /Ogty
; File c:\stlport-4.6.1\stlport\stl\_vector.h
;	COMDAT ??0?$vector@UtagPOINT@@V?$allocator@UtagPOINT@@@_STL@@@_STL@@QAE@ABV?$allocator@UtagPOINT@@@1@@Z
_TEXT	SEGMENT
___a$ = 8						; size = 4
??0?$vector@UtagPOINT@@V?$allocator@UtagPOINT@@@_STL@@@_STL@@QAE@ABV?$allocator@UtagPOINT@@@1@@Z PROC NEAR ; _STL::vector<tagPOINT,_STL::allocator<tagPOINT> >::vector<tagPOINT,_STL::allocator<tagPOINT> >, COMDAT
; _this$ = ecx

; 199  :     _Vector_base<_Tp, _Alloc>(__a) {}

  00000	8b c1		 mov	 eax, ecx
  00002	33 c9		 xor	 ecx, ecx
  00004	89 08		 mov	 DWORD PTR [eax], ecx
  00006	89 48 04	 mov	 DWORD PTR [eax+4], ecx
  00009	89 48 08	 mov	 DWORD PTR [eax+8], ecx
  0000c	c2 04 00	 ret	 4
??0?$vector@UtagPOINT@@V?$allocator@UtagPOINT@@@_STL@@@_STL@@QAE@ABV?$allocator@UtagPOINT@@@1@@Z ENDP ; _STL::vector<tagPOINT,_STL::allocator<tagPOINT> >::vector<tagPOINT,_STL::allocator<tagPOINT> >
_TEXT	ENDS
PUBLIC	??0?$vector@UtagRECT@@V?$allocator@UtagRECT@@@_STL@@@_STL@@QAE@ABV?$allocator@UtagRECT@@@1@@Z ; _STL::vector<tagRECT,_STL::allocator<tagRECT> >::vector<tagRECT,_STL::allocator<tagRECT> >
; Function compile flags: /Ogty
;	COMDAT ??0?$vector@UtagRECT@@V?$allocator@UtagRECT@@@_STL@@@_STL@@QAE@ABV?$allocator@UtagRECT@@@1@@Z
_TEXT	SEGMENT
___a$ = 8						; size = 4
??0?$vector@UtagRECT@@V?$allocator@UtagRECT@@@_STL@@@_STL@@QAE@ABV?$allocator@UtagRECT@@@1@@Z PROC NEAR ; _STL::vector<tagRECT,_STL::allocator<tagRECT> >::vector<tagRECT,_STL::allocator<tagRECT> >, COMDAT
; _this$ = ecx

; 199  :     _Vector_base<_Tp, _Alloc>(__a) {}

  00000	8b c1		 mov	 eax, ecx
  00002	33 c9		 xor	 ecx, ecx
  00004	89 08		 mov	 DWORD PTR [eax], ecx
  00006	89 48 04	 mov	 DWORD PTR [eax+4], ecx
  00009	89 48 08	 mov	 DWORD PTR [eax+8], ecx
  0000c	c2 04 00	 ret	 4
??0?$vector@UtagRECT@@V?$allocator@UtagRECT@@@_STL@@@_STL@@QAE@ABV?$allocator@UtagRECT@@@1@@Z ENDP ; _STL::vector<tagRECT,_STL::allocator<tagRECT> >::vector<tagRECT,_STL::allocator<tagRECT> >
_TEXT	ENDS
PUBLIC	??0?$_Rb_tree@V?$basic_string@DV?$char_traits@D@_STL@@V?$allocator@D@2@@_STL@@U?$pair@$$CBV?$basic_string@DV?$char_traits@D@_STL@@V?$allocator@D@2@@_STL@@H@2@U?$_Select1st@U?$pair@$$CBV?$basic_string@DV?$char_traits@D@_STL@@V?$allocator@D@2@@_STL@@H@_STL@@@2@U?$less@V?$basic_string@DV?$char_traits@D@_STL@@V?$allocator@D@2@@_STL@@@2@V?$allocator@U?$pair@$$CBV?$basic_string@DV?$char_traits@D@_STL@@V?$allocator@D@2@@_STL@@H@_STL@@@2@@_STL@@QAE@ABU?$less@V?$basic_string@DV?$char_traits@D@_STL@@V?$allocator@D@2@@_STL@@@1@ABV?$allocator@U?$pair@$$CBV?$basic_string@DV?$char_traits@D@_STL@@V?$allocator@D@2@@_STL@@H@_STL@@@1@@Z ; _STL::_Rb_tree<_STL::basic_string<char,_STL::char_traits<char>,_STL::allocator<char> >,_STL::pair<_STL::basic_string<char,_STL::char_traits<char>,_STL::allocator<char> > const ,int>,_STL::_Select1st<_STL::pair<_STL::basic_string<char,_STL::char_traits<char>,_STL::allocator<char> > const ,int> >,_STL::less<_STL::basic_string<char,_STL::char_traits<char>,_STL::allocator<char> > >,_STL::allocator<_STL::pair<_STL::basic_string<char,_STL::char_traits<char>,_STL::allocator<char> > const ,int> > >::_Rb_tree<_STL::basic_string<char,_STL::char_traits<char>,_STL::allocator<char> >,_STL::pair<_STL::basic_string<char,_STL::char_traits<char>,_STL::allocator<char> > const ,int>,_STL::_Select1st<_STL::pair<_STL::basic_string<char,_STL::char_traits<char>,_STL::allocator<char> > const ,int> >,_STL::less<_STL::basic_string<char,_STL::char_traits<char>,_STL::allocator<char> > >,_STL::allocator<_STL::pair<_STL::basic_string<char,_STL::char_traits<char>,_STL::allocator<char> > const ,int> > >
; Function compile flags: /Ogty
; File c:\stlport-4.6.1\stlport\stl\_tree.h
;	COMDAT ??0?$_Rb_tree@V?$basic_string@DV?$char_traits@D@_STL@@V?$allocator@D@2@@_STL@@U?$pair@$$CBV?$basic_string@DV?$char_traits@D@_STL@@V?$allocator@D@2@@_STL@@H@2@U?$_Select1st@U?$pair@$$CBV?$basic_string@DV?$char_traits@D@_STL@@V?$allocator@D@2@@_STL@@H@_STL@@@2@U?$less@V?$basic_string@DV?$char_traits@D@_STL@@V?$allocator@D@2@@_STL@@@2@V?$allocator@U?$pair@$$CBV?$basic_string@DV?$char_traits@D@_STL@@V?$allocator@D@2@@_STL@@H@_STL@@@2@@_STL@@QAE@ABU?$less@V?$basic_string@DV?$char_traits@D@_STL@@V?$allocator@D@2@@_STL@@@1@ABV?$allocator@U?$pair@$$CBV?$basic_string@DV?$char_traits@D@_STL@@V?$allocator@D@2@@_STL@@H@_STL@@@1@@Z
_TEXT	SEGMENT
___comp$ = 8						; size = 4
___a$ = 12						; size = 4
??0?$_Rb_tree@V?$basic_string@DV?$char_traits@D@_STL@@V?$allocator@D@2@@_STL@@U?$pair@$$CBV?$basic_string@DV?$char_traits@D@_STL@@V?$allocator@D@2@@_STL@@H@2@U?$_Select1st@U?$pair@$$CBV?$basic_string@DV?$char_traits@D@_STL@@V?$allocator@D@2@@_STL@@H@_STL@@@2@U?$less@V?$basic_string@DV?$char_traits@D@_STL@@V?$allocator@D@2@@_STL@@@2@V?$allocator@U?$pair@$$CBV?$basic_string@DV?$char_traits@D@_STL@@V?$allocator@D@2@@_STL@@H@_STL@@@2@@_STL@@QAE@ABU?$less@V?$basic_string@DV?$char_traits@D@_STL@@V?$allocator@D@2@@_STL@@@1@ABV?$allocator@U?$pair@$$CBV?$basic_string@DV?$char_traits@D@_STL@@V?$allocator@D@2@@_STL@@H@_STL@@@1@@Z PROC NEAR ; _STL::_Rb_tree<_STL::basic_string<char,_STL::char_traits<char>,_STL::allocator<char> >,_STL::pair<_STL::basic_string<char,_STL::char_traits<char>,_STL::allocator<char> > const ,int>,_STL::_Select1st<_STL::pair<_STL::basic_string<char,_STL::char_traits<char>,_STL::allocator<char> > const ,int> >,_STL::less<_STL::basic_string<char,_STL::char_traits<char>,_STL::allocator<char> > >,_STL::allocator<_STL::pair<_STL::basic_string<char,_STL::char_traits<char>,_STL::allocator<char> > const ,int> > >::_Rb_tree<_STL::basic_string<char,_STL::char_traits<char>,_STL::allocator<char> >,_STL::pair<_STL::basic_string<char,_STL::char_traits<char>,_STL::allocator<char> > const ,int>,_STL::_Select1st<_STL::pair<_STL::basic_string<char,_STL::char_traits<char>,_STL::allocator<char> > const ,int> >,_STL::less<_STL::basic_string<char,_STL::char_traits<char>,_STL::allocator<char> > >,_STL::allocator<_STL::pair<_STL::basic_string<char,_STL::char_traits<char>,_STL::allocator<char> > const ,int> > >, COMDAT
; _this$ = ecx

; 325  :     { _M_empty_initialize(); }

  00000	56		 push	 esi
  00001	8b f1		 mov	 esi, ecx
  00003	6a 20		 push	 32			; 00000020H
  00005	c7 06 00 00 00
	00		 mov	 DWORD PTR [esi], 0
  0000b	e8 00 00 00 00	 call	 ?_M_allocate@?$__node_alloc@$00$0A@@_STL@@CAPAXI@Z ; _STL::__node_alloc<1,0>::_M_allocate
  00010	89 06		 mov	 DWORD PTR [esi], eax
  00012	c7 46 04 00 00
	00 00		 mov	 DWORD PTR [esi+4], 0
  00019	c6 00 00	 mov	 BYTE PTR [eax], 0
  0001c	8b 06		 mov	 eax, DWORD PTR [esi]
  0001e	c7 40 04 00 00
	00 00		 mov	 DWORD PTR [eax+4], 0
  00025	8b 06		 mov	 eax, DWORD PTR [esi]
  00027	89 40 08	 mov	 DWORD PTR [eax+8], eax
  0002a	8b 06		 mov	 eax, DWORD PTR [esi]
  0002c	83 c4 04	 add	 esp, 4
  0002f	89 40 0c	 mov	 DWORD PTR [eax+12], eax
  00032	8b c6		 mov	 eax, esi
  00034	5e		 pop	 esi
  00035	c2 08 00	 ret	 8
??0?$_Rb_tree@V?$basic_string@DV?$char_traits@D@_STL@@V?$allocator@D@2@@_STL@@U?$pair@$$CBV?$basic_string@DV?$char_traits@D@_STL@@V?$allocator@D@2@@_STL@@H@2@U?$_Select1st@U?$pair@$$CBV?$basic_string@DV?$char_traits@D@_STL@@V?$allocator@D@2@@_STL@@H@_STL@@@2@U?$less@V?$basic_string@DV?$char_traits@D@_STL@@V?$allocator@D@2@@_STL@@@2@V?$allocator@U?$pair@$$CBV?$basic_string@DV?$char_traits@D@_STL@@V?$allocator@D@2@@_STL@@H@_STL@@@2@@_STL@@QAE@ABU?$less@V?$basic_string@DV?$char_traits@D@_STL@@V?$allocator@D@2@@_STL@@@1@ABV?$allocator@U?$pair@$$CBV?$basic_string@DV?$char_traits@D@_STL@@V?$allocator@D@2@@_STL@@H@_STL@@@1@@Z ENDP ; _STL::_Rb_tree<_STL::basic_string<char,_STL::char_traits<char>,_STL::allocator<char> >,_STL::pair<_STL::basic_string<char,_STL::char_traits<char>,_STL::allocator<char> > const ,int>,_STL::_Select1st<_STL::pair<_STL::basic_string<char,_STL::char_traits<char>,_STL::allocator<char> > const ,int> >,_STL::less<_STL::basic_string<char,_STL::char_traits<char>,_STL::allocator<char> > >,_STL::allocator<_STL::pair<_STL::basic_string<char,_STL::char_traits<char>,_STL::allocator<char> > const ,int> > >::_Rb_tree<_STL::basic_string<char,_STL::char_traits<char>,_STL::allocator<char> >,_STL::pair<_STL::basic_string<char,_STL::char_traits<char>,_STL::allocator<char> > const ,int>,_STL::_Select1st<_STL::pair<_STL::basic_string<char,_STL::char_traits<char>,_STL::allocator<char> > const ,int> >,_STL::less<_STL::basic_string<char,_STL::char_traits<char>,_STL::allocator<char> > >,_STL::allocator<_STL::pair<_STL::basic_string<char,_STL::char_traits<char>,_STL::allocator<char> > const ,int> > >
_TEXT	ENDS
PUBLIC	??R?$less@V?$basic_string@DV?$char_traits@D@_STL@@V?$allocator@D@2@@_STL@@@_STL@@QBE_NABV?$basic_string@DV?$char_traits@D@_STL@@V?$allocator@D@2@@1@0@Z ; _STL::less<_STL::basic_string<char,_STL::char_traits<char>,_STL::allocator<char> > >::operator()
; Function compile flags: /Ogty
; File c:\stlport-4.6.1\stlport\stl\_function_base.h
;	COMDAT ??R?$less@V?$basic_string@DV?$char_traits@D@_STL@@V?$allocator@D@2@@_STL@@@_STL@@QBE_NABV?$basic_string@DV?$char_traits@D@_STL@@V?$allocator@D@2@@1@0@Z
_TEXT	SEGMENT
___x$ = 8						; size = 4
___y$ = 12						; size = 4
??R?$less@V?$basic_string@DV?$char_traits@D@_STL@@V?$allocator@D@2@@_STL@@@_STL@@QBE_NABV?$basic_string@DV?$char_traits@D@_STL@@V?$allocator@D@2@@1@0@Z PROC NEAR ; _STL::less<_STL::basic_string<char,_STL::char_traits<char>,_STL::allocator<char> > >::operator(), COMDAT
; _this$ = ecx

; 73   :   bool operator()(const _Tp& __x, const _Tp& __y) const { return __x < __y; }

  00000	8b 44 24 08	 mov	 eax, DWORD PTR ___y$[esp-4]
  00004	8b 4c 24 04	 mov	 ecx, DWORD PTR ___x$[esp-4]
  00008	50		 push	 eax
  00009	51		 push	 ecx
  0000a	e8 00 00 00 00	 call	 ??$?MDV?$char_traits@D@_STL@@V?$allocator@D@1@@_STL@@YA_NABV?$basic_string@DV?$char_traits@D@_STL@@V?$allocator@D@2@@0@0@Z ; _STL::operator<<char,_STL::char_traits<char>,_STL::allocator<char> >
  0000f	83 c4 08	 add	 esp, 8
  00012	c2 08 00	 ret	 8
??R?$less@V?$basic_string@DV?$char_traits@D@_STL@@V?$allocator@D@2@@_STL@@@_STL@@QBE_NABV?$basic_string@DV?$char_traits@D@_STL@@V?$allocator@D@2@@1@0@Z ENDP ; _STL::less<_STL::basic_string<char,_STL::char_traits<char>,_STL::allocator<char> > >::operator()
_TEXT	ENDS
PUBLIC	?_M_lower_bound@?$_Rb_tree@V?$basic_string@DV?$char_traits@D@_STL@@V?$allocator@D@2@@_STL@@U?$pair@$$CBV?$basic_string@DV?$char_traits@D@_STL@@V?$allocator@D@2@@_STL@@H@2@U?$_Select1st@U?$pair@$$CBV?$basic_string@DV?$char_traits@D@_STL@@V?$allocator@D@2@@_STL@@H@_STL@@@2@U?$less@V?$basic_string@DV?$char_traits@D@_STL@@V?$allocator@D@2@@_STL@@@2@V?$allocator@U?$pair@$$CBV?$basic_string@DV?$char_traits@D@_STL@@V?$allocator@D@2@@_STL@@H@_STL@@@2@@_STL@@ABEPAU?$_Rb_tree_node@U?$pair@$$CBV?$basic_string@DV?$char_traits@D@_STL@@V?$allocator@D@2@@_STL@@H@_STL@@@2@ABV?$basic_string@DV?$char_traits@D@_STL@@V?$allocator@D@2@@2@@Z ; _STL::_Rb_tree<_STL::basic_string<char,_STL::char_traits<char>,_STL::allocator<char> >,_STL::pair<_STL::basic_string<char,_STL::char_traits<char>,_STL::allocator<char> > const ,int>,_STL::_Select1st<_STL::pair<_STL::basic_string<char,_STL::char_traits<char>,_STL::allocator<char> > const ,int> >,_STL::less<_STL::basic_string<char,_STL::char_traits<char>,_STL::allocator<char> > >,_STL::allocator<_STL::pair<_STL::basic_string<char,_STL::char_traits<char>,_STL::allocator<char> > const ,int> > >::_M_lower_bound
; Function compile flags: /Ogty
; File c:\stlport-4.6.1\stlport\stl\_tree.h
;	COMDAT ?_M_lower_bound@?$_Rb_tree@V?$basic_string@DV?$char_traits@D@_STL@@V?$allocator@D@2@@_STL@@U?$pair@$$CBV?$basic_string@DV?$char_traits@D@_STL@@V?$allocator@D@2@@_STL@@H@2@U?$_Select1st@U?$pair@$$CBV?$basic_string@DV?$char_traits@D@_STL@@V?$allocator@D@2@@_STL@@H@_STL@@@2@U?$less@V?$basic_string@DV?$char_traits@D@_STL@@V?$allocator@D@2@@_STL@@@2@V?$allocator@U?$pair@$$CBV?$basic_string@DV?$char_traits@D@_STL@@V?$allocator@D@2@@_STL@@H@_STL@@@2@@_STL@@ABEPAU?$_Rb_tree_node@U?$pair@$$CBV?$basic_string@DV?$char_traits@D@_STL@@V?$allocator@D@2@@_STL@@H@_STL@@@2@ABV?$basic_string@DV?$char_traits@D@_STL@@V?$allocator@D@2@@2@@Z
_TEXT	SEGMENT
___y$ = -12						; size = 4
___n2$79370 = -8					; size = 4
___n1$79369 = -4					; size = 4
$T79288 = 8						; size = 4
___k$ = 8						; size = 4
?_M_lower_bound@?$_Rb_tree@V?$basic_string@DV?$char_traits@D@_STL@@V?$allocator@D@2@@_STL@@U?$pair@$$CBV?$basic_string@DV?$char_traits@D@_STL@@V?$allocator@D@2@@_STL@@H@2@U?$_Select1st@U?$pair@$$CBV?$basic_string@DV?$char_traits@D@_STL@@V?$allocator@D@2@@_STL@@H@_STL@@@2@U?$less@V?$basic_string@DV?$char_traits@D@_STL@@V?$allocator@D@2@@_STL@@@2@V?$allocator@U?$pair@$$CBV?$basic_string@DV?$char_traits@D@_STL@@V?$allocator@D@2@@_STL@@H@_STL@@@2@@_STL@@ABEPAU?$_Rb_tree_node@U?$pair@$$CBV?$basic_string@DV?$char_traits@D@_STL@@V?$allocator@D@2@@_STL@@H@_STL@@@2@ABV?$basic_string@DV?$char_traits@D@_STL@@V?$allocator@D@2@@2@@Z PROC NEAR ; _STL::_Rb_tree<_STL::basic_string<char,_STL::char_traits<char>,_STL::allocator<char> >,_STL::pair<_STL::basic_string<char,_STL::char_traits<char>,_STL::allocator<char> > const ,int>,_STL::_Select1st<_STL::pair<_STL::basic_string<char,_STL::char_traits<char>,_STL::allocator<char> > const ,int> >,_STL::less<_STL::basic_string<char,_STL::char_traits<char>,_STL::allocator<char> > >,_STL::allocator<_STL::pair<_STL::basic_string<char,_STL::char_traits<char>,_STL::allocator<char> > const ,int> > >::_M_lower_bound, COMDAT
; _this$ = ecx

; 482  :   _Link_type _M_lower_bound(const key_type& __k) const {

  00000	83 ec 0c	 sub	 esp, 12			; 0000000cH

; 483  :     _Link_type __y = this->_M_header._M_data; /* Last node which is not less than __k. */

  00003	8b 01		 mov	 eax, DWORD PTR [ecx]
  00005	55		 push	 ebp

; 484  :     _Link_type __x = _M_root(); /* Current node. */

  00006	8b 68 04	 mov	 ebp, DWORD PTR [eax+4]

; 485  :     
; 486  :     while (__x != 0) 

  00009	85 ed		 test	 ebp, ebp
  0000b	89 44 24 04	 mov	 DWORD PTR ___y$[esp+16], eax
  0000f	74 6c		 je	 SHORT $L76738

; 487  :       if (!_M_key_compare(_S_key(__x), __k))

  00011	8b 44 24 14	 mov	 eax, DWORD PTR ___k$[esp+12]
  00015	53		 push	 ebx
  00016	56		 push	 esi
  00017	57		 push	 edi
  00018	8b 38		 mov	 edi, DWORD PTR [eax]
  0001a	8b 40 04	 mov	 eax, DWORD PTR [eax+4]
  0001d	2b c7		 sub	 eax, edi
  0001f	89 7c 24 20	 mov	 DWORD PTR $T79288[esp+24], edi
  00023	89 44 24 14	 mov	 DWORD PTR ___n2$79370[esp+28], eax
  00027	eb 07		 jmp	 SHORT $L76737
$L79395:
  00029	8b 7c 24 20	 mov	 edi, DWORD PTR $T79288[esp+24]
  0002d	8d 49 00	 npad	 3
$L76737:
  00030	8b 75 10	 mov	 esi, DWORD PTR [ebp+16]
  00033	8b 55 14	 mov	 edx, DWORD PTR [ebp+20]
  00036	2b d6		 sub	 edx, esi
  00038	3b c2		 cmp	 eax, edx
  0003a	89 54 24 18	 mov	 DWORD PTR ___n1$79369[esp+28], edx
  0003e	8d 4c 24 14	 lea	 ecx, DWORD PTR ___n2$79370[esp+28]
  00042	7c 04		 jl	 SHORT $L79380
  00044	8d 4c 24 18	 lea	 ecx, DWORD PTR ___n1$79369[esp+28]
$L79380:
  00048	8b 09		 mov	 ecx, DWORD PTR [ecx]
  0004a	33 db		 xor	 ebx, ebx
  0004c	f3 a6		 repe cmpsb
  0004e	74 05		 je	 SHORT $L79393
  00050	1b db		 sbb	 ebx, ebx
  00052	83 db ff	 sbb	 ebx, -1
$L79393:
  00055	85 db		 test	 ebx, ebx
  00057	75 0b		 jne	 SHORT $L79396
  00059	3b d0		 cmp	 edx, eax
  0005b	7c 12		 jl	 SHORT $L76739
  0005d	3b d0		 cmp	 edx, eax
  0005f	0f 9f c3	 setg	 bl
  00062	85 db		 test	 ebx, ebx
$L79396:
  00064	7c 09		 jl	 SHORT $L76739

; 488  : 	__y = __x, __x = _S_left(__x);

  00066	89 6c 24 10	 mov	 DWORD PTR ___y$[esp+28], ebp
  0006a	8b 6d 08	 mov	 ebp, DWORD PTR [ebp+8]

; 489  :       else

  0006d	eb 03		 jmp	 SHORT $L76740
$L76739:

; 490  : 	__x = _S_right(__x);

  0006f	8b 6d 0c	 mov	 ebp, DWORD PTR [ebp+12]
$L76740:

; 485  :     
; 486  :     while (__x != 0) 

  00072	85 ed		 test	 ebp, ebp
  00074	75 b3		 jne	 SHORT $L79395

; 491  :     
; 492  :     return __y;

  00076	8b 44 24 10	 mov	 eax, DWORD PTR ___y$[esp+28]
  0007a	5f		 pop	 edi
  0007b	5e		 pop	 esi
  0007c	5b		 pop	 ebx
$L76738:
  0007d	5d		 pop	 ebp

; 493  :   }

  0007e	83 c4 0c	 add	 esp, 12			; 0000000cH
  00081	c2 04 00	 ret	 4
?_M_lower_bound@?$_Rb_tree@V?$basic_string@DV?$char_traits@D@_STL@@V?$allocator@D@2@@_STL@@U?$pair@$$CBV?$basic_string@DV?$char_traits@D@_STL@@V?$allocator@D@2@@_STL@@H@2@U?$_Select1st@U?$pair@$$CBV?$basic_string@DV?$char_traits@D@_STL@@V?$allocator@D@2@@_STL@@H@_STL@@@2@U?$less@V?$basic_string@DV?$char_traits@D@_STL@@V?$allocator@D@2@@_STL@@@2@V?$allocator@U?$pair@$$CBV?$basic_string@DV?$char_traits@D@_STL@@V?$allocator@D@2@@_STL@@H@_STL@@@2@@_STL@@ABEPAU?$_Rb_tree_node@U?$pair@$$CBV?$basic_string@DV?$char_traits@D@_STL@@V?$allocator@D@2@@_STL@@H@_STL@@@2@ABV?$basic_string@DV?$char_traits@D@_STL@@V?$allocator@D@2@@2@@Z ENDP ; _STL::_Rb_tree<_STL::basic_string<char,_STL::char_traits<char>,_STL::allocator<char> >,_STL::pair<_STL::basic_string<char,_STL::char_traits<char>,_STL::allocator<char> > const ,int>,_STL::_Select1st<_STL::pair<_STL::basic_string<char,_STL::char_traits<char>,_STL::allocator<char> > const ,int> >,_STL::less<_STL::basic_string<char,_STL::char_traits<char>,_STL::allocator<char> > >,_STL::allocator<_STL::pair<_STL::basic_string<char,_STL::char_traits<char>,_STL::allocator<char> > const ,int> > >::_M_lower_bound
_TEXT	ENDS
PUBLIC	??$_Destroy@PAUtagPOINT@@@_STL@@YAXPAUtagPOINT@@0@Z ; _STL::_Destroy<tagPOINT *>
; Function compile flags: /Ogty
; File c:\stlport-4.6.1\stlport\stl\_construct.h
;	COMDAT ??$_Destroy@PAUtagPOINT@@@_STL@@YAXPAUtagPOINT@@0@Z
_TEXT	SEGMENT
___first$ = 8						; size = 4
___last$ = 12						; size = 4
??$_Destroy@PAUtagPOINT@@@_STL@@YAXPAUtagPOINT@@0@Z PROC NEAR ; _STL::_Destroy<tagPOINT *>, COMDAT

; 139  :   __destroy(__first, __last, _STLP_VALUE_TYPE(__first, _ForwardIterator));
; 140  : }

  00000	c3		 ret	 0
??$_Destroy@PAUtagPOINT@@@_STL@@YAXPAUtagPOINT@@0@Z ENDP ; _STL::_Destroy<tagPOINT *>
_TEXT	ENDS
PUBLIC	??$_Destroy@PAUtagRECT@@@_STL@@YAXPAUtagRECT@@0@Z ; _STL::_Destroy<tagRECT *>
; Function compile flags: /Ogty
;	COMDAT ??$_Destroy@PAUtagRECT@@@_STL@@YAXPAUtagRECT@@0@Z
_TEXT	SEGMENT
___first$ = 8						; size = 4
___last$ = 12						; size = 4
??$_Destroy@PAUtagRECT@@@_STL@@YAXPAUtagRECT@@0@Z PROC NEAR ; _STL::_Destroy<tagRECT *>, COMDAT

; 139  :   __destroy(__first, __last, _STLP_VALUE_TYPE(__first, _ForwardIterator));
; 140  : }

  00000	c3		 ret	 0
??$_Destroy@PAUtagRECT@@@_STL@@YAXPAUtagRECT@@0@Z ENDP	; _STL::_Destroy<tagRECT *>
_TEXT	ENDS
PUBLIC	??$__uninitialized_copy@PAUtagPOINT@@PAU1@@_STL@@YAPAUtagPOINT@@PAU1@00ABU__false_type@0@@Z ; _STL::__uninitialized_copy<tagPOINT *,tagPOINT *>
EXTRN	__CxxThrowException@8:NEAR
; Function compile flags: /Ogty
; File c:\stlport-4.6.1\stlport\stl\_uninitialized.h
;	COMDAT ??$__uninitialized_copy@PAUtagPOINT@@PAU1@@_STL@@YAPAUtagPOINT@@PAU1@00ABU__false_type@0@@Z
_TEXT	SEGMENT
___first$ = 8						; size = 4
___last$ = 12						; size = 4
___result$ = 16						; size = 4
___formal$ = 20						; size = 4
??$__uninitialized_copy@PAUtagPOINT@@PAU1@@_STL@@YAPAUtagPOINT@@PAU1@00ABU__false_type@0@@Z PROC NEAR ; _STL::__uninitialized_copy<tagPOINT *,tagPOINT *>, COMDAT

; 64   :   _ForwardIter __cur = __result;
; 65   :   _STLP_TRY {
; 66   :     for ( ; __first != __last; ++__first, ++__cur)

  00000	8b 4c 24 04	 mov	 ecx, DWORD PTR ___first$[esp-4]
  00004	8b 54 24 08	 mov	 edx, DWORD PTR ___last$[esp-4]
  00008	3b ca		 cmp	 ecx, edx
  0000a	8b 44 24 0c	 mov	 eax, DWORD PTR ___result$[esp-4]
  0000e	74 1a		 je	 SHORT $L77120
  00010	56		 push	 esi
$L77118:

; 67   :       _Construct(&*__cur, *__first);

  00011	85 c0		 test	 eax, eax
  00013	74 0a		 je	 SHORT $L77119
  00015	8b 31		 mov	 esi, DWORD PTR [ecx]
  00017	89 30		 mov	 DWORD PTR [eax], esi
  00019	8b 71 04	 mov	 esi, DWORD PTR [ecx+4]
  0001c	89 70 04	 mov	 DWORD PTR [eax+4], esi
$L77119:
  0001f	83 c1 08	 add	 ecx, 8
  00022	83 c0 08	 add	 eax, 8
  00025	3b ca		 cmp	 ecx, edx
  00027	75 e8		 jne	 SHORT $L77118
  00029	5e		 pop	 esi
$L77120:

; 68   :     return __cur;
; 69   :   }
; 70   :   _STLP_UNWIND(_STLP_STD::_Destroy(__result, __cur));
; 71   : # ifdef _STLP_THROW_RETURN_BUG
; 72   :   return __cur;
; 73   : # endif
; 74   : }

  0002a	c3		 ret	 0
??$__uninitialized_copy@PAUtagPOINT@@PAU1@@_STL@@YAPAUtagPOINT@@PAU1@00ABU__false_type@0@@Z ENDP ; _STL::__uninitialized_copy<tagPOINT *,tagPOINT *>
_TEXT	ENDS
PUBLIC	??$__uninitialized_fill_n@PAUtagPOINT@@IU1@@_STL@@YAPAUtagPOINT@@PAU1@IABU1@ABU__false_type@0@@Z ; _STL::__uninitialized_fill_n<tagPOINT *,unsigned int,tagPOINT>
; Function compile flags: /Ogty
;	COMDAT ??$__uninitialized_fill_n@PAUtagPOINT@@IU1@@_STL@@YAPAUtagPOINT@@PAU1@IABU1@ABU__false_type@0@@Z
_TEXT	SEGMENT
___first$ = 8						; size = 4
___n$ = 12						; size = 4
___x$ = 16						; size = 4
___formal$ = 20						; size = 4
??$__uninitialized_fill_n@PAUtagPOINT@@IU1@@_STL@@YAPAUtagPOINT@@PAU1@IABU1@ABU__false_type@0@@Z PROC NEAR ; _STL::__uninitialized_fill_n<tagPOINT *,unsigned int,tagPOINT>, COMDAT

; 193  :   _ForwardIter __cur = __first;
; 194  :   _STLP_TRY {
; 195  :     for ( ; __n > 0; --__n, ++__cur)

  00000	8b 4c 24 08	 mov	 ecx, DWORD PTR ___n$[esp-4]
  00004	85 c9		 test	 ecx, ecx
  00006	8b 44 24 04	 mov	 eax, DWORD PTR ___first$[esp-4]
  0000a	76 1a		 jbe	 SHORT $L77126
  0000c	8b 54 24 0c	 mov	 edx, DWORD PTR ___x$[esp-4]
  00010	56		 push	 esi
$L77124:

; 196  :       _Construct(&*__cur, __x);

  00011	85 c0		 test	 eax, eax
  00013	74 0a		 je	 SHORT $L77125
  00015	8b 32		 mov	 esi, DWORD PTR [edx]
  00017	89 30		 mov	 DWORD PTR [eax], esi
  00019	8b 72 04	 mov	 esi, DWORD PTR [edx+4]
  0001c	89 70 04	 mov	 DWORD PTR [eax+4], esi
$L77125:
  0001f	83 c0 08	 add	 eax, 8
  00022	49		 dec	 ecx
  00023	75 ec		 jne	 SHORT $L77124
  00025	5e		 pop	 esi
$L77126:

; 197  :     return __cur;
; 198  :   }
; 199  :   _STLP_UNWIND(_STLP_STD::_Destroy(__first, __cur));
; 200  : # ifdef _STLP_THROW_RETURN_BUG
; 201  :   return __cur;
; 202  : # endif
; 203  : }

  00026	c3		 ret	 0
??$__uninitialized_fill_n@PAUtagPOINT@@IU1@@_STL@@YAPAUtagPOINT@@PAU1@IABU1@ABU__false_type@0@@Z ENDP ; _STL::__uninitialized_fill_n<tagPOINT *,unsigned int,tagPOINT>
_TEXT	ENDS
PUBLIC	??$__uninitialized_copy@PAUtagRECT@@PAU1@@_STL@@YAPAUtagRECT@@PAU1@00ABU__false_type@0@@Z ; _STL::__uninitialized_copy<tagRECT *,tagRECT *>
; Function compile flags: /Ogty
;	COMDAT ??$__uninitialized_copy@PAUtagRECT@@PAU1@@_STL@@YAPAUtagRECT@@PAU1@00ABU__false_type@0@@Z
_TEXT	SEGMENT
___first$ = 8						; size = 4
___last$ = 12						; size = 4
___result$ = 16						; size = 4
___formal$ = 20						; size = 4
??$__uninitialized_copy@PAUtagRECT@@PAU1@@_STL@@YAPAUtagRECT@@PAU1@00ABU__false_type@0@@Z PROC NEAR ; _STL::__uninitialized_copy<tagRECT *,tagRECT *>, COMDAT

; 64   :   _ForwardIter __cur = __result;
; 65   :   _STLP_TRY {
; 66   :     for ( ; __first != __last; ++__first, ++__cur)

  00000	8b 4c 24 04	 mov	 ecx, DWORD PTR ___first$[esp-4]
  00004	8b 54 24 08	 mov	 edx, DWORD PTR ___last$[esp-4]
  00008	3b ca		 cmp	 ecx, edx
  0000a	8b 44 24 0c	 mov	 eax, DWORD PTR ___result$[esp-4]
  0000e	74 2e		 je	 SHORT $L77155
  00010	53		 push	 ebx
  00011	56		 push	 esi
  00012	57		 push	 edi
$L77153:

; 67   :       _Construct(&*__cur, *__first);

  00013	85 c0		 test	 eax, eax
  00015	74 1a		 je	 SHORT $L77154
  00017	8b f1		 mov	 esi, ecx
  00019	8b 1e		 mov	 ebx, DWORD PTR [esi]
  0001b	8b f8		 mov	 edi, eax
  0001d	89 1f		 mov	 DWORD PTR [edi], ebx
  0001f	8b 5e 04	 mov	 ebx, DWORD PTR [esi+4]
  00022	89 5f 04	 mov	 DWORD PTR [edi+4], ebx
  00025	8b 5e 08	 mov	 ebx, DWORD PTR [esi+8]
  00028	89 5f 08	 mov	 DWORD PTR [edi+8], ebx
  0002b	8b 76 0c	 mov	 esi, DWORD PTR [esi+12]
  0002e	89 77 0c	 mov	 DWORD PTR [edi+12], esi
$L77154:
  00031	83 c1 10	 add	 ecx, 16			; 00000010H
  00034	83 c0 10	 add	 eax, 16			; 00000010H
  00037	3b ca		 cmp	 ecx, edx
  00039	75 d8		 jne	 SHORT $L77153
  0003b	5f		 pop	 edi
  0003c	5e		 pop	 esi
  0003d	5b		 pop	 ebx
$L77155:

; 68   :     return __cur;
; 69   :   }
; 70   :   _STLP_UNWIND(_STLP_STD::_Destroy(__result, __cur));
; 71   : # ifdef _STLP_THROW_RETURN_BUG
; 72   :   return __cur;
; 73   : # endif
; 74   : }

  0003e	c3		 ret	 0
??$__uninitialized_copy@PAUtagRECT@@PAU1@@_STL@@YAPAUtagRECT@@PAU1@00ABU__false_type@0@@Z ENDP ; _STL::__uninitialized_copy<tagRECT *,tagRECT *>
_TEXT	ENDS
PUBLIC	??$__uninitialized_fill_n@PAUtagRECT@@IU1@@_STL@@YAPAUtagRECT@@PAU1@IABU1@ABU__false_type@0@@Z ; _STL::__uninitialized_fill_n<tagRECT *,unsigned int,tagRECT>
; Function compile flags: /Ogty
;	COMDAT ??$__uninitialized_fill_n@PAUtagRECT@@IU1@@_STL@@YAPAUtagRECT@@PAU1@IABU1@ABU__false_type@0@@Z
_TEXT	SEGMENT
___first$ = 8						; size = 4
___n$ = 12						; size = 4
___x$ = 16						; size = 4
___formal$ = 20						; size = 4
??$__uninitialized_fill_n@PAUtagRECT@@IU1@@_STL@@YAPAUtagRECT@@PAU1@IABU1@ABU__false_type@0@@Z PROC NEAR ; _STL::__uninitialized_fill_n<tagRECT *,unsigned int,tagRECT>, COMDAT

; 193  :   _ForwardIter __cur = __first;
; 194  :   _STLP_TRY {
; 195  :     for ( ; __n > 0; --__n, ++__cur)

  00000	8b 4c 24 08	 mov	 ecx, DWORD PTR ___n$[esp-4]
  00004	85 c9		 test	 ecx, ecx
  00006	8b 44 24 04	 mov	 eax, DWORD PTR ___first$[esp-4]
  0000a	76 2e		 jbe	 SHORT $L77161
  0000c	8b 54 24 0c	 mov	 edx, DWORD PTR ___x$[esp-4]
  00010	53		 push	 ebx
  00011	56		 push	 esi
  00012	57		 push	 edi
$L77159:

; 196  :       _Construct(&*__cur, __x);

  00013	85 c0		 test	 eax, eax
  00015	74 1a		 je	 SHORT $L77160
  00017	8b f2		 mov	 esi, edx
  00019	8b 1e		 mov	 ebx, DWORD PTR [esi]
  0001b	8b f8		 mov	 edi, eax
  0001d	89 1f		 mov	 DWORD PTR [edi], ebx
  0001f	8b 5e 04	 mov	 ebx, DWORD PTR [esi+4]
  00022	89 5f 04	 mov	 DWORD PTR [edi+4], ebx
  00025	8b 5e 08	 mov	 ebx, DWORD PTR [esi+8]
  00028	89 5f 08	 mov	 DWORD PTR [edi+8], ebx
  0002b	8b 76 0c	 mov	 esi, DWORD PTR [esi+12]
  0002e	89 77 0c	 mov	 DWORD PTR [edi+12], esi
$L77160:
  00031	83 c0 10	 add	 eax, 16			; 00000010H
  00034	49		 dec	 ecx
  00035	75 dc		 jne	 SHORT $L77159
  00037	5f		 pop	 edi
  00038	5e		 pop	 esi
  00039	5b		 pop	 ebx
$L77161:

; 197  :     return __cur;
; 198  :   }
; 199  :   _STLP_UNWIND(_STLP_STD::_Destroy(__first, __cur));
; 200  : # ifdef _STLP_THROW_RETURN_BUG
; 201  :   return __cur;
; 202  : # endif
; 203  : }

  0003a	c3		 ret	 0
??$__uninitialized_fill_n@PAUtagRECT@@IU1@@_STL@@YAPAUtagRECT@@PAU1@IABU1@ABU__false_type@0@@Z ENDP ; _STL::__uninitialized_fill_n<tagRECT *,unsigned int,tagRECT>
_TEXT	ENDS
PUBLIC	??$_M_range_initialize@PBD@?$basic_string@DV?$char_traits@D@_STL@@V?$allocator@D@2@@_STL@@AAEXPBD0@Z ; _STL::basic_string<char,_STL::char_traits<char>,_STL::allocator<char> >::_M_range_initialize<char const *>
; Function compile flags: /Ogty
; File c:\stlport-4.6.1\stlport\stl\_string.h
;	COMDAT ??$_M_range_initialize@PBD@?$basic_string@DV?$char_traits@D@_STL@@V?$allocator@D@2@@_STL@@AAEXPBD0@Z
_TEXT	SEGMENT
___f$ = 8						; size = 4
___l$ = 12						; size = 4
??$_M_range_initialize@PBD@?$basic_string@DV?$char_traits@D@_STL@@V?$allocator@D@2@@_STL@@AAEXPBD0@Z PROC NEAR ; _STL::basic_string<char,_STL::char_traits<char>,_STL::allocator<char> >::_M_range_initialize<char const *>, COMDAT
; _this$ = ecx

; 390  :   template <class _InputIter> void _M_range_initialize(_InputIter __f, _InputIter __l) {

  00000	53		 push	 ebx

; 391  :     _M_range_initialize(__f, __l, _STLP_ITERATOR_CATEGORY(__f, _InputIter));

  00001	8b 5c 24 08	 mov	 ebx, DWORD PTR ___f$[esp]
  00005	55		 push	 ebp
  00006	8b 6c 24 10	 mov	 ebp, DWORD PTR ___l$[esp+4]
  0000a	56		 push	 esi
  0000b	8b f5		 mov	 esi, ebp
  0000d	57		 push	 edi
  0000e	2b f3		 sub	 esi, ebx
  00010	8d 46 01	 lea	 eax, DWORD PTR [esi+1]
  00013	50		 push	 eax
  00014	8b f9		 mov	 edi, ecx
  00016	e8 00 00 00 00	 call	 ?_M_allocate_block@?$_String_base@DV?$allocator@D@_STL@@@_STL@@QAEXI@Z ; _STL::_String_base<char,_STL::allocator<char> >::_M_allocate_block
  0001b	3b eb		 cmp	 ebp, ebx
  0001d	8b 07		 mov	 eax, DWORD PTR [edi]
  0001f	74 0d		 je	 SHORT $L79565
  00021	56		 push	 esi
  00022	53		 push	 ebx
  00023	50		 push	 eax
  00024	e8 00 00 00 00	 call	 _memmove
  00029	83 c4 0c	 add	 esp, 12			; 0000000cH
  0002c	03 c6		 add	 eax, esi
$L79565:
  0002e	89 47 04	 mov	 DWORD PTR [edi+4], eax
  00031	5f		 pop	 edi
  00032	5e		 pop	 esi
  00033	5d		 pop	 ebp
  00034	c6 00 00	 mov	 BYTE PTR [eax], 0
  00037	5b		 pop	 ebx

; 392  :   }

  00038	c2 08 00	 ret	 8
??$_M_range_initialize@PBD@?$basic_string@DV?$char_traits@D@_STL@@V?$allocator@D@2@@_STL@@AAEXPBD0@Z ENDP ; _STL::basic_string<char,_STL::char_traits<char>,_STL::allocator<char> >::_M_range_initialize<char const *>
_TEXT	ENDS
PUBLIC	??$_M_find@V?$basic_string@DV?$char_traits@D@_STL@@V?$allocator@D@2@@_STL@@@?$_Rb_tree@V?$basic_string@DV?$char_traits@D@_STL@@V?$allocator@D@2@@_STL@@U?$pair@$$CBV?$basic_string@DV?$char_traits@D@_STL@@V?$allocator@D@2@@_STL@@H@2@U?$_Select1st@U?$pair@$$CBV?$basic_string@DV?$char_traits@D@_STL@@V?$allocator@D@2@@_STL@@H@_STL@@@2@U?$less@V?$basic_string@DV?$char_traits@D@_STL@@V?$allocator@D@2@@_STL@@@2@V?$allocator@U?$pair@$$CBV?$basic_string@DV?$char_traits@D@_STL@@V?$allocator@D@2@@_STL@@H@_STL@@@2@@_STL@@ABEPAU?$_Rb_tree_node@U?$pair@$$CBV?$basic_string@DV?$char_traits@D@_STL@@V?$allocator@D@2@@_STL@@H@_STL@@@1@ABV?$basic_string@DV?$char_traits@D@_STL@@V?$allocator@D@2@@1@@Z ; _STL::_Rb_tree<_STL::basic_string<char,_STL::char_traits<char>,_STL::allocator<char> >,_STL::pair<_STL::basic_string<char,_STL::char_traits<char>,_STL::allocator<char> > const ,int>,_STL::_Select1st<_STL::pair<_STL::basic_string<char,_STL::char_traits<char>,_STL::allocator<char> > const ,int> >,_STL::less<_STL::basic_string<char,_STL::char_traits<char>,_STL::allocator<char> > >,_STL::allocator<_STL::pair<_STL::basic_string<char,_STL::char_traits<char>,_STL::allocator<char> > const ,int> > >::_M_find<_STL::basic_string<char,_STL::char_traits<char>,_STL::allocator<char> > >
; Function compile flags: /Ogty
; File c:\stlport-4.6.1\stlport\stl\_tree.h
;	COMDAT ??$_M_find@V?$basic_string@DV?$char_traits@D@_STL@@V?$allocator@D@2@@_STL@@@?$_Rb_tree@V?$basic_string@DV?$char_traits@D@_STL@@V?$allocator@D@2@@_STL@@U?$pair@$$CBV?$basic_string@DV?$char_traits@D@_STL@@V?$allocator@D@2@@_STL@@H@2@U?$_Select1st@U?$pair@$$CBV?$basic_string@DV?$char_traits@D@_STL@@V?$allocator@D@2@@_STL@@H@_STL@@@2@U?$less@V?$basic_string@DV?$char_traits@D@_STL@@V?$allocator@D@2@@_STL@@@2@V?$allocator@U?$pair@$$CBV?$basic_string@DV?$char_traits@D@_STL@@V?$allocator@D@2@@_STL@@H@_STL@@@2@@_STL@@ABEPAU?$_Rb_tree_node@U?$pair@$$CBV?$basic_string@DV?$char_traits@D@_STL@@V?$allocator@D@2@@_STL@@H@_STL@@@1@ABV?$basic_string@DV?$char_traits@D@_STL@@V?$allocator@D@2@@1@@Z
_TEXT	SEGMENT
___y$ = -20						; size = 4
$T79596 = -16						; size = 4
___n2$79678 = -12					; size = 4
___n1$79677 = -8					; size = 4
tv193 = -4						; size = 4
___k$ = 8						; size = 4
??$_M_find@V?$basic_string@DV?$char_traits@D@_STL@@V?$allocator@D@2@@_STL@@@?$_Rb_tree@V?$basic_string@DV?$char_traits@D@_STL@@V?$allocator@D@2@@_STL@@U?$pair@$$CBV?$basic_string@DV?$char_traits@D@_STL@@V?$allocator@D@2@@_STL@@H@2@U?$_Select1st@U?$pair@$$CBV?$basic_string@DV?$char_traits@D@_STL@@V?$allocator@D@2@@_STL@@H@_STL@@@2@U?$less@V?$basic_string@DV?$char_traits@D@_STL@@V?$allocator@D@2@@_STL@@@2@V?$allocator@U?$pair@$$CBV?$basic_string@DV?$char_traits@D@_STL@@V?$allocator@D@2@@_STL@@H@_STL@@@2@@_STL@@ABEPAU?$_Rb_tree_node@U?$pair@$$CBV?$basic_string@DV?$char_traits@D@_STL@@V?$allocator@D@2@@_STL@@H@_STL@@@1@ABV?$basic_string@DV?$char_traits@D@_STL@@V?$allocator@D@2@@1@@Z PROC NEAR ; _STL::_Rb_tree<_STL::basic_string<char,_STL::char_traits<char>,_STL::allocator<char> >,_STL::pair<_STL::basic_string<char,_STL::char_traits<char>,_STL::allocator<char> > const ,int>,_STL::_Select1st<_STL::pair<_STL::basic_string<char,_STL::char_traits<char>,_STL::allocator<char> > const ,int> >,_STL::less<_STL::basic_string<char,_STL::char_traits<char>,_STL::allocator<char> > >,_STL::allocator<_STL::pair<_STL::basic_string<char,_STL::char_traits<char>,_STL::allocator<char> > const ,int> > >::_M_find<_STL::basic_string<char,_STL::char_traits<char>,_STL::allocator<char> > >, COMDAT
; _this$ = ecx

; 461  :   template <class _KT> _Rb_tree_node<_Value>* _M_find(const _KT& __k) const

  00000	83 ec 14	 sub	 esp, 20			; 00000014H
  00003	53		 push	 ebx
  00004	56		 push	 esi

; 462  : # else
; 463  :   iterator find(const key_type& __x) { return iterator(_M_find(__x)); }
; 464  :   const_iterator find(const key_type& __x) const { return const_iterator(_M_find(__x)); }
; 465  : private:
; 466  :   _Rb_tree_node<_Value>* _M_find(const key_type& __k) const
; 467  : # endif
; 468  :   {
; 469  :     _Link_type __y = this->_M_header._M_data;      // Last node which is not less than __k. 

  00005	8b 31		 mov	 esi, DWORD PTR [ecx]

; 470  :     _Link_type __x = _M_root();      // Current node. 

  00007	8b 5e 04	 mov	 ebx, DWORD PTR [esi+4]

; 471  :     
; 472  :     while (__x != 0) 

  0000a	85 db		 test	 ebx, ebx
  0000c	57		 push	 edi
  0000d	8b fe		 mov	 edi, esi
  0000f	89 74 24 1c	 mov	 DWORD PTR tv193[esp+32], esi
  00013	89 7c 24 0c	 mov	 DWORD PTR ___y$[esp+32], edi
  00017	74 69		 je	 SHORT $L77448

; 473  :       if (!_M_key_compare(_S_key(__x), __k))

  00019	8b 44 24 24	 mov	 eax, DWORD PTR ___k$[esp+28]
  0001d	8b 38		 mov	 edi, DWORD PTR [eax]
  0001f	55		 push	 ebp
  00020	8b 68 04	 mov	 ebp, DWORD PTR [eax+4]
  00023	2b ef		 sub	 ebp, edi
  00025	89 7c 24 14	 mov	 DWORD PTR $T79596[esp+36], edi
  00029	89 6c 24 18	 mov	 DWORD PTR ___n2$79678[esp+36], ebp
  0002d	eb 04		 jmp	 SHORT $L77447
$L79721:
  0002f	8b 7c 24 14	 mov	 edi, DWORD PTR $T79596[esp+36]
$L77447:
  00033	8b 73 10	 mov	 esi, DWORD PTR [ebx+16]
  00036	8b 43 14	 mov	 eax, DWORD PTR [ebx+20]
  00039	2b c6		 sub	 eax, esi
  0003b	3b e8		 cmp	 ebp, eax
  0003d	89 44 24 1c	 mov	 DWORD PTR ___n1$79677[esp+36], eax
  00041	8d 4c 24 18	 lea	 ecx, DWORD PTR ___n2$79678[esp+36]
  00045	7c 04		 jl	 SHORT $L79688
  00047	8d 4c 24 1c	 lea	 ecx, DWORD PTR ___n1$79677[esp+36]
$L79688:
  0004b	8b 09		 mov	 ecx, DWORD PTR [ecx]
  0004d	33 d2		 xor	 edx, edx
  0004f	f3 a6		 repe cmpsb
  00051	74 05		 je	 SHORT $L79719
  00053	1b d2		 sbb	 edx, edx
  00055	83 da ff	 sbb	 edx, -1
$L79719:
  00058	85 d2		 test	 edx, edx
  0005a	75 0b		 jne	 SHORT $L79722
  0005c	3b c5		 cmp	 eax, ebp
  0005e	7c 12		 jl	 SHORT $L77449
  00060	3b c5		 cmp	 eax, ebp
  00062	0f 9f c2	 setg	 dl
  00065	85 d2		 test	 edx, edx
$L79722:
  00067	7c 09		 jl	 SHORT $L77449

; 474  : 	__y = __x, __x = _S_left(__x);

  00069	89 5c 24 10	 mov	 DWORD PTR ___y$[esp+36], ebx
  0006d	8b 5b 08	 mov	 ebx, DWORD PTR [ebx+8]

; 475  :       else

  00070	eb 03		 jmp	 SHORT $L77450
$L77449:

; 476  : 	__x = _S_right(__x);

  00072	8b 5b 0c	 mov	 ebx, DWORD PTR [ebx+12]
$L77450:

; 471  :     
; 472  :     while (__x != 0) 

  00075	85 db		 test	 ebx, ebx
  00077	75 b6		 jne	 SHORT $L79721
  00079	8b 74 24 20	 mov	 esi, DWORD PTR tv193[esp+36]
  0007d	8b 7c 24 10	 mov	 edi, DWORD PTR ___y$[esp+36]
  00081	5d		 pop	 ebp
$L77448:

; 477  :     if (__y == this->_M_header._M_data || _M_key_compare(__k, _S_key(__y)))

  00082	3b fe		 cmp	 edi, esi
  00084	74 15		 je	 SHORT $L77452
  00086	8b 4c 24 24	 mov	 ecx, DWORD PTR ___k$[esp+28]
  0008a	8d 47 10	 lea	 eax, DWORD PTR [edi+16]
  0008d	50		 push	 eax
  0008e	51		 push	 ecx
  0008f	e8 00 00 00 00	 call	 ??$?MDV?$char_traits@D@_STL@@V?$allocator@D@1@@_STL@@YA_NABV?$basic_string@DV?$char_traits@D@_STL@@V?$allocator@D@2@@0@0@Z ; _STL::operator<<char,_STL::char_traits<char>,_STL::allocator<char> >
  00094	83 c4 08	 add	 esp, 8
  00097	84 c0		 test	 al, al
  00099	74 0b		 je	 SHORT $L79720
$L77452:
  0009b	5f		 pop	 edi

; 478  :       __y = this->_M_header._M_data;
; 479  :     return __y;

  0009c	8b c6		 mov	 eax, esi
  0009e	5e		 pop	 esi
  0009f	5b		 pop	 ebx

; 480  :   }

  000a0	83 c4 14	 add	 esp, 20			; 00000014H
  000a3	c2 04 00	 ret	 4
$L79720:

; 478  :       __y = this->_M_header._M_data;
; 479  :     return __y;

  000a6	8b c7		 mov	 eax, edi
  000a8	5f		 pop	 edi
  000a9	5e		 pop	 esi
  000aa	5b		 pop	 ebx

; 480  :   }

  000ab	83 c4 14	 add	 esp, 20			; 00000014H
  000ae	c2 04 00	 ret	 4
??$_M_find@V?$basic_string@DV?$char_traits@D@_STL@@V?$allocator@D@2@@_STL@@@?$_Rb_tree@V?$basic_string@DV?$char_traits@D@_STL@@V?$allocator@D@2@@_STL@@U?$pair@$$CBV?$basic_string@DV?$char_traits@D@_STL@@V?$allocator@D@2@@_STL@@H@2@U?$_Select1st@U?$pair@$$CBV?$basic_string@DV?$char_traits@D@_STL@@V?$allocator@D@2@@_STL@@H@_STL@@@2@U?$less@V?$basic_string@DV?$char_traits@D@_STL@@V?$allocator@D@2@@_STL@@@2@V?$allocator@U?$pair@$$CBV?$basic_string@DV?$char_traits@D@_STL@@V?$allocator@D@2@@_STL@@H@_STL@@@2@@_STL@@ABEPAU?$_Rb_tree_node@U?$pair@$$CBV?$basic_string@DV?$char_traits@D@_STL@@V?$allocator@D@2@@_STL@@H@_STL@@@1@ABV?$basic_string@DV?$char_traits@D@_STL@@V?$allocator@D@2@@1@@Z ENDP ; _STL::_Rb_tree<_STL::basic_string<char,_STL::char_traits<char>,_STL::allocator<char> >,_STL::pair<_STL::basic_string<char,_STL::char_traits<char>,_STL::allocator<char> > const ,int>,_STL::_Select1st<_STL::pair<_STL::basic_string<char,_STL::char_traits<char>,_STL::allocator<char> > const ,int> >,_STL::less<_STL::basic_string<char,_STL::char_traits<char>,_STL::allocator<char> > >,_STL::allocator<_STL::pair<_STL::basic_string<char,_STL::char_traits<char>,_STL::allocator<char> > const ,int> > >::_M_find<_STL::basic_string<char,_STL::char_traits<char>,_STL::allocator<char> > >
_TEXT	ENDS
PUBLIC	??$uninitialized_copy@PADPAD@_STL@@YAPADPAD00@Z	; _STL::uninitialized_copy<char *,char *>
; Function compile flags: /Ogty
; File c:\stlport-4.6.1\stlport\stl\_uninitialized.h
;	COMDAT ??$uninitialized_copy@PADPAD@_STL@@YAPADPAD00@Z
_TEXT	SEGMENT
___first$ = 8						; size = 4
___last$ = 12						; size = 4
___result$ = 16						; size = 4
??$uninitialized_copy@PADPAD@_STL@@YAPADPAD00@Z PROC NEAR ; _STL::uninitialized_copy<char *,char *>, COMDAT

; 79   :   return __uninitialized_copy(__first, __last, __result,  _IS_POD_ITER(__result, _ForwardIter));

  00000	8b 44 24 04	 mov	 eax, DWORD PTR ___first$[esp-4]
  00004	56		 push	 esi
  00005	8b 74 24 0c	 mov	 esi, DWORD PTR ___last$[esp]
  00009	3b f0		 cmp	 esi, eax
  0000b	75 06		 jne	 SHORT $L79796
  0000d	8b 44 24 10	 mov	 eax, DWORD PTR ___result$[esp]
  00011	5e		 pop	 esi

; 80   : }

  00012	c3		 ret	 0

; 79   :   return __uninitialized_copy(__first, __last, __result,  _IS_POD_ITER(__result, _ForwardIter));

$L79796:
  00013	2b f0		 sub	 esi, eax
  00015	56		 push	 esi
  00016	50		 push	 eax
  00017	8b 44 24 18	 mov	 eax, DWORD PTR ___result$[esp+8]
  0001b	50		 push	 eax
  0001c	e8 00 00 00 00	 call	 _memmove
  00021	83 c4 0c	 add	 esp, 12			; 0000000cH
  00024	03 c6		 add	 eax, esi
  00026	5e		 pop	 esi

; 80   : }

  00027	c3		 ret	 0
??$uninitialized_copy@PADPAD@_STL@@YAPADPAD00@Z ENDP	; _STL::uninitialized_copy<char *,char *>
_TEXT	ENDS
PUBLIC	??1?$_String_base@DV?$allocator@D@_STL@@@_STL@@QAE@XZ ; _STL::_String_base<char,_STL::allocator<char> >::~_String_base<char,_STL::allocator<char> >
; Function compile flags: /Ogty
; File c:\stlport-4.6.1\stlport\stl\_string.h
;	COMDAT ??1?$_String_base@DV?$allocator@D@_STL@@@_STL@@QAE@XZ
_TEXT	SEGMENT
??1?$_String_base@DV?$allocator@D@_STL@@@_STL@@QAE@XZ PROC NEAR ; _STL::_String_base<char,_STL::allocator<char> >::~_String_base<char,_STL::allocator<char> >, COMDAT
; _this$ = ecx

; 135  :   ~_String_base() { _M_deallocate_block(); }

  00000	8b 11		 mov	 edx, DWORD PTR [ecx]
  00002	8b 41 08	 mov	 eax, DWORD PTR [ecx+8]
  00005	2b c2		 sub	 eax, edx
  00007	85 d2		 test	 edx, edx
  00009	74 1b		 je	 SHORT $L79832
  0000b	3d 80 00 00 00	 cmp	 eax, 128		; 00000080H
  00010	76 0a		 jbe	 SHORT $L79831
  00012	52		 push	 edx
  00013	e8 00 00 00 00	 call	 ??3@YAXPAX@Z		; operator delete
  00018	83 c4 04	 add	 esp, 4
  0001b	c3		 ret	 0
$L79831:
  0001c	50		 push	 eax
  0001d	52		 push	 edx
  0001e	e8 00 00 00 00	 call	 ?_M_deallocate@?$__node_alloc@$00$0A@@_STL@@CAXPAXI@Z ; _STL::__node_alloc<1,0>::_M_deallocate
  00023	83 c4 08	 add	 esp, 8
$L79832:
  00026	c3		 ret	 0
??1?$_String_base@DV?$allocator@D@_STL@@@_STL@@QAE@XZ ENDP ; _STL::_String_base<char,_STL::allocator<char> >::~_String_base<char,_STL::allocator<char> >
_TEXT	ENDS
PUBLIC	??1?$vector@UtagPOINT@@V?$allocator@UtagPOINT@@@_STL@@@_STL@@QAE@XZ ; _STL::vector<tagPOINT,_STL::allocator<tagPOINT> >::~vector<tagPOINT,_STL::allocator<tagPOINT> >
; Function compile flags: /Ogty
; File c:\stlport-4.6.1\stlport\stl\_vector.h
;	COMDAT ??1?$vector@UtagPOINT@@V?$allocator@UtagPOINT@@@_STL@@@_STL@@QAE@XZ
_TEXT	SEGMENT
??1?$vector@UtagPOINT@@V?$allocator@UtagPOINT@@@_STL@@@_STL@@QAE@XZ PROC NEAR ; _STL::vector<tagPOINT,_STL::allocator<tagPOINT> >::~vector<tagPOINT,_STL::allocator<tagPOINT> >, COMDAT
; _this$ = ecx

; 258  :   ~vector() { _Destroy(this->_M_start, this->_M_finish); }

  00000	8b 11		 mov	 edx, DWORD PTR [ecx]
  00002	85 d2		 test	 edx, edx
  00004	74 26		 je	 SHORT $L79872
  00006	8b 41 08	 mov	 eax, DWORD PTR [ecx+8]
  00009	2b c2		 sub	 eax, edx
  0000b	c1 f8 03	 sar	 eax, 3
  0000e	c1 e0 03	 shl	 eax, 3
  00011	3d 80 00 00 00	 cmp	 eax, 128		; 00000080H
  00016	76 0a		 jbe	 SHORT $L79871
  00018	52		 push	 edx
  00019	e8 00 00 00 00	 call	 ??3@YAXPAX@Z		; operator delete
  0001e	83 c4 04	 add	 esp, 4
  00021	c3		 ret	 0
$L79871:
  00022	50		 push	 eax
  00023	52		 push	 edx
  00024	e8 00 00 00 00	 call	 ?_M_deallocate@?$__node_alloc@$00$0A@@_STL@@CAXPAXI@Z ; _STL::__node_alloc<1,0>::_M_deallocate
  00029	83 c4 08	 add	 esp, 8
$L79872:
  0002c	c3		 ret	 0
??1?$vector@UtagPOINT@@V?$allocator@UtagPOINT@@@_STL@@@_STL@@QAE@XZ ENDP ; _STL::vector<tagPOINT,_STL::allocator<tagPOINT> >::~vector<tagPOINT,_STL::allocator<tagPOINT> >
_TEXT	ENDS
PUBLIC	??1?$vector@UtagRECT@@V?$allocator@UtagRECT@@@_STL@@@_STL@@QAE@XZ ; _STL::vector<tagRECT,_STL::allocator<tagRECT> >::~vector<tagRECT,_STL::allocator<tagRECT> >
; Function compile flags: /Ogty
;	COMDAT ??1?$vector@UtagRECT@@V?$allocator@UtagRECT@@@_STL@@@_STL@@QAE@XZ
_TEXT	SEGMENT
??1?$vector@UtagRECT@@V?$allocator@UtagRECT@@@_STL@@@_STL@@QAE@XZ PROC NEAR ; _STL::vector<tagRECT,_STL::allocator<tagRECT> >::~vector<tagRECT,_STL::allocator<tagRECT> >, COMDAT
; _this$ = ecx

; 258  :   ~vector() { _Destroy(this->_M_start, this->_M_finish); }

  00000	8b 11		 mov	 edx, DWORD PTR [ecx]
  00002	85 d2		 test	 edx, edx
  00004	74 26		 je	 SHORT $L79911
  00006	8b 41 08	 mov	 eax, DWORD PTR [ecx+8]
  00009	2b c2		 sub	 eax, edx
  0000b	c1 f8 04	 sar	 eax, 4
  0000e	c1 e0 04	 shl	 eax, 4
  00011	3d 80 00 00 00	 cmp	 eax, 128		; 00000080H
  00016	76 0a		 jbe	 SHORT $L79910
  00018	52		 push	 edx
  00019	e8 00 00 00 00	 call	 ??3@YAXPAX@Z		; operator delete
  0001e	83 c4 04	 add	 esp, 4
  00021	c3		 ret	 0
$L79910:
  00022	50		 push	 eax
  00023	52		 push	 edx
  00024	e8 00 00 00 00	 call	 ?_M_deallocate@?$__node_alloc@$00$0A@@_STL@@CAXPAXI@Z ; _STL::__node_alloc<1,0>::_M_deallocate
  00029	83 c4 08	 add	 esp, 8
$L79911:
  0002c	c3		 ret	 0
??1?$vector@UtagRECT@@V?$allocator@UtagRECT@@@_STL@@@_STL@@QAE@XZ ENDP ; _STL::vector<tagRECT,_STL::allocator<tagRECT> >::~vector<tagRECT,_STL::allocator<tagRECT> >
_TEXT	ENDS
PUBLIC	?erase@?$vector@UtagPOINT@@V?$allocator@UtagPOINT@@@_STL@@@_STL@@QAEPAUtagPOINT@@PAU3@0@Z ; _STL::vector<tagPOINT,_STL::allocator<tagPOINT> >::erase
; Function compile flags: /Ogty
;	COMDAT ?erase@?$vector@UtagPOINT@@V?$allocator@UtagPOINT@@@_STL@@@_STL@@QAEPAUtagPOINT@@PAU3@0@Z
_TEXT	SEGMENT
___first$ = 8						; size = 4
___last$ = 12						; size = 4
?erase@?$vector@UtagPOINT@@V?$allocator@UtagPOINT@@@_STL@@@_STL@@QAEPAUtagPOINT@@PAU3@0@Z PROC NEAR ; _STL::vector<tagPOINT,_STL::allocator<tagPOINT> >::erase, COMDAT
; _this$ = ecx

; 474  :     pointer __i = __copy_ptrs(__last, this->_M_finish, __first, _TrivialAss());

  00000	8b 44 24 04	 mov	 eax, DWORD PTR ___first$[esp-4]
  00004	56		 push	 esi
  00005	8b 71 04	 mov	 esi, DWORD PTR [ecx+4]
  00008	57		 push	 edi
  00009	8b 7c 24 10	 mov	 edi, DWORD PTR ___last$[esp+4]
  0000d	2b f7		 sub	 esi, edi
  0000f	c1 fe 03	 sar	 esi, 3
  00012	85 f6		 test	 esi, esi
  00014	8b d0		 mov	 edx, eax
  00016	7e 1b		 jle	 SHORT $L79943
  00018	2b f8		 sub	 edi, eax
  0001a	53		 push	 ebx
  0001b	eb 03 8d 49 00	 npad	 5
$L79936:
  00020	8b 1c 17	 mov	 ebx, DWORD PTR [edi+edx]
  00023	89 1a		 mov	 DWORD PTR [edx], ebx
  00025	8b 5c 17 04	 mov	 ebx, DWORD PTR [edi+edx+4]
  00029	89 5a 04	 mov	 DWORD PTR [edx+4], ebx
  0002c	83 c2 08	 add	 edx, 8
  0002f	4e		 dec	 esi
  00030	75 ee		 jne	 SHORT $L79936
  00032	5b		 pop	 ebx
$L79943:
  00033	5f		 pop	 edi

; 475  :     _Destroy(__i, this->_M_finish);
; 476  :     this->_M_finish = __i;

  00034	89 51 04	 mov	 DWORD PTR [ecx+4], edx
  00037	5e		 pop	 esi

; 477  :     return __first;
; 478  :   }

  00038	c2 08 00	 ret	 8
?erase@?$vector@UtagPOINT@@V?$allocator@UtagPOINT@@@_STL@@@_STL@@QAEPAUtagPOINT@@PAU3@0@Z ENDP ; _STL::vector<tagPOINT,_STL::allocator<tagPOINT> >::erase
_TEXT	ENDS
PUBLIC	?erase@?$vector@UtagRECT@@V?$allocator@UtagRECT@@@_STL@@@_STL@@QAEPAUtagRECT@@PAU3@0@Z ; _STL::vector<tagRECT,_STL::allocator<tagRECT> >::erase
; Function compile flags: /Ogty
;	COMDAT ?erase@?$vector@UtagRECT@@V?$allocator@UtagRECT@@@_STL@@@_STL@@QAEPAUtagRECT@@PAU3@0@Z
_TEXT	SEGMENT
$T79951 = 8						; size = 1
___first$ = 8						; size = 4
___last$ = 12						; size = 4
?erase@?$vector@UtagRECT@@V?$allocator@UtagRECT@@@_STL@@@_STL@@QAEPAUtagRECT@@PAU3@0@Z PROC NEAR ; _STL::vector<tagRECT,_STL::allocator<tagRECT> >::erase, COMDAT
; _this$ = ecx

; 474  :     pointer __i = __copy_ptrs(__last, this->_M_finish, __first, _TrivialAss());

  00000	8b 54 24 08	 mov	 edx, DWORD PTR ___last$[esp-4]
  00004	56		 push	 esi
  00005	57		 push	 edi
  00006	8b 7c 24 0c	 mov	 edi, DWORD PTR ___first$[esp+4]
  0000a	8b f1		 mov	 esi, ecx
  0000c	8b 46 04	 mov	 eax, DWORD PTR [esi+4]
  0000f	6a 00		 push	 0
  00011	8d 4c 24 10	 lea	 ecx, DWORD PTR $T79951[esp+8]
  00015	51		 push	 ecx
  00016	57		 push	 edi
  00017	50		 push	 eax
  00018	52		 push	 edx
  00019	e8 00 00 00 00	 call	 ??$__copy@PAUtagRECT@@PAU1@H@_STL@@YAPAUtagRECT@@PAU1@00ABUrandom_access_iterator_tag@0@PAH@Z ; _STL::__copy<tagRECT *,tagRECT *,int>
  0001e	83 c4 14	 add	 esp, 20			; 00000014H

; 475  :     _Destroy(__i, this->_M_finish);
; 476  :     this->_M_finish = __i;

  00021	89 46 04	 mov	 DWORD PTR [esi+4], eax

; 477  :     return __first;

  00024	8b c7		 mov	 eax, edi
  00026	5f		 pop	 edi
  00027	5e		 pop	 esi

; 478  :   }

  00028	c2 08 00	 ret	 8
?erase@?$vector@UtagRECT@@V?$allocator@UtagRECT@@@_STL@@@_STL@@QAEPAUtagRECT@@PAU3@0@Z ENDP ; _STL::vector<tagRECT,_STL::allocator<tagRECT> >::erase
_TEXT	ENDS
PUBLIC	?_M_clear@?$vector@UtagPOINT@@V?$allocator@UtagPOINT@@@_STL@@@_STL@@IAEXXZ ; _STL::vector<tagPOINT,_STL::allocator<tagPOINT> >::_M_clear
; Function compile flags: /Ogty
;	COMDAT ?_M_clear@?$vector@UtagPOINT@@V?$allocator@UtagPOINT@@@_STL@@@_STL@@IAEXXZ
_TEXT	SEGMENT
?_M_clear@?$vector@UtagPOINT@@V?$allocator@UtagPOINT@@@_STL@@@_STL@@IAEXXZ PROC NEAR ; _STL::vector<tagPOINT,_STL::allocator<tagPOINT> >::_M_clear, COMDAT
; _this$ = ecx

; 494  :     //    if (this->_M_start) {
; 495  :     _Destroy(this->_M_start, this->_M_finish);
; 496  :     this->_M_end_of_storage.deallocate(this->_M_start, this->_M_end_of_storage._M_data - this->_M_start);

  00000	8b 11		 mov	 edx, DWORD PTR [ecx]
  00002	85 d2		 test	 edx, edx
  00004	74 26		 je	 SHORT $L79975
  00006	8b 41 08	 mov	 eax, DWORD PTR [ecx+8]
  00009	2b c2		 sub	 eax, edx
  0000b	c1 f8 03	 sar	 eax, 3
  0000e	c1 e0 03	 shl	 eax, 3
  00011	3d 80 00 00 00	 cmp	 eax, 128		; 00000080H
  00016	76 0a		 jbe	 SHORT $L79974
  00018	52		 push	 edx
  00019	e8 00 00 00 00	 call	 ??3@YAXPAX@Z		; operator delete
  0001e	83 c4 04	 add	 esp, 4

; 497  :     //    }
; 498  :   }

  00021	c3		 ret	 0

; 494  :     //    if (this->_M_start) {
; 495  :     _Destroy(this->_M_start, this->_M_finish);
; 496  :     this->_M_end_of_storage.deallocate(this->_M_start, this->_M_end_of_storage._M_data - this->_M_start);

$L79974:
  00022	50		 push	 eax
  00023	52		 push	 edx
  00024	e8 00 00 00 00	 call	 ?_M_deallocate@?$__node_alloc@$00$0A@@_STL@@CAXPAXI@Z ; _STL::__node_alloc<1,0>::_M_deallocate
  00029	83 c4 08	 add	 esp, 8
$L79975:

; 497  :     //    }
; 498  :   }

  0002c	c3		 ret	 0
?_M_clear@?$vector@UtagPOINT@@V?$allocator@UtagPOINT@@@_STL@@@_STL@@IAEXXZ ENDP ; _STL::vector<tagPOINT,_STL::allocator<tagPOINT> >::_M_clear
_TEXT	ENDS
PUBLIC	?_M_clear@?$vector@UtagRECT@@V?$allocator@UtagRECT@@@_STL@@@_STL@@IAEXXZ ; _STL::vector<tagRECT,_STL::allocator<tagRECT> >::_M_clear
; Function compile flags: /Ogty
;	COMDAT ?_M_clear@?$vector@UtagRECT@@V?$allocator@UtagRECT@@@_STL@@@_STL@@IAEXXZ
_TEXT	SEGMENT
?_M_clear@?$vector@UtagRECT@@V?$allocator@UtagRECT@@@_STL@@@_STL@@IAEXXZ PROC NEAR ; _STL::vector<tagRECT,_STL::allocator<tagRECT> >::_M_clear, COMDAT
; _this$ = ecx

; 494  :     //    if (this->_M_start) {
; 495  :     _Destroy(this->_M_start, this->_M_finish);
; 496  :     this->_M_end_of_storage.deallocate(this->_M_start, this->_M_end_of_storage._M_data - this->_M_start);

  00000	8b 11		 mov	 edx, DWORD PTR [ecx]
  00002	85 d2		 test	 edx, edx
  00004	74 26		 je	 SHORT $L80001
  00006	8b 41 08	 mov	 eax, DWORD PTR [ecx+8]
  00009	2b c2		 sub	 eax, edx
  0000b	c1 f8 04	 sar	 eax, 4
  0000e	c1 e0 04	 shl	 eax, 4
  00011	3d 80 00 00 00	 cmp	 eax, 128		; 00000080H
  00016	76 0a		 jbe	 SHORT $L80000
  00018	52		 push	 edx
  00019	e8 00 00 00 00	 call	 ??3@YAXPAX@Z		; operator delete
  0001e	83 c4 04	 add	 esp, 4

; 497  :     //    }
; 498  :   }

  00021	c3		 ret	 0

; 494  :     //    if (this->_M_start) {
; 495  :     _Destroy(this->_M_start, this->_M_finish);
; 496  :     this->_M_end_of_storage.deallocate(this->_M_start, this->_M_end_of_storage._M_data - this->_M_start);

$L80000:
  00022	50		 push	 eax
  00023	52		 push	 edx
  00024	e8 00 00 00 00	 call	 ?_M_deallocate@?$__node_alloc@$00$0A@@_STL@@CAXPAXI@Z ; _STL::__node_alloc<1,0>::_M_deallocate
  00029	83 c4 08	 add	 esp, 8
$L80001:

; 497  :     //    }
; 498  :   }

  0002c	c3		 ret	 0
?_M_clear@?$vector@UtagRECT@@V?$allocator@UtagRECT@@@_STL@@@_STL@@IAEXXZ ENDP ; _STL::vector<tagRECT,_STL::allocator<tagRECT> >::_M_clear
_TEXT	ENDS
PUBLIC	?lower_bound@?$_Rb_tree@V?$basic_string@DV?$char_traits@D@_STL@@V?$allocator@D@2@@_STL@@U?$pair@$$CBV?$basic_string@DV?$char_traits@D@_STL@@V?$allocator@D@2@@_STL@@H@2@U?$_Select1st@U?$pair@$$CBV?$basic_string@DV?$char_traits@D@_STL@@V?$allocator@D@2@@_STL@@H@_STL@@@2@U?$less@V?$basic_string@DV?$char_traits@D@_STL@@V?$allocator@D@2@@_STL@@@2@V?$allocator@U?$pair@$$CBV?$basic_string@DV?$char_traits@D@_STL@@V?$allocator@D@2@@_STL@@H@_STL@@@2@@_STL@@QAE?AU?$_Rb_tree_iterator@U?$pair@$$CBV?$basic_string@DV?$char_traits@D@_STL@@V?$allocator@D@2@@_STL@@H@_STL@@U?$_Nonconst_traits@U?$pair@$$CBV?$basic_string@DV?$char_traits@D@_STL@@V?$allocator@D@2@@_STL@@H@_STL@@@2@@2@ABV?$basic_string@DV?$char_traits@D@_STL@@V?$allocator@D@2@@2@@Z ; _STL::_Rb_tree<_STL::basic_string<char,_STL::char_traits<char>,_STL::allocator<char> >,_STL::pair<_STL::basic_string<char,_STL::char_traits<char>,_STL::allocator<char> > const ,int>,_STL::_Select1st<_STL::pair<_STL::basic_string<char,_STL::char_traits<char>,_STL::allocator<char> > const ,int> >,_STL::less<_STL::basic_string<char,_STL::char_traits<char>,_STL::allocator<char> > >,_STL::allocator<_STL::pair<_STL::basic_string<char,_STL::char_traits<char>,_STL::allocator<char> > const ,int> > >::lower_bound
; Function compile flags: /Ogty
; File c:\stlport-4.6.1\stlport\stl\_tree.h
;	COMDAT ?lower_bound@?$_Rb_tree@V?$basic_string@DV?$char_traits@D@_STL@@V?$allocator@D@2@@_STL@@U?$pair@$$CBV?$basic_string@DV?$char_traits@D@_STL@@V?$allocator@D@2@@_STL@@H@2@U?$_Select1st@U?$pair@$$CBV?$basic_string@DV?$char_traits@D@_STL@@V?$allocator@D@2@@_STL@@H@_STL@@@2@U?$less@V?$basic_string@DV?$char_traits@D@_STL@@V?$allocator@D@2@@_STL@@@2@V?$allocator@U?$pair@$$CBV?$basic_string@DV?$char_traits@D@_STL@@V?$allocator@D@2@@_STL@@H@_STL@@@2@@_STL@@QAE?AU?$_Rb_tree_iterator@U?$pair@$$CBV?$basic_string@DV?$char_traits@D@_STL@@V?$allocator@D@2@@_STL@@H@_STL@@U?$_Nonconst_traits@U?$pair@$$CBV?$basic_string@DV?$char_traits@D@_STL@@V?$allocator@D@2@@_STL@@H@_STL@@@2@@2@ABV?$basic_string@DV?$char_traits@D@_STL@@V?$allocator@D@2@@2@@Z
_TEXT	SEGMENT
___$ReturnUdt$ = 8					; size = 4
___x$ = 12						; size = 4
?lower_bound@?$_Rb_tree@V?$basic_string@DV?$char_traits@D@_STL@@V?$allocator@D@2@@_STL@@U?$pair@$$CBV?$basic_string@DV?$char_traits@D@_STL@@V?$allocator@D@2@@_STL@@H@2@U?$_Select1st@U?$pair@$$CBV?$basic_string@DV?$char_traits@D@_STL@@V?$allocator@D@2@@_STL@@H@_STL@@@2@U?$less@V?$basic_string@DV?$char_traits@D@_STL@@V?$allocator@D@2@@_STL@@@2@V?$allocator@U?$pair@$$CBV?$basic_string@DV?$char_traits@D@_STL@@V?$allocator@D@2@@_STL@@H@_STL@@@2@@_STL@@QAE?AU?$_Rb_tree_iterator@U?$pair@$$CBV?$basic_string@DV?$char_traits@D@_STL@@V?$allocator@D@2@@_STL@@H@_STL@@U?$_Nonconst_traits@U?$pair@$$CBV?$basic_string@DV?$char_traits@D@_STL@@V?$allocator@D@2@@_STL@@H@_STL@@@2@@2@ABV?$basic_string@DV?$char_traits@D@_STL@@V?$allocator@D@2@@2@@Z PROC NEAR ; _STL::_Rb_tree<_STL::basic_string<char,_STL::char_traits<char>,_STL::allocator<char> >,_STL::pair<_STL::basic_string<char,_STL::char_traits<char>,_STL::allocator<char> > const ,int>,_STL::_Select1st<_STL::pair<_STL::basic_string<char,_STL::char_traits<char>,_STL::allocator<char> > const ,int> >,_STL::less<_STL::basic_string<char,_STL::char_traits<char>,_STL::allocator<char> > >,_STL::allocator<_STL::pair<_STL::basic_string<char,_STL::char_traits<char>,_STL::allocator<char> > const ,int> > >::lower_bound, COMDAT
; _this$ = ecx

; 510  :   iterator lower_bound(const key_type& __x) { return iterator(_M_lower_bound(__x)); }

  00000	8b 44 24 08	 mov	 eax, DWORD PTR ___x$[esp-4]
  00004	50		 push	 eax
  00005	e8 00 00 00 00	 call	 ?_M_lower_bound@?$_Rb_tree@V?$basic_string@DV?$char_traits@D@_STL@@V?$allocator@D@2@@_STL@@U?$pair@$$CBV?$basic_string@DV?$char_traits@D@_STL@@V?$allocator@D@2@@_STL@@H@2@U?$_Select1st@U?$pair@$$CBV?$basic_string@DV?$char_traits@D@_STL@@V?$allocator@D@2@@_STL@@H@_STL@@@2@U?$less@V?$basic_string@DV?$char_traits@D@_STL@@V?$allocator@D@2@@_STL@@@2@V?$allocator@U?$pair@$$CBV?$basic_string@DV?$char_traits@D@_STL@@V?$allocator@D@2@@_STL@@H@_STL@@@2@@_STL@@ABEPAU?$_Rb_tree_node@U?$pair@$$CBV?$basic_string@DV?$char_traits@D@_STL@@V?$allocator@D@2@@_STL@@H@_STL@@@2@ABV?$basic_string@DV?$char_traits@D@_STL@@V?$allocator@D@2@@2@@Z ; _STL::_Rb_tree<_STL::basic_string<char,_STL::char_traits<char>,_STL::allocator<char> >,_STL::pair<_STL::basic_string<char,_STL::char_traits<char>,_STL::allocator<char> > const ,int>,_STL::_Select1st<_STL::pair<_STL::basic_string<char,_STL::char_traits<char>,_STL::allocator<char> > const ,int> >,_STL::less<_STL::basic_string<char,_STL::char_traits<char>,_STL::allocator<char> > >,_STL::allocator<_STL::pair<_STL::basic_string<char,_STL::char_traits<char>,_STL::allocator<char> > const ,int> > >::_M_lower_bound
  0000a	8b 4c 24 04	 mov	 ecx, DWORD PTR ___$ReturnUdt$[esp-4]
  0000e	89 01		 mov	 DWORD PTR [ecx], eax
  00010	8b c1		 mov	 eax, ecx
  00012	c2 08 00	 ret	 8
?lower_bound@?$_Rb_tree@V?$basic_string@DV?$char_traits@D@_STL@@V?$allocator@D@2@@_STL@@U?$pair@$$CBV?$basic_string@DV?$char_traits@D@_STL@@V?$allocator@D@2@@_STL@@H@2@U?$_Select1st@U?$pair@$$CBV?$basic_string@DV?$char_traits@D@_STL@@V?$allocator@D@2@@_STL@@H@_STL@@@2@U?$less@V?$basic_string@DV?$char_traits@D@_STL@@V?$allocator@D@2@@_STL@@@2@V?$allocator@U?$pair@$$CBV?$basic_string@DV?$char_traits@D@_STL@@V?$allocator@D@2@@_STL@@H@_STL@@@2@@_STL@@QAE?AU?$_Rb_tree_iterator@U?$pair@$$CBV?$basic_string@DV?$char_traits@D@_STL@@V?$allocator@D@2@@_STL@@H@_STL@@U?$_Nonconst_traits@U?$pair@$$CBV?$basic_string@DV?$char_traits@D@_STL@@V?$allocator@D@2@@_STL@@H@_STL@@@2@@2@ABV?$basic_string@DV?$char_traits@D@_STL@@V?$allocator@D@2@@2@@Z ENDP ; _STL::_Rb_tree<_STL::basic_string<char,_STL::char_traits<char>,_STL::allocator<char> >,_STL::pair<_STL::basic_string<char,_STL::char_traits<char>,_STL::allocator<char> > const ,int>,_STL::_Select1st<_STL::pair<_STL::basic_string<char,_STL::char_traits<char>,_STL::allocator<char> > const ,int> >,_STL::less<_STL::basic_string<char,_STL::char_traits<char>,_STL::allocator<char> > >,_STL::allocator<_STL::pair<_STL::basic_string<char,_STL::char_traits<char>,_STL::allocator<char> > const ,int> > >::lower_bound
_TEXT	ENDS
PUBLIC	??0?$basic_string@DV?$char_traits@D@_STL@@V?$allocator@D@2@@_STL@@QAE@PBDABV?$allocator@D@1@@Z ; _STL::basic_string<char,_STL::char_traits<char>,_STL::allocator<char> >::basic_string<char,_STL::char_traits<char>,_STL::allocator<char> >
EXTRN	__except_list:DWORD
EXTRN	___CxxFrameHandler:NEAR
;	COMDAT xdata$x
; File c:\stlport-4.6.1\stlport\stl\_string.h
xdata$x	SEGMENT
$T80117	DD	0ffffffffH
	DD	FLAT:$L80016
$T80113	DD	019930520H
	DD	01H
	DD	FLAT:$T80117
	DD	2 DUP(00H)
	DD	2 DUP(00H)
; Function compile flags: /Ogty
; File c:\stlport-4.6.1\stlport\stl\_string.c
xdata$x	ENDS
;	COMDAT ??0?$basic_string@DV?$char_traits@D@_STL@@V?$allocator@D@2@@_STL@@QAE@PBDABV?$allocator@D@1@@Z
_TEXT	SEGMENT
_this$ = -16						; size = 4
__$EHRec$ = -12						; size = 12
___s$ = 8						; size = 4
___a$ = 12						; size = 4
??0?$basic_string@DV?$char_traits@D@_STL@@V?$allocator@D@2@@_STL@@QAE@PBDABV?$allocator@D@1@@Z PROC NEAR ; _STL::basic_string<char,_STL::char_traits<char>,_STL::allocator<char> >::basic_string<char,_STL::char_traits<char>,_STL::allocator<char> >, COMDAT
; _this$ = ecx

; 552  : { 

  00000	6a ff		 push	 -1
  00002	68 00 00 00 00	 push	 __ehhandler$??0?$basic_string@DV?$char_traits@D@_STL@@V?$allocator@D@2@@_STL@@QAE@PBDABV?$allocator@D@1@@Z
  00007	64 a1 00 00 00
	00		 mov	 eax, DWORD PTR fs:__except_list
  0000d	50		 push	 eax
  0000e	64 89 25 00 00
	00 00		 mov	 DWORD PTR fs:__except_list, esp
  00015	51		 push	 ecx
  00016	55		 push	 ebp
  00017	56		 push	 esi
  00018	8b f1		 mov	 esi, ecx
  0001a	33 c0		 xor	 eax, eax
  0001c	89 06		 mov	 DWORD PTR [esi], eax
  0001e	89 46 04	 mov	 DWORD PTR [esi+4], eax
  00021	57		 push	 edi
  00022	89 74 24 0c	 mov	 DWORD PTR _this$[esp+28], esi
  00026	89 46 08	 mov	 DWORD PTR [esi+8], eax

; 553  :   _STLP_FIX_LITERAL_BUG(__s) 
; 554  :     _M_range_initialize(__s, __s + traits_type::length(__s));  

  00029	8b 6c 24 20	 mov	 ebp, DWORD PTR ___s$[esp+24]
  0002d	89 44 24 18	 mov	 DWORD PTR __$EHRec$[esp+36], eax
  00031	8b c5		 mov	 eax, ebp
  00033	8d 50 01	 lea	 edx, DWORD PTR [eax+1]
$L80114:
  00036	8a 08		 mov	 cl, BYTE PTR [eax]
  00038	40		 inc	 eax
  00039	84 c9		 test	 cl, cl
  0003b	75 f9		 jne	 SHORT $L80114
  0003d	2b c2		 sub	 eax, edx
  0003f	53		 push	 ebx
  00040	8d 1c 28	 lea	 ebx, DWORD PTR [eax+ebp]

; 555  : } 

  00043	8b fb		 mov	 edi, ebx
  00045	2b fd		 sub	 edi, ebp
  00047	8d 47 01	 lea	 eax, DWORD PTR [edi+1]
  0004a	50		 push	 eax
  0004b	8b ce		 mov	 ecx, esi
  0004d	e8 00 00 00 00	 call	 ?_M_allocate_block@?$_String_base@DV?$allocator@D@_STL@@@_STL@@QAEXI@Z ; _STL::_String_base<char,_STL::allocator<char> >::_M_allocate_block
  00052	8b 06		 mov	 eax, DWORD PTR [esi]
  00054	3b dd		 cmp	 ebx, ebp
  00056	5b		 pop	 ebx
  00057	74 0d		 je	 SHORT $L80102
  00059	57		 push	 edi
  0005a	55		 push	 ebp
  0005b	50		 push	 eax
  0005c	e8 00 00 00 00	 call	 _memmove
  00061	83 c4 0c	 add	 esp, 12			; 0000000cH
  00064	03 c7		 add	 eax, edi
$L80102:
  00066	8b 4c 24 10	 mov	 ecx, DWORD PTR __$EHRec$[esp+28]
  0006a	89 46 04	 mov	 DWORD PTR [esi+4], eax
  0006d	c6 00 00	 mov	 BYTE PTR [eax], 0
  00070	5f		 pop	 edi
  00071	8b c6		 mov	 eax, esi
  00073	5e		 pop	 esi
  00074	5d		 pop	 ebp
  00075	64 89 0d 00 00
	00 00		 mov	 DWORD PTR fs:__except_list, ecx
  0007c	83 c4 10	 add	 esp, 16			; 00000010H
  0007f	c2 08 00	 ret	 8
_TEXT	ENDS
;	COMDAT text$x
text$x	SEGMENT
$L80016:
  00000	8b 4d f0	 mov	 ecx, DWORD PTR _this$[ebp]
  00003	e9 00 00 00 00	 jmp	 ??1?$_String_base@DV?$allocator@D@_STL@@@_STL@@QAE@XZ ; _STL::_String_base<char,_STL::allocator<char> >::~_String_base<char,_STL::allocator<char> >
__ehhandler$??0?$basic_string@DV?$char_traits@D@_STL@@V?$allocator@D@2@@_STL@@QAE@PBDABV?$allocator@D@1@@Z:
  00008	b8 00 00 00 00	 mov	 eax, OFFSET FLAT:$T80113
  0000d	e9 00 00 00 00	 jmp	 ___CxxFrameHandler
text$x	ENDS
??0?$basic_string@DV?$char_traits@D@_STL@@V?$allocator@D@2@@_STL@@QAE@PBDABV?$allocator@D@1@@Z ENDP ; _STL::basic_string<char,_STL::char_traits<char>,_STL::allocator<char> >::basic_string<char,_STL::char_traits<char>,_STL::allocator<char> >
PUBLIC	??$find@V?$basic_string@DV?$char_traits@D@_STL@@V?$allocator@D@2@@_STL@@@?$_Rb_tree@V?$basic_string@DV?$char_traits@D@_STL@@V?$allocator@D@2@@_STL@@U?$pair@$$CBV?$basic_string@DV?$char_traits@D@_STL@@V?$allocator@D@2@@_STL@@H@2@U?$_Select1st@U?$pair@$$CBV?$basic_string@DV?$char_traits@D@_STL@@V?$allocator@D@2@@_STL@@H@_STL@@@2@U?$less@V?$basic_string@DV?$char_traits@D@_STL@@V?$allocator@D@2@@_STL@@@2@V?$allocator@U?$pair@$$CBV?$basic_string@DV?$char_traits@D@_STL@@V?$allocator@D@2@@_STL@@H@_STL@@@2@@_STL@@QAE?AU?$_Rb_tree_iterator@U?$pair@$$CBV?$basic_string@DV?$char_traits@D@_STL@@V?$allocator@D@2@@_STL@@H@_STL@@U?$_Nonconst_traits@U?$pair@$$CBV?$basic_string@DV?$char_traits@D@_STL@@V?$allocator@D@2@@_STL@@H@_STL@@@2@@1@ABV?$basic_string@DV?$char_traits@D@_STL@@V?$allocator@D@2@@1@@Z ; _STL::_Rb_tree<_STL::basic_string<char,_STL::char_traits<char>,_STL::allocator<char> >,_STL::pair<_STL::basic_string<char,_STL::char_traits<char>,_STL::allocator<char> > const ,int>,_STL::_Select1st<_STL::pair<_STL::basic_string<char,_STL::char_traits<char>,_STL::allocator<char> > const ,int> >,_STL::less<_STL::basic_string<char,_STL::char_traits<char>,_STL::allocator<char> > >,_STL::allocator<_STL::pair<_STL::basic_string<char,_STL::char_traits<char>,_STL::allocator<char> > const ,int> > >::find<_STL::basic_string<char,_STL::char_traits<char>,_STL::allocator<char> > >
; Function compile flags: /Ogty
; File c:\stlport-4.6.1\stlport\stl\_tree.h
;	COMDAT ??$find@V?$basic_string@DV?$char_traits@D@_STL@@V?$allocator@D@2@@_STL@@@?$_Rb_tree@V?$basic_string@DV?$char_traits@D@_STL@@V?$allocator@D@2@@_STL@@U?$pair@$$CBV?$basic_string@DV?$char_traits@D@_STL@@V?$allocator@D@2@@_STL@@H@2@U?$_Select1st@U?$pair@$$CBV?$basic_string@DV?$char_traits@D@_STL@@V?$allocator@D@2@@_STL@@H@_STL@@@2@U?$less@V?$basic_string@DV?$char_traits@D@_STL@@V?$allocator@D@2@@_STL@@@2@V?$allocator@U?$pair@$$CBV?$basic_string@DV?$char_traits@D@_STL@@V?$allocator@D@2@@_STL@@H@_STL@@@2@@_STL@@QAE?AU?$_Rb_tree_iterator@U?$pair@$$CBV?$basic_string@DV?$char_traits@D@_STL@@V?$allocator@D@2@@_STL@@H@_STL@@U?$_Nonconst_traits@U?$pair@$$CBV?$basic_string@DV?$char_traits@D@_STL@@V?$allocator@D@2@@_STL@@H@_STL@@@2@@1@ABV?$basic_string@DV?$char_traits@D@_STL@@V?$allocator@D@2@@1@@Z
_TEXT	SEGMENT
___$ReturnUdt$ = 8					; size = 4
___x$ = 12						; size = 4
??$find@V?$basic_string@DV?$char_traits@D@_STL@@V?$allocator@D@2@@_STL@@@?$_Rb_tree@V?$basic_string@DV?$char_traits@D@_STL@@V?$allocator@D@2@@_STL@@U?$pair@$$CBV?$basic_string@DV?$char_traits@D@_STL@@V?$allocator@D@2@@_STL@@H@2@U?$_Select1st@U?$pair@$$CBV?$basic_string@DV?$char_traits@D@_STL@@V?$allocator@D@2@@_STL@@H@_STL@@@2@U?$less@V?$basic_string@DV?$char_traits@D@_STL@@V?$allocator@D@2@@_STL@@@2@V?$allocator@U?$pair@$$CBV?$basic_string@DV?$char_traits@D@_STL@@V?$allocator@D@2@@_STL@@H@_STL@@@2@@_STL@@QAE?AU?$_Rb_tree_iterator@U?$pair@$$CBV?$basic_string@DV?$char_traits@D@_STL@@V?$allocator@D@2@@_STL@@H@_STL@@U?$_Nonconst_traits@U?$pair@$$CBV?$basic_string@DV?$char_traits@D@_STL@@V?$allocator@D@2@@_STL@@H@_STL@@@2@@1@ABV?$basic_string@DV?$char_traits@D@_STL@@V?$allocator@D@2@@1@@Z PROC NEAR ; _STL::_Rb_tree<_STL::basic_string<char,_STL::char_traits<char>,_STL::allocator<char> >,_STL::pair<_STL::basic_string<char,_STL::char_traits<char>,_STL::allocator<char> > const ,int>,_STL::_Select1st<_STL::pair<_STL::basic_string<char,_STL::char_traits<char>,_STL::allocator<char> > const ,int> >,_STL::less<_STL::basic_string<char,_STL::char_traits<char>,_STL::allocator<char> > >,_STL::allocator<_STL::pair<_STL::basic_string<char,_STL::char_traits<char>,_STL::allocator<char> > const ,int> > >::find<_STL::basic_string<char,_STL::char_traits<char>,_STL::allocator<char> > >, COMDAT
; _this$ = ecx

; 458  :   template <class _KT> iterator find(const _KT& __x) { return iterator(_M_find(__x)); }

  00000	8b 44 24 08	 mov	 eax, DWORD PTR ___x$[esp-4]
  00004	50		 push	 eax
  00005	e8 00 00 00 00	 call	 ??$_M_find@V?$basic_string@DV?$char_traits@D@_STL@@V?$allocator@D@2@@_STL@@@?$_Rb_tree@V?$basic_string@DV?$char_traits@D@_STL@@V?$allocator@D@2@@_STL@@U?$pair@$$CBV?$basic_string@DV?$char_traits@D@_STL@@V?$allocator@D@2@@_STL@@H@2@U?$_Select1st@U?$pair@$$CBV?$basic_string@DV?$char_traits@D@_STL@@V?$allocator@D@2@@_STL@@H@_STL@@@2@U?$less@V?$basic_string@DV?$char_traits@D@_STL@@V?$allocator@D@2@@_STL@@@2@V?$allocator@U?$pair@$$CBV?$basic_string@DV?$char_traits@D@_STL@@V?$allocator@D@2@@_STL@@H@_STL@@@2@@_STL@@ABEPAU?$_Rb_tree_node@U?$pair@$$CBV?$basic_string@DV?$char_traits@D@_STL@@V?$allocator@D@2@@_STL@@H@_STL@@@1@ABV?$basic_string@DV?$char_traits@D@_STL@@V?$allocator@D@2@@1@@Z ; _STL::_Rb_tree<_STL::basic_string<char,_STL::char_traits<char>,_STL::allocator<char> >,_STL::pair<_STL::basic_string<char,_STL::char_traits<char>,_STL::allocator<char> > const ,int>,_STL::_Select1st<_STL::pair<_STL::basic_string<char,_STL::char_traits<char>,_STL::allocator<char> > const ,int> >,_STL::less<_STL::basic_string<char,_STL::char_traits<char>,_STL::allocator<char> > >,_STL::allocator<_STL::pair<_STL::basic_string<char,_STL::char_traits<char>,_STL::allocator<char> > const ,int> > >::_M_find<_STL::basic_string<char,_STL::char_traits<char>,_STL::allocator<char> > >
  0000a	8b 4c 24 04	 mov	 ecx, DWORD PTR ___$ReturnUdt$[esp-4]
  0000e	89 01		 mov	 DWORD PTR [ecx], eax
  00010	8b c1		 mov	 eax, ecx
  00012	c2 08 00	 ret	 8
??$find@V?$basic_string@DV?$char_traits@D@_STL@@V?$allocator@D@2@@_STL@@@?$_Rb_tree@V?$basic_string@DV?$char_traits@D@_STL@@V?$allocator@D@2@@_STL@@U?$pair@$$CBV?$basic_string@DV?$char_traits@D@_STL@@V?$allocator@D@2@@_STL@@H@2@U?$_Select1st@U?$pair@$$CBV?$basic_string@DV?$char_traits@D@_STL@@V?$allocator@D@2@@_STL@@H@_STL@@@2@U?$less@V?$basic_string@DV?$char_traits@D@_STL@@V?$allocator@D@2@@_STL@@@2@V?$allocator@U?$pair@$$CBV?$basic_string@DV?$char_traits@D@_STL@@V?$allocator@D@2@@_STL@@H@_STL@@@2@@_STL@@QAE?AU?$_Rb_tree_iterator@U?$pair@$$CBV?$basic_string@DV?$char_traits@D@_STL@@V?$allocator@D@2@@_STL@@H@_STL@@U?$_Nonconst_traits@U?$pair@$$CBV?$basic_string@DV?$char_traits@D@_STL@@V?$allocator@D@2@@_STL@@H@_STL@@@2@@1@ABV?$basic_string@DV?$char_traits@D@_STL@@V?$allocator@D@2@@1@@Z ENDP ; _STL::_Rb_tree<_STL::basic_string<char,_STL::char_traits<char>,_STL::allocator<char> >,_STL::pair<_STL::basic_string<char,_STL::char_traits<char>,_STL::allocator<char> > const ,int>,_STL::_Select1st<_STL::pair<_STL::basic_string<char,_STL::char_traits<char>,_STL::allocator<char> > const ,int> >,_STL::less<_STL::basic_string<char,_STL::char_traits<char>,_STL::allocator<char> > >,_STL::allocator<_STL::pair<_STL::basic_string<char,_STL::char_traits<char>,_STL::allocator<char> > const ,int> > >::find<_STL::basic_string<char,_STL::char_traits<char>,_STL::allocator<char> > >
_TEXT	ENDS
PUBLIC	??$_M_range_initialize@PAD@?$basic_string@DV?$char_traits@D@_STL@@V?$allocator@D@2@@_STL@@AAEXPAD0ABUforward_iterator_tag@1@@Z ; _STL::basic_string<char,_STL::char_traits<char>,_STL::allocator<char> >::_M_range_initialize<char *>
; Function compile flags: /Ogty
; File c:\stlport-4.6.1\stlport\stl\_string.h
;	COMDAT ??$_M_range_initialize@PAD@?$basic_string@DV?$char_traits@D@_STL@@V?$allocator@D@2@@_STL@@AAEXPAD0ABUforward_iterator_tag@1@@Z
_TEXT	SEGMENT
___f$ = 8						; size = 4
___l$ = 12						; size = 4
___formal$ = 16						; size = 4
??$_M_range_initialize@PAD@?$basic_string@DV?$char_traits@D@_STL@@V?$allocator@D@2@@_STL@@AAEXPAD0ABUforward_iterator_tag@1@@Z PROC NEAR ; _STL::basic_string<char,_STL::char_traits<char>,_STL::allocator<char> >::_M_range_initialize<char *>, COMDAT
; _this$ = ecx

; 382  :   template <class _ForwardIter> void _M_range_initialize(_ForwardIter __f, _ForwardIter __l, 

  00000	53		 push	 ebx

; 383  :                            const forward_iterator_tag &) {
; 384  :     difference_type __n = distance(__f, __l);
; 385  :     this->_M_allocate_block(__n + 1);
; 386  :     this->_M_finish = uninitialized_copy(__f, __l, this->_M_start);
; 387  :     _M_terminate_string();

  00001	8b 5c 24 08	 mov	 ebx, DWORD PTR ___f$[esp]
  00005	55		 push	 ebp
  00006	8b 6c 24 10	 mov	 ebp, DWORD PTR ___l$[esp+4]
  0000a	56		 push	 esi
  0000b	8b f5		 mov	 esi, ebp
  0000d	57		 push	 edi
  0000e	2b f3		 sub	 esi, ebx
  00010	8d 46 01	 lea	 eax, DWORD PTR [esi+1]
  00013	50		 push	 eax
  00014	8b f9		 mov	 edi, ecx
  00016	e8 00 00 00 00	 call	 ?_M_allocate_block@?$_String_base@DV?$allocator@D@_STL@@@_STL@@QAEXI@Z ; _STL::_String_base<char,_STL::allocator<char> >::_M_allocate_block
  0001b	3b eb		 cmp	 ebp, ebx
  0001d	8b 07		 mov	 eax, DWORD PTR [edi]
  0001f	74 0d		 je	 SHORT $L80253
  00021	56		 push	 esi
  00022	53		 push	 ebx
  00023	50		 push	 eax
  00024	e8 00 00 00 00	 call	 _memmove
  00029	83 c4 0c	 add	 esp, 12			; 0000000cH
  0002c	03 c6		 add	 eax, esi
$L80253:
  0002e	89 47 04	 mov	 DWORD PTR [edi+4], eax
  00031	5f		 pop	 edi
  00032	5e		 pop	 esi
  00033	5d		 pop	 ebp
  00034	c6 00 00	 mov	 BYTE PTR [eax], 0
  00037	5b		 pop	 ebx

; 388  :   }

  00038	c2 0c 00	 ret	 12			; 0000000cH
??$_M_range_initialize@PAD@?$basic_string@DV?$char_traits@D@_STL@@V?$allocator@D@2@@_STL@@AAEXPAD0ABUforward_iterator_tag@1@@Z ENDP ; _STL::basic_string<char,_STL::char_traits<char>,_STL::allocator<char> >::_M_range_initialize<char *>
_TEXT	ENDS
PUBLIC	??1?$basic_string@DV?$char_traits@D@_STL@@V?$allocator@D@2@@_STL@@QAE@XZ ; _STL::basic_string<char,_STL::char_traits<char>,_STL::allocator<char> >::~basic_string<char,_STL::char_traits<char>,_STL::allocator<char> >
; Function compile flags: /Ogty
;	COMDAT ??1?$basic_string@DV?$char_traits@D@_STL@@V?$allocator@D@2@@_STL@@QAE@XZ
_TEXT	SEGMENT
??1?$basic_string@DV?$char_traits@D@_STL@@V?$allocator@D@2@@_STL@@QAE@XZ PROC NEAR ; _STL::basic_string<char,_STL::char_traits<char>,_STL::allocator<char> >::~basic_string<char,_STL::char_traits<char>,_STL::allocator<char> >, COMDAT
; _this$ = ecx

; 305  :   ~basic_string() { _STLP_STD::_Destroy(this->_M_start, this->_M_finish + 1); }

  00000	8b 11		 mov	 edx, DWORD PTR [ecx]
  00002	8b 41 08	 mov	 eax, DWORD PTR [ecx+8]
  00005	2b c2		 sub	 eax, edx
  00007	85 d2		 test	 edx, edx
  00009	74 1b		 je	 SHORT $L80304
  0000b	3d 80 00 00 00	 cmp	 eax, 128		; 00000080H
  00010	76 0a		 jbe	 SHORT $L80303
  00012	52		 push	 edx
  00013	e8 00 00 00 00	 call	 ??3@YAXPAX@Z		; operator delete
  00018	83 c4 04	 add	 esp, 4
  0001b	c3		 ret	 0
$L80303:
  0001c	50		 push	 eax
  0001d	52		 push	 edx
  0001e	e8 00 00 00 00	 call	 ?_M_deallocate@?$__node_alloc@$00$0A@@_STL@@CAXPAXI@Z ; _STL::__node_alloc<1,0>::_M_deallocate
  00023	83 c4 08	 add	 esp, 8
$L80304:
  00026	c3		 ret	 0
??1?$basic_string@DV?$char_traits@D@_STL@@V?$allocator@D@2@@_STL@@QAE@XZ ENDP ; _STL::basic_string<char,_STL::char_traits<char>,_STL::allocator<char> >::~basic_string<char,_STL::char_traits<char>,_STL::allocator<char> >
_TEXT	ENDS
PUBLIC	??1InterfaceInformation@@QAE@XZ			; InterfaceInformation::~InterfaceInformation
;	COMDAT xdata$x
; File c:\stlport-4.6.1\stlport\stl\_new.h
xdata$x	SEGMENT
$T80422	DD	0ffffffffH
	DD	FLAT:$L80312
$T80420	DD	019930520H
	DD	01H
	DD	FLAT:$T80422
	DD	2 DUP(00H)
	DD	2 DUP(00H)
; Function compile flags: /Ogty
; File c:\darkeden\designed_common\project\new - vs_ui\src\skinmanager.cpp
xdata$x	ENDS
;	COMDAT ??1InterfaceInformation@@QAE@XZ
_TEXT	SEGMENT
_this$ = -16						; size = 4
__$EHRec$ = -12						; size = 12
??1InterfaceInformation@@QAE@XZ PROC NEAR		; InterfaceInformation::~InterfaceInformation, COMDAT
; _this$ = ecx

; 20   : {

  00000	6a ff		 push	 -1
  00002	68 00 00 00 00	 push	 __ehhandler$??1InterfaceInformation@@QAE@XZ
  00007	64 a1 00 00 00
	00		 mov	 eax, DWORD PTR fs:__except_list
  0000d	50		 push	 eax
  0000e	64 89 25 00 00
	00 00		 mov	 DWORD PTR fs:__except_list, esp
  00015	51		 push	 ecx
  00016	56		 push	 esi
  00017	8b f1		 mov	 esi, ecx
  00019	89 74 24 04	 mov	 DWORD PTR _this$[esp+20], esi

; 21   : }

  0001d	8b 4e 0c	 mov	 ecx, DWORD PTR [esi+12]
  00020	85 c9		 test	 ecx, ecx
  00022	c7 44 24 10 00
	00 00 00	 mov	 DWORD PTR __$EHRec$[esp+28], 0
  0002a	74 27		 je	 SHORT $L80360
  0002c	8b 46 14	 mov	 eax, DWORD PTR [esi+20]
  0002f	2b c1		 sub	 eax, ecx
  00031	c1 f8 04	 sar	 eax, 4
  00034	c1 e0 04	 shl	 eax, 4
  00037	3d 80 00 00 00	 cmp	 eax, 128		; 00000080H
  0003c	76 0b		 jbe	 SHORT $L80359
  0003e	51		 push	 ecx
  0003f	e8 00 00 00 00	 call	 ??3@YAXPAX@Z		; operator delete
  00044	83 c4 04	 add	 esp, 4
  00047	eb 0a		 jmp	 SHORT $L80360
$L80359:
  00049	50		 push	 eax
  0004a	51		 push	 ecx
  0004b	e8 00 00 00 00	 call	 ?_M_deallocate@?$__node_alloc@$00$0A@@_STL@@CAXPAXI@Z ; _STL::__node_alloc<1,0>::_M_deallocate
  00050	83 c4 08	 add	 esp, 8
$L80360:
  00053	8b 0e		 mov	 ecx, DWORD PTR [esi]
  00055	85 c9		 test	 ecx, ecx
  00057	c7 44 24 10 ff
	ff ff ff	 mov	 DWORD PTR __$EHRec$[esp+28], -1
  0005f	74 35		 je	 SHORT $L80413
  00061	8b 46 08	 mov	 eax, DWORD PTR [esi+8]
  00064	2b c1		 sub	 eax, ecx
  00066	c1 f8 03	 sar	 eax, 3
  00069	c1 e0 03	 shl	 eax, 3
  0006c	3d 80 00 00 00	 cmp	 eax, 128		; 00000080H
  00071	76 19		 jbe	 SHORT $L80412
  00073	51		 push	 ecx
  00074	e8 00 00 00 00	 call	 ??3@YAXPAX@Z		; operator delete
  00079	83 c4 04	 add	 esp, 4
  0007c	5e		 pop	 esi
  0007d	8b 4c 24 04	 mov	 ecx, DWORD PTR __$EHRec$[esp+16]
  00081	64 89 0d 00 00
	00 00		 mov	 DWORD PTR fs:__except_list, ecx
  00088	83 c4 10	 add	 esp, 16			; 00000010H
  0008b	c3		 ret	 0
$L80412:
  0008c	50		 push	 eax
  0008d	51		 push	 ecx
  0008e	e8 00 00 00 00	 call	 ?_M_deallocate@?$__node_alloc@$00$0A@@_STL@@CAXPAXI@Z ; _STL::__node_alloc<1,0>::_M_deallocate
  00093	83 c4 08	 add	 esp, 8
$L80413:
  00096	8b 4c 24 08	 mov	 ecx, DWORD PTR __$EHRec$[esp+20]
  0009a	5e		 pop	 esi
  0009b	64 89 0d 00 00
	00 00		 mov	 DWORD PTR fs:__except_list, ecx
  000a2	83 c4 10	 add	 esp, 16			; 00000010H
  000a5	c3		 ret	 0
_TEXT	ENDS
;	COMDAT text$x
text$x	SEGMENT
$L80312:
  00000	8b 4d f0	 mov	 ecx, DWORD PTR _this$[ebp]
  00003	e9 00 00 00 00	 jmp	 ??1?$vector@UtagPOINT@@V?$allocator@UtagPOINT@@@_STL@@@_STL@@QAE@XZ ; _STL::vector<tagPOINT,_STL::allocator<tagPOINT> >::~vector<tagPOINT,_STL::allocator<tagPOINT> >
__ehhandler$??1InterfaceInformation@@QAE@XZ:
  00008	b8 00 00 00 00	 mov	 eax, OFFSET FLAT:$T80420
  0000d	e9 00 00 00 00	 jmp	 ___CxxFrameHandler
text$x	ENDS
??1InterfaceInformation@@QAE@XZ ENDP			; InterfaceInformation::~InterfaceInformation
PUBLIC	?clear@?$vector@UtagPOINT@@V?$allocator@UtagPOINT@@@_STL@@@_STL@@QAEXXZ ; _STL::vector<tagPOINT,_STL::allocator<tagPOINT> >::clear
; Function compile flags: /Ogty
; File c:\stlport-4.6.1\stlport\stl\_vector.h
;	COMDAT ?clear@?$vector@UtagPOINT@@V?$allocator@UtagPOINT@@@_STL@@@_STL@@QAEXXZ
_TEXT	SEGMENT
?clear@?$vector@UtagPOINT@@V?$allocator@UtagPOINT@@@_STL@@@_STL@@QAEXXZ PROC NEAR ; _STL::vector<tagPOINT,_STL::allocator<tagPOINT> >::clear, COMDAT
; _this$ = ecx

; 488  :     erase(begin(), end());

  00000	8b 41 04	 mov	 eax, DWORD PTR [ecx+4]
  00003	8b 11		 mov	 edx, DWORD PTR [ecx]
  00005	56		 push	 esi
  00006	8b f0		 mov	 esi, eax
  00008	2b f0		 sub	 esi, eax
  0000a	c1 fe 03	 sar	 esi, 3
  0000d	85 f6		 test	 esi, esi
  0000f	7e 15		 jle	 SHORT $L80474
  00011	57		 push	 edi
$L80467:
  00012	8b 38		 mov	 edi, DWORD PTR [eax]
  00014	89 3a		 mov	 DWORD PTR [edx], edi
  00016	8b 78 04	 mov	 edi, DWORD PTR [eax+4]
  00019	89 7a 04	 mov	 DWORD PTR [edx+4], edi
  0001c	83 c0 08	 add	 eax, 8
  0001f	83 c2 08	 add	 edx, 8
  00022	4e		 dec	 esi
  00023	75 ed		 jne	 SHORT $L80467
  00025	5f		 pop	 edi
$L80474:
  00026	89 51 04	 mov	 DWORD PTR [ecx+4], edx
  00029	5e		 pop	 esi

; 489  :   }

  0002a	c3		 ret	 0
?clear@?$vector@UtagPOINT@@V?$allocator@UtagPOINT@@@_STL@@@_STL@@QAEXXZ ENDP ; _STL::vector<tagPOINT,_STL::allocator<tagPOINT> >::clear
_TEXT	ENDS
PUBLIC	?clear@?$vector@UtagRECT@@V?$allocator@UtagRECT@@@_STL@@@_STL@@QAEXXZ ; _STL::vector<tagRECT,_STL::allocator<tagRECT> >::clear
; Function compile flags: /Ogty
;	COMDAT ?clear@?$vector@UtagRECT@@V?$allocator@UtagRECT@@@_STL@@@_STL@@QAEXXZ
_TEXT	SEGMENT
$T80498 = -1						; size = 1
?clear@?$vector@UtagRECT@@V?$allocator@UtagRECT@@@_STL@@@_STL@@QAEXXZ PROC NEAR ; _STL::vector<tagRECT,_STL::allocator<tagRECT> >::clear, COMDAT
; _this$ = ecx

; 487  :   void clear() { 

  00000	51		 push	 ecx
  00001	56		 push	 esi

; 488  :     erase(begin(), end());

  00002	6a 00		 push	 0
  00004	8b f1		 mov	 esi, ecx
  00006	8b 0e		 mov	 ecx, DWORD PTR [esi]
  00008	8b 46 04	 mov	 eax, DWORD PTR [esi+4]
  0000b	8d 54 24 0b	 lea	 edx, DWORD PTR $T80498[esp+12]
  0000f	52		 push	 edx
  00010	51		 push	 ecx
  00011	50		 push	 eax
  00012	50		 push	 eax
  00013	e8 00 00 00 00	 call	 ??$__copy@PAUtagRECT@@PAU1@H@_STL@@YAPAUtagRECT@@PAU1@00ABUrandom_access_iterator_tag@0@PAH@Z ; _STL::__copy<tagRECT *,tagRECT *,int>
  00018	83 c4 14	 add	 esp, 20			; 00000014H
  0001b	89 46 04	 mov	 DWORD PTR [esi+4], eax
  0001e	5e		 pop	 esi

; 489  :   }

  0001f	59		 pop	 ecx
  00020	c3		 ret	 0
?clear@?$vector@UtagRECT@@V?$allocator@UtagRECT@@@_STL@@@_STL@@QAEXXZ ENDP ; _STL::vector<tagRECT,_STL::allocator<tagRECT> >::clear
_TEXT	ENDS
PUBLIC	?find@?$map@V?$basic_string@DV?$char_traits@D@_STL@@V?$allocator@D@2@@_STL@@HU?$less@V?$basic_string@DV?$char_traits@D@_STL@@V?$allocator@D@2@@_STL@@@2@V?$allocator@U?$pair@$$CBV?$basic_string@DV?$char_traits@D@_STL@@V?$allocator@D@2@@_STL@@H@_STL@@@2@@_STL@@QAE?AU?$_Rb_tree_iterator@U?$pair@$$CBV?$basic_string@DV?$char_traits@D@_STL@@V?$allocator@D@2@@_STL@@H@_STL@@U?$_Nonconst_traits@U?$pair@$$CBV?$basic_string@DV?$char_traits@D@_STL@@V?$allocator@D@2@@_STL@@H@_STL@@@2@@2@ABV?$basic_string@DV?$char_traits@D@_STL@@V?$allocator@D@2@@2@@Z ; _STL::map<_STL::basic_string<char,_STL::char_traits<char>,_STL::allocator<char> >,int,_STL::less<_STL::basic_string<char,_STL::char_traits<char>,_STL::allocator<char> > >,_STL::allocator<_STL::pair<_STL::basic_string<char,_STL::char_traits<char>,_STL::allocator<char> > const ,int> > >::find
; Function compile flags: /Ogty
; File c:\stlport-4.6.1\stlport\stl\_map.h
;	COMDAT ?find@?$map@V?$basic_string@DV?$char_traits@D@_STL@@V?$allocator@D@2@@_STL@@HU?$less@V?$basic_string@DV?$char_traits@D@_STL@@V?$allocator@D@2@@_STL@@@2@V?$allocator@U?$pair@$$CBV?$basic_string@DV?$char_traits@D@_STL@@V?$allocator@D@2@@_STL@@H@_STL@@@2@@_STL@@QAE?AU?$_Rb_tree_iterator@U?$pair@$$CBV?$basic_string@DV?$char_traits@D@_STL@@V?$allocator@D@2@@_STL@@H@_STL@@U?$_Nonconst_traits@U?$pair@$$CBV?$basic_string@DV?$char_traits@D@_STL@@V?$allocator@D@2@@_STL@@H@_STL@@@2@@2@ABV?$basic_string@DV?$char_traits@D@_STL@@V?$allocator@D@2@@2@@Z
_TEXT	SEGMENT
___$ReturnUdt$ = 8					; size = 4
___x$ = 12						; size = 4
?find@?$map@V?$basic_string@DV?$char_traits@D@_STL@@V?$allocator@D@2@@_STL@@HU?$less@V?$basic_string@DV?$char_traits@D@_STL@@V?$allocator@D@2@@_STL@@@2@V?$allocator@U?$pair@$$CBV?$basic_string@DV?$char_traits@D@_STL@@V?$allocator@D@2@@_STL@@H@_STL@@@2@@_STL@@QAE?AU?$_Rb_tree_iterator@U?$pair@$$CBV?$basic_string@DV?$char_traits@D@_STL@@V?$allocator@D@2@@_STL@@H@_STL@@U?$_Nonconst_traits@U?$pair@$$CBV?$basic_string@DV?$char_traits@D@_STL@@V?$allocator@D@2@@_STL@@H@_STL@@@2@@2@ABV?$basic_string@DV?$char_traits@D@_STL@@V?$allocator@D@2@@2@@Z PROC NEAR ; _STL::map<_STL::basic_string<char,_STL::char_traits<char>,_STL::allocator<char> >,int,_STL::less<_STL::basic_string<char,_STL::char_traits<char>,_STL::allocator<char> > >,_STL::allocator<_STL::pair<_STL::basic_string<char,_STL::char_traits<char>,_STL::allocator<char> > const ,int> > >::find, COMDAT
; _this$ = ecx

; 195  :   iterator find(const key_type& __x) { return _M_t.find(__x); }

  00000	8b 44 24 08	 mov	 eax, DWORD PTR ___x$[esp-4]
  00004	50		 push	 eax
  00005	e8 00 00 00 00	 call	 ??$_M_find@V?$basic_string@DV?$char_traits@D@_STL@@V?$allocator@D@2@@_STL@@@?$_Rb_tree@V?$basic_string@DV?$char_traits@D@_STL@@V?$allocator@D@2@@_STL@@U?$pair@$$CBV?$basic_string@DV?$char_traits@D@_STL@@V?$allocator@D@2@@_STL@@H@2@U?$_Select1st@U?$pair@$$CBV?$basic_string@DV?$char_traits@D@_STL@@V?$allocator@D@2@@_STL@@H@_STL@@@2@U?$less@V?$basic_string@DV?$char_traits@D@_STL@@V?$allocator@D@2@@_STL@@@2@V?$allocator@U?$pair@$$CBV?$basic_string@DV?$char_traits@D@_STL@@V?$allocator@D@2@@_STL@@H@_STL@@@2@@_STL@@ABEPAU?$_Rb_tree_node@U?$pair@$$CBV?$basic_string@DV?$char_traits@D@_STL@@V?$allocator@D@2@@_STL@@H@_STL@@@1@ABV?$basic_string@DV?$char_traits@D@_STL@@V?$allocator@D@2@@1@@Z ; _STL::_Rb_tree<_STL::basic_string<char,_STL::char_traits<char>,_STL::allocator<char> >,_STL::pair<_STL::basic_string<char,_STL::char_traits<char>,_STL::allocator<char> > const ,int>,_STL::_Select1st<_STL::pair<_STL::basic_string<char,_STL::char_traits<char>,_STL::allocator<char> > const ,int> >,_STL::less<_STL::basic_string<char,_STL::char_traits<char>,_STL::allocator<char> > >,_STL::allocator<_STL::pair<_STL::basic_string<char,_STL::char_traits<char>,_STL::allocator<char> > const ,int> > >::_M_find<_STL::basic_string<char,_STL::char_traits<char>,_STL::allocator<char> > >
  0000a	8b 4c 24 04	 mov	 ecx, DWORD PTR ___$ReturnUdt$[esp-4]
  0000e	89 01		 mov	 DWORD PTR [ecx], eax
  00010	8b c1		 mov	 eax, ecx
  00012	c2 08 00	 ret	 8
?find@?$map@V?$basic_string@DV?$char_traits@D@_STL@@V?$allocator@D@2@@_STL@@HU?$less@V?$basic_string@DV?$char_traits@D@_STL@@V?$allocator@D@2@@_STL@@@2@V?$allocator@U?$pair@$$CBV?$basic_string@DV?$char_traits@D@_STL@@V?$allocator@D@2@@_STL@@H@_STL@@@2@@_STL@@QAE?AU?$_Rb_tree_iterator@U?$pair@$$CBV?$basic_string@DV?$char_traits@D@_STL@@V?$allocator@D@2@@_STL@@H@_STL@@U?$_Nonconst_traits@U?$pair@$$CBV?$basic_string@DV?$char_traits@D@_STL@@V?$allocator@D@2@@_STL@@H@_STL@@@2@@2@ABV?$basic_string@DV?$char_traits@D@_STL@@V?$allocator@D@2@@2@@Z ENDP ; _STL::map<_STL::basic_string<char,_STL::char_traits<char>,_STL::allocator<char> >,int,_STL::less<_STL::basic_string<char,_STL::char_traits<char>,_STL::allocator<char> > >,_STL::allocator<_STL::pair<_STL::basic_string<char,_STL::char_traits<char>,_STL::allocator<char> > const ,int> > >::find
_TEXT	ENDS
PUBLIC	??1?$pair@$$CBV?$basic_string@DV?$char_traits@D@_STL@@V?$allocator@D@2@@_STL@@H@_STL@@QAE@XZ ; _STL::pair<_STL::basic_string<char,_STL::char_traits<char>,_STL::allocator<char> > const ,int>::~pair<_STL::basic_string<char,_STL::char_traits<char>,_STL::allocator<char> > const ,int>
; Function compile flags: /Ogty
;	COMDAT ??1?$pair@$$CBV?$basic_string@DV?$char_traits@D@_STL@@V?$allocator@D@2@@_STL@@H@_STL@@QAE@XZ
_TEXT	SEGMENT
??1?$pair@$$CBV?$basic_string@DV?$char_traits@D@_STL@@V?$allocator@D@2@@_STL@@H@_STL@@QAE@XZ PROC NEAR ; _STL::pair<_STL::basic_string<char,_STL::char_traits<char>,_STL::allocator<char> > const ,int>::~pair<_STL::basic_string<char,_STL::char_traits<char>,_STL::allocator<char> > const ,int>, COMDAT
; _this$ = ecx
  00000	8b 11		 mov	 edx, DWORD PTR [ecx]
  00002	8b 41 08	 mov	 eax, DWORD PTR [ecx+8]
  00005	2b c2		 sub	 eax, edx
  00007	85 d2		 test	 edx, edx
  00009	74 1b		 je	 SHORT $L80582
  0000b	3d 80 00 00 00	 cmp	 eax, 128		; 00000080H
  00010	76 0a		 jbe	 SHORT $L80581
  00012	52		 push	 edx
  00013	e8 00 00 00 00	 call	 ??3@YAXPAX@Z		; operator delete
  00018	83 c4 04	 add	 esp, 4
  0001b	c3		 ret	 0
$L80581:
  0001c	50		 push	 eax
  0001d	52		 push	 edx
  0001e	e8 00 00 00 00	 call	 ?_M_deallocate@?$__node_alloc@$00$0A@@_STL@@CAXPAXI@Z ; _STL::__node_alloc<1,0>::_M_deallocate
  00023	83 c4 08	 add	 esp, 8
$L80582:
  00026	c3		 ret	 0
??1?$pair@$$CBV?$basic_string@DV?$char_traits@D@_STL@@V?$allocator@D@2@@_STL@@H@_STL@@QAE@XZ ENDP ; _STL::pair<_STL::basic_string<char,_STL::char_traits<char>,_STL::allocator<char> > const ,int>::~pair<_STL::basic_string<char,_STL::char_traits<char>,_STL::allocator<char> > const ,int>
_TEXT	ENDS
PUBLIC	?_M_insert_overflow@?$vector@UtagPOINT@@V?$allocator@UtagPOINT@@@_STL@@@_STL@@IAEXPAUtagPOINT@@ABU3@ABU__false_type@2@I_N@Z ; _STL::vector<tagPOINT,_STL::allocator<tagPOINT> >::_M_insert_overflow
;	COMDAT xdata$x
; File c:\stlport-4.6.1\stlport\stl\_vector.h
xdata$x	SEGMENT
$T80690	DD	0ffffffffH
	DD	00H
	DD	0ffffffffH
	DD	00H
$T80692	DD	00H
	DD	00H
	DD	00H
	DD	FLAT:$L80594
$T80691	DD	00H
	DD	00H
	DD	01H
	DD	01H
	DD	FLAT:$T80692
$T80686	DD	019930520H
	DD	02H
	DD	FLAT:$T80690
	DD	01H
	DD	FLAT:$T80691
	DD	2 DUP(00H)
; Function compile flags: /Ogty
xdata$x	ENDS
;	COMDAT ?_M_insert_overflow@?$vector@UtagPOINT@@V?$allocator@UtagPOINT@@@_STL@@@_STL@@IAEXPAUtagPOINT@@ABU3@ABU__false_type@2@I_N@Z
_TEXT	SEGMENT
_this$ = -28						; size = 4
___len$ = -24						; size = 4
___old_size$ = -24					; size = 4
___new_start$ = -20					; size = 4
__$EHRec$ = -16						; size = 16
___position$ = 8					; size = 4
___x$ = 12						; size = 4
___formal$ = 16						; size = 4
___fill_len$ = 20					; size = 4
___atend$ = 24						; size = 1
$T80592 = 27						; size = 1
$T80591 = 27						; size = 1
$T80590 = 27						; size = 1
?_M_insert_overflow@?$vector@UtagPOINT@@V?$allocator@UtagPOINT@@@_STL@@@_STL@@IAEXPAUtagPOINT@@ABU3@ABU__false_type@2@I_N@Z PROC NEAR ; _STL::vector<tagPOINT,_STL::allocator<tagPOINT> >::_M_insert_overflow, COMDAT
; _this$ = ecx

; 126  : 			  size_type __fill_len, bool __atend = false) {

  00000	55		 push	 ebp
  00001	8b ec		 mov	 ebp, esp
  00003	6a ff		 push	 -1
  00005	68 00 00 00 00	 push	 __ehhandler$?_M_insert_overflow@?$vector@UtagPOINT@@V?$allocator@UtagPOINT@@@_STL@@@_STL@@IAEXPAUtagPOINT@@ABU3@ABU__false_type@2@I_N@Z
  0000a	64 a1 00 00 00
	00		 mov	 eax, DWORD PTR fs:__except_list
  00010	50		 push	 eax
  00011	64 89 25 00 00
	00 00		 mov	 DWORD PTR fs:__except_list, esp
  00018	83 ec 10	 sub	 esp, 16			; 00000010H
  0001b	53		 push	 ebx
  0001c	56		 push	 esi
  0001d	57		 push	 edi
  0001e	8b f9		 mov	 edi, ecx

; 127  :     const size_type __old_size = size();

  00020	8b 47 04	 mov	 eax, DWORD PTR [edi+4]
  00023	8b 37		 mov	 esi, DWORD PTR [edi]

; 128  :     const size_type __len = __old_size + (max)(__old_size, __fill_len);

  00025	8b 4d 14	 mov	 ecx, DWORD PTR ___fill_len$[ebp]
  00028	2b c6		 sub	 eax, esi
  0002a	c1 f8 03	 sar	 eax, 3
  0002d	3b c1		 cmp	 eax, ecx
  0002f	89 65 f0	 mov	 DWORD PTR __$EHRec$[ebp], esp
  00032	89 7d e4	 mov	 DWORD PTR _this$[ebp], edi
  00035	89 45 e8	 mov	 DWORD PTR ___old_size$[ebp], eax
  00038	8d 4d 14	 lea	 ecx, DWORD PTR ___fill_len$[ebp]
  0003b	72 03		 jb	 SHORT $L80606
  0003d	8d 4d e8	 lea	 ecx, DWORD PTR ___old_size$[ebp]
$L80606:
  00040	8b 09		 mov	 ecx, DWORD PTR [ecx]
  00042	03 c8		 add	 ecx, eax
  00044	89 4d e8	 mov	 DWORD PTR ___len$[ebp], ecx

; 129  :     
; 130  :     pointer __new_start = this->_M_end_of_storage.allocate(__len);

  00047	74 27		 je	 SHORT $L80624
  00049	8d 04 cd 00 00
	00 00		 lea	 eax, DWORD PTR [ecx*8]
  00050	3d 80 00 00 00	 cmp	 eax, 128		; 00000080H
  00055	50		 push	 eax
  00056	76 0c		 jbe	 SHORT $L80627
  00058	e8 00 00 00 00	 call	 ??2@YAPAXI@Z		; operator new
  0005d	83 c4 04	 add	 esp, 4
  00060	8b d8		 mov	 ebx, eax
  00062	eb 0e		 jmp	 SHORT $L80689
$L80627:
  00064	e8 00 00 00 00	 call	 ?_M_allocate@?$__node_alloc@$00$0A@@_STL@@CAPAXI@Z ; _STL::__node_alloc<1,0>::_M_allocate
  00069	83 c4 04	 add	 esp, 4
  0006c	8b d8		 mov	 ebx, eax
  0006e	eb 02		 jmp	 SHORT $L80689
$L80624:
  00070	33 db		 xor	 ebx, ebx
$L80689:

; 131  :     pointer __new_finish = __new_start;
; 132  :     _STLP_TRY {
; 133  :       __new_finish = __uninitialized_copy(this->_M_start, __position, __new_start, __false_type());

  00072	8b 4d 08	 mov	 ecx, DWORD PTR ___position$[ebp]
  00075	8b 17		 mov	 edx, DWORD PTR [edi]
  00077	8d 45 1b	 lea	 eax, DWORD PTR $T80590[ebp]
  0007a	50		 push	 eax
  0007b	53		 push	 ebx
  0007c	51		 push	 ecx
  0007d	52		 push	 edx
  0007e	89 5d ec	 mov	 DWORD PTR ___new_start$[ebp], ebx
  00081	c7 45 fc 00 00
	00 00		 mov	 DWORD PTR __$EHRec$[ebp+12], 0
  00088	e8 00 00 00 00	 call	 ??$__uninitialized_copy@PAUtagPOINT@@PAU1@@_STL@@YAPAUtagPOINT@@PAU1@00ABU__false_type@0@@Z ; _STL::__uninitialized_copy<tagPOINT *,tagPOINT *>
  0008d	8b f0		 mov	 esi, eax

; 134  :       // handle insertion
; 135  :       if (__fill_len == 1) {

  0008f	8b 45 14	 mov	 eax, DWORD PTR ___fill_len$[ebp]
  00092	83 c4 10	 add	 esp, 16			; 00000010H
  00095	83 f8 01	 cmp	 eax, 1
  00098	75 16		 jne	 SHORT $L76443

; 136  :         _Construct(__new_finish, __x);

  0009a	85 f6		 test	 esi, esi
  0009c	74 0d		 je	 SHORT $L80643
  0009e	8b 45 0c	 mov	 eax, DWORD PTR ___x$[ebp]
  000a1	8b 08		 mov	 ecx, DWORD PTR [eax]
  000a3	89 0e		 mov	 DWORD PTR [esi], ecx
  000a5	8b 50 04	 mov	 edx, DWORD PTR [eax+4]
  000a8	89 56 04	 mov	 DWORD PTR [esi+4], edx
$L80643:

; 137  :         ++__new_finish;

  000ab	83 c6 08	 add	 esi, 8

; 138  :       } else

  000ae	eb 14		 jmp	 SHORT $L76444
$L76443:

; 139  :         __new_finish = __uninitialized_fill_n(__new_finish, __fill_len, __x, __false_type());

  000b0	8b 55 0c	 mov	 edx, DWORD PTR ___x$[ebp]
  000b3	8d 4d 1b	 lea	 ecx, DWORD PTR $T80591[ebp]
  000b6	51		 push	 ecx
  000b7	52		 push	 edx
  000b8	50		 push	 eax
  000b9	56		 push	 esi
  000ba	e8 00 00 00 00	 call	 ??$__uninitialized_fill_n@PAUtagPOINT@@IU1@@_STL@@YAPAUtagPOINT@@PAU1@IABU1@ABU__false_type@0@@Z ; _STL::__uninitialized_fill_n<tagPOINT *,unsigned int,tagPOINT>
  000bf	83 c4 10	 add	 esp, 16			; 00000010H
  000c2	8b f0		 mov	 esi, eax
$L76444:

; 140  :       if (!__atend)

  000c4	8a 45 18	 mov	 al, BYTE PTR ___atend$[ebp]
  000c7	84 c0		 test	 al, al
  000c9	75 17		 jne	 SHORT $L76464

; 141  :         // copy remainder
; 142  :         __new_finish = __uninitialized_copy(__position, this->_M_finish, __new_finish, __false_type());

  000cb	8b 4f 04	 mov	 ecx, DWORD PTR [edi+4]
  000ce	8b 55 08	 mov	 edx, DWORD PTR ___position$[ebp]
  000d1	8d 45 1b	 lea	 eax, DWORD PTR $T80592[ebp]
  000d4	50		 push	 eax
  000d5	56		 push	 esi
  000d6	51		 push	 ecx
  000d7	52		 push	 edx
  000d8	e8 00 00 00 00	 call	 ??$__uninitialized_copy@PAUtagPOINT@@PAU1@@_STL@@YAPAUtagPOINT@@PAU1@00ABU__false_type@0@@Z ; _STL::__uninitialized_copy<tagPOINT *,tagPOINT *>
  000dd	83 c4 10	 add	 esp, 16			; 00000010H
  000e0	8b f0		 mov	 esi, eax
$L76464:

; 146  :     _M_clear();

  000e2	8b 0f		 mov	 ecx, DWORD PTR [edi]
  000e4	85 c9		 test	 ecx, ecx
  000e6	c7 45 fc ff ff
	ff ff		 mov	 DWORD PTR __$EHRec$[ebp+12], -1
  000ed	74 27		 je	 SHORT $L80678
  000ef	8b 47 08	 mov	 eax, DWORD PTR [edi+8]
  000f2	2b c1		 sub	 eax, ecx
  000f4	c1 f8 03	 sar	 eax, 3
  000f7	c1 e0 03	 shl	 eax, 3
  000fa	3d 80 00 00 00	 cmp	 eax, 128		; 00000080H
  000ff	76 0b		 jbe	 SHORT $L80677
  00101	51		 push	 ecx
  00102	e8 00 00 00 00	 call	 ??3@YAXPAX@Z		; operator delete
  00107	83 c4 04	 add	 esp, 4
  0010a	eb 0a		 jmp	 SHORT $L80678
$L80677:
  0010c	50		 push	 eax
  0010d	51		 push	 ecx
  0010e	e8 00 00 00 00	 call	 ?_M_deallocate@?$__node_alloc@$00$0A@@_STL@@CAXPAXI@Z ; _STL::__node_alloc<1,0>::_M_deallocate
  00113	83 c4 08	 add	 esp, 8
$L80678:

; 147  :     _M_set(__new_start, __new_finish, __new_start + __len);

  00116	8b 45 e8	 mov	 eax, DWORD PTR ___len$[ebp]
  00119	8d 0c c3	 lea	 ecx, DWORD PTR [ebx+eax*8]
  0011c	89 1f		 mov	 DWORD PTR [edi], ebx
  0011e	89 77 04	 mov	 DWORD PTR [edi+4], esi
  00121	89 4f 08	 mov	 DWORD PTR [edi+8], ecx

; 148  :   }

  00124	8b 4d f4	 mov	 ecx, DWORD PTR __$EHRec$[ebp+4]
  00127	5f		 pop	 edi
  00128	5e		 pop	 esi
  00129	64 89 0d 00 00
	00 00		 mov	 DWORD PTR fs:__except_list, ecx
  00130	5b		 pop	 ebx
  00131	8b e5		 mov	 esp, ebp
  00133	5d		 pop	 ebp
  00134	c2 14 00	 ret	 20			; 00000014H
$L80594:

; 143  :     }
; 144  :     _STLP_UNWIND((_Destroy(__new_start,__new_finish), 

  00137	8b 55 e8	 mov	 edx, DWORD PTR ___len$[ebp]
  0013a	8b 45 ec	 mov	 eax, DWORD PTR ___new_start$[ebp]
  0013d	8b 4d e4	 mov	 ecx, DWORD PTR _this$[ebp]
  00140	52		 push	 edx
  00141	50		 push	 eax
  00142	83 c1 08	 add	 ecx, 8
  00145	e8 00 00 00 00	 call	 ?deallocate@?$allocator@UtagPOINT@@@_STL@@QAEXPAUtagPOINT@@I@Z ; _STL::allocator<tagPOINT>::deallocate

; 145  :                   this->_M_end_of_storage.deallocate(__new_start,__len)));

  0014a	6a 00		 push	 0
  0014c	6a 00		 push	 0
  0014e	e8 00 00 00 00	 call	 __CxxThrowException@8
$L80693:
$L80688:
  00153	cc		 int	 3
_TEXT	ENDS
;	COMDAT text$x
text$x	SEGMENT
__ehhandler$?_M_insert_overflow@?$vector@UtagPOINT@@V?$allocator@UtagPOINT@@@_STL@@@_STL@@IAEXPAUtagPOINT@@ABU3@ABU__false_type@2@I_N@Z:
  00000	b8 00 00 00 00	 mov	 eax, OFFSET FLAT:$T80686
  00005	e9 00 00 00 00	 jmp	 ___CxxFrameHandler
text$x	ENDS
?_M_insert_overflow@?$vector@UtagPOINT@@V?$allocator@UtagPOINT@@@_STL@@@_STL@@IAEXPAUtagPOINT@@ABU3@ABU__false_type@2@I_N@Z ENDP ; _STL::vector<tagPOINT,_STL::allocator<tagPOINT> >::_M_insert_overflow
PUBLIC	?_M_insert_overflow@?$vector@UtagRECT@@V?$allocator@UtagRECT@@@_STL@@@_STL@@IAEXPAUtagRECT@@ABU3@ABU__false_type@2@I_N@Z ; _STL::vector<tagRECT,_STL::allocator<tagRECT> >::_M_insert_overflow
;	COMDAT xdata$x
xdata$x	SEGMENT
$T80798	DD	0ffffffffH
	DD	00H
	DD	0ffffffffH
	DD	00H
$T80800	DD	00H
	DD	00H
	DD	00H
	DD	FLAT:$L80702
$T80799	DD	00H
	DD	00H
	DD	01H
	DD	01H
	DD	FLAT:$T80800
$T80794	DD	019930520H
	DD	02H
	DD	FLAT:$T80798
	DD	01H
	DD	FLAT:$T80799
	DD	2 DUP(00H)
; Function compile flags: /Ogty
xdata$x	ENDS
;	COMDAT ?_M_insert_overflow@?$vector@UtagRECT@@V?$allocator@UtagRECT@@@_STL@@@_STL@@IAEXPAUtagRECT@@ABU3@ABU__false_type@2@I_N@Z
_TEXT	SEGMENT
_this$ = -28						; size = 4
___len$ = -24						; size = 4
___old_size$ = -24					; size = 4
___new_start$ = -20					; size = 4
__$EHRec$ = -16						; size = 16
___position$ = 8					; size = 4
___x$ = 12						; size = 4
___formal$ = 16						; size = 4
___fill_len$ = 20					; size = 4
___atend$ = 24						; size = 1
$T80700 = 27						; size = 1
$T80699 = 27						; size = 1
$T80698 = 27						; size = 1
?_M_insert_overflow@?$vector@UtagRECT@@V?$allocator@UtagRECT@@@_STL@@@_STL@@IAEXPAUtagRECT@@ABU3@ABU__false_type@2@I_N@Z PROC NEAR ; _STL::vector<tagRECT,_STL::allocator<tagRECT> >::_M_insert_overflow, COMDAT
; _this$ = ecx

; 126  : 			  size_type __fill_len, bool __atend = false) {

  00000	55		 push	 ebp
  00001	8b ec		 mov	 ebp, esp
  00003	6a ff		 push	 -1
  00005	68 00 00 00 00	 push	 __ehhandler$?_M_insert_overflow@?$vector@UtagRECT@@V?$allocator@UtagRECT@@@_STL@@@_STL@@IAEXPAUtagRECT@@ABU3@ABU__false_type@2@I_N@Z
  0000a	64 a1 00 00 00
	00		 mov	 eax, DWORD PTR fs:__except_list
  00010	50		 push	 eax
  00011	64 89 25 00 00
	00 00		 mov	 DWORD PTR fs:__except_list, esp
  00018	83 ec 10	 sub	 esp, 16			; 00000010H
  0001b	53		 push	 ebx
  0001c	56		 push	 esi
  0001d	8b f1		 mov	 esi, ecx

; 127  :     const size_type __old_size = size();

  0001f	8b 46 04	 mov	 eax, DWORD PTR [esi+4]

; 128  :     const size_type __len = __old_size + (max)(__old_size, __fill_len);

  00022	8b 4d 14	 mov	 ecx, DWORD PTR ___fill_len$[ebp]
  00025	57		 push	 edi
  00026	2b 06		 sub	 eax, DWORD PTR [esi]
  00028	c1 f8 04	 sar	 eax, 4
  0002b	3b c1		 cmp	 eax, ecx
  0002d	89 65 f0	 mov	 DWORD PTR __$EHRec$[ebp], esp
  00030	89 75 e4	 mov	 DWORD PTR _this$[ebp], esi
  00033	89 45 e8	 mov	 DWORD PTR ___old_size$[ebp], eax
  00036	8d 4d 14	 lea	 ecx, DWORD PTR ___fill_len$[ebp]
  00039	72 03		 jb	 SHORT $L80714
  0003b	8d 4d e8	 lea	 ecx, DWORD PTR ___old_size$[ebp]
$L80714:
  0003e	8b 09		 mov	 ecx, DWORD PTR [ecx]
  00040	03 c8		 add	 ecx, eax
  00042	89 4d e8	 mov	 DWORD PTR ___len$[ebp], ecx

; 129  :     
; 130  :     pointer __new_start = this->_M_end_of_storage.allocate(__len);

  00045	74 25		 je	 SHORT $L80732
  00047	8b c1		 mov	 eax, ecx
  00049	c1 e0 04	 shl	 eax, 4
  0004c	3d 80 00 00 00	 cmp	 eax, 128		; 00000080H
  00051	50		 push	 eax
  00052	76 0c		 jbe	 SHORT $L80735
  00054	e8 00 00 00 00	 call	 ??2@YAPAXI@Z		; operator new
  00059	83 c4 04	 add	 esp, 4
  0005c	8b d8		 mov	 ebx, eax
  0005e	eb 0e		 jmp	 SHORT $L80797
$L80735:
  00060	e8 00 00 00 00	 call	 ?_M_allocate@?$__node_alloc@$00$0A@@_STL@@CAPAXI@Z ; _STL::__node_alloc<1,0>::_M_allocate
  00065	83 c4 04	 add	 esp, 4
  00068	8b d8		 mov	 ebx, eax
  0006a	eb 02		 jmp	 SHORT $L80797
$L80732:
  0006c	33 db		 xor	 ebx, ebx
$L80797:

; 131  :     pointer __new_finish = __new_start;
; 132  :     _STLP_TRY {
; 133  :       __new_finish = __uninitialized_copy(this->_M_start, __position, __new_start, __false_type());

  0006e	8b 4d 08	 mov	 ecx, DWORD PTR ___position$[ebp]
  00071	8b 16		 mov	 edx, DWORD PTR [esi]
  00073	8d 45 1b	 lea	 eax, DWORD PTR $T80698[ebp]
  00076	50		 push	 eax
  00077	53		 push	 ebx
  00078	51		 push	 ecx
  00079	52		 push	 edx
  0007a	89 5d ec	 mov	 DWORD PTR ___new_start$[ebp], ebx
  0007d	c7 45 fc 00 00
	00 00		 mov	 DWORD PTR __$EHRec$[ebp+12], 0
  00084	e8 00 00 00 00	 call	 ??$__uninitialized_copy@PAUtagRECT@@PAU1@@_STL@@YAPAUtagRECT@@PAU1@00ABU__false_type@0@@Z ; _STL::__uninitialized_copy<tagRECT *,tagRECT *>
  00089	8b f8		 mov	 edi, eax

; 134  :       // handle insertion
; 135  :       if (__fill_len == 1) {

  0008b	8b 45 14	 mov	 eax, DWORD PTR ___fill_len$[ebp]
  0008e	83 c4 10	 add	 esp, 16			; 00000010H
  00091	83 f8 01	 cmp	 eax, 1
  00094	75 24		 jne	 SHORT $L76521

; 136  :         _Construct(__new_finish, __x);

  00096	85 ff		 test	 edi, edi
  00098	74 1b		 je	 SHORT $L80751
  0009a	8b 45 0c	 mov	 eax, DWORD PTR ___x$[ebp]
  0009d	8b 10		 mov	 edx, DWORD PTR [eax]
  0009f	8b cf		 mov	 ecx, edi
  000a1	89 11		 mov	 DWORD PTR [ecx], edx
  000a3	8b 50 04	 mov	 edx, DWORD PTR [eax+4]
  000a6	89 51 04	 mov	 DWORD PTR [ecx+4], edx
  000a9	8b 50 08	 mov	 edx, DWORD PTR [eax+8]
  000ac	89 51 08	 mov	 DWORD PTR [ecx+8], edx
  000af	8b 40 0c	 mov	 eax, DWORD PTR [eax+12]
  000b2	89 41 0c	 mov	 DWORD PTR [ecx+12], eax
$L80751:

; 137  :         ++__new_finish;

  000b5	83 c7 10	 add	 edi, 16			; 00000010H

; 138  :       } else

  000b8	eb 14		 jmp	 SHORT $L76522
$L76521:

; 139  :         __new_finish = __uninitialized_fill_n(__new_finish, __fill_len, __x, __false_type());

  000ba	8b 55 0c	 mov	 edx, DWORD PTR ___x$[ebp]
  000bd	8d 4d 1b	 lea	 ecx, DWORD PTR $T80699[ebp]
  000c0	51		 push	 ecx
  000c1	52		 push	 edx
  000c2	50		 push	 eax
  000c3	57		 push	 edi
  000c4	e8 00 00 00 00	 call	 ??$__uninitialized_fill_n@PAUtagRECT@@IU1@@_STL@@YAPAUtagRECT@@PAU1@IABU1@ABU__false_type@0@@Z ; _STL::__uninitialized_fill_n<tagRECT *,unsigned int,tagRECT>
  000c9	83 c4 10	 add	 esp, 16			; 00000010H
  000cc	8b f8		 mov	 edi, eax
$L76522:

; 140  :       if (!__atend)

  000ce	8a 45 18	 mov	 al, BYTE PTR ___atend$[ebp]
  000d1	84 c0		 test	 al, al
  000d3	75 17		 jne	 SHORT $L76542

; 141  :         // copy remainder
; 142  :         __new_finish = __uninitialized_copy(__position, this->_M_finish, __new_finish, __false_type());

  000d5	8b 4e 04	 mov	 ecx, DWORD PTR [esi+4]
  000d8	8b 55 08	 mov	 edx, DWORD PTR ___position$[ebp]
  000db	8d 45 1b	 lea	 eax, DWORD PTR $T80700[ebp]
  000de	50		 push	 eax
  000df	57		 push	 edi
  000e0	51		 push	 ecx
  000e1	52		 push	 edx
  000e2	e8 00 00 00 00	 call	 ??$__uninitialized_copy@PAUtagRECT@@PAU1@@_STL@@YAPAUtagRECT@@PAU1@00ABU__false_type@0@@Z ; _STL::__uninitialized_copy<tagRECT *,tagRECT *>
  000e7	83 c4 10	 add	 esp, 16			; 00000010H
  000ea	8b f8		 mov	 edi, eax
$L76542:

; 146  :     _M_clear();

  000ec	8b 0e		 mov	 ecx, DWORD PTR [esi]
  000ee	85 c9		 test	 ecx, ecx
  000f0	c7 45 fc ff ff
	ff ff		 mov	 DWORD PTR __$EHRec$[ebp+12], -1
  000f7	74 27		 je	 SHORT $L80784
  000f9	8b 46 08	 mov	 eax, DWORD PTR [esi+8]
  000fc	2b c1		 sub	 eax, ecx
  000fe	c1 f8 04	 sar	 eax, 4
  00101	c1 e0 04	 shl	 eax, 4
  00104	3d 80 00 00 00	 cmp	 eax, 128		; 00000080H
  00109	76 0b		 jbe	 SHORT $L80783
  0010b	51		 push	 ecx
  0010c	e8 00 00 00 00	 call	 ??3@YAXPAX@Z		; operator delete
  00111	83 c4 04	 add	 esp, 4
  00114	eb 0a		 jmp	 SHORT $L80784
$L80783:
  00116	50		 push	 eax
  00117	51		 push	 ecx
  00118	e8 00 00 00 00	 call	 ?_M_deallocate@?$__node_alloc@$00$0A@@_STL@@CAXPAXI@Z ; _STL::__node_alloc<1,0>::_M_deallocate
  0011d	83 c4 08	 add	 esp, 8
$L80784:

; 147  :     _M_set(__new_start, __new_finish, __new_start + __len);

  00120	8b 45 e8	 mov	 eax, DWORD PTR ___len$[ebp]

; 148  :   }

  00123	8b 4d f4	 mov	 ecx, DWORD PTR __$EHRec$[ebp+4]
  00126	89 7e 04	 mov	 DWORD PTR [esi+4], edi
  00129	c1 e0 04	 shl	 eax, 4
  0012c	03 c3		 add	 eax, ebx
  0012e	89 1e		 mov	 DWORD PTR [esi], ebx
  00130	5f		 pop	 edi
  00131	89 46 08	 mov	 DWORD PTR [esi+8], eax
  00134	5e		 pop	 esi
  00135	64 89 0d 00 00
	00 00		 mov	 DWORD PTR fs:__except_list, ecx
  0013c	5b		 pop	 ebx
  0013d	8b e5		 mov	 esp, ebp
  0013f	5d		 pop	 ebp
  00140	c2 14 00	 ret	 20			; 00000014H
$L80702:

; 143  :     }
; 144  :     _STLP_UNWIND((_Destroy(__new_start,__new_finish), 

  00143	8b 45 e8	 mov	 eax, DWORD PTR ___len$[ebp]
  00146	8b 4d ec	 mov	 ecx, DWORD PTR ___new_start$[ebp]
  00149	50		 push	 eax
  0014a	51		 push	 ecx
  0014b	8b 4d e4	 mov	 ecx, DWORD PTR _this$[ebp]
  0014e	83 c1 08	 add	 ecx, 8
  00151	e8 00 00 00 00	 call	 ?deallocate@?$allocator@UtagRECT@@@_STL@@QAEXPAUtagRECT@@I@Z ; _STL::allocator<tagRECT>::deallocate

; 145  :                   this->_M_end_of_storage.deallocate(__new_start,__len)));

  00156	6a 00		 push	 0
  00158	6a 00		 push	 0
  0015a	e8 00 00 00 00	 call	 __CxxThrowException@8
$L80801:
$L80796:
  0015f	cc		 int	 3
_TEXT	ENDS
;	COMDAT text$x
text$x	SEGMENT
__ehhandler$?_M_insert_overflow@?$vector@UtagRECT@@V?$allocator@UtagRECT@@@_STL@@@_STL@@IAEXPAUtagRECT@@ABU3@ABU__false_type@2@I_N@Z:
  00000	b8 00 00 00 00	 mov	 eax, OFFSET FLAT:$T80794
  00005	e9 00 00 00 00	 jmp	 ___CxxFrameHandler
text$x	ENDS
?_M_insert_overflow@?$vector@UtagRECT@@V?$allocator@UtagRECT@@@_STL@@@_STL@@IAEXPAUtagRECT@@ABU3@ABU__false_type@2@I_N@Z ENDP ; _STL::vector<tagRECT,_STL::allocator<tagRECT> >::_M_insert_overflow
PUBLIC	?lower_bound@?$map@V?$basic_string@DV?$char_traits@D@_STL@@V?$allocator@D@2@@_STL@@HU?$less@V?$basic_string@DV?$char_traits@D@_STL@@V?$allocator@D@2@@_STL@@@2@V?$allocator@U?$pair@$$CBV?$basic_string@DV?$char_traits@D@_STL@@V?$allocator@D@2@@_STL@@H@_STL@@@2@@_STL@@QAE?AU?$_Rb_tree_iterator@U?$pair@$$CBV?$basic_string@DV?$char_traits@D@_STL@@V?$allocator@D@2@@_STL@@H@_STL@@U?$_Nonconst_traits@U?$pair@$$CBV?$basic_string@DV?$char_traits@D@_STL@@V?$allocator@D@2@@_STL@@H@_STL@@@2@@2@ABV?$basic_string@DV?$char_traits@D@_STL@@V?$allocator@D@2@@2@@Z ; _STL::map<_STL::basic_string<char,_STL::char_traits<char>,_STL::allocator<char> >,int,_STL::less<_STL::basic_string<char,_STL::char_traits<char>,_STL::allocator<char> > >,_STL::allocator<_STL::pair<_STL::basic_string<char,_STL::char_traits<char>,_STL::allocator<char> > const ,int> > >::lower_bound
; Function compile flags: /Ogty
; File c:\stlport-4.6.1\stlport\stl\_map.h
;	COMDAT ?lower_bound@?$map@V?$basic_string@DV?$char_traits@D@_STL@@V?$allocator@D@2@@_STL@@HU?$less@V?$basic_string@DV?$char_traits@D@_STL@@V?$allocator@D@2@@_STL@@@2@V?$allocator@U?$pair@$$CBV?$basic_string@DV?$char_traits@D@_STL@@V?$allocator@D@2@@_STL@@H@_STL@@@2@@_STL@@QAE?AU?$_Rb_tree_iterator@U?$pair@$$CBV?$basic_string@DV?$char_traits@D@_STL@@V?$allocator@D@2@@_STL@@H@_STL@@U?$_Nonconst_traits@U?$pair@$$CBV?$basic_string@DV?$char_traits@D@_STL@@V?$allocator@D@2@@_STL@@H@_STL@@@2@@2@ABV?$basic_string@DV?$char_traits@D@_STL@@V?$allocator@D@2@@2@@Z
_TEXT	SEGMENT
___$ReturnUdt$ = 8					; size = 4
___x$ = 12						; size = 4
?lower_bound@?$map@V?$basic_string@DV?$char_traits@D@_STL@@V?$allocator@D@2@@_STL@@HU?$less@V?$basic_string@DV?$char_traits@D@_STL@@V?$allocator@D@2@@_STL@@@2@V?$allocator@U?$pair@$$CBV?$basic_string@DV?$char_traits@D@_STL@@V?$allocator@D@2@@_STL@@H@_STL@@@2@@_STL@@QAE?AU?$_Rb_tree_iterator@U?$pair@$$CBV?$basic_string@DV?$char_traits@D@_STL@@V?$allocator@D@2@@_STL@@H@_STL@@U?$_Nonconst_traits@U?$pair@$$CBV?$basic_string@DV?$char_traits@D@_STL@@V?$allocator@D@2@@_STL@@H@_STL@@@2@@2@ABV?$basic_string@DV?$char_traits@D@_STL@@V?$allocator@D@2@@2@@Z PROC NEAR ; _STL::map<_STL::basic_string<char,_STL::char_traits<char>,_STL::allocator<char> >,int,_STL::less<_STL::basic_string<char,_STL::char_traits<char>,_STL::allocator<char> > >,_STL::allocator<_STL::pair<_STL::basic_string<char,_STL::char_traits<char>,_STL::allocator<char> > const ,int> > >::lower_bound, COMDAT
; _this$ = ecx

; 200  :   iterator lower_bound(const key_type& __x) {return _M_t.lower_bound(__x); }

  00000	8b 44 24 08	 mov	 eax, DWORD PTR ___x$[esp-4]
  00004	50		 push	 eax
  00005	e8 00 00 00 00	 call	 ?_M_lower_bound@?$_Rb_tree@V?$basic_string@DV?$char_traits@D@_STL@@V?$allocator@D@2@@_STL@@U?$pair@$$CBV?$basic_string@DV?$char_traits@D@_STL@@V?$allocator@D@2@@_STL@@H@2@U?$_Select1st@U?$pair@$$CBV?$basic_string@DV?$char_traits@D@_STL@@V?$allocator@D@2@@_STL@@H@_STL@@@2@U?$less@V?$basic_string@DV?$char_traits@D@_STL@@V?$allocator@D@2@@_STL@@@2@V?$allocator@U?$pair@$$CBV?$basic_string@DV?$char_traits@D@_STL@@V?$allocator@D@2@@_STL@@H@_STL@@@2@@_STL@@ABEPAU?$_Rb_tree_node@U?$pair@$$CBV?$basic_string@DV?$char_traits@D@_STL@@V?$allocator@D@2@@_STL@@H@_STL@@@2@ABV?$basic_string@DV?$char_traits@D@_STL@@V?$allocator@D@2@@2@@Z ; _STL::_Rb_tree<_STL::basic_string<char,_STL::char_traits<char>,_STL::allocator<char> >,_STL::pair<_STL::basic_string<char,_STL::char_traits<char>,_STL::allocator<char> > const ,int>,_STL::_Select1st<_STL::pair<_STL::basic_string<char,_STL::char_traits<char>,_STL::allocator<char> > const ,int> >,_STL::less<_STL::basic_string<char,_STL::char_traits<char>,_STL::allocator<char> > >,_STL::allocator<_STL::pair<_STL::basic_string<char,_STL::char_traits<char>,_STL::allocator<char> > const ,int> > >::_M_lower_bound
  0000a	8b 4c 24 04	 mov	 ecx, DWORD PTR ___$ReturnUdt$[esp-4]
  0000e	89 01		 mov	 DWORD PTR [ecx], eax
  00010	8b c1		 mov	 eax, ecx
  00012	c2 08 00	 ret	 8
?lower_bound@?$map@V?$basic_string@DV?$char_traits@D@_STL@@V?$allocator@D@2@@_STL@@HU?$less@V?$basic_string@DV?$char_traits@D@_STL@@V?$allocator@D@2@@_STL@@@2@V?$allocator@U?$pair@$$CBV?$basic_string@DV?$char_traits@D@_STL@@V?$allocator@D@2@@_STL@@H@_STL@@@2@@_STL@@QAE?AU?$_Rb_tree_iterator@U?$pair@$$CBV?$basic_string@DV?$char_traits@D@_STL@@V?$allocator@D@2@@_STL@@H@_STL@@U?$_Nonconst_traits@U?$pair@$$CBV?$basic_string@DV?$char_traits@D@_STL@@V?$allocator@D@2@@_STL@@H@_STL@@@2@@2@ABV?$basic_string@DV?$char_traits@D@_STL@@V?$allocator@D@2@@2@@Z ENDP ; _STL::map<_STL::basic_string<char,_STL::char_traits<char>,_STL::allocator<char> >,int,_STL::less<_STL::basic_string<char,_STL::char_traits<char>,_STL::allocator<char> > >,_STL::allocator<_STL::pair<_STL::basic_string<char,_STL::char_traits<char>,_STL::allocator<char> > const ,int> > >::lower_bound
_TEXT	ENDS
PUBLIC	??_EInterfaceInformation@@QAEPAXI@Z		; InterfaceInformation::`vector deleting destructor'
EXTRN	??_M@YGXPAXIHP6EX0@Z@Z:NEAR			; `eh vector destructor iterator'
EXTRN	??_V@YAXPAX@Z:NEAR				; operator delete[]
; Function compile flags: /Ogty
;	COMDAT ??_EInterfaceInformation@@QAEPAXI@Z
_TEXT	SEGMENT
___flags$ = 8						; size = 4
??_EInterfaceInformation@@QAEPAXI@Z PROC NEAR		; InterfaceInformation::`vector deleting destructor', COMDAT
; _this$ = ecx
  00000	53		 push	 ebx
  00001	8a 5c 24 08	 mov	 bl, BYTE PTR ___flags$[esp]
  00005	f6 c3 02	 test	 bl, 2
  00008	56		 push	 esi
  00009	8b f1		 mov	 esi, ecx
  0000b	74 2b		 je	 SHORT $L77191
  0000d	8b 46 fc	 mov	 eax, DWORD PTR [esi-4]
  00010	57		 push	 edi
  00011	68 00 00 00 00	 push	 OFFSET FLAT:??1InterfaceInformation@@QAE@XZ ; InterfaceInformation::~InterfaceInformation
  00016	8d 7e fc	 lea	 edi, DWORD PTR [esi-4]
  00019	50		 push	 eax
  0001a	6a 1c		 push	 28			; 0000001cH
  0001c	56		 push	 esi
  0001d	e8 00 00 00 00	 call	 ??_M@YGXPAXIHP6EX0@Z@Z
  00022	f6 c3 01	 test	 bl, 1
  00025	74 09		 je	 SHORT $L77192
  00027	57		 push	 edi
  00028	e8 00 00 00 00	 call	 ??_V@YAXPAX@Z		; operator delete[]
  0002d	83 c4 04	 add	 esp, 4
$L77192:
  00030	8b c7		 mov	 eax, edi
  00032	5f		 pop	 edi
  00033	5e		 pop	 esi
  00034	5b		 pop	 ebx
  00035	c2 04 00	 ret	 4
$L77191:
  00038	8b ce		 mov	 ecx, esi
  0003a	e8 00 00 00 00	 call	 ??1InterfaceInformation@@QAE@XZ ; InterfaceInformation::~InterfaceInformation
  0003f	f6 c3 01	 test	 bl, 1
  00042	74 09		 je	 SHORT $L77194
  00044	56		 push	 esi
  00045	e8 00 00 00 00	 call	 ??3@YAXPAX@Z		; operator delete
  0004a	83 c4 04	 add	 esp, 4
$L77194:
  0004d	8b c6		 mov	 eax, esi
  0004f	5e		 pop	 esi
  00050	5b		 pop	 ebx
  00051	c2 04 00	 ret	 4
??_EInterfaceInformation@@QAEPAXI@Z ENDP		; InterfaceInformation::`vector deleting destructor'
_TEXT	ENDS
PUBLIC	??$_M_range_initialize@PAD@?$basic_string@DV?$char_traits@D@_STL@@V?$allocator@D@2@@_STL@@AAEXPAD0@Z ; _STL::basic_string<char,_STL::char_traits<char>,_STL::allocator<char> >::_M_range_initialize<char *>
; Function compile flags: /Ogty
; File c:\stlport-4.6.1\stlport\stl\_string.h
;	COMDAT ??$_M_range_initialize@PAD@?$basic_string@DV?$char_traits@D@_STL@@V?$allocator@D@2@@_STL@@AAEXPAD0@Z
_TEXT	SEGMENT
___f$ = 8						; size = 4
___l$ = 12						; size = 4
??$_M_range_initialize@PAD@?$basic_string@DV?$char_traits@D@_STL@@V?$allocator@D@2@@_STL@@AAEXPAD0@Z PROC NEAR ; _STL::basic_string<char,_STL::char_traits<char>,_STL::allocator<char> >::_M_range_initialize<char *>, COMDAT
; _this$ = ecx

; 390  :   template <class _InputIter> void _M_range_initialize(_InputIter __f, _InputIter __l) {

  00000	53		 push	 ebx

; 391  :     _M_range_initialize(__f, __l, _STLP_ITERATOR_CATEGORY(__f, _InputIter));

  00001	8b 5c 24 08	 mov	 ebx, DWORD PTR ___f$[esp]
  00005	55		 push	 ebp
  00006	8b 6c 24 10	 mov	 ebp, DWORD PTR ___l$[esp+4]
  0000a	56		 push	 esi
  0000b	8b f5		 mov	 esi, ebp
  0000d	57		 push	 edi
  0000e	2b f3		 sub	 esi, ebx
  00010	8d 46 01	 lea	 eax, DWORD PTR [esi+1]
  00013	50		 push	 eax
  00014	8b f9		 mov	 edi, ecx
  00016	e8 00 00 00 00	 call	 ?_M_allocate_block@?$_String_base@DV?$allocator@D@_STL@@@_STL@@QAEXI@Z ; _STL::_String_base<char,_STL::allocator<char> >::_M_allocate_block
  0001b	3b eb		 cmp	 ebp, ebx
  0001d	8b 07		 mov	 eax, DWORD PTR [edi]
  0001f	74 0d		 je	 SHORT $L80985
  00021	56		 push	 esi
  00022	53		 push	 ebx
  00023	50		 push	 eax
  00024	e8 00 00 00 00	 call	 _memmove
  00029	83 c4 0c	 add	 esp, 12			; 0000000cH
  0002c	03 c6		 add	 eax, esi
$L80985:
  0002e	89 47 04	 mov	 DWORD PTR [edi+4], eax
  00031	5f		 pop	 edi
  00032	5e		 pop	 esi
  00033	5d		 pop	 ebp
  00034	c6 00 00	 mov	 BYTE PTR [eax], 0
  00037	5b		 pop	 ebx

; 392  :   }

  00038	c2 08 00	 ret	 8
??$_M_range_initialize@PAD@?$basic_string@DV?$char_traits@D@_STL@@V?$allocator@D@2@@_STL@@AAEXPAD0@Z ENDP ; _STL::basic_string<char,_STL::char_traits<char>,_STL::allocator<char> >::_M_range_initialize<char *>
_TEXT	ENDS
PUBLIC	?Release@?$CTypeTable@VInterfaceInformation@@@@QAEXXZ ; CTypeTable<InterfaceInformation>::Release
; Function compile flags: /Ogty
; File c:\darkeden\designed_common\project\client\ctypetable.h
;	COMDAT ?Release@?$CTypeTable@VInterfaceInformation@@@@QAEXXZ
_TEXT	SEGMENT
?Release@?$CTypeTable@VInterfaceInformation@@@@QAEXXZ PROC NEAR ; CTypeTable<InterfaceInformation>::Release, COMDAT
; _this$ = ecx

; 108  : {

  00000	56		 push	 esi
  00001	8b f1		 mov	 esi, ecx

; 109  : 	if (m_pTypeInfo != NULL)

  00003	8b 46 04	 mov	 eax, DWORD PTR [esi+4]
  00006	85 c0		 test	 eax, eax
  00008	74 2c		 je	 SHORT $L77339

; 110  : 	{
; 111  : 		//  CSprite .
; 112  : 		delete [] m_pTypeInfo;

  0000a	8b 48 fc	 mov	 ecx, DWORD PTR [eax-4]
  0000d	57		 push	 edi
  0000e	8d 78 fc	 lea	 edi, DWORD PTR [eax-4]
  00011	68 00 00 00 00	 push	 OFFSET FLAT:??1InterfaceInformation@@QAE@XZ ; InterfaceInformation::~InterfaceInformation
  00016	51		 push	 ecx
  00017	6a 1c		 push	 28			; 0000001cH
  00019	50		 push	 eax
  0001a	e8 00 00 00 00	 call	 ??_M@YGXPAXIHP6EX0@Z@Z
  0001f	57		 push	 edi
  00020	e8 00 00 00 00	 call	 ??_V@YAXPAX@Z		; operator delete[]
  00025	83 c4 04	 add	 esp, 4

; 113  : 		m_pTypeInfo = NULL;

  00028	c7 46 04 00 00
	00 00		 mov	 DWORD PTR [esi+4], 0

; 114  : 		
; 115  : 		m_Size = 0;

  0002f	c7 06 00 00 00
	00		 mov	 DWORD PTR [esi], 0
  00035	5f		 pop	 edi
$L77339:
  00036	5e		 pop	 esi

; 116  : 	}
; 117  : }

  00037	c3		 ret	 0
?Release@?$CTypeTable@VInterfaceInformation@@@@QAEXXZ ENDP ; CTypeTable<InterfaceInformation>::Release
_TEXT	ENDS
PUBLIC	??_G?$pair@$$CBV?$basic_string@DV?$char_traits@D@_STL@@V?$allocator@D@2@@_STL@@H@_STL@@QAEPAXI@Z ; _STL::pair<_STL::basic_string<char,_STL::char_traits<char>,_STL::allocator<char> > const ,int>::`scalar deleting destructor'
; Function compile flags: /Ogty
;	COMDAT ??_G?$pair@$$CBV?$basic_string@DV?$char_traits@D@_STL@@V?$allocator@D@2@@_STL@@H@_STL@@QAEPAXI@Z
_TEXT	SEGMENT
___flags$ = 8						; size = 4
??_G?$pair@$$CBV?$basic_string@DV?$char_traits@D@_STL@@V?$allocator@D@2@@_STL@@H@_STL@@QAEPAXI@Z PROC NEAR ; _STL::pair<_STL::basic_string<char,_STL::char_traits<char>,_STL::allocator<char> > const ,int>::`scalar deleting destructor', COMDAT
; _this$ = ecx
  00000	56		 push	 esi
  00001	8b f1		 mov	 esi, ecx
  00003	e8 00 00 00 00	 call	 ??1?$pair@$$CBV?$basic_string@DV?$char_traits@D@_STL@@V?$allocator@D@2@@_STL@@H@_STL@@QAE@XZ
  00008	f6 44 24 08 01	 test	 BYTE PTR ___flags$[esp], 1
  0000d	74 09		 je	 SHORT $L81003
  0000f	56		 push	 esi
  00010	e8 00 00 00 00	 call	 ??3@YAXPAX@Z		; operator delete
  00015	83 c4 04	 add	 esp, 4
$L81003:
  00018	8b c6		 mov	 eax, esi
  0001a	5e		 pop	 esi
  0001b	c2 04 00	 ret	 4
??_G?$pair@$$CBV?$basic_string@DV?$char_traits@D@_STL@@V?$allocator@D@2@@_STL@@H@_STL@@QAEPAXI@Z ENDP ; _STL::pair<_STL::basic_string<char,_STL::char_traits<char>,_STL::allocator<char> > const ,int>::`scalar deleting destructor'
_TEXT	ENDS
PUBLIC	??0InterfaceInformation@@QAE@XZ			; InterfaceInformation::InterfaceInformation
; Function compile flags: /Ogty
; File c:\darkeden\designed_common\project\new - vs_ui\src\skinmanager.cpp
;	COMDAT ??0InterfaceInformation@@QAE@XZ
_TEXT	SEGMENT
$T81152 = -1						; size = 1
??0InterfaceInformation@@QAE@XZ PROC NEAR		; InterfaceInformation::InterfaceInformation, COMDAT
; _this$ = ecx

; 13   : {

  00000	51		 push	 ecx
  00001	56		 push	 esi
  00002	8b f1		 mov	 esi, ecx
  00004	57		 push	 edi
  00005	33 ff		 xor	 edi, edi
  00007	89 3e		 mov	 DWORD PTR [esi], edi
  00009	89 7e 04	 mov	 DWORD PTR [esi+4], edi
  0000c	89 7e 08	 mov	 DWORD PTR [esi+8], edi
  0000f	89 7e 0c	 mov	 DWORD PTR [esi+12], edi
  00012	89 7e 10	 mov	 DWORD PTR [esi+16], edi
  00015	89 7e 14	 mov	 DWORD PTR [esi+20], edi

; 14   : 	m_ID = 0;
; 15   : 	m_PointList.clear();

  00018	8b 46 04	 mov	 eax, DWORD PTR [esi+4]
  0001b	8b 0e		 mov	 ecx, DWORD PTR [esi]
  0001d	8b d0		 mov	 edx, eax
  0001f	2b d0		 sub	 edx, eax
  00021	c1 fa 03	 sar	 edx, 3
  00024	3b d7		 cmp	 edx, edi
  00026	89 7e 18	 mov	 DWORD PTR [esi+24], edi
  00029	7e 19		 jle	 SHORT $L81115
  0002b	53		 push	 ebx
  0002c	8d 64 24 00	 npad	 4
$L81113:
  00030	8b 18		 mov	 ebx, DWORD PTR [eax]
  00032	89 19		 mov	 DWORD PTR [ecx], ebx
  00034	8b 58 04	 mov	 ebx, DWORD PTR [eax+4]
  00037	89 59 04	 mov	 DWORD PTR [ecx+4], ebx
  0003a	83 c0 08	 add	 eax, 8
  0003d	83 c1 08	 add	 ecx, 8
  00040	4a		 dec	 edx
  00041	75 ed		 jne	 SHORT $L81113
  00043	5b		 pop	 ebx
$L81115:

; 16   : 	m_RectList.clear();

  00044	57		 push	 edi
  00045	89 4e 04	 mov	 DWORD PTR [esi+4], ecx
  00048	8b 4e 0c	 mov	 ecx, DWORD PTR [esi+12]
  0004b	8b 46 10	 mov	 eax, DWORD PTR [esi+16]
  0004e	8d 54 24 0f	 lea	 edx, DWORD PTR $T81152[esp+16]
  00052	52		 push	 edx
  00053	51		 push	 ecx
  00054	50		 push	 eax
  00055	50		 push	 eax
  00056	e8 00 00 00 00	 call	 ??$__copy@PAUtagRECT@@PAU1@H@_STL@@YAPAUtagRECT@@PAU1@00ABUrandom_access_iterator_tag@0@PAH@Z ; _STL::__copy<tagRECT *,tagRECT *,int>
  0005b	83 c4 14	 add	 esp, 20			; 00000014H
  0005e	89 46 10	 mov	 DWORD PTR [esi+16], eax
  00061	5f		 pop	 edi

; 17   : }

  00062	8b c6		 mov	 eax, esi
  00064	5e		 pop	 esi
  00065	59		 pop	 ecx
  00066	c3		 ret	 0
??0InterfaceInformation@@QAE@XZ ENDP			; InterfaceInformation::InterfaceInformation
_TEXT	ENDS
PUBLIC	?push_back@?$vector@UtagPOINT@@V?$allocator@UtagPOINT@@@_STL@@@_STL@@QAEXABUtagPOINT@@@Z ; _STL::vector<tagPOINT,_STL::allocator<tagPOINT> >::push_back
; Function compile flags: /Ogty
; File c:\stlport-4.6.1\stlport\stl\_vector.h
;	COMDAT ?push_back@?$vector@UtagPOINT@@V?$allocator@UtagPOINT@@@_STL@@@_STL@@QAEXABUtagPOINT@@@Z
_TEXT	SEGMENT
$T81163 = 8						; size = 1
___x$ = 8						; size = 4
?push_back@?$vector@UtagPOINT@@V?$allocator@UtagPOINT@@@_STL@@@_STL@@QAEXABUtagPOINT@@@Z PROC NEAR ; _STL::vector<tagPOINT,_STL::allocator<tagPOINT> >::push_back, COMDAT
; _this$ = ecx

; 332  :     if (this->_M_finish != this->_M_end_of_storage._M_data) {

  00000	8b 41 04	 mov	 eax, DWORD PTR [ecx+4]
  00003	3b 41 08	 cmp	 eax, DWORD PTR [ecx+8]
  00006	74 1b		 je	 SHORT $L76323

; 333  :       _Construct(this->_M_finish, __x);

  00008	85 c0		 test	 eax, eax
  0000a	74 10		 je	 SHORT $L81174
  0000c	8b 54 24 04	 mov	 edx, DWORD PTR ___x$[esp-4]
  00010	56		 push	 esi
  00011	8b 32		 mov	 esi, DWORD PTR [edx]
  00013	89 30		 mov	 DWORD PTR [eax], esi
  00015	8b 52 04	 mov	 edx, DWORD PTR [edx+4]
  00018	89 50 04	 mov	 DWORD PTR [eax+4], edx
  0001b	5e		 pop	 esi
$L81174:

; 334  :       ++this->_M_finish;

  0001c	83 41 04 08	 add	 DWORD PTR [ecx+4], 8

; 338  :   }

  00020	c2 04 00	 ret	 4
$L76323:

; 335  :     }
; 336  :     else
; 337  :       _M_insert_overflow(this->_M_finish, __x, _IsPODType(), 1UL, true);

  00023	6a 01		 push	 1
  00025	6a 01		 push	 1
  00027	8d 54 24 0c	 lea	 edx, DWORD PTR $T81163[esp+4]
  0002b	52		 push	 edx
  0002c	8b 54 24 10	 mov	 edx, DWORD PTR ___x$[esp+8]
  00030	52		 push	 edx
  00031	50		 push	 eax
  00032	e8 00 00 00 00	 call	 ?_M_insert_overflow@?$vector@UtagPOINT@@V?$allocator@UtagPOINT@@@_STL@@@_STL@@IAEXPAUtagPOINT@@ABU3@ABU__false_type@2@I_N@Z ; _STL::vector<tagPOINT,_STL::allocator<tagPOINT> >::_M_insert_overflow

; 338  :   }

  00037	c2 04 00	 ret	 4
?push_back@?$vector@UtagPOINT@@V?$allocator@UtagPOINT@@@_STL@@@_STL@@QAEXABUtagPOINT@@@Z ENDP ; _STL::vector<tagPOINT,_STL::allocator<tagPOINT> >::push_back
_TEXT	ENDS
PUBLIC	?push_back@?$vector@UtagRECT@@V?$allocator@UtagRECT@@@_STL@@@_STL@@QAEXABUtagRECT@@@Z ; _STL::vector<tagRECT,_STL::allocator<tagRECT> >::push_back
; Function compile flags: /Ogty
;	COMDAT ?push_back@?$vector@UtagRECT@@V?$allocator@UtagRECT@@@_STL@@@_STL@@QAEXABUtagRECT@@@Z
_TEXT	SEGMENT
$T81182 = 8						; size = 1
___x$ = 8						; size = 4
?push_back@?$vector@UtagRECT@@V?$allocator@UtagRECT@@@_STL@@@_STL@@QAEXABUtagRECT@@@Z PROC NEAR ; _STL::vector<tagRECT,_STL::allocator<tagRECT> >::push_back, COMDAT
; _this$ = ecx

; 332  :     if (this->_M_finish != this->_M_end_of_storage._M_data) {

  00000	8b 41 04	 mov	 eax, DWORD PTR [ecx+4]
  00003	3b 41 08	 cmp	 eax, DWORD PTR [ecx+8]
  00006	74 27		 je	 SHORT $L76351

; 333  :       _Construct(this->_M_finish, __x);

  00008	85 c0		 test	 eax, eax
  0000a	74 1c		 je	 SHORT $L81193
  0000c	8b 54 24 04	 mov	 edx, DWORD PTR ___x$[esp-4]
  00010	56		 push	 esi
  00011	8b 32		 mov	 esi, DWORD PTR [edx]
  00013	89 30		 mov	 DWORD PTR [eax], esi
  00015	8b 72 04	 mov	 esi, DWORD PTR [edx+4]
  00018	89 70 04	 mov	 DWORD PTR [eax+4], esi
  0001b	8b 72 08	 mov	 esi, DWORD PTR [edx+8]
  0001e	89 70 08	 mov	 DWORD PTR [eax+8], esi
  00021	8b 52 0c	 mov	 edx, DWORD PTR [edx+12]
  00024	89 50 0c	 mov	 DWORD PTR [eax+12], edx
  00027	5e		 pop	 esi
$L81193:

; 334  :       ++this->_M_finish;

  00028	83 41 04 10	 add	 DWORD PTR [ecx+4], 16	; 00000010H

; 338  :   }

  0002c	c2 04 00	 ret	 4
$L76351:

; 335  :     }
; 336  :     else
; 337  :       _M_insert_overflow(this->_M_finish, __x, _IsPODType(), 1UL, true);

  0002f	6a 01		 push	 1
  00031	6a 01		 push	 1
  00033	8d 54 24 0c	 lea	 edx, DWORD PTR $T81182[esp+4]
  00037	52		 push	 edx
  00038	8b 54 24 10	 mov	 edx, DWORD PTR ___x$[esp+8]
  0003c	52		 push	 edx
  0003d	50		 push	 eax
  0003e	e8 00 00 00 00	 call	 ?_M_insert_overflow@?$vector@UtagRECT@@V?$allocator@UtagRECT@@@_STL@@@_STL@@IAEXPAUtagRECT@@ABU3@ABU__false_type@2@I_N@Z ; _STL::vector<tagRECT,_STL::allocator<tagRECT> >::_M_insert_overflow

; 338  :   }

  00043	c2 04 00	 ret	 4
?push_back@?$vector@UtagRECT@@V?$allocator@UtagRECT@@@_STL@@@_STL@@QAEXABUtagRECT@@@Z ENDP ; _STL::vector<tagRECT,_STL::allocator<tagRECT> >::push_back
_TEXT	ENDS
PUBLIC	??0?$basic_string@DV?$char_traits@D@_STL@@V?$allocator@D@2@@_STL@@QAE@ABV01@@Z ; _STL::basic_string<char,_STL::char_traits<char>,_STL::allocator<char> >::basic_string<char,_STL::char_traits<char>,_STL::allocator<char> >
;	COMDAT xdata$x
; File c:\stlport-4.6.1\stlport\stl\_string.h
xdata$x	SEGMENT
$T81427	DD	0ffffffffH
	DD	FLAT:$L81202
$T81425	DD	019930520H
	DD	01H
	DD	FLAT:$T81427
	DD	2 DUP(00H)
	DD	2 DUP(00H)
; Function compile flags: /Ogty
; File c:\stlport-4.6.1\stlport\stl\_string.c
xdata$x	ENDS
;	COMDAT ??0?$basic_string@DV?$char_traits@D@_STL@@V?$allocator@D@2@@_STL@@QAE@ABV01@@Z
_TEXT	SEGMENT
_this$ = -16						; size = 4
__$EHRec$ = -12						; size = 12
___s$ = 8						; size = 4
??0?$basic_string@DV?$char_traits@D@_STL@@V?$allocator@D@2@@_STL@@QAE@ABV01@@Z PROC NEAR ; _STL::basic_string<char,_STL::char_traits<char>,_STL::allocator<char> >::basic_string<char,_STL::char_traits<char>,_STL::allocator<char> >, COMDAT
; _this$ = ecx

; 560  : {  

  00000	6a ff		 push	 -1
  00002	68 00 00 00 00	 push	 __ehhandler$??0?$basic_string@DV?$char_traits@D@_STL@@V?$allocator@D@2@@_STL@@QAE@ABV01@@Z
  00007	64 a1 00 00 00
	00		 mov	 eax, DWORD PTR fs:__except_list
  0000d	50		 push	 eax
  0000e	64 89 25 00 00
	00 00		 mov	 DWORD PTR fs:__except_list, esp
  00015	51		 push	 ecx
  00016	53		 push	 ebx
  00017	55		 push	 ebp
  00018	56		 push	 esi
  00019	8b f1		 mov	 esi, ecx
  0001b	33 c0		 xor	 eax, eax
  0001d	89 06		 mov	 DWORD PTR [esi], eax
  0001f	89 46 04	 mov	 DWORD PTR [esi+4], eax
  00022	57		 push	 edi
  00023	89 74 24 10	 mov	 DWORD PTR _this$[esp+32], esi
  00027	89 46 08	 mov	 DWORD PTR [esi+8], eax
  0002a	89 44 24 1c	 mov	 DWORD PTR __$EHRec$[esp+40], eax

; 561  :   _M_range_initialize(__s._M_start, __s._M_finish);  

  0002e	8b 44 24 24	 mov	 eax, DWORD PTR ___s$[esp+28]
  00032	8b 58 04	 mov	 ebx, DWORD PTR [eax+4]
  00035	8b 28		 mov	 ebp, DWORD PTR [eax]

; 562  : } 

  00037	8b fb		 mov	 edi, ebx
  00039	2b fd		 sub	 edi, ebp
  0003b	8d 47 01	 lea	 eax, DWORD PTR [edi+1]
  0003e	50		 push	 eax
  0003f	e8 00 00 00 00	 call	 ?_M_allocate_block@?$_String_base@DV?$allocator@D@_STL@@@_STL@@QAEXI@Z ; _STL::_String_base<char,_STL::allocator<char> >::_M_allocate_block
  00044	3b dd		 cmp	 ebx, ebp
  00046	8b 06		 mov	 eax, DWORD PTR [esi]
  00048	74 0d		 je	 SHORT $L81409
  0004a	57		 push	 edi
  0004b	55		 push	 ebp
  0004c	50		 push	 eax
  0004d	e8 00 00 00 00	 call	 _memmove
  00052	83 c4 0c	 add	 esp, 12			; 0000000cH
  00055	03 c7		 add	 eax, edi
$L81409:
  00057	8b 4c 24 14	 mov	 ecx, DWORD PTR __$EHRec$[esp+32]
  0005b	89 46 04	 mov	 DWORD PTR [esi+4], eax
  0005e	5f		 pop	 edi
  0005f	c6 00 00	 mov	 BYTE PTR [eax], 0
  00062	8b c6		 mov	 eax, esi
  00064	5e		 pop	 esi
  00065	5d		 pop	 ebp
  00066	5b		 pop	 ebx
  00067	64 89 0d 00 00
	00 00		 mov	 DWORD PTR fs:__except_list, ecx
  0006e	83 c4 10	 add	 esp, 16			; 00000010H
  00071	c2 04 00	 ret	 4
_TEXT	ENDS
;	COMDAT text$x
text$x	SEGMENT
$L81202:
  00000	8b 4d f0	 mov	 ecx, DWORD PTR _this$[ebp]
  00003	e9 00 00 00 00	 jmp	 ??1?$_String_base@DV?$allocator@D@_STL@@@_STL@@QAE@XZ ; _STL::_String_base<char,_STL::allocator<char> >::~_String_base<char,_STL::allocator<char> >
__ehhandler$??0?$basic_string@DV?$char_traits@D@_STL@@V?$allocator@D@2@@_STL@@QAE@ABV01@@Z:
  00008	b8 00 00 00 00	 mov	 eax, OFFSET FLAT:$T81425
  0000d	e9 00 00 00 00	 jmp	 ___CxxFrameHandler
text$x	ENDS
??0?$basic_string@DV?$char_traits@D@_STL@@V?$allocator@D@2@@_STL@@QAE@ABV01@@Z ENDP ; _STL::basic_string<char,_STL::char_traits<char>,_STL::allocator<char> >::basic_string<char,_STL::char_traits<char>,_STL::allocator<char> >
PUBLIC	??1?$CTypeTable@VInterfaceInformation@@@@QAE@XZ	; CTypeTable<InterfaceInformation>::~CTypeTable<InterfaceInformation>
; Function compile flags: /Ogty
; File c:\darkeden\designed_common\project\client\ctypetable.h
;	COMDAT ??1?$CTypeTable@VInterfaceInformation@@@@QAE@XZ
_TEXT	SEGMENT
??1?$CTypeTable@VInterfaceInformation@@@@QAE@XZ PROC NEAR ; CTypeTable<InterfaceInformation>::~CTypeTable<InterfaceInformation>, COMDAT
; _this$ = ecx

; 71   : {

  00000	56		 push	 esi
  00001	8b f1		 mov	 esi, ecx

; 72   : 	Release();

  00003	8b 46 04	 mov	 eax, DWORD PTR [esi+4]
  00006	85 c0		 test	 eax, eax
  00008	74 2c		 je	 SHORT $L81449
  0000a	8b 48 fc	 mov	 ecx, DWORD PTR [eax-4]
  0000d	57		 push	 edi
  0000e	8d 78 fc	 lea	 edi, DWORD PTR [eax-4]
  00011	68 00 00 00 00	 push	 OFFSET FLAT:??1InterfaceInformation@@QAE@XZ ; InterfaceInformation::~InterfaceInformation
  00016	51		 push	 ecx
  00017	6a 1c		 push	 28			; 0000001cH
  00019	50		 push	 eax
  0001a	e8 00 00 00 00	 call	 ??_M@YGXPAXIHP6EX0@Z@Z
  0001f	57		 push	 edi
  00020	e8 00 00 00 00	 call	 ??_V@YAXPAX@Z		; operator delete[]
  00025	83 c4 04	 add	 esp, 4
  00028	c7 46 04 00 00
	00 00		 mov	 DWORD PTR [esi+4], 0
  0002f	c7 06 00 00 00
	00		 mov	 DWORD PTR [esi], 0
  00035	5f		 pop	 edi
$L81449:
  00036	5e		 pop	 esi

; 73   : }

  00037	c3		 ret	 0
??1?$CTypeTable@VInterfaceInformation@@@@QAE@XZ ENDP	; CTypeTable<InterfaceInformation>::~CTypeTable<InterfaceInformation>
_TEXT	ENDS
PUBLIC	?Init@?$CTypeTable@VInterfaceInformation@@@@QAEXH@Z ; CTypeTable<InterfaceInformation>::Init
EXTRN	??_L@YGXPAXIHP6EX0@Z1@Z:NEAR			; `eh vector constructor iterator'
EXTRN	??_U@YAPAXI@Z:NEAR				; operator new[]
;	COMDAT xdata$x
; File c:\stlport-4.6.1\stlport\stl\_tree.h
xdata$x	SEGMENT
$T81493	DD	0ffffffffH
	DD	FLAT:$L81465
$T81491	DD	019930520H
	DD	01H
	DD	FLAT:$T81493
	DD	2 DUP(00H)
	DD	2 DUP(00H)
; Function compile flags: /Ogty
; File c:\darkeden\designed_common\project\client\ctypetable.h
xdata$x	ENDS
;	COMDAT ?Init@?$CTypeTable@VInterfaceInformation@@@@QAEXH@Z
_TEXT	SEGMENT
__$EHRec$ = -12						; size = 12
$T81462 = 8						; size = 4
_size$ = 8						; size = 4
?Init@?$CTypeTable@VInterfaceInformation@@@@QAEXH@Z PROC NEAR ; CTypeTable<InterfaceInformation>::Init, COMDAT
; _this$ = ecx

; 87   : {

  00000	64 a1 00 00 00
	00		 mov	 eax, DWORD PTR fs:__except_list
  00006	6a ff		 push	 -1
  00008	68 00 00 00 00	 push	 __ehhandler$?Init@?$CTypeTable@VInterfaceInformation@@@@QAEXH@Z
  0000d	50		 push	 eax
  0000e	64 89 25 00 00
	00 00		 mov	 DWORD PTR fs:__except_list, esp
  00015	53		 push	 ebx

; 88   : 	//    
; 89   : 	if (size==0) 

  00016	8b 5c 24 14	 mov	 ebx, DWORD PTR _size$[esp+12]
  0001a	85 db		 test	 ebx, ebx
  0001c	56		 push	 esi
  0001d	57		 push	 edi
  0001e	8b f1		 mov	 esi, ecx
  00020	74 73		 je	 SHORT $L76916

; 90   : 		return;
; 91   : 
; 92   : 	//  
; 93   : 	Release();

  00022	8b 46 04	 mov	 eax, DWORD PTR [esi+4]
  00025	85 c0		 test	 eax, eax
  00027	74 2a		 je	 SHORT $L81479
  00029	8b 48 fc	 mov	 ecx, DWORD PTR [eax-4]
  0002c	8d 78 fc	 lea	 edi, DWORD PTR [eax-4]
  0002f	68 00 00 00 00	 push	 OFFSET FLAT:??1InterfaceInformation@@QAE@XZ ; InterfaceInformation::~InterfaceInformation
  00034	51		 push	 ecx
  00035	6a 1c		 push	 28			; 0000001cH
  00037	50		 push	 eax
  00038	e8 00 00 00 00	 call	 ??_M@YGXPAXIHP6EX0@Z@Z
  0003d	57		 push	 edi
  0003e	e8 00 00 00 00	 call	 ??_V@YAXPAX@Z		; operator delete[]
  00043	83 c4 04	 add	 esp, 4
  00046	c7 46 04 00 00
	00 00		 mov	 DWORD PTR [esi+4], 0
  0004d	c7 06 00 00 00
	00		 mov	 DWORD PTR [esi], 0
$L81479:

; 94   : 
; 95   : 	//  
; 96   : 	m_Size = size;
; 97   : 	
; 98   : 	m_pTypeInfo = new Type [m_Size];	

  00053	8b d3		 mov	 edx, ebx
  00055	6b d2 1c	 imul	 edx, 28			; 0000001cH
  00058	83 c2 04	 add	 edx, 4
  0005b	52		 push	 edx
  0005c	89 1e		 mov	 DWORD PTR [esi], ebx
  0005e	e8 00 00 00 00	 call	 ??_U@YAPAXI@Z		; operator new[]
  00063	83 c4 04	 add	 esp, 4
  00066	89 44 24 1c	 mov	 DWORD PTR $T81462[esp+20], eax
  0006a	85 c0		 test	 eax, eax
  0006c	c7 44 24 14 00
	00 00 00	 mov	 DWORD PTR __$EHRec$[esp+32], 0
  00074	74 1a		 je	 SHORT $L81463
  00076	68 00 00 00 00	 push	 OFFSET FLAT:??1InterfaceInformation@@QAE@XZ ; InterfaceInformation::~InterfaceInformation
  0007b	68 00 00 00 00	 push	 OFFSET FLAT:??0InterfaceInformation@@QAE@XZ ; InterfaceInformation::InterfaceInformation
  00080	53		 push	 ebx
  00081	8d 78 04	 lea	 edi, DWORD PTR [eax+4]
  00084	6a 1c		 push	 28			; 0000001cH
  00086	57		 push	 edi
  00087	89 18		 mov	 DWORD PTR [eax], ebx
  00089	e8 00 00 00 00	 call	 ??_L@YGXPAXIHP6EX0@Z1@Z
  0008e	eb 02		 jmp	 SHORT $L81464
$L81463:
  00090	33 ff		 xor	 edi, edi
$L81464:
  00092	89 7e 04	 mov	 DWORD PTR [esi+4], edi
$L76916:

; 99   : }

  00095	8b 4c 24 0c	 mov	 ecx, DWORD PTR __$EHRec$[esp+24]
  00099	5f		 pop	 edi
  0009a	5e		 pop	 esi
  0009b	64 89 0d 00 00
	00 00		 mov	 DWORD PTR fs:__except_list, ecx
  000a2	5b		 pop	 ebx
  000a3	83 c4 0c	 add	 esp, 12			; 0000000cH
  000a6	c2 04 00	 ret	 4
_TEXT	ENDS
;	COMDAT text$x
text$x	SEGMENT
$L81465:
  00000	8b 45 04	 mov	 eax, DWORD PTR $T81462[ebp-4]
  00003	50		 push	 eax
  00004	e8 00 00 00 00	 call	 ??_V@YAXPAX@Z		; operator delete[]
  00009	59		 pop	 ecx
  0000a	c3		 ret	 0
__ehhandler$?Init@?$CTypeTable@VInterfaceInformation@@@@QAEXH@Z:
  0000b	b8 00 00 00 00	 mov	 eax, OFFSET FLAT:$T81491
  00010	e9 00 00 00 00	 jmp	 ___CxxFrameHandler
text$x	ENDS
?Init@?$CTypeTable@VInterfaceInformation@@@@QAEXH@Z ENDP ; CTypeTable<InterfaceInformation>::Init
PUBLIC	??$_Destroy@U?$pair@$$CBV?$basic_string@DV?$char_traits@D@_STL@@V?$allocator@D@2@@_STL@@H@_STL@@@_STL@@YAXPAU?$pair@$$CBV?$basic_string@DV?$char_traits@D@_STL@@V?$allocator@D@2@@_STL@@H@0@@Z ; _STL::_Destroy<_STL::pair<_STL::basic_string<char,_STL::char_traits<char>,_STL::allocator<char> > const ,int> >
; Function compile flags: /Ogty
; File c:\stlport-4.6.1\stlport\stl\_construct.h
;	COMDAT ??$_Destroy@U?$pair@$$CBV?$basic_string@DV?$char_traits@D@_STL@@V?$allocator@D@2@@_STL@@H@_STL@@@_STL@@YAXPAU?$pair@$$CBV?$basic_string@DV?$char_traits@D@_STL@@V?$allocator@D@2@@_STL@@H@0@@Z
_TEXT	SEGMENT
___pointer$ = 8						; size = 4
??$_Destroy@U?$pair@$$CBV?$basic_string@DV?$char_traits@D@_STL@@V?$allocator@D@2@@_STL@@H@_STL@@@_STL@@YAXPAU?$pair@$$CBV?$basic_string@DV?$char_traits@D@_STL@@V?$allocator@D@2@@_STL@@H@0@@Z PROC NEAR ; _STL::_Destroy<_STL::pair<_STL::basic_string<char,_STL::char_traits<char>,_STL::allocator<char> > const ,int> >, COMDAT

; 57   : # if _MSC_VER >= 1010
; 58   :   __pointer;
; 59   : # endif	// _MSC_VER >= 1000
; 60   : # ifdef _STLP_TRIVIAL_DESTRUCTOR_BUG
; 61   :   typedef typename __type_traits<_Tp>::has_trivial_destructor _Trivial_destructor;
; 62   :   __destroy_aux(__pointer, _Trivial_destructor());
; 63   : # else
; 64   : #  if ( defined (__BORLANDC__) && ( __BORLANDC__ < 0x500 ) )
; 65   :     __pointer->_Tp::~_Tp();
; 66   : #  else
; 67   :     __pointer->~_Tp();

  00000	8b 4c 24 04	 mov	 ecx, DWORD PTR ___pointer$[esp-4]
  00004	e9 00 00 00 00	 jmp	 ??1?$pair@$$CBV?$basic_string@DV?$char_traits@D@_STL@@V?$allocator@D@2@@_STL@@H@_STL@@QAE@XZ
??$_Destroy@U?$pair@$$CBV?$basic_string@DV?$char_traits@D@_STL@@V?$allocator@D@2@@_STL@@H@_STL@@@_STL@@YAXPAU?$pair@$$CBV?$basic_string@DV?$char_traits@D@_STL@@V?$allocator@D@2@@_STL@@H@0@@Z ENDP ; _STL::_Destroy<_STL::pair<_STL::basic_string<char,_STL::char_traits<char>,_STL::allocator<char> > const ,int> >
_TEXT	ENDS
PUBLIC	??0?$pair@$$CBV?$basic_string@DV?$char_traits@D@_STL@@V?$allocator@D@2@@_STL@@H@_STL@@QAE@ABU01@@Z ; _STL::pair<_STL::basic_string<char,_STL::char_traits<char>,_STL::allocator<char> > const ,int>::pair<_STL::basic_string<char,_STL::char_traits<char>,_STL::allocator<char> > const ,int>
; Function compile flags: /Ogty
; File c:\stlport-4.6.1\stlport\stl\_pair.h
;	COMDAT ??0?$pair@$$CBV?$basic_string@DV?$char_traits@D@_STL@@V?$allocator@D@2@@_STL@@H@_STL@@QAE@ABU01@@Z
_TEXT	SEGMENT
___o$ = 8						; size = 4
??0?$pair@$$CBV?$basic_string@DV?$char_traits@D@_STL@@V?$allocator@D@2@@_STL@@H@_STL@@QAE@ABU01@@Z PROC NEAR ; _STL::pair<_STL::basic_string<char,_STL::char_traits<char>,_STL::allocator<char> > const ,int>::pair<_STL::basic_string<char,_STL::char_traits<char>,_STL::allocator<char> > const ,int>, COMDAT
; _this$ = ecx

; 54   :   pair(const pair<_T1,_T2>& __o) : first(__o.first), second(__o.second) {}

  00000	56		 push	 esi
  00001	57		 push	 edi
  00002	8b 7c 24 0c	 mov	 edi, DWORD PTR ___o$[esp+4]
  00006	57		 push	 edi
  00007	8b f1		 mov	 esi, ecx
  00009	e8 00 00 00 00	 call	 ??0?$basic_string@DV?$char_traits@D@_STL@@V?$allocator@D@2@@_STL@@QAE@ABV01@@Z ; _STL::basic_string<char,_STL::char_traits<char>,_STL::allocator<char> >::basic_string<char,_STL::char_traits<char>,_STL::allocator<char> >
  0000e	8b 47 0c	 mov	 eax, DWORD PTR [edi+12]
  00011	89 46 0c	 mov	 DWORD PTR [esi+12], eax
  00014	5f		 pop	 edi
  00015	8b c6		 mov	 eax, esi
  00017	5e		 pop	 esi
  00018	c2 04 00	 ret	 4
??0?$pair@$$CBV?$basic_string@DV?$char_traits@D@_STL@@V?$allocator@D@2@@_STL@@H@_STL@@QAE@ABU01@@Z ENDP ; _STL::pair<_STL::basic_string<char,_STL::char_traits<char>,_STL::allocator<char> > const ,int>::pair<_STL::basic_string<char,_STL::char_traits<char>,_STL::allocator<char> > const ,int>
_TEXT	ENDS
PUBLIC	?LoadFromLinePointList@InterfaceInformation@@QAE_NPBD@Z ; InterfaceInformation::LoadFromLinePointList
PUBLIC	??_C@_05OKMLJOMC@?$CFd?5?$CFd?$AA@		; `string'
EXTRN	_sscanf:NEAR
;	COMDAT ??_C@_05OKMLJOMC@?$CFd?5?$CFd?$AA@
; File c:\program files\microsoft visual studio .net 2003\vc7\include\new
CONST	SEGMENT
??_C@_05OKMLJOMC@?$CFd?5?$CFd?$AA@ DB '%d %d', 00H	; `string'
; Function compile flags: /Ogty
; File c:\darkeden\designed_common\project\new - vs_ui\src\skinmanager.cpp
CONST	ENDS
;	COMDAT ?LoadFromLinePointList@InterfaceInformation@@QAE_NPBD@Z
_TEXT	SEGMENT
_pt$ = -8						; size = 8
$T81531 = 8						; size = 1
_szLine$ = 8						; size = 4
?LoadFromLinePointList@InterfaceInformation@@QAE_NPBD@Z PROC NEAR ; InterfaceInformation::LoadFromLinePointList, COMDAT
; _this$ = ecx

; 25   : 	POINT pt;
; 26   : 
; 27   : 	sscanf(szLine,"%d %d",&pt.x, &pt.y);

  00000	8b 54 24 04	 mov	 edx, DWORD PTR _szLine$[esp-4]
  00004	83 ec 08	 sub	 esp, 8
  00007	56		 push	 esi
  00008	8d 44 24 08	 lea	 eax, DWORD PTR _pt$[esp+16]
  0000c	50		 push	 eax
  0000d	8b f1		 mov	 esi, ecx
  0000f	8d 4c 24 08	 lea	 ecx, DWORD PTR _pt$[esp+16]
  00013	51		 push	 ecx
  00014	68 00 00 00 00	 push	 OFFSET FLAT:??_C@_05OKMLJOMC@?$CFd?5?$CFd?$AA@
  00019	52		 push	 edx
  0001a	e8 00 00 00 00	 call	 _sscanf

; 28   : 	
; 29   : 	m_PointList.push_back( pt );

  0001f	8b 46 04	 mov	 eax, DWORD PTR [esi+4]
  00022	8b 4e 08	 mov	 ecx, DWORD PTR [esi+8]
  00025	83 c4 10	 add	 esp, 16			; 00000010H
  00028	3b c1		 cmp	 eax, ecx
  0002a	74 1e		 je	 SHORT $L81528
  0002c	85 c0		 test	 eax, eax
  0002e	74 0d		 je	 SHORT $L81535
  00030	8b 4c 24 04	 mov	 ecx, DWORD PTR _pt$[esp+12]
  00034	89 08		 mov	 DWORD PTR [eax], ecx
  00036	8b 54 24 08	 mov	 edx, DWORD PTR _pt$[esp+16]
  0003a	89 50 04	 mov	 DWORD PTR [eax+4], edx
$L81535:
  0003d	83 46 04 08	 add	 DWORD PTR [esi+4], 8

; 30   : 	return true;

  00041	b0 01		 mov	 al, 1
  00043	5e		 pop	 esi

; 31   : }

  00044	83 c4 08	 add	 esp, 8
  00047	c2 04 00	 ret	 4

; 28   : 	
; 29   : 	m_PointList.push_back( pt );

$L81528:
  0004a	6a 01		 push	 1
  0004c	6a 01		 push	 1
  0004e	8d 4c 24 18	 lea	 ecx, DWORD PTR $T81531[esp+16]
  00052	51		 push	 ecx
  00053	8d 54 24 10	 lea	 edx, DWORD PTR _pt$[esp+24]
  00057	52		 push	 edx
  00058	50		 push	 eax
  00059	8b ce		 mov	 ecx, esi
  0005b	e8 00 00 00 00	 call	 ?_M_insert_overflow@?$vector@UtagPOINT@@V?$allocator@UtagPOINT@@@_STL@@@_STL@@IAEXPAUtagPOINT@@ABU3@ABU__false_type@2@I_N@Z ; _STL::vector<tagPOINT,_STL::allocator<tagPOINT> >::_M_insert_overflow

; 30   : 	return true;

  00060	b0 01		 mov	 al, 1
  00062	5e		 pop	 esi

; 31   : }

  00063	83 c4 08	 add	 esp, 8
  00066	c2 04 00	 ret	 4
?LoadFromLinePointList@InterfaceInformation@@QAE_NPBD@Z ENDP ; InterfaceInformation::LoadFromLinePointList
_TEXT	ENDS
PUBLIC	?LoadFromLineRectList@InterfaceInformation@@QAE_NPBD@Z ; InterfaceInformation::LoadFromLineRectList
PUBLIC	??_C@_0M@FMGEODLN@?$CFd?5?$CFd?5?$CFd?5?$CFd?$AA@ ; `string'
;	COMDAT ??_C@_0M@FMGEODLN@?$CFd?5?$CFd?5?$CFd?5?$CFd?$AA@
; File c:\program files\microsoft visual studio .net 2003\vc7\include\new
CONST	SEGMENT
??_C@_0M@FMGEODLN@?$CFd?5?$CFd?5?$CFd?5?$CFd?$AA@ DB '%d %d %d %d', 00H ; `string'
; Function compile flags: /Ogty
; File c:\darkeden\designed_common\project\new - vs_ui\src\skinmanager.cpp
CONST	ENDS
;	COMDAT ?LoadFromLineRectList@InterfaceInformation@@QAE_NPBD@Z
_TEXT	SEGMENT
_rect$ = -16						; size = 16
$T81564 = 8						; size = 1
_szLine$ = 8						; size = 4
?LoadFromLineRectList@InterfaceInformation@@QAE_NPBD@Z PROC NEAR ; InterfaceInformation::LoadFromLineRectList, COMDAT
; _this$ = ecx

; 34   : {

  00000	83 ec 10	 sub	 esp, 16			; 00000010H
  00003	56		 push	 esi
  00004	8b f1		 mov	 esi, ecx

; 35   : 	RECT rect;
; 36   : 	
; 37   : 	sscanf(szLine,"%d %d %d %d",&rect.left, &rect.top, &rect.right, &rect.bottom );

  00006	8d 44 24 10	 lea	 eax, DWORD PTR _rect$[esp+32]
  0000a	50		 push	 eax
  0000b	8d 4c 24 10	 lea	 ecx, DWORD PTR _rect$[esp+32]
  0000f	51		 push	 ecx
  00010	8b 4c 24 20	 mov	 ecx, DWORD PTR _szLine$[esp+24]
  00014	8d 54 24 10	 lea	 edx, DWORD PTR _rect$[esp+32]
  00018	52		 push	 edx
  00019	8d 44 24 10	 lea	 eax, DWORD PTR _rect$[esp+32]
  0001d	50		 push	 eax
  0001e	68 00 00 00 00	 push	 OFFSET FLAT:??_C@_0M@FMGEODLN@?$CFd?5?$CFd?5?$CFd?5?$CFd?$AA@
  00023	51		 push	 ecx
  00024	e8 00 00 00 00	 call	 _sscanf

; 38   : 
; 39   : 	m_RectList.push_back( rect );

  00029	8b 46 10	 mov	 eax, DWORD PTR [esi+16]
  0002c	8b 56 14	 mov	 edx, DWORD PTR [esi+20]
  0002f	8d 4e 0c	 lea	 ecx, DWORD PTR [esi+12]
  00032	83 c4 18	 add	 esp, 24			; 00000018H
  00035	3b c2		 cmp	 eax, edx
  00037	5e		 pop	 esi
  00038	74 2a		 je	 SHORT $L81561
  0003a	85 c0		 test	 eax, eax
  0003c	74 1a		 je	 SHORT $L81568
  0003e	8b 14 24	 mov	 edx, DWORD PTR _rect$[esp+16]
  00041	89 10		 mov	 DWORD PTR [eax], edx
  00043	8b 54 24 04	 mov	 edx, DWORD PTR _rect$[esp+20]
  00047	89 50 04	 mov	 DWORD PTR [eax+4], edx
  0004a	8b 54 24 08	 mov	 edx, DWORD PTR _rect$[esp+24]
  0004e	89 50 08	 mov	 DWORD PTR [eax+8], edx
  00051	8b 54 24 0c	 mov	 edx, DWORD PTR _rect$[esp+28]
  00055	89 50 0c	 mov	 DWORD PTR [eax+12], edx
$L81568:
  00058	83 41 04 10	 add	 DWORD PTR [ecx+4], 16	; 00000010H

; 40   : 	return true;

  0005c	b0 01		 mov	 al, 1

; 41   : }

  0005e	83 c4 10	 add	 esp, 16			; 00000010H
  00061	c2 04 00	 ret	 4

; 38   : 
; 39   : 	m_RectList.push_back( rect );

$L81561:
  00064	6a 01		 push	 1
  00066	6a 01		 push	 1
  00068	8d 54 24 1c	 lea	 edx, DWORD PTR $T81564[esp+20]
  0006c	52		 push	 edx
  0006d	8d 54 24 0c	 lea	 edx, DWORD PTR _rect$[esp+28]
  00071	52		 push	 edx
  00072	50		 push	 eax
  00073	e8 00 00 00 00	 call	 ?_M_insert_overflow@?$vector@UtagRECT@@V?$allocator@UtagRECT@@@_STL@@@_STL@@IAEXPAUtagRECT@@ABU3@ABU__false_type@2@I_N@Z ; _STL::vector<tagRECT,_STL::allocator<tagRECT> >::_M_insert_overflow

; 40   : 	return true;

  00078	b0 01		 mov	 al, 1

; 41   : }

  0007a	83 c4 10	 add	 esp, 16			; 00000010H
  0007d	c2 04 00	 ret	 4
?LoadFromLineRectList@InterfaceInformation@@QAE_NPBD@Z ENDP ; InterfaceInformation::LoadFromLineRectList
_TEXT	ENDS
PUBLIC	??0SkinManager@@QAE@XZ				; SkinManager::SkinManager
;	COMDAT xdata$x
; File c:\darkeden\designed_common\project\client\ctypetable.h
xdata$x	SEGMENT
$T81584	DD	0ffffffffH
	DD	FLAT:$L81577
$T81582	DD	019930520H
	DD	01H
	DD	FLAT:$T81584
	DD	2 DUP(00H)
	DD	2 DUP(00H)
; Function compile flags: /Ogty
; File c:\darkeden\designed_common\project\new - vs_ui\src\skinmanager.cpp
xdata$x	ENDS
;	COMDAT ??0SkinManager@@QAE@XZ
_TEXT	SEGMENT
_this$ = -16						; size = 4
__$EHRec$ = -12						; size = 12
??0SkinManager@@QAE@XZ PROC NEAR			; SkinManager::SkinManager, COMDAT
; _this$ = ecx

; 44   : {

  00000	6a ff		 push	 -1
  00002	68 00 00 00 00	 push	 __ehhandler$??0SkinManager@@QAE@XZ
  00007	64 a1 00 00 00
	00		 mov	 eax, DWORD PTR fs:__except_list
  0000d	50		 push	 eax
  0000e	64 89 25 00 00
	00 00		 mov	 DWORD PTR fs:__except_list, esp
  00015	51		 push	 ecx
  00016	56		 push	 esi
  00017	8b f1		 mov	 esi, ecx
  00019	33 c0		 xor	 eax, eax
  0001b	89 74 24 04	 mov	 DWORD PTR _this$[esp+20], esi
  0001f	89 46 04	 mov	 DWORD PTR [esi+4], eax
  00022	89 06		 mov	 DWORD PTR [esi], eax

; 45   : 	Init( INTERFACE_MAX );

  00024	6a 07		 push	 7
  00026	89 44 24 14	 mov	 DWORD PTR __$EHRec$[esp+32], eax
  0002a	e8 00 00 00 00	 call	 ?Init@?$CTypeTable@VInterfaceInformation@@@@QAEXH@Z ; CTypeTable<InterfaceInformation>::Init

; 46   : }

  0002f	8b 4c 24 08	 mov	 ecx, DWORD PTR __$EHRec$[esp+20]
  00033	8b c6		 mov	 eax, esi
  00035	5e		 pop	 esi
  00036	64 89 0d 00 00
	00 00		 mov	 DWORD PTR fs:__except_list, ecx
  0003d	83 c4 10	 add	 esp, 16			; 00000010H
  00040	c3		 ret	 0
_TEXT	ENDS
;	COMDAT text$x
text$x	SEGMENT
$L81577:
  00000	8b 4d f0	 mov	 ecx, DWORD PTR _this$[ebp]
  00003	e9 00 00 00 00	 jmp	 ??1?$CTypeTable@VInterfaceInformation@@@@QAE@XZ ; CTypeTable<InterfaceInformation>::~CTypeTable<InterfaceInformation>
__ehhandler$??0SkinManager@@QAE@XZ:
  00008	b8 00 00 00 00	 mov	 eax, OFFSET FLAT:$T81582
  0000d	e9 00 00 00 00	 jmp	 ___CxxFrameHandler
text$x	ENDS
??0SkinManager@@QAE@XZ ENDP				; SkinManager::SkinManager
PUBLIC	??1SkinManager@@QAE@XZ				; SkinManager::~SkinManager
; Function compile flags: /Ogty
;	COMDAT ??1SkinManager@@QAE@XZ
_TEXT	SEGMENT
??1SkinManager@@QAE@XZ PROC NEAR			; SkinManager::~SkinManager, COMDAT
; _this$ = ecx

; 49   : {

  00000	56		 push	 esi
  00001	8b f1		 mov	 esi, ecx

; 50   : }

  00003	8b 46 04	 mov	 eax, DWORD PTR [esi+4]
  00006	85 c0		 test	 eax, eax
  00008	74 2c		 je	 SHORT $L81619
  0000a	8b 48 fc	 mov	 ecx, DWORD PTR [eax-4]
  0000d	57		 push	 edi
  0000e	8d 78 fc	 lea	 edi, DWORD PTR [eax-4]
  00011	68 00 00 00 00	 push	 OFFSET FLAT:??1InterfaceInformation@@QAE@XZ ; InterfaceInformation::~InterfaceInformation
  00016	51		 push	 ecx
  00017	6a 1c		 push	 28			; 0000001cH
  00019	50		 push	 eax
  0001a	e8 00 00 00 00	 call	 ??_M@YGXPAXIHP6EX0@Z@Z
  0001f	57		 push	 edi
  00020	e8 00 00 00 00	 call	 ??_V@YAXPAX@Z		; operator delete[]
  00025	83 c4 04	 add	 esp, 4
  00028	c7 46 04 00 00
	00 00		 mov	 DWORD PTR [esi+4], 0
  0002f	c7 06 00 00 00
	00		 mov	 DWORD PTR [esi], 0
  00035	5f		 pop	 edi
$L81619:
  00036	5e		 pop	 esi
  00037	c3		 ret	 0
??1SkinManager@@QAE@XZ ENDP				; SkinManager::~SkinManager
_TEXT	ENDS
PUBLIC	??_C@_02DKCKIIND@?$CFs?$AA@			; `string'
PUBLIC	??_C@_03JMGAKCCH@END?$AA@			; `string'
PUBLIC	?LoadRectList@SkinManager@@IAEXHPAX@Z		; SkinManager::LoadRectList
EXTRN	___security_cookie:DWORD
EXTRN	@__security_check_cookie@4:NEAR
EXTRN	?GetString@CRarFile@@QAE_NPADH@Z:NEAR		; CRarFile::GetString
;	COMDAT ??_C@_02DKCKIIND@?$CFs?$AA@
CONST	SEGMENT
??_C@_02DKCKIIND@?$CFs?$AA@ DB '%s', 00H		; `string'
CONST	ENDS
;	COMDAT ??_C@_03JMGAKCCH@END?$AA@
CONST	SEGMENT
??_C@_03JMGAKCCH@END?$AA@ DB 'END', 00H			; `string'
; Function compile flags: /Ogty
CONST	ENDS
;	COMDAT ?LoadRectList@SkinManager@@IAEXHPAX@Z
_TEXT	SEGMENT
_this$ = -524						; size = 4
tv73 = -520						; size = 4
_szLine$ = -516						; size = 256
_szKey$76254 = -260					; size = 256
__$ArrayPad$ = -4					; size = 4
__$ReturnAddr$ = 4					; size = 4
_k$ = 8							; size = 4
_rar$ = 12						; size = 4
?LoadRectList@SkinManager@@IAEXHPAX@Z PROC NEAR		; SkinManager::LoadRectList, COMDAT
; _this$ = ecx

; 102  : {

  00000	81 ec 0c 02 00
	00		 sub	 esp, 524		; 0000020cH
  00006	a1 00 00 00 00	 mov	 eax, DWORD PTR ___security_cookie
  0000b	89 84 24 08 02
	00 00		 mov	 DWORD PTR __$ArrayPad$[esp+524], eax

; 103  : 	char szLine[256];
; 104  : 	
; 105  : 	CRarFile *rarfile = reinterpret_cast<CRarFile*>(rar);
; 106  : 	while( rarfile->GetString( szLine, 256 ) )

  00012	68 00 01 00 00	 push	 256			; 00000100H
  00017	8d 44 24 0c	 lea	 eax, DWORD PTR _szLine$[esp+528]
  0001b	89 4c 24 04	 mov	 DWORD PTR _this$[esp+528], ecx
  0001f	8b 8c 24 18 02
	00 00		 mov	 ecx, DWORD PTR _rar$[esp+524]
  00026	50		 push	 eax
  00027	e8 00 00 00 00	 call	 ?GetString@CRarFile@@QAE_NPADH@Z ; CRarFile::GetString
  0002c	84 c0		 test	 al, al
  0002e	0f 84 a4 00 00
	00		 je	 $L81637
  00034	55		 push	 ebp
  00035	8b ac 24 14 02
	00 00		 mov	 ebp, DWORD PTR _k$[esp+524]
  0003c	53		 push	 ebx
  0003d	56		 push	 esi
  0003e	57		 push	 edi
  0003f	90		 npad	 1
$L76249:

; 107  : 	{
; 108  : 		if( szLine[0] == ';' ) continue;

  00040	8a 5c 24 18	 mov	 bl, BYTE PTR _szLine$[esp+540]
  00044	80 fb 3b	 cmp	 bl, 59			; 0000003bH
  00047	74 6d		 je	 SHORT $L81640

; 109  : 		if( strlen(szLine) <= 0 ) continue;

  00049	8d 44 24 18	 lea	 eax, DWORD PTR _szLine$[esp+540]
  0004d	8d 50 01	 lea	 edx, DWORD PTR [eax+1]
$L81638:
  00050	8a 08		 mov	 cl, BYTE PTR [eax]
  00052	40		 inc	 eax
  00053	84 c9		 test	 cl, cl
  00055	75 f9		 jne	 SHORT $L81638
  00057	2b c2		 sub	 eax, edx
  00059	89 44 24 14	 mov	 DWORD PTR tv73[esp+540], eax
  0005d	74 57		 je	 SHORT $L81640

; 110  : 		
; 111  : 		if( szLine[0] == '*' )

  0005f	80 fb 2a	 cmp	 bl, 42			; 0000002aH
  00062	75 31		 jne	 SHORT $L76256

; 112  : 		{
; 113  : 			char szKey[256];
; 114  : 			sscanf(szLine+1,"%s",szKey);

  00064	8d 8c 24 18 01
	00 00		 lea	 ecx, DWORD PTR _szKey$76254[esp+540]
  0006b	51		 push	 ecx
  0006c	8d 54 24 1d	 lea	 edx, DWORD PTR _szLine$[esp+545]
  00070	68 00 00 00 00	 push	 OFFSET FLAT:??_C@_02DKCKIIND@?$CFs?$AA@
  00075	52		 push	 edx
  00076	e8 00 00 00 00	 call	 _sscanf
  0007b	83 c4 0c	 add	 esp, 12			; 0000000cH

; 115  : 
; 116  : 			if( !strcmp( szKey,"END") )

  0007e	bf 00 00 00 00	 mov	 edi, OFFSET FLAT:??_C@_03JMGAKCCH@END?$AA@
  00083	8d b4 24 18 01
	00 00		 lea	 esi, DWORD PTR _szKey$76254[esp+540]
  0008a	b9 04 00 00 00	 mov	 ecx, 4
  0008f	33 c0		 xor	 eax, eax
  00091	f3 a6		 repe cmpsb
  00093	74 3f		 je	 SHORT $L81644
$L76256:

; 117  : 				break;
; 118  : 		}
; 119  : 		if( k >= 0 && k < INTERFACE_MAX )

  00095	85 ed		 test	 ebp, ebp
  00097	7c 1d		 jl	 SHORT $L81640
  00099	83 fd 07	 cmp	 ebp, 7
  0009c	7d 18		 jge	 SHORT $L81640

; 120  : 			m_pTypeInfo[k].LoadFromLineRectList( szLine );

  0009e	8b 54 24 10	 mov	 edx, DWORD PTR _this$[esp+540]
  000a2	8b 42 04	 mov	 eax, DWORD PTR [edx+4]
  000a5	8d 4c 24 18	 lea	 ecx, DWORD PTR _szLine$[esp+540]
  000a9	51		 push	 ecx
  000aa	8b cd		 mov	 ecx, ebp
  000ac	6b c9 1c	 imul	 ecx, 28			; 0000001cH
  000af	03 c8		 add	 ecx, eax
  000b1	e8 00 00 00 00	 call	 ?LoadFromLineRectList@InterfaceInformation@@QAE_NPBD@Z ; InterfaceInformation::LoadFromLineRectList
$L81640:
  000b6	8b 8c 24 24 02
	00 00		 mov	 ecx, DWORD PTR _rar$[esp+536]
  000bd	68 00 01 00 00	 push	 256			; 00000100H
  000c2	8d 44 24 1c	 lea	 eax, DWORD PTR _szLine$[esp+544]
  000c6	50		 push	 eax
  000c7	e8 00 00 00 00	 call	 ?GetString@CRarFile@@QAE_NPADH@Z ; CRarFile::GetString
  000cc	84 c0		 test	 al, al
  000ce	0f 85 6c ff ff
	ff		 jne	 $L76249
$L81644:
  000d4	5f		 pop	 edi
  000d5	5e		 pop	 esi
  000d6	5b		 pop	 ebx
  000d7	5d		 pop	 ebp
$L81637:

; 121  : 	}
; 122  : }

  000d8	8b 8c 24 08 02
	00 00		 mov	 ecx, DWORD PTR __$ArrayPad$[esp+524]
  000df	e8 00 00 00 00	 call	 @__security_check_cookie@4
  000e4	81 c4 0c 02 00
	00		 add	 esp, 524		; 0000020cH
  000ea	c2 08 00	 ret	 8
?LoadRectList@SkinManager@@IAEXHPAX@Z ENDP		; SkinManager::LoadRectList
_TEXT	ENDS
PUBLIC	?LoadPointList@SkinManager@@IAEXHPAX@Z		; SkinManager::LoadPointList
; Function compile flags: /Ogty
;	COMDAT ?LoadPointList@SkinManager@@IAEXHPAX@Z
_TEXT	SEGMENT
_this$ = -524						; size = 4
tv73 = -520						; size = 4
_szLine$ = -516						; size = 256
_szKey$76273 = -260					; size = 256
__$ArrayPad$ = -4					; size = 4
__$ReturnAddr$ = 4					; size = 4
_k$ = 8							; size = 4
_rar$ = 12						; size = 4
?LoadPointList@SkinManager@@IAEXHPAX@Z PROC NEAR	; SkinManager::LoadPointList, COMDAT
; _this$ = ecx

; 125  : {

  00000	81 ec 0c 02 00
	00		 sub	 esp, 524		; 0000020cH
  00006	a1 00 00 00 00	 mov	 eax, DWORD PTR ___security_cookie
  0000b	89 84 24 08 02
	00 00		 mov	 DWORD PTR __$ArrayPad$[esp+524], eax

; 126  : 	char szLine[256];
; 127  : 	CRarFile *rarfile = reinterpret_cast<CRarFile*>(rar);
; 128  : 	while( rarfile->GetString( szLine, 256 ) )

  00012	68 00 01 00 00	 push	 256			; 00000100H
  00017	8d 44 24 0c	 lea	 eax, DWORD PTR _szLine$[esp+528]
  0001b	89 4c 24 04	 mov	 DWORD PTR _this$[esp+528], ecx
  0001f	8b 8c 24 18 02
	00 00		 mov	 ecx, DWORD PTR _rar$[esp+524]
  00026	50		 push	 eax
  00027	e8 00 00 00 00	 call	 ?GetString@CRarFile@@QAE_NPADH@Z ; CRarFile::GetString
  0002c	84 c0		 test	 al, al
  0002e	0f 84 a4 00 00
	00		 je	 $L81655
  00034	55		 push	 ebp
  00035	8b ac 24 14 02
	00 00		 mov	 ebp, DWORD PTR _k$[esp+524]
  0003c	53		 push	 ebx
  0003d	56		 push	 esi
  0003e	57		 push	 edi
  0003f	90		 npad	 1
$L76268:

; 129  : 	{
; 130  : 		if( szLine[0] == ';' ) continue;

  00040	8a 5c 24 18	 mov	 bl, BYTE PTR _szLine$[esp+540]
  00044	80 fb 3b	 cmp	 bl, 59			; 0000003bH
  00047	74 6d		 je	 SHORT $L81658

; 131  : 		if( strlen(szLine) <= 0 ) continue;

  00049	8d 44 24 18	 lea	 eax, DWORD PTR _szLine$[esp+540]
  0004d	8d 50 01	 lea	 edx, DWORD PTR [eax+1]
$L81656:
  00050	8a 08		 mov	 cl, BYTE PTR [eax]
  00052	40		 inc	 eax
  00053	84 c9		 test	 cl, cl
  00055	75 f9		 jne	 SHORT $L81656
  00057	2b c2		 sub	 eax, edx
  00059	89 44 24 14	 mov	 DWORD PTR tv73[esp+540], eax
  0005d	74 57		 je	 SHORT $L81658

; 132  : 		
; 133  : 		if( szLine[0] == '*' )

  0005f	80 fb 2a	 cmp	 bl, 42			; 0000002aH
  00062	75 31		 jne	 SHORT $L76274

; 134  : 		{
; 135  : 			char szKey[256];
; 136  : 			sscanf(szLine+1,"%s",szKey);

  00064	8d 8c 24 18 01
	00 00		 lea	 ecx, DWORD PTR _szKey$76273[esp+540]
  0006b	51		 push	 ecx
  0006c	8d 54 24 1d	 lea	 edx, DWORD PTR _szLine$[esp+545]
  00070	68 00 00 00 00	 push	 OFFSET FLAT:??_C@_02DKCKIIND@?$CFs?$AA@
  00075	52		 push	 edx
  00076	e8 00 00 00 00	 call	 _sscanf
  0007b	83 c4 0c	 add	 esp, 12			; 0000000cH

; 137  : 
; 138  : 			if( !strcmp( szKey,"END") )

  0007e	bf 00 00 00 00	 mov	 edi, OFFSET FLAT:??_C@_03JMGAKCCH@END?$AA@
  00083	8d b4 24 18 01
	00 00		 lea	 esi, DWORD PTR _szKey$76273[esp+540]
  0008a	b9 04 00 00 00	 mov	 ecx, 4
  0008f	33 c0		 xor	 eax, eax
  00091	f3 a6		 repe cmpsb
  00093	74 3f		 je	 SHORT $L81661
$L76274:

; 139  : 				break;
; 140  : 		}
; 141  : 		if( k >= 0 && k < INTERFACE_MAX )

  00095	85 ed		 test	 ebp, ebp
  00097	7c 1d		 jl	 SHORT $L81658
  00099	83 fd 07	 cmp	 ebp, 7
  0009c	7d 18		 jge	 SHORT $L81658

; 142  : 			m_pTypeInfo[k].LoadFromLinePointList( szLine );

  0009e	8b 54 24 10	 mov	 edx, DWORD PTR _this$[esp+540]
  000a2	8b 42 04	 mov	 eax, DWORD PTR [edx+4]
  000a5	8d 4c 24 18	 lea	 ecx, DWORD PTR _szLine$[esp+540]
  000a9	51		 push	 ecx
  000aa	8b cd		 mov	 ecx, ebp
  000ac	6b c9 1c	 imul	 ecx, 28			; 0000001cH
  000af	03 c8		 add	 ecx, eax
  000b1	e8 00 00 00 00	 call	 ?LoadFromLinePointList@InterfaceInformation@@QAE_NPBD@Z ; InterfaceInformation::LoadFromLinePointList
$L81658:
  000b6	8b 8c 24 24 02
	00 00		 mov	 ecx, DWORD PTR _rar$[esp+536]
  000bd	68 00 01 00 00	 push	 256			; 00000100H
  000c2	8d 44 24 1c	 lea	 eax, DWORD PTR _szLine$[esp+544]
  000c6	50		 push	 eax
  000c7	e8 00 00 00 00	 call	 ?GetString@CRarFile@@QAE_NPADH@Z ; CRarFile::GetString
  000cc	84 c0		 test	 al, al
  000ce	0f 85 6c ff ff
	ff		 jne	 $L76268
$L81661:
  000d4	5f		 pop	 edi
  000d5	5e		 pop	 esi
  000d6	5b		 pop	 ebx
  000d7	5d		 pop	 ebp
$L81655:

; 143  : 	}
; 144  : }

  000d8	8b 8c 24 08 02
	00 00		 mov	 ecx, DWORD PTR __$ArrayPad$[esp+524]
  000df	e8 00 00 00 00	 call	 @__security_check_cookie@4
  000e4	81 c4 0c 02 00
	00		 add	 esp, 524		; 0000020cH
  000ea	c2 08 00	 ret	 8
?LoadPointList@SkinManager@@IAEXHPAX@Z ENDP		; SkinManager::LoadPointList
_TEXT	ENDS
PUBLIC	??0?$pair@$$CBV?$basic_string@DV?$char_traits@D@_STL@@V?$allocator@D@2@@_STL@@H@_STL@@QAE@ABV?$basic_string@DV?$char_traits@D@_STL@@V?$allocator@D@2@@1@ABH@Z ; _STL::pair<_STL::basic_string<char,_STL::char_traits<char>,_STL::allocator<char> > const ,int>::pair<_STL::basic_string<char,_STL::char_traits<char>,_STL::allocator<char> > const ,int>
; Function compile flags: /Ogty
; File c:\stlport-4.6.1\stlport\stl\_pair.h
;	COMDAT ??0?$pair@$$CBV?$basic_string@DV?$char_traits@D@_STL@@V?$allocator@D@2@@_STL@@H@_STL@@QAE@ABV?$basic_string@DV?$char_traits@D@_STL@@V?$allocator@D@2@@1@ABH@Z
_TEXT	SEGMENT
___a$ = 8						; size = 4
___b$ = 12						; size = 4
??0?$pair@$$CBV?$basic_string@DV?$char_traits@D@_STL@@V?$allocator@D@2@@_STL@@H@_STL@@QAE@ABV?$basic_string@DV?$char_traits@D@_STL@@V?$allocator@D@2@@1@ABH@Z PROC NEAR ; _STL::pair<_STL::basic_string<char,_STL::char_traits<char>,_STL::allocator<char> > const ,int>::pair<_STL::basic_string<char,_STL::char_traits<char>,_STL::allocator<char> > const ,int>, COMDAT
; _this$ = ecx

; 48   :   pair(const _T1& __a, const _T2& __b) : first(__a), second(__b) {}

  00000	8b 44 24 04	 mov	 eax, DWORD PTR ___a$[esp-4]
  00004	56		 push	 esi
  00005	50		 push	 eax
  00006	8b f1		 mov	 esi, ecx
  00008	e8 00 00 00 00	 call	 ??0?$basic_string@DV?$char_traits@D@_STL@@V?$allocator@D@2@@_STL@@QAE@ABV01@@Z ; _STL::basic_string<char,_STL::char_traits<char>,_STL::allocator<char> >::basic_string<char,_STL::char_traits<char>,_STL::allocator<char> >
  0000d	8b 4c 24 0c	 mov	 ecx, DWORD PTR ___b$[esp]
  00011	8b 11		 mov	 edx, DWORD PTR [ecx]
  00013	89 56 0c	 mov	 DWORD PTR [esi+12], edx
  00016	8b c6		 mov	 eax, esi
  00018	5e		 pop	 esi
  00019	c2 08 00	 ret	 8
??0?$pair@$$CBV?$basic_string@DV?$char_traits@D@_STL@@V?$allocator@D@2@@_STL@@H@_STL@@QAE@ABV?$basic_string@DV?$char_traits@D@_STL@@V?$allocator@D@2@@1@ABH@Z ENDP ; _STL::pair<_STL::basic_string<char,_STL::char_traits<char>,_STL::allocator<char> > const ,int>::pair<_STL::basic_string<char,_STL::char_traits<char>,_STL::allocator<char> > const ,int>
_TEXT	ENDS
PUBLIC	?_M_erase@?$_Rb_tree@V?$basic_string@DV?$char_traits@D@_STL@@V?$allocator@D@2@@_STL@@U?$pair@$$CBV?$basic_string@DV?$char_traits@D@_STL@@V?$allocator@D@2@@_STL@@H@2@U?$_Select1st@U?$pair@$$CBV?$basic_string@DV?$char_traits@D@_STL@@V?$allocator@D@2@@_STL@@H@_STL@@@2@U?$less@V?$basic_string@DV?$char_traits@D@_STL@@V?$allocator@D@2@@_STL@@@2@V?$allocator@U?$pair@$$CBV?$basic_string@DV?$char_traits@D@_STL@@V?$allocator@D@2@@_STL@@H@_STL@@@2@@_STL@@AAEXPAU?$_Rb_tree_node@U?$pair@$$CBV?$basic_string@DV?$char_traits@D@_STL@@V?$allocator@D@2@@_STL@@H@_STL@@@2@@Z ; _STL::_Rb_tree<_STL::basic_string<char,_STL::char_traits<char>,_STL::allocator<char> >,_STL::pair<_STL::basic_string<char,_STL::char_traits<char>,_STL::allocator<char> > const ,int>,_STL::_Select1st<_STL::pair<_STL::basic_string<char,_STL::char_traits<char>,_STL::allocator<char> > const ,int> >,_STL::less<_STL::basic_string<char,_STL::char_traits<char>,_STL::allocator<char> > >,_STL::allocator<_STL::pair<_STL::basic_string<char,_STL::char_traits<char>,_STL::allocator<char> > const ,int> > >::_M_erase
; Function compile flags: /Ogty
; File c:\stlport-4.6.1\stlport\stl\_tree.c
;	COMDAT ?_M_erase@?$_Rb_tree@V?$basic_string@DV?$char_traits@D@_STL@@V?$allocator@D@2@@_STL@@U?$pair@$$CBV?$basic_string@DV?$char_traits@D@_STL@@V?$allocator@D@2@@_STL@@H@2@U?$_Select1st@U?$pair@$$CBV?$basic_string@DV?$char_traits@D@_STL@@V?$allocator@D@2@@_STL@@H@_STL@@@2@U?$less@V?$basic_string@DV?$char_traits@D@_STL@@V?$allocator@D@2@@_STL@@@2@V?$allocator@U?$pair@$$CBV?$basic_string@DV?$char_traits@D@_STL@@V?$allocator@D@2@@_STL@@H@_STL@@@2@@_STL@@AAEXPAU?$_Rb_tree_node@U?$pair@$$CBV?$basic_string@DV?$char_traits@D@_STL@@V?$allocator@D@2@@_STL@@H@_STL@@@2@@Z
_TEXT	SEGMENT
___x$ = 8						; size = 4
?_M_erase@?$_Rb_tree@V?$basic_string@DV?$char_traits@D@_STL@@V?$allocator@D@2@@_STL@@U?$pair@$$CBV?$basic_string@DV?$char_traits@D@_STL@@V?$allocator@D@2@@_STL@@H@2@U?$_Select1st@U?$pair@$$CBV?$basic_string@DV?$char_traits@D@_STL@@V?$allocator@D@2@@_STL@@H@_STL@@@2@U?$less@V?$basic_string@DV?$char_traits@D@_STL@@V?$allocator@D@2@@_STL@@@2@V?$allocator@U?$pair@$$CBV?$basic_string@DV?$char_traits@D@_STL@@V?$allocator@D@2@@_STL@@H@_STL@@@2@@_STL@@AAEXPAU?$_Rb_tree_node@U?$pair@$$CBV?$basic_string@DV?$char_traits@D@_STL@@V?$allocator@D@2@@_STL@@H@_STL@@@2@@Z PROC NEAR ; _STL::_Rb_tree<_STL::basic_string<char,_STL::char_traits<char>,_STL::allocator<char> >,_STL::pair<_STL::basic_string<char,_STL::char_traits<char>,_STL::allocator<char> > const ,int>,_STL::_Select1st<_STL::pair<_STL::basic_string<char,_STL::char_traits<char>,_STL::allocator<char> > const ,int> >,_STL::less<_STL::basic_string<char,_STL::char_traits<char>,_STL::allocator<char> > >,_STL::allocator<_STL::pair<_STL::basic_string<char,_STL::char_traits<char>,_STL::allocator<char> > const ,int> > >::_M_erase, COMDAT
; _this$ = ecx

; 637  : {

  00000	53		 push	 ebx
  00001	56		 push	 esi

; 638  :                                 // erase without rebalancing
; 639  :   while (__x != 0) {

  00002	8b 74 24 0c	 mov	 esi, DWORD PTR ___x$[esp+4]
  00006	85 f6		 test	 esi, esi
  00008	8b d9		 mov	 ebx, ecx
  0000a	74 2c		 je	 SHORT $L76944
  0000c	57		 push	 edi
  0000d	8d 49 00	 npad	 3
$L76943:

; 640  :     _M_erase(_S_right(__x));

  00010	8b 46 0c	 mov	 eax, DWORD PTR [esi+12]
  00013	50		 push	 eax
  00014	8b cb		 mov	 ecx, ebx
  00016	e8 00 00 00 00	 call	 ?_M_erase@?$_Rb_tree@V?$basic_string@DV?$char_traits@D@_STL@@V?$allocator@D@2@@_STL@@U?$pair@$$CBV?$basic_string@DV?$char_traits@D@_STL@@V?$allocator@D@2@@_STL@@H@2@U?$_Select1st@U?$pair@$$CBV?$basic_string@DV?$char_traits@D@_STL@@V?$allocator@D@2@@_STL@@H@_STL@@@2@U?$less@V?$basic_string@DV?$char_traits@D@_STL@@V?$allocator@D@2@@_STL@@@2@V?$allocator@U?$pair@$$CBV?$basic_string@DV?$char_traits@D@_STL@@V?$allocator@D@2@@_STL@@H@_STL@@@2@@_STL@@AAEXPAU?$_Rb_tree_node@U?$pair@$$CBV?$basic_string@DV?$char_traits@D@_STL@@V?$allocator@D@2@@_STL@@H@_STL@@@2@@Z ; _STL::_Rb_tree<_STL::basic_string<char,_STL::char_traits<char>,_STL::allocator<char> >,_STL::pair<_STL::basic_string<char,_STL::char_traits<char>,_STL::allocator<char> > const ,int>,_STL::_Select1st<_STL::pair<_STL::basic_string<char,_STL::char_traits<char>,_STL::allocator<char> > const ,int> >,_STL::less<_STL::basic_string<char,_STL::char_traits<char>,_STL::allocator<char> > >,_STL::allocator<_STL::pair<_STL::basic_string<char,_STL::char_traits<char>,_STL::allocator<char> > const ,int> > >::_M_erase

; 641  :     _Link_type __y = _S_left(__x);

  0001b	8b 7e 08	 mov	 edi, DWORD PTR [esi+8]

; 642  :     _STLP_STD::_Destroy(&__x->_M_value_field);

  0001e	8d 4e 10	 lea	 ecx, DWORD PTR [esi+16]
  00021	e8 00 00 00 00	 call	 ??1?$pair@$$CBV?$basic_string@DV?$char_traits@D@_STL@@V?$allocator@D@2@@_STL@@H@_STL@@QAE@XZ

; 643  :     this->_M_header.deallocate(__x,1);

  00026	6a 20		 push	 32			; 00000020H
  00028	56		 push	 esi
  00029	e8 00 00 00 00	 call	 ?_M_deallocate@?$__node_alloc@$00$0A@@_STL@@CAXPAXI@Z ; _STL::__node_alloc<1,0>::_M_deallocate
  0002e	83 c4 08	 add	 esp, 8
  00031	85 ff		 test	 edi, edi

; 644  :     __x = __y;

  00033	8b f7		 mov	 esi, edi
  00035	75 d9		 jne	 SHORT $L76943
  00037	5f		 pop	 edi
$L76944:
  00038	5e		 pop	 esi
  00039	5b		 pop	 ebx

; 645  :   }
; 646  : }

  0003a	c2 04 00	 ret	 4
?_M_erase@?$_Rb_tree@V?$basic_string@DV?$char_traits@D@_STL@@V?$allocator@D@2@@_STL@@U?$pair@$$CBV?$basic_string@DV?$char_traits@D@_STL@@V?$allocator@D@2@@_STL@@H@2@U?$_Select1st@U?$pair@$$CBV?$basic_string@DV?$char_traits@D@_STL@@V?$allocator@D@2@@_STL@@H@_STL@@@2@U?$less@V?$basic_string@DV?$char_traits@D@_STL@@V?$allocator@D@2@@_STL@@@2@V?$allocator@U?$pair@$$CBV?$basic_string@DV?$char_traits@D@_STL@@V?$allocator@D@2@@_STL@@H@_STL@@@2@@_STL@@AAEXPAU?$_Rb_tree_node@U?$pair@$$CBV?$basic_string@DV?$char_traits@D@_STL@@V?$allocator@D@2@@_STL@@H@_STL@@@2@@Z ENDP ; _STL::_Rb_tree<_STL::basic_string<char,_STL::char_traits<char>,_STL::allocator<char> >,_STL::pair<_STL::basic_string<char,_STL::char_traits<char>,_STL::allocator<char> > const ,int>,_STL::_Select1st<_STL::pair<_STL::basic_string<char,_STL::char_traits<char>,_STL::allocator<char> > const ,int> >,_STL::less<_STL::basic_string<char,_STL::char_traits<char>,_STL::allocator<char> > >,_STL::allocator<_STL::pair<_STL::basic_string<char,_STL::char_traits<char>,_STL::allocator<char> > const ,int> > >::_M_erase
_TEXT	ENDS
PUBLIC	??$_Construct@U?$pair@$$CBV?$basic_string@DV?$char_traits@D@_STL@@V?$allocator@D@2@@_STL@@H@_STL@@U12@@_STL@@YAXPAU?$pair@$$CBV?$basic_string@DV?$char_traits@D@_STL@@V?$allocator@D@2@@_STL@@H@0@ABU10@@Z ; _STL::_Construct<_STL::pair<_STL::basic_string<char,_STL::char_traits<char>,_STL::allocator<char> > const ,int>,_STL::pair<_STL::basic_string<char,_STL::char_traits<char>,_STL::allocator<char> > const ,int> >
;	COMDAT xdata$x
; File c:\stlport-4.6.1\stlport\stl\_pair.h
xdata$x	SEGMENT
$T81729	DD	0ffffffffH
	DD	FLAT:$L81718
$T81727	DD	019930520H
	DD	01H
	DD	FLAT:$T81729
	DD	2 DUP(00H)
	DD	2 DUP(00H)
; Function compile flags: /Ogty
; File c:\stlport-4.6.1\stlport\stl\_construct.h
xdata$x	ENDS
;	COMDAT ??$_Construct@U?$pair@$$CBV?$basic_string@DV?$char_traits@D@_STL@@V?$allocator@D@2@@_STL@@H@_STL@@U12@@_STL@@YAXPAU?$pair@$$CBV?$basic_string@DV?$char_traits@D@_STL@@V?$allocator@D@2@@_STL@@H@0@ABU10@@Z
_TEXT	SEGMENT
$T81715 = -16						; size = 4
__$EHRec$ = -12						; size = 12
___p$ = 8						; size = 4
___val$ = 12						; size = 4
??$_Construct@U?$pair@$$CBV?$basic_string@DV?$char_traits@D@_STL@@V?$allocator@D@2@@_STL@@H@_STL@@U12@@_STL@@YAXPAU?$pair@$$CBV?$basic_string@DV?$char_traits@D@_STL@@V?$allocator@D@2@@_STL@@H@0@ABU10@@Z PROC NEAR ; _STL::_Construct<_STL::pair<_STL::basic_string<char,_STL::char_traits<char>,_STL::allocator<char> > const ,int>,_STL::pair<_STL::basic_string<char,_STL::char_traits<char>,_STL::allocator<char> > const ,int> >, COMDAT

; 93   : inline void _Construct(_T1* __p, const _T2& __val) {

  00000	6a ff		 push	 -1
  00002	68 00 00 00 00	 push	 __ehhandler$??$_Construct@U?$pair@$$CBV?$basic_string@DV?$char_traits@D@_STL@@V?$allocator@D@2@@_STL@@H@_STL@@U12@@_STL@@YAXPAU?$pair@$$CBV?$basic_string@DV?$char_traits@D@_STL@@V?$allocator@D@2@@_STL@@H@0@ABU10@@Z
  00007	64 a1 00 00 00
	00		 mov	 eax, DWORD PTR fs:__except_list
  0000d	50		 push	 eax
  0000e	64 89 25 00 00
	00 00		 mov	 DWORD PTR fs:__except_list, esp
  00015	51		 push	 ecx
  00016	56		 push	 esi

; 94   : # ifdef _STLP_DEBUG_UNINITIALIZED
; 95   : 	memset((char*)__p, _STLP_SHRED_BYTE, sizeof(_T1));
; 96   : # endif
; 97   :     _STLP_PLACEMENT_NEW (__p) _T1(__val);

  00017	8b 74 24 18	 mov	 esi, DWORD PTR ___p$[esp+16]
  0001b	89 74 24 04	 mov	 DWORD PTR $T81715[esp+20], esi
  0001f	85 f6		 test	 esi, esi
  00021	c7 44 24 10 00
	00 00 00	 mov	 DWORD PTR __$EHRec$[esp+28], 0
  00029	74 14		 je	 SHORT $L81716
  0002b	57		 push	 edi
  0002c	8b 7c 24 20	 mov	 edi, DWORD PTR ___val$[esp+20]
  00030	57		 push	 edi
  00031	8b ce		 mov	 ecx, esi
  00033	e8 00 00 00 00	 call	 ??0?$basic_string@DV?$char_traits@D@_STL@@V?$allocator@D@2@@_STL@@QAE@ABV01@@Z ; _STL::basic_string<char,_STL::char_traits<char>,_STL::allocator<char> >::basic_string<char,_STL::char_traits<char>,_STL::allocator<char> >
  00038	8b 47 0c	 mov	 eax, DWORD PTR [edi+12]
  0003b	89 46 0c	 mov	 DWORD PTR [esi+12], eax
  0003e	5f		 pop	 edi
$L81716:

; 98   : }

  0003f	8b 4c 24 08	 mov	 ecx, DWORD PTR __$EHRec$[esp+20]
  00043	5e		 pop	 esi
  00044	64 89 0d 00 00
	00 00		 mov	 DWORD PTR fs:__except_list, ecx
  0004b	83 c4 10	 add	 esp, 16			; 00000010H
  0004e	c3		 ret	 0
_TEXT	ENDS
;	COMDAT text$x
text$x	SEGMENT
$L81718:
  00000	8b 45 04	 mov	 eax, DWORD PTR ___p$[ebp-4]
  00003	50		 push	 eax
  00004	8b 4d f0	 mov	 ecx, DWORD PTR $T81715[ebp]
  00007	51		 push	 ecx
  00008	e8 00 00 00 00	 call	 ??3@YAXPAX0@Z		; operator delete
  0000d	83 c4 08	 add	 esp, 8
  00010	c3		 ret	 0
__ehhandler$??$_Construct@U?$pair@$$CBV?$basic_string@DV?$char_traits@D@_STL@@V?$allocator@D@2@@_STL@@H@_STL@@U12@@_STL@@YAXPAU?$pair@$$CBV?$basic_string@DV?$char_traits@D@_STL@@V?$allocator@D@2@@_STL@@H@0@ABU10@@Z:
  00011	b8 00 00 00 00	 mov	 eax, OFFSET FLAT:$T81727
  00016	e9 00 00 00 00	 jmp	 ___CxxFrameHandler
text$x	ENDS
??$_Construct@U?$pair@$$CBV?$basic_string@DV?$char_traits@D@_STL@@V?$allocator@D@2@@_STL@@H@_STL@@U12@@_STL@@YAXPAU?$pair@$$CBV?$basic_string@DV?$char_traits@D@_STL@@V?$allocator@D@2@@_STL@@H@0@ABU10@@Z ENDP ; _STL::_Construct<_STL::pair<_STL::basic_string<char,_STL::char_traits<char>,_STL::allocator<char> > const ,int>,_STL::pair<_STL::basic_string<char,_STL::char_traits<char>,_STL::allocator<char> > const ,int> >
PUBLIC	?clear@?$_Rb_tree@V?$basic_string@DV?$char_traits@D@_STL@@V?$allocator@D@2@@_STL@@U?$pair@$$CBV?$basic_string@DV?$char_traits@D@_STL@@V?$allocator@D@2@@_STL@@H@2@U?$_Select1st@U?$pair@$$CBV?$basic_string@DV?$char_traits@D@_STL@@V?$allocator@D@2@@_STL@@H@_STL@@@2@U?$less@V?$basic_string@DV?$char_traits@D@_STL@@V?$allocator@D@2@@_STL@@@2@V?$allocator@U?$pair@$$CBV?$basic_string@DV?$char_traits@D@_STL@@V?$allocator@D@2@@_STL@@H@_STL@@@2@@_STL@@QAEXXZ ; _STL::_Rb_tree<_STL::basic_string<char,_STL::char_traits<char>,_STL::allocator<char> >,_STL::pair<_STL::basic_string<char,_STL::char_traits<char>,_STL::allocator<char> > const ,int>,_STL::_Select1st<_STL::pair<_STL::basic_string<char,_STL::char_traits<char>,_STL::allocator<char> > const ,int> >,_STL::less<_STL::basic_string<char,_STL::char_traits<char>,_STL::allocator<char> > >,_STL::allocator<_STL::pair<_STL::basic_string<char,_STL::char_traits<char>,_STL::allocator<char> > const ,int> > >::clear
; Function compile flags: /Ogty
; File c:\stlport-4.6.1\stlport\stl\_tree.h
;	COMDAT ?clear@?$_Rb_tree@V?$basic_string@DV?$char_traits@D@_STL@@V?$allocator@D@2@@_STL@@U?$pair@$$CBV?$basic_string@DV?$char_traits@D@_STL@@V?$allocator@D@2@@_STL@@H@2@U?$_Select1st@U?$pair@$$CBV?$basic_string@DV?$char_traits@D@_STL@@V?$allocator@D@2@@_STL@@H@_STL@@@2@U?$less@V?$basic_string@DV?$char_traits@D@_STL@@V?$allocator@D@2@@_STL@@@2@V?$allocator@U?$pair@$$CBV?$basic_string@DV?$char_traits@D@_STL@@V?$allocator@D@2@@_STL@@H@_STL@@@2@@_STL@@QAEXXZ
_TEXT	SEGMENT
?clear@?$_Rb_tree@V?$basic_string@DV?$char_traits@D@_STL@@V?$allocator@D@2@@_STL@@U?$pair@$$CBV?$basic_string@DV?$char_traits@D@_STL@@V?$allocator@D@2@@_STL@@H@2@U?$_Select1st@U?$pair@$$CBV?$basic_string@DV?$char_traits@D@_STL@@V?$allocator@D@2@@_STL@@H@_STL@@@2@U?$less@V?$basic_string@DV?$char_traits@D@_STL@@V?$allocator@D@2@@_STL@@@2@V?$allocator@U?$pair@$$CBV?$basic_string@DV?$char_traits@D@_STL@@V?$allocator@D@2@@_STL@@H@_STL@@@2@@_STL@@QAEXXZ PROC NEAR ; _STL::_Rb_tree<_STL::basic_string<char,_STL::char_traits<char>,_STL::allocator<char> >,_STL::pair<_STL::basic_string<char,_STL::char_traits<char>,_STL::allocator<char> > const ,int>,_STL::_Select1st<_STL::pair<_STL::basic_string<char,_STL::char_traits<char>,_STL::allocator<char> > const ,int> >,_STL::less<_STL::basic_string<char,_STL::char_traits<char>,_STL::allocator<char> > >,_STL::allocator<_STL::pair<_STL::basic_string<char,_STL::char_traits<char>,_STL::allocator<char> > const ,int> > >::clear, COMDAT
; _this$ = ecx

; 445  :   void clear() {

  00000	56		 push	 esi
  00001	8b f1		 mov	 esi, ecx

; 446  :     if (_M_node_count != 0) {

  00003	8b 46 04	 mov	 eax, DWORD PTR [esi+4]
  00006	85 c0		 test	 eax, eax
  00008	74 27		 je	 SHORT $L76596

; 447  :       _M_erase(_M_root());

  0000a	8b 06		 mov	 eax, DWORD PTR [esi]
  0000c	8b 48 04	 mov	 ecx, DWORD PTR [eax+4]
  0000f	51		 push	 ecx
  00010	8b ce		 mov	 ecx, esi
  00012	e8 00 00 00 00	 call	 ?_M_erase@?$_Rb_tree@V?$basic_string@DV?$char_traits@D@_STL@@V?$allocator@D@2@@_STL@@U?$pair@$$CBV?$basic_string@DV?$char_traits@D@_STL@@V?$allocator@D@2@@_STL@@H@2@U?$_Select1st@U?$pair@$$CBV?$basic_string@DV?$char_traits@D@_STL@@V?$allocator@D@2@@_STL@@H@_STL@@@2@U?$less@V?$basic_string@DV?$char_traits@D@_STL@@V?$allocator@D@2@@_STL@@@2@V?$allocator@U?$pair@$$CBV?$basic_string@DV?$char_traits@D@_STL@@V?$allocator@D@2@@_STL@@H@_STL@@@2@@_STL@@AAEXPAU?$_Rb_tree_node@U?$pair@$$CBV?$basic_string@DV?$char_traits@D@_STL@@V?$allocator@D@2@@_STL@@H@_STL@@@2@@Z ; _STL::_Rb_tree<_STL::basic_string<char,_STL::char_traits<char>,_STL::allocator<char> >,_STL::pair<_STL::basic_string<char,_STL::char_traits<char>,_STL::allocator<char> > const ,int>,_STL::_Select1st<_STL::pair<_STL::basic_string<char,_STL::char_traits<char>,_STL::allocator<char> > const ,int> >,_STL::less<_STL::basic_string<char,_STL::char_traits<char>,_STL::allocator<char> > >,_STL::allocator<_STL::pair<_STL::basic_string<char,_STL::char_traits<char>,_STL::allocator<char> > const ,int> > >::_M_erase

; 448  :       _M_leftmost() = this->_M_header._M_data;

  00017	8b 06		 mov	 eax, DWORD PTR [esi]
  00019	89 40 08	 mov	 DWORD PTR [eax+8], eax

; 449  :       _M_root() = 0;

  0001c	8b 16		 mov	 edx, DWORD PTR [esi]
  0001e	c7 42 04 00 00
	00 00		 mov	 DWORD PTR [edx+4], 0

; 450  :       _M_rightmost() = this->_M_header._M_data;

  00025	8b 06		 mov	 eax, DWORD PTR [esi]
  00027	89 40 0c	 mov	 DWORD PTR [eax+12], eax

; 451  :       _M_node_count = 0;

  0002a	c7 46 04 00 00
	00 00		 mov	 DWORD PTR [esi+4], 0
$L76596:
  00031	5e		 pop	 esi

; 452  :     }
; 453  :   }      

  00032	c3		 ret	 0
?clear@?$_Rb_tree@V?$basic_string@DV?$char_traits@D@_STL@@V?$allocator@D@2@@_STL@@U?$pair@$$CBV?$basic_string@DV?$char_traits@D@_STL@@V?$allocator@D@2@@_STL@@H@2@U?$_Select1st@U?$pair@$$CBV?$basic_string@DV?$char_traits@D@_STL@@V?$allocator@D@2@@_STL@@H@_STL@@@2@U?$less@V?$basic_string@DV?$char_traits@D@_STL@@V?$allocator@D@2@@_STL@@@2@V?$allocator@U?$pair@$$CBV?$basic_string@DV?$char_traits@D@_STL@@V?$allocator@D@2@@_STL@@H@_STL@@@2@@_STL@@QAEXXZ ENDP ; _STL::_Rb_tree<_STL::basic_string<char,_STL::char_traits<char>,_STL::allocator<char> >,_STL::pair<_STL::basic_string<char,_STL::char_traits<char>,_STL::allocator<char> > const ,int>,_STL::_Select1st<_STL::pair<_STL::basic_string<char,_STL::char_traits<char>,_STL::allocator<char> > const ,int> >,_STL::less<_STL::basic_string<char,_STL::char_traits<char>,_STL::allocator<char> > >,_STL::allocator<_STL::pair<_STL::basic_string<char,_STL::char_traits<char>,_STL::allocator<char> > const ,int> > >::clear
_TEXT	ENDS
PUBLIC	?_M_create_node@?$_Rb_tree@V?$basic_string@DV?$char_traits@D@_STL@@V?$allocator@D@2@@_STL@@U?$pair@$$CBV?$basic_string@DV?$char_traits@D@_STL@@V?$allocator@D@2@@_STL@@H@2@U?$_Select1st@U?$pair@$$CBV?$basic_string@DV?$char_traits@D@_STL@@V?$allocator@D@2@@_STL@@H@_STL@@@2@U?$less@V?$basic_string@DV?$char_traits@D@_STL@@V?$allocator@D@2@@_STL@@@2@V?$allocator@U?$pair@$$CBV?$basic_string@DV?$char_traits@D@_STL@@V?$allocator@D@2@@_STL@@H@_STL@@@2@@_STL@@IAEPAU?$_Rb_tree_node@U?$pair@$$CBV?$basic_string@DV?$char_traits@D@_STL@@V?$allocator@D@2@@_STL@@H@_STL@@@2@ABU?$pair@$$CBV?$basic_string@DV?$char_traits@D@_STL@@V?$allocator@D@2@@_STL@@H@2@@Z ; _STL::_Rb_tree<_STL::basic_string<char,_STL::char_traits<char>,_STL::allocator<char> >,_STL::pair<_STL::basic_string<char,_STL::char_traits<char>,_STL::allocator<char> > const ,int>,_STL::_Select1st<_STL::pair<_STL::basic_string<char,_STL::char_traits<char>,_STL::allocator<char> > const ,int> >,_STL::less<_STL::basic_string<char,_STL::char_traits<char>,_STL::allocator<char> > >,_STL::allocator<_STL::pair<_STL::basic_string<char,_STL::char_traits<char>,_STL::allocator<char> > const ,int> > >::_M_create_node
;	COMDAT xdata$x
; File c:\stlport-4.6.1\stlport\stl\_new.h
xdata$x	SEGMENT
$T81803	DD	0ffffffffH
	DD	00H
	DD	0ffffffffH
	DD	00H
$T81805	DD	00H
	DD	00H
	DD	00H
	DD	FLAT:$L81751
$T81804	DD	00H
	DD	00H
	DD	01H
	DD	01H
	DD	FLAT:$T81805
$T81800	DD	019930520H
	DD	02H
	DD	FLAT:$T81803
	DD	01H
	DD	FLAT:$T81804
	DD	2 DUP(00H)
; Function compile flags: /Ogty
; File c:\stlport-4.6.1\stlport\stl\_tree.h
xdata$x	ENDS
;	COMDAT ?_M_create_node@?$_Rb_tree@V?$basic_string@DV?$char_traits@D@_STL@@V?$allocator@D@2@@_STL@@U?$pair@$$CBV?$basic_string@DV?$char_traits@D@_STL@@V?$allocator@D@2@@_STL@@H@2@U?$_Select1st@U?$pair@$$CBV?$basic_string@DV?$char_traits@D@_STL@@V?$allocator@D@2@@_STL@@H@_STL@@@2@U?$less@V?$basic_string@DV?$char_traits@D@_STL@@V?$allocator@D@2@@_STL@@@2@V?$allocator@U?$pair@$$CBV?$basic_string@DV?$char_traits@D@_STL@@V?$allocator@D@2@@_STL@@H@_STL@@@2@@_STL@@IAEPAU?$_Rb_tree_node@U?$pair@$$CBV?$basic_string@DV?$char_traits@D@_STL@@V?$allocator@D@2@@_STL@@H@_STL@@@2@ABU?$pair@$$CBV?$basic_string@DV?$char_traits@D@_STL@@V?$allocator@D@2@@_STL@@H@2@@Z
_TEXT	SEGMENT
___tmp$ = -20						; size = 4
__$EHRec$ = -16						; size = 16
___x$ = 8						; size = 4
?_M_create_node@?$_Rb_tree@V?$basic_string@DV?$char_traits@D@_STL@@V?$allocator@D@2@@_STL@@U?$pair@$$CBV?$basic_string@DV?$char_traits@D@_STL@@V?$allocator@D@2@@_STL@@H@2@U?$_Select1st@U?$pair@$$CBV?$basic_string@DV?$char_traits@D@_STL@@V?$allocator@D@2@@_STL@@H@_STL@@@2@U?$less@V?$basic_string@DV?$char_traits@D@_STL@@V?$allocator@D@2@@_STL@@@2@V?$allocator@U?$pair@$$CBV?$basic_string@DV?$char_traits@D@_STL@@V?$allocator@D@2@@_STL@@H@_STL@@@2@@_STL@@IAEPAU?$_Rb_tree_node@U?$pair@$$CBV?$basic_string@DV?$char_traits@D@_STL@@V?$allocator@D@2@@_STL@@H@_STL@@@2@ABU?$pair@$$CBV?$basic_string@DV?$char_traits@D@_STL@@V?$allocator@D@2@@_STL@@H@2@@Z PROC NEAR ; _STL::_Rb_tree<_STL::basic_string<char,_STL::char_traits<char>,_STL::allocator<char> >,_STL::pair<_STL::basic_string<char,_STL::char_traits<char>,_STL::allocator<char> > const ,int>,_STL::_Select1st<_STL::pair<_STL::basic_string<char,_STL::char_traits<char>,_STL::allocator<char> > const ,int> >,_STL::less<_STL::basic_string<char,_STL::char_traits<char>,_STL::allocator<char> > >,_STL::allocator<_STL::pair<_STL::basic_string<char,_STL::char_traits<char>,_STL::allocator<char> > const ,int> > >::_M_create_node, COMDAT
; _this$ = ecx

; 242  :   {

  00000	55		 push	 ebp
  00001	8b ec		 mov	 ebp, esp
  00003	6a ff		 push	 -1
  00005	68 00 00 00 00	 push	 __ehhandler$?_M_create_node@?$_Rb_tree@V?$basic_string@DV?$char_traits@D@_STL@@V?$allocator@D@2@@_STL@@U?$pair@$$CBV?$basic_string@DV?$char_traits@D@_STL@@V?$allocator@D@2@@_STL@@H@2@U?$_Select1st@U?$pair@$$CBV?$basic_string@DV?$char_traits@D@_STL@@V?$allocator@D@2@@_STL@@H@_STL@@@2@U?$less@V?$basic_string@DV?$char_traits@D@_STL@@V?$allocator@D@2@@_STL@@@2@V?$allocator@U?$pair@$$CBV?$basic_string@DV?$char_traits@D@_STL@@V?$allocator@D@2@@_STL@@H@_STL@@@2@@_STL@@IAEPAU?$_Rb_tree_node@U?$pair@$$CBV?$basic_string@DV?$char_traits@D@_STL@@V?$allocator@D@2@@_STL@@H@_STL@@@2@ABU?$pair@$$CBV?$basic_string@DV?$char_traits@D@_STL@@V?$allocator@D@2@@_STL@@H@2@@Z
  0000a	64 a1 00 00 00
	00		 mov	 eax, DWORD PTR fs:__except_list
  00010	50		 push	 eax
  00011	64 89 25 00 00
	00 00		 mov	 DWORD PTR fs:__except_list, esp
  00018	83 ec 08	 sub	 esp, 8
  0001b	53		 push	 ebx
  0001c	56		 push	 esi
  0001d	57		 push	 edi
  0001e	89 65 f0	 mov	 DWORD PTR __$EHRec$[ebp], esp

; 243  :     _Link_type __tmp = this->_M_header.allocate(1);

  00021	6a 20		 push	 32			; 00000020H
  00023	e8 00 00 00 00	 call	 ?_M_allocate@?$__node_alloc@$00$0A@@_STL@@CAPAXI@Z ; _STL::__node_alloc<1,0>::_M_allocate
  00028	8b f0		 mov	 esi, eax

; 244  :     _STLP_TRY {
; 245  :       _Construct(&__tmp->_M_value_field, __x);

  0002a	8b 45 08	 mov	 eax, DWORD PTR ___x$[ebp]
  0002d	50		 push	 eax
  0002e	8d 4e 10	 lea	 ecx, DWORD PTR [esi+16]
  00031	51		 push	 ecx
  00032	89 75 ec	 mov	 DWORD PTR ___tmp$[ebp], esi
  00035	c7 45 fc 00 00
	00 00		 mov	 DWORD PTR __$EHRec$[ebp+12], 0
  0003c	e8 00 00 00 00	 call	 ??$_Construct@U?$pair@$$CBV?$basic_string@DV?$char_traits@D@_STL@@V?$allocator@D@2@@_STL@@H@_STL@@U12@@_STL@@YAXPAU?$pair@$$CBV?$basic_string@DV?$char_traits@D@_STL@@V?$allocator@D@2@@_STL@@H@0@ABU10@@Z ; _STL::_Construct<_STL::pair<_STL::basic_string<char,_STL::char_traits<char>,_STL::allocator<char> > const ,int>,_STL::pair<_STL::basic_string<char,_STL::char_traits<char>,_STL::allocator<char> > const ,int> >

; 248  :     return __tmp;
; 249  :   }

  00041	8b 4d f4	 mov	 ecx, DWORD PTR __$EHRec$[ebp+4]
  00044	83 c4 0c	 add	 esp, 12			; 0000000cH
  00047	5f		 pop	 edi
  00048	8b c6		 mov	 eax, esi
  0004a	5e		 pop	 esi
  0004b	64 89 0d 00 00
	00 00		 mov	 DWORD PTR fs:__except_list, ecx
  00052	5b		 pop	 ebx
  00053	8b e5		 mov	 esp, ebp
  00055	5d		 pop	 ebp
  00056	c2 04 00	 ret	 4
$L81751:

; 246  :     }
; 247  :     _STLP_UNWIND(this->_M_header.deallocate(__tmp,1));

  00059	8b 45 ec	 mov	 eax, DWORD PTR ___tmp$[ebp]
  0005c	85 c0		 test	 eax, eax
  0005e	74 0b		 je	 SHORT $L81793
  00060	6a 20		 push	 32			; 00000020H
  00062	50		 push	 eax
  00063	e8 00 00 00 00	 call	 ?_M_deallocate@?$__node_alloc@$00$0A@@_STL@@CAXPAXI@Z ; _STL::__node_alloc<1,0>::_M_deallocate
  00068	83 c4 08	 add	 esp, 8
$L81793:
  0006b	6a 00		 push	 0
  0006d	6a 00		 push	 0
  0006f	e8 00 00 00 00	 call	 __CxxThrowException@8
$L81806:
$L81802:
  00074	cc		 int	 3
_TEXT	ENDS
;	COMDAT text$x
text$x	SEGMENT
__ehhandler$?_M_create_node@?$_Rb_tree@V?$basic_string@DV?$char_traits@D@_STL@@V?$allocator@D@2@@_STL@@U?$pair@$$CBV?$basic_string@DV?$char_traits@D@_STL@@V?$allocator@D@2@@_STL@@H@2@U?$_Select1st@U?$pair@$$CBV?$basic_string@DV?$char_traits@D@_STL@@V?$allocator@D@2@@_STL@@H@_STL@@@2@U?$less@V?$basic_string@DV?$char_traits@D@_STL@@V?$allocator@D@2@@_STL@@@2@V?$allocator@U?$pair@$$CBV?$basic_string@DV?$char_traits@D@_STL@@V?$allocator@D@2@@_STL@@H@_STL@@@2@@_STL@@IAEPAU?$_Rb_tree_node@U?$pair@$$CBV?$basic_string@DV?$char_traits@D@_STL@@V?$allocator@D@2@@_STL@@H@_STL@@@2@ABU?$pair@$$CBV?$basic_string@DV?$char_traits@D@_STL@@V?$allocator@D@2@@_STL@@H@2@@Z:
  00000	b8 00 00 00 00	 mov	 eax, OFFSET FLAT:$T81800
  00005	e9 00 00 00 00	 jmp	 ___CxxFrameHandler
text$x	ENDS
?_M_create_node@?$_Rb_tree@V?$basic_string@DV?$char_traits@D@_STL@@V?$allocator@D@2@@_STL@@U?$pair@$$CBV?$basic_string@DV?$char_traits@D@_STL@@V?$allocator@D@2@@_STL@@H@2@U?$_Select1st@U?$pair@$$CBV?$basic_string@DV?$char_traits@D@_STL@@V?$allocator@D@2@@_STL@@H@_STL@@@2@U?$less@V?$basic_string@DV?$char_traits@D@_STL@@V?$allocator@D@2@@_STL@@@2@V?$allocator@U?$pair@$$CBV?$basic_string@DV?$char_traits@D@_STL@@V?$allocator@D@2@@_STL@@H@_STL@@@2@@_STL@@IAEPAU?$_Rb_tree_node@U?$pair@$$CBV?$basic_string@DV?$char_traits@D@_STL@@V?$allocator@D@2@@_STL@@H@_STL@@@2@ABU?$pair@$$CBV?$basic_string@DV?$char_traits@D@_STL@@V?$allocator@D@2@@_STL@@H@2@@Z ENDP ; _STL::_Rb_tree<_STL::basic_string<char,_STL::char_traits<char>,_STL::allocator<char> >,_STL::pair<_STL::basic_string<char,_STL::char_traits<char>,_STL::allocator<char> > const ,int>,_STL::_Select1st<_STL::pair<_STL::basic_string<char,_STL::char_traits<char>,_STL::allocator<char> > const ,int> >,_STL::less<_STL::basic_string<char,_STL::char_traits<char>,_STL::allocator<char> > >,_STL::allocator<_STL::pair<_STL::basic_string<char,_STL::char_traits<char>,_STL::allocator<char> > const ,int> > >::_M_create_node
PUBLIC	??1?$_Rb_tree@V?$basic_string@DV?$char_traits@D@_STL@@V?$allocator@D@2@@_STL@@U?$pair@$$CBV?$basic_string@DV?$char_traits@D@_STL@@V?$allocator@D@2@@_STL@@H@2@U?$_Select1st@U?$pair@$$CBV?$basic_string@DV?$char_traits@D@_STL@@V?$allocator@D@2@@_STL@@H@_STL@@@2@U?$less@V?$basic_string@DV?$char_traits@D@_STL@@V?$allocator@D@2@@_STL@@@2@V?$allocator@U?$pair@$$CBV?$basic_string@DV?$char_traits@D@_STL@@V?$allocator@D@2@@_STL@@H@_STL@@@2@@_STL@@QAE@XZ ; _STL::_Rb_tree<_STL::basic_string<char,_STL::char_traits<char>,_STL::allocator<char> >,_STL::pair<_STL::basic_string<char,_STL::char_traits<char>,_STL::allocator<char> > const ,int>,_STL::_Select1st<_STL::pair<_STL::basic_string<char,_STL::char_traits<char>,_STL::allocator<char> > const ,int> >,_STL::less<_STL::basic_string<char,_STL::char_traits<char>,_STL::allocator<char> > >,_STL::allocator<_STL::pair<_STL::basic_string<char,_STL::char_traits<char>,_STL::allocator<char> > const ,int> > >::~_Rb_tree<_STL::basic_string<char,_STL::char_traits<char>,_STL::allocator<char> >,_STL::pair<_STL::basic_string<char,_STL::char_traits<char>,_STL::allocator<char> > const ,int>,_STL::_Select1st<_STL::pair<_STL::basic_string<char,_STL::char_traits<char>,_STL::allocator<char> > const ,int> >,_STL::less<_STL::basic_string<char,_STL::char_traits<char>,_STL::allocator<char> > >,_STL::allocator<_STL::pair<_STL::basic_string<char,_STL::char_traits<char>,_STL::allocator<char> > const ,int> > >
;	COMDAT xdata$x
; File c:\stlport-4.6.1\stlport\stl\_new.h
xdata$x	SEGMENT
$T81873	DD	0ffffffffH
	DD	FLAT:$L81811
$T81871	DD	019930520H
	DD	01H
	DD	FLAT:$T81873
	DD	2 DUP(00H)
	DD	2 DUP(00H)
; Function compile flags: /Ogty
; File c:\stlport-4.6.1\stlport\stl\_tree.h
xdata$x	ENDS
;	COMDAT ??1?$_Rb_tree@V?$basic_string@DV?$char_traits@D@_STL@@V?$allocator@D@2@@_STL@@U?$pair@$$CBV?$basic_string@DV?$char_traits@D@_STL@@V?$allocator@D@2@@_STL@@H@2@U?$_Select1st@U?$pair@$$CBV?$basic_string@DV?$char_traits@D@_STL@@V?$allocator@D@2@@_STL@@H@_STL@@@2@U?$less@V?$basic_string@DV?$char_traits@D@_STL@@V?$allocator@D@2@@_STL@@@2@V?$allocator@U?$pair@$$CBV?$basic_string@DV?$char_traits@D@_STL@@V?$allocator@D@2@@_STL@@H@_STL@@@2@@_STL@@QAE@XZ
_TEXT	SEGMENT
_this$ = -16						; size = 4
__$EHRec$ = -12						; size = 12
??1?$_Rb_tree@V?$basic_string@DV?$char_traits@D@_STL@@V?$allocator@D@2@@_STL@@U?$pair@$$CBV?$basic_string@DV?$char_traits@D@_STL@@V?$allocator@D@2@@_STL@@H@2@U?$_Select1st@U?$pair@$$CBV?$basic_string@DV?$char_traits@D@_STL@@V?$allocator@D@2@@_STL@@H@_STL@@@2@U?$less@V?$basic_string@DV?$char_traits@D@_STL@@V?$allocator@D@2@@_STL@@@2@V?$allocator@U?$pair@$$CBV?$basic_string@DV?$char_traits@D@_STL@@V?$allocator@D@2@@_STL@@H@_STL@@@2@@_STL@@QAE@XZ PROC NEAR ; _STL::_Rb_tree<_STL::basic_string<char,_STL::char_traits<char>,_STL::allocator<char> >,_STL::pair<_STL::basic_string<char,_STL::char_traits<char>,_STL::allocator<char> > const ,int>,_STL::_Select1st<_STL::pair<_STL::basic_string<char,_STL::char_traits<char>,_STL::allocator<char> > const ,int> >,_STL::less<_STL::basic_string<char,_STL::char_traits<char>,_STL::allocator<char> > >,_STL::allocator<_STL::pair<_STL::basic_string<char,_STL::char_traits<char>,_STL::allocator<char> > const ,int> > >::~_Rb_tree<_STL::basic_string<char,_STL::char_traits<char>,_STL::allocator<char> >,_STL::pair<_STL::basic_string<char,_STL::char_traits<char>,_STL::allocator<char> > const ,int>,_STL::_Select1st<_STL::pair<_STL::basic_string<char,_STL::char_traits<char>,_STL::allocator<char> > const ,int> >,_STL::less<_STL::basic_string<char,_STL::char_traits<char>,_STL::allocator<char> > >,_STL::allocator<_STL::pair<_STL::basic_string<char,_STL::char_traits<char>,_STL::allocator<char> > const ,int> > >, COMDAT
; _this$ = ecx

; 341  :   ~_Rb_tree() { clear(); }

  00000	6a ff		 push	 -1
  00002	68 00 00 00 00	 push	 __ehhandler$??1?$_Rb_tree@V?$basic_string@DV?$char_traits@D@_STL@@V?$allocator@D@2@@_STL@@U?$pair@$$CBV?$basic_string@DV?$char_traits@D@_STL@@V?$allocator@D@2@@_STL@@H@2@U?$_Select1st@U?$pair@$$CBV?$basic_string@DV?$char_traits@D@_STL@@V?$allocator@D@2@@_STL@@H@_STL@@@2@U?$less@V?$basic_string@DV?$char_traits@D@_STL@@V?$allocator@D@2@@_STL@@@2@V?$allocator@U?$pair@$$CBV?$basic_string@DV?$char_traits@D@_STL@@V?$allocator@D@2@@_STL@@H@_STL@@@2@@_STL@@QAE@XZ
  00007	64 a1 00 00 00
	00		 mov	 eax, DWORD PTR fs:__except_list
  0000d	50		 push	 eax
  0000e	64 89 25 00 00
	00 00		 mov	 DWORD PTR fs:__except_list, esp
  00015	51		 push	 ecx
  00016	56		 push	 esi
  00017	8b f1		 mov	 esi, ecx
  00019	89 74 24 04	 mov	 DWORD PTR _this$[esp+20], esi
  0001d	8b 46 04	 mov	 eax, DWORD PTR [esi+4]
  00020	85 c0		 test	 eax, eax
  00022	c7 44 24 10 00
	00 00 00	 mov	 DWORD PTR __$EHRec$[esp+28], 0
  0002a	74 27		 je	 SHORT $L81826
  0002c	8b 06		 mov	 eax, DWORD PTR [esi]
  0002e	8b 48 04	 mov	 ecx, DWORD PTR [eax+4]
  00031	51		 push	 ecx
  00032	8b ce		 mov	 ecx, esi
  00034	e8 00 00 00 00	 call	 ?_M_erase@?$_Rb_tree@V?$basic_string@DV?$char_traits@D@_STL@@V?$allocator@D@2@@_STL@@U?$pair@$$CBV?$basic_string@DV?$char_traits@D@_STL@@V?$allocator@D@2@@_STL@@H@2@U?$_Select1st@U?$pair@$$CBV?$basic_string@DV?$char_traits@D@_STL@@V?$allocator@D@2@@_STL@@H@_STL@@@2@U?$less@V?$basic_string@DV?$char_traits@D@_STL@@V?$allocator@D@2@@_STL@@@2@V?$allocator@U?$pair@$$CBV?$basic_string@DV?$char_traits@D@_STL@@V?$allocator@D@2@@_STL@@H@_STL@@@2@@_STL@@AAEXPAU?$_Rb_tree_node@U?$pair@$$CBV?$basic_string@DV?$char_traits@D@_STL@@V?$allocator@D@2@@_STL@@H@_STL@@@2@@Z ; _STL::_Rb_tree<_STL::basic_string<char,_STL::char_traits<char>,_STL::allocator<char> >,_STL::pair<_STL::basic_string<char,_STL::char_traits<char>,_STL::allocator<char> > const ,int>,_STL::_Select1st<_STL::pair<_STL::basic_string<char,_STL::char_traits<char>,_STL::allocator<char> > const ,int> >,_STL::less<_STL::basic_string<char,_STL::char_traits<char>,_STL::allocator<char> > >,_STL::allocator<_STL::pair<_STL::basic_string<char,_STL::char_traits<char>,_STL::allocator<char> > const ,int> > >::_M_erase
  00039	8b 06		 mov	 eax, DWORD PTR [esi]
  0003b	89 40 08	 mov	 DWORD PTR [eax+8], eax
  0003e	8b 16		 mov	 edx, DWORD PTR [esi]
  00040	c7 42 04 00 00
	00 00		 mov	 DWORD PTR [edx+4], 0
  00047	8b 06		 mov	 eax, DWORD PTR [esi]
  00049	89 40 0c	 mov	 DWORD PTR [eax+12], eax
  0004c	c7 46 04 00 00
	00 00		 mov	 DWORD PTR [esi+4], 0
$L81826:
  00053	8b 36		 mov	 esi, DWORD PTR [esi]
  00055	85 f6		 test	 esi, esi
  00057	c7 44 24 10 ff
	ff ff ff	 mov	 DWORD PTR __$EHRec$[esp+28], -1
  0005f	74 0b		 je	 SHORT $L81866
  00061	6a 20		 push	 32			; 00000020H
  00063	56		 push	 esi
  00064	e8 00 00 00 00	 call	 ?_M_deallocate@?$__node_alloc@$00$0A@@_STL@@CAXPAXI@Z ; _STL::__node_alloc<1,0>::_M_deallocate
  00069	83 c4 08	 add	 esp, 8
$L81866:
  0006c	8b 4c 24 08	 mov	 ecx, DWORD PTR __$EHRec$[esp+20]
  00070	5e		 pop	 esi
  00071	64 89 0d 00 00
	00 00		 mov	 DWORD PTR fs:__except_list, ecx
  00078	83 c4 10	 add	 esp, 16			; 00000010H
  0007b	c3		 ret	 0
_TEXT	ENDS
;	COMDAT text$x
text$x	SEGMENT
$L81811:
  00000	8b 4d f0	 mov	 ecx, DWORD PTR _this$[ebp]
  00003	e9 00 00 00 00	 jmp	 ??1?$_Rb_tree_base@U?$pair@$$CBV?$basic_string@DV?$char_traits@D@_STL@@V?$allocator@D@2@@_STL@@H@_STL@@V?$allocator@U?$pair@$$CBV?$basic_string@DV?$char_traits@D@_STL@@V?$allocator@D@2@@_STL@@H@_STL@@@2@@_STL@@QAE@XZ ; _STL::_Rb_tree_base<_STL::pair<_STL::basic_string<char,_STL::char_traits<char>,_STL::allocator<char> > const ,int>,_STL::allocator<_STL::pair<_STL::basic_string<char,_STL::char_traits<char>,_STL::allocator<char> > const ,int> > >::~_Rb_tree_base<_STL::pair<_STL::basic_string<char,_STL::char_traits<char>,_STL::allocator<char> > const ,int>,_STL::allocator<_STL::pair<_STL::basic_string<char,_STL::char_traits<char>,_STL::allocator<char> > const ,int> > >
__ehhandler$??1?$_Rb_tree@V?$basic_string@DV?$char_traits@D@_STL@@V?$allocator@D@2@@_STL@@U?$pair@$$CBV?$basic_string@DV?$char_traits@D@_STL@@V?$allocator@D@2@@_STL@@H@2@U?$_Select1st@U?$pair@$$CBV?$basic_string@DV?$char_traits@D@_STL@@V?$allocator@D@2@@_STL@@H@_STL@@@2@U?$less@V?$basic_string@DV?$char_traits@D@_STL@@V?$allocator@D@2@@_STL@@@2@V?$allocator@U?$pair@$$CBV?$basic_string@DV?$char_traits@D@_STL@@V?$allocator@D@2@@_STL@@H@_STL@@@2@@_STL@@QAE@XZ:
  00008	b8 00 00 00 00	 mov	 eax, OFFSET FLAT:$T81871
  0000d	e9 00 00 00 00	 jmp	 ___CxxFrameHandler
text$x	ENDS
??1?$_Rb_tree@V?$basic_string@DV?$char_traits@D@_STL@@V?$allocator@D@2@@_STL@@U?$pair@$$CBV?$basic_string@DV?$char_traits@D@_STL@@V?$allocator@D@2@@_STL@@H@2@U?$_Select1st@U?$pair@$$CBV?$basic_string@DV?$char_traits@D@_STL@@V?$allocator@D@2@@_STL@@H@_STL@@@2@U?$less@V?$basic_string@DV?$char_traits@D@_STL@@V?$allocator@D@2@@_STL@@@2@V?$allocator@U?$pair@$$CBV?$basic_string@DV?$char_traits@D@_STL@@V?$allocator@D@2@@_STL@@H@_STL@@@2@@_STL@@QAE@XZ ENDP ; _STL::_Rb_tree<_STL::basic_string<char,_STL::char_traits<char>,_STL::allocator<char> >,_STL::pair<_STL::basic_string<char,_STL::char_traits<char>,_STL::allocator<char> > const ,int>,_STL::_Select1st<_STL::pair<_STL::basic_string<char,_STL::char_traits<char>,_STL::allocator<char> > const ,int> >,_STL::less<_STL::basic_string<char,_STL::char_traits<char>,_STL::allocator<char> > >,_STL::allocator<_STL::pair<_STL::basic_string<char,_STL::char_traits<char>,_STL::allocator<char> > const ,int> > >::~_Rb_tree<_STL::basic_string<char,_STL::char_traits<char>,_STL::allocator<char> >,_STL::pair<_STL::basic_string<char,_STL::char_traits<char>,_STL::allocator<char> > const ,int>,_STL::_Select1st<_STL::pair<_STL::basic_string<char,_STL::char_traits<char>,_STL::allocator<char> > const ,int> >,_STL::less<_STL::basic_string<char,_STL::char_traits<char>,_STL::allocator<char> > >,_STL::allocator<_STL::pair<_STL::basic_string<char,_STL::char_traits<char>,_STL::allocator<char> > const ,int> > >
PUBLIC	?_M_insert@?$_Rb_tree@V?$basic_string@DV?$char_traits@D@_STL@@V?$allocator@D@2@@_STL@@U?$pair@$$CBV?$basic_string@DV?$char_traits@D@_STL@@V?$allocator@D@2@@_STL@@H@2@U?$_Select1st@U?$pair@$$CBV?$basic_string@DV?$char_traits@D@_STL@@V?$allocator@D@2@@_STL@@H@_STL@@@2@U?$less@V?$basic_string@DV?$char_traits@D@_STL@@V?$allocator@D@2@@_STL@@@2@V?$allocator@U?$pair@$$CBV?$basic_string@DV?$char_traits@D@_STL@@V?$allocator@D@2@@_STL@@H@_STL@@@2@@_STL@@AAE?AU?$_Rb_tree_iterator@U?$pair@$$CBV?$basic_string@DV?$char_traits@D@_STL@@V?$allocator@D@2@@_STL@@H@_STL@@U?$_Nonconst_traits@U?$pair@$$CBV?$basic_string@DV?$char_traits@D@_STL@@V?$allocator@D@2@@_STL@@H@_STL@@@2@@2@PAU_Rb_tree_node_base@2@0ABU?$pair@$$CBV?$basic_string@DV?$char_traits@D@_STL@@V?$allocator@D@2@@_STL@@H@2@0@Z ; _STL::_Rb_tree<_STL::basic_string<char,_STL::char_traits<char>,_STL::allocator<char> >,_STL::pair<_STL::basic_string<char,_STL::char_traits<char>,_STL::allocator<char> > const ,int>,_STL::_Select1st<_STL::pair<_STL::basic_string<char,_STL::char_traits<char>,_STL::allocator<char> > const ,int> >,_STL::less<_STL::basic_string<char,_STL::char_traits<char>,_STL::allocator<char> > >,_STL::allocator<_STL::pair<_STL::basic_string<char,_STL::char_traits<char>,_STL::allocator<char> > const ,int> > >::_M_insert
EXTRN	?_Rebalance@?$_Rb_global@_N@_STL@@SAXPAU_Rb_tree_node_base@2@AAPAU32@@Z:NEAR ; _STL::_Rb_global<bool>::_Rebalance
; Function compile flags: /Ogty
; File c:\stlport-4.6.1\stlport\stl\_tree.c
;	COMDAT ?_M_insert@?$_Rb_tree@V?$basic_string@DV?$char_traits@D@_STL@@V?$allocator@D@2@@_STL@@U?$pair@$$CBV?$basic_string@DV?$char_traits@D@_STL@@V?$allocator@D@2@@_STL@@H@2@U?$_Select1st@U?$pair@$$CBV?$basic_string@DV?$char_traits@D@_STL@@V?$allocator@D@2@@_STL@@H@_STL@@@2@U?$less@V?$basic_string@DV?$char_traits@D@_STL@@V?$allocator@D@2@@_STL@@@2@V?$allocator@U?$pair@$$CBV?$basic_string@DV?$char_traits@D@_STL@@V?$allocator@D@2@@_STL@@H@_STL@@@2@@_STL@@AAE?AU?$_Rb_tree_iterator@U?$pair@$$CBV?$basic_string@DV?$char_traits@D@_STL@@V?$allocator@D@2@@_STL@@H@_STL@@U?$_Nonconst_traits@U?$pair@$$CBV?$basic_string@DV?$char_traits@D@_STL@@V?$allocator@D@2@@_STL@@H@_STL@@@2@@2@PAU_Rb_tree_node_base@2@0ABU?$pair@$$CBV?$basic_string@DV?$char_traits@D@_STL@@V?$allocator@D@2@@_STL@@H@2@0@Z
_TEXT	SEGMENT
___$ReturnUdt$ = 8					; size = 4
___x_$ = 12						; size = 4
___y_$ = 16						; size = 4
___v$ = 20						; size = 4
___w_$ = 24						; size = 4
?_M_insert@?$_Rb_tree@V?$basic_string@DV?$char_traits@D@_STL@@V?$allocator@D@2@@_STL@@U?$pair@$$CBV?$basic_string@DV?$char_traits@D@_STL@@V?$allocator@D@2@@_STL@@H@2@U?$_Select1st@U?$pair@$$CBV?$basic_string@DV?$char_traits@D@_STL@@V?$allocator@D@2@@_STL@@H@_STL@@@2@U?$less@V?$basic_string@DV?$char_traits@D@_STL@@V?$allocator@D@2@@_STL@@@2@V?$allocator@U?$pair@$$CBV?$basic_string@DV?$char_traits@D@_STL@@V?$allocator@D@2@@_STL@@H@_STL@@@2@@_STL@@AAE?AU?$_Rb_tree_iterator@U?$pair@$$CBV?$basic_string@DV?$char_traits@D@_STL@@V?$allocator@D@2@@_STL@@H@_STL@@U?$_Nonconst_traits@U?$pair@$$CBV?$basic_string@DV?$char_traits@D@_STL@@V?$allocator@D@2@@_STL@@H@_STL@@@2@@2@PAU_Rb_tree_node_base@2@0ABU?$pair@$$CBV?$basic_string@DV?$char_traits@D@_STL@@V?$allocator@D@2@@_STL@@H@2@0@Z PROC NEAR ; _STL::_Rb_tree<_STL::basic_string<char,_STL::char_traits<char>,_STL::allocator<char> >,_STL::pair<_STL::basic_string<char,_STL::char_traits<char>,_STL::allocator<char> > const ,int>,_STL::_Select1st<_STL::pair<_STL::basic_string<char,_STL::char_traits<char>,_STL::allocator<char> > const ,int> >,_STL::less<_STL::basic_string<char,_STL::char_traits<char>,_STL::allocator<char> > >,_STL::allocator<_STL::pair<_STL::basic_string<char,_STL::char_traits<char>,_STL::allocator<char> > const ,int> > >::_M_insert, COMDAT
; _this$ = ecx

; 347  : {

  00000	53		 push	 ebx

; 348  :   _Link_type __w = (_Link_type) __w_;
; 349  :   _Link_type __x = (_Link_type) __x_;
; 350  :   _Link_type __y = (_Link_type) __y_;
; 351  :   _Link_type __z;
; 352  : 
; 353  :   if ( __y == this->_M_header._M_data ||
; 354  :        ( __w == 0 && // If w != 0, the remainder fails to false
; 355  :          ( __x != 0 ||     // If x != 0, the remainder succeeds to true
; 356  :            _M_key_compare( _KeyOfValue()(__v), _S_key(__y) ) )
; 357  : 	 )
; 358  :        ) {

  00001	8b 5c 24 10	 mov	 ebx, DWORD PTR ___y_$[esp]
  00005	56		 push	 esi
  00006	8b 74 24 18	 mov	 esi, DWORD PTR ___v$[esp+4]
  0000a	57		 push	 edi
  0000b	8b f9		 mov	 edi, ecx
  0000d	3b 1f		 cmp	 ebx, DWORD PTR [edi]
  0000f	74 3a		 je	 SHORT $L77367
  00011	8b 44 24 20	 mov	 eax, DWORD PTR ___w_$[esp+8]
  00015	85 c0		 test	 eax, eax
  00017	75 19		 jne	 SHORT $L77365
  00019	8b 44 24 14	 mov	 eax, DWORD PTR ___x_$[esp+8]
  0001d	85 c0		 test	 eax, eax
  0001f	75 2a		 jne	 SHORT $L77367
  00021	8d 43 10	 lea	 eax, DWORD PTR [ebx+16]
  00024	50		 push	 eax
  00025	56		 push	 esi
  00026	e8 00 00 00 00	 call	 ??$?MDV?$char_traits@D@_STL@@V?$allocator@D@1@@_STL@@YA_NABV?$basic_string@DV?$char_traits@D@_STL@@V?$allocator@D@2@@0@0@Z ; _STL::operator<<char,_STL::char_traits<char>,_STL::allocator<char> >
  0002b	83 c4 08	 add	 esp, 8
  0002e	84 c0		 test	 al, al
  00030	75 19		 jne	 SHORT $L77367
$L77365:

; 369  :   }
; 370  :   else {
; 371  :     __z = _M_create_node(__v);

  00032	56		 push	 esi
  00033	8b cf		 mov	 ecx, edi
  00035	e8 00 00 00 00	 call	 ?_M_create_node@?$_Rb_tree@V?$basic_string@DV?$char_traits@D@_STL@@V?$allocator@D@2@@_STL@@U?$pair@$$CBV?$basic_string@DV?$char_traits@D@_STL@@V?$allocator@D@2@@_STL@@H@2@U?$_Select1st@U?$pair@$$CBV?$basic_string@DV?$char_traits@D@_STL@@V?$allocator@D@2@@_STL@@H@_STL@@@2@U?$less@V?$basic_string@DV?$char_traits@D@_STL@@V?$allocator@D@2@@_STL@@@2@V?$allocator@U?$pair@$$CBV?$basic_string@DV?$char_traits@D@_STL@@V?$allocator@D@2@@_STL@@H@_STL@@@2@@_STL@@IAEPAU?$_Rb_tree_node@U?$pair@$$CBV?$basic_string@DV?$char_traits@D@_STL@@V?$allocator@D@2@@_STL@@H@_STL@@@2@ABU?$pair@$$CBV?$basic_string@DV?$char_traits@D@_STL@@V?$allocator@D@2@@_STL@@H@2@@Z ; _STL::_Rb_tree<_STL::basic_string<char,_STL::char_traits<char>,_STL::allocator<char> >,_STL::pair<_STL::basic_string<char,_STL::char_traits<char>,_STL::allocator<char> > const ,int>,_STL::_Select1st<_STL::pair<_STL::basic_string<char,_STL::char_traits<char>,_STL::allocator<char> > const ,int> >,_STL::less<_STL::basic_string<char,_STL::char_traits<char>,_STL::allocator<char> > >,_STL::allocator<_STL::pair<_STL::basic_string<char,_STL::char_traits<char>,_STL::allocator<char> > const ,int> > >::_M_create_node
  0003a	8b f0		 mov	 esi, eax

; 372  :     _S_right(__y) = __z;

  0003c	89 73 0c	 mov	 DWORD PTR [ebx+12], esi

; 373  :     if (__y == _M_rightmost())

  0003f	8b 07		 mov	 eax, DWORD PTR [edi]
  00041	3b 58 0c	 cmp	 ebx, DWORD PTR [eax+12]
  00044	75 2a		 jne	 SHORT $L77370

; 374  :       _M_rightmost() = __z;  // maintain _M_rightmost() pointing to max node

  00046	89 70 0c	 mov	 DWORD PTR [eax+12], esi
  00049	eb 25		 jmp	 SHORT $L77370
$L77367:

; 359  :     
; 360  :     __z = _M_create_node(__v);

  0004b	56		 push	 esi
  0004c	8b cf		 mov	 ecx, edi
  0004e	e8 00 00 00 00	 call	 ?_M_create_node@?$_Rb_tree@V?$basic_string@DV?$char_traits@D@_STL@@V?$allocator@D@2@@_STL@@U?$pair@$$CBV?$basic_string@DV?$char_traits@D@_STL@@V?$allocator@D@2@@_STL@@H@2@U?$_Select1st@U?$pair@$$CBV?$basic_string@DV?$char_traits@D@_STL@@V?$allocator@D@2@@_STL@@H@_STL@@@2@U?$less@V?$basic_string@DV?$char_traits@D@_STL@@V?$allocator@D@2@@_STL@@@2@V?$allocator@U?$pair@$$CBV?$basic_string@DV?$char_traits@D@_STL@@V?$allocator@D@2@@_STL@@H@_STL@@@2@@_STL@@IAEPAU?$_Rb_tree_node@U?$pair@$$CBV?$basic_string@DV?$char_traits@D@_STL@@V?$allocator@D@2@@_STL@@H@_STL@@@2@ABU?$pair@$$CBV?$basic_string@DV?$char_traits@D@_STL@@V?$allocator@D@2@@_STL@@H@2@@Z ; _STL::_Rb_tree<_STL::basic_string<char,_STL::char_traits<char>,_STL::allocator<char> >,_STL::pair<_STL::basic_string<char,_STL::char_traits<char>,_STL::allocator<char> > const ,int>,_STL::_Select1st<_STL::pair<_STL::basic_string<char,_STL::char_traits<char>,_STL::allocator<char> > const ,int> >,_STL::less<_STL::basic_string<char,_STL::char_traits<char>,_STL::allocator<char> > >,_STL::allocator<_STL::pair<_STL::basic_string<char,_STL::char_traits<char>,_STL::allocator<char> > const ,int> > >::_M_create_node
  00053	8b f0		 mov	 esi, eax

; 361  :     _S_left(__y) = __z;               // also makes _M_leftmost() = __z 

  00055	89 73 08	 mov	 DWORD PTR [ebx+8], esi

; 362  :                                       //    when __y == _M_header
; 363  :     if (__y == this->_M_header._M_data) {

  00058	8b 07		 mov	 eax, DWORD PTR [edi]
  0005a	3b d8		 cmp	 ebx, eax
  0005c	75 0a		 jne	 SHORT $L77368

; 364  :       _M_root() = __z;

  0005e	89 70 04	 mov	 DWORD PTR [eax+4], esi

; 365  :       _M_rightmost() = __z;

  00061	8b 0f		 mov	 ecx, DWORD PTR [edi]
  00063	89 71 0c	 mov	 DWORD PTR [ecx+12], esi

; 366  :     }
; 367  :     else if (__y == _M_leftmost())

  00066	eb 08		 jmp	 SHORT $L77370
$L77368:
  00068	3b 58 08	 cmp	 ebx, DWORD PTR [eax+8]
  0006b	75 03		 jne	 SHORT $L77370

; 368  :       _M_leftmost() = __z;   // maintain _M_leftmost() pointing to min node

  0006d	89 70 08	 mov	 DWORD PTR [eax+8], esi
$L77370:

; 375  :   }
; 376  :   _S_parent(__z) = __y;

  00070	89 5e 04	 mov	 DWORD PTR [esi+4], ebx

; 377  :   _S_left(__z) = 0;

  00073	c7 46 08 00 00
	00 00		 mov	 DWORD PTR [esi+8], 0

; 378  :   _S_right(__z) = 0;

  0007a	c7 46 0c 00 00
	00 00		 mov	 DWORD PTR [esi+12], 0

; 379  :   _Rb_global_inst::_Rebalance(__z, this->_M_header._M_data->_M_parent);

  00081	8b 17		 mov	 edx, DWORD PTR [edi]
  00083	83 c2 04	 add	 edx, 4
  00086	52		 push	 edx
  00087	56		 push	 esi
  00088	e8 00 00 00 00	 call	 ?_Rebalance@?$_Rb_global@_N@_STL@@SAXPAU_Rb_tree_node_base@2@AAPAU32@@Z ; _STL::_Rb_global<bool>::_Rebalance

; 380  :   ++_M_node_count;

  0008d	8b 47 04	 mov	 eax, DWORD PTR [edi+4]
  00090	83 c4 08	 add	 esp, 8
  00093	40		 inc	 eax
  00094	89 47 04	 mov	 DWORD PTR [edi+4], eax

; 381  :   return iterator(__z);

  00097	8b 44 24 10	 mov	 eax, DWORD PTR ___$ReturnUdt$[esp+8]
  0009b	5f		 pop	 edi
  0009c	89 30		 mov	 DWORD PTR [eax], esi
  0009e	5e		 pop	 esi
  0009f	5b		 pop	 ebx

; 382  : }

  000a0	c2 14 00	 ret	 20			; 00000014H
?_M_insert@?$_Rb_tree@V?$basic_string@DV?$char_traits@D@_STL@@V?$allocator@D@2@@_STL@@U?$pair@$$CBV?$basic_string@DV?$char_traits@D@_STL@@V?$allocator@D@2@@_STL@@H@2@U?$_Select1st@U?$pair@$$CBV?$basic_string@DV?$char_traits@D@_STL@@V?$allocator@D@2@@_STL@@H@_STL@@@2@U?$less@V?$basic_string@DV?$char_traits@D@_STL@@V?$allocator@D@2@@_STL@@@2@V?$allocator@U?$pair@$$CBV?$basic_string@DV?$char_traits@D@_STL@@V?$allocator@D@2@@_STL@@H@_STL@@@2@@_STL@@AAE?AU?$_Rb_tree_iterator@U?$pair@$$CBV?$basic_string@DV?$char_traits@D@_STL@@V?$allocator@D@2@@_STL@@H@_STL@@U?$_Nonconst_traits@U?$pair@$$CBV?$basic_string@DV?$char_traits@D@_STL@@V?$allocator@D@2@@_STL@@H@_STL@@@2@@2@PAU_Rb_tree_node_base@2@0ABU?$pair@$$CBV?$basic_string@DV?$char_traits@D@_STL@@V?$allocator@D@2@@_STL@@H@2@0@Z ENDP ; _STL::_Rb_tree<_STL::basic_string<char,_STL::char_traits<char>,_STL::allocator<char> >,_STL::pair<_STL::basic_string<char,_STL::char_traits<char>,_STL::allocator<char> > const ,int>,_STL::_Select1st<_STL::pair<_STL::basic_string<char,_STL::char_traits<char>,_STL::allocator<char> > const ,int> >,_STL::less<_STL::basic_string<char,_STL::char_traits<char>,_STL::allocator<char> > >,_STL::allocator<_STL::pair<_STL::basic_string<char,_STL::char_traits<char>,_STL::allocator<char> > const ,int> > >::_M_insert
_TEXT	ENDS
PUBLIC	?insert_unique@?$_Rb_tree@V?$basic_string@DV?$char_traits@D@_STL@@V?$allocator@D@2@@_STL@@U?$pair@$$CBV?$basic_string@DV?$char_traits@D@_STL@@V?$allocator@D@2@@_STL@@H@2@U?$_Select1st@U?$pair@$$CBV?$basic_string@DV?$char_traits@D@_STL@@V?$allocator@D@2@@_STL@@H@_STL@@@2@U?$less@V?$basic_string@DV?$char_traits@D@_STL@@V?$allocator@D@2@@_STL@@@2@V?$allocator@U?$pair@$$CBV?$basic_string@DV?$char_traits@D@_STL@@V?$allocator@D@2@@_STL@@H@_STL@@@2@@_STL@@QAE?AU?$pair@U?$_Rb_tree_iterator@U?$pair@$$CBV?$basic_string@DV?$char_traits@D@_STL@@V?$allocator@D@2@@_STL@@H@_STL@@U?$_Nonconst_traits@U?$pair@$$CBV?$basic_string@DV?$char_traits@D@_STL@@V?$allocator@D@2@@_STL@@H@_STL@@@2@@_STL@@_N@2@ABU?$pair@$$CBV?$basic_string@DV?$char_traits@D@_STL@@V?$allocator@D@2@@_STL@@H@2@@Z ; _STL::_Rb_tree<_STL::basic_string<char,_STL::char_traits<char>,_STL::allocator<char> >,_STL::pair<_STL::basic_string<char,_STL::char_traits<char>,_STL::allocator<char> > const ,int>,_STL::_Select1st<_STL::pair<_STL::basic_string<char,_STL::char_traits<char>,_STL::allocator<char> > const ,int> >,_STL::less<_STL::basic_string<char,_STL::char_traits<char>,_STL::allocator<char> > >,_STL::allocator<_STL::pair<_STL::basic_string<char,_STL::char_traits<char>,_STL::allocator<char> > const ,int> > >::insert_unique
; Function compile flags: /Ogty
;	COMDAT ?insert_unique@?$_Rb_tree@V?$basic_string@DV?$char_traits@D@_STL@@V?$allocator@D@2@@_STL@@U?$pair@$$CBV?$basic_string@DV?$char_traits@D@_STL@@V?$allocator@D@2@@_STL@@H@2@U?$_Select1st@U?$pair@$$CBV?$basic_string@DV?$char_traits@D@_STL@@V?$allocator@D@2@@_STL@@H@_STL@@@2@U?$less@V?$basic_string@DV?$char_traits@D@_STL@@V?$allocator@D@2@@_STL@@@2@V?$allocator@U?$pair@$$CBV?$basic_string@DV?$char_traits@D@_STL@@V?$allocator@D@2@@_STL@@H@_STL@@@2@@_STL@@QAE?AU?$pair@U?$_Rb_tree_iterator@U?$pair@$$CBV?$basic_string@DV?$char_traits@D@_STL@@V?$allocator@D@2@@_STL@@H@_STL@@U?$_Nonconst_traits@U?$pair@$$CBV?$basic_string@DV?$char_traits@D@_STL@@V?$allocator@D@2@@_STL@@H@_STL@@@2@@_STL@@_N@2@ABU?$pair@$$CBV?$basic_string@DV?$char_traits@D@_STL@@V?$allocator@D@2@@_STL@@H@2@@Z
_TEXT	SEGMENT
___n1$82072 = -16					; size = 4
$T81988 = -12						; size = 4
___n2$82073 = -8					; size = 4
_this$ = -4						; size = 4
___$ReturnUdt$ = 8					; size = 4
$T81948 = 12						; size = 4
$T81945 = 12						; size = 4
___v$ = 12						; size = 4
?insert_unique@?$_Rb_tree@V?$basic_string@DV?$char_traits@D@_STL@@V?$allocator@D@2@@_STL@@U?$pair@$$CBV?$basic_string@DV?$char_traits@D@_STL@@V?$allocator@D@2@@_STL@@H@2@U?$_Select1st@U?$pair@$$CBV?$basic_string@DV?$char_traits@D@_STL@@V?$allocator@D@2@@_STL@@H@_STL@@@2@U?$less@V?$basic_string@DV?$char_traits@D@_STL@@V?$allocator@D@2@@_STL@@@2@V?$allocator@U?$pair@$$CBV?$basic_string@DV?$char_traits@D@_STL@@V?$allocator@D@2@@_STL@@H@_STL@@@2@@_STL@@QAE?AU?$pair@U?$_Rb_tree_iterator@U?$pair@$$CBV?$basic_string@DV?$char_traits@D@_STL@@V?$allocator@D@2@@_STL@@H@_STL@@U?$_Nonconst_traits@U?$pair@$$CBV?$basic_string@DV?$char_traits@D@_STL@@V?$allocator@D@2@@_STL@@H@_STL@@@2@@_STL@@_N@2@ABU?$pair@$$CBV?$basic_string@DV?$char_traits@D@_STL@@V?$allocator@D@2@@_STL@@H@2@@Z PROC NEAR ; _STL::_Rb_tree<_STL::basic_string<char,_STL::char_traits<char>,_STL::allocator<char> >,_STL::pair<_STL::basic_string<char,_STL::char_traits<char>,_STL::allocator<char> > const ,int>,_STL::_Select1st<_STL::pair<_STL::basic_string<char,_STL::char_traits<char>,_STL::allocator<char> > const ,int> >,_STL::less<_STL::basic_string<char,_STL::char_traits<char>,_STL::allocator<char> > >,_STL::allocator<_STL::pair<_STL::basic_string<char,_STL::char_traits<char>,_STL::allocator<char> > const ,int> > >::insert_unique, COMDAT
; _this$ = ecx

; 401  : {

  00000	83 ec 10	 sub	 esp, 16			; 00000010H
  00003	53		 push	 ebx
  00004	55		 push	 ebp
  00005	56		 push	 esi
  00006	8b f1		 mov	 esi, ecx

; 402  :   _Link_type __y = this->_M_header._M_data;

  00008	8b 1e		 mov	 ebx, DWORD PTR [esi]

; 403  :   _Link_type __x = _M_root();

  0000a	8b 6b 04	 mov	 ebp, DWORD PTR [ebx+4]

; 404  :   bool __comp = true;
; 405  :   while (__x != 0) {

  0000d	85 ed		 test	 ebp, ebp
  0000f	57		 push	 edi
  00010	89 74 24 1c	 mov	 DWORD PTR _this$[esp+32], esi
  00014	b0 01		 mov	 al, 1
  00016	74 75		 je	 SHORT $L77389

; 406  :     __y = __x;
; 407  :     __comp = _M_key_compare(_KeyOfValue()(__v), _S_key(__x));

  00018	8b 44 24 28	 mov	 eax, DWORD PTR ___v$[esp+28]
  0001c	8b 30		 mov	 esi, DWORD PTR [eax]
  0001e	8b 48 04	 mov	 ecx, DWORD PTR [eax+4]
  00021	2b ce		 sub	 ecx, esi
  00023	89 74 24 14	 mov	 DWORD PTR $T81988[esp+32], esi
  00027	89 4c 24 10	 mov	 DWORD PTR ___n1$82072[esp+32], ecx
  0002b	eb 08		 jmp	 SHORT $L77388
$L82157:
  0002d	8b 74 24 14	 mov	 esi, DWORD PTR $T81988[esp+32]
  00031	8b 4c 24 10	 mov	 ecx, DWORD PTR ___n1$82072[esp+32]
$L77388:
  00035	8b 7d 10	 mov	 edi, DWORD PTR [ebp+16]
  00038	8b 45 14	 mov	 eax, DWORD PTR [ebp+20]
  0003b	2b c7		 sub	 eax, edi
  0003d	3b c1		 cmp	 eax, ecx
  0003f	8b dd		 mov	 ebx, ebp
  00041	89 44 24 18	 mov	 DWORD PTR ___n2$82073[esp+32], eax
  00045	8d 4c 24 18	 lea	 ecx, DWORD PTR ___n2$82073[esp+32]
  00049	7c 04		 jl	 SHORT $L82067
  0004b	8d 4c 24 10	 lea	 ecx, DWORD PTR ___n1$82072[esp+32]
$L82067:
  0004f	8b 09		 mov	 ecx, DWORD PTR [ecx]
  00051	33 d2		 xor	 edx, edx
  00053	f3 a6		 repe cmpsb
  00055	74 05		 je	 SHORT $L82158
  00057	1b d2		 sbb	 edx, edx
  00059	83 da ff	 sbb	 edx, -1
$L82158:
  0005c	85 d2		 test	 edx, edx
  0005e	75 16		 jne	 SHORT $L82159
  00060	8b 74 24 10	 mov	 esi, DWORD PTR ___n1$82072[esp+32]
  00064	3b f0		 cmp	 esi, eax
  00066	7d 05		 jge	 SHORT $L82060
  00068	83 ca ff	 or	 edx, -1
  0006b	eb 07		 jmp	 SHORT $L82061
$L82060:
  0006d	33 d2		 xor	 edx, edx
  0006f	3b f0		 cmp	 esi, eax
  00071	0f 9f c2	 setg	 dl
$L82061:
  00074	85 d2		 test	 edx, edx
$L82159:
  00076	0f 9c c0	 setl	 al

; 408  :     __x = __comp ? _S_left(__x) : _S_right(__x);

  00079	84 c0		 test	 al, al
  0007b	74 05		 je	 SHORT $L81941
  0007d	8b 6d 08	 mov	 ebp, DWORD PTR [ebp+8]
  00080	eb 03		 jmp	 SHORT $L81942
$L81941:
  00082	8b 6d 0c	 mov	 ebp, DWORD PTR [ebp+12]
$L81942:

; 404  :   bool __comp = true;
; 405  :   while (__x != 0) {

  00085	85 ed		 test	 ebp, ebp
  00087	75 a4		 jne	 SHORT $L82157
  00089	8b 74 24 1c	 mov	 esi, DWORD PTR _this$[esp+32]
$L77389:

; 409  :   }
; 410  :   iterator __j = iterator(__y);   
; 411  :   if (__comp)

  0008d	84 c0		 test	 al, al
  0008f	8b fb		 mov	 edi, ebx
  00091	74 3d		 je	 SHORT $L82115

; 412  :     if (__j == begin())     

  00093	8b 06		 mov	 eax, DWORD PTR [esi]
  00095	3b 58 08	 cmp	 ebx, DWORD PTR [eax+8]
  00098	75 2b		 jne	 SHORT $L77395

; 413  :       return pair<iterator,bool>(_M_insert(/* __x*/ __y, __y, __v), true);

  0009a	8b 44 24 28	 mov	 eax, DWORD PTR ___v$[esp+28]
  0009e	6a 00		 push	 0
  000a0	50		 push	 eax
  000a1	53		 push	 ebx
  000a2	53		 push	 ebx
  000a3	8d 4c 24 38	 lea	 ecx, DWORD PTR $T81945[esp+44]
  000a7	51		 push	 ecx
  000a8	8b ce		 mov	 ecx, esi
  000aa	e8 00 00 00 00	 call	 ?_M_insert@?$_Rb_tree@V?$basic_string@DV?$char_traits@D@_STL@@V?$allocator@D@2@@_STL@@U?$pair@$$CBV?$basic_string@DV?$char_traits@D@_STL@@V?$allocator@D@2@@_STL@@H@2@U?$_Select1st@U?$pair@$$CBV?$basic_string@DV?$char_traits@D@_STL@@V?$allocator@D@2@@_STL@@H@_STL@@@2@U?$less@V?$basic_string@DV?$char_traits@D@_STL@@V?$allocator@D@2@@_STL@@@2@V?$allocator@U?$pair@$$CBV?$basic_string@DV?$char_traits@D@_STL@@V?$allocator@D@2@@_STL@@H@_STL@@@2@@_STL@@AAE?AU?$_Rb_tree_iterator@U?$pair@$$CBV?$basic_string@DV?$char_traits@D@_STL@@V?$allocator@D@2@@_STL@@H@_STL@@U?$_Nonconst_traits@U?$pair@$$CBV?$basic_string@DV?$char_traits@D@_STL@@V?$allocator@D@2@@_STL@@H@_STL@@@2@@2@PAU_Rb_tree_node_base@2@0ABU?$pair@$$CBV?$basic_string@DV?$char_traits@D@_STL@@V?$allocator@D@2@@_STL@@H@2@0@Z ; _STL::_Rb_tree<_STL::basic_string<char,_STL::char_traits<char>,_STL::allocator<char> >,_STL::pair<_STL::basic_string<char,_STL::char_traits<char>,_STL::allocator<char> > const ,int>,_STL::_Select1st<_STL::pair<_STL::basic_string<char,_STL::char_traits<char>,_STL::allocator<char> > const ,int> >,_STL::less<_STL::basic_string<char,_STL::char_traits<char>,_STL::allocator<char> > >,_STL::allocator<_STL::pair<_STL::basic_string<char,_STL::char_traits<char>,_STL::allocator<char> > const ,int> > >::_M_insert
  000af	8b 10		 mov	 edx, DWORD PTR [eax]
  000b1	8b 44 24 24	 mov	 eax, DWORD PTR ___$ReturnUdt$[esp+28]
  000b5	5f		 pop	 edi
  000b6	5e		 pop	 esi
  000b7	5d		 pop	 ebp
  000b8	89 10		 mov	 DWORD PTR [eax], edx
  000ba	c6 40 04 01	 mov	 BYTE PTR [eax+4], 1
  000be	5b		 pop	 ebx

; 419  : }

  000bf	83 c4 10	 add	 esp, 16			; 00000010H
  000c2	c2 08 00	 ret	 8
$L77395:

; 414  :     else
; 415  :       --__j;

  000c5	53		 push	 ebx
  000c6	e8 00 00 00 00	 call	 ?_M_decrement@?$_Rb_global@_N@_STL@@SAPAU_Rb_tree_node_base@2@PAU32@@Z ; _STL::_Rb_global<bool>::_M_decrement
  000cb	83 c4 04	 add	 esp, 4
  000ce	8b f8		 mov	 edi, eax
$L82115:

; 416  :   if (_M_key_compare(_S_key(__j._M_node), _KeyOfValue()(__v)))

  000d0	8b 44 24 28	 mov	 eax, DWORD PTR ___v$[esp+28]
  000d4	50		 push	 eax
  000d5	8d 4f 10	 lea	 ecx, DWORD PTR [edi+16]
  000d8	51		 push	 ecx
  000d9	e8 00 00 00 00	 call	 ??$?MDV?$char_traits@D@_STL@@V?$allocator@D@1@@_STL@@YA_NABV?$basic_string@DV?$char_traits@D@_STL@@V?$allocator@D@2@@0@0@Z ; _STL::operator<<char,_STL::char_traits<char>,_STL::allocator<char> >
  000de	83 c4 08	 add	 esp, 8
  000e1	84 c0		 test	 al, al
  000e3	74 2b		 je	 SHORT $L77405

; 417  :     return pair<iterator,bool>(_M_insert(__x, __y, __v), true);

  000e5	8b 54 24 28	 mov	 edx, DWORD PTR ___v$[esp+28]
  000e9	6a 00		 push	 0
  000eb	52		 push	 edx
  000ec	53		 push	 ebx
  000ed	55		 push	 ebp
  000ee	8d 44 24 38	 lea	 eax, DWORD PTR $T81948[esp+44]
  000f2	50		 push	 eax
  000f3	8b ce		 mov	 ecx, esi
  000f5	e8 00 00 00 00	 call	 ?_M_insert@?$_Rb_tree@V?$basic_string@DV?$char_traits@D@_STL@@V?$allocator@D@2@@_STL@@U?$pair@$$CBV?$basic_string@DV?$char_traits@D@_STL@@V?$allocator@D@2@@_STL@@H@2@U?$_Select1st@U?$pair@$$CBV?$basic_string@DV?$char_traits@D@_STL@@V?$allocator@D@2@@_STL@@H@_STL@@@2@U?$less@V?$basic_string@DV?$char_traits@D@_STL@@V?$allocator@D@2@@_STL@@@2@V?$allocator@U?$pair@$$CBV?$basic_string@DV?$char_traits@D@_STL@@V?$allocator@D@2@@_STL@@H@_STL@@@2@@_STL@@AAE?AU?$_Rb_tree_iterator@U?$pair@$$CBV?$basic_string@DV?$char_traits@D@_STL@@V?$allocator@D@2@@_STL@@H@_STL@@U?$_Nonconst_traits@U?$pair@$$CBV?$basic_string@DV?$char_traits@D@_STL@@V?$allocator@D@2@@_STL@@H@_STL@@@2@@2@PAU_Rb_tree_node_base@2@0ABU?$pair@$$CBV?$basic_string@DV?$char_traits@D@_STL@@V?$allocator@D@2@@_STL@@H@2@0@Z ; _STL::_Rb_tree<_STL::basic_string<char,_STL::char_traits<char>,_STL::allocator<char> >,_STL::pair<_STL::basic_string<char,_STL::char_traits<char>,_STL::allocator<char> > const ,int>,_STL::_Select1st<_STL::pair<_STL::basic_string<char,_STL::char_traits<char>,_STL::allocator<char> > const ,int> >,_STL::less<_STL::basic_string<char,_STL::char_traits<char>,_STL::allocator<char> > >,_STL::allocator<_STL::pair<_STL::basic_string<char,_STL::char_traits<char>,_STL::allocator<char> > const ,int> > >::_M_insert
  000fa	8b 08		 mov	 ecx, DWORD PTR [eax]
  000fc	8b 44 24 24	 mov	 eax, DWORD PTR ___$ReturnUdt$[esp+28]
  00100	5f		 pop	 edi
  00101	5e		 pop	 esi
  00102	5d		 pop	 ebp
  00103	89 08		 mov	 DWORD PTR [eax], ecx
  00105	c6 40 04 01	 mov	 BYTE PTR [eax+4], 1
  00109	5b		 pop	 ebx

; 419  : }

  0010a	83 c4 10	 add	 esp, 16			; 00000010H
  0010d	c2 08 00	 ret	 8
$L77405:

; 418  :   return pair<iterator,bool>(__j, false);

  00110	8b 44 24 24	 mov	 eax, DWORD PTR ___$ReturnUdt$[esp+28]
  00114	89 38		 mov	 DWORD PTR [eax], edi
  00116	5f		 pop	 edi
  00117	5e		 pop	 esi
  00118	5d		 pop	 ebp
  00119	c6 40 04 00	 mov	 BYTE PTR [eax+4], 0
  0011d	5b		 pop	 ebx

; 419  : }

  0011e	83 c4 10	 add	 esp, 16			; 00000010H
  00121	c2 08 00	 ret	 8
?insert_unique@?$_Rb_tree@V?$basic_string@DV?$char_traits@D@_STL@@V?$allocator@D@2@@_STL@@U?$pair@$$CBV?$basic_string@DV?$char_traits@D@_STL@@V?$allocator@D@2@@_STL@@H@2@U?$_Select1st@U?$pair@$$CBV?$basic_string@DV?$char_traits@D@_STL@@V?$allocator@D@2@@_STL@@H@_STL@@@2@U?$less@V?$basic_string@DV?$char_traits@D@_STL@@V?$allocator@D@2@@_STL@@@2@V?$allocator@U?$pair@$$CBV?$basic_string@DV?$char_traits@D@_STL@@V?$allocator@D@2@@_STL@@H@_STL@@@2@@_STL@@QAE?AU?$pair@U?$_Rb_tree_iterator@U?$pair@$$CBV?$basic_string@DV?$char_traits@D@_STL@@V?$allocator@D@2@@_STL@@H@_STL@@U?$_Nonconst_traits@U?$pair@$$CBV?$basic_string@DV?$char_traits@D@_STL@@V?$allocator@D@2@@_STL@@H@_STL@@@2@@_STL@@_N@2@ABU?$pair@$$CBV?$basic_string@DV?$char_traits@D@_STL@@V?$allocator@D@2@@_STL@@H@2@@Z ENDP ; _STL::_Rb_tree<_STL::basic_string<char,_STL::char_traits<char>,_STL::allocator<char> >,_STL::pair<_STL::basic_string<char,_STL::char_traits<char>,_STL::allocator<char> > const ,int>,_STL::_Select1st<_STL::pair<_STL::basic_string<char,_STL::char_traits<char>,_STL::allocator<char> > const ,int> >,_STL::less<_STL::basic_string<char,_STL::char_traits<char>,_STL::allocator<char> > >,_STL::allocator<_STL::pair<_STL::basic_string<char,_STL::char_traits<char>,_STL::allocator<char> > const ,int> > >::insert_unique
_TEXT	ENDS
PUBLIC	??1?$map@V?$basic_string@DV?$char_traits@D@_STL@@V?$allocator@D@2@@_STL@@HU?$less@V?$basic_string@DV?$char_traits@D@_STL@@V?$allocator@D@2@@_STL@@@2@V?$allocator@U?$pair@$$CBV?$basic_string@DV?$char_traits@D@_STL@@V?$allocator@D@2@@_STL@@H@_STL@@@2@@_STL@@QAE@XZ ; _STL::map<_STL::basic_string<char,_STL::char_traits<char>,_STL::allocator<char> >,int,_STL::less<_STL::basic_string<char,_STL::char_traits<char>,_STL::allocator<char> > >,_STL::allocator<_STL::pair<_STL::basic_string<char,_STL::char_traits<char>,_STL::allocator<char> > const ,int> > >::~map<_STL::basic_string<char,_STL::char_traits<char>,_STL::allocator<char> >,int,_STL::less<_STL::basic_string<char,_STL::char_traits<char>,_STL::allocator<char> > >,_STL::allocator<_STL::pair<_STL::basic_string<char,_STL::char_traits<char>,_STL::allocator<char> > const ,int> > >
; Function compile flags: /Ogty
;	COMDAT ??1?$map@V?$basic_string@DV?$char_traits@D@_STL@@V?$allocator@D@2@@_STL@@HU?$less@V?$basic_string@DV?$char_traits@D@_STL@@V?$allocator@D@2@@_STL@@@2@V?$allocator@U?$pair@$$CBV?$basic_string@DV?$char_traits@D@_STL@@V?$allocator@D@2@@_STL@@H@_STL@@@2@@_STL@@QAE@XZ
_TEXT	SEGMENT
??1?$map@V?$basic_string@DV?$char_traits@D@_STL@@V?$allocator@D@2@@_STL@@HU?$less@V?$basic_string@DV?$char_traits@D@_STL@@V?$allocator@D@2@@_STL@@@2@V?$allocator@U?$pair@$$CBV?$basic_string@DV?$char_traits@D@_STL@@V?$allocator@D@2@@_STL@@H@_STL@@@2@@_STL@@QAE@XZ PROC NEAR ; _STL::map<_STL::basic_string<char,_STL::char_traits<char>,_STL::allocator<char> >,int,_STL::less<_STL::basic_string<char,_STL::char_traits<char>,_STL::allocator<char> > >,_STL::allocator<_STL::pair<_STL::basic_string<char,_STL::char_traits<char>,_STL::allocator<char> > const ,int> > >::~map<_STL::basic_string<char,_STL::char_traits<char>,_STL::allocator<char> >,int,_STL::less<_STL::basic_string<char,_STL::char_traits<char>,_STL::allocator<char> > >,_STL::allocator<_STL::pair<_STL::basic_string<char,_STL::char_traits<char>,_STL::allocator<char> > const ,int> > >, COMDAT
; _this$ = ecx
  00000	e9 00 00 00 00	 jmp	 ??1?$_Rb_tree@V?$basic_string@DV?$char_traits@D@_STL@@V?$allocator@D@2@@_STL@@U?$pair@$$CBV?$basic_string@DV?$char_traits@D@_STL@@V?$allocator@D@2@@_STL@@H@2@U?$_Select1st@U?$pair@$$CBV?$basic_string@DV?$char_traits@D@_STL@@V?$allocator@D@2@@_STL@@H@_STL@@@2@U?$less@V?$basic_string@DV?$char_traits@D@_STL@@V?$allocator@D@2@@_STL@@@2@V?$allocator@U?$pair@$$CBV?$basic_string@DV?$char_traits@D@_STL@@V?$allocator@D@2@@_STL@@H@_STL@@@2@@_STL@@QAE@XZ ; _STL::_Rb_tree<_STL::basic_string<char,_STL::char_traits<char>,_STL::allocator<char> >,_STL::pair<_STL::basic_string<char,_STL::char_traits<char>,_STL::allocator<char> > const ,int>,_STL::_Select1st<_STL::pair<_STL::basic_string<char,_STL::char_traits<char>,_STL::allocator<char> > const ,int> >,_STL::less<_STL::basic_string<char,_STL::char_traits<char>,_STL::allocator<char> > >,_STL::allocator<_STL::pair<_STL::basic_string<char,_STL::char_traits<char>,_STL::allocator<char> > const ,int> > >::~_Rb_tree<_STL::basic_string<char,_STL::char_traits<char>,_STL::allocator<char> >,_STL::pair<_STL::basic_string<char,_STL::char_traits<char>,_STL::allocator<char> > const ,int>,_STL::_Select1st<_STL::pair<_STL::basic_string<char,_STL::char_traits<char>,_STL::allocator<char> > const ,int> >,_STL::less<_STL::basic_string<char,_STL::char_traits<char>,_STL::allocator<char> > >,_STL::allocator<_STL::pair<_STL::basic_string<char,_STL::char_traits<char>,_STL::allocator<char> > const ,int> > >
??1?$map@V?$basic_string@DV?$char_traits@D@_STL@@V?$allocator@D@2@@_STL@@HU?$less@V?$basic_string@DV?$char_traits@D@_STL@@V?$allocator@D@2@@_STL@@@2@V?$allocator@U?$pair@$$CBV?$basic_string@DV?$char_traits@D@_STL@@V?$allocator@D@2@@_STL@@H@_STL@@@2@@_STL@@QAE@XZ ENDP ; _STL::map<_STL::basic_string<char,_STL::char_traits<char>,_STL::allocator<char> >,int,_STL::less<_STL::basic_string<char,_STL::char_traits<char>,_STL::allocator<char> > >,_STL::allocator<_STL::pair<_STL::basic_string<char,_STL::char_traits<char>,_STL::allocator<char> > const ,int> > >::~map<_STL::basic_string<char,_STL::char_traits<char>,_STL::allocator<char> >,int,_STL::less<_STL::basic_string<char,_STL::char_traits<char>,_STL::allocator<char> > >,_STL::allocator<_STL::pair<_STL::basic_string<char,_STL::char_traits<char>,_STL::allocator<char> > const ,int> > >
_TEXT	ENDS
PUBLIC	??0?$map@V?$basic_string@DV?$char_traits@D@_STL@@V?$allocator@D@2@@_STL@@HU?$less@V?$basic_string@DV?$char_traits@D@_STL@@V?$allocator@D@2@@_STL@@@2@V?$allocator@U?$pair@$$CBV?$basic_string@DV?$char_traits@D@_STL@@V?$allocator@D@2@@_STL@@H@_STL@@@2@@_STL@@QAE@XZ ; _STL::map<_STL::basic_string<char,_STL::char_traits<char>,_STL::allocator<char> >,int,_STL::less<_STL::basic_string<char,_STL::char_traits<char>,_STL::allocator<char> > >,_STL::allocator<_STL::pair<_STL::basic_string<char,_STL::char_traits<char>,_STL::allocator<char> > const ,int> > >::map<_STL::basic_string<char,_STL::char_traits<char>,_STL::allocator<char> >,int,_STL::less<_STL::basic_string<char,_STL::char_traits<char>,_STL::allocator<char> > >,_STL::allocator<_STL::pair<_STL::basic_string<char,_STL::char_traits<char>,_STL::allocator<char> > const ,int> > >
; Function compile flags: /Ogty
; File c:\stlport-4.6.1\stlport\stl\_map.h
;	COMDAT ??0?$map@V?$basic_string@DV?$char_traits@D@_STL@@V?$allocator@D@2@@_STL@@HU?$less@V?$basic_string@DV?$char_traits@D@_STL@@V?$allocator@D@2@@_STL@@@2@V?$allocator@U?$pair@$$CBV?$basic_string@DV?$char_traits@D@_STL@@V?$allocator@D@2@@_STL@@H@_STL@@@2@@_STL@@QAE@XZ
_TEXT	SEGMENT
??0?$map@V?$basic_string@DV?$char_traits@D@_STL@@V?$allocator@D@2@@_STL@@HU?$less@V?$basic_string@DV?$char_traits@D@_STL@@V?$allocator@D@2@@_STL@@@2@V?$allocator@U?$pair@$$CBV?$basic_string@DV?$char_traits@D@_STL@@V?$allocator@D@2@@_STL@@H@_STL@@@2@@_STL@@QAE@XZ PROC NEAR ; _STL::map<_STL::basic_string<char,_STL::char_traits<char>,_STL::allocator<char> >,int,_STL::less<_STL::basic_string<char,_STL::char_traits<char>,_STL::allocator<char> > >,_STL::allocator<_STL::pair<_STL::basic_string<char,_STL::char_traits<char>,_STL::allocator<char> > const ,int> > >::map<_STL::basic_string<char,_STL::char_traits<char>,_STL::allocator<char> >,int,_STL::less<_STL::basic_string<char,_STL::char_traits<char>,_STL::allocator<char> > >,_STL::allocator<_STL::pair<_STL::basic_string<char,_STL::char_traits<char>,_STL::allocator<char> > const ,int> > >, COMDAT
; _this$ = ecx

; 91   :   map() : _M_t(_Compare(), allocator_type()) {}

  00000	56		 push	 esi
  00001	8b f1		 mov	 esi, ecx
  00003	6a 20		 push	 32			; 00000020H
  00005	c7 06 00 00 00
	00		 mov	 DWORD PTR [esi], 0
  0000b	e8 00 00 00 00	 call	 ?_M_allocate@?$__node_alloc@$00$0A@@_STL@@CAPAXI@Z ; _STL::__node_alloc<1,0>::_M_allocate
  00010	89 06		 mov	 DWORD PTR [esi], eax
  00012	c7 46 04 00 00
	00 00		 mov	 DWORD PTR [esi+4], 0
  00019	c6 00 00	 mov	 BYTE PTR [eax], 0
  0001c	8b 06		 mov	 eax, DWORD PTR [esi]
  0001e	c7 40 04 00 00
	00 00		 mov	 DWORD PTR [eax+4], 0
  00025	8b 06		 mov	 eax, DWORD PTR [esi]
  00027	89 40 08	 mov	 DWORD PTR [eax+8], eax
  0002a	8b 06		 mov	 eax, DWORD PTR [esi]
  0002c	83 c4 04	 add	 esp, 4
  0002f	89 40 0c	 mov	 DWORD PTR [eax+12], eax
  00032	8b c6		 mov	 eax, esi
  00034	5e		 pop	 esi
  00035	c3		 ret	 0
??0?$map@V?$basic_string@DV?$char_traits@D@_STL@@V?$allocator@D@2@@_STL@@HU?$less@V?$basic_string@DV?$char_traits@D@_STL@@V?$allocator@D@2@@_STL@@@2@V?$allocator@U?$pair@$$CBV?$basic_string@DV?$char_traits@D@_STL@@V?$allocator@D@2@@_STL@@H@_STL@@@2@@_STL@@QAE@XZ ENDP ; _STL::map<_STL::basic_string<char,_STL::char_traits<char>,_STL::allocator<char> >,int,_STL::less<_STL::basic_string<char,_STL::char_traits<char>,_STL::allocator<char> > >,_STL::allocator<_STL::pair<_STL::basic_string<char,_STL::char_traits<char>,_STL::allocator<char> > const ,int> > >::map<_STL::basic_string<char,_STL::char_traits<char>,_STL::allocator<char> >,int,_STL::less<_STL::basic_string<char,_STL::char_traits<char>,_STL::allocator<char> > >,_STL::allocator<_STL::pair<_STL::basic_string<char,_STL::char_traits<char>,_STL::allocator<char> > const ,int> > >
_TEXT	ENDS
PUBLIC	?insert_unique@?$_Rb_tree@V?$basic_string@DV?$char_traits@D@_STL@@V?$allocator@D@2@@_STL@@U?$pair@$$CBV?$basic_string@DV?$char_traits@D@_STL@@V?$allocator@D@2@@_STL@@H@2@U?$_Select1st@U?$pair@$$CBV?$basic_string@DV?$char_traits@D@_STL@@V?$allocator@D@2@@_STL@@H@_STL@@@2@U?$less@V?$basic_string@DV?$char_traits@D@_STL@@V?$allocator@D@2@@_STL@@@2@V?$allocator@U?$pair@$$CBV?$basic_string@DV?$char_traits@D@_STL@@V?$allocator@D@2@@_STL@@H@_STL@@@2@@_STL@@QAE?AU?$_Rb_tree_iterator@U?$pair@$$CBV?$basic_string@DV?$char_traits@D@_STL@@V?$allocator@D@2@@_STL@@H@_STL@@U?$_Nonconst_traits@U?$pair@$$CBV?$basic_string@DV?$char_traits@D@_STL@@V?$allocator@D@2@@_STL@@H@_STL@@@2@@2@U32@ABU?$pair@$$CBV?$basic_string@DV?$char_traits@D@_STL@@V?$allocator@D@2@@_STL@@H@2@@Z ; _STL::_Rb_tree<_STL::basic_string<char,_STL::char_traits<char>,_STL::allocator<char> >,_STL::pair<_STL::basic_string<char,_STL::char_traits<char>,_STL::allocator<char> > const ,int>,_STL::_Select1st<_STL::pair<_STL::basic_string<char,_STL::char_traits<char>,_STL::allocator<char> > const ,int> >,_STL::less<_STL::basic_string<char,_STL::char_traits<char>,_STL::allocator<char> > >,_STL::allocator<_STL::pair<_STL::basic_string<char,_STL::char_traits<char>,_STL::allocator<char> > const ,int> > >::insert_unique
; Function compile flags: /Ogty
; File c:\stlport-4.6.1\stlport\stl\_tree.c
;	COMDAT ?insert_unique@?$_Rb_tree@V?$basic_string@DV?$char_traits@D@_STL@@V?$allocator@D@2@@_STL@@U?$pair@$$CBV?$basic_string@DV?$char_traits@D@_STL@@V?$allocator@D@2@@_STL@@H@2@U?$_Select1st@U?$pair@$$CBV?$basic_string@DV?$char_traits@D@_STL@@V?$allocator@D@2@@_STL@@H@_STL@@@2@U?$less@V?$basic_string@DV?$char_traits@D@_STL@@V?$allocator@D@2@@_STL@@@2@V?$allocator@U?$pair@$$CBV?$basic_string@DV?$char_traits@D@_STL@@V?$allocator@D@2@@_STL@@H@_STL@@@2@@_STL@@QAE?AU?$_Rb_tree_iterator@U?$pair@$$CBV?$basic_string@DV?$char_traits@D@_STL@@V?$allocator@D@2@@_STL@@H@_STL@@U?$_Nonconst_traits@U?$pair@$$CBV?$basic_string@DV?$char_traits@D@_STL@@V?$allocator@D@2@@_STL@@H@_STL@@@2@@2@U32@ABU?$pair@$$CBV?$basic_string@DV?$char_traits@D@_STL@@V?$allocator@D@2@@_STL@@H@2@@Z
_TEXT	SEGMENT
$T82296 = -8						; size = 8
$T82285 = -8						; size = 8
___$ReturnUdt$ = 8					; size = 4
___comp_pos_v$77018 = 12				; size = 1
___position$ = 12					; size = 4
___comp_v_pos$77008 = 16				; size = 1
___v$ = 16						; size = 4
?insert_unique@?$_Rb_tree@V?$basic_string@DV?$char_traits@D@_STL@@V?$allocator@D@2@@_STL@@U?$pair@$$CBV?$basic_string@DV?$char_traits@D@_STL@@V?$allocator@D@2@@_STL@@H@2@U?$_Select1st@U?$pair@$$CBV?$basic_string@DV?$char_traits@D@_STL@@V?$allocator@D@2@@_STL@@H@_STL@@@2@U?$less@V?$basic_string@DV?$char_traits@D@_STL@@V?$allocator@D@2@@_STL@@@2@V?$allocator@U?$pair@$$CBV?$basic_string@DV?$char_traits@D@_STL@@V?$allocator@D@2@@_STL@@H@_STL@@@2@@_STL@@QAE?AU?$_Rb_tree_iterator@U?$pair@$$CBV?$basic_string@DV?$char_traits@D@_STL@@V?$allocator@D@2@@_STL@@H@_STL@@U?$_Nonconst_traits@U?$pair@$$CBV?$basic_string@DV?$char_traits@D@_STL@@V?$allocator@D@2@@_STL@@H@_STL@@@2@@2@U32@ABU?$pair@$$CBV?$basic_string@DV?$char_traits@D@_STL@@V?$allocator@D@2@@_STL@@H@2@@Z PROC NEAR ; _STL::_Rb_tree<_STL::basic_string<char,_STL::char_traits<char>,_STL::allocator<char> >,_STL::pair<_STL::basic_string<char,_STL::char_traits<char>,_STL::allocator<char> > const ,int>,_STL::_Select1st<_STL::pair<_STL::basic_string<char,_STL::char_traits<char>,_STL::allocator<char> > const ,int> >,_STL::less<_STL::basic_string<char,_STL::char_traits<char>,_STL::allocator<char> > >,_STL::allocator<_STL::pair<_STL::basic_string<char,_STL::char_traits<char>,_STL::allocator<char> > const ,int> > >::insert_unique, COMDAT
; _this$ = ecx

; 426  : {

  00000	83 ec 08	 sub	 esp, 8
  00003	53		 push	 ebx
  00004	55		 push	 ebp
  00005	56		 push	 esi

; 427  :   if (__position._M_node == this->_M_header._M_data->_M_left) { // begin()

  00006	8b 74 24 1c	 mov	 esi, DWORD PTR ___position$[esp+16]
  0000a	57		 push	 edi
  0000b	8b f9		 mov	 edi, ecx
  0000d	8b 07		 mov	 eax, DWORD PTR [edi]
  0000f	3b 70 08	 cmp	 esi, DWORD PTR [eax+8]
  00012	0f 85 f8 00 00
	00		 jne	 $L76961

; 428  : 
; 429  :     // if the container is empty, fall back on insert_unique.
; 430  :     if (size() <= 0)

  00018	8b 47 04	 mov	 eax, DWORD PTR [edi+4]
  0001b	85 c0		 test	 eax, eax
  0001d	77 23		 ja	 SHORT $L76962

; 431  :       return insert_unique(__v).first;

  0001f	8b 44 24 24	 mov	 eax, DWORD PTR ___v$[esp+20]
  00023	50		 push	 eax
$L82520:
  00024	8d 4c 24 14	 lea	 ecx, DWORD PTR $T82285[esp+28]
  00028	51		 push	 ecx
  00029	8b cf		 mov	 ecx, edi
  0002b	e8 00 00 00 00	 call	 ?insert_unique@?$_Rb_tree@V?$basic_string@DV?$char_traits@D@_STL@@V?$allocator@D@2@@_STL@@U?$pair@$$CBV?$basic_string@DV?$char_traits@D@_STL@@V?$allocator@D@2@@_STL@@H@2@U?$_Select1st@U?$pair@$$CBV?$basic_string@DV?$char_traits@D@_STL@@V?$allocator@D@2@@_STL@@H@_STL@@@2@U?$less@V?$basic_string@DV?$char_traits@D@_STL@@V?$allocator@D@2@@_STL@@@2@V?$allocator@U?$pair@$$CBV?$basic_string@DV?$char_traits@D@_STL@@V?$allocator@D@2@@_STL@@H@_STL@@@2@@_STL@@QAE?AU?$pair@U?$_Rb_tree_iterator@U?$pair@$$CBV?$basic_string@DV?$char_traits@D@_STL@@V?$allocator@D@2@@_STL@@H@_STL@@U?$_Nonconst_traits@U?$pair@$$CBV?$basic_string@DV?$char_traits@D@_STL@@V?$allocator@D@2@@_STL@@H@_STL@@@2@@_STL@@_N@2@ABU?$pair@$$CBV?$basic_string@DV?$char_traits@D@_STL@@V?$allocator@D@2@@_STL@@H@2@@Z ; _STL::_Rb_tree<_STL::basic_string<char,_STL::char_traits<char>,_STL::allocator<char> >,_STL::pair<_STL::basic_string<char,_STL::char_traits<char>,_STL::allocator<char> > const ,int>,_STL::_Select1st<_STL::pair<_STL::basic_string<char,_STL::char_traits<char>,_STL::allocator<char> > const ,int> >,_STL::less<_STL::basic_string<char,_STL::char_traits<char>,_STL::allocator<char> > >,_STL::allocator<_STL::pair<_STL::basic_string<char,_STL::char_traits<char>,_STL::allocator<char> > const ,int> > >::insert_unique
  00030	8b 10		 mov	 edx, DWORD PTR [eax]
  00032	8b 44 24 1c	 mov	 eax, DWORD PTR ___$ReturnUdt$[esp+20]
  00036	5f		 pop	 edi
  00037	5e		 pop	 esi
  00038	5d		 pop	 ebp
  00039	89 10		 mov	 DWORD PTR [eax], edx
  0003b	5b		 pop	 ebx

; 522  : 	}
; 523  :       }
; 524  :   }
; 525  : }

  0003c	83 c4 08	 add	 esp, 8
  0003f	c2 0c 00	 ret	 12			; 0000000cH
$L76962:

; 432  : 
; 433  :     if ( _M_key_compare(_KeyOfValue()(__v), _S_key(__position._M_node)))

  00042	8b 5c 24 24	 mov	 ebx, DWORD PTR ___v$[esp+20]
  00046	8d 6e 10	 lea	 ebp, DWORD PTR [esi+16]
  00049	55		 push	 ebp
  0004a	53		 push	 ebx
  0004b	e8 00 00 00 00	 call	 ??$?MDV?$char_traits@D@_STL@@V?$allocator@D@1@@_STL@@YA_NABV?$basic_string@DV?$char_traits@D@_STL@@V?$allocator@D@2@@0@0@Z ; _STL::operator<<char,_STL::char_traits<char>,_STL::allocator<char> >
  00050	83 c4 08	 add	 esp, 8
  00053	84 c0		 test	 al, al
  00055	74 1d		 je	 SHORT $L76982

; 434  :       return _M_insert(__position._M_node, __position._M_node, __v);

  00057	6a 00		 push	 0
  00059	53		 push	 ebx
  0005a	56		 push	 esi
  0005b	56		 push	 esi
  0005c	8b 74 24 2c	 mov	 esi, DWORD PTR ___$ReturnUdt$[esp+36]
  00060	56		 push	 esi
  00061	8b cf		 mov	 ecx, edi
  00063	e8 00 00 00 00	 call	 ?_M_insert@?$_Rb_tree@V?$basic_string@DV?$char_traits@D@_STL@@V?$allocator@D@2@@_STL@@U?$pair@$$CBV?$basic_string@DV?$char_traits@D@_STL@@V?$allocator@D@2@@_STL@@H@2@U?$_Select1st@U?$pair@$$CBV?$basic_string@DV?$char_traits@D@_STL@@V?$allocator@D@2@@_STL@@H@_STL@@@2@U?$less@V?$basic_string@DV?$char_traits@D@_STL@@V?$allocator@D@2@@_STL@@@2@V?$allocator@U?$pair@$$CBV?$basic_string@DV?$char_traits@D@_STL@@V?$allocator@D@2@@_STL@@H@_STL@@@2@@_STL@@AAE?AU?$_Rb_tree_iterator@U?$pair@$$CBV?$basic_string@DV?$char_traits@D@_STL@@V?$allocator@D@2@@_STL@@H@_STL@@U?$_Nonconst_traits@U?$pair@$$CBV?$basic_string@DV?$char_traits@D@_STL@@V?$allocator@D@2@@_STL@@H@_STL@@@2@@2@PAU_Rb_tree_node_base@2@0ABU?$pair@$$CBV?$basic_string@DV?$char_traits@D@_STL@@V?$allocator@D@2@@_STL@@H@2@0@Z ; _STL::_Rb_tree<_STL::basic_string<char,_STL::char_traits<char>,_STL::allocator<char> >,_STL::pair<_STL::basic_string<char,_STL::char_traits<char>,_STL::allocator<char> > const ,int>,_STL::_Select1st<_STL::pair<_STL::basic_string<char,_STL::char_traits<char>,_STL::allocator<char> > const ,int> >,_STL::less<_STL::basic_string<char,_STL::char_traits<char>,_STL::allocator<char> > >,_STL::allocator<_STL::pair<_STL::basic_string<char,_STL::char_traits<char>,_STL::allocator<char> > const ,int> > >::_M_insert
  00068	5f		 pop	 edi
  00069	8b c6		 mov	 eax, esi
  0006b	5e		 pop	 esi
  0006c	5d		 pop	 ebp
  0006d	5b		 pop	 ebx

; 522  : 	}
; 523  :       }
; 524  :   }
; 525  : }

  0006e	83 c4 08	 add	 esp, 8
  00071	c2 0c 00	 ret	 12			; 0000000cH
$L76982:

; 435  :     // first argument just needs to be non-null 
; 436  :     else
; 437  :       {
; 438  : 	bool __comp_pos_v = _M_key_compare( _S_key(__position._M_node), _KeyOfValue()(__v) );

  00074	53		 push	 ebx
  00075	55		 push	 ebp
  00076	e8 00 00 00 00	 call	 ??$?MDV?$char_traits@D@_STL@@V?$allocator@D@1@@_STL@@YA_NABV?$basic_string@DV?$char_traits@D@_STL@@V?$allocator@D@2@@0@0@Z ; _STL::operator<<char,_STL::char_traits<char>,_STL::allocator<char> >
  0007b	83 c4 08	 add	 esp, 8

; 439  : 	
; 440  : 	if (__comp_pos_v == false)  // compare > and compare < both false so compare equal

  0007e	84 c0		 test	 al, al
  00080	75 10		 jne	 SHORT $L76987
$L82518:

; 441  : 	  return __position;

  00082	8b 44 24 1c	 mov	 eax, DWORD PTR ___$ReturnUdt$[esp+20]
  00086	5f		 pop	 edi
  00087	89 30		 mov	 DWORD PTR [eax], esi
  00089	5e		 pop	 esi
  0008a	5d		 pop	 ebp
  0008b	5b		 pop	 ebx

; 522  : 	}
; 523  :       }
; 524  :   }
; 525  : }

  0008c	83 c4 08	 add	 esp, 8
  0008f	c2 0c 00	 ret	 12			; 0000000cH
$L76987:

; 442  : 	//Below __comp_pos_v == true
; 443  : 
; 444  : 	// Standard-conformance - does the insertion point fall immediately AFTER
; 445  : 	// the hint?
; 446  : 	iterator __after = __position;
; 447  : 	++__after;

  00092	56		 push	 esi
  00093	e8 00 00 00 00	 call	 ?_M_increment@?$_Rb_global@_N@_STL@@SAPAU_Rb_tree_node_base@2@PAU32@@Z ; _STL::_Rb_global<bool>::_M_increment
  00098	8b e8		 mov	 ebp, eax

; 448  : 
; 449  : 	// Check for only one member -- in that case, __position points to itself,
; 450  : 	// and attempting to increment will cause an infinite loop.
; 451  : 	if (__after._M_node == this->_M_header._M_data)

  0009a	8b 07		 mov	 eax, DWORD PTR [edi]
  0009c	83 c4 04	 add	 esp, 4
  0009f	3b e8		 cmp	 ebp, eax
  000a1	75 1d		 jne	 SHORT $L76989

; 452  : 	  // Check guarantees exactly one member, so comparison was already
; 453  : 	  // performed and we know the result; skip repeating it in _M_insert
; 454  : 	  // by specifying a non-zero fourth argument.
; 455  : 	  return _M_insert(0, __position._M_node, __v, __position._M_node);

  000a3	56		 push	 esi
  000a4	53		 push	 ebx
  000a5	56		 push	 esi
  000a6	8b 74 24 28	 mov	 esi, DWORD PTR ___$ReturnUdt$[esp+32]
  000aa	6a 00		 push	 0
  000ac	56		 push	 esi
  000ad	8b cf		 mov	 ecx, edi
  000af	e8 00 00 00 00	 call	 ?_M_insert@?$_Rb_tree@V?$basic_string@DV?$char_traits@D@_STL@@V?$allocator@D@2@@_STL@@U?$pair@$$CBV?$basic_string@DV?$char_traits@D@_STL@@V?$allocator@D@2@@_STL@@H@2@U?$_Select1st@U?$pair@$$CBV?$basic_string@DV?$char_traits@D@_STL@@V?$allocator@D@2@@_STL@@H@_STL@@@2@U?$less@V?$basic_string@DV?$char_traits@D@_STL@@V?$allocator@D@2@@_STL@@@2@V?$allocator@U?$pair@$$CBV?$basic_string@DV?$char_traits@D@_STL@@V?$allocator@D@2@@_STL@@H@_STL@@@2@@_STL@@AAE?AU?$_Rb_tree_iterator@U?$pair@$$CBV?$basic_string@DV?$char_traits@D@_STL@@V?$allocator@D@2@@_STL@@H@_STL@@U?$_Nonconst_traits@U?$pair@$$CBV?$basic_string@DV?$char_traits@D@_STL@@V?$allocator@D@2@@_STL@@H@_STL@@@2@@2@PAU_Rb_tree_node_base@2@0ABU?$pair@$$CBV?$basic_string@DV?$char_traits@D@_STL@@V?$allocator@D@2@@_STL@@H@2@0@Z ; _STL::_Rb_tree<_STL::basic_string<char,_STL::char_traits<char>,_STL::allocator<char> >,_STL::pair<_STL::basic_string<char,_STL::char_traits<char>,_STL::allocator<char> > const ,int>,_STL::_Select1st<_STL::pair<_STL::basic_string<char,_STL::char_traits<char>,_STL::allocator<char> > const ,int> >,_STL::less<_STL::basic_string<char,_STL::char_traits<char>,_STL::allocator<char> > >,_STL::allocator<_STL::pair<_STL::basic_string<char,_STL::char_traits<char>,_STL::allocator<char> > const ,int> > >::_M_insert
  000b4	5f		 pop	 edi
  000b5	8b c6		 mov	 eax, esi
  000b7	5e		 pop	 esi
  000b8	5d		 pop	 ebp
  000b9	5b		 pop	 ebx

; 522  : 	}
; 523  :       }
; 524  :   }
; 525  : }

  000ba	83 c4 08	 add	 esp, 8
  000bd	c2 0c 00	 ret	 12			; 0000000cH
$L76989:

; 456  : 		
; 457  : 	
; 458  : 	// All other cases:
; 459  : 	
; 460  : 	// Optimization to catch insert-equivalent -- save comparison results,
; 461  : 	// and we get this for free.
; 462  : 	if(_M_key_compare( _KeyOfValue()(__v), _S_key(__after._M_node) )) {

  000c0	8d 45 10	 lea	 eax, DWORD PTR [ebp+16]
  000c3	50		 push	 eax
  000c4	53		 push	 ebx
  000c5	8d 4f 08	 lea	 ecx, DWORD PTR [edi+8]
  000c8	e8 00 00 00 00	 call	 ??R?$less@V?$basic_string@DV?$char_traits@D@_STL@@V?$allocator@D@2@@_STL@@@_STL@@QBE_NABV?$basic_string@DV?$char_traits@D@_STL@@V?$allocator@D@2@@1@0@Z ; _STL::less<_STL::basic_string<char,_STL::char_traits<char>,_STL::allocator<char> > >::operator()
  000cd	84 c0		 test	 al, al
  000cf	74 78		 je	 SHORT $L77002

; 463  : 	  if (_S_right(__position._M_node) == 0)

  000d1	8b 46 0c	 mov	 eax, DWORD PTR [esi+12]
  000d4	85 c0		 test	 eax, eax

; 464  : 	    return _M_insert(0, __position._M_node, __v, __position._M_node);

  000d6	8b cf		 mov	 ecx, edi
  000d8	75 1b		 jne	 SHORT $L76993
  000da	56		 push	 esi
  000db	53		 push	 ebx
  000dc	56		 push	 esi
  000dd	8b 74 24 28	 mov	 esi, DWORD PTR ___$ReturnUdt$[esp+32]
  000e1	6a 00		 push	 0
  000e3	56		 push	 esi
  000e4	e8 00 00 00 00	 call	 ?_M_insert@?$_Rb_tree@V?$basic_string@DV?$char_traits@D@_STL@@V?$allocator@D@2@@_STL@@U?$pair@$$CBV?$basic_string@DV?$char_traits@D@_STL@@V?$allocator@D@2@@_STL@@H@2@U?$_Select1st@U?$pair@$$CBV?$basic_string@DV?$char_traits@D@_STL@@V?$allocator@D@2@@_STL@@H@_STL@@@2@U?$less@V?$basic_string@DV?$char_traits@D@_STL@@V?$allocator@D@2@@_STL@@@2@V?$allocator@U?$pair@$$CBV?$basic_string@DV?$char_traits@D@_STL@@V?$allocator@D@2@@_STL@@H@_STL@@@2@@_STL@@AAE?AU?$_Rb_tree_iterator@U?$pair@$$CBV?$basic_string@DV?$char_traits@D@_STL@@V?$allocator@D@2@@_STL@@H@_STL@@U?$_Nonconst_traits@U?$pair@$$CBV?$basic_string@DV?$char_traits@D@_STL@@V?$allocator@D@2@@_STL@@H@_STL@@@2@@2@PAU_Rb_tree_node_base@2@0ABU?$pair@$$CBV?$basic_string@DV?$char_traits@D@_STL@@V?$allocator@D@2@@_STL@@H@2@0@Z ; _STL::_Rb_tree<_STL::basic_string<char,_STL::char_traits<char>,_STL::allocator<char> >,_STL::pair<_STL::basic_string<char,_STL::char_traits<char>,_STL::allocator<char> > const ,int>,_STL::_Select1st<_STL::pair<_STL::basic_string<char,_STL::char_traits<char>,_STL::allocator<char> > const ,int> >,_STL::less<_STL::basic_string<char,_STL::char_traits<char>,_STL::allocator<char> > >,_STL::allocator<_STL::pair<_STL::basic_string<char,_STL::char_traits<char>,_STL::allocator<char> > const ,int> > >::_M_insert
  000e9	5f		 pop	 edi
  000ea	8b c6		 mov	 eax, esi
  000ec	5e		 pop	 esi
  000ed	5d		 pop	 ebp
  000ee	5b		 pop	 ebx

; 522  : 	}
; 523  :       }
; 524  :   }
; 525  : }

  000ef	83 c4 08	 add	 esp, 8
  000f2	c2 0c 00	 ret	 12			; 0000000cH
$L76993:

; 465  : 	  else
; 466  : 	    return _M_insert(__after._M_node, __after._M_node, __v);

  000f5	8b 74 24 1c	 mov	 esi, DWORD PTR ___$ReturnUdt$[esp+20]
  000f9	6a 00		 push	 0
  000fb	53		 push	 ebx
  000fc	55		 push	 ebp
  000fd	55		 push	 ebp
  000fe	56		 push	 esi
  000ff	e8 00 00 00 00	 call	 ?_M_insert@?$_Rb_tree@V?$basic_string@DV?$char_traits@D@_STL@@V?$allocator@D@2@@_STL@@U?$pair@$$CBV?$basic_string@DV?$char_traits@D@_STL@@V?$allocator@D@2@@_STL@@H@2@U?$_Select1st@U?$pair@$$CBV?$basic_string@DV?$char_traits@D@_STL@@V?$allocator@D@2@@_STL@@H@_STL@@@2@U?$less@V?$basic_string@DV?$char_traits@D@_STL@@V?$allocator@D@2@@_STL@@@2@V?$allocator@U?$pair@$$CBV?$basic_string@DV?$char_traits@D@_STL@@V?$allocator@D@2@@_STL@@H@_STL@@@2@@_STL@@AAE?AU?$_Rb_tree_iterator@U?$pair@$$CBV?$basic_string@DV?$char_traits@D@_STL@@V?$allocator@D@2@@_STL@@H@_STL@@U?$_Nonconst_traits@U?$pair@$$CBV?$basic_string@DV?$char_traits@D@_STL@@V?$allocator@D@2@@_STL@@H@_STL@@@2@@2@PAU_Rb_tree_node_base@2@0ABU?$pair@$$CBV?$basic_string@DV?$char_traits@D@_STL@@V?$allocator@D@2@@_STL@@H@2@0@Z ; _STL::_Rb_tree<_STL::basic_string<char,_STL::char_traits<char>,_STL::allocator<char> >,_STL::pair<_STL::basic_string<char,_STL::char_traits<char>,_STL::allocator<char> > const ,int>,_STL::_Select1st<_STL::pair<_STL::basic_string<char,_STL::char_traits<char>,_STL::allocator<char> > const ,int> >,_STL::less<_STL::basic_string<char,_STL::char_traits<char>,_STL::allocator<char> > >,_STL::allocator<_STL::pair<_STL::basic_string<char,_STL::char_traits<char>,_STL::allocator<char> > const ,int> > >::_M_insert
  00104	5f		 pop	 edi
  00105	8b c6		 mov	 eax, esi
  00107	5e		 pop	 esi
  00108	5d		 pop	 ebp
  00109	5b		 pop	 ebx

; 522  : 	}
; 523  :       }
; 524  :   }
; 525  : }

  0010a	83 c4 08	 add	 esp, 8
  0010d	c2 0c 00	 ret	 12			; 0000000cH
$L76961:

; 467  : 	} else {
; 468  : 	    return insert_unique(__v).first;
; 469  : 	}
; 470  :       }
; 471  : 
; 472  :   } else if (__position._M_node == this->_M_header._M_data) { // end()

  00110	3b f0		 cmp	 esi, eax
  00112	75 3b		 jne	 SHORT $L77000

; 473  :     if (_M_key_compare(_S_key(_M_rightmost()), _KeyOfValue()(__v)))

  00114	8b 68 0c	 mov	 ebp, DWORD PTR [eax+12]
  00117	8b 5c 24 24	 mov	 ebx, DWORD PTR ___v$[esp+20]
  0011b	8d 45 10	 lea	 eax, DWORD PTR [ebp+16]
  0011e	53		 push	 ebx
  0011f	50		 push	 eax
  00120	e8 00 00 00 00	 call	 ??$?MDV?$char_traits@D@_STL@@V?$allocator@D@1@@_STL@@YA_NABV?$basic_string@DV?$char_traits@D@_STL@@V?$allocator@D@2@@0@0@Z ; _STL::operator<<char,_STL::char_traits<char>,_STL::allocator<char> >
  00125	83 c4 08	 add	 esp, 8
  00128	84 c0		 test	 al, al
  0012a	74 1d		 je	 SHORT $L77002

; 474  :       // pass along to _M_insert that it can skip comparing
; 475  :       // v, Key ; since compare Key, v was true, compare v, Key must be false.
; 476  :       return _M_insert(0, _M_rightmost(), __v, __position._M_node); // Last argument only needs to be non-null

  0012c	56		 push	 esi
  0012d	8b 74 24 20	 mov	 esi, DWORD PTR ___$ReturnUdt$[esp+24]
  00131	53		 push	 ebx
  00132	55		 push	 ebp
  00133	6a 00		 push	 0
  00135	56		 push	 esi
  00136	8b cf		 mov	 ecx, edi
  00138	e8 00 00 00 00	 call	 ?_M_insert@?$_Rb_tree@V?$basic_string@DV?$char_traits@D@_STL@@V?$allocator@D@2@@_STL@@U?$pair@$$CBV?$basic_string@DV?$char_traits@D@_STL@@V?$allocator@D@2@@_STL@@H@2@U?$_Select1st@U?$pair@$$CBV?$basic_string@DV?$char_traits@D@_STL@@V?$allocator@D@2@@_STL@@H@_STL@@@2@U?$less@V?$basic_string@DV?$char_traits@D@_STL@@V?$allocator@D@2@@_STL@@@2@V?$allocator@U?$pair@$$CBV?$basic_string@DV?$char_traits@D@_STL@@V?$allocator@D@2@@_STL@@H@_STL@@@2@@_STL@@AAE?AU?$_Rb_tree_iterator@U?$pair@$$CBV?$basic_string@DV?$char_traits@D@_STL@@V?$allocator@D@2@@_STL@@H@_STL@@U?$_Nonconst_traits@U?$pair@$$CBV?$basic_string@DV?$char_traits@D@_STL@@V?$allocator@D@2@@_STL@@H@_STL@@@2@@2@PAU_Rb_tree_node_base@2@0ABU?$pair@$$CBV?$basic_string@DV?$char_traits@D@_STL@@V?$allocator@D@2@@_STL@@H@2@0@Z ; _STL::_Rb_tree<_STL::basic_string<char,_STL::char_traits<char>,_STL::allocator<char> >,_STL::pair<_STL::basic_string<char,_STL::char_traits<char>,_STL::allocator<char> > const ,int>,_STL::_Select1st<_STL::pair<_STL::basic_string<char,_STL::char_traits<char>,_STL::allocator<char> > const ,int> >,_STL::less<_STL::basic_string<char,_STL::char_traits<char>,_STL::allocator<char> > >,_STL::allocator<_STL::pair<_STL::basic_string<char,_STL::char_traits<char>,_STL::allocator<char> > const ,int> > >::_M_insert
  0013d	5f		 pop	 edi
  0013e	8b c6		 mov	 eax, esi
  00140	5e		 pop	 esi
  00141	5d		 pop	 ebp
  00142	5b		 pop	 ebx

; 522  : 	}
; 523  :       }
; 524  :   }
; 525  : }

  00143	83 c4 08	 add	 esp, 8
  00146	c2 0c 00	 ret	 12			; 0000000cH
$L77002:

; 477  :     else
; 478  :       return insert_unique(__v).first;

  00149	53		 push	 ebx
  0014a	e9 d5 fe ff ff	 jmp	 $L82520
$L77000:

; 479  :   } else {
; 480  :     iterator __before = __position;
; 481  :     --__before;

  0014f	56		 push	 esi
  00150	e8 00 00 00 00	 call	 ?_M_decrement@?$_Rb_global@_N@_STL@@SAPAU_Rb_tree_node_base@2@PAU32@@Z ; _STL::_Rb_global<bool>::_M_decrement

; 482  :     
; 483  :     bool __comp_v_pos = _M_key_compare(_KeyOfValue()(__v), _S_key(__position._M_node));

  00155	8b 6c 24 28	 mov	 ebp, DWORD PTR ___v$[esp+24]
  00159	8b d8		 mov	 ebx, eax
  0015b	8d 46 10	 lea	 eax, DWORD PTR [esi+16]
  0015e	50		 push	 eax
  0015f	55		 push	 ebp
  00160	e8 00 00 00 00	 call	 ??$?MDV?$char_traits@D@_STL@@V?$allocator@D@1@@_STL@@YA_NABV?$basic_string@DV?$char_traits@D@_STL@@V?$allocator@D@2@@0@0@Z ; _STL::operator<<char,_STL::char_traits<char>,_STL::allocator<char> >
  00165	83 c4 0c	 add	 esp, 12			; 0000000cH

; 484  : 
; 485  :     if (__comp_v_pos
; 486  :       && _M_key_compare( _S_key(__before._M_node), _KeyOfValue()(__v) )) {

  00168	84 c0		 test	 al, al
  0016a	88 44 24 24	 mov	 BYTE PTR ___comp_v_pos$77008[esp+20], al
  0016e	74 50		 je	 SHORT $L77011
  00170	8d 43 10	 lea	 eax, DWORD PTR [ebx+16]
  00173	55		 push	 ebp
  00174	50		 push	 eax
  00175	e8 00 00 00 00	 call	 ??$?MDV?$char_traits@D@_STL@@V?$allocator@D@1@@_STL@@YA_NABV?$basic_string@DV?$char_traits@D@_STL@@V?$allocator@D@2@@0@0@Z ; _STL::operator<<char,_STL::char_traits<char>,_STL::allocator<char> >
  0017a	83 c4 08	 add	 esp, 8
  0017d	84 c0		 test	 al, al
  0017f	74 3f		 je	 SHORT $L77011

; 487  : 
; 488  :       if (_S_right(__before._M_node) == 0)

  00181	8b 43 0c	 mov	 eax, DWORD PTR [ebx+12]
  00184	85 c0		 test	 eax, eax

; 489  :         return _M_insert(0, __before._M_node, __v, __before._M_node); // Last argument only needs to be non-null

  00186	8b cf		 mov	 ecx, edi
  00188	75 1b		 jne	 SHORT $L77012
  0018a	8b 74 24 1c	 mov	 esi, DWORD PTR ___$ReturnUdt$[esp+20]
  0018e	53		 push	 ebx
  0018f	55		 push	 ebp
  00190	53		 push	 ebx
  00191	6a 00		 push	 0
  00193	56		 push	 esi
  00194	e8 00 00 00 00	 call	 ?_M_insert@?$_Rb_tree@V?$basic_string@DV?$char_traits@D@_STL@@V?$allocator@D@2@@_STL@@U?$pair@$$CBV?$basic_string@DV?$char_traits@D@_STL@@V?$allocator@D@2@@_STL@@H@2@U?$_Select1st@U?$pair@$$CBV?$basic_string@DV?$char_traits@D@_STL@@V?$allocator@D@2@@_STL@@H@_STL@@@2@U?$less@V?$basic_string@DV?$char_traits@D@_STL@@V?$allocator@D@2@@_STL@@@2@V?$allocator@U?$pair@$$CBV?$basic_string@DV?$char_traits@D@_STL@@V?$allocator@D@2@@_STL@@H@_STL@@@2@@_STL@@AAE?AU?$_Rb_tree_iterator@U?$pair@$$CBV?$basic_string@DV?$char_traits@D@_STL@@V?$allocator@D@2@@_STL@@H@_STL@@U?$_Nonconst_traits@U?$pair@$$CBV?$basic_string@DV?$char_traits@D@_STL@@V?$allocator@D@2@@_STL@@H@_STL@@@2@@2@PAU_Rb_tree_node_base@2@0ABU?$pair@$$CBV?$basic_string@DV?$char_traits@D@_STL@@V?$allocator@D@2@@_STL@@H@2@0@Z ; _STL::_Rb_tree<_STL::basic_string<char,_STL::char_traits<char>,_STL::allocator<char> >,_STL::pair<_STL::basic_string<char,_STL::char_traits<char>,_STL::allocator<char> > const ,int>,_STL::_Select1st<_STL::pair<_STL::basic_string<char,_STL::char_traits<char>,_STL::allocator<char> > const ,int> >,_STL::less<_STL::basic_string<char,_STL::char_traits<char>,_STL::allocator<char> > >,_STL::allocator<_STL::pair<_STL::basic_string<char,_STL::char_traits<char>,_STL::allocator<char> > const ,int> > >::_M_insert
  00199	5f		 pop	 edi
  0019a	8b c6		 mov	 eax, esi
  0019c	5e		 pop	 esi
  0019d	5d		 pop	 ebp
  0019e	5b		 pop	 ebx

; 522  : 	}
; 523  :       }
; 524  :   }
; 525  : }

  0019f	83 c4 08	 add	 esp, 8
  001a2	c2 0c 00	 ret	 12			; 0000000cH
$L77012:

; 490  :       else
; 491  :         return _M_insert(__position._M_node, __position._M_node, __v);

  001a5	6a 00		 push	 0
  001a7	55		 push	 ebp
  001a8	56		 push	 esi
  001a9	56		 push	 esi
  001aa	8b 74 24 2c	 mov	 esi, DWORD PTR ___$ReturnUdt$[esp+36]
  001ae	56		 push	 esi
  001af	e8 00 00 00 00	 call	 ?_M_insert@?$_Rb_tree@V?$basic_string@DV?$char_traits@D@_STL@@V?$allocator@D@2@@_STL@@U?$pair@$$CBV?$basic_string@DV?$char_traits@D@_STL@@V?$allocator@D@2@@_STL@@H@2@U?$_Select1st@U?$pair@$$CBV?$basic_string@DV?$char_traits@D@_STL@@V?$allocator@D@2@@_STL@@H@_STL@@@2@U?$less@V?$basic_string@DV?$char_traits@D@_STL@@V?$allocator@D@2@@_STL@@@2@V?$allocator@U?$pair@$$CBV?$basic_string@DV?$char_traits@D@_STL@@V?$allocator@D@2@@_STL@@H@_STL@@@2@@_STL@@AAE?AU?$_Rb_tree_iterator@U?$pair@$$CBV?$basic_string@DV?$char_traits@D@_STL@@V?$allocator@D@2@@_STL@@H@_STL@@U?$_Nonconst_traits@U?$pair@$$CBV?$basic_string@DV?$char_traits@D@_STL@@V?$allocator@D@2@@_STL@@H@_STL@@@2@@2@PAU_Rb_tree_node_base@2@0ABU?$pair@$$CBV?$basic_string@DV?$char_traits@D@_STL@@V?$allocator@D@2@@_STL@@H@2@0@Z ; _STL::_Rb_tree<_STL::basic_string<char,_STL::char_traits<char>,_STL::allocator<char> >,_STL::pair<_STL::basic_string<char,_STL::char_traits<char>,_STL::allocator<char> > const ,int>,_STL::_Select1st<_STL::pair<_STL::basic_string<char,_STL::char_traits<char>,_STL::allocator<char> > const ,int> >,_STL::less<_STL::basic_string<char,_STL::char_traits<char>,_STL::allocator<char> > >,_STL::allocator<_STL::pair<_STL::basic_string<char,_STL::char_traits<char>,_STL::allocator<char> > const ,int> > >::_M_insert
  001b4	5f		 pop	 edi
  001b5	8b c6		 mov	 eax, esi
  001b7	5e		 pop	 esi
  001b8	5d		 pop	 ebp
  001b9	5b		 pop	 ebx

; 522  : 	}
; 523  :       }
; 524  :   }
; 525  : }

  001ba	83 c4 08	 add	 esp, 8
  001bd	c2 0c 00	 ret	 12			; 0000000cH
$L77011:

; 492  :     // first argument just needs to be non-null 
; 493  :     } else
; 494  :       {
; 495  : 	// Does the insertion point fall immediately AFTER the hint?
; 496  : 	iterator __after = __position;
; 497  : 	++__after;

  001c0	56		 push	 esi
  001c1	e8 00 00 00 00	 call	 ?_M_increment@?$_Rb_global@_N@_STL@@SAPAU_Rb_tree_node_base@2@PAU32@@Z ; _STL::_Rb_global<bool>::_M_increment
  001c6	8b d8		 mov	 ebx, eax

; 498  : 	
; 499  : 	// Optimization to catch equivalent cases and avoid unnecessary comparisons
; 500  : 	bool __comp_pos_v = !__comp_v_pos;  // Stored this result earlier

  001c8	8a 44 24 28	 mov	 al, BYTE PTR ___comp_v_pos$77008[esp+24]
  001cc	83 c4 04	 add	 esp, 4
  001cf	84 c0		 test	 al, al
  001d1	0f 94 c1	 sete	 cl

; 501  : 	// If the earlier comparison was true, this comparison doesn't need to be
; 502  : 	// performed because it must be false.  However, if the earlier comparison
; 503  : 	// was false, we need to perform this one because in the equal case, both will
; 504  : 	// be false.
; 505  : 	if (!__comp_v_pos) __comp_pos_v = _M_key_compare(_S_key(__position._M_node), _KeyOfValue()(__v));

  001d4	84 c0		 test	 al, al
  001d6	75 75		 jne	 SHORT $L77022
  001d8	8d 46 10	 lea	 eax, DWORD PTR [esi+16]
  001db	55		 push	 ebp
  001dc	50		 push	 eax
  001dd	e8 00 00 00 00	 call	 ??$?MDV?$char_traits@D@_STL@@V?$allocator@D@1@@_STL@@YA_NABV?$basic_string@DV?$char_traits@D@_STL@@V?$allocator@D@2@@0@0@Z ; _STL::operator<<char,_STL::char_traits<char>,_STL::allocator<char> >
  001e2	83 c4 08	 add	 esp, 8

; 506  : 	
; 507  : 	if ( (!__comp_v_pos) // comp_v_pos true implies comp_v_pos false
; 508  : 	     && __comp_pos_v
; 509  : 	     && (__after._M_node == this->_M_header._M_data ||
; 510  : 	        _M_key_compare( _KeyOfValue()(__v), _S_key(__after._M_node) ))) {

  001e5	84 c0		 test	 al, al
  001e7	88 44 24 20	 mov	 BYTE PTR ___comp_pos_v$77018[esp+20], al
  001eb	0f 84 91 fe ff
	ff		 je	 $L82518
  001f1	3b 1f		 cmp	 ebx, DWORD PTR [edi]
  001f3	74 11		 je	 SHORT $L77023
  001f5	8d 4b 10	 lea	 ecx, DWORD PTR [ebx+16]
  001f8	51		 push	 ecx
  001f9	55		 push	 ebp
  001fa	8d 4f 08	 lea	 ecx, DWORD PTR [edi+8]
  001fd	e8 00 00 00 00	 call	 ??R?$less@V?$basic_string@DV?$char_traits@D@_STL@@V?$allocator@D@2@@_STL@@@_STL@@QBE_NABV?$basic_string@DV?$char_traits@D@_STL@@V?$allocator@D@2@@1@0@Z ; _STL::less<_STL::basic_string<char,_STL::char_traits<char>,_STL::allocator<char> > >::operator()
  00202	84 c0		 test	 al, al
  00204	74 3f		 je	 SHORT $L82519
$L77023:

; 511  : 	  
; 512  : 	  if (_S_right(__position._M_node) == 0)

  00206	8b 46 0c	 mov	 eax, DWORD PTR [esi+12]
  00209	85 c0		 test	 eax, eax

; 513  : 	    return _M_insert(0, __position._M_node, __v, __position._M_node);

  0020b	8b cf		 mov	 ecx, edi
  0020d	75 1b		 jne	 SHORT $L77024
  0020f	56		 push	 esi
  00210	55		 push	 ebp
  00211	56		 push	 esi
  00212	8b 74 24 28	 mov	 esi, DWORD PTR ___$ReturnUdt$[esp+32]
  00216	6a 00		 push	 0
  00218	56		 push	 esi
  00219	e8 00 00 00 00	 call	 ?_M_insert@?$_Rb_tree@V?$basic_string@DV?$char_traits@D@_STL@@V?$allocator@D@2@@_STL@@U?$pair@$$CBV?$basic_string@DV?$char_traits@D@_STL@@V?$allocator@D@2@@_STL@@H@2@U?$_Select1st@U?$pair@$$CBV?$basic_string@DV?$char_traits@D@_STL@@V?$allocator@D@2@@_STL@@H@_STL@@@2@U?$less@V?$basic_string@DV?$char_traits@D@_STL@@V?$allocator@D@2@@_STL@@@2@V?$allocator@U?$pair@$$CBV?$basic_string@DV?$char_traits@D@_STL@@V?$allocator@D@2@@_STL@@H@_STL@@@2@@_STL@@AAE?AU?$_Rb_tree_iterator@U?$pair@$$CBV?$basic_string@DV?$char_traits@D@_STL@@V?$allocator@D@2@@_STL@@H@_STL@@U?$_Nonconst_traits@U?$pair@$$CBV?$basic_string@DV?$char_traits@D@_STL@@V?$allocator@D@2@@_STL@@H@_STL@@@2@@2@PAU_Rb_tree_node_base@2@0ABU?$pair@$$CBV?$basic_string@DV?$char_traits@D@_STL@@V?$allocator@D@2@@_STL@@H@2@0@Z ; _STL::_Rb_tree<_STL::basic_string<char,_STL::char_traits<char>,_STL::allocator<char> >,_STL::pair<_STL::basic_string<char,_STL::char_traits<char>,_STL::allocator<char> > const ,int>,_STL::_Select1st<_STL::pair<_STL::basic_string<char,_STL::char_traits<char>,_STL::allocator<char> > const ,int> >,_STL::less<_STL::basic_string<char,_STL::char_traits<char>,_STL::allocator<char> > >,_STL::allocator<_STL::pair<_STL::basic_string<char,_STL::char_traits<char>,_STL::allocator<char> > const ,int> > >::_M_insert
  0021e	5f		 pop	 edi
  0021f	8b c6		 mov	 eax, esi
  00221	5e		 pop	 esi
  00222	5d		 pop	 ebp
  00223	5b		 pop	 ebx

; 522  : 	}
; 523  :       }
; 524  :   }
; 525  : }

  00224	83 c4 08	 add	 esp, 8
  00227	c2 0c 00	 ret	 12			; 0000000cH
$L77024:

; 514  : 	  else
; 515  : 	    return _M_insert(__after._M_node, __after._M_node, __v);

  0022a	8b 74 24 1c	 mov	 esi, DWORD PTR ___$ReturnUdt$[esp+20]
  0022e	6a 00		 push	 0
  00230	55		 push	 ebp
  00231	53		 push	 ebx
  00232	53		 push	 ebx
  00233	56		 push	 esi
  00234	e8 00 00 00 00	 call	 ?_M_insert@?$_Rb_tree@V?$basic_string@DV?$char_traits@D@_STL@@V?$allocator@D@2@@_STL@@U?$pair@$$CBV?$basic_string@DV?$char_traits@D@_STL@@V?$allocator@D@2@@_STL@@H@2@U?$_Select1st@U?$pair@$$CBV?$basic_string@DV?$char_traits@D@_STL@@V?$allocator@D@2@@_STL@@H@_STL@@@2@U?$less@V?$basic_string@DV?$char_traits@D@_STL@@V?$allocator@D@2@@_STL@@@2@V?$allocator@U?$pair@$$CBV?$basic_string@DV?$char_traits@D@_STL@@V?$allocator@D@2@@_STL@@H@_STL@@@2@@_STL@@AAE?AU?$_Rb_tree_iterator@U?$pair@$$CBV?$basic_string@DV?$char_traits@D@_STL@@V?$allocator@D@2@@_STL@@H@_STL@@U?$_Nonconst_traits@U?$pair@$$CBV?$basic_string@DV?$char_traits@D@_STL@@V?$allocator@D@2@@_STL@@H@_STL@@@2@@2@PAU_Rb_tree_node_base@2@0ABU?$pair@$$CBV?$basic_string@DV?$char_traits@D@_STL@@V?$allocator@D@2@@_STL@@H@2@0@Z ; _STL::_Rb_tree<_STL::basic_string<char,_STL::char_traits<char>,_STL::allocator<char> >,_STL::pair<_STL::basic_string<char,_STL::char_traits<char>,_STL::allocator<char> > const ,int>,_STL::_Select1st<_STL::pair<_STL::basic_string<char,_STL::char_traits<char>,_STL::allocator<char> > const ,int> >,_STL::less<_STL::basic_string<char,_STL::char_traits<char>,_STL::allocator<char> > >,_STL::allocator<_STL::pair<_STL::basic_string<char,_STL::char_traits<char>,_STL::allocator<char> > const ,int> > >::_M_insert
  00239	5f		 pop	 edi
  0023a	8b c6		 mov	 eax, esi
  0023c	5e		 pop	 esi
  0023d	5d		 pop	 ebp
  0023e	5b		 pop	 ebx

; 522  : 	}
; 523  :       }
; 524  :   }
; 525  : }

  0023f	83 c4 08	 add	 esp, 8
  00242	c2 0c 00	 ret	 12			; 0000000cH
$L82519:

; 506  : 	
; 507  : 	if ( (!__comp_v_pos) // comp_v_pos true implies comp_v_pos false
; 508  : 	     && __comp_pos_v
; 509  : 	     && (__after._M_node == this->_M_header._M_data ||
; 510  : 	        _M_key_compare( _KeyOfValue()(__v), _S_key(__after._M_node) ))) {

  00245	8a 44 24 24	 mov	 al, BYTE PTR ___comp_v_pos$77008[esp+20]
  00249	8a 4c 24 20	 mov	 cl, BYTE PTR ___comp_pos_v$77018[esp+20]
$L77022:

; 516  : 	} else {
; 517  : 	  // Test for equivalent case
; 518  : 	  if (__comp_v_pos == __comp_pos_v)

  0024d	3a c1		 cmp	 al, cl

; 519  : 	    return __position;

  0024f	0f 84 2d fe ff
	ff		 je	 $L82518

; 520  : 	  else
; 521  : 	    return insert_unique(__v).first;

  00255	55		 push	 ebp
  00256	8d 54 24 14	 lea	 edx, DWORD PTR $T82296[esp+28]
  0025a	52		 push	 edx
  0025b	8b cf		 mov	 ecx, edi
  0025d	e8 00 00 00 00	 call	 ?insert_unique@?$_Rb_tree@V?$basic_string@DV?$char_traits@D@_STL@@V?$allocator@D@2@@_STL@@U?$pair@$$CBV?$basic_string@DV?$char_traits@D@_STL@@V?$allocator@D@2@@_STL@@H@2@U?$_Select1st@U?$pair@$$CBV?$basic_string@DV?$char_traits@D@_STL@@V?$allocator@D@2@@_STL@@H@_STL@@@2@U?$less@V?$basic_string@DV?$char_traits@D@_STL@@V?$allocator@D@2@@_STL@@@2@V?$allocator@U?$pair@$$CBV?$basic_string@DV?$char_traits@D@_STL@@V?$allocator@D@2@@_STL@@H@_STL@@@2@@_STL@@QAE?AU?$pair@U?$_Rb_tree_iterator@U?$pair@$$CBV?$basic_string@DV?$char_traits@D@_STL@@V?$allocator@D@2@@_STL@@H@_STL@@U?$_Nonconst_traits@U?$pair@$$CBV?$basic_string@DV?$char_traits@D@_STL@@V?$allocator@D@2@@_STL@@H@_STL@@@2@@_STL@@_N@2@ABU?$pair@$$CBV?$basic_string@DV?$char_traits@D@_STL@@V?$allocator@D@2@@_STL@@H@2@@Z ; _STL::_Rb_tree<_STL::basic_string<char,_STL::char_traits<char>,_STL::allocator<char> >,_STL::pair<_STL::basic_string<char,_STL::char_traits<char>,_STL::allocator<char> > const ,int>,_STL::_Select1st<_STL::pair<_STL::basic_string<char,_STL::char_traits<char>,_STL::allocator<char> > const ,int> >,_STL::less<_STL::basic_string<char,_STL::char_traits<char>,_STL::allocator<char> > >,_STL::allocator<_STL::pair<_STL::basic_string<char,_STL::char_traits<char>,_STL::allocator<char> > const ,int> > >::insert_unique
  00262	8b 08		 mov	 ecx, DWORD PTR [eax]
  00264	8b 44 24 1c	 mov	 eax, DWORD PTR ___$ReturnUdt$[esp+20]
  00268	5f		 pop	 edi
  00269	5e		 pop	 esi
  0026a	5d		 pop	 ebp
  0026b	89 08		 mov	 DWORD PTR [eax], ecx
  0026d	5b		 pop	 ebx

; 522  : 	}
; 523  :       }
; 524  :   }
; 525  : }

  0026e	83 c4 08	 add	 esp, 8
  00271	c2 0c 00	 ret	 12			; 0000000cH
?insert_unique@?$_Rb_tree@V?$basic_string@DV?$char_traits@D@_STL@@V?$allocator@D@2@@_STL@@U?$pair@$$CBV?$basic_string@DV?$char_traits@D@_STL@@V?$allocator@D@2@@_STL@@H@2@U?$_Select1st@U?$pair@$$CBV?$basic_string@DV?$char_traits@D@_STL@@V?$allocator@D@2@@_STL@@H@_STL@@@2@U?$less@V?$basic_string@DV?$char_traits@D@_STL@@V?$allocator@D@2@@_STL@@@2@V?$allocator@U?$pair@$$CBV?$basic_string@DV?$char_traits@D@_STL@@V?$allocator@D@2@@_STL@@H@_STL@@@2@@_STL@@QAE?AU?$_Rb_tree_iterator@U?$pair@$$CBV?$basic_string@DV?$char_traits@D@_STL@@V?$allocator@D@2@@_STL@@H@_STL@@U?$_Nonconst_traits@U?$pair@$$CBV?$basic_string@DV?$char_traits@D@_STL@@V?$allocator@D@2@@_STL@@H@_STL@@@2@@2@U32@ABU?$pair@$$CBV?$basic_string@DV?$char_traits@D@_STL@@V?$allocator@D@2@@_STL@@H@2@@Z ENDP ; _STL::_Rb_tree<_STL::basic_string<char,_STL::char_traits<char>,_STL::allocator<char> >,_STL::pair<_STL::basic_string<char,_STL::char_traits<char>,_STL::allocator<char> > const ,int>,_STL::_Select1st<_STL::pair<_STL::basic_string<char,_STL::char_traits<char>,_STL::allocator<char> > const ,int> >,_STL::less<_STL::basic_string<char,_STL::char_traits<char>,_STL::allocator<char> > >,_STL::allocator<_STL::pair<_STL::basic_string<char,_STL::char_traits<char>,_STL::allocator<char> > const ,int> > >::insert_unique
_TEXT	ENDS
PUBLIC	?insert@?$map@V?$basic_string@DV?$char_traits@D@_STL@@V?$allocator@D@2@@_STL@@HU?$less@V?$basic_string@DV?$char_traits@D@_STL@@V?$allocator@D@2@@_STL@@@2@V?$allocator@U?$pair@$$CBV?$basic_string@DV?$char_traits@D@_STL@@V?$allocator@D@2@@_STL@@H@_STL@@@2@@_STL@@QAE?AU?$_Rb_tree_iterator@U?$pair@$$CBV?$basic_string@DV?$char_traits@D@_STL@@V?$allocator@D@2@@_STL@@H@_STL@@U?$_Nonconst_traits@U?$pair@$$CBV?$basic_string@DV?$char_traits@D@_STL@@V?$allocator@D@2@@_STL@@H@_STL@@@2@@2@U32@ABU?$pair@$$CBV?$basic_string@DV?$char_traits@D@_STL@@V?$allocator@D@2@@_STL@@H@2@@Z ; _STL::map<_STL::basic_string<char,_STL::char_traits<char>,_STL::allocator<char> >,int,_STL::less<_STL::basic_string<char,_STL::char_traits<char>,_STL::allocator<char> > >,_STL::allocator<_STL::pair<_STL::basic_string<char,_STL::char_traits<char>,_STL::allocator<char> > const ,int> > >::insert
; Function compile flags: /Ogty
; File c:\stlport-4.6.1\stlport\stl\_map.h
;	COMDAT ?insert@?$map@V?$basic_string@DV?$char_traits@D@_STL@@V?$allocator@D@2@@_STL@@HU?$less@V?$basic_string@DV?$char_traits@D@_STL@@V?$allocator@D@2@@_STL@@@2@V?$allocator@U?$pair@$$CBV?$basic_string@DV?$char_traits@D@_STL@@V?$allocator@D@2@@_STL@@H@_STL@@@2@@_STL@@QAE?AU?$_Rb_tree_iterator@U?$pair@$$CBV?$basic_string@DV?$char_traits@D@_STL@@V?$allocator@D@2@@_STL@@H@_STL@@U?$_Nonconst_traits@U?$pair@$$CBV?$basic_string@DV?$char_traits@D@_STL@@V?$allocator@D@2@@_STL@@H@_STL@@@2@@2@U32@ABU?$pair@$$CBV?$basic_string@DV?$char_traits@D@_STL@@V?$allocator@D@2@@_STL@@H@2@@Z
_TEXT	SEGMENT
___$ReturnUdt$ = 8					; size = 4
_position$ = 12						; size = 4
___x$ = 16						; size = 4
?insert@?$map@V?$basic_string@DV?$char_traits@D@_STL@@V?$allocator@D@2@@_STL@@HU?$less@V?$basic_string@DV?$char_traits@D@_STL@@V?$allocator@D@2@@_STL@@@2@V?$allocator@U?$pair@$$CBV?$basic_string@DV?$char_traits@D@_STL@@V?$allocator@D@2@@_STL@@H@_STL@@@2@@_STL@@QAE?AU?$_Rb_tree_iterator@U?$pair@$$CBV?$basic_string@DV?$char_traits@D@_STL@@V?$allocator@D@2@@_STL@@H@_STL@@U?$_Nonconst_traits@U?$pair@$$CBV?$basic_string@DV?$char_traits@D@_STL@@V?$allocator@D@2@@_STL@@H@_STL@@@2@@2@U32@ABU?$pair@$$CBV?$basic_string@DV?$char_traits@D@_STL@@V?$allocator@D@2@@_STL@@H@2@@Z PROC NEAR ; _STL::map<_STL::basic_string<char,_STL::char_traits<char>,_STL::allocator<char> >,int,_STL::less<_STL::basic_string<char,_STL::char_traits<char>,_STL::allocator<char> > >,_STL::allocator<_STL::pair<_STL::basic_string<char,_STL::char_traits<char>,_STL::allocator<char> > const ,int> > >::insert, COMDAT
; _this$ = ecx

; 172  :     { return _M_t.insert_unique(position, __x); }

  00000	8b 44 24 0c	 mov	 eax, DWORD PTR ___x$[esp-4]
  00004	8b 54 24 08	 mov	 edx, DWORD PTR _position$[esp-4]
  00008	56		 push	 esi
  00009	8b 74 24 08	 mov	 esi, DWORD PTR ___$ReturnUdt$[esp]
  0000d	50		 push	 eax
  0000e	51		 push	 ecx
  0000f	8b c4		 mov	 eax, esp
  00011	56		 push	 esi
  00012	89 10		 mov	 DWORD PTR [eax], edx
  00014	e8 00 00 00 00	 call	 ?insert_unique@?$_Rb_tree@V?$basic_string@DV?$char_traits@D@_STL@@V?$allocator@D@2@@_STL@@U?$pair@$$CBV?$basic_string@DV?$char_traits@D@_STL@@V?$allocator@D@2@@_STL@@H@2@U?$_Select1st@U?$pair@$$CBV?$basic_string@DV?$char_traits@D@_STL@@V?$allocator@D@2@@_STL@@H@_STL@@@2@U?$less@V?$basic_string@DV?$char_traits@D@_STL@@V?$allocator@D@2@@_STL@@@2@V?$allocator@U?$pair@$$CBV?$basic_string@DV?$char_traits@D@_STL@@V?$allocator@D@2@@_STL@@H@_STL@@@2@@_STL@@QAE?AU?$_Rb_tree_iterator@U?$pair@$$CBV?$basic_string@DV?$char_traits@D@_STL@@V?$allocator@D@2@@_STL@@H@_STL@@U?$_Nonconst_traits@U?$pair@$$CBV?$basic_string@DV?$char_traits@D@_STL@@V?$allocator@D@2@@_STL@@H@_STL@@@2@@2@U32@ABU?$pair@$$CBV?$basic_string@DV?$char_traits@D@_STL@@V?$allocator@D@2@@_STL@@H@2@@Z ; _STL::_Rb_tree<_STL::basic_string<char,_STL::char_traits<char>,_STL::allocator<char> >,_STL::pair<_STL::basic_string<char,_STL::char_traits<char>,_STL::allocator<char> > const ,int>,_STL::_Select1st<_STL::pair<_STL::basic_string<char,_STL::char_traits<char>,_STL::allocator<char> > const ,int> >,_STL::less<_STL::basic_string<char,_STL::char_traits<char>,_STL::allocator<char> > >,_STL::allocator<_STL::pair<_STL::basic_string<char,_STL::char_traits<char>,_STL::allocator<char> > const ,int> > >::insert_unique
  00019	8b c6		 mov	 eax, esi
  0001b	5e		 pop	 esi
  0001c	c2 0c 00	 ret	 12			; 0000000cH
?insert@?$map@V?$basic_string@DV?$char_traits@D@_STL@@V?$allocator@D@2@@_STL@@HU?$less@V?$basic_string@DV?$char_traits@D@_STL@@V?$allocator@D@2@@_STL@@@2@V?$allocator@U?$pair@$$CBV?$basic_string@DV?$char_traits@D@_STL@@V?$allocator@D@2@@_STL@@H@_STL@@@2@@_STL@@QAE?AU?$_Rb_tree_iterator@U?$pair@$$CBV?$basic_string@DV?$char_traits@D@_STL@@V?$allocator@D@2@@_STL@@H@_STL@@U?$_Nonconst_traits@U?$pair@$$CBV?$basic_string@DV?$char_traits@D@_STL@@V?$allocator@D@2@@_STL@@H@_STL@@@2@@2@U32@ABU?$pair@$$CBV?$basic_string@DV?$char_traits@D@_STL@@V?$allocator@D@2@@_STL@@H@2@@Z ENDP ; _STL::map<_STL::basic_string<char,_STL::char_traits<char>,_STL::allocator<char> >,int,_STL::less<_STL::basic_string<char,_STL::char_traits<char>,_STL::allocator<char> > >,_STL::allocator<_STL::pair<_STL::basic_string<char,_STL::char_traits<char>,_STL::allocator<char> > const ,int> > >::insert
_TEXT	ENDS
PUBLIC	??A?$map@V?$basic_string@DV?$char_traits@D@_STL@@V?$allocator@D@2@@_STL@@HU?$less@V?$basic_string@DV?$char_traits@D@_STL@@V?$allocator@D@2@@_STL@@@2@V?$allocator@U?$pair@$$CBV?$basic_string@DV?$char_traits@D@_STL@@V?$allocator@D@2@@_STL@@H@_STL@@@2@@_STL@@QAEAAHABV?$basic_string@DV?$char_traits@D@_STL@@V?$allocator@D@2@@1@@Z ; _STL::map<_STL::basic_string<char,_STL::char_traits<char>,_STL::allocator<char> >,int,_STL::less<_STL::basic_string<char,_STL::char_traits<char>,_STL::allocator<char> > >,_STL::allocator<_STL::pair<_STL::basic_string<char,_STL::char_traits<char>,_STL::allocator<char> > const ,int> > >::operator[]
;	COMDAT xdata$x
; File c:\stlport-4.6.1\stlport\stl\_tree.h
xdata$x	SEGMENT
$T82708	DD	0ffffffffH
	DD	FLAT:$L82538
$T82704	DD	019930520H
	DD	01H
	DD	FLAT:$T82708
	DD	2 DUP(00H)
	DD	2 DUP(00H)
; Function compile flags: /Ogty
; File c:\stlport-4.6.1\stlport\stl\_map.h
xdata$x	ENDS
;	COMDAT ??A?$map@V?$basic_string@DV?$char_traits@D@_STL@@V?$allocator@D@2@@_STL@@HU?$less@V?$basic_string@DV?$char_traits@D@_STL@@V?$allocator@D@2@@_STL@@@2@V?$allocator@U?$pair@$$CBV?$basic_string@DV?$char_traits@D@_STL@@V?$allocator@D@2@@_STL@@H@_STL@@@2@@_STL@@QAEAAHABV?$basic_string@DV?$char_traits@D@_STL@@V?$allocator@D@2@@1@@Z
_TEXT	SEGMENT
$T82534 = -28						; size = 16
__$EHRec$ = -12						; size = 12
$T82537 = 8						; size = 4
___k$ = 8						; size = 4
??A?$map@V?$basic_string@DV?$char_traits@D@_STL@@V?$allocator@D@2@@_STL@@HU?$less@V?$basic_string@DV?$char_traits@D@_STL@@V?$allocator@D@2@@_STL@@@2@V?$allocator@U?$pair@$$CBV?$basic_string@DV?$char_traits@D@_STL@@V?$allocator@D@2@@_STL@@H@_STL@@@2@@_STL@@QAEAAHABV?$basic_string@DV?$char_traits@D@_STL@@V?$allocator@D@2@@1@@Z PROC NEAR ; _STL::map<_STL::basic_string<char,_STL::char_traits<char>,_STL::allocator<char> >,int,_STL::less<_STL::basic_string<char,_STL::char_traits<char>,_STL::allocator<char> > >,_STL::allocator<_STL::pair<_STL::basic_string<char,_STL::char_traits<char>,_STL::allocator<char> > const ,int> > >::operator[], COMDAT
; _this$ = ecx

; 158  :   _Tp& operator[](const key_type& __k) {

  00000	64 a1 00 00 00
	00		 mov	 eax, DWORD PTR fs:__except_list
  00006	6a ff		 push	 -1
  00008	68 00 00 00 00	 push	 __ehhandler$??A?$map@V?$basic_string@DV?$char_traits@D@_STL@@V?$allocator@D@2@@_STL@@HU?$less@V?$basic_string@DV?$char_traits@D@_STL@@V?$allocator@D@2@@_STL@@@2@V?$allocator@U?$pair@$$CBV?$basic_string@DV?$char_traits@D@_STL@@V?$allocator@D@2@@_STL@@H@_STL@@@2@@_STL@@QAEAAHABV?$basic_string@DV?$char_traits@D@_STL@@V?$allocator@D@2@@1@@Z
  0000d	50		 push	 eax
  0000e	64 89 25 00 00
	00 00		 mov	 DWORD PTR fs:__except_list, esp
  00015	83 ec 10	 sub	 esp, 16			; 00000010H
  00018	53		 push	 ebx

; 159  :     iterator __i = lower_bound(__k);

  00019	8b 5c 24 24	 mov	 ebx, DWORD PTR ___k$[esp+28]
  0001d	56		 push	 esi
  0001e	57		 push	 edi
  0001f	53		 push	 ebx
  00020	8b f1		 mov	 esi, ecx
  00022	e8 00 00 00 00	 call	 ?_M_lower_bound@?$_Rb_tree@V?$basic_string@DV?$char_traits@D@_STL@@V?$allocator@D@2@@_STL@@U?$pair@$$CBV?$basic_string@DV?$char_traits@D@_STL@@V?$allocator@D@2@@_STL@@H@2@U?$_Select1st@U?$pair@$$CBV?$basic_string@DV?$char_traits@D@_STL@@V?$allocator@D@2@@_STL@@H@_STL@@@2@U?$less@V?$basic_string@DV?$char_traits@D@_STL@@V?$allocator@D@2@@_STL@@@2@V?$allocator@U?$pair@$$CBV?$basic_string@DV?$char_traits@D@_STL@@V?$allocator@D@2@@_STL@@H@_STL@@@2@@_STL@@ABEPAU?$_Rb_tree_node@U?$pair@$$CBV?$basic_string@DV?$char_traits@D@_STL@@V?$allocator@D@2@@_STL@@H@_STL@@@2@ABV?$basic_string@DV?$char_traits@D@_STL@@V?$allocator@D@2@@2@@Z ; _STL::_Rb_tree<_STL::basic_string<char,_STL::char_traits<char>,_STL::allocator<char> >,_STL::pair<_STL::basic_string<char,_STL::char_traits<char>,_STL::allocator<char> > const ,int>,_STL::_Select1st<_STL::pair<_STL::basic_string<char,_STL::char_traits<char>,_STL::allocator<char> > const ,int> >,_STL::less<_STL::basic_string<char,_STL::char_traits<char>,_STL::allocator<char> > >,_STL::allocator<_STL::pair<_STL::basic_string<char,_STL::char_traits<char>,_STL::allocator<char> > const ,int> > >::_M_lower_bound
  00027	8b f8		 mov	 edi, eax

; 160  :     // __i->first is greater than or equivalent to __k.
; 161  :     if (__i == end() || key_comp()(__k, (*__i).first))

  00029	3b 3e		 cmp	 edi, DWORD PTR [esi]
  0002b	74 15		 je	 SHORT $L76381
  0002d	8d 47 10	 lea	 eax, DWORD PTR [edi+16]
  00030	50		 push	 eax
  00031	53		 push	 ebx
  00032	e8 00 00 00 00	 call	 ??$?MDV?$char_traits@D@_STL@@V?$allocator@D@1@@_STL@@YA_NABV?$basic_string@DV?$char_traits@D@_STL@@V?$allocator@D@2@@0@0@Z ; _STL::operator<<char,_STL::char_traits<char>,_STL::allocator<char> >
  00037	83 c4 08	 add	 esp, 8
  0003a	84 c0		 test	 al, al
  0003c	0f 84 8c 00 00
	00		 je	 $L82706
$L76381:

; 162  :       __i = insert(__i, value_type(__k, _STLP_DEFAULT_CONSTRUCTED(_Tp)));

  00042	53		 push	 ebx
  00043	8d 4c 24 10	 lea	 ecx, DWORD PTR $T82534[esp+44]
  00047	e8 00 00 00 00	 call	 ??0?$basic_string@DV?$char_traits@D@_STL@@V?$allocator@D@2@@_STL@@QAE@ABV01@@Z ; _STL::basic_string<char,_STL::char_traits<char>,_STL::allocator<char> >::basic_string<char,_STL::char_traits<char>,_STL::allocator<char> >
  0004c	33 db		 xor	 ebx, ebx
  0004e	89 5c 24 18	 mov	 DWORD PTR $T82534[esp+52], ebx
  00052	8d 4c 24 0c	 lea	 ecx, DWORD PTR $T82534[esp+40]
  00056	51		 push	 ecx
  00057	51		 push	 ecx
  00058	8b c4		 mov	 eax, esp
  0005a	8d 54 24 34	 lea	 edx, DWORD PTR $T82537[esp+44]
  0005e	52		 push	 edx
  0005f	8b ce		 mov	 ecx, esi
  00061	89 5c 24 30	 mov	 DWORD PTR __$EHRec$[esp+60], ebx
  00065	89 38		 mov	 DWORD PTR [eax], edi
  00067	e8 00 00 00 00	 call	 ?insert_unique@?$_Rb_tree@V?$basic_string@DV?$char_traits@D@_STL@@V?$allocator@D@2@@_STL@@U?$pair@$$CBV?$basic_string@DV?$char_traits@D@_STL@@V?$allocator@D@2@@_STL@@H@2@U?$_Select1st@U?$pair@$$CBV?$basic_string@DV?$char_traits@D@_STL@@V?$allocator@D@2@@_STL@@H@_STL@@@2@U?$less@V?$basic_string@DV?$char_traits@D@_STL@@V?$allocator@D@2@@_STL@@@2@V?$allocator@U?$pair@$$CBV?$basic_string@DV?$char_traits@D@_STL@@V?$allocator@D@2@@_STL@@H@_STL@@@2@@_STL@@QAE?AU?$_Rb_tree_iterator@U?$pair@$$CBV?$basic_string@DV?$char_traits@D@_STL@@V?$allocator@D@2@@_STL@@H@_STL@@U?$_Nonconst_traits@U?$pair@$$CBV?$basic_string@DV?$char_traits@D@_STL@@V?$allocator@D@2@@_STL@@H@_STL@@@2@@2@U32@ABU?$pair@$$CBV?$basic_string@DV?$char_traits@D@_STL@@V?$allocator@D@2@@_STL@@H@2@@Z ; _STL::_Rb_tree<_STL::basic_string<char,_STL::char_traits<char>,_STL::allocator<char> >,_STL::pair<_STL::basic_string<char,_STL::char_traits<char>,_STL::allocator<char> > const ,int>,_STL::_Select1st<_STL::pair<_STL::basic_string<char,_STL::char_traits<char>,_STL::allocator<char> > const ,int> >,_STL::less<_STL::basic_string<char,_STL::char_traits<char>,_STL::allocator<char> > >,_STL::allocator<_STL::pair<_STL::basic_string<char,_STL::char_traits<char>,_STL::allocator<char> > const ,int> > >::insert_unique
  0006c	8b 4c 24 0c	 mov	 ecx, DWORD PTR $T82534[esp+40]
  00070	8b 44 24 14	 mov	 eax, DWORD PTR $T82534[esp+48]
  00074	8b 74 24 2c	 mov	 esi, DWORD PTR $T82537[esp+36]
  00078	2b c1		 sub	 eax, ecx
  0007a	3b cb		 cmp	 ecx, ebx
  0007c	c7 44 24 24 ff
	ff ff ff	 mov	 DWORD PTR __$EHRec$[esp+48], -1
  00084	74 31		 je	 SHORT $L82705
  00086	3d 80 00 00 00	 cmp	 eax, 128		; 00000080H
  0008b	76 20		 jbe	 SHORT $L82695
  0008d	51		 push	 ecx
  0008e	e8 00 00 00 00	 call	 ??3@YAXPAX@Z		; operator delete
  00093	83 c4 04	 add	 esp, 4

; 163  :     return (*__i).second;

  00096	8d 46 1c	 lea	 eax, DWORD PTR [esi+28]

; 164  :   }

  00099	8b 4c 24 1c	 mov	 ecx, DWORD PTR __$EHRec$[esp+40]
  0009d	64 89 0d 00 00
	00 00		 mov	 DWORD PTR fs:__except_list, ecx
  000a4	5f		 pop	 edi
  000a5	5e		 pop	 esi
  000a6	5b		 pop	 ebx
  000a7	83 c4 1c	 add	 esp, 28			; 0000001cH
  000aa	c2 04 00	 ret	 4

; 162  :       __i = insert(__i, value_type(__k, _STLP_DEFAULT_CONSTRUCTED(_Tp)));

$L82695:
  000ad	50		 push	 eax
  000ae	51		 push	 ecx
  000af	e8 00 00 00 00	 call	 ?_M_deallocate@?$__node_alloc@$00$0A@@_STL@@CAXPAXI@Z ; _STL::__node_alloc<1,0>::_M_deallocate
  000b4	83 c4 08	 add	 esp, 8
$L82705:

; 163  :     return (*__i).second;

  000b7	8d 46 1c	 lea	 eax, DWORD PTR [esi+28]

; 164  :   }

  000ba	8b 4c 24 1c	 mov	 ecx, DWORD PTR __$EHRec$[esp+40]
  000be	64 89 0d 00 00
	00 00		 mov	 DWORD PTR fs:__except_list, ecx
  000c5	5f		 pop	 edi
  000c6	5e		 pop	 esi
  000c7	5b		 pop	 ebx
  000c8	83 c4 1c	 add	 esp, 28			; 0000001cH
  000cb	c2 04 00	 ret	 4
$L82706:
  000ce	8b 4c 24 1c	 mov	 ecx, DWORD PTR __$EHRec$[esp+40]
  000d2	8d 47 1c	 lea	 eax, DWORD PTR [edi+28]
  000d5	5f		 pop	 edi
  000d6	5e		 pop	 esi
  000d7	64 89 0d 00 00
	00 00		 mov	 DWORD PTR fs:__except_list, ecx
  000de	5b		 pop	 ebx
  000df	83 c4 1c	 add	 esp, 28			; 0000001cH
  000e2	c2 04 00	 ret	 4
_TEXT	ENDS
;	COMDAT text$x
text$x	SEGMENT
$L82538:
  00000	8d 4d e4	 lea	 ecx, DWORD PTR $T82534[ebp]
  00003	e9 00 00 00 00	 jmp	 ??1?$pair@$$CBV?$basic_string@DV?$char_traits@D@_STL@@V?$allocator@D@2@@_STL@@H@_STL@@QAE@XZ
__ehhandler$??A?$map@V?$basic_string@DV?$char_traits@D@_STL@@V?$allocator@D@2@@_STL@@HU?$less@V?$basic_string@DV?$char_traits@D@_STL@@V?$allocator@D@2@@_STL@@@2@V?$allocator@U?$pair@$$CBV?$basic_string@DV?$char_traits@D@_STL@@V?$allocator@D@2@@_STL@@H@_STL@@@2@@_STL@@QAEAAHABV?$basic_string@DV?$char_traits@D@_STL@@V?$allocator@D@2@@1@@Z:
  00008	b8 00 00 00 00	 mov	 eax, OFFSET FLAT:$T82704
  0000d	e9 00 00 00 00	 jmp	 ___CxxFrameHandler
text$x	ENDS
??A?$map@V?$basic_string@DV?$char_traits@D@_STL@@V?$allocator@D@2@@_STL@@HU?$less@V?$basic_string@DV?$char_traits@D@_STL@@V?$allocator@D@2@@_STL@@@2@V?$allocator@U?$pair@$$CBV?$basic_string@DV?$char_traits@D@_STL@@V?$allocator@D@2@@_STL@@H@_STL@@@2@@_STL@@QAEAAHABV?$basic_string@DV?$char_traits@D@_STL@@V?$allocator@D@2@@1@@Z ENDP ; _STL::map<_STL::basic_string<char,_STL::char_traits<char>,_STL::allocator<char> >,int,_STL::less<_STL::basic_string<char,_STL::char_traits<char>,_STL::allocator<char> > >,_STL::allocator<_STL::pair<_STL::basic_string<char,_STL::char_traits<char>,_STL::allocator<char> > const ,int> > >::operator[]
PUBLIC	??_C@_04BEADLPGM@INFO?$AA@			; `string'
PUBLIC	??_C@_09EBOIJGPI@GAME_MENU?$AA@			; `string'
PUBLIC	??_C@_06OCONPLCM@OPTION?$AA@			; `string'
PUBLIC	??_C@_05DMCAHJJE@TITLE?$AA@			; `string'
PUBLIC	??_C@_08MNFHBIDM@NEW_CHAR?$AA@			; `string'
PUBLIC	??_C@_0P@ONEMFDMP@LOGIN_1024_768?$AA@		; `string'
PUBLIC	??_C@_0O@HFIMKCOI@LOGIN_800_600?$AA@		; `string'
PUBLIC	??_C@_05DNIIFBMG@?$CFs?5?$CFs?$AA@		; `string'
PUBLIC	??_C@_0L@CMCBHHFJ@POINT_LIST?$AA@		; `string'
PUBLIC	??_C@_09HDPDJPHK@RECT_LIST?$AA@			; `string'
PUBLIC	?LoadInformation@SkinManager@@QAE_NPBD@Z	; SkinManager::LoadInformation
PUBLIC	??_C@_08NEOEAKGJ@cjdgorkr?$AA@			; `string'
PUBLIC	??_C@_0BH@DGGGJIIO@data?2info?2infodata?4rpk?$AA@ ; `string'
EXTRN	??0CRarFile@@QAE@XZ:NEAR			; CRarFile::CRarFile
EXTRN	??1CRarFile@@QAE@XZ:NEAR			; CRarFile::~CRarFile
EXTRN	?Release@CRarFile@@QAEXXZ:NEAR			; CRarFile::Release
EXTRN	?SetRAR@CRarFile@@QAEXPBD0@Z:NEAR		; CRarFile::SetRAR
EXTRN	?Open@CRarFile@@QAE_NPBD@Z:NEAR			; CRarFile::Open
;	COMDAT xdata$x
; File c:\darkeden\designed_common\project\new - vs_ui\src\skinmanager.cpp
xdata$x	SEGMENT
$T83635	DD	0ffffffffH
	DD	FLAT:$L82734
	DD	00H
	DD	FLAT:$L82735
	DD	01H
	DD	FLAT:$L82736
	DD	01H
	DD	FLAT:$L82737
	DD	01H
	DD	FLAT:$L82738
	DD	01H
	DD	FLAT:$L82739
	DD	01H
	DD	FLAT:$L82740
	DD	01H
	DD	FLAT:$L82741
	DD	01H
	DD	FLAT:$L82742
$T83614	DD	019930520H
	DD	09H
	DD	FLAT:$T83635
	DD	2 DUP(00H)
	DD	2 DUP(00H)
xdata$x	ENDS
;	COMDAT ??_C@_08NEOEAKGJ@cjdgorkr?$AA@
CONST	SEGMENT
??_C@_08NEOEAKGJ@cjdgorkr?$AA@ DB 'cjdgorkr', 00H	; `string'
CONST	ENDS
;	COMDAT ??_C@_0BH@DGGGJIIO@data?2info?2infodata?4rpk?$AA@
CONST	SEGMENT
??_C@_0BH@DGGGJIIO@data?2info?2infodata?4rpk?$AA@ DB 'data\info\infodata.'
	DB	'rpk', 00H					; `string'
CONST	ENDS
;	COMDAT ??_C@_04BEADLPGM@INFO?$AA@
CONST	SEGMENT
??_C@_04BEADLPGM@INFO?$AA@ DB 'INFO', 00H		; `string'
CONST	ENDS
;	COMDAT ??_C@_09EBOIJGPI@GAME_MENU?$AA@
CONST	SEGMENT
??_C@_09EBOIJGPI@GAME_MENU?$AA@ DB 'GAME_MENU', 00H	; `string'
CONST	ENDS
;	COMDAT ??_C@_06OCONPLCM@OPTION?$AA@
CONST	SEGMENT
??_C@_06OCONPLCM@OPTION?$AA@ DB 'OPTION', 00H		; `string'
CONST	ENDS
;	COMDAT ??_C@_05DMCAHJJE@TITLE?$AA@
CONST	SEGMENT
??_C@_05DMCAHJJE@TITLE?$AA@ DB 'TITLE', 00H		; `string'
CONST	ENDS
;	COMDAT ??_C@_08MNFHBIDM@NEW_CHAR?$AA@
CONST	SEGMENT
??_C@_08MNFHBIDM@NEW_CHAR?$AA@ DB 'NEW_CHAR', 00H	; `string'
CONST	ENDS
;	COMDAT ??_C@_0P@ONEMFDMP@LOGIN_1024_768?$AA@
CONST	SEGMENT
??_C@_0P@ONEMFDMP@LOGIN_1024_768?$AA@ DB 'LOGIN_1024_768', 00H ; `string'
CONST	ENDS
;	COMDAT ??_C@_0O@HFIMKCOI@LOGIN_800_600?$AA@
CONST	SEGMENT
??_C@_0O@HFIMKCOI@LOGIN_800_600?$AA@ DB 'LOGIN_800_600', 00H ; `string'
CONST	ENDS
;	COMDAT ??_C@_05DNIIFBMG@?$CFs?5?$CFs?$AA@
CONST	SEGMENT
??_C@_05DNIIFBMG@?$CFs?5?$CFs?$AA@ DB '%s %s', 00H	; `string'
CONST	ENDS
;	COMDAT ??_C@_0L@CMCBHHFJ@POINT_LIST?$AA@
CONST	SEGMENT
??_C@_0L@CMCBHHFJ@POINT_LIST?$AA@ DB 'POINT_LIST', 00H	; `string'
CONST	ENDS
;	COMDAT ??_C@_09HDPDJPHK@RECT_LIST?$AA@
CONST	SEGMENT
??_C@_09HDPDJPHK@RECT_LIST?$AA@ DB 'RECT_LIST', 00H	; `string'
; Function compile flags: /Ogty
CONST	ENDS
;	COMDAT ?LoadInformation@SkinManager@@QAE_NPBD@Z
_TEXT	SEGMENT
$T82731 = -425						; size = 1
$T82729 = -425						; size = 1
$T82727 = -425						; size = 1
$T82725 = -425						; size = 1
$T82723 = -425						; size = 1
$T82721 = -425						; size = 1
$T82719 = -425						; size = 1
$T82717 = -425						; size = 1
$T82730 = -424						; size = 12
$T82728 = -424						; size = 12
$T82726 = -424						; size = 12
$T82724 = -424						; size = 12
$T82722 = -424						; size = 12
$T82720 = -424						; size = 12
$T82718 = -424						; size = 12
$T82716 = -424						; size = 12
_MapStringToKey$ = -412					; size = 12
_this$ = -400						; size = 4
tv206 = -396						; size = 4
_rarfile$ = -392					; size = 40
_szType$76163 = -352					; size = 40
_szKey$76164 = -312					; size = 40
_szLine$ = -272						; size = 256
__$ArrayPad$ = -16					; size = 4
__$EHRec$ = -12						; size = 12
__$ReturnAddr$ = 4					; size = 4
_szFileName$ = 8					; size = 4
?LoadInformation@SkinManager@@QAE_NPBD@Z PROC NEAR	; SkinManager::LoadInformation, COMDAT
; _this$ = ecx

; 53   : {

  00000	6a ff		 push	 -1
  00002	68 00 00 00 00	 push	 __ehhandler$?LoadInformation@SkinManager@@QAE_NPBD@Z
  00007	64 a1 00 00 00
	00		 mov	 eax, DWORD PTR fs:__except_list
  0000d	50		 push	 eax
  0000e	64 89 25 00 00
	00 00		 mov	 DWORD PTR fs:__except_list, esp
  00015	81 ec a0 01 00
	00		 sub	 esp, 416		; 000001a0H
  0001b	a1 00 00 00 00	 mov	 eax, DWORD PTR ___security_cookie
  00020	53		 push	 ebx
  00021	55		 push	 ebp
  00022	56		 push	 esi
  00023	8b d9		 mov	 ebx, ecx
  00025	57		 push	 edi

; 54   : 	CRarFile rarfile;

  00026	8d 4c 24 34	 lea	 ecx, DWORD PTR _rarfile$[esp+444]
  0002a	89 84 24 ac 01
	00 00		 mov	 DWORD PTR __$ArrayPad$[esp+444], eax
  00031	89 5c 24 2c	 mov	 DWORD PTR _this$[esp+444], ebx
  00035	e8 00 00 00 00	 call	 ??0CRarFile@@QAE@XZ	; CRarFile::CRarFile

; 55   : 	rarfile.SetRAR(RPK_INFO,RPK_PASSWORD);

  0003a	68 00 00 00 00	 push	 OFFSET FLAT:??_C@_08NEOEAKGJ@cjdgorkr?$AA@
  0003f	33 ed		 xor	 ebp, ebp
  00041	68 00 00 00 00	 push	 OFFSET FLAT:??_C@_0BH@DGGGJIIO@data?2info?2infodata?4rpk?$AA@
  00046	8d 4c 24 3c	 lea	 ecx, DWORD PTR _rarfile$[esp+452]
  0004a	89 ac 24 c0 01
	00 00		 mov	 DWORD PTR __$EHRec$[esp+460], ebp
  00051	e8 00 00 00 00	 call	 ?SetRAR@CRarFile@@QAEXPBD0@Z ; CRarFile::SetRAR

; 56   : 	rarfile.Open(szFileName);

  00056	8b 84 24 c0 01
	00 00		 mov	 eax, DWORD PTR _szFileName$[esp+440]
  0005d	50		 push	 eax
  0005e	8d 4c 24 38	 lea	 ecx, DWORD PTR _rarfile$[esp+448]
  00062	e8 00 00 00 00	 call	 ?Open@CRarFile@@QAE_NPBD@Z ; CRarFile::Open

; 57   : 	
; 58   : 	if( !rarfile.IsSet() )

  00067	8b 4c 24 38	 mov	 ecx, DWORD PTR _rarfile$[esp+448]
  0006b	8b 74 24 34	 mov	 esi, DWORD PTR _rarfile$[esp+444]
  0006f	2b ce		 sub	 ecx, esi
  00071	75 31		 jne	 SHORT $L83624
  00073	33 c9		 xor	 ecx, ecx
  00075	bf 00 00 00 00	 mov	 edi, OFFSET FLAT:??_C@_00CNPNBAHC@?$AA@
  0007a	33 c0		 xor	 eax, eax
  0007c	f3 a6		 repe cmpsb
  0007e	74 05		 je	 SHORT $L83623
  00080	1b c0		 sbb	 eax, eax
  00082	83 d8 ff	 sbb	 eax, -1
$L83623:
  00085	3b c5		 cmp	 eax, ebp
  00087	75 1b		 jne	 SHORT $L83624

; 59   : 		return false;

  00089	8d 4c 24 34	 lea	 ecx, DWORD PTR _rarfile$[esp+444]
  0008d	c7 84 24 b8 01
	00 00 ff ff ff
	ff		 mov	 DWORD PTR __$EHRec$[esp+452], -1
  00098	e8 00 00 00 00	 call	 ??1CRarFile@@QAE@XZ	; CRarFile::~CRarFile
  0009d	32 c0		 xor	 al, al
  0009f	e9 59 04 00 00	 jmp	 $L75668
$L83624:

; 60   : 		
; 61   : 	Init( INTERFACE_MAX );

  000a4	6a 07		 push	 7
  000a6	8b cb		 mov	 ecx, ebx
  000a8	e8 00 00 00 00	 call	 ?Init@?$CTypeTable@VInterfaceInformation@@@@QAEXH@Z ; CTypeTable<InterfaceInformation>::Init

; 62   : 
; 63   : 	char szLine[256];
; 64   : 
; 65   : 	std::map< std::string, int >	MapStringToKey;

  000ad	6a 20		 push	 32			; 00000020H
  000af	89 6c 24 24	 mov	 DWORD PTR _MapStringToKey$[esp+448], ebp
  000b3	e8 00 00 00 00	 call	 ?_M_allocate@?$__node_alloc@$00$0A@@_STL@@CAPAXI@Z ; _STL::__node_alloc<1,0>::_M_allocate
  000b8	89 44 24 24	 mov	 DWORD PTR _MapStringToKey$[esp+448], eax
  000bc	89 6c 24 28	 mov	 DWORD PTR _MapStringToKey$[esp+452], ebp
  000c0	c6 00 00	 mov	 BYTE PTR [eax], 0
  000c3	8b 54 24 24	 mov	 edx, DWORD PTR _MapStringToKey$[esp+448]
  000c7	89 6a 04	 mov	 DWORD PTR [edx+4], ebp
  000ca	8b 44 24 24	 mov	 eax, DWORD PTR _MapStringToKey$[esp+448]
  000ce	89 40 08	 mov	 DWORD PTR [eax+8], eax
  000d1	8b 44 24 24	 mov	 eax, DWORD PTR _MapStringToKey$[esp+448]
  000d5	83 c4 04	 add	 esp, 4
  000d8	89 40 0c	 mov	 DWORD PTR [eax+12], eax

; 66   : 
; 67   : 	MapStringToKey["INFO"] = 0;

  000db	8d 44 24 13	 lea	 eax, DWORD PTR $T82717[esp+444]
  000df	50		 push	 eax
  000e0	68 00 00 00 00	 push	 OFFSET FLAT:??_C@_04BEADLPGM@INFO?$AA@
  000e5	8d 4c 24 1c	 lea	 ecx, DWORD PTR $T82716[esp+452]
  000e9	c6 84 24 c0 01
	00 00 01	 mov	 BYTE PTR __$EHRec$[esp+460], 1
  000f1	e8 00 00 00 00	 call	 ??0?$basic_string@DV?$char_traits@D@_STL@@V?$allocator@D@2@@_STL@@QAE@PBDABV?$allocator@D@1@@Z ; _STL::basic_string<char,_STL::char_traits<char>,_STL::allocator<char> >::basic_string<char,_STL::char_traits<char>,_STL::allocator<char> >
  000f6	8d 4c 24 14	 lea	 ecx, DWORD PTR $T82716[esp+444]
  000fa	51		 push	 ecx
  000fb	8d 4c 24 24	 lea	 ecx, DWORD PTR _MapStringToKey$[esp+448]
  000ff	c6 84 24 bc 01
	00 00 02	 mov	 BYTE PTR __$EHRec$[esp+456], 2
  00107	e8 00 00 00 00	 call	 ??A?$map@V?$basic_string@DV?$char_traits@D@_STL@@V?$allocator@D@2@@_STL@@HU?$less@V?$basic_string@DV?$char_traits@D@_STL@@V?$allocator@D@2@@_STL@@@2@V?$allocator@U?$pair@$$CBV?$basic_string@DV?$char_traits@D@_STL@@V?$allocator@D@2@@_STL@@H@_STL@@@2@@_STL@@QAEAAHABV?$basic_string@DV?$char_traits@D@_STL@@V?$allocator@D@2@@1@@Z ; _STL::map<_STL::basic_string<char,_STL::char_traits<char>,_STL::allocator<char> >,int,_STL::less<_STL::basic_string<char,_STL::char_traits<char>,_STL::allocator<char> > >,_STL::allocator<_STL::pair<_STL::basic_string<char,_STL::char_traits<char>,_STL::allocator<char> > const ,int> > >::operator[]
  0010c	89 28		 mov	 DWORD PTR [eax], ebp
  0010e	8b 4c 24 14	 mov	 ecx, DWORD PTR $T82716[esp+444]
  00112	8b 44 24 1c	 mov	 eax, DWORD PTR $T82716[esp+452]
  00116	2b c1		 sub	 eax, ecx
  00118	3b cd		 cmp	 ecx, ebp
  0011a	c6 84 24 b8 01
	00 00 01	 mov	 BYTE PTR __$EHRec$[esp+452], 1
  00122	74 1c		 je	 SHORT $L83625
  00124	3d 80 00 00 00	 cmp	 eax, 128		; 00000080H
  00129	76 0b		 jbe	 SHORT $L83025
  0012b	51		 push	 ecx
  0012c	e8 00 00 00 00	 call	 ??3@YAXPAX@Z		; operator delete
  00131	83 c4 04	 add	 esp, 4
  00134	eb 0a		 jmp	 SHORT $L83625
$L83025:
  00136	50		 push	 eax
  00137	51		 push	 ecx
  00138	e8 00 00 00 00	 call	 ?_M_deallocate@?$__node_alloc@$00$0A@@_STL@@CAXPAXI@Z ; _STL::__node_alloc<1,0>::_M_deallocate
  0013d	83 c4 08	 add	 esp, 8
$L83625:

; 68   : 	MapStringToKey["GAME_MENU"] = 1;

  00140	8d 54 24 13	 lea	 edx, DWORD PTR $T82719[esp+444]
  00144	52		 push	 edx
  00145	68 00 00 00 00	 push	 OFFSET FLAT:??_C@_09EBOIJGPI@GAME_MENU?$AA@
  0014a	8d 4c 24 1c	 lea	 ecx, DWORD PTR $T82718[esp+452]
  0014e	e8 00 00 00 00	 call	 ??0?$basic_string@DV?$char_traits@D@_STL@@V?$allocator@D@2@@_STL@@QAE@PBDABV?$allocator@D@1@@Z ; _STL::basic_string<char,_STL::char_traits<char>,_STL::allocator<char> >::basic_string<char,_STL::char_traits<char>,_STL::allocator<char> >
  00153	8d 44 24 14	 lea	 eax, DWORD PTR $T82718[esp+444]
  00157	50		 push	 eax
  00158	8d 4c 24 24	 lea	 ecx, DWORD PTR _MapStringToKey$[esp+448]
  0015c	c6 84 24 bc 01
	00 00 03	 mov	 BYTE PTR __$EHRec$[esp+456], 3
  00164	e8 00 00 00 00	 call	 ??A?$map@V?$basic_string@DV?$char_traits@D@_STL@@V?$allocator@D@2@@_STL@@HU?$less@V?$basic_string@DV?$char_traits@D@_STL@@V?$allocator@D@2@@_STL@@@2@V?$allocator@U?$pair@$$CBV?$basic_string@DV?$char_traits@D@_STL@@V?$allocator@D@2@@_STL@@H@_STL@@@2@@_STL@@QAEAAHABV?$basic_string@DV?$char_traits@D@_STL@@V?$allocator@D@2@@1@@Z ; _STL::map<_STL::basic_string<char,_STL::char_traits<char>,_STL::allocator<char> >,int,_STL::less<_STL::basic_string<char,_STL::char_traits<char>,_STL::allocator<char> > >,_STL::allocator<_STL::pair<_STL::basic_string<char,_STL::char_traits<char>,_STL::allocator<char> > const ,int> > >::operator[]
  00169	c7 00 01 00 00
	00		 mov	 DWORD PTR [eax], 1
  0016f	8b 4c 24 14	 mov	 ecx, DWORD PTR $T82718[esp+444]
  00173	8b 44 24 1c	 mov	 eax, DWORD PTR $T82718[esp+452]
  00177	2b c1		 sub	 eax, ecx
  00179	3b cd		 cmp	 ecx, ebp
  0017b	c6 84 24 b8 01
	00 00 01	 mov	 BYTE PTR __$EHRec$[esp+452], 1
  00183	74 1c		 je	 SHORT $L83627
  00185	3d 80 00 00 00	 cmp	 eax, 128		; 00000080H
  0018a	76 0b		 jbe	 SHORT $L83101
  0018c	51		 push	 ecx
  0018d	e8 00 00 00 00	 call	 ??3@YAXPAX@Z		; operator delete
  00192	83 c4 04	 add	 esp, 4
  00195	eb 0a		 jmp	 SHORT $L83627
$L83101:
  00197	50		 push	 eax
  00198	51		 push	 ecx
  00199	e8 00 00 00 00	 call	 ?_M_deallocate@?$__node_alloc@$00$0A@@_STL@@CAXPAXI@Z ; _STL::__node_alloc<1,0>::_M_deallocate
  0019e	83 c4 08	 add	 esp, 8
$L83627:

; 69   : 	MapStringToKey["OPTION"] = 2;

  001a1	8d 4c 24 13	 lea	 ecx, DWORD PTR $T82721[esp+444]
  001a5	51		 push	 ecx
  001a6	68 00 00 00 00	 push	 OFFSET FLAT:??_C@_06OCONPLCM@OPTION?$AA@
  001ab	8d 4c 24 1c	 lea	 ecx, DWORD PTR $T82720[esp+452]
  001af	e8 00 00 00 00	 call	 ??0?$basic_string@DV?$char_traits@D@_STL@@V?$allocator@D@2@@_STL@@QAE@PBDABV?$allocator@D@1@@Z ; _STL::basic_string<char,_STL::char_traits<char>,_STL::allocator<char> >::basic_string<char,_STL::char_traits<char>,_STL::allocator<char> >
  001b4	8d 54 24 14	 lea	 edx, DWORD PTR $T82720[esp+444]
  001b8	52		 push	 edx
  001b9	8d 4c 24 24	 lea	 ecx, DWORD PTR _MapStringToKey$[esp+448]
  001bd	c6 84 24 bc 01
	00 00 04	 mov	 BYTE PTR __$EHRec$[esp+456], 4
  001c5	e8 00 00 00 00	 call	 ??A?$map@V?$basic_string@DV?$char_traits@D@_STL@@V?$allocator@D@2@@_STL@@HU?$less@V?$basic_string@DV?$char_traits@D@_STL@@V?$allocator@D@2@@_STL@@@2@V?$allocator@U?$pair@$$CBV?$basic_string@DV?$char_traits@D@_STL@@V?$allocator@D@2@@_STL@@H@_STL@@@2@@_STL@@QAEAAHABV?$basic_string@DV?$char_traits@D@_STL@@V?$allocator@D@2@@1@@Z ; _STL::map<_STL::basic_string<char,_STL::char_traits<char>,_STL::allocator<char> >,int,_STL::less<_STL::basic_string<char,_STL::char_traits<char>,_STL::allocator<char> > >,_STL::allocator<_STL::pair<_STL::basic_string<char,_STL::char_traits<char>,_STL::allocator<char> > const ,int> > >::operator[]
  001ca	c7 00 02 00 00
	00		 mov	 DWORD PTR [eax], 2
  001d0	8b 4c 24 14	 mov	 ecx, DWORD PTR $T82720[esp+444]
  001d4	8b 44 24 1c	 mov	 eax, DWORD PTR $T82720[esp+452]
  001d8	2b c1		 sub	 eax, ecx
  001da	3b cd		 cmp	 ecx, ebp
  001dc	c6 84 24 b8 01
	00 00 01	 mov	 BYTE PTR __$EHRec$[esp+452], 1
  001e4	74 1c		 je	 SHORT $L83629
  001e6	3d 80 00 00 00	 cmp	 eax, 128		; 00000080H
  001eb	76 0b		 jbe	 SHORT $L83177
  001ed	51		 push	 ecx
  001ee	e8 00 00 00 00	 call	 ??3@YAXPAX@Z		; operator delete
  001f3	83 c4 04	 add	 esp, 4
  001f6	eb 0a		 jmp	 SHORT $L83629
$L83177:
  001f8	50		 push	 eax
  001f9	51		 push	 ecx
  001fa	e8 00 00 00 00	 call	 ?_M_deallocate@?$__node_alloc@$00$0A@@_STL@@CAXPAXI@Z ; _STL::__node_alloc<1,0>::_M_deallocate
  001ff	83 c4 08	 add	 esp, 8
$L83629:

; 70   : 	MapStringToKey["TITLE"] = 3;

  00202	8d 44 24 13	 lea	 eax, DWORD PTR $T82723[esp+444]
  00206	50		 push	 eax
  00207	68 00 00 00 00	 push	 OFFSET FLAT:??_C@_05DMCAHJJE@TITLE?$AA@
  0020c	8d 4c 24 1c	 lea	 ecx, DWORD PTR $T82722[esp+452]
  00210	e8 00 00 00 00	 call	 ??0?$basic_string@DV?$char_traits@D@_STL@@V?$allocator@D@2@@_STL@@QAE@PBDABV?$allocator@D@1@@Z ; _STL::basic_string<char,_STL::char_traits<char>,_STL::allocator<char> >::basic_string<char,_STL::char_traits<char>,_STL::allocator<char> >
  00215	8d 4c 24 14	 lea	 ecx, DWORD PTR $T82722[esp+444]
  00219	51		 push	 ecx
  0021a	8d 4c 24 24	 lea	 ecx, DWORD PTR _MapStringToKey$[esp+448]
  0021e	c6 84 24 bc 01
	00 00 05	 mov	 BYTE PTR __$EHRec$[esp+456], 5
  00226	e8 00 00 00 00	 call	 ??A?$map@V?$basic_string@DV?$char_traits@D@_STL@@V?$allocator@D@2@@_STL@@HU?$less@V?$basic_string@DV?$char_traits@D@_STL@@V?$allocator@D@2@@_STL@@@2@V?$allocator@U?$pair@$$CBV?$basic_string@DV?$char_traits@D@_STL@@V?$allocator@D@2@@_STL@@H@_STL@@@2@@_STL@@QAEAAHABV?$basic_string@DV?$char_traits@D@_STL@@V?$allocator@D@2@@1@@Z ; _STL::map<_STL::basic_string<char,_STL::char_traits<char>,_STL::allocator<char> >,int,_STL::less<_STL::basic_string<char,_STL::char_traits<char>,_STL::allocator<char> > >,_STL::allocator<_STL::pair<_STL::basic_string<char,_STL::char_traits<char>,_STL::allocator<char> > const ,int> > >::operator[]
  0022b	c7 00 03 00 00
	00		 mov	 DWORD PTR [eax], 3
  00231	8b 4c 24 14	 mov	 ecx, DWORD PTR $T82722[esp+444]
  00235	8b 44 24 1c	 mov	 eax, DWORD PTR $T82722[esp+452]
  00239	2b c1		 sub	 eax, ecx
  0023b	3b cd		 cmp	 ecx, ebp
  0023d	c6 84 24 b8 01
	00 00 01	 mov	 BYTE PTR __$EHRec$[esp+452], 1
  00245	74 1c		 je	 SHORT $L83630
  00247	3d 80 00 00 00	 cmp	 eax, 128		; 00000080H
  0024c	76 0b		 jbe	 SHORT $L83253
  0024e	51		 push	 ecx
  0024f	e8 00 00 00 00	 call	 ??3@YAXPAX@Z		; operator delete
  00254	83 c4 04	 add	 esp, 4
  00257	eb 0a		 jmp	 SHORT $L83630
$L83253:
  00259	50		 push	 eax
  0025a	51		 push	 ecx
  0025b	e8 00 00 00 00	 call	 ?_M_deallocate@?$__node_alloc@$00$0A@@_STL@@CAXPAXI@Z ; _STL::__node_alloc<1,0>::_M_deallocate
  00260	83 c4 08	 add	 esp, 8
$L83630:

; 71   : 	MapStringToKey["NEW_CHAR"] = 4;

  00263	8d 54 24 13	 lea	 edx, DWORD PTR $T82725[esp+444]
  00267	52		 push	 edx
  00268	68 00 00 00 00	 push	 OFFSET FLAT:??_C@_08MNFHBIDM@NEW_CHAR?$AA@
  0026d	8d 4c 24 1c	 lea	 ecx, DWORD PTR $T82724[esp+452]
  00271	e8 00 00 00 00	 call	 ??0?$basic_string@DV?$char_traits@D@_STL@@V?$allocator@D@2@@_STL@@QAE@PBDABV?$allocator@D@1@@Z ; _STL::basic_string<char,_STL::char_traits<char>,_STL::allocator<char> >::basic_string<char,_STL::char_traits<char>,_STL::allocator<char> >
  00276	8d 44 24 14	 lea	 eax, DWORD PTR $T82724[esp+444]
  0027a	50		 push	 eax
  0027b	8d 4c 24 24	 lea	 ecx, DWORD PTR _MapStringToKey$[esp+448]
  0027f	c6 84 24 bc 01
	00 00 06	 mov	 BYTE PTR __$EHRec$[esp+456], 6
  00287	e8 00 00 00 00	 call	 ??A?$map@V?$basic_string@DV?$char_traits@D@_STL@@V?$allocator@D@2@@_STL@@HU?$less@V?$basic_string@DV?$char_traits@D@_STL@@V?$allocator@D@2@@_STL@@@2@V?$allocator@U?$pair@$$CBV?$basic_string@DV?$char_traits@D@_STL@@V?$allocator@D@2@@_STL@@H@_STL@@@2@@_STL@@QAEAAHABV?$basic_string@DV?$char_traits@D@_STL@@V?$allocator@D@2@@1@@Z ; _STL::map<_STL::basic_string<char,_STL::char_traits<char>,_STL::allocator<char> >,int,_STL::less<_STL::basic_string<char,_STL::char_traits<char>,_STL::allocator<char> > >,_STL::allocator<_STL::pair<_STL::basic_string<char,_STL::char_traits<char>,_STL::allocator<char> > const ,int> > >::operator[]
  0028c	c7 00 04 00 00
	00		 mov	 DWORD PTR [eax], 4
  00292	8b 4c 24 14	 mov	 ecx, DWORD PTR $T82724[esp+444]
  00296	8b 44 24 1c	 mov	 eax, DWORD PTR $T82724[esp+452]
  0029a	2b c1		 sub	 eax, ecx
  0029c	3b cd		 cmp	 ecx, ebp
  0029e	c6 84 24 b8 01
	00 00 01	 mov	 BYTE PTR __$EHRec$[esp+452], 1
  002a6	74 1c		 je	 SHORT $L83631
  002a8	3d 80 00 00 00	 cmp	 eax, 128		; 00000080H
  002ad	76 0b		 jbe	 SHORT $L83329
  002af	51		 push	 ecx
  002b0	e8 00 00 00 00	 call	 ??3@YAXPAX@Z		; operator delete
  002b5	83 c4 04	 add	 esp, 4
  002b8	eb 0a		 jmp	 SHORT $L83631
$L83329:
  002ba	50		 push	 eax
  002bb	51		 push	 ecx
  002bc	e8 00 00 00 00	 call	 ?_M_deallocate@?$__node_alloc@$00$0A@@_STL@@CAXPAXI@Z ; _STL::__node_alloc<1,0>::_M_deallocate
  002c1	83 c4 08	 add	 esp, 8
$L83631:

; 72   : 	MapStringToKey["LOGIN_1024_768"] = 5;

  002c4	8d 4c 24 13	 lea	 ecx, DWORD PTR $T82727[esp+444]
  002c8	51		 push	 ecx
  002c9	68 00 00 00 00	 push	 OFFSET FLAT:??_C@_0P@ONEMFDMP@LOGIN_1024_768?$AA@
  002ce	8d 4c 24 1c	 lea	 ecx, DWORD PTR $T82726[esp+452]
  002d2	e8 00 00 00 00	 call	 ??0?$basic_string@DV?$char_traits@D@_STL@@V?$allocator@D@2@@_STL@@QAE@PBDABV?$allocator@D@1@@Z ; _STL::basic_string<char,_STL::char_traits<char>,_STL::allocator<char> >::basic_string<char,_STL::char_traits<char>,_STL::allocator<char> >
  002d7	8d 54 24 14	 lea	 edx, DWORD PTR $T82726[esp+444]
  002db	52		 push	 edx
  002dc	8d 4c 24 24	 lea	 ecx, DWORD PTR _MapStringToKey$[esp+448]
  002e0	c6 84 24 bc 01
	00 00 07	 mov	 BYTE PTR __$EHRec$[esp+456], 7
  002e8	e8 00 00 00 00	 call	 ??A?$map@V?$basic_string@DV?$char_traits@D@_STL@@V?$allocator@D@2@@_STL@@HU?$less@V?$basic_string@DV?$char_traits@D@_STL@@V?$allocator@D@2@@_STL@@@2@V?$allocator@U?$pair@$$CBV?$basic_string@DV?$char_traits@D@_STL@@V?$allocator@D@2@@_STL@@H@_STL@@@2@@_STL@@QAEAAHABV?$basic_string@DV?$char_traits@D@_STL@@V?$allocator@D@2@@1@@Z ; _STL::map<_STL::basic_string<char,_STL::char_traits<char>,_STL::allocator<char> >,int,_STL::less<_STL::basic_string<char,_STL::char_traits<char>,_STL::allocator<char> > >,_STL::allocator<_STL::pair<_STL::basic_string<char,_STL::char_traits<char>,_STL::allocator<char> > const ,int> > >::operator[]
  002ed	c7 00 05 00 00
	00		 mov	 DWORD PTR [eax], 5
  002f3	8b 4c 24 14	 mov	 ecx, DWORD PTR $T82726[esp+444]
  002f7	8b 44 24 1c	 mov	 eax, DWORD PTR $T82726[esp+452]
  002fb	2b c1		 sub	 eax, ecx
  002fd	3b cd		 cmp	 ecx, ebp
  002ff	c6 84 24 b8 01
	00 00 01	 mov	 BYTE PTR __$EHRec$[esp+452], 1
  00307	74 1c		 je	 SHORT $L83632
  00309	3d 80 00 00 00	 cmp	 eax, 128		; 00000080H
  0030e	76 0b		 jbe	 SHORT $L83405
  00310	51		 push	 ecx
  00311	e8 00 00 00 00	 call	 ??3@YAXPAX@Z		; operator delete
  00316	83 c4 04	 add	 esp, 4
  00319	eb 0a		 jmp	 SHORT $L83632
$L83405:
  0031b	50		 push	 eax
  0031c	51		 push	 ecx
  0031d	e8 00 00 00 00	 call	 ?_M_deallocate@?$__node_alloc@$00$0A@@_STL@@CAXPAXI@Z ; _STL::__node_alloc<1,0>::_M_deallocate
  00322	83 c4 08	 add	 esp, 8
$L83632:

; 73   : 	MapStringToKey["LOGIN_800_600"] = 6;

  00325	8d 44 24 13	 lea	 eax, DWORD PTR $T82729[esp+444]
  00329	50		 push	 eax
  0032a	68 00 00 00 00	 push	 OFFSET FLAT:??_C@_0O@HFIMKCOI@LOGIN_800_600?$AA@
  0032f	8d 4c 24 1c	 lea	 ecx, DWORD PTR $T82728[esp+452]
  00333	e8 00 00 00 00	 call	 ??0?$basic_string@DV?$char_traits@D@_STL@@V?$allocator@D@2@@_STL@@QAE@PBDABV?$allocator@D@1@@Z ; _STL::basic_string<char,_STL::char_traits<char>,_STL::allocator<char> >::basic_string<char,_STL::char_traits<char>,_STL::allocator<char> >
  00338	8d 4c 24 14	 lea	 ecx, DWORD PTR $T82728[esp+444]
  0033c	51		 push	 ecx
  0033d	8d 4c 24 24	 lea	 ecx, DWORD PTR _MapStringToKey$[esp+448]
  00341	c6 84 24 bc 01
	00 00 08	 mov	 BYTE PTR __$EHRec$[esp+456], 8
  00349	e8 00 00 00 00	 call	 ??A?$map@V?$basic_string@DV?$char_traits@D@_STL@@V?$allocator@D@2@@_STL@@HU?$less@V?$basic_string@DV?$char_traits@D@_STL@@V?$allocator@D@2@@_STL@@@2@V?$allocator@U?$pair@$$CBV?$basic_string@DV?$char_traits@D@_STL@@V?$allocator@D@2@@_STL@@H@_STL@@@2@@_STL@@QAEAAHABV?$basic_string@DV?$char_traits@D@_STL@@V?$allocator@D@2@@1@@Z ; _STL::map<_STL::basic_string<char,_STL::char_traits<char>,_STL::allocator<char> >,int,_STL::less<_STL::basic_string<char,_STL::char_traits<char>,_STL::allocator<char> > >,_STL::allocator<_STL::pair<_STL::basic_string<char,_STL::char_traits<char>,_STL::allocator<char> > const ,int> > >::operator[]
  0034e	c7 00 06 00 00
	00		 mov	 DWORD PTR [eax], 6
  00354	8b 4c 24 14	 mov	 ecx, DWORD PTR $T82728[esp+444]
  00358	8b 44 24 1c	 mov	 eax, DWORD PTR $T82728[esp+452]
  0035c	2b c1		 sub	 eax, ecx
  0035e	3b cd		 cmp	 ecx, ebp
  00360	c6 84 24 b8 01
	00 00 01	 mov	 BYTE PTR __$EHRec$[esp+452], 1
  00368	74 1c		 je	 SHORT $L83482
  0036a	3d 80 00 00 00	 cmp	 eax, 128		; 00000080H
  0036f	76 0b		 jbe	 SHORT $L83481
  00371	51		 push	 ecx
  00372	e8 00 00 00 00	 call	 ??3@YAXPAX@Z		; operator delete
  00377	83 c4 04	 add	 esp, 4
  0037a	eb 0a		 jmp	 SHORT $L83482
$L83481:
  0037c	50		 push	 eax
  0037d	51		 push	 ecx
  0037e	e8 00 00 00 00	 call	 ?_M_deallocate@?$__node_alloc@$00$0A@@_STL@@CAXPAXI@Z ; _STL::__node_alloc<1,0>::_M_deallocate
  00383	83 c4 08	 add	 esp, 8
$L83482:

; 74   : 
; 75   : 	while( rarfile.GetString( szLine, 256 ) )

  00386	68 00 01 00 00	 push	 256			; 00000100H
  0038b	8d 94 24 b0 00
	00 00		 lea	 edx, DWORD PTR _szLine$[esp+448]
  00392	52		 push	 edx
  00393	8d 4c 24 3c	 lea	 ecx, DWORD PTR _rarfile$[esp+452]
  00397	e8 00 00 00 00	 call	 ?GetString@CRarFile@@QAE_NPADH@Z ; CRarFile::GetString
  0039c	84 c0		 test	 al, al
  0039e	0f 84 29 01 00
	00		 je	 $L76158
  003a4	eb 0a 8d a4 24
	00 00 00 00 8d
	49 00		 npad	 12
$L76157:

; 76   : 	{
; 77   : 		if( szLine[0] == ';' ) continue;

  003b0	8a 9c 24 ac 00
	00 00		 mov	 bl, BYTE PTR _szLine$[esp+444]
  003b7	80 fb 3b	 cmp	 bl, 59			; 0000003bH
  003ba	0f 84 ef 00 00
	00		 je	 $L83626

; 78   : 		if( strlen(szLine) <= 0 ) continue;

  003c0	8d 84 24 ac 00
	00 00		 lea	 eax, DWORD PTR _szLine$[esp+444]
  003c7	8d 50 01	 lea	 edx, DWORD PTR [eax+1]
  003ca	8d 9b 00 00 00
	00		 npad	 6
$L83620:
  003d0	8a 08		 mov	 cl, BYTE PTR [eax]
  003d2	40		 inc	 eax
  003d3	84 c9		 test	 cl, cl
  003d5	75 f9		 jne	 SHORT $L83620
  003d7	2b c2		 sub	 eax, edx
  003d9	89 44 24 30	 mov	 DWORD PTR tv206[esp+444], eax
  003dd	0f 84 cc 00 00
	00		 je	 $L83626

; 79   : 
; 80   : 		if( szLine[0] == '*' )

  003e3	80 fb 2a	 cmp	 bl, 42			; 0000002aH
  003e6	0f 85 c3 00 00
	00		 jne	 $L83626

; 81   : 		{
; 82   : 			int key;
; 83   : 			char szType[40],szKey[40];
; 84   : 			sscanf( szLine+1, "%s %s", szKey,szType);

  003ec	8d 44 24 5c	 lea	 eax, DWORD PTR _szType$76163[esp+444]
  003f0	50		 push	 eax
  003f1	8d 8c 24 88 00
	00 00		 lea	 ecx, DWORD PTR _szKey$76164[esp+448]
  003f8	51		 push	 ecx
  003f9	8d 94 24 b5 00
	00 00		 lea	 edx, DWORD PTR _szLine$[esp+453]
  00400	68 00 00 00 00	 push	 OFFSET FLAT:??_C@_05DNIIFBMG@?$CFs?5?$CFs?$AA@
  00405	52		 push	 edx
  00406	e8 00 00 00 00	 call	 _sscanf
  0040b	83 c4 10	 add	 esp, 16			; 00000010H

; 85   : 
; 86   : 			std::map< std::string, int >::iterator itr = MapStringToKey.find( szKey );

  0040e	8d 44 24 13	 lea	 eax, DWORD PTR $T82731[esp+444]
  00412	50		 push	 eax
  00413	8d 8c 24 88 00
	00 00		 lea	 ecx, DWORD PTR _szKey$76164[esp+448]
  0041a	51		 push	 ecx
  0041b	8d 4c 24 1c	 lea	 ecx, DWORD PTR $T82730[esp+452]
  0041f	e8 00 00 00 00	 call	 ??0?$basic_string@DV?$char_traits@D@_STL@@V?$allocator@D@2@@_STL@@QAE@PBDABV?$allocator@D@1@@Z ; _STL::basic_string<char,_STL::char_traits<char>,_STL::allocator<char> >::basic_string<char,_STL::char_traits<char>,_STL::allocator<char> >
  00424	8d 54 24 14	 lea	 edx, DWORD PTR $T82730[esp+444]
  00428	52		 push	 edx
  00429	8d 4c 24 24	 lea	 ecx, DWORD PTR _MapStringToKey$[esp+448]
  0042d	e8 00 00 00 00	 call	 ??$_M_find@V?$basic_string@DV?$char_traits@D@_STL@@V?$allocator@D@2@@_STL@@@?$_Rb_tree@V?$basic_string@DV?$char_traits@D@_STL@@V?$allocator@D@2@@_STL@@U?$pair@$$CBV?$basic_string@DV?$char_traits@D@_STL@@V?$allocator@D@2@@_STL@@H@2@U?$_Select1st@U?$pair@$$CBV?$basic_string@DV?$char_traits@D@_STL@@V?$allocator@D@2@@_STL@@H@_STL@@@2@U?$less@V?$basic_string@DV?$char_traits@D@_STL@@V?$allocator@D@2@@_STL@@@2@V?$allocator@U?$pair@$$CBV?$basic_string@DV?$char_traits@D@_STL@@V?$allocator@D@2@@_STL@@H@_STL@@@2@@_STL@@ABEPAU?$_Rb_tree_node@U?$pair@$$CBV?$basic_string@DV?$char_traits@D@_STL@@V?$allocator@D@2@@_STL@@H@_STL@@@1@ABV?$basic_string@DV?$char_traits@D@_STL@@V?$allocator@D@2@@1@@Z ; _STL::_Rb_tree<_STL::basic_string<char,_STL::char_traits<char>,_STL::allocator<char> >,_STL::pair<_STL::basic_string<char,_STL::char_traits<char>,_STL::allocator<char> > const ,int>,_STL::_Select1st<_STL::pair<_STL::basic_string<char,_STL::char_traits<char>,_STL::allocator<char> > const ,int> >,_STL::less<_STL::basic_string<char,_STL::char_traits<char>,_STL::allocator<char> > >,_STL::allocator<_STL::pair<_STL::basic_string<char,_STL::char_traits<char>,_STL::allocator<char> > const ,int> > >::_M_find<_STL::basic_string<char,_STL::char_traits<char>,_STL::allocator<char> > >
  00432	8b 4c 24 14	 mov	 ecx, DWORD PTR $T82730[esp+444]
  00436	8b f0		 mov	 esi, eax
  00438	8b 44 24 1c	 mov	 eax, DWORD PTR $T82730[esp+452]
  0043c	2b c1		 sub	 eax, ecx
  0043e	3b cd		 cmp	 ecx, ebp
  00440	74 1c		 je	 SHORT $L83574
  00442	3d 80 00 00 00	 cmp	 eax, 128		; 00000080H
  00447	76 0b		 jbe	 SHORT $L83573
  00449	51		 push	 ecx
  0044a	e8 00 00 00 00	 call	 ??3@YAXPAX@Z		; operator delete
  0044f	83 c4 04	 add	 esp, 4
  00452	eb 0a		 jmp	 SHORT $L83574
$L83573:
  00454	50		 push	 eax
  00455	51		 push	 ecx
  00456	e8 00 00 00 00	 call	 ?_M_deallocate@?$__node_alloc@$00$0A@@_STL@@CAXPAXI@Z ; _STL::__node_alloc<1,0>::_M_deallocate
  0045b	83 c4 08	 add	 esp, 8
$L83574:

; 87   : 			if(  itr != MapStringToKey.end() )

  0045e	3b 74 24 20	 cmp	 esi, DWORD PTR _MapStringToKey$[esp+444]
  00462	74 4b		 je	 SHORT $L83626

; 88   : 			{		
; 89   : 				key = itr->second;

  00464	8b 46 1c	 mov	 eax, DWORD PTR [esi+28]

; 90   : 				if( !strcmp( szType, "POINT_LIST" ) )

  00467	bf 00 00 00 00	 mov	 edi, OFFSET FLAT:??_C@_0L@CMCBHHFJ@POINT_LIST?$AA@
  0046c	8d 74 24 5c	 lea	 esi, DWORD PTR _szType$76163[esp+444]
  00470	b9 0b 00 00 00	 mov	 ecx, 11			; 0000000bH
  00475	33 d2		 xor	 edx, edx
  00477	f3 a6		 repe cmpsb
  00479	75 11		 jne	 SHORT $L76230

; 91   : 					LoadPointList( key, reinterpret_cast<void*>(&rarfile) );			

  0047b	8d 4c 24 34	 lea	 ecx, DWORD PTR _rarfile$[esp+444]
  0047f	51		 push	 ecx
  00480	8b 4c 24 30	 mov	 ecx, DWORD PTR _this$[esp+448]
  00484	50		 push	 eax
  00485	e8 00 00 00 00	 call	 ?LoadPointList@SkinManager@@IAEXHPAX@Z ; SkinManager::LoadPointList

; 92   : 				else if ( !strcmp( szType, "RECT_LIST" ) )

  0048a	eb 23		 jmp	 SHORT $L83626
$L76230:
  0048c	bf 00 00 00 00	 mov	 edi, OFFSET FLAT:??_C@_09HDPDJPHK@RECT_LIST?$AA@
  00491	8d 74 24 5c	 lea	 esi, DWORD PTR _szType$76163[esp+444]
  00495	b9 0a 00 00 00	 mov	 ecx, 10			; 0000000aH
  0049a	33 d2		 xor	 edx, edx
  0049c	f3 a6		 repe cmpsb
  0049e	75 0f		 jne	 SHORT $L83626

; 93   : 					LoadRectList( key, reinterpret_cast<void*>(&rarfile) );			

  004a0	8d 4c 24 34	 lea	 ecx, DWORD PTR _rarfile$[esp+444]
  004a4	51		 push	 ecx
  004a5	8b 4c 24 30	 mov	 ecx, DWORD PTR _this$[esp+448]
  004a9	50		 push	 eax
  004aa	e8 00 00 00 00	 call	 ?LoadRectList@SkinManager@@IAEXHPAX@Z ; SkinManager::LoadRectList
$L83626:
  004af	68 00 01 00 00	 push	 256			; 00000100H
  004b4	8d 94 24 b0 00
	00 00		 lea	 edx, DWORD PTR _szLine$[esp+448]
  004bb	52		 push	 edx
  004bc	8d 4c 24 3c	 lea	 ecx, DWORD PTR _rarfile$[esp+452]
  004c0	e8 00 00 00 00	 call	 ?GetString@CRarFile@@QAE_NPADH@Z ; CRarFile::GetString
  004c5	84 c0		 test	 al, al
  004c7	0f 85 e3 fe ff
	ff		 jne	 $L76157
$L76158:

; 94   : 			}
; 95   : 		}
; 96   : 	}
; 97   : 	rarfile.Release();

  004cd	8d 4c 24 34	 lea	 ecx, DWORD PTR _rarfile$[esp+444]
  004d1	e8 00 00 00 00	 call	 ?Release@CRarFile@@QAEXXZ ; CRarFile::Release

; 98   : 	return true;

  004d6	8d 4c 24 20	 lea	 ecx, DWORD PTR _MapStringToKey$[esp+444]
  004da	c6 84 24 b8 01
	00 00 00	 mov	 BYTE PTR __$EHRec$[esp+452], 0
  004e2	e8 00 00 00 00	 call	 ??1?$_Rb_tree@V?$basic_string@DV?$char_traits@D@_STL@@V?$allocator@D@2@@_STL@@U?$pair@$$CBV?$basic_string@DV?$char_traits@D@_STL@@V?$allocator@D@2@@_STL@@H@2@U?$_Select1st@U?$pair@$$CBV?$basic_string@DV?$char_traits@D@_STL@@V?$allocator@D@2@@_STL@@H@_STL@@@2@U?$less@V?$basic_string@DV?$char_traits@D@_STL@@V?$allocator@D@2@@_STL@@@2@V?$allocator@U?$pair@$$CBV?$basic_string@DV?$char_traits@D@_STL@@V?$allocator@D@2@@_STL@@H@_STL@@@2@@_STL@@QAE@XZ ; _STL::_Rb_tree<_STL::basic_string<char,_STL::char_traits<char>,_STL::allocator<char> >,_STL::pair<_STL::basic_string<char,_STL::char_traits<char>,_STL::allocator<char> > const ,int>,_STL::_Select1st<_STL::pair<_STL::basic_string<char,_STL::char_traits<char>,_STL::allocator<char> > const ,int> >,_STL::less<_STL::basic_string<char,_STL::char_traits<char>,_STL::allocator<char> > >,_STL::allocator<_STL::pair<_STL::basic_string<char,_STL::char_traits<char>,_STL::allocator<char> > const ,int> > >::~_Rb_tree<_STL::basic_string<char,_STL::char_traits<char>,_STL::allocator<char> >,_STL::pair<_STL::basic_string<char,_STL::char_traits<char>,_STL::allocator<char> > const ,int>,_STL::_Select1st<_STL::pair<_STL::basic_string<char,_STL::char_traits<char>,_STL::allocator<char> > const ,int> >,_STL::less<_STL::basic_string<char,_STL::char_traits<char>,_STL::allocator<char> > >,_STL::allocator<_STL::pair<_STL::basic_string<char,_STL::char_traits<char>,_STL::allocator<char> > const ,int> > >
  004e7	8d 4c 24 34	 lea	 ecx, DWORD PTR _rarfile$[esp+444]
  004eb	c7 84 24 b8 01
	00 00 ff ff ff
	ff		 mov	 DWORD PTR __$EHRec$[esp+452], -1
  004f6	e8 00 00 00 00	 call	 ??1CRarFile@@QAE@XZ	; CRarFile::~CRarFile
  004fb	b0 01		 mov	 al, 1
$L75668:

; 99   : }

  004fd	8b 8c 24 b0 01
	00 00		 mov	 ecx, DWORD PTR __$EHRec$[esp+444]
  00504	5f		 pop	 edi
  00505	5e		 pop	 esi
  00506	5d		 pop	 ebp
  00507	64 89 0d 00 00
	00 00		 mov	 DWORD PTR fs:__except_list, ecx
  0050e	8b 8c 24 a0 01
	00 00		 mov	 ecx, DWORD PTR __$ArrayPad$[esp+432]
  00515	5b		 pop	 ebx
  00516	e8 00 00 00 00	 call	 @__security_check_cookie@4
  0051b	81 c4 ac 01 00
	00		 add	 esp, 428		; 000001acH
  00521	c2 04 00	 ret	 4
_TEXT	ENDS
;	COMDAT text$x
text$x	SEGMENT
$L82734:
  00000	8d 8d 78 fe ff
	ff		 lea	 ecx, DWORD PTR _rarfile$[ebp]
  00006	e9 00 00 00 00	 jmp	 ??1CRarFile@@QAE@XZ	; CRarFile::~CRarFile
$L82735:
  0000b	8d 8d 64 fe ff
	ff		 lea	 ecx, DWORD PTR _MapStringToKey$[ebp]
  00011	e9 00 00 00 00	 jmp	 ??1?$map@V?$basic_string@DV?$char_traits@D@_STL@@V?$allocator@D@2@@_STL@@HU?$less@V?$basic_string@DV?$char_traits@D@_STL@@V?$allocator@D@2@@_STL@@@2@V?$allocator@U?$pair@$$CBV?$basic_string@DV?$char_traits@D@_STL@@V?$allocator@D@2@@_STL@@H@_STL@@@2@@_STL@@QAE@XZ
$L82736:
  00016	8d 8d 58 fe ff
	ff		 lea	 ecx, DWORD PTR $T82716[ebp]
  0001c	e9 00 00 00 00	 jmp	 ??1?$basic_string@DV?$char_traits@D@_STL@@V?$allocator@D@2@@_STL@@QAE@XZ ; _STL::basic_string<char,_STL::char_traits<char>,_STL::allocator<char> >::~basic_string<char,_STL::char_traits<char>,_STL::allocator<char> >
$L82737:
  00021	8d 8d 58 fe ff
	ff		 lea	 ecx, DWORD PTR $T82718[ebp]
  00027	e9 00 00 00 00	 jmp	 ??1?$basic_string@DV?$char_traits@D@_STL@@V?$allocator@D@2@@_STL@@QAE@XZ ; _STL::basic_string<char,_STL::char_traits<char>,_STL::allocator<char> >::~basic_string<char,_STL::char_traits<char>,_STL::allocator<char> >
$L82738:
  0002c	8d 8d 58 fe ff
	ff		 lea	 ecx, DWORD PTR $T82720[ebp]
  00032	e9 00 00 00 00	 jmp	 ??1?$basic_string@DV?$char_traits@D@_STL@@V?$allocator@D@2@@_STL@@QAE@XZ ; _STL::basic_string<char,_STL::char_traits<char>,_STL::allocator<char> >::~basic_string<char,_STL::char_traits<char>,_STL::allocator<char> >
$L82739:
  00037	8d 8d 58 fe ff
	ff		 lea	 ecx, DWORD PTR $T82722[ebp]
  0003d	e9 00 00 00 00	 jmp	 ??1?$basic_string@DV?$char_traits@D@_STL@@V?$allocator@D@2@@_STL@@QAE@XZ ; _STL::basic_string<char,_STL::char_traits<char>,_STL::allocator<char> >::~basic_string<char,_STL::char_traits<char>,_STL::allocator<char> >
$L82740:
  00042	8d 8d 58 fe ff
	ff		 lea	 ecx, DWORD PTR $T82724[ebp]
  00048	e9 00 00 00 00	 jmp	 ??1?$basic_string@DV?$char_traits@D@_STL@@V?$allocator@D@2@@_STL@@QAE@XZ ; _STL::basic_string<char,_STL::char_traits<char>,_STL::allocator<char> >::~basic_string<char,_STL::char_traits<char>,_STL::allocator<char> >
$L82741:
  0004d	8d 8d 58 fe ff
	ff		 lea	 ecx, DWORD PTR $T82726[ebp]
  00053	e9 00 00 00 00	 jmp	 ??1?$basic_string@DV?$char_traits@D@_STL@@V?$allocator@D@2@@_STL@@QAE@XZ ; _STL::basic_string<char,_STL::char_traits<char>,_STL::allocator<char> >::~basic_string<char,_STL::char_traits<char>,_STL::allocator<char> >
$L82742:
  00058	8d 8d 58 fe ff
	ff		 lea	 ecx, DWORD PTR $T82728[ebp]
  0005e	e9 00 00 00 00	 jmp	 ??1?$basic_string@DV?$char_traits@D@_STL@@V?$allocator@D@2@@_STL@@QAE@XZ ; _STL::basic_string<char,_STL::char_traits<char>,_STL::allocator<char> >::~basic_string<char,_STL::char_traits<char>,_STL::allocator<char> >
__ehhandler$?LoadInformation@SkinManager@@QAE_NPBD@Z:
  00063	b8 00 00 00 00	 mov	 eax, OFFSET FLAT:$T83614
  00068	e9 00 00 00 00	 jmp	 ___CxxFrameHandler
text$x	ENDS
?LoadInformation@SkinManager@@QAE_NPBD@Z ENDP		; SkinManager::LoadInformation
END
