; Listing generated by Microsoft (R) Optimizing Compiler Version 13.10.3077 

	TITLE	\darkeden\Designed_Common\Project\New - vs_ui\src\widget\u_button.cpp
	.386P
include listing.inc
if @Version gt 510
.model FLAT
else
_TEXT	SEGMENT PARA USE32 PUBLIC 'CODE'
_TEXT	ENDS
_DATA	SEGMENT DWORD USE32 PUBLIC 'DATA'
_DATA	ENDS
CONST	SEGMENT DWORD USE32 PUBLIC 'CONST'
CONST	ENDS
_BSS	SEGMENT DWORD USE32 PUBLIC 'BSS'
_BSS	ENDS
$$SYMBOLS	SEGMENT BYTE USE32 'DEBSYM'
$$SYMBOLS	ENDS
$$TYPES	SEGMENT BYTE USE32 'DEBTYP'
$$TYPES	ENDS
_TLS	SEGMENT DWORD USE32 PUBLIC 'TLS'
_TLS	ENDS
rdata$r	SEGMENT DWORD USE32 PUBLIC 'CONST'
rdata$r	ENDS
text$yc	SEGMENT PARA USE32 PUBLIC 'CODE'
text$yc	ENDS
CRT$XCA	SEGMENT DWORD USE32 PUBLIC 'DATA'
CRT$XCA	ENDS
CRT$XCU	SEGMENT DWORD USE32 PUBLIC 'DATA'
CRT$XCU	ENDS
CRT$XCL	SEGMENT DWORD USE32 PUBLIC 'DATA'
CRT$XCL	ENDS
CRT$XCC	SEGMENT DWORD USE32 PUBLIC 'DATA'
CRT$XCC	ENDS
CRT$XCZ	SEGMENT DWORD USE32 PUBLIC 'DATA'
CRT$XCZ	ENDS
text$yd	SEGMENT PARA USE32 PUBLIC 'CODE'
text$yd	ENDS
;	COMDAT ?EventFocusOn@EventButton@@UAEXXZ
_TEXT	SEGMENT PARA USE32 PUBLIC 'CODE'
_TEXT	ENDS
;	COMDAT ?EventFocusOff@EventButton@@UAEXXZ
_TEXT	SEGMENT PARA USE32 PUBLIC 'CODE'
_TEXT	ENDS
;	COMDAT ?EventPressDown@EventButton@@UAEXXZ
_TEXT	SEGMENT PARA USE32 PUBLIC 'CODE'
_TEXT	ENDS
;	COMDAT ?EventPressUp@EventButton@@UAEXXZ
_TEXT	SEGMENT PARA USE32 PUBLIC 'CODE'
_TEXT	ENDS
;	COMDAT ??0EventButton@@QAE@HHHHKPAVExec@@W4ClickOption@Button@@@Z
_TEXT	SEGMENT PARA USE32 PUBLIC 'CODE'
_TEXT	ENDS
;	COMDAT ??_GEventButton@@UAEPAXI@Z
_TEXT	SEGMENT PARA USE32 PUBLIC 'CODE'
_TEXT	ENDS
;	COMDAT ??1EventButton@@UAE@XZ
_TEXT	SEGMENT PARA USE32 PUBLIC 'CODE'
_TEXT	ENDS
;	COMDAT ?InitState@EventButton@@UAEXXZ
_TEXT	SEGMENT PARA USE32 PUBLIC 'CODE'
_TEXT	ENDS
;	COMDAT ?MouseControl@EventButton@@UAE_NIHH@Z
_TEXT	SEGMENT PARA USE32 PUBLIC 'CODE'
_TEXT	ENDS
;	COMDAT ??0ButtonBase@@QAE@XZ
_TEXT	SEGMENT PARA USE32 PUBLIC 'CODE'
_TEXT	ENDS
;	COMDAT ??_GButtonBase@@UAEPAXI@Z
_TEXT	SEGMENT PARA USE32 PUBLIC 'CODE'
_TEXT	ENDS
;	COMDAT ??1ButtonBase@@UAE@XZ
_TEXT	SEGMENT PARA USE32 PUBLIC 'CODE'
_TEXT	ENDS
;	COMDAT ?InitState@ButtonBase@@UAEXXZ
_TEXT	SEGMENT PARA USE32 PUBLIC 'CODE'
_TEXT	ENDS
;	COMDAT ?FocusOn@ButtonBase@@QAEXXZ
_TEXT	SEGMENT PARA USE32 PUBLIC 'CODE'
_TEXT	ENDS
;	COMDAT ?FocusOff@ButtonBase@@QAEXXZ
_TEXT	SEGMENT PARA USE32 PUBLIC 'CODE'
_TEXT	ENDS
;	COMDAT ?PressDown@ButtonBase@@QAEXXZ
_TEXT	SEGMENT PARA USE32 PUBLIC 'CODE'
_TEXT	ENDS
;	COMDAT ?PressUp@ButtonBase@@QAEXXZ
_TEXT	SEGMENT PARA USE32 PUBLIC 'CODE'
_TEXT	ENDS
;	COMDAT ?GetFocusState@ButtonBase@@QBE_NXZ
_TEXT	SEGMENT PARA USE32 PUBLIC 'CODE'
_TEXT	ENDS
;	COMDAT ?GetPressState@ButtonBase@@QBE_NXZ
_TEXT	SEGMENT PARA USE32 PUBLIC 'CODE'
_TEXT	ENDS
;	COMDAT ??0Button@@QAE@HHHHKPAVExec@@W4ClickOption@0@@Z
_TEXT	SEGMENT PARA USE32 PUBLIC 'CODE'
_TEXT	ENDS
;	COMDAT ??_GButton@@UAEPAXI@Z
_TEXT	SEGMENT PARA USE32 PUBLIC 'CODE'
_TEXT	ENDS
;	COMDAT ??0Button@@QAE@XZ
_TEXT	SEGMENT PARA USE32 PUBLIC 'CODE'
_TEXT	ENDS
;	COMDAT ??1Button@@UAE@XZ
_TEXT	SEGMENT PARA USE32 PUBLIC 'CODE'
_TEXT	ENDS
;	COMDAT ?Run@Button@@AAEXXZ
_TEXT	SEGMENT PARA USE32 PUBLIC 'CODE'
_TEXT	ENDS
;	COMDAT ?SetExecHandler@Button@@QAEXPAVExec@@@Z
_TEXT	SEGMENT PARA USE32 PUBLIC 'CODE'
_TEXT	ENDS
;	COMDAT ?SetID@Button@@QAEXK@Z
_TEXT	SEGMENT PARA USE32 PUBLIC 'CODE'
_TEXT	ENDS
;	COMDAT ?MouseControl@Button@@UAE_NIHH@Z
_TEXT	SEGMENT PARA USE32 PUBLIC 'CODE'
_TEXT	ENDS
;	COMDAT ?eq@?$__char_traits_base@DH@_STL@@SA_NABD0@Z
_TEXT	SEGMENT PARA USE32 PUBLIC 'CODE'
_TEXT	ENDS
;	COMDAT ?not_eof@?$__char_traits_base@DH@_STL@@SAHABH@Z
_TEXT	SEGMENT PARA USE32 PUBLIC 'CODE'
_TEXT	ENDS
;	COMDAT ?eq_int_type@?$__char_traits_base@DH@_STL@@SA_NABH0@Z
_TEXT	SEGMENT PARA USE32 PUBLIC 'CODE'
_TEXT	ENDS
;	COMDAT ??0?$fpos@H@_STL@@QAE@J@Z
_TEXT	SEGMENT PARA USE32 PUBLIC 'CODE'
_TEXT	ENDS
;	COMDAT ??B?$fpos@H@_STL@@QBEJXZ
_TEXT	SEGMENT PARA USE32 PUBLIC 'CODE'
_TEXT	ENDS
;	COMDAT ?state@?$fpos@H@_STL@@QBEHXZ
_TEXT	SEGMENT PARA USE32 PUBLIC 'CODE'
_TEXT	ENDS
;	COMDAT ?is_open@?$basic_filebuf@DV?$char_traits@D@_STL@@@_STL@@QBE_NXZ
_TEXT	SEGMENT PARA USE32 PUBLIC 'CODE'
_TEXT	ENDS
;	COMDAT ?_M_seek_return@?$basic_filebuf@DV?$char_traits@D@_STL@@@_STL@@AAE?AV?$fpos@H@2@JH@Z
_TEXT	SEGMENT PARA USE32 PUBLIC 'CODE'
_TEXT	ENDS
;	COMDAT ??0?$_Filebuf_Tmp_Buf@D@_STL@@QAE@H@Z
_TEXT	SEGMENT PARA USE32 PUBLIC 'CODE'
_TEXT	ENDS
;	COMDAT ??1?$_Filebuf_Tmp_Buf@D@_STL@@QAE@XZ
_TEXT	SEGMENT PARA USE32 PUBLIC 'CODE'
_TEXT	ENDS
;	COMDAT ?state@?$fpos@H@_STL@@QAEXH@Z
_TEXT	SEGMENT PARA USE32 PUBLIC 'CODE'
_TEXT	ENDS
;	COMDAT ?close@?$basic_filebuf@DV?$char_traits@D@_STL@@@_STL@@QAEPAV12@XZ
_TEXT	SEGMENT PARA USE32 PUBLIC 'CODE'
_TEXT	ENDS
;	COMDAT ?_M_exit_input_mode@?$basic_filebuf@DV?$char_traits@D@_STL@@@_STL@@AAEXXZ
_TEXT	SEGMENT PARA USE32 PUBLIC 'CODE'
_TEXT	ENDS
;	COMDAT ?_M_switch_to_output_mode@?$basic_filebuf@DV?$char_traits@D@_STL@@@_STL@@AAE_NXZ
_TEXT	SEGMENT PARA USE32 PUBLIC 'CODE'
_TEXT	ENDS
;	COMDAT ?_M_output_error@?$basic_filebuf@DV?$char_traits@D@_STL@@@_STL@@AAEHXZ
_TEXT	SEGMENT PARA USE32 PUBLIC 'CODE'
_TEXT	ENDS
;	COMDAT ?_M_allocate_buffers@?$basic_filebuf@DV?$char_traits@D@_STL@@@_STL@@AAE_NPADH@Z
_TEXT	SEGMENT PARA USE32 PUBLIC 'CODE'
_TEXT	ENDS
;	COMDAT ?_M_deallocate_buffers@?$basic_filebuf@DV?$char_traits@D@_STL@@@_STL@@AAEXXZ
_TEXT	SEGMENT PARA USE32 PUBLIC 'CODE'
_TEXT	ENDS
;	COMDAT ?_M_seek_init@?$basic_filebuf@DV?$char_traits@D@_STL@@@_STL@@AAE_N_N@Z
_TEXT	SEGMENT PARA USE32 PUBLIC 'CODE'
_TEXT	ENDS
;	COMDAT ?_M_setup_codecvt@?$basic_filebuf@DV?$char_traits@D@_STL@@@_STL@@AAEXABVlocale@2@@Z
_TEXT	SEGMENT PARA USE32 PUBLIC 'CODE'
_TEXT	ENDS
;	COMDAT ??$equal@PADPADU?$_Eq_traits@V?$char_traits@D@_STL@@@_STL@@@_STL@@YA_NPAD00U?$_Eq_traits@V?$char_traits@D@_STL@@@0@@Z
_TEXT	SEGMENT PARA USE32 PUBLIC 'CODE'
_TEXT	ENDS
;	COMDAT ?_M_exit_putback_mode@?$basic_filebuf@DV?$char_traits@D@_STL@@@_STL@@AAEXXZ
_TEXT	SEGMENT PARA USE32 PUBLIC 'CODE'
_TEXT	ENDS
;	COMDAT ??R?$_Eq_traits@V?$char_traits@D@_STL@@@_STL@@QBE_NABD0@Z
_TEXT	SEGMENT PARA USE32 PUBLIC 'CODE'
_TEXT	ENDS
;	COMDAT ?_M_unshift@?$basic_filebuf@DV?$char_traits@D@_STL@@@_STL@@AAE_NXZ
_TEXT	SEGMENT PARA USE32 PUBLIC 'CODE'
_TEXT	ENDS
;	COMDAT ?_M_allocate_buffers@?$basic_filebuf@DV?$char_traits@D@_STL@@@_STL@@AAE_NXZ
_TEXT	SEGMENT PARA USE32 PUBLIC 'CODE'
_TEXT	ENDS
;	COMDAT ??$max@H@_STL@@YAABHABH0@Z
_TEXT	SEGMENT PARA USE32 PUBLIC 'CODE'
_TEXT	ENDS
;	COMDAT ??$use_facet@V?$codecvt@DDH@_STL@@@_STL@@YAABV?$codecvt@DDH@0@ABVlocale@0@@Z
_TEXT	SEGMENT PARA USE32 PUBLIC 'CODE'
_TEXT	ENDS
;	COMDAT ??_R3EventButton@@8
rdata$r	SEGMENT DWORD USE32 PUBLIC 'CONST'
rdata$r	ENDS
;	COMDAT ??_R3Button@@8
rdata$r	SEGMENT DWORD USE32 PUBLIC 'CONST'
rdata$r	ENDS
;	COMDAT ??_R3ButtonBase@@8
rdata$r	SEGMENT DWORD USE32 PUBLIC 'CONST'
rdata$r	ENDS
;	COMDAT ??_R2EventButton@@8
rdata$r	SEGMENT DWORD USE32 PUBLIC 'CONST'
rdata$r	ENDS
;	COMDAT ??_R2Button@@8
rdata$r	SEGMENT DWORD USE32 PUBLIC 'CONST'
rdata$r	ENDS
;	COMDAT ??_R2ButtonBase@@8
rdata$r	SEGMENT DWORD USE32 PUBLIC 'CONST'
rdata$r	ENDS
;	COMDAT ??_R1A@?0A@A@EventButton@@8
rdata$r	SEGMENT DWORD USE32 PUBLIC 'CONST'
rdata$r	ENDS
;	COMDAT ??_R1A@?0A@A@Button@@8
rdata$r	SEGMENT DWORD USE32 PUBLIC 'CONST'
rdata$r	ENDS
;	COMDAT ??_R13?0A@A@Rect@@8
rdata$r	SEGMENT DWORD USE32 PUBLIC 'CONST'
rdata$r	ENDS
;	COMDAT ??_R1A@?0A@A@ButtonBase@@8
rdata$r	SEGMENT DWORD USE32 PUBLIC 'CONST'
rdata$r	ENDS
;	COMDAT ??_R0?AVEventButton@@@8
_DATA	SEGMENT DWORD USE32 PUBLIC 'DATA'
_DATA	ENDS
;	COMDAT ??_R0?AVButton@@@8
_DATA	SEGMENT DWORD USE32 PUBLIC 'DATA'
_DATA	ENDS
;	COMDAT ??_R0?AVRect@@@8
_DATA	SEGMENT DWORD USE32 PUBLIC 'DATA'
_DATA	ENDS
;	COMDAT ??_R0?AVButtonBase@@@8
_DATA	SEGMENT DWORD USE32 PUBLIC 'DATA'
_DATA	ENDS
;	COMDAT ??_R4EventButton@@6B@
rdata$r	SEGMENT DWORD USE32 PUBLIC 'CONST'
rdata$r	ENDS
;	COMDAT ??_R4Button@@6B@
rdata$r	SEGMENT DWORD USE32 PUBLIC 'CONST'
rdata$r	ENDS
;	COMDAT ??_R4ButtonBase@@6B@
rdata$r	SEGMENT DWORD USE32 PUBLIC 'CONST'
rdata$r	ENDS
;	COMDAT ?__page_size@_Filebuf_base@_STL@@SAIXZ
_TEXT	SEGMENT PARA USE32 PUBLIC 'CODE'
_TEXT	ENDS
;	COMDAT ?_M_write@?$basic_filebuf@DV?$char_traits@D@_STL@@@_STL@@QAE_NPADH@Z
_TEXT	SEGMENT PARA USE32 PUBLIC 'CODE'
_TEXT	ENDS
;	COMDAT ?unshift@?$codecvt@DDH@_STL@@QBE?AW4result@codecvt_base@2@AAHPAD1AAPAD@Z
_TEXT	SEGMENT PARA USE32 PUBLIC 'CODE'
_TEXT	ENDS
;	COMDAT ?always_noconv@?$codecvt@DDH@_STL@@QBE_NXZ
_TEXT	SEGMENT PARA USE32 PUBLIC 'CODE'
_TEXT	ENDS
;	COMDAT ?encoding@?$codecvt@DDH@_STL@@QBEHXZ
_TEXT	SEGMENT PARA USE32 PUBLIC 'CODE'
_TEXT	ENDS
;	COMDAT ?max_length@?$codecvt@DDH@_STL@@QBEHXZ
_TEXT	SEGMENT PARA USE32 PUBLIC 'CODE'
_TEXT	ENDS
;	COMDAT ?__o_mode@_Filebuf_base@_STL@@QBEHXZ
_TEXT	SEGMENT PARA USE32 PUBLIC 'CODE'
_TEXT	ENDS
;	COMDAT ?setp@?$basic_streambuf@DV?$char_traits@D@_STL@@@_STL@@IAEXPAD0@Z
_TEXT	SEGMENT PARA USE32 PUBLIC 'CODE'
_TEXT	ENDS
;	COMDAT ?_FILE_O_set@_STL@@YAXPAU_iobuf@@PAD11@Z
_TEXT	SEGMENT PARA USE32 PUBLIC 'CODE'
_TEXT	ENDS
;	COMDAT ?_FILE_I_set@_STL@@YAXPAU_iobuf@@PAD11@Z
_TEXT	SEGMENT PARA USE32 PUBLIC 'CODE'
_TEXT	ENDS
;	COMDAT ?setg@?$basic_streambuf@DV?$char_traits@D@_STL@@@_STL@@IAEXPAD00@Z
_TEXT	SEGMENT PARA USE32 PUBLIC 'CODE'
_TEXT	ENDS
;	COMDAT ?__is_open@_Filebuf_base@_STL@@QBE_NXZ
_TEXT	SEGMENT PARA USE32 PUBLIC 'CODE'
_TEXT	ENDS
;	COMDAT ?eof@?$__char_traits_base@DH@_STL@@SAHXZ
_TEXT	SEGMENT PARA USE32 PUBLIC 'CODE'
_TEXT	ENDS
;	COMDAT ??_7Button@@6B@
CONST	SEGMENT DWORD USE32 PUBLIC 'CONST'
CONST	ENDS
;	COMDAT ??_7ButtonBase@@6B@
CONST	SEGMENT DWORD USE32 PUBLIC 'CONST'
CONST	ENDS
;	COMDAT ??_7EventButton@@6B@
CONST	SEGMENT DWORD USE32 PUBLIC 'CONST'
CONST	ENDS
sxdata	SEGMENT DWORD USE32 'SXDATA'
sxdata	ENDS
FLAT	GROUP _DATA, CONST, _BSS
	ASSUME	CS: FLAT, DS: FLAT, SS: FLAT
endif

INCLUDELIB LIBCMT
INCLUDELIB OLDNAMES

PUBLIC	??1ButtonBase@@UAE@XZ				; ButtonBase::~ButtonBase
PUBLIC	?InitState@ButtonBase@@UAEXXZ			; ButtonBase::InitState
PUBLIC	??_7ButtonBase@@6B@				; ButtonBase::`vftable'
PUBLIC	??_GButtonBase@@UAEPAXI@Z			; ButtonBase::`scalar deleting destructor'
PUBLIC	??_R4ButtonBase@@6B@				; ButtonBase::`RTTI Complete Object Locator'
PUBLIC	??_R0?AVButtonBase@@@8				; ButtonBase `RTTI Type Descriptor'
PUBLIC	??_R3ButtonBase@@8				; ButtonBase::`RTTI Class Hierarchy Descriptor'
PUBLIC	??_R2ButtonBase@@8				; ButtonBase::`RTTI Base Class Array'
PUBLIC	??_R1A@?0A@A@ButtonBase@@8			; ButtonBase::`RTTI Base Class Descriptor at (0,-1,0,0)'
PUBLIC	??_R13?0A@A@Rect@@8				; Rect::`RTTI Base Class Descriptor at (4,-1,0,0)'
PUBLIC	??_R0?AVRect@@@8				; Rect `RTTI Type Descriptor'
EXTRN	??_7type_info@@6B@:QWORD			; type_info::`vftable'
EXTRN	??1Rect@@QAE@XZ:NEAR				; Rect::~Rect
EXTRN	??_EButtonBase@@UAEPAXI@Z:NEAR			; ButtonBase::`vector deleting destructor'
;	COMDAT ??_7ButtonBase@@6B@
; File c:\darkeden\designed_common\project\new - vs_ui\src\widget\u_button.cpp
CONST	SEGMENT
??_7ButtonBase@@6B@ DD FLAT:??_R4ButtonBase@@6B@	; ButtonBase::`vftable'
	DD	FLAT:??_EButtonBase@@UAEPAXI@Z
	DD	FLAT:?InitState@ButtonBase@@UAEXXZ
CONST	ENDS
;	COMDAT ??_R4ButtonBase@@6B@
rdata$r	SEGMENT
??_R4ButtonBase@@6B@ DD 00H				; ButtonBase::`RTTI Complete Object Locator'
	DD	00H
	DD	00H
	DD	FLAT:??_R0?AVButtonBase@@@8
	DD	FLAT:??_R3ButtonBase@@8
rdata$r	ENDS
;	COMDAT ??_R0?AVButtonBase@@@8
_DATA	SEGMENT
??_R0?AVButtonBase@@@8 DD FLAT:??_7type_info@@6B@	; ButtonBase `RTTI Type Descriptor'
	DD	00H
	DB	'.?AVButtonBase@@', 00H
_DATA	ENDS
;	COMDAT ??_R3ButtonBase@@8
rdata$r	SEGMENT
??_R3ButtonBase@@8 DD 00H				; ButtonBase::`RTTI Class Hierarchy Descriptor'
	DD	00H
	DD	02H
	DD	FLAT:??_R2ButtonBase@@8
rdata$r	ENDS
;	COMDAT ??_R2ButtonBase@@8
rdata$r	SEGMENT
??_R2ButtonBase@@8 DD FLAT:??_R1A@?0A@A@ButtonBase@@8	; ButtonBase::`RTTI Base Class Array'
	DD	FLAT:??_R13?0A@A@Rect@@8
rdata$r	ENDS
;	COMDAT ??_R1A@?0A@A@ButtonBase@@8
rdata$r	SEGMENT
??_R1A@?0A@A@ButtonBase@@8 DD FLAT:??_R0?AVButtonBase@@@8 ; ButtonBase::`RTTI Base Class Descriptor at (0,-1,0,0)'
	DD	01H
	DD	00H
	DD	0ffffffffH
	DD	00H
	DD	00H
rdata$r	ENDS
;	COMDAT ??_R13?0A@A@Rect@@8
rdata$r	SEGMENT
??_R13?0A@A@Rect@@8 DD FLAT:??_R0?AVRect@@@8		; Rect::`RTTI Base Class Descriptor at (4,-1,0,0)'
	DD	00H
	DD	04H
	DD	0ffffffffH
	DD	00H
	DD	00H
rdata$r	ENDS
;	COMDAT ??_R0?AVRect@@@8
_DATA	SEGMENT
??_R0?AVRect@@@8 DD FLAT:??_7type_info@@6B@		; Rect `RTTI Type Descriptor'
	DD	00H
	DB	'.?AVRect@@', 00H
; Function compile flags: /Ogty
_DATA	ENDS
;	COMDAT ??1ButtonBase@@UAE@XZ
_TEXT	SEGMENT
??1ButtonBase@@UAE@XZ PROC NEAR				; ButtonBase::~ButtonBase, COMDAT
; _this$ = ecx

; 114  : {

  00000	c7 01 00 00 00
	00		 mov	 DWORD PTR [ecx], OFFSET FLAT:??_7ButtonBase@@6B@

; 115  : #ifndef _LIB
; 116  : 	if(g_EventButton == this)g_EventButton = NULL;
; 117  : #endif
; 118  : 
; 119  : }

  00006	83 c1 04	 add	 ecx, 4
  00009	e9 00 00 00 00	 jmp	 ??1Rect@@QAE@XZ		; Rect::~Rect
??1ButtonBase@@UAE@XZ ENDP				; ButtonBase::~ButtonBase
; Function compile flags: /Ogty
_TEXT	ENDS
;	COMDAT ?InitState@ButtonBase@@UAEXXZ
_TEXT	SEGMENT
?InitState@ButtonBase@@UAEXXZ PROC NEAR			; ButtonBase::InitState, COMDAT
; _this$ = ecx

; 123  : 	m_bl_focused = false;

  00000	32 c0		 xor	 al, al
  00002	88 41 14	 mov	 BYTE PTR [ecx+20], al

; 124  : 	m_bl_pressed = false;

  00005	88 41 15	 mov	 BYTE PTR [ecx+21], al

; 125  : }

  00008	c3		 ret	 0
?InitState@ButtonBase@@UAEXXZ ENDP			; ButtonBase::InitState
_TEXT	ENDS
PUBLIC	?FocusOn@ButtonBase@@QAEXXZ			; ButtonBase::FocusOn
; Function compile flags: /Ogty
;	COMDAT ?FocusOn@ButtonBase@@QAEXXZ
_TEXT	SEGMENT
?FocusOn@ButtonBase@@QAEXXZ PROC NEAR			; ButtonBase::FocusOn, COMDAT
; _this$ = ecx

; 129  : 	m_bl_focused = true;

  00000	c6 41 14 01	 mov	 BYTE PTR [ecx+20], 1

; 130  : }

  00004	c3		 ret	 0
?FocusOn@ButtonBase@@QAEXXZ ENDP			; ButtonBase::FocusOn
_TEXT	ENDS
PUBLIC	?FocusOff@ButtonBase@@QAEXXZ			; ButtonBase::FocusOff
; Function compile flags: /Ogty
;	COMDAT ?FocusOff@ButtonBase@@QAEXXZ
_TEXT	SEGMENT
?FocusOff@ButtonBase@@QAEXXZ PROC NEAR			; ButtonBase::FocusOff, COMDAT
; _this$ = ecx

; 134  : 	m_bl_focused = false;

  00000	c6 41 14 00	 mov	 BYTE PTR [ecx+20], 0

; 135  : }

  00004	c3		 ret	 0
?FocusOff@ButtonBase@@QAEXXZ ENDP			; ButtonBase::FocusOff
_TEXT	ENDS
PUBLIC	?PressDown@ButtonBase@@QAEXXZ			; ButtonBase::PressDown
; Function compile flags: /Ogty
;	COMDAT ?PressDown@ButtonBase@@QAEXXZ
_TEXT	SEGMENT
?PressDown@ButtonBase@@QAEXXZ PROC NEAR			; ButtonBase::PressDown, COMDAT
; _this$ = ecx

; 139  : 	m_bl_pressed = true;

  00000	c6 41 15 01	 mov	 BYTE PTR [ecx+21], 1

; 140  : }

  00004	c3		 ret	 0
?PressDown@ButtonBase@@QAEXXZ ENDP			; ButtonBase::PressDown
_TEXT	ENDS
PUBLIC	?PressUp@ButtonBase@@QAEXXZ			; ButtonBase::PressUp
; Function compile flags: /Ogty
;	COMDAT ?PressUp@ButtonBase@@QAEXXZ
_TEXT	SEGMENT
?PressUp@ButtonBase@@QAEXXZ PROC NEAR			; ButtonBase::PressUp, COMDAT
; _this$ = ecx

; 144  : 	m_bl_pressed = false;

  00000	c6 41 15 00	 mov	 BYTE PTR [ecx+21], 0

; 145  : }

  00004	c3		 ret	 0
?PressUp@ButtonBase@@QAEXXZ ENDP			; ButtonBase::PressUp
_TEXT	ENDS
PUBLIC	?GetFocusState@ButtonBase@@QBE_NXZ		; ButtonBase::GetFocusState
; Function compile flags: /Ogty
;	COMDAT ?GetFocusState@ButtonBase@@QBE_NXZ
_TEXT	SEGMENT
?GetFocusState@ButtonBase@@QBE_NXZ PROC NEAR		; ButtonBase::GetFocusState, COMDAT
; _this$ = ecx

; 149  : 	return m_bl_focused;

  00000	8a 41 14	 mov	 al, BYTE PTR [ecx+20]

; 150  : }

  00003	c3		 ret	 0
?GetFocusState@ButtonBase@@QBE_NXZ ENDP			; ButtonBase::GetFocusState
_TEXT	ENDS
PUBLIC	?GetPressState@ButtonBase@@QBE_NXZ		; ButtonBase::GetPressState
; Function compile flags: /Ogty
;	COMDAT ?GetPressState@ButtonBase@@QBE_NXZ
_TEXT	SEGMENT
?GetPressState@ButtonBase@@QBE_NXZ PROC NEAR		; ButtonBase::GetPressState, COMDAT
; _this$ = ecx

; 154  : 	return m_bl_pressed;

  00000	8a 41 15	 mov	 al, BYTE PTR [ecx+21]

; 155  : }

  00003	c3		 ret	 0
?GetPressState@ButtonBase@@QBE_NXZ ENDP			; ButtonBase::GetPressState
_TEXT	ENDS
PUBLIC	??1Button@@UAE@XZ				; Button::~Button
; Function compile flags: /Ogty
;	COMDAT ??1Button@@UAE@XZ
_TEXT	SEGMENT
??1Button@@UAE@XZ PROC NEAR				; Button::~Button, COMDAT
; _this$ = ecx

; 182  : 
; 183  : }

  00000	c7 01 00 00 00
	00		 mov	 DWORD PTR [ecx], OFFSET FLAT:??_7ButtonBase@@6B@
  00006	83 c1 04	 add	 ecx, 4
  00009	e9 00 00 00 00	 jmp	 ??1Rect@@QAE@XZ		; Rect::~Rect
??1Button@@UAE@XZ ENDP					; Button::~Button
_TEXT	ENDS
PUBLIC	?Run@Button@@AAEXXZ				; Button::Run
; Function compile flags: /Ogty
;	COMDAT ?Run@Button@@AAEXXZ
_TEXT	SEGMENT
?Run@Button@@AAEXXZ PROC NEAR				; Button::Run, COMDAT
; _this$ = ecx

; 192  : 	if (m_pC_exec_handler) // set handler?

  00000	8b 41 18	 mov	 eax, DWORD PTR [ecx+24]
  00003	85 c0		 test	 eax, eax
  00005	74 0a		 je	 SHORT $L74250

; 193  : 		m_pC_exec_handler->Run(m_id);

  00007	8b 49 1c	 mov	 ecx, DWORD PTR [ecx+28]
  0000a	8b 10		 mov	 edx, DWORD PTR [eax]
  0000c	51		 push	 ecx
  0000d	8b c8		 mov	 ecx, eax
  0000f	ff 12		 call	 DWORD PTR [edx]
$L74250:

; 194  : }

  00011	c3		 ret	 0
?Run@Button@@AAEXXZ ENDP				; Button::Run
_TEXT	ENDS
PUBLIC	?SetExecHandler@Button@@QAEXPAVExec@@@Z		; Button::SetExecHandler
; Function compile flags: /Ogty
;	COMDAT ?SetExecHandler@Button@@QAEXPAVExec@@@Z
_TEXT	SEGMENT
_pC_exec_handler$ = 8					; size = 4
?SetExecHandler@Button@@QAEXPAVExec@@@Z PROC NEAR	; Button::SetExecHandler, COMDAT
; _this$ = ecx

; 198  : 	m_pC_exec_handler = pC_exec_handler;

  00000	8b 44 24 04	 mov	 eax, DWORD PTR _pC_exec_handler$[esp-4]
  00004	89 41 18	 mov	 DWORD PTR [ecx+24], eax

; 199  : }

  00007	c2 04 00	 ret	 4
?SetExecHandler@Button@@QAEXPAVExec@@@Z ENDP		; Button::SetExecHandler
_TEXT	ENDS
PUBLIC	?SetID@Button@@QAEXK@Z				; Button::SetID
; Function compile flags: /Ogty
;	COMDAT ?SetID@Button@@QAEXK@Z
_TEXT	SEGMENT
_id$ = 8						; size = 4
?SetID@Button@@QAEXK@Z PROC NEAR			; Button::SetID, COMDAT
; _this$ = ecx

; 203  : 	m_id = id;

  00000	8b 44 24 04	 mov	 eax, DWORD PTR _id$[esp-4]
  00004	89 41 1c	 mov	 DWORD PTR [ecx+28], eax

; 204  : }

  00007	c2 04 00	 ret	 4
?SetID@Button@@QAEXK@Z ENDP				; Button::SetID
_TEXT	ENDS
PUBLIC	?MouseControl@Button@@UAE_NIHH@Z		; Button::MouseControl
EXTRN	?IsInRect@Rect@@QBE_NHH@Z:NEAR			; Rect::IsInRect
; Function compile flags: /Ogty
;	COMDAT ?MouseControl@Button@@UAE_NIHH@Z
_TEXT	SEGMENT
_message$ = 8						; size = 4
__x$ = 12						; size = 4
__y$ = 16						; size = 4
?MouseControl@Button@@UAE_NIHH@Z PROC NEAR		; Button::MouseControl, COMDAT
; _this$ = ecx

; 254  : 	switch (message)

  00000	8b 44 24 04	 mov	 eax, DWORD PTR _message$[esp-4]
  00004	83 c0 fe	 add	 eax, -2			; fffffffeH
  00007	83 f8 03	 cmp	 eax, 3
  0000a	56		 push	 esi
  0000b	8b f1		 mov	 esi, ecx
  0000d	0f 87 8d 00 00
	00		 ja	 $L74627
  00013	ff 24 85 00 00
	00 00		 jmp	 DWORD PTR $L74629[eax*4]
$L74269:

; 255  : 	{
; 256  : 		//
; 257  : 		// M_MOVING
; 258  : 		//
; 259  : 		// focus of/off
; 260  : 		//
; 261  : 		case M_MOVING:
; 262  : 			if (IsInRect(_x, _y))

  0001a	8b 44 24 10	 mov	 eax, DWORD PTR __y$[esp]
  0001e	8b 4c 24 0c	 mov	 ecx, DWORD PTR __x$[esp]
  00022	50		 push	 eax
  00023	51		 push	 ecx
  00024	8d 4e 04	 lea	 ecx, DWORD PTR [esi+4]
  00027	e8 00 00 00 00	 call	 ?IsInRect@Rect@@QBE_NHH@Z ; Rect::IsInRect
  0002c	84 c0		 test	 al, al
  0002e	0f 95 c2	 setne	 dl
  00031	88 56 14	 mov	 BYTE PTR [esi+20], dl

; 315  : 				}
; 316  : 				else // press: no
; 317  : 				{
; 318  : 					// no code!
; 319  : 				}
; 320  : 			}
; 321  : 	}
; 322  : 
; 323  : 	return true;

  00034	b0 01		 mov	 al, 1
  00036	5e		 pop	 esi

; 324  : }

  00037	c2 0c 00	 ret	 12			; 0000000cH
$L74272:

; 263  : 			{
; 264  : 				FocusOn();
; 265  : 			}
; 266  : 			else
; 267  : 			{
; 268  : 				FocusOff();
; 269  : 			}
; 270  : 			break;
; 271  : 
; 272  : 		//
; 273  : 		// M_LEFTBUTTON_DOWN, M_LB_DOUBLECLICK
; 274  : 		//
; 275  : 		// button press down.
; 276  : 		//
; 277  : 		case M_LEFTBUTTON_DOWN:
; 278  : 		case M_LB_DOUBLECLICK:
; 279  : 			if (IsInRect(_x, _y))

  0003a	8b 44 24 10	 mov	 eax, DWORD PTR __y$[esp]
  0003e	8b 4c 24 0c	 mov	 ecx, DWORD PTR __x$[esp]
  00042	50		 push	 eax
  00043	51		 push	 ecx
  00044	8d 4e 04	 lea	 ecx, DWORD PTR [esi+4]
  00047	e8 00 00 00 00	 call	 ?IsInRect@Rect@@QBE_NHH@Z ; Rect::IsInRect
  0004c	84 c0		 test	 al, al
  0004e	74 50		 je	 SHORT $L74627

; 280  : 			{
; 281  : 				PressDown();
; 282  : 
; 283  : 				if (m_click_option == RUN_WHEN_PUSH)

  00050	8b 4e 20	 mov	 ecx, DWORD PTR [esi+32]
  00053	b8 01 00 00 00	 mov	 eax, 1
  00058	3b c8		 cmp	 ecx, eax
  0005a	88 46 15	 mov	 BYTE PTR [esi+21], al
  0005d	75 0f		 jne	 SHORT $L74609

; 284  : 					Run();

  0005f	8b 4e 18	 mov	 ecx, DWORD PTR [esi+24]
  00062	85 c9		 test	 ecx, ecx
  00064	74 08		 je	 SHORT $L74609
  00066	8b 46 1c	 mov	 eax, DWORD PTR [esi+28]
  00069	8b 11		 mov	 edx, DWORD PTR [ecx]
  0006b	50		 push	 eax
  0006c	ff 12		 call	 DWORD PTR [edx]
$L74609:

; 285  : 
; 286  : 				return false;

  0006e	32 c0		 xor	 al, al
  00070	5e		 pop	 esi

; 324  : }

  00071	c2 0c 00	 ret	 12			; 0000000cH
$L74275:

; 287  : 			}
; 288  : 			break;
; 289  : 
; 290  : 		//
; 291  : 		// M_LEFTBUTTON_UP
; 292  : 		//
; 293  : 		// button press up -> execution!
; 294  : 		//
; 295  : 		case M_LEFTBUTTON_UP:
; 296  : 			if (GetFocusState()) // focus: yes

  00074	8a 4e 14	 mov	 cl, BYTE PTR [esi+20]
  00077	33 c0		 xor	 eax, eax
  00079	3a c8		 cmp	 cl, al

; 297  : 			{
; 298  : 				if (GetPressState()) // press: yes

  0007b	8a 4e 15	 mov	 cl, BYTE PTR [esi+21]
  0007e	74 19		 je	 SHORT $L74276
  00080	3a c8		 cmp	 cl, al
  00082	74 1c		 je	 SHORT $L74627

; 299  : 				{
; 300  : 					PressUp();
; 301  : 
; 302  : 					if (m_click_option == RUN_WHEN_PUSHUP)

  00084	39 46 20	 cmp	 DWORD PTR [esi+32], eax
  00087	88 46 15	 mov	 BYTE PTR [esi+21], al
  0008a	75 14		 jne	 SHORT $L74627

; 303  : 						Run();

  0008c	8b ce		 mov	 ecx, esi
  0008e	e8 00 00 00 00	 call	 ?Run@Button@@AAEXXZ	; Button::Run

; 315  : 				}
; 316  : 				else // press: no
; 317  : 				{
; 318  : 					// no code!
; 319  : 				}
; 320  : 			}
; 321  : 	}
; 322  : 
; 323  : 	return true;

  00093	b0 01		 mov	 al, 1
  00095	5e		 pop	 esi

; 324  : }

  00096	c2 0c 00	 ret	 12			; 0000000cH
$L74276:

; 304  : 				}
; 305  : 				else // press: no
; 306  : 				{
; 307  : 					// no code!
; 308  : 				}
; 309  : 			}
; 310  : 			else // focus: no
; 311  : 			{
; 312  : 				if (GetPressState()) // press: yes

  00099	3a c8		 cmp	 cl, al
  0009b	74 03		 je	 SHORT $L74627

; 313  : 				{
; 314  : 					PressUp();

  0009d	88 46 15	 mov	 BYTE PTR [esi+21], al
$L74627:

; 315  : 				}
; 316  : 				else // press: no
; 317  : 				{
; 318  : 					// no code!
; 319  : 				}
; 320  : 			}
; 321  : 	}
; 322  : 
; 323  : 	return true;

  000a0	b0 01		 mov	 al, 1
  000a2	5e		 pop	 esi

; 324  : }

  000a3	c2 0c 00	 ret	 12			; 0000000cH
  000a6	8b ff		 npad	 2
$L74629:
  000a8	00 00 00 00	 DD	 $L74269
  000ac	00 00 00 00	 DD	 $L74272
  000b0	00 00 00 00	 DD	 $L74275
  000b4	00 00 00 00	 DD	 $L74272
?MouseControl@Button@@UAE_NIHH@Z ENDP			; Button::MouseControl
_TEXT	ENDS
PUBLIC	??1EventButton@@UAE@XZ				; EventButton::~EventButton
; Function compile flags: /Ogty
;	COMDAT ??1EventButton@@UAE@XZ
_TEXT	SEGMENT
??1EventButton@@UAE@XZ PROC NEAR			; EventButton::~EventButton, COMDAT
; _this$ = ecx

; 24   : }

  00000	c7 01 00 00 00
	00		 mov	 DWORD PTR [ecx], OFFSET FLAT:??_7ButtonBase@@6B@
  00006	83 c1 04	 add	 ecx, 4
  00009	e9 00 00 00 00	 jmp	 ??1Rect@@QAE@XZ		; Rect::~Rect
??1EventButton@@UAE@XZ ENDP				; EventButton::~EventButton
_TEXT	ENDS
PUBLIC	?InitState@EventButton@@UAEXXZ			; EventButton::InitState
; Function compile flags: /Ogty
;	COMDAT ?InitState@EventButton@@UAEXXZ
_TEXT	SEGMENT
?InitState@EventButton@@UAEXXZ PROC NEAR		; EventButton::InitState, COMDAT
; _this$ = ecx

; 33   : 	ButtonBase::InitState();

  00000	32 c0		 xor	 al, al
  00002	88 41 14	 mov	 BYTE PTR [ecx+20], al
  00005	88 41 15	 mov	 BYTE PTR [ecx+21], al

; 34   : 
; 35   : 	m_bl_prev_focus = false; 

  00008	88 41 24	 mov	 BYTE PTR [ecx+36], al

; 36   : }

  0000b	c3		 ret	 0
?InitState@EventButton@@UAEXXZ ENDP			; EventButton::InitState
_TEXT	ENDS
PUBLIC	?MouseControl@EventButton@@UAE_NIHH@Z		; EventButton::MouseControl
; Function compile flags: /Ogty
;	COMDAT ?MouseControl@EventButton@@UAE_NIHH@Z
_TEXT	SEGMENT
_message$ = 8						; size = 4
__x$ = 12						; size = 4
__y$ = 16						; size = 4
?MouseControl@EventButton@@UAE_NIHH@Z PROC NEAR		; EventButton::MouseControl, COMDAT
; _this$ = ecx

; 44   : {

  00000	53		 push	 ebx

; 45   : 	switch (message)

  00001	8b 5c 24 0c	 mov	 ebx, DWORD PTR __x$[esp]
  00005	55		 push	 ebp
  00006	8b 6c 24 0c	 mov	 ebp, DWORD PTR _message$[esp+4]
  0000a	56		 push	 esi
  0000b	8d 45 fe	 lea	 eax, DWORD PTR [ebp-2]
  0000e	83 f8 03	 cmp	 eax, 3
  00011	57		 push	 edi
  00012	8b 7c 24 1c	 mov	 edi, DWORD PTR __y$[esp+12]
  00016	8b f1		 mov	 esi, ecx
  00018	0f 87 97 00 00
	00		 ja	 $L74195
  0001e	ff 24 85 00 00
	00 00		 jmp	 DWORD PTR $L74669[eax*4]
$L74186:

; 46   : 	{
; 47   : 		//
; 48   : 		// M_MOVING
; 49   : 		//
; 50   : 		// focus of/off
; 51   : 		//
; 52   : 		case M_MOVING:
; 53   : 			if (IsInRect(_x, _y))

  00025	57		 push	 edi
  00026	53		 push	 ebx
  00027	8d 4e 04	 lea	 ecx, DWORD PTR [esi+4]
  0002a	e8 00 00 00 00	 call	 ?IsInRect@Rect@@QBE_NHH@Z ; Rect::IsInRect
  0002f	84 c0		 test	 al, al

; 54   : 			{
; 55   : 				if (!m_bl_prev_focus)

  00031	8a 46 24	 mov	 al, BYTE PTR [esi+36]
  00034	74 20		 je	 SHORT $L74187
  00036	84 c0		 test	 al, al
  00038	75 7b		 jne	 SHORT $L74195

; 56   : 				{
; 57   : 					m_bl_prev_focus = true;
; 58   : 					EventFocusOn();

  0003a	8b 06		 mov	 eax, DWORD PTR [esi]
  0003c	8b ce		 mov	 ecx, esi
  0003e	c6 46 24 01	 mov	 BYTE PTR [esi+36], 1
  00042	ff 50 0c	 call	 DWORD PTR [eax+12]

; 93   : 				}
; 94   : 			}
; 95   : 			break;
; 96   : 
; 97   : #ifndef _LIB
; 98   : 		case M_RIGHTBUTTON_UP:
; 99   : 			if (GetFocusState()) // focus: yes
; 100  : 				g_EventButton = this;
; 101  : 			break;
; 102  : #endif
; 103  : 	}
; 104  : 
; 105  : 	return Button::MouseControl(message, _x, _y); // left up시 GetPressState()를 확인할 수 있음.

  00045	57		 push	 edi
  00046	53		 push	 ebx
  00047	55		 push	 ebp
  00048	8b ce		 mov	 ecx, esi
  0004a	e8 00 00 00 00	 call	 ?MouseControl@Button@@UAE_NIHH@Z ; Button::MouseControl
  0004f	5f		 pop	 edi
  00050	5e		 pop	 esi
  00051	5d		 pop	 ebp
  00052	5b		 pop	 ebx

; 106  : }

  00053	c2 0c 00	 ret	 12			; 0000000cH
$L74187:

; 59   : 				}
; 60   : 			}
; 61   : 			else if (m_bl_prev_focus)

  00056	84 c0		 test	 al, al
  00058	74 5b		 je	 SHORT $L74195

; 62   : 			{
; 63   : 				m_bl_prev_focus = false;
; 64   : 				EventFocusOff();

  0005a	8b 16		 mov	 edx, DWORD PTR [esi]
  0005c	8b ce		 mov	 ecx, esi
  0005e	c6 46 24 00	 mov	 BYTE PTR [esi+36], 0
  00062	ff 52 10	 call	 DWORD PTR [edx+16]

; 93   : 				}
; 94   : 			}
; 95   : 			break;
; 96   : 
; 97   : #ifndef _LIB
; 98   : 		case M_RIGHTBUTTON_UP:
; 99   : 			if (GetFocusState()) // focus: yes
; 100  : 				g_EventButton = this;
; 101  : 			break;
; 102  : #endif
; 103  : 	}
; 104  : 
; 105  : 	return Button::MouseControl(message, _x, _y); // left up시 GetPressState()를 확인할 수 있음.

  00065	57		 push	 edi
  00066	53		 push	 ebx
  00067	55		 push	 ebp
  00068	8b ce		 mov	 ecx, esi
  0006a	e8 00 00 00 00	 call	 ?MouseControl@Button@@UAE_NIHH@Z ; Button::MouseControl
  0006f	5f		 pop	 edi
  00070	5e		 pop	 esi
  00071	5d		 pop	 ebp
  00072	5b		 pop	 ebx

; 106  : }

  00073	c2 0c 00	 ret	 12			; 0000000cH
$L74191:

; 65   : 			}
; 66   : 			break;
; 67   : 
; 68   : 		//
; 69   : 		// M_LEFTBUTTON_DOWN, M_LB_DOUBLECLICK
; 70   : 		//
; 71   : 		// button press down.
; 72   : 		//
; 73   : 		case M_LEFTBUTTON_DOWN:
; 74   : 		case M_LB_DOUBLECLICK:
; 75   : 			if (IsInRect(_x, _y)) 

  00076	57		 push	 edi
  00077	53		 push	 ebx
  00078	8d 4e 04	 lea	 ecx, DWORD PTR [esi+4]
  0007b	e8 00 00 00 00	 call	 ?IsInRect@Rect@@QBE_NHH@Z ; Rect::IsInRect
  00080	84 c0		 test	 al, al
  00082	74 31		 je	 SHORT $L74195

; 76   : 			{
; 77   : 				m_bl_prev_focus = true; // move focus 없이 될 경우를 생각해서.
; 78   : 				EventPressDown();

  00084	8b 06		 mov	 eax, DWORD PTR [esi]
  00086	8b ce		 mov	 ecx, esi
  00088	c6 46 24 01	 mov	 BYTE PTR [esi+36], 1
  0008c	ff 50 14	 call	 DWORD PTR [eax+20]

; 93   : 				}
; 94   : 			}
; 95   : 			break;
; 96   : 
; 97   : #ifndef _LIB
; 98   : 		case M_RIGHTBUTTON_UP:
; 99   : 			if (GetFocusState()) // focus: yes
; 100  : 				g_EventButton = this;
; 101  : 			break;
; 102  : #endif
; 103  : 	}
; 104  : 
; 105  : 	return Button::MouseControl(message, _x, _y); // left up시 GetPressState()를 확인할 수 있음.

  0008f	57		 push	 edi
  00090	53		 push	 ebx
  00091	55		 push	 ebp
  00092	8b ce		 mov	 ecx, esi
  00094	e8 00 00 00 00	 call	 ?MouseControl@Button@@UAE_NIHH@Z ; Button::MouseControl
  00099	5f		 pop	 edi
  0009a	5e		 pop	 esi
  0009b	5d		 pop	 ebp
  0009c	5b		 pop	 ebx

; 106  : }

  0009d	c2 0c 00	 ret	 12			; 0000000cH
$L74193:

; 79   : 			}
; 80   : 			break;
; 81   : 
; 82   : 		//
; 83   : 		// M_LEFTBUTTON_UP
; 84   : 		//
; 85   : 		// button press up.
; 86   : 		//
; 87   : 		case M_LEFTBUTTON_UP:
; 88   : 			if (GetFocusState()) // focus: yes

  000a0	8a 46 14	 mov	 al, BYTE PTR [esi+20]
  000a3	84 c0		 test	 al, al
  000a5	74 0e		 je	 SHORT $L74195

; 89   : 			{
; 90   : 				if (GetPressState()) // press: yes

  000a7	8a 46 15	 mov	 al, BYTE PTR [esi+21]
  000aa	84 c0		 test	 al, al
  000ac	74 07		 je	 SHORT $L74195

; 91   : 				{
; 92   : 					EventPressUp();

  000ae	8b 16		 mov	 edx, DWORD PTR [esi]
  000b0	8b ce		 mov	 ecx, esi
  000b2	ff 52 18	 call	 DWORD PTR [edx+24]
$L74195:

; 93   : 				}
; 94   : 			}
; 95   : 			break;
; 96   : 
; 97   : #ifndef _LIB
; 98   : 		case M_RIGHTBUTTON_UP:
; 99   : 			if (GetFocusState()) // focus: yes
; 100  : 				g_EventButton = this;
; 101  : 			break;
; 102  : #endif
; 103  : 	}
; 104  : 
; 105  : 	return Button::MouseControl(message, _x, _y); // left up시 GetPressState()를 확인할 수 있음.

  000b5	57		 push	 edi
  000b6	53		 push	 ebx
  000b7	55		 push	 ebp
  000b8	8b ce		 mov	 ecx, esi
  000ba	e8 00 00 00 00	 call	 ?MouseControl@Button@@UAE_NIHH@Z ; Button::MouseControl
  000bf	5f		 pop	 edi
  000c0	5e		 pop	 esi
  000c1	5d		 pop	 ebp
  000c2	5b		 pop	 ebx

; 106  : }

  000c3	c2 0c 00	 ret	 12			; 0000000cH
  000c6	8b ff		 npad	 2
$L74669:
  000c8	00 00 00 00	 DD	 $L74186
  000cc	00 00 00 00	 DD	 $L74191
  000d0	00 00 00 00	 DD	 $L74193
  000d4	00 00 00 00	 DD	 $L74191
?MouseControl@EventButton@@UAE_NIHH@Z ENDP		; EventButton::MouseControl
_TEXT	ENDS
PUBLIC	??0ButtonBase@@QAE@XZ				; ButtonBase::ButtonBase
EXTRN	??0Rect@@QAE@XZ:NEAR				; Rect::Rect
; Function compile flags: /Ogty
;	COMDAT ??0ButtonBase@@QAE@XZ
_TEXT	SEGMENT
??0ButtonBase@@QAE@XZ PROC NEAR				; ButtonBase::ButtonBase, COMDAT
; _this$ = ecx

; 109  : {

  00000	56		 push	 esi
  00001	8b f1		 mov	 esi, ecx
  00003	8d 4e 04	 lea	 ecx, DWORD PTR [esi+4]
  00006	e8 00 00 00 00	 call	 ??0Rect@@QAE@XZ		; Rect::Rect

; 110  : 	InitState();

  0000b	32 c0		 xor	 al, al
  0000d	88 46 14	 mov	 BYTE PTR [esi+20], al
  00010	88 46 15	 mov	 BYTE PTR [esi+21], al
  00013	c7 06 00 00 00
	00		 mov	 DWORD PTR [esi], OFFSET FLAT:??_7ButtonBase@@6B@

; 111  : }

  00019	8b c6		 mov	 eax, esi
  0001b	5e		 pop	 esi
  0001c	c3		 ret	 0
??0ButtonBase@@QAE@XZ ENDP				; ButtonBase::ButtonBase
_TEXT	ENDS
EXTRN	??3@YAXPAX@Z:NEAR				; operator delete
; Function compile flags: /Ogty
;	COMDAT ??_GButtonBase@@UAEPAXI@Z
_TEXT	SEGMENT
___flags$ = 8						; size = 4
??_GButtonBase@@UAEPAXI@Z PROC NEAR			; ButtonBase::`scalar deleting destructor', COMDAT
; _this$ = ecx
  00000	56		 push	 esi
  00001	8b f1		 mov	 esi, ecx
  00003	e8 00 00 00 00	 call	 ??1ButtonBase@@UAE@XZ	; ButtonBase::~ButtonBase
  00008	f6 44 24 08 01	 test	 BYTE PTR ___flags$[esp], 1
  0000d	74 09		 je	 SHORT $L74680
  0000f	56		 push	 esi
  00010	e8 00 00 00 00	 call	 ??3@YAXPAX@Z		; operator delete
  00015	83 c4 04	 add	 esp, 4
$L74680:
  00018	8b c6		 mov	 eax, esi
  0001a	5e		 pop	 esi
  0001b	c2 04 00	 ret	 4
??_GButtonBase@@UAEPAXI@Z ENDP				; ButtonBase::`scalar deleting destructor'
_TEXT	ENDS
PUBLIC	??0Button@@QAE@HHHHKPAVExec@@W4ClickOption@0@@Z	; Button::Button
PUBLIC	??_7Button@@6B@					; Button::`vftable'
PUBLIC	??_GButton@@UAEPAXI@Z				; Button::`scalar deleting destructor'
PUBLIC	??_R4Button@@6B@				; Button::`RTTI Complete Object Locator'
PUBLIC	??_R0?AVButton@@@8				; Button `RTTI Type Descriptor'
PUBLIC	??_R3Button@@8					; Button::`RTTI Class Hierarchy Descriptor'
PUBLIC	??_R2Button@@8					; Button::`RTTI Base Class Array'
PUBLIC	??_R1A@?0A@A@Button@@8				; Button::`RTTI Base Class Descriptor at (0,-1,0,0)'
EXTRN	?Set@Rect@@QAEXHHHH@Z:NEAR			; Rect::Set
EXTRN	??_EButton@@UAEPAXI@Z:NEAR			; Button::`vector deleting destructor'
EXTRN	__except_list:DWORD
EXTRN	___CxxFrameHandler:NEAR
;	COMDAT xdata$x
xdata$x	SEGMENT
$T74700	DD	0ffffffffH
	DD	FLAT:$L74684
$T74697	DD	019930520H
	DD	01H
	DD	FLAT:$T74700
	DD	2 DUP(00H)
	DD	2 DUP(00H)
xdata$x	ENDS
;	COMDAT ??_7Button@@6B@
CONST	SEGMENT
??_7Button@@6B@ DD FLAT:??_R4Button@@6B@		; Button::`vftable'
	DD	FLAT:??_EButton@@UAEPAXI@Z
	DD	FLAT:?InitState@ButtonBase@@UAEXXZ
	DD	FLAT:?MouseControl@Button@@UAE_NIHH@Z
CONST	ENDS
;	COMDAT ??_R4Button@@6B@
rdata$r	SEGMENT
??_R4Button@@6B@ DD 00H					; Button::`RTTI Complete Object Locator'
	DD	00H
	DD	00H
	DD	FLAT:??_R0?AVButton@@@8
	DD	FLAT:??_R3Button@@8
rdata$r	ENDS
;	COMDAT ??_R0?AVButton@@@8
_DATA	SEGMENT
??_R0?AVButton@@@8 DD FLAT:??_7type_info@@6B@		; Button `RTTI Type Descriptor'
	DD	00H
	DB	'.?AVButton@@', 00H
_DATA	ENDS
;	COMDAT ??_R3Button@@8
rdata$r	SEGMENT
??_R3Button@@8 DD 00H					; Button::`RTTI Class Hierarchy Descriptor'
	DD	00H
	DD	03H
	DD	FLAT:??_R2Button@@8
rdata$r	ENDS
;	COMDAT ??_R2Button@@8
rdata$r	SEGMENT
??_R2Button@@8 DD FLAT:??_R1A@?0A@A@Button@@8		; Button::`RTTI Base Class Array'
	DD	FLAT:??_R1A@?0A@A@ButtonBase@@8
	DD	FLAT:??_R13?0A@A@Rect@@8
rdata$r	ENDS
;	COMDAT ??_R1A@?0A@A@Button@@8
rdata$r	SEGMENT
??_R1A@?0A@A@Button@@8 DD FLAT:??_R0?AVButton@@@8	; Button::`RTTI Base Class Descriptor at (0,-1,0,0)'
	DD	02H
	DD	00H
	DD	0ffffffffH
	DD	00H
	DD	00H
; Function compile flags: /Ogty
rdata$r	ENDS
;	COMDAT ??0Button@@QAE@HHHHKPAVExec@@W4ClickOption@0@@Z
_TEXT	SEGMENT
_this$ = -16						; size = 4
__$EHRec$ = -12						; size = 12
__x$ = 8						; size = 4
__y$ = 12						; size = 4
__w$ = 16						; size = 4
__h$ = 20						; size = 4
_id$ = 24						; size = 4
_pC_exec_handler$ = 28					; size = 4
_co$ = 32						; size = 4
??0Button@@QAE@HHHHKPAVExec@@W4ClickOption@0@@Z PROC NEAR ; Button::Button, COMDAT
; _this$ = ecx

; 163  : {

  00000	6a ff		 push	 -1
  00002	68 00 00 00 00	 push	 __ehhandler$??0Button@@QAE@HHHHKPAVExec@@W4ClickOption@0@@Z
  00007	64 a1 00 00 00
	00		 mov	 eax, DWORD PTR fs:__except_list
  0000d	50		 push	 eax
  0000e	64 89 25 00 00
	00 00		 mov	 DWORD PTR fs:__except_list, esp
  00015	51		 push	 ecx
  00016	56		 push	 esi
  00017	8b f1		 mov	 esi, ecx
  00019	57		 push	 edi
  0001a	8d 7e 04	 lea	 edi, DWORD PTR [esi+4]
  0001d	8b cf		 mov	 ecx, edi
  0001f	89 74 24 08	 mov	 DWORD PTR _this$[esp+24], esi
  00023	e8 00 00 00 00	 call	 ??0Rect@@QAE@XZ		; Rect::Rect
  00028	33 c0		 xor	 eax, eax
  0002a	88 46 14	 mov	 BYTE PTR [esi+20], al
  0002d	88 46 15	 mov	 BYTE PTR [esi+21], al

; 164  : 	Set(_x, _y, _w, _h);

  00030	8b 4c 24 24	 mov	 ecx, DWORD PTR __w$[esp+20]
  00034	8b 54 24 20	 mov	 edx, DWORD PTR __y$[esp+20]
  00038	89 44 24 14	 mov	 DWORD PTR __$EHRec$[esp+32], eax
  0003c	8b 44 24 28	 mov	 eax, DWORD PTR __h$[esp+20]
  00040	50		 push	 eax
  00041	8b 44 24 20	 mov	 eax, DWORD PTR __x$[esp+24]
  00045	51		 push	 ecx
  00046	52		 push	 edx
  00047	50		 push	 eax
  00048	8b cf		 mov	 ecx, edi
  0004a	c7 06 00 00 00
	00		 mov	 DWORD PTR [esi], OFFSET FLAT:??_7Button@@6B@
  00050	e8 00 00 00 00	 call	 ?Set@Rect@@QAEXHHHH@Z	; Rect::Set

; 165  : 	m_id = id;

  00055	8b 4c 24 2c	 mov	 ecx, DWORD PTR _id$[esp+20]

; 166  : 	m_pC_exec_handler = pC_exec_handler;
; 167  : 	m_click_option = co;

  00059	8b 44 24 34	 mov	 eax, DWORD PTR _co$[esp+20]
  0005d	8b 54 24 30	 mov	 edx, DWORD PTR _pC_exec_handler$[esp+20]
  00061	89 4e 1c	 mov	 DWORD PTR [esi+28], ecx

; 168  : }

  00064	8b 4c 24 0c	 mov	 ecx, DWORD PTR __$EHRec$[esp+24]
  00068	89 46 20	 mov	 DWORD PTR [esi+32], eax
  0006b	89 56 18	 mov	 DWORD PTR [esi+24], edx
  0006e	5f		 pop	 edi
  0006f	8b c6		 mov	 eax, esi
  00071	5e		 pop	 esi
  00072	64 89 0d 00 00
	00 00		 mov	 DWORD PTR fs:__except_list, ecx
  00079	83 c4 10	 add	 esp, 16			; 00000010H
  0007c	c2 1c 00	 ret	 28			; 0000001cH
_TEXT	ENDS
;	COMDAT text$x
text$x	SEGMENT
$L74684:
  00000	8b 4d f0	 mov	 ecx, DWORD PTR _this$[ebp]
  00003	e9 00 00 00 00	 jmp	 ??1ButtonBase@@UAE@XZ	; ButtonBase::~ButtonBase
__ehhandler$??0Button@@QAE@HHHHKPAVExec@@W4ClickOption@0@@Z:
  00008	b8 00 00 00 00	 mov	 eax, OFFSET FLAT:$T74697
  0000d	e9 00 00 00 00	 jmp	 ___CxxFrameHandler
text$x	ENDS
??0Button@@QAE@HHHHKPAVExec@@W4ClickOption@0@@Z ENDP	; Button::Button
; Function compile flags: /Ogty
;	COMDAT ??_GButton@@UAEPAXI@Z
_TEXT	SEGMENT
___flags$ = 8						; size = 4
??_GButton@@UAEPAXI@Z PROC NEAR				; Button::`scalar deleting destructor', COMDAT
; _this$ = ecx
  00000	56		 push	 esi
  00001	8b f1		 mov	 esi, ecx
  00003	e8 00 00 00 00	 call	 ??1Button@@UAE@XZ	; Button::~Button
  00008	f6 44 24 08 01	 test	 BYTE PTR ___flags$[esp], 1
  0000d	74 09		 je	 SHORT $L74707
  0000f	56		 push	 esi
  00010	e8 00 00 00 00	 call	 ??3@YAXPAX@Z		; operator delete
  00015	83 c4 04	 add	 esp, 4
$L74707:
  00018	8b c6		 mov	 eax, esi
  0001a	5e		 pop	 esi
  0001b	c2 04 00	 ret	 4
??_GButton@@UAEPAXI@Z ENDP				; Button::`scalar deleting destructor'
_TEXT	ENDS
PUBLIC	??0Button@@QAE@XZ				; Button::Button
; Function compile flags: /Ogty
;	COMDAT ??0Button@@QAE@XZ
_TEXT	SEGMENT
??0Button@@QAE@XZ PROC NEAR				; Button::Button, COMDAT
; _this$ = ecx

; 171  : {

  00000	56		 push	 esi
  00001	8b f1		 mov	 esi, ecx
  00003	8d 4e 04	 lea	 ecx, DWORD PTR [esi+4]
  00006	e8 00 00 00 00	 call	 ??0Rect@@QAE@XZ		; Rect::Rect
  0000b	32 c0		 xor	 al, al
  0000d	88 46 14	 mov	 BYTE PTR [esi+20], al
  00010	88 46 15	 mov	 BYTE PTR [esi+21], al
  00013	c7 06 00 00 00
	00		 mov	 DWORD PTR [esi], OFFSET FLAT:??_7Button@@6B@

; 172  : 
; 173  : }

  00019	8b c6		 mov	 eax, esi
  0001b	5e		 pop	 esi
  0001c	c3		 ret	 0
??0Button@@QAE@XZ ENDP					; Button::Button
_TEXT	ENDS
PUBLIC	??0EventButton@@QAE@HHHHKPAVExec@@W4ClickOption@Button@@@Z ; EventButton::EventButton
PUBLIC	?EventFocusOn@EventButton@@UAEXXZ		; EventButton::EventFocusOn
PUBLIC	?EventFocusOff@EventButton@@UAEXXZ		; EventButton::EventFocusOff
PUBLIC	?EventPressDown@EventButton@@UAEXXZ		; EventButton::EventPressDown
PUBLIC	?EventPressUp@EventButton@@UAEXXZ		; EventButton::EventPressUp
PUBLIC	??_7EventButton@@6B@				; EventButton::`vftable'
PUBLIC	??_GEventButton@@UAEPAXI@Z			; EventButton::`scalar deleting destructor'
PUBLIC	??_R4EventButton@@6B@				; EventButton::`RTTI Complete Object Locator'
PUBLIC	??_R0?AVEventButton@@@8				; EventButton `RTTI Type Descriptor'
PUBLIC	??_R3EventButton@@8				; EventButton::`RTTI Class Hierarchy Descriptor'
PUBLIC	??_R2EventButton@@8				; EventButton::`RTTI Base Class Array'
PUBLIC	??_R1A@?0A@A@EventButton@@8			; EventButton::`RTTI Base Class Descriptor at (0,-1,0,0)'
EXTRN	??_EEventButton@@UAEPAXI@Z:NEAR			; EventButton::`vector deleting destructor'
;	COMDAT ??_7EventButton@@6B@
CONST	SEGMENT
??_7EventButton@@6B@ DD FLAT:??_R4EventButton@@6B@	; EventButton::`vftable'
	DD	FLAT:??_EEventButton@@UAEPAXI@Z
	DD	FLAT:?InitState@EventButton@@UAEXXZ
	DD	FLAT:?MouseControl@EventButton@@UAE_NIHH@Z
	DD	FLAT:?EventFocusOn@EventButton@@UAEXXZ
	DD	FLAT:?EventFocusOff@EventButton@@UAEXXZ
	DD	FLAT:?EventPressDown@EventButton@@UAEXXZ
	DD	FLAT:?EventPressUp@EventButton@@UAEXXZ
CONST	ENDS
;	COMDAT ??_R4EventButton@@6B@
rdata$r	SEGMENT
??_R4EventButton@@6B@ DD 00H				; EventButton::`RTTI Complete Object Locator'
	DD	00H
	DD	00H
	DD	FLAT:??_R0?AVEventButton@@@8
	DD	FLAT:??_R3EventButton@@8
rdata$r	ENDS
;	COMDAT ??_R0?AVEventButton@@@8
_DATA	SEGMENT
??_R0?AVEventButton@@@8 DD FLAT:??_7type_info@@6B@	; EventButton `RTTI Type Descriptor'
	DD	00H
	DB	'.?AVEventButton@@', 00H
_DATA	ENDS
;	COMDAT ??_R3EventButton@@8
rdata$r	SEGMENT
??_R3EventButton@@8 DD 00H				; EventButton::`RTTI Class Hierarchy Descriptor'
	DD	00H
	DD	04H
	DD	FLAT:??_R2EventButton@@8
rdata$r	ENDS
;	COMDAT ??_R2EventButton@@8
rdata$r	SEGMENT
??_R2EventButton@@8 DD FLAT:??_R1A@?0A@A@EventButton@@8	; EventButton::`RTTI Base Class Array'
	DD	FLAT:??_R1A@?0A@A@Button@@8
	DD	FLAT:??_R1A@?0A@A@ButtonBase@@8
	DD	FLAT:??_R13?0A@A@Rect@@8
rdata$r	ENDS
;	COMDAT ??_R1A@?0A@A@EventButton@@8
rdata$r	SEGMENT
??_R1A@?0A@A@EventButton@@8 DD FLAT:??_R0?AVEventButton@@@8 ; EventButton::`RTTI Base Class Descriptor at (0,-1,0,0)'
	DD	03H
	DD	00H
	DD	0ffffffffH
	DD	00H
	DD	00H
; Function compile flags: /Ogty
rdata$r	ENDS
;	COMDAT ??0EventButton@@QAE@HHHHKPAVExec@@W4ClickOption@Button@@@Z
_TEXT	SEGMENT
__x$ = 8						; size = 4
__y$ = 12						; size = 4
__w$ = 16						; size = 4
__h$ = 20						; size = 4
_id$ = 24						; size = 4
_pC_exec_handler$ = 28					; size = 4
_co$ = 32						; size = 4
??0EventButton@@QAE@HHHHKPAVExec@@W4ClickOption@Button@@@Z PROC NEAR ; EventButton::EventButton, COMDAT
; _this$ = ecx

; 18   : {

  00000	8b 44 24 1c	 mov	 eax, DWORD PTR _co$[esp-4]
  00004	8b 54 24 14	 mov	 edx, DWORD PTR _id$[esp-4]
  00008	56		 push	 esi
  00009	50		 push	 eax
  0000a	8b 44 24 18	 mov	 eax, DWORD PTR __h$[esp+4]
  0000e	8b f1		 mov	 esi, ecx
  00010	8b 4c 24 20	 mov	 ecx, DWORD PTR _pC_exec_handler$[esp+4]
  00014	51		 push	 ecx
  00015	8b 4c 24 18	 mov	 ecx, DWORD PTR __w$[esp+8]
  00019	52		 push	 edx
  0001a	8b 54 24 18	 mov	 edx, DWORD PTR __y$[esp+12]
  0001e	50		 push	 eax
  0001f	8b 44 24 18	 mov	 eax, DWORD PTR __x$[esp+16]
  00023	51		 push	 ecx
  00024	52		 push	 edx
  00025	50		 push	 eax
  00026	8b ce		 mov	 ecx, esi
  00028	e8 00 00 00 00	 call	 ??0Button@@QAE@HHHHKPAVExec@@W4ClickOption@0@@Z ; Button::Button
  0002d	c7 06 00 00 00
	00		 mov	 DWORD PTR [esi], OFFSET FLAT:??_7EventButton@@6B@

; 19   : 	m_bl_prev_focus = false;

  00033	c6 46 24 00	 mov	 BYTE PTR [esi+36], 0

; 20   : }

  00037	8b c6		 mov	 eax, esi
  00039	5e		 pop	 esi
  0003a	c2 1c 00	 ret	 28			; 0000001cH
??0EventButton@@QAE@HHHHKPAVExec@@W4ClickOption@Button@@@Z ENDP ; EventButton::EventButton
; Function compile flags: /Ogty
; File c:\darkeden\designed_common\project\new - vs_ui\src\widget\u_button.h
_TEXT	ENDS
;	COMDAT ?EventFocusOn@EventButton@@UAEXXZ
_TEXT	SEGMENT
?EventFocusOn@EventButton@@UAEXXZ PROC NEAR		; EventButton::EventFocusOn, COMDAT
; _this$ = ecx

; 159  : 	virtual void	EventFocusOn() {}

  00000	c3		 ret	 0
?EventFocusOn@EventButton@@UAEXXZ ENDP			; EventButton::EventFocusOn
; Function compile flags: /Ogty
_TEXT	ENDS
;	COMDAT ?EventFocusOff@EventButton@@UAEXXZ
_TEXT	SEGMENT
?EventFocusOff@EventButton@@UAEXXZ PROC NEAR		; EventButton::EventFocusOff, COMDAT
; _this$ = ecx

; 160  : 	virtual void	EventFocusOff() {}

  00000	c3		 ret	 0
?EventFocusOff@EventButton@@UAEXXZ ENDP			; EventButton::EventFocusOff
; Function compile flags: /Ogty
_TEXT	ENDS
;	COMDAT ?EventPressDown@EventButton@@UAEXXZ
_TEXT	SEGMENT
?EventPressDown@EventButton@@UAEXXZ PROC NEAR		; EventButton::EventPressDown, COMDAT
; _this$ = ecx

; 161  : 	virtual void	EventPressDown() {}

  00000	c3		 ret	 0
?EventPressDown@EventButton@@UAEXXZ ENDP		; EventButton::EventPressDown
; Function compile flags: /Ogty
_TEXT	ENDS
;	COMDAT ?EventPressUp@EventButton@@UAEXXZ
_TEXT	SEGMENT
?EventPressUp@EventButton@@UAEXXZ PROC NEAR		; EventButton::EventPressUp, COMDAT
; _this$ = ecx

; 162  : 	virtual void	EventPressUp() {}

  00000	c3		 ret	 0
?EventPressUp@EventButton@@UAEXXZ ENDP			; EventButton::EventPressUp
; Function compile flags: /Ogty
_TEXT	ENDS
;	COMDAT ??_GEventButton@@UAEPAXI@Z
_TEXT	SEGMENT
___flags$ = 8						; size = 4
??_GEventButton@@UAEPAXI@Z PROC NEAR			; EventButton::`scalar deleting destructor', COMDAT
; _this$ = ecx
  00000	56		 push	 esi
  00001	8b f1		 mov	 esi, ecx
  00003	e8 00 00 00 00	 call	 ??1EventButton@@UAE@XZ	; EventButton::~EventButton
  00008	f6 44 24 08 01	 test	 BYTE PTR ___flags$[esp], 1
  0000d	74 09		 je	 SHORT $L74740
  0000f	56		 push	 esi
  00010	e8 00 00 00 00	 call	 ??3@YAXPAX@Z		; operator delete
  00015	83 c4 04	 add	 esp, 4
$L74740:
  00018	8b c6		 mov	 eax, esi
  0001a	5e		 pop	 esi
  0001b	c2 04 00	 ret	 4
??_GEventButton@@UAEPAXI@Z ENDP				; EventButton::`scalar deleting destructor'
_TEXT	ENDS
END
