; Listing generated by Microsoft (R) Optimizing Compiler Version 13.10.3077 

	TITLE	\darkeden\Designed_Common\Project\New - vs_ui\src\widget\U_edit.cpp
	.386P
include listing.inc
if @Version gt 510
.model FLAT
else
_TEXT	SEGMENT PARA USE32 PUBLIC 'CODE'
_TEXT	ENDS
_DATA	SEGMENT DWORD USE32 PUBLIC 'DATA'
_DATA	ENDS
CONST	SEGMENT DWORD USE32 PUBLIC 'CONST'
CONST	ENDS
_BSS	SEGMENT DWORD USE32 PUBLIC 'BSS'
_BSS	ENDS
$$SYMBOLS	SEGMENT BYTE USE32 'DEBSYM'
$$SYMBOLS	ENDS
$$TYPES	SEGMENT BYTE USE32 'DEBTYP'
$$TYPES	ENDS
_TLS	SEGMENT DWORD USE32 PUBLIC 'TLS'
_TLS	ENDS
;	COMDAT ??_C@_0O@JKENFCBN@MinTrace?52003?$AA@
CONST	SEGMENT DWORD USE32 PUBLIC 'CONST'
CONST	ENDS
;	COMDAT ??_C@_0BE@MNEJIGLM@__MinTrace?5Window__?$AA@
CONST	SEGMENT DWORD USE32 PUBLIC 'CONST'
CONST	ENDS
;	COMDAT ??_C@_06KLPNNMEP@?$CF8d?0?$CFs?$AA@
CONST	SEGMENT DWORD USE32 PUBLIC 'CONST'
CONST	ENDS
;	COMDAT ??_C@_09LCOPKLB@?$ICl?$ICr?5?$JG?$LO?$JC?$KJ?$AA@
CONST	SEGMENT DWORD USE32 PUBLIC 'CONST'
CONST	ENDS
;	COMDAT ??_C@_0EE@EDJMHLAP@?2darkeden?2Designed_Common?2Projec@
CONST	SEGMENT DWORD USE32 PUBLIC 'CONST'
CONST	ENDS
;	COMDAT ??_C@_02FCIFMLCO@?$LB?h?$AA@
CONST	SEGMENT DWORD USE32 PUBLIC 'CONST'
CONST	ENDS
;	COMDAT ??_C@_01MCMALHOG@a?$AA@
CONST	SEGMENT DWORD USE32 PUBLIC 'CONST'
CONST	ENDS
;	COMDAT ??_C@_0N@GOPDCEEB@basic_string?$AA@
CONST	SEGMENT DWORD USE32 PUBLIC 'CONST'
CONST	ENDS
rdata$r	SEGMENT DWORD USE32 PUBLIC 'CONST'
rdata$r	ENDS
text$yc	SEGMENT PARA USE32 PUBLIC 'CODE'
text$yc	ENDS
CRT$XCA	SEGMENT DWORD USE32 PUBLIC 'DATA'
CRT$XCA	ENDS
CRT$XCU	SEGMENT DWORD USE32 PUBLIC 'DATA'
CRT$XCU	ENDS
CRT$XCL	SEGMENT DWORD USE32 PUBLIC 'DATA'
CRT$XCL	ENDS
CRT$XCC	SEGMENT DWORD USE32 PUBLIC 'DATA'
CRT$XCC	ENDS
CRT$XCZ	SEGMENT DWORD USE32 PUBLIC 'DATA'
CRT$XCZ	ENDS
text$yd	SEGMENT PARA USE32 PUBLIC 'CODE'
text$yd	ENDS
;	COMDAT ?_MinTraceA@@YAXPBD@Z
_TEXT	SEGMENT PARA USE32 PUBLIC 'CODE'
_TEXT	ENDS
;	COMDAT ?_MinTraceErrA@@YAXPBD@Z
_TEXT	SEGMENT PARA USE32 PUBLIC 'CODE'
_TEXT	ENDS
;	COMDAT ?_MinTraceWarA@@YAXPBD@Z
_TEXT	SEGMENT PARA USE32 PUBLIC 'CODE'
_TEXT	ENDS
;	COMDAT ?_ClMinTraceA@@YAXKPBD@Z
_TEXT	SEGMENT PARA USE32 PUBLIC 'CODE'
_TEXT	ENDS
;	COMDAT ?_CmdMinTraceA@@YAXHPBD@Z
_TEXT	SEGMENT PARA USE32 PUBLIC 'CODE'
_TEXT	ENDS
;	COMDAT ?GetComposingChar@CI@@QAEGXZ
_TEXT	SEGMENT PARA USE32 PUBLIC 'CODE'
_TEXT	ENDS
;	COMDAT ?GetComposingStringPtr@CI@@QAEPBDXZ
_TEXT	SEGMENT PARA USE32 PUBLIC 'CODE'
_TEXT	ENDS
;	COMDAT ?GetInsertModeState@CI@@QBE_NXZ
_TEXT	SEGMENT PARA USE32 PUBLIC 'CODE'
_TEXT	ENDS
;	COMDAT ?ToggleInsertMode@CI@@QAEXXZ
_TEXT	SEGMENT PARA USE32 PUBLIC 'CODE'
_TEXT	ENDS
;	COMDAT ?ImeRunning@CI@@QBE_NXZ
_TEXT	SEGMENT PARA USE32 PUBLIC 'CODE'
_TEXT	ENDS
;	COMDAT ?GetLineCount@LineEditor@@UBE?BHXZ
_TEXT	SEGMENT PARA USE32 PUBLIC 'CODE'
_TEXT	ENDS
;	COMDAT ?ReachEndOfBox@LineEditor@@UBE_NG@Z
_TEXT	SEGMENT PARA USE32 PUBLIC 'CODE'
_TEXT	ENDS
;	COMDAT ?Size@LineEditor@@QBEHXZ
_TEXT	SEGMENT PARA USE32 PUBLIC 'CODE'
_TEXT	ENDS
;	COMDAT ?GetCursor@LineEditor@@QBEHXZ
_TEXT	SEGMENT PARA USE32 PUBLIC 'CODE'
_TEXT	ENDS
;	COMDAT ?GetDigitOnlyMode@LineEditor@@QBE_NXZ
_TEXT	SEGMENT PARA USE32 PUBLIC 'CODE'
_TEXT	ENDS
;	COMDAT ?SetImePosition@@YAXHH@Z
_TEXT	SEGMENT PARA USE32 PUBLIC 'CODE'
_TEXT	ENDS
;	COMDAT ??0LineEditor@@QAE@XZ
_TEXT	SEGMENT PARA USE32 PUBLIC 'CODE'
_TEXT	ENDS
;	COMDAT ??0LineEditor@@QAE@H@Z
_TEXT	SEGMENT PARA USE32 PUBLIC 'CODE'
_TEXT	ENDS
;	COMDAT ??1LineEditor@@QAE@XZ
_TEXT	SEGMENT PARA USE32 PUBLIC 'CODE'
_TEXT	ENDS
;	COMDAT ?AddString@LineEditor@@QAEXPBD@Z
_TEXT	SEGMENT PARA USE32 PUBLIC 'CODE'
_TEXT	ENDS
;	COMDAT ?CheckInputCharLimit@LineEditor@@QBE_NXZ
_TEXT	SEGMENT PARA USE32 PUBLIC 'CODE'
_TEXT	ENDS
;	COMDAT ?SetByteLimit@LineEditor@@QAEXH@Z
_TEXT	SEGMENT PARA USE32 PUBLIC 'CODE'
_TEXT	ENDS
;	COMDAT ?CheckInputLimit@LineEditor@@QAE_NG@Z
_TEXT	SEGMENT PARA USE32 PUBLIC 'CODE'
_TEXT	ENDS
;	COMDAT ?EraseCharacterFrontCursor@LineEditor@@QAE_NXZ
_TEXT	SEGMENT PARA USE32 PUBLIC 'CODE'
_TEXT	ENDS
;	COMDAT ?EraseCharacterBegin@LineEditor@@QAE_NXZ
_TEXT	SEGMENT PARA USE32 PUBLIC 'CODE'
_TEXT	ENDS
;	COMDAT ?EraseAll@LineEditor@@QAEXXZ
_TEXT	SEGMENT PARA USE32 PUBLIC 'CODE'
_TEXT	ENDS
;	COMDAT ?InsertGap@LineEditor@@QAE_NXZ
_TEXT	SEGMENT PARA USE32 PUBLIC 'CODE'
_TEXT	ENDS
;	COMDAT ?IncreaseCursor@LineEditor@@QAEHXZ
_TEXT	SEGMENT PARA USE32 PUBLIC 'CODE'
_TEXT	ENDS
;	COMDAT ?DecreaseCursor@LineEditor@@QAEHXZ
_TEXT	SEGMENT PARA USE32 PUBLIC 'CODE'
_TEXT	ENDS
;	COMDAT ?HomeCursor@LineEditor@@QAE_NXZ
_TEXT	SEGMENT PARA USE32 PUBLIC 'CODE'
_TEXT	ENDS
;	COMDAT ?EndCursor@LineEditor@@QAE_NXZ
_TEXT	SEGMENT PARA USE32 PUBLIC 'CODE'
_TEXT	ENDS
;	COMDAT ?Init@LineEditor@@QAEXXZ
_TEXT	SEGMENT PARA USE32 PUBLIC 'CODE'
_TEXT	ENDS
;	COMDAT ?SetInputCharCount@LineEditor@@QAEXH@Z
_TEXT	SEGMENT PARA USE32 PUBLIC 'CODE'
_TEXT	ENDS
;	COMDAT ?GetInputCharCount@LineEditor@@QAEHXZ
_TEXT	SEGMENT PARA USE32 PUBLIC 'CODE'
_TEXT	ENDS
;	COMDAT ?KeyboardControl@LineEditor@@QAEXIIJ@Z
_TEXT	SEGMENT PARA USE32 PUBLIC 'CODE'
_TEXT	ENDS
;	COMDAT ?IsAcquire@LineEditor@@QBE_NXZ
_TEXT	SEGMENT PARA USE32 PUBLIC 'CODE'
_TEXT	ENDS
;	COMDAT ?Acquire@LineEditor@@QAEXXZ
_TEXT	SEGMENT PARA USE32 PUBLIC 'CODE'
_TEXT	ENDS
;	COMDAT ?Unacquire@LineEditor@@QAEXXZ
_TEXT	SEGMENT PARA USE32 PUBLIC 'CODE'
_TEXT	ENDS
;	COMDAT ?EditToCursorPosition@LineEditor@@QAEXG@Z
_TEXT	SEGMENT PARA USE32 PUBLIC 'CODE'
_TEXT	ENDS
;	COMDAT ?EditToCursorPositionForIME@LineEditor@@QAEXG@Z
_TEXT	SEGMENT PARA USE32 PUBLIC 'CODE'
_TEXT	ENDS
;	COMDAT ?InsertMark@LineEditor@@QAEXG@Z
_TEXT	SEGMENT PARA USE32 PUBLIC 'CODE'
_TEXT	ENDS
;	COMDAT ?IME_EndComposition@@YAXXZ
_TEXT	SEGMENT PARA USE32 PUBLIC 'CODE'
_TEXT	ENDS
;	COMDAT ?IME_Composition@CI_KOREAN@@UAEXXZ
_TEXT	SEGMENT PARA USE32 PUBLIC 'CODE'
_TEXT	ENDS
;	COMDAT ?IME_StartComposition@@YAXXZ
_TEXT	SEGMENT PARA USE32 PUBLIC 'CODE'
_TEXT	ENDS
;	COMDAT ?IME_NextComposition@CI_KOREAN@@UAEXXZ
_TEXT	SEGMENT PARA USE32 PUBLIC 'CODE'
_TEXT	ENDS
;	COMDAT ?IME_Normal@@YAXIIJ@Z
_TEXT	SEGMENT PARA USE32 PUBLIC 'CODE'
_TEXT	ENDS
;	COMDAT ??0LineEditorVisual@@QAE@XZ
_TEXT	SEGMENT PARA USE32 PUBLIC 'CODE'
_TEXT	ENDS
;	COMDAT ??1LineEditorVisual@@QAE@XZ
_TEXT	SEGMENT PARA USE32 PUBLIC 'CODE'
_TEXT	ENDS
;	COMDAT ?SetPrintInfo@LineEditorVisual@@QAEXAAUPrintInfo@@@Z
_TEXT	SEGMENT PARA USE32 PUBLIC 'CODE'
_TEXT	ENDS
;	COMDAT ?ReachEndOfBox@LineEditorVisual@@UBE_NG@Z
_TEXT	SEGMENT PARA USE32 PUBLIC 'CODE'
_TEXT	ENDS
;	COMDAT ?ReachSizeOfBox@LineEditorVisual@@QBEHXZ
_TEXT	SEGMENT PARA USE32 PUBLIC 'CODE'
_TEXT	ENDS
;	COMDAT ?SetAbsWidth@LineEditorVisual@@QAEXH@Z
_TEXT	SEGMENT PARA USE32 PUBLIC 'CODE'
_TEXT	ENDS
;	COMDAT ?PasswordMode@LineEditorVisual@@QAEX_N@Z
_TEXT	SEGMENT PARA USE32 PUBLIC 'CODE'
_TEXT	ENDS
;	COMDAT ?SetCursorColor@LineEditorVisual@@QAEXK@Z
_TEXT	SEGMENT PARA USE32 PUBLIC 'CODE'
_TEXT	ENDS
;	COMDAT ?SetPosition@LineEditorVisual@@QAEXHH@Z
_TEXT	SEGMENT PARA USE32 PUBLIC 'CODE'
_TEXT	ENDS
;	COMDAT ?MouseControl@LineEditorVisual@@QAE_NIHH@Z
_TEXT	SEGMENT PARA USE32 PUBLIC 'CODE'
_TEXT	ENDS
;	COMDAT ?Show@LineEditorVisual@@QBEXXZ
_TEXT	SEGMENT PARA USE32 PUBLIC 'CODE'
_TEXT	ENDS
;	COMDAT ?GetLineCount@LineEditorVisual@@UBE?BHXZ
_TEXT	SEGMENT PARA USE32 PUBLIC 'CODE'
_TEXT	ENDS
;	COMDAT ?IME_Composition@CI_CHINESE@@UAEXXZ
_TEXT	SEGMENT PARA USE32 PUBLIC 'CODE'
_TEXT	ENDS
;	COMDAT ?IME_NextComposition@CI_CHINESE@@UAEXXZ
_TEXT	SEGMENT PARA USE32 PUBLIC 'CODE'
_TEXT	ENDS
;	COMDAT ?IME_Composition@CI_JAPAN@@UAEXXZ
_TEXT	SEGMENT PARA USE32 PUBLIC 'CODE'
_TEXT	ENDS
;	COMDAT ?IME_NextComposition@CI_JAPAN@@UAEXXZ
_TEXT	SEGMENT PARA USE32 PUBLIC 'CODE'
_TEXT	ENDS
;	COMDAT ?eq@?$__char_traits_base@DH@_STL@@SA_NABD0@Z
_TEXT	SEGMENT PARA USE32 PUBLIC 'CODE'
_TEXT	ENDS
;	COMDAT ?not_eof@?$__char_traits_base@DH@_STL@@SAHABH@Z
_TEXT	SEGMENT PARA USE32 PUBLIC 'CODE'
_TEXT	ENDS
;	COMDAT ?eq_int_type@?$__char_traits_base@DH@_STL@@SA_NABH0@Z
_TEXT	SEGMENT PARA USE32 PUBLIC 'CODE'
_TEXT	ENDS
;	COMDAT ??4?$basic_string@GV?$char_traits@G@_STL@@V?$allocator@G@2@@_STL@@QAEAAV01@ABV01@@Z
_TEXT	SEGMENT PARA USE32 PUBLIC 'CODE'
_TEXT	ENDS
;	COMDAT ?size@?$basic_string@GV?$char_traits@G@_STL@@V?$allocator@G@2@@_STL@@QBEIXZ
_TEXT	SEGMENT PARA USE32 PUBLIC 'CODE'
_TEXT	ENDS
;	COMDAT ??A?$basic_string@GV?$char_traits@G@_STL@@V?$allocator@G@2@@_STL@@QAEAAGI@Z
_TEXT	SEGMENT PARA USE32 PUBLIC 'CODE'
_TEXT	ENDS
;	COMDAT ??Y?$basic_string@GV?$char_traits@G@_STL@@V?$allocator@G@2@@_STL@@QAEAAV01@G@Z
_TEXT	SEGMENT PARA USE32 PUBLIC 'CODE'
_TEXT	ENDS
;	COMDAT ?insert@?$basic_string@GV?$char_traits@G@_STL@@V?$allocator@G@2@@_STL@@QAEAAV12@IPBG@Z
_TEXT	SEGMENT PARA USE32 PUBLIC 'CODE'
_TEXT	ENDS
;	COMDAT ?erase@?$basic_string@GV?$char_traits@G@_STL@@V?$allocator@G@2@@_STL@@QAEAAV12@II@Z
_TEXT	SEGMENT PARA USE32 PUBLIC 'CODE'
_TEXT	ENDS
;	COMDAT ?erase@?$basic_string@GV?$char_traits@G@_STL@@V?$allocator@G@2@@_STL@@QAEPAGPAG@Z
_TEXT	SEGMENT PARA USE32 PUBLIC 'CODE'
_TEXT	ENDS
;	COMDAT ?c_str@?$basic_string@GV?$char_traits@G@_STL@@V?$allocator@G@2@@_STL@@QBEPBGXZ
_TEXT	SEGMENT PARA USE32 PUBLIC 'CODE'
_TEXT	ENDS
;	COMDAT ??0?$fpos@H@_STL@@QAE@J@Z
_TEXT	SEGMENT PARA USE32 PUBLIC 'CODE'
_TEXT	ENDS
;	COMDAT ??B?$fpos@H@_STL@@QBEJXZ
_TEXT	SEGMENT PARA USE32 PUBLIC 'CODE'
_TEXT	ENDS
;	COMDAT ?state@?$fpos@H@_STL@@QBEHXZ
_TEXT	SEGMENT PARA USE32 PUBLIC 'CODE'
_TEXT	ENDS
;	COMDAT ?is_open@?$basic_filebuf@DV?$char_traits@D@_STL@@@_STL@@QBE_NXZ
_TEXT	SEGMENT PARA USE32 PUBLIC 'CODE'
_TEXT	ENDS
;	COMDAT ?_M_seek_return@?$basic_filebuf@DV?$char_traits@D@_STL@@@_STL@@AAE?AV?$fpos@H@2@JH@Z
_TEXT	SEGMENT PARA USE32 PUBLIC 'CODE'
_TEXT	ENDS
;	COMDAT ??0?$_Filebuf_Tmp_Buf@D@_STL@@QAE@H@Z
_TEXT	SEGMENT PARA USE32 PUBLIC 'CODE'
_TEXT	ENDS
;	COMDAT ??1?$_Filebuf_Tmp_Buf@D@_STL@@QAE@XZ
_TEXT	SEGMENT PARA USE32 PUBLIC 'CODE'
_TEXT	ENDS
;	COMDAT ?begin@?$vector@HV?$allocator@H@_STL@@@_STL@@QAEPAHXZ
_TEXT	SEGMENT PARA USE32 PUBLIC 'CODE'
_TEXT	ENDS
;	COMDAT ?end@?$vector@HV?$allocator@H@_STL@@@_STL@@QAEPAHXZ
_TEXT	SEGMENT PARA USE32 PUBLIC 'CODE'
_TEXT	ENDS
;	COMDAT ?size@?$vector@HV?$allocator@H@_STL@@@_STL@@QBEIXZ
_TEXT	SEGMENT PARA USE32 PUBLIC 'CODE'
_TEXT	ENDS
;	COMDAT ??0?$vector@HV?$allocator@H@_STL@@@_STL@@QAE@ABV?$allocator@H@1@@Z
_TEXT	SEGMENT PARA USE32 PUBLIC 'CODE'
_TEXT	ENDS
;	COMDAT ??1?$vector@HV?$allocator@H@_STL@@@_STL@@QAE@XZ
_TEXT	SEGMENT PARA USE32 PUBLIC 'CODE'
_TEXT	ENDS
;	COMDAT ?push_back@?$vector@HV?$allocator@H@_STL@@@_STL@@QAEXABH@Z
_TEXT	SEGMENT PARA USE32 PUBLIC 'CODE'
_TEXT	ENDS
;	COMDAT ??0?$allocator@H@_STL@@QAE@XZ
_TEXT	SEGMENT PARA USE32 PUBLIC 'CODE'
_TEXT	ENDS
;	COMDAT ??1?$allocator@H@_STL@@QAE@XZ
_TEXT	SEGMENT PARA USE32 PUBLIC 'CODE'
_TEXT	ENDS
;	COMDAT ?length@?$__char_traits_base@GG@_STL@@SAIPBG@Z
_TEXT	SEGMENT PARA USE32 PUBLIC 'CODE'
_TEXT	ENDS
;	COMDAT ?move@?$__char_traits_base@GG@_STL@@SAPAGPAGPBGI@Z
_TEXT	SEGMENT PARA USE32 PUBLIC 'CODE'
_TEXT	ENDS
;	COMDAT ?begin@?$basic_string@GV?$char_traits@G@_STL@@V?$allocator@G@2@@_STL@@QAEPAGXZ
_TEXT	SEGMENT PARA USE32 PUBLIC 'CODE'
_TEXT	ENDS
;	COMDAT ?max_size@?$basic_string@GV?$char_traits@G@_STL@@V?$allocator@G@2@@_STL@@QBEIXZ
_TEXT	SEGMENT PARA USE32 PUBLIC 'CODE'
_TEXT	ENDS
;	COMDAT ?push_back@?$basic_string@GV?$char_traits@G@_STL@@V?$allocator@G@2@@_STL@@QAEXG@Z
_TEXT	SEGMENT PARA USE32 PUBLIC 'CODE'
_TEXT	ENDS
;	COMDAT ?erase@?$basic_string@GV?$char_traits@G@_STL@@V?$allocator@G@2@@_STL@@QAEPAGPAG0@Z
_TEXT	SEGMENT PARA USE32 PUBLIC 'CODE'
_TEXT	ENDS
;	COMDAT ?state@?$fpos@H@_STL@@QAEXH@Z
_TEXT	SEGMENT PARA USE32 PUBLIC 'CODE'
_TEXT	ENDS
;	COMDAT ?_M_insert_overflow@?$vector@HV?$allocator@H@_STL@@@_STL@@IAEXPAHABHABU__true_type@2@I_N@Z
_TEXT	SEGMENT PARA USE32 PUBLIC 'CODE'
_TEXT	ENDS
;	COMDAT ??0?$_Vector_base@HV?$allocator@H@_STL@@@_STL@@QAE@ABV?$allocator@H@1@@Z
_TEXT	SEGMENT PARA USE32 PUBLIC 'CODE'
_TEXT	ENDS
;	COMDAT ??1?$_Vector_base@HV?$allocator@H@_STL@@@_STL@@QAE@XZ
_TEXT	SEGMENT PARA USE32 PUBLIC 'CODE'
_TEXT	ENDS
;	COMDAT ??1?$_STLP_alloc_proxy@PAHHV?$allocator@H@_STL@@@_STL@@QAE@XZ
_TEXT	SEGMENT PARA USE32 PUBLIC 'CODE'
_TEXT	ENDS
;	COMDAT ?assign@?$__char_traits_base@GG@_STL@@SAXAAGABG@Z
_TEXT	SEGMENT PARA USE32 PUBLIC 'CODE'
_TEXT	ENDS
;	COMDAT ?eq@?$__char_traits_base@GG@_STL@@SA_NABG0@Z
_TEXT	SEGMENT PARA USE32 PUBLIC 'CODE'
_TEXT	ENDS
;	COMDAT ?_M_construct_null@?$basic_string@GV?$char_traits@G@_STL@@V?$allocator@G@2@@_STL@@AAEXPAG@Z
_TEXT	SEGMENT PARA USE32 PUBLIC 'CODE'
_TEXT	ENDS
;	COMDAT ?max_size@?$_String_base@GV?$allocator@G@_STL@@@_STL@@QBEIXZ
_TEXT	SEGMENT PARA USE32 PUBLIC 'CODE'
_TEXT	ENDS
;	COMDAT ?_M_clear@?$vector@HV?$allocator@H@_STL@@@_STL@@IAEXXZ
_TEXT	SEGMENT PARA USE32 PUBLIC 'CODE'
_TEXT	ENDS
;	COMDAT ?_M_set@?$vector@HV?$allocator@H@_STL@@@_STL@@IAEXPAH00@Z
_TEXT	SEGMENT PARA USE32 PUBLIC 'CODE'
_TEXT	ENDS
;	COMDAT ?allocate@?$allocator@H@_STL@@QAEPAHIPBX@Z
_TEXT	SEGMENT PARA USE32 PUBLIC 'CODE'
_TEXT	ENDS
;	COMDAT ?deallocate@?$allocator@H@_STL@@QAEXPAHI@Z
_TEXT	SEGMENT PARA USE32 PUBLIC 'CODE'
_TEXT	ENDS
;	COMDAT ??0?$_STLP_alloc_proxy@PAHHV?$allocator@H@_STL@@@_STL@@QAE@ABV?$allocator@H@1@PAH@Z
_TEXT	SEGMENT PARA USE32 PUBLIC 'CODE'
_TEXT	ENDS
;	COMDAT ?_M_construct_null_aux@?$basic_string@GV?$char_traits@G@_STL@@V?$allocator@G@2@@_STL@@AAEXPAGABU__true_type@2@@Z
_TEXT	SEGMENT PARA USE32 PUBLIC 'CODE'
_TEXT	ENDS
;	COMDAT ?allocate@?$__node_alloc@$00$0A@@_STL@@SAPAXI@Z
_TEXT	SEGMENT PARA USE32 PUBLIC 'CODE'
_TEXT	ENDS
;	COMDAT ??0?$allocator@H@_STL@@QAE@ABV01@@Z
_TEXT	SEGMENT PARA USE32 PUBLIC 'CODE'
_TEXT	ENDS
;	COMDAT ?close@?$basic_filebuf@DV?$char_traits@D@_STL@@@_STL@@QAEPAV12@XZ
_TEXT	SEGMENT PARA USE32 PUBLIC 'CODE'
_TEXT	ENDS
;	COMDAT ?_M_exit_input_mode@?$basic_filebuf@DV?$char_traits@D@_STL@@@_STL@@AAEXXZ
_TEXT	SEGMENT PARA USE32 PUBLIC 'CODE'
_TEXT	ENDS
;	COMDAT ?_M_switch_to_output_mode@?$basic_filebuf@DV?$char_traits@D@_STL@@@_STL@@AAE_NXZ
_TEXT	SEGMENT PARA USE32 PUBLIC 'CODE'
_TEXT	ENDS
;	COMDAT ?_M_output_error@?$basic_filebuf@DV?$char_traits@D@_STL@@@_STL@@AAEHXZ
_TEXT	SEGMENT PARA USE32 PUBLIC 'CODE'
_TEXT	ENDS
;	COMDAT ?_M_allocate_buffers@?$basic_filebuf@DV?$char_traits@D@_STL@@@_STL@@AAE_NPADH@Z
_TEXT	SEGMENT PARA USE32 PUBLIC 'CODE'
_TEXT	ENDS
;	COMDAT ?_M_deallocate_buffers@?$basic_filebuf@DV?$char_traits@D@_STL@@@_STL@@AAEXXZ
_TEXT	SEGMENT PARA USE32 PUBLIC 'CODE'
_TEXT	ENDS
;	COMDAT ?_M_seek_init@?$basic_filebuf@DV?$char_traits@D@_STL@@@_STL@@AAE_N_N@Z
_TEXT	SEGMENT PARA USE32 PUBLIC 'CODE'
_TEXT	ENDS
;	COMDAT ?_M_setup_codecvt@?$basic_filebuf@DV?$char_traits@D@_STL@@@_STL@@AAEXABVlocale@2@@Z
_TEXT	SEGMENT PARA USE32 PUBLIC 'CODE'
_TEXT	ENDS
;	COMDAT ??$equal@PADPADU?$_Eq_traits@V?$char_traits@D@_STL@@@_STL@@@_STL@@YA_NPAD00U?$_Eq_traits@V?$char_traits@D@_STL@@@0@@Z
_TEXT	SEGMENT PARA USE32 PUBLIC 'CODE'
_TEXT	ENDS
;	COMDAT ??0?$basic_string@GV?$char_traits@G@_STL@@V?$allocator@G@2@@_STL@@QAE@XZ
_TEXT	SEGMENT PARA USE32 PUBLIC 'CODE'
_TEXT	ENDS
;	COMDAT ?reserve@?$basic_string@GV?$char_traits@G@_STL@@V?$allocator@G@2@@_STL@@QAEXI@Z
_TEXT	SEGMENT PARA USE32 PUBLIC 'CODE'
_TEXT	ENDS
;	COMDAT ??$assign@PAG@?$basic_string@GV?$char_traits@G@_STL@@V?$allocator@G@2@@_STL@@QAEAAV01@PAG0@Z
_TEXT	SEGMENT PARA USE32 PUBLIC 'CODE'
_TEXT	ENDS
;	COMDAT ?_M_throw_length_error@?$_String_base@GV?$allocator@G@_STL@@@_STL@@QBEXXZ
_TEXT	SEGMENT PARA USE32 PUBLIC 'CODE'
_TEXT	ENDS
;	COMDAT ?_M_throw_out_of_range@?$_String_base@GV?$allocator@G@_STL@@@_STL@@QBEXXZ
_TEXT	SEGMENT PARA USE32 PUBLIC 'CODE'
_TEXT	ENDS
;	COMDAT ??$insert@PBG@?$basic_string@GV?$char_traits@G@_STL@@V?$allocator@G@2@@_STL@@QAEXPAGPBG1@Z
_TEXT	SEGMENT PARA USE32 PUBLIC 'CODE'
_TEXT	ENDS
;	COMDAT ??$_Destroy@G@_STL@@YAXPAG@Z
_TEXT	SEGMENT PARA USE32 PUBLIC 'CODE'
_TEXT	ENDS
;	COMDAT ??$_Destroy@PAH@_STL@@YAXPAH0@Z
_TEXT	SEGMENT PARA USE32 PUBLIC 'CODE'
_TEXT	ENDS
;	COMDAT ??$_Construct@HH@_STL@@YAXPAHABH@Z
_TEXT	SEGMENT PARA USE32 PUBLIC 'CODE'
_TEXT	ENDS
;	COMDAT ??$max@I@_STL@@YAABIABI0@Z
_TEXT	SEGMENT PARA USE32 PUBLIC 'CODE'
_TEXT	ENDS
;	COMDAT ??$fill_n@PAHIH@_STL@@YAPAHPAHIABH@Z
_TEXT	SEGMENT PARA USE32 PUBLIC 'CODE'
_TEXT	ENDS
;	COMDAT ?_M_terminate_string@?$basic_string@GV?$char_traits@G@_STL@@V?$allocator@G@2@@_STL@@AAEXXZ
_TEXT	SEGMENT PARA USE32 PUBLIC 'CODE'
_TEXT	ENDS
;	COMDAT ?capacity@?$basic_string@GV?$char_traits@G@_STL@@V?$allocator@G@2@@_STL@@QBEIXZ
_TEXT	SEGMENT PARA USE32 PUBLIC 'CODE'
_TEXT	ENDS
;	COMDAT ??0?$_String_base@GV?$allocator@G@_STL@@@_STL@@QAE@ABV?$allocator@G@1@@Z
_TEXT	SEGMENT PARA USE32 PUBLIC 'CODE'
_TEXT	ENDS
;	COMDAT ??0?$allocator@G@_STL@@QAE@XZ
_TEXT	SEGMENT PARA USE32 PUBLIC 'CODE'
_TEXT	ENDS
;	COMDAT ?allocate@?$allocator@G@_STL@@QAEPAGIPBX@Z
_TEXT	SEGMENT PARA USE32 PUBLIC 'CODE'
_TEXT	ENDS
;	COMDAT ?_M_exit_putback_mode@?$basic_filebuf@DV?$char_traits@D@_STL@@@_STL@@AAEXXZ
_TEXT	SEGMENT PARA USE32 PUBLIC 'CODE'
_TEXT	ENDS
;	COMDAT ??R?$_Eq_traits@V?$char_traits@D@_STL@@@_STL@@QBE_NABD0@Z
_TEXT	SEGMENT PARA USE32 PUBLIC 'CODE'
_TEXT	ENDS
;	COMDAT ?_M_terminate_string_aux@?$basic_string@GV?$char_traits@G@_STL@@V?$allocator@G@2@@_STL@@AAEXABU__true_type@2@@Z
_TEXT	SEGMENT PARA USE32 PUBLIC 'CODE'
_TEXT	ENDS
;	COMDAT ??0?$_STLP_alloc_proxy@PAGGV?$allocator@G@_STL@@@_STL@@QAE@ABV?$allocator@G@1@PAG@Z
_TEXT	SEGMENT PARA USE32 PUBLIC 'CODE'
_TEXT	ENDS
;	COMDAT ??0?$allocator@G@_STL@@QAE@ABV01@@Z
_TEXT	SEGMENT PARA USE32 PUBLIC 'CODE'
_TEXT	ENDS
;	COMDAT ?_M_unshift@?$basic_filebuf@DV?$char_traits@D@_STL@@@_STL@@AAE_NXZ
_TEXT	SEGMENT PARA USE32 PUBLIC 'CODE'
_TEXT	ENDS
;	COMDAT ?_M_allocate_buffers@?$basic_filebuf@DV?$char_traits@D@_STL@@@_STL@@AAE_NXZ
_TEXT	SEGMENT PARA USE32 PUBLIC 'CODE'
_TEXT	ENDS
;	COMDAT ??$max@H@_STL@@YAABHABH0@Z
_TEXT	SEGMENT PARA USE32 PUBLIC 'CODE'
_TEXT	ENDS
;	COMDAT ??$use_facet@V?$codecvt@DDH@_STL@@@_STL@@YAABV?$codecvt@DDH@0@ABVlocale@0@@Z
_TEXT	SEGMENT PARA USE32 PUBLIC 'CODE'
_TEXT	ENDS
;	COMDAT ??$uninitialized_copy@PAGPAG@_STL@@YAPAGPAG00@Z
_TEXT	SEGMENT PARA USE32 PUBLIC 'CODE'
_TEXT	ENDS
;	COMDAT ??$_M_assign_dispatch@PAG@?$basic_string@GV?$char_traits@G@_STL@@V?$allocator@G@2@@_STL@@AAEAAV01@PAG0ABU__false_type@1@@Z
_TEXT	SEGMENT PARA USE32 PUBLIC 'CODE'
_TEXT	ENDS
;	COMDAT ??$_M_insert_dispatch@PBG@?$basic_string@GV?$char_traits@G@_STL@@V?$allocator@G@2@@_STL@@AAEXPAGPBG1ABU__false_type@1@@Z
_TEXT	SEGMENT PARA USE32 PUBLIC 'CODE'
_TEXT	ENDS
;	COMDAT ??$__destroy@PAHH@_STL@@YAXPAH00@Z
_TEXT	SEGMENT PARA USE32 PUBLIC 'CODE'
_TEXT	ENDS
;	COMDAT ?end@?$basic_string@GV?$char_traits@G@_STL@@V?$allocator@G@2@@_STL@@QAEPAGXZ
_TEXT	SEGMENT PARA USE32 PUBLIC 'CODE'
_TEXT	ENDS
;	COMDAT ??$__uninitialized_copy@PAGPAG@_STL@@YAPAGPAG00ABU__true_type@0@@Z
_TEXT	SEGMENT PARA USE32 PUBLIC 'CODE'
_TEXT	ENDS
;	COMDAT ??$append@PAG@?$basic_string@GV?$char_traits@G@_STL@@V?$allocator@G@2@@_STL@@QAEAAV01@PAG0@Z
_TEXT	SEGMENT PARA USE32 PUBLIC 'CODE'
_TEXT	ENDS
;	COMDAT ??$insert@PBG@?$basic_string@GV?$char_traits@G@_STL@@V?$allocator@G@2@@_STL@@AAEXPAGPBG1ABUforward_iterator_tag@1@@Z
_TEXT	SEGMENT PARA USE32 PUBLIC 'CODE'
_TEXT	ENDS
;	COMDAT ??$__destroy_aux@PAH@_STL@@YAXPAH0ABU__true_type@0@@Z
_TEXT	SEGMENT PARA USE32 PUBLIC 'CODE'
_TEXT	ENDS
;	COMDAT ?_M_move@?$basic_string@GV?$char_traits@G@_STL@@V?$allocator@G@2@@_STL@@AAEXPBG0PAG@Z
_TEXT	SEGMENT PARA USE32 PUBLIC 'CODE'
_TEXT	ENDS
;	COMDAT ?_Ret@?$_BothPtrType@PAGPAG@_STL@@SA?AU__true_type@2@XZ
_TEXT	SEGMENT PARA USE32 PUBLIC 'CODE'
_TEXT	ENDS
;	COMDAT ??$__copy_aux@PAGPAG@_STL@@YAPAGPAG00ABU__true_type@0@@Z
_TEXT	SEGMENT PARA USE32 PUBLIC 'CODE'
_TEXT	ENDS
;	COMDAT ??$_M_append_dispatch@PAG@?$basic_string@GV?$char_traits@G@_STL@@V?$allocator@G@2@@_STL@@AAEAAV01@PAG0ABU__false_type@1@@Z
_TEXT	SEGMENT PARA USE32 PUBLIC 'CODE'
_TEXT	ENDS
;	COMDAT ??$distance@PBG@_STL@@YAHABQBG0@Z
_TEXT	SEGMENT PARA USE32 PUBLIC 'CODE'
_TEXT	ENDS
;	COMDAT ??$advance@PBGH@_STL@@YAXAAPBGH@Z
_TEXT	SEGMENT PARA USE32 PUBLIC 'CODE'
_TEXT	ENDS
;	COMDAT ?_Ret@?$_OKToMemCpy@GG@_STL@@SA?AU__true_type@2@XZ
_TEXT	SEGMENT PARA USE32 PUBLIC 'CODE'
_TEXT	ENDS
;	COMDAT ??$_IsOKToMemCpy@GG@_STL@@YA?AU?$_OKToMemCpy@GG@0@PAG0@Z
_TEXT	SEGMENT PARA USE32 PUBLIC 'CODE'
_TEXT	ENDS
;	COMDAT ??$__copy_ptrs@PAGPAG@_STL@@YAPAGPAG00ABU__true_type@0@@Z
_TEXT	SEGMENT PARA USE32 PUBLIC 'CODE'
_TEXT	ENDS
;	COMDAT ??$append@PAG@?$basic_string@GV?$char_traits@G@_STL@@V?$allocator@G@2@@_STL@@AAEAAV01@PAG0ABUforward_iterator_tag@1@@Z
_TEXT	SEGMENT PARA USE32 PUBLIC 'CODE'
_TEXT	ENDS
;	COMDAT ??$__distance@PBG@_STL@@YAHABQBG0ABUrandom_access_iterator_tag@0@@Z
_TEXT	SEGMENT PARA USE32 PUBLIC 'CODE'
_TEXT	ENDS
;	COMDAT ??$__advance@PBGH@_STL@@YAXAAPBGHABUrandom_access_iterator_tag@0@@Z
_TEXT	SEGMENT PARA USE32 PUBLIC 'CODE'
_TEXT	ENDS
;	COMDAT ??$distance@PAG@_STL@@YAHABQAG0@Z
_TEXT	SEGMENT PARA USE32 PUBLIC 'CODE'
_TEXT	ENDS
;	COMDAT ??$__distance@PAG@_STL@@YAHABQAG0ABUrandom_access_iterator_tag@0@@Z
_TEXT	SEGMENT PARA USE32 PUBLIC 'CODE'
_TEXT	ENDS
;	COMDAT ??_R3LineEditorVisual@@8
rdata$r	SEGMENT DWORD USE32 PUBLIC 'CONST'
rdata$r	ENDS
;	COMDAT ??_R3LineEditor@@8
rdata$r	SEGMENT DWORD USE32 PUBLIC 'CONST'
rdata$r	ENDS
;	COMDAT ??_R2LineEditorVisual@@8
rdata$r	SEGMENT DWORD USE32 PUBLIC 'CONST'
rdata$r	ENDS
;	COMDAT ??_R2LineEditor@@8
rdata$r	SEGMENT DWORD USE32 PUBLIC 'CONST'
rdata$r	ENDS
;	COMDAT ??_R1A@?0A@A@LineEditorVisual@@8
rdata$r	SEGMENT DWORD USE32 PUBLIC 'CONST'
rdata$r	ENDS
;	COMDAT ??_R1A@?0A@A@LineEditor@@8
rdata$r	SEGMENT DWORD USE32 PUBLIC 'CONST'
rdata$r	ENDS
;	COMDAT ??_R0?AVLineEditorVisual@@@8
_DATA	SEGMENT DWORD USE32 PUBLIC 'DATA'
_DATA	ENDS
;	COMDAT ??_R0?AVLineEditor@@@8
_DATA	SEGMENT DWORD USE32 PUBLIC 'DATA'
_DATA	ENDS
;	COMDAT ??_R4LineEditorVisual@@6B@
rdata$r	SEGMENT DWORD USE32 PUBLIC 'CONST'
rdata$r	ENDS
;	COMDAT ??_R4LineEditor@@6B@
rdata$r	SEGMENT DWORD USE32 PUBLIC 'CONST'
rdata$r	ENDS
;	COMDAT ?uninitialized_copy@_STL@@YAPAGPBG0PAG@Z
_TEXT	SEGMENT PARA USE32 PUBLIC 'CODE'
_TEXT	ENDS
;	COMDAT ?__page_size@_Filebuf_base@_STL@@SAIXZ
_TEXT	SEGMENT PARA USE32 PUBLIC 'CODE'
_TEXT	ENDS
;	COMDAT ?_M_write@?$basic_filebuf@DV?$char_traits@D@_STL@@@_STL@@QAE_NPADH@Z
_TEXT	SEGMENT PARA USE32 PUBLIC 'CODE'
_TEXT	ENDS
;	COMDAT ?unshift@?$codecvt@DDH@_STL@@QBE?AW4result@codecvt_base@2@AAHPAD1AAPAD@Z
_TEXT	SEGMENT PARA USE32 PUBLIC 'CODE'
_TEXT	ENDS
;	COMDAT ??1?$_STLP_alloc_proxy@PAGGV?$allocator@G@_STL@@@_STL@@QAE@XZ
_TEXT	SEGMENT PARA USE32 PUBLIC 'CODE'
_TEXT	ENDS
;	COMDAT ??2@YAPAXIPAX@Z
_TEXT	SEGMENT PARA USE32 PUBLIC 'CODE'
_TEXT	ENDS
;	COMDAT ?_M_deallocate_block@?$_String_base@GV?$allocator@G@_STL@@@_STL@@QAEXXZ
_TEXT	SEGMENT PARA USE32 PUBLIC 'CODE'
_TEXT	ENDS
;	COMDAT ?deallocate@?$allocator@G@_STL@@QAEXPAGI@Z
_TEXT	SEGMENT PARA USE32 PUBLIC 'CODE'
_TEXT	ENDS
;	COMDAT ??1?$_String_base@GV?$allocator@G@_STL@@@_STL@@QAE@XZ
_TEXT	SEGMENT PARA USE32 PUBLIC 'CODE'
_TEXT	ENDS
;	COMDAT ??1?$allocator@G@_STL@@QAE@XZ
_TEXT	SEGMENT PARA USE32 PUBLIC 'CODE'
_TEXT	ENDS
;	COMDAT ?always_noconv@?$codecvt@DDH@_STL@@QBE_NXZ
_TEXT	SEGMENT PARA USE32 PUBLIC 'CODE'
_TEXT	ENDS
;	COMDAT ?encoding@?$codecvt@DDH@_STL@@QBEHXZ
_TEXT	SEGMENT PARA USE32 PUBLIC 'CODE'
_TEXT	ENDS
;	COMDAT ?max_length@?$codecvt@DDH@_STL@@QBEHXZ
_TEXT	SEGMENT PARA USE32 PUBLIC 'CODE'
_TEXT	ENDS
;	COMDAT ?__o_mode@_Filebuf_base@_STL@@QBEHXZ
_TEXT	SEGMENT PARA USE32 PUBLIC 'CODE'
_TEXT	ENDS
;	COMDAT ?__stl_new@_STL@@YAPAXI@Z
_TEXT	SEGMENT PARA USE32 PUBLIC 'CODE'
_TEXT	ENDS
;	COMDAT ?deallocate@?$__node_alloc@$00$0A@@_STL@@SAXPAXI@Z
_TEXT	SEGMENT PARA USE32 PUBLIC 'CODE'
_TEXT	ENDS
;	COMDAT ?__stl_delete@_STL@@YAXPAX@Z
_TEXT	SEGMENT PARA USE32 PUBLIC 'CODE'
_TEXT	ENDS
;	COMDAT ?__copy_trivial@_STL@@YAPAXPBX0PAX@Z
_TEXT	SEGMENT PARA USE32 PUBLIC 'CODE'
_TEXT	ENDS
;	COMDAT ?_Destroy@_STL@@YAXPAG0@Z
_TEXT	SEGMENT PARA USE32 PUBLIC 'CODE'
_TEXT	ENDS
;	COMDAT ?setp@?$basic_streambuf@DV?$char_traits@D@_STL@@@_STL@@IAEXPAD0@Z
_TEXT	SEGMENT PARA USE32 PUBLIC 'CODE'
_TEXT	ENDS
;	COMDAT ?_FILE_O_set@_STL@@YAXPAU_iobuf@@PAD11@Z
_TEXT	SEGMENT PARA USE32 PUBLIC 'CODE'
_TEXT	ENDS
;	COMDAT ?_FILE_I_set@_STL@@YAXPAU_iobuf@@PAD11@Z
_TEXT	SEGMENT PARA USE32 PUBLIC 'CODE'
_TEXT	ENDS
;	COMDAT ?setg@?$basic_streambuf@DV?$char_traits@D@_STL@@@_STL@@IAEXPAD00@Z
_TEXT	SEGMENT PARA USE32 PUBLIC 'CODE'
_TEXT	ENDS
;	COMDAT ?__is_open@_Filebuf_base@_STL@@QBE_NXZ
_TEXT	SEGMENT PARA USE32 PUBLIC 'CODE'
_TEXT	ENDS
;	COMDAT ??$min@I@_STL@@YAABIABI0@Z
_TEXT	SEGMENT PARA USE32 PUBLIC 'CODE'
_TEXT	ENDS
;	COMDAT ?eof@?$__char_traits_base@DH@_STL@@SAHXZ
_TEXT	SEGMENT PARA USE32 PUBLIC 'CODE'
_TEXT	ENDS
;	COMDAT ??_7LineEditorVisual@@6B@
CONST	SEGMENT DWORD USE32 PUBLIC 'CONST'
CONST	ENDS
;	COMDAT ??1?$basic_string@GV?$char_traits@G@_STL@@V?$allocator@G@2@@_STL@@QAE@XZ
_TEXT	SEGMENT PARA USE32 PUBLIC 'CODE'
_TEXT	ENDS
;	COMDAT ??_7LineEditor@@6B@
CONST	SEGMENT DWORD USE32 PUBLIC 'CONST'
CONST	ENDS
;	COMDAT ?my@?1??SetImePosition@@YAXHH@Z@4HA
_DATA	SEGMENT DWORD USE32 PUBLIC 'DATA'
_DATA	ENDS
;	COMDAT ?mx@?1??SetImePosition@@YAXHH@Z@4HA
_DATA	SEGMENT DWORD USE32 PUBLIC 'DATA'
_DATA	ENDS
sxdata	SEGMENT DWORD USE32 'SXDATA'
sxdata	ENDS
FLAT	GROUP _DATA, CONST, _BSS
	ASSUME	CS: FLAT, DS: FLAT, SS: FLAT
endif

INCLUDELIB LIBCMT
INCLUDELIB OLDNAMES

PUBLIC	??_C@_0O@JKENFCBN@MinTrace?52003?$AA@		; `string'
PUBLIC	??_C@_0BE@MNEJIGLM@__MinTrace?5Window__?$AA@	; `string'
_BSS	SEGMENT
_gpC_focused_line_editor DD 01H DUP (?)
_BSS	ENDS
;	COMDAT ??_C@_0O@JKENFCBN@MinTrace?52003?$AA@
CONST	SEGMENT
??_C@_0O@JKENFCBN@MinTrace?52003?$AA@ DB 'MinTrace 2003', 00H ; `string'
CONST	ENDS
_DATA	SEGMENT
_g_pszMinTraceTitle DD FLAT:??_C@_0O@JKENFCBN@MinTrace?52003?$AA@
_DATA	ENDS
;	COMDAT ??_C@_0BE@MNEJIGLM@__MinTrace?5Window__?$AA@
CONST	SEGMENT
??_C@_0BE@MNEJIGLM@__MinTrace?5Window__?$AA@ DB '__MinTrace Window__', 00H ; `string'
CONST	ENDS
_DATA	SEGMENT
_g_pszMinTraceClassName DD FLAT:??_C@_0BE@MNEJIGLM@__MinTrace?5Window__?$AA@
_DATA	ENDS
PUBLIC	??2@YAPAXIPAX@Z					; operator new
; Function compile flags: /Ogty
; File c:\program files\microsoft visual studio .net 2003\vc7\include\new
;	COMDAT ??2@YAPAXIPAX@Z
_TEXT	SEGMENT
___formal$ = 8						; size = 4
__Where$ = 12						; size = 4
??2@YAPAXIPAX@Z PROC NEAR				; operator new, COMDAT

; 64   : 	return (_Where);

  00000	8b 44 24 08	 mov	 eax, DWORD PTR __Where$[esp-4]

; 65   : 	}

  00004	c3		 ret	 0
??2@YAPAXIPAX@Z ENDP					; operator new
_TEXT	ENDS
PUBLIC	?__stl_new@_STL@@YAPAXI@Z			; _STL::__stl_new
EXTRN	??2@YAPAXI@Z:NEAR				; operator new
; Function compile flags: /Ogty
; File c:\stlport-4.6.1\stlport\stl\_new.h
;	COMDAT ?__stl_new@_STL@@YAPAXI@Z
_TEXT	SEGMENT
___n$ = 8						; size = 4
?__stl_new@_STL@@YAPAXI@Z PROC NEAR			; _STL::__stl_new, COMDAT

; 86   : inline void*  _STLP_CALL __stl_new(size_t __n)   { _STLP_CHECK_NULL_ALLOC(::operator _STLP_NEW(__n)); }

  00000	e9 00 00 00 00	 jmp	 ??2@YAPAXI@Z		; operator new
?__stl_new@_STL@@YAPAXI@Z ENDP				; _STL::__stl_new
_TEXT	ENDS
PUBLIC	?__stl_delete@_STL@@YAXPAX@Z			; _STL::__stl_delete
EXTRN	??3@YAXPAX@Z:NEAR				; operator delete
; Function compile flags: /Ogty
;	COMDAT ?__stl_delete@_STL@@YAXPAX@Z
_TEXT	SEGMENT
___p$ = 8						; size = 4
?__stl_delete@_STL@@YAXPAX@Z PROC NEAR			; _STL::__stl_delete, COMDAT

; 87   : inline void   _STLP_CALL __stl_delete(void* __p) { ::operator delete(__p); }

  00000	e9 00 00 00 00	 jmp	 ??3@YAXPAX@Z		; operator delete
?__stl_delete@_STL@@YAXPAX@Z ENDP			; _STL::__stl_delete
_TEXT	ENDS
PUBLIC	?_Destroy@_STL@@YAXPAG0@Z			; _STL::_Destroy
; Function compile flags: /Ogty
; File c:\stlport-4.6.1\stlport\stl\_construct.h
;	COMDAT ?_Destroy@_STL@@YAXPAG0@Z
_TEXT	SEGMENT
___formal$ = 8						; size = 4
___formal$ = 12						; size = 4
?_Destroy@_STL@@YAXPAG0@Z PROC NEAR			; _STL::_Destroy, COMDAT

; 144  : inline void _Destroy(wchar_t*, wchar_t*) {}

  00000	c3		 ret	 0
?_Destroy@_STL@@YAXPAG0@Z ENDP				; _STL::_Destroy
_TEXT	ENDS
PUBLIC	?__copy_trivial@_STL@@YAPAXPBX0PAX@Z		; _STL::__copy_trivial
EXTRN	_memmove:NEAR
; Function compile flags: /Ogty
; File c:\stlport-4.6.1\stlport\stl\_algobase.h
;	COMDAT ?__copy_trivial@_STL@@YAPAXPBX0PAX@Z
_TEXT	SEGMENT
___first$ = 8						; size = 4
___last$ = 12						; size = 4
___result$ = 16						; size = 4
?__copy_trivial@_STL@@YAPAXPBX0PAX@Z PROC NEAR		; _STL::__copy_trivial, COMDAT

; 148  :   return (__last == __first) ? __result : 
; 149  :     ((char*)memmove(__result, __first, ((const char*)__last - (const char*)__first))) + 
; 150  :     ((const char*)__last - (const char*)__first);

  00000	8b 44 24 04	 mov	 eax, DWORD PTR ___first$[esp-4]
  00004	56		 push	 esi
  00005	8b 74 24 0c	 mov	 esi, DWORD PTR ___last$[esp]
  00009	3b f0		 cmp	 esi, eax
  0000b	75 06		 jne	 SHORT $L77016
  0000d	8b 44 24 10	 mov	 eax, DWORD PTR ___result$[esp]
  00011	5e		 pop	 esi

; 151  : }

  00012	c3		 ret	 0
$L77016:

; 148  :   return (__last == __first) ? __result : 
; 149  :     ((char*)memmove(__result, __first, ((const char*)__last - (const char*)__first))) + 
; 150  :     ((const char*)__last - (const char*)__first);

  00013	2b f0		 sub	 esi, eax
  00015	56		 push	 esi
  00016	50		 push	 eax
  00017	8b 44 24 18	 mov	 eax, DWORD PTR ___result$[esp+8]
  0001b	50		 push	 eax
  0001c	e8 00 00 00 00	 call	 _memmove
  00021	83 c4 0c	 add	 esp, 12			; 0000000cH
  00024	03 c6		 add	 eax, esi
  00026	5e		 pop	 esi

; 151  : }

  00027	c3		 ret	 0
?__copy_trivial@_STL@@YAPAXPBX0PAX@Z ENDP		; _STL::__copy_trivial
_TEXT	ENDS
PUBLIC	?uninitialized_copy@_STL@@YAPAGPBG0PAG@Z	; _STL::uninitialized_copy
; Function compile flags: /Ogty
; File c:\stlport-4.6.1\stlport\stl\_uninitialized.h
;	COMDAT ?uninitialized_copy@_STL@@YAPAGPBG0PAG@Z
_TEXT	SEGMENT
___first$ = 8						; size = 4
___last$ = 12						; size = 4
___result$ = 16						; size = 4
?uninitialized_copy@_STL@@YAPAGPBG0PAG@Z PROC NEAR	; _STL::uninitialized_copy, COMDAT

; 90   :   return  (wchar_t*)__copy_trivial (__first, __last, __result);

  00000	8b 44 24 04	 mov	 eax, DWORD PTR ___first$[esp-4]
  00004	56		 push	 esi
  00005	8b 74 24 0c	 mov	 esi, DWORD PTR ___last$[esp]
  00009	3b f0		 cmp	 esi, eax
  0000b	75 06		 jne	 SHORT $L77026
  0000d	8b 44 24 10	 mov	 eax, DWORD PTR ___result$[esp]
  00011	5e		 pop	 esi

; 91   : }

  00012	c3		 ret	 0

; 90   :   return  (wchar_t*)__copy_trivial (__first, __last, __result);

$L77026:
  00013	2b f0		 sub	 esi, eax
  00015	56		 push	 esi
  00016	50		 push	 eax
  00017	8b 44 24 18	 mov	 eax, DWORD PTR ___result$[esp+8]
  0001b	50		 push	 eax
  0001c	e8 00 00 00 00	 call	 _memmove
  00021	83 c4 0c	 add	 esp, 12			; 0000000cH
  00024	03 c6		 add	 eax, esi
  00026	5e		 pop	 esi

; 91   : }

  00027	c3		 ret	 0
?uninitialized_copy@_STL@@YAPAGPBG0PAG@Z ENDP		; _STL::uninitialized_copy
_TEXT	ENDS
PUBLIC	?GetComposingChar@CI@@QAEGXZ			; CI::GetComposingChar
; Function compile flags: /Ogty
; File c:\darkeden\designed_common\project\new - vs_ui\src\hangul\ci.h
;	COMDAT ?GetComposingChar@CI@@QAEGXZ
_TEXT	SEGMENT
?GetComposingChar@CI@@QAEGXZ PROC NEAR			; CI::GetComposingChar, COMDAT
; _this$ = ecx

; 59   : 	char_t GetComposingChar() { return m_composing_char[0]; }

  00000	66 8b 41 0a	 mov	 ax, WORD PTR [ecx+10]
  00004	c3		 ret	 0
?GetComposingChar@CI@@QAEGXZ ENDP			; CI::GetComposingChar
_TEXT	ENDS
PUBLIC	?GetComposingStringPtr@CI@@QAEPBDXZ		; CI::GetComposingStringPtr
; Function compile flags: /Ogty
;	COMDAT ?GetComposingStringPtr@CI@@QAEPBDXZ
_TEXT	SEGMENT
?GetComposingStringPtr@CI@@QAEPBDXZ PROC NEAR		; CI::GetComposingStringPtr, COMDAT
; _this$ = ecx

; 61   : 	const char * GetComposingStringPtr() { return m_composing_string; }

  00000	8d 41 0e	 lea	 eax, DWORD PTR [ecx+14]
  00003	c3		 ret	 0
?GetComposingStringPtr@CI@@QAEPBDXZ ENDP		; CI::GetComposingStringPtr
_TEXT	ENDS
PUBLIC	?GetInsertModeState@CI@@QBE_NXZ			; CI::GetInsertModeState
; Function compile flags: /Ogty
;	COMDAT ?GetInsertModeState@CI@@QBE_NXZ
_TEXT	SEGMENT
?GetInsertModeState@CI@@QBE_NXZ PROC NEAR		; CI::GetInsertModeState, COMDAT
; _this$ = ecx

; 62   : 	bool	GetInsertModeState() const { return m_bl_insert_mode; }

  00000	8a 41 04	 mov	 al, BYTE PTR [ecx+4]
  00003	c3		 ret	 0
?GetInsertModeState@CI@@QBE_NXZ ENDP			; CI::GetInsertModeState
_TEXT	ENDS
PUBLIC	?ToggleInsertMode@CI@@QAEXXZ			; CI::ToggleInsertMode
; Function compile flags: /Ogty
;	COMDAT ?ToggleInsertMode@CI@@QAEXXZ
_TEXT	SEGMENT
?ToggleInsertMode@CI@@QAEXXZ PROC NEAR			; CI::ToggleInsertMode, COMDAT
; _this$ = ecx

; 63   : 	void	ToggleInsertMode() { m_bl_insert_mode = !m_bl_insert_mode; }

  00000	8a 41 04	 mov	 al, BYTE PTR [ecx+4]
  00003	84 c0		 test	 al, al
  00005	0f 94 c0	 sete	 al
  00008	88 41 04	 mov	 BYTE PTR [ecx+4], al
  0000b	c3		 ret	 0
?ToggleInsertMode@CI@@QAEXXZ ENDP			; CI::ToggleInsertMode
_TEXT	ENDS
PUBLIC	?ImeRunning@CI@@QBE_NXZ				; CI::ImeRunning
; Function compile flags: /Ogty
;	COMDAT ?ImeRunning@CI@@QBE_NXZ
_TEXT	SEGMENT
?ImeRunning@CI@@QBE_NXZ PROC NEAR			; CI::ImeRunning, COMDAT
; _this$ = ecx

; 65   : 	bool	ImeRunning() const { return m_bl_ime_running; } // IME가 실행중?

  00000	8a 41 06	 mov	 al, BYTE PTR [ecx+6]
  00003	c3		 ret	 0
?ImeRunning@CI@@QBE_NXZ ENDP				; CI::ImeRunning
_TEXT	ENDS
PUBLIC	?GetCursor@LineEditor@@QBEHXZ			; LineEditor::GetCursor
; Function compile flags: /Ogty
; File c:\darkeden\designed_common\project\new - vs_ui\src\widget\u_edit.h
;	COMDAT ?GetCursor@LineEditor@@QBEHXZ
_TEXT	SEGMENT
?GetCursor@LineEditor@@QBEHXZ PROC NEAR			; LineEditor::GetCursor, COMDAT
; _this$ = ecx

; 149  : 	int	GetCursor() const { return m_cursor; }

  00000	8b 41 20	 mov	 eax, DWORD PTR [ecx+32]
  00003	c3		 ret	 0
?GetCursor@LineEditor@@QBEHXZ ENDP			; LineEditor::GetCursor
_TEXT	ENDS
PUBLIC	?GetDigitOnlyMode@LineEditor@@QBE_NXZ		; LineEditor::GetDigitOnlyMode
; Function compile flags: /Ogty
;	COMDAT ?GetDigitOnlyMode@LineEditor@@QBE_NXZ
_TEXT	SEGMENT
?GetDigitOnlyMode@LineEditor@@QBE_NXZ PROC NEAR		; LineEditor::GetDigitOnlyMode, COMDAT
; _this$ = ecx

; 160  : 	bool	GetDigitOnlyMode() const { return m_bl_digit_only; }

  00000	8a 41 2c	 mov	 al, BYTE PTR [ecx+44]
  00003	c3		 ret	 0
?GetDigitOnlyMode@LineEditor@@QBE_NXZ ENDP		; LineEditor::GetDigitOnlyMode
_TEXT	ENDS
PUBLIC	?SetImePosition@@YAXHH@Z			; SetImePosition
PUBLIC	??_C@_09LCOPKLB@?$ICl?$ICr?5?$JG?$LO?$JC?$KJ?$AA@ ; `string'
EXTRN	_ImmGetContext@4:NEAR
EXTRN	_ImmReleaseContext@8:NEAR
EXTRN	?gC_ci@@3PAVCI@@A:DWORD				; gC_ci
EXTRN	_ImmSetCompositionFontA@8:NEAR
EXTRN	_ImmSetStatusWindowPos@8:NEAR
EXTRN	_ImmSetCompositionWindow@8:NEAR
EXTRN	___security_cookie:DWORD
EXTRN	@__security_check_cookie@4:NEAR
EXTRN	?g_hWnd@@3PAUHWND__@@A:DWORD			; g_hWnd
;	COMDAT ?mx@?1??SetImePosition@@YAXHH@Z@4HA
; File c:\darkeden\designed_common\project\new - vs_ui\src\widget\u_edit.cpp
_BSS	SEGMENT
?mx@?1??SetImePosition@@YAXHH@Z@4HA DD 01H DUP (?)	; `SetImePosition'::`2'::mx
_BSS	ENDS
;	COMDAT ?my@?1??SetImePosition@@YAXHH@Z@4HA
_BSS	SEGMENT
?my@?1??SetImePosition@@YAXHH@Z@4HA DD 01H DUP (?)	; `SetImePosition'::`2'::my
_BSS	ENDS
;	COMDAT ??_C@_09LCOPKLB@?$ICl?$ICr?5?$JG?$LO?$JC?$KJ?$AA@
CONST	SEGMENT
??_C@_09LCOPKLB@?$ICl?$ICr?5?$JG?$LO?$JC?$KJ?$AA@ DB 082H, 'l', 082H, 'r '
	DB	096H, 0beH, 092H, 0a9H, 00H			; `string'
; Function compile flags: /Ogty
CONST	ENDS
;	COMDAT ?SetImePosition@@YAXHH@Z
_TEXT	SEGMENT
_temps$ = -100						; size = 8
_comp$ = -92						; size = 28
_lf$75139 = -64						; size = 60
__$ArrayPad$ = -4					; size = 4
__$ReturnAddr$ = 4					; size = 4
_x$ = 8							; size = 4
_y$ = 12						; size = 4
?SetImePosition@@YAXHH@Z PROC NEAR			; SetImePosition, COMDAT

; 23   : {	

  00000	83 ec 64	 sub	 esp, 100		; 00000064H
  00003	a1 00 00 00 00	 mov	 eax, DWORD PTR ___security_cookie

; 24   : 	static int mx=0,my=0;
; 25   : 	
; 26   : 	if(mx==x&&my==y) return;

  00008	8b 0d 00 00 00
	00		 mov	 ecx, DWORD PTR ?mx@?1??SetImePosition@@YAXHH@Z@4HA
  0000e	89 44 24 60	 mov	 DWORD PTR __$ArrayPad$[esp+100], eax
  00012	8b 44 24 68	 mov	 eax, DWORD PTR _x$[esp+96]
  00016	3b c8		 cmp	 ecx, eax
  00018	8b 4c 24 6c	 mov	 ecx, DWORD PTR _y$[esp+96]
  0001c	75 0c		 jne	 SHORT $L75129
  0001e	39 0d 00 00 00
	00		 cmp	 DWORD PTR ?my@?1??SetImePosition@@YAXHH@Z@4HA, ecx
  00024	0f 84 28 01 00
	00		 je	 $L75138
$L75129:

; 27   : 
; 28   : 	mx=max(0,x);

  0002a	33 d2		 xor	 edx, edx
  0002c	85 c0		 test	 eax, eax
  0002e	0f 9c c2	 setl	 dl
  00031	56		 push	 esi
  00032	57		 push	 edi
  00033	4a		 dec	 edx
  00034	23 d0		 and	 edx, eax

; 29   : 	my=max(0,y);

  00036	33 c0		 xor	 eax, eax
  00038	85 c9		 test	 ecx, ecx
  0003a	0f 9c c0	 setl	 al
  0003d	89 15 00 00 00
	00		 mov	 DWORD PTR ?mx@?1??SetImePosition@@YAXHH@Z@4HA, edx
  00043	48		 dec	 eax
  00044	23 c1		 and	 eax, ecx

; 30   : 
; 31   : 	HIMC m_hIMC=NULL;
; 32   : 	m_hIMC = ImmGetContext(g_hWnd);

  00046	8b 0d 00 00 00
	00		 mov	 ecx, DWORD PTR ?g_hWnd@@3PAUHWND__@@A ; g_hWnd
  0004c	51		 push	 ecx
  0004d	a3 00 00 00 00	 mov	 DWORD PTR ?my@?1??SetImePosition@@YAXHH@Z@4HA, eax
  00052	e8 00 00 00 00	 call	 _ImmGetContext@4

; 33   : 
; 34   : 	POINT temps={mx,my};	

  00057	8b 0d 00 00 00
	00		 mov	 ecx, DWORD PTR ?my@?1??SetImePosition@@YAXHH@Z@4HA

; 35   : 	const int ImeMaxY=800;
; 36   : 	while(temps.y>ImeMaxY)

  0005d	81 f9 20 03 00
	00		 cmp	 ecx, 800		; 00000320H
  00063	8b 15 00 00 00
	00		 mov	 edx, DWORD PTR ?mx@?1??SetImePosition@@YAXHH@Z@4HA
  00069	8b f0		 mov	 esi, eax
  0006b	8b c1		 mov	 eax, ecx
  0006d	89 54 24 08	 mov	 DWORD PTR _temps$[esp+108], edx
  00071	89 44 24 0c	 mov	 DWORD PTR _temps$[esp+112], eax
  00075	7e 14		 jle	 SHORT $L75135
$L75134:

; 37   : 		temps.y = ImeMaxY - (temps.y-ImeMaxY);	

  00077	bf 40 06 00 00	 mov	 edi, 1600		; 00000640H
  0007c	2b f8		 sub	 edi, eax
  0007e	8b c7		 mov	 eax, edi
  00080	3d 20 03 00 00	 cmp	 eax, 800		; 00000320H
  00085	7f f0		 jg	 SHORT $L75134
  00087	89 44 24 0c	 mov	 DWORD PTR _temps$[esp+112], eax
$L75135:
  0008b	55		 push	 ebp

; 38   : 	RECT temprect={mx,my-16,mx+60,my};	

  0008c	8d 6a 3c	 lea	 ebp, DWORD PTR [edx+60]

; 39   : 
; 40   : 	COMPOSITIONFORM comp;	
; 41   : 	comp.dwStyle=CFS_FORCE_POSITION;
; 42   : 	comp.ptCurrentPos=temps;

  0008f	89 54 24 18	 mov	 DWORD PTR _comp$[esp+116], edx

; 43   : 	comp.rcArea=temprect;

  00093	89 54 24 20	 mov	 DWORD PTR _comp$[esp+124], edx

; 44   : 
; 45   : 	ImmSetCompositionWindow(m_hIMC,&comp);

  00097	8d 54 24 14	 lea	 edx, DWORD PTR _comp$[esp+112]
  0009b	52		 push	 edx
  0009c	8d 79 f0	 lea	 edi, DWORD PTR [ecx-16]
  0009f	56		 push	 esi
  000a0	c7 44 24 1c 20
	00 00 00	 mov	 DWORD PTR _comp$[esp+120], 32 ; 00000020H
  000a8	89 44 24 24	 mov	 DWORD PTR _comp$[esp+128], eax
  000ac	89 7c 24 2c	 mov	 DWORD PTR _comp$[esp+136], edi
  000b0	89 6c 24 30	 mov	 DWORD PTR _comp$[esp+140], ebp
  000b4	89 4c 24 34	 mov	 DWORD PTR _comp$[esp+144], ecx
  000b8	e8 00 00 00 00	 call	 _ImmSetCompositionWindow@8

; 46   : 	ImmSetStatusWindowPos(m_hIMC,&temps);

  000bd	8d 44 24 0c	 lea	 eax, DWORD PTR _temps$[esp+112]
  000c1	50		 push	 eax
  000c2	56		 push	 esi
  000c3	e8 00 00 00 00	 call	 _ImmSetStatusWindowPos@8

; 47   : 	ImmReleaseContext(g_hWnd,m_hIMC);

  000c8	8b 0d 00 00 00
	00		 mov	 ecx, DWORD PTR ?g_hWnd@@3PAUHWND__@@A ; g_hWnd
  000ce	56		 push	 esi
  000cf	51		 push	 ecx
  000d0	e8 00 00 00 00	 call	 _ImmReleaseContext@8

; 48   : 	if(gC_ci->IsJapanese())

  000d5	8b 0d 00 00 00
	00		 mov	 ecx, DWORD PTR ?gC_ci@@3PAVCI@@A ; gC_ci
  000db	8b 11		 mov	 edx, DWORD PTR [ecx]
  000dd	ff 52 08	 call	 DWORD PTR [edx+8]
  000e0	84 c0		 test	 al, al
  000e2	5d		 pop	 ebp
  000e3	74 6b		 je	 SHORT $L77057

; 49   : 	{
; 50   : 		LOGFONT lf;
; 51   : 		lf.lfHeight = 0;
; 52   : 		lf.lfWidth = 0;
; 53   : 		lf.lfEscapement = 0;
; 54   : 		lf.lfOrientation = 0;
; 55   : 		lf.lfWeight = FW_NORMAL;
; 56   : 		lf.lfItalic = 0;
; 57   : 		lf.lfUnderline = 0;
; 58   : 		lf.lfStrikeOut = 0;
; 59   : 		lf.lfCharSet = SHIFTJIS_CHARSET ;
; 60   : 		lf.lfOutPrecision = OUT_DEFAULT_PRECIS;
; 61   : 		lf.lfClipPrecision = CLIP_DEFAULT_PRECIS;
; 62   : 		lf.lfQuality = PROOF_QUALITY ;
; 63   : 		lf.lfPitchAndFamily = DEFAULT_PITCH | FF_ROMAN  ;
; 64   : 		strcpy(lf.lfFaceName, "굃굍 뼻뮝");

  000e5	8b 0d 04 00 00
	00		 mov	 ecx, DWORD PTR ??_C@_09LCOPKLB@?$ICl?$ICr?5?$JG?$LO?$JC?$KJ?$AA@+4
  000eb	66 8b 15 08 00
	00 00		 mov	 dx, WORD PTR ??_C@_09LCOPKLB@?$ICl?$ICr?5?$JG?$LO?$JC?$KJ?$AA@+8
  000f2	33 c0		 xor	 eax, eax
  000f4	89 44 24 30	 mov	 DWORD PTR _lf$75139[esp+112], eax
  000f8	89 44 24 34	 mov	 DWORD PTR _lf$75139[esp+116], eax
  000fc	89 44 24 38	 mov	 DWORD PTR _lf$75139[esp+120], eax
  00100	88 44 24 40	 mov	 BYTE PTR _lf$75139[esp+128], al
  00104	88 44 24 41	 mov	 BYTE PTR _lf$75139[esp+129], al
  00108	88 44 24 42	 mov	 BYTE PTR _lf$75139[esp+130], al
  0010c	88 44 24 44	 mov	 BYTE PTR _lf$75139[esp+132], al
  00110	88 44 24 45	 mov	 BYTE PTR _lf$75139[esp+133], al
  00114	a1 00 00 00 00	 mov	 eax, DWORD PTR ??_C@_09LCOPKLB@?$ICl?$ICr?5?$JG?$LO?$JC?$KJ?$AA@
  00119	89 44 24 48	 mov	 DWORD PTR _lf$75139[esp+136], eax

; 65   : 
; 66   : 
; 67   : 		lf.lfHeight = 12;
; 68   : 		ImmSetCompositionFont(m_hIMC , &lf) ; 

  0011d	8d 44 24 2c	 lea	 eax, DWORD PTR _lf$75139[esp+108]
  00121	50		 push	 eax
  00122	56		 push	 esi
  00123	c7 44 24 44 90
	01 00 00	 mov	 DWORD PTR _lf$75139[esp+132], 400 ; 00000190H
  0012b	c6 44 24 4b 80	 mov	 BYTE PTR _lf$75139[esp+139], 128 ; 00000080H
  00130	c6 44 24 4e 02	 mov	 BYTE PTR _lf$75139[esp+142], 2
  00135	c6 44 24 4f 10	 mov	 BYTE PTR _lf$75139[esp+143], 16 ; 00000010H
  0013a	89 4c 24 54	 mov	 DWORD PTR _lf$75139[esp+148], ecx
  0013e	66 89 54 24 58	 mov	 WORD PTR _lf$75139[esp+152], dx
  00143	c7 44 24 34 0c
	00 00 00	 mov	 DWORD PTR _lf$75139[esp+116], 12 ; 0000000cH
  0014b	e8 00 00 00 00	 call	 _ImmSetCompositionFontA@8
$L77057:
  00150	5f		 pop	 edi
  00151	5e		 pop	 esi
$L75138:

; 69   : 	}
; 70   : 
; 71   : }

  00152	8b 4c 24 60	 mov	 ecx, DWORD PTR __$ArrayPad$[esp+100]
  00156	e8 00 00 00 00	 call	 @__security_check_cookie@4
  0015b	83 c4 64	 add	 esp, 100		; 00000064H
  0015e	c3		 ret	 0
?SetImePosition@@YAXHH@Z ENDP				; SetImePosition
_TEXT	ENDS
PUBLIC	?SetByteLimit@LineEditor@@QAEXH@Z		; LineEditor::SetByteLimit
; Function compile flags: /Ogty
;	COMDAT ?SetByteLimit@LineEditor@@QAEXH@Z
_TEXT	SEGMENT
_byte$ = 8						; size = 4
?SetByteLimit@LineEditor@@QAEXH@Z PROC NEAR		; LineEditor::SetByteLimit, COMDAT
; _this$ = ecx

; 153  : 	m_byte_limit = byte;

  00000	8b 44 24 04	 mov	 eax, DWORD PTR _byte$[esp-4]
  00004	89 41 24	 mov	 DWORD PTR [ecx+36], eax

; 154  : }

  00007	c2 04 00	 ret	 4
?SetByteLimit@LineEditor@@QAEXH@Z ENDP			; LineEditor::SetByteLimit
_TEXT	ENDS
PUBLIC	?HomeCursor@LineEditor@@QAE_NXZ			; LineEditor::HomeCursor
; Function compile flags: /Ogty
;	COMDAT ?HomeCursor@LineEditor@@QAE_NXZ
_TEXT	SEGMENT
?HomeCursor@LineEditor@@QAE_NXZ PROC NEAR		; LineEditor::HomeCursor, COMDAT
; _this$ = ecx

; 326  : 	if (m_cursor != 0)

  00000	8b 51 20	 mov	 edx, DWORD PTR [ecx+32]
  00003	33 c0		 xor	 eax, eax
  00005	3b d0		 cmp	 edx, eax
  00007	74 09		 je	 SHORT $L75229

; 327  : 	{
; 328  : 		m_cursor = 0;

  00009	89 41 20	 mov	 DWORD PTR [ecx+32], eax

; 329  : 		m_scroll = 0;

  0000c	89 41 1c	 mov	 DWORD PTR [ecx+28], eax

; 330  : 		return true;

  0000f	b0 01		 mov	 al, 1

; 334  : }

  00011	c3		 ret	 0
$L75229:

; 331  : 	}
; 332  : 
; 333  : 	return false;

  00012	32 c0		 xor	 al, al

; 334  : }

  00014	c3		 ret	 0
?HomeCursor@LineEditor@@QAE_NXZ ENDP			; LineEditor::HomeCursor
_TEXT	ENDS
PUBLIC	?Init@LineEditor@@QAEXXZ			; LineEditor::Init
; Function compile flags: /Ogty
;	COMDAT ?Init@LineEditor@@QAEXXZ
_TEXT	SEGMENT
?Init@LineEditor@@QAEXXZ PROC NEAR			; LineEditor::Init, COMDAT
; _this$ = ecx

; 364  : 	m_editor_height = 0;

  00000	33 c0		 xor	 eax, eax

; 365  : 	m_reach_limit = 100;
; 366  : 	m_byte_limit = -1;

  00002	83 ca ff	 or	 edx, -1
  00005	89 41 14	 mov	 DWORD PTR [ecx+20], eax
  00008	c7 41 28 64 00
	00 00		 mov	 DWORD PTR [ecx+40], 100	; 00000064H
  0000f	89 51 24	 mov	 DWORD PTR [ecx+36], edx

; 367  : 	m_char_input_count = -1;

  00012	89 51 18	 mov	 DWORD PTR [ecx+24], edx

; 368  : 	m_scroll = 0;

  00015	89 41 1c	 mov	 DWORD PTR [ecx+28], eax

; 369  : 	m_cursor = 0;

  00018	89 41 20	 mov	 DWORD PTR [ecx+32], eax

; 370  : 	//m_logical_size = 0;
; 371  : 	m_bl_digit_only = false;

  0001b	88 41 2c	 mov	 BYTE PTR [ecx+44], al

; 372  : 	m_bl_password_mode = false;

  0001e	88 41 2d	 mov	 BYTE PTR [ecx+45], al

; 373  : 	m_gap = 0;

  00021	89 41 10	 mov	 DWORD PTR [ecx+16], eax

; 374  : }

  00024	c3		 ret	 0
?Init@LineEditor@@QAEXXZ ENDP				; LineEditor::Init
_TEXT	ENDS
PUBLIC	?SetInputCharCount@LineEditor@@QAEXH@Z		; LineEditor::SetInputCharCount
; Function compile flags: /Ogty
;	COMDAT ?SetInputCharCount@LineEditor@@QAEXH@Z
_TEXT	SEGMENT
_char_count$ = 8					; size = 4
?SetInputCharCount@LineEditor@@QAEXH@Z PROC NEAR	; LineEditor::SetInputCharCount, COMDAT
; _this$ = ecx

; 401  : 	m_char_input_count = char_count;

  00000	8b 44 24 04	 mov	 eax, DWORD PTR _char_count$[esp-4]
  00004	89 41 18	 mov	 DWORD PTR [ecx+24], eax

; 402  : }

  00007	c2 04 00	 ret	 4
?SetInputCharCount@LineEditor@@QAEXH@Z ENDP		; LineEditor::SetInputCharCount
_TEXT	ENDS
PUBLIC	?GetInputCharCount@LineEditor@@QAEHXZ		; LineEditor::GetInputCharCount
; Function compile flags: /Ogty
;	COMDAT ?GetInputCharCount@LineEditor@@QAEHXZ
_TEXT	SEGMENT
?GetInputCharCount@LineEditor@@QAEHXZ PROC NEAR		; LineEditor::GetInputCharCount, COMDAT
; _this$ = ecx

; 411  : 	return m_char_input_count;

  00000	8b 41 18	 mov	 eax, DWORD PTR [ecx+24]

; 412  : }

  00003	c3		 ret	 0
?GetInputCharCount@LineEditor@@QAEHXZ ENDP		; LineEditor::GetInputCharCount
_TEXT	ENDS
PUBLIC	?IsAcquire@LineEditor@@QBE_NXZ			; LineEditor::IsAcquire
; Function compile flags: /Ogty
;	COMDAT ?IsAcquire@LineEditor@@QBE_NXZ
_TEXT	SEGMENT
?IsAcquire@LineEditor@@QBE_NXZ PROC NEAR		; LineEditor::IsAcquire, COMDAT
; _this$ = ecx

; 586  : 	// this는 상속받을 경우 (LineEditor *)가 아닐 수 있다. 그래서 cast해준다.
; 587  : 	return (gpC_focused_line_editor == (LineEditor *)this);

  00000	8b 15 00 00 00
	00		 mov	 edx, DWORD PTR _gpC_focused_line_editor
  00006	33 c0		 xor	 eax, eax
  00008	3b d1		 cmp	 edx, ecx
  0000a	0f 94 c0	 sete	 al

; 588  : }

  0000d	c3		 ret	 0
?IsAcquire@LineEditor@@QBE_NXZ ENDP			; LineEditor::IsAcquire
_TEXT	ENDS
PUBLIC	?Acquire@LineEditor@@QAEXXZ			; LineEditor::Acquire
EXTRN	?ClearCurrentIMEComposition@CI@@QAEXXZ:NEAR	; CI::ClearCurrentIMEComposition
EXTRN	?ForceShowCursor@CI@@QBEXXZ:NEAR		; CI::ForceShowCursor
; Function compile flags: /Ogty
;	COMDAT ?Acquire@LineEditor@@QAEXXZ
_TEXT	SEGMENT
?Acquire@LineEditor@@QAEXXZ PROC NEAR			; LineEditor::Acquire, COMDAT
; _this$ = ecx

; 597  : 	gpC_focused_line_editor = this;

  00000	89 0d 00 00 00
	00		 mov	 DWORD PTR _gpC_focused_line_editor, ecx

; 598  : 	gC_ci->ForceShowCursor();

  00006	8b 0d 00 00 00
	00		 mov	 ecx, DWORD PTR ?gC_ci@@3PAVCI@@A ; gC_ci
  0000c	e8 00 00 00 00	 call	 ?ForceShowCursor@CI@@QBEXXZ ; CI::ForceShowCursor

; 599  : 	gC_ci->ClearCurrentIMEComposition();

  00011	8b 0d 00 00 00
	00		 mov	 ecx, DWORD PTR ?gC_ci@@3PAVCI@@A ; gC_ci
  00017	e9 00 00 00 00	 jmp	 ?ClearCurrentIMEComposition@CI@@QAEXXZ ; CI::ClearCurrentIMEComposition
?Acquire@LineEditor@@QAEXXZ ENDP			; LineEditor::Acquire
_TEXT	ENDS
PUBLIC	?Unacquire@LineEditor@@QAEXXZ			; LineEditor::Unacquire
; Function compile flags: /Ogty
;	COMDAT ?Unacquire@LineEditor@@QAEXXZ
_TEXT	SEGMENT
?Unacquire@LineEditor@@QAEXXZ PROC NEAR			; LineEditor::Unacquire, COMDAT
; _this$ = ecx

; 609  : 	gpC_focused_line_editor = NULL;

  00000	c7 05 00 00 00
	00 00 00 00 00	 mov	 DWORD PTR _gpC_focused_line_editor, 0

; 610  : }

  0000a	c3		 ret	 0
?Unacquire@LineEditor@@QAEXXZ ENDP			; LineEditor::Unacquire
_TEXT	ENDS
PUBLIC	?IME_EndComposition@@YAXXZ			; IME_EndComposition
; Function compile flags: /Ogty
;	COMDAT ?IME_EndComposition@@YAXXZ
_TEXT	SEGMENT
?IME_EndComposition@@YAXXZ PROC NEAR			; IME_EndComposition, COMDAT

; 712  : }

  00000	c3		 ret	 0
?IME_EndComposition@@YAXXZ ENDP				; IME_EndComposition
_TEXT	ENDS
PUBLIC	?SetPrintInfo@LineEditorVisual@@QAEXAAUPrintInfo@@@Z ; LineEditorVisual::SetPrintInfo
; Function compile flags: /Ogty
;	COMDAT ?SetPrintInfo@LineEditorVisual@@QAEXAAUPrintInfo@@@Z
_TEXT	SEGMENT
_print_info$ = 8					; size = 4
?SetPrintInfo@LineEditorVisual@@QAEXAAUPrintInfo@@@Z PROC NEAR ; LineEditorVisual::SetPrintInfo, COMDAT
; _this$ = ecx

; 900  : 	m_print_info = print_info;

  00000	8b 44 24 04	 mov	 eax, DWORD PTR _print_info$[esp-4]
  00004	8b 10		 mov	 edx, DWORD PTR [eax]
  00006	83 c1 40	 add	 ecx, 64			; 00000040H
  00009	89 11		 mov	 DWORD PTR [ecx], edx
  0000b	8b 50 04	 mov	 edx, DWORD PTR [eax+4]
  0000e	89 51 04	 mov	 DWORD PTR [ecx+4], edx
  00011	8b 50 08	 mov	 edx, DWORD PTR [eax+8]
  00014	89 51 08	 mov	 DWORD PTR [ecx+8], edx
  00017	8b 50 0c	 mov	 edx, DWORD PTR [eax+12]
  0001a	89 51 0c	 mov	 DWORD PTR [ecx+12], edx
  0001d	8b 40 10	 mov	 eax, DWORD PTR [eax+16]
  00020	89 41 10	 mov	 DWORD PTR [ecx+16], eax

; 901  : }

  00023	c2 04 00	 ret	 4
?SetPrintInfo@LineEditorVisual@@QAEXAAUPrintInfo@@@Z ENDP ; LineEditorVisual::SetPrintInfo
_TEXT	ENDS
PUBLIC	?ReachSizeOfBox@LineEditorVisual@@QBEHXZ	; LineEditorVisual::ReachSizeOfBox
PUBLIC	??_C@_01MCMALHOG@a?$AA@				; `string'
EXTRN	?g_GetStringWidth@@YAHPBDPAUHFONT__@@@Z:NEAR	; g_GetStringWidth
;	COMDAT ??_C@_01MCMALHOG@a?$AA@
CONST	SEGMENT
??_C@_01MCMALHOG@a?$AA@ DB 'a', 00H			; `string'
; Function compile flags: /Ogty
CONST	ENDS
;	COMDAT ?ReachSizeOfBox@LineEditorVisual@@QBEHXZ
_TEXT	SEGMENT
?ReachSizeOfBox@LineEditorVisual@@QBEHXZ PROC NEAR	; LineEditorVisual::ReachSizeOfBox, COMDAT
; _this$ = ecx

; 940  : {

  00000	56		 push	 esi
  00001	8b f1		 mov	 esi, ecx

; 941  : 	int str_width = g_GetStringWidth("a", m_print_info.hfont);

  00003	8b 46 40	 mov	 eax, DWORD PTR [esi+64]
  00006	50		 push	 eax
  00007	68 00 00 00 00	 push	 OFFSET FLAT:??_C@_01MCMALHOG@a?$AA@
  0000c	e8 00 00 00 00	 call	 ?g_GetStringWidth@@YAHPBDPAUHFONT__@@@Z ; g_GetStringWidth
  00011	8b c8		 mov	 ecx, eax

; 942  : 
; 943  : 	return m_abs_width/str_width;

  00013	8b 46 38	 mov	 eax, DWORD PTR [esi+56]
  00016	99		 cdq
  00017	83 c4 08	 add	 esp, 8
  0001a	f7 f9		 idiv	 ecx
  0001c	5e		 pop	 esi

; 944  : }

  0001d	c3		 ret	 0
?ReachSizeOfBox@LineEditorVisual@@QBEHXZ ENDP		; LineEditorVisual::ReachSizeOfBox
_TEXT	ENDS
PUBLIC	?SetAbsWidth@LineEditorVisual@@QAEXH@Z		; LineEditorVisual::SetAbsWidth
; Function compile flags: /Ogty
;	COMDAT ?SetAbsWidth@LineEditorVisual@@QAEXH@Z
_TEXT	SEGMENT
_width$ = 8						; size = 4
?SetAbsWidth@LineEditorVisual@@QAEXH@Z PROC NEAR	; LineEditorVisual::SetAbsWidth, COMDAT
; _this$ = ecx

; 953  : 	m_abs_width = width;

  00000	8b 44 24 04	 mov	 eax, DWORD PTR _width$[esp-4]
  00004	56		 push	 esi
  00005	8b f1		 mov	 esi, ecx

; 954  : 	m_reach_limit = ReachSizeOfBox();

  00007	8b 4e 40	 mov	 ecx, DWORD PTR [esi+64]
  0000a	51		 push	 ecx
  0000b	68 00 00 00 00	 push	 OFFSET FLAT:??_C@_01MCMALHOG@a?$AA@
  00010	89 46 38	 mov	 DWORD PTR [esi+56], eax
  00013	e8 00 00 00 00	 call	 ?g_GetStringWidth@@YAHPBDPAUHFONT__@@@Z ; g_GetStringWidth
  00018	8b c8		 mov	 ecx, eax
  0001a	8b 46 38	 mov	 eax, DWORD PTR [esi+56]
  0001d	99		 cdq
  0001e	f7 f9		 idiv	 ecx
  00020	83 c4 08	 add	 esp, 8
  00023	89 46 28	 mov	 DWORD PTR [esi+40], eax
  00026	5e		 pop	 esi

; 955  : }

  00027	c2 04 00	 ret	 4
?SetAbsWidth@LineEditorVisual@@QAEXH@Z ENDP		; LineEditorVisual::SetAbsWidth
_TEXT	ENDS
PUBLIC	?PasswordMode@LineEditorVisual@@QAEX_N@Z	; LineEditorVisual::PasswordMode
; Function compile flags: /Ogty
;	COMDAT ?PasswordMode@LineEditorVisual@@QAEX_N@Z
_TEXT	SEGMENT
_enable$ = 8						; size = 1
?PasswordMode@LineEditorVisual@@QAEX_N@Z PROC NEAR	; LineEditorVisual::PasswordMode, COMDAT
; _this$ = ecx

; 964  : 	m_bl_password_mode = enable;

  00000	8a 44 24 04	 mov	 al, BYTE PTR _enable$[esp-4]
  00004	88 41 2d	 mov	 BYTE PTR [ecx+45], al

; 965  : }

  00007	c2 04 00	 ret	 4
?PasswordMode@LineEditorVisual@@QAEX_N@Z ENDP		; LineEditorVisual::PasswordMode
_TEXT	ENDS
PUBLIC	?SetCursorColor@LineEditorVisual@@QAEXK@Z	; LineEditorVisual::SetCursorColor
; Function compile flags: /Ogty
;	COMDAT ?SetCursorColor@LineEditorVisual@@QAEXK@Z
_TEXT	SEGMENT
_color$ = 8						; size = 4
?SetCursorColor@LineEditorVisual@@QAEXK@Z PROC NEAR	; LineEditorVisual::SetCursorColor, COMDAT
; _this$ = ecx

; 990  : 	m_cursor_color = color;

  00000	8b 44 24 04	 mov	 eax, DWORD PTR _color$[esp-4]
  00004	89 41 3c	 mov	 DWORD PTR [ecx+60], eax

; 991  : }

  00007	c2 04 00	 ret	 4
?SetCursorColor@LineEditorVisual@@QAEXK@Z ENDP		; LineEditorVisual::SetCursorColor
_TEXT	ENDS
PUBLIC	?SetPosition@LineEditorVisual@@QAEXHH@Z		; LineEditorVisual::SetPosition
EXTRN	?Set@Point@@QAEXHH@Z:NEAR			; Point::Set
; Function compile flags: /Ogty
;	COMDAT ?SetPosition@LineEditorVisual@@QAEXHH@Z
_TEXT	SEGMENT
_x$ = 8							; size = 4
_y$ = 12						; size = 4
?SetPosition@LineEditorVisual@@QAEXHH@Z PROC NEAR	; LineEditorVisual::SetPosition, COMDAT
; _this$ = ecx

; 1000 : 	m_xy.Set(x, y);

  00000	83 c1 30	 add	 ecx, 48			; 00000030H
  00003	e9 00 00 00 00	 jmp	 ?Set@Point@@QAEXHH@Z	; Point::Set
?SetPosition@LineEditorVisual@@QAEXHH@Z ENDP		; LineEditorVisual::SetPosition
_TEXT	ENDS
PUBLIC	?MouseControl@LineEditorVisual@@QAE_NIHH@Z	; LineEditorVisual::MouseControl
EXTRN	__except_list:DWORD
EXTRN	___CxxFrameHandler:NEAR
EXTRN	??0Rect@@QAE@HHHH@Z:NEAR			; Rect::Rect
EXTRN	??1Rect@@QAE@XZ:NEAR				; Rect::~Rect
EXTRN	?IsInRect@Rect@@QBE_NHH@Z:NEAR			; Rect::IsInRect
;	COMDAT xdata$x
xdata$x	SEGMENT
$T77124	DD	0ffffffffH
	DD	FLAT:$L77113
$T77120	DD	019930520H
	DD	01H
	DD	FLAT:$T77124
	DD	2 DUP(00H)
	DD	2 DUP(00H)
; Function compile flags: /Ogty
xdata$x	ENDS
;	COMDAT ?MouseControl@LineEditorVisual@@QAE_NIHH@Z
_TEXT	SEGMENT
_rect$75479 = -28					; size = 16
__$EHRec$ = -12						; size = 12
_message$ = 8						; size = 4
__x$ = 12						; size = 4
__y$ = 16						; size = 4
?MouseControl@LineEditorVisual@@QAE_NIHH@Z PROC NEAR	; LineEditorVisual::MouseControl, COMDAT
; _this$ = ecx

; 1005 : {

  00000	64 a1 00 00 00
	00		 mov	 eax, DWORD PTR fs:__except_list
  00006	6a ff		 push	 -1
  00008	68 00 00 00 00	 push	 __ehhandler$?MouseControl@LineEditorVisual@@QAE_NIHH@Z
  0000d	50		 push	 eax

; 1006 : 	switch (message)

  0000e	8b 44 24 10	 mov	 eax, DWORD PTR _message$[esp+8]
  00012	64 89 25 00 00
	00 00		 mov	 DWORD PTR fs:__except_list, esp
  00019	83 ec 10	 sub	 esp, 16			; 00000010H
  0001c	83 e8 03	 sub	 eax, 3
  0001f	56		 push	 esi
  00020	8b f1		 mov	 esi, ecx
  00022	74 05		 je	 SHORT $L75478
  00024	83 e8 02	 sub	 eax, 2
  00027	75 69		 jne	 SHORT $L77121
$L75478:

; 1007 : 	{
; 1008 : 	case M_LEFTBUTTON_DOWN:
; 1009 : 	case M_LB_DOUBLECLICK:
; 1010 : 		{
; 1011 : 			Rect rect(m_xy.x, m_xy.y, m_xy.x + m_nFontWidth, m_xy.y + m_nFontHight);

  00029	8b 46 34	 mov	 eax, DWORD PTR [esi+52]
  0002c	8b 56 58	 mov	 edx, DWORD PTR [esi+88]
  0002f	8b 4e 30	 mov	 ecx, DWORD PTR [esi+48]
  00032	03 d0		 add	 edx, eax
  00034	52		 push	 edx
  00035	8b 56 54	 mov	 edx, DWORD PTR [esi+84]
  00038	03 d1		 add	 edx, ecx
  0003a	52		 push	 edx
  0003b	50		 push	 eax
  0003c	51		 push	 ecx
  0003d	8d 4c 24 14	 lea	 ecx, DWORD PTR _rect$75479[esp+48]
  00041	e8 00 00 00 00	 call	 ??0Rect@@QAE@HHHH@Z	; Rect::Rect

; 1012 : 
; 1013 : 			if (rect.IsInRect(_x, _y))

  00046	8b 44 24 2c	 mov	 eax, DWORD PTR __y$[esp+28]
  0004a	8b 4c 24 28	 mov	 ecx, DWORD PTR __x$[esp+28]
  0004e	50		 push	 eax
  0004f	51		 push	 ecx
  00050	8d 4c 24 0c	 lea	 ecx, DWORD PTR _rect$75479[esp+40]
  00054	c7 44 24 24 00
	00 00 00	 mov	 DWORD PTR __$EHRec$[esp+48], 0
  0005c	e8 00 00 00 00	 call	 ?IsInRect@Rect@@QBE_NHH@Z ; Rect::IsInRect
  00061	84 c0		 test	 al, al
  00063	74 1c		 je	 SHORT $L77116

; 1014 : 				Acquire();/*

  00065	8b 0d 00 00 00
	00		 mov	 ecx, DWORD PTR ?gC_ci@@3PAVCI@@A ; gC_ci
  0006b	89 35 00 00 00
	00		 mov	 DWORD PTR _gpC_focused_line_editor, esi
  00071	e8 00 00 00 00	 call	 ?ForceShowCursor@CI@@QBEXXZ ; CI::ForceShowCursor
  00076	8b 0d 00 00 00
	00		 mov	 ecx, DWORD PTR ?gC_ci@@3PAVCI@@A ; gC_ci
  0007c	e8 00 00 00 00	 call	 ?ClearCurrentIMEComposition@CI@@QAEXXZ ; CI::ClearCurrentIMEComposition
$L77116:

; 1015 : 			else
; 1016 : 				Unacquire();*/
; 1017 : 		}

  00081	8d 4c 24 04	 lea	 ecx, DWORD PTR _rect$75479[esp+32]
  00085	c7 44 24 1c ff
	ff ff ff	 mov	 DWORD PTR __$EHRec$[esp+40], -1
  0008d	e8 00 00 00 00	 call	 ??1Rect@@QAE@XZ		; Rect::~Rect
$L77121:

; 1018 : 	}
; 1019 : 
; 1020 : 	return true;
; 1021 : 
; 1022 : }

  00092	8b 4c 24 14	 mov	 ecx, DWORD PTR __$EHRec$[esp+32]
  00096	b0 01		 mov	 al, 1
  00098	5e		 pop	 esi
  00099	64 89 0d 00 00
	00 00		 mov	 DWORD PTR fs:__except_list, ecx
  000a0	83 c4 1c	 add	 esp, 28			; 0000001cH
  000a3	c2 0c 00	 ret	 12			; 0000000cH
_TEXT	ENDS
;	COMDAT text$x
text$x	SEGMENT
$L77113:
  00000	8d 4d e4	 lea	 ecx, DWORD PTR _rect$75479[ebp]
  00003	e9 00 00 00 00	 jmp	 ??1Rect@@QAE@XZ		; Rect::~Rect
__ehhandler$?MouseControl@LineEditorVisual@@QAE_NIHH@Z:
  00008	b8 00 00 00 00	 mov	 eax, OFFSET FLAT:$T77120
  0000d	e9 00 00 00 00	 jmp	 ___CxxFrameHandler
text$x	ENDS
?MouseControl@LineEditorVisual@@QAE_NIHH@Z ENDP		; LineEditorVisual::MouseControl
PUBLIC	?IME_Composition@CI_CHINESE@@UAEXXZ		; CI_CHINESE::IME_Composition
; Function compile flags: /Ogty
;	COMDAT ?IME_Composition@CI_CHINESE@@UAEXXZ
_TEXT	SEGMENT
?IME_Composition@CI_CHINESE@@UAEXXZ PROC NEAR		; CI_CHINESE::IME_Composition, COMDAT
; _this$ = ecx

; 1386 : }

  00000	c3		 ret	 0
?IME_Composition@CI_CHINESE@@UAEXXZ ENDP		; CI_CHINESE::IME_Composition
_TEXT	ENDS
PUBLIC	?size@?$basic_string@GV?$char_traits@G@_STL@@V?$allocator@G@2@@_STL@@QBEIXZ ; _STL::basic_string<unsigned short,_STL::char_traits<unsigned short>,_STL::allocator<unsigned short> >::size
; Function compile flags: /Ogty
; File c:\stlport-4.6.1\stlport\stl\_string.h
;	COMDAT ?size@?$basic_string@GV?$char_traits@G@_STL@@V?$allocator@G@2@@_STL@@QBEIXZ
_TEXT	SEGMENT
?size@?$basic_string@GV?$char_traits@G@_STL@@V?$allocator@G@2@@_STL@@QBEIXZ PROC NEAR ; _STL::basic_string<unsigned short,_STL::char_traits<unsigned short>,_STL::allocator<unsigned short> >::size, COMDAT
; _this$ = ecx

; 431  :   size_type size() const { return this->_M_finish - this->_M_start; }

  00000	8b 41 04	 mov	 eax, DWORD PTR [ecx+4]
  00003	2b 01		 sub	 eax, DWORD PTR [ecx]
  00005	d1 f8		 sar	 eax, 1
  00007	c3		 ret	 0
?size@?$basic_string@GV?$char_traits@G@_STL@@V?$allocator@G@2@@_STL@@QBEIXZ ENDP ; _STL::basic_string<unsigned short,_STL::char_traits<unsigned short>,_STL::allocator<unsigned short> >::size
_TEXT	ENDS
PUBLIC	??A?$basic_string@GV?$char_traits@G@_STL@@V?$allocator@G@2@@_STL@@QAEAAGI@Z ; _STL::basic_string<unsigned short,_STL::char_traits<unsigned short>,_STL::allocator<unsigned short> >::operator[]
; Function compile flags: /Ogty
;	COMDAT ??A?$basic_string@GV?$char_traits@G@_STL@@V?$allocator@G@2@@_STL@@QAEAAGI@Z
_TEXT	SEGMENT
___n$ = 8						; size = 4
??A?$basic_string@GV?$char_traits@G@_STL@@V?$allocator@G@2@@_STL@@QAEAAGI@Z PROC NEAR ; _STL::basic_string<unsigned short,_STL::char_traits<unsigned short>,_STL::allocator<unsigned short> >::operator[], COMDAT
; _this$ = ecx

; 464  :     { return *(this->_M_start + __n); }

  00000	8b 01		 mov	 eax, DWORD PTR [ecx]
  00002	8b 4c 24 04	 mov	 ecx, DWORD PTR ___n$[esp-4]
  00006	8d 04 48	 lea	 eax, DWORD PTR [eax+ecx*2]
  00009	c2 04 00	 ret	 4
??A?$basic_string@GV?$char_traits@G@_STL@@V?$allocator@G@2@@_STL@@QAEAAGI@Z ENDP ; _STL::basic_string<unsigned short,_STL::char_traits<unsigned short>,_STL::allocator<unsigned short> >::operator[]
_TEXT	ENDS
PUBLIC	?c_str@?$basic_string@GV?$char_traits@G@_STL@@V?$allocator@G@2@@_STL@@QBEPBGXZ ; _STL::basic_string<unsigned short,_STL::char_traits<unsigned short>,_STL::allocator<unsigned short> >::c_str
; Function compile flags: /Ogty
;	COMDAT ?c_str@?$basic_string@GV?$char_traits@G@_STL@@V?$allocator@G@2@@_STL@@QBEPBGXZ
_TEXT	SEGMENT
?c_str@?$basic_string@GV?$char_traits@G@_STL@@V?$allocator@G@2@@_STL@@QBEPBGXZ PROC NEAR ; _STL::basic_string<unsigned short,_STL::char_traits<unsigned short>,_STL::allocator<unsigned short> >::c_str, COMDAT
; _this$ = ecx

; 1065 :   const _CharT* c_str() const { return this->_M_start; }

  00000	8b 01		 mov	 eax, DWORD PTR [ecx]
  00002	c3		 ret	 0
?c_str@?$basic_string@GV?$char_traits@G@_STL@@V?$allocator@G@2@@_STL@@QBEPBGXZ ENDP ; _STL::basic_string<unsigned short,_STL::char_traits<unsigned short>,_STL::allocator<unsigned short> >::c_str
_TEXT	ENDS
PUBLIC	?begin@?$vector@HV?$allocator@H@_STL@@@_STL@@QAEPAHXZ ; _STL::vector<int,_STL::allocator<int> >::begin
; Function compile flags: /Ogty
; File c:\stlport-4.6.1\stlport\stl\_vector.h
;	COMDAT ?begin@?$vector@HV?$allocator@H@_STL@@@_STL@@QAEPAHXZ
_TEXT	SEGMENT
?begin@?$vector@HV?$allocator@H@_STL@@@_STL@@QAEPAHXZ PROC NEAR ; _STL::vector<int,_STL::allocator<int> >::begin, COMDAT
; _this$ = ecx

; 172  :   iterator begin()             { return this->_M_start; }

  00000	8b 01		 mov	 eax, DWORD PTR [ecx]
  00002	c3		 ret	 0
?begin@?$vector@HV?$allocator@H@_STL@@@_STL@@QAEPAHXZ ENDP ; _STL::vector<int,_STL::allocator<int> >::begin
_TEXT	ENDS
PUBLIC	?end@?$vector@HV?$allocator@H@_STL@@@_STL@@QAEPAHXZ ; _STL::vector<int,_STL::allocator<int> >::end
; Function compile flags: /Ogty
;	COMDAT ?end@?$vector@HV?$allocator@H@_STL@@@_STL@@QAEPAHXZ
_TEXT	SEGMENT
?end@?$vector@HV?$allocator@H@_STL@@@_STL@@QAEPAHXZ PROC NEAR ; _STL::vector<int,_STL::allocator<int> >::end, COMDAT
; _this$ = ecx

; 174  :   iterator end()               { return this->_M_finish; }

  00000	8b 41 04	 mov	 eax, DWORD PTR [ecx+4]
  00003	c3		 ret	 0
?end@?$vector@HV?$allocator@H@_STL@@@_STL@@QAEPAHXZ ENDP ; _STL::vector<int,_STL::allocator<int> >::end
_TEXT	ENDS
PUBLIC	?size@?$vector@HV?$allocator@H@_STL@@@_STL@@QBEIXZ ; _STL::vector<int,_STL::allocator<int> >::size
; Function compile flags: /Ogty
;	COMDAT ?size@?$vector@HV?$allocator@H@_STL@@@_STL@@QBEIXZ
_TEXT	SEGMENT
?size@?$vector@HV?$allocator@H@_STL@@@_STL@@QBEIXZ PROC NEAR ; _STL::vector<int,_STL::allocator<int> >::size, COMDAT
; _this$ = ecx

; 182  :   size_type size() const        { return size_type(this->_M_finish - this->_M_start); }

  00000	8b 41 04	 mov	 eax, DWORD PTR [ecx+4]
  00003	2b 01		 sub	 eax, DWORD PTR [ecx]
  00005	c1 f8 02	 sar	 eax, 2
  00008	c3		 ret	 0
?size@?$vector@HV?$allocator@H@_STL@@@_STL@@QBEIXZ ENDP	; _STL::vector<int,_STL::allocator<int> >::size
_TEXT	ENDS
PUBLIC	??0?$allocator@H@_STL@@QAE@XZ			; _STL::allocator<int>::allocator<int>
; Function compile flags: /Ogty
; File c:\stlport-4.6.1\stlport\stl\_alloc.h
;	COMDAT ??0?$allocator@H@_STL@@QAE@XZ
_TEXT	SEGMENT
??0?$allocator@H@_STL@@QAE@XZ PROC NEAR			; _STL::allocator<int>::allocator<int>, COMDAT
; _this$ = ecx

; 345  :   allocator() _STLP_NOTHROW {}

  00000	8b c1		 mov	 eax, ecx
  00002	c3		 ret	 0
??0?$allocator@H@_STL@@QAE@XZ ENDP			; _STL::allocator<int>::allocator<int>
_TEXT	ENDS
PUBLIC	??1?$allocator@H@_STL@@QAE@XZ			; _STL::allocator<int>::~allocator<int>
; Function compile flags: /Ogty
;	COMDAT ??1?$allocator@H@_STL@@QAE@XZ
_TEXT	SEGMENT
??1?$allocator@H@_STL@@QAE@XZ PROC NEAR			; _STL::allocator<int>::~allocator<int>, COMDAT
; _this$ = ecx

; 350  :   ~allocator() _STLP_NOTHROW {}

  00000	c3		 ret	 0
??1?$allocator@H@_STL@@QAE@XZ ENDP			; _STL::allocator<int>::~allocator<int>
_TEXT	ENDS
PUBLIC	?move@?$__char_traits_base@GG@_STL@@SAPAGPAGPBGI@Z ; _STL::__char_traits_base<unsigned short,unsigned short>::move
; Function compile flags: /Ogty
; File c:\stlport-4.6.1\stlport\stl\char_traits.h
;	COMDAT ?move@?$__char_traits_base@GG@_STL@@SAPAGPAGPBGI@Z
_TEXT	SEGMENT
___s1$ = 8						; size = 4
___s2$ = 12						; size = 4
__Sz$ = 16						; size = 4
?move@?$__char_traits_base@GG@_STL@@SAPAGPAGPBGI@Z PROC NEAR ; _STL::__char_traits_base<unsigned short,unsigned short>::move, COMDAT

; 166  :     return (_Sz == 0 ? __s1 : (_CharT*)memmove(__s1, __s2, _Sz * sizeof(_CharT)));

  00000	8b 44 24 0c	 mov	 eax, DWORD PTR __Sz$[esp-4]
  00004	85 c0		 test	 eax, eax
  00006	75 05		 jne	 SHORT $L77158
  00008	8b 44 24 04	 mov	 eax, DWORD PTR ___s1$[esp-4]

; 167  :   }

  0000c	c3		 ret	 0
$L77158:

; 166  :     return (_Sz == 0 ? __s1 : (_CharT*)memmove(__s1, __s2, _Sz * sizeof(_CharT)));

  0000d	03 c0		 add	 eax, eax
  0000f	89 44 24 0c	 mov	 DWORD PTR __Sz$[esp-4], eax
  00013	e9 00 00 00 00	 jmp	 _memmove
?move@?$__char_traits_base@GG@_STL@@SAPAGPAGPBGI@Z ENDP	; _STL::__char_traits_base<unsigned short,unsigned short>::move
_TEXT	ENDS
PUBLIC	?begin@?$basic_string@GV?$char_traits@G@_STL@@V?$allocator@G@2@@_STL@@QAEPAGXZ ; _STL::basic_string<unsigned short,_STL::char_traits<unsigned short>,_STL::allocator<unsigned short> >::begin
; Function compile flags: /Ogty
; File c:\stlport-4.6.1\stlport\stl\_string.h
;	COMDAT ?begin@?$basic_string@GV?$char_traits@G@_STL@@V?$allocator@G@2@@_STL@@QAEPAGXZ
_TEXT	SEGMENT
?begin@?$basic_string@GV?$char_traits@G@_STL@@V?$allocator@G@2@@_STL@@QAEPAGXZ PROC NEAR ; _STL::basic_string<unsigned short,_STL::char_traits<unsigned short>,_STL::allocator<unsigned short> >::begin, COMDAT
; _this$ = ecx

; 416  :   iterator begin()             { return this->_M_start; }

  00000	8b 01		 mov	 eax, DWORD PTR [ecx]
  00002	c3		 ret	 0
?begin@?$basic_string@GV?$char_traits@G@_STL@@V?$allocator@G@2@@_STL@@QAEPAGXZ ENDP ; _STL::basic_string<unsigned short,_STL::char_traits<unsigned short>,_STL::allocator<unsigned short> >::begin
_TEXT	ENDS
PUBLIC	?erase@?$basic_string@GV?$char_traits@G@_STL@@V?$allocator@G@2@@_STL@@QAEPAGPAG0@Z ; _STL::basic_string<unsigned short,_STL::char_traits<unsigned short>,_STL::allocator<unsigned short> >::erase
; Function compile flags: /Ogty
;	COMDAT ?erase@?$basic_string@GV?$char_traits@G@_STL@@V?$allocator@G@2@@_STL@@QAEPAGPAG0@Z
_TEXT	SEGMENT
___first$ = 8						; size = 4
___last$ = 12						; size = 4
?erase@?$basic_string@GV?$char_traits@G@_STL@@V?$allocator@G@2@@_STL@@QAEPAGPAG0@Z PROC NEAR ; _STL::basic_string<unsigned short,_STL::char_traits<unsigned short>,_STL::allocator<unsigned short> >::erase, COMDAT
; _this$ = ecx

; 862  :   iterator erase(iterator __first, iterator __last) {

  00000	53		 push	 ebx
  00001	56		 push	 esi

; 863  :     if (__first != __last) {

  00002	8b 74 24 10	 mov	 esi, DWORD PTR ___last$[esp+4]
  00006	57		 push	 edi
  00007	8b 7c 24 10	 mov	 edi, DWORD PTR ___first$[esp+8]
  0000b	3b fe		 cmp	 edi, esi
  0000d	8b d9		 mov	 ebx, ecx
  0000f	74 27		 je	 SHORT $L77177

; 864  :                                 // The move includes the terminating _CharT().
; 865  :       traits_type::move(__first, __last, (this->_M_finish - __last) + 1);

  00011	8b 43 04	 mov	 eax, DWORD PTR [ebx+4]
  00014	2b c6		 sub	 eax, esi
  00016	d1 f8		 sar	 eax, 1
  00018	40		 inc	 eax
  00019	74 0d		 je	 SHORT $L77172
  0001b	03 c0		 add	 eax, eax
  0001d	50		 push	 eax
  0001e	56		 push	 esi
  0001f	57		 push	 edi
  00020	e8 00 00 00 00	 call	 _memmove
  00025	83 c4 0c	 add	 esp, 12			; 0000000cH
$L77172:

; 866  :       pointer __new_finish = this->_M_finish - (__last - __first);
; 867  :       _STLP_STD::_Destroy(__new_finish + 1, this->_M_finish + 1);
; 868  :       this->_M_finish = __new_finish;

  00028	8b 43 04	 mov	 eax, DWORD PTR [ebx+4]
  0002b	2b f7		 sub	 esi, edi
  0002d	d1 fe		 sar	 esi, 1
  0002f	f7 de		 neg	 esi
  00031	d1 e6		 shl	 esi, 1
  00033	03 c6		 add	 eax, esi
  00035	89 43 04	 mov	 DWORD PTR [ebx+4], eax
$L77177:

; 869  :     }
; 870  :     return __first;

  00038	8b c7		 mov	 eax, edi
  0003a	5f		 pop	 edi
  0003b	5e		 pop	 esi
  0003c	5b		 pop	 ebx

; 871  :   }

  0003d	c2 08 00	 ret	 8
?erase@?$basic_string@GV?$char_traits@G@_STL@@V?$allocator@G@2@@_STL@@QAEPAGPAG0@Z ENDP ; _STL::basic_string<unsigned short,_STL::char_traits<unsigned short>,_STL::allocator<unsigned short> >::erase
_TEXT	ENDS
PUBLIC	??1?$_STLP_alloc_proxy@PAHHV?$allocator@H@_STL@@@_STL@@QAE@XZ ; _STL::_STLP_alloc_proxy<int *,int,_STL::allocator<int> >::~_STLP_alloc_proxy<int *,int,_STL::allocator<int> >
; Function compile flags: /Ogty
;	COMDAT ??1?$_STLP_alloc_proxy@PAHHV?$allocator@H@_STL@@@_STL@@QAE@XZ
_TEXT	SEGMENT
??1?$_STLP_alloc_proxy@PAHHV?$allocator@H@_STL@@@_STL@@QAE@XZ PROC NEAR ; _STL::_STLP_alloc_proxy<int *,int,_STL::allocator<int> >::~_STLP_alloc_proxy<int *,int,_STL::allocator<int> >, COMDAT
; _this$ = ecx
  00000	c3		 ret	 0
??1?$_STLP_alloc_proxy@PAHHV?$allocator@H@_STL@@@_STL@@QAE@XZ ENDP ; _STL::_STLP_alloc_proxy<int *,int,_STL::allocator<int> >::~_STLP_alloc_proxy<int *,int,_STL::allocator<int> >
_TEXT	ENDS
PUBLIC	?assign@?$__char_traits_base@GG@_STL@@SAXAAGABG@Z ; _STL::__char_traits_base<unsigned short,unsigned short>::assign
; Function compile flags: /Ogty
; File c:\stlport-4.6.1\stlport\stl\char_traits.h
;	COMDAT ?assign@?$__char_traits_base@GG@_STL@@SAXAAGABG@Z
_TEXT	SEGMENT
___c1$ = 8						; size = 4
___c2$ = 12						; size = 4
?assign@?$__char_traits_base@GG@_STL@@SAXAAGABG@Z PROC NEAR ; _STL::__char_traits_base<unsigned short,unsigned short>::assign, COMDAT

; 136  :   static void _STLP_CALL assign(char_type& __c1, const char_type& __c2) { __c1 = __c2; }

  00000	8b 44 24 08	 mov	 eax, DWORD PTR ___c2$[esp-4]
  00004	66 8b 08	 mov	 cx, WORD PTR [eax]
  00007	8b 54 24 04	 mov	 edx, DWORD PTR ___c1$[esp-4]
  0000b	66 89 0a	 mov	 WORD PTR [edx], cx
  0000e	c3		 ret	 0
?assign@?$__char_traits_base@GG@_STL@@SAXAAGABG@Z ENDP	; _STL::__char_traits_base<unsigned short,unsigned short>::assign
_TEXT	ENDS
PUBLIC	?eq@?$__char_traits_base@GG@_STL@@SA_NABG0@Z	; _STL::__char_traits_base<unsigned short,unsigned short>::eq
; Function compile flags: /Ogty
;	COMDAT ?eq@?$__char_traits_base@GG@_STL@@SA_NABG0@Z
_TEXT	SEGMENT
___c1$ = 8						; size = 4
___c2$ = 12						; size = 4
?eq@?$__char_traits_base@GG@_STL@@SA_NABG0@Z PROC NEAR	; _STL::__char_traits_base<unsigned short,unsigned short>::eq, COMDAT

; 138  :     { return __c1 == __c2; }

  00000	8b 44 24 04	 mov	 eax, DWORD PTR ___c1$[esp-4]
  00004	66 8b 00	 mov	 ax, WORD PTR [eax]
  00007	8b 4c 24 08	 mov	 ecx, DWORD PTR ___c2$[esp-4]
  0000b	66 2b 01	 sub	 ax, WORD PTR [ecx]
  0000e	66 f7 d8	 neg	 ax
  00011	1b c0		 sbb	 eax, eax
  00013	40		 inc	 eax
  00014	c3		 ret	 0
?eq@?$__char_traits_base@GG@_STL@@SA_NABG0@Z ENDP	; _STL::__char_traits_base<unsigned short,unsigned short>::eq
_TEXT	ENDS
PUBLIC	?max_size@?$_String_base@GV?$allocator@G@_STL@@@_STL@@QBEIXZ ; _STL::_String_base<unsigned short,_STL::allocator<unsigned short> >::max_size
; Function compile flags: /Ogty
; File c:\stlport-4.6.1\stlport\stl\_string.h
;	COMDAT ?max_size@?$_String_base@GV?$allocator@G@_STL@@@_STL@@QBEIXZ
_TEXT	SEGMENT
?max_size@?$_String_base@GV?$allocator@G@_STL@@@_STL@@QBEIXZ PROC NEAR ; _STL::_String_base<unsigned short,_STL::allocator<unsigned short> >::max_size, COMDAT
; _this$ = ecx

; 126  :   size_t max_size() const { return (size_t(-1) / sizeof(_Tp)) - 1; }

  00000	b8 fe ff ff 7f	 mov	 eax, 2147483646		; 7ffffffeH
  00005	c3		 ret	 0
?max_size@?$_String_base@GV?$allocator@G@_STL@@@_STL@@QBEIXZ ENDP ; _STL::_String_base<unsigned short,_STL::allocator<unsigned short> >::max_size
_TEXT	ENDS
PUBLIC	?_M_set@?$vector@HV?$allocator@H@_STL@@@_STL@@IAEXPAH00@Z ; _STL::vector<int,_STL::allocator<int> >::_M_set
; Function compile flags: /Ogty
; File c:\stlport-4.6.1\stlport\stl\_vector.h
;	COMDAT ?_M_set@?$vector@HV?$allocator@H@_STL@@@_STL@@IAEXPAH00@Z
_TEXT	SEGMENT
___s$ = 8						; size = 4
___f$ = 12						; size = 4
___e$ = 16						; size = 4
?_M_set@?$vector@HV?$allocator@H@_STL@@@_STL@@IAEXPAH00@Z PROC NEAR ; _STL::vector<int,_STL::allocator<int> >::_M_set, COMDAT
; _this$ = ecx

; 501  :     this->_M_start = __s;

  00000	8b 44 24 04	 mov	 eax, DWORD PTR ___s$[esp-4]

; 502  :     this->_M_finish = __f;

  00004	8b 54 24 08	 mov	 edx, DWORD PTR ___f$[esp-4]
  00008	89 01		 mov	 DWORD PTR [ecx], eax

; 503  :     this->_M_end_of_storage._M_data = __e;

  0000a	8b 44 24 0c	 mov	 eax, DWORD PTR ___e$[esp-4]
  0000e	89 51 04	 mov	 DWORD PTR [ecx+4], edx
  00011	89 41 08	 mov	 DWORD PTR [ecx+8], eax

; 504  :   }

  00014	c2 0c 00	 ret	 12			; 0000000cH
?_M_set@?$vector@HV?$allocator@H@_STL@@@_STL@@IAEXPAH00@Z ENDP ; _STL::vector<int,_STL::allocator<int> >::_M_set
_TEXT	ENDS
PUBLIC	?_M_construct_null_aux@?$basic_string@GV?$char_traits@G@_STL@@V?$allocator@G@2@@_STL@@AAEXPAGABU__true_type@2@@Z ; _STL::basic_string<unsigned short,_STL::char_traits<unsigned short>,_STL::allocator<unsigned short> >::_M_construct_null_aux
; Function compile flags: /Ogty
; File c:\stlport-4.6.1\stlport\stl\_string.h
;	COMDAT ?_M_construct_null_aux@?$basic_string@GV?$char_traits@G@_STL@@V?$allocator@G@2@@_STL@@AAEXPAGABU__true_type@2@@Z
_TEXT	SEGMENT
___p$ = 8						; size = 4
___formal$ = 12						; size = 4
?_M_construct_null_aux@?$basic_string@GV?$char_traits@G@_STL@@V?$allocator@G@2@@_STL@@AAEXPAGABU__true_type@2@@Z PROC NEAR ; _STL::basic_string<unsigned short,_STL::char_traits<unsigned short>,_STL::allocator<unsigned short> >::_M_construct_null_aux, COMDAT
; _this$ = ecx

; 332  :     *__p = 0;

  00000	8b 44 24 04	 mov	 eax, DWORD PTR ___p$[esp-4]
  00004	66 c7 00 00 00	 mov	 WORD PTR [eax], 0

; 333  :   }

  00009	c2 08 00	 ret	 8
?_M_construct_null_aux@?$basic_string@GV?$char_traits@G@_STL@@V?$allocator@G@2@@_STL@@AAEXPAGABU__true_type@2@@Z ENDP ; _STL::basic_string<unsigned short,_STL::char_traits<unsigned short>,_STL::allocator<unsigned short> >::_M_construct_null_aux
_TEXT	ENDS
PUBLIC	?allocate@?$__node_alloc@$00$0A@@_STL@@SAPAXI@Z	; _STL::__node_alloc<1,0>::allocate
EXTRN	?_M_allocate@?$__node_alloc@$00$0A@@_STL@@CAPAXI@Z:NEAR ; _STL::__node_alloc<1,0>::_M_allocate
; Function compile flags: /Ogty
; File c:\stlport-4.6.1\stlport\stl\_alloc.h
;	COMDAT ?allocate@?$__node_alloc@$00$0A@@_STL@@SAPAXI@Z
_TEXT	SEGMENT
___n$ = 8						; size = 4
?allocate@?$__node_alloc@$00$0A@@_STL@@SAPAXI@Z PROC NEAR ; _STL::__node_alloc<1,0>::allocate, COMDAT

; 251  :   static void * _STLP_CALL allocate(size_t __n) { return (__n > (size_t)_MAX_BYTES) ?  __stl_new(__n) : _M_allocate(__n); }

  00000	8b 44 24 04	 mov	 eax, DWORD PTR ___n$[esp-4]
  00004	3d 80 00 00 00	 cmp	 eax, 128		; 00000080H
  00009	76 09		 jbe	 SHORT $L77202
  0000b	89 44 24 04	 mov	 DWORD PTR ___n$[esp-4], eax
  0000f	e9 00 00 00 00	 jmp	 ??2@YAPAXI@Z		; operator new
$L77202:
  00014	89 44 24 04	 mov	 DWORD PTR ___n$[esp-4], eax
  00018	e9 00 00 00 00	 jmp	 ?_M_allocate@?$__node_alloc@$00$0A@@_STL@@CAPAXI@Z ; _STL::__node_alloc<1,0>::_M_allocate
?allocate@?$__node_alloc@$00$0A@@_STL@@SAPAXI@Z ENDP	; _STL::__node_alloc<1,0>::allocate
_TEXT	ENDS
PUBLIC	??0?$allocator@H@_STL@@QAE@ABV01@@Z		; _STL::allocator<int>::allocator<int>
; Function compile flags: /Ogty
;	COMDAT ??0?$allocator@H@_STL@@QAE@ABV01@@Z
_TEXT	SEGMENT
___formal$ = 8						; size = 4
??0?$allocator@H@_STL@@QAE@ABV01@@Z PROC NEAR		; _STL::allocator<int>::allocator<int>, COMDAT
; _this$ = ecx

; 349  :   allocator(const allocator<_Tp>&) _STLP_NOTHROW {}

  00000	8b c1		 mov	 eax, ecx
  00002	c2 04 00	 ret	 4
??0?$allocator@H@_STL@@QAE@ABV01@@Z ENDP		; _STL::allocator<int>::allocator<int>
_TEXT	ENDS
PUBLIC	??_C@_0N@GOPDCEEB@basic_string?$AA@		; `string'
PUBLIC	?_M_throw_length_error@?$_String_base@GV?$allocator@G@_STL@@@_STL@@QBEXXZ ; _STL::_String_base<unsigned short,_STL::allocator<unsigned short> >::_M_throw_length_error
EXTRN	?__stl_throw_length_error@_STL@@YAXPBD@Z:NEAR	; _STL::__stl_throw_length_error
;	COMDAT ??_C@_0N@GOPDCEEB@basic_string?$AA@
; File c:\stlport-4.6.1\stlport\stl\_string.c
CONST	SEGMENT
??_C@_0N@GOPDCEEB@basic_string?$AA@ DB 'basic_string', 00H ; `string'
; Function compile flags: /Ogty
CONST	ENDS
;	COMDAT ?_M_throw_length_error@?$_String_base@GV?$allocator@G@_STL@@@_STL@@QBEXXZ
_TEXT	SEGMENT
?_M_throw_length_error@?$_String_base@GV?$allocator@G@_STL@@@_STL@@QBEXXZ PROC NEAR ; _STL::_String_base<unsigned short,_STL::allocator<unsigned short> >::_M_throw_length_error, COMDAT
; _this$ = ecx

; 523  :     __stl_throw_length_error("basic_string");

  00000	68 00 00 00 00	 push	 OFFSET FLAT:??_C@_0N@GOPDCEEB@basic_string?$AA@
  00005	e8 00 00 00 00	 call	 ?__stl_throw_length_error@_STL@@YAXPBD@Z ; _STL::__stl_throw_length_error
  0000a	59		 pop	 ecx

; 524  : }

  0000b	c3		 ret	 0
?_M_throw_length_error@?$_String_base@GV?$allocator@G@_STL@@@_STL@@QBEXXZ ENDP ; _STL::_String_base<unsigned short,_STL::allocator<unsigned short> >::_M_throw_length_error
_TEXT	ENDS
PUBLIC	?_M_throw_out_of_range@?$_String_base@GV?$allocator@G@_STL@@@_STL@@QBEXXZ ; _STL::_String_base<unsigned short,_STL::allocator<unsigned short> >::_M_throw_out_of_range
EXTRN	?__stl_throw_out_of_range@_STL@@YAXPBD@Z:NEAR	; _STL::__stl_throw_out_of_range
; Function compile flags: /Ogty
;	COMDAT ?_M_throw_out_of_range@?$_String_base@GV?$allocator@G@_STL@@@_STL@@QBEXXZ
_TEXT	SEGMENT
?_M_throw_out_of_range@?$_String_base@GV?$allocator@G@_STL@@@_STL@@QBEXXZ PROC NEAR ; _STL::_String_base<unsigned short,_STL::allocator<unsigned short> >::_M_throw_out_of_range, COMDAT
; _this$ = ecx

; 527  :     __stl_throw_out_of_range("basic_string");

  00000	68 00 00 00 00	 push	 OFFSET FLAT:??_C@_0N@GOPDCEEB@basic_string?$AA@
  00005	e8 00 00 00 00	 call	 ?__stl_throw_out_of_range@_STL@@YAXPBD@Z ; _STL::__stl_throw_out_of_range
  0000a	59		 pop	 ecx

; 528  : }

  0000b	c3		 ret	 0
?_M_throw_out_of_range@?$_String_base@GV?$allocator@G@_STL@@@_STL@@QBEXXZ ENDP ; _STL::_String_base<unsigned short,_STL::allocator<unsigned short> >::_M_throw_out_of_range
_TEXT	ENDS
PUBLIC	??$_Destroy@G@_STL@@YAXPAG@Z			; _STL::_Destroy<unsigned short>
; Function compile flags: /Ogty
; File c:\stlport-4.6.1\stlport\stl\_construct.h
;	COMDAT ??$_Destroy@G@_STL@@YAXPAG@Z
_TEXT	SEGMENT
___pointer$ = 8						; size = 4
??$_Destroy@G@_STL@@YAXPAG@Z PROC NEAR			; _STL::_Destroy<unsigned short>, COMDAT

; 57   : # if _MSC_VER >= 1010
; 58   :   __pointer;
; 59   : # endif	// _MSC_VER >= 1000
; 60   : # ifdef _STLP_TRIVIAL_DESTRUCTOR_BUG
; 61   :   typedef typename __type_traits<_Tp>::has_trivial_destructor _Trivial_destructor;
; 62   :   __destroy_aux(__pointer, _Trivial_destructor());
; 63   : # else
; 64   : #  if ( defined (__BORLANDC__) && ( __BORLANDC__ < 0x500 ) )
; 65   :     __pointer->_Tp::~_Tp();
; 66   : #  else
; 67   :     __pointer->~_Tp();
; 68   : #  endif
; 69   : # endif
; 70   : # ifdef _STLP_DEBUG_UNINITIALIZED
; 71   : 	memset((char*)__pointer, _STLP_SHRED_BYTE, sizeof(_Tp));
; 72   : # endif
; 73   : }

  00000	c3		 ret	 0
??$_Destroy@G@_STL@@YAXPAG@Z ENDP			; _STL::_Destroy<unsigned short>
_TEXT	ENDS
PUBLIC	??$_Construct@HH@_STL@@YAXPAHABH@Z		; _STL::_Construct<int,int>
; Function compile flags: /Ogty
;	COMDAT ??$_Construct@HH@_STL@@YAXPAHABH@Z
_TEXT	SEGMENT
___p$ = 8						; size = 4
___val$ = 12						; size = 4
??$_Construct@HH@_STL@@YAXPAHABH@Z PROC NEAR		; _STL::_Construct<int,int>, COMDAT

; 94   : # ifdef _STLP_DEBUG_UNINITIALIZED
; 95   : 	memset((char*)__p, _STLP_SHRED_BYTE, sizeof(_T1));
; 96   : # endif
; 97   :     _STLP_PLACEMENT_NEW (__p) _T1(__val);

  00000	8b 44 24 04	 mov	 eax, DWORD PTR ___p$[esp-4]
  00004	85 c0		 test	 eax, eax
  00006	74 08		 je	 SHORT $L77223
  00008	8b 4c 24 08	 mov	 ecx, DWORD PTR ___val$[esp-4]
  0000c	8b 11		 mov	 edx, DWORD PTR [ecx]
  0000e	89 10		 mov	 DWORD PTR [eax], edx
$L77223:

; 98   : }

  00010	c3		 ret	 0
??$_Construct@HH@_STL@@YAXPAHABH@Z ENDP			; _STL::_Construct<int,int>
_TEXT	ENDS
PUBLIC	??$max@I@_STL@@YAABIABI0@Z			; _STL::max<unsigned int>
; Function compile flags: /Ogty
; File c:\stlport-4.6.1\stlport\stl\_algobase.h
;	COMDAT ??$max@I@_STL@@YAABIABI0@Z
_TEXT	SEGMENT
___a$ = 8						; size = 4
___b$ = 12						; size = 4
??$max@I@_STL@@YAABIABI0@Z PROC NEAR			; _STL::max<unsigned int>, COMDAT

; 79   : inline const _Tp& (max)(const _Tp& __a, const _Tp& __b) {  return  __a < __b ? __b : __a; }

  00000	8b 44 24 04	 mov	 eax, DWORD PTR ___a$[esp-4]
  00004	8b 4c 24 08	 mov	 ecx, DWORD PTR ___b$[esp-4]
  00008	8b 10		 mov	 edx, DWORD PTR [eax]
  0000a	3b 11		 cmp	 edx, DWORD PTR [ecx]
  0000c	73 02		 jae	 SHORT $L77233
  0000e	8b c1		 mov	 eax, ecx
$L77233:
  00010	c3		 ret	 0
??$max@I@_STL@@YAABIABI0@Z ENDP				; _STL::max<unsigned int>
_TEXT	ENDS
PUBLIC	??$fill_n@PAHIH@_STL@@YAPAHPAHIABH@Z		; _STL::fill_n<int *,unsigned int,int>
; Function compile flags: /Ogty
;	COMDAT ??$fill_n@PAHIH@_STL@@YAPAHPAHIABH@Z
_TEXT	SEGMENT
___first$ = 8						; size = 4
___n$ = 12						; size = 4
___val$ = 16						; size = 4
??$fill_n@PAHIH@_STL@@YAPAHPAHIABH@Z PROC NEAR		; _STL::fill_n<int *,unsigned int,int>, COMDAT

; 333  :   _STLP_FIX_LITERAL_BUG(__first)
; 334  :   for ( ; __n > 0; --__n, ++__first)

  00000	8b 4c 24 08	 mov	 ecx, DWORD PTR ___n$[esp-4]
  00004	85 c9		 test	 ecx, ecx
  00006	8b 44 24 04	 mov	 eax, DWORD PTR ___first$[esp-4]
  0000a	76 10		 jbe	 SHORT $L76360
  0000c	8b 54 24 0c	 mov	 edx, DWORD PTR ___val$[esp-4]
  00010	56		 push	 esi
$L76358:

; 335  :     *__first = __val;

  00011	8b 32		 mov	 esi, DWORD PTR [edx]
  00013	89 30		 mov	 DWORD PTR [eax], esi
  00015	83 c0 04	 add	 eax, 4
  00018	49		 dec	 ecx
  00019	75 f6		 jne	 SHORT $L76358
  0001b	5e		 pop	 esi
$L76360:

; 336  :   return __first;
; 337  : }

  0001c	c3		 ret	 0
??$fill_n@PAHIH@_STL@@YAPAHPAHIABH@Z ENDP		; _STL::fill_n<int *,unsigned int,int>
_TEXT	ENDS
PUBLIC	?capacity@?$basic_string@GV?$char_traits@G@_STL@@V?$allocator@G@2@@_STL@@QBEIXZ ; _STL::basic_string<unsigned short,_STL::char_traits<unsigned short>,_STL::allocator<unsigned short> >::capacity
; Function compile flags: /Ogty
; File c:\stlport-4.6.1\stlport\stl\_string.h
;	COMDAT ?capacity@?$basic_string@GV?$char_traits@G@_STL@@V?$allocator@G@2@@_STL@@QBEIXZ
_TEXT	SEGMENT
?capacity@?$basic_string@GV?$char_traits@G@_STL@@V?$allocator@G@2@@_STL@@QBEIXZ PROC NEAR ; _STL::basic_string<unsigned short,_STL::char_traits<unsigned short>,_STL::allocator<unsigned short> >::capacity, COMDAT
; _this$ = ecx

; 447  :   size_type capacity() const { return (this->_M_end_of_storage._M_data - this->_M_start) - 1; }

  00000	8b 41 08	 mov	 eax, DWORD PTR [ecx+8]
  00003	2b 01		 sub	 eax, DWORD PTR [ecx]
  00005	d1 f8		 sar	 eax, 1
  00007	48		 dec	 eax
  00008	c3		 ret	 0
?capacity@?$basic_string@GV?$char_traits@G@_STL@@V?$allocator@G@2@@_STL@@QBEIXZ ENDP ; _STL::basic_string<unsigned short,_STL::char_traits<unsigned short>,_STL::allocator<unsigned short> >::capacity
_TEXT	ENDS
PUBLIC	??0?$allocator@G@_STL@@QAE@XZ			; _STL::allocator<unsigned short>::allocator<unsigned short>
; Function compile flags: /Ogty
; File c:\stlport-4.6.1\stlport\stl\_alloc.h
;	COMDAT ??0?$allocator@G@_STL@@QAE@XZ
_TEXT	SEGMENT
??0?$allocator@G@_STL@@QAE@XZ PROC NEAR			; _STL::allocator<unsigned short>::allocator<unsigned short>, COMDAT
; _this$ = ecx

; 345  :   allocator() _STLP_NOTHROW {}

  00000	8b c1		 mov	 eax, ecx
  00002	c3		 ret	 0
??0?$allocator@G@_STL@@QAE@XZ ENDP			; _STL::allocator<unsigned short>::allocator<unsigned short>
_TEXT	ENDS
PUBLIC	?allocate@?$allocator@G@_STL@@QAEPAGIPBX@Z	; _STL::allocator<unsigned short>::allocate
; Function compile flags: /Ogty
;	COMDAT ?allocate@?$allocator@G@_STL@@QAEPAGIPBX@Z
_TEXT	SEGMENT
___n$ = 8						; size = 4
___formal$ = 12						; size = 4
?allocate@?$allocator@G@_STL@@QAEPAGIPBX@Z PROC NEAR	; _STL::allocator<unsigned short>::allocate, COMDAT
; _this$ = ecx

; 355  :     return __n != 0 ? __REINTERPRET_CAST(value_type*,__sgi_alloc::allocate(__n * sizeof(value_type))) : 0;

  00000	8b 44 24 04	 mov	 eax, DWORD PTR ___n$[esp-4]
  00004	85 c0		 test	 eax, eax
  00006	74 20		 je	 SHORT $L77249
  00008	03 c0		 add	 eax, eax
  0000a	3d 80 00 00 00	 cmp	 eax, 128		; 00000080H
  0000f	50		 push	 eax
  00010	76 0b		 jbe	 SHORT $L77259
  00012	e8 00 00 00 00	 call	 ??2@YAPAXI@Z		; operator new
  00017	83 c4 04	 add	 esp, 4

; 356  :   }

  0001a	c2 08 00	 ret	 8

; 355  :     return __n != 0 ? __REINTERPRET_CAST(value_type*,__sgi_alloc::allocate(__n * sizeof(value_type))) : 0;

$L77259:
  0001d	e8 00 00 00 00	 call	 ?_M_allocate@?$__node_alloc@$00$0A@@_STL@@CAPAXI@Z ; _STL::__node_alloc<1,0>::_M_allocate
  00022	83 c4 04	 add	 esp, 4

; 356  :   }

  00025	c2 08 00	 ret	 8
$L77249:

; 355  :     return __n != 0 ? __REINTERPRET_CAST(value_type*,__sgi_alloc::allocate(__n * sizeof(value_type))) : 0;

  00028	33 c0		 xor	 eax, eax

; 356  :   }

  0002a	c2 08 00	 ret	 8
?allocate@?$allocator@G@_STL@@QAEPAGIPBX@Z ENDP		; _STL::allocator<unsigned short>::allocate
_TEXT	ENDS
PUBLIC	?_M_terminate_string_aux@?$basic_string@GV?$char_traits@G@_STL@@V?$allocator@G@2@@_STL@@AAEXABU__true_type@2@@Z ; _STL::basic_string<unsigned short,_STL::char_traits<unsigned short>,_STL::allocator<unsigned short> >::_M_terminate_string_aux
; Function compile flags: /Ogty
; File c:\stlport-4.6.1\stlport\stl\_string.h
;	COMDAT ?_M_terminate_string_aux@?$basic_string@GV?$char_traits@G@_STL@@V?$allocator@G@2@@_STL@@AAEXABU__true_type@2@@Z
_TEXT	SEGMENT
___formal$ = 8						; size = 4
?_M_terminate_string_aux@?$basic_string@GV?$char_traits@G@_STL@@V?$allocator@G@2@@_STL@@AAEXABU__true_type@2@@Z PROC NEAR ; _STL::basic_string<unsigned short,_STL::char_traits<unsigned short>,_STL::allocator<unsigned short> >::_M_terminate_string_aux, COMDAT
; _this$ = ecx

; 351  :     *(this->_M_finish)=0;

  00000	8b 41 04	 mov	 eax, DWORD PTR [ecx+4]
  00003	66 c7 00 00 00	 mov	 WORD PTR [eax], 0

; 352  :   }

  00008	c2 04 00	 ret	 4
?_M_terminate_string_aux@?$basic_string@GV?$char_traits@G@_STL@@V?$allocator@G@2@@_STL@@AAEXABU__true_type@2@@Z ENDP ; _STL::basic_string<unsigned short,_STL::char_traits<unsigned short>,_STL::allocator<unsigned short> >::_M_terminate_string_aux
_TEXT	ENDS
PUBLIC	??0?$allocator@G@_STL@@QAE@ABV01@@Z		; _STL::allocator<unsigned short>::allocator<unsigned short>
; Function compile flags: /Ogty
; File c:\stlport-4.6.1\stlport\stl\_alloc.h
;	COMDAT ??0?$allocator@G@_STL@@QAE@ABV01@@Z
_TEXT	SEGMENT
___formal$ = 8						; size = 4
??0?$allocator@G@_STL@@QAE@ABV01@@Z PROC NEAR		; _STL::allocator<unsigned short>::allocator<unsigned short>, COMDAT
; _this$ = ecx

; 349  :   allocator(const allocator<_Tp>&) _STLP_NOTHROW {}

  00000	8b c1		 mov	 eax, ecx
  00002	c2 04 00	 ret	 4
??0?$allocator@G@_STL@@QAE@ABV01@@Z ENDP		; _STL::allocator<unsigned short>::allocator<unsigned short>
_TEXT	ENDS
PUBLIC	?end@?$basic_string@GV?$char_traits@G@_STL@@V?$allocator@G@2@@_STL@@QAEPAGXZ ; _STL::basic_string<unsigned short,_STL::char_traits<unsigned short>,_STL::allocator<unsigned short> >::end
; Function compile flags: /Ogty
; File c:\stlport-4.6.1\stlport\stl\_string.h
;	COMDAT ?end@?$basic_string@GV?$char_traits@G@_STL@@V?$allocator@G@2@@_STL@@QAEPAGXZ
_TEXT	SEGMENT
?end@?$basic_string@GV?$char_traits@G@_STL@@V?$allocator@G@2@@_STL@@QAEPAGXZ PROC NEAR ; _STL::basic_string<unsigned short,_STL::char_traits<unsigned short>,_STL::allocator<unsigned short> >::end, COMDAT
; _this$ = ecx

; 417  :   iterator end()               { return this->_M_finish; }

  00000	8b 41 04	 mov	 eax, DWORD PTR [ecx+4]
  00003	c3		 ret	 0
?end@?$basic_string@GV?$char_traits@G@_STL@@V?$allocator@G@2@@_STL@@QAEPAGXZ ENDP ; _STL::basic_string<unsigned short,_STL::char_traits<unsigned short>,_STL::allocator<unsigned short> >::end
_TEXT	ENDS
PUBLIC	??$__destroy_aux@PAH@_STL@@YAXPAH0ABU__true_type@0@@Z ; _STL::__destroy_aux<int *>
; Function compile flags: /Ogty
; File c:\stlport-4.6.1\stlport\stl\_construct.h
;	COMDAT ??$__destroy_aux@PAH@_STL@@YAXPAH0ABU__true_type@0@@Z
_TEXT	SEGMENT
___formal$ = 8						; size = 4
___formal$ = 12						; size = 4
___formal$ = 16						; size = 4
??$__destroy_aux@PAH@_STL@@YAXPAH0ABU__true_type@0@@Z PROC NEAR ; _STL::__destroy_aux<int *>, COMDAT

; 128  : inline void __destroy_aux(_ForwardIterator, _ForwardIterator, const __true_type&) {}

  00000	c3		 ret	 0
??$__destroy_aux@PAH@_STL@@YAXPAH0ABU__true_type@0@@Z ENDP ; _STL::__destroy_aux<int *>
_TEXT	ENDS
PUBLIC	?_M_move@?$basic_string@GV?$char_traits@G@_STL@@V?$allocator@G@2@@_STL@@AAEXPBG0PAG@Z ; _STL::basic_string<unsigned short,_STL::char_traits<unsigned short>,_STL::allocator<unsigned short> >::_M_move
; Function compile flags: /Ogty
; File c:\stlport-4.6.1\stlport\stl\_string.h
;	COMDAT ?_M_move@?$basic_string@GV?$char_traits@G@_STL@@V?$allocator@G@2@@_STL@@AAEXPBG0PAG@Z
_TEXT	SEGMENT
___first$ = 8						; size = 4
___last$ = 12						; size = 4
___result$ = 16						; size = 4
?_M_move@?$basic_string@GV?$char_traits@G@_STL@@V?$allocator@G@2@@_STL@@AAEXPBG0PAG@Z PROC NEAR ; _STL::basic_string<unsigned short,_STL::char_traits<unsigned short>,_STL::allocator<unsigned short> >::_M_move, COMDAT
; _this$ = ecx

; 842  :     _Traits::move(__result, __first, __last - __first);

  00000	8b 44 24 08	 mov	 eax, DWORD PTR ___last$[esp-4]
  00004	8b 4c 24 04	 mov	 ecx, DWORD PTR ___first$[esp-4]
  00008	2b c1		 sub	 eax, ecx
  0000a	d1 f8		 sar	 eax, 1
  0000c	85 c0		 test	 eax, eax
  0000e	74 11		 je	 SHORT $L77285
  00010	03 c0		 add	 eax, eax
  00012	50		 push	 eax
  00013	51		 push	 ecx
  00014	8b 4c 24 14	 mov	 ecx, DWORD PTR ___result$[esp+4]
  00018	51		 push	 ecx
  00019	e8 00 00 00 00	 call	 _memmove
  0001e	83 c4 0c	 add	 esp, 12			; 0000000cH
$L77285:

; 843  :   }

  00021	c2 0c 00	 ret	 12			; 0000000cH
?_M_move@?$basic_string@GV?$char_traits@G@_STL@@V?$allocator@G@2@@_STL@@AAEXPBG0PAG@Z ENDP ; _STL::basic_string<unsigned short,_STL::char_traits<unsigned short>,_STL::allocator<unsigned short> >::_M_move
_TEXT	ENDS
PUBLIC	?_Ret@?$_BothPtrType@PAGPAG@_STL@@SA?AU__true_type@2@XZ ; _STL::_BothPtrType<unsigned short *,unsigned short *>::_Ret
; Function compile flags: /Ogty
; File c:\stlport-4.6.1\stlport\stl\type_traits.h
;	COMDAT ?_Ret@?$_BothPtrType@PAGPAG@_STL@@SA?AU__true_type@2@XZ
_TEXT	SEGMENT
?_Ret@?$_BothPtrType@PAGPAG@_STL@@SA?AU__true_type@2@XZ PROC NEAR ; _STL::_BothPtrType<unsigned short *,unsigned short *>::_Ret, COMDAT

; 234  :   static __true_type _Ret() { return __true_type();} 

  00000	32 c0		 xor	 al, al
  00002	c3		 ret	 0
?_Ret@?$_BothPtrType@PAGPAG@_STL@@SA?AU__true_type@2@XZ ENDP ; _STL::_BothPtrType<unsigned short *,unsigned short *>::_Ret
_TEXT	ENDS
PUBLIC	?_Ret@?$_OKToMemCpy@GG@_STL@@SA?AU__true_type@2@XZ ; _STL::_OKToMemCpy<unsigned short,unsigned short>::_Ret
; Function compile flags: /Ogty
;	COMDAT ?_Ret@?$_OKToMemCpy@GG@_STL@@SA?AU__true_type@2@XZ
_TEXT	SEGMENT
?_Ret@?$_OKToMemCpy@GG@_STL@@SA?AU__true_type@2@XZ PROC NEAR ; _STL::_OKToMemCpy<unsigned short,unsigned short>::_Ret, COMDAT

; 361  :   static _Type _Ret() { return _Type(); }

  00000	32 c0		 xor	 al, al
  00002	c3		 ret	 0
?_Ret@?$_OKToMemCpy@GG@_STL@@SA?AU__true_type@2@XZ ENDP	; _STL::_OKToMemCpy<unsigned short,unsigned short>::_Ret
_TEXT	ENDS
PUBLIC	??$_IsOKToMemCpy@GG@_STL@@YA?AU?$_OKToMemCpy@GG@0@PAG0@Z ; _STL::_IsOKToMemCpy<unsigned short,unsigned short>
; Function compile flags: /Ogty
;	COMDAT ??$_IsOKToMemCpy@GG@_STL@@YA?AU?$_OKToMemCpy@GG@0@PAG0@Z
_TEXT	SEGMENT
___formal$ = 8						; size = 4
___formal$ = 12						; size = 4
??$_IsOKToMemCpy@GG@_STL@@YA?AU?$_OKToMemCpy@GG@0@PAG0@Z PROC NEAR ; _STL::_IsOKToMemCpy<unsigned short,unsigned short>, COMDAT

; 366  :   return _OKToMemCpy<_Tp1, _Tp2>();

  00000	32 c0		 xor	 al, al

; 367  : }

  00002	c3		 ret	 0
??$_IsOKToMemCpy@GG@_STL@@YA?AU?$_OKToMemCpy@GG@0@PAG0@Z ENDP ; _STL::_IsOKToMemCpy<unsigned short,unsigned short>
_TEXT	ENDS
PUBLIC	??$__copy_ptrs@PAGPAG@_STL@@YAPAGPAG00ABU__true_type@0@@Z ; _STL::__copy_ptrs<unsigned short *,unsigned short *>
; Function compile flags: /Ogty
; File c:\stlport-4.6.1\stlport\stl\_algobase.h
;	COMDAT ??$__copy_ptrs@PAGPAG@_STL@@YAPAGPAG00ABU__true_type@0@@Z
_TEXT	SEGMENT
___first$ = 8						; size = 4
___last$ = 12						; size = 4
___result$ = 16						; size = 4
___formal$ = 20						; size = 4
??$__copy_ptrs@PAGPAG@_STL@@YAPAGPAG00ABU__true_type@0@@Z PROC NEAR ; _STL::__copy_ptrs<unsigned short *,unsigned short *>, COMDAT

; 195  : // we know they all pointers, so this cast is OK 
; 196  :   //  return (_OutputIter)__copy_trivial(&(*__first), &(*__last), &(*__result));
; 197  :   return (_OutputIter)__copy_trivial(__first, __last, __result);

  00000	8b 44 24 04	 mov	 eax, DWORD PTR ___first$[esp-4]
  00004	56		 push	 esi
  00005	8b 74 24 0c	 mov	 esi, DWORD PTR ___last$[esp]
  00009	3b f0		 cmp	 esi, eax
  0000b	75 06		 jne	 SHORT $L77307
  0000d	8b 44 24 10	 mov	 eax, DWORD PTR ___result$[esp]
  00011	5e		 pop	 esi

; 198  : }

  00012	c3		 ret	 0

; 195  : // we know they all pointers, so this cast is OK 
; 196  :   //  return (_OutputIter)__copy_trivial(&(*__first), &(*__last), &(*__result));
; 197  :   return (_OutputIter)__copy_trivial(__first, __last, __result);

$L77307:
  00013	2b f0		 sub	 esi, eax
  00015	56		 push	 esi
  00016	50		 push	 eax
  00017	8b 44 24 18	 mov	 eax, DWORD PTR ___result$[esp+8]
  0001b	50		 push	 eax
  0001c	e8 00 00 00 00	 call	 _memmove
  00021	83 c4 0c	 add	 esp, 12			; 0000000cH
  00024	03 c6		 add	 eax, esi
  00026	5e		 pop	 esi

; 198  : }

  00027	c3		 ret	 0
??$__copy_ptrs@PAGPAG@_STL@@YAPAGPAG00ABU__true_type@0@@Z ENDP ; _STL::__copy_ptrs<unsigned short *,unsigned short *>
_TEXT	ENDS
PUBLIC	??$__distance@PBG@_STL@@YAHABQBG0ABUrandom_access_iterator_tag@0@@Z ; _STL::__distance<unsigned short const *>
; Function compile flags: /Ogty
; File c:\stlport-4.6.1\stlport\stl\_iterator_base.h
;	COMDAT ??$__distance@PBG@_STL@@YAHABQBG0ABUrandom_access_iterator_tag@0@@Z
_TEXT	SEGMENT
___first$ = 8						; size = 4
___last$ = 12						; size = 4
___formal$ = 16						; size = 4
??$__distance@PBG@_STL@@YAHABQBG0ABUrandom_access_iterator_tag@0@@Z PROC NEAR ; _STL::__distance<unsigned short const *>, COMDAT

; 363  :   return __last - __first;

  00000	8b 44 24 08	 mov	 eax, DWORD PTR ___last$[esp-4]
  00004	8b 4c 24 04	 mov	 ecx, DWORD PTR ___first$[esp-4]
  00008	8b 00		 mov	 eax, DWORD PTR [eax]
  0000a	2b 01		 sub	 eax, DWORD PTR [ecx]
  0000c	d1 f8		 sar	 eax, 1

; 364  : }

  0000e	c3		 ret	 0
??$__distance@PBG@_STL@@YAHABQBG0ABUrandom_access_iterator_tag@0@@Z ENDP ; _STL::__distance<unsigned short const *>
_TEXT	ENDS
PUBLIC	??$__advance@PBGH@_STL@@YAXAAPBGHABUrandom_access_iterator_tag@0@@Z ; _STL::__advance<unsigned short const *,int>
; Function compile flags: /Ogty
;	COMDAT ??$__advance@PBGH@_STL@@YAXAAPBGHABUrandom_access_iterator_tag@0@@Z
_TEXT	SEGMENT
___i$ = 8						; size = 4
___n$ = 12						; size = 4
___formal$ = 16						; size = 4
??$__advance@PBGH@_STL@@YAXAAPBGHABUrandom_access_iterator_tag@0@@Z PROC NEAR ; _STL::__advance<unsigned short const *,int>, COMDAT

; 444  :   __i += __n;

  00000	8b 44 24 08	 mov	 eax, DWORD PTR ___n$[esp-4]
  00004	8d 0c 00	 lea	 ecx, DWORD PTR [eax+eax]
  00007	8b 44 24 04	 mov	 eax, DWORD PTR ___i$[esp-4]
  0000b	01 08		 add	 DWORD PTR [eax], ecx

; 445  : }

  0000d	c3		 ret	 0
??$__advance@PBGH@_STL@@YAXAAPBGHABUrandom_access_iterator_tag@0@@Z ENDP ; _STL::__advance<unsigned short const *,int>
_TEXT	ENDS
PUBLIC	??$__distance@PAG@_STL@@YAHABQAG0ABUrandom_access_iterator_tag@0@@Z ; _STL::__distance<unsigned short *>
; Function compile flags: /Ogty
;	COMDAT ??$__distance@PAG@_STL@@YAHABQAG0ABUrandom_access_iterator_tag@0@@Z
_TEXT	SEGMENT
___first$ = 8						; size = 4
___last$ = 12						; size = 4
___formal$ = 16						; size = 4
??$__distance@PAG@_STL@@YAHABQAG0ABUrandom_access_iterator_tag@0@@Z PROC NEAR ; _STL::__distance<unsigned short *>, COMDAT

; 363  :   return __last - __first;

  00000	8b 44 24 08	 mov	 eax, DWORD PTR ___last$[esp-4]
  00004	8b 4c 24 04	 mov	 ecx, DWORD PTR ___first$[esp-4]
  00008	8b 00		 mov	 eax, DWORD PTR [eax]
  0000a	2b 01		 sub	 eax, DWORD PTR [ecx]
  0000c	d1 f8		 sar	 eax, 1

; 364  : }

  0000e	c3		 ret	 0
??$__distance@PAG@_STL@@YAHABQAG0ABUrandom_access_iterator_tag@0@@Z ENDP ; _STL::__distance<unsigned short *>
_TEXT	ENDS
PUBLIC	??1?$allocator@G@_STL@@QAE@XZ			; _STL::allocator<unsigned short>::~allocator<unsigned short>
; Function compile flags: /Ogty
; File c:\stlport-4.6.1\stlport\stl\_alloc.h
;	COMDAT ??1?$allocator@G@_STL@@QAE@XZ
_TEXT	SEGMENT
??1?$allocator@G@_STL@@QAE@XZ PROC NEAR			; _STL::allocator<unsigned short>::~allocator<unsigned short>, COMDAT
; _this$ = ecx

; 350  :   ~allocator() _STLP_NOTHROW {}

  00000	c3		 ret	 0
??1?$allocator@G@_STL@@QAE@XZ ENDP			; _STL::allocator<unsigned short>::~allocator<unsigned short>
_TEXT	ENDS
PUBLIC	?deallocate@?$__node_alloc@$00$0A@@_STL@@SAXPAXI@Z ; _STL::__node_alloc<1,0>::deallocate
EXTRN	?_M_deallocate@?$__node_alloc@$00$0A@@_STL@@CAXPAXI@Z:NEAR ; _STL::__node_alloc<1,0>::_M_deallocate
; Function compile flags: /Ogty
;	COMDAT ?deallocate@?$__node_alloc@$00$0A@@_STL@@SAXPAXI@Z
_TEXT	SEGMENT
___p$ = 8						; size = 4
___n$ = 12						; size = 4
?deallocate@?$__node_alloc@$00$0A@@_STL@@SAXPAXI@Z PROC NEAR ; _STL::__node_alloc<1,0>::deallocate, COMDAT

; 253  :   static void _STLP_CALL deallocate(void *__p, size_t __n) { if (__n > (size_t)_MAX_BYTES) __stl_delete(__p); else _M_deallocate(__p, __n); }

  00000	8b 44 24 08	 mov	 eax, DWORD PTR ___n$[esp-4]
  00004	3d 80 00 00 00	 cmp	 eax, 128		; 00000080H
  00009	76 0e		 jbe	 SHORT $L73486
  0000b	8b 44 24 04	 mov	 eax, DWORD PTR ___p$[esp-4]
  0000f	50		 push	 eax
  00010	e8 00 00 00 00	 call	 ??3@YAXPAX@Z		; operator delete
  00015	83 c4 04	 add	 esp, 4
  00018	c3		 ret	 0
$L73486:
  00019	89 44 24 08	 mov	 DWORD PTR ___n$[esp-4], eax
  0001d	e9 00 00 00 00	 jmp	 ?_M_deallocate@?$__node_alloc@$00$0A@@_STL@@CAXPAXI@Z ; _STL::__node_alloc<1,0>::_M_deallocate
?deallocate@?$__node_alloc@$00$0A@@_STL@@SAXPAXI@Z ENDP	; _STL::__node_alloc<1,0>::deallocate
_TEXT	ENDS
PUBLIC	??$min@I@_STL@@YAABIABI0@Z			; _STL::min<unsigned int>
; Function compile flags: /Ogty
; File c:\stlport-4.6.1\stlport\stl\_algobase.h
;	COMDAT ??$min@I@_STL@@YAABIABI0@Z
_TEXT	SEGMENT
___a$ = 8						; size = 4
___b$ = 12						; size = 4
??$min@I@_STL@@YAABIABI0@Z PROC NEAR			; _STL::min<unsigned int>, COMDAT

; 77   : inline const _Tp& (min)(const _Tp& __a, const _Tp& __b) { return __b < __a ? __b : __a; }

  00000	8b 44 24 08	 mov	 eax, DWORD PTR ___b$[esp-4]
  00004	8b 4c 24 04	 mov	 ecx, DWORD PTR ___a$[esp-4]
  00008	8b 10		 mov	 edx, DWORD PTR [eax]
  0000a	3b 11		 cmp	 edx, DWORD PTR [ecx]
  0000c	72 02		 jb	 SHORT $L77332
  0000e	8b c1		 mov	 eax, ecx
$L77332:
  00010	c3		 ret	 0
??$min@I@_STL@@YAABIABI0@Z ENDP				; _STL::min<unsigned int>
_TEXT	ENDS
PUBLIC	?Size@LineEditor@@QBEHXZ			; LineEditor::Size
; Function compile flags: /Ogty
; File c:\darkeden\designed_common\project\new - vs_ui\src\widget\u_edit.h
;	COMDAT ?Size@LineEditor@@QBEHXZ
_TEXT	SEGMENT
?Size@LineEditor@@QBEHXZ PROC NEAR			; LineEditor::Size, COMDAT
; _this$ = ecx

; 148  : 	int	Size() const { return m_string.size(); }

  00000	8b 41 08	 mov	 eax, DWORD PTR [ecx+8]
  00003	2b 41 04	 sub	 eax, DWORD PTR [ecx+4]
  00006	d1 f8		 sar	 eax, 1
  00008	c3		 ret	 0
?Size@LineEditor@@QBEHXZ ENDP				; LineEditor::Size
_TEXT	ENDS
PUBLIC	?CheckInputCharLimit@LineEditor@@QBE_NXZ	; LineEditor::CheckInputCharLimit
; Function compile flags: /Ogty
; File c:\darkeden\designed_common\project\new - vs_ui\src\widget\u_edit.cpp
;	COMDAT ?CheckInputCharLimit@LineEditor@@QBE_NXZ
_TEXT	SEGMENT
?CheckInputCharLimit@LineEditor@@QBE_NXZ PROC NEAR	; LineEditor::CheckInputCharLimit, COMDAT
; _this$ = ecx

; 143  : 	return (m_char_input_count < m_string.size()+1);

  00000	8b 51 04	 mov	 edx, DWORD PTR [ecx+4]
  00003	8b 41 08	 mov	 eax, DWORD PTR [ecx+8]
  00006	2b c2		 sub	 eax, edx
  00008	8b 51 18	 mov	 edx, DWORD PTR [ecx+24]
  0000b	d1 f8		 sar	 eax, 1
  0000d	40		 inc	 eax
  0000e	3b d0		 cmp	 edx, eax
  00010	1b c0		 sbb	 eax, eax
  00012	f7 d8		 neg	 eax

; 144  : }

  00014	c3		 ret	 0
?CheckInputCharLimit@LineEditor@@QBE_NXZ ENDP		; LineEditor::CheckInputCharLimit
_TEXT	ENDS
PUBLIC	?CheckInputLimit@LineEditor@@QAE_NG@Z		; LineEditor::CheckInputLimit
EXTRN	?g_Convert_DBCS_Ascii2SingleByte@@YAHPBGHAAPAD@Z:NEAR ; g_Convert_DBCS_Ascii2SingleByte
EXTRN	??_V@YAXPAX@Z:NEAR				; operator delete[]
; Function compile flags: /Ogty
;	COMDAT ?CheckInputLimit@LineEditor@@QAE_NG@Z
_TEXT	SEGMENT
_str_buf$75174 = -4					; size = 4
_will_input_char$ = 8					; size = 2
?CheckInputLimit@LineEditor@@QAE_NG@Z PROC NEAR		; LineEditor::CheckInputLimit, COMDAT
; _this$ = ecx

; 162  : {

  00000	51		 push	 ecx
  00001	56		 push	 esi
  00002	8b f1		 mov	 esi, ecx

; 163  : 	//if (EndOfLogicalSize() == false) // logical size limit
; 164  : //	if (ReachEndOfBox(will_input_char) == true)
; 165  : 	{
; 166  : 		// check byte limit
; 167  : 		if (m_byte_limit > -1)

  00004	83 7e 24 ff	 cmp	 DWORD PTR [esi+36], -1
  00008	7e 53		 jle	 SHORT $L75181

; 168  : 		{
; 169  : 			char * str_buf = NULL;
; 170  : 			int len = g_Convert_DBCS_Ascii2SingleByte(m_string.c_str(), m_string.size(), str_buf);

  0000a	8b 46 04	 mov	 eax, DWORD PTR [esi+4]
  0000d	8b 56 08	 mov	 edx, DWORD PTR [esi+8]
  00010	57		 push	 edi
  00011	8d 4c 24 08	 lea	 ecx, DWORD PTR _str_buf$75174[esp+12]
  00015	51		 push	 ecx
  00016	8b c8		 mov	 ecx, eax
  00018	2b d1		 sub	 edx, ecx
  0001a	d1 fa		 sar	 edx, 1
  0001c	52		 push	 edx
  0001d	50		 push	 eax
  0001e	c7 44 24 14 00
	00 00 00	 mov	 DWORD PTR _str_buf$75174[esp+24], 0
  00026	e8 00 00 00 00	 call	 ?g_Convert_DBCS_Ascii2SingleByte@@YAHPBGHAAPAD@Z ; g_Convert_DBCS_Ascii2SingleByte
  0002b	8b f8		 mov	 edi, eax

; 171  : 			DeleteNewArray(str_buf);

  0002d	8b 44 24 14	 mov	 eax, DWORD PTR _str_buf$75174[esp+24]
  00031	83 c4 0c	 add	 esp, 12			; 0000000cH
  00034	85 c0		 test	 eax, eax
  00036	74 09		 je	 SHORT $L75176
  00038	50		 push	 eax
  00039	e8 00 00 00 00	 call	 ??_V@YAXPAX@Z		; operator delete[]
  0003e	83 c4 04	 add	 esp, 4
$L75176:

; 172  : 
; 173  : 			int add;
; 174  : 			if (will_input_char == 0) // DBCS
; 175  : 				add = 2;
; 176  : 			else
; 177  : 				add = 1;
; 178  : 			if (len+add > m_byte_limit)

  00041	8b 4e 24	 mov	 ecx, DWORD PTR [esi+36]
  00044	33 c0		 xor	 eax, eax
  00046	66 39 44 24 10	 cmp	 WORD PTR _will_input_char$[esp+8], ax
  0004b	0f 94 c0	 sete	 al
  0004e	40		 inc	 eax
  0004f	03 c7		 add	 eax, edi
  00051	3b c1		 cmp	 eax, ecx
  00053	5f		 pop	 edi
  00054	7e 07		 jle	 SHORT $L75181

; 179  : 				return true;

  00056	b0 01		 mov	 al, 1
  00058	5e		 pop	 esi

; 186  : 		{
; 187  : 			return false;
; 188  : 		}
; 189  : 	}
; 190  : 
; 191  : 	return true;
; 192  : }

  00059	59		 pop	 ecx
  0005a	c2 04 00	 ret	 4
$L75181:

; 180  : //			if (ReachEndOfBox(will_input_char) == true)
; 181  : //				m_scroll++;
; 182  : 
; 183  : 		}
; 184  : 
; 185  : 		if (CheckInputCharLimit() == false)

  0005d	8b 4e 04	 mov	 ecx, DWORD PTR [esi+4]
  00060	8b 46 08	 mov	 eax, DWORD PTR [esi+8]
  00063	2b c1		 sub	 eax, ecx
  00065	8b 4e 18	 mov	 ecx, DWORD PTR [esi+24]
  00068	d1 f8		 sar	 eax, 1
  0006a	40		 inc	 eax
  0006b	3b c8		 cmp	 ecx, eax
  0006d	0f 92 c0	 setb	 al
  00070	5e		 pop	 esi

; 186  : 		{
; 187  : 			return false;
; 188  : 		}
; 189  : 	}
; 190  : 
; 191  : 	return true;
; 192  : }

  00071	59		 pop	 ecx
  00072	c2 04 00	 ret	 4
?CheckInputLimit@LineEditor@@QAE_NG@Z ENDP		; LineEditor::CheckInputLimit
_TEXT	ENDS
PUBLIC	?IncreaseCursor@LineEditor@@QAEHXZ		; LineEditor::IncreaseCursor
; Function compile flags: /Ogty
;	COMDAT ?IncreaseCursor@LineEditor@@QAEHXZ
_TEXT	SEGMENT
_str_buf$75206 = -4					; size = 4
?IncreaseCursor@LineEditor@@QAEHXZ PROC NEAR		; LineEditor::IncreaseCursor, COMDAT
; _this$ = ecx

; 269  : { 

  00000	51		 push	 ecx
  00001	53		 push	 ebx
  00002	56		 push	 esi
  00003	8b f1		 mov	 esi, ecx

; 270  : 	if (m_cursor < m_string.size())

  00005	8b 4e 08	 mov	 ecx, DWORD PTR [esi+8]
  00008	8b 5e 04	 mov	 ebx, DWORD PTR [esi+4]
  0000b	8b 46 20	 mov	 eax, DWORD PTR [esi+32]
  0000e	2b cb		 sub	 ecx, ebx
  00010	d1 f9		 sar	 ecx, 1
  00012	3b c1		 cmp	 eax, ecx
  00014	0f 83 b4 00 00
	00		 jae	 $L75218

; 271  : 	{
; 272  : 		m_cursor++;

  0001a	40		 inc	 eax
  0001b	89 46 20	 mov	 DWORD PTR [esi+32], eax

; 273  : 		if(m_gap == 0)

  0001e	8b 46 10	 mov	 eax, DWORD PTR [esi+16]
  00021	33 db		 xor	 ebx, ebx
  00023	3b c3		 cmp	 eax, ebx
  00025	0f 85 8b 00 00
	00		 jne	 $L75211

; 274  : 		{
; 275  : 			char *str_buf;
; 276  : 			if(ReachEndOfBox(0))

  0002b	8b 16		 mov	 edx, DWORD PTR [esi]
  0002d	53		 push	 ebx
  0002e	8b ce		 mov	 ecx, esi
  00030	ff 52 04	 call	 DWORD PTR [edx+4]
  00033	84 c0		 test	 al, al
  00035	74 7f		 je	 SHORT $L75211
  00037	57		 push	 edi
  00038	eb 06 8d 9b 00
	00 00 00	 npad	 8
$L75209:

; 277  : 			{
; 278  : 				int len;
; 279  : 				do{
; 280  : 					len = g_Convert_DBCS_Ascii2SingleByte(m_string.c_str()+m_scroll, m_cursor-m_scroll, str_buf);

  00040	8b 46 1c	 mov	 eax, DWORD PTR [esi+28]
  00043	8b 4e 04	 mov	 ecx, DWORD PTR [esi+4]
  00046	8d 54 24 0c	 lea	 edx, DWORD PTR _str_buf$75206[esp+16]
  0004a	52		 push	 edx
  0004b	8b 56 20	 mov	 edx, DWORD PTR [esi+32]
  0004e	2b d0		 sub	 edx, eax
  00050	52		 push	 edx
  00051	8d 04 41	 lea	 eax, DWORD PTR [ecx+eax*2]
  00054	50		 push	 eax
  00055	e8 00 00 00 00	 call	 ?g_Convert_DBCS_Ascii2SingleByte@@YAHPBGHAAPAD@Z ; g_Convert_DBCS_Ascii2SingleByte
  0005a	8b f8		 mov	 edi, eax

; 281  : 					DeleteNew(str_buf);

  0005c	8b 44 24 18	 mov	 eax, DWORD PTR _str_buf$75206[esp+28]
  00060	83 c4 0c	 add	 esp, 12			; 0000000cH
  00063	3b c3		 cmp	 eax, ebx
  00065	74 0d		 je	 SHORT $L75212
  00067	50		 push	 eax
  00068	e8 00 00 00 00	 call	 ??3@YAXPAX@Z		; operator delete
  0006d	83 c4 04	 add	 esp, 4
  00070	89 5c 24 0c	 mov	 DWORD PTR _str_buf$75206[esp+16], ebx
$L75212:

; 282  : 					if(len > m_reach_limit)m_scroll++;

  00074	3b 7e 28	 cmp	 edi, DWORD PTR [esi+40]
  00077	7e 03		 jle	 SHORT $L75214
  00079	ff 46 1c	 inc	 DWORD PTR [esi+28]
$L75214:

; 283  : 					{
; 284  : 						len = g_Convert_DBCS_Ascii2SingleByte(m_string.c_str()+m_scroll, m_cursor-m_scroll, str_buf);

  0007c	8b 46 1c	 mov	 eax, DWORD PTR [esi+28]
  0007f	8b 4e 04	 mov	 ecx, DWORD PTR [esi+4]
  00082	8d 54 24 0c	 lea	 edx, DWORD PTR _str_buf$75206[esp+16]
  00086	52		 push	 edx
  00087	8b 56 20	 mov	 edx, DWORD PTR [esi+32]
  0008a	2b d0		 sub	 edx, eax
  0008c	52		 push	 edx
  0008d	8d 04 41	 lea	 eax, DWORD PTR [ecx+eax*2]
  00090	50		 push	 eax
  00091	e8 00 00 00 00	 call	 ?g_Convert_DBCS_Ascii2SingleByte@@YAHPBGHAAPAD@Z ; g_Convert_DBCS_Ascii2SingleByte
  00096	8b f8		 mov	 edi, eax

; 285  : 						DeleteNew(str_buf);

  00098	8b 44 24 18	 mov	 eax, DWORD PTR _str_buf$75206[esp+28]
  0009c	83 c4 0c	 add	 esp, 12			; 0000000cH
  0009f	3b c3		 cmp	 eax, ebx
  000a1	74 0d		 je	 SHORT $L75210
  000a3	50		 push	 eax
  000a4	e8 00 00 00 00	 call	 ??3@YAXPAX@Z		; operator delete
  000a9	83 c4 04	 add	 esp, 4
  000ac	89 5c 24 0c	 mov	 DWORD PTR _str_buf$75206[esp+16], ebx
$L75210:

; 286  : 					}
; 287  : 				}while(len > m_reach_limit);

  000b0	3b 7e 28	 cmp	 edi, DWORD PTR [esi+40]
  000b3	7f 8b		 jg	 SHORT $L75209
  000b5	5f		 pop	 edi
$L75211:

; 288  : 			}
; 289  : 		}
; 290  : 		if(m_string[m_cursor-1] & 0xff00)

  000b6	8b 4e 20	 mov	 ecx, DWORD PTR [esi+32]
  000b9	8b 56 04	 mov	 edx, DWORD PTR [esi+4]
  000bc	f6 44 4a ff ff	 test	 BYTE PTR [edx+ecx*2-1], -1
  000c1	b8 00 00 00 00	 mov	 eax, 0
  000c6	0f 95 c0	 setne	 al
  000c9	5e		 pop	 esi
  000ca	5b		 pop	 ebx
  000cb	40		 inc	 eax

; 297  : }

  000cc	59		 pop	 ecx
  000cd	c3		 ret	 0
$L75218:
  000ce	5e		 pop	 esi

; 291  : 			return 2;
; 292  : 		else
; 293  : 			return 1;
; 294  : 	}
; 295  : 
; 296  : 	return 0;

  000cf	33 c0		 xor	 eax, eax
  000d1	5b		 pop	 ebx

; 297  : }

  000d2	59		 pop	 ecx
  000d3	c3		 ret	 0
?IncreaseCursor@LineEditor@@QAEHXZ ENDP			; LineEditor::IncreaseCursor
_TEXT	ENDS
PUBLIC	?DecreaseCursor@LineEditor@@QAEHXZ		; LineEditor::DecreaseCursor
; Function compile flags: /Ogty
;	COMDAT ?DecreaseCursor@LineEditor@@QAEHXZ
_TEXT	SEGMENT
?DecreaseCursor@LineEditor@@QAEHXZ PROC NEAR		; LineEditor::DecreaseCursor, COMDAT
; _this$ = ecx

; 306  : 	if (m_cursor > 0)

  00000	8b 41 20	 mov	 eax, DWORD PTR [ecx+32]
  00003	85 c0		 test	 eax, eax
  00005	7e 21		 jle	 SHORT $L75225

; 307  : 	{
; 308  : 		m_cursor--;
; 309  : 		if(m_cursor < m_scroll)m_scroll--;

  00007	8b 51 1c	 mov	 edx, DWORD PTR [ecx+28]
  0000a	48		 dec	 eax
  0000b	3b c2		 cmp	 eax, edx
  0000d	89 41 20	 mov	 DWORD PTR [ecx+32], eax
  00010	7d 04		 jge	 SHORT $L75223
  00012	4a		 dec	 edx
  00013	89 51 1c	 mov	 DWORD PTR [ecx+28], edx
$L75223:

; 310  : 		if(m_string[m_cursor] & 0xff00)

  00016	8b 49 04	 mov	 ecx, DWORD PTR [ecx+4]
  00019	f6 44 41 01 ff	 test	 BYTE PTR [ecx+eax*2+1], -1
  0001e	b8 00 00 00 00	 mov	 eax, 0
  00023	0f 95 c0	 setne	 al
  00026	40		 inc	 eax

; 317  : }

  00027	c3		 ret	 0
$L75225:

; 311  : 			return 2;
; 312  : 		else
; 313  : 			return 1;
; 314  : 	}
; 315  : 
; 316  : 	return 0;

  00028	33 c0		 xor	 eax, eax

; 317  : }

  0002a	c3		 ret	 0
?DecreaseCursor@LineEditor@@QAEHXZ ENDP			; LineEditor::DecreaseCursor
_TEXT	ENDS
PUBLIC	?EndCursor@LineEditor@@QAE_NXZ			; LineEditor::EndCursor
; Function compile flags: /Ogty
;	COMDAT ?EndCursor@LineEditor@@QAE_NXZ
_TEXT	SEGMENT
?EndCursor@LineEditor@@QAE_NXZ PROC NEAR		; LineEditor::EndCursor, COMDAT
; _this$ = ecx

; 342  : { 

  00000	56		 push	 esi
  00001	8b f1		 mov	 esi, ecx

; 343  : //	if (m_cursor != m_string.size())
; 344  : //	{
; 345  : //		m_cursor = m_string.size(); 
; 346  : //		return true;
; 347  : //	}
; 348  : 	if(m_cursor != m_string.size())

  00003	8b 4e 04	 mov	 ecx, DWORD PTR [esi+4]
  00006	8b 46 08	 mov	 eax, DWORD PTR [esi+8]
  00009	2b c1		 sub	 eax, ecx
  0000b	8b 4e 20	 mov	 ecx, DWORD PTR [esi+32]
  0000e	d1 f8		 sar	 eax, 1
  00010	3b c8		 cmp	 ecx, eax
  00012	74 0f		 je	 SHORT $L75233
$L75235:

; 349  : 	{
; 350  : 		while(IncreaseCursor());

  00014	8b ce		 mov	 ecx, esi
  00016	e8 00 00 00 00	 call	 ?IncreaseCursor@LineEditor@@QAEHXZ ; LineEditor::IncreaseCursor
  0001b	85 c0		 test	 eax, eax
  0001d	75 f5		 jne	 SHORT $L75235

; 351  : 		return true;

  0001f	b0 01		 mov	 al, 1
  00021	5e		 pop	 esi

; 355  : }

  00022	c3		 ret	 0
$L75233:

; 352  : 	}
; 353  : 
; 354  : 	return false;

  00023	32 c0		 xor	 al, al
  00025	5e		 pop	 esi

; 355  : }

  00026	c3		 ret	 0
?EndCursor@LineEditor@@QAE_NXZ ENDP			; LineEditor::EndCursor
_TEXT	ENDS
PUBLIC	?GetLineCount@LineEditorVisual@@UBE?BHXZ	; LineEditorVisual::GetLineCount
EXTRN	?g_PossibleStringCut@@YA_NPBDH@Z:NEAR		; g_PossibleStringCut
EXTRN	_strchr:NEAR
; Function compile flags: /Ogty
;	COMDAT ?GetLineCount@LineEditorVisual@@UBE?BHXZ
_TEXT	SEGMENT
_str_buf$ = -16						; size = 4
_count$ = -12						; size = 4
_len$ = -8						; size = 4
_this$ = -4						; size = 4
?GetLineCount@LineEditorVisual@@UBE?BHXZ PROC NEAR	; LineEditorVisual::GetLineCount, COMDAT
; _this$ = ecx

; 1334 : {

  00000	83 ec 10	 sub	 esp, 16			; 00000010H
  00003	53		 push	 ebx
  00004	55		 push	 ebp
  00005	56		 push	 esi
  00006	8b f1		 mov	 esi, ecx

; 1335 : 	char * str_buf = NULL;
; 1336 : 
; 1337 : 	int count = 0, next = 0, len = 0;
; 1338 : 	
; 1339 : 	if(m_gap == 0)

  00008	8b 46 10	 mov	 eax, DWORD PTR [esi+16]

; 1340 : 		len = g_Convert_DBCS_Ascii2SingleByte(m_string.c_str()+m_scroll, m_string.size(), str_buf);

  0000b	8b 56 08	 mov	 edx, DWORD PTR [esi+8]
  0000e	57		 push	 edi
  0000f	33 ff		 xor	 edi, edi
  00011	8d 4c 24 10	 lea	 ecx, DWORD PTR _str_buf$[esp+32]
  00015	3b c7		 cmp	 eax, edi
  00017	8b 46 04	 mov	 eax, DWORD PTR [esi+4]
  0001a	89 74 24 1c	 mov	 DWORD PTR _this$[esp+32], esi
  0001e	89 7c 24 10	 mov	 DWORD PTR _str_buf$[esp+32], edi
  00022	89 7c 24 14	 mov	 DWORD PTR _count$[esp+32], edi
  00026	51		 push	 ecx
  00027	75 1b		 jne	 SHORT $L75869
  00029	8b 4e 1c	 mov	 ecx, DWORD PTR [esi+28]
  0002c	8b d8		 mov	 ebx, eax
  0002e	2b d3		 sub	 edx, ebx
  00030	d1 fa		 sar	 edx, 1
  00032	52		 push	 edx
  00033	8d 14 48	 lea	 edx, DWORD PTR [eax+ecx*2]
  00036	52		 push	 edx
  00037	e8 00 00 00 00	 call	 ?g_Convert_DBCS_Ascii2SingleByte@@YAHPBGHAAPAD@Z ; g_Convert_DBCS_Ascii2SingleByte
  0003c	8b e8		 mov	 ebp, eax
  0003e	89 6c 24 24	 mov	 DWORD PTR _len$[esp+44], ebp

; 1341 : 	else

  00042	eb 12		 jmp	 SHORT $L77439
$L75869:

; 1342 : 		len = g_Convert_DBCS_Ascii2SingleByte(m_string.c_str(), m_string.size(), str_buf);

  00044	2b 56 04	 sub	 edx, DWORD PTR [esi+4]
  00047	d1 fa		 sar	 edx, 1
  00049	52		 push	 edx
  0004a	50		 push	 eax
  0004b	e8 00 00 00 00	 call	 ?g_Convert_DBCS_Ascii2SingleByte@@YAHPBGHAAPAD@Z ; g_Convert_DBCS_Ascii2SingleByte
  00050	89 44 24 24	 mov	 DWORD PTR _len$[esp+44], eax
  00054	8b e8		 mov	 ebp, eax
$L77439:

; 1343 : 
; 1344 : 	if(str_buf == NULL)

  00056	8b 5c 24 1c	 mov	 ebx, DWORD PTR _str_buf$[esp+44]
  0005a	83 c4 0c	 add	 esp, 12			; 0000000cH
  0005d	85 db		 test	 ebx, ebx
  0005f	75 0f		 jne	 SHORT $L75872
  00061	5f		 pop	 edi
  00062	5e		 pop	 esi
  00063	5d		 pop	 ebp

; 1345 : 		return 0;

  00064	33 c0		 xor	 eax, eax
  00066	5b		 pop	 ebx

; 1381 : }

  00067	83 c4 10	 add	 esp, 16			; 00000010H
  0006a	c3		 ret	 0
  0006b	eb 03 8d 49 00	 npad	 5
$L75872:

; 1346 : 
; 1347 : 	do
; 1348 : 	{
; 1349 : 		int cut = false;
; 1350 : 
; 1351 : 		char *enter_pos = strchr(str_buf+next, '\n');

  00070	8d 04 1f	 lea	 eax, DWORD PTR [edi+ebx]
  00073	6a 0a		 push	 10			; 0000000aH
  00075	50		 push	 eax
  00076	e8 00 00 00 00	 call	 _strchr

; 1352 : 		if(enter_pos != NULL && enter_pos - (str_buf+next) < min(len-next, m_reach_limit+1))

  0007b	8b 5c 24 18	 mov	 ebx, DWORD PTR _str_buf$[esp+40]
  0007f	83 c4 08	 add	 esp, 8
  00082	85 c0		 test	 eax, eax
  00084	74 28		 je	 SHORT $L75877
  00086	8b 56 28	 mov	 edx, DWORD PTR [esi+40]
  00089	8b cd		 mov	 ecx, ebp
  0008b	2b cf		 sub	 ecx, edi
  0008d	42		 inc	 edx
  0008e	3b ca		 cmp	 ecx, edx
  00090	7c 02		 jl	 SHORT $L77407
  00092	8b ca		 mov	 ecx, edx
$L77407:
  00094	8b d0		 mov	 edx, eax
  00096	2b d7		 sub	 edx, edi
  00098	2b d3		 sub	 edx, ebx
  0009a	3b d1		 cmp	 edx, ecx
  0009c	7d 10		 jge	 SHORT $L75877

; 1353 : 		{
; 1354 : 			count++;

  0009e	8b 7c 24 14	 mov	 edi, DWORD PTR _count$[esp+32]
  000a2	47		 inc	 edi

; 1355 : 			next += enter_pos - (str_buf+next)+1;

  000a3	2b c3		 sub	 eax, ebx
  000a5	40		 inc	 eax
  000a6	89 7c 24 14	 mov	 DWORD PTR _count$[esp+32], edi
  000aa	8b f8		 mov	 edi, eax

; 1356 : 		}
; 1357 : 		else

  000ac	eb 69		 jmp	 SHORT $L75878
$L75877:

; 1358 : 		{
; 1359 : 			if(min(len-next, m_reach_limit+1) < strlen(str_buf))

  000ae	8b 46 28	 mov	 eax, DWORD PTR [esi+40]
  000b1	8b cd		 mov	 ecx, ebp
  000b3	2b cf		 sub	 ecx, edi
  000b5	8d 70 01	 lea	 esi, DWORD PTR [eax+1]
  000b8	3b ce		 cmp	 ecx, esi
  000ba	8b e9		 mov	 ebp, ecx
  000bc	7c 02		 jl	 SHORT $L77409
  000be	8b ee		 mov	 ebp, esi
$L77409:
  000c0	8b c3		 mov	 eax, ebx
  000c2	8d 58 01	 lea	 ebx, DWORD PTR [eax+1]
$L77433:
  000c5	8a 10		 mov	 dl, BYTE PTR [eax]
  000c7	40		 inc	 eax
  000c8	84 d2		 test	 dl, dl
  000ca	75 f9		 jne	 SHORT $L77433
  000cc	2b c3		 sub	 eax, ebx
  000ce	3b e8		 cmp	 ebp, eax
  000d0	73 1c		 jae	 SHORT $L77435

; 1360 : 			{
; 1361 : 				if(!g_PossibleStringCut(str_buf+next, min(len-next, m_reach_limit+1)))

  000d2	3b ce		 cmp	 ecx, esi
  000d4	7c 02		 jl	 SHORT $L77411
  000d6	8b ce		 mov	 ecx, esi
$L77411:
  000d8	8b 44 24 10	 mov	 eax, DWORD PTR _str_buf$[esp+32]
  000dc	51		 push	 ecx
  000dd	8d 0c 07	 lea	 ecx, DWORD PTR [edi+eax]
  000e0	51		 push	 ecx
  000e1	e8 00 00 00 00	 call	 ?g_PossibleStringCut@@YA_NPBDH@Z ; g_PossibleStringCut
  000e6	83 c4 08	 add	 esp, 8
  000e9	84 c0		 test	 al, al
  000eb	75 01		 jne	 SHORT $L77435

; 1362 : 				{
; 1363 : 					next--;

  000ed	4f		 dec	 edi
$L77435:

; 1364 : 					cut = 1;
; 1365 : 				}
; 1366 : 			}
; 1367 : 			count++;

  000ee	8b 74 24 14	 mov	 esi, DWORD PTR _count$[esp+32]

; 1368 : 			next += min(len, m_reach_limit+1);

  000f2	8b 54 24 1c	 mov	 edx, DWORD PTR _this$[esp+32]
  000f6	8b 42 28	 mov	 eax, DWORD PTR [edx+40]
  000f9	8b 4c 24 18	 mov	 ecx, DWORD PTR _len$[esp+32]
  000fd	46		 inc	 esi
  000fe	40		 inc	 eax
  000ff	3b c8		 cmp	 ecx, eax
  00101	89 74 24 14	 mov	 DWORD PTR _count$[esp+32], esi
  00105	7d 02		 jge	 SHORT $L77413
  00107	8b c1		 mov	 eax, ecx
$L77413:
  00109	8b 6c 24 18	 mov	 ebp, DWORD PTR _len$[esp+32]
  0010d	8b 5c 24 10	 mov	 ebx, DWORD PTR _str_buf$[esp+32]
  00111	8b 74 24 1c	 mov	 esi, DWORD PTR _this$[esp+32]
  00115	03 f8		 add	 edi, eax
$L75878:

; 1369 : 		}
; 1370 : 		
; 1371 : 		if(m_editor_height != 0 && count > m_editor_height)

  00117	8b 46 14	 mov	 eax, DWORD PTR [esi+20]
  0011a	85 c0		 test	 eax, eax
  0011c	74 06		 je	 SHORT $L75873
  0011e	39 44 24 14	 cmp	 DWORD PTR _count$[esp+32], eax
  00122	7f 1d		 jg	 SHORT $L75874
$L75873:

; 1372 : 		{
; 1373 : // 			count++;
; 1374 : 			break;
; 1375 : 		}
; 1376 : 	}while(next < strlen(str_buf));

  00124	8b c3		 mov	 eax, ebx
  00126	8d 50 01	 lea	 edx, DWORD PTR [eax+1]
  00129	8d a4 24 00 00
	00 00		 npad	 7
$L77434:
  00130	8a 08		 mov	 cl, BYTE PTR [eax]
  00132	40		 inc	 eax
  00133	84 c9		 test	 cl, cl
  00135	75 f9		 jne	 SHORT $L77434
  00137	2b c2		 sub	 eax, edx
  00139	3b f8		 cmp	 edi, eax
  0013b	0f 82 2f ff ff
	ff		 jb	 $L75872
$L75874:

; 1377 : 
; 1378 : 	DeleteNewArray(str_buf);

  00141	85 db		 test	 ebx, ebx
  00143	74 09		 je	 SHORT $L75882
  00145	53		 push	 ebx
  00146	e8 00 00 00 00	 call	 ??_V@YAXPAX@Z		; operator delete[]
  0014b	83 c4 04	 add	 esp, 4
$L75882:

; 1379 : 	
; 1380 : 	return count;

  0014e	8b 44 24 14	 mov	 eax, DWORD PTR _count$[esp+32]
  00152	5f		 pop	 edi
  00153	5e		 pop	 esi
  00154	5d		 pop	 ebp
  00155	5b		 pop	 ebx

; 1381 : }

  00156	83 c4 10	 add	 esp, 16			; 00000010H
  00159	c3		 ret	 0
?GetLineCount@LineEditorVisual@@UBE?BHXZ ENDP		; LineEditorVisual::GetLineCount
_TEXT	ENDS
PUBLIC	?erase@?$basic_string@GV?$char_traits@G@_STL@@V?$allocator@G@2@@_STL@@QAEAAV12@II@Z ; _STL::basic_string<unsigned short,_STL::char_traits<unsigned short>,_STL::allocator<unsigned short> >::erase
; Function compile flags: /Ogty
; File c:\stlport-4.6.1\stlport\stl\_string.h
;	COMDAT ?erase@?$basic_string@GV?$char_traits@G@_STL@@V?$allocator@G@2@@_STL@@QAEAAV12@II@Z
_TEXT	SEGMENT
$T77443 = 8						; size = 4
___pos$ = 8						; size = 4
___n$ = 12						; size = 4
?erase@?$basic_string@GV?$char_traits@G@_STL@@V?$allocator@G@2@@_STL@@QAEAAV12@II@Z PROC NEAR ; _STL::basic_string<unsigned short,_STL::char_traits<unsigned short>,_STL::allocator<unsigned short> >::erase, COMDAT
; _this$ = ecx

; 847  :   _Self& erase(size_type __pos = 0, size_type __n = npos) {

  00000	53		 push	 ebx

; 848  :     if (__pos > size())

  00001	8b 5c 24 08	 mov	 ebx, DWORD PTR ___pos$[esp]
  00005	56		 push	 esi
  00006	57		 push	 edi
  00007	8b f9		 mov	 edi, ecx
  00009	8b 47 04	 mov	 eax, DWORD PTR [edi+4]
  0000c	2b 07		 sub	 eax, DWORD PTR [edi]
  0000e	d1 f8		 sar	 eax, 1
  00010	3b d8		 cmp	 ebx, eax
  00012	76 0d		 jbe	 SHORT $L77448

; 849  :       this->_M_throw_out_of_range();

  00014	68 00 00 00 00	 push	 OFFSET FLAT:??_C@_0N@GOPDCEEB@basic_string?$AA@
  00019	e8 00 00 00 00	 call	 ?__stl_throw_out_of_range@_STL@@YAXPBD@Z ; _STL::__stl_throw_out_of_range
  0001e	83 c4 04	 add	 esp, 4
$L77448:

; 850  :     erase(begin() + __pos, begin() + __pos + (min) (__n, size() - __pos));

  00021	8b 4f 04	 mov	 ecx, DWORD PTR [edi+4]
  00024	8b 17		 mov	 edx, DWORD PTR [edi]
  00026	8b 74 24 14	 mov	 esi, DWORD PTR ___n$[esp+8]
  0002a	8b c1		 mov	 eax, ecx
  0002c	2b c2		 sub	 eax, edx
  0002e	d1 f8		 sar	 eax, 1
  00030	2b c3		 sub	 eax, ebx
  00032	89 44 24 10	 mov	 DWORD PTR $T77443[esp+8], eax
  00036	3b c6		 cmp	 eax, esi
  00038	8d 44 24 10	 lea	 eax, DWORD PTR $T77443[esp+8]
  0003c	72 04		 jb	 SHORT $L77464
  0003e	8d 44 24 14	 lea	 eax, DWORD PTR ___n$[esp+8]
$L77464:
  00042	8b 00		 mov	 eax, DWORD PTR [eax]
  00044	03 c3		 add	 eax, ebx
  00046	8d 34 42	 lea	 esi, DWORD PTR [edx+eax*2]
  00049	8d 1c 5a	 lea	 ebx, DWORD PTR [edx+ebx*2]
  0004c	3b de		 cmp	 ebx, esi
  0004e	74 24		 je	 SHORT $L77494
  00050	2b ce		 sub	 ecx, esi
  00052	d1 f9		 sar	 ecx, 1
  00054	41		 inc	 ecx
  00055	74 0d		 je	 SHORT $L77489
  00057	03 c9		 add	 ecx, ecx
  00059	51		 push	 ecx
  0005a	56		 push	 esi
  0005b	53		 push	 ebx
  0005c	e8 00 00 00 00	 call	 _memmove
  00061	83 c4 0c	 add	 esp, 12			; 0000000cH
$L77489:
  00064	8b 47 04	 mov	 eax, DWORD PTR [edi+4]
  00067	2b f3		 sub	 esi, ebx
  00069	d1 fe		 sar	 esi, 1
  0006b	f7 de		 neg	 esi
  0006d	d1 e6		 shl	 esi, 1
  0006f	03 c6		 add	 eax, esi
  00071	89 47 04	 mov	 DWORD PTR [edi+4], eax
$L77494:

; 851  :     return *this;

  00074	8b c7		 mov	 eax, edi
  00076	5f		 pop	 edi
  00077	5e		 pop	 esi
  00078	5b		 pop	 ebx

; 852  :   }  

  00079	c2 08 00	 ret	 8
?erase@?$basic_string@GV?$char_traits@G@_STL@@V?$allocator@G@2@@_STL@@QAEAAV12@II@Z ENDP ; _STL::basic_string<unsigned short,_STL::char_traits<unsigned short>,_STL::allocator<unsigned short> >::erase
_TEXT	ENDS
PUBLIC	?erase@?$basic_string@GV?$char_traits@G@_STL@@V?$allocator@G@2@@_STL@@QAEPAGPAG@Z ; _STL::basic_string<unsigned short,_STL::char_traits<unsigned short>,_STL::allocator<unsigned short> >::erase
; Function compile flags: /Ogty
;	COMDAT ?erase@?$basic_string@GV?$char_traits@G@_STL@@V?$allocator@G@2@@_STL@@QAEPAGPAG@Z
_TEXT	SEGMENT
___position$ = 8					; size = 4
?erase@?$basic_string@GV?$char_traits@G@_STL@@V?$allocator@G@2@@_STL@@QAEPAGPAG@Z PROC NEAR ; _STL::basic_string<unsigned short,_STL::char_traits<unsigned short>,_STL::allocator<unsigned short> >::erase, COMDAT
; _this$ = ecx

; 854  :   iterator erase(iterator __position) {

  00000	56		 push	 esi
  00001	8b f1		 mov	 esi, ecx

; 855  :                                 // The move includes the terminating _CharT().
; 856  :     _Traits::move(__position, __position + 1, this->_M_finish - __position);

  00003	8b 46 04	 mov	 eax, DWORD PTR [esi+4]
  00006	57		 push	 edi
  00007	8b 7c 24 0c	 mov	 edi, DWORD PTR ___position$[esp+4]
  0000b	2b c7		 sub	 eax, edi
  0000d	d1 f8		 sar	 eax, 1
  0000f	85 c0		 test	 eax, eax
  00011	74 10		 je	 SHORT $L77509
  00013	03 c0		 add	 eax, eax
  00015	50		 push	 eax
  00016	8d 4f 02	 lea	 ecx, DWORD PTR [edi+2]
  00019	51		 push	 ecx
  0001a	57		 push	 edi
  0001b	e8 00 00 00 00	 call	 _memmove
  00020	83 c4 0c	 add	 esp, 12			; 0000000cH
$L77509:

; 857  :     _STLP_STD::_Destroy(this->_M_finish);
; 858  :     --this->_M_finish;

  00023	83 46 04 fe	 add	 DWORD PTR [esi+4], -2	; fffffffeH

; 859  :     return __position;

  00027	8b c7		 mov	 eax, edi
  00029	5f		 pop	 edi
  0002a	5e		 pop	 esi

; 860  :   }

  0002b	c2 04 00	 ret	 4
?erase@?$basic_string@GV?$char_traits@G@_STL@@V?$allocator@G@2@@_STL@@QAEPAGPAG@Z ENDP ; _STL::basic_string<unsigned short,_STL::char_traits<unsigned short>,_STL::allocator<unsigned short> >::erase
_TEXT	ENDS
PUBLIC	?length@?$__char_traits_base@GG@_STL@@SAIPBG@Z	; _STL::__char_traits_base<unsigned short,unsigned short>::length
; Function compile flags: /Ogty
; File c:\stlport-4.6.1\stlport\stl\char_traits.h
;	COMDAT ?length@?$__char_traits_base@GG@_STL@@SAIPBG@Z
_TEXT	SEGMENT
___s$ = 8						; size = 4
?length@?$__char_traits_base@GG@_STL@@SAIPBG@Z PROC NEAR ; _STL::__char_traits_base<unsigned short,unsigned short>::length, COMDAT

; 150  :     const _CharT _NullChar = _STLP_DEFAULT_CONSTRUCTED(_CharT);
; 151  :     size_t __i;
; 152  :     for (__i = 0; !eq(__s[__i], _NullChar); ++__i)

  00000	8b 4c 24 04	 mov	 ecx, DWORD PTR ___s$[esp-4]
  00004	33 c0		 xor	 eax, eax
  00006	66 39 01	 cmp	 WORD PTR [ecx], ax
  00009	74 0d		 je	 SHORT $L76051
  0000b	eb 03 8d 49 00	 npad	 5
$L76049:
  00010	40		 inc	 eax
  00011	66 83 3c 41 00	 cmp	 WORD PTR [ecx+eax*2], 0
  00016	75 f8		 jne	 SHORT $L76049
$L76051:

; 153  :       {}
; 154  :     return __i;
; 155  :   }

  00018	c3		 ret	 0
?length@?$__char_traits_base@GG@_STL@@SAIPBG@Z ENDP	; _STL::__char_traits_base<unsigned short,unsigned short>::length
_TEXT	ENDS
PUBLIC	?max_size@?$basic_string@GV?$char_traits@G@_STL@@V?$allocator@G@2@@_STL@@QBEIXZ ; _STL::basic_string<unsigned short,_STL::char_traits<unsigned short>,_STL::allocator<unsigned short> >::max_size
; Function compile flags: /Ogty
; File c:\stlport-4.6.1\stlport\stl\_string.h
;	COMDAT ?max_size@?$basic_string@GV?$char_traits@G@_STL@@V?$allocator@G@2@@_STL@@QBEIXZ
_TEXT	SEGMENT
?max_size@?$basic_string@GV?$char_traits@G@_STL@@V?$allocator@G@2@@_STL@@QBEIXZ PROC NEAR ; _STL::basic_string<unsigned short,_STL::char_traits<unsigned short>,_STL::allocator<unsigned short> >::max_size, COMDAT
; _this$ = ecx

; 434  :   size_t max_size() const { return _Base::max_size(); }

  00000	b8 fe ff ff 7f	 mov	 eax, 2147483646		; 7ffffffeH
  00005	c3		 ret	 0
?max_size@?$basic_string@GV?$char_traits@G@_STL@@V?$allocator@G@2@@_STL@@QBEIXZ ENDP ; _STL::basic_string<unsigned short,_STL::char_traits<unsigned short>,_STL::allocator<unsigned short> >::max_size
_TEXT	ENDS
PUBLIC	?_M_construct_null@?$basic_string@GV?$char_traits@G@_STL@@V?$allocator@G@2@@_STL@@AAEXPAG@Z ; _STL::basic_string<unsigned short,_STL::char_traits<unsigned short>,_STL::allocator<unsigned short> >::_M_construct_null
; Function compile flags: /Ogty
;	COMDAT ?_M_construct_null@?$basic_string@GV?$char_traits@G@_STL@@V?$allocator@G@2@@_STL@@AAEXPAG@Z
_TEXT	SEGMENT
___p$ = 8						; size = 4
?_M_construct_null@?$basic_string@GV?$char_traits@G@_STL@@V?$allocator@G@2@@_STL@@AAEXPAG@Z PROC NEAR ; _STL::basic_string<unsigned short,_STL::char_traits<unsigned short>,_STL::allocator<unsigned short> >::_M_construct_null, COMDAT
; _this$ = ecx

; 336  :     _M_construct_null_aux(__p, _Char_Is_Integral());

  00000	8b 44 24 04	 mov	 eax, DWORD PTR ___p$[esp-4]
  00004	66 c7 00 00 00	 mov	 WORD PTR [eax], 0

; 337  :   }

  00009	c2 04 00	 ret	 4
?_M_construct_null@?$basic_string@GV?$char_traits@G@_STL@@V?$allocator@G@2@@_STL@@AAEXPAG@Z ENDP ; _STL::basic_string<unsigned short,_STL::char_traits<unsigned short>,_STL::allocator<unsigned short> >::_M_construct_null
_TEXT	ENDS
PUBLIC	?allocate@?$allocator@H@_STL@@QAEPAHIPBX@Z	; _STL::allocator<int>::allocate
; Function compile flags: /Ogty
; File c:\stlport-4.6.1\stlport\stl\_alloc.h
;	COMDAT ?allocate@?$allocator@H@_STL@@QAEPAHIPBX@Z
_TEXT	SEGMENT
___n$ = 8						; size = 4
___formal$ = 12						; size = 4
?allocate@?$allocator@H@_STL@@QAEPAHIPBX@Z PROC NEAR	; _STL::allocator<int>::allocate, COMDAT
; _this$ = ecx

; 355  :     return __n != 0 ? __REINTERPRET_CAST(value_type*,__sgi_alloc::allocate(__n * sizeof(value_type))) : 0;

  00000	8b 44 24 04	 mov	 eax, DWORD PTR ___n$[esp-4]
  00004	85 c0		 test	 eax, eax
  00006	74 21		 je	 SHORT $L77535
  00008	c1 e0 02	 shl	 eax, 2
  0000b	3d 80 00 00 00	 cmp	 eax, 128		; 00000080H
  00010	50		 push	 eax
  00011	76 0b		 jbe	 SHORT $L77545
  00013	e8 00 00 00 00	 call	 ??2@YAPAXI@Z		; operator new
  00018	83 c4 04	 add	 esp, 4

; 356  :   }

  0001b	c2 08 00	 ret	 8

; 355  :     return __n != 0 ? __REINTERPRET_CAST(value_type*,__sgi_alloc::allocate(__n * sizeof(value_type))) : 0;

$L77545:
  0001e	e8 00 00 00 00	 call	 ?_M_allocate@?$__node_alloc@$00$0A@@_STL@@CAPAXI@Z ; _STL::__node_alloc<1,0>::_M_allocate
  00023	83 c4 04	 add	 esp, 4

; 356  :   }

  00026	c2 08 00	 ret	 8
$L77535:

; 355  :     return __n != 0 ? __REINTERPRET_CAST(value_type*,__sgi_alloc::allocate(__n * sizeof(value_type))) : 0;

  00029	33 c0		 xor	 eax, eax

; 356  :   }

  0002b	c2 08 00	 ret	 8
?allocate@?$allocator@H@_STL@@QAEPAHIPBX@Z ENDP		; _STL::allocator<int>::allocate
_TEXT	ENDS
PUBLIC	?deallocate@?$allocator@H@_STL@@QAEXPAHI@Z	; _STL::allocator<int>::deallocate
; Function compile flags: /Ogty
;	COMDAT ?deallocate@?$allocator@H@_STL@@QAEXPAHI@Z
_TEXT	SEGMENT
___p$ = 8						; size = 4
___n$ = 12						; size = 4
?deallocate@?$allocator@H@_STL@@QAEXPAHI@Z PROC NEAR	; _STL::allocator<int>::deallocate, COMDAT
; _this$ = ecx

; 359  :     _STLP_ASSERT( (__p == 0) == (__n == 0) )
; 360  :       if (__p != 0) __sgi_alloc::deallocate((void*)__p, __n * sizeof(value_type));

  00000	8b 4c 24 04	 mov	 ecx, DWORD PTR ___p$[esp-4]
  00004	85 c9		 test	 ecx, ecx
  00006	74 24		 je	 SHORT $L77562
  00008	8b 44 24 08	 mov	 eax, DWORD PTR ___n$[esp-4]
  0000c	c1 e0 02	 shl	 eax, 2
  0000f	3d 80 00 00 00	 cmp	 eax, 128		; 00000080H
  00014	76 0c		 jbe	 SHORT $L77561
  00016	51		 push	 ecx
  00017	e8 00 00 00 00	 call	 ??3@YAXPAX@Z		; operator delete
  0001c	83 c4 04	 add	 esp, 4

; 361  :   }

  0001f	c2 08 00	 ret	 8

; 359  :     _STLP_ASSERT( (__p == 0) == (__n == 0) )
; 360  :       if (__p != 0) __sgi_alloc::deallocate((void*)__p, __n * sizeof(value_type));

$L77561:
  00022	50		 push	 eax
  00023	51		 push	 ecx
  00024	e8 00 00 00 00	 call	 ?_M_deallocate@?$__node_alloc@$00$0A@@_STL@@CAXPAXI@Z ; _STL::__node_alloc<1,0>::_M_deallocate
  00029	83 c4 08	 add	 esp, 8
$L77562:

; 361  :   }

  0002c	c2 08 00	 ret	 8
?deallocate@?$allocator@H@_STL@@QAEXPAHI@Z ENDP		; _STL::allocator<int>::deallocate
_TEXT	ENDS
PUBLIC	??0?$_STLP_alloc_proxy@PAHHV?$allocator@H@_STL@@@_STL@@QAE@ABV?$allocator@H@1@PAH@Z ; _STL::_STLP_alloc_proxy<int *,int,_STL::allocator<int> >::_STLP_alloc_proxy<int *,int,_STL::allocator<int> >
; Function compile flags: /Ogty
;	COMDAT ??0?$_STLP_alloc_proxy@PAHHV?$allocator@H@_STL@@@_STL@@QAE@ABV?$allocator@H@1@PAH@Z
_TEXT	SEGMENT
___a$ = 8						; size = 4
___p$ = 12						; size = 4
??0?$_STLP_alloc_proxy@PAHHV?$allocator@H@_STL@@@_STL@@QAE@ABV?$allocator@H@1@PAH@Z PROC NEAR ; _STL::_STLP_alloc_proxy<int *,int,_STL::allocator<int> >::_STLP_alloc_proxy<int *,int,_STL::allocator<int> >, COMDAT
; _this$ = ecx

; 487  :   inline _STLP_alloc_proxy(const _MaybeReboundAlloc& __a, _Value __p) : _MaybeReboundAlloc(__a), _M_data(__p) {}

  00000	8b c1		 mov	 eax, ecx
  00002	8b 4c 24 08	 mov	 ecx, DWORD PTR ___p$[esp-4]
  00006	89 08		 mov	 DWORD PTR [eax], ecx
  00008	c2 08 00	 ret	 8
??0?$_STLP_alloc_proxy@PAHHV?$allocator@H@_STL@@@_STL@@QAE@ABV?$allocator@H@1@PAH@Z ENDP ; _STL::_STLP_alloc_proxy<int *,int,_STL::allocator<int> >::_STLP_alloc_proxy<int *,int,_STL::allocator<int> >
_TEXT	ENDS
PUBLIC	?_M_terminate_string@?$basic_string@GV?$char_traits@G@_STL@@V?$allocator@G@2@@_STL@@AAEXXZ ; _STL::basic_string<unsigned short,_STL::char_traits<unsigned short>,_STL::allocator<unsigned short> >::_M_terminate_string
; Function compile flags: /Ogty
; File c:\stlport-4.6.1\stlport\stl\_string.h
;	COMDAT ?_M_terminate_string@?$basic_string@GV?$char_traits@G@_STL@@V?$allocator@G@2@@_STL@@AAEXXZ
_TEXT	SEGMENT
?_M_terminate_string@?$basic_string@GV?$char_traits@G@_STL@@V?$allocator@G@2@@_STL@@AAEXXZ PROC NEAR ; _STL::basic_string<unsigned short,_STL::char_traits<unsigned short>,_STL::allocator<unsigned short> >::_M_terminate_string, COMDAT
; _this$ = ecx

; 355  :     _M_terminate_string_aux(_Char_Is_Integral());

  00000	8b 41 04	 mov	 eax, DWORD PTR [ecx+4]
  00003	66 c7 00 00 00	 mov	 WORD PTR [eax], 0

; 356  :   }

  00008	c3		 ret	 0
?_M_terminate_string@?$basic_string@GV?$char_traits@G@_STL@@V?$allocator@G@2@@_STL@@AAEXXZ ENDP ; _STL::basic_string<unsigned short,_STL::char_traits<unsigned short>,_STL::allocator<unsigned short> >::_M_terminate_string
_TEXT	ENDS
PUBLIC	??0?$_STLP_alloc_proxy@PAGGV?$allocator@G@_STL@@@_STL@@QAE@ABV?$allocator@G@1@PAG@Z ; _STL::_STLP_alloc_proxy<unsigned short *,unsigned short,_STL::allocator<unsigned short> >::_STLP_alloc_proxy<unsigned short *,unsigned short,_STL::allocator<unsigned short> >
; Function compile flags: /Ogty
; File c:\stlport-4.6.1\stlport\stl\_alloc.h
;	COMDAT ??0?$_STLP_alloc_proxy@PAGGV?$allocator@G@_STL@@@_STL@@QAE@ABV?$allocator@G@1@PAG@Z
_TEXT	SEGMENT
___a$ = 8						; size = 4
___p$ = 12						; size = 4
??0?$_STLP_alloc_proxy@PAGGV?$allocator@G@_STL@@@_STL@@QAE@ABV?$allocator@G@1@PAG@Z PROC NEAR ; _STL::_STLP_alloc_proxy<unsigned short *,unsigned short,_STL::allocator<unsigned short> >::_STLP_alloc_proxy<unsigned short *,unsigned short,_STL::allocator<unsigned short> >, COMDAT
; _this$ = ecx

; 487  :   inline _STLP_alloc_proxy(const _MaybeReboundAlloc& __a, _Value __p) : _MaybeReboundAlloc(__a), _M_data(__p) {}

  00000	8b c1		 mov	 eax, ecx
  00002	8b 4c 24 08	 mov	 ecx, DWORD PTR ___p$[esp-4]
  00006	89 08		 mov	 DWORD PTR [eax], ecx
  00008	c2 08 00	 ret	 8
??0?$_STLP_alloc_proxy@PAGGV?$allocator@G@_STL@@@_STL@@QAE@ABV?$allocator@G@1@PAG@Z ENDP ; _STL::_STLP_alloc_proxy<unsigned short *,unsigned short,_STL::allocator<unsigned short> >::_STLP_alloc_proxy<unsigned short *,unsigned short,_STL::allocator<unsigned short> >
_TEXT	ENDS
PUBLIC	??$__destroy@PAHH@_STL@@YAXPAH00@Z		; _STL::__destroy<int *,int>
; Function compile flags: /Ogty
; File c:\stlport-4.6.1\stlport\stl\_construct.h
;	COMDAT ??$__destroy@PAHH@_STL@@YAXPAH00@Z
_TEXT	SEGMENT
___first$ = 8						; size = 4
___last$ = 12						; size = 4
___formal$ = 16						; size = 4
??$__destroy@PAHH@_STL@@YAXPAH00@Z PROC NEAR		; _STL::__destroy<int *,int>, COMDAT

; 133  :   typedef typename __type_traits<_Tp>::has_trivial_destructor _Trivial_destructor;
; 134  :   __destroy_aux(__first, __last, _Trivial_destructor());
; 135  : }

  00000	c3		 ret	 0
??$__destroy@PAHH@_STL@@YAXPAH00@Z ENDP			; _STL::__destroy<int *,int>
_TEXT	ENDS
PUBLIC	??$__copy_aux@PAGPAG@_STL@@YAPAGPAG00ABU__true_type@0@@Z ; _STL::__copy_aux<unsigned short *,unsigned short *>
; Function compile flags: /Ogty
; File c:\stlport-4.6.1\stlport\stl\_algobase.h
;	COMDAT ??$__copy_aux@PAGPAG@_STL@@YAPAGPAG00ABU__true_type@0@@Z
_TEXT	SEGMENT
___first$ = 8						; size = 4
___last$ = 12						; size = 4
___result$ = 16						; size = 4
___formal$ = 20						; size = 4
??$__copy_aux@PAGPAG@_STL@@YAPAGPAG00ABU__true_type@0@@Z PROC NEAR ; _STL::__copy_aux<unsigned short *,unsigned short *>, COMDAT

; 202  :   return __copy_ptrs(__first, __last, __result, 
; 203  :                      _IsOKToMemCpy(_STLP_VALUE_TYPE(__first, _InputIter), 
; 204  :                                    _STLP_VALUE_TYPE(__result, _OutputIter))._Ret());

  00000	8b 44 24 04	 mov	 eax, DWORD PTR ___first$[esp-4]
  00004	56		 push	 esi
  00005	8b 74 24 0c	 mov	 esi, DWORD PTR ___last$[esp]
  00009	3b f0		 cmp	 esi, eax
  0000b	75 06		 jne	 SHORT $L77610
  0000d	8b 44 24 10	 mov	 eax, DWORD PTR ___result$[esp]
  00011	5e		 pop	 esi

; 205  : }

  00012	c3		 ret	 0

; 202  :   return __copy_ptrs(__first, __last, __result, 
; 203  :                      _IsOKToMemCpy(_STLP_VALUE_TYPE(__first, _InputIter), 
; 204  :                                    _STLP_VALUE_TYPE(__result, _OutputIter))._Ret());

$L77610:
  00013	2b f0		 sub	 esi, eax
  00015	56		 push	 esi
  00016	50		 push	 eax
  00017	8b 44 24 18	 mov	 eax, DWORD PTR ___result$[esp+8]
  0001b	50		 push	 eax
  0001c	e8 00 00 00 00	 call	 _memmove
  00021	83 c4 0c	 add	 esp, 12			; 0000000cH
  00024	03 c6		 add	 eax, esi
  00026	5e		 pop	 esi

; 205  : }

  00027	c3		 ret	 0
??$__copy_aux@PAGPAG@_STL@@YAPAGPAG00ABU__true_type@0@@Z ENDP ; _STL::__copy_aux<unsigned short *,unsigned short *>
_TEXT	ENDS
PUBLIC	??$distance@PBG@_STL@@YAHABQBG0@Z		; _STL::distance<unsigned short const *>
; Function compile flags: /Ogty
; File c:\stlport-4.6.1\stlport\stl\_iterator_base.h
;	COMDAT ??$distance@PBG@_STL@@YAHABQBG0@Z
_TEXT	SEGMENT
___first$ = 8						; size = 4
___last$ = 12						; size = 4
??$distance@PBG@_STL@@YAHABQBG0@Z PROC NEAR		; _STL::distance<unsigned short const *>, COMDAT

; 369  :   return __distance(__first, __last, _STLP_ITERATOR_CATEGORY(__first, _InputIterator));  

  00000	8b 44 24 08	 mov	 eax, DWORD PTR ___last$[esp-4]
  00004	8b 4c 24 04	 mov	 ecx, DWORD PTR ___first$[esp-4]
  00008	8b 00		 mov	 eax, DWORD PTR [eax]
  0000a	2b 01		 sub	 eax, DWORD PTR [ecx]
  0000c	d1 f8		 sar	 eax, 1

; 370  : }

  0000e	c3		 ret	 0
??$distance@PBG@_STL@@YAHABQBG0@Z ENDP			; _STL::distance<unsigned short const *>
_TEXT	ENDS
PUBLIC	??$advance@PBGH@_STL@@YAXAAPBGH@Z		; _STL::advance<unsigned short const *,int>
; Function compile flags: /Ogty
;	COMDAT ??$advance@PBGH@_STL@@YAXAAPBGH@Z
_TEXT	SEGMENT
___i$ = 8						; size = 4
___n$ = 12						; size = 4
??$advance@PBGH@_STL@@YAXAAPBGH@Z PROC NEAR		; _STL::advance<unsigned short const *,int>, COMDAT

; 449  :   __advance(__i, __n, _STLP_ITERATOR_CATEGORY(__i, _InputIterator));

  00000	8b 44 24 08	 mov	 eax, DWORD PTR ___n$[esp-4]
  00004	8d 0c 00	 lea	 ecx, DWORD PTR [eax+eax]
  00007	8b 44 24 04	 mov	 eax, DWORD PTR ___i$[esp-4]
  0000b	01 08		 add	 DWORD PTR [eax], ecx

; 450  : }

  0000d	c3		 ret	 0
??$advance@PBGH@_STL@@YAXAAPBGH@Z ENDP			; _STL::advance<unsigned short const *,int>
_TEXT	ENDS
PUBLIC	??$distance@PAG@_STL@@YAHABQAG0@Z		; _STL::distance<unsigned short *>
; Function compile flags: /Ogty
;	COMDAT ??$distance@PAG@_STL@@YAHABQAG0@Z
_TEXT	SEGMENT
___first$ = 8						; size = 4
___last$ = 12						; size = 4
??$distance@PAG@_STL@@YAHABQAG0@Z PROC NEAR		; _STL::distance<unsigned short *>, COMDAT

; 369  :   return __distance(__first, __last, _STLP_ITERATOR_CATEGORY(__first, _InputIterator));  

  00000	8b 44 24 08	 mov	 eax, DWORD PTR ___last$[esp-4]
  00004	8b 4c 24 04	 mov	 ecx, DWORD PTR ___first$[esp-4]
  00008	8b 00		 mov	 eax, DWORD PTR [eax]
  0000a	2b 01		 sub	 eax, DWORD PTR [ecx]
  0000c	d1 f8		 sar	 eax, 1

; 370  : }

  0000e	c3		 ret	 0
??$distance@PAG@_STL@@YAHABQAG0@Z ENDP			; _STL::distance<unsigned short *>
_TEXT	ENDS
PUBLIC	??1?$_STLP_alloc_proxy@PAGGV?$allocator@G@_STL@@@_STL@@QAE@XZ ; _STL::_STLP_alloc_proxy<unsigned short *,unsigned short,_STL::allocator<unsigned short> >::~_STLP_alloc_proxy<unsigned short *,unsigned short,_STL::allocator<unsigned short> >
; Function compile flags: /Ogty
;	COMDAT ??1?$_STLP_alloc_proxy@PAGGV?$allocator@G@_STL@@@_STL@@QAE@XZ
_TEXT	SEGMENT
??1?$_STLP_alloc_proxy@PAGGV?$allocator@G@_STL@@@_STL@@QAE@XZ PROC NEAR ; _STL::_STLP_alloc_proxy<unsigned short *,unsigned short,_STL::allocator<unsigned short> >::~_STLP_alloc_proxy<unsigned short *,unsigned short,_STL::allocator<unsigned short> >, COMDAT
; _this$ = ecx
  00000	c3		 ret	 0
??1?$_STLP_alloc_proxy@PAGGV?$allocator@G@_STL@@@_STL@@QAE@XZ ENDP ; _STL::_STLP_alloc_proxy<unsigned short *,unsigned short,_STL::allocator<unsigned short> >::~_STLP_alloc_proxy<unsigned short *,unsigned short,_STL::allocator<unsigned short> >
_TEXT	ENDS
PUBLIC	?deallocate@?$allocator@G@_STL@@QAEXPAGI@Z	; _STL::allocator<unsigned short>::deallocate
; Function compile flags: /Ogty
; File c:\stlport-4.6.1\stlport\stl\_alloc.h
;	COMDAT ?deallocate@?$allocator@G@_STL@@QAEXPAGI@Z
_TEXT	SEGMENT
___p$ = 8						; size = 4
___n$ = 12						; size = 4
?deallocate@?$allocator@G@_STL@@QAEXPAGI@Z PROC NEAR	; _STL::allocator<unsigned short>::deallocate, COMDAT
; _this$ = ecx

; 359  :     _STLP_ASSERT( (__p == 0) == (__n == 0) )
; 360  :       if (__p != 0) __sgi_alloc::deallocate((void*)__p, __n * sizeof(value_type));

  00000	8b 4c 24 04	 mov	 ecx, DWORD PTR ___p$[esp-4]
  00004	85 c9		 test	 ecx, ecx
  00006	74 23		 je	 SHORT $L77649
  00008	8b 44 24 08	 mov	 eax, DWORD PTR ___n$[esp-4]
  0000c	03 c0		 add	 eax, eax
  0000e	3d 80 00 00 00	 cmp	 eax, 128		; 00000080H
  00013	76 0c		 jbe	 SHORT $L77648
  00015	51		 push	 ecx
  00016	e8 00 00 00 00	 call	 ??3@YAXPAX@Z		; operator delete
  0001b	83 c4 04	 add	 esp, 4

; 361  :   }

  0001e	c2 08 00	 ret	 8

; 359  :     _STLP_ASSERT( (__p == 0) == (__n == 0) )
; 360  :       if (__p != 0) __sgi_alloc::deallocate((void*)__p, __n * sizeof(value_type));

$L77648:
  00021	50		 push	 eax
  00022	51		 push	 ecx
  00023	e8 00 00 00 00	 call	 ?_M_deallocate@?$__node_alloc@$00$0A@@_STL@@CAXPAXI@Z ; _STL::__node_alloc<1,0>::_M_deallocate
  00028	83 c4 08	 add	 esp, 8
$L77649:

; 361  :   }

  0002b	c2 08 00	 ret	 8
?deallocate@?$allocator@G@_STL@@QAEXPAGI@Z ENDP		; _STL::allocator<unsigned short>::deallocate
_TEXT	ENDS
PUBLIC	?EraseCharacterFrontCursor@LineEditor@@QAE_NXZ	; LineEditor::EraseCharacterFrontCursor
; Function compile flags: /Ogty
; File c:\darkeden\designed_common\project\new - vs_ui\src\widget\u_edit.cpp
;	COMDAT ?EraseCharacterFrontCursor@LineEditor@@QAE_NXZ
_TEXT	SEGMENT
?EraseCharacterFrontCursor@LineEditor@@QAE_NXZ PROC NEAR ; LineEditor::EraseCharacterFrontCursor, COMDAT
; _this$ = ecx

; 200  : {

  00000	56		 push	 esi
  00001	8b f1		 mov	 esi, ecx

; 201  : 	if (m_cursor > 0)

  00003	8b 46 20	 mov	 eax, DWORD PTR [esi+32]
  00006	85 c0		 test	 eax, eax
  00008	7e 40		 jle	 SHORT $L75186

; 202  : 	{
; 203  : 		m_string.erase(m_cursor-1, 1);

  0000a	6a 01		 push	 1
  0000c	48		 dec	 eax
  0000d	50		 push	 eax
  0000e	8d 4e 04	 lea	 ecx, DWORD PTR [esi+4]
  00011	e8 00 00 00 00	 call	 ?erase@?$basic_string@GV?$char_traits@G@_STL@@V?$allocator@G@2@@_STL@@QAEAAV12@II@Z ; _STL::basic_string<unsigned short,_STL::char_traits<unsigned short>,_STL::allocator<unsigned short> >::erase

; 204  : 		DecreaseCursor();

  00016	8b 46 20	 mov	 eax, DWORD PTR [esi+32]
  00019	85 c0		 test	 eax, eax
  0001b	7e 0f		 jle	 SHORT $L77663
  0001d	8b 4e 1c	 mov	 ecx, DWORD PTR [esi+28]
  00020	48		 dec	 eax
  00021	3b c1		 cmp	 eax, ecx
  00023	89 46 20	 mov	 DWORD PTR [esi+32], eax
  00026	7d 04		 jge	 SHORT $L77663
  00028	49		 dec	 ecx
  00029	89 4e 1c	 mov	 DWORD PTR [esi+28], ecx
$L77663:

; 205  : 		if(m_scroll > 0 && !ReachEndOfBox(-1))m_scroll--;

  0002c	8b 46 1c	 mov	 eax, DWORD PTR [esi+28]
  0002f	85 c0		 test	 eax, eax
  00031	7e 13		 jle	 SHORT $L75187
  00033	8b 06		 mov	 eax, DWORD PTR [esi]
  00035	68 ff ff 00 00	 push	 65535			; 0000ffffH
  0003a	8b ce		 mov	 ecx, esi
  0003c	ff 50 04	 call	 DWORD PTR [eax+4]
  0003f	84 c0		 test	 al, al
  00041	75 03		 jne	 SHORT $L75187
  00043	ff 4e 1c	 dec	 DWORD PTR [esi+28]
$L75187:

; 206  : 		return true;

  00046	b0 01		 mov	 al, 1
  00048	5e		 pop	 esi

; 210  : }

  00049	c3		 ret	 0
$L75186:

; 207  : 	}
; 208  : 
; 209  : 	return false;

  0004a	32 c0		 xor	 al, al
  0004c	5e		 pop	 esi

; 210  : }

  0004d	c3		 ret	 0
?EraseCharacterFrontCursor@LineEditor@@QAE_NXZ ENDP	; LineEditor::EraseCharacterFrontCursor
_TEXT	ENDS
PUBLIC	?EraseCharacterBegin@LineEditor@@QAE_NXZ	; LineEditor::EraseCharacterBegin
; Function compile flags: /Ogty
;	COMDAT ?EraseCharacterBegin@LineEditor@@QAE_NXZ
_TEXT	SEGMENT
?EraseCharacterBegin@LineEditor@@QAE_NXZ PROC NEAR	; LineEditor::EraseCharacterBegin, COMDAT
; _this$ = ecx

; 213  : {

  00000	56		 push	 esi
  00001	8b f1		 mov	 esi, ecx

; 214  : 	if(m_string.size() > 0)

  00003	8b 46 08	 mov	 eax, DWORD PTR [esi+8]
  00006	8b 56 04	 mov	 edx, DWORD PTR [esi+4]
  00009	8d 4e 04	 lea	 ecx, DWORD PTR [esi+4]
  0000c	2b c2		 sub	 eax, edx
  0000e	d1 f8		 sar	 eax, 1
  00010	85 c0		 test	 eax, eax
  00012	76 3d		 jbe	 SHORT $L75191

; 215  : 	{
; 216  : 		m_string.erase(0, 1);

  00014	6a 01		 push	 1
  00016	6a 00		 push	 0
  00018	e8 00 00 00 00	 call	 ?erase@?$basic_string@GV?$char_traits@G@_STL@@V?$allocator@G@2@@_STL@@QAEAAV12@II@Z ; _STL::basic_string<unsigned short,_STL::char_traits<unsigned short>,_STL::allocator<unsigned short> >::erase

; 217  : 		DecreaseCursor();

  0001d	8b 46 20	 mov	 eax, DWORD PTR [esi+32]
  00020	85 c0		 test	 eax, eax
  00022	7e 0f		 jle	 SHORT $L77682
  00024	8b 4e 1c	 mov	 ecx, DWORD PTR [esi+28]
  00027	48		 dec	 eax
  00028	3b c1		 cmp	 eax, ecx
  0002a	89 46 20	 mov	 DWORD PTR [esi+32], eax
  0002d	7d 04		 jge	 SHORT $L77682
  0002f	49		 dec	 ecx
  00030	89 4e 1c	 mov	 DWORD PTR [esi+28], ecx
$L77682:

; 218  : 		if(m_scroll > 0 && !ReachEndOfBox(-1))m_scroll--;

  00033	8b 46 1c	 mov	 eax, DWORD PTR [esi+28]
  00036	85 c0		 test	 eax, eax
  00038	7e 13		 jle	 SHORT $L75192
  0003a	8b 16		 mov	 edx, DWORD PTR [esi]
  0003c	68 ff ff 00 00	 push	 65535			; 0000ffffH
  00041	8b ce		 mov	 ecx, esi
  00043	ff 52 04	 call	 DWORD PTR [edx+4]
  00046	84 c0		 test	 al, al
  00048	75 03		 jne	 SHORT $L75192
  0004a	ff 4e 1c	 dec	 DWORD PTR [esi+28]
$L75192:

; 219  : 		return true;

  0004d	b0 01		 mov	 al, 1
  0004f	5e		 pop	 esi

; 223  : }

  00050	c3		 ret	 0
$L75191:

; 220  : 	}
; 221  : 
; 222  : 	return false;

  00051	32 c0		 xor	 al, al
  00053	5e		 pop	 esi

; 223  : }

  00054	c3		 ret	 0
?EraseCharacterBegin@LineEditor@@QAE_NXZ ENDP		; LineEditor::EraseCharacterBegin
_TEXT	ENDS
PUBLIC	?EraseAll@LineEditor@@QAEXXZ			; LineEditor::EraseAll
; Function compile flags: /Ogty
;	COMDAT ?EraseAll@LineEditor@@QAEXXZ
_TEXT	SEGMENT
?EraseAll@LineEditor@@QAEXXZ PROC NEAR			; LineEditor::EraseAll, COMDAT
; _this$ = ecx

; 233  : 	m_cursor = 0;

  00000	33 c0		 xor	 eax, eax

; 234  : 	m_scroll = 0;
; 235  : 	m_string.erase(); 

  00002	6a ff		 push	 -1
  00004	89 41 20	 mov	 DWORD PTR [ecx+32], eax
  00007	89 41 1c	 mov	 DWORD PTR [ecx+28], eax
  0000a	50		 push	 eax
  0000b	83 c1 04	 add	 ecx, 4
  0000e	e8 00 00 00 00	 call	 ?erase@?$basic_string@GV?$char_traits@G@_STL@@V?$allocator@G@2@@_STL@@QAEAAV12@II@Z ; _STL::basic_string<unsigned short,_STL::char_traits<unsigned short>,_STL::allocator<unsigned short> >::erase

; 236  : }

  00013	c3		 ret	 0
?EraseAll@LineEditor@@QAEXXZ ENDP			; LineEditor::EraseAll
_TEXT	ENDS
PUBLIC	?EditToCursorPositionForIME@LineEditor@@QAEXG@Z	; LineEditor::EditToCursorPositionForIME
PUBLIC	??_C@_0EE@EDJMHLAP@?2darkeden?2Designed_Common?2Projec@ ; `string'
EXTRN	?g_BasicException@@YAXW4EXCEPTION_CODE@@PAD1K@Z:NEAR ; g_BasicException
;	COMDAT ??_C@_0EE@EDJMHLAP@?2darkeden?2Designed_Common?2Projec@
; File c:\stlport-4.6.1\stlport\stl\_string.h
CONST	SEGMENT
??_C@_0EE@EDJMHLAP@?2darkeden?2Designed_Common?2Projec@ DB '\darkeden\Des'
	DB	'igned_Common\Project\New - vs_ui\src\widget\U_edit.cpp', 00H ; `string'
; Function compile flags: /Ogty
; File c:\darkeden\designed_common\project\new - vs_ui\src\widget\u_edit.cpp
CONST	ENDS
;	COMDAT ?EditToCursorPositionForIME@LineEditor@@QAEXG@Z
_TEXT	SEGMENT
_a_char$ = 8						; size = 2
?EditToCursorPositionForIME@LineEditor@@QAEXG@Z PROC NEAR ; LineEditor::EditToCursorPositionForIME, COMDAT
; _this$ = ecx

; 666  : {

  00000	56		 push	 esi
  00001	8b f1		 mov	 esi, ecx

; 667  : 	if (m_cursor == 0  || m_cursor > m_string.size())

  00003	8b 46 20	 mov	 eax, DWORD PTR [esi+32]
  00006	85 c0		 test	 eax, eax
  00008	74 0c		 je	 SHORT $L75347
  0000a	8b 4e 08	 mov	 ecx, DWORD PTR [esi+8]
  0000d	2b 4e 04	 sub	 ecx, DWORD PTR [esi+4]
  00010	d1 f9		 sar	 ecx, 1
  00012	3b c1		 cmp	 eax, ecx
  00014	76 16		 jbe	 SHORT $L75346
$L75347:

; 668  : 		_Error(FAILED_JOB);

  00016	68 9c 02 00 00	 push	 668			; 0000029cH
  0001b	68 00 00 00 00	 push	 OFFSET FLAT:??_C@_0EE@EDJMHLAP@?2darkeden?2Designed_Common?2Projec@
  00020	6a 00		 push	 0
  00022	6a 04		 push	 4
  00024	e8 00 00 00 00	 call	 ?g_BasicException@@YAXW4EXCEPTION_CODE@@PAD1K@Z ; g_BasicException
  00029	83 c4 10	 add	 esp, 16			; 00000010H
$L75346:

; 669  : 
; 670  : 	m_string[m_cursor-1] = a_char;

  0002c	66 8b 44 24 08	 mov	 ax, WORD PTR _a_char$[esp]

; 671  : 
; 672  : 	// back space 마지막 동작에서 실제로 지우기.
; 673  : 	if (a_char == 0)

  00031	66 85 c0	 test	 ax, ax
  00034	8b 56 20	 mov	 edx, DWORD PTR [esi+32]
  00037	8b 4e 04	 mov	 ecx, DWORD PTR [esi+4]
  0003a	66 89 44 51 fe	 mov	 WORD PTR [ecx+edx*2-2], ax
  0003f	75 07		 jne	 SHORT $L75348

; 674  : 		EraseCharacterFrontCursor();

  00041	8b ce		 mov	 ecx, esi
  00043	e8 00 00 00 00	 call	 ?EraseCharacterFrontCursor@LineEditor@@QAE_NXZ ; LineEditor::EraseCharacterFrontCursor
$L75348:
  00048	5e		 pop	 esi

; 675  : }

  00049	c2 04 00	 ret	 4
?EditToCursorPositionForIME@LineEditor@@QAEXG@Z ENDP	; LineEditor::EditToCursorPositionForIME
_TEXT	ENDS
PUBLIC	?IME_Composition@CI_KOREAN@@UAEXXZ		; CI_KOREAN::IME_Composition
; Function compile flags: /Ogty
;	COMDAT ?IME_Composition@CI_KOREAN@@UAEXXZ
_TEXT	SEGMENT
?IME_Composition@CI_KOREAN@@UAEXXZ PROC NEAR		; CI_KOREAN::IME_Composition, COMDAT
; _this$ = ecx

; 721  : 	if (gpC_focused_line_editor != NULL && gpC_focused_line_editor->GetDigitOnlyMode() == false)

  00000	8b 0d 00 00 00
	00		 mov	 ecx, DWORD PTR _gpC_focused_line_editor
  00006	85 c9		 test	 ecx, ecx
  00008	74 27		 je	 SHORT $L75365
  0000a	8a 41 2c	 mov	 al, BYTE PTR [ecx+44]
  0000d	84 c0		 test	 al, al
  0000f	75 20		 jne	 SHORT $L75365

; 722  : 	{
; 723  : 		if (gC_ci->ImeRunning() == true)

  00011	a1 00 00 00 00	 mov	 eax, DWORD PTR ?gC_ci@@3PAVCI@@A ; gC_ci
  00016	80 78 06 01	 cmp	 BYTE PTR [eax+6], 1
  0001a	75 15		 jne	 SHORT $L75365

; 724  : 		{
; 725  : 			gpC_focused_line_editor->EditToCursorPositionForIME(gC_ci->GetComposingChar());

  0001c	0f b7 40 0a	 movzx	 eax, WORD PTR [eax+10]
  00020	50		 push	 eax
  00021	e8 00 00 00 00	 call	 ?EditToCursorPositionForIME@LineEditor@@QAEXG@Z ; LineEditor::EditToCursorPositionForIME

; 726  : 			gC_ci->ForceShowCursor();

  00026	8b 0d 00 00 00
	00		 mov	 ecx, DWORD PTR ?gC_ci@@3PAVCI@@A ; gC_ci
  0002c	e9 00 00 00 00	 jmp	 ?ForceShowCursor@CI@@QBEXXZ ; CI::ForceShowCursor
$L75365:

; 727  : 		}
; 728  : 	}
; 729  : }

  00031	c3		 ret	 0
?IME_Composition@CI_KOREAN@@UAEXXZ ENDP			; CI_KOREAN::IME_Composition
_TEXT	ENDS
PUBLIC	??0?$_Vector_base@HV?$allocator@H@_STL@@@_STL@@QAE@ABV?$allocator@H@1@@Z ; _STL::_Vector_base<int,_STL::allocator<int> >::_Vector_base<int,_STL::allocator<int> >
; Function compile flags: /Ogty
; File c:\stlport-4.6.1\stlport\stl\_vector.h
;	COMDAT ??0?$_Vector_base@HV?$allocator@H@_STL@@@_STL@@QAE@ABV?$allocator@H@1@@Z
_TEXT	SEGMENT
___a$ = 8						; size = 4
??0?$_Vector_base@HV?$allocator@H@_STL@@@_STL@@QAE@ABV?$allocator@H@1@@Z PROC NEAR ; _STL::_Vector_base<int,_STL::allocator<int> >::_Vector_base<int,_STL::allocator<int> >, COMDAT
; _this$ = ecx

; 72   :     : _M_start(0), _M_finish(0), _M_end_of_storage(__a, 0) {

  00000	8b 44 24 04	 mov	 eax, DWORD PTR ___a$[esp-4]
  00004	56		 push	 esi
  00005	8b f1		 mov	 esi, ecx
  00007	6a 00		 push	 0
  00009	50		 push	 eax
  0000a	8d 4e 08	 lea	 ecx, DWORD PTR [esi+8]
  0000d	c7 06 00 00 00
	00		 mov	 DWORD PTR [esi], 0
  00013	c7 46 04 00 00
	00 00		 mov	 DWORD PTR [esi+4], 0
  0001a	e8 00 00 00 00	 call	 ??0?$_STLP_alloc_proxy@PAHHV?$allocator@H@_STL@@@_STL@@QAE@ABV?$allocator@H@1@PAH@Z ; _STL::_STLP_alloc_proxy<int *,int,_STL::allocator<int> >::_STLP_alloc_proxy<int *,int,_STL::allocator<int> >

; 73   :   }

  0001f	8b c6		 mov	 eax, esi
  00021	5e		 pop	 esi
  00022	c2 04 00	 ret	 4
??0?$_Vector_base@HV?$allocator@H@_STL@@@_STL@@QAE@ABV?$allocator@H@1@@Z ENDP ; _STL::_Vector_base<int,_STL::allocator<int> >::_Vector_base<int,_STL::allocator<int> >
_TEXT	ENDS
PUBLIC	??1?$_Vector_base@HV?$allocator@H@_STL@@@_STL@@QAE@XZ ; _STL::_Vector_base<int,_STL::allocator<int> >::~_Vector_base<int,_STL::allocator<int> >
; Function compile flags: /Ogty
;	COMDAT ??1?$_Vector_base@HV?$allocator@H@_STL@@@_STL@@QAE@XZ
_TEXT	SEGMENT
??1?$_Vector_base@HV?$allocator@H@_STL@@@_STL@@QAE@XZ PROC NEAR ; _STL::_Vector_base<int,_STL::allocator<int> >::~_Vector_base<int,_STL::allocator<int> >, COMDAT
; _this$ = ecx

; 84   :     if (_M_start !=0) 

  00000	8b 11		 mov	 edx, DWORD PTR [ecx]
  00002	85 d2		 test	 edx, edx
  00004	74 26		 je	 SHORT $L77739

; 85   :     _M_end_of_storage.deallocate(_M_start, _M_end_of_storage._M_data - _M_start); 

  00006	8b 41 08	 mov	 eax, DWORD PTR [ecx+8]
  00009	2b c2		 sub	 eax, edx
  0000b	c1 f8 02	 sar	 eax, 2
  0000e	c1 e0 02	 shl	 eax, 2
  00011	3d 80 00 00 00	 cmp	 eax, 128		; 00000080H
  00016	76 0a		 jbe	 SHORT $L77738
  00018	52		 push	 edx
  00019	e8 00 00 00 00	 call	 ??3@YAXPAX@Z		; operator delete
  0001e	83 c4 04	 add	 esp, 4

; 86   :   }

  00021	c3		 ret	 0

; 85   :     _M_end_of_storage.deallocate(_M_start, _M_end_of_storage._M_data - _M_start); 

$L77738:
  00022	50		 push	 eax
  00023	52		 push	 edx
  00024	e8 00 00 00 00	 call	 ?_M_deallocate@?$__node_alloc@$00$0A@@_STL@@CAXPAXI@Z ; _STL::__node_alloc<1,0>::_M_deallocate
  00029	83 c4 08	 add	 esp, 8
$L77739:

; 86   :   }

  0002c	c3		 ret	 0
??1?$_Vector_base@HV?$allocator@H@_STL@@@_STL@@QAE@XZ ENDP ; _STL::_Vector_base<int,_STL::allocator<int> >::~_Vector_base<int,_STL::allocator<int> >
_TEXT	ENDS
PUBLIC	??$_Destroy@PAH@_STL@@YAXPAH0@Z			; _STL::_Destroy<int *>
; Function compile flags: /Ogty
; File c:\stlport-4.6.1\stlport\stl\_construct.h
;	COMDAT ??$_Destroy@PAH@_STL@@YAXPAH0@Z
_TEXT	SEGMENT
___first$ = 8						; size = 4
___last$ = 12						; size = 4
??$_Destroy@PAH@_STL@@YAXPAH0@Z PROC NEAR		; _STL::_Destroy<int *>, COMDAT

; 139  :   __destroy(__first, __last, _STLP_VALUE_TYPE(__first, _ForwardIterator));
; 140  : }

  00000	c3		 ret	 0
??$_Destroy@PAH@_STL@@YAXPAH0@Z ENDP			; _STL::_Destroy<int *>
_TEXT	ENDS
PUBLIC	??0?$_String_base@GV?$allocator@G@_STL@@@_STL@@QAE@ABV?$allocator@G@1@@Z ; _STL::_String_base<unsigned short,_STL::allocator<unsigned short> >::_String_base<unsigned short,_STL::allocator<unsigned short> >
; Function compile flags: /Ogty
; File c:\stlport-4.6.1\stlport\stl\_string.h
;	COMDAT ??0?$_String_base@GV?$allocator@G@_STL@@@_STL@@QAE@ABV?$allocator@G@1@@Z
_TEXT	SEGMENT
___a$ = 8						; size = 4
??0?$_String_base@GV?$allocator@G@_STL@@@_STL@@QAE@ABV?$allocator@G@1@@Z PROC NEAR ; _STL::_String_base<unsigned short,_STL::allocator<unsigned short> >::_String_base<unsigned short,_STL::allocator<unsigned short> >, COMDAT
; _this$ = ecx

; 129  :     : _M_start(0), _M_finish(0), _M_end_of_storage(__a, (_Tp*)0) {}

  00000	8b 44 24 04	 mov	 eax, DWORD PTR ___a$[esp-4]
  00004	56		 push	 esi
  00005	8b f1		 mov	 esi, ecx
  00007	6a 00		 push	 0
  00009	50		 push	 eax
  0000a	8d 4e 08	 lea	 ecx, DWORD PTR [esi+8]
  0000d	c7 06 00 00 00
	00		 mov	 DWORD PTR [esi], 0
  00013	c7 46 04 00 00
	00 00		 mov	 DWORD PTR [esi+4], 0
  0001a	e8 00 00 00 00	 call	 ??0?$_STLP_alloc_proxy@PAGGV?$allocator@G@_STL@@@_STL@@QAE@ABV?$allocator@G@1@PAG@Z ; _STL::_STLP_alloc_proxy<unsigned short *,unsigned short,_STL::allocator<unsigned short> >::_STLP_alloc_proxy<unsigned short *,unsigned short,_STL::allocator<unsigned short> >
  0001f	8b c6		 mov	 eax, esi
  00021	5e		 pop	 esi
  00022	c2 04 00	 ret	 4
??0?$_String_base@GV?$allocator@G@_STL@@@_STL@@QAE@ABV?$allocator@G@1@@Z ENDP ; _STL::_String_base<unsigned short,_STL::allocator<unsigned short> >::_String_base<unsigned short,_STL::allocator<unsigned short> >
_TEXT	ENDS
PUBLIC	??$__uninitialized_copy@PAGPAG@_STL@@YAPAGPAG00ABU__true_type@0@@Z ; _STL::__uninitialized_copy<unsigned short *,unsigned short *>
; Function compile flags: /Ogty
; File c:\stlport-4.6.1\stlport\stl\_uninitialized.h
;	COMDAT ??$__uninitialized_copy@PAGPAG@_STL@@YAPAGPAG00ABU__true_type@0@@Z
_TEXT	SEGMENT
___first$ = 8						; size = 4
___last$ = 12						; size = 4
___result$ = 16						; size = 4
___formal$ = 20						; size = 4
??$__uninitialized_copy@PAGPAG@_STL@@YAPAGPAG00ABU__true_type@0@@Z PROC NEAR ; _STL::__uninitialized_copy<unsigned short *,unsigned short *>, COMDAT

; 55   :   return __copy_aux(__first, __last, __result, _BothPtrType< _InputIter, _ForwardIter> :: _Ret());

  00000	8b 44 24 04	 mov	 eax, DWORD PTR ___first$[esp-4]
  00004	56		 push	 esi
  00005	8b 74 24 0c	 mov	 esi, DWORD PTR ___last$[esp]
  00009	3b f0		 cmp	 esi, eax
  0000b	75 06		 jne	 SHORT $L77801
  0000d	8b 44 24 10	 mov	 eax, DWORD PTR ___result$[esp]
  00011	5e		 pop	 esi

; 56   : }

  00012	c3		 ret	 0

; 55   :   return __copy_aux(__first, __last, __result, _BothPtrType< _InputIter, _ForwardIter> :: _Ret());

$L77801:
  00013	2b f0		 sub	 esi, eax
  00015	56		 push	 esi
  00016	50		 push	 eax
  00017	8b 44 24 18	 mov	 eax, DWORD PTR ___result$[esp+8]
  0001b	50		 push	 eax
  0001c	e8 00 00 00 00	 call	 _memmove
  00021	83 c4 0c	 add	 esp, 12			; 0000000cH
  00024	03 c6		 add	 eax, esi
  00026	5e		 pop	 esi

; 56   : }

  00027	c3		 ret	 0
??$__uninitialized_copy@PAGPAG@_STL@@YAPAGPAG00ABU__true_type@0@@Z ENDP ; _STL::__uninitialized_copy<unsigned short *,unsigned short *>
_TEXT	ENDS
PUBLIC	?_M_deallocate_block@?$_String_base@GV?$allocator@G@_STL@@@_STL@@QAEXXZ ; _STL::_String_base<unsigned short,_STL::allocator<unsigned short> >::_M_deallocate_block
; Function compile flags: /Ogty
; File c:\stlport-4.6.1\stlport\stl\_string.h
;	COMDAT ?_M_deallocate_block@?$_String_base@GV?$allocator@G@_STL@@@_STL@@QAEXXZ
_TEXT	SEGMENT
?_M_deallocate_block@?$_String_base@GV?$allocator@G@_STL@@@_STL@@QAEXXZ PROC NEAR ; _STL::_String_base<unsigned short,_STL::allocator<unsigned short> >::_M_deallocate_block, COMDAT
; _this$ = ecx

; 124  :     { _M_end_of_storage.deallocate(_M_start, _M_end_of_storage._M_data - _M_start); }

  00000	8b 11		 mov	 edx, DWORD PTR [ecx]
  00002	85 d2		 test	 edx, edx
  00004	74 24		 je	 SHORT $L77823
  00006	8b 41 08	 mov	 eax, DWORD PTR [ecx+8]
  00009	2b c2		 sub	 eax, edx
  0000b	d1 f8		 sar	 eax, 1
  0000d	d1 e0		 shl	 eax, 1
  0000f	3d 80 00 00 00	 cmp	 eax, 128		; 00000080H
  00014	76 0a		 jbe	 SHORT $L77822
  00016	52		 push	 edx
  00017	e8 00 00 00 00	 call	 ??3@YAXPAX@Z		; operator delete
  0001c	83 c4 04	 add	 esp, 4
  0001f	c3		 ret	 0
$L77822:
  00020	50		 push	 eax
  00021	52		 push	 edx
  00022	e8 00 00 00 00	 call	 ?_M_deallocate@?$__node_alloc@$00$0A@@_STL@@CAXPAXI@Z ; _STL::__node_alloc<1,0>::_M_deallocate
  00027	83 c4 08	 add	 esp, 8
$L77823:
  0002a	c3		 ret	 0
?_M_deallocate_block@?$_String_base@GV?$allocator@G@_STL@@@_STL@@QAEXXZ ENDP ; _STL::_String_base<unsigned short,_STL::allocator<unsigned short> >::_M_deallocate_block
_TEXT	ENDS
PUBLIC	??0?$vector@HV?$allocator@H@_STL@@@_STL@@QAE@ABV?$allocator@H@1@@Z ; _STL::vector<int,_STL::allocator<int> >::vector<int,_STL::allocator<int> >
; Function compile flags: /Ogty
; File c:\stlport-4.6.1\stlport\stl\_vector.h
;	COMDAT ??0?$vector@HV?$allocator@H@_STL@@@_STL@@QAE@ABV?$allocator@H@1@@Z
_TEXT	SEGMENT
___a$ = 8						; size = 4
??0?$vector@HV?$allocator@H@_STL@@@_STL@@QAE@ABV?$allocator@H@1@@Z PROC NEAR ; _STL::vector<int,_STL::allocator<int> >::vector<int,_STL::allocator<int> >, COMDAT
; _this$ = ecx

; 199  :     _Vector_base<_Tp, _Alloc>(__a) {}

  00000	8b c1		 mov	 eax, ecx
  00002	33 c9		 xor	 ecx, ecx
  00004	89 08		 mov	 DWORD PTR [eax], ecx
  00006	89 48 04	 mov	 DWORD PTR [eax+4], ecx
  00009	89 48 08	 mov	 DWORD PTR [eax+8], ecx
  0000c	c2 04 00	 ret	 4
??0?$vector@HV?$allocator@H@_STL@@@_STL@@QAE@ABV?$allocator@H@1@@Z ENDP ; _STL::vector<int,_STL::allocator<int> >::vector<int,_STL::allocator<int> >
_TEXT	ENDS
PUBLIC	??1?$vector@HV?$allocator@H@_STL@@@_STL@@QAE@XZ	; _STL::vector<int,_STL::allocator<int> >::~vector<int,_STL::allocator<int> >
; Function compile flags: /Ogty
;	COMDAT ??1?$vector@HV?$allocator@H@_STL@@@_STL@@QAE@XZ
_TEXT	SEGMENT
??1?$vector@HV?$allocator@H@_STL@@@_STL@@QAE@XZ PROC NEAR ; _STL::vector<int,_STL::allocator<int> >::~vector<int,_STL::allocator<int> >, COMDAT
; _this$ = ecx

; 258  :   ~vector() { _Destroy(this->_M_start, this->_M_finish); }

  00000	8b 11		 mov	 edx, DWORD PTR [ecx]
  00002	85 d2		 test	 edx, edx
  00004	74 26		 je	 SHORT $L77877
  00006	8b 41 08	 mov	 eax, DWORD PTR [ecx+8]
  00009	2b c2		 sub	 eax, edx
  0000b	c1 f8 02	 sar	 eax, 2
  0000e	c1 e0 02	 shl	 eax, 2
  00011	3d 80 00 00 00	 cmp	 eax, 128		; 00000080H
  00016	76 0a		 jbe	 SHORT $L77876
  00018	52		 push	 edx
  00019	e8 00 00 00 00	 call	 ??3@YAXPAX@Z		; operator delete
  0001e	83 c4 04	 add	 esp, 4
  00021	c3		 ret	 0
$L77876:
  00022	50		 push	 eax
  00023	52		 push	 edx
  00024	e8 00 00 00 00	 call	 ?_M_deallocate@?$__node_alloc@$00$0A@@_STL@@CAXPAXI@Z ; _STL::__node_alloc<1,0>::_M_deallocate
  00029	83 c4 08	 add	 esp, 8
$L77877:
  0002c	c3		 ret	 0
??1?$vector@HV?$allocator@H@_STL@@@_STL@@QAE@XZ ENDP	; _STL::vector<int,_STL::allocator<int> >::~vector<int,_STL::allocator<int> >
_TEXT	ENDS
PUBLIC	?_M_clear@?$vector@HV?$allocator@H@_STL@@@_STL@@IAEXXZ ; _STL::vector<int,_STL::allocator<int> >::_M_clear
; Function compile flags: /Ogty
;	COMDAT ?_M_clear@?$vector@HV?$allocator@H@_STL@@@_STL@@IAEXXZ
_TEXT	SEGMENT
?_M_clear@?$vector@HV?$allocator@H@_STL@@@_STL@@IAEXXZ PROC NEAR ; _STL::vector<int,_STL::allocator<int> >::_M_clear, COMDAT
; _this$ = ecx

; 494  :     //    if (this->_M_start) {
; 495  :     _Destroy(this->_M_start, this->_M_finish);
; 496  :     this->_M_end_of_storage.deallocate(this->_M_start, this->_M_end_of_storage._M_data - this->_M_start);

  00000	8b 11		 mov	 edx, DWORD PTR [ecx]
  00002	85 d2		 test	 edx, edx
  00004	74 26		 je	 SHORT $L77903
  00006	8b 41 08	 mov	 eax, DWORD PTR [ecx+8]
  00009	2b c2		 sub	 eax, edx
  0000b	c1 f8 02	 sar	 eax, 2
  0000e	c1 e0 02	 shl	 eax, 2
  00011	3d 80 00 00 00	 cmp	 eax, 128		; 00000080H
  00016	76 0a		 jbe	 SHORT $L77902
  00018	52		 push	 edx
  00019	e8 00 00 00 00	 call	 ??3@YAXPAX@Z		; operator delete
  0001e	83 c4 04	 add	 esp, 4

; 497  :     //    }
; 498  :   }

  00021	c3		 ret	 0

; 494  :     //    if (this->_M_start) {
; 495  :     _Destroy(this->_M_start, this->_M_finish);
; 496  :     this->_M_end_of_storage.deallocate(this->_M_start, this->_M_end_of_storage._M_data - this->_M_start);

$L77902:
  00022	50		 push	 eax
  00023	52		 push	 edx
  00024	e8 00 00 00 00	 call	 ?_M_deallocate@?$__node_alloc@$00$0A@@_STL@@CAXPAXI@Z ; _STL::__node_alloc<1,0>::_M_deallocate
  00029	83 c4 08	 add	 esp, 8
$L77903:

; 497  :     //    }
; 498  :   }

  0002c	c3		 ret	 0
?_M_clear@?$vector@HV?$allocator@H@_STL@@@_STL@@IAEXXZ ENDP ; _STL::vector<int,_STL::allocator<int> >::_M_clear
_TEXT	ENDS
PUBLIC	??$uninitialized_copy@PAGPAG@_STL@@YAPAGPAG00@Z	; _STL::uninitialized_copy<unsigned short *,unsigned short *>
; Function compile flags: /Ogty
; File c:\stlport-4.6.1\stlport\stl\_uninitialized.h
;	COMDAT ??$uninitialized_copy@PAGPAG@_STL@@YAPAGPAG00@Z
_TEXT	SEGMENT
___first$ = 8						; size = 4
___last$ = 12						; size = 4
___result$ = 16						; size = 4
??$uninitialized_copy@PAGPAG@_STL@@YAPAGPAG00@Z PROC NEAR ; _STL::uninitialized_copy<unsigned short *,unsigned short *>, COMDAT

; 79   :   return __uninitialized_copy(__first, __last, __result,  _IS_POD_ITER(__result, _ForwardIter));

  00000	8b 44 24 04	 mov	 eax, DWORD PTR ___first$[esp-4]
  00004	56		 push	 esi
  00005	8b 74 24 0c	 mov	 esi, DWORD PTR ___last$[esp]
  00009	3b f0		 cmp	 esi, eax
  0000b	75 06		 jne	 SHORT $L77979
  0000d	8b 44 24 10	 mov	 eax, DWORD PTR ___result$[esp]
  00011	5e		 pop	 esi

; 80   : }

  00012	c3		 ret	 0

; 79   :   return __uninitialized_copy(__first, __last, __result,  _IS_POD_ITER(__result, _ForwardIter));

$L77979:
  00013	2b f0		 sub	 esi, eax
  00015	56		 push	 esi
  00016	50		 push	 eax
  00017	8b 44 24 18	 mov	 eax, DWORD PTR ___result$[esp+8]
  0001b	50		 push	 eax
  0001c	e8 00 00 00 00	 call	 _memmove
  00021	83 c4 0c	 add	 esp, 12			; 0000000cH
  00024	03 c6		 add	 eax, esi
  00026	5e		 pop	 esi

; 80   : }

  00027	c3		 ret	 0
??$uninitialized_copy@PAGPAG@_STL@@YAPAGPAG00@Z ENDP	; _STL::uninitialized_copy<unsigned short *,unsigned short *>
_TEXT	ENDS
PUBLIC	??$insert@PBG@?$basic_string@GV?$char_traits@G@_STL@@V?$allocator@G@2@@_STL@@AAEXPAGPBG1ABUforward_iterator_tag@1@@Z ; _STL::basic_string<unsigned short,_STL::char_traits<unsigned short>,_STL::allocator<unsigned short> >::insert<unsigned short const *>
EXTRN	__CxxThrowException@8:NEAR
; Function compile flags: /Ogty
; File c:\stlport-4.6.1\stlport\stl\_string.h
;	COMDAT ??$insert@PBG@?$basic_string@GV?$char_traits@G@_STL@@V?$allocator@G@2@@_STL@@AAEXPAGPBG1ABUforward_iterator_tag@1@@Z
_TEXT	SEGMENT
___mid$76567 = -8					; size = 4
tv544 = -4						; size = 4
___len$76584 = -4					; size = 4
___old_size$76583 = -4					; size = 4
___position$ = 8					; size = 4
___first$ = 12						; size = 4
___new_start$76587 = 16					; size = 4
$T77988 = 16						; size = 4
___last$ = 16						; size = 4
___formal$ = 20						; size = 4
??$insert@PBG@?$basic_string@GV?$char_traits@G@_STL@@V?$allocator@G@2@@_STL@@AAEXPAGPBG1ABUforward_iterator_tag@1@@Z PROC NEAR ; _STL::basic_string<unsigned short,_STL::char_traits<unsigned short>,_STL::allocator<unsigned short> >::insert<unsigned short const *>, COMDAT
; _this$ = ecx

; 758  : 	      const forward_iterator_tag &)  {
; 759  :     if (__first != __last) {

  00000	8b 54 24 08	 mov	 edx, DWORD PTR ___first$[esp-4]
  00004	83 ec 08	 sub	 esp, 8
  00007	55		 push	 ebp
  00008	8b 6c 24 18	 mov	 ebp, DWORD PTR ___last$[esp+8]
  0000c	3b d5		 cmp	 edx, ebp
  0000e	56		 push	 esi
  0000f	8b f1		 mov	 esi, ecx
  00011	0f 84 0f 02 00
	00		 je	 $L76582

; 760  :       difference_type __n = distance(__first, __last);
; 761  :       if (this->_M_end_of_storage._M_data - this->_M_finish >= __n + 1) {

  00017	8b 46 04	 mov	 eax, DWORD PTR [esi+4]
  0001a	8b 4e 08	 mov	 ecx, DWORD PTR [esi+8]
  0001d	53		 push	 ebx
  0001e	2b ea		 sub	 ebp, edx
  00020	57		 push	 edi
  00021	8b fd		 mov	 edi, ebp
  00023	d1 ff		 sar	 edi, 1
  00025	2b c8		 sub	 ecx, eax
  00027	d1 f9		 sar	 ecx, 1
  00029	8d 5f 01	 lea	 ebx, DWORD PTR [edi+1]
  0002c	3b cb		 cmp	 ecx, ebx
  0002e	0f 8c 07 01 00
	00		 jl	 $L76557

; 762  : 	const difference_type __elems_after = this->_M_finish - __position;

  00034	8b 4c 24 1c	 mov	 ecx, DWORD PTR ___position$[esp+20]

; 763  : 	pointer __old_finish = this->_M_finish;

  00038	8b 6e 04	 mov	 ebp, DWORD PTR [esi+4]
  0003b	2b c1		 sub	 eax, ecx
  0003d	d1 f8		 sar	 eax, 1
  0003f	8b d8		 mov	 ebx, eax

; 764  : 	if (__elems_after >= __n) {

  00041	3b df		 cmp	 ebx, edi
  00043	7c 6a		 jl	 SHORT $L76560

; 765  : 	  uninitialized_copy((this->_M_finish - __n) + 1, this->_M_finish + 1,
; 766  : 			     this->_M_finish + 1);

  00045	8d 45 02	 lea	 eax, DWORD PTR [ebp+2]
  00048	8d 14 3f	 lea	 edx, DWORD PTR [edi+edi]
  0004b	2b ea		 sub	 ebp, edx
  0004d	83 c5 02	 add	 ebp, 2
  00050	3b c5		 cmp	 eax, ebp
  00052	74 13		 je	 SHORT $L78587
  00054	8b d0		 mov	 edx, eax
  00056	2b d5		 sub	 edx, ebp
  00058	52		 push	 edx
  00059	55		 push	 ebp
  0005a	50		 push	 eax
  0005b	e8 00 00 00 00	 call	 _memmove
  00060	8b 4c 24 28	 mov	 ecx, DWORD PTR ___position$[esp+32]
  00064	83 c4 0c	 add	 esp, 12			; 0000000cH
$L78587:

; 767  : 	  this->_M_finish += __n;

  00067	8b 6e 04	 mov	 ebp, DWORD PTR [esi+4]
  0006a	8d 04 3f	 lea	 eax, DWORD PTR [edi+edi]
  0006d	03 e8		 add	 ebp, eax

; 768  : 	  _Traits::move(__position + __n,
; 769  : 			__position, (__elems_after - __n) + 1);

  0006f	2b df		 sub	 ebx, edi
  00071	43		 inc	 ebx
  00072	89 6e 04	 mov	 DWORD PTR [esi+4], ebp
  00075	74 14		 je	 SHORT $L78111
  00077	8d 14 1b	 lea	 edx, DWORD PTR [ebx+ebx]
  0007a	52		 push	 edx
  0007b	51		 push	 ecx
  0007c	03 c1		 add	 eax, ecx
  0007e	50		 push	 eax
  0007f	e8 00 00 00 00	 call	 _memmove
  00084	8b 4c 24 28	 mov	 ecx, DWORD PTR ___position$[esp+32]
  00088	83 c4 0c	 add	 esp, 12			; 0000000cH
$L78111:

; 770  : 	  _M_move(__first, __last, __position);

  0008b	85 ff		 test	 edi, edi
  0008d	0f 84 91 01 00
	00		 je	 $L78588
  00093	8b 54 24 20	 mov	 edx, DWORD PTR ___first$[esp+20]
  00097	8d 04 3f	 lea	 eax, DWORD PTR [edi+edi]
  0009a	50		 push	 eax
  0009b	52		 push	 edx
  0009c	51		 push	 ecx
  0009d	e8 00 00 00 00	 call	 _memmove
  000a2	83 c4 0c	 add	 esp, 12			; 0000000cH
  000a5	5f		 pop	 edi
  000a6	5b		 pop	 ebx
  000a7	5e		 pop	 esi
  000a8	5d		 pop	 ebp

; 806  : 	    }
; 807  :     }
; 808  :   }

  000a9	83 c4 08	 add	 esp, 8
  000ac	c2 10 00	 ret	 16			; 00000010H
$L76560:

; 771  : 	      }
; 772  : 	else {
; 773  : 	  _ForwardIter __mid = __first;
; 774  : 	  advance(__mid, __elems_after + 1);

  000af	8d 04 1b	 lea	 eax, DWORD PTR [ebx+ebx]
  000b2	89 44 24 14	 mov	 DWORD PTR tv544[esp+24], eax
  000b6	8d 44 10 02	 lea	 eax, DWORD PTR [eax+edx+2]

; 775  : 	  uninitialized_copy(__mid, __last, this->_M_finish + 1);

  000ba	8b 54 24 24	 mov	 edx, DWORD PTR ___last$[esp+20]
  000be	3b d0		 cmp	 edx, eax
  000c0	89 44 24 10	 mov	 DWORD PTR ___mid$76567[esp+24], eax
  000c4	74 18		 je	 SHORT $L78586
  000c6	2b d0		 sub	 edx, eax
  000c8	52		 push	 edx
  000c9	50		 push	 eax
  000ca	8d 45 02	 lea	 eax, DWORD PTR [ebp+2]
  000cd	50		 push	 eax
  000ce	e8 00 00 00 00	 call	 _memmove
  000d3	8b 44 24 1c	 mov	 eax, DWORD PTR ___mid$76567[esp+36]
  000d7	8b 4c 24 28	 mov	 ecx, DWORD PTR ___position$[esp+32]
  000db	83 c4 0c	 add	 esp, 12			; 0000000cH
$L78586:

; 776  : 	  this->_M_finish += __n - __elems_after;

  000de	2b fb		 sub	 edi, ebx
  000e0	8b 5e 04	 mov	 ebx, DWORD PTR [esi+4]
  000e3	d1 e7		 shl	 edi, 1
  000e5	03 df		 add	 ebx, edi

; 777  : 	        _STLP_TRY {
; 778  : 	          uninitialized_copy(__position, __old_finish + 1, this->_M_finish);

  000e7	83 c5 02	 add	 ebp, 2
  000ea	3b e9		 cmp	 ebp, ecx
  000ec	89 5e 04	 mov	 DWORD PTR [esi+4], ebx
  000ef	8b d3		 mov	 edx, ebx
  000f1	74 15		 je	 SHORT $L78252
  000f3	2b e9		 sub	 ebp, ecx
  000f5	55		 push	 ebp
  000f6	51		 push	 ecx
  000f7	52		 push	 edx
  000f8	e8 00 00 00 00	 call	 _memmove
  000fd	8b 44 24 1c	 mov	 eax, DWORD PTR ___mid$76567[esp+36]
  00101	8b 4c 24 28	 mov	 ecx, DWORD PTR ___position$[esp+32]
  00105	83 c4 0c	 add	 esp, 12			; 0000000cH
$L78252:

; 779  : 	          this->_M_finish += __elems_after;

  00108	8b 54 24 14	 mov	 edx, DWORD PTR tv544[esp+24]
  0010c	8b 6e 04	 mov	 ebp, DWORD PTR [esi+4]
  0010f	03 ea		 add	 ebp, edx

; 780  : 	        }
; 781  : 	        _STLP_UNWIND((_STLP_STD::_Destroy(__old_finish + 1, this->_M_finish), 
; 782  : 	                      this->_M_finish = __old_finish));
; 783  : 	        _M_move(__first, __mid, __position);

  00111	8b 54 24 20	 mov	 edx, DWORD PTR ___first$[esp+20]
  00115	2b c2		 sub	 eax, edx
  00117	d1 f8		 sar	 eax, 1
  00119	85 c0		 test	 eax, eax
  0011b	89 6e 04	 mov	 DWORD PTR [esi+4], ebp
  0011e	0f 84 00 01 00
	00		 je	 $L78588
  00124	03 c0		 add	 eax, eax
  00126	50		 push	 eax
  00127	52		 push	 edx
  00128	51		 push	 ecx
  00129	e8 00 00 00 00	 call	 _memmove
  0012e	83 c4 0c	 add	 esp, 12			; 0000000cH
  00131	5f		 pop	 edi
  00132	5b		 pop	 ebx
  00133	5e		 pop	 esi
  00134	5d		 pop	 ebp

; 806  : 	    }
; 807  :     }
; 808  :   }

  00135	83 c4 08	 add	 esp, 8
  00138	c2 10 00	 ret	 16			; 00000010H
$L76557:

; 784  : 	}
; 785  :       }
; 786  :       else {
; 787  : 	const size_type __old_size = size();        

  0013b	2b 06		 sub	 eax, DWORD PTR [esi]
  0013d	d1 f8		 sar	 eax, 1

; 788  : 	const size_type __len
; 789  : 	  = __old_size + (max)(__old_size, __STATIC_CAST(size_type,__n)) + 1;

  0013f	3b c7		 cmp	 eax, edi
  00141	89 44 24 14	 mov	 DWORD PTR ___old_size$76583[esp+24], eax
  00145	89 7c 24 24	 mov	 DWORD PTR $T77988[esp+20], edi
  00149	8d 4c 24 24	 lea	 ecx, DWORD PTR $T77988[esp+20]
  0014d	72 04		 jb	 SHORT $L78289
  0014f	8d 4c 24 14	 lea	 ecx, DWORD PTR ___old_size$76583[esp+24]
$L78289:
  00153	8b 09		 mov	 ecx, DWORD PTR [ecx]
  00155	8d 44 01 01	 lea	 eax, DWORD PTR [ecx+eax+1]

; 790  : 	      pointer __new_start = this->_M_end_of_storage.allocate(__len);

  00159	85 c0		 test	 eax, eax
  0015b	89 44 24 14	 mov	 DWORD PTR ___len$76584[esp+24], eax
  0015f	74 26		 je	 SHORT $L78308
  00161	03 c0		 add	 eax, eax
  00163	3d 80 00 00 00	 cmp	 eax, 128		; 00000080H
  00168	50		 push	 eax
  00169	76 0e		 jbe	 SHORT $L78312
  0016b	e8 00 00 00 00	 call	 ??2@YAPAXI@Z		; operator new
  00170	83 c4 04	 add	 esp, 4
  00173	89 44 24 24	 mov	 DWORD PTR ___new_start$76587[esp+20], eax
  00177	eb 16		 jmp	 SHORT $L78309
$L78312:
  00179	e8 00 00 00 00	 call	 ?_M_allocate@?$__node_alloc@$00$0A@@_STL@@CAPAXI@Z ; _STL::__node_alloc<1,0>::_M_allocate
  0017e	83 c4 04	 add	 esp, 4
  00181	89 44 24 24	 mov	 DWORD PTR ___new_start$76587[esp+20], eax
  00185	eb 08		 jmp	 SHORT $L78309
$L78308:
  00187	c7 44 24 24 00
	00 00 00	 mov	 DWORD PTR ___new_start$76587[esp+20], 0
$L78309:

; 791  : 	      pointer __new_finish = __new_start;
; 792  : 	      _STLP_TRY {
; 793  : 	        __new_finish = uninitialized_copy(this->_M_start, __position, __new_start);

  0018f	8b 06		 mov	 eax, DWORD PTR [esi]
  00191	8b 5c 24 1c	 mov	 ebx, DWORD PTR ___position$[esp+20]
  00195	3b d8		 cmp	 ebx, eax
  00197	75 06		 jne	 SHORT $L78410
  00199	8b 44 24 24	 mov	 eax, DWORD PTR ___new_start$76587[esp+20]
  0019d	eb 15		 jmp	 SHORT $L78411
$L78410:
  0019f	8b 54 24 24	 mov	 edx, DWORD PTR ___new_start$76587[esp+20]
  001a3	8b fb		 mov	 edi, ebx
  001a5	2b f8		 sub	 edi, eax
  001a7	57		 push	 edi
  001a8	50		 push	 eax
  001a9	52		 push	 edx
  001aa	e8 00 00 00 00	 call	 _memmove
  001af	83 c4 0c	 add	 esp, 12			; 0000000cH
  001b2	03 c7		 add	 eax, edi
$L78411:

; 794  : 	        __new_finish = uninitialized_copy(__first, __last, __new_finish);

  001b4	8b 4c 24 20	 mov	 ecx, DWORD PTR ___first$[esp+20]
  001b8	55		 push	 ebp
  001b9	51		 push	 ecx
  001ba	50		 push	 eax
  001bb	e8 00 00 00 00	 call	 _memmove
  001c0	8b f8		 mov	 edi, eax

; 795  : 	        __new_finish
; 796  : 	          = uninitialized_copy(__position, this->_M_finish, __new_finish);

  001c2	8b 46 04	 mov	 eax, DWORD PTR [esi+4]
  001c5	83 c4 0c	 add	 esp, 12			; 0000000cH
  001c8	03 fd		 add	 edi, ebp
  001ca	3b c3		 cmp	 eax, ebx
  001cc	74 13		 je	 SHORT $L78528
  001ce	8b e8		 mov	 ebp, eax
  001d0	2b eb		 sub	 ebp, ebx
  001d2	55		 push	 ebp
  001d3	53		 push	 ebx
  001d4	57		 push	 edi
  001d5	e8 00 00 00 00	 call	 _memmove
  001da	83 c4 0c	 add	 esp, 12			; 0000000cH
  001dd	03 c5		 add	 eax, ebp
  001df	8b f8		 mov	 edi, eax
$L78528:

; 797  : 	        _M_construct_null(__new_finish);

  001e1	66 c7 07 00 00	 mov	 WORD PTR [edi], 0

; 798  : 	      }
; 799  : 	      _STLP_UNWIND((_STLP_STD::_Destroy(__new_start,__new_finish),
; 800  : 	                    this->_M_end_of_storage.deallocate(__new_start,__len)));
; 801  : 	      _STLP_STD::_Destroy(this->_M_start, this->_M_finish + 1);
; 802  : 	      this->_M_deallocate_block();

  001e6	8b 0e		 mov	 ecx, DWORD PTR [esi]
  001e8	85 c9		 test	 ecx, ecx
  001ea	74 25		 je	 SHORT $L78581
  001ec	8b 46 08	 mov	 eax, DWORD PTR [esi+8]
  001ef	2b c1		 sub	 eax, ecx
  001f1	d1 f8		 sar	 eax, 1
  001f3	d1 e0		 shl	 eax, 1
  001f5	3d 80 00 00 00	 cmp	 eax, 128		; 00000080H
  001fa	76 0b		 jbe	 SHORT $L78580
  001fc	51		 push	 ecx
  001fd	e8 00 00 00 00	 call	 ??3@YAXPAX@Z		; operator delete
  00202	83 c4 04	 add	 esp, 4
  00205	eb 0a		 jmp	 SHORT $L78581
$L78580:
  00207	50		 push	 eax
  00208	51		 push	 ecx
  00209	e8 00 00 00 00	 call	 ?_M_deallocate@?$__node_alloc@$00$0A@@_STL@@CAXPAXI@Z ; _STL::__node_alloc<1,0>::_M_deallocate
  0020e	83 c4 08	 add	 esp, 8
$L78581:

; 803  : 	      this->_M_start = __new_start;

  00211	8b 44 24 24	 mov	 eax, DWORD PTR ___new_start$76587[esp+20]

; 804  : 	      this->_M_finish = __new_finish;
; 805  : 	      this->_M_end_of_storage._M_data = __new_start + __len; 

  00215	8b 54 24 14	 mov	 edx, DWORD PTR ___len$76584[esp+24]
  00219	89 06		 mov	 DWORD PTR [esi], eax
  0021b	8d 04 50	 lea	 eax, DWORD PTR [eax+edx*2]
  0021e	89 7e 04	 mov	 DWORD PTR [esi+4], edi
  00221	89 46 08	 mov	 DWORD PTR [esi+8], eax
$L78588:
  00224	5f		 pop	 edi
  00225	5b		 pop	 ebx
$L76582:
  00226	5e		 pop	 esi
  00227	5d		 pop	 ebp

; 806  : 	    }
; 807  :     }
; 808  :   }

  00228	83 c4 08	 add	 esp, 8
  0022b	c2 10 00	 ret	 16			; 00000010H
??$insert@PBG@?$basic_string@GV?$char_traits@G@_STL@@V?$allocator@G@2@@_STL@@AAEXPAGPBG1ABUforward_iterator_tag@1@@Z ENDP ; _STL::basic_string<unsigned short,_STL::char_traits<unsigned short>,_STL::allocator<unsigned short> >::insert<unsigned short const *>
_TEXT	ENDS
PUBLIC	??$append@PAG@?$basic_string@GV?$char_traits@G@_STL@@V?$allocator@G@2@@_STL@@AAEAAV01@PAG0ABUforward_iterator_tag@1@@Z ; _STL::basic_string<unsigned short,_STL::char_traits<unsigned short>,_STL::allocator<unsigned short> >::append<unsigned short *>
; Function compile flags: /Ogty
;	COMDAT ??$append@PAG@?$basic_string@GV?$char_traits@G@_STL@@V?$allocator@G@2@@_STL@@AAEAAV01@PAG0ABUforward_iterator_tag@1@@Z
_TEXT	SEGMENT
$T78593 = -8						; size = 4
___old_size$76714 = -4					; size = 4
___first$ = 8						; size = 4
tv360 = 12						; size = 4
___last$ = 12						; size = 4
___formal$ = 16						; size = 4
??$append@PAG@?$basic_string@GV?$char_traits@G@_STL@@V?$allocator@G@2@@_STL@@AAEAAV01@PAG0ABUforward_iterator_tag@1@@Z PROC NEAR ; _STL::basic_string<unsigned short,_STL::char_traits<unsigned short>,_STL::allocator<unsigned short> >::append<unsigned short *>, COMDAT
; _this$ = ecx

; 543  :                        const forward_iterator_tag &)  {
; 544  :     if (__first != __last) {

  00000	8b 44 24 04	 mov	 eax, DWORD PTR ___first$[esp-4]
  00004	83 ec 08	 sub	 esp, 8
  00007	55		 push	 ebp
  00008	8b 6c 24 14	 mov	 ebp, DWORD PTR ___last$[esp+8]
  0000c	3b c5		 cmp	 eax, ebp
  0000e	56		 push	 esi
  0000f	8b f1		 mov	 esi, ecx
  00011	0f 84 61 01 00
	00		 je	 $L79046

; 545  : 	    const size_type __old_size = size();

  00017	8b 0e		 mov	 ecx, DWORD PTR [esi]
  00019	53		 push	 ebx
  0001a	57		 push	 edi
  0001b	8b 7e 04	 mov	 edi, DWORD PTR [esi+4]

; 546  : 	    difference_type __n = distance(__first, __last);

  0001e	8b dd		 mov	 ebx, ebp
  00020	2b d8		 sub	 ebx, eax
  00022	2b f9		 sub	 edi, ecx
  00024	89 5c 24 20	 mov	 DWORD PTR tv360[esp+20], ebx
  00028	d1 ff		 sar	 edi, 1
  0002a	d1 fb		 sar	 ebx, 1

; 547  : 	    if (__STATIC_CAST(size_type,__n) > max_size() || __old_size > max_size() - __STATIC_CAST(size_type,__n))

  0002c	81 fb fe ff ff
	7f		 cmp	 ebx, 2147483646		; 7ffffffeH
  00032	89 7c 24 14	 mov	 DWORD PTR ___old_size$76714[esp+24], edi
  00036	77 0b		 ja	 SHORT $L76724
  00038	b8 fe ff ff 7f	 mov	 eax, 2147483646		; 7ffffffeH
  0003d	2b c3		 sub	 eax, ebx
  0003f	3b f8		 cmp	 edi, eax
  00041	76 0d		 jbe	 SHORT $L78628
$L76724:

; 548  : 	      this->_M_throw_length_error();

  00043	68 00 00 00 00	 push	 OFFSET FLAT:??_C@_0N@GOPDCEEB@basic_string?$AA@
  00048	e8 00 00 00 00	 call	 ?__stl_throw_length_error@_STL@@YAXPBD@Z ; _STL::__stl_throw_length_error
  0004d	83 c4 04	 add	 esp, 4
$L78628:

; 549  : 	    if (__old_size + __n > capacity()) {

  00050	8b 16		 mov	 edx, DWORD PTR [esi]
  00052	8b 4e 08	 mov	 ecx, DWORD PTR [esi+8]
  00055	2b ca		 sub	 ecx, edx
  00057	d1 f9		 sar	 ecx, 1
  00059	49		 dec	 ecx
  0005a	8d 14 3b	 lea	 edx, DWORD PTR [ebx+edi]
  0005d	3b d1		 cmp	 edx, ecx
  0005f	0f 86 d3 00 00
	00		 jbe	 $L76725

; 550  : 	      const size_type __len = __old_size +
; 551  : 	                            (max)(__old_size, __STATIC_CAST(size_type,__n)) + 1;

  00065	3b fb		 cmp	 edi, ebx
  00067	89 5c 24 10	 mov	 DWORD PTR $T78593[esp+24], ebx
  0006b	8d 44 24 10	 lea	 eax, DWORD PTR $T78593[esp+24]
  0006f	72 04		 jb	 SHORT $L78641
  00071	8d 44 24 14	 lea	 eax, DWORD PTR ___old_size$76714[esp+24]
$L78641:
  00075	8b 00		 mov	 eax, DWORD PTR [eax]
  00077	8d 6c 38 01	 lea	 ebp, DWORD PTR [eax+edi+1]

; 552  : 	      pointer __new_start = this->_M_end_of_storage.allocate(__len);

  0007b	85 ed		 test	 ebp, ebp
  0007d	74 24		 je	 SHORT $L78660
  0007f	8d 44 2d 00	 lea	 eax, DWORD PTR [ebp+ebp]
  00083	3d 80 00 00 00	 cmp	 eax, 128		; 00000080H
  00088	50		 push	 eax
  00089	76 0c		 jbe	 SHORT $L78664
  0008b	e8 00 00 00 00	 call	 ??2@YAPAXI@Z		; operator new
  00090	83 c4 04	 add	 esp, 4
  00093	8b d8		 mov	 ebx, eax
  00095	eb 0e		 jmp	 SHORT $L78661
$L78664:
  00097	e8 00 00 00 00	 call	 ?_M_allocate@?$__node_alloc@$00$0A@@_STL@@CAPAXI@Z ; _STL::__node_alloc<1,0>::_M_allocate
  0009c	83 c4 04	 add	 esp, 4
  0009f	8b d8		 mov	 ebx, eax
  000a1	eb 02		 jmp	 SHORT $L78661
$L78660:
  000a3	33 db		 xor	 ebx, ebx
$L78661:

; 553  : 	      pointer __new_finish = __new_start;
; 554  : 	      _STLP_TRY {
; 555  : 	        __new_finish = uninitialized_copy(this->_M_start, this->_M_finish, __new_start);

  000a5	8b 7e 04	 mov	 edi, DWORD PTR [esi+4]
  000a8	8b 06		 mov	 eax, DWORD PTR [esi]
  000aa	3b f8		 cmp	 edi, eax
  000ac	75 04		 jne	 SHORT $L78764
  000ae	8b c3		 mov	 eax, ebx
  000b0	eb 0f		 jmp	 SHORT $L78765
$L78764:
  000b2	2b f8		 sub	 edi, eax
  000b4	57		 push	 edi
  000b5	50		 push	 eax
  000b6	53		 push	 ebx
  000b7	e8 00 00 00 00	 call	 _memmove
  000bc	83 c4 0c	 add	 esp, 12			; 0000000cH
  000bf	03 c7		 add	 eax, edi
$L78765:

; 556  : 	        __new_finish = uninitialized_copy(__first, __last, __new_finish);

  000c1	8b 4c 24 20	 mov	 ecx, DWORD PTR tv360[esp+20]
  000c5	8b 54 24 1c	 mov	 edx, DWORD PTR ___first$[esp+20]
  000c9	51		 push	 ecx
  000ca	52		 push	 edx
  000cb	50		 push	 eax
  000cc	e8 00 00 00 00	 call	 _memmove
  000d1	8b 4c 24 2c	 mov	 ecx, DWORD PTR tv360[esp+32]
  000d5	8b f8		 mov	 edi, eax
  000d7	03 f9		 add	 edi, ecx

; 557  : 	        _M_construct_null(__new_finish);

  000d9	66 c7 07 00 00	 mov	 WORD PTR [edi], 0

; 558  : 	      }
; 559  : 	      _STLP_UNWIND((_STLP_STD::_Destroy(__new_start,__new_finish),
; 560  : 	                    this->_M_end_of_storage.deallocate(__new_start,__len)));
; 561  : 	      _STLP_STD::_Destroy(this->_M_start, this->_M_finish + 1);
; 562  : 	      this->_M_deallocate_block();

  000de	8b 0e		 mov	 ecx, DWORD PTR [esi]
  000e0	83 c4 0c	 add	 esp, 12			; 0000000cH
  000e3	85 c9		 test	 ecx, ecx
  000e5	74 3a		 je	 SHORT $L78917
  000e7	8b 46 08	 mov	 eax, DWORD PTR [esi+8]
  000ea	2b c1		 sub	 eax, ecx
  000ec	d1 f8		 sar	 eax, 1
  000ee	d1 e0		 shl	 eax, 1
  000f0	3d 80 00 00 00	 cmp	 eax, 128		; 00000080H
  000f5	76 20		 jbe	 SHORT $L78916
  000f7	51		 push	 ecx
  000f8	e8 00 00 00 00	 call	 ??3@YAXPAX@Z		; operator delete
  000fd	83 c4 04	 add	 esp, 4

; 563  : 	      this->_M_start = __new_start;
; 564  : 	      this->_M_finish = __new_finish;
; 565  : 	      this->_M_end_of_storage._M_data = __new_start + __len; 

  00100	8d 04 6b	 lea	 eax, DWORD PTR [ebx+ebp*2]
  00103	89 7e 04	 mov	 DWORD PTR [esi+4], edi
  00106	5f		 pop	 edi
  00107	89 1e		 mov	 DWORD PTR [esi], ebx
  00109	89 46 08	 mov	 DWORD PTR [esi+8], eax
  0010c	5b		 pop	 ebx

; 577  : 	    }
; 578  : 	  }
; 579  : 	  return *this;  

  0010d	8b c6		 mov	 eax, esi
  0010f	5e		 pop	 esi
  00110	5d		 pop	 ebp

; 580  : 	}

  00111	83 c4 08	 add	 esp, 8
  00114	c2 0c 00	 ret	 12			; 0000000cH

; 558  : 	      }
; 559  : 	      _STLP_UNWIND((_STLP_STD::_Destroy(__new_start,__new_finish),
; 560  : 	                    this->_M_end_of_storage.deallocate(__new_start,__len)));
; 561  : 	      _STLP_STD::_Destroy(this->_M_start, this->_M_finish + 1);
; 562  : 	      this->_M_deallocate_block();

$L78916:
  00117	50		 push	 eax
  00118	51		 push	 ecx
  00119	e8 00 00 00 00	 call	 ?_M_deallocate@?$__node_alloc@$00$0A@@_STL@@CAXPAXI@Z ; _STL::__node_alloc<1,0>::_M_deallocate
  0011e	83 c4 08	 add	 esp, 8
$L78917:

; 563  : 	      this->_M_start = __new_start;
; 564  : 	      this->_M_finish = __new_finish;
; 565  : 	      this->_M_end_of_storage._M_data = __new_start + __len; 

  00121	8d 04 6b	 lea	 eax, DWORD PTR [ebx+ebp*2]
  00124	89 7e 04	 mov	 DWORD PTR [esi+4], edi
  00127	5f		 pop	 edi
  00128	89 1e		 mov	 DWORD PTR [esi], ebx
  0012a	89 46 08	 mov	 DWORD PTR [esi+8], eax
  0012d	5b		 pop	 ebx

; 577  : 	    }
; 578  : 	  }
; 579  : 	  return *this;  

  0012e	8b c6		 mov	 eax, esi
  00130	5e		 pop	 esi
  00131	5d		 pop	 ebp

; 580  : 	}

  00132	83 c4 08	 add	 esp, 8
  00135	c2 0c 00	 ret	 12			; 0000000cH
$L76725:

; 566  : 	    }
; 567  : 	    else {
; 568  : 	      _ForwardIter __f1 = __first;
; 569  : 	      ++__f1;

  00138	8b 44 24 1c	 mov	 eax, DWORD PTR ___first$[esp+20]
  0013c	83 c0 02	 add	 eax, 2

; 570  : 	      uninitialized_copy(__f1, __last, this->_M_finish + 1);

  0013f	3b e8		 cmp	 ebp, eax
  00141	74 13		 je	 SHORT $L79015
  00143	8b 4e 04	 mov	 ecx, DWORD PTR [esi+4]
  00146	2b e8		 sub	 ebp, eax
  00148	55		 push	 ebp
  00149	50		 push	 eax
  0014a	83 c1 02	 add	 ecx, 2
  0014d	51		 push	 ecx
  0014e	e8 00 00 00 00	 call	 _memmove
  00153	83 c4 0c	 add	 esp, 12			; 0000000cH
$L79015:

; 571  : 	      _STLP_TRY {
; 572  : 	        _M_construct_null(this->_M_finish + __n);

  00156	8b 56 04	 mov	 edx, DWORD PTR [esi+4]

; 573  : 	      }
; 574  : 	      _STLP_UNWIND(_STLP_STD::_Destroy(this->_M_finish + 1, this->_M_finish + __n));
; 575  : 	      _Traits::assign(*end(), *__first);

  00159	8b 4c 24 1c	 mov	 ecx, DWORD PTR ___first$[esp+20]
  0015d	03 db		 add	 ebx, ebx
  0015f	66 c7 04 13 00
	00		 mov	 WORD PTR [ebx+edx], 0
  00165	8b 46 04	 mov	 eax, DWORD PTR [esi+4]
  00168	66 8b 11	 mov	 dx, WORD PTR [ecx]
  0016b	66 89 10	 mov	 WORD PTR [eax], dx

; 576  : 	      this->_M_finish += __n;

  0016e	8b 46 04	 mov	 eax, DWORD PTR [esi+4]
  00171	03 c3		 add	 eax, ebx
  00173	5f		 pop	 edi
  00174	89 46 04	 mov	 DWORD PTR [esi+4], eax
  00177	5b		 pop	 ebx
$L79046:

; 577  : 	    }
; 578  : 	  }
; 579  : 	  return *this;  

  00178	8b c6		 mov	 eax, esi
  0017a	5e		 pop	 esi
  0017b	5d		 pop	 ebp

; 580  : 	}

  0017c	83 c4 08	 add	 esp, 8
  0017f	c2 0c 00	 ret	 12			; 0000000cH
??$append@PAG@?$basic_string@GV?$char_traits@G@_STL@@V?$allocator@G@2@@_STL@@AAEAAV01@PAG0ABUforward_iterator_tag@1@@Z ENDP ; _STL::basic_string<unsigned short,_STL::char_traits<unsigned short>,_STL::allocator<unsigned short> >::append<unsigned short *>
_TEXT	ENDS
PUBLIC	??1?$_String_base@GV?$allocator@G@_STL@@@_STL@@QAE@XZ ; _STL::_String_base<unsigned short,_STL::allocator<unsigned short> >::~_String_base<unsigned short,_STL::allocator<unsigned short> >
; Function compile flags: /Ogty
;	COMDAT ??1?$_String_base@GV?$allocator@G@_STL@@@_STL@@QAE@XZ
_TEXT	SEGMENT
??1?$_String_base@GV?$allocator@G@_STL@@@_STL@@QAE@XZ PROC NEAR ; _STL::_String_base<unsigned short,_STL::allocator<unsigned short> >::~_String_base<unsigned short,_STL::allocator<unsigned short> >, COMDAT
; _this$ = ecx

; 135  :   ~_String_base() { _M_deallocate_block(); }

  00000	8b 11		 mov	 edx, DWORD PTR [ecx]
  00002	85 d2		 test	 edx, edx
  00004	74 24		 je	 SHORT $L79084
  00006	8b 41 08	 mov	 eax, DWORD PTR [ecx+8]
  00009	2b c2		 sub	 eax, edx
  0000b	d1 f8		 sar	 eax, 1
  0000d	d1 e0		 shl	 eax, 1
  0000f	3d 80 00 00 00	 cmp	 eax, 128		; 00000080H
  00014	76 0a		 jbe	 SHORT $L79083
  00016	52		 push	 edx
  00017	e8 00 00 00 00	 call	 ??3@YAXPAX@Z		; operator delete
  0001c	83 c4 04	 add	 esp, 4
  0001f	c3		 ret	 0
$L79083:
  00020	50		 push	 eax
  00021	52		 push	 edx
  00022	e8 00 00 00 00	 call	 ?_M_deallocate@?$__node_alloc@$00$0A@@_STL@@CAXPAXI@Z ; _STL::__node_alloc<1,0>::_M_deallocate
  00027	83 c4 08	 add	 esp, 8
$L79084:
  0002a	c3		 ret	 0
??1?$_String_base@GV?$allocator@G@_STL@@@_STL@@QAE@XZ ENDP ; _STL::_String_base<unsigned short,_STL::allocator<unsigned short> >::~_String_base<unsigned short,_STL::allocator<unsigned short> >
_TEXT	ENDS
PUBLIC	?_M_insert_overflow@?$vector@HV?$allocator@H@_STL@@@_STL@@IAEXPAHABHABU__true_type@2@I_N@Z ; _STL::vector<int,_STL::allocator<int> >::_M_insert_overflow
; Function compile flags: /Ogty
; File c:\stlport-4.6.1\stlport\stl\_vector.h
;	COMDAT ?_M_insert_overflow@?$vector@HV?$allocator@H@_STL@@@_STL@@IAEXPAHABHABU__true_type@2@I_N@Z
_TEXT	SEGMENT
___len$ = -4						; size = 4
___old_size$ = -4					; size = 4
___position$ = 8					; size = 4
___x$ = 12						; size = 4
___formal$ = 16						; size = 4
___new_start$ = 20					; size = 4
___fill_len$ = 20					; size = 4
___atend$ = 24						; size = 1
?_M_insert_overflow@?$vector@HV?$allocator@H@_STL@@@_STL@@IAEXPAHABHABU__true_type@2@I_N@Z PROC NEAR ; _STL::vector<int,_STL::allocator<int> >::_M_insert_overflow, COMDAT
; _this$ = ecx

; 151  : 			  size_type __fill_len, bool __atend = false) {

  00000	51		 push	 ecx
  00001	55		 push	 ebp
  00002	8b e9		 mov	 ebp, ecx

; 152  :     const size_type __old_size = size();

  00004	8b 45 04	 mov	 eax, DWORD PTR [ebp+4]
  00007	56		 push	 esi
  00008	2b 45 00	 sub	 eax, DWORD PTR [ebp]
  0000b	57		 push	 edi

; 153  :     const size_type __len = __old_size + (max)(__old_size, __fill_len);

  0000c	8b 7c 24 20	 mov	 edi, DWORD PTR ___fill_len$[esp+12]
  00010	c1 f8 02	 sar	 eax, 2
  00013	3b c7		 cmp	 eax, edi
  00015	89 44 24 0c	 mov	 DWORD PTR ___old_size$[esp+16], eax
  00019	8d 4c 24 20	 lea	 ecx, DWORD PTR ___fill_len$[esp+12]
  0001d	72 04		 jb	 SHORT $L79101
  0001f	8d 4c 24 0c	 lea	 ecx, DWORD PTR ___old_size$[esp+16]
$L79101:
  00023	8b 09		 mov	 ecx, DWORD PTR [ecx]
  00025	03 c8		 add	 ecx, eax
  00027	89 4c 24 0c	 mov	 DWORD PTR ___len$[esp+16], ecx

; 154  :     
; 155  :     pointer __new_start = this->_M_end_of_storage.allocate(__len);

  0002b	74 2b		 je	 SHORT $L79120
  0002d	8d 04 8d 00 00
	00 00		 lea	 eax, DWORD PTR [ecx*4]
  00034	3d 80 00 00 00	 cmp	 eax, 128		; 00000080H
  00039	50		 push	 eax
  0003a	76 0e		 jbe	 SHORT $L79123
  0003c	e8 00 00 00 00	 call	 ??2@YAPAXI@Z		; operator new
  00041	83 c4 04	 add	 esp, 4
  00044	89 44 24 20	 mov	 DWORD PTR ___new_start$[esp+12], eax
  00048	eb 16		 jmp	 SHORT $L79121
$L79123:
  0004a	e8 00 00 00 00	 call	 ?_M_allocate@?$__node_alloc@$00$0A@@_STL@@CAPAXI@Z ; _STL::__node_alloc<1,0>::_M_allocate
  0004f	83 c4 04	 add	 esp, 4
  00052	89 44 24 20	 mov	 DWORD PTR ___new_start$[esp+12], eax
  00056	eb 08		 jmp	 SHORT $L79121
$L79120:
  00058	c7 44 24 20 00
	00 00 00	 mov	 DWORD PTR ___new_start$[esp+12], 0
$L79121:

; 156  :     pointer __new_finish = (pointer)__copy_trivial(this->_M_start, __position, __new_start);

  00060	8b 45 00	 mov	 eax, DWORD PTR [ebp]
  00063	53		 push	 ebx
  00064	8b 5c 24 18	 mov	 ebx, DWORD PTR ___position$[esp+16]
  00068	3b d8		 cmp	 ebx, eax
  0006a	75 06		 jne	 SHORT $L79134
  0006c	8b 44 24 24	 mov	 eax, DWORD PTR ___new_start$[esp+16]
  00070	eb 15		 jmp	 SHORT $L79135
$L79134:
  00072	8b f3		 mov	 esi, ebx
  00074	2b f0		 sub	 esi, eax
  00076	56		 push	 esi
  00077	50		 push	 eax
  00078	8b 44 24 2c	 mov	 eax, DWORD PTR ___new_start$[esp+24]
  0007c	50		 push	 eax
  0007d	e8 00 00 00 00	 call	 _memmove
  00082	83 c4 0c	 add	 esp, 12			; 0000000cH
  00085	03 c6		 add	 eax, esi
$L79135:

; 157  :       // handle insertion
; 158  :     __new_finish = fill_n(__new_finish, __fill_len, __x);

  00087	85 ff		 test	 edi, edi
  00089	76 10		 jbe	 SHORT $L79142
  0008b	8b 54 24 1c	 mov	 edx, DWORD PTR ___x$[esp+16]
  0008f	8b cf		 mov	 ecx, edi
$L79140:
  00091	8b 32		 mov	 esi, DWORD PTR [edx]
  00093	89 30		 mov	 DWORD PTR [eax], esi
  00095	83 c0 04	 add	 eax, 4
  00098	49		 dec	 ecx
  00099	75 f6		 jne	 SHORT $L79140
$L79142:

; 159  :     if (!__atend)

  0009b	8a 4c 24 28	 mov	 cl, BYTE PTR ___atend$[esp+16]
  0009f	84 c9		 test	 cl, cl
  000a1	8b f8		 mov	 edi, eax
  000a3	75 18		 jne	 SHORT $L79151

; 160  :       // copy remainder
; 161  :       __new_finish = (pointer)__copy_trivial(__position, this->_M_finish, __new_finish);

  000a5	8b 75 04	 mov	 esi, DWORD PTR [ebp+4]
  000a8	3b f3		 cmp	 esi, ebx
  000aa	74 11		 je	 SHORT $L79151
  000ac	2b f3		 sub	 esi, ebx
  000ae	56		 push	 esi
  000af	53		 push	 ebx
  000b0	50		 push	 eax
  000b1	e8 00 00 00 00	 call	 _memmove
  000b6	8b f8		 mov	 edi, eax
  000b8	83 c4 0c	 add	 esp, 12			; 0000000cH
  000bb	03 fe		 add	 edi, esi
$L79151:

; 162  :     _M_clear();

  000bd	8b 4d 00	 mov	 ecx, DWORD PTR [ebp]
  000c0	85 c9		 test	 ecx, ecx
  000c2	5b		 pop	 ebx
  000c3	74 27		 je	 SHORT $L79184
  000c5	8b 45 08	 mov	 eax, DWORD PTR [ebp+8]
  000c8	2b c1		 sub	 eax, ecx
  000ca	c1 f8 02	 sar	 eax, 2
  000cd	c1 e0 02	 shl	 eax, 2
  000d0	3d 80 00 00 00	 cmp	 eax, 128		; 00000080H
  000d5	76 0b		 jbe	 SHORT $L79183
  000d7	51		 push	 ecx
  000d8	e8 00 00 00 00	 call	 ??3@YAXPAX@Z		; operator delete
  000dd	83 c4 04	 add	 esp, 4
  000e0	eb 0a		 jmp	 SHORT $L79184
$L79183:
  000e2	50		 push	 eax
  000e3	51		 push	 ecx
  000e4	e8 00 00 00 00	 call	 ?_M_deallocate@?$__node_alloc@$00$0A@@_STL@@CAXPAXI@Z ; _STL::__node_alloc<1,0>::_M_deallocate
  000e9	83 c4 08	 add	 esp, 8
$L79184:

; 163  :     _M_set(__new_start, __new_finish, __new_start + __len);

  000ec	8b 44 24 20	 mov	 eax, DWORD PTR ___new_start$[esp+12]
  000f0	8b 4c 24 0c	 mov	 ecx, DWORD PTR ___len$[esp+16]
  000f4	89 7d 04	 mov	 DWORD PTR [ebp+4], edi
  000f7	5f		 pop	 edi
  000f8	8d 14 88	 lea	 edx, DWORD PTR [eax+ecx*4]
  000fb	5e		 pop	 esi
  000fc	89 45 00	 mov	 DWORD PTR [ebp], eax
  000ff	89 55 08	 mov	 DWORD PTR [ebp+8], edx
  00102	5d		 pop	 ebp

; 164  :   }

  00103	59		 pop	 ecx
  00104	c2 14 00	 ret	 20			; 00000014H
?_M_insert_overflow@?$vector@HV?$allocator@H@_STL@@@_STL@@IAEXPAHABHABU__true_type@2@I_N@Z ENDP ; _STL::vector<int,_STL::allocator<int> >::_M_insert_overflow
_TEXT	ENDS
PUBLIC	??0?$basic_string@GV?$char_traits@G@_STL@@V?$allocator@G@2@@_STL@@QAE@XZ ; _STL::basic_string<unsigned short,_STL::char_traits<unsigned short>,_STL::allocator<unsigned short> >::basic_string<unsigned short,_STL::char_traits<unsigned short>,_STL::allocator<unsigned short> >
;	COMDAT xdata$x
; File c:\stlport-4.6.1\stlport\stl\_string.h
xdata$x	SEGMENT
$T79252	DD	0ffffffffH
	DD	FLAT:$L79197
$T79250	DD	019930520H
	DD	01H
	DD	FLAT:$T79252
	DD	2 DUP(00H)
	DD	2 DUP(00H)
; Function compile flags: /Ogty
; File c:\stlport-4.6.1\stlport\stl\_string.c
xdata$x	ENDS
;	COMDAT ??0?$basic_string@GV?$char_traits@G@_STL@@V?$allocator@G@2@@_STL@@QAE@XZ
_TEXT	SEGMENT
_this$ = -16						; size = 4
__$EHRec$ = -12						; size = 12
??0?$basic_string@GV?$char_traits@G@_STL@@V?$allocator@G@2@@_STL@@QAE@XZ PROC NEAR ; _STL::basic_string<unsigned short,_STL::char_traits<unsigned short>,_STL::allocator<unsigned short> >::basic_string<unsigned short,_STL::char_traits<unsigned short>,_STL::allocator<unsigned short> >, COMDAT
; _this$ = ecx

; 541  :   : _String_base<_CharT,_Alloc>(allocator_type()) {  

  00000	6a ff		 push	 -1
  00002	68 00 00 00 00	 push	 __ehhandler$??0?$basic_string@GV?$char_traits@G@_STL@@V?$allocator@G@2@@_STL@@QAE@XZ
  00007	64 a1 00 00 00
	00		 mov	 eax, DWORD PTR fs:__except_list
  0000d	50		 push	 eax
  0000e	64 89 25 00 00
	00 00		 mov	 DWORD PTR fs:__except_list, esp
  00015	51		 push	 ecx
  00016	56		 push	 esi
  00017	8b f1		 mov	 esi, ecx
  00019	c7 06 00 00 00
	00		 mov	 DWORD PTR [esi], 0
  0001f	c7 46 04 00 00
	00 00		 mov	 DWORD PTR [esi+4], 0
  00026	89 74 24 04	 mov	 DWORD PTR _this$[esp+20], esi
  0002a	c7 46 08 00 00
	00 00		 mov	 DWORD PTR [esi+8], 0

; 542  :   this->_M_start = this->_M_end_of_storage.allocate(8); 

  00031	6a 10		 push	 16			; 00000010H
  00033	c7 44 24 14 00
	00 00 00	 mov	 DWORD PTR __$EHRec$[esp+32], 0
  0003b	e8 00 00 00 00	 call	 ?_M_allocate@?$__node_alloc@$00$0A@@_STL@@CAPAXI@Z ; _STL::__node_alloc<1,0>::_M_allocate

; 543  :   this->_M_finish = this->_M_start; 
; 544  :   this->_M_end_of_storage._M_data = this->_M_start + 8; 

  00040	8d 48 10	 lea	 ecx, DWORD PTR [eax+16]
  00043	89 06		 mov	 DWORD PTR [esi], eax
  00045	89 46 04	 mov	 DWORD PTR [esi+4], eax
  00048	89 4e 08	 mov	 DWORD PTR [esi+8], ecx

; 545  :   _M_terminate_string();  
; 546  : } 

  0004b	8b 4c 24 0c	 mov	 ecx, DWORD PTR __$EHRec$[esp+24]
  0004f	66 c7 00 00 00	 mov	 WORD PTR [eax], 0
  00054	83 c4 04	 add	 esp, 4
  00057	8b c6		 mov	 eax, esi
  00059	5e		 pop	 esi
  0005a	64 89 0d 00 00
	00 00		 mov	 DWORD PTR fs:__except_list, ecx
  00061	83 c4 10	 add	 esp, 16			; 00000010H
  00064	c3		 ret	 0
_TEXT	ENDS
;	COMDAT text$x
text$x	SEGMENT
$L79197:
  00000	8b 4d f0	 mov	 ecx, DWORD PTR _this$[ebp]
  00003	e9 00 00 00 00	 jmp	 ??1?$_String_base@GV?$allocator@G@_STL@@@_STL@@QAE@XZ ; _STL::_String_base<unsigned short,_STL::allocator<unsigned short> >::~_String_base<unsigned short,_STL::allocator<unsigned short> >
__ehhandler$??0?$basic_string@GV?$char_traits@G@_STL@@V?$allocator@G@2@@_STL@@QAE@XZ:
  00008	b8 00 00 00 00	 mov	 eax, OFFSET FLAT:$T79250
  0000d	e9 00 00 00 00	 jmp	 ___CxxFrameHandler
text$x	ENDS
??0?$basic_string@GV?$char_traits@G@_STL@@V?$allocator@G@2@@_STL@@QAE@XZ ENDP ; _STL::basic_string<unsigned short,_STL::char_traits<unsigned short>,_STL::allocator<unsigned short> >::basic_string<unsigned short,_STL::char_traits<unsigned short>,_STL::allocator<unsigned short> >
PUBLIC	?reserve@?$basic_string@GV?$char_traits@G@_STL@@V?$allocator@G@2@@_STL@@QAEXI@Z ; _STL::basic_string<unsigned short,_STL::char_traits<unsigned short>,_STL::allocator<unsigned short> >::reserve
; Function compile flags: /Ogty
;	COMDAT ?reserve@?$basic_string@GV?$char_traits@G@_STL@@V?$allocator@G@2@@_STL@@QAEXI@Z
_TEXT	SEGMENT
___n$76258 = 8						; size = 4
___res_arg$ = 8						; size = 4
?reserve@?$basic_string@GV?$char_traits@G@_STL@@V?$allocator@G@2@@_STL@@QAEXI@Z PROC NEAR ; _STL::basic_string<unsigned short,_STL::char_traits<unsigned short>,_STL::allocator<unsigned short> >::reserve, COMDAT
; _this$ = ecx

; 57   : template <class _CharT, class _Traits, class _Alloc> void basic_string<_CharT,_Traits,_Alloc>::reserve(size_type __res_arg) {

  00000	53		 push	 ebx
  00001	56		 push	 esi

; 58   : 
; 59   :   if (__res_arg >= capacity())

  00002	8b 74 24 0c	 mov	 esi, DWORD PTR ___res_arg$[esp+4]
  00006	8b d9		 mov	 ebx, ecx
  00008	8b 43 08	 mov	 eax, DWORD PTR [ebx+8]
  0000b	57		 push	 edi
  0000c	2b 03		 sub	 eax, DWORD PTR [ebx]
  0000e	d1 f8		 sar	 eax, 1
  00010	48		 dec	 eax
  00011	3b f0		 cmp	 esi, eax
  00013	0f 82 b8 00 00
	00		 jb	 $L76256

; 60   :     {      
; 61   :       if (__res_arg > max_size())

  00019	81 fe fe ff ff
	7f		 cmp	 esi, 2147483646		; 7ffffffeH
  0001f	76 0d		 jbe	 SHORT $L79273

; 62   : 	this->_M_throw_length_error();

  00021	68 00 00 00 00	 push	 OFFSET FLAT:??_C@_0N@GOPDCEEB@basic_string?$AA@
  00026	e8 00 00 00 00	 call	 ?__stl_throw_length_error@_STL@@YAXPBD@Z ; _STL::__stl_throw_length_error
  0002b	83 c4 04	 add	 esp, 4
$L79273:

; 63   : 
; 64   :       size_type __n = __res_arg + 1;

  0002e	8d 7e 01	 lea	 edi, DWORD PTR [esi+1]

; 65   :       pointer __new_start = this->_M_end_of_storage.allocate(__n);

  00031	85 ff		 test	 edi, edi
  00033	55		 push	 ebp
  00034	89 7c 24 14	 mov	 DWORD PTR ___n$76258[esp+12], edi
  00038	74 23		 je	 SHORT $L79291
  0003a	8d 04 3f	 lea	 eax, DWORD PTR [edi+edi]
  0003d	3d 80 00 00 00	 cmp	 eax, 128		; 00000080H
  00042	50		 push	 eax
  00043	76 0c		 jbe	 SHORT $L79295
  00045	e8 00 00 00 00	 call	 ??2@YAPAXI@Z		; operator new
  0004a	83 c4 04	 add	 esp, 4
  0004d	8b e8		 mov	 ebp, eax
  0004f	eb 0e		 jmp	 SHORT $L79292
$L79295:
  00051	e8 00 00 00 00	 call	 ?_M_allocate@?$__node_alloc@$00$0A@@_STL@@CAPAXI@Z ; _STL::__node_alloc<1,0>::_M_allocate
  00056	83 c4 04	 add	 esp, 4
  00059	8b e8		 mov	 ebp, eax
  0005b	eb 02		 jmp	 SHORT $L79292
$L79291:
  0005d	33 ed		 xor	 ebp, ebp
$L79292:

; 66   :       pointer __new_finish = __new_start;
; 67   :       
; 68   :       _STLP_TRY {
; 69   : 	__new_finish = uninitialized_copy(this->_M_start, this->_M_finish, __new_start);

  0005f	8b 4b 04	 mov	 ecx, DWORD PTR [ebx+4]
  00062	8b 03		 mov	 eax, DWORD PTR [ebx]
  00064	3b c8		 cmp	 ecx, eax
  00066	75 04		 jne	 SHORT $L79393
  00068	8b f5		 mov	 esi, ebp
  0006a	eb 17		 jmp	 SHORT $L79394
$L79393:
  0006c	8b f9		 mov	 edi, ecx
  0006e	2b f8		 sub	 edi, eax
  00070	57		 push	 edi
  00071	50		 push	 eax
  00072	55		 push	 ebp
  00073	e8 00 00 00 00	 call	 _memmove
  00078	8b f0		 mov	 esi, eax
  0007a	83 c4 0c	 add	 esp, 12			; 0000000cH
  0007d	03 f7		 add	 esi, edi
  0007f	8b 7c 24 14	 mov	 edi, DWORD PTR ___n$76258[esp+12]
$L79394:

; 70   : 	_M_construct_null(__new_finish);

  00083	66 c7 06 00 00	 mov	 WORD PTR [esi], 0

; 71   :       }
; 72   :       _STLP_UNWIND((_STLP_STD::_Destroy(__new_start, __new_finish), 
; 73   : 		    this->_M_end_of_storage.deallocate(__new_start, __n)));
; 74   :       
; 75   :       _STLP_STD::_Destroy(this->_M_start, this->_M_finish + 1);
; 76   :       this->_M_deallocate_block();

  00088	8b 0b		 mov	 ecx, DWORD PTR [ebx]
  0008a	85 c9		 test	 ecx, ecx
  0008c	74 36		 je	 SHORT $L79448
  0008e	8b 43 08	 mov	 eax, DWORD PTR [ebx+8]
  00091	2b c1		 sub	 eax, ecx
  00093	d1 f8		 sar	 eax, 1
  00095	d1 e0		 shl	 eax, 1
  00097	3d 80 00 00 00	 cmp	 eax, 128		; 00000080H
  0009c	76 1c		 jbe	 SHORT $L79447
  0009e	51		 push	 ecx
  0009f	e8 00 00 00 00	 call	 ??3@YAXPAX@Z		; operator delete
  000a4	83 c4 04	 add	 esp, 4

; 77   :       this->_M_start = __new_start;
; 78   :       this->_M_finish = __new_finish;
; 79   :       this->_M_end_of_storage._M_data = __new_start + __n;

  000a7	8d 4c 7d 00	 lea	 ecx, DWORD PTR [ebp+edi*2]
  000ab	89 2b		 mov	 DWORD PTR [ebx], ebp
  000ad	5d		 pop	 ebp
  000ae	5f		 pop	 edi
  000af	89 73 04	 mov	 DWORD PTR [ebx+4], esi
  000b2	5e		 pop	 esi
  000b3	89 4b 08	 mov	 DWORD PTR [ebx+8], ecx
  000b6	5b		 pop	 ebx

; 80   :     }
; 81   : }

  000b7	c2 04 00	 ret	 4

; 71   :       }
; 72   :       _STLP_UNWIND((_STLP_STD::_Destroy(__new_start, __new_finish), 
; 73   : 		    this->_M_end_of_storage.deallocate(__new_start, __n)));
; 74   :       
; 75   :       _STLP_STD::_Destroy(this->_M_start, this->_M_finish + 1);
; 76   :       this->_M_deallocate_block();

$L79447:
  000ba	50		 push	 eax
  000bb	51		 push	 ecx
  000bc	e8 00 00 00 00	 call	 ?_M_deallocate@?$__node_alloc@$00$0A@@_STL@@CAXPAXI@Z ; _STL::__node_alloc<1,0>::_M_deallocate
  000c1	83 c4 08	 add	 esp, 8
$L79448:

; 77   :       this->_M_start = __new_start;
; 78   :       this->_M_finish = __new_finish;
; 79   :       this->_M_end_of_storage._M_data = __new_start + __n;

  000c4	8d 4c 7d 00	 lea	 ecx, DWORD PTR [ebp+edi*2]
  000c8	89 2b		 mov	 DWORD PTR [ebx], ebp
  000ca	89 73 04	 mov	 DWORD PTR [ebx+4], esi
  000cd	89 4b 08	 mov	 DWORD PTR [ebx+8], ecx
  000d0	5d		 pop	 ebp
$L76256:
  000d1	5f		 pop	 edi
  000d2	5e		 pop	 esi
  000d3	5b		 pop	 ebx

; 80   :     }
; 81   : }

  000d4	c2 04 00	 ret	 4
?reserve@?$basic_string@GV?$char_traits@G@_STL@@V?$allocator@G@2@@_STL@@QAEXI@Z ENDP ; _STL::basic_string<unsigned short,_STL::char_traits<unsigned short>,_STL::allocator<unsigned short> >::reserve
_TEXT	ENDS
PUBLIC	??$_M_insert_dispatch@PBG@?$basic_string@GV?$char_traits@G@_STL@@V?$allocator@G@2@@_STL@@AAEXPAGPBG1ABU__false_type@1@@Z ; _STL::basic_string<unsigned short,_STL::char_traits<unsigned short>,_STL::allocator<unsigned short> >::_M_insert_dispatch<unsigned short const *>
; Function compile flags: /Ogty
; File c:\stlport-4.6.1\stlport\stl\_string.h
;	COMDAT ??$_M_insert_dispatch@PBG@?$basic_string@GV?$char_traits@G@_STL@@V?$allocator@G@2@@_STL@@AAEXPAGPBG1ABU__false_type@1@@Z
_TEXT	SEGMENT
___p$ = 8						; size = 4
___first$ = 12						; size = 4
$T79457 = 16						; size = 1
___last$ = 16						; size = 4
___formal$ = 20						; size = 4
??$_M_insert_dispatch@PBG@?$basic_string@GV?$char_traits@G@_STL@@V?$allocator@G@2@@_STL@@AAEXPAGPBG1ABU__false_type@1@@Z PROC NEAR ; _STL::basic_string<unsigned short,_STL::char_traits<unsigned short>,_STL::allocator<unsigned short> >::_M_insert_dispatch<unsigned short const *>, COMDAT
; _this$ = ecx

; 816  :                           const __false_type&) {
; 817  :     insert(__p, __first, __last, _STLP_ITERATOR_CATEGORY(__first, _InputIter));

  00000	8d 44 24 0c	 lea	 eax, DWORD PTR $T79457[esp-4]
  00004	89 44 24 10	 mov	 DWORD PTR ___formal$[esp-4], eax
  00008	e9 00 00 00 00	 jmp	 ??$insert@PBG@?$basic_string@GV?$char_traits@G@_STL@@V?$allocator@G@2@@_STL@@AAEXPAGPBG1ABUforward_iterator_tag@1@@Z ; _STL::basic_string<unsigned short,_STL::char_traits<unsigned short>,_STL::allocator<unsigned short> >::insert<unsigned short const *>
??$_M_insert_dispatch@PBG@?$basic_string@GV?$char_traits@G@_STL@@V?$allocator@G@2@@_STL@@AAEXPAGPBG1ABU__false_type@1@@Z ENDP ; _STL::basic_string<unsigned short,_STL::char_traits<unsigned short>,_STL::allocator<unsigned short> >::_M_insert_dispatch<unsigned short const *>
_TEXT	ENDS
PUBLIC	??$_M_append_dispatch@PAG@?$basic_string@GV?$char_traits@G@_STL@@V?$allocator@G@2@@_STL@@AAEAAV01@PAG0ABU__false_type@1@@Z ; _STL::basic_string<unsigned short,_STL::char_traits<unsigned short>,_STL::allocator<unsigned short> >::_M_append_dispatch<unsigned short *>
; Function compile flags: /Ogty
;	COMDAT ??$_M_append_dispatch@PAG@?$basic_string@GV?$char_traits@G@_STL@@V?$allocator@G@2@@_STL@@AAEAAV01@PAG0ABU__false_type@1@@Z
_TEXT	SEGMENT
___f$ = 8						; size = 4
$T79461 = 12						; size = 1
___l$ = 12						; size = 4
___formal$ = 16						; size = 4
??$_M_append_dispatch@PAG@?$basic_string@GV?$char_traits@G@_STL@@V?$allocator@G@2@@_STL@@AAEAAV01@PAG0ABU__false_type@1@@Z PROC NEAR ; _STL::basic_string<unsigned short,_STL::char_traits<unsigned short>,_STL::allocator<unsigned short> >::_M_append_dispatch<unsigned short *>, COMDAT
; _this$ = ecx

; 587  :                                    const __false_type&) {
; 588  :     return append(__f, __l, _STLP_ITERATOR_CATEGORY(__f, _InputIter));

  00000	8d 44 24 08	 lea	 eax, DWORD PTR $T79461[esp-4]
  00004	89 44 24 0c	 mov	 DWORD PTR ___formal$[esp-4], eax
  00008	e9 00 00 00 00	 jmp	 ??$append@PAG@?$basic_string@GV?$char_traits@G@_STL@@V?$allocator@G@2@@_STL@@AAEAAV01@PAG0ABUforward_iterator_tag@1@@Z ; _STL::basic_string<unsigned short,_STL::char_traits<unsigned short>,_STL::allocator<unsigned short> >::append<unsigned short *>
??$_M_append_dispatch@PAG@?$basic_string@GV?$char_traits@G@_STL@@V?$allocator@G@2@@_STL@@AAEAAV01@PAG0ABU__false_type@1@@Z ENDP ; _STL::basic_string<unsigned short,_STL::char_traits<unsigned short>,_STL::allocator<unsigned short> >::_M_append_dispatch<unsigned short *>
_TEXT	ENDS
PUBLIC	??1?$basic_string@GV?$char_traits@G@_STL@@V?$allocator@G@2@@_STL@@QAE@XZ ; _STL::basic_string<unsigned short,_STL::char_traits<unsigned short>,_STL::allocator<unsigned short> >::~basic_string<unsigned short,_STL::char_traits<unsigned short>,_STL::allocator<unsigned short> >
; Function compile flags: /Ogty
;	COMDAT ??1?$basic_string@GV?$char_traits@G@_STL@@V?$allocator@G@2@@_STL@@QAE@XZ
_TEXT	SEGMENT
??1?$basic_string@GV?$char_traits@G@_STL@@V?$allocator@G@2@@_STL@@QAE@XZ PROC NEAR ; _STL::basic_string<unsigned short,_STL::char_traits<unsigned short>,_STL::allocator<unsigned short> >::~basic_string<unsigned short,_STL::char_traits<unsigned short>,_STL::allocator<unsigned short> >, COMDAT
; _this$ = ecx

; 305  :   ~basic_string() { _STLP_STD::_Destroy(this->_M_start, this->_M_finish + 1); }

  00000	8b 11		 mov	 edx, DWORD PTR [ecx]
  00002	85 d2		 test	 edx, edx
  00004	74 24		 je	 SHORT $L79514
  00006	8b 41 08	 mov	 eax, DWORD PTR [ecx+8]
  00009	2b c2		 sub	 eax, edx
  0000b	d1 f8		 sar	 eax, 1
  0000d	d1 e0		 shl	 eax, 1
  0000f	3d 80 00 00 00	 cmp	 eax, 128		; 00000080H
  00014	76 0a		 jbe	 SHORT $L79513
  00016	52		 push	 edx
  00017	e8 00 00 00 00	 call	 ??3@YAXPAX@Z		; operator delete
  0001c	83 c4 04	 add	 esp, 4
  0001f	c3		 ret	 0
$L79513:
  00020	50		 push	 eax
  00021	52		 push	 edx
  00022	e8 00 00 00 00	 call	 ?_M_deallocate@?$__node_alloc@$00$0A@@_STL@@CAXPAXI@Z ; _STL::__node_alloc<1,0>::_M_deallocate
  00027	83 c4 08	 add	 esp, 8
$L79514:
  0002a	c3		 ret	 0
??1?$basic_string@GV?$char_traits@G@_STL@@V?$allocator@G@2@@_STL@@QAE@XZ ENDP ; _STL::basic_string<unsigned short,_STL::char_traits<unsigned short>,_STL::allocator<unsigned short> >::~basic_string<unsigned short,_STL::char_traits<unsigned short>,_STL::allocator<unsigned short> >
_TEXT	ENDS
PUBLIC	??0LineEditor@@QAE@XZ				; LineEditor::LineEditor
PUBLIC	?GetLineCount@LineEditor@@UBE?BHXZ		; LineEditor::GetLineCount
PUBLIC	?ReachEndOfBox@LineEditor@@UBE_NG@Z		; LineEditor::ReachEndOfBox
PUBLIC	??_7LineEditor@@6B@				; LineEditor::`vftable'
PUBLIC	??_R4LineEditor@@6B@				; LineEditor::`RTTI Complete Object Locator'
PUBLIC	??_R0?AVLineEditor@@@8				; LineEditor `RTTI Type Descriptor'
PUBLIC	??_R3LineEditor@@8				; LineEditor::`RTTI Class Hierarchy Descriptor'
PUBLIC	??_R2LineEditor@@8				; LineEditor::`RTTI Base Class Array'
PUBLIC	??_R1A@?0A@A@LineEditor@@8			; LineEditor::`RTTI Base Class Descriptor at (0,-1,0,0)'
EXTRN	??_7type_info@@6B@:QWORD			; type_info::`vftable'
;	COMDAT ??_7LineEditor@@6B@
; File c:\darkeden\designed_common\project\new - vs_ui\src\widget\u_edit.cpp
CONST	SEGMENT
??_7LineEditor@@6B@ DD FLAT:??_R4LineEditor@@6B@	; LineEditor::`vftable'
	DD	FLAT:?GetLineCount@LineEditor@@UBE?BHXZ
	DD	FLAT:?ReachEndOfBox@LineEditor@@UBE_NG@Z
CONST	ENDS
;	COMDAT ??_R4LineEditor@@6B@
rdata$r	SEGMENT
??_R4LineEditor@@6B@ DD 00H				; LineEditor::`RTTI Complete Object Locator'
	DD	00H
	DD	00H
	DD	FLAT:??_R0?AVLineEditor@@@8
	DD	FLAT:??_R3LineEditor@@8
rdata$r	ENDS
;	COMDAT ??_R0?AVLineEditor@@@8
_DATA	SEGMENT
??_R0?AVLineEditor@@@8 DD FLAT:??_7type_info@@6B@	; LineEditor `RTTI Type Descriptor'
	DD	00H
	DB	'.?AVLineEditor@@', 00H
_DATA	ENDS
;	COMDAT ??_R3LineEditor@@8
rdata$r	SEGMENT
??_R3LineEditor@@8 DD 00H				; LineEditor::`RTTI Class Hierarchy Descriptor'
	DD	00H
	DD	01H
	DD	FLAT:??_R2LineEditor@@8
rdata$r	ENDS
;	COMDAT ??_R2LineEditor@@8
rdata$r	SEGMENT
??_R2LineEditor@@8 DD FLAT:??_R1A@?0A@A@LineEditor@@8	; LineEditor::`RTTI Base Class Array'
rdata$r	ENDS
;	COMDAT ??_R1A@?0A@A@LineEditor@@8
rdata$r	SEGMENT
??_R1A@?0A@A@LineEditor@@8 DD FLAT:??_R0?AVLineEditor@@@8 ; LineEditor::`RTTI Base Class Descriptor at (0,-1,0,0)'
	DD	00H
	DD	00H
	DD	0ffffffffH
	DD	00H
	DD	00H
; Function compile flags: /Ogty
rdata$r	ENDS
;	COMDAT ??0LineEditor@@QAE@XZ
_TEXT	SEGMENT
??0LineEditor@@QAE@XZ PROC NEAR				; LineEditor::LineEditor, COMDAT
; _this$ = ecx

; 83   : {

  00000	56		 push	 esi
  00001	8b f1		 mov	 esi, ecx
  00003	8d 4e 04	 lea	 ecx, DWORD PTR [esi+4]
  00006	c7 06 00 00 00
	00		 mov	 DWORD PTR [esi], OFFSET FLAT:??_7LineEditor@@6B@
  0000c	e8 00 00 00 00	 call	 ??0?$basic_string@GV?$char_traits@G@_STL@@V?$allocator@G@2@@_STL@@QAE@XZ ; _STL::basic_string<unsigned short,_STL::char_traits<unsigned short>,_STL::allocator<unsigned short> >::basic_string<unsigned short,_STL::char_traits<unsigned short>,_STL::allocator<unsigned short> >

; 84   : 	Init();

  00011	33 c0		 xor	 eax, eax
  00013	83 c9 ff	 or	 ecx, -1
  00016	89 46 14	 mov	 DWORD PTR [esi+20], eax
  00019	89 46 1c	 mov	 DWORD PTR [esi+28], eax
  0001c	89 46 20	 mov	 DWORD PTR [esi+32], eax
  0001f	88 46 2c	 mov	 BYTE PTR [esi+44], al
  00022	88 46 2d	 mov	 BYTE PTR [esi+45], al
  00025	89 46 10	 mov	 DWORD PTR [esi+16], eax
  00028	c7 46 28 64 00
	00 00		 mov	 DWORD PTR [esi+40], 100	; 00000064H
  0002f	89 4e 24	 mov	 DWORD PTR [esi+36], ecx
  00032	89 4e 18	 mov	 DWORD PTR [esi+24], ecx

; 85   : }

  00035	8b c6		 mov	 eax, esi
  00037	5e		 pop	 esi
  00038	c3		 ret	 0
??0LineEditor@@QAE@XZ ENDP				; LineEditor::LineEditor
; Function compile flags: /Ogty
; File c:\darkeden\designed_common\project\new - vs_ui\src\widget\u_edit.h
_TEXT	ENDS
;	COMDAT ?GetLineCount@LineEditor@@UBE?BHXZ
_TEXT	SEGMENT
?GetLineCount@LineEditor@@UBE?BHXZ PROC NEAR		; LineEditor::GetLineCount, COMDAT
; _this$ = ecx

; 128  : 	virtual const int GetLineCount() const { return 0; }

  00000	33 c0		 xor	 eax, eax
  00002	c3		 ret	 0
?GetLineCount@LineEditor@@UBE?BHXZ ENDP			; LineEditor::GetLineCount
; Function compile flags: /Ogty
_TEXT	ENDS
;	COMDAT ?ReachEndOfBox@LineEditor@@UBE_NG@Z
_TEXT	SEGMENT
_will_input_char$ = 8					; size = 2
?ReachEndOfBox@LineEditor@@UBE_NG@Z PROC NEAR		; LineEditor::ReachEndOfBox, COMDAT
; _this$ = ecx

; 135  : 	virtual bool	ReachEndOfBox(char_t will_input_char) const { return false; }

  00000	32 c0		 xor	 al, al
  00002	c2 04 00	 ret	 4
?ReachEndOfBox@LineEditor@@UBE_NG@Z ENDP		; LineEditor::ReachEndOfBox
_TEXT	ENDS
PUBLIC	??0LineEditor@@QAE@H@Z				; LineEditor::LineEditor
; Function compile flags: /Ogty
; File c:\darkeden\designed_common\project\new - vs_ui\src\widget\u_edit.cpp
;	COMDAT ??0LineEditor@@QAE@H@Z
_TEXT	SEGMENT
_logical_size$ = 8					; size = 4
??0LineEditor@@QAE@H@Z PROC NEAR			; LineEditor::LineEditor, COMDAT
; _this$ = ecx

; 88   : {

  00000	56		 push	 esi
  00001	8b f1		 mov	 esi, ecx
  00003	8d 4e 04	 lea	 ecx, DWORD PTR [esi+4]
  00006	c7 06 00 00 00
	00		 mov	 DWORD PTR [esi], OFFSET FLAT:??_7LineEditor@@6B@
  0000c	e8 00 00 00 00	 call	 ??0?$basic_string@GV?$char_traits@G@_STL@@V?$allocator@G@2@@_STL@@QAE@XZ ; _STL::basic_string<unsigned short,_STL::char_traits<unsigned short>,_STL::allocator<unsigned short> >::basic_string<unsigned short,_STL::char_traits<unsigned short>,_STL::allocator<unsigned short> >

; 89   : 	Init();

  00011	33 c0		 xor	 eax, eax
  00013	83 c9 ff	 or	 ecx, -1
  00016	89 46 14	 mov	 DWORD PTR [esi+20], eax
  00019	89 46 1c	 mov	 DWORD PTR [esi+28], eax
  0001c	89 46 20	 mov	 DWORD PTR [esi+32], eax
  0001f	88 46 2c	 mov	 BYTE PTR [esi+44], al
  00022	88 46 2d	 mov	 BYTE PTR [esi+45], al
  00025	89 46 10	 mov	 DWORD PTR [esi+16], eax
  00028	c7 46 28 64 00
	00 00		 mov	 DWORD PTR [esi+40], 100	; 00000064H
  0002f	89 4e 24	 mov	 DWORD PTR [esi+36], ecx
  00032	89 4e 18	 mov	 DWORD PTR [esi+24], ecx

; 90   : //	SetLogicalSize(logical_size);
; 91   : }

  00035	8b c6		 mov	 eax, esi
  00037	5e		 pop	 esi
  00038	c2 04 00	 ret	 4
??0LineEditor@@QAE@H@Z ENDP				; LineEditor::LineEditor
_TEXT	ENDS
PUBLIC	??1LineEditor@@QAE@XZ				; LineEditor::~LineEditor
; Function compile flags: /Ogty
;	COMDAT ??1LineEditor@@QAE@XZ
_TEXT	SEGMENT
??1LineEditor@@QAE@XZ PROC NEAR				; LineEditor::~LineEditor, COMDAT
; _this$ = ecx

; 100  : 	if(IsAcquire())

  00000	39 0d 00 00 00
	00		 cmp	 DWORD PTR _gpC_focused_line_editor, ecx
  00006	c7 01 00 00 00
	00		 mov	 DWORD PTR [ecx], OFFSET FLAT:??_7LineEditor@@6B@
  0000c	75 0a		 jne	 SHORT $L79547

; 101  : 		Unacquire();

  0000e	c7 05 00 00 00
	00 00 00 00 00	 mov	 DWORD PTR _gpC_focused_line_editor, 0
$L79547:

; 102  : }

  00018	8b 51 04	 mov	 edx, DWORD PTR [ecx+4]
  0001b	85 d2		 test	 edx, edx
  0001d	74 24		 je	 SHORT $L79616
  0001f	8b 41 0c	 mov	 eax, DWORD PTR [ecx+12]
  00022	2b c2		 sub	 eax, edx
  00024	d1 f8		 sar	 eax, 1
  00026	d1 e0		 shl	 eax, 1
  00028	3d 80 00 00 00	 cmp	 eax, 128		; 00000080H
  0002d	76 0a		 jbe	 SHORT $L79615
  0002f	52		 push	 edx
  00030	e8 00 00 00 00	 call	 ??3@YAXPAX@Z		; operator delete
  00035	83 c4 04	 add	 esp, 4
  00038	c3		 ret	 0
$L79615:
  00039	50		 push	 eax
  0003a	52		 push	 edx
  0003b	e8 00 00 00 00	 call	 ?_M_deallocate@?$__node_alloc@$00$0A@@_STL@@CAXPAXI@Z ; _STL::__node_alloc<1,0>::_M_deallocate
  00040	83 c4 08	 add	 esp, 8
$L79616:
  00043	c3		 ret	 0
??1LineEditor@@QAE@XZ ENDP				; LineEditor::~LineEditor
_TEXT	ENDS
PUBLIC	??0LineEditorVisual@@QAE@XZ			; LineEditorVisual::LineEditorVisual
PUBLIC	?ReachEndOfBox@LineEditorVisual@@UBE_NG@Z	; LineEditorVisual::ReachEndOfBox
PUBLIC	??_7LineEditorVisual@@6B@			; LineEditorVisual::`vftable'
PUBLIC	??_R4LineEditorVisual@@6B@			; LineEditorVisual::`RTTI Complete Object Locator'
PUBLIC	??_R0?AVLineEditorVisual@@@8			; LineEditorVisual `RTTI Type Descriptor'
PUBLIC	??_R3LineEditorVisual@@8			; LineEditorVisual::`RTTI Class Hierarchy Descriptor'
PUBLIC	??_R2LineEditorVisual@@8			; LineEditorVisual::`RTTI Base Class Array'
PUBLIC	??_R1A@?0A@A@LineEditorVisual@@8		; LineEditorVisual::`RTTI Base Class Descriptor at (0,-1,0,0)'
EXTRN	??0Point@@QAE@XZ:NEAR				; Point::Point
;	COMDAT xdata$x
xdata$x	SEGMENT
$T79638	DD	0ffffffffH
	DD	FLAT:$L79624
$T79636	DD	019930520H
	DD	01H
	DD	FLAT:$T79638
	DD	2 DUP(00H)
	DD	2 DUP(00H)
xdata$x	ENDS
;	COMDAT ??_7LineEditorVisual@@6B@
CONST	SEGMENT
??_7LineEditorVisual@@6B@ DD FLAT:??_R4LineEditorVisual@@6B@ ; LineEditorVisual::`vftable'
	DD	FLAT:?GetLineCount@LineEditorVisual@@UBE?BHXZ
	DD	FLAT:?ReachEndOfBox@LineEditorVisual@@UBE_NG@Z
CONST	ENDS
;	COMDAT ??_R4LineEditorVisual@@6B@
rdata$r	SEGMENT
??_R4LineEditorVisual@@6B@ DD 00H			; LineEditorVisual::`RTTI Complete Object Locator'
	DD	00H
	DD	00H
	DD	FLAT:??_R0?AVLineEditorVisual@@@8
	DD	FLAT:??_R3LineEditorVisual@@8
rdata$r	ENDS
;	COMDAT ??_R0?AVLineEditorVisual@@@8
_DATA	SEGMENT
??_R0?AVLineEditorVisual@@@8 DD FLAT:??_7type_info@@6B@	; LineEditorVisual `RTTI Type Descriptor'
	DD	00H
	DB	'.?AVLineEditorVisual@@', 00H
_DATA	ENDS
;	COMDAT ??_R3LineEditorVisual@@8
rdata$r	SEGMENT
??_R3LineEditorVisual@@8 DD 00H				; LineEditorVisual::`RTTI Class Hierarchy Descriptor'
	DD	00H
	DD	02H
	DD	FLAT:??_R2LineEditorVisual@@8
rdata$r	ENDS
;	COMDAT ??_R2LineEditorVisual@@8
rdata$r	SEGMENT
??_R2LineEditorVisual@@8 DD FLAT:??_R1A@?0A@A@LineEditorVisual@@8 ; LineEditorVisual::`RTTI Base Class Array'
	DD	FLAT:??_R1A@?0A@A@LineEditor@@8
rdata$r	ENDS
;	COMDAT ??_R1A@?0A@A@LineEditorVisual@@8
rdata$r	SEGMENT
??_R1A@?0A@A@LineEditorVisual@@8 DD FLAT:??_R0?AVLineEditorVisual@@@8 ; LineEditorVisual::`RTTI Base Class Descriptor at (0,-1,0,0)'
	DD	01H
	DD	00H
	DD	0ffffffffH
	DD	00H
	DD	00H
; Function compile flags: /Ogty
rdata$r	ENDS
;	COMDAT ??0LineEditorVisual@@QAE@XZ
_TEXT	SEGMENT
_this$ = -16						; size = 4
__$EHRec$ = -12						; size = 12
??0LineEditorVisual@@QAE@XZ PROC NEAR			; LineEditorVisual::LineEditorVisual, COMDAT
; _this$ = ecx

; 867  : {

  00000	6a ff		 push	 -1
  00002	68 00 00 00 00	 push	 __ehhandler$??0LineEditorVisual@@QAE@XZ
  00007	64 a1 00 00 00
	00		 mov	 eax, DWORD PTR fs:__except_list
  0000d	50		 push	 eax
  0000e	64 89 25 00 00
	00 00		 mov	 DWORD PTR fs:__except_list, esp
  00015	51		 push	 ecx
  00016	53		 push	 ebx
  00017	56		 push	 esi
  00018	8b f1		 mov	 esi, ecx
  0001a	8d 4e 04	 lea	 ecx, DWORD PTR [esi+4]
  0001d	89 74 24 08	 mov	 DWORD PTR _this$[esp+24], esi
  00021	c7 06 00 00 00
	00		 mov	 DWORD PTR [esi], OFFSET FLAT:??_7LineEditor@@6B@
  00027	e8 00 00 00 00	 call	 ??0?$basic_string@GV?$char_traits@G@_STL@@V?$allocator@G@2@@_STL@@QAE@XZ ; _STL::basic_string<unsigned short,_STL::char_traits<unsigned short>,_STL::allocator<unsigned short> >::basic_string<unsigned short,_STL::char_traits<unsigned short>,_STL::allocator<unsigned short> >
  0002c	33 db		 xor	 ebx, ebx
  0002e	89 5e 14	 mov	 DWORD PTR [esi+20], ebx
  00031	c7 46 28 64 00
	00 00		 mov	 DWORD PTR [esi+40], 100	; 00000064H
  00038	c7 46 24 ff ff
	ff ff		 mov	 DWORD PTR [esi+36], -1
  0003f	c7 46 18 ff ff
	ff ff		 mov	 DWORD PTR [esi+24], -1
  00046	89 5e 1c	 mov	 DWORD PTR [esi+28], ebx
  00049	89 5e 20	 mov	 DWORD PTR [esi+32], ebx
  0004c	88 5e 2c	 mov	 BYTE PTR [esi+44], bl
  0004f	88 5e 2d	 mov	 BYTE PTR [esi+45], bl
  00052	89 5e 10	 mov	 DWORD PTR [esi+16], ebx
  00055	8d 4e 30	 lea	 ecx, DWORD PTR [esi+48]
  00058	89 5c 24 14	 mov	 DWORD PTR __$EHRec$[esp+32], ebx
  0005c	c7 06 00 00 00
	00		 mov	 DWORD PTR [esi], OFFSET FLAT:??_7LineEditorVisual@@6B@
  00062	e8 00 00 00 00	 call	 ??0Point@@QAE@XZ	; Point::Point

; 868  : 	m_print_info.bk_mode = TRANSPARENT;
; 869  : 	m_print_info.back_color = RGB(0, 0, 0);
; 870  : 	m_print_info.text_color = RGB(255, 255, 255);
; 871  : 	m_print_info.hfont = NULL;
; 872  : 	m_print_info.text_align = TA_LEFT;
; 873  : 
; 874  : //	m_reach_limit = 0;
; 875  : 	m_abs_width = -1;
; 876  : 	m_cursor_color = RGB(255, 255, 255);
; 877  : 
; 878  : 	m_nFontWidth = 0;
; 879  : 	m_nFontHight = 0;
; 880  : 
; 881  : }

  00067	8b 4c 24 0c	 mov	 ecx, DWORD PTR __$EHRec$[esp+24]
  0006b	b8 ff ff ff 00	 mov	 eax, 16777215		; 00ffffffH
  00070	89 46 44	 mov	 DWORD PTR [esi+68], eax
  00073	89 46 3c	 mov	 DWORD PTR [esi+60], eax
  00076	89 5e 48	 mov	 DWORD PTR [esi+72], ebx
  00079	89 5e 40	 mov	 DWORD PTR [esi+64], ebx
  0007c	89 5e 50	 mov	 DWORD PTR [esi+80], ebx
  0007f	89 5e 54	 mov	 DWORD PTR [esi+84], ebx
  00082	89 5e 58	 mov	 DWORD PTR [esi+88], ebx
  00085	c7 46 4c 01 00
	00 00		 mov	 DWORD PTR [esi+76], 1
  0008c	c7 46 38 ff ff
	ff ff		 mov	 DWORD PTR [esi+56], -1
  00093	8b c6		 mov	 eax, esi
  00095	5e		 pop	 esi
  00096	5b		 pop	 ebx
  00097	64 89 0d 00 00
	00 00		 mov	 DWORD PTR fs:__except_list, ecx
  0009e	83 c4 10	 add	 esp, 16			; 00000010H
  000a1	c3		 ret	 0
_TEXT	ENDS
;	COMDAT text$x
text$x	SEGMENT
$L79624:
  00000	8b 4d f0	 mov	 ecx, DWORD PTR _this$[ebp]
  00003	e9 00 00 00 00	 jmp	 ??1LineEditor@@QAE@XZ	; LineEditor::~LineEditor
__ehhandler$??0LineEditorVisual@@QAE@XZ:
  00008	b8 00 00 00 00	 mov	 eax, OFFSET FLAT:$T79636
  0000d	e9 00 00 00 00	 jmp	 ___CxxFrameHandler
text$x	ENDS
??0LineEditorVisual@@QAE@XZ ENDP			; LineEditorVisual::LineEditorVisual
PUBLIC	??1LineEditorVisual@@QAE@XZ			; LineEditorVisual::~LineEditorVisual
EXTRN	??1Point@@QAE@XZ:NEAR				; Point::~Point
;	COMDAT xdata$x
; File c:\stlport-4.6.1\stlport\stl\_new.h
xdata$x	SEGMENT
$T79753	DD	0ffffffffH
	DD	FLAT:$L79644
$T79751	DD	019930520H
	DD	01H
	DD	FLAT:$T79753
	DD	2 DUP(00H)
	DD	2 DUP(00H)
; Function compile flags: /Ogty
; File c:\darkeden\designed_common\project\new - vs_ui\src\widget\u_edit.cpp
xdata$x	ENDS
;	COMDAT ??1LineEditorVisual@@QAE@XZ
_TEXT	SEGMENT
_this$ = -16						; size = 4
__$EHRec$ = -12						; size = 12
??1LineEditorVisual@@QAE@XZ PROC NEAR			; LineEditorVisual::~LineEditorVisual, COMDAT
; _this$ = ecx

; 889  : {

  00000	6a ff		 push	 -1
  00002	68 00 00 00 00	 push	 __ehhandler$??1LineEditorVisual@@QAE@XZ
  00007	64 a1 00 00 00
	00		 mov	 eax, DWORD PTR fs:__except_list
  0000d	50		 push	 eax
  0000e	64 89 25 00 00
	00 00		 mov	 DWORD PTR fs:__except_list, esp
  00015	51		 push	 ecx
  00016	56		 push	 esi
  00017	8b f1		 mov	 esi, ecx
  00019	89 74 24 04	 mov	 DWORD PTR _this$[esp+20], esi
  0001d	c7 06 00 00 00
	00		 mov	 DWORD PTR [esi], OFFSET FLAT:??_7LineEditorVisual@@6B@

; 890  : 	
; 891  : }

  00023	8d 4e 30	 lea	 ecx, DWORD PTR [esi+48]
  00026	c7 44 24 10 00
	00 00 00	 mov	 DWORD PTR __$EHRec$[esp+28], 0
  0002e	e8 00 00 00 00	 call	 ??1Point@@QAE@XZ	; Point::~Point
  00033	39 35 00 00 00
	00		 cmp	 DWORD PTR _gpC_focused_line_editor, esi
  00039	c7 44 24 10 ff
	ff ff ff	 mov	 DWORD PTR __$EHRec$[esp+28], -1
  00041	c7 06 00 00 00
	00		 mov	 DWORD PTR [esi], OFFSET FLAT:??_7LineEditor@@6B@
  00047	75 0a		 jne	 SHORT $L79731
  00049	c7 05 00 00 00
	00 00 00 00 00	 mov	 DWORD PTR _gpC_focused_line_editor, 0
$L79731:
  00053	8b 4e 04	 mov	 ecx, DWORD PTR [esi+4]
  00056	85 c9		 test	 ecx, ecx
  00058	74 33		 je	 SHORT $L79746
  0005a	8b 46 0c	 mov	 eax, DWORD PTR [esi+12]
  0005d	2b c1		 sub	 eax, ecx
  0005f	d1 f8		 sar	 eax, 1
  00061	d1 e0		 shl	 eax, 1
  00063	3d 80 00 00 00	 cmp	 eax, 128		; 00000080H
  00068	76 19		 jbe	 SHORT $L79745
  0006a	51		 push	 ecx
  0006b	e8 00 00 00 00	 call	 ??3@YAXPAX@Z		; operator delete
  00070	83 c4 04	 add	 esp, 4
  00073	5e		 pop	 esi
  00074	8b 4c 24 04	 mov	 ecx, DWORD PTR __$EHRec$[esp+16]
  00078	64 89 0d 00 00
	00 00		 mov	 DWORD PTR fs:__except_list, ecx
  0007f	83 c4 10	 add	 esp, 16			; 00000010H
  00082	c3		 ret	 0
$L79745:
  00083	50		 push	 eax
  00084	51		 push	 ecx
  00085	e8 00 00 00 00	 call	 ?_M_deallocate@?$__node_alloc@$00$0A@@_STL@@CAXPAXI@Z ; _STL::__node_alloc<1,0>::_M_deallocate
  0008a	83 c4 08	 add	 esp, 8
$L79746:
  0008d	8b 4c 24 08	 mov	 ecx, DWORD PTR __$EHRec$[esp+20]
  00091	5e		 pop	 esi
  00092	64 89 0d 00 00
	00 00		 mov	 DWORD PTR fs:__except_list, ecx
  00099	83 c4 10	 add	 esp, 16			; 00000010H
  0009c	c3		 ret	 0
_TEXT	ENDS
;	COMDAT text$x
text$x	SEGMENT
$L79644:
  00000	8b 4d f0	 mov	 ecx, DWORD PTR _this$[ebp]
  00003	e9 00 00 00 00	 jmp	 ??1LineEditor@@QAE@XZ	; LineEditor::~LineEditor
__ehhandler$??1LineEditorVisual@@QAE@XZ:
  00008	b8 00 00 00 00	 mov	 eax, OFFSET FLAT:$T79751
  0000d	e9 00 00 00 00	 jmp	 ___CxxFrameHandler
text$x	ENDS
??1LineEditorVisual@@QAE@XZ ENDP			; LineEditorVisual::~LineEditorVisual
PUBLIC	?push_back@?$vector@HV?$allocator@H@_STL@@@_STL@@QAEXABH@Z ; _STL::vector<int,_STL::allocator<int> >::push_back
; Function compile flags: /Ogty
; File c:\stlport-4.6.1\stlport\stl\_vector.h
;	COMDAT ?push_back@?$vector@HV?$allocator@H@_STL@@@_STL@@QAEXABH@Z
_TEXT	SEGMENT
$T79759 = 8						; size = 1
___x$ = 8						; size = 4
?push_back@?$vector@HV?$allocator@H@_STL@@@_STL@@QAEXABH@Z PROC NEAR ; _STL::vector<int,_STL::allocator<int> >::push_back, COMDAT
; _this$ = ecx

; 332  :     if (this->_M_finish != this->_M_end_of_storage._M_data) {

  00000	8b 41 04	 mov	 eax, DWORD PTR [ecx+4]
  00003	3b 41 08	 cmp	 eax, DWORD PTR [ecx+8]
  00006	74 13		 je	 SHORT $L76033

; 333  :       _Construct(this->_M_finish, __x);

  00008	85 c0		 test	 eax, eax
  0000a	74 08		 je	 SHORT $L79770
  0000c	8b 54 24 04	 mov	 edx, DWORD PTR ___x$[esp-4]
  00010	8b 12		 mov	 edx, DWORD PTR [edx]
  00012	89 10		 mov	 DWORD PTR [eax], edx
$L79770:

; 334  :       ++this->_M_finish;

  00014	83 41 04 04	 add	 DWORD PTR [ecx+4], 4

; 338  :   }

  00018	c2 04 00	 ret	 4
$L76033:

; 335  :     }
; 336  :     else
; 337  :       _M_insert_overflow(this->_M_finish, __x, _IsPODType(), 1UL, true);

  0001b	6a 01		 push	 1
  0001d	6a 01		 push	 1
  0001f	8d 54 24 0c	 lea	 edx, DWORD PTR $T79759[esp+4]
  00023	52		 push	 edx
  00024	8b 54 24 10	 mov	 edx, DWORD PTR ___x$[esp+8]
  00028	52		 push	 edx
  00029	50		 push	 eax
  0002a	e8 00 00 00 00	 call	 ?_M_insert_overflow@?$vector@HV?$allocator@H@_STL@@@_STL@@IAEXPAHABHABU__true_type@2@I_N@Z ; _STL::vector<int,_STL::allocator<int> >::_M_insert_overflow

; 338  :   }

  0002f	c2 04 00	 ret	 4
?push_back@?$vector@HV?$allocator@H@_STL@@@_STL@@QAEXABH@Z ENDP ; _STL::vector<int,_STL::allocator<int> >::push_back
_TEXT	ENDS
PUBLIC	?push_back@?$basic_string@GV?$char_traits@G@_STL@@V?$allocator@G@2@@_STL@@QAEXG@Z ; _STL::basic_string<unsigned short,_STL::char_traits<unsigned short>,_STL::allocator<unsigned short> >::push_back
; Function compile flags: /Ogty
; File c:\stlport-4.6.1\stlport\stl\_string.h
;	COMDAT ?push_back@?$basic_string@GV?$char_traits@G@_STL@@V?$allocator@G@2@@_STL@@QAEXG@Z
_TEXT	SEGMENT
$T79778 = -8						; size = 4
$T79779 = -4						; size = 4
___c$ = 8						; size = 2
?push_back@?$basic_string@GV?$char_traits@G@_STL@@V?$allocator@G@2@@_STL@@QAEXG@Z PROC NEAR ; _STL::basic_string<unsigned short,_STL::char_traits<unsigned short>,_STL::allocator<unsigned short> >::push_back, COMDAT
; _this$ = ecx

; 517  :   void push_back(_CharT __c) {

  00000	83 ec 08	 sub	 esp, 8
  00003	56		 push	 esi
  00004	8b f1		 mov	 esi, ecx

; 518  :     if (this->_M_finish + 1 == this->_M_end_of_storage._M_data)

  00006	8b 46 04	 mov	 eax, DWORD PTR [esi+4]
  00009	8b 56 08	 mov	 edx, DWORD PTR [esi+8]
  0000c	8d 48 02	 lea	 ecx, DWORD PTR [eax+2]
  0000f	3b ca		 cmp	 ecx, edx
  00011	75 29		 jne	 SHORT $L76061

; 519  :       reserve(size() + (max)(size(), __STATIC_CAST(size_type,1)));

  00013	2b 06		 sub	 eax, DWORD PTR [esi]
  00015	d1 f8		 sar	 eax, 1
  00017	83 f8 01	 cmp	 eax, 1
  0001a	c7 44 24 04 01
	00 00 00	 mov	 DWORD PTR $T79778[esp+12], 1
  00022	89 44 24 08	 mov	 DWORD PTR $T79779[esp+12], eax
  00026	8d 4c 24 04	 lea	 ecx, DWORD PTR $T79778[esp+12]
  0002a	72 04		 jb	 SHORT $L79794
  0002c	8d 4c 24 08	 lea	 ecx, DWORD PTR $T79779[esp+12]
$L79794:
  00030	8b 11		 mov	 edx, DWORD PTR [ecx]
  00032	03 d0		 add	 edx, eax
  00034	52		 push	 edx
  00035	8b ce		 mov	 ecx, esi
  00037	e8 00 00 00 00	 call	 ?reserve@?$basic_string@GV?$char_traits@G@_STL@@V?$allocator@G@2@@_STL@@QAEXI@Z ; _STL::basic_string<unsigned short,_STL::char_traits<unsigned short>,_STL::allocator<unsigned short> >::reserve
$L76061:

; 520  :     _M_construct_null(this->_M_finish + 1);

  0003c	8b 46 04	 mov	 eax, DWORD PTR [esi+4]

; 521  :     _Traits::assign(*(this->_M_finish), __c);

  0003f	66 8b 54 24 10	 mov	 dx, WORD PTR ___c$[esp+8]
  00044	66 c7 40 02 00
	00		 mov	 WORD PTR [eax+2], 0
  0004a	8b 4e 04	 mov	 ecx, DWORD PTR [esi+4]
  0004d	66 89 11	 mov	 WORD PTR [ecx], dx

; 522  :     ++this->_M_finish;

  00050	83 46 04 02	 add	 DWORD PTR [esi+4], 2
  00054	5e		 pop	 esi

; 523  :   }

  00055	83 c4 08	 add	 esp, 8
  00058	c2 04 00	 ret	 4
?push_back@?$basic_string@GV?$char_traits@G@_STL@@V?$allocator@G@2@@_STL@@QAEXG@Z ENDP ; _STL::basic_string<unsigned short,_STL::char_traits<unsigned short>,_STL::allocator<unsigned short> >::push_back
_TEXT	ENDS
PUBLIC	??$insert@PBG@?$basic_string@GV?$char_traits@G@_STL@@V?$allocator@G@2@@_STL@@QAEXPAGPBG1@Z ; _STL::basic_string<unsigned short,_STL::char_traits<unsigned short>,_STL::allocator<unsigned short> >::insert<unsigned short const *>
; Function compile flags: /Ogty
;	COMDAT ??$insert@PBG@?$basic_string@GV?$char_traits@G@_STL@@V?$allocator@G@2@@_STL@@QAEXPAGPBG1@Z
_TEXT	SEGMENT
___p$ = 8						; size = 4
___first$ = 12						; size = 4
$T79818 = 16						; size = 1
___last$ = 16						; size = 4
??$insert@PBG@?$basic_string@GV?$char_traits@G@_STL@@V?$allocator@G@2@@_STL@@QAEXPAGPBG1@Z PROC NEAR ; _STL::basic_string<unsigned short,_STL::char_traits<unsigned short>,_STL::allocator<unsigned short> >::insert<unsigned short const *>, COMDAT
; _this$ = ecx

; 733  :     typedef typename _Is_integer<_InputIter>::_Integral _Integral;
; 734  :     _M_insert_dispatch(__p, __first, __last, _Integral());

  00000	8b 54 24 0c	 mov	 edx, DWORD PTR ___last$[esp-4]
  00004	8d 44 24 0c	 lea	 eax, DWORD PTR $T79818[esp-4]
  00008	50		 push	 eax
  00009	8b 44 24 0c	 mov	 eax, DWORD PTR ___first$[esp]
  0000d	52		 push	 edx
  0000e	8b 54 24 0c	 mov	 edx, DWORD PTR ___p$[esp+4]
  00012	50		 push	 eax
  00013	52		 push	 edx
  00014	e8 00 00 00 00	 call	 ??$insert@PBG@?$basic_string@GV?$char_traits@G@_STL@@V?$allocator@G@2@@_STL@@AAEXPAGPBG1ABUforward_iterator_tag@1@@Z ; _STL::basic_string<unsigned short,_STL::char_traits<unsigned short>,_STL::allocator<unsigned short> >::insert<unsigned short const *>

; 735  :   }

  00019	c2 0c 00	 ret	 12			; 0000000cH
??$insert@PBG@?$basic_string@GV?$char_traits@G@_STL@@V?$allocator@G@2@@_STL@@QAEXPAGPBG1@Z ENDP ; _STL::basic_string<unsigned short,_STL::char_traits<unsigned short>,_STL::allocator<unsigned short> >::insert<unsigned short const *>
_TEXT	ENDS
PUBLIC	??$append@PAG@?$basic_string@GV?$char_traits@G@_STL@@V?$allocator@G@2@@_STL@@QAEAAV01@PAG0@Z ; _STL::basic_string<unsigned short,_STL::char_traits<unsigned short>,_STL::allocator<unsigned short> >::append<unsigned short *>
; Function compile flags: /Ogty
;	COMDAT ??$append@PAG@?$basic_string@GV?$char_traits@G@_STL@@V?$allocator@G@2@@_STL@@QAEAAV01@PAG0@Z
_TEXT	SEGMENT
___first$ = 8						; size = 4
$T79827 = 12						; size = 1
___last$ = 12						; size = 4
??$append@PAG@?$basic_string@GV?$char_traits@G@_STL@@V?$allocator@G@2@@_STL@@QAEAAV01@PAG0@Z PROC NEAR ; _STL::basic_string<unsigned short,_STL::char_traits<unsigned short>,_STL::allocator<unsigned short> >::append<unsigned short *>, COMDAT
; _this$ = ecx

; 507  :     typedef typename _Is_integer<_InputIter>::_Integral _Integral;
; 508  :     return _M_append_dispatch(__first, __last, _Integral());

  00000	8b 54 24 08	 mov	 edx, DWORD PTR ___last$[esp-4]
  00004	8d 44 24 08	 lea	 eax, DWORD PTR $T79827[esp-4]
  00008	50		 push	 eax
  00009	8b 44 24 08	 mov	 eax, DWORD PTR ___first$[esp]
  0000d	52		 push	 edx
  0000e	50		 push	 eax
  0000f	e8 00 00 00 00	 call	 ??$append@PAG@?$basic_string@GV?$char_traits@G@_STL@@V?$allocator@G@2@@_STL@@AAEAAV01@PAG0ABUforward_iterator_tag@1@@Z ; _STL::basic_string<unsigned short,_STL::char_traits<unsigned short>,_STL::allocator<unsigned short> >::append<unsigned short *>

; 509  :   }

  00014	c2 08 00	 ret	 8
??$append@PAG@?$basic_string@GV?$char_traits@G@_STL@@V?$allocator@G@2@@_STL@@QAEAAV01@PAG0@Z ENDP ; _STL::basic_string<unsigned short,_STL::char_traits<unsigned short>,_STL::allocator<unsigned short> >::append<unsigned short *>
_TEXT	ENDS
PUBLIC	??Y?$basic_string@GV?$char_traits@G@_STL@@V?$allocator@G@2@@_STL@@QAEAAV01@G@Z ; _STL::basic_string<unsigned short,_STL::char_traits<unsigned short>,_STL::allocator<unsigned short> >::operator+=
; Function compile flags: /Ogty
;	COMDAT ??Y?$basic_string@GV?$char_traits@G@_STL@@V?$allocator@G@2@@_STL@@QAEAAV01@G@Z
_TEXT	SEGMENT
___c$ = 8						; size = 2
??Y?$basic_string@GV?$char_traits@G@_STL@@V?$allocator@G@2@@_STL@@QAEAAV01@G@Z PROC NEAR ; _STL::basic_string<unsigned short,_STL::char_traits<unsigned short>,_STL::allocator<unsigned short> >::operator+=, COMDAT
; _this$ = ecx

; 482  :   _Self& operator+=(_CharT __c) { push_back(__c); return *this; }

  00000	8b 44 24 04	 mov	 eax, DWORD PTR ___c$[esp-4]
  00004	56		 push	 esi
  00005	50		 push	 eax
  00006	8b f1		 mov	 esi, ecx
  00008	e8 00 00 00 00	 call	 ?push_back@?$basic_string@GV?$char_traits@G@_STL@@V?$allocator@G@2@@_STL@@QAEXG@Z ; _STL::basic_string<unsigned short,_STL::char_traits<unsigned short>,_STL::allocator<unsigned short> >::push_back
  0000d	8b c6		 mov	 eax, esi
  0000f	5e		 pop	 esi
  00010	c2 04 00	 ret	 4
??Y?$basic_string@GV?$char_traits@G@_STL@@V?$allocator@G@2@@_STL@@QAEAAV01@G@Z ENDP ; _STL::basic_string<unsigned short,_STL::char_traits<unsigned short>,_STL::allocator<unsigned short> >::operator+=
_TEXT	ENDS
PUBLIC	?insert@?$basic_string@GV?$char_traits@G@_STL@@V?$allocator@G@2@@_STL@@QAEAAV12@IPBG@Z ; _STL::basic_string<unsigned short,_STL::char_traits<unsigned short>,_STL::allocator<unsigned short> >::insert
; Function compile flags: /Ogty
;	COMDAT ?insert@?$basic_string@GV?$char_traits@G@_STL@@V?$allocator@G@2@@_STL@@QAEAAV12@IPBG@Z
_TEXT	SEGMENT
$T79875 = 8						; size = 1
___pos$ = 8						; size = 4
___s$ = 12						; size = 4
?insert@?$basic_string@GV?$char_traits@G@_STL@@V?$allocator@G@2@@_STL@@QAEAAV12@IPBG@Z PROC NEAR ; _STL::basic_string<unsigned short,_STL::char_traits<unsigned short>,_STL::allocator<unsigned short> >::insert, COMDAT
; _this$ = ecx

; 696  :   _Self& insert(size_type __pos, const _CharT* __s) {

  00000	53		 push	 ebx
  00001	55		 push	 ebp

; 697  :     _STLP_FIX_LITERAL_BUG(__s)
; 698  :     if (__pos > size())

  00002	8b 6c 24 0c	 mov	 ebp, DWORD PTR ___pos$[esp+4]
  00006	56		 push	 esi
  00007	57		 push	 edi
  00008	8b f9		 mov	 edi, ecx
  0000a	8b 47 04	 mov	 eax, DWORD PTR [edi+4]
  0000d	2b 07		 sub	 eax, DWORD PTR [edi]
  0000f	d1 f8		 sar	 eax, 1
  00011	3b e8		 cmp	 ebp, eax
  00013	76 0d		 jbe	 SHORT $L79838

; 699  :       this->_M_throw_out_of_range();

  00015	68 00 00 00 00	 push	 OFFSET FLAT:??_C@_0N@GOPDCEEB@basic_string?$AA@
  0001a	e8 00 00 00 00	 call	 ?__stl_throw_out_of_range@_STL@@YAXPBD@Z ; _STL::__stl_throw_out_of_range
  0001f	83 c4 04	 add	 esp, 4
$L79838:

; 700  :     size_type __len = _Traits::length(__s);

  00022	8b 5c 24 18	 mov	 ebx, DWORD PTR ___s$[esp+12]
  00026	33 f6		 xor	 esi, esi
  00028	66 39 33	 cmp	 WORD PTR [ebx], si
  0002b	74 0b		 je	 SHORT $L79849
  0002d	8d 49 00	 npad	 3
$L79847:
  00030	46		 inc	 esi
  00031	66 83 3c 73 00	 cmp	 WORD PTR [ebx+esi*2], 0
  00036	75 f8		 jne	 SHORT $L79847
$L79849:

; 701  :     if (size() > max_size() - __len)

  00038	8b 4f 04	 mov	 ecx, DWORD PTR [edi+4]
  0003b	2b 0f		 sub	 ecx, DWORD PTR [edi]
  0003d	ba fe ff ff 7f	 mov	 edx, 2147483646		; 7ffffffeH
  00042	d1 f9		 sar	 ecx, 1
  00044	2b d6		 sub	 edx, esi
  00046	3b ca		 cmp	 ecx, edx
  00048	76 0d		 jbe	 SHORT $L79865

; 702  :       this->_M_throw_length_error();

  0004a	68 00 00 00 00	 push	 OFFSET FLAT:??_C@_0N@GOPDCEEB@basic_string?$AA@
  0004f	e8 00 00 00 00	 call	 ?__stl_throw_length_error@_STL@@YAXPBD@Z ; _STL::__stl_throw_length_error
  00054	83 c4 04	 add	 esp, 4
$L79865:

; 703  :     insert(this->_M_start + __pos, __s, __s + __len);

  00057	8b 17		 mov	 edx, DWORD PTR [edi]
  00059	8d 44 24 14	 lea	 eax, DWORD PTR $T79875[esp+12]
  0005d	50		 push	 eax
  0005e	8d 0c 73	 lea	 ecx, DWORD PTR [ebx+esi*2]
  00061	51		 push	 ecx
  00062	53		 push	 ebx
  00063	8d 04 6a	 lea	 eax, DWORD PTR [edx+ebp*2]
  00066	50		 push	 eax
  00067	8b cf		 mov	 ecx, edi
  00069	e8 00 00 00 00	 call	 ??$insert@PBG@?$basic_string@GV?$char_traits@G@_STL@@V?$allocator@G@2@@_STL@@AAEXPAGPBG1ABUforward_iterator_tag@1@@Z ; _STL::basic_string<unsigned short,_STL::char_traits<unsigned short>,_STL::allocator<unsigned short> >::insert<unsigned short const *>

; 704  :     return *this;

  0006e	8b c7		 mov	 eax, edi
  00070	5f		 pop	 edi
  00071	5e		 pop	 esi
  00072	5d		 pop	 ebp
  00073	5b		 pop	 ebx

; 705  :   }

  00074	c2 08 00	 ret	 8
?insert@?$basic_string@GV?$char_traits@G@_STL@@V?$allocator@G@2@@_STL@@QAEAAV12@IPBG@Z ENDP ; _STL::basic_string<unsigned short,_STL::char_traits<unsigned short>,_STL::allocator<unsigned short> >::insert
_TEXT	ENDS
PUBLIC	??$_M_assign_dispatch@PAG@?$basic_string@GV?$char_traits@G@_STL@@V?$allocator@G@2@@_STL@@AAEAAV01@PAG0ABU__false_type@1@@Z ; _STL::basic_string<unsigned short,_STL::char_traits<unsigned short>,_STL::allocator<unsigned short> >::_M_assign_dispatch<unsigned short *>
; Function compile flags: /Ogty
;	COMDAT ??$_M_assign_dispatch@PAG@?$basic_string@GV?$char_traits@G@_STL@@V?$allocator@G@2@@_STL@@AAEAAV01@PAG0ABU__false_type@1@@Z
_TEXT	SEGMENT
$T79925 = 8						; size = 1
___f$ = 8						; size = 4
___l$ = 12						; size = 4
___formal$ = 16						; size = 4
??$_M_assign_dispatch@PAG@?$basic_string@GV?$char_traits@G@_STL@@V?$allocator@G@2@@_STL@@AAEAAV01@PAG0ABU__false_type@1@@Z PROC NEAR ; _STL::basic_string<unsigned short,_STL::char_traits<unsigned short>,_STL::allocator<unsigned short> >::_M_assign_dispatch<unsigned short *>, COMDAT
; _this$ = ecx

; 625  : 			    const __false_type&)  {
; 626  :     pointer __cur = this->_M_start;
; 627  :     while (__f != __l && __cur != this->_M_finish) {

  00000	8b 44 24 04	 mov	 eax, DWORD PTR ___f$[esp-4]
  00004	53		 push	 ebx
  00005	8b d9		 mov	 ebx, ecx
  00007	8b 4c 24 0c	 mov	 ecx, DWORD PTR ___l$[esp]
  0000b	3b c1		 cmp	 eax, ecx
  0000d	57		 push	 edi
  0000e	8b 3b		 mov	 edi, DWORD PTR [ebx]
  00010	74 1b		 je	 SHORT $L79930
$L76451:
  00012	3b 7b 04	 cmp	 edi, DWORD PTR [ebx+4]
  00015	74 12		 je	 SHORT $L76452

; 628  :       _Traits::assign(*__cur, *__f);

  00017	66 8b 10	 mov	 dx, WORD PTR [eax]
  0001a	66 89 17	 mov	 WORD PTR [edi], dx

; 629  :       ++__f;

  0001d	83 c0 02	 add	 eax, 2

; 630  :       ++__cur;

  00020	83 c7 02	 add	 edi, 2
  00023	3b c1		 cmp	 eax, ecx
  00025	75 eb		 jne	 SHORT $L76451

; 631  :     }
; 632  :     if (__f == __l)

  00027	eb 04		 jmp	 SHORT $L79930
$L76452:
  00029	3b c1		 cmp	 eax, ecx
  0002b	75 36		 jne	 SHORT $L76453
$L79930:
  0002d	56		 push	 esi

; 633  :       erase(__cur, end());

  0002e	8b 73 04	 mov	 esi, DWORD PTR [ebx+4]
  00031	3b fe		 cmp	 edi, esi
  00033	74 26		 je	 SHORT $L79931
  00035	8b c6		 mov	 eax, esi
  00037	2b c6		 sub	 eax, esi
  00039	d1 f8		 sar	 eax, 1
  0003b	40		 inc	 eax
  0003c	74 0d		 je	 SHORT $L79908
  0003e	03 c0		 add	 eax, eax
  00040	50		 push	 eax
  00041	56		 push	 esi
  00042	57		 push	 edi
  00043	e8 00 00 00 00	 call	 _memmove
  00048	83 c4 0c	 add	 esp, 12			; 0000000cH
$L79908:
  0004b	8b 43 04	 mov	 eax, DWORD PTR [ebx+4]
  0004e	2b f7		 sub	 esi, edi
  00050	d1 fe		 sar	 esi, 1
  00052	f7 de		 neg	 esi
  00054	d1 e6		 shl	 esi, 1
  00056	03 c6		 add	 eax, esi
  00058	89 43 04	 mov	 DWORD PTR [ebx+4], eax
$L79931:
  0005b	5e		 pop	 esi
  0005c	5f		 pop	 edi

; 636  :     return *this;

  0005d	8b c3		 mov	 eax, ebx
  0005f	5b		 pop	 ebx

; 637  :   }

  00060	c2 0c 00	 ret	 12			; 0000000cH
$L76453:

; 634  :     else
; 635  :       append(__f, __l);

  00063	8d 54 24 0c	 lea	 edx, DWORD PTR $T79925[esp+4]
  00067	52		 push	 edx
  00068	51		 push	 ecx
  00069	50		 push	 eax
  0006a	8b cb		 mov	 ecx, ebx
  0006c	e8 00 00 00 00	 call	 ??$append@PAG@?$basic_string@GV?$char_traits@G@_STL@@V?$allocator@G@2@@_STL@@AAEAAV01@PAG0ABUforward_iterator_tag@1@@Z ; _STL::basic_string<unsigned short,_STL::char_traits<unsigned short>,_STL::allocator<unsigned short> >::append<unsigned short *>
  00071	5f		 pop	 edi

; 636  :     return *this;

  00072	8b c3		 mov	 eax, ebx
  00074	5b		 pop	 ebx

; 637  :   }

  00075	c2 0c 00	 ret	 12			; 0000000cH
??$_M_assign_dispatch@PAG@?$basic_string@GV?$char_traits@G@_STL@@V?$allocator@G@2@@_STL@@AAEAAV01@PAG0ABU__false_type@1@@Z ENDP ; _STL::basic_string<unsigned short,_STL::char_traits<unsigned short>,_STL::allocator<unsigned short> >::_M_assign_dispatch<unsigned short *>
_TEXT	ENDS
PUBLIC	?AddString@LineEditor@@QAEXPBD@Z		; LineEditor::AddString
EXTRN	?g_ConvertAscii2DBCS@@YAHPBDHAAPAG@Z:NEAR	; g_ConvertAscii2DBCS
; Function compile flags: /Ogty
; File c:\darkeden\designed_common\project\new - vs_ui\src\widget\u_edit.cpp
;	COMDAT ?AddString@LineEditor@@QAEXPBD@Z
_TEXT	SEGMENT
_p_new_buf$75157 = 8					; size = 4
_sz_str$ = 8						; size = 4
?AddString@LineEditor@@QAEXPBD@Z PROC NEAR		; LineEditor::AddString, COMDAT
; _this$ = ecx

; 111  : 	/*
; 112  : 	if (sz_str != NULL)
; 113  : 	{
; 114  : 		for (int i=0; i < strlen(sz_str); i++)
; 115  : 		{
; 116  : 			EditToCursorPosition((char_t)sz_str[i]);
; 117  : 
; 118  : 			IncreaseCursor();
; 119  : 		}
; 120  : 	}*/
; 121  : 
; 122  : 	if (sz_str != NULL)

  00000	8b 54 24 04	 mov	 edx, DWORD PTR _sz_str$[esp-4]
  00004	85 d2		 test	 edx, edx
  00006	57		 push	 edi
  00007	8b f9		 mov	 edi, ecx
  00009	74 62		 je	 SHORT $L75160

; 123  : 	{
; 124  : 		char_t * p_new_buf = NULL;
; 125  : 		int dbcs_len = g_ConvertAscii2DBCS(sz_str, strlen(sz_str), p_new_buf);

  0000b	8b c2		 mov	 eax, edx
  0000d	56		 push	 esi
  0000e	c7 44 24 0c 00
	00 00 00	 mov	 DWORD PTR _p_new_buf$75157[esp+4], 0
  00016	8d 70 01	 lea	 esi, DWORD PTR [eax+1]
  00019	8d a4 24 00 00
	00 00		 npad	 7
$L79947:
  00020	8a 08		 mov	 cl, BYTE PTR [eax]
  00022	40		 inc	 eax
  00023	84 c9		 test	 cl, cl
  00025	75 f9		 jne	 SHORT $L79947
  00027	8d 4c 24 0c	 lea	 ecx, DWORD PTR _p_new_buf$75157[esp+4]
  0002b	51		 push	 ecx
  0002c	2b c6		 sub	 eax, esi
  0002e	50		 push	 eax
  0002f	52		 push	 edx
  00030	e8 00 00 00 00	 call	 ?g_ConvertAscii2DBCS@@YAHPBDHAAPAG@Z ; g_ConvertAscii2DBCS
  00035	8b f0		 mov	 esi, eax

; 126  : 		if (p_new_buf)

  00037	8b 44 24 18	 mov	 eax, DWORD PTR _p_new_buf$75157[esp+16]
  0003b	83 c4 0c	 add	 esp, 12			; 0000000cH
  0003e	85 c0		 test	 eax, eax
  00040	74 2a		 je	 SHORT $L79948

; 127  : 		{
; 128  : 			m_string.insert(Size(), p_new_buf);

  00042	8b 57 08	 mov	 edx, DWORD PTR [edi+8]
  00045	8d 4f 04	 lea	 ecx, DWORD PTR [edi+4]
  00048	50		 push	 eax
  00049	2b 11		 sub	 edx, DWORD PTR [ecx]
  0004b	d1 fa		 sar	 edx, 1
  0004d	52		 push	 edx
  0004e	e8 00 00 00 00	 call	 ?insert@?$basic_string@GV?$char_traits@G@_STL@@V?$allocator@G@2@@_STL@@QAEAAV12@IPBG@Z ; _STL::basic_string<unsigned short,_STL::char_traits<unsigned short>,_STL::allocator<unsigned short> >::insert

; 129  : 			m_cursor += dbcs_len;

  00053	8b 57 20	 mov	 edx, DWORD PTR [edi+32]

; 130  : 		}
; 131  : 
; 132  : 		DeleteNewArray(p_new_buf);

  00056	8b 44 24 0c	 mov	 eax, DWORD PTR _p_new_buf$75157[esp+4]
  0005a	03 d6		 add	 edx, esi
  0005c	85 c0		 test	 eax, eax
  0005e	89 57 20	 mov	 DWORD PTR [edi+32], edx
  00061	74 09		 je	 SHORT $L79948
  00063	50		 push	 eax
  00064	e8 00 00 00 00	 call	 ??_V@YAXPAX@Z		; operator delete[]
  00069	83 c4 04	 add	 esp, 4
$L79948:
  0006c	5e		 pop	 esi
$L75160:
  0006d	5f		 pop	 edi

; 133  : 	}
; 134  : }

  0006e	c2 04 00	 ret	 4
?AddString@LineEditor@@QAEXPBD@Z ENDP			; LineEditor::AddString
_TEXT	ENDS
PUBLIC	?InsertGap@LineEditor@@QAE_NXZ			; LineEditor::InsertGap
; Function compile flags: /Ogty
;	COMDAT ?InsertGap@LineEditor@@QAE_NXZ
_TEXT	SEGMENT
_buf$ = -4						; size = 4
?InsertGap@LineEditor@@QAE_NXZ PROC NEAR		; LineEditor::InsertGap, COMDAT
; _this$ = ecx

; 244  : {

  00000	51		 push	 ecx
  00001	56		 push	 esi
  00002	57		 push	 edi
  00003	8b f1		 mov	 esi, ecx

; 245  : //	DEBUG_ADD("[LineEditor] InsertGap");
; 246  : 	char_t buf[2];
; 247  : 	buf[0] = 0x0020; // space
; 248  : 	buf[1] = 0;
; 249  : 
; 250  : 	m_string.insert(m_cursor, buf);

  00005	8b 4e 20	 mov	 ecx, DWORD PTR [esi+32]
  00008	8d 44 24 08	 lea	 eax, DWORD PTR _buf$[esp+12]
  0000c	50		 push	 eax
  0000d	8d 7e 04	 lea	 edi, DWORD PTR [esi+4]
  00010	51		 push	 ecx
  00011	8b cf		 mov	 ecx, edi
  00013	66 c7 44 24 10
	20 00		 mov	 WORD PTR _buf$[esp+20], 32 ; 00000020H
  0001a	66 c7 44 24 12
	00 00		 mov	 WORD PTR _buf$[esp+22], 0
  00021	e8 00 00 00 00	 call	 ?insert@?$basic_string@GV?$char_traits@G@_STL@@V?$allocator@G@2@@_STL@@QAEAAV12@IPBG@Z ; _STL::basic_string<unsigned short,_STL::char_traits<unsigned short>,_STL::allocator<unsigned short> >::insert

; 251  : 
; 252  : 	if(m_editor_height > 0 && GetLineCount() > m_editor_height)

  00026	8b 46 14	 mov	 eax, DWORD PTR [esi+20]
  00029	85 c0		 test	 eax, eax
  0002b	7e 39		 jle	 SHORT $L75200
  0002d	8b 16		 mov	 edx, DWORD PTR [esi]
  0002f	8b ce		 mov	 ecx, esi
  00031	ff 12		 call	 DWORD PTR [edx]
  00033	3b 46 14	 cmp	 eax, DWORD PTR [esi+20]
  00036	7e 2e		 jle	 SHORT $L75200

; 253  : 	{
; 254  : 		m_string.erase(&m_string[m_cursor]);

  00038	8b 46 20	 mov	 eax, DWORD PTR [esi+32]
  0003b	8b 0f		 mov	 ecx, DWORD PTR [edi]
  0003d	8d 0c 41	 lea	 ecx, DWORD PTR [ecx+eax*2]
  00040	8b 47 04	 mov	 eax, DWORD PTR [edi+4]
  00043	2b c1		 sub	 eax, ecx
  00045	d1 f8		 sar	 eax, 1
  00047	85 c0		 test	 eax, eax
  00049	74 11		 je	 SHORT $L79970
  0004b	8d 14 00	 lea	 edx, DWORD PTR [eax+eax]
  0004e	52		 push	 edx
  0004f	8d 41 02	 lea	 eax, DWORD PTR [ecx+2]
  00052	50		 push	 eax
  00053	51		 push	 ecx
  00054	e8 00 00 00 00	 call	 _memmove
  00059	83 c4 0c	 add	 esp, 12			; 0000000cH
$L79970:
  0005c	83 47 04 fe	 add	 DWORD PTR [edi+4], -2	; fffffffeH
  00060	5f		 pop	 edi

; 255  : //		DEBUG_ADD("[LineEditor] InsertGap FALSE");
; 256  : 		return false;

  00061	32 c0		 xor	 al, al
  00063	5e		 pop	 esi

; 261  : }

  00064	59		 pop	 ecx
  00065	c3		 ret	 0
$L75200:
  00066	5f		 pop	 edi

; 257  : 	}
; 258  : 
; 259  : //	DEBUG_ADD("[LineEditor] InsertGap OK");
; 260  : 	return true;

  00067	b0 01		 mov	 al, 1
  00069	5e		 pop	 esi

; 261  : }

  0006a	59		 pop	 ecx
  0006b	c3		 ret	 0
?InsertGap@LineEditor@@QAE_NXZ ENDP			; LineEditor::InsertGap
_TEXT	ENDS
PUBLIC	?EditToCursorPosition@LineEditor@@QAEXG@Z	; LineEditor::EditToCursorPosition
; Function compile flags: /Ogty
;	COMDAT ?EditToCursorPosition@LineEditor@@QAEXG@Z
_TEXT	SEGMENT
_a_char$ = 8						; size = 2
?EditToCursorPosition@LineEditor@@QAEXG@Z PROC NEAR	; LineEditor::EditToCursorPosition, COMDAT
; _this$ = ecx

; 645  : {

  00000	56		 push	 esi
  00001	8b f1		 mov	 esi, ecx

; 646  : 	if (m_cursor > m_string.size())

  00003	8b 4e 04	 mov	 ecx, DWORD PTR [esi+4]
  00006	8b 46 08	 mov	 eax, DWORD PTR [esi+8]
  00009	2b c1		 sub	 eax, ecx
  0000b	8b 4e 20	 mov	 ecx, DWORD PTR [esi+32]
  0000e	d1 f8		 sar	 eax, 1
  00010	3b c8		 cmp	 ecx, eax
  00012	76 16		 jbe	 SHORT $L75338

; 647  : 		_Error(FAILED_JOB);

  00014	68 87 02 00 00	 push	 647			; 00000287H
  00019	68 00 00 00 00	 push	 OFFSET FLAT:??_C@_0EE@EDJMHLAP@?2darkeden?2Designed_Common?2Projec@
  0001e	6a 00		 push	 0
  00020	6a 04		 push	 4
  00022	e8 00 00 00 00	 call	 ?g_BasicException@@YAXW4EXCEPTION_CODE@@PAD1K@Z ; g_BasicException
  00027	83 c4 10	 add	 esp, 16			; 00000010H
$L75338:

; 648  : 
; 649  : 	if (m_cursor == m_string.size()) // end of string?

  0002a	8b 4e 08	 mov	 ecx, DWORD PTR [esi+8]
  0002d	8b 56 04	 mov	 edx, DWORD PTR [esi+4]
  00030	8b 46 20	 mov	 eax, DWORD PTR [esi+32]
  00033	2b ca		 sub	 ecx, edx
  00035	d1 f9		 sar	 ecx, 1
  00037	3b c1		 cmp	 eax, ecx
  00039	75 1e		 jne	 SHORT $L75340

; 650  : 	{
; 651  : 		//InsertToCursorPosition(a_char);
; 652  : 		if(InsertGap())

  0003b	8b ce		 mov	 ecx, esi
  0003d	e8 00 00 00 00	 call	 ?InsertGap@LineEditor@@QAE_NXZ ; LineEditor::InsertGap
  00042	84 c0		 test	 al, al
  00044	74 1f		 je	 SHORT $L75337

; 653  : 			m_string[m_cursor] = a_char;

  00046	8b 56 20	 mov	 edx, DWORD PTR [esi+32]
  00049	8b 46 04	 mov	 eax, DWORD PTR [esi+4]
  0004c	66 8b 4c 24 08	 mov	 cx, WORD PTR _a_char$[esp]
  00051	66 89 0c 50	 mov	 WORD PTR [eax+edx*2], cx
  00055	5e		 pop	 esi

; 658  : }

  00056	c2 04 00	 ret	 4
$L75340:

; 654  : 		return;
; 655  : 	}
; 656  : 	//else
; 657  : 	m_string[m_cursor] = a_char;

  00059	8b 56 04	 mov	 edx, DWORD PTR [esi+4]
  0005c	66 8b 4c 24 08	 mov	 cx, WORD PTR _a_char$[esp]
  00061	66 89 0c 42	 mov	 WORD PTR [edx+eax*2], cx
$L75337:
  00065	5e		 pop	 esi

; 658  : }

  00066	c2 04 00	 ret	 4
?EditToCursorPosition@LineEditor@@QAEXG@Z ENDP		; LineEditor::EditToCursorPosition
_TEXT	ENDS
PUBLIC	?InsertMark@LineEditor@@QAEXG@Z			; LineEditor::InsertMark
; Function compile flags: /Ogty
;	COMDAT ?InsertMark@LineEditor@@QAEXG@Z
_TEXT	SEGMENT
_a_char$ = 8						; size = 2
?InsertMark@LineEditor@@QAEXG@Z PROC NEAR		; LineEditor::InsertMark, COMDAT
; _this$ = ecx

; 679  : 	if (gC_ci->GetInsertModeState() == true) // insert?

  00000	a1 00 00 00 00	 mov	 eax, DWORD PTR ?gC_ci@@3PAVCI@@A ; gC_ci
  00005	56		 push	 esi
  00006	8b f1		 mov	 esi, ecx
  00008	80 78 04 01	 cmp	 BYTE PTR [eax+4], 1
  0000c	57		 push	 edi
  0000d	75 1d		 jne	 SHORT $L75353

; 680  : 	{
; 681  : 		if (CheckInputLimit(a_char) == true)

  0000f	8b 7c 24 0c	 mov	 edi, DWORD PTR _a_char$[esp+4]
  00013	57		 push	 edi
  00014	8b ce		 mov	 ecx, esi
  00016	e8 00 00 00 00	 call	 ?CheckInputLimit@LineEditor@@QAE_NG@Z ; LineEditor::CheckInputLimit
  0001b	3c 01		 cmp	 al, 1
  0001d	74 48		 je	 SHORT $L75352

; 682  : 			return;
; 683  : 		
; 684  : 		//InsertToCursorPosition((char_t)key);
; 685  : 		if(InsertGap())

  0001f	8b ce		 mov	 ecx, esi
  00021	e8 00 00 00 00	 call	 ?InsertGap@LineEditor@@QAE_NXZ ; LineEditor::InsertGap
  00026	84 c0		 test	 al, al
  00028	74 2b		 je	 SHORT $L75356

; 686  : 			EditToCursorPosition(a_char);
; 687  : 	}
; 688  : 	else

  0002a	eb 21		 jmp	 SHORT $L75358
$L75353:

; 689  : 	{
; 690  : 		if (m_cursor == m_string.size()) // at end?

  0002c	8b 7e 04	 mov	 edi, DWORD PTR [esi+4]
  0002f	8b 4e 08	 mov	 ecx, DWORD PTR [esi+8]
  00032	8b 46 20	 mov	 eax, DWORD PTR [esi+32]
  00035	2b cf		 sub	 ecx, edi
  00037	8b 7c 24 0c	 mov	 edi, DWORD PTR _a_char$[esp+4]
  0003b	d1 f9		 sar	 ecx, 1
  0003d	3b c1		 cmp	 eax, ecx
  0003f	75 0c		 jne	 SHORT $L75358

; 691  : 			if (CheckInputLimit(a_char) == true)

  00041	57		 push	 edi
  00042	8b ce		 mov	 ecx, esi
  00044	e8 00 00 00 00	 call	 ?CheckInputLimit@LineEditor@@QAE_NG@Z ; LineEditor::CheckInputLimit
  00049	3c 01		 cmp	 al, 1
  0004b	74 1a		 je	 SHORT $L75352
$L75358:

; 692  : 				return;
; 693  : 	
; 694  : 		EditToCursorPosition(a_char);

  0004d	8b ce		 mov	 ecx, esi
  0004f	57		 push	 edi
  00050	e8 00 00 00 00	 call	 ?EditToCursorPosition@LineEditor@@QAEXG@Z ; LineEditor::EditToCursorPosition
$L75356:

; 695  : 	}
; 696  : 				
; 697  : 	IncreaseCursor();

  00055	8b ce		 mov	 ecx, esi
  00057	e8 00 00 00 00	 call	 ?IncreaseCursor@LineEditor@@QAEHXZ ; LineEditor::IncreaseCursor

; 698  : 	gC_ci->ForceShowCursor();

  0005c	8b 0d 00 00 00
	00		 mov	 ecx, DWORD PTR ?gC_ci@@3PAVCI@@A ; gC_ci
  00062	e8 00 00 00 00	 call	 ?ForceShowCursor@CI@@QBEXXZ ; CI::ForceShowCursor
$L75352:
  00067	5f		 pop	 edi
  00068	5e		 pop	 esi

; 699  : }

  00069	c2 04 00	 ret	 4
?InsertMark@LineEditor@@QAEXG@Z ENDP			; LineEditor::InsertMark
_TEXT	ENDS
PUBLIC	?IME_StartComposition@@YAXXZ			; IME_StartComposition
EXTRN	?FinishImeRunning@CI@@QAEXXZ:NEAR		; CI::FinishImeRunning
; Function compile flags: /Ogty
;	COMDAT ?IME_StartComposition@@YAXXZ
_TEXT	SEGMENT
?IME_StartComposition@@YAXXZ PROC NEAR			; IME_StartComposition, COMDAT

; 738  : 	if (gpC_focused_line_editor != NULL && gpC_focused_line_editor->GetDigitOnlyMode() == false)

  00000	8b 0d 00 00 00
	00		 mov	 ecx, DWORD PTR _gpC_focused_line_editor
  00006	85 c9		 test	 ecx, ecx
  00008	74 53		 je	 SHORT $L75368
  0000a	8a 41 2c	 mov	 al, BYTE PTR [ecx+44]
  0000d	84 c0		 test	 al, al
  0000f	75 4c		 jne	 SHORT $L75368

; 739  : 	{
; 740  : 		if (gC_ci->GetInsertModeState() == true)

  00011	a1 00 00 00 00	 mov	 eax, DWORD PTR ?gC_ci@@3PAVCI@@A ; gC_ci
  00016	80 78 04 01	 cmp	 BYTE PTR [eax+4], 1

; 741  : 		{
; 742  : 			if (gpC_focused_line_editor->CheckInputLimit(0) == false)
; 743  : 			{
; 744  : 				if(gpC_focused_line_editor->InsertGap() == false)
; 745  : 				{
; 746  : 					gC_ci->FinishImeRunning();
; 747  : 					return;

  0001a	74 11		 je	 SHORT $L80030

; 748  : 				}
; 749  : 			}
; 750  : 			else
; 751  : 			{
; 752  : 				gC_ci->FinishImeRunning();
; 753  : 				return;
; 754  : 			}
; 755  : 		}
; 756  : 		else
; 757  : 		{
; 758  : 			if (gpC_focused_line_editor->GetCursor() == gpC_focused_line_editor->Size())

  0001c	8b 41 04	 mov	 eax, DWORD PTR [ecx+4]
  0001f	8b 51 08	 mov	 edx, DWORD PTR [ecx+8]
  00022	2b d0		 sub	 edx, eax
  00024	8b 41 20	 mov	 eax, DWORD PTR [ecx+32]
  00027	d1 fa		 sar	 edx, 1
  00029	3b c2		 cmp	 eax, edx
  0002b	75 2b		 jne	 SHORT $L75377
$L80030:

; 759  : 			{
; 760  : 				if (gpC_focused_line_editor->CheckInputLimit(0) == false)

  0002d	6a 00		 push	 0
  0002f	e8 00 00 00 00	 call	 ?CheckInputLimit@LineEditor@@QAE_NG@Z ; LineEditor::CheckInputLimit
  00034	84 c0		 test	 al, al
  00036	75 0f		 jne	 SHORT $L75375

; 761  : 				{
; 762  : 					if(gpC_focused_line_editor->InsertGap() == false)

  00038	8b 0d 00 00 00
	00		 mov	 ecx, DWORD PTR _gpC_focused_line_editor
  0003e	e8 00 00 00 00	 call	 ?InsertGap@LineEditor@@QAE_NXZ ; LineEditor::InsertGap
  00043	84 c0		 test	 al, al
  00045	75 0b		 jne	 SHORT $L80029
$L75375:

; 763  : 					{
; 764  : 						gC_ci->FinishImeRunning();

  00047	8b 0d 00 00 00
	00		 mov	 ecx, DWORD PTR ?gC_ci@@3PAVCI@@A ; gC_ci
  0004d	e9 00 00 00 00	 jmp	 ?FinishImeRunning@CI@@QAEXXZ ; CI::FinishImeRunning
$L80029:

; 765  : 						return;
; 766  : 					}
; 767  : 				}
; 768  : 				else
; 769  : 				{
; 770  : 					gC_ci->FinishImeRunning();
; 771  : 					return;

  00052	8b 0d 00 00 00
	00		 mov	 ecx, DWORD PTR _gpC_focused_line_editor
$L75377:

; 772  : 				}
; 773  : 			}
; 774  : 		}
; 775  : 
; 776  : 		gpC_focused_line_editor->IncreaseCursor();

  00058	e9 00 00 00 00	 jmp	 ?IncreaseCursor@LineEditor@@QAEHXZ ; LineEditor::IncreaseCursor
$L75368:

; 777  : 	}
; 778  : }

  0005d	c3		 ret	 0
?IME_StartComposition@@YAXXZ ENDP			; IME_StartComposition
_TEXT	ENDS
PUBLIC	?IME_NextComposition@CI_KOREAN@@UAEXXZ		; CI_KOREAN::IME_NextComposition
EXTRN	?GetEndOfIME@CI@@QAE_NXZ:NEAR			; CI::GetEndOfIME
; Function compile flags: /Ogty
;	COMDAT ?IME_NextComposition@CI_KOREAN@@UAEXXZ
_TEXT	SEGMENT
?IME_NextComposition@CI_KOREAN@@UAEXXZ PROC NEAR	; CI_KOREAN::IME_NextComposition, COMDAT
; _this$ = ecx

; 789  : 	if (gpC_focused_line_editor != NULL && gpC_focused_line_editor->GetDigitOnlyMode() == false)

  00000	a1 00 00 00 00	 mov	 eax, DWORD PTR _gpC_focused_line_editor
  00005	85 c0		 test	 eax, eax
  00007	0f 84 92 00 00
	00		 je	 $L75382
  0000d	8a 48 2c	 mov	 cl, BYTE PTR [eax+44]
  00010	84 c9		 test	 cl, cl
  00012	0f 85 87 00 00
	00		 jne	 $L75382

; 790  : 	{
; 791  : 		if (gC_ci->GetEndOfIME() == false)

  00018	8b 0d 00 00 00
	00		 mov	 ecx, DWORD PTR ?gC_ci@@3PAVCI@@A ; gC_ci
  0001e	e8 00 00 00 00	 call	 ?GetEndOfIME@CI@@QAE_NXZ ; CI::GetEndOfIME
  00023	84 c0		 test	 al, al
  00025	75 78		 jne	 SHORT $L75382

; 792  : 		{
; 793  : 			//
; 794  : 			// 문자보정
; 795  : 			//
; 796  : 			// '하세'에서 '핫'+'ㅔ'가 되면서 IME_NextComposition이 실행됨으로
; 797  : 			// 여기서 한 번 더 cursor가 이동되기 전에 edit 해줘야 한다.
; 798  : 			//
; 799  : 			if (gC_ci->ImeRunning() == true)

  00027	a1 00 00 00 00	 mov	 eax, DWORD PTR ?gC_ci@@3PAVCI@@A ; gC_ci
  0002c	80 78 06 01	 cmp	 BYTE PTR [eax+6], 1
  00030	75 15		 jne	 SHORT $L75383

; 800  : 				gpC_focused_line_editor->EditToCursorPositionForIME(gC_ci->GetComposingChar());

  00032	0f b7 40 0a	 movzx	 eax, WORD PTR [eax+10]
  00036	8b 0d 00 00 00
	00		 mov	 ecx, DWORD PTR _gpC_focused_line_editor
  0003c	50		 push	 eax
  0003d	e8 00 00 00 00	 call	 ?EditToCursorPositionForIME@LineEditor@@QAEXG@Z ; LineEditor::EditToCursorPositionForIME
  00042	a1 00 00 00 00	 mov	 eax, DWORD PTR ?gC_ci@@3PAVCI@@A ; gC_ci
$L75383:

; 801  : 
; 802  : 			if (gC_ci->GetInsertModeState() == true)

  00047	80 78 04 01	 cmp	 BYTE PTR [eax+4], 1

; 803  : 			{	
; 804  : 				if (gpC_focused_line_editor->CheckInputLimit(0/*gC_ci->GetComposingChar()*/) == false)

  0004b	8b 0d 00 00 00
	00		 mov	 ecx, DWORD PTR _gpC_focused_line_editor

; 805  : 				{
; 806  : 					if(gpC_focused_line_editor->InsertGap() == false)
; 807  : 					{
; 808  : 						gC_ci->FinishImeRunning();
; 809  : 						return;

  00051	74 11		 je	 SHORT $L80064

; 810  : 					}
; 811  : 				}
; 812  : 				else
; 813  : 				{
; 814  : 					gC_ci->FinishImeRunning();
; 815  : 					return;
; 816  : 				}
; 817  : 			}
; 818  : 			else
; 819  : 			{
; 820  : 				if (gpC_focused_line_editor->GetCursor() == gpC_focused_line_editor->Size())

  00053	8b 41 04	 mov	 eax, DWORD PTR [ecx+4]
  00056	8b 51 08	 mov	 edx, DWORD PTR [ecx+8]
  00059	2b d0		 sub	 edx, eax
  0005b	8b 41 20	 mov	 eax, DWORD PTR [ecx+32]
  0005e	d1 fa		 sar	 edx, 1
  00060	3b c2		 cmp	 eax, edx
  00062	75 2b		 jne	 SHORT $L75392
$L80064:

; 821  : 				{
; 822  : 					if (gpC_focused_line_editor->CheckInputLimit(0/*gC_ci->GetComposingChar()*/) == false)

  00064	6a 00		 push	 0
  00066	e8 00 00 00 00	 call	 ?CheckInputLimit@LineEditor@@QAE_NG@Z ; LineEditor::CheckInputLimit
  0006b	84 c0		 test	 al, al
  0006d	75 0f		 jne	 SHORT $L75390

; 823  : 					{
; 824  : 						if(gpC_focused_line_editor->InsertGap() == false)

  0006f	8b 0d 00 00 00
	00		 mov	 ecx, DWORD PTR _gpC_focused_line_editor
  00075	e8 00 00 00 00	 call	 ?InsertGap@LineEditor@@QAE_NXZ ; LineEditor::InsertGap
  0007a	84 c0		 test	 al, al
  0007c	75 0b		 jne	 SHORT $L80063
$L75390:

; 825  : 						{
; 826  : 							gC_ci->FinishImeRunning();

  0007e	8b 0d 00 00 00
	00		 mov	 ecx, DWORD PTR ?gC_ci@@3PAVCI@@A ; gC_ci
  00084	e9 00 00 00 00	 jmp	 ?FinishImeRunning@CI@@QAEXXZ ; CI::FinishImeRunning
$L80063:

; 827  : 							return;
; 828  : 						}
; 829  : 					}
; 830  : 					else
; 831  : 					{
; 832  : 						{
; 833  : 							gC_ci->FinishImeRunning();
; 834  : 							return;

  00089	8b 0d 00 00 00
	00		 mov	 ecx, DWORD PTR _gpC_focused_line_editor
$L75392:

; 835  : 						}
; 836  : 					}
; 837  : 				}
; 838  : 			}
; 839  : 
; 840  : 			gpC_focused_line_editor->IncreaseCursor();

  0008f	e8 00 00 00 00	 call	 ?IncreaseCursor@LineEditor@@QAEHXZ ; LineEditor::IncreaseCursor

; 841  : 			gC_ci->ForceShowCursor();

  00094	8b 0d 00 00 00
	00		 mov	 ecx, DWORD PTR ?gC_ci@@3PAVCI@@A ; gC_ci
  0009a	e9 00 00 00 00	 jmp	 ?ForceShowCursor@CI@@QBEXXZ ; CI::ForceShowCursor
$L75382:

; 842  : 		}
; 843  : 	}
; 844  : }

  0009f	c3		 ret	 0
?IME_NextComposition@CI_KOREAN@@UAEXXZ ENDP		; CI_KOREAN::IME_NextComposition
_TEXT	ENDS
PUBLIC	?Show@LineEditorVisual@@QBEXXZ			; LineEditorVisual::Show
PUBLIC	??_C@_02FCIFMLCO@?$LB?h?$AA@			; `string'
EXTRN	?gpC_fl2_surface@@3PAUIDirectDrawSurface7@@A:DWORD ; gpC_fl2_surface
EXTRN	__imp__CreatePen@12:NEAR
EXTRN	__imp__CreateSolidBrush@4:NEAR
EXTRN	__imp__DeleteObject@4:NEAR
EXTRN	?g_FL2_ReleaseDC@@YA_NXZ:NEAR			; g_FL2_ReleaseDC
EXTRN	__imp__MoveToEx@16:NEAR
EXTRN	__imp__TextOutA@20:NEAR
EXTRN	__imp__GetTextExtentPoint32A@16:NEAR
EXTRN	__imp__LineTo@12:NEAR
EXTRN	__imp__Rectangle@20:NEAR
EXTRN	__imp__SelectObject@8:NEAR
EXTRN	__imp__SetBkColor@8:NEAR
EXTRN	__imp__SetBkMode@8:NEAR
EXTRN	__imp__SetTextColor@8:NEAR
EXTRN	?GetCursorBlink@CI@@QBE_NXZ:NEAR		; CI::GetCursorBlink
EXTRN	__imp__GetTextMetricsA@8:NEAR
;	COMDAT xdata$x
; File c:\stlport-4.6.1\stlport\stl\_new.h
xdata$x	SEGMENT
$T80403	DD	0ffffffffH
	DD	FLAT:$L80084
	DD	00H
	DD	FLAT:$L80085
$T80356	DD	019930520H
	DD	02H
	DD	FLAT:$T80403
	DD	2 DUP(00H)
	DD	2 DUP(00H)
xdata$x	ENDS
;	COMDAT ??_C@_02FCIFMLCO@?$LB?h?$AA@
CONST	SEGMENT
??_C@_02FCIFMLCO@?$LB?h?$AA@ DB 0b1H, 0e8H, 00H		; `string'
; Function compile flags: /Ogty
; File c:\darkeden\designed_common\project\new - vs_ui\src\widget\u_edit.cpp
CONST	ENDS
;	COMDAT ?Show@LineEditorVisual@@QBEXXZ
_TEXT	SEGMENT
_str_buf$ = -140					; size = 4
_hdc$ = -136						; size = 4
_holdpen$75845 = -132					; size = 4
_str$75832 = -132					; size = 3
_len$ = -132						; size = 4
tv821 = -128						; size = 4
_holdbrush$75829 = -128					; size = 4
_print_y$ = -128					; size = 4
tv964 = -124						; size = 4
tv931 = -124						; size = 4
tv271 = -124						; size = 4
$T80073 = -124						; size = 4
tv869 = -120						; size = 4
_hbrush$75828 = -120					; size = 4
_cut$75807 = -120					; size = 4
$T80193 = -113						; size = 1
$T80164 = -113						; size = 1
_text_width$ = -112					; size = 4
_v_cut$ = -108						; size = 12
_password_string$ = -96					; size = 12
_hpen$75844 = -84					; size = 4
_dbcs_size$75831 = -84					; size = 8
_size$75823 = -76					; size = 8
_tm$75826 = -68						; size = 56
__$EHRec$ = -12						; size = 12
?Show@LineEditorVisual@@QBEXXZ PROC NEAR		; LineEditorVisual::Show, COMDAT
; _this$ = ecx

; 1030 : {

  00000	64 a1 00 00 00
	00		 mov	 eax, DWORD PTR fs:__except_list
  00006	6a ff		 push	 -1
  00008	68 00 00 00 00	 push	 __ehhandler$?Show@LineEditorVisual@@QBEXXZ
  0000d	50		 push	 eax

; 1031 : //	DEBUG_ADD("[LineEditorVisual] Show");
; 1032 : 
; 1033 : 	if (gpC_fl2_surface == NULL)

  0000e	a1 00 00 00 00	 mov	 eax, DWORD PTR ?gpC_fl2_surface@@3PAUIDirectDrawSurface7@@A ; gpC_fl2_surface
  00013	64 89 25 00 00
	00 00		 mov	 DWORD PTR fs:__except_list, esp
  0001a	81 ec 80 00 00
	00		 sub	 esp, 128		; 00000080H
  00020	55		 push	 ebp
  00021	33 ed		 xor	 ebp, ebp
  00023	3b c5		 cmp	 eax, ebp
  00025	56		 push	 esi
  00026	8b f1		 mov	 esi, ecx
  00028	0f 84 14 07 00
	00		 je	 $L80349

; 1034 : 	{
; 1035 : //		DEBUG_ADD("[LineEditorVisual] Show FALSE");
; 1036 : 		return;
; 1037 : 	}
; 1038 : 
; 1039 : 	g_FL2_ReleaseDC();

  0002e	e8 00 00 00 00	 call	 ?g_FL2_ReleaseDC@@YA_NXZ ; g_FL2_ReleaseDC

; 1040 : 
; 1041 : 	int text_width = g_GetStringWidth("a", m_print_info.hfont);

  00033	8b 46 40	 mov	 eax, DWORD PTR [esi+64]
  00036	50		 push	 eax
  00037	68 00 00 00 00	 push	 OFFSET FLAT:??_C@_01MCMALHOG@a?$AA@
  0003c	e8 00 00 00 00	 call	 ?g_GetStringWidth@@YAHPBDPAUHFONT__@@@Z ; g_GetStringWidth
  00041	83 c4 08	 add	 esp, 8

; 1042 : 
; 1043 : 	HDC hdc;
; 1044 : 	gpC_fl2_surface->GetDC(&hdc);

  00044	8d 54 24 0c	 lea	 edx, DWORD PTR _hdc$[esp+148]
  00048	89 44 24 24	 mov	 DWORD PTR _text_width$[esp+148], eax
  0004c	a1 00 00 00 00	 mov	 eax, DWORD PTR ?gpC_fl2_surface@@3PAUIDirectDrawSurface7@@A ; gpC_fl2_surface
  00051	8b 08		 mov	 ecx, DWORD PTR [eax]
  00053	52		 push	 edx
  00054	50		 push	 eax
  00055	ff 51 44	 call	 DWORD PTR [ecx+68]

; 1045 : 	if( m_print_info.hfont != NULL )

  00058	8b 46 40	 mov	 eax, DWORD PTR [esi+64]
  0005b	3b c5		 cmp	 eax, ebp
  0005d	74 0c		 je	 SHORT $L75487

; 1046 : 		SelectObject(hdc, m_print_info.hfont);

  0005f	50		 push	 eax
  00060	8b 44 24 10	 mov	 eax, DWORD PTR _hdc$[esp+152]
  00064	50		 push	 eax
  00065	ff 15 00 00 00
	00		 call	 DWORD PTR __imp__SelectObject@8
$L75487:

; 1047 : 
; 1048 : 	//
; 1049 : 	// set format
; 1050 : 	//
; 1051 : 	SetBkMode(hdc, m_print_info.bk_mode);

  0006b	8b 4e 4c	 mov	 ecx, DWORD PTR [esi+76]
  0006e	8b 54 24 0c	 mov	 edx, DWORD PTR _hdc$[esp+148]
  00072	53		 push	 ebx
  00073	57		 push	 edi
  00074	51		 push	 ecx
  00075	52		 push	 edx
  00076	ff 15 00 00 00
	00		 call	 DWORD PTR __imp__SetBkMode@8

; 1052 : 	SetTextColor(hdc, m_print_info.text_color);

  0007c	8b 46 44	 mov	 eax, DWORD PTR [esi+68]
  0007f	8b 4c 24 14	 mov	 ecx, DWORD PTR _hdc$[esp+156]
  00083	50		 push	 eax
  00084	51		 push	 ecx
  00085	ff 15 00 00 00
	00		 call	 DWORD PTR __imp__SetTextColor@8

; 1053 : 	SetBkColor(hdc, m_print_info.back_color);

  0008b	8b 56 48	 mov	 edx, DWORD PTR [esi+72]
  0008e	8b 44 24 14	 mov	 eax, DWORD PTR _hdc$[esp+156]
  00092	52		 push	 edx
  00093	50		 push	 eax
  00094	ff 15 00 00 00
	00		 call	 DWORD PTR __imp__SetBkColor@8

; 1054 : 	
; 1055 : //	DEBUG_ADD("[LineEditorVisual] Show 1");
; 1056 : 
; 1057 : 	String password_string;

  0009a	8d 4c 24 3c	 lea	 ecx, DWORD PTR _password_string$[esp+156]
  0009e	e8 00 00 00 00	 call	 ??0?$basic_string@GV?$char_traits@G@_STL@@V?$allocator@G@2@@_STL@@QAE@XZ ; _STL::basic_string<unsigned short,_STL::char_traits<unsigned short>,_STL::allocator<unsigned short> >::basic_string<unsigned short,_STL::char_traits<unsigned short>,_STL::allocator<unsigned short> >

; 1058 : 	int len = 0;
; 1059 : 	char * str_buf = NULL;
; 1060 : 
; 1061 : 	int print_y = m_xy.y, next = 0;
; 1062 : 	
; 1063 : 	if (m_bl_password_mode == true)

  000a3	80 7e 2d 01	 cmp	 BYTE PTR [esi+45], 1
  000a7	8b 4e 34	 mov	 ecx, DWORD PTR [esi+52]
  000aa	89 ac 24 98 00
	00 00		 mov	 DWORD PTR __$EHRec$[esp+164], ebp
  000b1	89 6c 24 10	 mov	 DWORD PTR _str_buf$[esp+156], ebp
  000b5	89 4c 24 1c	 mov	 DWORD PTR _print_y$[esp+156], ecx
  000b9	75 61		 jne	 SHORT $L75493

; 1064 : 	{
; 1065 : 		for (int i=0; i < m_string.size(); i++)

  000bb	8b 56 08	 mov	 edx, DWORD PTR [esi+8]
  000be	2b 56 04	 sub	 edx, DWORD PTR [esi+4]
  000c1	d1 fa		 sar	 edx, 1
  000c3	33 ff		 xor	 edi, edi
  000c5	85 d2		 test	 edx, edx
  000c7	76 1f		 jbe	 SHORT $L75497
  000c9	8d a4 24 00 00
	00 00		 npad	 7
$L75495:

; 1066 : 			password_string += (char_t)'*';

  000d0	6a 2a		 push	 42			; 0000002aH
  000d2	8d 4c 24 40	 lea	 ecx, DWORD PTR _password_string$[esp+160]
  000d6	e8 00 00 00 00	 call	 ?push_back@?$basic_string@GV?$char_traits@G@_STL@@V?$allocator@G@2@@_STL@@QAEXG@Z ; _STL::basic_string<unsigned short,_STL::char_traits<unsigned short>,_STL::allocator<unsigned short> >::push_back
  000db	8b 46 08	 mov	 eax, DWORD PTR [esi+8]
  000de	2b 46 04	 sub	 eax, DWORD PTR [esi+4]
  000e1	47		 inc	 edi
  000e2	d1 f8		 sar	 eax, 1
  000e4	3b f8		 cmp	 edi, eax
  000e6	72 e8		 jb	 SHORT $L75495
$L75497:

; 1067 : 		if(m_gap == 0)

  000e8	39 6e 10	 cmp	 DWORD PTR [esi+16], ebp
  000eb	75 1b		 jne	 SHORT $L75499

; 1068 : 			len = g_Convert_DBCS_Ascii2SingleByte(password_string.c_str()+m_scroll, password_string.size(), str_buf);

  000ed	8b 44 24 3c	 mov	 eax, DWORD PTR _password_string$[esp+156]
  000f1	8b 54 24 40	 mov	 edx, DWORD PTR _password_string$[esp+160]
  000f5	8d 4c 24 10	 lea	 ecx, DWORD PTR _str_buf$[esp+156]
  000f9	2b d0		 sub	 edx, eax
  000fb	51		 push	 ecx
  000fc	8b 4e 1c	 mov	 ecx, DWORD PTR [esi+28]
  000ff	d1 fa		 sar	 edx, 1
  00101	52		 push	 edx
  00102	8d 14 48	 lea	 edx, DWORD PTR [eax+ecx*2]
  00105	52		 push	 edx

; 1069 : 		else

  00106	eb 42		 jmp	 SHORT $L80398
$L75499:

; 1070 : 			len = g_Convert_DBCS_Ascii2SingleByte(password_string.c_str(), password_string.size(), str_buf);

  00108	8b 4c 24 40	 mov	 ecx, DWORD PTR _password_string$[esp+160]
  0010c	8d 44 24 10	 lea	 eax, DWORD PTR _str_buf$[esp+156]
  00110	50		 push	 eax
  00111	8b 44 24 40	 mov	 eax, DWORD PTR _password_string$[esp+160]
  00115	2b c8		 sub	 ecx, eax
  00117	d1 f9		 sar	 ecx, 1
  00119	51		 push	 ecx

; 1071 : 	}
; 1072 : 	else

  0011a	eb 2d		 jmp	 SHORT $L80399
$L75493:

; 1073 : 	{
; 1074 : 		if(m_gap == 0)

  0011c	39 6e 10	 cmp	 DWORD PTR [esi+16], ebp

; 1075 : 			len = g_Convert_DBCS_Ascii2SingleByte(m_string.c_str()+m_scroll, m_string.size(), str_buf);

  0011f	8b 46 04	 mov	 eax, DWORD PTR [esi+4]
  00122	75 17		 jne	 SHORT $L75502
  00124	8b 4e 08	 mov	 ecx, DWORD PTR [esi+8]
  00127	8d 54 24 10	 lea	 edx, DWORD PTR _str_buf$[esp+156]
  0012b	52		 push	 edx
  0012c	8b d0		 mov	 edx, eax
  0012e	2b ca		 sub	 ecx, edx
  00130	8b 56 1c	 mov	 edx, DWORD PTR [esi+28]
  00133	d1 f9		 sar	 ecx, 1
  00135	51		 push	 ecx
  00136	8d 04 50	 lea	 eax, DWORD PTR [eax+edx*2]

; 1076 : 		else

  00139	eb 0e		 jmp	 SHORT $L80399
$L75502:

; 1077 : 			len = g_Convert_DBCS_Ascii2SingleByte(m_string.c_str(), m_string.size(), str_buf);

  0013b	8b 56 08	 mov	 edx, DWORD PTR [esi+8]
  0013e	8d 4c 24 10	 lea	 ecx, DWORD PTR _str_buf$[esp+156]
  00142	51		 push	 ecx
  00143	2b 56 04	 sub	 edx, DWORD PTR [esi+4]
  00146	d1 fa		 sar	 edx, 1
  00148	52		 push	 edx
$L80399:
  00149	50		 push	 eax
$L80398:
  0014a	e8 00 00 00 00	 call	 ?g_Convert_DBCS_Ascii2SingleByte@@YAHPBGHAAPAD@Z ; g_Convert_DBCS_Ascii2SingleByte
  0014f	89 44 24 24	 mov	 DWORD PTR _len$[esp+168], eax

; 1078 : 	}
; 1079 : 	
; 1080 : //	DEBUG_ADD("[LineEditorVisual] Show 2");
; 1081 : 
; 1082 : 	std::vector<int> v_cut;

  00153	33 c0		 xor	 eax, eax
  00155	83 c4 0c	 add	 esp, 12			; 0000000cH
  00158	89 44 24 30	 mov	 DWORD PTR _v_cut$[esp+156], eax
  0015c	89 44 24 34	 mov	 DWORD PTR _v_cut$[esp+160], eax
  00160	89 44 24 38	 mov	 DWORD PTR _v_cut$[esp+164], eax

; 1083 : 	
; 1084 : 	// print_y 부분에 한계를 두어 체크를 한다.
; 1085 : 	if(str_buf)

  00164	8b 5c 24 10	 mov	 ebx, DWORD PTR _str_buf$[esp+156]
  00168	3b d8		 cmp	 ebx, eax
  0016a	c6 84 24 98 00
	00 00 01	 mov	 BYTE PTR __$EHRec$[esp+164], 1
  00172	0f 84 05 02 00
	00		 je	 $L75816

; 1086 : 	{
; 1087 : 		if(m_gap == 0)

  00178	39 46 10	 cmp	 DWORD PTR [esi+16], eax
  0017b	75 33		 jne	 SHORT $L75803

; 1088 : 		{
; 1089 : 			TextOut(hdc, m_xy.x, print_y, str_buf, min(len, m_reach_limit+1));

  0017d	8b 46 28	 mov	 eax, DWORD PTR [esi+40]
  00180	8b 4c 24 18	 mov	 ecx, DWORD PTR _len$[esp+156]
  00184	40		 inc	 eax
  00185	3b c8		 cmp	 ecx, eax
  00187	7d 02		 jge	 SHORT $L80070
  00189	8b c1		 mov	 eax, ecx
$L80070:
  0018b	8b 4e 30	 mov	 ecx, DWORD PTR [esi+48]
  0018e	8b 54 24 14	 mov	 edx, DWORD PTR _hdc$[esp+156]
  00192	50		 push	 eax
  00193	8b 44 24 20	 mov	 eax, DWORD PTR _print_y$[esp+160]
  00197	53		 push	 ebx
  00198	50		 push	 eax
  00199	51		 push	 ecx
  0019a	52		 push	 edx
  0019b	ff 15 00 00 00
	00		 call	 DWORD PTR __imp__TextOutA@20

; 1090 : 		}
; 1091 : 		else

  001a1	8b 5c 24 10	 mov	 ebx, DWORD PTR _str_buf$[esp+156]
  001a5	e9 be 01 00 00	 jmp	 $L75805
  001aa	8d 9b 00 00 00
	00		 npad	 6
$L75803:

; 1092 : 		{
; 1093 : 			do
; 1094 : 			{
; 1095 : 				if(str_buf+next == NULL)

  001b0	8d 04 2b	 lea	 eax, DWORD PTR [ebx+ebp]
  001b3	85 c0		 test	 eax, eax
  001b5	0f 84 ad 01 00
	00		 je	 $L75805

; 1096 : 					break;
; 1097 : 				
; 1098 : 				int cut = false;
; 1099 : 				char *enter_pos = strchr(str_buf+next, '\n');

  001bb	6a 0a		 push	 10			; 0000000aH
  001bd	50		 push	 eax
  001be	c7 44 24 2c 00
	00 00 00	 mov	 DWORD PTR _cut$75807[esp+164], 0
  001c6	e8 00 00 00 00	 call	 _strchr

; 1100 : 				if(enter_pos != NULL && enter_pos - (str_buf+next) < min(len-next, m_reach_limit+1))

  001cb	8b 4c 24 18	 mov	 ecx, DWORD PTR _str_buf$[esp+164]
  001cf	8b f8		 mov	 edi, eax
  001d1	83 c4 08	 add	 esp, 8
  001d4	85 ff		 test	 edi, edi
  001d6	0f 84 93 00 00
	00		 je	 $L80390
  001dc	8b 44 24 18	 mov	 eax, DWORD PTR _len$[esp+156]
  001e0	8b 56 28	 mov	 edx, DWORD PTR [esi+40]
  001e3	2b c5		 sub	 eax, ebp
  001e5	42		 inc	 edx
  001e6	3b c2		 cmp	 eax, edx
  001e8	7d 02		 jge	 SHORT $L80072
  001ea	8b d0		 mov	 edx, eax
$L80072:
  001ec	8b c7		 mov	 eax, edi
  001ee	2b c5		 sub	 eax, ebp
  001f0	2b c1		 sub	 eax, ecx
  001f2	3b c2		 cmp	 eax, edx
  001f4	7d 79		 jge	 SHORT $L80390

; 1101 : 				{
; 1102 : 					TextOut(hdc, m_xy.x, print_y, str_buf+next, enter_pos - (str_buf+next));

  001f6	8b 56 30	 mov	 edx, DWORD PTR [esi+48]
  001f9	50		 push	 eax
  001fa	8d 04 29	 lea	 eax, DWORD PTR [ecx+ebp]
  001fd	8b 4c 24 20	 mov	 ecx, DWORD PTR _print_y$[esp+160]
  00201	50		 push	 eax
  00202	8b 44 24 1c	 mov	 eax, DWORD PTR _hdc$[esp+164]
  00206	51		 push	 ecx
  00207	52		 push	 edx
  00208	50		 push	 eax
  00209	ff 15 00 00 00
	00		 call	 DWORD PTR __imp__TextOutA@20

; 1103 : 					v_cut.push_back(m_reach_limit - (enter_pos - (str_buf+next)));

  0020f	8b 46 28	 mov	 eax, DWORD PTR [esi+40]
  00212	8b 5c 24 10	 mov	 ebx, DWORD PTR _str_buf$[esp+156]
  00216	8b 4c 24 38	 mov	 ecx, DWORD PTR _v_cut$[esp+164]
  0021a	8b 54 24 34	 mov	 edx, DWORD PTR _v_cut$[esp+160]
  0021e	2b c7		 sub	 eax, edi
  00220	03 c5		 add	 eax, ebp
  00222	03 c3		 add	 eax, ebx
  00224	3b d1		 cmp	 edx, ecx
  00226	89 44 24 20	 mov	 DWORD PTR $T80073[esp+156], eax
  0022a	8b ca		 mov	 ecx, edx
  0022c	74 1b		 je	 SHORT $L80161
  0022e	85 c9		 test	 ecx, ecx
  00230	74 06		 je	 SHORT $L80167
  00232	89 01		 mov	 DWORD PTR [ecx], eax
  00234	8b 5c 24 10	 mov	 ebx, DWORD PTR _str_buf$[esp+156]
$L80167:
  00238	83 c1 04	 add	 ecx, 4

; 1104 : 					next += enter_pos - (str_buf+next)+1;

  0023b	2b fb		 sub	 edi, ebx
  0023d	47		 inc	 edi
  0023e	89 4c 24 34	 mov	 DWORD PTR _v_cut$[esp+160], ecx
  00242	8b ef		 mov	 ebp, edi

; 1105 : 				}
; 1106 : 				else

  00244	e9 e6 00 00 00	 jmp	 $L75811

; 1103 : 					v_cut.push_back(m_reach_limit - (enter_pos - (str_buf+next)));

$L80161:
  00249	6a 01		 push	 1
  0024b	6a 01		 push	 1
  0024d	8d 54 24 33	 lea	 edx, DWORD PTR $T80164[esp+164]
  00251	52		 push	 edx
  00252	8d 44 24 2c	 lea	 eax, DWORD PTR $T80073[esp+168]
  00256	50		 push	 eax
  00257	51		 push	 ecx
  00258	8d 4c 24 44	 lea	 ecx, DWORD PTR _v_cut$[esp+176]
  0025c	e8 00 00 00 00	 call	 ?_M_insert_overflow@?$vector@HV?$allocator@H@_STL@@@_STL@@IAEXPAHABHABU__true_type@2@I_N@Z ; _STL::vector<int,_STL::allocator<int> >::_M_insert_overflow
  00261	8b 5c 24 10	 mov	 ebx, DWORD PTR _str_buf$[esp+156]

; 1104 : 					next += enter_pos - (str_buf+next)+1;

  00265	2b fb		 sub	 edi, ebx
  00267	47		 inc	 edi
  00268	8b ef		 mov	 ebp, edi

; 1105 : 				}
; 1106 : 				else

  0026a	e9 c0 00 00 00	 jmp	 $L75811
$L80390:

; 1107 : 				{
; 1108 : 					TextOut(hdc, m_xy.x, print_y, str_buf+next, min(len-next, m_reach_limit+1));

  0026f	8b 7c 24 18	 mov	 edi, DWORD PTR _len$[esp+156]
  00273	8b 46 28	 mov	 eax, DWORD PTR [esi+40]
  00276	2b fd		 sub	 edi, ebp
  00278	40		 inc	 eax
  00279	3b f8		 cmp	 edi, eax
  0027b	7d 02		 jge	 SHORT $L80075
  0027d	8b c7		 mov	 eax, edi
$L80075:
  0027f	50		 push	 eax
  00280	8b 44 24 20	 mov	 eax, DWORD PTR _print_y$[esp+160]
  00284	8d 14 29	 lea	 edx, DWORD PTR [ecx+ebp]
  00287	8b 4e 30	 mov	 ecx, DWORD PTR [esi+48]
  0028a	52		 push	 edx
  0028b	8b 54 24 1c	 mov	 edx, DWORD PTR _hdc$[esp+164]
  0028f	50		 push	 eax
  00290	51		 push	 ecx
  00291	52		 push	 edx
  00292	ff 15 00 00 00
	00		 call	 DWORD PTR __imp__TextOutA@20

; 1109 : 					if(min(len-next, m_reach_limit+1) < strlen(str_buf))

  00298	8b 46 28	 mov	 eax, DWORD PTR [esi+40]
  0029b	8d 48 01	 lea	 ecx, DWORD PTR [eax+1]
  0029e	3b f9		 cmp	 edi, ecx
  002a0	89 7c 24 20	 mov	 DWORD PTR tv271[esp+156], edi
  002a4	7c 04		 jl	 SHORT $L80077
  002a6	89 4c 24 20	 mov	 DWORD PTR tv271[esp+156], ecx
$L80077:
  002aa	8b 44 24 10	 mov	 eax, DWORD PTR _str_buf$[esp+156]
  002ae	8d 58 01	 lea	 ebx, DWORD PTR [eax+1]
$L80373:
  002b1	8a 10		 mov	 dl, BYTE PTR [eax]
  002b3	40		 inc	 eax
  002b4	84 d2		 test	 dl, dl
  002b6	75 f9		 jne	 SHORT $L80373
  002b8	8b 54 24 20	 mov	 edx, DWORD PTR tv271[esp+156]
  002bc	2b c3		 sub	 eax, ebx
  002be	3b d0		 cmp	 edx, eax
  002c0	73 24		 jae	 SHORT $L80382

; 1110 : 						if(!g_PossibleStringCut(str_buf+next, min(len-next, m_reach_limit+1)))

  002c2	3b f9		 cmp	 edi, ecx
  002c4	7d 02		 jge	 SHORT $L80079
  002c6	8b cf		 mov	 ecx, edi
$L80079:
  002c8	8b 44 24 10	 mov	 eax, DWORD PTR _str_buf$[esp+156]
  002cc	51		 push	 ecx
  002cd	8d 0c 28	 lea	 ecx, DWORD PTR [eax+ebp]
  002d0	51		 push	 ecx
  002d1	e8 00 00 00 00	 call	 ?g_PossibleStringCut@@YA_NPBDH@Z ; g_PossibleStringCut
  002d6	83 c4 08	 add	 esp, 8
  002d9	84 c0		 test	 al, al
  002db	75 09		 jne	 SHORT $L80382

; 1111 : 						{
; 1112 : 							next--;

  002dd	4d		 dec	 ebp

; 1113 : 							cut = 1;

  002de	c7 44 24 24 01
	00 00 00	 mov	 DWORD PTR _cut$75807[esp+156], 1
$L80382:

; 1114 : 						}
; 1115 : 					v_cut.push_back(cut);

  002e6	8b 44 24 34	 mov	 eax, DWORD PTR _v_cut$[esp+160]
  002ea	3b 44 24 38	 cmp	 eax, DWORD PTR _v_cut$[esp+164]
  002ee	74 13		 je	 SHORT $L80190
  002f0	85 c0		 test	 eax, eax
  002f2	74 06		 je	 SHORT $L80196
  002f4	8b 54 24 24	 mov	 edx, DWORD PTR _cut$75807[esp+156]
  002f8	89 10		 mov	 DWORD PTR [eax], edx
$L80196:
  002fa	83 c0 04	 add	 eax, 4
  002fd	89 44 24 34	 mov	 DWORD PTR _v_cut$[esp+160], eax
  00301	eb 18		 jmp	 SHORT $L80191
$L80190:
  00303	6a 01		 push	 1
  00305	6a 01		 push	 1
  00307	8d 4c 24 33	 lea	 ecx, DWORD PTR $T80193[esp+164]
  0030b	51		 push	 ecx
  0030c	8d 54 24 30	 lea	 edx, DWORD PTR _cut$75807[esp+168]
  00310	52		 push	 edx
  00311	50		 push	 eax
  00312	8d 4c 24 44	 lea	 ecx, DWORD PTR _v_cut$[esp+176]
  00316	e8 00 00 00 00	 call	 ?_M_insert_overflow@?$vector@HV?$allocator@H@_STL@@@_STL@@IAEXPAHABHABU__true_type@2@I_N@Z ; _STL::vector<int,_STL::allocator<int> >::_M_insert_overflow
$L80191:

; 1116 : 					next += min(len, m_reach_limit+1);

  0031b	8b 46 28	 mov	 eax, DWORD PTR [esi+40]
  0031e	8b 4c 24 18	 mov	 ecx, DWORD PTR _len$[esp+156]
  00322	40		 inc	 eax
  00323	3b c8		 cmp	 ecx, eax
  00325	7d 02		 jge	 SHORT $L80081
  00327	8b c1		 mov	 eax, ecx
$L80081:
  00329	8b 5c 24 10	 mov	 ebx, DWORD PTR _str_buf$[esp+156]
  0032d	03 e8		 add	 ebp, eax
$L75811:

; 1117 : 				}
; 1118 : 				
; 1119 : 				print_y += m_gap;

  0032f	8b 46 10	 mov	 eax, DWORD PTR [esi+16]
  00332	8b 54 24 1c	 mov	 edx, DWORD PTR _print_y$[esp+156]
  00336	03 d0		 add	 edx, eax

; 1120 : 
; 1121 : 				if(m_editor_height != 0 && v_cut.size() >= m_editor_height)

  00338	8b 46 14	 mov	 eax, DWORD PTR [esi+20]
  0033b	85 c0		 test	 eax, eax
  0033d	89 54 24 1c	 mov	 DWORD PTR _print_y$[esp+156], edx
  00341	74 0f		 je	 SHORT $L75804
  00343	8b 4c 24 34	 mov	 ecx, DWORD PTR _v_cut$[esp+160]
  00347	2b 4c 24 30	 sub	 ecx, DWORD PTR _v_cut$[esp+156]
  0034b	c1 f9 02	 sar	 ecx, 2
  0034e	3b c8		 cmp	 ecx, eax
  00350	73 16		 jae	 SHORT $L75805
$L75804:

; 1122 : 					break;
; 1123 : 			}while(next < strlen(str_buf));

  00352	8b c3		 mov	 eax, ebx
  00354	8d 50 01	 lea	 edx, DWORD PTR [eax+1]
$L80374:
  00357	8a 08		 mov	 cl, BYTE PTR [eax]
  00359	40		 inc	 eax
  0035a	84 c9		 test	 cl, cl
  0035c	75 f9		 jne	 SHORT $L80374
  0035e	2b c2		 sub	 eax, edx
  00360	3b e8		 cmp	 ebp, eax
  00362	0f 82 48 fe ff
	ff		 jb	 $L75803
$L75805:

; 1124 : //			if(m_editor_height != 0 && v_cut.size() == m_editor_height && next > 0 && str_buf[next-1] == '\n')
; 1125 : //				v_cut.push_back(0);
; 1126 : 		}
; 1127 : 	}
; 1128 : 	//	char str_color[80];
; 1129 : 	//	wsprintf(str_color, "%x", m_print_info.text_color);
; 1130 : 	//	TextOut(hdc, m_xy.x, m_xy.y, str_color, strlen(str_color));
; 1131 : 	
; 1132 : //	DEBUG_ADD("[LineEditorVisual] Show 3");
; 1133 : 
; 1134 : 
; 1135 : 	//
; 1136 : 	// cursor
; 1137 : 	//
; 1138 : //	if(!(m_editor_height != 0 && v_cut.size() > m_editor_height))// && (strlen(str_buf+next) != 0 || next > 0 && str_buf[next-1] == '\n')))
; 1139 : 	{
; 1140 : 		if(str_buf != NULL)

  00368	85 db		 test	 ebx, ebx
  0036a	74 11		 je	 SHORT $L75816

; 1141 : 			DeleteNewArray(str_buf);

  0036c	53		 push	 ebx
  0036d	e8 00 00 00 00	 call	 ??_V@YAXPAX@Z		; operator delete[]
  00372	83 c4 04	 add	 esp, 4
  00375	c7 44 24 10 00
	00 00 00	 mov	 DWORD PTR _str_buf$[esp+156], 0
$L75816:

; 1142 : 
; 1143 : //		DEBUG_ADD("[LineEditorVisual] Show 4");
; 1144 : 
; 1145 : 		if (gC_ci->GetCursorBlink() == true && IsAcquire() == true)

  0037d	8b 0d 00 00 00
	00		 mov	 ecx, DWORD PTR ?gC_ci@@3PAVCI@@A ; gC_ci
  00383	e8 00 00 00 00	 call	 ?GetCursorBlink@CI@@QBE_NXZ ; CI::GetCursorBlink
  00388	3c 01		 cmp	 al, 1
  0038a	0f 85 01 03 00
	00		 jne	 $L75858
  00390	39 35 00 00 00
	00		 cmp	 DWORD PTR _gpC_focused_line_editor, esi
  00396	0f 85 f5 02 00
	00		 jne	 $L75858

; 1146 : 		{
; 1147 : 			if (m_bl_password_mode == true)

  0039c	80 7e 2d 01	 cmp	 BYTE PTR [esi+45], 1
  003a0	75 10		 jne	 SHORT $L75819

; 1148 : 				len = g_Convert_DBCS_Ascii2SingleByte(password_string.c_str(), m_cursor, str_buf);

  003a2	8b 46 20	 mov	 eax, DWORD PTR [esi+32]
  003a5	8b 4c 24 3c	 mov	 ecx, DWORD PTR _password_string$[esp+156]
  003a9	8d 54 24 10	 lea	 edx, DWORD PTR _str_buf$[esp+156]
  003ad	52		 push	 edx
  003ae	50		 push	 eax
  003af	51		 push	 ecx

; 1149 : 			else

  003b0	eb 29		 jmp	 SHORT $L80400
$L75819:

; 1150 : 			{
; 1151 : 				if(m_gap == 0)

  003b2	8b 46 10	 mov	 eax, DWORD PTR [esi+16]
  003b5	85 c0		 test	 eax, eax
  003b7	75 15		 jne	 SHORT $L75821

; 1152 : 					len = g_Convert_DBCS_Ascii2SingleByte(m_string.c_str()+m_scroll, m_cursor-m_scroll, str_buf);// - g_Convert_DBCS_Ascii2SingleByte(m_string.c_str(), m_scroll, str_buf);

  003b9	8b 46 1c	 mov	 eax, DWORD PTR [esi+28]
  003bc	8b 4e 04	 mov	 ecx, DWORD PTR [esi+4]
  003bf	8d 54 24 10	 lea	 edx, DWORD PTR _str_buf$[esp+156]
  003c3	52		 push	 edx
  003c4	8b 56 20	 mov	 edx, DWORD PTR [esi+32]
  003c7	2b d0		 sub	 edx, eax
  003c9	8d 04 41	 lea	 eax, DWORD PTR [ecx+eax*2]

; 1153 : 				else

  003cc	eb 0b		 jmp	 SHORT $L80401
$L75821:

; 1154 : 					len = g_Convert_DBCS_Ascii2SingleByte(m_string.c_str(), m_cursor, str_buf);// - g_Convert_DBCS_Ascii2SingleByte(m_string.c_str(), m_scroll, str_buf);

  003ce	8b 46 04	 mov	 eax, DWORD PTR [esi+4]
  003d1	8b 56 20	 mov	 edx, DWORD PTR [esi+32]
  003d4	8d 4c 24 10	 lea	 ecx, DWORD PTR _str_buf$[esp+156]
  003d8	51		 push	 ecx
$L80401:
  003d9	52		 push	 edx
  003da	50		 push	 eax
$L80400:
  003db	e8 00 00 00 00	 call	 ?g_Convert_DBCS_Ascii2SingleByte@@YAHPBGHAAPAD@Z ; g_Convert_DBCS_Ascii2SingleByte

; 1155 : 			}
; 1156 : 			
; 1157 : //			DEBUG_ADD("[LineEditorVisual] Show 4-1");
; 1158 : 
; 1159 : 			SIZE size;
; 1160 : 			GetTextExtentPoint32(hdc, str_buf, len, &size);

  003e0	8b 54 24 1c	 mov	 edx, DWORD PTR _str_buf$[esp+168]
  003e4	8b 3d 00 00 00
	00		 mov	 edi, DWORD PTR __imp__GetTextExtentPoint32A@16
  003ea	83 c4 0c	 add	 esp, 12			; 0000000cH
  003ed	8d 4c 24 50	 lea	 ecx, DWORD PTR _size$75823[esp+156]
  003f1	51		 push	 ecx
  003f2	50		 push	 eax
  003f3	8b 44 24 1c	 mov	 eax, DWORD PTR _hdc$[esp+164]
  003f7	52		 push	 edx
  003f8	50		 push	 eax
  003f9	ff d7		 call	 edi

; 1161 : 			
; 1162 : 			int px, py;
; 1163 : 			TEXTMETRIC tm;
; 1164 : 			GetTextMetrics(hdc, &tm);

  003fb	8b 54 24 14	 mov	 edx, DWORD PTR _hdc$[esp+156]
  003ff	8d 4c 24 58	 lea	 ecx, DWORD PTR _tm$75826[esp+156]
  00403	51		 push	 ecx
  00404	52		 push	 edx
  00405	ff 15 00 00 00
	00		 call	 DWORD PTR __imp__GetTextMetricsA@8

; 1165 : 			
; 1166 : 			//		SetROP2(hdc, R2_XORPEN);
; 1167 : 			
; 1168 : //			DEBUG_ADD("[LineEditorVisual] Show 4-2");
; 1169 : 			
; 1170 : 			if (gC_ci->ImeRunning() == true && m_bl_password_mode == false)

  0040b	a1 00 00 00 00	 mov	 eax, DWORD PTR ?gC_ci@@3PAVCI@@A ; gC_ci
  00410	80 78 06 01	 cmp	 BYTE PTR [eax+6], 1
  00414	0f 85 5d 01 00
	00		 jne	 $L75827
  0041a	8a 46 2d	 mov	 al, BYTE PTR [esi+45]
  0041d	84 c0		 test	 al, al
  0041f	0f 85 52 01 00
	00		 jne	 $L75827

; 1171 : 			{
; 1172 : //				DEBUG_ADD("[LineEditorVisual] Show 4-3");
; 1173 : 
; 1174 : 				HBRUSH hbrush = CreateSolidBrush(m_cursor_color);

  00425	8b 4e 3c	 mov	 ecx, DWORD PTR [esi+60]
  00428	51		 push	 ecx
  00429	ff 15 00 00 00
	00		 call	 DWORD PTR __imp__CreateSolidBrush@4

; 1175 : 				HBRUSH holdbrush = (HBRUSH)SelectObject(hdc, hbrush);

  0042f	8b 54 24 14	 mov	 edx, DWORD PTR _hdc$[esp+156]
  00433	50		 push	 eax
  00434	52		 push	 edx
  00435	89 44 24 2c	 mov	 DWORD PTR _hbrush$75828[esp+164], eax
  00439	ff 15 00 00 00
	00		 call	 DWORD PTR __imp__SelectObject@8

; 1176 : 				
; 1177 : 				// DBCS width
; 1178 : 				// text matric으로 얻은게 맞지 않은 것 같아서 그냥 한 문자의 길이를 구한다.
; 1179 : 				SIZE dbcs_size;
; 1180 : 				char str[] = "김";

  0043f	8a 0d 02 00 00
	00		 mov	 cl, BYTE PTR ??_C@_02FCIFMLCO@?$LB?h?$AA@+2
  00445	89 44 24 1c	 mov	 DWORD PTR _holdbrush$75829[esp+156], eax
  00449	66 a1 00 00 00
	00		 mov	 ax, WORD PTR ??_C@_02FCIFMLCO@?$LB?h?$AA@

; 1181 : 				GetTextExtentPoint32(hdc, str, 2, &dbcs_size);

  0044f	8d 54 24 48	 lea	 edx, DWORD PTR _dbcs_size$75831[esp+156]
  00453	52		 push	 edx
  00454	66 89 44 24 1c	 mov	 WORD PTR _str$75832[esp+160], ax
  00459	6a 02		 push	 2
  0045b	8d 44 24 20	 lea	 eax, DWORD PTR _str$75832[esp+164]
  0045f	88 4c 24 22	 mov	 BYTE PTR _str$75832[esp+166], cl
  00463	8b 4c 24 1c	 mov	 ecx, DWORD PTR _hdc$[esp+164]
  00467	50		 push	 eax
  00468	51		 push	 ecx
  00469	ff d7		 call	 edi

; 1182 : 				
; 1183 : 				px = m_xy.x+size.cx-dbcs_size.cx-1;

  0046b	8b 56 30	 mov	 edx, DWORD PTR [esi+48]
  0046e	8b 4c 24 48	 mov	 ecx, DWORD PTR _dbcs_size$75831[esp+156]
  00472	8b 44 24 50	 mov	 eax, DWORD PTR _size$75823[esp+156]

; 1184 : 				py = m_xy.y-1;

  00476	8b 6e 34	 mov	 ebp, DWORD PTR [esi+52]
  00479	2b d1		 sub	 edx, ecx
  0047b	8d 7c 02 ff	 lea	 edi, DWORD PTR [edx+eax-1]

; 1185 : 				
; 1186 : //				DEBUG_ADD("[LineEditorVisual] Show 4-4");
; 1187 : 				//editor mode일때
; 1188 : 				if(m_gap != 0)

  0047f	8b 46 10	 mov	 eax, DWORD PTR [esi+16]
  00482	4d		 dec	 ebp
  00483	85 c0		 test	 eax, eax
  00485	74 51		 je	 SHORT $L80383
  00487	8b 4e 28	 mov	 ecx, DWORD PTR [esi+40]
  0048a	8b 56 30	 mov	 edx, DWORD PTR [esi+48]

; 1189 : 				{
; 1190 : 					std::vector<int>::iterator itr = v_cut.begin();

  0048d	8b 44 24 30	 mov	 eax, DWORD PTR _v_cut$[esp+156]
  00491	8d 59 ff	 lea	 ebx, DWORD PTR [ecx-1]
  00494	0f af 5c 24 2c	 imul	 ebx, DWORD PTR _text_width$[esp+156]

; 1227 : 				HPEN holdpen = (HPEN)SelectObject(hdc, hpen);

  00499	03 da		 add	 ebx, edx
  0049b	89 5c 24 20	 mov	 DWORD PTR tv931[esp+156], ebx
  0049f	90		 npad	 1
$L75837:
  004a0	3b 7c 24 20	 cmp	 edi, DWORD PTR tv931[esp+156]
  004a4	7f 1e		 jg	 SHORT $L75839

; 1191 : 					
; 1192 : 					while(px > m_xy.x + (m_reach_limit-1)*text_width || itr != NULL && *itr > 1 && px - (m_reach_limit-1 - *itr)*text_width > m_xy.x)

  004a6	85 c0		 test	 eax, eax
  004a8	74 2e		 je	 SHORT $L80383
  004aa	8b 10		 mov	 edx, DWORD PTR [eax]
  004ac	83 fa 01	 cmp	 edx, 1
  004af	7e 27		 jle	 SHORT $L80383
  004b1	8b d9		 mov	 ebx, ecx
  004b3	2b da		 sub	 ebx, edx
  004b5	4b		 dec	 ebx
  004b6	0f af 5c 24 2c	 imul	 ebx, DWORD PTR _text_width$[esp+156]
  004bb	8b d7		 mov	 edx, edi
  004bd	2b d3		 sub	 edx, ebx
  004bf	3b 56 30	 cmp	 edx, DWORD PTR [esi+48]
  004c2	7e 14		 jle	 SHORT $L80383
$L75839:

; 1193 : 					{
; 1194 : 						px -= (m_reach_limit+1)*text_width;
; 1195 : 						py += m_gap;

  004c4	03 6e 10	 add	 ebp, DWORD PTR [esi+16]

; 1196 : 						px += (*itr)*text_width;

  004c7	8b 10		 mov	 edx, DWORD PTR [eax]
  004c9	2b d1		 sub	 edx, ecx

; 1272 : 
; 1273 : //	DEBUG_ADD("[LineEditorVisual] Show OK");
; 1274 : 
; 1275 : }

  004cb	4a		 dec	 edx
  004cc	0f af 54 24 2c	 imul	 edx, DWORD PTR _text_width$[esp+156]
  004d1	03 fa		 add	 edi, edx
  004d3	83 c0 04	 add	 eax, 4
  004d6	eb c8		 jmp	 SHORT $L75837
$L80383:

; 1197 : 						itr++;
; 1198 : 					}
; 1199 : 				}
; 1200 : 
; 1201 : //				DEBUG_ADD("[LineEditorVisual] Show 4-5");
; 1202 : 				
; 1203 : 				if(!(m_editor_height != 0 && (py - (m_xy.y-1))/m_gap >= m_editor_height))

  004d8	8b 4e 14	 mov	 ecx, DWORD PTR [esi+20]
  004db	85 c9		 test	 ecx, ecx
  004dd	74 10		 je	 SHORT $L75841
  004df	8b 56 34	 mov	 edx, DWORD PTR [esi+52]
  004e2	8b c5		 mov	 eax, ebp
  004e4	2b c2		 sub	 eax, edx
  004e6	40		 inc	 eax
  004e7	99		 cdq
  004e8	f7 7e 10	 idiv	 DWORD PTR [esi+16]
  004eb	3b c1		 cmp	 eax, ecx
  004ed	7d 68		 jge	 SHORT $L75842
$L75841:

; 1204 : 				{
; 1205 : 					Rectangle(hdc, px, py, px+dbcs_size.cx+2, py+tm.tmHeight+2);

  004ef	8b 44 24 58	 mov	 eax, DWORD PTR _tm$75826[esp+156]
  004f3	8b 54 24 48	 mov	 edx, DWORD PTR _dbcs_size$75831[esp+156]
  004f7	8d 4c 28 02	 lea	 ecx, DWORD PTR [eax+ebp+2]
  004fb	51		 push	 ecx
  004fc	8b 4c 24 18	 mov	 ecx, DWORD PTR _hdc$[esp+160]
  00500	8d 44 3a 02	 lea	 eax, DWORD PTR [edx+edi+2]
  00504	50		 push	 eax
  00505	55		 push	 ebp
  00506	57		 push	 edi
  00507	51		 push	 ecx
  00508	ff 15 00 00 00
	00		 call	 DWORD PTR __imp__Rectangle@20

; 1206 : 					
; 1207 : 					if(str_buf)

  0050e	8b 44 24 10	 mov	 eax, DWORD PTR _str_buf$[esp+156]
  00512	85 c0		 test	 eax, eax
  00514	74 41		 je	 SHORT $L75842

; 1208 : 					{
; 1209 : 						SetTextColor(hdc, m_cursor_color^0xffffff);

  00516	8b 56 3c	 mov	 edx, DWORD PTR [esi+60]
  00519	8b 44 24 14	 mov	 eax, DWORD PTR _hdc$[esp+156]
  0051d	81 f2 ff ff ff
	00		 xor	 edx, 16777215		; 00ffffffH
  00523	52		 push	 edx
  00524	50		 push	 eax
  00525	ff 15 00 00 00
	00		 call	 DWORD PTR __imp__SetTextColor@8

; 1210 : 						TextOut(hdc, px+1, py+1, str_buf+strlen(str_buf)-2, 2);

  0052b	8b 54 24 10	 mov	 edx, DWORD PTR _str_buf$[esp+156]
  0052f	8b c2		 mov	 eax, edx
  00531	8d 70 01	 lea	 esi, DWORD PTR [eax+1]
$L80375:
  00534	8a 08		 mov	 cl, BYTE PTR [eax]
  00536	40		 inc	 eax
  00537	84 c9		 test	 cl, cl
  00539	75 f9		 jne	 SHORT $L80375
  0053b	2b c6		 sub	 eax, esi
  0053d	6a 02		 push	 2
  0053f	8d 4c 10 fe	 lea	 ecx, DWORD PTR [eax+edx-2]
  00543	51		 push	 ecx
  00544	8b 4c 24 1c	 mov	 ecx, DWORD PTR _hdc$[esp+164]
  00548	8d 55 01	 lea	 edx, DWORD PTR [ebp+1]
  0054b	52		 push	 edx
  0054c	8d 47 01	 lea	 eax, DWORD PTR [edi+1]
  0054f	50		 push	 eax
  00550	51		 push	 ecx
  00551	ff 15 00 00 00
	00		 call	 DWORD PTR __imp__TextOutA@20
$L75842:

; 1211 : 					}
; 1212 : 				}
; 1213 : 				
; 1214 : //				DEBUG_ADD("[LineEditorVisual] Show 4-6");
; 1215 : 
; 1216 : 				DeleteObject(hbrush);

  00557	8b 54 24 24	 mov	 edx, DWORD PTR _hbrush$75828[esp+156]
  0055b	52		 push	 edx
  0055c	ff 15 00 00 00
	00		 call	 DWORD PTR __imp__DeleteObject@4

; 1217 : 				
; 1218 : 				SelectObject(hdc, holdbrush);

  00562	8b 44 24 1c	 mov	 eax, DWORD PTR _holdbrush$75829[esp+156]
  00566	8b 4c 24 14	 mov	 ecx, DWORD PTR _hdc$[esp+156]
  0056a	50		 push	 eax
  0056b	51		 push	 ecx
  0056c	ff 15 00 00 00
	00		 call	 DWORD PTR __imp__SelectObject@8

; 1219 : 
; 1220 : //				DEBUG_ADD("[LineEditorVisual] Show 4-7");
; 1221 : 			}
; 1222 : 			else

  00572	e9 f2 00 00 00	 jmp	 $L75843
$L75827:

; 1223 : 			{
; 1224 : //				DEBUG_ADD("[LineEditorVisual] Show 4-8");
; 1225 : 
; 1226 : 				HPEN hpen = CreatePen(PS_SOLID, 2, m_cursor_color);

  00577	8b 56 3c	 mov	 edx, DWORD PTR [esi+60]
  0057a	52		 push	 edx
  0057b	6a 02		 push	 2
  0057d	6a 00		 push	 0
  0057f	ff 15 00 00 00
	00		 call	 DWORD PTR __imp__CreatePen@12

; 1227 : 				HPEN holdpen = (HPEN)SelectObject(hdc, hpen);

  00585	50		 push	 eax
  00586	89 44 24 4c	 mov	 DWORD PTR _hpen$75844[esp+160], eax
  0058a	8b 44 24 18	 mov	 eax, DWORD PTR _hdc$[esp+160]
  0058e	50		 push	 eax
  0058f	ff 15 00 00 00
	00		 call	 DWORD PTR __imp__SelectObject@8

; 1228 : 				
; 1229 : 				px = m_xy.x+size.cx+1;

  00595	8b 4c 24 50	 mov	 ecx, DWORD PTR _size$75823[esp+156]
  00599	8b 7e 30	 mov	 edi, DWORD PTR [esi+48]

; 1230 : 				py = m_xy.y;

  0059c	8b 6e 34	 mov	 ebp, DWORD PTR [esi+52]
  0059f	8d 7c 0f 01	 lea	 edi, DWORD PTR [edi+ecx+1]

; 1231 : 				
; 1232 : 				//editor mode일때
; 1233 : 				if(m_gap != 0)

  005a3	8b 4e 10	 mov	 ecx, DWORD PTR [esi+16]
  005a6	85 c9		 test	 ecx, ecx
  005a8	89 44 24 18	 mov	 DWORD PTR _holdpen$75845[esp+156], eax
  005ac	89 6c 24 1c	 mov	 DWORD PTR tv821[esp+156], ebp
  005b0	74 61		 je	 SHORT $L80386

; 1234 : 				{
; 1235 : 					std::vector<int>::iterator itr = v_cut.begin();

  005b2	8b 44 24 30	 mov	 eax, DWORD PTR _v_cut$[esp+156]

; 1236 : 					while(itr != v_cut.end() && (px > m_xy.x + (m_reach_limit+1)*text_width || itr != NULL && *itr > 1 && px - (m_reach_limit+1 - *itr)*text_width > m_xy.x))

  005b6	3b 44 24 34	 cmp	 eax, DWORD PTR _v_cut$[esp+160]
  005ba	74 57		 je	 SHORT $L80386
  005bc	8b 56 28	 mov	 edx, DWORD PTR [esi+40]
  005bf	42		 inc	 edx
  005c0	8b da		 mov	 ebx, edx
  005c2	0f af 5c 24 2c	 imul	 ebx, DWORD PTR _text_width$[esp+156]
  005c7	89 54 24 24	 mov	 DWORD PTR tv869[esp+156], edx
  005cb	8b 56 30	 mov	 edx, DWORD PTR [esi+48]
  005ce	03 da		 add	 ebx, edx
  005d0	89 5c 24 20	 mov	 DWORD PTR tv964[esp+156], ebx
$L75851:
  005d4	3b 7c 24 20	 cmp	 edi, DWORD PTR tv964[esp+156]
  005d8	7f 1f		 jg	 SHORT $L75853
  005da	85 c0		 test	 eax, eax
  005dc	74 35		 je	 SHORT $L80386
  005de	8b 10		 mov	 edx, DWORD PTR [eax]
  005e0	83 fa 01	 cmp	 edx, 1
  005e3	7e 2e		 jle	 SHORT $L80386
  005e5	8b 5e 28	 mov	 ebx, DWORD PTR [esi+40]
  005e8	2b da		 sub	 ebx, edx
  005ea	43		 inc	 ebx
  005eb	0f af 5c 24 2c	 imul	 ebx, DWORD PTR _text_width$[esp+156]
  005f0	8b d7		 mov	 edx, edi
  005f2	2b d3		 sub	 edx, ebx
  005f4	3b 56 30	 cmp	 edx, DWORD PTR [esi+48]
  005f7	7e 1a		 jle	 SHORT $L80386
$L75853:

; 1272 : 
; 1273 : //	DEBUG_ADD("[LineEditorVisual] Show OK");
; 1274 : 
; 1275 : }

  005f9	8b 10		 mov	 edx, DWORD PTR [eax]
  005fb	2b 54 24 24	 sub	 edx, DWORD PTR tv869[esp+156]
  005ff	0f af 54 24 2c	 imul	 edx, DWORD PTR _text_width$[esp+156]
  00604	03 fa		 add	 edi, edx
  00606	8b 54 24 34	 mov	 edx, DWORD PTR _v_cut$[esp+160]
  0060a	83 c0 04	 add	 eax, 4
  0060d	03 e9		 add	 ebp, ecx
  0060f	3b c2		 cmp	 eax, edx
  00611	75 c1		 jne	 SHORT $L75851
$L80386:

; 1237 : 					{
; 1238 : 						px -= (m_reach_limit+1)*text_width;
; 1239 : 						py += m_gap;
; 1240 : 						px += (*itr)*text_width;
; 1241 : 						itr++;
; 1242 : 					}
; 1243 : 				}
; 1244 : 				
; 1245 : //				DEBUG_ADD("[LineEditorVisual] Show 4-9");
; 1246 : 
; 1247 : 				if(!(m_editor_height != 0 && (py - (m_xy.y-1))/m_gap >= m_editor_height))

  00613	8b 76 14	 mov	 esi, DWORD PTR [esi+20]
  00616	85 f6		 test	 esi, esi
  00618	74 10		 je	 SHORT $L75855
  0061a	8b 5c 24 1c	 mov	 ebx, DWORD PTR tv821[esp+156]
  0061e	8b c5		 mov	 eax, ebp
  00620	2b c3		 sub	 eax, ebx
  00622	40		 inc	 eax
  00623	99		 cdq
  00624	f7 f9		 idiv	 ecx
  00626	3b c6		 cmp	 eax, esi
  00628	7d 24		 jge	 SHORT $L75854
$L75855:

; 1248 : 				{
; 1249 : 				MoveToEx(hdc, px, py, NULL);

  0062a	8b 44 24 14	 mov	 eax, DWORD PTR _hdc$[esp+156]
  0062e	6a 00		 push	 0
  00630	55		 push	 ebp
  00631	57		 push	 edi
  00632	50		 push	 eax
  00633	ff 15 00 00 00
	00		 call	 DWORD PTR __imp__MoveToEx@16

; 1250 : 				LineTo(hdc, px, py+tm.tmHeight-1);

  00639	8b 4c 24 58	 mov	 ecx, DWORD PTR _tm$75826[esp+156]
  0063d	8b 44 24 14	 mov	 eax, DWORD PTR _hdc$[esp+156]
  00641	8d 54 29 ff	 lea	 edx, DWORD PTR [ecx+ebp-1]
  00645	52		 push	 edx
  00646	57		 push	 edi
  00647	50		 push	 eax
  00648	ff 15 00 00 00
	00		 call	 DWORD PTR __imp__LineTo@12
$L75854:

; 1251 : 				}
; 1252 : 				
; 1253 : 				SelectObject(hdc, holdpen);

  0064e	8b 4c 24 18	 mov	 ecx, DWORD PTR _holdpen$75845[esp+156]
  00652	8b 54 24 14	 mov	 edx, DWORD PTR _hdc$[esp+156]
  00656	51		 push	 ecx
  00657	52		 push	 edx
  00658	ff 15 00 00 00
	00		 call	 DWORD PTR __imp__SelectObject@8

; 1254 : 				DeleteObject(hpen);			

  0065e	8b 44 24 48	 mov	 eax, DWORD PTR _hpen$75844[esp+156]
  00662	50		 push	 eax
  00663	ff 15 00 00 00
	00		 call	 DWORD PTR __imp__DeleteObject@4
$L75843:

; 1255 : 
; 1256 : //				DEBUG_ADD("[LineEditorVisual] Show 4-10");
; 1257 : 			}
; 1258 : 			if(gC_ci->IsChinese())

  00669	8b 0d 00 00 00
	00		 mov	 ecx, DWORD PTR ?gC_ci@@3PAVCI@@A ; gC_ci
  0066f	8b 11		 mov	 edx, DWORD PTR [ecx]
  00671	ff 52 04	 call	 DWORD PTR [edx+4]
  00674	84 c0		 test	 al, al

; 1259 : 				SetImePosition(px,py);
; 1260 : 			else if(gC_ci->IsJapanese())

  00676	75 0f		 jne	 SHORT $L80402
  00678	8b 0d 00 00 00
	00		 mov	 ecx, DWORD PTR ?gC_ci@@3PAVCI@@A ; gC_ci
  0067e	8b 01		 mov	 eax, DWORD PTR [ecx]
  00680	ff 50 08	 call	 DWORD PTR [eax+8]
  00683	84 c0		 test	 al, al
  00685	74 0a		 je	 SHORT $L75858
$L80402:

; 1261 : 				SetImePosition(px,py);

  00687	55		 push	 ebp
  00688	57		 push	 edi
  00689	e8 00 00 00 00	 call	 ?SetImePosition@@YAXHH@Z ; SetImePosition
  0068e	83 c4 08	 add	 esp, 8
$L75858:

; 1262 : 		}
; 1263 : 		
; 1264 : 	}
; 1265 : 
; 1266 : //	DEBUG_ADD("[LineEditorVisual] Show 5");
; 1267 : 
; 1268 : 	if(str_buf != NULL)

  00691	8b 44 24 10	 mov	 eax, DWORD PTR _str_buf$[esp+156]
  00695	85 c0		 test	 eax, eax
  00697	5f		 pop	 edi
  00698	5b		 pop	 ebx
  00699	74 11		 je	 SHORT $L75860

; 1269 : 		DeleteNewArray(str_buf);

  0069b	50		 push	 eax
  0069c	e8 00 00 00 00	 call	 ??_V@YAXPAX@Z		; operator delete[]
  006a1	83 c4 04	 add	 esp, 4
  006a4	c7 44 24 08 00
	00 00 00	 mov	 DWORD PTR _str_buf$[esp+148], 0
$L75860:

; 1270 : 	
; 1271 : 	gpC_fl2_surface->ReleaseDC(hdc);

  006ac	8b 54 24 0c	 mov	 edx, DWORD PTR _hdc$[esp+148]
  006b0	a1 00 00 00 00	 mov	 eax, DWORD PTR ?gpC_fl2_surface@@3PAUIDirectDrawSurface7@@A ; gpC_fl2_surface
  006b5	8b 08		 mov	 ecx, DWORD PTR [eax]
  006b7	52		 push	 edx
  006b8	50		 push	 eax
  006b9	ff 51 68	 call	 DWORD PTR [ecx+104]

; 1272 : 
; 1273 : //	DEBUG_ADD("[LineEditorVisual] Show OK");
; 1274 : 
; 1275 : }

  006bc	8b 4c 24 28	 mov	 ecx, DWORD PTR _v_cut$[esp+148]
  006c0	85 c9		 test	 ecx, ecx
  006c2	c6 84 24 90 00
	00 00 00	 mov	 BYTE PTR __$EHRec$[esp+156], 0
  006ca	74 28		 je	 SHORT $L80283
  006cc	8b 44 24 30	 mov	 eax, DWORD PTR _v_cut$[esp+156]
  006d0	2b c1		 sub	 eax, ecx
  006d2	c1 f8 02	 sar	 eax, 2
  006d5	c1 e0 02	 shl	 eax, 2
  006d8	3d 80 00 00 00	 cmp	 eax, 128		; 00000080H
  006dd	76 0b		 jbe	 SHORT $L80282
  006df	51		 push	 ecx
  006e0	e8 00 00 00 00	 call	 ??3@YAXPAX@Z		; operator delete
  006e5	83 c4 04	 add	 esp, 4
  006e8	eb 0a		 jmp	 SHORT $L80283
$L80282:
  006ea	50		 push	 eax
  006eb	51		 push	 ecx
  006ec	e8 00 00 00 00	 call	 ?_M_deallocate@?$__node_alloc@$00$0A@@_STL@@CAXPAXI@Z ; _STL::__node_alloc<1,0>::_M_deallocate
  006f1	83 c4 08	 add	 esp, 8
$L80283:
  006f4	8b 4c 24 34	 mov	 ecx, DWORD PTR _password_string$[esp+148]
  006f8	85 c9		 test	 ecx, ecx
  006fa	c7 84 24 90 00
	00 00 ff ff ff
	ff		 mov	 DWORD PTR __$EHRec$[esp+156], -1
  00705	74 3b		 je	 SHORT $L80349
  00707	8b 44 24 3c	 mov	 eax, DWORD PTR _password_string$[esp+156]
  0070b	2b c1		 sub	 eax, ecx
  0070d	d1 f8		 sar	 eax, 1
  0070f	d1 e0		 shl	 eax, 1
  00711	3d 80 00 00 00	 cmp	 eax, 128		; 00000080H
  00716	76 20		 jbe	 SHORT $L80348
  00718	51		 push	 ecx
  00719	e8 00 00 00 00	 call	 ??3@YAXPAX@Z		; operator delete
  0071e	83 c4 04	 add	 esp, 4
  00721	5e		 pop	 esi
  00722	5d		 pop	 ebp
  00723	8b 8c 24 80 00
	00 00		 mov	 ecx, DWORD PTR __$EHRec$[esp+140]
  0072a	64 89 0d 00 00
	00 00		 mov	 DWORD PTR fs:__except_list, ecx
  00731	81 c4 8c 00 00
	00		 add	 esp, 140		; 0000008cH
  00737	c3		 ret	 0
$L80348:
  00738	50		 push	 eax
  00739	51		 push	 ecx
  0073a	e8 00 00 00 00	 call	 ?_M_deallocate@?$__node_alloc@$00$0A@@_STL@@CAXPAXI@Z ; _STL::__node_alloc<1,0>::_M_deallocate
  0073f	83 c4 08	 add	 esp, 8
$L80349:
  00742	8b 8c 24 88 00
	00 00		 mov	 ecx, DWORD PTR __$EHRec$[esp+148]
  00749	5e		 pop	 esi
  0074a	5d		 pop	 ebp
  0074b	64 89 0d 00 00
	00 00		 mov	 DWORD PTR fs:__except_list, ecx
  00752	81 c4 8c 00 00
	00		 add	 esp, 140		; 0000008cH
  00758	c3		 ret	 0
_TEXT	ENDS
;	COMDAT text$x
text$x	SEGMENT
$L80084:
  00000	8d 4d a0	 lea	 ecx, DWORD PTR _password_string$[ebp]
  00003	e9 00 00 00 00	 jmp	 ??1?$basic_string@GV?$char_traits@G@_STL@@V?$allocator@G@2@@_STL@@QAE@XZ ; _STL::basic_string<unsigned short,_STL::char_traits<unsigned short>,_STL::allocator<unsigned short> >::~basic_string<unsigned short,_STL::char_traits<unsigned short>,_STL::allocator<unsigned short> >
$L80085:
  00008	8d 4d 94	 lea	 ecx, DWORD PTR _v_cut$[ebp]
  0000b	e9 00 00 00 00	 jmp	 ??1?$vector@HV?$allocator@H@_STL@@@_STL@@QAE@XZ ; _STL::vector<int,_STL::allocator<int> >::~vector<int,_STL::allocator<int> >
__ehhandler$?Show@LineEditorVisual@@QBEXXZ:
  00010	b8 00 00 00 00	 mov	 eax, OFFSET FLAT:$T80356
  00015	e9 00 00 00 00	 jmp	 ___CxxFrameHandler
text$x	ENDS
?Show@LineEditorVisual@@QBEXXZ ENDP			; LineEditorVisual::Show
PUBLIC	?IME_NextComposition@CI_CHINESE@@UAEXXZ		; CI_CHINESE::IME_NextComposition
; Function compile flags: /Ogty
;	COMDAT ?IME_NextComposition@CI_CHINESE@@UAEXXZ
_TEXT	SEGMENT
?IME_NextComposition@CI_CHINESE@@UAEXXZ PROC NEAR	; CI_CHINESE::IME_NextComposition, COMDAT
; _this$ = ecx

; 1389 : 	if(gpC_focused_line_editor == NULL)	return;	//by viva

  00000	a1 00 00 00 00	 mov	 eax, DWORD PTR _gpC_focused_line_editor
  00005	85 c0		 test	 eax, eax
  00007	0f 84 39 01 00
	00		 je	 $L75889
  0000d	57		 push	 edi

; 1390 : 	bool LastErase=false;
; 1391 : 	const char *temp_str=gC_ci->GetComposingStringPtr();

  0000e	8b 3d 00 00 00
	00		 mov	 edi, DWORD PTR ?gC_ci@@3PAVCI@@A ; gC_ci
  00014	83 c7 0e	 add	 edi, 14			; 0000000eH

; 1392 : 	char_t *temps;
; 1393 : 	int len=strlen(temp_str);	

  00017	8b c7		 mov	 eax, edi
  00019	8d 50 01	 lea	 edx, DWORD PTR [eax+1]
  0001c	8d 64 24 00	 npad	 4
$L80442:
  00020	8a 08		 mov	 cl, BYTE PTR [eax]
  00022	40		 inc	 eax
  00023	84 c9		 test	 cl, cl
  00025	75 f9		 jne	 SHORT $L80442
  00027	2b c2		 sub	 eax, edx
  00029	55		 push	 ebp
  0002a	8b e8		 mov	 ebp, eax

; 1394 : 	if(len <= 0)

  0002c	85 ed		 test	 ebp, ebp
  0002e	0f 8e 10 01 00
	00		 jle	 $L80446
  00034	56		 push	 esi

; 1395 : 		return;
; 1396 : 	IME_StartComposition();

  00035	e8 00 00 00 00	 call	 ?IME_StartComposition@@YAXXZ ; IME_StartComposition

; 1397 : 	for(int j=0;j<min(98,len);)

  0003a	33 f6		 xor	 esi, esi
  0003c	8d 64 24 00	 npad	 4
$L75898:
  00040	83 fd 62	 cmp	 ebp, 98			; 00000062H
  00043	b8 62 00 00 00	 mov	 eax, 98			; 00000062H
  00048	7f 02		 jg	 SHORT $L80410
  0004a	8b c5		 mov	 eax, ebp
$L80410:
  0004c	3b f0		 cmp	 esi, eax
  0004e	0f 8d ae 00 00
	00		 jge	 $L75899

; 1401 : 		temps=(char_t*)&temp_str[j];
; 1402 : 		char_t ascii_temp=(char_t)temp_str[j]&0xff;

  00054	33 c0		 xor	 eax, eax
  00056	8a 04 3e	 mov	 al, BYTE PTR [esi+edi]
  00059	3c 20		 cmp	 al, 32			; 00000020H
  0005b	7c 18		 jl	 SHORT $L75905

; 1398 : 	{
; 1399 : 		bool bAscii=false;
; 1400 : 		if(temp_str[j] >= 32 && temp_str[j] <= 126) bAscii=true;

  0005d	3c 7e		 cmp	 al, 126			; 0000007eH
  0005f	7f 14		 jg	 SHORT $L75905

; 1403 : 		if(bAscii)
; 1404 : 		{
; 1405 : 			gpC_focused_line_editor->EditToCursorPosition( ascii_temp );

  00061	8b 0d 00 00 00
	00		 mov	 ecx, DWORD PTR _gpC_focused_line_editor
  00067	25 ff 00 00 00	 and	 eax, 255		; 000000ffH
  0006c	50		 push	 eax
  0006d	e8 00 00 00 00	 call	 ?EditToCursorPosition@LineEditor@@QAEXG@Z ; LineEditor::EditToCursorPosition

; 1406 : 			j++;

  00072	46		 inc	 esi

; 1407 : 			continue;

  00073	eb cb		 jmp	 SHORT $L75898
$L75905:

; 1408 : 		}
; 1409 : 		if (gpC_focused_line_editor != NULL && gpC_focused_line_editor->GetDigitOnlyMode() == false)

  00075	a1 00 00 00 00	 mov	 eax, DWORD PTR _gpC_focused_line_editor
  0007a	85 c0		 test	 eax, eax
  0007c	74 7c		 je	 SHORT $L80444
  0007e	8a 48 2c	 mov	 cl, BYTE PTR [eax+44]
  00081	84 c9		 test	 cl, cl
  00083	75 75		 jne	 SHORT $L80444

; 1410 : 		{
; 1411 : 			if (gC_ci->GetEndOfIME() == false)

  00085	8b 0d 00 00 00
	00		 mov	 ecx, DWORD PTR ?gC_ci@@3PAVCI@@A ; gC_ci
  0008b	e8 00 00 00 00	 call	 ?GetEndOfIME@CI@@QAE_NXZ ; CI::GetEndOfIME
  00090	84 c0		 test	 al, al
  00092	75 66		 jne	 SHORT $L80444

; 1412 : 			{
; 1413 : 				gpC_focused_line_editor->EditToCursorPositionForIME(*temps);					

  00094	8b 0d 00 00 00
	00		 mov	 ecx, DWORD PTR _gpC_focused_line_editor
  0009a	33 c0		 xor	 eax, eax
  0009c	66 8b 04 3e	 mov	 ax, WORD PTR [esi+edi]
  000a0	50		 push	 eax
  000a1	e8 00 00 00 00	 call	 ?EditToCursorPositionForIME@LineEditor@@QAEXG@Z ; LineEditor::EditToCursorPositionForIME

; 1414 : 				if (gC_ci->GetInsertModeState() == true)

  000a6	8b 0d 00 00 00
	00		 mov	 ecx, DWORD PTR ?gC_ci@@3PAVCI@@A ; gC_ci
  000ac	80 79 04 01	 cmp	 BYTE PTR [ecx+4], 1

; 1415 : 				{
; 1416 : 					if (gpC_focused_line_editor->CheckInputLimit(*temps) == false)

  000b0	8b 0d 00 00 00
	00		 mov	 ecx, DWORD PTR _gpC_focused_line_editor

; 1417 : 					{
; 1418 : 						gpC_focused_line_editor->InsertGap();
; 1419 : 					}
; 1420 : 				}
; 1421 : 				else

  000b6	74 11		 je	 SHORT $L80448

; 1422 : 				{
; 1423 : 					if (gpC_focused_line_editor->GetCursor() == gpC_focused_line_editor->Size())

  000b8	8b 51 04	 mov	 edx, DWORD PTR [ecx+4]
  000bb	8b 41 08	 mov	 eax, DWORD PTR [ecx+8]
  000be	2b c2		 sub	 eax, edx
  000c0	8b 51 20	 mov	 edx, DWORD PTR [ecx+32]
  000c3	d1 f8		 sar	 eax, 1
  000c5	3b d0		 cmp	 edx, eax
  000c7	75 21		 jne	 SHORT $L75912
$L80448:

; 1424 : 					{
; 1425 : 						if (gpC_focused_line_editor->CheckInputLimit(*temps) == false)

  000c9	33 d2		 xor	 edx, edx
  000cb	66 8b 14 3e	 mov	 dx, WORD PTR [esi+edi]
  000cf	52		 push	 edx
  000d0	e8 00 00 00 00	 call	 ?CheckInputLimit@LineEditor@@QAE_NG@Z ; LineEditor::CheckInputLimit
  000d5	84 c0		 test	 al, al
  000d7	75 0b		 jne	 SHORT $L80443

; 1426 : 						{
; 1427 : 							gpC_focused_line_editor->InsertGap();

  000d9	8b 0d 00 00 00
	00		 mov	 ecx, DWORD PTR _gpC_focused_line_editor
  000df	e8 00 00 00 00	 call	 ?InsertGap@LineEditor@@QAE_NXZ ; LineEditor::InsertGap
$L80443:
  000e4	8b 0d 00 00 00
	00		 mov	 ecx, DWORD PTR _gpC_focused_line_editor
$L75912:

; 1428 : 							LastErase = true;
; 1429 : 						}
; 1430 : 					}
; 1431 : 				}
; 1432 : 				gpC_focused_line_editor->IncreaseCursor();

  000ea	e8 00 00 00 00	 call	 ?IncreaseCursor@LineEditor@@QAEHXZ ; LineEditor::IncreaseCursor

; 1433 : 				gC_ci->ForceShowCursor();

  000ef	8b 0d 00 00 00
	00		 mov	 ecx, DWORD PTR ?gC_ci@@3PAVCI@@A ; gC_ci
  000f5	e8 00 00 00 00	 call	 ?ForceShowCursor@CI@@QBEXXZ ; CI::ForceShowCursor
$L80444:

; 1434 : 			}
; 1435 : 		}
; 1436 : 		j+=2;

  000fa	83 c6 02	 add	 esi, 2

; 1437 : 	}

  000fd	e9 3e ff ff ff	 jmp	 $L75898
$L75899:

; 1438 : 	gC_ci->FinishImeRunning();

  00102	8b 0d 00 00 00
	00		 mov	 ecx, DWORD PTR ?gC_ci@@3PAVCI@@A ; gC_ci
  00108	e8 00 00 00 00	 call	 ?FinishImeRunning@CI@@QAEXXZ ; CI::FinishImeRunning

; 1439 : 	if(gC_ci->GetInsertModeState())

  0010d	a1 00 00 00 00	 mov	 eax, DWORD PTR ?gC_ci@@3PAVCI@@A ; gC_ci
  00112	8a 48 04	 mov	 cl, BYTE PTR [eax+4]
  00115	84 c9		 test	 cl, cl

; 1440 : 	{
; 1441 : 		gpC_focused_line_editor->EraseCharacterFrontCursor();

  00117	8b 0d 00 00 00
	00		 mov	 ecx, DWORD PTR _gpC_focused_line_editor
  0011d	5e		 pop	 esi
  0011e	74 12		 je	 SHORT $L75913
  00120	e8 00 00 00 00	 call	 ?EraseCharacterFrontCursor@LineEditor@@QAE_NXZ ; LineEditor::EraseCharacterFrontCursor

; 1446 : 	}
; 1447 : 	gC_ci->FinishImeRunning();	

  00125	8b 0d 00 00 00
	00		 mov	 ecx, DWORD PTR ?gC_ci@@3PAVCI@@A ; gC_ci
  0012b	5d		 pop	 ebp
  0012c	5f		 pop	 edi
  0012d	e9 00 00 00 00	 jmp	 ?FinishImeRunning@CI@@QAEXXZ ; CI::FinishImeRunning
$L75913:

; 1442 : 	}
; 1443 : 	else
; 1444 : 	{
; 1445 : 		gpC_focused_line_editor->DecreaseCursor();			// decrease cursor			

  00132	e8 00 00 00 00	 call	 ?DecreaseCursor@LineEditor@@QAEHXZ ; LineEditor::DecreaseCursor

; 1446 : 	}
; 1447 : 	gC_ci->FinishImeRunning();	

  00137	8b 0d 00 00 00
	00		 mov	 ecx, DWORD PTR ?gC_ci@@3PAVCI@@A ; gC_ci
  0013d	5d		 pop	 ebp
  0013e	5f		 pop	 edi
  0013f	e9 00 00 00 00	 jmp	 ?FinishImeRunning@CI@@QAEXXZ ; CI::FinishImeRunning
$L80446:
  00144	5d		 pop	 ebp
  00145	5f		 pop	 edi
$L75889:

; 1448 : }

  00146	c3		 ret	 0
?IME_NextComposition@CI_CHINESE@@UAEXXZ ENDP		; CI_CHINESE::IME_NextComposition
_TEXT	ENDS
PUBLIC	?IME_Composition@CI_JAPAN@@UAEXXZ		; CI_JAPAN::IME_Composition
; Function compile flags: /Ogty
;	COMDAT ?IME_Composition@CI_JAPAN@@UAEXXZ
_TEXT	SEGMENT
?IME_Composition@CI_JAPAN@@UAEXXZ PROC NEAR		; CI_JAPAN::IME_Composition, COMDAT
; _this$ = ecx

; 1451 : 
; 1452 : 	if (gpC_focused_line_editor != NULL && gpC_focused_line_editor->GetDigitOnlyMode() == false)

  00000	8b 0d 00 00 00
	00		 mov	 ecx, DWORD PTR _gpC_focused_line_editor
  00006	85 c9		 test	 ecx, ecx
  00008	74 39		 je	 SHORT $L75918
  0000a	8a 41 2c	 mov	 al, BYTE PTR [ecx+44]
  0000d	84 c0		 test	 al, al
  0000f	75 32		 jne	 SHORT $L75918

; 1453 : 	{
; 1454 : 		//if (gC_ci->ImeRunning() == true)
; 1455 : 		{
; 1456 : 			gpC_focused_line_editor->EditToCursorPositionForIME(gC_ci->GetComposingChar());

  00011	a1 00 00 00 00	 mov	 eax, DWORD PTR ?gC_ci@@3PAVCI@@A ; gC_ci
  00016	33 d2		 xor	 edx, edx
  00018	66 8b 50 0a	 mov	 dx, WORD PTR [eax+10]
  0001c	52		 push	 edx
  0001d	e8 00 00 00 00	 call	 ?EditToCursorPositionForIME@LineEditor@@QAEXG@Z ; LineEditor::EditToCursorPositionForIME

; 1457 : 			//gC_ci->ForceShowCursor();
; 1458 : 			gpC_focused_line_editor->InsertGap();

  00022	8b 0d 00 00 00
	00		 mov	 ecx, DWORD PTR _gpC_focused_line_editor
  00028	e8 00 00 00 00	 call	 ?InsertGap@LineEditor@@QAE_NXZ ; LineEditor::InsertGap

; 1459 : 			gpC_focused_line_editor->IncreaseCursor();

  0002d	8b 0d 00 00 00
	00		 mov	 ecx, DWORD PTR _gpC_focused_line_editor
  00033	e8 00 00 00 00	 call	 ?IncreaseCursor@LineEditor@@QAEHXZ ; LineEditor::IncreaseCursor

; 1460 : 			gC_ci->ForceShowCursor();

  00038	8b 0d 00 00 00
	00		 mov	 ecx, DWORD PTR ?gC_ci@@3PAVCI@@A ; gC_ci
  0003e	e9 00 00 00 00	 jmp	 ?ForceShowCursor@CI@@QBEXXZ ; CI::ForceShowCursor
$L75918:

; 1461 : 		}
; 1462 : 	}
; 1463 : }

  00043	c3		 ret	 0
?IME_Composition@CI_JAPAN@@UAEXXZ ENDP			; CI_JAPAN::IME_Composition
_TEXT	ENDS
PUBLIC	?IME_NextComposition@CI_JAPAN@@UAEXXZ		; CI_JAPAN::IME_NextComposition
EXTRN	__imp__IsDBCSLeadByte@4:NEAR
; Function compile flags: /Ogty
;	COMDAT ?IME_NextComposition@CI_JAPAN@@UAEXXZ
_TEXT	SEGMENT
?IME_NextComposition@CI_JAPAN@@UAEXXZ PROC NEAR		; CI_JAPAN::IME_NextComposition, COMDAT
; _this$ = ecx

; 1473 : {

  00000	53		 push	 ebx

; 1474 : 
; 1475 : 	bool LastErase=false;
; 1476 : 	const char *temp_str=gC_ci->GetComposingStringPtr();

  00001	8b 1d 00 00 00
	00		 mov	 ebx, DWORD PTR ?gC_ci@@3PAVCI@@A ; gC_ci
  00007	83 c3 0e	 add	 ebx, 14			; 0000000eH

; 1477 : 	char_t *temps;
; 1478 : 	
; 1479 : 	int len=strlen(temp_str);	

  0000a	8b c3		 mov	 eax, ebx
  0000c	55		 push	 ebp
  0000d	8d 50 01	 lea	 edx, DWORD PTR [eax+1]
$L80508:
  00010	8a 08		 mov	 cl, BYTE PTR [eax]
  00012	40		 inc	 eax
  00013	84 c9		 test	 cl, cl
  00015	75 f9		 jne	 SHORT $L80508
  00017	2b c2		 sub	 eax, edx
  00019	8b e8		 mov	 ebp, eax

; 1480 : 	
; 1481 : 	if(len <= 0)

  0001b	85 ed		 test	 ebp, ebp
  0001d	0f 8e c3 00 00
	00		 jle	 $L75921
  00023	57		 push	 edi

; 1482 : 		return;
; 1483 : 
; 1484 : 	IME_StartComposition();

  00024	e8 00 00 00 00	 call	 ?IME_StartComposition@@YAXXZ ; IME_StartComposition

; 1485 : 	for(int j=0;j<min(96,len);)

  00029	33 ff		 xor	 edi, edi
  0002b	56		 push	 esi
  0002c	8d 64 24 00	 npad	 4
$L75929:
  00030	83 fd 60	 cmp	 ebp, 96			; 00000060H
  00033	b8 60 00 00 00	 mov	 eax, 96			; 00000060H
  00038	7f 02		 jg	 SHORT $L80464
  0003a	8b c5		 mov	 eax, ebp
$L80464:
  0003c	3b f8		 cmp	 edi, eax
  0003e	0f 8d fa 00 00
	00		 jge	 $L75930

; 1486 : 	{
; 1487 : 		bool bAscii=false;
; 1488 : 
; 1489 : 
; 1490 : 		if(temp_str[j] >= 32 && temp_str[j] <= 126) bAscii=true;
; 1491 : 
; 1492 : 		if(temp_str[j] >= 48 && temp_str[j] <= 57) bAscii=false;
; 1493 : 
; 1494 : 		temps=(char_t*)&temp_str[j];
; 1495 : 		char_t ascii_temp=(char_t)temp_str[j]&0xff;

  00044	33 c0		 xor	 eax, eax
  00046	8a 04 1f	 mov	 al, BYTE PTR [edi+ebx]
  00049	25 ff 00 00 00	 and	 eax, 255		; 000000ffH
  0004e	8b f0		 mov	 esi, eax

; 1496 : 
; 1497 : 		if (gpC_focused_line_editor != NULL) //  && gpC_focused_line_editor->GetDigitOnlyMode() == false)

  00050	a1 00 00 00 00	 mov	 eax, DWORD PTR _gpC_focused_line_editor
  00055	85 c0		 test	 eax, eax
  00057	0f 84 d9 00 00
	00		 je	 $L80509

; 1498 : 		{
; 1499 : 			if (gC_ci->GetEndOfIME() == false )

  0005d	8b 0d 00 00 00
	00		 mov	 ecx, DWORD PTR ?gC_ci@@3PAVCI@@A ; gC_ci
  00063	e8 00 00 00 00	 call	 ?GetEndOfIME@CI@@QAE_NXZ ; CI::GetEndOfIME
  00068	84 c0		 test	 al, al
  0006a	0f 85 c6 00 00
	00		 jne	 $L80509

; 1500 : 			{
; 1501 : 				
; 1502 : 					
; 1503 : 					if(!gpC_focused_line_editor->GetDigitOnlyMode())

  00070	8b 0d 00 00 00
	00		 mov	 ecx, DWORD PTR _gpC_focused_line_editor
  00076	8a 41 2c	 mov	 al, BYTE PTR [ecx+44]
  00079	84 c0		 test	 al, al
  0007b	75 3f		 jne	 SHORT $L75939

; 1504 : 					{
; 1505 : 						gpC_focused_line_editor->EditToCursorPositionForIME(*temps);

  0007d	33 d2		 xor	 edx, edx
  0007f	66 8b 14 1f	 mov	 dx, WORD PTR [edi+ebx]
  00083	52		 push	 edx
  00084	e8 00 00 00 00	 call	 ?EditToCursorPositionForIME@LineEditor@@QAEXG@Z ; LineEditor::EditToCursorPositionForIME

; 1506 : 						if (gpC_focused_line_editor->CheckInputLimit(*temps) == false)

  00089	8b 0d 00 00 00
	00		 mov	 ecx, DWORD PTR _gpC_focused_line_editor
  0008f	33 c0		 xor	 eax, eax
  00091	66 8b 04 1f	 mov	 ax, WORD PTR [edi+ebx]
  00095	50		 push	 eax
  00096	e8 00 00 00 00	 call	 ?CheckInputLimit@LineEditor@@QAE_NG@Z ; LineEditor::CheckInputLimit
  0009b	84 c0		 test	 al, al
  0009d	0f 85 7d 00 00
	00		 jne	 $L75950

; 1507 : 						{
; 1508 : 							if(gpC_focused_line_editor->GetCursor() == gpC_focused_line_editor->Size())

  000a3	8b 0d 00 00 00
	00		 mov	 ecx, DWORD PTR _gpC_focused_line_editor
  000a9	8b 41 04	 mov	 eax, DWORD PTR [ecx+4]
  000ac	8b 51 08	 mov	 edx, DWORD PTR [ecx+8]
  000af	2b d0		 sub	 edx, eax
  000b1	8b 41 20	 mov	 eax, DWORD PTR [ecx+32]
  000b4	d1 fa		 sar	 edx, 1
  000b6	3b c2		 cmp	 eax, edx
  000b8	75 61		 jne	 SHORT $L75941

; 1509 : 							{	
; 1510 : 								gpC_focused_line_editor->IncreaseCursor();
; 1511 : 							}
; 1512 : 							gpC_focused_line_editor->InsertGap();
; 1513 : 							
; 1514 : 						}
; 1515 : 					}
; 1516 : 					else if(gpC_focused_line_editor->GetDigitOnlyMode())

  000ba	eb 54		 jmp	 SHORT $L80513
$L75939:

; 1517 : 					{
; 1518 : 						if(gpC_focused_line_editor->GetCursor() == gpC_focused_line_editor->Size())

  000bc	8b 51 04	 mov	 edx, DWORD PTR [ecx+4]
  000bf	8b 41 08	 mov	 eax, DWORD PTR [ecx+8]
  000c2	2b c2		 sub	 eax, edx
  000c4	8b 51 20	 mov	 edx, DWORD PTR [ecx+32]
  000c7	d1 f8		 sar	 eax, 1
  000c9	3b d0		 cmp	 edx, eax
  000cb	75 1c		 jne	 SHORT $L75944

; 1519 : 						{	
; 1520 : 							if(IsDBCSLeadByte(ascii_temp) || !(ascii_temp >= 0x30  && ascii_temp <= 0x39)) return ; 

  000cd	56		 push	 esi
  000ce	ff 15 00 00 00
	00		 call	 DWORD PTR __imp__IsDBCSLeadByte@4
  000d4	85 c0		 test	 eax, eax
  000d6	75 0c		 jne	 SHORT $L80511
  000d8	66 83 fe 30	 cmp	 si, 48			; 00000030H
  000dc	72 06		 jb	 SHORT $L80511
  000de	66 83 fe 39	 cmp	 si, 57			; 00000039H
  000e2	76 0a		 jbe	 SHORT $L80515
$L80511:
  000e4	5e		 pop	 esi
  000e5	5f		 pop	 edi
$L75921:
  000e6	5d		 pop	 ebp
  000e7	5b		 pop	 ebx

; 1565 : }

  000e8	c3		 ret	 0
$L75944:

; 1521 : 
; 1522 : 							gpC_focused_line_editor->EditToCursorPosition(ascii_temp);
; 1523 : 							if (gpC_focused_line_editor->CheckInputLimit(ascii_temp) == false)
; 1524 : 							{
; 1525 : 								gpC_focused_line_editor->IncreaseCursor();
; 1526 : 								gpC_focused_line_editor->InsertGap();
; 1527 : 							}
; 1528 : 						}
; 1529 : 						else
; 1530 : 						{
; 1531 : 							gpC_focused_line_editor->InsertGap();

  000e9	e8 00 00 00 00	 call	 ?InsertGap@LineEditor@@QAE_NXZ ; LineEditor::InsertGap
$L80515:

; 1532 : 							gpC_focused_line_editor->EditToCursorPosition(ascii_temp);

  000ee	8b 0d 00 00 00
	00		 mov	 ecx, DWORD PTR _gpC_focused_line_editor
  000f4	56		 push	 esi
  000f5	e8 00 00 00 00	 call	 ?EditToCursorPosition@LineEditor@@QAEXG@Z ; LineEditor::EditToCursorPosition

; 1533 : 							if (gpC_focused_line_editor->CheckInputLimit(ascii_temp) == false)

  000fa	8b 0d 00 00 00
	00		 mov	 ecx, DWORD PTR _gpC_focused_line_editor
  00100	56		 push	 esi
  00101	e8 00 00 00 00	 call	 ?CheckInputLimit@LineEditor@@QAE_NG@Z ; LineEditor::CheckInputLimit
  00106	84 c0		 test	 al, al
  00108	75 16		 jne	 SHORT $L75950

; 1534 : 							{
; 1535 : 								gpC_focused_line_editor->IncreaseCursor();

  0010a	8b 0d 00 00 00
	00		 mov	 ecx, DWORD PTR _gpC_focused_line_editor
$L80513:
  00110	e8 00 00 00 00	 call	 ?IncreaseCursor@LineEditor@@QAEHXZ ; LineEditor::IncreaseCursor

; 1536 : 								gpC_focused_line_editor->InsertGap();

  00115	8b 0d 00 00 00
	00		 mov	 ecx, DWORD PTR _gpC_focused_line_editor
$L75941:
  0011b	e8 00 00 00 00	 call	 ?InsertGap@LineEditor@@QAE_NXZ ; LineEditor::InsertGap
$L75950:

; 1537 : 							}
; 1538 : 						}
; 1539 : 					}
; 1540 : 				gpC_focused_line_editor->IncreaseCursor();

  00120	8b 0d 00 00 00
	00		 mov	 ecx, DWORD PTR _gpC_focused_line_editor
  00126	e8 00 00 00 00	 call	 ?IncreaseCursor@LineEditor@@QAEHXZ ; LineEditor::IncreaseCursor

; 1541 : 				gC_ci->ForceShowCursor();

  0012b	8b 0d 00 00 00
	00		 mov	 ecx, DWORD PTR ?gC_ci@@3PAVCI@@A ; gC_ci
  00131	e8 00 00 00 00	 call	 ?ForceShowCursor@CI@@QBEXXZ ; CI::ForceShowCursor
$L80509:

; 1542 : 			}
; 1543 : 		}
; 1544 : 		j+=2 ;

  00136	83 c7 02	 add	 edi, 2

; 1545 : 	}

  00139	e9 f2 fe ff ff	 jmp	 $L75929
$L75930:

; 1546 : 
; 1547 : 	gC_ci->FinishImeRunning();

  0013e	8b 0d 00 00 00
	00		 mov	 ecx, DWORD PTR ?gC_ci@@3PAVCI@@A ; gC_ci
  00144	e8 00 00 00 00	 call	 ?FinishImeRunning@CI@@QAEXXZ ; CI::FinishImeRunning

; 1548 : 
; 1549 : 	if(gC_ci->GetInsertModeState())

  00149	8b 0d 00 00 00
	00		 mov	 ecx, DWORD PTR ?gC_ci@@3PAVCI@@A ; gC_ci
  0014f	8a 41 04	 mov	 al, BYTE PTR [ecx+4]

; 1550 : 	{
; 1551 : 		if(gpC_focused_line_editor != NULL)

  00152	8b 0d 00 00 00
	00		 mov	 ecx, DWORD PTR _gpC_focused_line_editor

; 1552 : 		{
; 1553 : 			gpC_focused_line_editor->EraseCharacterFrontCursor();
; 1554 : 		}
; 1555 : 
; 1556 : 	}
; 1557 : 	else
; 1558 : 	{
; 1559 : 		if(gpC_focused_line_editor != NULL)

  00158	85 c9		 test	 ecx, ecx
  0015a	74 05		 je	 SHORT $L75954

; 1560 : 		{
; 1561 : 			gpC_focused_line_editor->EraseCharacterFrontCursor();

  0015c	e8 00 00 00 00	 call	 ?EraseCharacterFrontCursor@LineEditor@@QAE_NXZ ; LineEditor::EraseCharacterFrontCursor
$L75954:

; 1562 : 		}
; 1563 : 	}
; 1564 : 	gC_ci->FinishImeRunning();	

  00161	8b 0d 00 00 00
	00		 mov	 ecx, DWORD PTR ?gC_ci@@3PAVCI@@A ; gC_ci
  00167	5e		 pop	 esi
  00168	5f		 pop	 edi
  00169	5d		 pop	 ebp
  0016a	5b		 pop	 ebx
  0016b	e9 00 00 00 00	 jmp	 ?FinishImeRunning@CI@@QAEXXZ ; CI::FinishImeRunning
?IME_NextComposition@CI_JAPAN@@UAEXXZ ENDP		; CI_JAPAN::IME_NextComposition
_TEXT	ENDS
PUBLIC	??$assign@PAG@?$basic_string@GV?$char_traits@G@_STL@@V?$allocator@G@2@@_STL@@QAEAAV01@PAG0@Z ; _STL::basic_string<unsigned short,_STL::char_traits<unsigned short>,_STL::allocator<unsigned short> >::assign<unsigned short *>
; Function compile flags: /Ogty
; File c:\stlport-4.6.1\stlport\stl\_string.h
;	COMDAT ??$assign@PAG@?$basic_string@GV?$char_traits@G@_STL@@V?$allocator@G@2@@_STL@@QAEAAV01@PAG0@Z
_TEXT	SEGMENT
___first$ = 8						; size = 4
$T80520 = 12						; size = 1
___last$ = 12						; size = 4
??$assign@PAG@?$basic_string@GV?$char_traits@G@_STL@@V?$allocator@G@2@@_STL@@QAEAAV01@PAG0@Z PROC NEAR ; _STL::basic_string<unsigned short,_STL::char_traits<unsigned short>,_STL::allocator<unsigned short> >::assign<unsigned short *>, COMDAT
; _this$ = ecx

; 643  :     typedef typename _Is_integer<_InputIter>::_Integral _Integral;
; 644  :     return _M_assign_dispatch(__first, __last, _Integral());

  00000	8b 54 24 08	 mov	 edx, DWORD PTR ___last$[esp-4]
  00004	8d 44 24 08	 lea	 eax, DWORD PTR $T80520[esp-4]
  00008	50		 push	 eax
  00009	8b 44 24 08	 mov	 eax, DWORD PTR ___first$[esp]
  0000d	52		 push	 edx
  0000e	50		 push	 eax
  0000f	e8 00 00 00 00	 call	 ??$_M_assign_dispatch@PAG@?$basic_string@GV?$char_traits@G@_STL@@V?$allocator@G@2@@_STL@@AAEAAV01@PAG0ABU__false_type@1@@Z ; _STL::basic_string<unsigned short,_STL::char_traits<unsigned short>,_STL::allocator<unsigned short> >::_M_assign_dispatch<unsigned short *>

; 645  :   }

  00014	c2 08 00	 ret	 8
??$assign@PAG@?$basic_string@GV?$char_traits@G@_STL@@V?$allocator@G@2@@_STL@@QAEAAV01@PAG0@Z ENDP ; _STL::basic_string<unsigned short,_STL::char_traits<unsigned short>,_STL::allocator<unsigned short> >::assign<unsigned short *>
_TEXT	ENDS
PUBLIC	?KeyboardControl@LineEditor@@QAEXIIJ@Z		; LineEditor::KeyboardControl
; Function compile flags: /Ogty
; File c:\darkeden\designed_common\project\new - vs_ui\src\widget\u_edit.cpp
;	COMDAT ?KeyboardControl@LineEditor@@QAEXIIJ@Z
_TEXT	SEGMENT
_message$ = 8						; size = 4
_key$ = 12						; size = 4
_extra$ = 16						; size = 4
?KeyboardControl@LineEditor@@QAEXIIJ@Z PROC NEAR	; LineEditor::KeyboardControl, COMDAT
; _this$ = ecx

; 421  : //	DEBUG_ADD("[LineEditor] KeyboardControl");
; 422  : 	switch (message)

  00000	8b 44 24 04	 mov	 eax, DWORD PTR _message$[esp-4]
  00004	2d 00 01 00 00	 sub	 eax, 256		; 00000100H
  00009	53		 push	 ebx
  0000a	56		 push	 esi
  0000b	57		 push	 edi
  0000c	8b f1		 mov	 esi, ecx
  0000e	0f 84 bf 00 00
	00		 je	 $L75257
  00014	83 e8 02	 sub	 eax, 2
  00017	0f 85 0a 03 00
	00		 jne	 $L75306

; 531  : 					}
; 532  : 					break;
; 533  : 			}
; 534  : 			break;
; 535  : 
; 536  : 		case WM_CHAR:
; 537  : 			//
; 538  : 			// WM_IME_CHAR가 DefWindowProc()로 들어가면 두 개의 WM_CHAR를 발생시키는데, 이것은
; 539  : 			// 현재 IME에 있는 DBCS이다. 상하위 나뉘어서 두 번 날아온다.
; 540  : 			// 그런데 만약에 한글입력중에 ASCII code를 입력하였다면 그 두 개에다 하나가 더
; 541  : 			// 날아온다. 그것은 바로 해당 ASCII code이다.
; 542  : 			//
; 543  : 			// ex) 'ㄱ' -> '.'		; 'ㄱ'에 대한 DBCS, 그리고 마지막에 '.'에 대한 ASCII code
; 544  : 			//
; 545  : 
; 546  : 			// ASCII code가 아니면 입력하지 않는다.
; 547  : 			if ((char)key >= 32 && (char)key <= 126)

  0001d	8b 5c 24 14	 mov	 ebx, DWORD PTR _key$[esp+8]
  00021	80 fb 20	 cmp	 bl, 32			; 00000020H
  00024	0f 8c fd 02 00
	00		 jl	 $L75306
  0002a	80 fb 7e	 cmp	 bl, 126			; 0000007eH
  0002d	0f 8f f4 02 00
	00		 jg	 $L75306

; 548  : 			{
; 549  : 				if (m_bl_digit_only)

  00033	8a 46 2c	 mov	 al, BYTE PTR [esi+44]
  00036	84 c0		 test	 al, al
  00038	74 12		 je	 SHORT $L75314

; 550  : 					if (!((char)key >= '0' && (char)key <= '9'))

  0003a	80 fb 30	 cmp	 bl, 48			; 00000030H
  0003d	0f 8c e4 02 00
	00		 jl	 $L75306
  00043	80 fb 39	 cmp	 bl, 57			; 00000039H

; 551  : 						return;

  00046	0f 8f db 02 00
	00		 jg	 $L75306
$L75314:

; 552  : 											
; 553  : 				if (gC_ci->GetInsertModeState() == true) // insert?

  0004c	a1 00 00 00 00	 mov	 eax, DWORD PTR ?gC_ci@@3PAVCI@@A ; gC_ci
  00051	80 78 04 01	 cmp	 BYTE PTR [eax+4], 1
  00055	75 3b		 jne	 SHORT $L75316

; 554  : 				{
; 555  : 					if (CheckInputLimit(key) == true)

  00057	53		 push	 ebx
  00058	8b ce		 mov	 ecx, esi
  0005a	e8 00 00 00 00	 call	 ?CheckInputLimit@LineEditor@@QAE_NG@Z ; LineEditor::CheckInputLimit
  0005f	3c 01		 cmp	 al, 1
  00061	0f 84 c0 02 00
	00		 je	 $L75306

; 556  : 						return;
; 557  : 
; 558  : 					//InsertToCursorPosition((char_t)key);
; 559  : 					if(InsertGap())

  00067	8b ce		 mov	 ecx, esi
  00069	e8 00 00 00 00	 call	 ?InsertGap@LineEditor@@QAE_NXZ ; LineEditor::InsertGap
  0006e	84 c0		 test	 al, al
  00070	74 49		 je	 SHORT $L75320

; 566  : 							return;
; 567  : 
; 568  : 					EditToCursorPosition((char_t)key);

  00072	8b ce		 mov	 ecx, esi
  00074	53		 push	 ebx
  00075	e8 00 00 00 00	 call	 ?EditToCursorPosition@LineEditor@@QAEXG@Z ; LineEditor::EditToCursorPosition

; 569  : 				}
; 570  : 
; 571  : 				IncreaseCursor();

  0007a	8b ce		 mov	 ecx, esi
  0007c	e8 00 00 00 00	 call	 ?IncreaseCursor@LineEditor@@QAEHXZ ; LineEditor::IncreaseCursor
  00081	8b 0d 00 00 00
	00		 mov	 ecx, DWORD PTR ?gC_ci@@3PAVCI@@A ; gC_ci
  00087	e8 00 00 00 00	 call	 ?ForceShowCursor@CI@@QBEXXZ ; CI::ForceShowCursor
  0008c	5f		 pop	 edi
  0008d	5e		 pop	 esi
  0008e	5b		 pop	 ebx

; 572  : 				gC_ci->ForceShowCursor();
; 573  : 			}
; 574  : 			break;
; 575  : 	}
; 576  : //	DEBUG_ADD("[LineEditor] KeyboardControl OK");
; 577  : }

  0008f	c2 0c 00	 ret	 12			; 0000000cH
$L75316:

; 560  : 						EditToCursorPosition((char_t)key);
; 561  : 				}
; 562  : 				else
; 563  : 				{
; 564  : 					if (m_cursor == m_string.size()) // at end?

  00092	8b 4e 08	 mov	 ecx, DWORD PTR [esi+8]
  00095	8b 7e 04	 mov	 edi, DWORD PTR [esi+4]
  00098	8b 46 20	 mov	 eax, DWORD PTR [esi+32]
  0009b	2b cf		 sub	 ecx, edi
  0009d	d1 f9		 sar	 ecx, 1
  0009f	3b c1		 cmp	 eax, ecx
  000a1	75 10		 jne	 SHORT $L75322

; 565  : 						if (CheckInputLimit(key) == true)

  000a3	53		 push	 ebx
  000a4	8b ce		 mov	 ecx, esi
  000a6	e8 00 00 00 00	 call	 ?CheckInputLimit@LineEditor@@QAE_NG@Z ; LineEditor::CheckInputLimit
  000ab	3c 01		 cmp	 al, 1
  000ad	0f 84 74 02 00
	00		 je	 $L75306
$L75322:

; 566  : 							return;
; 567  : 
; 568  : 					EditToCursorPosition((char_t)key);

  000b3	8b ce		 mov	 ecx, esi
  000b5	53		 push	 ebx
  000b6	e8 00 00 00 00	 call	 ?EditToCursorPosition@LineEditor@@QAEXG@Z ; LineEditor::EditToCursorPosition
$L75320:

; 569  : 				}
; 570  : 
; 571  : 				IncreaseCursor();

  000bb	8b ce		 mov	 ecx, esi
  000bd	e8 00 00 00 00	 call	 ?IncreaseCursor@LineEditor@@QAEHXZ ; LineEditor::IncreaseCursor
  000c2	8b 0d 00 00 00
	00		 mov	 ecx, DWORD PTR ?gC_ci@@3PAVCI@@A ; gC_ci
  000c8	e8 00 00 00 00	 call	 ?ForceShowCursor@CI@@QBEXXZ ; CI::ForceShowCursor
  000cd	5f		 pop	 edi
  000ce	5e		 pop	 esi
  000cf	5b		 pop	 ebx

; 572  : 				gC_ci->ForceShowCursor();
; 573  : 			}
; 574  : 			break;
; 575  : 	}
; 576  : //	DEBUG_ADD("[LineEditor] KeyboardControl OK");
; 577  : }

  000d0	c2 0c 00	 ret	 12			; 0000000cH
$L75257:

; 423  : 	{
; 424  : 		case WM_KEYDOWN:
; 425  : 			switch (key)

  000d3	8b 7c 24 14	 mov	 edi, DWORD PTR _key$[esp+8]
  000d7	8d 47 f8	 lea	 eax, DWORD PTR [edi-8]
  000da	83 f8 26	 cmp	 eax, 38			; 00000026H
  000dd	0f 87 44 02 00
	00		 ja	 $L75306
  000e3	0f b6 90 00 00
	00 00		 movzx	 edx, BYTE PTR $L80560[eax]
  000ea	ff 24 95 00 00
	00 00		 jmp	 DWORD PTR $L80565[edx*4]
$L75262:

; 426  : 			{
; 427  : 				case VK_LEFT:
; 428  : 					gC_ci->FinishImeRunning();

  000f1	8b 0d 00 00 00
	00		 mov	 ecx, DWORD PTR ?gC_ci@@3PAVCI@@A ; gC_ci
  000f7	e8 00 00 00 00	 call	 ?FinishImeRunning@CI@@QAEXXZ ; CI::FinishImeRunning

; 429  : 					if (DecreaseCursor())

  000fc	8b ce		 mov	 ecx, esi
  000fe	e8 00 00 00 00	 call	 ?DecreaseCursor@LineEditor@@QAEHXZ ; LineEditor::DecreaseCursor
  00103	85 c0		 test	 eax, eax
  00105	0f 84 1c 02 00
	00		 je	 $L75306

; 530  : 							gC_ci->ForceShowCursor();

  0010b	8b 0d 00 00 00
	00		 mov	 ecx, DWORD PTR ?gC_ci@@3PAVCI@@A ; gC_ci
  00111	e8 00 00 00 00	 call	 ?ForceShowCursor@CI@@QBEXXZ ; CI::ForceShowCursor
  00116	5f		 pop	 edi
  00117	5e		 pop	 esi
  00118	5b		 pop	 ebx

; 572  : 				gC_ci->ForceShowCursor();
; 573  : 			}
; 574  : 			break;
; 575  : 	}
; 576  : //	DEBUG_ADD("[LineEditor] KeyboardControl OK");
; 577  : }

  00119	c2 0c 00	 ret	 12			; 0000000cH
$L75264:

; 430  : 						gC_ci->ForceShowCursor();
; 431  : 					break;
; 432  : 
; 433  : 				case VK_RIGHT:
; 434  : 					gC_ci->FinishImeRunning();

  0011c	8b 0d 00 00 00
	00		 mov	 ecx, DWORD PTR ?gC_ci@@3PAVCI@@A ; gC_ci
  00122	e8 00 00 00 00	 call	 ?FinishImeRunning@CI@@QAEXXZ ; CI::FinishImeRunning

; 435  : 					if (IncreaseCursor())

  00127	8b ce		 mov	 ecx, esi
  00129	e8 00 00 00 00	 call	 ?IncreaseCursor@LineEditor@@QAEHXZ ; LineEditor::IncreaseCursor
  0012e	85 c0		 test	 eax, eax
  00130	0f 84 f1 01 00
	00		 je	 $L75306

; 530  : 							gC_ci->ForceShowCursor();

  00136	8b 0d 00 00 00
	00		 mov	 ecx, DWORD PTR ?gC_ci@@3PAVCI@@A ; gC_ci
  0013c	e8 00 00 00 00	 call	 ?ForceShowCursor@CI@@QBEXXZ ; CI::ForceShowCursor
  00141	5f		 pop	 edi
  00142	5e		 pop	 esi
  00143	5b		 pop	 ebx

; 572  : 				gC_ci->ForceShowCursor();
; 573  : 			}
; 574  : 			break;
; 575  : 	}
; 576  : //	DEBUG_ADD("[LineEditor] KeyboardControl OK");
; 577  : }

  00144	c2 0c 00	 ret	 12			; 0000000cH
$L75266:

; 436  : 							gC_ci->ForceShowCursor();
; 437  : 					break;
; 438  : 
; 439  : 				case VK_HOME:
; 440  : 					gC_ci->FinishImeRunning();

  00147	8b 0d 00 00 00
	00		 mov	 ecx, DWORD PTR ?gC_ci@@3PAVCI@@A ; gC_ci
  0014d	e8 00 00 00 00	 call	 ?FinishImeRunning@CI@@QAEXXZ ; CI::FinishImeRunning

; 441  : 					if (HomeCursor() == true)

  00152	8b ce		 mov	 ecx, esi
  00154	e8 00 00 00 00	 call	 ?HomeCursor@LineEditor@@QAE_NXZ ; LineEditor::HomeCursor

; 442  : 						gC_ci->ForceShowCursor();
; 443  : 					break;

  00159	e9 ba 01 00 00	 jmp	 $L80563
$L75268:

; 444  : 
; 445  : 				case VK_END:
; 446  : 					gC_ci->FinishImeRunning();

  0015e	8b 0d 00 00 00
	00		 mov	 ecx, DWORD PTR ?gC_ci@@3PAVCI@@A ; gC_ci
  00164	e8 00 00 00 00	 call	 ?FinishImeRunning@CI@@QAEXXZ ; CI::FinishImeRunning

; 447  : 					if (EndCursor() == true)

  00169	8b ce		 mov	 ecx, esi
  0016b	e8 00 00 00 00	 call	 ?EndCursor@LineEditor@@QAE_NXZ ; LineEditor::EndCursor

; 448  : 						gC_ci->ForceShowCursor();
; 449  : 					break;

  00170	e9 a3 01 00 00	 jmp	 $L80563
$L75270:

; 450  : 
; 451  : 				case VK_INSERT:
; 452  : 					gC_ci->ToggleInsertMode();

  00175	a1 00 00 00 00	 mov	 eax, DWORD PTR ?gC_ci@@3PAVCI@@A ; gC_ci
  0017a	8a 48 04	 mov	 cl, BYTE PTR [eax+4]
  0017d	5f		 pop	 edi
  0017e	84 c9		 test	 cl, cl
  00180	0f 94 c1	 sete	 cl
  00183	5e		 pop	 esi
  00184	88 48 04	 mov	 BYTE PTR [eax+4], cl
  00187	5b		 pop	 ebx

; 572  : 				gC_ci->ForceShowCursor();
; 573  : 			}
; 574  : 			break;
; 575  : 	}
; 576  : //	DEBUG_ADD("[LineEditor] KeyboardControl OK");
; 577  : }

  00188	c2 0c 00	 ret	 12			; 0000000cH
$L75271:

; 453  : 					break;
; 454  : 
; 455  : 				case VK_BACK:
; 456  : 					gC_ci->FinishImeRunning();

  0018b	8b 0d 00 00 00
	00		 mov	 ecx, DWORD PTR ?gC_ci@@3PAVCI@@A ; gC_ci
  00191	e8 00 00 00 00	 call	 ?FinishImeRunning@CI@@QAEXXZ ; CI::FinishImeRunning

; 457  : 					if (EraseCharacterFrontCursor() == true)
; 458  : 						gC_ci->ForceShowCursor();
; 459  : 					break;

  00196	e9 76 01 00 00	 jmp	 $L80564
$L75273:

; 460  : 
; 461  : 				case VK_RETURN:
; 462  : 					if(m_gap)

  0019b	8b 46 10	 mov	 eax, DWORD PTR [esi+16]
  0019e	85 c0		 test	 eax, eax
  001a0	0f 84 81 01 00
	00		 je	 $L75306

; 463  : 					{
; 464  : 						if(m_editor_height > 0 && GetLineCount()+1 > m_editor_height)

  001a6	8b 46 14	 mov	 eax, DWORD PTR [esi+20]
  001a9	85 c0		 test	 eax, eax
  001ab	7e 12		 jle	 SHORT $L75275
  001ad	8b 16		 mov	 edx, DWORD PTR [esi]
  001af	8b ce		 mov	 ecx, esi
  001b1	ff 12		 call	 DWORD PTR [edx]
  001b3	8b 4e 14	 mov	 ecx, DWORD PTR [esi+20]
  001b6	40		 inc	 eax
  001b7	3b c1		 cmp	 eax, ecx
  001b9	0f 8f 68 01 00
	00		 jg	 $L75306
$L75275:

; 465  : 							return;
; 466  : 
; 467  : 						if (gC_ci->GetInsertModeState() == true) // insert?

  001bf	a1 00 00 00 00	 mov	 eax, DWORD PTR ?gC_ci@@3PAVCI@@A ; gC_ci
  001c4	80 78 04 01	 cmp	 BYTE PTR [eax+4], 1
  001c8	75 1e		 jne	 SHORT $L75276

; 468  : 						{
; 469  : 							if (CheckInputLimit('\n') == true)

  001ca	6a 0a		 push	 10			; 0000000aH
  001cc	8b ce		 mov	 ecx, esi
  001ce	e8 00 00 00 00	 call	 ?CheckInputLimit@LineEditor@@QAE_NG@Z ; LineEditor::CheckInputLimit
  001d3	3c 01		 cmp	 al, 1
  001d5	0f 84 4c 01 00
	00		 je	 $L75306

; 470  : 								return;
; 471  : 							
; 472  : 							//InsertToCursorPosition((char_t)key);
; 473  : 							if(InsertGap())

  001db	8b ce		 mov	 ecx, esi
  001dd	e8 00 00 00 00	 call	 ?InsertGap@LineEditor@@QAE_NXZ ; LineEditor::InsertGap
  001e2	84 c0		 test	 al, al
  001e4	74 2c		 je	 SHORT $L75280

; 474  : 								EditToCursorPosition((char_t)'\n');							
; 475  : 						}
; 476  : 						else

  001e6	eb 21		 jmp	 SHORT $L75282
$L75276:

; 477  : 						{
; 478  : 							if (m_cursor == m_string.size()) // at end?

  001e8	8b 4e 08	 mov	 ecx, DWORD PTR [esi+8]
  001eb	8b 5e 04	 mov	 ebx, DWORD PTR [esi+4]
  001ee	8b 46 20	 mov	 eax, DWORD PTR [esi+32]
  001f1	2b cb		 sub	 ecx, ebx
  001f3	d1 f9		 sar	 ecx, 1
  001f5	3b c1		 cmp	 eax, ecx
  001f7	75 10		 jne	 SHORT $L75282

; 479  : 								if (CheckInputLimit(key) == true)

  001f9	57		 push	 edi
  001fa	8b ce		 mov	 ecx, esi
  001fc	e8 00 00 00 00	 call	 ?CheckInputLimit@LineEditor@@QAE_NG@Z ; LineEditor::CheckInputLimit
  00201	3c 01		 cmp	 al, 1
  00203	0f 84 1e 01 00
	00		 je	 $L75306
$L75282:

; 480  : 									return;
; 481  : 								
; 482  : 								EditToCursorPosition((char_t)'\n');								

  00209	8b ce		 mov	 ecx, esi
  0020b	6a 0a		 push	 10			; 0000000aH
  0020d	e8 00 00 00 00	 call	 ?EditToCursorPosition@LineEditor@@QAEXG@Z ; LineEditor::EditToCursorPosition
$L75280:

; 483  : 						}
; 484  : 						IncreaseCursor();

  00212	8b ce		 mov	 ecx, esi
  00214	e8 00 00 00 00	 call	 ?IncreaseCursor@LineEditor@@QAEHXZ ; LineEditor::IncreaseCursor

; 530  : 							gC_ci->ForceShowCursor();

  00219	8b 0d 00 00 00
	00		 mov	 ecx, DWORD PTR ?gC_ci@@3PAVCI@@A ; gC_ci
  0021f	e8 00 00 00 00	 call	 ?ForceShowCursor@CI@@QBEXXZ ; CI::ForceShowCursor
  00224	5f		 pop	 edi
  00225	5e		 pop	 esi
  00226	5b		 pop	 ebx

; 572  : 				gC_ci->ForceShowCursor();
; 573  : 			}
; 574  : 			break;
; 575  : 	}
; 576  : //	DEBUG_ADD("[LineEditor] KeyboardControl OK");
; 577  : }

  00227	c2 0c 00	 ret	 12			; 0000000cH
$L75284:

; 485  : 						gC_ci->ForceShowCursor();
; 486  : 					}
; 487  : 					break;
; 488  : 
; 489  : 				case VK_UP:
; 490  : 					if(m_gap)

  0022a	8b 46 10	 mov	 eax, DWORD PTR [esi+16]
  0022d	85 c0		 test	 eax, eax
  0022f	0f 84 f2 00 00
	00		 je	 $L75306

; 491  : 					{
; 492  : 						gC_ci->FinishImeRunning();

  00235	8b 0d 00 00 00
	00		 mov	 ecx, DWORD PTR ?gC_ci@@3PAVCI@@A ; gC_ci
  0023b	e8 00 00 00 00	 call	 ?FinishImeRunning@CI@@QAEXXZ ; CI::FinishImeRunning

; 493  : 						int sum = 0;
; 494  : 						while(sum < m_reach_limit+1)

  00240	8b 56 28	 mov	 edx, DWORD PTR [esi+40]
  00243	33 ff		 xor	 edi, edi
  00245	42		 inc	 edx
  00246	85 d2		 test	 edx, edx
  00248	7e 28		 jle	 SHORT $L80556
  0024a	8d 9b 00 00 00
	00		 npad	 6
$L75288:

; 495  : 						{
; 496  : 							int num = DecreaseCursor();

  00250	8b ce		 mov	 ecx, esi
  00252	e8 00 00 00 00	 call	 ?DecreaseCursor@LineEditor@@QAEHXZ ; LineEditor::DecreaseCursor

; 497  : 							if(num == 0 || m_string[m_cursor] == '\n')break;

  00257	85 c0		 test	 eax, eax
  00259	74 17		 je	 SHORT $L80556
  0025b	8b 4e 20	 mov	 ecx, DWORD PTR [esi+32]
  0025e	8b 56 04	 mov	 edx, DWORD PTR [esi+4]
  00261	66 83 3c 4a 0a	 cmp	 WORD PTR [edx+ecx*2], 10 ; 0000000aH
  00266	74 0a		 je	 SHORT $L80556

; 498  : 							sum += num;

  00268	03 f8		 add	 edi, eax
  0026a	8b 46 28	 mov	 eax, DWORD PTR [esi+40]
  0026d	40		 inc	 eax
  0026e	3b f8		 cmp	 edi, eax
  00270	7c de		 jl	 SHORT $L75288
$L80556:

; 499  : 						}
; 500  : 						if(sum > m_reach_limit+1)

  00272	8b 4e 28	 mov	 ecx, DWORD PTR [esi+40]
  00275	41		 inc	 ecx
  00276	3b f9		 cmp	 edi, ecx
  00278	0f 8e 9e 00 00
	00		 jle	 $L80561

; 501  : 							IncreaseCursor();

  0027e	8b ce		 mov	 ecx, esi
  00280	e8 00 00 00 00	 call	 ?IncreaseCursor@LineEditor@@QAEHXZ ; LineEditor::IncreaseCursor

; 530  : 							gC_ci->ForceShowCursor();

  00285	8b 0d 00 00 00
	00		 mov	 ecx, DWORD PTR ?gC_ci@@3PAVCI@@A ; gC_ci
  0028b	e8 00 00 00 00	 call	 ?ForceShowCursor@CI@@QBEXXZ ; CI::ForceShowCursor
  00290	5f		 pop	 edi
  00291	5e		 pop	 esi
  00292	5b		 pop	 ebx

; 572  : 				gC_ci->ForceShowCursor();
; 573  : 			}
; 574  : 			break;
; 575  : 	}
; 576  : //	DEBUG_ADD("[LineEditor] KeyboardControl OK");
; 577  : }

  00293	c2 0c 00	 ret	 12			; 0000000cH
$L75294:

; 502  : 
; 503  : 						gC_ci->ForceShowCursor();
; 504  : 					}
; 505  : 					break;
; 506  : 
; 507  : 				case VK_DOWN:
; 508  : 					if(m_gap)

  00296	8b 46 10	 mov	 eax, DWORD PTR [esi+16]
  00299	85 c0		 test	 eax, eax
  0029b	0f 84 86 00 00
	00		 je	 $L75306

; 509  : 					{
; 510  : 						gC_ci->FinishImeRunning();

  002a1	8b 0d 00 00 00
	00		 mov	 ecx, DWORD PTR ?gC_ci@@3PAVCI@@A ; gC_ci
  002a7	e8 00 00 00 00	 call	 ?FinishImeRunning@CI@@QAEXXZ ; CI::FinishImeRunning

; 511  : 						int sum = 0;
; 512  : 						while(sum < m_reach_limit+1)

  002ac	8b 56 28	 mov	 edx, DWORD PTR [esi+40]
  002af	33 ff		 xor	 edi, edi
  002b1	42		 inc	 edx
  002b2	85 d2		 test	 edx, edx
  002b4	7e 23		 jle	 SHORT $L80557
$L75298:

; 513  : 						{
; 514  : 							int num = IncreaseCursor();

  002b6	8b ce		 mov	 ecx, esi
  002b8	e8 00 00 00 00	 call	 ?IncreaseCursor@LineEditor@@QAEHXZ ; LineEditor::IncreaseCursor

; 515  : 							if(num == 0 || m_string[m_cursor-1] == '\n')break;

  002bd	85 c0		 test	 eax, eax
  002bf	74 18		 je	 SHORT $L80557
  002c1	8b 4e 20	 mov	 ecx, DWORD PTR [esi+32]
  002c4	8b 56 04	 mov	 edx, DWORD PTR [esi+4]
  002c7	66 83 7c 4a fe
	0a		 cmp	 WORD PTR [edx+ecx*2-2], 10 ; 0000000aH
  002cd	74 0a		 je	 SHORT $L80557

; 516  : 							sum += num;

  002cf	03 f8		 add	 edi, eax
  002d1	8b 46 28	 mov	 eax, DWORD PTR [esi+40]
  002d4	40		 inc	 eax
  002d5	3b f8		 cmp	 edi, eax
  002d7	7c dd		 jl	 SHORT $L75298
$L80557:

; 517  : 						}
; 518  : 						if(sum > m_reach_limit+1)

  002d9	8b 4e 28	 mov	 ecx, DWORD PTR [esi+40]
  002dc	41		 inc	 ecx
  002dd	3b f9		 cmp	 edi, ecx
  002df	7e 3b		 jle	 SHORT $L80561

; 519  : 							DecreaseCursor();

  002e1	8b ce		 mov	 ecx, esi
  002e3	e8 00 00 00 00	 call	 ?DecreaseCursor@LineEditor@@QAEHXZ ; LineEditor::DecreaseCursor

; 530  : 							gC_ci->ForceShowCursor();

  002e8	8b 0d 00 00 00
	00		 mov	 ecx, DWORD PTR ?gC_ci@@3PAVCI@@A ; gC_ci
  002ee	e8 00 00 00 00	 call	 ?ForceShowCursor@CI@@QBEXXZ ; CI::ForceShowCursor
  002f3	5f		 pop	 edi
  002f4	5e		 pop	 esi
  002f5	5b		 pop	 ebx

; 572  : 				gC_ci->ForceShowCursor();
; 573  : 			}
; 574  : 			break;
; 575  : 	}
; 576  : //	DEBUG_ADD("[LineEditor] KeyboardControl OK");
; 577  : }

  002f6	c2 0c 00	 ret	 12			; 0000000cH
$L75304:

; 520  : 
; 521  : 						gC_ci->ForceShowCursor();
; 522  : 					}
; 523  : 					break;
; 524  : 
; 525  : 				case VK_DELETE:
; 526  : 					if (m_cursor < m_string.size())

  002f9	8b 56 08	 mov	 edx, DWORD PTR [esi+8]
  002fc	8b 7e 04	 mov	 edi, DWORD PTR [esi+4]
  002ff	8b 46 20	 mov	 eax, DWORD PTR [esi+32]
  00302	2b d7		 sub	 edx, edi
  00304	d1 fa		 sar	 edx, 1
  00306	3b c2		 cmp	 eax, edx
  00308	73 1d		 jae	 SHORT $L75306

; 527  : 					{
; 528  : 						IncreaseCursor();

  0030a	8b ce		 mov	 ecx, esi
  0030c	e8 00 00 00 00	 call	 ?IncreaseCursor@LineEditor@@QAEHXZ ; LineEditor::IncreaseCursor
$L80564:

; 529  : 						if (EraseCharacterFrontCursor() == true)

  00311	8b ce		 mov	 ecx, esi
  00313	e8 00 00 00 00	 call	 ?EraseCharacterFrontCursor@LineEditor@@QAE_NXZ ; LineEditor::EraseCharacterFrontCursor
$L80563:
  00318	3c 01		 cmp	 al, 1
  0031a	75 0b		 jne	 SHORT $L75306
$L80561:

; 530  : 							gC_ci->ForceShowCursor();

  0031c	8b 0d 00 00 00
	00		 mov	 ecx, DWORD PTR ?gC_ci@@3PAVCI@@A ; gC_ci
  00322	e8 00 00 00 00	 call	 ?ForceShowCursor@CI@@QBEXXZ ; CI::ForceShowCursor
$L75306:
  00327	5f		 pop	 edi
  00328	5e		 pop	 esi
  00329	5b		 pop	 ebx

; 572  : 				gC_ci->ForceShowCursor();
; 573  : 			}
; 574  : 			break;
; 575  : 	}
; 576  : //	DEBUG_ADD("[LineEditor] KeyboardControl OK");
; 577  : }

  0032a	c2 0c 00	 ret	 12			; 0000000cH
  0032d	8d 49 00	 npad	 3
$L80565:
  00330	00 00 00 00	 DD	 $L75271
  00334	00 00 00 00	 DD	 $L75273
  00338	00 00 00 00	 DD	 $L75268
  0033c	00 00 00 00	 DD	 $L75266
  00340	00 00 00 00	 DD	 $L75262
  00344	00 00 00 00	 DD	 $L75284
  00348	00 00 00 00	 DD	 $L75264
  0034c	00 00 00 00	 DD	 $L75294
  00350	00 00 00 00	 DD	 $L75270
  00354	00 00 00 00	 DD	 $L75304
  00358	00 00 00 00	 DD	 $L75306
$L80560:
  0035c	00		 DB	 0
  0035d	0a		 DB	 10			; 0000000aH
  0035e	0a		 DB	 10			; 0000000aH
  0035f	0a		 DB	 10			; 0000000aH
  00360	0a		 DB	 10			; 0000000aH
  00361	01		 DB	 1
  00362	0a		 DB	 10			; 0000000aH
  00363	0a		 DB	 10			; 0000000aH
  00364	0a		 DB	 10			; 0000000aH
  00365	0a		 DB	 10			; 0000000aH
  00366	0a		 DB	 10			; 0000000aH
  00367	0a		 DB	 10			; 0000000aH
  00368	0a		 DB	 10			; 0000000aH
  00369	0a		 DB	 10			; 0000000aH
  0036a	0a		 DB	 10			; 0000000aH
  0036b	0a		 DB	 10			; 0000000aH
  0036c	0a		 DB	 10			; 0000000aH
  0036d	0a		 DB	 10			; 0000000aH
  0036e	0a		 DB	 10			; 0000000aH
  0036f	0a		 DB	 10			; 0000000aH
  00370	0a		 DB	 10			; 0000000aH
  00371	0a		 DB	 10			; 0000000aH
  00372	0a		 DB	 10			; 0000000aH
  00373	0a		 DB	 10			; 0000000aH
  00374	0a		 DB	 10			; 0000000aH
  00375	0a		 DB	 10			; 0000000aH
  00376	0a		 DB	 10			; 0000000aH
  00377	02		 DB	 2
  00378	03		 DB	 3
  00379	04		 DB	 4
  0037a	05		 DB	 5
  0037b	06		 DB	 6
  0037c	07		 DB	 7
  0037d	0a		 DB	 10			; 0000000aH
  0037e	0a		 DB	 10			; 0000000aH
  0037f	0a		 DB	 10			; 0000000aH
  00380	0a		 DB	 10			; 0000000aH
  00381	08		 DB	 8
  00382	09		 DB	 9
?KeyboardControl@LineEditor@@QAEXIIJ@Z ENDP		; LineEditor::KeyboardControl
_TEXT	ENDS
PUBLIC	?IME_Normal@@YAXIIJ@Z				; IME_Normal
; Function compile flags: /Ogty
;	COMDAT ?IME_Normal@@YAXIIJ@Z
_TEXT	SEGMENT
_message$ = 8						; size = 4
_wParam$ = 12						; size = 4
_lParam$ = 16						; size = 4
?IME_Normal@@YAXIIJ@Z PROC NEAR				; IME_Normal, COMDAT

; 853  : 	
; 854  : 	if (gpC_focused_line_editor != NULL)

  00000	8b 0d 00 00 00
	00		 mov	 ecx, DWORD PTR _gpC_focused_line_editor
  00006	85 c9		 test	 ecx, ecx
  00008	74 14		 je	 SHORT $L75398

; 855  : 	{
; 856  : 			gpC_focused_line_editor->KeyboardControl(message, wParam, lParam);

  0000a	8b 44 24 0c	 mov	 eax, DWORD PTR _lParam$[esp-4]
  0000e	8b 54 24 08	 mov	 edx, DWORD PTR _wParam$[esp-4]
  00012	50		 push	 eax
  00013	8b 44 24 08	 mov	 eax, DWORD PTR _message$[esp]
  00017	52		 push	 edx
  00018	50		 push	 eax
  00019	e8 00 00 00 00	 call	 ?KeyboardControl@LineEditor@@QAEXIIJ@Z ; LineEditor::KeyboardControl
$L75398:

; 857  : 	}
; 858  : 
; 859  : }

  0001e	c3		 ret	 0
?IME_Normal@@YAXIIJ@Z ENDP				; IME_Normal
_TEXT	ENDS
PUBLIC	??4?$basic_string@GV?$char_traits@G@_STL@@V?$allocator@G@2@@_STL@@QAEAAV01@ABV01@@Z ; _STL::basic_string<unsigned short,_STL::char_traits<unsigned short>,_STL::allocator<unsigned short> >::operator=
; Function compile flags: /Ogty
; File c:\stlport-4.6.1\stlport\stl\_string.h
;	COMDAT ??4?$basic_string@GV?$char_traits@G@_STL@@V?$allocator@G@2@@_STL@@QAEAAV01@ABV01@@Z
_TEXT	SEGMENT
$T80576 = 8						; size = 1
___s$ = 8						; size = 4
??4?$basic_string@GV?$char_traits@G@_STL@@V?$allocator@G@2@@_STL@@QAEAAV01@ABV01@@Z PROC NEAR ; _STL::basic_string<unsigned short,_STL::char_traits<unsigned short>,_STL::allocator<unsigned short> >::operator=, COMDAT
; _this$ = ecx

; 308  :     if (&__s != this) 

  00000	8b 44 24 04	 mov	 eax, DWORD PTR ___s$[esp-4]
  00004	56		 push	 esi
  00005	8b f1		 mov	 esi, ecx
  00007	3b c6		 cmp	 eax, esi
  00009	74 13		 je	 SHORT $L80579

; 309  :       assign(__s._M_start, __s._M_finish);

  0000b	8b 50 04	 mov	 edx, DWORD PTR [eax+4]
  0000e	8b 00		 mov	 eax, DWORD PTR [eax]
  00010	8d 4c 24 08	 lea	 ecx, DWORD PTR $T80576[esp]
  00014	51		 push	 ecx
  00015	52		 push	 edx
  00016	50		 push	 eax
  00017	8b ce		 mov	 ecx, esi
  00019	e8 00 00 00 00	 call	 ??$_M_assign_dispatch@PAG@?$basic_string@GV?$char_traits@G@_STL@@V?$allocator@G@2@@_STL@@AAEAAV01@PAG0ABU__false_type@1@@Z ; _STL::basic_string<unsigned short,_STL::char_traits<unsigned short>,_STL::allocator<unsigned short> >::_M_assign_dispatch<unsigned short *>
$L80579:

; 310  :     return *this;

  0001e	8b c6		 mov	 eax, esi
  00020	5e		 pop	 esi

; 311  :   }

  00021	c2 04 00	 ret	 4
??4?$basic_string@GV?$char_traits@G@_STL@@V?$allocator@G@2@@_STL@@QAEAAV01@ABV01@@Z ENDP ; _STL::basic_string<unsigned short,_STL::char_traits<unsigned short>,_STL::allocator<unsigned short> >::operator=
_TEXT	ENDS
;	COMDAT xdata$x
; File c:\stlport-4.6.1\stlport\stl\_new.h
xdata$x	SEGMENT
$T80760	DD	0ffffffffH
	DD	FLAT:$L80586
$T80757	DD	019930520H
	DD	01H
	DD	FLAT:$T80760
	DD	2 DUP(00H)
	DD	2 DUP(00H)
; Function compile flags: /Ogty
; File c:\darkeden\designed_common\project\new - vs_ui\src\widget\u_edit.cpp
xdata$x	ENDS
;	COMDAT ?ReachEndOfBox@LineEditorVisual@@UBE_NG@Z
_TEXT	SEGMENT
_str_buf$ = -28						; size = 4
_temp_string$ = -24					; size = 12
__$EHRec$ = -12						; size = 12
$T80600 = 8						; size = 1
_will_input_char$ = 8					; size = 2
?ReachEndOfBox@LineEditorVisual@@UBE_NG@Z PROC NEAR	; LineEditorVisual::ReachEndOfBox, COMDAT
; _this$ = ecx

; 909  : {

  00000	6a ff		 push	 -1
  00002	68 00 00 00 00	 push	 __ehhandler$?ReachEndOfBox@LineEditorVisual@@UBE_NG@Z
  00007	64 a1 00 00 00
	00		 mov	 eax, DWORD PTR fs:__except_list
  0000d	50		 push	 eax
  0000e	64 89 25 00 00
	00 00		 mov	 DWORD PTR fs:__except_list, esp
  00015	83 ec 10	 sub	 esp, 16			; 00000010H
  00018	56		 push	 esi
  00019	8b f1		 mov	 esi, ecx
  0001b	57		 push	 edi

; 910  : 	char * str_buf = NULL;
; 911  : 
; 912  : 	String temp_string;

  0001c	8d 4c 24 0c	 lea	 ecx, DWORD PTR _temp_string$[esp+36]
  00020	c7 44 24 08 00
	00 00 00	 mov	 DWORD PTR _str_buf$[esp+36], 0
  00028	e8 00 00 00 00	 call	 ??0?$basic_string@GV?$char_traits@G@_STL@@V?$allocator@G@2@@_STL@@QAE@XZ ; _STL::basic_string<unsigned short,_STL::char_traits<unsigned short>,_STL::allocator<unsigned short> >::basic_string<unsigned short,_STL::char_traits<unsigned short>,_STL::allocator<unsigned short> >

; 913  : 	temp_string = m_string;

  0002d	8d 46 04	 lea	 eax, DWORD PTR [esi+4]
  00030	8d 4c 24 0c	 lea	 ecx, DWORD PTR _temp_string$[esp+36]
  00034	3b c1		 cmp	 eax, ecx
  00036	c7 44 24 20 00
	00 00 00	 mov	 DWORD PTR __$EHRec$[esp+44], 0
  0003e	74 15		 je	 SHORT $L80598
  00040	8b 48 04	 mov	 ecx, DWORD PTR [eax+4]
  00043	8b 00		 mov	 eax, DWORD PTR [eax]
  00045	8d 54 24 28	 lea	 edx, DWORD PTR $T80600[esp+32]
  00049	52		 push	 edx
  0004a	51		 push	 ecx
  0004b	50		 push	 eax
  0004c	8d 4c 24 18	 lea	 ecx, DWORD PTR _temp_string$[esp+48]
  00050	e8 00 00 00 00	 call	 ??$_M_assign_dispatch@PAG@?$basic_string@GV?$char_traits@G@_STL@@V?$allocator@G@2@@_STL@@AAEAAV01@PAG0ABU__false_type@1@@Z ; _STL::basic_string<unsigned short,_STL::char_traits<unsigned short>,_STL::allocator<unsigned short> >::_M_assign_dispatch<unsigned short *>
$L80598:

; 914  : 	if(will_input_char != 0)

  00055	66 8b 44 24 28	 mov	 ax, WORD PTR _will_input_char$[esp+32]
  0005a	66 85 c0	 test	 ax, ax
  0005d	74 14		 je	 SHORT $L80606

; 917  : 			temp_string += (char_t)'a';

  0005f	8d 4c 24 0c	 lea	 ecx, DWORD PTR _temp_string$[esp+36]

; 915  : 	{
; 916  : 		if (will_input_char > 0) // ASCII?

  00063	76 04		 jbe	 SHORT $L75434

; 917  : 			temp_string += (char_t)'a';

  00065	6a 61		 push	 97			; 00000061H

; 918  : 		else

  00067	eb 05		 jmp	 SHORT $L80759
$L75434:

; 919  : 			temp_string += *((char_t *)"김");

  00069	68 b1 e8 00 00	 push	 59569			; 0000e8b1H
$L80759:
  0006e	e8 00 00 00 00	 call	 ?push_back@?$basic_string@GV?$char_traits@G@_STL@@V?$allocator@G@2@@_STL@@QAEXG@Z ; _STL::basic_string<unsigned short,_STL::char_traits<unsigned short>,_STL::allocator<unsigned short> >::push_back
$L80606:

; 920  : 	}
; 921  : 
; 922  : 	int len = g_Convert_DBCS_Ascii2SingleByte(temp_string.c_str()+m_scroll, temp_string.size(), str_buf);

  00073	8b 4c 24 10	 mov	 ecx, DWORD PTR _temp_string$[esp+40]
  00077	8b 56 1c	 mov	 edx, DWORD PTR [esi+28]
  0007a	8d 44 24 08	 lea	 eax, DWORD PTR _str_buf$[esp+36]
  0007e	50		 push	 eax
  0007f	8b 44 24 10	 mov	 eax, DWORD PTR _temp_string$[esp+40]
  00083	2b c8		 sub	 ecx, eax
  00085	d1 f9		 sar	 ecx, 1
  00087	51		 push	 ecx
  00088	8d 04 50	 lea	 eax, DWORD PTR [eax+edx*2]
  0008b	50		 push	 eax
  0008c	e8 00 00 00 00	 call	 ?g_Convert_DBCS_Ascii2SingleByte@@YAHPBGHAAPAD@Z ; g_Convert_DBCS_Ascii2SingleByte

; 923  : 
; 924  : 	int str_width = g_GetStringWidth(str_buf, m_print_info.hfont);

  00091	8b 4e 40	 mov	 ecx, DWORD PTR [esi+64]
  00094	8b 54 24 14	 mov	 edx, DWORD PTR _str_buf$[esp+48]
  00098	51		 push	 ecx
  00099	52		 push	 edx
  0009a	e8 00 00 00 00	 call	 ?g_GetStringWidth@@YAHPBDPAUHFONT__@@@Z ; g_GetStringWidth
  0009f	8b f8		 mov	 edi, eax

; 925  : 
; 926  : 	DeleteNewArray(str_buf);

  000a1	8b 44 24 1c	 mov	 eax, DWORD PTR _str_buf$[esp+56]
  000a5	83 c4 14	 add	 esp, 20			; 00000014H
  000a8	85 c0		 test	 eax, eax
  000aa	74 11		 je	 SHORT $L75441
  000ac	50		 push	 eax
  000ad	e8 00 00 00 00	 call	 ??_V@YAXPAX@Z		; operator delete[]
  000b2	83 c4 04	 add	 esp, 4
  000b5	c7 44 24 08 00
	00 00 00	 mov	 DWORD PTR _str_buf$[esp+36], 0
$L75441:

; 927  : 
; 928  : 	if (m_abs_width > -1 && m_abs_width < str_width)

  000bd	8b 76 38	 mov	 esi, DWORD PTR [esi+56]
  000c0	83 c8 ff	 or	 eax, -1
  000c3	3b f0		 cmp	 esi, eax
  000c5	7e 5e		 jle	 SHORT $L75443
  000c7	3b f7		 cmp	 esi, edi
  000c9	7d 5a		 jge	 SHORT $L75443

; 929  : 		return true;

  000cb	8b 4c 24 0c	 mov	 ecx, DWORD PTR _temp_string$[esp+36]
  000cf	85 c9		 test	 ecx, ecx
  000d1	89 44 24 20	 mov	 DWORD PTR __$EHRec$[esp+44], eax
  000d5	74 39		 je	 SHORT $L80682
  000d7	8b 44 24 14	 mov	 eax, DWORD PTR _temp_string$[esp+44]
  000db	2b c1		 sub	 eax, ecx
  000dd	d1 f8		 sar	 eax, 1
  000df	d1 e0		 shl	 eax, 1
  000e1	3d 80 00 00 00	 cmp	 eax, 128		; 00000080H
  000e6	76 1e		 jbe	 SHORT $L80681
  000e8	51		 push	 ecx
  000e9	e8 00 00 00 00	 call	 ??3@YAXPAX@Z		; operator delete
  000ee	83 c4 04	 add	 esp, 4
  000f1	5f		 pop	 edi
  000f2	b0 01		 mov	 al, 1
  000f4	5e		 pop	 esi

; 932  : }

  000f5	8b 4c 24 10	 mov	 ecx, DWORD PTR __$EHRec$[esp+28]
  000f9	64 89 0d 00 00
	00 00		 mov	 DWORD PTR fs:__except_list, ecx
  00100	83 c4 1c	 add	 esp, 28			; 0000001cH
  00103	c2 04 00	 ret	 4

; 929  : 		return true;

$L80681:
  00106	50		 push	 eax
  00107	51		 push	 ecx
  00108	e8 00 00 00 00	 call	 ?_M_deallocate@?$__node_alloc@$00$0A@@_STL@@CAXPAXI@Z ; _STL::__node_alloc<1,0>::_M_deallocate
  0010d	83 c4 08	 add	 esp, 8
$L80682:
  00110	5f		 pop	 edi
  00111	b0 01		 mov	 al, 1
  00113	5e		 pop	 esi

; 932  : }

  00114	8b 4c 24 10	 mov	 ecx, DWORD PTR __$EHRec$[esp+28]
  00118	64 89 0d 00 00
	00 00		 mov	 DWORD PTR fs:__except_list, ecx
  0011f	83 c4 1c	 add	 esp, 28			; 0000001cH
  00122	c2 04 00	 ret	 4
$L75443:

; 930  : 
; 931  : 	return false;

  00125	8b 4c 24 0c	 mov	 ecx, DWORD PTR _temp_string$[esp+36]
  00129	85 c9		 test	 ecx, ecx
  0012b	89 44 24 20	 mov	 DWORD PTR __$EHRec$[esp+44], eax
  0012f	74 39		 je	 SHORT $L80752
  00131	8b 44 24 14	 mov	 eax, DWORD PTR _temp_string$[esp+44]
  00135	2b c1		 sub	 eax, ecx
  00137	d1 f8		 sar	 eax, 1
  00139	d1 e0		 shl	 eax, 1
  0013b	3d 80 00 00 00	 cmp	 eax, 128		; 00000080H
  00140	76 1e		 jbe	 SHORT $L80751
  00142	51		 push	 ecx
  00143	e8 00 00 00 00	 call	 ??3@YAXPAX@Z		; operator delete
  00148	83 c4 04	 add	 esp, 4
  0014b	5f		 pop	 edi
  0014c	32 c0		 xor	 al, al
  0014e	5e		 pop	 esi

; 932  : }

  0014f	8b 4c 24 10	 mov	 ecx, DWORD PTR __$EHRec$[esp+28]
  00153	64 89 0d 00 00
	00 00		 mov	 DWORD PTR fs:__except_list, ecx
  0015a	83 c4 1c	 add	 esp, 28			; 0000001cH
  0015d	c2 04 00	 ret	 4

; 930  : 
; 931  : 	return false;

$L80751:
  00160	50		 push	 eax
  00161	51		 push	 ecx
  00162	e8 00 00 00 00	 call	 ?_M_deallocate@?$__node_alloc@$00$0A@@_STL@@CAXPAXI@Z ; _STL::__node_alloc<1,0>::_M_deallocate
  00167	83 c4 08	 add	 esp, 8
$L80752:

; 932  : }

  0016a	8b 4c 24 18	 mov	 ecx, DWORD PTR __$EHRec$[esp+36]
  0016e	5f		 pop	 edi
  0016f	32 c0		 xor	 al, al
  00171	5e		 pop	 esi
  00172	64 89 0d 00 00
	00 00		 mov	 DWORD PTR fs:__except_list, ecx
  00179	83 c4 1c	 add	 esp, 28			; 0000001cH
  0017c	c2 04 00	 ret	 4
_TEXT	ENDS
;	COMDAT text$x
text$x	SEGMENT
$L80586:
  00000	8d 4d e8	 lea	 ecx, DWORD PTR _temp_string$[ebp]
  00003	e9 00 00 00 00	 jmp	 ??1?$basic_string@GV?$char_traits@G@_STL@@V?$allocator@G@2@@_STL@@QAE@XZ ; _STL::basic_string<unsigned short,_STL::char_traits<unsigned short>,_STL::allocator<unsigned short> >::~basic_string<unsigned short,_STL::char_traits<unsigned short>,_STL::allocator<unsigned short> >
__ehhandler$?ReachEndOfBox@LineEditorVisual@@UBE_NG@Z:
  00008	b8 00 00 00 00	 mov	 eax, OFFSET FLAT:$T80757
  0000d	e9 00 00 00 00	 jmp	 ___CxxFrameHandler
text$x	ENDS
?ReachEndOfBox@LineEditorVisual@@UBE_NG@Z ENDP		; LineEditorVisual::ReachEndOfBox
END
