; Listing generated by Microsoft (R) Optimizing Compiler Version 13.10.3077 

	TITLE	\darkeden\Designed_Common\Project\New - vs_ui\src\VS_UI_GlobalResource.cpp
	.386P
include listing.inc
if @Version gt 510
.model FLAT
else
_TEXT	SEGMENT PARA USE32 PUBLIC 'CODE'
_TEXT	ENDS
_DATA	SEGMENT DWORD USE32 PUBLIC 'DATA'
_DATA	ENDS
CONST	SEGMENT DWORD USE32 PUBLIC 'CONST'
CONST	ENDS
_BSS	SEGMENT DWORD USE32 PUBLIC 'BSS'
_BSS	ENDS
$$SYMBOLS	SEGMENT BYTE USE32 'DEBSYM'
$$SYMBOLS	ENDS
$$TYPES	SEGMENT BYTE USE32 'DEBTYP'
$$TYPES	ENDS
_TLS	SEGMENT DWORD USE32 PUBLIC 'TLS'
_TLS	ENDS
;	COMDAT ??_C@_0BN@ODLNCKCA@Data?2?2Info?2?2ClientConfig?4inf?$AA@
CONST	SEGMENT DWORD USE32 PUBLIC 'CONST'
CONST	ENDS
;	COMDAT ??_C@_0BM@DFPLPGPC@Data?2?2Info?2?2GuildMapper?4inf?$AA@
CONST	SEGMENT DWORD USE32 PUBLIC 'CONST'
CONST	ENDS
;	COMDAT ??_C@_0BN@LHODHNBK@Data?2?2Info?2?2GuildVersion?4inf?$AA@
CONST	SEGMENT DWORD USE32 PUBLIC 'CONST'
CONST	ENDS
;	COMDAT ??_C@_0BH@DDPLNCOL@Data?2?2Info?2?2Player?4inf?$AA@
CONST	SEGMENT DWORD USE32 PUBLIC 'CONST'
CONST	ENDS
;	COMDAT ??_C@_0BL@ILLNAPHB@Data?2?2Info?2?2Resolution?4inf?$AA@
CONST	SEGMENT DWORD USE32 PUBLIC 'CONST'
CONST	ENDS
;	COMDAT ??_C@_0CA@HEIGFDLG@Data?2?2Info?2?2SelectedChannel?4inf?$AA@
CONST	SEGMENT DWORD USE32 PUBLIC 'CONST'
CONST	ENDS
;	COMDAT ??_C@_0BK@CPILBBCJ@data?2ui?2spk?2ScrollBar?4spk?$AA@
CONST	SEGMENT DWORD USE32 PUBLIC 'CONST'
CONST	ENDS
;	COMDAT ??_C@_0CD@BIOJOJAF@data?2ui?2spk?2AssembleMessageBox?4s@
CONST	SEGMENT DWORD USE32 PUBLIC 'CONST'
CONST	ENDS
;	COMDAT ??_C@_0BN@DFFDAEFD@data?2ui?2spk?2CommonButton?4spk?$AA@
CONST	SEGMENT DWORD USE32 PUBLIC 'CONST'
CONST	ENDS
;	COMDAT ??_C@_0BK@HGEIHNAH@data?2ui?2spk?2npcdialog?4spk?$AA@
CONST	SEGMENT DWORD USE32 PUBLIC 'CONST'
CONST	ENDS
;	COMDAT ??_C@_0BP@DBANJJEF@data?2ui?2spk?2npcmenu_normal?4spk?$AA@
CONST	SEGMENT DWORD USE32 PUBLIC 'CONST'
CONST	ENDS
;	COMDAT ??_C@_0BL@JAHNFGLE@data?2ui?2spk?2InfoSlayer?4spk?$AA@
CONST	SEGMENT DWORD USE32 PUBLIC 'CONST'
CONST	ENDS
;	COMDAT ??_C@_0CJ@OAJKOGDB@data?2ui?2spk?2AssembleMessageBoxSl@
CONST	SEGMENT DWORD USE32 PUBLIC 'CONST'
CONST	ENDS
;	COMDAT ??_C@_0CP@GHIFOMPL@data?2ui?2spk?2AssembleMessageBoxBu@
CONST	SEGMENT DWORD USE32 PUBLIC 'CONST'
CONST	ENDS
;	COMDAT ??_C@_0CK@MCOKEDJH@data?2ui?2spk?2AssembleMessageBoxVa@
CONST	SEGMENT DWORD USE32 PUBLIC 'CONST'
CONST	ENDS
;	COMDAT ??_C@_0DA@LJNMHHDD@data?2ui?2spk?2AssembleMessageBoxBu@
CONST	SEGMENT DWORD USE32 PUBLIC 'CONST'
CONST	ENDS
;	COMDAT ??_C@_0BM@FPEINDII@data?2ui?2spk?2InfoVampire?4spk?$AA@
CONST	SEGMENT DWORD USE32 PUBLIC 'CONST'
CONST	ENDS
;	COMDAT ??_C@_0CK@KLNPDHCN@data?2ui?2spk?2AssembleMessageBoxOu@
CONST	SEGMENT DWORD USE32 PUBLIC 'CONST'
CONST	ENDS
;	COMDAT ??_C@_0DA@NAOJADIJ@data?2ui?2spk?2AssembleMessageBoxBu@
CONST	SEGMENT DWORD USE32 PUBLIC 'CONST'
CONST	ENDS
;	COMDAT ??_C@_0BM@DGHNKHDC@data?2ui?2spk?2InfoOusters?4spk?$AA@
CONST	SEGMENT DWORD USE32 PUBLIC 'CONST'
CONST	ENDS
;	COMDAT ??_C@_03KLNPHJAI@?$CFsi?$AA@
CONST	SEGMENT DWORD USE32 PUBLIC 'CONST'
CONST	ENDS
;	COMDAT ??_C@_0BJ@MIBMMHPK@real?5size?5?3?5?$CFd?5size?5?3?5?$CFd?$AA@
CONST	SEGMENT DWORD USE32 PUBLIC 'CONST'
CONST	ENDS
;	COMDAT ??_C@_0L@GKEOOOME@CTypePack2?$AA@
CONST	SEGMENT DWORD USE32 PUBLIC 'CONST'
CONST	ENDS
;	COMDAT ??_C@_0M@KJGOGBJN@?2header?4inf?$AA@
CONST	SEGMENT DWORD USE32 PUBLIC 'CONST'
CONST	ENDS
;	COMDAT ??_C@_09EIKOIO@?$CFs?2?$CF05d?$CFs?$AA@
CONST	SEGMENT DWORD USE32 PUBLIC 'CONST'
CONST	ENDS
;	COMDAT ??_C@_0N@GOPDCEEB@basic_string?$AA@
CONST	SEGMENT DWORD USE32 PUBLIC 'CONST'
CONST	ENDS
rdata$r	SEGMENT DWORD USE32 PUBLIC 'CONST'
rdata$r	ENDS
text$yc	SEGMENT PARA USE32 PUBLIC 'CODE'
text$yc	ENDS
CRT$XCA	SEGMENT DWORD USE32 PUBLIC 'DATA'
CRT$XCA	ENDS
CRT$XCU	SEGMENT DWORD USE32 PUBLIC 'DATA'
CRT$XCU	ENDS
CRT$XCL	SEGMENT DWORD USE32 PUBLIC 'DATA'
CRT$XCL	ENDS
CRT$XCC	SEGMENT DWORD USE32 PUBLIC 'DATA'
CRT$XCC	ENDS
CRT$XCZ	SEGMENT DWORD USE32 PUBLIC 'DATA'
CRT$XCZ	ENDS
text$yd	SEGMENT PARA USE32 PUBLIC 'CODE'
text$yd	ENDS
;	COMDAT ?Is565@CDirectDraw@@SA_NXZ
_TEXT	SEGMENT PARA USE32 PUBLIC 'CODE'
_TEXT	ENDS
;	COMDAT ?Red@CDirectDraw@@SAEABG@Z
_TEXT	SEGMENT PARA USE32 PUBLIC 'CODE'
_TEXT	ENDS
;	COMDAT ?Green@CDirectDraw@@SAEABG@Z
_TEXT	SEGMENT PARA USE32 PUBLIC 'CODE'
_TEXT	ENDS
;	COMDAT ?Blue@CDirectDraw@@SAEABG@Z
_TEXT	SEGMENT PARA USE32 PUBLIC 'CODE'
_TEXT	ENDS
;	COMDAT ?SetClipLeftTop@CDirectDrawSurface@@QAEXHH@Z
_TEXT	SEGMENT PARA USE32 PUBLIC 'CODE'
_TEXT	ENDS
;	COMDAT ?SetClipRightBottom@CDirectDrawSurface@@QAEXHH@Z
_TEXT	SEGMENT PARA USE32 PUBLIC 'CODE'
_TEXT	ENDS
;	COMDAT _acosl
_TEXT	SEGMENT PARA USE32 PUBLIC 'CODE'
_TEXT	ENDS
;	COMDAT _asinl
_TEXT	SEGMENT PARA USE32 PUBLIC 'CODE'
_TEXT	ENDS
;	COMDAT _atanl
_TEXT	SEGMENT PARA USE32 PUBLIC 'CODE'
_TEXT	ENDS
;	COMDAT _atan2l
_TEXT	SEGMENT PARA USE32 PUBLIC 'CODE'
_TEXT	ENDS
;	COMDAT _ceill
_TEXT	SEGMENT PARA USE32 PUBLIC 'CODE'
_TEXT	ENDS
;	COMDAT _cosl
_TEXT	SEGMENT PARA USE32 PUBLIC 'CODE'
_TEXT	ENDS
;	COMDAT _coshl
_TEXT	SEGMENT PARA USE32 PUBLIC 'CODE'
_TEXT	ENDS
;	COMDAT _expl
_TEXT	SEGMENT PARA USE32 PUBLIC 'CODE'
_TEXT	ENDS
;	COMDAT _fabsl
_TEXT	SEGMENT PARA USE32 PUBLIC 'CODE'
_TEXT	ENDS
;	COMDAT _floorl
_TEXT	SEGMENT PARA USE32 PUBLIC 'CODE'
_TEXT	ENDS
;	COMDAT _fmodl
_TEXT	SEGMENT PARA USE32 PUBLIC 'CODE'
_TEXT	ENDS
;	COMDAT _frexpl
_TEXT	SEGMENT PARA USE32 PUBLIC 'CODE'
_TEXT	ENDS
;	COMDAT _ldexpl
_TEXT	SEGMENT PARA USE32 PUBLIC 'CODE'
_TEXT	ENDS
;	COMDAT _logl
_TEXT	SEGMENT PARA USE32 PUBLIC 'CODE'
_TEXT	ENDS
;	COMDAT _log10l
_TEXT	SEGMENT PARA USE32 PUBLIC 'CODE'
_TEXT	ENDS
;	COMDAT _modfl
_TEXT	SEGMENT PARA USE32 PUBLIC 'CODE'
_TEXT	ENDS
;	COMDAT _powl
_TEXT	SEGMENT PARA USE32 PUBLIC 'CODE'
_TEXT	ENDS
;	COMDAT _sinl
_TEXT	SEGMENT PARA USE32 PUBLIC 'CODE'
_TEXT	ENDS
;	COMDAT _sinhl
_TEXT	SEGMENT PARA USE32 PUBLIC 'CODE'
_TEXT	ENDS
;	COMDAT _sqrtl
_TEXT	SEGMENT PARA USE32 PUBLIC 'CODE'
_TEXT	ENDS
;	COMDAT _tanl
_TEXT	SEGMENT PARA USE32 PUBLIC 'CODE'
_TEXT	ENDS
;	COMDAT _tanhl
_TEXT	SEGMENT PARA USE32 PUBLIC 'CODE'
_TEXT	ENDS
;	COMDAT _frexpf
_TEXT	SEGMENT PARA USE32 PUBLIC 'CODE'
_TEXT	ENDS
;	COMDAT _ldexpf
_TEXT	SEGMENT PARA USE32 PUBLIC 'CODE'
_TEXT	ENDS
;	COMDAT _acosf
_TEXT	SEGMENT PARA USE32 PUBLIC 'CODE'
_TEXT	ENDS
;	COMDAT _asinf
_TEXT	SEGMENT PARA USE32 PUBLIC 'CODE'
_TEXT	ENDS
;	COMDAT _atanf
_TEXT	SEGMENT PARA USE32 PUBLIC 'CODE'
_TEXT	ENDS
;	COMDAT _atan2f
_TEXT	SEGMENT PARA USE32 PUBLIC 'CODE'
_TEXT	ENDS
;	COMDAT _ceilf
_TEXT	SEGMENT PARA USE32 PUBLIC 'CODE'
_TEXT	ENDS
;	COMDAT _cosf
_TEXT	SEGMENT PARA USE32 PUBLIC 'CODE'
_TEXT	ENDS
;	COMDAT _coshf
_TEXT	SEGMENT PARA USE32 PUBLIC 'CODE'
_TEXT	ENDS
;	COMDAT _expf
_TEXT	SEGMENT PARA USE32 PUBLIC 'CODE'
_TEXT	ENDS
;	COMDAT _fabsf
_TEXT	SEGMENT PARA USE32 PUBLIC 'CODE'
_TEXT	ENDS
;	COMDAT _floorf
_TEXT	SEGMENT PARA USE32 PUBLIC 'CODE'
_TEXT	ENDS
;	COMDAT _fmodf
_TEXT	SEGMENT PARA USE32 PUBLIC 'CODE'
_TEXT	ENDS
;	COMDAT _logf
_TEXT	SEGMENT PARA USE32 PUBLIC 'CODE'
_TEXT	ENDS
;	COMDAT _log10f
_TEXT	SEGMENT PARA USE32 PUBLIC 'CODE'
_TEXT	ENDS
;	COMDAT _modff
_TEXT	SEGMENT PARA USE32 PUBLIC 'CODE'
_TEXT	ENDS
;	COMDAT _powf
_TEXT	SEGMENT PARA USE32 PUBLIC 'CODE'
_TEXT	ENDS
;	COMDAT _sinf
_TEXT	SEGMENT PARA USE32 PUBLIC 'CODE'
_TEXT	ENDS
;	COMDAT _sinhf
_TEXT	SEGMENT PARA USE32 PUBLIC 'CODE'
_TEXT	ENDS
;	COMDAT _sqrtf
_TEXT	SEGMENT PARA USE32 PUBLIC 'CODE'
_TEXT	ENDS
;	COMDAT _tanf
_TEXT	SEGMENT PARA USE32 PUBLIC 'CODE'
_TEXT	ENDS
;	COMDAT _tanhf
_TEXT	SEGMENT PARA USE32 PUBLIC 'CODE'
_TEXT	ENDS
;	COMDAT ?start@CNFS@@QAE_NPADH@Z
_TEXT	SEGMENT PARA USE32 PUBLIC 'CODE'
_TEXT	ENDS
;	COMDAT ?end@CNFS@@QAEXXZ
_TEXT	SEGMENT PARA USE32 PUBLIC 'CODE'
_TEXT	ENDS
;	COMDAT ?Init@VirtualFileHeader@@QAEXXZ
_TEXT	SEGMENT PARA USE32 PUBLIC 'CODE'
_TEXT	ENDS
;	COMDAT ??1IFileIO@@UAE@XZ
_TEXT	SEGMENT PARA USE32 PUBLIC 'CODE'
_TEXT	ENDS
;	COMDAT ??_GIFileIO@@UAEPAXI@Z
_TEXT	SEGMENT PARA USE32 PUBLIC 'CODE'
_TEXT	ENDS
;	COMDAT ?get_vfs@iovfs_base@@SAPAVVirtualFileSystem@@XZ
_TEXT	SEGMENT PARA USE32 PUBLIC 'CODE'
_TEXT	ENDS
;	COMDAT ??0iovfs_base@@QAE@XZ
_TEXT	SEGMENT PARA USE32 PUBLIC 'CODE'
_TEXT	ENDS
;	COMDAT ??_Giovfs_base@@UAEPAXI@Z
_TEXT	SEGMENT PARA USE32 PUBLIC 'CODE'
_TEXT	ENDS
;	COMDAT ??1iovfs_base@@UAE@XZ
_TEXT	SEGMENT PARA USE32 PUBLIC 'CODE'
_TEXT	ENDS
;	COMDAT ?Init@iovfs_base@@QAEXXZ
_TEXT	SEGMENT PARA USE32 PUBLIC 'CODE'
_TEXT	ENDS
;	COMDAT ?is_open@iovfs_base@@QBE_NXZ
_TEXT	SEGMENT PARA USE32 PUBLIC 'CODE'
_TEXT	ENDS
;	COMDAT ??0ivfstream@@QAE@XZ
_TEXT	SEGMENT PARA USE32 PUBLIC 'CODE'
_TEXT	ENDS
;	COMDAT ??_Givfstream@@UAEPAXI@Z
_TEXT	SEGMENT PARA USE32 PUBLIC 'CODE'
_TEXT	ENDS
;	COMDAT ??0ivfstream@@QAE@PBDH@Z
_TEXT	SEGMENT PARA USE32 PUBLIC 'CODE'
_TEXT	ENDS
;	COMDAT ??1ivfstream@@UAE@XZ
_TEXT	SEGMENT PARA USE32 PUBLIC 'CODE'
_TEXT	ENDS
;	COMDAT ?open@ivfstream@@UAEXPBDH@Z
_TEXT	SEGMENT PARA USE32 PUBLIC 'CODE'
_TEXT	ENDS
;	COMDAT ?read@ivfstream@@QAEXPADI@Z
_TEXT	SEGMENT PARA USE32 PUBLIC 'CODE'
_TEXT	ENDS
;	COMDAT ?seekg@ivfstream@@QAEXJH@Z
_TEXT	SEGMENT PARA USE32 PUBLIC 'CODE'
_TEXT	ENDS
;	COMDAT ?getline@ivfstream@@QAEPAXPADHD@Z
_TEXT	SEGMENT PARA USE32 PUBLIC 'CODE'
_TEXT	ENDS
;	COMDAT ??_Govfstream@@UAEPAXI@Z
_TEXT	SEGMENT PARA USE32 PUBLIC 'CODE'
_TEXT	ENDS
;	COMDAT ??1ovfstream@@UAE@XZ
_TEXT	SEGMENT PARA USE32 PUBLIC 'CODE'
_TEXT	ENDS
;	COMDAT ?open@ovfstream@@UAEXPBDH@Z
_TEXT	SEGMENT PARA USE32 PUBLIC 'CODE'
_TEXT	ENDS
;	COMDAT ??1ITypePackBase@@UAE@XZ
_TEXT	SEGMENT PARA USE32 PUBLIC 'CODE'
_TEXT	ENDS
;	COMDAT ??_GITypePackBase@@UAEPAXI@Z
_TEXT	SEGMENT PARA USE32 PUBLIC 'CODE'
_TEXT	ENDS
;	COMDAT ?IsInit@CSpritePalBase@@QBE_NXZ
_TEXT	SEGMENT PARA USE32 PUBLIC 'CODE'
_TEXT	ENDS
;	COMDAT ?IsInit@CSprite@@QBE_NXZ
_TEXT	SEGMENT PARA USE32 PUBLIC 'CODE'
_TEXT	ENDS
;	COMDAT ?Lock@ACriticalSection@@QAEXXZ
_TEXT	SEGMENT PARA USE32 PUBLIC 'CODE'
_TEXT	ENDS
;	COMDAT ?Unlock@ACriticalSection@@QAEXXZ
_TEXT	SEGMENT PARA USE32 PUBLIC 'CODE'
_TEXT	ENDS
;	COMDAT ??0CFrame@@QAE@GFF@Z
_TEXT	SEGMENT PARA USE32 PUBLIC 'CODE'
_TEXT	ENDS
;	COMDAT ?Set@CEffectFrame@@QAEXGFFD_N@Z
_TEXT	SEGMENT PARA USE32 PUBLIC 'CODE'
_TEXT	ENDS
;	COMDAT ??0C_GLOBAL_RESOURCE@@QAE@XZ
_TEXT	SEGMENT PARA USE32 PUBLIC 'CODE'
_TEXT	ENDS
;	COMDAT ??1C_GLOBAL_RESOURCE@@QAE@XZ
_TEXT	SEGMENT PARA USE32 PUBLIC 'CODE'
_TEXT	ENDS
;	COMDAT ?LoadAssemble@C_GLOBAL_RESOURCE@@QAEXXZ
_TEXT	SEGMENT PARA USE32 PUBLIC 'CODE'
_TEXT	ENDS
;	COMDAT ?FreeAssemble@C_GLOBAL_RESOURCE@@QAEXXZ
_TEXT	SEGMENT PARA USE32 PUBLIC 'CODE'
_TEXT	ENDS
;	COMDAT ??_GC_SPRITE_PACK@@QAEPAXI@Z
_TEXT	SEGMENT PARA USE32 PUBLIC 'CODE'
_TEXT	ENDS
;	COMDAT ?DrawOutBox@C_GLOBAL_RESOURCE@@QAEXAAVRect@@@Z
_TEXT	SEGMENT PARA USE32 PUBLIC 'CODE'
_TEXT	ENDS
;	COMDAT ?DrawOutBox@C_GLOBAL_RESOURCE@@QAEXHHHH@Z
_TEXT	SEGMENT PARA USE32 PUBLIC 'CODE'
_TEXT	ENDS
;	COMDAT ?DrawOutBoxLocked@C_GLOBAL_RESOURCE@@QAEXAAVRect@@@Z
_TEXT	SEGMENT PARA USE32 PUBLIC 'CODE'
_TEXT	ENDS
;	COMDAT ?DrawOutBoxLocked@C_GLOBAL_RESOURCE@@QAEXHHHH@Z
_TEXT	SEGMENT PARA USE32 PUBLIC 'CODE'
_TEXT	ENDS
;	COMDAT ?DrawInBox@C_GLOBAL_RESOURCE@@QAEXAAVRect@@@Z
_TEXT	SEGMENT PARA USE32 PUBLIC 'CODE'
_TEXT	ENDS
;	COMDAT ?DrawInBox@C_GLOBAL_RESOURCE@@QAEXHHHH@Z
_TEXT	SEGMENT PARA USE32 PUBLIC 'CODE'
_TEXT	ENDS
;	COMDAT ?DrawInBoxLocked@C_GLOBAL_RESOURCE@@QAEXAAVRect@@@Z
_TEXT	SEGMENT PARA USE32 PUBLIC 'CODE'
_TEXT	ENDS
;	COMDAT ?DrawInBoxLocked@C_GLOBAL_RESOURCE@@QAEXHHHH@Z
_TEXT	SEGMENT PARA USE32 PUBLIC 'CODE'
_TEXT	ENDS
;	COMDAT ?DrawDialog@C_GLOBAL_RESOURCE@@QAEXAAVRect@@_N@Z
_TEXT	SEGMENT PARA USE32 PUBLIC 'CODE'
_TEXT	ENDS
;	COMDAT ?DrawDialog@C_GLOBAL_RESOURCE@@QAEXHHHH_N@Z
_TEXT	SEGMENT PARA USE32 PUBLIC 'CODE'
_TEXT	ENDS
;	COMDAT ?DrawDialogLocked@C_GLOBAL_RESOURCE@@QAEXAAVRect@@_N@Z
_TEXT	SEGMENT PARA USE32 PUBLIC 'CODE'
_TEXT	ENDS
;	COMDAT ?DrawDialogLocked@C_GLOBAL_RESOURCE@@QAEXHHHH_N@Z
_TEXT	SEGMENT PARA USE32 PUBLIC 'CODE'
_TEXT	ENDS
;	COMDAT ?DrawNPC@C_GLOBAL_RESOURCE@@QAEXAAVRect@@_N@Z
_TEXT	SEGMENT PARA USE32 PUBLIC 'CODE'
_TEXT	ENDS
;	COMDAT ?DrawNPC@C_GLOBAL_RESOURCE@@QAEXHHHH_N@Z
_TEXT	SEGMENT PARA USE32 PUBLIC 'CODE'
_TEXT	ENDS
;	COMDAT ?DrawNPCLocked@C_GLOBAL_RESOURCE@@QAEXAAVRect@@_N@Z
_TEXT	SEGMENT PARA USE32 PUBLIC 'CODE'
_TEXT	ENDS
;	COMDAT ?DrawNPCLocked@C_GLOBAL_RESOURCE@@QAEXHHHH_N@Z
_TEXT	SEGMENT PARA USE32 PUBLIC 'CODE'
_TEXT	ENDS
;	COMDAT ?DrawDialogOnly@C_GLOBAL_RESOURCE@@QAEXAAVRect@@@Z
_TEXT	SEGMENT PARA USE32 PUBLIC 'CODE'
_TEXT	ENDS
;	COMDAT ?DrawDialogOnly@C_GLOBAL_RESOURCE@@QAEXHHHH@Z
_TEXT	SEGMENT PARA USE32 PUBLIC 'CODE'
_TEXT	ENDS
;	COMDAT ?DrawDialogOnlyLocked@C_GLOBAL_RESOURCE@@QAEXAAVRect@@@Z
_TEXT	SEGMENT PARA USE32 PUBLIC 'CODE'
_TEXT	ENDS
;	COMDAT ?DrawDialogOnlyLocked@C_GLOBAL_RESOURCE@@QAEXHHHH@Z
_TEXT	SEGMENT PARA USE32 PUBLIC 'CODE'
_TEXT	ENDS
;	COMDAT ?DrawDialog2@C_GLOBAL_RESOURCE@@QAEXAAVRect@@_N@Z
_TEXT	SEGMENT PARA USE32 PUBLIC 'CODE'
_TEXT	ENDS
;	COMDAT ?DrawDialog2@C_GLOBAL_RESOURCE@@QAEXHHHH_N@Z
_TEXT	SEGMENT PARA USE32 PUBLIC 'CODE'
_TEXT	ENDS
;	COMDAT ?DrawDialogLocked2@C_GLOBAL_RESOURCE@@QAEXAAVRect@@_N@Z
_TEXT	SEGMENT PARA USE32 PUBLIC 'CODE'
_TEXT	ENDS
;	COMDAT ?DrawDialogLocked2@C_GLOBAL_RESOURCE@@QAEXHHHH_N@Z
_TEXT	SEGMENT PARA USE32 PUBLIC 'CODE'
_TEXT	ENDS
;	COMDAT ?DrawDialogOnly2@C_GLOBAL_RESOURCE@@QAEXAAVRect@@@Z
_TEXT	SEGMENT PARA USE32 PUBLIC 'CODE'
_TEXT	ENDS
;	COMDAT ?DrawDialogOnly2@C_GLOBAL_RESOURCE@@QAEXHHHH@Z
_TEXT	SEGMENT PARA USE32 PUBLIC 'CODE'
_TEXT	ENDS
;	COMDAT ?DrawDialogOnlyLocked2@C_GLOBAL_RESOURCE@@QAEXAAVRect@@@Z
_TEXT	SEGMENT PARA USE32 PUBLIC 'CODE'
_TEXT	ENDS
;	COMDAT ?DrawDialogOnlyLocked2@C_GLOBAL_RESOURCE@@QAEXHHHH@Z
_TEXT	SEGMENT PARA USE32 PUBLIC 'CODE'
_TEXT	ENDS
;	COMDAT ?DrawDialog4@C_GLOBAL_RESOURCE@@QAEXAAVRect@@_N@Z
_TEXT	SEGMENT PARA USE32 PUBLIC 'CODE'
_TEXT	ENDS
;	COMDAT ?DrawDialog4@C_GLOBAL_RESOURCE@@QAEXHHHH_N@Z
_TEXT	SEGMENT PARA USE32 PUBLIC 'CODE'
_TEXT	ENDS
;	COMDAT ?DrawDialogLocked4@C_GLOBAL_RESOURCE@@QAEXAAVRect@@_N@Z
_TEXT	SEGMENT PARA USE32 PUBLIC 'CODE'
_TEXT	ENDS
;	COMDAT ?DrawDialogLocked4@C_GLOBAL_RESOURCE@@QAEXHHHH_N@Z
_TEXT	SEGMENT PARA USE32 PUBLIC 'CODE'
_TEXT	ENDS
;	COMDAT ?DrawTempChatBoxLocked@C_GLOBAL_RESOURCE@@QAEXHHHH_N@Z
_TEXT	SEGMENT PARA USE32 PUBLIC 'CODE'
_TEXT	ENDS
;	COMDAT ?eq@?$__char_traits_base@DH@_STL@@SA_NABD0@Z
_TEXT	SEGMENT PARA USE32 PUBLIC 'CODE'
_TEXT	ENDS
;	COMDAT ?not_eof@?$__char_traits_base@DH@_STL@@SAHABH@Z
_TEXT	SEGMENT PARA USE32 PUBLIC 'CODE'
_TEXT	ENDS
;	COMDAT ?eq_int_type@?$__char_traits_base@DH@_STL@@SA_NABH0@Z
_TEXT	SEGMENT PARA USE32 PUBLIC 'CODE'
_TEXT	ENDS
;	COMDAT ??4?$basic_string@DV?$char_traits@D@_STL@@V?$allocator@D@2@@_STL@@QAEAAV01@PBD@Z
_TEXT	SEGMENT PARA USE32 PUBLIC 'CODE'
_TEXT	ENDS
;	COMDAT ?size@?$basic_string@GV?$char_traits@G@_STL@@V?$allocator@G@2@@_STL@@QBEIXZ
_TEXT	SEGMENT PARA USE32 PUBLIC 'CODE'
_TEXT	ENDS
;	COMDAT ?c_str@?$basic_string@GV?$char_traits@G@_STL@@V?$allocator@G@2@@_STL@@QBEPBGXZ
_TEXT	SEGMENT PARA USE32 PUBLIC 'CODE'
_TEXT	ENDS
;	COMDAT ??0?$fpos@H@_STL@@QAE@J@Z
_TEXT	SEGMENT PARA USE32 PUBLIC 'CODE'
_TEXT	ENDS
;	COMDAT ??B?$fpos@H@_STL@@QBEJXZ
_TEXT	SEGMENT PARA USE32 PUBLIC 'CODE'
_TEXT	ENDS
;	COMDAT ?state@?$fpos@H@_STL@@QBEHXZ
_TEXT	SEGMENT PARA USE32 PUBLIC 'CODE'
_TEXT	ENDS
;	COMDAT ?is_open@?$basic_filebuf@DV?$char_traits@D@_STL@@@_STL@@QBE_NXZ
_TEXT	SEGMENT PARA USE32 PUBLIC 'CODE'
_TEXT	ENDS
;	COMDAT ?_M_seek_return@?$basic_filebuf@DV?$char_traits@D@_STL@@@_STL@@AAE?AV?$fpos@H@2@JH@Z
_TEXT	SEGMENT PARA USE32 PUBLIC 'CODE'
_TEXT	ENDS
;	COMDAT ??0?$_Filebuf_Tmp_Buf@D@_STL@@QAE@H@Z
_TEXT	SEGMENT PARA USE32 PUBLIC 'CODE'
_TEXT	ENDS
;	COMDAT ??1?$_Filebuf_Tmp_Buf@D@_STL@@QAE@XZ
_TEXT	SEGMENT PARA USE32 PUBLIC 'CODE'
_TEXT	ENDS
;	COMDAT ?size@?$list@PAVWindow@@V?$allocator@PAVWindow@@@_STL@@@_STL@@QBEIXZ
_TEXT	SEGMENT PARA USE32 PUBLIC 'CODE'
_TEXT	ENDS
;	COMDAT ?GetSize@?$CTypePack2@VCSprite@@VCSprite555@@VCSprite565@@@@UBEKXZ
_TEXT	SEGMENT PARA USE32 PUBLIC 'CODE'
_TEXT	ENDS
;	COMDAT ?Is565@?$CTypePack2@VCSprite@@VCSprite555@@VCSprite565@@@@UAE_NXZ
_TEXT	SEGMENT PARA USE32 PUBLIC 'CODE'
_TEXT	ENDS
;	COMDAT ?assign@?$basic_string@DV?$char_traits@D@_STL@@V?$allocator@D@2@@_STL@@QAEAAV12@PBD0@Z
_TEXT	SEGMENT PARA USE32 PUBLIC 'CODE'
_TEXT	ENDS
;	COMDAT ?state@?$fpos@H@_STL@@QAEXH@Z
_TEXT	SEGMENT PARA USE32 PUBLIC 'CODE'
_TEXT	ENDS
;	COMDAT ?begin@?$list@PAVWindow@@V?$allocator@PAVWindow@@@_STL@@@_STL@@QBE?AU?$_List_iterator@PAVWindow@@U?$_Const_traits@PAVWindow@@@_STL@@@2@XZ
_TEXT	SEGMENT PARA USE32 PUBLIC 'CODE'
_TEXT	ENDS
;	COMDAT ?end@?$list@PAVWindow@@V?$allocator@PAVWindow@@@_STL@@@_STL@@QBE?AU?$_List_iterator@PAVWindow@@U?$_Const_traits@PAVWindow@@@_STL@@@2@XZ
_TEXT	SEGMENT PARA USE32 PUBLIC 'CODE'
_TEXT	ENDS
;	COMDAT ?copy@?$__char_traits_base@DH@_STL@@SAPADPADPBDI@Z
_TEXT	SEGMENT PARA USE32 PUBLIC 'CODE'
_TEXT	ENDS
;	COMDAT ?begin@?$basic_string@DV?$char_traits@D@_STL@@V?$allocator@D@2@@_STL@@QAEPADXZ
_TEXT	SEGMENT PARA USE32 PUBLIC 'CODE'
_TEXT	ENDS
;	COMDAT ?end@?$basic_string@DV?$char_traits@D@_STL@@V?$allocator@D@2@@_STL@@QAEPADXZ
_TEXT	SEGMENT PARA USE32 PUBLIC 'CODE'
_TEXT	ENDS
;	COMDAT ?size@?$basic_string@DV?$char_traits@D@_STL@@V?$allocator@D@2@@_STL@@QBEIXZ
_TEXT	SEGMENT PARA USE32 PUBLIC 'CODE'
_TEXT	ENDS
;	COMDAT ?erase@?$basic_string@DV?$char_traits@D@_STL@@V?$allocator@D@2@@_STL@@QAEPADPAD0@Z
_TEXT	SEGMENT PARA USE32 PUBLIC 'CODE'
_TEXT	ENDS
;	COMDAT ??0?$_List_iterator@PAVWindow@@U?$_Const_traits@PAVWindow@@@_STL@@@_STL@@QAE@PAU?$_List_node@PAVWindow@@@1@@Z
_TEXT	SEGMENT PARA USE32 PUBLIC 'CODE'
_TEXT	ENDS
;	COMDAT ?move@?$__char_traits_base@DH@_STL@@SAPADPADPBDI@Z
_TEXT	SEGMENT PARA USE32 PUBLIC 'CODE'
_TEXT	ENDS
;	COMDAT ?close@?$basic_filebuf@DV?$char_traits@D@_STL@@@_STL@@QAEPAV12@XZ
_TEXT	SEGMENT PARA USE32 PUBLIC 'CODE'
_TEXT	ENDS
;	COMDAT ?_M_exit_input_mode@?$basic_filebuf@DV?$char_traits@D@_STL@@@_STL@@AAEXXZ
_TEXT	SEGMENT PARA USE32 PUBLIC 'CODE'
_TEXT	ENDS
;	COMDAT ?_M_switch_to_output_mode@?$basic_filebuf@DV?$char_traits@D@_STL@@@_STL@@AAE_NXZ
_TEXT	SEGMENT PARA USE32 PUBLIC 'CODE'
_TEXT	ENDS
;	COMDAT ?_M_output_error@?$basic_filebuf@DV?$char_traits@D@_STL@@@_STL@@AAEHXZ
_TEXT	SEGMENT PARA USE32 PUBLIC 'CODE'
_TEXT	ENDS
;	COMDAT ?_M_allocate_buffers@?$basic_filebuf@DV?$char_traits@D@_STL@@@_STL@@AAE_NPADH@Z
_TEXT	SEGMENT PARA USE32 PUBLIC 'CODE'
_TEXT	ENDS
;	COMDAT ?_M_deallocate_buffers@?$basic_filebuf@DV?$char_traits@D@_STL@@@_STL@@AAEXXZ
_TEXT	SEGMENT PARA USE32 PUBLIC 'CODE'
_TEXT	ENDS
;	COMDAT ?_M_seek_init@?$basic_filebuf@DV?$char_traits@D@_STL@@@_STL@@AAE_N_N@Z
_TEXT	SEGMENT PARA USE32 PUBLIC 'CODE'
_TEXT	ENDS
;	COMDAT ?_M_setup_codecvt@?$basic_filebuf@DV?$char_traits@D@_STL@@@_STL@@AAEXABVlocale@2@@Z
_TEXT	SEGMENT PARA USE32 PUBLIC 'CODE'
_TEXT	ENDS
;	COMDAT ??$equal@PADPADU?$_Eq_traits@V?$char_traits@D@_STL@@@_STL@@@_STL@@YA_NPAD00U?$_Eq_traits@V?$char_traits@D@_STL@@@0@@Z
_TEXT	SEGMENT PARA USE32 PUBLIC 'CODE'
_TEXT	ENDS
;	COMDAT ??1?$SimpleDataList@PAVPI_Processor@@@@UAE@XZ
_TEXT	SEGMENT PARA USE32 PUBLIC 'CODE'
_TEXT	ENDS
;	COMDAT ??1?$SimpleDataList@PAVLineEditorVisual@@@@UAE@XZ
_TEXT	SEGMENT PARA USE32 PUBLIC 'CODE'
_TEXT	ENDS
;	COMDAT ??0?$basic_string@DV?$char_traits@D@_STL@@V?$allocator@D@2@@_STL@@QAE@ABV01@@Z
_TEXT	SEGMENT PARA USE32 PUBLIC 'CODE'
_TEXT	ENDS
;	COMDAT ??0?$basic_string@DV?$char_traits@D@_STL@@V?$allocator@D@2@@_STL@@QAE@XZ
_TEXT	SEGMENT PARA USE32 PUBLIC 'CODE'
_TEXT	ENDS
;	COMDAT ??1?$SimpleDataList@PAVWindow@@@@UAE@XZ
_TEXT	SEGMENT PARA USE32 PUBLIC 'CODE'
_TEXT	ENDS
;	COMDAT ??$_Pow_int@N@@YANNH@Z
_TEXT	SEGMENT PARA USE32 PUBLIC 'CODE'
_TEXT	ENDS
;	COMDAT ??$_Pow_int@H@@YAHHH@Z
_TEXT	SEGMENT PARA USE32 PUBLIC 'CODE'
_TEXT	ENDS
;	COMDAT ??$_Pow_int@M@@YAMMH@Z
_TEXT	SEGMENT PARA USE32 PUBLIC 'CODE'
_TEXT	ENDS
;	COMDAT ??$_Pow_int@O@@YAOOH@Z
_TEXT	SEGMENT PARA USE32 PUBLIC 'CODE'
_TEXT	ENDS
;	COMDAT ??1?$SimpleDataList@PAUMESSAGE@@@@UAE@XZ
_TEXT	SEGMENT PARA USE32 PUBLIC 'CODE'
_TEXT	ENDS
;	COMDAT ??1?$CTypePack2@VCSprite@@VCSprite555@@VCSprite565@@@@UAE@XZ
_TEXT	SEGMENT PARA USE32 PUBLIC 'CODE'
_TEXT	ENDS
;	COMDAT ?Init@?$CTypePack2@VCSprite@@VCSprite555@@VCSprite565@@@@UAEXG@Z
_TEXT	SEGMENT PARA USE32 PUBLIC 'CODE'
_TEXT	ENDS
;	COMDAT ?Release@?$CTypePack2@VCSprite@@VCSprite555@@VCSprite565@@@@UAEXXZ
_TEXT	SEGMENT PARA USE32 PUBLIC 'CODE'
_TEXT	ENDS
;	COMDAT ??A?$CTypePack2@VCSprite@@VCSprite555@@VCSprite565@@@@UAEAAVCSprite@@G@Z
_TEXT	SEGMENT PARA USE32 PUBLIC 'CODE'
_TEXT	ENDS
;	COMDAT ?Get@?$CTypePack2@VCSprite@@VCSprite555@@VCSprite565@@@@UAEAAVCSprite@@G@Z
_TEXT	SEGMENT PARA USE32 PUBLIC 'CODE'
_TEXT	ENDS
;	COMDAT ?SaveToFile@?$CTypePack2@VCSprite@@VCSprite555@@VCSprite565@@@@UAE_NPBD@Z
_TEXT	SEGMENT PARA USE32 PUBLIC 'CODE'
_TEXT	ENDS
;	COMDAT ?SaveToFile@?$CTypePack2@VCSprite@@VCSprite555@@VCSprite565@@@@UAE_NAAV?$basic_ofstream@DV?$char_traits@D@_STL@@@_STL@@0@Z
_TEXT	SEGMENT PARA USE32 PUBLIC 'CODE'
_TEXT	ENDS
;	COMDAT ?LoadFromFileRunning@?$CTypePack2@VCSprite@@VCSprite555@@VCSprite565@@@@UAE_NPBD@Z
_TEXT	SEGMENT PARA USE32 PUBLIC 'CODE'
_TEXT	ENDS
;	COMDAT ?LoadFromFile@?$CTypePack2@VCSprite@@VCSprite555@@VCSprite565@@@@UAE_NPBD@Z
_TEXT	SEGMENT PARA USE32 PUBLIC 'CODE'
_TEXT	ENDS
;	COMDAT ?LoadFromFilePart@?$CTypePack2@VCSprite@@VCSprite555@@VCSprite565@@@@UAE_NAAVCSpriteSetManager@@@Z
_TEXT	SEGMENT PARA USE32 PUBLIC 'CODE'
_TEXT	ENDS
;	COMDAT ?LoadFromFilePart@?$CTypePack2@VCSprite@@VCSprite555@@VCSprite565@@@@UAE_NHH@Z
_TEXT	SEGMENT PARA USE32 PUBLIC 'CODE'
_TEXT	ENDS
;	COMDAT ?LoadFromFileData@?$CTypePack2@VCSprite@@VCSprite555@@VCSprite565@@@@UAE_NHHPBD0@Z
_TEXT	SEGMENT PARA USE32 PUBLIC 'CODE'
_TEXT	ENDS
;	COMDAT ?ReleasePart@?$CTypePack2@VCSprite@@VCSprite555@@VCSprite565@@@@UAE_NV?$COrderedList@G@@@Z
_TEXT	SEGMENT PARA USE32 PUBLIC 'CODE'
_TEXT	ENDS
;	COMDAT ?ReleasePart@?$CTypePack2@VCSprite@@VCSprite555@@VCSprite565@@@@UAE_NHH@Z
_TEXT	SEGMENT PARA USE32 PUBLIC 'CODE'
_TEXT	ENDS
;	COMDAT ?FinishRunningLoad@?$CTypePack2@VCSprite@@VCSprite555@@VCSprite565@@@@UAEXXZ
_TEXT	SEGMENT PARA USE32 PUBLIC 'CODE'
_TEXT	ENDS
;	COMDAT ??$distance@U?$_List_iterator@PAVWindow@@U?$_Const_traits@PAVWindow@@@_STL@@@_STL@@@_STL@@YAHABU?$_List_iterator@PAVWindow@@U?$_Const_traits@PAVWindow@@@_STL@@@0@0@Z
_TEXT	SEGMENT PARA USE32 PUBLIC 'CODE'
_TEXT	ENDS
;	COMDAT ??$append@PBD@?$basic_string@DV?$char_traits@D@_STL@@V?$allocator@D@2@@_STL@@QAEAAV01@PBD0@Z
_TEXT	SEGMENT PARA USE32 PUBLIC 'CODE'
_TEXT	ENDS
;	COMDAT ??_G?$SimpleDataList@PAVPI_Processor@@@@UAEPAXI@Z
_TEXT	SEGMENT PARA USE32 PUBLIC 'CODE'
_TEXT	ENDS
;	COMDAT ??_G?$SimpleDataList@PAVLineEditorVisual@@@@UAEPAXI@Z
_TEXT	SEGMENT PARA USE32 PUBLIC 'CODE'
_TEXT	ENDS
;	COMDAT ??_G?$SimpleDataList@PAVWindow@@@@UAEPAXI@Z
_TEXT	SEGMENT PARA USE32 PUBLIC 'CODE'
_TEXT	ENDS
;	COMDAT ??_G?$SimpleDataList@PAUMESSAGE@@@@UAEPAXI@Z
_TEXT	SEGMENT PARA USE32 PUBLIC 'CODE'
_TEXT	ENDS
;	COMDAT ??_G?$CTypePack2@VCSprite@@VCSprite555@@VCSprite565@@@@UAEPAXI@Z
_TEXT	SEGMENT PARA USE32 PUBLIC 'CODE'
_TEXT	ENDS
;	COMDAT ??1?$map@GPAVivfstream@@U?$less@G@_STL@@V?$allocator@U?$pair@$$CBGPAVivfstream@@@_STL@@@3@@_STL@@QAE@XZ
_TEXT	SEGMENT PARA USE32 PUBLIC 'CODE'
_TEXT	ENDS
;	COMDAT ??_ECSprite565@@QAEPAXI@Z
_TEXT	SEGMENT PARA USE32 PUBLIC 'CODE'
_TEXT	ENDS
;	COMDAT ??0CSprite565@@QAE@XZ
_TEXT	SEGMENT PARA USE32 PUBLIC 'CODE'
_TEXT	ENDS
;	COMDAT ??1CSprite565@@QAE@XZ
_TEXT	SEGMENT PARA USE32 PUBLIC 'CODE'
_TEXT	ENDS
;	COMDAT ??_ECSprite555@@QAEPAXI@Z
_TEXT	SEGMENT PARA USE32 PUBLIC 'CODE'
_TEXT	ENDS
;	COMDAT ??0CSprite555@@QAE@XZ
_TEXT	SEGMENT PARA USE32 PUBLIC 'CODE'
_TEXT	ENDS
;	COMDAT ??1CSprite555@@QAE@XZ
_TEXT	SEGMENT PARA USE32 PUBLIC 'CODE'
_TEXT	ENDS
;	COMDAT ??_ECSprite@@QAEPAXI@Z
_TEXT	SEGMENT PARA USE32 PUBLIC 'CODE'
_TEXT	ENDS
;	COMDAT ??_D?$basic_ofstream@DV?$char_traits@D@_STL@@@_STL@@QAEXXZ
_TEXT	SEGMENT PARA USE32 PUBLIC 'CODE'
_TEXT	ENDS
;	COMDAT ?get_allocator@?$basic_string@DV?$char_traits@D@_STL@@V?$allocator@D@2@@_STL@@QBE?AV?$allocator@D@2@XZ
_TEXT	SEGMENT PARA USE32 PUBLIC 'CODE'
_TEXT	ENDS
;	COMDAT ?_M_terminate_string@?$basic_string@DV?$char_traits@D@_STL@@V?$allocator@D@2@@_STL@@AAEXXZ
_TEXT	SEGMENT PARA USE32 PUBLIC 'CODE'
_TEXT	ENDS
;	COMDAT ??Y?$basic_string@DV?$char_traits@D@_STL@@V?$allocator@D@2@@_STL@@QAEAAV01@D@Z
_TEXT	SEGMENT PARA USE32 PUBLIC 'CODE'
_TEXT	ENDS
;	COMDAT ?c_str@?$basic_string@DV?$char_traits@D@_STL@@V?$allocator@D@2@@_STL@@QBEPBDXZ
_TEXT	SEGMENT PARA USE32 PUBLIC 'CODE'
_TEXT	ENDS
;	COMDAT ??0?$_String_base@DV?$allocator@D@_STL@@@_STL@@QAE@ABV?$allocator@D@1@@Z
_TEXT	SEGMENT PARA USE32 PUBLIC 'CODE'
_TEXT	ENDS
;	COMDAT ??0?$allocator@D@_STL@@QAE@XZ
_TEXT	SEGMENT PARA USE32 PUBLIC 'CODE'
_TEXT	ENDS
;	COMDAT ?allocate@?$allocator@D@_STL@@QAEPADIPBX@Z
_TEXT	SEGMENT PARA USE32 PUBLIC 'CODE'
_TEXT	ENDS
;	COMDAT ?tellp@?$basic_ostream@DV?$char_traits@D@_STL@@@_STL@@QAE?AV?$fpos@H@2@XZ
_TEXT	SEGMENT PARA USE32 PUBLIC 'CODE'
_TEXT	ENDS
;	COMDAT ?seekp@?$basic_ostream@DV?$char_traits@D@_STL@@@_STL@@QAEAAV12@V?$fpos@H@2@@Z
_TEXT	SEGMENT PARA USE32 PUBLIC 'CODE'
_TEXT	ENDS
;	COMDAT ?_M_exit_putback_mode@?$basic_filebuf@DV?$char_traits@D@_STL@@@_STL@@AAEXXZ
_TEXT	SEGMENT PARA USE32 PUBLIC 'CODE'
_TEXT	ENDS
;	COMDAT ??R?$_Eq_traits@V?$char_traits@D@_STL@@@_STL@@QBE_NABD0@Z
_TEXT	SEGMENT PARA USE32 PUBLIC 'CODE'
_TEXT	ENDS
;	COMDAT ?GetSize@?$CSetManager@GG@@QBEGXZ
_TEXT	SEGMENT PARA USE32 PUBLIC 'CODE'
_TEXT	ENDS
;	COMDAT ?GetIterator@?$CSetManager@GG@@QBE?AU?$_List_iterator@GU?$_Const_traits@G@_STL@@@_STL@@XZ
_TEXT	SEGMENT PARA USE32 PUBLIC 'CODE'
_TEXT	ENDS
;	COMDAT ?begin@?$map@GPAVivfstream@@U?$less@G@_STL@@V?$allocator@U?$pair@$$CBGPAVivfstream@@@_STL@@@3@@_STL@@QAE?AU?$_Rb_tree_iterator@U?$pair@$$CBGPAVivfstream@@@_STL@@U?$_Nonconst_traits@U?$pair@$$CBGPAVivfstream@@@_STL@@@2@@2@XZ
_TEXT	SEGMENT PARA USE32 PUBLIC 'CODE'
_TEXT	ENDS
;	COMDAT ?end@?$map@GPAVivfstream@@U?$less@G@_STL@@V?$allocator@U?$pair@$$CBGPAVivfstream@@@_STL@@@3@@_STL@@QAE?AU?$_Rb_tree_iterator@U?$pair@$$CBGPAVivfstream@@@_STL@@U?$_Nonconst_traits@U?$pair@$$CBGPAVivfstream@@@_STL@@@2@@2@XZ
_TEXT	SEGMENT PARA USE32 PUBLIC 'CODE'
_TEXT	ENDS
;	COMDAT ?insert@?$map@GPAVivfstream@@U?$less@G@_STL@@V?$allocator@U?$pair@$$CBGPAVivfstream@@@_STL@@@3@@_STL@@QAE?AU?$pair@U?$_Rb_tree_iterator@U?$pair@$$CBGPAVivfstream@@@_STL@@U?$_Nonconst_traits@U?$pair@$$CBGPAVivfstream@@@_STL@@@2@@_STL@@_N@2@ABU?$pair@$$CBGPAVivfstream@@@2@@Z
_TEXT	SEGMENT PARA USE32 PUBLIC 'CODE'
_TEXT	ENDS
;	COMDAT ?erase@?$map@GPAVivfstream@@U?$less@G@_STL@@V?$allocator@U?$pair@$$CBGPAVivfstream@@@_STL@@@3@@_STL@@QAEXU?$_Rb_tree_iterator@U?$pair@$$CBGPAVivfstream@@@_STL@@U?$_Nonconst_traits@U?$pair@$$CBGPAVivfstream@@@_STL@@@2@@2@@Z
_TEXT	SEGMENT PARA USE32 PUBLIC 'CODE'
_TEXT	ENDS
;	COMDAT ?clear@?$map@GPAVivfstream@@U?$less@G@_STL@@V?$allocator@U?$pair@$$CBGPAVivfstream@@@_STL@@@3@@_STL@@QAEXXZ
_TEXT	SEGMENT PARA USE32 PUBLIC 'CODE'
_TEXT	ENDS
;	COMDAT ?find@?$map@GPAVivfstream@@U?$less@G@_STL@@V?$allocator@U?$pair@$$CBGPAVivfstream@@@_STL@@@3@@_STL@@QAE?AU?$_Rb_tree_iterator@U?$pair@$$CBGPAVivfstream@@@_STL@@U?$_Nonconst_traits@U?$pair@$$CBGPAVivfstream@@@_STL@@@2@@2@ABG@Z
_TEXT	SEGMENT PARA USE32 PUBLIC 'CODE'
_TEXT	ENDS
;	COMDAT ??1?$_Rb_tree@GU?$pair@$$CBGPAVivfstream@@@_STL@@U?$_Select1st@U?$pair@$$CBGPAVivfstream@@@_STL@@@2@U?$less@G@2@V?$allocator@U?$pair@$$CBGPAVivfstream@@@_STL@@@2@@_STL@@QAE@XZ
_TEXT	SEGMENT PARA USE32 PUBLIC 'CODE'
_TEXT	ENDS
;	COMDAT ??0?$_Rb_tree_iterator@U?$pair@$$CBGPAVivfstream@@@_STL@@U?$_Nonconst_traits@U?$pair@$$CBGPAVivfstream@@@_STL@@@2@@_STL@@QAE@ABU01@@Z
_TEXT	SEGMENT PARA USE32 PUBLIC 'CODE'
_TEXT	ENDS
;	COMDAT ??C?$_Rb_tree_iterator@U?$pair@$$CBGPAVivfstream@@@_STL@@U?$_Nonconst_traits@U?$pair@$$CBGPAVivfstream@@@_STL@@@2@@_STL@@QBEPAU?$pair@$$CBGPAVivfstream@@@1@XZ
_TEXT	SEGMENT PARA USE32 PUBLIC 'CODE'
_TEXT	ENDS
;	COMDAT ??E?$_Rb_tree_iterator@U?$pair@$$CBGPAVivfstream@@@_STL@@U?$_Nonconst_traits@U?$pair@$$CBGPAVivfstream@@@_STL@@@2@@_STL@@QAEAAU01@XZ
_TEXT	SEGMENT PARA USE32 PUBLIC 'CODE'
_TEXT	ENDS
;	COMDAT ??0?$pair@$$CBGPAVivfstream@@@_STL@@QAE@ABGABQAVivfstream@@@Z
_TEXT	SEGMENT PARA USE32 PUBLIC 'CODE'
_TEXT	ENDS
;	COMDAT ??0?$basic_ofstream@DV?$char_traits@D@_STL@@@_STL@@QAE@PBDH@Z
_TEXT	SEGMENT PARA USE32 PUBLIC 'CODE'
_TEXT	ENDS
;	COMDAT ??1?$basic_ofstream@DV?$char_traits@D@_STL@@@_STL@@UAE@XZ
_TEXT	SEGMENT PARA USE32 PUBLIC 'CODE'
_TEXT	ENDS
;	COMDAT ?close@?$basic_ofstream@DV?$char_traits@D@_STL@@@_STL@@QAEXXZ
_TEXT	SEGMENT PARA USE32 PUBLIC 'CODE'
_TEXT	ENDS
;	COMDAT ?size@?$vector@KV?$allocator@K@_STL@@@_STL@@QBEIXZ
_TEXT	SEGMENT PARA USE32 PUBLIC 'CODE'
_TEXT	ENDS
;	COMDAT ??A?$vector@KV?$allocator@K@_STL@@@_STL@@QAEAAKI@Z
_TEXT	SEGMENT PARA USE32 PUBLIC 'CODE'
_TEXT	ENDS
;	COMDAT ??0?$vector@KV?$allocator@K@_STL@@@_STL@@QAE@ABV?$allocator@K@1@@Z
_TEXT	SEGMENT PARA USE32 PUBLIC 'CODE'
_TEXT	ENDS
;	COMDAT ??1?$vector@KV?$allocator@K@_STL@@@_STL@@QAE@XZ
_TEXT	SEGMENT PARA USE32 PUBLIC 'CODE'
_TEXT	ENDS
;	COMDAT ?push_back@?$vector@KV?$allocator@K@_STL@@@_STL@@QAEXABK@Z
_TEXT	SEGMENT PARA USE32 PUBLIC 'CODE'
_TEXT	ENDS
;	COMDAT ??0?$allocator@K@_STL@@QAE@XZ
_TEXT	SEGMENT PARA USE32 PUBLIC 'CODE'
_TEXT	ENDS
;	COMDAT ??1?$allocator@K@_STL@@QAE@XZ
_TEXT	SEGMENT PARA USE32 PUBLIC 'CODE'
_TEXT	ENDS
;	COMDAT ??D?$_List_iterator@GU?$_Const_traits@G@_STL@@@_STL@@QBEABGXZ
_TEXT	SEGMENT PARA USE32 PUBLIC 'CODE'
_TEXT	ENDS
;	COMDAT ??E?$_List_iterator@GU?$_Const_traits@G@_STL@@@_STL@@QAEAAU01@XZ
_TEXT	SEGMENT PARA USE32 PUBLIC 'CODE'
_TEXT	ENDS
;	COMDAT ?GetSize@?$COrderedList@G@@QBEHXZ
_TEXT	SEGMENT PARA USE32 PUBLIC 'CODE'
_TEXT	ENDS
;	COMDAT ?GetIterator@?$COrderedList@G@@QBE?AU?$_List_iterator@GU?$_Const_traits@G@_STL@@@_STL@@XZ
_TEXT	SEGMENT PARA USE32 PUBLIC 'CODE'
_TEXT	ENDS
;	COMDAT ??_G?$basic_ofstream@DV?$char_traits@D@_STL@@@_STL@@UAEPAXI@Z
_TEXT	SEGMENT PARA USE32 PUBLIC 'CODE'
_TEXT	ENDS
;	COMDAT ?_M_terminate_string_aux@?$basic_string@DV?$char_traits@D@_STL@@V?$allocator@D@2@@_STL@@AAEXABU__true_type@2@@Z
_TEXT	SEGMENT PARA USE32 PUBLIC 'CODE'
_TEXT	ENDS
;	COMDAT ?push_back@?$basic_string@DV?$char_traits@D@_STL@@V?$allocator@D@2@@_STL@@QAEXD@Z
_TEXT	SEGMENT PARA USE32 PUBLIC 'CODE'
_TEXT	ENDS
;	COMDAT ??0?$allocator@D@_STL@@QAE@ABV01@@Z
_TEXT	SEGMENT PARA USE32 PUBLIC 'CODE'
_TEXT	ENDS
;	COMDAT ??0?$_STLP_alloc_proxy@PADDV?$allocator@D@_STL@@@_STL@@QAE@ABV?$allocator@D@1@PAD@Z
_TEXT	SEGMENT PARA USE32 PUBLIC 'CODE'
_TEXT	ENDS
;	COMDAT ?rdbuf@?$basic_ios@DV?$char_traits@D@_STL@@@_STL@@QBEPAV?$basic_streambuf@DV?$char_traits@D@_STL@@@2@XZ
_TEXT	SEGMENT PARA USE32 PUBLIC 'CODE'
_TEXT	ENDS
;	COMDAT ?setstate@?$basic_ios@DV?$char_traits@D@_STL@@@_STL@@QAEXH@Z
_TEXT	SEGMENT PARA USE32 PUBLIC 'CODE'
_TEXT	ENDS
;	COMDAT ?open@?$basic_filebuf@DV?$char_traits@D@_STL@@@_STL@@QAEPAV12@PBDH@Z
_TEXT	SEGMENT PARA USE32 PUBLIC 'CODE'
_TEXT	ENDS
;	COMDAT ?allocate@?$__node_alloc@$00$0A@@_STL@@SAPAXI@Z
_TEXT	SEGMENT PARA USE32 PUBLIC 'CODE'
_TEXT	ENDS
;	COMDAT ?begin@?$list@GV?$allocator@G@_STL@@@_STL@@QBE?AU?$_List_iterator@GU?$_Const_traits@G@_STL@@@2@XZ
_TEXT	SEGMENT PARA USE32 PUBLIC 'CODE'
_TEXT	ENDS
;	COMDAT ?size@?$list@GV?$allocator@G@_STL@@@_STL@@QBEIXZ
_TEXT	SEGMENT PARA USE32 PUBLIC 'CODE'
_TEXT	ENDS
;	COMDAT ?begin@?$_Rb_tree@GU?$pair@$$CBGPAVivfstream@@@_STL@@U?$_Select1st@U?$pair@$$CBGPAVivfstream@@@_STL@@@2@U?$less@G@2@V?$allocator@U?$pair@$$CBGPAVivfstream@@@_STL@@@2@@_STL@@QAE?AU?$_Rb_tree_iterator@U?$pair@$$CBGPAVivfstream@@@_STL@@U?$_Nonconst_traits@U?$pair@$$CBGPAVivfstream@@@_STL@@@2@@2@XZ
_TEXT	SEGMENT PARA USE32 PUBLIC 'CODE'
_TEXT	ENDS
;	COMDAT ?end@?$_Rb_tree@GU?$pair@$$CBGPAVivfstream@@@_STL@@U?$_Select1st@U?$pair@$$CBGPAVivfstream@@@_STL@@@2@U?$less@G@2@V?$allocator@U?$pair@$$CBGPAVivfstream@@@_STL@@@2@@_STL@@QAE?AU?$_Rb_tree_iterator@U?$pair@$$CBGPAVivfstream@@@_STL@@U?$_Nonconst_traits@U?$pair@$$CBGPAVivfstream@@@_STL@@@2@@2@XZ
_TEXT	SEGMENT PARA USE32 PUBLIC 'CODE'
_TEXT	ENDS
;	COMDAT ?erase@?$_Rb_tree@GU?$pair@$$CBGPAVivfstream@@@_STL@@U?$_Select1st@U?$pair@$$CBGPAVivfstream@@@_STL@@@2@U?$less@G@2@V?$allocator@U?$pair@$$CBGPAVivfstream@@@_STL@@@2@@_STL@@QAEXU?$_Rb_tree_iterator@U?$pair@$$CBGPAVivfstream@@@_STL@@U?$_Nonconst_traits@U?$pair@$$CBGPAVivfstream@@@_STL@@@2@@2@@Z
_TEXT	SEGMENT PARA USE32 PUBLIC 'CODE'
_TEXT	ENDS
;	COMDAT ?clear@?$_Rb_tree@GU?$pair@$$CBGPAVivfstream@@@_STL@@U?$_Select1st@U?$pair@$$CBGPAVivfstream@@@_STL@@@2@U?$less@G@2@V?$allocator@U?$pair@$$CBGPAVivfstream@@@_STL@@@2@@_STL@@QAEXXZ
_TEXT	SEGMENT PARA USE32 PUBLIC 'CODE'
_TEXT	ENDS
;	COMDAT ??1?$_Rb_tree_base@U?$pair@$$CBGPAVivfstream@@@_STL@@V?$allocator@U?$pair@$$CBGPAVivfstream@@@_STL@@@2@@_STL@@QAE@XZ
_TEXT	SEGMENT PARA USE32 PUBLIC 'CODE'
_TEXT	ENDS
;	COMDAT ??D?$_Rb_tree_iterator@U?$pair@$$CBGPAVivfstream@@@_STL@@U?$_Nonconst_traits@U?$pair@$$CBGPAVivfstream@@@_STL@@@2@@_STL@@QBEAAU?$pair@$$CBGPAVivfstream@@@1@XZ
_TEXT	SEGMENT PARA USE32 PUBLIC 'CODE'
_TEXT	ENDS
;	COMDAT ?rdbuf@?$basic_ofstream@DV?$char_traits@D@_STL@@@_STL@@QBEPAV?$basic_filebuf@DV?$char_traits@D@_STL@@@2@XZ
_TEXT	SEGMENT PARA USE32 PUBLIC 'CODE'
_TEXT	ENDS
;	COMDAT ?_M_insert_overflow@?$vector@KV?$allocator@K@_STL@@@_STL@@IAEXPAKABKABU__true_type@2@I_N@Z
_TEXT	SEGMENT PARA USE32 PUBLIC 'CODE'
_TEXT	ENDS
;	COMDAT ?begin@?$vector@KV?$allocator@K@_STL@@@_STL@@QAEPAKXZ
_TEXT	SEGMENT PARA USE32 PUBLIC 'CODE'
_TEXT	ENDS
;	COMDAT ??0?$_Vector_base@KV?$allocator@K@_STL@@@_STL@@QAE@ABV?$allocator@K@1@@Z
_TEXT	SEGMENT PARA USE32 PUBLIC 'CODE'
_TEXT	ENDS
;	COMDAT ??1?$_Vector_base@KV?$allocator@K@_STL@@@_STL@@QAE@XZ
_TEXT	SEGMENT PARA USE32 PUBLIC 'CODE'
_TEXT	ENDS
;	COMDAT ??1?$_STLP_alloc_proxy@PAU?$_Rb_tree_node@U?$pair@$$CBGPAVivfstream@@@_STL@@@_STL@@U12@V?$allocator@U?$_Rb_tree_node@U?$pair@$$CBGPAVivfstream@@@_STL@@@_STL@@@2@@_STL@@QAE@XZ
_TEXT	SEGMENT PARA USE32 PUBLIC 'CODE'
_TEXT	ENDS
;	COMDAT ??1?$_STLP_alloc_proxy@PAKKV?$allocator@K@_STL@@@_STL@@QAE@XZ
_TEXT	SEGMENT PARA USE32 PUBLIC 'CODE'
_TEXT	ENDS
;	COMDAT ?_M_construct_null@?$basic_string@DV?$char_traits@D@_STL@@V?$allocator@D@2@@_STL@@AAEXPAD@Z
_TEXT	SEGMENT PARA USE32 PUBLIC 'CODE'
_TEXT	ENDS
;	COMDAT ?clear@?$basic_ios@DV?$char_traits@D@_STL@@@_STL@@QAEXH@Z
_TEXT	SEGMENT PARA USE32 PUBLIC 'CODE'
_TEXT	ENDS
;	COMDAT ?end@?$list@GV?$allocator@G@_STL@@@_STL@@QBE?AU?$_List_iterator@GU?$_Const_traits@G@_STL@@@2@XZ
_TEXT	SEGMENT PARA USE32 PUBLIC 'CODE'
_TEXT	ENDS
;	COMDAT ?_M_root@?$_Rb_tree@GU?$pair@$$CBGPAVivfstream@@@_STL@@U?$_Select1st@U?$pair@$$CBGPAVivfstream@@@_STL@@@2@U?$less@G@2@V?$allocator@U?$pair@$$CBGPAVivfstream@@@_STL@@@2@@_STL@@IBEAAPAU?$_Rb_tree_node@U?$pair@$$CBGPAVivfstream@@@_STL@@@2@XZ
_TEXT	SEGMENT PARA USE32 PUBLIC 'CODE'
_TEXT	ENDS
;	COMDAT ?_M_leftmost@?$_Rb_tree@GU?$pair@$$CBGPAVivfstream@@@_STL@@U?$_Select1st@U?$pair@$$CBGPAVivfstream@@@_STL@@@2@U?$less@G@2@V?$allocator@U?$pair@$$CBGPAVivfstream@@@_STL@@@2@@_STL@@IBEAAPAU?$_Rb_tree_node@U?$pair@$$CBGPAVivfstream@@@_STL@@@2@XZ
_TEXT	SEGMENT PARA USE32 PUBLIC 'CODE'
_TEXT	ENDS
;	COMDAT ?_M_rightmost@?$_Rb_tree@GU?$pair@$$CBGPAVivfstream@@@_STL@@U?$_Select1st@U?$pair@$$CBGPAVivfstream@@@_STL@@@2@U?$less@G@2@V?$allocator@U?$pair@$$CBGPAVivfstream@@@_STL@@@2@@_STL@@IBEAAPAU?$_Rb_tree_node@U?$pair@$$CBGPAVivfstream@@@_STL@@@2@XZ
_TEXT	SEGMENT PARA USE32 PUBLIC 'CODE'
_TEXT	ENDS
;	COMDAT ??1?$allocator@U?$_Rb_tree_node@U?$pair@$$CBGPAVivfstream@@@_STL@@@_STL@@@_STL@@QAE@XZ
_TEXT	SEGMENT PARA USE32 PUBLIC 'CODE'
_TEXT	ENDS
;	COMDAT ?deallocate@?$allocator@U?$_Rb_tree_node@U?$pair@$$CBGPAVivfstream@@@_STL@@@_STL@@@_STL@@QAEXPAU?$_Rb_tree_node@U?$pair@$$CBGPAVivfstream@@@_STL@@@2@I@Z
_TEXT	SEGMENT PARA USE32 PUBLIC 'CODE'
_TEXT	ENDS
;	COMDAT ??0?$_Rb_tree_iterator@U?$pair@$$CBGPAVivfstream@@@_STL@@U?$_Nonconst_traits@U?$pair@$$CBGPAVivfstream@@@_STL@@@2@@_STL@@QAE@PAU?$_Rb_tree_node@U?$pair@$$CBGPAVivfstream@@@_STL@@@1@@Z
_TEXT	SEGMENT PARA USE32 PUBLIC 'CODE'
_TEXT	ENDS
;	COMDAT ?_M_clear@?$vector@KV?$allocator@K@_STL@@@_STL@@IAEXXZ
_TEXT	SEGMENT PARA USE32 PUBLIC 'CODE'
_TEXT	ENDS
;	COMDAT ?_M_set@?$vector@KV?$allocator@K@_STL@@@_STL@@IAEXPAK00@Z
_TEXT	SEGMENT PARA USE32 PUBLIC 'CODE'
_TEXT	ENDS
;	COMDAT ?allocate@?$allocator@K@_STL@@QAEPAKIPBX@Z
_TEXT	SEGMENT PARA USE32 PUBLIC 'CODE'
_TEXT	ENDS
;	COMDAT ?deallocate@?$allocator@K@_STL@@QAEXPAKI@Z
_TEXT	SEGMENT PARA USE32 PUBLIC 'CODE'
_TEXT	ENDS
;	COMDAT ??0?$_STLP_alloc_proxy@PAKKV?$allocator@K@_STL@@@_STL@@QAE@ABV?$allocator@K@1@PAK@Z
_TEXT	SEGMENT PARA USE32 PUBLIC 'CODE'
_TEXT	ENDS
;	COMDAT ??0?$_List_iterator@GU?$_Const_traits@G@_STL@@@_STL@@QAE@PAU?$_List_node@G@1@@Z
_TEXT	SEGMENT PARA USE32 PUBLIC 'CODE'
_TEXT	ENDS
;	COMDAT ?_M_construct_null_aux@?$basic_string@DV?$char_traits@D@_STL@@V?$allocator@D@2@@_STL@@AAEXPADABU__true_type@2@@Z
_TEXT	SEGMENT PARA USE32 PUBLIC 'CODE'
_TEXT	ENDS
;	COMDAT ??0?$allocator@K@_STL@@QAE@ABV01@@Z
_TEXT	SEGMENT PARA USE32 PUBLIC 'CODE'
_TEXT	ENDS
;	COMDAT ??0?$basic_filebuf@DV?$char_traits@D@_STL@@@_STL@@QAE@XZ
_TEXT	SEGMENT PARA USE32 PUBLIC 'CODE'
_TEXT	ENDS
;	COMDAT ?_M_unshift@?$basic_filebuf@DV?$char_traits@D@_STL@@@_STL@@AAE_NXZ
_TEXT	SEGMENT PARA USE32 PUBLIC 'CODE'
_TEXT	ENDS
;	COMDAT ?_M_allocate_buffers@?$basic_filebuf@DV?$char_traits@D@_STL@@@_STL@@AAE_NXZ
_TEXT	SEGMENT PARA USE32 PUBLIC 'CODE'
_TEXT	ENDS
;	COMDAT ??$max@H@_STL@@YAABHABH0@Z
_TEXT	SEGMENT PARA USE32 PUBLIC 'CODE'
_TEXT	ENDS
;	COMDAT ??$use_facet@V?$codecvt@DDH@_STL@@@_STL@@YAABV?$codecvt@DDH@0@ABVlocale@0@@Z
_TEXT	SEGMENT PARA USE32 PUBLIC 'CODE'
_TEXT	ENDS
;	COMDAT ??0?$basic_string@DV?$char_traits@D@_STL@@V?$allocator@D@2@@_STL@@QAE@PBDABV?$allocator@D@1@@Z
_TEXT	SEGMENT PARA USE32 PUBLIC 'CODE'
_TEXT	ENDS
;	COMDAT ?reserve@?$basic_string@DV?$char_traits@D@_STL@@V?$allocator@D@2@@_STL@@QAEXI@Z
_TEXT	SEGMENT PARA USE32 PUBLIC 'CODE'
_TEXT	ENDS
;	COMDAT ??$_M_range_initialize@PAD@?$basic_string@DV?$char_traits@D@_STL@@V?$allocator@D@2@@_STL@@AAEXPAD0@Z
_TEXT	SEGMENT PARA USE32 PUBLIC 'CODE'
_TEXT	ENDS
;	COMDAT ?LogTwoMultiplier@?$CTypePack2@VCSprite@@VCSprite555@@VCSprite565@@@@KAHH@Z
_TEXT	SEGMENT PARA USE32 PUBLIC 'CODE'
_TEXT	ENDS
;	COMDAT ?GetSplitFile@?$CTypePack2@VCSprite@@VCSprite555@@VCSprite565@@@@IAEHHPAD@Z
_TEXT	SEGMENT PARA USE32 PUBLIC 'CODE'
_TEXT	ENDS
;	COMDAT ??0?$basic_ostream@DV?$char_traits@D@_STL@@@_STL@@QAE@PAV?$basic_streambuf@DV?$char_traits@D@_STL@@@1@@Z
_TEXT	SEGMENT PARA USE32 PUBLIC 'CODE'
_TEXT	ENDS
;	COMDAT ?write@?$basic_ostream@DV?$char_traits@D@_STL@@@_STL@@QAEAAV12@PBDH@Z
_TEXT	SEGMENT PARA USE32 PUBLIC 'CODE'
_TEXT	ENDS
;	COMDAT ??$?HDV?$char_traits@D@_STL@@V?$allocator@D@1@@_STL@@YA?AV?$basic_string@DV?$char_traits@D@_STL@@V?$allocator@D@2@@0@ABV10@PBD@Z
_TEXT	SEGMENT PARA USE32 PUBLIC 'CODE'
_TEXT	ENDS
;	COMDAT ??1?$COrderedList@G@@QAE@XZ
_TEXT	SEGMENT PARA USE32 PUBLIC 'CODE'
_TEXT	ENDS
;	COMDAT ??$__distance@U?$_List_iterator@PAVWindow@@U?$_Const_traits@PAVWindow@@@_STL@@@_STL@@@_STL@@YAHABU?$_List_iterator@PAVWindow@@U?$_Const_traits@PAVWindow@@@_STL@@@0@0ABUinput_iterator_tag@0@@Z
_TEXT	SEGMENT PARA USE32 PUBLIC 'CODE'
_TEXT	ENDS
;	COMDAT ??$_M_append_dispatch@PBD@?$basic_string@DV?$char_traits@D@_STL@@V?$allocator@D@2@@_STL@@AAEAAV01@PBD0ABU__false_type@1@@Z
_TEXT	SEGMENT PARA USE32 PUBLIC 'CODE'
_TEXT	ENDS
;	COMDAT ?_M_erase@?$_Rb_tree@GU?$pair@$$CBGPAVivfstream@@@_STL@@U?$_Select1st@U?$pair@$$CBGPAVivfstream@@@_STL@@@2@U?$less@G@2@V?$allocator@U?$pair@$$CBGPAVivfstream@@@_STL@@@2@@_STL@@AAEXPAU?$_Rb_tree_node@U?$pair@$$CBGPAVivfstream@@@_STL@@@2@@Z
_TEXT	SEGMENT PARA USE32 PUBLIC 'CODE'
_TEXT	ENDS
;	COMDAT ?insert_unique@?$_Rb_tree@GU?$pair@$$CBGPAVivfstream@@@_STL@@U?$_Select1st@U?$pair@$$CBGPAVivfstream@@@_STL@@@2@U?$less@G@2@V?$allocator@U?$pair@$$CBGPAVivfstream@@@_STL@@@2@@_STL@@QAE?AU?$pair@U?$_Rb_tree_iterator@U?$pair@$$CBGPAVivfstream@@@_STL@@U?$_Nonconst_traits@U?$pair@$$CBGPAVivfstream@@@_STL@@@2@@_STL@@_N@2@ABU?$pair@$$CBGPAVivfstream@@@2@@Z
_TEXT	SEGMENT PARA USE32 PUBLIC 'CODE'
_TEXT	ENDS
;	COMDAT ??0?$basic_ios@DV?$char_traits@D@_STL@@@_STL@@IAE@XZ
_TEXT	SEGMENT PARA USE32 PUBLIC 'CODE'
_TEXT	ENDS
;	COMDAT ?init@?$basic_ios@DV?$char_traits@D@_STL@@@_STL@@IAEXPAV?$basic_streambuf@DV?$char_traits@D@_STL@@@2@@Z
_TEXT	SEGMENT PARA USE32 PUBLIC 'CODE'
_TEXT	ENDS
;	COMDAT ??$find@G@?$_Rb_tree@GU?$pair@$$CBGPAVivfstream@@@_STL@@U?$_Select1st@U?$pair@$$CBGPAVivfstream@@@_STL@@@2@U?$less@G@2@V?$allocator@U?$pair@$$CBGPAVivfstream@@@_STL@@@2@@_STL@@QAE?AU?$_Rb_tree_iterator@U?$pair@$$CBGPAVivfstream@@@_STL@@U?$_Nonconst_traits@U?$pair@$$CBGPAVivfstream@@@_STL@@@2@@1@ABG@Z
_TEXT	SEGMENT PARA USE32 PUBLIC 'CODE'
_TEXT	ENDS
;	COMDAT ??$_Destroy@PAK@_STL@@YAXPAK0@Z
_TEXT	SEGMENT PARA USE32 PUBLIC 'CODE'
_TEXT	ENDS
;	COMDAT ??$_Construct@KK@_STL@@YAXPAKABK@Z
_TEXT	SEGMENT PARA USE32 PUBLIC 'CODE'
_TEXT	ENDS
;	COMDAT ??$max@I@_STL@@YAABIABI0@Z
_TEXT	SEGMENT PARA USE32 PUBLIC 'CODE'
_TEXT	ENDS
;	COMDAT ??$distance@U?$_List_iterator@GU?$_Const_traits@G@_STL@@@_STL@@@_STL@@YAHABU?$_List_iterator@GU?$_Const_traits@G@_STL@@@0@0@Z
_TEXT	SEGMENT PARA USE32 PUBLIC 'CODE'
_TEXT	ENDS
;	COMDAT ??$_Destroy@U?$pair@$$CBGPAVivfstream@@@_STL@@@_STL@@YAXPAU?$pair@$$CBGPAVivfstream@@@0@@Z
_TEXT	SEGMENT PARA USE32 PUBLIC 'CODE'
_TEXT	ENDS
;	COMDAT ??$fill_n@PAKIK@_STL@@YAPAKPAKIABK@Z
_TEXT	SEGMENT PARA USE32 PUBLIC 'CODE'
_TEXT	ENDS
;	COMDAT ??0?$basic_string@DV?$char_traits@D@_STL@@V?$allocator@D@2@@_STL@@QAE@U_String_reserve_t@1@IABV?$allocator@D@1@@Z
_TEXT	SEGMENT PARA USE32 PUBLIC 'CODE'
_TEXT	ENDS
;	COMDAT ?max_size@?$basic_string@DV?$char_traits@D@_STL@@V?$allocator@D@2@@_STL@@QBEIXZ
_TEXT	SEGMENT PARA USE32 PUBLIC 'CODE'
_TEXT	ENDS
;	COMDAT ?capacity@?$basic_string@DV?$char_traits@D@_STL@@V?$allocator@D@2@@_STL@@QBEIXZ
_TEXT	SEGMENT PARA USE32 PUBLIC 'CODE'
_TEXT	ENDS
;	COMDAT ?append@?$basic_string@DV?$char_traits@D@_STL@@V?$allocator@D@2@@_STL@@QAEAAV12@ABV12@@Z
_TEXT	SEGMENT PARA USE32 PUBLIC 'CODE'
_TEXT	ENDS
;	COMDAT ?tie@?$basic_ios@DV?$char_traits@D@_STL@@@_STL@@QAEPAV?$basic_ostream@DV?$char_traits@D@_STL@@@2@PAV32@@Z
_TEXT	SEGMENT PARA USE32 PUBLIC 'CODE'
_TEXT	ENDS
;	COMDAT ?fill@?$basic_ios@DV?$char_traits@D@_STL@@@_STL@@QAEDD@Z
_TEXT	SEGMENT PARA USE32 PUBLIC 'CODE'
_TEXT	ENDS
;	COMDAT ??1?$list@GV?$allocator@G@_STL@@@_STL@@QAE@XZ
_TEXT	SEGMENT PARA USE32 PUBLIC 'CODE'
_TEXT	ENDS
;	COMDAT ?_S_left@?$_Rb_tree@GU?$pair@$$CBGPAVivfstream@@@_STL@@U?$_Select1st@U?$pair@$$CBGPAVivfstream@@@_STL@@@2@U?$less@G@2@V?$allocator@U?$pair@$$CBGPAVivfstream@@@_STL@@@2@@_STL@@KAAAPAU?$_Rb_tree_node@U?$pair@$$CBGPAVivfstream@@@_STL@@@2@PAU32@@Z
_TEXT	SEGMENT PARA USE32 PUBLIC 'CODE'
_TEXT	ENDS
;	COMDAT ?_S_right@?$_Rb_tree@GU?$pair@$$CBGPAVivfstream@@@_STL@@U?$_Select1st@U?$pair@$$CBGPAVivfstream@@@_STL@@@2@U?$less@G@2@V?$allocator@U?$pair@$$CBGPAVivfstream@@@_STL@@@2@@_STL@@KAAAPAU?$_Rb_tree_node@U?$pair@$$CBGPAVivfstream@@@_STL@@@2@PAU32@@Z
_TEXT	SEGMENT PARA USE32 PUBLIC 'CODE'
_TEXT	ENDS
;	COMDAT ?_S_key@?$_Rb_tree@GU?$pair@$$CBGPAVivfstream@@@_STL@@U?$_Select1st@U?$pair@$$CBGPAVivfstream@@@_STL@@@2@U?$less@G@2@V?$allocator@U?$pair@$$CBGPAVivfstream@@@_STL@@@2@@_STL@@KAABGPAU?$_Rb_tree_node@U?$pair@$$CBGPAVivfstream@@@_STL@@@2@@Z
_TEXT	SEGMENT PARA USE32 PUBLIC 'CODE'
_TEXT	ENDS
;	COMDAT ?_S_key@?$_Rb_tree@GU?$pair@$$CBGPAVivfstream@@@_STL@@U?$_Select1st@U?$pair@$$CBGPAVivfstream@@@_STL@@@2@U?$less@G@2@V?$allocator@U?$pair@$$CBGPAVivfstream@@@_STL@@@2@@_STL@@KAABGPAU_Rb_tree_node_base@2@@Z
_TEXT	SEGMENT PARA USE32 PUBLIC 'CODE'
_TEXT	ENDS
;	COMDAT ??R?$less@G@_STL@@QBE_NABG0@Z
_TEXT	SEGMENT PARA USE32 PUBLIC 'CODE'
_TEXT	ENDS
;	COMDAT ??E?$_List_iterator@PAVWindow@@U?$_Const_traits@PAVWindow@@@_STL@@@_STL@@QAEAAU01@XZ
_TEXT	SEGMENT PARA USE32 PUBLIC 'CODE'
_TEXT	ENDS
;	COMDAT ??F?$_Rb_tree_iterator@U?$pair@$$CBGPAVivfstream@@@_STL@@U?$_Nonconst_traits@U?$pair@$$CBGPAVivfstream@@@_STL@@@2@@_STL@@QAEAAU01@XZ
_TEXT	SEGMENT PARA USE32 PUBLIC 'CODE'
_TEXT	ENDS
;	COMDAT ??0?$pair@U?$_Rb_tree_iterator@U?$pair@$$CBGPAVivfstream@@@_STL@@U?$_Nonconst_traits@U?$pair@$$CBGPAVivfstream@@@_STL@@@2@@_STL@@_N@_STL@@QAE@ABU?$_Rb_tree_iterator@U?$pair@$$CBGPAVivfstream@@@_STL@@U?$_Nonconst_traits@U?$pair@$$CBGPAVivfstream@@@_STL@@@2@@1@AB_N@Z
_TEXT	SEGMENT PARA USE32 PUBLIC 'CODE'
_TEXT	ENDS
;	COMDAT ??0sentry@?$basic_ostream@DV?$char_traits@D@_STL@@@_STL@@QAE@AAV12@@Z
_TEXT	SEGMENT PARA USE32 PUBLIC 'CODE'
_TEXT	ENDS
;	COMDAT ??1sentry@?$basic_ostream@DV?$char_traits@D@_STL@@@_STL@@QAE@XZ
_TEXT	SEGMENT PARA USE32 PUBLIC 'CODE'
_TEXT	ENDS
;	COMDAT ??Bsentry@?$basic_ostream@DV?$char_traits@D@_STL@@@_STL@@QBE_NXZ
_TEXT	SEGMENT PARA USE32 PUBLIC 'CODE'
_TEXT	ENDS
;	COMDAT ??R?$_Select1st@U?$pair@$$CBGPAVivfstream@@@_STL@@@_STL@@QBEABGABU?$pair@$$CBGPAVivfstream@@@1@@Z
_TEXT	SEGMENT PARA USE32 PUBLIC 'CODE'
_TEXT	ENDS
;	COMDAT ?max_size@?$_String_base@DV?$allocator@D@_STL@@@_STL@@QBEIXZ
_TEXT	SEGMENT PARA USE32 PUBLIC 'CODE'
_TEXT	ENDS
;	COMDAT ??0?$_String_base@DV?$allocator@D@_STL@@@_STL@@QAE@ABV?$allocator@D@1@I@Z
_TEXT	SEGMENT PARA USE32 PUBLIC 'CODE'
_TEXT	ENDS
;	COMDAT ?flush@?$basic_ostream@DV?$char_traits@D@_STL@@@_STL@@QAEAAV12@XZ
_TEXT	SEGMENT PARA USE32 PUBLIC 'CODE'
_TEXT	ENDS
;	COMDAT ??1?$_List_base@GV?$allocator@G@_STL@@@_STL@@QAE@XZ
_TEXT	SEGMENT PARA USE32 PUBLIC 'CODE'
_TEXT	ENDS
;	COMDAT ?_S_value@?$_Rb_tree@GU?$pair@$$CBGPAVivfstream@@@_STL@@U?$_Select1st@U?$pair@$$CBGPAVivfstream@@@_STL@@@2@U?$less@G@2@V?$allocator@U?$pair@$$CBGPAVivfstream@@@_STL@@@2@@_STL@@KAAAU?$pair@$$CBGPAVivfstream@@@2@PAU?$_Rb_tree_node@U?$pair@$$CBGPAVivfstream@@@_STL@@@2@@Z
_TEXT	SEGMENT PARA USE32 PUBLIC 'CODE'
_TEXT	ENDS
;	COMDAT ??1?$_STLP_alloc_proxy@PAU?$_List_node@G@_STL@@U12@V?$allocator@U?$_List_node@G@_STL@@@2@@_STL@@QAE@XZ
_TEXT	SEGMENT PARA USE32 PUBLIC 'CODE'
_TEXT	ENDS
;	COMDAT ??1?$allocator@U?$_List_node@G@_STL@@@_STL@@QAE@XZ
_TEXT	SEGMENT PARA USE32 PUBLIC 'CODE'
_TEXT	ENDS
;	COMDAT ?deallocate@?$allocator@U?$_List_node@G@_STL@@@_STL@@QAEXPAU?$_List_node@G@2@I@Z
_TEXT	SEGMENT PARA USE32 PUBLIC 'CODE'
_TEXT	ENDS
;	COMDAT ?_M_allocate_block@?$_String_base@DV?$allocator@D@_STL@@@_STL@@QAEXI@Z
_TEXT	SEGMENT PARA USE32 PUBLIC 'CODE'
_TEXT	ENDS
;	COMDAT ?_M_throw_length_error@?$_String_base@DV?$allocator@D@_STL@@@_STL@@QBEXXZ
_TEXT	SEGMENT PARA USE32 PUBLIC 'CODE'
_TEXT	ENDS
;	COMDAT ??$_M_range_initialize@PBD@?$basic_string@DV?$char_traits@D@_STL@@V?$allocator@D@2@@_STL@@AAEXPBD0@Z
_TEXT	SEGMENT PARA USE32 PUBLIC 'CODE'
_TEXT	ENDS
;	COMDAT ??$uninitialized_copy@PADPAD@_STL@@YAPADPAD00@Z
_TEXT	SEGMENT PARA USE32 PUBLIC 'CODE'
_TEXT	ENDS
;	COMDAT ??$_M_range_initialize@PAD@?$basic_string@DV?$char_traits@D@_STL@@V?$allocator@D@2@@_STL@@AAEXPAD0ABUforward_iterator_tag@1@@Z
_TEXT	SEGMENT PARA USE32 PUBLIC 'CODE'
_TEXT	ENDS
;	COMDAT ?rdbuf@?$basic_ios@DV?$char_traits@D@_STL@@@_STL@@QAEPAV?$basic_streambuf@DV?$char_traits@D@_STL@@@2@PAV32@@Z
_TEXT	SEGMENT PARA USE32 PUBLIC 'CODE'
_TEXT	ENDS
;	COMDAT ?imbue@?$basic_ios@DV?$char_traits@D@_STL@@@_STL@@QAE?AVlocale@2@ABV32@@Z
_TEXT	SEGMENT PARA USE32 PUBLIC 'CODE'
_TEXT	ENDS
;	COMDAT ?widen@?$basic_ios@DV?$char_traits@D@_STL@@@_STL@@QBEDD@Z
_TEXT	SEGMENT PARA USE32 PUBLIC 'CODE'
_TEXT	ENDS
;	COMDAT ?_M_handle_exception@?$basic_ios@DV?$char_traits@D@_STL@@@_STL@@QAEXH@Z
_TEXT	SEGMENT PARA USE32 PUBLIC 'CODE'
_TEXT	ENDS
;	COMDAT ?Release@?$COrderedList@G@@QAEXXZ
_TEXT	SEGMENT PARA USE32 PUBLIC 'CODE'
_TEXT	ENDS
;	COMDAT ??$append@PBD@?$basic_string@DV?$char_traits@D@_STL@@V?$allocator@D@2@@_STL@@AAEAAV01@PBD0ABUforward_iterator_tag@1@@Z
_TEXT	SEGMENT PARA USE32 PUBLIC 'CODE'
_TEXT	ENDS
;	COMDAT ?_M_insert@?$_Rb_tree@GU?$pair@$$CBGPAVivfstream@@@_STL@@U?$_Select1st@U?$pair@$$CBGPAVivfstream@@@_STL@@@2@U?$less@G@2@V?$allocator@U?$pair@$$CBGPAVivfstream@@@_STL@@@2@@_STL@@AAE?AU?$_Rb_tree_iterator@U?$pair@$$CBGPAVivfstream@@@_STL@@U?$_Nonconst_traits@U?$pair@$$CBGPAVivfstream@@@_STL@@@2@@2@PAU_Rb_tree_node_base@2@0ABU?$pair@$$CBGPAVivfstream@@@2@0@Z
_TEXT	SEGMENT PARA USE32 PUBLIC 'CODE'
_TEXT	ENDS
;	COMDAT ??$_M_find@G@?$_Rb_tree@GU?$pair@$$CBGPAVivfstream@@@_STL@@U?$_Select1st@U?$pair@$$CBGPAVivfstream@@@_STL@@@2@U?$less@G@2@V?$allocator@U?$pair@$$CBGPAVivfstream@@@_STL@@@2@@_STL@@ABEPAU?$_Rb_tree_node@U?$pair@$$CBGPAVivfstream@@@_STL@@@1@ABG@Z
_TEXT	SEGMENT PARA USE32 PUBLIC 'CODE'
_TEXT	ENDS
;	COMDAT ??$__destroy@PAKK@_STL@@YAXPAK00@Z
_TEXT	SEGMENT PARA USE32 PUBLIC 'CODE'
_TEXT	ENDS
;	COMDAT ??$__distance@U?$_List_iterator@GU?$_Const_traits@G@_STL@@@_STL@@@_STL@@YAHABU?$_List_iterator@GU?$_Const_traits@G@_STL@@@0@0ABUinput_iterator_tag@0@@Z
_TEXT	SEGMENT PARA USE32 PUBLIC 'CODE'
_TEXT	ENDS
;	COMDAT ??$append@PAD@?$basic_string@DV?$char_traits@D@_STL@@V?$allocator@D@2@@_STL@@QAEAAV01@PAD0@Z
_TEXT	SEGMENT PARA USE32 PUBLIC 'CODE'
_TEXT	ENDS
;	COMDAT ?clear@?$_List_base@GV?$allocator@G@_STL@@@_STL@@QAEXXZ
_TEXT	SEGMENT PARA USE32 PUBLIC 'CODE'
_TEXT	ENDS
;	COMDAT ??$_M_init@DV?$char_traits@D@_STL@@@_STL@@YA_NAAV?$basic_ostream@DV?$char_traits@D@_STL@@@0@@Z
_TEXT	SEGMENT PARA USE32 PUBLIC 'CODE'
_TEXT	ENDS
;	COMDAT ??4?$basic_string@DV?$char_traits@D@_STL@@V?$allocator@D@2@@_STL@@QAEAAV01@ABV01@@Z
_TEXT	SEGMENT PARA USE32 PUBLIC 'CODE'
_TEXT	ENDS
;	COMDAT ?tie@?$basic_ios@DV?$char_traits@D@_STL@@@_STL@@QBEPAV?$basic_ostream@DV?$char_traits@D@_STL@@@2@XZ
_TEXT	SEGMENT PARA USE32 PUBLIC 'CODE'
_TEXT	ENDS
;	COMDAT ?_M_create_node@?$_Rb_tree@GU?$pair@$$CBGPAVivfstream@@@_STL@@U?$_Select1st@U?$pair@$$CBGPAVivfstream@@@_STL@@@2@U?$less@G@2@V?$allocator@U?$pair@$$CBGPAVivfstream@@@_STL@@@2@@_STL@@IAEPAU?$_Rb_tree_node@U?$pair@$$CBGPAVivfstream@@@_STL@@@2@ABU?$pair@$$CBGPAVivfstream@@@2@@Z
_TEXT	SEGMENT PARA USE32 PUBLIC 'CODE'
_TEXT	ENDS
;	COMDAT ?_S_parent@?$_Rb_tree@GU?$pair@$$CBGPAVivfstream@@@_STL@@U?$_Select1st@U?$pair@$$CBGPAVivfstream@@@_STL@@@2@U?$less@G@2@V?$allocator@U?$pair@$$CBGPAVivfstream@@@_STL@@@2@@_STL@@KAAAPAU?$_Rb_tree_node@U?$pair@$$CBGPAVivfstream@@@_STL@@@2@PAU32@@Z
_TEXT	SEGMENT PARA USE32 PUBLIC 'CODE'
_TEXT	ENDS
;	COMDAT ?allocate@?$allocator@U?$_Rb_tree_node@U?$pair@$$CBGPAVivfstream@@@_STL@@@_STL@@@_STL@@QAEPAU?$_Rb_tree_node@U?$pair@$$CBGPAVivfstream@@@_STL@@@2@IPBX@Z
_TEXT	SEGMENT PARA USE32 PUBLIC 'CODE'
_TEXT	ENDS
;	COMDAT ??$_M_range_initialize@PBD@?$basic_string@DV?$char_traits@D@_STL@@V?$allocator@D@2@@_STL@@AAEXPBD0ABUforward_iterator_tag@1@@Z
_TEXT	SEGMENT PARA USE32 PUBLIC 'CODE'
_TEXT	ENDS
;	COMDAT ??$__uninitialized_copy@PADPAD@_STL@@YAPADPAD00ABU__true_type@0@@Z
_TEXT	SEGMENT PARA USE32 PUBLIC 'CODE'
_TEXT	ENDS
;	COMDAT ??$distance@PAD@_STL@@YAHABQAD0@Z
_TEXT	SEGMENT PARA USE32 PUBLIC 'CODE'
_TEXT	ENDS
;	COMDAT ??$distance@PBD@_STL@@YAHABQBD0@Z
_TEXT	SEGMENT PARA USE32 PUBLIC 'CODE'
_TEXT	ENDS
;	COMDAT ??$__destroy_aux@PAK@_STL@@YAXPAK0ABU__true_type@0@@Z
_TEXT	SEGMENT PARA USE32 PUBLIC 'CODE'
_TEXT	ENDS
;	COMDAT ??$_M_append_dispatch@PAD@?$basic_string@DV?$char_traits@D@_STL@@V?$allocator@D@2@@_STL@@AAEAAV01@PAD0ABU__false_type@1@@Z
_TEXT	SEGMENT PARA USE32 PUBLIC 'CODE'
_TEXT	ENDS
;	COMDAT ??$_Destroy@G@_STL@@YAXPAG@Z
_TEXT	SEGMENT PARA USE32 PUBLIC 'CODE'
_TEXT	ENDS
;	COMDAT ??$assign@PAD@?$basic_string@DV?$char_traits@D@_STL@@V?$allocator@D@2@@_STL@@QAEAAV01@PAD0@Z
_TEXT	SEGMENT PARA USE32 PUBLIC 'CODE'
_TEXT	ENDS
;	COMDAT ??$_Construct@U?$pair@$$CBGPAVivfstream@@@_STL@@U12@@_STL@@YAXPAU?$pair@$$CBGPAVivfstream@@@0@ABU10@@Z
_TEXT	SEGMENT PARA USE32 PUBLIC 'CODE'
_TEXT	ENDS
;	COMDAT ??0?$pair@$$CBGPAVivfstream@@@_STL@@QAE@ABU01@@Z
_TEXT	SEGMENT PARA USE32 PUBLIC 'CODE'
_TEXT	ENDS
;	COMDAT ?_Ret@?$_BothPtrType@PADPAD@_STL@@SA?AU__true_type@2@XZ
_TEXT	SEGMENT PARA USE32 PUBLIC 'CODE'
_TEXT	ENDS
;	COMDAT ??$__copy_aux@PADPAD@_STL@@YAPADPAD00ABU__true_type@0@@Z
_TEXT	SEGMENT PARA USE32 PUBLIC 'CODE'
_TEXT	ENDS
;	COMDAT ??$__distance@PAD@_STL@@YAHABQAD0ABUrandom_access_iterator_tag@0@@Z
_TEXT	SEGMENT PARA USE32 PUBLIC 'CODE'
_TEXT	ENDS
;	COMDAT ??$__distance@PBD@_STL@@YAHABQBD0ABUrandom_access_iterator_tag@0@@Z
_TEXT	SEGMENT PARA USE32 PUBLIC 'CODE'
_TEXT	ENDS
;	COMDAT ??$append@PAD@?$basic_string@DV?$char_traits@D@_STL@@V?$allocator@D@2@@_STL@@AAEAAV01@PAD0ABUforward_iterator_tag@1@@Z
_TEXT	SEGMENT PARA USE32 PUBLIC 'CODE'
_TEXT	ENDS
;	COMDAT ??$_M_assign_dispatch@PAD@?$basic_string@DV?$char_traits@D@_STL@@V?$allocator@D@2@@_STL@@AAEAAV01@PAD0ABU__false_type@1@@Z
_TEXT	SEGMENT PARA USE32 PUBLIC 'CODE'
_TEXT	ENDS
;	COMDAT ?_Ret@?$_OKToMemCpy@DD@_STL@@SA?AU__true_type@2@XZ
_TEXT	SEGMENT PARA USE32 PUBLIC 'CODE'
_TEXT	ENDS
;	COMDAT ??$_IsOKToMemCpy@DD@_STL@@YA?AU?$_OKToMemCpy@DD@0@PAD0@Z
_TEXT	SEGMENT PARA USE32 PUBLIC 'CODE'
_TEXT	ENDS
;	COMDAT ??$__copy_ptrs@PADPAD@_STL@@YAPADPAD00ABU__true_type@0@@Z
_TEXT	SEGMENT PARA USE32 PUBLIC 'CODE'
_TEXT	ENDS
;	COMDAT ??_R3?$CTypePack2@VCSprite@@VCSprite555@@VCSprite565@@@@8
rdata$r	SEGMENT DWORD USE32 PUBLIC 'CONST'
rdata$r	ENDS
;	COMDAT ??_R3CSprite565@@8
rdata$r	SEGMENT DWORD USE32 PUBLIC 'CONST'
rdata$r	ENDS
;	COMDAT ??_R3IFileIO@@8
rdata$r	SEGMENT DWORD USE32 PUBLIC 'CONST'
rdata$r	ENDS
;	COMDAT ??_R3CSprite555@@8
rdata$r	SEGMENT DWORD USE32 PUBLIC 'CONST'
rdata$r	ENDS
;	COMDAT ??_R3?$SimpleDataList@PAVWindow@@@@8
rdata$r	SEGMENT DWORD USE32 PUBLIC 'CONST'
rdata$r	ENDS
;	COMDAT ??_R3ITypePackBase@@8
rdata$r	SEGMENT DWORD USE32 PUBLIC 'CONST'
rdata$r	ENDS
;	COMDAT ??_R3ivfstream@@8
rdata$r	SEGMENT DWORD USE32 PUBLIC 'CONST'
rdata$r	ENDS
;	COMDAT ??_R3?$SimpleDataList@PAUMESSAGE@@@@8
rdata$r	SEGMENT DWORD USE32 PUBLIC 'CONST'
rdata$r	ENDS
;	COMDAT ??_R3?$SimpleDataList@PAVPI_Processor@@@@8
rdata$r	SEGMENT DWORD USE32 PUBLIC 'CONST'
rdata$r	ENDS
;	COMDAT ??_R3iovfs_base@@8
rdata$r	SEGMENT DWORD USE32 PUBLIC 'CONST'
rdata$r	ENDS
;	COMDAT ??_R3?$basic_ofstream@DV?$char_traits@D@_STL@@@_STL@@8
rdata$r	SEGMENT DWORD USE32 PUBLIC 'CONST'
rdata$r	ENDS
;	COMDAT ??_R3ovfstream@@8
rdata$r	SEGMENT DWORD USE32 PUBLIC 'CONST'
rdata$r	ENDS
;	COMDAT ??_R3?$SimpleDataList@PAVLineEditorVisual@@@@8
rdata$r	SEGMENT DWORD USE32 PUBLIC 'CONST'
rdata$r	ENDS
;	COMDAT ??_R2?$CTypePack2@VCSprite@@VCSprite555@@VCSprite565@@@@8
rdata$r	SEGMENT DWORD USE32 PUBLIC 'CONST'
rdata$r	ENDS
;	COMDAT ??_R2CSprite565@@8
rdata$r	SEGMENT DWORD USE32 PUBLIC 'CONST'
rdata$r	ENDS
;	COMDAT ??_R2IFileIO@@8
rdata$r	SEGMENT DWORD USE32 PUBLIC 'CONST'
rdata$r	ENDS
;	COMDAT ??_R2CSprite555@@8
rdata$r	SEGMENT DWORD USE32 PUBLIC 'CONST'
rdata$r	ENDS
;	COMDAT ??_R2?$SimpleDataList@PAVWindow@@@@8
rdata$r	SEGMENT DWORD USE32 PUBLIC 'CONST'
rdata$r	ENDS
;	COMDAT ??_R2ITypePackBase@@8
rdata$r	SEGMENT DWORD USE32 PUBLIC 'CONST'
rdata$r	ENDS
;	COMDAT ??_R2ivfstream@@8
rdata$r	SEGMENT DWORD USE32 PUBLIC 'CONST'
rdata$r	ENDS
;	COMDAT ??_R2?$SimpleDataList@PAUMESSAGE@@@@8
rdata$r	SEGMENT DWORD USE32 PUBLIC 'CONST'
rdata$r	ENDS
;	COMDAT ??_R2?$SimpleDataList@PAVPI_Processor@@@@8
rdata$r	SEGMENT DWORD USE32 PUBLIC 'CONST'
rdata$r	ENDS
;	COMDAT ??_R2iovfs_base@@8
rdata$r	SEGMENT DWORD USE32 PUBLIC 'CONST'
rdata$r	ENDS
;	COMDAT ??_R2?$basic_ofstream@DV?$char_traits@D@_STL@@@_STL@@8
rdata$r	SEGMENT DWORD USE32 PUBLIC 'CONST'
rdata$r	ENDS
;	COMDAT ??_R2ovfstream@@8
rdata$r	SEGMENT DWORD USE32 PUBLIC 'CONST'
rdata$r	ENDS
;	COMDAT ??_R2?$SimpleDataList@PAVLineEditorVisual@@@@8
rdata$r	SEGMENT DWORD USE32 PUBLIC 'CONST'
rdata$r	ENDS
;	COMDAT ??_R1A@?0A@A@?$CTypePack2@VCSprite@@VCSprite555@@VCSprite565@@@@8
rdata$r	SEGMENT DWORD USE32 PUBLIC 'CONST'
rdata$r	ENDS
;	COMDAT ??_R1A@?0A@A@CSprite565@@8
rdata$r	SEGMENT DWORD USE32 PUBLIC 'CONST'
rdata$r	ENDS
;	COMDAT ??_R1A@?0A@A@IFileIO@@8
rdata$r	SEGMENT DWORD USE32 PUBLIC 'CONST'
rdata$r	ENDS
;	COMDAT ??_R1A@?0A@A@CSprite@@8
rdata$r	SEGMENT DWORD USE32 PUBLIC 'CONST'
rdata$r	ENDS
;	COMDAT ??_R1A@?0A@A@CSprite555@@8
rdata$r	SEGMENT DWORD USE32 PUBLIC 'CONST'
rdata$r	ENDS
;	COMDAT ??_R1A@?0A@A@?$SimpleDataList@PAVWindow@@@@8
rdata$r	SEGMENT DWORD USE32 PUBLIC 'CONST'
rdata$r	ENDS
;	COMDAT ??_R1A@?0A@A@ITypePackBase@@8
rdata$r	SEGMENT DWORD USE32 PUBLIC 'CONST'
rdata$r	ENDS
;	COMDAT ??_R1A@?0A@A@ivfstream@@8
rdata$r	SEGMENT DWORD USE32 PUBLIC 'CONST'
rdata$r	ENDS
;	COMDAT ??_R1A@?0A@A@?$SimpleDataList@PAUMESSAGE@@@@8
rdata$r	SEGMENT DWORD USE32 PUBLIC 'CONST'
rdata$r	ENDS
;	COMDAT ??_R1A@?0A@A@?$SimpleDataList@PAVPI_Processor@@@@8
rdata$r	SEGMENT DWORD USE32 PUBLIC 'CONST'
rdata$r	ENDS
;	COMDAT ??_R1A@A@3A@ios_base@_STL@@8
rdata$r	SEGMENT DWORD USE32 PUBLIC 'CONST'
rdata$r	ENDS
;	COMDAT ??_R0?AVios_base@_STL@@@8
_DATA	SEGMENT DWORD USE32 PUBLIC 'DATA'
_DATA	ENDS
;	COMDAT ??_R1A@A@3BA@?$basic_ios@DV?$char_traits@D@_STL@@@_STL@@8
rdata$r	SEGMENT DWORD USE32 PUBLIC 'CONST'
rdata$r	ENDS
;	COMDAT ??_R0?AV?$basic_ios@DV?$char_traits@D@_STL@@@_STL@@@8
_DATA	SEGMENT DWORD USE32 PUBLIC 'DATA'
_DATA	ENDS
;	COMDAT ??_R1A@?0A@A@?$basic_ostream@DV?$char_traits@D@_STL@@@_STL@@8
rdata$r	SEGMENT DWORD USE32 PUBLIC 'CONST'
rdata$r	ENDS
;	COMDAT ??_R0?AV?$basic_ostream@DV?$char_traits@D@_STL@@@_STL@@@8
_DATA	SEGMENT DWORD USE32 PUBLIC 'DATA'
_DATA	ENDS
;	COMDAT ??_R1A@?0A@A@?$basic_ofstream@DV?$char_traits@D@_STL@@@_STL@@8
rdata$r	SEGMENT DWORD USE32 PUBLIC 'CONST'
rdata$r	ENDS
;	COMDAT ??_R1A@?0A@A@iovfs_base@@8
rdata$r	SEGMENT DWORD USE32 PUBLIC 'CONST'
rdata$r	ENDS
;	COMDAT ??_R1A@?0A@A@ovfstream@@8
rdata$r	SEGMENT DWORD USE32 PUBLIC 'CONST'
rdata$r	ENDS
;	COMDAT ??_R1A@?0A@A@?$SimpleDataList@PAVLineEditorVisual@@@@8
rdata$r	SEGMENT DWORD USE32 PUBLIC 'CONST'
rdata$r	ENDS
;	COMDAT ??_R0?AV?$CTypePack2@VCSprite@@VCSprite555@@VCSprite565@@@@@8
_DATA	SEGMENT DWORD USE32 PUBLIC 'DATA'
_DATA	ENDS
;	COMDAT ??_R0?AVCSprite565@@@8
_DATA	SEGMENT DWORD USE32 PUBLIC 'DATA'
_DATA	ENDS
;	COMDAT ??_R0?AVIFileIO@@@8
_DATA	SEGMENT DWORD USE32 PUBLIC 'DATA'
_DATA	ENDS
;	COMDAT ??_R0?AVCSprite@@@8
_DATA	SEGMENT DWORD USE32 PUBLIC 'DATA'
_DATA	ENDS
;	COMDAT ??_R0?AVCSprite555@@@8
_DATA	SEGMENT DWORD USE32 PUBLIC 'DATA'
_DATA	ENDS
;	COMDAT ??_R0?AV?$SimpleDataList@PAVWindow@@@@@8
_DATA	SEGMENT DWORD USE32 PUBLIC 'DATA'
_DATA	ENDS
;	COMDAT ??_R0?AVITypePackBase@@@8
_DATA	SEGMENT DWORD USE32 PUBLIC 'DATA'
_DATA	ENDS
;	COMDAT ??_R0?AVivfstream@@@8
_DATA	SEGMENT DWORD USE32 PUBLIC 'DATA'
_DATA	ENDS
;	COMDAT ??_R0?AV?$SimpleDataList@PAUMESSAGE@@@@@8
_DATA	SEGMENT DWORD USE32 PUBLIC 'DATA'
_DATA	ENDS
;	COMDAT ??_R0?AV?$SimpleDataList@PAVPI_Processor@@@@@8
_DATA	SEGMENT DWORD USE32 PUBLIC 'DATA'
_DATA	ENDS
;	COMDAT ??_R0?AV?$basic_ofstream@DV?$char_traits@D@_STL@@@_STL@@@8
_DATA	SEGMENT DWORD USE32 PUBLIC 'DATA'
_DATA	ENDS
;	COMDAT ??_R0?AViovfs_base@@@8
_DATA	SEGMENT DWORD USE32 PUBLIC 'DATA'
_DATA	ENDS
;	COMDAT ??_R0?AVovfstream@@@8
_DATA	SEGMENT DWORD USE32 PUBLIC 'DATA'
_DATA	ENDS
;	COMDAT ??_R0?AV?$SimpleDataList@PAVLineEditorVisual@@@@@8
_DATA	SEGMENT DWORD USE32 PUBLIC 'DATA'
_DATA	ENDS
;	COMDAT ??_R4?$CTypePack2@VCSprite@@VCSprite555@@VCSprite565@@@@6B@
rdata$r	SEGMENT DWORD USE32 PUBLIC 'CONST'
rdata$r	ENDS
;	COMDAT ??_R4CSprite565@@6B@
rdata$r	SEGMENT DWORD USE32 PUBLIC 'CONST'
rdata$r	ENDS
;	COMDAT ??_R4IFileIO@@6B@
rdata$r	SEGMENT DWORD USE32 PUBLIC 'CONST'
rdata$r	ENDS
;	COMDAT ??_R4CSprite555@@6B@
rdata$r	SEGMENT DWORD USE32 PUBLIC 'CONST'
rdata$r	ENDS
;	COMDAT ??_R4?$SimpleDataList@PAVWindow@@@@6B@
rdata$r	SEGMENT DWORD USE32 PUBLIC 'CONST'
rdata$r	ENDS
;	COMDAT ??_R4ITypePackBase@@6B@
rdata$r	SEGMENT DWORD USE32 PUBLIC 'CONST'
rdata$r	ENDS
;	COMDAT ??_R4ivfstream@@6B@
rdata$r	SEGMENT DWORD USE32 PUBLIC 'CONST'
rdata$r	ENDS
;	COMDAT ??_R4?$SimpleDataList@PAUMESSAGE@@@@6B@
rdata$r	SEGMENT DWORD USE32 PUBLIC 'CONST'
rdata$r	ENDS
;	COMDAT ??_R4?$SimpleDataList@PAVPI_Processor@@@@6B@
rdata$r	SEGMENT DWORD USE32 PUBLIC 'CONST'
rdata$r	ENDS
;	COMDAT ??_R4iovfs_base@@6B@
rdata$r	SEGMENT DWORD USE32 PUBLIC 'CONST'
rdata$r	ENDS
;	COMDAT ??_R4?$basic_ofstream@DV?$char_traits@D@_STL@@@_STL@@6B@
rdata$r	SEGMENT DWORD USE32 PUBLIC 'CONST'
rdata$r	ENDS
;	COMDAT ??_R4ovfstream@@6B@
rdata$r	SEGMENT DWORD USE32 PUBLIC 'CONST'
rdata$r	ENDS
;	COMDAT ??_R4?$SimpleDataList@PAVLineEditorVisual@@@@6B@
rdata$r	SEGMENT DWORD USE32 PUBLIC 'CONST'
rdata$r	ENDS
;	COMDAT ??3@YAXPAX0@Z
_TEXT	SEGMENT PARA USE32 PUBLIC 'CODE'
_TEXT	ENDS
;	COMDAT ?good@ios_base@_STL@@QBE_NXZ
_TEXT	SEGMENT PARA USE32 PUBLIC 'CODE'
_TEXT	ENDS
;	COMDAT ?uninitialized_copy@_STL@@YAPADPBD0PAD@Z
_TEXT	SEGMENT PARA USE32 PUBLIC 'CODE'
_TEXT	ENDS
;	COMDAT ?_M_get_exception_mask@ios_base@_STL@@IBEHXZ
_TEXT	SEGMENT PARA USE32 PUBLIC 'CODE'
_TEXT	ENDS
;	COMDAT ?_M_setstate_nothrow@ios_base@_STL@@IAEXH@Z
_TEXT	SEGMENT PARA USE32 PUBLIC 'CODE'
_TEXT	ENDS
;	COMDAT ?_M_ctype_facet@ios_base@_STL@@QBEPBVfacet@locale@2@XZ
_TEXT	SEGMENT PARA USE32 PUBLIC 'CODE'
_TEXT	ENDS
;	COMDAT ?widen@?$ctype@D@_STL@@QBEDD@Z
_TEXT	SEGMENT PARA USE32 PUBLIC 'CODE'
_TEXT	ENDS
;	COMDAT ?grouping@?$numpunct@D@_STL@@QBE?AV?$basic_string@DV?$char_traits@D@_STL@@V?$allocator@D@2@@2@XZ
_TEXT	SEGMENT PARA USE32 PUBLIC 'CODE'
_TEXT	ENDS
;	COMDAT ?pubsync@?$basic_streambuf@DV?$char_traits@D@_STL@@@_STL@@QAEHXZ
_TEXT	SEGMENT PARA USE32 PUBLIC 'CODE'
_TEXT	ENDS
;	COMDAT ?flags@ios_base@_STL@@QBEHXZ
_TEXT	SEGMENT PARA USE32 PUBLIC 'CODE'
_TEXT	ENDS
;	COMDAT ??2@YAPAXIPAX@Z
_TEXT	SEGMENT PARA USE32 PUBLIC 'CODE'
_TEXT	ENDS
;	COMDAT ?precision@ios_base@_STL@@QAEHH@Z
_TEXT	SEGMENT PARA USE32 PUBLIC 'CODE'
_TEXT	ENDS
;	COMDAT ?width@ios_base@_STL@@QAEHH@Z
_TEXT	SEGMENT PARA USE32 PUBLIC 'CODE'
_TEXT	ENDS
;	COMDAT ?flags@ios_base@_STL@@QAEHH@Z
_TEXT	SEGMENT PARA USE32 PUBLIC 'CODE'
_TEXT	ENDS
;	COMDAT ?_M_set_exception_mask@ios_base@_STL@@IAEXH@Z
_TEXT	SEGMENT PARA USE32 PUBLIC 'CODE'
_TEXT	ENDS
;	COMDAT ??_7?$basic_ios@DV?$char_traits@D@_STL@@@_STL@@6B@
CONST	SEGMENT DWORD USE32 PUBLIC 'CONST'
CONST	ENDS
;	COMDAT ??_R4?$basic_ios@DV?$char_traits@D@_STL@@@_STL@@6B@
rdata$r	SEGMENT DWORD USE32 PUBLIC 'CONST'
rdata$r	ENDS
;	COMDAT ??_R3?$basic_ios@DV?$char_traits@D@_STL@@@_STL@@8
rdata$r	SEGMENT DWORD USE32 PUBLIC 'CONST'
rdata$r	ENDS
;	COMDAT ??_R2?$basic_ios@DV?$char_traits@D@_STL@@@_STL@@8
rdata$r	SEGMENT DWORD USE32 PUBLIC 'CONST'
rdata$r	ENDS
;	COMDAT ??_R1A@?0A@A@?$basic_ios@DV?$char_traits@D@_STL@@@_STL@@8
rdata$r	SEGMENT DWORD USE32 PUBLIC 'CONST'
rdata$r	ENDS
;	COMDAT ??_R1A@?0A@A@ios_base@_STL@@8
rdata$r	SEGMENT DWORD USE32 PUBLIC 'CONST'
rdata$r	ENDS
;	COMDAT ??_G?$basic_ios@DV?$char_traits@D@_STL@@@_STL@@UAEPAXI@Z
_TEXT	SEGMENT PARA USE32 PUBLIC 'CODE'
_TEXT	ENDS
;	COMDAT ??9_List_iterator_base@_STL@@QBE_NABU01@@Z
_TEXT	SEGMENT PARA USE32 PUBLIC 'CODE'
_TEXT	ENDS
;	COMDAT ?sputn@?$basic_streambuf@DV?$char_traits@D@_STL@@@_STL@@QAEHPBDH@Z
_TEXT	SEGMENT PARA USE32 PUBLIC 'CODE'
_TEXT	ENDS
;	COMDAT ??_7?$basic_ostream@DV?$char_traits@D@_STL@@@_STL@@6B@
CONST	SEGMENT DWORD USE32 PUBLIC 'CONST'
CONST	ENDS
;	COMDAT ??_R4?$basic_ostream@DV?$char_traits@D@_STL@@@_STL@@6B@
rdata$r	SEGMENT DWORD USE32 PUBLIC 'CONST'
rdata$r	ENDS
;	COMDAT ??_R3?$basic_ostream@DV?$char_traits@D@_STL@@@_STL@@8
rdata$r	SEGMENT DWORD USE32 PUBLIC 'CONST'
rdata$r	ENDS
;	COMDAT ??_R2?$basic_ostream@DV?$char_traits@D@_STL@@@_STL@@8
rdata$r	SEGMENT DWORD USE32 PUBLIC 'CONST'
rdata$r	ENDS
;	COMDAT ??_G?$basic_ostream@DV?$char_traits@D@_STL@@@_STL@@UAEPAXI@Z
_TEXT	SEGMENT PARA USE32 PUBLIC 'CODE'
_TEXT	ENDS
;	COMDAT ??_D?$basic_ostream@DV?$char_traits@D@_STL@@@_STL@@QAEXXZ
_TEXT	SEGMENT PARA USE32 PUBLIC 'CODE'
_TEXT	ENDS
;	COMDAT ??_8?$basic_ostream@DV?$char_traits@D@_STL@@@_STL@@7B@
CONST	SEGMENT DWORD USE32 PUBLIC 'CONST'
CONST	ENDS
;	COMDAT ?_M_deallocate_block@?$_String_base@DV?$allocator@D@_STL@@@_STL@@QAEXXZ
_TEXT	SEGMENT PARA USE32 PUBLIC 'CODE'
_TEXT	ENDS
;	COMDAT ?deallocate@?$allocator@D@_STL@@QAEXPADI@Z
_TEXT	SEGMENT PARA USE32 PUBLIC 'CODE'
_TEXT	ENDS
;	COMDAT ?__page_size@_Filebuf_base@_STL@@SAIXZ
_TEXT	SEGMENT PARA USE32 PUBLIC 'CODE'
_TEXT	ENDS
;	COMDAT ?_M_write@?$basic_filebuf@DV?$char_traits@D@_STL@@@_STL@@QAE_NPADH@Z
_TEXT	SEGMENT PARA USE32 PUBLIC 'CODE'
_TEXT	ENDS
;	COMDAT ?unshift@?$codecvt@DDH@_STL@@QBE?AW4result@codecvt_base@2@AAHPAD1AAPAD@Z
_TEXT	SEGMENT PARA USE32 PUBLIC 'CODE'
_TEXT	ENDS
;	COMDAT ??_7?$basic_filebuf@DV?$char_traits@D@_STL@@@_STL@@6B@
CONST	SEGMENT DWORD USE32 PUBLIC 'CONST'
CONST	ENDS
;	COMDAT ??_R4?$basic_filebuf@DV?$char_traits@D@_STL@@@_STL@@6B@
rdata$r	SEGMENT DWORD USE32 PUBLIC 'CONST'
rdata$r	ENDS
;	COMDAT ??_R0?AV?$basic_filebuf@DV?$char_traits@D@_STL@@@_STL@@@8
_DATA	SEGMENT DWORD USE32 PUBLIC 'DATA'
_DATA	ENDS
;	COMDAT ??_R3?$basic_filebuf@DV?$char_traits@D@_STL@@@_STL@@8
rdata$r	SEGMENT DWORD USE32 PUBLIC 'CONST'
rdata$r	ENDS
;	COMDAT ??_R2?$basic_filebuf@DV?$char_traits@D@_STL@@@_STL@@8
rdata$r	SEGMENT DWORD USE32 PUBLIC 'CONST'
rdata$r	ENDS
;	COMDAT ??_R1A@?0A@A@?$basic_filebuf@DV?$char_traits@D@_STL@@@_STL@@8
rdata$r	SEGMENT DWORD USE32 PUBLIC 'CONST'
rdata$r	ENDS
;	COMDAT ??_R1A@?0A@A@?$basic_streambuf@DV?$char_traits@D@_STL@@@_STL@@8
rdata$r	SEGMENT DWORD USE32 PUBLIC 'CONST'
rdata$r	ENDS
;	COMDAT ??_R0?AV?$basic_streambuf@DV?$char_traits@D@_STL@@@_STL@@@8
_DATA	SEGMENT DWORD USE32 PUBLIC 'DATA'
_DATA	ENDS
;	COMDAT ??_G?$basic_filebuf@DV?$char_traits@D@_STL@@@_STL@@UAEPAXI@Z
_TEXT	SEGMENT PARA USE32 PUBLIC 'CODE'
_TEXT	ENDS
;	COMDAT ?setbuf@?$basic_filebuf@DV?$char_traits@D@_STL@@@_STL@@MAEPAV?$basic_streambuf@DV?$char_traits@D@_STL@@@2@PADH@Z
_TEXT	SEGMENT PARA USE32 PUBLIC 'CODE'
_TEXT	ENDS
;	COMDAT ?seekoff@?$basic_filebuf@DV?$char_traits@D@_STL@@@_STL@@MAE?AV?$fpos@H@2@JHH@Z
_TEXT	SEGMENT PARA USE32 PUBLIC 'CODE'
_TEXT	ENDS
;	COMDAT ?_M_in_binary_mode@_Filebuf_base@_STL@@QBE_NXZ
_TEXT	SEGMENT PARA USE32 PUBLIC 'CODE'
_TEXT	ENDS
;	COMDAT ?length@?$codecvt@DDH@_STL@@QBEHABHPBD1I@Z
_TEXT	SEGMENT PARA USE32 PUBLIC 'CODE'
_TEXT	ENDS
;	COMDAT ?in@?$codecvt@DDH@_STL@@QBE?AW4result@codecvt_base@2@AAHPBD1AAPBDPAD3AAPAD@Z
_TEXT	SEGMENT PARA USE32 PUBLIC 'CODE'
_TEXT	ENDS
;	COMDAT ?eback@?$basic_streambuf@DV?$char_traits@D@_STL@@@_STL@@IBEPADXZ
_TEXT	SEGMENT PARA USE32 PUBLIC 'CODE'
_TEXT	ENDS
;	COMDAT ?_FILE_I_begin@_STL@@YAPADPBU_iobuf@@@Z
_TEXT	SEGMENT PARA USE32 PUBLIC 'CODE'
_TEXT	ENDS
;	COMDAT ?gptr@?$basic_streambuf@DV?$char_traits@D@_STL@@@_STL@@IBEPADXZ
_TEXT	SEGMENT PARA USE32 PUBLIC 'CODE'
_TEXT	ENDS
;	COMDAT ?_FILE_I_next@_STL@@YAPADPBU_iobuf@@@Z
_TEXT	SEGMENT PARA USE32 PUBLIC 'CODE'
_TEXT	ENDS
;	COMDAT ?_M_get_offset@_Filebuf_base@_STL@@QAEJPAD0@Z
_TEXT	SEGMENT PARA USE32 PUBLIC 'CODE'
_TEXT	ENDS
;	COMDAT ??$count@PADD@_STL@@YAHPAD0ABD@Z
_TEXT	SEGMENT PARA USE32 PUBLIC 'CODE'
_TEXT	ENDS
;	COMDAT ?seekpos@?$basic_filebuf@DV?$char_traits@D@_STL@@@_STL@@MAE?AV?$fpos@H@2@V32@H@Z
_TEXT	SEGMENT PARA USE32 PUBLIC 'CODE'
_TEXT	ENDS
;	COMDAT ?sync@?$basic_filebuf@DV?$char_traits@D@_STL@@@_STL@@MAEHXZ
_TEXT	SEGMENT PARA USE32 PUBLIC 'CODE'
_TEXT	ENDS
;	COMDAT ?showmanyc@?$basic_filebuf@DV?$char_traits@D@_STL@@@_STL@@MAEHXZ
_TEXT	SEGMENT PARA USE32 PUBLIC 'CODE'
_TEXT	ENDS
;	COMDAT ?egptr@?$basic_streambuf@DV?$char_traits@D@_STL@@@_STL@@IBEPADXZ
_TEXT	SEGMENT PARA USE32 PUBLIC 'CODE'
_TEXT	ENDS
;	COMDAT ?_FILE_I_end@_STL@@YAPADPBU_iobuf@@@Z
_TEXT	SEGMENT PARA USE32 PUBLIC 'CODE'
_TEXT	ENDS
;	COMDAT ?underflow@?$basic_filebuf@DV?$char_traits@D@_STL@@@_STL@@MAEHXZ
_TEXT	SEGMENT PARA USE32 PUBLIC 'CODE'
_TEXT	ENDS
;	COMDAT ?pbackfail@?$basic_filebuf@DV?$char_traits@D@_STL@@@_STL@@MAEHH@Z
_TEXT	SEGMENT PARA USE32 PUBLIC 'CODE'
_TEXT	ENDS
;	COMDAT ?gbump@?$basic_streambuf@DV?$char_traits@D@_STL@@@_STL@@IAEXH@Z
_TEXT	SEGMENT PARA USE32 PUBLIC 'CODE'
_TEXT	ENDS
;	COMDAT ?_FILE_I_bump@_STL@@YAXPAU_iobuf@@H@Z
_TEXT	SEGMENT PARA USE32 PUBLIC 'CODE'
_TEXT	ENDS
;	COMDAT ?to_int_type@?$char_traits@D@_STL@@SAHABD@Z
_TEXT	SEGMENT PARA USE32 PUBLIC 'CODE'
_TEXT	ENDS
;	COMDAT ?to_char_type@?$char_traits@D@_STL@@SADABH@Z
_TEXT	SEGMENT PARA USE32 PUBLIC 'CODE'
_TEXT	ENDS
;	COMDAT ?overflow@?$basic_filebuf@DV?$char_traits@D@_STL@@@_STL@@MAEHH@Z
_TEXT	SEGMENT PARA USE32 PUBLIC 'CODE'
_TEXT	ENDS
;	COMDAT ?pptr@?$basic_streambuf@DV?$char_traits@D@_STL@@@_STL@@IBEPADXZ
_TEXT	SEGMENT PARA USE32 PUBLIC 'CODE'
_TEXT	ENDS
;	COMDAT ?_FILE_O_next@_STL@@YAPADPBU_iobuf@@@Z
_TEXT	SEGMENT PARA USE32 PUBLIC 'CODE'
_TEXT	ENDS
;	COMDAT ?out@?$codecvt@DDH@_STL@@QBE?AW4result@codecvt_base@2@AAHPBD1AAPBDPAD3AAPAD@Z
_TEXT	SEGMENT PARA USE32 PUBLIC 'CODE'
_TEXT	ENDS
;	COMDAT ?_M_doit@?$_Noconv_output@V?$char_traits@D@_STL@@@_STL@@SA_NPAV?$basic_filebuf@DV?$char_traits@D@_STL@@@2@PAD1@Z
_TEXT	SEGMENT PARA USE32 PUBLIC 'CODE'
_TEXT	ENDS
;	COMDAT ?imbue@?$basic_filebuf@DV?$char_traits@D@_STL@@@_STL@@MAEXABVlocale@2@@Z
_TEXT	SEGMENT PARA USE32 PUBLIC 'CODE'
_TEXT	ENDS
;	COMDAT ??0?$basic_streambuf@DV?$char_traits@D@_STL@@@_STL@@IAE@XZ
_TEXT	SEGMENT PARA USE32 PUBLIC 'CODE'
_TEXT	ENDS
;	COMDAT ??_7?$basic_streambuf@DV?$char_traits@D@_STL@@@_STL@@6B@
CONST	SEGMENT DWORD USE32 PUBLIC 'CONST'
CONST	ENDS
;	COMDAT ??_R4?$basic_streambuf@DV?$char_traits@D@_STL@@@_STL@@6B@
rdata$r	SEGMENT DWORD USE32 PUBLIC 'CONST'
rdata$r	ENDS
;	COMDAT ??_R3?$basic_streambuf@DV?$char_traits@D@_STL@@@_STL@@8
rdata$r	SEGMENT DWORD USE32 PUBLIC 'CONST'
rdata$r	ENDS
;	COMDAT ??_R2?$basic_streambuf@DV?$char_traits@D@_STL@@@_STL@@8
rdata$r	SEGMENT DWORD USE32 PUBLIC 'CONST'
rdata$r	ENDS
;	COMDAT ??_G?$basic_streambuf@DV?$char_traits@D@_STL@@@_STL@@UAEPAXI@Z
_TEXT	SEGMENT PARA USE32 PUBLIC 'CODE'
_TEXT	ENDS
;	COMDAT ??0_STLP_mutex@_STL@@QAE@XZ
_TEXT	SEGMENT PARA USE32 PUBLIC 'CODE'
_TEXT	ENDS
;	COMDAT ?_M_initialize@_STLP_mutex_base@_STL@@QAEXXZ
_TEXT	SEGMENT PARA USE32 PUBLIC 'CODE'
_TEXT	ENDS
;	COMDAT ??1_STLP_mutex@_STL@@QAE@XZ
_TEXT	SEGMENT PARA USE32 PUBLIC 'CODE'
_TEXT	ENDS
;	COMDAT ?_M_destroy@_STLP_mutex_base@_STL@@QAEXXZ
_TEXT	SEGMENT PARA USE32 PUBLIC 'CODE'
_TEXT	ENDS
;	COMDAT ?_FILE_I_set@_STL@@YAXPAU_iobuf@@PAD11@Z
_TEXT	SEGMENT PARA USE32 PUBLIC 'CODE'
_TEXT	ENDS
;	COMDAT ?_FILE_O_set@_STL@@YAXPAU_iobuf@@PAD11@Z
_TEXT	SEGMENT PARA USE32 PUBLIC 'CODE'
_TEXT	ENDS
;	COMDAT ?deallocate@?$__node_alloc@$00$0A@@_STL@@SAXPAXI@Z
_TEXT	SEGMENT PARA USE32 PUBLIC 'CODE'
_TEXT	ENDS
;	COMDAT ?__stl_delete@_STL@@YAXPAX@Z
_TEXT	SEGMENT PARA USE32 PUBLIC 'CODE'
_TEXT	ENDS
;	COMDAT ?_M_check_exception_mask@ios_base@_STL@@IAEXXZ
_TEXT	SEGMENT PARA USE32 PUBLIC 'CODE'
_TEXT	ENDS
;	COMDAT ?_M_clear_nothrow@ios_base@_STL@@IAEXH@Z
_TEXT	SEGMENT PARA USE32 PUBLIC 'CODE'
_TEXT	ENDS
;	COMDAT ?__copy_trivial@_STL@@YAPAXPBX0PAX@Z
_TEXT	SEGMENT PARA USE32 PUBLIC 'CODE'
_TEXT	ENDS
;	COMDAT ?__stl_new@_STL@@YAPAXI@Z
_TEXT	SEGMENT PARA USE32 PUBLIC 'CODE'
_TEXT	ENDS
;	COMDAT ?rdstate@ios_base@_STL@@QBEHXZ
_TEXT	SEGMENT PARA USE32 PUBLIC 'CODE'
_TEXT	ENDS
;	COMDAT ?assign@?$char_traits@D@_STL@@SAXAADABD@Z
_TEXT	SEGMENT PARA USE32 PUBLIC 'CODE'
_TEXT	ENDS
;	COMDAT ?_M_incr@_List_iterator_base@_STL@@QAEXXZ
_TEXT	SEGMENT PARA USE32 PUBLIC 'CODE'
_TEXT	ENDS
;	COMDAT ??1?$basic_filebuf@DV?$char_traits@D@_STL@@@_STL@@UAE@XZ
_TEXT	SEGMENT PARA USE32 PUBLIC 'CODE'
_TEXT	ENDS
;	COMDAT ??_7?$basic_ofstream@DV?$char_traits@D@_STL@@@_STL@@6B@
CONST	SEGMENT DWORD USE32 PUBLIC 'CONST'
CONST	ENDS
;	COMDAT ??1?$basic_ostream@DV?$char_traits@D@_STL@@@_STL@@UAE@XZ
_TEXT	SEGMENT PARA USE32 PUBLIC 'CODE'
_TEXT	ENDS
;	COMDAT ??_8?$basic_ofstream@DV?$char_traits@D@_STL@@@_STL@@7B@
CONST	SEGMENT DWORD USE32 PUBLIC 'CONST'
CONST	ENDS
;	COMDAT ?pubseekpos@?$basic_streambuf@DV?$char_traits@D@_STL@@@_STL@@QAE?AV?$fpos@H@2@V32@H@Z
_TEXT	SEGMENT PARA USE32 PUBLIC 'CODE'
_TEXT	ENDS
;	COMDAT ?pubseekoff@?$basic_streambuf@DV?$char_traits@D@_STL@@@_STL@@QAE?AV?$fpos@H@2@JHH@Z
_TEXT	SEGMENT PARA USE32 PUBLIC 'CODE'
_TEXT	ENDS
;	COMDAT ?fail@ios_base@_STL@@QBE_NXZ
_TEXT	SEGMENT PARA USE32 PUBLIC 'CODE'
_TEXT	ENDS
;	COMDAT ??1?$_STLP_alloc_proxy@PADDV?$allocator@D@_STL@@@_STL@@QAE@XZ
_TEXT	SEGMENT PARA USE32 PUBLIC 'CODE'
_TEXT	ENDS
;	COMDAT ??1?$basic_ios@DV?$char_traits@D@_STL@@@_STL@@UAE@XZ
_TEXT	SEGMENT PARA USE32 PUBLIC 'CODE'
_TEXT	ENDS
;	COMDAT ??_7CSprite555@@6B@
CONST	SEGMENT DWORD USE32 PUBLIC 'CONST'
CONST	ENDS
;	COMDAT ??_7CSprite565@@6B@
CONST	SEGMENT DWORD USE32 PUBLIC 'CONST'
CONST	ENDS
;	COMDAT ??8_Rb_tree_base_iterator@_STL@@QBE_NABU01@@Z
_TEXT	SEGMENT PARA USE32 PUBLIC 'CODE'
_TEXT	ENDS
;	COMDAT ??9_Rb_tree_base_iterator@_STL@@QBE_NABU01@@Z
_TEXT	SEGMENT PARA USE32 PUBLIC 'CODE'
_TEXT	ENDS
;	COMDAT ??_7?$CTypePack2@VCSprite@@VCSprite555@@VCSprite565@@@@6B@
CONST	SEGMENT DWORD USE32 PUBLIC 'CONST'
CONST	ENDS
;	COMDAT ??_7?$SimpleDataList@PAUMESSAGE@@@@6B@
CONST	SEGMENT DWORD USE32 PUBLIC 'CONST'
CONST	ENDS
;	COMDAT ??_7?$SimpleDataList@PAVWindow@@@@6B@
CONST	SEGMENT DWORD USE32 PUBLIC 'CONST'
CONST	ENDS
;	COMDAT ??1?$_String_base@DV?$allocator@D@_STL@@@_STL@@QAE@XZ
_TEXT	SEGMENT PARA USE32 PUBLIC 'CODE'
_TEXT	ENDS
;	COMDAT ??1?$allocator@D@_STL@@QAE@XZ
_TEXT	SEGMENT PARA USE32 PUBLIC 'CODE'
_TEXT	ENDS
;	COMDAT ??_7?$SimpleDataList@PAVLineEditorVisual@@@@6B@
CONST	SEGMENT DWORD USE32 PUBLIC 'CONST'
CONST	ENDS
;	COMDAT ??_7?$SimpleDataList@PAVPI_Processor@@@@6B@
CONST	SEGMENT DWORD USE32 PUBLIC 'CONST'
CONST	ENDS
;	COMDAT ?always_noconv@?$codecvt@DDH@_STL@@QBE_NXZ
_TEXT	SEGMENT PARA USE32 PUBLIC 'CODE'
_TEXT	ENDS
;	COMDAT ?encoding@?$codecvt@DDH@_STL@@QBEHXZ
_TEXT	SEGMENT PARA USE32 PUBLIC 'CODE'
_TEXT	ENDS
;	COMDAT ?max_length@?$codecvt@DDH@_STL@@QBEHXZ
_TEXT	SEGMENT PARA USE32 PUBLIC 'CODE'
_TEXT	ENDS
;	COMDAT ?__o_mode@_Filebuf_base@_STL@@QBEHXZ
_TEXT	SEGMENT PARA USE32 PUBLIC 'CODE'
_TEXT	ENDS
;	COMDAT ??0_List_iterator_base@_STL@@QAE@PAU_List_node_base@1@@Z
_TEXT	SEGMENT PARA USE32 PUBLIC 'CODE'
_TEXT	ENDS
;	COMDAT ?_Destroy@_STL@@YAXPAD0@Z
_TEXT	SEGMENT PARA USE32 PUBLIC 'CODE'
_TEXT	ENDS
;	COMDAT ?setp@?$basic_streambuf@DV?$char_traits@D@_STL@@@_STL@@IAEXPAD0@Z
_TEXT	SEGMENT PARA USE32 PUBLIC 'CODE'
_TEXT	ENDS
;	COMDAT ?setg@?$basic_streambuf@DV?$char_traits@D@_STL@@@_STL@@IAEXPAD00@Z
_TEXT	SEGMENT PARA USE32 PUBLIC 'CODE'
_TEXT	ENDS
;	COMDAT ?__is_open@_Filebuf_base@_STL@@QBE_NXZ
_TEXT	SEGMENT PARA USE32 PUBLIC 'CODE'
_TEXT	ENDS
;	COMDAT ?length@?$char_traits@D@_STL@@SAIPBD@Z
_TEXT	SEGMENT PARA USE32 PUBLIC 'CODE'
_TEXT	ENDS
;	COMDAT ?eof@?$__char_traits_base@DH@_STL@@SAHXZ
_TEXT	SEGMENT PARA USE32 PUBLIC 'CODE'
_TEXT	ENDS
;	COMDAT ??_7ITypePackBase@@6B@
CONST	SEGMENT DWORD USE32 PUBLIC 'CONST'
CONST	ENDS
;	COMDAT ??_7ovfstream@@6B@
CONST	SEGMENT DWORD USE32 PUBLIC 'CONST'
CONST	ENDS
;	COMDAT ??_7ivfstream@@6B@
CONST	SEGMENT DWORD USE32 PUBLIC 'CONST'
CONST	ENDS
;	COMDAT ??_7iovfs_base@@6B@
CONST	SEGMENT DWORD USE32 PUBLIC 'CONST'
CONST	ENDS
;	COMDAT ??_7IFileIO@@6B@
CONST	SEGMENT DWORD USE32 PUBLIC 'CONST'
CONST	ENDS
;	COMDAT ??1?$basic_string@DV?$char_traits@D@_STL@@V?$allocator@D@2@@_STL@@QAE@XZ
_TEXT	SEGMENT PARA USE32 PUBLIC 'CODE'
_TEXT	ENDS
sxdata	SEGMENT DWORD USE32 'SXDATA'
sxdata	ENDS
FLAT	GROUP _DATA, CONST, _BSS
	ASSUME	CS: FLAT, DS: FLAT, SS: FLAT
endif

INCLUDELIB LIBCMT
INCLUDELIB OLDNAMES

PUBLIC	?gpC_global_resource@@3PAVC_GLOBAL_RESOURCE@@A	; gpC_global_resource
PUBLIC	?gbl_wood_skin@@3_NA				; gbl_wood_skin
_BSS	SEGMENT
?gpC_global_resource@@3PAVC_GLOBAL_RESOURCE@@A DD 01H DUP (?) ; gpC_global_resource
?gbl_wood_skin@@3_NA DB 01H DUP (?)			; gbl_wood_skin
_BSS	ENDS
PUBLIC	??_GC_SPRITE_PACK@@QAEPAXI@Z			; C_SPRITE_PACK::`scalar deleting destructor'
EXTRN	??3@YAXPAX@Z:NEAR				; operator delete
EXTRN	??1C_SPRITE_PACK@@QAE@XZ:NEAR			; C_SPRITE_PACK::~C_SPRITE_PACK
; Function compile flags: /Ogty
;	COMDAT ??_GC_SPRITE_PACK@@QAEPAXI@Z
_TEXT	SEGMENT
___flags$ = 8						; size = 4
??_GC_SPRITE_PACK@@QAEPAXI@Z PROC NEAR			; C_SPRITE_PACK::`scalar deleting destructor', COMDAT
; _this$ = ecx
  00000	56		 push	 esi
  00001	8b f1		 mov	 esi, ecx
  00003	e8 00 00 00 00	 call	 ??1C_SPRITE_PACK@@QAE@XZ ; C_SPRITE_PACK::~C_SPRITE_PACK
  00008	f6 44 24 08 01	 test	 BYTE PTR ___flags$[esp], 1
  0000d	74 09		 je	 SHORT $L93608
  0000f	56		 push	 esi
  00010	e8 00 00 00 00	 call	 ??3@YAXPAX@Z		; operator delete
  00015	83 c4 04	 add	 esp, 4
$L93608:
  00018	8b c6		 mov	 eax, esi
  0001a	5e		 pop	 esi
  0001b	c2 04 00	 ret	 4
??_GC_SPRITE_PACK@@QAEPAXI@Z ENDP			; C_SPRITE_PACK::`scalar deleting destructor'
_TEXT	ENDS
PUBLIC	?DrawOutBoxLocked@C_GLOBAL_RESOURCE@@QAEXHHHH@Z	; C_GLOBAL_RESOURCE::DrawOutBoxLocked
EXTRN	??0Rect@@QAE@XZ:NEAR				; Rect::Rect
EXTRN	??1Rect@@QAE@XZ:NEAR				; Rect::~Rect
EXTRN	?Set@Rect@@QAEXHHHH@Z:NEAR			; Rect::Set
EXTRN	__except_list:DWORD
EXTRN	___CxxFrameHandler:NEAR
EXTRN	?GetWidth@C_SPRITE_PACK@@QAEHG@Z:NEAR		; C_SPRITE_PACK::GetWidth
EXTRN	?GetHeight@C_SPRITE_PACK@@QAEHG@Z:NEAR		; C_SPRITE_PACK::GetHeight
EXTRN	?BltLockedClip@C_SPRITE_PACK@@QAEXHHAAVRect@@G@Z:NEAR ; C_SPRITE_PACK::BltLockedClip
EXTRN	?BltLocked@C_SPRITE_PACK@@QAEXHHG@Z:NEAR	; C_SPRITE_PACK::BltLocked
;	COMDAT xdata$x
; File c:\darkeden\designed_common\project\new - vs_ui\src\vs_ui_globalresource.cpp
xdata$x	SEGMENT
$T93619	DD	0ffffffffH
	DD	FLAT:$L93612
$T93616	DD	019930520H
	DD	01H
	DD	FLAT:$T93619
	DD	2 DUP(00H)
	DD	2 DUP(00H)
; Function compile flags: /Ogty
xdata$x	ENDS
;	COMDAT ?DrawOutBoxLocked@C_GLOBAL_RESOURCE@@QAEXHHHH@Z
_TEXT	SEGMENT
_rect$ = -28						; size = 16
__$EHRec$ = -12						; size = 12
_x$ = 8							; size = 4
_y$ = 12						; size = 4
_w$ = 16						; size = 4
_h$ = 20						; size = 4
?DrawOutBoxLocked@C_GLOBAL_RESOURCE@@QAEXHHHH@Z PROC NEAR ; C_GLOBAL_RESOURCE::DrawOutBoxLocked, COMDAT
; _this$ = ecx

; 252  : {

  00000	6a ff		 push	 -1
  00002	68 00 00 00 00	 push	 __ehhandler$?DrawOutBoxLocked@C_GLOBAL_RESOURCE@@QAEXHHHH@Z
  00007	64 a1 00 00 00
	00		 mov	 eax, DWORD PTR fs:__except_list
  0000d	50		 push	 eax
  0000e	64 89 25 00 00
	00 00		 mov	 DWORD PTR fs:__except_list, esp
  00015	83 ec 10	 sub	 esp, 16			; 00000010H
  00018	53		 push	 ebx
  00019	55		 push	 ebp
  0001a	56		 push	 esi
  0001b	8b f1		 mov	 esi, ecx
  0001d	57		 push	 edi

; 253  : 	Rect rect;

  0001e	8d 4c 24 10	 lea	 ecx, DWORD PTR _rect$[esp+44]
  00022	e8 00 00 00 00	 call	 ??0Rect@@QAE@XZ		; Rect::Rect

; 254  : 
; 255  : 	rect.Set(0, 0, w-m_pC_box_spk->GetWidth(OB_RIGHT), h-m_pC_box_spk->GetHeight(OB_DOWN));

  00027	8b 4e 0c	 mov	 ecx, DWORD PTR [esi+12]
  0002a	6a 02		 push	 2
  0002c	c7 44 24 2c 00
	00 00 00	 mov	 DWORD PTR __$EHRec$[esp+56], 0
  00034	e8 00 00 00 00	 call	 ?GetHeight@C_SPRITE_PACK@@QAEHG@Z ; C_SPRITE_PACK::GetHeight
  00039	8b 5c 24 3c	 mov	 ebx, DWORD PTR _h$[esp+40]
  0003d	8b cb		 mov	 ecx, ebx
  0003f	2b c8		 sub	 ecx, eax
  00041	51		 push	 ecx
  00042	8b 4e 0c	 mov	 ecx, DWORD PTR [esi+12]
  00045	6a 01		 push	 1
  00047	e8 00 00 00 00	 call	 ?GetWidth@C_SPRITE_PACK@@QAEHG@Z ; C_SPRITE_PACK::GetWidth
  0004c	8b 6c 24 3c	 mov	 ebp, DWORD PTR _w$[esp+44]
  00050	8b d5		 mov	 edx, ebp
  00052	2b d0		 sub	 edx, eax
  00054	52		 push	 edx
  00055	6a 00		 push	 0
  00057	6a 00		 push	 0
  00059	8d 4c 24 20	 lea	 ecx, DWORD PTR _rect$[esp+60]
  0005d	e8 00 00 00 00	 call	 ?Set@Rect@@QAEXHHHH@Z	; Rect::Set

; 256  : 	m_pC_box_spk->BltLockedClip(x, y, rect, OB_MAIN);

  00062	8b 4c 24 34	 mov	 ecx, DWORD PTR _y$[esp+40]
  00066	8b 7c 24 30	 mov	 edi, DWORD PTR _x$[esp+40]
  0006a	6a 00		 push	 0
  0006c	8d 44 24 14	 lea	 eax, DWORD PTR _rect$[esp+48]
  00070	50		 push	 eax
  00071	51		 push	 ecx
  00072	8b 4e 0c	 mov	 ecx, DWORD PTR [esi+12]
  00075	57		 push	 edi
  00076	e8 00 00 00 00	 call	 ?BltLockedClip@C_SPRITE_PACK@@QAEXHHAAVRect@@G@Z ; C_SPRITE_PACK::BltLockedClip

; 257  : 
; 258  : 	rect.Set(0, 0, m_pC_box_spk->GetWidth(OB_RIGHT), h);

  0007b	8b 4e 0c	 mov	 ecx, DWORD PTR [esi+12]
  0007e	53		 push	 ebx
  0007f	6a 01		 push	 1
  00081	e8 00 00 00 00	 call	 ?GetWidth@C_SPRITE_PACK@@QAEHG@Z ; C_SPRITE_PACK::GetWidth
  00086	50		 push	 eax
  00087	6a 00		 push	 0
  00089	6a 00		 push	 0
  0008b	8d 4c 24 20	 lea	 ecx, DWORD PTR _rect$[esp+60]
  0008f	e8 00 00 00 00	 call	 ?Set@Rect@@QAEXHHHH@Z	; Rect::Set

; 259  : 	m_pC_box_spk->BltLockedClip(x+w-m_pC_box_spk->GetWidth(OB_RIGHT), y, rect, OB_RIGHT);

  00094	8b 44 24 34	 mov	 eax, DWORD PTR _y$[esp+40]
  00098	8b 4e 0c	 mov	 ecx, DWORD PTR [esi+12]
  0009b	6a 01		 push	 1
  0009d	8d 54 24 14	 lea	 edx, DWORD PTR _rect$[esp+48]
  000a1	52		 push	 edx
  000a2	50		 push	 eax
  000a3	6a 01		 push	 1
  000a5	03 fd		 add	 edi, ebp
  000a7	e8 00 00 00 00	 call	 ?GetWidth@C_SPRITE_PACK@@QAEHG@Z ; C_SPRITE_PACK::GetWidth
  000ac	8b cf		 mov	 ecx, edi
  000ae	2b c8		 sub	 ecx, eax
  000b0	51		 push	 ecx
  000b1	8b 4e 0c	 mov	 ecx, DWORD PTR [esi+12]
  000b4	e8 00 00 00 00	 call	 ?BltLockedClip@C_SPRITE_PACK@@QAEXHHAAVRect@@G@Z ; C_SPRITE_PACK::BltLockedClip

; 260  : 
; 261  : 	rect.Set(0, 0, w, m_pC_box_spk->GetHeight(OB_DOWN));

  000b9	8b 4e 0c	 mov	 ecx, DWORD PTR [esi+12]
  000bc	6a 02		 push	 2
  000be	e8 00 00 00 00	 call	 ?GetHeight@C_SPRITE_PACK@@QAEHG@Z ; C_SPRITE_PACK::GetHeight
  000c3	50		 push	 eax
  000c4	55		 push	 ebp
  000c5	6a 00		 push	 0
  000c7	6a 00		 push	 0
  000c9	8d 4c 24 20	 lea	 ecx, DWORD PTR _rect$[esp+60]
  000cd	e8 00 00 00 00	 call	 ?Set@Rect@@QAEXHHHH@Z	; Rect::Set

; 262  : 	m_pC_box_spk->BltLockedClip(x, y+h-m_pC_box_spk->GetHeight(OB_DOWN), rect, OB_DOWN);

  000d2	8b 54 24 34	 mov	 edx, DWORD PTR _y$[esp+40]
  000d6	8b 4e 0c	 mov	 ecx, DWORD PTR [esi+12]
  000d9	6a 02		 push	 2
  000db	8d 44 24 14	 lea	 eax, DWORD PTR _rect$[esp+48]
  000df	50		 push	 eax
  000e0	6a 02		 push	 2
  000e2	03 da		 add	 ebx, edx
  000e4	e8 00 00 00 00	 call	 ?GetHeight@C_SPRITE_PACK@@QAEHG@Z ; C_SPRITE_PACK::GetHeight
  000e9	8b 54 24 38	 mov	 edx, DWORD PTR _x$[esp+48]
  000ed	8b cb		 mov	 ecx, ebx
  000ef	2b c8		 sub	 ecx, eax
  000f1	51		 push	 ecx
  000f2	52		 push	 edx
  000f3	8b 4e 0c	 mov	 ecx, DWORD PTR [esi+12]
  000f6	e8 00 00 00 00	 call	 ?BltLockedClip@C_SPRITE_PACK@@QAEXHHAAVRect@@G@Z ; C_SPRITE_PACK::BltLockedClip

; 263  : 
; 264  : 	m_pC_box_spk->BltLocked(x+w-m_pC_box_spk->GetWidth(OB_RIGHTDOWN), y+h-m_pC_box_spk->GetHeight(OB_RIGHTDOWN), OB_RIGHTDOWN);

  000fb	8b 4e 0c	 mov	 ecx, DWORD PTR [esi+12]
  000fe	6a 03		 push	 3
  00100	6a 03		 push	 3
  00102	e8 00 00 00 00	 call	 ?GetHeight@C_SPRITE_PACK@@QAEHG@Z ; C_SPRITE_PACK::GetHeight
  00107	8b 4e 0c	 mov	 ecx, DWORD PTR [esi+12]
  0010a	2b d8		 sub	 ebx, eax
  0010c	53		 push	 ebx
  0010d	6a 03		 push	 3
  0010f	e8 00 00 00 00	 call	 ?GetWidth@C_SPRITE_PACK@@QAEHG@Z ; C_SPRITE_PACK::GetWidth
  00114	8b 4e 0c	 mov	 ecx, DWORD PTR [esi+12]
  00117	2b f8		 sub	 edi, eax
  00119	57		 push	 edi
  0011a	e8 00 00 00 00	 call	 ?BltLocked@C_SPRITE_PACK@@QAEXHHG@Z ; C_SPRITE_PACK::BltLocked

; 265  : 
; 266  : }

  0011f	8d 4c 24 10	 lea	 ecx, DWORD PTR _rect$[esp+44]
  00123	c7 44 24 28 ff
	ff ff ff	 mov	 DWORD PTR __$EHRec$[esp+52], -1
  0012b	e8 00 00 00 00	 call	 ??1Rect@@QAE@XZ		; Rect::~Rect
  00130	8b 4c 24 20	 mov	 ecx, DWORD PTR __$EHRec$[esp+44]
  00134	5f		 pop	 edi
  00135	5e		 pop	 esi
  00136	5d		 pop	 ebp
  00137	5b		 pop	 ebx
  00138	64 89 0d 00 00
	00 00		 mov	 DWORD PTR fs:__except_list, ecx
  0013f	83 c4 1c	 add	 esp, 28			; 0000001cH
  00142	c2 10 00	 ret	 16			; 00000010H
_TEXT	ENDS
;	COMDAT text$x
text$x	SEGMENT
$L93612:
  00000	8d 4d e4	 lea	 ecx, DWORD PTR _rect$[ebp]
  00003	e9 00 00 00 00	 jmp	 ??1Rect@@QAE@XZ		; Rect::~Rect
__ehhandler$?DrawOutBoxLocked@C_GLOBAL_RESOURCE@@QAEXHHHH@Z:
  00008	b8 00 00 00 00	 mov	 eax, OFFSET FLAT:$T93616
  0000d	e9 00 00 00 00	 jmp	 ___CxxFrameHandler
text$x	ENDS
?DrawOutBoxLocked@C_GLOBAL_RESOURCE@@QAEXHHHH@Z ENDP	; C_GLOBAL_RESOURCE::DrawOutBoxLocked
PUBLIC	?DrawInBoxLocked@C_GLOBAL_RESOURCE@@QAEXHHHH@Z	; C_GLOBAL_RESOURCE::DrawInBoxLocked
;	COMDAT xdata$x
xdata$x	SEGMENT
$T93630	DD	0ffffffffH
	DD	FLAT:$L93626
$T93628	DD	019930520H
	DD	01H
	DD	FLAT:$T93630
	DD	2 DUP(00H)
	DD	2 DUP(00H)
; Function compile flags: /Ogty
xdata$x	ENDS
;	COMDAT ?DrawInBoxLocked@C_GLOBAL_RESOURCE@@QAEXHHHH@Z
_TEXT	SEGMENT
_rect$ = -28						; size = 16
__$EHRec$ = -12						; size = 12
_x$ = 8							; size = 4
_y$ = 12						; size = 4
_w$ = 16						; size = 4
_h$ = 20						; size = 4
?DrawInBoxLocked@C_GLOBAL_RESOURCE@@QAEXHHHH@Z PROC NEAR ; C_GLOBAL_RESOURCE::DrawInBoxLocked, COMDAT
; _this$ = ecx

; 289  : {

  00000	6a ff		 push	 -1
  00002	68 00 00 00 00	 push	 __ehhandler$?DrawInBoxLocked@C_GLOBAL_RESOURCE@@QAEXHHHH@Z
  00007	64 a1 00 00 00
	00		 mov	 eax, DWORD PTR fs:__except_list
  0000d	50		 push	 eax
  0000e	64 89 25 00 00
	00 00		 mov	 DWORD PTR fs:__except_list, esp
  00015	83 ec 10	 sub	 esp, 16			; 00000010H
  00018	53		 push	 ebx
  00019	55		 push	 ebp
  0001a	56		 push	 esi
  0001b	8b f1		 mov	 esi, ecx
  0001d	57		 push	 edi

; 290  : 	Rect rect;

  0001e	8d 4c 24 10	 lea	 ecx, DWORD PTR _rect$[esp+44]
  00022	e8 00 00 00 00	 call	 ??0Rect@@QAE@XZ		; Rect::Rect

; 291  : 	
; 292  : 	rect.Set(0, 0, w-m_pC_box_spk->GetWidth(IB_RIGHT), h-m_pC_box_spk->GetHeight(IB_DOWN));

  00027	8b 4e 0c	 mov	 ecx, DWORD PTR [esi+12]
  0002a	6a 06		 push	 6
  0002c	c7 44 24 2c 00
	00 00 00	 mov	 DWORD PTR __$EHRec$[esp+56], 0
  00034	e8 00 00 00 00	 call	 ?GetHeight@C_SPRITE_PACK@@QAEHG@Z ; C_SPRITE_PACK::GetHeight
  00039	8b 5c 24 3c	 mov	 ebx, DWORD PTR _h$[esp+40]
  0003d	8b cb		 mov	 ecx, ebx
  0003f	2b c8		 sub	 ecx, eax
  00041	51		 push	 ecx
  00042	8b 4e 0c	 mov	 ecx, DWORD PTR [esi+12]
  00045	6a 05		 push	 5
  00047	e8 00 00 00 00	 call	 ?GetWidth@C_SPRITE_PACK@@QAEHG@Z ; C_SPRITE_PACK::GetWidth
  0004c	8b 6c 24 3c	 mov	 ebp, DWORD PTR _w$[esp+44]
  00050	8b d5		 mov	 edx, ebp
  00052	2b d0		 sub	 edx, eax
  00054	52		 push	 edx
  00055	6a 00		 push	 0
  00057	6a 00		 push	 0
  00059	8d 4c 24 20	 lea	 ecx, DWORD PTR _rect$[esp+60]
  0005d	e8 00 00 00 00	 call	 ?Set@Rect@@QAEXHHHH@Z	; Rect::Set

; 293  : 	m_pC_box_spk->BltLockedClip(x, y, rect, IB_MAIN);

  00062	8b 4c 24 34	 mov	 ecx, DWORD PTR _y$[esp+40]
  00066	8b 7c 24 30	 mov	 edi, DWORD PTR _x$[esp+40]
  0006a	6a 04		 push	 4
  0006c	8d 44 24 14	 lea	 eax, DWORD PTR _rect$[esp+48]
  00070	50		 push	 eax
  00071	51		 push	 ecx
  00072	8b 4e 0c	 mov	 ecx, DWORD PTR [esi+12]
  00075	57		 push	 edi
  00076	e8 00 00 00 00	 call	 ?BltLockedClip@C_SPRITE_PACK@@QAEXHHAAVRect@@G@Z ; C_SPRITE_PACK::BltLockedClip

; 294  : 	
; 295  : 	rect.Set(0, 0, m_pC_box_spk->GetWidth(IB_RIGHT), h);

  0007b	8b 4e 0c	 mov	 ecx, DWORD PTR [esi+12]
  0007e	53		 push	 ebx
  0007f	6a 05		 push	 5
  00081	e8 00 00 00 00	 call	 ?GetWidth@C_SPRITE_PACK@@QAEHG@Z ; C_SPRITE_PACK::GetWidth
  00086	50		 push	 eax
  00087	6a 00		 push	 0
  00089	6a 00		 push	 0
  0008b	8d 4c 24 20	 lea	 ecx, DWORD PTR _rect$[esp+60]
  0008f	e8 00 00 00 00	 call	 ?Set@Rect@@QAEXHHHH@Z	; Rect::Set

; 296  : 	m_pC_box_spk->BltLockedClip(x+w-m_pC_box_spk->GetWidth(IB_RIGHT), y, rect, IB_RIGHT);

  00094	8b 44 24 34	 mov	 eax, DWORD PTR _y$[esp+40]
  00098	8b 4e 0c	 mov	 ecx, DWORD PTR [esi+12]
  0009b	6a 05		 push	 5
  0009d	8d 54 24 14	 lea	 edx, DWORD PTR _rect$[esp+48]
  000a1	52		 push	 edx
  000a2	50		 push	 eax
  000a3	6a 05		 push	 5
  000a5	03 fd		 add	 edi, ebp
  000a7	e8 00 00 00 00	 call	 ?GetWidth@C_SPRITE_PACK@@QAEHG@Z ; C_SPRITE_PACK::GetWidth
  000ac	8b cf		 mov	 ecx, edi
  000ae	2b c8		 sub	 ecx, eax
  000b0	51		 push	 ecx
  000b1	8b 4e 0c	 mov	 ecx, DWORD PTR [esi+12]
  000b4	e8 00 00 00 00	 call	 ?BltLockedClip@C_SPRITE_PACK@@QAEXHHAAVRect@@G@Z ; C_SPRITE_PACK::BltLockedClip

; 297  : 	
; 298  : 	rect.Set(0, 0, w, m_pC_box_spk->GetHeight(IB_DOWN));

  000b9	8b 4e 0c	 mov	 ecx, DWORD PTR [esi+12]
  000bc	6a 06		 push	 6
  000be	e8 00 00 00 00	 call	 ?GetHeight@C_SPRITE_PACK@@QAEHG@Z ; C_SPRITE_PACK::GetHeight
  000c3	50		 push	 eax
  000c4	55		 push	 ebp
  000c5	6a 00		 push	 0
  000c7	6a 00		 push	 0
  000c9	8d 4c 24 20	 lea	 ecx, DWORD PTR _rect$[esp+60]
  000cd	e8 00 00 00 00	 call	 ?Set@Rect@@QAEXHHHH@Z	; Rect::Set

; 299  : 	m_pC_box_spk->BltLockedClip(x, y+h-m_pC_box_spk->GetHeight(IB_DOWN), rect, IB_DOWN);

  000d2	8b 54 24 34	 mov	 edx, DWORD PTR _y$[esp+40]
  000d6	8b 4e 0c	 mov	 ecx, DWORD PTR [esi+12]
  000d9	6a 06		 push	 6
  000db	8d 44 24 14	 lea	 eax, DWORD PTR _rect$[esp+48]
  000df	50		 push	 eax
  000e0	6a 06		 push	 6
  000e2	03 da		 add	 ebx, edx
  000e4	e8 00 00 00 00	 call	 ?GetHeight@C_SPRITE_PACK@@QAEHG@Z ; C_SPRITE_PACK::GetHeight
  000e9	8b 54 24 38	 mov	 edx, DWORD PTR _x$[esp+48]
  000ed	8b cb		 mov	 ecx, ebx
  000ef	2b c8		 sub	 ecx, eax
  000f1	51		 push	 ecx
  000f2	52		 push	 edx
  000f3	8b 4e 0c	 mov	 ecx, DWORD PTR [esi+12]
  000f6	e8 00 00 00 00	 call	 ?BltLockedClip@C_SPRITE_PACK@@QAEXHHAAVRect@@G@Z ; C_SPRITE_PACK::BltLockedClip

; 300  : 	
; 301  : 	m_pC_box_spk->BltLocked(x+w-m_pC_box_spk->GetWidth(IB_RIGHTDOWN), y+h-m_pC_box_spk->GetHeight(IB_RIGHTDOWN), IB_RIGHTDOWN);

  000fb	8b 4e 0c	 mov	 ecx, DWORD PTR [esi+12]
  000fe	6a 07		 push	 7
  00100	6a 07		 push	 7
  00102	e8 00 00 00 00	 call	 ?GetHeight@C_SPRITE_PACK@@QAEHG@Z ; C_SPRITE_PACK::GetHeight
  00107	8b 4e 0c	 mov	 ecx, DWORD PTR [esi+12]
  0010a	2b d8		 sub	 ebx, eax
  0010c	53		 push	 ebx
  0010d	6a 07		 push	 7
  0010f	e8 00 00 00 00	 call	 ?GetWidth@C_SPRITE_PACK@@QAEHG@Z ; C_SPRITE_PACK::GetWidth
  00114	8b 4e 0c	 mov	 ecx, DWORD PTR [esi+12]
  00117	2b f8		 sub	 edi, eax
  00119	57		 push	 edi
  0011a	e8 00 00 00 00	 call	 ?BltLocked@C_SPRITE_PACK@@QAEXHHG@Z ; C_SPRITE_PACK::BltLocked

; 302  : 	
; 303  : }

  0011f	8d 4c 24 10	 lea	 ecx, DWORD PTR _rect$[esp+44]
  00123	c7 44 24 28 ff
	ff ff ff	 mov	 DWORD PTR __$EHRec$[esp+52], -1
  0012b	e8 00 00 00 00	 call	 ??1Rect@@QAE@XZ		; Rect::~Rect
  00130	8b 4c 24 20	 mov	 ecx, DWORD PTR __$EHRec$[esp+44]
  00134	5f		 pop	 edi
  00135	5e		 pop	 esi
  00136	5d		 pop	 ebp
  00137	5b		 pop	 ebx
  00138	64 89 0d 00 00
	00 00		 mov	 DWORD PTR fs:__except_list, ecx
  0013f	83 c4 1c	 add	 esp, 28			; 0000001cH
  00142	c2 10 00	 ret	 16			; 00000010H
_TEXT	ENDS
;	COMDAT text$x
text$x	SEGMENT
$L93626:
  00000	8d 4d e4	 lea	 ecx, DWORD PTR _rect$[ebp]
  00003	e9 00 00 00 00	 jmp	 ??1Rect@@QAE@XZ		; Rect::~Rect
__ehhandler$?DrawInBoxLocked@C_GLOBAL_RESOURCE@@QAEXHHHH@Z:
  00008	b8 00 00 00 00	 mov	 eax, OFFSET FLAT:$T93628
  0000d	e9 00 00 00 00	 jmp	 ___CxxFrameHandler
text$x	ENDS
?DrawInBoxLocked@C_GLOBAL_RESOURCE@@QAEXHHHH@Z ENDP	; C_GLOBAL_RESOURCE::DrawInBoxLocked
PUBLIC	?DrawDialogLocked@C_GLOBAL_RESOURCE@@QAEXHHHH_N@Z ; C_GLOBAL_RESOURCE::DrawDialogLocked
;	COMDAT xdata$x
xdata$x	SEGMENT
$T93640	DD	0ffffffffH
	DD	FLAT:$L93636
$T93638	DD	019930520H
	DD	01H
	DD	FLAT:$T93640
	DD	2 DUP(00H)
	DD	2 DUP(00H)
; Function compile flags: /Ogty
xdata$x	ENDS
;	COMDAT ?DrawDialogLocked@C_GLOBAL_RESOURCE@@QAEXHHHH_N@Z
_TEXT	SEGMENT
_rect$ = -28						; size = 16
__$EHRec$ = -12						; size = 12
_x$ = 8							; size = 4
_y$ = 12						; size = 4
_w$ = 16						; size = 4
_h$ = 20						; size = 4
_alpha$ = 24						; size = 1
?DrawDialogLocked@C_GLOBAL_RESOURCE@@QAEXHHHH_N@Z PROC NEAR ; C_GLOBAL_RESOURCE::DrawDialogLocked, COMDAT
; _this$ = ecx

; 326  : {

  00000	6a ff		 push	 -1
  00002	68 00 00 00 00	 push	 __ehhandler$?DrawDialogLocked@C_GLOBAL_RESOURCE@@QAEXHHHH_N@Z
  00007	64 a1 00 00 00
	00		 mov	 eax, DWORD PTR fs:__except_list
  0000d	50		 push	 eax
  0000e	64 89 25 00 00
	00 00		 mov	 DWORD PTR fs:__except_list, esp
  00015	83 ec 10	 sub	 esp, 16			; 00000010H
  00018	53		 push	 ebx
  00019	55		 push	 ebp
  0001a	56		 push	 esi
  0001b	8b f1		 mov	 esi, ecx
  0001d	57		 push	 edi

; 327  : 	Rect rect;

  0001e	8d 4c 24 10	 lea	 ecx, DWORD PTR _rect$[esp+44]
  00022	e8 00 00 00 00	 call	 ??0Rect@@QAE@XZ		; Rect::Rect

; 328  : 
; 329  : 	rect.Set(0, 0, w, h);

  00027	8b 5c 24 3c	 mov	 ebx, DWORD PTR _h$[esp+40]
  0002b	8b 6c 24 38	 mov	 ebp, DWORD PTR _w$[esp+40]
  0002f	53		 push	 ebx
  00030	55		 push	 ebp
  00031	6a 00		 push	 0
  00033	6a 00		 push	 0
  00035	8d 4c 24 20	 lea	 ecx, DWORD PTR _rect$[esp+60]
  00039	c7 44 24 38 00
	00 00 00	 mov	 DWORD PTR __$EHRec$[esp+68], 0
  00041	e8 00 00 00 00	 call	 ?Set@Rect@@QAEXHHHH@Z	; Rect::Set

; 330  : 	//if(g_eRaceInterface == RACE_OUSTERS)
; 331  : 	//{
; 332  : 	//	rect.w -= 12;
; 333  : 	//	rect.h -= 10;
; 334  : 	//}
; 335  : 	//if(alpha)
; 336  : 	//{
; 337  : 	//	RECT alpha_rect;
; 338  : 	//	switch(g_eRaceInterface)
; 339  : 	//	{
; 340  : 	//	case RACE_SLAYER:
; 341  : 	//		SetRect(&alpha_rect, x+5, y+12, x+rect.w-4, y+rect.h-10);
; 342  : 	//		DrawAlphaBox(&alpha_rect, 0, 2, 2, g_pUserOption->ALPHA_DEPTH);
; 343  : 	//		break;
; 344  : 
; 345  : 	//	case RACE_VAMPIRE:
; 346  : 	//		SetRect(&alpha_rect, x+10, y+9, x+rect.w-7, y+rect.h-8);
; 347  : 	//		DrawAlphaBox(&alpha_rect, 2, 0, 0, g_pUserOption->ALPHA_DEPTH);
; 348  : 	//		break;
; 349  : 
; 350  : 	//	case RACE_OUSTERS:
; 351  : 	//		SetRect(&alpha_rect, x+14, y+13, x+rect.w-3, y+rect.h-3);
; 352  : 	//		DrawAlphaBox(&alpha_rect, 0, 4, 0, g_pUserOption->ALPHA_DEPTH);
; 353  : 	//		break;			
; 354  : 	//	}
; 355  : 	//	m_pC_assemble_box_spk->BltLockedClip(x, y, rect, C_GLOBAL_RESOURCE::AB_BACK_ALPHA);
; 356  : 	//}
; 357  : 	//else
; 358  : 	//{
; 359  : 		m_pC_assemble_box_spk->BltLockedClip(x, y, rect, AB_BACK);

  00046	8b 4c 24 34	 mov	 ecx, DWORD PTR _y$[esp+40]
  0004a	8b 7c 24 30	 mov	 edi, DWORD PTR _x$[esp+40]
  0004e	6a 00		 push	 0
  00050	8d 44 24 14	 lea	 eax, DWORD PTR _rect$[esp+48]
  00054	50		 push	 eax
  00055	51		 push	 ecx
  00056	8b 0e		 mov	 ecx, DWORD PTR [esi]
  00058	57		 push	 edi
  00059	e8 00 00 00 00	 call	 ?BltLockedClip@C_SPRITE_PACK@@QAEXHHAAVRect@@G@Z ; C_SPRITE_PACK::BltLockedClip

; 360  : 	//}
; 361  : 	//OutputDebugString("party 3.004\n");
; 362  : 	rect.Set(0, 0, m_pC_assemble_box_spk->GetWidth(AB_RIGHT), h);

  0005e	8b 0e		 mov	 ecx, DWORD PTR [esi]
  00060	53		 push	 ebx
  00061	6a 02		 push	 2
  00063	e8 00 00 00 00	 call	 ?GetWidth@C_SPRITE_PACK@@QAEHG@Z ; C_SPRITE_PACK::GetWidth
  00068	50		 push	 eax
  00069	6a 00		 push	 0
  0006b	6a 00		 push	 0
  0006d	8d 4c 24 20	 lea	 ecx, DWORD PTR _rect$[esp+60]
  00071	e8 00 00 00 00	 call	 ?Set@Rect@@QAEXHHHH@Z	; Rect::Set

; 363  : 	m_pC_assemble_box_spk->BltLockedClip(x+w-m_pC_assemble_box_spk->GetWidth(AB_RIGHT), y, rect, AB_RIGHT);

  00076	8b 44 24 34	 mov	 eax, DWORD PTR _y$[esp+40]
  0007a	8b 0e		 mov	 ecx, DWORD PTR [esi]
  0007c	6a 02		 push	 2
  0007e	8d 54 24 14	 lea	 edx, DWORD PTR _rect$[esp+48]
  00082	52		 push	 edx
  00083	50		 push	 eax
  00084	6a 02		 push	 2
  00086	03 fd		 add	 edi, ebp
  00088	e8 00 00 00 00	 call	 ?GetWidth@C_SPRITE_PACK@@QAEHG@Z ; C_SPRITE_PACK::GetWidth
  0008d	8b cf		 mov	 ecx, edi
  0008f	2b c8		 sub	 ecx, eax
  00091	51		 push	 ecx
  00092	8b 0e		 mov	 ecx, DWORD PTR [esi]
  00094	e8 00 00 00 00	 call	 ?BltLockedClip@C_SPRITE_PACK@@QAEXHHAAVRect@@G@Z ; C_SPRITE_PACK::BltLockedClip

; 364  : 	//OutputDebugString("party 3.005\n");
; 365  : 	rect.Set(0, 0, w, m_pC_assemble_box_spk->GetHeight(AB_DOWN));

  00099	8b 0e		 mov	 ecx, DWORD PTR [esi]
  0009b	6a 03		 push	 3
  0009d	e8 00 00 00 00	 call	 ?GetHeight@C_SPRITE_PACK@@QAEHG@Z ; C_SPRITE_PACK::GetHeight
  000a2	50		 push	 eax
  000a3	55		 push	 ebp
  000a4	6a 00		 push	 0
  000a6	6a 00		 push	 0
  000a8	8d 4c 24 20	 lea	 ecx, DWORD PTR _rect$[esp+60]
  000ac	e8 00 00 00 00	 call	 ?Set@Rect@@QAEXHHHH@Z	; Rect::Set

; 366  : 	m_pC_assemble_box_spk->BltLockedClip(x, y+h-m_pC_assemble_box_spk->GetHeight(AB_DOWN), rect, AB_DOWN);

  000b1	8b 54 24 34	 mov	 edx, DWORD PTR _y$[esp+40]
  000b5	8b 0e		 mov	 ecx, DWORD PTR [esi]
  000b7	6a 03		 push	 3
  000b9	8d 44 24 14	 lea	 eax, DWORD PTR _rect$[esp+48]
  000bd	50		 push	 eax
  000be	6a 03		 push	 3
  000c0	03 da		 add	 ebx, edx
  000c2	e8 00 00 00 00	 call	 ?GetHeight@C_SPRITE_PACK@@QAEHG@Z ; C_SPRITE_PACK::GetHeight
  000c7	8b 54 24 38	 mov	 edx, DWORD PTR _x$[esp+48]
  000cb	8b cb		 mov	 ecx, ebx
  000cd	2b c8		 sub	 ecx, eax
  000cf	51		 push	 ecx
  000d0	8b 0e		 mov	 ecx, DWORD PTR [esi]
  000d2	52		 push	 edx
  000d3	e8 00 00 00 00	 call	 ?BltLockedClip@C_SPRITE_PACK@@QAEXHHAAVRect@@G@Z ; C_SPRITE_PACK::BltLockedClip

; 367  : 	//OutputDebugString("party 3.006\n");
; 368  : 	m_pC_assemble_box_spk->BltLocked(x+w-m_pC_assemble_box_spk->GetWidth(AB_RIGHTDOWN), y+h-m_pC_assemble_box_spk->GetHeight(AB_RIGHTDOWN), AB_RIGHTDOWN);

  000d8	8b 0e		 mov	 ecx, DWORD PTR [esi]
  000da	6a 04		 push	 4
  000dc	6a 04		 push	 4
  000de	e8 00 00 00 00	 call	 ?GetHeight@C_SPRITE_PACK@@QAEHG@Z ; C_SPRITE_PACK::GetHeight
  000e3	8b 0e		 mov	 ecx, DWORD PTR [esi]
  000e5	2b d8		 sub	 ebx, eax
  000e7	53		 push	 ebx
  000e8	6a 04		 push	 4
  000ea	e8 00 00 00 00	 call	 ?GetWidth@C_SPRITE_PACK@@QAEHG@Z ; C_SPRITE_PACK::GetWidth
  000ef	8b 0e		 mov	 ecx, DWORD PTR [esi]
  000f1	2b f8		 sub	 edi, eax
  000f3	57		 push	 edi
  000f4	e8 00 00 00 00	 call	 ?BltLocked@C_SPRITE_PACK@@QAEXHHG@Z ; C_SPRITE_PACK::BltLocked

; 369  : 
; 370  : }

  000f9	8d 4c 24 10	 lea	 ecx, DWORD PTR _rect$[esp+44]
  000fd	c7 44 24 28 ff
	ff ff ff	 mov	 DWORD PTR __$EHRec$[esp+52], -1
  00105	e8 00 00 00 00	 call	 ??1Rect@@QAE@XZ		; Rect::~Rect
  0010a	8b 4c 24 20	 mov	 ecx, DWORD PTR __$EHRec$[esp+44]
  0010e	5f		 pop	 edi
  0010f	5e		 pop	 esi
  00110	5d		 pop	 ebp
  00111	5b		 pop	 ebx
  00112	64 89 0d 00 00
	00 00		 mov	 DWORD PTR fs:__except_list, ecx
  00119	83 c4 1c	 add	 esp, 28			; 0000001cH
  0011c	c2 14 00	 ret	 20			; 00000014H
_TEXT	ENDS
;	COMDAT text$x
text$x	SEGMENT
$L93636:
  00000	8d 4d e4	 lea	 ecx, DWORD PTR _rect$[ebp]
  00003	e9 00 00 00 00	 jmp	 ??1Rect@@QAE@XZ		; Rect::~Rect
__ehhandler$?DrawDialogLocked@C_GLOBAL_RESOURCE@@QAEXHHHH_N@Z:
  00008	b8 00 00 00 00	 mov	 eax, OFFSET FLAT:$T93638
  0000d	e9 00 00 00 00	 jmp	 ___CxxFrameHandler
text$x	ENDS
?DrawDialogLocked@C_GLOBAL_RESOURCE@@QAEXHHHH_N@Z ENDP	; C_GLOBAL_RESOURCE::DrawDialogLocked
PUBLIC	?DrawNPCLocked@C_GLOBAL_RESOURCE@@QAEXHHHH_N@Z	; C_GLOBAL_RESOURCE::DrawNPCLocked
;	COMDAT xdata$x
xdata$x	SEGMENT
$T93650	DD	0ffffffffH
	DD	FLAT:$L93646
$T93648	DD	019930520H
	DD	01H
	DD	FLAT:$T93650
	DD	2 DUP(00H)
	DD	2 DUP(00H)
; Function compile flags: /Ogty
xdata$x	ENDS
;	COMDAT ?DrawNPCLocked@C_GLOBAL_RESOURCE@@QAEXHHHH_N@Z
_TEXT	SEGMENT
_rect$ = -28						; size = 16
__$EHRec$ = -12						; size = 12
_x$ = 8							; size = 4
_y$ = 12						; size = 4
_w$ = 16						; size = 4
_h$ = 20						; size = 4
_alpha$ = 24						; size = 1
?DrawNPCLocked@C_GLOBAL_RESOURCE@@QAEXHHHH_N@Z PROC NEAR ; C_GLOBAL_RESOURCE::DrawNPCLocked, COMDAT
; _this$ = ecx

; 394  : {

  00000	6a ff		 push	 -1
  00002	68 00 00 00 00	 push	 __ehhandler$?DrawNPCLocked@C_GLOBAL_RESOURCE@@QAEXHHHH_N@Z
  00007	64 a1 00 00 00
	00		 mov	 eax, DWORD PTR fs:__except_list
  0000d	50		 push	 eax
  0000e	64 89 25 00 00
	00 00		 mov	 DWORD PTR fs:__except_list, esp
  00015	83 ec 10	 sub	 esp, 16			; 00000010H
  00018	56		 push	 esi
  00019	8b f1		 mov	 esi, ecx

; 395  : 	Rect rect;

  0001b	8d 4c 24 04	 lea	 ecx, DWORD PTR _rect$[esp+32]
  0001f	e8 00 00 00 00	 call	 ??0Rect@@QAE@XZ		; Rect::Rect

; 396  : 	m_New_NpcDialog_spk->BltLocked(x, y, AB_BACK);

  00024	8b 44 24 28	 mov	 eax, DWORD PTR _y$[esp+28]
  00028	8b 4c 24 24	 mov	 ecx, DWORD PTR _x$[esp+28]
  0002c	6a 00		 push	 0
  0002e	50		 push	 eax
  0002f	51		 push	 ecx
  00030	8b 4e 18	 mov	 ecx, DWORD PTR [esi+24]
  00033	c7 44 24 28 00
	00 00 00	 mov	 DWORD PTR __$EHRec$[esp+52], 0
  0003b	e8 00 00 00 00	 call	 ?BltLocked@C_SPRITE_PACK@@QAEXHHG@Z ; C_SPRITE_PACK::BltLocked

; 397  : }

  00040	8d 4c 24 04	 lea	 ecx, DWORD PTR _rect$[esp+32]
  00044	c7 44 24 1c ff
	ff ff ff	 mov	 DWORD PTR __$EHRec$[esp+40], -1
  0004c	e8 00 00 00 00	 call	 ??1Rect@@QAE@XZ		; Rect::~Rect
  00051	8b 4c 24 14	 mov	 ecx, DWORD PTR __$EHRec$[esp+32]
  00055	5e		 pop	 esi
  00056	64 89 0d 00 00
	00 00		 mov	 DWORD PTR fs:__except_list, ecx
  0005d	83 c4 1c	 add	 esp, 28			; 0000001cH
  00060	c2 14 00	 ret	 20			; 00000014H
_TEXT	ENDS
;	COMDAT text$x
text$x	SEGMENT
$L93646:
  00000	8d 4d e4	 lea	 ecx, DWORD PTR _rect$[ebp]
  00003	e9 00 00 00 00	 jmp	 ??1Rect@@QAE@XZ		; Rect::~Rect
__ehhandler$?DrawNPCLocked@C_GLOBAL_RESOURCE@@QAEXHHHH_N@Z:
  00008	b8 00 00 00 00	 mov	 eax, OFFSET FLAT:$T93648
  0000d	e9 00 00 00 00	 jmp	 ___CxxFrameHandler
text$x	ENDS
?DrawNPCLocked@C_GLOBAL_RESOURCE@@QAEXHHHH_N@Z ENDP	; C_GLOBAL_RESOURCE::DrawNPCLocked
PUBLIC	?DrawDialogOnlyLocked@C_GLOBAL_RESOURCE@@QAEXHHHH@Z ; C_GLOBAL_RESOURCE::DrawDialogOnlyLocked
;	COMDAT xdata$x
xdata$x	SEGMENT
$T93660	DD	0ffffffffH
	DD	FLAT:$L93656
$T93658	DD	019930520H
	DD	01H
	DD	FLAT:$T93660
	DD	2 DUP(00H)
	DD	2 DUP(00H)
; Function compile flags: /Ogty
xdata$x	ENDS
;	COMDAT ?DrawDialogOnlyLocked@C_GLOBAL_RESOURCE@@QAEXHHHH@Z
_TEXT	SEGMENT
_rect$ = -28						; size = 16
__$EHRec$ = -12						; size = 12
_x$ = 8							; size = 4
_y$ = 12						; size = 4
_w$ = 16						; size = 4
_h$ = 20						; size = 4
?DrawDialogOnlyLocked@C_GLOBAL_RESOURCE@@QAEXHHHH@Z PROC NEAR ; C_GLOBAL_RESOURCE::DrawDialogOnlyLocked, COMDAT
; _this$ = ecx

; 420  : {

  00000	6a ff		 push	 -1
  00002	68 00 00 00 00	 push	 __ehhandler$?DrawDialogOnlyLocked@C_GLOBAL_RESOURCE@@QAEXHHHH@Z
  00007	64 a1 00 00 00
	00		 mov	 eax, DWORD PTR fs:__except_list
  0000d	50		 push	 eax
  0000e	64 89 25 00 00
	00 00		 mov	 DWORD PTR fs:__except_list, esp
  00015	83 ec 10	 sub	 esp, 16			; 00000010H
  00018	53		 push	 ebx
  00019	55		 push	 ebp
  0001a	56		 push	 esi
  0001b	8b f1		 mov	 esi, ecx
  0001d	57		 push	 edi

; 421  : 	Rect rect;

  0001e	8d 4c 24 10	 lea	 ecx, DWORD PTR _rect$[esp+44]
  00022	e8 00 00 00 00	 call	 ??0Rect@@QAE@XZ		; Rect::Rect

; 422  : 
; 423  : 	rect.Set(0, 0, w, h);

  00027	8b 5c 24 3c	 mov	 ebx, DWORD PTR _h$[esp+40]
  0002b	8b 6c 24 38	 mov	 ebp, DWORD PTR _w$[esp+40]
  0002f	53		 push	 ebx
  00030	55		 push	 ebp
  00031	6a 00		 push	 0
  00033	6a 00		 push	 0
  00035	8d 4c 24 20	 lea	 ecx, DWORD PTR _rect$[esp+60]
  00039	c7 44 24 38 00
	00 00 00	 mov	 DWORD PTR __$EHRec$[esp+68], 0
  00041	e8 00 00 00 00	 call	 ?Set@Rect@@QAEXHHHH@Z	; Rect::Set

; 424  : 
; 425  : 	m_pC_assemble_box_spk->BltLockedClip(x, y, rect, C_GLOBAL_RESOURCE::AB_BACK_ALPHA);

  00046	8b 4c 24 34	 mov	 ecx, DWORD PTR _y$[esp+40]
  0004a	8b 7c 24 30	 mov	 edi, DWORD PTR _x$[esp+40]
  0004e	6a 01		 push	 1
  00050	8d 44 24 14	 lea	 eax, DWORD PTR _rect$[esp+48]
  00054	50		 push	 eax
  00055	51		 push	 ecx
  00056	8b 0e		 mov	 ecx, DWORD PTR [esi]
  00058	57		 push	 edi
  00059	e8 00 00 00 00	 call	 ?BltLockedClip@C_SPRITE_PACK@@QAEXHHAAVRect@@G@Z ; C_SPRITE_PACK::BltLockedClip

; 426  : 
; 427  : 	rect.Set(0, 0, m_pC_assemble_box_spk->GetWidth(AB_RIGHT), h);

  0005e	8b 0e		 mov	 ecx, DWORD PTR [esi]
  00060	53		 push	 ebx
  00061	6a 02		 push	 2
  00063	e8 00 00 00 00	 call	 ?GetWidth@C_SPRITE_PACK@@QAEHG@Z ; C_SPRITE_PACK::GetWidth
  00068	50		 push	 eax
  00069	6a 00		 push	 0
  0006b	6a 00		 push	 0
  0006d	8d 4c 24 20	 lea	 ecx, DWORD PTR _rect$[esp+60]
  00071	e8 00 00 00 00	 call	 ?Set@Rect@@QAEXHHHH@Z	; Rect::Set

; 428  : 	m_pC_assemble_box_spk->BltLockedClip(x+w-m_pC_assemble_box_spk->GetWidth(AB_RIGHT), y, rect, AB_RIGHT);

  00076	8b 44 24 34	 mov	 eax, DWORD PTR _y$[esp+40]
  0007a	8b 0e		 mov	 ecx, DWORD PTR [esi]
  0007c	6a 02		 push	 2
  0007e	8d 54 24 14	 lea	 edx, DWORD PTR _rect$[esp+48]
  00082	52		 push	 edx
  00083	50		 push	 eax
  00084	6a 02		 push	 2
  00086	03 fd		 add	 edi, ebp
  00088	e8 00 00 00 00	 call	 ?GetWidth@C_SPRITE_PACK@@QAEHG@Z ; C_SPRITE_PACK::GetWidth
  0008d	8b cf		 mov	 ecx, edi
  0008f	2b c8		 sub	 ecx, eax
  00091	51		 push	 ecx
  00092	8b 0e		 mov	 ecx, DWORD PTR [esi]
  00094	e8 00 00 00 00	 call	 ?BltLockedClip@C_SPRITE_PACK@@QAEXHHAAVRect@@G@Z ; C_SPRITE_PACK::BltLockedClip

; 429  : 
; 430  : 	rect.Set(0, 0, w, m_pC_assemble_box_spk->GetHeight(AB_DOWN));

  00099	8b 0e		 mov	 ecx, DWORD PTR [esi]
  0009b	6a 03		 push	 3
  0009d	e8 00 00 00 00	 call	 ?GetHeight@C_SPRITE_PACK@@QAEHG@Z ; C_SPRITE_PACK::GetHeight
  000a2	50		 push	 eax
  000a3	55		 push	 ebp
  000a4	6a 00		 push	 0
  000a6	6a 00		 push	 0
  000a8	8d 4c 24 20	 lea	 ecx, DWORD PTR _rect$[esp+60]
  000ac	e8 00 00 00 00	 call	 ?Set@Rect@@QAEXHHHH@Z	; Rect::Set

; 431  : 	m_pC_assemble_box_spk->BltLockedClip(x, y+h-m_pC_assemble_box_spk->GetHeight(AB_DOWN), rect, AB_DOWN);

  000b1	8b 54 24 34	 mov	 edx, DWORD PTR _y$[esp+40]
  000b5	8b 0e		 mov	 ecx, DWORD PTR [esi]
  000b7	6a 03		 push	 3
  000b9	8d 44 24 14	 lea	 eax, DWORD PTR _rect$[esp+48]
  000bd	50		 push	 eax
  000be	6a 03		 push	 3
  000c0	03 da		 add	 ebx, edx
  000c2	e8 00 00 00 00	 call	 ?GetHeight@C_SPRITE_PACK@@QAEHG@Z ; C_SPRITE_PACK::GetHeight
  000c7	8b 54 24 38	 mov	 edx, DWORD PTR _x$[esp+48]
  000cb	8b cb		 mov	 ecx, ebx
  000cd	2b c8		 sub	 ecx, eax
  000cf	51		 push	 ecx
  000d0	8b 0e		 mov	 ecx, DWORD PTR [esi]
  000d2	52		 push	 edx
  000d3	e8 00 00 00 00	 call	 ?BltLockedClip@C_SPRITE_PACK@@QAEXHHAAVRect@@G@Z ; C_SPRITE_PACK::BltLockedClip

; 432  : 
; 433  : 	m_pC_assemble_box_spk->BltLocked(x+w-m_pC_assemble_box_spk->GetWidth(AB_RIGHTDOWN), y+h-m_pC_assemble_box_spk->GetHeight(AB_RIGHTDOWN), AB_RIGHTDOWN);

  000d8	8b 0e		 mov	 ecx, DWORD PTR [esi]
  000da	6a 04		 push	 4
  000dc	6a 04		 push	 4
  000de	e8 00 00 00 00	 call	 ?GetHeight@C_SPRITE_PACK@@QAEHG@Z ; C_SPRITE_PACK::GetHeight
  000e3	8b 0e		 mov	 ecx, DWORD PTR [esi]
  000e5	2b d8		 sub	 ebx, eax
  000e7	53		 push	 ebx
  000e8	6a 04		 push	 4
  000ea	e8 00 00 00 00	 call	 ?GetWidth@C_SPRITE_PACK@@QAEHG@Z ; C_SPRITE_PACK::GetWidth
  000ef	8b 0e		 mov	 ecx, DWORD PTR [esi]
  000f1	2b f8		 sub	 edi, eax
  000f3	57		 push	 edi
  000f4	e8 00 00 00 00	 call	 ?BltLocked@C_SPRITE_PACK@@QAEXHHG@Z ; C_SPRITE_PACK::BltLocked

; 434  : 
; 435  : }

  000f9	8d 4c 24 10	 lea	 ecx, DWORD PTR _rect$[esp+44]
  000fd	c7 44 24 28 ff
	ff ff ff	 mov	 DWORD PTR __$EHRec$[esp+52], -1
  00105	e8 00 00 00 00	 call	 ??1Rect@@QAE@XZ		; Rect::~Rect
  0010a	8b 4c 24 20	 mov	 ecx, DWORD PTR __$EHRec$[esp+44]
  0010e	5f		 pop	 edi
  0010f	5e		 pop	 esi
  00110	5d		 pop	 ebp
  00111	5b		 pop	 ebx
  00112	64 89 0d 00 00
	00 00		 mov	 DWORD PTR fs:__except_list, ecx
  00119	83 c4 1c	 add	 esp, 28			; 0000001cH
  0011c	c2 10 00	 ret	 16			; 00000010H
_TEXT	ENDS
;	COMDAT text$x
text$x	SEGMENT
$L93656:
  00000	8d 4d e4	 lea	 ecx, DWORD PTR _rect$[ebp]
  00003	e9 00 00 00 00	 jmp	 ??1Rect@@QAE@XZ		; Rect::~Rect
__ehhandler$?DrawDialogOnlyLocked@C_GLOBAL_RESOURCE@@QAEXHHHH@Z:
  00008	b8 00 00 00 00	 mov	 eax, OFFSET FLAT:$T93658
  0000d	e9 00 00 00 00	 jmp	 ___CxxFrameHandler
text$x	ENDS
?DrawDialogOnlyLocked@C_GLOBAL_RESOURCE@@QAEXHHHH@Z ENDP ; C_GLOBAL_RESOURCE::DrawDialogOnlyLocked
PUBLIC	?DrawDialogLocked2@C_GLOBAL_RESOURCE@@QAEXHHHH_N@Z ; C_GLOBAL_RESOURCE::DrawDialogLocked2
EXTRN	?g_eRaceInterface@@3W4Race@@A:DWORD		; g_eRaceInterface
;	COMDAT xdata$x
xdata$x	SEGMENT
$T93671	DD	0ffffffffH
	DD	FLAT:$L93666
$T93668	DD	019930520H
	DD	01H
	DD	FLAT:$T93671
	DD	2 DUP(00H)
	DD	2 DUP(00H)
; Function compile flags: /Ogty
xdata$x	ENDS
;	COMDAT ?DrawDialogLocked2@C_GLOBAL_RESOURCE@@QAEXHHHH_N@Z
_TEXT	SEGMENT
_rect$ = -28						; size = 16
__$EHRec$ = -12						; size = 12
_x$ = 8							; size = 4
_y$ = 12						; size = 4
_w$ = 16						; size = 4
_h$ = 20						; size = 4
_alpha$ = 24						; size = 1
?DrawDialogLocked2@C_GLOBAL_RESOURCE@@QAEXHHHH_N@Z PROC NEAR ; C_GLOBAL_RESOURCE::DrawDialogLocked2, COMDAT
; _this$ = ecx

; 461  : {

  00000	6a ff		 push	 -1
  00002	68 00 00 00 00	 push	 __ehhandler$?DrawDialogLocked2@C_GLOBAL_RESOURCE@@QAEXHHHH_N@Z
  00007	64 a1 00 00 00
	00		 mov	 eax, DWORD PTR fs:__except_list
  0000d	50		 push	 eax
  0000e	64 89 25 00 00
	00 00		 mov	 DWORD PTR fs:__except_list, esp
  00015	83 ec 10	 sub	 esp, 16			; 00000010H
  00018	53		 push	 ebx
  00019	55		 push	 ebp
  0001a	56		 push	 esi
  0001b	8b f1		 mov	 esi, ecx
  0001d	57		 push	 edi

; 462  : 	Rect rect;

  0001e	8d 4c 24 10	 lea	 ecx, DWORD PTR _rect$[esp+44]
  00022	e8 00 00 00 00	 call	 ??0Rect@@QAE@XZ		; Rect::Rect

; 463  : 
; 464  : 	rect.Set(0, 0, w, h);

  00027	8b 5c 24 3c	 mov	 ebx, DWORD PTR _h$[esp+40]
  0002b	8b 6c 24 38	 mov	 ebp, DWORD PTR _w$[esp+40]
  0002f	53		 push	 ebx
  00030	55		 push	 ebp
  00031	6a 00		 push	 0
  00033	6a 00		 push	 0
  00035	8d 4c 24 20	 lea	 ecx, DWORD PTR _rect$[esp+60]
  00039	c7 44 24 38 00
	00 00 00	 mov	 DWORD PTR __$EHRec$[esp+68], 0
  00041	e8 00 00 00 00	 call	 ?Set@Rect@@QAEXHHHH@Z	; Rect::Set

; 465  : 	//if(alpha)
; 466  : 	//{
; 467  : 	//	RECT alpha_rect;
; 468  : 	//	switch(g_eRaceInterface)
; 469  : 	//	{
; 470  : 	//	case RACE_SLAYER:
; 471  : 	//		SetRect(&alpha_rect, x+2, y+2, x+rect.w-2, y+rect.h-7);
; 472  : 	//		DrawAlphaBox(&alpha_rect, 0, 2, 2, g_pUserOption->ALPHA_DEPTH);
; 473  : 	//		break;
; 474  : 
; 475  : 	//	case RACE_VAMPIRE:
; 476  : 	//		SetRect(&alpha_rect, x+2, y+2, x+rect.w-2, y+rect.h-7);
; 477  : 	//		DrawAlphaBox(&alpha_rect, 2, 0, 0, g_pUserOption->ALPHA_DEPTH);
; 478  : 	//		break;
; 479  : 
; 480  : 	//	case RACE_OUSTERS:
; 481  : 	//		SetRect(&alpha_rect, x+2, y+2, x+rect.w-2, y+rect.h-7);
; 482  : 	//		DrawAlphaBox(&alpha_rect, 2, 0, 0, g_pUserOption->ALPHA_DEPTH);
; 483  : 	//		break;
; 484  : 	//	}		
; 485  : 	//	m_pC_assemble_box_spk->BltLockedClip(x, y, rect, C_GLOBAL_RESOURCE::AB_BACK_ALPHA2);
; 486  : 	//}
; 487  : 	//else
; 488  : 	//{
; 489  : 		m_pC_assemble_box_spk->BltLockedClip(x, y, rect, AB_BACK2);

  00046	8b 4c 24 34	 mov	 ecx, DWORD PTR _y$[esp+40]
  0004a	8b 7c 24 30	 mov	 edi, DWORD PTR _x$[esp+40]
  0004e	6a 05		 push	 5
  00050	8d 44 24 14	 lea	 eax, DWORD PTR _rect$[esp+48]
  00054	50		 push	 eax
  00055	51		 push	 ecx
  00056	8b 0e		 mov	 ecx, DWORD PTR [esi]
  00058	57		 push	 edi
  00059	e8 00 00 00 00	 call	 ?BltLockedClip@C_SPRITE_PACK@@QAEXHHAAVRect@@G@Z ; C_SPRITE_PACK::BltLockedClip

; 490  : //	}
; 491  : 
; 492  : 	rect.Set(0, 0, m_pC_assemble_box_spk->GetWidth(AB_RIGHT2), h);

  0005e	8b 0e		 mov	 ecx, DWORD PTR [esi]
  00060	53		 push	 ebx
  00061	6a 07		 push	 7
  00063	e8 00 00 00 00	 call	 ?GetWidth@C_SPRITE_PACK@@QAEHG@Z ; C_SPRITE_PACK::GetWidth
  00068	50		 push	 eax
  00069	6a 00		 push	 0
  0006b	6a 00		 push	 0
  0006d	8d 4c 24 20	 lea	 ecx, DWORD PTR _rect$[esp+60]
  00071	e8 00 00 00 00	 call	 ?Set@Rect@@QAEXHHHH@Z	; Rect::Set

; 493  : 	m_pC_assemble_box_spk->BltLockedClip(x+w-m_pC_assemble_box_spk->GetWidth(AB_RIGHT2), y, rect, AB_RIGHT2);

  00076	8b 44 24 34	 mov	 eax, DWORD PTR _y$[esp+40]
  0007a	8b 0e		 mov	 ecx, DWORD PTR [esi]
  0007c	6a 07		 push	 7
  0007e	8d 54 24 14	 lea	 edx, DWORD PTR _rect$[esp+48]
  00082	52		 push	 edx
  00083	50		 push	 eax
  00084	6a 07		 push	 7
  00086	03 fd		 add	 edi, ebp
  00088	e8 00 00 00 00	 call	 ?GetWidth@C_SPRITE_PACK@@QAEHG@Z ; C_SPRITE_PACK::GetWidth
  0008d	8b cf		 mov	 ecx, edi
  0008f	2b c8		 sub	 ecx, eax
  00091	51		 push	 ecx
  00092	8b 0e		 mov	 ecx, DWORD PTR [esi]
  00094	e8 00 00 00 00	 call	 ?BltLockedClip@C_SPRITE_PACK@@QAEXHHAAVRect@@G@Z ; C_SPRITE_PACK::BltLockedClip

; 494  : 
; 495  : 	// Ousters DescDialog    
; 496  : 	if( g_eRaceInterface == RACE_OUSTERS )

  00099	83 3d 00 00 00
	00 02		 cmp	 DWORD PTR ?g_eRaceInterface@@3W4Race@@A, 2 ; g_eRaceInterface

; 497  : 	{
; 498  : 		rect.Set(0, 0, w, m_pC_assemble_box_spk->GetHeight(AB_DOWN2));

  000a0	8b 0e		 mov	 ecx, DWORD PTR [esi]
  000a2	6a 08		 push	 8
  000a4	75 62		 jne	 SHORT $L90326
  000a6	e8 00 00 00 00	 call	 ?GetHeight@C_SPRITE_PACK@@QAEHG@Z ; C_SPRITE_PACK::GetHeight
  000ab	50		 push	 eax
  000ac	55		 push	 ebp
  000ad	6a 00		 push	 0
  000af	6a 00		 push	 0
  000b1	8d 4c 24 20	 lea	 ecx, DWORD PTR _rect$[esp+60]
  000b5	e8 00 00 00 00	 call	 ?Set@Rect@@QAEXHHHH@Z	; Rect::Set

; 499  : 		m_pC_assemble_box_spk->BltLockedClip(x-12, y+11+h-m_pC_assemble_box_spk->GetHeight(AB_DOWN2), rect, AB_DOWN2);

  000ba	8b 54 24 34	 mov	 edx, DWORD PTR _y$[esp+40]
  000be	8b 0e		 mov	 ecx, DWORD PTR [esi]
  000c0	6a 08		 push	 8
  000c2	8d 44 24 14	 lea	 eax, DWORD PTR _rect$[esp+48]
  000c6	50		 push	 eax
  000c7	6a 08		 push	 8
  000c9	03 da		 add	 ebx, edx
  000cb	e8 00 00 00 00	 call	 ?GetHeight@C_SPRITE_PACK@@QAEHG@Z ; C_SPRITE_PACK::GetHeight
  000d0	8b 54 24 38	 mov	 edx, DWORD PTR _x$[esp+48]
  000d4	8b cb		 mov	 ecx, ebx
  000d6	2b c8		 sub	 ecx, eax
  000d8	83 c1 0b	 add	 ecx, 11			; 0000000bH
  000db	51		 push	 ecx
  000dc	8b 0e		 mov	 ecx, DWORD PTR [esi]
  000de	83 c2 f4	 add	 edx, -12		; fffffff4H
  000e1	52		 push	 edx
  000e2	e8 00 00 00 00	 call	 ?BltLockedClip@C_SPRITE_PACK@@QAEXHHAAVRect@@G@Z ; C_SPRITE_PACK::BltLockedClip

; 500  : 
; 501  : 		m_pC_assemble_box_spk->BltLocked(x+13+w-m_pC_assemble_box_spk->GetWidth(AB_RIGHTDOWN2), y+11+h-m_pC_assemble_box_spk->GetHeight(AB_RIGHTDOWN2), AB_RIGHTDOWN2);

  000e7	8b 0e		 mov	 ecx, DWORD PTR [esi]
  000e9	6a 09		 push	 9
  000eb	6a 09		 push	 9
  000ed	e8 00 00 00 00	 call	 ?GetHeight@C_SPRITE_PACK@@QAEHG@Z ; C_SPRITE_PACK::GetHeight
  000f2	8b 0e		 mov	 ecx, DWORD PTR [esi]
  000f4	2b d8		 sub	 ebx, eax
  000f6	83 c3 0b	 add	 ebx, 11			; 0000000bH
  000f9	53		 push	 ebx
  000fa	6a 09		 push	 9
  000fc	e8 00 00 00 00	 call	 ?GetWidth@C_SPRITE_PACK@@QAEHG@Z ; C_SPRITE_PACK::GetWidth
  00101	2b f8		 sub	 edi, eax
  00103	83 c7 0d	 add	 edi, 13			; 0000000dH

; 502  : 	}
; 503  : 	else

  00106	eb 54		 jmp	 SHORT $L93670
$L90326:

; 504  : 	{
; 505  : 		rect.Set(0, 0, w, m_pC_assemble_box_spk->GetHeight(AB_DOWN2));

  00108	e8 00 00 00 00	 call	 ?GetHeight@C_SPRITE_PACK@@QAEHG@Z ; C_SPRITE_PACK::GetHeight
  0010d	50		 push	 eax
  0010e	55		 push	 ebp
  0010f	6a 00		 push	 0
  00111	6a 00		 push	 0
  00113	8d 4c 24 20	 lea	 ecx, DWORD PTR _rect$[esp+60]
  00117	e8 00 00 00 00	 call	 ?Set@Rect@@QAEXHHHH@Z	; Rect::Set

; 506  : 		m_pC_assemble_box_spk->BltLockedClip(x, y+h-m_pC_assemble_box_spk->GetHeight(AB_DOWN2), rect, AB_DOWN2);

  0011c	8b 44 24 34	 mov	 eax, DWORD PTR _y$[esp+40]
  00120	6a 08		 push	 8
  00122	8d 4c 24 14	 lea	 ecx, DWORD PTR _rect$[esp+48]
  00126	51		 push	 ecx
  00127	8b 0e		 mov	 ecx, DWORD PTR [esi]
  00129	6a 08		 push	 8
  0012b	03 d8		 add	 ebx, eax
  0012d	e8 00 00 00 00	 call	 ?GetHeight@C_SPRITE_PACK@@QAEHG@Z ; C_SPRITE_PACK::GetHeight
  00132	8b 0e		 mov	 ecx, DWORD PTR [esi]
  00134	8b d3		 mov	 edx, ebx
  00136	2b d0		 sub	 edx, eax
  00138	8b 44 24 38	 mov	 eax, DWORD PTR _x$[esp+48]
  0013c	52		 push	 edx
  0013d	50		 push	 eax
  0013e	e8 00 00 00 00	 call	 ?BltLockedClip@C_SPRITE_PACK@@QAEXHHAAVRect@@G@Z ; C_SPRITE_PACK::BltLockedClip

; 507  : 
; 508  : 		m_pC_assemble_box_spk->BltLocked(x+w-m_pC_assemble_box_spk->GetWidth(AB_RIGHTDOWN2), y+h-m_pC_assemble_box_spk->GetHeight(AB_RIGHTDOWN2), AB_RIGHTDOWN2);

  00143	8b 0e		 mov	 ecx, DWORD PTR [esi]
  00145	6a 09		 push	 9
  00147	6a 09		 push	 9
  00149	e8 00 00 00 00	 call	 ?GetHeight@C_SPRITE_PACK@@QAEHG@Z ; C_SPRITE_PACK::GetHeight
  0014e	8b 0e		 mov	 ecx, DWORD PTR [esi]
  00150	2b d8		 sub	 ebx, eax
  00152	53		 push	 ebx
  00153	6a 09		 push	 9
  00155	e8 00 00 00 00	 call	 ?GetWidth@C_SPRITE_PACK@@QAEHG@Z ; C_SPRITE_PACK::GetWidth
  0015a	2b f8		 sub	 edi, eax
$L93670:
  0015c	8b 0e		 mov	 ecx, DWORD PTR [esi]
  0015e	57		 push	 edi
  0015f	e8 00 00 00 00	 call	 ?BltLocked@C_SPRITE_PACK@@QAEXHHG@Z ; C_SPRITE_PACK::BltLocked

; 509  : 	}
; 510  : }

  00164	8d 4c 24 10	 lea	 ecx, DWORD PTR _rect$[esp+44]
  00168	c7 44 24 28 ff
	ff ff ff	 mov	 DWORD PTR __$EHRec$[esp+52], -1
  00170	e8 00 00 00 00	 call	 ??1Rect@@QAE@XZ		; Rect::~Rect
  00175	8b 4c 24 20	 mov	 ecx, DWORD PTR __$EHRec$[esp+44]
  00179	5f		 pop	 edi
  0017a	5e		 pop	 esi
  0017b	5d		 pop	 ebp
  0017c	5b		 pop	 ebx
  0017d	64 89 0d 00 00
	00 00		 mov	 DWORD PTR fs:__except_list, ecx
  00184	83 c4 1c	 add	 esp, 28			; 0000001cH
  00187	c2 14 00	 ret	 20			; 00000014H
_TEXT	ENDS
;	COMDAT text$x
text$x	SEGMENT
$L93666:
  00000	8d 4d e4	 lea	 ecx, DWORD PTR _rect$[ebp]
  00003	e9 00 00 00 00	 jmp	 ??1Rect@@QAE@XZ		; Rect::~Rect
__ehhandler$?DrawDialogLocked2@C_GLOBAL_RESOURCE@@QAEXHHHH_N@Z:
  00008	b8 00 00 00 00	 mov	 eax, OFFSET FLAT:$T93668
  0000d	e9 00 00 00 00	 jmp	 ___CxxFrameHandler
text$x	ENDS
?DrawDialogLocked2@C_GLOBAL_RESOURCE@@QAEXHHHH_N@Z ENDP	; C_GLOBAL_RESOURCE::DrawDialogLocked2
PUBLIC	?DrawDialogOnlyLocked2@C_GLOBAL_RESOURCE@@QAEXHHHH@Z ; C_GLOBAL_RESOURCE::DrawDialogOnlyLocked2
;	COMDAT xdata$x
xdata$x	SEGMENT
$T93681	DD	0ffffffffH
	DD	FLAT:$L93677
$T93679	DD	019930520H
	DD	01H
	DD	FLAT:$T93681
	DD	2 DUP(00H)
	DD	2 DUP(00H)
; Function compile flags: /Ogty
xdata$x	ENDS
;	COMDAT ?DrawDialogOnlyLocked2@C_GLOBAL_RESOURCE@@QAEXHHHH@Z
_TEXT	SEGMENT
_rect$ = -28						; size = 16
__$EHRec$ = -12						; size = 12
_x$ = 8							; size = 4
_y$ = 12						; size = 4
_w$ = 16						; size = 4
_h$ = 20						; size = 4
?DrawDialogOnlyLocked2@C_GLOBAL_RESOURCE@@QAEXHHHH@Z PROC NEAR ; C_GLOBAL_RESOURCE::DrawDialogOnlyLocked2, COMDAT
; _this$ = ecx

; 605  : {

  00000	6a ff		 push	 -1
  00002	68 00 00 00 00	 push	 __ehhandler$?DrawDialogOnlyLocked2@C_GLOBAL_RESOURCE@@QAEXHHHH@Z
  00007	64 a1 00 00 00
	00		 mov	 eax, DWORD PTR fs:__except_list
  0000d	50		 push	 eax
  0000e	64 89 25 00 00
	00 00		 mov	 DWORD PTR fs:__except_list, esp
  00015	83 ec 10	 sub	 esp, 16			; 00000010H
  00018	53		 push	 ebx
  00019	55		 push	 ebp
  0001a	56		 push	 esi
  0001b	8b f1		 mov	 esi, ecx
  0001d	57		 push	 edi

; 606  : 	Rect rect;

  0001e	8d 4c 24 10	 lea	 ecx, DWORD PTR _rect$[esp+44]
  00022	e8 00 00 00 00	 call	 ??0Rect@@QAE@XZ		; Rect::Rect

; 607  : 
; 608  : 	rect.Set(0, 0, w, h);

  00027	8b 5c 24 3c	 mov	 ebx, DWORD PTR _h$[esp+40]
  0002b	8b 6c 24 38	 mov	 ebp, DWORD PTR _w$[esp+40]
  0002f	53		 push	 ebx
  00030	55		 push	 ebp
  00031	6a 00		 push	 0
  00033	6a 00		 push	 0
  00035	8d 4c 24 20	 lea	 ecx, DWORD PTR _rect$[esp+60]
  00039	c7 44 24 38 00
	00 00 00	 mov	 DWORD PTR __$EHRec$[esp+68], 0
  00041	e8 00 00 00 00	 call	 ?Set@Rect@@QAEXHHHH@Z	; Rect::Set

; 609  : 
; 610  : 	m_pC_assemble_box_spk->BltLockedClip(x, y, rect, C_GLOBAL_RESOURCE::AB_BACK_ALPHA2);

  00046	8b 4c 24 34	 mov	 ecx, DWORD PTR _y$[esp+40]
  0004a	8b 7c 24 30	 mov	 edi, DWORD PTR _x$[esp+40]
  0004e	6a 06		 push	 6
  00050	8d 44 24 14	 lea	 eax, DWORD PTR _rect$[esp+48]
  00054	50		 push	 eax
  00055	51		 push	 ecx
  00056	8b 0e		 mov	 ecx, DWORD PTR [esi]
  00058	57		 push	 edi
  00059	e8 00 00 00 00	 call	 ?BltLockedClip@C_SPRITE_PACK@@QAEXHHAAVRect@@G@Z ; C_SPRITE_PACK::BltLockedClip

; 611  : 
; 612  : 	rect.Set(0, 0, m_pC_assemble_box_spk->GetWidth(AB_RIGHT2), h);

  0005e	8b 0e		 mov	 ecx, DWORD PTR [esi]
  00060	53		 push	 ebx
  00061	6a 07		 push	 7
  00063	e8 00 00 00 00	 call	 ?GetWidth@C_SPRITE_PACK@@QAEHG@Z ; C_SPRITE_PACK::GetWidth
  00068	50		 push	 eax
  00069	6a 00		 push	 0
  0006b	6a 00		 push	 0
  0006d	8d 4c 24 20	 lea	 ecx, DWORD PTR _rect$[esp+60]
  00071	e8 00 00 00 00	 call	 ?Set@Rect@@QAEXHHHH@Z	; Rect::Set

; 613  : 	m_pC_assemble_box_spk->BltLockedClip(x+w-m_pC_assemble_box_spk->GetWidth(AB_RIGHT2), y, rect, AB_RIGHT2);

  00076	8b 44 24 34	 mov	 eax, DWORD PTR _y$[esp+40]
  0007a	8b 0e		 mov	 ecx, DWORD PTR [esi]
  0007c	6a 07		 push	 7
  0007e	8d 54 24 14	 lea	 edx, DWORD PTR _rect$[esp+48]
  00082	52		 push	 edx
  00083	50		 push	 eax
  00084	6a 07		 push	 7
  00086	03 fd		 add	 edi, ebp
  00088	e8 00 00 00 00	 call	 ?GetWidth@C_SPRITE_PACK@@QAEHG@Z ; C_SPRITE_PACK::GetWidth
  0008d	8b cf		 mov	 ecx, edi
  0008f	2b c8		 sub	 ecx, eax
  00091	51		 push	 ecx
  00092	8b 0e		 mov	 ecx, DWORD PTR [esi]
  00094	e8 00 00 00 00	 call	 ?BltLockedClip@C_SPRITE_PACK@@QAEXHHAAVRect@@G@Z ; C_SPRITE_PACK::BltLockedClip

; 614  : 
; 615  : 	rect.Set(0, 0, w, m_pC_assemble_box_spk->GetHeight(AB_DOWN2));

  00099	8b 0e		 mov	 ecx, DWORD PTR [esi]
  0009b	6a 08		 push	 8
  0009d	e8 00 00 00 00	 call	 ?GetHeight@C_SPRITE_PACK@@QAEHG@Z ; C_SPRITE_PACK::GetHeight
  000a2	50		 push	 eax
  000a3	55		 push	 ebp
  000a4	6a 00		 push	 0
  000a6	6a 00		 push	 0
  000a8	8d 4c 24 20	 lea	 ecx, DWORD PTR _rect$[esp+60]
  000ac	e8 00 00 00 00	 call	 ?Set@Rect@@QAEXHHHH@Z	; Rect::Set

; 616  : 	m_pC_assemble_box_spk->BltLockedClip(x, y+h-m_pC_assemble_box_spk->GetHeight(AB_DOWN2), rect, AB_DOWN2);

  000b1	8b 54 24 34	 mov	 edx, DWORD PTR _y$[esp+40]
  000b5	8b 0e		 mov	 ecx, DWORD PTR [esi]
  000b7	6a 08		 push	 8
  000b9	8d 44 24 14	 lea	 eax, DWORD PTR _rect$[esp+48]
  000bd	50		 push	 eax
  000be	6a 08		 push	 8
  000c0	03 da		 add	 ebx, edx
  000c2	e8 00 00 00 00	 call	 ?GetHeight@C_SPRITE_PACK@@QAEHG@Z ; C_SPRITE_PACK::GetHeight
  000c7	8b 54 24 38	 mov	 edx, DWORD PTR _x$[esp+48]
  000cb	8b cb		 mov	 ecx, ebx
  000cd	2b c8		 sub	 ecx, eax
  000cf	51		 push	 ecx
  000d0	8b 0e		 mov	 ecx, DWORD PTR [esi]
  000d2	52		 push	 edx
  000d3	e8 00 00 00 00	 call	 ?BltLockedClip@C_SPRITE_PACK@@QAEXHHAAVRect@@G@Z ; C_SPRITE_PACK::BltLockedClip

; 617  : 
; 618  : 	m_pC_assemble_box_spk->BltLocked(x+w-m_pC_assemble_box_spk->GetWidth(AB_RIGHTDOWN2), y+h-m_pC_assemble_box_spk->GetHeight(AB_RIGHTDOWN2), AB_RIGHTDOWN2);

  000d8	8b 0e		 mov	 ecx, DWORD PTR [esi]
  000da	6a 09		 push	 9
  000dc	6a 09		 push	 9
  000de	e8 00 00 00 00	 call	 ?GetHeight@C_SPRITE_PACK@@QAEHG@Z ; C_SPRITE_PACK::GetHeight
  000e3	8b 0e		 mov	 ecx, DWORD PTR [esi]
  000e5	2b d8		 sub	 ebx, eax
  000e7	53		 push	 ebx
  000e8	6a 09		 push	 9
  000ea	e8 00 00 00 00	 call	 ?GetWidth@C_SPRITE_PACK@@QAEHG@Z ; C_SPRITE_PACK::GetWidth
  000ef	8b 0e		 mov	 ecx, DWORD PTR [esi]
  000f1	2b f8		 sub	 edi, eax
  000f3	57		 push	 edi
  000f4	e8 00 00 00 00	 call	 ?BltLocked@C_SPRITE_PACK@@QAEXHHG@Z ; C_SPRITE_PACK::BltLocked

; 619  : 
; 620  : }

  000f9	8d 4c 24 10	 lea	 ecx, DWORD PTR _rect$[esp+44]
  000fd	c7 44 24 28 ff
	ff ff ff	 mov	 DWORD PTR __$EHRec$[esp+52], -1
  00105	e8 00 00 00 00	 call	 ??1Rect@@QAE@XZ		; Rect::~Rect
  0010a	8b 4c 24 20	 mov	 ecx, DWORD PTR __$EHRec$[esp+44]
  0010e	5f		 pop	 edi
  0010f	5e		 pop	 esi
  00110	5d		 pop	 ebp
  00111	5b		 pop	 ebx
  00112	64 89 0d 00 00
	00 00		 mov	 DWORD PTR fs:__except_list, ecx
  00119	83 c4 1c	 add	 esp, 28			; 0000001cH
  0011c	c2 10 00	 ret	 16			; 00000010H
_TEXT	ENDS
;	COMDAT text$x
text$x	SEGMENT
$L93677:
  00000	8d 4d e4	 lea	 ecx, DWORD PTR _rect$[ebp]
  00003	e9 00 00 00 00	 jmp	 ??1Rect@@QAE@XZ		; Rect::~Rect
__ehhandler$?DrawDialogOnlyLocked2@C_GLOBAL_RESOURCE@@QAEXHHHH@Z:
  00008	b8 00 00 00 00	 mov	 eax, OFFSET FLAT:$T93679
  0000d	e9 00 00 00 00	 jmp	 ___CxxFrameHandler
text$x	ENDS
?DrawDialogOnlyLocked2@C_GLOBAL_RESOURCE@@QAEXHHHH@Z ENDP ; C_GLOBAL_RESOURCE::DrawDialogOnlyLocked2
PUBLIC	?DrawDialog4@C_GLOBAL_RESOURCE@@QAEXHHHH_N@Z	; C_GLOBAL_RESOURCE::DrawDialog4
EXTRN	?gpC_base@@3PAVBase@@A:DWORD			; gpC_base
EXTRN	?Lock@CDirectDrawSurface@@QAE_NXZ:NEAR		; CDirectDrawSurface::Lock
EXTRN	?Unlock@CDirectDrawSurface@@QAE_NXZ:NEAR	; CDirectDrawSurface::Unlock
; Function compile flags: /Ogty
;	COMDAT ?DrawDialog4@C_GLOBAL_RESOURCE@@QAEXHHHH_N@Z
_TEXT	SEGMENT
_x$ = 8							; size = 4
_y$ = 12						; size = 4
_w$ = 16						; size = 4
_h$ = 20						; size = 4
_alpha$ = 24						; size = 1
?DrawDialog4@C_GLOBAL_RESOURCE@@QAEXHHHH_N@Z PROC NEAR	; C_GLOBAL_RESOURCE::DrawDialog4, COMDAT
; _this$ = ecx

; 632  : 	if(gpC_base->m_p_DDSurface_back->Lock())

  00000	a1 00 00 00 00	 mov	 eax, DWORD PTR ?gpC_base@@3PAVBase@@A ; gpC_base
  00005	56		 push	 esi
  00006	8b f1		 mov	 esi, ecx
  00008	8b 48 04	 mov	 ecx, DWORD PTR [eax+4]
  0000b	e8 00 00 00 00	 call	 ?Lock@CDirectDrawSurface@@QAE_NXZ ; CDirectDrawSurface::Lock
  00010	84 c0		 test	 al, al
  00012	74 2d		 je	 SHORT $L90365

; 633  : 	{
; 634  : 		DrawDialogLocked2(x, y, w, h, alpha);

  00014	8b 4c 24 18	 mov	 ecx, DWORD PTR _alpha$[esp]
  00018	8b 54 24 14	 mov	 edx, DWORD PTR _h$[esp]
  0001c	8b 44 24 10	 mov	 eax, DWORD PTR _w$[esp]
  00020	51		 push	 ecx
  00021	8b 4c 24 10	 mov	 ecx, DWORD PTR _y$[esp+4]
  00025	52		 push	 edx
  00026	8b 54 24 10	 mov	 edx, DWORD PTR _x$[esp+8]
  0002a	50		 push	 eax
  0002b	51		 push	 ecx
  0002c	52		 push	 edx
  0002d	8b ce		 mov	 ecx, esi
  0002f	e8 00 00 00 00	 call	 ?DrawDialogLocked2@C_GLOBAL_RESOURCE@@QAEXHHHH_N@Z ; C_GLOBAL_RESOURCE::DrawDialogLocked2

; 635  : 		gpC_base->m_p_DDSurface_back->Unlock();

  00034	a1 00 00 00 00	 mov	 eax, DWORD PTR ?gpC_base@@3PAVBase@@A ; gpC_base
  00039	8b 48 04	 mov	 ecx, DWORD PTR [eax+4]
  0003c	e8 00 00 00 00	 call	 ?Unlock@CDirectDrawSurface@@QAE_NXZ ; CDirectDrawSurface::Unlock
$L90365:
  00041	5e		 pop	 esi

; 636  : 	}
; 637  : }

  00042	c2 14 00	 ret	 20			; 00000014H
?DrawDialog4@C_GLOBAL_RESOURCE@@QAEXHHHH_N@Z ENDP	; C_GLOBAL_RESOURCE::DrawDialog4
_TEXT	ENDS
PUBLIC	?DrawDialogLocked4@C_GLOBAL_RESOURCE@@QAEXAAVRect@@_N@Z ; C_GLOBAL_RESOURCE::DrawDialogLocked4
; Function compile flags: /Ogty
;	COMDAT ?DrawDialogLocked4@C_GLOBAL_RESOURCE@@QAEXAAVRect@@_N@Z
_TEXT	SEGMENT
_rect$ = 8						; size = 4
_alpha$ = 12						; size = 1
?DrawDialogLocked4@C_GLOBAL_RESOURCE@@QAEXAAVRect@@_N@Z PROC NEAR ; C_GLOBAL_RESOURCE::DrawDialogLocked4, COMDAT
; _this$ = ecx

; 641  : 	DrawDialogLocked2(rect.x, rect.y, rect.w, rect.h, alpha);

  00000	8b 44 24 08	 mov	 eax, DWORD PTR _alpha$[esp-4]
  00004	50		 push	 eax
  00005	8b 44 24 08	 mov	 eax, DWORD PTR _rect$[esp]
  00009	8b 50 0c	 mov	 edx, DWORD PTR [eax+12]
  0000c	52		 push	 edx
  0000d	8b 50 08	 mov	 edx, DWORD PTR [eax+8]
  00010	52		 push	 edx
  00011	8b 50 04	 mov	 edx, DWORD PTR [eax+4]
  00014	8b 00		 mov	 eax, DWORD PTR [eax]
  00016	52		 push	 edx
  00017	50		 push	 eax
  00018	e8 00 00 00 00	 call	 ?DrawDialogLocked2@C_GLOBAL_RESOURCE@@QAEXHHHH_N@Z ; C_GLOBAL_RESOURCE::DrawDialogLocked2

; 642  : }

  0001d	c2 08 00	 ret	 8
?DrawDialogLocked4@C_GLOBAL_RESOURCE@@QAEXAAVRect@@_N@Z ENDP ; C_GLOBAL_RESOURCE::DrawDialogLocked4
_TEXT	ENDS
PUBLIC	?DrawDialogLocked4@C_GLOBAL_RESOURCE@@QAEXHHHH_N@Z ; C_GLOBAL_RESOURCE::DrawDialogLocked4
;	COMDAT xdata$x
xdata$x	SEGMENT
$T93698	DD	0ffffffffH
	DD	FLAT:$L93693
$T93695	DD	019930520H
	DD	01H
	DD	FLAT:$T93698
	DD	2 DUP(00H)
	DD	2 DUP(00H)
; Function compile flags: /Ogty
xdata$x	ENDS
;	COMDAT ?DrawDialogLocked4@C_GLOBAL_RESOURCE@@QAEXHHHH_N@Z
_TEXT	SEGMENT
_rect$ = -28						; size = 16
__$EHRec$ = -12						; size = 12
_x$ = 8							; size = 4
_y$ = 12						; size = 4
_w$ = 16						; size = 4
_h$ = 20						; size = 4
_alpha$ = 24						; size = 1
?DrawDialogLocked4@C_GLOBAL_RESOURCE@@QAEXHHHH_N@Z PROC NEAR ; C_GLOBAL_RESOURCE::DrawDialogLocked4, COMDAT
; _this$ = ecx

; 646  : {

  00000	6a ff		 push	 -1
  00002	68 00 00 00 00	 push	 __ehhandler$?DrawDialogLocked4@C_GLOBAL_RESOURCE@@QAEXHHHH_N@Z
  00007	64 a1 00 00 00
	00		 mov	 eax, DWORD PTR fs:__except_list
  0000d	50		 push	 eax
  0000e	64 89 25 00 00
	00 00		 mov	 DWORD PTR fs:__except_list, esp
  00015	83 ec 10	 sub	 esp, 16			; 00000010H
  00018	53		 push	 ebx
  00019	55		 push	 ebp
  0001a	56		 push	 esi
  0001b	8b f1		 mov	 esi, ecx
  0001d	57		 push	 edi

; 647  : 	Rect rect;

  0001e	8d 4c 24 10	 lea	 ecx, DWORD PTR _rect$[esp+44]
  00022	e8 00 00 00 00	 call	 ??0Rect@@QAE@XZ		; Rect::Rect

; 648  : 
; 649  : 	rect.Set(0, 0, w, h);

  00027	8b 5c 24 3c	 mov	 ebx, DWORD PTR _h$[esp+40]
  0002b	8b 6c 24 38	 mov	 ebp, DWORD PTR _w$[esp+40]
  0002f	53		 push	 ebx
  00030	55		 push	 ebp
  00031	6a 00		 push	 0
  00033	6a 00		 push	 0
  00035	8d 4c 24 20	 lea	 ecx, DWORD PTR _rect$[esp+60]
  00039	c7 44 24 38 00
	00 00 00	 mov	 DWORD PTR __$EHRec$[esp+68], 0
  00041	e8 00 00 00 00	 call	 ?Set@Rect@@QAEXHHHH@Z	; Rect::Set

; 650  : 	//if(alpha)
; 651  : 	//{
; 652  : 	//	RECT alpha_rect;
; 653  : 	//	switch(g_eRaceInterface)
; 654  : 	//	{
; 655  : 	//	case RACE_SLAYER:
; 656  : 	//		SetRect(&alpha_rect, x+2, y+2, x+rect.w-2, y+rect.h-7);
; 657  : 	//		DrawAlphaBox(&alpha_rect, 0, 2, 2, g_pUserOption->ALPHA_DEPTH);
; 658  : 	//		break;
; 659  : 
; 660  : 	//	case RACE_VAMPIRE:
; 661  : 	//		SetRect(&alpha_rect, x+2, y+2, x+rect.w-2, y+rect.h-7);
; 662  : 	//		DrawAlphaBox(&alpha_rect, 2, 0, 0, g_pUserOption->ALPHA_DEPTH);
; 663  : 	//		break;
; 664  : 
; 665  : 	//	case RACE_OUSTERS:
; 666  : 	//		SetRect(&alpha_rect, x+2, y+2, x+rect.w-2, y+rect.h-1);
; 667  : 	//		DrawAlphaBox(&alpha_rect, 2, 0, 0, g_pUserOption->ALPHA_DEPTH);
; 668  : 	//		break;
; 669  : 	//	}		
; 670  : 	//	m_pC_assemble_box_spk->BltLockedClip(x, y, rect, C_GLOBAL_RESOURCE::AB_BACK_ALPHA2);
; 671  : 	//}
; 672  : 	//else
; 673  : 	//{
; 674  : 		m_pC_assemble_box_spk->BltLockedClip(x, y, rect, AB_BACK2);

  00046	8b 4c 24 34	 mov	 ecx, DWORD PTR _y$[esp+40]
  0004a	8b 7c 24 30	 mov	 edi, DWORD PTR _x$[esp+40]
  0004e	6a 05		 push	 5
  00050	8d 44 24 14	 lea	 eax, DWORD PTR _rect$[esp+48]
  00054	50		 push	 eax
  00055	51		 push	 ecx
  00056	8b 0e		 mov	 ecx, DWORD PTR [esi]
  00058	57		 push	 edi
  00059	e8 00 00 00 00	 call	 ?BltLockedClip@C_SPRITE_PACK@@QAEXHHAAVRect@@G@Z ; C_SPRITE_PACK::BltLockedClip

; 675  : 	//}
; 676  : 
; 677  : 	rect.Set(0, 0, m_pC_assemble_box_spk->GetWidth(AB_RIGHT2), h);

  0005e	8b 0e		 mov	 ecx, DWORD PTR [esi]
  00060	53		 push	 ebx
  00061	6a 07		 push	 7
  00063	e8 00 00 00 00	 call	 ?GetWidth@C_SPRITE_PACK@@QAEHG@Z ; C_SPRITE_PACK::GetWidth
  00068	50		 push	 eax
  00069	6a 00		 push	 0
  0006b	6a 00		 push	 0
  0006d	8d 4c 24 20	 lea	 ecx, DWORD PTR _rect$[esp+60]
  00071	e8 00 00 00 00	 call	 ?Set@Rect@@QAEXHHHH@Z	; Rect::Set

; 678  : 	m_pC_assemble_box_spk->BltLockedClip(x+w-m_pC_assemble_box_spk->GetWidth(AB_RIGHT2), y, rect, AB_RIGHT2);

  00076	8b 44 24 34	 mov	 eax, DWORD PTR _y$[esp+40]
  0007a	8b 0e		 mov	 ecx, DWORD PTR [esi]
  0007c	6a 07		 push	 7
  0007e	8d 54 24 14	 lea	 edx, DWORD PTR _rect$[esp+48]
  00082	52		 push	 edx
  00083	50		 push	 eax
  00084	6a 07		 push	 7
  00086	03 fd		 add	 edi, ebp
  00088	e8 00 00 00 00	 call	 ?GetWidth@C_SPRITE_PACK@@QAEHG@Z ; C_SPRITE_PACK::GetWidth
  0008d	8b cf		 mov	 ecx, edi
  0008f	2b c8		 sub	 ecx, eax
  00091	51		 push	 ecx
  00092	8b 0e		 mov	 ecx, DWORD PTR [esi]
  00094	e8 00 00 00 00	 call	 ?BltLockedClip@C_SPRITE_PACK@@QAEXHHAAVRect@@G@Z ; C_SPRITE_PACK::BltLockedClip

; 679  : 
; 680  : 	// Ousters DescDialog    
; 681  : 	if( g_eRaceInterface == RACE_OUSTERS )

  00099	83 3d 00 00 00
	00 02		 cmp	 DWORD PTR ?g_eRaceInterface@@3W4Race@@A, 2 ; g_eRaceInterface

; 682  : 	{
; 683  : 		rect.Set(0, 0, w, m_pC_assemble_box_spk->GetHeight(AB_DOWN4));

  000a0	8b 0e		 mov	 ecx, DWORD PTR [esi]
  000a2	75 5e		 jne	 SHORT $L90380
  000a4	6a 0a		 push	 10			; 0000000aH
  000a6	e8 00 00 00 00	 call	 ?GetHeight@C_SPRITE_PACK@@QAEHG@Z ; C_SPRITE_PACK::GetHeight
  000ab	50		 push	 eax
  000ac	55		 push	 ebp
  000ad	6a 00		 push	 0
  000af	6a 00		 push	 0
  000b1	8d 4c 24 20	 lea	 ecx, DWORD PTR _rect$[esp+60]
  000b5	e8 00 00 00 00	 call	 ?Set@Rect@@QAEXHHHH@Z	; Rect::Set

; 684  : 		m_pC_assemble_box_spk->BltLockedClip(x-3, y+h-m_pC_assemble_box_spk->GetHeight(AB_DOWN4), rect, AB_DOWN4);

  000ba	8b 54 24 34	 mov	 edx, DWORD PTR _y$[esp+40]
  000be	8b 0e		 mov	 ecx, DWORD PTR [esi]
  000c0	6a 0a		 push	 10			; 0000000aH
  000c2	8d 44 24 14	 lea	 eax, DWORD PTR _rect$[esp+48]
  000c6	50		 push	 eax
  000c7	6a 0a		 push	 10			; 0000000aH
  000c9	03 da		 add	 ebx, edx
  000cb	e8 00 00 00 00	 call	 ?GetHeight@C_SPRITE_PACK@@QAEHG@Z ; C_SPRITE_PACK::GetHeight
  000d0	8b 54 24 38	 mov	 edx, DWORD PTR _x$[esp+48]
  000d4	8b cb		 mov	 ecx, ebx
  000d6	2b c8		 sub	 ecx, eax
  000d8	51		 push	 ecx
  000d9	8b 0e		 mov	 ecx, DWORD PTR [esi]
  000db	83 c2 fd	 add	 edx, -3			; fffffffdH
  000de	52		 push	 edx
  000df	e8 00 00 00 00	 call	 ?BltLockedClip@C_SPRITE_PACK@@QAEXHHAAVRect@@G@Z ; C_SPRITE_PACK::BltLockedClip

; 685  : 
; 686  : 		m_pC_assemble_box_spk->BltLocked(x+3+w-m_pC_assemble_box_spk->GetWidth(AB_RIGHTDOWN4), y+h-m_pC_assemble_box_spk->GetHeight(AB_RIGHTDOWN4), AB_RIGHTDOWN4);

  000e4	8b 0e		 mov	 ecx, DWORD PTR [esi]
  000e6	6a 0b		 push	 11			; 0000000bH
  000e8	6a 0b		 push	 11			; 0000000bH
  000ea	e8 00 00 00 00	 call	 ?GetHeight@C_SPRITE_PACK@@QAEHG@Z ; C_SPRITE_PACK::GetHeight
  000ef	8b 0e		 mov	 ecx, DWORD PTR [esi]
  000f1	2b d8		 sub	 ebx, eax
  000f3	53		 push	 ebx
  000f4	6a 0b		 push	 11			; 0000000bH
  000f6	e8 00 00 00 00	 call	 ?GetWidth@C_SPRITE_PACK@@QAEHG@Z ; C_SPRITE_PACK::GetWidth
  000fb	2b f8		 sub	 edi, eax
  000fd	83 c7 03	 add	 edi, 3

; 687  : 	}
; 688  : 	else

  00100	eb 56		 jmp	 SHORT $L93697
$L90380:

; 689  : 	{
; 690  : 		rect.Set(0, 0, w, m_pC_assemble_box_spk->GetHeight(AB_DOWN2));

  00102	6a 08		 push	 8
  00104	e8 00 00 00 00	 call	 ?GetHeight@C_SPRITE_PACK@@QAEHG@Z ; C_SPRITE_PACK::GetHeight
  00109	50		 push	 eax
  0010a	55		 push	 ebp
  0010b	6a 00		 push	 0
  0010d	6a 00		 push	 0
  0010f	8d 4c 24 20	 lea	 ecx, DWORD PTR _rect$[esp+60]
  00113	e8 00 00 00 00	 call	 ?Set@Rect@@QAEXHHHH@Z	; Rect::Set

; 691  : 		m_pC_assemble_box_spk->BltLockedClip(x, y+h-m_pC_assemble_box_spk->GetHeight(AB_DOWN2), rect, AB_DOWN2);

  00118	8b 44 24 34	 mov	 eax, DWORD PTR _y$[esp+40]
  0011c	6a 08		 push	 8
  0011e	8d 4c 24 14	 lea	 ecx, DWORD PTR _rect$[esp+48]
  00122	51		 push	 ecx
  00123	8b 0e		 mov	 ecx, DWORD PTR [esi]
  00125	6a 08		 push	 8
  00127	03 d8		 add	 ebx, eax
  00129	e8 00 00 00 00	 call	 ?GetHeight@C_SPRITE_PACK@@QAEHG@Z ; C_SPRITE_PACK::GetHeight
  0012e	8b 0e		 mov	 ecx, DWORD PTR [esi]
  00130	8b d3		 mov	 edx, ebx
  00132	2b d0		 sub	 edx, eax
  00134	8b 44 24 38	 mov	 eax, DWORD PTR _x$[esp+48]
  00138	52		 push	 edx
  00139	50		 push	 eax
  0013a	e8 00 00 00 00	 call	 ?BltLockedClip@C_SPRITE_PACK@@QAEXHHAAVRect@@G@Z ; C_SPRITE_PACK::BltLockedClip

; 692  : 
; 693  : 		m_pC_assemble_box_spk->BltLocked(x+w-m_pC_assemble_box_spk->GetWidth(AB_RIGHTDOWN2), y+h-m_pC_assemble_box_spk->GetHeight(AB_RIGHTDOWN2), AB_RIGHTDOWN2);

  0013f	8b 0e		 mov	 ecx, DWORD PTR [esi]
  00141	6a 09		 push	 9
  00143	6a 09		 push	 9
  00145	e8 00 00 00 00	 call	 ?GetHeight@C_SPRITE_PACK@@QAEHG@Z ; C_SPRITE_PACK::GetHeight
  0014a	8b 0e		 mov	 ecx, DWORD PTR [esi]
  0014c	2b d8		 sub	 ebx, eax
  0014e	53		 push	 ebx
  0014f	6a 09		 push	 9
  00151	e8 00 00 00 00	 call	 ?GetWidth@C_SPRITE_PACK@@QAEHG@Z ; C_SPRITE_PACK::GetWidth
  00156	2b f8		 sub	 edi, eax
$L93697:
  00158	8b 0e		 mov	 ecx, DWORD PTR [esi]
  0015a	57		 push	 edi
  0015b	e8 00 00 00 00	 call	 ?BltLocked@C_SPRITE_PACK@@QAEXHHG@Z ; C_SPRITE_PACK::BltLocked

; 694  : 	}
; 695  : }

  00160	8d 4c 24 10	 lea	 ecx, DWORD PTR _rect$[esp+44]
  00164	c7 44 24 28 ff
	ff ff ff	 mov	 DWORD PTR __$EHRec$[esp+52], -1
  0016c	e8 00 00 00 00	 call	 ??1Rect@@QAE@XZ		; Rect::~Rect
  00171	8b 4c 24 20	 mov	 ecx, DWORD PTR __$EHRec$[esp+44]
  00175	5f		 pop	 edi
  00176	5e		 pop	 esi
  00177	5d		 pop	 ebp
  00178	5b		 pop	 ebx
  00179	64 89 0d 00 00
	00 00		 mov	 DWORD PTR fs:__except_list, ecx
  00180	83 c4 1c	 add	 esp, 28			; 0000001cH
  00183	c2 14 00	 ret	 20			; 00000014H
_TEXT	ENDS
;	COMDAT text$x
text$x	SEGMENT
$L93693:
  00000	8d 4d e4	 lea	 ecx, DWORD PTR _rect$[ebp]
  00003	e9 00 00 00 00	 jmp	 ??1Rect@@QAE@XZ		; Rect::~Rect
__ehhandler$?DrawDialogLocked4@C_GLOBAL_RESOURCE@@QAEXHHHH_N@Z:
  00008	b8 00 00 00 00	 mov	 eax, OFFSET FLAT:$T93695
  0000d	e9 00 00 00 00	 jmp	 ___CxxFrameHandler
text$x	ENDS
?DrawDialogLocked4@C_GLOBAL_RESOURCE@@QAEXHHHH_N@Z ENDP	; C_GLOBAL_RESOURCE::DrawDialogLocked4
PUBLIC	?DrawTempChatBoxLocked@C_GLOBAL_RESOURCE@@QAEXHHHH_N@Z ; C_GLOBAL_RESOURCE::DrawTempChatBoxLocked
EXTRN	?DrawAlphaBox@@YAXPAUtagRECT@@EEEE@Z:NEAR	; DrawAlphaBox
EXTRN	?g_pUserOption@@3PAVUserOption@@A:DWORD		; g_pUserOption
EXTRN	__imp__SetRect@20:NEAR
;	COMDAT xdata$x
xdata$x	SEGMENT
$T93710	DD	0ffffffffH
	DD	FLAT:$L93704
$T93706	DD	019930520H
	DD	01H
	DD	FLAT:$T93710
	DD	2 DUP(00H)
	DD	2 DUP(00H)
; Function compile flags: /Ogty
xdata$x	ENDS
;	COMDAT ?DrawTempChatBoxLocked@C_GLOBAL_RESOURCE@@QAEXHHHH_N@Z
_TEXT	SEGMENT
_rect$ = -44						; size = 16
_alpha_rect$90392 = -28					; size = 16
__$EHRec$ = -12						; size = 12
_x$ = 8							; size = 4
_y$ = 12						; size = 4
_w$ = 16						; size = 4
_h$ = 20						; size = 4
_alpha$ = 24						; size = 1
?DrawTempChatBoxLocked@C_GLOBAL_RESOURCE@@QAEXHHHH_N@Z PROC NEAR ; C_GLOBAL_RESOURCE::DrawTempChatBoxLocked, COMDAT
; _this$ = ecx

; 699  : {

  00000	6a ff		 push	 -1
  00002	68 00 00 00 00	 push	 __ehhandler$?DrawTempChatBoxLocked@C_GLOBAL_RESOURCE@@QAEXHHHH_N@Z
  00007	64 a1 00 00 00
	00		 mov	 eax, DWORD PTR fs:__except_list
  0000d	50		 push	 eax
  0000e	64 89 25 00 00
	00 00		 mov	 DWORD PTR fs:__except_list, esp
  00015	83 ec 20	 sub	 esp, 32			; 00000020H
  00018	53		 push	 ebx
  00019	55		 push	 ebp
  0001a	56		 push	 esi
  0001b	8b d9		 mov	 ebx, ecx
  0001d	57		 push	 edi

; 700  : 	Rect rect;

  0001e	8d 4c 24 10	 lea	 ecx, DWORD PTR _rect$[esp+60]
  00022	e8 00 00 00 00	 call	 ??0Rect@@QAE@XZ		; Rect::Rect

; 701  : 
; 702  : 	rect.Set(0, 0, w-2, h-2);

  00027	8b 6c 24 4c	 mov	 ebp, DWORD PTR _h$[esp+56]
  0002b	8b 4c 24 48	 mov	 ecx, DWORD PTR _w$[esp+56]
  0002f	8d 45 fe	 lea	 eax, DWORD PTR [ebp-2]
  00032	50		 push	 eax
  00033	83 c1 fe	 add	 ecx, -2			; fffffffeH
  00036	51		 push	 ecx
  00037	6a 00		 push	 0
  00039	6a 00		 push	 0
  0003b	8d 4c 24 20	 lea	 ecx, DWORD PTR _rect$[esp+76]
  0003f	c7 44 24 48 00
	00 00 00	 mov	 DWORD PTR __$EHRec$[esp+84], 0
  00047	e8 00 00 00 00	 call	 ?Set@Rect@@QAEXHHHH@Z	; Rect::Set

; 703  : 	if(alpha)

  0004c	8a 44 24 50	 mov	 al, BYTE PTR _alpha$[esp+56]
  00050	84 c0		 test	 al, al

; 704  : 	{
; 705  : 		RECT alpha_rect;
; 706  : 		switch(g_eRaceInterface)

  00052	8b 7c 24 40	 mov	 edi, DWORD PTR _x$[esp+56]
  00056	8b 74 24 44	 mov	 esi, DWORD PTR _y$[esp+56]
  0005a	0f 84 98 00 00
	00		 je	 $L90391
  00060	a1 00 00 00 00	 mov	 eax, DWORD PTR ?g_eRaceInterface@@3W4Race@@A ; g_eRaceInterface
  00065	83 e8 00	 sub	 eax, 0
  00068	74 40		 je	 SHORT $L90397
  0006a	48		 dec	 eax
  0006b	74 03		 je	 SHORT $L90398
  0006d	48		 dec	 eax
  0006e	75 7f		 jne	 SHORT $L90394
$L90398:

; 711  : 			break;
; 712  : 
; 713  : 		case RACE_VAMPIRE:
; 714  : 			SetRect(&alpha_rect, x+2, y+2, x+rect.w-2, y+rect.h);
; 715  : 			DrawAlphaBox(&alpha_rect, 2, 0, 0, g_pUserOption->ALPHA_DEPTH);
; 716  : 			break;
; 717  : 
; 718  : 		case RACE_OUSTERS:
; 719  : 			SetRect(&alpha_rect, x+2, y+2, x+rect.w-2, y+rect.h);

  00070	8b 54 24 1c	 mov	 edx, DWORD PTR _rect$[esp+72]
  00074	8b 44 24 18	 mov	 eax, DWORD PTR _rect$[esp+68]
  00078	03 d6		 add	 edx, esi
  0007a	52		 push	 edx
  0007b	8d 4c 38 fe	 lea	 ecx, DWORD PTR [eax+edi-2]
  0007f	51		 push	 ecx
  00080	8d 56 02	 lea	 edx, DWORD PTR [esi+2]
  00083	52		 push	 edx
  00084	8d 47 02	 lea	 eax, DWORD PTR [edi+2]
  00087	50		 push	 eax
  00088	8d 4c 24 30	 lea	 ecx, DWORD PTR _alpha_rect$90392[esp+76]
  0008c	51		 push	 ecx
  0008d	ff 15 00 00 00
	00		 call	 DWORD PTR __imp__SetRect@20

; 720  : 			DrawAlphaBox(&alpha_rect, 2, 0, 0, g_pUserOption->ALPHA_DEPTH);

  00093	8b 15 00 00 00
	00		 mov	 edx, DWORD PTR ?g_pUserOption@@3PAVUserOption@@A ; g_pUserOption
  00099	33 c0		 xor	 eax, eax
  0009b	8a 82 a4 00 00
	00		 mov	 al, BYTE PTR [edx+164]
  000a1	50		 push	 eax
  000a2	6a 00		 push	 0
  000a4	6a 00		 push	 0
  000a6	6a 02		 push	 2

; 721  : 			break;

  000a8	eb 38		 jmp	 SHORT $L93708
$L90397:

; 707  : 		{
; 708  : 		case RACE_SLAYER:
; 709  : 			SetRect(&alpha_rect, x+2, y+2, x+rect.w-2, y+rect.h);

  000aa	8b 54 24 1c	 mov	 edx, DWORD PTR _rect$[esp+72]
  000ae	8b 44 24 18	 mov	 eax, DWORD PTR _rect$[esp+68]
  000b2	03 d6		 add	 edx, esi
  000b4	52		 push	 edx
  000b5	8d 4c 38 fe	 lea	 ecx, DWORD PTR [eax+edi-2]
  000b9	51		 push	 ecx
  000ba	8d 56 02	 lea	 edx, DWORD PTR [esi+2]
  000bd	52		 push	 edx
  000be	8d 47 02	 lea	 eax, DWORD PTR [edi+2]
  000c1	50		 push	 eax
  000c2	8d 4c 24 30	 lea	 ecx, DWORD PTR _alpha_rect$90392[esp+76]
  000c6	51		 push	 ecx
  000c7	ff 15 00 00 00
	00		 call	 DWORD PTR __imp__SetRect@20

; 710  : 			DrawAlphaBox(&alpha_rect, 0, 2, 2, g_pUserOption->ALPHA_DEPTH);

  000cd	8b 15 00 00 00
	00		 mov	 edx, DWORD PTR ?g_pUserOption@@3PAVUserOption@@A ; g_pUserOption
  000d3	33 c0		 xor	 eax, eax
  000d5	8a 82 a4 00 00
	00		 mov	 al, BYTE PTR [edx+164]
  000db	50		 push	 eax
  000dc	6a 02		 push	 2
  000de	6a 02		 push	 2
  000e0	6a 00		 push	 0
$L93708:
  000e2	8d 4c 24 30	 lea	 ecx, DWORD PTR _alpha_rect$90392[esp+76]
  000e6	51		 push	 ecx
  000e7	e8 00 00 00 00	 call	 ?DrawAlphaBox@@YAXPAUtagRECT@@EEEE@Z ; DrawAlphaBox
  000ec	83 c4 14	 add	 esp, 20			; 00000014H
$L90394:

; 722  : 		}		
; 723  : 		m_pC_assemble_box_spk->BltLockedClip(x, y, rect, C_GLOBAL_RESOURCE::AB_BACK_ALPHA2);

  000ef	6a 06		 push	 6
  000f1	8d 54 24 14	 lea	 edx, DWORD PTR _rect$[esp+64]
  000f5	52		 push	 edx

; 724  : 	}
; 725  : 	else

  000f6	eb 07		 jmp	 SHORT $L93709
$L90391:

; 726  : 	{
; 727  : 		m_pC_assemble_box_spk->BltLockedClip(x, y, rect, AB_BACK2);

  000f8	6a 05		 push	 5
  000fa	8d 44 24 14	 lea	 eax, DWORD PTR _rect$[esp+64]
  000fe	50		 push	 eax
$L93709:
  000ff	8b 0b		 mov	 ecx, DWORD PTR [ebx]
  00101	56		 push	 esi
  00102	57		 push	 edi
  00103	e8 00 00 00 00	 call	 ?BltLockedClip@C_SPRITE_PACK@@QAEXHHAAVRect@@G@Z ; C_SPRITE_PACK::BltLockedClip

; 728  : 	}
; 729  : 
; 730  : 	rect.Set(0, 0, m_pC_assemble_box_spk->GetWidth(AB_RIGHT2), h);

  00108	8b 0b		 mov	 ecx, DWORD PTR [ebx]
  0010a	55		 push	 ebp
  0010b	6a 07		 push	 7
  0010d	e8 00 00 00 00	 call	 ?GetWidth@C_SPRITE_PACK@@QAEHG@Z ; C_SPRITE_PACK::GetWidth
  00112	50		 push	 eax
  00113	6a 00		 push	 0
  00115	6a 00		 push	 0
  00117	8d 4c 24 20	 lea	 ecx, DWORD PTR _rect$[esp+76]
  0011b	e8 00 00 00 00	 call	 ?Set@Rect@@QAEXHHHH@Z	; Rect::Set

; 731  : 	m_pC_assemble_box_spk->BltLockedClip(x+w-m_pC_assemble_box_spk->GetWidth(AB_RIGHT2), y, rect, AB_RIGHT2);

  00120	6a 07		 push	 7
  00122	8d 4c 24 14	 lea	 ecx, DWORD PTR _rect$[esp+64]
  00126	51		 push	 ecx
  00127	8b 0b		 mov	 ecx, DWORD PTR [ebx]
  00129	56		 push	 esi
  0012a	6a 07		 push	 7
  0012c	e8 00 00 00 00	 call	 ?GetWidth@C_SPRITE_PACK@@QAEHG@Z ; C_SPRITE_PACK::GetWidth
  00131	8b 54 24 54	 mov	 edx, DWORD PTR _w$[esp+68]
  00135	8b 0b		 mov	 ecx, DWORD PTR [ebx]
  00137	03 fa		 add	 edi, edx
  00139	2b f8		 sub	 edi, eax
  0013b	57		 push	 edi
  0013c	e8 00 00 00 00	 call	 ?BltLockedClip@C_SPRITE_PACK@@QAEXHHAAVRect@@G@Z ; C_SPRITE_PACK::BltLockedClip

; 732  : //
; 733  : //	// Ousters DescDialog    
; 734  : //	if( g_eRaceInterface == RACE_OUSTERS )
; 735  : //	{
; 736  : //		rect.Set(0, 0, w, m_pC_assemble_box_spk->GetHeight(AB_DOWN2));
; 737  : //		m_pC_assemble_box_spk->BltLockedClip(x-12, y+11+h-m_pC_assemble_box_spk->GetHeight(AB_DOWN2), rect, AB_DOWN2);
; 738  : //
; 739  : //		m_pC_assemble_box_spk->BltLocked(x+13+w-m_pC_assemble_box_spk->GetWidth(AB_RIGHTDOWN2), y+11+h-m_pC_assemble_box_spk->GetHeight(AB_RIGHTDOWN2), AB_RIGHTDOWN2);
; 740  : //	}
; 741  : //	else
; 742  : //	{
; 743  : //		rect.Set(0, 0, w, m_pC_assemble_box_spk->GetHeight(AB_DOWN2));
; 744  : //		m_pC_assemble_box_spk->BltLockedClip(x, y+h-m_pC_assemble_box_spk->GetHeight(AB_DOWN2), rect, AB_DOWN2);
; 745  : //
; 746  : //		m_pC_assemble_box_spk->BltLocked(x+w-m_pC_assemble_box_spk->GetWidth(AB_RIGHTDOWN2), y+h-m_pC_assemble_box_spk->GetHeight(AB_RIGHTDOWN2), AB_RIGHTDOWN2);
; 747  : //	}
; 748  : }

  00141	8d 4c 24 10	 lea	 ecx, DWORD PTR _rect$[esp+60]
  00145	c7 44 24 38 ff
	ff ff ff	 mov	 DWORD PTR __$EHRec$[esp+68], -1
  0014d	e8 00 00 00 00	 call	 ??1Rect@@QAE@XZ		; Rect::~Rect
  00152	8b 4c 24 30	 mov	 ecx, DWORD PTR __$EHRec$[esp+60]
  00156	5f		 pop	 edi
  00157	5e		 pop	 esi
  00158	5d		 pop	 ebp
  00159	5b		 pop	 ebx
  0015a	64 89 0d 00 00
	00 00		 mov	 DWORD PTR fs:__except_list, ecx
  00161	83 c4 2c	 add	 esp, 44			; 0000002cH
  00164	c2 14 00	 ret	 20			; 00000014H
_TEXT	ENDS
;	COMDAT text$x
text$x	SEGMENT
$L93704:
  00000	8d 4d d4	 lea	 ecx, DWORD PTR _rect$[ebp]
  00003	e9 00 00 00 00	 jmp	 ??1Rect@@QAE@XZ		; Rect::~Rect
__ehhandler$?DrawTempChatBoxLocked@C_GLOBAL_RESOURCE@@QAEXHHHH_N@Z:
  00008	b8 00 00 00 00	 mov	 eax, OFFSET FLAT:$T93706
  0000d	e9 00 00 00 00	 jmp	 ___CxxFrameHandler
text$x	ENDS
?DrawTempChatBoxLocked@C_GLOBAL_RESOURCE@@QAEXHHHH_N@Z ENDP ; C_GLOBAL_RESOURCE::DrawTempChatBoxLocked
PUBLIC	??1CSprite565@@QAE@XZ				; CSprite565::~CSprite565
EXTRN	??1CSprite@@QAE@XZ:NEAR				; CSprite::~CSprite
; Function compile flags: /Ogty
;	COMDAT ??1CSprite565@@QAE@XZ
_TEXT	SEGMENT
??1CSprite565@@QAE@XZ PROC NEAR				; CSprite565::~CSprite565, COMDAT
; _this$ = ecx
  00000	e9 00 00 00 00	 jmp	 ??1CSprite@@QAE@XZ	; CSprite::~CSprite
??1CSprite565@@QAE@XZ ENDP				; CSprite565::~CSprite565
_TEXT	ENDS
PUBLIC	??1CSprite555@@QAE@XZ				; CSprite555::~CSprite555
; Function compile flags: /Ogty
;	COMDAT ??1CSprite555@@QAE@XZ
_TEXT	SEGMENT
??1CSprite555@@QAE@XZ PROC NEAR				; CSprite555::~CSprite555, COMDAT
; _this$ = ecx
  00000	e9 00 00 00 00	 jmp	 ??1CSprite@@QAE@XZ	; CSprite::~CSprite
??1CSprite555@@QAE@XZ ENDP				; CSprite555::~CSprite555
_TEXT	ENDS
PUBLIC	?FreeAssemble@C_GLOBAL_RESOURCE@@QAEXXZ		; C_GLOBAL_RESOURCE::FreeAssemble
; Function compile flags: /Ogty
;	COMDAT ?FreeAssemble@C_GLOBAL_RESOURCE@@QAEXXZ
_TEXT	SEGMENT
?FreeAssemble@C_GLOBAL_RESOURCE@@QAEXXZ PROC NEAR	; C_GLOBAL_RESOURCE::FreeAssemble, COMDAT
; _this$ = ecx

; 104  : {

  00000	53		 push	 ebx
  00001	56		 push	 esi
  00002	8b f1		 mov	 esi, ecx
  00004	57		 push	 edi

; 105  : 	DeleteNew(m_pC_box_spk);

  00005	8b 7e 0c	 mov	 edi, DWORD PTR [esi+12]
  00008	33 db		 xor	 ebx, ebx
  0000a	3b fb		 cmp	 edi, ebx
  0000c	74 13		 je	 SHORT $L90142
  0000e	8b cf		 mov	 ecx, edi
  00010	e8 00 00 00 00	 call	 ??1C_SPRITE_PACK@@QAE@XZ ; C_SPRITE_PACK::~C_SPRITE_PACK
  00015	57		 push	 edi
  00016	e8 00 00 00 00	 call	 ??3@YAXPAX@Z		; operator delete
  0001b	83 c4 04	 add	 esp, 4
  0001e	89 5e 0c	 mov	 DWORD PTR [esi+12], ebx
$L90142:

; 106  : 	DeleteNew(m_pC_scroll_bar_spk);

  00021	8b 7e 08	 mov	 edi, DWORD PTR [esi+8]
  00024	3b fb		 cmp	 edi, ebx
  00026	74 13		 je	 SHORT $L90145
  00028	8b cf		 mov	 ecx, edi
  0002a	e8 00 00 00 00	 call	 ??1C_SPRITE_PACK@@QAE@XZ ; C_SPRITE_PACK::~C_SPRITE_PACK
  0002f	57		 push	 edi
  00030	e8 00 00 00 00	 call	 ??3@YAXPAX@Z		; operator delete
  00035	83 c4 04	 add	 esp, 4
  00038	89 5e 08	 mov	 DWORD PTR [esi+8], ebx
$L90145:

; 107  : 
; 108  : 	//std::ofstream file("Error.log", std::ios::out | std::ios::app);
; 109  : 	//file << "*** m_pC_scroll_bar_spk oky" << std::endl;
; 110  : 	//file.close();
; 111  : 
; 112  : 	DeleteNew(m_pC_assemble_box_spk);

  0003b	8b 3e		 mov	 edi, DWORD PTR [esi]
  0003d	3b fb		 cmp	 edi, ebx
  0003f	74 12		 je	 SHORT $L90148
  00041	8b cf		 mov	 ecx, edi
  00043	e8 00 00 00 00	 call	 ??1C_SPRITE_PACK@@QAE@XZ ; C_SPRITE_PACK::~C_SPRITE_PACK
  00048	57		 push	 edi
  00049	e8 00 00 00 00	 call	 ??3@YAXPAX@Z		; operator delete
  0004e	83 c4 04	 add	 esp, 4
  00051	89 1e		 mov	 DWORD PTR [esi], ebx
$L90148:

; 113  : 
; 114  : 	//std::ofstream file2("Error.log", std::ios::out | std::ios::app);
; 115  : 	//file2 << "*** m_pC_assemble_box_spk oky" << std::endl;
; 116  : 	//file2.close();
; 117  : 
; 118  : 	DeleteNew(m_pC_assemble_box_button_spk);

  00053	8b 7e 04	 mov	 edi, DWORD PTR [esi+4]
  00056	3b fb		 cmp	 edi, ebx
  00058	74 13		 je	 SHORT $L90151
  0005a	8b cf		 mov	 ecx, edi
  0005c	e8 00 00 00 00	 call	 ??1C_SPRITE_PACK@@QAE@XZ ; C_SPRITE_PACK::~C_SPRITE_PACK
  00061	57		 push	 edi
  00062	e8 00 00 00 00	 call	 ??3@YAXPAX@Z		; operator delete
  00067	83 c4 04	 add	 esp, 4
  0006a	89 5e 04	 mov	 DWORD PTR [esi+4], ebx
$L90151:

; 119  : 	DeleteNew(m_pC_info_spk);

  0006d	8b 7e 10	 mov	 edi, DWORD PTR [esi+16]
  00070	3b fb		 cmp	 edi, ebx
  00072	74 13		 je	 SHORT $L90154
  00074	8b cf		 mov	 ecx, edi
  00076	e8 00 00 00 00	 call	 ??1C_SPRITE_PACK@@QAE@XZ ; C_SPRITE_PACK::~C_SPRITE_PACK
  0007b	57		 push	 edi
  0007c	e8 00 00 00 00	 call	 ??3@YAXPAX@Z		; operator delete
  00081	83 c4 04	 add	 esp, 4
  00084	89 5e 10	 mov	 DWORD PTR [esi+16], ebx
$L90154:

; 120  : 	DeleteNew(m_pC_common_button_spk);

  00087	8b 7e 14	 mov	 edi, DWORD PTR [esi+20]
  0008a	3b fb		 cmp	 edi, ebx
  0008c	74 13		 je	 SHORT $L90157
  0008e	8b cf		 mov	 ecx, edi
  00090	e8 00 00 00 00	 call	 ??1C_SPRITE_PACK@@QAE@XZ ; C_SPRITE_PACK::~C_SPRITE_PACK
  00095	57		 push	 edi
  00096	e8 00 00 00 00	 call	 ??3@YAXPAX@Z		; operator delete
  0009b	83 c4 04	 add	 esp, 4
  0009e	89 5e 14	 mov	 DWORD PTR [esi+20], ebx
$L90157:

; 121  : 	DeleteNew(m_New_NpcDialog_spk);

  000a1	8b 7e 18	 mov	 edi, DWORD PTR [esi+24]
  000a4	3b fb		 cmp	 edi, ebx
  000a6	74 13		 je	 SHORT $L90160
  000a8	8b cf		 mov	 ecx, edi
  000aa	e8 00 00 00 00	 call	 ??1C_SPRITE_PACK@@QAE@XZ ; C_SPRITE_PACK::~C_SPRITE_PACK
  000af	57		 push	 edi
  000b0	e8 00 00 00 00	 call	 ??3@YAXPAX@Z		; operator delete
  000b5	83 c4 04	 add	 esp, 4
  000b8	89 5e 18	 mov	 DWORD PTR [esi+24], ebx
$L90160:

; 122  : 	DeleteNew(m_pC_NpcIcon_spk);

  000bb	8b 7e 1c	 mov	 edi, DWORD PTR [esi+28]
  000be	3b fb		 cmp	 edi, ebx
  000c0	74 13		 je	 SHORT $L90163
  000c2	8b cf		 mov	 ecx, edi
  000c4	e8 00 00 00 00	 call	 ??1C_SPRITE_PACK@@QAE@XZ ; C_SPRITE_PACK::~C_SPRITE_PACK
  000c9	57		 push	 edi
  000ca	e8 00 00 00 00	 call	 ??3@YAXPAX@Z		; operator delete
  000cf	83 c4 04	 add	 esp, 4
  000d2	89 5e 1c	 mov	 DWORD PTR [esi+28], ebx
$L90163:
  000d5	5f		 pop	 edi
  000d6	5e		 pop	 esi
  000d7	5b		 pop	 ebx

; 123  : 	
; 124  : //	if(m_pC_assemble_box_etc_spk)
; 125  : //	{
; 126  : //		DeleteNew(m_pC_assemble_box_etc_spk);
; 127  : //		m_pC_assemble_box_etc_spk = NULL;
; 128  : //	}
; 129  : }

  000d8	c3		 ret	 0
?FreeAssemble@C_GLOBAL_RESOURCE@@QAEXXZ ENDP		; C_GLOBAL_RESOURCE::FreeAssemble
_TEXT	ENDS
PUBLIC	?DrawOutBox@C_GLOBAL_RESOURCE@@QAEXHHHH@Z	; C_GLOBAL_RESOURCE::DrawOutBox
; Function compile flags: /Ogty
;	COMDAT ?DrawOutBox@C_GLOBAL_RESOURCE@@QAEXHHHH@Z
_TEXT	SEGMENT
_x$ = 8							; size = 4
_y$ = 12						; size = 4
_w$ = 16						; size = 4
_h$ = 20						; size = 4
?DrawOutBox@C_GLOBAL_RESOURCE@@QAEXHHHH@Z PROC NEAR	; C_GLOBAL_RESOURCE::DrawOutBox, COMDAT
; _this$ = ecx

; 238  : 	if(gpC_base->m_p_DDSurface_back->Lock())

  00000	a1 00 00 00 00	 mov	 eax, DWORD PTR ?gpC_base@@3PAVBase@@A ; gpC_base
  00005	56		 push	 esi
  00006	8b f1		 mov	 esi, ecx
  00008	8b 48 04	 mov	 ecx, DWORD PTR [eax+4]
  0000b	e8 00 00 00 00	 call	 ?Lock@CDirectDrawSurface@@QAE_NXZ ; CDirectDrawSurface::Lock
  00010	84 c0		 test	 al, al
  00012	74 29		 je	 SHORT $L90181

; 239  : 	{
; 240  : 		DrawOutBoxLocked(x, y, w, h);

  00014	8b 4c 24 14	 mov	 ecx, DWORD PTR _h$[esp]
  00018	8b 54 24 10	 mov	 edx, DWORD PTR _w$[esp]
  0001c	8b 44 24 0c	 mov	 eax, DWORD PTR _y$[esp]
  00020	51		 push	 ecx
  00021	8b 4c 24 0c	 mov	 ecx, DWORD PTR _x$[esp+4]
  00025	52		 push	 edx
  00026	50		 push	 eax
  00027	51		 push	 ecx
  00028	8b ce		 mov	 ecx, esi
  0002a	e8 00 00 00 00	 call	 ?DrawOutBoxLocked@C_GLOBAL_RESOURCE@@QAEXHHHH@Z ; C_GLOBAL_RESOURCE::DrawOutBoxLocked

; 241  : 		gpC_base->m_p_DDSurface_back->Unlock();

  0002f	8b 15 00 00 00
	00		 mov	 edx, DWORD PTR ?gpC_base@@3PAVBase@@A ; gpC_base
  00035	8b 4a 04	 mov	 ecx, DWORD PTR [edx+4]
  00038	e8 00 00 00 00	 call	 ?Unlock@CDirectDrawSurface@@QAE_NXZ ; CDirectDrawSurface::Unlock
$L90181:
  0003d	5e		 pop	 esi

; 242  : 	}
; 243  : }

  0003e	c2 10 00	 ret	 16			; 00000010H
?DrawOutBox@C_GLOBAL_RESOURCE@@QAEXHHHH@Z ENDP		; C_GLOBAL_RESOURCE::DrawOutBox
_TEXT	ENDS
PUBLIC	?DrawOutBoxLocked@C_GLOBAL_RESOURCE@@QAEXAAVRect@@@Z ; C_GLOBAL_RESOURCE::DrawOutBoxLocked
; Function compile flags: /Ogty
;	COMDAT ?DrawOutBoxLocked@C_GLOBAL_RESOURCE@@QAEXAAVRect@@@Z
_TEXT	SEGMENT
_rect$ = 8						; size = 4
?DrawOutBoxLocked@C_GLOBAL_RESOURCE@@QAEXAAVRect@@@Z PROC NEAR ; C_GLOBAL_RESOURCE::DrawOutBoxLocked, COMDAT
; _this$ = ecx

; 247  : 	DrawOutBoxLocked(rect.x, rect.y, rect.w, rect.h);

  00000	8b 44 24 04	 mov	 eax, DWORD PTR _rect$[esp-4]
  00004	8b 50 0c	 mov	 edx, DWORD PTR [eax+12]
  00007	52		 push	 edx
  00008	8b 50 08	 mov	 edx, DWORD PTR [eax+8]
  0000b	52		 push	 edx
  0000c	8b 50 04	 mov	 edx, DWORD PTR [eax+4]
  0000f	8b 00		 mov	 eax, DWORD PTR [eax]
  00011	52		 push	 edx
  00012	50		 push	 eax
  00013	e8 00 00 00 00	 call	 ?DrawOutBoxLocked@C_GLOBAL_RESOURCE@@QAEXHHHH@Z ; C_GLOBAL_RESOURCE::DrawOutBoxLocked

; 248  : }

  00018	c2 04 00	 ret	 4
?DrawOutBoxLocked@C_GLOBAL_RESOURCE@@QAEXAAVRect@@@Z ENDP ; C_GLOBAL_RESOURCE::DrawOutBoxLocked
_TEXT	ENDS
PUBLIC	?DrawInBox@C_GLOBAL_RESOURCE@@QAEXHHHH@Z	; C_GLOBAL_RESOURCE::DrawInBox
; Function compile flags: /Ogty
;	COMDAT ?DrawInBox@C_GLOBAL_RESOURCE@@QAEXHHHH@Z
_TEXT	SEGMENT
_x$ = 8							; size = 4
_y$ = 12						; size = 4
_w$ = 16						; size = 4
_h$ = 20						; size = 4
?DrawInBox@C_GLOBAL_RESOURCE@@QAEXHHHH@Z PROC NEAR	; C_GLOBAL_RESOURCE::DrawInBox, COMDAT
; _this$ = ecx

; 275  : 	if(gpC_base->m_p_DDSurface_back->Lock())

  00000	a1 00 00 00 00	 mov	 eax, DWORD PTR ?gpC_base@@3PAVBase@@A ; gpC_base
  00005	56		 push	 esi
  00006	8b f1		 mov	 esi, ecx
  00008	8b 48 04	 mov	 ecx, DWORD PTR [eax+4]
  0000b	e8 00 00 00 00	 call	 ?Lock@CDirectDrawSurface@@QAE_NXZ ; CDirectDrawSurface::Lock
  00010	84 c0		 test	 al, al
  00012	74 29		 je	 SHORT $L90205

; 276  : 	{
; 277  : 		DrawInBoxLocked(x, y, w, h);

  00014	8b 4c 24 14	 mov	 ecx, DWORD PTR _h$[esp]
  00018	8b 54 24 10	 mov	 edx, DWORD PTR _w$[esp]
  0001c	8b 44 24 0c	 mov	 eax, DWORD PTR _y$[esp]
  00020	51		 push	 ecx
  00021	8b 4c 24 0c	 mov	 ecx, DWORD PTR _x$[esp+4]
  00025	52		 push	 edx
  00026	50		 push	 eax
  00027	51		 push	 ecx
  00028	8b ce		 mov	 ecx, esi
  0002a	e8 00 00 00 00	 call	 ?DrawInBoxLocked@C_GLOBAL_RESOURCE@@QAEXHHHH@Z ; C_GLOBAL_RESOURCE::DrawInBoxLocked

; 278  : 		gpC_base->m_p_DDSurface_back->Unlock();

  0002f	8b 15 00 00 00
	00		 mov	 edx, DWORD PTR ?gpC_base@@3PAVBase@@A ; gpC_base
  00035	8b 4a 04	 mov	 ecx, DWORD PTR [edx+4]
  00038	e8 00 00 00 00	 call	 ?Unlock@CDirectDrawSurface@@QAE_NXZ ; CDirectDrawSurface::Unlock
$L90205:
  0003d	5e		 pop	 esi

; 279  : 	}
; 280  : }

  0003e	c2 10 00	 ret	 16			; 00000010H
?DrawInBox@C_GLOBAL_RESOURCE@@QAEXHHHH@Z ENDP		; C_GLOBAL_RESOURCE::DrawInBox
_TEXT	ENDS
PUBLIC	?DrawInBoxLocked@C_GLOBAL_RESOURCE@@QAEXAAVRect@@@Z ; C_GLOBAL_RESOURCE::DrawInBoxLocked
; Function compile flags: /Ogty
;	COMDAT ?DrawInBoxLocked@C_GLOBAL_RESOURCE@@QAEXAAVRect@@@Z
_TEXT	SEGMENT
_rect$ = 8						; size = 4
?DrawInBoxLocked@C_GLOBAL_RESOURCE@@QAEXAAVRect@@@Z PROC NEAR ; C_GLOBAL_RESOURCE::DrawInBoxLocked, COMDAT
; _this$ = ecx

; 284  : 	DrawInBoxLocked(rect.x, rect.y, rect.w, rect.h);

  00000	8b 44 24 04	 mov	 eax, DWORD PTR _rect$[esp-4]
  00004	8b 50 0c	 mov	 edx, DWORD PTR [eax+12]
  00007	52		 push	 edx
  00008	8b 50 08	 mov	 edx, DWORD PTR [eax+8]
  0000b	52		 push	 edx
  0000c	8b 50 04	 mov	 edx, DWORD PTR [eax+4]
  0000f	8b 00		 mov	 eax, DWORD PTR [eax]
  00011	52		 push	 edx
  00012	50		 push	 eax
  00013	e8 00 00 00 00	 call	 ?DrawInBoxLocked@C_GLOBAL_RESOURCE@@QAEXHHHH@Z ; C_GLOBAL_RESOURCE::DrawInBoxLocked

; 285  : }

  00018	c2 04 00	 ret	 4
?DrawInBoxLocked@C_GLOBAL_RESOURCE@@QAEXAAVRect@@@Z ENDP ; C_GLOBAL_RESOURCE::DrawInBoxLocked
_TEXT	ENDS
PUBLIC	?DrawDialog@C_GLOBAL_RESOURCE@@QAEXHHHH_N@Z	; C_GLOBAL_RESOURCE::DrawDialog
; Function compile flags: /Ogty
;	COMDAT ?DrawDialog@C_GLOBAL_RESOURCE@@QAEXHHHH_N@Z
_TEXT	SEGMENT
_x$ = 8							; size = 4
_y$ = 12						; size = 4
_w$ = 16						; size = 4
_h$ = 20						; size = 4
_alpha$ = 24						; size = 1
?DrawDialog@C_GLOBAL_RESOURCE@@QAEXHHHH_N@Z PROC NEAR	; C_GLOBAL_RESOURCE::DrawDialog, COMDAT
; _this$ = ecx

; 312  : 	if(gpC_base->m_p_DDSurface_back->Lock())

  00000	a1 00 00 00 00	 mov	 eax, DWORD PTR ?gpC_base@@3PAVBase@@A ; gpC_base
  00005	56		 push	 esi
  00006	8b f1		 mov	 esi, ecx
  00008	8b 48 04	 mov	 ecx, DWORD PTR [eax+4]
  0000b	e8 00 00 00 00	 call	 ?Lock@CDirectDrawSurface@@QAE_NXZ ; CDirectDrawSurface::Lock
  00010	84 c0		 test	 al, al
  00012	74 2d		 je	 SHORT $L90231

; 313  : 	{
; 314  : 		DrawDialogLocked(x, y, w, h, alpha);

  00014	8b 4c 24 18	 mov	 ecx, DWORD PTR _alpha$[esp]
  00018	8b 54 24 14	 mov	 edx, DWORD PTR _h$[esp]
  0001c	8b 44 24 10	 mov	 eax, DWORD PTR _w$[esp]
  00020	51		 push	 ecx
  00021	8b 4c 24 10	 mov	 ecx, DWORD PTR _y$[esp+4]
  00025	52		 push	 edx
  00026	8b 54 24 10	 mov	 edx, DWORD PTR _x$[esp+8]
  0002a	50		 push	 eax
  0002b	51		 push	 ecx
  0002c	52		 push	 edx
  0002d	8b ce		 mov	 ecx, esi
  0002f	e8 00 00 00 00	 call	 ?DrawDialogLocked@C_GLOBAL_RESOURCE@@QAEXHHHH_N@Z ; C_GLOBAL_RESOURCE::DrawDialogLocked

; 315  : 		gpC_base->m_p_DDSurface_back->Unlock();

  00034	a1 00 00 00 00	 mov	 eax, DWORD PTR ?gpC_base@@3PAVBase@@A ; gpC_base
  00039	8b 48 04	 mov	 ecx, DWORD PTR [eax+4]
  0003c	e8 00 00 00 00	 call	 ?Unlock@CDirectDrawSurface@@QAE_NXZ ; CDirectDrawSurface::Unlock
$L90231:
  00041	5e		 pop	 esi

; 316  : 	}
; 317  : }

  00042	c2 14 00	 ret	 20			; 00000014H
?DrawDialog@C_GLOBAL_RESOURCE@@QAEXHHHH_N@Z ENDP	; C_GLOBAL_RESOURCE::DrawDialog
_TEXT	ENDS
PUBLIC	?DrawDialogLocked@C_GLOBAL_RESOURCE@@QAEXAAVRect@@_N@Z ; C_GLOBAL_RESOURCE::DrawDialogLocked
; Function compile flags: /Ogty
;	COMDAT ?DrawDialogLocked@C_GLOBAL_RESOURCE@@QAEXAAVRect@@_N@Z
_TEXT	SEGMENT
_rect$ = 8						; size = 4
_alpha$ = 12						; size = 1
?DrawDialogLocked@C_GLOBAL_RESOURCE@@QAEXAAVRect@@_N@Z PROC NEAR ; C_GLOBAL_RESOURCE::DrawDialogLocked, COMDAT
; _this$ = ecx

; 321  : 	DrawDialogLocked(rect.x, rect.y, rect.w, rect.h, alpha);

  00000	8b 44 24 08	 mov	 eax, DWORD PTR _alpha$[esp-4]
  00004	50		 push	 eax
  00005	8b 44 24 08	 mov	 eax, DWORD PTR _rect$[esp]
  00009	8b 50 0c	 mov	 edx, DWORD PTR [eax+12]
  0000c	52		 push	 edx
  0000d	8b 50 08	 mov	 edx, DWORD PTR [eax+8]
  00010	52		 push	 edx
  00011	8b 50 04	 mov	 edx, DWORD PTR [eax+4]
  00014	8b 00		 mov	 eax, DWORD PTR [eax]
  00016	52		 push	 edx
  00017	50		 push	 eax
  00018	e8 00 00 00 00	 call	 ?DrawDialogLocked@C_GLOBAL_RESOURCE@@QAEXHHHH_N@Z ; C_GLOBAL_RESOURCE::DrawDialogLocked

; 322  : }

  0001d	c2 08 00	 ret	 8
?DrawDialogLocked@C_GLOBAL_RESOURCE@@QAEXAAVRect@@_N@Z ENDP ; C_GLOBAL_RESOURCE::DrawDialogLocked
_TEXT	ENDS
PUBLIC	?DrawNPC@C_GLOBAL_RESOURCE@@QAEXHHHH_N@Z	; C_GLOBAL_RESOURCE::DrawNPC
; Function compile flags: /Ogty
;	COMDAT ?DrawNPC@C_GLOBAL_RESOURCE@@QAEXHHHH_N@Z
_TEXT	SEGMENT
_x$ = 8							; size = 4
_y$ = 12						; size = 4
_w$ = 16						; size = 4
_h$ = 20						; size = 4
_alpha$ = 24						; size = 1
?DrawNPC@C_GLOBAL_RESOURCE@@QAEXHHHH_N@Z PROC NEAR	; C_GLOBAL_RESOURCE::DrawNPC, COMDAT
; _this$ = ecx

; 380  : 	if(gpC_base->m_p_DDSurface_back->Lock())

  00000	a1 00 00 00 00	 mov	 eax, DWORD PTR ?gpC_base@@3PAVBase@@A ; gpC_base
  00005	56		 push	 esi
  00006	8b f1		 mov	 esi, ecx
  00008	8b 48 04	 mov	 ecx, DWORD PTR [eax+4]
  0000b	e8 00 00 00 00	 call	 ?Lock@CDirectDrawSurface@@QAE_NXZ ; CDirectDrawSurface::Lock
  00010	84 c0		 test	 al, al
  00012	74 2d		 je	 SHORT $L90259

; 381  : 	{
; 382  : 		DrawNPCLocked(x, y, w, h, alpha);

  00014	8b 4c 24 18	 mov	 ecx, DWORD PTR _alpha$[esp]
  00018	8b 54 24 14	 mov	 edx, DWORD PTR _h$[esp]
  0001c	8b 44 24 10	 mov	 eax, DWORD PTR _w$[esp]
  00020	51		 push	 ecx
  00021	8b 4c 24 10	 mov	 ecx, DWORD PTR _y$[esp+4]
  00025	52		 push	 edx
  00026	8b 54 24 10	 mov	 edx, DWORD PTR _x$[esp+8]
  0002a	50		 push	 eax
  0002b	51		 push	 ecx
  0002c	52		 push	 edx
  0002d	8b ce		 mov	 ecx, esi
  0002f	e8 00 00 00 00	 call	 ?DrawNPCLocked@C_GLOBAL_RESOURCE@@QAEXHHHH_N@Z ; C_GLOBAL_RESOURCE::DrawNPCLocked

; 383  : 		gpC_base->m_p_DDSurface_back->Unlock();

  00034	a1 00 00 00 00	 mov	 eax, DWORD PTR ?gpC_base@@3PAVBase@@A ; gpC_base
  00039	8b 48 04	 mov	 ecx, DWORD PTR [eax+4]
  0003c	e8 00 00 00 00	 call	 ?Unlock@CDirectDrawSurface@@QAE_NXZ ; CDirectDrawSurface::Unlock
$L90259:
  00041	5e		 pop	 esi

; 384  : 	}
; 385  : }

  00042	c2 14 00	 ret	 20			; 00000014H
?DrawNPC@C_GLOBAL_RESOURCE@@QAEXHHHH_N@Z ENDP		; C_GLOBAL_RESOURCE::DrawNPC
_TEXT	ENDS
PUBLIC	?DrawNPCLocked@C_GLOBAL_RESOURCE@@QAEXAAVRect@@_N@Z ; C_GLOBAL_RESOURCE::DrawNPCLocked
; Function compile flags: /Ogty
;	COMDAT ?DrawNPCLocked@C_GLOBAL_RESOURCE@@QAEXAAVRect@@_N@Z
_TEXT	SEGMENT
_rect$ = 8						; size = 4
_alpha$ = 12						; size = 1
?DrawNPCLocked@C_GLOBAL_RESOURCE@@QAEXAAVRect@@_N@Z PROC NEAR ; C_GLOBAL_RESOURCE::DrawNPCLocked, COMDAT
; _this$ = ecx

; 389  : 	DrawNPCLocked(rect.x, rect.y, rect.w, rect.h, alpha);

  00000	8b 44 24 08	 mov	 eax, DWORD PTR _alpha$[esp-4]
  00004	50		 push	 eax
  00005	8b 44 24 08	 mov	 eax, DWORD PTR _rect$[esp]
  00009	8b 50 0c	 mov	 edx, DWORD PTR [eax+12]
  0000c	52		 push	 edx
  0000d	8b 50 08	 mov	 edx, DWORD PTR [eax+8]
  00010	52		 push	 edx
  00011	8b 50 04	 mov	 edx, DWORD PTR [eax+4]
  00014	8b 00		 mov	 eax, DWORD PTR [eax]
  00016	52		 push	 edx
  00017	50		 push	 eax
  00018	e8 00 00 00 00	 call	 ?DrawNPCLocked@C_GLOBAL_RESOURCE@@QAEXHHHH_N@Z ; C_GLOBAL_RESOURCE::DrawNPCLocked

; 390  : }

  0001d	c2 08 00	 ret	 8
?DrawNPCLocked@C_GLOBAL_RESOURCE@@QAEXAAVRect@@_N@Z ENDP ; C_GLOBAL_RESOURCE::DrawNPCLocked
_TEXT	ENDS
PUBLIC	?DrawDialogOnly@C_GLOBAL_RESOURCE@@QAEXHHHH@Z	; C_GLOBAL_RESOURCE::DrawDialogOnly
; Function compile flags: /Ogty
;	COMDAT ?DrawDialogOnly@C_GLOBAL_RESOURCE@@QAEXHHHH@Z
_TEXT	SEGMENT
_x$ = 8							; size = 4
_y$ = 12						; size = 4
_w$ = 16						; size = 4
_h$ = 20						; size = 4
?DrawDialogOnly@C_GLOBAL_RESOURCE@@QAEXHHHH@Z PROC NEAR	; C_GLOBAL_RESOURCE::DrawDialogOnly, COMDAT
; _this$ = ecx

; 406  : 	if(gpC_base->m_p_DDSurface_back->Lock())

  00000	a1 00 00 00 00	 mov	 eax, DWORD PTR ?gpC_base@@3PAVBase@@A ; gpC_base
  00005	56		 push	 esi
  00006	8b f1		 mov	 esi, ecx
  00008	8b 48 04	 mov	 ecx, DWORD PTR [eax+4]
  0000b	e8 00 00 00 00	 call	 ?Lock@CDirectDrawSurface@@QAE_NXZ ; CDirectDrawSurface::Lock
  00010	84 c0		 test	 al, al
  00012	74 29		 je	 SHORT $L90285

; 407  : 	{
; 408  : 		DrawDialogOnlyLocked(x, y, w, h);

  00014	8b 4c 24 14	 mov	 ecx, DWORD PTR _h$[esp]
  00018	8b 54 24 10	 mov	 edx, DWORD PTR _w$[esp]
  0001c	8b 44 24 0c	 mov	 eax, DWORD PTR _y$[esp]
  00020	51		 push	 ecx
  00021	8b 4c 24 0c	 mov	 ecx, DWORD PTR _x$[esp+4]
  00025	52		 push	 edx
  00026	50		 push	 eax
  00027	51		 push	 ecx
  00028	8b ce		 mov	 ecx, esi
  0002a	e8 00 00 00 00	 call	 ?DrawDialogOnlyLocked@C_GLOBAL_RESOURCE@@QAEXHHHH@Z ; C_GLOBAL_RESOURCE::DrawDialogOnlyLocked

; 409  : 		gpC_base->m_p_DDSurface_back->Unlock();

  0002f	8b 15 00 00 00
	00		 mov	 edx, DWORD PTR ?gpC_base@@3PAVBase@@A ; gpC_base
  00035	8b 4a 04	 mov	 ecx, DWORD PTR [edx+4]
  00038	e8 00 00 00 00	 call	 ?Unlock@CDirectDrawSurface@@QAE_NXZ ; CDirectDrawSurface::Unlock
$L90285:
  0003d	5e		 pop	 esi

; 410  : 	}
; 411  : }

  0003e	c2 10 00	 ret	 16			; 00000010H
?DrawDialogOnly@C_GLOBAL_RESOURCE@@QAEXHHHH@Z ENDP	; C_GLOBAL_RESOURCE::DrawDialogOnly
_TEXT	ENDS
PUBLIC	?DrawDialogOnlyLocked@C_GLOBAL_RESOURCE@@QAEXAAVRect@@@Z ; C_GLOBAL_RESOURCE::DrawDialogOnlyLocked
; Function compile flags: /Ogty
;	COMDAT ?DrawDialogOnlyLocked@C_GLOBAL_RESOURCE@@QAEXAAVRect@@@Z
_TEXT	SEGMENT
_rect$ = 8						; size = 4
?DrawDialogOnlyLocked@C_GLOBAL_RESOURCE@@QAEXAAVRect@@@Z PROC NEAR ; C_GLOBAL_RESOURCE::DrawDialogOnlyLocked, COMDAT
; _this$ = ecx

; 415  : 	DrawDialogOnlyLocked(rect.x, rect.y, rect.w, rect.h);

  00000	8b 44 24 04	 mov	 eax, DWORD PTR _rect$[esp-4]
  00004	8b 50 0c	 mov	 edx, DWORD PTR [eax+12]
  00007	52		 push	 edx
  00008	8b 50 08	 mov	 edx, DWORD PTR [eax+8]
  0000b	52		 push	 edx
  0000c	8b 50 04	 mov	 edx, DWORD PTR [eax+4]
  0000f	8b 00		 mov	 eax, DWORD PTR [eax]
  00011	52		 push	 edx
  00012	50		 push	 eax
  00013	e8 00 00 00 00	 call	 ?DrawDialogOnlyLocked@C_GLOBAL_RESOURCE@@QAEXHHHH@Z ; C_GLOBAL_RESOURCE::DrawDialogOnlyLocked

; 416  : }

  00018	c2 04 00	 ret	 4
?DrawDialogOnlyLocked@C_GLOBAL_RESOURCE@@QAEXAAVRect@@@Z ENDP ; C_GLOBAL_RESOURCE::DrawDialogOnlyLocked
_TEXT	ENDS
PUBLIC	?DrawDialog2@C_GLOBAL_RESOURCE@@QAEXHHHH_N@Z	; C_GLOBAL_RESOURCE::DrawDialog2
; Function compile flags: /Ogty
;	COMDAT ?DrawDialog2@C_GLOBAL_RESOURCE@@QAEXHHHH_N@Z
_TEXT	SEGMENT
_x$ = 8							; size = 4
_y$ = 12						; size = 4
_w$ = 16						; size = 4
_h$ = 20						; size = 4
_alpha$ = 24						; size = 1
?DrawDialog2@C_GLOBAL_RESOURCE@@QAEXHHHH_N@Z PROC NEAR	; C_GLOBAL_RESOURCE::DrawDialog2, COMDAT
; _this$ = ecx

; 447  : 	if(gpC_base->m_p_DDSurface_back->Lock())

  00000	a1 00 00 00 00	 mov	 eax, DWORD PTR ?gpC_base@@3PAVBase@@A ; gpC_base
  00005	56		 push	 esi
  00006	8b f1		 mov	 esi, ecx
  00008	8b 48 04	 mov	 ecx, DWORD PTR [eax+4]
  0000b	e8 00 00 00 00	 call	 ?Lock@CDirectDrawSurface@@QAE_NXZ ; CDirectDrawSurface::Lock
  00010	84 c0		 test	 al, al
  00012	74 2d		 je	 SHORT $L90311

; 448  : 	{
; 449  : 		DrawDialogLocked2(x, y, w, h, alpha);

  00014	8b 4c 24 18	 mov	 ecx, DWORD PTR _alpha$[esp]
  00018	8b 54 24 14	 mov	 edx, DWORD PTR _h$[esp]
  0001c	8b 44 24 10	 mov	 eax, DWORD PTR _w$[esp]
  00020	51		 push	 ecx
  00021	8b 4c 24 10	 mov	 ecx, DWORD PTR _y$[esp+4]
  00025	52		 push	 edx
  00026	8b 54 24 10	 mov	 edx, DWORD PTR _x$[esp+8]
  0002a	50		 push	 eax
  0002b	51		 push	 ecx
  0002c	52		 push	 edx
  0002d	8b ce		 mov	 ecx, esi
  0002f	e8 00 00 00 00	 call	 ?DrawDialogLocked2@C_GLOBAL_RESOURCE@@QAEXHHHH_N@Z ; C_GLOBAL_RESOURCE::DrawDialogLocked2

; 450  : 		gpC_base->m_p_DDSurface_back->Unlock();

  00034	a1 00 00 00 00	 mov	 eax, DWORD PTR ?gpC_base@@3PAVBase@@A ; gpC_base
  00039	8b 48 04	 mov	 ecx, DWORD PTR [eax+4]
  0003c	e8 00 00 00 00	 call	 ?Unlock@CDirectDrawSurface@@QAE_NXZ ; CDirectDrawSurface::Unlock
$L90311:
  00041	5e		 pop	 esi

; 451  : 	}
; 452  : }

  00042	c2 14 00	 ret	 20			; 00000014H
?DrawDialog2@C_GLOBAL_RESOURCE@@QAEXHHHH_N@Z ENDP	; C_GLOBAL_RESOURCE::DrawDialog2
_TEXT	ENDS
PUBLIC	?DrawDialogLocked2@C_GLOBAL_RESOURCE@@QAEXAAVRect@@_N@Z ; C_GLOBAL_RESOURCE::DrawDialogLocked2
; Function compile flags: /Ogty
;	COMDAT ?DrawDialogLocked2@C_GLOBAL_RESOURCE@@QAEXAAVRect@@_N@Z
_TEXT	SEGMENT
_rect$ = 8						; size = 4
_alpha$ = 12						; size = 1
?DrawDialogLocked2@C_GLOBAL_RESOURCE@@QAEXAAVRect@@_N@Z PROC NEAR ; C_GLOBAL_RESOURCE::DrawDialogLocked2, COMDAT
; _this$ = ecx

; 456  : 	DrawDialogLocked2(rect.x, rect.y, rect.w, rect.h, alpha);

  00000	8b 44 24 08	 mov	 eax, DWORD PTR _alpha$[esp-4]
  00004	50		 push	 eax
  00005	8b 44 24 08	 mov	 eax, DWORD PTR _rect$[esp]
  00009	8b 50 0c	 mov	 edx, DWORD PTR [eax+12]
  0000c	52		 push	 edx
  0000d	8b 50 08	 mov	 edx, DWORD PTR [eax+8]
  00010	52		 push	 edx
  00011	8b 50 04	 mov	 edx, DWORD PTR [eax+4]
  00014	8b 00		 mov	 eax, DWORD PTR [eax]
  00016	52		 push	 edx
  00017	50		 push	 eax
  00018	e8 00 00 00 00	 call	 ?DrawDialogLocked2@C_GLOBAL_RESOURCE@@QAEXHHHH_N@Z ; C_GLOBAL_RESOURCE::DrawDialogLocked2

; 457  : }

  0001d	c2 08 00	 ret	 8
?DrawDialogLocked2@C_GLOBAL_RESOURCE@@QAEXAAVRect@@_N@Z ENDP ; C_GLOBAL_RESOURCE::DrawDialogLocked2
_TEXT	ENDS
PUBLIC	?DrawDialogOnly2@C_GLOBAL_RESOURCE@@QAEXHHHH@Z	; C_GLOBAL_RESOURCE::DrawDialogOnly2
; Function compile flags: /Ogty
;	COMDAT ?DrawDialogOnly2@C_GLOBAL_RESOURCE@@QAEXHHHH@Z
_TEXT	SEGMENT
_x$ = 8							; size = 4
_y$ = 12						; size = 4
_w$ = 16						; size = 4
_h$ = 20						; size = 4
?DrawDialogOnly2@C_GLOBAL_RESOURCE@@QAEXHHHH@Z PROC NEAR ; C_GLOBAL_RESOURCE::DrawDialogOnly2, COMDAT
; _this$ = ecx

; 591  : 	if(gpC_base->m_p_DDSurface_back->Lock())

  00000	a1 00 00 00 00	 mov	 eax, DWORD PTR ?gpC_base@@3PAVBase@@A ; gpC_base
  00005	56		 push	 esi
  00006	8b f1		 mov	 esi, ecx
  00008	8b 48 04	 mov	 ecx, DWORD PTR [eax+4]
  0000b	e8 00 00 00 00	 call	 ?Lock@CDirectDrawSurface@@QAE_NXZ ; CDirectDrawSurface::Lock
  00010	84 c0		 test	 al, al
  00012	74 29		 je	 SHORT $L90339

; 592  : 	{
; 593  : 		DrawDialogOnlyLocked2(x, y, w, h);

  00014	8b 4c 24 14	 mov	 ecx, DWORD PTR _h$[esp]
  00018	8b 54 24 10	 mov	 edx, DWORD PTR _w$[esp]
  0001c	8b 44 24 0c	 mov	 eax, DWORD PTR _y$[esp]
  00020	51		 push	 ecx
  00021	8b 4c 24 0c	 mov	 ecx, DWORD PTR _x$[esp+4]
  00025	52		 push	 edx
  00026	50		 push	 eax
  00027	51		 push	 ecx
  00028	8b ce		 mov	 ecx, esi
  0002a	e8 00 00 00 00	 call	 ?DrawDialogOnlyLocked2@C_GLOBAL_RESOURCE@@QAEXHHHH@Z ; C_GLOBAL_RESOURCE::DrawDialogOnlyLocked2

; 594  : 		gpC_base->m_p_DDSurface_back->Unlock();

  0002f	8b 15 00 00 00
	00		 mov	 edx, DWORD PTR ?gpC_base@@3PAVBase@@A ; gpC_base
  00035	8b 4a 04	 mov	 ecx, DWORD PTR [edx+4]
  00038	e8 00 00 00 00	 call	 ?Unlock@CDirectDrawSurface@@QAE_NXZ ; CDirectDrawSurface::Unlock
$L90339:
  0003d	5e		 pop	 esi

; 595  : 	}
; 596  : }

  0003e	c2 10 00	 ret	 16			; 00000010H
?DrawDialogOnly2@C_GLOBAL_RESOURCE@@QAEXHHHH@Z ENDP	; C_GLOBAL_RESOURCE::DrawDialogOnly2
_TEXT	ENDS
PUBLIC	?DrawDialogOnlyLocked2@C_GLOBAL_RESOURCE@@QAEXAAVRect@@@Z ; C_GLOBAL_RESOURCE::DrawDialogOnlyLocked2
; Function compile flags: /Ogty
;	COMDAT ?DrawDialogOnlyLocked2@C_GLOBAL_RESOURCE@@QAEXAAVRect@@@Z
_TEXT	SEGMENT
_rect$ = 8						; size = 4
?DrawDialogOnlyLocked2@C_GLOBAL_RESOURCE@@QAEXAAVRect@@@Z PROC NEAR ; C_GLOBAL_RESOURCE::DrawDialogOnlyLocked2, COMDAT
; _this$ = ecx

; 600  : 	DrawDialogOnlyLocked2(rect.x, rect.y, rect.w, rect.h);

  00000	8b 44 24 04	 mov	 eax, DWORD PTR _rect$[esp-4]
  00004	8b 50 0c	 mov	 edx, DWORD PTR [eax+12]
  00007	52		 push	 edx
  00008	8b 50 08	 mov	 edx, DWORD PTR [eax+8]
  0000b	52		 push	 edx
  0000c	8b 50 04	 mov	 edx, DWORD PTR [eax+4]
  0000f	8b 00		 mov	 eax, DWORD PTR [eax]
  00011	52		 push	 edx
  00012	50		 push	 eax
  00013	e8 00 00 00 00	 call	 ?DrawDialogOnlyLocked2@C_GLOBAL_RESOURCE@@QAEXHHHH@Z ; C_GLOBAL_RESOURCE::DrawDialogOnlyLocked2

; 601  : }

  00018	c2 04 00	 ret	 4
?DrawDialogOnlyLocked2@C_GLOBAL_RESOURCE@@QAEXAAVRect@@@Z ENDP ; C_GLOBAL_RESOURCE::DrawDialogOnlyLocked2
_TEXT	ENDS
PUBLIC	?DrawDialog4@C_GLOBAL_RESOURCE@@QAEXAAVRect@@_N@Z ; C_GLOBAL_RESOURCE::DrawDialog4
; Function compile flags: /Ogty
;	COMDAT ?DrawDialog4@C_GLOBAL_RESOURCE@@QAEXAAVRect@@_N@Z
_TEXT	SEGMENT
$T93840 = 8						; size = 4
_rect$ = 8						; size = 4
_alpha$ = 12						; size = 1
?DrawDialog4@C_GLOBAL_RESOURCE@@QAEXAAVRect@@_N@Z PROC NEAR ; C_GLOBAL_RESOURCE::DrawDialog4, COMDAT
; _this$ = ecx

; 627  : 	DrawDialog2(rect.x, rect.y, rect.w, rect.h, alpha);

  00000	8b 44 24 04	 mov	 eax, DWORD PTR _rect$[esp-4]
  00004	53		 push	 ebx
  00005	8b 58 08	 mov	 ebx, DWORD PTR [eax+8]
  00008	55		 push	 ebp
  00009	8b 68 04	 mov	 ebp, DWORD PTR [eax+4]
  0000c	56		 push	 esi
  0000d	8b f1		 mov	 esi, ecx
  0000f	8b 0d 00 00 00
	00		 mov	 ecx, DWORD PTR ?gpC_base@@3PAVBase@@A ; gpC_base
  00015	8b 49 04	 mov	 ecx, DWORD PTR [ecx+4]
  00018	57		 push	 edi
  00019	8b 78 0c	 mov	 edi, DWORD PTR [eax+12]
  0001c	8b 00		 mov	 eax, DWORD PTR [eax]
  0001e	89 44 24 14	 mov	 DWORD PTR $T93840[esp+12], eax
  00022	e8 00 00 00 00	 call	 ?Lock@CDirectDrawSurface@@QAE_NXZ ; CDirectDrawSurface::Lock
  00027	84 c0		 test	 al, al
  00029	74 22		 je	 SHORT $L93835
  0002b	8b 54 24 18	 mov	 edx, DWORD PTR _alpha$[esp+12]
  0002f	8b 44 24 14	 mov	 eax, DWORD PTR $T93840[esp+12]
  00033	52		 push	 edx
  00034	57		 push	 edi
  00035	53		 push	 ebx
  00036	55		 push	 ebp
  00037	50		 push	 eax
  00038	8b ce		 mov	 ecx, esi
  0003a	e8 00 00 00 00	 call	 ?DrawDialogLocked2@C_GLOBAL_RESOURCE@@QAEXHHHH_N@Z ; C_GLOBAL_RESOURCE::DrawDialogLocked2
  0003f	8b 0d 00 00 00
	00		 mov	 ecx, DWORD PTR ?gpC_base@@3PAVBase@@A ; gpC_base
  00045	8b 49 04	 mov	 ecx, DWORD PTR [ecx+4]
  00048	e8 00 00 00 00	 call	 ?Unlock@CDirectDrawSurface@@QAE_NXZ ; CDirectDrawSurface::Unlock
$L93835:
  0004d	5f		 pop	 edi
  0004e	5e		 pop	 esi
  0004f	5d		 pop	 ebp
  00050	5b		 pop	 ebx

; 628  : }

  00051	c2 08 00	 ret	 8
?DrawDialog4@C_GLOBAL_RESOURCE@@QAEXAAVRect@@_N@Z ENDP	; C_GLOBAL_RESOURCE::DrawDialog4
_TEXT	ENDS
PUBLIC	??_ECSprite565@@QAEPAXI@Z			; CSprite565::`vector deleting destructor'
EXTRN	??_M@YGXPAXIHP6EX0@Z@Z:NEAR			; `eh vector destructor iterator'
EXTRN	??_V@YAXPAX@Z:NEAR				; operator delete[]
; Function compile flags: /Ogty
;	COMDAT ??_ECSprite565@@QAEPAXI@Z
_TEXT	SEGMENT
___flags$ = 8						; size = 4
??_ECSprite565@@QAEPAXI@Z PROC NEAR			; CSprite565::`vector deleting destructor', COMDAT
; _this$ = ecx
  00000	53		 push	 ebx
  00001	8a 5c 24 08	 mov	 bl, BYTE PTR ___flags$[esp]
  00005	f6 c3 02	 test	 bl, 2
  00008	56		 push	 esi
  00009	8b f1		 mov	 esi, ecx
  0000b	74 2b		 je	 SHORT $L91718
  0000d	8b 46 fc	 mov	 eax, DWORD PTR [esi-4]
  00010	57		 push	 edi
  00011	68 00 00 00 00	 push	 OFFSET FLAT:??1CSprite565@@QAE@XZ
  00016	8d 7e fc	 lea	 edi, DWORD PTR [esi-4]
  00019	50		 push	 eax
  0001a	6a 10		 push	 16			; 00000010H
  0001c	56		 push	 esi
  0001d	e8 00 00 00 00	 call	 ??_M@YGXPAXIHP6EX0@Z@Z
  00022	f6 c3 01	 test	 bl, 1
  00025	74 09		 je	 SHORT $L91719
  00027	57		 push	 edi
  00028	e8 00 00 00 00	 call	 ??_V@YAXPAX@Z		; operator delete[]
  0002d	83 c4 04	 add	 esp, 4
$L91719:
  00030	8b c7		 mov	 eax, edi
  00032	5f		 pop	 edi
  00033	5e		 pop	 esi
  00034	5b		 pop	 ebx
  00035	c2 04 00	 ret	 4
$L91718:
  00038	8b ce		 mov	 ecx, esi
  0003a	e8 00 00 00 00	 call	 ??1CSprite565@@QAE@XZ
  0003f	f6 c3 01	 test	 bl, 1
  00042	74 09		 je	 SHORT $L91721
  00044	56		 push	 esi
  00045	e8 00 00 00 00	 call	 ??3@YAXPAX@Z		; operator delete
  0004a	83 c4 04	 add	 esp, 4
$L91721:
  0004d	8b c6		 mov	 eax, esi
  0004f	5e		 pop	 esi
  00050	5b		 pop	 ebx
  00051	c2 04 00	 ret	 4
??_ECSprite565@@QAEPAXI@Z ENDP				; CSprite565::`vector deleting destructor'
_TEXT	ENDS
PUBLIC	??_ECSprite555@@QAEPAXI@Z			; CSprite555::`vector deleting destructor'
; Function compile flags: /Ogty
;	COMDAT ??_ECSprite555@@QAEPAXI@Z
_TEXT	SEGMENT
___flags$ = 8						; size = 4
??_ECSprite555@@QAEPAXI@Z PROC NEAR			; CSprite555::`vector deleting destructor', COMDAT
; _this$ = ecx
  00000	53		 push	 ebx
  00001	8a 5c 24 08	 mov	 bl, BYTE PTR ___flags$[esp]
  00005	f6 c3 02	 test	 bl, 2
  00008	56		 push	 esi
  00009	8b f1		 mov	 esi, ecx
  0000b	74 2b		 je	 SHORT $L91728
  0000d	8b 46 fc	 mov	 eax, DWORD PTR [esi-4]
  00010	57		 push	 edi
  00011	68 00 00 00 00	 push	 OFFSET FLAT:??1CSprite555@@QAE@XZ
  00016	8d 7e fc	 lea	 edi, DWORD PTR [esi-4]
  00019	50		 push	 eax
  0001a	6a 10		 push	 16			; 00000010H
  0001c	56		 push	 esi
  0001d	e8 00 00 00 00	 call	 ??_M@YGXPAXIHP6EX0@Z@Z
  00022	f6 c3 01	 test	 bl, 1
  00025	74 09		 je	 SHORT $L91729
  00027	57		 push	 edi
  00028	e8 00 00 00 00	 call	 ??_V@YAXPAX@Z		; operator delete[]
  0002d	83 c4 04	 add	 esp, 4
$L91729:
  00030	8b c7		 mov	 eax, edi
  00032	5f		 pop	 edi
  00033	5e		 pop	 esi
  00034	5b		 pop	 ebx
  00035	c2 04 00	 ret	 4
$L91728:
  00038	8b ce		 mov	 ecx, esi
  0003a	e8 00 00 00 00	 call	 ??1CSprite555@@QAE@XZ
  0003f	f6 c3 01	 test	 bl, 1
  00042	74 09		 je	 SHORT $L91731
  00044	56		 push	 esi
  00045	e8 00 00 00 00	 call	 ??3@YAXPAX@Z		; operator delete
  0004a	83 c4 04	 add	 esp, 4
$L91731:
  0004d	8b c6		 mov	 eax, esi
  0004f	5e		 pop	 esi
  00050	5b		 pop	 ebx
  00051	c2 04 00	 ret	 4
??_ECSprite555@@QAEPAXI@Z ENDP				; CSprite555::`vector deleting destructor'
_TEXT	ENDS
PUBLIC	??1C_GLOBAL_RESOURCE@@QAE@XZ			; C_GLOBAL_RESOURCE::~C_GLOBAL_RESOURCE
; Function compile flags: /Ogty
;	COMDAT ??1C_GLOBAL_RESOURCE@@QAE@XZ
_TEXT	SEGMENT
??1C_GLOBAL_RESOURCE@@QAE@XZ PROC NEAR			; C_GLOBAL_RESOURCE::~C_GLOBAL_RESOURCE, COMDAT
; _this$ = ecx

; 49   : 	//FreeAniButton();
; 50   : //	FreeAssembleBox();
; 51   : 	//FreeCommonImage();
; 52   : //	FreeCommonButton();
; 53   : 	//FreeCommonInTitle();
; 54   : 	FreeAssemble();

  00000	e9 00 00 00 00	 jmp	 ?FreeAssemble@C_GLOBAL_RESOURCE@@QAEXXZ ; C_GLOBAL_RESOURCE::FreeAssemble
??1C_GLOBAL_RESOURCE@@QAE@XZ ENDP			; C_GLOBAL_RESOURCE::~C_GLOBAL_RESOURCE
_TEXT	ENDS
PUBLIC	??_C@_0CK@MCOKEDJH@data?2ui?2spk?2AssembleMessageBoxVa@ ; `string'
PUBLIC	??_C@_0DA@LJNMHHDD@data?2ui?2spk?2AssembleMessageBoxBu@ ; `string'
PUBLIC	??_C@_0BM@FPEINDII@data?2ui?2spk?2InfoVampire?4spk?$AA@ ; `string'
PUBLIC	??_C@_0CK@KLNPDHCN@data?2ui?2spk?2AssembleMessageBoxOu@ ; `string'
PUBLIC	??_C@_0DA@NAOJADIJ@data?2ui?2spk?2AssembleMessageBoxBu@ ; `string'
PUBLIC	??_C@_0BM@DGHNKHDC@data?2ui?2spk?2InfoOusters?4spk?$AA@ ; `string'
PUBLIC	?LoadAssemble@C_GLOBAL_RESOURCE@@QAEXXZ		; C_GLOBAL_RESOURCE::LoadAssemble
PUBLIC	??_C@_0BK@CPILBBCJ@data?2ui?2spk?2ScrollBar?4spk?$AA@ ; `string'
PUBLIC	??_C@_0CD@BIOJOJAF@data?2ui?2spk?2AssembleMessageBox?4s@ ; `string'
PUBLIC	??_C@_0BN@DFFDAEFD@data?2ui?2spk?2CommonButton?4spk?$AA@ ; `string'
PUBLIC	??_C@_0BK@HGEIHNAH@data?2ui?2spk?2npcdialog?4spk?$AA@ ; `string'
PUBLIC	??_C@_0BP@DBANJJEF@data?2ui?2spk?2npcmenu_normal?4spk?$AA@ ; `string'
PUBLIC	??_C@_0BL@JAHNFGLE@data?2ui?2spk?2InfoSlayer?4spk?$AA@ ; `string'
PUBLIC	??_C@_0CJ@OAJKOGDB@data?2ui?2spk?2AssembleMessageBoxSl@ ; `string'
PUBLIC	??_C@_0CP@GHIFOMPL@data?2ui?2spk?2AssembleMessageBoxBu@ ; `string'
EXTRN	??2@YAPAXI@Z:NEAR				; operator new
EXTRN	??0C_SPRITE_PACK@@QAE@PBD@Z:NEAR		; C_SPRITE_PACK::C_SPRITE_PACK
;	COMDAT xdata$x
xdata$x	SEGMENT
$T93926	DD	0ffffffffH
	DD	FLAT:$L93909
	DD	0ffffffffH
	DD	FLAT:$L93910
	DD	0ffffffffH
	DD	FLAT:$L93911
	DD	0ffffffffH
	DD	FLAT:$L93912
	DD	0ffffffffH
	DD	FLAT:$L93913
	DD	0ffffffffH
	DD	FLAT:$L93914
	DD	0ffffffffH
	DD	FLAT:$L93915
	DD	0ffffffffH
	DD	FLAT:$L93916
	DD	0ffffffffH
	DD	FLAT:$L93917
	DD	0ffffffffH
	DD	FLAT:$L93918
	DD	0ffffffffH
	DD	FLAT:$L93919
	DD	0ffffffffH
	DD	FLAT:$L93920
	DD	0ffffffffH
	DD	FLAT:$L93921
	DD	0ffffffffH
	DD	FLAT:$L93922
$T93924	DD	019930520H
	DD	0eH
	DD	FLAT:$T93926
	DD	2 DUP(00H)
	DD	2 DUP(00H)
xdata$x	ENDS
;	COMDAT ??_C@_0BK@CPILBBCJ@data?2ui?2spk?2ScrollBar?4spk?$AA@
CONST	SEGMENT
??_C@_0BK@CPILBBCJ@data?2ui?2spk?2ScrollBar?4spk?$AA@ DB 'data\ui\spk\Scr'
	DB	'ollBar.spk', 00H				; `string'
CONST	ENDS
;	COMDAT ??_C@_0CD@BIOJOJAF@data?2ui?2spk?2AssembleMessageBox?4s@
CONST	SEGMENT
??_C@_0CD@BIOJOJAF@data?2ui?2spk?2AssembleMessageBox?4s@ DB 'data\ui\spk\'
	DB	'AssembleMessageBox.spk', 00H		; `string'
CONST	ENDS
;	COMDAT ??_C@_0BN@DFFDAEFD@data?2ui?2spk?2CommonButton?4spk?$AA@
CONST	SEGMENT
??_C@_0BN@DFFDAEFD@data?2ui?2spk?2CommonButton?4spk?$AA@ DB 'data\ui\spk\'
	DB	'CommonButton.spk', 00H			; `string'
CONST	ENDS
;	COMDAT ??_C@_0BK@HGEIHNAH@data?2ui?2spk?2npcdialog?4spk?$AA@
CONST	SEGMENT
??_C@_0BK@HGEIHNAH@data?2ui?2spk?2npcdialog?4spk?$AA@ DB 'data\ui\spk\npc'
	DB	'dialog.spk', 00H				; `string'
CONST	ENDS
;	COMDAT ??_C@_0BP@DBANJJEF@data?2ui?2spk?2npcmenu_normal?4spk?$AA@
CONST	SEGMENT
??_C@_0BP@DBANJJEF@data?2ui?2spk?2npcmenu_normal?4spk?$AA@ DB 'data\ui\sp'
	DB	'k\npcmenu_normal.spk', 00H			; `string'
CONST	ENDS
;	COMDAT ??_C@_0CK@KLNPDHCN@data?2ui?2spk?2AssembleMessageBoxOu@
CONST	SEGMENT
??_C@_0CK@KLNPDHCN@data?2ui?2spk?2AssembleMessageBoxOu@ DB 'data\ui\spk\A'
	DB	'ssembleMessageBoxOusters.spk', 00H		; `string'
CONST	ENDS
;	COMDAT ??_C@_0DA@NAOJADIJ@data?2ui?2spk?2AssembleMessageBoxBu@
CONST	SEGMENT
??_C@_0DA@NAOJADIJ@data?2ui?2spk?2AssembleMessageBoxBu@ DB 'data\ui\spk\A'
	DB	'ssembleMessageBoxButtonOusters.spk', 00H	; `string'
CONST	ENDS
;	COMDAT ??_C@_0BM@DGHNKHDC@data?2ui?2spk?2InfoOusters?4spk?$AA@
CONST	SEGMENT
??_C@_0BM@DGHNKHDC@data?2ui?2spk?2InfoOusters?4spk?$AA@ DB 'data\ui\spk\I'
	DB	'nfoOusters.spk', 00H			; `string'
CONST	ENDS
;	COMDAT ??_C@_0CK@MCOKEDJH@data?2ui?2spk?2AssembleMessageBoxVa@
CONST	SEGMENT
??_C@_0CK@MCOKEDJH@data?2ui?2spk?2AssembleMessageBoxVa@ DB 'data\ui\spk\A'
	DB	'ssembleMessageBoxVampire.spk', 00H		; `string'
CONST	ENDS
;	COMDAT ??_C@_0DA@LJNMHHDD@data?2ui?2spk?2AssembleMessageBoxBu@
CONST	SEGMENT
??_C@_0DA@LJNMHHDD@data?2ui?2spk?2AssembleMessageBoxBu@ DB 'data\ui\spk\A'
	DB	'ssembleMessageBoxButtonVampire.spk', 00H	; `string'
CONST	ENDS
;	COMDAT ??_C@_0BM@FPEINDII@data?2ui?2spk?2InfoVampire?4spk?$AA@
CONST	SEGMENT
??_C@_0BM@FPEINDII@data?2ui?2spk?2InfoVampire?4spk?$AA@ DB 'data\ui\spk\I'
	DB	'nfoVampire.spk', 00H			; `string'
CONST	ENDS
;	COMDAT ??_C@_0BL@JAHNFGLE@data?2ui?2spk?2InfoSlayer?4spk?$AA@
CONST	SEGMENT
??_C@_0BL@JAHNFGLE@data?2ui?2spk?2InfoSlayer?4spk?$AA@ DB 'data\ui\spk\In'
	DB	'foSlayer.spk', 00H				; `string'
CONST	ENDS
;	COMDAT ??_C@_0CJ@OAJKOGDB@data?2ui?2spk?2AssembleMessageBoxSl@
CONST	SEGMENT
??_C@_0CJ@OAJKOGDB@data?2ui?2spk?2AssembleMessageBoxSl@ DB 'data\ui\spk\A'
	DB	'ssembleMessageBoxSlayer.spk', 00H		; `string'
CONST	ENDS
;	COMDAT ??_C@_0CP@GHIFOMPL@data?2ui?2spk?2AssembleMessageBoxBu@
CONST	SEGMENT
??_C@_0CP@GHIFOMPL@data?2ui?2spk?2AssembleMessageBoxBu@ DB 'data\ui\spk\A'
	DB	'ssembleMessageBoxButtonSlayer.spk', 00H	; `string'
; Function compile flags: /Ogty
CONST	ENDS
;	COMDAT ?LoadAssemble@C_GLOBAL_RESOURCE@@QAEXXZ
_TEXT	SEGMENT
$T93906 = -16						; size = 4
$T93902 = -16						; size = 4
$T93898 = -16						; size = 4
$T93894 = -16						; size = 4
$T93890 = -16						; size = 4
$T93886 = -16						; size = 4
$T93882 = -16						; size = 4
$T93878 = -16						; size = 4
$T93874 = -16						; size = 4
$T93870 = -16						; size = 4
$T93866 = -16						; size = 4
$T93862 = -16						; size = 4
$T93858 = -16						; size = 4
$T93854 = -16						; size = 4
__$EHRec$ = -12						; size = 12
?LoadAssemble@C_GLOBAL_RESOURCE@@QAEXXZ PROC NEAR	; C_GLOBAL_RESOURCE::LoadAssemble, COMDAT
; _this$ = ecx

; 63   : {

  00000	6a ff		 push	 -1
  00002	68 00 00 00 00	 push	 __ehhandler$?LoadAssemble@C_GLOBAL_RESOURCE@@QAEXXZ
  00007	64 a1 00 00 00
	00		 mov	 eax, DWORD PTR fs:__except_list
  0000d	50		 push	 eax
  0000e	64 89 25 00 00
	00 00		 mov	 DWORD PTR fs:__except_list, esp
  00015	51		 push	 ecx
  00016	56		 push	 esi
  00017	57		 push	 edi
  00018	8b f1		 mov	 esi, ecx

; 64   : 	FreeAssemble();

  0001a	e8 00 00 00 00	 call	 ?FreeAssemble@C_GLOBAL_RESOURCE@@QAEXXZ ; C_GLOBAL_RESOURCE::FreeAssemble

; 65   : 
; 66   : 	m_pC_scroll_bar_spk		= new C_SPRITE_PACK(SPK_SCROLL_BAR);

  0001f	6a 48		 push	 72			; 00000048H
  00021	e8 00 00 00 00	 call	 ??2@YAPAXI@Z		; operator new
  00026	83 c4 04	 add	 esp, 4
  00029	89 44 24 08	 mov	 DWORD PTR $T93854[esp+24], eax
  0002d	85 c0		 test	 eax, eax
  0002f	c7 44 24 14 00
	00 00 00	 mov	 DWORD PTR __$EHRec$[esp+32], 0
  00037	74 0e		 je	 SHORT $L93855
  00039	68 00 00 00 00	 push	 OFFSET FLAT:??_C@_0BK@CPILBBCJ@data?2ui?2spk?2ScrollBar?4spk?$AA@
  0003e	8b c8		 mov	 ecx, eax
  00040	e8 00 00 00 00	 call	 ??0C_SPRITE_PACK@@QAE@PBD@Z ; C_SPRITE_PACK::C_SPRITE_PACK
  00045	eb 02		 jmp	 SHORT $L93856
$L93855:
  00047	33 c0		 xor	 eax, eax
$L93856:
  00049	83 cf ff	 or	 edi, -1

; 67   : 	m_pC_box_spk			= new C_SPRITE_PACK(SPK_BOX);

  0004c	6a 48		 push	 72			; 00000048H
  0004e	89 7c 24 18	 mov	 DWORD PTR __$EHRec$[esp+36], edi
  00052	89 46 08	 mov	 DWORD PTR [esi+8], eax
  00055	e8 00 00 00 00	 call	 ??2@YAPAXI@Z		; operator new
  0005a	83 c4 04	 add	 esp, 4
  0005d	89 44 24 08	 mov	 DWORD PTR $T93858[esp+24], eax
  00061	85 c0		 test	 eax, eax
  00063	c7 44 24 14 01
	00 00 00	 mov	 DWORD PTR __$EHRec$[esp+32], 1
  0006b	74 0e		 je	 SHORT $L93859
  0006d	68 00 00 00 00	 push	 OFFSET FLAT:??_C@_0CD@BIOJOJAF@data?2ui?2spk?2AssembleMessageBox?4s@
  00072	8b c8		 mov	 ecx, eax
  00074	e8 00 00 00 00	 call	 ??0C_SPRITE_PACK@@QAE@PBD@Z ; C_SPRITE_PACK::C_SPRITE_PACK
  00079	eb 02		 jmp	 SHORT $L93860
$L93859:
  0007b	33 c0		 xor	 eax, eax
$L93860:

; 68   : 	m_pC_common_button_spk	= new C_SPRITE_PACK(SPK_COMMON_BUTTON);

  0007d	6a 48		 push	 72			; 00000048H
  0007f	89 7c 24 18	 mov	 DWORD PTR __$EHRec$[esp+36], edi
  00083	89 46 0c	 mov	 DWORD PTR [esi+12], eax
  00086	e8 00 00 00 00	 call	 ??2@YAPAXI@Z		; operator new
  0008b	83 c4 04	 add	 esp, 4
  0008e	89 44 24 08	 mov	 DWORD PTR $T93862[esp+24], eax
  00092	85 c0		 test	 eax, eax
  00094	c7 44 24 14 02
	00 00 00	 mov	 DWORD PTR __$EHRec$[esp+32], 2
  0009c	74 0e		 je	 SHORT $L93863
  0009e	68 00 00 00 00	 push	 OFFSET FLAT:??_C@_0BN@DFFDAEFD@data?2ui?2spk?2CommonButton?4spk?$AA@
  000a3	8b c8		 mov	 ecx, eax
  000a5	e8 00 00 00 00	 call	 ??0C_SPRITE_PACK@@QAE@PBD@Z ; C_SPRITE_PACK::C_SPRITE_PACK
  000aa	eb 02		 jmp	 SHORT $L93864
$L93863:
  000ac	33 c0		 xor	 eax, eax
$L93864:

; 69   : 	//m_pC_hays_spk			= new C_SPRITE_PACK("data\\ui\\spk\\new\\renewalfriend\\00000.spk");
; 70   : 	//m_Tmall_spk				= new C_SPRITE_PACK(_ROOT"spk\\shopmall.spk");
; 71   : 	//m_PayEvent_spk			= new C_SPRITE_PACK(_ROOT"spk\\pay.spk");//SPK
; 72   : 	m_New_NpcDialog_spk = new C_SPRITE_PACK(SPK_NEW_NPC_DIALOG);

  000ae	6a 48		 push	 72			; 00000048H
  000b0	89 7c 24 18	 mov	 DWORD PTR __$EHRec$[esp+36], edi
  000b4	89 46 14	 mov	 DWORD PTR [esi+20], eax
  000b7	e8 00 00 00 00	 call	 ??2@YAPAXI@Z		; operator new
  000bc	83 c4 04	 add	 esp, 4
  000bf	89 44 24 08	 mov	 DWORD PTR $T93866[esp+24], eax
  000c3	85 c0		 test	 eax, eax
  000c5	c7 44 24 14 03
	00 00 00	 mov	 DWORD PTR __$EHRec$[esp+32], 3
  000cd	74 0e		 je	 SHORT $L93867
  000cf	68 00 00 00 00	 push	 OFFSET FLAT:??_C@_0BK@HGEIHNAH@data?2ui?2spk?2npcdialog?4spk?$AA@
  000d4	8b c8		 mov	 ecx, eax
  000d6	e8 00 00 00 00	 call	 ??0C_SPRITE_PACK@@QAE@PBD@Z ; C_SPRITE_PACK::C_SPRITE_PACK
  000db	eb 02		 jmp	 SHORT $L93868
$L93867:
  000dd	33 c0		 xor	 eax, eax
$L93868:

; 73   : 	m_pC_NpcIcon_spk = new C_SPRITE_PACK(SPK_NPC_ICON);

  000df	6a 48		 push	 72			; 00000048H
  000e1	89 7c 24 18	 mov	 DWORD PTR __$EHRec$[esp+36], edi
  000e5	89 46 18	 mov	 DWORD PTR [esi+24], eax
  000e8	e8 00 00 00 00	 call	 ??2@YAPAXI@Z		; operator new
  000ed	83 c4 04	 add	 esp, 4
  000f0	89 44 24 08	 mov	 DWORD PTR $T93870[esp+24], eax
  000f4	85 c0		 test	 eax, eax
  000f6	c7 44 24 14 04
	00 00 00	 mov	 DWORD PTR __$EHRec$[esp+32], 4
  000fe	74 0e		 je	 SHORT $L93871
  00100	68 00 00 00 00	 push	 OFFSET FLAT:??_C@_0BP@DBANJJEF@data?2ui?2spk?2npcmenu_normal?4spk?$AA@
  00105	8b c8		 mov	 ecx, eax
  00107	e8 00 00 00 00	 call	 ??0C_SPRITE_PACK@@QAE@PBD@Z ; C_SPRITE_PACK::C_SPRITE_PACK
  0010c	eb 02		 jmp	 SHORT $L93872
$L93871:
  0010e	33 c0		 xor	 eax, eax
$L93872:
  00110	89 46 1c	 mov	 DWORD PTR [esi+28], eax

; 74   : 	//m_New_NpcDialog_spk		= new C_SPRITE_PACK(_ROOT"spk\\npcdialog.spk");//NPC
; 75   : 
; 76   : 	switch(g_eRaceInterface)

  00113	a1 00 00 00 00	 mov	 eax, DWORD PTR ?g_eRaceInterface@@3W4Race@@A ; g_eRaceInterface
  00118	83 e8 00	 sub	 eax, 0
  0011b	89 7c 24 14	 mov	 DWORD PTR __$EHRec$[esp+32], edi
  0011f	0f 84 5e 01 00
	00		 je	 $L90091
  00125	48		 dec	 eax
  00126	0f 84 b8 00 00
	00		 je	 $L90107
  0012c	48		 dec	 eax
  0012d	0f 85 f0 01 00
	00		 jne	 $L90088

; 88   : 		break;
; 89   : 
; 90   : 	case RACE_OUSTERS:
; 91   : 		m_pC_assemble_box_spk = new C_SPRITE_PACK(SPK_ASSEMBLE_BOX_OUSTERS);

  00133	6a 48		 push	 72			; 00000048H
  00135	e8 00 00 00 00	 call	 ??2@YAPAXI@Z		; operator new
  0013a	83 c4 04	 add	 esp, 4
  0013d	89 44 24 08	 mov	 DWORD PTR $T93898[esp+24], eax
  00141	85 c0		 test	 eax, eax
  00143	c7 44 24 14 0b
	00 00 00	 mov	 DWORD PTR __$EHRec$[esp+32], 11 ; 0000000bH
  0014b	74 0e		 je	 SHORT $L93899
  0014d	68 00 00 00 00	 push	 OFFSET FLAT:??_C@_0CK@KLNPDHCN@data?2ui?2spk?2AssembleMessageBoxOu@
  00152	8b c8		 mov	 ecx, eax
  00154	e8 00 00 00 00	 call	 ??0C_SPRITE_PACK@@QAE@PBD@Z ; C_SPRITE_PACK::C_SPRITE_PACK
  00159	eb 02		 jmp	 SHORT $L93900
$L93899:
  0015b	33 c0		 xor	 eax, eax
$L93900:

; 92   : 		m_pC_assemble_box_button_spk = new C_SPRITE_PACK(SPK_ASSEMBLE_BOX_BUTTON_OUSTERS);

  0015d	6a 48		 push	 72			; 00000048H
  0015f	89 7c 24 18	 mov	 DWORD PTR __$EHRec$[esp+36], edi
  00163	89 06		 mov	 DWORD PTR [esi], eax
  00165	e8 00 00 00 00	 call	 ??2@YAPAXI@Z		; operator new
  0016a	83 c4 04	 add	 esp, 4
  0016d	89 44 24 08	 mov	 DWORD PTR $T93902[esp+24], eax
  00171	85 c0		 test	 eax, eax
  00173	c7 44 24 14 0c
	00 00 00	 mov	 DWORD PTR __$EHRec$[esp+32], 12 ; 0000000cH
  0017b	74 0e		 je	 SHORT $L93903
  0017d	68 00 00 00 00	 push	 OFFSET FLAT:??_C@_0DA@NAOJADIJ@data?2ui?2spk?2AssembleMessageBoxBu@
  00182	8b c8		 mov	 ecx, eax
  00184	e8 00 00 00 00	 call	 ??0C_SPRITE_PACK@@QAE@PBD@Z ; C_SPRITE_PACK::C_SPRITE_PACK
  00189	eb 02		 jmp	 SHORT $L93904
$L93903:
  0018b	33 c0		 xor	 eax, eax
$L93904:

; 93   : 		m_pC_info_spk = new C_SPRITE_PACK(SPK_INFO_OUSTERS);

  0018d	6a 48		 push	 72			; 00000048H
  0018f	89 7c 24 18	 mov	 DWORD PTR __$EHRec$[esp+36], edi
  00193	89 46 04	 mov	 DWORD PTR [esi+4], eax
  00196	e8 00 00 00 00	 call	 ??2@YAPAXI@Z		; operator new
  0019b	83 c4 04	 add	 esp, 4
  0019e	89 44 24 08	 mov	 DWORD PTR $T93906[esp+24], eax
  001a2	85 c0		 test	 eax, eax
  001a4	c7 44 24 14 0d
	00 00 00	 mov	 DWORD PTR __$EHRec$[esp+32], 13 ; 0000000dH
  001ac	74 20		 je	 SHORT $L93907
  001ae	68 00 00 00 00	 push	 OFFSET FLAT:??_C@_0BM@DGHNKHDC@data?2ui?2spk?2InfoOusters?4spk?$AA@
  001b3	8b c8		 mov	 ecx, eax
  001b5	e8 00 00 00 00	 call	 ??0C_SPRITE_PACK@@QAE@PBD@Z ; C_SPRITE_PACK::C_SPRITE_PACK
  001ba	5f		 pop	 edi
  001bb	89 46 10	 mov	 DWORD PTR [esi+16], eax
  001be	5e		 pop	 esi

; 94   : 		break;
; 95   : 	}	
; 96   : }

  001bf	8b 4c 24 04	 mov	 ecx, DWORD PTR __$EHRec$[esp+16]
  001c3	64 89 0d 00 00
	00 00		 mov	 DWORD PTR fs:__except_list, ecx
  001ca	83 c4 10	 add	 esp, 16			; 00000010H
  001cd	c3		 ret	 0
$L93907:

; 93   : 		m_pC_info_spk = new C_SPRITE_PACK(SPK_INFO_OUSTERS);

  001ce	33 c0		 xor	 eax, eax
  001d0	5f		 pop	 edi
  001d1	89 46 10	 mov	 DWORD PTR [esi+16], eax
  001d4	5e		 pop	 esi

; 94   : 		break;
; 95   : 	}	
; 96   : }

  001d5	8b 4c 24 04	 mov	 ecx, DWORD PTR __$EHRec$[esp+16]
  001d9	64 89 0d 00 00
	00 00		 mov	 DWORD PTR fs:__except_list, ecx
  001e0	83 c4 10	 add	 esp, 16			; 00000010H
  001e3	c3		 ret	 0
$L90107:

; 82   : 		break;
; 83   : 
; 84   : 	case RACE_VAMPIRE:
; 85   : 		m_pC_assemble_box_spk = new C_SPRITE_PACK(SPK_ASSEMBLE_BOX_VAMPIRE);

  001e4	6a 48		 push	 72			; 00000048H
  001e6	e8 00 00 00 00	 call	 ??2@YAPAXI@Z		; operator new
  001eb	83 c4 04	 add	 esp, 4
  001ee	89 44 24 08	 mov	 DWORD PTR $T93886[esp+24], eax
  001f2	85 c0		 test	 eax, eax
  001f4	c7 44 24 14 08
	00 00 00	 mov	 DWORD PTR __$EHRec$[esp+32], 8
  001fc	74 0e		 je	 SHORT $L93887
  001fe	68 00 00 00 00	 push	 OFFSET FLAT:??_C@_0CK@MCOKEDJH@data?2ui?2spk?2AssembleMessageBoxVa@
  00203	8b c8		 mov	 ecx, eax
  00205	e8 00 00 00 00	 call	 ??0C_SPRITE_PACK@@QAE@PBD@Z ; C_SPRITE_PACK::C_SPRITE_PACK
  0020a	eb 02		 jmp	 SHORT $L93888
$L93887:
  0020c	33 c0		 xor	 eax, eax
$L93888:

; 86   : 		m_pC_assemble_box_button_spk = new C_SPRITE_PACK(SPK_ASSEMBLE_BOX_BUTTON_VAMPIRE);

  0020e	6a 48		 push	 72			; 00000048H
  00210	89 7c 24 18	 mov	 DWORD PTR __$EHRec$[esp+36], edi
  00214	89 06		 mov	 DWORD PTR [esi], eax
  00216	e8 00 00 00 00	 call	 ??2@YAPAXI@Z		; operator new
  0021b	83 c4 04	 add	 esp, 4
  0021e	89 44 24 08	 mov	 DWORD PTR $T93890[esp+24], eax
  00222	85 c0		 test	 eax, eax
  00224	c7 44 24 14 09
	00 00 00	 mov	 DWORD PTR __$EHRec$[esp+32], 9
  0022c	74 0e		 je	 SHORT $L93891
  0022e	68 00 00 00 00	 push	 OFFSET FLAT:??_C@_0DA@LJNMHHDD@data?2ui?2spk?2AssembleMessageBoxBu@
  00233	8b c8		 mov	 ecx, eax
  00235	e8 00 00 00 00	 call	 ??0C_SPRITE_PACK@@QAE@PBD@Z ; C_SPRITE_PACK::C_SPRITE_PACK
  0023a	eb 02		 jmp	 SHORT $L93892
$L93891:
  0023c	33 c0		 xor	 eax, eax
$L93892:

; 87   : 		m_pC_info_spk = new C_SPRITE_PACK(SPK_INFO_VAMPIRE);

  0023e	6a 48		 push	 72			; 00000048H
  00240	89 7c 24 18	 mov	 DWORD PTR __$EHRec$[esp+36], edi
  00244	89 46 04	 mov	 DWORD PTR [esi+4], eax
  00247	e8 00 00 00 00	 call	 ??2@YAPAXI@Z		; operator new
  0024c	83 c4 04	 add	 esp, 4
  0024f	89 44 24 08	 mov	 DWORD PTR $T93894[esp+24], eax
  00253	85 c0		 test	 eax, eax
  00255	c7 44 24 14 0a
	00 00 00	 mov	 DWORD PTR __$EHRec$[esp+32], 10 ; 0000000aH
  0025d	0f 84 6b ff ff
	ff		 je	 $L93907
  00263	68 00 00 00 00	 push	 OFFSET FLAT:??_C@_0BM@FPEINDII@data?2ui?2spk?2InfoVampire?4spk?$AA@
  00268	8b c8		 mov	 ecx, eax
  0026a	e8 00 00 00 00	 call	 ??0C_SPRITE_PACK@@QAE@PBD@Z ; C_SPRITE_PACK::C_SPRITE_PACK
  0026f	5f		 pop	 edi

; 93   : 		m_pC_info_spk = new C_SPRITE_PACK(SPK_INFO_OUSTERS);

  00270	89 46 10	 mov	 DWORD PTR [esi+16], eax
  00273	5e		 pop	 esi

; 94   : 		break;
; 95   : 	}	
; 96   : }

  00274	8b 4c 24 04	 mov	 ecx, DWORD PTR __$EHRec$[esp+16]
  00278	64 89 0d 00 00
	00 00		 mov	 DWORD PTR fs:__except_list, ecx
  0027f	83 c4 10	 add	 esp, 16			; 00000010H
  00282	c3		 ret	 0
$L90091:

; 77   : 	{
; 78   : 	case RACE_SLAYER:
; 79   : 		m_pC_info_spk = new C_SPRITE_PACK(SPK_INFO_SLAYER);

  00283	6a 48		 push	 72			; 00000048H
  00285	e8 00 00 00 00	 call	 ??2@YAPAXI@Z		; operator new
  0028a	83 c4 04	 add	 esp, 4
  0028d	89 44 24 08	 mov	 DWORD PTR $T93874[esp+24], eax
  00291	85 c0		 test	 eax, eax
  00293	c7 44 24 14 05
	00 00 00	 mov	 DWORD PTR __$EHRec$[esp+32], 5
  0029b	74 0e		 je	 SHORT $L93875
  0029d	68 00 00 00 00	 push	 OFFSET FLAT:??_C@_0BL@JAHNFGLE@data?2ui?2spk?2InfoSlayer?4spk?$AA@
  002a2	8b c8		 mov	 ecx, eax
  002a4	e8 00 00 00 00	 call	 ??0C_SPRITE_PACK@@QAE@PBD@Z ; C_SPRITE_PACK::C_SPRITE_PACK
  002a9	eb 02		 jmp	 SHORT $L93876
$L93875:
  002ab	33 c0		 xor	 eax, eax
$L93876:

; 80   : 		m_pC_assemble_box_spk = new C_SPRITE_PACK(SPK_ASSEMBLE_BOX_SLAYER);

  002ad	6a 48		 push	 72			; 00000048H
  002af	89 7c 24 18	 mov	 DWORD PTR __$EHRec$[esp+36], edi
  002b3	89 46 10	 mov	 DWORD PTR [esi+16], eax
  002b6	e8 00 00 00 00	 call	 ??2@YAPAXI@Z		; operator new
  002bb	83 c4 04	 add	 esp, 4
  002be	89 44 24 08	 mov	 DWORD PTR $T93878[esp+24], eax
  002c2	85 c0		 test	 eax, eax
  002c4	c7 44 24 14 06
	00 00 00	 mov	 DWORD PTR __$EHRec$[esp+32], 6
  002cc	74 0e		 je	 SHORT $L93879
  002ce	68 00 00 00 00	 push	 OFFSET FLAT:??_C@_0CJ@OAJKOGDB@data?2ui?2spk?2AssembleMessageBoxSl@
  002d3	8b c8		 mov	 ecx, eax
  002d5	e8 00 00 00 00	 call	 ??0C_SPRITE_PACK@@QAE@PBD@Z ; C_SPRITE_PACK::C_SPRITE_PACK
  002da	eb 02		 jmp	 SHORT $L93880
$L93879:
  002dc	33 c0		 xor	 eax, eax
$L93880:

; 81   : 		m_pC_assemble_box_button_spk = new C_SPRITE_PACK(SPK_ASSEMBLE_BOX_BUTTON_SLAYER);

  002de	6a 48		 push	 72			; 00000048H
  002e0	89 7c 24 18	 mov	 DWORD PTR __$EHRec$[esp+36], edi
  002e4	89 06		 mov	 DWORD PTR [esi], eax
  002e6	e8 00 00 00 00	 call	 ??2@YAPAXI@Z		; operator new
  002eb	83 c4 04	 add	 esp, 4
  002ee	89 44 24 08	 mov	 DWORD PTR $T93882[esp+24], eax
  002f2	85 c0		 test	 eax, eax
  002f4	c7 44 24 14 07
	00 00 00	 mov	 DWORD PTR __$EHRec$[esp+32], 7
  002fc	74 20		 je	 SHORT $L93883
  002fe	68 00 00 00 00	 push	 OFFSET FLAT:??_C@_0CP@GHIFOMPL@data?2ui?2spk?2AssembleMessageBoxBu@
  00303	8b c8		 mov	 ecx, eax
  00305	e8 00 00 00 00	 call	 ??0C_SPRITE_PACK@@QAE@PBD@Z ; C_SPRITE_PACK::C_SPRITE_PACK
  0030a	5f		 pop	 edi
  0030b	89 46 04	 mov	 DWORD PTR [esi+4], eax
  0030e	5e		 pop	 esi

; 94   : 		break;
; 95   : 	}	
; 96   : }

  0030f	8b 4c 24 04	 mov	 ecx, DWORD PTR __$EHRec$[esp+16]
  00313	64 89 0d 00 00
	00 00		 mov	 DWORD PTR fs:__except_list, ecx
  0031a	83 c4 10	 add	 esp, 16			; 00000010H
  0031d	c3		 ret	 0
$L93883:

; 81   : 		m_pC_assemble_box_button_spk = new C_SPRITE_PACK(SPK_ASSEMBLE_BOX_BUTTON_SLAYER);

  0031e	33 c0		 xor	 eax, eax
  00320	89 46 04	 mov	 DWORD PTR [esi+4], eax
$L90088:

; 94   : 		break;
; 95   : 	}	
; 96   : }

  00323	8b 4c 24 0c	 mov	 ecx, DWORD PTR __$EHRec$[esp+24]
  00327	5f		 pop	 edi
  00328	5e		 pop	 esi
  00329	64 89 0d 00 00
	00 00		 mov	 DWORD PTR fs:__except_list, ecx
  00330	83 c4 10	 add	 esp, 16			; 00000010H
  00333	c3		 ret	 0
_TEXT	ENDS
;	COMDAT text$x
text$x	SEGMENT
$L93909:
  00000	8b 45 f0	 mov	 eax, DWORD PTR $T93854[ebp]
  00003	50		 push	 eax
  00004	e8 00 00 00 00	 call	 ??3@YAXPAX@Z		; operator delete
  00009	59		 pop	 ecx
  0000a	c3		 ret	 0
$L93910:
  0000b	8b 45 f0	 mov	 eax, DWORD PTR $T93858[ebp]
  0000e	50		 push	 eax
  0000f	e8 00 00 00 00	 call	 ??3@YAXPAX@Z		; operator delete
  00014	59		 pop	 ecx
  00015	c3		 ret	 0
$L93911:
  00016	8b 45 f0	 mov	 eax, DWORD PTR $T93862[ebp]
  00019	50		 push	 eax
  0001a	e8 00 00 00 00	 call	 ??3@YAXPAX@Z		; operator delete
  0001f	59		 pop	 ecx
  00020	c3		 ret	 0
$L93912:
  00021	8b 45 f0	 mov	 eax, DWORD PTR $T93866[ebp]
  00024	50		 push	 eax
  00025	e8 00 00 00 00	 call	 ??3@YAXPAX@Z		; operator delete
  0002a	59		 pop	 ecx
  0002b	c3		 ret	 0
$L93913:
  0002c	8b 45 f0	 mov	 eax, DWORD PTR $T93870[ebp]
  0002f	50		 push	 eax
  00030	e8 00 00 00 00	 call	 ??3@YAXPAX@Z		; operator delete
  00035	59		 pop	 ecx
  00036	c3		 ret	 0
$L93920:
  00037	8b 45 f0	 mov	 eax, DWORD PTR $T93898[ebp]
  0003a	50		 push	 eax
  0003b	e8 00 00 00 00	 call	 ??3@YAXPAX@Z		; operator delete
  00040	59		 pop	 ecx
  00041	c3		 ret	 0
$L93921:
  00042	8b 45 f0	 mov	 eax, DWORD PTR $T93902[ebp]
  00045	50		 push	 eax
  00046	e8 00 00 00 00	 call	 ??3@YAXPAX@Z		; operator delete
  0004b	59		 pop	 ecx
  0004c	c3		 ret	 0
$L93922:
  0004d	8b 45 f0	 mov	 eax, DWORD PTR $T93906[ebp]
  00050	50		 push	 eax
  00051	e8 00 00 00 00	 call	 ??3@YAXPAX@Z		; operator delete
  00056	59		 pop	 ecx
  00057	c3		 ret	 0
$L93917:
  00058	8b 45 f0	 mov	 eax, DWORD PTR $T93886[ebp]
  0005b	50		 push	 eax
  0005c	e8 00 00 00 00	 call	 ??3@YAXPAX@Z		; operator delete
  00061	59		 pop	 ecx
  00062	c3		 ret	 0
$L93918:
  00063	8b 45 f0	 mov	 eax, DWORD PTR $T93890[ebp]
  00066	50		 push	 eax
  00067	e8 00 00 00 00	 call	 ??3@YAXPAX@Z		; operator delete
  0006c	59		 pop	 ecx
  0006d	c3		 ret	 0
$L93919:
  0006e	8b 45 f0	 mov	 eax, DWORD PTR $T93894[ebp]
  00071	50		 push	 eax
  00072	e8 00 00 00 00	 call	 ??3@YAXPAX@Z		; operator delete
  00077	59		 pop	 ecx
  00078	c3		 ret	 0
$L93914:
  00079	8b 45 f0	 mov	 eax, DWORD PTR $T93874[ebp]
  0007c	50		 push	 eax
  0007d	e8 00 00 00 00	 call	 ??3@YAXPAX@Z		; operator delete
  00082	59		 pop	 ecx
  00083	c3		 ret	 0
$L93915:
  00084	8b 45 f0	 mov	 eax, DWORD PTR $T93878[ebp]
  00087	50		 push	 eax
  00088	e8 00 00 00 00	 call	 ??3@YAXPAX@Z		; operator delete
  0008d	59		 pop	 ecx
  0008e	c3		 ret	 0
$L93916:
  0008f	8b 45 f0	 mov	 eax, DWORD PTR $T93882[ebp]
  00092	50		 push	 eax
  00093	e8 00 00 00 00	 call	 ??3@YAXPAX@Z		; operator delete
  00098	59		 pop	 ecx
  00099	c3		 ret	 0
__ehhandler$?LoadAssemble@C_GLOBAL_RESOURCE@@QAEXXZ:
  0009a	b8 00 00 00 00	 mov	 eax, OFFSET FLAT:$T93924
  0009f	e9 00 00 00 00	 jmp	 ___CxxFrameHandler
text$x	ENDS
?LoadAssemble@C_GLOBAL_RESOURCE@@QAEXXZ ENDP		; C_GLOBAL_RESOURCE::LoadAssemble
PUBLIC	?DrawOutBox@C_GLOBAL_RESOURCE@@QAEXAAVRect@@@Z	; C_GLOBAL_RESOURCE::DrawOutBox
; Function compile flags: /Ogty
;	COMDAT ?DrawOutBox@C_GLOBAL_RESOURCE@@QAEXAAVRect@@@Z
_TEXT	SEGMENT
$T93939 = 8						; size = 4
_rect$ = 8						; size = 4
?DrawOutBox@C_GLOBAL_RESOURCE@@QAEXAAVRect@@@Z PROC NEAR ; C_GLOBAL_RESOURCE::DrawOutBox, COMDAT
; _this$ = ecx

; 233  : 	DrawOutBox(rect.x, rect.y, rect.w, rect.h);

  00000	8b 44 24 04	 mov	 eax, DWORD PTR _rect$[esp-4]
  00004	53		 push	 ebx
  00005	8b 58 08	 mov	 ebx, DWORD PTR [eax+8]
  00008	55		 push	 ebp
  00009	8b 68 04	 mov	 ebp, DWORD PTR [eax+4]
  0000c	56		 push	 esi
  0000d	8b f1		 mov	 esi, ecx
  0000f	8b 0d 00 00 00
	00		 mov	 ecx, DWORD PTR ?gpC_base@@3PAVBase@@A ; gpC_base
  00015	8b 49 04	 mov	 ecx, DWORD PTR [ecx+4]
  00018	57		 push	 edi
  00019	8b 78 0c	 mov	 edi, DWORD PTR [eax+12]
  0001c	8b 00		 mov	 eax, DWORD PTR [eax]
  0001e	89 44 24 14	 mov	 DWORD PTR $T93939[esp+12], eax
  00022	e8 00 00 00 00	 call	 ?Lock@CDirectDrawSurface@@QAE_NXZ ; CDirectDrawSurface::Lock
  00027	84 c0		 test	 al, al
  00029	74 1c		 je	 SHORT $L93934
  0002b	8b 54 24 14	 mov	 edx, DWORD PTR $T93939[esp+12]
  0002f	57		 push	 edi
  00030	53		 push	 ebx
  00031	55		 push	 ebp
  00032	52		 push	 edx
  00033	8b ce		 mov	 ecx, esi
  00035	e8 00 00 00 00	 call	 ?DrawOutBoxLocked@C_GLOBAL_RESOURCE@@QAEXHHHH@Z ; C_GLOBAL_RESOURCE::DrawOutBoxLocked
  0003a	a1 00 00 00 00	 mov	 eax, DWORD PTR ?gpC_base@@3PAVBase@@A ; gpC_base
  0003f	8b 48 04	 mov	 ecx, DWORD PTR [eax+4]
  00042	e8 00 00 00 00	 call	 ?Unlock@CDirectDrawSurface@@QAE_NXZ ; CDirectDrawSurface::Unlock
$L93934:
  00047	5f		 pop	 edi
  00048	5e		 pop	 esi
  00049	5d		 pop	 ebp
  0004a	5b		 pop	 ebx

; 234  : }

  0004b	c2 04 00	 ret	 4
?DrawOutBox@C_GLOBAL_RESOURCE@@QAEXAAVRect@@@Z ENDP	; C_GLOBAL_RESOURCE::DrawOutBox
_TEXT	ENDS
PUBLIC	?DrawInBox@C_GLOBAL_RESOURCE@@QAEXAAVRect@@@Z	; C_GLOBAL_RESOURCE::DrawInBox
; Function compile flags: /Ogty
;	COMDAT ?DrawInBox@C_GLOBAL_RESOURCE@@QAEXAAVRect@@@Z
_TEXT	SEGMENT
$T93950 = 8						; size = 4
_rect$ = 8						; size = 4
?DrawInBox@C_GLOBAL_RESOURCE@@QAEXAAVRect@@@Z PROC NEAR	; C_GLOBAL_RESOURCE::DrawInBox, COMDAT
; _this$ = ecx

; 270  : 	DrawInBox(rect.x, rect.y, rect.w, rect.h);

  00000	8b 44 24 04	 mov	 eax, DWORD PTR _rect$[esp-4]
  00004	53		 push	 ebx
  00005	8b 58 08	 mov	 ebx, DWORD PTR [eax+8]
  00008	55		 push	 ebp
  00009	8b 68 04	 mov	 ebp, DWORD PTR [eax+4]
  0000c	56		 push	 esi
  0000d	8b f1		 mov	 esi, ecx
  0000f	8b 0d 00 00 00
	00		 mov	 ecx, DWORD PTR ?gpC_base@@3PAVBase@@A ; gpC_base
  00015	8b 49 04	 mov	 ecx, DWORD PTR [ecx+4]
  00018	57		 push	 edi
  00019	8b 78 0c	 mov	 edi, DWORD PTR [eax+12]
  0001c	8b 00		 mov	 eax, DWORD PTR [eax]
  0001e	89 44 24 14	 mov	 DWORD PTR $T93950[esp+12], eax
  00022	e8 00 00 00 00	 call	 ?Lock@CDirectDrawSurface@@QAE_NXZ ; CDirectDrawSurface::Lock
  00027	84 c0		 test	 al, al
  00029	74 1c		 je	 SHORT $L93945
  0002b	8b 54 24 14	 mov	 edx, DWORD PTR $T93950[esp+12]
  0002f	57		 push	 edi
  00030	53		 push	 ebx
  00031	55		 push	 ebp
  00032	52		 push	 edx
  00033	8b ce		 mov	 ecx, esi
  00035	e8 00 00 00 00	 call	 ?DrawInBoxLocked@C_GLOBAL_RESOURCE@@QAEXHHHH@Z ; C_GLOBAL_RESOURCE::DrawInBoxLocked
  0003a	a1 00 00 00 00	 mov	 eax, DWORD PTR ?gpC_base@@3PAVBase@@A ; gpC_base
  0003f	8b 48 04	 mov	 ecx, DWORD PTR [eax+4]
  00042	e8 00 00 00 00	 call	 ?Unlock@CDirectDrawSurface@@QAE_NXZ ; CDirectDrawSurface::Unlock
$L93945:
  00047	5f		 pop	 edi
  00048	5e		 pop	 esi
  00049	5d		 pop	 ebp
  0004a	5b		 pop	 ebx

; 271  : }

  0004b	c2 04 00	 ret	 4
?DrawInBox@C_GLOBAL_RESOURCE@@QAEXAAVRect@@@Z ENDP	; C_GLOBAL_RESOURCE::DrawInBox
_TEXT	ENDS
PUBLIC	?DrawDialog@C_GLOBAL_RESOURCE@@QAEXAAVRect@@_N@Z ; C_GLOBAL_RESOURCE::DrawDialog
; Function compile flags: /Ogty
;	COMDAT ?DrawDialog@C_GLOBAL_RESOURCE@@QAEXAAVRect@@_N@Z
_TEXT	SEGMENT
$T93961 = 8						; size = 4
_rect$ = 8						; size = 4
_alpha$ = 12						; size = 1
?DrawDialog@C_GLOBAL_RESOURCE@@QAEXAAVRect@@_N@Z PROC NEAR ; C_GLOBAL_RESOURCE::DrawDialog, COMDAT
; _this$ = ecx

; 307  : 	DrawDialog(rect.x, rect.y, rect.w, rect.h, alpha);

  00000	8b 44 24 04	 mov	 eax, DWORD PTR _rect$[esp-4]
  00004	53		 push	 ebx
  00005	8b 58 08	 mov	 ebx, DWORD PTR [eax+8]
  00008	55		 push	 ebp
  00009	8b 68 04	 mov	 ebp, DWORD PTR [eax+4]
  0000c	56		 push	 esi
  0000d	8b f1		 mov	 esi, ecx
  0000f	8b 0d 00 00 00
	00		 mov	 ecx, DWORD PTR ?gpC_base@@3PAVBase@@A ; gpC_base
  00015	8b 49 04	 mov	 ecx, DWORD PTR [ecx+4]
  00018	57		 push	 edi
  00019	8b 78 0c	 mov	 edi, DWORD PTR [eax+12]
  0001c	8b 00		 mov	 eax, DWORD PTR [eax]
  0001e	89 44 24 14	 mov	 DWORD PTR $T93961[esp+12], eax
  00022	e8 00 00 00 00	 call	 ?Lock@CDirectDrawSurface@@QAE_NXZ ; CDirectDrawSurface::Lock
  00027	84 c0		 test	 al, al
  00029	74 22		 je	 SHORT $L93956
  0002b	8b 54 24 18	 mov	 edx, DWORD PTR _alpha$[esp+12]
  0002f	8b 44 24 14	 mov	 eax, DWORD PTR $T93961[esp+12]
  00033	52		 push	 edx
  00034	57		 push	 edi
  00035	53		 push	 ebx
  00036	55		 push	 ebp
  00037	50		 push	 eax
  00038	8b ce		 mov	 ecx, esi
  0003a	e8 00 00 00 00	 call	 ?DrawDialogLocked@C_GLOBAL_RESOURCE@@QAEXHHHH_N@Z ; C_GLOBAL_RESOURCE::DrawDialogLocked
  0003f	8b 0d 00 00 00
	00		 mov	 ecx, DWORD PTR ?gpC_base@@3PAVBase@@A ; gpC_base
  00045	8b 49 04	 mov	 ecx, DWORD PTR [ecx+4]
  00048	e8 00 00 00 00	 call	 ?Unlock@CDirectDrawSurface@@QAE_NXZ ; CDirectDrawSurface::Unlock
$L93956:
  0004d	5f		 pop	 edi
  0004e	5e		 pop	 esi
  0004f	5d		 pop	 ebp
  00050	5b		 pop	 ebx

; 308  : }

  00051	c2 08 00	 ret	 8
?DrawDialog@C_GLOBAL_RESOURCE@@QAEXAAVRect@@_N@Z ENDP	; C_GLOBAL_RESOURCE::DrawDialog
_TEXT	ENDS
PUBLIC	?DrawNPC@C_GLOBAL_RESOURCE@@QAEXAAVRect@@_N@Z	; C_GLOBAL_RESOURCE::DrawNPC
; Function compile flags: /Ogty
;	COMDAT ?DrawNPC@C_GLOBAL_RESOURCE@@QAEXAAVRect@@_N@Z
_TEXT	SEGMENT
$T93972 = 8						; size = 4
_rect$ = 8						; size = 4
_alpha$ = 12						; size = 1
?DrawNPC@C_GLOBAL_RESOURCE@@QAEXAAVRect@@_N@Z PROC NEAR	; C_GLOBAL_RESOURCE::DrawNPC, COMDAT
; _this$ = ecx

; 375  : 	DrawNPC(rect.x, rect.y, rect.w, rect.h, alpha);

  00000	8b 44 24 04	 mov	 eax, DWORD PTR _rect$[esp-4]
  00004	53		 push	 ebx
  00005	8b 58 08	 mov	 ebx, DWORD PTR [eax+8]
  00008	55		 push	 ebp
  00009	8b 68 04	 mov	 ebp, DWORD PTR [eax+4]
  0000c	56		 push	 esi
  0000d	8b f1		 mov	 esi, ecx
  0000f	8b 0d 00 00 00
	00		 mov	 ecx, DWORD PTR ?gpC_base@@3PAVBase@@A ; gpC_base
  00015	8b 49 04	 mov	 ecx, DWORD PTR [ecx+4]
  00018	57		 push	 edi
  00019	8b 78 0c	 mov	 edi, DWORD PTR [eax+12]
  0001c	8b 00		 mov	 eax, DWORD PTR [eax]
  0001e	89 44 24 14	 mov	 DWORD PTR $T93972[esp+12], eax
  00022	e8 00 00 00 00	 call	 ?Lock@CDirectDrawSurface@@QAE_NXZ ; CDirectDrawSurface::Lock
  00027	84 c0		 test	 al, al
  00029	74 22		 je	 SHORT $L93967
  0002b	8b 54 24 18	 mov	 edx, DWORD PTR _alpha$[esp+12]
  0002f	8b 44 24 14	 mov	 eax, DWORD PTR $T93972[esp+12]
  00033	52		 push	 edx
  00034	57		 push	 edi
  00035	53		 push	 ebx
  00036	55		 push	 ebp
  00037	50		 push	 eax
  00038	8b ce		 mov	 ecx, esi
  0003a	e8 00 00 00 00	 call	 ?DrawNPCLocked@C_GLOBAL_RESOURCE@@QAEXHHHH_N@Z ; C_GLOBAL_RESOURCE::DrawNPCLocked
  0003f	8b 0d 00 00 00
	00		 mov	 ecx, DWORD PTR ?gpC_base@@3PAVBase@@A ; gpC_base
  00045	8b 49 04	 mov	 ecx, DWORD PTR [ecx+4]
  00048	e8 00 00 00 00	 call	 ?Unlock@CDirectDrawSurface@@QAE_NXZ ; CDirectDrawSurface::Unlock
$L93967:
  0004d	5f		 pop	 edi
  0004e	5e		 pop	 esi
  0004f	5d		 pop	 ebp
  00050	5b		 pop	 ebx

; 376  : }

  00051	c2 08 00	 ret	 8
?DrawNPC@C_GLOBAL_RESOURCE@@QAEXAAVRect@@_N@Z ENDP	; C_GLOBAL_RESOURCE::DrawNPC
_TEXT	ENDS
PUBLIC	?DrawDialogOnly@C_GLOBAL_RESOURCE@@QAEXAAVRect@@@Z ; C_GLOBAL_RESOURCE::DrawDialogOnly
; Function compile flags: /Ogty
;	COMDAT ?DrawDialogOnly@C_GLOBAL_RESOURCE@@QAEXAAVRect@@@Z
_TEXT	SEGMENT
$T93983 = 8						; size = 4
_rect$ = 8						; size = 4
?DrawDialogOnly@C_GLOBAL_RESOURCE@@QAEXAAVRect@@@Z PROC NEAR ; C_GLOBAL_RESOURCE::DrawDialogOnly, COMDAT
; _this$ = ecx

; 401  : 	DrawDialogOnly(rect.x, rect.y, rect.w, rect.h);

  00000	8b 44 24 04	 mov	 eax, DWORD PTR _rect$[esp-4]
  00004	53		 push	 ebx
  00005	8b 58 08	 mov	 ebx, DWORD PTR [eax+8]
  00008	55		 push	 ebp
  00009	8b 68 04	 mov	 ebp, DWORD PTR [eax+4]
  0000c	56		 push	 esi
  0000d	8b f1		 mov	 esi, ecx
  0000f	8b 0d 00 00 00
	00		 mov	 ecx, DWORD PTR ?gpC_base@@3PAVBase@@A ; gpC_base
  00015	8b 49 04	 mov	 ecx, DWORD PTR [ecx+4]
  00018	57		 push	 edi
  00019	8b 78 0c	 mov	 edi, DWORD PTR [eax+12]
  0001c	8b 00		 mov	 eax, DWORD PTR [eax]
  0001e	89 44 24 14	 mov	 DWORD PTR $T93983[esp+12], eax
  00022	e8 00 00 00 00	 call	 ?Lock@CDirectDrawSurface@@QAE_NXZ ; CDirectDrawSurface::Lock
  00027	84 c0		 test	 al, al
  00029	74 1c		 je	 SHORT $L93978
  0002b	8b 54 24 14	 mov	 edx, DWORD PTR $T93983[esp+12]
  0002f	57		 push	 edi
  00030	53		 push	 ebx
  00031	55		 push	 ebp
  00032	52		 push	 edx
  00033	8b ce		 mov	 ecx, esi
  00035	e8 00 00 00 00	 call	 ?DrawDialogOnlyLocked@C_GLOBAL_RESOURCE@@QAEXHHHH@Z ; C_GLOBAL_RESOURCE::DrawDialogOnlyLocked
  0003a	a1 00 00 00 00	 mov	 eax, DWORD PTR ?gpC_base@@3PAVBase@@A ; gpC_base
  0003f	8b 48 04	 mov	 ecx, DWORD PTR [eax+4]
  00042	e8 00 00 00 00	 call	 ?Unlock@CDirectDrawSurface@@QAE_NXZ ; CDirectDrawSurface::Unlock
$L93978:
  00047	5f		 pop	 edi
  00048	5e		 pop	 esi
  00049	5d		 pop	 ebp
  0004a	5b		 pop	 ebx

; 402  : }

  0004b	c2 04 00	 ret	 4
?DrawDialogOnly@C_GLOBAL_RESOURCE@@QAEXAAVRect@@@Z ENDP	; C_GLOBAL_RESOURCE::DrawDialogOnly
_TEXT	ENDS
PUBLIC	?DrawDialog2@C_GLOBAL_RESOURCE@@QAEXAAVRect@@_N@Z ; C_GLOBAL_RESOURCE::DrawDialog2
; Function compile flags: /Ogty
;	COMDAT ?DrawDialog2@C_GLOBAL_RESOURCE@@QAEXAAVRect@@_N@Z
_TEXT	SEGMENT
$T93994 = 8						; size = 4
_rect$ = 8						; size = 4
_alpha$ = 12						; size = 1
?DrawDialog2@C_GLOBAL_RESOURCE@@QAEXAAVRect@@_N@Z PROC NEAR ; C_GLOBAL_RESOURCE::DrawDialog2, COMDAT
; _this$ = ecx

; 442  : 	DrawDialog2(rect.x, rect.y, rect.w, rect.h, alpha);

  00000	8b 44 24 04	 mov	 eax, DWORD PTR _rect$[esp-4]
  00004	53		 push	 ebx
  00005	8b 58 08	 mov	 ebx, DWORD PTR [eax+8]
  00008	55		 push	 ebp
  00009	8b 68 04	 mov	 ebp, DWORD PTR [eax+4]
  0000c	56		 push	 esi
  0000d	8b f1		 mov	 esi, ecx
  0000f	8b 0d 00 00 00
	00		 mov	 ecx, DWORD PTR ?gpC_base@@3PAVBase@@A ; gpC_base
  00015	8b 49 04	 mov	 ecx, DWORD PTR [ecx+4]
  00018	57		 push	 edi
  00019	8b 78 0c	 mov	 edi, DWORD PTR [eax+12]
  0001c	8b 00		 mov	 eax, DWORD PTR [eax]
  0001e	89 44 24 14	 mov	 DWORD PTR $T93994[esp+12], eax
  00022	e8 00 00 00 00	 call	 ?Lock@CDirectDrawSurface@@QAE_NXZ ; CDirectDrawSurface::Lock
  00027	84 c0		 test	 al, al
  00029	74 22		 je	 SHORT $L93989
  0002b	8b 54 24 18	 mov	 edx, DWORD PTR _alpha$[esp+12]
  0002f	8b 44 24 14	 mov	 eax, DWORD PTR $T93994[esp+12]
  00033	52		 push	 edx
  00034	57		 push	 edi
  00035	53		 push	 ebx
  00036	55		 push	 ebp
  00037	50		 push	 eax
  00038	8b ce		 mov	 ecx, esi
  0003a	e8 00 00 00 00	 call	 ?DrawDialogLocked2@C_GLOBAL_RESOURCE@@QAEXHHHH_N@Z ; C_GLOBAL_RESOURCE::DrawDialogLocked2
  0003f	8b 0d 00 00 00
	00		 mov	 ecx, DWORD PTR ?gpC_base@@3PAVBase@@A ; gpC_base
  00045	8b 49 04	 mov	 ecx, DWORD PTR [ecx+4]
  00048	e8 00 00 00 00	 call	 ?Unlock@CDirectDrawSurface@@QAE_NXZ ; CDirectDrawSurface::Unlock
$L93989:
  0004d	5f		 pop	 edi
  0004e	5e		 pop	 esi
  0004f	5d		 pop	 ebp
  00050	5b		 pop	 ebx

; 443  : }

  00051	c2 08 00	 ret	 8
?DrawDialog2@C_GLOBAL_RESOURCE@@QAEXAAVRect@@_N@Z ENDP	; C_GLOBAL_RESOURCE::DrawDialog2
_TEXT	ENDS
PUBLIC	?DrawDialogOnly2@C_GLOBAL_RESOURCE@@QAEXAAVRect@@@Z ; C_GLOBAL_RESOURCE::DrawDialogOnly2
; Function compile flags: /Ogty
;	COMDAT ?DrawDialogOnly2@C_GLOBAL_RESOURCE@@QAEXAAVRect@@@Z
_TEXT	SEGMENT
$T94005 = 8						; size = 4
_rect$ = 8						; size = 4
?DrawDialogOnly2@C_GLOBAL_RESOURCE@@QAEXAAVRect@@@Z PROC NEAR ; C_GLOBAL_RESOURCE::DrawDialogOnly2, COMDAT
; _this$ = ecx

; 586  : 	DrawDialogOnly2(rect.x, rect.y, rect.w, rect.h);

  00000	8b 44 24 04	 mov	 eax, DWORD PTR _rect$[esp-4]
  00004	53		 push	 ebx
  00005	8b 58 08	 mov	 ebx, DWORD PTR [eax+8]
  00008	55		 push	 ebp
  00009	8b 68 04	 mov	 ebp, DWORD PTR [eax+4]
  0000c	56		 push	 esi
  0000d	8b f1		 mov	 esi, ecx
  0000f	8b 0d 00 00 00
	00		 mov	 ecx, DWORD PTR ?gpC_base@@3PAVBase@@A ; gpC_base
  00015	8b 49 04	 mov	 ecx, DWORD PTR [ecx+4]
  00018	57		 push	 edi
  00019	8b 78 0c	 mov	 edi, DWORD PTR [eax+12]
  0001c	8b 00		 mov	 eax, DWORD PTR [eax]
  0001e	89 44 24 14	 mov	 DWORD PTR $T94005[esp+12], eax
  00022	e8 00 00 00 00	 call	 ?Lock@CDirectDrawSurface@@QAE_NXZ ; CDirectDrawSurface::Lock
  00027	84 c0		 test	 al, al
  00029	74 1c		 je	 SHORT $L94000
  0002b	8b 54 24 14	 mov	 edx, DWORD PTR $T94005[esp+12]
  0002f	57		 push	 edi
  00030	53		 push	 ebx
  00031	55		 push	 ebp
  00032	52		 push	 edx
  00033	8b ce		 mov	 ecx, esi
  00035	e8 00 00 00 00	 call	 ?DrawDialogOnlyLocked2@C_GLOBAL_RESOURCE@@QAEXHHHH@Z ; C_GLOBAL_RESOURCE::DrawDialogOnlyLocked2
  0003a	a1 00 00 00 00	 mov	 eax, DWORD PTR ?gpC_base@@3PAVBase@@A ; gpC_base
  0003f	8b 48 04	 mov	 ecx, DWORD PTR [eax+4]
  00042	e8 00 00 00 00	 call	 ?Unlock@CDirectDrawSurface@@QAE_NXZ ; CDirectDrawSurface::Unlock
$L94000:
  00047	5f		 pop	 edi
  00048	5e		 pop	 esi
  00049	5d		 pop	 ebp
  0004a	5b		 pop	 ebx

; 587  : }

  0004b	c2 04 00	 ret	 4
?DrawDialogOnly2@C_GLOBAL_RESOURCE@@QAEXAAVRect@@@Z ENDP ; C_GLOBAL_RESOURCE::DrawDialogOnly2
_TEXT	ENDS
PUBLIC	??0C_GLOBAL_RESOURCE@@QAE@XZ			; C_GLOBAL_RESOURCE::C_GLOBAL_RESOURCE
; Function compile flags: /Ogty
;	COMDAT ??0C_GLOBAL_RESOURCE@@QAE@XZ
_TEXT	SEGMENT
??0C_GLOBAL_RESOURCE@@QAE@XZ PROC NEAR			; C_GLOBAL_RESOURCE::C_GLOBAL_RESOURCE, COMDAT
; _this$ = ecx

; 26   : 	//LoadAniButton();
; 27   : //	LoadAssembleBox();
; 28   : 	//LoadCommonImage();
; 29   : //	LoadCommonButton();
; 30   : 	m_pC_assemble_box_spk = NULL;

  00000	33 c0		 xor	 eax, eax
  00002	56		 push	 esi
  00003	8b f1		 mov	 esi, ecx
  00005	89 06		 mov	 DWORD PTR [esi], eax

; 31   : 	m_pC_assemble_box_button_spk = NULL;

  00007	89 46 04	 mov	 DWORD PTR [esi+4], eax

; 32   : //	m_pC_assemble_box_etc_spk = NULL;
; 33   : 	m_pC_scroll_bar_spk = NULL;

  0000a	89 46 08	 mov	 DWORD PTR [esi+8], eax

; 34   : 	m_pC_box_spk = NULL;

  0000d	89 46 0c	 mov	 DWORD PTR [esi+12], eax

; 35   : 	m_pC_info_spk = NULL;

  00010	89 46 10	 mov	 DWORD PTR [esi+16], eax

; 36   : 	m_pC_common_button_spk = NULL;

  00013	89 46 14	 mov	 DWORD PTR [esi+20], eax

; 37   : 	m_New_NpcDialog_spk = NULL;

  00016	89 46 18	 mov	 DWORD PTR [esi+24], eax

; 38   : 	m_pC_NpcIcon_spk = NULL;

  00019	89 46 1c	 mov	 DWORD PTR [esi+28], eax

; 39   : 	LoadAssemble();

  0001c	e8 00 00 00 00	 call	 ?LoadAssemble@C_GLOBAL_RESOURCE@@QAEXXZ ; C_GLOBAL_RESOURCE::LoadAssemble

; 40   : }

  00021	8b c6		 mov	 eax, esi
  00023	5e		 pop	 esi
  00024	c3		 ret	 0
??0C_GLOBAL_RESOURCE@@QAE@XZ ENDP			; C_GLOBAL_RESOURCE::C_GLOBAL_RESOURCE
_TEXT	ENDS
END
