; Listing generated by Microsoft (R) Optimizing Compiler Version 13.10.3077 

	TITLE	\darkeden\Designed_Common\Project\New - vs_ui\src\VS_UI_util.cpp
	.386P
include listing.inc
if @Version gt 510
.model FLAT
else
_TEXT	SEGMENT PARA USE32 PUBLIC 'CODE'
_TEXT	ENDS
_DATA	SEGMENT DWORD USE32 PUBLIC 'DATA'
_DATA	ENDS
CONST	SEGMENT DWORD USE32 PUBLIC 'CONST'
CONST	ENDS
_BSS	SEGMENT DWORD USE32 PUBLIC 'BSS'
_BSS	ENDS
$$SYMBOLS	SEGMENT BYTE USE32 'DEBSYM'
$$SYMBOLS	ENDS
$$TYPES	SEGMENT BYTE USE32 'DEBTYP'
$$TYPES	ENDS
_TLS	SEGMENT DWORD USE32 PUBLIC 'TLS'
_TLS	ENDS
;	COMDAT ??_C@_0BN@ODLNCKCA@Data?2?2Info?2?2ClientConfig?4inf?$AA@
CONST	SEGMENT DWORD USE32 PUBLIC 'CONST'
CONST	ENDS
;	COMDAT ??_C@_0BM@DFPLPGPC@Data?2?2Info?2?2GuildMapper?4inf?$AA@
CONST	SEGMENT DWORD USE32 PUBLIC 'CONST'
CONST	ENDS
;	COMDAT ??_C@_0BN@LHODHNBK@Data?2?2Info?2?2GuildVersion?4inf?$AA@
CONST	SEGMENT DWORD USE32 PUBLIC 'CONST'
CONST	ENDS
;	COMDAT ??_C@_0BH@DDPLNCOL@Data?2?2Info?2?2Player?4inf?$AA@
CONST	SEGMENT DWORD USE32 PUBLIC 'CONST'
CONST	ENDS
;	COMDAT ??_C@_0BL@ILLNAPHB@Data?2?2Info?2?2Resolution?4inf?$AA@
CONST	SEGMENT DWORD USE32 PUBLIC 'CONST'
CONST	ENDS
;	COMDAT ??_C@_0CA@HEIGFDLG@Data?2?2Info?2?2SelectedChannel?4inf?$AA@
CONST	SEGMENT DWORD USE32 PUBLIC 'CONST'
CONST	ENDS
;	COMDAT ??_C@_0EB@GFEIDDHE@?2darkeden?2Designed_Common?2Projec@
CONST	SEGMENT DWORD USE32 PUBLIC 'CONST'
CONST	ENDS
;	COMDAT ??_C@_03KLNPHJAI@?$CFsi?$AA@
CONST	SEGMENT DWORD USE32 PUBLIC 'CONST'
CONST	ENDS
;	COMDAT ??_C@_0BJ@MIBMMHPK@real?5size?5?3?5?$CFd?5size?5?3?5?$CFd?$AA@
CONST	SEGMENT DWORD USE32 PUBLIC 'CONST'
CONST	ENDS
;	COMDAT ??_C@_0L@GKEOOOME@CTypePack2?$AA@
CONST	SEGMENT DWORD USE32 PUBLIC 'CONST'
CONST	ENDS
;	COMDAT ??_C@_0M@KJGOGBJN@?2header?4inf?$AA@
CONST	SEGMENT DWORD USE32 PUBLIC 'CONST'
CONST	ENDS
;	COMDAT ??_C@_09EIKOIO@?$CFs?2?$CF05d?$CFs?$AA@
CONST	SEGMENT DWORD USE32 PUBLIC 'CONST'
CONST	ENDS
;	COMDAT ??_C@_0N@GOPDCEEB@basic_string?$AA@
CONST	SEGMENT DWORD USE32 PUBLIC 'CONST'
CONST	ENDS
rdata$r	SEGMENT DWORD USE32 PUBLIC 'CONST'
rdata$r	ENDS
text$yc	SEGMENT PARA USE32 PUBLIC 'CODE'
text$yc	ENDS
CRT$XCA	SEGMENT DWORD USE32 PUBLIC 'DATA'
CRT$XCA	ENDS
CRT$XCU	SEGMENT DWORD USE32 PUBLIC 'DATA'
CRT$XCU	ENDS
CRT$XCL	SEGMENT DWORD USE32 PUBLIC 'DATA'
CRT$XCL	ENDS
CRT$XCC	SEGMENT DWORD USE32 PUBLIC 'DATA'
CRT$XCC	ENDS
CRT$XCZ	SEGMENT DWORD USE32 PUBLIC 'DATA'
CRT$XCZ	ENDS
text$yd	SEGMENT PARA USE32 PUBLIC 'CODE'
text$yd	ENDS
;	COMDAT ?Is565@CDirectDraw@@SA_NXZ
_TEXT	SEGMENT PARA USE32 PUBLIC 'CODE'
_TEXT	ENDS
;	COMDAT ?Red@CDirectDraw@@SAEABG@Z
_TEXT	SEGMENT PARA USE32 PUBLIC 'CODE'
_TEXT	ENDS
;	COMDAT ?Green@CDirectDraw@@SAEABG@Z
_TEXT	SEGMENT PARA USE32 PUBLIC 'CODE'
_TEXT	ENDS
;	COMDAT ?Blue@CDirectDraw@@SAEABG@Z
_TEXT	SEGMENT PARA USE32 PUBLIC 'CODE'
_TEXT	ENDS
;	COMDAT ?GetDDSD@CDirectDrawSurface@@QAEPBU_DDSURFACEDESC2@@XZ
_TEXT	SEGMENT PARA USE32 PUBLIC 'CODE'
_TEXT	ENDS
;	COMDAT ?SetClipLeftTop@CDirectDrawSurface@@QAEXHH@Z
_TEXT	SEGMENT PARA USE32 PUBLIC 'CODE'
_TEXT	ENDS
;	COMDAT ?SetClipRightBottom@CDirectDrawSurface@@QAEXHH@Z
_TEXT	SEGMENT PARA USE32 PUBLIC 'CODE'
_TEXT	ENDS
;	COMDAT _acosl
_TEXT	SEGMENT PARA USE32 PUBLIC 'CODE'
_TEXT	ENDS
;	COMDAT _asinl
_TEXT	SEGMENT PARA USE32 PUBLIC 'CODE'
_TEXT	ENDS
;	COMDAT _atanl
_TEXT	SEGMENT PARA USE32 PUBLIC 'CODE'
_TEXT	ENDS
;	COMDAT _atan2l
_TEXT	SEGMENT PARA USE32 PUBLIC 'CODE'
_TEXT	ENDS
;	COMDAT _ceill
_TEXT	SEGMENT PARA USE32 PUBLIC 'CODE'
_TEXT	ENDS
;	COMDAT _cosl
_TEXT	SEGMENT PARA USE32 PUBLIC 'CODE'
_TEXT	ENDS
;	COMDAT _coshl
_TEXT	SEGMENT PARA USE32 PUBLIC 'CODE'
_TEXT	ENDS
;	COMDAT _expl
_TEXT	SEGMENT PARA USE32 PUBLIC 'CODE'
_TEXT	ENDS
;	COMDAT _fabsl
_TEXT	SEGMENT PARA USE32 PUBLIC 'CODE'
_TEXT	ENDS
;	COMDAT _floorl
_TEXT	SEGMENT PARA USE32 PUBLIC 'CODE'
_TEXT	ENDS
;	COMDAT _fmodl
_TEXT	SEGMENT PARA USE32 PUBLIC 'CODE'
_TEXT	ENDS
;	COMDAT _frexpl
_TEXT	SEGMENT PARA USE32 PUBLIC 'CODE'
_TEXT	ENDS
;	COMDAT _ldexpl
_TEXT	SEGMENT PARA USE32 PUBLIC 'CODE'
_TEXT	ENDS
;	COMDAT _logl
_TEXT	SEGMENT PARA USE32 PUBLIC 'CODE'
_TEXT	ENDS
;	COMDAT _log10l
_TEXT	SEGMENT PARA USE32 PUBLIC 'CODE'
_TEXT	ENDS
;	COMDAT _modfl
_TEXT	SEGMENT PARA USE32 PUBLIC 'CODE'
_TEXT	ENDS
;	COMDAT _powl
_TEXT	SEGMENT PARA USE32 PUBLIC 'CODE'
_TEXT	ENDS
;	COMDAT _sinl
_TEXT	SEGMENT PARA USE32 PUBLIC 'CODE'
_TEXT	ENDS
;	COMDAT _sinhl
_TEXT	SEGMENT PARA USE32 PUBLIC 'CODE'
_TEXT	ENDS
;	COMDAT _sqrtl
_TEXT	SEGMENT PARA USE32 PUBLIC 'CODE'
_TEXT	ENDS
;	COMDAT _tanl
_TEXT	SEGMENT PARA USE32 PUBLIC 'CODE'
_TEXT	ENDS
;	COMDAT _tanhl
_TEXT	SEGMENT PARA USE32 PUBLIC 'CODE'
_TEXT	ENDS
;	COMDAT _frexpf
_TEXT	SEGMENT PARA USE32 PUBLIC 'CODE'
_TEXT	ENDS
;	COMDAT _ldexpf
_TEXT	SEGMENT PARA USE32 PUBLIC 'CODE'
_TEXT	ENDS
;	COMDAT _acosf
_TEXT	SEGMENT PARA USE32 PUBLIC 'CODE'
_TEXT	ENDS
;	COMDAT _asinf
_TEXT	SEGMENT PARA USE32 PUBLIC 'CODE'
_TEXT	ENDS
;	COMDAT _atanf
_TEXT	SEGMENT PARA USE32 PUBLIC 'CODE'
_TEXT	ENDS
;	COMDAT _atan2f
_TEXT	SEGMENT PARA USE32 PUBLIC 'CODE'
_TEXT	ENDS
;	COMDAT _ceilf
_TEXT	SEGMENT PARA USE32 PUBLIC 'CODE'
_TEXT	ENDS
;	COMDAT _cosf
_TEXT	SEGMENT PARA USE32 PUBLIC 'CODE'
_TEXT	ENDS
;	COMDAT _coshf
_TEXT	SEGMENT PARA USE32 PUBLIC 'CODE'
_TEXT	ENDS
;	COMDAT _expf
_TEXT	SEGMENT PARA USE32 PUBLIC 'CODE'
_TEXT	ENDS
;	COMDAT _fabsf
_TEXT	SEGMENT PARA USE32 PUBLIC 'CODE'
_TEXT	ENDS
;	COMDAT _floorf
_TEXT	SEGMENT PARA USE32 PUBLIC 'CODE'
_TEXT	ENDS
;	COMDAT _fmodf
_TEXT	SEGMENT PARA USE32 PUBLIC 'CODE'
_TEXT	ENDS
;	COMDAT _logf
_TEXT	SEGMENT PARA USE32 PUBLIC 'CODE'
_TEXT	ENDS
;	COMDAT _log10f
_TEXT	SEGMENT PARA USE32 PUBLIC 'CODE'
_TEXT	ENDS
;	COMDAT _modff
_TEXT	SEGMENT PARA USE32 PUBLIC 'CODE'
_TEXT	ENDS
;	COMDAT _powf
_TEXT	SEGMENT PARA USE32 PUBLIC 'CODE'
_TEXT	ENDS
;	COMDAT _sinf
_TEXT	SEGMENT PARA USE32 PUBLIC 'CODE'
_TEXT	ENDS
;	COMDAT _sinhf
_TEXT	SEGMENT PARA USE32 PUBLIC 'CODE'
_TEXT	ENDS
;	COMDAT _sqrtf
_TEXT	SEGMENT PARA USE32 PUBLIC 'CODE'
_TEXT	ENDS
;	COMDAT _tanf
_TEXT	SEGMENT PARA USE32 PUBLIC 'CODE'
_TEXT	ENDS
;	COMDAT _tanhf
_TEXT	SEGMENT PARA USE32 PUBLIC 'CODE'
_TEXT	ENDS
;	COMDAT ?start@CNFS@@QAE_NPADH@Z
_TEXT	SEGMENT PARA USE32 PUBLIC 'CODE'
_TEXT	ENDS
;	COMDAT ?end@CNFS@@QAEXXZ
_TEXT	SEGMENT PARA USE32 PUBLIC 'CODE'
_TEXT	ENDS
;	COMDAT ?Init@VirtualFileHeader@@QAEXXZ
_TEXT	SEGMENT PARA USE32 PUBLIC 'CODE'
_TEXT	ENDS
;	COMDAT ??1IFileIO@@UAE@XZ
_TEXT	SEGMENT PARA USE32 PUBLIC 'CODE'
_TEXT	ENDS
;	COMDAT ??_GIFileIO@@UAEPAXI@Z
_TEXT	SEGMENT PARA USE32 PUBLIC 'CODE'
_TEXT	ENDS
;	COMDAT ?get_vfs@iovfs_base@@SAPAVVirtualFileSystem@@XZ
_TEXT	SEGMENT PARA USE32 PUBLIC 'CODE'
_TEXT	ENDS
;	COMDAT ??0iovfs_base@@QAE@XZ
_TEXT	SEGMENT PARA USE32 PUBLIC 'CODE'
_TEXT	ENDS
;	COMDAT ??_Giovfs_base@@UAEPAXI@Z
_TEXT	SEGMENT PARA USE32 PUBLIC 'CODE'
_TEXT	ENDS
;	COMDAT ??1iovfs_base@@UAE@XZ
_TEXT	SEGMENT PARA USE32 PUBLIC 'CODE'
_TEXT	ENDS
;	COMDAT ?Init@iovfs_base@@QAEXXZ
_TEXT	SEGMENT PARA USE32 PUBLIC 'CODE'
_TEXT	ENDS
;	COMDAT ?is_open@iovfs_base@@QBE_NXZ
_TEXT	SEGMENT PARA USE32 PUBLIC 'CODE'
_TEXT	ENDS
;	COMDAT ??0ivfstream@@QAE@XZ
_TEXT	SEGMENT PARA USE32 PUBLIC 'CODE'
_TEXT	ENDS
;	COMDAT ??_Givfstream@@UAEPAXI@Z
_TEXT	SEGMENT PARA USE32 PUBLIC 'CODE'
_TEXT	ENDS
;	COMDAT ??0ivfstream@@QAE@PBDH@Z
_TEXT	SEGMENT PARA USE32 PUBLIC 'CODE'
_TEXT	ENDS
;	COMDAT ??1ivfstream@@UAE@XZ
_TEXT	SEGMENT PARA USE32 PUBLIC 'CODE'
_TEXT	ENDS
;	COMDAT ?open@ivfstream@@UAEXPBDH@Z
_TEXT	SEGMENT PARA USE32 PUBLIC 'CODE'
_TEXT	ENDS
;	COMDAT ?read@ivfstream@@QAEXPADI@Z
_TEXT	SEGMENT PARA USE32 PUBLIC 'CODE'
_TEXT	ENDS
;	COMDAT ?seekg@ivfstream@@QAEXJH@Z
_TEXT	SEGMENT PARA USE32 PUBLIC 'CODE'
_TEXT	ENDS
;	COMDAT ?getline@ivfstream@@QAEPAXPADHD@Z
_TEXT	SEGMENT PARA USE32 PUBLIC 'CODE'
_TEXT	ENDS
;	COMDAT ??_Govfstream@@UAEPAXI@Z
_TEXT	SEGMENT PARA USE32 PUBLIC 'CODE'
_TEXT	ENDS
;	COMDAT ??1ovfstream@@UAE@XZ
_TEXT	SEGMENT PARA USE32 PUBLIC 'CODE'
_TEXT	ENDS
;	COMDAT ?open@ovfstream@@UAEXPBDH@Z
_TEXT	SEGMENT PARA USE32 PUBLIC 'CODE'
_TEXT	ENDS
;	COMDAT ??0ITypePackBase@@QAE@XZ
_TEXT	SEGMENT PARA USE32 PUBLIC 'CODE'
_TEXT	ENDS
;	COMDAT ??1ITypePackBase@@UAE@XZ
_TEXT	SEGMENT PARA USE32 PUBLIC 'CODE'
_TEXT	ENDS
;	COMDAT ??_GITypePackBase@@UAEPAXI@Z
_TEXT	SEGMENT PARA USE32 PUBLIC 'CODE'
_TEXT	ENDS
;	COMDAT ?IsInit@CSpritePalBase@@QBE_NXZ
_TEXT	SEGMENT PARA USE32 PUBLIC 'CODE'
_TEXT	ENDS
;	COMDAT ?IsInit@CSprite@@QBE_NXZ
_TEXT	SEGMENT PARA USE32 PUBLIC 'CODE'
_TEXT	ENDS
;	COMDAT ?GetWidth@CSprite@@QBEGXZ
_TEXT	SEGMENT PARA USE32 PUBLIC 'CODE'
_TEXT	ENDS
;	COMDAT ?GetHeight@CSprite@@QBEGXZ
_TEXT	SEGMENT PARA USE32 PUBLIC 'CODE'
_TEXT	ENDS
;	COMDAT ?Lock@ACriticalSection@@QAEXXZ
_TEXT	SEGMENT PARA USE32 PUBLIC 'CODE'
_TEXT	ENDS
;	COMDAT ?Unlock@ACriticalSection@@QAEXXZ
_TEXT	SEGMENT PARA USE32 PUBLIC 'CODE'
_TEXT	ENDS
;	COMDAT ??0CFrame@@QAE@GFF@Z
_TEXT	SEGMENT PARA USE32 PUBLIC 'CODE'
_TEXT	ENDS
;	COMDAT ?GetCX@CFrame@@QBEFXZ
_TEXT	SEGMENT PARA USE32 PUBLIC 'CODE'
_TEXT	ENDS
;	COMDAT ?GetCY@CFrame@@QBEFXZ
_TEXT	SEGMENT PARA USE32 PUBLIC 'CODE'
_TEXT	ENDS
;	COMDAT ?Set@CEffectFrame@@QAEXGFFD_N@Z
_TEXT	SEGMENT PARA USE32 PUBLIC 'CODE'
_TEXT	ENDS
;	COMDAT ?GetRX@C_SPRITE_FRAME@@QBEHXZ
_TEXT	SEGMENT PARA USE32 PUBLIC 'CODE'
_TEXT	ENDS
;	COMDAT ?GetRY@C_SPRITE_FRAME@@QBEHXZ
_TEXT	SEGMENT PARA USE32 PUBLIC 'CODE'
_TEXT	ENDS
;	COMDAT ?GetHeight@C_ANI_OBJECT@@QBEHG@Z
_TEXT	SEGMENT PARA USE32 PUBLIC 'CODE'
_TEXT	ENDS
;	COMDAT ?GetWidth@C_ANI_OBJECT@@QBEHG@Z
_TEXT	SEGMENT PARA USE32 PUBLIC 'CODE'
_TEXT	ENDS
;	COMDAT ?Blt@C_ANI_OBJECT@@QAEXAAUtagPOINT@@G@Z
_TEXT	SEGMENT PARA USE32 PUBLIC 'CODE'
_TEXT	ENDS
;	COMDAT ?BltColor@C_ANI_OBJECT@@QAEXAAUtagPOINT@@GH@Z
_TEXT	SEGMENT PARA USE32 PUBLIC 'CODE'
_TEXT	ENDS
;	COMDAT ?BltDarkness@C_ANI_OBJECT@@QAEXAAUtagPOINT@@GH@Z
_TEXT	SEGMENT PARA USE32 PUBLIC 'CODE'
_TEXT	ENDS
;	COMDAT ?FrrRX@C_ANI_OBJECT@@QBEHH@Z
_TEXT	SEGMENT PARA USE32 PUBLIC 'CODE'
_TEXT	ENDS
;	COMDAT ?FrrRY@C_ANI_OBJECT@@QBEHH@Z
_TEXT	SEGMENT PARA USE32 PUBLIC 'CODE'
_TEXT	ENDS
;	COMDAT ?FrrSize@C_ANI_OBJECT@@QBEHXZ
_TEXT	SEGMENT PARA USE32 PUBLIC 'CODE'
_TEXT	ENDS
;	COMDAT ??0C_ANI_OBJECT@@QAE@PBD0@Z
_TEXT	SEGMENT PARA USE32 PUBLIC 'CODE'
_TEXT	ENDS
;	COMDAT ??1C_ANI_OBJECT@@QAE@XZ
_TEXT	SEGMENT PARA USE32 PUBLIC 'CODE'
_TEXT	ENDS
;	COMDAT ??_GC_SPRITE_PACK@@QAEPAXI@Z
_TEXT	SEGMENT PARA USE32 PUBLIC 'CODE'
_TEXT	ENDS
;	COMDAT ??_GC_FRR@@QAEPAXI@Z
_TEXT	SEGMENT PARA USE32 PUBLIC 'CODE'
_TEXT	ENDS
;	COMDAT ?Timer@C_ANIMATION@@QAEXXZ
_TEXT	SEGMENT PARA USE32 PUBLIC 'CODE'
_TEXT	ENDS
;	COMDAT ?GetAnimationState@C_ANIMATION@@QBE?AW4PLAY_ORDER@1@XZ
_TEXT	SEGMENT PARA USE32 PUBLIC 'CODE'
_TEXT	ENDS
;	COMDAT ??0C_ANIMATION@@QAE@PAVC_ANI_OBJECT@@@Z
_TEXT	SEGMENT PARA USE32 PUBLIC 'CODE'
_TEXT	ENDS
;	COMDAT ??1C_ANIMATION@@QAE@XZ
_TEXT	SEGMENT PARA USE32 PUBLIC 'CODE'
_TEXT	ENDS
;	COMDAT ?RunNextPlayOrder@C_ANIMATION@@QAEXXZ
_TEXT	SEGMENT PARA USE32 PUBLIC 'CODE'
_TEXT	ENDS
;	COMDAT ?SetSpeed@C_ANIMATION@@QAEXK@Z
_TEXT	SEGMENT PARA USE32 PUBLIC 'CODE'
_TEXT	ENDS
;	COMDAT ?SetPlayPosition@C_ANIMATION@@QAEXHH@Z
_TEXT	SEGMENT PARA USE32 PUBLIC 'CODE'
_TEXT	ENDS
;	COMDAT ?PlayLoop@C_ANIMATION@@QAEXXZ
_TEXT	SEGMENT PARA USE32 PUBLIC 'CODE'
_TEXT	ENDS
;	COMDAT ?PlayLoopBack@C_ANIMATION@@QAEXXZ
_TEXT	SEGMENT PARA USE32 PUBLIC 'CODE'
_TEXT	ENDS
;	COMDAT ?Play@C_ANIMATION@@QAEXXZ
_TEXT	SEGMENT PARA USE32 PUBLIC 'CODE'
_TEXT	ENDS
;	COMDAT ?Stop@C_ANIMATION@@QAEXXZ
_TEXT	SEGMENT PARA USE32 PUBLIC 'CODE'
_TEXT	ENDS
;	COMDAT ?SetNextPlayOrder@C_ANIMATION@@QAEXW4PLAY_ORDER@1@@Z
_TEXT	SEGMENT PARA USE32 PUBLIC 'CODE'
_TEXT	ENDS
;	COMDAT ?GetNextPlayOrder@C_ANIMATION@@QBE?AW4PLAY_ORDER@1@XZ
_TEXT	SEGMENT PARA USE32 PUBLIC 'CODE'
_TEXT	ENDS
;	COMDAT ?Refresh@C_ANIMATION@@QAEXXZ
_TEXT	SEGMENT PARA USE32 PUBLIC 'CODE'
_TEXT	ENDS
;	COMDAT ?PlayBack@C_ANIMATION@@QAEXXZ
_TEXT	SEGMENT PARA USE32 PUBLIC 'CODE'
_TEXT	ENDS
;	COMDAT ?Show@C_ANIMATION@@QAEX_N@Z
_TEXT	SEGMENT PARA USE32 PUBLIC 'CODE'
_TEXT	ENDS
;	COMDAT ?Size@C_FRR@@QBEHXZ
_TEXT	SEGMENT PARA USE32 PUBLIC 'CODE'
_TEXT	ENDS
;	COMDAT ?GetRX@C_FRR@@QBEHH@Z
_TEXT	SEGMENT PARA USE32 PUBLIC 'CODE'
_TEXT	ENDS
;	COMDAT ?GetRY@C_FRR@@QBEHH@Z
_TEXT	SEGMENT PARA USE32 PUBLIC 'CODE'
_TEXT	ENDS
;	COMDAT ??0C_FRR@@QAE@PBD@Z
_TEXT	SEGMENT PARA USE32 PUBLIC 'CODE'
_TEXT	ENDS
;	COMDAT ??1C_FRR@@QAE@XZ
_TEXT	SEGMENT PARA USE32 PUBLIC 'CODE'
_TEXT	ENDS
;	COMDAT ?Open@C_FRR@@QAE_NPBD@Z
_TEXT	SEGMENT PARA USE32 PUBLIC 'CODE'
_TEXT	ENDS
;	COMDAT ?Open@C_SPRITE_PACK@@QAEXPBD@Z
_TEXT	SEGMENT PARA USE32 PUBLIC 'CODE'
_TEXT	ENDS
;	COMDAT ??0C_SPRITE_PACK@@QAE@PBD@Z
_TEXT	SEGMENT PARA USE32 PUBLIC 'CODE'
_TEXT	ENDS
;	COMDAT ??1C_SPRITE_PACK@@QAE@XZ
_TEXT	SEGMENT PARA USE32 PUBLIC 'CODE'
_TEXT	ENDS
;	COMDAT ?BltColor@C_SPRITE_PACK@@QAEXHHGH@Z
_TEXT	SEGMENT PARA USE32 PUBLIC 'CODE'
_TEXT	ENDS
;	COMDAT ?BltColor@C_SPRITE_PACK@@QAEXAAUtagPOINT@@GH@Z
_TEXT	SEGMENT PARA USE32 PUBLIC 'CODE'
_TEXT	ENDS
;	COMDAT ?BltDarkness@C_SPRITE_PACK@@QAEXHHGH@Z
_TEXT	SEGMENT PARA USE32 PUBLIC 'CODE'
_TEXT	ENDS
;	COMDAT ?BltDarkness@C_SPRITE_PACK@@QAEXAAUtagPOINT@@GH@Z
_TEXT	SEGMENT PARA USE32 PUBLIC 'CODE'
_TEXT	ENDS
;	COMDAT ?BltClip@C_SPRITE_PACK@@QAEXHHAAVRect@@G@Z
_TEXT	SEGMENT PARA USE32 PUBLIC 'CODE'
_TEXT	ENDS
;	COMDAT ?BltAlpha@C_SPRITE_PACK@@QAEXHHGH@Z
_TEXT	SEGMENT PARA USE32 PUBLIC 'CODE'
_TEXT	ENDS
;	COMDAT ?BltAlpha@C_SPRITE_PACK@@QAEXAAUtagPOINT@@GH@Z
_TEXT	SEGMENT PARA USE32 PUBLIC 'CODE'
_TEXT	ENDS
;	COMDAT ?GetWidth@C_SPRITE_PACK@@QAEHG@Z
_TEXT	SEGMENT PARA USE32 PUBLIC 'CODE'
_TEXT	ENDS
;	COMDAT ?GetHeight@C_SPRITE_PACK@@QAEHG@Z
_TEXT	SEGMENT PARA USE32 PUBLIC 'CODE'
_TEXT	ENDS
;	COMDAT ?IsPixel@C_SPRITE_PACK@@QAE_NHHG@Z
_TEXT	SEGMENT PARA USE32 PUBLIC 'CODE'
_TEXT	ENDS
;	COMDAT ?Blt@C_SPRITE_PACK@@QAEXHHG@Z
_TEXT	SEGMENT PARA USE32 PUBLIC 'CODE'
_TEXT	ENDS
;	COMDAT ?Blt@C_SPRITE_PACK@@QAEXAAUtagPOINT@@G@Z
_TEXT	SEGMENT PARA USE32 PUBLIC 'CODE'
_TEXT	ENDS
;	COMDAT ?BltOffscreen@C_SPRITE_PACK@@QAEXAAUtagPOINT@@G@Z
_TEXT	SEGMENT PARA USE32 PUBLIC 'CODE'
_TEXT	ENDS
;	COMDAT ?BltOffscreen@C_SPRITE_PACK@@QAEXHHG@Z
_TEXT	SEGMENT PARA USE32 PUBLIC 'CODE'
_TEXT	ENDS
;	COMDAT ?BltOutline@C_SPRITE_PACK@@QAEXHHHG@Z
_TEXT	SEGMENT PARA USE32 PUBLIC 'CODE'
_TEXT	ENDS
;	COMDAT ?BltLocked@C_SPRITE_PACK@@QAEXHHG@Z
_TEXT	SEGMENT PARA USE32 PUBLIC 'CODE'
_TEXT	ENDS
;	COMDAT ?BltLocked@C_SPRITE_PACK@@QAEXAAUtagPOINT@@G@Z
_TEXT	SEGMENT PARA USE32 PUBLIC 'CODE'
_TEXT	ENDS
;	COMDAT ?BltLockedOffscreen@C_SPRITE_PACK@@QAEXAAUtagPOINT@@G@Z
_TEXT	SEGMENT PARA USE32 PUBLIC 'CODE'
_TEXT	ENDS
;	COMDAT ?BltLockedOffscreen@C_SPRITE_PACK@@QAEXHHG@Z
_TEXT	SEGMENT PARA USE32 PUBLIC 'CODE'
_TEXT	ENDS
;	COMDAT ?BltLockedOutline@C_SPRITE_PACK@@QAEXHHHG@Z
_TEXT	SEGMENT PARA USE32 PUBLIC 'CODE'
_TEXT	ENDS
;	COMDAT ?BltLockedColor@C_SPRITE_PACK@@QAEXHHGH@Z
_TEXT	SEGMENT PARA USE32 PUBLIC 'CODE'
_TEXT	ENDS
;	COMDAT ?BltLockedDarkness@C_SPRITE_PACK@@QAEXHHGH@Z
_TEXT	SEGMENT PARA USE32 PUBLIC 'CODE'
_TEXT	ENDS
;	COMDAT ?BltLockedClip@C_SPRITE_PACK@@QAEXHHAAVRect@@G@Z
_TEXT	SEGMENT PARA USE32 PUBLIC 'CODE'
_TEXT	ENDS
;	COMDAT ?BltLockedAlpha@C_SPRITE_PACK@@QAEXHHGH@Z
_TEXT	SEGMENT PARA USE32 PUBLIC 'CODE'
_TEXT	ENDS
;	COMDAT ?BltLockedAlpha@C_SPRITE_PACK@@QAEXAAUtagPOINT@@GH@Z
_TEXT	SEGMENT PARA USE32 PUBLIC 'CODE'
_TEXT	ENDS
;	COMDAT ?BltLockedColorSet@C_SPRITE_PACK@@QAEXAAUtagPOINT@@GG@Z
_TEXT	SEGMENT PARA USE32 PUBLIC 'CODE'
_TEXT	ENDS
;	COMDAT ?BltLockedColorSet@C_SPRITE_PACK@@QAEXHHGG@Z
_TEXT	SEGMENT PARA USE32 PUBLIC 'CODE'
_TEXT	ENDS
;	COMDAT ??0C_SPRITE_FRAME_ARRAY@@QAE@XZ
_TEXT	SEGMENT PARA USE32 PUBLIC 'CODE'
_TEXT	ENDS
;	COMDAT ??1C_SPRITE_FRAME_ARRAY@@QAE@XZ
_TEXT	SEGMENT PARA USE32 PUBLIC 'CODE'
_TEXT	ENDS
;	COMDAT ?AddSpriteFrame@C_SPRITE_FRAME_ARRAY@@QAEXPAVC_SPRITE_FRAME@@@Z
_TEXT	SEGMENT PARA USE32 PUBLIC 'CODE'
_TEXT	ENDS
;	COMDAT ?GetRX@C_SPRITE_FRAME_ARRAY@@QAEHH@Z
_TEXT	SEGMENT PARA USE32 PUBLIC 'CODE'
_TEXT	ENDS
;	COMDAT ?GetRY@C_SPRITE_FRAME_ARRAY@@QAEHH@Z
_TEXT	SEGMENT PARA USE32 PUBLIC 'CODE'
_TEXT	ENDS
;	COMDAT ??0C_SPRITE_FRAME@@QAE@XZ
_TEXT	SEGMENT PARA USE32 PUBLIC 'CODE'
_TEXT	ENDS
;	COMDAT ??1C_SPRITE_FRAME@@QAE@XZ
_TEXT	SEGMENT PARA USE32 PUBLIC 'CODE'
_TEXT	ENDS
;	COMDAT ?Open@C_SPRITE_FRAME@@QAE_NPBD@Z
_TEXT	SEGMENT PARA USE32 PUBLIC 'CODE'
_TEXT	ENDS
;	COMDAT ?Save@C_SPRITE_FRAME@@QAE_NPBD@Z
_TEXT	SEGMENT PARA USE32 PUBLIC 'CODE'
_TEXT	ENDS
;	COMDAT ??_D?$basic_ofstream@DV?$char_traits@D@_STL@@@_STL@@QAEXXZ
_TEXT	SEGMENT PARA USE32 PUBLIC 'CODE'
_TEXT	ENDS
;	COMDAT ?eq@?$__char_traits_base@DH@_STL@@SA_NABD0@Z
_TEXT	SEGMENT PARA USE32 PUBLIC 'CODE'
_TEXT	ENDS
;	COMDAT ?not_eof@?$__char_traits_base@DH@_STL@@SAHABH@Z
_TEXT	SEGMENT PARA USE32 PUBLIC 'CODE'
_TEXT	ENDS
;	COMDAT ?eq_int_type@?$__char_traits_base@DH@_STL@@SA_NABH0@Z
_TEXT	SEGMENT PARA USE32 PUBLIC 'CODE'
_TEXT	ENDS
;	COMDAT ??4?$basic_string@DV?$char_traits@D@_STL@@V?$allocator@D@2@@_STL@@QAEAAV01@PBD@Z
_TEXT	SEGMENT PARA USE32 PUBLIC 'CODE'
_TEXT	ENDS
;	COMDAT ?size@?$basic_string@GV?$char_traits@G@_STL@@V?$allocator@G@2@@_STL@@QBEIXZ
_TEXT	SEGMENT PARA USE32 PUBLIC 'CODE'
_TEXT	ENDS
;	COMDAT ?c_str@?$basic_string@GV?$char_traits@G@_STL@@V?$allocator@G@2@@_STL@@QBEPBGXZ
_TEXT	SEGMENT PARA USE32 PUBLIC 'CODE'
_TEXT	ENDS
;	COMDAT ??0?$fpos@H@_STL@@QAE@J@Z
_TEXT	SEGMENT PARA USE32 PUBLIC 'CODE'
_TEXT	ENDS
;	COMDAT ??B?$fpos@H@_STL@@QBEJXZ
_TEXT	SEGMENT PARA USE32 PUBLIC 'CODE'
_TEXT	ENDS
;	COMDAT ?state@?$fpos@H@_STL@@QBEHXZ
_TEXT	SEGMENT PARA USE32 PUBLIC 'CODE'
_TEXT	ENDS
;	COMDAT ?is_open@?$basic_filebuf@DV?$char_traits@D@_STL@@@_STL@@QBE_NXZ
_TEXT	SEGMENT PARA USE32 PUBLIC 'CODE'
_TEXT	ENDS
;	COMDAT ?_M_seek_return@?$basic_filebuf@DV?$char_traits@D@_STL@@@_STL@@AAE?AV?$fpos@H@2@JH@Z
_TEXT	SEGMENT PARA USE32 PUBLIC 'CODE'
_TEXT	ENDS
;	COMDAT ??0?$_Filebuf_Tmp_Buf@D@_STL@@QAE@H@Z
_TEXT	SEGMENT PARA USE32 PUBLIC 'CODE'
_TEXT	ENDS
;	COMDAT ??1?$_Filebuf_Tmp_Buf@D@_STL@@QAE@XZ
_TEXT	SEGMENT PARA USE32 PUBLIC 'CODE'
_TEXT	ENDS
;	COMDAT ?size@?$list@PAVWindow@@V?$allocator@PAVWindow@@@_STL@@@_STL@@QBEIXZ
_TEXT	SEGMENT PARA USE32 PUBLIC 'CODE'
_TEXT	ENDS
;	COMDAT ?GetSize@?$CTypePack2@VCSprite@@VCSprite555@@VCSprite565@@@@UBEKXZ
_TEXT	SEGMENT PARA USE32 PUBLIC 'CODE'
_TEXT	ENDS
;	COMDAT ?Is565@?$CTypePack2@VCSprite@@VCSprite555@@VCSprite565@@@@UAE_NXZ
_TEXT	SEGMENT PARA USE32 PUBLIC 'CODE'
_TEXT	ENDS
;	COMDAT ?GetSize@?$TArray@VCFrame@@G@@QBEGXZ
_TEXT	SEGMENT PARA USE32 PUBLIC 'CODE'
_TEXT	ENDS
;	COMDAT ??A?$TArray@VCFrame@@G@@QBEABVCFrame@@G@Z
_TEXT	SEGMENT PARA USE32 PUBLIC 'CODE'
_TEXT	ENDS
;	COMDAT ??0?$basic_ofstream@DV?$char_traits@D@_STL@@@_STL@@QAE@PBDH@Z
_TEXT	SEGMENT PARA USE32 PUBLIC 'CODE'
_TEXT	ENDS
;	COMDAT ??1?$basic_ofstream@DV?$char_traits@D@_STL@@@_STL@@UAE@XZ
_TEXT	SEGMENT PARA USE32 PUBLIC 'CODE'
_TEXT	ENDS
;	COMDAT ?close@?$basic_ofstream@DV?$char_traits@D@_STL@@@_STL@@QAEXXZ
_TEXT	SEGMENT PARA USE32 PUBLIC 'CODE'
_TEXT	ENDS
;	COMDAT ??_G?$basic_ofstream@DV?$char_traits@D@_STL@@@_STL@@UAEPAXI@Z
_TEXT	SEGMENT PARA USE32 PUBLIC 'CODE'
_TEXT	ENDS
;	COMDAT ?assign@?$basic_string@DV?$char_traits@D@_STL@@V?$allocator@D@2@@_STL@@QAEAAV12@PBD0@Z
_TEXT	SEGMENT PARA USE32 PUBLIC 'CODE'
_TEXT	ENDS
;	COMDAT ?state@?$fpos@H@_STL@@QAEXH@Z
_TEXT	SEGMENT PARA USE32 PUBLIC 'CODE'
_TEXT	ENDS
;	COMDAT ?setstate@?$basic_ios@DV?$char_traits@D@_STL@@@_STL@@QAEXH@Z
_TEXT	SEGMENT PARA USE32 PUBLIC 'CODE'
_TEXT	ENDS
;	COMDAT ?open@?$basic_filebuf@DV?$char_traits@D@_STL@@@_STL@@QAEPAV12@PBDH@Z
_TEXT	SEGMENT PARA USE32 PUBLIC 'CODE'
_TEXT	ENDS
;	COMDAT ?begin@?$list@PAVWindow@@V?$allocator@PAVWindow@@@_STL@@@_STL@@QBE?AU?$_List_iterator@PAVWindow@@U?$_Const_traits@PAVWindow@@@_STL@@@2@XZ
_TEXT	SEGMENT PARA USE32 PUBLIC 'CODE'
_TEXT	ENDS
;	COMDAT ?end@?$list@PAVWindow@@V?$allocator@PAVWindow@@@_STL@@@_STL@@QBE?AU?$_List_iterator@PAVWindow@@U?$_Const_traits@PAVWindow@@@_STL@@@2@XZ
_TEXT	SEGMENT PARA USE32 PUBLIC 'CODE'
_TEXT	ENDS
;	COMDAT ?rdbuf@?$basic_ofstream@DV?$char_traits@D@_STL@@@_STL@@QBEPAV?$basic_filebuf@DV?$char_traits@D@_STL@@@2@XZ
_TEXT	SEGMENT PARA USE32 PUBLIC 'CODE'
_TEXT	ENDS
;	COMDAT ?copy@?$__char_traits_base@DH@_STL@@SAPADPADPBDI@Z
_TEXT	SEGMENT PARA USE32 PUBLIC 'CODE'
_TEXT	ENDS
;	COMDAT ?begin@?$basic_string@DV?$char_traits@D@_STL@@V?$allocator@D@2@@_STL@@QAEPADXZ
_TEXT	SEGMENT PARA USE32 PUBLIC 'CODE'
_TEXT	ENDS
;	COMDAT ?end@?$basic_string@DV?$char_traits@D@_STL@@V?$allocator@D@2@@_STL@@QAEPADXZ
_TEXT	SEGMENT PARA USE32 PUBLIC 'CODE'
_TEXT	ENDS
;	COMDAT ?size@?$basic_string@DV?$char_traits@D@_STL@@V?$allocator@D@2@@_STL@@QBEIXZ
_TEXT	SEGMENT PARA USE32 PUBLIC 'CODE'
_TEXT	ENDS
;	COMDAT ?erase@?$basic_string@DV?$char_traits@D@_STL@@V?$allocator@D@2@@_STL@@QAEPADPAD0@Z
_TEXT	SEGMENT PARA USE32 PUBLIC 'CODE'
_TEXT	ENDS
;	COMDAT ?clear@?$basic_ios@DV?$char_traits@D@_STL@@@_STL@@QAEXH@Z
_TEXT	SEGMENT PARA USE32 PUBLIC 'CODE'
_TEXT	ENDS
;	COMDAT ??0?$_List_iterator@PAVWindow@@U?$_Const_traits@PAVWindow@@@_STL@@@_STL@@QAE@PAU?$_List_node@PAVWindow@@@1@@Z
_TEXT	SEGMENT PARA USE32 PUBLIC 'CODE'
_TEXT	ENDS
;	COMDAT ?move@?$__char_traits_base@DH@_STL@@SAPADPADPBDI@Z
_TEXT	SEGMENT PARA USE32 PUBLIC 'CODE'
_TEXT	ENDS
;	COMDAT ?rdbuf@?$basic_ios@DV?$char_traits@D@_STL@@@_STL@@QBEPAV?$basic_streambuf@DV?$char_traits@D@_STL@@@2@XZ
_TEXT	SEGMENT PARA USE32 PUBLIC 'CODE'
_TEXT	ENDS
;	COMDAT ??0?$basic_ostream@DV?$char_traits@D@_STL@@@_STL@@QAE@PAV?$basic_streambuf@DV?$char_traits@D@_STL@@@1@@Z
_TEXT	SEGMENT PARA USE32 PUBLIC 'CODE'
_TEXT	ENDS
;	COMDAT ?write@?$basic_ostream@DV?$char_traits@D@_STL@@@_STL@@QAEAAV12@PBDH@Z
_TEXT	SEGMENT PARA USE32 PUBLIC 'CODE'
_TEXT	ENDS
;	COMDAT ??0?$basic_filebuf@DV?$char_traits@D@_STL@@@_STL@@QAE@XZ
_TEXT	SEGMENT PARA USE32 PUBLIC 'CODE'
_TEXT	ENDS
;	COMDAT ?close@?$basic_filebuf@DV?$char_traits@D@_STL@@@_STL@@QAEPAV12@XZ
_TEXT	SEGMENT PARA USE32 PUBLIC 'CODE'
_TEXT	ENDS
;	COMDAT ?_M_exit_input_mode@?$basic_filebuf@DV?$char_traits@D@_STL@@@_STL@@AAEXXZ
_TEXT	SEGMENT PARA USE32 PUBLIC 'CODE'
_TEXT	ENDS
;	COMDAT ?_M_switch_to_output_mode@?$basic_filebuf@DV?$char_traits@D@_STL@@@_STL@@AAE_NXZ
_TEXT	SEGMENT PARA USE32 PUBLIC 'CODE'
_TEXT	ENDS
;	COMDAT ?_M_output_error@?$basic_filebuf@DV?$char_traits@D@_STL@@@_STL@@AAEHXZ
_TEXT	SEGMENT PARA USE32 PUBLIC 'CODE'
_TEXT	ENDS
;	COMDAT ?_M_allocate_buffers@?$basic_filebuf@DV?$char_traits@D@_STL@@@_STL@@AAE_NPADH@Z
_TEXT	SEGMENT PARA USE32 PUBLIC 'CODE'
_TEXT	ENDS
;	COMDAT ?_M_deallocate_buffers@?$basic_filebuf@DV?$char_traits@D@_STL@@@_STL@@AAEXXZ
_TEXT	SEGMENT PARA USE32 PUBLIC 'CODE'
_TEXT	ENDS
;	COMDAT ?_M_seek_init@?$basic_filebuf@DV?$char_traits@D@_STL@@@_STL@@AAE_N_N@Z
_TEXT	SEGMENT PARA USE32 PUBLIC 'CODE'
_TEXT	ENDS
;	COMDAT ?_M_setup_codecvt@?$basic_filebuf@DV?$char_traits@D@_STL@@@_STL@@AAEXABVlocale@2@@Z
_TEXT	SEGMENT PARA USE32 PUBLIC 'CODE'
_TEXT	ENDS
;	COMDAT ??$equal@PADPADU?$_Eq_traits@V?$char_traits@D@_STL@@@_STL@@@_STL@@YA_NPAD00U?$_Eq_traits@V?$char_traits@D@_STL@@@0@@Z
_TEXT	SEGMENT PARA USE32 PUBLIC 'CODE'
_TEXT	ENDS
;	COMDAT ??0?$basic_ios@DV?$char_traits@D@_STL@@@_STL@@IAE@XZ
_TEXT	SEGMENT PARA USE32 PUBLIC 'CODE'
_TEXT	ENDS
;	COMDAT ?init@?$basic_ios@DV?$char_traits@D@_STL@@@_STL@@IAEXPAV?$basic_streambuf@DV?$char_traits@D@_STL@@@2@@Z
_TEXT	SEGMENT PARA USE32 PUBLIC 'CODE'
_TEXT	ENDS
;	COMDAT ??1?$SimpleDataList@PAVPI_Processor@@@@UAE@XZ
_TEXT	SEGMENT PARA USE32 PUBLIC 'CODE'
_TEXT	ENDS
;	COMDAT ??1?$SimpleDataList@PAVLineEditorVisual@@@@UAE@XZ
_TEXT	SEGMENT PARA USE32 PUBLIC 'CODE'
_TEXT	ENDS
;	COMDAT ??0?$basic_string@DV?$char_traits@D@_STL@@V?$allocator@D@2@@_STL@@QAE@ABV01@@Z
_TEXT	SEGMENT PARA USE32 PUBLIC 'CODE'
_TEXT	ENDS
;	COMDAT ??0?$basic_string@DV?$char_traits@D@_STL@@V?$allocator@D@2@@_STL@@QAE@XZ
_TEXT	SEGMENT PARA USE32 PUBLIC 'CODE'
_TEXT	ENDS
;	COMDAT ??1?$SimpleDataList@PAVWindow@@@@UAE@XZ
_TEXT	SEGMENT PARA USE32 PUBLIC 'CODE'
_TEXT	ENDS
;	COMDAT ??$_Pow_int@N@@YANNH@Z
_TEXT	SEGMENT PARA USE32 PUBLIC 'CODE'
_TEXT	ENDS
;	COMDAT ??$_Pow_int@H@@YAHHH@Z
_TEXT	SEGMENT PARA USE32 PUBLIC 'CODE'
_TEXT	ENDS
;	COMDAT ??$_Pow_int@M@@YAMMH@Z
_TEXT	SEGMENT PARA USE32 PUBLIC 'CODE'
_TEXT	ENDS
;	COMDAT ??$_Pow_int@O@@YAOOH@Z
_TEXT	SEGMENT PARA USE32 PUBLIC 'CODE'
_TEXT	ENDS
;	COMDAT ??1?$SimpleDataList@PAUMESSAGE@@@@UAE@XZ
_TEXT	SEGMENT PARA USE32 PUBLIC 'CODE'
_TEXT	ENDS
;	COMDAT ??0?$CTypePack2@VCSprite@@VCSprite555@@VCSprite565@@@@QAE@XZ
_TEXT	SEGMENT PARA USE32 PUBLIC 'CODE'
_TEXT	ENDS
;	COMDAT ??1?$CTypePack2@VCSprite@@VCSprite555@@VCSprite565@@@@UAE@XZ
_TEXT	SEGMENT PARA USE32 PUBLIC 'CODE'
_TEXT	ENDS
;	COMDAT ?Init@?$CTypePack2@VCSprite@@VCSprite555@@VCSprite565@@@@UAEXG@Z
_TEXT	SEGMENT PARA USE32 PUBLIC 'CODE'
_TEXT	ENDS
;	COMDAT ?Release@?$CTypePack2@VCSprite@@VCSprite555@@VCSprite565@@@@UAEXXZ
_TEXT	SEGMENT PARA USE32 PUBLIC 'CODE'
_TEXT	ENDS
;	COMDAT ??A?$CTypePack2@VCSprite@@VCSprite555@@VCSprite565@@@@UAEAAVCSprite@@G@Z
_TEXT	SEGMENT PARA USE32 PUBLIC 'CODE'
_TEXT	ENDS
;	COMDAT ?Get@?$CTypePack2@VCSprite@@VCSprite555@@VCSprite565@@@@UAEAAVCSprite@@G@Z
_TEXT	SEGMENT PARA USE32 PUBLIC 'CODE'
_TEXT	ENDS
;	COMDAT ?SaveToFile@?$CTypePack2@VCSprite@@VCSprite555@@VCSprite565@@@@UAE_NPBD@Z
_TEXT	SEGMENT PARA USE32 PUBLIC 'CODE'
_TEXT	ENDS
;	COMDAT ?SaveToFile@?$CTypePack2@VCSprite@@VCSprite555@@VCSprite565@@@@UAE_NAAV?$basic_ofstream@DV?$char_traits@D@_STL@@@_STL@@0@Z
_TEXT	SEGMENT PARA USE32 PUBLIC 'CODE'
_TEXT	ENDS
;	COMDAT ?LoadFromFileRunning@?$CTypePack2@VCSprite@@VCSprite555@@VCSprite565@@@@UAE_NPBD@Z
_TEXT	SEGMENT PARA USE32 PUBLIC 'CODE'
_TEXT	ENDS
;	COMDAT ?LoadFromFile@?$CTypePack2@VCSprite@@VCSprite555@@VCSprite565@@@@UAE_NPBD@Z
_TEXT	SEGMENT PARA USE32 PUBLIC 'CODE'
_TEXT	ENDS
;	COMDAT ?LoadFromFilePart@?$CTypePack2@VCSprite@@VCSprite555@@VCSprite565@@@@UAE_NAAVCSpriteSetManager@@@Z
_TEXT	SEGMENT PARA USE32 PUBLIC 'CODE'
_TEXT	ENDS
;	COMDAT ?LoadFromFilePart@?$CTypePack2@VCSprite@@VCSprite555@@VCSprite565@@@@UAE_NHH@Z
_TEXT	SEGMENT PARA USE32 PUBLIC 'CODE'
_TEXT	ENDS
;	COMDAT ?LoadFromFileData@?$CTypePack2@VCSprite@@VCSprite555@@VCSprite565@@@@UAE_NHHPBD0@Z
_TEXT	SEGMENT PARA USE32 PUBLIC 'CODE'
_TEXT	ENDS
;	COMDAT ?ReleasePart@?$CTypePack2@VCSprite@@VCSprite555@@VCSprite565@@@@UAE_NV?$COrderedList@G@@@Z
_TEXT	SEGMENT PARA USE32 PUBLIC 'CODE'
_TEXT	ENDS
;	COMDAT ?ReleasePart@?$CTypePack2@VCSprite@@VCSprite555@@VCSprite565@@@@UAE_NHH@Z
_TEXT	SEGMENT PARA USE32 PUBLIC 'CODE'
_TEXT	ENDS
;	COMDAT ?FinishRunningLoad@?$CTypePack2@VCSprite@@VCSprite555@@VCSprite565@@@@UAEXXZ
_TEXT	SEGMENT PARA USE32 PUBLIC 'CODE'
_TEXT	ENDS
;	COMDAT ??0?$TArray@VCFrame@@G@@QAE@G@Z
_TEXT	SEGMENT PARA USE32 PUBLIC 'CODE'
_TEXT	ENDS
;	COMDAT ??1?$TArray@VCFrame@@G@@QAE@XZ
_TEXT	SEGMENT PARA USE32 PUBLIC 'CODE'
_TEXT	ENDS
;	COMDAT ?Release@?$TArray@VCFrame@@G@@QAEXXZ
_TEXT	SEGMENT PARA USE32 PUBLIC 'CODE'
_TEXT	ENDS
;	COMDAT ?LoadFromFile@?$TArray@VCFrame@@G@@QAE_NAAVivfstream@@@Z
_TEXT	SEGMENT PARA USE32 PUBLIC 'CODE'
_TEXT	ENDS
;	COMDAT ??$distance@U?$_List_iterator@PAVWindow@@U?$_Const_traits@PAVWindow@@@_STL@@@_STL@@@_STL@@YAHABU?$_List_iterator@PAVWindow@@U?$_Const_traits@PAVWindow@@@_STL@@@0@0@Z
_TEXT	SEGMENT PARA USE32 PUBLIC 'CODE'
_TEXT	ENDS
;	COMDAT ??$append@PBD@?$basic_string@DV?$char_traits@D@_STL@@V?$allocator@D@2@@_STL@@QAEAAV01@PBD0@Z
_TEXT	SEGMENT PARA USE32 PUBLIC 'CODE'
_TEXT	ENDS
;	COMDAT ??_G?$SimpleDataList@PAVPI_Processor@@@@UAEPAXI@Z
_TEXT	SEGMENT PARA USE32 PUBLIC 'CODE'
_TEXT	ENDS
;	COMDAT ??_G?$SimpleDataList@PAVLineEditorVisual@@@@UAEPAXI@Z
_TEXT	SEGMENT PARA USE32 PUBLIC 'CODE'
_TEXT	ENDS
;	COMDAT ??_G?$SimpleDataList@PAVWindow@@@@UAEPAXI@Z
_TEXT	SEGMENT PARA USE32 PUBLIC 'CODE'
_TEXT	ENDS
;	COMDAT ??_G?$SimpleDataList@PAUMESSAGE@@@@UAEPAXI@Z
_TEXT	SEGMENT PARA USE32 PUBLIC 'CODE'
_TEXT	ENDS
;	COMDAT ??_G?$CTypePack2@VCSprite@@VCSprite555@@VCSprite565@@@@UAEPAXI@Z
_TEXT	SEGMENT PARA USE32 PUBLIC 'CODE'
_TEXT	ENDS
;	COMDAT ??1?$map@GPAVivfstream@@U?$less@G@_STL@@V?$allocator@U?$pair@$$CBGPAVivfstream@@@_STL@@@3@@_STL@@QAE@XZ
_TEXT	SEGMENT PARA USE32 PUBLIC 'CODE'
_TEXT	ENDS
;	COMDAT ??_ECSprite565@@QAEPAXI@Z
_TEXT	SEGMENT PARA USE32 PUBLIC 'CODE'
_TEXT	ENDS
;	COMDAT ??0CSprite565@@QAE@XZ
_TEXT	SEGMENT PARA USE32 PUBLIC 'CODE'
_TEXT	ENDS
;	COMDAT ??1CSprite565@@QAE@XZ
_TEXT	SEGMENT PARA USE32 PUBLIC 'CODE'
_TEXT	ENDS
;	COMDAT ??_ECSprite555@@QAEPAXI@Z
_TEXT	SEGMENT PARA USE32 PUBLIC 'CODE'
_TEXT	ENDS
;	COMDAT ??0CSprite555@@QAE@XZ
_TEXT	SEGMENT PARA USE32 PUBLIC 'CODE'
_TEXT	ENDS
;	COMDAT ??1CSprite555@@QAE@XZ
_TEXT	SEGMENT PARA USE32 PUBLIC 'CODE'
_TEXT	ENDS
;	COMDAT ??_ECSprite@@QAEPAXI@Z
_TEXT	SEGMENT PARA USE32 PUBLIC 'CODE'
_TEXT	ENDS
;	COMDAT ?get_allocator@?$basic_string@DV?$char_traits@D@_STL@@V?$allocator@D@2@@_STL@@QBE?AV?$allocator@D@2@XZ
_TEXT	SEGMENT PARA USE32 PUBLIC 'CODE'
_TEXT	ENDS
;	COMDAT ?_M_terminate_string@?$basic_string@DV?$char_traits@D@_STL@@V?$allocator@D@2@@_STL@@AAEXXZ
_TEXT	SEGMENT PARA USE32 PUBLIC 'CODE'
_TEXT	ENDS
;	COMDAT ??Y?$basic_string@DV?$char_traits@D@_STL@@V?$allocator@D@2@@_STL@@QAEAAV01@D@Z
_TEXT	SEGMENT PARA USE32 PUBLIC 'CODE'
_TEXT	ENDS
;	COMDAT ?c_str@?$basic_string@DV?$char_traits@D@_STL@@V?$allocator@D@2@@_STL@@QBEPBDXZ
_TEXT	SEGMENT PARA USE32 PUBLIC 'CODE'
_TEXT	ENDS
;	COMDAT ??0?$_String_base@DV?$allocator@D@_STL@@@_STL@@QAE@ABV?$allocator@D@1@@Z
_TEXT	SEGMENT PARA USE32 PUBLIC 'CODE'
_TEXT	ENDS
;	COMDAT ??0?$allocator@D@_STL@@QAE@XZ
_TEXT	SEGMENT PARA USE32 PUBLIC 'CODE'
_TEXT	ENDS
;	COMDAT ?allocate@?$allocator@D@_STL@@QAEPADIPBX@Z
_TEXT	SEGMENT PARA USE32 PUBLIC 'CODE'
_TEXT	ENDS
;	COMDAT ?tie@?$basic_ios@DV?$char_traits@D@_STL@@@_STL@@QAEPAV?$basic_ostream@DV?$char_traits@D@_STL@@@2@PAV32@@Z
_TEXT	SEGMENT PARA USE32 PUBLIC 'CODE'
_TEXT	ENDS
;	COMDAT ?fill@?$basic_ios@DV?$char_traits@D@_STL@@@_STL@@QAEDD@Z
_TEXT	SEGMENT PARA USE32 PUBLIC 'CODE'
_TEXT	ENDS
;	COMDAT ?tellp@?$basic_ostream@DV?$char_traits@D@_STL@@@_STL@@QAE?AV?$fpos@H@2@XZ
_TEXT	SEGMENT PARA USE32 PUBLIC 'CODE'
_TEXT	ENDS
;	COMDAT ?seekp@?$basic_ostream@DV?$char_traits@D@_STL@@@_STL@@QAEAAV12@V?$fpos@H@2@@Z
_TEXT	SEGMENT PARA USE32 PUBLIC 'CODE'
_TEXT	ENDS
;	COMDAT ?_M_exit_putback_mode@?$basic_filebuf@DV?$char_traits@D@_STL@@@_STL@@AAEXXZ
_TEXT	SEGMENT PARA USE32 PUBLIC 'CODE'
_TEXT	ENDS
;	COMDAT ??R?$_Eq_traits@V?$char_traits@D@_STL@@@_STL@@QBE_NABD0@Z
_TEXT	SEGMENT PARA USE32 PUBLIC 'CODE'
_TEXT	ENDS
;	COMDAT ?GetSize@?$CSetManager@GG@@QBEGXZ
_TEXT	SEGMENT PARA USE32 PUBLIC 'CODE'
_TEXT	ENDS
;	COMDAT ?GetIterator@?$CSetManager@GG@@QBE?AU?$_List_iterator@GU?$_Const_traits@G@_STL@@@_STL@@XZ
_TEXT	SEGMENT PARA USE32 PUBLIC 'CODE'
_TEXT	ENDS
;	COMDAT ??0?$map@GPAVivfstream@@U?$less@G@_STL@@V?$allocator@U?$pair@$$CBGPAVivfstream@@@_STL@@@3@@_STL@@QAE@XZ
_TEXT	SEGMENT PARA USE32 PUBLIC 'CODE'
_TEXT	ENDS
;	COMDAT ?begin@?$map@GPAVivfstream@@U?$less@G@_STL@@V?$allocator@U?$pair@$$CBGPAVivfstream@@@_STL@@@3@@_STL@@QAE?AU?$_Rb_tree_iterator@U?$pair@$$CBGPAVivfstream@@@_STL@@U?$_Nonconst_traits@U?$pair@$$CBGPAVivfstream@@@_STL@@@2@@2@XZ
_TEXT	SEGMENT PARA USE32 PUBLIC 'CODE'
_TEXT	ENDS
;	COMDAT ?end@?$map@GPAVivfstream@@U?$less@G@_STL@@V?$allocator@U?$pair@$$CBGPAVivfstream@@@_STL@@@3@@_STL@@QAE?AU?$_Rb_tree_iterator@U?$pair@$$CBGPAVivfstream@@@_STL@@U?$_Nonconst_traits@U?$pair@$$CBGPAVivfstream@@@_STL@@@2@@2@XZ
_TEXT	SEGMENT PARA USE32 PUBLIC 'CODE'
_TEXT	ENDS
;	COMDAT ?insert@?$map@GPAVivfstream@@U?$less@G@_STL@@V?$allocator@U?$pair@$$CBGPAVivfstream@@@_STL@@@3@@_STL@@QAE?AU?$pair@U?$_Rb_tree_iterator@U?$pair@$$CBGPAVivfstream@@@_STL@@U?$_Nonconst_traits@U?$pair@$$CBGPAVivfstream@@@_STL@@@2@@_STL@@_N@2@ABU?$pair@$$CBGPAVivfstream@@@2@@Z
_TEXT	SEGMENT PARA USE32 PUBLIC 'CODE'
_TEXT	ENDS
;	COMDAT ?erase@?$map@GPAVivfstream@@U?$less@G@_STL@@V?$allocator@U?$pair@$$CBGPAVivfstream@@@_STL@@@3@@_STL@@QAEXU?$_Rb_tree_iterator@U?$pair@$$CBGPAVivfstream@@@_STL@@U?$_Nonconst_traits@U?$pair@$$CBGPAVivfstream@@@_STL@@@2@@2@@Z
_TEXT	SEGMENT PARA USE32 PUBLIC 'CODE'
_TEXT	ENDS
;	COMDAT ?clear@?$map@GPAVivfstream@@U?$less@G@_STL@@V?$allocator@U?$pair@$$CBGPAVivfstream@@@_STL@@@3@@_STL@@QAEXXZ
_TEXT	SEGMENT PARA USE32 PUBLIC 'CODE'
_TEXT	ENDS
;	COMDAT ?find@?$map@GPAVivfstream@@U?$less@G@_STL@@V?$allocator@U?$pair@$$CBGPAVivfstream@@@_STL@@@3@@_STL@@QAE?AU?$_Rb_tree_iterator@U?$pair@$$CBGPAVivfstream@@@_STL@@U?$_Nonconst_traits@U?$pair@$$CBGPAVivfstream@@@_STL@@@2@@2@ABG@Z
_TEXT	SEGMENT PARA USE32 PUBLIC 'CODE'
_TEXT	ENDS
;	COMDAT ??1?$_Rb_tree@GU?$pair@$$CBGPAVivfstream@@@_STL@@U?$_Select1st@U?$pair@$$CBGPAVivfstream@@@_STL@@@2@U?$less@G@2@V?$allocator@U?$pair@$$CBGPAVivfstream@@@_STL@@@2@@_STL@@QAE@XZ
_TEXT	SEGMENT PARA USE32 PUBLIC 'CODE'
_TEXT	ENDS
;	COMDAT ??0sentry@?$basic_ostream@DV?$char_traits@D@_STL@@@_STL@@QAE@AAV12@@Z
_TEXT	SEGMENT PARA USE32 PUBLIC 'CODE'
_TEXT	ENDS
;	COMDAT ??1sentry@?$basic_ostream@DV?$char_traits@D@_STL@@@_STL@@QAE@XZ
_TEXT	SEGMENT PARA USE32 PUBLIC 'CODE'
_TEXT	ENDS
;	COMDAT ??Bsentry@?$basic_ostream@DV?$char_traits@D@_STL@@@_STL@@QBE_NXZ
_TEXT	SEGMENT PARA USE32 PUBLIC 'CODE'
_TEXT	ENDS
;	COMDAT ??0?$_Rb_tree_iterator@U?$pair@$$CBGPAVivfstream@@@_STL@@U?$_Nonconst_traits@U?$pair@$$CBGPAVivfstream@@@_STL@@@2@@_STL@@QAE@ABU01@@Z
_TEXT	SEGMENT PARA USE32 PUBLIC 'CODE'
_TEXT	ENDS
;	COMDAT ??C?$_Rb_tree_iterator@U?$pair@$$CBGPAVivfstream@@@_STL@@U?$_Nonconst_traits@U?$pair@$$CBGPAVivfstream@@@_STL@@@2@@_STL@@QBEPAU?$pair@$$CBGPAVivfstream@@@1@XZ
_TEXT	SEGMENT PARA USE32 PUBLIC 'CODE'
_TEXT	ENDS
;	COMDAT ??E?$_Rb_tree_iterator@U?$pair@$$CBGPAVivfstream@@@_STL@@U?$_Nonconst_traits@U?$pair@$$CBGPAVivfstream@@@_STL@@@2@@_STL@@QAEAAU01@XZ
_TEXT	SEGMENT PARA USE32 PUBLIC 'CODE'
_TEXT	ENDS
;	COMDAT ??0?$pair@$$CBGPAVivfstream@@@_STL@@QAE@ABGABQAVivfstream@@@Z
_TEXT	SEGMENT PARA USE32 PUBLIC 'CODE'
_TEXT	ENDS
;	COMDAT ?size@?$vector@KV?$allocator@K@_STL@@@_STL@@QBEIXZ
_TEXT	SEGMENT PARA USE32 PUBLIC 'CODE'
_TEXT	ENDS
;	COMDAT ??A?$vector@KV?$allocator@K@_STL@@@_STL@@QAEAAKI@Z
_TEXT	SEGMENT PARA USE32 PUBLIC 'CODE'
_TEXT	ENDS
;	COMDAT ??0?$vector@KV?$allocator@K@_STL@@@_STL@@QAE@ABV?$allocator@K@1@@Z
_TEXT	SEGMENT PARA USE32 PUBLIC 'CODE'
_TEXT	ENDS
;	COMDAT ??1?$vector@KV?$allocator@K@_STL@@@_STL@@QAE@XZ
_TEXT	SEGMENT PARA USE32 PUBLIC 'CODE'
_TEXT	ENDS
;	COMDAT ?push_back@?$vector@KV?$allocator@K@_STL@@@_STL@@QAEXABK@Z
_TEXT	SEGMENT PARA USE32 PUBLIC 'CODE'
_TEXT	ENDS
;	COMDAT ??0?$allocator@K@_STL@@QAE@XZ
_TEXT	SEGMENT PARA USE32 PUBLIC 'CODE'
_TEXT	ENDS
;	COMDAT ??1?$allocator@K@_STL@@QAE@XZ
_TEXT	SEGMENT PARA USE32 PUBLIC 'CODE'
_TEXT	ENDS
;	COMDAT ??D?$_List_iterator@GU?$_Const_traits@G@_STL@@@_STL@@QBEABGXZ
_TEXT	SEGMENT PARA USE32 PUBLIC 'CODE'
_TEXT	ENDS
;	COMDAT ??E?$_List_iterator@GU?$_Const_traits@G@_STL@@@_STL@@QAEAAU01@XZ
_TEXT	SEGMENT PARA USE32 PUBLIC 'CODE'
_TEXT	ENDS
;	COMDAT ?GetSize@?$COrderedList@G@@QBEHXZ
_TEXT	SEGMENT PARA USE32 PUBLIC 'CODE'
_TEXT	ENDS
;	COMDAT ?GetIterator@?$COrderedList@G@@QBE?AU?$_List_iterator@GU?$_Const_traits@G@_STL@@@_STL@@XZ
_TEXT	SEGMENT PARA USE32 PUBLIC 'CODE'
_TEXT	ENDS
;	COMDAT ?_M_terminate_string_aux@?$basic_string@DV?$char_traits@D@_STL@@V?$allocator@D@2@@_STL@@AAEXABU__true_type@2@@Z
_TEXT	SEGMENT PARA USE32 PUBLIC 'CODE'
_TEXT	ENDS
;	COMDAT ?push_back@?$basic_string@DV?$char_traits@D@_STL@@V?$allocator@D@2@@_STL@@QAEXD@Z
_TEXT	SEGMENT PARA USE32 PUBLIC 'CODE'
_TEXT	ENDS
;	COMDAT ??0?$allocator@D@_STL@@QAE@ABV01@@Z
_TEXT	SEGMENT PARA USE32 PUBLIC 'CODE'
_TEXT	ENDS
;	COMDAT ??0?$_STLP_alloc_proxy@PADDV?$allocator@D@_STL@@@_STL@@QAE@ABV?$allocator@D@1@PAD@Z
_TEXT	SEGMENT PARA USE32 PUBLIC 'CODE'
_TEXT	ENDS
;	COMDAT ?flush@?$basic_ostream@DV?$char_traits@D@_STL@@@_STL@@QAEAAV12@XZ
_TEXT	SEGMENT PARA USE32 PUBLIC 'CODE'
_TEXT	ENDS
;	COMDAT ?allocate@?$__node_alloc@$00$0A@@_STL@@SAPAXI@Z
_TEXT	SEGMENT PARA USE32 PUBLIC 'CODE'
_TEXT	ENDS
;	COMDAT ?begin@?$list@GV?$allocator@G@_STL@@@_STL@@QBE?AU?$_List_iterator@GU?$_Const_traits@G@_STL@@@2@XZ
_TEXT	SEGMENT PARA USE32 PUBLIC 'CODE'
_TEXT	ENDS
;	COMDAT ?size@?$list@GV?$allocator@G@_STL@@@_STL@@QBEIXZ
_TEXT	SEGMENT PARA USE32 PUBLIC 'CODE'
_TEXT	ENDS
;	COMDAT ??0?$_Rb_tree@GU?$pair@$$CBGPAVivfstream@@@_STL@@U?$_Select1st@U?$pair@$$CBGPAVivfstream@@@_STL@@@2@U?$less@G@2@V?$allocator@U?$pair@$$CBGPAVivfstream@@@_STL@@@2@@_STL@@QAE@ABU?$less@G@1@ABV?$allocator@U?$pair@$$CBGPAVivfstream@@@_STL@@@1@@Z
_TEXT	SEGMENT PARA USE32 PUBLIC 'CODE'
_TEXT	ENDS
;	COMDAT ?begin@?$_Rb_tree@GU?$pair@$$CBGPAVivfstream@@@_STL@@U?$_Select1st@U?$pair@$$CBGPAVivfstream@@@_STL@@@2@U?$less@G@2@V?$allocator@U?$pair@$$CBGPAVivfstream@@@_STL@@@2@@_STL@@QAE?AU?$_Rb_tree_iterator@U?$pair@$$CBGPAVivfstream@@@_STL@@U?$_Nonconst_traits@U?$pair@$$CBGPAVivfstream@@@_STL@@@2@@2@XZ
_TEXT	SEGMENT PARA USE32 PUBLIC 'CODE'
_TEXT	ENDS
;	COMDAT ?end@?$_Rb_tree@GU?$pair@$$CBGPAVivfstream@@@_STL@@U?$_Select1st@U?$pair@$$CBGPAVivfstream@@@_STL@@@2@U?$less@G@2@V?$allocator@U?$pair@$$CBGPAVivfstream@@@_STL@@@2@@_STL@@QAE?AU?$_Rb_tree_iterator@U?$pair@$$CBGPAVivfstream@@@_STL@@U?$_Nonconst_traits@U?$pair@$$CBGPAVivfstream@@@_STL@@@2@@2@XZ
_TEXT	SEGMENT PARA USE32 PUBLIC 'CODE'
_TEXT	ENDS
;	COMDAT ?erase@?$_Rb_tree@GU?$pair@$$CBGPAVivfstream@@@_STL@@U?$_Select1st@U?$pair@$$CBGPAVivfstream@@@_STL@@@2@U?$less@G@2@V?$allocator@U?$pair@$$CBGPAVivfstream@@@_STL@@@2@@_STL@@QAEXU?$_Rb_tree_iterator@U?$pair@$$CBGPAVivfstream@@@_STL@@U?$_Nonconst_traits@U?$pair@$$CBGPAVivfstream@@@_STL@@@2@@2@@Z
_TEXT	SEGMENT PARA USE32 PUBLIC 'CODE'
_TEXT	ENDS
;	COMDAT ?clear@?$_Rb_tree@GU?$pair@$$CBGPAVivfstream@@@_STL@@U?$_Select1st@U?$pair@$$CBGPAVivfstream@@@_STL@@@2@U?$less@G@2@V?$allocator@U?$pair@$$CBGPAVivfstream@@@_STL@@@2@@_STL@@QAEXXZ
_TEXT	SEGMENT PARA USE32 PUBLIC 'CODE'
_TEXT	ENDS
;	COMDAT ??1?$_Rb_tree_base@U?$pair@$$CBGPAVivfstream@@@_STL@@V?$allocator@U?$pair@$$CBGPAVivfstream@@@_STL@@@2@@_STL@@QAE@XZ
_TEXT	SEGMENT PARA USE32 PUBLIC 'CODE'
_TEXT	ENDS
;	COMDAT ??0?$allocator@U?$pair@$$CBGPAVivfstream@@@_STL@@@_STL@@QAE@XZ
_TEXT	SEGMENT PARA USE32 PUBLIC 'CODE'
_TEXT	ENDS
;	COMDAT ??1?$allocator@U?$pair@$$CBGPAVivfstream@@@_STL@@@_STL@@QAE@XZ
_TEXT	SEGMENT PARA USE32 PUBLIC 'CODE'
_TEXT	ENDS
;	COMDAT ??D?$_Rb_tree_iterator@U?$pair@$$CBGPAVivfstream@@@_STL@@U?$_Nonconst_traits@U?$pair@$$CBGPAVivfstream@@@_STL@@@2@@_STL@@QBEAAU?$pair@$$CBGPAVivfstream@@@1@XZ
_TEXT	SEGMENT PARA USE32 PUBLIC 'CODE'
_TEXT	ENDS
;	COMDAT ?_M_insert_overflow@?$vector@KV?$allocator@K@_STL@@@_STL@@IAEXPAKABKABU__true_type@2@I_N@Z
_TEXT	SEGMENT PARA USE32 PUBLIC 'CODE'
_TEXT	ENDS
;	COMDAT ?begin@?$vector@KV?$allocator@K@_STL@@@_STL@@QAEPAKXZ
_TEXT	SEGMENT PARA USE32 PUBLIC 'CODE'
_TEXT	ENDS
;	COMDAT ??0?$_Vector_base@KV?$allocator@K@_STL@@@_STL@@QAE@ABV?$allocator@K@1@@Z
_TEXT	SEGMENT PARA USE32 PUBLIC 'CODE'
_TEXT	ENDS
;	COMDAT ??1?$_Vector_base@KV?$allocator@K@_STL@@@_STL@@QAE@XZ
_TEXT	SEGMENT PARA USE32 PUBLIC 'CODE'
_TEXT	ENDS
;	COMDAT ??1?$_STLP_alloc_proxy@PAU?$_Rb_tree_node@U?$pair@$$CBGPAVivfstream@@@_STL@@@_STL@@U12@V?$allocator@U?$_Rb_tree_node@U?$pair@$$CBGPAVivfstream@@@_STL@@@_STL@@@2@@_STL@@QAE@XZ
_TEXT	SEGMENT PARA USE32 PUBLIC 'CODE'
_TEXT	ENDS
;	COMDAT ??1?$_STLP_alloc_proxy@PAKKV?$allocator@K@_STL@@@_STL@@QAE@XZ
_TEXT	SEGMENT PARA USE32 PUBLIC 'CODE'
_TEXT	ENDS
;	COMDAT ?_M_construct_null@?$basic_string@DV?$char_traits@D@_STL@@V?$allocator@D@2@@_STL@@AAEXPAD@Z
_TEXT	SEGMENT PARA USE32 PUBLIC 'CODE'
_TEXT	ENDS
;	COMDAT ?end@?$list@GV?$allocator@G@_STL@@@_STL@@QBE?AU?$_List_iterator@GU?$_Const_traits@G@_STL@@@2@XZ
_TEXT	SEGMENT PARA USE32 PUBLIC 'CODE'
_TEXT	ENDS
;	COMDAT ?_M_root@?$_Rb_tree@GU?$pair@$$CBGPAVivfstream@@@_STL@@U?$_Select1st@U?$pair@$$CBGPAVivfstream@@@_STL@@@2@U?$less@G@2@V?$allocator@U?$pair@$$CBGPAVivfstream@@@_STL@@@2@@_STL@@IBEAAPAU?$_Rb_tree_node@U?$pair@$$CBGPAVivfstream@@@_STL@@@2@XZ
_TEXT	SEGMENT PARA USE32 PUBLIC 'CODE'
_TEXT	ENDS
;	COMDAT ?_M_leftmost@?$_Rb_tree@GU?$pair@$$CBGPAVivfstream@@@_STL@@U?$_Select1st@U?$pair@$$CBGPAVivfstream@@@_STL@@@2@U?$less@G@2@V?$allocator@U?$pair@$$CBGPAVivfstream@@@_STL@@@2@@_STL@@IBEAAPAU?$_Rb_tree_node@U?$pair@$$CBGPAVivfstream@@@_STL@@@2@XZ
_TEXT	SEGMENT PARA USE32 PUBLIC 'CODE'
_TEXT	ENDS
;	COMDAT ?_M_rightmost@?$_Rb_tree@GU?$pair@$$CBGPAVivfstream@@@_STL@@U?$_Select1st@U?$pair@$$CBGPAVivfstream@@@_STL@@@2@U?$less@G@2@V?$allocator@U?$pair@$$CBGPAVivfstream@@@_STL@@@2@@_STL@@IBEAAPAU?$_Rb_tree_node@U?$pair@$$CBGPAVivfstream@@@_STL@@@2@XZ
_TEXT	SEGMENT PARA USE32 PUBLIC 'CODE'
_TEXT	ENDS
;	COMDAT ?_M_empty_initialize@?$_Rb_tree@GU?$pair@$$CBGPAVivfstream@@@_STL@@U?$_Select1st@U?$pair@$$CBGPAVivfstream@@@_STL@@@2@U?$less@G@2@V?$allocator@U?$pair@$$CBGPAVivfstream@@@_STL@@@2@@_STL@@AAEXXZ
_TEXT	SEGMENT PARA USE32 PUBLIC 'CODE'
_TEXT	ENDS
;	COMDAT ??0?$_Rb_tree_base@U?$pair@$$CBGPAVivfstream@@@_STL@@V?$allocator@U?$pair@$$CBGPAVivfstream@@@_STL@@@2@@_STL@@QAE@ABV?$allocator@U?$pair@$$CBGPAVivfstream@@@_STL@@@1@@Z
_TEXT	SEGMENT PARA USE32 PUBLIC 'CODE'
_TEXT	ENDS
;	COMDAT ??1?$allocator@U?$_Rb_tree_node@U?$pair@$$CBGPAVivfstream@@@_STL@@@_STL@@@_STL@@QAE@XZ
_TEXT	SEGMENT PARA USE32 PUBLIC 'CODE'
_TEXT	ENDS
;	COMDAT ?deallocate@?$allocator@U?$_Rb_tree_node@U?$pair@$$CBGPAVivfstream@@@_STL@@@_STL@@@_STL@@QAEXPAU?$_Rb_tree_node@U?$pair@$$CBGPAVivfstream@@@_STL@@@2@I@Z
_TEXT	SEGMENT PARA USE32 PUBLIC 'CODE'
_TEXT	ENDS
;	COMDAT ??0?$_Rb_tree_iterator@U?$pair@$$CBGPAVivfstream@@@_STL@@U?$_Nonconst_traits@U?$pair@$$CBGPAVivfstream@@@_STL@@@2@@_STL@@QAE@PAU?$_Rb_tree_node@U?$pair@$$CBGPAVivfstream@@@_STL@@@1@@Z
_TEXT	SEGMENT PARA USE32 PUBLIC 'CODE'
_TEXT	ENDS
;	COMDAT ?_M_clear@?$vector@KV?$allocator@K@_STL@@@_STL@@IAEXXZ
_TEXT	SEGMENT PARA USE32 PUBLIC 'CODE'
_TEXT	ENDS
;	COMDAT ?_M_set@?$vector@KV?$allocator@K@_STL@@@_STL@@IAEXPAK00@Z
_TEXT	SEGMENT PARA USE32 PUBLIC 'CODE'
_TEXT	ENDS
;	COMDAT ?allocate@?$allocator@K@_STL@@QAEPAKIPBX@Z
_TEXT	SEGMENT PARA USE32 PUBLIC 'CODE'
_TEXT	ENDS
;	COMDAT ?deallocate@?$allocator@K@_STL@@QAEXPAKI@Z
_TEXT	SEGMENT PARA USE32 PUBLIC 'CODE'
_TEXT	ENDS
;	COMDAT ??0?$_STLP_alloc_proxy@PAKKV?$allocator@K@_STL@@@_STL@@QAE@ABV?$allocator@K@1@PAK@Z
_TEXT	SEGMENT PARA USE32 PUBLIC 'CODE'
_TEXT	ENDS
;	COMDAT ??0?$_List_iterator@GU?$_Const_traits@G@_STL@@@_STL@@QAE@PAU?$_List_node@G@1@@Z
_TEXT	SEGMENT PARA USE32 PUBLIC 'CODE'
_TEXT	ENDS
;	COMDAT ?_M_construct_null_aux@?$basic_string@DV?$char_traits@D@_STL@@V?$allocator@D@2@@_STL@@AAEXPADABU__true_type@2@@Z
_TEXT	SEGMENT PARA USE32 PUBLIC 'CODE'
_TEXT	ENDS
;	COMDAT ?_S_color@?$_Rb_tree@GU?$pair@$$CBGPAVivfstream@@@_STL@@U?$_Select1st@U?$pair@$$CBGPAVivfstream@@@_STL@@@2@U?$less@G@2@V?$allocator@U?$pair@$$CBGPAVivfstream@@@_STL@@@2@@_STL@@KAAA_NPAU?$_Rb_tree_node@U?$pair@$$CBGPAVivfstream@@@_STL@@@2@@Z
_TEXT	SEGMENT PARA USE32 PUBLIC 'CODE'
_TEXT	ENDS
;	COMDAT ??0?$_STLP_alloc_proxy@PAU?$_Rb_tree_node@U?$pair@$$CBGPAVivfstream@@@_STL@@@_STL@@U12@V?$allocator@U?$_Rb_tree_node@U?$pair@$$CBGPAVivfstream@@@_STL@@@_STL@@@2@@_STL@@QAE@ABV?$allocator@U?$_Rb_tree_node@U?$pair@$$CBGPAVivfstream@@@_STL@@@_STL@@@1@PAU?$_Rb_tree_node@U?$pair@$$CBGPAVivfstream@@@_STL@@@1@@Z
_TEXT	SEGMENT PARA USE32 PUBLIC 'CODE'
_TEXT	ENDS
;	COMDAT ?allocate@?$allocator@U?$_Rb_tree_node@U?$pair@$$CBGPAVivfstream@@@_STL@@@_STL@@@_STL@@QAEPAU?$_Rb_tree_node@U?$pair@$$CBGPAVivfstream@@@_STL@@@2@IPBX@Z
_TEXT	SEGMENT PARA USE32 PUBLIC 'CODE'
_TEXT	ENDS
;	COMDAT ??0?$allocator@K@_STL@@QAE@ABV01@@Z
_TEXT	SEGMENT PARA USE32 PUBLIC 'CODE'
_TEXT	ENDS
;	COMDAT ??0?$allocator@U?$_Rb_tree_node@U?$pair@$$CBGPAVivfstream@@@_STL@@@_STL@@@_STL@@QAE@ABV01@@Z
_TEXT	SEGMENT PARA USE32 PUBLIC 'CODE'
_TEXT	ENDS
;	COMDAT ?rdbuf@?$basic_ios@DV?$char_traits@D@_STL@@@_STL@@QAEPAV?$basic_streambuf@DV?$char_traits@D@_STL@@@2@PAV32@@Z
_TEXT	SEGMENT PARA USE32 PUBLIC 'CODE'
_TEXT	ENDS
;	COMDAT ?imbue@?$basic_ios@DV?$char_traits@D@_STL@@@_STL@@QAE?AVlocale@2@ABV32@@Z
_TEXT	SEGMENT PARA USE32 PUBLIC 'CODE'
_TEXT	ENDS
;	COMDAT ?widen@?$basic_ios@DV?$char_traits@D@_STL@@@_STL@@QBEDD@Z
_TEXT	SEGMENT PARA USE32 PUBLIC 'CODE'
_TEXT	ENDS
;	COMDAT ?_M_handle_exception@?$basic_ios@DV?$char_traits@D@_STL@@@_STL@@QAEXH@Z
_TEXT	SEGMENT PARA USE32 PUBLIC 'CODE'
_TEXT	ENDS
;	COMDAT ?_M_unshift@?$basic_filebuf@DV?$char_traits@D@_STL@@@_STL@@AAE_NXZ
_TEXT	SEGMENT PARA USE32 PUBLIC 'CODE'
_TEXT	ENDS
;	COMDAT ?_M_allocate_buffers@?$basic_filebuf@DV?$char_traits@D@_STL@@@_STL@@AAE_NXZ
_TEXT	SEGMENT PARA USE32 PUBLIC 'CODE'
_TEXT	ENDS
;	COMDAT ??$max@H@_STL@@YAABHABH0@Z
_TEXT	SEGMENT PARA USE32 PUBLIC 'CODE'
_TEXT	ENDS
;	COMDAT ??$use_facet@V?$codecvt@DDH@_STL@@@_STL@@YAABV?$codecvt@DDH@0@ABVlocale@0@@Z
_TEXT	SEGMENT PARA USE32 PUBLIC 'CODE'
_TEXT	ENDS
;	COMDAT ??0?$basic_string@DV?$char_traits@D@_STL@@V?$allocator@D@2@@_STL@@QAE@PBDABV?$allocator@D@1@@Z
_TEXT	SEGMENT PARA USE32 PUBLIC 'CODE'
_TEXT	ENDS
;	COMDAT ?reserve@?$basic_string@DV?$char_traits@D@_STL@@V?$allocator@D@2@@_STL@@QAEXI@Z
_TEXT	SEGMENT PARA USE32 PUBLIC 'CODE'
_TEXT	ENDS
;	COMDAT ??$_M_range_initialize@PAD@?$basic_string@DV?$char_traits@D@_STL@@V?$allocator@D@2@@_STL@@AAEXPAD0@Z
_TEXT	SEGMENT PARA USE32 PUBLIC 'CODE'
_TEXT	ENDS
;	COMDAT ?LogTwoMultiplier@?$CTypePack2@VCSprite@@VCSprite555@@VCSprite565@@@@KAHH@Z
_TEXT	SEGMENT PARA USE32 PUBLIC 'CODE'
_TEXT	ENDS
;	COMDAT ?GetSplitFile@?$CTypePack2@VCSprite@@VCSprite555@@VCSprite565@@@@IAEHHPAD@Z
_TEXT	SEGMENT PARA USE32 PUBLIC 'CODE'
_TEXT	ENDS
;	COMDAT ??$?HDV?$char_traits@D@_STL@@V?$allocator@D@1@@_STL@@YA?AV?$basic_string@DV?$char_traits@D@_STL@@V?$allocator@D@2@@0@ABV10@PBD@Z
_TEXT	SEGMENT PARA USE32 PUBLIC 'CODE'
_TEXT	ENDS
;	COMDAT ??1?$COrderedList@G@@QAE@XZ
_TEXT	SEGMENT PARA USE32 PUBLIC 'CODE'
_TEXT	ENDS
;	COMDAT ?Init@?$TArray@VCFrame@@G@@QAEXG@Z
_TEXT	SEGMENT PARA USE32 PUBLIC 'CODE'
_TEXT	ENDS
;	COMDAT ??$__distance@U?$_List_iterator@PAVWindow@@U?$_Const_traits@PAVWindow@@@_STL@@@_STL@@@_STL@@YAHABU?$_List_iterator@PAVWindow@@U?$_Const_traits@PAVWindow@@@_STL@@@0@0ABUinput_iterator_tag@0@@Z
_TEXT	SEGMENT PARA USE32 PUBLIC 'CODE'
_TEXT	ENDS
;	COMDAT ??$_M_append_dispatch@PBD@?$basic_string@DV?$char_traits@D@_STL@@V?$allocator@D@2@@_STL@@AAEAAV01@PBD0ABU__false_type@1@@Z
_TEXT	SEGMENT PARA USE32 PUBLIC 'CODE'
_TEXT	ENDS
;	COMDAT ?_M_erase@?$_Rb_tree@GU?$pair@$$CBGPAVivfstream@@@_STL@@U?$_Select1st@U?$pair@$$CBGPAVivfstream@@@_STL@@@2@U?$less@G@2@V?$allocator@U?$pair@$$CBGPAVivfstream@@@_STL@@@2@@_STL@@AAEXPAU?$_Rb_tree_node@U?$pair@$$CBGPAVivfstream@@@_STL@@@2@@Z
_TEXT	SEGMENT PARA USE32 PUBLIC 'CODE'
_TEXT	ENDS
;	COMDAT ?insert_unique@?$_Rb_tree@GU?$pair@$$CBGPAVivfstream@@@_STL@@U?$_Select1st@U?$pair@$$CBGPAVivfstream@@@_STL@@@2@U?$less@G@2@V?$allocator@U?$pair@$$CBGPAVivfstream@@@_STL@@@2@@_STL@@QAE?AU?$pair@U?$_Rb_tree_iterator@U?$pair@$$CBGPAVivfstream@@@_STL@@U?$_Nonconst_traits@U?$pair@$$CBGPAVivfstream@@@_STL@@@2@@_STL@@_N@2@ABU?$pair@$$CBGPAVivfstream@@@2@@Z
_TEXT	SEGMENT PARA USE32 PUBLIC 'CODE'
_TEXT	ENDS
;	COMDAT ??$find@G@?$_Rb_tree@GU?$pair@$$CBGPAVivfstream@@@_STL@@U?$_Select1st@U?$pair@$$CBGPAVivfstream@@@_STL@@@2@U?$less@G@2@V?$allocator@U?$pair@$$CBGPAVivfstream@@@_STL@@@2@@_STL@@QAE?AU?$_Rb_tree_iterator@U?$pair@$$CBGPAVivfstream@@@_STL@@U?$_Nonconst_traits@U?$pair@$$CBGPAVivfstream@@@_STL@@@2@@1@ABG@Z
_TEXT	SEGMENT PARA USE32 PUBLIC 'CODE'
_TEXT	ENDS
;	COMDAT ??$_M_init@DV?$char_traits@D@_STL@@@_STL@@YA_NAAV?$basic_ostream@DV?$char_traits@D@_STL@@@0@@Z
_TEXT	SEGMENT PARA USE32 PUBLIC 'CODE'
_TEXT	ENDS
;	COMDAT ??$_Destroy@PAK@_STL@@YAXPAK0@Z
_TEXT	SEGMENT PARA USE32 PUBLIC 'CODE'
_TEXT	ENDS
;	COMDAT ??$_Construct@KK@_STL@@YAXPAKABK@Z
_TEXT	SEGMENT PARA USE32 PUBLIC 'CODE'
_TEXT	ENDS
;	COMDAT ??$max@I@_STL@@YAABIABI0@Z
_TEXT	SEGMENT PARA USE32 PUBLIC 'CODE'
_TEXT	ENDS
;	COMDAT ??$distance@U?$_List_iterator@GU?$_Const_traits@G@_STL@@@_STL@@@_STL@@YAHABU?$_List_iterator@GU?$_Const_traits@G@_STL@@@0@0@Z
_TEXT	SEGMENT PARA USE32 PUBLIC 'CODE'
_TEXT	ENDS
;	COMDAT ??$_Destroy@U?$pair@$$CBGPAVivfstream@@@_STL@@@_STL@@YAXPAU?$pair@$$CBGPAVivfstream@@@0@@Z
_TEXT	SEGMENT PARA USE32 PUBLIC 'CODE'
_TEXT	ENDS
;	COMDAT ??$fill_n@PAKIK@_STL@@YAPAKPAKIABK@Z
_TEXT	SEGMENT PARA USE32 PUBLIC 'CODE'
_TEXT	ENDS
;	COMDAT ??$?0U?$pair@$$CBGPAVivfstream@@@_STL@@@?$allocator@U?$_Rb_tree_node@U?$pair@$$CBGPAVivfstream@@@_STL@@@_STL@@@_STL@@QAE@ABV?$allocator@U?$pair@$$CBGPAVivfstream@@@_STL@@@1@@Z
_TEXT	SEGMENT PARA USE32 PUBLIC 'CODE'
_TEXT	ENDS
;	COMDAT ??_FCFrame@@QAEXXZ
_TEXT	SEGMENT PARA USE32 PUBLIC 'CODE'
_TEXT	ENDS
;	COMDAT ??_H@YGXPAXIHP6EPAX0@Z@Z
_TEXT	SEGMENT PARA USE32 PUBLIC 'CODE'
_TEXT	ENDS
;	COMDAT ??0?$basic_string@DV?$char_traits@D@_STL@@V?$allocator@D@2@@_STL@@QAE@U_String_reserve_t@1@IABV?$allocator@D@1@@Z
_TEXT	SEGMENT PARA USE32 PUBLIC 'CODE'
_TEXT	ENDS
;	COMDAT ??4?$basic_string@DV?$char_traits@D@_STL@@V?$allocator@D@2@@_STL@@QAEAAV01@ABV01@@Z
_TEXT	SEGMENT PARA USE32 PUBLIC 'CODE'
_TEXT	ENDS
;	COMDAT ?max_size@?$basic_string@DV?$char_traits@D@_STL@@V?$allocator@D@2@@_STL@@QBEIXZ
_TEXT	SEGMENT PARA USE32 PUBLIC 'CODE'
_TEXT	ENDS
;	COMDAT ?capacity@?$basic_string@DV?$char_traits@D@_STL@@V?$allocator@D@2@@_STL@@QBEIXZ
_TEXT	SEGMENT PARA USE32 PUBLIC 'CODE'
_TEXT	ENDS
;	COMDAT ?append@?$basic_string@DV?$char_traits@D@_STL@@V?$allocator@D@2@@_STL@@QAEAAV12@ABV12@@Z
_TEXT	SEGMENT PARA USE32 PUBLIC 'CODE'
_TEXT	ENDS
;	COMDAT ?tie@?$basic_ios@DV?$char_traits@D@_STL@@@_STL@@QBEPAV?$basic_ostream@DV?$char_traits@D@_STL@@@2@XZ
_TEXT	SEGMENT PARA USE32 PUBLIC 'CODE'
_TEXT	ENDS
;	COMDAT ??1?$list@GV?$allocator@G@_STL@@@_STL@@QAE@XZ
_TEXT	SEGMENT PARA USE32 PUBLIC 'CODE'
_TEXT	ENDS
;	COMDAT ?_S_left@?$_Rb_tree@GU?$pair@$$CBGPAVivfstream@@@_STL@@U?$_Select1st@U?$pair@$$CBGPAVivfstream@@@_STL@@@2@U?$less@G@2@V?$allocator@U?$pair@$$CBGPAVivfstream@@@_STL@@@2@@_STL@@KAAAPAU?$_Rb_tree_node@U?$pair@$$CBGPAVivfstream@@@_STL@@@2@PAU32@@Z
_TEXT	SEGMENT PARA USE32 PUBLIC 'CODE'
_TEXT	ENDS
;	COMDAT ?_S_right@?$_Rb_tree@GU?$pair@$$CBGPAVivfstream@@@_STL@@U?$_Select1st@U?$pair@$$CBGPAVivfstream@@@_STL@@@2@U?$less@G@2@V?$allocator@U?$pair@$$CBGPAVivfstream@@@_STL@@@2@@_STL@@KAAAPAU?$_Rb_tree_node@U?$pair@$$CBGPAVivfstream@@@_STL@@@2@PAU32@@Z
_TEXT	SEGMENT PARA USE32 PUBLIC 'CODE'
_TEXT	ENDS
;	COMDAT ?_S_key@?$_Rb_tree@GU?$pair@$$CBGPAVivfstream@@@_STL@@U?$_Select1st@U?$pair@$$CBGPAVivfstream@@@_STL@@@2@U?$less@G@2@V?$allocator@U?$pair@$$CBGPAVivfstream@@@_STL@@@2@@_STL@@KAABGPAU?$_Rb_tree_node@U?$pair@$$CBGPAVivfstream@@@_STL@@@2@@Z
_TEXT	SEGMENT PARA USE32 PUBLIC 'CODE'
_TEXT	ENDS
;	COMDAT ?_S_key@?$_Rb_tree@GU?$pair@$$CBGPAVivfstream@@@_STL@@U?$_Select1st@U?$pair@$$CBGPAVivfstream@@@_STL@@@2@U?$less@G@2@V?$allocator@U?$pair@$$CBGPAVivfstream@@@_STL@@@2@@_STL@@KAABGPAU_Rb_tree_node_base@2@@Z
_TEXT	SEGMENT PARA USE32 PUBLIC 'CODE'
_TEXT	ENDS
;	COMDAT ??R?$less@G@_STL@@QBE_NABG0@Z
_TEXT	SEGMENT PARA USE32 PUBLIC 'CODE'
_TEXT	ENDS
;	COMDAT ??E?$_List_iterator@PAVWindow@@U?$_Const_traits@PAVWindow@@@_STL@@@_STL@@QAEAAU01@XZ
_TEXT	SEGMENT PARA USE32 PUBLIC 'CODE'
_TEXT	ENDS
;	COMDAT ??F?$_Rb_tree_iterator@U?$pair@$$CBGPAVivfstream@@@_STL@@U?$_Nonconst_traits@U?$pair@$$CBGPAVivfstream@@@_STL@@@2@@_STL@@QAEAAU01@XZ
_TEXT	SEGMENT PARA USE32 PUBLIC 'CODE'
_TEXT	ENDS
;	COMDAT ??0?$pair@U?$_Rb_tree_iterator@U?$pair@$$CBGPAVivfstream@@@_STL@@U?$_Nonconst_traits@U?$pair@$$CBGPAVivfstream@@@_STL@@@2@@_STL@@_N@_STL@@QAE@ABU?$_Rb_tree_iterator@U?$pair@$$CBGPAVivfstream@@@_STL@@U?$_Nonconst_traits@U?$pair@$$CBGPAVivfstream@@@_STL@@@2@@1@AB_N@Z
_TEXT	SEGMENT PARA USE32 PUBLIC 'CODE'
_TEXT	ENDS
;	COMDAT ??R?$_Select1st@U?$pair@$$CBGPAVivfstream@@@_STL@@@_STL@@QBEABGABU?$pair@$$CBGPAVivfstream@@@1@@Z
_TEXT	SEGMENT PARA USE32 PUBLIC 'CODE'
_TEXT	ENDS
;	COMDAT ?max_size@?$_String_base@DV?$allocator@D@_STL@@@_STL@@QBEIXZ
_TEXT	SEGMENT PARA USE32 PUBLIC 'CODE'
_TEXT	ENDS
;	COMDAT ??0?$_String_base@DV?$allocator@D@_STL@@@_STL@@QAE@ABV?$allocator@D@1@I@Z
_TEXT	SEGMENT PARA USE32 PUBLIC 'CODE'
_TEXT	ENDS
;	COMDAT ??1?$_List_base@GV?$allocator@G@_STL@@@_STL@@QAE@XZ
_TEXT	SEGMENT PARA USE32 PUBLIC 'CODE'
_TEXT	ENDS
;	COMDAT ?_S_value@?$_Rb_tree@GU?$pair@$$CBGPAVivfstream@@@_STL@@U?$_Select1st@U?$pair@$$CBGPAVivfstream@@@_STL@@@2@U?$less@G@2@V?$allocator@U?$pair@$$CBGPAVivfstream@@@_STL@@@2@@_STL@@KAAAU?$pair@$$CBGPAVivfstream@@@2@PAU?$_Rb_tree_node@U?$pair@$$CBGPAVivfstream@@@_STL@@@2@@Z
_TEXT	SEGMENT PARA USE32 PUBLIC 'CODE'
_TEXT	ENDS
;	COMDAT ??1?$_STLP_alloc_proxy@PAU?$_List_node@G@_STL@@U12@V?$allocator@U?$_List_node@G@_STL@@@2@@_STL@@QAE@XZ
_TEXT	SEGMENT PARA USE32 PUBLIC 'CODE'
_TEXT	ENDS
;	COMDAT ??1?$allocator@U?$_List_node@G@_STL@@@_STL@@QAE@XZ
_TEXT	SEGMENT PARA USE32 PUBLIC 'CODE'
_TEXT	ENDS
;	COMDAT ?deallocate@?$allocator@U?$_List_node@G@_STL@@@_STL@@QAEXPAU?$_List_node@G@2@I@Z
_TEXT	SEGMENT PARA USE32 PUBLIC 'CODE'
_TEXT	ENDS
;	COMDAT ?_M_allocate_block@?$_String_base@DV?$allocator@D@_STL@@@_STL@@QAEXI@Z
_TEXT	SEGMENT PARA USE32 PUBLIC 'CODE'
_TEXT	ENDS
;	COMDAT ?_M_throw_length_error@?$_String_base@DV?$allocator@D@_STL@@@_STL@@QBEXXZ
_TEXT	SEGMENT PARA USE32 PUBLIC 'CODE'
_TEXT	ENDS
;	COMDAT ??$_M_range_initialize@PBD@?$basic_string@DV?$char_traits@D@_STL@@V?$allocator@D@2@@_STL@@AAEXPBD0@Z
_TEXT	SEGMENT PARA USE32 PUBLIC 'CODE'
_TEXT	ENDS
;	COMDAT ??$uninitialized_copy@PADPAD@_STL@@YAPADPAD00@Z
_TEXT	SEGMENT PARA USE32 PUBLIC 'CODE'
_TEXT	ENDS
;	COMDAT ??$_M_range_initialize@PAD@?$basic_string@DV?$char_traits@D@_STL@@V?$allocator@D@2@@_STL@@AAEXPAD0ABUforward_iterator_tag@1@@Z
_TEXT	SEGMENT PARA USE32 PUBLIC 'CODE'
_TEXT	ENDS
;	COMDAT ?Release@?$COrderedList@G@@QAEXXZ
_TEXT	SEGMENT PARA USE32 PUBLIC 'CODE'
_TEXT	ENDS
;	COMDAT ??$append@PBD@?$basic_string@DV?$char_traits@D@_STL@@V?$allocator@D@2@@_STL@@AAEAAV01@PBD0ABUforward_iterator_tag@1@@Z
_TEXT	SEGMENT PARA USE32 PUBLIC 'CODE'
_TEXT	ENDS
;	COMDAT ?_M_insert@?$_Rb_tree@GU?$pair@$$CBGPAVivfstream@@@_STL@@U?$_Select1st@U?$pair@$$CBGPAVivfstream@@@_STL@@@2@U?$less@G@2@V?$allocator@U?$pair@$$CBGPAVivfstream@@@_STL@@@2@@_STL@@AAE?AU?$_Rb_tree_iterator@U?$pair@$$CBGPAVivfstream@@@_STL@@U?$_Nonconst_traits@U?$pair@$$CBGPAVivfstream@@@_STL@@@2@@2@PAU_Rb_tree_node_base@2@0ABU?$pair@$$CBGPAVivfstream@@@2@0@Z
_TEXT	SEGMENT PARA USE32 PUBLIC 'CODE'
_TEXT	ENDS
;	COMDAT ??$_M_find@G@?$_Rb_tree@GU?$pair@$$CBGPAVivfstream@@@_STL@@U?$_Select1st@U?$pair@$$CBGPAVivfstream@@@_STL@@@2@U?$less@G@2@V?$allocator@U?$pair@$$CBGPAVivfstream@@@_STL@@@2@@_STL@@ABEPAU?$_Rb_tree_node@U?$pair@$$CBGPAVivfstream@@@_STL@@@1@ABG@Z
_TEXT	SEGMENT PARA USE32 PUBLIC 'CODE'
_TEXT	ENDS
;	COMDAT ??$__destroy@PAKK@_STL@@YAXPAK00@Z
_TEXT	SEGMENT PARA USE32 PUBLIC 'CODE'
_TEXT	ENDS
;	COMDAT ??$__distance@U?$_List_iterator@GU?$_Const_traits@G@_STL@@@_STL@@@_STL@@YAHABU?$_List_iterator@GU?$_Const_traits@G@_STL@@@0@0ABUinput_iterator_tag@0@@Z
_TEXT	SEGMENT PARA USE32 PUBLIC 'CODE'
_TEXT	ENDS
;	COMDAT ??$assign@PAD@?$basic_string@DV?$char_traits@D@_STL@@V?$allocator@D@2@@_STL@@QAEAAV01@PAD0@Z
_TEXT	SEGMENT PARA USE32 PUBLIC 'CODE'
_TEXT	ENDS
;	COMDAT ??$append@PAD@?$basic_string@DV?$char_traits@D@_STL@@V?$allocator@D@2@@_STL@@QAEAAV01@PAD0@Z
_TEXT	SEGMENT PARA USE32 PUBLIC 'CODE'
_TEXT	ENDS
;	COMDAT ?clear@?$_List_base@GV?$allocator@G@_STL@@@_STL@@QAEXXZ
_TEXT	SEGMENT PARA USE32 PUBLIC 'CODE'
_TEXT	ENDS
;	COMDAT ?_M_create_node@?$_Rb_tree@GU?$pair@$$CBGPAVivfstream@@@_STL@@U?$_Select1st@U?$pair@$$CBGPAVivfstream@@@_STL@@@2@U?$less@G@2@V?$allocator@U?$pair@$$CBGPAVivfstream@@@_STL@@@2@@_STL@@IAEPAU?$_Rb_tree_node@U?$pair@$$CBGPAVivfstream@@@_STL@@@2@ABU?$pair@$$CBGPAVivfstream@@@2@@Z
_TEXT	SEGMENT PARA USE32 PUBLIC 'CODE'
_TEXT	ENDS
;	COMDAT ?_S_parent@?$_Rb_tree@GU?$pair@$$CBGPAVivfstream@@@_STL@@U?$_Select1st@U?$pair@$$CBGPAVivfstream@@@_STL@@@2@U?$less@G@2@V?$allocator@U?$pair@$$CBGPAVivfstream@@@_STL@@@2@@_STL@@KAAAPAU?$_Rb_tree_node@U?$pair@$$CBGPAVivfstream@@@_STL@@@2@PAU32@@Z
_TEXT	SEGMENT PARA USE32 PUBLIC 'CODE'
_TEXT	ENDS
;	COMDAT ??$_M_range_initialize@PBD@?$basic_string@DV?$char_traits@D@_STL@@V?$allocator@D@2@@_STL@@AAEXPBD0ABUforward_iterator_tag@1@@Z
_TEXT	SEGMENT PARA USE32 PUBLIC 'CODE'
_TEXT	ENDS
;	COMDAT ??$__uninitialized_copy@PADPAD@_STL@@YAPADPAD00ABU__true_type@0@@Z
_TEXT	SEGMENT PARA USE32 PUBLIC 'CODE'
_TEXT	ENDS
;	COMDAT ??$distance@PAD@_STL@@YAHABQAD0@Z
_TEXT	SEGMENT PARA USE32 PUBLIC 'CODE'
_TEXT	ENDS
;	COMDAT ??$distance@PBD@_STL@@YAHABQBD0@Z
_TEXT	SEGMENT PARA USE32 PUBLIC 'CODE'
_TEXT	ENDS
;	COMDAT ??$__destroy_aux@PAK@_STL@@YAXPAK0ABU__true_type@0@@Z
_TEXT	SEGMENT PARA USE32 PUBLIC 'CODE'
_TEXT	ENDS
;	COMDAT ??$_M_assign_dispatch@PAD@?$basic_string@DV?$char_traits@D@_STL@@V?$allocator@D@2@@_STL@@AAEAAV01@PAD0ABU__false_type@1@@Z
_TEXT	SEGMENT PARA USE32 PUBLIC 'CODE'
_TEXT	ENDS
;	COMDAT ??$_M_append_dispatch@PAD@?$basic_string@DV?$char_traits@D@_STL@@V?$allocator@D@2@@_STL@@AAEAAV01@PAD0ABU__false_type@1@@Z
_TEXT	SEGMENT PARA USE32 PUBLIC 'CODE'
_TEXT	ENDS
;	COMDAT ??$_Destroy@G@_STL@@YAXPAG@Z
_TEXT	SEGMENT PARA USE32 PUBLIC 'CODE'
_TEXT	ENDS
;	COMDAT ??$_Construct@U?$pair@$$CBGPAVivfstream@@@_STL@@U12@@_STL@@YAXPAU?$pair@$$CBGPAVivfstream@@@0@ABU10@@Z
_TEXT	SEGMENT PARA USE32 PUBLIC 'CODE'
_TEXT	ENDS
;	COMDAT ??0?$pair@$$CBGPAVivfstream@@@_STL@@QAE@ABU01@@Z
_TEXT	SEGMENT PARA USE32 PUBLIC 'CODE'
_TEXT	ENDS
;	COMDAT ?_Ret@?$_BothPtrType@PADPAD@_STL@@SA?AU__true_type@2@XZ
_TEXT	SEGMENT PARA USE32 PUBLIC 'CODE'
_TEXT	ENDS
;	COMDAT ??$__copy_aux@PADPAD@_STL@@YAPADPAD00ABU__true_type@0@@Z
_TEXT	SEGMENT PARA USE32 PUBLIC 'CODE'
_TEXT	ENDS
;	COMDAT ??$__distance@PAD@_STL@@YAHABQAD0ABUrandom_access_iterator_tag@0@@Z
_TEXT	SEGMENT PARA USE32 PUBLIC 'CODE'
_TEXT	ENDS
;	COMDAT ??$__distance@PBD@_STL@@YAHABQBD0ABUrandom_access_iterator_tag@0@@Z
_TEXT	SEGMENT PARA USE32 PUBLIC 'CODE'
_TEXT	ENDS
;	COMDAT ??$append@PAD@?$basic_string@DV?$char_traits@D@_STL@@V?$allocator@D@2@@_STL@@AAEAAV01@PAD0ABUforward_iterator_tag@1@@Z
_TEXT	SEGMENT PARA USE32 PUBLIC 'CODE'
_TEXT	ENDS
;	COMDAT ?_Ret@?$_OKToMemCpy@DD@_STL@@SA?AU__true_type@2@XZ
_TEXT	SEGMENT PARA USE32 PUBLIC 'CODE'
_TEXT	ENDS
;	COMDAT ??$_IsOKToMemCpy@DD@_STL@@YA?AU?$_OKToMemCpy@DD@0@PAD0@Z
_TEXT	SEGMENT PARA USE32 PUBLIC 'CODE'
_TEXT	ENDS
;	COMDAT ??$__copy_ptrs@PADPAD@_STL@@YAPADPAD00ABU__true_type@0@@Z
_TEXT	SEGMENT PARA USE32 PUBLIC 'CODE'
_TEXT	ENDS
;	COMDAT ??_R3IFileIO@@8
rdata$r	SEGMENT DWORD USE32 PUBLIC 'CONST'
rdata$r	ENDS
;	COMDAT ??_R3?$SimpleDataList@PAVWindow@@@@8
rdata$r	SEGMENT DWORD USE32 PUBLIC 'CONST'
rdata$r	ENDS
;	COMDAT ??_R3?$SimpleDataList@PAUMESSAGE@@@@8
rdata$r	SEGMENT DWORD USE32 PUBLIC 'CONST'
rdata$r	ENDS
;	COMDAT ??_R3ovfstream@@8
rdata$r	SEGMENT DWORD USE32 PUBLIC 'CONST'
rdata$r	ENDS
;	COMDAT ??_R3ivfstream@@8
rdata$r	SEGMENT DWORD USE32 PUBLIC 'CONST'
rdata$r	ENDS
;	COMDAT ??_R3ITypePackBase@@8
rdata$r	SEGMENT DWORD USE32 PUBLIC 'CONST'
rdata$r	ENDS
;	COMDAT ??_R3?$CTypePack2@VCSprite@@VCSprite555@@VCSprite565@@@@8
rdata$r	SEGMENT DWORD USE32 PUBLIC 'CONST'
rdata$r	ENDS
;	COMDAT ??_R3CSprite565@@8
rdata$r	SEGMENT DWORD USE32 PUBLIC 'CONST'
rdata$r	ENDS
;	COMDAT ??_R3?$SimpleDataList@PAVLineEditorVisual@@@@8
rdata$r	SEGMENT DWORD USE32 PUBLIC 'CONST'
rdata$r	ENDS
;	COMDAT ??_R3iovfs_base@@8
rdata$r	SEGMENT DWORD USE32 PUBLIC 'CONST'
rdata$r	ENDS
;	COMDAT ??_R3?$SimpleDataList@PAVPI_Processor@@@@8
rdata$r	SEGMENT DWORD USE32 PUBLIC 'CONST'
rdata$r	ENDS
;	COMDAT ??_R3CSprite555@@8
rdata$r	SEGMENT DWORD USE32 PUBLIC 'CONST'
rdata$r	ENDS
;	COMDAT ??_R3?$basic_ofstream@DV?$char_traits@D@_STL@@@_STL@@8
rdata$r	SEGMENT DWORD USE32 PUBLIC 'CONST'
rdata$r	ENDS
;	COMDAT ??_R2IFileIO@@8
rdata$r	SEGMENT DWORD USE32 PUBLIC 'CONST'
rdata$r	ENDS
;	COMDAT ??_R2?$SimpleDataList@PAVWindow@@@@8
rdata$r	SEGMENT DWORD USE32 PUBLIC 'CONST'
rdata$r	ENDS
;	COMDAT ??_R2?$SimpleDataList@PAUMESSAGE@@@@8
rdata$r	SEGMENT DWORD USE32 PUBLIC 'CONST'
rdata$r	ENDS
;	COMDAT ??_R2ovfstream@@8
rdata$r	SEGMENT DWORD USE32 PUBLIC 'CONST'
rdata$r	ENDS
;	COMDAT ??_R2ivfstream@@8
rdata$r	SEGMENT DWORD USE32 PUBLIC 'CONST'
rdata$r	ENDS
;	COMDAT ??_R2ITypePackBase@@8
rdata$r	SEGMENT DWORD USE32 PUBLIC 'CONST'
rdata$r	ENDS
;	COMDAT ??_R2?$CTypePack2@VCSprite@@VCSprite555@@VCSprite565@@@@8
rdata$r	SEGMENT DWORD USE32 PUBLIC 'CONST'
rdata$r	ENDS
;	COMDAT ??_R2CSprite565@@8
rdata$r	SEGMENT DWORD USE32 PUBLIC 'CONST'
rdata$r	ENDS
;	COMDAT ??_R2?$SimpleDataList@PAVLineEditorVisual@@@@8
rdata$r	SEGMENT DWORD USE32 PUBLIC 'CONST'
rdata$r	ENDS
;	COMDAT ??_R2iovfs_base@@8
rdata$r	SEGMENT DWORD USE32 PUBLIC 'CONST'
rdata$r	ENDS
;	COMDAT ??_R2?$SimpleDataList@PAVPI_Processor@@@@8
rdata$r	SEGMENT DWORD USE32 PUBLIC 'CONST'
rdata$r	ENDS
;	COMDAT ??_R2CSprite555@@8
rdata$r	SEGMENT DWORD USE32 PUBLIC 'CONST'
rdata$r	ENDS
;	COMDAT ??_R2?$basic_ofstream@DV?$char_traits@D@_STL@@@_STL@@8
rdata$r	SEGMENT DWORD USE32 PUBLIC 'CONST'
rdata$r	ENDS
;	COMDAT ??_R1A@?0A@A@IFileIO@@8
rdata$r	SEGMENT DWORD USE32 PUBLIC 'CONST'
rdata$r	ENDS
;	COMDAT ??_R1A@?0A@A@?$SimpleDataList@PAVWindow@@@@8
rdata$r	SEGMENT DWORD USE32 PUBLIC 'CONST'
rdata$r	ENDS
;	COMDAT ??_R1A@?0A@A@?$SimpleDataList@PAUMESSAGE@@@@8
rdata$r	SEGMENT DWORD USE32 PUBLIC 'CONST'
rdata$r	ENDS
;	COMDAT ??_R1A@?0A@A@ovfstream@@8
rdata$r	SEGMENT DWORD USE32 PUBLIC 'CONST'
rdata$r	ENDS
;	COMDAT ??_R1A@?0A@A@ivfstream@@8
rdata$r	SEGMENT DWORD USE32 PUBLIC 'CONST'
rdata$r	ENDS
;	COMDAT ??_R1A@?0A@A@ITypePackBase@@8
rdata$r	SEGMENT DWORD USE32 PUBLIC 'CONST'
rdata$r	ENDS
;	COMDAT ??_R1A@?0A@A@?$CTypePack2@VCSprite@@VCSprite555@@VCSprite565@@@@8
rdata$r	SEGMENT DWORD USE32 PUBLIC 'CONST'
rdata$r	ENDS
;	COMDAT ??_R1A@?0A@A@CSprite565@@8
rdata$r	SEGMENT DWORD USE32 PUBLIC 'CONST'
rdata$r	ENDS
;	COMDAT ??_R1A@?0A@A@?$SimpleDataList@PAVLineEditorVisual@@@@8
rdata$r	SEGMENT DWORD USE32 PUBLIC 'CONST'
rdata$r	ENDS
;	COMDAT ??_R1A@?0A@A@iovfs_base@@8
rdata$r	SEGMENT DWORD USE32 PUBLIC 'CONST'
rdata$r	ENDS
;	COMDAT ??_R1A@?0A@A@?$SimpleDataList@PAVPI_Processor@@@@8
rdata$r	SEGMENT DWORD USE32 PUBLIC 'CONST'
rdata$r	ENDS
;	COMDAT ??_R1A@?0A@A@CSprite@@8
rdata$r	SEGMENT DWORD USE32 PUBLIC 'CONST'
rdata$r	ENDS
;	COMDAT ??_R1A@?0A@A@CSprite555@@8
rdata$r	SEGMENT DWORD USE32 PUBLIC 'CONST'
rdata$r	ENDS
;	COMDAT ??_R1A@A@3A@ios_base@_STL@@8
rdata$r	SEGMENT DWORD USE32 PUBLIC 'CONST'
rdata$r	ENDS
;	COMDAT ??_R0?AVios_base@_STL@@@8
_DATA	SEGMENT DWORD USE32 PUBLIC 'DATA'
_DATA	ENDS
;	COMDAT ??_R1A@A@3BA@?$basic_ios@DV?$char_traits@D@_STL@@@_STL@@8
rdata$r	SEGMENT DWORD USE32 PUBLIC 'CONST'
rdata$r	ENDS
;	COMDAT ??_R0?AV?$basic_ios@DV?$char_traits@D@_STL@@@_STL@@@8
_DATA	SEGMENT DWORD USE32 PUBLIC 'DATA'
_DATA	ENDS
;	COMDAT ??_R1A@?0A@A@?$basic_ostream@DV?$char_traits@D@_STL@@@_STL@@8
rdata$r	SEGMENT DWORD USE32 PUBLIC 'CONST'
rdata$r	ENDS
;	COMDAT ??_R0?AV?$basic_ostream@DV?$char_traits@D@_STL@@@_STL@@@8
_DATA	SEGMENT DWORD USE32 PUBLIC 'DATA'
_DATA	ENDS
;	COMDAT ??_R1A@?0A@A@?$basic_ofstream@DV?$char_traits@D@_STL@@@_STL@@8
rdata$r	SEGMENT DWORD USE32 PUBLIC 'CONST'
rdata$r	ENDS
;	COMDAT ??_R0?AVIFileIO@@@8
_DATA	SEGMENT DWORD USE32 PUBLIC 'DATA'
_DATA	ENDS
;	COMDAT ??_R0?AV?$SimpleDataList@PAVWindow@@@@@8
_DATA	SEGMENT DWORD USE32 PUBLIC 'DATA'
_DATA	ENDS
;	COMDAT ??_R0?AV?$SimpleDataList@PAUMESSAGE@@@@@8
_DATA	SEGMENT DWORD USE32 PUBLIC 'DATA'
_DATA	ENDS
;	COMDAT ??_R0?AVovfstream@@@8
_DATA	SEGMENT DWORD USE32 PUBLIC 'DATA'
_DATA	ENDS
;	COMDAT ??_R0?AVivfstream@@@8
_DATA	SEGMENT DWORD USE32 PUBLIC 'DATA'
_DATA	ENDS
;	COMDAT ??_R0?AVITypePackBase@@@8
_DATA	SEGMENT DWORD USE32 PUBLIC 'DATA'
_DATA	ENDS
;	COMDAT ??_R0?AV?$CTypePack2@VCSprite@@VCSprite555@@VCSprite565@@@@@8
_DATA	SEGMENT DWORD USE32 PUBLIC 'DATA'
_DATA	ENDS
;	COMDAT ??_R0?AVCSprite565@@@8
_DATA	SEGMENT DWORD USE32 PUBLIC 'DATA'
_DATA	ENDS
;	COMDAT ??_R0?AV?$SimpleDataList@PAVLineEditorVisual@@@@@8
_DATA	SEGMENT DWORD USE32 PUBLIC 'DATA'
_DATA	ENDS
;	COMDAT ??_R0?AViovfs_base@@@8
_DATA	SEGMENT DWORD USE32 PUBLIC 'DATA'
_DATA	ENDS
;	COMDAT ??_R0?AV?$SimpleDataList@PAVPI_Processor@@@@@8
_DATA	SEGMENT DWORD USE32 PUBLIC 'DATA'
_DATA	ENDS
;	COMDAT ??_R0?AVCSprite@@@8
_DATA	SEGMENT DWORD USE32 PUBLIC 'DATA'
_DATA	ENDS
;	COMDAT ??_R0?AVCSprite555@@@8
_DATA	SEGMENT DWORD USE32 PUBLIC 'DATA'
_DATA	ENDS
;	COMDAT ??_R0?AV?$basic_ofstream@DV?$char_traits@D@_STL@@@_STL@@@8
_DATA	SEGMENT DWORD USE32 PUBLIC 'DATA'
_DATA	ENDS
;	COMDAT ??_R4IFileIO@@6B@
rdata$r	SEGMENT DWORD USE32 PUBLIC 'CONST'
rdata$r	ENDS
;	COMDAT ??_R4?$SimpleDataList@PAVWindow@@@@6B@
rdata$r	SEGMENT DWORD USE32 PUBLIC 'CONST'
rdata$r	ENDS
;	COMDAT ??_R4?$SimpleDataList@PAUMESSAGE@@@@6B@
rdata$r	SEGMENT DWORD USE32 PUBLIC 'CONST'
rdata$r	ENDS
;	COMDAT ??_R4ovfstream@@6B@
rdata$r	SEGMENT DWORD USE32 PUBLIC 'CONST'
rdata$r	ENDS
;	COMDAT ??_R4ivfstream@@6B@
rdata$r	SEGMENT DWORD USE32 PUBLIC 'CONST'
rdata$r	ENDS
;	COMDAT ??_R4ITypePackBase@@6B@
rdata$r	SEGMENT DWORD USE32 PUBLIC 'CONST'
rdata$r	ENDS
;	COMDAT ??_R4?$CTypePack2@VCSprite@@VCSprite555@@VCSprite565@@@@6B@
rdata$r	SEGMENT DWORD USE32 PUBLIC 'CONST'
rdata$r	ENDS
;	COMDAT ??_R4CSprite565@@6B@
rdata$r	SEGMENT DWORD USE32 PUBLIC 'CONST'
rdata$r	ENDS
;	COMDAT ??_R4?$SimpleDataList@PAVLineEditorVisual@@@@6B@
rdata$r	SEGMENT DWORD USE32 PUBLIC 'CONST'
rdata$r	ENDS
;	COMDAT ??_R4iovfs_base@@6B@
rdata$r	SEGMENT DWORD USE32 PUBLIC 'CONST'
rdata$r	ENDS
;	COMDAT ??_R4?$SimpleDataList@PAVPI_Processor@@@@6B@
rdata$r	SEGMENT DWORD USE32 PUBLIC 'CONST'
rdata$r	ENDS
;	COMDAT ??_R4CSprite555@@6B@
rdata$r	SEGMENT DWORD USE32 PUBLIC 'CONST'
rdata$r	ENDS
;	COMDAT ??_R4?$basic_ofstream@DV?$char_traits@D@_STL@@@_STL@@6B@
rdata$r	SEGMENT DWORD USE32 PUBLIC 'CONST'
rdata$r	ENDS
;	COMDAT ??3@YAXPAX0@Z
_TEXT	SEGMENT PARA USE32 PUBLIC 'CODE'
_TEXT	ENDS
;	COMDAT ?uninitialized_copy@_STL@@YAPADPBD0PAD@Z
_TEXT	SEGMENT PARA USE32 PUBLIC 'CODE'
_TEXT	ENDS
;	COMDAT ??2@YAPAXIPAX@Z
_TEXT	SEGMENT PARA USE32 PUBLIC 'CODE'
_TEXT	ENDS
;	COMDAT ?good@ios_base@_STL@@QBE_NXZ
_TEXT	SEGMENT PARA USE32 PUBLIC 'CODE'
_TEXT	ENDS
;	COMDAT ??9_List_iterator_base@_STL@@QBE_NABU01@@Z
_TEXT	SEGMENT PARA USE32 PUBLIC 'CODE'
_TEXT	ENDS
;	COMDAT ?_M_deallocate_block@?$_String_base@DV?$allocator@D@_STL@@@_STL@@QAEXXZ
_TEXT	SEGMENT PARA USE32 PUBLIC 'CODE'
_TEXT	ENDS
;	COMDAT ?deallocate@?$allocator@D@_STL@@QAEXPADI@Z
_TEXT	SEGMENT PARA USE32 PUBLIC 'CODE'
_TEXT	ENDS
;	COMDAT ?__page_size@_Filebuf_base@_STL@@SAIXZ
_TEXT	SEGMENT PARA USE32 PUBLIC 'CODE'
_TEXT	ENDS
;	COMDAT ?_M_write@?$basic_filebuf@DV?$char_traits@D@_STL@@@_STL@@QAE_NPADH@Z
_TEXT	SEGMENT PARA USE32 PUBLIC 'CODE'
_TEXT	ENDS
;	COMDAT ?unshift@?$codecvt@DDH@_STL@@QBE?AW4result@codecvt_base@2@AAHPAD1AAPAD@Z
_TEXT	SEGMENT PARA USE32 PUBLIC 'CODE'
_TEXT	ENDS
;	COMDAT ?_M_get_exception_mask@ios_base@_STL@@IBEHXZ
_TEXT	SEGMENT PARA USE32 PUBLIC 'CODE'
_TEXT	ENDS
;	COMDAT ?_M_setstate_nothrow@ios_base@_STL@@IAEXH@Z
_TEXT	SEGMENT PARA USE32 PUBLIC 'CODE'
_TEXT	ENDS
;	COMDAT ?_M_ctype_facet@ios_base@_STL@@QBEPBVfacet@locale@2@XZ
_TEXT	SEGMENT PARA USE32 PUBLIC 'CODE'
_TEXT	ENDS
;	COMDAT ?widen@?$ctype@D@_STL@@QBEDD@Z
_TEXT	SEGMENT PARA USE32 PUBLIC 'CODE'
_TEXT	ENDS
;	COMDAT ?grouping@?$numpunct@D@_STL@@QBE?AV?$basic_string@DV?$char_traits@D@_STL@@V?$allocator@D@2@@2@XZ
_TEXT	SEGMENT PARA USE32 PUBLIC 'CODE'
_TEXT	ENDS
;	COMDAT ?deallocate@?$__node_alloc@$00$0A@@_STL@@SAXPAXI@Z
_TEXT	SEGMENT PARA USE32 PUBLIC 'CODE'
_TEXT	ENDS
;	COMDAT ?__stl_delete@_STL@@YAXPAX@Z
_TEXT	SEGMENT PARA USE32 PUBLIC 'CODE'
_TEXT	ENDS
;	COMDAT ?__copy_trivial@_STL@@YAPAXPBX0PAX@Z
_TEXT	SEGMENT PARA USE32 PUBLIC 'CODE'
_TEXT	ENDS
;	COMDAT ?__stl_new@_STL@@YAPAXI@Z
_TEXT	SEGMENT PARA USE32 PUBLIC 'CODE'
_TEXT	ENDS
;	COMDAT ?pubsync@?$basic_streambuf@DV?$char_traits@D@_STL@@@_STL@@QAEHXZ
_TEXT	SEGMENT PARA USE32 PUBLIC 'CODE'
_TEXT	ENDS
;	COMDAT ?assign@?$char_traits@D@_STL@@SAXAADABD@Z
_TEXT	SEGMENT PARA USE32 PUBLIC 'CODE'
_TEXT	ENDS
;	COMDAT ?_M_incr@_List_iterator_base@_STL@@QAEXXZ
_TEXT	SEGMENT PARA USE32 PUBLIC 'CODE'
_TEXT	ENDS
;	COMDAT ?flags@ios_base@_STL@@QBEHXZ
_TEXT	SEGMENT PARA USE32 PUBLIC 'CODE'
_TEXT	ENDS
;	COMDAT ?pubseekpos@?$basic_streambuf@DV?$char_traits@D@_STL@@@_STL@@QAE?AV?$fpos@H@2@V32@H@Z
_TEXT	SEGMENT PARA USE32 PUBLIC 'CODE'
_TEXT	ENDS
;	COMDAT ?pubseekoff@?$basic_streambuf@DV?$char_traits@D@_STL@@@_STL@@QAE?AV?$fpos@H@2@JHH@Z
_TEXT	SEGMENT PARA USE32 PUBLIC 'CODE'
_TEXT	ENDS
;	COMDAT ?fail@ios_base@_STL@@QBE_NXZ
_TEXT	SEGMENT PARA USE32 PUBLIC 'CODE'
_TEXT	ENDS
;	COMDAT ??1?$_STLP_alloc_proxy@PADDV?$allocator@D@_STL@@@_STL@@QAE@XZ
_TEXT	SEGMENT PARA USE32 PUBLIC 'CODE'
_TEXT	ENDS
;	COMDAT ??_7CSprite555@@6B@
CONST	SEGMENT DWORD USE32 PUBLIC 'CONST'
CONST	ENDS
;	COMDAT ??_7CSprite565@@6B@
CONST	SEGMENT DWORD USE32 PUBLIC 'CONST'
CONST	ENDS
;	COMDAT ?s_SIZEOF_SizeType@?$TArray@VCFrame@@G@@1EA
_DATA	SEGMENT DWORD USE32 PUBLIC 'DATA'
_DATA	ENDS
;	COMDAT ??8_Rb_tree_base_iterator@_STL@@QBE_NABU01@@Z
_TEXT	SEGMENT PARA USE32 PUBLIC 'CODE'
_TEXT	ENDS
;	COMDAT ??9_Rb_tree_base_iterator@_STL@@QBE_NABU01@@Z
_TEXT	SEGMENT PARA USE32 PUBLIC 'CODE'
_TEXT	ENDS
;	COMDAT ??_7?$CTypePack2@VCSprite@@VCSprite555@@VCSprite565@@@@6B@
CONST	SEGMENT DWORD USE32 PUBLIC 'CONST'
CONST	ENDS
;	COMDAT ??_7?$SimpleDataList@PAUMESSAGE@@@@6B@
CONST	SEGMENT DWORD USE32 PUBLIC 'CONST'
CONST	ENDS
;	COMDAT ??_7?$SimpleDataList@PAVWindow@@@@6B@
CONST	SEGMENT DWORD USE32 PUBLIC 'CONST'
CONST	ENDS
;	COMDAT ??1?$_String_base@DV?$allocator@D@_STL@@@_STL@@QAE@XZ
_TEXT	SEGMENT PARA USE32 PUBLIC 'CODE'
_TEXT	ENDS
;	COMDAT ??1?$allocator@D@_STL@@QAE@XZ
_TEXT	SEGMENT PARA USE32 PUBLIC 'CODE'
_TEXT	ENDS
;	COMDAT ??_7?$SimpleDataList@PAVLineEditorVisual@@@@6B@
CONST	SEGMENT DWORD USE32 PUBLIC 'CONST'
CONST	ENDS
;	COMDAT ??_7?$SimpleDataList@PAVPI_Processor@@@@6B@
CONST	SEGMENT DWORD USE32 PUBLIC 'CONST'
CONST	ENDS
;	COMDAT ?precision@ios_base@_STL@@QAEHH@Z
_TEXT	SEGMENT PARA USE32 PUBLIC 'CODE'
_TEXT	ENDS
;	COMDAT ?width@ios_base@_STL@@QAEHH@Z
_TEXT	SEGMENT PARA USE32 PUBLIC 'CODE'
_TEXT	ENDS
;	COMDAT ?flags@ios_base@_STL@@QAEHH@Z
_TEXT	SEGMENT PARA USE32 PUBLIC 'CODE'
_TEXT	ENDS
;	COMDAT ?_M_set_exception_mask@ios_base@_STL@@IAEXH@Z
_TEXT	SEGMENT PARA USE32 PUBLIC 'CODE'
_TEXT	ENDS
;	COMDAT ??_7?$basic_ios@DV?$char_traits@D@_STL@@@_STL@@6B@
CONST	SEGMENT DWORD USE32 PUBLIC 'CONST'
CONST	ENDS
;	COMDAT ??_R4?$basic_ios@DV?$char_traits@D@_STL@@@_STL@@6B@
rdata$r	SEGMENT DWORD USE32 PUBLIC 'CONST'
rdata$r	ENDS
;	COMDAT ??_R3?$basic_ios@DV?$char_traits@D@_STL@@@_STL@@8
rdata$r	SEGMENT DWORD USE32 PUBLIC 'CONST'
rdata$r	ENDS
;	COMDAT ??_R2?$basic_ios@DV?$char_traits@D@_STL@@@_STL@@8
rdata$r	SEGMENT DWORD USE32 PUBLIC 'CONST'
rdata$r	ENDS
;	COMDAT ??_R1A@?0A@A@?$basic_ios@DV?$char_traits@D@_STL@@@_STL@@8
rdata$r	SEGMENT DWORD USE32 PUBLIC 'CONST'
rdata$r	ENDS
;	COMDAT ??_R1A@?0A@A@ios_base@_STL@@8
rdata$r	SEGMENT DWORD USE32 PUBLIC 'CONST'
rdata$r	ENDS
;	COMDAT ??_G?$basic_ios@DV?$char_traits@D@_STL@@@_STL@@UAEPAXI@Z
_TEXT	SEGMENT PARA USE32 PUBLIC 'CODE'
_TEXT	ENDS
;	COMDAT ?always_noconv@?$codecvt@DDH@_STL@@QBE_NXZ
_TEXT	SEGMENT PARA USE32 PUBLIC 'CODE'
_TEXT	ENDS
;	COMDAT ?encoding@?$codecvt@DDH@_STL@@QBEHXZ
_TEXT	SEGMENT PARA USE32 PUBLIC 'CODE'
_TEXT	ENDS
;	COMDAT ?max_length@?$codecvt@DDH@_STL@@QBEHXZ
_TEXT	SEGMENT PARA USE32 PUBLIC 'CODE'
_TEXT	ENDS
;	COMDAT ?__o_mode@_Filebuf_base@_STL@@QBEHXZ
_TEXT	SEGMENT PARA USE32 PUBLIC 'CODE'
_TEXT	ENDS
;	COMDAT ??_7?$basic_filebuf@DV?$char_traits@D@_STL@@@_STL@@6B@
CONST	SEGMENT DWORD USE32 PUBLIC 'CONST'
CONST	ENDS
;	COMDAT ??_R4?$basic_filebuf@DV?$char_traits@D@_STL@@@_STL@@6B@
rdata$r	SEGMENT DWORD USE32 PUBLIC 'CONST'
rdata$r	ENDS
;	COMDAT ??_R0?AV?$basic_filebuf@DV?$char_traits@D@_STL@@@_STL@@@8
_DATA	SEGMENT DWORD USE32 PUBLIC 'DATA'
_DATA	ENDS
;	COMDAT ??_R3?$basic_filebuf@DV?$char_traits@D@_STL@@@_STL@@8
rdata$r	SEGMENT DWORD USE32 PUBLIC 'CONST'
rdata$r	ENDS
;	COMDAT ??_R2?$basic_filebuf@DV?$char_traits@D@_STL@@@_STL@@8
rdata$r	SEGMENT DWORD USE32 PUBLIC 'CONST'
rdata$r	ENDS
;	COMDAT ??_R1A@?0A@A@?$basic_filebuf@DV?$char_traits@D@_STL@@@_STL@@8
rdata$r	SEGMENT DWORD USE32 PUBLIC 'CONST'
rdata$r	ENDS
;	COMDAT ??_R1A@?0A@A@?$basic_streambuf@DV?$char_traits@D@_STL@@@_STL@@8
rdata$r	SEGMENT DWORD USE32 PUBLIC 'CONST'
rdata$r	ENDS
;	COMDAT ??_R0?AV?$basic_streambuf@DV?$char_traits@D@_STL@@@_STL@@@8
_DATA	SEGMENT DWORD USE32 PUBLIC 'DATA'
_DATA	ENDS
;	COMDAT ??_G?$basic_filebuf@DV?$char_traits@D@_STL@@@_STL@@UAEPAXI@Z
_TEXT	SEGMENT PARA USE32 PUBLIC 'CODE'
_TEXT	ENDS
;	COMDAT ?setbuf@?$basic_filebuf@DV?$char_traits@D@_STL@@@_STL@@MAEPAV?$basic_streambuf@DV?$char_traits@D@_STL@@@2@PADH@Z
_TEXT	SEGMENT PARA USE32 PUBLIC 'CODE'
_TEXT	ENDS
;	COMDAT ?seekoff@?$basic_filebuf@DV?$char_traits@D@_STL@@@_STL@@MAE?AV?$fpos@H@2@JHH@Z
_TEXT	SEGMENT PARA USE32 PUBLIC 'CODE'
_TEXT	ENDS
;	COMDAT ?_M_in_binary_mode@_Filebuf_base@_STL@@QBE_NXZ
_TEXT	SEGMENT PARA USE32 PUBLIC 'CODE'
_TEXT	ENDS
;	COMDAT ?length@?$codecvt@DDH@_STL@@QBEHABHPBD1I@Z
_TEXT	SEGMENT PARA USE32 PUBLIC 'CODE'
_TEXT	ENDS
;	COMDAT ?in@?$codecvt@DDH@_STL@@QBE?AW4result@codecvt_base@2@AAHPBD1AAPBDPAD3AAPAD@Z
_TEXT	SEGMENT PARA USE32 PUBLIC 'CODE'
_TEXT	ENDS
;	COMDAT ?eback@?$basic_streambuf@DV?$char_traits@D@_STL@@@_STL@@IBEPADXZ
_TEXT	SEGMENT PARA USE32 PUBLIC 'CODE'
_TEXT	ENDS
;	COMDAT ?_FILE_I_begin@_STL@@YAPADPBU_iobuf@@@Z
_TEXT	SEGMENT PARA USE32 PUBLIC 'CODE'
_TEXT	ENDS
;	COMDAT ?gptr@?$basic_streambuf@DV?$char_traits@D@_STL@@@_STL@@IBEPADXZ
_TEXT	SEGMENT PARA USE32 PUBLIC 'CODE'
_TEXT	ENDS
;	COMDAT ?_FILE_I_next@_STL@@YAPADPBU_iobuf@@@Z
_TEXT	SEGMENT PARA USE32 PUBLIC 'CODE'
_TEXT	ENDS
;	COMDAT ?_M_get_offset@_Filebuf_base@_STL@@QAEJPAD0@Z
_TEXT	SEGMENT PARA USE32 PUBLIC 'CODE'
_TEXT	ENDS
;	COMDAT ??$count@PADD@_STL@@YAHPAD0ABD@Z
_TEXT	SEGMENT PARA USE32 PUBLIC 'CODE'
_TEXT	ENDS
;	COMDAT ?seekpos@?$basic_filebuf@DV?$char_traits@D@_STL@@@_STL@@MAE?AV?$fpos@H@2@V32@H@Z
_TEXT	SEGMENT PARA USE32 PUBLIC 'CODE'
_TEXT	ENDS
;	COMDAT ?sync@?$basic_filebuf@DV?$char_traits@D@_STL@@@_STL@@MAEHXZ
_TEXT	SEGMENT PARA USE32 PUBLIC 'CODE'
_TEXT	ENDS
;	COMDAT ?showmanyc@?$basic_filebuf@DV?$char_traits@D@_STL@@@_STL@@MAEHXZ
_TEXT	SEGMENT PARA USE32 PUBLIC 'CODE'
_TEXT	ENDS
;	COMDAT ?egptr@?$basic_streambuf@DV?$char_traits@D@_STL@@@_STL@@IBEPADXZ
_TEXT	SEGMENT PARA USE32 PUBLIC 'CODE'
_TEXT	ENDS
;	COMDAT ?_FILE_I_end@_STL@@YAPADPBU_iobuf@@@Z
_TEXT	SEGMENT PARA USE32 PUBLIC 'CODE'
_TEXT	ENDS
;	COMDAT ?underflow@?$basic_filebuf@DV?$char_traits@D@_STL@@@_STL@@MAEHXZ
_TEXT	SEGMENT PARA USE32 PUBLIC 'CODE'
_TEXT	ENDS
;	COMDAT ?pbackfail@?$basic_filebuf@DV?$char_traits@D@_STL@@@_STL@@MAEHH@Z
_TEXT	SEGMENT PARA USE32 PUBLIC 'CODE'
_TEXT	ENDS
;	COMDAT ?gbump@?$basic_streambuf@DV?$char_traits@D@_STL@@@_STL@@IAEXH@Z
_TEXT	SEGMENT PARA USE32 PUBLIC 'CODE'
_TEXT	ENDS
;	COMDAT ?_FILE_I_bump@_STL@@YAXPAU_iobuf@@H@Z
_TEXT	SEGMENT PARA USE32 PUBLIC 'CODE'
_TEXT	ENDS
;	COMDAT ?to_int_type@?$char_traits@D@_STL@@SAHABD@Z
_TEXT	SEGMENT PARA USE32 PUBLIC 'CODE'
_TEXT	ENDS
;	COMDAT ?to_char_type@?$char_traits@D@_STL@@SADABH@Z
_TEXT	SEGMENT PARA USE32 PUBLIC 'CODE'
_TEXT	ENDS
;	COMDAT ?overflow@?$basic_filebuf@DV?$char_traits@D@_STL@@@_STL@@MAEHH@Z
_TEXT	SEGMENT PARA USE32 PUBLIC 'CODE'
_TEXT	ENDS
;	COMDAT ?pptr@?$basic_streambuf@DV?$char_traits@D@_STL@@@_STL@@IBEPADXZ
_TEXT	SEGMENT PARA USE32 PUBLIC 'CODE'
_TEXT	ENDS
;	COMDAT ?_FILE_O_next@_STL@@YAPADPBU_iobuf@@@Z
_TEXT	SEGMENT PARA USE32 PUBLIC 'CODE'
_TEXT	ENDS
;	COMDAT ?out@?$codecvt@DDH@_STL@@QBE?AW4result@codecvt_base@2@AAHPBD1AAPBDPAD3AAPAD@Z
_TEXT	SEGMENT PARA USE32 PUBLIC 'CODE'
_TEXT	ENDS
;	COMDAT ?_M_doit@?$_Noconv_output@V?$char_traits@D@_STL@@@_STL@@SA_NPAV?$basic_filebuf@DV?$char_traits@D@_STL@@@2@PAD1@Z
_TEXT	SEGMENT PARA USE32 PUBLIC 'CODE'
_TEXT	ENDS
;	COMDAT ?imbue@?$basic_filebuf@DV?$char_traits@D@_STL@@@_STL@@MAEXABVlocale@2@@Z
_TEXT	SEGMENT PARA USE32 PUBLIC 'CODE'
_TEXT	ENDS
;	COMDAT ??0?$basic_streambuf@DV?$char_traits@D@_STL@@@_STL@@IAE@XZ
_TEXT	SEGMENT PARA USE32 PUBLIC 'CODE'
_TEXT	ENDS
;	COMDAT ??_7?$basic_streambuf@DV?$char_traits@D@_STL@@@_STL@@6B@
CONST	SEGMENT DWORD USE32 PUBLIC 'CONST'
CONST	ENDS
;	COMDAT ??_R4?$basic_streambuf@DV?$char_traits@D@_STL@@@_STL@@6B@
rdata$r	SEGMENT DWORD USE32 PUBLIC 'CONST'
rdata$r	ENDS
;	COMDAT ??_R3?$basic_streambuf@DV?$char_traits@D@_STL@@@_STL@@8
rdata$r	SEGMENT DWORD USE32 PUBLIC 'CONST'
rdata$r	ENDS
;	COMDAT ??_R2?$basic_streambuf@DV?$char_traits@D@_STL@@@_STL@@8
rdata$r	SEGMENT DWORD USE32 PUBLIC 'CONST'
rdata$r	ENDS
;	COMDAT ??_G?$basic_streambuf@DV?$char_traits@D@_STL@@@_STL@@UAEPAXI@Z
_TEXT	SEGMENT PARA USE32 PUBLIC 'CODE'
_TEXT	ENDS
;	COMDAT ??0_STLP_mutex@_STL@@QAE@XZ
_TEXT	SEGMENT PARA USE32 PUBLIC 'CODE'
_TEXT	ENDS
;	COMDAT ?_M_initialize@_STLP_mutex_base@_STL@@QAEXXZ
_TEXT	SEGMENT PARA USE32 PUBLIC 'CODE'
_TEXT	ENDS
;	COMDAT ??1_STLP_mutex@_STL@@QAE@XZ
_TEXT	SEGMENT PARA USE32 PUBLIC 'CODE'
_TEXT	ENDS
;	COMDAT ?_M_destroy@_STLP_mutex_base@_STL@@QAEXXZ
_TEXT	SEGMENT PARA USE32 PUBLIC 'CODE'
_TEXT	ENDS
;	COMDAT ?_FILE_I_set@_STL@@YAXPAU_iobuf@@PAD11@Z
_TEXT	SEGMENT PARA USE32 PUBLIC 'CODE'
_TEXT	ENDS
;	COMDAT ?_FILE_O_set@_STL@@YAXPAU_iobuf@@PAD11@Z
_TEXT	SEGMENT PARA USE32 PUBLIC 'CODE'
_TEXT	ENDS
;	COMDAT ?sputn@?$basic_streambuf@DV?$char_traits@D@_STL@@@_STL@@QAEHPBDH@Z
_TEXT	SEGMENT PARA USE32 PUBLIC 'CODE'
_TEXT	ENDS
;	COMDAT ??_7?$basic_ostream@DV?$char_traits@D@_STL@@@_STL@@6B@
CONST	SEGMENT DWORD USE32 PUBLIC 'CONST'
CONST	ENDS
;	COMDAT ??_R4?$basic_ostream@DV?$char_traits@D@_STL@@@_STL@@6B@
rdata$r	SEGMENT DWORD USE32 PUBLIC 'CONST'
rdata$r	ENDS
;	COMDAT ??_R3?$basic_ostream@DV?$char_traits@D@_STL@@@_STL@@8
rdata$r	SEGMENT DWORD USE32 PUBLIC 'CONST'
rdata$r	ENDS
;	COMDAT ??_R2?$basic_ostream@DV?$char_traits@D@_STL@@@_STL@@8
rdata$r	SEGMENT DWORD USE32 PUBLIC 'CONST'
rdata$r	ENDS
;	COMDAT ??_G?$basic_ostream@DV?$char_traits@D@_STL@@@_STL@@UAEPAXI@Z
_TEXT	SEGMENT PARA USE32 PUBLIC 'CODE'
_TEXT	ENDS
;	COMDAT ??_D?$basic_ostream@DV?$char_traits@D@_STL@@@_STL@@QAEXXZ
_TEXT	SEGMENT PARA USE32 PUBLIC 'CODE'
_TEXT	ENDS
;	COMDAT ??_8?$basic_ostream@DV?$char_traits@D@_STL@@@_STL@@7B@
CONST	SEGMENT DWORD USE32 PUBLIC 'CONST'
CONST	ENDS
;	COMDAT ??0_List_iterator_base@_STL@@QAE@PAU_List_node_base@1@@Z
_TEXT	SEGMENT PARA USE32 PUBLIC 'CODE'
_TEXT	ENDS
;	COMDAT ?_M_check_exception_mask@ios_base@_STL@@IAEXXZ
_TEXT	SEGMENT PARA USE32 PUBLIC 'CODE'
_TEXT	ENDS
;	COMDAT ?_M_clear_nothrow@ios_base@_STL@@IAEXH@Z
_TEXT	SEGMENT PARA USE32 PUBLIC 'CODE'
_TEXT	ENDS
;	COMDAT ?_Destroy@_STL@@YAXPAD0@Z
_TEXT	SEGMENT PARA USE32 PUBLIC 'CODE'
_TEXT	ENDS
;	COMDAT ?rdstate@ios_base@_STL@@QBEHXZ
_TEXT	SEGMENT PARA USE32 PUBLIC 'CODE'
_TEXT	ENDS
;	COMDAT ??1?$basic_filebuf@DV?$char_traits@D@_STL@@@_STL@@UAE@XZ
_TEXT	SEGMENT PARA USE32 PUBLIC 'CODE'
_TEXT	ENDS
;	COMDAT ??_7?$basic_ofstream@DV?$char_traits@D@_STL@@@_STL@@6B@
CONST	SEGMENT DWORD USE32 PUBLIC 'CONST'
CONST	ENDS
;	COMDAT ??1?$basic_ostream@DV?$char_traits@D@_STL@@@_STL@@UAE@XZ
_TEXT	SEGMENT PARA USE32 PUBLIC 'CODE'
_TEXT	ENDS
;	COMDAT ??_8?$basic_ofstream@DV?$char_traits@D@_STL@@@_STL@@7B@
CONST	SEGMENT DWORD USE32 PUBLIC 'CONST'
CONST	ENDS
;	COMDAT ?setp@?$basic_streambuf@DV?$char_traits@D@_STL@@@_STL@@IAEXPAD0@Z
_TEXT	SEGMENT PARA USE32 PUBLIC 'CODE'
_TEXT	ENDS
;	COMDAT ?setg@?$basic_streambuf@DV?$char_traits@D@_STL@@@_STL@@IAEXPAD00@Z
_TEXT	SEGMENT PARA USE32 PUBLIC 'CODE'
_TEXT	ENDS
;	COMDAT ?__is_open@_Filebuf_base@_STL@@QBE_NXZ
_TEXT	SEGMENT PARA USE32 PUBLIC 'CODE'
_TEXT	ENDS
;	COMDAT ?length@?$char_traits@D@_STL@@SAIPBD@Z
_TEXT	SEGMENT PARA USE32 PUBLIC 'CODE'
_TEXT	ENDS
;	COMDAT ?eof@?$__char_traits_base@DH@_STL@@SAHXZ
_TEXT	SEGMENT PARA USE32 PUBLIC 'CODE'
_TEXT	ENDS
;	COMDAT ??1?$basic_ios@DV?$char_traits@D@_STL@@@_STL@@UAE@XZ
_TEXT	SEGMENT PARA USE32 PUBLIC 'CODE'
_TEXT	ENDS
;	COMDAT ??7ios_base@_STL@@QBE_NXZ
_TEXT	SEGMENT PARA USE32 PUBLIC 'CODE'
_TEXT	ENDS
;	COMDAT ??_7ITypePackBase@@6B@
CONST	SEGMENT DWORD USE32 PUBLIC 'CONST'
CONST	ENDS
;	COMDAT ??_7ovfstream@@6B@
CONST	SEGMENT DWORD USE32 PUBLIC 'CONST'
CONST	ENDS
;	COMDAT ??_7ivfstream@@6B@
CONST	SEGMENT DWORD USE32 PUBLIC 'CONST'
CONST	ENDS
;	COMDAT ??_7iovfs_base@@6B@
CONST	SEGMENT DWORD USE32 PUBLIC 'CONST'
CONST	ENDS
;	COMDAT ??_7IFileIO@@6B@
CONST	SEGMENT DWORD USE32 PUBLIC 'CONST'
CONST	ENDS
;	COMDAT ??1?$basic_string@DV?$char_traits@D@_STL@@V?$allocator@D@2@@_STL@@QAE@XZ
_TEXT	SEGMENT PARA USE32 PUBLIC 'CODE'
_TEXT	ENDS
sxdata	SEGMENT DWORD USE32 'SXDATA'
sxdata	ENDS
FLAT	GROUP _DATA, CONST, _BSS
	ASSUME	CS: FLAT, DS: FLAT, SS: FLAT
endif

INCLUDELIB LIBCMT
INCLUDELIB OLDNAMES

PUBLIC	?__stl_new@_STL@@YAPAXI@Z			; _STL::__stl_new
EXTRN	??2@YAPAXI@Z:NEAR				; operator new
; Function compile flags: /Ogty
; File c:\stlport-4.6.1\stlport\stl\_new.h
;	COMDAT ?__stl_new@_STL@@YAPAXI@Z
_TEXT	SEGMENT
___n$ = 8						; size = 4
?__stl_new@_STL@@YAPAXI@Z PROC NEAR			; _STL::__stl_new, COMDAT

; 86   : inline void*  _STLP_CALL __stl_new(size_t __n)   { _STLP_CHECK_NULL_ALLOC(::operator _STLP_NEW(__n)); }

  00000	e9 00 00 00 00	 jmp	 ??2@YAPAXI@Z		; operator new
?__stl_new@_STL@@YAPAXI@Z ENDP				; _STL::__stl_new
_TEXT	ENDS
PUBLIC	?__stl_delete@_STL@@YAXPAX@Z			; _STL::__stl_delete
EXTRN	??3@YAXPAX@Z:NEAR				; operator delete
; Function compile flags: /Ogty
;	COMDAT ?__stl_delete@_STL@@YAXPAX@Z
_TEXT	SEGMENT
___p$ = 8						; size = 4
?__stl_delete@_STL@@YAXPAX@Z PROC NEAR			; _STL::__stl_delete, COMDAT

; 87   : inline void   _STLP_CALL __stl_delete(void* __p) { ::operator delete(__p); }

  00000	e9 00 00 00 00	 jmp	 ??3@YAXPAX@Z		; operator delete
?__stl_delete@_STL@@YAXPAX@Z ENDP			; _STL::__stl_delete
_TEXT	ENDS
PUBLIC	?_M_initialize@_STLP_mutex_base@_STL@@QAEXXZ	; _STL::_STLP_mutex_base::_M_initialize
; Function compile flags: /Ogty
; File c:\stlport-4.6.1\stlport\stl\_threads.h
;	COMDAT ?_M_initialize@_STLP_mutex_base@_STL@@QAEXXZ
_TEXT	SEGMENT
?_M_initialize@_STLP_mutex_base@_STL@@QAEXXZ PROC NEAR	; _STL::_STLP_mutex_base::_M_initialize, COMDAT
; _this$ = ecx

; 321  :   inline void _M_initialize() { _M_lock=0; }

  00000	c7 01 00 00 00
	00		 mov	 DWORD PTR [ecx], 0
  00006	c3		 ret	 0
?_M_initialize@_STLP_mutex_base@_STL@@QAEXXZ ENDP	; _STL::_STLP_mutex_base::_M_initialize
_TEXT	ENDS
PUBLIC	?_M_destroy@_STLP_mutex_base@_STL@@QAEXXZ	; _STL::_STLP_mutex_base::_M_destroy
; Function compile flags: /Ogty
;	COMDAT ?_M_destroy@_STLP_mutex_base@_STL@@QAEXXZ
_TEXT	SEGMENT
?_M_destroy@_STLP_mutex_base@_STL@@QAEXXZ PROC NEAR	; _STL::_STLP_mutex_base::_M_destroy, COMDAT
; _this$ = ecx

; 322  :   inline void _M_destroy() {}

  00000	c3		 ret	 0
?_M_destroy@_STLP_mutex_base@_STL@@QAEXXZ ENDP		; _STL::_STLP_mutex_base::_M_destroy
_TEXT	ENDS
PUBLIC	??0_STLP_mutex@_STL@@QAE@XZ			; _STL::_STLP_mutex::_STLP_mutex
; Function compile flags: /Ogty
;	COMDAT ??0_STLP_mutex@_STL@@QAE@XZ
_TEXT	SEGMENT
??0_STLP_mutex@_STL@@QAE@XZ PROC NEAR			; _STL::_STLP_mutex::_STLP_mutex, COMDAT
; _this$ = ecx

; 467  :     inline _STLP_mutex () { _M_initialize(); }

  00000	8b c1		 mov	 eax, ecx
  00002	c7 00 00 00 00
	00		 mov	 DWORD PTR [eax], 0
  00008	c3		 ret	 0
??0_STLP_mutex@_STL@@QAE@XZ ENDP			; _STL::_STLP_mutex::_STLP_mutex
_TEXT	ENDS
PUBLIC	??1_STLP_mutex@_STL@@QAE@XZ			; _STL::_STLP_mutex::~_STLP_mutex
; Function compile flags: /Ogty
;	COMDAT ??1_STLP_mutex@_STL@@QAE@XZ
_TEXT	SEGMENT
??1_STLP_mutex@_STL@@QAE@XZ PROC NEAR			; _STL::_STLP_mutex::~_STLP_mutex, COMDAT
; _this$ = ecx

; 468  :     inline ~_STLP_mutex () { _M_destroy(); }

  00000	c3		 ret	 0
??1_STLP_mutex@_STL@@QAE@XZ ENDP			; _STL::_STLP_mutex::~_STLP_mutex
_TEXT	ENDS
PUBLIC	?GetDDSD@CDirectDrawSurface@@QAEPBU_DDSURFACEDESC2@@XZ ; CDirectDrawSurface::GetDDSD
EXTRN	?m_ddsd@CDirectDraw@@1U_DDSURFACEDESC2@@A:BYTE	; CDirectDraw::m_ddsd
; Function compile flags: /Ogty
; File c:\darkeden\designed_common\project\client\cdirectdrawsurface.h
;	COMDAT ?GetDDSD@CDirectDrawSurface@@QAEPBU_DDSURFACEDESC2@@XZ
_TEXT	SEGMENT
?GetDDSD@CDirectDrawSurface@@QAEPBU_DDSURFACEDESC2@@XZ PROC NEAR ; CDirectDrawSurface::GetDDSD, COMDAT
; _this$ = ecx

; 128  : 	inline DDSURFACEDESC2 * GetDDSD() { return &m_ddsd; }

  00000	b8 00 00 00 00	 mov	 eax, OFFSET FLAT:?m_ddsd@CDirectDraw@@1U_DDSURFACEDESC2@@A ; CDirectDraw::m_ddsd
  00005	c3		 ret	 0
?GetDDSD@CDirectDrawSurface@@QAEPBU_DDSURFACEDESC2@@XZ ENDP ; CDirectDrawSurface::GetDDSD
_TEXT	ENDS
PUBLIC	?_Destroy@_STL@@YAXPAD0@Z			; _STL::_Destroy
; Function compile flags: /Ogty
; File c:\stlport-4.6.1\stlport\stl\_construct.h
;	COMDAT ?_Destroy@_STL@@YAXPAD0@Z
_TEXT	SEGMENT
___formal$ = 8						; size = 4
___formal$ = 12						; size = 4
?_Destroy@_STL@@YAXPAD0@Z PROC NEAR			; _STL::_Destroy, COMDAT

; 142  : inline void _Destroy(char*, char*) {}

  00000	c3		 ret	 0
?_Destroy@_STL@@YAXPAD0@Z ENDP				; _STL::_Destroy
_TEXT	ENDS
PUBLIC	?__copy_trivial@_STL@@YAPAXPBX0PAX@Z		; _STL::__copy_trivial
EXTRN	_memmove:NEAR
; Function compile flags: /Ogty
; File c:\stlport-4.6.1\stlport\stl\_algobase.h
;	COMDAT ?__copy_trivial@_STL@@YAPAXPBX0PAX@Z
_TEXT	SEGMENT
___first$ = 8						; size = 4
___last$ = 12						; size = 4
___result$ = 16						; size = 4
?__copy_trivial@_STL@@YAPAXPBX0PAX@Z PROC NEAR		; _STL::__copy_trivial, COMDAT

; 148  :   return (__last == __first) ? __result : 
; 149  :     ((char*)memmove(__result, __first, ((const char*)__last - (const char*)__first))) + 
; 150  :     ((const char*)__last - (const char*)__first);

  00000	8b 44 24 04	 mov	 eax, DWORD PTR ___first$[esp-4]
  00004	56		 push	 esi
  00005	8b 74 24 0c	 mov	 esi, DWORD PTR ___last$[esp]
  00009	3b f0		 cmp	 esi, eax
  0000b	75 06		 jne	 SHORT $L92989
  0000d	8b 44 24 10	 mov	 eax, DWORD PTR ___result$[esp]
  00011	5e		 pop	 esi

; 151  : }

  00012	c3		 ret	 0
$L92989:

; 148  :   return (__last == __first) ? __result : 
; 149  :     ((char*)memmove(__result, __first, ((const char*)__last - (const char*)__first))) + 
; 150  :     ((const char*)__last - (const char*)__first);

  00013	2b f0		 sub	 esi, eax
  00015	56		 push	 esi
  00016	50		 push	 eax
  00017	8b 44 24 18	 mov	 eax, DWORD PTR ___result$[esp+8]
  0001b	50		 push	 eax
  0001c	e8 00 00 00 00	 call	 _memmove
  00021	83 c4 0c	 add	 esp, 12			; 0000000cH
  00024	03 c6		 add	 eax, esi
  00026	5e		 pop	 esi

; 151  : }

  00027	c3		 ret	 0
?__copy_trivial@_STL@@YAPAXPBX0PAX@Z ENDP		; _STL::__copy_trivial
_TEXT	ENDS
PUBLIC	?uninitialized_copy@_STL@@YAPADPBD0PAD@Z	; _STL::uninitialized_copy
; Function compile flags: /Ogty
; File c:\stlport-4.6.1\stlport\stl\_uninitialized.h
;	COMDAT ?uninitialized_copy@_STL@@YAPADPBD0PAD@Z
_TEXT	SEGMENT
___first$ = 8						; size = 4
___last$ = 12						; size = 4
___result$ = 16						; size = 4
?uninitialized_copy@_STL@@YAPADPBD0PAD@Z PROC NEAR	; _STL::uninitialized_copy, COMDAT

; 84   :   return  (char*)__copy_trivial (__first, __last, __result);

  00000	8b 44 24 04	 mov	 eax, DWORD PTR ___first$[esp-4]
  00004	56		 push	 esi
  00005	8b 74 24 0c	 mov	 esi, DWORD PTR ___last$[esp]
  00009	3b f0		 cmp	 esi, eax
  0000b	75 06		 jne	 SHORT $L92999
  0000d	8b 44 24 10	 mov	 eax, DWORD PTR ___result$[esp]
  00011	5e		 pop	 esi

; 85   : }

  00012	c3		 ret	 0

; 84   :   return  (char*)__copy_trivial (__first, __last, __result);

$L92999:
  00013	2b f0		 sub	 esi, eax
  00015	56		 push	 esi
  00016	50		 push	 eax
  00017	8b 44 24 18	 mov	 eax, DWORD PTR ___result$[esp+8]
  0001b	50		 push	 eax
  0001c	e8 00 00 00 00	 call	 _memmove
  00021	83 c4 0c	 add	 esp, 12			; 0000000cH
  00024	03 c6		 add	 eax, esi
  00026	5e		 pop	 esi

; 85   : }

  00027	c3		 ret	 0
?uninitialized_copy@_STL@@YAPADPBD0PAD@Z ENDP		; _STL::uninitialized_copy
_TEXT	ENDS
PUBLIC	?length@?$char_traits@D@_STL@@SAIPBD@Z		; _STL::char_traits<char>::length
; Function compile flags: /Ogty
; File c:\stlport-4.6.1\stlport\stl\char_traits.h
;	COMDAT ?length@?$char_traits@D@_STL@@SAIPBD@Z
_TEXT	SEGMENT
___s$ = 8						; size = 4
?length@?$char_traits@D@_STL@@SAIPBD@Z PROC NEAR	; _STL::char_traits<char>::length, COMDAT

; 238  :   static size_t _STLP_CALL length(const char* __s) { return strlen(__s); }

  00000	8b 44 24 04	 mov	 eax, DWORD PTR ___s$[esp-4]
  00004	8d 50 01	 lea	 edx, DWORD PTR [eax+1]
$L93004:
  00007	8a 08		 mov	 cl, BYTE PTR [eax]
  00009	40		 inc	 eax
  0000a	84 c9		 test	 cl, cl
  0000c	75 f9		 jne	 SHORT $L93004
  0000e	2b c2		 sub	 eax, edx
  00010	c3		 ret	 0
?length@?$char_traits@D@_STL@@SAIPBD@Z ENDP		; _STL::char_traits<char>::length
_TEXT	ENDS
PUBLIC	?assign@?$char_traits@D@_STL@@SAXAADABD@Z	; _STL::char_traits<char>::assign
; Function compile flags: /Ogty
;	COMDAT ?assign@?$char_traits@D@_STL@@SAXAADABD@Z
_TEXT	SEGMENT
___c1$ = 8						; size = 4
___c2$ = 12						; size = 4
?assign@?$char_traits@D@_STL@@SAXAADABD@Z PROC NEAR	; _STL::char_traits<char>::assign, COMDAT

; 240  :   static void _STLP_CALL assign(char& __c1, const char& __c2) { __c1 = __c2; }

  00000	8b 44 24 08	 mov	 eax, DWORD PTR ___c2$[esp-4]
  00004	8a 08		 mov	 cl, BYTE PTR [eax]
  00006	8b 54 24 04	 mov	 edx, DWORD PTR ___c1$[esp-4]
  0000a	88 0a		 mov	 BYTE PTR [edx], cl
  0000c	c3		 ret	 0
?assign@?$char_traits@D@_STL@@SAXAADABD@Z ENDP		; _STL::char_traits<char>::assign
_TEXT	ENDS
PUBLIC	?widen@?$ctype@D@_STL@@QBEDD@Z			; _STL::ctype<char>::widen
; Function compile flags: /Ogty
; File c:\stlport-4.6.1\stlport\stl\_ctype.h
;	COMDAT ?widen@?$ctype@D@_STL@@QBEDD@Z
_TEXT	SEGMENT
___c$ = 8						; size = 1
?widen@?$ctype@D@_STL@@QBEDD@Z PROC NEAR		; _STL::ctype<char>::widen, COMDAT
; _this$ = ecx

; 102  :   char        widen(char __c) const { return do_widen(__c); }

  00000	8b 01		 mov	 eax, DWORD PTR [ecx]
  00002	ff 60 18	 jmp	 DWORD PTR [eax+24]
?widen@?$ctype@D@_STL@@QBEDD@Z ENDP			; _STL::ctype<char>::widen
_TEXT	ENDS
PUBLIC	?flags@ios_base@_STL@@QBEHXZ			; _STL::ios_base::flags
; Function compile flags: /Ogty
; File c:\stlport-4.6.1\stlport\stl\_ios_base.h
;	COMDAT ?flags@ios_base@_STL@@QBEHXZ
_TEXT	SEGMENT
?flags@ios_base@_STL@@QBEHXZ PROC NEAR			; _STL::ios_base::flags, COMDAT
; _this$ = ecx

; 115  :   fmtflags flags() const { return _M_fmtflags; }

  00000	8b 41 04	 mov	 eax, DWORD PTR [ecx+4]
  00003	c3		 ret	 0
?flags@ios_base@_STL@@QBEHXZ ENDP			; _STL::ios_base::flags
_TEXT	ENDS
PUBLIC	?flags@ios_base@_STL@@QAEHH@Z			; _STL::ios_base::flags
; Function compile flags: /Ogty
;	COMDAT ?flags@ios_base@_STL@@QAEHH@Z
_TEXT	SEGMENT
___flags$ = 8						; size = 4
?flags@ios_base@_STL@@QAEHH@Z PROC NEAR			; _STL::ios_base::flags, COMDAT
; _this$ = ecx

; 117  :     fmtflags __tmp = _M_fmtflags;
; 118  :     _M_fmtflags = __flags;

  00000	8b 54 24 04	 mov	 edx, DWORD PTR ___flags$[esp-4]
  00004	8b 41 04	 mov	 eax, DWORD PTR [ecx+4]
  00007	89 51 04	 mov	 DWORD PTR [ecx+4], edx

; 119  :     return __tmp;
; 120  :   }

  0000a	c2 04 00	 ret	 4
?flags@ios_base@_STL@@QAEHH@Z ENDP			; _STL::ios_base::flags
_TEXT	ENDS
PUBLIC	?precision@ios_base@_STL@@QAEHH@Z		; _STL::ios_base::precision
; Function compile flags: /Ogty
;	COMDAT ?precision@ios_base@_STL@@QAEHH@Z
_TEXT	SEGMENT
___newprecision$ = 8					; size = 4
?precision@ios_base@_STL@@QAEHH@Z PROC NEAR		; _STL::ios_base::precision, COMDAT
; _this$ = ecx

; 137  :     streamsize __tmp = _M_precision;
; 138  :     _M_precision = __newprecision;

  00000	8b 54 24 04	 mov	 edx, DWORD PTR ___newprecision$[esp-4]
  00004	8b 41 18	 mov	 eax, DWORD PTR [ecx+24]
  00007	89 51 18	 mov	 DWORD PTR [ecx+24], edx

; 139  :     return __tmp;
; 140  :   }

  0000a	c2 04 00	 ret	 4
?precision@ios_base@_STL@@QAEHH@Z ENDP			; _STL::ios_base::precision
_TEXT	ENDS
PUBLIC	?width@ios_base@_STL@@QAEHH@Z			; _STL::ios_base::width
; Function compile flags: /Ogty
;	COMDAT ?width@ios_base@_STL@@QAEHH@Z
_TEXT	SEGMENT
___newwidth$ = 8					; size = 4
?width@ios_base@_STL@@QAEHH@Z PROC NEAR			; _STL::ios_base::width, COMDAT
; _this$ = ecx

; 144  :     streamsize __tmp = _M_width;
; 145  :     _M_width = __newwidth;

  00000	8b 54 24 04	 mov	 edx, DWORD PTR ___newwidth$[esp-4]
  00004	8b 41 1c	 mov	 eax, DWORD PTR [ecx+28]
  00007	89 51 1c	 mov	 DWORD PTR [ecx+28], edx

; 146  :     return __tmp;
; 147  :   }

  0000a	c2 04 00	 ret	 4
?width@ios_base@_STL@@QAEHH@Z ENDP			; _STL::ios_base::width
_TEXT	ENDS
PUBLIC	?rdstate@ios_base@_STL@@QBEHXZ			; _STL::ios_base::rdstate
; Function compile flags: /Ogty
;	COMDAT ?rdstate@ios_base@_STL@@QBEHXZ
_TEXT	SEGMENT
?rdstate@ios_base@_STL@@QBEHXZ PROC NEAR		; _STL::ios_base::rdstate, COMDAT
; _this$ = ecx

; 178  :   iostate rdstate() const { return _M_iostate; }

  00000	8b 41 08	 mov	 eax, DWORD PTR [ecx+8]
  00003	c3		 ret	 0
?rdstate@ios_base@_STL@@QBEHXZ ENDP			; _STL::ios_base::rdstate
_TEXT	ENDS
PUBLIC	?good@ios_base@_STL@@QBE_NXZ			; _STL::ios_base::good
; Function compile flags: /Ogty
;	COMDAT ?good@ios_base@_STL@@QBE_NXZ
_TEXT	SEGMENT
?good@ios_base@_STL@@QBE_NXZ PROC NEAR			; _STL::ios_base::good, COMDAT
; _this$ = ecx

; 180  :   bool good() const { return _M_iostate == 0; }

  00000	8b 51 08	 mov	 edx, DWORD PTR [ecx+8]
  00003	33 c0		 xor	 eax, eax
  00005	85 d2		 test	 edx, edx
  00007	0f 94 c0	 sete	 al
  0000a	c3		 ret	 0
?good@ios_base@_STL@@QBE_NXZ ENDP			; _STL::ios_base::good
_TEXT	ENDS
PUBLIC	?fail@ios_base@_STL@@QBE_NXZ			; _STL::ios_base::fail
; Function compile flags: /Ogty
;	COMDAT ?fail@ios_base@_STL@@QBE_NXZ
_TEXT	SEGMENT
?fail@ios_base@_STL@@QBE_NXZ PROC NEAR			; _STL::ios_base::fail, COMDAT
; _this$ = ecx

; 182  :   bool fail() const { return (_M_iostate & (failbit | badbit)) != 0; }

  00000	8b 41 08	 mov	 eax, DWORD PTR [ecx+8]
  00003	24 05		 and	 al, 5
  00005	f6 d8		 neg	 al
  00007	1b c0		 sbb	 eax, eax
  00009	f7 d8		 neg	 eax
  0000b	c3		 ret	 0
?fail@ios_base@_STL@@QBE_NXZ ENDP			; _STL::ios_base::fail
_TEXT	ENDS
PUBLIC	?_M_setstate_nothrow@ios_base@_STL@@IAEXH@Z	; _STL::ios_base::_M_setstate_nothrow
; Function compile flags: /Ogty
;	COMDAT ?_M_setstate_nothrow@ios_base@_STL@@IAEXH@Z
_TEXT	SEGMENT
___state$ = 8						; size = 4
?_M_setstate_nothrow@ios_base@_STL@@IAEXH@Z PROC NEAR	; _STL::ios_base::_M_setstate_nothrow, COMDAT
; _this$ = ecx

; 193  :   void _M_setstate_nothrow(iostate __state) { _M_iostate |= __state; }

  00000	8b 51 08	 mov	 edx, DWORD PTR [ecx+8]
  00003	8b 44 24 04	 mov	 eax, DWORD PTR ___state$[esp-4]
  00007	0b d0		 or	 edx, eax
  00009	89 51 08	 mov	 DWORD PTR [ecx+8], edx
  0000c	c2 04 00	 ret	 4
?_M_setstate_nothrow@ios_base@_STL@@IAEXH@Z ENDP	; _STL::ios_base::_M_setstate_nothrow
_TEXT	ENDS
PUBLIC	?_M_clear_nothrow@ios_base@_STL@@IAEXH@Z	; _STL::ios_base::_M_clear_nothrow
; Function compile flags: /Ogty
;	COMDAT ?_M_clear_nothrow@ios_base@_STL@@IAEXH@Z
_TEXT	SEGMENT
___state$ = 8						; size = 4
?_M_clear_nothrow@ios_base@_STL@@IAEXH@Z PROC NEAR	; _STL::ios_base::_M_clear_nothrow, COMDAT
; _this$ = ecx

; 194  :   void _M_clear_nothrow(iostate __state) { _M_iostate = __state; }

  00000	8b 44 24 04	 mov	 eax, DWORD PTR ___state$[esp-4]
  00004	89 41 08	 mov	 DWORD PTR [ecx+8], eax
  00007	c2 04 00	 ret	 4
?_M_clear_nothrow@ios_base@_STL@@IAEXH@Z ENDP		; _STL::ios_base::_M_clear_nothrow
_TEXT	ENDS
PUBLIC	?_M_get_exception_mask@ios_base@_STL@@IBEHXZ	; _STL::ios_base::_M_get_exception_mask
; Function compile flags: /Ogty
;	COMDAT ?_M_get_exception_mask@ios_base@_STL@@IBEHXZ
_TEXT	SEGMENT
?_M_get_exception_mask@ios_base@_STL@@IBEHXZ PROC NEAR	; _STL::ios_base::_M_get_exception_mask, COMDAT
; _this$ = ecx

; 195  :   iostate _M_get_exception_mask() const { return _M_exception_mask; }

  00000	8b 41 14	 mov	 eax, DWORD PTR [ecx+20]
  00003	c3		 ret	 0
?_M_get_exception_mask@ios_base@_STL@@IBEHXZ ENDP	; _STL::ios_base::_M_get_exception_mask
_TEXT	ENDS
PUBLIC	?_M_set_exception_mask@ios_base@_STL@@IAEXH@Z	; _STL::ios_base::_M_set_exception_mask
; Function compile flags: /Ogty
;	COMDAT ?_M_set_exception_mask@ios_base@_STL@@IAEXH@Z
_TEXT	SEGMENT
___mask$ = 8						; size = 4
?_M_set_exception_mask@ios_base@_STL@@IAEXH@Z PROC NEAR	; _STL::ios_base::_M_set_exception_mask, COMDAT
; _this$ = ecx

; 196  :   void _M_set_exception_mask(iostate __mask) { _M_exception_mask = __mask; }

  00000	8b 44 24 04	 mov	 eax, DWORD PTR ___mask$[esp-4]
  00004	89 41 14	 mov	 DWORD PTR [ecx+20], eax
  00007	c2 04 00	 ret	 4
?_M_set_exception_mask@ios_base@_STL@@IAEXH@Z ENDP	; _STL::ios_base::_M_set_exception_mask
_TEXT	ENDS
PUBLIC	?_M_check_exception_mask@ios_base@_STL@@IAEXXZ	; _STL::ios_base::_M_check_exception_mask
EXTRN	?_M_throw_failure@ios_base@_STL@@IAEXXZ:NEAR	; _STL::ios_base::_M_throw_failure
; Function compile flags: /Ogty
;	COMDAT ?_M_check_exception_mask@ios_base@_STL@@IAEXXZ
_TEXT	SEGMENT
?_M_check_exception_mask@ios_base@_STL@@IAEXXZ PROC NEAR ; _STL::ios_base::_M_check_exception_mask, COMDAT
; _this$ = ecx

; 198  :     if (_M_iostate & _M_exception_mask)

  00000	8b 41 14	 mov	 eax, DWORD PTR [ecx+20]
  00003	85 41 08	 test	 eax, DWORD PTR [ecx+8]
  00006	74 05		 je	 SHORT $L8748

; 199  :       _M_throw_failure(); 

  00008	e9 00 00 00 00	 jmp	 ?_M_throw_failure@ios_base@_STL@@IAEXXZ ; _STL::ios_base::_M_throw_failure
$L8748:

; 200  :   }

  0000d	c3		 ret	 0
?_M_check_exception_mask@ios_base@_STL@@IAEXXZ ENDP	; _STL::ios_base::_M_check_exception_mask
_TEXT	ENDS
PUBLIC	?_M_ctype_facet@ios_base@_STL@@QBEPBVfacet@locale@2@XZ ; _STL::ios_base::_M_ctype_facet
; Function compile flags: /Ogty
;	COMDAT ?_M_ctype_facet@ios_base@_STL@@QBEPBVfacet@locale@2@XZ
_TEXT	SEGMENT
?_M_ctype_facet@ios_base@_STL@@QBEPBVfacet@locale@2@XZ PROC NEAR ; _STL::ios_base::_M_ctype_facet, COMDAT
; _this$ = ecx

; 250  :   const locale::facet* _M_ctype_facet() const { return _M_cached_ctype; }

  00000	8b 41 40	 mov	 eax, DWORD PTR [ecx+64]
  00003	c3		 ret	 0
?_M_ctype_facet@ios_base@_STL@@QBEPBVfacet@locale@2@XZ ENDP ; _STL::ios_base::_M_ctype_facet
_TEXT	ENDS
PUBLIC	?_FILE_I_set@_STL@@YAXPAU_iobuf@@PAD11@Z	; _STL::_FILE_I_set
; Function compile flags: /Ogty
; File c:\stlport-4.6.1\stlport\stl\_stdio_file.h
;	COMDAT ?_FILE_I_set@_STL@@YAXPAU_iobuf@@PAD11@Z
_TEXT	SEGMENT
___f$ = 8						; size = 4
___begin$ = 12						; size = 4
___next$ = 16						; size = 4
___end$ = 20						; size = 4
?_FILE_I_set@_STL@@YAXPAU_iobuf@@PAD11@Z PROC NEAR	; _STL::_FILE_I_set, COMDAT

; 117  :   __f->_base = (_File_ptr_type) __begin;

  00000	8b 44 24 04	 mov	 eax, DWORD PTR ___f$[esp-4]
  00004	8b 4c 24 08	 mov	 ecx, DWORD PTR ___begin$[esp-4]

; 118  :   __f->_ptr  = (_File_ptr_type) __next;
; 119  :   __f->_cnt  = __end - __next;

  00008	8b 54 24 10	 mov	 edx, DWORD PTR ___end$[esp-4]
  0000c	89 48 08	 mov	 DWORD PTR [eax+8], ecx
  0000f	8b 4c 24 0c	 mov	 ecx, DWORD PTR ___next$[esp-4]
  00013	2b d1		 sub	 edx, ecx
  00015	89 08		 mov	 DWORD PTR [eax], ecx
  00017	89 50 04	 mov	 DWORD PTR [eax+4], edx

; 120  : }

  0001a	c3		 ret	 0
?_FILE_I_set@_STL@@YAXPAU_iobuf@@PAD11@Z ENDP		; _STL::_FILE_I_set
_TEXT	ENDS
PUBLIC	?is_open@iovfs_base@@QBE_NXZ			; iovfs_base::is_open
; Function compile flags: /Ogty
; File c:\darkeden\designed_common\project\client\virtualfilesystem\vfstream.inl
;	COMDAT ?is_open@iovfs_base@@QBE_NXZ
_TEXT	SEGMENT
?is_open@iovfs_base@@QBE_NXZ PROC NEAR			; iovfs_base::is_open, COMDAT
; _this$ = ecx

; 47   : 	return m_pFileIO && m_pFileIO->is_open();

  00000	8b 41 04	 mov	 eax, DWORD PTR [ecx+4]
  00003	85 c0		 test	 eax, eax
  00005	74 11		 je	 SHORT $L93057
  00007	8b c8		 mov	 ecx, eax
  00009	8b 01		 mov	 eax, DWORD PTR [ecx]
  0000b	ff 50 0c	 call	 DWORD PTR [eax+12]
  0000e	84 c0		 test	 al, al
  00010	74 06		 je	 SHORT $L93057
  00012	b8 01 00 00 00	 mov	 eax, 1

; 48   : }

  00017	c3		 ret	 0
$L93057:

; 47   : 	return m_pFileIO && m_pFileIO->is_open();

  00018	33 c0		 xor	 eax, eax

; 48   : }

  0001a	c3		 ret	 0
?is_open@iovfs_base@@QBE_NXZ ENDP			; iovfs_base::is_open
_TEXT	ENDS
PUBLIC	?_FILE_O_set@_STL@@YAXPAU_iobuf@@PAD11@Z	; _STL::_FILE_O_set
; Function compile flags: /Ogty
; File c:\stlport-4.6.1\stlport\stl\_stdio_file.h
;	COMDAT ?_FILE_O_set@_STL@@YAXPAU_iobuf@@PAD11@Z
_TEXT	SEGMENT
___f$ = 8						; size = 4
___begin$ = 12						; size = 4
___next$ = 16						; size = 4
___end$ = 20						; size = 4
?_FILE_O_set@_STL@@YAXPAU_iobuf@@PAD11@Z PROC NEAR	; _STL::_FILE_O_set, COMDAT

; 745  :   { _FILE_I_set(__f, __begin, __next, __end); }

  00000	8b 44 24 04	 mov	 eax, DWORD PTR ___f$[esp-4]
  00004	8b 4c 24 08	 mov	 ecx, DWORD PTR ___begin$[esp-4]
  00008	8b 54 24 10	 mov	 edx, DWORD PTR ___end$[esp-4]
  0000c	89 48 08	 mov	 DWORD PTR [eax+8], ecx
  0000f	8b 4c 24 0c	 mov	 ecx, DWORD PTR ___next$[esp-4]
  00013	2b d1		 sub	 edx, ecx
  00015	89 08		 mov	 DWORD PTR [eax], ecx
  00017	89 50 04	 mov	 DWORD PTR [eax+4], edx
  0001a	c3		 ret	 0
?_FILE_O_set@_STL@@YAXPAU_iobuf@@PAD11@Z ENDP		; _STL::_FILE_O_set
_TEXT	ENDS
PUBLIC	??_R1A@?0A@A@?$basic_streambuf@DV?$char_traits@D@_STL@@@_STL@@8 ; _STL::basic_streambuf<char,_STL::char_traits<char> >::`RTTI Base Class Descriptor at (0,-1,0,0)'
PUBLIC	??_R0?AV?$basic_streambuf@DV?$char_traits@D@_STL@@@_STL@@@8 ; _STL::basic_streambuf<char,_STL::char_traits<char> > `RTTI Type Descriptor'
PUBLIC	??_R4?$basic_streambuf@DV?$char_traits@D@_STL@@@_STL@@6B@ ; _STL::basic_streambuf<char,_STL::char_traits<char> >::`RTTI Complete Object Locator'
PUBLIC	??_R3?$basic_streambuf@DV?$char_traits@D@_STL@@@_STL@@8 ; _STL::basic_streambuf<char,_STL::char_traits<char> >::`RTTI Class Hierarchy Descriptor'
PUBLIC	??_R2?$basic_streambuf@DV?$char_traits@D@_STL@@@_STL@@8 ; _STL::basic_streambuf<char,_STL::char_traits<char> >::`RTTI Base Class Array'
PUBLIC	??0?$basic_streambuf@DV?$char_traits@D@_STL@@@_STL@@IAE@XZ ; _STL::basic_streambuf<char,_STL::char_traits<char> >::basic_streambuf<char,_STL::char_traits<char> >
PUBLIC	??_7?$basic_streambuf@DV?$char_traits@D@_STL@@@_STL@@6B@ ; _STL::basic_streambuf<char,_STL::char_traits<char> >::`vftable'
PUBLIC	??_G?$basic_streambuf@DV?$char_traits@D@_STL@@@_STL@@UAEPAXI@Z ; _STL::basic_streambuf<char,_STL::char_traits<char> >::`scalar deleting destructor'
EXTRN	??_7type_info@@6B@:QWORD			; type_info::`vftable'
EXTRN	?setbuf@?$basic_streambuf@DV?$char_traits@D@_STL@@@_STL@@MAEPAV12@PADH@Z:NEAR ; _STL::basic_streambuf<char,_STL::char_traits<char> >::setbuf
EXTRN	?seekoff@?$basic_streambuf@DV?$char_traits@D@_STL@@@_STL@@MAE?AV?$fpos@H@2@JHH@Z:NEAR ; _STL::basic_streambuf<char,_STL::char_traits<char> >::seekoff
EXTRN	?seekpos@?$basic_streambuf@DV?$char_traits@D@_STL@@@_STL@@MAE?AV?$fpos@H@2@V32@H@Z:NEAR ; _STL::basic_streambuf<char,_STL::char_traits<char> >::seekpos
EXTRN	?sync@?$basic_streambuf@DV?$char_traits@D@_STL@@@_STL@@MAEHXZ:NEAR ; _STL::basic_streambuf<char,_STL::char_traits<char> >::sync
EXTRN	?showmanyc@?$basic_streambuf@DV?$char_traits@D@_STL@@@_STL@@MAEHXZ:NEAR ; _STL::basic_streambuf<char,_STL::char_traits<char> >::showmanyc
EXTRN	?xsgetn@?$basic_streambuf@DV?$char_traits@D@_STL@@@_STL@@MAEHPADH@Z:NEAR ; _STL::basic_streambuf<char,_STL::char_traits<char> >::xsgetn
EXTRN	?underflow@?$basic_streambuf@DV?$char_traits@D@_STL@@@_STL@@MAEHXZ:NEAR ; _STL::basic_streambuf<char,_STL::char_traits<char> >::underflow
EXTRN	?uflow@?$basic_streambuf@DV?$char_traits@D@_STL@@@_STL@@MAEHXZ:NEAR ; _STL::basic_streambuf<char,_STL::char_traits<char> >::uflow
EXTRN	?pbackfail@?$basic_streambuf@DV?$char_traits@D@_STL@@@_STL@@MAEHH@Z:NEAR ; _STL::basic_streambuf<char,_STL::char_traits<char> >::pbackfail
EXTRN	?xsputn@?$basic_streambuf@DV?$char_traits@D@_STL@@@_STL@@MAEHPBDH@Z:NEAR ; _STL::basic_streambuf<char,_STL::char_traits<char> >::xsputn
EXTRN	?_M_xsputnc@?$basic_streambuf@DV?$char_traits@D@_STL@@@_STL@@MAEHDH@Z:NEAR ; _STL::basic_streambuf<char,_STL::char_traits<char> >::_M_xsputnc
EXTRN	?overflow@?$basic_streambuf@DV?$char_traits@D@_STL@@@_STL@@MAEHH@Z:NEAR ; _STL::basic_streambuf<char,_STL::char_traits<char> >::overflow
EXTRN	?imbue@?$basic_streambuf@DV?$char_traits@D@_STL@@@_STL@@MAEXABVlocale@2@@Z:NEAR ; _STL::basic_streambuf<char,_STL::char_traits<char> >::imbue
EXTRN	??_E?$basic_streambuf@DV?$char_traits@D@_STL@@@_STL@@UAEPAXI@Z:NEAR ; _STL::basic_streambuf<char,_STL::char_traits<char> >::`vector deleting destructor'
EXTRN	??0locale@_STL@@QAE@XZ:NEAR			; _STL::locale::locale
;	COMDAT ??_7?$basic_streambuf@DV?$char_traits@D@_STL@@@_STL@@6B@
CONST	SEGMENT
??_7?$basic_streambuf@DV?$char_traits@D@_STL@@@_STL@@6B@ DD FLAT:??_R4?$basic_streambuf@DV?$char_traits@D@_STL@@@_STL@@6B@ ; _STL::basic_streambuf<char,_STL::char_traits<char> >::`vftable'
	DD	FLAT:??_E?$basic_streambuf@DV?$char_traits@D@_STL@@@_STL@@UAEPAXI@Z
	DD	FLAT:?setbuf@?$basic_streambuf@DV?$char_traits@D@_STL@@@_STL@@MAEPAV12@PADH@Z
	DD	FLAT:?seekoff@?$basic_streambuf@DV?$char_traits@D@_STL@@@_STL@@MAE?AV?$fpos@H@2@JHH@Z
	DD	FLAT:?seekpos@?$basic_streambuf@DV?$char_traits@D@_STL@@@_STL@@MAE?AV?$fpos@H@2@V32@H@Z
	DD	FLAT:?sync@?$basic_streambuf@DV?$char_traits@D@_STL@@@_STL@@MAEHXZ
	DD	FLAT:?showmanyc@?$basic_streambuf@DV?$char_traits@D@_STL@@@_STL@@MAEHXZ
	DD	FLAT:?xsgetn@?$basic_streambuf@DV?$char_traits@D@_STL@@@_STL@@MAEHPADH@Z
	DD	FLAT:?underflow@?$basic_streambuf@DV?$char_traits@D@_STL@@@_STL@@MAEHXZ
	DD	FLAT:?uflow@?$basic_streambuf@DV?$char_traits@D@_STL@@@_STL@@MAEHXZ
	DD	FLAT:?pbackfail@?$basic_streambuf@DV?$char_traits@D@_STL@@@_STL@@MAEHH@Z
	DD	FLAT:?xsputn@?$basic_streambuf@DV?$char_traits@D@_STL@@@_STL@@MAEHPBDH@Z
	DD	FLAT:?_M_xsputnc@?$basic_streambuf@DV?$char_traits@D@_STL@@@_STL@@MAEHDH@Z
	DD	FLAT:?overflow@?$basic_streambuf@DV?$char_traits@D@_STL@@@_STL@@MAEHH@Z
	DD	FLAT:?imbue@?$basic_streambuf@DV?$char_traits@D@_STL@@@_STL@@MAEXABVlocale@2@@Z
CONST	ENDS
;	COMDAT ??_R4?$basic_streambuf@DV?$char_traits@D@_STL@@@_STL@@6B@
rdata$r	SEGMENT
??_R4?$basic_streambuf@DV?$char_traits@D@_STL@@@_STL@@6B@ DD 00H ; _STL::basic_streambuf<char,_STL::char_traits<char> >::`RTTI Complete Object Locator'
	DD	00H
	DD	00H
	DD	FLAT:??_R0?AV?$basic_streambuf@DV?$char_traits@D@_STL@@@_STL@@@8
	DD	FLAT:??_R3?$basic_streambuf@DV?$char_traits@D@_STL@@@_STL@@8
rdata$r	ENDS
;	COMDAT ??_R0?AV?$basic_streambuf@DV?$char_traits@D@_STL@@@_STL@@@8
_DATA	SEGMENT
??_R0?AV?$basic_streambuf@DV?$char_traits@D@_STL@@@_STL@@@8 DD FLAT:??_7type_info@@6B@ ; _STL::basic_streambuf<char,_STL::char_traits<char> > `RTTI Type Descriptor'
	DD	00H
	DB	'.?AV?$basic_streambuf@DV?$char_traits@D@_STL@@@_STL@@', 00H
_DATA	ENDS
;	COMDAT ??_R3?$basic_streambuf@DV?$char_traits@D@_STL@@@_STL@@8
rdata$r	SEGMENT
??_R3?$basic_streambuf@DV?$char_traits@D@_STL@@@_STL@@8 DD 00H ; _STL::basic_streambuf<char,_STL::char_traits<char> >::`RTTI Class Hierarchy Descriptor'
	DD	00H
	DD	01H
	DD	FLAT:??_R2?$basic_streambuf@DV?$char_traits@D@_STL@@@_STL@@8
rdata$r	ENDS
;	COMDAT ??_R2?$basic_streambuf@DV?$char_traits@D@_STL@@@_STL@@8
rdata$r	SEGMENT
??_R2?$basic_streambuf@DV?$char_traits@D@_STL@@@_STL@@8 DD FLAT:??_R1A@?0A@A@?$basic_streambuf@DV?$char_traits@D@_STL@@@_STL@@8 ; _STL::basic_streambuf<char,_STL::char_traits<char> >::`RTTI Base Class Array'
rdata$r	ENDS
;	COMDAT ??_R1A@?0A@A@?$basic_streambuf@DV?$char_traits@D@_STL@@@_STL@@8
rdata$r	SEGMENT
??_R1A@?0A@A@?$basic_streambuf@DV?$char_traits@D@_STL@@@_STL@@8 DD FLAT:??_R0?AV?$basic_streambuf@DV?$char_traits@D@_STL@@@_STL@@@8 ; _STL::basic_streambuf<char,_STL::char_traits<char> >::`RTTI Base Class Descriptor at (0,-1,0,0)'
	DD	00H
	DD	00H
	DD	0ffffffffH
	DD	00H
	DD	00H
; Function compile flags: /Ogty
; File c:\stlport-4.6.1\stlport\stl\_streambuf.h
rdata$r	ENDS
;	COMDAT ??0?$basic_streambuf@DV?$char_traits@D@_STL@@@_STL@@IAE@XZ
_TEXT	SEGMENT
??0?$basic_streambuf@DV?$char_traits@D@_STL@@@_STL@@IAE@XZ PROC NEAR ; _STL::basic_streambuf<char,_STL::char_traits<char> >::basic_streambuf<char,_STL::char_traits<char> >, COMDAT
; _this$ = ecx

; 352  :   {

  00000	56		 push	 esi
  00001	8b f1		 mov	 esi, ecx
  00003	8d 4e 2c	 lea	 ecx, DWORD PTR [esi+44]
  00006	8d 46 0c	 lea	 eax, DWORD PTR [esi+12]
  00009	89 4e 08	 mov	 DWORD PTR [esi+8], ecx
  0000c	8d 4e 4c	 lea	 ecx, DWORD PTR [esi+76]
  0000f	c7 06 00 00 00
	00		 mov	 DWORD PTR [esi], OFFSET FLAT:??_7?$basic_streambuf@DV?$char_traits@D@_STL@@@_STL@@6B@
  00015	89 46 04	 mov	 DWORD PTR [esi+4], eax
  00018	e8 00 00 00 00	 call	 ??0locale@_STL@@QAE@XZ	; _STL::locale::locale
  0001d	33 c9		 xor	 ecx, ecx
  0001f	89 4e 50	 mov	 DWORD PTR [esi+80], ecx

; 353  :     // _M_lock._M_initialize();
; 354  :     _FILE_I_set(_M_get, 0, 0, 0);

  00022	8b 46 04	 mov	 eax, DWORD PTR [esi+4]
  00025	89 48 08	 mov	 DWORD PTR [eax+8], ecx
  00028	89 08		 mov	 DWORD PTR [eax], ecx
  0002a	89 48 04	 mov	 DWORD PTR [eax+4], ecx

; 355  :     _FILE_O_set(_M_put, 0, 0, 0);

  0002d	8b 46 08	 mov	 eax, DWORD PTR [esi+8]
  00030	89 48 08	 mov	 DWORD PTR [eax+8], ecx
  00033	89 08		 mov	 DWORD PTR [eax], ecx
  00035	89 48 04	 mov	 DWORD PTR [eax+4], ecx

; 356  :   }

  00038	8b c6		 mov	 eax, esi
  0003a	5e		 pop	 esi
  0003b	c3		 ret	 0
??0?$basic_streambuf@DV?$char_traits@D@_STL@@@_STL@@IAE@XZ ENDP ; _STL::basic_streambuf<char,_STL::char_traits<char> >::basic_streambuf<char,_STL::char_traits<char> >
_TEXT	ENDS
PUBLIC	?open@ivfstream@@UAEXPBDH@Z			; ivfstream::open
EXTRN	?open@iovfs_base@@UAEXPBDH@Z:NEAR		; iovfs_base::open
; Function compile flags: /Ogty
; File c:\darkeden\designed_common\project\client\virtualfilesystem\vfstream.inl
;	COMDAT ?open@ivfstream@@UAEXPBDH@Z
_TEXT	SEGMENT
_szName$ = 8						; size = 4
_nMode$ = 12						; size = 4
?open@ivfstream@@UAEXPBDH@Z PROC NEAR			; ivfstream::open, COMDAT
; _this$ = ecx

; 76   : 	iovfs_base::open(szName, nMode | std::ios_base::in);

  00000	8b 44 24 08	 mov	 eax, DWORD PTR _nMode$[esp-4]
  00004	83 c8 08	 or	 eax, 8
  00007	89 44 24 08	 mov	 DWORD PTR _nMode$[esp-4], eax
  0000b	e9 00 00 00 00	 jmp	 ?open@iovfs_base@@UAEXPBDH@Z ; iovfs_base::open
?open@ivfstream@@UAEXPBDH@Z ENDP			; ivfstream::open
_TEXT	ENDS
PUBLIC	?read@ivfstream@@QAEXPADI@Z			; ivfstream::read
; Function compile flags: /Ogty
;	COMDAT ?read@ivfstream@@QAEXPADI@Z
_TEXT	SEGMENT
_buf$ = 8						; size = 4
_len$ = 12						; size = 4
?read@ivfstream@@QAEXPADI@Z PROC NEAR			; ivfstream::read, COMDAT
; _this$ = ecx

; 81   : 	if(m_pFileIO) m_pFileIO->read(buf, len);

  00000	8b 41 04	 mov	 eax, DWORD PTR [ecx+4]
  00003	85 c0		 test	 eax, eax
  00005	74 07		 je	 SHORT $L84104
  00007	8b c8		 mov	 ecx, eax
  00009	8b 01		 mov	 eax, DWORD PTR [ecx]
  0000b	ff 60 10	 jmp	 DWORD PTR [eax+16]
$L84104:

; 82   : }

  0000e	c2 08 00	 ret	 8
?read@ivfstream@@QAEXPADI@Z ENDP			; ivfstream::read
_TEXT	ENDS
PUBLIC	?setg@?$basic_streambuf@DV?$char_traits@D@_STL@@@_STL@@IAEXPAD00@Z ; _STL::basic_streambuf<char,_STL::char_traits<char> >::setg
; Function compile flags: /Ogty
; File c:\stlport-4.6.1\stlport\stl\_streambuf.h
;	COMDAT ?setg@?$basic_streambuf@DV?$char_traits@D@_STL@@@_STL@@IAEXPAD00@Z
_TEXT	SEGMENT
___gbegin$ = 8						; size = 4
___gnext$ = 12						; size = 4
___gend$ = 16						; size = 4
?setg@?$basic_streambuf@DV?$char_traits@D@_STL@@@_STL@@IAEXPAD00@Z PROC NEAR ; _STL::basic_streambuf<char,_STL::char_traits<char> >::setg, COMDAT
; _this$ = ecx

; 367  :     { _FILE_I_set(_M_get, __gbegin, __gnext, __gend); }

  00000	8b 41 04	 mov	 eax, DWORD PTR [ecx+4]
  00003	8b 4c 24 04	 mov	 ecx, DWORD PTR ___gbegin$[esp-4]
  00007	8b 54 24 0c	 mov	 edx, DWORD PTR ___gend$[esp-4]
  0000b	89 48 08	 mov	 DWORD PTR [eax+8], ecx
  0000e	8b 4c 24 08	 mov	 ecx, DWORD PTR ___gnext$[esp-4]
  00012	2b d1		 sub	 edx, ecx
  00014	89 08		 mov	 DWORD PTR [eax], ecx
  00016	89 50 04	 mov	 DWORD PTR [eax+4], edx
  00019	c2 0c 00	 ret	 12			; 0000000cH
?setg@?$basic_streambuf@DV?$char_traits@D@_STL@@@_STL@@IAEXPAD00@Z ENDP ; _STL::basic_streambuf<char,_STL::char_traits<char> >::setg
_TEXT	ENDS
PUBLIC	?setp@?$basic_streambuf@DV?$char_traits@D@_STL@@@_STL@@IAEXPAD0@Z ; _STL::basic_streambuf<char,_STL::char_traits<char> >::setp
; Function compile flags: /Ogty
;	COMDAT ?setp@?$basic_streambuf@DV?$char_traits@D@_STL@@@_STL@@IAEXPAD0@Z
_TEXT	SEGMENT
___pbegin$ = 8						; size = 4
___pend$ = 12						; size = 4
?setp@?$basic_streambuf@DV?$char_traits@D@_STL@@@_STL@@IAEXPAD0@Z PROC NEAR ; _STL::basic_streambuf<char,_STL::char_traits<char> >::setp, COMDAT
; _this$ = ecx

; 389  :     { _FILE_O_set(_M_put, __pbegin, __pbegin, __pend); }

  00000	8b 41 08	 mov	 eax, DWORD PTR [ecx+8]
  00003	8b 4c 24 04	 mov	 ecx, DWORD PTR ___pbegin$[esp-4]
  00007	8b 54 24 08	 mov	 edx, DWORD PTR ___pend$[esp-4]
  0000b	2b d1		 sub	 edx, ecx
  0000d	89 48 08	 mov	 DWORD PTR [eax+8], ecx
  00010	89 08		 mov	 DWORD PTR [eax], ecx
  00012	89 50 04	 mov	 DWORD PTR [eax+4], edx
  00015	c2 08 00	 ret	 8
?setp@?$basic_streambuf@DV?$char_traits@D@_STL@@@_STL@@IAEXPAD0@Z ENDP ; _STL::basic_streambuf<char,_STL::char_traits<char> >::setp
_TEXT	ENDS
PUBLIC	?pubsync@?$basic_streambuf@DV?$char_traits@D@_STL@@@_STL@@QAEHXZ ; _STL::basic_streambuf<char,_STL::char_traits<char> >::pubsync
; Function compile flags: /Ogty
;	COMDAT ?pubsync@?$basic_streambuf@DV?$char_traits@D@_STL@@@_STL@@QAEHXZ
_TEXT	SEGMENT
?pubsync@?$basic_streambuf@DV?$char_traits@D@_STL@@@_STL@@QAEHXZ PROC NEAR ; _STL::basic_streambuf<char,_STL::char_traits<char> >::pubsync, COMDAT
; _this$ = ecx

; 411  :   int pubsync() { return this->sync(); }

  00000	8b 01		 mov	 eax, DWORD PTR [ecx]
  00002	ff 60 10	 jmp	 DWORD PTR [eax+16]
?pubsync@?$basic_streambuf@DV?$char_traits@D@_STL@@@_STL@@QAEHXZ ENDP ; _STL::basic_streambuf<char,_STL::char_traits<char> >::pubsync
_TEXT	ENDS
PUBLIC	??_R1A@?0A@A@ITypePackBase@@8			; ITypePackBase::`RTTI Base Class Descriptor at (0,-1,0,0)'
PUBLIC	??_R0?AVITypePackBase@@@8			; ITypePackBase `RTTI Type Descriptor'
PUBLIC	??_R4ITypePackBase@@6B@				; ITypePackBase::`RTTI Complete Object Locator'
PUBLIC	??_R3ITypePackBase@@8				; ITypePackBase::`RTTI Class Hierarchy Descriptor'
PUBLIC	??_R2ITypePackBase@@8				; ITypePackBase::`RTTI Base Class Array'
PUBLIC	??0ITypePackBase@@QAE@XZ			; ITypePackBase::ITypePackBase
PUBLIC	??_7ITypePackBase@@6B@				; ITypePackBase::`vftable'
PUBLIC	??_GITypePackBase@@UAEPAXI@Z			; ITypePackBase::`scalar deleting destructor'
EXTRN	__purecall:NEAR
EXTRN	??_EITypePackBase@@UAEPAXI@Z:NEAR		; ITypePackBase::`vector deleting destructor'
;	COMDAT ??_7ITypePackBase@@6B@
; File c:\darkeden\designed_common\project\client\spritelib\ctypepack.h
CONST	SEGMENT
??_7ITypePackBase@@6B@ DD FLAT:??_R4ITypePackBase@@6B@	; ITypePackBase::`vftable'
	DD	FLAT:??_EITypePackBase@@UAEPAXI@Z
	DD	FLAT:__purecall
	DD	FLAT:__purecall
	DD	FLAT:__purecall
	DD	FLAT:__purecall
	DD	FLAT:__purecall
	DD	FLAT:__purecall
	DD	FLAT:__purecall
	DD	FLAT:__purecall
	DD	FLAT:__purecall
	DD	FLAT:__purecall
	DD	FLAT:__purecall
	DD	FLAT:__purecall
	DD	FLAT:__purecall
CONST	ENDS
;	COMDAT ??_R4ITypePackBase@@6B@
rdata$r	SEGMENT
??_R4ITypePackBase@@6B@ DD 00H				; ITypePackBase::`RTTI Complete Object Locator'
	DD	00H
	DD	00H
	DD	FLAT:??_R0?AVITypePackBase@@@8
	DD	FLAT:??_R3ITypePackBase@@8
rdata$r	ENDS
;	COMDAT ??_R0?AVITypePackBase@@@8
_DATA	SEGMENT
??_R0?AVITypePackBase@@@8 DD FLAT:??_7type_info@@6B@	; ITypePackBase `RTTI Type Descriptor'
	DD	00H
	DB	'.?AVITypePackBase@@', 00H
_DATA	ENDS
;	COMDAT ??_R3ITypePackBase@@8
rdata$r	SEGMENT
??_R3ITypePackBase@@8 DD 00H				; ITypePackBase::`RTTI Class Hierarchy Descriptor'
	DD	00H
	DD	01H
	DD	FLAT:??_R2ITypePackBase@@8
rdata$r	ENDS
;	COMDAT ??_R2ITypePackBase@@8
rdata$r	SEGMENT
??_R2ITypePackBase@@8 DD FLAT:??_R1A@?0A@A@ITypePackBase@@8 ; ITypePackBase::`RTTI Base Class Array'
rdata$r	ENDS
;	COMDAT ??_R1A@?0A@A@ITypePackBase@@8
rdata$r	SEGMENT
??_R1A@?0A@A@ITypePackBase@@8 DD FLAT:??_R0?AVITypePackBase@@@8 ; ITypePackBase::`RTTI Base Class Descriptor at (0,-1,0,0)'
	DD	00H
	DD	00H
	DD	0ffffffffH
	DD	00H
	DD	00H
; Function compile flags: /Ogty
rdata$r	ENDS
;	COMDAT ??0ITypePackBase@@QAE@XZ
_TEXT	SEGMENT
??0ITypePackBase@@QAE@XZ PROC NEAR			; ITypePackBase::ITypePackBase, COMDAT
; _this$ = ecx

; 16   : 	ITypePackBase() {}

  00000	8b c1		 mov	 eax, ecx
  00002	c7 00 00 00 00
	00		 mov	 DWORD PTR [eax], OFFSET FLAT:??_7ITypePackBase@@6B@
  00008	c3		 ret	 0
??0ITypePackBase@@QAE@XZ ENDP				; ITypePackBase::ITypePackBase
_TEXT	ENDS
PUBLIC	??1ITypePackBase@@UAE@XZ			; ITypePackBase::~ITypePackBase
; Function compile flags: /Ogty
;	COMDAT ??1ITypePackBase@@UAE@XZ
_TEXT	SEGMENT
??1ITypePackBase@@UAE@XZ PROC NEAR			; ITypePackBase::~ITypePackBase, COMDAT
; _this$ = ecx

; 17   : 	virtual ~ITypePackBase() {}

  00000	c7 01 00 00 00
	00		 mov	 DWORD PTR [ecx], OFFSET FLAT:??_7ITypePackBase@@6B@
  00006	c3		 ret	 0
??1ITypePackBase@@UAE@XZ ENDP				; ITypePackBase::~ITypePackBase
; Function compile flags: /Ogty
_TEXT	ENDS
;	COMDAT ??_GITypePackBase@@UAEPAXI@Z
_TEXT	SEGMENT
___flags$ = 8						; size = 4
??_GITypePackBase@@UAEPAXI@Z PROC NEAR			; ITypePackBase::`scalar deleting destructor', COMDAT
; _this$ = ecx
  00000	f6 44 24 04 01	 test	 BYTE PTR ___flags$[esp-4], 1
  00005	56		 push	 esi
  00006	8b f1		 mov	 esi, ecx
  00008	c7 06 00 00 00
	00		 mov	 DWORD PTR [esi], OFFSET FLAT:??_7ITypePackBase@@6B@
  0000e	74 09		 je	 SHORT $L93133
  00010	56		 push	 esi
  00011	e8 00 00 00 00	 call	 ??3@YAXPAX@Z		; operator delete
  00016	83 c4 04	 add	 esp, 4
$L93133:
  00019	8b c6		 mov	 eax, esi
  0001b	5e		 pop	 esi
  0001c	c2 04 00	 ret	 4
??_GITypePackBase@@UAEPAXI@Z ENDP			; ITypePackBase::`scalar deleting destructor'
_TEXT	ENDS
PUBLIC	?sputn@?$basic_streambuf@DV?$char_traits@D@_STL@@@_STL@@QAEHPBDH@Z ; _STL::basic_streambuf<char,_STL::char_traits<char> >::sputn
; Function compile flags: /Ogty
; File c:\stlport-4.6.1\stlport\stl\_streambuf.h
;	COMDAT ?sputn@?$basic_streambuf@DV?$char_traits@D@_STL@@@_STL@@QAEHPBDH@Z
_TEXT	SEGMENT
___s$ = 8						; size = 4
___n$ = 12						; size = 4
?sputn@?$basic_streambuf@DV?$char_traits@D@_STL@@@_STL@@QAEHPBDH@Z PROC NEAR ; _STL::basic_streambuf<char,_STL::char_traits<char> >::sputn, COMDAT
; _this$ = ecx

; 441  :     { return this->xsputn(__s, __n); }

  00000	8b 01		 mov	 eax, DWORD PTR [ecx]
  00002	ff 60 28	 jmp	 DWORD PTR [eax+40]
?sputn@?$basic_streambuf@DV?$char_traits@D@_STL@@@_STL@@QAEHPBDH@Z ENDP ; _STL::basic_streambuf<char,_STL::char_traits<char> >::sputn
_TEXT	ENDS
EXTRN	??1?$basic_streambuf@DV?$char_traits@D@_STL@@@_STL@@UAE@XZ:NEAR ; _STL::basic_streambuf<char,_STL::char_traits<char> >::~basic_streambuf<char,_STL::char_traits<char> >
; Function compile flags: /Ogty
;	COMDAT ??_G?$basic_streambuf@DV?$char_traits@D@_STL@@@_STL@@UAEPAXI@Z
_TEXT	SEGMENT
___flags$ = 8						; size = 4
??_G?$basic_streambuf@DV?$char_traits@D@_STL@@@_STL@@UAEPAXI@Z PROC NEAR ; _STL::basic_streambuf<char,_STL::char_traits<char> >::`scalar deleting destructor', COMDAT
; _this$ = ecx
  00000	56		 push	 esi
  00001	8b f1		 mov	 esi, ecx
  00003	e8 00 00 00 00	 call	 ??1?$basic_streambuf@DV?$char_traits@D@_STL@@@_STL@@UAE@XZ ; _STL::basic_streambuf<char,_STL::char_traits<char> >::~basic_streambuf<char,_STL::char_traits<char> >
  00008	f6 44 24 08 01	 test	 BYTE PTR ___flags$[esp], 1
  0000d	74 09		 je	 SHORT $L93141
  0000f	56		 push	 esi
  00010	e8 00 00 00 00	 call	 ??3@YAXPAX@Z		; operator delete
  00015	83 c4 04	 add	 esp, 4
$L93141:
  00018	8b c6		 mov	 eax, esi
  0001a	5e		 pop	 esi
  0001b	c2 04 00	 ret	 4
??_G?$basic_streambuf@DV?$char_traits@D@_STL@@@_STL@@UAEPAXI@Z ENDP ; _STL::basic_streambuf<char,_STL::char_traits<char> >::`scalar deleting destructor'
_TEXT	ENDS
PUBLIC	?GetWidth@CSprite@@QBEGXZ			; CSprite::GetWidth
; Function compile flags: /Ogty
; File c:\darkeden\designed_common\project\client\spritelib\csprite.h
;	COMDAT ?GetWidth@CSprite@@QBEGXZ
_TEXT	SEGMENT
?GetWidth@CSprite@@QBEGXZ PROC NEAR			; CSprite::GetWidth, COMDAT
; _this$ = ecx

; 91   : 		WORD		GetWidth()		const			{ return m_Width; }

  00000	66 8b 41 04	 mov	 ax, WORD PTR [ecx+4]
  00004	c3		 ret	 0
?GetWidth@CSprite@@QBEGXZ ENDP				; CSprite::GetWidth
_TEXT	ENDS
PUBLIC	?GetHeight@CSprite@@QBEGXZ			; CSprite::GetHeight
; Function compile flags: /Ogty
;	COMDAT ?GetHeight@CSprite@@QBEGXZ
_TEXT	SEGMENT
?GetHeight@CSprite@@QBEGXZ PROC NEAR			; CSprite::GetHeight, COMDAT
; _this$ = ecx

; 92   : 		WORD		GetHeight()		const			{ return m_Height; }

  00000	66 8b 41 06	 mov	 ax, WORD PTR [ecx+6]
  00004	c3		 ret	 0
?GetHeight@CSprite@@QBEGXZ ENDP				; CSprite::GetHeight
_TEXT	ENDS
PUBLIC	?unshift@?$codecvt@DDH@_STL@@QBE?AW4result@codecvt_base@2@AAHPAD1AAPAD@Z ; _STL::codecvt<char,char,int>::unshift
; Function compile flags: /Ogty
; File c:\stlport-4.6.1\stlport\stl\_codecvt.h
;	COMDAT ?unshift@?$codecvt@DDH@_STL@@QBE?AW4result@codecvt_base@2@AAHPAD1AAPAD@Z
_TEXT	SEGMENT
___state$ = 8						; size = 4
___to$ = 12						; size = 4
___to_limit$ = 16					; size = 4
___to_next$ = 20					; size = 4
?unshift@?$codecvt@DDH@_STL@@QBE?AW4result@codecvt_base@2@AAHPAD1AAPAD@Z PROC NEAR ; _STL::codecvt<char,char,int>::unshift, COMDAT
; _this$ = ecx

; 76   :     { return do_unshift(__state, __to, __to_limit, __to_next); }

  00000	8b 01		 mov	 eax, DWORD PTR [ecx]
  00002	ff 60 0c	 jmp	 DWORD PTR [eax+12]
?unshift@?$codecvt@DDH@_STL@@QBE?AW4result@codecvt_base@2@AAHPAD1AAPAD@Z ENDP ; _STL::codecvt<char,char,int>::unshift
_TEXT	ENDS
PUBLIC	?encoding@?$codecvt@DDH@_STL@@QBEHXZ		; _STL::codecvt<char,char,int>::encoding
; Function compile flags: /Ogty
;	COMDAT ?encoding@?$codecvt@DDH@_STL@@QBEHXZ
_TEXT	SEGMENT
?encoding@?$codecvt@DDH@_STL@@QBEHXZ PROC NEAR		; _STL::codecvt<char,char,int>::encoding, COMDAT
; _this$ = ecx

; 90   :   int encoding() const _STLP_NOTHROW { return do_encoding(); }

  00000	8b 01		 mov	 eax, DWORD PTR [ecx]
  00002	ff 60 10	 jmp	 DWORD PTR [eax+16]
?encoding@?$codecvt@DDH@_STL@@QBEHXZ ENDP		; _STL::codecvt<char,char,int>::encoding
_TEXT	ENDS
PUBLIC	?always_noconv@?$codecvt@DDH@_STL@@QBE_NXZ	; _STL::codecvt<char,char,int>::always_noconv
; Function compile flags: /Ogty
;	COMDAT ?always_noconv@?$codecvt@DDH@_STL@@QBE_NXZ
_TEXT	SEGMENT
?always_noconv@?$codecvt@DDH@_STL@@QBE_NXZ PROC NEAR	; _STL::codecvt<char,char,int>::always_noconv, COMDAT
; _this$ = ecx

; 92   :   bool always_noconv() const _STLP_NOTHROW { return do_always_noconv(); }

  00000	8b 01		 mov	 eax, DWORD PTR [ecx]
  00002	ff 60 14	 jmp	 DWORD PTR [eax+20]
?always_noconv@?$codecvt@DDH@_STL@@QBE_NXZ ENDP		; _STL::codecvt<char,char,int>::always_noconv
_TEXT	ENDS
PUBLIC	?max_length@?$codecvt@DDH@_STL@@QBEHXZ		; _STL::codecvt<char,char,int>::max_length
; Function compile flags: /Ogty
;	COMDAT ?max_length@?$codecvt@DDH@_STL@@QBEHXZ
_TEXT	SEGMENT
?max_length@?$codecvt@DDH@_STL@@QBEHXZ PROC NEAR	; _STL::codecvt<char,char,int>::max_length, COMDAT
; _this$ = ecx

; 99   :   int max_length() const _STLP_NOTHROW { return do_max_length(); }

  00000	8b 01		 mov	 eax, DWORD PTR [ecx]
  00002	ff 60 1c	 jmp	 DWORD PTR [eax+28]
?max_length@?$codecvt@DDH@_STL@@QBEHXZ ENDP		; _STL::codecvt<char,char,int>::max_length
_TEXT	ENDS
PUBLIC	??0CFrame@@QAE@GFF@Z				; CFrame::CFrame
EXTRN	?Set@CFrame@@QAEXGFF@Z:NEAR			; CFrame::Set
; Function compile flags: /Ogty
; File c:\darkeden\designed_common\project\client\framelib\cframe.h
;	COMDAT ??0CFrame@@QAE@GFF@Z
_TEXT	SEGMENT
_spriteID$ = 8						; size = 2
_cx$ = 12						; size = 2
_cy$ = 16						; size = 2
??0CFrame@@QAE@GFF@Z PROC NEAR				; CFrame::CFrame, COMDAT
; _this$ = ecx

; 40   : 		{
; 41   : 			Set(spriteID, cx, cy);

  00000	8b 44 24 0c	 mov	 eax, DWORD PTR _cy$[esp-4]
  00004	8b 54 24 04	 mov	 edx, DWORD PTR _spriteID$[esp-4]
  00008	56		 push	 esi
  00009	8b f1		 mov	 esi, ecx
  0000b	8b 4c 24 0c	 mov	 ecx, DWORD PTR _cx$[esp]
  0000f	50		 push	 eax
  00010	51		 push	 ecx
  00011	52		 push	 edx
  00012	8b ce		 mov	 ecx, esi
  00014	e8 00 00 00 00	 call	 ?Set@CFrame@@QAEXGFF@Z	; CFrame::Set

; 42   : 		}

  00019	8b c6		 mov	 eax, esi
  0001b	5e		 pop	 esi
  0001c	c2 0c 00	 ret	 12			; 0000000cH
??0CFrame@@QAE@GFF@Z ENDP				; CFrame::CFrame
_TEXT	ENDS
PUBLIC	?GetCX@CFrame@@QBEFXZ				; CFrame::GetCX
; Function compile flags: /Ogty
;	COMDAT ?GetCX@CFrame@@QBEFXZ
_TEXT	SEGMENT
?GetCX@CFrame@@QBEFXZ PROC NEAR				; CFrame::GetCX, COMDAT
; _this$ = ecx

; 61   : 		short	GetCX()		const		{ return m_cX; }

  00000	66 8b 41 02	 mov	 ax, WORD PTR [ecx+2]
  00004	c3		 ret	 0
?GetCX@CFrame@@QBEFXZ ENDP				; CFrame::GetCX
_TEXT	ENDS
PUBLIC	?GetCY@CFrame@@QBEFXZ				; CFrame::GetCY
; Function compile flags: /Ogty
;	COMDAT ?GetCY@CFrame@@QBEFXZ
_TEXT	SEGMENT
?GetCY@CFrame@@QBEFXZ PROC NEAR				; CFrame::GetCY, COMDAT
; _this$ = ecx

; 62   : 		short	GetCY()		const		{ return m_cY; }

  00000	66 8b 41 04	 mov	 ax, WORD PTR [ecx+4]
  00004	c3		 ret	 0
?GetCY@CFrame@@QBEFXZ ENDP				; CFrame::GetCY
_TEXT	ENDS
PUBLIC	?__is_open@_Filebuf_base@_STL@@QBE_NXZ		; _STL::_Filebuf_base::__is_open
; Function compile flags: /Ogty
; File c:\stlport-4.6.1\stlport\stl\_fstream.h
;	COMDAT ?__is_open@_Filebuf_base@_STL@@QBE_NXZ
_TEXT	SEGMENT
?__is_open@_Filebuf_base@_STL@@QBE_NXZ PROC NEAR	; _STL::_Filebuf_base::__is_open, COMDAT
; _this$ = ecx

; 150  :   bool __is_open()      const { return (_M_is_open !=0 ); } 

  00000	8a 51 0c	 mov	 dl, BYTE PTR [ecx+12]
  00003	33 c0		 xor	 eax, eax
  00005	84 d2		 test	 dl, dl
  00007	0f 95 c0	 setne	 al
  0000a	c3		 ret	 0
?__is_open@_Filebuf_base@_STL@@QBE_NXZ ENDP		; _STL::_Filebuf_base::__is_open
_TEXT	ENDS
PUBLIC	?GetRX@C_SPRITE_FRAME@@QBEHXZ			; C_SPRITE_FRAME::GetRX
; Function compile flags: /Ogty
; File c:\darkeden\designed_common\project\new - vs_ui\src\header\vs_ui_util.h
;	COMDAT ?GetRX@C_SPRITE_FRAME@@QBEHXZ
_TEXT	SEGMENT
?GetRX@C_SPRITE_FRAME@@QBEHXZ PROC NEAR			; C_SPRITE_FRAME::GetRX, COMDAT
; _this$ = ecx

; 251  : 	int	GetRX() const { return m_rx; }

  00000	8b 01		 mov	 eax, DWORD PTR [ecx]
  00002	c3		 ret	 0
?GetRX@C_SPRITE_FRAME@@QBEHXZ ENDP			; C_SPRITE_FRAME::GetRX
_TEXT	ENDS
PUBLIC	?GetRY@C_SPRITE_FRAME@@QBEHXZ			; C_SPRITE_FRAME::GetRY
; Function compile flags: /Ogty
;	COMDAT ?GetRY@C_SPRITE_FRAME@@QBEHXZ
_TEXT	SEGMENT
?GetRY@C_SPRITE_FRAME@@QBEHXZ PROC NEAR			; C_SPRITE_FRAME::GetRY, COMDAT
; _this$ = ecx

; 252  : 	int	GetRY() const { return m_ry; }

  00000	8b 41 04	 mov	 eax, DWORD PTR [ecx+4]
  00003	c3		 ret	 0
?GetRY@C_SPRITE_FRAME@@QBEHXZ ENDP			; C_SPRITE_FRAME::GetRY
_TEXT	ENDS
PUBLIC	?GetAnimationState@C_ANIMATION@@QBE?AW4PLAY_ORDER@1@XZ ; C_ANIMATION::GetAnimationState
; Function compile flags: /Ogty
; File c:\darkeden\designed_common\project\new - vs_ui\src\vs_ui_util.cpp
;	COMDAT ?GetAnimationState@C_ANIMATION@@QBE?AW4PLAY_ORDER@1@XZ
_TEXT	SEGMENT
?GetAnimationState@C_ANIMATION@@QBE?AW4PLAY_ORDER@1@XZ PROC NEAR ; C_ANIMATION::GetAnimationState, COMDAT
; _this$ = ecx

; 361  : 	return m_play_order;

  00000	8b 41 1c	 mov	 eax, DWORD PTR [ecx+28]

; 362  : }

  00003	c3		 ret	 0
?GetAnimationState@C_ANIMATION@@QBE?AW4PLAY_ORDER@1@XZ ENDP ; C_ANIMATION::GetAnimationState
_TEXT	ENDS
PUBLIC	??_C@_0EB@GFEIDDHE@?2darkeden?2Designed_Common?2Projec@ ; `string'
PUBLIC	??0C_ANIMATION@@QAE@PAVC_ANI_OBJECT@@@Z		; C_ANIMATION::C_ANIMATION
EXTRN	?g_BasicException@@YAXW4EXCEPTION_CODE@@PAD1K@Z:NEAR ; g_BasicException
;	COMDAT ??_C@_0EB@GFEIDDHE@?2darkeden?2Designed_Common?2Projec@
CONST	SEGMENT
??_C@_0EB@GFEIDDHE@?2darkeden?2Designed_Common?2Projec@ DB '\darkeden\Des'
	DB	'igned_Common\Project\New - vs_ui\src\VS_UI_util.cpp', 00H ; `string'
; Function compile flags: /Ogty
CONST	ENDS
;	COMDAT ??0C_ANIMATION@@QAE@PAVC_ANI_OBJECT@@@Z
_TEXT	SEGMENT
_p_object$ = 8						; size = 4
??0C_ANIMATION@@QAE@PAVC_ANI_OBJECT@@@Z PROC NEAR	; C_ANIMATION::C_ANIMATION, COMDAT
; _this$ = ecx

; 370  : 	m_pC_ani_object = p_object;

  00000	8b 44 24 04	 mov	 eax, DWORD PTR _p_object$[esp-4]
  00004	56		 push	 esi
  00005	57		 push	 edi

; 371  : 	if (!m_pC_ani_object)

  00006	33 ff		 xor	 edi, edi
  00008	3b c7		 cmp	 eax, edi
  0000a	8b f1		 mov	 esi, ecx
  0000c	89 06		 mov	 DWORD PTR [esi], eax
  0000e	75 15		 jne	 SHORT $L89225

; 372  : 		_Error(NULL_REF);

  00010	68 74 01 00 00	 push	 372			; 00000174H
  00015	68 00 00 00 00	 push	 OFFSET FLAT:??_C@_0EB@GFEIDDHE@?2darkeden?2Designed_Common?2Projec@
  0001a	57		 push	 edi
  0001b	6a 05		 push	 5
  0001d	e8 00 00 00 00	 call	 ?g_BasicException@@YAXW4EXCEPTION_CODE@@PAD1K@Z ; g_BasicException
  00022	83 c4 10	 add	 esp, 16			; 00000010H
$L89225:

; 373  : 
; 374  : 	m_play_order_next = STOP;

  00025	89 7e 20	 mov	 DWORD PTR [esi+32], edi

; 375  : 	m_play_order = STOP;

  00028	89 7e 1c	 mov	 DWORD PTR [esi+28], edi

; 376  : 	m_current_frame = 0;

  0002b	89 7e 0c	 mov	 DWORD PTR [esi+12], edi

; 377  : 	m_dw_millisec = 100;
; 378  : 	m_x = 0;

  0002e	89 7e 10	 mov	 DWORD PTR [esi+16], edi

; 379  : 	m_y = 0;

  00031	89 7e 14	 mov	 DWORD PTR [esi+20], edi
  00034	5f		 pop	 edi
  00035	c7 46 08 64 00
	00 00		 mov	 DWORD PTR [esi+8], 100	; 00000064H

; 380  : }

  0003c	8b c6		 mov	 eax, esi
  0003e	5e		 pop	 esi
  0003f	c2 04 00	 ret	 4
??0C_ANIMATION@@QAE@PAVC_ANI_OBJECT@@@Z ENDP		; C_ANIMATION::C_ANIMATION
_TEXT	ENDS
PUBLIC	??1C_ANIMATION@@QAE@XZ				; C_ANIMATION::~C_ANIMATION
; Function compile flags: /Ogty
;	COMDAT ??1C_ANIMATION@@QAE@XZ
_TEXT	SEGMENT
??1C_ANIMATION@@QAE@XZ PROC NEAR			; C_ANIMATION::~C_ANIMATION, COMDAT
; _this$ = ecx

; 388  : 
; 389  : }

  00000	c3		 ret	 0
??1C_ANIMATION@@QAE@XZ ENDP				; C_ANIMATION::~C_ANIMATION
_TEXT	ENDS
PUBLIC	?SetSpeed@C_ANIMATION@@QAEXK@Z			; C_ANIMATION::SetSpeed
; Function compile flags: /Ogty
;	COMDAT ?SetSpeed@C_ANIMATION@@QAEXK@Z
_TEXT	SEGMENT
_millisec$ = 8						; size = 4
?SetSpeed@C_ANIMATION@@QAEXK@Z PROC NEAR		; C_ANIMATION::SetSpeed, COMDAT
; _this$ = ecx

; 427  : 	m_dw_millisec = millisec;

  00000	8b 44 24 04	 mov	 eax, DWORD PTR _millisec$[esp-4]
  00004	89 41 08	 mov	 DWORD PTR [ecx+8], eax

; 428  : }

  00007	c2 04 00	 ret	 4
?SetSpeed@C_ANIMATION@@QAEXK@Z ENDP			; C_ANIMATION::SetSpeed
_TEXT	ENDS
PUBLIC	?SetPlayPosition@C_ANIMATION@@QAEXHH@Z		; C_ANIMATION::SetPlayPosition
; Function compile flags: /Ogty
;	COMDAT ?SetPlayPosition@C_ANIMATION@@QAEXHH@Z
_TEXT	SEGMENT
_x$ = 8							; size = 4
_y$ = 12						; size = 4
?SetPlayPosition@C_ANIMATION@@QAEXHH@Z PROC NEAR	; C_ANIMATION::SetPlayPosition, COMDAT
; _this$ = ecx

; 436  : 	m_x = x;

  00000	8b 44 24 04	 mov	 eax, DWORD PTR _x$[esp-4]

; 437  : 	m_y = y;

  00004	8b 54 24 08	 mov	 edx, DWORD PTR _y$[esp-4]
  00008	89 41 10	 mov	 DWORD PTR [ecx+16], eax
  0000b	89 51 14	 mov	 DWORD PTR [ecx+20], edx

; 438  : }

  0000e	c2 08 00	 ret	 8
?SetPlayPosition@C_ANIMATION@@QAEXHH@Z ENDP		; C_ANIMATION::SetPlayPosition
_TEXT	ENDS
PUBLIC	?PlayLoop@C_ANIMATION@@QAEXXZ			; C_ANIMATION::PlayLoop
EXTRN	__imp__GetTickCount@0:NEAR
; Function compile flags: /Ogty
;	COMDAT ?PlayLoop@C_ANIMATION@@QAEXXZ
_TEXT	SEGMENT
?PlayLoop@C_ANIMATION@@QAEXXZ PROC NEAR			; C_ANIMATION::PlayLoop, COMDAT
; _this$ = ecx

; 445  : {

  00000	56		 push	 esi
  00001	8b f1		 mov	 esi, ecx

; 446  : 	// refresh timer
; 447  : 	m_dw_prev_tickcount = GetTickCount();

  00003	ff 15 00 00 00
	00		 call	 DWORD PTR __imp__GetTickCount@0
  00009	89 46 04	 mov	 DWORD PTR [esi+4], eax

; 448  : 
; 449  : 	m_play_order = PLAY_LOOP;

  0000c	c7 46 1c 02 00
	00 00		 mov	 DWORD PTR [esi+28], 2

; 450  : 	m_current_frame = 0;

  00013	c7 46 0c 00 00
	00 00		 mov	 DWORD PTR [esi+12], 0
  0001a	5e		 pop	 esi

; 451  : }

  0001b	c3		 ret	 0
?PlayLoop@C_ANIMATION@@QAEXXZ ENDP			; C_ANIMATION::PlayLoop
_TEXT	ENDS
PUBLIC	?PlayLoopBack@C_ANIMATION@@QAEXXZ		; C_ANIMATION::PlayLoopBack
; Function compile flags: /Ogty
;	COMDAT ?PlayLoopBack@C_ANIMATION@@QAEXXZ
_TEXT	SEGMENT
?PlayLoopBack@C_ANIMATION@@QAEXXZ PROC NEAR		; C_ANIMATION::PlayLoopBack, COMDAT
; _this$ = ecx

; 459  : {

  00000	56		 push	 esi
  00001	8b f1		 mov	 esi, ecx

; 460  : 	// refresh timer
; 461  : 	m_dw_prev_tickcount = GetTickCount();

  00003	ff 15 00 00 00
	00		 call	 DWORD PTR __imp__GetTickCount@0
  00009	89 46 04	 mov	 DWORD PTR [esi+4], eax

; 462  : 
; 463  : 	m_play_order = PLAY_LOOPBACK;
; 464  : 	m_current_frame = 0;

  0000c	33 c0		 xor	 eax, eax
  0000e	c7 46 1c 05 00
	00 00		 mov	 DWORD PTR [esi+28], 5
  00015	89 46 0c	 mov	 DWORD PTR [esi+12], eax

; 465  : 	m_bl_reverse = false;

  00018	88 46 18	 mov	 BYTE PTR [esi+24], al
  0001b	5e		 pop	 esi

; 466  : }

  0001c	c3		 ret	 0
?PlayLoopBack@C_ANIMATION@@QAEXXZ ENDP			; C_ANIMATION::PlayLoopBack
_TEXT	ENDS
PUBLIC	?Play@C_ANIMATION@@QAEXXZ			; C_ANIMATION::Play
; Function compile flags: /Ogty
;	COMDAT ?Play@C_ANIMATION@@QAEXXZ
_TEXT	SEGMENT
?Play@C_ANIMATION@@QAEXXZ PROC NEAR			; C_ANIMATION::Play, COMDAT
; _this$ = ecx

; 473  : {

  00000	56		 push	 esi
  00001	8b f1		 mov	 esi, ecx

; 474  : 	// refresh timer
; 475  : 	m_dw_prev_tickcount = GetTickCount();

  00003	ff 15 00 00 00
	00		 call	 DWORD PTR __imp__GetTickCount@0
  00009	89 46 04	 mov	 DWORD PTR [esi+4], eax

; 476  : 	
; 477  : 	m_current_frame = 0;

  0000c	c7 46 0c 00 00
	00 00		 mov	 DWORD PTR [esi+12], 0

; 478  : 	m_play_order = PLAY;

  00013	c7 46 1c 01 00
	00 00		 mov	 DWORD PTR [esi+28], 1
  0001a	5e		 pop	 esi

; 479  : }

  0001b	c3		 ret	 0
?Play@C_ANIMATION@@QAEXXZ ENDP				; C_ANIMATION::Play
_TEXT	ENDS
PUBLIC	?Stop@C_ANIMATION@@QAEXXZ			; C_ANIMATION::Stop
; Function compile flags: /Ogty
;	COMDAT ?Stop@C_ANIMATION@@QAEXXZ
_TEXT	SEGMENT
?Stop@C_ANIMATION@@QAEXXZ PROC NEAR			; C_ANIMATION::Stop, COMDAT
; _this$ = ecx

; 487  : {

  00000	56		 push	 esi
  00001	8b f1		 mov	 esi, ecx

; 488  : 	// refresh timer
; 489  : 	m_dw_prev_tickcount = GetTickCount();

  00003	ff 15 00 00 00
	00		 call	 DWORD PTR __imp__GetTickCount@0
  00009	89 46 04	 mov	 DWORD PTR [esi+4], eax

; 490  : 
; 491  : 	m_play_order = STOP;

  0000c	c7 46 1c 00 00
	00 00		 mov	 DWORD PTR [esi+28], 0
  00013	5e		 pop	 esi

; 492  : }

  00014	c3		 ret	 0
?Stop@C_ANIMATION@@QAEXXZ ENDP				; C_ANIMATION::Stop
_TEXT	ENDS
PUBLIC	?SetNextPlayOrder@C_ANIMATION@@QAEXW4PLAY_ORDER@1@@Z ; C_ANIMATION::SetNextPlayOrder
; Function compile flags: /Ogty
;	COMDAT ?SetNextPlayOrder@C_ANIMATION@@QAEXW4PLAY_ORDER@1@@Z
_TEXT	SEGMENT
_order$ = 8						; size = 4
?SetNextPlayOrder@C_ANIMATION@@QAEXW4PLAY_ORDER@1@@Z PROC NEAR ; C_ANIMATION::SetNextPlayOrder, COMDAT
; _this$ = ecx

; 501  : 	m_play_order_next = order;

  00000	8b 44 24 04	 mov	 eax, DWORD PTR _order$[esp-4]
  00004	89 41 20	 mov	 DWORD PTR [ecx+32], eax

; 502  : }

  00007	c2 04 00	 ret	 4
?SetNextPlayOrder@C_ANIMATION@@QAEXW4PLAY_ORDER@1@@Z ENDP ; C_ANIMATION::SetNextPlayOrder
_TEXT	ENDS
PUBLIC	?GetNextPlayOrder@C_ANIMATION@@QBE?AW4PLAY_ORDER@1@XZ ; C_ANIMATION::GetNextPlayOrder
; Function compile flags: /Ogty
;	COMDAT ?GetNextPlayOrder@C_ANIMATION@@QBE?AW4PLAY_ORDER@1@XZ
_TEXT	SEGMENT
?GetNextPlayOrder@C_ANIMATION@@QBE?AW4PLAY_ORDER@1@XZ PROC NEAR ; C_ANIMATION::GetNextPlayOrder, COMDAT
; _this$ = ecx

; 511  : 	return m_play_order_next;

  00000	8b 41 20	 mov	 eax, DWORD PTR [ecx+32]

; 512  : }

  00003	c3		 ret	 0
?GetNextPlayOrder@C_ANIMATION@@QBE?AW4PLAY_ORDER@1@XZ ENDP ; C_ANIMATION::GetNextPlayOrder
_TEXT	ENDS
PUBLIC	?Refresh@C_ANIMATION@@QAEXXZ			; C_ANIMATION::Refresh
; Function compile flags: /Ogty
;	COMDAT ?Refresh@C_ANIMATION@@QAEXXZ
_TEXT	SEGMENT
?Refresh@C_ANIMATION@@QAEXXZ PROC NEAR			; C_ANIMATION::Refresh, COMDAT
; _this$ = ecx

; 521  : 	m_play_order = STOP;

  00000	33 c0		 xor	 eax, eax
  00002	89 41 1c	 mov	 DWORD PTR [ecx+28], eax

; 522  : 	m_play_order_next = STOP;

  00005	89 41 20	 mov	 DWORD PTR [ecx+32], eax

; 523  : 	m_current_frame = 0;

  00008	89 41 0c	 mov	 DWORD PTR [ecx+12], eax

; 524  : }

  0000b	c3		 ret	 0
?Refresh@C_ANIMATION@@QAEXXZ ENDP			; C_ANIMATION::Refresh
_TEXT	ENDS
PUBLIC	?Open@C_SPRITE_PACK@@QAEXPBD@Z			; C_SPRITE_PACK::Open
; Function compile flags: /Ogty
;	COMDAT ?Open@C_SPRITE_PACK@@QAEXPBD@Z
_TEXT	SEGMENT
_sz_filename$ = 8					; size = 4
?Open@C_SPRITE_PACK@@QAEXPBD@Z PROC NEAR		; C_SPRITE_PACK::Open, COMDAT
; _this$ = ecx

; 642  : 	//assert(m_pC_spk_list);	// by sigi
; 643  : 
; 644  : //	if (!sz_filename)// || !m_pC_spk_list)		// by sigi
; 645  : //		_ErrorStr((char *)sz_filename);//(FAILED_JOB);
; 646  : 
; 647  : 	// by sigi
; 648  : 	//  load release.
; 649  : 	//if (m_pC_spk_list->GetSize() > 0)
; 650  : 	//	m_pC_spk_list->Release();
; 651  : 
; 652  : //	ifstream file(sz_filename, ios::binary | ios::nocreate);
; 653  : //	if (!file)
; 654  : //	{
; 655  : //		_ErrorStr((char *)sz_filename);
; 656  : //		//_Error(FILE_OPEN);
; 657  : //	}
; 658  : 
; 659  : 	//m_pC_spk_list->LoadFromFile(file);
; 660  : 	m_SPK.LoadFromFileRunning( sz_filename );

  00000	8b 01		 mov	 eax, DWORD PTR [ecx]
  00002	ff 60 18	 jmp	 DWORD PTR [eax+24]
?Open@C_SPRITE_PACK@@QAEXPBD@Z ENDP			; C_SPRITE_PACK::Open
_TEXT	ENDS
PUBLIC	?BltColor@C_SPRITE_PACK@@QAEXHHGH@Z		; C_SPRITE_PACK::BltColor
EXTRN	?gpC_base@@3PAVBase@@A:DWORD			; gpC_base
EXTRN	?BltSpriteColor@CSpriteSurface@@QAEXPAUtagPOINT@@PAVCSprite@@E@Z:NEAR ; CSpriteSurface::BltSpriteColor
EXTRN	?Lock@CDirectDrawSurface@@QAE_NXZ:NEAR		; CDirectDrawSurface::Lock
EXTRN	?Unlock@CDirectDrawSurface@@QAE_NXZ:NEAR	; CDirectDrawSurface::Unlock
; Function compile flags: /Ogty
;	COMDAT ?BltColor@C_SPRITE_PACK@@QAEXHHGH@Z
_TEXT	SEGMENT
_point$ = -8						; size = 8
_x$ = 8							; size = 4
_y$ = 12						; size = 4
_sprite_id$ = 16					; size = 2
_rgb$ = 20						; size = 4
?BltColor@C_SPRITE_PACK@@QAEXHHGH@Z PROC NEAR		; C_SPRITE_PACK::BltColor, COMDAT
; _this$ = ecx

; 698  : {

  00000	83 ec 08	 sub	 esp, 8

; 699  : 	//assert(sprite_id >= 0);
; 700  : 
; 701  : 	//CSprite *p_sprite = m_pC_spk_list->GetSprite(sprite_id);
; 702  : 
; 703  : 	//assert(p_sprite);
; 704  : 
; 705  : 	POINT point;
; 706  : 	point.x = x;

  00003	8b 44 24 0c	 mov	 eax, DWORD PTR _x$[esp+4]

; 707  : 	point.y = y;
; 708  : 
; 709  : 	assert(!gpC_base->m_p_DDSurface_back->IsLock());
; 710  : 	if (gpC_base->m_p_DDSurface_back->Lock())

  00007	8b 15 00 00 00
	00		 mov	 edx, DWORD PTR ?gpC_base@@3PAVBase@@A ; gpC_base
  0000d	56		 push	 esi
  0000e	8b f1		 mov	 esi, ecx
  00010	8b 4c 24 14	 mov	 ecx, DWORD PTR _y$[esp+8]
  00014	89 44 24 04	 mov	 DWORD PTR _point$[esp+12], eax
  00018	89 4c 24 08	 mov	 DWORD PTR _point$[esp+16], ecx
  0001c	8b 4a 04	 mov	 ecx, DWORD PTR [edx+4]
  0001f	e8 00 00 00 00	 call	 ?Lock@CDirectDrawSurface@@QAE_NXZ ; CDirectDrawSurface::Lock
  00024	84 c0		 test	 al, al
  00026	74 32		 je	 SHORT $L89333

; 711  : 	{
; 712  : 		gpC_base->m_p_DDSurface_back->BltSpriteColor(&point, &m_SPK[sprite_id], rgb);

  00028	8b 44 24 1c	 mov	 eax, DWORD PTR _rgb$[esp+8]
  0002c	8b 16		 mov	 edx, DWORD PTR [esi]
  0002e	50		 push	 eax
  0002f	8b 44 24 1c	 mov	 eax, DWORD PTR _sprite_id$[esp+12]
  00033	50		 push	 eax
  00034	8b ce		 mov	 ecx, esi
  00036	ff 52 38	 call	 DWORD PTR [edx+56]
  00039	8b 15 00 00 00
	00		 mov	 edx, DWORD PTR ?gpC_base@@3PAVBase@@A ; gpC_base
  0003f	50		 push	 eax
  00040	8d 4c 24 0c	 lea	 ecx, DWORD PTR _point$[esp+20]
  00044	51		 push	 ecx
  00045	8b 4a 04	 mov	 ecx, DWORD PTR [edx+4]
  00048	e8 00 00 00 00	 call	 ?BltSpriteColor@CSpriteSurface@@QAEXPAUtagPOINT@@PAVCSprite@@E@Z ; CSpriteSurface::BltSpriteColor

; 713  : 
; 714  : 		gpC_base->m_p_DDSurface_back->Unlock();

  0004d	a1 00 00 00 00	 mov	 eax, DWORD PTR ?gpC_base@@3PAVBase@@A ; gpC_base
  00052	8b 48 04	 mov	 ecx, DWORD PTR [eax+4]
  00055	e8 00 00 00 00	 call	 ?Unlock@CDirectDrawSurface@@QAE_NXZ ; CDirectDrawSurface::Unlock
$L89333:
  0005a	5e		 pop	 esi

; 715  : 	}
; 716  : }

  0005b	83 c4 08	 add	 esp, 8
  0005e	c2 10 00	 ret	 16			; 00000010H
?BltColor@C_SPRITE_PACK@@QAEXHHGH@Z ENDP		; C_SPRITE_PACK::BltColor
_TEXT	ENDS
PUBLIC	?BltColor@C_SPRITE_PACK@@QAEXAAUtagPOINT@@GH@Z	; C_SPRITE_PACK::BltColor
; Function compile flags: /Ogty
;	COMDAT ?BltColor@C_SPRITE_PACK@@QAEXAAUtagPOINT@@GH@Z
_TEXT	SEGMENT
_point$ = 8						; size = 4
_sprite_id$ = 12					; size = 2
_rgb$ = 16						; size = 4
?BltColor@C_SPRITE_PACK@@QAEXAAUtagPOINT@@GH@Z PROC NEAR ; C_SPRITE_PACK::BltColor, COMDAT
; _this$ = ecx

; 725  : 	//assert(sprite_id >= 0);
; 726  : 
; 727  : 	//CSprite *p_sprite = m_pC_spk_list->GetSprite(sprite_id);
; 728  : 
; 729  : 	//assert(p_sprite);
; 730  : 
; 731  : 	assert(!gpC_base->m_p_DDSurface_back->IsLock());
; 732  : 	if (gpC_base->m_p_DDSurface_back->Lock())

  00000	a1 00 00 00 00	 mov	 eax, DWORD PTR ?gpC_base@@3PAVBase@@A ; gpC_base
  00005	56		 push	 esi
  00006	8b f1		 mov	 esi, ecx
  00008	8b 48 04	 mov	 ecx, DWORD PTR [eax+4]
  0000b	e8 00 00 00 00	 call	 ?Lock@CDirectDrawSurface@@QAE_NXZ ; CDirectDrawSurface::Lock
  00010	84 c0		 test	 al, al
  00012	74 32		 je	 SHORT $L89341

; 733  : 	{
; 734  : 		gpC_base->m_p_DDSurface_back->BltSpriteColor(&point, &m_SPK[sprite_id], rgb);

  00014	8b 4c 24 10	 mov	 ecx, DWORD PTR _rgb$[esp]
  00018	8b 44 24 0c	 mov	 eax, DWORD PTR _sprite_id$[esp]
  0001c	8b 16		 mov	 edx, DWORD PTR [esi]
  0001e	51		 push	 ecx
  0001f	50		 push	 eax
  00020	8b ce		 mov	 ecx, esi
  00022	ff 52 38	 call	 DWORD PTR [edx+56]
  00025	8b 4c 24 0c	 mov	 ecx, DWORD PTR _point$[esp+4]
  00029	8b 15 00 00 00
	00		 mov	 edx, DWORD PTR ?gpC_base@@3PAVBase@@A ; gpC_base
  0002f	50		 push	 eax
  00030	51		 push	 ecx
  00031	8b 4a 04	 mov	 ecx, DWORD PTR [edx+4]
  00034	e8 00 00 00 00	 call	 ?BltSpriteColor@CSpriteSurface@@QAEXPAUtagPOINT@@PAVCSprite@@E@Z ; CSpriteSurface::BltSpriteColor

; 735  : 
; 736  : 		gpC_base->m_p_DDSurface_back->Unlock();

  00039	a1 00 00 00 00	 mov	 eax, DWORD PTR ?gpC_base@@3PAVBase@@A ; gpC_base
  0003e	8b 48 04	 mov	 ecx, DWORD PTR [eax+4]
  00041	e8 00 00 00 00	 call	 ?Unlock@CDirectDrawSurface@@QAE_NXZ ; CDirectDrawSurface::Unlock
$L89341:
  00046	5e		 pop	 esi

; 737  : 	}
; 738  : }

  00047	c2 0c 00	 ret	 12			; 0000000cH
?BltColor@C_SPRITE_PACK@@QAEXAAUtagPOINT@@GH@Z ENDP	; C_SPRITE_PACK::BltColor
_TEXT	ENDS
PUBLIC	?BltDarkness@C_SPRITE_PACK@@QAEXHHGH@Z		; C_SPRITE_PACK::BltDarkness
EXTRN	?BltSpriteDarkness@CSpriteSurface@@QAEXPAUtagPOINT@@PAVCSprite@@E@Z:NEAR ; CSpriteSurface::BltSpriteDarkness
; Function compile flags: /Ogty
;	COMDAT ?BltDarkness@C_SPRITE_PACK@@QAEXHHGH@Z
_TEXT	SEGMENT
_point$ = -8						; size = 8
_x$ = 8							; size = 4
_y$ = 12						; size = 4
_sprite_id$ = 16					; size = 2
_dark$ = 20						; size = 4
?BltDarkness@C_SPRITE_PACK@@QAEXHHGH@Z PROC NEAR	; C_SPRITE_PACK::BltDarkness, COMDAT
; _this$ = ecx

; 746  : {

  00000	83 ec 08	 sub	 esp, 8

; 747  : 	//assert(sprite_id >= 0);
; 748  : 
; 749  : 	//CSprite *p_sprite = m_pC_spk_list->GetSprite(sprite_id);
; 750  : 
; 751  : 	//assert(p_sprite);
; 752  : 
; 753  : 	POINT point;
; 754  : 	point.x = x;

  00003	8b 44 24 0c	 mov	 eax, DWORD PTR _x$[esp+4]

; 755  : 	point.y = y;
; 756  : 
; 757  : 	assert(!gpC_base->m_p_DDSurface_back->IsLock());
; 758  : 	if (gpC_base->m_p_DDSurface_back->Lock())

  00007	8b 15 00 00 00
	00		 mov	 edx, DWORD PTR ?gpC_base@@3PAVBase@@A ; gpC_base
  0000d	56		 push	 esi
  0000e	8b f1		 mov	 esi, ecx
  00010	8b 4c 24 14	 mov	 ecx, DWORD PTR _y$[esp+8]
  00014	89 44 24 04	 mov	 DWORD PTR _point$[esp+12], eax
  00018	89 4c 24 08	 mov	 DWORD PTR _point$[esp+16], ecx
  0001c	8b 4a 04	 mov	 ecx, DWORD PTR [edx+4]
  0001f	e8 00 00 00 00	 call	 ?Lock@CDirectDrawSurface@@QAE_NXZ ; CDirectDrawSurface::Lock
  00024	84 c0		 test	 al, al
  00026	74 32		 je	 SHORT $L89351

; 759  : 	{
; 760  : 		gpC_base->m_p_DDSurface_back->BltSpriteDarkness(&point, &m_SPK[sprite_id], dark);

  00028	8b 44 24 1c	 mov	 eax, DWORD PTR _dark$[esp+8]
  0002c	8b 16		 mov	 edx, DWORD PTR [esi]
  0002e	50		 push	 eax
  0002f	8b 44 24 1c	 mov	 eax, DWORD PTR _sprite_id$[esp+12]
  00033	50		 push	 eax
  00034	8b ce		 mov	 ecx, esi
  00036	ff 52 38	 call	 DWORD PTR [edx+56]
  00039	8b 15 00 00 00
	00		 mov	 edx, DWORD PTR ?gpC_base@@3PAVBase@@A ; gpC_base
  0003f	50		 push	 eax
  00040	8d 4c 24 0c	 lea	 ecx, DWORD PTR _point$[esp+20]
  00044	51		 push	 ecx
  00045	8b 4a 04	 mov	 ecx, DWORD PTR [edx+4]
  00048	e8 00 00 00 00	 call	 ?BltSpriteDarkness@CSpriteSurface@@QAEXPAUtagPOINT@@PAVCSprite@@E@Z ; CSpriteSurface::BltSpriteDarkness

; 761  : 
; 762  : 		gpC_base->m_p_DDSurface_back->Unlock();

  0004d	a1 00 00 00 00	 mov	 eax, DWORD PTR ?gpC_base@@3PAVBase@@A ; gpC_base
  00052	8b 48 04	 mov	 ecx, DWORD PTR [eax+4]
  00055	e8 00 00 00 00	 call	 ?Unlock@CDirectDrawSurface@@QAE_NXZ ; CDirectDrawSurface::Unlock
$L89351:
  0005a	5e		 pop	 esi

; 763  : 	}
; 764  : }

  0005b	83 c4 08	 add	 esp, 8
  0005e	c2 10 00	 ret	 16			; 00000010H
?BltDarkness@C_SPRITE_PACK@@QAEXHHGH@Z ENDP		; C_SPRITE_PACK::BltDarkness
_TEXT	ENDS
PUBLIC	?BltDarkness@C_SPRITE_PACK@@QAEXAAUtagPOINT@@GH@Z ; C_SPRITE_PACK::BltDarkness
; Function compile flags: /Ogty
;	COMDAT ?BltDarkness@C_SPRITE_PACK@@QAEXAAUtagPOINT@@GH@Z
_TEXT	SEGMENT
_point$ = 8						; size = 4
_sprite_id$ = 12					; size = 2
_dark$ = 16						; size = 4
?BltDarkness@C_SPRITE_PACK@@QAEXAAUtagPOINT@@GH@Z PROC NEAR ; C_SPRITE_PACK::BltDarkness, COMDAT
; _this$ = ecx

; 773  : 	//assert(sprite_id >= 0);
; 774  : 
; 775  : 	//CSprite *p_sprite = m_pC_spk_list->GetSprite(sprite_id);
; 776  : 
; 777  : 	//assert(p_sprite);
; 778  : 
; 779  : 	assert(!gpC_base->m_p_DDSurface_back->IsLock());
; 780  : 	if (gpC_base->m_p_DDSurface_back->Lock())

  00000	a1 00 00 00 00	 mov	 eax, DWORD PTR ?gpC_base@@3PAVBase@@A ; gpC_base
  00005	56		 push	 esi
  00006	8b f1		 mov	 esi, ecx
  00008	8b 48 04	 mov	 ecx, DWORD PTR [eax+4]
  0000b	e8 00 00 00 00	 call	 ?Lock@CDirectDrawSurface@@QAE_NXZ ; CDirectDrawSurface::Lock
  00010	84 c0		 test	 al, al
  00012	74 32		 je	 SHORT $L89359

; 781  : 	{
; 782  : 		gpC_base->m_p_DDSurface_back->BltSpriteDarkness(&point, &m_SPK[sprite_id], dark);

  00014	8b 4c 24 10	 mov	 ecx, DWORD PTR _dark$[esp]
  00018	8b 44 24 0c	 mov	 eax, DWORD PTR _sprite_id$[esp]
  0001c	8b 16		 mov	 edx, DWORD PTR [esi]
  0001e	51		 push	 ecx
  0001f	50		 push	 eax
  00020	8b ce		 mov	 ecx, esi
  00022	ff 52 38	 call	 DWORD PTR [edx+56]
  00025	8b 4c 24 0c	 mov	 ecx, DWORD PTR _point$[esp+4]
  00029	8b 15 00 00 00
	00		 mov	 edx, DWORD PTR ?gpC_base@@3PAVBase@@A ; gpC_base
  0002f	50		 push	 eax
  00030	51		 push	 ecx
  00031	8b 4a 04	 mov	 ecx, DWORD PTR [edx+4]
  00034	e8 00 00 00 00	 call	 ?BltSpriteDarkness@CSpriteSurface@@QAEXPAUtagPOINT@@PAVCSprite@@E@Z ; CSpriteSurface::BltSpriteDarkness

; 783  : 
; 784  : 		gpC_base->m_p_DDSurface_back->Unlock();

  00039	a1 00 00 00 00	 mov	 eax, DWORD PTR ?gpC_base@@3PAVBase@@A ; gpC_base
  0003e	8b 48 04	 mov	 ecx, DWORD PTR [eax+4]
  00041	e8 00 00 00 00	 call	 ?Unlock@CDirectDrawSurface@@QAE_NXZ ; CDirectDrawSurface::Unlock
$L89359:
  00046	5e		 pop	 esi

; 785  : 	}
; 786  : }

  00047	c2 0c 00	 ret	 12			; 0000000cH
?BltDarkness@C_SPRITE_PACK@@QAEXAAUtagPOINT@@GH@Z ENDP	; C_SPRITE_PACK::BltDarkness
_TEXT	ENDS
PUBLIC	?BltClip@C_SPRITE_PACK@@QAEXHHAAVRect@@G@Z	; C_SPRITE_PACK::BltClip
EXTRN	?g_pUserInformation@@3PAVUserInformation@@A:DWORD ; g_pUserInformation
EXTRN	?BltClipWidth@CSprite@@QAEXPAGGPAUtagRECT@@@Z:NEAR ; CSprite::BltClipWidth
EXTRN	__imp_?SetSurfaceInfo@@YAXPAUS_SURFACEINFO@@PBU_DDSURFACEDESC2@@@Z:NEAR
; Function compile flags: /Ogty
;	COMDAT ?BltClip@C_SPRITE_PACK@@QAEXHHAAVRect@@G@Z
_TEXT	SEGMENT
_this$ = -36						; size = 4
_rt$89370 = -32						; size = 16
_surface_info$89369 = -16				; size = 16
_x$ = 8							; size = 4
_y$ = 12						; size = 4
_rect$ = 16						; size = 4
_sprite_id$ = 20					; size = 2
?BltClip@C_SPRITE_PACK@@QAEXHHAAVRect@@G@Z PROC NEAR	; C_SPRITE_PACK::BltClip, COMDAT
; _this$ = ecx

; 795  : {

  00000	83 ec 24	 sub	 esp, 36			; 00000024H

; 796  : 	//assert(sprite_id >= 0);
; 797  : 
; 798  : 	//CSprite *p_sprite = m_pC_spk_list->GetSprite(sprite_id);
; 799  : 
; 800  : 	//assert(p_sprite);
; 801  : 
; 802  : 	assert(!gpC_base->m_p_DDSurface_back->IsLock());
; 803  : 	if (gpC_base->m_p_DDSurface_back->Lock())

  00003	a1 00 00 00 00	 mov	 eax, DWORD PTR ?gpC_base@@3PAVBase@@A ; gpC_base
  00008	89 0c 24	 mov	 DWORD PTR _this$[esp+36], ecx
  0000b	8b 48 04	 mov	 ecx, DWORD PTR [eax+4]
  0000e	e8 00 00 00 00	 call	 ?Lock@CDirectDrawSurface@@QAE_NXZ ; CDirectDrawSurface::Lock
  00013	84 c0		 test	 al, al
  00015	0f 84 d0 00 00
	00		 je	 $L89368

; 804  : 	{
; 805  : 		S_SURFACEINFO surface_info;
; 806  : 		SetSurfaceInfo(&surface_info, gpC_base->m_p_DDSurface_back->GetDDSD());

  0001b	8d 4c 24 14	 lea	 ecx, DWORD PTR _surface_info$89369[esp+36]
  0001f	68 00 00 00 00	 push	 OFFSET FLAT:?m_ddsd@CDirectDraw@@1U_DDSURFACEDESC2@@A ; CDirectDraw::m_ddsd
  00024	51		 push	 ecx
  00025	ff 15 00 00 00
	00		 call	 DWORD PTR __imp_?SetSurfaceInfo@@YAXPAUS_SURFACEINFO@@PBU_DDSURFACEDESC2@@@Z

; 807  : 		
; 808  : 		RECT rt;
; 809  : 		rt.left = max(-x, rect.x);

  0002b	8b 44 24 30	 mov	 eax, DWORD PTR _x$[esp+40]
  0002f	8b 54 24 38	 mov	 edx, DWORD PTR _rect$[esp+40]
  00033	8b 0a		 mov	 ecx, DWORD PTR [edx]
  00035	f7 d8		 neg	 eax
  00037	83 c4 08	 add	 esp, 8
  0003a	3b c1		 cmp	 eax, ecx
  0003c	89 44 24 04	 mov	 DWORD PTR _rt$89370[esp+36], eax
  00040	7f 04		 jg	 SHORT $L93237
  00042	89 4c 24 04	 mov	 DWORD PTR _rt$89370[esp+36], ecx
$L93237:
  00046	53		 push	 ebx

; 810  : 		rt.top = max(-y, rect.y);

  00047	8b 5c 24 30	 mov	 ebx, DWORD PTR _y$[esp+36]
  0004b	55		 push	 ebp
  0004c	8b c3		 mov	 eax, ebx
  0004e	57		 push	 edi
  0004f	8b 7a 04	 mov	 edi, DWORD PTR [edx+4]
  00052	f7 d8		 neg	 eax
  00054	3b c7		 cmp	 eax, edi
  00056	8b e8		 mov	 ebp, eax
  00058	7f 02		 jg	 SHORT $L93247
  0005a	8b ef		 mov	 ebp, edi
$L93247:

; 811  : 		rt.right = min(rect.x+rect.w, g_pUserInformation->iResolution_x-x);

  0005c	8b 42 08	 mov	 eax, DWORD PTR [edx+8]
  0005f	03 c8		 add	 ecx, eax
  00061	56		 push	 esi
  00062	8b 35 00 00 00
	00		 mov	 esi, DWORD PTR ?g_pUserInformation@@3PAVUserInformation@@A ; g_pUserInformation
  00068	89 6c 24 18	 mov	 DWORD PTR _rt$89370[esp+56], ebp
  0006c	8b 86 4c 01 00
	00		 mov	 eax, DWORD PTR [esi+332]
  00072	2b 44 24 38	 sub	 eax, DWORD PTR _x$[esp+48]
  00076	89 4c 24 1c	 mov	 DWORD PTR _rt$89370[esp+60], ecx
  0007a	3b c8		 cmp	 ecx, eax
  0007c	7c 04		 jl	 SHORT $L93241
  0007e	89 44 24 1c	 mov	 DWORD PTR _rt$89370[esp+60], eax
$L93241:

; 812  : 		rt.bottom = min(rect.y+rect.h, g_pUserInformation->iResolution_y-y);

  00082	8b 86 50 01 00
	00		 mov	 eax, DWORD PTR [esi+336]
  00088	8b 4a 0c	 mov	 ecx, DWORD PTR [edx+12]
  0008b	03 cf		 add	 ecx, edi
  0008d	2b c3		 sub	 eax, ebx
  0008f	3b c8		 cmp	 ecx, eax
  00091	5e		 pop	 esi
  00092	7d 02		 jge	 SHORT $L93242
  00094	8b c1		 mov	 eax, ecx
$L93242:

; 813  : 
; 814  : 
; 815  : //#ifdef CONVERT_1024_768
; 816  : //		rt.right = min(rect.x+rect.w, RESOLUTION_X-x);
; 817  : //		rt.bottom = min(rect.y+rect.h, RESOLUTION_Y-y);
; 818  : //#else
; 819  : //		rt.right = min(rect.x+rect.w, 800-x);
; 820  : //		rt.bottom = min(rect.y+rect.h, 600-y);
; 821  : //#endif		
; 822  : 		if(rt.left < rt.right && rt.top < rt.bottom)

  00096	8b 4c 24 10	 mov	 ecx, DWORD PTR _rt$89370[esp+48]
  0009a	3b 4c 24 18	 cmp	 ecx, DWORD PTR _rt$89370[esp+56]
  0009e	89 44 24 1c	 mov	 DWORD PTR _rt$89370[esp+60], eax
  000a2	7d 37		 jge	 SHORT $L89371
  000a4	3b e8		 cmp	 ebp, eax
  000a6	7d 33		 jge	 SHORT $L89371

; 823  : 		{
; 824  : 			
; 825  : 			WORD * p_dest = (WORD *)surface_info.p_surface+x+rt.left;
; 826  : 			p_dest = (WORD *)((BYTE *)p_dest+(y+rt.top)*surface_info.pitch);

  000a8	8b 44 24 2c	 mov	 eax, DWORD PTR _surface_info$89369[esp+60]
  000ac	8b 54 24 34	 mov	 edx, DWORD PTR _x$[esp+44]
  000b0	03 eb		 add	 ebp, ebx
  000b2	0f af e8	 imul	 ebp, eax
  000b5	03 ca		 add	 ecx, edx

; 827  : 			
; 828  : 			//void BltClip(WORD *pDest, WORD pitch, RECT* pRect); // in CSprite.h
; 829  : 			m_SPK[sprite_id].BltClipWidth(p_dest, surface_info.pitch, &rt);
; 830  : 		}
; 831  : 
; 832  : 		gpC_base->m_p_DDSurface_back->Unlock();

  000b7	03 6c 24 20	 add	 ebp, DWORD PTR _surface_info$89369[esp+48]
  000bb	8d 54 24 10	 lea	 edx, DWORD PTR _rt$89370[esp+48]
  000bf	52		 push	 edx
  000c0	8b 54 24 44	 mov	 edx, DWORD PTR _sprite_id$[esp+48]
  000c4	50		 push	 eax
  000c5	8d 4c 4d 00	 lea	 ecx, DWORD PTR [ebp+ecx*2]
  000c9	51		 push	 ecx
  000ca	8b 4c 24 18	 mov	 ecx, DWORD PTR _this$[esp+60]
  000ce	8b 01		 mov	 eax, DWORD PTR [ecx]
  000d0	52		 push	 edx
  000d1	ff 50 38	 call	 DWORD PTR [eax+56]
  000d4	8b c8		 mov	 ecx, eax
  000d6	e8 00 00 00 00	 call	 ?BltClipWidth@CSprite@@QAEXPAGGPAUtagRECT@@@Z ; CSprite::BltClipWidth
$L89371:
  000db	a1 00 00 00 00	 mov	 eax, DWORD PTR ?gpC_base@@3PAVBase@@A ; gpC_base
  000e0	8b 48 04	 mov	 ecx, DWORD PTR [eax+4]
  000e3	e8 00 00 00 00	 call	 ?Unlock@CDirectDrawSurface@@QAE_NXZ ; CDirectDrawSurface::Unlock
  000e8	5f		 pop	 edi
  000e9	5d		 pop	 ebp
  000ea	5b		 pop	 ebx
$L89368:

; 833  : 	}
; 834  : }

  000eb	83 c4 24	 add	 esp, 36			; 00000024H
  000ee	c2 10 00	 ret	 16			; 00000010H
?BltClip@C_SPRITE_PACK@@QAEXHHAAVRect@@G@Z ENDP		; C_SPRITE_PACK::BltClip
_TEXT	ENDS
PUBLIC	?BltAlpha@C_SPRITE_PACK@@QAEXAAUtagPOINT@@GH@Z	; C_SPRITE_PACK::BltAlpha
EXTRN	?BltSpriteAlpha@CSpriteSurface@@QAEXPAUtagPOINT@@PAVCSprite@@E@Z:NEAR ; CSpriteSurface::BltSpriteAlpha
; Function compile flags: /Ogty
;	COMDAT ?BltAlpha@C_SPRITE_PACK@@QAEXAAUtagPOINT@@GH@Z
_TEXT	SEGMENT
_point$ = 8						; size = 4
_sprite_id$ = 12					; size = 2
_alpha$ = 16						; size = 4
?BltAlpha@C_SPRITE_PACK@@QAEXAAUtagPOINT@@GH@Z PROC NEAR ; C_SPRITE_PACK::BltAlpha, COMDAT
; _this$ = ecx

; 852  : 	//assert(sprite_id >= 0);
; 853  : 
; 854  : 	//CSprite *p_sprite = m_pC_spk_list->GetSprite(sprite_id);
; 855  : 
; 856  : 	//assert(p_sprite);
; 857  : 
; 858  : 	assert(!gpC_base->m_p_DDSurface_back->IsLock());
; 859  : 	if (gpC_base->m_p_DDSurface_back->Lock())

  00000	a1 00 00 00 00	 mov	 eax, DWORD PTR ?gpC_base@@3PAVBase@@A ; gpC_base
  00005	56		 push	 esi
  00006	8b f1		 mov	 esi, ecx
  00008	8b 48 04	 mov	 ecx, DWORD PTR [eax+4]
  0000b	e8 00 00 00 00	 call	 ?Lock@CDirectDrawSurface@@QAE_NXZ ; CDirectDrawSurface::Lock
  00010	84 c0		 test	 al, al
  00012	74 32		 je	 SHORT $L89391

; 860  : 	{
; 861  : 		gpC_base->m_p_DDSurface_back->BltSpriteAlpha(&point, &m_SPK[sprite_id], alpha);

  00014	8b 4c 24 10	 mov	 ecx, DWORD PTR _alpha$[esp]
  00018	8b 44 24 0c	 mov	 eax, DWORD PTR _sprite_id$[esp]
  0001c	8b 16		 mov	 edx, DWORD PTR [esi]
  0001e	51		 push	 ecx
  0001f	50		 push	 eax
  00020	8b ce		 mov	 ecx, esi
  00022	ff 52 38	 call	 DWORD PTR [edx+56]
  00025	8b 4c 24 0c	 mov	 ecx, DWORD PTR _point$[esp+4]
  00029	8b 15 00 00 00
	00		 mov	 edx, DWORD PTR ?gpC_base@@3PAVBase@@A ; gpC_base
  0002f	50		 push	 eax
  00030	51		 push	 ecx
  00031	8b 4a 04	 mov	 ecx, DWORD PTR [edx+4]
  00034	e8 00 00 00 00	 call	 ?BltSpriteAlpha@CSpriteSurface@@QAEXPAUtagPOINT@@PAVCSprite@@E@Z ; CSpriteSurface::BltSpriteAlpha

; 862  : 
; 863  : 		gpC_base->m_p_DDSurface_back->Unlock();

  00039	a1 00 00 00 00	 mov	 eax, DWORD PTR ?gpC_base@@3PAVBase@@A ; gpC_base
  0003e	8b 48 04	 mov	 ecx, DWORD PTR [eax+4]
  00041	e8 00 00 00 00	 call	 ?Unlock@CDirectDrawSurface@@QAE_NXZ ; CDirectDrawSurface::Unlock
$L89391:
  00046	5e		 pop	 esi

; 864  : 	}
; 865  : }

  00047	c2 0c 00	 ret	 12			; 0000000cH
?BltAlpha@C_SPRITE_PACK@@QAEXAAUtagPOINT@@GH@Z ENDP	; C_SPRITE_PACK::BltAlpha
_TEXT	ENDS
PUBLIC	?GetWidth@C_SPRITE_PACK@@QAEHG@Z		; C_SPRITE_PACK::GetWidth
; Function compile flags: /Ogty
;	COMDAT ?GetWidth@C_SPRITE_PACK@@QAEHG@Z
_TEXT	SEGMENT
_sprite_id$ = 8						; size = 2
?GetWidth@C_SPRITE_PACK@@QAEHG@Z PROC NEAR		; C_SPRITE_PACK::GetWidth, COMDAT
; _this$ = ecx

; 873  : 	//assert(sprite_id >= 0);
; 874  : 
; 875  : 	//CSprite *p_sprite = m_pC_spk_list->GetSprite(sprite_id);
; 876  : 	//assert(p_sprite);
; 877  : 
; 878  : 	//if (!p_sprite)
; 879  : 	//	return 0;
; 880  : 
; 881  : 	return m_SPK[sprite_id].GetWidth();

  00000	8b 54 24 04	 mov	 edx, DWORD PTR _sprite_id$[esp-4]
  00004	8b 01		 mov	 eax, DWORD PTR [ecx]
  00006	52		 push	 edx
  00007	ff 50 38	 call	 DWORD PTR [eax+56]
  0000a	0f b7 40 04	 movzx	 eax, WORD PTR [eax+4]

; 882  : }

  0000e	c2 04 00	 ret	 4
?GetWidth@C_SPRITE_PACK@@QAEHG@Z ENDP			; C_SPRITE_PACK::GetWidth
_TEXT	ENDS
PUBLIC	?GetHeight@C_SPRITE_PACK@@QAEHG@Z		; C_SPRITE_PACK::GetHeight
; Function compile flags: /Ogty
;	COMDAT ?GetHeight@C_SPRITE_PACK@@QAEHG@Z
_TEXT	SEGMENT
_sprite_id$ = 8						; size = 2
?GetHeight@C_SPRITE_PACK@@QAEHG@Z PROC NEAR		; C_SPRITE_PACK::GetHeight, COMDAT
; _this$ = ecx

; 890  : 	//assert(sprite_id >= 0);
; 891  : 
; 892  : 	//CSprite *p_sprite = m_pC_spk_list->GetSprite(sprite_id);
; 893  : 	//assert(p_sprite);
; 894  : 
; 895  : 	//if (!p_sprite)
; 896  : 	//	return 0;
; 897  : 
; 898  : 	return m_SPK[sprite_id].GetHeight();

  00000	8b 54 24 04	 mov	 edx, DWORD PTR _sprite_id$[esp-4]
  00004	8b 01		 mov	 eax, DWORD PTR [ecx]
  00006	52		 push	 edx
  00007	ff 50 38	 call	 DWORD PTR [eax+56]
  0000a	0f b7 40 06	 movzx	 eax, WORD PTR [eax+6]

; 899  : }

  0000e	c2 04 00	 ret	 4
?GetHeight@C_SPRITE_PACK@@QAEHG@Z ENDP			; C_SPRITE_PACK::GetHeight
_TEXT	ENDS
PUBLIC	?IsPixel@C_SPRITE_PACK@@QAE_NHHG@Z		; C_SPRITE_PACK::IsPixel
EXTRN	?IsColorPixel@CSprite@@QAE_NFF@Z:NEAR		; CSprite::IsColorPixel
; Function compile flags: /Ogty
;	COMDAT ?IsPixel@C_SPRITE_PACK@@QAE_NHHG@Z
_TEXT	SEGMENT
_x$ = 8							; size = 4
_y$ = 12						; size = 4
_sprite_id$ = 16					; size = 2
?IsPixel@C_SPRITE_PACK@@QAE_NHHG@Z PROC NEAR		; C_SPRITE_PACK::IsPixel, COMDAT
; _this$ = ecx

; 908  : 	//assert(sprite_id >= 0);
; 909  : 
; 910  : 	//CSprite *p_sprite = m_pC_spk_list->GetSprite(sprite_id);
; 911  : 
; 912  : 	//assert(p_sprite);
; 913  : 	
; 914  : 	return m_SPK[sprite_id].IsColorPixel(x, y);

  00000	8b 44 24 08	 mov	 eax, DWORD PTR _y$[esp-4]
  00004	8b 54 24 04	 mov	 edx, DWORD PTR _x$[esp-4]
  00008	50		 push	 eax
  00009	8b 01		 mov	 eax, DWORD PTR [ecx]
  0000b	52		 push	 edx
  0000c	8b 54 24 14	 mov	 edx, DWORD PTR _sprite_id$[esp+4]
  00010	52		 push	 edx
  00011	ff 50 38	 call	 DWORD PTR [eax+56]
  00014	8b c8		 mov	 ecx, eax
  00016	e8 00 00 00 00	 call	 ?IsColorPixel@CSprite@@QAE_NFF@Z ; CSprite::IsColorPixel

; 915  : }

  0001b	c2 0c 00	 ret	 12			; 0000000cH
?IsPixel@C_SPRITE_PACK@@QAE_NHHG@Z ENDP			; C_SPRITE_PACK::IsPixel
_TEXT	ENDS
PUBLIC	?Blt@C_SPRITE_PACK@@QAEXAAUtagPOINT@@G@Z	; C_SPRITE_PACK::Blt
EXTRN	?BltSprite@CSpriteSurface@@QAEXPAUtagPOINT@@PAVCSprite@@@Z:NEAR ; CSpriteSurface::BltSprite
; Function compile flags: /Ogty
;	COMDAT ?Blt@C_SPRITE_PACK@@QAEXAAUtagPOINT@@G@Z
_TEXT	SEGMENT
_point$ = 8						; size = 4
_sprite_id$ = 12					; size = 2
?Blt@C_SPRITE_PACK@@QAEXAAUtagPOINT@@G@Z PROC NEAR	; C_SPRITE_PACK::Blt, COMDAT
; _this$ = ecx

; 933  : 	//assert(sprite_id >= 0);
; 934  : 
; 935  : 	//CSprite *p_sprite = m_pC_spk_list->GetSprite(sprite_id);
; 936  : 
; 937  : 	//assert(p_sprite);
; 938  : 
; 939  : 	assert(!gpC_base->m_p_DDSurface_back->IsLock());
; 940  : 	if (gpC_base->m_p_DDSurface_back->Lock())

  00000	a1 00 00 00 00	 mov	 eax, DWORD PTR ?gpC_base@@3PAVBase@@A ; gpC_base
  00005	56		 push	 esi
  00006	8b f1		 mov	 esi, ecx
  00008	8b 48 04	 mov	 ecx, DWORD PTR [eax+4]
  0000b	e8 00 00 00 00	 call	 ?Lock@CDirectDrawSurface@@QAE_NXZ ; CDirectDrawSurface::Lock
  00010	84 c0		 test	 al, al
  00012	74 2d		 je	 SHORT $L89419

; 941  : 	{
; 942  : 		gpC_base->m_p_DDSurface_back->BltSprite(&point, &m_SPK[sprite_id]);

  00014	8b 44 24 0c	 mov	 eax, DWORD PTR _sprite_id$[esp]
  00018	8b 16		 mov	 edx, DWORD PTR [esi]
  0001a	50		 push	 eax
  0001b	8b ce		 mov	 ecx, esi
  0001d	ff 52 38	 call	 DWORD PTR [edx+56]
  00020	8b 4c 24 08	 mov	 ecx, DWORD PTR _point$[esp]
  00024	8b 15 00 00 00
	00		 mov	 edx, DWORD PTR ?gpC_base@@3PAVBase@@A ; gpC_base
  0002a	50		 push	 eax
  0002b	51		 push	 ecx
  0002c	8b 4a 04	 mov	 ecx, DWORD PTR [edx+4]
  0002f	e8 00 00 00 00	 call	 ?BltSprite@CSpriteSurface@@QAEXPAUtagPOINT@@PAVCSprite@@@Z ; CSpriteSurface::BltSprite

; 943  : 
; 944  : 		gpC_base->m_p_DDSurface_back->Unlock();

  00034	a1 00 00 00 00	 mov	 eax, DWORD PTR ?gpC_base@@3PAVBase@@A ; gpC_base
  00039	8b 48 04	 mov	 ecx, DWORD PTR [eax+4]
  0003c	e8 00 00 00 00	 call	 ?Unlock@CDirectDrawSurface@@QAE_NXZ ; CDirectDrawSurface::Unlock
$L89419:
  00041	5e		 pop	 esi

; 945  : 	}
; 946  : }

  00042	c2 08 00	 ret	 8
?Blt@C_SPRITE_PACK@@QAEXAAUtagPOINT@@G@Z ENDP		; C_SPRITE_PACK::Blt
_TEXT	ENDS
PUBLIC	?BltOffscreen@C_SPRITE_PACK@@QAEXAAUtagPOINT@@G@Z ; C_SPRITE_PACK::BltOffscreen
; Function compile flags: /Ogty
;	COMDAT ?BltOffscreen@C_SPRITE_PACK@@QAEXAAUtagPOINT@@G@Z
_TEXT	SEGMENT
_point$ = 8						; size = 4
_sprite_id$ = 12					; size = 2
?BltOffscreen@C_SPRITE_PACK@@QAEXAAUtagPOINT@@G@Z PROC NEAR ; C_SPRITE_PACK::BltOffscreen, COMDAT
; _this$ = ecx

; 953  : {

  00000	56		 push	 esi
  00001	8b f1		 mov	 esi, ecx

; 954  : 	//assert(sprite_id >= 0);
; 955  : 
; 956  : 	//CSprite *p_sprite = m_pC_spk_list->GetSprite(sprite_id);
; 957  : 
; 958  : 	//assert(p_sprite);
; 959  : 
; 960  : 	assert(!gpC_base->m_p_DDSurface_back->IsLock());
; 961  : 	if (gpC_base->m_DDSurface_offscreen.Lock())

  00003	8b 0d 00 00 00
	00		 mov	 ecx, DWORD PTR ?gpC_base@@3PAVBase@@A ; gpC_base
  00009	83 c1 08	 add	 ecx, 8
  0000c	e8 00 00 00 00	 call	 ?Lock@CDirectDrawSurface@@QAE_NXZ ; CDirectDrawSurface::Lock
  00011	84 c0		 test	 al, al
  00013	74 2e		 je	 SHORT $L89426

; 962  : 	{
; 963  : 		gpC_base->m_DDSurface_offscreen.BltSprite(&point, &m_SPK[sprite_id]);

  00015	8b 4c 24 0c	 mov	 ecx, DWORD PTR _sprite_id$[esp]
  00019	8b 06		 mov	 eax, DWORD PTR [esi]
  0001b	51		 push	 ecx
  0001c	8b ce		 mov	 ecx, esi
  0001e	ff 50 38	 call	 DWORD PTR [eax+56]
  00021	8b 54 24 08	 mov	 edx, DWORD PTR _point$[esp]
  00025	8b 0d 00 00 00
	00		 mov	 ecx, DWORD PTR ?gpC_base@@3PAVBase@@A ; gpC_base
  0002b	50		 push	 eax
  0002c	52		 push	 edx
  0002d	83 c1 08	 add	 ecx, 8
  00030	e8 00 00 00 00	 call	 ?BltSprite@CSpriteSurface@@QAEXPAUtagPOINT@@PAVCSprite@@@Z ; CSpriteSurface::BltSprite

; 964  : 
; 965  : 		gpC_base->m_DDSurface_offscreen.Unlock();

  00035	8b 0d 00 00 00
	00		 mov	 ecx, DWORD PTR ?gpC_base@@3PAVBase@@A ; gpC_base
  0003b	83 c1 08	 add	 ecx, 8
  0003e	e8 00 00 00 00	 call	 ?Unlock@CDirectDrawSurface@@QAE_NXZ ; CDirectDrawSurface::Unlock
$L89426:
  00043	5e		 pop	 esi

; 966  : 	}
; 967  : }

  00044	c2 08 00	 ret	 8
?BltOffscreen@C_SPRITE_PACK@@QAEXAAUtagPOINT@@G@Z ENDP	; C_SPRITE_PACK::BltOffscreen
_TEXT	ENDS
PUBLIC	?BltOffscreen@C_SPRITE_PACK@@QAEXHHG@Z		; C_SPRITE_PACK::BltOffscreen
; Function compile flags: /Ogty
;	COMDAT ?BltOffscreen@C_SPRITE_PACK@@QAEXHHG@Z
_TEXT	SEGMENT
_point$ = -8						; size = 8
_x$ = 8							; size = 4
_y$ = 12						; size = 4
_sprite_id$ = 16					; size = 2
?BltOffscreen@C_SPRITE_PACK@@QAEXHHG@Z PROC NEAR	; C_SPRITE_PACK::BltOffscreen, COMDAT
; _this$ = ecx

; 970  : {

  00000	83 ec 08	 sub	 esp, 8

; 971  : 	POINT point = {x, y};

  00003	8b 44 24 0c	 mov	 eax, DWORD PTR _x$[esp+4]
  00007	56		 push	 esi
  00008	8b f1		 mov	 esi, ecx
  0000a	8b 4c 24 14	 mov	 ecx, DWORD PTR _y$[esp+8]
  0000e	89 4c 24 08	 mov	 DWORD PTR _point$[esp+16], ecx

; 972  : 	BltOffscreen(point, sprite_id);

  00012	8b 0d 00 00 00
	00		 mov	 ecx, DWORD PTR ?gpC_base@@3PAVBase@@A ; gpC_base
  00018	83 c1 08	 add	 ecx, 8
  0001b	89 44 24 04	 mov	 DWORD PTR _point$[esp+12], eax
  0001f	e8 00 00 00 00	 call	 ?Lock@CDirectDrawSurface@@QAE_NXZ ; CDirectDrawSurface::Lock
  00024	84 c0		 test	 al, al
  00026	74 2e		 je	 SHORT $L93282
  00028	8b 44 24 18	 mov	 eax, DWORD PTR _sprite_id$[esp+8]
  0002c	8b 16		 mov	 edx, DWORD PTR [esi]
  0002e	50		 push	 eax
  0002f	8b ce		 mov	 ecx, esi
  00031	ff 52 38	 call	 DWORD PTR [edx+56]
  00034	50		 push	 eax
  00035	8d 4c 24 08	 lea	 ecx, DWORD PTR _point$[esp+16]
  00039	51		 push	 ecx
  0003a	8b 0d 00 00 00
	00		 mov	 ecx, DWORD PTR ?gpC_base@@3PAVBase@@A ; gpC_base
  00040	83 c1 08	 add	 ecx, 8
  00043	e8 00 00 00 00	 call	 ?BltSprite@CSpriteSurface@@QAEXPAUtagPOINT@@PAVCSprite@@@Z ; CSpriteSurface::BltSprite
  00048	8b 0d 00 00 00
	00		 mov	 ecx, DWORD PTR ?gpC_base@@3PAVBase@@A ; gpC_base
  0004e	83 c1 08	 add	 ecx, 8
  00051	e8 00 00 00 00	 call	 ?Unlock@CDirectDrawSurface@@QAE_NXZ ; CDirectDrawSurface::Unlock
$L93282:
  00056	5e		 pop	 esi

; 973  : }

  00057	83 c4 08	 add	 esp, 8
  0005a	c2 0c 00	 ret	 12			; 0000000cH
?BltOffscreen@C_SPRITE_PACK@@QAEXHHG@Z ENDP		; C_SPRITE_PACK::BltOffscreen
_TEXT	ENDS
PUBLIC	?BltOutline@C_SPRITE_PACK@@QAEXHHHG@Z		; C_SPRITE_PACK::BltOutline
EXTRN	__except_list:DWORD
EXTRN	__chkstk:NEAR
EXTRN	___security_cookie:DWORD
EXTRN	@__security_check_cookie@4:NEAR
EXTRN	___CxxFrameHandler:NEAR
EXTRN	?BltSpriteOutline@CSpriteSurface@@QAEXPAVCSpriteOutlineManager@@G@Z:NEAR ; CSpriteSurface::BltSpriteOutline
EXTRN	??0CSpriteOutlineManager@@QAE@XZ:NEAR		; CSpriteOutlineManager::CSpriteOutlineManager
EXTRN	??1CSpriteOutlineManager@@QAE@XZ:NEAR		; CSpriteOutlineManager::~CSpriteOutlineManager
EXTRN	?Clear@CSpriteOutlineManager@@QAEXXZ:NEAR	; CSpriteOutlineManager::Clear
EXTRN	?Add@CSpriteOutlineManager@@QAEXHHPAVCSprite@@@Z:NEAR ; CSpriteOutlineManager::Add
EXTRN	?Generate@CSpriteOutlineManager@@QAEXH@Z:NEAR	; CSpriteOutlineManager::Generate
;	COMDAT xdata$x
xdata$x	SEGMENT
$T93298	DD	0ffffffffH
	DD	FLAT:$L93287
$T93291	DD	019930520H
	DD	01H
	DD	FLAT:$T93298
	DD	2 DUP(00H)
	DD	2 DUP(00H)
; Function compile flags: /Ogty
xdata$x	ENDS
;	COMDAT ?BltOutline@C_SPRITE_PACK@@QAEXHHHG@Z
_TEXT	SEGMENT
_outline_o$ = -10660					; size = 10644
__$ArrayPad$ = -16					; size = 4
__$EHRec$ = -12						; size = 12
__$ReturnAddr$ = 4					; size = 4
_x$ = 8							; size = 4
_y$ = 12						; size = 4
_color$ = 16						; size = 4
_sprite_id$ = 20					; size = 2
?BltOutline@C_SPRITE_PACK@@QAEXHHHG@Z PROC NEAR		; C_SPRITE_PACK::BltOutline, COMDAT
; _this$ = ecx

; 981  : {

  00000	6a ff		 push	 -1
  00002	64 a1 00 00 00
	00		 mov	 eax, DWORD PTR fs:__except_list
  00008	68 00 00 00 00	 push	 __ehhandler$?BltOutline@C_SPRITE_PACK@@QAEXHHHG@Z
  0000d	50		 push	 eax
  0000e	b8 98 29 00 00	 mov	 eax, 10648		; 00002998H
  00013	64 89 25 00 00
	00 00		 mov	 DWORD PTR fs:__except_list, esp
  0001a	e8 00 00 00 00	 call	 __chkstk
  0001f	a1 00 00 00 00	 mov	 eax, DWORD PTR ___security_cookie
  00024	56		 push	 esi
  00025	8b f1		 mov	 esi, ecx

; 982  : 	//CSprite *p_sprite = m_pC_spk_list->GetSprite(sprite_id);
; 983  : 
; 984  : 	//assert(p_sprite);
; 985  : 
; 986  : 	// focus   .
; 987  : 	CSpriteOutlineManager	outline_o; //  .

  00027	8d 4c 24 04	 lea	 ecx, DWORD PTR _outline_o$[esp+10664]
  0002b	89 84 24 98 29
	00 00		 mov	 DWORD PTR __$ArrayPad$[esp+10664], eax
  00032	e8 00 00 00 00	 call	 ??0CSpriteOutlineManager@@QAE@XZ ; CSpriteOutlineManager::CSpriteOutlineManager

; 988  : 
; 989  : 	//   .
; 990  : 	outline_o.Add(x, y, &m_SPK[sprite_id]);

  00037	8b 8c 24 b8 29
	00 00		 mov	 ecx, DWORD PTR _sprite_id$[esp+10660]
  0003e	8b 06		 mov	 eax, DWORD PTR [esi]
  00040	51		 push	 ecx
  00041	8b ce		 mov	 ecx, esi
  00043	c7 84 24 a8 29
	00 00 00 00 00
	00		 mov	 DWORD PTR __$EHRec$[esp+10676], 0
  0004e	ff 50 38	 call	 DWORD PTR [eax+56]
  00051	8b 94 24 b0 29
	00 00		 mov	 edx, DWORD PTR _y$[esp+10660]
  00058	50		 push	 eax
  00059	8b 84 24 b0 29
	00 00		 mov	 eax, DWORD PTR _x$[esp+10664]
  00060	52		 push	 edx
  00061	50		 push	 eax
  00062	8d 4c 24 10	 lea	 ecx, DWORD PTR _outline_o$[esp+10676]
  00066	e8 00 00 00 00	 call	 ?Add@CSpriteOutlineManager@@QAEXHHPAVCSprite@@@Z ; CSpriteOutlineManager::Add

; 991  : 	outline_o.Generate();

  0006b	6a 00		 push	 0
  0006d	8d 4c 24 08	 lea	 ecx, DWORD PTR _outline_o$[esp+10668]
  00071	e8 00 00 00 00	 call	 ?Generate@CSpriteOutlineManager@@QAEXH@Z ; CSpriteOutlineManager::Generate

; 992  : 
; 993  : 	assert(!gpC_base->m_p_DDSurface_back->IsLock());
; 994  : 	if (gpC_base->m_p_DDSurface_back->Lock())

  00076	8b 0d 00 00 00
	00		 mov	 ecx, DWORD PTR ?gpC_base@@3PAVBase@@A ; gpC_base
  0007c	8b 49 04	 mov	 ecx, DWORD PTR [ecx+4]
  0007f	e8 00 00 00 00	 call	 ?Lock@CDirectDrawSurface@@QAE_NXZ ; CDirectDrawSurface::Lock
  00084	84 c0		 test	 al, al
  00086	5e		 pop	 esi
  00087	74 29		 je	 SHORT $L89443

; 995  : 	{
; 996  : 		gpC_base->m_p_DDSurface_back->BltSpriteOutline(&outline_o,  color);

  00089	8b 94 24 b0 29
	00 00		 mov	 edx, DWORD PTR _color$[esp+10656]
  00090	8b 0d 00 00 00
	00		 mov	 ecx, DWORD PTR ?gpC_base@@3PAVBase@@A ; gpC_base
  00096	8b 49 04	 mov	 ecx, DWORD PTR [ecx+4]
  00099	52		 push	 edx
  0009a	8d 44 24 04	 lea	 eax, DWORD PTR _outline_o$[esp+10664]
  0009e	50		 push	 eax
  0009f	e8 00 00 00 00	 call	 ?BltSpriteOutline@CSpriteSurface@@QAEXPAVCSpriteOutlineManager@@G@Z ; CSpriteSurface::BltSpriteOutline

; 997  : 
; 998  : 		gpC_base->m_p_DDSurface_back->Unlock();

  000a4	8b 15 00 00 00
	00		 mov	 edx, DWORD PTR ?gpC_base@@3PAVBase@@A ; gpC_base
  000aa	8b 4a 04	 mov	 ecx, DWORD PTR [edx+4]
  000ad	e8 00 00 00 00	 call	 ?Unlock@CDirectDrawSurface@@QAE_NXZ ; CDirectDrawSurface::Unlock
$L89443:

; 999  : 	}
; 1000 : 	
; 1001 : 	outline_o.Clear();

  000b2	8d 0c 24	 lea	 ecx, DWORD PTR _outline_o$[esp+10660]
  000b5	e8 00 00 00 00	 call	 ?Clear@CSpriteOutlineManager@@QAEXXZ ; CSpriteOutlineManager::Clear

; 1002 : }

  000ba	8d 0c 24	 lea	 ecx, DWORD PTR _outline_o$[esp+10660]
  000bd	c7 84 24 a0 29
	00 00 ff ff ff
	ff		 mov	 DWORD PTR __$EHRec$[esp+10668], -1
  000c8	e8 00 00 00 00	 call	 ??1CSpriteOutlineManager@@QAE@XZ ; CSpriteOutlineManager::~CSpriteOutlineManager
  000cd	8b 8c 24 98 29
	00 00		 mov	 ecx, DWORD PTR __$EHRec$[esp+10660]
  000d4	64 89 0d 00 00
	00 00		 mov	 DWORD PTR fs:__except_list, ecx
  000db	8b 8c 24 94 29
	00 00		 mov	 ecx, DWORD PTR __$ArrayPad$[esp+10660]
  000e2	e8 00 00 00 00	 call	 @__security_check_cookie@4
  000e7	81 c4 a4 29 00
	00		 add	 esp, 10660		; 000029a4H
  000ed	c2 10 00	 ret	 16			; 00000010H
_TEXT	ENDS
;	COMDAT text$x
text$x	SEGMENT
$L93287:
  00000	8d 8d 5c d6 ff
	ff		 lea	 ecx, DWORD PTR _outline_o$[ebp]
  00006	e9 00 00 00 00	 jmp	 ??1CSpriteOutlineManager@@QAE@XZ ; CSpriteOutlineManager::~CSpriteOutlineManager
__ehhandler$?BltOutline@C_SPRITE_PACK@@QAEXHHHG@Z:
  0000b	b8 00 00 00 00	 mov	 eax, OFFSET FLAT:$T93291
  00010	e9 00 00 00 00	 jmp	 ___CxxFrameHandler
text$x	ENDS
?BltOutline@C_SPRITE_PACK@@QAEXHHHG@Z ENDP		; C_SPRITE_PACK::BltOutline
PUBLIC	?BltLocked@C_SPRITE_PACK@@QAEXAAUtagPOINT@@G@Z	; C_SPRITE_PACK::BltLocked
; Function compile flags: /Ogty
;	COMDAT ?BltLocked@C_SPRITE_PACK@@QAEXAAUtagPOINT@@G@Z
_TEXT	SEGMENT
_point$ = 8						; size = 4
_sprite_id$ = 12					; size = 2
?BltLocked@C_SPRITE_PACK@@QAEXAAUtagPOINT@@G@Z PROC NEAR ; C_SPRITE_PACK::BltLocked, COMDAT
; _this$ = ecx

; 1020 : {

  00000	56		 push	 esi
  00001	8b f1		 mov	 esi, ecx

; 1021 : 	//assert(sprite_id >= 0);
; 1022 : 
; 1023 : 	//CSprite *p_sprite = m_pC_spk_list->GetSprite(sprite_id);
; 1024 : 
; 1025 : 	//assert(p_sprite);
; 1026 : 
; 1027 : 	// 2009.10.12       - by neclipse
; 1028 : 	if (sprite_id < 0 || sprite_id >= m_SPK.GetSize())

  00003	8b 06		 mov	 eax, DWORD PTR [esi]
  00005	ff 50 0c	 call	 DWORD PTR [eax+12]
  00008	8b 4c 24 0c	 mov	 ecx, DWORD PTR _sprite_id$[esp]
  0000c	0f b7 d1	 movzx	 edx, cx
  0000f	3b d0		 cmp	 edx, eax
  00011	73 1b		 jae	 SHORT $L89457

; 1029 : 		return;
; 1030 : 
; 1031 : 	assert(gpC_base->m_p_DDSurface_back->IsLock());
; 1032 : 	gpC_base->m_p_DDSurface_back->BltSprite(&point, &m_SPK[sprite_id]);

  00013	8b 06		 mov	 eax, DWORD PTR [esi]
  00015	51		 push	 ecx
  00016	8b ce		 mov	 ecx, esi
  00018	ff 50 38	 call	 DWORD PTR [eax+56]
  0001b	5e		 pop	 esi
  0001c	89 44 24 08	 mov	 WORD PTR _sprite_id$[esp-4], eax
  00020	8b 15 00 00 00
	00		 mov	 edx, DWORD PTR ?gpC_base@@3PAVBase@@A ; gpC_base
  00026	8b 4a 04	 mov	 ecx, DWORD PTR [edx+4]
  00029	e9 00 00 00 00	 jmp	 ?BltSprite@CSpriteSurface@@QAEXPAUtagPOINT@@PAVCSprite@@@Z ; CSpriteSurface::BltSprite
$L89457:
  0002e	5e		 pop	 esi

; 1033 : }

  0002f	c2 08 00	 ret	 8
?BltLocked@C_SPRITE_PACK@@QAEXAAUtagPOINT@@G@Z ENDP	; C_SPRITE_PACK::BltLocked
_TEXT	ENDS
PUBLIC	?BltLockedOffscreen@C_SPRITE_PACK@@QAEXAAUtagPOINT@@G@Z ; C_SPRITE_PACK::BltLockedOffscreen
; Function compile flags: /Ogty
;	COMDAT ?BltLockedOffscreen@C_SPRITE_PACK@@QAEXAAUtagPOINT@@G@Z
_TEXT	SEGMENT
_point$ = 8						; size = 4
_sprite_id$ = 12					; size = 2
?BltLockedOffscreen@C_SPRITE_PACK@@QAEXAAUtagPOINT@@G@Z PROC NEAR ; C_SPRITE_PACK::BltLockedOffscreen, COMDAT
; _this$ = ecx

; 1041 : 	//assert(sprite_id >= 0);
; 1042 : 
; 1043 : 	//CSprite *p_sprite = m_pC_spk_list->GetSprite(sprite_id);
; 1044 : 
; 1045 : 	//assert(p_sprite);
; 1046 : 
; 1047 : 	assert(gpC_base->m_p_DDSurface_back->IsLock());
; 1048 : 	gpC_base->m_DDSurface_offscreen.BltSprite(&point, &m_SPK[sprite_id]);

  00000	8b 54 24 08	 mov	 edx, DWORD PTR _sprite_id$[esp-4]
  00004	8b 01		 mov	 eax, DWORD PTR [ecx]
  00006	52		 push	 edx
  00007	ff 50 38	 call	 DWORD PTR [eax+56]
  0000a	8b 0d 00 00 00
	00		 mov	 ecx, DWORD PTR ?gpC_base@@3PAVBase@@A ; gpC_base
  00010	89 44 24 08	 mov	 WORD PTR _sprite_id$[esp-4], eax
  00014	83 c1 08	 add	 ecx, 8
  00017	e9 00 00 00 00	 jmp	 ?BltSprite@CSpriteSurface@@QAEXPAUtagPOINT@@PAVCSprite@@@Z ; CSpriteSurface::BltSprite
?BltLockedOffscreen@C_SPRITE_PACK@@QAEXAAUtagPOINT@@G@Z ENDP ; C_SPRITE_PACK::BltLockedOffscreen
_TEXT	ENDS
PUBLIC	?BltLockedOffscreen@C_SPRITE_PACK@@QAEXHHG@Z	; C_SPRITE_PACK::BltLockedOffscreen
; Function compile flags: /Ogty
;	COMDAT ?BltLockedOffscreen@C_SPRITE_PACK@@QAEXHHG@Z
_TEXT	SEGMENT
_point$ = -8						; size = 8
_x$ = 8							; size = 4
_y$ = 12						; size = 4
_sprite_id$ = 16					; size = 2
?BltLockedOffscreen@C_SPRITE_PACK@@QAEXHHG@Z PROC NEAR	; C_SPRITE_PACK::BltLockedOffscreen, COMDAT
; _this$ = ecx

; 1052 : {

  00000	83 ec 08	 sub	 esp, 8

; 1053 : 	POINT point = {x, y};

  00003	8b 54 24 10	 mov	 edx, DWORD PTR _y$[esp+4]
  00007	8b 44 24 0c	 mov	 eax, DWORD PTR _x$[esp+4]
  0000b	89 54 24 04	 mov	 DWORD PTR _point$[esp+12], edx

; 1054 : 	BltLockedOffscreen(point, sprite_id);

  0000f	8b 54 24 14	 mov	 edx, DWORD PTR _sprite_id$[esp+4]
  00013	89 04 24	 mov	 DWORD PTR _point$[esp+8], eax
  00016	8b 01		 mov	 eax, DWORD PTR [ecx]
  00018	52		 push	 edx
  00019	ff 50 38	 call	 DWORD PTR [eax+56]
  0001c	8b 0d 00 00 00
	00		 mov	 ecx, DWORD PTR ?gpC_base@@3PAVBase@@A ; gpC_base
  00022	50		 push	 eax
  00023	8d 44 24 04	 lea	 eax, DWORD PTR _point$[esp+12]
  00027	50		 push	 eax
  00028	83 c1 08	 add	 ecx, 8
  0002b	e8 00 00 00 00	 call	 ?BltSprite@CSpriteSurface@@QAEXPAUtagPOINT@@PAVCSprite@@@Z ; CSpriteSurface::BltSprite

; 1055 : }

  00030	83 c4 08	 add	 esp, 8
  00033	c2 0c 00	 ret	 12			; 0000000cH
?BltLockedOffscreen@C_SPRITE_PACK@@QAEXHHG@Z ENDP	; C_SPRITE_PACK::BltLockedOffscreen
_TEXT	ENDS
PUBLIC	?BltLockedOutline@C_SPRITE_PACK@@QAEXHHHG@Z	; C_SPRITE_PACK::BltLockedOutline
;	COMDAT xdata$x
xdata$x	SEGMENT
$T93324	DD	0ffffffffH
	DD	FLAT:$L93319
$T93321	DD	019930520H
	DD	01H
	DD	FLAT:$T93324
	DD	2 DUP(00H)
	DD	2 DUP(00H)
; Function compile flags: /Ogty
xdata$x	ENDS
;	COMDAT ?BltLockedOutline@C_SPRITE_PACK@@QAEXHHHG@Z
_TEXT	SEGMENT
_outline_o$ = -10660					; size = 10644
__$ArrayPad$ = -16					; size = 4
__$EHRec$ = -12						; size = 12
__$ReturnAddr$ = 4					; size = 4
_x$ = 8							; size = 4
_y$ = 12						; size = 4
_color$ = 16						; size = 4
_sprite_id$ = 20					; size = 2
?BltLockedOutline@C_SPRITE_PACK@@QAEXHHHG@Z PROC NEAR	; C_SPRITE_PACK::BltLockedOutline, COMDAT
; _this$ = ecx

; 1063 : {

  00000	6a ff		 push	 -1
  00002	64 a1 00 00 00
	00		 mov	 eax, DWORD PTR fs:__except_list
  00008	68 00 00 00 00	 push	 __ehhandler$?BltLockedOutline@C_SPRITE_PACK@@QAEXHHHG@Z
  0000d	50		 push	 eax
  0000e	b8 98 29 00 00	 mov	 eax, 10648		; 00002998H
  00013	64 89 25 00 00
	00 00		 mov	 DWORD PTR fs:__except_list, esp
  0001a	e8 00 00 00 00	 call	 __chkstk
  0001f	a1 00 00 00 00	 mov	 eax, DWORD PTR ___security_cookie
  00024	56		 push	 esi
  00025	8b f1		 mov	 esi, ecx
  00027	89 84 24 98 29
	00 00		 mov	 DWORD PTR __$ArrayPad$[esp+10664], eax

; 1064 : 	//CSprite *p_sprite = m_pC_spk_list->GetSprite(sprite_id);
; 1065 : 
; 1066 : 	//assert(p_sprite);
; 1067 : 
; 1068 : 	// focus   .
; 1069 : 	CSpriteOutlineManager	outline_o; //  .

  0002e	8d 4c 24 04	 lea	 ecx, DWORD PTR _outline_o$[esp+10664]
  00032	e8 00 00 00 00	 call	 ??0CSpriteOutlineManager@@QAE@XZ ; CSpriteOutlineManager::CSpriteOutlineManager

; 1070 : 
; 1071 : 	//   .
; 1072 : 	outline_o.Add(x, y, &m_SPK[sprite_id]);

  00037	8b 8c 24 b8 29
	00 00		 mov	 ecx, DWORD PTR _sprite_id$[esp+10660]
  0003e	8b 06		 mov	 eax, DWORD PTR [esi]
  00040	51		 push	 ecx
  00041	8b ce		 mov	 ecx, esi
  00043	c7 84 24 a8 29
	00 00 00 00 00
	00		 mov	 DWORD PTR __$EHRec$[esp+10676], 0
  0004e	ff 50 38	 call	 DWORD PTR [eax+56]
  00051	8b 94 24 b0 29
	00 00		 mov	 edx, DWORD PTR _y$[esp+10660]
  00058	50		 push	 eax
  00059	8b 84 24 b0 29
	00 00		 mov	 eax, DWORD PTR _x$[esp+10664]
  00060	52		 push	 edx
  00061	50		 push	 eax
  00062	8d 4c 24 10	 lea	 ecx, DWORD PTR _outline_o$[esp+10676]
  00066	e8 00 00 00 00	 call	 ?Add@CSpriteOutlineManager@@QAEXHHPAVCSprite@@@Z ; CSpriteOutlineManager::Add

; 1073 : 	outline_o.Generate();

  0006b	6a 00		 push	 0
  0006d	8d 4c 24 08	 lea	 ecx, DWORD PTR _outline_o$[esp+10668]
  00071	e8 00 00 00 00	 call	 ?Generate@CSpriteOutlineManager@@QAEXH@Z ; CSpriteOutlineManager::Generate

; 1074 : 
; 1075 : 	assert(gpC_base->m_p_DDSurface_back->IsLock());
; 1076 : 	gpC_base->m_p_DDSurface_back->BltSpriteOutline(&outline_o,  color);

  00076	8b 8c 24 b4 29
	00 00		 mov	 ecx, DWORD PTR _color$[esp+10660]
  0007d	a1 00 00 00 00	 mov	 eax, DWORD PTR ?gpC_base@@3PAVBase@@A ; gpC_base
  00082	51		 push	 ecx
  00083	8b 48 04	 mov	 ecx, DWORD PTR [eax+4]
  00086	8d 54 24 08	 lea	 edx, DWORD PTR _outline_o$[esp+10668]
  0008a	52		 push	 edx
  0008b	e8 00 00 00 00	 call	 ?BltSpriteOutline@CSpriteSurface@@QAEXPAVCSpriteOutlineManager@@G@Z ; CSpriteSurface::BltSpriteOutline

; 1077 : 
; 1078 : 	outline_o.Clear();

  00090	8d 4c 24 04	 lea	 ecx, DWORD PTR _outline_o$[esp+10664]
  00094	e8 00 00 00 00	 call	 ?Clear@CSpriteOutlineManager@@QAEXXZ ; CSpriteOutlineManager::Clear

; 1079 : }

  00099	8d 4c 24 04	 lea	 ecx, DWORD PTR _outline_o$[esp+10664]
  0009d	c7 84 24 a4 29
	00 00 ff ff ff
	ff		 mov	 DWORD PTR __$EHRec$[esp+10672], -1
  000a8	e8 00 00 00 00	 call	 ??1CSpriteOutlineManager@@QAE@XZ ; CSpriteOutlineManager::~CSpriteOutlineManager
  000ad	8b 8c 24 9c 29
	00 00		 mov	 ecx, DWORD PTR __$EHRec$[esp+10664]
  000b4	64 89 0d 00 00
	00 00		 mov	 DWORD PTR fs:__except_list, ecx
  000bb	8b 8c 24 98 29
	00 00		 mov	 ecx, DWORD PTR __$ArrayPad$[esp+10664]
  000c2	5e		 pop	 esi
  000c3	e8 00 00 00 00	 call	 @__security_check_cookie@4
  000c8	81 c4 a4 29 00
	00		 add	 esp, 10660		; 000029a4H
  000ce	c2 10 00	 ret	 16			; 00000010H
_TEXT	ENDS
;	COMDAT text$x
text$x	SEGMENT
$L93319:
  00000	8d 8d 5c d6 ff
	ff		 lea	 ecx, DWORD PTR _outline_o$[ebp]
  00006	e9 00 00 00 00	 jmp	 ??1CSpriteOutlineManager@@QAE@XZ ; CSpriteOutlineManager::~CSpriteOutlineManager
__ehhandler$?BltLockedOutline@C_SPRITE_PACK@@QAEXHHHG@Z:
  0000b	b8 00 00 00 00	 mov	 eax, OFFSET FLAT:$T93321
  00010	e9 00 00 00 00	 jmp	 ___CxxFrameHandler
text$x	ENDS
?BltLockedOutline@C_SPRITE_PACK@@QAEXHHHG@Z ENDP	; C_SPRITE_PACK::BltLockedOutline
PUBLIC	?BltLockedColor@C_SPRITE_PACK@@QAEXHHGH@Z	; C_SPRITE_PACK::BltLockedColor
; Function compile flags: /Ogty
;	COMDAT ?BltLockedColor@C_SPRITE_PACK@@QAEXHHGH@Z
_TEXT	SEGMENT
_point$ = -8						; size = 8
_x$ = 8							; size = 4
_y$ = 12						; size = 4
_sprite_id$ = 16					; size = 2
_rgb$ = 20						; size = 4
?BltLockedColor@C_SPRITE_PACK@@QAEXHHGH@Z PROC NEAR	; C_SPRITE_PACK::BltLockedColor, COMDAT
; _this$ = ecx

; 1087 : {

  00000	83 ec 08	 sub	 esp, 8

; 1088 : 	//assert(sprite_id >= 0);
; 1089 : 
; 1090 : 	//CSprite *p_sprite = m_pC_spk_list->GetSprite(sprite_id);
; 1091 : 
; 1092 : 	//assert(p_sprite);
; 1093 : 
; 1094 : 	POINT point;
; 1095 : 	point.x = x;

  00003	8b 44 24 0c	 mov	 eax, DWORD PTR _x$[esp+4]

; 1096 : 	point.y = y;

  00007	8b 54 24 10	 mov	 edx, DWORD PTR _y$[esp+4]
  0000b	89 04 24	 mov	 DWORD PTR _point$[esp+8], eax

; 1097 : 
; 1098 : 	assert(gpC_base->m_p_DDSurface_back->IsLock());
; 1099 : 	gpC_base->m_p_DDSurface_back->BltSpriteColor(&point, &m_SPK[sprite_id], rgb);

  0000e	8b 44 24 18	 mov	 eax, DWORD PTR _rgb$[esp+4]
  00012	50		 push	 eax
  00013	8b 44 24 18	 mov	 eax, DWORD PTR _sprite_id$[esp+8]
  00017	89 54 24 08	 mov	 DWORD PTR _point$[esp+16], edx
  0001b	8b 11		 mov	 edx, DWORD PTR [ecx]
  0001d	50		 push	 eax
  0001e	ff 52 38	 call	 DWORD PTR [edx+56]
  00021	8b 15 00 00 00
	00		 mov	 edx, DWORD PTR ?gpC_base@@3PAVBase@@A ; gpC_base
  00027	50		 push	 eax
  00028	8d 4c 24 08	 lea	 ecx, DWORD PTR _point$[esp+16]
  0002c	51		 push	 ecx
  0002d	8b 4a 04	 mov	 ecx, DWORD PTR [edx+4]
  00030	e8 00 00 00 00	 call	 ?BltSpriteColor@CSpriteSurface@@QAEXPAUtagPOINT@@PAVCSprite@@E@Z ; CSpriteSurface::BltSpriteColor

; 1100 : }

  00035	83 c4 08	 add	 esp, 8
  00038	c2 10 00	 ret	 16			; 00000010H
?BltLockedColor@C_SPRITE_PACK@@QAEXHHGH@Z ENDP		; C_SPRITE_PACK::BltLockedColor
_TEXT	ENDS
PUBLIC	?BltLockedDarkness@C_SPRITE_PACK@@QAEXHHGH@Z	; C_SPRITE_PACK::BltLockedDarkness
; Function compile flags: /Ogty
;	COMDAT ?BltLockedDarkness@C_SPRITE_PACK@@QAEXHHGH@Z
_TEXT	SEGMENT
_point$ = -8						; size = 8
_x$ = 8							; size = 4
_y$ = 12						; size = 4
_sprite_id$ = 16					; size = 2
_dark$ = 20						; size = 4
?BltLockedDarkness@C_SPRITE_PACK@@QAEXHHGH@Z PROC NEAR	; C_SPRITE_PACK::BltLockedDarkness, COMDAT
; _this$ = ecx

; 1108 : {

  00000	83 ec 08	 sub	 esp, 8

; 1109 : 	//assert(sprite_id >= 0);
; 1110 : 
; 1111 : 	//CSprite *p_sprite = m_pC_spk_list->GetSprite(sprite_id);
; 1112 : 
; 1113 : 	//assert(p_sprite);
; 1114 : 
; 1115 : 	POINT point;
; 1116 : 	point.x = x;

  00003	8b 44 24 0c	 mov	 eax, DWORD PTR _x$[esp+4]

; 1117 : 	point.y = y;

  00007	8b 54 24 10	 mov	 edx, DWORD PTR _y$[esp+4]
  0000b	89 04 24	 mov	 DWORD PTR _point$[esp+8], eax

; 1118 : 
; 1119 : 	assert(gpC_base->m_p_DDSurface_back->IsLock());
; 1120 : 	gpC_base->m_p_DDSurface_back->BltSpriteDarkness(&point, &m_SPK[sprite_id], dark);

  0000e	8b 44 24 18	 mov	 eax, DWORD PTR _dark$[esp+4]
  00012	50		 push	 eax
  00013	8b 44 24 18	 mov	 eax, DWORD PTR _sprite_id$[esp+8]
  00017	89 54 24 08	 mov	 DWORD PTR _point$[esp+16], edx
  0001b	8b 11		 mov	 edx, DWORD PTR [ecx]
  0001d	50		 push	 eax
  0001e	ff 52 38	 call	 DWORD PTR [edx+56]
  00021	8b 15 00 00 00
	00		 mov	 edx, DWORD PTR ?gpC_base@@3PAVBase@@A ; gpC_base
  00027	50		 push	 eax
  00028	8d 4c 24 08	 lea	 ecx, DWORD PTR _point$[esp+16]
  0002c	51		 push	 ecx
  0002d	8b 4a 04	 mov	 ecx, DWORD PTR [edx+4]
  00030	e8 00 00 00 00	 call	 ?BltSpriteDarkness@CSpriteSurface@@QAEXPAUtagPOINT@@PAVCSprite@@E@Z ; CSpriteSurface::BltSpriteDarkness

; 1121 : }

  00035	83 c4 08	 add	 esp, 8
  00038	c2 10 00	 ret	 16			; 00000010H
?BltLockedDarkness@C_SPRITE_PACK@@QAEXHHGH@Z ENDP	; C_SPRITE_PACK::BltLockedDarkness
_TEXT	ENDS
PUBLIC	?BltLockedClip@C_SPRITE_PACK@@QAEXHHAAVRect@@G@Z ; C_SPRITE_PACK::BltLockedClip
; Function compile flags: /Ogty
;	COMDAT ?BltLockedClip@C_SPRITE_PACK@@QAEXHHAAVRect@@G@Z
_TEXT	SEGMENT
_this$ = -36						; size = 4
_rt$ = -32						; size = 16
_surface_info$ = -16					; size = 16
_x$ = 8							; size = 4
_y$ = 12						; size = 4
_rect$ = 16						; size = 4
_sprite_id$ = 20					; size = 2
?BltLockedClip@C_SPRITE_PACK@@QAEXHHAAVRect@@G@Z PROC NEAR ; C_SPRITE_PACK::BltLockedClip, COMDAT
; _this$ = ecx

; 1130 : {

  00000	83 ec 24	 sub	 esp, 36			; 00000024H

; 1131 : 	//assert(sprite_id >= 0);
; 1132 : 
; 1133 : 	//CSprite *p_sprite = m_pC_spk_list->GetSprite(sprite_id);
; 1134 : 
; 1135 : 	//assert(p_sprite);
; 1136 : //OutputDebugString("party 3.0001\n");
; 1137 : 	assert(gpC_base->m_p_DDSurface_back->IsLock());
; 1138 : 
; 1139 : 	S_SURFACEINFO surface_info;
; 1140 : 	SetSurfaceInfo(&surface_info, gpC_base->m_p_DDSurface_back->GetDDSD());

  00003	8d 44 24 14	 lea	 eax, DWORD PTR _surface_info$[esp+36]
  00007	68 00 00 00 00	 push	 OFFSET FLAT:?m_ddsd@CDirectDraw@@1U_DDSURFACEDESC2@@A ; CDirectDraw::m_ddsd
  0000c	50		 push	 eax
  0000d	89 4c 24 08	 mov	 DWORD PTR _this$[esp+44], ecx
  00011	ff 15 00 00 00
	00		 call	 DWORD PTR __imp_?SetSurfaceInfo@@YAXPAUS_SURFACEINFO@@PBU_DDSURFACEDESC2@@@Z

; 1141 : //OutputDebugString("party 3.0002\n");	
; 1142 : 	RECT rt;
; 1143 : 	rt.left = max(-x, rect.x);

  00017	8b 44 24 30	 mov	 eax, DWORD PTR _x$[esp+40]
  0001b	8b 4c 24 38	 mov	 ecx, DWORD PTR _rect$[esp+40]
  0001f	8b 11		 mov	 edx, DWORD PTR [ecx]
  00021	f7 d8		 neg	 eax
  00023	83 c4 08	 add	 esp, 8
  00026	3b c2		 cmp	 eax, edx
  00028	89 44 24 04	 mov	 DWORD PTR _rt$[esp+36], eax
  0002c	7f 04		 jg	 SHORT $L93337
  0002e	89 54 24 04	 mov	 DWORD PTR _rt$[esp+36], edx
$L93337:
  00032	53		 push	 ebx

; 1144 : 	rt.top = max(-y, rect.y);

  00033	8b 5c 24 30	 mov	 ebx, DWORD PTR _y$[esp+36]
  00037	55		 push	 ebp
  00038	8b c3		 mov	 eax, ebx
  0003a	57		 push	 edi
  0003b	8b 79 04	 mov	 edi, DWORD PTR [ecx+4]
  0003e	f7 d8		 neg	 eax
  00040	3b c7		 cmp	 eax, edi
  00042	8b e8		 mov	 ebp, eax
  00044	7f 02		 jg	 SHORT $L93347
  00046	8b ef		 mov	 ebp, edi
$L93347:

; 1145 : 	rt.right = min(rect.x+rect.w, g_pUserInformation->iResolution_x-x);

  00048	8b 41 08	 mov	 eax, DWORD PTR [ecx+8]
  0004b	56		 push	 esi
  0004c	8b 35 00 00 00
	00		 mov	 esi, DWORD PTR ?g_pUserInformation@@3PAVUserInformation@@A ; g_pUserInformation
  00052	03 d0		 add	 edx, eax
  00054	89 6c 24 18	 mov	 DWORD PTR _rt$[esp+56], ebp
  00058	8b 86 4c 01 00
	00		 mov	 eax, DWORD PTR [esi+332]
  0005e	2b 44 24 38	 sub	 eax, DWORD PTR _x$[esp+48]
  00062	3b d0		 cmp	 edx, eax
  00064	7c 02		 jl	 SHORT $L93348
  00066	8b d0		 mov	 edx, eax
$L93348:

; 1146 : 	rt.bottom = min(rect.y+rect.h, g_pUserInformation->iResolution_y-y);

  00068	8b 49 0c	 mov	 ecx, DWORD PTR [ecx+12]
  0006b	89 54 24 1c	 mov	 DWORD PTR _rt$[esp+60], edx
  0006f	8b 86 50 01 00
	00		 mov	 eax, DWORD PTR [esi+336]
  00075	03 cf		 add	 ecx, edi
  00077	2b c3		 sub	 eax, ebx
  00079	3b c8		 cmp	 ecx, eax
  0007b	5e		 pop	 esi
  0007c	7d 02		 jge	 SHORT $L93342
  0007e	8b c1		 mov	 eax, ecx
$L93342:

; 1147 : 
; 1148 : //#ifdef CONVERT_1024_768
; 1149 : //	rt.right = min(rect.x+rect.w, RESOLUTION_X-x);
; 1150 : //	rt.bottom = min(rect.y+rect.h, RESOLUTION_Y-y);
; 1151 : //#else
; 1152 : //	rt.right = min(rect.x+rect.w, 800-x);
; 1153 : //	rt.bottom = min(rect.y+rect.h, 600-y);
; 1154 : //#endif	
; 1155 : 	if(rt.left >= rt.right || rt.top >= rt.bottom)return;

  00080	8b 4c 24 10	 mov	 ecx, DWORD PTR _rt$[esp+48]
  00084	3b ca		 cmp	 ecx, edx
  00086	89 44 24 1c	 mov	 DWORD PTR _rt$[esp+60], eax
  0008a	7d 37		 jge	 SHORT $L89510
  0008c	3b e8		 cmp	 ebp, eax
  0008e	7d 33		 jge	 SHORT $L89510

; 1156 : 
; 1157 : 	WORD * p_dest = (WORD *)surface_info.p_surface+x+rt.left;
; 1158 : 	p_dest = (WORD *)((BYTE *)p_dest+(y+rt.top)*surface_info.pitch);

  00090	8b 44 24 2c	 mov	 eax, DWORD PTR _surface_info$[esp+60]
  00094	8b 54 24 34	 mov	 edx, DWORD PTR _x$[esp+44]
  00098	03 eb		 add	 ebp, ebx
  0009a	0f af e8	 imul	 ebp, eax
  0009d	03 ca		 add	 ecx, edx

; 1159 : //OutputDebugString("party 3.0003\n");
; 1160 : 	//void BltClip(WORD *pDest, WORD pitch, RECT* pRect); // in CSprite.h
; 1161 : 	m_SPK[sprite_id].BltClipWidth(p_dest, surface_info.pitch, &rt);

  0009f	03 6c 24 20	 add	 ebp, DWORD PTR _surface_info$[esp+48]
  000a3	8d 54 24 10	 lea	 edx, DWORD PTR _rt$[esp+48]
  000a7	52		 push	 edx
  000a8	8b 54 24 44	 mov	 edx, DWORD PTR _sprite_id$[esp+48]
  000ac	50		 push	 eax
  000ad	8d 4c 4d 00	 lea	 ecx, DWORD PTR [ebp+ecx*2]
  000b1	51		 push	 ecx
  000b2	8b 4c 24 18	 mov	 ecx, DWORD PTR _this$[esp+60]
  000b6	8b 01		 mov	 eax, DWORD PTR [ecx]
  000b8	52		 push	 edx
  000b9	ff 50 38	 call	 DWORD PTR [eax+56]
  000bc	8b c8		 mov	 ecx, eax
  000be	e8 00 00 00 00	 call	 ?BltClipWidth@CSprite@@QAEXPAGGPAUtagRECT@@@Z ; CSprite::BltClipWidth
$L89510:
  000c3	5f		 pop	 edi
  000c4	5d		 pop	 ebp
  000c5	5b		 pop	 ebx

; 1162 : //OutputDebugString("party 3.0004\n");
; 1163 : }

  000c6	83 c4 24	 add	 esp, 36			; 00000024H
  000c9	c2 10 00	 ret	 16			; 00000010H
?BltLockedClip@C_SPRITE_PACK@@QAEXHHAAVRect@@G@Z ENDP	; C_SPRITE_PACK::BltLockedClip
_TEXT	ENDS
PUBLIC	?BltLockedAlpha@C_SPRITE_PACK@@QAEXAAUtagPOINT@@GH@Z ; C_SPRITE_PACK::BltLockedAlpha
; Function compile flags: /Ogty
;	COMDAT ?BltLockedAlpha@C_SPRITE_PACK@@QAEXAAUtagPOINT@@GH@Z
_TEXT	SEGMENT
_point$ = 8						; size = 4
_sprite_id$ = 12					; size = 2
_alpha$ = 16						; size = 4
?BltLockedAlpha@C_SPRITE_PACK@@QAEXAAUtagPOINT@@GH@Z PROC NEAR ; C_SPRITE_PACK::BltLockedAlpha, COMDAT
; _this$ = ecx

; 1181 : 	//assert(sprite_id >= 0);
; 1182 : 
; 1183 : 	//CSprite *p_sprite = m_pC_spk_list->GetSprite(sprite_id);
; 1184 : 
; 1185 : 	//assert(p_sprite);
; 1186 : 
; 1187 : 	assert(gpC_base->m_p_DDSurface_back->IsLock());
; 1188 : 	gpC_base->m_p_DDSurface_back->BltSpriteAlpha(&point, &m_SPK[sprite_id], alpha);

  00000	8b 44 24 0c	 mov	 eax, DWORD PTR _alpha$[esp-4]
  00004	8b 11		 mov	 edx, DWORD PTR [ecx]
  00006	50		 push	 eax
  00007	8b 44 24 0c	 mov	 eax, DWORD PTR _sprite_id$[esp]
  0000b	50		 push	 eax
  0000c	ff 52 38	 call	 DWORD PTR [edx+56]
  0000f	8b 4c 24 08	 mov	 ecx, DWORD PTR _point$[esp]
  00013	8b 15 00 00 00
	00		 mov	 edx, DWORD PTR ?gpC_base@@3PAVBase@@A ; gpC_base
  00019	50		 push	 eax
  0001a	51		 push	 ecx
  0001b	8b 4a 04	 mov	 ecx, DWORD PTR [edx+4]
  0001e	e8 00 00 00 00	 call	 ?BltSpriteAlpha@CSpriteSurface@@QAEXPAUtagPOINT@@PAVCSprite@@E@Z ; CSpriteSurface::BltSpriteAlpha

; 1189 : 
; 1190 : }

  00023	c2 0c 00	 ret	 12			; 0000000cH
?BltLockedAlpha@C_SPRITE_PACK@@QAEXAAUtagPOINT@@GH@Z ENDP ; C_SPRITE_PACK::BltLockedAlpha
_TEXT	ENDS
PUBLIC	?BltLockedColorSet@C_SPRITE_PACK@@QAEXAAUtagPOINT@@GG@Z ; C_SPRITE_PACK::BltLockedColorSet
EXTRN	?BltSpriteColorSet@CSpriteSurface@@QAEXPAUtagPOINT@@PAVCSprite@@G@Z:NEAR ; CSpriteSurface::BltSpriteColorSet
; Function compile flags: /Ogty
;	COMDAT ?BltLockedColorSet@C_SPRITE_PACK@@QAEXAAUtagPOINT@@GG@Z
_TEXT	SEGMENT
_point$ = 8						; size = 4
_sprite_id$ = 12					; size = 2
_colorset$ = 16						; size = 2
?BltLockedColorSet@C_SPRITE_PACK@@QAEXAAUtagPOINT@@GG@Z PROC NEAR ; C_SPRITE_PACK::BltLockedColorSet, COMDAT
; _this$ = ecx

; 1194 : 	assert(gpC_base->m_p_DDSurface_back->IsLock());
; 1195 : 	gpC_base->m_p_DDSurface_back->BltSpriteColorSet(&point, &m_SPK[sprite_id], colorset);

  00000	8b 44 24 0c	 mov	 eax, DWORD PTR _colorset$[esp-4]
  00004	8b 11		 mov	 edx, DWORD PTR [ecx]
  00006	50		 push	 eax
  00007	8b 44 24 0c	 mov	 eax, DWORD PTR _sprite_id$[esp]
  0000b	50		 push	 eax
  0000c	ff 52 38	 call	 DWORD PTR [edx+56]
  0000f	8b 4c 24 08	 mov	 ecx, DWORD PTR _point$[esp]
  00013	8b 15 00 00 00
	00		 mov	 edx, DWORD PTR ?gpC_base@@3PAVBase@@A ; gpC_base
  00019	50		 push	 eax
  0001a	51		 push	 ecx
  0001b	8b 4a 04	 mov	 ecx, DWORD PTR [edx+4]
  0001e	e8 00 00 00 00	 call	 ?BltSpriteColorSet@CSpriteSurface@@QAEXPAUtagPOINT@@PAVCSprite@@G@Z ; CSpriteSurface::BltSpriteColorSet

; 1196 : }

  00023	c2 0c 00	 ret	 12			; 0000000cH
?BltLockedColorSet@C_SPRITE_PACK@@QAEXAAUtagPOINT@@GG@Z ENDP ; C_SPRITE_PACK::BltLockedColorSet
_TEXT	ENDS
PUBLIC	?BltLockedColorSet@C_SPRITE_PACK@@QAEXHHGG@Z	; C_SPRITE_PACK::BltLockedColorSet
; Function compile flags: /Ogty
;	COMDAT ?BltLockedColorSet@C_SPRITE_PACK@@QAEXHHGG@Z
_TEXT	SEGMENT
_point$ = -8						; size = 8
_x$ = 8							; size = 4
_y$ = 12						; size = 4
_sprite_id$ = 16					; size = 2
_colorset$ = 20						; size = 2
?BltLockedColorSet@C_SPRITE_PACK@@QAEXHHGG@Z PROC NEAR	; C_SPRITE_PACK::BltLockedColorSet, COMDAT
; _this$ = ecx

; 1200 : {

  00000	83 ec 08	 sub	 esp, 8

; 1201 : 	POINT point = {x, y};

  00003	8b 44 24 0c	 mov	 eax, DWORD PTR _x$[esp+4]
  00007	8b 54 24 10	 mov	 edx, DWORD PTR _y$[esp+4]
  0000b	89 04 24	 mov	 DWORD PTR _point$[esp+8], eax

; 1202 : 	BltLockedColorSet(point, sprite_id, colorset);

  0000e	8b 44 24 18	 mov	 eax, DWORD PTR _colorset$[esp+4]
  00012	50		 push	 eax
  00013	8b 44 24 18	 mov	 eax, DWORD PTR _sprite_id$[esp+8]
  00017	89 54 24 08	 mov	 DWORD PTR _point$[esp+16], edx
  0001b	8b 11		 mov	 edx, DWORD PTR [ecx]
  0001d	50		 push	 eax
  0001e	ff 52 38	 call	 DWORD PTR [edx+56]
  00021	8b 15 00 00 00
	00		 mov	 edx, DWORD PTR ?gpC_base@@3PAVBase@@A ; gpC_base
  00027	50		 push	 eax
  00028	8d 4c 24 08	 lea	 ecx, DWORD PTR _point$[esp+16]
  0002c	51		 push	 ecx
  0002d	8b 4a 04	 mov	 ecx, DWORD PTR [edx+4]
  00030	e8 00 00 00 00	 call	 ?BltSpriteColorSet@CSpriteSurface@@QAEXPAUtagPOINT@@PAVCSprite@@G@Z ; CSpriteSurface::BltSpriteColorSet

; 1203 : }

  00035	83 c4 08	 add	 esp, 8
  00038	c2 10 00	 ret	 16			; 00000010H
?BltLockedColorSet@C_SPRITE_PACK@@QAEXHHGG@Z ENDP	; C_SPRITE_PACK::BltLockedColorSet
_TEXT	ENDS
PUBLIC	??0C_SPRITE_FRAME_ARRAY@@QAE@XZ			; C_SPRITE_FRAME_ARRAY::C_SPRITE_FRAME_ARRAY
; Function compile flags: /Ogty
;	COMDAT ??0C_SPRITE_FRAME_ARRAY@@QAE@XZ
_TEXT	SEGMENT
??0C_SPRITE_FRAME_ARRAY@@QAE@XZ PROC NEAR		; C_SPRITE_FRAME_ARRAY::C_SPRITE_FRAME_ARRAY, COMDAT
; _this$ = ecx

; 1211 : {

  00000	8b c1		 mov	 eax, ecx

; 1212 : 	m_size = 0;

  00002	c7 00 00 00 00
	00		 mov	 DWORD PTR [eax], 0

; 1213 : 	m_pC_sprite_frame_buf = NULL;

  00008	c7 40 04 00 00
	00 00		 mov	 DWORD PTR [eax+4], 0

; 1214 : }

  0000f	c3		 ret	 0
??0C_SPRITE_FRAME_ARRAY@@QAE@XZ ENDP			; C_SPRITE_FRAME_ARRAY::C_SPRITE_FRAME_ARRAY
_TEXT	ENDS
PUBLIC	??1C_SPRITE_FRAME_ARRAY@@QAE@XZ			; C_SPRITE_FRAME_ARRAY::~C_SPRITE_FRAME_ARRAY
EXTRN	_free:NEAR
; Function compile flags: /Ogty
;	COMDAT ??1C_SPRITE_FRAME_ARRAY@@QAE@XZ
_TEXT	SEGMENT
??1C_SPRITE_FRAME_ARRAY@@QAE@XZ PROC NEAR		; C_SPRITE_FRAME_ARRAY::~C_SPRITE_FRAME_ARRAY, COMDAT
; _this$ = ecx

; 1222 : {

  00000	56		 push	 esi
  00001	8b f1		 mov	 esi, ecx

; 1223 : 	if (m_pC_sprite_frame_buf)

  00003	8b 46 04	 mov	 eax, DWORD PTR [esi+4]
  00006	85 c0		 test	 eax, eax
  00008	74 10		 je	 SHORT $L89551

; 1224 : 	{
; 1225 : 		free(m_pC_sprite_frame_buf);

  0000a	50		 push	 eax
  0000b	e8 00 00 00 00	 call	 _free
  00010	83 c4 04	 add	 esp, 4

; 1226 : 		m_pC_sprite_frame_buf = NULL;

  00013	c7 46 04 00 00
	00 00		 mov	 DWORD PTR [esi+4], 0
$L89551:
  0001a	5e		 pop	 esi

; 1227 : 	}
; 1228 : }

  0001b	c3		 ret	 0
??1C_SPRITE_FRAME_ARRAY@@QAE@XZ ENDP			; C_SPRITE_FRAME_ARRAY::~C_SPRITE_FRAME_ARRAY
_TEXT	ENDS
PUBLIC	?AddSpriteFrame@C_SPRITE_FRAME_ARRAY@@QAEXPAVC_SPRITE_FRAME@@@Z ; C_SPRITE_FRAME_ARRAY::AddSpriteFrame
EXTRN	_realloc:NEAR
; Function compile flags: /Ogty
;	COMDAT ?AddSpriteFrame@C_SPRITE_FRAME_ARRAY@@QAEXPAVC_SPRITE_FRAME@@@Z
_TEXT	SEGMENT
_pC_sf$ = 8						; size = 4
?AddSpriteFrame@C_SPRITE_FRAME_ARRAY@@QAEXPAVC_SPRITE_FRAME@@@Z PROC NEAR ; C_SPRITE_FRAME_ARRAY::AddSpriteFrame, COMDAT
; _this$ = ecx

; 1236 : {

  00000	56		 push	 esi
  00001	8b f1		 mov	 esi, ecx

; 1237 : 	m_pC_sprite_frame_buf = (C_SPRITE_FRAME *)realloc(m_pC_sprite_frame_buf, sizeof(C_SPRITE_FRAME)*(m_size+1));

  00003	8b 06		 mov	 eax, DWORD PTR [esi]
  00005	8b 56 04	 mov	 edx, DWORD PTR [esi+4]
  00008	57		 push	 edi
  00009	8d 0c c5 08 00
	00 00		 lea	 ecx, DWORD PTR [eax*8+8]
  00010	51		 push	 ecx
  00011	52		 push	 edx
  00012	e8 00 00 00 00	 call	 _realloc

; 1238 : 
; 1239 : 	m_pC_sprite_frame_buf[m_size] = *pC_sf;

  00017	8b 16		 mov	 edx, DWORD PTR [esi]
  00019	8b 4c 24 14	 mov	 ecx, DWORD PTR _pC_sf$[esp+12]
  0001d	89 46 04	 mov	 DWORD PTR [esi+4], eax
  00020	8b 39		 mov	 edi, DWORD PTR [ecx]
  00022	89 3c d0	 mov	 DWORD PTR [eax+edx*8], edi
  00025	8b 49 04	 mov	 ecx, DWORD PTR [ecx+4]
  00028	89 4c d0 04	 mov	 DWORD PTR [eax+edx*8+4], ecx

; 1240 : 	m_size++;

  0002c	8b 06		 mov	 eax, DWORD PTR [esi]
  0002e	83 c4 08	 add	 esp, 8
  00031	40		 inc	 eax
  00032	5f		 pop	 edi
  00033	89 06		 mov	 DWORD PTR [esi], eax
  00035	5e		 pop	 esi

; 1241 : }

  00036	c2 04 00	 ret	 4
?AddSpriteFrame@C_SPRITE_FRAME_ARRAY@@QAEXPAVC_SPRITE_FRAME@@@Z ENDP ; C_SPRITE_FRAME_ARRAY::AddSpriteFrame
_TEXT	ENDS
PUBLIC	?GetRX@C_SPRITE_FRAME_ARRAY@@QAEHH@Z		; C_SPRITE_FRAME_ARRAY::GetRX
; Function compile flags: /Ogty
;	COMDAT ?GetRX@C_SPRITE_FRAME_ARRAY@@QAEHH@Z
_TEXT	SEGMENT
_index$ = 8						; size = 4
?GetRX@C_SPRITE_FRAME_ARRAY@@QAEHH@Z PROC NEAR		; C_SPRITE_FRAME_ARRAY::GetRX, COMDAT
; _this$ = ecx

; 1249 : {

  00000	56		 push	 esi

; 1250 : 	if (index == NO_SPRITE_ID)

  00001	8b 74 24 08	 mov	 esi, DWORD PTR _index$[esp]
  00005	83 fe ff	 cmp	 esi, -1
  00008	57		 push	 edi
  00009	8b f9		 mov	 edi, ecx
  0000b	75 07		 jne	 SHORT $L89562
  0000d	5f		 pop	 edi

; 1251 : 		return 0;

  0000e	33 c0		 xor	 eax, eax
  00010	5e		 pop	 esi

; 1257 : }

  00011	c2 04 00	 ret	 4
$L89562:

; 1252 : 
; 1253 : 	if (index < 0 || index >= m_size)

  00014	85 f6		 test	 esi, esi
  00016	7c 04		 jl	 SHORT $L89564
  00018	3b 37		 cmp	 esi, DWORD PTR [edi]
  0001a	7c 16		 jl	 SHORT $L89563
$L89564:

; 1254 : 		_Error(FAILED_JOB);

  0001c	68 e6 04 00 00	 push	 1254			; 000004e6H
  00021	68 00 00 00 00	 push	 OFFSET FLAT:??_C@_0EB@GFEIDDHE@?2darkeden?2Designed_Common?2Projec@
  00026	6a 00		 push	 0
  00028	6a 04		 push	 4
  0002a	e8 00 00 00 00	 call	 ?g_BasicException@@YAXW4EXCEPTION_CODE@@PAD1K@Z ; g_BasicException
  0002f	83 c4 10	 add	 esp, 16			; 00000010H
$L89563:

; 1255 : 
; 1256 : 	return m_pC_sprite_frame_buf[index].GetRX();

  00032	8b 47 04	 mov	 eax, DWORD PTR [edi+4]
  00035	8b 04 f0	 mov	 eax, DWORD PTR [eax+esi*8]
  00038	5f		 pop	 edi
  00039	5e		 pop	 esi

; 1257 : }

  0003a	c2 04 00	 ret	 4
?GetRX@C_SPRITE_FRAME_ARRAY@@QAEHH@Z ENDP		; C_SPRITE_FRAME_ARRAY::GetRX
_TEXT	ENDS
PUBLIC	?GetRY@C_SPRITE_FRAME_ARRAY@@QAEHH@Z		; C_SPRITE_FRAME_ARRAY::GetRY
; Function compile flags: /Ogty
;	COMDAT ?GetRY@C_SPRITE_FRAME_ARRAY@@QAEHH@Z
_TEXT	SEGMENT
_index$ = 8						; size = 4
?GetRY@C_SPRITE_FRAME_ARRAY@@QAEHH@Z PROC NEAR		; C_SPRITE_FRAME_ARRAY::GetRY, COMDAT
; _this$ = ecx

; 1265 : {

  00000	56		 push	 esi

; 1266 : 	if (index == NO_SPRITE_ID)

  00001	8b 74 24 08	 mov	 esi, DWORD PTR _index$[esp]
  00005	83 fe ff	 cmp	 esi, -1
  00008	57		 push	 edi
  00009	8b f9		 mov	 edi, ecx
  0000b	75 07		 jne	 SHORT $L89569
  0000d	5f		 pop	 edi

; 1267 : 		return 0;

  0000e	33 c0		 xor	 eax, eax
  00010	5e		 pop	 esi

; 1273 : }

  00011	c2 04 00	 ret	 4
$L89569:

; 1268 : 
; 1269 : 	if (index < 0 || index >= m_size)

  00014	85 f6		 test	 esi, esi
  00016	7c 04		 jl	 SHORT $L89571
  00018	3b 37		 cmp	 esi, DWORD PTR [edi]
  0001a	7c 16		 jl	 SHORT $L89570
$L89571:

; 1270 : 		_Error(FAILED_JOB);

  0001c	68 f6 04 00 00	 push	 1270			; 000004f6H
  00021	68 00 00 00 00	 push	 OFFSET FLAT:??_C@_0EB@GFEIDDHE@?2darkeden?2Designed_Common?2Projec@
  00026	6a 00		 push	 0
  00028	6a 04		 push	 4
  0002a	e8 00 00 00 00	 call	 ?g_BasicException@@YAXW4EXCEPTION_CODE@@PAD1K@Z ; g_BasicException
  0002f	83 c4 10	 add	 esp, 16			; 00000010H
$L89570:

; 1271 : 
; 1272 : 	return m_pC_sprite_frame_buf[index].GetRY();

  00032	8b 47 04	 mov	 eax, DWORD PTR [edi+4]
  00035	8b 44 f0 04	 mov	 eax, DWORD PTR [eax+esi*8+4]
  00039	5f		 pop	 edi
  0003a	5e		 pop	 esi

; 1273 : }

  0003b	c2 04 00	 ret	 4
?GetRY@C_SPRITE_FRAME_ARRAY@@QAEHH@Z ENDP		; C_SPRITE_FRAME_ARRAY::GetRY
_TEXT	ENDS
PUBLIC	??0C_SPRITE_FRAME@@QAE@XZ			; C_SPRITE_FRAME::C_SPRITE_FRAME
; Function compile flags: /Ogty
;	COMDAT ??0C_SPRITE_FRAME@@QAE@XZ
_TEXT	SEGMENT
??0C_SPRITE_FRAME@@QAE@XZ PROC NEAR			; C_SPRITE_FRAME::C_SPRITE_FRAME, COMDAT
; _this$ = ecx

; 1281 : {

  00000	8b c1		 mov	 eax, ecx

; 1282 : 	m_rx = 0;

  00002	c7 00 00 00 00
	00		 mov	 DWORD PTR [eax], 0

; 1283 : 	m_ry = 0;

  00008	c7 40 04 00 00
	00 00		 mov	 DWORD PTR [eax+4], 0

; 1284 : }

  0000f	c3		 ret	 0
??0C_SPRITE_FRAME@@QAE@XZ ENDP				; C_SPRITE_FRAME::C_SPRITE_FRAME
_TEXT	ENDS
PUBLIC	??1C_SPRITE_FRAME@@QAE@XZ			; C_SPRITE_FRAME::~C_SPRITE_FRAME
; Function compile flags: /Ogty
;	COMDAT ??1C_SPRITE_FRAME@@QAE@XZ
_TEXT	SEGMENT
??1C_SPRITE_FRAME@@QAE@XZ PROC NEAR			; C_SPRITE_FRAME::~C_SPRITE_FRAME, COMDAT
; _this$ = ecx

; 1293 : 
; 1294 : }

  00000	c3		 ret	 0
??1C_SPRITE_FRAME@@QAE@XZ ENDP				; C_SPRITE_FRAME::~C_SPRITE_FRAME
_TEXT	ENDS
PUBLIC	?eq_int_type@?$__char_traits_base@DH@_STL@@SA_NABH0@Z ; _STL::__char_traits_base<char,int>::eq_int_type
; Function compile flags: /Ogty
; File c:\stlport-4.6.1\stlport\stl\char_traits.h
;	COMDAT ?eq_int_type@?$__char_traits_base@DH@_STL@@SA_NABH0@Z
_TEXT	SEGMENT
___c1$ = 8						; size = 4
___c2$ = 12						; size = 4
?eq_int_type@?$__char_traits_base@DH@_STL@@SA_NABH0@Z PROC NEAR ; _STL::__char_traits_base<char,int>::eq_int_type, COMDAT

; 193  :     return __c1 == __c2;

  00000	8b 44 24 04	 mov	 eax, DWORD PTR ___c1$[esp-4]
  00004	8b 00		 mov	 eax, DWORD PTR [eax]
  00006	8b 4c 24 08	 mov	 ecx, DWORD PTR ___c2$[esp-4]
  0000a	2b 01		 sub	 eax, DWORD PTR [ecx]
  0000c	f7 d8		 neg	 eax
  0000e	1b c0		 sbb	 eax, eax
  00010	40		 inc	 eax

; 194  :   }

  00011	c3		 ret	 0
?eq_int_type@?$__char_traits_base@DH@_STL@@SA_NABH0@Z ENDP ; _STL::__char_traits_base<char,int>::eq_int_type
_TEXT	ENDS
PUBLIC	?is_open@?$basic_filebuf@DV?$char_traits@D@_STL@@@_STL@@QBE_NXZ ; _STL::basic_filebuf<char,_STL::char_traits<char> >::is_open
; Function compile flags: /Ogty
; File c:\stlport-4.6.1\stlport\stl\_fstream.h
;	COMDAT ?is_open@?$basic_filebuf@DV?$char_traits@D@_STL@@@_STL@@QBE_NXZ
_TEXT	SEGMENT
?is_open@?$basic_filebuf@DV?$char_traits@D@_STL@@@_STL@@QBE_NXZ PROC NEAR ; _STL::basic_filebuf<char,_STL::char_traits<char> >::is_open, COMDAT
; _this$ = ecx

; 198  :   bool is_open() const { return _M_base.__is_open(); }

  00000	8a 51 60	 mov	 dl, BYTE PTR [ecx+96]
  00003	33 c0		 xor	 eax, eax
  00005	84 d2		 test	 dl, dl
  00007	0f 95 c0	 setne	 al
  0000a	c3		 ret	 0
?is_open@?$basic_filebuf@DV?$char_traits@D@_STL@@@_STL@@QBE_NXZ ENDP ; _STL::basic_filebuf<char,_STL::char_traits<char> >::is_open
_TEXT	ENDS
PUBLIC	?eof@?$__char_traits_base@DH@_STL@@SAHXZ	; _STL::__char_traits_base<char,int>::eof
; Function compile flags: /Ogty
; File c:\stlport-4.6.1\stlport\stl\char_traits.h
;	COMDAT ?eof@?$__char_traits_base@DH@_STL@@SAHXZ
_TEXT	SEGMENT
?eof@?$__char_traits_base@DH@_STL@@SAHXZ PROC NEAR	; _STL::__char_traits_base<char,int>::eof, COMDAT

; 197  :     return (int_type)-1;

  00000	83 c8 ff	 or	 eax, -1

; 198  :     //    return __STATIC_CAST(int_type,-1);
; 199  :   }

  00003	c3		 ret	 0
?eof@?$__char_traits_base@DH@_STL@@SAHXZ ENDP		; _STL::__char_traits_base<char,int>::eof
_TEXT	ENDS
PUBLIC	?GetSize@?$TArray@VCFrame@@G@@QBEGXZ		; TArray<CFrame,unsigned short>::GetSize
; Function compile flags: /Ogty
; File c:\darkeden\designed_common\project\client\spritelib\tarray.h
;	COMDAT ?GetSize@?$TArray@VCFrame@@G@@QBEGXZ
_TEXT	SEGMENT
?GetSize@?$TArray@VCFrame@@G@@QBEGXZ PROC NEAR		; TArray<CFrame,unsigned short>::GetSize, COMDAT
; _this$ = ecx

; 41   : 		SizeType	GetSize() const				{ return m_Size; }

  00000	66 8b 01	 mov	 ax, WORD PTR [ecx]
  00003	c3		 ret	 0
?GetSize@?$TArray@VCFrame@@G@@QBEGXZ ENDP		; TArray<CFrame,unsigned short>::GetSize
_TEXT	ENDS
PUBLIC	??A?$TArray@VCFrame@@G@@QBEABVCFrame@@G@Z	; TArray<CFrame,unsigned short>::operator[]
; Function compile flags: /Ogty
;	COMDAT ??A?$TArray@VCFrame@@G@@QBEABVCFrame@@G@Z
_TEXT	SEGMENT
_n$ = 8							; size = 2
??A?$TArray@VCFrame@@G@@QBEABVCFrame@@G@Z PROC NEAR	; TArray<CFrame,unsigned short>::operator[], COMDAT
; _this$ = ecx

; 53   : 		const DataType&	operator [] (SizeType n) const	{ return m_pData[n]; }

  00000	0f b7 44 24 04	 movzx	 eax, WORD PTR _n$[esp-4]
  00005	8b 49 04	 mov	 ecx, DWORD PTR [ecx+4]
  00008	8d 04 40	 lea	 eax, DWORD PTR [eax+eax*2]
  0000b	8d 04 41	 lea	 eax, DWORD PTR [ecx+eax*2]
  0000e	c2 04 00	 ret	 4
??A?$TArray@VCFrame@@G@@QBEABVCFrame@@G@Z ENDP		; TArray<CFrame,unsigned short>::operator[]
_TEXT	ENDS
PUBLIC	??_R0?AV?$basic_ios@DV?$char_traits@D@_STL@@@_STL@@@8 ; _STL::basic_ios<char,_STL::char_traits<char> > `RTTI Type Descriptor'
PUBLIC	??_R0?AVios_base@_STL@@@8			; _STL::ios_base `RTTI Type Descriptor'
PUBLIC	??1?$basic_ios@DV?$char_traits@D@_STL@@@_STL@@UAE@XZ ; _STL::basic_ios<char,_STL::char_traits<char> >::~basic_ios<char,_STL::char_traits<char> >
PUBLIC	??_7?$basic_ios@DV?$char_traits@D@_STL@@@_STL@@6B@ ; _STL::basic_ios<char,_STL::char_traits<char> >::`vftable'
PUBLIC	??_G?$basic_ios@DV?$char_traits@D@_STL@@@_STL@@UAEPAXI@Z ; _STL::basic_ios<char,_STL::char_traits<char> >::`scalar deleting destructor'
PUBLIC	??_R4?$basic_ios@DV?$char_traits@D@_STL@@@_STL@@6B@ ; _STL::basic_ios<char,_STL::char_traits<char> >::`RTTI Complete Object Locator'
PUBLIC	??_R3?$basic_ios@DV?$char_traits@D@_STL@@@_STL@@8 ; _STL::basic_ios<char,_STL::char_traits<char> >::`RTTI Class Hierarchy Descriptor'
PUBLIC	??_R2?$basic_ios@DV?$char_traits@D@_STL@@@_STL@@8 ; _STL::basic_ios<char,_STL::char_traits<char> >::`RTTI Base Class Array'
PUBLIC	??_R1A@?0A@A@?$basic_ios@DV?$char_traits@D@_STL@@@_STL@@8 ; _STL::basic_ios<char,_STL::char_traits<char> >::`RTTI Base Class Descriptor at (0,-1,0,0)'
PUBLIC	??_R1A@?0A@A@ios_base@_STL@@8			; _STL::ios_base::`RTTI Base Class Descriptor at (0,-1,0,0)'
EXTRN	??_E?$basic_ios@DV?$char_traits@D@_STL@@@_STL@@UAEPAXI@Z:NEAR ; _STL::basic_ios<char,_STL::char_traits<char> >::`vector deleting destructor'
EXTRN	??1ios_base@_STL@@UAE@XZ:NEAR			; _STL::ios_base::~ios_base
;	COMDAT ??_7?$basic_ios@DV?$char_traits@D@_STL@@@_STL@@6B@
; File c:\stlport-4.6.1\stlport\stl\_ios.h
CONST	SEGMENT
??_7?$basic_ios@DV?$char_traits@D@_STL@@@_STL@@6B@ DD FLAT:??_R4?$basic_ios@DV?$char_traits@D@_STL@@@_STL@@6B@ ; _STL::basic_ios<char,_STL::char_traits<char> >::`vftable'
	DD	FLAT:??_E?$basic_ios@DV?$char_traits@D@_STL@@@_STL@@UAEPAXI@Z
CONST	ENDS
;	COMDAT ??_R4?$basic_ios@DV?$char_traits@D@_STL@@@_STL@@6B@
rdata$r	SEGMENT
??_R4?$basic_ios@DV?$char_traits@D@_STL@@@_STL@@6B@ DD 00H ; _STL::basic_ios<char,_STL::char_traits<char> >::`RTTI Complete Object Locator'
	DD	00H
	DD	00H
	DD	FLAT:??_R0?AV?$basic_ios@DV?$char_traits@D@_STL@@@_STL@@@8
	DD	FLAT:??_R3?$basic_ios@DV?$char_traits@D@_STL@@@_STL@@8
rdata$r	ENDS
;	COMDAT ??_R0?AV?$basic_ios@DV?$char_traits@D@_STL@@@_STL@@@8
_DATA	SEGMENT
??_R0?AV?$basic_ios@DV?$char_traits@D@_STL@@@_STL@@@8 DD FLAT:??_7type_info@@6B@ ; _STL::basic_ios<char,_STL::char_traits<char> > `RTTI Type Descriptor'
	DD	00H
	DB	'.?AV?$basic_ios@DV?$char_traits@D@_STL@@@_STL@@', 00H
_DATA	ENDS
;	COMDAT ??_R3?$basic_ios@DV?$char_traits@D@_STL@@@_STL@@8
rdata$r	SEGMENT
??_R3?$basic_ios@DV?$char_traits@D@_STL@@@_STL@@8 DD 00H ; _STL::basic_ios<char,_STL::char_traits<char> >::`RTTI Class Hierarchy Descriptor'
	DD	00H
	DD	02H
	DD	FLAT:??_R2?$basic_ios@DV?$char_traits@D@_STL@@@_STL@@8
rdata$r	ENDS
;	COMDAT ??_R2?$basic_ios@DV?$char_traits@D@_STL@@@_STL@@8
rdata$r	SEGMENT
??_R2?$basic_ios@DV?$char_traits@D@_STL@@@_STL@@8 DD FLAT:??_R1A@?0A@A@?$basic_ios@DV?$char_traits@D@_STL@@@_STL@@8 ; _STL::basic_ios<char,_STL::char_traits<char> >::`RTTI Base Class Array'
	DD	FLAT:??_R1A@?0A@A@ios_base@_STL@@8
rdata$r	ENDS
;	COMDAT ??_R1A@?0A@A@?$basic_ios@DV?$char_traits@D@_STL@@@_STL@@8
rdata$r	SEGMENT
??_R1A@?0A@A@?$basic_ios@DV?$char_traits@D@_STL@@@_STL@@8 DD FLAT:??_R0?AV?$basic_ios@DV?$char_traits@D@_STL@@@_STL@@@8 ; _STL::basic_ios<char,_STL::char_traits<char> >::`RTTI Base Class Descriptor at (0,-1,0,0)'
	DD	01H
	DD	00H
	DD	0ffffffffH
	DD	00H
	DD	00H
rdata$r	ENDS
;	COMDAT ??_R1A@?0A@A@ios_base@_STL@@8
rdata$r	SEGMENT
??_R1A@?0A@A@ios_base@_STL@@8 DD FLAT:??_R0?AVios_base@_STL@@@8 ; _STL::ios_base::`RTTI Base Class Descriptor at (0,-1,0,0)'
	DD	00H
	DD	00H
	DD	0ffffffffH
	DD	00H
	DD	00H
rdata$r	ENDS
;	COMDAT ??_R0?AVios_base@_STL@@@8
_DATA	SEGMENT
??_R0?AVios_base@_STL@@@8 DD FLAT:??_7type_info@@6B@	; _STL::ios_base `RTTI Type Descriptor'
	DD	00H
	DB	'.?AVios_base@_STL@@', 00H
; Function compile flags: /Ogty
_DATA	ENDS
;	COMDAT ??1?$basic_ios@DV?$char_traits@D@_STL@@@_STL@@UAE@XZ
_TEXT	SEGMENT
??1?$basic_ios@DV?$char_traits@D@_STL@@@_STL@@UAE@XZ PROC NEAR ; _STL::basic_ios<char,_STL::char_traits<char> >::~basic_ios<char,_STL::char_traits<char> >, COMDAT
; _this$ = ecx

; 58   :   virtual ~basic_ios() {}

  00000	c7 01 00 00 00
	00		 mov	 DWORD PTR [ecx], OFFSET FLAT:??_7?$basic_ios@DV?$char_traits@D@_STL@@@_STL@@6B@
  00006	e9 00 00 00 00	 jmp	 ??1ios_base@_STL@@UAE@XZ ; _STL::ios_base::~ios_base
??1?$basic_ios@DV?$char_traits@D@_STL@@@_STL@@UAE@XZ ENDP ; _STL::basic_ios<char,_STL::char_traits<char> >::~basic_ios<char,_STL::char_traits<char> >
_TEXT	ENDS
PUBLIC	?_M_write@?$basic_filebuf@DV?$char_traits@D@_STL@@@_STL@@QAE_NPADH@Z ; _STL::basic_filebuf<char,_STL::char_traits<char> >::_M_write
EXTRN	?_M_write@_Filebuf_base@_STL@@QAE_NPADH@Z:NEAR	; _STL::_Filebuf_base::_M_write
; Function compile flags: /Ogty
; File c:\stlport-4.6.1\stlport\stl\_fstream.h
;	COMDAT ?_M_write@?$basic_filebuf@DV?$char_traits@D@_STL@@@_STL@@QAE_NPADH@Z
_TEXT	SEGMENT
___buf$ = 8						; size = 4
___n$ = 12						; size = 4
?_M_write@?$basic_filebuf@DV?$char_traits@D@_STL@@@_STL@@QAE_NPADH@Z PROC NEAR ; _STL::basic_filebuf<char,_STL::char_traits<char> >::_M_write, COMDAT
; _this$ = ecx

; 349  :   bool _M_write(char* __buf,  ptrdiff_t __n) {return _M_base._M_write(__buf, __n); }

  00000	83 c1 54	 add	 ecx, 84			; 00000054H
  00003	e9 00 00 00 00	 jmp	 ?_M_write@_Filebuf_base@_STL@@QAE_NPADH@Z ; _STL::_Filebuf_base::_M_write
?_M_write@?$basic_filebuf@DV?$char_traits@D@_STL@@@_STL@@QAE_NPADH@Z ENDP ; _STL::basic_filebuf<char,_STL::char_traits<char> >::_M_write
; Function compile flags: /Ogty
_TEXT	ENDS
;	COMDAT ??_G?$basic_ios@DV?$char_traits@D@_STL@@@_STL@@UAEPAXI@Z
_TEXT	SEGMENT
___flags$ = 8						; size = 4
??_G?$basic_ios@DV?$char_traits@D@_STL@@@_STL@@UAEPAXI@Z PROC NEAR ; _STL::basic_ios<char,_STL::char_traits<char> >::`scalar deleting destructor', COMDAT
; _this$ = ecx
  00000	56		 push	 esi
  00001	8b f1		 mov	 esi, ecx
  00003	e8 00 00 00 00	 call	 ??1?$basic_ios@DV?$char_traits@D@_STL@@@_STL@@UAE@XZ ; _STL::basic_ios<char,_STL::char_traits<char> >::~basic_ios<char,_STL::char_traits<char> >
  00008	f6 44 24 08 01	 test	 BYTE PTR ___flags$[esp], 1
  0000d	74 09		 je	 SHORT $L93419
  0000f	56		 push	 esi
  00010	e8 00 00 00 00	 call	 ??3@YAXPAX@Z		; operator delete
  00015	83 c4 04	 add	 esp, 4
$L93419:
  00018	8b c6		 mov	 eax, esi
  0001a	5e		 pop	 esi
  0001b	c2 04 00	 ret	 4
??_G?$basic_ios@DV?$char_traits@D@_STL@@@_STL@@UAEPAXI@Z ENDP ; _STL::basic_ios<char,_STL::char_traits<char> >::`scalar deleting destructor'
_TEXT	ENDS
PUBLIC	?open@?$basic_filebuf@DV?$char_traits@D@_STL@@@_STL@@QAEPAV12@PBDH@Z ; _STL::basic_filebuf<char,_STL::char_traits<char> >::open
EXTRN	?_M_open@_Filebuf_base@_STL@@QAE_NPBDH@Z:NEAR	; _STL::_Filebuf_base::_M_open
; Function compile flags: /Ogty
;	COMDAT ?open@?$basic_filebuf@DV?$char_traits@D@_STL@@@_STL@@QAEPAV12@PBDH@Z
_TEXT	SEGMENT
___s$ = 8						; size = 4
___m$ = 12						; size = 4
?open@?$basic_filebuf@DV?$char_traits@D@_STL@@@_STL@@QAEPAV12@PBDH@Z PROC NEAR ; _STL::basic_filebuf<char,_STL::char_traits<char> >::open, COMDAT
; _this$ = ecx

; 201  :     return _M_base._M_open(__s, __m) ? this : 0;

  00000	8b 44 24 08	 mov	 eax, DWORD PTR ___m$[esp-4]
  00004	56		 push	 esi
  00005	8b f1		 mov	 esi, ecx
  00007	8b 4c 24 08	 mov	 ecx, DWORD PTR ___s$[esp]
  0000b	50		 push	 eax
  0000c	51		 push	 ecx
  0000d	8d 4e 54	 lea	 ecx, DWORD PTR [esi+84]
  00010	e8 00 00 00 00	 call	 ?_M_open@_Filebuf_base@_STL@@QAE_NPBDH@Z ; _STL::_Filebuf_base::_M_open
  00015	f6 d8		 neg	 al
  00017	1b c0		 sbb	 eax, eax
  00019	23 c6		 and	 eax, esi
  0001b	5e		 pop	 esi

; 202  :   }

  0001c	c2 08 00	 ret	 8
?open@?$basic_filebuf@DV?$char_traits@D@_STL@@@_STL@@QAEPAV12@PBDH@Z ENDP ; _STL::basic_filebuf<char,_STL::char_traits<char> >::open
_TEXT	ENDS
PUBLIC	?rdbuf@?$basic_ofstream@DV?$char_traits@D@_STL@@@_STL@@QBEPAV?$basic_filebuf@DV?$char_traits@D@_STL@@@2@XZ ; _STL::basic_ofstream<char,_STL::char_traits<char> >::rdbuf
; Function compile flags: /Ogty
;	COMDAT ?rdbuf@?$basic_ofstream@DV?$char_traits@D@_STL@@@_STL@@QBEPAV?$basic_filebuf@DV?$char_traits@D@_STL@@@2@XZ
_TEXT	SEGMENT
?rdbuf@?$basic_ofstream@DV?$char_traits@D@_STL@@@_STL@@QBEPAV?$basic_filebuf@DV?$char_traits@D@_STL@@@2@XZ PROC NEAR ; _STL::basic_ofstream<char,_STL::char_traits<char> >::rdbuf, COMDAT
; _this$ = ecx

; 620  :     { return __CONST_CAST(_Buf*,&_M_buf); } 

  00000	8d 41 04	 lea	 eax, DWORD PTR [ecx+4]
  00003	c3		 ret	 0
?rdbuf@?$basic_ofstream@DV?$char_traits@D@_STL@@@_STL@@QBEPAV?$basic_filebuf@DV?$char_traits@D@_STL@@@2@XZ ENDP ; _STL::basic_ofstream<char,_STL::char_traits<char> >::rdbuf
_TEXT	ENDS
PUBLIC	?copy@?$__char_traits_base@DH@_STL@@SAPADPADPBDI@Z ; _STL::__char_traits_base<char,int>::copy
; Function compile flags: /Ogty
; File c:\stlport-4.6.1\stlport\stl\char_traits.h
;	COMDAT ?copy@?$__char_traits_base@DH@_STL@@SAPADPADPBDI@Z
_TEXT	SEGMENT
___s1$ = 8						; size = 4
___s2$ = 12						; size = 4
___n$ = 16						; size = 4
?copy@?$__char_traits_base@DH@_STL@@SAPADPADPBDI@Z PROC NEAR ; _STL::__char_traits_base<char,int>::copy, COMDAT

; 170  :     return (__n == 0 ? __s1 :
; 171  : 	    (_CharT*)memcpy(__s1, __s2, __n * sizeof(_CharT)));

  00000	8b 4c 24 0c	 mov	 ecx, DWORD PTR ___n$[esp-4]
  00004	85 c9		 test	 ecx, ecx
  00006	75 05		 jne	 SHORT $L93429
  00008	8b 44 24 04	 mov	 eax, DWORD PTR ___s1$[esp-4]

; 172  :     } 

  0000c	c3		 ret	 0
$L93429:
  0000d	56		 push	 esi

; 170  :     return (__n == 0 ? __s1 :
; 171  : 	    (_CharT*)memcpy(__s1, __s2, __n * sizeof(_CharT)));

  0000e	8b 74 24 0c	 mov	 esi, DWORD PTR ___s2$[esp]
  00012	57		 push	 edi
  00013	8b 7c 24 0c	 mov	 edi, DWORD PTR ___s1$[esp+4]
  00017	8b d1		 mov	 edx, ecx
  00019	c1 e9 02	 shr	 ecx, 2
  0001c	8b c7		 mov	 eax, edi
  0001e	f3 a5		 rep movsd
  00020	8b ca		 mov	 ecx, edx
  00022	83 e1 03	 and	 ecx, 3
  00025	f3 a4		 rep movsb
  00027	5f		 pop	 edi
  00028	5e		 pop	 esi

; 172  :     } 

  00029	c3		 ret	 0
?copy@?$__char_traits_base@DH@_STL@@SAPADPADPBDI@Z ENDP	; _STL::__char_traits_base<char,int>::copy
_TEXT	ENDS
PUBLIC	??1?$allocator@D@_STL@@QAE@XZ			; _STL::allocator<char>::~allocator<char>
; Function compile flags: /Ogty
; File c:\stlport-4.6.1\stlport\stl\_alloc.h
;	COMDAT ??1?$allocator@D@_STL@@QAE@XZ
_TEXT	SEGMENT
??1?$allocator@D@_STL@@QAE@XZ PROC NEAR			; _STL::allocator<char>::~allocator<char>, COMDAT
; _this$ = ecx

; 350  :   ~allocator() _STLP_NOTHROW {}

  00000	c3		 ret	 0
??1?$allocator@D@_STL@@QAE@XZ ENDP			; _STL::allocator<char>::~allocator<char>
_TEXT	ENDS
PUBLIC	?begin@?$basic_string@DV?$char_traits@D@_STL@@V?$allocator@D@2@@_STL@@QAEPADXZ ; _STL::basic_string<char,_STL::char_traits<char>,_STL::allocator<char> >::begin
; Function compile flags: /Ogty
; File c:\stlport-4.6.1\stlport\stl\_string.h
;	COMDAT ?begin@?$basic_string@DV?$char_traits@D@_STL@@V?$allocator@D@2@@_STL@@QAEPADXZ
_TEXT	SEGMENT
?begin@?$basic_string@DV?$char_traits@D@_STL@@V?$allocator@D@2@@_STL@@QAEPADXZ PROC NEAR ; _STL::basic_string<char,_STL::char_traits<char>,_STL::allocator<char> >::begin, COMDAT
; _this$ = ecx

; 416  :   iterator begin()             { return this->_M_start; }

  00000	8b 01		 mov	 eax, DWORD PTR [ecx]
  00002	c3		 ret	 0
?begin@?$basic_string@DV?$char_traits@D@_STL@@V?$allocator@D@2@@_STL@@QAEPADXZ ENDP ; _STL::basic_string<char,_STL::char_traits<char>,_STL::allocator<char> >::begin
_TEXT	ENDS
PUBLIC	?end@?$basic_string@DV?$char_traits@D@_STL@@V?$allocator@D@2@@_STL@@QAEPADXZ ; _STL::basic_string<char,_STL::char_traits<char>,_STL::allocator<char> >::end
; Function compile flags: /Ogty
;	COMDAT ?end@?$basic_string@DV?$char_traits@D@_STL@@V?$allocator@D@2@@_STL@@QAEPADXZ
_TEXT	SEGMENT
?end@?$basic_string@DV?$char_traits@D@_STL@@V?$allocator@D@2@@_STL@@QAEPADXZ PROC NEAR ; _STL::basic_string<char,_STL::char_traits<char>,_STL::allocator<char> >::end, COMDAT
; _this$ = ecx

; 417  :   iterator end()               { return this->_M_finish; }

  00000	8b 41 04	 mov	 eax, DWORD PTR [ecx+4]
  00003	c3		 ret	 0
?end@?$basic_string@DV?$char_traits@D@_STL@@V?$allocator@D@2@@_STL@@QAEPADXZ ENDP ; _STL::basic_string<char,_STL::char_traits<char>,_STL::allocator<char> >::end
_TEXT	ENDS
PUBLIC	?size@?$basic_string@DV?$char_traits@D@_STL@@V?$allocator@D@2@@_STL@@QBEIXZ ; _STL::basic_string<char,_STL::char_traits<char>,_STL::allocator<char> >::size
; Function compile flags: /Ogty
;	COMDAT ?size@?$basic_string@DV?$char_traits@D@_STL@@V?$allocator@D@2@@_STL@@QBEIXZ
_TEXT	SEGMENT
?size@?$basic_string@DV?$char_traits@D@_STL@@V?$allocator@D@2@@_STL@@QBEIXZ PROC NEAR ; _STL::basic_string<char,_STL::char_traits<char>,_STL::allocator<char> >::size, COMDAT
; _this$ = ecx

; 431  :   size_type size() const { return this->_M_finish - this->_M_start; }

  00000	8b 41 04	 mov	 eax, DWORD PTR [ecx+4]
  00003	2b 01		 sub	 eax, DWORD PTR [ecx]
  00005	c3		 ret	 0
?size@?$basic_string@DV?$char_traits@D@_STL@@V?$allocator@D@2@@_STL@@QBEIXZ ENDP ; _STL::basic_string<char,_STL::char_traits<char>,_STL::allocator<char> >::size
_TEXT	ENDS
PUBLIC	?deallocate@?$__node_alloc@$00$0A@@_STL@@SAXPAXI@Z ; _STL::__node_alloc<1,0>::deallocate
EXTRN	?_M_deallocate@?$__node_alloc@$00$0A@@_STL@@CAXPAXI@Z:NEAR ; _STL::__node_alloc<1,0>::_M_deallocate
; Function compile flags: /Ogty
; File c:\stlport-4.6.1\stlport\stl\_alloc.h
;	COMDAT ?deallocate@?$__node_alloc@$00$0A@@_STL@@SAXPAXI@Z
_TEXT	SEGMENT
___p$ = 8						; size = 4
___n$ = 12						; size = 4
?deallocate@?$__node_alloc@$00$0A@@_STL@@SAXPAXI@Z PROC NEAR ; _STL::__node_alloc<1,0>::deallocate, COMDAT

; 253  :   static void _STLP_CALL deallocate(void *__p, size_t __n) { if (__n > (size_t)_MAX_BYTES) __stl_delete(__p); else _M_deallocate(__p, __n); }

  00000	8b 44 24 08	 mov	 eax, DWORD PTR ___n$[esp-4]
  00004	3d 80 00 00 00	 cmp	 eax, 128		; 00000080H
  00009	76 0e		 jbe	 SHORT $L73486
  0000b	8b 44 24 04	 mov	 eax, DWORD PTR ___p$[esp-4]
  0000f	50		 push	 eax
  00010	e8 00 00 00 00	 call	 ??3@YAXPAX@Z		; operator delete
  00015	83 c4 04	 add	 esp, 4
  00018	c3		 ret	 0
$L73486:
  00019	89 44 24 08	 mov	 DWORD PTR ___n$[esp-4], eax
  0001d	e9 00 00 00 00	 jmp	 ?_M_deallocate@?$__node_alloc@$00$0A@@_STL@@CAXPAXI@Z ; _STL::__node_alloc<1,0>::_M_deallocate
?deallocate@?$__node_alloc@$00$0A@@_STL@@SAXPAXI@Z ENDP	; _STL::__node_alloc<1,0>::deallocate
_TEXT	ENDS
PUBLIC	?move@?$__char_traits_base@DH@_STL@@SAPADPADPBDI@Z ; _STL::__char_traits_base<char,int>::move
; Function compile flags: /Ogty
; File c:\stlport-4.6.1\stlport\stl\char_traits.h
;	COMDAT ?move@?$__char_traits_base@DH@_STL@@SAPADPADPBDI@Z
_TEXT	SEGMENT
___s1$ = 8						; size = 4
___s2$ = 12						; size = 4
__Sz$ = 16						; size = 4
?move@?$__char_traits_base@DH@_STL@@SAPADPADPBDI@Z PROC NEAR ; _STL::__char_traits_base<char,int>::move, COMDAT

; 166  :     return (_Sz == 0 ? __s1 : (_CharT*)memmove(__s1, __s2, _Sz * sizeof(_CharT)));

  00000	8b 44 24 0c	 mov	 eax, DWORD PTR __Sz$[esp-4]
  00004	85 c0		 test	 eax, eax
  00006	75 05		 jne	 SHORT $L93452
  00008	8b 44 24 04	 mov	 eax, DWORD PTR ___s1$[esp-4]

; 167  :   }

  0000c	c3		 ret	 0
$L93452:

; 166  :     return (_Sz == 0 ? __s1 : (_CharT*)memmove(__s1, __s2, _Sz * sizeof(_CharT)));

  0000d	89 44 24 0c	 mov	 DWORD PTR __Sz$[esp-4], eax
  00011	e9 00 00 00 00	 jmp	 _memmove
?move@?$__char_traits_base@DH@_STL@@SAPADPADPBDI@Z ENDP	; _STL::__char_traits_base<char,int>::move
_TEXT	ENDS
PUBLIC	??_R1A@A@3BA@?$basic_ios@DV?$char_traits@D@_STL@@@_STL@@8 ; _STL::basic_ios<char,_STL::char_traits<char> >::`RTTI Base Class Descriptor at (0,0,4,16)'
PUBLIC	??_R1A@A@3A@ios_base@_STL@@8			; _STL::ios_base::`RTTI Base Class Descriptor at (0,0,4,0)'
PUBLIC	??_R4?$basic_ostream@DV?$char_traits@D@_STL@@@_STL@@6B@ ; _STL::basic_ostream<char,_STL::char_traits<char> >::`RTTI Complete Object Locator'
PUBLIC	??_R0?AV?$basic_ostream@DV?$char_traits@D@_STL@@@_STL@@@8 ; _STL::basic_ostream<char,_STL::char_traits<char> > `RTTI Type Descriptor'
PUBLIC	??_R3?$basic_ostream@DV?$char_traits@D@_STL@@@_STL@@8 ; _STL::basic_ostream<char,_STL::char_traits<char> >::`RTTI Class Hierarchy Descriptor'
PUBLIC	??_R2?$basic_ostream@DV?$char_traits@D@_STL@@@_STL@@8 ; _STL::basic_ostream<char,_STL::char_traits<char> >::`RTTI Base Class Array'
PUBLIC	??_R1A@?0A@A@?$basic_ostream@DV?$char_traits@D@_STL@@@_STL@@8 ; _STL::basic_ostream<char,_STL::char_traits<char> >::`RTTI Base Class Descriptor at (0,-1,0,0)'
PUBLIC	??1?$basic_ostream@DV?$char_traits@D@_STL@@@_STL@@UAE@XZ ; _STL::basic_ostream<char,_STL::char_traits<char> >::~basic_ostream<char,_STL::char_traits<char> >
PUBLIC	??_7?$basic_ostream@DV?$char_traits@D@_STL@@@_STL@@6B@ ; _STL::basic_ostream<char,_STL::char_traits<char> >::`vftable'
PUBLIC	??_G?$basic_ostream@DV?$char_traits@D@_STL@@@_STL@@UAEPAXI@Z ; _STL::basic_ostream<char,_STL::char_traits<char> >::`scalar deleting destructor'
EXTRN	??_E?$basic_ostream@DV?$char_traits@D@_STL@@@_STL@@UAEPAXI@Z:NEAR ; _STL::basic_ostream<char,_STL::char_traits<char> >::`vector deleting destructor'
;	COMDAT ??_7?$basic_ostream@DV?$char_traits@D@_STL@@@_STL@@6B@
; File c:\stlport-4.6.1\stlport\stl\_ostream.c
CONST	SEGMENT
??_7?$basic_ostream@DV?$char_traits@D@_STL@@@_STL@@6B@ DD FLAT:??_R4?$basic_ostream@DV?$char_traits@D@_STL@@@_STL@@6B@ ; _STL::basic_ostream<char,_STL::char_traits<char> >::`vftable'
	DD	FLAT:??_E?$basic_ostream@DV?$char_traits@D@_STL@@@_STL@@UAEPAXI@Z
CONST	ENDS
;	COMDAT ??_R4?$basic_ostream@DV?$char_traits@D@_STL@@@_STL@@6B@
rdata$r	SEGMENT
??_R4?$basic_ostream@DV?$char_traits@D@_STL@@@_STL@@6B@ DD 00H ; _STL::basic_ostream<char,_STL::char_traits<char> >::`RTTI Complete Object Locator'
	DD	04H
	DD	00H
	DD	FLAT:??_R0?AV?$basic_ostream@DV?$char_traits@D@_STL@@@_STL@@@8
	DD	FLAT:??_R3?$basic_ostream@DV?$char_traits@D@_STL@@@_STL@@8
rdata$r	ENDS
;	COMDAT ??_R0?AV?$basic_ostream@DV?$char_traits@D@_STL@@@_STL@@@8
_DATA	SEGMENT
??_R0?AV?$basic_ostream@DV?$char_traits@D@_STL@@@_STL@@@8 DD FLAT:??_7type_info@@6B@ ; _STL::basic_ostream<char,_STL::char_traits<char> > `RTTI Type Descriptor'
	DD	00H
	DB	'.?AV?$basic_ostream@DV?$char_traits@D@_STL@@@_STL@@', 00H
_DATA	ENDS
;	COMDAT ??_R3?$basic_ostream@DV?$char_traits@D@_STL@@@_STL@@8
rdata$r	SEGMENT
??_R3?$basic_ostream@DV?$char_traits@D@_STL@@@_STL@@8 DD 00H ; _STL::basic_ostream<char,_STL::char_traits<char> >::`RTTI Class Hierarchy Descriptor'
	DD	00H
	DD	03H
	DD	FLAT:??_R2?$basic_ostream@DV?$char_traits@D@_STL@@@_STL@@8
rdata$r	ENDS
;	COMDAT ??_R2?$basic_ostream@DV?$char_traits@D@_STL@@@_STL@@8
rdata$r	SEGMENT
??_R2?$basic_ostream@DV?$char_traits@D@_STL@@@_STL@@8 DD FLAT:??_R1A@?0A@A@?$basic_ostream@DV?$char_traits@D@_STL@@@_STL@@8 ; _STL::basic_ostream<char,_STL::char_traits<char> >::`RTTI Base Class Array'
	DD	FLAT:??_R1A@A@3BA@?$basic_ios@DV?$char_traits@D@_STL@@@_STL@@8
	DD	FLAT:??_R1A@A@3A@ios_base@_STL@@8
rdata$r	ENDS
;	COMDAT ??_R1A@?0A@A@?$basic_ostream@DV?$char_traits@D@_STL@@@_STL@@8
rdata$r	SEGMENT
??_R1A@?0A@A@?$basic_ostream@DV?$char_traits@D@_STL@@@_STL@@8 DD FLAT:??_R0?AV?$basic_ostream@DV?$char_traits@D@_STL@@@_STL@@@8 ; _STL::basic_ostream<char,_STL::char_traits<char> >::`RTTI Base Class Descriptor at (0,-1,0,0)'
	DD	02H
	DD	00H
	DD	0ffffffffH
	DD	00H
	DD	00H
rdata$r	ENDS
;	COMDAT ??_R1A@A@3BA@?$basic_ios@DV?$char_traits@D@_STL@@@_STL@@8
rdata$r	SEGMENT
??_R1A@A@3BA@?$basic_ios@DV?$char_traits@D@_STL@@@_STL@@8 DD FLAT:??_R0?AV?$basic_ios@DV?$char_traits@D@_STL@@@_STL@@@8 ; _STL::basic_ios<char,_STL::char_traits<char> >::`RTTI Base Class Descriptor at (0,0,4,16)'
	DD	01H
	DD	00H
	DD	00H
	DD	04H
	DD	010H
rdata$r	ENDS
;	COMDAT ??_R1A@A@3A@ios_base@_STL@@8
rdata$r	SEGMENT
??_R1A@A@3A@ios_base@_STL@@8 DD FLAT:??_R0?AVios_base@_STL@@@8 ; _STL::ios_base::`RTTI Base Class Descriptor at (0,0,4,0)'
	DD	00H
	DD	00H
	DD	00H
	DD	04H
	DD	00H
; Function compile flags: /Ogty
rdata$r	ENDS
;	COMDAT ??1?$basic_ostream@DV?$char_traits@D@_STL@@@_STL@@UAE@XZ
_TEXT	SEGMENT
??1?$basic_ostream@DV?$char_traits@D@_STL@@@_STL@@UAE@XZ PROC NEAR ; _STL::basic_ostream<char,_STL::char_traits<char> >::~basic_ostream<char,_STL::char_traits<char> >, COMDAT
; _this$ = ecx

; 64   : {}

  00000	8b 41 fc	 mov	 eax, DWORD PTR [ecx-4]
  00003	8b 50 04	 mov	 edx, DWORD PTR [eax+4]
  00006	c7 44 0a fc 00
	00 00 00	 mov	 DWORD PTR [edx+ecx-4], OFFSET FLAT:??_7?$basic_ostream@DV?$char_traits@D@_STL@@@_STL@@6B@
  0000e	c3		 ret	 0
??1?$basic_ostream@DV?$char_traits@D@_STL@@@_STL@@UAE@XZ ENDP ; _STL::basic_ostream<char,_STL::char_traits<char> >::~basic_ostream<char,_STL::char_traits<char> >
_TEXT	ENDS
PUBLIC	?rdbuf@?$basic_ios@DV?$char_traits@D@_STL@@@_STL@@QBEPAV?$basic_streambuf@DV?$char_traits@D@_STL@@@2@XZ ; _STL::basic_ios<char,_STL::char_traits<char> >::rdbuf
; Function compile flags: /Ogty
; File c:\stlport-4.6.1\stlport\stl\_ios.h
;	COMDAT ?rdbuf@?$basic_ios@DV?$char_traits@D@_STL@@@_STL@@QBEPAV?$basic_streambuf@DV?$char_traits@D@_STL@@@2@XZ
_TEXT	SEGMENT
?rdbuf@?$basic_ios@DV?$char_traits@D@_STL@@@_STL@@QBEPAV?$basic_streambuf@DV?$char_traits@D@_STL@@@2@XZ PROC NEAR ; _STL::basic_ios<char,_STL::char_traits<char> >::rdbuf, COMDAT
; _this$ = ecx

; 72   :     { return _M_streambuf; }

  00000	8b 41 58	 mov	 eax, DWORD PTR [ecx+88]
  00003	c3		 ret	 0
?rdbuf@?$basic_ios@DV?$char_traits@D@_STL@@@_STL@@QBEPAV?$basic_streambuf@DV?$char_traits@D@_STL@@@2@XZ ENDP ; _STL::basic_ios<char,_STL::char_traits<char> >::rdbuf
_TEXT	ENDS
PUBLIC	?_M_exit_input_mode@?$basic_filebuf@DV?$char_traits@D@_STL@@@_STL@@AAEXXZ ; _STL::basic_filebuf<char,_STL::char_traits<char> >::_M_exit_input_mode
EXTRN	?_M_unmap@_Filebuf_base@_STL@@QAEXPAXJ@Z:NEAR	; _STL::_Filebuf_base::_M_unmap
; Function compile flags: /Ogty
; File c:\stlport-4.6.1\stlport\stl\_fstream.c
;	COMDAT ?_M_exit_input_mode@?$basic_filebuf@DV?$char_traits@D@_STL@@@_STL@@AAEXXZ
_TEXT	SEGMENT
?_M_exit_input_mode@?$basic_filebuf@DV?$char_traits@D@_STL@@@_STL@@AAEXXZ PROC NEAR ; _STL::basic_filebuf<char,_STL::char_traits<char> >::_M_exit_input_mode, COMDAT
; _this$ = ecx

; 119  : {

  00000	53		 push	 ebx
  00001	56		 push	 esi
  00002	8b f1		 mov	 esi, ecx

; 120  :    if (_M_mmap_base != 0)

  00004	8b 86 8c 00 00
	00		 mov	 eax, DWORD PTR [esi+140]
  0000a	33 db		 xor	 ebx, ebx
  0000c	3b c3		 cmp	 eax, ebx
  0000e	74 10		 je	 SHORT $L93463

; 121  :      _M_base._M_unmap(_M_mmap_base, _M_mmap_len); 

  00010	8b 8e 90 00 00
	00		 mov	 ecx, DWORD PTR [esi+144]
  00016	51		 push	 ecx
  00017	50		 push	 eax
  00018	8d 4e 54	 lea	 ecx, DWORD PTR [esi+84]
  0001b	e8 00 00 00 00	 call	 ?_M_unmap@_Filebuf_base@_STL@@QAEXPAXJ@Z ; _STL::_Filebuf_base::_M_unmap
$L93463:

; 122  :    _M_in_input_mode = false;

  00020	88 5e 67	 mov	 BYTE PTR [esi+103], bl

; 123  :    _M_mmap_base = 0;

  00023	89 9e 8c 00 00
	00		 mov	 DWORD PTR [esi+140], ebx
  00029	5e		 pop	 esi
  0002a	5b		 pop	 ebx

; 124  : }

  0002b	c3		 ret	 0
?_M_exit_input_mode@?$basic_filebuf@DV?$char_traits@D@_STL@@@_STL@@AAEXXZ ENDP ; _STL::basic_filebuf<char,_STL::char_traits<char> >::_M_exit_input_mode
_TEXT	ENDS
PUBLIC	?_M_deallocate_buffers@?$basic_filebuf@DV?$char_traits@D@_STL@@@_STL@@AAEXXZ ; _STL::basic_filebuf<char,_STL::char_traits<char> >::_M_deallocate_buffers
; Function compile flags: /Ogty
;	COMDAT ?_M_deallocate_buffers@?$basic_filebuf@DV?$char_traits@D@_STL@@@_STL@@AAEXXZ
_TEXT	SEGMENT
?_M_deallocate_buffers@?$basic_filebuf@DV?$char_traits@D@_STL@@@_STL@@AAEXXZ PROC NEAR ; _STL::basic_filebuf<char,_STL::char_traits<char> >::_M_deallocate_buffers, COMDAT
; _this$ = ecx

; 684  : {

  00000	53		 push	 ebx
  00001	56		 push	 esi
  00002	8b f1		 mov	 esi, ecx

; 685  :   if (_M_int_buf_dynamic)

  00004	8a 46 66	 mov	 al, BYTE PTR [esi+102]
  00007	33 db		 xor	 ebx, ebx
  00009	3a c3		 cmp	 al, bl
  0000b	74 0c		 je	 SHORT $L89960

; 686  :     free(_M_int_buf);

  0000d	8b 46 6c	 mov	 eax, DWORD PTR [esi+108]
  00010	50		 push	 eax
  00011	e8 00 00 00 00	 call	 _free
  00016	83 c4 04	 add	 esp, 4
$L89960:

; 687  :   free(_M_ext_buf);

  00019	8b 4e 74	 mov	 ecx, DWORD PTR [esi+116]
  0001c	51		 push	 ecx
  0001d	e8 00 00 00 00	 call	 _free
  00022	83 c4 04	 add	 esp, 4

; 688  :   _M_int_buf     = 0;

  00025	89 5e 6c	 mov	 DWORD PTR [esi+108], ebx

; 689  :   _M_int_buf_EOS = 0;

  00028	89 5e 70	 mov	 DWORD PTR [esi+112], ebx

; 690  :   _M_ext_buf     = 0;

  0002b	89 5e 74	 mov	 DWORD PTR [esi+116], ebx

; 691  :   _M_ext_buf_EOS = 0;

  0002e	89 5e 78	 mov	 DWORD PTR [esi+120], ebx
  00031	5e		 pop	 esi
  00032	5b		 pop	 ebx

; 692  : }

  00033	c3		 ret	 0
?_M_deallocate_buffers@?$basic_filebuf@DV?$char_traits@D@_STL@@@_STL@@AAEXXZ ENDP ; _STL::basic_filebuf<char,_STL::char_traits<char> >::_M_deallocate_buffers
_TEXT	ENDS
PUBLIC	??0?$basic_ios@DV?$char_traits@D@_STL@@@_STL@@IAE@XZ ; _STL::basic_ios<char,_STL::char_traits<char> >::basic_ios<char,_STL::char_traits<char> >
EXTRN	??0ios_base@_STL@@IAE@XZ:NEAR			; _STL::ios_base::ios_base
; Function compile flags: /Ogty
; File c:\stlport-4.6.1\stlport\stl\_ios.c
;	COMDAT ??0?$basic_ios@DV?$char_traits@D@_STL@@@_STL@@IAE@XZ
_TEXT	SEGMENT
??0?$basic_ios@DV?$char_traits@D@_STL@@@_STL@@IAE@XZ PROC NEAR ; _STL::basic_ios<char,_STL::char_traits<char> >::basic_ios<char,_STL::char_traits<char> >, COMDAT
; _this$ = ecx

; 95   : {}

  00000	56		 push	 esi
  00001	8b f1		 mov	 esi, ecx
  00003	e8 00 00 00 00	 call	 ??0ios_base@_STL@@IAE@XZ ; _STL::ios_base::ios_base
  00008	33 c0		 xor	 eax, eax
  0000a	88 46 54	 mov	 BYTE PTR [esi+84], al
  0000d	89 46 58	 mov	 DWORD PTR [esi+88], eax
  00010	89 46 5c	 mov	 DWORD PTR [esi+92], eax
  00013	c7 06 00 00 00
	00		 mov	 DWORD PTR [esi], OFFSET FLAT:??_7?$basic_ios@DV?$char_traits@D@_STL@@@_STL@@6B@
  00019	8b c6		 mov	 eax, esi
  0001b	5e		 pop	 esi
  0001c	c3		 ret	 0
??0?$basic_ios@DV?$char_traits@D@_STL@@@_STL@@IAE@XZ ENDP ; _STL::basic_ios<char,_STL::char_traits<char> >::basic_ios<char,_STL::char_traits<char> >
_TEXT	ENDS
PUBLIC	?Release@?$TArray@VCFrame@@G@@QAEXXZ		; TArray<CFrame,unsigned short>::Release
EXTRN	??_V@YAXPAX@Z:NEAR				; operator delete[]
; Function compile flags: /Ogty
; File c:\darkeden\designed_common\project\client\spritelib\tarray.h
;	COMDAT ?Release@?$TArray@VCFrame@@G@@QAEXXZ
_TEXT	SEGMENT
?Release@?$TArray@VCFrame@@G@@QAEXXZ PROC NEAR		; TArray<CFrame,unsigned short>::Release, COMDAT
; _this$ = ecx

; 128  : {

  00000	56		 push	 esi
  00001	8b f1		 mov	 esi, ecx

; 129  : 	if (m_pData!=NULL)

  00003	8b 46 04	 mov	 eax, DWORD PTR [esi+4]
  00006	85 c0		 test	 eax, eax
  00008	74 15		 je	 SHORT $L90959

; 130  : 	{
; 131  : 		delete [] m_pData;

  0000a	50		 push	 eax
  0000b	e8 00 00 00 00	 call	 ??_V@YAXPAX@Z		; operator delete[]
  00010	83 c4 04	 add	 esp, 4

; 132  : 		m_pData = NULL;

  00013	c7 46 04 00 00
	00 00		 mov	 DWORD PTR [esi+4], 0

; 133  : 		
; 134  : 		m_Size = 0;

  0001a	66 c7 06 00 00	 mov	 WORD PTR [esi], 0
$L90959:
  0001f	5e		 pop	 esi

; 135  : 	}
; 136  : }

  00020	c3		 ret	 0
?Release@?$TArray@VCFrame@@G@@QAEXXZ ENDP		; TArray<CFrame,unsigned short>::Release
_TEXT	ENDS
PUBLIC	??1CSprite565@@QAE@XZ				; CSprite565::~CSprite565
EXTRN	??1CSprite@@QAE@XZ:NEAR				; CSprite::~CSprite
; Function compile flags: /Ogty
;	COMDAT ??1CSprite565@@QAE@XZ
_TEXT	SEGMENT
??1CSprite565@@QAE@XZ PROC NEAR				; CSprite565::~CSprite565, COMDAT
; _this$ = ecx
  00000	e9 00 00 00 00	 jmp	 ??1CSprite@@QAE@XZ	; CSprite::~CSprite
??1CSprite565@@QAE@XZ ENDP				; CSprite565::~CSprite565
_TEXT	ENDS
PUBLIC	??1CSprite555@@QAE@XZ				; CSprite555::~CSprite555
; Function compile flags: /Ogty
;	COMDAT ??1CSprite555@@QAE@XZ
_TEXT	SEGMENT
??1CSprite555@@QAE@XZ PROC NEAR				; CSprite555::~CSprite555, COMDAT
; _this$ = ecx
  00000	e9 00 00 00 00	 jmp	 ??1CSprite@@QAE@XZ	; CSprite::~CSprite
??1CSprite555@@QAE@XZ ENDP				; CSprite555::~CSprite555
_TEXT	ENDS
PUBLIC	??_ECSprite@@QAEPAXI@Z				; CSprite::`vector deleting destructor'
EXTRN	??_M@YGXPAXIHP6EX0@Z@Z:NEAR			; `eh vector destructor iterator'
; Function compile flags: /Ogty
;	COMDAT ??_ECSprite@@QAEPAXI@Z
_TEXT	SEGMENT
___flags$ = 8						; size = 4
??_ECSprite@@QAEPAXI@Z PROC NEAR			; CSprite::`vector deleting destructor', COMDAT
; _this$ = ecx
  00000	53		 push	 ebx
  00001	8a 5c 24 08	 mov	 bl, BYTE PTR ___flags$[esp]
  00005	f6 c3 02	 test	 bl, 2
  00008	56		 push	 esi
  00009	8b f1		 mov	 esi, ecx
  0000b	74 2b		 je	 SHORT $L91057
  0000d	8b 46 fc	 mov	 eax, DWORD PTR [esi-4]
  00010	57		 push	 edi
  00011	68 00 00 00 00	 push	 OFFSET FLAT:??1CSprite@@QAE@XZ ; CSprite::~CSprite
  00016	8d 7e fc	 lea	 edi, DWORD PTR [esi-4]
  00019	50		 push	 eax
  0001a	6a 10		 push	 16			; 00000010H
  0001c	56		 push	 esi
  0001d	e8 00 00 00 00	 call	 ??_M@YGXPAXIHP6EX0@Z@Z
  00022	f6 c3 01	 test	 bl, 1
  00025	74 09		 je	 SHORT $L91058
  00027	57		 push	 edi
  00028	e8 00 00 00 00	 call	 ??_V@YAXPAX@Z		; operator delete[]
  0002d	83 c4 04	 add	 esp, 4
$L91058:
  00030	8b c7		 mov	 eax, edi
  00032	5f		 pop	 edi
  00033	5e		 pop	 esi
  00034	5b		 pop	 ebx
  00035	c2 04 00	 ret	 4
$L91057:
  00038	8b ce		 mov	 ecx, esi
  0003a	e8 00 00 00 00	 call	 ??1CSprite@@QAE@XZ	; CSprite::~CSprite
  0003f	f6 c3 01	 test	 bl, 1
  00042	74 09		 je	 SHORT $L91060
  00044	56		 push	 esi
  00045	e8 00 00 00 00	 call	 ??3@YAXPAX@Z		; operator delete
  0004a	83 c4 04	 add	 esp, 4
$L91060:
  0004d	8b c6		 mov	 eax, esi
  0004f	5e		 pop	 esi
  00050	5b		 pop	 ebx
  00051	c2 04 00	 ret	 4
??_ECSprite@@QAEPAXI@Z ENDP				; CSprite::`vector deleting destructor'
_TEXT	ENDS
PUBLIC	??0?$allocator@D@_STL@@QAE@XZ			; _STL::allocator<char>::allocator<char>
; Function compile flags: /Ogty
; File c:\stlport-4.6.1\stlport\stl\_alloc.h
;	COMDAT ??0?$allocator@D@_STL@@QAE@XZ
_TEXT	SEGMENT
??0?$allocator@D@_STL@@QAE@XZ PROC NEAR			; _STL::allocator<char>::allocator<char>, COMDAT
; _this$ = ecx

; 345  :   allocator() _STLP_NOTHROW {}

  00000	8b c1		 mov	 eax, ecx
  00002	c3		 ret	 0
??0?$allocator@D@_STL@@QAE@XZ ENDP			; _STL::allocator<char>::allocator<char>
_TEXT	ENDS
PUBLIC	?tie@?$basic_ios@DV?$char_traits@D@_STL@@@_STL@@QAEPAV?$basic_ostream@DV?$char_traits@D@_STL@@@2@PAV32@@Z ; _STL::basic_ios<char,_STL::char_traits<char> >::tie
; Function compile flags: /Ogty
; File c:\stlport-4.6.1\stlport\stl\_ios.h
;	COMDAT ?tie@?$basic_ios@DV?$char_traits@D@_STL@@@_STL@@QAEPAV?$basic_ostream@DV?$char_traits@D@_STL@@@2@PAV32@@Z
_TEXT	SEGMENT
___new_tied_ostream$ = 8				; size = 4
?tie@?$basic_ios@DV?$char_traits@D@_STL@@@_STL@@QAEPAV?$basic_ostream@DV?$char_traits@D@_STL@@@2@PAV32@@Z PROC NEAR ; _STL::basic_ios<char,_STL::char_traits<char> >::tie, COMDAT
; _this$ = ecx

; 66   :     basic_ostream<char_type, traits_type>* __tmp = _M_tied_ostream;
; 67   :     _M_tied_ostream = __new_tied_ostream;

  00000	8b 54 24 04	 mov	 edx, DWORD PTR ___new_tied_ostream$[esp-4]
  00004	8b 41 5c	 mov	 eax, DWORD PTR [ecx+92]
  00007	89 51 5c	 mov	 DWORD PTR [ecx+92], edx

; 68   :     return __tmp;
; 69   :   }

  0000a	c2 04 00	 ret	 4
?tie@?$basic_ios@DV?$char_traits@D@_STL@@@_STL@@QAEPAV?$basic_ostream@DV?$char_traits@D@_STL@@@2@PAV32@@Z ENDP ; _STL::basic_ios<char,_STL::char_traits<char> >::tie
_TEXT	ENDS
PUBLIC	?fill@?$basic_ios@DV?$char_traits@D@_STL@@@_STL@@QAEDD@Z ; _STL::basic_ios<char,_STL::char_traits<char> >::fill
; Function compile flags: /Ogty
;	COMDAT ?fill@?$basic_ios@DV?$char_traits@D@_STL@@@_STL@@QAEDD@Z
_TEXT	SEGMENT
___fill$ = 8						; size = 1
?fill@?$basic_ios@DV?$char_traits@D@_STL@@@_STL@@QAEDD@Z PROC NEAR ; _STL::basic_ios<char,_STL::char_traits<char> >::fill, COMDAT
; _this$ = ecx

; 82   :     char_type __tmp(_M_fill);
; 83   :     _M_fill = __fill;

  00000	8a 54 24 04	 mov	 dl, BYTE PTR ___fill$[esp-4]
  00004	8a 41 54	 mov	 al, BYTE PTR [ecx+84]
  00007	88 51 54	 mov	 BYTE PTR [ecx+84], dl

; 84   :     return __tmp;
; 85   :   }

  0000a	c2 04 00	 ret	 4
?fill@?$basic_ios@DV?$char_traits@D@_STL@@@_STL@@QAEDD@Z ENDP ; _STL::basic_ios<char,_STL::char_traits<char> >::fill
_TEXT	ENDS
PUBLIC	??Bsentry@?$basic_ostream@DV?$char_traits@D@_STL@@@_STL@@QBE_NXZ ; _STL::basic_ostream<char,_STL::char_traits<char> >::sentry::operator bool
; Function compile flags: /Ogty
; File c:\stlport-4.6.1\stlport\stl\_ostream.h
;	COMDAT ??Bsentry@?$basic_ostream@DV?$char_traits@D@_STL@@@_STL@@QBE_NXZ
_TEXT	SEGMENT
??Bsentry@?$basic_ostream@DV?$char_traits@D@_STL@@@_STL@@QBE_NXZ PROC NEAR ; _STL::basic_ostream<char,_STL::char_traits<char> >::sentry::operator bool, COMDAT
; _this$ = ecx

; 176  :       operator bool() const { return _M_ok; }

  00000	8a 41 04	 mov	 al, BYTE PTR [ecx+4]
  00003	c3		 ret	 0
??Bsentry@?$basic_ostream@DV?$char_traits@D@_STL@@@_STL@@QBE_NXZ ENDP ; _STL::basic_ostream<char,_STL::char_traits<char> >::sentry::operator bool
_TEXT	ENDS
PUBLIC	?_M_terminate_string_aux@?$basic_string@DV?$char_traits@D@_STL@@V?$allocator@D@2@@_STL@@AAEXABU__true_type@2@@Z ; _STL::basic_string<char,_STL::char_traits<char>,_STL::allocator<char> >::_M_terminate_string_aux
; Function compile flags: /Ogty
; File c:\stlport-4.6.1\stlport\stl\_string.h
;	COMDAT ?_M_terminate_string_aux@?$basic_string@DV?$char_traits@D@_STL@@V?$allocator@D@2@@_STL@@AAEXABU__true_type@2@@Z
_TEXT	SEGMENT
___formal$ = 8						; size = 4
?_M_terminate_string_aux@?$basic_string@DV?$char_traits@D@_STL@@V?$allocator@D@2@@_STL@@AAEXABU__true_type@2@@Z PROC NEAR ; _STL::basic_string<char,_STL::char_traits<char>,_STL::allocator<char> >::_M_terminate_string_aux, COMDAT
; _this$ = ecx

; 351  :     *(this->_M_finish)=0;

  00000	8b 41 04	 mov	 eax, DWORD PTR [ecx+4]
  00003	c6 00 00	 mov	 BYTE PTR [eax], 0

; 352  :   }

  00006	c2 04 00	 ret	 4
?_M_terminate_string_aux@?$basic_string@DV?$char_traits@D@_STL@@V?$allocator@D@2@@_STL@@AAEXABU__true_type@2@@Z ENDP ; _STL::basic_string<char,_STL::char_traits<char>,_STL::allocator<char> >::_M_terminate_string_aux
_TEXT	ENDS
PUBLIC	??0?$allocator@D@_STL@@QAE@ABV01@@Z		; _STL::allocator<char>::allocator<char>
; Function compile flags: /Ogty
; File c:\stlport-4.6.1\stlport\stl\_alloc.h
;	COMDAT ??0?$allocator@D@_STL@@QAE@ABV01@@Z
_TEXT	SEGMENT
___formal$ = 8						; size = 4
??0?$allocator@D@_STL@@QAE@ABV01@@Z PROC NEAR		; _STL::allocator<char>::allocator<char>, COMDAT
; _this$ = ecx

; 349  :   allocator(const allocator<_Tp>&) _STLP_NOTHROW {}

  00000	8b c1		 mov	 eax, ecx
  00002	c2 04 00	 ret	 4
??0?$allocator@D@_STL@@QAE@ABV01@@Z ENDP		; _STL::allocator<char>::allocator<char>
_TEXT	ENDS
PUBLIC	??0?$_STLP_alloc_proxy@PADDV?$allocator@D@_STL@@@_STL@@QAE@ABV?$allocator@D@1@PAD@Z ; _STL::_STLP_alloc_proxy<char *,char,_STL::allocator<char> >::_STLP_alloc_proxy<char *,char,_STL::allocator<char> >
; Function compile flags: /Ogty
;	COMDAT ??0?$_STLP_alloc_proxy@PADDV?$allocator@D@_STL@@@_STL@@QAE@ABV?$allocator@D@1@PAD@Z
_TEXT	SEGMENT
___a$ = 8						; size = 4
___p$ = 12						; size = 4
??0?$_STLP_alloc_proxy@PADDV?$allocator@D@_STL@@@_STL@@QAE@ABV?$allocator@D@1@PAD@Z PROC NEAR ; _STL::_STLP_alloc_proxy<char *,char,_STL::allocator<char> >::_STLP_alloc_proxy<char *,char,_STL::allocator<char> >, COMDAT
; _this$ = ecx

; 487  :   inline _STLP_alloc_proxy(const _MaybeReboundAlloc& __a, _Value __p) : _MaybeReboundAlloc(__a), _M_data(__p) {}

  00000	8b c1		 mov	 eax, ecx
  00002	8b 4c 24 08	 mov	 ecx, DWORD PTR ___p$[esp-4]
  00006	89 08		 mov	 DWORD PTR [eax], ecx
  00008	c2 08 00	 ret	 8
??0?$_STLP_alloc_proxy@PADDV?$allocator@D@_STL@@@_STL@@QAE@ABV?$allocator@D@1@PAD@Z ENDP ; _STL::_STLP_alloc_proxy<char *,char,_STL::allocator<char> >::_STLP_alloc_proxy<char *,char,_STL::allocator<char> >
_TEXT	ENDS
PUBLIC	?allocate@?$__node_alloc@$00$0A@@_STL@@SAPAXI@Z	; _STL::__node_alloc<1,0>::allocate
EXTRN	?_M_allocate@?$__node_alloc@$00$0A@@_STL@@CAPAXI@Z:NEAR ; _STL::__node_alloc<1,0>::_M_allocate
; Function compile flags: /Ogty
;	COMDAT ?allocate@?$__node_alloc@$00$0A@@_STL@@SAPAXI@Z
_TEXT	SEGMENT
___n$ = 8						; size = 4
?allocate@?$__node_alloc@$00$0A@@_STL@@SAPAXI@Z PROC NEAR ; _STL::__node_alloc<1,0>::allocate, COMDAT

; 251  :   static void * _STLP_CALL allocate(size_t __n) { return (__n > (size_t)_MAX_BYTES) ?  __stl_new(__n) : _M_allocate(__n); }

  00000	8b 44 24 04	 mov	 eax, DWORD PTR ___n$[esp-4]
  00004	3d 80 00 00 00	 cmp	 eax, 128		; 00000080H
  00009	76 09		 jbe	 SHORT $L93510
  0000b	89 44 24 04	 mov	 DWORD PTR ___n$[esp-4], eax
  0000f	e9 00 00 00 00	 jmp	 ??2@YAPAXI@Z		; operator new
$L93510:
  00014	89 44 24 04	 mov	 DWORD PTR ___n$[esp-4], eax
  00018	e9 00 00 00 00	 jmp	 ?_M_allocate@?$__node_alloc@$00$0A@@_STL@@CAPAXI@Z ; _STL::__node_alloc<1,0>::_M_allocate
?allocate@?$__node_alloc@$00$0A@@_STL@@SAPAXI@Z ENDP	; _STL::__node_alloc<1,0>::allocate
_TEXT	ENDS
PUBLIC	??0?$allocator@U?$pair@$$CBGPAVivfstream@@@_STL@@@_STL@@QAE@XZ ; _STL::allocator<_STL::pair<unsigned short const ,ivfstream *> >::allocator<_STL::pair<unsigned short const ,ivfstream *> >
; Function compile flags: /Ogty
;	COMDAT ??0?$allocator@U?$pair@$$CBGPAVivfstream@@@_STL@@@_STL@@QAE@XZ
_TEXT	SEGMENT
??0?$allocator@U?$pair@$$CBGPAVivfstream@@@_STL@@@_STL@@QAE@XZ PROC NEAR ; _STL::allocator<_STL::pair<unsigned short const ,ivfstream *> >::allocator<_STL::pair<unsigned short const ,ivfstream *> >, COMDAT
; _this$ = ecx

; 345  :   allocator() _STLP_NOTHROW {}

  00000	8b c1		 mov	 eax, ecx
  00002	c3		 ret	 0
??0?$allocator@U?$pair@$$CBGPAVivfstream@@@_STL@@@_STL@@QAE@XZ ENDP ; _STL::allocator<_STL::pair<unsigned short const ,ivfstream *> >::allocator<_STL::pair<unsigned short const ,ivfstream *> >
_TEXT	ENDS
PUBLIC	??1?$allocator@U?$pair@$$CBGPAVivfstream@@@_STL@@@_STL@@QAE@XZ ; _STL::allocator<_STL::pair<unsigned short const ,ivfstream *> >::~allocator<_STL::pair<unsigned short const ,ivfstream *> >
; Function compile flags: /Ogty
;	COMDAT ??1?$allocator@U?$pair@$$CBGPAVivfstream@@@_STL@@@_STL@@QAE@XZ
_TEXT	SEGMENT
??1?$allocator@U?$pair@$$CBGPAVivfstream@@@_STL@@@_STL@@QAE@XZ PROC NEAR ; _STL::allocator<_STL::pair<unsigned short const ,ivfstream *> >::~allocator<_STL::pair<unsigned short const ,ivfstream *> >, COMDAT
; _this$ = ecx

; 350  :   ~allocator() _STLP_NOTHROW {}

  00000	c3		 ret	 0
??1?$allocator@U?$pair@$$CBGPAVivfstream@@@_STL@@@_STL@@QAE@XZ ENDP ; _STL::allocator<_STL::pair<unsigned short const ,ivfstream *> >::~allocator<_STL::pair<unsigned short const ,ivfstream *> >
_TEXT	ENDS
PUBLIC	?_M_root@?$_Rb_tree@GU?$pair@$$CBGPAVivfstream@@@_STL@@U?$_Select1st@U?$pair@$$CBGPAVivfstream@@@_STL@@@2@U?$less@G@2@V?$allocator@U?$pair@$$CBGPAVivfstream@@@_STL@@@2@@_STL@@IBEAAPAU?$_Rb_tree_node@U?$pair@$$CBGPAVivfstream@@@_STL@@@2@XZ ; _STL::_Rb_tree<unsigned short,_STL::pair<unsigned short const ,ivfstream *>,_STL::_Select1st<_STL::pair<unsigned short const ,ivfstream *> >,_STL::less<unsigned short>,_STL::allocator<_STL::pair<unsigned short const ,ivfstream *> > >::_M_root
; Function compile flags: /Ogty
; File c:\stlport-4.6.1\stlport\stl\_tree.h
;	COMDAT ?_M_root@?$_Rb_tree@GU?$pair@$$CBGPAVivfstream@@@_STL@@U?$_Select1st@U?$pair@$$CBGPAVivfstream@@@_STL@@@2@U?$less@G@2@V?$allocator@U?$pair@$$CBGPAVivfstream@@@_STL@@@2@@_STL@@IBEAAPAU?$_Rb_tree_node@U?$pair@$$CBGPAVivfstream@@@_STL@@@2@XZ
_TEXT	SEGMENT
?_M_root@?$_Rb_tree@GU?$pair@$$CBGPAVivfstream@@@_STL@@U?$_Select1st@U?$pair@$$CBGPAVivfstream@@@_STL@@@2@U?$less@G@2@V?$allocator@U?$pair@$$CBGPAVivfstream@@@_STL@@@2@@_STL@@IBEAAPAU?$_Rb_tree_node@U?$pair@$$CBGPAVivfstream@@@_STL@@@2@XZ PROC NEAR ; _STL::_Rb_tree<unsigned short,_STL::pair<unsigned short const ,ivfstream *>,_STL::_Select1st<_STL::pair<unsigned short const ,ivfstream *> >,_STL::less<unsigned short>,_STL::allocator<_STL::pair<unsigned short const ,ivfstream *> > >::_M_root, COMDAT
; _this$ = ecx

; 265  :     { return (_Link_type&) this->_M_header._M_data->_M_parent; }

  00000	8b 01		 mov	 eax, DWORD PTR [ecx]
  00002	83 c0 04	 add	 eax, 4
  00005	c3		 ret	 0
?_M_root@?$_Rb_tree@GU?$pair@$$CBGPAVivfstream@@@_STL@@U?$_Select1st@U?$pair@$$CBGPAVivfstream@@@_STL@@@2@U?$less@G@2@V?$allocator@U?$pair@$$CBGPAVivfstream@@@_STL@@@2@@_STL@@IBEAAPAU?$_Rb_tree_node@U?$pair@$$CBGPAVivfstream@@@_STL@@@2@XZ ENDP ; _STL::_Rb_tree<unsigned short,_STL::pair<unsigned short const ,ivfstream *>,_STL::_Select1st<_STL::pair<unsigned short const ,ivfstream *> >,_STL::less<unsigned short>,_STL::allocator<_STL::pair<unsigned short const ,ivfstream *> > >::_M_root
_TEXT	ENDS
PUBLIC	?_M_leftmost@?$_Rb_tree@GU?$pair@$$CBGPAVivfstream@@@_STL@@U?$_Select1st@U?$pair@$$CBGPAVivfstream@@@_STL@@@2@U?$less@G@2@V?$allocator@U?$pair@$$CBGPAVivfstream@@@_STL@@@2@@_STL@@IBEAAPAU?$_Rb_tree_node@U?$pair@$$CBGPAVivfstream@@@_STL@@@2@XZ ; _STL::_Rb_tree<unsigned short,_STL::pair<unsigned short const ,ivfstream *>,_STL::_Select1st<_STL::pair<unsigned short const ,ivfstream *> >,_STL::less<unsigned short>,_STL::allocator<_STL::pair<unsigned short const ,ivfstream *> > >::_M_leftmost
; Function compile flags: /Ogty
;	COMDAT ?_M_leftmost@?$_Rb_tree@GU?$pair@$$CBGPAVivfstream@@@_STL@@U?$_Select1st@U?$pair@$$CBGPAVivfstream@@@_STL@@@2@U?$less@G@2@V?$allocator@U?$pair@$$CBGPAVivfstream@@@_STL@@@2@@_STL@@IBEAAPAU?$_Rb_tree_node@U?$pair@$$CBGPAVivfstream@@@_STL@@@2@XZ
_TEXT	SEGMENT
?_M_leftmost@?$_Rb_tree@GU?$pair@$$CBGPAVivfstream@@@_STL@@U?$_Select1st@U?$pair@$$CBGPAVivfstream@@@_STL@@@2@U?$less@G@2@V?$allocator@U?$pair@$$CBGPAVivfstream@@@_STL@@@2@@_STL@@IBEAAPAU?$_Rb_tree_node@U?$pair@$$CBGPAVivfstream@@@_STL@@@2@XZ PROC NEAR ; _STL::_Rb_tree<unsigned short,_STL::pair<unsigned short const ,ivfstream *>,_STL::_Select1st<_STL::pair<unsigned short const ,ivfstream *> >,_STL::less<unsigned short>,_STL::allocator<_STL::pair<unsigned short const ,ivfstream *> > >::_M_leftmost, COMDAT
; _this$ = ecx

; 267  :     { return (_Link_type&) this->_M_header._M_data->_M_left; }

  00000	8b 01		 mov	 eax, DWORD PTR [ecx]
  00002	83 c0 08	 add	 eax, 8
  00005	c3		 ret	 0
?_M_leftmost@?$_Rb_tree@GU?$pair@$$CBGPAVivfstream@@@_STL@@U?$_Select1st@U?$pair@$$CBGPAVivfstream@@@_STL@@@2@U?$less@G@2@V?$allocator@U?$pair@$$CBGPAVivfstream@@@_STL@@@2@@_STL@@IBEAAPAU?$_Rb_tree_node@U?$pair@$$CBGPAVivfstream@@@_STL@@@2@XZ ENDP ; _STL::_Rb_tree<unsigned short,_STL::pair<unsigned short const ,ivfstream *>,_STL::_Select1st<_STL::pair<unsigned short const ,ivfstream *> >,_STL::less<unsigned short>,_STL::allocator<_STL::pair<unsigned short const ,ivfstream *> > >::_M_leftmost
_TEXT	ENDS
PUBLIC	?_M_rightmost@?$_Rb_tree@GU?$pair@$$CBGPAVivfstream@@@_STL@@U?$_Select1st@U?$pair@$$CBGPAVivfstream@@@_STL@@@2@U?$less@G@2@V?$allocator@U?$pair@$$CBGPAVivfstream@@@_STL@@@2@@_STL@@IBEAAPAU?$_Rb_tree_node@U?$pair@$$CBGPAVivfstream@@@_STL@@@2@XZ ; _STL::_Rb_tree<unsigned short,_STL::pair<unsigned short const ,ivfstream *>,_STL::_Select1st<_STL::pair<unsigned short const ,ivfstream *> >,_STL::less<unsigned short>,_STL::allocator<_STL::pair<unsigned short const ,ivfstream *> > >::_M_rightmost
; Function compile flags: /Ogty
;	COMDAT ?_M_rightmost@?$_Rb_tree@GU?$pair@$$CBGPAVivfstream@@@_STL@@U?$_Select1st@U?$pair@$$CBGPAVivfstream@@@_STL@@@2@U?$less@G@2@V?$allocator@U?$pair@$$CBGPAVivfstream@@@_STL@@@2@@_STL@@IBEAAPAU?$_Rb_tree_node@U?$pair@$$CBGPAVivfstream@@@_STL@@@2@XZ
_TEXT	SEGMENT
?_M_rightmost@?$_Rb_tree@GU?$pair@$$CBGPAVivfstream@@@_STL@@U?$_Select1st@U?$pair@$$CBGPAVivfstream@@@_STL@@@2@U?$less@G@2@V?$allocator@U?$pair@$$CBGPAVivfstream@@@_STL@@@2@@_STL@@IBEAAPAU?$_Rb_tree_node@U?$pair@$$CBGPAVivfstream@@@_STL@@@2@XZ PROC NEAR ; _STL::_Rb_tree<unsigned short,_STL::pair<unsigned short const ,ivfstream *>,_STL::_Select1st<_STL::pair<unsigned short const ,ivfstream *> >,_STL::less<unsigned short>,_STL::allocator<_STL::pair<unsigned short const ,ivfstream *> > >::_M_rightmost, COMDAT
; _this$ = ecx

; 269  :     { return (_Link_type&) this->_M_header._M_data->_M_right; }

  00000	8b 01		 mov	 eax, DWORD PTR [ecx]
  00002	83 c0 0c	 add	 eax, 12			; 0000000cH
  00005	c3		 ret	 0
?_M_rightmost@?$_Rb_tree@GU?$pair@$$CBGPAVivfstream@@@_STL@@U?$_Select1st@U?$pair@$$CBGPAVivfstream@@@_STL@@@2@U?$less@G@2@V?$allocator@U?$pair@$$CBGPAVivfstream@@@_STL@@@2@@_STL@@IBEAAPAU?$_Rb_tree_node@U?$pair@$$CBGPAVivfstream@@@_STL@@@2@XZ ENDP ; _STL::_Rb_tree<unsigned short,_STL::pair<unsigned short const ,ivfstream *>,_STL::_Select1st<_STL::pair<unsigned short const ,ivfstream *> >,_STL::less<unsigned short>,_STL::allocator<_STL::pair<unsigned short const ,ivfstream *> > >::_M_rightmost
_TEXT	ENDS
PUBLIC	??1?$allocator@U?$_Rb_tree_node@U?$pair@$$CBGPAVivfstream@@@_STL@@@_STL@@@_STL@@QAE@XZ ; _STL::allocator<_STL::_Rb_tree_node<_STL::pair<unsigned short const ,ivfstream *> > >::~allocator<_STL::_Rb_tree_node<_STL::pair<unsigned short const ,ivfstream *> > >
; Function compile flags: /Ogty
; File c:\stlport-4.6.1\stlport\stl\_alloc.h
;	COMDAT ??1?$allocator@U?$_Rb_tree_node@U?$pair@$$CBGPAVivfstream@@@_STL@@@_STL@@@_STL@@QAE@XZ
_TEXT	SEGMENT
??1?$allocator@U?$_Rb_tree_node@U?$pair@$$CBGPAVivfstream@@@_STL@@@_STL@@@_STL@@QAE@XZ PROC NEAR ; _STL::allocator<_STL::_Rb_tree_node<_STL::pair<unsigned short const ,ivfstream *> > >::~allocator<_STL::_Rb_tree_node<_STL::pair<unsigned short const ,ivfstream *> > >, COMDAT
; _this$ = ecx

; 350  :   ~allocator() _STLP_NOTHROW {}

  00000	c3		 ret	 0
??1?$allocator@U?$_Rb_tree_node@U?$pair@$$CBGPAVivfstream@@@_STL@@@_STL@@@_STL@@QAE@XZ ENDP ; _STL::allocator<_STL::_Rb_tree_node<_STL::pair<unsigned short const ,ivfstream *> > >::~allocator<_STL::_Rb_tree_node<_STL::pair<unsigned short const ,ivfstream *> > >
_TEXT	ENDS
PUBLIC	?deallocate@?$allocator@U?$_Rb_tree_node@U?$pair@$$CBGPAVivfstream@@@_STL@@@_STL@@@_STL@@QAEXPAU?$_Rb_tree_node@U?$pair@$$CBGPAVivfstream@@@_STL@@@2@I@Z ; _STL::allocator<_STL::_Rb_tree_node<_STL::pair<unsigned short const ,ivfstream *> > >::deallocate
; Function compile flags: /Ogty
;	COMDAT ?deallocate@?$allocator@U?$_Rb_tree_node@U?$pair@$$CBGPAVivfstream@@@_STL@@@_STL@@@_STL@@QAEXPAU?$_Rb_tree_node@U?$pair@$$CBGPAVivfstream@@@_STL@@@2@I@Z
_TEXT	SEGMENT
___p$ = 8						; size = 4
___n$ = 12						; size = 4
?deallocate@?$allocator@U?$_Rb_tree_node@U?$pair@$$CBGPAVivfstream@@@_STL@@@_STL@@@_STL@@QAEXPAU?$_Rb_tree_node@U?$pair@$$CBGPAVivfstream@@@_STL@@@2@I@Z PROC NEAR ; _STL::allocator<_STL::_Rb_tree_node<_STL::pair<unsigned short const ,ivfstream *> > >::deallocate, COMDAT
; _this$ = ecx

; 359  :     _STLP_ASSERT( (__p == 0) == (__n == 0) )
; 360  :       if (__p != 0) __sgi_alloc::deallocate((void*)__p, __n * sizeof(value_type));

  00000	8b 4c 24 04	 mov	 ecx, DWORD PTR ___p$[esp-4]
  00004	85 c9		 test	 ecx, ecx
  00006	74 27		 je	 SHORT $L93545
  00008	8b 44 24 08	 mov	 eax, DWORD PTR ___n$[esp-4]
  0000c	8d 04 40	 lea	 eax, DWORD PTR [eax+eax*2]
  0000f	c1 e0 03	 shl	 eax, 3
  00012	3d 80 00 00 00	 cmp	 eax, 128		; 00000080H
  00017	76 0c		 jbe	 SHORT $L93544
  00019	51		 push	 ecx
  0001a	e8 00 00 00 00	 call	 ??3@YAXPAX@Z		; operator delete
  0001f	83 c4 04	 add	 esp, 4

; 361  :   }

  00022	c2 08 00	 ret	 8

; 359  :     _STLP_ASSERT( (__p == 0) == (__n == 0) )
; 360  :       if (__p != 0) __sgi_alloc::deallocate((void*)__p, __n * sizeof(value_type));

$L93544:
  00025	50		 push	 eax
  00026	51		 push	 ecx
  00027	e8 00 00 00 00	 call	 ?_M_deallocate@?$__node_alloc@$00$0A@@_STL@@CAXPAXI@Z ; _STL::__node_alloc<1,0>::_M_deallocate
  0002c	83 c4 08	 add	 esp, 8
$L93545:

; 361  :   }

  0002f	c2 08 00	 ret	 8
?deallocate@?$allocator@U?$_Rb_tree_node@U?$pair@$$CBGPAVivfstream@@@_STL@@@_STL@@@_STL@@QAEXPAU?$_Rb_tree_node@U?$pair@$$CBGPAVivfstream@@@_STL@@@2@I@Z ENDP ; _STL::allocator<_STL::_Rb_tree_node<_STL::pair<unsigned short const ,ivfstream *> > >::deallocate
_TEXT	ENDS
PUBLIC	?_M_construct_null_aux@?$basic_string@DV?$char_traits@D@_STL@@V?$allocator@D@2@@_STL@@AAEXPADABU__true_type@2@@Z ; _STL::basic_string<char,_STL::char_traits<char>,_STL::allocator<char> >::_M_construct_null_aux
; Function compile flags: /Ogty
; File c:\stlport-4.6.1\stlport\stl\_string.h
;	COMDAT ?_M_construct_null_aux@?$basic_string@DV?$char_traits@D@_STL@@V?$allocator@D@2@@_STL@@AAEXPADABU__true_type@2@@Z
_TEXT	SEGMENT
___p$ = 8						; size = 4
___formal$ = 12						; size = 4
?_M_construct_null_aux@?$basic_string@DV?$char_traits@D@_STL@@V?$allocator@D@2@@_STL@@AAEXPADABU__true_type@2@@Z PROC NEAR ; _STL::basic_string<char,_STL::char_traits<char>,_STL::allocator<char> >::_M_construct_null_aux, COMDAT
; _this$ = ecx

; 332  :     *__p = 0;

  00000	8b 44 24 04	 mov	 eax, DWORD PTR ___p$[esp-4]
  00004	c6 00 00	 mov	 BYTE PTR [eax], 0

; 333  :   }

  00007	c2 08 00	 ret	 8
?_M_construct_null_aux@?$basic_string@DV?$char_traits@D@_STL@@V?$allocator@D@2@@_STL@@AAEXPADABU__true_type@2@@Z ENDP ; _STL::basic_string<char,_STL::char_traits<char>,_STL::allocator<char> >::_M_construct_null_aux
_TEXT	ENDS
PUBLIC	?_S_color@?$_Rb_tree@GU?$pair@$$CBGPAVivfstream@@@_STL@@U?$_Select1st@U?$pair@$$CBGPAVivfstream@@@_STL@@@2@U?$less@G@2@V?$allocator@U?$pair@$$CBGPAVivfstream@@@_STL@@@2@@_STL@@KAAA_NPAU?$_Rb_tree_node@U?$pair@$$CBGPAVivfstream@@@_STL@@@2@@Z ; _STL::_Rb_tree<unsigned short,_STL::pair<unsigned short const ,ivfstream *>,_STL::_Select1st<_STL::pair<unsigned short const ,ivfstream *> >,_STL::less<unsigned short>,_STL::allocator<_STL::pair<unsigned short const ,ivfstream *> > >::_S_color
; Function compile flags: /Ogty
; File c:\stlport-4.6.1\stlport\stl\_tree.h
;	COMDAT ?_S_color@?$_Rb_tree@GU?$pair@$$CBGPAVivfstream@@@_STL@@U?$_Select1st@U?$pair@$$CBGPAVivfstream@@@_STL@@@2@U?$less@G@2@V?$allocator@U?$pair@$$CBGPAVivfstream@@@_STL@@@2@@_STL@@KAAA_NPAU?$_Rb_tree_node@U?$pair@$$CBGPAVivfstream@@@_STL@@@2@@Z
_TEXT	SEGMENT
___x$ = 8						; size = 4
?_S_color@?$_Rb_tree@GU?$pair@$$CBGPAVivfstream@@@_STL@@U?$_Select1st@U?$pair@$$CBGPAVivfstream@@@_STL@@@2@U?$less@G@2@V?$allocator@U?$pair@$$CBGPAVivfstream@@@_STL@@@2@@_STL@@KAAA_NPAU?$_Rb_tree_node@U?$pair@$$CBGPAVivfstream@@@_STL@@@2@@Z PROC NEAR ; _STL::_Rb_tree<unsigned short,_STL::pair<unsigned short const ,ivfstream *>,_STL::_Select1st<_STL::pair<unsigned short const ,ivfstream *> >,_STL::less<unsigned short>,_STL::allocator<_STL::pair<unsigned short const ,ivfstream *> > >::_S_color, COMDAT

; 282  :     { return (_Color_type&)(__x->_M_color); }

  00000	8b 44 24 04	 mov	 eax, DWORD PTR ___x$[esp-4]
  00004	c3		 ret	 0
?_S_color@?$_Rb_tree@GU?$pair@$$CBGPAVivfstream@@@_STL@@U?$_Select1st@U?$pair@$$CBGPAVivfstream@@@_STL@@@2@U?$less@G@2@V?$allocator@U?$pair@$$CBGPAVivfstream@@@_STL@@@2@@_STL@@KAAA_NPAU?$_Rb_tree_node@U?$pair@$$CBGPAVivfstream@@@_STL@@@2@@Z ENDP ; _STL::_Rb_tree<unsigned short,_STL::pair<unsigned short const ,ivfstream *>,_STL::_Select1st<_STL::pair<unsigned short const ,ivfstream *> >,_STL::less<unsigned short>,_STL::allocator<_STL::pair<unsigned short const ,ivfstream *> > >::_S_color
_TEXT	ENDS
PUBLIC	?allocate@?$allocator@U?$_Rb_tree_node@U?$pair@$$CBGPAVivfstream@@@_STL@@@_STL@@@_STL@@QAEPAU?$_Rb_tree_node@U?$pair@$$CBGPAVivfstream@@@_STL@@@2@IPBX@Z ; _STL::allocator<_STL::_Rb_tree_node<_STL::pair<unsigned short const ,ivfstream *> > >::allocate
; Function compile flags: /Ogty
; File c:\stlport-4.6.1\stlport\stl\_alloc.h
;	COMDAT ?allocate@?$allocator@U?$_Rb_tree_node@U?$pair@$$CBGPAVivfstream@@@_STL@@@_STL@@@_STL@@QAEPAU?$_Rb_tree_node@U?$pair@$$CBGPAVivfstream@@@_STL@@@2@IPBX@Z
_TEXT	SEGMENT
___n$ = 8						; size = 4
___formal$ = 12						; size = 4
?allocate@?$allocator@U?$_Rb_tree_node@U?$pair@$$CBGPAVivfstream@@@_STL@@@_STL@@@_STL@@QAEPAU?$_Rb_tree_node@U?$pair@$$CBGPAVivfstream@@@_STL@@@2@IPBX@Z PROC NEAR ; _STL::allocator<_STL::_Rb_tree_node<_STL::pair<unsigned short const ,ivfstream *> > >::allocate, COMDAT
; _this$ = ecx

; 355  :     return __n != 0 ? __REINTERPRET_CAST(value_type*,__sgi_alloc::allocate(__n * sizeof(value_type))) : 0;

  00000	8b 44 24 04	 mov	 eax, DWORD PTR ___n$[esp-4]
  00004	85 c0		 test	 eax, eax
  00006	74 24		 je	 SHORT $L93556
  00008	8d 04 40	 lea	 eax, DWORD PTR [eax+eax*2]
  0000b	c1 e0 03	 shl	 eax, 3
  0000e	3d 80 00 00 00	 cmp	 eax, 128		; 00000080H
  00013	50		 push	 eax
  00014	76 0b		 jbe	 SHORT $L93566
  00016	e8 00 00 00 00	 call	 ??2@YAPAXI@Z		; operator new
  0001b	83 c4 04	 add	 esp, 4

; 356  :   }

  0001e	c2 08 00	 ret	 8

; 355  :     return __n != 0 ? __REINTERPRET_CAST(value_type*,__sgi_alloc::allocate(__n * sizeof(value_type))) : 0;

$L93566:
  00021	e8 00 00 00 00	 call	 ?_M_allocate@?$__node_alloc@$00$0A@@_STL@@CAPAXI@Z ; _STL::__node_alloc<1,0>::_M_allocate
  00026	83 c4 04	 add	 esp, 4

; 356  :   }

  00029	c2 08 00	 ret	 8
$L93556:

; 355  :     return __n != 0 ? __REINTERPRET_CAST(value_type*,__sgi_alloc::allocate(__n * sizeof(value_type))) : 0;

  0002c	33 c0		 xor	 eax, eax

; 356  :   }

  0002e	c2 08 00	 ret	 8
?allocate@?$allocator@U?$_Rb_tree_node@U?$pair@$$CBGPAVivfstream@@@_STL@@@_STL@@@_STL@@QAEPAU?$_Rb_tree_node@U?$pair@$$CBGPAVivfstream@@@_STL@@@2@IPBX@Z ENDP ; _STL::allocator<_STL::_Rb_tree_node<_STL::pair<unsigned short const ,ivfstream *> > >::allocate
_TEXT	ENDS
PUBLIC	??0?$allocator@U?$_Rb_tree_node@U?$pair@$$CBGPAVivfstream@@@_STL@@@_STL@@@_STL@@QAE@ABV01@@Z ; _STL::allocator<_STL::_Rb_tree_node<_STL::pair<unsigned short const ,ivfstream *> > >::allocator<_STL::_Rb_tree_node<_STL::pair<unsigned short const ,ivfstream *> > >
; Function compile flags: /Ogty
;	COMDAT ??0?$allocator@U?$_Rb_tree_node@U?$pair@$$CBGPAVivfstream@@@_STL@@@_STL@@@_STL@@QAE@ABV01@@Z
_TEXT	SEGMENT
___formal$ = 8						; size = 4
??0?$allocator@U?$_Rb_tree_node@U?$pair@$$CBGPAVivfstream@@@_STL@@@_STL@@@_STL@@QAE@ABV01@@Z PROC NEAR ; _STL::allocator<_STL::_Rb_tree_node<_STL::pair<unsigned short const ,ivfstream *> > >::allocator<_STL::_Rb_tree_node<_STL::pair<unsigned short const ,ivfstream *> > >, COMDAT
; _this$ = ecx

; 349  :   allocator(const allocator<_Tp>&) _STLP_NOTHROW {}

  00000	8b c1		 mov	 eax, ecx
  00002	c2 04 00	 ret	 4
??0?$allocator@U?$_Rb_tree_node@U?$pair@$$CBGPAVivfstream@@@_STL@@@_STL@@@_STL@@QAE@ABV01@@Z ENDP ; _STL::allocator<_STL::_Rb_tree_node<_STL::pair<unsigned short const ,ivfstream *> > >::allocator<_STL::_Rb_tree_node<_STL::pair<unsigned short const ,ivfstream *> > >
_TEXT	ENDS
PUBLIC	?widen@?$basic_ios@DV?$char_traits@D@_STL@@@_STL@@QBEDD@Z ; _STL::basic_ios<char,_STL::char_traits<char> >::widen
; Function compile flags: /Ogty
; File c:\stlport-4.6.1\stlport\stl\_ios.h
;	COMDAT ?widen@?$basic_ios@DV?$char_traits@D@_STL@@@_STL@@QBEDD@Z
_TEXT	SEGMENT
___c$ = 8						; size = 1
?widen@?$basic_ios@DV?$char_traits@D@_STL@@@_STL@@QBEDD@Z PROC NEAR ; _STL::basic_ios<char,_STL::char_traits<char> >::widen, COMDAT
; _this$ = ecx

; 143  :   return ((const ctype<_CharT>*)this->_M_ctype_facet())->widen(__c); }

  00000	8b 49 40	 mov	 ecx, DWORD PTR [ecx+64]
  00003	8b 01		 mov	 eax, DWORD PTR [ecx]
  00005	ff 60 18	 jmp	 DWORD PTR [eax+24]
?widen@?$basic_ios@DV?$char_traits@D@_STL@@@_STL@@QBEDD@Z ENDP ; _STL::basic_ios<char,_STL::char_traits<char> >::widen
_TEXT	ENDS
PUBLIC	?_M_handle_exception@?$basic_ios@DV?$char_traits@D@_STL@@@_STL@@QAEXH@Z ; _STL::basic_ios<char,_STL::char_traits<char> >::_M_handle_exception
EXTRN	__CxxThrowException@8:NEAR
; Function compile flags: /Ogty
; File c:\stlport-4.6.1\stlport\stl\_ios.c
;	COMDAT ?_M_handle_exception@?$basic_ios@DV?$char_traits@D@_STL@@@_STL@@QAEXH@Z
_TEXT	SEGMENT
___flag$ = 8						; size = 4
?_M_handle_exception@?$basic_ios@DV?$char_traits@D@_STL@@@_STL@@QAEXH@Z PROC NEAR ; _STL::basic_ios<char,_STL::char_traits<char> >::_M_handle_exception, COMDAT
; _this$ = ecx

; 118  :   this->_M_setstate_nothrow(__flag);

  00000	8b 44 24 04	 mov	 eax, DWORD PTR ___flag$[esp-4]
  00004	09 41 08	 or	 DWORD PTR [ecx+8], eax

; 119  :   if (this->_M_get_exception_mask() & __flag)

  00007	85 41 14	 test	 DWORD PTR [ecx+20], eax
  0000a	74 09		 je	 SHORT $L91475

; 120  :     _STLP_RETHROW;

  0000c	6a 00		 push	 0
  0000e	6a 00		 push	 0
  00010	e8 00 00 00 00	 call	 __CxxThrowException@8
$L93597:
$L91475:

; 121  : }

  00015	c2 04 00	 ret	 4
$L93596:
?_M_handle_exception@?$basic_ios@DV?$char_traits@D@_STL@@@_STL@@QAEXH@Z ENDP ; _STL::basic_ios<char,_STL::char_traits<char> >::_M_handle_exception
_TEXT	ENDS
PUBLIC	?_M_unshift@?$basic_filebuf@DV?$char_traits@D@_STL@@@_STL@@AAE_NXZ ; _STL::basic_filebuf<char,_STL::char_traits<char> >::_M_unshift
; Function compile flags: /Ogty
; File c:\stlport-4.6.1\stlport\stl\_fstream.c
;	COMDAT ?_M_unshift@?$basic_filebuf@DV?$char_traits@D@_STL@@@_STL@@AAE_NXZ
_TEXT	SEGMENT
___enext$91486 = -4					; size = 4
?_M_unshift@?$basic_filebuf@DV?$char_traits@D@_STL@@@_STL@@AAE_NXZ PROC NEAR ; _STL::basic_filebuf<char,_STL::char_traits<char> >::_M_unshift, COMDAT
; _this$ = ecx

; 605  : {

  00000	51		 push	 ecx
  00001	53		 push	 ebx
  00002	55		 push	 ebp
  00003	56		 push	 esi
  00004	8b f1		 mov	 esi, ecx

; 606  :   if (_M_in_output_mode && !_M_constant_width) {

  00006	8a 46 68	 mov	 al, BYTE PTR [esi+104]
  00009	84 c0		 test	 al, al
  0000b	57		 push	 edi
  0000c	74 60		 je	 SHORT $L91485
  0000e	8a 46 64	 mov	 al, BYTE PTR [esi+100]
  00011	84 c0		 test	 al, al
  00013	75 59		 jne	 SHORT $L91485
  00015	8d 9e 84 00 00
	00		 lea	 ebx, DWORD PTR [esi+132]
  0001b	eb 03 8d 49 00	 npad	 5
$L91483:

; 607  :     typename _Codecvt::result __status;
; 608  :     do {
; 609  :       char* __enext = _M_ext_buf;
; 610  :       __status = _M_codecvt->unshift(_M_state,
; 611  :                                      _M_ext_buf, _M_ext_buf_EOS, __enext);

  00020	8b 56 78	 mov	 edx, DWORD PTR [esi+120]
  00023	8b 46 74	 mov	 eax, DWORD PTR [esi+116]
  00026	8b 8e a0 00 00
	00		 mov	 ecx, DWORD PTR [esi+160]
  0002c	8d 6c 24 10	 lea	 ebp, DWORD PTR ___enext$91486[esp+20]
  00030	55		 push	 ebp
  00031	52		 push	 edx
  00032	50		 push	 eax
  00033	89 44 24 1c	 mov	 DWORD PTR ___enext$91486[esp+32], eax
  00037	8b 39		 mov	 edi, DWORD PTR [ecx]
  00039	53		 push	 ebx
  0003a	ff 57 0c	 call	 DWORD PTR [edi+12]
  0003d	8b f8		 mov	 edi, eax

; 612  :       if (__status == _Codecvt::noconv ||
; 613  :           (__enext == _M_ext_buf && __status == _Codecvt::ok))

  0003f	83 ff 03	 cmp	 edi, 3
  00042	74 2a		 je	 SHORT $L91485
  00044	8b 4c 24 10	 mov	 ecx, DWORD PTR ___enext$91486[esp+20]
  00048	3b 4e 74	 cmp	 ecx, DWORD PTR [esi+116]
  0004b	75 04		 jne	 SHORT $L91487
  0004d	85 ff		 test	 edi, edi
  0004f	74 1d		 je	 SHORT $L91485
$L91487:

; 614  :         return true;
; 615  :       else if (__status == _Codecvt::error)

  00051	83 ff 02	 cmp	 edi, 2
  00054	74 20		 je	 SHORT $L93616

; 616  :         return false;
; 617  :       else if (!_M_write(_M_ext_buf, __enext - _M_ext_buf))

  00056	8b 46 74	 mov	 eax, DWORD PTR [esi+116]
  00059	2b c8		 sub	 ecx, eax
  0005b	51		 push	 ecx
  0005c	50		 push	 eax
  0005d	8d 4e 54	 lea	 ecx, DWORD PTR [esi+84]
  00060	e8 00 00 00 00	 call	 ?_M_write@_Filebuf_base@_STL@@QAE_NPADH@Z ; _STL::_Filebuf_base::_M_write
  00065	84 c0		 test	 al, al
  00067	74 0d		 je	 SHORT $L93616

; 619  :     } while(__status == _Codecvt::partial);

  00069	83 ff 01	 cmp	 edi, 1
  0006c	74 b2		 je	 SHORT $L91483
$L91485:
  0006e	5f		 pop	 edi
  0006f	5e		 pop	 esi
  00070	5d		 pop	 ebp

; 620  :   }
; 621  : 
; 622  :   return true;

  00071	b0 01		 mov	 al, 1
  00073	5b		 pop	 ebx

; 623  : }

  00074	59		 pop	 ecx
  00075	c3		 ret	 0
$L93616:
  00076	5f		 pop	 edi
  00077	5e		 pop	 esi
  00078	5d		 pop	 ebp

; 618  :         return false;

  00079	32 c0		 xor	 al, al
  0007b	5b		 pop	 ebx

; 623  : }

  0007c	59		 pop	 ecx
  0007d	c3		 ret	 0
?_M_unshift@?$basic_filebuf@DV?$char_traits@D@_STL@@@_STL@@AAE_NXZ ENDP ; _STL::basic_filebuf<char,_STL::char_traits<char> >::_M_unshift
_TEXT	ENDS
PUBLIC	??$max@H@_STL@@YAABHABH0@Z			; _STL::max<int>
; Function compile flags: /Ogty
; File c:\stlport-4.6.1\stlport\stl\_algobase.h
;	COMDAT ??$max@H@_STL@@YAABHABH0@Z
_TEXT	SEGMENT
___a$ = 8						; size = 4
___b$ = 12						; size = 4
??$max@H@_STL@@YAABHABH0@Z PROC NEAR			; _STL::max<int>, COMDAT

; 79   : inline const _Tp& (max)(const _Tp& __a, const _Tp& __b) {  return  __a < __b ? __b : __a; }

  00000	8b 44 24 04	 mov	 eax, DWORD PTR ___a$[esp-4]
  00004	8b 4c 24 08	 mov	 ecx, DWORD PTR ___b$[esp-4]
  00008	8b 10		 mov	 edx, DWORD PTR [eax]
  0000a	3b 11		 cmp	 edx, DWORD PTR [ecx]
  0000c	7d 02		 jge	 SHORT $L93622
  0000e	8b c1		 mov	 eax, ecx
$L93622:
  00010	c3		 ret	 0
??$max@H@_STL@@YAABHABH0@Z ENDP				; _STL::max<int>
_TEXT	ENDS
PUBLIC	??$use_facet@V?$codecvt@DDH@_STL@@@_STL@@YAABV?$codecvt@DDH@0@ABVlocale@0@@Z ; _STL::use_facet<_STL::codecvt<char,char,int> >
EXTRN	?id@?$codecvt@DDH@_STL@@2V0locale@2@A:DWORD	; _STL::codecvt<char,char,int>::id
EXTRN	?_M_use_facet@locale@_STL@@QBEPAVfacet@12@ABVid@12@@Z:NEAR ; _STL::locale::_M_use_facet
; Function compile flags: /Ogty
; File c:\stlport-4.6.1\stlport\stl\_locale.h
;	COMDAT ??$use_facet@V?$codecvt@DDH@_STL@@@_STL@@YAABV?$codecvt@DDH@0@ABVlocale@0@@Z
_TEXT	SEGMENT
___loc$ = 8						; size = 4
??$use_facet@V?$codecvt@DDH@_STL@@@_STL@@YAABV?$codecvt@DDH@0@ABVlocale@0@@Z PROC NEAR ; _STL::use_facet<_STL::codecvt<char,char,int> >, COMDAT

; 204  :   return *__STATIC_CAST(const _Facet*,__loc._M_use_facet(_Facet::id));

  00000	8b 4c 24 04	 mov	 ecx, DWORD PTR ___loc$[esp-4]
  00004	68 00 00 00 00	 push	 OFFSET FLAT:?id@?$codecvt@DDH@_STL@@2V0locale@2@A ; _STL::codecvt<char,char,int>::id
  00009	e8 00 00 00 00	 call	 ?_M_use_facet@locale@_STL@@QBEPAVfacet@12@ABVid@12@@Z ; _STL::locale::_M_use_facet

; 205  : }

  0000e	c3		 ret	 0
??$use_facet@V?$codecvt@DDH@_STL@@@_STL@@YAABV?$codecvt@DDH@0@ABVlocale@0@@Z ENDP ; _STL::use_facet<_STL::codecvt<char,char,int> >
_TEXT	ENDS
PUBLIC	??$max@I@_STL@@YAABIABI0@Z			; _STL::max<unsigned int>
; Function compile flags: /Ogty
; File c:\stlport-4.6.1\stlport\stl\_algobase.h
;	COMDAT ??$max@I@_STL@@YAABIABI0@Z
_TEXT	SEGMENT
___a$ = 8						; size = 4
___b$ = 12						; size = 4
??$max@I@_STL@@YAABIABI0@Z PROC NEAR			; _STL::max<unsigned int>, COMDAT

; 79   : inline const _Tp& (max)(const _Tp& __a, const _Tp& __b) {  return  __a < __b ? __b : __a; }

  00000	8b 44 24 04	 mov	 eax, DWORD PTR ___a$[esp-4]
  00004	8b 4c 24 08	 mov	 ecx, DWORD PTR ___b$[esp-4]
  00008	8b 10		 mov	 edx, DWORD PTR [eax]
  0000a	3b 11		 cmp	 edx, DWORD PTR [ecx]
  0000c	73 02		 jae	 SHORT $L93631
  0000e	8b c1		 mov	 eax, ecx
$L93631:
  00010	c3		 ret	 0
??$max@I@_STL@@YAABIABI0@Z ENDP				; _STL::max<unsigned int>
_TEXT	ENDS
PUBLIC	??$_Destroy@U?$pair@$$CBGPAVivfstream@@@_STL@@@_STL@@YAXPAU?$pair@$$CBGPAVivfstream@@@0@@Z ; _STL::_Destroy<_STL::pair<unsigned short const ,ivfstream *> >
; Function compile flags: /Ogty
; File c:\stlport-4.6.1\stlport\stl\_construct.h
;	COMDAT ??$_Destroy@U?$pair@$$CBGPAVivfstream@@@_STL@@@_STL@@YAXPAU?$pair@$$CBGPAVivfstream@@@0@@Z
_TEXT	SEGMENT
___pointer$ = 8						; size = 4
??$_Destroy@U?$pair@$$CBGPAVivfstream@@@_STL@@@_STL@@YAXPAU?$pair@$$CBGPAVivfstream@@@0@@Z PROC NEAR ; _STL::_Destroy<_STL::pair<unsigned short const ,ivfstream *> >, COMDAT

; 57   : # if _MSC_VER >= 1010
; 58   :   __pointer;
; 59   : # endif	// _MSC_VER >= 1000
; 60   : # ifdef _STLP_TRIVIAL_DESTRUCTOR_BUG
; 61   :   typedef typename __type_traits<_Tp>::has_trivial_destructor _Trivial_destructor;
; 62   :   __destroy_aux(__pointer, _Trivial_destructor());
; 63   : # else
; 64   : #  if ( defined (__BORLANDC__) && ( __BORLANDC__ < 0x500 ) )
; 65   :     __pointer->_Tp::~_Tp();
; 66   : #  else
; 67   :     __pointer->~_Tp();
; 68   : #  endif
; 69   : # endif
; 70   : # ifdef _STLP_DEBUG_UNINITIALIZED
; 71   : 	memset((char*)__pointer, _STLP_SHRED_BYTE, sizeof(_Tp));
; 72   : # endif
; 73   : }

  00000	c3		 ret	 0
??$_Destroy@U?$pair@$$CBGPAVivfstream@@@_STL@@@_STL@@YAXPAU?$pair@$$CBGPAVivfstream@@@0@@Z ENDP ; _STL::_Destroy<_STL::pair<unsigned short const ,ivfstream *> >
_TEXT	ENDS
PUBLIC	??$?0U?$pair@$$CBGPAVivfstream@@@_STL@@@?$allocator@U?$_Rb_tree_node@U?$pair@$$CBGPAVivfstream@@@_STL@@@_STL@@@_STL@@QAE@ABV?$allocator@U?$pair@$$CBGPAVivfstream@@@_STL@@@1@@Z ; _STL::allocator<_STL::_Rb_tree_node<_STL::pair<unsigned short const ,ivfstream *> > >::allocator<_STL::_Rb_tree_node<_STL::pair<unsigned short const ,ivfstream *> > ><_STL::pair<unsigned short const ,ivfstream *> >
; Function compile flags: /Ogty
; File c:\stlport-4.6.1\stlport\stl\_alloc.h
;	COMDAT ??$?0U?$pair@$$CBGPAVivfstream@@@_STL@@@?$allocator@U?$_Rb_tree_node@U?$pair@$$CBGPAVivfstream@@@_STL@@@_STL@@@_STL@@QAE@ABV?$allocator@U?$pair@$$CBGPAVivfstream@@@_STL@@@1@@Z
_TEXT	SEGMENT
___formal$ = 8						; size = 4
??$?0U?$pair@$$CBGPAVivfstream@@@_STL@@@?$allocator@U?$_Rb_tree_node@U?$pair@$$CBGPAVivfstream@@@_STL@@@_STL@@@_STL@@QAE@ABV?$allocator@U?$pair@$$CBGPAVivfstream@@@_STL@@@1@@Z PROC NEAR ; _STL::allocator<_STL::_Rb_tree_node<_STL::pair<unsigned short const ,ivfstream *> > >::allocator<_STL::_Rb_tree_node<_STL::pair<unsigned short const ,ivfstream *> > ><_STL::pair<unsigned short const ,ivfstream *> >, COMDAT
; _this$ = ecx

; 347  :   template <class _Tp1> allocator(const allocator<_Tp1>&) _STLP_NOTHROW {}

  00000	8b c1		 mov	 eax, ecx
  00002	c2 04 00	 ret	 4
??$?0U?$pair@$$CBGPAVivfstream@@@_STL@@@?$allocator@U?$_Rb_tree_node@U?$pair@$$CBGPAVivfstream@@@_STL@@@_STL@@@_STL@@QAE@ABV?$allocator@U?$pair@$$CBGPAVivfstream@@@_STL@@@1@@Z ENDP ; _STL::allocator<_STL::_Rb_tree_node<_STL::pair<unsigned short const ,ivfstream *> > >::allocator<_STL::_Rb_tree_node<_STL::pair<unsigned short const ,ivfstream *> > ><_STL::pair<unsigned short const ,ivfstream *> >
_TEXT	ENDS
PUBLIC	??_FCFrame@@QAEXXZ				; CFrame::`default constructor closure'
; Function compile flags: /Ogty
;	COMDAT ??_FCFrame@@QAEXXZ
_TEXT	SEGMENT
??_FCFrame@@QAEXXZ PROC NEAR				; CFrame::`default constructor closure', COMDAT
; _this$ = ecx
  00000	6a 00		 push	 0
  00002	6a 00		 push	 0
  00004	6a 00		 push	 0
  00006	e8 00 00 00 00	 call	 ?Set@CFrame@@QAEXGFF@Z	; CFrame::Set
  0000b	c3		 ret	 0
??_FCFrame@@QAEXXZ ENDP					; CFrame::`default constructor closure'
_TEXT	ENDS
PUBLIC	??_H@YGXPAXIHP6EPAX0@Z@Z			; `vector constructor iterator'
; Function compile flags: /Ogty
;	COMDAT ??_H@YGXPAXIHP6EPAX0@Z@Z
_TEXT	SEGMENT
___t$ = 8						; size = 4
___s$ = 12						; size = 4
___n$ = 16						; size = 4
___f$ = 20						; size = 4
??_H@YGXPAXIHP6EPAX0@Z@Z PROC NEAR			; `vector constructor iterator', COMDAT
  00000	8b 44 24 0c	 mov	 eax, DWORD PTR ___n$[esp-4]
  00004	48		 dec	 eax
  00005	78 26		 js	 SHORT $L91771
  00007	53		 push	 ebx
  00008	8b 5c 24 14	 mov	 ebx, DWORD PTR ___f$[esp]
  0000c	55		 push	 ebp
  0000d	8b 6c 24 10	 mov	 ebp, DWORD PTR ___s$[esp+4]
  00011	56		 push	 esi
  00012	8b 74 24 10	 mov	 esi, DWORD PTR ___t$[esp+8]
  00016	57		 push	 edi
  00017	8d 78 01	 lea	 edi, DWORD PTR [eax+1]
  0001a	8d 9b 00 00 00
	00		 npad	 6
$L91770:
  00020	8b ce		 mov	 ecx, esi
  00022	ff d3		 call	 ebx
  00024	03 f5		 add	 esi, ebp
  00026	4f		 dec	 edi
  00027	75 f7		 jne	 SHORT $L91770
  00029	5f		 pop	 edi
  0002a	5e		 pop	 esi
  0002b	5d		 pop	 ebp
  0002c	5b		 pop	 ebx
$L91771:
  0002d	c2 10 00	 ret	 16			; 00000010H
??_H@YGXPAXIHP6EPAX0@Z@Z ENDP				; `vector constructor iterator'
_TEXT	ENDS
PUBLIC	?capacity@?$basic_string@DV?$char_traits@D@_STL@@V?$allocator@D@2@@_STL@@QBEIXZ ; _STL::basic_string<char,_STL::char_traits<char>,_STL::allocator<char> >::capacity
; Function compile flags: /Ogty
; File c:\stlport-4.6.1\stlport\stl\_string.h
;	COMDAT ?capacity@?$basic_string@DV?$char_traits@D@_STL@@V?$allocator@D@2@@_STL@@QBEIXZ
_TEXT	SEGMENT
?capacity@?$basic_string@DV?$char_traits@D@_STL@@V?$allocator@D@2@@_STL@@QBEIXZ PROC NEAR ; _STL::basic_string<char,_STL::char_traits<char>,_STL::allocator<char> >::capacity, COMDAT
; _this$ = ecx

; 447  :   size_type capacity() const { return (this->_M_end_of_storage._M_data - this->_M_start) - 1; }

  00000	8b 41 08	 mov	 eax, DWORD PTR [ecx+8]
  00003	2b 01		 sub	 eax, DWORD PTR [ecx]
  00005	48		 dec	 eax
  00006	c3		 ret	 0
?capacity@?$basic_string@DV?$char_traits@D@_STL@@V?$allocator@D@2@@_STL@@QBEIXZ ENDP ; _STL::basic_string<char,_STL::char_traits<char>,_STL::allocator<char> >::capacity
_TEXT	ENDS
PUBLIC	?tie@?$basic_ios@DV?$char_traits@D@_STL@@@_STL@@QBEPAV?$basic_ostream@DV?$char_traits@D@_STL@@@2@XZ ; _STL::basic_ios<char,_STL::char_traits<char> >::tie
; Function compile flags: /Ogty
; File c:\stlport-4.6.1\stlport\stl\_ios.h
;	COMDAT ?tie@?$basic_ios@DV?$char_traits@D@_STL@@@_STL@@QBEPAV?$basic_ostream@DV?$char_traits@D@_STL@@@2@XZ
_TEXT	SEGMENT
?tie@?$basic_ios@DV?$char_traits@D@_STL@@@_STL@@QBEPAV?$basic_ostream@DV?$char_traits@D@_STL@@@2@XZ PROC NEAR ; _STL::basic_ios<char,_STL::char_traits<char> >::tie, COMDAT
; _this$ = ecx

; 62   :     return _M_tied_ostream;

  00000	8b 41 5c	 mov	 eax, DWORD PTR [ecx+92]

; 63   :   }

  00003	c3		 ret	 0
?tie@?$basic_ios@DV?$char_traits@D@_STL@@@_STL@@QBEPAV?$basic_ostream@DV?$char_traits@D@_STL@@@2@XZ ENDP ; _STL::basic_ios<char,_STL::char_traits<char> >::tie
_TEXT	ENDS
PUBLIC	?_S_left@?$_Rb_tree@GU?$pair@$$CBGPAVivfstream@@@_STL@@U?$_Select1st@U?$pair@$$CBGPAVivfstream@@@_STL@@@2@U?$less@G@2@V?$allocator@U?$pair@$$CBGPAVivfstream@@@_STL@@@2@@_STL@@KAAAPAU?$_Rb_tree_node@U?$pair@$$CBGPAVivfstream@@@_STL@@@2@PAU32@@Z ; _STL::_Rb_tree<unsigned short,_STL::pair<unsigned short const ,ivfstream *>,_STL::_Select1st<_STL::pair<unsigned short const ,ivfstream *> >,_STL::less<unsigned short>,_STL::allocator<_STL::pair<unsigned short const ,ivfstream *> > >::_S_left
; Function compile flags: /Ogty
; File c:\stlport-4.6.1\stlport\stl\_tree.h
;	COMDAT ?_S_left@?$_Rb_tree@GU?$pair@$$CBGPAVivfstream@@@_STL@@U?$_Select1st@U?$pair@$$CBGPAVivfstream@@@_STL@@@2@U?$less@G@2@V?$allocator@U?$pair@$$CBGPAVivfstream@@@_STL@@@2@@_STL@@KAAAPAU?$_Rb_tree_node@U?$pair@$$CBGPAVivfstream@@@_STL@@@2@PAU32@@Z
_TEXT	SEGMENT
___x$ = 8						; size = 4
?_S_left@?$_Rb_tree@GU?$pair@$$CBGPAVivfstream@@@_STL@@U?$_Select1st@U?$pair@$$CBGPAVivfstream@@@_STL@@@2@U?$less@G@2@V?$allocator@U?$pair@$$CBGPAVivfstream@@@_STL@@@2@@_STL@@KAAAPAU?$_Rb_tree_node@U?$pair@$$CBGPAVivfstream@@@_STL@@@2@PAU32@@Z PROC NEAR ; _STL::_Rb_tree<unsigned short,_STL::pair<unsigned short const ,ivfstream *>,_STL::_Select1st<_STL::pair<unsigned short const ,ivfstream *> >,_STL::less<unsigned short>,_STL::allocator<_STL::pair<unsigned short const ,ivfstream *> > >::_S_left, COMDAT

; 272  :     { return (_Link_type&)(__x->_M_left); }

  00000	8b 44 24 04	 mov	 eax, DWORD PTR ___x$[esp-4]
  00004	83 c0 08	 add	 eax, 8
  00007	c3		 ret	 0
?_S_left@?$_Rb_tree@GU?$pair@$$CBGPAVivfstream@@@_STL@@U?$_Select1st@U?$pair@$$CBGPAVivfstream@@@_STL@@@2@U?$less@G@2@V?$allocator@U?$pair@$$CBGPAVivfstream@@@_STL@@@2@@_STL@@KAAAPAU?$_Rb_tree_node@U?$pair@$$CBGPAVivfstream@@@_STL@@@2@PAU32@@Z ENDP ; _STL::_Rb_tree<unsigned short,_STL::pair<unsigned short const ,ivfstream *>,_STL::_Select1st<_STL::pair<unsigned short const ,ivfstream *> >,_STL::less<unsigned short>,_STL::allocator<_STL::pair<unsigned short const ,ivfstream *> > >::_S_left
_TEXT	ENDS
PUBLIC	?_S_right@?$_Rb_tree@GU?$pair@$$CBGPAVivfstream@@@_STL@@U?$_Select1st@U?$pair@$$CBGPAVivfstream@@@_STL@@@2@U?$less@G@2@V?$allocator@U?$pair@$$CBGPAVivfstream@@@_STL@@@2@@_STL@@KAAAPAU?$_Rb_tree_node@U?$pair@$$CBGPAVivfstream@@@_STL@@@2@PAU32@@Z ; _STL::_Rb_tree<unsigned short,_STL::pair<unsigned short const ,ivfstream *>,_STL::_Select1st<_STL::pair<unsigned short const ,ivfstream *> >,_STL::less<unsigned short>,_STL::allocator<_STL::pair<unsigned short const ,ivfstream *> > >::_S_right
; Function compile flags: /Ogty
;	COMDAT ?_S_right@?$_Rb_tree@GU?$pair@$$CBGPAVivfstream@@@_STL@@U?$_Select1st@U?$pair@$$CBGPAVivfstream@@@_STL@@@2@U?$less@G@2@V?$allocator@U?$pair@$$CBGPAVivfstream@@@_STL@@@2@@_STL@@KAAAPAU?$_Rb_tree_node@U?$pair@$$CBGPAVivfstream@@@_STL@@@2@PAU32@@Z
_TEXT	SEGMENT
___x$ = 8						; size = 4
?_S_right@?$_Rb_tree@GU?$pair@$$CBGPAVivfstream@@@_STL@@U?$_Select1st@U?$pair@$$CBGPAVivfstream@@@_STL@@@2@U?$less@G@2@V?$allocator@U?$pair@$$CBGPAVivfstream@@@_STL@@@2@@_STL@@KAAAPAU?$_Rb_tree_node@U?$pair@$$CBGPAVivfstream@@@_STL@@@2@PAU32@@Z PROC NEAR ; _STL::_Rb_tree<unsigned short,_STL::pair<unsigned short const ,ivfstream *>,_STL::_Select1st<_STL::pair<unsigned short const ,ivfstream *> >,_STL::less<unsigned short>,_STL::allocator<_STL::pair<unsigned short const ,ivfstream *> > >::_S_right, COMDAT

; 274  :     { return (_Link_type&)(__x->_M_right); }

  00000	8b 44 24 04	 mov	 eax, DWORD PTR ___x$[esp-4]
  00004	83 c0 0c	 add	 eax, 12			; 0000000cH
  00007	c3		 ret	 0
?_S_right@?$_Rb_tree@GU?$pair@$$CBGPAVivfstream@@@_STL@@U?$_Select1st@U?$pair@$$CBGPAVivfstream@@@_STL@@@2@U?$less@G@2@V?$allocator@U?$pair@$$CBGPAVivfstream@@@_STL@@@2@@_STL@@KAAAPAU?$_Rb_tree_node@U?$pair@$$CBGPAVivfstream@@@_STL@@@2@PAU32@@Z ENDP ; _STL::_Rb_tree<unsigned short,_STL::pair<unsigned short const ,ivfstream *>,_STL::_Select1st<_STL::pair<unsigned short const ,ivfstream *> >,_STL::less<unsigned short>,_STL::allocator<_STL::pair<unsigned short const ,ivfstream *> > >::_S_right
_TEXT	ENDS
PUBLIC	?max_size@?$_String_base@DV?$allocator@D@_STL@@@_STL@@QBEIXZ ; _STL::_String_base<char,_STL::allocator<char> >::max_size
; Function compile flags: /Ogty
; File c:\stlport-4.6.1\stlport\stl\_string.h
;	COMDAT ?max_size@?$_String_base@DV?$allocator@D@_STL@@@_STL@@QBEIXZ
_TEXT	SEGMENT
?max_size@?$_String_base@DV?$allocator@D@_STL@@@_STL@@QBEIXZ PROC NEAR ; _STL::_String_base<char,_STL::allocator<char> >::max_size, COMDAT
; _this$ = ecx

; 126  :   size_t max_size() const { return (size_t(-1) / sizeof(_Tp)) - 1; }

  00000	b8 fe ff ff ff	 mov	 eax, -2			; fffffffeH
  00005	c3		 ret	 0
?max_size@?$_String_base@DV?$allocator@D@_STL@@@_STL@@QBEIXZ ENDP ; _STL::_String_base<char,_STL::allocator<char> >::max_size
_TEXT	ENDS
PUBLIC	?_M_throw_length_error@?$_String_base@DV?$allocator@D@_STL@@@_STL@@QBEXXZ ; _STL::_String_base<char,_STL::allocator<char> >::_M_throw_length_error
PUBLIC	??_C@_0N@GOPDCEEB@basic_string?$AA@		; `string'
EXTRN	?__stl_throw_length_error@_STL@@YAXPBD@Z:NEAR	; _STL::__stl_throw_length_error
;	COMDAT ??_C@_0N@GOPDCEEB@basic_string?$AA@
; File c:\stlport-4.6.1\stlport\stl\_string.c
CONST	SEGMENT
??_C@_0N@GOPDCEEB@basic_string?$AA@ DB 'basic_string', 00H ; `string'
; Function compile flags: /Ogty
CONST	ENDS
;	COMDAT ?_M_throw_length_error@?$_String_base@DV?$allocator@D@_STL@@@_STL@@QBEXXZ
_TEXT	SEGMENT
?_M_throw_length_error@?$_String_base@DV?$allocator@D@_STL@@@_STL@@QBEXXZ PROC NEAR ; _STL::_String_base<char,_STL::allocator<char> >::_M_throw_length_error, COMDAT
; _this$ = ecx

; 523  :     __stl_throw_length_error("basic_string");

  00000	68 00 00 00 00	 push	 OFFSET FLAT:??_C@_0N@GOPDCEEB@basic_string?$AA@
  00005	e8 00 00 00 00	 call	 ?__stl_throw_length_error@_STL@@YAXPBD@Z ; _STL::__stl_throw_length_error
  0000a	59		 pop	 ecx

; 524  : }

  0000b	c3		 ret	 0
?_M_throw_length_error@?$_String_base@DV?$allocator@D@_STL@@@_STL@@QBEXXZ ENDP ; _STL::_String_base<char,_STL::allocator<char> >::_M_throw_length_error
_TEXT	ENDS
PUBLIC	?_Ret@?$_BothPtrType@PADPAD@_STL@@SA?AU__true_type@2@XZ ; _STL::_BothPtrType<char *,char *>::_Ret
; Function compile flags: /Ogty
; File c:\stlport-4.6.1\stlport\stl\type_traits.h
;	COMDAT ?_Ret@?$_BothPtrType@PADPAD@_STL@@SA?AU__true_type@2@XZ
_TEXT	SEGMENT
?_Ret@?$_BothPtrType@PADPAD@_STL@@SA?AU__true_type@2@XZ PROC NEAR ; _STL::_BothPtrType<char *,char *>::_Ret, COMDAT

; 234  :   static __true_type _Ret() { return __true_type();} 

  00000	32 c0		 xor	 al, al
  00002	c3		 ret	 0
?_Ret@?$_BothPtrType@PADPAD@_STL@@SA?AU__true_type@2@XZ ENDP ; _STL::_BothPtrType<char *,char *>::_Ret
_TEXT	ENDS
PUBLIC	??$__distance@PAD@_STL@@YAHABQAD0ABUrandom_access_iterator_tag@0@@Z ; _STL::__distance<char *>
; Function compile flags: /Ogty
; File c:\stlport-4.6.1\stlport\stl\_iterator_base.h
;	COMDAT ??$__distance@PAD@_STL@@YAHABQAD0ABUrandom_access_iterator_tag@0@@Z
_TEXT	SEGMENT
___first$ = 8						; size = 4
___last$ = 12						; size = 4
___formal$ = 16						; size = 4
??$__distance@PAD@_STL@@YAHABQAD0ABUrandom_access_iterator_tag@0@@Z PROC NEAR ; _STL::__distance<char *>, COMDAT

; 363  :   return __last - __first;

  00000	8b 44 24 08	 mov	 eax, DWORD PTR ___last$[esp-4]
  00004	8b 4c 24 04	 mov	 ecx, DWORD PTR ___first$[esp-4]
  00008	8b 00		 mov	 eax, DWORD PTR [eax]
  0000a	2b 01		 sub	 eax, DWORD PTR [ecx]

; 364  : }

  0000c	c3		 ret	 0
??$__distance@PAD@_STL@@YAHABQAD0ABUrandom_access_iterator_tag@0@@Z ENDP ; _STL::__distance<char *>
_TEXT	ENDS
PUBLIC	??$__distance@PBD@_STL@@YAHABQBD0ABUrandom_access_iterator_tag@0@@Z ; _STL::__distance<char const *>
; Function compile flags: /Ogty
;	COMDAT ??$__distance@PBD@_STL@@YAHABQBD0ABUrandom_access_iterator_tag@0@@Z
_TEXT	SEGMENT
___first$ = 8						; size = 4
___last$ = 12						; size = 4
___formal$ = 16						; size = 4
??$__distance@PBD@_STL@@YAHABQBD0ABUrandom_access_iterator_tag@0@@Z PROC NEAR ; _STL::__distance<char const *>, COMDAT

; 363  :   return __last - __first;

  00000	8b 44 24 08	 mov	 eax, DWORD PTR ___last$[esp-4]
  00004	8b 4c 24 04	 mov	 ecx, DWORD PTR ___first$[esp-4]
  00008	8b 00		 mov	 eax, DWORD PTR [eax]
  0000a	2b 01		 sub	 eax, DWORD PTR [ecx]

; 364  : }

  0000c	c3		 ret	 0
??$__distance@PBD@_STL@@YAHABQBD0ABUrandom_access_iterator_tag@0@@Z ENDP ; _STL::__distance<char const *>
_TEXT	ENDS
PUBLIC	?_Ret@?$_OKToMemCpy@DD@_STL@@SA?AU__true_type@2@XZ ; _STL::_OKToMemCpy<char,char>::_Ret
; Function compile flags: /Ogty
; File c:\stlport-4.6.1\stlport\stl\type_traits.h
;	COMDAT ?_Ret@?$_OKToMemCpy@DD@_STL@@SA?AU__true_type@2@XZ
_TEXT	SEGMENT
?_Ret@?$_OKToMemCpy@DD@_STL@@SA?AU__true_type@2@XZ PROC NEAR ; _STL::_OKToMemCpy<char,char>::_Ret, COMDAT

; 361  :   static _Type _Ret() { return _Type(); }

  00000	32 c0		 xor	 al, al
  00002	c3		 ret	 0
?_Ret@?$_OKToMemCpy@DD@_STL@@SA?AU__true_type@2@XZ ENDP	; _STL::_OKToMemCpy<char,char>::_Ret
_TEXT	ENDS
PUBLIC	??$_IsOKToMemCpy@DD@_STL@@YA?AU?$_OKToMemCpy@DD@0@PAD0@Z ; _STL::_IsOKToMemCpy<char,char>
; Function compile flags: /Ogty
;	COMDAT ??$_IsOKToMemCpy@DD@_STL@@YA?AU?$_OKToMemCpy@DD@0@PAD0@Z
_TEXT	SEGMENT
___formal$ = 8						; size = 4
___formal$ = 12						; size = 4
??$_IsOKToMemCpy@DD@_STL@@YA?AU?$_OKToMemCpy@DD@0@PAD0@Z PROC NEAR ; _STL::_IsOKToMemCpy<char,char>, COMDAT

; 366  :   return _OKToMemCpy<_Tp1, _Tp2>();

  00000	32 c0		 xor	 al, al

; 367  : }

  00002	c3		 ret	 0
??$_IsOKToMemCpy@DD@_STL@@YA?AU?$_OKToMemCpy@DD@0@PAD0@Z ENDP ; _STL::_IsOKToMemCpy<char,char>
_TEXT	ENDS
PUBLIC	??$__copy_ptrs@PADPAD@_STL@@YAPADPAD00ABU__true_type@0@@Z ; _STL::__copy_ptrs<char *,char *>
; Function compile flags: /Ogty
; File c:\stlport-4.6.1\stlport\stl\_algobase.h
;	COMDAT ??$__copy_ptrs@PADPAD@_STL@@YAPADPAD00ABU__true_type@0@@Z
_TEXT	SEGMENT
___first$ = 8						; size = 4
___last$ = 12						; size = 4
___result$ = 16						; size = 4
___formal$ = 20						; size = 4
??$__copy_ptrs@PADPAD@_STL@@YAPADPAD00ABU__true_type@0@@Z PROC NEAR ; _STL::__copy_ptrs<char *,char *>, COMDAT

; 195  : // we know they all pointers, so this cast is OK 
; 196  :   //  return (_OutputIter)__copy_trivial(&(*__first), &(*__last), &(*__result));
; 197  :   return (_OutputIter)__copy_trivial(__first, __last, __result);

  00000	8b 44 24 04	 mov	 eax, DWORD PTR ___first$[esp-4]
  00004	56		 push	 esi
  00005	8b 74 24 0c	 mov	 esi, DWORD PTR ___last$[esp]
  00009	3b f0		 cmp	 esi, eax
  0000b	75 06		 jne	 SHORT $L93693
  0000d	8b 44 24 10	 mov	 eax, DWORD PTR ___result$[esp]
  00011	5e		 pop	 esi

; 198  : }

  00012	c3		 ret	 0

; 195  : // we know they all pointers, so this cast is OK 
; 196  :   //  return (_OutputIter)__copy_trivial(&(*__first), &(*__last), &(*__result));
; 197  :   return (_OutputIter)__copy_trivial(__first, __last, __result);

$L93693:
  00013	2b f0		 sub	 esi, eax
  00015	56		 push	 esi
  00016	50		 push	 eax
  00017	8b 44 24 18	 mov	 eax, DWORD PTR ___result$[esp+8]
  0001b	50		 push	 eax
  0001c	e8 00 00 00 00	 call	 _memmove
  00021	83 c4 0c	 add	 esp, 12			; 0000000cH
  00024	03 c6		 add	 eax, esi
  00026	5e		 pop	 esi

; 198  : }

  00027	c3		 ret	 0
??$__copy_ptrs@PADPAD@_STL@@YAPADPAD00ABU__true_type@0@@Z ENDP ; _STL::__copy_ptrs<char *,char *>
_TEXT	ENDS
PUBLIC	??7ios_base@_STL@@QBE_NXZ			; _STL::ios_base::operator!
; Function compile flags: /Ogty
; File c:\stlport-4.6.1\stlport\stl\_ios_base.h
;	COMDAT ??7ios_base@_STL@@QBE_NXZ
_TEXT	SEGMENT
??7ios_base@_STL@@QBE_NXZ PROC NEAR			; _STL::ios_base::operator!, COMDAT
; _this$ = ecx

; 176  :   bool operator!() const { return fail(); }

  00000	8b 41 08	 mov	 eax, DWORD PTR [ecx+8]
  00003	24 05		 and	 al, 5
  00005	f6 d8		 neg	 al
  00007	1b c0		 sbb	 eax, eax
  00009	f7 d8		 neg	 eax
  0000b	c3		 ret	 0
??7ios_base@_STL@@QBE_NXZ ENDP				; _STL::ios_base::operator!
_TEXT	ENDS
PUBLIC	?GetHeight@C_ANI_OBJECT@@QBEHG@Z		; C_ANI_OBJECT::GetHeight
; Function compile flags: /Ogty
; File c:\darkeden\designed_common\project\new - vs_ui\src\vs_ui_util.cpp
;	COMDAT ?GetHeight@C_ANI_OBJECT@@QBEHG@Z
_TEXT	SEGMENT
_sprite_id$ = 8						; size = 2
?GetHeight@C_ANI_OBJECT@@QBEHG@Z PROC NEAR		; C_ANI_OBJECT::GetHeight, COMDAT
; _this$ = ecx

; 202  : 	return m_pC_spk->GetHeight(sprite_id);

  00000	8b 09		 mov	 ecx, DWORD PTR [ecx]
  00002	8b 54 24 04	 mov	 edx, DWORD PTR _sprite_id$[esp-4]
  00006	8b 01		 mov	 eax, DWORD PTR [ecx]
  00008	52		 push	 edx
  00009	ff 50 38	 call	 DWORD PTR [eax+56]
  0000c	0f b7 40 06	 movzx	 eax, WORD PTR [eax+6]

; 203  : }

  00010	c2 04 00	 ret	 4
?GetHeight@C_ANI_OBJECT@@QBEHG@Z ENDP			; C_ANI_OBJECT::GetHeight
_TEXT	ENDS
PUBLIC	?GetWidth@C_ANI_OBJECT@@QBEHG@Z			; C_ANI_OBJECT::GetWidth
; Function compile flags: /Ogty
;	COMDAT ?GetWidth@C_ANI_OBJECT@@QBEHG@Z
_TEXT	SEGMENT
_sprite_id$ = 8						; size = 2
?GetWidth@C_ANI_OBJECT@@QBEHG@Z PROC NEAR		; C_ANI_OBJECT::GetWidth, COMDAT
; _this$ = ecx

; 212  : 	return m_pC_spk->GetWidth(sprite_id);

  00000	8b 09		 mov	 ecx, DWORD PTR [ecx]
  00002	8b 54 24 04	 mov	 edx, DWORD PTR _sprite_id$[esp-4]
  00006	8b 01		 mov	 eax, DWORD PTR [ecx]
  00008	52		 push	 edx
  00009	ff 50 38	 call	 DWORD PTR [eax+56]
  0000c	0f b7 40 04	 movzx	 eax, WORD PTR [eax+4]

; 213  : }

  00010	c2 04 00	 ret	 4
?GetWidth@C_ANI_OBJECT@@QBEHG@Z ENDP			; C_ANI_OBJECT::GetWidth
_TEXT	ENDS
PUBLIC	?Blt@C_ANI_OBJECT@@QAEXAAUtagPOINT@@G@Z		; C_ANI_OBJECT::Blt
; Function compile flags: /Ogty
;	COMDAT ?Blt@C_ANI_OBJECT@@QAEXAAUtagPOINT@@G@Z
_TEXT	SEGMENT
_point$ = 8						; size = 4
_sprite_id$ = 12					; size = 2
?Blt@C_ANI_OBJECT@@QAEXAAUtagPOINT@@G@Z PROC NEAR	; C_ANI_OBJECT::Blt, COMDAT
; _this$ = ecx

; 221  : 	m_pC_spk->Blt(point, sprite_id);

  00000	a1 00 00 00 00	 mov	 eax, DWORD PTR ?gpC_base@@3PAVBase@@A ; gpC_base
  00005	56		 push	 esi
  00006	8b 31		 mov	 esi, DWORD PTR [ecx]
  00008	8b 48 04	 mov	 ecx, DWORD PTR [eax+4]
  0000b	e8 00 00 00 00	 call	 ?Lock@CDirectDrawSurface@@QAE_NXZ ; CDirectDrawSurface::Lock
  00010	84 c0		 test	 al, al
  00012	74 2d		 je	 SHORT $L93734
  00014	8b 44 24 0c	 mov	 eax, DWORD PTR _sprite_id$[esp]
  00018	8b 16		 mov	 edx, DWORD PTR [esi]
  0001a	50		 push	 eax
  0001b	8b ce		 mov	 ecx, esi
  0001d	ff 52 38	 call	 DWORD PTR [edx+56]
  00020	8b 4c 24 08	 mov	 ecx, DWORD PTR _point$[esp]
  00024	8b 15 00 00 00
	00		 mov	 edx, DWORD PTR ?gpC_base@@3PAVBase@@A ; gpC_base
  0002a	50		 push	 eax
  0002b	51		 push	 ecx
  0002c	8b 4a 04	 mov	 ecx, DWORD PTR [edx+4]
  0002f	e8 00 00 00 00	 call	 ?BltSprite@CSpriteSurface@@QAEXPAUtagPOINT@@PAVCSprite@@@Z ; CSpriteSurface::BltSprite
  00034	a1 00 00 00 00	 mov	 eax, DWORD PTR ?gpC_base@@3PAVBase@@A ; gpC_base
  00039	8b 48 04	 mov	 ecx, DWORD PTR [eax+4]
  0003c	e8 00 00 00 00	 call	 ?Unlock@CDirectDrawSurface@@QAE_NXZ ; CDirectDrawSurface::Unlock
$L93734:
  00041	5e		 pop	 esi

; 222  : }

  00042	c2 08 00	 ret	 8
?Blt@C_ANI_OBJECT@@QAEXAAUtagPOINT@@G@Z ENDP		; C_ANI_OBJECT::Blt
_TEXT	ENDS
PUBLIC	?BltColor@C_ANI_OBJECT@@QAEXAAUtagPOINT@@GH@Z	; C_ANI_OBJECT::BltColor
; Function compile flags: /Ogty
;	COMDAT ?BltColor@C_ANI_OBJECT@@QAEXAAUtagPOINT@@GH@Z
_TEXT	SEGMENT
_point$ = 8						; size = 4
_sprite_id$ = 12					; size = 2
_rgb$ = 16						; size = 4
?BltColor@C_ANI_OBJECT@@QAEXAAUtagPOINT@@GH@Z PROC NEAR	; C_ANI_OBJECT::BltColor, COMDAT
; _this$ = ecx

; 230  : 	m_pC_spk->BltColor(point, sprite_id, rgb);

  00000	a1 00 00 00 00	 mov	 eax, DWORD PTR ?gpC_base@@3PAVBase@@A ; gpC_base
  00005	56		 push	 esi
  00006	8b 31		 mov	 esi, DWORD PTR [ecx]
  00008	8b 48 04	 mov	 ecx, DWORD PTR [eax+4]
  0000b	e8 00 00 00 00	 call	 ?Lock@CDirectDrawSurface@@QAE_NXZ ; CDirectDrawSurface::Lock
  00010	84 c0		 test	 al, al
  00012	74 32		 je	 SHORT $L93742
  00014	8b 4c 24 10	 mov	 ecx, DWORD PTR _rgb$[esp]
  00018	8b 44 24 0c	 mov	 eax, DWORD PTR _sprite_id$[esp]
  0001c	8b 16		 mov	 edx, DWORD PTR [esi]
  0001e	51		 push	 ecx
  0001f	50		 push	 eax
  00020	8b ce		 mov	 ecx, esi
  00022	ff 52 38	 call	 DWORD PTR [edx+56]
  00025	8b 4c 24 0c	 mov	 ecx, DWORD PTR _point$[esp+4]
  00029	8b 15 00 00 00
	00		 mov	 edx, DWORD PTR ?gpC_base@@3PAVBase@@A ; gpC_base
  0002f	50		 push	 eax
  00030	51		 push	 ecx
  00031	8b 4a 04	 mov	 ecx, DWORD PTR [edx+4]
  00034	e8 00 00 00 00	 call	 ?BltSpriteColor@CSpriteSurface@@QAEXPAUtagPOINT@@PAVCSprite@@E@Z ; CSpriteSurface::BltSpriteColor
  00039	a1 00 00 00 00	 mov	 eax, DWORD PTR ?gpC_base@@3PAVBase@@A ; gpC_base
  0003e	8b 48 04	 mov	 ecx, DWORD PTR [eax+4]
  00041	e8 00 00 00 00	 call	 ?Unlock@CDirectDrawSurface@@QAE_NXZ ; CDirectDrawSurface::Unlock
$L93742:
  00046	5e		 pop	 esi

; 231  : }

  00047	c2 0c 00	 ret	 12			; 0000000cH
?BltColor@C_ANI_OBJECT@@QAEXAAUtagPOINT@@GH@Z ENDP	; C_ANI_OBJECT::BltColor
_TEXT	ENDS
PUBLIC	?BltDarkness@C_ANI_OBJECT@@QAEXAAUtagPOINT@@GH@Z ; C_ANI_OBJECT::BltDarkness
; Function compile flags: /Ogty
;	COMDAT ?BltDarkness@C_ANI_OBJECT@@QAEXAAUtagPOINT@@GH@Z
_TEXT	SEGMENT
_point$ = 8						; size = 4
_sprite_id$ = 12					; size = 2
_dark_bit$ = 16						; size = 4
?BltDarkness@C_ANI_OBJECT@@QAEXAAUtagPOINT@@GH@Z PROC NEAR ; C_ANI_OBJECT::BltDarkness, COMDAT
; _this$ = ecx

; 239  : 	m_pC_spk->BltDarkness(point, sprite_id, dark_bit);

  00000	a1 00 00 00 00	 mov	 eax, DWORD PTR ?gpC_base@@3PAVBase@@A ; gpC_base
  00005	56		 push	 esi
  00006	8b 31		 mov	 esi, DWORD PTR [ecx]
  00008	8b 48 04	 mov	 ecx, DWORD PTR [eax+4]
  0000b	e8 00 00 00 00	 call	 ?Lock@CDirectDrawSurface@@QAE_NXZ ; CDirectDrawSurface::Lock
  00010	84 c0		 test	 al, al
  00012	74 32		 je	 SHORT $L93750
  00014	8b 4c 24 10	 mov	 ecx, DWORD PTR _dark_bit$[esp]
  00018	8b 44 24 0c	 mov	 eax, DWORD PTR _sprite_id$[esp]
  0001c	8b 16		 mov	 edx, DWORD PTR [esi]
  0001e	51		 push	 ecx
  0001f	50		 push	 eax
  00020	8b ce		 mov	 ecx, esi
  00022	ff 52 38	 call	 DWORD PTR [edx+56]
  00025	8b 4c 24 0c	 mov	 ecx, DWORD PTR _point$[esp+4]
  00029	8b 15 00 00 00
	00		 mov	 edx, DWORD PTR ?gpC_base@@3PAVBase@@A ; gpC_base
  0002f	50		 push	 eax
  00030	51		 push	 ecx
  00031	8b 4a 04	 mov	 ecx, DWORD PTR [edx+4]
  00034	e8 00 00 00 00	 call	 ?BltSpriteDarkness@CSpriteSurface@@QAEXPAUtagPOINT@@PAVCSprite@@E@Z ; CSpriteSurface::BltSpriteDarkness
  00039	a1 00 00 00 00	 mov	 eax, DWORD PTR ?gpC_base@@3PAVBase@@A ; gpC_base
  0003e	8b 48 04	 mov	 ecx, DWORD PTR [eax+4]
  00041	e8 00 00 00 00	 call	 ?Unlock@CDirectDrawSurface@@QAE_NXZ ; CDirectDrawSurface::Unlock
$L93750:
  00046	5e		 pop	 esi

; 240  : }

  00047	c2 0c 00	 ret	 12			; 0000000cH
?BltDarkness@C_ANI_OBJECT@@QAEXAAUtagPOINT@@GH@Z ENDP	; C_ANI_OBJECT::BltDarkness
_TEXT	ENDS
PUBLIC	?Size@C_FRR@@QBEHXZ				; C_FRR::Size
; Function compile flags: /Ogty
;	COMDAT ?Size@C_FRR@@QBEHXZ
_TEXT	SEGMENT
?Size@C_FRR@@QBEHXZ PROC NEAR				; C_FRR::Size, COMDAT
; _this$ = ecx

; 563  : 	return m_C_frame_array.GetSize();

  00000	0f b7 01	 movzx	 eax, WORD PTR [ecx]

; 564  : }

  00003	c3		 ret	 0
?Size@C_FRR@@QBEHXZ ENDP				; C_FRR::Size
_TEXT	ENDS
PUBLIC	?GetRX@C_FRR@@QBEHH@Z				; C_FRR::GetRX
; Function compile flags: /Ogty
;	COMDAT ?GetRX@C_FRR@@QBEHH@Z
_TEXT	SEGMENT
_frame$ = 8						; size = 4
?GetRX@C_FRR@@QBEHH@Z PROC NEAR				; C_FRR::GetRX, COMDAT
; _this$ = ecx

; 572  : 	assert(frame > -1 && frame < m_C_frame_array.GetSize());
; 573  : 
; 574  : 	return m_C_frame_array[frame].GetCX();

  00000	0f b7 44 24 04	 movzx	 eax, WORD PTR _frame$[esp-4]
  00005	8b 49 04	 mov	 ecx, DWORD PTR [ecx+4]
  00008	8d 04 40	 lea	 eax, DWORD PTR [eax+eax*2]
  0000b	0f bf 44 41 02	 movsx	 eax, WORD PTR [ecx+eax*2+2]

; 575  : }

  00010	c2 04 00	 ret	 4
?GetRX@C_FRR@@QBEHH@Z ENDP				; C_FRR::GetRX
_TEXT	ENDS
PUBLIC	?GetRY@C_FRR@@QBEHH@Z				; C_FRR::GetRY
; Function compile flags: /Ogty
;	COMDAT ?GetRY@C_FRR@@QBEHH@Z
_TEXT	SEGMENT
_frame$ = 8						; size = 4
?GetRY@C_FRR@@QBEHH@Z PROC NEAR				; C_FRR::GetRY, COMDAT
; _this$ = ecx

; 583  : 	assert(frame > -1 && frame < m_C_frame_array.GetSize());
; 584  : 
; 585  : 	return m_C_frame_array[frame].GetCY();

  00000	0f b7 44 24 04	 movzx	 eax, WORD PTR _frame$[esp-4]
  00005	8b 49 04	 mov	 ecx, DWORD PTR [ecx+4]
  00008	8d 04 40	 lea	 eax, DWORD PTR [eax+eax*2]
  0000b	0f bf 44 41 04	 movsx	 eax, WORD PTR [ecx+eax*2+4]

; 586  : }

  00010	c2 04 00	 ret	 4
?GetRY@C_FRR@@QBEHH@Z ENDP				; C_FRR::GetRY
_TEXT	ENDS
PUBLIC	?BltAlpha@C_SPRITE_PACK@@QAEXHHGH@Z		; C_SPRITE_PACK::BltAlpha
; Function compile flags: /Ogty
;	COMDAT ?BltAlpha@C_SPRITE_PACK@@QAEXHHGH@Z
_TEXT	SEGMENT
_point$ = -8						; size = 8
_x$ = 8							; size = 4
_y$ = 12						; size = 4
_sprite_id$ = 16					; size = 2
_alpha$ = 20						; size = 4
?BltAlpha@C_SPRITE_PACK@@QAEXHHGH@Z PROC NEAR		; C_SPRITE_PACK::BltAlpha, COMDAT
; _this$ = ecx

; 841  : {

  00000	83 ec 08	 sub	 esp, 8

; 842  : 	POINT point = {x, y};

  00003	8b 44 24 0c	 mov	 eax, DWORD PTR _x$[esp+4]

; 843  : 	BltAlpha(point, sprite_id, alpha);

  00007	8b 15 00 00 00
	00		 mov	 edx, DWORD PTR ?gpC_base@@3PAVBase@@A ; gpC_base
  0000d	56		 push	 esi
  0000e	8b f1		 mov	 esi, ecx
  00010	8b 4c 24 14	 mov	 ecx, DWORD PTR _y$[esp+8]
  00014	89 44 24 04	 mov	 DWORD PTR _point$[esp+12], eax
  00018	89 4c 24 08	 mov	 DWORD PTR _point$[esp+16], ecx
  0001c	8b 4a 04	 mov	 ecx, DWORD PTR [edx+4]
  0001f	e8 00 00 00 00	 call	 ?Lock@CDirectDrawSurface@@QAE_NXZ ; CDirectDrawSurface::Lock
  00024	84 c0		 test	 al, al
  00026	74 32		 je	 SHORT $L93785
  00028	8b 44 24 1c	 mov	 eax, DWORD PTR _alpha$[esp+8]
  0002c	8b 16		 mov	 edx, DWORD PTR [esi]
  0002e	50		 push	 eax
  0002f	8b 44 24 1c	 mov	 eax, DWORD PTR _sprite_id$[esp+12]
  00033	50		 push	 eax
  00034	8b ce		 mov	 ecx, esi
  00036	ff 52 38	 call	 DWORD PTR [edx+56]
  00039	8b 15 00 00 00
	00		 mov	 edx, DWORD PTR ?gpC_base@@3PAVBase@@A ; gpC_base
  0003f	50		 push	 eax
  00040	8d 4c 24 0c	 lea	 ecx, DWORD PTR _point$[esp+20]
  00044	51		 push	 ecx
  00045	8b 4a 04	 mov	 ecx, DWORD PTR [edx+4]
  00048	e8 00 00 00 00	 call	 ?BltSpriteAlpha@CSpriteSurface@@QAEXPAUtagPOINT@@PAVCSprite@@E@Z ; CSpriteSurface::BltSpriteAlpha
  0004d	a1 00 00 00 00	 mov	 eax, DWORD PTR ?gpC_base@@3PAVBase@@A ; gpC_base
  00052	8b 48 04	 mov	 ecx, DWORD PTR [eax+4]
  00055	e8 00 00 00 00	 call	 ?Unlock@CDirectDrawSurface@@QAE_NXZ ; CDirectDrawSurface::Unlock
$L93785:
  0005a	5e		 pop	 esi

; 844  : }

  0005b	83 c4 08	 add	 esp, 8
  0005e	c2 10 00	 ret	 16			; 00000010H
?BltAlpha@C_SPRITE_PACK@@QAEXHHGH@Z ENDP		; C_SPRITE_PACK::BltAlpha
_TEXT	ENDS
PUBLIC	?Blt@C_SPRITE_PACK@@QAEXHHG@Z			; C_SPRITE_PACK::Blt
; Function compile flags: /Ogty
;	COMDAT ?Blt@C_SPRITE_PACK@@QAEXHHG@Z
_TEXT	SEGMENT
_point$ = -8						; size = 8
_x$ = 8							; size = 4
_y$ = 12						; size = 4
_sprite_id$ = 16					; size = 2
?Blt@C_SPRITE_PACK@@QAEXHHG@Z PROC NEAR			; C_SPRITE_PACK::Blt, COMDAT
; _this$ = ecx

; 922  : {

  00000	83 ec 08	 sub	 esp, 8

; 923  : 	POINT point = {x, y};

  00003	8b 44 24 0c	 mov	 eax, DWORD PTR _x$[esp+4]

; 924  : 	Blt(point, sprite_id);

  00007	8b 15 00 00 00
	00		 mov	 edx, DWORD PTR ?gpC_base@@3PAVBase@@A ; gpC_base
  0000d	56		 push	 esi
  0000e	8b f1		 mov	 esi, ecx
  00010	8b 4c 24 14	 mov	 ecx, DWORD PTR _y$[esp+8]
  00014	89 44 24 04	 mov	 DWORD PTR _point$[esp+12], eax
  00018	89 4c 24 08	 mov	 DWORD PTR _point$[esp+16], ecx
  0001c	8b 4a 04	 mov	 ecx, DWORD PTR [edx+4]
  0001f	e8 00 00 00 00	 call	 ?Lock@CDirectDrawSurface@@QAE_NXZ ; CDirectDrawSurface::Lock
  00024	84 c0		 test	 al, al
  00026	74 2d		 je	 SHORT $L93792
  00028	8b 4c 24 18	 mov	 ecx, DWORD PTR _sprite_id$[esp+8]
  0002c	8b 06		 mov	 eax, DWORD PTR [esi]
  0002e	51		 push	 ecx
  0002f	8b ce		 mov	 ecx, esi
  00031	ff 50 38	 call	 DWORD PTR [eax+56]
  00034	50		 push	 eax
  00035	a1 00 00 00 00	 mov	 eax, DWORD PTR ?gpC_base@@3PAVBase@@A ; gpC_base
  0003a	8b 48 04	 mov	 ecx, DWORD PTR [eax+4]
  0003d	8d 54 24 08	 lea	 edx, DWORD PTR _point$[esp+16]
  00041	52		 push	 edx
  00042	e8 00 00 00 00	 call	 ?BltSprite@CSpriteSurface@@QAEXPAUtagPOINT@@PAVCSprite@@@Z ; CSpriteSurface::BltSprite
  00047	8b 0d 00 00 00
	00		 mov	 ecx, DWORD PTR ?gpC_base@@3PAVBase@@A ; gpC_base
  0004d	8b 49 04	 mov	 ecx, DWORD PTR [ecx+4]
  00050	e8 00 00 00 00	 call	 ?Unlock@CDirectDrawSurface@@QAE_NXZ ; CDirectDrawSurface::Unlock
$L93792:
  00055	5e		 pop	 esi

; 925  : }

  00056	83 c4 08	 add	 esp, 8
  00059	c2 0c 00	 ret	 12			; 0000000cH
?Blt@C_SPRITE_PACK@@QAEXHHG@Z ENDP			; C_SPRITE_PACK::Blt
_TEXT	ENDS
PUBLIC	?BltLocked@C_SPRITE_PACK@@QAEXHHG@Z		; C_SPRITE_PACK::BltLocked
; Function compile flags: /Ogty
;	COMDAT ?BltLocked@C_SPRITE_PACK@@QAEXHHG@Z
_TEXT	SEGMENT
_point$ = -8						; size = 8
_x$ = 8							; size = 4
_y$ = 12						; size = 4
_sprite_id$ = 16					; size = 2
?BltLocked@C_SPRITE_PACK@@QAEXHHG@Z PROC NEAR		; C_SPRITE_PACK::BltLocked, COMDAT
; _this$ = ecx

; 1010 : {

  00000	83 ec 08	 sub	 esp, 8

; 1011 : 	POINT point = {x, y};

  00003	8b 44 24 0c	 mov	 eax, DWORD PTR _x$[esp+4]
  00007	56		 push	 esi
  00008	8b f1		 mov	 esi, ecx
  0000a	8b 4c 24 14	 mov	 ecx, DWORD PTR _y$[esp+8]

; 1012 : 	BltLocked(point, sprite_id);

  0000e	8b 16		 mov	 edx, DWORD PTR [esi]
  00010	89 4c 24 08	 mov	 DWORD PTR _point$[esp+16], ecx
  00014	8b ce		 mov	 ecx, esi
  00016	89 44 24 04	 mov	 DWORD PTR _point$[esp+12], eax
  0001a	ff 52 0c	 call	 DWORD PTR [edx+12]
  0001d	8b 4c 24 18	 mov	 ecx, DWORD PTR _sprite_id$[esp+8]
  00021	0f b7 d1	 movzx	 edx, cx
  00024	3b d0		 cmp	 edx, eax
  00026	73 1c		 jae	 SHORT $L93800
  00028	8b 06		 mov	 eax, DWORD PTR [esi]
  0002a	51		 push	 ecx
  0002b	8b ce		 mov	 ecx, esi
  0002d	ff 50 38	 call	 DWORD PTR [eax+56]
  00030	8b 15 00 00 00
	00		 mov	 edx, DWORD PTR ?gpC_base@@3PAVBase@@A ; gpC_base
  00036	50		 push	 eax
  00037	8d 4c 24 08	 lea	 ecx, DWORD PTR _point$[esp+16]
  0003b	51		 push	 ecx
  0003c	8b 4a 04	 mov	 ecx, DWORD PTR [edx+4]
  0003f	e8 00 00 00 00	 call	 ?BltSprite@CSpriteSurface@@QAEXPAUtagPOINT@@PAVCSprite@@@Z ; CSpriteSurface::BltSprite
$L93800:
  00044	5e		 pop	 esi

; 1013 : }

  00045	83 c4 08	 add	 esp, 8
  00048	c2 0c 00	 ret	 12			; 0000000cH
?BltLocked@C_SPRITE_PACK@@QAEXHHG@Z ENDP		; C_SPRITE_PACK::BltLocked
_TEXT	ENDS
PUBLIC	?BltLockedAlpha@C_SPRITE_PACK@@QAEXHHGH@Z	; C_SPRITE_PACK::BltLockedAlpha
; Function compile flags: /Ogty
;	COMDAT ?BltLockedAlpha@C_SPRITE_PACK@@QAEXHHGH@Z
_TEXT	SEGMENT
_point$ = -8						; size = 8
_x$ = 8							; size = 4
_y$ = 12						; size = 4
_sprite_id$ = 16					; size = 2
_alpha$ = 20						; size = 4
?BltLockedAlpha@C_SPRITE_PACK@@QAEXHHGH@Z PROC NEAR	; C_SPRITE_PACK::BltLockedAlpha, COMDAT
; _this$ = ecx

; 1170 : {

  00000	83 ec 08	 sub	 esp, 8

; 1171 : 	POINT point = {x, y};

  00003	8b 44 24 0c	 mov	 eax, DWORD PTR _x$[esp+4]
  00007	8b 54 24 10	 mov	 edx, DWORD PTR _y$[esp+4]
  0000b	89 04 24	 mov	 DWORD PTR _point$[esp+8], eax

; 1172 : 	BltLockedAlpha(point, sprite_id, alpha);

  0000e	8b 44 24 18	 mov	 eax, DWORD PTR _alpha$[esp+4]
  00012	50		 push	 eax
  00013	8b 44 24 18	 mov	 eax, DWORD PTR _sprite_id$[esp+8]
  00017	89 54 24 08	 mov	 DWORD PTR _point$[esp+16], edx
  0001b	8b 11		 mov	 edx, DWORD PTR [ecx]
  0001d	50		 push	 eax
  0001e	ff 52 38	 call	 DWORD PTR [edx+56]
  00021	8b 15 00 00 00
	00		 mov	 edx, DWORD PTR ?gpC_base@@3PAVBase@@A ; gpC_base
  00027	50		 push	 eax
  00028	8d 4c 24 08	 lea	 ecx, DWORD PTR _point$[esp+16]
  0002c	51		 push	 ecx
  0002d	8b 4a 04	 mov	 ecx, DWORD PTR [edx+4]
  00030	e8 00 00 00 00	 call	 ?BltSpriteAlpha@CSpriteSurface@@QAEXPAUtagPOINT@@PAVCSprite@@E@Z ; CSpriteSurface::BltSpriteAlpha

; 1173 : }

  00035	83 c4 08	 add	 esp, 8
  00038	c2 10 00	 ret	 16			; 00000010H
?BltLockedAlpha@C_SPRITE_PACK@@QAEXHHGH@Z ENDP		; C_SPRITE_PACK::BltLockedAlpha
_TEXT	ENDS
PUBLIC	??1?$_STLP_alloc_proxy@PADDV?$allocator@D@_STL@@@_STL@@QAE@XZ ; _STL::_STLP_alloc_proxy<char *,char,_STL::allocator<char> >::~_STLP_alloc_proxy<char *,char,_STL::allocator<char> >
; Function compile flags: /Ogty
;	COMDAT ??1?$_STLP_alloc_proxy@PADDV?$allocator@D@_STL@@@_STL@@QAE@XZ
_TEXT	SEGMENT
??1?$_STLP_alloc_proxy@PADDV?$allocator@D@_STL@@@_STL@@QAE@XZ PROC NEAR ; _STL::_STLP_alloc_proxy<char *,char,_STL::allocator<char> >::~_STLP_alloc_proxy<char *,char,_STL::allocator<char> >, COMDAT
; _this$ = ecx
  00000	c3		 ret	 0
??1?$_STLP_alloc_proxy@PADDV?$allocator@D@_STL@@@_STL@@QAE@XZ ENDP ; _STL::_STLP_alloc_proxy<char *,char,_STL::allocator<char> >::~_STLP_alloc_proxy<char *,char,_STL::allocator<char> >
_TEXT	ENDS
PUBLIC	?erase@?$basic_string@DV?$char_traits@D@_STL@@V?$allocator@D@2@@_STL@@QAEPADPAD0@Z ; _STL::basic_string<char,_STL::char_traits<char>,_STL::allocator<char> >::erase
; Function compile flags: /Ogty
; File c:\stlport-4.6.1\stlport\stl\_string.h
;	COMDAT ?erase@?$basic_string@DV?$char_traits@D@_STL@@V?$allocator@D@2@@_STL@@QAEPADPAD0@Z
_TEXT	SEGMENT
___first$ = 8						; size = 4
___last$ = 12						; size = 4
?erase@?$basic_string@DV?$char_traits@D@_STL@@V?$allocator@D@2@@_STL@@QAEPADPAD0@Z PROC NEAR ; _STL::basic_string<char,_STL::char_traits<char>,_STL::allocator<char> >::erase, COMDAT
; _this$ = ecx

; 862  :   iterator erase(iterator __first, iterator __last) {

  00000	53		 push	 ebx
  00001	56		 push	 esi

; 863  :     if (__first != __last) {

  00002	8b 74 24 10	 mov	 esi, DWORD PTR ___last$[esp+4]
  00006	57		 push	 edi
  00007	8b 7c 24 10	 mov	 edi, DWORD PTR ___first$[esp+8]
  0000b	3b fe		 cmp	 edi, esi
  0000d	8b d9		 mov	 ebx, ecx
  0000f	74 1f		 je	 SHORT $L93828

; 864  :                                 // The move includes the terminating _CharT().
; 865  :       traits_type::move(__first, __last, (this->_M_finish - __last) + 1);

  00011	8b 43 04	 mov	 eax, DWORD PTR [ebx+4]
  00014	2b c6		 sub	 eax, esi
  00016	40		 inc	 eax
  00017	74 0b		 je	 SHORT $L93822
  00019	50		 push	 eax
  0001a	56		 push	 esi
  0001b	57		 push	 edi
  0001c	e8 00 00 00 00	 call	 _memmove
  00021	83 c4 0c	 add	 esp, 12			; 0000000cH
$L93822:

; 866  :       pointer __new_finish = this->_M_finish - (__last - __first);
; 867  :       _STLP_STD::_Destroy(__new_finish + 1, this->_M_finish + 1);
; 868  :       this->_M_finish = __new_finish;

  00024	8b 4b 04	 mov	 ecx, DWORD PTR [ebx+4]
  00027	8b c7		 mov	 eax, edi
  00029	2b c6		 sub	 eax, esi
  0002b	03 c8		 add	 ecx, eax
  0002d	89 4b 04	 mov	 DWORD PTR [ebx+4], ecx
$L93828:

; 869  :     }
; 870  :     return __first;

  00030	8b c7		 mov	 eax, edi
  00032	5f		 pop	 edi
  00033	5e		 pop	 esi
  00034	5b		 pop	 ebx

; 871  :   }

  00035	c2 08 00	 ret	 8
?erase@?$basic_string@DV?$char_traits@D@_STL@@V?$allocator@D@2@@_STL@@QAEPADPAD0@Z ENDP ; _STL::basic_string<char,_STL::char_traits<char>,_STL::allocator<char> >::erase
_TEXT	ENDS
PUBLIC	?deallocate@?$allocator@D@_STL@@QAEXPADI@Z	; _STL::allocator<char>::deallocate
; Function compile flags: /Ogty
; File c:\stlport-4.6.1\stlport\stl\_alloc.h
;	COMDAT ?deallocate@?$allocator@D@_STL@@QAEXPADI@Z
_TEXT	SEGMENT
___p$ = 8						; size = 4
___n$ = 12						; size = 4
?deallocate@?$allocator@D@_STL@@QAEXPADI@Z PROC NEAR	; _STL::allocator<char>::deallocate, COMDAT
; _this$ = ecx

; 359  :     _STLP_ASSERT( (__p == 0) == (__n == 0) )
; 360  :       if (__p != 0) __sgi_alloc::deallocate((void*)__p, __n * sizeof(value_type));

  00000	8b 44 24 04	 mov	 eax, DWORD PTR ___p$[esp-4]
  00004	85 c0		 test	 eax, eax
  00006	74 22		 je	 SHORT $L93841
  00008	8b 4c 24 08	 mov	 ecx, DWORD PTR ___n$[esp-4]
  0000c	81 f9 80 00 00
	00		 cmp	 ecx, 128		; 00000080H
  00012	76 0c		 jbe	 SHORT $L93840
  00014	50		 push	 eax
  00015	e8 00 00 00 00	 call	 ??3@YAXPAX@Z		; operator delete
  0001a	83 c4 04	 add	 esp, 4

; 361  :   }

  0001d	c2 08 00	 ret	 8

; 359  :     _STLP_ASSERT( (__p == 0) == (__n == 0) )
; 360  :       if (__p != 0) __sgi_alloc::deallocate((void*)__p, __n * sizeof(value_type));

$L93840:
  00020	51		 push	 ecx
  00021	50		 push	 eax
  00022	e8 00 00 00 00	 call	 ?_M_deallocate@?$__node_alloc@$00$0A@@_STL@@CAXPAXI@Z ; _STL::__node_alloc<1,0>::_M_deallocate
  00027	83 c4 08	 add	 esp, 8
$L93841:

; 361  :   }

  0002a	c2 08 00	 ret	 8
?deallocate@?$allocator@D@_STL@@QAEXPADI@Z ENDP		; _STL::allocator<char>::deallocate
_TEXT	ENDS
PUBLIC	?clear@?$basic_ios@DV?$char_traits@D@_STL@@@_STL@@QAEXH@Z ; _STL::basic_ios<char,_STL::char_traits<char> >::clear
; Function compile flags: /Ogty
; File c:\stlport-4.6.1\stlport\stl\_ios.h
;	COMDAT ?clear@?$basic_ios@DV?$char_traits@D@_STL@@@_STL@@QAEXH@Z
_TEXT	SEGMENT
___state$ = 8						; size = 4
?clear@?$basic_ios@DV?$char_traits@D@_STL@@@_STL@@QAEXH@Z PROC NEAR ; _STL::basic_ios<char,_STL::char_traits<char> >::clear, COMDAT
; _this$ = ecx

; 91   :     _M_clear_nothrow(this->rdbuf() ? __state : iostate(__state|ios_base::badbit));

  00000	8b 41 58	 mov	 eax, DWORD PTR [ecx+88]
  00003	85 c0		 test	 eax, eax
  00005	8b 44 24 04	 mov	 eax, DWORD PTR ___state$[esp-4]
  00009	75 03		 jne	 SHORT $L93846
  0000b	83 c8 01	 or	 eax, 1
$L93846:

; 92   :     _M_check_exception_mask();

  0000e	85 41 14	 test	 DWORD PTR [ecx+20], eax
  00011	89 41 08	 mov	 DWORD PTR [ecx+8], eax
  00014	74 05		 je	 SHORT $L93857
  00016	e8 00 00 00 00	 call	 ?_M_throw_failure@ios_base@_STL@@IAEXXZ ; _STL::ios_base::_M_throw_failure
$L93857:

; 93   :   }

  0001b	c2 04 00	 ret	 4
?clear@?$basic_ios@DV?$char_traits@D@_STL@@@_STL@@QAEXH@Z ENDP ; _STL::basic_ios<char,_STL::char_traits<char> >::clear
_TEXT	ENDS
PUBLIC	?close@?$basic_filebuf@DV?$char_traits@D@_STL@@@_STL@@QAEPAV12@XZ ; _STL::basic_filebuf<char,_STL::char_traits<char> >::close
EXTRN	?_M_close@_Filebuf_base@_STL@@QAE_NXZ:NEAR	; _STL::_Filebuf_base::_M_close
; Function compile flags: /Ogty
; File c:\stlport-4.6.1\stlport\stl\_fstream.c
;	COMDAT ?close@?$basic_filebuf@DV?$char_traits@D@_STL@@@_STL@@QAEPAV12@XZ
_TEXT	SEGMENT
___ok$ = -1						; size = 1
?close@?$basic_filebuf@DV?$char_traits@D@_STL@@@_STL@@QAEPAV12@XZ PROC NEAR ; _STL::basic_filebuf<char,_STL::char_traits<char> >::close, COMDAT
; _this$ = ecx

; 81   : {

  00000	51		 push	 ecx
  00001	53		 push	 ebx
  00002	56		 push	 esi
  00003	8b f1		 mov	 esi, ecx

; 82   :   bool __ok = this->is_open();

  00005	8a 56 60	 mov	 dl, BYTE PTR [esi+96]

; 83   : 
; 84   :   if (_M_in_output_mode) {

  00008	8a 4e 68	 mov	 cl, BYTE PTR [esi+104]
  0000b	33 db		 xor	 ebx, ebx
  0000d	3a d3		 cmp	 dl, bl
  0000f	0f 95 c0	 setne	 al
  00012	3a cb		 cmp	 cl, bl
  00014	88 44 24 0b	 mov	 BYTE PTR ___ok$[esp+12], al
  00018	74 24		 je	 SHORT $L89905

; 85   :     __ok = __ok && !_Traits::eq_int_type(this->overflow(traits_type::eof()),
; 86   :                                          traits_type::eof());

  0001a	3a c3		 cmp	 al, bl
  0001c	74 13		 je	 SHORT $L93864
  0001e	8b 06		 mov	 eax, DWORD PTR [esi]
  00020	6a ff		 push	 -1
  00022	8b ce		 mov	 ecx, esi
  00024	ff 50 30	 call	 DWORD PTR [eax+48]
  00027	83 f8 ff	 cmp	 eax, -1
  0002a	c6 44 24 0b 01	 mov	 BYTE PTR ___ok$[esp+12], 1
  0002f	75 04		 jne	 SHORT $L93865
$L93864:
  00031	88 5c 24 0b	 mov	 BYTE PTR ___ok$[esp+12], bl
$L93865:

; 87   :     __ok == __ok && this->_M_unshift();

  00035	8b ce		 mov	 ecx, esi
  00037	e8 00 00 00 00	 call	 ?_M_unshift@?$basic_filebuf@DV?$char_traits@D@_STL@@@_STL@@AAE_NXZ ; _STL::basic_filebuf<char,_STL::char_traits<char> >::_M_unshift

; 88   :   }
; 89   :   else if (_M_in_input_mode)

  0003c	eb 28		 jmp	 SHORT $L93888
$L89905:
  0003e	38 5e 67	 cmp	 BYTE PTR [esi+103], bl
  00041	74 23		 je	 SHORT $L93888

; 90   :       this->_M_exit_input_mode();

  00043	8b 86 8c 00 00
	00		 mov	 eax, DWORD PTR [esi+140]
  00049	3b c3		 cmp	 eax, ebx
  0004b	74 10		 je	 SHORT $L93889
  0004d	8b 8e 90 00 00
	00		 mov	 ecx, DWORD PTR [esi+144]
  00053	51		 push	 ecx
  00054	50		 push	 eax
  00055	8d 4e 54	 lea	 ecx, DWORD PTR [esi+84]
  00058	e8 00 00 00 00	 call	 ?_M_unmap@_Filebuf_base@_STL@@QAEXPAXJ@Z ; _STL::_Filebuf_base::_M_unmap
$L93889:
  0005d	88 5e 67	 mov	 BYTE PTR [esi+103], bl
  00060	89 9e 8c 00 00
	00		 mov	 DWORD PTR [esi+140], ebx
$L93888:

; 91   : 
; 92   :   // Note order of arguments.  We close the file even if __ok is false.
; 93   :   __ok = _M_base._M_close() && __ok;

  00066	8d 4e 54	 lea	 ecx, DWORD PTR [esi+84]
  00069	e8 00 00 00 00	 call	 ?_M_close@_Filebuf_base@_STL@@QAE_NXZ ; _STL::_Filebuf_base::_M_close
  0006e	84 c0		 test	 al, al
  00070	74 0a		 je	 SHORT $L93867
  00072	38 5c 24 0b	 cmp	 BYTE PTR ___ok$[esp+12], bl
  00076	74 04		 je	 SHORT $L93867
  00078	b0 01		 mov	 al, 1
  0007a	eb 02		 jmp	 SHORT $L93868
$L93867:
  0007c	32 c0		 xor	 al, al
$L93868:

; 94   : 
; 95   :   // Restore the initial state, except that we don't deallocate the buffer
; 96   :   // or mess with the cached codecvt information.
; 97   :   _M_state = _M_end_state = _State_type();
; 98   :   _M_ext_buf_converted = _M_ext_buf_end = 0;
; 99   : 
; 100  :   _M_mmap_base = 0;
; 101  :   _M_mmap_len = 0;
; 102  : 
; 103  :   this->setg(0, 0, 0);

  0007e	8b 4e 04	 mov	 ecx, DWORD PTR [esi+4]
  00081	89 9e 88 00 00
	00		 mov	 DWORD PTR [esi+136], ebx
  00087	89 9e 84 00 00
	00		 mov	 DWORD PTR [esi+132], ebx
  0008d	89 9e 80 00 00
	00		 mov	 DWORD PTR [esi+128], ebx
  00093	89 5e 7c	 mov	 DWORD PTR [esi+124], ebx
  00096	89 9e 8c 00 00
	00		 mov	 DWORD PTR [esi+140], ebx
  0009c	89 9e 90 00 00
	00		 mov	 DWORD PTR [esi+144], ebx
  000a2	89 59 08	 mov	 DWORD PTR [ecx+8], ebx
  000a5	89 19		 mov	 DWORD PTR [ecx], ebx
  000a7	89 59 04	 mov	 DWORD PTR [ecx+4], ebx

; 104  :   this->setp(0, 0);

  000aa	8b 4e 08	 mov	 ecx, DWORD PTR [esi+8]

; 105  : 
; 106  :   _M_saved_eback = _M_saved_gptr = _M_saved_egptr = 0;
; 107  : 
; 108  :   _M_in_input_mode = _M_in_output_mode = _M_in_error_mode = _M_in_putback_mode
; 109  :     = false;
; 110  : 
; 111  :   return __ok ? this : 0;

  000ad	f6 d8		 neg	 al
  000af	89 59 08	 mov	 DWORD PTR [ecx+8], ebx
  000b2	89 19		 mov	 DWORD PTR [ecx], ebx
  000b4	89 59 04	 mov	 DWORD PTR [ecx+4], ebx
  000b7	89 9e 9c 00 00
	00		 mov	 DWORD PTR [esi+156], ebx
  000bd	89 9e 98 00 00
	00		 mov	 DWORD PTR [esi+152], ebx
  000c3	89 9e 94 00 00
	00		 mov	 DWORD PTR [esi+148], ebx
  000c9	1b c0		 sbb	 eax, eax
  000cb	88 5e 6a	 mov	 BYTE PTR [esi+106], bl
  000ce	88 5e 69	 mov	 BYTE PTR [esi+105], bl
  000d1	88 5e 68	 mov	 BYTE PTR [esi+104], bl
  000d4	88 5e 67	 mov	 BYTE PTR [esi+103], bl
  000d7	23 c6		 and	 eax, esi
  000d9	5e		 pop	 esi
  000da	5b		 pop	 ebx

; 112  : }

  000db	59		 pop	 ecx
  000dc	c3		 ret	 0
?close@?$basic_filebuf@DV?$char_traits@D@_STL@@@_STL@@QAEPAV12@XZ ENDP ; _STL::basic_filebuf<char,_STL::char_traits<char> >::close
_TEXT	ENDS
PUBLIC	?_M_setup_codecvt@?$basic_filebuf@DV?$char_traits@D@_STL@@@_STL@@AAEXABVlocale@2@@Z ; _STL::basic_filebuf<char,_STL::char_traits<char> >::_M_setup_codecvt
; Function compile flags: /Ogty
;	COMDAT ?_M_setup_codecvt@?$basic_filebuf@DV?$char_traits@D@_STL@@@_STL@@AAEXABVlocale@2@@Z
_TEXT	SEGMENT
___encoding$ = -4					; size = 4
$T93918 = 8						; size = 4
___loc$ = 8						; size = 4
?_M_setup_codecvt@?$basic_filebuf@DV?$char_traits@D@_STL@@@_STL@@AAEXABVlocale@2@@Z PROC NEAR ; _STL::basic_filebuf<char,_STL::char_traits<char> >::_M_setup_codecvt, COMDAT
; _this$ = ecx

; 730  : {

  00000	51		 push	 ecx
  00001	56		 push	 esi
  00002	57		 push	 edi
  00003	8b f1		 mov	 esi, ecx

; 731  :   _M_codecvt = &use_facet<_Codecvt>(__loc) ;

  00005	8b 4c 24 10	 mov	 ecx, DWORD PTR ___loc$[esp+8]
  00009	68 00 00 00 00	 push	 OFFSET FLAT:?id@?$codecvt@DDH@_STL@@2V0locale@2@A ; _STL::codecvt<char,char,int>::id
  0000e	e8 00 00 00 00	 call	 ?_M_use_facet@locale@_STL@@QBEPAVfacet@12@ABVid@12@@Z ; _STL::locale::_M_use_facet
  00013	89 86 a0 00 00
	00		 mov	 DWORD PTR [esi+160], eax

; 732  :   int __encoding    = _M_codecvt->encoding();

  00019	8b 10		 mov	 edx, DWORD PTR [eax]
  0001b	8b c8		 mov	 ecx, eax
  0001d	ff 52 10	 call	 DWORD PTR [edx+16]
  00020	8b f8		 mov	 edi, eax

; 733  : 
; 734  :   _M_width          = (max)(__encoding, 1);

  00022	83 ff 01	 cmp	 edi, 1
  00025	89 7c 24 08	 mov	 DWORD PTR ___encoding$[esp+12], edi
  00029	c7 44 24 10 01
	00 00 00	 mov	 DWORD PTR $T93918[esp+8], 1
  00031	8d 44 24 10	 lea	 eax, DWORD PTR $T93918[esp+8]
  00035	7c 04		 jl	 SHORT $L93934
  00037	8d 44 24 08	 lea	 eax, DWORD PTR ___encoding$[esp+12]
$L93934:
  0003b	8b 00		 mov	 eax, DWORD PTR [eax]

; 735  :   _M_max_width      = _M_codecvt->max_length();

  0003d	8b 8e a0 00 00
	00		 mov	 ecx, DWORD PTR [esi+160]
  00043	89 86 a4 00 00
	00		 mov	 DWORD PTR [esi+164], eax
  00049	8b 11		 mov	 edx, DWORD PTR [ecx]
  0004b	ff 52 1c	 call	 DWORD PTR [edx+28]

; 736  :   _M_constant_width = __encoding > 0;
; 737  :   _M_always_noconv  = _M_codecvt->always_noconv();

  0004e	8b 8e a0 00 00
	00		 mov	 ecx, DWORD PTR [esi+160]
  00054	89 86 a8 00 00
	00		 mov	 DWORD PTR [esi+168], eax
  0005a	85 ff		 test	 edi, edi
  0005c	0f 9f c0	 setg	 al
  0005f	88 46 64	 mov	 BYTE PTR [esi+100], al
  00062	8b 11		 mov	 edx, DWORD PTR [ecx]
  00064	ff 52 14	 call	 DWORD PTR [edx+20]
  00067	5f		 pop	 edi
  00068	88 46 65	 mov	 BYTE PTR [esi+101], al
  0006b	5e		 pop	 esi

; 738  : }

  0006c	59		 pop	 ecx
  0006d	c2 04 00	 ret	 4
?_M_setup_codecvt@?$basic_filebuf@DV?$char_traits@D@_STL@@@_STL@@AAEXABVlocale@2@@Z ENDP ; _STL::basic_filebuf<char,_STL::char_traits<char> >::_M_setup_codecvt
; Function compile flags: /Ogty
_TEXT	ENDS
;	COMDAT ??_G?$basic_ostream@DV?$char_traits@D@_STL@@@_STL@@UAEPAXI@Z
_TEXT	SEGMENT
___flags$ = 8						; size = 4
??_G?$basic_ostream@DV?$char_traits@D@_STL@@@_STL@@UAEPAXI@Z PROC NEAR ; _STL::basic_ostream<char,_STL::char_traits<char> >::`scalar deleting destructor', COMDAT
; _this$ = ecx
  00000	56		 push	 esi
  00001	8d 71 fc	 lea	 esi, DWORD PTR [ecx-4]
  00004	8b 06		 mov	 eax, DWORD PTR [esi]
  00006	8b 50 04	 mov	 edx, DWORD PTR [eax+4]
  00009	8d 4e 04	 lea	 ecx, DWORD PTR [esi+4]
  0000c	c7 44 0a fc 00
	00 00 00	 mov	 DWORD PTR [edx+ecx-4], OFFSET FLAT:??_7?$basic_ostream@DV?$char_traits@D@_STL@@@_STL@@6B@
  00014	e8 00 00 00 00	 call	 ??1?$basic_ios@DV?$char_traits@D@_STL@@@_STL@@UAE@XZ ; _STL::basic_ios<char,_STL::char_traits<char> >::~basic_ios<char,_STL::char_traits<char> >
  00019	f6 44 24 08 01	 test	 BYTE PTR ___flags$[esp], 1
  0001e	74 09		 je	 SHORT $L93956
  00020	56		 push	 esi
  00021	e8 00 00 00 00	 call	 ??3@YAXPAX@Z		; operator delete
  00026	83 c4 04	 add	 esp, 4
$L93956:
  00029	8b c6		 mov	 eax, esi
  0002b	5e		 pop	 esi
  0002c	c2 04 00	 ret	 4
??_G?$basic_ostream@DV?$char_traits@D@_STL@@@_STL@@UAEPAXI@Z ENDP ; _STL::basic_ostream<char,_STL::char_traits<char> >::`scalar deleting destructor'
_TEXT	ENDS
PUBLIC	?Release@?$CTypePack2@VCSprite@@VCSprite555@@VCSprite565@@@@UAEXXZ ; CTypePack2<CSprite,CSprite555,CSprite565>::Release
; Function compile flags: /Ogty
; File c:\darkeden\designed_common\project\client\spritelib\ctypepack.h
;	COMDAT ?Release@?$CTypePack2@VCSprite@@VCSprite555@@VCSprite565@@@@UAEXXZ
_TEXT	SEGMENT
?Release@?$CTypePack2@VCSprite@@VCSprite555@@VCSprite565@@@@UAEXXZ PROC NEAR ; CTypePack2<CSprite,CSprite555,CSprite565>::Release, COMDAT
; _this$ = ecx

; 899  : {

  00000	56		 push	 esi
  00001	8b f1		 mov	 esi, ecx

; 900  : 	FinishRunningLoad();

  00003	8b 06		 mov	 eax, DWORD PTR [esi]
  00005	ff 50 34	 call	 DWORD PTR [eax+52]

; 901  : 
; 902  : 	if(m_pData != NULL)

  00008	8b 46 04	 mov	 eax, DWORD PTR [esi+4]
  0000b	85 c0		 test	 eax, eax
  0000d	74 2c		 je	 SHORT $L90129

; 903  : 	{
; 904  : 		delete []m_pData;

  0000f	8b 48 fc	 mov	 ecx, DWORD PTR [eax-4]
  00012	57		 push	 edi
  00013	8d 78 fc	 lea	 edi, DWORD PTR [eax-4]
  00016	68 00 00 00 00	 push	 OFFSET FLAT:??1CSprite@@QAE@XZ ; CSprite::~CSprite
  0001b	51		 push	 ecx
  0001c	6a 10		 push	 16			; 00000010H
  0001e	50		 push	 eax
  0001f	e8 00 00 00 00	 call	 ??_M@YGXPAXIHP6EX0@Z@Z
  00024	57		 push	 edi
  00025	e8 00 00 00 00	 call	 ??_V@YAXPAX@Z		; operator delete[]
  0002a	83 c4 04	 add	 esp, 4

; 905  : 		m_pData = NULL;

  0002d	c7 46 04 00 00
	00 00		 mov	 DWORD PTR [esi+4], 0

; 906  : 		m_Size = 0;

  00034	66 c7 46 08 00
	00		 mov	 WORD PTR [esi+8], 0
  0003a	5f		 pop	 edi
$L90129:
  0003b	5e		 pop	 esi

; 907  : 	}
; 908  : }

  0003c	c3		 ret	 0
?Release@?$CTypePack2@VCSprite@@VCSprite555@@VCSprite565@@@@UAEXXZ ENDP ; CTypePack2<CSprite,CSprite555,CSprite565>::Release
_TEXT	ENDS
PUBLIC	??1?$TArray@VCFrame@@G@@QAE@XZ			; TArray<CFrame,unsigned short>::~TArray<CFrame,unsigned short>
; Function compile flags: /Ogty
; File c:\darkeden\designed_common\project\client\spritelib\tarray.h
;	COMDAT ??1?$TArray@VCFrame@@G@@QAE@XZ
_TEXT	SEGMENT
??1?$TArray@VCFrame@@G@@QAE@XZ PROC NEAR		; TArray<CFrame,unsigned short>::~TArray<CFrame,unsigned short>, COMDAT
; _this$ = ecx

; 96   : {

  00000	56		 push	 esi
  00001	8b f1		 mov	 esi, ecx

; 97   : 	Release();

  00003	8b 46 04	 mov	 eax, DWORD PTR [esi+4]
  00006	85 c0		 test	 eax, eax
  00008	74 15		 je	 SHORT $L93979
  0000a	50		 push	 eax
  0000b	e8 00 00 00 00	 call	 ??_V@YAXPAX@Z		; operator delete[]
  00010	83 c4 04	 add	 esp, 4
  00013	c7 46 04 00 00
	00 00		 mov	 DWORD PTR [esi+4], 0
  0001a	66 c7 06 00 00	 mov	 WORD PTR [esi], 0
$L93979:
  0001f	5e		 pop	 esi

; 98   : }

  00020	c3		 ret	 0
??1?$TArray@VCFrame@@G@@QAE@XZ ENDP			; TArray<CFrame,unsigned short>::~TArray<CFrame,unsigned short>
_TEXT	ENDS
PUBLIC	??_ECSprite565@@QAEPAXI@Z			; CSprite565::`vector deleting destructor'
; Function compile flags: /Ogty
;	COMDAT ??_ECSprite565@@QAEPAXI@Z
_TEXT	SEGMENT
___flags$ = 8						; size = 4
??_ECSprite565@@QAEPAXI@Z PROC NEAR			; CSprite565::`vector deleting destructor', COMDAT
; _this$ = ecx
  00000	53		 push	 ebx
  00001	8a 5c 24 08	 mov	 bl, BYTE PTR ___flags$[esp]
  00005	f6 c3 02	 test	 bl, 2
  00008	56		 push	 esi
  00009	8b f1		 mov	 esi, ecx
  0000b	74 2b		 je	 SHORT $L91037
  0000d	8b 46 fc	 mov	 eax, DWORD PTR [esi-4]
  00010	57		 push	 edi
  00011	68 00 00 00 00	 push	 OFFSET FLAT:??1CSprite565@@QAE@XZ
  00016	8d 7e fc	 lea	 edi, DWORD PTR [esi-4]
  00019	50		 push	 eax
  0001a	6a 10		 push	 16			; 00000010H
  0001c	56		 push	 esi
  0001d	e8 00 00 00 00	 call	 ??_M@YGXPAXIHP6EX0@Z@Z
  00022	f6 c3 01	 test	 bl, 1
  00025	74 09		 je	 SHORT $L91038
  00027	57		 push	 edi
  00028	e8 00 00 00 00	 call	 ??_V@YAXPAX@Z		; operator delete[]
  0002d	83 c4 04	 add	 esp, 4
$L91038:
  00030	8b c7		 mov	 eax, edi
  00032	5f		 pop	 edi
  00033	5e		 pop	 esi
  00034	5b		 pop	 ebx
  00035	c2 04 00	 ret	 4
$L91037:
  00038	8b ce		 mov	 ecx, esi
  0003a	e8 00 00 00 00	 call	 ??1CSprite565@@QAE@XZ
  0003f	f6 c3 01	 test	 bl, 1
  00042	74 09		 je	 SHORT $L91040
  00044	56		 push	 esi
  00045	e8 00 00 00 00	 call	 ??3@YAXPAX@Z		; operator delete
  0004a	83 c4 04	 add	 esp, 4
$L91040:
  0004d	8b c6		 mov	 eax, esi
  0004f	5e		 pop	 esi
  00050	5b		 pop	 ebx
  00051	c2 04 00	 ret	 4
??_ECSprite565@@QAEPAXI@Z ENDP				; CSprite565::`vector deleting destructor'
_TEXT	ENDS
PUBLIC	??_ECSprite555@@QAEPAXI@Z			; CSprite555::`vector deleting destructor'
; Function compile flags: /Ogty
;	COMDAT ??_ECSprite555@@QAEPAXI@Z
_TEXT	SEGMENT
___flags$ = 8						; size = 4
??_ECSprite555@@QAEPAXI@Z PROC NEAR			; CSprite555::`vector deleting destructor', COMDAT
; _this$ = ecx
  00000	53		 push	 ebx
  00001	8a 5c 24 08	 mov	 bl, BYTE PTR ___flags$[esp]
  00005	f6 c3 02	 test	 bl, 2
  00008	56		 push	 esi
  00009	8b f1		 mov	 esi, ecx
  0000b	74 2b		 je	 SHORT $L91047
  0000d	8b 46 fc	 mov	 eax, DWORD PTR [esi-4]
  00010	57		 push	 edi
  00011	68 00 00 00 00	 push	 OFFSET FLAT:??1CSprite555@@QAE@XZ
  00016	8d 7e fc	 lea	 edi, DWORD PTR [esi-4]
  00019	50		 push	 eax
  0001a	6a 10		 push	 16			; 00000010H
  0001c	56		 push	 esi
  0001d	e8 00 00 00 00	 call	 ??_M@YGXPAXIHP6EX0@Z@Z
  00022	f6 c3 01	 test	 bl, 1
  00025	74 09		 je	 SHORT $L91048
  00027	57		 push	 edi
  00028	e8 00 00 00 00	 call	 ??_V@YAXPAX@Z		; operator delete[]
  0002d	83 c4 04	 add	 esp, 4
$L91048:
  00030	8b c7		 mov	 eax, edi
  00032	5f		 pop	 edi
  00033	5e		 pop	 esi
  00034	5b		 pop	 ebx
  00035	c2 04 00	 ret	 4
$L91047:
  00038	8b ce		 mov	 ecx, esi
  0003a	e8 00 00 00 00	 call	 ??1CSprite555@@QAE@XZ
  0003f	f6 c3 01	 test	 bl, 1
  00042	74 09		 je	 SHORT $L91050
  00044	56		 push	 esi
  00045	e8 00 00 00 00	 call	 ??3@YAXPAX@Z		; operator delete
  0004a	83 c4 04	 add	 esp, 4
$L91050:
  0004d	8b c6		 mov	 eax, esi
  0004f	5e		 pop	 esi
  00050	5b		 pop	 ebx
  00051	c2 04 00	 ret	 4
??_ECSprite555@@QAEPAXI@Z ENDP				; CSprite555::`vector deleting destructor'
_TEXT	ENDS
PUBLIC	?_M_terminate_string@?$basic_string@DV?$char_traits@D@_STL@@V?$allocator@D@2@@_STL@@AAEXXZ ; _STL::basic_string<char,_STL::char_traits<char>,_STL::allocator<char> >::_M_terminate_string
; Function compile flags: /Ogty
; File c:\stlport-4.6.1\stlport\stl\_string.h
;	COMDAT ?_M_terminate_string@?$basic_string@DV?$char_traits@D@_STL@@V?$allocator@D@2@@_STL@@AAEXXZ
_TEXT	SEGMENT
?_M_terminate_string@?$basic_string@DV?$char_traits@D@_STL@@V?$allocator@D@2@@_STL@@AAEXXZ PROC NEAR ; _STL::basic_string<char,_STL::char_traits<char>,_STL::allocator<char> >::_M_terminate_string, COMDAT
; _this$ = ecx

; 355  :     _M_terminate_string_aux(_Char_Is_Integral());

  00000	8b 41 04	 mov	 eax, DWORD PTR [ecx+4]
  00003	c6 00 00	 mov	 BYTE PTR [eax], 0

; 356  :   }

  00006	c3		 ret	 0
?_M_terminate_string@?$basic_string@DV?$char_traits@D@_STL@@V?$allocator@D@2@@_STL@@AAEXXZ ENDP ; _STL::basic_string<char,_STL::char_traits<char>,_STL::allocator<char> >::_M_terminate_string
_TEXT	ENDS
PUBLIC	??0?$_String_base@DV?$allocator@D@_STL@@@_STL@@QAE@ABV?$allocator@D@1@@Z ; _STL::_String_base<char,_STL::allocator<char> >::_String_base<char,_STL::allocator<char> >
; Function compile flags: /Ogty
;	COMDAT ??0?$_String_base@DV?$allocator@D@_STL@@@_STL@@QAE@ABV?$allocator@D@1@@Z
_TEXT	SEGMENT
___a$ = 8						; size = 4
??0?$_String_base@DV?$allocator@D@_STL@@@_STL@@QAE@ABV?$allocator@D@1@@Z PROC NEAR ; _STL::_String_base<char,_STL::allocator<char> >::_String_base<char,_STL::allocator<char> >, COMDAT
; _this$ = ecx

; 129  :     : _M_start(0), _M_finish(0), _M_end_of_storage(__a, (_Tp*)0) {}

  00000	8b 44 24 04	 mov	 eax, DWORD PTR ___a$[esp-4]
  00004	56		 push	 esi
  00005	8b f1		 mov	 esi, ecx
  00007	6a 00		 push	 0
  00009	50		 push	 eax
  0000a	8d 4e 08	 lea	 ecx, DWORD PTR [esi+8]
  0000d	c7 06 00 00 00
	00		 mov	 DWORD PTR [esi], 0
  00013	c7 46 04 00 00
	00 00		 mov	 DWORD PTR [esi+4], 0
  0001a	e8 00 00 00 00	 call	 ??0?$_STLP_alloc_proxy@PADDV?$allocator@D@_STL@@@_STL@@QAE@ABV?$allocator@D@1@PAD@Z ; _STL::_STLP_alloc_proxy<char *,char,_STL::allocator<char> >::_STLP_alloc_proxy<char *,char,_STL::allocator<char> >
  0001f	8b c6		 mov	 eax, esi
  00021	5e		 pop	 esi
  00022	c2 04 00	 ret	 4
??0?$_String_base@DV?$allocator@D@_STL@@@_STL@@QAE@ABV?$allocator@D@1@@Z ENDP ; _STL::_String_base<char,_STL::allocator<char> >::_String_base<char,_STL::allocator<char> >
_TEXT	ENDS
PUBLIC	?allocate@?$allocator@D@_STL@@QAEPADIPBX@Z	; _STL::allocator<char>::allocate
; Function compile flags: /Ogty
; File c:\stlport-4.6.1\stlport\stl\_alloc.h
;	COMDAT ?allocate@?$allocator@D@_STL@@QAEPADIPBX@Z
_TEXT	SEGMENT
___n$ = 8						; size = 4
___formal$ = 12						; size = 4
?allocate@?$allocator@D@_STL@@QAEPADIPBX@Z PROC NEAR	; _STL::allocator<char>::allocate, COMDAT
; _this$ = ecx

; 355  :     return __n != 0 ? __REINTERPRET_CAST(value_type*,__sgi_alloc::allocate(__n * sizeof(value_type))) : 0;

  00000	8b 44 24 04	 mov	 eax, DWORD PTR ___n$[esp-4]
  00004	85 c0		 test	 eax, eax
  00006	74 1e		 je	 SHORT $L93999
  00008	3d 80 00 00 00	 cmp	 eax, 128		; 00000080H
  0000d	50		 push	 eax
  0000e	76 0b		 jbe	 SHORT $L94009
  00010	e8 00 00 00 00	 call	 ??2@YAPAXI@Z		; operator new
  00015	83 c4 04	 add	 esp, 4

; 356  :   }

  00018	c2 08 00	 ret	 8

; 355  :     return __n != 0 ? __REINTERPRET_CAST(value_type*,__sgi_alloc::allocate(__n * sizeof(value_type))) : 0;

$L94009:
  0001b	e8 00 00 00 00	 call	 ?_M_allocate@?$__node_alloc@$00$0A@@_STL@@CAPAXI@Z ; _STL::__node_alloc<1,0>::_M_allocate
  00020	83 c4 04	 add	 esp, 4

; 356  :   }

  00023	c2 08 00	 ret	 8
$L93999:

; 355  :     return __n != 0 ? __REINTERPRET_CAST(value_type*,__sgi_alloc::allocate(__n * sizeof(value_type))) : 0;

  00026	33 c0		 xor	 eax, eax

; 356  :   }

  00028	c2 08 00	 ret	 8
?allocate@?$allocator@D@_STL@@QAEPADIPBX@Z ENDP		; _STL::allocator<char>::allocate
_TEXT	ENDS
PUBLIC	??1?$_STLP_alloc_proxy@PAU?$_Rb_tree_node@U?$pair@$$CBGPAVivfstream@@@_STL@@@_STL@@U12@V?$allocator@U?$_Rb_tree_node@U?$pair@$$CBGPAVivfstream@@@_STL@@@_STL@@@2@@_STL@@QAE@XZ ; _STL::_STLP_alloc_proxy<_STL::_Rb_tree_node<_STL::pair<unsigned short const ,ivfstream *> > *,_STL::_Rb_tree_node<_STL::pair<unsigned short const ,ivfstream *> >,_STL::allocator<_STL::_Rb_tree_node<_STL::pair<unsigned short const ,ivfstream *> > > >::~_STLP_alloc_proxy<_STL::_Rb_tree_node<_STL::pair<unsigned short const ,ivfstream *> > *,_STL::_Rb_tree_node<_STL::pair<unsigned short const ,ivfstream *> >,_STL::allocator<_STL::_Rb_tree_node<_STL::pair<unsigned short const ,ivfstream *> > > >
; Function compile flags: /Ogty
;	COMDAT ??1?$_STLP_alloc_proxy@PAU?$_Rb_tree_node@U?$pair@$$CBGPAVivfstream@@@_STL@@@_STL@@U12@V?$allocator@U?$_Rb_tree_node@U?$pair@$$CBGPAVivfstream@@@_STL@@@_STL@@@2@@_STL@@QAE@XZ
_TEXT	SEGMENT
??1?$_STLP_alloc_proxy@PAU?$_Rb_tree_node@U?$pair@$$CBGPAVivfstream@@@_STL@@@_STL@@U12@V?$allocator@U?$_Rb_tree_node@U?$pair@$$CBGPAVivfstream@@@_STL@@@_STL@@@2@@_STL@@QAE@XZ PROC NEAR ; _STL::_STLP_alloc_proxy<_STL::_Rb_tree_node<_STL::pair<unsigned short const ,ivfstream *> > *,_STL::_Rb_tree_node<_STL::pair<unsigned short const ,ivfstream *> >,_STL::allocator<_STL::_Rb_tree_node<_STL::pair<unsigned short const ,ivfstream *> > > >::~_STLP_alloc_proxy<_STL::_Rb_tree_node<_STL::pair<unsigned short const ,ivfstream *> > *,_STL::_Rb_tree_node<_STL::pair<unsigned short const ,ivfstream *> >,_STL::allocator<_STL::_Rb_tree_node<_STL::pair<unsigned short const ,ivfstream *> > > >, COMDAT
; _this$ = ecx
  00000	c3		 ret	 0
??1?$_STLP_alloc_proxy@PAU?$_Rb_tree_node@U?$pair@$$CBGPAVivfstream@@@_STL@@@_STL@@U12@V?$allocator@U?$_Rb_tree_node@U?$pair@$$CBGPAVivfstream@@@_STL@@@_STL@@@2@@_STL@@QAE@XZ ENDP ; _STL::_STLP_alloc_proxy<_STL::_Rb_tree_node<_STL::pair<unsigned short const ,ivfstream *> > *,_STL::_Rb_tree_node<_STL::pair<unsigned short const ,ivfstream *> >,_STL::allocator<_STL::_Rb_tree_node<_STL::pair<unsigned short const ,ivfstream *> > > >::~_STLP_alloc_proxy<_STL::_Rb_tree_node<_STL::pair<unsigned short const ,ivfstream *> > *,_STL::_Rb_tree_node<_STL::pair<unsigned short const ,ivfstream *> >,_STL::allocator<_STL::_Rb_tree_node<_STL::pair<unsigned short const ,ivfstream *> > > >
_TEXT	ENDS
PUBLIC	?_M_construct_null@?$basic_string@DV?$char_traits@D@_STL@@V?$allocator@D@2@@_STL@@AAEXPAD@Z ; _STL::basic_string<char,_STL::char_traits<char>,_STL::allocator<char> >::_M_construct_null
; Function compile flags: /Ogty
; File c:\stlport-4.6.1\stlport\stl\_string.h
;	COMDAT ?_M_construct_null@?$basic_string@DV?$char_traits@D@_STL@@V?$allocator@D@2@@_STL@@AAEXPAD@Z
_TEXT	SEGMENT
___p$ = 8						; size = 4
?_M_construct_null@?$basic_string@DV?$char_traits@D@_STL@@V?$allocator@D@2@@_STL@@AAEXPAD@Z PROC NEAR ; _STL::basic_string<char,_STL::char_traits<char>,_STL::allocator<char> >::_M_construct_null, COMDAT
; _this$ = ecx

; 336  :     _M_construct_null_aux(__p, _Char_Is_Integral());

  00000	8b 44 24 04	 mov	 eax, DWORD PTR ___p$[esp-4]
  00004	c6 00 00	 mov	 BYTE PTR [eax], 0

; 337  :   }

  00007	c2 04 00	 ret	 4
?_M_construct_null@?$basic_string@DV?$char_traits@D@_STL@@V?$allocator@D@2@@_STL@@AAEXPAD@Z ENDP ; _STL::basic_string<char,_STL::char_traits<char>,_STL::allocator<char> >::_M_construct_null
_TEXT	ENDS
PUBLIC	?_M_empty_initialize@?$_Rb_tree@GU?$pair@$$CBGPAVivfstream@@@_STL@@U?$_Select1st@U?$pair@$$CBGPAVivfstream@@@_STL@@@2@U?$less@G@2@V?$allocator@U?$pair@$$CBGPAVivfstream@@@_STL@@@2@@_STL@@AAEXXZ ; _STL::_Rb_tree<unsigned short,_STL::pair<unsigned short const ,ivfstream *>,_STL::_Select1st<_STL::pair<unsigned short const ,ivfstream *> >,_STL::less<unsigned short>,_STL::allocator<_STL::pair<unsigned short const ,ivfstream *> > >::_M_empty_initialize
; Function compile flags: /Ogty
; File c:\stlport-4.6.1\stlport\stl\_tree.h
;	COMDAT ?_M_empty_initialize@?$_Rb_tree@GU?$pair@$$CBGPAVivfstream@@@_STL@@U?$_Select1st@U?$pair@$$CBGPAVivfstream@@@_STL@@@2@U?$less@G@2@V?$allocator@U?$pair@$$CBGPAVivfstream@@@_STL@@@2@@_STL@@AAEXXZ
_TEXT	SEGMENT
?_M_empty_initialize@?$_Rb_tree@GU?$pair@$$CBGPAVivfstream@@@_STL@@U?$_Select1st@U?$pair@$$CBGPAVivfstream@@@_STL@@@2@U?$less@G@2@V?$allocator@U?$pair@$$CBGPAVivfstream@@@_STL@@@2@@_STL@@AAEXXZ PROC NEAR ; _STL::_Rb_tree<unsigned short,_STL::pair<unsigned short const ,ivfstream *>,_STL::_Select1st<_STL::pair<unsigned short const ,ivfstream *> >,_STL::less<unsigned short>,_STL::allocator<_STL::pair<unsigned short const ,ivfstream *> > >::_M_empty_initialize, COMDAT
; _this$ = ecx

; 346  :     _S_color(this->_M_header._M_data) = _S_rb_tree_red; // used to distinguish header from 

  00000	8b 01		 mov	 eax, DWORD PTR [ecx]
  00002	c6 00 00	 mov	 BYTE PTR [eax], 0

; 347  :                                           // __root, in iterator.operator++
; 348  :     _M_root() = 0;

  00005	8b 11		 mov	 edx, DWORD PTR [ecx]
  00007	c7 42 04 00 00
	00 00		 mov	 DWORD PTR [edx+4], 0

; 349  :     _M_leftmost() = this->_M_header._M_data;

  0000e	8b 01		 mov	 eax, DWORD PTR [ecx]
  00010	89 40 08	 mov	 DWORD PTR [eax+8], eax

; 350  :     _M_rightmost() = this->_M_header._M_data;

  00013	8b 09		 mov	 ecx, DWORD PTR [ecx]
  00015	89 49 0c	 mov	 DWORD PTR [ecx+12], ecx

; 351  :   }

  00018	c3		 ret	 0
?_M_empty_initialize@?$_Rb_tree@GU?$pair@$$CBGPAVivfstream@@@_STL@@U?$_Select1st@U?$pair@$$CBGPAVivfstream@@@_STL@@@2@U?$less@G@2@V?$allocator@U?$pair@$$CBGPAVivfstream@@@_STL@@@2@@_STL@@AAEXXZ ENDP ; _STL::_Rb_tree<unsigned short,_STL::pair<unsigned short const ,ivfstream *>,_STL::_Select1st<_STL::pair<unsigned short const ,ivfstream *> >,_STL::less<unsigned short>,_STL::allocator<_STL::pair<unsigned short const ,ivfstream *> > >::_M_empty_initialize
_TEXT	ENDS
PUBLIC	??0?$_STLP_alloc_proxy@PAU?$_Rb_tree_node@U?$pair@$$CBGPAVivfstream@@@_STL@@@_STL@@U12@V?$allocator@U?$_Rb_tree_node@U?$pair@$$CBGPAVivfstream@@@_STL@@@_STL@@@2@@_STL@@QAE@ABV?$allocator@U?$_Rb_tree_node@U?$pair@$$CBGPAVivfstream@@@_STL@@@_STL@@@1@PAU?$_Rb_tree_node@U?$pair@$$CBGPAVivfstream@@@_STL@@@1@@Z ; _STL::_STLP_alloc_proxy<_STL::_Rb_tree_node<_STL::pair<unsigned short const ,ivfstream *> > *,_STL::_Rb_tree_node<_STL::pair<unsigned short const ,ivfstream *> >,_STL::allocator<_STL::_Rb_tree_node<_STL::pair<unsigned short const ,ivfstream *> > > >::_STLP_alloc_proxy<_STL::_Rb_tree_node<_STL::pair<unsigned short const ,ivfstream *> > *,_STL::_Rb_tree_node<_STL::pair<unsigned short const ,ivfstream *> >,_STL::allocator<_STL::_Rb_tree_node<_STL::pair<unsigned short const ,ivfstream *> > > >
; Function compile flags: /Ogty
; File c:\stlport-4.6.1\stlport\stl\_alloc.h
;	COMDAT ??0?$_STLP_alloc_proxy@PAU?$_Rb_tree_node@U?$pair@$$CBGPAVivfstream@@@_STL@@@_STL@@U12@V?$allocator@U?$_Rb_tree_node@U?$pair@$$CBGPAVivfstream@@@_STL@@@_STL@@@2@@_STL@@QAE@ABV?$allocator@U?$_Rb_tree_node@U?$pair@$$CBGPAVivfstream@@@_STL@@@_STL@@@1@PAU?$_Rb_tree_node@U?$pair@$$CBGPAVivfstream@@@_STL@@@1@@Z
_TEXT	SEGMENT
___a$ = 8						; size = 4
___p$ = 12						; size = 4
??0?$_STLP_alloc_proxy@PAU?$_Rb_tree_node@U?$pair@$$CBGPAVivfstream@@@_STL@@@_STL@@U12@V?$allocator@U?$_Rb_tree_node@U?$pair@$$CBGPAVivfstream@@@_STL@@@_STL@@@2@@_STL@@QAE@ABV?$allocator@U?$_Rb_tree_node@U?$pair@$$CBGPAVivfstream@@@_STL@@@_STL@@@1@PAU?$_Rb_tree_node@U?$pair@$$CBGPAVivfstream@@@_STL@@@1@@Z PROC NEAR ; _STL::_STLP_alloc_proxy<_STL::_Rb_tree_node<_STL::pair<unsigned short const ,ivfstream *> > *,_STL::_Rb_tree_node<_STL::pair<unsigned short const ,ivfstream *> >,_STL::allocator<_STL::_Rb_tree_node<_STL::pair<unsigned short const ,ivfstream *> > > >::_STLP_alloc_proxy<_STL::_Rb_tree_node<_STL::pair<unsigned short const ,ivfstream *> > *,_STL::_Rb_tree_node<_STL::pair<unsigned short const ,ivfstream *> >,_STL::allocator<_STL::_Rb_tree_node<_STL::pair<unsigned short const ,ivfstream *> > > >, COMDAT
; _this$ = ecx

; 487  :   inline _STLP_alloc_proxy(const _MaybeReboundAlloc& __a, _Value __p) : _MaybeReboundAlloc(__a), _M_data(__p) {}

  00000	8b c1		 mov	 eax, ecx
  00002	8b 4c 24 08	 mov	 ecx, DWORD PTR ___p$[esp-4]
  00006	89 08		 mov	 DWORD PTR [eax], ecx
  00008	c2 08 00	 ret	 8
??0?$_STLP_alloc_proxy@PAU?$_Rb_tree_node@U?$pair@$$CBGPAVivfstream@@@_STL@@@_STL@@U12@V?$allocator@U?$_Rb_tree_node@U?$pair@$$CBGPAVivfstream@@@_STL@@@_STL@@@2@@_STL@@QAE@ABV?$allocator@U?$_Rb_tree_node@U?$pair@$$CBGPAVivfstream@@@_STL@@@_STL@@@1@PAU?$_Rb_tree_node@U?$pair@$$CBGPAVivfstream@@@_STL@@@1@@Z ENDP ; _STL::_STLP_alloc_proxy<_STL::_Rb_tree_node<_STL::pair<unsigned short const ,ivfstream *> > *,_STL::_Rb_tree_node<_STL::pair<unsigned short const ,ivfstream *> >,_STL::allocator<_STL::_Rb_tree_node<_STL::pair<unsigned short const ,ivfstream *> > > >::_STLP_alloc_proxy<_STL::_Rb_tree_node<_STL::pair<unsigned short const ,ivfstream *> > *,_STL::_Rb_tree_node<_STL::pair<unsigned short const ,ivfstream *> >,_STL::allocator<_STL::_Rb_tree_node<_STL::pair<unsigned short const ,ivfstream *> > > >
_TEXT	ENDS
PUBLIC	?rdbuf@?$basic_ios@DV?$char_traits@D@_STL@@@_STL@@QAEPAV?$basic_streambuf@DV?$char_traits@D@_STL@@@2@PAV32@@Z ; _STL::basic_ios<char,_STL::char_traits<char> >::rdbuf
; Function compile flags: /Ogty
; File c:\stlport-4.6.1\stlport\stl\_ios.c
;	COMDAT ?rdbuf@?$basic_ios@DV?$char_traits@D@_STL@@@_STL@@QAEPAV?$basic_streambuf@DV?$char_traits@D@_STL@@@2@PAV32@@Z
_TEXT	SEGMENT
___buf$ = 8						; size = 4
?rdbuf@?$basic_ios@DV?$char_traits@D@_STL@@@_STL@@QAEPAV?$basic_streambuf@DV?$char_traits@D@_STL@@@2@PAV32@@Z PROC NEAR ; _STL::basic_ios<char,_STL::char_traits<char> >::rdbuf, COMDAT
; _this$ = ecx

; 53   :   basic_streambuf<_CharT, _Traits>* __tmp = _M_streambuf;
; 54   :   _M_streambuf = __buf;

  00000	8b 44 24 04	 mov	 eax, DWORD PTR ___buf$[esp-4]

; 55   :   this->clear();

  00004	33 d2		 xor	 edx, edx
  00006	85 c0		 test	 eax, eax
  00008	0f 94 c2	 sete	 dl
  0000b	56		 push	 esi
  0000c	8b 71 58	 mov	 esi, DWORD PTR [ecx+88]
  0000f	89 41 58	 mov	 DWORD PTR [ecx+88], eax
  00012	8b c2		 mov	 eax, edx
  00014	85 41 14	 test	 DWORD PTR [ecx+20], eax
  00017	89 41 08	 mov	 DWORD PTR [ecx+8], eax
  0001a	74 05		 je	 SHORT $L94074
  0001c	e8 00 00 00 00	 call	 ?_M_throw_failure@ios_base@_STL@@IAEXXZ ; _STL::ios_base::_M_throw_failure
$L94074:

; 56   :   return __tmp;

  00021	8b c6		 mov	 eax, esi
  00023	5e		 pop	 esi

; 57   : }

  00024	c2 04 00	 ret	 4
?rdbuf@?$basic_ios@DV?$char_traits@D@_STL@@@_STL@@QAEPAV?$basic_streambuf@DV?$char_traits@D@_STL@@@2@PAV32@@Z ENDP ; _STL::basic_ios<char,_STL::char_traits<char> >::rdbuf
_TEXT	ENDS
PUBLIC	?Init@?$TArray@VCFrame@@G@@QAEXG@Z		; TArray<CFrame,unsigned short>::Init
EXTRN	??_U@YAPAXI@Z:NEAR				; operator new[]
;	COMDAT xdata$x
; File c:\darkeden\designed_common\project\client\spritelib\tarray.h
xdata$x	SEGMENT
$T94093	DD	0ffffffffH
	DD	FLAT:$L94083
$T94091	DD	019930520H
	DD	01H
	DD	FLAT:$T94093
	DD	2 DUP(00H)
	DD	2 DUP(00H)
; Function compile flags: /Ogty
xdata$x	ENDS
;	COMDAT ?Init@?$TArray@VCFrame@@G@@QAEXG@Z
_TEXT	SEGMENT
__$EHRec$ = -12						; size = 12
$T94080 = 8						; size = 4
_size$ = 8						; size = 2
?Init@?$TArray@VCFrame@@G@@QAEXG@Z PROC NEAR		; TArray<CFrame,unsigned short>::Init, COMDAT
; _this$ = ecx

; 112  : {

  00000	64 a1 00 00 00
	00		 mov	 eax, DWORD PTR fs:__except_list
  00006	6a ff		 push	 -1
  00008	68 00 00 00 00	 push	 __ehhandler$?Init@?$TArray@VCFrame@@G@@QAEXG@Z
  0000d	50		 push	 eax
  0000e	64 89 25 00 00
	00 00		 mov	 DWORD PTR fs:__except_list, esp
  00015	53		 push	 ebx
  00016	8b d9		 mov	 ebx, ecx

; 113  : 	//  
; 114  : 	Release();

  00018	8b 43 04	 mov	 eax, DWORD PTR [ebx+4]
  0001b	85 c0		 test	 eax, eax
  0001d	56		 push	 esi
  0001e	57		 push	 edi
  0001f	74 15		 je	 SHORT $L94087
  00021	50		 push	 eax
  00022	e8 00 00 00 00	 call	 ??_V@YAXPAX@Z		; operator delete[]
  00027	83 c4 04	 add	 esp, 4
  0002a	c7 43 04 00 00
	00 00		 mov	 DWORD PTR [ebx+4], 0
  00031	66 c7 03 00 00	 mov	 WORD PTR [ebx], 0
$L94087:

; 115  : 
; 116  : 	if (size==0) return;

  00036	66 8b 44 24 1c	 mov	 ax, WORD PTR _size$[esp+20]
  0003b	66 85 c0	 test	 ax, ax
  0003e	74 3b		 je	 SHORT $L91588

; 117  : 
; 118  : 	m_Size = size;
; 119  : 	m_pData = new DataType [m_Size];

  00040	0f b7 f0	 movzx	 esi, ax
  00043	66 89 03	 mov	 WORD PTR [ebx], ax
  00046	8d 04 76	 lea	 eax, DWORD PTR [esi+esi*2]
  00049	d1 e0		 shl	 eax, 1
  0004b	50		 push	 eax
  0004c	e8 00 00 00 00	 call	 ??_U@YAPAXI@Z		; operator new[]
  00051	8b f8		 mov	 edi, eax
  00053	83 c4 04	 add	 esp, 4
  00056	89 7c 24 1c	 mov	 DWORD PTR $T94080[esp+20], edi
  0005a	85 ff		 test	 edi, edi
  0005c	c7 44 24 14 00
	00 00 00	 mov	 DWORD PTR __$EHRec$[esp+32], 0
  00064	74 10		 je	 SHORT $L94081
  00066	68 00 00 00 00	 push	 OFFSET FLAT:??_FCFrame@@QAEXXZ
  0006b	56		 push	 esi
  0006c	6a 06		 push	 6
  0006e	57		 push	 edi
  0006f	e8 00 00 00 00	 call	 ??_H@YGXPAXIHP6EPAX0@Z@Z
  00074	eb 02		 jmp	 SHORT $L94082
$L94081:
  00076	33 ff		 xor	 edi, edi
$L94082:
  00078	89 7b 04	 mov	 DWORD PTR [ebx+4], edi
$L91588:

; 120  : }

  0007b	8b 4c 24 0c	 mov	 ecx, DWORD PTR __$EHRec$[esp+24]
  0007f	5f		 pop	 edi
  00080	5e		 pop	 esi
  00081	64 89 0d 00 00
	00 00		 mov	 DWORD PTR fs:__except_list, ecx
  00088	5b		 pop	 ebx
  00089	83 c4 0c	 add	 esp, 12			; 0000000cH
  0008c	c2 04 00	 ret	 4
_TEXT	ENDS
;	COMDAT text$x
text$x	SEGMENT
$L94083:
  00000	8b 45 04	 mov	 eax, DWORD PTR $T94080[ebp-4]
  00003	50		 push	 eax
  00004	e8 00 00 00 00	 call	 ??_V@YAXPAX@Z		; operator delete[]
  00009	59		 pop	 ecx
  0000a	c3		 ret	 0
__ehhandler$?Init@?$TArray@VCFrame@@G@@QAEXG@Z:
  0000b	b8 00 00 00 00	 mov	 eax, OFFSET FLAT:$T94091
  00010	e9 00 00 00 00	 jmp	 ___CxxFrameHandler
text$x	ENDS
?Init@?$TArray@VCFrame@@G@@QAEXG@Z ENDP			; TArray<CFrame,unsigned short>::Init
PUBLIC	?_M_erase@?$_Rb_tree@GU?$pair@$$CBGPAVivfstream@@@_STL@@U?$_Select1st@U?$pair@$$CBGPAVivfstream@@@_STL@@@2@U?$less@G@2@V?$allocator@U?$pair@$$CBGPAVivfstream@@@_STL@@@2@@_STL@@AAEXPAU?$_Rb_tree_node@U?$pair@$$CBGPAVivfstream@@@_STL@@@2@@Z ; _STL::_Rb_tree<unsigned short,_STL::pair<unsigned short const ,ivfstream *>,_STL::_Select1st<_STL::pair<unsigned short const ,ivfstream *> >,_STL::less<unsigned short>,_STL::allocator<_STL::pair<unsigned short const ,ivfstream *> > >::_M_erase
; Function compile flags: /Ogty
; File c:\stlport-4.6.1\stlport\stl\_tree.c
;	COMDAT ?_M_erase@?$_Rb_tree@GU?$pair@$$CBGPAVivfstream@@@_STL@@U?$_Select1st@U?$pair@$$CBGPAVivfstream@@@_STL@@@2@U?$less@G@2@V?$allocator@U?$pair@$$CBGPAVivfstream@@@_STL@@@2@@_STL@@AAEXPAU?$_Rb_tree_node@U?$pair@$$CBGPAVivfstream@@@_STL@@@2@@Z
_TEXT	SEGMENT
___x$ = 8						; size = 4
?_M_erase@?$_Rb_tree@GU?$pair@$$CBGPAVivfstream@@@_STL@@U?$_Select1st@U?$pair@$$CBGPAVivfstream@@@_STL@@@2@U?$less@G@2@V?$allocator@U?$pair@$$CBGPAVivfstream@@@_STL@@@2@@_STL@@AAEXPAU?$_Rb_tree_node@U?$pair@$$CBGPAVivfstream@@@_STL@@@2@@Z PROC NEAR ; _STL::_Rb_tree<unsigned short,_STL::pair<unsigned short const ,ivfstream *>,_STL::_Select1st<_STL::pair<unsigned short const ,ivfstream *> >,_STL::less<unsigned short>,_STL::allocator<_STL::pair<unsigned short const ,ivfstream *> > >::_M_erase, COMDAT
; _this$ = ecx

; 637  : {

  00000	53		 push	 ebx
  00001	56		 push	 esi

; 638  :                                 // erase without rebalancing
; 639  :   while (__x != 0) {

  00002	8b 74 24 0c	 mov	 esi, DWORD PTR ___x$[esp+4]
  00006	85 f6		 test	 esi, esi
  00008	8b d9		 mov	 ebx, ecx
  0000a	74 24		 je	 SHORT $L91644
  0000c	57		 push	 edi
  0000d	8d 49 00	 npad	 3
$L91643:

; 640  :     _M_erase(_S_right(__x));

  00010	8b 46 0c	 mov	 eax, DWORD PTR [esi+12]
  00013	50		 push	 eax
  00014	8b cb		 mov	 ecx, ebx
  00016	e8 00 00 00 00	 call	 ?_M_erase@?$_Rb_tree@GU?$pair@$$CBGPAVivfstream@@@_STL@@U?$_Select1st@U?$pair@$$CBGPAVivfstream@@@_STL@@@2@U?$less@G@2@V?$allocator@U?$pair@$$CBGPAVivfstream@@@_STL@@@2@@_STL@@AAEXPAU?$_Rb_tree_node@U?$pair@$$CBGPAVivfstream@@@_STL@@@2@@Z ; _STL::_Rb_tree<unsigned short,_STL::pair<unsigned short const ,ivfstream *>,_STL::_Select1st<_STL::pair<unsigned short const ,ivfstream *> >,_STL::less<unsigned short>,_STL::allocator<_STL::pair<unsigned short const ,ivfstream *> > >::_M_erase

; 641  :     _Link_type __y = _S_left(__x);

  0001b	8b 7e 08	 mov	 edi, DWORD PTR [esi+8]

; 642  :     _STLP_STD::_Destroy(&__x->_M_value_field);
; 643  :     this->_M_header.deallocate(__x,1);

  0001e	6a 18		 push	 24			; 00000018H
  00020	56		 push	 esi
  00021	e8 00 00 00 00	 call	 ?_M_deallocate@?$__node_alloc@$00$0A@@_STL@@CAXPAXI@Z ; _STL::__node_alloc<1,0>::_M_deallocate
  00026	83 c4 08	 add	 esp, 8
  00029	85 ff		 test	 edi, edi

; 644  :     __x = __y;

  0002b	8b f7		 mov	 esi, edi
  0002d	75 e1		 jne	 SHORT $L91643
  0002f	5f		 pop	 edi
$L91644:
  00030	5e		 pop	 esi
  00031	5b		 pop	 ebx

; 645  :   }
; 646  : }

  00032	c2 04 00	 ret	 4
?_M_erase@?$_Rb_tree@GU?$pair@$$CBGPAVivfstream@@@_STL@@U?$_Select1st@U?$pair@$$CBGPAVivfstream@@@_STL@@@2@U?$less@G@2@V?$allocator@U?$pair@$$CBGPAVivfstream@@@_STL@@@2@@_STL@@AAEXPAU?$_Rb_tree_node@U?$pair@$$CBGPAVivfstream@@@_STL@@@2@@Z ENDP ; _STL::_Rb_tree<unsigned short,_STL::pair<unsigned short const ,ivfstream *>,_STL::_Select1st<_STL::pair<unsigned short const ,ivfstream *> >,_STL::less<unsigned short>,_STL::allocator<_STL::pair<unsigned short const ,ivfstream *> > >::_M_erase
_TEXT	ENDS
PUBLIC	?max_size@?$basic_string@DV?$char_traits@D@_STL@@V?$allocator@D@2@@_STL@@QBEIXZ ; _STL::basic_string<char,_STL::char_traits<char>,_STL::allocator<char> >::max_size
; Function compile flags: /Ogty
; File c:\stlport-4.6.1\stlport\stl\_string.h
;	COMDAT ?max_size@?$basic_string@DV?$char_traits@D@_STL@@V?$allocator@D@2@@_STL@@QBEIXZ
_TEXT	SEGMENT
?max_size@?$basic_string@DV?$char_traits@D@_STL@@V?$allocator@D@2@@_STL@@QBEIXZ PROC NEAR ; _STL::basic_string<char,_STL::char_traits<char>,_STL::allocator<char> >::max_size, COMDAT
; _this$ = ecx

; 434  :   size_t max_size() const { return _Base::max_size(); }

  00000	b8 fe ff ff ff	 mov	 eax, -2			; fffffffeH
  00005	c3		 ret	 0
?max_size@?$basic_string@DV?$char_traits@D@_STL@@V?$allocator@D@2@@_STL@@QBEIXZ ENDP ; _STL::basic_string<char,_STL::char_traits<char>,_STL::allocator<char> >::max_size
_TEXT	ENDS
PUBLIC	??$distance@PAD@_STL@@YAHABQAD0@Z		; _STL::distance<char *>
; Function compile flags: /Ogty
; File c:\stlport-4.6.1\stlport\stl\_iterator_base.h
;	COMDAT ??$distance@PAD@_STL@@YAHABQAD0@Z
_TEXT	SEGMENT
___first$ = 8						; size = 4
___last$ = 12						; size = 4
??$distance@PAD@_STL@@YAHABQAD0@Z PROC NEAR		; _STL::distance<char *>, COMDAT

; 369  :   return __distance(__first, __last, _STLP_ITERATOR_CATEGORY(__first, _InputIterator));  

  00000	8b 44 24 08	 mov	 eax, DWORD PTR ___last$[esp-4]
  00004	8b 4c 24 04	 mov	 ecx, DWORD PTR ___first$[esp-4]
  00008	8b 00		 mov	 eax, DWORD PTR [eax]
  0000a	2b 01		 sub	 eax, DWORD PTR [ecx]

; 370  : }

  0000c	c3		 ret	 0
??$distance@PAD@_STL@@YAHABQAD0@Z ENDP			; _STL::distance<char *>
_TEXT	ENDS
PUBLIC	??$distance@PBD@_STL@@YAHABQBD0@Z		; _STL::distance<char const *>
; Function compile flags: /Ogty
;	COMDAT ??$distance@PBD@_STL@@YAHABQBD0@Z
_TEXT	SEGMENT
___first$ = 8						; size = 4
___last$ = 12						; size = 4
??$distance@PBD@_STL@@YAHABQBD0@Z PROC NEAR		; _STL::distance<char const *>, COMDAT

; 369  :   return __distance(__first, __last, _STLP_ITERATOR_CATEGORY(__first, _InputIterator));  

  00000	8b 44 24 08	 mov	 eax, DWORD PTR ___last$[esp-4]
  00004	8b 4c 24 04	 mov	 ecx, DWORD PTR ___first$[esp-4]
  00008	8b 00		 mov	 eax, DWORD PTR [eax]
  0000a	2b 01		 sub	 eax, DWORD PTR [ecx]

; 370  : }

  0000c	c3		 ret	 0
??$distance@PBD@_STL@@YAHABQBD0@Z ENDP			; _STL::distance<char const *>
_TEXT	ENDS
PUBLIC	??$__copy_aux@PADPAD@_STL@@YAPADPAD00ABU__true_type@0@@Z ; _STL::__copy_aux<char *,char *>
; Function compile flags: /Ogty
; File c:\stlport-4.6.1\stlport\stl\_algobase.h
;	COMDAT ??$__copy_aux@PADPAD@_STL@@YAPADPAD00ABU__true_type@0@@Z
_TEXT	SEGMENT
___first$ = 8						; size = 4
___last$ = 12						; size = 4
___result$ = 16						; size = 4
___formal$ = 20						; size = 4
??$__copy_aux@PADPAD@_STL@@YAPADPAD00ABU__true_type@0@@Z PROC NEAR ; _STL::__copy_aux<char *,char *>, COMDAT

; 202  :   return __copy_ptrs(__first, __last, __result, 
; 203  :                      _IsOKToMemCpy(_STLP_VALUE_TYPE(__first, _InputIter), 
; 204  :                                    _STLP_VALUE_TYPE(__result, _OutputIter))._Ret());

  00000	8b 44 24 04	 mov	 eax, DWORD PTR ___first$[esp-4]
  00004	56		 push	 esi
  00005	8b 74 24 0c	 mov	 esi, DWORD PTR ___last$[esp]
  00009	3b f0		 cmp	 esi, eax
  0000b	75 06		 jne	 SHORT $L94178
  0000d	8b 44 24 10	 mov	 eax, DWORD PTR ___result$[esp]
  00011	5e		 pop	 esi

; 205  : }

  00012	c3		 ret	 0

; 202  :   return __copy_ptrs(__first, __last, __result, 
; 203  :                      _IsOKToMemCpy(_STLP_VALUE_TYPE(__first, _InputIter), 
; 204  :                                    _STLP_VALUE_TYPE(__result, _OutputIter))._Ret());

$L94178:
  00013	2b f0		 sub	 esi, eax
  00015	56		 push	 esi
  00016	50		 push	 eax
  00017	8b 44 24 18	 mov	 eax, DWORD PTR ___result$[esp+8]
  0001b	50		 push	 eax
  0001c	e8 00 00 00 00	 call	 _memmove
  00021	83 c4 0c	 add	 esp, 12			; 0000000cH
  00024	03 c6		 add	 eax, esi
  00026	5e		 pop	 esi

; 205  : }

  00027	c3		 ret	 0
??$__copy_aux@PADPAD@_STL@@YAPADPAD00ABU__true_type@0@@Z ENDP ; _STL::__copy_aux<char *,char *>
_TEXT	ENDS
PUBLIC	?FrrRX@C_ANI_OBJECT@@QBEHH@Z			; C_ANI_OBJECT::FrrRX
; Function compile flags: /Ogty
; File c:\darkeden\designed_common\project\new - vs_ui\src\vs_ui_util.cpp
;	COMDAT ?FrrRX@C_ANI_OBJECT@@QBEHH@Z
_TEXT	SEGMENT
_index$ = 8						; size = 4
?FrrRX@C_ANI_OBJECT@@QBEHH@Z PROC NEAR			; C_ANI_OBJECT::FrrRX, COMDAT
; _this$ = ecx

; 248  : 	return m_pC_frr->GetRX(index);

  00000	0f b7 44 24 04	 movzx	 eax, WORD PTR _index$[esp-4]
  00005	8b 49 04	 mov	 ecx, DWORD PTR [ecx+4]
  00008	8b 51 04	 mov	 edx, DWORD PTR [ecx+4]
  0000b	8d 04 40	 lea	 eax, DWORD PTR [eax+eax*2]
  0000e	0f bf 44 42 02	 movsx	 eax, WORD PTR [edx+eax*2+2]

; 249  : }

  00013	c2 04 00	 ret	 4
?FrrRX@C_ANI_OBJECT@@QBEHH@Z ENDP			; C_ANI_OBJECT::FrrRX
_TEXT	ENDS
PUBLIC	?FrrRY@C_ANI_OBJECT@@QBEHH@Z			; C_ANI_OBJECT::FrrRY
; Function compile flags: /Ogty
;	COMDAT ?FrrRY@C_ANI_OBJECT@@QBEHH@Z
_TEXT	SEGMENT
_index$ = 8						; size = 4
?FrrRY@C_ANI_OBJECT@@QBEHH@Z PROC NEAR			; C_ANI_OBJECT::FrrRY, COMDAT
; _this$ = ecx

; 257  : 	return m_pC_frr->GetRY(index);

  00000	0f b7 44 24 04	 movzx	 eax, WORD PTR _index$[esp-4]
  00005	8b 49 04	 mov	 ecx, DWORD PTR [ecx+4]
  00008	8b 51 04	 mov	 edx, DWORD PTR [ecx+4]
  0000b	8d 04 40	 lea	 eax, DWORD PTR [eax+eax*2]
  0000e	0f bf 44 42 04	 movsx	 eax, WORD PTR [edx+eax*2+4]

; 258  : }

  00013	c2 04 00	 ret	 4
?FrrRY@C_ANI_OBJECT@@QBEHH@Z ENDP			; C_ANI_OBJECT::FrrRY
_TEXT	ENDS
PUBLIC	?FrrSize@C_ANI_OBJECT@@QBEHXZ			; C_ANI_OBJECT::FrrSize
; Function compile flags: /Ogty
;	COMDAT ?FrrSize@C_ANI_OBJECT@@QBEHXZ
_TEXT	SEGMENT
?FrrSize@C_ANI_OBJECT@@QBEHXZ PROC NEAR			; C_ANI_OBJECT::FrrSize, COMDAT
; _this$ = ecx

; 266  : 	return m_pC_frr->Size();

  00000	8b 41 04	 mov	 eax, DWORD PTR [ecx+4]
  00003	0f b7 00	 movzx	 eax, WORD PTR [eax]

; 267  : }

  00006	c3		 ret	 0
?FrrSize@C_ANI_OBJECT@@QBEHXZ ENDP			; C_ANI_OBJECT::FrrSize
_TEXT	ENDS
PUBLIC	?PlayBack@C_ANIMATION@@QAEXXZ			; C_ANIMATION::PlayBack
; Function compile flags: /Ogty
;	COMDAT ?PlayBack@C_ANIMATION@@QAEXXZ
_TEXT	SEGMENT
?PlayBack@C_ANIMATION@@QAEXXZ PROC NEAR			; C_ANIMATION::PlayBack, COMDAT
; _this$ = ecx

; 531  : {

  00000	56		 push	 esi
  00001	8b f1		 mov	 esi, ecx

; 532  : 	// refresh timer
; 533  : 	m_dw_prev_tickcount = GetTickCount();

  00003	ff 15 00 00 00
	00		 call	 DWORD PTR __imp__GetTickCount@0
  00009	89 46 04	 mov	 DWORD PTR [esi+4], eax

; 534  : 
; 535  : 	m_play_order = PLAY_BACK;
; 536  : 	m_current_frame = m_pC_ani_object->FrrSize()-1;

  0000c	8b 06		 mov	 eax, DWORD PTR [esi]
  0000e	c7 46 1c 03 00
	00 00		 mov	 DWORD PTR [esi+28], 3
  00015	8b 48 04	 mov	 ecx, DWORD PTR [eax+4]
  00018	0f b7 11	 movzx	 edx, WORD PTR [ecx]
  0001b	4a		 dec	 edx
  0001c	89 56 0c	 mov	 DWORD PTR [esi+12], edx
  0001f	5e		 pop	 esi

; 537  : }

  00020	c3		 ret	 0
?PlayBack@C_ANIMATION@@QAEXXZ ENDP			; C_ANIMATION::PlayBack
_TEXT	ENDS
PUBLIC	??1C_FRR@@QAE@XZ				; C_FRR::~C_FRR
; Function compile flags: /Ogty
;	COMDAT ??1C_FRR@@QAE@XZ
_TEXT	SEGMENT
??1C_FRR@@QAE@XZ PROC NEAR				; C_FRR::~C_FRR, COMDAT
; _this$ = ecx

; 606  : {

  00000	56		 push	 esi
  00001	8b f1		 mov	 esi, ecx

; 607  : 	m_C_frame_array.Release();

  00003	8b 46 04	 mov	 eax, DWORD PTR [esi+4]
  00006	85 c0		 test	 eax, eax
  00008	74 15		 je	 SHORT $L94254
  0000a	50		 push	 eax
  0000b	e8 00 00 00 00	 call	 ??_V@YAXPAX@Z		; operator delete[]
  00010	83 c4 04	 add	 esp, 4
  00013	c7 46 04 00 00
	00 00		 mov	 DWORD PTR [esi+4], 0
  0001a	66 c7 06 00 00	 mov	 WORD PTR [esi], 0
$L94254:

; 608  : }

  0001f	8b 46 04	 mov	 eax, DWORD PTR [esi+4]
  00022	85 c0		 test	 eax, eax
  00024	74 15		 je	 SHORT $L94266
  00026	50		 push	 eax
  00027	e8 00 00 00 00	 call	 ??_V@YAXPAX@Z		; operator delete[]
  0002c	83 c4 04	 add	 esp, 4
  0002f	c7 46 04 00 00
	00 00		 mov	 DWORD PTR [esi+4], 0
  00036	66 c7 06 00 00	 mov	 WORD PTR [esi], 0
$L94266:
  0003b	5e		 pop	 esi
  0003c	c3		 ret	 0
??1C_FRR@@QAE@XZ ENDP					; C_FRR::~C_FRR
_TEXT	ENDS
PUBLIC	?setstate@?$basic_ios@DV?$char_traits@D@_STL@@@_STL@@QAEXH@Z ; _STL::basic_ios<char,_STL::char_traits<char> >::setstate
; Function compile flags: /Ogty
; File c:\stlport-4.6.1\stlport\stl\_ios.h
;	COMDAT ?setstate@?$basic_ios@DV?$char_traits@D@_STL@@@_STL@@QAEXH@Z
_TEXT	SEGMENT
___state$ = 8						; size = 4
?setstate@?$basic_ios@DV?$char_traits@D@_STL@@@_STL@@QAEXH@Z PROC NEAR ; _STL::basic_ios<char,_STL::char_traits<char> >::setstate, COMDAT
; _this$ = ecx

; 94   :   void setstate(iostate __state) { this->clear(rdstate() | __state); }

  00000	8b 54 24 04	 mov	 edx, DWORD PTR ___state$[esp-4]
  00004	8b 41 08	 mov	 eax, DWORD PTR [ecx+8]
  00007	0b c2		 or	 eax, edx
  00009	8b 51 58	 mov	 edx, DWORD PTR [ecx+88]
  0000c	85 d2		 test	 edx, edx
  0000e	75 03		 jne	 SHORT $L94292
  00010	83 c8 01	 or	 eax, 1
$L94292:
  00013	85 41 14	 test	 DWORD PTR [ecx+20], eax
  00016	89 41 08	 mov	 DWORD PTR [ecx+8], eax
  00019	74 05		 je	 SHORT $L94299
  0001b	e8 00 00 00 00	 call	 ?_M_throw_failure@ios_base@_STL@@IAEXXZ ; _STL::ios_base::_M_throw_failure
$L94299:
  00020	c2 04 00	 ret	 4
?setstate@?$basic_ios@DV?$char_traits@D@_STL@@@_STL@@QAEXH@Z ENDP ; _STL::basic_ios<char,_STL::char_traits<char> >::setstate
_TEXT	ENDS
PUBLIC	?_M_deallocate_block@?$_String_base@DV?$allocator@D@_STL@@@_STL@@QAEXXZ ; _STL::_String_base<char,_STL::allocator<char> >::_M_deallocate_block
; Function compile flags: /Ogty
; File c:\stlport-4.6.1\stlport\stl\_string.h
;	COMDAT ?_M_deallocate_block@?$_String_base@DV?$allocator@D@_STL@@@_STL@@QAEXXZ
_TEXT	SEGMENT
?_M_deallocate_block@?$_String_base@DV?$allocator@D@_STL@@@_STL@@QAEXXZ PROC NEAR ; _STL::_String_base<char,_STL::allocator<char> >::_M_deallocate_block, COMDAT
; _this$ = ecx

; 124  :     { _M_end_of_storage.deallocate(_M_start, _M_end_of_storage._M_data - _M_start); }

  00000	8b 11		 mov	 edx, DWORD PTR [ecx]
  00002	8b 41 08	 mov	 eax, DWORD PTR [ecx+8]
  00005	2b c2		 sub	 eax, edx
  00007	85 d2		 test	 edx, edx
  00009	74 1b		 je	 SHORT $L94322
  0000b	3d 80 00 00 00	 cmp	 eax, 128		; 00000080H
  00010	76 0a		 jbe	 SHORT $L94321
  00012	52		 push	 edx
  00013	e8 00 00 00 00	 call	 ??3@YAXPAX@Z		; operator delete
  00018	83 c4 04	 add	 esp, 4
  0001b	c3		 ret	 0
$L94321:
  0001c	50		 push	 eax
  0001d	52		 push	 edx
  0001e	e8 00 00 00 00	 call	 ?_M_deallocate@?$__node_alloc@$00$0A@@_STL@@CAXPAXI@Z ; _STL::__node_alloc<1,0>::_M_deallocate
  00023	83 c4 08	 add	 esp, 8
$L94322:
  00026	c3		 ret	 0
?_M_deallocate_block@?$_String_base@DV?$allocator@D@_STL@@@_STL@@QAEXXZ ENDP ; _STL::_String_base<char,_STL::allocator<char> >::_M_deallocate_block
_TEXT	ENDS
PUBLIC	??_R4?$basic_filebuf@DV?$char_traits@D@_STL@@@_STL@@6B@ ; _STL::basic_filebuf<char,_STL::char_traits<char> >::`RTTI Complete Object Locator'
PUBLIC	??_R0?AV?$basic_filebuf@DV?$char_traits@D@_STL@@@_STL@@@8 ; _STL::basic_filebuf<char,_STL::char_traits<char> > `RTTI Type Descriptor'
PUBLIC	??_R3?$basic_filebuf@DV?$char_traits@D@_STL@@@_STL@@8 ; _STL::basic_filebuf<char,_STL::char_traits<char> >::`RTTI Class Hierarchy Descriptor'
PUBLIC	??_R2?$basic_filebuf@DV?$char_traits@D@_STL@@@_STL@@8 ; _STL::basic_filebuf<char,_STL::char_traits<char> >::`RTTI Base Class Array'
PUBLIC	??_R1A@?0A@A@?$basic_filebuf@DV?$char_traits@D@_STL@@@_STL@@8 ; _STL::basic_filebuf<char,_STL::char_traits<char> >::`RTTI Base Class Descriptor at (0,-1,0,0)'
PUBLIC	??1?$basic_filebuf@DV?$char_traits@D@_STL@@@_STL@@UAE@XZ ; _STL::basic_filebuf<char,_STL::char_traits<char> >::~basic_filebuf<char,_STL::char_traits<char> >
PUBLIC	?showmanyc@?$basic_filebuf@DV?$char_traits@D@_STL@@@_STL@@MAEHXZ ; _STL::basic_filebuf<char,_STL::char_traits<char> >::showmanyc
PUBLIC	?underflow@?$basic_filebuf@DV?$char_traits@D@_STL@@@_STL@@MAEHXZ ; _STL::basic_filebuf<char,_STL::char_traits<char> >::underflow
PUBLIC	?pbackfail@?$basic_filebuf@DV?$char_traits@D@_STL@@@_STL@@MAEHH@Z ; _STL::basic_filebuf<char,_STL::char_traits<char> >::pbackfail
PUBLIC	?overflow@?$basic_filebuf@DV?$char_traits@D@_STL@@@_STL@@MAEHH@Z ; _STL::basic_filebuf<char,_STL::char_traits<char> >::overflow
PUBLIC	?setbuf@?$basic_filebuf@DV?$char_traits@D@_STL@@@_STL@@MAEPAV?$basic_streambuf@DV?$char_traits@D@_STL@@@2@PADH@Z ; _STL::basic_filebuf<char,_STL::char_traits<char> >::setbuf
PUBLIC	?seekoff@?$basic_filebuf@DV?$char_traits@D@_STL@@@_STL@@MAE?AV?$fpos@H@2@JHH@Z ; _STL::basic_filebuf<char,_STL::char_traits<char> >::seekoff
PUBLIC	?seekpos@?$basic_filebuf@DV?$char_traits@D@_STL@@@_STL@@MAE?AV?$fpos@H@2@V32@H@Z ; _STL::basic_filebuf<char,_STL::char_traits<char> >::seekpos
PUBLIC	?sync@?$basic_filebuf@DV?$char_traits@D@_STL@@@_STL@@MAEHXZ ; _STL::basic_filebuf<char,_STL::char_traits<char> >::sync
PUBLIC	?imbue@?$basic_filebuf@DV?$char_traits@D@_STL@@@_STL@@MAEXABVlocale@2@@Z ; _STL::basic_filebuf<char,_STL::char_traits<char> >::imbue
PUBLIC	??_7?$basic_filebuf@DV?$char_traits@D@_STL@@@_STL@@6B@ ; _STL::basic_filebuf<char,_STL::char_traits<char> >::`vftable'
PUBLIC	??_G?$basic_filebuf@DV?$char_traits@D@_STL@@@_STL@@UAEPAXI@Z ; _STL::basic_filebuf<char,_STL::char_traits<char> >::`scalar deleting destructor'
EXTRN	??_E?$basic_filebuf@DV?$char_traits@D@_STL@@@_STL@@UAEPAXI@Z:NEAR ; _STL::basic_filebuf<char,_STL::char_traits<char> >::`vector deleting destructor'
;	COMDAT xdata$x
; File c:\stlport-4.6.1\stlport\stl\_fstream.c
xdata$x	SEGMENT
$T94338	DD	0ffffffffH
	DD	FLAT:$L94330
$T94336	DD	019930520H
	DD	01H
	DD	FLAT:$T94338
	DD	2 DUP(00H)
	DD	2 DUP(00H)
xdata$x	ENDS
;	COMDAT ??_7?$basic_filebuf@DV?$char_traits@D@_STL@@@_STL@@6B@
CONST	SEGMENT
??_7?$basic_filebuf@DV?$char_traits@D@_STL@@@_STL@@6B@ DD FLAT:??_R4?$basic_filebuf@DV?$char_traits@D@_STL@@@_STL@@6B@ ; _STL::basic_filebuf<char,_STL::char_traits<char> >::`vftable'
	DD	FLAT:??_E?$basic_filebuf@DV?$char_traits@D@_STL@@@_STL@@UAEPAXI@Z
	DD	FLAT:?setbuf@?$basic_filebuf@DV?$char_traits@D@_STL@@@_STL@@MAEPAV?$basic_streambuf@DV?$char_traits@D@_STL@@@2@PADH@Z
	DD	FLAT:?seekoff@?$basic_filebuf@DV?$char_traits@D@_STL@@@_STL@@MAE?AV?$fpos@H@2@JHH@Z
	DD	FLAT:?seekpos@?$basic_filebuf@DV?$char_traits@D@_STL@@@_STL@@MAE?AV?$fpos@H@2@V32@H@Z
	DD	FLAT:?sync@?$basic_filebuf@DV?$char_traits@D@_STL@@@_STL@@MAEHXZ
	DD	FLAT:?showmanyc@?$basic_filebuf@DV?$char_traits@D@_STL@@@_STL@@MAEHXZ
	DD	FLAT:?xsgetn@?$basic_streambuf@DV?$char_traits@D@_STL@@@_STL@@MAEHPADH@Z
	DD	FLAT:?underflow@?$basic_filebuf@DV?$char_traits@D@_STL@@@_STL@@MAEHXZ
	DD	FLAT:?uflow@?$basic_streambuf@DV?$char_traits@D@_STL@@@_STL@@MAEHXZ
	DD	FLAT:?pbackfail@?$basic_filebuf@DV?$char_traits@D@_STL@@@_STL@@MAEHH@Z
	DD	FLAT:?xsputn@?$basic_streambuf@DV?$char_traits@D@_STL@@@_STL@@MAEHPBDH@Z
	DD	FLAT:?_M_xsputnc@?$basic_streambuf@DV?$char_traits@D@_STL@@@_STL@@MAEHDH@Z
	DD	FLAT:?overflow@?$basic_filebuf@DV?$char_traits@D@_STL@@@_STL@@MAEHH@Z
	DD	FLAT:?imbue@?$basic_filebuf@DV?$char_traits@D@_STL@@@_STL@@MAEXABVlocale@2@@Z
CONST	ENDS
;	COMDAT ??_R4?$basic_filebuf@DV?$char_traits@D@_STL@@@_STL@@6B@
rdata$r	SEGMENT
??_R4?$basic_filebuf@DV?$char_traits@D@_STL@@@_STL@@6B@ DD 00H ; _STL::basic_filebuf<char,_STL::char_traits<char> >::`RTTI Complete Object Locator'
	DD	00H
	DD	00H
	DD	FLAT:??_R0?AV?$basic_filebuf@DV?$char_traits@D@_STL@@@_STL@@@8
	DD	FLAT:??_R3?$basic_filebuf@DV?$char_traits@D@_STL@@@_STL@@8
rdata$r	ENDS
;	COMDAT ??_R0?AV?$basic_filebuf@DV?$char_traits@D@_STL@@@_STL@@@8
_DATA	SEGMENT
??_R0?AV?$basic_filebuf@DV?$char_traits@D@_STL@@@_STL@@@8 DD FLAT:??_7type_info@@6B@ ; _STL::basic_filebuf<char,_STL::char_traits<char> > `RTTI Type Descriptor'
	DD	00H
	DB	'.?AV?$basic_filebuf@DV?$char_traits@D@_STL@@@_STL@@', 00H
_DATA	ENDS
;	COMDAT ??_R3?$basic_filebuf@DV?$char_traits@D@_STL@@@_STL@@8
rdata$r	SEGMENT
??_R3?$basic_filebuf@DV?$char_traits@D@_STL@@@_STL@@8 DD 00H ; _STL::basic_filebuf<char,_STL::char_traits<char> >::`RTTI Class Hierarchy Descriptor'
	DD	00H
	DD	02H
	DD	FLAT:??_R2?$basic_filebuf@DV?$char_traits@D@_STL@@@_STL@@8
rdata$r	ENDS
;	COMDAT ??_R2?$basic_filebuf@DV?$char_traits@D@_STL@@@_STL@@8
rdata$r	SEGMENT
??_R2?$basic_filebuf@DV?$char_traits@D@_STL@@@_STL@@8 DD FLAT:??_R1A@?0A@A@?$basic_filebuf@DV?$char_traits@D@_STL@@@_STL@@8 ; _STL::basic_filebuf<char,_STL::char_traits<char> >::`RTTI Base Class Array'
	DD	FLAT:??_R1A@?0A@A@?$basic_streambuf@DV?$char_traits@D@_STL@@@_STL@@8
rdata$r	ENDS
;	COMDAT ??_R1A@?0A@A@?$basic_filebuf@DV?$char_traits@D@_STL@@@_STL@@8
rdata$r	SEGMENT
??_R1A@?0A@A@?$basic_filebuf@DV?$char_traits@D@_STL@@@_STL@@8 DD FLAT:??_R0?AV?$basic_filebuf@DV?$char_traits@D@_STL@@@_STL@@@8 ; _STL::basic_filebuf<char,_STL::char_traits<char> >::`RTTI Base Class Descriptor at (0,-1,0,0)'
	DD	01H
	DD	00H
	DD	0ffffffffH
	DD	00H
	DD	00H
; Function compile flags: /Ogty
rdata$r	ENDS
;	COMDAT ??1?$basic_filebuf@DV?$char_traits@D@_STL@@@_STL@@UAE@XZ
_TEXT	SEGMENT
_this$ = -16						; size = 4
__$EHRec$ = -12						; size = 12
??1?$basic_filebuf@DV?$char_traits@D@_STL@@@_STL@@UAE@XZ PROC NEAR ; _STL::basic_filebuf<char,_STL::char_traits<char> >::~basic_filebuf<char,_STL::char_traits<char> >, COMDAT
; _this$ = ecx

; 65   : basic_filebuf<_CharT, _Traits>::~basic_filebuf() {

  00000	6a ff		 push	 -1
  00002	68 00 00 00 00	 push	 __ehhandler$??1?$basic_filebuf@DV?$char_traits@D@_STL@@@_STL@@UAE@XZ
  00007	64 a1 00 00 00
	00		 mov	 eax, DWORD PTR fs:__except_list
  0000d	50		 push	 eax
  0000e	64 89 25 00 00
	00 00		 mov	 DWORD PTR fs:__except_list, esp
  00015	51		 push	 ecx
  00016	53		 push	 ebx
  00017	56		 push	 esi
  00018	8b f1		 mov	 esi, ecx
  0001a	89 74 24 08	 mov	 DWORD PTR _this$[esp+24], esi
  0001e	c7 06 00 00 00
	00		 mov	 DWORD PTR [esi], OFFSET FLAT:??_7?$basic_filebuf@DV?$char_traits@D@_STL@@@_STL@@6B@
  00024	33 db		 xor	 ebx, ebx
  00026	89 5c 24 14	 mov	 DWORD PTR __$EHRec$[esp+32], ebx

; 66   :   this->close();

  0002a	e8 00 00 00 00	 call	 ?close@?$basic_filebuf@DV?$char_traits@D@_STL@@@_STL@@QAEPAV12@XZ ; _STL::basic_filebuf<char,_STL::char_traits<char> >::close

; 67   :   _M_deallocate_buffers();

  0002f	38 5e 66	 cmp	 BYTE PTR [esi+102], bl
  00032	74 0c		 je	 SHORT $L94334
  00034	8b 46 6c	 mov	 eax, DWORD PTR [esi+108]
  00037	50		 push	 eax
  00038	e8 00 00 00 00	 call	 _free
  0003d	83 c4 04	 add	 esp, 4
$L94334:
  00040	8b 4e 74	 mov	 ecx, DWORD PTR [esi+116]
  00043	51		 push	 ecx
  00044	e8 00 00 00 00	 call	 _free
  00049	83 c4 04	 add	 esp, 4

; 68   : }

  0004c	8b ce		 mov	 ecx, esi
  0004e	89 5e 6c	 mov	 DWORD PTR [esi+108], ebx
  00051	89 5e 70	 mov	 DWORD PTR [esi+112], ebx
  00054	89 5e 74	 mov	 DWORD PTR [esi+116], ebx
  00057	89 5e 78	 mov	 DWORD PTR [esi+120], ebx
  0005a	c7 44 24 14 ff
	ff ff ff	 mov	 DWORD PTR __$EHRec$[esp+32], -1
  00062	e8 00 00 00 00	 call	 ??1?$basic_streambuf@DV?$char_traits@D@_STL@@@_STL@@UAE@XZ ; _STL::basic_streambuf<char,_STL::char_traits<char> >::~basic_streambuf<char,_STL::char_traits<char> >
  00067	8b 4c 24 0c	 mov	 ecx, DWORD PTR __$EHRec$[esp+24]
  0006b	5e		 pop	 esi
  0006c	5b		 pop	 ebx
  0006d	64 89 0d 00 00
	00 00		 mov	 DWORD PTR fs:__except_list, ecx
  00074	83 c4 10	 add	 esp, 16			; 00000010H
  00077	c3		 ret	 0
_TEXT	ENDS
;	COMDAT text$x
text$x	SEGMENT
$L94330:
  00000	8b 4d f0	 mov	 ecx, DWORD PTR _this$[ebp]
  00003	e9 00 00 00 00	 jmp	 ??1?$basic_streambuf@DV?$char_traits@D@_STL@@@_STL@@UAE@XZ ; _STL::basic_streambuf<char,_STL::char_traits<char> >::~basic_streambuf<char,_STL::char_traits<char> >
__ehhandler$??1?$basic_filebuf@DV?$char_traits@D@_STL@@@_STL@@UAE@XZ:
  00008	b8 00 00 00 00	 mov	 eax, OFFSET FLAT:$T94336
  0000d	e9 00 00 00 00	 jmp	 ___CxxFrameHandler
text$x	ENDS
??1?$basic_filebuf@DV?$char_traits@D@_STL@@@_STL@@UAE@XZ ENDP ; _STL::basic_filebuf<char,_STL::char_traits<char> >::~basic_filebuf<char,_STL::char_traits<char> >
EXTRN	?_M_seek@_Filebuf_base@_STL@@QAEJJH@Z:NEAR	; _STL::_Filebuf_base::_M_seek
EXTRN	?_M_file_size@_Filebuf_base@_STL@@QAEJXZ:NEAR	; _STL::_Filebuf_base::_M_file_size
; Function compile flags: /Ogty
;	COMDAT ?showmanyc@?$basic_filebuf@DV?$char_traits@D@_STL@@@_STL@@MAEHXZ
_TEXT	SEGMENT
?showmanyc@?$basic_filebuf@DV?$char_traits@D@_STL@@@_STL@@MAEHXZ PROC NEAR ; _STL::basic_filebuf<char,_STL::char_traits<char> >::showmanyc, COMDAT
; _this$ = ecx

; 133  :   // Is there any possibility that reads can succeed?
; 134  :   if (!this->is_open() || _M_in_output_mode || _M_in_error_mode)

  00000	8a 41 60	 mov	 al, BYTE PTR [ecx+96]
  00003	84 c0		 test	 al, al
  00005	74 5b		 je	 SHORT $L73521
  00007	8a 41 68	 mov	 al, BYTE PTR [ecx+104]
  0000a	84 c0		 test	 al, al
  0000c	75 54		 jne	 SHORT $L73521
  0000e	8a 41 69	 mov	 al, BYTE PTR [ecx+105]
  00011	84 c0		 test	 al, al
  00013	75 4d		 jne	 SHORT $L73521

; 136  : 
; 137  :   else if (_M_in_putback_mode)

  00015	8a 41 6a	 mov	 al, BYTE PTR [ecx+106]
  00018	84 c0		 test	 al, al
  0001a	56		 push	 esi
  0001b	74 10		 je	 SHORT $L73523

; 138  :     return this->egptr() - this->gptr();

  0001d	8b 49 04	 mov	 ecx, DWORD PTR [ecx+4]
  00020	8b 31		 mov	 esi, DWORD PTR [ecx]
  00022	8b 41 04	 mov	 eax, DWORD PTR [ecx+4]
  00025	2b c6		 sub	 eax, esi
  00027	8b d6		 mov	 edx, esi
  00029	03 c2		 add	 eax, edx
  0002b	5e		 pop	 esi

; 148  : }

  0002c	c3		 ret	 0
$L73523:

; 139  : 
; 140  :   else if (_M_constant_width) {

  0002d	8a 41 64	 mov	 al, BYTE PTR [ecx+100]
  00030	84 c0		 test	 al, al
  00032	74 2a		 je	 SHORT $L73525
  00034	57		 push	 edi

; 141  :     streamoff __pos  = _M_base._M_seek(0, ios_base::cur);

  00035	8d 71 54	 lea	 esi, DWORD PTR [ecx+84]
  00038	6a 02		 push	 2
  0003a	6a 00		 push	 0
  0003c	8b ce		 mov	 ecx, esi
  0003e	e8 00 00 00 00	 call	 ?_M_seek@_Filebuf_base@_STL@@QAEJJH@Z ; _STL::_Filebuf_base::_M_seek

; 142  :     streamoff __size = _M_base._M_file_size();

  00043	8b ce		 mov	 ecx, esi
  00045	8b f8		 mov	 edi, eax
  00047	e8 00 00 00 00	 call	 ?_M_file_size@_Filebuf_base@_STL@@QAEJXZ ; _STL::_Filebuf_base::_M_file_size

; 143  :     return __pos >= 0 && __size > __pos ? __size - __pos : 0;

  0004c	85 ff		 test	 edi, edi
  0004e	7c 09		 jl	 SHORT $L94344
  00050	3b c7		 cmp	 eax, edi
  00052	7e 05		 jle	 SHORT $L94344
  00054	2b c7		 sub	 eax, edi
  00056	5f		 pop	 edi
  00057	5e		 pop	 esi

; 148  : }

  00058	c3		 ret	 0
$L94344:
  00059	5f		 pop	 edi

; 143  :     return __pos >= 0 && __size > __pos ? __size - __pos : 0;

  0005a	33 c0		 xor	 eax, eax
  0005c	5e		 pop	 esi

; 148  : }

  0005d	c3		 ret	 0
$L73525:

; 144  :   }
; 145  : 
; 146  :   else 
; 147  :     return 0;

  0005e	33 c0		 xor	 eax, eax
  00060	5e		 pop	 esi

; 148  : }

  00061	c3		 ret	 0
$L73521:

; 135  :     return -1;

  00062	83 c8 ff	 or	 eax, -1

; 148  : }

  00065	c3		 ret	 0
?showmanyc@?$basic_filebuf@DV?$char_traits@D@_STL@@@_STL@@MAEHXZ ENDP ; _STL::basic_filebuf<char,_STL::char_traits<char> >::showmanyc
_TEXT	ENDS
EXTRN	?_M_doit@?$_Underflow@DV?$char_traits@D@_STL@@@_STL@@SAHPAV?$basic_filebuf@DV?$char_traits@D@_STL@@@2@@Z:NEAR ; _STL::_Underflow<char,_STL::char_traits<char> >::_M_doit
; Function compile flags: /Ogty
;	COMDAT ?underflow@?$basic_filebuf@DV?$char_traits@D@_STL@@@_STL@@MAEHXZ
_TEXT	SEGMENT
?underflow@?$basic_filebuf@DV?$char_traits@D@_STL@@@_STL@@MAEHXZ PROC NEAR ; _STL::basic_filebuf<char,_STL::char_traits<char> >::underflow, COMDAT
; _this$ = ecx

; 75   :   return _Underflow<_CharT, _Traits>::_M_doit(this);

  00000	51		 push	 ecx
  00001	e8 00 00 00 00	 call	 ?_M_doit@?$_Underflow@DV?$char_traits@D@_STL@@@_STL@@SAHPAV?$basic_filebuf@DV?$char_traits@D@_STL@@@2@@Z ; _STL::_Underflow<char,_STL::char_traits<char> >::_M_doit
  00006	83 c4 04	 add	 esp, 4

; 76   : }

  00009	c3		 ret	 0
?underflow@?$basic_filebuf@DV?$char_traits@D@_STL@@@_STL@@MAEHXZ ENDP ; _STL::basic_filebuf<char,_STL::char_traits<char> >::underflow
; Function compile flags: /Ogty
_TEXT	ENDS
;	COMDAT ?pbackfail@?$basic_filebuf@DV?$char_traits@D@_STL@@@_STL@@MAEHH@Z
_TEXT	SEGMENT
___c$ = 8						; size = 4
?pbackfail@?$basic_filebuf@DV?$char_traits@D@_STL@@@_STL@@MAEHH@Z PROC NEAR ; _STL::basic_filebuf<char,_STL::char_traits<char> >::pbackfail, COMDAT
; _this$ = ecx

; 162  :   const int_type __eof = traits_type::eof();
; 163  : 
; 164  :   // If we aren't already in input mode, pushback is impossible.
; 165  :   if (!_M_in_input_mode)

  00000	8a 41 67	 mov	 al, BYTE PTR [ecx+103]
  00003	84 c0		 test	 al, al
  00005	75 08		 jne	 SHORT $L73541

; 166  :     return __eof;

  00007	b8 ff ff ff ff	 mov	 eax, -1

; 202  :   return __c;
; 203  : }

  0000c	c2 04 00	 ret	 4
$L73541:

; 167  : 
; 168  :   // We can use the ordinary get buffer if there's enough space, and
; 169  :   // if it's a buffer that we're allowed to write to.
; 170  :   if (this->gptr() != this->eback() &&
; 171  :       (traits_type::eq_int_type(__c, __eof) ||
; 172  :        traits_type::eq(traits_type::to_char_type(__c), this->gptr()[-1]) ||
; 173  :        !_M_mmap_base)) {

  0000f	8b 51 04	 mov	 edx, DWORD PTR [ecx+4]
  00012	8b 44 24 04	 mov	 eax, DWORD PTR ___c$[esp-4]
  00016	53		 push	 ebx
  00017	55		 push	 ebp
  00018	56		 push	 esi
  00019	8b 32		 mov	 esi, DWORD PTR [edx]
  0001b	57		 push	 edi
  0001c	8b 7a 08	 mov	 edi, DWORD PTR [edx+8]
  0001f	3b f7		 cmp	 esi, edi
  00021	74 3d		 je	 SHORT $L73543
  00023	83 f8 ff	 cmp	 eax, -1
  00026	74 0f		 je	 SHORT $L73544
  00028	3a 46 ff	 cmp	 al, BYTE PTR [esi-1]
  0002b	74 0a		 je	 SHORT $L73544
  0002d	8b b1 8c 00 00
	00		 mov	 esi, DWORD PTR [ecx+140]
  00033	85 f6		 test	 esi, esi
  00035	75 29		 jne	 SHORT $L73543
$L73544:

; 174  :     this->gbump(-1);

  00037	8b 3a		 mov	 edi, DWORD PTR [edx]
  00039	8b 72 04	 mov	 esi, DWORD PTR [edx+4]
  0003c	4f		 dec	 edi
  0003d	46		 inc	 esi

; 175  :     if (traits_type::eq_int_type(__c, __eof) ||
; 176  :         traits_type::eq(traits_type::to_char_type(__c), *this->gptr()))

  0003e	83 f8 ff	 cmp	 eax, -1
  00041	89 3a		 mov	 DWORD PTR [edx], edi
  00043	89 72 04	 mov	 DWORD PTR [edx+4], esi
  00046	74 09		 je	 SHORT $L73547
  00048	8b 51 04	 mov	 edx, DWORD PTR [ecx+4]
  0004b	8b 12		 mov	 edx, DWORD PTR [edx]
  0004d	3a 02		 cmp	 al, BYTE PTR [edx]
  0004f	75 7f		 jne	 SHORT $L73555
$L73547:

; 177  :       return traits_type::to_int_type(*this->gptr());

  00051	8b 41 04	 mov	 eax, DWORD PTR [ecx+4]
  00054	8b 08		 mov	 ecx, DWORD PTR [eax]
  00056	0f b6 01	 movzx	 eax, BYTE PTR [ecx]
  00059	5f		 pop	 edi
  0005a	5e		 pop	 esi
  0005b	5d		 pop	 ebp
  0005c	5b		 pop	 ebx

; 202  :   return __c;
; 203  : }

  0005d	c2 04 00	 ret	 4
$L73543:

; 178  :   }
; 179  :   else if (!traits_type::eq_int_type(__c, __eof)) {

  00060	83 f8 ff	 cmp	 eax, -1
  00063	74 79		 je	 SHORT $L73549

; 180  :     // Are we in the putback buffer already?
; 181  :     _CharT* __pback_end = _M_pback_buf + __STATIC_CAST(int,_S_pback_buf_size);
; 182  :     if (_M_in_putback_mode) {

  00065	8a 59 6a	 mov	 bl, BYTE PTR [ecx+106]
  00068	84 db		 test	 bl, bl
  0006a	8d b1 b4 00 00
	00		 lea	 esi, DWORD PTR [ecx+180]
  00070	74 34		 je	 SHORT $L73552

; 183  :       // Do we have more room in the putback buffer?
; 184  :       if (this->eback() != _M_pback_buf) 

  00072	8d 99 ac 00 00
	00		 lea	 ebx, DWORD PTR [ecx+172]
  00078	3b fb		 cmp	 edi, ebx
  0007a	74 62		 je	 SHORT $L73549

; 185  :         this->setg(this->egptr() - 1, this->egptr() - 1, __pback_end);

  0007c	8b 1a		 mov	 ebx, DWORD PTR [edx]
  0007e	8b 7a 04	 mov	 edi, DWORD PTR [edx+4]
  00081	8b 2a		 mov	 ebp, DWORD PTR [edx]
  00083	8d 7c 1f ff	 lea	 edi, DWORD PTR [edi+ebx-1]
  00087	8b 5a 04	 mov	 ebx, DWORD PTR [edx+4]
  0008a	89 3a		 mov	 DWORD PTR [edx], edi
  0008c	8d 5c 2b ff	 lea	 ebx, DWORD PTR [ebx+ebp-1]
  00090	2b f7		 sub	 esi, edi
  00092	89 5a 08	 mov	 DWORD PTR [edx+8], ebx
  00095	89 72 04	 mov	 DWORD PTR [edx+4], esi

; 199  : 
; 200  :   // We have made a putback position available.  Assign to it, and return.
; 201  :   *this->gptr() = traits_type::to_char_type(__c);

  00098	8b 51 04	 mov	 edx, DWORD PTR [ecx+4]
  0009b	8b 0a		 mov	 ecx, DWORD PTR [edx]
  0009d	5f		 pop	 edi
  0009e	5e		 pop	 esi
  0009f	5d		 pop	 ebp
  000a0	88 01		 mov	 BYTE PTR [ecx], al
  000a2	5b		 pop	 ebx

; 202  :   return __c;
; 203  : }

  000a3	c2 04 00	 ret	 4
$L73552:

; 186  :       else
; 187  :         return __eof;           // No more room in the buffer, so fail.
; 188  :     }
; 189  :     else {                      // We're not yet in the putback buffer.
; 190  :       _M_saved_eback = this->eback();

  000a6	89 b9 94 00 00
	00		 mov	 DWORD PTR [ecx+148], edi

; 191  :       _M_saved_gptr  = this->gptr();

  000ac	8b 3a		 mov	 edi, DWORD PTR [edx]
  000ae	89 b9 98 00 00
	00		 mov	 DWORD PTR [ecx+152], edi

; 192  :       _M_saved_egptr = this->egptr();

  000b4	8b 7a 04	 mov	 edi, DWORD PTR [edx+4]
  000b7	03 3a		 add	 edi, DWORD PTR [edx]
  000b9	89 b9 9c 00 00
	00		 mov	 DWORD PTR [ecx+156], edi

; 193  :       this->setg(__pback_end - 1, __pback_end - 1, __pback_end);

  000bf	8d 7e ff	 lea	 edi, DWORD PTR [esi-1]
  000c2	2b f7		 sub	 esi, edi
  000c4	89 7a 08	 mov	 DWORD PTR [edx+8], edi
  000c7	89 3a		 mov	 DWORD PTR [edx], edi
  000c9	89 72 04	 mov	 DWORD PTR [edx+4], esi

; 194  :       _M_in_putback_mode = true;

  000cc	c6 41 6a 01	 mov	 BYTE PTR [ecx+106], 1
$L73555:

; 199  : 
; 200  :   // We have made a putback position available.  Assign to it, and return.
; 201  :   *this->gptr() = traits_type::to_char_type(__c);

  000d0	8b 51 04	 mov	 edx, DWORD PTR [ecx+4]
  000d3	8b 0a		 mov	 ecx, DWORD PTR [edx]
  000d5	5f		 pop	 edi
  000d6	5e		 pop	 esi
  000d7	5d		 pop	 ebp
  000d8	88 01		 mov	 BYTE PTR [ecx], al
  000da	5b		 pop	 ebx

; 202  :   return __c;
; 203  : }

  000db	c2 04 00	 ret	 4
$L73549:
  000de	5f		 pop	 edi
  000df	5e		 pop	 esi
  000e0	5d		 pop	 ebp

; 195  :     }
; 196  :   }
; 197  :   else
; 198  :     return __eof;

  000e1	83 c8 ff	 or	 eax, -1
  000e4	5b		 pop	 ebx

; 202  :   return __c;
; 203  : }

  000e5	c2 04 00	 ret	 4
?pbackfail@?$basic_filebuf@DV?$char_traits@D@_STL@@@_STL@@MAEHH@Z ENDP ; _STL::basic_filebuf<char,_STL::char_traits<char> >::pbackfail
; Function compile flags: /Ogty
_TEXT	ENDS
;	COMDAT ?sync@?$basic_filebuf@DV?$char_traits@D@_STL@@@_STL@@MAEHXZ
_TEXT	SEGMENT
?sync@?$basic_filebuf@DV?$char_traits@D@_STL@@@_STL@@MAEHXZ PROC NEAR ; _STL::basic_filebuf<char,_STL::char_traits<char> >::sync, COMDAT
; _this$ = ecx

; 414  :   if (_M_in_output_mode)

  00000	8a 41 68	 mov	 al, BYTE PTR [ecx+104]
  00003	84 c0		 test	 al, al
  00005	74 13		 je	 SHORT $L73729

; 415  :     return traits_type::eq_int_type(this->overflow(traits_type::eof()),
; 416  :                                     traits_type::eof())
; 417  :       ? -1
; 418  :       : 0;

  00007	8b 01		 mov	 eax, DWORD PTR [ecx]
  00009	6a ff		 push	 -1
  0000b	ff 50 30	 call	 DWORD PTR [eax+48]
  0000e	33 c9		 xor	 ecx, ecx
  00010	83 f8 ff	 cmp	 eax, -1
  00013	0f 95 c1	 setne	 cl
  00016	49		 dec	 ecx
  00017	8b c1		 mov	 eax, ecx

; 421  : }

  00019	c3		 ret	 0
$L73729:

; 419  :   else
; 420  :     return 0;

  0001a	33 c0		 xor	 eax, eax

; 421  : }

  0001c	c3		 ret	 0
?sync@?$basic_filebuf@DV?$char_traits@D@_STL@@@_STL@@MAEHXZ ENDP ; _STL::basic_filebuf<char,_STL::char_traits<char> >::sync
_TEXT	ENDS
PUBLIC	?_M_allocate_buffers@?$basic_filebuf@DV?$char_traits@D@_STL@@@_STL@@AAE_NPADH@Z ; _STL::basic_filebuf<char,_STL::char_traits<char> >::_M_allocate_buffers
; Function compile flags: /Ogty
;	COMDAT ?setbuf@?$basic_filebuf@DV?$char_traits@D@_STL@@@_STL@@MAEPAV?$basic_streambuf@DV?$char_traits@D@_STL@@@2@PADH@Z
_TEXT	SEGMENT
___buf$ = 8						; size = 4
___n$ = 12						; size = 4
?setbuf@?$basic_filebuf@DV?$char_traits@D@_STL@@@_STL@@MAEPAV?$basic_streambuf@DV?$char_traits@D@_STL@@@2@PADH@Z PROC NEAR ; _STL::basic_filebuf<char,_STL::char_traits<char> >::setbuf, COMDAT
; _this$ = ecx

; 273  : {

  00000	56		 push	 esi
  00001	8b f1		 mov	 esi, ecx

; 274  :   if (!_M_in_input_mode &&! _M_in_output_mode && !_M_in_error_mode &&
; 275  :       _M_int_buf == 0) {

  00003	8a 46 67	 mov	 al, BYTE PTR [esi+103]
  00006	84 c0		 test	 al, al
  00008	75 46		 jne	 SHORT $L94646
  0000a	8a 46 68	 mov	 al, BYTE PTR [esi+104]
  0000d	84 c0		 test	 al, al
  0000f	75 3f		 jne	 SHORT $L94646
  00011	8a 46 69	 mov	 al, BYTE PTR [esi+105]
  00014	84 c0		 test	 al, al
  00016	75 38		 jne	 SHORT $L94646
  00018	8b 46 6c	 mov	 eax, DWORD PTR [esi+108]
  0001b	85 c0		 test	 eax, eax
  0001d	75 31		 jne	 SHORT $L94646

; 276  :     if (__buf == 0 && __n == 0)

  0001f	8b 4c 24 08	 mov	 ecx, DWORD PTR ___buf$[esp]
  00023	85 c9		 test	 ecx, ecx
  00025	75 18		 jne	 SHORT $L94640
  00027	8b 44 24 0c	 mov	 eax, DWORD PTR ___n$[esp]
  0002b	85 c0		 test	 eax, eax
  0002d	75 21		 jne	 SHORT $L94646

; 277  :       _M_allocate_buffers(0, 1);

  0002f	6a 01		 push	 1
  00031	51		 push	 ecx

; 279  :       _M_allocate_buffers(__buf, __n);

  00032	8b ce		 mov	 ecx, esi
  00034	e8 00 00 00 00	 call	 ?_M_allocate_buffers@?$basic_filebuf@DV?$char_traits@D@_STL@@@_STL@@AAE_NPADH@Z ; _STL::basic_filebuf<char,_STL::char_traits<char> >::_M_allocate_buffers

; 280  :   }
; 281  :   return this;

  00039	8b c6		 mov	 eax, esi
  0003b	5e		 pop	 esi

; 282  : }

  0003c	c2 08 00	 ret	 8
$L94640:

; 278  :     else if (__buf != 0 && __n > 0)

  0003f	8b 44 24 0c	 mov	 eax, DWORD PTR ___n$[esp]
  00043	85 c0		 test	 eax, eax
  00045	7e 09		 jle	 SHORT $L94646

; 279  :       _M_allocate_buffers(__buf, __n);

  00047	50		 push	 eax
  00048	51		 push	 ecx
  00049	8b ce		 mov	 ecx, esi
  0004b	e8 00 00 00 00	 call	 ?_M_allocate_buffers@?$basic_filebuf@DV?$char_traits@D@_STL@@@_STL@@AAE_NPADH@Z ; _STL::basic_filebuf<char,_STL::char_traits<char> >::_M_allocate_buffers
$L94646:

; 280  :   }
; 281  :   return this;

  00050	8b c6		 mov	 eax, esi
  00052	5e		 pop	 esi

; 282  : }

  00053	c2 08 00	 ret	 8
?setbuf@?$basic_filebuf@DV?$char_traits@D@_STL@@@_STL@@MAEPAV?$basic_streambuf@DV?$char_traits@D@_STL@@@2@PADH@Z ENDP ; _STL::basic_filebuf<char,_STL::char_traits<char> >::setbuf
_TEXT	ENDS
EXTRN	_malloc:NEAR
; Function compile flags: /Ogty
;	COMDAT ?_M_allocate_buffers@?$basic_filebuf@DV?$char_traits@D@_STL@@@_STL@@AAE_NPADH@Z
_TEXT	SEGMENT
$T94651 = -4						; size = 4
$T94653 = 8						; size = 4
$T94652 = 8						; size = 4
___buf$ = 8						; size = 4
$T94654 = 12						; size = 4
___n$ = 12						; size = 4
?_M_allocate_buffers@?$basic_filebuf@DV?$char_traits@D@_STL@@@_STL@@AAE_NPADH@Z PROC NEAR ; _STL::basic_filebuf<char,_STL::char_traits<char> >::_M_allocate_buffers, COMDAT
; _this$ = ecx

; 644  : {

  00000	51		 push	 ecx

; 645  : 
; 646  :   if (__buf == 0) {

  00001	8b 44 24 08	 mov	 eax, DWORD PTR ___buf$[esp]
  00005	53		 push	 ebx
  00006	55		 push	 ebp
  00007	8b 6c 24 14	 mov	 ebp, DWORD PTR ___n$[esp+8]
  0000b	33 db		 xor	 ebx, ebx
  0000d	3b c3		 cmp	 eax, ebx
  0000f	56		 push	 esi
  00010	8b f1		 mov	 esi, ecx
  00012	75 1f		 jne	 SHORT $L89938

; 647  :     _M_int_buf = __STATIC_CAST(_CharT*,malloc(__n * sizeof(_CharT)));

  00014	55		 push	 ebp
  00015	e8 00 00 00 00	 call	 _malloc
  0001a	83 c4 04	 add	 esp, 4

; 648  :     if (! _M_int_buf)

  0001d	3b c3		 cmp	 eax, ebx
  0001f	89 46 6c	 mov	 DWORD PTR [esi+108], eax
  00022	75 09		 jne	 SHORT $L89941
  00024	5e		 pop	 esi
  00025	5d		 pop	 ebp

; 649  :       return false;

  00026	32 c0		 xor	 al, al
  00028	5b		 pop	 ebx

; 669  : }

  00029	59		 pop	 ecx
  0002a	c2 08 00	 ret	 8
$L89941:

; 650  :     _M_int_buf_dynamic = true;

  0002d	c6 46 66 01	 mov	 BYTE PTR [esi+102], 1

; 651  :   }
; 652  :   else {

  00031	eb 06		 jmp	 SHORT $L89942
$L89938:

; 653  :     _M_int_buf = __buf;

  00033	89 46 6c	 mov	 DWORD PTR [esi+108], eax

; 654  :     _M_int_buf_dynamic = false;

  00036	88 5e 66	 mov	 BYTE PTR [esi+102], bl
$L89942:

; 655  :   }
; 656  :   
; 657  :   size_t __ebufsiz = (max)(__n * (max)(_M_codecvt->encoding(), 1),
; 658  :                       streamsize(_M_codecvt->max_length()));

  00039	8b 8e a0 00 00
	00		 mov	 ecx, DWORD PTR [esi+160]
  0003f	8b 01		 mov	 eax, DWORD PTR [ecx]
  00041	57		 push	 edi
  00042	ff 50 1c	 call	 DWORD PTR [eax+28]
  00045	8b 8e a0 00 00
	00		 mov	 ecx, DWORD PTR [esi+160]
  0004b	8b 11		 mov	 edx, DWORD PTR [ecx]
  0004d	8b f8		 mov	 edi, eax
  0004f	89 7c 24 10	 mov	 DWORD PTR $T94651[esp+20], edi
  00053	c7 44 24 18 01
	00 00 00	 mov	 DWORD PTR $T94653[esp+16], 1
  0005b	ff 52 10	 call	 DWORD PTR [edx+16]
  0005e	89 44 24 1c	 mov	 DWORD PTR $T94654[esp+16], eax
  00062	83 f8 01	 cmp	 eax, 1
  00065	8d 44 24 18	 lea	 eax, DWORD PTR $T94653[esp+16]
  00069	7c 04		 jl	 SHORT $L94671
  0006b	8d 44 24 1c	 lea	 eax, DWORD PTR $T94654[esp+16]
$L94671:
  0006f	8b 00		 mov	 eax, DWORD PTR [eax]
  00071	0f af c5	 imul	 eax, ebp
  00074	89 44 24 18	 mov	 DWORD PTR $T94652[esp+16], eax
  00078	3b c7		 cmp	 eax, edi
  0007a	8d 44 24 10	 lea	 eax, DWORD PTR $T94651[esp+20]
  0007e	7c 04		 jl	 SHORT $L94680
  00080	8d 44 24 18	 lea	 eax, DWORD PTR $T94652[esp+16]
$L94680:
  00084	8b 38		 mov	 edi, DWORD PTR [eax]

; 659  : 
; 660  :   _M_ext_buf = __STATIC_CAST(char*,malloc(__ebufsiz));

  00086	57		 push	 edi
  00087	e8 00 00 00 00	 call	 _malloc
  0008c	83 c4 04	 add	 esp, 4

; 661  :   if (!_M_ext_buf) {

  0008f	3b c3		 cmp	 eax, ebx
  00091	89 46 74	 mov	 DWORD PTR [esi+116], eax
  00094	75 33		 jne	 SHORT $L89954

; 662  :     _M_deallocate_buffers();

  00096	38 5e 66	 cmp	 BYTE PTR [esi+102], bl
  00099	74 0c		 je	 SHORT $L94684
  0009b	8b 46 6c	 mov	 eax, DWORD PTR [esi+108]
  0009e	50		 push	 eax
  0009f	e8 00 00 00 00	 call	 _free
  000a4	83 c4 04	 add	 esp, 4
$L94684:
  000a7	8b 4e 74	 mov	 ecx, DWORD PTR [esi+116]
  000aa	51		 push	 ecx
  000ab	e8 00 00 00 00	 call	 _free
  000b0	83 c4 04	 add	 esp, 4
  000b3	5f		 pop	 edi
  000b4	89 5e 6c	 mov	 DWORD PTR [esi+108], ebx
  000b7	89 5e 70	 mov	 DWORD PTR [esi+112], ebx
  000ba	89 5e 74	 mov	 DWORD PTR [esi+116], ebx
  000bd	89 5e 78	 mov	 DWORD PTR [esi+120], ebx
  000c0	5e		 pop	 esi
  000c1	5d		 pop	 ebp

; 663  :     return false;

  000c2	32 c0		 xor	 al, al
  000c4	5b		 pop	 ebx

; 669  : }

  000c5	59		 pop	 ecx
  000c6	c2 08 00	 ret	 8
$L89954:

; 664  :   }
; 665  : 
; 666  :   _M_int_buf_EOS = _M_int_buf + __n;

  000c9	8b 56 6c	 mov	 edx, DWORD PTR [esi+108]
  000cc	03 d5		 add	 edx, ebp

; 667  :   _M_ext_buf_EOS = _M_ext_buf + __ebufsiz;

  000ce	03 c7		 add	 eax, edi
  000d0	5f		 pop	 edi
  000d1	89 46 78	 mov	 DWORD PTR [esi+120], eax
  000d4	89 56 70	 mov	 DWORD PTR [esi+112], edx
  000d7	5e		 pop	 esi
  000d8	5d		 pop	 ebp

; 668  :   return true;

  000d9	b0 01		 mov	 al, 1
  000db	5b		 pop	 ebx

; 669  : }

  000dc	59		 pop	 ecx
  000dd	c2 08 00	 ret	 8
?_M_allocate_buffers@?$basic_filebuf@DV?$char_traits@D@_STL@@@_STL@@AAE_NPADH@Z ENDP ; _STL::basic_filebuf<char,_STL::char_traits<char> >::_M_allocate_buffers
_TEXT	ENDS
PUBLIC	?_M_seek_return@?$basic_filebuf@DV?$char_traits@D@_STL@@@_STL@@AAE?AV?$fpos@H@2@JH@Z ; _STL::basic_filebuf<char,_STL::char_traits<char> >::_M_seek_return
PUBLIC	?_M_seek_init@?$basic_filebuf@DV?$char_traits@D@_STL@@@_STL@@AAE_N_N@Z ; _STL::basic_filebuf<char,_STL::char_traits<char> >::_M_seek_init
; Function compile flags: /Ogty
;	COMDAT ?seekpos@?$basic_filebuf@DV?$char_traits@D@_STL@@@_STL@@MAE?AV?$fpos@H@2@V32@H@Z
_TEXT	SEGMENT
___$ReturnUdt$ = 8					; size = 4
___pos$ = 12						; size = 8
___formal$ = 20						; size = 4
?seekpos@?$basic_filebuf@DV?$char_traits@D@_STL@@@_STL@@MAE?AV?$fpos@H@2@V32@H@Z PROC NEAR ; _STL::basic_filebuf<char,_STL::char_traits<char> >::seekpos, COMDAT
; _this$ = ecx

; 393  : {

  00000	56		 push	 esi
  00001	8b f1		 mov	 esi, ecx

; 394  :   if (this->is_open()) {

  00003	8a 46 60	 mov	 al, BYTE PTR [esi+96]
  00006	84 c0		 test	 al, al
  00008	74 5a		 je	 SHORT $L73714

; 395  :     if (!_M_seek_init(true))

  0000a	6a 01		 push	 1
  0000c	e8 00 00 00 00	 call	 ?_M_seek_init@?$basic_filebuf@DV?$char_traits@D@_STL@@@_STL@@AAE_N_N@Z ; _STL::basic_filebuf<char,_STL::char_traits<char> >::_M_seek_init
  00011	84 c0		 test	 al, al

; 396  :       return pos_type(-1);

  00013	74 4f		 je	 SHORT $L73714
  00015	57		 push	 edi

; 397  : 
; 398  :     streamoff __off = off_type(__pos);
; 399  :     if (__off != -1 && _M_base._M_seek(__off, ios_base::beg) != -1) {

  00016	8b 7c 24 10	 mov	 edi, DWORD PTR ___pos$[esp+4]
  0001a	83 ff ff	 cmp	 edi, -1
  0001d	74 2f		 je	 SHORT $L73718
  0001f	6a 01		 push	 1
  00021	57		 push	 edi
  00022	8d 4e 54	 lea	 ecx, DWORD PTR [esi+84]
  00025	e8 00 00 00 00	 call	 ?_M_seek@_Filebuf_base@_STL@@QAEJJH@Z ; _STL::_Filebuf_base::_M_seek
  0002a	83 f8 ff	 cmp	 eax, -1
  0002d	74 1f		 je	 SHORT $L73718

; 400  :       _M_state = __pos.state();

  0002f	8b 44 24 14	 mov	 eax, DWORD PTR ___pos$[esp+8]

; 401  :       return _M_seek_return(__off, __pos.state());

  00033	50		 push	 eax
  00034	57		 push	 edi
  00035	8b 7c 24 14	 mov	 edi, DWORD PTR ___$ReturnUdt$[esp+12]
  00039	57		 push	 edi
  0003a	8b ce		 mov	 ecx, esi
  0003c	89 86 84 00 00
	00		 mov	 DWORD PTR [esi+132], eax
  00042	e8 00 00 00 00	 call	 ?_M_seek_return@?$basic_filebuf@DV?$char_traits@D@_STL@@@_STL@@AAE?AV?$fpos@H@2@JH@Z ; _STL::basic_filebuf<char,_STL::char_traits<char> >::_M_seek_return
  00047	8b c7		 mov	 eax, edi
  00049	5f		 pop	 edi
  0004a	5e		 pop	 esi

; 408  : }

  0004b	c2 10 00	 ret	 16			; 00000010H
$L73718:

; 402  :     }
; 403  :     else
; 404  :       return pos_type(-1);

  0004e	8b 44 24 0c	 mov	 eax, DWORD PTR ___$ReturnUdt$[esp+4]
  00052	5f		 pop	 edi
  00053	c7 00 ff ff ff
	ff		 mov	 DWORD PTR [eax], -1
  00059	c7 40 04 00 00
	00 00		 mov	 DWORD PTR [eax+4], 0
  00060	5e		 pop	 esi

; 408  : }

  00061	c2 10 00	 ret	 16			; 00000010H
$L73714:

; 405  :   }
; 406  :   else
; 407  :     return pos_type(-1);

  00064	8b 44 24 08	 mov	 eax, DWORD PTR ___$ReturnUdt$[esp]
  00068	c7 00 ff ff ff
	ff		 mov	 DWORD PTR [eax], -1
  0006e	c7 40 04 00 00
	00 00		 mov	 DWORD PTR [eax+4], 0
  00075	5e		 pop	 esi

; 408  : }

  00076	c2 10 00	 ret	 16			; 00000010H
?seekpos@?$basic_filebuf@DV?$char_traits@D@_STL@@@_STL@@MAE?AV?$fpos@H@2@V32@H@Z ENDP ; _STL::basic_filebuf<char,_STL::char_traits<char> >::seekpos
; Function compile flags: /Ogty
; File c:\stlport-4.6.1\stlport\stl\_fstream.h
_TEXT	ENDS
;	COMDAT ?_M_seek_return@?$basic_filebuf@DV?$char_traits@D@_STL@@@_STL@@AAE?AV?$fpos@H@2@JH@Z
_TEXT	SEGMENT
___$ReturnUdt$ = 8					; size = 4
___off$ = 12						; size = 4
___state$ = 16						; size = 4
?_M_seek_return@?$basic_filebuf@DV?$char_traits@D@_STL@@@_STL@@AAE?AV?$fpos@H@2@JH@Z PROC NEAR ; _STL::basic_filebuf<char,_STL::char_traits<char> >::_M_seek_return, COMDAT
; _this$ = ecx

; 265  :   pos_type _M_seek_return(off_type __off, _State_type __state) {

  00000	56		 push	 esi
  00001	57		 push	 edi

; 266  :     if (__off != -1) {

  00002	8b 7c 24 10	 mov	 edi, DWORD PTR ___off$[esp+4]
  00006	83 ff ff	 cmp	 edi, -1
  00009	8b f1		 mov	 esi, ecx
  0000b	74 50		 je	 SHORT $L94824

; 267  :       if (_M_in_input_mode)

  0000d	8a 46 67	 mov	 al, BYTE PTR [esi+103]
  00010	53		 push	 ebx
  00011	33 db		 xor	 ebx, ebx
  00013	3a c3		 cmp	 al, bl
  00015	74 23		 je	 SHORT $L94798

; 268  :         _M_exit_input_mode();

  00017	8b 86 8c 00 00
	00		 mov	 eax, DWORD PTR [esi+140]
  0001d	3b c3		 cmp	 eax, ebx
  0001f	74 10		 je	 SHORT $L94799
  00021	8b 8e 90 00 00
	00		 mov	 ecx, DWORD PTR [esi+144]
  00027	51		 push	 ecx
  00028	50		 push	 eax
  00029	8d 4e 54	 lea	 ecx, DWORD PTR [esi+84]
  0002c	e8 00 00 00 00	 call	 ?_M_unmap@_Filebuf_base@_STL@@QAEXPAXJ@Z ; _STL::_Filebuf_base::_M_unmap
$L94799:
  00031	88 5e 67	 mov	 BYTE PTR [esi+103], bl
  00034	89 9e 8c 00 00
	00		 mov	 DWORD PTR [esi+140], ebx
$L94798:

; 269  :       _M_in_input_mode = false;
; 270  :       _M_in_output_mode = false;
; 271  :       _M_in_putback_mode = false;
; 272  :       _M_in_error_mode = false;
; 273  :       this->setg(0, 0, 0);

  0003a	8b 46 04	 mov	 eax, DWORD PTR [esi+4]
  0003d	88 5e 67	 mov	 BYTE PTR [esi+103], bl
  00040	88 5e 68	 mov	 BYTE PTR [esi+104], bl
  00043	88 5e 6a	 mov	 BYTE PTR [esi+106], bl
  00046	88 5e 69	 mov	 BYTE PTR [esi+105], bl
  00049	89 58 08	 mov	 DWORD PTR [eax+8], ebx
  0004c	89 18		 mov	 DWORD PTR [eax], ebx
  0004e	89 58 04	 mov	 DWORD PTR [eax+4], ebx

; 274  :       this->setp(0, 0);

  00051	8b 76 08	 mov	 esi, DWORD PTR [esi+8]
  00054	89 5e 08	 mov	 DWORD PTR [esi+8], ebx
  00057	89 1e		 mov	 DWORD PTR [esi], ebx
  00059	89 5e 04	 mov	 DWORD PTR [esi+4], ebx
  0005c	5b		 pop	 ebx
$L94824:

; 275  :     }
; 276  :     
; 277  :     pos_type __result(__off);
; 278  :     __result.state(__state);
; 279  :     return __result;

  0005d	8b 44 24 0c	 mov	 eax, DWORD PTR ___$ReturnUdt$[esp+4]
  00061	8b 4c 24 14	 mov	 ecx, DWORD PTR ___state$[esp+4]
  00065	89 38		 mov	 DWORD PTR [eax], edi
  00067	5f		 pop	 edi
  00068	89 48 04	 mov	 DWORD PTR [eax+4], ecx
  0006b	5e		 pop	 esi

; 280  :   }

  0006c	c2 0c 00	 ret	 12			; 0000000cH
?_M_seek_return@?$basic_filebuf@DV?$char_traits@D@_STL@@@_STL@@AAE?AV?$fpos@H@2@JH@Z ENDP ; _STL::basic_filebuf<char,_STL::char_traits<char> >::_M_seek_return
_TEXT	ENDS
PUBLIC	?_M_exit_putback_mode@?$basic_filebuf@DV?$char_traits@D@_STL@@@_STL@@AAEXXZ ; _STL::basic_filebuf<char,_STL::char_traits<char> >::_M_exit_putback_mode
; Function compile flags: /Ogty
; File c:\stlport-4.6.1\stlport\stl\_fstream.c
;	COMDAT ?_M_seek_init@?$basic_filebuf@DV?$char_traits@D@_STL@@@_STL@@AAE_N_N@Z
_TEXT	SEGMENT
___do_unshift$ = 8					; size = 1
?_M_seek_init@?$basic_filebuf@DV?$char_traits@D@_STL@@@_STL@@AAE_N_N@Z PROC NEAR ; _STL::basic_filebuf<char,_STL::char_traits<char> >::_M_seek_init, COMDAT
; _this$ = ecx

; 699  : bool basic_filebuf<_CharT, _Traits>::_M_seek_init(bool __do_unshift) {

  00000	53		 push	 ebx
  00001	56		 push	 esi
  00002	8b f1		 mov	 esi, ecx

; 700  :   // If we're in error mode, leave it.
; 701  :    _M_in_error_mode = false;
; 702  :    
; 703  :   // Flush the output buffer if we're in output mode, and (conditionally)
; 704  :   // emit an unshift sequence.
; 705  :   if (_M_in_output_mode) {

  00004	8a 46 68	 mov	 al, BYTE PTR [esi+104]
  00007	33 db		 xor	 ebx, ebx
  00009	3a c3		 cmp	 al, bl
  0000b	88 5e 69	 mov	 BYTE PTR [esi+105], bl
  0000e	74 41		 je	 SHORT $L89972

; 706  :     bool __ok = !traits_type::eq_int_type(this->overflow(traits_type::eof()),
; 707  :                                           traits_type::eof());

  00010	8b 06		 mov	 eax, DWORD PTR [esi]
  00012	6a ff		 push	 -1
  00014	ff 50 30	 call	 DWORD PTR [eax+48]

; 708  :     if (__do_unshift)

  00017	8a 4c 24 0c	 mov	 cl, BYTE PTR ___do_unshift$[esp+4]
  0001b	83 f8 ff	 cmp	 eax, -1
  0001e	0f 95 c0	 setne	 al
  00021	3a cb		 cmp	 cl, bl
  00023	74 0f		 je	 SHORT $L89971

; 709  :       __ok = __ok && this->_M_unshift();

  00025	3a c3		 cmp	 al, bl
  00027	74 0f		 je	 SHORT $L94876
  00029	8b ce		 mov	 ecx, esi
  0002b	e8 00 00 00 00	 call	 ?_M_unshift@?$basic_filebuf@DV?$char_traits@D@_STL@@@_STL@@AAE_NXZ ; _STL::basic_filebuf<char,_STL::char_traits<char> >::_M_unshift
  00030	84 c0		 test	 al, al

; 710  :     if (!__ok) {

  00032	eb 02		 jmp	 SHORT $L94877
$L89971:
  00034	3a c3		 cmp	 al, bl
$L94877:
  00036	75 19		 jne	 SHORT $L89972
$L94876:

; 711  :       _M_in_output_mode = false;

  00038	88 5e 68	 mov	 BYTE PTR [esi+104], bl

; 712  :       _M_in_error_mode = true;

  0003b	c6 46 69 01	 mov	 BYTE PTR [esi+105], 1

; 713  :       this->setp(0, 0);

  0003f	8b 76 08	 mov	 esi, DWORD PTR [esi+8]
  00042	89 5e 08	 mov	 DWORD PTR [esi+8], ebx
  00045	89 1e		 mov	 DWORD PTR [esi], ebx
  00047	89 5e 04	 mov	 DWORD PTR [esi+4], ebx
  0004a	5e		 pop	 esi

; 714  :       return false;

  0004b	32 c0		 xor	 al, al
  0004d	5b		 pop	 ebx

; 723  : }

  0004e	c2 04 00	 ret	 4
$L89972:

; 715  :     }
; 716  :   }
; 717  : 
; 718  :   // Discard putback characters, if any.
; 719  :   if (_M_in_input_mode && _M_in_putback_mode)

  00051	38 5e 67	 cmp	 BYTE PTR [esi+103], bl
  00054	74 0c		 je	 SHORT $L89973
  00056	38 5e 6a	 cmp	 BYTE PTR [esi+106], bl
  00059	74 07		 je	 SHORT $L89973

; 720  :     _M_exit_putback_mode();

  0005b	8b ce		 mov	 ecx, esi
  0005d	e8 00 00 00 00	 call	 ?_M_exit_putback_mode@?$basic_filebuf@DV?$char_traits@D@_STL@@@_STL@@AAEXXZ ; _STL::basic_filebuf<char,_STL::char_traits<char> >::_M_exit_putback_mode
$L89973:
  00062	5e		 pop	 esi

; 721  : 
; 722  :   return true;

  00063	b0 01		 mov	 al, 1
  00065	5b		 pop	 ebx

; 723  : }

  00066	c2 04 00	 ret	 4
?_M_seek_init@?$basic_filebuf@DV?$char_traits@D@_STL@@@_STL@@AAE_N_N@Z ENDP ; _STL::basic_filebuf<char,_STL::char_traits<char> >::_M_seek_init
; Function compile flags: /Ogty
; File c:\stlport-4.6.1\stlport\stl\_fstream.h
_TEXT	ENDS
;	COMDAT ?_M_exit_putback_mode@?$basic_filebuf@DV?$char_traits@D@_STL@@@_STL@@AAEXXZ
_TEXT	SEGMENT
?_M_exit_putback_mode@?$basic_filebuf@DV?$char_traits@D@_STL@@@_STL@@AAEXXZ PROC NEAR ; _STL::basic_filebuf<char,_STL::char_traits<char> >::_M_exit_putback_mode, COMDAT
; _this$ = ecx

; 245  :     this->setg(_M_saved_eback, _M_saved_gptr, _M_saved_egptr);

  00000	8b 81 9c 00 00
	00		 mov	 eax, DWORD PTR [ecx+156]
  00006	8b 51 04	 mov	 edx, DWORD PTR [ecx+4]
  00009	56		 push	 esi
  0000a	8b b1 98 00 00
	00		 mov	 esi, DWORD PTR [ecx+152]
  00010	57		 push	 edi
  00011	8b b9 94 00 00
	00		 mov	 edi, DWORD PTR [ecx+148]
  00017	89 7a 08	 mov	 DWORD PTR [edx+8], edi
  0001a	2b c6		 sub	 eax, esi
  0001c	89 32		 mov	 DWORD PTR [edx], esi
  0001e	5f		 pop	 edi
  0001f	89 42 04	 mov	 DWORD PTR [edx+4], eax

; 246  :     _M_in_putback_mode = false;

  00022	c6 41 6a 00	 mov	 BYTE PTR [ecx+106], 0
  00026	5e		 pop	 esi

; 247  :   }

  00027	c3		 ret	 0
?_M_exit_putback_mode@?$basic_filebuf@DV?$char_traits@D@_STL@@@_STL@@AAEXXZ ENDP ; _STL::basic_filebuf<char,_STL::char_traits<char> >::_M_exit_putback_mode
; Function compile flags: /Ogty
; File c:\stlport-4.6.1\stlport\stl\_fstream.c
_TEXT	ENDS
;	COMDAT ?imbue@?$basic_filebuf@DV?$char_traits@D@_STL@@@_STL@@MAEXABVlocale@2@@Z
_TEXT	SEGMENT
___loc$ = 8						; size = 4
?imbue@?$basic_filebuf@DV?$char_traits@D@_STL@@@_STL@@MAEXABVlocale@2@@Z PROC NEAR ; _STL::basic_filebuf<char,_STL::char_traits<char> >::imbue, COMDAT
; _this$ = ecx

; 429  :   if (!_M_in_input_mode &&! _M_in_output_mode && !_M_in_error_mode) {

  00000	8a 41 67	 mov	 al, BYTE PTR [ecx+103]
  00003	84 c0		 test	 al, al
  00005	75 13		 jne	 SHORT $L73739
  00007	8a 41 68	 mov	 al, BYTE PTR [ecx+104]
  0000a	84 c0		 test	 al, al
  0000c	75 0c		 jne	 SHORT $L73739
  0000e	8a 41 69	 mov	 al, BYTE PTR [ecx+105]
  00011	84 c0		 test	 al, al
  00013	75 05		 jne	 SHORT $L73739

; 430  :     this->_M_setup_codecvt(__loc);

  00015	e9 00 00 00 00	 jmp	 ?_M_setup_codecvt@?$basic_filebuf@DV?$char_traits@D@_STL@@@_STL@@AAEXABVlocale@2@@Z ; _STL::basic_filebuf<char,_STL::char_traits<char> >::_M_setup_codecvt
$L73739:

; 431  :   }
; 432  : }

  0001a	c2 04 00	 ret	 4
?imbue@?$basic_filebuf@DV?$char_traits@D@_STL@@@_STL@@MAEXABVlocale@2@@Z ENDP ; _STL::basic_filebuf<char,_STL::char_traits<char> >::imbue
_TEXT	ENDS
PUBLIC	??0?$basic_filebuf@DV?$char_traits@D@_STL@@@_STL@@QAE@XZ ; _STL::basic_filebuf<char,_STL::char_traits<char> >::basic_filebuf<char,_STL::char_traits<char> >
EXTRN	??0_Filebuf_base@_STL@@QAE@XZ:NEAR		; _STL::_Filebuf_base::_Filebuf_base
EXTRN	??1locale@_STL@@QAE@XZ:NEAR			; _STL::locale::~locale
;	COMDAT xdata$x
; File c:\stlport-4.6.1\stlport\stl\_stdio_file.h
xdata$x	SEGMENT
$T94942	DD	0ffffffffH
	DD	FLAT:$L94900
	DD	00H
	DD	FLAT:$L94901
$T94940	DD	019930520H
	DD	02H
	DD	FLAT:$T94942
	DD	2 DUP(00H)
	DD	2 DUP(00H)
; Function compile flags: /Ogty
; File c:\stlport-4.6.1\stlport\stl\_fstream.c
xdata$x	ENDS
;	COMDAT ??0?$basic_filebuf@DV?$char_traits@D@_STL@@@_STL@@QAE@XZ
_TEXT	SEGMENT
$T94899 = -20						; size = 4
_this$ = -16						; size = 4
__$EHRec$ = -12						; size = 12
??0?$basic_filebuf@DV?$char_traits@D@_STL@@@_STL@@QAE@XZ PROC NEAR ; _STL::basic_filebuf<char,_STL::char_traits<char> >::basic_filebuf<char,_STL::char_traits<char> >, COMDAT
; _this$ = ecx

; 60   : {

  00000	6a ff		 push	 -1
  00002	68 00 00 00 00	 push	 __ehhandler$??0?$basic_filebuf@DV?$char_traits@D@_STL@@@_STL@@QAE@XZ
  00007	64 a1 00 00 00
	00		 mov	 eax, DWORD PTR fs:__except_list
  0000d	50		 push	 eax
  0000e	64 89 25 00 00
	00 00		 mov	 DWORD PTR fs:__except_list, esp
  00015	83 ec 08	 sub	 esp, 8
  00018	53		 push	 ebx
  00019	56		 push	 esi
  0001a	8b f1		 mov	 esi, ecx
  0001c	8d 4e 2c	 lea	 ecx, DWORD PTR [esi+44]
  0001f	8d 46 0c	 lea	 eax, DWORD PTR [esi+12]
  00022	89 4e 08	 mov	 DWORD PTR [esi+8], ecx
  00025	8d 4e 4c	 lea	 ecx, DWORD PTR [esi+76]
  00028	89 74 24 0c	 mov	 DWORD PTR _this$[esp+28], esi
  0002c	c7 06 00 00 00
	00		 mov	 DWORD PTR [esi], OFFSET FLAT:??_7?$basic_streambuf@DV?$char_traits@D@_STL@@@_STL@@6B@
  00032	89 46 04	 mov	 DWORD PTR [esi+4], eax
  00035	e8 00 00 00 00	 call	 ??0locale@_STL@@QAE@XZ	; _STL::locale::locale
  0003a	33 db		 xor	 ebx, ebx
  0003c	89 5e 50	 mov	 DWORD PTR [esi+80], ebx
  0003f	8b 46 04	 mov	 eax, DWORD PTR [esi+4]
  00042	89 58 08	 mov	 DWORD PTR [eax+8], ebx
  00045	89 18		 mov	 DWORD PTR [eax], ebx
  00047	89 58 04	 mov	 DWORD PTR [eax+4], ebx
  0004a	8b 46 08	 mov	 eax, DWORD PTR [esi+8]
  0004d	89 58 08	 mov	 DWORD PTR [eax+8], ebx
  00050	89 18		 mov	 DWORD PTR [eax], ebx
  00052	89 58 04	 mov	 DWORD PTR [eax+4], ebx
  00055	8d 4e 54	 lea	 ecx, DWORD PTR [esi+84]
  00058	89 5c 24 18	 mov	 DWORD PTR __$EHRec$[esp+36], ebx
  0005c	c7 06 00 00 00
	00		 mov	 DWORD PTR [esi], OFFSET FLAT:??_7?$basic_filebuf@DV?$char_traits@D@_STL@@@_STL@@6B@
  00062	e8 00 00 00 00	 call	 ??0_Filebuf_base@_STL@@QAE@XZ ; _STL::_Filebuf_base::_Filebuf_base
  00067	b8 01 00 00 00	 mov	 eax, 1

; 61   :   this->_M_setup_codecvt(locale());

  0006c	8d 4c 24 08	 lea	 ecx, DWORD PTR $T94899[esp+28]
  00070	88 5e 64	 mov	 BYTE PTR [esi+100], bl
  00073	88 5e 65	 mov	 BYTE PTR [esi+101], bl
  00076	88 5e 66	 mov	 BYTE PTR [esi+102], bl
  00079	88 5e 67	 mov	 BYTE PTR [esi+103], bl
  0007c	88 5e 68	 mov	 BYTE PTR [esi+104], bl
  0007f	88 5e 69	 mov	 BYTE PTR [esi+105], bl
  00082	88 5e 6a	 mov	 BYTE PTR [esi+106], bl
  00085	89 5e 6c	 mov	 DWORD PTR [esi+108], ebx
  00088	89 5e 70	 mov	 DWORD PTR [esi+112], ebx
  0008b	89 5e 74	 mov	 DWORD PTR [esi+116], ebx
  0008e	89 5e 78	 mov	 DWORD PTR [esi+120], ebx
  00091	89 5e 7c	 mov	 DWORD PTR [esi+124], ebx
  00094	89 9e 80 00 00
	00		 mov	 DWORD PTR [esi+128], ebx
  0009a	89 9e 84 00 00
	00		 mov	 DWORD PTR [esi+132], ebx
  000a0	89 9e 88 00 00
	00		 mov	 DWORD PTR [esi+136], ebx
  000a6	89 9e 8c 00 00
	00		 mov	 DWORD PTR [esi+140], ebx
  000ac	89 9e 90 00 00
	00		 mov	 DWORD PTR [esi+144], ebx
  000b2	89 9e 94 00 00
	00		 mov	 DWORD PTR [esi+148], ebx
  000b8	89 9e 98 00 00
	00		 mov	 DWORD PTR [esi+152], ebx
  000be	89 9e 9c 00 00
	00		 mov	 DWORD PTR [esi+156], ebx
  000c4	89 9e a0 00 00
	00		 mov	 DWORD PTR [esi+160], ebx
  000ca	89 86 a4 00 00
	00		 mov	 DWORD PTR [esi+164], eax
  000d0	89 86 a8 00 00
	00		 mov	 DWORD PTR [esi+168], eax
  000d6	e8 00 00 00 00	 call	 ??0locale@_STL@@QAE@XZ	; _STL::locale::locale
  000db	50		 push	 eax
  000dc	8b ce		 mov	 ecx, esi
  000de	c6 44 24 1c 01	 mov	 BYTE PTR __$EHRec$[esp+40], 1
  000e3	e8 00 00 00 00	 call	 ?_M_setup_codecvt@?$basic_filebuf@DV?$char_traits@D@_STL@@@_STL@@AAEXABVlocale@2@@Z ; _STL::basic_filebuf<char,_STL::char_traits<char> >::_M_setup_codecvt
  000e8	8d 4c 24 08	 lea	 ecx, DWORD PTR $T94899[esp+28]
  000ec	88 5c 24 18	 mov	 BYTE PTR __$EHRec$[esp+36], bl
  000f0	e8 00 00 00 00	 call	 ??1locale@_STL@@QAE@XZ	; _STL::locale::~locale

; 62   : }

  000f5	8b 4c 24 10	 mov	 ecx, DWORD PTR __$EHRec$[esp+28]
  000f9	8b c6		 mov	 eax, esi
  000fb	5e		 pop	 esi
  000fc	5b		 pop	 ebx
  000fd	64 89 0d 00 00
	00 00		 mov	 DWORD PTR fs:__except_list, ecx
  00104	83 c4 14	 add	 esp, 20			; 00000014H
  00107	c3		 ret	 0
_TEXT	ENDS
;	COMDAT text$x
text$x	SEGMENT
$L94900:
  00000	8b 4d f0	 mov	 ecx, DWORD PTR _this$[ebp]
  00003	e9 00 00 00 00	 jmp	 ??1?$basic_streambuf@DV?$char_traits@D@_STL@@@_STL@@UAE@XZ ; _STL::basic_streambuf<char,_STL::char_traits<char> >::~basic_streambuf<char,_STL::char_traits<char> >
$L94901:
  00008	8d 4d ec	 lea	 ecx, DWORD PTR $T94899[ebp]
  0000b	e9 00 00 00 00	 jmp	 ??1locale@_STL@@QAE@XZ	; _STL::locale::~locale
__ehhandler$??0?$basic_filebuf@DV?$char_traits@D@_STL@@@_STL@@QAE@XZ:
  00010	b8 00 00 00 00	 mov	 eax, OFFSET FLAT:$T94940
  00015	e9 00 00 00 00	 jmp	 ___CxxFrameHandler
text$x	ENDS
??0?$basic_filebuf@DV?$char_traits@D@_STL@@@_STL@@QAE@XZ ENDP ; _STL::basic_filebuf<char,_STL::char_traits<char> >::basic_filebuf<char,_STL::char_traits<char> >
PUBLIC	??1?$_Filebuf_Tmp_Buf@D@_STL@@QAE@XZ		; _STL::_Filebuf_Tmp_Buf<char>::~_Filebuf_Tmp_Buf<char>
;	COMDAT xdata$x
; File c:\stlport-4.6.1\stlport\stl\char_traits.h
xdata$x	SEGMENT
$T95217	DD	0ffffffffH
	DD	FLAT:$L94951
$T95198	DD	019930520H
	DD	01H
	DD	FLAT:$T95217
	DD	2 DUP(00H)
	DD	2 DUP(00H)
; Function compile flags: /Ogty
; File c:\stlport-4.6.1\stlport\stl\_fstream.c
xdata$x	ENDS
;	COMDAT ?seekoff@?$basic_filebuf@DV?$char_traits@D@_STL@@@_STL@@MAE?AV?$fpos@H@2@JHH@Z
_TEXT	SEGMENT
___state$73636 = -32					; size = 4
___tmp_state$73638 = -28				; size = 4
___cur$73694 = -24					; size = 4
___buf$73653 = -20					; size = 4
___dummy$73656 = -16					; size = 4
__$EHRec$ = -12						; size = 12
___$ReturnUdt$ = 8					; size = 4
tv739 = 12						; size = 4
tv392 = 12						; size = 4
___off$ = 12						; size = 4
___inext$73655 = 16					; size = 4
___whence$ = 16						; size = 4
___formal$ = 20						; size = 4
?seekoff@?$basic_filebuf@DV?$char_traits@D@_STL@@@_STL@@MAE?AV?$fpos@H@2@JHH@Z PROC NEAR ; _STL::basic_filebuf<char,_STL::char_traits<char> >::seekoff, COMDAT
; _this$ = ecx

; 289  : {

  00000	6a ff		 push	 -1
  00002	64 a1 00 00 00
	00		 mov	 eax, DWORD PTR fs:__except_list
  00008	68 00 00 00 00	 push	 __ehhandler$?seekoff@?$basic_filebuf@DV?$char_traits@D@_STL@@@_STL@@MAE?AV?$fpos@H@2@JHH@Z
  0000d	50		 push	 eax
  0000e	64 89 25 00 00
	00 00		 mov	 DWORD PTR fs:__except_list, esp
  00015	83 ec 14	 sub	 esp, 20			; 00000014H
  00018	53		 push	 ebx
  00019	55		 push	 ebp
  0001a	56		 push	 esi
  0001b	8b f1		 mov	 esi, ecx

; 290  :   if (this->is_open() &&
; 291  :       (__off == 0 || (_M_constant_width && this->_M_base._M_in_binary_mode()))) {

  0001d	8a 46 60	 mov	 al, BYTE PTR [esi+96]
  00020	33 ed		 xor	 ebp, ebp
  00022	84 c0		 test	 al, al
  00024	57		 push	 edi
  00025	0f 84 32 03 00
	00		 je	 $L73604
  0002b	8b 5c 24 38	 mov	 ebx, DWORD PTR ___off$[esp+44]
  0002f	3b dd		 cmp	 ebx, ebp
  00031	8b 7c 24 3c	 mov	 edi, DWORD PTR ___whence$[esp+44]
  00035	0f 84 87 00 00
	00		 je	 $L95208
  0003b	8a 46 64	 mov	 al, BYTE PTR [esi+100]
  0003e	84 c0		 test	 al, al
  00040	0f 84 17 03 00
	00		 je	 $L73604
  00046	8b 46 5c	 mov	 eax, DWORD PTR [esi+92]
  00049	c1 e8 02	 shr	 eax, 2
  0004c	a8 01		 test	 al, 1
  0004e	0f 84 09 03 00
	00		 je	 $L73604
$L94948:

; 292  : 
; 293  :     if (!_M_seek_init(__off != 0 || __whence != ios_base::cur))

  00054	33 c0		 xor	 eax, eax
  00056	b0 01		 mov	 al, 1
$L94949:
  00058	50		 push	 eax
  00059	8b ce		 mov	 ecx, esi
  0005b	e8 00 00 00 00	 call	 ?_M_seek_init@?$basic_filebuf@DV?$char_traits@D@_STL@@@_STL@@AAE_N_N@Z ; _STL::basic_filebuf<char,_STL::char_traits<char> >::_M_seek_init
  00060	84 c0		 test	 al, al

; 294  :       return pos_type(-1);

  00062	0f 84 f5 02 00
	00		 je	 $L73604

; 295  : 
; 296  :     // Seek to beginning or end, regardless of whether we're in input mode.
; 297  :     if (__whence == ios_base::beg || __whence == ios_base::end)

  00068	83 ff 01	 cmp	 edi, 1
  0006b	0f 84 b4 02 00
	00		 je	 $L73609
  00071	83 ff 04	 cmp	 edi, 4
  00074	0f 84 ab 02 00
	00		 je	 $L73609

; 300  : 
; 301  :     // Seek relative to current position.  Complicated if we're in input mode.
; 302  :     else if (__whence == ios_base::cur) {

  0007a	83 ff 02	 cmp	 edi, 2
  0007d	0f 85 da 02 00
	00		 jne	 $L73604

; 303  : 
; 304  :       if (!_M_in_input_mode)

  00083	8a 46 67	 mov	 al, BYTE PTR [esi+103]
  00086	84 c0		 test	 al, al
  00088	75 41		 jne	 SHORT $L73613

; 305  :         return _M_seek_return(_M_base._M_seek(_M_width * __off, __whence),
; 306  :                               _State_type());

  0008a	8b 8e a4 00 00
	00		 mov	 ecx, DWORD PTR [esi+164]
  00090	0f af cb	 imul	 ecx, ebx
  00093	55		 push	 ebp
  00094	57		 push	 edi
  00095	51		 push	 ecx
  00096	8d 4e 54	 lea	 ecx, DWORD PTR [esi+84]
$L95215:
  00099	e8 00 00 00 00	 call	 ?_M_seek@_Filebuf_base@_STL@@QAEJJH@Z ; _STL::_Filebuf_base::_M_seek
  0009e	8b 7c 24 38	 mov	 edi, DWORD PTR ___$ReturnUdt$[esp+48]
  000a2	50		 push	 eax
  000a3	57		 push	 edi
  000a4	8b ce		 mov	 ecx, esi
  000a6	e8 00 00 00 00	 call	 ?_M_seek_return@?$basic_filebuf@DV?$char_traits@D@_STL@@@_STL@@AAE?AV?$fpos@H@2@JH@Z ; _STL::basic_filebuf<char,_STL::char_traits<char> >::_M_seek_return
$L95216:
  000ab	8b c7		 mov	 eax, edi
  000ad	5f		 pop	 edi
  000ae	5e		 pop	 esi
  000af	5d		 pop	 ebp
  000b0	5b		 pop	 ebx

; 386  : }

  000b1	8b 4c 24 14	 mov	 ecx, DWORD PTR __$EHRec$[esp+32]
  000b5	64 89 0d 00 00
	00 00		 mov	 DWORD PTR fs:__except_list, ecx
  000bc	83 c4 20	 add	 esp, 32			; 00000020H
  000bf	c2 10 00	 ret	 16			; 00000010H
$L95208:

; 292  : 
; 293  :     if (!_M_seek_init(__off != 0 || __whence != ios_base::cur))

  000c2	83 ff 02	 cmp	 edi, 2
  000c5	75 8d		 jne	 SHORT $L94948
  000c7	32 c0		 xor	 al, al
  000c9	eb 8d		 jmp	 SHORT $L94949
$L73613:

; 307  :       else if (_M_mmap_base != 0) {

  000cb	8b 86 8c 00 00
	00		 mov	 eax, DWORD PTR [esi+140]
  000d1	3b c5		 cmp	 eax, ebp
  000d3	74 35		 je	 SHORT $L73616

; 308  :         // __off is relative to gptr().  We need to do a bit of arithmetic
; 309  :         // to get an offset relative to the external file pointer.
; 310  :         streamoff __adjust = _M_mmap_len - (this->gptr() - (_CharT*) _M_mmap_base);

  000d5	8b 56 04	 mov	 edx, DWORD PTR [esi+4]
  000d8	8b 0a		 mov	 ecx, DWORD PTR [edx]
  000da	8b be 90 00 00
	00		 mov	 edi, DWORD PTR [esi+144]
  000e0	2b f9		 sub	 edi, ecx
  000e2	03 f8		 add	 edi, eax

; 311  : 
; 312  :         // if __off == 0, we do not need to exit input mode and to shift file pointer
; 313  :         if (__off == 0) {

  000e4	3b dd		 cmp	 ebx, ebp

; 314  :           return pos_type(_M_base._M_seek(0, ios_base::cur) - __adjust);

  000e6	8d 4e 54	 lea	 ecx, DWORD PTR [esi+84]
  000e9	75 17		 jne	 SHORT $L73619
  000eb	6a 02		 push	 2
  000ed	55		 push	 ebp
  000ee	e8 00 00 00 00	 call	 ?_M_seek@_Filebuf_base@_STL@@QAEJJH@Z ; _STL::_Filebuf_base::_M_seek
  000f3	8b c8		 mov	 ecx, eax
  000f5	8b 44 24 34	 mov	 eax, DWORD PTR ___$ReturnUdt$[esp+44]
  000f9	2b cf		 sub	 ecx, edi
  000fb	89 08		 mov	 DWORD PTR [eax], ecx
  000fd	e9 65 02 00 00	 jmp	 $L95212
$L73619:

; 315  :         }
; 316  :         else
; 317  :           return _M_seek_return(_M_base._M_seek(__off - __adjust, ios_base::cur), _State_type());

  00102	55		 push	 ebp
  00103	6a 02		 push	 2
  00105	2b df		 sub	 ebx, edi
  00107	53		 push	 ebx
  00108	eb 8f		 jmp	 SHORT $L95215
$L73616:

; 318  :       }
; 319  :       else if (_M_constant_width) { // Get or set the position.  

  0010a	8a 46 64	 mov	 al, BYTE PTR [esi+100]

; 320  : 
; 321  :         streamoff __iadj = _M_width * (this->gptr() - this->eback());

  0010d	8b 4e 04	 mov	 ecx, DWORD PTR [esi+4]
  00110	8b 51 08	 mov	 edx, DWORD PTR [ecx+8]
  00113	84 c0		 test	 al, al
  00115	8b 01		 mov	 eax, DWORD PTR [ecx]
  00117	74 71		 je	 SHORT $L73624

; 322  :         
; 323  :         // Compensate for offset relative to gptr versus offset relative
; 324  :         // to external pointer.  For a text-oriented stream, where the 
; 325  :         // compensation is more than just pointer arithmetic, we may get
; 326  :         // but not set the current position.
; 327  :         
; 328  :         if (__iadj <= _M_ext_buf_end - _M_ext_buf) {

  00119	8b 8e 80 00 00
	00		 mov	 ecx, DWORD PTR [esi+128]
  0011f	2b c2		 sub	 eax, edx
  00121	0f af 86 a4 00
	00 00		 imul	 eax, DWORD PTR [esi+164]
  00128	8b 56 74	 mov	 edx, DWORD PTR [esi+116]
  0012b	8b f9		 mov	 edi, ecx
  0012d	2b fa		 sub	 edi, edx
  0012f	3b c7		 cmp	 eax, edi
  00131	0f 8f 26 02 00
	00		 jg	 $L73604

; 329  :           
; 330  :           streamoff __eadj =  _M_base._M_get_offset(_M_ext_buf + __iadj, _M_ext_buf_end);

  00137	03 d0		 add	 edx, eax
  00139	f6 46 5c 04	 test	 BYTE PTR [esi+92], 4
  0013d	74 06		 je	 SHORT $L95014
  0013f	2b ca		 sub	 ecx, edx
  00141	8b f9		 mov	 edi, ecx
  00143	eb 1c		 jmp	 SHORT $L95015
$L95014:
  00145	33 c0		 xor	 eax, eax
  00147	3b d1		 cmp	 edx, ecx
  00149	8b fa		 mov	 edi, edx
  0014b	74 0e		 je	 SHORT $L95021
  0014d	8d 49 00	 npad	 3
$L95019:
  00150	80 3f 0a	 cmp	 BYTE PTR [edi], 10	; 0000000aH
  00153	75 01		 jne	 SHORT $L95020
  00155	40		 inc	 eax
$L95020:
  00156	47		 inc	 edi
  00157	3b f9		 cmp	 edi, ecx
  00159	75 f5		 jne	 SHORT $L95019
$L95021:
  0015b	2b c2		 sub	 eax, edx
  0015d	03 c1		 add	 eax, ecx
  0015f	8b f8		 mov	 edi, eax
$L95015:

; 331  : 
; 332  :           if (__off == 0) {

  00161	3b dd		 cmp	 ebx, ebp

; 333  :             return pos_type(_M_base._M_seek(0, ios_base::cur) - __eadj);

  00163	8d 4e 54	 lea	 ecx, DWORD PTR [esi+84]
  00166	75 17		 jne	 SHORT $L73628
  00168	6a 02		 push	 2
  0016a	55		 push	 ebp
  0016b	e8 00 00 00 00	 call	 ?_M_seek@_Filebuf_base@_STL@@QAEJJH@Z ; _STL::_Filebuf_base::_M_seek
  00170	8b d0		 mov	 edx, eax
  00172	8b 44 24 34	 mov	 eax, DWORD PTR ___$ReturnUdt$[esp+44]
  00176	2b d7		 sub	 edx, edi
  00178	89 10		 mov	 DWORD PTR [eax], edx
  0017a	e9 e8 01 00 00	 jmp	 $L95212
$L73628:

; 334  :           }  else {
; 335  :             return _M_seek_return(_M_base._M_seek(__off - __eadj, ios_base::cur), _State_type());

  0017f	55		 push	 ebp
  00180	6a 02		 push	 2
  00182	2b df		 sub	 ebx, edi
  00184	53		 push	 ebx

; 336  :           }
; 337  :         }
; 338  :         else
; 339  :           return pos_type(-1);

  00185	e9 aa 01 00 00	 jmp	 $L95213
$L73624:

; 340  :       }
; 341  :       else {                    // Get the position.  Encoding is var width.
; 342  :         // Get position in internal buffer.
; 343  :         ptrdiff_t __ipos = this->gptr() - this->eback();
; 344  :         
; 345  :         // Get corresponding position in external buffer.
; 346  :         _State_type __state = _M_state;
; 347  :         int __epos = _M_codecvt->length(__state, _M_ext_buf, _M_ext_buf_end,
; 348  :                                         __ipos);

  0018a	8b 8e a0 00 00
	00		 mov	 ecx, DWORD PTR [esi+160]
  00190	2b c2		 sub	 eax, edx
  00192	8b 56 74	 mov	 edx, DWORD PTR [esi+116]
  00195	8b f8		 mov	 edi, eax
  00197	8b 86 84 00 00
	00		 mov	 eax, DWORD PTR [esi+132]
  0019d	89 44 24 10	 mov	 DWORD PTR ___state$73636[esp+48], eax
  001a1	8b 86 80 00 00
	00		 mov	 eax, DWORD PTR [esi+128]
  001a7	8b 19		 mov	 ebx, DWORD PTR [ecx]
  001a9	57		 push	 edi
  001aa	50		 push	 eax
  001ab	52		 push	 edx
  001ac	8d 54 24 1c	 lea	 edx, DWORD PTR ___state$73636[esp+60]
  001b0	52		 push	 edx
  001b1	ff 53 18	 call	 DWORD PTR [ebx+24]
  001b4	8b d8		 mov	 ebx, eax

; 349  : 
; 350  :         // Sanity check (expensive): make sure __epos is the right answer.
; 351  :         _State_type __tmp_state = _M_state;

  001b6	8b 86 84 00 00
	00		 mov	 eax, DWORD PTR [esi+132]

; 352  :         _Filebuf_Tmp_Buf<_CharT> __buf(__ipos);

  001bc	57		 push	 edi
  001bd	89 44 24 18	 mov	 DWORD PTR ___tmp_state$73638[esp+52], eax
  001c1	e8 00 00 00 00	 call	 ??_U@YAPAXI@Z		; operator new[]
  001c6	8b e8		 mov	 ebp, eax
  001c8	83 c4 04	 add	 esp, 4
  001cb	89 6c 24 1c	 mov	 DWORD PTR ___buf$73653[esp+48], ebp

; 353  :         _CharT* __ibegin = __buf._M_ptr;
; 354  :         _CharT* __inext  = __ibegin;
; 355  : 
; 356  :         const char* __dummy;
; 357  :         typename _Codecvt::result __status
; 358  :           = _M_codecvt->in(__tmp_state,
; 359  :                            _M_ext_buf, _M_ext_buf + __epos, __dummy,
; 360  :                            __ibegin, __ibegin + __ipos, __inext);

  001cf	8b 46 74	 mov	 eax, DWORD PTR [esi+116]
  001d2	8b 8e a0 00 00
	00		 mov	 ecx, DWORD PTR [esi+160]
  001d8	8d 14 2f	 lea	 edx, DWORD PTR [edi+ebp]
  001db	89 54 24 38	 mov	 DWORD PTR tv739[esp+44], edx
  001df	8d 54 24 3c	 lea	 edx, DWORD PTR ___inext$73655[esp+44]
  001e3	52		 push	 edx
  001e4	8b 54 24 3c	 mov	 edx, DWORD PTR tv739[esp+48]
  001e8	52		 push	 edx
  001e9	55		 push	 ebp
  001ea	8d 54 24 2c	 lea	 edx, DWORD PTR ___dummy$73656[esp+60]
  001ee	52		 push	 edx
  001ef	8d 14 18	 lea	 edx, DWORD PTR [eax+ebx]
  001f2	52		 push	 edx
  001f3	50		 push	 eax
  001f4	8d 44 24 2c	 lea	 eax, DWORD PTR ___tmp_state$73638[esp+72]
  001f8	89 6c 24 54	 mov	 DWORD PTR ___inext$73655[esp+68], ebp
  001fc	8b 39		 mov	 edi, DWORD PTR [ecx]
  001fe	50		 push	 eax
  001ff	c7 44 24 48 00
	00 00 00	 mov	 DWORD PTR __$EHRec$[esp+84], 0
  00207	ff 57 08	 call	 DWORD PTR [edi+8]

; 361  :         if (__status != _Codecvt::error &&
; 362  :             (__status == _Codecvt::noconv ||
; 363  :              (__inext == __ibegin + __ipos &&
; 364  :               equal(this->gptr(), this->eback(), __ibegin,
; 365  :                     _Eq_traits<traits_type>())))) {

  0020a	83 f8 02	 cmp	 eax, 2
  0020d	0f 84 e1 00 00
	00		 je	 $L73692
  00213	83 f8 03	 cmp	 eax, 3
  00216	74 38		 je	 SHORT $L95105
  00218	8b 4c 24 38	 mov	 ecx, DWORD PTR tv739[esp+44]
  0021c	39 4c 24 3c	 cmp	 DWORD PTR ___inext$73655[esp+44], ecx
  00220	0f 85 ce 00 00
	00		 jne	 $L73692
  00226	8b 46 04	 mov	 eax, DWORD PTR [esi+4]
  00229	8b 78 08	 mov	 edi, DWORD PTR [eax+8]
  0022c	8b 00		 mov	 eax, DWORD PTR [eax]
  0022e	3b c7		 cmp	 eax, edi
  00230	74 1e		 je	 SHORT $L95105
  00232	8b cd		 mov	 ecx, ebp
  00234	2b c8		 sub	 ecx, eax
  00236	eb 08 8d a4 24
	00 00 00 00 90	 npad	 10
$L95103:
  00240	8a 10		 mov	 dl, BYTE PTR [eax]
  00242	3a 14 01	 cmp	 dl, BYTE PTR [ecx+eax]
  00245	0f 85 a9 00 00
	00		 jne	 $L73692
  0024b	40		 inc	 eax
  0024c	3b c7		 cmp	 eax, edi
  0024e	75 f0		 jne	 SHORT $L95103
$L95105:

; 366  :           // Get the current position (at the end of the external buffer),
; 367  :           // then adjust it.  Again, it might be a text-oriented stream.
; 368  :           streamoff __cur = _M_base._M_seek(0, ios_base::cur);

  00250	6a 02		 push	 2
  00252	6a 00		 push	 0
  00254	8d 4e 54	 lea	 ecx, DWORD PTR [esi+84]
  00257	e8 00 00 00 00	 call	 ?_M_seek@_Filebuf_base@_STL@@QAEJJH@Z ; _STL::_Filebuf_base::_M_seek

; 369  :           streamoff __adj =
; 370  :             _M_base._M_get_offset(_M_ext_buf, _M_ext_buf + __epos) -
; 371  :             _M_base._M_get_offset(_M_ext_buf, _M_ext_buf_end);

  0025c	8b 4e 74	 mov	 ecx, DWORD PTR [esi+116]
  0025f	89 44 24 18	 mov	 DWORD PTR ___cur$73694[esp+48], eax
  00263	8b 46 5c	 mov	 eax, DWORD PTR [esi+92]
  00266	03 d9		 add	 ebx, ecx
  00268	83 e0 04	 and	 eax, 4
  0026b	74 08		 je	 SHORT $L95126
  0026d	2b d9		 sub	 ebx, ecx
  0026f	89 5c 24 38	 mov	 DWORD PTR tv392[esp+44], ebx
  00273	eb 20		 jmp	 SHORT $L95127
$L95126:
  00275	33 d2		 xor	 edx, edx
  00277	3b cb		 cmp	 ecx, ebx
  00279	8b f9		 mov	 edi, ecx
  0027b	74 0e		 je	 SHORT $L95132
  0027d	8d 49 00	 npad	 3
$L95130:
  00280	80 3f 0a	 cmp	 BYTE PTR [edi], 10	; 0000000aH
  00283	75 01		 jne	 SHORT $L95131
  00285	42		 inc	 edx
$L95131:
  00286	47		 inc	 edi
  00287	3b fb		 cmp	 edi, ebx
  00289	75 f5		 jne	 SHORT $L95130
$L95132:
  0028b	2b d1		 sub	 edx, ecx
  0028d	03 d3		 add	 edx, ebx
  0028f	89 54 24 38	 mov	 DWORD PTR tv392[esp+44], edx
  00293	8b da		 mov	 ebx, edx
$L95127:
  00295	85 c0		 test	 eax, eax
  00297	8b 8e 80 00 00
	00		 mov	 ecx, DWORD PTR [esi+128]
  0029d	8b 7e 74	 mov	 edi, DWORD PTR [esi+116]
  002a0	74 04		 je	 SHORT $L95154
  002a2	2b cf		 sub	 ecx, edi
  002a4	eb 1f		 jmp	 SHORT $L95155
$L95154:
  002a6	33 d2		 xor	 edx, edx
  002a8	3b f9		 cmp	 edi, ecx
  002aa	8b df		 mov	 ebx, edi
  002ac	74 0d		 je	 SHORT $L95160
  002ae	8b ff		 npad	 2
$L95158:
  002b0	80 3b 0a	 cmp	 BYTE PTR [ebx], 10	; 0000000aH
  002b3	75 01		 jne	 SHORT $L95159
  002b5	42		 inc	 edx
$L95159:
  002b6	43		 inc	 ebx
  002b7	3b d9		 cmp	 ebx, ecx
  002b9	75 f5		 jne	 SHORT $L95158
$L95160:
  002bb	8b 5c 24 38	 mov	 ebx, DWORD PTR tv392[esp+44]
  002bf	2b d7		 sub	 edx, edi
  002c1	03 d1		 add	 edx, ecx
  002c3	8b ca		 mov	 ecx, edx
$L95155:

; 372  :           if (__cur != -1 && __cur + __adj >= 0)

  002c5	8b 44 24 18	 mov	 eax, DWORD PTR ___cur$73694[esp+48]
  002c9	2b d9		 sub	 ebx, ecx
  002cb	83 f8 ff	 cmp	 eax, -1
  002ce	74 24		 je	 SHORT $L73692
  002d0	03 c3		 add	 eax, ebx
  002d2	78 20		 js	 SHORT $L73692

; 373  :             return _M_seek_return(__cur + __adj, __state);

  002d4	8b 4c 24 10	 mov	 ecx, DWORD PTR ___state$73636[esp+48]
  002d8	8b 7c 24 34	 mov	 edi, DWORD PTR ___$ReturnUdt$[esp+44]
  002dc	51		 push	 ecx
  002dd	50		 push	 eax
  002de	57		 push	 edi
  002df	8b ce		 mov	 ecx, esi
  002e1	e8 00 00 00 00	 call	 ?_M_seek_return@?$basic_filebuf@DV?$char_traits@D@_STL@@@_STL@@AAE?AV?$fpos@H@2@JH@Z ; _STL::basic_filebuf<char,_STL::char_traits<char> >::_M_seek_return
  002e6	55		 push	 ebp
  002e7	e8 00 00 00 00	 call	 ??_V@YAXPAX@Z		; operator delete[]
  002ec	83 c4 04	 add	 esp, 4
  002ef	e9 b7 fd ff ff	 jmp	 $L95216
$L73692:

; 374  :           else
; 375  :             return pos_type(-1);
; 376  :         }
; 377  :         else                    // We failed the sanity check.
; 378  :           return pos_type(-1);

  002f4	8b 74 24 34	 mov	 esi, DWORD PTR ___$ReturnUdt$[esp+44]
  002f8	55		 push	 ebp
  002f9	c7 06 ff ff ff
	ff		 mov	 DWORD PTR [esi], -1
  002ff	c7 46 04 00 00
	00 00		 mov	 DWORD PTR [esi+4], 0
  00306	e8 00 00 00 00	 call	 ??_V@YAXPAX@Z		; operator delete[]
  0030b	83 c4 04	 add	 esp, 4
  0030e	5f		 pop	 edi
  0030f	8b c6		 mov	 eax, esi
  00311	5e		 pop	 esi
  00312	5d		 pop	 ebp
  00313	5b		 pop	 ebx

; 386  : }

  00314	8b 4c 24 14	 mov	 ecx, DWORD PTR __$EHRec$[esp+32]
  00318	64 89 0d 00 00
	00 00		 mov	 DWORD PTR fs:__except_list, ecx
  0031f	83 c4 20	 add	 esp, 32			; 00000020H
  00322	c2 10 00	 ret	 16			; 00000010H
$L73609:

; 298  :       return _M_seek_return(_M_base._M_seek(_M_width * __off, __whence),
; 299  :                             _State_type());

  00325	8b 96 a4 00 00
	00		 mov	 edx, DWORD PTR [esi+164]
  0032b	0f af d3	 imul	 edx, ebx
  0032e	55		 push	 ebp
  0032f	57		 push	 edi
  00330	52		 push	 edx
  00331	8d 4e 54	 lea	 ecx, DWORD PTR [esi+84]
$L95213:
  00334	e8 00 00 00 00	 call	 ?_M_seek@_Filebuf_base@_STL@@QAEJJH@Z ; _STL::_Filebuf_base::_M_seek
  00339	8b 7c 24 38	 mov	 edi, DWORD PTR ___$ReturnUdt$[esp+48]
  0033d	50		 push	 eax
  0033e	8b ce		 mov	 ecx, esi
  00340	57		 push	 edi
  00341	e8 00 00 00 00	 call	 ?_M_seek_return@?$basic_filebuf@DV?$char_traits@D@_STL@@@_STL@@AAE?AV?$fpos@H@2@JH@Z ; _STL::basic_filebuf<char,_STL::char_traits<char> >::_M_seek_return
  00346	8b c7		 mov	 eax, edi
  00348	5f		 pop	 edi
  00349	5e		 pop	 esi
  0034a	5d		 pop	 ebp
  0034b	5b		 pop	 ebx

; 386  : }

  0034c	8b 4c 24 14	 mov	 ecx, DWORD PTR __$EHRec$[esp+32]
  00350	64 89 0d 00 00
	00 00		 mov	 DWORD PTR fs:__except_list, ecx
  00357	83 c4 20	 add	 esp, 32			; 00000020H
  0035a	c2 10 00	 ret	 16			; 00000010H
$L73604:

; 379  :       }
; 380  :     }
; 381  :     else                        // Unrecognized value for __whence.
; 382  :       return pos_type(-1);
; 383  :   }
; 384  :   else
; 385  :     return pos_type(-1);

  0035d	8b 44 24 34	 mov	 eax, DWORD PTR ___$ReturnUdt$[esp+44]
  00361	c7 00 ff ff ff
	ff		 mov	 DWORD PTR [eax], -1
$L95212:

; 386  : }

  00367	8b 4c 24 24	 mov	 ecx, DWORD PTR __$EHRec$[esp+48]
  0036b	5f		 pop	 edi
  0036c	5e		 pop	 esi
  0036d	89 68 04	 mov	 DWORD PTR [eax+4], ebp
  00370	5d		 pop	 ebp
  00371	5b		 pop	 ebx
  00372	64 89 0d 00 00
	00 00		 mov	 DWORD PTR fs:__except_list, ecx
  00379	83 c4 20	 add	 esp, 32			; 00000020H
  0037c	c2 10 00	 ret	 16			; 00000010H
_TEXT	ENDS
;	COMDAT text$x
text$x	SEGMENT
$L94951:
  00000	8d 4d ec	 lea	 ecx, DWORD PTR ___buf$73653[ebp]
  00003	e9 00 00 00 00	 jmp	 ??1?$_Filebuf_Tmp_Buf@D@_STL@@QAE@XZ ; _STL::_Filebuf_Tmp_Buf<char>::~_Filebuf_Tmp_Buf<char>
__ehhandler$?seekoff@?$basic_filebuf@DV?$char_traits@D@_STL@@@_STL@@MAE?AV?$fpos@H@2@JHH@Z:
  00008	b8 00 00 00 00	 mov	 eax, OFFSET FLAT:$T95198
  0000d	e9 00 00 00 00	 jmp	 ___CxxFrameHandler
text$x	ENDS
?seekoff@?$basic_filebuf@DV?$char_traits@D@_STL@@@_STL@@MAE?AV?$fpos@H@2@JHH@Z ENDP ; _STL::basic_filebuf<char,_STL::char_traits<char> >::seekoff
; Function compile flags: /Ogty
; File c:\stlport-4.6.1\stlport\stl\_fstream.h
;	COMDAT ??1?$_Filebuf_Tmp_Buf@D@_STL@@QAE@XZ
_TEXT	SEGMENT
??1?$_Filebuf_Tmp_Buf@D@_STL@@QAE@XZ PROC NEAR		; _STL::_Filebuf_Tmp_Buf<char>::~_Filebuf_Tmp_Buf<char>, COMDAT
; _this$ = ecx

; 374  :   ~_Filebuf_Tmp_Buf() { delete[] _M_ptr; }

  00000	8b 01		 mov	 eax, DWORD PTR [ecx]
  00002	50		 push	 eax
  00003	e8 00 00 00 00	 call	 ??_V@YAXPAX@Z		; operator delete[]
  00008	59		 pop	 ecx
  00009	c3		 ret	 0
??1?$_Filebuf_Tmp_Buf@D@_STL@@QAE@XZ ENDP		; _STL::_Filebuf_Tmp_Buf<char>::~_Filebuf_Tmp_Buf<char>
; Function compile flags: /Ogty
_TEXT	ENDS
;	COMDAT ??_G?$basic_filebuf@DV?$char_traits@D@_STL@@@_STL@@UAEPAXI@Z
_TEXT	SEGMENT
___flags$ = 8						; size = 4
??_G?$basic_filebuf@DV?$char_traits@D@_STL@@@_STL@@UAEPAXI@Z PROC NEAR ; _STL::basic_filebuf<char,_STL::char_traits<char> >::`scalar deleting destructor', COMDAT
; _this$ = ecx
  00000	56		 push	 esi
  00001	8b f1		 mov	 esi, ecx
  00003	e8 00 00 00 00	 call	 ??1?$basic_filebuf@DV?$char_traits@D@_STL@@@_STL@@UAE@XZ ; _STL::basic_filebuf<char,_STL::char_traits<char> >::~basic_filebuf<char,_STL::char_traits<char> >
  00008	f6 44 24 08 01	 test	 BYTE PTR ___flags$[esp], 1
  0000d	74 09		 je	 SHORT $L95227
  0000f	56		 push	 esi
  00010	e8 00 00 00 00	 call	 ??3@YAXPAX@Z		; operator delete
  00015	83 c4 04	 add	 esp, 4
$L95227:
  00018	8b c6		 mov	 eax, esi
  0001a	5e		 pop	 esi
  0001b	c2 04 00	 ret	 4
??_G?$basic_filebuf@DV?$char_traits@D@_STL@@@_STL@@UAEPAXI@Z ENDP ; _STL::basic_filebuf<char,_STL::char_traits<char> >::`scalar deleting destructor'
_TEXT	ENDS
PUBLIC	??0?$TArray@VCFrame@@G@@QAE@G@Z			; TArray<CFrame,unsigned short>::TArray<CFrame,unsigned short>
; Function compile flags: /Ogty
; File c:\darkeden\designed_common\project\client\spritelib\tarray.h
;	COMDAT ??0?$TArray@VCFrame@@G@@QAE@G@Z
_TEXT	SEGMENT
_size$ = 8						; size = 2
??0?$TArray@VCFrame@@G@@QAE@G@Z PROC NEAR		; TArray<CFrame,unsigned short>::TArray<CFrame,unsigned short>, COMDAT
; _this$ = ecx

; 88   : 	m_Size	= 0;
; 89   : 	m_pData = NULL;	
; 90   : 
; 91   : 	Init(size);

  00000	8b 44 24 04	 mov	 eax, DWORD PTR _size$[esp-4]
  00004	56		 push	 esi
  00005	8b f1		 mov	 esi, ecx
  00007	50		 push	 eax
  00008	66 c7 06 00 00	 mov	 WORD PTR [esi], 0
  0000d	c7 46 04 00 00
	00 00		 mov	 DWORD PTR [esi+4], 0
  00014	e8 00 00 00 00	 call	 ?Init@?$TArray@VCFrame@@G@@QAEXG@Z ; TArray<CFrame,unsigned short>::Init

; 92   : }

  00019	8b c6		 mov	 eax, esi
  0001b	5e		 pop	 esi
  0001c	c2 04 00	 ret	 4
??0?$TArray@VCFrame@@G@@QAE@G@Z ENDP			; TArray<CFrame,unsigned short>::TArray<CFrame,unsigned short>
_TEXT	ENDS
PUBLIC	?LoadFromFile@?$TArray@VCFrame@@G@@QAE_NAAVivfstream@@@Z ; TArray<CFrame,unsigned short>::LoadFromFile
PUBLIC	?s_SIZEOF_SizeType@?$TArray@VCFrame@@G@@1EA	; TArray<CFrame,unsigned short>::s_SIZEOF_SizeType
EXTRN	?LoadFromFile@CFrame@@QAEXAAVivfstream@@@Z:NEAR	; CFrame::LoadFromFile
;	COMDAT ?s_SIZEOF_SizeType@?$TArray@VCFrame@@G@@1EA
; File c:\darkeden\designed_common\project\client\virtualfilesystem\vfstream.inl
_DATA	SEGMENT
?s_SIZEOF_SizeType@?$TArray@VCFrame@@G@@1EA DB 02H	; TArray<CFrame,unsigned short>::s_SIZEOF_SizeType
; Function compile flags: /Ogty
; File c:\darkeden\designed_common\project\client\spritelib\tarray.h
_DATA	ENDS
;	COMDAT ?LoadFromFile@?$TArray@VCFrame@@G@@QAE_NAAVivfstream@@@Z
_TEXT	SEGMENT
_file$ = 8						; size = 4
?LoadFromFile@?$TArray@VCFrame@@G@@QAE_NAAVivfstream@@@Z PROC NEAR ; TArray<CFrame,unsigned short>::LoadFromFile, COMDAT
; _this$ = ecx

; 215  : {

  00000	53		 push	 ebx

; 216  : 	// frame 
; 217  : 	file.read((char*)&m_Size, s_SIZEOF_SizeType);

  00001	8b 5c 24 08	 mov	 ebx, DWORD PTR _file$[esp]
  00005	8b 43 04	 mov	 eax, DWORD PTR [ebx+4]
  00008	85 c0		 test	 eax, eax
  0000a	56		 push	 esi
  0000b	8b f1		 mov	 esi, ecx
  0000d	74 10		 je	 SHORT $L95237
  0000f	0f b6 15 00 00
	00 00		 movzx	 edx, BYTE PTR ?s_SIZEOF_SizeType@?$TArray@VCFrame@@G@@1EA ; TArray<CFrame,unsigned short>::s_SIZEOF_SizeType
  00016	8b c8		 mov	 ecx, eax
  00018	8b 01		 mov	 eax, DWORD PTR [ecx]
  0001a	52		 push	 edx
  0001b	56		 push	 esi
  0001c	ff 50 10	 call	 DWORD PTR [eax+16]
$L95237:

; 218  : 
; 219  : 	if (m_Size==0) return false;

  0001f	66 8b 06	 mov	 ax, WORD PTR [esi]
  00022	66 85 c0	 test	 ax, ax
  00025	75 07		 jne	 SHORT $L90968
  00027	5e		 pop	 esi
  00028	32 c0		 xor	 al, al
  0002a	5b		 pop	 ebx

; 228  : }

  0002b	c2 04 00	 ret	 4
$L90968:
  0002e	57		 push	 edi

; 220  : 	
; 221  : 	// memory
; 222  : 	Init(m_Size);

  0002f	50		 push	 eax
  00030	8b ce		 mov	 ecx, esi
  00032	e8 00 00 00 00	 call	 ?Init@?$TArray@VCFrame@@G@@QAEXG@Z ; TArray<CFrame,unsigned short>::Init

; 223  : 
; 224  : 	for (SizeType i=0; i<m_Size; i++)

  00037	33 ff		 xor	 edi, edi
  00039	66 39 3e	 cmp	 WORD PTR [esi], di
  0003c	76 1a		 jbe	 SHORT $L90972
  0003e	8b ff		 npad	 2
$L90970:

; 225  : 		m_pData[i].LoadFromFile(file);

  00040	8b 4e 04	 mov	 ecx, DWORD PTR [esi+4]
  00043	0f b7 c7	 movzx	 eax, di
  00046	8d 04 40	 lea	 eax, DWORD PTR [eax+eax*2]
  00049	53		 push	 ebx
  0004a	8d 0c 41	 lea	 ecx, DWORD PTR [ecx+eax*2]
  0004d	e8 00 00 00 00	 call	 ?LoadFromFile@CFrame@@QAEXAAVivfstream@@@Z ; CFrame::LoadFromFile
  00052	47		 inc	 edi
  00053	66 3b 3e	 cmp	 di, WORD PTR [esi]
  00056	72 e8		 jb	 SHORT $L90970
$L90972:
  00058	5f		 pop	 edi
  00059	5e		 pop	 esi

; 226  : 
; 227  : 	return true;

  0005a	b0 01		 mov	 al, 1
  0005c	5b		 pop	 ebx

; 228  : }

  0005d	c2 04 00	 ret	 4
?LoadFromFile@?$TArray@VCFrame@@G@@QAE_NAAVivfstream@@@Z ENDP ; TArray<CFrame,unsigned short>::LoadFromFile
_TEXT	ENDS
PUBLIC	?flush@?$basic_ostream@DV?$char_traits@D@_STL@@@_STL@@QAEAAV12@XZ ; _STL::basic_ostream<char,_STL::char_traits<char> >::flush
; Function compile flags: /Ogty
; File c:\stlport-4.6.1\stlport\stl\_ostream.h
;	COMDAT ?flush@?$basic_ostream@DV?$char_traits@D@_STL@@@_STL@@QAEAAV12@XZ
_TEXT	SEGMENT
?flush@?$basic_ostream@DV?$char_traits@D@_STL@@@_STL@@QAEAAV12@XZ PROC NEAR ; _STL::basic_ostream<char,_STL::char_traits<char> >::flush, COMDAT
; _this$ = ecx

; 120  :   _Self& flush() {

  00000	56		 push	 esi
  00001	8b f1		 mov	 esi, ecx

; 121  :     if (this->rdbuf())

  00003	8b 06		 mov	 eax, DWORD PTR [esi]
  00005	8b 48 04	 mov	 ecx, DWORD PTR [eax+4]
  00008	8b 4c 31 58	 mov	 ecx, DWORD PTR [ecx+esi+88]
  0000c	85 c9		 test	 ecx, ecx
  0000e	74 30		 je	 SHORT $L95305

; 122  :       if (this->rdbuf()->pubsync() == -1)

  00010	8b 11		 mov	 edx, DWORD PTR [ecx]
  00012	ff 52 10	 call	 DWORD PTR [edx+16]
  00015	83 f8 ff	 cmp	 eax, -1
  00018	75 26		 jne	 SHORT $L95305

; 123  :         this->setstate(ios_base::badbit);

  0001a	8b 06		 mov	 eax, DWORD PTR [esi]
  0001c	8b 48 04	 mov	 ecx, DWORD PTR [eax+4]
  0001f	8b 44 31 08	 mov	 eax, DWORD PTR [ecx+esi+8]
  00023	8b 54 31 58	 mov	 edx, DWORD PTR [ecx+esi+88]
  00027	03 ce		 add	 ecx, esi
  00029	83 c8 01	 or	 eax, 1
  0002c	85 d2		 test	 edx, edx
  0002e	75 03		 jne	 SHORT $L95292
  00030	83 c8 01	 or	 eax, 1
$L95292:
  00033	85 41 14	 test	 DWORD PTR [ecx+20], eax
  00036	89 41 08	 mov	 DWORD PTR [ecx+8], eax
  00039	74 05		 je	 SHORT $L95305
  0003b	e8 00 00 00 00	 call	 ?_M_throw_failure@ios_base@_STL@@IAEXXZ ; _STL::ios_base::_M_throw_failure
$L95305:

; 124  :     return *this;

  00040	8b c6		 mov	 eax, esi
  00042	5e		 pop	 esi

; 125  :   }

  00043	c3		 ret	 0
?flush@?$basic_ostream@DV?$char_traits@D@_STL@@@_STL@@QAEAAV12@XZ ENDP ; _STL::basic_ostream<char,_STL::char_traits<char> >::flush
_TEXT	ENDS
PUBLIC	?clear@?$_Rb_tree@GU?$pair@$$CBGPAVivfstream@@@_STL@@U?$_Select1st@U?$pair@$$CBGPAVivfstream@@@_STL@@@2@U?$less@G@2@V?$allocator@U?$pair@$$CBGPAVivfstream@@@_STL@@@2@@_STL@@QAEXXZ ; _STL::_Rb_tree<unsigned short,_STL::pair<unsigned short const ,ivfstream *>,_STL::_Select1st<_STL::pair<unsigned short const ,ivfstream *> >,_STL::less<unsigned short>,_STL::allocator<_STL::pair<unsigned short const ,ivfstream *> > >::clear
; Function compile flags: /Ogty
; File c:\stlport-4.6.1\stlport\stl\_tree.h
;	COMDAT ?clear@?$_Rb_tree@GU?$pair@$$CBGPAVivfstream@@@_STL@@U?$_Select1st@U?$pair@$$CBGPAVivfstream@@@_STL@@@2@U?$less@G@2@V?$allocator@U?$pair@$$CBGPAVivfstream@@@_STL@@@2@@_STL@@QAEXXZ
_TEXT	SEGMENT
?clear@?$_Rb_tree@GU?$pair@$$CBGPAVivfstream@@@_STL@@U?$_Select1st@U?$pair@$$CBGPAVivfstream@@@_STL@@@2@U?$less@G@2@V?$allocator@U?$pair@$$CBGPAVivfstream@@@_STL@@@2@@_STL@@QAEXXZ PROC NEAR ; _STL::_Rb_tree<unsigned short,_STL::pair<unsigned short const ,ivfstream *>,_STL::_Select1st<_STL::pair<unsigned short const ,ivfstream *> >,_STL::less<unsigned short>,_STL::allocator<_STL::pair<unsigned short const ,ivfstream *> > >::clear, COMDAT
; _this$ = ecx

; 445  :   void clear() {

  00000	56		 push	 esi
  00001	8b f1		 mov	 esi, ecx

; 446  :     if (_M_node_count != 0) {

  00003	8b 46 04	 mov	 eax, DWORD PTR [esi+4]
  00006	85 c0		 test	 eax, eax
  00008	74 27		 je	 SHORT $L91317

; 447  :       _M_erase(_M_root());

  0000a	8b 06		 mov	 eax, DWORD PTR [esi]
  0000c	8b 48 04	 mov	 ecx, DWORD PTR [eax+4]
  0000f	51		 push	 ecx
  00010	8b ce		 mov	 ecx, esi
  00012	e8 00 00 00 00	 call	 ?_M_erase@?$_Rb_tree@GU?$pair@$$CBGPAVivfstream@@@_STL@@U?$_Select1st@U?$pair@$$CBGPAVivfstream@@@_STL@@@2@U?$less@G@2@V?$allocator@U?$pair@$$CBGPAVivfstream@@@_STL@@@2@@_STL@@AAEXPAU?$_Rb_tree_node@U?$pair@$$CBGPAVivfstream@@@_STL@@@2@@Z ; _STL::_Rb_tree<unsigned short,_STL::pair<unsigned short const ,ivfstream *>,_STL::_Select1st<_STL::pair<unsigned short const ,ivfstream *> >,_STL::less<unsigned short>,_STL::allocator<_STL::pair<unsigned short const ,ivfstream *> > >::_M_erase

; 448  :       _M_leftmost() = this->_M_header._M_data;

  00017	8b 06		 mov	 eax, DWORD PTR [esi]
  00019	89 40 08	 mov	 DWORD PTR [eax+8], eax

; 449  :       _M_root() = 0;

  0001c	8b 16		 mov	 edx, DWORD PTR [esi]
  0001e	c7 42 04 00 00
	00 00		 mov	 DWORD PTR [edx+4], 0

; 450  :       _M_rightmost() = this->_M_header._M_data;

  00025	8b 06		 mov	 eax, DWORD PTR [esi]
  00027	89 40 0c	 mov	 DWORD PTR [eax+12], eax

; 451  :       _M_node_count = 0;

  0002a	c7 46 04 00 00
	00 00		 mov	 DWORD PTR [esi+4], 0
$L91317:
  00031	5e		 pop	 esi

; 452  :     }
; 453  :   }      

  00032	c3		 ret	 0
?clear@?$_Rb_tree@GU?$pair@$$CBGPAVivfstream@@@_STL@@U?$_Select1st@U?$pair@$$CBGPAVivfstream@@@_STL@@@2@U?$less@G@2@V?$allocator@U?$pair@$$CBGPAVivfstream@@@_STL@@@2@@_STL@@QAEXXZ ENDP ; _STL::_Rb_tree<unsigned short,_STL::pair<unsigned short const ,ivfstream *>,_STL::_Select1st<_STL::pair<unsigned short const ,ivfstream *> >,_STL::less<unsigned short>,_STL::allocator<_STL::pair<unsigned short const ,ivfstream *> > >::clear
_TEXT	ENDS
PUBLIC	??1?$_Rb_tree_base@U?$pair@$$CBGPAVivfstream@@@_STL@@V?$allocator@U?$pair@$$CBGPAVivfstream@@@_STL@@@2@@_STL@@QAE@XZ ; _STL::_Rb_tree_base<_STL::pair<unsigned short const ,ivfstream *>,_STL::allocator<_STL::pair<unsigned short const ,ivfstream *> > >::~_Rb_tree_base<_STL::pair<unsigned short const ,ivfstream *>,_STL::allocator<_STL::pair<unsigned short const ,ivfstream *> > >
; Function compile flags: /Ogty
;	COMDAT ??1?$_Rb_tree_base@U?$pair@$$CBGPAVivfstream@@@_STL@@V?$allocator@U?$pair@$$CBGPAVivfstream@@@_STL@@@2@@_STL@@QAE@XZ
_TEXT	SEGMENT
??1?$_Rb_tree_base@U?$pair@$$CBGPAVivfstream@@@_STL@@V?$allocator@U?$pair@$$CBGPAVivfstream@@@_STL@@@2@@_STL@@QAE@XZ PROC NEAR ; _STL::_Rb_tree_base<_STL::pair<unsigned short const ,ivfstream *>,_STL::allocator<_STL::pair<unsigned short const ,ivfstream *> > >::~_Rb_tree_base<_STL::pair<unsigned short const ,ivfstream *>,_STL::allocator<_STL::pair<unsigned short const ,ivfstream *> > >, COMDAT
; _this$ = ecx

; 208  :     _M_header.deallocate(_M_header._M_data,1); 

  00000	8b 01		 mov	 eax, DWORD PTR [ecx]
  00002	85 c0		 test	 eax, eax
  00004	74 0b		 je	 SHORT $L95342
  00006	6a 18		 push	 24			; 00000018H
  00008	50		 push	 eax
  00009	e8 00 00 00 00	 call	 ?_M_deallocate@?$__node_alloc@$00$0A@@_STL@@CAXPAXI@Z ; _STL::__node_alloc<1,0>::_M_deallocate
  0000e	83 c4 08	 add	 esp, 8
$L95342:

; 209  :   }

  00011	c3		 ret	 0
??1?$_Rb_tree_base@U?$pair@$$CBGPAVivfstream@@@_STL@@V?$allocator@U?$pair@$$CBGPAVivfstream@@@_STL@@@2@@_STL@@QAE@XZ ENDP ; _STL::_Rb_tree_base<_STL::pair<unsigned short const ,ivfstream *>,_STL::allocator<_STL::pair<unsigned short const ,ivfstream *> > >::~_Rb_tree_base<_STL::pair<unsigned short const ,ivfstream *>,_STL::allocator<_STL::pair<unsigned short const ,ivfstream *> > >
_TEXT	ENDS
PUBLIC	??0?$_Rb_tree_base@U?$pair@$$CBGPAVivfstream@@@_STL@@V?$allocator@U?$pair@$$CBGPAVivfstream@@@_STL@@@2@@_STL@@QAE@ABV?$allocator@U?$pair@$$CBGPAVivfstream@@@_STL@@@1@@Z ; _STL::_Rb_tree_base<_STL::pair<unsigned short const ,ivfstream *>,_STL::allocator<_STL::pair<unsigned short const ,ivfstream *> > >::_Rb_tree_base<_STL::pair<unsigned short const ,ivfstream *>,_STL::allocator<_STL::pair<unsigned short const ,ivfstream *> > >
; Function compile flags: /Ogty
;	COMDAT ??0?$_Rb_tree_base@U?$pair@$$CBGPAVivfstream@@@_STL@@V?$allocator@U?$pair@$$CBGPAVivfstream@@@_STL@@@2@@_STL@@QAE@ABV?$allocator@U?$pair@$$CBGPAVivfstream@@@_STL@@@1@@Z
_TEXT	SEGMENT
$T95349 = -1						; size = 1
___a$ = 8						; size = 4
??0?$_Rb_tree_base@U?$pair@$$CBGPAVivfstream@@@_STL@@V?$allocator@U?$pair@$$CBGPAVivfstream@@@_STL@@@2@@_STL@@QAE@ABV?$allocator@U?$pair@$$CBGPAVivfstream@@@_STL@@@1@@Z PROC NEAR ; _STL::_Rb_tree_base<_STL::pair<unsigned short const ,ivfstream *>,_STL::allocator<_STL::pair<unsigned short const ,ivfstream *> > >::_Rb_tree_base<_STL::pair<unsigned short const ,ivfstream *>,_STL::allocator<_STL::pair<unsigned short const ,ivfstream *> > >, COMDAT
; _this$ = ecx

; 204  :     _M_header(_STLP_CONVERT_ALLOCATOR(__a, _Node), (_Node*)0) { 

  00000	51		 push	 ecx
  00001	56		 push	 esi
  00002	6a 00		 push	 0
  00004	8d 44 24 0b	 lea	 eax, DWORD PTR $T95349[esp+12]
  00008	50		 push	 eax
  00009	8b f1		 mov	 esi, ecx
  0000b	e8 00 00 00 00	 call	 ??0?$_STLP_alloc_proxy@PAU?$_Rb_tree_node@U?$pair@$$CBGPAVivfstream@@@_STL@@@_STL@@U12@V?$allocator@U?$_Rb_tree_node@U?$pair@$$CBGPAVivfstream@@@_STL@@@_STL@@@2@@_STL@@QAE@ABV?$allocator@U?$_Rb_tree_node@U?$pair@$$CBGPAVivfstream@@@_STL@@@_STL@@@1@PAU?$_Rb_tree_node@U?$pair@$$CBGPAVivfstream@@@_STL@@@1@@Z ; _STL::_STLP_alloc_proxy<_STL::_Rb_tree_node<_STL::pair<unsigned short const ,ivfstream *> > *,_STL::_Rb_tree_node<_STL::pair<unsigned short const ,ivfstream *> >,_STL::allocator<_STL::_Rb_tree_node<_STL::pair<unsigned short const ,ivfstream *> > > >::_STLP_alloc_proxy<_STL::_Rb_tree_node<_STL::pair<unsigned short const ,ivfstream *> > *,_STL::_Rb_tree_node<_STL::pair<unsigned short const ,ivfstream *> >,_STL::allocator<_STL::_Rb_tree_node<_STL::pair<unsigned short const ,ivfstream *> > > >

; 205  :       _M_header._M_data = _M_header.allocate(1); 

  00010	6a 18		 push	 24			; 00000018H
  00012	e8 00 00 00 00	 call	 ?_M_allocate@?$__node_alloc@$00$0A@@_STL@@CAPAXI@Z ; _STL::__node_alloc<1,0>::_M_allocate
  00017	89 06		 mov	 DWORD PTR [esi], eax
  00019	83 c4 04	 add	 esp, 4

; 206  :   }

  0001c	8b c6		 mov	 eax, esi
  0001e	5e		 pop	 esi
  0001f	59		 pop	 ecx
  00020	c2 04 00	 ret	 4
??0?$_Rb_tree_base@U?$pair@$$CBGPAVivfstream@@@_STL@@V?$allocator@U?$pair@$$CBGPAVivfstream@@@_STL@@@2@@_STL@@QAE@ABV?$allocator@U?$pair@$$CBGPAVivfstream@@@_STL@@@1@@Z ENDP ; _STL::_Rb_tree_base<_STL::pair<unsigned short const ,ivfstream *>,_STL::allocator<_STL::pair<unsigned short const ,ivfstream *> > >::_Rb_tree_base<_STL::pair<unsigned short const ,ivfstream *>,_STL::allocator<_STL::pair<unsigned short const ,ivfstream *> > >
_TEXT	ENDS
PUBLIC	??$_M_init@DV?$char_traits@D@_STL@@@_STL@@YA_NAAV?$basic_ostream@DV?$char_traits@D@_STL@@@0@@Z ; _STL::_M_init<char,_STL::char_traits<char> >
; Function compile flags: /Ogty
; File c:\stlport-4.6.1\stlport\stl\_ostream.c
;	COMDAT ??$_M_init@DV?$char_traits@D@_STL@@@_STL@@YA_NAAV?$basic_ostream@DV?$char_traits@D@_STL@@@0@@Z
_TEXT	SEGMENT
___str$ = 8						; size = 4
??$_M_init@DV?$char_traits@D@_STL@@@_STL@@YA_NAAV?$basic_ostream@DV?$char_traits@D@_STL@@@0@@Z PROC NEAR ; _STL::_M_init<char,_STL::char_traits<char> >, COMDAT

; 37   : _M_init(basic_ostream<_CharT, _Traits>& __str) {

  00000	56		 push	 esi

; 38   :   if (__str.good()) {

  00001	8b 74 24 08	 mov	 esi, DWORD PTR ___str$[esp]
  00005	8b 06		 mov	 eax, DWORD PTR [esi]
  00007	8b 48 04	 mov	 ecx, DWORD PTR [eax+4]
  0000a	8b 44 31 08	 mov	 eax, DWORD PTR [ecx+esi+8]
  0000e	03 ce		 add	 ecx, esi
  00010	85 c0		 test	 eax, eax
  00012	75 48		 jne	 SHORT $L91707

; 39   :     // boris : check if this is needed !
; 40   :     if (!__str.rdbuf())

  00014	8b 41 58	 mov	 eax, DWORD PTR [ecx+88]
  00017	85 c0		 test	 eax, eax
  00019	75 1d		 jne	 SHORT $L95433

; 41   :       __str.setstate(ios_base::badbit);

  0001b	8b 41 08	 mov	 eax, DWORD PTR [ecx+8]
  0001e	8b 51 58	 mov	 edx, DWORD PTR [ecx+88]
  00021	83 c8 01	 or	 eax, 1
  00024	85 d2		 test	 edx, edx
  00026	75 03		 jne	 SHORT $L95426
  00028	83 c8 01	 or	 eax, 1
$L95426:
  0002b	85 41 14	 test	 DWORD PTR [ecx+20], eax
  0002e	89 41 08	 mov	 DWORD PTR [ecx+8], eax
  00031	74 05		 je	 SHORT $L95433
  00033	e8 00 00 00 00	 call	 ?_M_throw_failure@ios_base@_STL@@IAEXXZ ; _STL::ios_base::_M_throw_failure
$L95433:

; 42   :     if (__str.tie())

  00038	8b 16		 mov	 edx, DWORD PTR [esi]
  0003a	8b 42 04	 mov	 eax, DWORD PTR [edx+4]
  0003d	8b 4c 30 5c	 mov	 ecx, DWORD PTR [eax+esi+92]
  00041	85 c9		 test	 ecx, ecx
  00043	74 05		 je	 SHORT $L91709

; 43   :       __str.tie()->flush();

  00045	e8 00 00 00 00	 call	 ?flush@?$basic_ostream@DV?$char_traits@D@_STL@@@_STL@@QAEAAV12@XZ ; _STL::basic_ostream<char,_STL::char_traits<char> >::flush
$L91709:

; 44   :     return __str.good();

  0004a	8b 0e		 mov	 ecx, DWORD PTR [esi]
  0004c	8b 51 04	 mov	 edx, DWORD PTR [ecx+4]
  0004f	8b 4c 32 08	 mov	 ecx, DWORD PTR [edx+esi+8]
  00053	33 c0		 xor	 eax, eax
  00055	85 c9		 test	 ecx, ecx
  00057	0f 94 c0	 sete	 al
  0005a	5e		 pop	 esi

; 47   : }

  0005b	c3		 ret	 0
$L91707:

; 45   :   } else
; 46   :     return false;

  0005c	32 c0		 xor	 al, al
  0005e	5e		 pop	 esi

; 47   : }

  0005f	c3		 ret	 0
??$_M_init@DV?$char_traits@D@_STL@@@_STL@@YA_NAAV?$basic_ostream@DV?$char_traits@D@_STL@@@0@@Z ENDP ; _STL::_M_init<char,_STL::char_traits<char> >
_TEXT	ENDS
PUBLIC	??$__uninitialized_copy@PADPAD@_STL@@YAPADPAD00ABU__true_type@0@@Z ; _STL::__uninitialized_copy<char *,char *>
; Function compile flags: /Ogty
; File c:\stlport-4.6.1\stlport\stl\_uninitialized.h
;	COMDAT ??$__uninitialized_copy@PADPAD@_STL@@YAPADPAD00ABU__true_type@0@@Z
_TEXT	SEGMENT
___first$ = 8						; size = 4
___last$ = 12						; size = 4
___result$ = 16						; size = 4
___formal$ = 20						; size = 4
??$__uninitialized_copy@PADPAD@_STL@@YAPADPAD00ABU__true_type@0@@Z PROC NEAR ; _STL::__uninitialized_copy<char *,char *>, COMDAT

; 55   :   return __copy_aux(__first, __last, __result, _BothPtrType< _InputIter, _ForwardIter> :: _Ret());

  00000	8b 44 24 04	 mov	 eax, DWORD PTR ___first$[esp-4]
  00004	56		 push	 esi
  00005	8b 74 24 0c	 mov	 esi, DWORD PTR ___last$[esp]
  00009	3b f0		 cmp	 esi, eax
  0000b	75 06		 jne	 SHORT $L95497
  0000d	8b 44 24 10	 mov	 eax, DWORD PTR ___result$[esp]
  00011	5e		 pop	 esi

; 56   : }

  00012	c3		 ret	 0

; 55   :   return __copy_aux(__first, __last, __result, _BothPtrType< _InputIter, _ForwardIter> :: _Ret());

$L95497:
  00013	2b f0		 sub	 esi, eax
  00015	56		 push	 esi
  00016	50		 push	 eax
  00017	8b 44 24 18	 mov	 eax, DWORD PTR ___result$[esp+8]
  0001b	50		 push	 eax
  0001c	e8 00 00 00 00	 call	 _memmove
  00021	83 c4 0c	 add	 esp, 12			; 0000000cH
  00024	03 c6		 add	 eax, esi
  00026	5e		 pop	 esi

; 56   : }

  00027	c3		 ret	 0
??$__uninitialized_copy@PADPAD@_STL@@YAPADPAD00ABU__true_type@0@@Z ENDP ; _STL::__uninitialized_copy<char *,char *>
_TEXT	ENDS
PUBLIC	??_GC_FRR@@QAEPAXI@Z				; C_FRR::`scalar deleting destructor'
; Function compile flags: /Ogty
;	COMDAT ??_GC_FRR@@QAEPAXI@Z
_TEXT	SEGMENT
___flags$ = 8						; size = 4
??_GC_FRR@@QAEPAXI@Z PROC NEAR				; C_FRR::`scalar deleting destructor', COMDAT
; _this$ = ecx
  00000	56		 push	 esi
  00001	8b f1		 mov	 esi, ecx
  00003	e8 00 00 00 00	 call	 ??1C_FRR@@QAE@XZ	; C_FRR::~C_FRR
  00008	f6 44 24 08 01	 test	 BYTE PTR ___flags$[esp], 1
  0000d	74 09		 je	 SHORT $L95503
  0000f	56		 push	 esi
  00010	e8 00 00 00 00	 call	 ??3@YAXPAX@Z		; operator delete
  00015	83 c4 04	 add	 esp, 4
$L95503:
  00018	8b c6		 mov	 eax, esi
  0001a	5e		 pop	 esi
  0001b	c2 04 00	 ret	 4
??_GC_FRR@@QAEPAXI@Z ENDP				; C_FRR::`scalar deleting destructor'
_TEXT	ENDS
PUBLIC	?RunNextPlayOrder@C_ANIMATION@@QAEXXZ		; C_ANIMATION::RunNextPlayOrder
; Function compile flags: /Ogty
; File c:\darkeden\designed_common\project\new - vs_ui\src\vs_ui_util.cpp
;	COMDAT ?RunNextPlayOrder@C_ANIMATION@@QAEXXZ
_TEXT	SEGMENT
?RunNextPlayOrder@C_ANIMATION@@QAEXXZ PROC NEAR		; C_ANIMATION::RunNextPlayOrder, COMDAT
; _this$ = ecx

; 398  : {

  00000	53		 push	 ebx
  00001	56		 push	 esi
  00002	8b f1		 mov	 esi, ecx

; 399  : 	switch (m_play_order_next)

  00004	8b 46 20	 mov	 eax, DWORD PTR [esi+32]
  00007	48		 dec	 eax
  00008	33 db		 xor	 ebx, ebx
  0000a	83 f8 04	 cmp	 eax, 4
  0000d	77 71		 ja	 SHORT $L95539
  0000f	ff 24 85 00 00
	00 00		 jmp	 DWORD PTR $L95542[eax*4]
$L89236:

; 400  : 	{
; 401  : 		case PLAY:
; 402  : 			Play();

  00016	ff 15 00 00 00
	00		 call	 DWORD PTR __imp__GetTickCount@0

; 411  : 			break;
; 412  : 
; 413  : 		case PLAY_LOOPBACK:
; 414  : 			PlayLoopBack();

  0001c	89 5e 0c	 mov	 DWORD PTR [esi+12], ebx

; 415  : 			break;
; 416  : 	}
; 417  : 
; 418  : 	m_play_order_next = STOP;

  0001f	89 5e 20	 mov	 DWORD PTR [esi+32], ebx
  00022	c7 46 1c 01 00
	00 00		 mov	 DWORD PTR [esi+28], 1
  00029	89 46 04	 mov	 DWORD PTR [esi+4], eax
  0002c	5e		 pop	 esi
  0002d	5b		 pop	 ebx

; 419  : }

  0002e	c3		 ret	 0
$L89237:

; 403  : 			break;
; 404  : 
; 405  : 		case PLAY_BACK:
; 406  : 			PlayBack();

  0002f	ff 15 00 00 00
	00		 call	 DWORD PTR __imp__GetTickCount@0
  00035	89 46 04	 mov	 DWORD PTR [esi+4], eax
  00038	8b 06		 mov	 eax, DWORD PTR [esi]
  0003a	c7 46 1c 03 00
	00 00		 mov	 DWORD PTR [esi+28], 3
  00041	8b 48 04	 mov	 ecx, DWORD PTR [eax+4]
  00044	0f b7 11	 movzx	 edx, WORD PTR [ecx]
  00047	4a		 dec	 edx

; 415  : 			break;
; 416  : 	}
; 417  : 
; 418  : 	m_play_order_next = STOP;

  00048	89 5e 20	 mov	 DWORD PTR [esi+32], ebx
  0004b	89 56 0c	 mov	 DWORD PTR [esi+12], edx
  0004e	5e		 pop	 esi
  0004f	5b		 pop	 ebx

; 419  : }

  00050	c3		 ret	 0
$L89238:

; 407  : 			break;
; 408  : 
; 409  : 		case PLAY_LOOP:
; 410  : 			PlayLoop();

  00051	ff 15 00 00 00
	00		 call	 DWORD PTR __imp__GetTickCount@0

; 411  : 			break;
; 412  : 
; 413  : 		case PLAY_LOOPBACK:
; 414  : 			PlayLoopBack();

  00057	89 5e 0c	 mov	 DWORD PTR [esi+12], ebx

; 415  : 			break;
; 416  : 	}
; 417  : 
; 418  : 	m_play_order_next = STOP;

  0005a	89 5e 20	 mov	 DWORD PTR [esi+32], ebx
  0005d	c7 46 1c 02 00
	00 00		 mov	 DWORD PTR [esi+28], 2
  00064	89 46 04	 mov	 DWORD PTR [esi+4], eax
  00067	5e		 pop	 esi
  00068	5b		 pop	 ebx

; 419  : }

  00069	c3		 ret	 0
$L89239:

; 411  : 			break;
; 412  : 
; 413  : 		case PLAY_LOOPBACK:
; 414  : 			PlayLoopBack();

  0006a	ff 15 00 00 00
	00		 call	 DWORD PTR __imp__GetTickCount@0
  00070	c7 46 1c 05 00
	00 00		 mov	 DWORD PTR [esi+28], 5
  00077	88 5e 18	 mov	 BYTE PTR [esi+24], bl
  0007a	89 46 04	 mov	 DWORD PTR [esi+4], eax
  0007d	89 5e 0c	 mov	 DWORD PTR [esi+12], ebx
$L95539:

; 415  : 			break;
; 416  : 	}
; 417  : 
; 418  : 	m_play_order_next = STOP;

  00080	89 5e 20	 mov	 DWORD PTR [esi+32], ebx
  00083	5e		 pop	 esi
  00084	5b		 pop	 ebx

; 419  : }

  00085	c3		 ret	 0
  00086	8b ff		 npad	 2
$L95542:
  00088	00 00 00 00	 DD	 $L89236
  0008c	00 00 00 00	 DD	 $L89238
  00090	00 00 00 00	 DD	 $L89237
  00094	00 00 00 00	 DD	 $L95539
  00098	00 00 00 00	 DD	 $L89239
?RunNextPlayOrder@C_ANIMATION@@QAEXXZ ENDP		; C_ANIMATION::RunNextPlayOrder
_TEXT	ENDS
PUBLIC	??_R4?$basic_ofstream@DV?$char_traits@D@_STL@@@_STL@@6B@ ; _STL::basic_ofstream<char,_STL::char_traits<char> >::`RTTI Complete Object Locator'
PUBLIC	??_R0?AV?$basic_ofstream@DV?$char_traits@D@_STL@@@_STL@@@8 ; _STL::basic_ofstream<char,_STL::char_traits<char> > `RTTI Type Descriptor'
PUBLIC	??_R3?$basic_ofstream@DV?$char_traits@D@_STL@@@_STL@@8 ; _STL::basic_ofstream<char,_STL::char_traits<char> >::`RTTI Class Hierarchy Descriptor'
PUBLIC	??_R2?$basic_ofstream@DV?$char_traits@D@_STL@@@_STL@@8 ; _STL::basic_ofstream<char,_STL::char_traits<char> >::`RTTI Base Class Array'
PUBLIC	??_R1A@?0A@A@?$basic_ofstream@DV?$char_traits@D@_STL@@@_STL@@8 ; _STL::basic_ofstream<char,_STL::char_traits<char> >::`RTTI Base Class Descriptor at (0,-1,0,0)'
PUBLIC	??1?$basic_ofstream@DV?$char_traits@D@_STL@@@_STL@@UAE@XZ ; _STL::basic_ofstream<char,_STL::char_traits<char> >::~basic_ofstream<char,_STL::char_traits<char> >
PUBLIC	??_7?$basic_ofstream@DV?$char_traits@D@_STL@@@_STL@@6B@ ; _STL::basic_ofstream<char,_STL::char_traits<char> >::`vftable'
PUBLIC	??_G?$basic_ofstream@DV?$char_traits@D@_STL@@@_STL@@UAEPAXI@Z ; _STL::basic_ofstream<char,_STL::char_traits<char> >::`scalar deleting destructor'
EXTRN	??_E?$basic_ofstream@DV?$char_traits@D@_STL@@@_STL@@UAEPAXI@Z:NEAR ; _STL::basic_ofstream<char,_STL::char_traits<char> >::`vector deleting destructor'
;	COMDAT xdata$x
; File c:\stlport-4.6.1\stlport\stl\_ostream.c
xdata$x	SEGMENT
$T95555	DD	0ffffffffH
	DD	FLAT:$L95546
$T95553	DD	019930520H
	DD	01H
	DD	FLAT:$T95555
	DD	2 DUP(00H)
	DD	2 DUP(00H)
xdata$x	ENDS
;	COMDAT ??_7?$basic_ofstream@DV?$char_traits@D@_STL@@@_STL@@6B@
CONST	SEGMENT
??_7?$basic_ofstream@DV?$char_traits@D@_STL@@@_STL@@6B@ DD FLAT:??_R4?$basic_ofstream@DV?$char_traits@D@_STL@@@_STL@@6B@ ; _STL::basic_ofstream<char,_STL::char_traits<char> >::`vftable'
	DD	FLAT:??_E?$basic_ofstream@DV?$char_traits@D@_STL@@@_STL@@UAEPAXI@Z
CONST	ENDS
;	COMDAT ??_R4?$basic_ofstream@DV?$char_traits@D@_STL@@@_STL@@6B@
rdata$r	SEGMENT
??_R4?$basic_ofstream@DV?$char_traits@D@_STL@@@_STL@@6B@ DD 00H ; _STL::basic_ofstream<char,_STL::char_traits<char> >::`RTTI Complete Object Locator'
	DD	0b8H
	DD	00H
	DD	FLAT:??_R0?AV?$basic_ofstream@DV?$char_traits@D@_STL@@@_STL@@@8
	DD	FLAT:??_R3?$basic_ofstream@DV?$char_traits@D@_STL@@@_STL@@8
rdata$r	ENDS
;	COMDAT ??_R0?AV?$basic_ofstream@DV?$char_traits@D@_STL@@@_STL@@@8
_DATA	SEGMENT
??_R0?AV?$basic_ofstream@DV?$char_traits@D@_STL@@@_STL@@@8 DD FLAT:??_7type_info@@6B@ ; _STL::basic_ofstream<char,_STL::char_traits<char> > `RTTI Type Descriptor'
	DD	00H
	DB	'.?AV?$basic_ofstream@DV?$char_traits@D@_STL@@@_STL@@', 00H
_DATA	ENDS
;	COMDAT ??_R3?$basic_ofstream@DV?$char_traits@D@_STL@@@_STL@@8
rdata$r	SEGMENT
??_R3?$basic_ofstream@DV?$char_traits@D@_STL@@@_STL@@8 DD 00H ; _STL::basic_ofstream<char,_STL::char_traits<char> >::`RTTI Class Hierarchy Descriptor'
	DD	00H
	DD	04H
	DD	FLAT:??_R2?$basic_ofstream@DV?$char_traits@D@_STL@@@_STL@@8
rdata$r	ENDS
;	COMDAT ??_R2?$basic_ofstream@DV?$char_traits@D@_STL@@@_STL@@8
rdata$r	SEGMENT
??_R2?$basic_ofstream@DV?$char_traits@D@_STL@@@_STL@@8 DD FLAT:??_R1A@?0A@A@?$basic_ofstream@DV?$char_traits@D@_STL@@@_STL@@8 ; _STL::basic_ofstream<char,_STL::char_traits<char> >::`RTTI Base Class Array'
	DD	FLAT:??_R1A@?0A@A@?$basic_ostream@DV?$char_traits@D@_STL@@@_STL@@8
	DD	FLAT:??_R1A@A@3BA@?$basic_ios@DV?$char_traits@D@_STL@@@_STL@@8
	DD	FLAT:??_R1A@A@3A@ios_base@_STL@@8
rdata$r	ENDS
;	COMDAT ??_R1A@?0A@A@?$basic_ofstream@DV?$char_traits@D@_STL@@@_STL@@8
rdata$r	SEGMENT
??_R1A@?0A@A@?$basic_ofstream@DV?$char_traits@D@_STL@@@_STL@@8 DD FLAT:??_R0?AV?$basic_ofstream@DV?$char_traits@D@_STL@@@_STL@@@8 ; _STL::basic_ofstream<char,_STL::char_traits<char> >::`RTTI Base Class Descriptor at (0,-1,0,0)'
	DD	03H
	DD	00H
	DD	0ffffffffH
	DD	00H
	DD	00H
; Function compile flags: /Ogty
; File c:\stlport-4.6.1\stlport\stl\_fstream.h
rdata$r	ENDS
;	COMDAT ??1?$basic_ofstream@DV?$char_traits@D@_STL@@@_STL@@UAE@XZ
_TEXT	SEGMENT
_this$ = -16						; size = 4
__$EHRec$ = -12						; size = 12
??1?$basic_ofstream@DV?$char_traits@D@_STL@@@_STL@@UAE@XZ PROC NEAR ; _STL::basic_ofstream<char,_STL::char_traits<char> >::~basic_ofstream<char,_STL::char_traits<char> >, COMDAT
; _this$ = ecx

; 616  :   ~basic_ofstream() {}

  00000	6a ff		 push	 -1
  00002	68 00 00 00 00	 push	 __ehhandler$??1?$basic_ofstream@DV?$char_traits@D@_STL@@@_STL@@UAE@XZ
  00007	64 a1 00 00 00
	00		 mov	 eax, DWORD PTR fs:__except_list
  0000d	50		 push	 eax
  0000e	64 89 25 00 00
	00 00		 mov	 DWORD PTR fs:__except_list, esp
  00015	51		 push	 ecx
  00016	8b 81 48 ff ff
	ff		 mov	 eax, DWORD PTR [ecx-184]
  0001c	8b 50 04	 mov	 edx, DWORD PTR [eax+4]
  0001f	56		 push	 esi
  00020	89 4c 24 04	 mov	 DWORD PTR _this$[esp+20], ecx
  00024	c7 84 0a 48 ff
	ff ff 00 00 00
	00		 mov	 DWORD PTR [edx+ecx-184], OFFSET FLAT:??_7?$basic_ofstream@DV?$char_traits@D@_STL@@@_STL@@6B@
  0002f	8d b1 4c ff ff
	ff		 lea	 esi, DWORD PTR [ecx-180]
  00035	8b ce		 mov	 ecx, esi
  00037	c7 44 24 10 00
	00 00 00	 mov	 DWORD PTR __$EHRec$[esp+28], 0
  0003f	e8 00 00 00 00	 call	 ??1?$basic_filebuf@DV?$char_traits@D@_STL@@@_STL@@UAE@XZ ; _STL::basic_filebuf<char,_STL::char_traits<char> >::~basic_filebuf<char,_STL::char_traits<char> >
  00044	8b 46 fc	 mov	 eax, DWORD PTR [esi-4]
  00047	8b 48 04	 mov	 ecx, DWORD PTR [eax+4]
  0004a	c7 44 31 fc 00
	00 00 00	 mov	 DWORD PTR [ecx+esi-4], OFFSET FLAT:??_7?$basic_ostream@DV?$char_traits@D@_STL@@@_STL@@6B@
  00052	8b 4c 24 08	 mov	 ecx, DWORD PTR __$EHRec$[esp+20]
  00056	5e		 pop	 esi
  00057	64 89 0d 00 00
	00 00		 mov	 DWORD PTR fs:__except_list, ecx
  0005e	83 c4 10	 add	 esp, 16			; 00000010H
  00061	c3		 ret	 0
_TEXT	ENDS
;	COMDAT text$x
text$x	SEGMENT
$L95546:
  00000	8b 4d f0	 mov	 ecx, DWORD PTR _this$[ebp]
  00003	81 e9 b4 00 00
	00		 sub	 ecx, 180		; 000000b4H
  00009	e9 00 00 00 00	 jmp	 ??1?$basic_ostream@DV?$char_traits@D@_STL@@@_STL@@UAE@XZ ; _STL::basic_ostream<char,_STL::char_traits<char> >::~basic_ostream<char,_STL::char_traits<char> >
__ehhandler$??1?$basic_ofstream@DV?$char_traits@D@_STL@@@_STL@@UAE@XZ:
  0000e	b8 00 00 00 00	 mov	 eax, OFFSET FLAT:$T95553
  00013	e9 00 00 00 00	 jmp	 ___CxxFrameHandler
text$x	ENDS
??1?$basic_ofstream@DV?$char_traits@D@_STL@@@_STL@@UAE@XZ ENDP ; _STL::basic_ofstream<char,_STL::char_traits<char> >::~basic_ofstream<char,_STL::char_traits<char> >
PUBLIC	?close@?$basic_ofstream@DV?$char_traits@D@_STL@@@_STL@@QAEXXZ ; _STL::basic_ofstream<char,_STL::char_traits<char> >::close
; Function compile flags: /Ogty
;	COMDAT ?close@?$basic_ofstream@DV?$char_traits@D@_STL@@@_STL@@QAEXXZ
_TEXT	SEGMENT
?close@?$basic_ofstream@DV?$char_traits@D@_STL@@@_STL@@QAEXXZ PROC NEAR ; _STL::basic_ofstream<char,_STL::char_traits<char> >::close, COMDAT
; _this$ = ecx

; 631  :   void close() {

  00000	56		 push	 esi
  00001	8b f1		 mov	 esi, ecx

; 632  :     if (!this->rdbuf()->close())

  00003	8d 4e 04	 lea	 ecx, DWORD PTR [esi+4]
  00006	e8 00 00 00 00	 call	 ?close@?$basic_filebuf@DV?$char_traits@D@_STL@@@_STL@@QAEPAV12@XZ ; _STL::basic_filebuf<char,_STL::char_traits<char> >::close
  0000b	85 c0		 test	 eax, eax
  0000d	75 27		 jne	 SHORT $L95608

; 633  :       this->setstate(ios_base::failbit);

  0000f	8b 06		 mov	 eax, DWORD PTR [esi]
  00011	8b 48 04	 mov	 ecx, DWORD PTR [eax+4]
  00014	8b 44 31 08	 mov	 eax, DWORD PTR [ecx+esi+8]
  00018	8b 54 31 58	 mov	 edx, DWORD PTR [ecx+esi+88]
  0001c	03 ce		 add	 ecx, esi
  0001e	83 c8 04	 or	 eax, 4
  00021	85 d2		 test	 edx, edx
  00023	75 03		 jne	 SHORT $L95601
  00025	83 c8 01	 or	 eax, 1
$L95601:
  00028	85 41 14	 test	 DWORD PTR [ecx+20], eax
  0002b	89 41 08	 mov	 DWORD PTR [ecx+8], eax
  0002e	74 06		 je	 SHORT $L95608
  00030	5e		 pop	 esi
  00031	e9 00 00 00 00	 jmp	 ?_M_throw_failure@ios_base@_STL@@IAEXXZ ; _STL::ios_base::_M_throw_failure
$L95608:
  00036	5e		 pop	 esi

; 634  :   }

  00037	c3		 ret	 0
?close@?$basic_ofstream@DV?$char_traits@D@_STL@@@_STL@@QAEXXZ ENDP ; _STL::basic_ofstream<char,_STL::char_traits<char> >::close
_TEXT	ENDS
PUBLIC	??1?$_String_base@DV?$allocator@D@_STL@@@_STL@@QAE@XZ ; _STL::_String_base<char,_STL::allocator<char> >::~_String_base<char,_STL::allocator<char> >
; Function compile flags: /Ogty
; File c:\stlport-4.6.1\stlport\stl\_string.h
;	COMDAT ??1?$_String_base@DV?$allocator@D@_STL@@@_STL@@QAE@XZ
_TEXT	SEGMENT
??1?$_String_base@DV?$allocator@D@_STL@@@_STL@@QAE@XZ PROC NEAR ; _STL::_String_base<char,_STL::allocator<char> >::~_String_base<char,_STL::allocator<char> >, COMDAT
; _this$ = ecx

; 135  :   ~_String_base() { _M_deallocate_block(); }

  00000	8b 11		 mov	 edx, DWORD PTR [ecx]
  00002	8b 41 08	 mov	 eax, DWORD PTR [ecx+8]
  00005	2b c2		 sub	 eax, edx
  00007	85 d2		 test	 edx, edx
  00009	74 1b		 je	 SHORT $L95646
  0000b	3d 80 00 00 00	 cmp	 eax, 128		; 00000080H
  00010	76 0a		 jbe	 SHORT $L95645
  00012	52		 push	 edx
  00013	e8 00 00 00 00	 call	 ??3@YAXPAX@Z		; operator delete
  00018	83 c4 04	 add	 esp, 4
  0001b	c3		 ret	 0
$L95645:
  0001c	50		 push	 eax
  0001d	52		 push	 edx
  0001e	e8 00 00 00 00	 call	 ?_M_deallocate@?$__node_alloc@$00$0A@@_STL@@CAXPAXI@Z ; _STL::__node_alloc<1,0>::_M_deallocate
  00023	83 c4 08	 add	 esp, 8
$L95646:
  00026	c3		 ret	 0
??1?$_String_base@DV?$allocator@D@_STL@@@_STL@@QAE@XZ ENDP ; _STL::_String_base<char,_STL::allocator<char> >::~_String_base<char,_STL::allocator<char> >
_TEXT	ENDS
PUBLIC	?_M_switch_to_output_mode@?$basic_filebuf@DV?$char_traits@D@_STL@@@_STL@@AAE_NXZ ; _STL::basic_filebuf<char,_STL::char_traits<char> >::_M_switch_to_output_mode
PUBLIC	?_M_output_error@?$basic_filebuf@DV?$char_traits@D@_STL@@@_STL@@AAEHXZ ; _STL::basic_filebuf<char,_STL::char_traits<char> >::_M_output_error
; Function compile flags: /Ogty
; File c:\stlport-4.6.1\stlport\stl\_fstream.c
;	COMDAT ?overflow@?$basic_filebuf@DV?$char_traits@D@_STL@@@_STL@@MAEHH@Z
_TEXT	SEGMENT
___inext$73572 = -8					; size = 4
___enext$73573 = -4					; size = 4
___c$ = 8						; size = 4
?overflow@?$basic_filebuf@DV?$char_traits@D@_STL@@@_STL@@MAEHH@Z PROC NEAR ; _STL::basic_filebuf<char,_STL::char_traits<char> >::overflow, COMDAT
; _this$ = ecx

; 213  : {

  00000	83 ec 08	 sub	 esp, 8
  00003	56		 push	 esi
  00004	8b f1		 mov	 esi, ecx

; 214  :   // Switch to output mode, if necessary.
; 215  :   if (!_M_in_output_mode)

  00006	8a 46 68	 mov	 al, BYTE PTR [esi+104]
  00009	84 c0		 test	 al, al
  0000b	75 13		 jne	 SHORT $L73564

; 216  :     if (!_M_switch_to_output_mode())

  0000d	e8 00 00 00 00	 call	 ?_M_switch_to_output_mode@?$basic_filebuf@DV?$char_traits@D@_STL@@@_STL@@AAE_NXZ ; _STL::basic_filebuf<char,_STL::char_traits<char> >::_M_switch_to_output_mode
  00012	84 c0		 test	 al, al
  00014	75 0a		 jne	 SHORT $L73564

; 217  :       return traits_type::eof();

  00016	83 c8 ff	 or	 eax, -1
  00019	5e		 pop	 esi

; 260  : }

  0001a	83 c4 08	 add	 esp, 8
  0001d	c2 04 00	 ret	 4
$L73564:

; 218  : 
; 219  :   _CharT* __ibegin = this->_M_int_buf;
; 220  :   _CharT* __iend   = this->pptr();
; 221  :   this->setp(_M_int_buf, _M_int_buf_EOS - 1);

  00020	8b 46 70	 mov	 eax, DWORD PTR [esi+112]
  00023	8b 4e 08	 mov	 ecx, DWORD PTR [esi+8]
  00026	55		 push	 ebp
  00027	8b 29		 mov	 ebp, DWORD PTR [ecx]
  00029	48		 dec	 eax
  0002a	57		 push	 edi
  0002b	8b 7e 6c	 mov	 edi, DWORD PTR [esi+108]
  0002e	2b c7		 sub	 eax, edi
  00030	89 41 04	 mov	 DWORD PTR [ecx+4], eax

; 222  : 
; 223  :   // Put __c at the end of the internal buffer.
; 224  :   if (!traits_type::eq_int_type(__c, traits_type::eof()))

  00033	8b 44 24 18	 mov	 eax, DWORD PTR ___c$[esp+16]
  00037	83 f8 ff	 cmp	 eax, -1
  0003a	89 79 08	 mov	 DWORD PTR [ecx+8], edi
  0003d	89 39		 mov	 DWORD PTR [ecx], edi
  0003f	74 04		 je	 SHORT $L95874

; 225  :     *__iend++ = __c;

  00041	88 45 00	 mov	 BYTE PTR [ebp], al
  00044	45		 inc	 ebp
$L95874:

; 226  : 
; 227  :   // For variable-width encodings, output may take more than one pass.
; 228  :   while (__ibegin != __iend) {

  00045	3b fd		 cmp	 edi, ebp
  00047	53		 push	 ebx
  00048	0f 84 8c 00 00
	00		 je	 $L73571
  0004e	8b ff		 npad	 2
$L73570:

; 229  :     const _CharT* __inext = __ibegin;
; 230  :     char* __enext         = _M_ext_buf;

  00050	8b 46 74	 mov	 eax, DWORD PTR [esi+116]

; 231  :     typename _Codecvt::result __status
; 232  :       = _M_codecvt->out(_M_state, __ibegin, __iend, __inext,
; 233  :                                   _M_ext_buf, _M_ext_buf_EOS, __enext);

  00053	8b 8e a0 00 00
	00		 mov	 ecx, DWORD PTR [esi+160]
  00059	8d 54 24 14	 lea	 edx, DWORD PTR ___enext$73573[esp+24]
  0005d	52		 push	 edx
  0005e	8b 56 78	 mov	 edx, DWORD PTR [esi+120]
  00061	52		 push	 edx
  00062	50		 push	 eax
  00063	89 44 24 20	 mov	 DWORD PTR ___enext$73573[esp+36], eax
  00067	8d 44 24 1c	 lea	 eax, DWORD PTR ___inext$73572[esp+36]
  0006b	50		 push	 eax
  0006c	55		 push	 ebp
  0006d	57		 push	 edi
  0006e	8d 86 84 00 00
	00		 lea	 eax, DWORD PTR [esi+132]
  00074	89 7c 24 28	 mov	 DWORD PTR ___inext$73572[esp+48], edi
  00078	8b 19		 mov	 ebx, DWORD PTR [ecx]
  0007a	50		 push	 eax
  0007b	ff 53 04	 call	 DWORD PTR [ebx+4]

; 234  :     if (__status == _Codecvt::noconv)

  0007e	83 f8 03	 cmp	 eax, 3
  00081	74 6c		 je	 SHORT $L95875

; 238  : 
; 239  :     // For a constant-width encoding we know that the external buffer
; 240  :     // is large enough, so failure to consume the entire internal buffer
; 241  :     // or to produce the correct number of external characters, is an error.
; 242  :     // For a variable-width encoding, however, we require only that we 
; 243  :     // consume at least one internal character
; 244  :     else if (__status != _Codecvt::error && 
; 245  :              ((__inext == __iend && (__enext - _M_ext_buf == 
; 246  :                                      _M_width * (__iend - __ibegin))) ||
; 247  :               (!_M_constant_width && __inext != __ibegin))) {

  00083	83 f8 02	 cmp	 eax, 2
  00086	0f 84 8c 00 00
	00		 je	 $L95654
  0008c	8b 4c 24 10	 mov	 ecx, DWORD PTR ___inext$73572[esp+24]
  00090	3b cd		 cmp	 ecx, ebp
  00092	8b 44 24 14	 mov	 eax, DWORD PTR ___enext$73573[esp+24]
  00096	75 14		 jne	 SHORT $L73579
  00098	8b d5		 mov	 edx, ebp
  0009a	2b d7		 sub	 edx, edi
  0009c	0f af 96 a4 00
	00 00		 imul	 edx, DWORD PTR [esi+164]
  000a3	8b d8		 mov	 ebx, eax
  000a5	2b 5e 74	 sub	 ebx, DWORD PTR [esi+116]
  000a8	3b da		 cmp	 ebx, edx
  000aa	74 0b		 je	 SHORT $L73578
$L73579:
  000ac	8a 56 64	 mov	 dl, BYTE PTR [esi+100]
  000af	84 d2		 test	 dl, dl
  000b1	75 65		 jne	 SHORT $L95654
  000b3	3b cf		 cmp	 ecx, edi
  000b5	74 61		 je	 SHORT $L95654
$L73578:

; 248  :         // We successfully converted part or all of the internal buffer.
; 249  :       ptrdiff_t __n = __enext - _M_ext_buf;

  000b7	8b 4e 74	 mov	 ecx, DWORD PTR [esi+116]
  000ba	2b c1		 sub	 eax, ecx

; 250  :       if (_M_write(_M_ext_buf, __n))

  000bc	50		 push	 eax
  000bd	51		 push	 ecx
  000be	8d 4e 54	 lea	 ecx, DWORD PTR [esi+84]
  000c1	e8 00 00 00 00	 call	 ?_M_write@_Filebuf_base@_STL@@QAE_NPADH@Z ; _STL::_Filebuf_base::_M_write
  000c6	84 c0		 test	 al, al
  000c8	74 4e		 je	 SHORT $L95654

; 251  :         __ibegin += __inext - __ibegin;

  000ca	8b 7c 24 10	 mov	 edi, DWORD PTR ___inext$73572[esp+24]
  000ce	3b fd		 cmp	 edi, ebp
  000d0	0f 85 7a ff ff
	ff		 jne	 $L73570

; 234  :     if (__status == _Codecvt::noconv)

  000d6	8b 44 24 1c	 mov	 eax, DWORD PTR ___c$[esp+20]
$L73571:

; 252  :       else
; 253  :         return _M_output_error();
; 254  :     }
; 255  :     else
; 256  :       return _M_output_error();
; 257  :   }
; 258  : 
; 259  :   return traits_type::not_eof(__c);

  000da	33 d2		 xor	 edx, edx
  000dc	83 f8 ff	 cmp	 eax, -1
  000df	0f 94 c2	 sete	 dl
  000e2	5b		 pop	 ebx
  000e3	5f		 pop	 edi
  000e4	5d		 pop	 ebp
  000e5	5e		 pop	 esi
  000e6	4a		 dec	 edx
  000e7	23 c2		 and	 eax, edx

; 260  : }

  000e9	83 c4 08	 add	 esp, 8
  000ec	c2 04 00	 ret	 4
$L95875:

; 235  :       return _Noconv_output<_Traits>::_M_doit(this, __ibegin, __iend)
; 236  :         ? traits_type::not_eof(__c)
; 237  :         : _M_output_error();

  000ef	2b ef		 sub	 ebp, edi
  000f1	55		 push	 ebp
  000f2	57		 push	 edi
  000f3	8d 4e 54	 lea	 ecx, DWORD PTR [esi+84]
  000f6	e8 00 00 00 00	 call	 ?_M_write@_Filebuf_base@_STL@@QAE_NPADH@Z ; _STL::_Filebuf_base::_M_write
  000fb	84 c0		 test	 al, al
  000fd	74 19		 je	 SHORT $L95654
  000ff	8b 44 24 1c	 mov	 eax, DWORD PTR ___c$[esp+20]
  00103	33 c9		 xor	 ecx, ecx
  00105	83 f8 ff	 cmp	 eax, -1
  00108	0f 94 c1	 sete	 cl
  0010b	5b		 pop	 ebx
  0010c	5f		 pop	 edi
  0010d	5d		 pop	 ebp
  0010e	5e		 pop	 esi
  0010f	49		 dec	 ecx
  00110	23 c1		 and	 eax, ecx

; 260  : }

  00112	83 c4 08	 add	 esp, 8
  00115	c2 04 00	 ret	 4
$L95654:

; 235  :       return _Noconv_output<_Traits>::_M_doit(this, __ibegin, __iend)
; 236  :         ? traits_type::not_eof(__c)
; 237  :         : _M_output_error();

  00118	8b ce		 mov	 ecx, esi
  0011a	e8 00 00 00 00	 call	 ?_M_output_error@?$basic_filebuf@DV?$char_traits@D@_STL@@@_STL@@AAEHXZ ; _STL::basic_filebuf<char,_STL::char_traits<char> >::_M_output_error
  0011f	5b		 pop	 ebx
  00120	5f		 pop	 edi
  00121	5d		 pop	 ebp
  00122	5e		 pop	 esi

; 260  : }

  00123	83 c4 08	 add	 esp, 8
  00126	c2 04 00	 ret	 4
?overflow@?$basic_filebuf@DV?$char_traits@D@_STL@@@_STL@@MAEHH@Z ENDP ; _STL::basic_filebuf<char,_STL::char_traits<char> >::overflow
; Function compile flags: /Ogty
_TEXT	ENDS
;	COMDAT ?_M_output_error@?$basic_filebuf@DV?$char_traits@D@_STL@@@_STL@@AAEHXZ
_TEXT	SEGMENT
?_M_output_error@?$basic_filebuf@DV?$char_traits@D@_STL@@@_STL@@AAEHXZ PROC NEAR ; _STL::basic_filebuf<char,_STL::char_traits<char> >::_M_output_error, COMDAT
; _this$ = ecx

; 591  :   _M_in_output_mode = false;

  00000	33 c0		 xor	 eax, eax
  00002	88 41 68	 mov	 BYTE PTR [ecx+104], al

; 592  :   _M_in_input_mode = false;

  00005	88 41 67	 mov	 BYTE PTR [ecx+103], al

; 593  :   _M_in_error_mode = true;

  00008	c6 41 69 01	 mov	 BYTE PTR [ecx+105], 1

; 594  :   this->setp(0, 0);

  0000c	8b 49 08	 mov	 ecx, DWORD PTR [ecx+8]
  0000f	89 41 08	 mov	 DWORD PTR [ecx+8], eax
  00012	89 01		 mov	 DWORD PTR [ecx], eax
  00014	89 41 04	 mov	 DWORD PTR [ecx+4], eax

; 595  :   return traits_type::eof();

  00017	83 c8 ff	 or	 eax, -1

; 596  : }

  0001a	c3		 ret	 0
?_M_output_error@?$basic_filebuf@DV?$char_traits@D@_STL@@@_STL@@AAEHXZ ENDP ; _STL::basic_filebuf<char,_STL::char_traits<char> >::_M_output_error
_TEXT	ENDS
EXTRN	?_M_page_size@_Filebuf_base@_STL@@1IA:DWORD	; _STL::_Filebuf_base::_M_page_size
; Function compile flags: /Ogty
;	COMDAT ?_M_switch_to_output_mode@?$basic_filebuf@DV?$char_traits@D@_STL@@@_STL@@AAE_NXZ
_TEXT	SEGMENT
?_M_switch_to_output_mode@?$basic_filebuf@DV?$char_traits@D@_STL@@@_STL@@AAE_NXZ PROC NEAR ; _STL::basic_filebuf<char,_STL::char_traits<char> >::_M_switch_to_output_mode, COMDAT
; _this$ = ecx

; 471  : {

  00000	56		 push	 esi
  00001	8b f1		 mov	 esi, ecx

; 472  :   if (this->is_open() && (_M_base.__o_mode() & (int)ios_base::out) &&
; 473  :       _M_in_input_mode == 0 && _M_in_error_mode == 0) {

  00003	8a 46 60	 mov	 al, BYTE PTR [esi+96]
  00006	84 c0		 test	 al, al
  00008	74 6a		 je	 SHORT $L89922
  0000a	f6 46 5c 10	 test	 BYTE PTR [esi+92], 16	; 00000010H
  0000e	74 64		 je	 SHORT $L89922
  00010	8a 46 67	 mov	 al, BYTE PTR [esi+103]
  00013	84 c0		 test	 al, al
  00015	75 5d		 jne	 SHORT $L89922
  00017	8a 46 69	 mov	 al, BYTE PTR [esi+105]
  0001a	84 c0		 test	 al, al
  0001c	75 56		 jne	 SHORT $L89922

; 474  : 
; 475  :     if (!_M_int_buf && !_M_allocate_buffers())

  0001e	8b 46 6c	 mov	 eax, DWORD PTR [esi+108]
  00021	85 c0		 test	 eax, eax
  00023	75 21		 jne	 SHORT $L89923
  00025	8b 0d 00 00 00
	00		 mov	 ecx, DWORD PTR ?_M_page_size@_Filebuf_base@_STL@@1IA ; _STL::_Filebuf_base::_M_page_size
  0002b	8d 81 ff 0f 00
	00		 lea	 eax, DWORD PTR [ecx+4095]
  00031	33 d2		 xor	 edx, edx
  00033	f7 f1		 div	 ecx
  00035	0f af c1	 imul	 eax, ecx
  00038	50		 push	 eax
  00039	6a 00		 push	 0
  0003b	8b ce		 mov	 ecx, esi
  0003d	e8 00 00 00 00	 call	 ?_M_allocate_buffers@?$basic_filebuf@DV?$char_traits@D@_STL@@@_STL@@AAE_NPADH@Z ; _STL::basic_filebuf<char,_STL::char_traits<char> >::_M_allocate_buffers
  00042	84 c0		 test	 al, al

; 476  :       return false;

  00044	74 2e		 je	 SHORT $L89922
$L89923:

; 477  : 
; 478  :     // In append mode, every write does an implicit seek to the end
; 479  :     // of the file.  Whenever leaving output mode, the end of file
; 480  :     // get put in the initial shift state.
; 481  :     if (_M_base.__o_mode() & ios_base::app)

  00046	8a 4e 5c	 mov	 cl, BYTE PTR [esi+92]
  00049	b0 01		 mov	 al, 1
  0004b	84 c8		 test	 cl, al
  0004d	74 0a		 je	 SHORT $L89924

; 482  :       _M_state = _State_type();

  0004f	c7 86 84 00 00
	00 00 00 00 00	 mov	 DWORD PTR [esi+132], 0
$L89924:

; 483  : 
; 484  :     this->setp(_M_int_buf, _M_int_buf_EOS - 1);

  00059	8b 4e 70	 mov	 ecx, DWORD PTR [esi+112]
  0005c	8b 56 6c	 mov	 edx, DWORD PTR [esi+108]
  0005f	57		 push	 edi
  00060	8b 7e 08	 mov	 edi, DWORD PTR [esi+8]
  00063	49		 dec	 ecx
  00064	2b ca		 sub	 ecx, edx
  00066	89 57 08	 mov	 DWORD PTR [edi+8], edx
  00069	89 17		 mov	 DWORD PTR [edi], edx
  0006b	89 4f 04	 mov	 DWORD PTR [edi+4], ecx
  0006e	5f		 pop	 edi

; 485  :     _M_in_output_mode = true;

  0006f	88 46 68	 mov	 BYTE PTR [esi+104], al
  00072	5e		 pop	 esi

; 491  : }

  00073	c3		 ret	 0
$L89922:

; 486  : 
; 487  :     return true;
; 488  :   }
; 489  :   else
; 490  :     return false;

  00074	32 c0		 xor	 al, al
  00076	5e		 pop	 esi

; 491  : }

  00077	c3		 ret	 0
?_M_switch_to_output_mode@?$basic_filebuf@DV?$char_traits@D@_STL@@@_STL@@AAE_NXZ ENDP ; _STL::basic_filebuf<char,_STL::char_traits<char> >::_M_switch_to_output_mode
_TEXT	ENDS
PUBLIC	??0?$basic_string@DV?$char_traits@D@_STL@@V?$allocator@D@2@@_STL@@QAE@XZ ; _STL::basic_string<char,_STL::char_traits<char>,_STL::allocator<char> >::basic_string<char,_STL::char_traits<char>,_STL::allocator<char> >
;	COMDAT xdata$x
; File c:\stlport-4.6.1\stlport\stl\_string.h
xdata$x	SEGMENT
$T96016	DD	0ffffffffH
	DD	FLAT:$L95962
$T96014	DD	019930520H
	DD	01H
	DD	FLAT:$T96016
	DD	2 DUP(00H)
	DD	2 DUP(00H)
; Function compile flags: /Ogty
; File c:\stlport-4.6.1\stlport\stl\_string.c
xdata$x	ENDS
;	COMDAT ??0?$basic_string@DV?$char_traits@D@_STL@@V?$allocator@D@2@@_STL@@QAE@XZ
_TEXT	SEGMENT
_this$ = -16						; size = 4
__$EHRec$ = -12						; size = 12
??0?$basic_string@DV?$char_traits@D@_STL@@V?$allocator@D@2@@_STL@@QAE@XZ PROC NEAR ; _STL::basic_string<char,_STL::char_traits<char>,_STL::allocator<char> >::basic_string<char,_STL::char_traits<char>,_STL::allocator<char> >, COMDAT
; _this$ = ecx

; 541  :   : _String_base<_CharT,_Alloc>(allocator_type()) {  

  00000	6a ff		 push	 -1
  00002	68 00 00 00 00	 push	 __ehhandler$??0?$basic_string@DV?$char_traits@D@_STL@@V?$allocator@D@2@@_STL@@QAE@XZ
  00007	64 a1 00 00 00
	00		 mov	 eax, DWORD PTR fs:__except_list
  0000d	50		 push	 eax
  0000e	64 89 25 00 00
	00 00		 mov	 DWORD PTR fs:__except_list, esp
  00015	51		 push	 ecx
  00016	56		 push	 esi
  00017	8b f1		 mov	 esi, ecx
  00019	c7 06 00 00 00
	00		 mov	 DWORD PTR [esi], 0
  0001f	c7 46 04 00 00
	00 00		 mov	 DWORD PTR [esi+4], 0
  00026	89 74 24 04	 mov	 DWORD PTR _this$[esp+20], esi
  0002a	c7 46 08 00 00
	00 00		 mov	 DWORD PTR [esi+8], 0

; 542  :   this->_M_start = this->_M_end_of_storage.allocate(8); 

  00031	6a 08		 push	 8
  00033	c7 44 24 14 00
	00 00 00	 mov	 DWORD PTR __$EHRec$[esp+32], 0
  0003b	e8 00 00 00 00	 call	 ?_M_allocate@?$__node_alloc@$00$0A@@_STL@@CAPAXI@Z ; _STL::__node_alloc<1,0>::_M_allocate

; 543  :   this->_M_finish = this->_M_start; 
; 544  :   this->_M_end_of_storage._M_data = this->_M_start + 8; 

  00040	8d 48 08	 lea	 ecx, DWORD PTR [eax+8]
  00043	89 06		 mov	 DWORD PTR [esi], eax
  00045	89 46 04	 mov	 DWORD PTR [esi+4], eax
  00048	89 4e 08	 mov	 DWORD PTR [esi+8], ecx

; 545  :   _M_terminate_string();  
; 546  : } 

  0004b	8b 4c 24 0c	 mov	 ecx, DWORD PTR __$EHRec$[esp+24]
  0004f	c6 00 00	 mov	 BYTE PTR [eax], 0
  00052	83 c4 04	 add	 esp, 4
  00055	8b c6		 mov	 eax, esi
  00057	5e		 pop	 esi
  00058	64 89 0d 00 00
	00 00		 mov	 DWORD PTR fs:__except_list, ecx
  0005f	83 c4 10	 add	 esp, 16			; 00000010H
  00062	c3		 ret	 0
_TEXT	ENDS
;	COMDAT text$x
text$x	SEGMENT
$L95962:
  00000	8b 4d f0	 mov	 ecx, DWORD PTR _this$[ebp]
  00003	e9 00 00 00 00	 jmp	 ??1?$_String_base@DV?$allocator@D@_STL@@@_STL@@QAE@XZ ; _STL::_String_base<char,_STL::allocator<char> >::~_String_base<char,_STL::allocator<char> >
__ehhandler$??0?$basic_string@DV?$char_traits@D@_STL@@V?$allocator@D@2@@_STL@@QAE@XZ:
  00008	b8 00 00 00 00	 mov	 eax, OFFSET FLAT:$T96014
  0000d	e9 00 00 00 00	 jmp	 ___CxxFrameHandler
text$x	ENDS
??0?$basic_string@DV?$char_traits@D@_STL@@V?$allocator@D@2@@_STL@@QAE@XZ ENDP ; _STL::basic_string<char,_STL::char_traits<char>,_STL::allocator<char> >::basic_string<char,_STL::char_traits<char>,_STL::allocator<char> >
PUBLIC	??1?$_Rb_tree@GU?$pair@$$CBGPAVivfstream@@@_STL@@U?$_Select1st@U?$pair@$$CBGPAVivfstream@@@_STL@@@2@U?$less@G@2@V?$allocator@U?$pair@$$CBGPAVivfstream@@@_STL@@@2@@_STL@@QAE@XZ ; _STL::_Rb_tree<unsigned short,_STL::pair<unsigned short const ,ivfstream *>,_STL::_Select1st<_STL::pair<unsigned short const ,ivfstream *> >,_STL::less<unsigned short>,_STL::allocator<_STL::pair<unsigned short const ,ivfstream *> > >::~_Rb_tree<unsigned short,_STL::pair<unsigned short const ,ivfstream *>,_STL::_Select1st<_STL::pair<unsigned short const ,ivfstream *> >,_STL::less<unsigned short>,_STL::allocator<_STL::pair<unsigned short const ,ivfstream *> > >
;	COMDAT xdata$x
; File c:\stlport-4.6.1\stlport\stl\_new.h
xdata$x	SEGMENT
$T96084	DD	0ffffffffH
	DD	FLAT:$L96022
$T96082	DD	019930520H
	DD	01H
	DD	FLAT:$T96084
	DD	2 DUP(00H)
	DD	2 DUP(00H)
; Function compile flags: /Ogty
; File c:\stlport-4.6.1\stlport\stl\_tree.h
xdata$x	ENDS
;	COMDAT ??1?$_Rb_tree@GU?$pair@$$CBGPAVivfstream@@@_STL@@U?$_Select1st@U?$pair@$$CBGPAVivfstream@@@_STL@@@2@U?$less@G@2@V?$allocator@U?$pair@$$CBGPAVivfstream@@@_STL@@@2@@_STL@@QAE@XZ
_TEXT	SEGMENT
_this$ = -16						; size = 4
__$EHRec$ = -12						; size = 12
??1?$_Rb_tree@GU?$pair@$$CBGPAVivfstream@@@_STL@@U?$_Select1st@U?$pair@$$CBGPAVivfstream@@@_STL@@@2@U?$less@G@2@V?$allocator@U?$pair@$$CBGPAVivfstream@@@_STL@@@2@@_STL@@QAE@XZ PROC NEAR ; _STL::_Rb_tree<unsigned short,_STL::pair<unsigned short const ,ivfstream *>,_STL::_Select1st<_STL::pair<unsigned short const ,ivfstream *> >,_STL::less<unsigned short>,_STL::allocator<_STL::pair<unsigned short const ,ivfstream *> > >::~_Rb_tree<unsigned short,_STL::pair<unsigned short const ,ivfstream *>,_STL::_Select1st<_STL::pair<unsigned short const ,ivfstream *> >,_STL::less<unsigned short>,_STL::allocator<_STL::pair<unsigned short const ,ivfstream *> > >, COMDAT
; _this$ = ecx

; 341  :   ~_Rb_tree() { clear(); }

  00000	6a ff		 push	 -1
  00002	68 00 00 00 00	 push	 __ehhandler$??1?$_Rb_tree@GU?$pair@$$CBGPAVivfstream@@@_STL@@U?$_Select1st@U?$pair@$$CBGPAVivfstream@@@_STL@@@2@U?$less@G@2@V?$allocator@U?$pair@$$CBGPAVivfstream@@@_STL@@@2@@_STL@@QAE@XZ
  00007	64 a1 00 00 00
	00		 mov	 eax, DWORD PTR fs:__except_list
  0000d	50		 push	 eax
  0000e	64 89 25 00 00
	00 00		 mov	 DWORD PTR fs:__except_list, esp
  00015	51		 push	 ecx
  00016	56		 push	 esi
  00017	8b f1		 mov	 esi, ecx
  00019	89 74 24 04	 mov	 DWORD PTR _this$[esp+20], esi
  0001d	8b 46 04	 mov	 eax, DWORD PTR [esi+4]
  00020	85 c0		 test	 eax, eax
  00022	c7 44 24 10 00
	00 00 00	 mov	 DWORD PTR __$EHRec$[esp+28], 0
  0002a	74 27		 je	 SHORT $L96037
  0002c	8b 06		 mov	 eax, DWORD PTR [esi]
  0002e	8b 48 04	 mov	 ecx, DWORD PTR [eax+4]
  00031	51		 push	 ecx
  00032	8b ce		 mov	 ecx, esi
  00034	e8 00 00 00 00	 call	 ?_M_erase@?$_Rb_tree@GU?$pair@$$CBGPAVivfstream@@@_STL@@U?$_Select1st@U?$pair@$$CBGPAVivfstream@@@_STL@@@2@U?$less@G@2@V?$allocator@U?$pair@$$CBGPAVivfstream@@@_STL@@@2@@_STL@@AAEXPAU?$_Rb_tree_node@U?$pair@$$CBGPAVivfstream@@@_STL@@@2@@Z ; _STL::_Rb_tree<unsigned short,_STL::pair<unsigned short const ,ivfstream *>,_STL::_Select1st<_STL::pair<unsigned short const ,ivfstream *> >,_STL::less<unsigned short>,_STL::allocator<_STL::pair<unsigned short const ,ivfstream *> > >::_M_erase
  00039	8b 06		 mov	 eax, DWORD PTR [esi]
  0003b	89 40 08	 mov	 DWORD PTR [eax+8], eax
  0003e	8b 16		 mov	 edx, DWORD PTR [esi]
  00040	c7 42 04 00 00
	00 00		 mov	 DWORD PTR [edx+4], 0
  00047	8b 06		 mov	 eax, DWORD PTR [esi]
  00049	89 40 0c	 mov	 DWORD PTR [eax+12], eax
  0004c	c7 46 04 00 00
	00 00		 mov	 DWORD PTR [esi+4], 0
$L96037:
  00053	8b 36		 mov	 esi, DWORD PTR [esi]
  00055	85 f6		 test	 esi, esi
  00057	c7 44 24 10 ff
	ff ff ff	 mov	 DWORD PTR __$EHRec$[esp+28], -1
  0005f	74 0b		 je	 SHORT $L96077
  00061	6a 18		 push	 24			; 00000018H
  00063	56		 push	 esi
  00064	e8 00 00 00 00	 call	 ?_M_deallocate@?$__node_alloc@$00$0A@@_STL@@CAXPAXI@Z ; _STL::__node_alloc<1,0>::_M_deallocate
  00069	83 c4 08	 add	 esp, 8
$L96077:
  0006c	8b 4c 24 08	 mov	 ecx, DWORD PTR __$EHRec$[esp+20]
  00070	5e		 pop	 esi
  00071	64 89 0d 00 00
	00 00		 mov	 DWORD PTR fs:__except_list, ecx
  00078	83 c4 10	 add	 esp, 16			; 00000010H
  0007b	c3		 ret	 0
_TEXT	ENDS
;	COMDAT text$x
text$x	SEGMENT
$L96022:
  00000	8b 4d f0	 mov	 ecx, DWORD PTR _this$[ebp]
  00003	e9 00 00 00 00	 jmp	 ??1?$_Rb_tree_base@U?$pair@$$CBGPAVivfstream@@@_STL@@V?$allocator@U?$pair@$$CBGPAVivfstream@@@_STL@@@2@@_STL@@QAE@XZ ; _STL::_Rb_tree_base<_STL::pair<unsigned short const ,ivfstream *>,_STL::allocator<_STL::pair<unsigned short const ,ivfstream *> > >::~_Rb_tree_base<_STL::pair<unsigned short const ,ivfstream *>,_STL::allocator<_STL::pair<unsigned short const ,ivfstream *> > >
__ehhandler$??1?$_Rb_tree@GU?$pair@$$CBGPAVivfstream@@@_STL@@U?$_Select1st@U?$pair@$$CBGPAVivfstream@@@_STL@@@2@U?$less@G@2@V?$allocator@U?$pair@$$CBGPAVivfstream@@@_STL@@@2@@_STL@@QAE@XZ:
  00008	b8 00 00 00 00	 mov	 eax, OFFSET FLAT:$T96082
  0000d	e9 00 00 00 00	 jmp	 ___CxxFrameHandler
text$x	ENDS
??1?$_Rb_tree@GU?$pair@$$CBGPAVivfstream@@@_STL@@U?$_Select1st@U?$pair@$$CBGPAVivfstream@@@_STL@@@2@U?$less@G@2@V?$allocator@U?$pair@$$CBGPAVivfstream@@@_STL@@@2@@_STL@@QAE@XZ ENDP ; _STL::_Rb_tree<unsigned short,_STL::pair<unsigned short const ,ivfstream *>,_STL::_Select1st<_STL::pair<unsigned short const ,ivfstream *> >,_STL::less<unsigned short>,_STL::allocator<_STL::pair<unsigned short const ,ivfstream *> > >::~_Rb_tree<unsigned short,_STL::pair<unsigned short const ,ivfstream *>,_STL::_Select1st<_STL::pair<unsigned short const ,ivfstream *> >,_STL::less<unsigned short>,_STL::allocator<_STL::pair<unsigned short const ,ivfstream *> > >
PUBLIC	??0sentry@?$basic_ostream@DV?$char_traits@D@_STL@@@_STL@@QAE@AAV12@@Z ; _STL::basic_ostream<char,_STL::char_traits<char> >::sentry::sentry
; Function compile flags: /Ogty
; File c:\stlport-4.6.1\stlport\stl\_ostream.h
;	COMDAT ??0sentry@?$basic_ostream@DV?$char_traits@D@_STL@@@_STL@@QAE@AAV12@@Z
_TEXT	SEGMENT
___str$ = 8						; size = 4
??0sentry@?$basic_ostream@DV?$char_traits@D@_STL@@@_STL@@QAE@AAV12@@Z PROC NEAR ; _STL::basic_ostream<char,_STL::char_traits<char> >::sentry::sentry, COMDAT
; _this$ = ecx

; 165  :       {

  00000	8b 44 24 04	 mov	 eax, DWORD PTR ___str$[esp-4]
  00004	56		 push	 esi
  00005	8b f1		 mov	 esi, ecx
  00007	50		 push	 eax
  00008	89 06		 mov	 DWORD PTR [esi], eax
  0000a	e8 00 00 00 00	 call	 ??$_M_init@DV?$char_traits@D@_STL@@@_STL@@YA_NAAV?$basic_ostream@DV?$char_traits@D@_STL@@@0@@Z ; _STL::_M_init<char,_STL::char_traits<char> >
  0000f	88 46 04	 mov	 BYTE PTR [esi+4], al
  00012	83 c4 04	 add	 esp, 4

; 166  :       }

  00015	8b c6		 mov	 eax, esi
  00017	5e		 pop	 esi
  00018	c2 04 00	 ret	 4
??0sentry@?$basic_ostream@DV?$char_traits@D@_STL@@@_STL@@QAE@AAV12@@Z ENDP ; _STL::basic_ostream<char,_STL::char_traits<char> >::sentry::sentry
_TEXT	ENDS
PUBLIC	??1sentry@?$basic_ostream@DV?$char_traits@D@_STL@@@_STL@@QAE@XZ ; _STL::basic_ostream<char,_STL::char_traits<char> >::sentry::~sentry
; Function compile flags: /Ogty
;	COMDAT ??1sentry@?$basic_ostream@DV?$char_traits@D@_STL@@@_STL@@QAE@XZ
_TEXT	SEGMENT
??1sentry@?$basic_ostream@DV?$char_traits@D@_STL@@@_STL@@QAE@XZ PROC NEAR ; _STL::basic_ostream<char,_STL::char_traits<char> >::sentry::~sentry, COMDAT
; _this$ = ecx

; 169  :         if (_M_str.flags() & ios_base::unitbuf)

  00000	8b 09		 mov	 ecx, DWORD PTR [ecx]
  00002	8b 01		 mov	 eax, DWORD PTR [ecx]
  00004	8b 50 04	 mov	 edx, DWORD PTR [eax+4]
  00007	8b 44 0a 04	 mov	 eax, DWORD PTR [edx+ecx+4]
  0000b	f6 c4 20	 test	 ah, 32			; 00000020H
  0000e	74 05		 je	 SHORT $L91156

; 170  : # ifndef _STLP_INCOMPLETE_EXCEPTION_HEADER 
; 171  :           if (!_STLP_VENDOR_EXCEPT_STD::uncaught_exception())
; 172  : # endif
; 173  :             _M_str.flush();

  00010	e9 00 00 00 00	 jmp	 ?flush@?$basic_ostream@DV?$char_traits@D@_STL@@@_STL@@QAEAAV12@XZ ; _STL::basic_ostream<char,_STL::char_traits<char> >::flush
$L91156:

; 174  :       }

  00015	c3		 ret	 0
??1sentry@?$basic_ostream@DV?$char_traits@D@_STL@@@_STL@@QAE@XZ ENDP ; _STL::basic_ostream<char,_STL::char_traits<char> >::sentry::~sentry
_TEXT	ENDS
PUBLIC	??0?$_Rb_tree@GU?$pair@$$CBGPAVivfstream@@@_STL@@U?$_Select1st@U?$pair@$$CBGPAVivfstream@@@_STL@@@2@U?$less@G@2@V?$allocator@U?$pair@$$CBGPAVivfstream@@@_STL@@@2@@_STL@@QAE@ABU?$less@G@1@ABV?$allocator@U?$pair@$$CBGPAVivfstream@@@_STL@@@1@@Z ; _STL::_Rb_tree<unsigned short,_STL::pair<unsigned short const ,ivfstream *>,_STL::_Select1st<_STL::pair<unsigned short const ,ivfstream *> >,_STL::less<unsigned short>,_STL::allocator<_STL::pair<unsigned short const ,ivfstream *> > >::_Rb_tree<unsigned short,_STL::pair<unsigned short const ,ivfstream *>,_STL::_Select1st<_STL::pair<unsigned short const ,ivfstream *> >,_STL::less<unsigned short>,_STL::allocator<_STL::pair<unsigned short const ,ivfstream *> > >
; Function compile flags: /Ogty
; File c:\stlport-4.6.1\stlport\stl\_tree.h
;	COMDAT ??0?$_Rb_tree@GU?$pair@$$CBGPAVivfstream@@@_STL@@U?$_Select1st@U?$pair@$$CBGPAVivfstream@@@_STL@@@2@U?$less@G@2@V?$allocator@U?$pair@$$CBGPAVivfstream@@@_STL@@@2@@_STL@@QAE@ABU?$less@G@1@ABV?$allocator@U?$pair@$$CBGPAVivfstream@@@_STL@@@1@@Z
_TEXT	SEGMENT
___comp$ = 8						; size = 4
___a$ = 12						; size = 4
??0?$_Rb_tree@GU?$pair@$$CBGPAVivfstream@@@_STL@@U?$_Select1st@U?$pair@$$CBGPAVivfstream@@@_STL@@@2@U?$less@G@2@V?$allocator@U?$pair@$$CBGPAVivfstream@@@_STL@@@2@@_STL@@QAE@ABU?$less@G@1@ABV?$allocator@U?$pair@$$CBGPAVivfstream@@@_STL@@@1@@Z PROC NEAR ; _STL::_Rb_tree<unsigned short,_STL::pair<unsigned short const ,ivfstream *>,_STL::_Select1st<_STL::pair<unsigned short const ,ivfstream *> >,_STL::less<unsigned short>,_STL::allocator<_STL::pair<unsigned short const ,ivfstream *> > >::_Rb_tree<unsigned short,_STL::pair<unsigned short const ,ivfstream *>,_STL::_Select1st<_STL::pair<unsigned short const ,ivfstream *> >,_STL::less<unsigned short>,_STL::allocator<_STL::pair<unsigned short const ,ivfstream *> > >, COMDAT
; _this$ = ecx

; 325  :     { _M_empty_initialize(); }

  00000	56		 push	 esi
  00001	8b f1		 mov	 esi, ecx
  00003	6a 18		 push	 24			; 00000018H
  00005	c7 06 00 00 00
	00		 mov	 DWORD PTR [esi], 0
  0000b	e8 00 00 00 00	 call	 ?_M_allocate@?$__node_alloc@$00$0A@@_STL@@CAPAXI@Z ; _STL::__node_alloc<1,0>::_M_allocate
  00010	89 06		 mov	 DWORD PTR [esi], eax
  00012	c7 46 04 00 00
	00 00		 mov	 DWORD PTR [esi+4], 0
  00019	c6 00 00	 mov	 BYTE PTR [eax], 0
  0001c	8b 06		 mov	 eax, DWORD PTR [esi]
  0001e	c7 40 04 00 00
	00 00		 mov	 DWORD PTR [eax+4], 0
  00025	8b 06		 mov	 eax, DWORD PTR [esi]
  00027	89 40 08	 mov	 DWORD PTR [eax+8], eax
  0002a	8b 06		 mov	 eax, DWORD PTR [esi]
  0002c	83 c4 04	 add	 esp, 4
  0002f	89 40 0c	 mov	 DWORD PTR [eax+12], eax
  00032	8b c6		 mov	 eax, esi
  00034	5e		 pop	 esi
  00035	c2 08 00	 ret	 8
??0?$_Rb_tree@GU?$pair@$$CBGPAVivfstream@@@_STL@@U?$_Select1st@U?$pair@$$CBGPAVivfstream@@@_STL@@@2@U?$less@G@2@V?$allocator@U?$pair@$$CBGPAVivfstream@@@_STL@@@2@@_STL@@QAE@ABU?$less@G@1@ABV?$allocator@U?$pair@$$CBGPAVivfstream@@@_STL@@@1@@Z ENDP ; _STL::_Rb_tree<unsigned short,_STL::pair<unsigned short const ,ivfstream *>,_STL::_Select1st<_STL::pair<unsigned short const ,ivfstream *> >,_STL::less<unsigned short>,_STL::allocator<_STL::pair<unsigned short const ,ivfstream *> > >::_Rb_tree<unsigned short,_STL::pair<unsigned short const ,ivfstream *>,_STL::_Select1st<_STL::pair<unsigned short const ,ivfstream *> >,_STL::less<unsigned short>,_STL::allocator<_STL::pair<unsigned short const ,ivfstream *> > >
_TEXT	ENDS
PUBLIC	??$uninitialized_copy@PADPAD@_STL@@YAPADPAD00@Z	; _STL::uninitialized_copy<char *,char *>
; Function compile flags: /Ogty
; File c:\stlport-4.6.1\stlport\stl\_uninitialized.h
;	COMDAT ??$uninitialized_copy@PADPAD@_STL@@YAPADPAD00@Z
_TEXT	SEGMENT
___first$ = 8						; size = 4
___last$ = 12						; size = 4
___result$ = 16						; size = 4
??$uninitialized_copy@PADPAD@_STL@@YAPADPAD00@Z PROC NEAR ; _STL::uninitialized_copy<char *,char *>, COMDAT

; 79   :   return __uninitialized_copy(__first, __last, __result,  _IS_POD_ITER(__result, _ForwardIter));

  00000	8b 44 24 04	 mov	 eax, DWORD PTR ___first$[esp-4]
  00004	56		 push	 esi
  00005	8b 74 24 0c	 mov	 esi, DWORD PTR ___last$[esp]
  00009	3b f0		 cmp	 esi, eax
  0000b	75 06		 jne	 SHORT $L96249
  0000d	8b 44 24 10	 mov	 eax, DWORD PTR ___result$[esp]
  00011	5e		 pop	 esi

; 80   : }

  00012	c3		 ret	 0

; 79   :   return __uninitialized_copy(__first, __last, __result,  _IS_POD_ITER(__result, _ForwardIter));

$L96249:
  00013	2b f0		 sub	 esi, eax
  00015	56		 push	 esi
  00016	50		 push	 eax
  00017	8b 44 24 18	 mov	 eax, DWORD PTR ___result$[esp+8]
  0001b	50		 push	 eax
  0001c	e8 00 00 00 00	 call	 _memmove
  00021	83 c4 0c	 add	 esp, 12			; 0000000cH
  00024	03 c6		 add	 eax, esi
  00026	5e		 pop	 esi

; 80   : }

  00027	c3		 ret	 0
??$uninitialized_copy@PADPAD@_STL@@YAPADPAD00@Z ENDP	; _STL::uninitialized_copy<char *,char *>
_TEXT	ENDS
PUBLIC	??$append@PBD@?$basic_string@DV?$char_traits@D@_STL@@V?$allocator@D@2@@_STL@@AAEAAV01@PBD0ABUforward_iterator_tag@1@@Z ; _STL::basic_string<char,_STL::char_traits<char>,_STL::allocator<char> >::append<char const *>
; Function compile flags: /Ogty
; File c:\stlport-4.6.1\stlport\stl\_string.h
;	COMDAT ??$append@PBD@?$basic_string@DV?$char_traits@D@_STL@@V?$allocator@D@2@@_STL@@AAEAAV01@PBD0ABUforward_iterator_tag@1@@Z
_TEXT	SEGMENT
___old_size$91892 = -4					; size = 4
___first$ = 8						; size = 4
$T96255 = 12						; size = 4
___len$91904 = 12					; size = 4
___last$ = 12						; size = 4
___formal$ = 16						; size = 4
??$append@PBD@?$basic_string@DV?$char_traits@D@_STL@@V?$allocator@D@2@@_STL@@AAEAAV01@PBD0ABUforward_iterator_tag@1@@Z PROC NEAR ; _STL::basic_string<char,_STL::char_traits<char>,_STL::allocator<char> >::append<char const *>, COMDAT
; _this$ = ecx

; 542  :   template <class _ForwardIter> _Self& append(_ForwardIter __first, _ForwardIter __last, 

  00000	51		 push	 ecx

; 543  :                        const forward_iterator_tag &)  {
; 544  :     if (__first != __last) {

  00001	8b 44 24 08	 mov	 eax, DWORD PTR ___first$[esp]
  00005	55		 push	 ebp
  00006	8b 6c 24 10	 mov	 ebp, DWORD PTR ___last$[esp+4]
  0000a	3b c5		 cmp	 eax, ebp
  0000c	56		 push	 esi
  0000d	8b f1		 mov	 esi, ecx
  0000f	0f 84 3d 01 00
	00		 je	 $L96536

; 545  : 	    const size_type __old_size = size();

  00015	8b 16		 mov	 edx, DWORD PTR [esi]
  00017	53		 push	 ebx
  00018	8b 5e 04	 mov	 ebx, DWORD PTR [esi+4]
  0001b	57		 push	 edi

; 546  : 	    difference_type __n = distance(__first, __last);

  0001c	8b fd		 mov	 edi, ebp
  0001e	2b da		 sub	 ebx, edx
  00020	2b f8		 sub	 edi, eax

; 547  : 	    if (__STATIC_CAST(size_type,__n) > max_size() || __old_size > max_size() - __STATIC_CAST(size_type,__n))

  00022	83 ff fe	 cmp	 edi, -2			; fffffffeH
  00025	89 5c 24 10	 mov	 DWORD PTR ___old_size$91892[esp+20], ebx
  00029	77 0b		 ja	 SHORT $L91902
  0002b	b8 fe ff ff ff	 mov	 eax, -2			; fffffffeH
  00030	2b c7		 sub	 eax, edi
  00032	3b d8		 cmp	 ebx, eax
  00034	76 0d		 jbe	 SHORT $L96291
$L91902:

; 548  : 	      this->_M_throw_length_error();

  00036	68 00 00 00 00	 push	 OFFSET FLAT:??_C@_0N@GOPDCEEB@basic_string?$AA@
  0003b	e8 00 00 00 00	 call	 ?__stl_throw_length_error@_STL@@YAXPBD@Z ; _STL::__stl_throw_length_error
  00040	83 c4 04	 add	 esp, 4
$L96291:

; 549  : 	    if (__old_size + __n > capacity()) {

  00043	8b 4e 08	 mov	 ecx, DWORD PTR [esi+8]
  00046	2b 0e		 sub	 ecx, DWORD PTR [esi]
  00048	49		 dec	 ecx
  00049	8d 14 1f	 lea	 edx, DWORD PTR [edi+ebx]
  0004c	3b d1		 cmp	 edx, ecx
  0004e	0f 86 c8 00 00
	00		 jbe	 $L91903

; 550  : 	      const size_type __len = __old_size +
; 551  : 	                            (max)(__old_size, __STATIC_CAST(size_type,__n)) + 1;

  00054	3b df		 cmp	 ebx, edi
  00056	89 7c 24 1c	 mov	 DWORD PTR $T96255[esp+16], edi
  0005a	8d 44 24 1c	 lea	 eax, DWORD PTR $T96255[esp+16]
  0005e	72 04		 jb	 SHORT $L96302
  00060	8d 44 24 10	 lea	 eax, DWORD PTR ___old_size$91892[esp+20]
$L96302:
  00064	8b 00		 mov	 eax, DWORD PTR [eax]
  00066	8d 5c 18 01	 lea	 ebx, DWORD PTR [eax+ebx+1]

; 552  : 	      pointer __new_start = this->_M_end_of_storage.allocate(__len);

  0006a	85 db		 test	 ebx, ebx
  0006c	89 5c 24 1c	 mov	 DWORD PTR ___len$91904[esp+16], ebx
  00070	74 21		 je	 SHORT $L96320
  00072	81 fb 80 00 00
	00		 cmp	 ebx, 128		; 00000080H
  00078	53		 push	 ebx
  00079	76 0c		 jbe	 SHORT $L96323
  0007b	e8 00 00 00 00	 call	 ??2@YAPAXI@Z		; operator new
  00080	83 c4 04	 add	 esp, 4
  00083	8b e8		 mov	 ebp, eax
  00085	eb 0e		 jmp	 SHORT $L96321
$L96323:
  00087	e8 00 00 00 00	 call	 ?_M_allocate@?$__node_alloc@$00$0A@@_STL@@CAPAXI@Z ; _STL::__node_alloc<1,0>::_M_allocate
  0008c	83 c4 04	 add	 esp, 4
  0008f	8b e8		 mov	 ebp, eax
  00091	eb 02		 jmp	 SHORT $L96321
$L96320:
  00093	33 ed		 xor	 ebp, ebp
$L96321:

; 553  : 	      pointer __new_finish = __new_start;
; 554  : 	      _STLP_TRY {
; 555  : 	        __new_finish = uninitialized_copy(this->_M_start, this->_M_finish, __new_start);

  00095	8b 5e 04	 mov	 ebx, DWORD PTR [esi+4]
  00098	8b 06		 mov	 eax, DWORD PTR [esi]
  0009a	3b d8		 cmp	 ebx, eax
  0009c	75 04		 jne	 SHORT $L96423
  0009e	8b c5		 mov	 eax, ebp
  000a0	eb 0f		 jmp	 SHORT $L96424
$L96423:
  000a2	2b d8		 sub	 ebx, eax
  000a4	53		 push	 ebx
  000a5	50		 push	 eax
  000a6	55		 push	 ebp
  000a7	e8 00 00 00 00	 call	 _memmove
  000ac	83 c4 0c	 add	 esp, 12			; 0000000cH
  000af	03 c3		 add	 eax, ebx
$L96424:

; 556  : 	        __new_finish = uninitialized_copy(__first, __last, __new_finish);

  000b1	8b 4c 24 18	 mov	 ecx, DWORD PTR ___first$[esp+16]
  000b5	57		 push	 edi
  000b6	51		 push	 ecx
  000b7	50		 push	 eax
  000b8	e8 00 00 00 00	 call	 _memmove
  000bd	8b d8		 mov	 ebx, eax
  000bf	03 df		 add	 ebx, edi

; 557  : 	        _M_construct_null(__new_finish);

  000c1	c6 03 00	 mov	 BYTE PTR [ebx], 0

; 558  : 	      }
; 559  : 	      _STLP_UNWIND((_STLP_STD::_Destroy(__new_start,__new_finish),
; 560  : 	                    this->_M_end_of_storage.deallocate(__new_start,__len)));
; 561  : 	      _STLP_STD::_Destroy(this->_M_start, this->_M_finish + 1);
; 562  : 	      this->_M_deallocate_block();

  000c4	8b 0e		 mov	 ecx, DWORD PTR [esi]
  000c6	8b 46 08	 mov	 eax, DWORD PTR [esi+8]
  000c9	83 c4 0c	 add	 esp, 12			; 0000000cH
  000cc	2b c1		 sub	 eax, ecx
  000ce	85 c9		 test	 ecx, ecx
  000d0	74 32		 je	 SHORT $L96492
  000d2	3d 80 00 00 00	 cmp	 eax, 128		; 00000080H
  000d7	76 21		 jbe	 SHORT $L96491
  000d9	51		 push	 ecx
  000da	e8 00 00 00 00	 call	 ??3@YAXPAX@Z		; operator delete

; 563  : 	      this->_M_start = __new_start;
; 564  : 	      this->_M_finish = __new_finish;
; 565  : 	      this->_M_end_of_storage._M_data = __new_start + __len; 

  000df	8b 54 24 20	 mov	 edx, DWORD PTR ___len$91904[esp+20]
  000e3	83 c4 04	 add	 esp, 4
  000e6	89 2e		 mov	 DWORD PTR [esi], ebp
  000e8	5f		 pop	 edi
  000e9	89 5e 04	 mov	 DWORD PTR [esi+4], ebx
  000ec	03 ea		 add	 ebp, edx
  000ee	5b		 pop	 ebx
  000ef	89 6e 08	 mov	 DWORD PTR [esi+8], ebp

; 577  : 	    }
; 578  : 	  }
; 579  : 	  return *this;  

  000f2	8b c6		 mov	 eax, esi
  000f4	5e		 pop	 esi
  000f5	5d		 pop	 ebp

; 580  : 	}

  000f6	59		 pop	 ecx
  000f7	c2 0c 00	 ret	 12			; 0000000cH

; 558  : 	      }
; 559  : 	      _STLP_UNWIND((_STLP_STD::_Destroy(__new_start,__new_finish),
; 560  : 	                    this->_M_end_of_storage.deallocate(__new_start,__len)));
; 561  : 	      _STLP_STD::_Destroy(this->_M_start, this->_M_finish + 1);
; 562  : 	      this->_M_deallocate_block();

$L96491:
  000fa	50		 push	 eax
  000fb	51		 push	 ecx
  000fc	e8 00 00 00 00	 call	 ?_M_deallocate@?$__node_alloc@$00$0A@@_STL@@CAXPAXI@Z ; _STL::__node_alloc<1,0>::_M_deallocate
  00101	83 c4 08	 add	 esp, 8
$L96492:

; 563  : 	      this->_M_start = __new_start;
; 564  : 	      this->_M_finish = __new_finish;
; 565  : 	      this->_M_end_of_storage._M_data = __new_start + __len; 

  00104	8b 54 24 1c	 mov	 edx, DWORD PTR ___len$91904[esp+16]
  00108	89 2e		 mov	 DWORD PTR [esi], ebp
  0010a	5f		 pop	 edi
  0010b	89 5e 04	 mov	 DWORD PTR [esi+4], ebx
  0010e	03 ea		 add	 ebp, edx
  00110	5b		 pop	 ebx
  00111	89 6e 08	 mov	 DWORD PTR [esi+8], ebp

; 577  : 	    }
; 578  : 	  }
; 579  : 	  return *this;  

  00114	8b c6		 mov	 eax, esi
  00116	5e		 pop	 esi
  00117	5d		 pop	 ebp

; 580  : 	}

  00118	59		 pop	 ecx
  00119	c2 0c 00	 ret	 12			; 0000000cH
$L91903:

; 566  : 	    }
; 567  : 	    else {
; 568  : 	      _ForwardIter __f1 = __first;
; 569  : 	      ++__f1;

  0011c	8b 44 24 18	 mov	 eax, DWORD PTR ___first$[esp+16]
  00120	40		 inc	 eax

; 570  : 	      uninitialized_copy(__f1, __last, this->_M_finish + 1);

  00121	3b e8		 cmp	 ebp, eax
  00123	74 11		 je	 SHORT $L96508
  00125	2b e8		 sub	 ebp, eax
  00127	55		 push	 ebp
  00128	50		 push	 eax
  00129	8b 46 04	 mov	 eax, DWORD PTR [esi+4]
  0012c	40		 inc	 eax
  0012d	50		 push	 eax
  0012e	e8 00 00 00 00	 call	 _memmove
  00133	83 c4 0c	 add	 esp, 12			; 0000000cH
$L96508:

; 571  : 	      _STLP_TRY {
; 572  : 	        _M_construct_null(this->_M_finish + __n);

  00136	8b 4e 04	 mov	 ecx, DWORD PTR [esi+4]

; 573  : 	      }
; 574  : 	      _STLP_UNWIND(_STLP_STD::_Destroy(this->_M_finish + 1, this->_M_finish + __n));
; 575  : 	      _Traits::assign(*end(), *__first);

  00139	8b 44 24 18	 mov	 eax, DWORD PTR ___first$[esp+16]
  0013d	c6 04 0f 00	 mov	 BYTE PTR [edi+ecx], 0
  00141	8a 08		 mov	 cl, BYTE PTR [eax]
  00143	8b 56 04	 mov	 edx, DWORD PTR [esi+4]
  00146	88 0a		 mov	 BYTE PTR [edx], cl

; 576  : 	      this->_M_finish += __n;

  00148	8b 46 04	 mov	 eax, DWORD PTR [esi+4]
  0014b	03 c7		 add	 eax, edi
  0014d	5f		 pop	 edi
  0014e	89 46 04	 mov	 DWORD PTR [esi+4], eax
  00151	5b		 pop	 ebx
$L96536:

; 577  : 	    }
; 578  : 	  }
; 579  : 	  return *this;  

  00152	8b c6		 mov	 eax, esi
  00154	5e		 pop	 esi
  00155	5d		 pop	 ebp

; 580  : 	}

  00156	59		 pop	 ecx
  00157	c2 0c 00	 ret	 12			; 0000000cH
??$append@PBD@?$basic_string@DV?$char_traits@D@_STL@@V?$allocator@D@2@@_STL@@AAEAAV01@PBD0ABUforward_iterator_tag@1@@Z ENDP ; _STL::basic_string<char,_STL::char_traits<char>,_STL::allocator<char> >::append<char const *>
_TEXT	ENDS
PUBLIC	??$append@PAD@?$basic_string@DV?$char_traits@D@_STL@@V?$allocator@D@2@@_STL@@AAEAAV01@PAD0ABUforward_iterator_tag@1@@Z ; _STL::basic_string<char,_STL::char_traits<char>,_STL::allocator<char> >::append<char *>
; Function compile flags: /Ogty
;	COMDAT ??$append@PAD@?$basic_string@DV?$char_traits@D@_STL@@V?$allocator@D@2@@_STL@@AAEAAV01@PAD0ABUforward_iterator_tag@1@@Z
_TEXT	SEGMENT
___old_size$92201 = -4					; size = 4
___first$ = 8						; size = 4
$T96543 = 12						; size = 4
___len$92208 = 12					; size = 4
___last$ = 12						; size = 4
___formal$ = 16						; size = 4
??$append@PAD@?$basic_string@DV?$char_traits@D@_STL@@V?$allocator@D@2@@_STL@@AAEAAV01@PAD0ABUforward_iterator_tag@1@@Z PROC NEAR ; _STL::basic_string<char,_STL::char_traits<char>,_STL::allocator<char> >::append<char *>, COMDAT
; _this$ = ecx

; 542  :   template <class _ForwardIter> _Self& append(_ForwardIter __first, _ForwardIter __last, 

  00000	51		 push	 ecx

; 543  :                        const forward_iterator_tag &)  {
; 544  :     if (__first != __last) {

  00001	8b 44 24 08	 mov	 eax, DWORD PTR ___first$[esp]
  00005	55		 push	 ebp
  00006	8b 6c 24 10	 mov	 ebp, DWORD PTR ___last$[esp+4]
  0000a	3b c5		 cmp	 eax, ebp
  0000c	56		 push	 esi
  0000d	8b f1		 mov	 esi, ecx
  0000f	0f 84 3d 01 00
	00		 je	 $L96994

; 545  : 	    const size_type __old_size = size();

  00015	8b 16		 mov	 edx, DWORD PTR [esi]
  00017	53		 push	 ebx
  00018	8b 5e 04	 mov	 ebx, DWORD PTR [esi+4]
  0001b	57		 push	 edi

; 546  : 	    difference_type __n = distance(__first, __last);

  0001c	8b fd		 mov	 edi, ebp
  0001e	2b da		 sub	 ebx, edx
  00020	2b f8		 sub	 edi, eax

; 547  : 	    if (__STATIC_CAST(size_type,__n) > max_size() || __old_size > max_size() - __STATIC_CAST(size_type,__n))

  00022	83 ff fe	 cmp	 edi, -2			; fffffffeH
  00025	89 5c 24 10	 mov	 DWORD PTR ___old_size$92201[esp+20], ebx
  00029	77 0b		 ja	 SHORT $L92206
  0002b	b8 fe ff ff ff	 mov	 eax, -2			; fffffffeH
  00030	2b c7		 sub	 eax, edi
  00032	3b d8		 cmp	 ebx, eax
  00034	76 0d		 jbe	 SHORT $L96579
$L92206:

; 548  : 	      this->_M_throw_length_error();

  00036	68 00 00 00 00	 push	 OFFSET FLAT:??_C@_0N@GOPDCEEB@basic_string?$AA@
  0003b	e8 00 00 00 00	 call	 ?__stl_throw_length_error@_STL@@YAXPBD@Z ; _STL::__stl_throw_length_error
  00040	83 c4 04	 add	 esp, 4
$L96579:

; 549  : 	    if (__old_size + __n > capacity()) {

  00043	8b 4e 08	 mov	 ecx, DWORD PTR [esi+8]
  00046	2b 0e		 sub	 ecx, DWORD PTR [esi]
  00048	49		 dec	 ecx
  00049	8d 14 1f	 lea	 edx, DWORD PTR [edi+ebx]
  0004c	3b d1		 cmp	 edx, ecx
  0004e	0f 86 c8 00 00
	00		 jbe	 $L92207

; 550  : 	      const size_type __len = __old_size +
; 551  : 	                            (max)(__old_size, __STATIC_CAST(size_type,__n)) + 1;

  00054	3b df		 cmp	 ebx, edi
  00056	89 7c 24 1c	 mov	 DWORD PTR $T96543[esp+16], edi
  0005a	8d 44 24 1c	 lea	 eax, DWORD PTR $T96543[esp+16]
  0005e	72 04		 jb	 SHORT $L96590
  00060	8d 44 24 10	 lea	 eax, DWORD PTR ___old_size$92201[esp+20]
$L96590:
  00064	8b 00		 mov	 eax, DWORD PTR [eax]
  00066	8d 5c 18 01	 lea	 ebx, DWORD PTR [eax+ebx+1]

; 552  : 	      pointer __new_start = this->_M_end_of_storage.allocate(__len);

  0006a	85 db		 test	 ebx, ebx
  0006c	89 5c 24 1c	 mov	 DWORD PTR ___len$92208[esp+16], ebx
  00070	74 21		 je	 SHORT $L96608
  00072	81 fb 80 00 00
	00		 cmp	 ebx, 128		; 00000080H
  00078	53		 push	 ebx
  00079	76 0c		 jbe	 SHORT $L96612
  0007b	e8 00 00 00 00	 call	 ??2@YAPAXI@Z		; operator new
  00080	83 c4 04	 add	 esp, 4
  00083	8b e8		 mov	 ebp, eax
  00085	eb 0e		 jmp	 SHORT $L96609
$L96612:
  00087	e8 00 00 00 00	 call	 ?_M_allocate@?$__node_alloc@$00$0A@@_STL@@CAPAXI@Z ; _STL::__node_alloc<1,0>::_M_allocate
  0008c	83 c4 04	 add	 esp, 4
  0008f	8b e8		 mov	 ebp, eax
  00091	eb 02		 jmp	 SHORT $L96609
$L96608:
  00093	33 ed		 xor	 ebp, ebp
$L96609:

; 553  : 	      pointer __new_finish = __new_start;
; 554  : 	      _STLP_TRY {
; 555  : 	        __new_finish = uninitialized_copy(this->_M_start, this->_M_finish, __new_start);

  00095	8b 5e 04	 mov	 ebx, DWORD PTR [esi+4]
  00098	8b 06		 mov	 eax, DWORD PTR [esi]
  0009a	3b d8		 cmp	 ebx, eax
  0009c	75 04		 jne	 SHORT $L96711
  0009e	8b c5		 mov	 eax, ebp
  000a0	eb 0f		 jmp	 SHORT $L96712
$L96711:
  000a2	2b d8		 sub	 ebx, eax
  000a4	53		 push	 ebx
  000a5	50		 push	 eax
  000a6	55		 push	 ebp
  000a7	e8 00 00 00 00	 call	 _memmove
  000ac	83 c4 0c	 add	 esp, 12			; 0000000cH
  000af	03 c3		 add	 eax, ebx
$L96712:

; 556  : 	        __new_finish = uninitialized_copy(__first, __last, __new_finish);

  000b1	8b 4c 24 18	 mov	 ecx, DWORD PTR ___first$[esp+16]
  000b5	57		 push	 edi
  000b6	51		 push	 ecx
  000b7	50		 push	 eax
  000b8	e8 00 00 00 00	 call	 _memmove
  000bd	8b d8		 mov	 ebx, eax
  000bf	03 df		 add	 ebx, edi

; 557  : 	        _M_construct_null(__new_finish);

  000c1	c6 03 00	 mov	 BYTE PTR [ebx], 0

; 558  : 	      }
; 559  : 	      _STLP_UNWIND((_STLP_STD::_Destroy(__new_start,__new_finish),
; 560  : 	                    this->_M_end_of_storage.deallocate(__new_start,__len)));
; 561  : 	      _STLP_STD::_Destroy(this->_M_start, this->_M_finish + 1);
; 562  : 	      this->_M_deallocate_block();

  000c4	8b 0e		 mov	 ecx, DWORD PTR [esi]
  000c6	8b 46 08	 mov	 eax, DWORD PTR [esi+8]
  000c9	83 c4 0c	 add	 esp, 12			; 0000000cH
  000cc	2b c1		 sub	 eax, ecx
  000ce	85 c9		 test	 ecx, ecx
  000d0	74 32		 je	 SHORT $L96865
  000d2	3d 80 00 00 00	 cmp	 eax, 128		; 00000080H
  000d7	76 21		 jbe	 SHORT $L96864
  000d9	51		 push	 ecx
  000da	e8 00 00 00 00	 call	 ??3@YAXPAX@Z		; operator delete

; 563  : 	      this->_M_start = __new_start;
; 564  : 	      this->_M_finish = __new_finish;
; 565  : 	      this->_M_end_of_storage._M_data = __new_start + __len; 

  000df	8b 54 24 20	 mov	 edx, DWORD PTR ___len$92208[esp+20]
  000e3	83 c4 04	 add	 esp, 4
  000e6	89 2e		 mov	 DWORD PTR [esi], ebp
  000e8	5f		 pop	 edi
  000e9	89 5e 04	 mov	 DWORD PTR [esi+4], ebx
  000ec	03 ea		 add	 ebp, edx
  000ee	5b		 pop	 ebx
  000ef	89 6e 08	 mov	 DWORD PTR [esi+8], ebp

; 577  : 	    }
; 578  : 	  }
; 579  : 	  return *this;  

  000f2	8b c6		 mov	 eax, esi
  000f4	5e		 pop	 esi
  000f5	5d		 pop	 ebp

; 580  : 	}

  000f6	59		 pop	 ecx
  000f7	c2 0c 00	 ret	 12			; 0000000cH

; 558  : 	      }
; 559  : 	      _STLP_UNWIND((_STLP_STD::_Destroy(__new_start,__new_finish),
; 560  : 	                    this->_M_end_of_storage.deallocate(__new_start,__len)));
; 561  : 	      _STLP_STD::_Destroy(this->_M_start, this->_M_finish + 1);
; 562  : 	      this->_M_deallocate_block();

$L96864:
  000fa	50		 push	 eax
  000fb	51		 push	 ecx
  000fc	e8 00 00 00 00	 call	 ?_M_deallocate@?$__node_alloc@$00$0A@@_STL@@CAXPAXI@Z ; _STL::__node_alloc<1,0>::_M_deallocate
  00101	83 c4 08	 add	 esp, 8
$L96865:

; 563  : 	      this->_M_start = __new_start;
; 564  : 	      this->_M_finish = __new_finish;
; 565  : 	      this->_M_end_of_storage._M_data = __new_start + __len; 

  00104	8b 54 24 1c	 mov	 edx, DWORD PTR ___len$92208[esp+16]
  00108	89 2e		 mov	 DWORD PTR [esi], ebp
  0010a	5f		 pop	 edi
  0010b	89 5e 04	 mov	 DWORD PTR [esi+4], ebx
  0010e	03 ea		 add	 ebp, edx
  00110	5b		 pop	 ebx
  00111	89 6e 08	 mov	 DWORD PTR [esi+8], ebp

; 577  : 	    }
; 578  : 	  }
; 579  : 	  return *this;  

  00114	8b c6		 mov	 eax, esi
  00116	5e		 pop	 esi
  00117	5d		 pop	 ebp

; 580  : 	}

  00118	59		 pop	 ecx
  00119	c2 0c 00	 ret	 12			; 0000000cH
$L92207:

; 566  : 	    }
; 567  : 	    else {
; 568  : 	      _ForwardIter __f1 = __first;
; 569  : 	      ++__f1;

  0011c	8b 44 24 18	 mov	 eax, DWORD PTR ___first$[esp+16]
  00120	40		 inc	 eax

; 570  : 	      uninitialized_copy(__f1, __last, this->_M_finish + 1);

  00121	3b e8		 cmp	 ebp, eax
  00123	74 11		 je	 SHORT $L96964
  00125	2b e8		 sub	 ebp, eax
  00127	55		 push	 ebp
  00128	50		 push	 eax
  00129	8b 46 04	 mov	 eax, DWORD PTR [esi+4]
  0012c	40		 inc	 eax
  0012d	50		 push	 eax
  0012e	e8 00 00 00 00	 call	 _memmove
  00133	83 c4 0c	 add	 esp, 12			; 0000000cH
$L96964:

; 571  : 	      _STLP_TRY {
; 572  : 	        _M_construct_null(this->_M_finish + __n);

  00136	8b 4e 04	 mov	 ecx, DWORD PTR [esi+4]

; 573  : 	      }
; 574  : 	      _STLP_UNWIND(_STLP_STD::_Destroy(this->_M_finish + 1, this->_M_finish + __n));
; 575  : 	      _Traits::assign(*end(), *__first);

  00139	8b 44 24 18	 mov	 eax, DWORD PTR ___first$[esp+16]
  0013d	c6 04 0f 00	 mov	 BYTE PTR [edi+ecx], 0
  00141	8a 08		 mov	 cl, BYTE PTR [eax]
  00143	8b 56 04	 mov	 edx, DWORD PTR [esi+4]
  00146	88 0a		 mov	 BYTE PTR [edx], cl

; 576  : 	      this->_M_finish += __n;

  00148	8b 46 04	 mov	 eax, DWORD PTR [esi+4]
  0014b	03 c7		 add	 eax, edi
  0014d	5f		 pop	 edi
  0014e	89 46 04	 mov	 DWORD PTR [esi+4], eax
  00151	5b		 pop	 ebx
$L96994:

; 577  : 	    }
; 578  : 	  }
; 579  : 	  return *this;  

  00152	8b c6		 mov	 eax, esi
  00154	5e		 pop	 esi
  00155	5d		 pop	 ebp

; 580  : 	}

  00156	59		 pop	 ecx
  00157	c2 0c 00	 ret	 12			; 0000000cH
??$append@PAD@?$basic_string@DV?$char_traits@D@_STL@@V?$allocator@D@2@@_STL@@AAEAAV01@PAD0ABUforward_iterator_tag@1@@Z ENDP ; _STL::basic_string<char,_STL::char_traits<char>,_STL::allocator<char> >::append<char *>
_TEXT	ENDS
PUBLIC	?Timer@C_ANIMATION@@QAEXXZ			; C_ANIMATION::Timer
; Function compile flags: /Ogty
; File c:\darkeden\designed_common\project\new - vs_ui\src\vs_ui_util.cpp
;	COMDAT ?Timer@C_ANIMATION@@QAEXXZ
_TEXT	SEGMENT
?Timer@C_ANIMATION@@QAEXXZ PROC NEAR			; C_ANIMATION::Timer, COMDAT
; _this$ = ecx

; 298  : {

  00000	56		 push	 esi
  00001	8b f1		 mov	 esi, ecx

; 299  : 	if (m_play_order == STOP)

  00003	8b 46 1c	 mov	 eax, DWORD PTR [esi+28]
  00006	85 c0		 test	 eax, eax
  00008	0f 84 9c 00 00
	00		 je	 $L89217
  0000e	57		 push	 edi

; 300  : 		return;
; 301  : 
; 302  : 	if (m_dw_prev_tickcount+m_dw_millisec <= GetTickCount())

  0000f	8b 3d 00 00 00
	00		 mov	 edi, DWORD PTR __imp__GetTickCount@0
  00015	ff d7		 call	 edi
  00017	8b 4e 08	 mov	 ecx, DWORD PTR [esi+8]
  0001a	03 4e 04	 add	 ecx, DWORD PTR [esi+4]
  0001d	3b c8		 cmp	 ecx, eax
  0001f	0f 87 84 00 00
	00		 ja	 $L97049

; 303  : 	{
; 304  : 		// next frame!
; 305  : 
; 306  : 		m_dw_prev_tickcount = GetTickCount();

  00025	ff d7		 call	 edi
  00027	89 46 04	 mov	 DWORD PTR [esi+4], eax

; 307  : 
; 308  : 		switch (m_play_order)

  0002a	8b 46 1c	 mov	 eax, DWORD PTR [esi+28]
  0002d	48		 dec	 eax
  0002e	83 f8 04	 cmp	 eax, 4
  00031	77 76		 ja	 SHORT $L97049
  00033	ff 24 85 00 00
	00 00		 jmp	 DWORD PTR $L97053[eax*4]
$L89204:

; 309  : 		{
; 310  : 			case PLAY:
; 311  : 				if (m_pC_ani_object->FrrSize() > m_current_frame+1)

  0003a	8b 16		 mov	 edx, DWORD PTR [esi]
  0003c	8b 4a 04	 mov	 ecx, DWORD PTR [edx+4]
  0003f	8b 46 0c	 mov	 eax, DWORD PTR [esi+12]
  00042	0f b7 11	 movzx	 edx, WORD PTR [ecx]
  00045	40		 inc	 eax
  00046	3b d0		 cmp	 edx, eax
  00048	77 18		 ja	 SHORT $L97052
$L89208:
  0004a	5f		 pop	 edi

; 326  : 				else
; 327  : 				{
; 328  : 					m_play_order = STOP;

  0004b	c7 46 1c 00 00
	00 00		 mov	 DWORD PTR [esi+28], 0

; 329  : 					RunNextPlayOrder();

  00052	8b ce		 mov	 ecx, esi
  00054	5e		 pop	 esi
  00055	e9 00 00 00 00	 jmp	 ?RunNextPlayOrder@C_ANIMATION@@QAEXXZ ; C_ANIMATION::RunNextPlayOrder
$L89207:

; 312  : 					m_current_frame++;
; 313  : 				else
; 314  : 				{
; 315  : 					m_play_order = STOP;
; 316  : 
; 317  : 					// m_play_order next order  ,   (  
; 318  : 					//   )  next order .
; 319  : 					RunNextPlayOrder();
; 320  : 				}
; 321  : 				break;
; 322  : 
; 323  : 			case PLAY_BACK:
; 324  : 				if (0 < m_current_frame)

  0005a	8b 46 0c	 mov	 eax, DWORD PTR [esi+12]
  0005d	85 c0		 test	 eax, eax
  0005f	76 e9		 jbe	 SHORT $L89208

; 325  : 					m_current_frame--;

  00061	48		 dec	 eax
$L97052:
  00062	5f		 pop	 edi
  00063	89 46 0c	 mov	 DWORD PTR [esi+12], eax
  00066	5e		 pop	 esi

; 350  : 				break;
; 351  : 		}
; 352  : 	}
; 353  : }

  00067	c3		 ret	 0
$L89210:

; 330  : 				}
; 331  : 				break;
; 332  : 
; 333  : 			case PLAY_LOOP:
; 334  : 				if (m_pC_ani_object->FrrSize() > m_current_frame+1)

  00068	8b 0e		 mov	 ecx, DWORD PTR [esi]
  0006a	8b 51 04	 mov	 edx, DWORD PTR [ecx+4]
  0006d	0f b7 0a	 movzx	 ecx, WORD PTR [edx]
  00070	8b 46 0c	 mov	 eax, DWORD PTR [esi+12]
  00073	40		 inc	 eax
  00074	3b c1		 cmp	 eax, ecx
  00076	1b d2		 sbb	 edx, edx
  00078	23 d0		 and	 edx, eax
  0007a	5f		 pop	 edi
  0007b	89 56 0c	 mov	 DWORD PTR [esi+12], edx
  0007e	5e		 pop	 esi

; 350  : 				break;
; 351  : 		}
; 352  : 	}
; 353  : }

  0007f	c3		 ret	 0
$L89213:

; 335  : 					m_current_frame++;
; 336  : 				else
; 337  : 					m_current_frame = 0;
; 338  : 				break;
; 339  : 
; 340  : 			case PLAY_LOOPBACK:
; 341  : 				if (m_bl_reverse)

  00080	8a 46 18	 mov	 al, BYTE PTR [esi+24]
  00083	84 c0		 test	 al, al

; 342  : 					m_current_frame--;

  00085	8b 46 0c	 mov	 eax, DWORD PTR [esi+12]
  00088	74 03		 je	 SHORT $L89214
  0008a	48		 dec	 eax

; 343  : 				else

  0008b	eb 01		 jmp	 SHORT $L97051
$L89214:

; 344  : 					m_current_frame++;

  0008d	40		 inc	 eax
$L97051:

; 345  : 
; 346  : 				if (m_current_frame == 0)

  0008e	85 c0		 test	 eax, eax
  00090	89 46 0c	 mov	 DWORD PTR [esi+12], eax
  00093	75 03		 jne	 SHORT $L89216

; 347  : 					m_bl_reverse = false;

  00095	88 46 18	 mov	 BYTE PTR [esi+24], al
$L89216:

; 348  : 				if (m_current_frame == m_pC_ani_object->FrrSize()-1)

  00098	8b 0e		 mov	 ecx, DWORD PTR [esi]
  0009a	8b 51 04	 mov	 edx, DWORD PTR [ecx+4]
  0009d	0f b7 0a	 movzx	 ecx, WORD PTR [edx]
  000a0	49		 dec	 ecx
  000a1	3b c1		 cmp	 eax, ecx
  000a3	75 04		 jne	 SHORT $L97049

; 349  : 					m_bl_reverse = true;

  000a5	c6 46 18 01	 mov	 BYTE PTR [esi+24], 1
$L97049:
  000a9	5f		 pop	 edi
$L89217:
  000aa	5e		 pop	 esi

; 350  : 				break;
; 351  : 		}
; 352  : 	}
; 353  : }

  000ab	c3		 ret	 0
$L97053:
  000ac	00 00 00 00	 DD	 $L89204
  000b0	00 00 00 00	 DD	 $L89210
  000b4	00 00 00 00	 DD	 $L89207
  000b8	00 00 00 00	 DD	 $L97049
  000bc	00 00 00 00	 DD	 $L89213
?Timer@C_ANIMATION@@QAEXXZ ENDP				; C_ANIMATION::Timer
_TEXT	ENDS
PUBLIC	?Show@C_ANIMATION@@QAEX_N@Z			; C_ANIMATION::Show
; Function compile flags: /Ogty
;	COMDAT ?Show@C_ANIMATION@@QAEX_N@Z
_TEXT	SEGMENT
_point$ = -8						; size = 8
_enable$ = 8						; size = 1
?Show@C_ANIMATION@@QAEX_N@Z PROC NEAR			; C_ANIMATION::Show, COMDAT
; _this$ = ecx

; 544  : {

  00000	83 ec 08	 sub	 esp, 8
  00003	53		 push	 ebx
  00004	56		 push	 esi
  00005	8b f1		 mov	 esi, ecx

; 545  : 	POINT point = {m_x+m_pC_ani_object->FrrRX(m_current_frame), m_y+m_pC_ani_object->FrrRY(m_current_frame)};

  00007	8b 06		 mov	 eax, DWORD PTR [esi]
  00009	0f b7 4e 0c	 movzx	 ecx, WORD PTR [esi+12]
  0000d	8b 50 04	 mov	 edx, DWORD PTR [eax+4]
  00010	8b 52 04	 mov	 edx, DWORD PTR [edx+4]

; 546  : 
; 547  : 	if(enable)
; 548  : 		m_pC_ani_object->Blt(point, m_current_frame);

  00013	66 8b 5e 0c	 mov	 bx, WORD PTR [esi+12]
  00017	8d 0c 49	 lea	 ecx, DWORD PTR [ecx+ecx*2]
  0001a	d1 e1		 shl	 ecx, 1
  0001c	0f bf 54 0a 02	 movsx	 edx, WORD PTR [edx+ecx+2]
  00021	57		 push	 edi
  00022	03 56 10	 add	 edx, DWORD PTR [esi+16]
  00025	89 54 24 0c	 mov	 DWORD PTR _point$[esp+20], edx
  00029	8b 50 04	 mov	 edx, DWORD PTR [eax+4]
  0002c	8b 52 04	 mov	 edx, DWORD PTR [edx+4]
  0002f	0f bf 4c 0a 04	 movsx	 ecx, WORD PTR [edx+ecx+4]
  00034	03 4e 14	 add	 ecx, DWORD PTR [esi+20]
  00037	89 4c 24 10	 mov	 DWORD PTR _point$[esp+24], ecx
  0003b	8a 4c 24 18	 mov	 cl, BYTE PTR _enable$[esp+16]
  0003f	84 c9		 test	 cl, cl
  00041	8b 38		 mov	 edi, DWORD PTR [eax]
  00043	74 38		 je	 SHORT $L89279
  00045	8b 15 00 00 00
	00		 mov	 edx, DWORD PTR ?gpC_base@@3PAVBase@@A ; gpC_base
  0004b	8b 4a 04	 mov	 ecx, DWORD PTR [edx+4]
  0004e	e8 00 00 00 00	 call	 ?Lock@CDirectDrawSurface@@QAE_NXZ ; CDirectDrawSurface::Lock
  00053	84 c0		 test	 al, al
  00055	74 64		 je	 SHORT $L97126
  00057	8b 07		 mov	 eax, DWORD PTR [edi]
  00059	53		 push	 ebx
  0005a	8b cf		 mov	 ecx, edi
  0005c	ff 50 38	 call	 DWORD PTR [eax+56]
  0005f	8b 15 00 00 00
	00		 mov	 edx, DWORD PTR ?gpC_base@@3PAVBase@@A ; gpC_base
  00065	50		 push	 eax
  00066	8d 4c 24 10	 lea	 ecx, DWORD PTR _point$[esp+24]
  0006a	51		 push	 ecx
  0006b	8b 4a 04	 mov	 ecx, DWORD PTR [edx+4]
  0006e	e8 00 00 00 00	 call	 ?BltSprite@CSpriteSurface@@QAEXPAUtagPOINT@@PAVCSprite@@@Z ; CSpriteSurface::BltSprite
  00073	a1 00 00 00 00	 mov	 eax, DWORD PTR ?gpC_base@@3PAVBase@@A ; gpC_base
  00078	8b 48 04	 mov	 ecx, DWORD PTR [eax+4]

; 549  : 	else

  0007b	eb 39		 jmp	 SHORT $L97130
$L89279:

; 550  : //		gpC_base->m_p_DDSurface_back->BltIndexSpriteDarkness(&point, &m_pC_slayer_woman_ispk[m_pC_slayer_woman_cfpk[p_slot->woman_info.right][0][0][index].GetSpriteID()], DARK_BIT);
; 551  : 		m_pC_ani_object->BltDarkness(point, m_current_frame, 2);

  0007d	8b 0d 00 00 00
	00		 mov	 ecx, DWORD PTR ?gpC_base@@3PAVBase@@A ; gpC_base
  00083	8b 49 04	 mov	 ecx, DWORD PTR [ecx+4]
  00086	e8 00 00 00 00	 call	 ?Lock@CDirectDrawSurface@@QAE_NXZ ; CDirectDrawSurface::Lock
  0008b	84 c0		 test	 al, al
  0008d	74 2c		 je	 SHORT $L97126
  0008f	8b 17		 mov	 edx, DWORD PTR [edi]
  00091	6a 02		 push	 2
  00093	53		 push	 ebx
  00094	8b cf		 mov	 ecx, edi
  00096	ff 52 38	 call	 DWORD PTR [edx+56]
  00099	8b 0d 00 00 00
	00		 mov	 ecx, DWORD PTR ?gpC_base@@3PAVBase@@A ; gpC_base
  0009f	8b 49 04	 mov	 ecx, DWORD PTR [ecx+4]
  000a2	50		 push	 eax
  000a3	8d 44 24 14	 lea	 eax, DWORD PTR _point$[esp+28]
  000a7	50		 push	 eax
  000a8	e8 00 00 00 00	 call	 ?BltSpriteDarkness@CSpriteSurface@@QAEXPAUtagPOINT@@PAVCSprite@@E@Z ; CSpriteSurface::BltSpriteDarkness
  000ad	8b 15 00 00 00
	00		 mov	 edx, DWORD PTR ?gpC_base@@3PAVBase@@A ; gpC_base
  000b3	8b 4a 04	 mov	 ecx, DWORD PTR [edx+4]
$L97130:
  000b6	e8 00 00 00 00	 call	 ?Unlock@CDirectDrawSurface@@QAE_NXZ ; CDirectDrawSurface::Unlock
$L97126:

; 552  : 
; 553  : 	//   Show() ...
; 554  : 	Timer();

  000bb	8b ce		 mov	 ecx, esi
  000bd	e8 00 00 00 00	 call	 ?Timer@C_ANIMATION@@QAEXXZ ; C_ANIMATION::Timer
  000c2	5f		 pop	 edi
  000c3	5e		 pop	 esi
  000c4	5b		 pop	 ebx

; 555  : }

  000c5	83 c4 08	 add	 esp, 8
  000c8	c2 04 00	 ret	 4
?Show@C_ANIMATION@@QAEX_N@Z ENDP			; C_ANIMATION::Show
_TEXT	ENDS
PUBLIC	??_D?$basic_ofstream@DV?$char_traits@D@_STL@@@_STL@@QAEXXZ ; _STL::basic_ofstream<char,_STL::char_traits<char> >::`vbase destructor'
; Function compile flags: /Ogty
;	COMDAT ??_D?$basic_ofstream@DV?$char_traits@D@_STL@@@_STL@@QAEXXZ
_TEXT	SEGMENT
??_D?$basic_ofstream@DV?$char_traits@D@_STL@@@_STL@@QAEXXZ PROC NEAR ; _STL::basic_ofstream<char,_STL::char_traits<char> >::`vbase destructor', COMDAT
; _this$ = ecx
  00000	56		 push	 esi
  00001	8d b1 b8 00 00
	00		 lea	 esi, DWORD PTR [ecx+184]
  00007	8b ce		 mov	 ecx, esi
  00009	e8 00 00 00 00	 call	 ??1?$basic_ofstream@DV?$char_traits@D@_STL@@@_STL@@UAE@XZ ; _STL::basic_ofstream<char,_STL::char_traits<char> >::~basic_ofstream<char,_STL::char_traits<char> >
  0000e	8b ce		 mov	 ecx, esi
  00010	5e		 pop	 esi
  00011	e9 00 00 00 00	 jmp	 ??1?$basic_ios@DV?$char_traits@D@_STL@@@_STL@@UAE@XZ ; _STL::basic_ios<char,_STL::char_traits<char> >::~basic_ios<char,_STL::char_traits<char> >
??_D?$basic_ofstream@DV?$char_traits@D@_STL@@@_STL@@QAEXXZ ENDP ; _STL::basic_ofstream<char,_STL::char_traits<char> >::`vbase destructor'
_TEXT	ENDS
PUBLIC	??1?$basic_string@DV?$char_traits@D@_STL@@V?$allocator@D@2@@_STL@@QAE@XZ ; _STL::basic_string<char,_STL::char_traits<char>,_STL::allocator<char> >::~basic_string<char,_STL::char_traits<char>,_STL::allocator<char> >
; Function compile flags: /Ogty
; File c:\stlport-4.6.1\stlport\stl\_string.h
;	COMDAT ??1?$basic_string@DV?$char_traits@D@_STL@@V?$allocator@D@2@@_STL@@QAE@XZ
_TEXT	SEGMENT
??1?$basic_string@DV?$char_traits@D@_STL@@V?$allocator@D@2@@_STL@@QAE@XZ PROC NEAR ; _STL::basic_string<char,_STL::char_traits<char>,_STL::allocator<char> >::~basic_string<char,_STL::char_traits<char>,_STL::allocator<char> >, COMDAT
; _this$ = ecx

; 305  :   ~basic_string() { _STLP_STD::_Destroy(this->_M_start, this->_M_finish + 1); }

  00000	8b 11		 mov	 edx, DWORD PTR [ecx]
  00002	8b 41 08	 mov	 eax, DWORD PTR [ecx+8]
  00005	2b c2		 sub	 eax, edx
  00007	85 d2		 test	 edx, edx
  00009	74 1b		 je	 SHORT $L97186
  0000b	3d 80 00 00 00	 cmp	 eax, 128		; 00000080H
  00010	76 0a		 jbe	 SHORT $L97185
  00012	52		 push	 edx
  00013	e8 00 00 00 00	 call	 ??3@YAXPAX@Z		; operator delete
  00018	83 c4 04	 add	 esp, 4
  0001b	c3		 ret	 0
$L97185:
  0001c	50		 push	 eax
  0001d	52		 push	 edx
  0001e	e8 00 00 00 00	 call	 ?_M_deallocate@?$__node_alloc@$00$0A@@_STL@@CAXPAXI@Z ; _STL::__node_alloc<1,0>::_M_deallocate
  00023	83 c4 08	 add	 esp, 8
$L97186:
  00026	c3		 ret	 0
??1?$basic_string@DV?$char_traits@D@_STL@@V?$allocator@D@2@@_STL@@QAE@XZ ENDP ; _STL::basic_string<char,_STL::char_traits<char>,_STL::allocator<char> >::~basic_string<char,_STL::char_traits<char>,_STL::allocator<char> >
; Function compile flags: /Ogty
_TEXT	ENDS
;	COMDAT ??_G?$basic_ofstream@DV?$char_traits@D@_STL@@@_STL@@UAEPAXI@Z
_TEXT	SEGMENT
___flags$ = 8						; size = 4
??_G?$basic_ofstream@DV?$char_traits@D@_STL@@@_STL@@UAEPAXI@Z PROC NEAR ; _STL::basic_ofstream<char,_STL::char_traits<char> >::`scalar deleting destructor', COMDAT
; _this$ = ecx
  00000	56		 push	 esi
  00001	8d b1 48 ff ff
	ff		 lea	 esi, DWORD PTR [ecx-184]
  00007	57		 push	 edi
  00008	8d be b8 00 00
	00		 lea	 edi, DWORD PTR [esi+184]
  0000e	8b cf		 mov	 ecx, edi
  00010	e8 00 00 00 00	 call	 ??1?$basic_ofstream@DV?$char_traits@D@_STL@@@_STL@@UAE@XZ ; _STL::basic_ofstream<char,_STL::char_traits<char> >::~basic_ofstream<char,_STL::char_traits<char> >
  00015	8b cf		 mov	 ecx, edi
  00017	e8 00 00 00 00	 call	 ??1?$basic_ios@DV?$char_traits@D@_STL@@@_STL@@UAE@XZ ; _STL::basic_ios<char,_STL::char_traits<char> >::~basic_ios<char,_STL::char_traits<char> >
  0001c	f6 44 24 0c 01	 test	 BYTE PTR ___flags$[esp+4], 1
  00021	74 09		 je	 SHORT $L97197
  00023	56		 push	 esi
  00024	e8 00 00 00 00	 call	 ??3@YAXPAX@Z		; operator delete
  00029	83 c4 04	 add	 esp, 4
$L97197:
  0002c	5f		 pop	 edi
  0002d	8b c6		 mov	 eax, esi
  0002f	5e		 pop	 esi
  00030	c2 04 00	 ret	 4
??_G?$basic_ofstream@DV?$char_traits@D@_STL@@@_STL@@UAEPAXI@Z ENDP ; _STL::basic_ofstream<char,_STL::char_traits<char> >::`scalar deleting destructor'
_TEXT	ENDS
PUBLIC	?write@?$basic_ostream@DV?$char_traits@D@_STL@@@_STL@@QAEAAV12@PBDH@Z ; _STL::basic_ostream<char,_STL::char_traits<char> >::write
;	COMDAT xdata$x
; File c:\stlport-4.6.1\stlport\stl\_ios_base.h
xdata$x	SEGMENT
$T97282	DD	0ffffffffH
	DD	FLAT:$L97204
	DD	00H
	DD	00H
	DD	00H
	DD	00H
$T97284	DD	00H
	DD	00H
	DD	00H
	DD	FLAT:$L97203
$T97283	DD	01H
	DD	01H
	DD	02H
	DD	01H
	DD	FLAT:$T97284
$T97278	DD	019930520H
	DD	03H
	DD	FLAT:$T97282
	DD	01H
	DD	FLAT:$T97283
	DD	2 DUP(00H)
; Function compile flags: /Ogty
; File c:\stlport-4.6.1\stlport\stl\_ostream.c
xdata$x	ENDS
;	COMDAT ?write@?$basic_ostream@DV?$char_traits@D@_STL@@@_STL@@QAEAAV12@PBDH@Z
_TEXT	SEGMENT
___sentry$ = -32					; size = 8
_this$ = -24						; size = 4
___failed$ = -17					; size = 1
__$EHRec$ = -16						; size = 16
___s$ = 8						; size = 4
___n$ = 12						; size = 4
?write@?$basic_ostream@DV?$char_traits@D@_STL@@@_STL@@QAEAAV12@PBDH@Z PROC NEAR ; _STL::basic_ostream<char,_STL::char_traits<char> >::write, COMDAT
; _this$ = ecx

; 359  : {

  00000	55		 push	 ebp
  00001	8b ec		 mov	 ebp, esp
  00003	6a ff		 push	 -1
  00005	68 00 00 00 00	 push	 __ehhandler$?write@?$basic_ostream@DV?$char_traits@D@_STL@@@_STL@@QAEAAV12@PBDH@Z
  0000a	64 a1 00 00 00
	00		 mov	 eax, DWORD PTR fs:__except_list
  00010	50		 push	 eax
  00011	64 89 25 00 00
	00 00		 mov	 DWORD PTR fs:__except_list, esp
  00018	83 ec 14	 sub	 esp, 20			; 00000014H
  0001b	53		 push	 ebx
  0001c	56		 push	 esi
  0001d	8b f1		 mov	 esi, ecx
  0001f	57		 push	 edi
  00020	89 65 f0	 mov	 DWORD PTR __$EHRec$[ebp], esp

; 360  :   sentry __sentry(*this);

  00023	56		 push	 esi
  00024	89 75 e8	 mov	 DWORD PTR _this$[ebp], esi
  00027	89 75 e0	 mov	 DWORD PTR ___sentry$[ebp], esi
  0002a	e8 00 00 00 00	 call	 ??$_M_init@DV?$char_traits@D@_STL@@@_STL@@YA_NAAV?$basic_ostream@DV?$char_traits@D@_STL@@@0@@Z ; _STL::_M_init<char,_STL::char_traits<char> >
  0002f	83 c4 04	 add	 esp, 4
  00032	88 45 e4	 mov	 BYTE PTR ___sentry$[ebp+4], al

; 361  :   bool __failed = true;
; 362  : 
; 363  :   if (__sentry) {

  00035	84 c0		 test	 al, al
  00037	b1 01		 mov	 cl, 1
  00039	c7 45 fc 00 00
	00 00		 mov	 DWORD PTR __$EHRec$[ebp+12], 0
  00040	88 4d ef	 mov	 BYTE PTR ___failed$[ebp], cl
  00043	74 3d		 je	 SHORT $L89890

; 364  :     _STLP_TRY {
; 365  :       __failed = this->rdbuf()->sputn(__s, __n) != __n;

  00045	8b 06		 mov	 eax, DWORD PTR [esi]
  00047	8b 7d 0c	 mov	 edi, DWORD PTR ___n$[ebp]
  0004a	88 4d fc	 mov	 BYTE PTR __$EHRec$[ebp+12], cl
  0004d	8b 48 04	 mov	 ecx, DWORD PTR [eax+4]
  00050	8b 4c 31 58	 mov	 ecx, DWORD PTR [ecx+esi+88]
  00054	8b 45 08	 mov	 eax, DWORD PTR ___s$[ebp]
  00057	8b 11		 mov	 edx, DWORD PTR [ecx]
  00059	57		 push	 edi
  0005a	50		 push	 eax
  0005b	ff 52 28	 call	 DWORD PTR [edx+40]
  0005e	3b c7		 cmp	 eax, edi
  00060	0f 95 c1	 setne	 cl
  00063	eb 1d		 jmp	 SHORT $L89890
$L97203:

; 366  :     }
; 367  :     _STLP_CATCH_ALL {
; 368  :       this->_M_handle_exception(ios_base::badbit);

  00065	8b 45 e8	 mov	 eax, DWORD PTR _this$[ebp]
  00068	8b 08		 mov	 ecx, DWORD PTR [eax]
  0006a	8b 49 04	 mov	 ecx, DWORD PTR [ecx+4]
  0006d	6a 01		 push	 1
  0006f	03 c8		 add	 ecx, eax
  00071	e8 00 00 00 00	 call	 ?_M_handle_exception@?$basic_ios@DV?$char_traits@D@_STL@@@_STL@@QAEXH@Z ; _STL::basic_ios<char,_STL::char_traits<char> >::_M_handle_exception

; 369  :     }

  00076	b8 00 00 00 00	 mov	 eax, $L97280
  0007b	c3		 ret	 0
$L97280:
  0007c	8b 75 e8	 mov	 esi, DWORD PTR _this$[ebp]
  0007f	8a 4d ef	 mov	 cl, BYTE PTR ___failed$[ebp]
$L89890:

; 370  :   }
; 371  : 
; 372  :   if (__failed)

  00082	84 c9		 test	 cl, cl
  00084	c7 45 fc 00 00
	00 00		 mov	 DWORD PTR __$EHRec$[ebp+12], 0
  0008b	74 26		 je	 SHORT $L97264

; 373  :     this->setstate(ios_base::badbit);

  0008d	8b 16		 mov	 edx, DWORD PTR [esi]
  0008f	8b 4a 04	 mov	 ecx, DWORD PTR [edx+4]
  00092	8b 44 31 08	 mov	 eax, DWORD PTR [ecx+esi+8]
  00096	8b 54 31 58	 mov	 edx, DWORD PTR [ecx+esi+88]
  0009a	03 ce		 add	 ecx, esi
  0009c	83 c8 01	 or	 eax, 1
  0009f	85 d2		 test	 edx, edx
  000a1	75 03		 jne	 SHORT $L97258
  000a3	83 c8 01	 or	 eax, 1
$L97258:
  000a6	85 41 14	 test	 DWORD PTR [ecx+20], eax
  000a9	89 41 08	 mov	 DWORD PTR [ecx+8], eax
  000ac	74 05		 je	 SHORT $L97264
  000ae	e8 00 00 00 00	 call	 ?_M_throw_failure@ios_base@_STL@@IAEXXZ ; _STL::ios_base::_M_throw_failure
$L97264:

; 374  : 
; 375  :   return *this;

  000b3	8b 06		 mov	 eax, DWORD PTR [esi]
  000b5	8b 48 04	 mov	 ecx, DWORD PTR [eax+4]
  000b8	8b 44 31 04	 mov	 eax, DWORD PTR [ecx+esi+4]
  000bc	f6 c4 20	 test	 ah, 32			; 00000020H
  000bf	c7 45 fc ff ff
	ff ff		 mov	 DWORD PTR __$EHRec$[ebp+12], -1
  000c6	74 07		 je	 SHORT $L97279
  000c8	8b ce		 mov	 ecx, esi
  000ca	e8 00 00 00 00	 call	 ?flush@?$basic_ostream@DV?$char_traits@D@_STL@@@_STL@@QAEAAV12@XZ ; _STL::basic_ostream<char,_STL::char_traits<char> >::flush
$L97279:

; 376  : }

  000cf	8b 4d f4	 mov	 ecx, DWORD PTR __$EHRec$[ebp+4]
  000d2	5f		 pop	 edi
  000d3	8b c6		 mov	 eax, esi
  000d5	5e		 pop	 esi
  000d6	64 89 0d 00 00
	00 00		 mov	 DWORD PTR fs:__except_list, ecx
  000dd	5b		 pop	 ebx
  000de	8b e5		 mov	 esp, ebp
  000e0	5d		 pop	 ebp
  000e1	c2 08 00	 ret	 8
_TEXT	ENDS
;	COMDAT text$x
text$x	SEGMENT
$L97204:
  00000	8d 4d e0	 lea	 ecx, DWORD PTR ___sentry$[ebp]
  00003	e9 00 00 00 00	 jmp	 ??1sentry@?$basic_ostream@DV?$char_traits@D@_STL@@@_STL@@QAE@XZ ; _STL::basic_ostream<char,_STL::char_traits<char> >::sentry::~sentry
__ehhandler$?write@?$basic_ostream@DV?$char_traits@D@_STL@@@_STL@@QAEAAV12@PBDH@Z:
  00008	b8 00 00 00 00	 mov	 eax, OFFSET FLAT:$T97278
  0000d	e9 00 00 00 00	 jmp	 ___CxxFrameHandler
text$x	ENDS
?write@?$basic_ostream@DV?$char_traits@D@_STL@@@_STL@@QAEAAV12@PBDH@Z ENDP ; _STL::basic_ostream<char,_STL::char_traits<char> >::write
PUBLIC	??1?$map@GPAVivfstream@@U?$less@G@_STL@@V?$allocator@U?$pair@$$CBGPAVivfstream@@@_STL@@@3@@_STL@@QAE@XZ ; _STL::map<unsigned short,ivfstream *,_STL::less<unsigned short>,_STL::allocator<_STL::pair<unsigned short const ,ivfstream *> > >::~map<unsigned short,ivfstream *,_STL::less<unsigned short>,_STL::allocator<_STL::pair<unsigned short const ,ivfstream *> > >
; Function compile flags: /Ogty
;	COMDAT ??1?$map@GPAVivfstream@@U?$less@G@_STL@@V?$allocator@U?$pair@$$CBGPAVivfstream@@@_STL@@@3@@_STL@@QAE@XZ
_TEXT	SEGMENT
??1?$map@GPAVivfstream@@U?$less@G@_STL@@V?$allocator@U?$pair@$$CBGPAVivfstream@@@_STL@@@3@@_STL@@QAE@XZ PROC NEAR ; _STL::map<unsigned short,ivfstream *,_STL::less<unsigned short>,_STL::allocator<_STL::pair<unsigned short const ,ivfstream *> > >::~map<unsigned short,ivfstream *,_STL::less<unsigned short>,_STL::allocator<_STL::pair<unsigned short const ,ivfstream *> > >, COMDAT
; _this$ = ecx
  00000	e9 00 00 00 00	 jmp	 ??1?$_Rb_tree@GU?$pair@$$CBGPAVivfstream@@@_STL@@U?$_Select1st@U?$pair@$$CBGPAVivfstream@@@_STL@@@2@U?$less@G@2@V?$allocator@U?$pair@$$CBGPAVivfstream@@@_STL@@@2@@_STL@@QAE@XZ ; _STL::_Rb_tree<unsigned short,_STL::pair<unsigned short const ,ivfstream *>,_STL::_Select1st<_STL::pair<unsigned short const ,ivfstream *> >,_STL::less<unsigned short>,_STL::allocator<_STL::pair<unsigned short const ,ivfstream *> > >::~_Rb_tree<unsigned short,_STL::pair<unsigned short const ,ivfstream *>,_STL::_Select1st<_STL::pair<unsigned short const ,ivfstream *> >,_STL::less<unsigned short>,_STL::allocator<_STL::pair<unsigned short const ,ivfstream *> > >
??1?$map@GPAVivfstream@@U?$less@G@_STL@@V?$allocator@U?$pair@$$CBGPAVivfstream@@@_STL@@@3@@_STL@@QAE@XZ ENDP ; _STL::map<unsigned short,ivfstream *,_STL::less<unsigned short>,_STL::allocator<_STL::pair<unsigned short const ,ivfstream *> > >::~map<unsigned short,ivfstream *,_STL::less<unsigned short>,_STL::allocator<_STL::pair<unsigned short const ,ivfstream *> > >
_TEXT	ENDS
PUBLIC	??0?$map@GPAVivfstream@@U?$less@G@_STL@@V?$allocator@U?$pair@$$CBGPAVivfstream@@@_STL@@@3@@_STL@@QAE@XZ ; _STL::map<unsigned short,ivfstream *,_STL::less<unsigned short>,_STL::allocator<_STL::pair<unsigned short const ,ivfstream *> > >::map<unsigned short,ivfstream *,_STL::less<unsigned short>,_STL::allocator<_STL::pair<unsigned short const ,ivfstream *> > >
; Function compile flags: /Ogty
; File c:\stlport-4.6.1\stlport\stl\_map.h
;	COMDAT ??0?$map@GPAVivfstream@@U?$less@G@_STL@@V?$allocator@U?$pair@$$CBGPAVivfstream@@@_STL@@@3@@_STL@@QAE@XZ
_TEXT	SEGMENT
??0?$map@GPAVivfstream@@U?$less@G@_STL@@V?$allocator@U?$pair@$$CBGPAVivfstream@@@_STL@@@3@@_STL@@QAE@XZ PROC NEAR ; _STL::map<unsigned short,ivfstream *,_STL::less<unsigned short>,_STL::allocator<_STL::pair<unsigned short const ,ivfstream *> > >::map<unsigned short,ivfstream *,_STL::less<unsigned short>,_STL::allocator<_STL::pair<unsigned short const ,ivfstream *> > >, COMDAT
; _this$ = ecx

; 91   :   map() : _M_t(_Compare(), allocator_type()) {}

  00000	56		 push	 esi
  00001	8b f1		 mov	 esi, ecx
  00003	6a 18		 push	 24			; 00000018H
  00005	c7 06 00 00 00
	00		 mov	 DWORD PTR [esi], 0
  0000b	e8 00 00 00 00	 call	 ?_M_allocate@?$__node_alloc@$00$0A@@_STL@@CAPAXI@Z ; _STL::__node_alloc<1,0>::_M_allocate
  00010	89 06		 mov	 DWORD PTR [esi], eax
  00012	c7 46 04 00 00
	00 00		 mov	 DWORD PTR [esi+4], 0
  00019	c6 00 00	 mov	 BYTE PTR [eax], 0
  0001c	8b 06		 mov	 eax, DWORD PTR [esi]
  0001e	c7 40 04 00 00
	00 00		 mov	 DWORD PTR [eax+4], 0
  00025	8b 06		 mov	 eax, DWORD PTR [esi]
  00027	89 40 08	 mov	 DWORD PTR [eax+8], eax
  0002a	8b 06		 mov	 eax, DWORD PTR [esi]
  0002c	83 c4 04	 add	 esp, 4
  0002f	89 40 0c	 mov	 DWORD PTR [eax+12], eax
  00032	8b c6		 mov	 eax, esi
  00034	5e		 pop	 esi
  00035	c3		 ret	 0
??0?$map@GPAVivfstream@@U?$less@G@_STL@@V?$allocator@U?$pair@$$CBGPAVivfstream@@@_STL@@@3@@_STL@@QAE@XZ ENDP ; _STL::map<unsigned short,ivfstream *,_STL::less<unsigned short>,_STL::allocator<_STL::pair<unsigned short const ,ivfstream *> > >::map<unsigned short,ivfstream *,_STL::less<unsigned short>,_STL::allocator<_STL::pair<unsigned short const ,ivfstream *> > >
_TEXT	ENDS
PUBLIC	??$_M_append_dispatch@PBD@?$basic_string@DV?$char_traits@D@_STL@@V?$allocator@D@2@@_STL@@AAEAAV01@PBD0ABU__false_type@1@@Z ; _STL::basic_string<char,_STL::char_traits<char>,_STL::allocator<char> >::_M_append_dispatch<char const *>
; Function compile flags: /Ogty
; File c:\stlport-4.6.1\stlport\stl\_string.h
;	COMDAT ??$_M_append_dispatch@PBD@?$basic_string@DV?$char_traits@D@_STL@@V?$allocator@D@2@@_STL@@AAEAAV01@PBD0ABU__false_type@1@@Z
_TEXT	SEGMENT
___f$ = 8						; size = 4
$T97411 = 12						; size = 1
___l$ = 12						; size = 4
___formal$ = 16						; size = 4
??$_M_append_dispatch@PBD@?$basic_string@DV?$char_traits@D@_STL@@V?$allocator@D@2@@_STL@@AAEAAV01@PBD0ABU__false_type@1@@Z PROC NEAR ; _STL::basic_string<char,_STL::char_traits<char>,_STL::allocator<char> >::_M_append_dispatch<char const *>, COMDAT
; _this$ = ecx

; 587  :                                    const __false_type&) {
; 588  :     return append(__f, __l, _STLP_ITERATOR_CATEGORY(__f, _InputIter));

  00000	8d 44 24 08	 lea	 eax, DWORD PTR $T97411[esp-4]
  00004	89 44 24 0c	 mov	 DWORD PTR ___formal$[esp-4], eax
  00008	e9 00 00 00 00	 jmp	 ??$append@PBD@?$basic_string@DV?$char_traits@D@_STL@@V?$allocator@D@2@@_STL@@AAEAAV01@PBD0ABUforward_iterator_tag@1@@Z ; _STL::basic_string<char,_STL::char_traits<char>,_STL::allocator<char> >::append<char const *>
??$_M_append_dispatch@PBD@?$basic_string@DV?$char_traits@D@_STL@@V?$allocator@D@2@@_STL@@AAEAAV01@PBD0ABU__false_type@1@@Z ENDP ; _STL::basic_string<char,_STL::char_traits<char>,_STL::allocator<char> >::_M_append_dispatch<char const *>
_TEXT	ENDS
PUBLIC	??$_M_append_dispatch@PAD@?$basic_string@DV?$char_traits@D@_STL@@V?$allocator@D@2@@_STL@@AAEAAV01@PAD0ABU__false_type@1@@Z ; _STL::basic_string<char,_STL::char_traits<char>,_STL::allocator<char> >::_M_append_dispatch<char *>
; Function compile flags: /Ogty
;	COMDAT ??$_M_append_dispatch@PAD@?$basic_string@DV?$char_traits@D@_STL@@V?$allocator@D@2@@_STL@@AAEAAV01@PAD0ABU__false_type@1@@Z
_TEXT	SEGMENT
___f$ = 8						; size = 4
$T97416 = 12						; size = 1
___l$ = 12						; size = 4
___formal$ = 16						; size = 4
??$_M_append_dispatch@PAD@?$basic_string@DV?$char_traits@D@_STL@@V?$allocator@D@2@@_STL@@AAEAAV01@PAD0ABU__false_type@1@@Z PROC NEAR ; _STL::basic_string<char,_STL::char_traits<char>,_STL::allocator<char> >::_M_append_dispatch<char *>, COMDAT
; _this$ = ecx

; 587  :                                    const __false_type&) {
; 588  :     return append(__f, __l, _STLP_ITERATOR_CATEGORY(__f, _InputIter));

  00000	8d 44 24 08	 lea	 eax, DWORD PTR $T97416[esp-4]
  00004	89 44 24 0c	 mov	 DWORD PTR ___formal$[esp-4], eax
  00008	e9 00 00 00 00	 jmp	 ??$append@PAD@?$basic_string@DV?$char_traits@D@_STL@@V?$allocator@D@2@@_STL@@AAEAAV01@PAD0ABUforward_iterator_tag@1@@Z ; _STL::basic_string<char,_STL::char_traits<char>,_STL::allocator<char> >::append<char *>
??$_M_append_dispatch@PAD@?$basic_string@DV?$char_traits@D@_STL@@V?$allocator@D@2@@_STL@@AAEAAV01@PAD0ABU__false_type@1@@Z ENDP ; _STL::basic_string<char,_STL::char_traits<char>,_STL::allocator<char> >::_M_append_dispatch<char *>
_TEXT	ENDS
PUBLIC	?grouping@?$numpunct@D@_STL@@QBE?AV?$basic_string@DV?$char_traits@D@_STL@@V?$allocator@D@2@@2@XZ ; _STL::numpunct<char>::grouping
; Function compile flags: /Ogty
; File c:\stlport-4.6.1\stlport\stl\_numpunct.h
;	COMDAT ?grouping@?$numpunct@D@_STL@@QBE?AV?$basic_string@DV?$char_traits@D@_STL@@V?$allocator@D@2@@2@XZ
_TEXT	SEGMENT
$T97422 = -4						; size = 4
___$ReturnUdt$ = 8					; size = 4
?grouping@?$numpunct@D@_STL@@QBE?AV?$basic_string@DV?$char_traits@D@_STL@@V?$allocator@D@2@@2@XZ PROC NEAR ; _STL::numpunct<char>::grouping, COMDAT
; _this$ = ecx

; 62   :   string grouping() const { return do_grouping(); }

  00000	51		 push	 ecx
  00001	8b 01		 mov	 eax, DWORD PTR [ecx]
  00003	56		 push	 esi
  00004	8b 74 24 0c	 mov	 esi, DWORD PTR ___$ReturnUdt$[esp+4]
  00008	56		 push	 esi
  00009	c7 44 24 08 00
	00 00 00	 mov	 DWORD PTR $T97422[esp+12], 0
  00011	ff 50 0c	 call	 DWORD PTR [eax+12]
  00014	8b c6		 mov	 eax, esi
  00016	5e		 pop	 esi
  00017	59		 pop	 ecx
  00018	c2 04 00	 ret	 4
?grouping@?$numpunct@D@_STL@@QBE?AV?$basic_string@DV?$char_traits@D@_STL@@V?$allocator@D@2@@2@XZ ENDP ; _STL::numpunct<char>::grouping
_TEXT	ENDS
PUBLIC	??_7iovfs_base@@6B@				; iovfs_base::`vftable'
PUBLIC	??_Giovfs_base@@UAEPAXI@Z			; iovfs_base::`scalar deleting destructor'
PUBLIC	??_R4iovfs_base@@6B@				; iovfs_base::`RTTI Complete Object Locator'
PUBLIC	??_R0?AViovfs_base@@@8				; iovfs_base `RTTI Type Descriptor'
PUBLIC	??_R3iovfs_base@@8				; iovfs_base::`RTTI Class Hierarchy Descriptor'
PUBLIC	??_R2iovfs_base@@8				; iovfs_base::`RTTI Base Class Array'
PUBLIC	??_R1A@?0A@A@iovfs_base@@8			; iovfs_base::`RTTI Base Class Descriptor at (0,-1,0,0)'
PUBLIC	??1iovfs_base@@UAE@XZ				; iovfs_base::~iovfs_base
EXTRN	??_Eiovfs_base@@UAEPAXI@Z:NEAR			; iovfs_base::`vector deleting destructor'
EXTRN	?close@iovfs_base@@QAEXXZ:NEAR			; iovfs_base::close
;	COMDAT xdata$x
; File c:\darkeden\designed_common\project\client\virtualfilesystem\vfstream.inl
xdata$x	SEGMENT
$T97431	DD	0ffffffffH
	DD	FLAT:$L97427
$T97429	DD	019930520H
	DD	01H
	DD	FLAT:$T97431
	DD	2 DUP(00H)
	DD	2 DUP(00H)
xdata$x	ENDS
;	COMDAT ??_7iovfs_base@@6B@
CONST	SEGMENT
??_7iovfs_base@@6B@ DD FLAT:??_R4iovfs_base@@6B@	; iovfs_base::`vftable'
	DD	FLAT:??_Eiovfs_base@@UAEPAXI@Z
	DD	FLAT:?open@iovfs_base@@UAEXPBDH@Z
CONST	ENDS
;	COMDAT ??_R4iovfs_base@@6B@
rdata$r	SEGMENT
??_R4iovfs_base@@6B@ DD 00H				; iovfs_base::`RTTI Complete Object Locator'
	DD	00H
	DD	00H
	DD	FLAT:??_R0?AViovfs_base@@@8
	DD	FLAT:??_R3iovfs_base@@8
rdata$r	ENDS
;	COMDAT ??_R0?AViovfs_base@@@8
_DATA	SEGMENT
??_R0?AViovfs_base@@@8 DD FLAT:??_7type_info@@6B@	; iovfs_base `RTTI Type Descriptor'
	DD	00H
	DB	'.?AViovfs_base@@', 00H
_DATA	ENDS
;	COMDAT ??_R3iovfs_base@@8
rdata$r	SEGMENT
??_R3iovfs_base@@8 DD 00H				; iovfs_base::`RTTI Class Hierarchy Descriptor'
	DD	00H
	DD	01H
	DD	FLAT:??_R2iovfs_base@@8
rdata$r	ENDS
;	COMDAT ??_R2iovfs_base@@8
rdata$r	SEGMENT
??_R2iovfs_base@@8 DD FLAT:??_R1A@?0A@A@iovfs_base@@8	; iovfs_base::`RTTI Base Class Array'
rdata$r	ENDS
;	COMDAT ??_R1A@?0A@A@iovfs_base@@8
rdata$r	SEGMENT
??_R1A@?0A@A@iovfs_base@@8 DD FLAT:??_R0?AViovfs_base@@@8 ; iovfs_base::`RTTI Base Class Descriptor at (0,-1,0,0)'
	DD	00H
	DD	00H
	DD	0ffffffffH
	DD	00H
	DD	00H
; Function compile flags: /Ogty
rdata$r	ENDS
;	COMDAT ??1iovfs_base@@UAE@XZ
_TEXT	SEGMENT
_this$ = -16						; size = 4
__$EHRec$ = -12						; size = 12
??1iovfs_base@@UAE@XZ PROC NEAR				; iovfs_base::~iovfs_base, COMDAT
; _this$ = ecx

; 22   : {

  00000	6a ff		 push	 -1
  00002	68 00 00 00 00	 push	 __ehhandler$??1iovfs_base@@UAE@XZ
  00007	64 a1 00 00 00
	00		 mov	 eax, DWORD PTR fs:__except_list
  0000d	50		 push	 eax
  0000e	64 89 25 00 00
	00 00		 mov	 DWORD PTR fs:__except_list, esp
  00015	51		 push	 ecx
  00016	56		 push	 esi
  00017	8b f1		 mov	 esi, ecx
  00019	89 74 24 04	 mov	 DWORD PTR _this$[esp+20], esi
  0001d	c7 06 00 00 00
	00		 mov	 DWORD PTR [esi], OFFSET FLAT:??_7iovfs_base@@6B@
  00023	c7 44 24 10 00
	00 00 00	 mov	 DWORD PTR __$EHRec$[esp+28], 0

; 23   : 	close();

  0002b	e8 00 00 00 00	 call	 ?close@iovfs_base@@QAEXXZ ; iovfs_base::close

; 24   : }

  00030	68 00 00 00 00	 push	 OFFSET FLAT:??1?$basic_string@DV?$char_traits@D@_STL@@V?$allocator@D@2@@_STL@@QAE@XZ ; _STL::basic_string<char,_STL::char_traits<char>,_STL::allocator<char> >::~basic_string<char,_STL::char_traits<char>,_STL::allocator<char> >
  00035	6a 06		 push	 6
  00037	6a 0c		 push	 12			; 0000000cH
  00039	83 c6 08	 add	 esi, 8
  0003c	56		 push	 esi
  0003d	c7 44 24 20 ff
	ff ff ff	 mov	 DWORD PTR __$EHRec$[esp+44], -1
  00045	e8 00 00 00 00	 call	 ??_M@YGXPAXIHP6EX0@Z@Z
  0004a	8b 4c 24 08	 mov	 ecx, DWORD PTR __$EHRec$[esp+20]
  0004e	5e		 pop	 esi
  0004f	64 89 0d 00 00
	00 00		 mov	 DWORD PTR fs:__except_list, ecx
  00056	83 c4 10	 add	 esp, 16			; 00000010H
  00059	c3		 ret	 0
_TEXT	ENDS
;	COMDAT text$x
text$x	SEGMENT
$L97427:
  00000	68 00 00 00 00	 push	 OFFSET FLAT:??1?$basic_string@DV?$char_traits@D@_STL@@V?$allocator@D@2@@_STL@@QAE@XZ ; _STL::basic_string<char,_STL::char_traits<char>,_STL::allocator<char> >::~basic_string<char,_STL::char_traits<char>,_STL::allocator<char> >
  00005	6a 06		 push	 6
  00007	6a 0c		 push	 12			; 0000000cH
  00009	8b 45 f0	 mov	 eax, DWORD PTR _this$[ebp]
  0000c	83 c0 08	 add	 eax, 8
  0000f	50		 push	 eax
  00010	e8 00 00 00 00	 call	 ??_M@YGXPAXIHP6EX0@Z@Z
  00015	c3		 ret	 0
__ehhandler$??1iovfs_base@@UAE@XZ:
  00016	b8 00 00 00 00	 mov	 eax, OFFSET FLAT:$T97429
  0001b	e9 00 00 00 00	 jmp	 ___CxxFrameHandler
text$x	ENDS
??1iovfs_base@@UAE@XZ ENDP				; iovfs_base::~iovfs_base
PUBLIC	??1ivfstream@@UAE@XZ				; ivfstream::~ivfstream
PUBLIC	??_7ivfstream@@6B@				; ivfstream::`vftable'
PUBLIC	??_Givfstream@@UAEPAXI@Z			; ivfstream::`scalar deleting destructor'
PUBLIC	??_R4ivfstream@@6B@				; ivfstream::`RTTI Complete Object Locator'
PUBLIC	??_R0?AVivfstream@@@8				; ivfstream `RTTI Type Descriptor'
PUBLIC	??_R3ivfstream@@8				; ivfstream::`RTTI Class Hierarchy Descriptor'
PUBLIC	??_R2ivfstream@@8				; ivfstream::`RTTI Base Class Array'
PUBLIC	??_R1A@?0A@A@ivfstream@@8			; ivfstream::`RTTI Base Class Descriptor at (0,-1,0,0)'
EXTRN	??_Eivfstream@@UAEPAXI@Z:NEAR			; ivfstream::`vector deleting destructor'
;	COMDAT ??_7ivfstream@@6B@
CONST	SEGMENT
??_7ivfstream@@6B@ DD FLAT:??_R4ivfstream@@6B@		; ivfstream::`vftable'
	DD	FLAT:??_Eivfstream@@UAEPAXI@Z
	DD	FLAT:?open@ivfstream@@UAEXPBDH@Z
CONST	ENDS
;	COMDAT ??_R4ivfstream@@6B@
rdata$r	SEGMENT
??_R4ivfstream@@6B@ DD 00H				; ivfstream::`RTTI Complete Object Locator'
	DD	00H
	DD	00H
	DD	FLAT:??_R0?AVivfstream@@@8
	DD	FLAT:??_R3ivfstream@@8
rdata$r	ENDS
;	COMDAT ??_R0?AVivfstream@@@8
_DATA	SEGMENT
??_R0?AVivfstream@@@8 DD FLAT:??_7type_info@@6B@	; ivfstream `RTTI Type Descriptor'
	DD	00H
	DB	'.?AVivfstream@@', 00H
_DATA	ENDS
;	COMDAT ??_R3ivfstream@@8
rdata$r	SEGMENT
??_R3ivfstream@@8 DD 00H				; ivfstream::`RTTI Class Hierarchy Descriptor'
	DD	00H
	DD	02H
	DD	FLAT:??_R2ivfstream@@8
rdata$r	ENDS
;	COMDAT ??_R2ivfstream@@8
rdata$r	SEGMENT
??_R2ivfstream@@8 DD FLAT:??_R1A@?0A@A@ivfstream@@8	; ivfstream::`RTTI Base Class Array'
	DD	FLAT:??_R1A@?0A@A@iovfs_base@@8
rdata$r	ENDS
;	COMDAT ??_R1A@?0A@A@ivfstream@@8
rdata$r	SEGMENT
??_R1A@?0A@A@ivfstream@@8 DD FLAT:??_R0?AVivfstream@@@8	; ivfstream::`RTTI Base Class Descriptor at (0,-1,0,0)'
	DD	01H
	DD	00H
	DD	0ffffffffH
	DD	00H
	DD	00H
; Function compile flags: /Ogty
rdata$r	ENDS
;	COMDAT ??1ivfstream@@UAE@XZ
_TEXT	SEGMENT
??1ivfstream@@UAE@XZ PROC NEAR				; ivfstream::~ivfstream, COMDAT
; _this$ = ecx

; 70   : {

  00000	c7 01 00 00 00
	00		 mov	 DWORD PTR [ecx], OFFSET FLAT:??_7ivfstream@@6B@

; 71   : 
; 72   : }

  00006	e9 00 00 00 00	 jmp	 ??1iovfs_base@@UAE@XZ	; iovfs_base::~iovfs_base
??1ivfstream@@UAE@XZ ENDP				; ivfstream::~ivfstream
_TEXT	ENDS
PUBLIC	??_R4?$CTypePack2@VCSprite@@VCSprite555@@VCSprite565@@@@6B@ ; CTypePack2<CSprite,CSprite555,CSprite565>::`RTTI Complete Object Locator'
PUBLIC	??_R0?AV?$CTypePack2@VCSprite@@VCSprite555@@VCSprite565@@@@@8 ; CTypePack2<CSprite,CSprite555,CSprite565> `RTTI Type Descriptor'
PUBLIC	??_R3?$CTypePack2@VCSprite@@VCSprite555@@VCSprite565@@@@8 ; CTypePack2<CSprite,CSprite555,CSprite565>::`RTTI Class Hierarchy Descriptor'
PUBLIC	??_R2?$CTypePack2@VCSprite@@VCSprite555@@VCSprite565@@@@8 ; CTypePack2<CSprite,CSprite555,CSprite565>::`RTTI Base Class Array'
PUBLIC	??_R1A@?0A@A@?$CTypePack2@VCSprite@@VCSprite555@@VCSprite565@@@@8 ; CTypePack2<CSprite,CSprite555,CSprite565>::`RTTI Base Class Descriptor at (0,-1,0,0)'
PUBLIC	??0?$CTypePack2@VCSprite@@VCSprite555@@VCSprite565@@@@QAE@XZ ; CTypePack2<CSprite,CSprite555,CSprite565>::CTypePack2<CSprite,CSprite555,CSprite565>
PUBLIC	?Init@?$CTypePack2@VCSprite@@VCSprite555@@VCSprite565@@@@UAEXG@Z ; CTypePack2<CSprite,CSprite555,CSprite565>::Init
PUBLIC	?GetSize@?$CTypePack2@VCSprite@@VCSprite555@@VCSprite565@@@@UBEKXZ ; CTypePack2<CSprite,CSprite555,CSprite565>::GetSize
PUBLIC	??A?$CTypePack2@VCSprite@@VCSprite555@@VCSprite565@@@@UAEAAVCSprite@@G@Z ; CTypePack2<CSprite,CSprite555,CSprite565>::operator[]
PUBLIC	?Get@?$CTypePack2@VCSprite@@VCSprite555@@VCSprite565@@@@UAEAAVCSprite@@G@Z ; CTypePack2<CSprite,CSprite555,CSprite565>::Get
PUBLIC	?SaveToFile@?$CTypePack2@VCSprite@@VCSprite555@@VCSprite565@@@@UAE_NAAV?$basic_ofstream@DV?$char_traits@D@_STL@@@_STL@@0@Z ; CTypePack2<CSprite,CSprite555,CSprite565>::SaveToFile
PUBLIC	?LoadFromFileRunning@?$CTypePack2@VCSprite@@VCSprite555@@VCSprite565@@@@UAE_NPBD@Z ; CTypePack2<CSprite,CSprite555,CSprite565>::LoadFromFileRunning
PUBLIC	?LoadFromFile@?$CTypePack2@VCSprite@@VCSprite555@@VCSprite565@@@@UAE_NPBD@Z ; CTypePack2<CSprite,CSprite555,CSprite565>::LoadFromFile
PUBLIC	?LoadFromFilePart@?$CTypePack2@VCSprite@@VCSprite555@@VCSprite565@@@@UAE_NHH@Z ; CTypePack2<CSprite,CSprite555,CSprite565>::LoadFromFilePart
PUBLIC	?LoadFromFilePart@?$CTypePack2@VCSprite@@VCSprite555@@VCSprite565@@@@UAE_NAAVCSpriteSetManager@@@Z ; CTypePack2<CSprite,CSprite555,CSprite565>::LoadFromFilePart
PUBLIC	?LoadFromFileData@?$CTypePack2@VCSprite@@VCSprite555@@VCSprite565@@@@UAE_NHHPBD0@Z ; CTypePack2<CSprite,CSprite555,CSprite565>::LoadFromFileData
PUBLIC	?ReleasePart@?$CTypePack2@VCSprite@@VCSprite555@@VCSprite565@@@@UAE_NHH@Z ; CTypePack2<CSprite,CSprite555,CSprite565>::ReleasePart
PUBLIC	?ReleasePart@?$CTypePack2@VCSprite@@VCSprite555@@VCSprite565@@@@UAE_NV?$COrderedList@G@@@Z ; CTypePack2<CSprite,CSprite555,CSprite565>::ReleasePart
PUBLIC	?SaveToFile@?$CTypePack2@VCSprite@@VCSprite555@@VCSprite565@@@@UAE_NPBD@Z ; CTypePack2<CSprite,CSprite555,CSprite565>::SaveToFile
PUBLIC	?Is565@?$CTypePack2@VCSprite@@VCSprite555@@VCSprite565@@@@UAE_NXZ ; CTypePack2<CSprite,CSprite555,CSprite565>::Is565
PUBLIC	?FinishRunningLoad@?$CTypePack2@VCSprite@@VCSprite555@@VCSprite565@@@@UAEXXZ ; CTypePack2<CSprite,CSprite555,CSprite565>::FinishRunningLoad
PUBLIC	??_7?$CTypePack2@VCSprite@@VCSprite555@@VCSprite565@@@@6B@ ; CTypePack2<CSprite,CSprite555,CSprite565>::`vftable'
PUBLIC	??_G?$CTypePack2@VCSprite@@VCSprite555@@VCSprite565@@@@UAEPAXI@Z ; CTypePack2<CSprite,CSprite555,CSprite565>::`scalar deleting destructor'
EXTRN	??_E?$CTypePack2@VCSprite@@VCSprite555@@VCSprite565@@@@UAEPAXI@Z:NEAR ; CTypePack2<CSprite,CSprite555,CSprite565>::`vector deleting destructor'
;	COMDAT xdata$x
; File c:\stlport-4.6.1\stlport\stl\_alloc.h
xdata$x	SEGMENT
$T97605	DD	0ffffffffH
	DD	FLAT:$L97441
	DD	00H
	DD	FLAT:$L97442
	DD	01H
	DD	FLAT:$L97443
$T97603	DD	019930520H
	DD	03H
	DD	FLAT:$T97605
	DD	2 DUP(00H)
	DD	2 DUP(00H)
xdata$x	ENDS
;	COMDAT ??_7?$CTypePack2@VCSprite@@VCSprite555@@VCSprite565@@@@6B@
CONST	SEGMENT
??_7?$CTypePack2@VCSprite@@VCSprite555@@VCSprite565@@@@6B@ DD FLAT:??_R4?$CTypePack2@VCSprite@@VCSprite555@@VCSprite565@@@@6B@ ; CTypePack2<CSprite,CSprite555,CSprite565>::`vftable'
	DD	FLAT:??_E?$CTypePack2@VCSprite@@VCSprite555@@VCSprite565@@@@UAEPAXI@Z
	DD	FLAT:?Init@?$CTypePack2@VCSprite@@VCSprite555@@VCSprite565@@@@UAEXG@Z
	DD	FLAT:?Release@?$CTypePack2@VCSprite@@VCSprite555@@VCSprite565@@@@UAEXXZ
	DD	FLAT:?GetSize@?$CTypePack2@VCSprite@@VCSprite555@@VCSprite565@@@@UBEKXZ
	DD	FLAT:?SaveToFile@?$CTypePack2@VCSprite@@VCSprite555@@VCSprite565@@@@UAE_NPBD@Z
	DD	FLAT:?SaveToFile@?$CTypePack2@VCSprite@@VCSprite555@@VCSprite565@@@@UAE_NAAV?$basic_ofstream@DV?$char_traits@D@_STL@@@_STL@@0@Z
	DD	FLAT:?LoadFromFileRunning@?$CTypePack2@VCSprite@@VCSprite555@@VCSprite565@@@@UAE_NPBD@Z
	DD	FLAT:?LoadFromFile@?$CTypePack2@VCSprite@@VCSprite555@@VCSprite565@@@@UAE_NPBD@Z
	DD	FLAT:?LoadFromFilePart@?$CTypePack2@VCSprite@@VCSprite555@@VCSprite565@@@@UAE_NAAVCSpriteSetManager@@@Z
	DD	FLAT:?LoadFromFilePart@?$CTypePack2@VCSprite@@VCSprite555@@VCSprite565@@@@UAE_NHH@Z
	DD	FLAT:?LoadFromFileData@?$CTypePack2@VCSprite@@VCSprite555@@VCSprite565@@@@UAE_NHHPBD0@Z
	DD	FLAT:?ReleasePart@?$CTypePack2@VCSprite@@VCSprite555@@VCSprite565@@@@UAE_NV?$COrderedList@G@@@Z
	DD	FLAT:?ReleasePart@?$CTypePack2@VCSprite@@VCSprite555@@VCSprite565@@@@UAE_NHH@Z
	DD	FLAT:?FinishRunningLoad@?$CTypePack2@VCSprite@@VCSprite555@@VCSprite565@@@@UAEXXZ
	DD	FLAT:??A?$CTypePack2@VCSprite@@VCSprite555@@VCSprite565@@@@UAEAAVCSprite@@G@Z
	DD	FLAT:?Get@?$CTypePack2@VCSprite@@VCSprite555@@VCSprite565@@@@UAEAAVCSprite@@G@Z
	DD	FLAT:?Is565@?$CTypePack2@VCSprite@@VCSprite555@@VCSprite565@@@@UAE_NXZ
CONST	ENDS
;	COMDAT ??_R4?$CTypePack2@VCSprite@@VCSprite555@@VCSprite565@@@@6B@
rdata$r	SEGMENT
??_R4?$CTypePack2@VCSprite@@VCSprite555@@VCSprite565@@@@6B@ DD 00H ; CTypePack2<CSprite,CSprite555,CSprite565>::`RTTI Complete Object Locator'
	DD	00H
	DD	00H
	DD	FLAT:??_R0?AV?$CTypePack2@VCSprite@@VCSprite555@@VCSprite565@@@@@8
	DD	FLAT:??_R3?$CTypePack2@VCSprite@@VCSprite555@@VCSprite565@@@@8
rdata$r	ENDS
;	COMDAT ??_R0?AV?$CTypePack2@VCSprite@@VCSprite555@@VCSprite565@@@@@8
_DATA	SEGMENT
??_R0?AV?$CTypePack2@VCSprite@@VCSprite555@@VCSprite565@@@@@8 DD FLAT:??_7type_info@@6B@ ; CTypePack2<CSprite,CSprite555,CSprite565> `RTTI Type Descriptor'
	DD	00H
	DB	'.?AV?$CTypePack2@VCSprite@@VCSprite555@@VCSprite565@@@@', 00H
_DATA	ENDS
;	COMDAT ??_R3?$CTypePack2@VCSprite@@VCSprite555@@VCSprite565@@@@8
rdata$r	SEGMENT
??_R3?$CTypePack2@VCSprite@@VCSprite555@@VCSprite565@@@@8 DD 00H ; CTypePack2<CSprite,CSprite555,CSprite565>::`RTTI Class Hierarchy Descriptor'
	DD	00H
	DD	02H
	DD	FLAT:??_R2?$CTypePack2@VCSprite@@VCSprite555@@VCSprite565@@@@8
rdata$r	ENDS
;	COMDAT ??_R2?$CTypePack2@VCSprite@@VCSprite555@@VCSprite565@@@@8
rdata$r	SEGMENT
??_R2?$CTypePack2@VCSprite@@VCSprite555@@VCSprite565@@@@8 DD FLAT:??_R1A@?0A@A@?$CTypePack2@VCSprite@@VCSprite555@@VCSprite565@@@@8 ; CTypePack2<CSprite,CSprite555,CSprite565>::`RTTI Base Class Array'
	DD	FLAT:??_R1A@?0A@A@ITypePackBase@@8
rdata$r	ENDS
;	COMDAT ??_R1A@?0A@A@?$CTypePack2@VCSprite@@VCSprite555@@VCSprite565@@@@8
rdata$r	SEGMENT
??_R1A@?0A@A@?$CTypePack2@VCSprite@@VCSprite555@@VCSprite565@@@@8 DD FLAT:??_R0?AV?$CTypePack2@VCSprite@@VCSprite555@@VCSprite565@@@@@8 ; CTypePack2<CSprite,CSprite555,CSprite565>::`RTTI Base Class Descriptor at (0,-1,0,0)'
	DD	01H
	DD	00H
	DD	0ffffffffH
	DD	00H
	DD	00H
; Function compile flags: /Ogty
; File c:\darkeden\designed_common\project\client\spritelib\ctypepack.h
rdata$r	ENDS
;	COMDAT ??0?$CTypePack2@VCSprite@@VCSprite555@@VCSprite565@@@@QAE@XZ
_TEXT	SEGMENT
_this$ = -16						; size = 4
__$EHRec$ = -12						; size = 12
??0?$CTypePack2@VCSprite@@VCSprite555@@VCSprite565@@@@QAE@XZ PROC NEAR ; CTypePack2<CSprite,CSprite555,CSprite565>::CTypePack2<CSprite,CSprite555,CSprite565>, COMDAT
; _this$ = ecx

; 879  : {

  00000	6a ff		 push	 -1
  00002	68 00 00 00 00	 push	 __ehhandler$??0?$CTypePack2@VCSprite@@VCSprite555@@VCSprite565@@@@QAE@XZ
  00007	64 a1 00 00 00
	00		 mov	 eax, DWORD PTR fs:__except_list
  0000d	50		 push	 eax
  0000e	64 89 25 00 00
	00 00		 mov	 DWORD PTR fs:__except_list, esp
  00015	51		 push	 ecx
  00016	53		 push	 ebx
  00017	56		 push	 esi
  00018	8b f1		 mov	 esi, ecx
  0001a	89 74 24 08	 mov	 DWORD PTR _this$[esp+24], esi
  0001e	33 db		 xor	 ebx, ebx
  00020	8d 4e 20	 lea	 ecx, DWORD PTR [esi+32]
  00023	89 5c 24 14	 mov	 DWORD PTR __$EHRec$[esp+32], ebx
  00027	c7 06 00 00 00
	00		 mov	 DWORD PTR [esi], OFFSET FLAT:??_7?$CTypePack2@VCSprite@@VCSprite555@@VCSprite565@@@@6B@
  0002d	e8 00 00 00 00	 call	 ??0?$basic_string@DV?$char_traits@D@_STL@@V?$allocator@D@2@@_STL@@QAE@XZ ; _STL::basic_string<char,_STL::char_traits<char>,_STL::allocator<char> >::basic_string<char,_STL::char_traits<char>,_STL::allocator<char> >
  00032	8d 4e 2c	 lea	 ecx, DWORD PTR [esi+44]
  00035	c6 44 24 14 01	 mov	 BYTE PTR __$EHRec$[esp+32], 1
  0003a	e8 00 00 00 00	 call	 ??0?$basic_string@DV?$char_traits@D@_STL@@V?$allocator@D@2@@_STL@@QAE@XZ ; _STL::basic_string<char,_STL::char_traits<char>,_STL::allocator<char> >::basic_string<char,_STL::char_traits<char>,_STL::allocator<char> >
  0003f	6a 18		 push	 24			; 00000018H
  00041	c6 44 24 18 02	 mov	 BYTE PTR __$EHRec$[esp+36], 2
  00046	89 5e 38	 mov	 DWORD PTR [esi+56], ebx
  00049	e8 00 00 00 00	 call	 ?_M_allocate@?$__node_alloc@$00$0A@@_STL@@CAPAXI@Z ; _STL::__node_alloc<1,0>::_M_allocate

; 880  : 	m_pData = NULL;
; 881  : 	m_Size = 0;
; 882  : 	m_bRunningLoad = false;
; 883  : 	m_file_index = NULL;
; 884  : 	m_file = NULL;
; 885  : 
; 886  : 	m_bSplitFile = false;
; 887  : 	m_nUnitCount = 0;
; 888  : 	m_nUnitTwoMultiplier = 0;
; 889  : }

  0004e	8b 4c 24 10	 mov	 ecx, DWORD PTR __$EHRec$[esp+28]
  00052	89 46 38	 mov	 DWORD PTR [esi+56], eax
  00055	89 5e 3c	 mov	 DWORD PTR [esi+60], ebx
  00058	88 18		 mov	 BYTE PTR [eax], bl
  0005a	8b 46 38	 mov	 eax, DWORD PTR [esi+56]
  0005d	89 58 04	 mov	 DWORD PTR [eax+4], ebx
  00060	8b 46 38	 mov	 eax, DWORD PTR [esi+56]
  00063	89 40 08	 mov	 DWORD PTR [eax+8], eax
  00066	8b 46 38	 mov	 eax, DWORD PTR [esi+56]
  00069	89 40 0c	 mov	 DWORD PTR [eax+12], eax
  0006c	83 c4 04	 add	 esp, 4
  0006f	89 5e 04	 mov	 DWORD PTR [esi+4], ebx
  00072	66 89 5e 08	 mov	 WORD PTR [esi+8], bx
  00076	88 5e 0a	 mov	 BYTE PTR [esi+10], bl
  00079	89 5e 10	 mov	 DWORD PTR [esi+16], ebx
  0007c	89 5e 0c	 mov	 DWORD PTR [esi+12], ebx
  0007f	88 5e 14	 mov	 BYTE PTR [esi+20], bl
  00082	89 5e 18	 mov	 DWORD PTR [esi+24], ebx
  00085	89 5e 1c	 mov	 DWORD PTR [esi+28], ebx
  00088	8b c6		 mov	 eax, esi
  0008a	5e		 pop	 esi
  0008b	5b		 pop	 ebx
  0008c	64 89 0d 00 00
	00 00		 mov	 DWORD PTR fs:__except_list, ecx
  00093	83 c4 10	 add	 esp, 16			; 00000010H
  00096	c3		 ret	 0
_TEXT	ENDS
;	COMDAT text$x
text$x	SEGMENT
$L97441:
  00000	8b 4d f0	 mov	 ecx, DWORD PTR _this$[ebp]
  00003	e9 00 00 00 00	 jmp	 ??1ITypePackBase@@UAE@XZ ; ITypePackBase::~ITypePackBase
$L97442:
  00008	8b 4d f0	 mov	 ecx, DWORD PTR _this$[ebp]
  0000b	83 c1 20	 add	 ecx, 32			; 00000020H
  0000e	e9 00 00 00 00	 jmp	 ??1?$basic_string@DV?$char_traits@D@_STL@@V?$allocator@D@2@@_STL@@QAE@XZ ; _STL::basic_string<char,_STL::char_traits<char>,_STL::allocator<char> >::~basic_string<char,_STL::char_traits<char>,_STL::allocator<char> >
$L97443:
  00013	8b 4d f0	 mov	 ecx, DWORD PTR _this$[ebp]
  00016	83 c1 2c	 add	 ecx, 44			; 0000002cH
  00019	e9 00 00 00 00	 jmp	 ??1?$basic_string@DV?$char_traits@D@_STL@@V?$allocator@D@2@@_STL@@QAE@XZ ; _STL::basic_string<char,_STL::char_traits<char>,_STL::allocator<char> >::~basic_string<char,_STL::char_traits<char>,_STL::allocator<char> >
__ehhandler$??0?$CTypePack2@VCSprite@@VCSprite555@@VCSprite565@@@@QAE@XZ:
  0001e	b8 00 00 00 00	 mov	 eax, OFFSET FLAT:$T97603
  00023	e9 00 00 00 00	 jmp	 ___CxxFrameHandler
text$x	ENDS
??0?$CTypePack2@VCSprite@@VCSprite555@@VCSprite565@@@@QAE@XZ ENDP ; CTypePack2<CSprite,CSprite555,CSprite565>::CTypePack2<CSprite,CSprite555,CSprite565>
; Function compile flags: /Ogty
;	COMDAT ?GetSize@?$CTypePack2@VCSprite@@VCSprite555@@VCSprite565@@@@UBEKXZ
_TEXT	SEGMENT
?GetSize@?$CTypePack2@VCSprite@@VCSprite555@@VCSprite565@@@@UBEKXZ PROC NEAR ; CTypePack2<CSprite,CSprite555,CSprite565>::GetSize, COMDAT
; _this$ = ecx

; 823  : 	virtual DWORD	GetSize() const { return m_Size; }

  00000	0f b7 41 08	 movzx	 eax, WORD PTR [ecx+8]
  00004	c3		 ret	 0
?GetSize@?$CTypePack2@VCSprite@@VCSprite555@@VCSprite565@@@@UBEKXZ ENDP ; CTypePack2<CSprite,CSprite555,CSprite565>::GetSize
; Function compile flags: /Ogty
_TEXT	ENDS
;	COMDAT ?Is565@?$CTypePack2@VCSprite@@VCSprite555@@VCSprite565@@@@UAE_NXZ
_TEXT	SEGMENT
?Is565@?$CTypePack2@VCSprite@@VCSprite555@@VCSprite565@@@@UAE_NXZ PROC NEAR ; CTypePack2<CSprite,CSprite555,CSprite565>::Is565, COMDAT
; _this$ = ecx

; 847  : 	virtual bool Is565() { return m_bSecond; }

  00000	8a 41 44	 mov	 al, BYTE PTR [ecx+68]
  00003	c3		 ret	 0
?Is565@?$CTypePack2@VCSprite@@VCSprite555@@VCSprite565@@@@UAE_NXZ ENDP ; CTypePack2<CSprite,CSprite555,CSprite565>::Is565
; Function compile flags: /Ogty
_TEXT	ENDS
;	COMDAT ??A?$CTypePack2@VCSprite@@VCSprite555@@VCSprite565@@@@UAEAAVCSprite@@G@Z
_TEXT	SEGMENT
_n$ = 8							; size = 2
??A?$CTypePack2@VCSprite@@VCSprite555@@VCSprite565@@@@UAEAAVCSprite@@G@Z PROC NEAR ; CTypePack2<CSprite,CSprite555,CSprite565>::operator[], COMDAT
; _this$ = ecx

; 930  : 	return Get(n);

  00000	8b 01		 mov	 eax, DWORD PTR [ecx]
  00002	ff 60 3c	 jmp	 DWORD PTR [eax+60]
??A?$CTypePack2@VCSprite@@VCSprite555@@VCSprite565@@@@UAEAAVCSprite@@G@Z ENDP ; CTypePack2<CSprite,CSprite555,CSprite565>::operator[]
; Function compile flags: /Ogty
_TEXT	ENDS
;	COMDAT ?LoadFromFilePart@?$CTypePack2@VCSprite@@VCSprite555@@VCSprite565@@@@UAE_NHH@Z
_TEXT	SEGMENT
_first$ = 8						; size = 4
_last$ = 12						; size = 4
?LoadFromFilePart@?$CTypePack2@VCSprite@@VCSprite555@@VCSprite565@@@@UAE_NHH@Z PROC NEAR ; CTypePack2<CSprite,CSprite555,CSprite565>::LoadFromFilePart, COMDAT
; _this$ = ecx

; 1281 : {

  00000	53		 push	 ebx
  00001	8b d9		 mov	 ebx, ecx

; 1282 : 	if(!m_bRunningLoad) return true;

  00003	8a 43 0a	 mov	 al, BYTE PTR [ebx+10]
  00006	84 c0		 test	 al, al
  00008	74 2a		 je	 SHORT $L97625
  0000a	56		 push	 esi
  0000b	57		 push	 edi

; 1283 : 
; 1284 : 	last = min(last, 0xFFFE);

  0000c	8b 7c 24 14	 mov	 edi, DWORD PTR _last$[esp+8]
  00010	81 ff fe ff 00
	00		 cmp	 edi, 65534		; 0000fffeH
  00016	7c 05		 jl	 SHORT $L97622
  00018	bf fe ff 00 00	 mov	 edi, 65534		; 0000fffeH
$L97622:

; 1285 : 
; 1286 : 	register int i = first;

  0001d	8b 74 24 10	 mov	 esi, DWORD PTR _first$[esp+8]

; 1287 : 
; 1288 : 	for(; i <= last; i++)

  00021	3b f7		 cmp	 esi, edi
  00023	7f 0d		 jg	 SHORT $L90785
$L90783:

; 1289 : 		Get(i);

  00025	8b 03		 mov	 eax, DWORD PTR [ebx]
  00027	56		 push	 esi
  00028	8b cb		 mov	 ecx, ebx
  0002a	ff 50 3c	 call	 DWORD PTR [eax+60]
  0002d	46		 inc	 esi
  0002e	3b f7		 cmp	 esi, edi
  00030	7e f3		 jle	 SHORT $L90783
$L90785:
  00032	5f		 pop	 edi
  00033	5e		 pop	 esi
$L97625:

; 1290 : 
; 1291 : 	return true;

  00034	b0 01		 mov	 al, 1
  00036	5b		 pop	 ebx

; 1292 : }

  00037	c2 08 00	 ret	 8
?LoadFromFilePart@?$CTypePack2@VCSprite@@VCSprite555@@VCSprite565@@@@UAE_NHH@Z ENDP ; CTypePack2<CSprite,CSprite555,CSprite565>::LoadFromFilePart
_TEXT	ENDS
PUBLIC	??0CSprite555@@QAE@XZ				; CSprite555::CSprite555
PUBLIC	??0CSprite565@@QAE@XZ				; CSprite565::CSprite565
EXTRN	??_L@YGXPAXIHP6EX0@Z1@Z:NEAR			; `eh vector constructor iterator'
EXTRN	?m_b565@CDirectDraw@@1_NA:BYTE			; CDirectDraw::m_b565
;	COMDAT xdata$x
; File c:\darkeden\designed_common\project\client\cdirectdraw.h
xdata$x	SEGMENT
$T97648	DD	0ffffffffH
	DD	FLAT:$L97639
	DD	0ffffffffH
	DD	FLAT:$L97640
$T97645	DD	019930520H
	DD	02H
	DD	FLAT:$T97648
	DD	2 DUP(00H)
	DD	2 DUP(00H)
; Function compile flags: /Ogty
; File c:\darkeden\designed_common\project\client\spritelib\ctypepack.h
xdata$x	ENDS
;	COMDAT ?Init@?$CTypePack2@VCSprite@@VCSprite555@@VCSprite565@@@@UAEXG@Z
_TEXT	SEGMENT
__$EHRec$ = -12						; size = 12
$T97636 = 8						; size = 4
$T97631 = 8						; size = 4
_size$ = 8						; size = 2
?Init@?$CTypePack2@VCSprite@@VCSprite555@@VCSprite565@@@@UAEXG@Z PROC NEAR ; CTypePack2<CSprite,CSprite555,CSprite565>::Init, COMDAT
; _this$ = ecx

; 912  : {

  00000	64 a1 00 00 00
	00		 mov	 eax, DWORD PTR fs:__except_list
  00006	6a ff		 push	 -1
  00008	68 00 00 00 00	 push	 __ehhandler$?Init@?$CTypePack2@VCSprite@@VCSprite555@@VCSprite565@@@@UAEXG@Z
  0000d	50		 push	 eax
  0000e	64 89 25 00 00
	00 00		 mov	 DWORD PTR fs:__except_list, esp
  00015	55		 push	 ebp
  00016	56		 push	 esi

; 913  : 	if(size == 0)

  00017	66 8b 74 24 18	 mov	 si, WORD PTR _size$[esp+16]
  0001c	57		 push	 edi
  0001d	33 ff		 xor	 edi, edi
  0001f	66 3b f7	 cmp	 si, di
  00022	8b e9		 mov	 ebp, ecx
  00024	0f 84 81 00 00
	00		 je	 $L90115

; 914  : 		return;
; 915  : 	
; 916  : 	Release();

  0002a	8b 45 00	 mov	 eax, DWORD PTR [ebp]
  0002d	ff 50 08	 call	 DWORD PTR [eax+8]

; 917  : 	
; 918  : 	m_Size = size;

  00030	66 89 75 08	 mov	 WORD PTR [ebp+8], si

; 919  : 	m_bSecond = CDirectDraw::Is565();

  00034	8a 0d 00 00 00
	00		 mov	 cl, BYTE PTR ?m_b565@CDirectDraw@@1_NA ; CDirectDraw::m_b565

; 920  : 
; 921  : 	if( m_bSecond == true )

  0003a	8a c1		 mov	 al, cl
  0003c	3c 01		 cmp	 al, 1
  0003e	88 4d 44	 mov	 BYTE PTR [ebp+68], cl

; 922  : 		m_pData = new Type2[size];

  00041	0f b7 f6	 movzx	 esi, si
  00044	75 29		 jne	 SHORT $L90107
  00046	8b d6		 mov	 edx, esi
  00048	c1 e2 04	 shl	 edx, 4
  0004b	83 c2 04	 add	 edx, 4
  0004e	52		 push	 edx
  0004f	e8 00 00 00 00	 call	 ??_U@YAPAXI@Z		; operator new[]
  00054	83 c4 04	 add	 esp, 4
  00057	89 44 24 1c	 mov	 DWORD PTR $T97631[esp+20], eax
  0005b	3b c7		 cmp	 eax, edi
  0005d	89 7c 24 14	 mov	 DWORD PTR __$EHRec$[esp+32], edi
  00061	74 45		 je	 SHORT $L97638
  00063	68 00 00 00 00	 push	 OFFSET FLAT:??1CSprite565@@QAE@XZ
  00068	68 00 00 00 00	 push	 OFFSET FLAT:??0CSprite565@@QAE@XZ

; 923  : 	else

  0006d	eb 2b		 jmp	 SHORT $L97647
$L90107:

; 924  : 		m_pData = new Type1[size];

  0006f	8b c6		 mov	 eax, esi
  00071	c1 e0 04	 shl	 eax, 4
  00074	83 c0 04	 add	 eax, 4
  00077	50		 push	 eax
  00078	e8 00 00 00 00	 call	 ??_U@YAPAXI@Z		; operator new[]
  0007d	83 c4 04	 add	 esp, 4
  00080	89 44 24 1c	 mov	 DWORD PTR $T97636[esp+20], eax
  00084	3b c7		 cmp	 eax, edi
  00086	c7 44 24 14 01
	00 00 00	 mov	 DWORD PTR __$EHRec$[esp+32], 1
  0008e	74 18		 je	 SHORT $L97638
  00090	68 00 00 00 00	 push	 OFFSET FLAT:??1CSprite555@@QAE@XZ
  00095	68 00 00 00 00	 push	 OFFSET FLAT:??0CSprite555@@QAE@XZ
$L97647:
  0009a	56		 push	 esi
  0009b	8d 78 04	 lea	 edi, DWORD PTR [eax+4]
  0009e	6a 10		 push	 16			; 00000010H
  000a0	57		 push	 edi
  000a1	89 30		 mov	 DWORD PTR [eax], esi
  000a3	e8 00 00 00 00	 call	 ??_L@YGXPAXIHP6EX0@Z1@Z
$L97638:
  000a8	89 7d 04	 mov	 DWORD PTR [ebp+4], edi
$L90115:

; 925  : }

  000ab	8b 4c 24 0c	 mov	 ecx, DWORD PTR __$EHRec$[esp+24]
  000af	5f		 pop	 edi
  000b0	5e		 pop	 esi
  000b1	64 89 0d 00 00
	00 00		 mov	 DWORD PTR fs:__except_list, ecx
  000b8	5d		 pop	 ebp
  000b9	83 c4 0c	 add	 esp, 12			; 0000000cH
  000bc	c2 04 00	 ret	 4
_TEXT	ENDS
;	COMDAT text$x
text$x	SEGMENT
$L97639:
  00000	8b 45 04	 mov	 eax, DWORD PTR $T97631[ebp-4]
  00003	50		 push	 eax
  00004	e8 00 00 00 00	 call	 ??_V@YAXPAX@Z		; operator delete[]
  00009	59		 pop	 ecx
  0000a	c3		 ret	 0
$L97640:
  0000b	8b 45 04	 mov	 eax, DWORD PTR $T97636[ebp-4]
  0000e	50		 push	 eax
  0000f	e8 00 00 00 00	 call	 ??_V@YAXPAX@Z		; operator delete[]
  00014	59		 pop	 ecx
  00015	c3		 ret	 0
__ehhandler$?Init@?$CTypePack2@VCSprite@@VCSprite555@@VCSprite565@@@@UAEXG@Z:
  00016	b8 00 00 00 00	 mov	 eax, OFFSET FLAT:$T97645
  0001b	e9 00 00 00 00	 jmp	 ___CxxFrameHandler
text$x	ENDS
?Init@?$CTypePack2@VCSprite@@VCSprite555@@VCSprite565@@@@UAEXG@Z ENDP ; CTypePack2<CSprite,CSprite555,CSprite565>::Init
PUBLIC	??_R1A@?0A@A@CSprite@@8				; CSprite::`RTTI Base Class Descriptor at (0,-1,0,0)'
PUBLIC	??_R0?AVCSprite@@@8				; CSprite `RTTI Type Descriptor'
PUBLIC	??_R4CSprite565@@6B@				; CSprite565::`RTTI Complete Object Locator'
PUBLIC	??_R0?AVCSprite565@@@8				; CSprite565 `RTTI Type Descriptor'
PUBLIC	??_R3CSprite565@@8				; CSprite565::`RTTI Class Hierarchy Descriptor'
PUBLIC	??_R2CSprite565@@8				; CSprite565::`RTTI Base Class Array'
PUBLIC	??_R1A@?0A@A@CSprite565@@8			; CSprite565::`RTTI Base Class Descriptor at (0,-1,0,0)'
PUBLIC	??_7CSprite565@@6B@				; CSprite565::`vftable'
EXTRN	??0CSprite@@QAE@XZ:NEAR				; CSprite::CSprite
EXTRN	?SaveToFile@CSprite565@@UAE_NAAV?$basic_ofstream@DV?$char_traits@D@_STL@@@_STL@@@Z:NEAR ; CSprite565::SaveToFile
EXTRN	?LoadFromFile@CSprite565@@UAE_NAAVivfstream@@@Z:NEAR ; CSprite565::LoadFromFile
;	COMDAT ??_7CSprite565@@6B@
CONST	SEGMENT
??_7CSprite565@@6B@ DD FLAT:??_R4CSprite565@@6B@	; CSprite565::`vftable'
	DD	FLAT:?SaveToFile@CSprite565@@UAE_NAAV?$basic_ofstream@DV?$char_traits@D@_STL@@@_STL@@@Z
	DD	FLAT:?LoadFromFile@CSprite565@@UAE_NAAVivfstream@@@Z
CONST	ENDS
;	COMDAT ??_R4CSprite565@@6B@
rdata$r	SEGMENT
??_R4CSprite565@@6B@ DD 00H				; CSprite565::`RTTI Complete Object Locator'
	DD	00H
	DD	00H
	DD	FLAT:??_R0?AVCSprite565@@@8
	DD	FLAT:??_R3CSprite565@@8
rdata$r	ENDS
;	COMDAT ??_R0?AVCSprite565@@@8
_DATA	SEGMENT
??_R0?AVCSprite565@@@8 DD FLAT:??_7type_info@@6B@	; CSprite565 `RTTI Type Descriptor'
	DD	00H
	DB	'.?AVCSprite565@@', 00H
_DATA	ENDS
;	COMDAT ??_R3CSprite565@@8
rdata$r	SEGMENT
??_R3CSprite565@@8 DD 00H				; CSprite565::`RTTI Class Hierarchy Descriptor'
	DD	00H
	DD	02H
	DD	FLAT:??_R2CSprite565@@8
rdata$r	ENDS
;	COMDAT ??_R2CSprite565@@8
rdata$r	SEGMENT
??_R2CSprite565@@8 DD FLAT:??_R1A@?0A@A@CSprite565@@8	; CSprite565::`RTTI Base Class Array'
	DD	FLAT:??_R1A@?0A@A@CSprite@@8
rdata$r	ENDS
;	COMDAT ??_R1A@?0A@A@CSprite565@@8
rdata$r	SEGMENT
??_R1A@?0A@A@CSprite565@@8 DD FLAT:??_R0?AVCSprite565@@@8 ; CSprite565::`RTTI Base Class Descriptor at (0,-1,0,0)'
	DD	01H
	DD	00H
	DD	0ffffffffH
	DD	00H
	DD	00H
rdata$r	ENDS
;	COMDAT ??_R1A@?0A@A@CSprite@@8
rdata$r	SEGMENT
??_R1A@?0A@A@CSprite@@8 DD FLAT:??_R0?AVCSprite@@@8	; CSprite::`RTTI Base Class Descriptor at (0,-1,0,0)'
	DD	00H
	DD	00H
	DD	0ffffffffH
	DD	00H
	DD	00H
rdata$r	ENDS
;	COMDAT ??_R0?AVCSprite@@@8
_DATA	SEGMENT
??_R0?AVCSprite@@@8 DD FLAT:??_7type_info@@6B@		; CSprite `RTTI Type Descriptor'
	DD	00H
	DB	'.?AVCSprite@@', 00H
; Function compile flags: /Ogty
_DATA	ENDS
;	COMDAT ??0CSprite565@@QAE@XZ
_TEXT	SEGMENT
??0CSprite565@@QAE@XZ PROC NEAR				; CSprite565::CSprite565, COMDAT
; _this$ = ecx
  00000	56		 push	 esi
  00001	8b f1		 mov	 esi, ecx
  00003	e8 00 00 00 00	 call	 ??0CSprite@@QAE@XZ	; CSprite::CSprite
  00008	c7 06 00 00 00
	00		 mov	 DWORD PTR [esi], OFFSET FLAT:??_7CSprite565@@6B@
  0000e	8b c6		 mov	 eax, esi
  00010	5e		 pop	 esi
  00011	c3		 ret	 0
??0CSprite565@@QAE@XZ ENDP				; CSprite565::CSprite565
_TEXT	ENDS
PUBLIC	??_R4CSprite555@@6B@				; CSprite555::`RTTI Complete Object Locator'
PUBLIC	??_R0?AVCSprite555@@@8				; CSprite555 `RTTI Type Descriptor'
PUBLIC	??_R3CSprite555@@8				; CSprite555::`RTTI Class Hierarchy Descriptor'
PUBLIC	??_R2CSprite555@@8				; CSprite555::`RTTI Base Class Array'
PUBLIC	??_R1A@?0A@A@CSprite555@@8			; CSprite555::`RTTI Base Class Descriptor at (0,-1,0,0)'
PUBLIC	??_7CSprite555@@6B@				; CSprite555::`vftable'
EXTRN	?SaveToFile@CSprite555@@UAE_NAAV?$basic_ofstream@DV?$char_traits@D@_STL@@@_STL@@@Z:NEAR ; CSprite555::SaveToFile
EXTRN	?LoadFromFile@CSprite555@@UAE_NAAVivfstream@@@Z:NEAR ; CSprite555::LoadFromFile
;	COMDAT ??_7CSprite555@@6B@
CONST	SEGMENT
??_7CSprite555@@6B@ DD FLAT:??_R4CSprite555@@6B@	; CSprite555::`vftable'
	DD	FLAT:?SaveToFile@CSprite555@@UAE_NAAV?$basic_ofstream@DV?$char_traits@D@_STL@@@_STL@@@Z
	DD	FLAT:?LoadFromFile@CSprite555@@UAE_NAAVivfstream@@@Z
CONST	ENDS
;	COMDAT ??_R4CSprite555@@6B@
rdata$r	SEGMENT
??_R4CSprite555@@6B@ DD 00H				; CSprite555::`RTTI Complete Object Locator'
	DD	00H
	DD	00H
	DD	FLAT:??_R0?AVCSprite555@@@8
	DD	FLAT:??_R3CSprite555@@8
rdata$r	ENDS
;	COMDAT ??_R0?AVCSprite555@@@8
_DATA	SEGMENT
??_R0?AVCSprite555@@@8 DD FLAT:??_7type_info@@6B@	; CSprite555 `RTTI Type Descriptor'
	DD	00H
	DB	'.?AVCSprite555@@', 00H
_DATA	ENDS
;	COMDAT ??_R3CSprite555@@8
rdata$r	SEGMENT
??_R3CSprite555@@8 DD 00H				; CSprite555::`RTTI Class Hierarchy Descriptor'
	DD	00H
	DD	02H
	DD	FLAT:??_R2CSprite555@@8
rdata$r	ENDS
;	COMDAT ??_R2CSprite555@@8
rdata$r	SEGMENT
??_R2CSprite555@@8 DD FLAT:??_R1A@?0A@A@CSprite555@@8	; CSprite555::`RTTI Base Class Array'
	DD	FLAT:??_R1A@?0A@A@CSprite@@8
rdata$r	ENDS
;	COMDAT ??_R1A@?0A@A@CSprite555@@8
rdata$r	SEGMENT
??_R1A@?0A@A@CSprite555@@8 DD FLAT:??_R0?AVCSprite555@@@8 ; CSprite555::`RTTI Base Class Descriptor at (0,-1,0,0)'
	DD	01H
	DD	00H
	DD	0ffffffffH
	DD	00H
	DD	00H
; Function compile flags: /Ogty
rdata$r	ENDS
;	COMDAT ??0CSprite555@@QAE@XZ
_TEXT	SEGMENT
??0CSprite555@@QAE@XZ PROC NEAR				; CSprite555::CSprite555, COMDAT
; _this$ = ecx
  00000	56		 push	 esi
  00001	8b f1		 mov	 esi, ecx
  00003	e8 00 00 00 00	 call	 ??0CSprite@@QAE@XZ	; CSprite::CSprite
  00008	c7 06 00 00 00
	00		 mov	 DWORD PTR [esi], OFFSET FLAT:??_7CSprite555@@6B@
  0000e	8b c6		 mov	 eax, esi
  00010	5e		 pop	 esi
  00011	c3		 ret	 0
??0CSprite555@@QAE@XZ ENDP				; CSprite555::CSprite555
_TEXT	ENDS
PUBLIC	?size@?$list@GV?$allocator@G@_STL@@@_STL@@QBEIXZ ; _STL::list<unsigned short,_STL::allocator<unsigned short> >::size
; Function compile flags: /Ogty
;	COMDAT ?LoadFromFilePart@?$CTypePack2@VCSprite@@VCSprite555@@VCSprite565@@@@UAE_NAAVCSpriteSetManager@@@Z
_TEXT	SEGMENT
_SSM$ = 8						; size = 4
?LoadFromFilePart@?$CTypePack2@VCSprite@@VCSprite555@@VCSprite565@@@@UAE_NAAVCSpriteSetManager@@@Z PROC NEAR ; CTypePack2<CSprite,CSprite555,CSprite565>::LoadFromFilePart, COMDAT
; _this$ = ecx

; 1296 : {

  00000	55		 push	 ebp
  00001	8b e9		 mov	 ebp, ecx

; 1297 : 	if(!m_bRunningLoad) return true;

  00003	8a 45 0a	 mov	 al, BYTE PTR [ebp+10]
  00006	84 c0		 test	 al, al
  00008	74 42		 je	 SHORT $L97781
  0000a	53		 push	 ebx

; 1298 : 
; 1299 : 	CSpriteSetManager::DATA_LIST::const_iterator iID = SSM.GetIterator();

  0000b	8b 5c 24 0c	 mov	 ebx, DWORD PTR _SSM$[esp+4]
  0000f	8b 03		 mov	 eax, DWORD PTR [ebx]
  00011	56		 push	 esi
  00012	8b 30		 mov	 esi, DWORD PTR [eax]
  00014	57		 push	 edi

; 1300 : 	register int t = 0;
; 1301 : 
; 1302 : 	for(; t<SSM.GetSize(); ++t, ++iID)

  00015	8b cb		 mov	 ecx, ebx
  00017	33 ff		 xor	 edi, edi
  00019	e8 00 00 00 00	 call	 ?size@?$list@GV?$allocator@G@_STL@@@_STL@@QBEIXZ ; _STL::list<unsigned short,_STL::allocator<unsigned short> >::size
  0001e	66 85 c0	 test	 ax, ax
  00021	76 26		 jbe	 SHORT $L90771
$L97691:

; 1303 : 	{
; 1304 : 		if(*iID != 0xFFFF)
; 1305 : 			Get(*iID);

  00023	33 c0		 xor	 eax, eax
  00025	66 8b 46 08	 mov	 ax, WORD PTR [esi+8]
  00029	66 3d ff ff	 cmp	 ax, 65535		; 0000ffffH
  0002d	74 09		 je	 SHORT $L90770
  0002f	8b 55 00	 mov	 edx, DWORD PTR [ebp]
  00032	50		 push	 eax
  00033	8b cd		 mov	 ecx, ebp
  00035	ff 52 3c	 call	 DWORD PTR [edx+60]
$L90770:
  00038	8b 36		 mov	 esi, DWORD PTR [esi]
  0003a	8b cb		 mov	 ecx, ebx
  0003c	47		 inc	 edi
  0003d	e8 00 00 00 00	 call	 ?size@?$list@GV?$allocator@G@_STL@@@_STL@@QBEIXZ ; _STL::list<unsigned short,_STL::allocator<unsigned short> >::size
  00042	0f b7 c0	 movzx	 eax, ax
  00045	3b f8		 cmp	 edi, eax
  00047	7c da		 jl	 SHORT $L97691
$L90771:
  00049	5f		 pop	 edi
  0004a	5e		 pop	 esi
  0004b	5b		 pop	 ebx
$L97781:

; 1306 : 	}
; 1307 : 
; 1308 : 	return true;

  0004c	b0 01		 mov	 al, 1
  0004e	5d		 pop	 ebp

; 1309 : }

  0004f	c2 04 00	 ret	 4
?LoadFromFilePart@?$CTypePack2@VCSprite@@VCSprite555@@VCSprite565@@@@UAE_NAAVCSpriteSetManager@@@Z ENDP ; CTypePack2<CSprite,CSprite555,CSprite565>::LoadFromFilePart
; Function compile flags: /Ogty
; File c:\stlport-4.6.1\stlport\stl\_list.h
_TEXT	ENDS
;	COMDAT ?size@?$list@GV?$allocator@G@_STL@@@_STL@@QBEIXZ
_TEXT	SEGMENT
?size@?$list@GV?$allocator@G@_STL@@@_STL@@QBEIXZ PROC NEAR ; _STL::list<unsigned short,_STL::allocator<unsigned short> >::size, COMDAT
; _this$ = ecx

; 284  :     size_type __result = distance(begin(), end());

  00000	8b 11		 mov	 edx, DWORD PTR [ecx]
  00002	8b 0a		 mov	 ecx, DWORD PTR [edx]
  00004	33 c0		 xor	 eax, eax
  00006	3b ca		 cmp	 ecx, edx
  00008	74 0d		 je	 SHORT $L97858
  0000a	8d 9b 00 00 00
	00		 npad	 6
$L97857:
  00010	8b 09		 mov	 ecx, DWORD PTR [ecx]
  00012	40		 inc	 eax
  00013	3b ca		 cmp	 ecx, edx
  00015	75 f9		 jne	 SHORT $L97857
$L97858:

; 285  :     return __result;
; 286  :   }

  00017	c3		 ret	 0
?size@?$list@GV?$allocator@G@_STL@@@_STL@@QBEIXZ ENDP	; _STL::list<unsigned short,_STL::allocator<unsigned short> >::size
_TEXT	ENDS
PUBLIC	??$_M_find@G@?$_Rb_tree@GU?$pair@$$CBGPAVivfstream@@@_STL@@U?$_Select1st@U?$pair@$$CBGPAVivfstream@@@_STL@@@2@U?$less@G@2@V?$allocator@U?$pair@$$CBGPAVivfstream@@@_STL@@@2@@_STL@@ABEPAU?$_Rb_tree_node@U?$pair@$$CBGPAVivfstream@@@_STL@@@1@ABG@Z ; _STL::_Rb_tree<unsigned short,_STL::pair<unsigned short const ,ivfstream *>,_STL::_Select1st<_STL::pair<unsigned short const ,ivfstream *> >,_STL::less<unsigned short>,_STL::allocator<_STL::pair<unsigned short const ,ivfstream *> > >::_M_find<unsigned short>
PUBLIC	?GetSplitFile@?$CTypePack2@VCSprite@@VCSprite555@@VCSprite565@@@@IAEHHPAD@Z ; CTypePack2<CSprite,CSprite555,CSprite565>::GetSplitFile
PUBLIC	?erase@?$_Rb_tree@GU?$pair@$$CBGPAVivfstream@@@_STL@@U?$_Select1st@U?$pair@$$CBGPAVivfstream@@@_STL@@@2@U?$less@G@2@V?$allocator@U?$pair@$$CBGPAVivfstream@@@_STL@@@2@@_STL@@QAEXU?$_Rb_tree_iterator@U?$pair@$$CBGPAVivfstream@@@_STL@@U?$_Nonconst_traits@U?$pair@$$CBGPAVivfstream@@@_STL@@@2@@2@@Z ; _STL::_Rb_tree<unsigned short,_STL::pair<unsigned short const ,ivfstream *>,_STL::_Select1st<_STL::pair<unsigned short const ,ivfstream *> >,_STL::less<unsigned short>,_STL::allocator<_STL::pair<unsigned short const ,ivfstream *> > >::erase
EXTRN	?Release@CSprite@@QAEXXZ:NEAR			; CSprite::Release
; Function compile flags: /Ogty
; File c:\darkeden\designed_common\project\client\spritelib\ctypepack.h
;	COMDAT ?ReleasePart@?$CTypePack2@VCSprite@@VCSprite555@@VCSprite565@@@@UAE_NHH@Z
_TEXT	SEGMENT
_fileIdx$90904 = 8					; size = 2
_first$ = 8						; size = 4
_last$ = 12						; size = 4
?ReleasePart@?$CTypePack2@VCSprite@@VCSprite555@@VCSprite565@@@@UAE_NHH@Z PROC NEAR ; CTypePack2<CSprite,CSprite555,CSprite565>::ReleasePart, COMDAT
; _this$ = ecx

; 1339 : {

  00000	53		 push	 ebx

; 1340 : 	last = min(last, 0xFFFE);

  00001	8b 5c 24 0c	 mov	 ebx, DWORD PTR _last$[esp]
  00005	81 fb fe ff 00
	00		 cmp	 ebx, 65534		; 0000fffeH
  0000b	55		 push	 ebp
  0000c	56		 push	 esi
  0000d	57		 push	 edi
  0000e	8b f1		 mov	 esi, ecx
  00010	7c 0c		 jl	 SHORT $L97867
  00012	c7 44 24 18 fe
	ff 00 00	 mov	 DWORD PTR _last$[esp+12], 65534 ; 0000fffeH
  0001a	8b 5c 24 18	 mov	 ebx, DWORD PTR _last$[esp+12]
$L97867:

; 1341 : 
; 1342 : 	if(m_bSplitFile)

  0001e	8a 46 14	 mov	 al, BYTE PTR [esi+20]
  00021	84 c0		 test	 al, al
  00023	0f 84 98 00 00
	00		 je	 $L90899

; 1343 : 	{
; 1344 : 		register int i = first;

  00029	8b 6c 24 14	 mov	 ebp, DWORD PTR _first$[esp+12]

; 1345 : 
; 1346 : 		for(; i <= last; i++)

  0002d	3b eb		 cmp	 ebp, ebx
  0002f	0f 8f ac 00 00
	00		 jg	 $L97957
  00035	8d 5e 38	 lea	 ebx, DWORD PTR [esi+56]
$L90901:

; 1347 : 		{
; 1348 : 			WORD fileIdx = GetSplitFile(i);

  00038	6a 00		 push	 0
  0003a	55		 push	 ebp
  0003b	8b ce		 mov	 ecx, esi
  0003d	e8 00 00 00 00	 call	 ?GetSplitFile@?$CTypePack2@VCSprite@@VCSprite555@@VCSprite565@@@@IAEHHPAD@Z ; CTypePack2<CSprite,CSprite555,CSprite565>::GetSplitFile
  00042	89 44 24 14	 mov	 DWORD PTR _fileIdx$90904[esp+12], eax

; 1349 : 
; 1350 : 			FILECACHE_MAP::iterator pos = m_FileCacheMap.find(fileIdx);

  00046	8d 44 24 14	 lea	 eax, DWORD PTR _fileIdx$90904[esp+12]
  0004a	50		 push	 eax
  0004b	8b cb		 mov	 ecx, ebx
  0004d	e8 00 00 00 00	 call	 ??$_M_find@G@?$_Rb_tree@GU?$pair@$$CBGPAVivfstream@@@_STL@@U?$_Select1st@U?$pair@$$CBGPAVivfstream@@@_STL@@@2@U?$less@G@2@V?$allocator@U?$pair@$$CBGPAVivfstream@@@_STL@@@2@@_STL@@ABEPAU?$_Rb_tree_node@U?$pair@$$CBGPAVivfstream@@@_STL@@@1@ABG@Z ; _STL::_Rb_tree<unsigned short,_STL::pair<unsigned short const ,ivfstream *>,_STL::_Select1st<_STL::pair<unsigned short const ,ivfstream *> >,_STL::less<unsigned short>,_STL::allocator<_STL::pair<unsigned short const ,ivfstream *> > >::_M_find<unsigned short>
  00052	8b f8		 mov	 edi, eax

; 1351 : 			if(pos != m_FileCacheMap.end())

  00054	3b 3b		 cmp	 edi, DWORD PTR [ebx]
  00056	74 19		 je	 SHORT $L97944

; 1352 : 			{
; 1353 : 				delete pos->second;

  00058	8b 4f 14	 mov	 ecx, DWORD PTR [edi+20]
  0005b	85 c9		 test	 ecx, ecx
  0005d	74 06		 je	 SHORT $L97871
  0005f	8b 11		 mov	 edx, DWORD PTR [ecx]
  00061	6a 01		 push	 1
  00063	ff 12		 call	 DWORD PTR [edx]
$L97871:

; 1354 : 				m_FileCacheMap.erase(pos);

  00065	51		 push	 ecx
  00066	8b c4		 mov	 eax, esp
  00068	8b cb		 mov	 ecx, ebx
  0006a	89 38		 mov	 DWORD PTR [eax], edi
  0006c	e8 00 00 00 00	 call	 ?erase@?$_Rb_tree@GU?$pair@$$CBGPAVivfstream@@@_STL@@U?$_Select1st@U?$pair@$$CBGPAVivfstream@@@_STL@@@2@U?$less@G@2@V?$allocator@U?$pair@$$CBGPAVivfstream@@@_STL@@@2@@_STL@@QAEXU?$_Rb_tree_iterator@U?$pair@$$CBGPAVivfstream@@@_STL@@U?$_Nonconst_traits@U?$pair@$$CBGPAVivfstream@@@_STL@@@2@@2@@Z ; _STL::_Rb_tree<unsigned short,_STL::pair<unsigned short const ,ivfstream *>,_STL::_Select1st<_STL::pair<unsigned short const ,ivfstream *> >,_STL::less<unsigned short>,_STL::allocator<_STL::pair<unsigned short const ,ivfstream *> > >::erase
$L97944:

; 1355 : 			}
; 1356 : 
; 1357 : 			for(int j = 0;
; 1358 : 				j < m_nUnitCount && fileIdx < m_Size;
; 1359 : 				++j, ++i, ++fileIdx)

  00071	8b 46 18	 mov	 eax, DWORD PTR [esi+24]
  00074	33 ff		 xor	 edi, edi
  00076	85 c0		 test	 eax, eax
  00078	7e 35		 jle	 SHORT $L90902
  0007a	8b 44 24 14	 mov	 eax, DWORD PTR _fileIdx$90904[esp+12]
  0007e	8b ff		 npad	 2
$L90913:
  00080	66 3b 46 08	 cmp	 ax, WORD PTR [esi+8]
  00084	73 29		 jae	 SHORT $L90902

; 1360 : 			{
; 1361 : 				if(m_pData[fileIdx].IsInit())

  00086	8b 56 04	 mov	 edx, DWORD PTR [esi+4]
  00089	0f b7 c8	 movzx	 ecx, ax
  0008c	c1 e1 04	 shl	 ecx, 4
  0008f	03 ca		 add	 ecx, edx
  00091	8a 51 0c	 mov	 dl, BYTE PTR [ecx+12]
  00094	84 d2		 test	 dl, dl
  00096	74 09		 je	 SHORT $L90914

; 1362 : 					m_pData[fileIdx].Release();

  00098	e8 00 00 00 00	 call	 ?Release@CSprite@@QAEXXZ ; CSprite::Release
  0009d	8b 44 24 14	 mov	 eax, DWORD PTR _fileIdx$90904[esp+12]
$L90914:
  000a1	8b 4e 18	 mov	 ecx, DWORD PTR [esi+24]
  000a4	47		 inc	 edi
  000a5	45		 inc	 ebp
  000a6	40		 inc	 eax
  000a7	3b f9		 cmp	 edi, ecx
  000a9	89 44 24 14	 mov	 DWORD PTR _fileIdx$90904[esp+12], eax
  000ad	7c d1		 jl	 SHORT $L90913
$L90902:

; 1345 : 
; 1346 : 		for(; i <= last; i++)

  000af	8b 44 24 18	 mov	 eax, DWORD PTR _last$[esp+12]
  000b3	45		 inc	 ebp
  000b4	3b e8		 cmp	 ebp, eax
  000b6	7e 80		 jle	 SHORT $L90901

; 1373 : 		}
; 1374 : 	}
; 1375 : 
; 1376 : 	return true;

  000b8	b0 01		 mov	 al, 1

; 1377 : }

  000ba	5f		 pop	 edi
  000bb	5e		 pop	 esi
  000bc	5d		 pop	 ebp
  000bd	5b		 pop	 ebx
  000be	c2 08 00	 ret	 8
$L90899:

; 1363 : 			}
; 1364 : 		}
; 1365 : 	}
; 1366 : 	else
; 1367 : 	{
; 1368 : 		register int i = first;
; 1369 : 
; 1370 : 		for(; i <= last; i++)

  000c1	8b 44 24 14	 mov	 eax, DWORD PTR _first$[esp+12]
  000c5	3b c3		 cmp	 eax, ebx
  000c7	7f 18		 jg	 SHORT $L97957
  000c9	8b f8		 mov	 edi, eax
  000cb	2b d8		 sub	 ebx, eax
  000cd	c1 e7 04	 shl	 edi, 4
  000d0	43		 inc	 ebx
$L90919:
  000d1	8b 4e 04	 mov	 ecx, DWORD PTR [esi+4]
  000d4	03 cf		 add	 ecx, edi

; 1371 : 		{
; 1372 : 			m_pData[i].Release();

  000d6	e8 00 00 00 00	 call	 ?Release@CSprite@@QAEXXZ ; CSprite::Release
  000db	83 c7 10	 add	 edi, 16			; 00000010H
  000de	4b		 dec	 ebx
  000df	75 f0		 jne	 SHORT $L90919
$L97957:

; 1377 : }

  000e1	5f		 pop	 edi
  000e2	5e		 pop	 esi
  000e3	5d		 pop	 ebp
  000e4	b0 01		 mov	 al, 1
  000e6	5b		 pop	 ebx
  000e7	c2 08 00	 ret	 8
?ReleasePart@?$CTypePack2@VCSprite@@VCSprite555@@VCSprite565@@@@UAE_NHH@Z ENDP ; CTypePack2<CSprite,CSprite555,CSprite565>::ReleasePart
_TEXT	ENDS
PUBLIC	??_C@_09EIKOIO@?$CFs?2?$CF05d?$CFs?$AA@		; `string'
EXTRN	_sprintf:NEAR
;	COMDAT ??_C@_09EIKOIO@?$CFs?2?$CF05d?$CFs?$AA@
; File c:\stlport-4.6.1\stlport\stl\_string.h
CONST	SEGMENT
??_C@_09EIKOIO@?$CFs?2?$CF05d?$CFs?$AA@ DB '%s\%05d%s', 00H ; `string'
; Function compile flags: /Ogty
; File c:\darkeden\designed_common\project\client\spritelib\ctypepack.h
CONST	ENDS
;	COMDAT ?GetSplitFile@?$CTypePack2@VCSprite@@VCSprite555@@VCSprite565@@@@IAEHHPAD@Z
_TEXT	SEGMENT
_idx$ = 8						; size = 4
_szBuf$ = 12						; size = 4
?GetSplitFile@?$CTypePack2@VCSprite@@VCSprite555@@VCSprite565@@@@IAEHHPAD@Z PROC NEAR ; CTypePack2<CSprite,CSprite555,CSprite565>::GetSplitFile, COMDAT
; _this$ = ecx

; 1588 : {

  00000	56		 push	 esi

; 1589 : 	WORD fileIdx = (idx >> m_nUnitTwoMultiplier) << m_nUnitTwoMultiplier;

  00001	8b 74 24 08	 mov	 esi, DWORD PTR _idx$[esp]
  00005	8b c1		 mov	 eax, ecx
  00007	8b 48 1c	 mov	 ecx, DWORD PTR [eax+28]
  0000a	d3 fe		 sar	 esi, cl
  0000c	d3 e6		 shl	 esi, cl

; 1590 : 
; 1591 : 	if(szBuf)

  0000e	8b 4c 24 0c	 mov	 ecx, DWORD PTR _szBuf$[esp]
  00012	85 c9		 test	 ecx, ecx
  00014	74 1a		 je	 SHORT $L97969

; 1592 : 	{
; 1593 : 		sprintf(szBuf, "%s\\%05d%s",
; 1594 : 			m_strFileName.c_str(), fileIdx, m_strFileExt.c_str());

  00016	8b 50 2c	 mov	 edx, DWORD PTR [eax+44]
  00019	8b 40 20	 mov	 eax, DWORD PTR [eax+32]
  0001c	52		 push	 edx
  0001d	0f b7 d6	 movzx	 edx, si
  00020	52		 push	 edx
  00021	50		 push	 eax
  00022	68 00 00 00 00	 push	 OFFSET FLAT:??_C@_09EIKOIO@?$CFs?2?$CF05d?$CFs?$AA@
  00027	51		 push	 ecx
  00028	e8 00 00 00 00	 call	 _sprintf
  0002d	83 c4 14	 add	 esp, 20			; 00000014H
$L97969:

; 1595 : 	}
; 1596 : 
; 1597 : 	return fileIdx;

  00030	0f b7 c6	 movzx	 eax, si
  00033	5e		 pop	 esi

; 1598 : }

  00034	c2 08 00	 ret	 8
?GetSplitFile@?$CTypePack2@VCSprite@@VCSprite555@@VCSprite565@@@@IAEHHPAD@Z ENDP ; CTypePack2<CSprite,CSprite555,CSprite565>::GetSplitFile
_TEXT	ENDS
EXTRN	?_Rebalance_for_erase@?$_Rb_global@_N@_STL@@SAPAU_Rb_tree_node_base@2@PAU32@AAPAU32@11@Z:NEAR ; _STL::_Rb_global<bool>::_Rebalance_for_erase
; Function compile flags: /Ogty
; File c:\stlport-4.6.1\stlport\stl\_tree.h
;	COMDAT ?erase@?$_Rb_tree@GU?$pair@$$CBGPAVivfstream@@@_STL@@U?$_Select1st@U?$pair@$$CBGPAVivfstream@@@_STL@@@2@U?$less@G@2@V?$allocator@U?$pair@$$CBGPAVivfstream@@@_STL@@@2@@_STL@@QAEXU?$_Rb_tree_iterator@U?$pair@$$CBGPAVivfstream@@@_STL@@U?$_Nonconst_traits@U?$pair@$$CBGPAVivfstream@@@_STL@@@2@@2@@Z
_TEXT	SEGMENT
___position$ = 8					; size = 4
?erase@?$_Rb_tree@GU?$pair@$$CBGPAVivfstream@@@_STL@@U?$_Select1st@U?$pair@$$CBGPAVivfstream@@@_STL@@@2@U?$less@G@2@V?$allocator@U?$pair@$$CBGPAVivfstream@@@_STL@@@2@@_STL@@QAEXU?$_Rb_tree_iterator@U?$pair@$$CBGPAVivfstream@@@_STL@@U?$_Nonconst_traits@U?$pair@$$CBGPAVivfstream@@@_STL@@@2@@2@@Z PROC NEAR ; _STL::_Rb_tree<unsigned short,_STL::pair<unsigned short const ,ivfstream *>,_STL::_Select1st<_STL::pair<unsigned short const ,ivfstream *> >,_STL::less<unsigned short>,_STL::allocator<_STL::pair<unsigned short const ,ivfstream *> > >::erase, COMDAT
; _this$ = ecx

; 416  :   void erase(iterator __position) {

  00000	56		 push	 esi
  00001	8b f1		 mov	 esi, ecx

; 417  :     _Link_type __y = 
; 418  :       (_Link_type) _Rb_global_inst::_Rebalance_for_erase(__position._M_node,
; 419  : 							 this->_M_header._M_data->_M_parent,
; 420  : 							 this->_M_header._M_data->_M_left,
; 421  : 							 this->_M_header._M_data->_M_right);

  00003	8b 06		 mov	 eax, DWORD PTR [esi]
  00005	8d 48 0c	 lea	 ecx, DWORD PTR [eax+12]
  00008	51		 push	 ecx
  00009	8d 50 08	 lea	 edx, DWORD PTR [eax+8]
  0000c	52		 push	 edx
  0000d	83 c0 04	 add	 eax, 4
  00010	50		 push	 eax
  00011	8b 44 24 14	 mov	 eax, DWORD PTR ___position$[esp+12]
  00015	50		 push	 eax
  00016	e8 00 00 00 00	 call	 ?_Rebalance_for_erase@?$_Rb_global@_N@_STL@@SAPAU_Rb_tree_node_base@2@PAU32@AAPAU32@11@Z ; _STL::_Rb_global<bool>::_Rebalance_for_erase
  0001b	83 c4 10	 add	 esp, 16			; 00000010H

; 422  :     _STLP_STD::_Destroy(&__y->_M_value_field);
; 423  :     this->_M_header.deallocate(__y,1);

  0001e	85 c0		 test	 eax, eax
  00020	74 0b		 je	 SHORT $L97997
  00022	6a 18		 push	 24			; 00000018H
  00024	50		 push	 eax
  00025	e8 00 00 00 00	 call	 ?_M_deallocate@?$__node_alloc@$00$0A@@_STL@@CAXPAXI@Z ; _STL::__node_alloc<1,0>::_M_deallocate
  0002a	83 c4 08	 add	 esp, 8
$L97997:

; 424  :     --_M_node_count;

  0002d	ff 4e 04	 dec	 DWORD PTR [esi+4]
  00030	5e		 pop	 esi

; 425  :   }

  00031	c2 04 00	 ret	 4
?erase@?$_Rb_tree@GU?$pair@$$CBGPAVivfstream@@@_STL@@U?$_Select1st@U?$pair@$$CBGPAVivfstream@@@_STL@@@2@U?$less@G@2@V?$allocator@U?$pair@$$CBGPAVivfstream@@@_STL@@@2@@_STL@@QAEXU?$_Rb_tree_iterator@U?$pair@$$CBGPAVivfstream@@@_STL@@U?$_Nonconst_traits@U?$pair@$$CBGPAVivfstream@@@_STL@@@2@@2@@Z ENDP ; _STL::_Rb_tree<unsigned short,_STL::pair<unsigned short const ,ivfstream *>,_STL::_Select1st<_STL::pair<unsigned short const ,ivfstream *> >,_STL::less<unsigned short>,_STL::allocator<_STL::pair<unsigned short const ,ivfstream *> > >::erase
; Function compile flags: /Ogty
_TEXT	ENDS
;	COMDAT ??$_M_find@G@?$_Rb_tree@GU?$pair@$$CBGPAVivfstream@@@_STL@@U?$_Select1st@U?$pair@$$CBGPAVivfstream@@@_STL@@@2@U?$less@G@2@V?$allocator@U?$pair@$$CBGPAVivfstream@@@_STL@@@2@@_STL@@ABEPAU?$_Rb_tree_node@U?$pair@$$CBGPAVivfstream@@@_STL@@@1@ABG@Z
_TEXT	SEGMENT
___k$ = 8						; size = 4
??$_M_find@G@?$_Rb_tree@GU?$pair@$$CBGPAVivfstream@@@_STL@@U?$_Select1st@U?$pair@$$CBGPAVivfstream@@@_STL@@@2@U?$less@G@2@V?$allocator@U?$pair@$$CBGPAVivfstream@@@_STL@@@2@@_STL@@ABEPAU?$_Rb_tree_node@U?$pair@$$CBGPAVivfstream@@@_STL@@@1@ABG@Z PROC NEAR ; _STL::_Rb_tree<unsigned short,_STL::pair<unsigned short const ,ivfstream *>,_STL::_Select1st<_STL::pair<unsigned short const ,ivfstream *> >,_STL::less<unsigned short>,_STL::allocator<_STL::pair<unsigned short const ,ivfstream *> > >::_M_find<unsigned short>, COMDAT
; _this$ = ecx

; 462  : # else
; 463  :   iterator find(const key_type& __x) { return iterator(_M_find(__x)); }
; 464  :   const_iterator find(const key_type& __x) const { return const_iterator(_M_find(__x)); }
; 465  : private:
; 466  :   _Rb_tree_node<_Value>* _M_find(const key_type& __k) const
; 467  : # endif
; 468  :   {
; 469  :     _Link_type __y = this->_M_header._M_data;      // Last node which is not less than __k. 

  00000	8b 01		 mov	 eax, DWORD PTR [ecx]

; 470  :     _Link_type __x = _M_root();      // Current node. 

  00002	8b 48 04	 mov	 ecx, DWORD PTR [eax+4]

; 471  :     
; 472  :     while (__x != 0) 

  00005	85 c9		 test	 ecx, ecx
  00007	57		 push	 edi
  00008	8b 7c 24 08	 mov	 edi, DWORD PTR ___k$[esp]
  0000c	8b d0		 mov	 edx, eax
  0000e	74 19		 je	 SHORT $L91956
  00010	56		 push	 esi
  00011	66 8b 37	 mov	 si, WORD PTR [edi]
$L91955:

; 473  :       if (!_M_key_compare(_S_key(__x), __k))

  00014	66 39 71 10	 cmp	 WORD PTR [ecx+16], si
  00018	72 07		 jb	 SHORT $L91957

; 474  : 	__y = __x, __x = _S_left(__x);

  0001a	8b d1		 mov	 edx, ecx
  0001c	8b 49 08	 mov	 ecx, DWORD PTR [ecx+8]

; 475  :       else

  0001f	eb 03		 jmp	 SHORT $L91958
$L91957:

; 476  : 	__x = _S_right(__x);

  00021	8b 49 0c	 mov	 ecx, DWORD PTR [ecx+12]
$L91958:

; 471  :     
; 472  :     while (__x != 0) 

  00024	85 c9		 test	 ecx, ecx
  00026	75 ec		 jne	 SHORT $L91955
  00028	5e		 pop	 esi
$L91956:

; 477  :     if (__y == this->_M_header._M_data || _M_key_compare(__k, _S_key(__y)))

  00029	3b d0		 cmp	 edx, eax
  0002b	74 0b		 je	 SHORT $L91959
  0002d	66 8b 0f	 mov	 cx, WORD PTR [edi]
  00030	66 3b 4a 10	 cmp	 cx, WORD PTR [edx+16]

; 478  :       __y = this->_M_header._M_data;

  00034	72 02		 jb	 SHORT $L91959

; 479  :     return __y;

  00036	8b c2		 mov	 eax, edx
$L91959:
  00038	5f		 pop	 edi

; 480  :   }

  00039	c2 04 00	 ret	 4
??$_M_find@G@?$_Rb_tree@GU?$pair@$$CBGPAVivfstream@@@_STL@@U?$_Select1st@U?$pair@$$CBGPAVivfstream@@@_STL@@@2@U?$less@G@2@V?$allocator@U?$pair@$$CBGPAVivfstream@@@_STL@@@2@@_STL@@ABEPAU?$_Rb_tree_node@U?$pair@$$CBGPAVivfstream@@@_STL@@@1@ABG@Z ENDP ; _STL::_Rb_tree<unsigned short,_STL::pair<unsigned short const ,ivfstream *>,_STL::_Select1st<_STL::pair<unsigned short const ,ivfstream *> >,_STL::less<unsigned short>,_STL::allocator<_STL::pair<unsigned short const ,ivfstream *> > >::_M_find<unsigned short>
_TEXT	ENDS
EXTRN	?_M_increment@?$_Rb_global@_N@_STL@@SAPAU_Rb_tree_node_base@2@PAU32@@Z:NEAR ; _STL::_Rb_global<bool>::_M_increment
; Function compile flags: /Ogty
; File c:\darkeden\designed_common\project\client\spritelib\ctypepack.h
;	COMDAT ?FinishRunningLoad@?$CTypePack2@VCSprite@@VCSprite555@@VCSprite565@@@@UAEXXZ
_TEXT	SEGMENT
?FinishRunningLoad@?$CTypePack2@VCSprite@@VCSprite555@@VCSprite565@@@@UAEXXZ PROC NEAR ; CTypePack2<CSprite,CSprite555,CSprite565>::FinishRunningLoad, COMDAT
; _this$ = ecx

; 1528 : {

  00000	55		 push	 ebp
  00001	56		 push	 esi
  00002	57		 push	 edi
  00003	8b f9		 mov	 edi, ecx

; 1529 : 	m_bRunningLoad = false;
; 1530 : 
; 1531 : 	FILECACHE_MAP::iterator pos = m_FileCacheMap.begin();

  00005	8b 47 38	 mov	 eax, DWORD PTR [edi+56]
  00008	8d 6f 38	 lea	 ebp, DWORD PTR [edi+56]
  0000b	c6 47 0a 00	 mov	 BYTE PTR [edi+10], 0
  0000f	8b 70 08	 mov	 esi, DWORD PTR [eax+8]

; 1532 : 
; 1533 : 	for(; pos != m_FileCacheMap.end(); ++pos)

  00012	3b f0		 cmp	 esi, eax
  00014	74 1f		 je	 SHORT $L90933
$L98085:

; 1534 : 	{
; 1535 : 		ivfstream *pVF = pos->second;

  00016	8b 4e 14	 mov	 ecx, DWORD PTR [esi+20]

; 1536 : 		if(pVF) delete pVF;

  00019	85 c9		 test	 ecx, ecx
  0001b	74 06		 je	 SHORT $L90932
  0001d	8b 01		 mov	 eax, DWORD PTR [ecx]
  0001f	6a 01		 push	 1
  00021	ff 10		 call	 DWORD PTR [eax]
$L90932:
  00023	56		 push	 esi
  00024	e8 00 00 00 00	 call	 ?_M_increment@?$_Rb_global@_N@_STL@@SAPAU_Rb_tree_node_base@2@PAU32@@Z ; _STL::_Rb_global<bool>::_M_increment
  00029	8b f0		 mov	 esi, eax
  0002b	8b 45 00	 mov	 eax, DWORD PTR [ebp]
  0002e	83 c4 04	 add	 esp, 4
  00031	3b f0		 cmp	 esi, eax
  00033	75 e1		 jne	 SHORT $L98085
$L90933:

; 1537 : 	}
; 1538 : 
; 1539 : 	m_FileCacheMap.clear();

  00035	8b cd		 mov	 ecx, ebp
  00037	e8 00 00 00 00	 call	 ?clear@?$_Rb_tree@GU?$pair@$$CBGPAVivfstream@@@_STL@@U?$_Select1st@U?$pair@$$CBGPAVivfstream@@@_STL@@@2@U?$less@G@2@V?$allocator@U?$pair@$$CBGPAVivfstream@@@_STL@@@2@@_STL@@QAEXXZ ; _STL::_Rb_tree<unsigned short,_STL::pair<unsigned short const ,ivfstream *>,_STL::_Select1st<_STL::pair<unsigned short const ,ivfstream *> >,_STL::less<unsigned short>,_STL::allocator<_STL::pair<unsigned short const ,ivfstream *> > >::clear

; 1540 : 
; 1541 : 	if(m_file)

  0003c	8b 4f 0c	 mov	 ecx, DWORD PTR [edi+12]
  0003f	85 c9		 test	 ecx, ecx
  00041	74 0d		 je	 SHORT $L90938

; 1542 : 	{
; 1543 : 		delete m_file;

  00043	8b 11		 mov	 edx, DWORD PTR [ecx]
  00045	6a 01		 push	 1
  00047	ff 12		 call	 DWORD PTR [edx]

; 1544 : 		m_file = NULL;

  00049	c7 47 0c 00 00
	00 00		 mov	 DWORD PTR [edi+12], 0
$L90938:

; 1545 : 	}
; 1546 : 
; 1547 : 	if(m_file_index)

  00050	8b 47 10	 mov	 eax, DWORD PTR [edi+16]
  00053	85 c0		 test	 eax, eax
  00055	74 10		 je	 SHORT $L90941

; 1548 : 	{
; 1549 : 		delete [] m_file_index;

  00057	50		 push	 eax
  00058	e8 00 00 00 00	 call	 ??_V@YAXPAX@Z		; operator delete[]
  0005d	83 c4 04	 add	 esp, 4

; 1550 : 		m_file_index = NULL;

  00060	c7 47 10 00 00
	00 00		 mov	 DWORD PTR [edi+16], 0
$L90941:
  00067	5f		 pop	 edi
  00068	5e		 pop	 esi
  00069	5d		 pop	 ebp

; 1551 : 	}
; 1552 : }

  0006a	c3		 ret	 0
?FinishRunningLoad@?$CTypePack2@VCSprite@@VCSprite555@@VCSprite565@@@@UAEXXZ ENDP ; CTypePack2<CSprite,CSprite555,CSprite565>::FinishRunningLoad
_TEXT	ENDS
PUBLIC	??1?$CTypePack2@VCSprite@@VCSprite555@@VCSprite565@@@@UAE@XZ ; CTypePack2<CSprite,CSprite555,CSprite565>::~CTypePack2<CSprite,CSprite555,CSprite565>
;	COMDAT xdata$x
xdata$x	SEGMENT
$T98304	DD	0ffffffffH
	DD	FLAT:$L98122
	DD	00H
	DD	FLAT:$L98123
	DD	01H
	DD	FLAT:$L98124
	DD	02H
	DD	FLAT:$L98125
$T98301	DD	019930520H
	DD	04H
	DD	FLAT:$T98304
	DD	2 DUP(00H)
	DD	2 DUP(00H)
; Function compile flags: /Ogty
xdata$x	ENDS
;	COMDAT ??1?$CTypePack2@VCSprite@@VCSprite555@@VCSprite565@@@@UAE@XZ
_TEXT	SEGMENT
_this$ = -16						; size = 4
__$EHRec$ = -12						; size = 12
??1?$CTypePack2@VCSprite@@VCSprite555@@VCSprite565@@@@UAE@XZ PROC NEAR ; CTypePack2<CSprite,CSprite555,CSprite565>::~CTypePack2<CSprite,CSprite555,CSprite565>, COMDAT
; _this$ = ecx

; 893  : {

  00000	6a ff		 push	 -1
  00002	68 00 00 00 00	 push	 __ehhandler$??1?$CTypePack2@VCSprite@@VCSprite555@@VCSprite565@@@@UAE@XZ
  00007	64 a1 00 00 00
	00		 mov	 eax, DWORD PTR fs:__except_list
  0000d	50		 push	 eax
  0000e	64 89 25 00 00
	00 00		 mov	 DWORD PTR fs:__except_list, esp
  00015	51		 push	 ecx
  00016	56		 push	 esi
  00017	8b f1		 mov	 esi, ecx
  00019	89 74 24 04	 mov	 DWORD PTR _this$[esp+20], esi
  0001d	c7 06 00 00 00
	00		 mov	 DWORD PTR [esi], OFFSET FLAT:??_7?$CTypePack2@VCSprite@@VCSprite555@@VCSprite565@@@@6B@
  00023	c7 44 24 10 03
	00 00 00	 mov	 DWORD PTR __$EHRec$[esp+28], 3

; 894  : 	Release();

  0002b	ff 15 34 00 00
	00		 call	 DWORD PTR ??_7?$CTypePack2@VCSprite@@VCSprite555@@VCSprite565@@@@6B@+52
  00031	8b 46 04	 mov	 eax, DWORD PTR [esi+4]
  00034	85 c0		 test	 eax, eax
  00036	74 2c		 je	 SHORT $L98139
  00038	8b 48 fc	 mov	 ecx, DWORD PTR [eax-4]
  0003b	57		 push	 edi
  0003c	8d 78 fc	 lea	 edi, DWORD PTR [eax-4]
  0003f	68 00 00 00 00	 push	 OFFSET FLAT:??1CSprite@@QAE@XZ ; CSprite::~CSprite
  00044	51		 push	 ecx
  00045	6a 10		 push	 16			; 00000010H
  00047	50		 push	 eax
  00048	e8 00 00 00 00	 call	 ??_M@YGXPAXIHP6EX0@Z@Z
  0004d	57		 push	 edi
  0004e	e8 00 00 00 00	 call	 ??_V@YAXPAX@Z		; operator delete[]
  00053	83 c4 04	 add	 esp, 4
  00056	c7 46 04 00 00
	00 00		 mov	 DWORD PTR [esi+4], 0
  0005d	66 c7 46 08 00
	00		 mov	 WORD PTR [esi+8], 0
  00063	5f		 pop	 edi
$L98139:

; 895  : }

  00064	8d 4e 38	 lea	 ecx, DWORD PTR [esi+56]
  00067	c6 44 24 10 02	 mov	 BYTE PTR __$EHRec$[esp+28], 2
  0006c	e8 00 00 00 00	 call	 ??1?$_Rb_tree@GU?$pair@$$CBGPAVivfstream@@@_STL@@U?$_Select1st@U?$pair@$$CBGPAVivfstream@@@_STL@@@2@U?$less@G@2@V?$allocator@U?$pair@$$CBGPAVivfstream@@@_STL@@@2@@_STL@@QAE@XZ ; _STL::_Rb_tree<unsigned short,_STL::pair<unsigned short const ,ivfstream *>,_STL::_Select1st<_STL::pair<unsigned short const ,ivfstream *> >,_STL::less<unsigned short>,_STL::allocator<_STL::pair<unsigned short const ,ivfstream *> > >::~_Rb_tree<unsigned short,_STL::pair<unsigned short const ,ivfstream *>,_STL::_Select1st<_STL::pair<unsigned short const ,ivfstream *> >,_STL::less<unsigned short>,_STL::allocator<_STL::pair<unsigned short const ,ivfstream *> > >
  00071	8b 4e 2c	 mov	 ecx, DWORD PTR [esi+44]
  00074	8b 46 34	 mov	 eax, DWORD PTR [esi+52]
  00077	2b c1		 sub	 eax, ecx
  00079	85 c9		 test	 ecx, ecx
  0007b	c6 44 24 10 01	 mov	 BYTE PTR __$EHRec$[esp+28], 1
  00080	74 1c		 je	 SHORT $L98221
  00082	3d 80 00 00 00	 cmp	 eax, 128		; 00000080H
  00087	76 0b		 jbe	 SHORT $L98220
  00089	51		 push	 ecx
  0008a	e8 00 00 00 00	 call	 ??3@YAXPAX@Z		; operator delete
  0008f	83 c4 04	 add	 esp, 4
  00092	eb 0a		 jmp	 SHORT $L98221
$L98220:
  00094	50		 push	 eax
  00095	51		 push	 ecx
  00096	e8 00 00 00 00	 call	 ?_M_deallocate@?$__node_alloc@$00$0A@@_STL@@CAXPAXI@Z ; _STL::__node_alloc<1,0>::_M_deallocate
  0009b	83 c4 08	 add	 esp, 8
$L98221:
  0009e	8b 4e 20	 mov	 ecx, DWORD PTR [esi+32]
  000a1	8b 46 28	 mov	 eax, DWORD PTR [esi+40]
  000a4	2b c1		 sub	 eax, ecx
  000a6	85 c9		 test	 ecx, ecx
  000a8	c6 44 24 10 00	 mov	 BYTE PTR __$EHRec$[esp+28], 0
  000ad	74 1c		 je	 SHORT $L98302
  000af	3d 80 00 00 00	 cmp	 eax, 128		; 00000080H
  000b4	76 0b		 jbe	 SHORT $L98291
  000b6	51		 push	 ecx
  000b7	e8 00 00 00 00	 call	 ??3@YAXPAX@Z		; operator delete
  000bc	83 c4 04	 add	 esp, 4
  000bf	eb 0a		 jmp	 SHORT $L98302
$L98291:
  000c1	50		 push	 eax
  000c2	51		 push	 ecx
  000c3	e8 00 00 00 00	 call	 ?_M_deallocate@?$__node_alloc@$00$0A@@_STL@@CAXPAXI@Z ; _STL::__node_alloc<1,0>::_M_deallocate
  000c8	83 c4 08	 add	 esp, 8
$L98302:
  000cb	8b 4c 24 08	 mov	 ecx, DWORD PTR __$EHRec$[esp+20]
  000cf	c7 06 00 00 00
	00		 mov	 DWORD PTR [esi], OFFSET FLAT:??_7ITypePackBase@@6B@
  000d5	5e		 pop	 esi
  000d6	64 89 0d 00 00
	00 00		 mov	 DWORD PTR fs:__except_list, ecx
  000dd	83 c4 10	 add	 esp, 16			; 00000010H
  000e0	c3		 ret	 0
_TEXT	ENDS
;	COMDAT text$x
text$x	SEGMENT
$L98122:
  00000	8b 4d f0	 mov	 ecx, DWORD PTR _this$[ebp]
  00003	e9 00 00 00 00	 jmp	 ??1ITypePackBase@@UAE@XZ ; ITypePackBase::~ITypePackBase
$L98123:
  00008	8b 4d f0	 mov	 ecx, DWORD PTR _this$[ebp]
  0000b	83 c1 20	 add	 ecx, 32			; 00000020H
  0000e	e9 00 00 00 00	 jmp	 ??1?$basic_string@DV?$char_traits@D@_STL@@V?$allocator@D@2@@_STL@@QAE@XZ ; _STL::basic_string<char,_STL::char_traits<char>,_STL::allocator<char> >::~basic_string<char,_STL::char_traits<char>,_STL::allocator<char> >
$L98124:
  00013	8b 4d f0	 mov	 ecx, DWORD PTR _this$[ebp]
  00016	83 c1 2c	 add	 ecx, 44			; 0000002cH
  00019	e9 00 00 00 00	 jmp	 ??1?$basic_string@DV?$char_traits@D@_STL@@V?$allocator@D@2@@_STL@@QAE@XZ ; _STL::basic_string<char,_STL::char_traits<char>,_STL::allocator<char> >::~basic_string<char,_STL::char_traits<char>,_STL::allocator<char> >
$L98125:
  0001e	8b 4d f0	 mov	 ecx, DWORD PTR _this$[ebp]
  00021	83 c1 38	 add	 ecx, 56			; 00000038H
  00024	e9 00 00 00 00	 jmp	 ??1?$map@GPAVivfstream@@U?$less@G@_STL@@V?$allocator@U?$pair@$$CBGPAVivfstream@@@_STL@@@3@@_STL@@QAE@XZ
__ehhandler$??1?$CTypePack2@VCSprite@@VCSprite555@@VCSprite565@@@@UAE@XZ:
  00029	b8 00 00 00 00	 mov	 eax, OFFSET FLAT:$T98301
  0002e	e9 00 00 00 00	 jmp	 ___CxxFrameHandler
text$x	ENDS
??1?$CTypePack2@VCSprite@@VCSprite555@@VCSprite565@@@@UAE@XZ ENDP ; CTypePack2<CSprite,CSprite555,CSprite565>::~CTypePack2<CSprite,CSprite555,CSprite565>
PUBLIC	??1?$COrderedList@G@@QAE@XZ			; COrderedList<unsigned short>::~COrderedList<unsigned short>
;	COMDAT xdata$x
; File c:\stlport-4.6.1\stlport\stl\_alloc.h
xdata$x	SEGMENT
$T98528	DD	0ffffffffH
	DD	FLAT:$L98317
$T98519	DD	019930520H
	DD	01H
	DD	FLAT:$T98528
	DD	2 DUP(00H)
	DD	2 DUP(00H)
; Function compile flags: /Ogty
; File c:\darkeden\designed_common\project\client\spritelib\ctypepack.h
xdata$x	ENDS
;	COMDAT ?ReleasePart@?$CTypePack2@VCSprite@@VCSprite555@@VCSprite565@@@@UAE_NV?$COrderedList@G@@@Z
_TEXT	SEGMENT
_iID$ = -24						; size = 4
_t$90866 = -20						; size = 4
_fileIdx$90871 = -16					; size = 2
__$EHRec$ = -12						; size = 12
_list$ = 8						; size = 4
?ReleasePart@?$CTypePack2@VCSprite@@VCSprite555@@VCSprite565@@@@UAE_NV?$COrderedList@G@@@Z PROC NEAR ; CTypePack2<CSprite,CSprite555,CSprite565>::ReleasePart, COMDAT
; _this$ = ecx

; 1381 : {

  00000	6a ff		 push	 -1
  00002	68 00 00 00 00	 push	 __ehhandler$?ReleasePart@?$CTypePack2@VCSprite@@VCSprite555@@VCSprite565@@@@UAE_NV?$COrderedList@G@@@Z
  00007	64 a1 00 00 00
	00		 mov	 eax, DWORD PTR fs:__except_list
  0000d	50		 push	 eax
  0000e	64 89 25 00 00
	00 00		 mov	 DWORD PTR fs:__except_list, esp
  00015	83 ec 0c	 sub	 esp, 12			; 0000000cH
  00018	53		 push	 ebx
  00019	55		 push	 ebp
  0001a	56		 push	 esi
  0001b	57		 push	 edi
  0001c	8b f1		 mov	 esi, ecx

; 1382 : 	COrderedList<TYPE_SPRITEID>::DATA_LIST::const_iterator iID = list.GetIterator();

  0001e	8b 44 24 2c	 mov	 eax, DWORD PTR _list$[esp+36]
  00022	8b 38		 mov	 edi, DWORD PTR [eax]

; 1383 : 
; 1384 : 	if(m_bSplitFile)

  00024	8a 46 14	 mov	 al, BYTE PTR [esi+20]
  00027	33 db		 xor	 ebx, ebx
  00029	84 c0		 test	 al, al
  0002b	89 5c 24 24	 mov	 DWORD PTR __$EHRec$[esp+48], ebx
  0002f	89 7c 24 10	 mov	 DWORD PTR _iID$[esp+40], edi

; 1385 : 	{
; 1386 : 		register int t = 0;
; 1387 : 
; 1388 : 		for(; t<list.GetSize(); t++, ++iID)

  00033	8d 4c 24 2c	 lea	 ecx, DWORD PTR _list$[esp+36]
  00037	0f 84 b4 00 00
	00		 je	 $L90865
  0003d	89 5c 24 14	 mov	 DWORD PTR _t$90866[esp+40], ebx
  00041	e8 00 00 00 00	 call	 ?size@?$list@GV?$allocator@G@_STL@@@_STL@@QBEIXZ ; _STL::list<unsigned short,_STL::allocator<unsigned short> >::size
  00046	85 c0		 test	 eax, eax
  00048	0f 8e e0 00 00
	00		 jle	 $L90888
  0004e	eb 04		 jmp	 SHORT $L98350
$L98524:
  00050	8b 7c 24 10	 mov	 edi, DWORD PTR _iID$[esp+40]
$L98350:

; 1389 : 		{
; 1390 : 			if(*iID == 0xFFFF) continue;

  00054	66 8b 47 08	 mov	 ax, WORD PTR [edi+8]
  00058	66 3d ff ff	 cmp	 ax, 65535		; 0000ffffH
  0005c	74 71		 je	 SHORT $L90868

; 1391 : 			
; 1392 : 			WORD fileIdx = GetSplitFile(*iID);

  0005e	8b 4e 1c	 mov	 ecx, DWORD PTR [esi+28]
  00061	0f b7 c0	 movzx	 eax, ax
  00064	d3 f8		 sar	 eax, cl

; 1393 : 
; 1394 : 			FILECACHE_MAP::iterator pos = m_FileCacheMap.find(fileIdx);

  00066	8d 7e 38	 lea	 edi, DWORD PTR [esi+56]
  00069	d3 e0		 shl	 eax, cl
  0006b	8d 4c 24 18	 lea	 ecx, DWORD PTR _fileIdx$90871[esp+40]
  0006f	51		 push	 ecx
  00070	8b cf		 mov	 ecx, edi
  00072	8b d8		 mov	 ebx, eax
  00074	89 5c 24 1c	 mov	 DWORD PTR _fileIdx$90871[esp+44], ebx
  00078	e8 00 00 00 00	 call	 ??$_M_find@G@?$_Rb_tree@GU?$pair@$$CBGPAVivfstream@@@_STL@@U?$_Select1st@U?$pair@$$CBGPAVivfstream@@@_STL@@@2@U?$less@G@2@V?$allocator@U?$pair@$$CBGPAVivfstream@@@_STL@@@2@@_STL@@ABEPAU?$_Rb_tree_node@U?$pair@$$CBGPAVivfstream@@@_STL@@@1@ABG@Z ; _STL::_Rb_tree<unsigned short,_STL::pair<unsigned short const ,ivfstream *>,_STL::_Select1st<_STL::pair<unsigned short const ,ivfstream *> >,_STL::less<unsigned short>,_STL::allocator<_STL::pair<unsigned short const ,ivfstream *> > >::_M_find<unsigned short>
  0007d	8b e8		 mov	 ebp, eax

; 1395 : 			if(pos != m_FileCacheMap.end())

  0007f	3b 2f		 cmp	 ebp, DWORD PTR [edi]
  00081	74 19		 je	 SHORT $L98436

; 1396 : 			{
; 1397 : 				delete pos->second;

  00083	8b 4d 14	 mov	 ecx, DWORD PTR [ebp+20]
  00086	85 c9		 test	 ecx, ecx
  00088	74 06		 je	 SHORT $L98313
  0008a	8b 11		 mov	 edx, DWORD PTR [ecx]
  0008c	6a 01		 push	 1
  0008e	ff 12		 call	 DWORD PTR [edx]
$L98313:

; 1398 : 				m_FileCacheMap.erase(pos);

  00090	51		 push	 ecx
  00091	8b c4		 mov	 eax, esp
  00093	8b cf		 mov	 ecx, edi
  00095	89 28		 mov	 DWORD PTR [eax], ebp
  00097	e8 00 00 00 00	 call	 ?erase@?$_Rb_tree@GU?$pair@$$CBGPAVivfstream@@@_STL@@U?$_Select1st@U?$pair@$$CBGPAVivfstream@@@_STL@@@2@U?$less@G@2@V?$allocator@U?$pair@$$CBGPAVivfstream@@@_STL@@@2@@_STL@@QAEXU?$_Rb_tree_iterator@U?$pair@$$CBGPAVivfstream@@@_STL@@U?$_Nonconst_traits@U?$pair@$$CBGPAVivfstream@@@_STL@@@2@@2@@Z ; _STL::_Rb_tree<unsigned short,_STL::pair<unsigned short const ,ivfstream *>,_STL::_Select1st<_STL::pair<unsigned short const ,ivfstream *> >,_STL::less<unsigned short>,_STL::allocator<_STL::pair<unsigned short const ,ivfstream *> > >::erase
$L98436:

; 1399 : 			}
; 1400 : 
; 1401 : 			for(int i = 0; i < m_nUnitCount && fileIdx < m_Size; ++i, ++fileIdx)

  0009c	8b 46 18	 mov	 eax, DWORD PTR [esi+24]
  0009f	33 ff		 xor	 edi, edi
  000a1	85 c0		 test	 eax, eax
  000a3	7e 26		 jle	 SHORT $L98525
$L90880:
  000a5	66 3b 5e 08	 cmp	 bx, WORD PTR [esi+8]
  000a9	73 20		 jae	 SHORT $L98525

; 1402 : 			{
; 1403 : 				if(m_pData[fileIdx].IsInit())

  000ab	8b 4e 04	 mov	 ecx, DWORD PTR [esi+4]
  000ae	0f b7 c3	 movzx	 eax, bx
  000b1	c1 e0 04	 shl	 eax, 4
  000b4	03 c8		 add	 ecx, eax
  000b6	8a 41 0c	 mov	 al, BYTE PTR [ecx+12]
  000b9	84 c0		 test	 al, al
  000bb	74 05		 je	 SHORT $L90881

; 1404 : 					m_pData[fileIdx].Release();

  000bd	e8 00 00 00 00	 call	 ?Release@CSprite@@QAEXXZ ; CSprite::Release
$L90881:

; 1399 : 			}
; 1400 : 
; 1401 : 			for(int i = 0; i < m_nUnitCount && fileIdx < m_Size; ++i, ++fileIdx)

  000c2	8b 46 18	 mov	 eax, DWORD PTR [esi+24]
  000c5	47		 inc	 edi
  000c6	43		 inc	 ebx
  000c7	3b f8		 cmp	 edi, eax
  000c9	7c da		 jl	 SHORT $L90880
$L98525:
  000cb	8b 7c 24 10	 mov	 edi, DWORD PTR _iID$[esp+40]
$L90868:

; 1385 : 	{
; 1386 : 		register int t = 0;
; 1387 : 
; 1388 : 		for(; t<list.GetSize(); t++, ++iID)

  000cf	8b 5c 24 14	 mov	 ebx, DWORD PTR _t$90866[esp+40]
  000d3	8b 17		 mov	 edx, DWORD PTR [edi]
  000d5	43		 inc	 ebx
  000d6	8d 4c 24 2c	 lea	 ecx, DWORD PTR _list$[esp+36]
  000da	89 5c 24 14	 mov	 DWORD PTR _t$90866[esp+40], ebx
  000de	89 54 24 10	 mov	 DWORD PTR _iID$[esp+40], edx
  000e2	e8 00 00 00 00	 call	 ?size@?$list@GV?$allocator@G@_STL@@@_STL@@QBEIXZ ; _STL::list<unsigned short,_STL::allocator<unsigned short> >::size
  000e7	3b d8		 cmp	 ebx, eax
  000e9	0f 8c 61 ff ff
	ff		 jl	 $L98524

; 1405 : 			}
; 1406 : 		}
; 1407 : 	}
; 1408 : 	else

  000ef	eb 3d		 jmp	 SHORT $L90888
$L90865:

; 1409 : 	{
; 1410 : 		register int t = 0;
; 1411 : 
; 1412 : 		for(; t<list.GetSize(); t++, ++iID)

  000f1	e8 00 00 00 00	 call	 ?size@?$list@GV?$allocator@G@_STL@@@_STL@@QBEIXZ ; _STL::list<unsigned short,_STL::allocator<unsigned short> >::size
  000f6	85 c0		 test	 eax, eax
  000f8	7e 34		 jle	 SHORT $L90888
  000fa	eb 04		 jmp	 SHORT $L98446
$L98526:
  000fc	8b 7c 24 10	 mov	 edi, DWORD PTR _iID$[esp+40]
$L98446:

; 1413 : 		{
; 1414 : 			if(*iID == 0xFFFF) continue;

  00100	66 8b 47 08	 mov	 ax, WORD PTR [edi+8]
  00104	66 3d ff ff	 cmp	 ax, 65535		; 0000ffffH
  00108	74 10		 je	 SHORT $L90887

; 1415 : 			m_pData[*iID].Release();

  0010a	0f b7 c8	 movzx	 ecx, ax
  0010d	8b 46 04	 mov	 eax, DWORD PTR [esi+4]
  00110	c1 e1 04	 shl	 ecx, 4
  00113	03 c8		 add	 ecx, eax
  00115	e8 00 00 00 00	 call	 ?Release@CSprite@@QAEXXZ ; CSprite::Release
$L90887:
  0011a	8b 07		 mov	 eax, DWORD PTR [edi]
  0011c	8d 4c 24 2c	 lea	 ecx, DWORD PTR _list$[esp+36]
  00120	43		 inc	 ebx
  00121	89 44 24 10	 mov	 DWORD PTR _iID$[esp+40], eax
  00125	e8 00 00 00 00	 call	 ?size@?$list@GV?$allocator@G@_STL@@@_STL@@QBEIXZ ; _STL::list<unsigned short,_STL::allocator<unsigned short> >::size
  0012a	3b d8		 cmp	 ebx, eax
  0012c	7c ce		 jl	 SHORT $L98526
$L90888:

; 1416 : 		}
; 1417 : 	}
; 1418 : 
; 1419 : 	return true;

  0012e	8d 4c 24 2c	 lea	 ecx, DWORD PTR _list$[esp+36]
  00132	c7 44 24 24 ff
	ff ff ff	 mov	 DWORD PTR __$EHRec$[esp+48], -1
  0013a	e8 00 00 00 00	 call	 ??1?$COrderedList@G@@QAE@XZ ; COrderedList<unsigned short>::~COrderedList<unsigned short>

; 1420 : }

  0013f	8b 4c 24 1c	 mov	 ecx, DWORD PTR __$EHRec$[esp+40]
  00143	5f		 pop	 edi
  00144	5e		 pop	 esi
  00145	5d		 pop	 ebp
  00146	b0 01		 mov	 al, 1
  00148	64 89 0d 00 00
	00 00		 mov	 DWORD PTR fs:__except_list, ecx
  0014f	5b		 pop	 ebx
  00150	83 c4 18	 add	 esp, 24			; 00000018H
  00153	c2 04 00	 ret	 4
_TEXT	ENDS
;	COMDAT text$x
text$x	SEGMENT
$L98317:
  00000	8d 4d 04	 lea	 ecx, DWORD PTR _list$[ebp-4]
  00003	e9 00 00 00 00	 jmp	 ??1?$COrderedList@G@@QAE@XZ ; COrderedList<unsigned short>::~COrderedList<unsigned short>
__ehhandler$?ReleasePart@?$CTypePack2@VCSprite@@VCSprite555@@VCSprite565@@@@UAE_NV?$COrderedList@G@@@Z:
  00008	b8 00 00 00 00	 mov	 eax, OFFSET FLAT:$T98519
  0000d	e9 00 00 00 00	 jmp	 ___CxxFrameHandler
text$x	ENDS
?ReleasePart@?$CTypePack2@VCSprite@@VCSprite555@@VCSprite565@@@@UAE_NV?$COrderedList@G@@@Z ENDP ; CTypePack2<CSprite,CSprite555,CSprite565>::ReleasePart
PUBLIC	?clear@?$_List_base@GV?$allocator@G@_STL@@@_STL@@QAEXXZ ; _STL::_List_base<unsigned short,_STL::allocator<unsigned short> >::clear
PUBLIC	??1?$_STLP_alloc_proxy@PAU?$_List_node@G@_STL@@U12@V?$allocator@U?$_List_node@G@_STL@@@2@@_STL@@QAE@XZ ; _STL::_STLP_alloc_proxy<_STL::_List_node<unsigned short> *,_STL::_List_node<unsigned short>,_STL::allocator<_STL::_List_node<unsigned short> > >::~_STLP_alloc_proxy<_STL::_List_node<unsigned short> *,_STL::_List_node<unsigned short>,_STL::allocator<_STL::_List_node<unsigned short> > >
PUBLIC	??1?$list@GV?$allocator@G@_STL@@@_STL@@QAE@XZ	; _STL::list<unsigned short,_STL::allocator<unsigned short> >::~list<unsigned short,_STL::allocator<unsigned short> >
;	COMDAT xdata$x
; File c:\stlport-4.6.1\stlport\stl\_alloc.h
xdata$x	SEGMENT
$T98595	DD	0ffffffffH
	DD	FLAT:$L98534
	DD	0ffffffffH
	DD	FLAT:$L98549
$T98593	DD	019930520H
	DD	02H
	DD	FLAT:$T98595
	DD	2 DUP(00H)
	DD	2 DUP(00H)
; Function compile flags: /Ogty
; File c:\darkeden\designed_common\project\client\corderedlist.h
xdata$x	ENDS
;	COMDAT ??1?$COrderedList@G@@QAE@XZ
_TEXT	SEGMENT
_this$ = -16						; size = 4
__$EHRec$ = -12						; size = 12
??1?$COrderedList@G@@QAE@XZ PROC NEAR			; COrderedList<unsigned short>::~COrderedList<unsigned short>, COMDAT
; _this$ = ecx

; 88   : {

  00000	6a ff		 push	 -1
  00002	68 00 00 00 00	 push	 __ehhandler$??1?$COrderedList@G@@QAE@XZ
  00007	64 a1 00 00 00
	00		 mov	 eax, DWORD PTR fs:__except_list
  0000d	50		 push	 eax
  0000e	64 89 25 00 00
	00 00		 mov	 DWORD PTR fs:__except_list, esp
  00015	51		 push	 ecx
  00016	56		 push	 esi
  00017	8b f1		 mov	 esi, ecx
  00019	89 74 24 04	 mov	 DWORD PTR _this$[esp+20], esi
  0001d	c7 44 24 10 00
	00 00 00	 mov	 DWORD PTR __$EHRec$[esp+28], 0

; 89   : 	Release();

  00025	e8 00 00 00 00	 call	 ?clear@?$_List_base@GV?$allocator@G@_STL@@@_STL@@QAEXXZ ; _STL::_List_base<unsigned short,_STL::allocator<unsigned short> >::clear

; 90   : }

  0002a	8b ce		 mov	 ecx, esi
  0002c	c7 44 24 10 01
	00 00 00	 mov	 DWORD PTR __$EHRec$[esp+28], 1
  00034	e8 00 00 00 00	 call	 ?clear@?$_List_base@GV?$allocator@G@_STL@@@_STL@@QAEXXZ ; _STL::_List_base<unsigned short,_STL::allocator<unsigned short> >::clear
  00039	8b 36		 mov	 esi, DWORD PTR [esi]
  0003b	85 f6		 test	 esi, esi
  0003d	74 0b		 je	 SHORT $L98585
  0003f	6a 0c		 push	 12			; 0000000cH
  00041	56		 push	 esi
  00042	e8 00 00 00 00	 call	 ?deallocate@?$__node_alloc@$00$0A@@_STL@@SAXPAXI@Z ; _STL::__node_alloc<1,0>::deallocate
  00047	83 c4 08	 add	 esp, 8
$L98585:
  0004a	8b 4c 24 08	 mov	 ecx, DWORD PTR __$EHRec$[esp+20]
  0004e	5e		 pop	 esi
  0004f	64 89 0d 00 00
	00 00		 mov	 DWORD PTR fs:__except_list, ecx
  00056	83 c4 10	 add	 esp, 16			; 00000010H
  00059	c3		 ret	 0
_TEXT	ENDS
;	COMDAT text$x
text$x	SEGMENT
$L98534:
  00000	8b 4d f0	 mov	 ecx, DWORD PTR _this$[ebp]
  00003	e9 00 00 00 00	 jmp	 ??1?$list@GV?$allocator@G@_STL@@@_STL@@QAE@XZ ; _STL::list<unsigned short,_STL::allocator<unsigned short> >::~list<unsigned short,_STL::allocator<unsigned short> >
$L98549:
  00008	8b 4d f0	 mov	 ecx, DWORD PTR _this$[ebp]
  0000b	e9 00 00 00 00	 jmp	 ??1?$_STLP_alloc_proxy@PAU?$_List_node@G@_STL@@U12@V?$allocator@U?$_List_node@G@_STL@@@2@@_STL@@QAE@XZ
__ehhandler$??1?$COrderedList@G@@QAE@XZ:
  00010	b8 00 00 00 00	 mov	 eax, OFFSET FLAT:$T98593
  00015	e9 00 00 00 00	 jmp	 ___CxxFrameHandler
text$x	ENDS
??1?$COrderedList@G@@QAE@XZ ENDP			; COrderedList<unsigned short>::~COrderedList<unsigned short>
; Function compile flags: /Ogty
;	COMDAT ??1?$_STLP_alloc_proxy@PAU?$_List_node@G@_STL@@U12@V?$allocator@U?$_List_node@G@_STL@@@2@@_STL@@QAE@XZ
_TEXT	SEGMENT
??1?$_STLP_alloc_proxy@PAU?$_List_node@G@_STL@@U12@V?$allocator@U?$_List_node@G@_STL@@@2@@_STL@@QAE@XZ PROC NEAR ; _STL::_STLP_alloc_proxy<_STL::_List_node<unsigned short> *,_STL::_List_node<unsigned short>,_STL::allocator<_STL::_List_node<unsigned short> > >::~_STLP_alloc_proxy<_STL::_List_node<unsigned short> *,_STL::_List_node<unsigned short>,_STL::allocator<_STL::_List_node<unsigned short> > >, COMDAT
; _this$ = ecx
  00000	c3		 ret	 0
??1?$_STLP_alloc_proxy@PAU?$_List_node@G@_STL@@U12@V?$allocator@U?$_List_node@G@_STL@@@2@@_STL@@QAE@XZ ENDP ; _STL::_STLP_alloc_proxy<_STL::_List_node<unsigned short> *,_STL::_List_node<unsigned short>,_STL::allocator<_STL::_List_node<unsigned short> > >::~_STLP_alloc_proxy<_STL::_List_node<unsigned short> *,_STL::_List_node<unsigned short>,_STL::allocator<_STL::_List_node<unsigned short> > >
; Function compile flags: /Ogty
; File c:\stlport-4.6.1\stlport\stl\_list.c
_TEXT	ENDS
;	COMDAT ?clear@?$_List_base@GV?$allocator@G@_STL@@@_STL@@QAEXXZ
_TEXT	SEGMENT
?clear@?$_List_base@GV?$allocator@G@_STL@@@_STL@@QAEXXZ PROC NEAR ; _STL::_List_base<unsigned short,_STL::allocator<unsigned short> >::clear, COMDAT
; _this$ = ecx

; 68   : {

  00000	56		 push	 esi
  00001	57		 push	 edi
  00002	8b f9		 mov	 edi, ecx

; 69   :   _List_node<_Tp>* __cur = (_List_node<_Tp>*) this->_M_node._M_data->_M_next;

  00004	8b 07		 mov	 eax, DWORD PTR [edi]
  00006	8b 30		 mov	 esi, DWORD PTR [eax]

; 70   :   while (__cur != this->_M_node._M_data) {

  00008	3b f0		 cmp	 esi, eax
  0000a	74 19		 je	 SHORT $L92028
  0000c	8d 64 24 00	 npad	 4
$L92027:

; 71   :     _List_node<_Tp>* __tmp = __cur;

  00010	8b c6		 mov	 eax, esi

; 72   :     __cur = (_List_node<_Tp>*) __cur->_M_next;

  00012	8b 36		 mov	 esi, DWORD PTR [esi]

; 73   :     _STLP_STD::_Destroy(&__tmp->_M_data);
; 74   :     this->_M_node.deallocate(__tmp, 1);

  00014	6a 0c		 push	 12			; 0000000cH
  00016	50		 push	 eax
  00017	e8 00 00 00 00	 call	 ?deallocate@?$__node_alloc@$00$0A@@_STL@@SAXPAXI@Z ; _STL::__node_alloc<1,0>::deallocate
  0001c	8b 07		 mov	 eax, DWORD PTR [edi]
  0001e	83 c4 08	 add	 esp, 8
  00021	3b f0		 cmp	 esi, eax
  00023	75 eb		 jne	 SHORT $L92027
$L92028:

; 75   :   }
; 76   :   this->_M_node._M_data->_M_next = this->_M_node._M_data;

  00025	8b 07		 mov	 eax, DWORD PTR [edi]
  00027	89 00		 mov	 DWORD PTR [eax], eax

; 77   :   this->_M_node._M_data->_M_prev = this->_M_node._M_data;

  00029	8b 3f		 mov	 edi, DWORD PTR [edi]
  0002b	89 7f 04	 mov	 DWORD PTR [edi+4], edi
  0002e	5f		 pop	 edi
  0002f	5e		 pop	 esi

; 78   : }

  00030	c3		 ret	 0
?clear@?$_List_base@GV?$allocator@G@_STL@@@_STL@@QAEXXZ ENDP ; _STL::_List_base<unsigned short,_STL::allocator<unsigned short> >::clear
_TEXT	ENDS
PUBLIC	??1?$_List_base@GV?$allocator@G@_STL@@@_STL@@QAE@XZ ; _STL::_List_base<unsigned short,_STL::allocator<unsigned short> >::~_List_base<unsigned short,_STL::allocator<unsigned short> >
; Function compile flags: /Ogty
; File c:\stlport-4.6.1\stlport\stl\_list.h
;	COMDAT ??1?$list@GV?$allocator@G@_STL@@@_STL@@QAE@XZ
_TEXT	SEGMENT
??1?$list@GV?$allocator@G@_STL@@@_STL@@QAE@XZ PROC NEAR	; _STL::list<unsigned short,_STL::allocator<unsigned short> >::~list<unsigned short,_STL::allocator<unsigned short> >, COMDAT
; _this$ = ecx

; 416  :   ~list() { }

  00000	e9 00 00 00 00	 jmp	 ??1?$_List_base@GV?$allocator@G@_STL@@@_STL@@QAE@XZ ; _STL::_List_base<unsigned short,_STL::allocator<unsigned short> >::~_List_base<unsigned short,_STL::allocator<unsigned short> >
??1?$list@GV?$allocator@G@_STL@@@_STL@@QAE@XZ ENDP	; _STL::list<unsigned short,_STL::allocator<unsigned short> >::~list<unsigned short,_STL::allocator<unsigned short> >
; Function compile flags: /Ogty
_TEXT	ENDS
;	COMDAT ??1?$_List_base@GV?$allocator@G@_STL@@@_STL@@QAE@XZ
_TEXT	SEGMENT
??1?$_List_base@GV?$allocator@G@_STL@@@_STL@@QAE@XZ PROC NEAR ; _STL::_List_base<unsigned short,_STL::allocator<unsigned short> >::~_List_base<unsigned short,_STL::allocator<unsigned short> >, COMDAT
; _this$ = ecx

; 188  :   ~_List_base() {

  00000	56		 push	 esi
  00001	57		 push	 edi
  00002	8b f9		 mov	 edi, ecx

; 189  :     clear();

  00004	8b 07		 mov	 eax, DWORD PTR [edi]
  00006	8b 30		 mov	 esi, DWORD PTR [eax]
  00008	3b f0		 cmp	 esi, eax
  0000a	74 19		 je	 SHORT $L98646
  0000c	8d 64 24 00	 npad	 4
$L98645:
  00010	8b c6		 mov	 eax, esi
  00012	8b 36		 mov	 esi, DWORD PTR [esi]
  00014	6a 0c		 push	 12			; 0000000cH
  00016	50		 push	 eax
  00017	e8 00 00 00 00	 call	 ?deallocate@?$__node_alloc@$00$0A@@_STL@@SAXPAXI@Z ; _STL::__node_alloc<1,0>::deallocate
  0001c	8b 07		 mov	 eax, DWORD PTR [edi]
  0001e	83 c4 08	 add	 esp, 8
  00021	3b f0		 cmp	 esi, eax
  00023	75 eb		 jne	 SHORT $L98645
$L98646:
  00025	8b 07		 mov	 eax, DWORD PTR [edi]
  00027	89 00		 mov	 DWORD PTR [eax], eax
  00029	8b 07		 mov	 eax, DWORD PTR [edi]
  0002b	89 40 04	 mov	 DWORD PTR [eax+4], eax

; 190  :     _M_node.deallocate(_M_node._M_data, 1);

  0002e	8b 3f		 mov	 edi, DWORD PTR [edi]
  00030	85 ff		 test	 edi, edi
  00032	74 0b		 je	 SHORT $L98651
  00034	6a 0c		 push	 12			; 0000000cH
  00036	57		 push	 edi
  00037	e8 00 00 00 00	 call	 ?deallocate@?$__node_alloc@$00$0A@@_STL@@SAXPAXI@Z ; _STL::__node_alloc<1,0>::deallocate
  0003c	83 c4 08	 add	 esp, 8
$L98651:
  0003f	5f		 pop	 edi
  00040	5e		 pop	 esi

; 191  :   }

  00041	c3		 ret	 0
??1?$_List_base@GV?$allocator@G@_STL@@@_STL@@QAE@XZ ENDP ; _STL::_List_base<unsigned short,_STL::allocator<unsigned short> >::~_List_base<unsigned short,_STL::allocator<unsigned short> >
_TEXT	ENDS
PUBLIC	??$append@PBD@?$basic_string@DV?$char_traits@D@_STL@@V?$allocator@D@2@@_STL@@QAEAAV01@PBD0@Z ; _STL::basic_string<char,_STL::char_traits<char>,_STL::allocator<char> >::append<char const *>
; Function compile flags: /Ogty
; File c:\stlport-4.6.1\stlport\stl\_string.h
;	COMDAT ??$append@PBD@?$basic_string@DV?$char_traits@D@_STL@@V?$allocator@D@2@@_STL@@QAEAAV01@PBD0@Z
_TEXT	SEGMENT
___first$ = 8						; size = 4
$T98661 = 12						; size = 1
___last$ = 12						; size = 4
??$append@PBD@?$basic_string@DV?$char_traits@D@_STL@@V?$allocator@D@2@@_STL@@QAEAAV01@PBD0@Z PROC NEAR ; _STL::basic_string<char,_STL::char_traits<char>,_STL::allocator<char> >::append<char const *>, COMDAT
; _this$ = ecx

; 507  :     typedef typename _Is_integer<_InputIter>::_Integral _Integral;
; 508  :     return _M_append_dispatch(__first, __last, _Integral());

  00000	8b 54 24 08	 mov	 edx, DWORD PTR ___last$[esp-4]
  00004	8d 44 24 08	 lea	 eax, DWORD PTR $T98661[esp-4]
  00008	50		 push	 eax
  00009	8b 44 24 08	 mov	 eax, DWORD PTR ___first$[esp]
  0000d	52		 push	 edx
  0000e	50		 push	 eax
  0000f	e8 00 00 00 00	 call	 ??$append@PBD@?$basic_string@DV?$char_traits@D@_STL@@V?$allocator@D@2@@_STL@@AAEAAV01@PBD0ABUforward_iterator_tag@1@@Z ; _STL::basic_string<char,_STL::char_traits<char>,_STL::allocator<char> >::append<char const *>

; 509  :   }

  00014	c2 08 00	 ret	 8
??$append@PBD@?$basic_string@DV?$char_traits@D@_STL@@V?$allocator@D@2@@_STL@@QAEAAV01@PBD0@Z ENDP ; _STL::basic_string<char,_STL::char_traits<char>,_STL::allocator<char> >::append<char const *>
; Function compile flags: /Ogty
_TEXT	ENDS
;	COMDAT ??_G?$CTypePack2@VCSprite@@VCSprite555@@VCSprite565@@@@UAEPAXI@Z
_TEXT	SEGMENT
___flags$ = 8						; size = 4
??_G?$CTypePack2@VCSprite@@VCSprite555@@VCSprite565@@@@UAEPAXI@Z PROC NEAR ; CTypePack2<CSprite,CSprite555,CSprite565>::`scalar deleting destructor', COMDAT
; _this$ = ecx
  00000	56		 push	 esi
  00001	8b f1		 mov	 esi, ecx
  00003	e8 00 00 00 00	 call	 ??1?$CTypePack2@VCSprite@@VCSprite555@@VCSprite565@@@@UAE@XZ ; CTypePack2<CSprite,CSprite555,CSprite565>::~CTypePack2<CSprite,CSprite555,CSprite565>
  00008	f6 44 24 08 01	 test	 BYTE PTR ___flags$[esp], 1
  0000d	74 09		 je	 SHORT $L98666
  0000f	56		 push	 esi
  00010	e8 00 00 00 00	 call	 ??3@YAXPAX@Z		; operator delete
  00015	83 c4 04	 add	 esp, 4
$L98666:
  00018	8b c6		 mov	 eax, esi
  0001a	5e		 pop	 esi
  0001b	c2 04 00	 ret	 4
??_G?$CTypePack2@VCSprite@@VCSprite555@@VCSprite565@@@@UAEPAXI@Z ENDP ; CTypePack2<CSprite,CSprite555,CSprite565>::`scalar deleting destructor'
_TEXT	ENDS
PUBLIC	??$append@PAD@?$basic_string@DV?$char_traits@D@_STL@@V?$allocator@D@2@@_STL@@QAEAAV01@PAD0@Z ; _STL::basic_string<char,_STL::char_traits<char>,_STL::allocator<char> >::append<char *>
; Function compile flags: /Ogty
;	COMDAT ??$append@PAD@?$basic_string@DV?$char_traits@D@_STL@@V?$allocator@D@2@@_STL@@QAEAAV01@PAD0@Z
_TEXT	SEGMENT
___first$ = 8						; size = 4
$T98674 = 12						; size = 1
___last$ = 12						; size = 4
??$append@PAD@?$basic_string@DV?$char_traits@D@_STL@@V?$allocator@D@2@@_STL@@QAEAAV01@PAD0@Z PROC NEAR ; _STL::basic_string<char,_STL::char_traits<char>,_STL::allocator<char> >::append<char *>, COMDAT
; _this$ = ecx

; 507  :     typedef typename _Is_integer<_InputIter>::_Integral _Integral;
; 508  :     return _M_append_dispatch(__first, __last, _Integral());

  00000	8b 54 24 08	 mov	 edx, DWORD PTR ___last$[esp-4]
  00004	8d 44 24 08	 lea	 eax, DWORD PTR $T98674[esp-4]
  00008	50		 push	 eax
  00009	8b 44 24 08	 mov	 eax, DWORD PTR ___first$[esp]
  0000d	52		 push	 edx
  0000e	50		 push	 eax
  0000f	e8 00 00 00 00	 call	 ??$append@PAD@?$basic_string@DV?$char_traits@D@_STL@@V?$allocator@D@2@@_STL@@AAEAAV01@PAD0ABUforward_iterator_tag@1@@Z ; _STL::basic_string<char,_STL::char_traits<char>,_STL::allocator<char> >::append<char *>

; 509  :   }

  00014	c2 08 00	 ret	 8
??$append@PAD@?$basic_string@DV?$char_traits@D@_STL@@V?$allocator@D@2@@_STL@@QAEAAV01@PAD0@Z ENDP ; _STL::basic_string<char,_STL::char_traits<char>,_STL::allocator<char> >::append<char *>
_TEXT	ENDS
PUBLIC	??$_M_assign_dispatch@PAD@?$basic_string@DV?$char_traits@D@_STL@@V?$allocator@D@2@@_STL@@AAEAAV01@PAD0ABU__false_type@1@@Z ; _STL::basic_string<char,_STL::char_traits<char>,_STL::allocator<char> >::_M_assign_dispatch<char *>
; Function compile flags: /Ogty
;	COMDAT ??$_M_assign_dispatch@PAD@?$basic_string@DV?$char_traits@D@_STL@@V?$allocator@D@2@@_STL@@AAEAAV01@PAD0ABU__false_type@1@@Z
_TEXT	SEGMENT
$T98718 = 8						; size = 1
___f$ = 8						; size = 4
___l$ = 12						; size = 4
___formal$ = 16						; size = 4
??$_M_assign_dispatch@PAD@?$basic_string@DV?$char_traits@D@_STL@@V?$allocator@D@2@@_STL@@AAEAAV01@PAD0ABU__false_type@1@@Z PROC NEAR ; _STL::basic_string<char,_STL::char_traits<char>,_STL::allocator<char> >::_M_assign_dispatch<char *>, COMDAT
; _this$ = ecx

; 625  : 			    const __false_type&)  {
; 626  :     pointer __cur = this->_M_start;
; 627  :     while (__f != __l && __cur != this->_M_finish) {

  00000	8b 44 24 04	 mov	 eax, DWORD PTR ___f$[esp-4]
  00004	56		 push	 esi
  00005	57		 push	 edi
  00006	8b f9		 mov	 edi, ecx
  00008	8b 4c 24 10	 mov	 ecx, DWORD PTR ___l$[esp+4]
  0000c	3b c1		 cmp	 eax, ecx
  0000e	8b 37		 mov	 esi, DWORD PTR [edi]
  00010	74 15		 je	 SHORT $L98723
$L92111:
  00012	3b 77 04	 cmp	 esi, DWORD PTR [edi+4]
  00015	74 0c		 je	 SHORT $L92112

; 628  :       _Traits::assign(*__cur, *__f);

  00017	8a 10		 mov	 dl, BYTE PTR [eax]

; 629  :       ++__f;

  00019	40		 inc	 eax
  0001a	88 16		 mov	 BYTE PTR [esi], dl

; 630  :       ++__cur;

  0001c	46		 inc	 esi
  0001d	3b c1		 cmp	 eax, ecx
  0001f	75 f1		 jne	 SHORT $L92111

; 631  :     }
; 632  :     if (__f == __l)

  00021	eb 04		 jmp	 SHORT $L98723
$L92112:
  00023	3b c1		 cmp	 eax, ecx
  00025	75 2c		 jne	 SHORT $L92113
$L98723:
  00027	53		 push	 ebx

; 633  :       erase(__cur, end());

  00028	8b 5f 04	 mov	 ebx, DWORD PTR [edi+4]
  0002b	3b f3		 cmp	 esi, ebx
  0002d	74 1c		 je	 SHORT $L98724
  0002f	8b c3		 mov	 eax, ebx
  00031	2b c3		 sub	 eax, ebx
  00033	40		 inc	 eax
  00034	74 0b		 je	 SHORT $L98701
  00036	50		 push	 eax
  00037	53		 push	 ebx
  00038	56		 push	 esi
  00039	e8 00 00 00 00	 call	 _memmove
  0003e	83 c4 0c	 add	 esp, 12			; 0000000cH
$L98701:
  00041	8b 47 04	 mov	 eax, DWORD PTR [edi+4]
  00044	2b f3		 sub	 esi, ebx
  00046	03 c6		 add	 eax, esi
  00048	89 47 04	 mov	 DWORD PTR [edi+4], eax
$L98724:
  0004b	5b		 pop	 ebx

; 636  :     return *this;

  0004c	8b c7		 mov	 eax, edi
  0004e	5f		 pop	 edi
  0004f	5e		 pop	 esi

; 637  :   }

  00050	c2 0c 00	 ret	 12			; 0000000cH
$L92113:

; 634  :     else
; 635  :       append(__f, __l);

  00053	8d 54 24 0c	 lea	 edx, DWORD PTR $T98718[esp+4]
  00057	52		 push	 edx
  00058	51		 push	 ecx
  00059	50		 push	 eax
  0005a	8b cf		 mov	 ecx, edi
  0005c	e8 00 00 00 00	 call	 ??$append@PAD@?$basic_string@DV?$char_traits@D@_STL@@V?$allocator@D@2@@_STL@@AAEAAV01@PAD0ABUforward_iterator_tag@1@@Z ; _STL::basic_string<char,_STL::char_traits<char>,_STL::allocator<char> >::append<char *>

; 636  :     return *this;

  00061	8b c7		 mov	 eax, edi
  00063	5f		 pop	 edi
  00064	5e		 pop	 esi

; 637  :   }

  00065	c2 0c 00	 ret	 12			; 0000000cH
??$_M_assign_dispatch@PAD@?$basic_string@DV?$char_traits@D@_STL@@V?$allocator@D@2@@_STL@@AAEAAV01@PAD0ABU__false_type@1@@Z ENDP ; _STL::basic_string<char,_STL::char_traits<char>,_STL::allocator<char> >::_M_assign_dispatch<char *>
; Function compile flags: /Ogty
_TEXT	ENDS
;	COMDAT ??_Giovfs_base@@UAEPAXI@Z
_TEXT	SEGMENT
___flags$ = 8						; size = 4
??_Giovfs_base@@UAEPAXI@Z PROC NEAR			; iovfs_base::`scalar deleting destructor', COMDAT
; _this$ = ecx
  00000	56		 push	 esi
  00001	8b f1		 mov	 esi, ecx
  00003	e8 00 00 00 00	 call	 ??1iovfs_base@@UAE@XZ	; iovfs_base::~iovfs_base
  00008	f6 44 24 08 01	 test	 BYTE PTR ___flags$[esp], 1
  0000d	74 09		 je	 SHORT $L98730
  0000f	56		 push	 esi
  00010	e8 00 00 00 00	 call	 ??3@YAXPAX@Z		; operator delete
  00015	83 c4 04	 add	 esp, 4
$L98730:
  00018	8b c6		 mov	 eax, esi
  0001a	5e		 pop	 esi
  0001b	c2 04 00	 ret	 4
??_Giovfs_base@@UAEPAXI@Z ENDP				; iovfs_base::`scalar deleting destructor'
; Function compile flags: /Ogty
_TEXT	ENDS
;	COMDAT ??_Givfstream@@UAEPAXI@Z
_TEXT	SEGMENT
___flags$ = 8						; size = 4
??_Givfstream@@UAEPAXI@Z PROC NEAR			; ivfstream::`scalar deleting destructor', COMDAT
; _this$ = ecx
  00000	56		 push	 esi
  00001	8b f1		 mov	 esi, ecx
  00003	e8 00 00 00 00	 call	 ??1ivfstream@@UAE@XZ	; ivfstream::~ivfstream
  00008	f6 44 24 08 01	 test	 BYTE PTR ___flags$[esp], 1
  0000d	74 09		 je	 SHORT $L98734
  0000f	56		 push	 esi
  00010	e8 00 00 00 00	 call	 ??3@YAXPAX@Z		; operator delete
  00015	83 c4 04	 add	 esp, 4
$L98734:
  00018	8b c6		 mov	 eax, esi
  0001a	5e		 pop	 esi
  0001b	c2 04 00	 ret	 4
??_Givfstream@@UAEPAXI@Z ENDP				; ivfstream::`scalar deleting destructor'
_TEXT	ENDS
PUBLIC	??0C_SPRITE_PACK@@QAE@PBD@Z			; C_SPRITE_PACK::C_SPRITE_PACK
;	COMDAT xdata$x
; File c:\darkeden\designed_common\project\new - vs_ui\src\vs_ui_util.cpp
xdata$x	SEGMENT
$T98746	DD	0ffffffffH
	DD	FLAT:$L98738
$T98743	DD	019930520H
	DD	01H
	DD	FLAT:$T98746
	DD	2 DUP(00H)
	DD	2 DUP(00H)
; Function compile flags: /Ogty
xdata$x	ENDS
;	COMDAT ??0C_SPRITE_PACK@@QAE@PBD@Z
_TEXT	SEGMENT
_this$ = -16						; size = 4
__$EHRec$ = -12						; size = 12
_sz_filename$ = 8					; size = 4
??0C_SPRITE_PACK@@QAE@PBD@Z PROC NEAR			; C_SPRITE_PACK::C_SPRITE_PACK, COMDAT
; _this$ = ecx

; 668  : {

  00000	6a ff		 push	 -1
  00002	68 00 00 00 00	 push	 __ehhandler$??0C_SPRITE_PACK@@QAE@PBD@Z
  00007	64 a1 00 00 00
	00		 mov	 eax, DWORD PTR fs:__except_list
  0000d	50		 push	 eax
  0000e	64 89 25 00 00
	00 00		 mov	 DWORD PTR fs:__except_list, esp
  00015	51		 push	 ecx
  00016	56		 push	 esi
  00017	8b f1		 mov	 esi, ecx
  00019	89 74 24 04	 mov	 DWORD PTR _this$[esp+20], esi
  0001d	e8 00 00 00 00	 call	 ??0?$CTypePack2@VCSprite@@VCSprite555@@VCSprite565@@@@QAE@XZ ; CTypePack2<CSprite,CSprite555,CSprite565>::CTypePack2<CSprite,CSprite555,CSprite565>

; 669  : 	// Sprite   565 555 ...
; 670  : 	//      ...
; 671  : 	
; 672  : 	// by sigi
; 673  : 	//if (CDirectDraw::Is565())
; 674  : 	//	m_pC_spk_list = new CSpritePackList565;
; 675  : 	//else
; 676  : 	//	m_pC_spk_list = new CSpritePackList555;
; 677  : 
; 678  : 	if (sz_filename) // file ...

  00022	8b 44 24 18	 mov	 eax, DWORD PTR _sz_filename$[esp+16]
  00026	85 c0		 test	 eax, eax
  00028	c7 44 24 10 00
	00 00 00	 mov	 DWORD PTR __$EHRec$[esp+28], 0
  00030	74 08		 je	 SHORT $L98744

; 679  : 		Open(sz_filename);

  00032	8b 16		 mov	 edx, DWORD PTR [esi]
  00034	50		 push	 eax
  00035	8b ce		 mov	 ecx, esi
  00037	ff 52 18	 call	 DWORD PTR [edx+24]
$L98744:

; 680  : }

  0003a	8b 4c 24 08	 mov	 ecx, DWORD PTR __$EHRec$[esp+20]
  0003e	8b c6		 mov	 eax, esi
  00040	5e		 pop	 esi
  00041	64 89 0d 00 00
	00 00		 mov	 DWORD PTR fs:__except_list, ecx
  00048	83 c4 10	 add	 esp, 16			; 00000010H
  0004b	c2 04 00	 ret	 4
_TEXT	ENDS
;	COMDAT text$x
text$x	SEGMENT
$L98738:
  00000	8b 4d f0	 mov	 ecx, DWORD PTR _this$[ebp]
  00003	e9 00 00 00 00	 jmp	 ??1?$CTypePack2@VCSprite@@VCSprite555@@VCSprite565@@@@UAE@XZ ; CTypePack2<CSprite,CSprite555,CSprite565>::~CTypePack2<CSprite,CSprite555,CSprite565>
__ehhandler$??0C_SPRITE_PACK@@QAE@PBD@Z:
  00008	b8 00 00 00 00	 mov	 eax, OFFSET FLAT:$T98743
  0000d	e9 00 00 00 00	 jmp	 ___CxxFrameHandler
text$x	ENDS
??0C_SPRITE_PACK@@QAE@PBD@Z ENDP			; C_SPRITE_PACK::C_SPRITE_PACK
PUBLIC	??1C_SPRITE_PACK@@QAE@XZ			; C_SPRITE_PACK::~C_SPRITE_PACK
; Function compile flags: /Ogty
;	COMDAT ??1C_SPRITE_PACK@@QAE@XZ
_TEXT	SEGMENT
??1C_SPRITE_PACK@@QAE@XZ PROC NEAR			; C_SPRITE_PACK::~C_SPRITE_PACK, COMDAT
; _this$ = ecx

; 688  : 	// by sigi
; 689  : 	//DeleteNew(m_pC_spk_list);
; 690  : }

  00000	e9 00 00 00 00	 jmp	 ??1?$CTypePack2@VCSprite@@VCSprite555@@VCSprite565@@@@UAE@XZ ; CTypePack2<CSprite,CSprite555,CSprite565>::~CTypePack2<CSprite,CSprite555,CSprite565>
??1C_SPRITE_PACK@@QAE@XZ ENDP				; C_SPRITE_PACK::~C_SPRITE_PACK
_TEXT	ENDS
PUBLIC	?assign@?$basic_string@DV?$char_traits@D@_STL@@V?$allocator@D@2@@_STL@@QAEAAV12@PBD0@Z ; _STL::basic_string<char,_STL::char_traits<char>,_STL::allocator<char> >::assign
; Function compile flags: /Ogty
; File c:\stlport-4.6.1\stlport\stl\_string.h
;	COMDAT ?assign@?$basic_string@DV?$char_traits@D@_STL@@V?$allocator@D@2@@_STL@@QAEAAV12@PBD0@Z
_TEXT	SEGMENT
___f$ = 8						; size = 4
$T98824 = 12						; size = 1
___l$ = 12						; size = 4
?assign@?$basic_string@DV?$char_traits@D@_STL@@V?$allocator@D@2@@_STL@@QAEAAV12@PBD0@Z PROC NEAR ; _STL::basic_string<char,_STL::char_traits<char>,_STL::allocator<char> >::assign, COMDAT
; _this$ = ecx

; 651  :     ptrdiff_t __n = __l - __f;

  00000	8b 54 24 04	 mov	 edx, DWORD PTR ___f$[esp-4]
  00004	53		 push	 ebx
  00005	55		 push	 ebp
  00006	8b 6c 24 10	 mov	 ebp, DWORD PTR ___l$[esp+4]
  0000a	8b d9		 mov	 ebx, ecx

; 652  :     if (__STATIC_CAST(size_type,__n) <= size()) {

  0000c	8b 4b 04	 mov	 ecx, DWORD PTR [ebx+4]
  0000f	56		 push	 esi
  00010	57		 push	 edi
  00011	8b 3b		 mov	 edi, DWORD PTR [ebx]
  00013	8b c5		 mov	 eax, ebp
  00015	2b c2		 sub	 eax, edx
  00017	2b cf		 sub	 ecx, edi
  00019	3b c1		 cmp	 eax, ecx
  0001b	77 46		 ja	 SHORT $L89765

; 653  :       _Traits::copy(this->_M_start, __f, __n);

  0001d	85 c0		 test	 eax, eax
  0001f	74 12		 je	 SHORT $L98764
  00021	8b c8		 mov	 ecx, eax
  00023	8b f2		 mov	 esi, edx
  00025	8b d1		 mov	 edx, ecx
  00027	c1 e9 02	 shr	 ecx, 2
  0002a	f3 a5		 rep movsd
  0002c	8b ca		 mov	 ecx, edx
  0002e	83 e1 03	 and	 ecx, 3
  00031	f3 a4		 rep movsb
$L98764:

; 654  :       erase(begin() + __n, end());

  00033	8b 33		 mov	 esi, DWORD PTR [ebx]
  00035	8b 7b 04	 mov	 edi, DWORD PTR [ebx+4]
  00038	03 f0		 add	 esi, eax
  0003a	3b f7		 cmp	 esi, edi
  0003c	74 50		 je	 SHORT $L98827
  0003e	8b c7		 mov	 eax, edi
  00040	2b c7		 sub	 eax, edi
  00042	40		 inc	 eax
  00043	74 0b		 je	 SHORT $L98790
  00045	50		 push	 eax
  00046	57		 push	 edi
  00047	56		 push	 esi
  00048	e8 00 00 00 00	 call	 _memmove
  0004d	83 c4 0c	 add	 esp, 12			; 0000000cH
$L98790:
  00050	8b 43 04	 mov	 eax, DWORD PTR [ebx+4]
  00053	2b f7		 sub	 esi, edi
  00055	5f		 pop	 edi
  00056	03 c6		 add	 eax, esi
  00058	5e		 pop	 esi
  00059	89 43 04	 mov	 DWORD PTR [ebx+4], eax
  0005c	5d		 pop	 ebp

; 659  :     }
; 660  :     return *this;

  0005d	8b c3		 mov	 eax, ebx
  0005f	5b		 pop	 ebx

; 661  :   }

  00060	c2 08 00	 ret	 8
$L89765:

; 655  :     }
; 656  :     else {
; 657  :       _Traits::copy(this->_M_start, __f, size());

  00063	85 c9		 test	 ecx, ecx
  00065	74 10		 je	 SHORT $L98806
  00067	8b c1		 mov	 eax, ecx
  00069	c1 e9 02	 shr	 ecx, 2
  0006c	8b f2		 mov	 esi, edx
  0006e	f3 a5		 rep movsd
  00070	8b c8		 mov	 ecx, eax
  00072	83 e1 03	 and	 ecx, 3
  00075	f3 a4		 rep movsb
$L98806:

; 658  :       append(__f + size(), __l);

  00077	8b 43 04	 mov	 eax, DWORD PTR [ebx+4]
  0007a	8b 3b		 mov	 edi, DWORD PTR [ebx]
  0007c	8d 4c 24 18	 lea	 ecx, DWORD PTR $T98824[esp+12]
  00080	51		 push	 ecx
  00081	2b c7		 sub	 eax, edi
  00083	55		 push	 ebp
  00084	03 c2		 add	 eax, edx
  00086	50		 push	 eax
  00087	8b cb		 mov	 ecx, ebx
  00089	e8 00 00 00 00	 call	 ??$append@PBD@?$basic_string@DV?$char_traits@D@_STL@@V?$allocator@D@2@@_STL@@AAEAAV01@PBD0ABUforward_iterator_tag@1@@Z ; _STL::basic_string<char,_STL::char_traits<char>,_STL::allocator<char> >::append<char const *>
$L98827:
  0008e	5f		 pop	 edi
  0008f	5e		 pop	 esi
  00090	5d		 pop	 ebp

; 659  :     }
; 660  :     return *this;

  00091	8b c3		 mov	 eax, ebx
  00093	5b		 pop	 ebx

; 661  :   }

  00094	c2 08 00	 ret	 8
?assign@?$basic_string@DV?$char_traits@D@_STL@@V?$allocator@D@2@@_STL@@QAEAAV12@PBD0@Z ENDP ; _STL::basic_string<char,_STL::char_traits<char>,_STL::allocator<char> >::assign
_TEXT	ENDS
PUBLIC	??1?$allocator@K@_STL@@QAE@XZ			; _STL::allocator<unsigned long>::~allocator<unsigned long>
PUBLIC	??1?$_Vector_base@KV?$allocator@K@_STL@@@_STL@@QAE@XZ ; _STL::_Vector_base<unsigned long,_STL::allocator<unsigned long> >::~_Vector_base<unsigned long,_STL::allocator<unsigned long> >
PUBLIC	??0?$_STLP_alloc_proxy@PAKKV?$allocator@K@_STL@@@_STL@@QAE@ABV?$allocator@K@1@PAK@Z ; _STL::_STLP_alloc_proxy<unsigned long *,unsigned long,_STL::allocator<unsigned long> >::_STLP_alloc_proxy<unsigned long *,unsigned long,_STL::allocator<unsigned long> >
PUBLIC	?tellp@?$basic_ostream@DV?$char_traits@D@_STL@@@_STL@@QAE?AV?$fpos@H@2@XZ ; _STL::basic_ostream<char,_STL::char_traits<char> >::tellp
PUBLIC	?seekp@?$basic_ostream@DV?$char_traits@D@_STL@@@_STL@@QAEAAV12@V?$fpos@H@2@@Z ; _STL::basic_ostream<char,_STL::char_traits<char> >::seekp
PUBLIC	??1?$vector@KV?$allocator@K@_STL@@@_STL@@QAE@XZ	; _STL::vector<unsigned long,_STL::allocator<unsigned long> >::~vector<unsigned long,_STL::allocator<unsigned long> >
PUBLIC	?push_back@?$vector@KV?$allocator@K@_STL@@@_STL@@QAEXABK@Z ; _STL::vector<unsigned long,_STL::allocator<unsigned long> >::push_back
PUBLIC	??_C@_0BJ@MIBMMHPK@real?5size?5?3?5?$CFd?5size?5?3?5?$CFd?$AA@ ; `string'
PUBLIC	??_C@_0L@GKEOOOME@CTypePack2?$AA@		; `string'
EXTRN	__imp__MessageBoxA@16:NEAR
;	COMDAT xdata$x
; File c:\stlport-4.6.1\stlport\stl\_alloc.h
xdata$x	SEGMENT
$T99008	DD	0ffffffffH
	DD	FLAT:$L98837
	DD	00H
	DD	FLAT:$L98838
	DD	0ffffffffH
	DD	FLAT:$L98838
$T99001	DD	019930520H
	DD	03H
	DD	FLAT:$T99008
	DD	2 DUP(00H)
	DD	2 DUP(00H)
xdata$x	ENDS
;	COMDAT ??_C@_0BJ@MIBMMHPK@real?5size?5?3?5?$CFd?5size?5?3?5?$CFd?$AA@
CONST	SEGMENT
??_C@_0BJ@MIBMMHPK@real?5size?5?3?5?$CFd?5size?5?3?5?$CFd?$AA@ DB 'real s'
	DB	'ize : %d size : %d', 00H			; `string'
CONST	ENDS
;	COMDAT ??_C@_0L@GKEOOOME@CTypePack2?$AA@
CONST	SEGMENT
??_C@_0L@GKEOOOME@CTypePack2?$AA@ DB 'CTypePack2', 00H	; `string'
; Function compile flags: /Ogty
; File c:\darkeden\designed_common\project\client\spritelib\ctypepack.h
CONST	ENDS
;	COMDAT ?SaveToFile@?$CTypePack2@VCSprite@@VCSprite555@@VCSprite565@@@@UAE_NAAV?$basic_ofstream@DV?$char_traits@D@_STL@@@_STL@@0@Z
_TEXT	SEGMENT
_realSize$ = -568					; size = 2
$T98835 = -564						; size = 4
$T98834 = -564						; size = 4
_i$90576 = -564						; size = 4
$T98832 = -557						; size = 1
_this$ = -556						; size = 4
_vIndex$ = -552						; size = 12
_index$ = -540						; size = 4
$T98833 = -536						; size = 8
_szTemp$90584 = -528					; size = 512
__$ArrayPad$ = -16					; size = 4
__$EHRec$ = -12						; size = 12
__$ReturnAddr$ = 4					; size = 4
_dataFile$ = 8						; size = 4
_indexFile$ = 12					; size = 4
?SaveToFile@?$CTypePack2@VCSprite@@VCSprite555@@VCSprite565@@@@UAE_NAAV?$basic_ofstream@DV?$char_traits@D@_STL@@@_STL@@0@Z PROC NEAR ; CTypePack2<CSprite,CSprite555,CSprite565>::SaveToFile, COMDAT
; _this$ = ecx

; 1218 : {

  00000	6a ff		 push	 -1
  00002	68 00 00 00 00	 push	 __ehhandler$?SaveToFile@?$CTypePack2@VCSprite@@VCSprite555@@VCSprite565@@@@UAE_NAAV?$basic_ofstream@DV?$char_traits@D@_STL@@@_STL@@0@Z
  00007	64 a1 00 00 00
	00		 mov	 eax, DWORD PTR fs:__except_list
  0000d	50		 push	 eax
  0000e	64 89 25 00 00
	00 00		 mov	 DWORD PTR fs:__except_list, esp
  00015	81 ec 2c 02 00
	00		 sub	 esp, 556		; 0000022cH
  0001b	a1 00 00 00 00	 mov	 eax, DWORD PTR ___security_cookie
  00020	53		 push	 ebx
  00021	55		 push	 ebp
  00022	56		 push	 esi
  00023	8b f1		 mov	 esi, ecx
  00025	89 84 24 34 02
	00 00		 mov	 DWORD PTR __$ArrayPad$[esp+580], eax
  0002c	57		 push	 edi
  0002d	89 74 24 1c	 mov	 DWORD PTR _this$[esp+584], esi

; 1219 : 	//--------------------------------------------------
; 1220 : 	// index file   
; 1221 : 	//--------------------------------------------------
; 1222 : //	long*	pIndex = new long [m_Size];
; 1223 : 	std::vector<DWORD> vIndex;

  00031	33 ed		 xor	 ebp, ebp
  00033	55		 push	 ebp
  00034	8d 44 24 1f	 lea	 eax, DWORD PTR $T98832[esp+588]
  00038	50		 push	 eax
  00039	8d 4c 24 30	 lea	 ecx, DWORD PTR _vIndex$[esp+600]
  0003d	89 ac 24 4c 02
	00 00		 mov	 DWORD PTR __$EHRec$[esp+600], ebp
  00044	89 6c 24 28	 mov	 DWORD PTR _vIndex$[esp+592], ebp
  00048	89 6c 24 2c	 mov	 DWORD PTR _vIndex$[esp+596], ebp
  0004c	e8 00 00 00 00	 call	 ??0?$_STLP_alloc_proxy@PAKKV?$allocator@K@_STL@@@_STL@@QAE@ABV?$allocator@K@1@PAK@Z ; _STL::_STLP_alloc_proxy<unsigned long *,unsigned long,_STL::allocator<unsigned long> >::_STLP_alloc_proxy<unsigned long *,unsigned long,_STL::allocator<unsigned long> >

; 1224 : 
; 1225 : 	//--------------------------------------------------
; 1226 : 	// Size 
; 1227 : 	//--------------------------------------------------
; 1228 : 	dataFile.write((const char *)&m_Size, 2); 

  00051	8b bc 24 4c 02
	00 00		 mov	 edi, DWORD PTR _dataFile$[esp+580]
  00058	6a 02		 push	 2
  0005a	83 c6 08	 add	 esi, 8
  0005d	56		 push	 esi
  0005e	8b cf		 mov	 ecx, edi
  00060	c6 84 24 4c 02
	00 00 02	 mov	 BYTE PTR __$EHRec$[esp+600], 2
  00068	e8 00 00 00 00	 call	 ?write@?$basic_ostream@DV?$char_traits@D@_STL@@@_STL@@QAEAAV12@PBDH@Z ; _STL::basic_ostream<char,_STL::char_traits<char> >::write

; 1229 : 	indexFile.write((const char *)&m_Size, 2); 

  0006d	8b 9c 24 50 02
	00 00		 mov	 ebx, DWORD PTR _indexFile$[esp+580]
  00074	6a 02		 push	 2
  00076	56		 push	 esi
  00077	8b cb		 mov	 ecx, ebx
  00079	e8 00 00 00 00	 call	 ?write@?$basic_ostream@DV?$char_traits@D@_STL@@@_STL@@QAEAAV12@PBDH@Z ; _STL::basic_ostream<char,_STL::char_traits<char> >::write

; 1230 : 	WORD realSize = m_Size;

  0007e	33 c0		 xor	 eax, eax
  00080	66 8b 06	 mov	 ax, WORD PTR [esi]

; 1231 : 	DWORD index = 0;
; 1232 : 
; 1233 : 	for(int i = 0; i < m_Size; i++)

  00083	66 3b c5	 cmp	 ax, bp
  00086	89 6c 24 2c	 mov	 DWORD PTR _index$[esp+584], ebp
  0008a	89 6c 24 14	 mov	 DWORD PTR _i$90576[esp+584], ebp
  0008e	8b c8		 mov	 ecx, eax
  00090	89 4c 24 10	 mov	 DWORD PTR _realSize$[esp+584], ecx
  00094	76 55		 jbe	 SHORT $L90579
$L90577:

; 1234 : 	{
; 1235 : 		index = dataFile.tellp();

  00096	8d 4c 24 30	 lea	 ecx, DWORD PTR $T98833[esp+584]
  0009a	51		 push	 ecx
  0009b	8b cf		 mov	 ecx, edi
  0009d	e8 00 00 00 00	 call	 ?tellp@?$basic_ostream@DV?$char_traits@D@_STL@@@_STL@@QAE?AV?$fpos@H@2@XZ ; _STL::basic_ostream<char,_STL::char_traits<char> >::tellp
  000a2	8b 10		 mov	 edx, DWORD PTR [eax]

; 1236 : 		if(m_pData[i].SaveToFile(dataFile) == false)

  000a4	8b 44 24 1c	 mov	 eax, DWORD PTR _this$[esp+584]
  000a8	8b 48 04	 mov	 ecx, DWORD PTR [eax+4]
  000ab	03 cd		 add	 ecx, ebp
  000ad	89 54 24 2c	 mov	 DWORD PTR _index$[esp+584], edx
  000b1	8b 11		 mov	 edx, DWORD PTR [ecx]
  000b3	57		 push	 edi
  000b4	ff 12		 call	 DWORD PTR [edx]
  000b6	84 c0		 test	 al, al
  000b8	75 0a		 jne	 SHORT $L90581

; 1237 : 		{
; 1238 : 			realSize--;

  000ba	81 44 24 10 ff
	ff 00 00	 add	 DWORD PTR _realSize$[esp+584], 65535 ; 0000ffffH

; 1239 : 		}
; 1240 : 		else

  000c2	eb 0e		 jmp	 SHORT $L90578
$L90581:

; 1241 : 		{
; 1242 : 			vIndex.push_back(index);

  000c4	8d 44 24 2c	 lea	 eax, DWORD PTR _index$[esp+584]
  000c8	50		 push	 eax
  000c9	8d 4c 24 24	 lea	 ecx, DWORD PTR _vIndex$[esp+588]
  000cd	e8 00 00 00 00	 call	 ?push_back@?$vector@KV?$allocator@K@_STL@@@_STL@@QAEXABK@Z ; _STL::vector<unsigned long,_STL::allocator<unsigned long> >::push_back
$L90578:
  000d2	8b 44 24 14	 mov	 eax, DWORD PTR _i$90576[esp+584]
  000d6	0f b7 0e	 movzx	 ecx, WORD PTR [esi]
  000d9	40		 inc	 eax
  000da	83 c5 10	 add	 ebp, 16			; 00000010H
  000dd	3b c1		 cmp	 eax, ecx
  000df	89 44 24 14	 mov	 DWORD PTR _i$90576[esp+584], eax
  000e3	7c b1		 jl	 SHORT $L90577
  000e5	8b 4c 24 10	 mov	 ecx, DWORD PTR _realSize$[esp+584]
  000e9	33 ed		 xor	 ebp, ebp
$L90579:

; 1243 : 		}
; 1244 : 	}
; 1245 : 	
; 1246 : 	if(realSize != m_Size)

  000eb	66 8b 36	 mov	 si, WORD PTR [esi]
  000ee	66 3b ce	 cmp	 cx, si
  000f1	74 72		 je	 SHORT $L90583

; 1247 : 	{
; 1248 : 		char szTemp[512];
; 1249 : 		sprintf(szTemp, "real size : %d size : %d", realSize, m_Size);

  000f3	0f b7 d6	 movzx	 edx, si
  000f6	0f b7 c1	 movzx	 eax, cx
  000f9	52		 push	 edx
  000fa	50		 push	 eax
  000fb	8d 4c 24 40	 lea	 ecx, DWORD PTR _szTemp$90584[esp+592]
  000ff	68 00 00 00 00	 push	 OFFSET FLAT:??_C@_0BJ@MIBMMHPK@real?5size?5?3?5?$CFd?5size?5?3?5?$CFd?$AA@
  00104	51		 push	 ecx
  00105	e8 00 00 00 00	 call	 _sprintf
  0010a	83 c4 10	 add	 esp, 16			; 00000010H

; 1250 : 		MessageBox(NULL, szTemp, "CTypePack2", MB_OK);

  0010d	55		 push	 ebp
  0010e	68 00 00 00 00	 push	 OFFSET FLAT:??_C@_0L@GKEOOOME@CTypePack2?$AA@
  00113	8d 54 24 40	 lea	 edx, DWORD PTR _szTemp$90584[esp+592]
  00117	52		 push	 edx
  00118	55		 push	 ebp
  00119	ff 15 00 00 00
	00		 call	 DWORD PTR __imp__MessageBoxA@16

; 1251 : 		dataFile.seekp(0);

  0011f	83 ec 08	 sub	 esp, 8
  00122	8b c4		 mov	 eax, esp
  00124	8b cf		 mov	 ecx, edi
  00126	89 64 24 1c	 mov	 DWORD PTR $T98834[esp+592], esp
  0012a	89 28		 mov	 DWORD PTR [eax], ebp
  0012c	89 68 04	 mov	 DWORD PTR [eax+4], ebp
  0012f	e8 00 00 00 00	 call	 ?seekp@?$basic_ostream@DV?$char_traits@D@_STL@@@_STL@@QAEAAV12@V?$fpos@H@2@@Z ; _STL::basic_ostream<char,_STL::char_traits<char> >::seekp

; 1252 : 		dataFile.write((const char *)&realSize, 2);

  00134	6a 02		 push	 2
  00136	8d 44 24 14	 lea	 eax, DWORD PTR _realSize$[esp+588]
  0013a	50		 push	 eax
  0013b	8b cf		 mov	 ecx, edi
  0013d	e8 00 00 00 00	 call	 ?write@?$basic_ostream@DV?$char_traits@D@_STL@@@_STL@@QAEAAV12@PBDH@Z ; _STL::basic_ostream<char,_STL::char_traits<char> >::write

; 1253 : 		indexFile.seekp(0);

  00142	83 ec 08	 sub	 esp, 8
  00145	8b c4		 mov	 eax, esp
  00147	8b cb		 mov	 ecx, ebx
  00149	89 64 24 1c	 mov	 DWORD PTR $T98835[esp+592], esp
  0014d	89 28		 mov	 DWORD PTR [eax], ebp
  0014f	89 68 04	 mov	 DWORD PTR [eax+4], ebp
  00152	e8 00 00 00 00	 call	 ?seekp@?$basic_ostream@DV?$char_traits@D@_STL@@@_STL@@QAEAAV12@V?$fpos@H@2@@Z ; _STL::basic_ostream<char,_STL::char_traits<char> >::seekp

; 1254 : 		indexFile.write((const char *)&realSize, 2);

  00157	6a 02		 push	 2
  00159	8d 4c 24 14	 lea	 ecx, DWORD PTR _realSize$[esp+588]
  0015d	51		 push	 ecx
  0015e	8b cb		 mov	 ecx, ebx
  00160	e8 00 00 00 00	 call	 ?write@?$basic_ostream@DV?$char_traits@D@_STL@@@_STL@@QAEAAV12@PBDH@Z ; _STL::basic_ostream<char,_STL::char_traits<char> >::write
$L90583:

; 1255 : 	}
; 1256 : 
; 1257 : 	//--------------------------------------------------
; 1258 : 	// index 
; 1259 : 	//--------------------------------------------------
; 1260 : 	for (i = 0; i < (int)vIndex.size(); i++)

  00165	8b 54 24 24	 mov	 edx, DWORD PTR _vIndex$[esp+588]
  00169	8b 44 24 20	 mov	 eax, DWORD PTR _vIndex$[esp+584]
  0016d	2b d0		 sub	 edx, eax
  0016f	33 f6		 xor	 esi, esi
  00171	f7 c2 fc ff ff
	ff		 test	 edx, -4			; fffffffcH
  00177	7e 26		 jle	 SHORT $L90594
  00179	8d a4 24 00 00
	00 00		 npad	 7
$L90592:

; 1261 : 	{
; 1262 : 		indexFile.write((const char*)&vIndex[i], 4);

  00180	6a 04		 push	 4
  00182	8d 04 b0	 lea	 eax, DWORD PTR [eax+esi*4]
  00185	50		 push	 eax
  00186	8b cb		 mov	 ecx, ebx
  00188	e8 00 00 00 00	 call	 ?write@?$basic_ostream@DV?$char_traits@D@_STL@@@_STL@@QAEAAV12@PBDH@Z ; _STL::basic_ostream<char,_STL::char_traits<char> >::write
  0018d	8b 4c 24 24	 mov	 ecx, DWORD PTR _vIndex$[esp+588]
  00191	8b 44 24 20	 mov	 eax, DWORD PTR _vIndex$[esp+584]
  00195	2b c8		 sub	 ecx, eax
  00197	46		 inc	 esi
  00198	c1 f9 02	 sar	 ecx, 2
  0019b	3b f1		 cmp	 esi, ecx
  0019d	7c e1		 jl	 SHORT $L90592
$L90594:

; 1263 : 	}
; 1264 : 	
; 1265 : //	delete [] pIndex;
; 1266 : 	
; 1267 : //	indexFile.close();
; 1268 : //	dataFile.close();
; 1269 : 
; 1270 : 	if(m_bRunningLoad)

  0019f	8b 4c 24 1c	 mov	 ecx, DWORD PTR _this$[esp+584]
  001a3	8a 41 0a	 mov	 al, BYTE PTR [ecx+10]
  001a6	84 c0		 test	 al, al
  001a8	74 05		 je	 SHORT $L90596

; 1271 : 	{
; 1272 : 		FinishRunningLoad();

  001aa	8b 11		 mov	 edx, DWORD PTR [ecx]
  001ac	ff 52 34	 call	 DWORD PTR [edx+52]
$L90596:

; 1273 : 	}
; 1274 : 
; 1275 : 	return true;

  001af	8d 4c 24 20	 lea	 ecx, DWORD PTR _vIndex$[esp+584]
  001b3	c7 84 24 44 02
	00 00 ff ff ff
	ff		 mov	 DWORD PTR __$EHRec$[esp+592], -1
  001be	e8 00 00 00 00	 call	 ??1?$_Vector_base@KV?$allocator@K@_STL@@@_STL@@QAE@XZ ; _STL::_Vector_base<unsigned long,_STL::allocator<unsigned long> >::~_Vector_base<unsigned long,_STL::allocator<unsigned long> >

; 1276 : }

  001c3	8b 8c 24 3c 02
	00 00		 mov	 ecx, DWORD PTR __$EHRec$[esp+584]
  001ca	64 89 0d 00 00
	00 00		 mov	 DWORD PTR fs:__except_list, ecx
  001d1	8b 8c 24 38 02
	00 00		 mov	 ecx, DWORD PTR __$ArrayPad$[esp+584]
  001d8	b0 01		 mov	 al, 1
  001da	e8 00 00 00 00	 call	 @__security_check_cookie@4
  001df	5f		 pop	 edi
  001e0	5e		 pop	 esi
  001e1	5d		 pop	 ebp
  001e2	5b		 pop	 ebx
  001e3	81 c4 38 02 00
	00		 add	 esp, 568		; 00000238H
  001e9	c2 08 00	 ret	 8
_TEXT	ENDS
;	COMDAT text$x
text$x	SEGMENT
$L98837:
  00000	8d 8d d3 fd ff
	ff		 lea	 ecx, DWORD PTR $T98832[ebp]
  00006	e9 00 00 00 00	 jmp	 ??1?$allocator@K@_STL@@QAE@XZ ; _STL::allocator<unsigned long>::~allocator<unsigned long>
$L98838:
  0000b	8d 8d d8 fd ff
	ff		 lea	 ecx, DWORD PTR _vIndex$[ebp]
  00011	e9 00 00 00 00	 jmp	 ??1?$vector@KV?$allocator@K@_STL@@@_STL@@QAE@XZ ; _STL::vector<unsigned long,_STL::allocator<unsigned long> >::~vector<unsigned long,_STL::allocator<unsigned long> >
__ehhandler$?SaveToFile@?$CTypePack2@VCSprite@@VCSprite555@@VCSprite565@@@@UAE_NAAV?$basic_ofstream@DV?$char_traits@D@_STL@@@_STL@@0@Z:
  00016	b8 00 00 00 00	 mov	 eax, OFFSET FLAT:$T99001
  0001b	e9 00 00 00 00	 jmp	 ___CxxFrameHandler
text$x	ENDS
?SaveToFile@?$CTypePack2@VCSprite@@VCSprite555@@VCSprite565@@@@UAE_NAAV?$basic_ofstream@DV?$char_traits@D@_STL@@@_STL@@0@Z ENDP ; CTypePack2<CSprite,CSprite555,CSprite565>::SaveToFile
; Function compile flags: /Ogty
; File c:\stlport-4.6.1\stlport\stl\_ostream.h
;	COMDAT ?tellp@?$basic_ostream@DV?$char_traits@D@_STL@@@_STL@@QAE?AV?$fpos@H@2@XZ
_TEXT	SEGMENT
$T99017 = -8						; size = 8
$T99016 = -8						; size = 8
___$ReturnUdt$ = 8					; size = 4
?tellp@?$basic_ostream@DV?$char_traits@D@_STL@@@_STL@@QAE?AV?$fpos@H@2@XZ PROC NEAR ; _STL::basic_ostream<char,_STL::char_traits<char> >::tellp, COMDAT
; _this$ = ecx

; 128  :     return this->rdbuf() && !this->fail()
; 129  :       ? this->rdbuf()->pubseekoff(0, ios_base::cur, ios_base::out)
; 130  :       : pos_type(-1);

  00000	8b 01		 mov	 eax, DWORD PTR [ecx]
  00002	8b 50 04	 mov	 edx, DWORD PTR [eax+4]
  00005	8d 04 0a	 lea	 eax, DWORD PTR [edx+ecx]
  00008	8b 48 58	 mov	 ecx, DWORD PTR [eax+88]
  0000b	83 ec 08	 sub	 esp, 8
  0000e	85 c9		 test	 ecx, ecx
  00010	74 18		 je	 SHORT $L99015
  00012	f6 40 08 05	 test	 BYTE PTR [eax+8], 5
  00016	75 12		 jne	 SHORT $L99015
  00018	8b 01		 mov	 eax, DWORD PTR [ecx]
  0001a	6a 10		 push	 16			; 00000010H
  0001c	6a 02		 push	 2
  0001e	6a 00		 push	 0
  00020	8d 54 24 0c	 lea	 edx, DWORD PTR $T99016[esp+20]
  00024	52		 push	 edx
  00025	ff 50 08	 call	 DWORD PTR [eax+8]
  00028	eb 0f		 jmp	 SHORT $L99036
$L99015:
  0002a	c7 04 24 ff ff
	ff ff		 mov	 DWORD PTR $T99017[esp+8], -1
  00031	c7 44 24 04 00
	00 00 00	 mov	 DWORD PTR $T99017[esp+12], 0
$L99036:
  00039	8b 44 24 0c	 mov	 eax, DWORD PTR ___$ReturnUdt$[esp+4]
  0003d	8d 0c 24	 lea	 ecx, DWORD PTR $T99017[esp+8]
  00040	8b 11		 mov	 edx, DWORD PTR [ecx]
  00042	8b 49 04	 mov	 ecx, DWORD PTR [ecx+4]
  00045	89 10		 mov	 DWORD PTR [eax], edx
  00047	89 48 04	 mov	 DWORD PTR [eax+4], ecx

; 131  :   }

  0004a	83 c4 08	 add	 esp, 8
  0004d	c2 04 00	 ret	 4
?tellp@?$basic_ostream@DV?$char_traits@D@_STL@@@_STL@@QAE?AV?$fpos@H@2@XZ ENDP ; _STL::basic_ostream<char,_STL::char_traits<char> >::tellp
; Function compile flags: /Ogty
_TEXT	ENDS
;	COMDAT ?seekp@?$basic_ostream@DV?$char_traits@D@_STL@@@_STL@@QAEAAV12@V?$fpos@H@2@@Z
_TEXT	SEGMENT
$T99040 = 8						; size = 8
___pos$ = 8						; size = 8
?seekp@?$basic_ostream@DV?$char_traits@D@_STL@@@_STL@@QAEAAV12@V?$fpos@H@2@@Z PROC NEAR ; _STL::basic_ostream<char,_STL::char_traits<char> >::seekp, COMDAT
; _this$ = ecx

; 133  :   _Self& seekp(pos_type __pos) {

  00000	56		 push	 esi
  00001	8b f1		 mov	 esi, ecx

; 134  :     if (this->rdbuf() && !this->fail())

  00003	8b 06		 mov	 eax, DWORD PTR [esi]
  00005	8b 48 04	 mov	 ecx, DWORD PTR [eax+4]
  00008	8b 54 31 58	 mov	 edx, DWORD PTR [ecx+esi+88]
  0000c	03 ce		 add	 ecx, esi
  0000e	85 d2		 test	 edx, edx
  00010	74 23		 je	 SHORT $L99056
  00012	f6 41 08 05	 test	 BYTE PTR [ecx+8], 5
  00016	75 1d		 jne	 SHORT $L99056

; 135  :       this->rdbuf()->pubseekpos(__pos, ios_base::out);

  00018	8b 50 04	 mov	 edx, DWORD PTR [eax+4]
  0001b	8b 4c 32 58	 mov	 ecx, DWORD PTR [edx+esi+88]
  0001f	8b 54 24 0c	 mov	 edx, DWORD PTR ___pos$[esp+4]
  00023	8b 01		 mov	 eax, DWORD PTR [ecx]
  00025	6a 10		 push	 16			; 00000010H
  00027	52		 push	 edx
  00028	8b 54 24 10	 mov	 edx, DWORD PTR ___pos$[esp+8]
  0002c	52		 push	 edx
  0002d	8d 54 24 14	 lea	 edx, DWORD PTR $T99040[esp+12]
  00031	52		 push	 edx
  00032	ff 50 0c	 call	 DWORD PTR [eax+12]
$L99056:

; 136  :     return *this;

  00035	8b c6		 mov	 eax, esi
  00037	5e		 pop	 esi

; 137  :   }

  00038	c2 08 00	 ret	 8
?seekp@?$basic_ostream@DV?$char_traits@D@_STL@@@_STL@@QAEAAV12@V?$fpos@H@2@@Z ENDP ; _STL::basic_ostream<char,_STL::char_traits<char> >::seekp
; Function compile flags: /Ogty
; File c:\stlport-4.6.1\stlport\stl\_alloc.h
_TEXT	ENDS
;	COMDAT ??1?$allocator@K@_STL@@QAE@XZ
_TEXT	SEGMENT
??1?$allocator@K@_STL@@QAE@XZ PROC NEAR			; _STL::allocator<unsigned long>::~allocator<unsigned long>, COMDAT
; _this$ = ecx

; 350  :   ~allocator() _STLP_NOTHROW {}

  00000	c3		 ret	 0
??1?$allocator@K@_STL@@QAE@XZ ENDP			; _STL::allocator<unsigned long>::~allocator<unsigned long>
_TEXT	ENDS
PUBLIC	??1?$_STLP_alloc_proxy@PAKKV?$allocator@K@_STL@@@_STL@@QAE@XZ ; _STL::_STLP_alloc_proxy<unsigned long *,unsigned long,_STL::allocator<unsigned long> >::~_STLP_alloc_proxy<unsigned long *,unsigned long,_STL::allocator<unsigned long> >
;	COMDAT xdata$x
xdata$x	SEGMENT
$T99081	DD	0ffffffffH
	DD	FLAT:$L99063
$T99079	DD	019930520H
	DD	01H
	DD	FLAT:$T99081
	DD	2 DUP(00H)
	DD	2 DUP(00H)
; Function compile flags: /Ogty
; File c:\stlport-4.6.1\stlport\stl\_vector.h
xdata$x	ENDS
;	COMDAT ??1?$_Vector_base@KV?$allocator@K@_STL@@@_STL@@QAE@XZ
_TEXT	SEGMENT
_this$ = -16						; size = 4
__$EHRec$ = -12						; size = 12
??1?$_Vector_base@KV?$allocator@K@_STL@@@_STL@@QAE@XZ PROC NEAR ; _STL::_Vector_base<unsigned long,_STL::allocator<unsigned long> >::~_Vector_base<unsigned long,_STL::allocator<unsigned long> >, COMDAT
; _this$ = ecx

; 83   :   ~_Vector_base() { 

  00000	6a ff		 push	 -1
  00002	68 00 00 00 00	 push	 __ehhandler$??1?$_Vector_base@KV?$allocator@K@_STL@@@_STL@@QAE@XZ
  00007	64 a1 00 00 00
	00		 mov	 eax, DWORD PTR fs:__except_list
  0000d	50		 push	 eax
  0000e	64 89 25 00 00
	00 00		 mov	 DWORD PTR fs:__except_list, esp
  00015	51		 push	 ecx
  00016	89 0c 24	 mov	 DWORD PTR _this$[esp+16], ecx

; 84   :     if (_M_start !=0) 

  00019	8b 01		 mov	 eax, DWORD PTR [ecx]
  0001b	85 c0		 test	 eax, eax
  0001d	c7 44 24 0c 00
	00 00 00	 mov	 DWORD PTR __$EHRec$[esp+24], 0
  00025	74 15		 je	 SHORT $L99066

; 85   :     _M_end_of_storage.deallocate(_M_start, _M_end_of_storage._M_data - _M_start); 

  00027	8b 49 08	 mov	 ecx, DWORD PTR [ecx+8]
  0002a	2b c8		 sub	 ecx, eax
  0002c	c1 f9 02	 sar	 ecx, 2
  0002f	c1 e1 02	 shl	 ecx, 2
  00032	51		 push	 ecx
  00033	50		 push	 eax
  00034	e8 00 00 00 00	 call	 ?deallocate@?$__node_alloc@$00$0A@@_STL@@SAXPAXI@Z ; _STL::__node_alloc<1,0>::deallocate
  00039	83 c4 08	 add	 esp, 8
$L99066:

; 86   :   }

  0003c	8b 4c 24 04	 mov	 ecx, DWORD PTR __$EHRec$[esp+16]
  00040	64 89 0d 00 00
	00 00		 mov	 DWORD PTR fs:__except_list, ecx
  00047	83 c4 10	 add	 esp, 16			; 00000010H
  0004a	c3		 ret	 0
_TEXT	ENDS
;	COMDAT text$x
text$x	SEGMENT
$L99063:
  00000	8b 4d f0	 mov	 ecx, DWORD PTR _this$[ebp]
  00003	83 c1 08	 add	 ecx, 8
  00006	e9 00 00 00 00	 jmp	 ??1?$_STLP_alloc_proxy@PAKKV?$allocator@K@_STL@@@_STL@@QAE@XZ
__ehhandler$??1?$_Vector_base@KV?$allocator@K@_STL@@@_STL@@QAE@XZ:
  0000b	b8 00 00 00 00	 mov	 eax, OFFSET FLAT:$T99079
  00010	e9 00 00 00 00	 jmp	 ___CxxFrameHandler
text$x	ENDS
??1?$_Vector_base@KV?$allocator@K@_STL@@@_STL@@QAE@XZ ENDP ; _STL::_Vector_base<unsigned long,_STL::allocator<unsigned long> >::~_Vector_base<unsigned long,_STL::allocator<unsigned long> >
; Function compile flags: /Ogty
;	COMDAT ??1?$_STLP_alloc_proxy@PAKKV?$allocator@K@_STL@@@_STL@@QAE@XZ
_TEXT	SEGMENT
??1?$_STLP_alloc_proxy@PAKKV?$allocator@K@_STL@@@_STL@@QAE@XZ PROC NEAR ; _STL::_STLP_alloc_proxy<unsigned long *,unsigned long,_STL::allocator<unsigned long> >::~_STLP_alloc_proxy<unsigned long *,unsigned long,_STL::allocator<unsigned long> >, COMDAT
; _this$ = ecx
  00000	c3		 ret	 0
??1?$_STLP_alloc_proxy@PAKKV?$allocator@K@_STL@@@_STL@@QAE@XZ ENDP ; _STL::_STLP_alloc_proxy<unsigned long *,unsigned long,_STL::allocator<unsigned long> >::~_STLP_alloc_proxy<unsigned long *,unsigned long,_STL::allocator<unsigned long> >
; Function compile flags: /Ogty
; File c:\stlport-4.6.1\stlport\stl\_alloc.h
_TEXT	ENDS
;	COMDAT ??0?$_STLP_alloc_proxy@PAKKV?$allocator@K@_STL@@@_STL@@QAE@ABV?$allocator@K@1@PAK@Z
_TEXT	SEGMENT
___a$ = 8						; size = 4
___p$ = 12						; size = 4
??0?$_STLP_alloc_proxy@PAKKV?$allocator@K@_STL@@@_STL@@QAE@ABV?$allocator@K@1@PAK@Z PROC NEAR ; _STL::_STLP_alloc_proxy<unsigned long *,unsigned long,_STL::allocator<unsigned long> >::_STLP_alloc_proxy<unsigned long *,unsigned long,_STL::allocator<unsigned long> >, COMDAT
; _this$ = ecx

; 487  :   inline _STLP_alloc_proxy(const _MaybeReboundAlloc& __a, _Value __p) : _MaybeReboundAlloc(__a), _M_data(__p) {}

  00000	8b c1		 mov	 eax, ecx
  00002	8b 4c 24 08	 mov	 ecx, DWORD PTR ___p$[esp-4]
  00006	89 08		 mov	 DWORD PTR [eax], ecx
  00008	c2 08 00	 ret	 8
??0?$_STLP_alloc_proxy@PAKKV?$allocator@K@_STL@@@_STL@@QAE@ABV?$allocator@K@1@PAK@Z ENDP ; _STL::_STLP_alloc_proxy<unsigned long *,unsigned long,_STL::allocator<unsigned long> >::_STLP_alloc_proxy<unsigned long *,unsigned long,_STL::allocator<unsigned long> >
; Function compile flags: /Ogty
; File c:\stlport-4.6.1\stlport\stl\_vector.h
_TEXT	ENDS
;	COMDAT ??1?$vector@KV?$allocator@K@_STL@@@_STL@@QAE@XZ
_TEXT	SEGMENT
??1?$vector@KV?$allocator@K@_STL@@@_STL@@QAE@XZ PROC NEAR ; _STL::vector<unsigned long,_STL::allocator<unsigned long> >::~vector<unsigned long,_STL::allocator<unsigned long> >, COMDAT
; _this$ = ecx

; 258  :   ~vector() { _Destroy(this->_M_start, this->_M_finish); }

  00000	8b 01		 mov	 eax, DWORD PTR [ecx]
  00002	85 c0		 test	 eax, eax
  00004	74 15		 je	 SHORT $L99131
  00006	8b 49 08	 mov	 ecx, DWORD PTR [ecx+8]
  00009	2b c8		 sub	 ecx, eax
  0000b	c1 f9 02	 sar	 ecx, 2
  0000e	c1 e1 02	 shl	 ecx, 2
  00011	51		 push	 ecx
  00012	50		 push	 eax
  00013	e8 00 00 00 00	 call	 ?deallocate@?$__node_alloc@$00$0A@@_STL@@SAXPAXI@Z ; _STL::__node_alloc<1,0>::deallocate
  00018	83 c4 08	 add	 esp, 8
$L99131:
  0001b	c3		 ret	 0
??1?$vector@KV?$allocator@K@_STL@@@_STL@@QAE@XZ ENDP	; _STL::vector<unsigned long,_STL::allocator<unsigned long> >::~vector<unsigned long,_STL::allocator<unsigned long> >
_TEXT	ENDS
PUBLIC	?_M_insert_overflow@?$vector@KV?$allocator@K@_STL@@@_STL@@IAEXPAKABKABU__true_type@2@I_N@Z ; _STL::vector<unsigned long,_STL::allocator<unsigned long> >::_M_insert_overflow
; Function compile flags: /Ogty
;	COMDAT ?push_back@?$vector@KV?$allocator@K@_STL@@@_STL@@QAEXABK@Z
_TEXT	SEGMENT
$T99136 = -1						; size = 1
___x$ = 8						; size = 4
?push_back@?$vector@KV?$allocator@K@_STL@@@_STL@@QAEXABK@Z PROC NEAR ; _STL::vector<unsigned long,_STL::allocator<unsigned long> >::push_back, COMDAT
; _this$ = ecx

; 331  :   void push_back(const _Tp& __x) {

  00000	51		 push	 ecx

; 332  :     if (this->_M_finish != this->_M_end_of_storage._M_data) {

  00001	8b 41 04	 mov	 eax, DWORD PTR [ecx+4]
  00004	3b 41 08	 cmp	 eax, DWORD PTR [ecx+8]
  00007	74 14		 je	 SHORT $L91208

; 333  :       _Construct(this->_M_finish, __x);

  00009	85 c0		 test	 eax, eax
  0000b	74 08		 je	 SHORT $L99147
  0000d	8b 54 24 08	 mov	 edx, DWORD PTR ___x$[esp]
  00011	8b 12		 mov	 edx, DWORD PTR [edx]
  00013	89 10		 mov	 DWORD PTR [eax], edx
$L99147:

; 334  :       ++this->_M_finish;

  00015	83 41 04 04	 add	 DWORD PTR [ecx+4], 4

; 338  :   }

  00019	59		 pop	 ecx
  0001a	c2 04 00	 ret	 4
$L91208:

; 335  :     }
; 336  :     else
; 337  :       _M_insert_overflow(this->_M_finish, __x, _IsPODType(), 1UL, true);

  0001d	6a 01		 push	 1
  0001f	6a 01		 push	 1
  00021	8d 54 24 0b	 lea	 edx, DWORD PTR $T99136[esp+12]
  00025	52		 push	 edx
  00026	8b 54 24 14	 mov	 edx, DWORD PTR ___x$[esp+12]
  0002a	52		 push	 edx
  0002b	50		 push	 eax
  0002c	c6 44 24 17 00	 mov	 BYTE PTR $T99136[esp+24], 0
  00031	e8 00 00 00 00	 call	 ?_M_insert_overflow@?$vector@KV?$allocator@K@_STL@@@_STL@@IAEXPAKABKABU__true_type@2@I_N@Z ; _STL::vector<unsigned long,_STL::allocator<unsigned long> >::_M_insert_overflow

; 338  :   }

  00036	59		 pop	 ecx
  00037	c2 04 00	 ret	 4
?push_back@?$vector@KV?$allocator@K@_STL@@@_STL@@QAEXABK@Z ENDP ; _STL::vector<unsigned long,_STL::allocator<unsigned long> >::push_back
_TEXT	ENDS
PUBLIC	?_M_clear@?$vector@KV?$allocator@K@_STL@@@_STL@@IAEXXZ ; _STL::vector<unsigned long,_STL::allocator<unsigned long> >::_M_clear
; Function compile flags: /Ogty
;	COMDAT ?_M_insert_overflow@?$vector@KV?$allocator@K@_STL@@@_STL@@IAEXPAKABKABU__true_type@2@I_N@Z
_TEXT	SEGMENT
___new_start$ = -8					; size = 4
___old_size$ = -8					; size = 4
___len$ = -4						; size = 4
___position$ = 8					; size = 4
___x$ = 12						; size = 4
___formal$ = 16						; size = 4
___fill_len$ = 20					; size = 4
___atend$ = 24						; size = 1
?_M_insert_overflow@?$vector@KV?$allocator@K@_STL@@@_STL@@IAEXPAKABKABU__true_type@2@I_N@Z PROC NEAR ; _STL::vector<unsigned long,_STL::allocator<unsigned long> >::_M_insert_overflow, COMDAT
; _this$ = ecx

; 151  : 			  size_type __fill_len, bool __atend = false) {

  00000	83 ec 08	 sub	 esp, 8
  00003	53		 push	 ebx
  00004	55		 push	 ebp
  00005	8b e9		 mov	 ebp, ecx

; 152  :     const size_type __old_size = size();

  00007	8b 45 04	 mov	 eax, DWORD PTR [ebp+4]
  0000a	56		 push	 esi
  0000b	2b 45 00	 sub	 eax, DWORD PTR [ebp]

; 153  :     const size_type __len = __old_size + (max)(__old_size, __fill_len);

  0000e	8b 74 24 24	 mov	 esi, DWORD PTR ___fill_len$[esp+16]
  00012	c1 f8 02	 sar	 eax, 2
  00015	3b c6		 cmp	 eax, esi
  00017	57		 push	 edi
  00018	89 44 24 10	 mov	 DWORD PTR ___old_size$[esp+24], eax
  0001c	8d 4c 24 28	 lea	 ecx, DWORD PTR ___fill_len$[esp+20]
  00020	72 04		 jb	 SHORT $L99224
  00022	8d 4c 24 10	 lea	 ecx, DWORD PTR ___old_size$[esp+24]
$L99224:
  00026	8b 09		 mov	 ecx, DWORD PTR [ecx]
  00028	03 c8		 add	 ecx, eax
  0002a	89 4c 24 14	 mov	 DWORD PTR ___len$[esp+24], ecx

; 154  :     
; 155  :     pointer __new_start = this->_M_end_of_storage.allocate(__len);

  0002e	74 18		 je	 SHORT $L99230
  00030	8d 04 8d 00 00
	00 00		 lea	 eax, DWORD PTR [ecx*4]
  00037	50		 push	 eax
  00038	e8 00 00 00 00	 call	 ?allocate@?$__node_alloc@$00$0A@@_STL@@SAPAXI@Z ; _STL::__node_alloc<1,0>::allocate
  0003d	8b f8		 mov	 edi, eax
  0003f	83 c4 04	 add	 esp, 4
  00042	89 7c 24 10	 mov	 DWORD PTR ___new_start$[esp+24], edi
  00046	eb 0c		 jmp	 SHORT $L99231
$L99230:
  00048	c7 44 24 10 00
	00 00 00	 mov	 DWORD PTR ___new_start$[esp+24], 0
  00050	8b 7c 24 10	 mov	 edi, DWORD PTR ___new_start$[esp+24]
$L99231:

; 156  :     pointer __new_finish = (pointer)__copy_trivial(this->_M_start, __position, __new_start);

  00054	8b 45 00	 mov	 eax, DWORD PTR [ebp]
  00057	8b 5c 24 1c	 mov	 ebx, DWORD PTR ___position$[esp+20]
  0005b	3b d8		 cmp	 ebx, eax
  0005d	75 04		 jne	 SHORT $L99237
  0005f	8b c7		 mov	 eax, edi
  00061	eb 15		 jmp	 SHORT $L99238
$L99237:
  00063	8b f3		 mov	 esi, ebx
  00065	2b f0		 sub	 esi, eax
  00067	56		 push	 esi
  00068	50		 push	 eax
  00069	57		 push	 edi
  0006a	e8 00 00 00 00	 call	 _memmove
  0006f	83 c4 0c	 add	 esp, 12			; 0000000cH
  00072	03 c6		 add	 eax, esi
  00074	8b 74 24 28	 mov	 esi, DWORD PTR ___fill_len$[esp+20]
$L99238:

; 157  :       // handle insertion
; 158  :     __new_finish = fill_n(__new_finish, __fill_len, __x);

  00078	85 f6		 test	 esi, esi
  0007a	76 10		 jbe	 SHORT $L99244
  0007c	8b 54 24 20	 mov	 edx, DWORD PTR ___x$[esp+20]
  00080	8b ce		 mov	 ecx, esi
$L99242:
  00082	8b 32		 mov	 esi, DWORD PTR [edx]
  00084	89 30		 mov	 DWORD PTR [eax], esi
  00086	83 c0 04	 add	 eax, 4
  00089	49		 dec	 ecx
  0008a	75 f6		 jne	 SHORT $L99242
$L99244:

; 159  :     if (!__atend)

  0008c	8a 4c 24 2c	 mov	 cl, BYTE PTR ___atend$[esp+20]
  00090	84 c9		 test	 cl, cl
  00092	8b f0		 mov	 esi, eax
  00094	75 1c		 jne	 SHORT $L99254

; 160  :       // copy remainder
; 161  :       __new_finish = (pointer)__copy_trivial(__position, this->_M_finish, __new_finish);

  00096	8b 7d 04	 mov	 edi, DWORD PTR [ebp+4]
  00099	3b fb		 cmp	 edi, ebx
  0009b	74 11		 je	 SHORT $L99288
  0009d	2b fb		 sub	 edi, ebx
  0009f	57		 push	 edi
  000a0	53		 push	 ebx
  000a1	50		 push	 eax
  000a2	e8 00 00 00 00	 call	 _memmove
  000a7	8b f0		 mov	 esi, eax
  000a9	83 c4 0c	 add	 esp, 12			; 0000000cH
  000ac	03 f7		 add	 esi, edi
$L99288:
  000ae	8b 7c 24 10	 mov	 edi, DWORD PTR ___new_start$[esp+24]
$L99254:

; 162  :     _M_clear();

  000b2	8b cd		 mov	 ecx, ebp
  000b4	e8 00 00 00 00	 call	 ?_M_clear@?$vector@KV?$allocator@K@_STL@@@_STL@@IAEXXZ ; _STL::vector<unsigned long,_STL::allocator<unsigned long> >::_M_clear

; 163  :     _M_set(__new_start, __new_finish, __new_start + __len);

  000b9	8b 4c 24 14	 mov	 ecx, DWORD PTR ___len$[esp+24]
  000bd	89 7d 00	 mov	 DWORD PTR [ebp], edi
  000c0	8d 14 8f	 lea	 edx, DWORD PTR [edi+ecx*4]
  000c3	5f		 pop	 edi
  000c4	89 75 04	 mov	 DWORD PTR [ebp+4], esi
  000c7	5e		 pop	 esi
  000c8	89 55 08	 mov	 DWORD PTR [ebp+8], edx
  000cb	5d		 pop	 ebp
  000cc	5b		 pop	 ebx

; 164  :   }

  000cd	83 c4 08	 add	 esp, 8
  000d0	c2 14 00	 ret	 20			; 00000014H
?_M_insert_overflow@?$vector@KV?$allocator@K@_STL@@@_STL@@IAEXPAKABKABU__true_type@2@I_N@Z ENDP ; _STL::vector<unsigned long,_STL::allocator<unsigned long> >::_M_insert_overflow
; Function compile flags: /Ogty
_TEXT	ENDS
;	COMDAT ?_M_clear@?$vector@KV?$allocator@K@_STL@@@_STL@@IAEXXZ
_TEXT	SEGMENT
?_M_clear@?$vector@KV?$allocator@K@_STL@@@_STL@@IAEXXZ PROC NEAR ; _STL::vector<unsigned long,_STL::allocator<unsigned long> >::_M_clear, COMDAT
; _this$ = ecx

; 494  :     //    if (this->_M_start) {
; 495  :     _Destroy(this->_M_start, this->_M_finish);
; 496  :     this->_M_end_of_storage.deallocate(this->_M_start, this->_M_end_of_storage._M_data - this->_M_start);

  00000	8b 01		 mov	 eax, DWORD PTR [ecx]
  00002	85 c0		 test	 eax, eax
  00004	74 15		 je	 SHORT $L99314
  00006	8b 49 08	 mov	 ecx, DWORD PTR [ecx+8]
  00009	2b c8		 sub	 ecx, eax
  0000b	c1 f9 02	 sar	 ecx, 2
  0000e	c1 e1 02	 shl	 ecx, 2
  00011	51		 push	 ecx
  00012	50		 push	 eax
  00013	e8 00 00 00 00	 call	 ?deallocate@?$__node_alloc@$00$0A@@_STL@@SAXPAXI@Z ; _STL::__node_alloc<1,0>::deallocate
  00018	83 c4 08	 add	 esp, 8
$L99314:

; 497  :     //    }
; 498  :   }

  0001b	c3		 ret	 0
?_M_clear@?$vector@KV?$allocator@K@_STL@@@_STL@@IAEXXZ ENDP ; _STL::vector<unsigned long,_STL::allocator<unsigned long> >::_M_clear
_TEXT	ENDS
PUBLIC	??$assign@PAD@?$basic_string@DV?$char_traits@D@_STL@@V?$allocator@D@2@@_STL@@QAEAAV01@PAD0@Z ; _STL::basic_string<char,_STL::char_traits<char>,_STL::allocator<char> >::assign<char *>
; Function compile flags: /Ogty
; File c:\stlport-4.6.1\stlport\stl\_string.h
;	COMDAT ??$assign@PAD@?$basic_string@DV?$char_traits@D@_STL@@V?$allocator@D@2@@_STL@@QAEAAV01@PAD0@Z
_TEXT	SEGMENT
___first$ = 8						; size = 4
$T99321 = 12						; size = 1
___last$ = 12						; size = 4
??$assign@PAD@?$basic_string@DV?$char_traits@D@_STL@@V?$allocator@D@2@@_STL@@QAEAAV01@PAD0@Z PROC NEAR ; _STL::basic_string<char,_STL::char_traits<char>,_STL::allocator<char> >::assign<char *>, COMDAT
; _this$ = ecx

; 643  :     typedef typename _Is_integer<_InputIter>::_Integral _Integral;
; 644  :     return _M_assign_dispatch(__first, __last, _Integral());

  00000	8b 54 24 08	 mov	 edx, DWORD PTR ___last$[esp-4]
  00004	8d 44 24 08	 lea	 eax, DWORD PTR $T99321[esp-4]
  00008	50		 push	 eax
  00009	8b 44 24 08	 mov	 eax, DWORD PTR ___first$[esp]
  0000d	52		 push	 edx
  0000e	50		 push	 eax
  0000f	e8 00 00 00 00	 call	 ??$_M_assign_dispatch@PAD@?$basic_string@DV?$char_traits@D@_STL@@V?$allocator@D@2@@_STL@@AAEAAV01@PAD0ABU__false_type@1@@Z ; _STL::basic_string<char,_STL::char_traits<char>,_STL::allocator<char> >::_M_assign_dispatch<char *>

; 645  :   }

  00014	c2 08 00	 ret	 8
??$assign@PAD@?$basic_string@DV?$char_traits@D@_STL@@V?$allocator@D@2@@_STL@@QAEAAV01@PAD0@Z ENDP ; _STL::basic_string<char,_STL::char_traits<char>,_STL::allocator<char> >::assign<char *>
_TEXT	ENDS
PUBLIC	??_GC_SPRITE_PACK@@QAEPAXI@Z			; C_SPRITE_PACK::`scalar deleting destructor'
; Function compile flags: /Ogty
;	COMDAT ??_GC_SPRITE_PACK@@QAEPAXI@Z
_TEXT	SEGMENT
___flags$ = 8						; size = 4
??_GC_SPRITE_PACK@@QAEPAXI@Z PROC NEAR			; C_SPRITE_PACK::`scalar deleting destructor', COMDAT
; _this$ = ecx
  00000	56		 push	 esi
  00001	8b f1		 mov	 esi, ecx
  00003	e8 00 00 00 00	 call	 ??1C_SPRITE_PACK@@QAE@XZ ; C_SPRITE_PACK::~C_SPRITE_PACK
  00008	f6 44 24 08 01	 test	 BYTE PTR ___flags$[esp], 1
  0000d	74 09		 je	 SHORT $L99325
  0000f	56		 push	 esi
  00010	e8 00 00 00 00	 call	 ??3@YAXPAX@Z		; operator delete
  00015	83 c4 04	 add	 esp, 4
$L99325:
  00018	8b c6		 mov	 eax, esi
  0001a	5e		 pop	 esi
  0001b	c2 04 00	 ret	 4
??_GC_SPRITE_PACK@@QAEPAXI@Z ENDP			; C_SPRITE_PACK::`scalar deleting destructor'
_TEXT	ENDS
PUBLIC	??4?$basic_string@DV?$char_traits@D@_STL@@V?$allocator@D@2@@_STL@@QAEAAV01@PBD@Z ; _STL::basic_string<char,_STL::char_traits<char>,_STL::allocator<char> >::operator=
; Function compile flags: /Ogty
;	COMDAT ??4?$basic_string@DV?$char_traits@D@_STL@@V?$allocator@D@2@@_STL@@QAEAAV01@PBD@Z
_TEXT	SEGMENT
___s$ = 8						; size = 4
??4?$basic_string@DV?$char_traits@D@_STL@@V?$allocator@D@2@@_STL@@QAEAAV01@PBD@Z PROC NEAR ; _STL::basic_string<char,_STL::char_traits<char>,_STL::allocator<char> >::operator=, COMDAT
; _this$ = ecx

; 313  :   _Self& operator=(const _CharT* __s) { 

  00000	56		 push	 esi

; 314  :     _STLP_FIX_LITERAL_BUG(__s)
; 315  :     return assign(__s, __s + traits_type::length(__s)); 

  00001	8b 74 24 08	 mov	 esi, DWORD PTR ___s$[esp]
  00005	8b c6		 mov	 eax, esi
  00007	57		 push	 edi
  00008	8d 78 01	 lea	 edi, DWORD PTR [eax+1]
  0000b	eb 03 8d 49 00	 npad	 5
$L99332:
  00010	8a 10		 mov	 dl, BYTE PTR [eax]
  00012	40		 inc	 eax
  00013	84 d2		 test	 dl, dl
  00015	75 f9		 jne	 SHORT $L99332
  00017	2b c7		 sub	 eax, edi
  00019	03 c6		 add	 eax, esi
  0001b	50		 push	 eax
  0001c	56		 push	 esi
  0001d	e8 00 00 00 00	 call	 ?assign@?$basic_string@DV?$char_traits@D@_STL@@V?$allocator@D@2@@_STL@@QAEAAV12@PBD0@Z ; _STL::basic_string<char,_STL::char_traits<char>,_STL::allocator<char> >::assign
  00022	5f		 pop	 edi
  00023	5e		 pop	 esi

; 316  :   }

  00024	c2 04 00	 ret	 4
??4?$basic_string@DV?$char_traits@D@_STL@@V?$allocator@D@2@@_STL@@QAEAAV01@PBD@Z ENDP ; _STL::basic_string<char,_STL::char_traits<char>,_STL::allocator<char> >::operator=
_TEXT	ENDS
PUBLIC	??4?$basic_string@DV?$char_traits@D@_STL@@V?$allocator@D@2@@_STL@@QAEAAV01@ABV01@@Z ; _STL::basic_string<char,_STL::char_traits<char>,_STL::allocator<char> >::operator=
; Function compile flags: /Ogty
;	COMDAT ??4?$basic_string@DV?$char_traits@D@_STL@@V?$allocator@D@2@@_STL@@QAEAAV01@ABV01@@Z
_TEXT	SEGMENT
$T99339 = 8						; size = 1
___s$ = 8						; size = 4
??4?$basic_string@DV?$char_traits@D@_STL@@V?$allocator@D@2@@_STL@@QAEAAV01@ABV01@@Z PROC NEAR ; _STL::basic_string<char,_STL::char_traits<char>,_STL::allocator<char> >::operator=, COMDAT
; _this$ = ecx

; 308  :     if (&__s != this) 

  00000	8b 44 24 04	 mov	 eax, DWORD PTR ___s$[esp-4]
  00004	56		 push	 esi
  00005	8b f1		 mov	 esi, ecx
  00007	3b c6		 cmp	 eax, esi
  00009	74 13		 je	 SHORT $L99343

; 309  :       assign(__s._M_start, __s._M_finish);

  0000b	8b 50 04	 mov	 edx, DWORD PTR [eax+4]
  0000e	8b 00		 mov	 eax, DWORD PTR [eax]
  00010	8d 4c 24 08	 lea	 ecx, DWORD PTR $T99339[esp]
  00014	51		 push	 ecx
  00015	52		 push	 edx
  00016	50		 push	 eax
  00017	8b ce		 mov	 ecx, esi
  00019	e8 00 00 00 00	 call	 ??$_M_assign_dispatch@PAD@?$basic_string@DV?$char_traits@D@_STL@@V?$allocator@D@2@@_STL@@AAEAAV01@PAD0ABU__false_type@1@@Z ; _STL::basic_string<char,_STL::char_traits<char>,_STL::allocator<char> >::_M_assign_dispatch<char *>
$L99343:

; 310  :     return *this;

  0001e	8b c6		 mov	 eax, esi
  00020	5e		 pop	 esi

; 311  :   }

  00021	c2 04 00	 ret	 4
??4?$basic_string@DV?$char_traits@D@_STL@@V?$allocator@D@2@@_STL@@QAEAAV01@ABV01@@Z ENDP ; _STL::basic_string<char,_STL::char_traits<char>,_STL::allocator<char> >::operator=
_TEXT	ENDS
PUBLIC	??_C@_0BN@ODLNCKCA@Data?2?2Info?2?2ClientConfig?4inf?$AA@ ; `string'
PUBLIC	??_C@_0BM@DFPLPGPC@Data?2?2Info?2?2GuildMapper?4inf?$AA@ ; `string'
PUBLIC	??_C@_0BN@LHODHNBK@Data?2?2Info?2?2GuildVersion?4inf?$AA@ ; `string'
PUBLIC	??_C@_0BH@DDPLNCOL@Data?2?2Info?2?2Player?4inf?$AA@ ; `string'
PUBLIC	??_C@_0BL@ILLNAPHB@Data?2?2Info?2?2Resolution?4inf?$AA@ ; `string'
PUBLIC	??_C@_0CA@HEIGFDLG@Data?2?2Info?2?2SelectedChannel?4inf?$AA@ ; `string'
PUBLIC	?Init@iovfs_base@@QAEXXZ			; iovfs_base::Init
;	COMDAT ??_C@_0BN@ODLNCKCA@Data?2?2Info?2?2ClientConfig?4inf?$AA@
; File c:\stlport-4.6.1\stlport\stl\char_traits.h
CONST	SEGMENT
??_C@_0BN@ODLNCKCA@Data?2?2Info?2?2ClientConfig?4inf?$AA@ DB 'Data\\Info\'
	DB	'\ClientConfig.inf', 00H			; `string'
CONST	ENDS
;	COMDAT ??_C@_0BM@DFPLPGPC@Data?2?2Info?2?2GuildMapper?4inf?$AA@
CONST	SEGMENT
??_C@_0BM@DFPLPGPC@Data?2?2Info?2?2GuildMapper?4inf?$AA@ DB 'Data\\Info\\'
	DB	'GuildMapper.inf', 00H			; `string'
CONST	ENDS
;	COMDAT ??_C@_0BN@LHODHNBK@Data?2?2Info?2?2GuildVersion?4inf?$AA@
CONST	SEGMENT
??_C@_0BN@LHODHNBK@Data?2?2Info?2?2GuildVersion?4inf?$AA@ DB 'Data\\Info\'
	DB	'\GuildVersion.inf', 00H			; `string'
CONST	ENDS
;	COMDAT ??_C@_0BH@DDPLNCOL@Data?2?2Info?2?2Player?4inf?$AA@
CONST	SEGMENT
??_C@_0BH@DDPLNCOL@Data?2?2Info?2?2Player?4inf?$AA@ DB 'Data\\Info\\Playe'
	DB	'r.inf', 00H					; `string'
CONST	ENDS
;	COMDAT ??_C@_0BL@ILLNAPHB@Data?2?2Info?2?2Resolution?4inf?$AA@
CONST	SEGMENT
??_C@_0BL@ILLNAPHB@Data?2?2Info?2?2Resolution?4inf?$AA@ DB 'Data\\Info\\R'
	DB	'esolution.inf', 00H				; `string'
CONST	ENDS
;	COMDAT ??_C@_0CA@HEIGFDLG@Data?2?2Info?2?2SelectedChannel?4inf?$AA@
CONST	SEGMENT
??_C@_0CA@HEIGFDLG@Data?2?2Info?2?2SelectedChannel?4inf?$AA@ DB 'Data\\In'
	DB	'fo\\SelectedChannel.inf', 00H		; `string'
; Function compile flags: /Ogty
; File c:\darkeden\designed_common\project\client\virtualfilesystem\vfstream.inl
CONST	ENDS
;	COMDAT ?Init@iovfs_base@@QAEXXZ
_TEXT	SEGMENT
?Init@iovfs_base@@QAEXXZ PROC NEAR			; iovfs_base::Init, COMDAT
; _this$ = ecx

; 27   : {

  00000	56		 push	 esi
  00001	8b f1		 mov	 esi, ecx

; 28   : 	m_pFileIO = NULL;
; 29   : 
; 30   : 	m_strExceptList[0] = "Data\\\\Info\\\\ClientConfig.inf";

  00003	68 1c 00 00 00	 push	 OFFSET FLAT:??_C@_0BN@ODLNCKCA@Data?2?2Info?2?2ClientConfig?4inf?$AA@+28
  00008	68 00 00 00 00	 push	 OFFSET FLAT:??_C@_0BN@ODLNCKCA@Data?2?2Info?2?2ClientConfig?4inf?$AA@
  0000d	8d 4e 08	 lea	 ecx, DWORD PTR [esi+8]
  00010	c7 46 04 00 00
	00 00		 mov	 DWORD PTR [esi+4], 0
  00017	e8 00 00 00 00	 call	 ?assign@?$basic_string@DV?$char_traits@D@_STL@@V?$allocator@D@2@@_STL@@QAEAAV12@PBD0@Z ; _STL::basic_string<char,_STL::char_traits<char>,_STL::allocator<char> >::assign

; 31   : 	m_strExceptList[1] = "Data\\\\Info\\\\GuildMapper.inf";

  0001c	68 1b 00 00 00	 push	 OFFSET FLAT:??_C@_0BM@DFPLPGPC@Data?2?2Info?2?2GuildMapper?4inf?$AA@+27
  00021	68 00 00 00 00	 push	 OFFSET FLAT:??_C@_0BM@DFPLPGPC@Data?2?2Info?2?2GuildMapper?4inf?$AA@
  00026	8d 4e 14	 lea	 ecx, DWORD PTR [esi+20]
  00029	e8 00 00 00 00	 call	 ?assign@?$basic_string@DV?$char_traits@D@_STL@@V?$allocator@D@2@@_STL@@QAEAAV12@PBD0@Z ; _STL::basic_string<char,_STL::char_traits<char>,_STL::allocator<char> >::assign

; 32   : 	m_strExceptList[2] = "Data\\\\Info\\\\GuildVersion.inf";

  0002e	68 1c 00 00 00	 push	 OFFSET FLAT:??_C@_0BN@LHODHNBK@Data?2?2Info?2?2GuildVersion?4inf?$AA@+28
  00033	68 00 00 00 00	 push	 OFFSET FLAT:??_C@_0BN@LHODHNBK@Data?2?2Info?2?2GuildVersion?4inf?$AA@
  00038	8d 4e 20	 lea	 ecx, DWORD PTR [esi+32]
  0003b	e8 00 00 00 00	 call	 ?assign@?$basic_string@DV?$char_traits@D@_STL@@V?$allocator@D@2@@_STL@@QAEAAV12@PBD0@Z ; _STL::basic_string<char,_STL::char_traits<char>,_STL::allocator<char> >::assign

; 33   : 	m_strExceptList[3] = "Data\\\\Info\\\\Player.inf";

  00040	68 16 00 00 00	 push	 OFFSET FLAT:??_C@_0BH@DDPLNCOL@Data?2?2Info?2?2Player?4inf?$AA@+22
  00045	68 00 00 00 00	 push	 OFFSET FLAT:??_C@_0BH@DDPLNCOL@Data?2?2Info?2?2Player?4inf?$AA@
  0004a	8d 4e 2c	 lea	 ecx, DWORD PTR [esi+44]
  0004d	e8 00 00 00 00	 call	 ?assign@?$basic_string@DV?$char_traits@D@_STL@@V?$allocator@D@2@@_STL@@QAEAAV12@PBD0@Z ; _STL::basic_string<char,_STL::char_traits<char>,_STL::allocator<char> >::assign

; 34   : 	m_strExceptList[4] = "Data\\\\Info\\\\Resolution.inf";

  00052	68 1a 00 00 00	 push	 OFFSET FLAT:??_C@_0BL@ILLNAPHB@Data?2?2Info?2?2Resolution?4inf?$AA@+26
  00057	68 00 00 00 00	 push	 OFFSET FLAT:??_C@_0BL@ILLNAPHB@Data?2?2Info?2?2Resolution?4inf?$AA@
  0005c	8d 4e 38	 lea	 ecx, DWORD PTR [esi+56]
  0005f	e8 00 00 00 00	 call	 ?assign@?$basic_string@DV?$char_traits@D@_STL@@V?$allocator@D@2@@_STL@@QAEAAV12@PBD0@Z ; _STL::basic_string<char,_STL::char_traits<char>,_STL::allocator<char> >::assign

; 35   : 	m_strExceptList[5] = "Data\\\\Info\\\\SelectedChannel.inf";

  00064	68 1f 00 00 00	 push	 OFFSET FLAT:??_C@_0CA@HEIGFDLG@Data?2?2Info?2?2SelectedChannel?4inf?$AA@+31
  00069	68 00 00 00 00	 push	 OFFSET FLAT:??_C@_0CA@HEIGFDLG@Data?2?2Info?2?2SelectedChannel?4inf?$AA@
  0006e	8d 4e 44	 lea	 ecx, DWORD PTR [esi+68]
  00071	e8 00 00 00 00	 call	 ?assign@?$basic_string@DV?$char_traits@D@_STL@@V?$allocator@D@2@@_STL@@QAEAAV12@PBD0@Z ; _STL::basic_string<char,_STL::char_traits<char>,_STL::allocator<char> >::assign
  00076	5e		 pop	 esi

; 36   : 	
; 37   : }

  00077	c3		 ret	 0
?Init@iovfs_base@@QAEXXZ ENDP				; iovfs_base::Init
_TEXT	ENDS
PUBLIC	??1C_ANI_OBJECT@@QAE@XZ				; C_ANI_OBJECT::~C_ANI_OBJECT
; Function compile flags: /Ogty
; File c:\darkeden\designed_common\project\new - vs_ui\src\vs_ui_util.cpp
;	COMDAT ??1C_ANI_OBJECT@@QAE@XZ
_TEXT	SEGMENT
??1C_ANI_OBJECT@@QAE@XZ PROC NEAR			; C_ANI_OBJECT::~C_ANI_OBJECT, COMDAT
; _this$ = ecx

; 288  : {

  00000	56		 push	 esi
  00001	8b f1		 mov	 esi, ecx
  00003	57		 push	 edi

; 289  : 	DeleteNew(m_pC_spk);

  00004	8b 3e		 mov	 edi, DWORD PTR [esi]
  00006	85 ff		 test	 edi, edi
  00008	74 16		 je	 SHORT $L89181
  0000a	8b cf		 mov	 ecx, edi
  0000c	e8 00 00 00 00	 call	 ??1C_SPRITE_PACK@@QAE@XZ ; C_SPRITE_PACK::~C_SPRITE_PACK
  00011	57		 push	 edi
  00012	e8 00 00 00 00	 call	 ??3@YAXPAX@Z		; operator delete
  00017	83 c4 04	 add	 esp, 4
  0001a	c7 06 00 00 00
	00		 mov	 DWORD PTR [esi], 0
$L89181:

; 290  : 	DeleteNew(m_pC_frr);

  00020	8b 7e 04	 mov	 edi, DWORD PTR [esi+4]
  00023	85 ff		 test	 edi, edi
  00025	74 17		 je	 SHORT $L89184
  00027	8b cf		 mov	 ecx, edi
  00029	e8 00 00 00 00	 call	 ??1C_FRR@@QAE@XZ	; C_FRR::~C_FRR
  0002e	57		 push	 edi
  0002f	e8 00 00 00 00	 call	 ??3@YAXPAX@Z		; operator delete
  00034	83 c4 04	 add	 esp, 4
  00037	c7 46 04 00 00
	00 00		 mov	 DWORD PTR [esi+4], 0
$L89184:
  0003e	5f		 pop	 edi
  0003f	5e		 pop	 esi

; 291  : }

  00040	c3		 ret	 0
??1C_ANI_OBJECT@@QAE@XZ ENDP				; C_ANI_OBJECT::~C_ANI_OBJECT
_TEXT	ENDS
PUBLIC	?imbue@?$basic_ios@DV?$char_traits@D@_STL@@@_STL@@QAE?AVlocale@2@ABV32@@Z ; _STL::basic_ios<char,_STL::char_traits<char> >::imbue
EXTRN	?id@?$ctype@D@_STL@@2V0locale@2@A:DWORD		; _STL::ctype<char>::id
EXTRN	?imbue@ios_base@_STL@@QAE?AVlocale@2@ABV32@@Z:NEAR ; _STL::ios_base::imbue
EXTRN	?id@?$numpunct@D@_STL@@2V0locale@2@A:DWORD	; _STL::numpunct<char>::id
EXTRN	?pubimbue@?$basic_streambuf@DV?$char_traits@D@_STL@@@_STL@@QAE?AVlocale@2@ABV32@@Z:NEAR ; _STL::basic_streambuf<char,_STL::char_traits<char> >::pubimbue
EXTRN	??0locale@_STL@@QAE@ABV01@@Z:NEAR		; _STL::locale::locale
EXTRN	?_M_get_facet@locale@_STL@@QBEPAVfacet@12@ABVid@12@@Z:NEAR ; _STL::locale::_M_get_facet
;	COMDAT xdata$x
; File c:\stlport-4.6.1\stlport\stl\_new.h
xdata$x	SEGMENT
$T99514	DD	0ffffffffH
	DD	FLAT:$L99422
	DD	00H
	DD	FLAT:$L99419
	DD	01H
	DD	FLAT:$L99421
$T99512	DD	019930520H
	DD	03H
	DD	FLAT:$T99514
	DD	2 DUP(00H)
	DD	2 DUP(00H)
; Function compile flags: /Ogty
; File c:\stlport-4.6.1\stlport\stl\_ios.c
xdata$x	ENDS
;	COMDAT ?imbue@?$basic_ios@DV?$char_traits@D@_STL@@@_STL@@QAE?AVlocale@2@ABV32@@Z
_TEXT	SEGMENT
$T99417 = -32						; size = 4
$T99423 = -28						; size = 4
$T99418 = -24						; size = 12
__$EHRec$ = -12						; size = 12
___$ReturnUdt$ = 8					; size = 4
$T99435 = 12						; size = 1
___tmp$ = 12						; size = 4
___loc$ = 12						; size = 4
?imbue@?$basic_ios@DV?$char_traits@D@_STL@@@_STL@@QAE?AVlocale@2@ABV32@@Z PROC NEAR ; _STL::basic_ios<char,_STL::char_traits<char> >::imbue, COMDAT
; _this$ = ecx

; 74   : {

  00000	6a ff		 push	 -1
  00002	68 00 00 00 00	 push	 __ehhandler$?imbue@?$basic_ios@DV?$char_traits@D@_STL@@@_STL@@QAE?AVlocale@2@ABV32@@Z
  00007	64 a1 00 00 00
	00		 mov	 eax, DWORD PTR fs:__except_list
  0000d	50		 push	 eax
  0000e	64 89 25 00 00
	00 00		 mov	 DWORD PTR fs:__except_list, esp
  00015	83 ec 14	 sub	 esp, 20			; 00000014H
  00018	56		 push	 esi
  00019	57		 push	 edi
  0001a	c7 44 24 0c 00
	00 00 00	 mov	 DWORD PTR $T99423[esp+40], 0

; 75   :   locale __tmp = ios_base::imbue(__loc);

  00022	8b 7c 24 30	 mov	 edi, DWORD PTR ___loc$[esp+36]
  00026	57		 push	 edi
  00027	8d 44 24 34	 lea	 eax, DWORD PTR ___tmp$[esp+40]
  0002b	50		 push	 eax
  0002c	8b f1		 mov	 esi, ecx
  0002e	e8 00 00 00 00	 call	 ?imbue@ios_base@_STL@@QAE?AVlocale@2@ABV32@@Z ; _STL::ios_base::imbue

; 76   : 
; 77   :   if (_M_streambuf)

  00033	8b 4e 58	 mov	 ecx, DWORD PTR [esi+88]
  00036	85 c9		 test	 ecx, ecx
  00038	c7 44 24 24 01
	00 00 00	 mov	 DWORD PTR __$EHRec$[esp+48], 1
  00040	74 14		 je	 SHORT $L91458

; 78   :     _M_streambuf->pubimbue(__loc);

  00042	57		 push	 edi
  00043	8d 54 24 0c	 lea	 edx, DWORD PTR $T99417[esp+44]
  00047	52		 push	 edx
  00048	e8 00 00 00 00	 call	 ?pubimbue@?$basic_streambuf@DV?$char_traits@D@_STL@@@_STL@@QAE?AVlocale@2@ABV32@@Z ; _STL::basic_streambuf<char,_STL::char_traits<char> >::pubimbue
  0004d	8d 4c 24 08	 lea	 ecx, DWORD PTR $T99417[esp+40]
  00051	e8 00 00 00 00	 call	 ??1locale@_STL@@QAE@XZ	; _STL::locale::~locale
$L91458:

; 79   : 
; 80   :   // no throwing here
; 81   :   this->_M_cached_ctype = __loc._M_get_facet(ctype<char_type>::id) ;

  00056	68 00 00 00 00	 push	 OFFSET FLAT:?id@?$ctype@D@_STL@@2V0locale@2@A ; _STL::ctype<char>::id
  0005b	8b cf		 mov	 ecx, edi
  0005d	e8 00 00 00 00	 call	 ?_M_get_facet@locale@_STL@@QBEPAVfacet@12@ABVid@12@@Z ; _STL::locale::_M_get_facet

; 82   :   this->_M_cached_numpunct = __loc._M_get_facet(numpunct<char_type>::id) ;

  00062	68 00 00 00 00	 push	 OFFSET FLAT:?id@?$numpunct@D@_STL@@2V0locale@2@A ; _STL::numpunct<char>::id
  00067	8b cf		 mov	 ecx, edi
  00069	89 46 40	 mov	 DWORD PTR [esi+64], eax
  0006c	e8 00 00 00 00	 call	 ?_M_get_facet@locale@_STL@@QBEPAVfacet@12@ABVid@12@@Z ; _STL::locale::_M_get_facet

; 83   :   this->_M_cached_grouping = ((numpunct<char_type>*)_M_cached_numpunct)->grouping() ;

  00071	8d 4c 24 10	 lea	 ecx, DWORD PTR $T99418[esp+40]
  00075	51		 push	 ecx
  00076	8b c8		 mov	 ecx, eax
  00078	89 46 44	 mov	 DWORD PTR [esi+68], eax
  0007b	e8 00 00 00 00	 call	 ?grouping@?$numpunct@D@_STL@@QBE?AV?$basic_string@DV?$char_traits@D@_STL@@V?$allocator@D@2@@2@XZ ; _STL::numpunct<char>::grouping
  00080	8d 4e 48	 lea	 ecx, DWORD PTR [esi+72]
  00083	3b c1		 cmp	 eax, ecx
  00085	c6 44 24 24 02	 mov	 BYTE PTR __$EHRec$[esp+48], 2
  0008a	74 11		 je	 SHORT $L99436
  0008c	8b 50 04	 mov	 edx, DWORD PTR [eax+4]
  0008f	8b 00		 mov	 eax, DWORD PTR [eax]
  00091	8d 74 24 30	 lea	 esi, DWORD PTR $T99435[esp+36]
  00095	56		 push	 esi
  00096	52		 push	 edx
  00097	50		 push	 eax
  00098	e8 00 00 00 00	 call	 ??$_M_assign_dispatch@PAD@?$basic_string@DV?$char_traits@D@_STL@@V?$allocator@D@2@@_STL@@AAEAAV01@PAD0ABU__false_type@1@@Z ; _STL::basic_string<char,_STL::char_traits<char>,_STL::allocator<char> >::_M_assign_dispatch<char *>
$L99436:
  0009d	8b 4c 24 10	 mov	 ecx, DWORD PTR $T99418[esp+40]
  000a1	8b 44 24 18	 mov	 eax, DWORD PTR $T99418[esp+48]
  000a5	2b c1		 sub	 eax, ecx
  000a7	85 c9		 test	 ecx, ecx
  000a9	c6 44 24 24 01	 mov	 BYTE PTR __$EHRec$[esp+48], 1
  000ae	74 1c		 je	 SHORT $L99505
  000b0	3d 80 00 00 00	 cmp	 eax, 128		; 00000080H
  000b5	76 0b		 jbe	 SHORT $L99504
  000b7	51		 push	 ecx
  000b8	e8 00 00 00 00	 call	 ??3@YAXPAX@Z		; operator delete
  000bd	83 c4 04	 add	 esp, 4
  000c0	eb 0a		 jmp	 SHORT $L99505
$L99504:
  000c2	50		 push	 eax
  000c3	51		 push	 ecx
  000c4	e8 00 00 00 00	 call	 ?_M_deallocate@?$__node_alloc@$00$0A@@_STL@@CAXPAXI@Z ; _STL::__node_alloc<1,0>::_M_deallocate
  000c9	83 c4 08	 add	 esp, 8
$L99505:

; 84   :   return __tmp;

  000cc	8b 74 24 2c	 mov	 esi, DWORD PTR ___$ReturnUdt$[esp+36]
  000d0	8d 54 24 30	 lea	 edx, DWORD PTR ___tmp$[esp+36]
  000d4	52		 push	 edx
  000d5	8b ce		 mov	 ecx, esi
  000d7	e8 00 00 00 00	 call	 ??0locale@_STL@@QAE@ABV01@@Z ; _STL::locale::locale
  000dc	8d 4c 24 30	 lea	 ecx, DWORD PTR ___tmp$[esp+36]
  000e0	c7 44 24 0c 01
	00 00 00	 mov	 DWORD PTR $T99423[esp+40], 1
  000e8	c6 44 24 24 00	 mov	 BYTE PTR __$EHRec$[esp+48], 0
  000ed	e8 00 00 00 00	 call	 ??1locale@_STL@@QAE@XZ	; _STL::locale::~locale

; 85   : }

  000f2	8b 4c 24 1c	 mov	 ecx, DWORD PTR __$EHRec$[esp+40]
  000f6	5f		 pop	 edi
  000f7	8b c6		 mov	 eax, esi
  000f9	5e		 pop	 esi
  000fa	64 89 0d 00 00
	00 00		 mov	 DWORD PTR fs:__except_list, ecx
  00101	83 c4 20	 add	 esp, 32			; 00000020H
  00104	c2 08 00	 ret	 8
_TEXT	ENDS
;	COMDAT text$x
text$x	SEGMENT
$L99419:
  00000	8d 4d 08	 lea	 ecx, DWORD PTR ___tmp$[ebp-4]
  00003	e9 00 00 00 00	 jmp	 ??1locale@_STL@@QAE@XZ	; _STL::locale::~locale
$L99421:
  00008	8d 4d e8	 lea	 ecx, DWORD PTR $T99418[ebp]
  0000b	e9 00 00 00 00	 jmp	 ??1?$basic_string@DV?$char_traits@D@_STL@@V?$allocator@D@2@@_STL@@QAE@XZ ; _STL::basic_string<char,_STL::char_traits<char>,_STL::allocator<char> >::~basic_string<char,_STL::char_traits<char>,_STL::allocator<char> >
$L99422:
  00010	8b 45 e4	 mov	 eax, DWORD PTR $T99423[ebp]
  00013	83 e0 01	 and	 eax, 1
  00016	0f 84 0c 00 00
	00		 je	 $L99424
  0001c	83 65 e4 fe	 and	 DWORD PTR $T99423[ebp], -2 ; fffffffeH
  00020	8b 4d 04	 mov	 ecx, DWORD PTR ___$ReturnUdt$[ebp-4]
  00023	e9 00 00 00 00	 jmp	 ??1locale@_STL@@QAE@XZ	; _STL::locale::~locale
$L99424:
  00028	c3		 ret	 0
__ehhandler$?imbue@?$basic_ios@DV?$char_traits@D@_STL@@@_STL@@QAE?AVlocale@2@ABV32@@Z:
  00029	b8 00 00 00 00	 mov	 eax, OFFSET FLAT:$T99512
  0002e	e9 00 00 00 00	 jmp	 ___CxxFrameHandler
text$x	ENDS
?imbue@?$basic_ios@DV?$char_traits@D@_STL@@@_STL@@QAE?AVlocale@2@ABV32@@Z ENDP ; _STL::basic_ios<char,_STL::char_traits<char> >::imbue
PUBLIC	??0iovfs_base@@QAE@XZ				; iovfs_base::iovfs_base
;	COMDAT xdata$x
; File c:\darkeden\designed_common\project\client\virtualfilesystem\vfstream.inl
xdata$x	SEGMENT
$T99524	DD	0ffffffffH
	DD	FLAT:$L99520
$T99522	DD	019930520H
	DD	01H
	DD	FLAT:$T99524
	DD	2 DUP(00H)
	DD	2 DUP(00H)
; Function compile flags: /Ogty
xdata$x	ENDS
;	COMDAT ??0iovfs_base@@QAE@XZ
_TEXT	SEGMENT
_this$ = -16						; size = 4
__$EHRec$ = -12						; size = 12
??0iovfs_base@@QAE@XZ PROC NEAR				; iovfs_base::iovfs_base, COMDAT
; _this$ = ecx

; 11   : {

  00000	6a ff		 push	 -1
  00002	68 00 00 00 00	 push	 __ehhandler$??0iovfs_base@@QAE@XZ
  00007	64 a1 00 00 00
	00		 mov	 eax, DWORD PTR fs:__except_list
  0000d	50		 push	 eax
  0000e	64 89 25 00 00
	00 00		 mov	 DWORD PTR fs:__except_list, esp
  00015	51		 push	 ecx
  00016	56		 push	 esi
  00017	68 00 00 00 00	 push	 OFFSET FLAT:??1?$basic_string@DV?$char_traits@D@_STL@@V?$allocator@D@2@@_STL@@QAE@XZ ; _STL::basic_string<char,_STL::char_traits<char>,_STL::allocator<char> >::~basic_string<char,_STL::char_traits<char>,_STL::allocator<char> >
  0001c	68 00 00 00 00	 push	 OFFSET FLAT:??0?$basic_string@DV?$char_traits@D@_STL@@V?$allocator@D@2@@_STL@@QAE@XZ ; _STL::basic_string<char,_STL::char_traits<char>,_STL::allocator<char> >::basic_string<char,_STL::char_traits<char>,_STL::allocator<char> >
  00021	8b f1		 mov	 esi, ecx
  00023	6a 06		 push	 6
  00025	6a 0c		 push	 12			; 0000000cH
  00027	8d 46 08	 lea	 eax, DWORD PTR [esi+8]
  0002a	50		 push	 eax
  0002b	89 74 24 18	 mov	 DWORD PTR _this$[esp+40], esi
  0002f	c7 06 00 00 00
	00		 mov	 DWORD PTR [esi], OFFSET FLAT:??_7iovfs_base@@6B@
  00035	e8 00 00 00 00	 call	 ??_L@YGXPAXIHP6EX0@Z1@Z

; 12   : 	Init();

  0003a	8b ce		 mov	 ecx, esi
  0003c	c7 44 24 10 00
	00 00 00	 mov	 DWORD PTR __$EHRec$[esp+28], 0
  00044	e8 00 00 00 00	 call	 ?Init@iovfs_base@@QAEXXZ ; iovfs_base::Init

; 13   : }

  00049	8b 4c 24 08	 mov	 ecx, DWORD PTR __$EHRec$[esp+20]
  0004d	8b c6		 mov	 eax, esi
  0004f	5e		 pop	 esi
  00050	64 89 0d 00 00
	00 00		 mov	 DWORD PTR fs:__except_list, ecx
  00057	83 c4 10	 add	 esp, 16			; 00000010H
  0005a	c3		 ret	 0
_TEXT	ENDS
;	COMDAT text$x
text$x	SEGMENT
$L99520:
  00000	68 00 00 00 00	 push	 OFFSET FLAT:??1?$basic_string@DV?$char_traits@D@_STL@@V?$allocator@D@2@@_STL@@QAE@XZ ; _STL::basic_string<char,_STL::char_traits<char>,_STL::allocator<char> >::~basic_string<char,_STL::char_traits<char>,_STL::allocator<char> >
  00005	6a 06		 push	 6
  00007	6a 0c		 push	 12			; 0000000cH
  00009	8b 45 f0	 mov	 eax, DWORD PTR _this$[ebp]
  0000c	83 c0 08	 add	 eax, 8
  0000f	50		 push	 eax
  00010	e8 00 00 00 00	 call	 ??_M@YGXPAXIHP6EX0@Z@Z
  00015	c3		 ret	 0
__ehhandler$??0iovfs_base@@QAE@XZ:
  00016	b8 00 00 00 00	 mov	 eax, OFFSET FLAT:$T99522
  0001b	e9 00 00 00 00	 jmp	 ___CxxFrameHandler
text$x	ENDS
??0iovfs_base@@QAE@XZ ENDP				; iovfs_base::iovfs_base
PUBLIC	??0ivfstream@@QAE@PBDH@Z			; ivfstream::ivfstream
;	COMDAT xdata$x
xdata$x	SEGMENT
$T99537	DD	0ffffffffH
	DD	FLAT:$L99530
$T99535	DD	019930520H
	DD	01H
	DD	FLAT:$T99537
	DD	2 DUP(00H)
	DD	2 DUP(00H)
; Function compile flags: /Ogty
xdata$x	ENDS
;	COMDAT ??0ivfstream@@QAE@PBDH@Z
_TEXT	SEGMENT
_this$ = -16						; size = 4
__$EHRec$ = -12						; size = 12
_szName$ = 8						; size = 4
_nMode$ = 12						; size = 4
??0ivfstream@@QAE@PBDH@Z PROC NEAR			; ivfstream::ivfstream, COMDAT
; _this$ = ecx

; 65   : {

  00000	6a ff		 push	 -1
  00002	68 00 00 00 00	 push	 __ehhandler$??0ivfstream@@QAE@PBDH@Z
  00007	64 a1 00 00 00
	00		 mov	 eax, DWORD PTR fs:__except_list
  0000d	50		 push	 eax
  0000e	64 89 25 00 00
	00 00		 mov	 DWORD PTR fs:__except_list, esp
  00015	51		 push	 ecx
  00016	56		 push	 esi
  00017	8b f1		 mov	 esi, ecx
  00019	89 74 24 04	 mov	 DWORD PTR _this$[esp+20], esi
  0001d	e8 00 00 00 00	 call	 ??0iovfs_base@@QAE@XZ	; iovfs_base::iovfs_base

; 66   : 	open(szName, nMode);

  00022	8b 44 24 1c	 mov	 eax, DWORD PTR _nMode$[esp+16]
  00026	8b 4c 24 18	 mov	 ecx, DWORD PTR _szName$[esp+16]
  0002a	83 c8 08	 or	 eax, 8
  0002d	50		 push	 eax
  0002e	51		 push	 ecx
  0002f	8b ce		 mov	 ecx, esi
  00031	c7 44 24 18 00
	00 00 00	 mov	 DWORD PTR __$EHRec$[esp+36], 0
  00039	c7 06 00 00 00
	00		 mov	 DWORD PTR [esi], OFFSET FLAT:??_7ivfstream@@6B@
  0003f	e8 00 00 00 00	 call	 ?open@iovfs_base@@UAEXPBDH@Z ; iovfs_base::open

; 67   : }

  00044	8b 4c 24 08	 mov	 ecx, DWORD PTR __$EHRec$[esp+20]
  00048	8b c6		 mov	 eax, esi
  0004a	5e		 pop	 esi
  0004b	64 89 0d 00 00
	00 00		 mov	 DWORD PTR fs:__except_list, ecx
  00052	83 c4 10	 add	 esp, 16			; 00000010H
  00055	c2 08 00	 ret	 8
_TEXT	ENDS
;	COMDAT text$x
text$x	SEGMENT
$L99530:
  00000	8b 4d f0	 mov	 ecx, DWORD PTR _this$[ebp]
  00003	e9 00 00 00 00	 jmp	 ??1iovfs_base@@UAE@XZ	; iovfs_base::~iovfs_base
__ehhandler$??0ivfstream@@QAE@PBDH@Z:
  00008	b8 00 00 00 00	 mov	 eax, OFFSET FLAT:$T99535
  0000d	e9 00 00 00 00	 jmp	 ___CxxFrameHandler
text$x	ENDS
??0ivfstream@@QAE@PBDH@Z ENDP				; ivfstream::ivfstream
PUBLIC	?Open@C_FRR@@QAE_NPBD@Z				; C_FRR::Open
;	COMDAT xdata$x
xdata$x	SEGMENT
$T99570	DD	0ffffffffH
	DD	FLAT:$L99544
$T99567	DD	019930520H
	DD	01H
	DD	FLAT:$T99570
	DD	2 DUP(00H)
	DD	2 DUP(00H)
; Function compile flags: /Ogty
; File c:\darkeden\designed_common\project\new - vs_ui\src\vs_ui_util.cpp
xdata$x	ENDS
;	COMDAT ?Open@C_FRR@@QAE_NPBD@Z
_TEXT	SEGMENT
_file$ = -92						; size = 80
__$EHRec$ = -12						; size = 12
_sz_filename$ = 8					; size = 4
?Open@C_FRR@@QAE_NPBD@Z PROC NEAR			; C_FRR::Open, COMDAT
; _this$ = ecx

; 616  : {

  00000	64 a1 00 00 00
	00		 mov	 eax, DWORD PTR fs:__except_list
  00006	6a ff		 push	 -1
  00008	68 00 00 00 00	 push	 __ehhandler$?Open@C_FRR@@QAE_NPBD@Z
  0000d	50		 push	 eax
  0000e	64 89 25 00 00
	00 00		 mov	 DWORD PTR fs:__except_list, esp
  00015	83 ec 50	 sub	 esp, 80			; 00000050H
  00018	53		 push	 ebx

; 617  : 	if (!sz_filename)

  00019	8b 5c 24 64	 mov	 ebx, DWORD PTR _sz_filename$[esp+92]
  0001d	85 db		 test	 ebx, ebx
  0001f	56		 push	 esi
  00020	8b f1		 mov	 esi, ecx
  00022	75 15		 jne	 SHORT $L89307
  00024	5e		 pop	 esi

; 618  : 		return false;

  00025	32 c0		 xor	 al, al
  00027	5b		 pop	 ebx

; 631  : }

  00028	8b 4c 24 50	 mov	 ecx, DWORD PTR __$EHRec$[esp+92]
  0002c	64 89 0d 00 00
	00 00		 mov	 DWORD PTR fs:__except_list, ecx
  00033	83 c4 5c	 add	 esp, 92			; 0000005cH
  00036	c2 04 00	 ret	 4
$L89307:

; 619  : 
; 620  : 	//  load release.
; 621  : 	if (m_C_frame_array.GetSize() > 0)

  00039	66 83 3e 00	 cmp	 WORD PTR [esi], 0
  0003d	76 1c		 jbe	 SHORT $L99554

; 622  : 		m_C_frame_array.Release();

  0003f	8b 46 04	 mov	 eax, DWORD PTR [esi+4]
  00042	85 c0		 test	 eax, eax
  00044	74 15		 je	 SHORT $L99554
  00046	50		 push	 eax
  00047	e8 00 00 00 00	 call	 ??_V@YAXPAX@Z		; operator delete[]
  0004c	83 c4 04	 add	 esp, 4
  0004f	c7 46 04 00 00
	00 00		 mov	 DWORD PTR [esi+4], 0
  00056	66 c7 06 00 00	 mov	 WORD PTR [esi], 0
$L99554:

; 623  : 
; 624  : 	//if (access(sz_filename, 0)) _Error(FILE_OPEN);
; 625  : 	ivfstream file(sz_filename, std::ios::binary);

  0005b	6a 04		 push	 4
  0005d	53		 push	 ebx
  0005e	8d 4c 24 10	 lea	 ecx, DWORD PTR _file$[esp+108]
  00062	e8 00 00 00 00	 call	 ??0ivfstream@@QAE@PBDH@Z ; ivfstream::ivfstream

; 626  : 	if(!file.is_open()) _Error(FILE_OPEN);

  00067	8b 4c 24 0c	 mov	 ecx, DWORD PTR _file$[esp+104]
  0006b	85 c9		 test	 ecx, ecx
  0006d	c7 44 24 60 00
	00 00 00	 mov	 DWORD PTR __$EHRec$[esp+108], 0
  00075	74 09		 je	 SHORT $L99560
  00077	8b 01		 mov	 eax, DWORD PTR [ecx]
  00079	ff 50 0c	 call	 DWORD PTR [eax+12]
  0007c	84 c0		 test	 al, al
  0007e	75 16		 jne	 SHORT $L89310
$L99560:
  00080	68 72 02 00 00	 push	 626			; 00000272H
  00085	68 00 00 00 00	 push	 OFFSET FLAT:??_C@_0EB@GFEIDDHE@?2darkeden?2Designed_Common?2Projec@
  0008a	6a 00		 push	 0
  0008c	6a 02		 push	 2
  0008e	e8 00 00 00 00	 call	 ?g_BasicException@@YAXW4EXCEPTION_CODE@@PAD1K@Z ; g_BasicException
  00093	83 c4 10	 add	 esp, 16			; 00000010H
$L89310:

; 627  : 	m_C_frame_array.LoadFromFile(file);

  00096	8d 4c 24 08	 lea	 ecx, DWORD PTR _file$[esp+100]
  0009a	51		 push	 ecx
  0009b	8b ce		 mov	 ecx, esi
  0009d	e8 00 00 00 00	 call	 ?LoadFromFile@?$TArray@VCFrame@@G@@QAE_NAAVivfstream@@@Z ; TArray<CFrame,unsigned short>::LoadFromFile

; 628  : 	file.close();

  000a2	8d 4c 24 08	 lea	 ecx, DWORD PTR _file$[esp+100]
  000a6	e8 00 00 00 00	 call	 ?close@iovfs_base@@QAEXXZ ; iovfs_base::close

; 629  : 
; 630  : 	return true;

  000ab	8d 4c 24 08	 lea	 ecx, DWORD PTR _file$[esp+100]
  000af	c7 44 24 60 ff
	ff ff ff	 mov	 DWORD PTR __$EHRec$[esp+108], -1
  000b7	c7 44 24 08 00
	00 00 00	 mov	 DWORD PTR _file$[esp+100], OFFSET FLAT:??_7ivfstream@@6B@
  000bf	e8 00 00 00 00	 call	 ??1iovfs_base@@UAE@XZ	; iovfs_base::~iovfs_base

; 631  : }

  000c4	8b 4c 24 58	 mov	 ecx, DWORD PTR __$EHRec$[esp+100]
  000c8	5e		 pop	 esi
  000c9	b0 01		 mov	 al, 1
  000cb	5b		 pop	 ebx
  000cc	64 89 0d 00 00
	00 00		 mov	 DWORD PTR fs:__except_list, ecx
  000d3	83 c4 5c	 add	 esp, 92			; 0000005cH
  000d6	c2 04 00	 ret	 4
_TEXT	ENDS
;	COMDAT text$x
text$x	SEGMENT
$L99544:
  00000	8d 4d a4	 lea	 ecx, DWORD PTR _file$[ebp]
  00003	e9 00 00 00 00	 jmp	 ??1ivfstream@@UAE@XZ	; ivfstream::~ivfstream
__ehhandler$?Open@C_FRR@@QAE_NPBD@Z:
  00008	b8 00 00 00 00	 mov	 eax, OFFSET FLAT:$T99567
  0000d	e9 00 00 00 00	 jmp	 ___CxxFrameHandler
text$x	ENDS
?Open@C_FRR@@QAE_NPBD@Z ENDP				; C_FRR::Open
PUBLIC	?Open@C_SPRITE_FRAME@@QAE_NPBD@Z		; C_SPRITE_FRAME::Open
;	COMDAT xdata$x
; File c:\darkeden\designed_common\project\client\virtualfilesystem\vfstream.inl
xdata$x	SEGMENT
$T99608	DD	0ffffffffH
	DD	FLAT:$L99578
$T99605	DD	019930520H
	DD	01H
	DD	FLAT:$T99608
	DD	2 DUP(00H)
	DD	2 DUP(00H)
; Function compile flags: /Ogty
; File c:\darkeden\designed_common\project\new - vs_ui\src\vs_ui_util.cpp
xdata$x	ENDS
;	COMDAT ?Open@C_SPRITE_FRAME@@QAE_NPBD@Z
_TEXT	SEGMENT
_file$ = -92						; size = 80
__$EHRec$ = -12						; size = 12
_pathfile$ = 8						; size = 4
?Open@C_SPRITE_FRAME@@QAE_NPBD@Z PROC NEAR		; C_SPRITE_FRAME::Open, COMDAT
; _this$ = ecx

; 1302 : {

  00000	6a ff		 push	 -1
  00002	68 00 00 00 00	 push	 __ehhandler$?Open@C_SPRITE_FRAME@@QAE_NPBD@Z
  00007	64 a1 00 00 00
	00		 mov	 eax, DWORD PTR fs:__except_list
  0000d	50		 push	 eax
  0000e	64 89 25 00 00
	00 00		 mov	 DWORD PTR fs:__except_list, esp
  00015	83 ec 50	 sub	 esp, 80			; 00000050H

; 1303 : 	//if (access(pathfile, 0)) return false;
; 1304 : 	
; 1305 : 	ivfstream file(pathfile, std::ios::binary);

  00018	8b 44 24 60	 mov	 eax, DWORD PTR _pathfile$[esp+88]
  0001c	56		 push	 esi
  0001d	6a 04		 push	 4
  0001f	8b f1		 mov	 esi, ecx
  00021	50		 push	 eax
  00022	8d 4c 24 0c	 lea	 ecx, DWORD PTR _file$[esp+104]
  00026	e8 00 00 00 00	 call	 ??0ivfstream@@QAE@PBDH@Z ; ivfstream::ivfstream

; 1306 : 
; 1307 : 	if(!file.is_open()) return false;

  0002b	8b 4c 24 08	 mov	 ecx, DWORD PTR _file$[esp+100]
  0002f	85 c9		 test	 ecx, ecx
  00031	c7 44 24 5c 00
	00 00 00	 mov	 DWORD PTR __$EHRec$[esp+104], 0
  00039	74 09		 je	 SHORT $L99584
  0003b	8b 11		 mov	 edx, DWORD PTR [ecx]
  0003d	ff 52 0c	 call	 DWORD PTR [edx+12]
  00040	84 c0		 test	 al, al
  00042	75 2d		 jne	 SHORT $L89583
$L99584:
  00044	8d 4c 24 04	 lea	 ecx, DWORD PTR _file$[esp+96]
  00048	c7 44 24 5c ff
	ff ff ff	 mov	 DWORD PTR __$EHRec$[esp+104], -1
  00050	c7 44 24 04 00
	00 00 00	 mov	 DWORD PTR _file$[esp+96], OFFSET FLAT:??_7ivfstream@@6B@
  00058	e8 00 00 00 00	 call	 ??1iovfs_base@@UAE@XZ	; iovfs_base::~iovfs_base
  0005d	32 c0		 xor	 al, al
  0005f	5e		 pop	 esi

; 1315 : }

  00060	8b 4c 24 50	 mov	 ecx, DWORD PTR __$EHRec$[esp+92]
  00064	64 89 0d 00 00
	00 00		 mov	 DWORD PTR fs:__except_list, ecx
  0006b	83 c4 5c	 add	 esp, 92			; 0000005cH
  0006e	c2 04 00	 ret	 4
$L89583:

; 1308 : 
; 1309 : 	file.read((char *)&m_rx, sizeof(m_rx));

  00071	8b 4c 24 08	 mov	 ecx, DWORD PTR _file$[esp+100]
  00075	85 c9		 test	 ecx, ecx
  00077	74 1b		 je	 SHORT $L99597
  00079	8b 01		 mov	 eax, DWORD PTR [ecx]
  0007b	6a 04		 push	 4
  0007d	56		 push	 esi
  0007e	ff 50 10	 call	 DWORD PTR [eax+16]

; 1310 : 	file.read((char *)&m_ry, sizeof(m_ry));

  00081	8b 4c 24 08	 mov	 ecx, DWORD PTR _file$[esp+100]
  00085	85 c9		 test	 ecx, ecx
  00087	74 0b		 je	 SHORT $L99597
  00089	8b 11		 mov	 edx, DWORD PTR [ecx]
  0008b	6a 04		 push	 4
  0008d	83 c6 04	 add	 esi, 4
  00090	56		 push	 esi
  00091	ff 52 10	 call	 DWORD PTR [edx+16]
$L99597:

; 1311 : 
; 1312 : 	file.close();

  00094	8d 4c 24 04	 lea	 ecx, DWORD PTR _file$[esp+96]
  00098	e8 00 00 00 00	 call	 ?close@iovfs_base@@QAEXXZ ; iovfs_base::close

; 1313 : 
; 1314 : 	return true;

  0009d	8d 4c 24 04	 lea	 ecx, DWORD PTR _file$[esp+96]
  000a1	c7 44 24 5c ff
	ff ff ff	 mov	 DWORD PTR __$EHRec$[esp+104], -1
  000a9	c7 44 24 04 00
	00 00 00	 mov	 DWORD PTR _file$[esp+96], OFFSET FLAT:??_7ivfstream@@6B@
  000b1	e8 00 00 00 00	 call	 ??1iovfs_base@@UAE@XZ	; iovfs_base::~iovfs_base

; 1315 : }

  000b6	8b 4c 24 54	 mov	 ecx, DWORD PTR __$EHRec$[esp+96]
  000ba	b0 01		 mov	 al, 1
  000bc	5e		 pop	 esi
  000bd	64 89 0d 00 00
	00 00		 mov	 DWORD PTR fs:__except_list, ecx
  000c4	83 c4 5c	 add	 esp, 92			; 0000005cH
  000c7	c2 04 00	 ret	 4
_TEXT	ENDS
;	COMDAT text$x
text$x	SEGMENT
$L99578:
  00000	8d 4d a4	 lea	 ecx, DWORD PTR _file$[ebp]
  00003	e9 00 00 00 00	 jmp	 ??1ivfstream@@UAE@XZ	; ivfstream::~ivfstream
__ehhandler$?Open@C_SPRITE_FRAME@@QAE_NPBD@Z:
  00008	b8 00 00 00 00	 mov	 eax, OFFSET FLAT:$T99605
  0000d	e9 00 00 00 00	 jmp	 ___CxxFrameHandler
text$x	ENDS
?Open@C_SPRITE_FRAME@@QAE_NPBD@Z ENDP			; C_SPRITE_FRAME::Open
PUBLIC	?init@?$basic_ios@DV?$char_traits@D@_STL@@@_STL@@IAEXPAV?$basic_streambuf@DV?$char_traits@D@_STL@@@2@@Z ; _STL::basic_ios<char,_STL::char_traits<char> >::init
;	COMDAT xdata$x
; File c:\stlport-4.6.1\stlport\stl\_ios.h
xdata$x	SEGMENT
$T99703	DD	0ffffffffH
	DD	FLAT:$L99616
$T99701	DD	019930520H
	DD	01H
	DD	FLAT:$T99703
	DD	2 DUP(00H)
	DD	2 DUP(00H)
; Function compile flags: /Ogty
; File c:\stlport-4.6.1\stlport\stl\_ios.c
xdata$x	ENDS
;	COMDAT ?init@?$basic_ios@DV?$char_traits@D@_STL@@@_STL@@IAEXPAV?$basic_streambuf@DV?$char_traits@D@_STL@@@2@@Z
_TEXT	SEGMENT
$T99614 = -16						; size = 4
__$EHRec$ = -12						; size = 12
$T99615 = 8						; size = 4
___sb$ = 8						; size = 4
?init@?$basic_ios@DV?$char_traits@D@_STL@@@_STL@@IAEXPAV?$basic_streambuf@DV?$char_traits@D@_STL@@@2@@Z PROC NEAR ; _STL::basic_ios<char,_STL::char_traits<char> >::init, COMDAT
; _this$ = ecx

; 100  : {

  00000	6a ff		 push	 -1
  00002	68 00 00 00 00	 push	 __ehhandler$?init@?$basic_ios@DV?$char_traits@D@_STL@@@_STL@@IAEXPAV?$basic_streambuf@DV?$char_traits@D@_STL@@@2@@Z
  00007	64 a1 00 00 00
	00		 mov	 eax, DWORD PTR fs:__except_list
  0000d	50		 push	 eax
  0000e	64 89 25 00 00
	00 00		 mov	 DWORD PTR fs:__except_list, esp
  00015	51		 push	 ecx
  00016	53		 push	 ebx
  00017	56		 push	 esi

; 101  :   this->rdbuf(__sb);

  00018	33 c0		 xor	 eax, eax
  0001a	57		 push	 edi
  0001b	8b 7c 24 20	 mov	 edi, DWORD PTR ___sb$[esp+24]
  0001f	33 db		 xor	 ebx, ebx
  00021	3b fb		 cmp	 edi, ebx
  00023	0f 94 c0	 sete	 al
  00026	8b f1		 mov	 esi, ecx
  00028	8b 4e 14	 mov	 ecx, DWORD PTR [esi+20]
  0002b	89 7e 58	 mov	 DWORD PTR [esi+88], edi
  0002e	85 c8		 test	 ecx, eax
  00030	89 46 08	 mov	 DWORD PTR [esi+8], eax
  00033	74 07		 je	 SHORT $L99657
  00035	8b ce		 mov	 ecx, esi
  00037	e8 00 00 00 00	 call	 ?_M_throw_failure@ios_base@_STL@@IAEXXZ ; _STL::ios_base::_M_throw_failure
$L99657:

; 102  :   this->imbue(locale());

  0003c	8d 4c 24 0c	 lea	 ecx, DWORD PTR $T99614[esp+28]
  00040	e8 00 00 00 00	 call	 ??0locale@_STL@@QAE@XZ	; _STL::locale::locale
  00045	50		 push	 eax
  00046	8d 44 24 24	 lea	 eax, DWORD PTR $T99615[esp+28]
  0004a	50		 push	 eax
  0004b	8b ce		 mov	 ecx, esi
  0004d	89 5c 24 20	 mov	 DWORD PTR __$EHRec$[esp+44], ebx
  00051	e8 00 00 00 00	 call	 ?imbue@?$basic_ios@DV?$char_traits@D@_STL@@@_STL@@QAE?AVlocale@2@ABV32@@Z ; _STL::basic_ios<char,_STL::char_traits<char> >::imbue
  00056	8d 4c 24 20	 lea	 ecx, DWORD PTR $T99615[esp+24]
  0005a	e8 00 00 00 00	 call	 ??1locale@_STL@@QAE@XZ	; _STL::locale::~locale
  0005f	8d 4c 24 0c	 lea	 ecx, DWORD PTR $T99614[esp+28]
  00063	c7 44 24 18 ff
	ff ff ff	 mov	 DWORD PTR __$EHRec$[esp+36], -1
  0006b	e8 00 00 00 00	 call	 ??1locale@_STL@@QAE@XZ	; _STL::locale::~locale

; 103  :   this->tie(0);
; 104  :   this->_M_set_exception_mask(ios_base::goodbit);
; 105  :   this->_M_clear_nothrow(__sb != 0 ? ios_base::goodbit : ios_base::badbit);

  00070	33 c9		 xor	 ecx, ecx
  00072	3b fb		 cmp	 edi, ebx
  00074	0f 94 c1	 sete	 cl
  00077	89 5e 5c	 mov	 DWORD PTR [esi+92], ebx
  0007a	89 5e 14	 mov	 DWORD PTR [esi+20], ebx

; 106  :   ios_base::flags(ios_base::skipws | ios_base::dec);

  0007d	c7 46 04 08 10
	00 00		 mov	 DWORD PTR [esi+4], 4104	; 00001008H

; 107  :   ios_base::width(0);

  00084	89 5e 1c	 mov	 DWORD PTR [esi+28], ebx

; 108  :   ios_base::precision(6);

  00087	c7 46 18 06 00
	00 00		 mov	 DWORD PTR [esi+24], 6

; 109  :   this->fill(widen(' '));

  0008e	6a 20		 push	 32			; 00000020H
  00090	89 4e 08	 mov	 DWORD PTR [esi+8], ecx
  00093	8b 4e 40	 mov	 ecx, DWORD PTR [esi+64]
  00096	8b 11		 mov	 edx, DWORD PTR [ecx]
  00098	ff 52 18	 call	 DWORD PTR [edx+24]

; 110  :   // We don't need to worry about any of the three arrays: they are
; 111  :   // initialized correctly in ios_base's constructor.
; 112  : }

  0009b	8b 4c 24 10	 mov	 ecx, DWORD PTR __$EHRec$[esp+28]
  0009f	5f		 pop	 edi
  000a0	88 46 54	 mov	 BYTE PTR [esi+84], al
  000a3	5e		 pop	 esi
  000a4	5b		 pop	 ebx
  000a5	64 89 0d 00 00
	00 00		 mov	 DWORD PTR fs:__except_list, ecx
  000ac	83 c4 10	 add	 esp, 16			; 00000010H
  000af	c2 04 00	 ret	 4
_TEXT	ENDS
;	COMDAT text$x
text$x	SEGMENT
$L99616:
  00000	8d 4d f0	 lea	 ecx, DWORD PTR $T99614[ebp]
  00003	e9 00 00 00 00	 jmp	 ??1locale@_STL@@QAE@XZ	; _STL::locale::~locale
__ehhandler$?init@?$basic_ios@DV?$char_traits@D@_STL@@@_STL@@IAEXPAV?$basic_streambuf@DV?$char_traits@D@_STL@@@2@@Z:
  00008	b8 00 00 00 00	 mov	 eax, OFFSET FLAT:$T99701
  0000d	e9 00 00 00 00	 jmp	 ___CxxFrameHandler
text$x	ENDS
?init@?$basic_ios@DV?$char_traits@D@_STL@@@_STL@@IAEXPAV?$basic_streambuf@DV?$char_traits@D@_STL@@@2@@Z ENDP ; _STL::basic_ios<char,_STL::char_traits<char> >::init
PUBLIC	?insert_unique@?$_Rb_tree@GU?$pair@$$CBGPAVivfstream@@@_STL@@U?$_Select1st@U?$pair@$$CBGPAVivfstream@@@_STL@@@2@U?$less@G@2@V?$allocator@U?$pair@$$CBGPAVivfstream@@@_STL@@@2@@_STL@@QAE?AU?$pair@U?$_Rb_tree_iterator@U?$pair@$$CBGPAVivfstream@@@_STL@@U?$_Nonconst_traits@U?$pair@$$CBGPAVivfstream@@@_STL@@@2@@_STL@@_N@2@ABU?$pair@$$CBGPAVivfstream@@@2@@Z ; _STL::_Rb_tree<unsigned short,_STL::pair<unsigned short const ,ivfstream *>,_STL::_Select1st<_STL::pair<unsigned short const ,ivfstream *> >,_STL::less<unsigned short>,_STL::allocator<_STL::pair<unsigned short const ,ivfstream *> > >::insert_unique
;	COMDAT xdata$x
; File c:\darkeden\designed_common\project\client\virtualfilesystem\vfstream.inl
xdata$x	SEGMENT
$T100013 DD	0ffffffffH
	DD	FLAT:$L99726
$T99995	DD	019930520H
	DD	01H
	DD	FLAT:$T100013
	DD	2 DUP(00H)
	DD	2 DUP(00H)
; Function compile flags: /Ogty
; File c:\darkeden\designed_common\project\client\spritelib\ctypepack.h
xdata$x	ENDS
;	COMDAT ?Get@?$CTypePack2@VCSprite@@VCSprite555@@VCSprite565@@@@UAEAAVCSprite@@G@Z
_TEXT	SEGMENT
$T99710 = -304						; size = 2
_pos$90183 = -304					; size = 4
_unitSize$90210 = -300					; size = 2
_fileIdx$90148 = -296					; size = 4
$T99723 = -292						; size = 8
$T99713 = -292						; size = 4
tv485 = -284						; size = 4
$T99725 = -284						; size = 8
_fileName$90205 = -276					; size = 260
__$ArrayPad$ = -16					; size = 4
__$EHRec$ = -12						; size = 12
__$ReturnAddr$ = 4					; size = 4
_n$ = 8							; size = 2
?Get@?$CTypePack2@VCSprite@@VCSprite555@@VCSprite565@@@@UAEAAVCSprite@@G@Z PROC NEAR ; CTypePack2<CSprite,CSprite555,CSprite565>::Get, COMDAT
; _this$ = ecx

; 936  : {

  00000	6a ff		 push	 -1
  00002	68 00 00 00 00	 push	 __ehhandler$?Get@?$CTypePack2@VCSprite@@VCSprite555@@VCSprite565@@@@UAEAAVCSprite@@G@Z
  00007	64 a1 00 00 00
	00		 mov	 eax, DWORD PTR fs:__except_list
  0000d	50		 push	 eax
  0000e	64 89 25 00 00
	00 00		 mov	 DWORD PTR fs:__except_list, esp
  00015	81 ec 24 01 00
	00		 sub	 esp, 292		; 00000124H
  0001b	a1 00 00 00 00	 mov	 eax, DWORD PTR ___security_cookie
  00020	53		 push	 ebx
  00021	55		 push	 ebp
  00022	56		 push	 esi
  00023	8b f1		 mov	 esi, ecx
  00025	89 84 24 2c 01
	00 00		 mov	 DWORD PTR __$ArrayPad$[esp+316], eax

; 937  : 	if(m_bRunningLoad && !m_pData[n].IsInit())

  0002c	8a 46 0a	 mov	 al, BYTE PTR [esi+10]
  0002f	84 c0		 test	 al, al
  00031	57		 push	 edi
  00032	0f 84 07 02 00
	00		 je	 $L100004
  00038	8b 84 24 44 01
	00 00		 mov	 eax, DWORD PTR _n$[esp+316]
  0003f	8b 4e 04	 mov	 ecx, DWORD PTR [esi+4]
  00042	0f b7 d8	 movzx	 ebx, ax
  00045	8b fb		 mov	 edi, ebx
  00047	c1 e7 04	 shl	 edi, 4
  0004a	8a 54 39 0c	 mov	 dl, BYTE PTR [ecx+edi+12]
  0004e	84 d2		 test	 dl, dl
  00050	89 7c 24 24	 mov	 DWORD PTR tv485[esp+320], edi
  00054	0f 85 e5 01 00
	00		 jne	 $L100004

; 938  : 	{
; 939  : 		// file  Sprite Load
; 940  : 		if(m_bSplitFile)

  0005a	8a 4e 14	 mov	 cl, BYTE PTR [esi+20]
  0005d	84 c9		 test	 cl, cl
  0005f	0f 84 b2 01 00
	00		 je	 $L90147

; 941  : 		{
; 942  : 			int fileIdx = GetSplitFile(n);

  00065	66 8b 4e 1c	 mov	 cx, WORD PTR [esi+28]
  00069	66 d3 e8	 shr	 ax, cl
  0006c	8b 4e 1c	 mov	 ecx, DWORD PTR [esi+28]

; 943  : 
; 944  : 			FILECACHE_MAP::iterator pos = m_FileCacheMap.find(fileIdx);

  0006f	8d 54 24 10	 lea	 edx, DWORD PTR $T99710[esp+320]
  00073	8d 7e 38	 lea	 edi, DWORD PTR [esi+56]
  00076	52		 push	 edx
  00077	d3 e0		 shl	 eax, cl
  00079	8b cf		 mov	 ecx, edi
  0007b	0f b7 e8	 movzx	 ebp, ax
  0007e	89 6c 24 1c	 mov	 DWORD PTR _fileIdx$90148[esp+324], ebp
  00082	89 6c 24 14	 mov	 DWORD PTR $T99710[esp+324], ebp
  00086	e8 00 00 00 00	 call	 ??$_M_find@G@?$_Rb_tree@GU?$pair@$$CBGPAVivfstream@@@_STL@@U?$_Select1st@U?$pair@$$CBGPAVivfstream@@@_STL@@@2@U?$less@G@2@V?$allocator@U?$pair@$$CBGPAVivfstream@@@_STL@@@2@@_STL@@ABEPAU?$_Rb_tree_node@U?$pair@$$CBGPAVivfstream@@@_STL@@@1@ABG@Z ; _STL::_Rb_tree<unsigned short,_STL::pair<unsigned short const ,ivfstream *>,_STL::_Select1st<_STL::pair<unsigned short const ,ivfstream *> >,_STL::less<unsigned short>,_STL::allocator<_STL::pair<unsigned short const ,ivfstream *> > >::_M_find<unsigned short>

; 945  : 
; 946  : 			ivfstream *pFile = NULL;
; 947  : 			
; 948  : 			//     .
; 949  : 			if(pos != m_FileCacheMap.end())

  0008b	3b 07		 cmp	 eax, DWORD PTR [edi]
  0008d	89 44 24 10	 mov	 DWORD PTR _pos$90183[esp+320], eax
  00091	74 05		 je	 SHORT $L90188

; 950  : 			{
; 951  : 				pFile = pos->second;

  00093	8b 78 14	 mov	 edi, DWORD PTR [eax+20]

; 952  : 			}
; 953  : 			//    .
; 954  : 			else

  00096	eb 49		 jmp	 SHORT $L90204
$L90188:

; 955  : 			{
; 956  : 				char fileName[MAX_PATH];
; 957  : 				GetSplitFile(n, fileName);

  00098	8d 44 24 2c	 lea	 eax, DWORD PTR _fileName$90205[esp+320]
  0009c	50		 push	 eax
  0009d	53		 push	 ebx
  0009e	8b ce		 mov	 ecx, esi
  000a0	e8 00 00 00 00	 call	 ?GetSplitFile@?$CTypePack2@VCSprite@@VCSprite555@@VCSprite565@@@@IAEHHPAD@Z ; CTypePack2<CSprite,CSprite555,CSprite565>::GetSplitFile

; 958  : 				pFile = new ivfstream(fileName, std::ios_base::binary);

  000a5	6a 50		 push	 80			; 00000050H
  000a7	e8 00 00 00 00	 call	 ??2@YAPAXI@Z		; operator new
  000ac	83 c4 04	 add	 esp, 4
  000af	89 44 24 1c	 mov	 DWORD PTR $T99713[esp+320], eax
  000b3	85 c0		 test	 eax, eax
  000b5	c7 84 24 3c 01
	00 00 00 00 00
	00		 mov	 DWORD PTR __$EHRec$[esp+328], 0
  000c0	74 10		 je	 SHORT $L99714
  000c2	6a 04		 push	 4
  000c4	8d 4c 24 30	 lea	 ecx, DWORD PTR _fileName$90205[esp+324]
  000c8	51		 push	 ecx
  000c9	8b c8		 mov	 ecx, eax
  000cb	e8 00 00 00 00	 call	 ??0ivfstream@@QAE@PBDH@Z ; ivfstream::ivfstream
  000d0	eb 02		 jmp	 SHORT $L99715
$L99714:
  000d2	33 c0		 xor	 eax, eax
$L99715:
  000d4	c7 84 24 3c 01
	00 00 ff ff ff
	ff		 mov	 DWORD PTR __$EHRec$[esp+328], -1
  000df	8b f8		 mov	 edi, eax
$L90204:

; 959  : 			}
; 960  : 
; 961  : 			WORD unitSize = 0;

  000e1	c7 44 24 14 00
	00 00 00	 mov	 DWORD PTR _unitSize$90210[esp+320], 0

; 962  : 
; 963  : 			pFile->seekg(0);

  000e9	8b 47 04	 mov	 eax, DWORD PTR [edi+4]
  000ec	85 c0		 test	 eax, eax
  000ee	74 20		 je	 SHORT $L99799
  000f0	8b c8		 mov	 ecx, eax
  000f2	8b 11		 mov	 edx, DWORD PTR [ecx]
  000f4	6a 01		 push	 1
  000f6	6a 00		 push	 0
  000f8	ff 52 18	 call	 DWORD PTR [edx+24]

; 964  : 			pFile->read((char *)&unitSize, 2);

  000fb	8b 47 04	 mov	 eax, DWORD PTR [edi+4]
  000fe	85 c0		 test	 eax, eax
  00100	74 0e		 je	 SHORT $L99799
  00102	8b c8		 mov	 ecx, eax
  00104	8b 01		 mov	 eax, DWORD PTR [ecx]
  00106	6a 02		 push	 2
  00108	8d 54 24 18	 lea	 edx, DWORD PTR _unitSize$90210[esp+324]
  0010c	52		 push	 edx
  0010d	ff 50 10	 call	 DWORD PTR [eax+16]
$L99799:

; 965  : 
; 966  : 			//    
; 967  : 			if(m_file_index)

  00110	8b 46 10	 mov	 eax, DWORD PTR [esi+16]
  00113	85 c0		 test	 eax, eax

; 968  : 			{
; 969  : 				//   .
; 970  : 				int offset = m_file_index[n] - m_file_index[fileIdx];
; 971  : 
; 972  : 				// 2   
; 973  : 				pFile->seekg(offset + 2);

  00115	8b 47 04	 mov	 eax, DWORD PTR [edi+4]
  00118	74 2d		 je	 SHORT $L90212
  0011a	85 c0		 test	 eax, eax
  0011c	74 17		 je	 SHORT $L99805
  0011e	8b 46 10	 mov	 eax, DWORD PTR [esi+16]
  00121	8b 1c 98	 mov	 ebx, DWORD PTR [eax+ebx*4]
  00124	2b 1c a8	 sub	 ebx, DWORD PTR [eax+ebp*4]
  00127	8b 4f 04	 mov	 ecx, DWORD PTR [edi+4]
  0012a	8b 11		 mov	 edx, DWORD PTR [ecx]
  0012c	6a 01		 push	 1
  0012e	83 c3 02	 add	 ebx, 2
  00131	53		 push	 ebx
  00132	ff 52 18	 call	 DWORD PTR [edx+24]
$L99805:

; 974  : 				
; 975  : 				m_pData[n].LoadFromFile(*pFile);

  00135	8b 46 04	 mov	 eax, DWORD PTR [esi+4]
  00138	8b 4c 24 24	 mov	 ecx, DWORD PTR tv485[esp+320]
  0013c	8b 14 01	 mov	 edx, DWORD PTR [ecx+eax]
  0013f	03 c8		 add	 ecx, eax
  00141	57		 push	 edi
  00142	ff 52 04	 call	 DWORD PTR [edx+4]

; 976  : 			}
; 977  : 			//    
; 978  : 			else

  00145	eb 48		 jmp	 SHORT $L100008
$L90212:

; 979  : 			{
; 980  : 				//    
; 981  : 				pFile->seekg(2);

  00147	85 c0		 test	 eax, eax
  00149	74 0c		 je	 SHORT $L99810
  0014b	8b 4f 04	 mov	 ecx, DWORD PTR [edi+4]
  0014e	8b 01		 mov	 eax, DWORD PTR [ecx]
  00150	6a 01		 push	 1
  00152	6a 02		 push	 2
  00154	ff 50 18	 call	 DWORD PTR [eax+24]
$L99810:

; 982  : 
; 983  : 				for(register int i = 0; i < unitSize && fileIdx + i < m_Size; ++i)

  00157	33 db		 xor	 ebx, ebx
  00159	66 39 5c 24 14	 cmp	 WORD PTR _unitSize$90210[esp+320], bx
  0015e	76 2f		 jbe	 SHORT $L100008
  00160	c1 e5 04	 shl	 ebp, 4
$L90216:
  00163	8b 4c 24 18	 mov	 ecx, DWORD PTR _fileIdx$90148[esp+320]
  00167	0f b7 46 08	 movzx	 eax, WORD PTR [esi+8]
  0016b	8d 14 0b	 lea	 edx, DWORD PTR [ebx+ecx]
  0016e	3b d0		 cmp	 edx, eax
  00170	7d 19		 jge	 SHORT $L100003

; 984  : 				{
; 985  : 					m_pData[fileIdx + i].LoadFromFile(*pFile);

  00172	8b 4e 04	 mov	 ecx, DWORD PTR [esi+4]
  00175	8b 14 29	 mov	 edx, DWORD PTR [ecx+ebp]
  00178	03 cd		 add	 ecx, ebp
  0017a	57		 push	 edi
  0017b	ff 52 04	 call	 DWORD PTR [edx+4]
  0017e	0f b7 44 24 14	 movzx	 eax, WORD PTR _unitSize$90210[esp+320]
  00183	43		 inc	 ebx
  00184	83 c5 10	 add	 ebp, 16			; 00000010H
  00187	3b d8		 cmp	 ebx, eax
  00189	7c d8		 jl	 SHORT $L90216
$L100003:

; 982  : 
; 983  : 				for(register int i = 0; i < unitSize && fileIdx + i < m_Size; ++i)

  0018b	8b 6c 24 18	 mov	 ebp, DWORD PTR _fileIdx$90148[esp+320]
$L100008:

; 986  : 				}
; 987  : 			}
; 988  : 
; 989  : 			bool bLoadComplete = true;
; 990  : 			
; 991  : 			for(register int i = 0; i < unitSize && fileIdx + i < m_Size; ++i)

  0018f	0f b7 54 24 14	 movzx	 edx, WORD PTR _unitSize$90210[esp+320]
  00194	33 c9		 xor	 ecx, ecx
  00196	85 d2		 test	 edx, edx
  00198	7e 2e		 jle	 SHORT $L100006
  0019a	0f b7 5e 08	 movzx	 ebx, WORD PTR [esi+8]
  0019e	8b c5		 mov	 eax, ebp
  001a0	c1 e0 04	 shl	 eax, 4
  001a3	eb 0b		 jmp	 SHORT $L90221
$L100005:
  001a5	8b 6c 24 18	 mov	 ebp, DWORD PTR _fileIdx$90148[esp+320]
  001a9	8d a4 24 00 00
	00 00		 npad	 7
$L90221:
  001b0	03 e9		 add	 ebp, ecx
  001b2	3b eb		 cmp	 ebp, ebx
  001b4	7d 12		 jge	 SHORT $L100006

; 992  : 			{
; 993  : 				if(!m_pData[fileIdx + i].IsInit())

  001b6	8b 6e 04	 mov	 ebp, DWORD PTR [esi+4]
  001b9	80 7c 28 0c 00	 cmp	 BYTE PTR [eax+ebp+12], 0
  001be	74 2a		 je	 SHORT $L90225
  001c0	41		 inc	 ecx
  001c1	83 c0 10	 add	 eax, 16			; 00000010H
  001c4	3b ca		 cmp	 ecx, edx
  001c6	7c dd		 jl	 SHORT $L100005
$L100006:

; 994  : 				{
; 995  : 					bLoadComplete = false;
; 996  : 					break;
; 997  : 				}
; 998  : 			}
; 999  : 
; 1000 : 			if(bLoadComplete)
; 1001 : 			{
; 1002 : 				delete pFile;

  001c8	8b 17		 mov	 edx, DWORD PTR [edi]
  001ca	6a 01		 push	 1
  001cc	8b cf		 mov	 ecx, edi
  001ce	ff 12		 call	 DWORD PTR [edx]

; 1003 : 
; 1004 : 				if(pos != m_FileCacheMap.end())

  001d0	8b 44 24 10	 mov	 eax, DWORD PTR _pos$90183[esp+320]
  001d4	8b 56 38	 mov	 edx, DWORD PTR [esi+56]
  001d7	3b c2		 cmp	 eax, edx
  001d9	8d 4e 38	 lea	 ecx, DWORD PTR [esi+56]
  001dc	74 61		 je	 SHORT $L100004

; 1005 : 					m_FileCacheMap.erase(pos);

  001de	51		 push	 ecx
  001df	8b d4		 mov	 edx, esp
  001e1	89 02		 mov	 DWORD PTR [edx], eax
  001e3	e8 00 00 00 00	 call	 ?erase@?$_Rb_tree@GU?$pair@$$CBGPAVivfstream@@@_STL@@U?$_Select1st@U?$pair@$$CBGPAVivfstream@@@_STL@@@2@U?$less@G@2@V?$allocator@U?$pair@$$CBGPAVivfstream@@@_STL@@@2@@_STL@@QAEXU?$_Rb_tree_iterator@U?$pair@$$CBGPAVivfstream@@@_STL@@U?$_Nonconst_traits@U?$pair@$$CBGPAVivfstream@@@_STL@@@2@@2@@Z ; _STL::_Rb_tree<unsigned short,_STL::pair<unsigned short const ,ivfstream *>,_STL::_Select1st<_STL::pair<unsigned short const ,ivfstream *> >,_STL::less<unsigned short>,_STL::allocator<_STL::pair<unsigned short const ,ivfstream *> > >::erase

; 1006 : 			}
; 1007 : 			else

  001e8	eb 55		 jmp	 SHORT $L100004
$L90225:

; 1008 : 			{
; 1009 : 				if(pos == m_FileCacheMap.end())

  001ea	8b 44 24 10	 mov	 eax, DWORD PTR _pos$90183[esp+320]
  001ee	8b 56 38	 mov	 edx, DWORD PTR [esi+56]
  001f1	3b c2		 cmp	 eax, edx
  001f3	8d 4e 38	 lea	 ecx, DWORD PTR [esi+56]
  001f6	75 47		 jne	 SHORT $L100004

; 1010 : 					m_FileCacheMap.insert(FILECACHE_MAP::value_type(fileIdx, pFile));

  001f8	66 8b 54 24 18	 mov	 dx, WORD PTR _fileIdx$90148[esp+320]
  001fd	8d 44 24 1c	 lea	 eax, DWORD PTR $T99723[esp+320]
  00201	66 89 54 24 1c	 mov	 WORD PTR $T99723[esp+320], dx
  00206	50		 push	 eax
  00207	8d 54 24 28	 lea	 edx, DWORD PTR $T99725[esp+324]
  0020b	52		 push	 edx
  0020c	89 7c 24 28	 mov	 DWORD PTR $T99723[esp+332], edi
  00210	e8 00 00 00 00	 call	 ?insert_unique@?$_Rb_tree@GU?$pair@$$CBGPAVivfstream@@@_STL@@U?$_Select1st@U?$pair@$$CBGPAVivfstream@@@_STL@@@2@U?$less@G@2@V?$allocator@U?$pair@$$CBGPAVivfstream@@@_STL@@@2@@_STL@@QAE?AU?$pair@U?$_Rb_tree_iterator@U?$pair@$$CBGPAVivfstream@@@_STL@@U?$_Nonconst_traits@U?$pair@$$CBGPAVivfstream@@@_STL@@@2@@_STL@@_N@2@ABU?$pair@$$CBGPAVivfstream@@@2@@Z ; _STL::_Rb_tree<unsigned short,_STL::pair<unsigned short const ,ivfstream *>,_STL::_Select1st<_STL::pair<unsigned short const ,ivfstream *> >,_STL::less<unsigned short>,_STL::allocator<_STL::pair<unsigned short const ,ivfstream *> > >::insert_unique

; 1011 : 			}
; 1012 : 		}
; 1013 : 		else

  00215	eb 28		 jmp	 SHORT $L100004
$L90147:

; 1014 : 		{
; 1015 : 			m_file->seekg(m_file_index[n]);

  00217	8b 46 0c	 mov	 eax, DWORD PTR [esi+12]
  0021a	8b 48 04	 mov	 ecx, DWORD PTR [eax+4]
  0021d	85 c9		 test	 ecx, ecx
  0021f	74 0e		 je	 SHORT $L99990
  00221	8b 56 10	 mov	 edx, DWORD PTR [esi+16]
  00224	8b 14 9a	 mov	 edx, DWORD PTR [edx+ebx*4]
  00227	8b 01		 mov	 eax, DWORD PTR [ecx]
  00229	6a 01		 push	 1
  0022b	52		 push	 edx
  0022c	ff 50 18	 call	 DWORD PTR [eax+24]
$L99990:

; 1016 : 			m_pData[n].LoadFromFile(*m_file);	// Sprite 

  0022f	8b 46 04	 mov	 eax, DWORD PTR [esi+4]
  00232	8b 14 38	 mov	 edx, DWORD PTR [eax+edi]
  00235	8d 0c 38	 lea	 ecx, DWORD PTR [eax+edi]
  00238	8b 46 0c	 mov	 eax, DWORD PTR [esi+12]
  0023b	50		 push	 eax
  0023c	ff 52 04	 call	 DWORD PTR [edx+4]
$L100004:

; 1017 : 		}
; 1018 : 	}
; 1019 : 	
; 1020 : 	return m_pData[n];

  0023f	0f b7 84 24 44
	01 00 00	 movzx	 eax, WORD PTR _n$[esp+316]
  00247	8b 4e 04	 mov	 ecx, DWORD PTR [esi+4]
  0024a	c1 e0 04	 shl	 eax, 4
  0024d	03 c1		 add	 eax, ecx

; 1021 : }

  0024f	8b 8c 24 34 01
	00 00		 mov	 ecx, DWORD PTR __$EHRec$[esp+320]
  00256	64 89 0d 00 00
	00 00		 mov	 DWORD PTR fs:__except_list, ecx
  0025d	8b 8c 24 30 01
	00 00		 mov	 ecx, DWORD PTR __$ArrayPad$[esp+320]
  00264	e8 00 00 00 00	 call	 @__security_check_cookie@4
  00269	5f		 pop	 edi
  0026a	5e		 pop	 esi
  0026b	5d		 pop	 ebp
  0026c	5b		 pop	 ebx
  0026d	81 c4 30 01 00
	00		 add	 esp, 304		; 00000130H
  00273	c2 04 00	 ret	 4
_TEXT	ENDS
;	COMDAT text$x
text$x	SEGMENT
$L99726:
  00000	8b 85 dc fe ff
	ff		 mov	 eax, DWORD PTR $T99713[ebp]
  00006	50		 push	 eax
  00007	e8 00 00 00 00	 call	 ??3@YAXPAX@Z		; operator delete
  0000c	59		 pop	 ecx
  0000d	c3		 ret	 0
__ehhandler$?Get@?$CTypePack2@VCSprite@@VCSprite555@@VCSprite565@@@@UAEAAVCSprite@@G@Z:
  0000e	b8 00 00 00 00	 mov	 eax, OFFSET FLAT:$T99995
  00013	e9 00 00 00 00	 jmp	 ___CxxFrameHandler
text$x	ENDS
?Get@?$CTypePack2@VCSprite@@VCSprite555@@VCSprite565@@@@UAEAAVCSprite@@G@Z ENDP ; CTypePack2<CSprite,CSprite555,CSprite565>::Get
PUBLIC	?_M_insert@?$_Rb_tree@GU?$pair@$$CBGPAVivfstream@@@_STL@@U?$_Select1st@U?$pair@$$CBGPAVivfstream@@@_STL@@@2@U?$less@G@2@V?$allocator@U?$pair@$$CBGPAVivfstream@@@_STL@@@2@@_STL@@AAE?AU?$_Rb_tree_iterator@U?$pair@$$CBGPAVivfstream@@@_STL@@U?$_Nonconst_traits@U?$pair@$$CBGPAVivfstream@@@_STL@@@2@@2@PAU_Rb_tree_node_base@2@0ABU?$pair@$$CBGPAVivfstream@@@2@0@Z ; _STL::_Rb_tree<unsigned short,_STL::pair<unsigned short const ,ivfstream *>,_STL::_Select1st<_STL::pair<unsigned short const ,ivfstream *> >,_STL::less<unsigned short>,_STL::allocator<_STL::pair<unsigned short const ,ivfstream *> > >::_M_insert
EXTRN	?_M_decrement@?$_Rb_global@_N@_STL@@SAPAU_Rb_tree_node_base@2@PAU32@@Z:NEAR ; _STL::_Rb_global<bool>::_M_decrement
; Function compile flags: /Ogty
; File c:\stlport-4.6.1\stlport\stl\_tree.c
;	COMDAT ?insert_unique@?$_Rb_tree@GU?$pair@$$CBGPAVivfstream@@@_STL@@U?$_Select1st@U?$pair@$$CBGPAVivfstream@@@_STL@@@2@U?$less@G@2@V?$allocator@U?$pair@$$CBGPAVivfstream@@@_STL@@@2@@_STL@@QAE?AU?$pair@U?$_Rb_tree_iterator@U?$pair@$$CBGPAVivfstream@@@_STL@@U?$_Nonconst_traits@U?$pair@$$CBGPAVivfstream@@@_STL@@@2@@_STL@@_N@2@ABU?$pair@$$CBGPAVivfstream@@@2@@Z
_TEXT	SEGMENT
___$ReturnUdt$ = 8					; size = 4
$T100027 = 12						; size = 4
___v$ = 12						; size = 4
?insert_unique@?$_Rb_tree@GU?$pair@$$CBGPAVivfstream@@@_STL@@U?$_Select1st@U?$pair@$$CBGPAVivfstream@@@_STL@@@2@U?$less@G@2@V?$allocator@U?$pair@$$CBGPAVivfstream@@@_STL@@@2@@_STL@@QAE?AU?$pair@U?$_Rb_tree_iterator@U?$pair@$$CBGPAVivfstream@@@_STL@@U?$_Nonconst_traits@U?$pair@$$CBGPAVivfstream@@@_STL@@@2@@_STL@@_N@2@ABU?$pair@$$CBGPAVivfstream@@@2@@Z PROC NEAR ; _STL::_Rb_tree<unsigned short,_STL::pair<unsigned short const ,ivfstream *>,_STL::_Select1st<_STL::pair<unsigned short const ,ivfstream *> >,_STL::less<unsigned short>,_STL::allocator<_STL::pair<unsigned short const ,ivfstream *> > >::insert_unique, COMDAT
; _this$ = ecx

; 401  : {

  00000	53		 push	 ebx

; 403  :   _Link_type __x = _M_root();
; 404  :   bool __comp = true;
; 405  :   while (__x != 0) {

  00001	8b 5c 24 0c	 mov	 ebx, DWORD PTR ___v$[esp]
  00005	55		 push	 ebp
  00006	8b e9		 mov	 ebp, ecx
  00008	8b 55 00	 mov	 edx, DWORD PTR [ebp]
  0000b	56		 push	 esi
  0000c	8b 72 04	 mov	 esi, DWORD PTR [edx+4]
  0000f	85 f6		 test	 esi, esi
  00011	57		 push	 edi
  00012	8b fa		 mov	 edi, edx
  00014	b1 01		 mov	 cl, 1
  00016	74 21		 je	 SHORT $L91661

; 402  :   _Link_type __y = this->_M_header._M_data;

  00018	66 8b 03	 mov	 ax, WORD PTR [ebx]
  0001b	eb 03 8d 49 00	 npad	 5
$L91660:

; 406  :     __y = __x;
; 407  :     __comp = _M_key_compare(_KeyOfValue()(__v), _S_key(__x));

  00020	66 3b 46 10	 cmp	 ax, WORD PTR [esi+16]
  00024	8b fe		 mov	 edi, esi
  00026	0f 92 c1	 setb	 cl

; 408  :     __x = __comp ? _S_left(__x) : _S_right(__x);

  00029	84 c9		 test	 cl, cl
  0002b	74 05		 je	 SHORT $L100020
  0002d	8b 76 08	 mov	 esi, DWORD PTR [esi+8]
  00030	eb 03		 jmp	 SHORT $L100021
$L100020:
  00032	8b 76 0c	 mov	 esi, DWORD PTR [esi+12]
$L100021:

; 403  :   _Link_type __x = _M_root();
; 404  :   bool __comp = true;
; 405  :   while (__x != 0) {

  00035	85 f6		 test	 esi, esi
  00037	75 e7		 jne	 SHORT $L91660
$L91661:

; 409  :   }
; 410  :   iterator __j = iterator(__y);   
; 411  :   if (__comp)

  00039	84 c9		 test	 cl, cl
  0003b	8b c7		 mov	 eax, edi
  0003d	74 15		 je	 SHORT $L100148

; 412  :     if (__j == begin())     

  0003f	3b 7a 08	 cmp	 edi, DWORD PTR [edx+8]
  00042	75 07		 jne	 SHORT $L91687

; 413  :       return pair<iterator,bool>(_M_insert(/* __x*/ __y, __y, __v), true);

  00044	6a 00		 push	 0
  00046	53		 push	 ebx
  00047	57		 push	 edi
  00048	57		 push	 edi
  00049	eb 17		 jmp	 SHORT $L100249
$L91687:

; 414  :     else
; 415  :       --__j;

  0004b	57		 push	 edi
  0004c	e8 00 00 00 00	 call	 ?_M_decrement@?$_Rb_global@_N@_STL@@SAPAU_Rb_tree_node_base@2@PAU32@@Z ; _STL::_Rb_global<bool>::_M_decrement
  00051	83 c4 04	 add	 esp, 4
$L100148:

; 416  :   if (_M_key_compare(_S_key(__j._M_node), _KeyOfValue()(__v)))

  00054	66 8b 50 10	 mov	 dx, WORD PTR [eax+16]
  00058	66 3b 13	 cmp	 dx, WORD PTR [ebx]
  0005b	73 24		 jae	 SHORT $L91693

; 417  :     return pair<iterator,bool>(_M_insert(__x, __y, __v), true);

  0005d	6a 00		 push	 0
  0005f	53		 push	 ebx
  00060	57		 push	 edi
  00061	56		 push	 esi
$L100249:
  00062	8d 44 24 28	 lea	 eax, DWORD PTR $T100027[esp+28]
  00066	50		 push	 eax
  00067	8b cd		 mov	 ecx, ebp
  00069	e8 00 00 00 00	 call	 ?_M_insert@?$_Rb_tree@GU?$pair@$$CBGPAVivfstream@@@_STL@@U?$_Select1st@U?$pair@$$CBGPAVivfstream@@@_STL@@@2@U?$less@G@2@V?$allocator@U?$pair@$$CBGPAVivfstream@@@_STL@@@2@@_STL@@AAE?AU?$_Rb_tree_iterator@U?$pair@$$CBGPAVivfstream@@@_STL@@U?$_Nonconst_traits@U?$pair@$$CBGPAVivfstream@@@_STL@@@2@@2@PAU_Rb_tree_node_base@2@0ABU?$pair@$$CBGPAVivfstream@@@2@0@Z ; _STL::_Rb_tree<unsigned short,_STL::pair<unsigned short const ,ivfstream *>,_STL::_Select1st<_STL::pair<unsigned short const ,ivfstream *> >,_STL::less<unsigned short>,_STL::allocator<_STL::pair<unsigned short const ,ivfstream *> > >::_M_insert
  0006e	8b 08		 mov	 ecx, DWORD PTR [eax]
  00070	8b 44 24 14	 mov	 eax, DWORD PTR ___$ReturnUdt$[esp+12]
  00074	5f		 pop	 edi
  00075	5e		 pop	 esi
  00076	5d		 pop	 ebp
  00077	89 08		 mov	 DWORD PTR [eax], ecx
  00079	c6 40 04 01	 mov	 BYTE PTR [eax+4], 1
  0007d	5b		 pop	 ebx

; 419  : }

  0007e	c2 08 00	 ret	 8
$L91693:

; 418  :   return pair<iterator,bool>(__j, false);

  00081	8b 4c 24 14	 mov	 ecx, DWORD PTR ___$ReturnUdt$[esp+12]
  00085	5f		 pop	 edi
  00086	5e		 pop	 esi
  00087	5d		 pop	 ebp
  00088	89 01		 mov	 DWORD PTR [ecx], eax
  0008a	c6 41 04 00	 mov	 BYTE PTR [ecx+4], 0
  0008e	8b c1		 mov	 eax, ecx
  00090	5b		 pop	 ebx

; 419  : }

  00091	c2 08 00	 ret	 8
?insert_unique@?$_Rb_tree@GU?$pair@$$CBGPAVivfstream@@@_STL@@U?$_Select1st@U?$pair@$$CBGPAVivfstream@@@_STL@@@2@U?$less@G@2@V?$allocator@U?$pair@$$CBGPAVivfstream@@@_STL@@@2@@_STL@@QAE?AU?$pair@U?$_Rb_tree_iterator@U?$pair@$$CBGPAVivfstream@@@_STL@@U?$_Nonconst_traits@U?$pair@$$CBGPAVivfstream@@@_STL@@@2@@_STL@@_N@2@ABU?$pair@$$CBGPAVivfstream@@@2@@Z ENDP ; _STL::_Rb_tree<unsigned short,_STL::pair<unsigned short const ,ivfstream *>,_STL::_Select1st<_STL::pair<unsigned short const ,ivfstream *> >,_STL::less<unsigned short>,_STL::allocator<_STL::pair<unsigned short const ,ivfstream *> > >::insert_unique
_TEXT	ENDS
PUBLIC	?_M_create_node@?$_Rb_tree@GU?$pair@$$CBGPAVivfstream@@@_STL@@U?$_Select1st@U?$pair@$$CBGPAVivfstream@@@_STL@@@2@U?$less@G@2@V?$allocator@U?$pair@$$CBGPAVivfstream@@@_STL@@@2@@_STL@@IAEPAU?$_Rb_tree_node@U?$pair@$$CBGPAVivfstream@@@_STL@@@2@ABU?$pair@$$CBGPAVivfstream@@@2@@Z ; _STL::_Rb_tree<unsigned short,_STL::pair<unsigned short const ,ivfstream *>,_STL::_Select1st<_STL::pair<unsigned short const ,ivfstream *> >,_STL::less<unsigned short>,_STL::allocator<_STL::pair<unsigned short const ,ivfstream *> > >::_M_create_node
EXTRN	?_Rebalance@?$_Rb_global@_N@_STL@@SAXPAU_Rb_tree_node_base@2@AAPAU32@@Z:NEAR ; _STL::_Rb_global<bool>::_Rebalance
; Function compile flags: /Ogty
;	COMDAT ?_M_insert@?$_Rb_tree@GU?$pair@$$CBGPAVivfstream@@@_STL@@U?$_Select1st@U?$pair@$$CBGPAVivfstream@@@_STL@@@2@U?$less@G@2@V?$allocator@U?$pair@$$CBGPAVivfstream@@@_STL@@@2@@_STL@@AAE?AU?$_Rb_tree_iterator@U?$pair@$$CBGPAVivfstream@@@_STL@@U?$_Nonconst_traits@U?$pair@$$CBGPAVivfstream@@@_STL@@@2@@2@PAU_Rb_tree_node_base@2@0ABU?$pair@$$CBGPAVivfstream@@@2@0@Z
_TEXT	SEGMENT
___$ReturnUdt$ = 8					; size = 4
___x_$ = 12						; size = 4
___y_$ = 16						; size = 4
___v$ = 20						; size = 4
___w_$ = 24						; size = 4
?_M_insert@?$_Rb_tree@GU?$pair@$$CBGPAVivfstream@@@_STL@@U?$_Select1st@U?$pair@$$CBGPAVivfstream@@@_STL@@@2@U?$less@G@2@V?$allocator@U?$pair@$$CBGPAVivfstream@@@_STL@@@2@@_STL@@AAE?AU?$_Rb_tree_iterator@U?$pair@$$CBGPAVivfstream@@@_STL@@U?$_Nonconst_traits@U?$pair@$$CBGPAVivfstream@@@_STL@@@2@@2@PAU_Rb_tree_node_base@2@0ABU?$pair@$$CBGPAVivfstream@@@2@0@Z PROC NEAR ; _STL::_Rb_tree<unsigned short,_STL::pair<unsigned short const ,ivfstream *>,_STL::_Select1st<_STL::pair<unsigned short const ,ivfstream *> >,_STL::less<unsigned short>,_STL::allocator<_STL::pair<unsigned short const ,ivfstream *> > >::_M_insert, COMDAT
; _this$ = ecx

; 347  : {

  00000	53		 push	 ebx

; 348  :   _Link_type __w = (_Link_type) __w_;
; 349  :   _Link_type __x = (_Link_type) __x_;
; 350  :   _Link_type __y = (_Link_type) __y_;
; 351  :   _Link_type __z;
; 352  : 
; 353  :   if ( __y == this->_M_header._M_data ||
; 354  :        ( __w == 0 && // If w != 0, the remainder fails to false
; 355  :          ( __x != 0 ||     // If x != 0, the remainder succeeds to true
; 356  :            _M_key_compare( _KeyOfValue()(__v), _S_key(__y) ) )
; 357  : 	 )
; 358  :        ) {

  00001	8b 5c 24 10	 mov	 ebx, DWORD PTR ___y_$[esp]
  00005	56		 push	 esi
  00006	57		 push	 edi
  00007	8b f9		 mov	 edi, ecx
  00009	3b 1f		 cmp	 ebx, DWORD PTR [edi]
  0000b	8b 44 24 1c	 mov	 eax, DWORD PTR ___v$[esp+8]
  0000f	74 32		 je	 SHORT $L91943
  00011	8b 4c 24 20	 mov	 ecx, DWORD PTR ___w_$[esp+8]
  00015	85 c9		 test	 ecx, ecx
  00017	75 11		 jne	 SHORT $L91941
  00019	8b 4c 24 14	 mov	 ecx, DWORD PTR ___x_$[esp+8]
  0001d	85 c9		 test	 ecx, ecx
  0001f	75 22		 jne	 SHORT $L91943
  00021	66 8b 08	 mov	 cx, WORD PTR [eax]
  00024	66 3b 4b 10	 cmp	 cx, WORD PTR [ebx+16]
  00028	72 19		 jb	 SHORT $L91943
$L91941:

; 369  :   }
; 370  :   else {
; 371  :     __z = _M_create_node(__v);

  0002a	50		 push	 eax
  0002b	8b cf		 mov	 ecx, edi
  0002d	e8 00 00 00 00	 call	 ?_M_create_node@?$_Rb_tree@GU?$pair@$$CBGPAVivfstream@@@_STL@@U?$_Select1st@U?$pair@$$CBGPAVivfstream@@@_STL@@@2@U?$less@G@2@V?$allocator@U?$pair@$$CBGPAVivfstream@@@_STL@@@2@@_STL@@IAEPAU?$_Rb_tree_node@U?$pair@$$CBGPAVivfstream@@@_STL@@@2@ABU?$pair@$$CBGPAVivfstream@@@2@@Z ; _STL::_Rb_tree<unsigned short,_STL::pair<unsigned short const ,ivfstream *>,_STL::_Select1st<_STL::pair<unsigned short const ,ivfstream *> >,_STL::less<unsigned short>,_STL::allocator<_STL::pair<unsigned short const ,ivfstream *> > >::_M_create_node
  00032	8b f0		 mov	 esi, eax

; 372  :     _S_right(__y) = __z;

  00034	89 73 0c	 mov	 DWORD PTR [ebx+12], esi

; 373  :     if (__y == _M_rightmost())

  00037	8b 07		 mov	 eax, DWORD PTR [edi]
  00039	3b 58 0c	 cmp	 ebx, DWORD PTR [eax+12]
  0003c	75 2a		 jne	 SHORT $L91946

; 374  :       _M_rightmost() = __z;  // maintain _M_rightmost() pointing to max node

  0003e	89 70 0c	 mov	 DWORD PTR [eax+12], esi
  00041	eb 25		 jmp	 SHORT $L91946
$L91943:

; 359  :     
; 360  :     __z = _M_create_node(__v);

  00043	50		 push	 eax
  00044	8b cf		 mov	 ecx, edi
  00046	e8 00 00 00 00	 call	 ?_M_create_node@?$_Rb_tree@GU?$pair@$$CBGPAVivfstream@@@_STL@@U?$_Select1st@U?$pair@$$CBGPAVivfstream@@@_STL@@@2@U?$less@G@2@V?$allocator@U?$pair@$$CBGPAVivfstream@@@_STL@@@2@@_STL@@IAEPAU?$_Rb_tree_node@U?$pair@$$CBGPAVivfstream@@@_STL@@@2@ABU?$pair@$$CBGPAVivfstream@@@2@@Z ; _STL::_Rb_tree<unsigned short,_STL::pair<unsigned short const ,ivfstream *>,_STL::_Select1st<_STL::pair<unsigned short const ,ivfstream *> >,_STL::less<unsigned short>,_STL::allocator<_STL::pair<unsigned short const ,ivfstream *> > >::_M_create_node
  0004b	8b f0		 mov	 esi, eax

; 361  :     _S_left(__y) = __z;               // also makes _M_leftmost() = __z 

  0004d	89 73 08	 mov	 DWORD PTR [ebx+8], esi

; 362  :                                       //    when __y == _M_header
; 363  :     if (__y == this->_M_header._M_data) {

  00050	8b 07		 mov	 eax, DWORD PTR [edi]
  00052	3b d8		 cmp	 ebx, eax
  00054	75 0a		 jne	 SHORT $L91944

; 364  :       _M_root() = __z;

  00056	89 70 04	 mov	 DWORD PTR [eax+4], esi

; 365  :       _M_rightmost() = __z;

  00059	8b 17		 mov	 edx, DWORD PTR [edi]
  0005b	89 72 0c	 mov	 DWORD PTR [edx+12], esi

; 366  :     }
; 367  :     else if (__y == _M_leftmost())

  0005e	eb 08		 jmp	 SHORT $L91946
$L91944:
  00060	3b 58 08	 cmp	 ebx, DWORD PTR [eax+8]
  00063	75 03		 jne	 SHORT $L91946

; 368  :       _M_leftmost() = __z;   // maintain _M_leftmost() pointing to min node

  00065	89 70 08	 mov	 DWORD PTR [eax+8], esi
$L91946:

; 375  :   }
; 376  :   _S_parent(__z) = __y;

  00068	89 5e 04	 mov	 DWORD PTR [esi+4], ebx

; 377  :   _S_left(__z) = 0;

  0006b	c7 46 08 00 00
	00 00		 mov	 DWORD PTR [esi+8], 0

; 378  :   _S_right(__z) = 0;

  00072	c7 46 0c 00 00
	00 00		 mov	 DWORD PTR [esi+12], 0

; 379  :   _Rb_global_inst::_Rebalance(__z, this->_M_header._M_data->_M_parent);

  00079	8b 07		 mov	 eax, DWORD PTR [edi]
  0007b	83 c0 04	 add	 eax, 4
  0007e	50		 push	 eax
  0007f	56		 push	 esi
  00080	e8 00 00 00 00	 call	 ?_Rebalance@?$_Rb_global@_N@_STL@@SAXPAU_Rb_tree_node_base@2@AAPAU32@@Z ; _STL::_Rb_global<bool>::_Rebalance

; 380  :   ++_M_node_count;

  00085	8b 47 04	 mov	 eax, DWORD PTR [edi+4]
  00088	83 c4 08	 add	 esp, 8
  0008b	40		 inc	 eax
  0008c	89 47 04	 mov	 DWORD PTR [edi+4], eax

; 381  :   return iterator(__z);

  0008f	8b 44 24 10	 mov	 eax, DWORD PTR ___$ReturnUdt$[esp+8]
  00093	5f		 pop	 edi
  00094	89 30		 mov	 DWORD PTR [eax], esi
  00096	5e		 pop	 esi
  00097	5b		 pop	 ebx

; 382  : }

  00098	c2 14 00	 ret	 20			; 00000014H
?_M_insert@?$_Rb_tree@GU?$pair@$$CBGPAVivfstream@@@_STL@@U?$_Select1st@U?$pair@$$CBGPAVivfstream@@@_STL@@@2@U?$less@G@2@V?$allocator@U?$pair@$$CBGPAVivfstream@@@_STL@@@2@@_STL@@AAE?AU?$_Rb_tree_iterator@U?$pair@$$CBGPAVivfstream@@@_STL@@U?$_Nonconst_traits@U?$pair@$$CBGPAVivfstream@@@_STL@@@2@@2@PAU_Rb_tree_node_base@2@0ABU?$pair@$$CBGPAVivfstream@@@2@0@Z ENDP ; _STL::_Rb_tree<unsigned short,_STL::pair<unsigned short const ,ivfstream *>,_STL::_Select1st<_STL::pair<unsigned short const ,ivfstream *> >,_STL::less<unsigned short>,_STL::allocator<_STL::pair<unsigned short const ,ivfstream *> > >::_M_insert
; Function compile flags: /Ogty
; File c:\stlport-4.6.1\stlport\stl\_tree.h
_TEXT	ENDS
;	COMDAT ?_M_create_node@?$_Rb_tree@GU?$pair@$$CBGPAVivfstream@@@_STL@@U?$_Select1st@U?$pair@$$CBGPAVivfstream@@@_STL@@@2@U?$less@G@2@V?$allocator@U?$pair@$$CBGPAVivfstream@@@_STL@@@2@@_STL@@IAEPAU?$_Rb_tree_node@U?$pair@$$CBGPAVivfstream@@@_STL@@@2@ABU?$pair@$$CBGPAVivfstream@@@2@@Z
_TEXT	SEGMENT
___x$ = 8						; size = 4
?_M_create_node@?$_Rb_tree@GU?$pair@$$CBGPAVivfstream@@@_STL@@U?$_Select1st@U?$pair@$$CBGPAVivfstream@@@_STL@@@2@U?$less@G@2@V?$allocator@U?$pair@$$CBGPAVivfstream@@@_STL@@@2@@_STL@@IAEPAU?$_Rb_tree_node@U?$pair@$$CBGPAVivfstream@@@_STL@@@2@ABU?$pair@$$CBGPAVivfstream@@@2@@Z PROC NEAR ; _STL::_Rb_tree<unsigned short,_STL::pair<unsigned short const ,ivfstream *>,_STL::_Select1st<_STL::pair<unsigned short const ,ivfstream *> >,_STL::less<unsigned short>,_STL::allocator<_STL::pair<unsigned short const ,ivfstream *> > >::_M_create_node, COMDAT
; _this$ = ecx

; 243  :     _Link_type __tmp = this->_M_header.allocate(1);

  00000	6a 18		 push	 24			; 00000018H
  00002	e8 00 00 00 00	 call	 ?_M_allocate@?$__node_alloc@$00$0A@@_STL@@CAPAXI@Z ; _STL::__node_alloc<1,0>::_M_allocate

; 244  :     _STLP_TRY {
; 245  :       _Construct(&__tmp->_M_value_field, __x);

  00007	8d 48 10	 lea	 ecx, DWORD PTR [eax+16]
  0000a	83 c4 04	 add	 esp, 4
  0000d	85 c9		 test	 ecx, ecx
  0000f	74 12		 je	 SHORT $L100360
  00011	8b 54 24 04	 mov	 edx, DWORD PTR ___x$[esp-4]
  00015	56		 push	 esi
  00016	66 8b 32	 mov	 si, WORD PTR [edx]
  00019	66 89 31	 mov	 WORD PTR [ecx], si
  0001c	8b 52 04	 mov	 edx, DWORD PTR [edx+4]
  0001f	89 51 04	 mov	 DWORD PTR [ecx+4], edx
  00022	5e		 pop	 esi
$L100360:

; 246  :     }
; 247  :     _STLP_UNWIND(this->_M_header.deallocate(__tmp,1));
; 248  :     return __tmp;
; 249  :   }

  00023	c2 04 00	 ret	 4
?_M_create_node@?$_Rb_tree@GU?$pair@$$CBGPAVivfstream@@@_STL@@U?$_Select1st@U?$pair@$$CBGPAVivfstream@@@_STL@@@2@U?$less@G@2@V?$allocator@U?$pair@$$CBGPAVivfstream@@@_STL@@@2@@_STL@@IAEPAU?$_Rb_tree_node@U?$pair@$$CBGPAVivfstream@@@_STL@@@2@ABU?$pair@$$CBGPAVivfstream@@@2@@Z ENDP ; _STL::_Rb_tree<unsigned short,_STL::pair<unsigned short const ,ivfstream *>,_STL::_Select1st<_STL::pair<unsigned short const ,ivfstream *> >,_STL::less<unsigned short>,_STL::allocator<_STL::pair<unsigned short const ,ivfstream *> > >::_M_create_node
_TEXT	ENDS
PUBLIC	??$?HDV?$char_traits@D@_STL@@V?$allocator@D@1@@_STL@@YA?AV?$basic_string@DV?$char_traits@D@_STL@@V?$allocator@D@2@@0@ABV10@PBD@Z ; _STL::operator+<char,_STL::char_traits<char>,_STL::allocator<char> >
PUBLIC	??_C@_0M@KJGOGBJN@?2header?4inf?$AA@		; `string'
PUBLIC	??$_M_range_initialize@PBD@?$basic_string@DV?$char_traits@D@_STL@@V?$allocator@D@2@@_STL@@AAEXPBD0ABUforward_iterator_tag@1@@Z ; _STL::basic_string<char,_STL::char_traits<char>,_STL::allocator<char> >::_M_range_initialize<char const *>
PUBLIC	?push_back@?$basic_string@DV?$char_traits@D@_STL@@V?$allocator@D@2@@_STL@@QAEXD@Z ; _STL::basic_string<char,_STL::char_traits<char>,_STL::allocator<char> >::push_back
EXTRN	_atoi:NEAR
EXTRN	__splitpath:NEAR
EXTRN	?IsFileExist@VirtualFileSystem@@QBE_NPBD@Z:NEAR	; VirtualFileSystem::IsFileExist
EXTRN	?s_VFSystem@iovfs_base@@1VVirtualFileSystem@@A:DWORD ; iovfs_base::s_VFSystem
;	COMDAT xdata$x
; File c:\stlport-4.6.1\stlport\stl\_new.h
xdata$x	SEGMENT
$T100981 DD	0ffffffffH
	DD	FLAT:$L100392
	DD	0ffffffffH
	DD	FLAT:$L100383
	DD	01H
	DD	FLAT:$L100384
	DD	02H
	DD	FLAT:$L100385
	DD	03H
	DD	FLAT:$L100450
	DD	03H
	DD	FLAT:$L100386
	DD	02H
	DD	FLAT:$L100387
$T100955 DD	019930520H
	DD	07H
	DD	FLAT:$T100981
	DD	2 DUP(00H)
	DD	2 DUP(00H)
xdata$x	ENDS
;	COMDAT ??_C@_0M@KJGOGBJN@?2header?4inf?$AA@
CONST	SEGMENT
??_C@_0M@KJGOGBJN@?2header?4inf?$AA@ DB '\header.inf', 00H ; `string'
; Function compile flags: /Ogty
; File c:\darkeden\designed_common\project\client\spritelib\ctypepack.h
CONST	ENDS
;	COMDAT ?LoadFromFileRunning@?$CTypePack2@VCSprite@@VCSprite555@@VCSprite565@@@@UAE_NPBD@Z
_TEXT	SEGMENT
_bLoadIndexFile$ = -473					; size = 1
$T100372 = -473						; size = 1
_indexSize$ = -472					; size = 2
_indexFileName$ = -468					; size = 12
$T100405 = -453						; size = 1
_strHeaderPath$90622 = -452				; size = 12
_indexFile$ = -440					; size = 80
_fileHeader$90632 = -360				; size = 80
$T100377 = -280						; size = 4
_lineBuffer$90636 = -280				; size = 8
_szExt$90639 = -272					; size = 256
__$ArrayPad$ = -16					; size = 4
__$EHRec$ = -12						; size = 12
__$ReturnAddr$ = 4					; size = 4
_lpszFilename$ = 8					; size = 4
?LoadFromFileRunning@?$CTypePack2@VCSprite@@VCSprite555@@VCSprite565@@@@UAE_NPBD@Z PROC NEAR ; CTypePack2<CSprite,CSprite555,CSprite565>::LoadFromFileRunning, COMDAT
; _this$ = ecx

; 1083 : {

  00000	6a ff		 push	 -1
  00002	68 00 00 00 00	 push	 __ehhandler$?LoadFromFileRunning@?$CTypePack2@VCSprite@@VCSprite555@@VCSprite565@@@@UAE_NPBD@Z
  00007	64 a1 00 00 00
	00		 mov	 eax, DWORD PTR fs:__except_list
  0000d	50		 push	 eax
  0000e	64 89 25 00 00
	00 00		 mov	 DWORD PTR fs:__except_list, esp
  00015	81 ec d0 01 00
	00		 sub	 esp, 464		; 000001d0H
  0001b	a1 00 00 00 00	 mov	 eax, DWORD PTR ___security_cookie
  00020	53		 push	 ebx
  00021	55		 push	 ebp
  00022	56		 push	 esi
  00023	8b f1		 mov	 esi, ecx
  00025	89 84 24 d8 01
	00 00		 mov	 DWORD PTR __$ArrayPad$[esp+488], eax

; 1084 : 	Release();

  0002c	8b 06		 mov	 eax, DWORD PTR [esi]
  0002e	57		 push	 edi
  0002f	ff 50 08	 call	 DWORD PTR [eax+8]

; 1085 : 
; 1086 : 	//    .
; 1087 : 	std::string indexFileName = lpszFilename;

  00032	8d 4c 24 13	 lea	 ecx, DWORD PTR $T100372[esp+492]
  00036	51		 push	 ecx
  00037	8d 4c 24 1c	 lea	 ecx, DWORD PTR _indexFileName$[esp+496]
  0003b	e8 00 00 00 00	 call	 ??0?$_String_base@DV?$allocator@D@_STL@@@_STL@@QAE@ABV?$allocator@D@1@@Z ; _STL::_String_base<char,_STL::allocator<char> >::_String_base<char,_STL::allocator<char> >
  00040	8b ac 24 f0 01
	00 00		 mov	 ebp, DWORD PTR _lpszFilename$[esp+488]
  00047	33 db		 xor	 ebx, ebx
  00049	8b c5		 mov	 eax, ebp
  0004b	89 9c 24 e8 01
	00 00		 mov	 DWORD PTR __$EHRec$[esp+500], ebx
  00052	8d 50 01	 lea	 edx, DWORD PTR [eax+1]
$L100964:
  00055	8a 08		 mov	 cl, BYTE PTR [eax]
  00057	40		 inc	 eax
  00058	84 c9		 test	 cl, cl
  0005a	75 f9		 jne	 SHORT $L100964
  0005c	2b c2		 sub	 eax, edx
  0005e	8d 54 24 27	 lea	 edx, DWORD PTR $T100405[esp+492]
  00062	52		 push	 edx
  00063	03 c5		 add	 eax, ebp
  00065	50		 push	 eax
  00066	55		 push	 ebp
  00067	8d 4c 24 24	 lea	 ecx, DWORD PTR _indexFileName$[esp+504]
  0006b	e8 00 00 00 00	 call	 ??$_M_range_initialize@PBD@?$basic_string@DV?$char_traits@D@_STL@@V?$allocator@D@2@@_STL@@AAEXPBD0ABUforward_iterator_tag@1@@Z ; _STL::basic_string<char,_STL::char_traits<char>,_STL::allocator<char> >::_M_range_initialize<char const *>

; 1088 : 	indexFileName += 'i';

  00070	6a 69		 push	 105			; 00000069H
  00072	8d 4c 24 1c	 lea	 ecx, DWORD PTR _indexFileName$[esp+496]
  00076	c7 84 24 ec 01
	00 00 01 00 00
	00		 mov	 DWORD PTR __$EHRec$[esp+504], 1
  00081	e8 00 00 00 00	 call	 ?push_back@?$basic_string@DV?$char_traits@D@_STL@@V?$allocator@D@2@@_STL@@QAEXD@Z ; _STL::basic_string<char,_STL::char_traits<char>,_STL::allocator<char> >::push_back

; 1089 : 
; 1090 : 	WORD indexSize = 0;
; 1091 : 	bool bLoadIndexFile = false;
; 1092 : 
; 1093 : 	ivfstream indexFile(indexFileName.c_str(), std::ios::binary);

  00086	8b 44 24 18	 mov	 eax, DWORD PTR _indexFileName$[esp+492]
  0008a	6a 04		 push	 4
  0008c	50		 push	 eax
  0008d	8d 4c 24 3c	 lea	 ecx, DWORD PTR _indexFile$[esp+500]
  00091	89 5c 24 1c	 mov	 DWORD PTR _indexSize$[esp+500], ebx
  00095	c6 44 24 1b 00	 mov	 BYTE PTR _bLoadIndexFile$[esp+500], 0
  0009a	e8 00 00 00 00	 call	 ??0ivfstream@@QAE@PBDH@Z ; ivfstream::ivfstream

; 1094 : 
; 1095 : 	if(indexFile.is_open())

  0009f	8b 4c 24 38	 mov	 ecx, DWORD PTR _indexFile$[esp+496]
  000a3	3b cb		 cmp	 ecx, ebx
  000a5	c6 84 24 e8 01
	00 00 02	 mov	 BYTE PTR __$EHRec$[esp+500], 2
  000ad	74 7f		 je	 SHORT $L100968
  000af	8b 11		 mov	 edx, DWORD PTR [ecx]
  000b1	ff 52 0c	 call	 DWORD PTR [edx+12]
  000b4	84 c0		 test	 al, al
  000b6	74 76		 je	 SHORT $L100968

; 1096 : 	{
; 1097 : 		indexFile.read((char *)&indexSize, 2);

  000b8	8b 4c 24 38	 mov	 ecx, DWORD PTR _indexFile$[esp+496]
  000bc	3b cb		 cmp	 ecx, ebx
  000be	74 0c		 je	 SHORT $L100967
  000c0	8b 01		 mov	 eax, DWORD PTR [ecx]
  000c2	6a 02		 push	 2
  000c4	8d 54 24 18	 lea	 edx, DWORD PTR _indexSize$[esp+496]
  000c8	52		 push	 edx
  000c9	ff 50 10	 call	 DWORD PTR [eax+16]
$L100967:

; 1098 : 
; 1099 : 		Init(indexSize);

  000cc	8b 4c 24 14	 mov	 ecx, DWORD PTR _indexSize$[esp+492]
  000d0	8b 06		 mov	 eax, DWORD PTR [esi]
  000d2	51		 push	 ecx
  000d3	8b ce		 mov	 ecx, esi
  000d5	ff 50 04	 call	 DWORD PTR [eax+4]

; 1100 : 		
; 1101 : 		m_file_index = new int[indexSize];

  000d8	0f b7 54 24 14	 movzx	 edx, WORD PTR _indexSize$[esp+492]
  000dd	c1 e2 02	 shl	 edx, 2
  000e0	52		 push	 edx
  000e1	e8 00 00 00 00	 call	 ??_U@YAPAXI@Z		; operator new[]
  000e6	83 c4 04	 add	 esp, 4

; 1102 : 		
; 1103 : 		register int i = 0;

  000e9	33 ff		 xor	 edi, edi

; 1104 : 		
; 1105 : 		for(; i < indexSize; ++i)

  000eb	66 39 5c 24 14	 cmp	 WORD PTR _indexSize$[esp+492], bx
  000f0	89 46 10	 mov	 DWORD PTR [esi+16], eax
  000f3	76 2b		 jbe	 SHORT $L90618
  000f5	8b 4c 24 38	 mov	 ecx, DWORD PTR _indexFile$[esp+496]
  000f9	8d a4 24 00 00
	00 00		 npad	 7
$L90616:

; 1106 : 		{
; 1107 : 			//if ( i == 1599 )
; 1108 : 			//	int a = 0;
; 1109 : 			indexFile.read((char*)&m_file_index[i], 4);

  00100	3b cb		 cmp	 ecx, ebx
  00102	8b 46 10	 mov	 eax, DWORD PTR [esi+16]
  00105	8d 04 b8	 lea	 eax, DWORD PTR [eax+edi*4]
  00108	74 0c		 je	 SHORT $L90617
  0010a	8b 11		 mov	 edx, DWORD PTR [ecx]
  0010c	6a 04		 push	 4
  0010e	50		 push	 eax
  0010f	ff 52 10	 call	 DWORD PTR [edx+16]
  00112	8b 4c 24 38	 mov	 ecx, DWORD PTR _indexFile$[esp+496]
$L90617:
  00116	0f b7 44 24 14	 movzx	 eax, WORD PTR _indexSize$[esp+492]
  0011b	47		 inc	 edi
  0011c	3b f8		 cmp	 edi, eax
  0011e	7c e0		 jl	 SHORT $L90616
$L90618:

; 1110 : 		}
; 1111 : 		
; 1112 : 		indexFile.close();

  00120	8d 4c 24 34	 lea	 ecx, DWORD PTR _indexFile$[esp+492]
  00124	e8 00 00 00 00	 call	 ?close@iovfs_base@@QAEXXZ ; iovfs_base::close

; 1113 : 		
; 1114 : 		bLoadIndexFile = true;

  00129	c6 44 24 13 01	 mov	 BYTE PTR _bLoadIndexFile$[esp+492], 1
$L100968:

; 1115 : 	}
; 1116 : 	else
; 1117 : 	{
; 1118 : #ifdef OUTPUT_DEBUG
; 1119 : 		char szBuf[256];
; 1120 : 		sprintf(szBuf, "CTypePack Can Not Find Index File: %s\n", indexFileName.c_str());
; 1121 : 		OutputDebugString(szBuf);
; 1122 : #endif
; 1123 : 	}
; 1124 : 
; 1125 : 	//     .
; 1126 : 	//     .
; 1127 : 	m_bSplitFile = !iovfs_base::get_vfs()->IsFileExist(lpszFilename);

  0012e	55		 push	 ebp
  0012f	b9 00 00 00 00	 mov	 ecx, OFFSET FLAT:?s_VFSystem@iovfs_base@@1VVirtualFileSystem@@A ; iovfs_base::s_VFSystem
  00134	e8 00 00 00 00	 call	 ?IsFileExist@VirtualFileSystem@@QBE_NPBD@Z ; VirtualFileSystem::IsFileExist
  00139	f6 d8		 neg	 al
  0013b	1a c0		 sbb	 al, al
  0013d	fe c0		 inc	 al
  0013f	88 46 14	 mov	 BYTE PTR [esi+20], al

; 1128 : 
; 1129 : 	if(m_bSplitFile)

  00142	0f 84 5e 02 00
	00		 je	 $L90621

; 1130 : 	{
; 1131 : 		m_strFileName = lpszFilename;

  00148	8b c5		 mov	 eax, ebp
  0014a	8d 48 01	 lea	 ecx, DWORD PTR [eax+1]
  0014d	8d 49 00	 npad	 3
$L100965:
  00150	8a 10		 mov	 dl, BYTE PTR [eax]
  00152	40		 inc	 eax
  00153	84 d2		 test	 dl, dl
  00155	75 f9		 jne	 SHORT $L100965
  00157	2b c1		 sub	 eax, ecx
  00159	03 c5		 add	 eax, ebp
  0015b	50		 push	 eax
  0015c	8d 7e 20	 lea	 edi, DWORD PTR [esi+32]
  0015f	55		 push	 ebp
  00160	8b cf		 mov	 ecx, edi
  00162	e8 00 00 00 00	 call	 ?assign@?$basic_string@DV?$char_traits@D@_STL@@V?$allocator@D@2@@_STL@@QAEAAV12@PBD0@Z ; _STL::basic_string<char,_STL::char_traits<char>,_STL::allocator<char> >::assign

; 1132 : 		
; 1133 : 		std::string strHeaderPath = m_strFileName + "\\header.inf";

  00167	68 00 00 00 00	 push	 OFFSET FLAT:??_C@_0M@KJGOGBJN@?2header?4inf?$AA@
  0016c	8d 4c 24 2c	 lea	 ecx, DWORD PTR _strHeaderPath$90622[esp+496]
  00170	57		 push	 edi
  00171	51		 push	 ecx
  00172	e8 00 00 00 00	 call	 ??$?HDV?$char_traits@D@_STL@@V?$allocator@D@1@@_STL@@YA?AV?$basic_string@DV?$char_traits@D@_STL@@V?$allocator@D@2@@0@ABV10@PBD@Z ; _STL::operator+<char,_STL::char_traits<char>,_STL::allocator<char> >
  00177	83 c4 0c	 add	 esp, 12			; 0000000cH

; 1134 : 		ivfstream fileHeader(strHeaderPath.c_str(), 0);

  0017a	8b 7c 24 28	 mov	 edi, DWORD PTR _strHeaderPath$90622[esp+492]
  0017e	b3 03		 mov	 bl, 3
  00180	8d 8c 24 84 00
	00 00		 lea	 ecx, DWORD PTR _fileHeader$90632[esp+492]
  00187	88 9c 24 e8 01
	00 00		 mov	 BYTE PTR __$EHRec$[esp+500], bl
  0018e	e8 00 00 00 00	 call	 ??0iovfs_base@@QAE@XZ	; iovfs_base::iovfs_base
  00193	6a 08		 push	 8
  00195	57		 push	 edi
  00196	8d 8c 24 8c 00
	00 00		 lea	 ecx, DWORD PTR _fileHeader$90632[esp+500]
  0019d	c6 84 24 f0 01
	00 00 04	 mov	 BYTE PTR __$EHRec$[esp+508], 4
  001a5	c7 84 24 8c 00
	00 00 00 00 00
	00		 mov	 DWORD PTR _fileHeader$90632[esp+500], OFFSET FLAT:??_7ivfstream@@6B@
  001b0	e8 00 00 00 00	 call	 ?open@iovfs_base@@UAEXPBDH@Z ; iovfs_base::open

; 1135 : 		
; 1136 : 		if(!fileHeader.is_open())

  001b5	8b 8c 24 88 00
	00 00		 mov	 ecx, DWORD PTR _fileHeader$90632[esp+496]
  001bc	85 c9		 test	 ecx, ecx
  001be	c6 84 24 e8 01
	00 00 05	 mov	 BYTE PTR __$EHRec$[esp+500], 5
  001c6	74 09		 je	 SHORT $L100464
  001c8	8b 11		 mov	 edx, DWORD PTR [ecx]
  001ca	ff 52 0c	 call	 DWORD PTR [edx+12]
  001cd	84 c0		 test	 al, al
  001cf	75 7e		 jne	 SHORT $L90633
$L100464:

; 1137 : 		{
; 1138 : 			Release();

  001d1	8b 06		 mov	 eax, DWORD PTR [esi]
  001d3	8b ce		 mov	 ecx, esi
  001d5	ff 50 08	 call	 DWORD PTR [eax+8]

; 1139 : 			return false;

  001d8	be 00 00 00 00	 mov	 esi, OFFSET FLAT:??_7ivfstream@@6B@
  001dd	8d 8c 24 84 00
	00 00		 lea	 ecx, DWORD PTR _fileHeader$90632[esp+492]
  001e4	88 9c 24 e8 01
	00 00		 mov	 BYTE PTR __$EHRec$[esp+500], bl
  001eb	89 b4 24 84 00
	00 00		 mov	 DWORD PTR _fileHeader$90632[esp+492], esi
  001f2	e8 00 00 00 00	 call	 ??1iovfs_base@@UAE@XZ	; iovfs_base::~iovfs_base
  001f7	8b 4c 24 28	 mov	 ecx, DWORD PTR _strHeaderPath$90622[esp+492]
  001fb	8b 44 24 30	 mov	 eax, DWORD PTR _strHeaderPath$90622[esp+500]
  001ff	2b c1		 sub	 eax, ecx
  00201	85 c9		 test	 ecx, ecx
  00203	c6 84 24 e8 01
	00 00 02	 mov	 BYTE PTR __$EHRec$[esp+500], 2
  0020b	74 1c		 je	 SHORT $L100969
  0020d	3d 80 00 00 00	 cmp	 eax, 128		; 00000080H
  00212	76 0b		 jbe	 SHORT $L100533
  00214	51		 push	 ecx
  00215	e8 00 00 00 00	 call	 ??3@YAXPAX@Z		; operator delete
  0021a	83 c4 04	 add	 esp, 4
  0021d	eb 0a		 jmp	 SHORT $L100969
$L100533:
  0021f	50		 push	 eax
  00220	51		 push	 ecx
  00221	e8 00 00 00 00	 call	 ?_M_deallocate@?$__node_alloc@$00$0A@@_STL@@CAXPAXI@Z ; _STL::__node_alloc<1,0>::_M_deallocate
  00226	83 c4 08	 add	 esp, 8
$L100969:
  00229	8d 4c 24 34	 lea	 ecx, DWORD PTR _indexFile$[esp+492]
  0022d	c6 84 24 e8 01
	00 00 01	 mov	 BYTE PTR __$EHRec$[esp+500], 1
  00235	89 74 24 34	 mov	 DWORD PTR _indexFile$[esp+492], esi
  00239	e8 00 00 00 00	 call	 ??1iovfs_base@@UAE@XZ	; iovfs_base::~iovfs_base
  0023e	8b 4c 24 18	 mov	 ecx, DWORD PTR _indexFileName$[esp+492]
  00242	8b 44 24 20	 mov	 eax, DWORD PTR _indexFileName$[esp+500]
  00246	2b c1		 sub	 eax, ecx
  00248	85 c9		 test	 ecx, ecx
  0024a	e9 e3 01 00 00	 jmp	 $L100980
$L90633:

; 1140 : 		}
; 1141 : 		
; 1142 : 		const int bufferSize = 8;
; 1143 : 		char lineBuffer[bufferSize];
; 1144 : 
; 1145 : 		fileHeader.getline(lineBuffer, bufferSize);

  0024f	8b 8c 24 88 00
	00 00		 mov	 ecx, DWORD PTR _fileHeader$90632[esp+496]
  00256	85 c9		 test	 ecx, ecx
  00258	74 11		 je	 SHORT $L100970
  0025a	8b 11		 mov	 edx, DWORD PTR [ecx]
  0025c	6a 0a		 push	 10			; 0000000aH
  0025e	6a 08		 push	 8
  00260	8d 84 24 dc 00
	00 00		 lea	 eax, DWORD PTR _lineBuffer$90636[esp+500]
  00267	50		 push	 eax
  00268	ff 52 2c	 call	 DWORD PTR [edx+44]
$L100970:

; 1146 : 		m_Size = static_cast<WORD>(atoi(lineBuffer));

  0026b	8d 8c 24 d4 00
	00 00		 lea	 ecx, DWORD PTR _lineBuffer$90636[esp+492]
  00272	51		 push	 ecx
  00273	e8 00 00 00 00	 call	 _atoi

; 1147 : 
; 1148 : 		fileHeader.getline(lineBuffer, bufferSize);

  00278	8b 8c 24 8c 00
	00 00		 mov	 ecx, DWORD PTR _fileHeader$90632[esp+500]
  0027f	83 c4 04	 add	 esp, 4
  00282	85 c9		 test	 ecx, ecx
  00284	66 89 46 08	 mov	 WORD PTR [esi+8], ax
  00288	74 11		 je	 SHORT $L100975
  0028a	8b 11		 mov	 edx, DWORD PTR [ecx]
  0028c	6a 0a		 push	 10			; 0000000aH
  0028e	6a 08		 push	 8
  00290	8d 84 24 dc 00
	00 00		 lea	 eax, DWORD PTR _lineBuffer$90636[esp+500]
  00297	50		 push	 eax
  00298	ff 52 2c	 call	 DWORD PTR [edx+44]
$L100975:

; 1149 : 		m_nUnitCount = static_cast<int>(atoi(lineBuffer));

  0029b	8d 8c 24 d4 00
	00 00		 lea	 ecx, DWORD PTR _lineBuffer$90636[esp+492]
  002a2	51		 push	 ecx
  002a3	e8 00 00 00 00	 call	 _atoi
  002a8	83 c4 04	 add	 esp, 4
  002ab	89 46 18	 mov	 DWORD PTR [esi+24], eax

; 1150 : 		m_nUnitTwoMultiplier = LogTwoMultiplier(m_nUnitCount);

  002ae	8b c8		 mov	 ecx, eax
  002b0	33 c0		 xor	 eax, eax
$L100626:
  002b2	f6 c1 01	 test	 cl, 1
  002b5	75 0a		 jne	 SHORT $L100624
  002b7	d1 f9		 sar	 ecx, 1
  002b9	40		 inc	 eax
  002ba	83 f8 08	 cmp	 eax, 8
  002bd	7c f3		 jl	 SHORT $L100626
  002bf	33 c0		 xor	 eax, eax
$L100624:

; 1151 : 
; 1152 : 		fileHeader.close();

  002c1	8d 8c 24 84 00
	00 00		 lea	 ecx, DWORD PTR _fileHeader$90632[esp+492]
  002c8	89 46 1c	 mov	 DWORD PTR [esi+28], eax
  002cb	e8 00 00 00 00	 call	 ?close@iovfs_base@@QAEXXZ ; iovfs_base::close

; 1153 : 		
; 1154 : 		//  
; 1155 : 		char szExt[_MAX_EXT];
; 1156 : 		_splitpath(lpszFilename, NULL, NULL, NULL, szExt);

  002d0	8d 94 24 dc 00
	00 00		 lea	 edx, DWORD PTR _szExt$90639[esp+492]
  002d7	52		 push	 edx
  002d8	6a 00		 push	 0
  002da	6a 00		 push	 0
  002dc	6a 00		 push	 0
  002de	55		 push	 ebp
  002df	e8 00 00 00 00	 call	 __splitpath

; 1157 : 		
; 1158 : 		m_strFileExt = szExt;

  002e4	8d 84 24 f0 00
	00 00		 lea	 eax, DWORD PTR _szExt$90639[esp+512]
  002eb	83 c4 14	 add	 esp, 20			; 00000014H
  002ee	8d 50 01	 lea	 edx, DWORD PTR [eax+1]
$L100966:
  002f1	8a 08		 mov	 cl, BYTE PTR [eax]
  002f3	40		 inc	 eax
  002f4	84 c9		 test	 cl, cl
  002f6	75 f9		 jne	 SHORT $L100966
  002f8	2b c2		 sub	 eax, edx
  002fa	8d 84 04 dc 00
	00 00		 lea	 eax, DWORD PTR _szExt$90639[esp+eax+492]
  00301	50		 push	 eax
  00302	8d 8c 24 e0 00
	00 00		 lea	 ecx, DWORD PTR _szExt$90639[esp+496]
  00309	51		 push	 ecx
  0030a	8d 4e 2c	 lea	 ecx, DWORD PTR [esi+44]
  0030d	e8 00 00 00 00	 call	 ?assign@?$basic_string@DV?$char_traits@D@_STL@@V?$allocator@D@2@@_STL@@QAEAAV12@PBD0@Z ; _STL::basic_string<char,_STL::char_traits<char>,_STL::allocator<char> >::assign

; 1159 : 
; 1160 : 		if(!bLoadIndexFile || indexSize != m_Size)

  00312	8a 44 24 13	 mov	 al, BYTE PTR _bLoadIndexFile$[esp+492]
  00316	84 c0		 test	 al, al
  00318	74 0b		 je	 SHORT $L90641
  0031a	66 8b 54 24 14	 mov	 dx, WORD PTR _indexSize$[esp+492]
  0031f	66 3b 56 08	 cmp	 dx, WORD PTR [esi+8]
  00323	74 25		 je	 SHORT $L90640
$L90641:

; 1161 : 		{
; 1162 : 			if(m_file_index)

  00325	8b 46 10	 mov	 eax, DWORD PTR [esi+16]
  00328	85 c0		 test	 eax, eax
  0032a	74 10		 je	 SHORT $L90642

; 1163 : 			{
; 1164 : 				delete m_file_index;

  0032c	50		 push	 eax
  0032d	e8 00 00 00 00	 call	 ??3@YAXPAX@Z		; operator delete
  00332	83 c4 04	 add	 esp, 4

; 1165 : 				m_file_index = NULL;

  00335	c7 46 10 00 00
	00 00		 mov	 DWORD PTR [esi+16], 0
$L90642:

; 1166 : 			}
; 1167 : 
; 1168 : 			Init(m_Size);

  0033c	8b 06		 mov	 eax, DWORD PTR [esi]
  0033e	33 c9		 xor	 ecx, ecx
  00340	66 8b 4e 08	 mov	 cx, WORD PTR [esi+8]
  00344	51		 push	 ecx
  00345	8b ce		 mov	 ecx, esi
  00347	ff 50 04	 call	 DWORD PTR [eax+4]
$L90640:

; 1169 : 
; 1170 : 			//char szBuf[256];
; 1171 : 			//sprintf(szBuf, "CTypePack Invaild Index File: %s = %d, %s = %d\n",
; 1172 : 			//lpszFilename, m_Size, indexFileName.c_str(), indexSize);
; 1173 : 			//
; 1174 : 			//std::ofstream file3("2.log", std::ios::out | std::ios::app);
; 1175 : 			//file3 << szBuf << std::endl;
; 1176 : 			//file3.close();
; 1177 : //#ifdef OUTPUT_DEBUG
; 1178 : //			char szBuf[256];
; 1179 : //			sprintf(szBuf, "CTypePack Invaild Index File: %s = %d, %s = %d\n",
; 1180 : //				lpszFilename, m_Size, indexFileName.c_str(), indexSize);
; 1181 : //			OutputDebugString(szBuf);
; 1182 : //#endif
; 1183 : 		}
; 1184 : 	}

  0034a	8d 8c 24 84 00
	00 00		 lea	 ecx, DWORD PTR _fileHeader$90632[esp+492]
  00351	88 9c 24 e8 01
	00 00		 mov	 BYTE PTR __$EHRec$[esp+500], bl
  00358	c7 84 24 84 00
	00 00 00 00 00
	00		 mov	 DWORD PTR _fileHeader$90632[esp+492], OFFSET FLAT:??_7ivfstream@@6B@
  00363	e8 00 00 00 00	 call	 ??1iovfs_base@@UAE@XZ	; iovfs_base::~iovfs_base
  00368	8b 4c 24 28	 mov	 ecx, DWORD PTR _strHeaderPath$90622[esp+492]
  0036c	8b 44 24 30	 mov	 eax, DWORD PTR _strHeaderPath$90622[esp+500]
  00370	2b c1		 sub	 eax, ecx
  00372	85 c9		 test	 ecx, ecx
  00374	c6 84 24 e8 01
	00 00 02	 mov	 BYTE PTR __$EHRec$[esp+500], 2
  0037c	0f 84 02 01 00
	00		 je	 $L100972
  00382	3d 80 00 00 00	 cmp	 eax, 128		; 00000080H
  00387	76 0e		 jbe	 SHORT $L100707
  00389	51		 push	 ecx
  0038a	e8 00 00 00 00	 call	 ??3@YAXPAX@Z		; operator delete
  0038f	83 c4 04	 add	 esp, 4
  00392	e9 ed 00 00 00	 jmp	 $L100972
$L100707:
  00397	50		 push	 eax
  00398	51		 push	 ecx
  00399	e8 00 00 00 00	 call	 ?_M_deallocate@?$__node_alloc@$00$0A@@_STL@@CAXPAXI@Z ; _STL::__node_alloc<1,0>::_M_deallocate
  0039e	83 c4 08	 add	 esp, 8

; 1185 : 	else

  003a1	e9 de 00 00 00	 jmp	 $L100972
$L90621:

; 1186 : 	{
; 1187 : 		if(m_file == NULL)

  003a6	39 5e 0c	 cmp	 DWORD PTR [esi+12], ebx
  003a9	75 3b		 jne	 SHORT $L100971

; 1188 : 		{
; 1189 : 			m_file = new ivfstream;

  003ab	6a 50		 push	 80			; 00000050H
  003ad	e8 00 00 00 00	 call	 ??2@YAPAXI@Z		; operator new
  003b2	8b f8		 mov	 edi, eax
  003b4	83 c4 04	 add	 esp, 4
  003b7	89 bc 24 d4 00
	00 00		 mov	 DWORD PTR $T100377[esp+492], edi
  003be	3b fb		 cmp	 edi, ebx
  003c0	c6 84 24 e8 01
	00 00 06	 mov	 BYTE PTR __$EHRec$[esp+500], 6
  003c8	74 0f		 je	 SHORT $L100378
  003ca	8b cf		 mov	 ecx, edi
  003cc	e8 00 00 00 00	 call	 ??0iovfs_base@@QAE@XZ	; iovfs_base::iovfs_base
  003d1	c7 07 00 00 00
	00		 mov	 DWORD PTR [edi], OFFSET FLAT:??_7ivfstream@@6B@
  003d7	eb 02		 jmp	 SHORT $L100379
$L100378:
  003d9	33 ff		 xor	 edi, edi
$L100379:
  003db	c6 84 24 e8 01
	00 00 02	 mov	 BYTE PTR __$EHRec$[esp+500], 2
  003e3	89 7e 0c	 mov	 DWORD PTR [esi+12], edi
$L100971:

; 1190 : 		}
; 1191 : 
; 1192 : 		// file sprite  .	
; 1193 : 		m_file->open(lpszFilename, std::ios::binary);

  003e6	8b 4e 0c	 mov	 ecx, DWORD PTR [esi+12]
  003e9	8b 11		 mov	 edx, DWORD PTR [ecx]
  003eb	6a 04		 push	 4
  003ed	55		 push	 ebp
  003ee	ff 52 04	 call	 DWORD PTR [edx+4]

; 1194 : 
; 1195 : 		if(!m_file->is_open())

  003f1	8b 46 0c	 mov	 eax, DWORD PTR [esi+12]
  003f4	8b 48 04	 mov	 ecx, DWORD PTR [eax+4]
  003f7	3b cb		 cmp	 ecx, ebx
  003f9	74 0b		 je	 SHORT $L100723
  003fb	8b c1		 mov	 eax, ecx
  003fd	8b 10		 mov	 edx, DWORD PTR [eax]
  003ff	ff 52 0c	 call	 DWORD PTR [edx+12]
  00402	84 c0		 test	 al, al
  00404	75 56		 jne	 SHORT $L90650
$L100723:

; 1196 : 		{
; 1197 : 			Release();

  00406	8b 06		 mov	 eax, DWORD PTR [esi]
  00408	8b ce		 mov	 ecx, esi
  0040a	ff 50 08	 call	 DWORD PTR [eax+8]
$L100979:

; 1198 : 			return false;

  0040d	8d 4c 24 34	 lea	 ecx, DWORD PTR _indexFile$[esp+492]
  00411	c6 84 24 e8 01
	00 00 01	 mov	 BYTE PTR __$EHRec$[esp+500], 1
  00419	c7 44 24 34 00
	00 00 00	 mov	 DWORD PTR _indexFile$[esp+492], OFFSET FLAT:??_7ivfstream@@6B@
  00421	e8 00 00 00 00	 call	 ??1iovfs_base@@UAE@XZ	; iovfs_base::~iovfs_base
  00426	8b 4c 24 18	 mov	 ecx, DWORD PTR _indexFileName$[esp+492]
  0042a	8b 44 24 20	 mov	 eax, DWORD PTR _indexFileName$[esp+500]
  0042e	2b c1		 sub	 eax, ecx
  00430	3b cb		 cmp	 ecx, ebx
$L100980:
  00432	c7 84 24 e8 01
	00 00 ff ff ff
	ff		 mov	 DWORD PTR __$EHRec$[esp+500], -1
  0043d	0f 84 af 00 00
	00		 je	 $L100874
  00443	3d 80 00 00 00	 cmp	 eax, 128		; 00000080H
  00448	0f 86 9a 00 00
	00		 jbe	 $L100873
  0044e	51		 push	 ecx
  0044f	e8 00 00 00 00	 call	 ??3@YAXPAX@Z		; operator delete
  00454	83 c4 04	 add	 esp, 4
  00457	e9 96 00 00 00	 jmp	 $L100874
$L90650:

; 1199 : 		}
; 1200 : 
; 1201 : 		m_file->read((char*)&m_Size, 2);

  0045c	8b 46 0c	 mov	 eax, DWORD PTR [esi+12]
  0045f	8b 48 04	 mov	 ecx, DWORD PTR [eax+4]
  00462	3b cb		 cmp	 ecx, ebx
  00464	74 0b		 je	 SHORT $L100802
  00466	8b 11		 mov	 edx, DWORD PTR [ecx]
  00468	6a 02		 push	 2
  0046a	8d 46 08	 lea	 eax, DWORD PTR [esi+8]
  0046d	50		 push	 eax
  0046e	ff 52 10	 call	 DWORD PTR [edx+16]
$L100802:

; 1202 : 
; 1203 : 
; 1204 : 		if(!bLoadIndexFile || indexSize != m_Size)

  00471	8a 44 24 13	 mov	 al, BYTE PTR _bLoadIndexFile$[esp+492]
  00475	84 c0		 test	 al, al
  00477	74 63		 je	 SHORT $L100974
  00479	66 8b 4c 24 14	 mov	 cx, WORD PTR _indexSize$[esp+492]
  0047e	66 3b 4e 08	 cmp	 cx, WORD PTR [esi+8]
  00482	75 58		 jne	 SHORT $L100974
$L100972:

; 1208 : 		}
; 1209 : 	}
; 1210 : 
; 1211 : 	m_bRunningLoad = true;
; 1212 : 
; 1213 : 	return true;

  00484	8d 4c 24 34	 lea	 ecx, DWORD PTR _indexFile$[esp+492]
  00488	c6 46 0a 01	 mov	 BYTE PTR [esi+10], 1
  0048c	c6 84 24 e8 01
	00 00 01	 mov	 BYTE PTR __$EHRec$[esp+500], 1
  00494	c7 44 24 34 00
	00 00 00	 mov	 DWORD PTR _indexFile$[esp+492], OFFSET FLAT:??_7ivfstream@@6B@
  0049c	e8 00 00 00 00	 call	 ??1iovfs_base@@UAE@XZ	; iovfs_base::~iovfs_base
  004a1	8b 4c 24 18	 mov	 ecx, DWORD PTR _indexFileName$[esp+492]
  004a5	8b 44 24 20	 mov	 eax, DWORD PTR _indexFileName$[esp+500]
  004a9	2b c1		 sub	 eax, ecx
  004ab	85 c9		 test	 ecx, ecx
  004ad	c7 84 24 e8 01
	00 00 ff ff ff
	ff		 mov	 DWORD PTR __$EHRec$[esp+500], -1
  004b8	74 1e		 je	 SHORT $L100948
  004ba	3d 80 00 00 00	 cmp	 eax, 128		; 00000080H
  004bf	76 0d		 jbe	 SHORT $L100947
  004c1	51		 push	 ecx
  004c2	e8 00 00 00 00	 call	 ??3@YAXPAX@Z		; operator delete
  004c7	83 c4 04	 add	 esp, 4
  004ca	b0 01		 mov	 al, 1
  004cc	eb 26		 jmp	 SHORT $L90604
$L100947:
  004ce	50		 push	 eax
  004cf	51		 push	 ecx
  004d0	e8 00 00 00 00	 call	 ?_M_deallocate@?$__node_alloc@$00$0A@@_STL@@CAXPAXI@Z ; _STL::__node_alloc<1,0>::_M_deallocate
  004d5	83 c4 08	 add	 esp, 8
$L100948:
  004d8	b0 01		 mov	 al, 1
  004da	eb 18		 jmp	 SHORT $L90604
$L100974:

; 1205 : 		{
; 1206 : 			Release();

  004dc	8b 16		 mov	 edx, DWORD PTR [esi]
  004de	8b ce		 mov	 ecx, esi
  004e0	ff 52 08	 call	 DWORD PTR [edx+8]

; 1207 : 			return false;

  004e3	e9 25 ff ff ff	 jmp	 $L100979
$L100873:
  004e8	50		 push	 eax
  004e9	51		 push	 ecx
  004ea	e8 00 00 00 00	 call	 ?_M_deallocate@?$__node_alloc@$00$0A@@_STL@@CAXPAXI@Z ; _STL::__node_alloc<1,0>::_M_deallocate
  004ef	83 c4 08	 add	 esp, 8
$L100874:
  004f2	32 c0		 xor	 al, al
$L90604:

; 1214 : }

  004f4	8b 8c 24 e0 01
	00 00		 mov	 ecx, DWORD PTR __$EHRec$[esp+492]
  004fb	5f		 pop	 edi
  004fc	5e		 pop	 esi
  004fd	5d		 pop	 ebp
  004fe	64 89 0d 00 00
	00 00		 mov	 DWORD PTR fs:__except_list, ecx
  00505	8b 8c 24 d0 01
	00 00		 mov	 ecx, DWORD PTR __$ArrayPad$[esp+480]
  0050c	5b		 pop	 ebx
  0050d	e8 00 00 00 00	 call	 @__security_check_cookie@4
  00512	81 c4 dc 01 00
	00		 add	 esp, 476		; 000001dcH
  00518	c2 04 00	 ret	 4
_TEXT	ENDS
;	COMDAT text$x
text$x	SEGMENT
$L100392:
  00000	8d 8d 2c fe ff
	ff		 lea	 ecx, DWORD PTR _indexFileName$[ebp]
  00006	e9 00 00 00 00	 jmp	 ??1?$_String_base@DV?$allocator@D@_STL@@@_STL@@QAE@XZ ; _STL::_String_base<char,_STL::allocator<char> >::~_String_base<char,_STL::allocator<char> >
$L100383:
  0000b	8d 8d 2c fe ff
	ff		 lea	 ecx, DWORD PTR _indexFileName$[ebp]
  00011	e9 00 00 00 00	 jmp	 ??1?$basic_string@DV?$char_traits@D@_STL@@V?$allocator@D@2@@_STL@@QAE@XZ ; _STL::basic_string<char,_STL::char_traits<char>,_STL::allocator<char> >::~basic_string<char,_STL::char_traits<char>,_STL::allocator<char> >
$L100384:
  00016	8d 8d 48 fe ff
	ff		 lea	 ecx, DWORD PTR _indexFile$[ebp]
  0001c	e9 00 00 00 00	 jmp	 ??1ivfstream@@UAE@XZ	; ivfstream::~ivfstream
$L100385:
  00021	8d 8d 3c fe ff
	ff		 lea	 ecx, DWORD PTR _strHeaderPath$90622[ebp]
  00027	e9 00 00 00 00	 jmp	 ??1?$basic_string@DV?$char_traits@D@_STL@@V?$allocator@D@2@@_STL@@QAE@XZ ; _STL::basic_string<char,_STL::char_traits<char>,_STL::allocator<char> >::~basic_string<char,_STL::char_traits<char>,_STL::allocator<char> >
$L100450:
  0002c	8d 8d 98 fe ff
	ff		 lea	 ecx, DWORD PTR _fileHeader$90632[ebp]
  00032	e9 00 00 00 00	 jmp	 ??1iovfs_base@@UAE@XZ	; iovfs_base::~iovfs_base
$L100386:
  00037	8d 8d 98 fe ff
	ff		 lea	 ecx, DWORD PTR _fileHeader$90632[ebp]
  0003d	e9 00 00 00 00	 jmp	 ??1ivfstream@@UAE@XZ	; ivfstream::~ivfstream
$L100387:
  00042	8b 85 e8 fe ff
	ff		 mov	 eax, DWORD PTR $T100377[ebp]
  00048	50		 push	 eax
  00049	e8 00 00 00 00	 call	 ??3@YAXPAX@Z		; operator delete
  0004e	59		 pop	 ecx
  0004f	c3		 ret	 0
__ehhandler$?LoadFromFileRunning@?$CTypePack2@VCSprite@@VCSprite555@@VCSprite565@@@@UAE_NPBD@Z:
  00050	b8 00 00 00 00	 mov	 eax, OFFSET FLAT:$T100955
  00055	e9 00 00 00 00	 jmp	 ___CxxFrameHandler
text$x	ENDS
?LoadFromFileRunning@?$CTypePack2@VCSprite@@VCSprite555@@VCSprite565@@@@UAE_NPBD@Z ENDP ; CTypePack2<CSprite,CSprite555,CSprite565>::LoadFromFileRunning
PUBLIC	?_M_allocate_block@?$_String_base@DV?$allocator@D@_STL@@@_STL@@QAEXI@Z ; _STL::_String_base<char,_STL::allocator<char> >::_M_allocate_block
; Function compile flags: /Ogty
; File c:\stlport-4.6.1\stlport\stl\_string.h
;	COMDAT ??$_M_range_initialize@PBD@?$basic_string@DV?$char_traits@D@_STL@@V?$allocator@D@2@@_STL@@AAEXPBD0ABUforward_iterator_tag@1@@Z
_TEXT	SEGMENT
___f$ = 8						; size = 4
___l$ = 12						; size = 4
___formal$ = 16						; size = 4
??$_M_range_initialize@PBD@?$basic_string@DV?$char_traits@D@_STL@@V?$allocator@D@2@@_STL@@AAEXPBD0ABUforward_iterator_tag@1@@Z PROC NEAR ; _STL::basic_string<char,_STL::char_traits<char>,_STL::allocator<char> >::_M_range_initialize<char const *>, COMDAT
; _this$ = ecx

; 382  :   template <class _ForwardIter> void _M_range_initialize(_ForwardIter __f, _ForwardIter __l, 

  00000	53		 push	 ebx

; 383  :                            const forward_iterator_tag &) {
; 384  :     difference_type __n = distance(__f, __l);
; 385  :     this->_M_allocate_block(__n + 1);
; 386  :     this->_M_finish = uninitialized_copy(__f, __l, this->_M_start);
; 387  :     _M_terminate_string();

  00001	8b 5c 24 08	 mov	 ebx, DWORD PTR ___f$[esp]
  00005	55		 push	 ebp
  00006	8b 6c 24 10	 mov	 ebp, DWORD PTR ___l$[esp+4]
  0000a	56		 push	 esi
  0000b	8b f5		 mov	 esi, ebp
  0000d	57		 push	 edi
  0000e	2b f3		 sub	 esi, ebx
  00010	8d 46 01	 lea	 eax, DWORD PTR [esi+1]
  00013	50		 push	 eax
  00014	8b f9		 mov	 edi, ecx
  00016	e8 00 00 00 00	 call	 ?_M_allocate_block@?$_String_base@DV?$allocator@D@_STL@@@_STL@@QAEXI@Z ; _STL::_String_base<char,_STL::allocator<char> >::_M_allocate_block
  0001b	3b eb		 cmp	 ebp, ebx
  0001d	8b 07		 mov	 eax, DWORD PTR [edi]
  0001f	74 0d		 je	 SHORT $L101031
  00021	56		 push	 esi
  00022	53		 push	 ebx
  00023	50		 push	 eax
  00024	e8 00 00 00 00	 call	 _memmove
  00029	83 c4 0c	 add	 esp, 12			; 0000000cH
  0002c	03 c6		 add	 eax, esi
$L101031:
  0002e	89 47 04	 mov	 DWORD PTR [edi+4], eax
  00031	5f		 pop	 edi
  00032	5e		 pop	 esi
  00033	5d		 pop	 ebp
  00034	c6 00 00	 mov	 BYTE PTR [eax], 0
  00037	5b		 pop	 ebx

; 388  :   }

  00038	c2 0c 00	 ret	 12			; 0000000cH
??$_M_range_initialize@PBD@?$basic_string@DV?$char_traits@D@_STL@@V?$allocator@D@2@@_STL@@AAEXPBD0ABUforward_iterator_tag@1@@Z ENDP ; _STL::basic_string<char,_STL::char_traits<char>,_STL::allocator<char> >::_M_range_initialize<char const *>
; Function compile flags: /Ogty
; File c:\stlport-4.6.1\stlport\stl\_string.c
_TEXT	ENDS
;	COMDAT ?_M_allocate_block@?$_String_base@DV?$allocator@D@_STL@@@_STL@@QAEXI@Z
_TEXT	SEGMENT
___n$ = 8						; size = 4
?_M_allocate_block@?$_String_base@DV?$allocator@D@_STL@@@_STL@@QAEXI@Z PROC NEAR ; _STL::_String_base<char,_STL::allocator<char> >::_M_allocate_block, COMDAT
; _this$ = ecx

; 530  : template <class _Tp, class _Alloc> void _String_base<_Tp, _Alloc>::_M_allocate_block(size_t __n) {  

  00000	56		 push	 esi

; 531  :   if ((__n <= (max_size()+1)) && (__n>0)){ 

  00001	8b 74 24 08	 mov	 esi, DWORD PTR ___n$[esp]
  00005	83 fe ff	 cmp	 esi, -1
  00008	57		 push	 edi
  00009	8b f9		 mov	 edi, ecx
  0000b	77 3b		 ja	 SHORT $L91838
  0000d	85 f6		 test	 esi, esi
  0000f	76 37		 jbe	 SHORT $L91838

; 532  :     _M_start  = _M_end_of_storage.allocate(__n); 

  00011	81 fe 80 00 00
	00		 cmp	 esi, 128		; 00000080H
  00017	56		 push	 esi
  00018	76 17		 jbe	 SHORT $L101058
  0001a	e8 00 00 00 00	 call	 ??2@YAPAXI@Z		; operator new
  0001f	83 c4 04	 add	 esp, 4
  00022	89 07		 mov	 DWORD PTR [edi], eax

; 533  :     _M_finish = _M_start; 

  00024	89 47 04	 mov	 DWORD PTR [edi+4], eax

; 534  :     _M_end_of_storage._M_data = _M_start + __n; 

  00027	03 c6		 add	 eax, esi
  00029	89 47 08	 mov	 DWORD PTR [edi+8], eax
  0002c	5f		 pop	 edi
  0002d	5e		 pop	 esi

; 538  : } 

  0002e	c2 04 00	 ret	 4

; 532  :     _M_start  = _M_end_of_storage.allocate(__n); 

$L101058:
  00031	e8 00 00 00 00	 call	 ?_M_allocate@?$__node_alloc@$00$0A@@_STL@@CAPAXI@Z ; _STL::__node_alloc<1,0>::_M_allocate
  00036	83 c4 04	 add	 esp, 4
  00039	89 07		 mov	 DWORD PTR [edi], eax

; 533  :     _M_finish = _M_start; 

  0003b	89 47 04	 mov	 DWORD PTR [edi+4], eax

; 534  :     _M_end_of_storage._M_data = _M_start + __n; 

  0003e	03 c6		 add	 eax, esi
  00040	89 47 08	 mov	 DWORD PTR [edi+8], eax
  00043	5f		 pop	 edi
  00044	5e		 pop	 esi

; 538  : } 

  00045	c2 04 00	 ret	 4
$L91838:

; 535  :   } 
; 536  :     else 
; 537  :       _M_throw_length_error(); 

  00048	68 00 00 00 00	 push	 OFFSET FLAT:??_C@_0N@GOPDCEEB@basic_string?$AA@
  0004d	e8 00 00 00 00	 call	 ?__stl_throw_length_error@_STL@@YAXPBD@Z ; _STL::__stl_throw_length_error
  00052	83 c4 04	 add	 esp, 4
  00055	5f		 pop	 edi
  00056	5e		 pop	 esi

; 538  : } 

  00057	c2 04 00	 ret	 4
?_M_allocate_block@?$_String_base@DV?$allocator@D@_STL@@@_STL@@QAEXI@Z ENDP ; _STL::_String_base<char,_STL::allocator<char> >::_M_allocate_block
_TEXT	ENDS
PUBLIC	?reserve@?$basic_string@DV?$char_traits@D@_STL@@V?$allocator@D@2@@_STL@@QAEXI@Z ; _STL::basic_string<char,_STL::char_traits<char>,_STL::allocator<char> >::reserve
; Function compile flags: /Ogty
; File c:\stlport-4.6.1\stlport\stl\_string.h
;	COMDAT ?push_back@?$basic_string@DV?$char_traits@D@_STL@@V?$allocator@D@2@@_STL@@QAEXD@Z
_TEXT	SEGMENT
$T101070 = -8						; size = 4
$T101071 = -4						; size = 4
___c$ = 8						; size = 1
?push_back@?$basic_string@DV?$char_traits@D@_STL@@V?$allocator@D@2@@_STL@@QAEXD@Z PROC NEAR ; _STL::basic_string<char,_STL::char_traits<char>,_STL::allocator<char> >::push_back, COMDAT
; _this$ = ecx

; 517  :   void push_back(_CharT __c) {

  00000	83 ec 08	 sub	 esp, 8
  00003	56		 push	 esi
  00004	8b f1		 mov	 esi, ecx

; 518  :     if (this->_M_finish + 1 == this->_M_end_of_storage._M_data)

  00006	8b 46 04	 mov	 eax, DWORD PTR [esi+4]
  00009	8b 56 08	 mov	 edx, DWORD PTR [esi+8]
  0000c	8d 48 01	 lea	 ecx, DWORD PTR [eax+1]
  0000f	3b ca		 cmp	 ecx, edx
  00011	75 27		 jne	 SHORT $L91244

; 519  :       reserve(size() + (max)(size(), __STATIC_CAST(size_type,1)));

  00013	2b 06		 sub	 eax, DWORD PTR [esi]
  00015	83 f8 01	 cmp	 eax, 1
  00018	c7 44 24 04 01
	00 00 00	 mov	 DWORD PTR $T101070[esp+12], 1
  00020	89 44 24 08	 mov	 DWORD PTR $T101071[esp+12], eax
  00024	8d 4c 24 04	 lea	 ecx, DWORD PTR $T101070[esp+12]
  00028	72 04		 jb	 SHORT $L101086
  0002a	8d 4c 24 08	 lea	 ecx, DWORD PTR $T101071[esp+12]
$L101086:
  0002e	8b 11		 mov	 edx, DWORD PTR [ecx]
  00030	03 d0		 add	 edx, eax
  00032	52		 push	 edx
  00033	8b ce		 mov	 ecx, esi
  00035	e8 00 00 00 00	 call	 ?reserve@?$basic_string@DV?$char_traits@D@_STL@@V?$allocator@D@2@@_STL@@QAEXI@Z ; _STL::basic_string<char,_STL::char_traits<char>,_STL::allocator<char> >::reserve
$L91244:

; 520  :     _M_construct_null(this->_M_finish + 1);

  0003a	8b 46 04	 mov	 eax, DWORD PTR [esi+4]

; 521  :     _Traits::assign(*(this->_M_finish), __c);

  0003d	8a 54 24 10	 mov	 dl, BYTE PTR ___c$[esp+8]
  00041	c6 40 01 00	 mov	 BYTE PTR [eax+1], 0
  00045	8b 4e 04	 mov	 ecx, DWORD PTR [esi+4]
  00048	88 11		 mov	 BYTE PTR [ecx], dl

; 522  :     ++this->_M_finish;

  0004a	ff 46 04	 inc	 DWORD PTR [esi+4]
  0004d	5e		 pop	 esi

; 523  :   }

  0004e	83 c4 08	 add	 esp, 8
  00051	c2 04 00	 ret	 4
?push_back@?$basic_string@DV?$char_traits@D@_STL@@V?$allocator@D@2@@_STL@@QAEXD@Z ENDP ; _STL::basic_string<char,_STL::char_traits<char>,_STL::allocator<char> >::push_back
; Function compile flags: /Ogty
; File c:\stlport-4.6.1\stlport\stl\_string.c
_TEXT	ENDS
;	COMDAT ?reserve@?$basic_string@DV?$char_traits@D@_STL@@V?$allocator@D@2@@_STL@@QAEXI@Z
_TEXT	SEGMENT
___n$91525 = 8						; size = 4
___res_arg$ = 8						; size = 4
?reserve@?$basic_string@DV?$char_traits@D@_STL@@V?$allocator@D@2@@_STL@@QAEXI@Z PROC NEAR ; _STL::basic_string<char,_STL::char_traits<char>,_STL::allocator<char> >::reserve, COMDAT
; _this$ = ecx

; 57   : template <class _CharT, class _Traits, class _Alloc> void basic_string<_CharT,_Traits,_Alloc>::reserve(size_type __res_arg) {

  00000	53		 push	 ebx

; 58   : 
; 59   :   if (__res_arg >= capacity())

  00001	8b 5c 24 08	 mov	 ebx, DWORD PTR ___res_arg$[esp]
  00005	56		 push	 esi
  00006	57		 push	 edi
  00007	8b f9		 mov	 edi, ecx
  00009	8b 47 08	 mov	 eax, DWORD PTR [edi+8]
  0000c	2b 07		 sub	 eax, DWORD PTR [edi]
  0000e	48		 dec	 eax
  0000f	3b d8		 cmp	 ebx, eax
  00011	0f 82 a5 00 00
	00		 jb	 $L91523

; 60   :     {      
; 61   :       if (__res_arg > max_size())

  00017	83 fb fe	 cmp	 ebx, -2			; fffffffeH
  0001a	76 0d		 jbe	 SHORT $L101119

; 62   : 	this->_M_throw_length_error();

  0001c	68 00 00 00 00	 push	 OFFSET FLAT:??_C@_0N@GOPDCEEB@basic_string?$AA@
  00021	e8 00 00 00 00	 call	 ?__stl_throw_length_error@_STL@@YAXPBD@Z ; _STL::__stl_throw_length_error
  00026	83 c4 04	 add	 esp, 4
$L101119:

; 63   : 
; 64   :       size_type __n = __res_arg + 1;

  00029	43		 inc	 ebx
  0002a	55		 push	 ebp
  0002b	89 5c 24 14	 mov	 DWORD PTR ___n$91525[esp+12], ebx

; 65   :       pointer __new_start = this->_M_end_of_storage.allocate(__n);

  0002f	74 21		 je	 SHORT $L101137
  00031	81 fb 80 00 00
	00		 cmp	 ebx, 128		; 00000080H
  00037	53		 push	 ebx
  00038	76 0c		 jbe	 SHORT $L101141
  0003a	e8 00 00 00 00	 call	 ??2@YAPAXI@Z		; operator new
  0003f	83 c4 04	 add	 esp, 4
  00042	8b e8		 mov	 ebp, eax
  00044	eb 0e		 jmp	 SHORT $L101138
$L101141:
  00046	e8 00 00 00 00	 call	 ?_M_allocate@?$__node_alloc@$00$0A@@_STL@@CAPAXI@Z ; _STL::__node_alloc<1,0>::_M_allocate
  0004b	83 c4 04	 add	 esp, 4
  0004e	8b e8		 mov	 ebp, eax
  00050	eb 02		 jmp	 SHORT $L101138
$L101137:
  00052	33 ed		 xor	 ebp, ebp
$L101138:

; 66   :       pointer __new_finish = __new_start;
; 67   :       
; 68   :       _STLP_TRY {
; 69   : 	__new_finish = uninitialized_copy(this->_M_start, this->_M_finish, __new_start);

  00054	8b 4f 04	 mov	 ecx, DWORD PTR [edi+4]
  00057	8b 07		 mov	 eax, DWORD PTR [edi]
  00059	3b c8		 cmp	 ecx, eax
  0005b	75 04		 jne	 SHORT $L101241
  0005d	8b f5		 mov	 esi, ebp
  0005f	eb 17		 jmp	 SHORT $L101242
$L101241:
  00061	8b d9		 mov	 ebx, ecx
  00063	2b d8		 sub	 ebx, eax
  00065	53		 push	 ebx
  00066	50		 push	 eax
  00067	55		 push	 ebp
  00068	e8 00 00 00 00	 call	 _memmove
  0006d	8b f0		 mov	 esi, eax
  0006f	83 c4 0c	 add	 esp, 12			; 0000000cH
  00072	03 f3		 add	 esi, ebx
  00074	8b 5c 24 14	 mov	 ebx, DWORD PTR ___n$91525[esp+12]
$L101242:

; 70   : 	_M_construct_null(__new_finish);

  00078	c6 06 00	 mov	 BYTE PTR [esi], 0

; 71   :       }
; 72   :       _STLP_UNWIND((_STLP_STD::_Destroy(__new_start, __new_finish), 
; 73   : 		    this->_M_end_of_storage.deallocate(__new_start, __n)));
; 74   :       
; 75   :       _STLP_STD::_Destroy(this->_M_start, this->_M_finish + 1);
; 76   :       this->_M_deallocate_block();

  0007b	8b 0f		 mov	 ecx, DWORD PTR [edi]
  0007d	8b 47 08	 mov	 eax, DWORD PTR [edi+8]
  00080	2b c1		 sub	 eax, ecx
  00082	85 c9		 test	 ecx, ecx
  00084	74 2b		 je	 SHORT $L101293
  00086	3d 80 00 00 00	 cmp	 eax, 128		; 00000080H
  0008b	76 1a		 jbe	 SHORT $L101292
  0008d	51		 push	 ecx
  0008e	e8 00 00 00 00	 call	 ??3@YAXPAX@Z		; operator delete
  00093	83 c4 04	 add	 esp, 4

; 77   :       this->_M_start = __new_start;

  00096	89 2f		 mov	 DWORD PTR [edi], ebp

; 78   :       this->_M_finish = __new_finish;
; 79   :       this->_M_end_of_storage._M_data = __new_start + __n;

  00098	03 eb		 add	 ebp, ebx
  0009a	89 6f 08	 mov	 DWORD PTR [edi+8], ebp
  0009d	5d		 pop	 ebp
  0009e	89 77 04	 mov	 DWORD PTR [edi+4], esi
  000a1	5f		 pop	 edi
  000a2	5e		 pop	 esi
  000a3	5b		 pop	 ebx

; 80   :     }
; 81   : }

  000a4	c2 04 00	 ret	 4

; 71   :       }
; 72   :       _STLP_UNWIND((_STLP_STD::_Destroy(__new_start, __new_finish), 
; 73   : 		    this->_M_end_of_storage.deallocate(__new_start, __n)));
; 74   :       
; 75   :       _STLP_STD::_Destroy(this->_M_start, this->_M_finish + 1);
; 76   :       this->_M_deallocate_block();

$L101292:
  000a7	50		 push	 eax
  000a8	51		 push	 ecx
  000a9	e8 00 00 00 00	 call	 ?_M_deallocate@?$__node_alloc@$00$0A@@_STL@@CAXPAXI@Z ; _STL::__node_alloc<1,0>::_M_deallocate
  000ae	83 c4 08	 add	 esp, 8
$L101293:

; 77   :       this->_M_start = __new_start;

  000b1	89 2f		 mov	 DWORD PTR [edi], ebp

; 78   :       this->_M_finish = __new_finish;
; 79   :       this->_M_end_of_storage._M_data = __new_start + __n;

  000b3	03 eb		 add	 ebp, ebx
  000b5	89 6f 08	 mov	 DWORD PTR [edi+8], ebp
  000b8	89 77 04	 mov	 DWORD PTR [edi+4], esi
  000bb	5d		 pop	 ebp
$L91523:
  000bc	5f		 pop	 edi
  000bd	5e		 pop	 esi
  000be	5b		 pop	 ebx

; 80   :     }
; 81   : }

  000bf	c2 04 00	 ret	 4
?reserve@?$basic_string@DV?$char_traits@D@_STL@@V?$allocator@D@2@@_STL@@QAEXI@Z ENDP ; _STL::basic_string<char,_STL::char_traits<char>,_STL::allocator<char> >::reserve
_TEXT	ENDS
PUBLIC	?get_allocator@?$basic_string@DV?$char_traits@D@_STL@@V?$allocator@D@2@@_STL@@QBE?AV?$allocator@D@2@XZ ; _STL::basic_string<char,_STL::char_traits<char>,_STL::allocator<char> >::get_allocator
PUBLIC	??0?$basic_string@DV?$char_traits@D@_STL@@V?$allocator@D@2@@_STL@@QAE@U_String_reserve_t@1@IABV?$allocator@D@1@@Z ; _STL::basic_string<char,_STL::char_traits<char>,_STL::allocator<char> >::basic_string<char,_STL::char_traits<char>,_STL::allocator<char> >
PUBLIC	??0?$basic_string@DV?$char_traits@D@_STL@@V?$allocator@D@2@@_STL@@QAE@ABV01@@Z ; _STL::basic_string<char,_STL::char_traits<char>,_STL::allocator<char> >::basic_string<char,_STL::char_traits<char>,_STL::allocator<char> >
PUBLIC	?append@?$basic_string@DV?$char_traits@D@_STL@@V?$allocator@D@2@@_STL@@QAEAAV12@ABV12@@Z ; _STL::basic_string<char,_STL::char_traits<char>,_STL::allocator<char> >::append
;	COMDAT xdata$x
; File c:\stlport-4.6.1\stlport\stl\_new.h
xdata$x	SEGMENT
$T101477 DD	0ffffffffH
	DD	FLAT:$L101305
	DD	00H
	DD	FLAT:$L101304
$T101473 DD	019930520H
	DD	02H
	DD	FLAT:$T101477
	DD	2 DUP(00H)
	DD	2 DUP(00H)
; Function compile flags: /Ogty
; File c:\stlport-4.6.1\stlport\stl\_string.h
xdata$x	ENDS
;	COMDAT ??$?HDV?$char_traits@D@_STL@@V?$allocator@D@1@@_STL@@YA?AV?$basic_string@DV?$char_traits@D@_STL@@V?$allocator@D@2@@0@ABV10@PBD@Z
_TEXT	SEGMENT
$T101303 = -32						; size = 1
$T101306 = -28						; size = 4
___result$ = -24					; size = 12
__$EHRec$ = -12						; size = 12
___$ReturnUdt$ = 8					; size = 4
___x$ = 12						; size = 4
$T101367 = 16						; size = 1
$T101302 = 16						; size = 1
___s$ = 16						; size = 4
??$?HDV?$char_traits@D@_STL@@V?$allocator@D@1@@_STL@@YA?AV?$basic_string@DV?$char_traits@D@_STL@@V?$allocator@D@2@@0@ABV10@PBD@Z PROC NEAR ; _STL::operator+<char,_STL::char_traits<char>,_STL::allocator<char> >, COMDAT

; 1292 :           const _CharT* __s) {

  00000	6a ff		 push	 -1
  00002	68 00 00 00 00	 push	 __ehhandler$??$?HDV?$char_traits@D@_STL@@V?$allocator@D@1@@_STL@@YA?AV?$basic_string@DV?$char_traits@D@_STL@@V?$allocator@D@2@@0@ABV10@PBD@Z
  00007	64 a1 00 00 00
	00		 mov	 eax, DWORD PTR fs:__except_list
  0000d	50		 push	 eax
  0000e	64 89 25 00 00
	00 00		 mov	 DWORD PTR fs:__except_list, esp
  00015	83 ec 14	 sub	 esp, 20			; 00000014H
  00018	53		 push	 ebx
  00019	55		 push	 ebp
  0001a	c7 44 24 0c 00
	00 00 00	 mov	 DWORD PTR $T101306[esp+40], 0

; 1293 :   _STLP_FIX_LITERAL_BUG(__s)
; 1294 :   typedef basic_string<_CharT,_Traits,_Alloc> _Str;
; 1295 :   typedef typename _Str::_Reserve_t _Reserve_t;
; 1296 :   const size_t __n = _Traits::length(__s);

  00022	8b 5c 24 34	 mov	 ebx, DWORD PTR ___s$[esp+36]
  00026	56		 push	 esi
  00027	8b c3		 mov	 eax, ebx
  00029	57		 push	 edi
  0002a	8d 50 01	 lea	 edx, DWORD PTR [eax+1]
  0002d	8d 49 00	 npad	 3
$L101474:
  00030	8a 08		 mov	 cl, BYTE PTR [eax]
  00032	40		 inc	 eax
  00033	84 c9		 test	 cl, cl
  00035	75 f9		 jne	 SHORT $L101474

; 1297 : # ifdef _STLP_INIT_AMBIGUITY
; 1298 :   _Str __result = _Str(_Reserve_t(), __x.size() + __n, __x.get_allocator());
; 1299 : # else
; 1300 :   _Str __result(_Reserve_t(), __x.size() + __n, __x.get_allocator());

  00037	8b 74 24 38	 mov	 esi, DWORD PTR ___x$[esp+44]
  0003b	8b 7e 04	 mov	 edi, DWORD PTR [esi+4]
  0003e	2b c2		 sub	 eax, edx
  00040	8b e8		 mov	 ebp, eax
  00042	2b 3e		 sub	 edi, DWORD PTR [esi]
  00044	8d 44 24 3c	 lea	 eax, DWORD PTR $T101302[esp+44]
  00048	88 4c 24 10	 mov	 BYTE PTR $T101303[esp+48], cl
  0004c	50		 push	 eax
  0004d	8b ce		 mov	 ecx, esi
  0004f	e8 00 00 00 00	 call	 ?get_allocator@?$basic_string@DV?$char_traits@D@_STL@@V?$allocator@D@2@@_STL@@QBE?AV?$allocator@D@2@XZ ; _STL::basic_string<char,_STL::char_traits<char>,_STL::allocator<char> >::get_allocator
  00054	8b 4c 24 10	 mov	 ecx, DWORD PTR $T101303[esp+48]
  00058	50		 push	 eax
  00059	03 fd		 add	 edi, ebp
  0005b	57		 push	 edi
  0005c	51		 push	 ecx
  0005d	8d 4c 24 24	 lea	 ecx, DWORD PTR ___result$[esp+60]
  00061	e8 00 00 00 00	 call	 ??0?$basic_string@DV?$char_traits@D@_STL@@V?$allocator@D@2@@_STL@@QAE@U_String_reserve_t@1@IABV?$allocator@D@1@@Z ; _STL::basic_string<char,_STL::char_traits<char>,_STL::allocator<char> >::basic_string<char,_STL::char_traits<char>,_STL::allocator<char> >
  00066	bf 01 00 00 00	 mov	 edi, 1

; 1301 : # endif
; 1302 :   __result.append(__x);

  0006b	56		 push	 esi
  0006c	8d 4c 24 1c	 lea	 ecx, DWORD PTR ___result$[esp+52]
  00070	89 7c 24 30	 mov	 DWORD PTR __$EHRec$[esp+60], edi
  00074	e8 00 00 00 00	 call	 ?append@?$basic_string@DV?$char_traits@D@_STL@@V?$allocator@D@2@@_STL@@QAEAAV12@ABV12@@Z ; _STL::basic_string<char,_STL::char_traits<char>,_STL::allocator<char> >::append

; 1303 :   __result.append(__s, __s + __n);

  00079	8d 54 24 3c	 lea	 edx, DWORD PTR $T101367[esp+44]
  0007d	52		 push	 edx
  0007e	03 eb		 add	 ebp, ebx
  00080	55		 push	 ebp
  00081	53		 push	 ebx
  00082	8d 4c 24 24	 lea	 ecx, DWORD PTR ___result$[esp+60]
  00086	e8 00 00 00 00	 call	 ??$append@PBD@?$basic_string@DV?$char_traits@D@_STL@@V?$allocator@D@2@@_STL@@AAEAAV01@PBD0ABUforward_iterator_tag@1@@Z ; _STL::basic_string<char,_STL::char_traits<char>,_STL::allocator<char> >::append<char const *>

; 1304 :   return __result;

  0008b	8b 74 24 34	 mov	 esi, DWORD PTR ___$ReturnUdt$[esp+44]
  0008f	8d 44 24 18	 lea	 eax, DWORD PTR ___result$[esp+48]
  00093	50		 push	 eax
  00094	8b ce		 mov	 ecx, esi
  00096	e8 00 00 00 00	 call	 ??0?$basic_string@DV?$char_traits@D@_STL@@V?$allocator@D@2@@_STL@@QAE@ABV01@@Z ; _STL::basic_string<char,_STL::char_traits<char>,_STL::allocator<char> >::basic_string<char,_STL::char_traits<char>,_STL::allocator<char> >
  0009b	8b 4c 24 18	 mov	 ecx, DWORD PTR ___result$[esp+48]
  0009f	8b 44 24 20	 mov	 eax, DWORD PTR ___result$[esp+56]
  000a3	2b c1		 sub	 eax, ecx
  000a5	85 c9		 test	 ecx, ecx
  000a7	89 7c 24 14	 mov	 DWORD PTR $T101306[esp+48], edi
  000ab	c6 44 24 2c 00	 mov	 BYTE PTR __$EHRec$[esp+56], 0
  000b0	74 2f		 je	 SHORT $L101475
  000b2	3d 80 00 00 00	 cmp	 eax, 128		; 00000080H
  000b7	76 1e		 jbe	 SHORT $L101465
  000b9	51		 push	 ecx
  000ba	e8 00 00 00 00	 call	 ??3@YAXPAX@Z		; operator delete
  000bf	83 c4 04	 add	 esp, 4
  000c2	5f		 pop	 edi
  000c3	8b c6		 mov	 eax, esi
  000c5	5e		 pop	 esi
  000c6	5d		 pop	 ebp
  000c7	5b		 pop	 ebx

; 1305 : }

  000c8	8b 4c 24 14	 mov	 ecx, DWORD PTR __$EHRec$[esp+32]
  000cc	64 89 0d 00 00
	00 00		 mov	 DWORD PTR fs:__except_list, ecx
  000d3	83 c4 20	 add	 esp, 32			; 00000020H
  000d6	c3		 ret	 0

; 1304 :   return __result;

$L101465:
  000d7	50		 push	 eax
  000d8	51		 push	 ecx
  000d9	e8 00 00 00 00	 call	 ?_M_deallocate@?$__node_alloc@$00$0A@@_STL@@CAXPAXI@Z ; _STL::__node_alloc<1,0>::_M_deallocate
  000de	83 c4 08	 add	 esp, 8
$L101475:

; 1305 : }

  000e1	8b 4c 24 24	 mov	 ecx, DWORD PTR __$EHRec$[esp+48]
  000e5	5f		 pop	 edi
  000e6	8b c6		 mov	 eax, esi
  000e8	5e		 pop	 esi
  000e9	5d		 pop	 ebp
  000ea	5b		 pop	 ebx
  000eb	64 89 0d 00 00
	00 00		 mov	 DWORD PTR fs:__except_list, ecx
  000f2	83 c4 20	 add	 esp, 32			; 00000020H
  000f5	c3		 ret	 0
_TEXT	ENDS
;	COMDAT text$x
text$x	SEGMENT
$L101304:
  00000	8d 4d e8	 lea	 ecx, DWORD PTR ___result$[ebp]
  00003	e9 00 00 00 00	 jmp	 ??1?$basic_string@DV?$char_traits@D@_STL@@V?$allocator@D@2@@_STL@@QAE@XZ ; _STL::basic_string<char,_STL::char_traits<char>,_STL::allocator<char> >::~basic_string<char,_STL::char_traits<char>,_STL::allocator<char> >
$L101305:
  00008	8b 45 e4	 mov	 eax, DWORD PTR $T101306[ebp]
  0000b	83 e0 01	 and	 eax, 1
  0000e	0f 84 0c 00 00
	00		 je	 $L101307
  00014	83 65 e4 fe	 and	 DWORD PTR $T101306[ebp], -2 ; fffffffeH
  00018	8b 4d 04	 mov	 ecx, DWORD PTR ___$ReturnUdt$[ebp-4]
  0001b	e9 00 00 00 00	 jmp	 ??1?$basic_string@DV?$char_traits@D@_STL@@V?$allocator@D@2@@_STL@@QAE@XZ ; _STL::basic_string<char,_STL::char_traits<char>,_STL::allocator<char> >::~basic_string<char,_STL::char_traits<char>,_STL::allocator<char> >
$L101307:
  00020	c3		 ret	 0
__ehhandler$??$?HDV?$char_traits@D@_STL@@V?$allocator@D@1@@_STL@@YA?AV?$basic_string@DV?$char_traits@D@_STL@@V?$allocator@D@2@@0@ABV10@PBD@Z:
  00021	b8 00 00 00 00	 mov	 eax, OFFSET FLAT:$T101473
  00026	e9 00 00 00 00	 jmp	 ___CxxFrameHandler
text$x	ENDS
??$?HDV?$char_traits@D@_STL@@V?$allocator@D@1@@_STL@@YA?AV?$basic_string@DV?$char_traits@D@_STL@@V?$allocator@D@2@@0@ABV10@PBD@Z ENDP ; _STL::operator+<char,_STL::char_traits<char>,_STL::allocator<char> >
; Function compile flags: /Ogty
;	COMDAT ?get_allocator@?$basic_string@DV?$char_traits@D@_STL@@V?$allocator@D@2@@_STL@@QBE?AV?$allocator@D@2@XZ
_TEXT	SEGMENT
___$ReturnUdt$ = 8					; size = 4
?get_allocator@?$basic_string@DV?$char_traits@D@_STL@@V?$allocator@D@2@@_STL@@QBE?AV?$allocator@D@2@XZ PROC NEAR ; _STL::basic_string<char,_STL::char_traits<char>,_STL::allocator<char> >::get_allocator, COMDAT
; _this$ = ecx

; 216  :     return _STLP_CONVERT_ALLOCATOR((const allocator_type&)this->_M_end_of_storage, _CharT);

  00000	8b 44 24 04	 mov	 eax, DWORD PTR ___$ReturnUdt$[esp-4]

; 217  :   }

  00004	c2 04 00	 ret	 4
?get_allocator@?$basic_string@DV?$char_traits@D@_STL@@V?$allocator@D@2@@_STL@@QBE?AV?$allocator@D@2@XZ ENDP ; _STL::basic_string<char,_STL::char_traits<char>,_STL::allocator<char> >::get_allocator
; Function compile flags: /Ogty
_TEXT	ENDS
;	COMDAT ??0?$basic_string@DV?$char_traits@D@_STL@@V?$allocator@D@2@@_STL@@QAE@U_String_reserve_t@1@IABV?$allocator@D@1@@Z
_TEXT	SEGMENT
___formal$ = 8						; size = 1
___n$ = 12						; size = 4
___a$ = 16						; size = 4
??0?$basic_string@DV?$char_traits@D@_STL@@V?$allocator@D@2@@_STL@@QAE@U_String_reserve_t@1@IABV?$allocator@D@1@@Z PROC NEAR ; _STL::basic_string<char,_STL::char_traits<char>,_STL::allocator<char> >::basic_string<char,_STL::char_traits<char>,_STL::allocator<char> >, COMDAT
; _this$ = ecx

; 228  :     : _String_base<_CharT,_Alloc>(__a, __n + 1) { 

  00000	8b 44 24 08	 mov	 eax, DWORD PTR ___n$[esp-4]
  00004	56		 push	 esi
  00005	8b f1		 mov	 esi, ecx
  00007	40		 inc	 eax
  00008	c7 06 00 00 00
	00		 mov	 DWORD PTR [esi], 0
  0000e	c7 46 04 00 00
	00 00		 mov	 DWORD PTR [esi+4], 0
  00015	50		 push	 eax
  00016	c7 46 08 00 00
	00 00		 mov	 DWORD PTR [esi+8], 0
  0001d	e8 00 00 00 00	 call	 ?_M_allocate_block@?$_String_base@DV?$allocator@D@_STL@@@_STL@@QAEXI@Z ; _STL::_String_base<char,_STL::allocator<char> >::_M_allocate_block

; 229  :     _M_terminate_string(); 

  00022	8b 4e 04	 mov	 ecx, DWORD PTR [esi+4]

; 230  :   }

  00025	8b c6		 mov	 eax, esi
  00027	c6 01 00	 mov	 BYTE PTR [ecx], 0
  0002a	5e		 pop	 esi
  0002b	c2 0c 00	 ret	 12			; 0000000cH
??0?$basic_string@DV?$char_traits@D@_STL@@V?$allocator@D@2@@_STL@@QAE@U_String_reserve_t@1@IABV?$allocator@D@1@@Z ENDP ; _STL::basic_string<char,_STL::char_traits<char>,_STL::allocator<char> >::basic_string<char,_STL::char_traits<char>,_STL::allocator<char> >
_TEXT	ENDS
PUBLIC	??$_M_range_initialize@PAD@?$basic_string@DV?$char_traits@D@_STL@@V?$allocator@D@2@@_STL@@AAEXPAD0ABUforward_iterator_tag@1@@Z ; _STL::basic_string<char,_STL::char_traits<char>,_STL::allocator<char> >::_M_range_initialize<char *>
;	COMDAT xdata$x
xdata$x	SEGMENT
$T101555 DD	0ffffffffH
	DD	FLAT:$L101510
$T101553 DD	019930520H
	DD	01H
	DD	FLAT:$T101555
	DD	2 DUP(00H)
	DD	2 DUP(00H)
; Function compile flags: /Ogty
; File c:\stlport-4.6.1\stlport\stl\_string.c
xdata$x	ENDS
;	COMDAT ??0?$basic_string@DV?$char_traits@D@_STL@@V?$allocator@D@2@@_STL@@QAE@ABV01@@Z
_TEXT	SEGMENT
_this$ = -16						; size = 4
__$EHRec$ = -12						; size = 12
$T101548 = 8						; size = 1
___s$ = 8						; size = 4
??0?$basic_string@DV?$char_traits@D@_STL@@V?$allocator@D@2@@_STL@@QAE@ABV01@@Z PROC NEAR ; _STL::basic_string<char,_STL::char_traits<char>,_STL::allocator<char> >::basic_string<char,_STL::char_traits<char>,_STL::allocator<char> >, COMDAT
; _this$ = ecx

; 560  : {  

  00000	6a ff		 push	 -1
  00002	68 00 00 00 00	 push	 __ehhandler$??0?$basic_string@DV?$char_traits@D@_STL@@V?$allocator@D@2@@_STL@@QAE@ABV01@@Z
  00007	64 a1 00 00 00
	00		 mov	 eax, DWORD PTR fs:__except_list
  0000d	50		 push	 eax
  0000e	64 89 25 00 00
	00 00		 mov	 DWORD PTR fs:__except_list, esp
  00015	51		 push	 ecx
  00016	33 c0		 xor	 eax, eax
  00018	56		 push	 esi
  00019	8b f1		 mov	 esi, ecx
  0001b	89 06		 mov	 DWORD PTR [esi], eax
  0001d	89 46 04	 mov	 DWORD PTR [esi+4], eax
  00020	89 74 24 04	 mov	 DWORD PTR _this$[esp+20], esi
  00024	89 46 08	 mov	 DWORD PTR [esi+8], eax
  00027	89 44 24 10	 mov	 DWORD PTR __$EHRec$[esp+28], eax

; 561  :   _M_range_initialize(__s._M_start, __s._M_finish);  

  0002b	8d 44 24 18	 lea	 eax, DWORD PTR $T101548[esp+16]
  0002f	50		 push	 eax
  00030	8b 44 24 1c	 mov	 eax, DWORD PTR ___s$[esp+20]
  00034	8b 48 04	 mov	 ecx, DWORD PTR [eax+4]
  00037	8b 10		 mov	 edx, DWORD PTR [eax]
  00039	51		 push	 ecx
  0003a	52		 push	 edx
  0003b	8b ce		 mov	 ecx, esi
  0003d	e8 00 00 00 00	 call	 ??$_M_range_initialize@PAD@?$basic_string@DV?$char_traits@D@_STL@@V?$allocator@D@2@@_STL@@AAEXPAD0ABUforward_iterator_tag@1@@Z ; _STL::basic_string<char,_STL::char_traits<char>,_STL::allocator<char> >::_M_range_initialize<char *>

; 562  : } 

  00042	8b 4c 24 08	 mov	 ecx, DWORD PTR __$EHRec$[esp+20]
  00046	8b c6		 mov	 eax, esi
  00048	5e		 pop	 esi
  00049	64 89 0d 00 00
	00 00		 mov	 DWORD PTR fs:__except_list, ecx
  00050	83 c4 10	 add	 esp, 16			; 00000010H
  00053	c2 04 00	 ret	 4
_TEXT	ENDS
;	COMDAT text$x
text$x	SEGMENT
$L101510:
  00000	8b 4d f0	 mov	 ecx, DWORD PTR _this$[ebp]
  00003	e9 00 00 00 00	 jmp	 ??1?$_String_base@DV?$allocator@D@_STL@@@_STL@@QAE@XZ ; _STL::_String_base<char,_STL::allocator<char> >::~_String_base<char,_STL::allocator<char> >
__ehhandler$??0?$basic_string@DV?$char_traits@D@_STL@@V?$allocator@D@2@@_STL@@QAE@ABV01@@Z:
  00008	b8 00 00 00 00	 mov	 eax, OFFSET FLAT:$T101553
  0000d	e9 00 00 00 00	 jmp	 ___CxxFrameHandler
text$x	ENDS
??0?$basic_string@DV?$char_traits@D@_STL@@V?$allocator@D@2@@_STL@@QAE@ABV01@@Z ENDP ; _STL::basic_string<char,_STL::char_traits<char>,_STL::allocator<char> >::basic_string<char,_STL::char_traits<char>,_STL::allocator<char> >
; Function compile flags: /Ogty
; File c:\stlport-4.6.1\stlport\stl\_string.h
;	COMDAT ??$_M_range_initialize@PAD@?$basic_string@DV?$char_traits@D@_STL@@V?$allocator@D@2@@_STL@@AAEXPAD0ABUforward_iterator_tag@1@@Z
_TEXT	SEGMENT
___f$ = 8						; size = 4
___l$ = 12						; size = 4
___formal$ = 16						; size = 4
??$_M_range_initialize@PAD@?$basic_string@DV?$char_traits@D@_STL@@V?$allocator@D@2@@_STL@@AAEXPAD0ABUforward_iterator_tag@1@@Z PROC NEAR ; _STL::basic_string<char,_STL::char_traits<char>,_STL::allocator<char> >::_M_range_initialize<char *>, COMDAT
; _this$ = ecx

; 382  :   template <class _ForwardIter> void _M_range_initialize(_ForwardIter __f, _ForwardIter __l, 

  00000	53		 push	 ebx

; 383  :                            const forward_iterator_tag &) {
; 384  :     difference_type __n = distance(__f, __l);
; 385  :     this->_M_allocate_block(__n + 1);
; 386  :     this->_M_finish = uninitialized_copy(__f, __l, this->_M_start);
; 387  :     _M_terminate_string();

  00001	8b 5c 24 08	 mov	 ebx, DWORD PTR ___f$[esp]
  00005	55		 push	 ebp
  00006	8b 6c 24 10	 mov	 ebp, DWORD PTR ___l$[esp+4]
  0000a	56		 push	 esi
  0000b	8b f5		 mov	 esi, ebp
  0000d	57		 push	 edi
  0000e	2b f3		 sub	 esi, ebx
  00010	8d 46 01	 lea	 eax, DWORD PTR [esi+1]
  00013	50		 push	 eax
  00014	8b f9		 mov	 edi, ecx
  00016	e8 00 00 00 00	 call	 ?_M_allocate_block@?$_String_base@DV?$allocator@D@_STL@@@_STL@@QAEXI@Z ; _STL::_String_base<char,_STL::allocator<char> >::_M_allocate_block
  0001b	3b eb		 cmp	 ebp, ebx
  0001d	8b 07		 mov	 eax, DWORD PTR [edi]
  0001f	74 0d		 je	 SHORT $L101683
  00021	56		 push	 esi
  00022	53		 push	 ebx
  00023	50		 push	 eax
  00024	e8 00 00 00 00	 call	 _memmove
  00029	83 c4 0c	 add	 esp, 12			; 0000000cH
  0002c	03 c6		 add	 eax, esi
$L101683:
  0002e	89 47 04	 mov	 DWORD PTR [edi+4], eax
  00031	5f		 pop	 edi
  00032	5e		 pop	 esi
  00033	5d		 pop	 ebp
  00034	c6 00 00	 mov	 BYTE PTR [eax], 0
  00037	5b		 pop	 ebx

; 388  :   }

  00038	c2 0c 00	 ret	 12			; 0000000cH
??$_M_range_initialize@PAD@?$basic_string@DV?$char_traits@D@_STL@@V?$allocator@D@2@@_STL@@AAEXPAD0ABUforward_iterator_tag@1@@Z ENDP ; _STL::basic_string<char,_STL::char_traits<char>,_STL::allocator<char> >::_M_range_initialize<char *>
; Function compile flags: /Ogty
_TEXT	ENDS
;	COMDAT ?append@?$basic_string@DV?$char_traits@D@_STL@@V?$allocator@D@2@@_STL@@QAEAAV12@ABV12@@Z
_TEXT	SEGMENT
$T101697 = 8						; size = 1
___s$ = 8						; size = 4
?append@?$basic_string@DV?$char_traits@D@_STL@@V?$allocator@D@2@@_STL@@QAEAAV12@ABV12@@Z PROC NEAR ; _STL::basic_string<char,_STL::char_traits<char>,_STL::allocator<char> >::append, COMDAT
; _this$ = ecx

; 485  :     { return append(__s._M_start, __s._M_finish); }

  00000	8b 44 24 04	 mov	 eax, DWORD PTR ___s$[esp-4]
  00004	8b 50 04	 mov	 edx, DWORD PTR [eax+4]
  00007	8b 00		 mov	 eax, DWORD PTR [eax]
  00009	56		 push	 esi
  0000a	8d 74 24 08	 lea	 esi, DWORD PTR $T101697[esp]
  0000e	56		 push	 esi
  0000f	52		 push	 edx
  00010	50		 push	 eax
  00011	e8 00 00 00 00	 call	 ??$append@PAD@?$basic_string@DV?$char_traits@D@_STL@@V?$allocator@D@2@@_STL@@AAEAAV01@PAD0ABUforward_iterator_tag@1@@Z ; _STL::basic_string<char,_STL::char_traits<char>,_STL::allocator<char> >::append<char *>
  00016	5e		 pop	 esi
  00017	c2 04 00	 ret	 4
?append@?$basic_string@DV?$char_traits@D@_STL@@V?$allocator@D@2@@_STL@@QAEAAV12@ABV12@@Z ENDP ; _STL::basic_string<char,_STL::char_traits<char>,_STL::allocator<char> >::append
_TEXT	ENDS
;	COMDAT xdata$x
; File c:\darkeden\designed_common\project\client\virtualfilesystem\vfstream.inl
xdata$x	SEGMENT
$T101732 DD	0ffffffffH
	DD	FLAT:$L101705
	DD	0ffffffffH
	DD	FLAT:$L101717
$T101725 DD	019930520H
	DD	02H
	DD	FLAT:$T101732
	DD	2 DUP(00H)
	DD	2 DUP(00H)
; Function compile flags: /Ogty
; File c:\darkeden\designed_common\project\client\spritelib\ctypepack.h
xdata$x	ENDS
;	COMDAT ?LoadFromFile@?$CTypePack2@VCSprite@@VCSprite555@@VCSprite565@@@@UAE_NPBD@Z
_TEXT	SEGMENT
_file$90665 = -92					; size = 80
__$EHRec$ = -12						; size = 12
_lpszFilename$ = 8					; size = 4
?LoadFromFile@?$CTypePack2@VCSprite@@VCSprite555@@VCSprite565@@@@UAE_NPBD@Z PROC NEAR ; CTypePack2<CSprite,CSprite555,CSprite565>::LoadFromFile, COMDAT
; _this$ = ecx

; 1025 : {

  00000	64 a1 00 00 00
	00		 mov	 eax, DWORD PTR fs:__except_list
  00006	6a ff		 push	 -1
  00008	68 00 00 00 00	 push	 __ehhandler$?LoadFromFile@?$CTypePack2@VCSprite@@VCSprite555@@VCSprite565@@@@UAE_NPBD@Z
  0000d	50		 push	 eax
  0000e	64 89 25 00 00
	00 00		 mov	 DWORD PTR fs:__except_list, esp
  00015	83 ec 50	 sub	 esp, 80			; 00000050H
  00018	56		 push	 esi
  00019	57		 push	 edi

; 1026 : 	if(iovfs_base::get_vfs()->IsFileExist(lpszFilename))

  0001a	8b 7c 24 68	 mov	 edi, DWORD PTR _lpszFilename$[esp+96]
  0001e	8b f1		 mov	 esi, ecx
  00020	57		 push	 edi
  00021	b9 00 00 00 00	 mov	 ecx, OFFSET FLAT:?s_VFSystem@iovfs_base@@1VVirtualFileSystem@@A ; iovfs_base::s_VFSystem
  00026	e8 00 00 00 00	 call	 ?IsFileExist@VirtualFileSystem@@QBE_NPBD@Z ; VirtualFileSystem::IsFileExist
  0002b	84 c0		 test	 al, al
  0002d	0f 84 a7 00 00
	00		 je	 $L90664

; 1027 : 	{
; 1028 : 		ivfstream file(lpszFilename, std::ios_base::binary);

  00033	6a 04		 push	 4
  00035	57		 push	 edi
  00036	8d 4c 24 10	 lea	 ecx, DWORD PTR _file$90665[esp+108]
  0003a	e8 00 00 00 00	 call	 ??0ivfstream@@QAE@PBDH@Z ; ivfstream::ivfstream

; 1029 : 		file.read((char *)&m_Size, 2);

  0003f	8b 4c 24 0c	 mov	 ecx, DWORD PTR _file$90665[esp+104]
  00043	85 c9		 test	 ecx, ecx
  00045	c7 44 24 60 00
	00 00 00	 mov	 DWORD PTR __$EHRec$[esp+108], 0
  0004d	74 0b		 je	 SHORT $L101711
  0004f	8b 01		 mov	 eax, DWORD PTR [ecx]
  00051	6a 02		 push	 2
  00053	8d 56 08	 lea	 edx, DWORD PTR [esi+8]
  00056	52		 push	 edx
  00057	ff 50 10	 call	 DWORD PTR [eax+16]
$L101711:

; 1030 : 		
; 1031 : 		Init(m_Size);

  0005a	8b 06		 mov	 eax, DWORD PTR [esi]
  0005c	33 c9		 xor	 ecx, ecx
  0005e	66 8b 4e 08	 mov	 cx, WORD PTR [esi+8]
  00062	51		 push	 ecx
  00063	8b ce		 mov	 ecx, esi
  00065	ff 50 04	 call	 DWORD PTR [eax+4]

; 1032 : 		
; 1033 : 		register int i = 0;

  00068	33 ff		 xor	 edi, edi

; 1034 : 		
; 1035 : 		for(; i < m_Size; i++)

  0006a	66 39 7e 08	 cmp	 WORD PTR [esi+8], di
  0006e	76 21		 jbe	 SHORT $L90670
  00070	53		 push	 ebx
  00071	33 db		 xor	 ebx, ebx
$L90668:

; 1036 : 		{
; 1037 : 			m_pData[i].LoadFromFile(file);

  00073	8b 56 04	 mov	 edx, DWORD PTR [esi+4]
  00076	8b 04 1a	 mov	 eax, DWORD PTR [edx+ebx]
  00079	8d 0c 1a	 lea	 ecx, DWORD PTR [edx+ebx]
  0007c	8d 54 24 0c	 lea	 edx, DWORD PTR _file$90665[esp+104]
  00080	52		 push	 edx
  00081	ff 50 04	 call	 DWORD PTR [eax+4]
  00084	0f b7 46 08	 movzx	 eax, WORD PTR [esi+8]
  00088	47		 inc	 edi
  00089	83 c3 10	 add	 ebx, 16			; 00000010H
  0008c	3b f8		 cmp	 edi, eax
  0008e	7c e3		 jl	 SHORT $L90668
  00090	5b		 pop	 ebx
$L90670:

; 1038 : 		}
; 1039 : 	}

  00091	c7 44 24 08 00
	00 00 00	 mov	 DWORD PTR _file$90665[esp+100], OFFSET FLAT:??_7iovfs_base@@6B@
  00099	8d 4c 24 08	 lea	 ecx, DWORD PTR _file$90665[esp+100]
  0009d	c7 44 24 60 01
	00 00 00	 mov	 DWORD PTR __$EHRec$[esp+108], 1
  000a5	e8 00 00 00 00	 call	 ?close@iovfs_base@@QAEXXZ ; iovfs_base::close
  000aa	68 00 00 00 00	 push	 OFFSET FLAT:??1?$basic_string@DV?$char_traits@D@_STL@@V?$allocator@D@2@@_STL@@QAE@XZ ; _STL::basic_string<char,_STL::char_traits<char>,_STL::allocator<char> >::~basic_string<char,_STL::char_traits<char>,_STL::allocator<char> >
  000af	6a 06		 push	 6
  000b1	6a 0c		 push	 12			; 0000000cH
  000b3	8d 4c 24 1c	 lea	 ecx, DWORD PTR _file$90665[esp+120]
  000b7	51		 push	 ecx
  000b8	c7 44 24 70 ff
	ff ff ff	 mov	 DWORD PTR __$EHRec$[esp+124], -1
  000c0	e8 00 00 00 00	 call	 ??_M@YGXPAXIHP6EX0@Z@Z
$L90677:
  000c5	5f		 pop	 edi

; 1052 : 			return false;
; 1053 : 	}
; 1054 : 
; 1055 : 	return true;

  000c6	b0 01		 mov	 al, 1
  000c8	5e		 pop	 esi

; 1056 : }

  000c9	8b 4c 24 50	 mov	 ecx, DWORD PTR __$EHRec$[esp+92]
  000cd	64 89 0d 00 00
	00 00		 mov	 DWORD PTR fs:__except_list, ecx
  000d4	83 c4 5c	 add	 esp, 92			; 0000005cH
  000d7	c2 04 00	 ret	 4
$L90664:

; 1040 : 	else
; 1041 : 	{
; 1042 : 		
; 1043 : 		if(!LoadFromFileRunning(lpszFilename))

  000da	8b 16		 mov	 edx, DWORD PTR [esi]
  000dc	57		 push	 edi
  000dd	8b ce		 mov	 ecx, esi
  000df	ff 52 18	 call	 DWORD PTR [edx+24]
  000e2	84 c0		 test	 al, al

; 1044 : 			return false;

  000e4	74 22		 je	 SHORT $L101731

; 1045 : 		
; 1046 : 		register int i = 0;

  000e6	33 ff		 xor	 edi, edi

; 1047 : 
; 1048 : 		for(; i < m_Size; ++i)

  000e8	66 39 7e 08	 cmp	 WORD PTR [esi+8], di
  000ec	76 13		 jbe	 SHORT $L90676
  000ee	8b ff		 npad	 2
$L90674:

; 1049 : 			Get(i);

  000f0	8b 06		 mov	 eax, DWORD PTR [esi]
  000f2	57		 push	 edi
  000f3	8b ce		 mov	 ecx, esi
  000f5	ff 50 3c	 call	 DWORD PTR [eax+60]
  000f8	0f b7 4e 08	 movzx	 ecx, WORD PTR [esi+8]
  000fc	47		 inc	 edi
  000fd	3b f9		 cmp	 edi, ecx
  000ff	7c ef		 jl	 SHORT $L90674
$L90676:

; 1050 : 
; 1051 : 		if(m_bRunningLoad)

  00101	8a 46 0a	 mov	 al, BYTE PTR [esi+10]
  00104	84 c0		 test	 al, al
  00106	74 bd		 je	 SHORT $L90677
$L101731:

; 1056 : }

  00108	8b 4c 24 58	 mov	 ecx, DWORD PTR __$EHRec$[esp+100]
  0010c	5f		 pop	 edi
  0010d	32 c0		 xor	 al, al
  0010f	5e		 pop	 esi
  00110	64 89 0d 00 00
	00 00		 mov	 DWORD PTR fs:__except_list, ecx
  00117	83 c4 5c	 add	 esp, 92			; 0000005cH
  0011a	c2 04 00	 ret	 4
_TEXT	ENDS
;	COMDAT text$x
text$x	SEGMENT
$L101705:
  00000	8d 4d a4	 lea	 ecx, DWORD PTR _file$90665[ebp]
  00003	e9 00 00 00 00	 jmp	 ??1ivfstream@@UAE@XZ	; ivfstream::~ivfstream
$L101717:
  00008	68 00 00 00 00	 push	 OFFSET FLAT:??1?$basic_string@DV?$char_traits@D@_STL@@V?$allocator@D@2@@_STL@@QAE@XZ ; _STL::basic_string<char,_STL::char_traits<char>,_STL::allocator<char> >::~basic_string<char,_STL::char_traits<char>,_STL::allocator<char> >
  0000d	6a 06		 push	 6
  0000f	6a 0c		 push	 12			; 0000000cH
  00011	8d 45 ac	 lea	 eax, DWORD PTR _file$90665[ebp+8]
  00014	50		 push	 eax
  00015	e8 00 00 00 00	 call	 ??_M@YGXPAXIHP6EX0@Z@Z
  0001a	c3		 ret	 0
__ehhandler$?LoadFromFile@?$CTypePack2@VCSprite@@VCSprite555@@VCSprite565@@@@UAE_NPBD@Z:
  0001b	b8 00 00 00 00	 mov	 eax, OFFSET FLAT:$T101725
  00020	e9 00 00 00 00	 jmp	 ___CxxFrameHandler
text$x	ENDS
?LoadFromFile@?$CTypePack2@VCSprite@@VCSprite555@@VCSprite565@@@@UAE_NPBD@Z ENDP ; CTypePack2<CSprite,CSprite555,CSprite565>::LoadFromFile
;	COMDAT xdata$x
; File c:\darkeden\designed_common\project\client\virtualfilesystem\vfstream.inl
xdata$x	SEGMENT
$T101871 DD	0ffffffffH
	DD	FLAT:$L101744
	DD	00H
	DD	FLAT:$L101745
	DD	01H
	DD	FLAT:$L101746
	DD	0ffffffffH
	DD	FLAT:$L101747
	DD	03H
	DD	FLAT:$L101748
$T101855 DD	019930520H
	DD	05H
	DD	FLAT:$T101871
	DD	2 DUP(00H)
	DD	2 DUP(00H)
; Function compile flags: /Ogty
; File c:\darkeden\designed_common\project\client\spritelib\ctypepack.h
xdata$x	ENDS
;	COMDAT ?LoadFromFileData@?$CTypePack2@VCSprite@@VCSprite555@@VCSprite565@@@@UAE_NHHPBD0@Z
_TEXT	SEGMENT
_num$90826 = -880					; size = 2
_bSplitFile$ = -880					; size = 1
_fp$90831 = -876					; size = 4
_strHeaderPath$90800 = -872				; size = 12
_fileHeader$90802 = -860				; size = 80
_indexFile$90823 = -780					; size = 80
_dataFile$90815 = -700					; size = 80
_lineBuffer$90806 = -620				; size = 8
_dataFile$90820 = -612					; size = 80
_szExt$90812 = -532					; size = 256
_szFileName$90813 = -276				; size = 260
__$ArrayPad$ = -16					; size = 4
__$EHRec$ = -12						; size = 12
__$ReturnAddr$ = 4					; size = 4
_dataID$ = 8						; size = 4
_fileID$ = 12						; size = 4
_packFilename$ = 16					; size = 4
_indexFilename$ = 20					; size = 4
?LoadFromFileData@?$CTypePack2@VCSprite@@VCSprite555@@VCSprite565@@@@UAE_NHHPBD0@Z PROC NEAR ; CTypePack2<CSprite,CSprite555,CSprite565>::LoadFromFileData, COMDAT
; _this$ = ecx

; 1425 : {

  00000	6a ff		 push	 -1
  00002	68 00 00 00 00	 push	 __ehhandler$?LoadFromFileData@?$CTypePack2@VCSprite@@VCSprite555@@VCSprite565@@@@UAE_NHHPBD0@Z
  00007	64 a1 00 00 00
	00		 mov	 eax, DWORD PTR fs:__except_list
  0000d	50		 push	 eax
  0000e	64 89 25 00 00
	00 00		 mov	 DWORD PTR fs:__except_list, esp
  00015	81 ec 64 03 00
	00		 sub	 esp, 868		; 00000364H
  0001b	a1 00 00 00 00	 mov	 eax, DWORD PTR ___security_cookie
  00020	53		 push	 ebx
  00021	56		 push	 esi

; 1426 : 	if (dataID < 0 || dataID >= m_Size || fileID < 0)

  00022	8b b4 24 7c 03
	00 00		 mov	 esi, DWORD PTR _dataID$[esp+884]
  00029	85 f6		 test	 esi, esi
  0002b	57		 push	 edi
  0002c	89 84 24 6c 03
	00 00		 mov	 DWORD PTR __$ArrayPad$[esp+892], eax
  00033	8b f9		 mov	 edi, ecx
  00035	0f 8c a3 03 00
	00		 jl	 $L90797
  0003b	0f b7 47 08	 movzx	 eax, WORD PTR [edi+8]
  0003f	3b f0		 cmp	 esi, eax
  00041	0f 8d 97 03 00
	00		 jge	 $L90797
  00047	8b 9c 24 84 03
	00 00		 mov	 ebx, DWORD PTR _fileID$[esp+888]
  0004e	85 db		 test	 ebx, ebx
  00050	0f 8c 88 03 00
	00		 jl	 $L90797
  00056	55		 push	 ebp

; 1429 : 	}
; 1430 : 
; 1431 : 	//-------------------------------------------------------------------
; 1432 : 	// load data file pointer .
; 1433 : 	//-------------------------------------------------------------------
; 1434 : 	bool bSplitFile = !iovfs_base::get_vfs()->IsFileExist(packFilename);

  00057	8b ac 24 8c 03
	00 00		 mov	 ebp, DWORD PTR _packFilename$[esp+892]
  0005e	55		 push	 ebp
  0005f	b9 00 00 00 00	 mov	 ecx, OFFSET FLAT:?s_VFSystem@iovfs_base@@1VVirtualFileSystem@@A ; iovfs_base::s_VFSystem
  00064	e8 00 00 00 00	 call	 ?IsFileExist@VirtualFileSystem@@QBE_NPBD@Z ; VirtualFileSystem::IsFileExist
  00069	f6 d8		 neg	 al
  0006b	1a c0		 sbb	 al, al
  0006d	fe c0		 inc	 al
  0006f	88 44 24 10	 mov	 BYTE PTR _bSplitFile$[esp+896], al

; 1435 : 
; 1436 : 	if(bSplitFile)

  00073	0f 84 de 01 00
	00		 je	 $L90799

; 1437 : 	{
; 1438 : 		m_strFileName = packFilename;

  00079	8d 77 20	 lea	 esi, DWORD PTR [edi+32]
  0007c	55		 push	 ebp
  0007d	8b ce		 mov	 ecx, esi
  0007f	e8 00 00 00 00	 call	 ??4?$basic_string@DV?$char_traits@D@_STL@@V?$allocator@D@2@@_STL@@QAEAAV01@PBD@Z ; _STL::basic_string<char,_STL::char_traits<char>,_STL::allocator<char> >::operator=

; 1439 : 		
; 1440 : 		std::string strHeaderPath = m_strFileName + "\\header.inf";

  00084	68 00 00 00 00	 push	 OFFSET FLAT:??_C@_0M@KJGOGBJN@?2header?4inf?$AA@
  00089	8d 4c 24 1c	 lea	 ecx, DWORD PTR _strHeaderPath$90800[esp+900]
  0008d	56		 push	 esi
  0008e	51		 push	 ecx
  0008f	e8 00 00 00 00	 call	 ??$?HDV?$char_traits@D@_STL@@V?$allocator@D@1@@_STL@@YA?AV?$basic_string@DV?$char_traits@D@_STL@@V?$allocator@D@2@@0@ABV10@PBD@Z ; _STL::operator+<char,_STL::char_traits<char>,_STL::allocator<char> >
  00094	83 c4 0c	 add	 esp, 12			; 0000000cH

; 1441 : 		ivfstream fileHeader(strHeaderPath.c_str(), 0);

  00097	8b 54 24 18	 mov	 edx, DWORD PTR _strHeaderPath$90800[esp+896]
  0009b	6a 00		 push	 0
  0009d	52		 push	 edx
  0009e	8d 4c 24 2c	 lea	 ecx, DWORD PTR _fileHeader$90802[esp+904]
  000a2	c7 84 24 84 03
	00 00 00 00 00
	00		 mov	 DWORD PTR __$EHRec$[esp+912], 0
  000ad	e8 00 00 00 00	 call	 ??0ivfstream@@QAE@PBDH@Z ; ivfstream::ivfstream

; 1442 : 		
; 1443 : 		if(!fileHeader.is_open()) return false;

  000b2	8b 4c 24 28	 mov	 ecx, DWORD PTR _fileHeader$90802[esp+900]
  000b6	85 c9		 test	 ecx, ecx
  000b8	c6 84 24 7c 03
	00 00 01	 mov	 BYTE PTR __$EHRec$[esp+904], 1
  000c0	74 09		 je	 SHORT $L101760
  000c2	8b 01		 mov	 eax, DWORD PTR [ecx]
  000c4	ff 50 0c	 call	 DWORD PTR [eax+12]
  000c7	84 c0		 test	 al, al
  000c9	75 32		 jne	 SHORT $L90803
$L101760:
  000cb	8d 4c 24 24	 lea	 ecx, DWORD PTR _fileHeader$90802[esp+896]
  000cf	c6 84 24 7c 03
	00 00 00	 mov	 BYTE PTR __$EHRec$[esp+904], 0
  000d7	c7 44 24 24 00
	00 00 00	 mov	 DWORD PTR _fileHeader$90802[esp+896], OFFSET FLAT:??_7ivfstream@@6B@
  000df	e8 00 00 00 00	 call	 ??1iovfs_base@@UAE@XZ	; iovfs_base::~iovfs_base
  000e4	8d 4c 24 18	 lea	 ecx, DWORD PTR _strHeaderPath$90800[esp+896]
  000e8	c7 84 24 7c 03
	00 00 ff ff ff
	ff		 mov	 DWORD PTR __$EHRec$[esp+904], -1
  000f3	e8 00 00 00 00	 call	 ??1?$basic_string@DV?$char_traits@D@_STL@@V?$allocator@D@2@@_STL@@QAE@XZ ; _STL::basic_string<char,_STL::char_traits<char>,_STL::allocator<char> >::~basic_string<char,_STL::char_traits<char>,_STL::allocator<char> >
  000f8	e9 aa 01 00 00	 jmp	 $L101869
$L90803:

; 1444 : 		
; 1445 : 		const int bufferSize = 8;
; 1446 : 		char lineBuffer[bufferSize];
; 1447 : 
; 1448 : 		fileHeader.getline(lineBuffer, bufferSize);

  000fd	8b 4c 24 28	 mov	 ecx, DWORD PTR _fileHeader$90802[esp+900]
  00101	85 c9		 test	 ecx, ecx
  00103	74 11		 je	 SHORT $L101768
  00105	8b 11		 mov	 edx, DWORD PTR [ecx]
  00107	6a 0a		 push	 10			; 0000000aH
  00109	6a 08		 push	 8
  0010b	8d 84 24 1c 01
	00 00		 lea	 eax, DWORD PTR _lineBuffer$90806[esp+904]
  00112	50		 push	 eax
  00113	ff 52 2c	 call	 DWORD PTR [edx+44]
$L101768:

; 1449 : 		int dataSize = static_cast<int>(atoi(lineBuffer));

  00116	8d 8c 24 14 01
	00 00		 lea	 ecx, DWORD PTR _lineBuffer$90806[esp+896]
  0011d	51		 push	 ecx
  0011e	e8 00 00 00 00	 call	 _atoi

; 1450 : 
; 1451 : 		fileHeader.getline(lineBuffer, bufferSize);

  00123	8b 4c 24 2c	 mov	 ecx, DWORD PTR _fileHeader$90802[esp+904]
  00127	83 c4 04	 add	 esp, 4
  0012a	85 c9		 test	 ecx, ecx
  0012c	8b f0		 mov	 esi, eax
  0012e	74 11		 je	 SHORT $L101772
  00130	8b 11		 mov	 edx, DWORD PTR [ecx]
  00132	6a 0a		 push	 10			; 0000000aH
  00134	6a 08		 push	 8
  00136	8d 84 24 1c 01
	00 00		 lea	 eax, DWORD PTR _lineBuffer$90806[esp+904]
  0013d	50		 push	 eax
  0013e	ff 52 2c	 call	 DWORD PTR [edx+44]
$L101772:

; 1452 : 		m_nUnitCount = static_cast<int>(atoi(lineBuffer));

  00141	8d 8c 24 14 01
	00 00		 lea	 ecx, DWORD PTR _lineBuffer$90806[esp+896]
  00148	51		 push	 ecx
  00149	e8 00 00 00 00	 call	 _atoi
  0014e	83 c4 04	 add	 esp, 4
  00151	89 47 18	 mov	 DWORD PTR [edi+24], eax

; 1453 : 		m_nUnitTwoMultiplier = LogTwoMultiplier(m_nUnitCount);

  00154	8b c8		 mov	 ecx, eax
  00156	33 c0		 xor	 eax, eax
$L101778:
  00158	f6 c1 01	 test	 cl, 1
  0015b	75 0a		 jne	 SHORT $L101776
  0015d	d1 f9		 sar	 ecx, 1
  0015f	40		 inc	 eax
  00160	83 f8 08	 cmp	 eax, 8
  00163	7c f3		 jl	 SHORT $L101778
  00165	33 c0		 xor	 eax, eax
$L101776:

; 1454 : 
; 1455 : 		fileHeader.close();

  00167	8d 4c 24 24	 lea	 ecx, DWORD PTR _fileHeader$90802[esp+896]
  0016b	89 47 1c	 mov	 DWORD PTR [edi+28], eax
  0016e	e8 00 00 00 00	 call	 ?close@iovfs_base@@QAEXXZ ; iovfs_base::close

; 1456 : 
; 1457 : 		if (fileID >= dataSize)

  00173	3b de		 cmp	 ebx, esi

; 1458 : 		{
; 1459 : 			return false;

  00175	0f 8d 50 ff ff
	ff		 jge	 $L101760

; 1460 : 		}
; 1461 : 		
; 1462 : 		//  
; 1463 : 		char szExt[_MAX_EXT];
; 1464 : 		_splitpath(packFilename, NULL, NULL, NULL, szExt);

  0017b	8d 94 24 6c 01
	00 00		 lea	 edx, DWORD PTR _szExt$90812[esp+896]
  00182	52		 push	 edx
  00183	6a 00		 push	 0
  00185	6a 00		 push	 0
  00187	6a 00		 push	 0
  00189	55		 push	 ebp
  0018a	e8 00 00 00 00	 call	 __splitpath
  0018f	83 c4 14	 add	 esp, 20			; 00000014H

; 1465 : 		
; 1466 : 		m_strFileExt = szExt;

  00192	8d 84 24 6c 01
	00 00		 lea	 eax, DWORD PTR _szExt$90812[esp+896]
  00199	50		 push	 eax
  0019a	8d 4f 2c	 lea	 ecx, DWORD PTR [edi+44]
  0019d	e8 00 00 00 00	 call	 ??4?$basic_string@DV?$char_traits@D@_STL@@V?$allocator@D@2@@_STL@@QAEAAV01@PBD@Z ; _STL::basic_string<char,_STL::char_traits<char>,_STL::allocator<char> >::operator=

; 1467 : 
; 1468 : 		char szFileName[MAX_PATH];
; 1469 : 
; 1470 : 		int fileStartID = GetSplitFile(fileID, szFileName);

  001a2	8d 8c 24 6c 02
	00 00		 lea	 ecx, DWORD PTR _szFileName$90813[esp+896]
  001a9	51		 push	 ecx
  001aa	53		 push	 ebx
  001ab	8b cf		 mov	 ecx, edi
  001ad	e8 00 00 00 00	 call	 ?GetSplitFile@?$CTypePack2@VCSprite@@VCSprite555@@VCSprite565@@@@IAEHHPAD@Z ; CTypePack2<CSprite,CSprite555,CSprite565>::GetSplitFile

; 1471 : 
; 1472 : 		ivfstream dataFile(szFileName, std::ios_base::binary);

  001b2	6a 04		 push	 4
  001b4	8d 94 24 70 02
	00 00		 lea	 edx, DWORD PTR _szFileName$90813[esp+900]
  001bb	52		 push	 edx
  001bc	8d 8c 24 cc 00
	00 00		 lea	 ecx, DWORD PTR _dataFile$90815[esp+904]
  001c3	8b f0		 mov	 esi, eax
  001c5	e8 00 00 00 00	 call	 ??0ivfstream@@QAE@PBDH@Z ; ivfstream::ivfstream

; 1473 : 
; 1474 : 		dataFile.seekg(2);

  001ca	8b 8c 24 c8 00
	00 00		 mov	 ecx, DWORD PTR _dataFile$90815[esp+900]
  001d1	85 c9		 test	 ecx, ecx
  001d3	c6 84 24 7c 03
	00 00 02	 mov	 BYTE PTR __$EHRec$[esp+904], 2
  001db	74 09		 je	 SHORT $L101863
  001dd	8b 01		 mov	 eax, DWORD PTR [ecx]
  001df	6a 01		 push	 1
  001e1	6a 02		 push	 2
  001e3	ff 50 18	 call	 DWORD PTR [eax+24]
$L101863:
  001e6	8b ac 24 84 03
	00 00		 mov	 ebp, DWORD PTR _dataID$[esp+892]
  001ed	c1 e5 04	 shl	 ebp, 4
$L90816:

; 1475 : 
; 1476 : 		do {
; 1477 : 			m_pData[dataID].LoadFromFile(dataFile);

  001f0	8b 4f 04	 mov	 ecx, DWORD PTR [edi+4]
  001f3	8b 14 29	 mov	 edx, DWORD PTR [ecx+ebp]
  001f6	03 cd		 add	 ecx, ebp
  001f8	8d 84 24 c4 00
	00 00		 lea	 eax, DWORD PTR _dataFile$90815[esp+896]
  001ff	50		 push	 eax
  00200	ff 52 04	 call	 DWORD PTR [edx+4]

; 1478 : 		}
; 1479 : 		while(fileStartID++ < fileID);

  00203	8b ce		 mov	 ecx, esi
  00205	46		 inc	 esi
  00206	3b cb		 cmp	 ecx, ebx
  00208	7c e6		 jl	 SHORT $L90816

; 1480 : 	}

  0020a	be 00 00 00 00	 mov	 esi, OFFSET FLAT:??_7ivfstream@@6B@
  0020f	8d 8c 24 c4 00
	00 00		 lea	 ecx, DWORD PTR _dataFile$90815[esp+896]
  00216	c6 84 24 7c 03
	00 00 01	 mov	 BYTE PTR __$EHRec$[esp+904], 1
  0021e	89 b4 24 c4 00
	00 00		 mov	 DWORD PTR _dataFile$90815[esp+896], esi
  00225	e8 00 00 00 00	 call	 ??1iovfs_base@@UAE@XZ	; iovfs_base::~iovfs_base
  0022a	8d 4c 24 24	 lea	 ecx, DWORD PTR _fileHeader$90802[esp+896]
  0022e	c6 84 24 7c 03
	00 00 00	 mov	 BYTE PTR __$EHRec$[esp+904], 0
  00236	89 74 24 24	 mov	 DWORD PTR _fileHeader$90802[esp+896], esi
  0023a	e8 00 00 00 00	 call	 ??1iovfs_base@@UAE@XZ	; iovfs_base::~iovfs_base
  0023f	8d 4c 24 18	 lea	 ecx, DWORD PTR _strHeaderPath$90800[esp+896]
  00243	c7 84 24 7c 03
	00 00 ff ff ff
	ff		 mov	 DWORD PTR __$EHRec$[esp+904], -1
  0024e	e8 00 00 00 00	 call	 ??1?$basic_string@DV?$char_traits@D@_STL@@V?$allocator@D@2@@_STL@@QAE@XZ ; _STL::basic_string<char,_STL::char_traits<char>,_STL::allocator<char> >::~basic_string<char,_STL::char_traits<char>,_STL::allocator<char> >

; 1522 : 	
; 1523 : 	return true;

  00253	b0 01		 mov	 al, 1
  00255	eb 52		 jmp	 SHORT $L101867
$L90799:

; 1481 : 	else
; 1482 : 	{
; 1483 : 		// 	if (access(packFilename, 0) || access(indexFilename, 0))
; 1484 : 		// 	{
; 1485 : 		// 		return false;
; 1486 : 		// 	}
; 1487 : 		
; 1488 : 		ivfstream dataFile(packFilename, std::ios::binary);

  00257	6a 04		 push	 4
  00259	55		 push	 ebp
  0025a	8d 8c 24 24 01
	00 00		 lea	 ecx, DWORD PTR _dataFile$90820[esp+904]
  00261	e8 00 00 00 00	 call	 ??0ivfstream@@QAE@PBDH@Z ; ivfstream::ivfstream

; 1489 : 		
; 1490 : 		if (!dataFile.is_open())

  00266	8b 8c 24 20 01
	00 00		 mov	 ecx, DWORD PTR _dataFile$90820[esp+900]
  0026d	85 c9		 test	 ecx, ecx
  0026f	c7 84 24 7c 03
	00 00 03 00 00
	00		 mov	 DWORD PTR __$EHRec$[esp+904], 3
  0027a	74 09		 je	 SHORT $L101805
  0027c	8b 11		 mov	 edx, DWORD PTR [ecx]
  0027e	ff 52 0c	 call	 DWORD PTR [edx+12]
  00281	84 c0		 test	 al, al
  00283	75 4b		 jne	 SHORT $L90821
$L101805:

; 1491 : 		{
; 1492 : 			return false;

  00285	c7 84 24 7c 03
	00 00 ff ff ff
	ff		 mov	 DWORD PTR __$EHRec$[esp+904], -1
  00290	c7 84 24 1c 01
	00 00 00 00 00
	00		 mov	 DWORD PTR _dataFile$90820[esp+896], OFFSET FLAT:??_7ivfstream@@6B@
$L101870:
  0029b	8d 8c 24 1c 01
	00 00		 lea	 ecx, DWORD PTR _dataFile$90820[esp+896]
  002a2	e8 00 00 00 00	 call	 ??1iovfs_base@@UAE@XZ	; iovfs_base::~iovfs_base
$L101869:
  002a7	32 c0		 xor	 al, al
$L101867:
  002a9	5d		 pop	 ebp
$L90795:

; 1524 : }

  002aa	8b 8c 24 70 03
	00 00		 mov	 ecx, DWORD PTR __$EHRec$[esp+892]
  002b1	5f		 pop	 edi
  002b2	5e		 pop	 esi
  002b3	64 89 0d 00 00
	00 00		 mov	 DWORD PTR fs:__except_list, ecx
  002ba	8b 8c 24 64 03
	00 00		 mov	 ecx, DWORD PTR __$ArrayPad$[esp+884]
  002c1	5b		 pop	 ebx
  002c2	e8 00 00 00 00	 call	 @__security_check_cookie@4
  002c7	81 c4 70 03 00
	00		 add	 esp, 880		; 00000370H
  002cd	c2 10 00	 ret	 16			; 00000010H
$L90821:

; 1493 : 		}
; 1494 : 		
; 1495 : 		ivfstream indexFile(indexFilename, std::ios::binary);

  002d0	8b 84 24 90 03
	00 00		 mov	 eax, DWORD PTR _indexFilename$[esp+892]
  002d7	6a 04		 push	 4
  002d9	50		 push	 eax
  002da	8d 4c 24 7c	 lea	 ecx, DWORD PTR _indexFile$90823[esp+904]
  002de	e8 00 00 00 00	 call	 ??0ivfstream@@QAE@PBDH@Z ; ivfstream::ivfstream

; 1496 : 		
; 1497 : 		if (!indexFile.is_open())

  002e3	8d 4c 24 74	 lea	 ecx, DWORD PTR _indexFile$90823[esp+896]
  002e7	c6 84 24 7c 03
	00 00 04	 mov	 BYTE PTR __$EHRec$[esp+904], 4
  002ef	e8 00 00 00 00	 call	 ?is_open@iovfs_base@@QBE_NXZ ; iovfs_base::is_open
  002f4	84 c0		 test	 al, al
  002f6	75 31		 jne	 SHORT $L90824
$L101868:

; 1498 : 		{
; 1499 : 			return false;

  002f8	be 00 00 00 00	 mov	 esi, OFFSET FLAT:??_7ivfstream@@6B@
  002fd	8d 4c 24 74	 lea	 ecx, DWORD PTR _indexFile$90823[esp+896]
  00301	c6 84 24 7c 03
	00 00 03	 mov	 BYTE PTR __$EHRec$[esp+904], 3
  00309	89 74 24 74	 mov	 DWORD PTR _indexFile$90823[esp+896], esi
  0030d	e8 00 00 00 00	 call	 ??1iovfs_base@@UAE@XZ	; iovfs_base::~iovfs_base
  00312	c7 84 24 7c 03
	00 00 ff ff ff
	ff		 mov	 DWORD PTR __$EHRec$[esp+904], -1
  0031d	89 b4 24 1c 01
	00 00		 mov	 DWORD PTR _dataFile$90820[esp+896], esi
  00324	e9 72 ff ff ff	 jmp	 $L101870
$L90824:

; 1500 : 		}
; 1501 : 		
; 1502 : 		
; 1503 : 		//-------------------------------------------------------------------
; 1504 : 		// index  . fileID ..?
; 1505 : 		//-------------------------------------------------------------------
; 1506 : 		TYPE_SPRITEID num;
; 1507 : 		indexFile.read((char*)&num, sizeof(WORD));

  00329	8b 4c 24 78	 mov	 ecx, DWORD PTR _indexFile$90823[esp+900]
  0032d	85 c9		 test	 ecx, ecx
  0032f	74 10		 je	 SHORT $L101821
  00331	8b 11		 mov	 edx, DWORD PTR [ecx]
  00333	6a 02		 push	 2
  00335	8d 44 24 14	 lea	 eax, DWORD PTR _num$90826[esp+900]
  00339	50		 push	 eax
  0033a	ff 52 10	 call	 DWORD PTR [edx+16]
  0033d	8b 4c 24 78	 mov	 ecx, DWORD PTR _indexFile$90823[esp+900]
$L101821:

; 1508 : 		
; 1509 : 		if (fileID >= num)

  00341	0f b7 54 24 10	 movzx	 edx, WORD PTR _num$90826[esp+896]
  00346	3b da		 cmp	 ebx, edx

; 1510 : 		{
; 1511 : 			return false;

  00348	7d ae		 jge	 SHORT $L101868

; 1512 : 		}
; 1513 : 
; 1514 : 		long fp;	
; 1515 : 		indexFile.seekg( 2 + fileID*4 );		// 2(num) + spriteID * (4 bytes)

  0034a	85 c9		 test	 ecx, ecx
  0034c	74 23		 je	 SHORT $L101864
  0034e	8b 01		 mov	 eax, DWORD PTR [ecx]
  00350	6a 01		 push	 1
  00352	8d 14 9d 02 00
	00 00		 lea	 edx, DWORD PTR [ebx*4+2]
  00359	52		 push	 edx
  0035a	ff 50 18	 call	 DWORD PTR [eax+24]

; 1516 : 		indexFile.read((char*)&fp, 4);

  0035d	8b 4c 24 78	 mov	 ecx, DWORD PTR _indexFile$90823[esp+900]
  00361	85 c9		 test	 ecx, ecx
  00363	74 0c		 je	 SHORT $L101864
  00365	8b 01		 mov	 eax, DWORD PTR [ecx]
  00367	6a 04		 push	 4
  00369	8d 54 24 18	 lea	 edx, DWORD PTR _fp$90831[esp+900]
  0036d	52		 push	 edx
  0036e	ff 50 10	 call	 DWORD PTR [eax+16]
$L101864:

; 1517 : 		
; 1518 : 		dataFile.seekg( fp );

  00371	8b 8c 24 20 01
	00 00		 mov	 ecx, DWORD PTR _dataFile$90820[esp+900]
  00378	85 c9		 test	 ecx, ecx
  0037a	74 0c		 je	 SHORT $L101843
  0037c	8b 54 24 14	 mov	 edx, DWORD PTR _fp$90831[esp+896]
  00380	8b 01		 mov	 eax, DWORD PTR [ecx]
  00382	6a 01		 push	 1
  00384	52		 push	 edx
  00385	ff 50 18	 call	 DWORD PTR [eax+24]
$L101843:

; 1519 : 
; 1520 : 		m_pData[dataID].LoadFromFile( dataFile );

  00388	8b 47 04	 mov	 eax, DWORD PTR [edi+4]
  0038b	c1 e6 04	 shl	 esi, 4
  0038e	8b 14 06	 mov	 edx, DWORD PTR [esi+eax]
  00391	8d 0c 06	 lea	 ecx, DWORD PTR [esi+eax]
  00394	8d 84 24 1c 01
	00 00		 lea	 eax, DWORD PTR _dataFile$90820[esp+896]
  0039b	50		 push	 eax
  0039c	ff 52 04	 call	 DWORD PTR [edx+4]

; 1521 : 	}

  0039f	be 00 00 00 00	 mov	 esi, OFFSET FLAT:??_7ivfstream@@6B@
  003a4	8d 4c 24 74	 lea	 ecx, DWORD PTR _indexFile$90823[esp+896]
  003a8	c6 84 24 7c 03
	00 00 03	 mov	 BYTE PTR __$EHRec$[esp+904], 3
  003b0	89 74 24 74	 mov	 DWORD PTR _indexFile$90823[esp+896], esi
  003b4	e8 00 00 00 00	 call	 ??1iovfs_base@@UAE@XZ	; iovfs_base::~iovfs_base
  003b9	8d 8c 24 1c 01
	00 00		 lea	 ecx, DWORD PTR _dataFile$90820[esp+896]
  003c0	c7 84 24 7c 03
	00 00 ff ff ff
	ff		 mov	 DWORD PTR __$EHRec$[esp+904], -1
  003cb	89 b4 24 1c 01
	00 00		 mov	 DWORD PTR _dataFile$90820[esp+896], esi
  003d2	e8 00 00 00 00	 call	 ??1iovfs_base@@UAE@XZ	; iovfs_base::~iovfs_base

; 1522 : 	
; 1523 : 	return true;

  003d7	b0 01		 mov	 al, 1
  003d9	e9 cb fe ff ff	 jmp	 $L101867
$L90797:

; 1427 : 	{
; 1428 : 		return false;

  003de	32 c0		 xor	 al, al
  003e0	e9 c5 fe ff ff	 jmp	 $L90795
_TEXT	ENDS
;	COMDAT text$x
text$x	SEGMENT
$L101744:
  00000	8d 8d 98 fc ff
	ff		 lea	 ecx, DWORD PTR _strHeaderPath$90800[ebp]
  00006	e9 00 00 00 00	 jmp	 ??1?$basic_string@DV?$char_traits@D@_STL@@V?$allocator@D@2@@_STL@@QAE@XZ ; _STL::basic_string<char,_STL::char_traits<char>,_STL::allocator<char> >::~basic_string<char,_STL::char_traits<char>,_STL::allocator<char> >
$L101745:
  0000b	8d 8d a4 fc ff
	ff		 lea	 ecx, DWORD PTR _fileHeader$90802[ebp]
  00011	e9 00 00 00 00	 jmp	 ??1ivfstream@@UAE@XZ	; ivfstream::~ivfstream
$L101746:
  00016	8d 8d 44 fd ff
	ff		 lea	 ecx, DWORD PTR _dataFile$90815[ebp]
  0001c	e9 00 00 00 00	 jmp	 ??1ivfstream@@UAE@XZ	; ivfstream::~ivfstream
$L101747:
  00021	8d 8d 9c fd ff
	ff		 lea	 ecx, DWORD PTR _dataFile$90820[ebp]
  00027	e9 00 00 00 00	 jmp	 ??1ivfstream@@UAE@XZ	; ivfstream::~ivfstream
$L101748:
  0002c	8d 8d f4 fc ff
	ff		 lea	 ecx, DWORD PTR _indexFile$90823[ebp]
  00032	e9 00 00 00 00	 jmp	 ??1ivfstream@@UAE@XZ	; ivfstream::~ivfstream
__ehhandler$?LoadFromFileData@?$CTypePack2@VCSprite@@VCSprite555@@VCSprite565@@@@UAE_NHHPBD0@Z:
  00037	b8 00 00 00 00	 mov	 eax, OFFSET FLAT:$T101855
  0003c	e9 00 00 00 00	 jmp	 ___CxxFrameHandler
text$x	ENDS
?LoadFromFileData@?$CTypePack2@VCSprite@@VCSprite555@@VCSprite565@@@@UAE_NHHPBD0@Z ENDP ; CTypePack2<CSprite,CSprite555,CSprite565>::LoadFromFileData
PUBLIC	??0C_FRR@@QAE@PBD@Z				; C_FRR::C_FRR
;	COMDAT xdata$x
; File c:\darkeden\designed_common\project\client\spritelib\tarray.h
xdata$x	SEGMENT
$T101923 DD	0ffffffffH
	DD	00H
	DD	0ffffffffH
	DD	FLAT:$L101877
$T101919 DD	019930520H
	DD	02H
	DD	FLAT:$T101923
	DD	2 DUP(00H)
	DD	2 DUP(00H)
; Function compile flags: /Ogty
; File c:\darkeden\designed_common\project\new - vs_ui\src\vs_ui_util.cpp
xdata$x	ENDS
;	COMDAT ??0C_FRR@@QAE@PBD@Z
_TEXT	SEGMENT
_this$ = -16						; size = 4
__$EHRec$ = -12						; size = 12
_sz_filename$ = 8					; size = 4
??0C_FRR@@QAE@PBD@Z PROC NEAR				; C_FRR::C_FRR, COMDAT
; _this$ = ecx

; 593  : {

  00000	6a ff		 push	 -1
  00002	68 00 00 00 00	 push	 __ehhandler$??0C_FRR@@QAE@PBD@Z
  00007	64 a1 00 00 00
	00		 mov	 eax, DWORD PTR fs:__except_list
  0000d	50		 push	 eax
  0000e	64 89 25 00 00
	00 00		 mov	 DWORD PTR fs:__except_list, esp
  00015	51		 push	 ecx
  00016	56		 push	 esi
  00017	8b f1		 mov	 esi, ecx
  00019	89 74 24 04	 mov	 DWORD PTR _this$[esp+20], esi
  0001d	66 c7 06 00 00	 mov	 WORD PTR [esi], 0
  00022	c7 46 04 00 00
	00 00		 mov	 DWORD PTR [esi+4], 0

; 594  : 	if (sz_filename)

  00029	8b 44 24 18	 mov	 eax, DWORD PTR _sz_filename$[esp+16]
  0002d	85 c0		 test	 eax, eax
  0002f	c7 44 24 10 01
	00 00 00	 mov	 DWORD PTR __$EHRec$[esp+28], 1
  00037	74 20		 je	 SHORT $L101921

; 595  : 	{
; 596  : 		if (!Open(sz_filename))

  00039	50		 push	 eax
  0003a	e8 00 00 00 00	 call	 ?Open@C_FRR@@QAE_NPBD@Z	; C_FRR::Open
  0003f	84 c0		 test	 al, al
  00041	75 16		 jne	 SHORT $L101921

; 597  : 			_Error(FAILED_JOB);

  00043	68 55 02 00 00	 push	 597			; 00000255H
  00048	68 00 00 00 00	 push	 OFFSET FLAT:??_C@_0EB@GFEIDDHE@?2darkeden?2Designed_Common?2Projec@
  0004d	6a 00		 push	 0
  0004f	6a 04		 push	 4
  00051	e8 00 00 00 00	 call	 ?g_BasicException@@YAXW4EXCEPTION_CODE@@PAD1K@Z ; g_BasicException
  00056	83 c4 10	 add	 esp, 16			; 00000010H
$L101921:

; 598  : 	}
; 599  : }

  00059	8b 4c 24 08	 mov	 ecx, DWORD PTR __$EHRec$[esp+20]
  0005d	8b c6		 mov	 eax, esi
  0005f	5e		 pop	 esi
  00060	64 89 0d 00 00
	00 00		 mov	 DWORD PTR fs:__except_list, ecx
  00067	83 c4 10	 add	 esp, 16			; 00000010H
  0006a	c2 04 00	 ret	 4
_TEXT	ENDS
;	COMDAT text$x
text$x	SEGMENT
$L101877:
  00000	8b 4d f0	 mov	 ecx, DWORD PTR _this$[ebp]
  00003	e9 00 00 00 00	 jmp	 ??1?$TArray@VCFrame@@G@@QAE@XZ ; TArray<CFrame,unsigned short>::~TArray<CFrame,unsigned short>
__ehhandler$??0C_FRR@@QAE@PBD@Z:
  00008	b8 00 00 00 00	 mov	 eax, OFFSET FLAT:$T101919
  0000d	e9 00 00 00 00	 jmp	 ___CxxFrameHandler
text$x	ENDS
??0C_FRR@@QAE@PBD@Z ENDP				; C_FRR::C_FRR
PUBLIC	??0?$basic_ostream@DV?$char_traits@D@_STL@@@_STL@@QAE@PAV?$basic_streambuf@DV?$char_traits@D@_STL@@@1@@Z ; _STL::basic_ostream<char,_STL::char_traits<char> >::basic_ostream<char,_STL::char_traits<char> >
PUBLIC	??_8?$basic_ostream@DV?$char_traits@D@_STL@@@_STL@@7B@ ; _STL::basic_ostream<char,_STL::char_traits<char> >::`vbtable'
;	COMDAT xdata$x
; File c:\stlport-4.6.1\stlport\stl\_ios.c
xdata$x	SEGMENT
$T101940 DD	0ffffffffH
	DD	FLAT:$L101930
$T101938 DD	019930520H
	DD	01H
	DD	FLAT:$T101940
	DD	2 DUP(00H)
	DD	2 DUP(00H)
xdata$x	ENDS
;	COMDAT ??_8?$basic_ostream@DV?$char_traits@D@_STL@@@_STL@@7B@
CONST	SEGMENT
??_8?$basic_ostream@DV?$char_traits@D@_STL@@@_STL@@7B@ DD 00H ; _STL::basic_ostream<char,_STL::char_traits<char> >::`vbtable'
	DD	04H
; Function compile flags: /Ogty
; File c:\stlport-4.6.1\stlport\stl\_ostream.c
CONST	ENDS
;	COMDAT ??0?$basic_ostream@DV?$char_traits@D@_STL@@@_STL@@QAE@PAV?$basic_streambuf@DV?$char_traits@D@_STL@@@1@@Z
_TEXT	SEGMENT
$T101929 = -20						; size = 4
_this$ = -16						; size = 4
__$EHRec$ = -12						; size = 12
___buf$ = 8						; size = 4
_$initVBases$ = 12					; size = 4
??0?$basic_ostream@DV?$char_traits@D@_STL@@@_STL@@QAE@PAV?$basic_streambuf@DV?$char_traits@D@_STL@@@1@@Z PROC NEAR ; _STL::basic_ostream<char,_STL::char_traits<char> >::basic_ostream<char,_STL::char_traits<char> >, COMDAT
; _this$ = ecx

; 58   : {

  00000	6a ff		 push	 -1
  00002	68 00 00 00 00	 push	 __ehhandler$??0?$basic_ostream@DV?$char_traits@D@_STL@@@_STL@@QAE@PAV?$basic_streambuf@DV?$char_traits@D@_STL@@@1@@Z
  00007	64 a1 00 00 00
	00		 mov	 eax, DWORD PTR fs:__except_list
  0000d	50		 push	 eax
  0000e	64 89 25 00 00
	00 00		 mov	 DWORD PTR fs:__except_list, esp
  00015	83 ec 08	 sub	 esp, 8
  00018	8b 44 24 1c	 mov	 eax, DWORD PTR _$initVBases$[esp+16]
  0001c	53		 push	 ebx
  0001d	33 db		 xor	 ebx, ebx
  0001f	3b c3		 cmp	 eax, ebx
  00021	57		 push	 edi
  00022	8b f9		 mov	 edi, ecx
  00024	89 7c 24 0c	 mov	 DWORD PTR _this$[esp+28], edi
  00028	89 5c 24 08	 mov	 DWORD PTR $T101929[esp+28], ebx
  0002c	74 2d		 je	 SHORT $L89864
  0002e	56		 push	 esi
  0002f	8d 77 04	 lea	 esi, DWORD PTR [edi+4]
  00032	8b ce		 mov	 ecx, esi
  00034	c7 07 00 00 00
	00		 mov	 DWORD PTR [edi], OFFSET FLAT:??_8?$basic_ostream@DV?$char_traits@D@_STL@@@_STL@@7B@
  0003a	e8 00 00 00 00	 call	 ??0ios_base@_STL@@IAE@XZ ; _STL::ios_base::ios_base
  0003f	c7 06 00 00 00
	00		 mov	 DWORD PTR [esi], OFFSET FLAT:??_7?$basic_ios@DV?$char_traits@D@_STL@@@_STL@@6B@
  00045	88 5e 54	 mov	 BYTE PTR [esi+84], bl
  00048	89 5e 58	 mov	 DWORD PTR [esi+88], ebx
  0004b	89 5e 5c	 mov	 DWORD PTR [esi+92], ebx
  0004e	89 5c 24 1c	 mov	 DWORD PTR __$EHRec$[esp+40], ebx
  00052	c7 44 24 0c 01
	00 00 00	 mov	 DWORD PTR $T101929[esp+32], 1
  0005a	5e		 pop	 esi
$L89864:
  0005b	8b 07		 mov	 eax, DWORD PTR [edi]
  0005d	8b 48 04	 mov	 ecx, DWORD PTR [eax+4]

; 59   :   this->init(__buf);

  00060	8b 54 24 20	 mov	 edx, DWORD PTR ___buf$[esp+24]
  00064	c7 04 0f 00 00
	00 00		 mov	 DWORD PTR [edi+ecx], OFFSET FLAT:??_7?$basic_ostream@DV?$char_traits@D@_STL@@@_STL@@6B@
  0006b	8b 07		 mov	 eax, DWORD PTR [edi]
  0006d	8b 48 04	 mov	 ecx, DWORD PTR [eax+4]
  00070	52		 push	 edx
  00071	03 cf		 add	 ecx, edi
  00073	e8 00 00 00 00	 call	 ?init@?$basic_ios@DV?$char_traits@D@_STL@@@_STL@@IAEXPAV?$basic_streambuf@DV?$char_traits@D@_STL@@@2@@Z ; _STL::basic_ios<char,_STL::char_traits<char> >::init

; 60   : }

  00078	8b 4c 24 10	 mov	 ecx, DWORD PTR __$EHRec$[esp+28]
  0007c	8b c7		 mov	 eax, edi
  0007e	5f		 pop	 edi
  0007f	5b		 pop	 ebx
  00080	64 89 0d 00 00
	00 00		 mov	 DWORD PTR fs:__except_list, ecx
  00087	83 c4 14	 add	 esp, 20			; 00000014H
  0008a	c2 08 00	 ret	 8
_TEXT	ENDS
;	COMDAT text$x
text$x	SEGMENT
$L101930:
  00000	8b 45 ec	 mov	 eax, DWORD PTR $T101929[ebp]
  00003	83 e0 01	 and	 eax, 1
  00006	0f 84 0f 00 00
	00		 je	 $L101931
  0000c	83 65 ec fe	 and	 DWORD PTR $T101929[ebp], -2 ; fffffffeH
  00010	8b 4d f0	 mov	 ecx, DWORD PTR _this$[ebp]
  00013	83 c1 04	 add	 ecx, 4
  00016	e9 00 00 00 00	 jmp	 ??1?$basic_ios@DV?$char_traits@D@_STL@@@_STL@@UAE@XZ ; _STL::basic_ios<char,_STL::char_traits<char> >::~basic_ios<char,_STL::char_traits<char> >
$L101931:
  0001b	c3		 ret	 0
__ehhandler$??0?$basic_ostream@DV?$char_traits@D@_STL@@@_STL@@QAE@PAV?$basic_streambuf@DV?$char_traits@D@_STL@@@1@@Z:
  0001c	b8 00 00 00 00	 mov	 eax, OFFSET FLAT:$T101938
  00021	e9 00 00 00 00	 jmp	 ___CxxFrameHandler
text$x	ENDS
??0?$basic_ostream@DV?$char_traits@D@_STL@@@_STL@@QAE@PAV?$basic_streambuf@DV?$char_traits@D@_STL@@@1@@Z ENDP ; _STL::basic_ostream<char,_STL::char_traits<char> >::basic_ostream<char,_STL::char_traits<char> >
PUBLIC	??0C_ANI_OBJECT@@QAE@PBD0@Z			; C_ANI_OBJECT::C_ANI_OBJECT
;	COMDAT xdata$x
; File c:\darkeden\designed_common\project\new - vs_ui\src\vs_ui_util.cpp
xdata$x	SEGMENT
$T101960 DD	0ffffffffH
	DD	FLAT:$L101954
	DD	0ffffffffH
	DD	FLAT:$L101955
$T101957 DD	019930520H
	DD	02H
	DD	FLAT:$T101960
	DD	2 DUP(00H)
	DD	2 DUP(00H)
; Function compile flags: /Ogty
xdata$x	ENDS
;	COMDAT ??0C_ANI_OBJECT@@QAE@PBD0@Z
_TEXT	SEGMENT
__$EHRec$ = -12						; size = 12
$T101951 = 8						; size = 4
$T101947 = 8						; size = 4
_sz_spkfile$ = 8					; size = 4
_sz_frrfile$ = 12					; size = 4
??0C_ANI_OBJECT@@QAE@PBD0@Z PROC NEAR			; C_ANI_OBJECT::C_ANI_OBJECT, COMDAT
; _this$ = ecx

; 274  : {

  00000	64 a1 00 00 00
	00		 mov	 eax, DWORD PTR fs:__except_list
  00006	6a ff		 push	 -1
  00008	68 00 00 00 00	 push	 __ehhandler$??0C_ANI_OBJECT@@QAE@PBD0@Z
  0000d	50		 push	 eax
  0000e	64 89 25 00 00
	00 00		 mov	 DWORD PTR fs:__except_list, esp
  00015	53		 push	 ebx

; 275  : 	if (!sz_spkfile || !sz_frrfile)

  00016	8b 5c 24 18	 mov	 ebx, DWORD PTR _sz_frrfile$[esp+12]
  0001a	56		 push	 esi
  0001b	57		 push	 edi
  0001c	8b 7c 24 1c	 mov	 edi, DWORD PTR _sz_spkfile$[esp+20]
  00020	85 ff		 test	 edi, edi
  00022	8b f1		 mov	 esi, ecx
  00024	74 04		 je	 SHORT $L89168
  00026	85 db		 test	 ebx, ebx
  00028	75 16		 jne	 SHORT $L89167
$L89168:

; 276  : 		_Error(NULL_REF);

  0002a	68 14 01 00 00	 push	 276			; 00000114H
  0002f	68 00 00 00 00	 push	 OFFSET FLAT:??_C@_0EB@GFEIDDHE@?2darkeden?2Designed_Common?2Projec@
  00034	6a 00		 push	 0
  00036	6a 05		 push	 5
  00038	e8 00 00 00 00	 call	 ?g_BasicException@@YAXW4EXCEPTION_CODE@@PAD1K@Z ; g_BasicException
  0003d	83 c4 10	 add	 esp, 16			; 00000010H
$L89167:

; 277  : 
; 278  : 	m_pC_spk = new C_SPRITE_PACK(sz_spkfile);

  00040	6a 48		 push	 72			; 00000048H
  00042	e8 00 00 00 00	 call	 ??2@YAPAXI@Z		; operator new
  00047	83 c4 04	 add	 esp, 4
  0004a	89 44 24 1c	 mov	 DWORD PTR $T101947[esp+20], eax
  0004e	85 c0		 test	 eax, eax
  00050	c7 44 24 14 00
	00 00 00	 mov	 DWORD PTR __$EHRec$[esp+32], 0
  00058	74 0a		 je	 SHORT $L101948
  0005a	57		 push	 edi
  0005b	8b c8		 mov	 ecx, eax
  0005d	e8 00 00 00 00	 call	 ??0C_SPRITE_PACK@@QAE@PBD@Z ; C_SPRITE_PACK::C_SPRITE_PACK
  00062	eb 02		 jmp	 SHORT $L101949
$L101948:
  00064	33 c0		 xor	 eax, eax
$L101949:

; 279  : 
; 280  : 	m_pC_frr = new C_FRR(sz_frrfile);

  00066	6a 08		 push	 8
  00068	c7 44 24 18 ff
	ff ff ff	 mov	 DWORD PTR __$EHRec$[esp+36], -1
  00070	89 06		 mov	 DWORD PTR [esi], eax
  00072	e8 00 00 00 00	 call	 ??2@YAPAXI@Z		; operator new
  00077	83 c4 04	 add	 esp, 4
  0007a	89 44 24 1c	 mov	 DWORD PTR $T101951[esp+20], eax
  0007e	85 c0		 test	 eax, eax
  00080	c7 44 24 14 01
	00 00 00	 mov	 DWORD PTR __$EHRec$[esp+32], 1
  00088	74 0a		 je	 SHORT $L101952
  0008a	53		 push	 ebx
  0008b	8b c8		 mov	 ecx, eax
  0008d	e8 00 00 00 00	 call	 ??0C_FRR@@QAE@PBD@Z	; C_FRR::C_FRR
  00092	eb 02		 jmp	 SHORT $L101959
$L101952:
  00094	33 c0		 xor	 eax, eax
$L101959:

; 281  : }

  00096	8b 4c 24 0c	 mov	 ecx, DWORD PTR __$EHRec$[esp+24]
  0009a	89 46 04	 mov	 DWORD PTR [esi+4], eax
  0009d	5f		 pop	 edi
  0009e	8b c6		 mov	 eax, esi
  000a0	5e		 pop	 esi
  000a1	64 89 0d 00 00
	00 00		 mov	 DWORD PTR fs:__except_list, ecx
  000a8	5b		 pop	 ebx
  000a9	83 c4 0c	 add	 esp, 12			; 0000000cH
  000ac	c2 08 00	 ret	 8
_TEXT	ENDS
;	COMDAT text$x
text$x	SEGMENT
$L101954:
  00000	8b 45 04	 mov	 eax, DWORD PTR $T101947[ebp-4]
  00003	50		 push	 eax
  00004	e8 00 00 00 00	 call	 ??3@YAXPAX@Z		; operator delete
  00009	59		 pop	 ecx
  0000a	c3		 ret	 0
$L101955:
  0000b	8b 45 04	 mov	 eax, DWORD PTR $T101951[ebp-4]
  0000e	50		 push	 eax
  0000f	e8 00 00 00 00	 call	 ??3@YAXPAX@Z		; operator delete
  00014	59		 pop	 ecx
  00015	c3		 ret	 0
__ehhandler$??0C_ANI_OBJECT@@QAE@PBD0@Z:
  00016	b8 00 00 00 00	 mov	 eax, OFFSET FLAT:$T101957
  0001b	e9 00 00 00 00	 jmp	 ___CxxFrameHandler
text$x	ENDS
??0C_ANI_OBJECT@@QAE@PBD0@Z ENDP			; C_ANI_OBJECT::C_ANI_OBJECT
PUBLIC	??0?$basic_ofstream@DV?$char_traits@D@_STL@@@_STL@@QAE@PBDH@Z ; _STL::basic_ofstream<char,_STL::char_traits<char> >::basic_ofstream<char,_STL::char_traits<char> >
PUBLIC	??_8?$basic_ofstream@DV?$char_traits@D@_STL@@@_STL@@7B@ ; _STL::basic_ofstream<char,_STL::char_traits<char> >::`vbtable'
;	COMDAT xdata$x
; File c:\stlport-4.6.1\stlport\stl\_ios_base.h
xdata$x	SEGMENT
$T102047 DD	0ffffffffH
	DD	FLAT:$L101967
	DD	00H
	DD	00H
	DD	00H
	DD	FLAT:$L101969
	DD	02H
	DD	FLAT:$L101970
$T102043 DD	019930520H
	DD	04H
	DD	FLAT:$T102047
	DD	2 DUP(00H)
	DD	2 DUP(00H)
xdata$x	ENDS
;	COMDAT ??_8?$basic_ofstream@DV?$char_traits@D@_STL@@@_STL@@7B@
CONST	SEGMENT
??_8?$basic_ofstream@DV?$char_traits@D@_STL@@@_STL@@7B@ DD 00H ; _STL::basic_ofstream<char,_STL::char_traits<char> >::`vbtable'
	DD	0b8H
; Function compile flags: /Ogty
; File c:\stlport-4.6.1\stlport\stl\_fstream.h
CONST	ENDS
;	COMDAT ??0?$basic_ofstream@DV?$char_traits@D@_STL@@@_STL@@QAE@PBDH@Z
_TEXT	SEGMENT
$T101966 = -20						; size = 4
_this$ = -16						; size = 4
__$EHRec$ = -12						; size = 12
___s$ = 8						; size = 4
___mod$ = 12						; size = 4
_$initVBases$ = 16					; size = 4
??0?$basic_ofstream@DV?$char_traits@D@_STL@@@_STL@@QAE@PBDH@Z PROC NEAR ; _STL::basic_ofstream<char,_STL::char_traits<char> >::basic_ofstream<char,_STL::char_traits<char> >, COMDAT
; _this$ = ecx

; 594  :       _M_buf() {

  00000	6a ff		 push	 -1
  00002	68 00 00 00 00	 push	 __ehhandler$??0?$basic_ofstream@DV?$char_traits@D@_STL@@@_STL@@QAE@PBDH@Z
  00007	64 a1 00 00 00
	00		 mov	 eax, DWORD PTR fs:__except_list
  0000d	50		 push	 eax
  0000e	64 89 25 00 00
	00 00		 mov	 DWORD PTR fs:__except_list, esp
  00015	83 ec 08	 sub	 esp, 8
  00018	8b 44 24 20	 mov	 eax, DWORD PTR _$initVBases$[esp+16]
  0001c	53		 push	 ebx
  0001d	56		 push	 esi
  0001e	33 db		 xor	 ebx, ebx
  00020	3b c3		 cmp	 eax, ebx
  00022	8b f1		 mov	 esi, ecx
  00024	57		 push	 edi
  00025	89 74 24 10	 mov	 DWORD PTR _this$[esp+32], esi
  00029	89 5c 24 0c	 mov	 DWORD PTR $T101966[esp+32], ebx
  0002d	74 2e		 je	 SHORT $L89750
  0002f	8d be b8 00 00
	00		 lea	 edi, DWORD PTR [esi+184]
  00035	8b cf		 mov	 ecx, edi
  00037	c7 06 00 00 00
	00		 mov	 DWORD PTR [esi], OFFSET FLAT:??_8?$basic_ofstream@DV?$char_traits@D@_STL@@@_STL@@7B@
  0003d	e8 00 00 00 00	 call	 ??0ios_base@_STL@@IAE@XZ ; _STL::ios_base::ios_base
  00042	c7 07 00 00 00
	00		 mov	 DWORD PTR [edi], OFFSET FLAT:??_7?$basic_ios@DV?$char_traits@D@_STL@@@_STL@@6B@
  00048	88 5f 54	 mov	 BYTE PTR [edi+84], bl
  0004b	89 5f 58	 mov	 DWORD PTR [edi+88], ebx
  0004e	89 5f 5c	 mov	 DWORD PTR [edi+92], ebx
  00051	89 5c 24 1c	 mov	 DWORD PTR __$EHRec$[esp+40], ebx
  00055	c7 44 24 0c 01
	00 00 00	 mov	 DWORD PTR $T101966[esp+32], 1
$L89750:
  0005d	8b 06		 mov	 eax, DWORD PTR [esi]
  0005f	8b 48 04	 mov	 ecx, DWORD PTR [eax+4]
  00062	c7 04 0e 00 00
	00 00		 mov	 DWORD PTR [esi+ecx], OFFSET FLAT:??_7?$basic_ostream@DV?$char_traits@D@_STL@@@_STL@@6B@
  00069	8b 16		 mov	 edx, DWORD PTR [esi]
  0006b	8b 4a 04	 mov	 ecx, DWORD PTR [edx+4]
  0006e	53		 push	 ebx
  0006f	03 ce		 add	 ecx, esi
  00071	e8 00 00 00 00	 call	 ?init@?$basic_ios@DV?$char_traits@D@_STL@@@_STL@@IAEXPAV?$basic_streambuf@DV?$char_traits@D@_STL@@@2@@Z ; _STL::basic_ios<char,_STL::char_traits<char> >::init
  00076	8b 06		 mov	 eax, DWORD PTR [esi]
  00078	8b 48 04	 mov	 ecx, DWORD PTR [eax+4]
  0007b	c7 04 0e 00 00
	00 00		 mov	 DWORD PTR [esi+ecx], OFFSET FLAT:??_7?$basic_ofstream@DV?$char_traits@D@_STL@@@_STL@@6B@
  00082	8d 7e 04	 lea	 edi, DWORD PTR [esi+4]
  00085	8b cf		 mov	 ecx, edi
  00087	c7 44 24 1c 02
	00 00 00	 mov	 DWORD PTR __$EHRec$[esp+40], 2
  0008f	e8 00 00 00 00	 call	 ??0?$basic_filebuf@DV?$char_traits@D@_STL@@@_STL@@QAE@XZ ; _STL::basic_filebuf<char,_STL::char_traits<char> >::basic_filebuf<char,_STL::char_traits<char> >

; 595  : 	this->init(&_M_buf);

  00094	8b 16		 mov	 edx, DWORD PTR [esi]
  00096	8b 4a 04	 mov	 ecx, DWORD PTR [edx+4]
  00099	57		 push	 edi
  0009a	03 ce		 add	 ecx, esi
  0009c	c6 44 24 20 03	 mov	 BYTE PTR __$EHRec$[esp+44], 3
  000a1	e8 00 00 00 00	 call	 ?init@?$basic_ios@DV?$char_traits@D@_STL@@@_STL@@IAEXPAV?$basic_streambuf@DV?$char_traits@D@_STL@@@2@@Z ; _STL::basic_ios<char,_STL::char_traits<char> >::init

; 596  : 	if (!_M_buf.open(__s, __mod | ios_base::out))

  000a6	8b 44 24 28	 mov	 eax, DWORD PTR ___mod$[esp+28]
  000aa	8b 4c 24 24	 mov	 ecx, DWORD PTR ___s$[esp+28]
  000ae	83 c8 10	 or	 eax, 16			; 00000010H
  000b1	50		 push	 eax
  000b2	51		 push	 ecx
  000b3	8d 4f 54	 lea	 ecx, DWORD PTR [edi+84]
  000b6	e8 00 00 00 00	 call	 ?_M_open@_Filebuf_base@_STL@@QAE_NPBDH@Z ; _STL::_Filebuf_base::_M_open
  000bb	f6 d8		 neg	 al
  000bd	1b c0		 sbb	 eax, eax
  000bf	85 c7		 test	 eax, edi
  000c1	75 26		 jne	 SHORT $L102045

; 597  : 	  this->setstate(ios_base::failbit);

  000c3	8b 16		 mov	 edx, DWORD PTR [esi]
  000c5	8b 4a 04	 mov	 ecx, DWORD PTR [edx+4]
  000c8	8b 44 31 08	 mov	 eax, DWORD PTR [ecx+esi+8]
  000cc	8b 54 31 58	 mov	 edx, DWORD PTR [ecx+esi+88]
  000d0	03 ce		 add	 ecx, esi
  000d2	83 c8 04	 or	 eax, 4
  000d5	3b d3		 cmp	 edx, ebx
  000d7	75 03		 jne	 SHORT $L102031
  000d9	83 c8 01	 or	 eax, 1
$L102031:
  000dc	85 41 14	 test	 DWORD PTR [ecx+20], eax
  000df	89 41 08	 mov	 DWORD PTR [ecx+8], eax
  000e2	74 05		 je	 SHORT $L102045
  000e4	e8 00 00 00 00	 call	 ?_M_throw_failure@ios_base@_STL@@IAEXXZ ; _STL::ios_base::_M_throw_failure
$L102045:

; 598  :   }

  000e9	8b 4c 24 14	 mov	 ecx, DWORD PTR __$EHRec$[esp+32]
  000ed	5f		 pop	 edi
  000ee	8b c6		 mov	 eax, esi
  000f0	5e		 pop	 esi
  000f1	5b		 pop	 ebx
  000f2	64 89 0d 00 00
	00 00		 mov	 DWORD PTR fs:__except_list, ecx
  000f9	83 c4 14	 add	 esp, 20			; 00000014H
  000fc	c2 0c 00	 ret	 12			; 0000000cH
_TEXT	ENDS
;	COMDAT text$x
text$x	SEGMENT
$L101967:
  00000	8b 45 ec	 mov	 eax, DWORD PTR $T101966[ebp]
  00003	83 e0 01	 and	 eax, 1
  00006	0f 84 12 00 00
	00		 je	 $L101968
  0000c	83 65 ec fe	 and	 DWORD PTR $T101966[ebp], -2 ; fffffffeH
  00010	8b 4d f0	 mov	 ecx, DWORD PTR _this$[ebp]
  00013	81 c1 b8 00 00
	00		 add	 ecx, 184		; 000000b8H
  00019	e9 00 00 00 00	 jmp	 ??1?$basic_ios@DV?$char_traits@D@_STL@@@_STL@@UAE@XZ ; _STL::basic_ios<char,_STL::char_traits<char> >::~basic_ios<char,_STL::char_traits<char> >
$L101968:
  0001e	c3		 ret	 0
$L101969:
  0001f	8b 4d f0	 mov	 ecx, DWORD PTR _this$[ebp]
  00022	83 c1 04	 add	 ecx, 4
  00025	e9 00 00 00 00	 jmp	 ??1?$basic_ostream@DV?$char_traits@D@_STL@@@_STL@@UAE@XZ ; _STL::basic_ostream<char,_STL::char_traits<char> >::~basic_ostream<char,_STL::char_traits<char> >
$L101970:
  0002a	8b 4d f0	 mov	 ecx, DWORD PTR _this$[ebp]
  0002d	83 c1 04	 add	 ecx, 4
  00030	e9 00 00 00 00	 jmp	 ??1?$basic_filebuf@DV?$char_traits@D@_STL@@@_STL@@UAE@XZ ; _STL::basic_filebuf<char,_STL::char_traits<char> >::~basic_filebuf<char,_STL::char_traits<char> >
__ehhandler$??0?$basic_ofstream@DV?$char_traits@D@_STL@@@_STL@@QAE@PBDH@Z:
  00035	b8 00 00 00 00	 mov	 eax, OFFSET FLAT:$T102043
  0003a	e9 00 00 00 00	 jmp	 ___CxxFrameHandler
text$x	ENDS
??0?$basic_ofstream@DV?$char_traits@D@_STL@@@_STL@@QAE@PBDH@Z ENDP ; _STL::basic_ofstream<char,_STL::char_traits<char> >::basic_ofstream<char,_STL::char_traits<char> >
PUBLIC	??_C@_03KLNPHJAI@?$CFsi?$AA@			; `string'
;	COMDAT xdata$x
; File c:\stlport-4.6.1\stlport\stl\_ios.h
xdata$x	SEGMENT
$T102225 DD	0ffffffffH
	DD	FLAT:$L102055
	DD	00H
	DD	FLAT:$L102056
$T102222 DD	019930520H
	DD	02H
	DD	FLAT:$T102225
	DD	2 DUP(00H)
	DD	2 DUP(00H)
xdata$x	ENDS
;	COMDAT ??_C@_03KLNPHJAI@?$CFsi?$AA@
CONST	SEGMENT
??_C@_03KLNPHJAI@?$CFsi?$AA@ DB '%si', 00H		; `string'
; Function compile flags: /Ogty
; File c:\darkeden\designed_common\project\client\spritelib\ctypepack.h
CONST	ENDS
;	COMDAT ?SaveToFile@?$CTypePack2@VCSprite@@VCSprite555@@VCSprite565@@@@UAE_NPBD@Z
_TEXT	SEGMENT
_re$ = -1089						; size = 1
_indexFile$ = -1088					; size = 280
_dataFile$ = -808					; size = 280
_szIndexFilename$ = -528				; size = 512
__$ArrayPad$ = -16					; size = 4
__$EHRec$ = -12						; size = 12
__$ReturnAddr$ = 4					; size = 4
_lpszFilename$ = 8					; size = 4
?SaveToFile@?$CTypePack2@VCSprite@@VCSprite555@@VCSprite565@@@@UAE_NPBD@Z PROC NEAR ; CTypePack2<CSprite,CSprite555,CSprite565>::SaveToFile, COMDAT
; _this$ = ecx

; 1060 : {

  00000	6a ff		 push	 -1
  00002	68 00 00 00 00	 push	 __ehhandler$?SaveToFile@?$CTypePack2@VCSprite@@VCSprite555@@VCSprite565@@@@UAE_NPBD@Z
  00007	64 a1 00 00 00
	00		 mov	 eax, DWORD PTR fs:__except_list
  0000d	50		 push	 eax
  0000e	64 89 25 00 00
	00 00		 mov	 DWORD PTR fs:__except_list, esp
  00015	81 ec 38 04 00
	00		 sub	 esp, 1080		; 00000438H
  0001b	a1 00 00 00 00	 mov	 eax, DWORD PTR ___security_cookie
  00020	56		 push	 esi
  00021	57		 push	 edi

; 1061 : 	char szIndexFilename[512];
; 1062 : 	sprintf(szIndexFilename, "%si", lpszFilename);

  00022	8b bc 24 50 04
	00 00		 mov	 edi, DWORD PTR _lpszFilename$[esp+1096]
  00029	57		 push	 edi
  0002a	89 84 24 40 04
	00 00		 mov	 DWORD PTR __$ArrayPad$[esp+1104], eax
  00031	8d 84 24 40 02
	00 00		 lea	 eax, DWORD PTR _szIndexFilename$[esp+1104]
  00038	68 00 00 00 00	 push	 OFFSET FLAT:??_C@_03KLNPHJAI@?$CFsi?$AA@
  0003d	50		 push	 eax
  0003e	8b f1		 mov	 esi, ecx
  00040	e8 00 00 00 00	 call	 _sprintf
  00045	83 c4 0c	 add	 esp, 12			; 0000000cH

; 1063 : 
; 1064 : 	std::ofstream dataFile(lpszFilename, std::ios::binary);

  00048	6a 01		 push	 1
  0004a	6a 04		 push	 4
  0004c	57		 push	 edi
  0004d	8d 8c 24 30 01
	00 00		 lea	 ecx, DWORD PTR _dataFile$[esp+1112]
  00054	e8 00 00 00 00	 call	 ??0?$basic_ofstream@DV?$char_traits@D@_STL@@@_STL@@QAE@PBDH@Z ; _STL::basic_ofstream<char,_STL::char_traits<char> >::basic_ofstream<char,_STL::char_traits<char> >

; 1065 : 	std::ofstream indexFile(szIndexFilename, std::ios::binary);

  00059	6a 01		 push	 1
  0005b	6a 04		 push	 4
  0005d	8d 8c 24 44 02
	00 00		 lea	 ecx, DWORD PTR _szIndexFilename$[esp+1108]
  00064	51		 push	 ecx
  00065	8d 4c 24 18	 lea	 ecx, DWORD PTR _indexFile$[esp+1112]
  00069	c7 84 24 54 04
	00 00 00 00 00
	00		 mov	 DWORD PTR __$EHRec$[esp+1120], 0
  00074	e8 00 00 00 00	 call	 ??0?$basic_ofstream@DV?$char_traits@D@_STL@@@_STL@@QAE@PBDH@Z ; _STL::basic_ofstream<char,_STL::char_traits<char> >::basic_ofstream<char,_STL::char_traits<char> >

; 1066 : 
; 1067 : 	bool re = SaveToFile(dataFile, indexFile);

  00079	8b 16		 mov	 edx, DWORD PTR [esi]
  0007b	8d 44 24 0c	 lea	 eax, DWORD PTR _indexFile$[esp+1100]
  0007f	50		 push	 eax
  00080	8d 8c 24 28 01
	00 00		 lea	 ecx, DWORD PTR _dataFile$[esp+1104]
  00087	51		 push	 ecx
  00088	8b ce		 mov	 ecx, esi
  0008a	c6 84 24 50 04
	00 00 01	 mov	 BYTE PTR __$EHRec$[esp+1116], 1
  00092	ff 52 14	 call	 DWORD PTR [edx+20]

; 1068 : 
; 1069 : 	dataFile.close();

  00095	8d 8c 24 28 01
	00 00		 lea	 ecx, DWORD PTR _dataFile$[esp+1104]
  0009c	88 44 24 0b	 mov	 BYTE PTR _re$[esp+1100], al
  000a0	e8 00 00 00 00	 call	 ?close@?$basic_filebuf@DV?$char_traits@D@_STL@@@_STL@@QAEPAV12@XZ ; _STL::basic_filebuf<char,_STL::char_traits<char> >::close
  000a5	85 c0		 test	 eax, eax
  000a7	75 36		 jne	 SHORT $L102126
  000a9	8b 94 24 24 01
	00 00		 mov	 edx, DWORD PTR _dataFile$[esp+1100]
  000b0	8b 4a 04	 mov	 ecx, DWORD PTR [edx+4]
  000b3	8b 84 0c 2c 01
	00 00		 mov	 eax, DWORD PTR _dataFile$[esp+ecx+1108]
  000ba	8b 94 0c 7c 01
	00 00		 mov	 edx, DWORD PTR _dataFile$[esp+ecx+1188]
  000c1	8d 8c 0c 24 01
	00 00		 lea	 ecx, DWORD PTR _dataFile$[esp+ecx+1100]
  000c8	83 c8 04	 or	 eax, 4
  000cb	85 d2		 test	 edx, edx
  000cd	75 03		 jne	 SHORT $L102120
  000cf	83 c8 01	 or	 eax, 1
$L102120:
  000d2	85 41 14	 test	 DWORD PTR [ecx+20], eax
  000d5	89 41 08	 mov	 DWORD PTR [ecx+8], eax
  000d8	74 05		 je	 SHORT $L102126
  000da	e8 00 00 00 00	 call	 ?_M_throw_failure@ios_base@_STL@@IAEXXZ ; _STL::ios_base::_M_throw_failure
$L102126:

; 1070 : 	indexFile.close();

  000df	8d 4c 24 10	 lea	 ecx, DWORD PTR _indexFile$[esp+1104]
  000e3	e8 00 00 00 00	 call	 ?close@?$basic_filebuf@DV?$char_traits@D@_STL@@@_STL@@QAEPAV12@XZ ; _STL::basic_filebuf<char,_STL::char_traits<char> >::close
  000e8	85 c0		 test	 eax, eax
  000ea	75 2a		 jne	 SHORT $L102199
  000ec	8b 44 24 0c	 mov	 eax, DWORD PTR _indexFile$[esp+1100]
  000f0	8b 48 04	 mov	 ecx, DWORD PTR [eax+4]
  000f3	8b 44 0c 14	 mov	 eax, DWORD PTR _indexFile$[esp+ecx+1108]
  000f7	8b 54 0c 64	 mov	 edx, DWORD PTR _indexFile$[esp+ecx+1188]
  000fb	8d 4c 0c 0c	 lea	 ecx, DWORD PTR _indexFile$[esp+ecx+1100]
  000ff	83 c8 04	 or	 eax, 4
  00102	85 d2		 test	 edx, edx
  00104	75 03		 jne	 SHORT $L102193
  00106	83 c8 01	 or	 eax, 1
$L102193:
  00109	85 41 14	 test	 DWORD PTR [ecx+20], eax
  0010c	89 41 08	 mov	 DWORD PTR [ecx+8], eax
  0010f	74 05		 je	 SHORT $L102199
  00111	e8 00 00 00 00	 call	 ?_M_throw_failure@ios_base@_STL@@IAEXXZ ; _STL::ios_base::_M_throw_failure
$L102199:

; 1071 : 
; 1072 : 	return re;

  00116	8d 8c 24 c4 00
	00 00		 lea	 ecx, DWORD PTR _indexFile$[esp+1284]
  0011d	c6 84 24 48 04
	00 00 00	 mov	 BYTE PTR __$EHRec$[esp+1108], 0
  00125	e8 00 00 00 00	 call	 ??1?$basic_ofstream@DV?$char_traits@D@_STL@@@_STL@@UAE@XZ ; _STL::basic_ofstream<char,_STL::char_traits<char> >::~basic_ofstream<char,_STL::char_traits<char> >
  0012a	be 00 00 00 00	 mov	 esi, OFFSET FLAT:??_7?$basic_ios@DV?$char_traits@D@_STL@@@_STL@@6B@
  0012f	8d 8c 24 c4 00
	00 00		 lea	 ecx, DWORD PTR _indexFile$[esp+1284]
  00136	89 b4 24 c4 00
	00 00		 mov	 DWORD PTR _indexFile$[esp+1284], esi
  0013d	e8 00 00 00 00	 call	 ??1ios_base@_STL@@UAE@XZ ; _STL::ios_base::~ios_base
  00142	8d 8c 24 dc 01
	00 00		 lea	 ecx, DWORD PTR _dataFile$[esp+1284]
  00149	c7 84 24 48 04
	00 00 ff ff ff
	ff		 mov	 DWORD PTR __$EHRec$[esp+1108], -1
  00154	e8 00 00 00 00	 call	 ??1?$basic_ofstream@DV?$char_traits@D@_STL@@@_STL@@UAE@XZ ; _STL::basic_ofstream<char,_STL::char_traits<char> >::~basic_ofstream<char,_STL::char_traits<char> >
  00159	8d 8c 24 dc 01
	00 00		 lea	 ecx, DWORD PTR _dataFile$[esp+1284]
  00160	89 b4 24 dc 01
	00 00		 mov	 DWORD PTR _dataFile$[esp+1284], esi
  00167	e8 00 00 00 00	 call	 ??1ios_base@_STL@@UAE@XZ ; _STL::ios_base::~ios_base

; 1073 : }

  0016c	8b 8c 24 40 04
	00 00		 mov	 ecx, DWORD PTR __$EHRec$[esp+1100]
  00173	8a 44 24 0b	 mov	 al, BYTE PTR _re$[esp+1100]
  00177	5f		 pop	 edi
  00178	64 89 0d 00 00
	00 00		 mov	 DWORD PTR fs:__except_list, ecx
  0017f	8b 8c 24 38 04
	00 00		 mov	 ecx, DWORD PTR __$ArrayPad$[esp+1096]
  00186	5e		 pop	 esi
  00187	e8 00 00 00 00	 call	 @__security_check_cookie@4
  0018c	81 c4 44 04 00
	00		 add	 esp, 1092		; 00000444H
  00192	c2 04 00	 ret	 4
_TEXT	ENDS
;	COMDAT text$x
text$x	SEGMENT
$L102055:
  00000	8d 8d d8 fc ff
	ff		 lea	 ecx, DWORD PTR _dataFile$[ebp]
  00006	e9 00 00 00 00	 jmp	 ??_D?$basic_ofstream@DV?$char_traits@D@_STL@@@_STL@@QAEXXZ
$L102056:
  0000b	8d 8d c0 fb ff
	ff		 lea	 ecx, DWORD PTR _indexFile$[ebp]
  00011	e9 00 00 00 00	 jmp	 ??_D?$basic_ofstream@DV?$char_traits@D@_STL@@@_STL@@QAEXXZ
__ehhandler$?SaveToFile@?$CTypePack2@VCSprite@@VCSprite555@@VCSprite565@@@@UAE_NPBD@Z:
  00016	b8 00 00 00 00	 mov	 eax, OFFSET FLAT:$T102222
  0001b	e9 00 00 00 00	 jmp	 ___CxxFrameHandler
text$x	ENDS
?SaveToFile@?$CTypePack2@VCSprite@@VCSprite555@@VCSprite565@@@@UAE_NPBD@Z ENDP ; CTypePack2<CSprite,CSprite555,CSprite565>::SaveToFile
PUBLIC	?Save@C_SPRITE_FRAME@@QAE_NPBD@Z		; C_SPRITE_FRAME::Save
;	COMDAT xdata$x
; File c:\stlport-4.6.1\stlport\stl\_ios.h
xdata$x	SEGMENT
$T102339 DD	0ffffffffH
	DD	FLAT:$L102234
$T102336 DD	019930520H
	DD	01H
	DD	FLAT:$T102339
	DD	2 DUP(00H)
	DD	2 DUP(00H)
; Function compile flags: /Ogty
; File c:\darkeden\designed_common\project\new - vs_ui\src\vs_ui_util.cpp
xdata$x	ENDS
;	COMDAT ?Save@C_SPRITE_FRAME@@QAE_NPBD@Z
_TEXT	SEGMENT
_file$ = -296						; size = 280
__$ArrayPad$ = -16					; size = 4
__$EHRec$ = -12						; size = 12
__$ReturnAddr$ = 4					; size = 4
_pathfile$ = 8						; size = 4
?Save@C_SPRITE_FRAME@@QAE_NPBD@Z PROC NEAR		; C_SPRITE_FRAME::Save, COMDAT
; _this$ = ecx

; 1323 : {

  00000	6a ff		 push	 -1
  00002	68 00 00 00 00	 push	 __ehhandler$?Save@C_SPRITE_FRAME@@QAE_NPBD@Z
  00007	64 a1 00 00 00
	00		 mov	 eax, DWORD PTR fs:__except_list
  0000d	50		 push	 eax
  0000e	64 89 25 00 00
	00 00		 mov	 DWORD PTR fs:__except_list, esp
  00015	81 ec 1c 01 00
	00		 sub	 esp, 284		; 0000011cH
  0001b	a1 00 00 00 00	 mov	 eax, DWORD PTR ___security_cookie
  00020	56		 push	 esi

; 1324 : 	std::ofstream file(pathfile, std::ios::binary);

  00021	6a 01		 push	 1
  00023	89 84 24 20 01
	00 00		 mov	 DWORD PTR __$ArrayPad$[esp+304], eax
  0002a	8b 84 24 34 01
	00 00		 mov	 eax, DWORD PTR _pathfile$[esp+300]
  00031	6a 04		 push	 4
  00033	8b f1		 mov	 esi, ecx
  00035	50		 push	 eax
  00036	8d 4c 24 10	 lea	 ecx, DWORD PTR _file$[esp+312]
  0003a	e8 00 00 00 00	 call	 ??0?$basic_ofstream@DV?$char_traits@D@_STL@@@_STL@@QAE@PBDH@Z ; _STL::basic_ofstream<char,_STL::char_traits<char> >::basic_ofstream<char,_STL::char_traits<char> >

; 1325 : 	if (!file)

  0003f	8b 4c 24 04	 mov	 ecx, DWORD PTR _file$[esp+300]
  00043	8b 51 04	 mov	 edx, DWORD PTR [ecx+4]
  00046	f6 44 14 0c 05	 test	 BYTE PTR _file$[esp+edx+308], 5
  0004b	c7 84 24 28 01
	00 00 00 00 00
	00		 mov	 DWORD PTR __$EHRec$[esp+308], 0
  00056	74 35		 je	 SHORT $L89632

; 1326 : 		return false;

  00058	8d 8c 24 bc 00
	00 00		 lea	 ecx, DWORD PTR _file$[esp+484]
  0005f	c7 84 24 28 01
	00 00 ff ff ff
	ff		 mov	 DWORD PTR __$EHRec$[esp+308], -1
  0006a	e8 00 00 00 00	 call	 ??1?$basic_ofstream@DV?$char_traits@D@_STL@@@_STL@@UAE@XZ ; _STL::basic_ofstream<char,_STL::char_traits<char> >::~basic_ofstream<char,_STL::char_traits<char> >
  0006f	8d 8c 24 bc 00
	00 00		 lea	 ecx, DWORD PTR _file$[esp+484]
  00076	c7 84 24 bc 00
	00 00 00 00 00
	00		 mov	 DWORD PTR _file$[esp+484], OFFSET FLAT:??_7?$basic_ios@DV?$char_traits@D@_STL@@@_STL@@6B@
  00081	e8 00 00 00 00	 call	 ??1ios_base@_STL@@UAE@XZ ; _STL::ios_base::~ios_base
  00086	32 c0		 xor	 al, al
  00088	e9 82 00 00 00	 jmp	 $L89591
$L89632:

; 1327 : 
; 1328 : 	file.write((char *)&m_rx, sizeof(m_rx));

  0008d	6a 04		 push	 4
  0008f	56		 push	 esi
  00090	8d 4c 24 0c	 lea	 ecx, DWORD PTR _file$[esp+308]
  00094	e8 00 00 00 00	 call	 ?write@?$basic_ostream@DV?$char_traits@D@_STL@@@_STL@@QAEAAV12@PBDH@Z ; _STL::basic_ostream<char,_STL::char_traits<char> >::write

; 1329 : 	file.write((char *)&m_ry, sizeof(m_ry));

  00099	6a 04		 push	 4
  0009b	83 c6 04	 add	 esi, 4
  0009e	56		 push	 esi
  0009f	8d 4c 24 0c	 lea	 ecx, DWORD PTR _file$[esp+308]
  000a3	e8 00 00 00 00	 call	 ?write@?$basic_ostream@DV?$char_traits@D@_STL@@@_STL@@QAEAAV12@PBDH@Z ; _STL::basic_ostream<char,_STL::char_traits<char> >::write

; 1330 : 
; 1331 : 	file.close();

  000a8	8d 4c 24 08	 lea	 ecx, DWORD PTR _file$[esp+304]
  000ac	e8 00 00 00 00	 call	 ?close@?$basic_filebuf@DV?$char_traits@D@_STL@@@_STL@@QAEPAV12@XZ ; _STL::basic_filebuf<char,_STL::char_traits<char> >::close
  000b1	85 c0		 test	 eax, eax
  000b3	75 2a		 jne	 SHORT $L102323
  000b5	8b 44 24 04	 mov	 eax, DWORD PTR _file$[esp+300]
  000b9	8b 48 04	 mov	 ecx, DWORD PTR [eax+4]
  000bc	8b 44 0c 0c	 mov	 eax, DWORD PTR _file$[esp+ecx+308]
  000c0	8b 54 0c 5c	 mov	 edx, DWORD PTR _file$[esp+ecx+388]
  000c4	8d 4c 0c 04	 lea	 ecx, DWORD PTR _file$[esp+ecx+300]
  000c8	83 c8 04	 or	 eax, 4
  000cb	85 d2		 test	 edx, edx
  000cd	75 03		 jne	 SHORT $L102317
  000cf	83 c8 01	 or	 eax, 1
$L102317:
  000d2	85 41 14	 test	 DWORD PTR [ecx+20], eax
  000d5	89 41 08	 mov	 DWORD PTR [ecx+8], eax
  000d8	74 05		 je	 SHORT $L102323
  000da	e8 00 00 00 00	 call	 ?_M_throw_failure@ios_base@_STL@@IAEXXZ ; _STL::ios_base::_M_throw_failure
$L102323:

; 1332 : 
; 1333 : 	return true;

  000df	8d 8c 24 bc 00
	00 00		 lea	 ecx, DWORD PTR _file$[esp+484]
  000e6	c7 84 24 28 01
	00 00 ff ff ff
	ff		 mov	 DWORD PTR __$EHRec$[esp+308], -1
  000f1	e8 00 00 00 00	 call	 ??1?$basic_ofstream@DV?$char_traits@D@_STL@@@_STL@@UAE@XZ ; _STL::basic_ofstream<char,_STL::char_traits<char> >::~basic_ofstream<char,_STL::char_traits<char> >
  000f6	8d 8c 24 bc 00
	00 00		 lea	 ecx, DWORD PTR _file$[esp+484]
  000fd	c7 84 24 bc 00
	00 00 00 00 00
	00		 mov	 DWORD PTR _file$[esp+484], OFFSET FLAT:??_7?$basic_ios@DV?$char_traits@D@_STL@@@_STL@@6B@
  00108	e8 00 00 00 00	 call	 ??1ios_base@_STL@@UAE@XZ ; _STL::ios_base::~ios_base
  0010d	b0 01		 mov	 al, 1
$L89591:

; 1334 : }

  0010f	8b 8c 24 20 01
	00 00		 mov	 ecx, DWORD PTR __$EHRec$[esp+300]
  00116	64 89 0d 00 00
	00 00		 mov	 DWORD PTR fs:__except_list, ecx
  0011d	8b 8c 24 1c 01
	00 00		 mov	 ecx, DWORD PTR __$ArrayPad$[esp+300]
  00124	5e		 pop	 esi
  00125	e8 00 00 00 00	 call	 @__security_check_cookie@4
  0012a	81 c4 28 01 00
	00		 add	 esp, 296		; 00000128H
  00130	c2 04 00	 ret	 4
_TEXT	ENDS
;	COMDAT text$x
text$x	SEGMENT
$L102234:
  00000	8d 8d d8 fe ff
	ff		 lea	 ecx, DWORD PTR _file$[ebp]
  00006	e9 00 00 00 00	 jmp	 ??_D?$basic_ofstream@DV?$char_traits@D@_STL@@@_STL@@QAEXXZ
__ehhandler$?Save@C_SPRITE_FRAME@@QAE_NPBD@Z:
  0000b	b8 00 00 00 00	 mov	 eax, OFFSET FLAT:$T102336
  00010	e9 00 00 00 00	 jmp	 ___CxxFrameHandler
text$x	ENDS
?Save@C_SPRITE_FRAME@@QAE_NPBD@Z ENDP			; C_SPRITE_FRAME::Save
END
