; Listing generated by Microsoft (R) Optimizing Compiler Version 13.10.3077 

	TITLE	\darkeden\Designed_Common\Project\New - vs_ui\src\VS_UI_Base.cpp
	.386P
include listing.inc
if @Version gt 510
.model FLAT
else
_TEXT	SEGMENT PARA USE32 PUBLIC 'CODE'
_TEXT	ENDS
_DATA	SEGMENT DWORD USE32 PUBLIC 'DATA'
_DATA	ENDS
CONST	SEGMENT DWORD USE32 PUBLIC 'CONST'
CONST	ENDS
_BSS	SEGMENT DWORD USE32 PUBLIC 'BSS'
_BSS	ENDS
$$SYMBOLS	SEGMENT BYTE USE32 'DEBSYM'
$$SYMBOLS	ENDS
$$TYPES	SEGMENT BYTE USE32 'DEBTYP'
$$TYPES	ENDS
_TLS	SEGMENT DWORD USE32 PUBLIC 'TLS'
_TLS	ENDS
;	COMDAT ??_C@_0BN@ODLNCKCA@Data?2?2Info?2?2ClientConfig?4inf?$AA@
CONST	SEGMENT DWORD USE32 PUBLIC 'CONST'
CONST	ENDS
;	COMDAT ??_C@_0BM@DFPLPGPC@Data?2?2Info?2?2GuildMapper?4inf?$AA@
CONST	SEGMENT DWORD USE32 PUBLIC 'CONST'
CONST	ENDS
;	COMDAT ??_C@_0BN@LHODHNBK@Data?2?2Info?2?2GuildVersion?4inf?$AA@
CONST	SEGMENT DWORD USE32 PUBLIC 'CONST'
CONST	ENDS
;	COMDAT ??_C@_0BH@DDPLNCOL@Data?2?2Info?2?2Player?4inf?$AA@
CONST	SEGMENT DWORD USE32 PUBLIC 'CONST'
CONST	ENDS
;	COMDAT ??_C@_0BL@ILLNAPHB@Data?2?2Info?2?2Resolution?4inf?$AA@
CONST	SEGMENT DWORD USE32 PUBLIC 'CONST'
CONST	ENDS
;	COMDAT ??_C@_0CA@HEIGFDLG@Data?2?2Info?2?2SelectedChannel?4inf?$AA@
CONST	SEGMENT DWORD USE32 PUBLIC 'CONST'
CONST	ENDS
;	COMDAT ??_C@_0EB@PPOCDDGI@?2darkeden?2Designed_Common?2Projec@
CONST	SEGMENT DWORD USE32 PUBLIC 'CONST'
CONST	ENDS
;	COMDAT ??_C@_0L@IPEIPBIF@MS?5PGothic?$AA@
CONST	SEGMENT DWORD USE32 PUBLIC 'CONST'
CONST	ENDS
;	COMDAT ??_C@_06MFMMLLPC@?$LB?$LM?$LI?$LC?C?$LM?$AA@
CONST	SEGMENT DWORD USE32 PUBLIC 'CONST'
CONST	ENDS
;	COMDAT ??_C@_04IKDGCAJA@?K?N?L?e?$AA@
CONST	SEGMENT DWORD USE32 PUBLIC 'CONST'
CONST	ENDS
;	COMDAT ??_C@_0O@LAEHDGPN@?$ICl?$ICr?5?$IDS?$IDV?$IDb?$IDN?$AA@
CONST	SEGMENT DWORD USE32 PUBLIC 'CONST'
CONST	ENDS
;	COMDAT ??_C@_0O@LMJDHGJK@MS?5Sans?5Serif?$AA@
CONST	SEGMENT DWORD USE32 PUBLIC 'CONST'
CONST	ENDS
;	COMDAT ??_C@_06IDCGFJNK@?$LF?$LI?$LP?r?C?$LM?$AA@
CONST	SEGMENT DWORD USE32 PUBLIC 'CONST'
CONST	ENDS
;	COMDAT ??_C@_06CGJLLEAJ@?P?B?K?N?L?e?$AA@
CONST	SEGMENT DWORD USE32 PUBLIC 'CONST'
CONST	ENDS
;	COMDAT ??_C@_04FOGALLPG@?$LB?$LM?$LI?$LC?$AA@
CONST	SEGMENT DWORD USE32 PUBLIC 'CONST'
CONST	ENDS
;	COMDAT ??_C@_09LCOPKLB@?$ICl?$ICr?5?$JG?$LO?$JC?$KJ?$AA@
CONST	SEGMENT DWORD USE32 PUBLIC 'CONST'
CONST	ENDS
;	COMDAT ??_C@_08OGLPJIFC@?$LI?$LM?$MA?$LK?$LA?m?$LF?q?$AA@
CONST	SEGMENT DWORD USE32 PUBLIC 'CONST'
CONST	ENDS
;	COMDAT ??_C@_0N@GOPDCEEB@basic_string?$AA@
CONST	SEGMENT DWORD USE32 PUBLIC 'CONST'
CONST	ENDS
rdata$r	SEGMENT DWORD USE32 PUBLIC 'CONST'
rdata$r	ENDS
text$yc	SEGMENT PARA USE32 PUBLIC 'CODE'
text$yc	ENDS
CRT$XCA	SEGMENT DWORD USE32 PUBLIC 'DATA'
CRT$XCA	ENDS
CRT$XCU	SEGMENT DWORD USE32 PUBLIC 'DATA'
CRT$XCU	ENDS
CRT$XCL	SEGMENT DWORD USE32 PUBLIC 'DATA'
CRT$XCL	ENDS
CRT$XCC	SEGMENT DWORD USE32 PUBLIC 'DATA'
CRT$XCC	ENDS
CRT$XCZ	SEGMENT DWORD USE32 PUBLIC 'DATA'
CRT$XCZ	ENDS
text$yd	SEGMENT PARA USE32 PUBLIC 'CODE'
text$yd	ENDS
;	COMDAT ?Is565@CDirectDraw@@SA_NXZ
_TEXT	SEGMENT PARA USE32 PUBLIC 'CODE'
_TEXT	ENDS
;	COMDAT ?Red@CDirectDraw@@SAEABG@Z
_TEXT	SEGMENT PARA USE32 PUBLIC 'CODE'
_TEXT	ENDS
;	COMDAT ?Green@CDirectDraw@@SAEABG@Z
_TEXT	SEGMENT PARA USE32 PUBLIC 'CODE'
_TEXT	ENDS
;	COMDAT ?Blue@CDirectDraw@@SAEABG@Z
_TEXT	SEGMENT PARA USE32 PUBLIC 'CODE'
_TEXT	ENDS
;	COMDAT ?GetSurface@CDirectDrawSurface@@QAEAAPAUIDirectDrawSurface7@@XZ
_TEXT	SEGMENT PARA USE32 PUBLIC 'CODE'
_TEXT	ENDS
;	COMDAT ?SetClipLeftTop@CDirectDrawSurface@@QAEXHH@Z
_TEXT	SEGMENT PARA USE32 PUBLIC 'CODE'
_TEXT	ENDS
;	COMDAT ?SetClipRightBottom@CDirectDrawSurface@@QAEXHH@Z
_TEXT	SEGMENT PARA USE32 PUBLIC 'CODE'
_TEXT	ENDS
;	COMDAT _acosl
_TEXT	SEGMENT PARA USE32 PUBLIC 'CODE'
_TEXT	ENDS
;	COMDAT _asinl
_TEXT	SEGMENT PARA USE32 PUBLIC 'CODE'
_TEXT	ENDS
;	COMDAT _atanl
_TEXT	SEGMENT PARA USE32 PUBLIC 'CODE'
_TEXT	ENDS
;	COMDAT _atan2l
_TEXT	SEGMENT PARA USE32 PUBLIC 'CODE'
_TEXT	ENDS
;	COMDAT _ceill
_TEXT	SEGMENT PARA USE32 PUBLIC 'CODE'
_TEXT	ENDS
;	COMDAT _cosl
_TEXT	SEGMENT PARA USE32 PUBLIC 'CODE'
_TEXT	ENDS
;	COMDAT _coshl
_TEXT	SEGMENT PARA USE32 PUBLIC 'CODE'
_TEXT	ENDS
;	COMDAT _expl
_TEXT	SEGMENT PARA USE32 PUBLIC 'CODE'
_TEXT	ENDS
;	COMDAT _fabsl
_TEXT	SEGMENT PARA USE32 PUBLIC 'CODE'
_TEXT	ENDS
;	COMDAT _floorl
_TEXT	SEGMENT PARA USE32 PUBLIC 'CODE'
_TEXT	ENDS
;	COMDAT _fmodl
_TEXT	SEGMENT PARA USE32 PUBLIC 'CODE'
_TEXT	ENDS
;	COMDAT _frexpl
_TEXT	SEGMENT PARA USE32 PUBLIC 'CODE'
_TEXT	ENDS
;	COMDAT _ldexpl
_TEXT	SEGMENT PARA USE32 PUBLIC 'CODE'
_TEXT	ENDS
;	COMDAT _logl
_TEXT	SEGMENT PARA USE32 PUBLIC 'CODE'
_TEXT	ENDS
;	COMDAT _log10l
_TEXT	SEGMENT PARA USE32 PUBLIC 'CODE'
_TEXT	ENDS
;	COMDAT _modfl
_TEXT	SEGMENT PARA USE32 PUBLIC 'CODE'
_TEXT	ENDS
;	COMDAT _powl
_TEXT	SEGMENT PARA USE32 PUBLIC 'CODE'
_TEXT	ENDS
;	COMDAT _sinl
_TEXT	SEGMENT PARA USE32 PUBLIC 'CODE'
_TEXT	ENDS
;	COMDAT _sinhl
_TEXT	SEGMENT PARA USE32 PUBLIC 'CODE'
_TEXT	ENDS
;	COMDAT _sqrtl
_TEXT	SEGMENT PARA USE32 PUBLIC 'CODE'
_TEXT	ENDS
;	COMDAT _tanl
_TEXT	SEGMENT PARA USE32 PUBLIC 'CODE'
_TEXT	ENDS
;	COMDAT _tanhl
_TEXT	SEGMENT PARA USE32 PUBLIC 'CODE'
_TEXT	ENDS
;	COMDAT _frexpf
_TEXT	SEGMENT PARA USE32 PUBLIC 'CODE'
_TEXT	ENDS
;	COMDAT _ldexpf
_TEXT	SEGMENT PARA USE32 PUBLIC 'CODE'
_TEXT	ENDS
;	COMDAT _acosf
_TEXT	SEGMENT PARA USE32 PUBLIC 'CODE'
_TEXT	ENDS
;	COMDAT _asinf
_TEXT	SEGMENT PARA USE32 PUBLIC 'CODE'
_TEXT	ENDS
;	COMDAT _atanf
_TEXT	SEGMENT PARA USE32 PUBLIC 'CODE'
_TEXT	ENDS
;	COMDAT _atan2f
_TEXT	SEGMENT PARA USE32 PUBLIC 'CODE'
_TEXT	ENDS
;	COMDAT _ceilf
_TEXT	SEGMENT PARA USE32 PUBLIC 'CODE'
_TEXT	ENDS
;	COMDAT _cosf
_TEXT	SEGMENT PARA USE32 PUBLIC 'CODE'
_TEXT	ENDS
;	COMDAT _coshf
_TEXT	SEGMENT PARA USE32 PUBLIC 'CODE'
_TEXT	ENDS
;	COMDAT _expf
_TEXT	SEGMENT PARA USE32 PUBLIC 'CODE'
_TEXT	ENDS
;	COMDAT _fabsf
_TEXT	SEGMENT PARA USE32 PUBLIC 'CODE'
_TEXT	ENDS
;	COMDAT _floorf
_TEXT	SEGMENT PARA USE32 PUBLIC 'CODE'
_TEXT	ENDS
;	COMDAT _fmodf
_TEXT	SEGMENT PARA USE32 PUBLIC 'CODE'
_TEXT	ENDS
;	COMDAT _logf
_TEXT	SEGMENT PARA USE32 PUBLIC 'CODE'
_TEXT	ENDS
;	COMDAT _log10f
_TEXT	SEGMENT PARA USE32 PUBLIC 'CODE'
_TEXT	ENDS
;	COMDAT _modff
_TEXT	SEGMENT PARA USE32 PUBLIC 'CODE'
_TEXT	ENDS
;	COMDAT _powf
_TEXT	SEGMENT PARA USE32 PUBLIC 'CODE'
_TEXT	ENDS
;	COMDAT _sinf
_TEXT	SEGMENT PARA USE32 PUBLIC 'CODE'
_TEXT	ENDS
;	COMDAT _sinhf
_TEXT	SEGMENT PARA USE32 PUBLIC 'CODE'
_TEXT	ENDS
;	COMDAT _sqrtf
_TEXT	SEGMENT PARA USE32 PUBLIC 'CODE'
_TEXT	ENDS
;	COMDAT _tanf
_TEXT	SEGMENT PARA USE32 PUBLIC 'CODE'
_TEXT	ENDS
;	COMDAT _tanhf
_TEXT	SEGMENT PARA USE32 PUBLIC 'CODE'
_TEXT	ENDS
;	COMDAT ?start@CNFS@@QAE_NPADH@Z
_TEXT	SEGMENT PARA USE32 PUBLIC 'CODE'
_TEXT	ENDS
;	COMDAT ?end@CNFS@@QAEXXZ
_TEXT	SEGMENT PARA USE32 PUBLIC 'CODE'
_TEXT	ENDS
;	COMDAT ?Init@VirtualFileHeader@@QAEXXZ
_TEXT	SEGMENT PARA USE32 PUBLIC 'CODE'
_TEXT	ENDS
;	COMDAT ??1IFileIO@@UAE@XZ
_TEXT	SEGMENT PARA USE32 PUBLIC 'CODE'
_TEXT	ENDS
;	COMDAT ??_GIFileIO@@UAEPAXI@Z
_TEXT	SEGMENT PARA USE32 PUBLIC 'CODE'
_TEXT	ENDS
;	COMDAT ??0iovfs_base@@QAE@XZ
_TEXT	SEGMENT PARA USE32 PUBLIC 'CODE'
_TEXT	ENDS
;	COMDAT ??_Giovfs_base@@UAEPAXI@Z
_TEXT	SEGMENT PARA USE32 PUBLIC 'CODE'
_TEXT	ENDS
;	COMDAT ??1iovfs_base@@UAE@XZ
_TEXT	SEGMENT PARA USE32 PUBLIC 'CODE'
_TEXT	ENDS
;	COMDAT ?Init@iovfs_base@@QAEXXZ
_TEXT	SEGMENT PARA USE32 PUBLIC 'CODE'
_TEXT	ENDS
;	COMDAT ??_Givfstream@@UAEPAXI@Z
_TEXT	SEGMENT PARA USE32 PUBLIC 'CODE'
_TEXT	ENDS
;	COMDAT ??1ivfstream@@UAE@XZ
_TEXT	SEGMENT PARA USE32 PUBLIC 'CODE'
_TEXT	ENDS
;	COMDAT ?open@ivfstream@@UAEXPBDH@Z
_TEXT	SEGMENT PARA USE32 PUBLIC 'CODE'
_TEXT	ENDS
;	COMDAT ??_Govfstream@@UAEPAXI@Z
_TEXT	SEGMENT PARA USE32 PUBLIC 'CODE'
_TEXT	ENDS
;	COMDAT ??1ovfstream@@UAE@XZ
_TEXT	SEGMENT PARA USE32 PUBLIC 'CODE'
_TEXT	ENDS
;	COMDAT ?open@ovfstream@@UAEXPBDH@Z
_TEXT	SEGMENT PARA USE32 PUBLIC 'CODE'
_TEXT	ENDS
;	COMDAT ??1ITypePackBase@@UAE@XZ
_TEXT	SEGMENT PARA USE32 PUBLIC 'CODE'
_TEXT	ENDS
;	COMDAT ??_GITypePackBase@@UAEPAXI@Z
_TEXT	SEGMENT PARA USE32 PUBLIC 'CODE'
_TEXT	ENDS
;	COMDAT ?IsInit@CSpritePalBase@@QBE_NXZ
_TEXT	SEGMENT PARA USE32 PUBLIC 'CODE'
_TEXT	ENDS
;	COMDAT ??0ACriticalSection@@QAE@XZ
_TEXT	SEGMENT PARA USE32 PUBLIC 'CODE'
_TEXT	ENDS
;	COMDAT ??1ACriticalSection@@QAE@XZ
_TEXT	SEGMENT PARA USE32 PUBLIC 'CODE'
_TEXT	ENDS
;	COMDAT ?Lock@ACriticalSection@@QAEXXZ
_TEXT	SEGMENT PARA USE32 PUBLIC 'CODE'
_TEXT	ENDS
;	COMDAT ?Unlock@ACriticalSection@@QAEXXZ
_TEXT	SEGMENT PARA USE32 PUBLIC 'CODE'
_TEXT	ENDS
;	COMDAT ??0Base@@QAE@XZ
_TEXT	SEGMENT PARA USE32 PUBLIC 'CODE'
_TEXT	ENDS
;	COMDAT ??1Base@@QAE@XZ
_TEXT	SEGMENT PARA USE32 PUBLIC 'CODE'
_TEXT	ENDS
;	COMDAT ?SetFont@Base@@AAEXAAUPrintInfo@@AAUtagLOGFONTA@@KKHH@Z
_TEXT	SEGMENT PARA USE32 PUBLIC 'CODE'
_TEXT	ENDS
;	COMDAT ?SetDefaultLogfont@Base@@ABEXAAUtagLOGFONTA@@@Z
_TEXT	SEGMENT PARA USE32 PUBLIC 'CODE'
_TEXT	ENDS
;	COMDAT ?Init@Base@@QAEXPAVCSpriteSurface@@P6AXKHHPAX@Z@Z
_TEXT	SEGMENT PARA USE32 PUBLIC 'CODE'
_TEXT	ENDS
;	COMDAT ?InitFont@Base@@AAEXXZ
_TEXT	SEGMENT PARA USE32 PUBLIC 'CODE'
_TEXT	ENDS
;	COMDAT ?InitSurface@Base@@AAEXPAVCSpriteSurface@@@Z
_TEXT	SEGMENT PARA USE32 PUBLIC 'CODE'
_TEXT	ENDS
;	COMDAT ?DispatchMessageA@Base@@QAEXXZ
_TEXT	SEGMENT PARA USE32 PUBLIC 'CODE'
_TEXT	ENDS
;	COMDAT ?SendMessageA@Base@@QAEXKHHPAX@Z
_TEXT	SEGMENT PARA USE32 PUBLIC 'CODE'
_TEXT	ENDS
;	COMDAT ?StartEvent@Base@@QAEXXZ
_TEXT	SEGMENT PARA USE32 PUBLIC 'CODE'
_TEXT	ENDS
;	COMDAT ?FinishEvent@Base@@QAEXXZ
_TEXT	SEGMENT PARA USE32 PUBLIC 'CODE'
_TEXT	ENDS
;	COMDAT ?eq@?$__char_traits_base@DH@_STL@@SA_NABD0@Z
_TEXT	SEGMENT PARA USE32 PUBLIC 'CODE'
_TEXT	ENDS
;	COMDAT ?not_eof@?$__char_traits_base@DH@_STL@@SAHABH@Z
_TEXT	SEGMENT PARA USE32 PUBLIC 'CODE'
_TEXT	ENDS
;	COMDAT ?eq_int_type@?$__char_traits_base@DH@_STL@@SA_NABH0@Z
_TEXT	SEGMENT PARA USE32 PUBLIC 'CODE'
_TEXT	ENDS
;	COMDAT ??4?$basic_string@DV?$char_traits@D@_STL@@V?$allocator@D@2@@_STL@@QAEAAV01@PBD@Z
_TEXT	SEGMENT PARA USE32 PUBLIC 'CODE'
_TEXT	ENDS
;	COMDAT ?size@?$basic_string@GV?$char_traits@G@_STL@@V?$allocator@G@2@@_STL@@QBEIXZ
_TEXT	SEGMENT PARA USE32 PUBLIC 'CODE'
_TEXT	ENDS
;	COMDAT ?c_str@?$basic_string@GV?$char_traits@G@_STL@@V?$allocator@G@2@@_STL@@QBEPBGXZ
_TEXT	SEGMENT PARA USE32 PUBLIC 'CODE'
_TEXT	ENDS
;	COMDAT ??0?$fpos@H@_STL@@QAE@J@Z
_TEXT	SEGMENT PARA USE32 PUBLIC 'CODE'
_TEXT	ENDS
;	COMDAT ??B?$fpos@H@_STL@@QBEJXZ
_TEXT	SEGMENT PARA USE32 PUBLIC 'CODE'
_TEXT	ENDS
;	COMDAT ?state@?$fpos@H@_STL@@QBEHXZ
_TEXT	SEGMENT PARA USE32 PUBLIC 'CODE'
_TEXT	ENDS
;	COMDAT ?is_open@?$basic_filebuf@DV?$char_traits@D@_STL@@@_STL@@QBE_NXZ
_TEXT	SEGMENT PARA USE32 PUBLIC 'CODE'
_TEXT	ENDS
;	COMDAT ?_M_seek_return@?$basic_filebuf@DV?$char_traits@D@_STL@@@_STL@@AAE?AV?$fpos@H@2@JH@Z
_TEXT	SEGMENT PARA USE32 PUBLIC 'CODE'
_TEXT	ENDS
;	COMDAT ??0?$_Filebuf_Tmp_Buf@D@_STL@@QAE@H@Z
_TEXT	SEGMENT PARA USE32 PUBLIC 'CODE'
_TEXT	ENDS
;	COMDAT ??1?$_Filebuf_Tmp_Buf@D@_STL@@QAE@XZ
_TEXT	SEGMENT PARA USE32 PUBLIC 'CODE'
_TEXT	ENDS
;	COMDAT ?size@?$list@PAVWindow@@V?$allocator@PAVWindow@@@_STL@@@_STL@@QBEIXZ
_TEXT	SEGMENT PARA USE32 PUBLIC 'CODE'
_TEXT	ENDS
;	COMDAT ?assign@?$basic_string@DV?$char_traits@D@_STL@@V?$allocator@D@2@@_STL@@QAEAAV12@PBD0@Z
_TEXT	SEGMENT PARA USE32 PUBLIC 'CODE'
_TEXT	ENDS
;	COMDAT ?state@?$fpos@H@_STL@@QAEXH@Z
_TEXT	SEGMENT PARA USE32 PUBLIC 'CODE'
_TEXT	ENDS
;	COMDAT ?begin@?$list@PAVWindow@@V?$allocator@PAVWindow@@@_STL@@@_STL@@QBE?AU?$_List_iterator@PAVWindow@@U?$_Const_traits@PAVWindow@@@_STL@@@2@XZ
_TEXT	SEGMENT PARA USE32 PUBLIC 'CODE'
_TEXT	ENDS
;	COMDAT ?end@?$list@PAVWindow@@V?$allocator@PAVWindow@@@_STL@@@_STL@@QBE?AU?$_List_iterator@PAVWindow@@U?$_Const_traits@PAVWindow@@@_STL@@@2@XZ
_TEXT	SEGMENT PARA USE32 PUBLIC 'CODE'
_TEXT	ENDS
;	COMDAT ?copy@?$__char_traits_base@DH@_STL@@SAPADPADPBDI@Z
_TEXT	SEGMENT PARA USE32 PUBLIC 'CODE'
_TEXT	ENDS
;	COMDAT ?begin@?$basic_string@DV?$char_traits@D@_STL@@V?$allocator@D@2@@_STL@@QAEPADXZ
_TEXT	SEGMENT PARA USE32 PUBLIC 'CODE'
_TEXT	ENDS
;	COMDAT ?end@?$basic_string@DV?$char_traits@D@_STL@@V?$allocator@D@2@@_STL@@QAEPADXZ
_TEXT	SEGMENT PARA USE32 PUBLIC 'CODE'
_TEXT	ENDS
;	COMDAT ?size@?$basic_string@DV?$char_traits@D@_STL@@V?$allocator@D@2@@_STL@@QBEIXZ
_TEXT	SEGMENT PARA USE32 PUBLIC 'CODE'
_TEXT	ENDS
;	COMDAT ?erase@?$basic_string@DV?$char_traits@D@_STL@@V?$allocator@D@2@@_STL@@QAEPADPAD0@Z
_TEXT	SEGMENT PARA USE32 PUBLIC 'CODE'
_TEXT	ENDS
;	COMDAT ??0?$_List_iterator@PAVWindow@@U?$_Const_traits@PAVWindow@@@_STL@@@_STL@@QAE@PAU?$_List_node@PAVWindow@@@1@@Z
_TEXT	SEGMENT PARA USE32 PUBLIC 'CODE'
_TEXT	ENDS
;	COMDAT ?move@?$__char_traits_base@DH@_STL@@SAPADPADPBDI@Z
_TEXT	SEGMENT PARA USE32 PUBLIC 'CODE'
_TEXT	ENDS
;	COMDAT ?close@?$basic_filebuf@DV?$char_traits@D@_STL@@@_STL@@QAEPAV12@XZ
_TEXT	SEGMENT PARA USE32 PUBLIC 'CODE'
_TEXT	ENDS
;	COMDAT ?_M_exit_input_mode@?$basic_filebuf@DV?$char_traits@D@_STL@@@_STL@@AAEXXZ
_TEXT	SEGMENT PARA USE32 PUBLIC 'CODE'
_TEXT	ENDS
;	COMDAT ?_M_switch_to_output_mode@?$basic_filebuf@DV?$char_traits@D@_STL@@@_STL@@AAE_NXZ
_TEXT	SEGMENT PARA USE32 PUBLIC 'CODE'
_TEXT	ENDS
;	COMDAT ?_M_output_error@?$basic_filebuf@DV?$char_traits@D@_STL@@@_STL@@AAEHXZ
_TEXT	SEGMENT PARA USE32 PUBLIC 'CODE'
_TEXT	ENDS
;	COMDAT ?_M_allocate_buffers@?$basic_filebuf@DV?$char_traits@D@_STL@@@_STL@@AAE_NPADH@Z
_TEXT	SEGMENT PARA USE32 PUBLIC 'CODE'
_TEXT	ENDS
;	COMDAT ?_M_deallocate_buffers@?$basic_filebuf@DV?$char_traits@D@_STL@@@_STL@@AAEXXZ
_TEXT	SEGMENT PARA USE32 PUBLIC 'CODE'
_TEXT	ENDS
;	COMDAT ?_M_seek_init@?$basic_filebuf@DV?$char_traits@D@_STL@@@_STL@@AAE_N_N@Z
_TEXT	SEGMENT PARA USE32 PUBLIC 'CODE'
_TEXT	ENDS
;	COMDAT ?_M_setup_codecvt@?$basic_filebuf@DV?$char_traits@D@_STL@@@_STL@@AAEXABVlocale@2@@Z
_TEXT	SEGMENT PARA USE32 PUBLIC 'CODE'
_TEXT	ENDS
;	COMDAT ??$equal@PADPADU?$_Eq_traits@V?$char_traits@D@_STL@@@_STL@@@_STL@@YA_NPAD00U?$_Eq_traits@V?$char_traits@D@_STL@@@0@@Z
_TEXT	SEGMENT PARA USE32 PUBLIC 'CODE'
_TEXT	ENDS
;	COMDAT ??1?$SimpleDataList@PAVPI_Processor@@@@UAE@XZ
_TEXT	SEGMENT PARA USE32 PUBLIC 'CODE'
_TEXT	ENDS
;	COMDAT ??1?$SimpleDataList@PAVLineEditorVisual@@@@UAE@XZ
_TEXT	SEGMENT PARA USE32 PUBLIC 'CODE'
_TEXT	ENDS
;	COMDAT ??0?$basic_string@DV?$char_traits@D@_STL@@V?$allocator@D@2@@_STL@@QAE@ABV01@@Z
_TEXT	SEGMENT PARA USE32 PUBLIC 'CODE'
_TEXT	ENDS
;	COMDAT ??0?$basic_string@DV?$char_traits@D@_STL@@V?$allocator@D@2@@_STL@@QAE@XZ
_TEXT	SEGMENT PARA USE32 PUBLIC 'CODE'
_TEXT	ENDS
;	COMDAT ??1?$SimpleDataList@PAVWindow@@@@UAE@XZ
_TEXT	SEGMENT PARA USE32 PUBLIC 'CODE'
_TEXT	ENDS
;	COMDAT ??$_Pow_int@N@@YANNH@Z
_TEXT	SEGMENT PARA USE32 PUBLIC 'CODE'
_TEXT	ENDS
;	COMDAT ??$_Pow_int@H@@YAHHH@Z
_TEXT	SEGMENT PARA USE32 PUBLIC 'CODE'
_TEXT	ENDS
;	COMDAT ??$_Pow_int@M@@YAMMH@Z
_TEXT	SEGMENT PARA USE32 PUBLIC 'CODE'
_TEXT	ENDS
;	COMDAT ??$_Pow_int@O@@YAOOH@Z
_TEXT	SEGMENT PARA USE32 PUBLIC 'CODE'
_TEXT	ENDS
;	COMDAT ??1?$SimpleDataList@PAUMESSAGE@@@@UAE@XZ
_TEXT	SEGMENT PARA USE32 PUBLIC 'CODE'
_TEXT	ENDS
;	COMDAT ??$distance@U?$_List_iterator@PAVWindow@@U?$_Const_traits@PAVWindow@@@_STL@@@_STL@@@_STL@@YAHABU?$_List_iterator@PAVWindow@@U?$_Const_traits@PAVWindow@@@_STL@@@0@0@Z
_TEXT	SEGMENT PARA USE32 PUBLIC 'CODE'
_TEXT	ENDS
;	COMDAT ??$append@PBD@?$basic_string@DV?$char_traits@D@_STL@@V?$allocator@D@2@@_STL@@QAEAAV01@PBD0@Z
_TEXT	SEGMENT PARA USE32 PUBLIC 'CODE'
_TEXT	ENDS
;	COMDAT ??_G?$SimpleDataList@PAVPI_Processor@@@@UAEPAXI@Z
_TEXT	SEGMENT PARA USE32 PUBLIC 'CODE'
_TEXT	ENDS
;	COMDAT ??_G?$SimpleDataList@PAVLineEditorVisual@@@@UAEPAXI@Z
_TEXT	SEGMENT PARA USE32 PUBLIC 'CODE'
_TEXT	ENDS
;	COMDAT ??_G?$SimpleDataList@PAVWindow@@@@UAEPAXI@Z
_TEXT	SEGMENT PARA USE32 PUBLIC 'CODE'
_TEXT	ENDS
;	COMDAT ??_G?$SimpleDataList@PAUMESSAGE@@@@UAEPAXI@Z
_TEXT	SEGMENT PARA USE32 PUBLIC 'CODE'
_TEXT	ENDS
;	COMDAT ?get_allocator@?$basic_string@DV?$char_traits@D@_STL@@V?$allocator@D@2@@_STL@@QBE?AV?$allocator@D@2@XZ
_TEXT	SEGMENT PARA USE32 PUBLIC 'CODE'
_TEXT	ENDS
;	COMDAT ?_M_terminate_string@?$basic_string@DV?$char_traits@D@_STL@@V?$allocator@D@2@@_STL@@AAEXXZ
_TEXT	SEGMENT PARA USE32 PUBLIC 'CODE'
_TEXT	ENDS
;	COMDAT ??0?$_String_base@DV?$allocator@D@_STL@@@_STL@@QAE@ABV?$allocator@D@1@@Z
_TEXT	SEGMENT PARA USE32 PUBLIC 'CODE'
_TEXT	ENDS
;	COMDAT ??0?$allocator@D@_STL@@QAE@XZ
_TEXT	SEGMENT PARA USE32 PUBLIC 'CODE'
_TEXT	ENDS
;	COMDAT ?allocate@?$allocator@D@_STL@@QAEPADIPBX@Z
_TEXT	SEGMENT PARA USE32 PUBLIC 'CODE'
_TEXT	ENDS
;	COMDAT ?_M_exit_putback_mode@?$basic_filebuf@DV?$char_traits@D@_STL@@@_STL@@AAEXXZ
_TEXT	SEGMENT PARA USE32 PUBLIC 'CODE'
_TEXT	ENDS
;	COMDAT ??R?$_Eq_traits@V?$char_traits@D@_STL@@@_STL@@QBE_NABD0@Z
_TEXT	SEGMENT PARA USE32 PUBLIC 'CODE'
_TEXT	ENDS
;	COMDAT ?_M_terminate_string_aux@?$basic_string@DV?$char_traits@D@_STL@@V?$allocator@D@2@@_STL@@AAEXABU__true_type@2@@Z
_TEXT	SEGMENT PARA USE32 PUBLIC 'CODE'
_TEXT	ENDS
;	COMDAT ??0?$allocator@D@_STL@@QAE@ABV01@@Z
_TEXT	SEGMENT PARA USE32 PUBLIC 'CODE'
_TEXT	ENDS
;	COMDAT ??0?$_STLP_alloc_proxy@PADDV?$allocator@D@_STL@@@_STL@@QAE@ABV?$allocator@D@1@PAD@Z
_TEXT	SEGMENT PARA USE32 PUBLIC 'CODE'
_TEXT	ENDS
;	COMDAT ?allocate@?$__node_alloc@$00$0A@@_STL@@SAPAXI@Z
_TEXT	SEGMENT PARA USE32 PUBLIC 'CODE'
_TEXT	ENDS
;	COMDAT ?_M_unshift@?$basic_filebuf@DV?$char_traits@D@_STL@@@_STL@@AAE_NXZ
_TEXT	SEGMENT PARA USE32 PUBLIC 'CODE'
_TEXT	ENDS
;	COMDAT ?_M_allocate_buffers@?$basic_filebuf@DV?$char_traits@D@_STL@@@_STL@@AAE_NXZ
_TEXT	SEGMENT PARA USE32 PUBLIC 'CODE'
_TEXT	ENDS
;	COMDAT ??$max@H@_STL@@YAABHABH0@Z
_TEXT	SEGMENT PARA USE32 PUBLIC 'CODE'
_TEXT	ENDS
;	COMDAT ??$use_facet@V?$codecvt@DDH@_STL@@@_STL@@YAABV?$codecvt@DDH@0@ABVlocale@0@@Z
_TEXT	SEGMENT PARA USE32 PUBLIC 'CODE'
_TEXT	ENDS
;	COMDAT ??$_M_range_initialize@PAD@?$basic_string@DV?$char_traits@D@_STL@@V?$allocator@D@2@@_STL@@AAEXPAD0@Z
_TEXT	SEGMENT PARA USE32 PUBLIC 'CODE'
_TEXT	ENDS
;	COMDAT ??$__distance@U?$_List_iterator@PAVWindow@@U?$_Const_traits@PAVWindow@@@_STL@@@_STL@@@_STL@@YAHABU?$_List_iterator@PAVWindow@@U?$_Const_traits@PAVWindow@@@_STL@@@0@0ABUinput_iterator_tag@0@@Z
_TEXT	SEGMENT PARA USE32 PUBLIC 'CODE'
_TEXT	ENDS
;	COMDAT ??$_M_append_dispatch@PBD@?$basic_string@DV?$char_traits@D@_STL@@V?$allocator@D@2@@_STL@@AAEAAV01@PBD0ABU__false_type@1@@Z
_TEXT	SEGMENT PARA USE32 PUBLIC 'CODE'
_TEXT	ENDS
;	COMDAT ??E?$_List_iterator@PAVWindow@@U?$_Const_traits@PAVWindow@@@_STL@@@_STL@@QAEAAU01@XZ
_TEXT	SEGMENT PARA USE32 PUBLIC 'CODE'
_TEXT	ENDS
;	COMDAT ??$_M_range_initialize@PAD@?$basic_string@DV?$char_traits@D@_STL@@V?$allocator@D@2@@_STL@@AAEXPAD0ABUforward_iterator_tag@1@@Z
_TEXT	SEGMENT PARA USE32 PUBLIC 'CODE'
_TEXT	ENDS
;	COMDAT ??$append@PBD@?$basic_string@DV?$char_traits@D@_STL@@V?$allocator@D@2@@_STL@@AAEAAV01@PBD0ABUforward_iterator_tag@1@@Z
_TEXT	SEGMENT PARA USE32 PUBLIC 'CODE'
_TEXT	ENDS
;	COMDAT ?_M_construct_null@?$basic_string@DV?$char_traits@D@_STL@@V?$allocator@D@2@@_STL@@AAEXPAD@Z
_TEXT	SEGMENT PARA USE32 PUBLIC 'CODE'
_TEXT	ENDS
;	COMDAT ?max_size@?$basic_string@DV?$char_traits@D@_STL@@V?$allocator@D@2@@_STL@@QBEIXZ
_TEXT	SEGMENT PARA USE32 PUBLIC 'CODE'
_TEXT	ENDS
;	COMDAT ?capacity@?$basic_string@DV?$char_traits@D@_STL@@V?$allocator@D@2@@_STL@@QBEIXZ
_TEXT	SEGMENT PARA USE32 PUBLIC 'CODE'
_TEXT	ENDS
;	COMDAT ?_M_construct_null_aux@?$basic_string@DV?$char_traits@D@_STL@@V?$allocator@D@2@@_STL@@AAEXPADABU__true_type@2@@Z
_TEXT	SEGMENT PARA USE32 PUBLIC 'CODE'
_TEXT	ENDS
;	COMDAT ?max_size@?$_String_base@DV?$allocator@D@_STL@@@_STL@@QBEIXZ
_TEXT	SEGMENT PARA USE32 PUBLIC 'CODE'
_TEXT	ENDS
;	COMDAT ??$distance@PAD@_STL@@YAHABQAD0@Z
_TEXT	SEGMENT PARA USE32 PUBLIC 'CODE'
_TEXT	ENDS
;	COMDAT ?_M_allocate_block@?$_String_base@DV?$allocator@D@_STL@@@_STL@@QAEXI@Z
_TEXT	SEGMENT PARA USE32 PUBLIC 'CODE'
_TEXT	ENDS
;	COMDAT ?_M_throw_length_error@?$_String_base@DV?$allocator@D@_STL@@@_STL@@QBEXXZ
_TEXT	SEGMENT PARA USE32 PUBLIC 'CODE'
_TEXT	ENDS
;	COMDAT ??$uninitialized_copy@PADPAD@_STL@@YAPADPAD00@Z
_TEXT	SEGMENT PARA USE32 PUBLIC 'CODE'
_TEXT	ENDS
;	COMDAT ??$distance@PBD@_STL@@YAHABQBD0@Z
_TEXT	SEGMENT PARA USE32 PUBLIC 'CODE'
_TEXT	ENDS
;	COMDAT ??$max@I@_STL@@YAABIABI0@Z
_TEXT	SEGMENT PARA USE32 PUBLIC 'CODE'
_TEXT	ENDS
;	COMDAT ??$__distance@PAD@_STL@@YAHABQAD0ABUrandom_access_iterator_tag@0@@Z
_TEXT	SEGMENT PARA USE32 PUBLIC 'CODE'
_TEXT	ENDS
;	COMDAT ??$__uninitialized_copy@PADPAD@_STL@@YAPADPAD00ABU__true_type@0@@Z
_TEXT	SEGMENT PARA USE32 PUBLIC 'CODE'
_TEXT	ENDS
;	COMDAT ??$__distance@PBD@_STL@@YAHABQBD0ABUrandom_access_iterator_tag@0@@Z
_TEXT	SEGMENT PARA USE32 PUBLIC 'CODE'
_TEXT	ENDS
;	COMDAT ?_Ret@?$_BothPtrType@PADPAD@_STL@@SA?AU__true_type@2@XZ
_TEXT	SEGMENT PARA USE32 PUBLIC 'CODE'
_TEXT	ENDS
;	COMDAT ??$__copy_aux@PADPAD@_STL@@YAPADPAD00ABU__true_type@0@@Z
_TEXT	SEGMENT PARA USE32 PUBLIC 'CODE'
_TEXT	ENDS
;	COMDAT ?_Ret@?$_OKToMemCpy@DD@_STL@@SA?AU__true_type@2@XZ
_TEXT	SEGMENT PARA USE32 PUBLIC 'CODE'
_TEXT	ENDS
;	COMDAT ??$_IsOKToMemCpy@DD@_STL@@YA?AU?$_OKToMemCpy@DD@0@PAD0@Z
_TEXT	SEGMENT PARA USE32 PUBLIC 'CODE'
_TEXT	ENDS
;	COMDAT ??$__copy_ptrs@PADPAD@_STL@@YAPADPAD00ABU__true_type@0@@Z
_TEXT	SEGMENT PARA USE32 PUBLIC 'CODE'
_TEXT	ENDS
;	COMDAT ??_R3?$SimpleDataList@PAVLineEditorVisual@@@@8
rdata$r	SEGMENT DWORD USE32 PUBLIC 'CONST'
rdata$r	ENDS
;	COMDAT ??_R3?$SimpleDataList@PAVPI_Processor@@@@8
rdata$r	SEGMENT DWORD USE32 PUBLIC 'CONST'
rdata$r	ENDS
;	COMDAT ??_R3ivfstream@@8
rdata$r	SEGMENT DWORD USE32 PUBLIC 'CONST'
rdata$r	ENDS
;	COMDAT ??_R3iovfs_base@@8
rdata$r	SEGMENT DWORD USE32 PUBLIC 'CONST'
rdata$r	ENDS
;	COMDAT ??_R3IFileIO@@8
rdata$r	SEGMENT DWORD USE32 PUBLIC 'CONST'
rdata$r	ENDS
;	COMDAT ??_R3?$SimpleDataList@PAVWindow@@@@8
rdata$r	SEGMENT DWORD USE32 PUBLIC 'CONST'
rdata$r	ENDS
;	COMDAT ??_R3?$SimpleDataList@PAUMESSAGE@@@@8
rdata$r	SEGMENT DWORD USE32 PUBLIC 'CONST'
rdata$r	ENDS
;	COMDAT ??_R3ITypePackBase@@8
rdata$r	SEGMENT DWORD USE32 PUBLIC 'CONST'
rdata$r	ENDS
;	COMDAT ??_R3ovfstream@@8
rdata$r	SEGMENT DWORD USE32 PUBLIC 'CONST'
rdata$r	ENDS
;	COMDAT ??_R2?$SimpleDataList@PAVLineEditorVisual@@@@8
rdata$r	SEGMENT DWORD USE32 PUBLIC 'CONST'
rdata$r	ENDS
;	COMDAT ??_R2?$SimpleDataList@PAVPI_Processor@@@@8
rdata$r	SEGMENT DWORD USE32 PUBLIC 'CONST'
rdata$r	ENDS
;	COMDAT ??_R2ivfstream@@8
rdata$r	SEGMENT DWORD USE32 PUBLIC 'CONST'
rdata$r	ENDS
;	COMDAT ??_R2iovfs_base@@8
rdata$r	SEGMENT DWORD USE32 PUBLIC 'CONST'
rdata$r	ENDS
;	COMDAT ??_R2IFileIO@@8
rdata$r	SEGMENT DWORD USE32 PUBLIC 'CONST'
rdata$r	ENDS
;	COMDAT ??_R2?$SimpleDataList@PAVWindow@@@@8
rdata$r	SEGMENT DWORD USE32 PUBLIC 'CONST'
rdata$r	ENDS
;	COMDAT ??_R2?$SimpleDataList@PAUMESSAGE@@@@8
rdata$r	SEGMENT DWORD USE32 PUBLIC 'CONST'
rdata$r	ENDS
;	COMDAT ??_R2ITypePackBase@@8
rdata$r	SEGMENT DWORD USE32 PUBLIC 'CONST'
rdata$r	ENDS
;	COMDAT ??_R2ovfstream@@8
rdata$r	SEGMENT DWORD USE32 PUBLIC 'CONST'
rdata$r	ENDS
;	COMDAT ??_R1A@?0A@A@?$SimpleDataList@PAVLineEditorVisual@@@@8
rdata$r	SEGMENT DWORD USE32 PUBLIC 'CONST'
rdata$r	ENDS
;	COMDAT ??_R1A@?0A@A@?$SimpleDataList@PAVPI_Processor@@@@8
rdata$r	SEGMENT DWORD USE32 PUBLIC 'CONST'
rdata$r	ENDS
;	COMDAT ??_R1A@?0A@A@ivfstream@@8
rdata$r	SEGMENT DWORD USE32 PUBLIC 'CONST'
rdata$r	ENDS
;	COMDAT ??_R1A@?0A@A@IFileIO@@8
rdata$r	SEGMENT DWORD USE32 PUBLIC 'CONST'
rdata$r	ENDS
;	COMDAT ??_R1A@?0A@A@?$SimpleDataList@PAVWindow@@@@8
rdata$r	SEGMENT DWORD USE32 PUBLIC 'CONST'
rdata$r	ENDS
;	COMDAT ??_R1A@?0A@A@?$SimpleDataList@PAUMESSAGE@@@@8
rdata$r	SEGMENT DWORD USE32 PUBLIC 'CONST'
rdata$r	ENDS
;	COMDAT ??_R1A@?0A@A@ITypePackBase@@8
rdata$r	SEGMENT DWORD USE32 PUBLIC 'CONST'
rdata$r	ENDS
;	COMDAT ??_R1A@?0A@A@iovfs_base@@8
rdata$r	SEGMENT DWORD USE32 PUBLIC 'CONST'
rdata$r	ENDS
;	COMDAT ??_R1A@?0A@A@ovfstream@@8
rdata$r	SEGMENT DWORD USE32 PUBLIC 'CONST'
rdata$r	ENDS
;	COMDAT ??_R0?AV?$SimpleDataList@PAVLineEditorVisual@@@@@8
_DATA	SEGMENT DWORD USE32 PUBLIC 'DATA'
_DATA	ENDS
;	COMDAT ??_R0?AV?$SimpleDataList@PAVPI_Processor@@@@@8
_DATA	SEGMENT DWORD USE32 PUBLIC 'DATA'
_DATA	ENDS
;	COMDAT ??_R0?AVivfstream@@@8
_DATA	SEGMENT DWORD USE32 PUBLIC 'DATA'
_DATA	ENDS
;	COMDAT ??_R0?AVIFileIO@@@8
_DATA	SEGMENT DWORD USE32 PUBLIC 'DATA'
_DATA	ENDS
;	COMDAT ??_R0?AV?$SimpleDataList@PAVWindow@@@@@8
_DATA	SEGMENT DWORD USE32 PUBLIC 'DATA'
_DATA	ENDS
;	COMDAT ??_R0?AV?$SimpleDataList@PAUMESSAGE@@@@@8
_DATA	SEGMENT DWORD USE32 PUBLIC 'DATA'
_DATA	ENDS
;	COMDAT ??_R0?AVITypePackBase@@@8
_DATA	SEGMENT DWORD USE32 PUBLIC 'DATA'
_DATA	ENDS
;	COMDAT ??_R0?AViovfs_base@@@8
_DATA	SEGMENT DWORD USE32 PUBLIC 'DATA'
_DATA	ENDS
;	COMDAT ??_R0?AVovfstream@@@8
_DATA	SEGMENT DWORD USE32 PUBLIC 'DATA'
_DATA	ENDS
;	COMDAT ??_R4?$SimpleDataList@PAVLineEditorVisual@@@@6B@
rdata$r	SEGMENT DWORD USE32 PUBLIC 'CONST'
rdata$r	ENDS
;	COMDAT ??_R4?$SimpleDataList@PAVPI_Processor@@@@6B@
rdata$r	SEGMENT DWORD USE32 PUBLIC 'CONST'
rdata$r	ENDS
;	COMDAT ??_R4ivfstream@@6B@
rdata$r	SEGMENT DWORD USE32 PUBLIC 'CONST'
rdata$r	ENDS
;	COMDAT ??_R4iovfs_base@@6B@
rdata$r	SEGMENT DWORD USE32 PUBLIC 'CONST'
rdata$r	ENDS
;	COMDAT ??_R4IFileIO@@6B@
rdata$r	SEGMENT DWORD USE32 PUBLIC 'CONST'
rdata$r	ENDS
;	COMDAT ??_R4?$SimpleDataList@PAVWindow@@@@6B@
rdata$r	SEGMENT DWORD USE32 PUBLIC 'CONST'
rdata$r	ENDS
;	COMDAT ??_R4?$SimpleDataList@PAUMESSAGE@@@@6B@
rdata$r	SEGMENT DWORD USE32 PUBLIC 'CONST'
rdata$r	ENDS
;	COMDAT ??_R4ITypePackBase@@6B@
rdata$r	SEGMENT DWORD USE32 PUBLIC 'CONST'
rdata$r	ENDS
;	COMDAT ??_R4ovfstream@@6B@
rdata$r	SEGMENT DWORD USE32 PUBLIC 'CONST'
rdata$r	ENDS
;	COMDAT ?__copy_trivial@_STL@@YAPAXPBX0PAX@Z
_TEXT	SEGMENT PARA USE32 PUBLIC 'CODE'
_TEXT	ENDS
;	COMDAT ?assign@?$char_traits@D@_STL@@SAXAADABD@Z
_TEXT	SEGMENT PARA USE32 PUBLIC 'CODE'
_TEXT	ENDS
;	COMDAT ?_M_deallocate_block@?$_String_base@DV?$allocator@D@_STL@@@_STL@@QAEXXZ
_TEXT	SEGMENT PARA USE32 PUBLIC 'CODE'
_TEXT	ENDS
;	COMDAT ?deallocate@?$allocator@D@_STL@@QAEXPADI@Z
_TEXT	SEGMENT PARA USE32 PUBLIC 'CODE'
_TEXT	ENDS
;	COMDAT ?deallocate@?$__node_alloc@$00$0A@@_STL@@SAXPAXI@Z
_TEXT	SEGMENT PARA USE32 PUBLIC 'CODE'
_TEXT	ENDS
;	COMDAT ?__stl_delete@_STL@@YAXPAX@Z
_TEXT	SEGMENT PARA USE32 PUBLIC 'CODE'
_TEXT	ENDS
;	COMDAT ?uninitialized_copy@_STL@@YAPADPBD0PAD@Z
_TEXT	SEGMENT PARA USE32 PUBLIC 'CODE'
_TEXT	ENDS
;	COMDAT ?_M_incr@_List_iterator_base@_STL@@QAEXXZ
_TEXT	SEGMENT PARA USE32 PUBLIC 'CODE'
_TEXT	ENDS
;	COMDAT ??9_List_iterator_base@_STL@@QBE_NABU01@@Z
_TEXT	SEGMENT PARA USE32 PUBLIC 'CODE'
_TEXT	ENDS
;	COMDAT ?__page_size@_Filebuf_base@_STL@@SAIXZ
_TEXT	SEGMENT PARA USE32 PUBLIC 'CODE'
_TEXT	ENDS
;	COMDAT ?_M_write@?$basic_filebuf@DV?$char_traits@D@_STL@@@_STL@@QAE_NPADH@Z
_TEXT	SEGMENT PARA USE32 PUBLIC 'CODE'
_TEXT	ENDS
;	COMDAT ?unshift@?$codecvt@DDH@_STL@@QBE?AW4result@codecvt_base@2@AAHPAD1AAPAD@Z
_TEXT	SEGMENT PARA USE32 PUBLIC 'CODE'
_TEXT	ENDS
;	COMDAT ?__stl_new@_STL@@YAPAXI@Z
_TEXT	SEGMENT PARA USE32 PUBLIC 'CODE'
_TEXT	ENDS
;	COMDAT ??1?$_STLP_alloc_proxy@PADDV?$allocator@D@_STL@@@_STL@@QAE@XZ
_TEXT	SEGMENT PARA USE32 PUBLIC 'CODE'
_TEXT	ENDS
;	COMDAT ??_7?$SimpleDataList@PAUMESSAGE@@@@6B@
CONST	SEGMENT DWORD USE32 PUBLIC 'CONST'
CONST	ENDS
;	COMDAT ??_7?$SimpleDataList@PAVWindow@@@@6B@
CONST	SEGMENT DWORD USE32 PUBLIC 'CONST'
CONST	ENDS
;	COMDAT ??1?$_String_base@DV?$allocator@D@_STL@@@_STL@@QAE@XZ
_TEXT	SEGMENT PARA USE32 PUBLIC 'CODE'
_TEXT	ENDS
;	COMDAT ??1?$allocator@D@_STL@@QAE@XZ
_TEXT	SEGMENT PARA USE32 PUBLIC 'CODE'
_TEXT	ENDS
;	COMDAT ??_7?$SimpleDataList@PAVLineEditorVisual@@@@6B@
CONST	SEGMENT DWORD USE32 PUBLIC 'CONST'
CONST	ENDS
;	COMDAT ??_7?$SimpleDataList@PAVPI_Processor@@@@6B@
CONST	SEGMENT DWORD USE32 PUBLIC 'CONST'
CONST	ENDS
;	COMDAT ?always_noconv@?$codecvt@DDH@_STL@@QBE_NXZ
_TEXT	SEGMENT PARA USE32 PUBLIC 'CODE'
_TEXT	ENDS
;	COMDAT ?encoding@?$codecvt@DDH@_STL@@QBEHXZ
_TEXT	SEGMENT PARA USE32 PUBLIC 'CODE'
_TEXT	ENDS
;	COMDAT ?max_length@?$codecvt@DDH@_STL@@QBEHXZ
_TEXT	SEGMENT PARA USE32 PUBLIC 'CODE'
_TEXT	ENDS
;	COMDAT ?__o_mode@_Filebuf_base@_STL@@QBEHXZ
_TEXT	SEGMENT PARA USE32 PUBLIC 'CODE'
_TEXT	ENDS
;	COMDAT ??0_List_iterator_base@_STL@@QAE@PAU_List_node_base@1@@Z
_TEXT	SEGMENT PARA USE32 PUBLIC 'CODE'
_TEXT	ENDS
;	COMDAT ?_Destroy@_STL@@YAXPAD0@Z
_TEXT	SEGMENT PARA USE32 PUBLIC 'CODE'
_TEXT	ENDS
;	COMDAT ?setp@?$basic_streambuf@DV?$char_traits@D@_STL@@@_STL@@IAEXPAD0@Z
_TEXT	SEGMENT PARA USE32 PUBLIC 'CODE'
_TEXT	ENDS
;	COMDAT ?_FILE_O_set@_STL@@YAXPAU_iobuf@@PAD11@Z
_TEXT	SEGMENT PARA USE32 PUBLIC 'CODE'
_TEXT	ENDS
;	COMDAT ?_FILE_I_set@_STL@@YAXPAU_iobuf@@PAD11@Z
_TEXT	SEGMENT PARA USE32 PUBLIC 'CODE'
_TEXT	ENDS
;	COMDAT ?setg@?$basic_streambuf@DV?$char_traits@D@_STL@@@_STL@@IAEXPAD00@Z
_TEXT	SEGMENT PARA USE32 PUBLIC 'CODE'
_TEXT	ENDS
;	COMDAT ?__is_open@_Filebuf_base@_STL@@QBE_NXZ
_TEXT	SEGMENT PARA USE32 PUBLIC 'CODE'
_TEXT	ENDS
;	COMDAT ?length@?$char_traits@D@_STL@@SAIPBD@Z
_TEXT	SEGMENT PARA USE32 PUBLIC 'CODE'
_TEXT	ENDS
;	COMDAT ?eof@?$__char_traits_base@DH@_STL@@SAHXZ
_TEXT	SEGMENT PARA USE32 PUBLIC 'CODE'
_TEXT	ENDS
;	COMDAT ??_7ITypePackBase@@6B@
CONST	SEGMENT DWORD USE32 PUBLIC 'CONST'
CONST	ENDS
;	COMDAT ??_7ovfstream@@6B@
CONST	SEGMENT DWORD USE32 PUBLIC 'CONST'
CONST	ENDS
;	COMDAT ??_7ivfstream@@6B@
CONST	SEGMENT DWORD USE32 PUBLIC 'CONST'
CONST	ENDS
;	COMDAT ??_7iovfs_base@@6B@
CONST	SEGMENT DWORD USE32 PUBLIC 'CONST'
CONST	ENDS
;	COMDAT ??_7IFileIO@@6B@
CONST	SEGMENT DWORD USE32 PUBLIC 'CONST'
CONST	ENDS
;	COMDAT ??1?$basic_string@DV?$char_traits@D@_STL@@V?$allocator@D@2@@_STL@@QAE@XZ
_TEXT	SEGMENT PARA USE32 PUBLIC 'CODE'
_TEXT	ENDS
sxdata	SEGMENT DWORD USE32 'SXDATA'
sxdata	ENDS
FLAT	GROUP _DATA, CONST, _BSS
	ASSUME	CS: FLAT, DS: FLAT, SS: FLAT
endif

INCLUDELIB LIBCMT
INCLUDELIB OLDNAMES

PUBLIC	?gpC_base@@3PAVBase@@A				; gpC_base
_BSS	SEGMENT
?gpC_base@@3PAVBase@@A DD 01H DUP (?)			; gpC_base
_BSS	ENDS
PUBLIC	?GetSurface@CDirectDrawSurface@@QAEAAPAUIDirectDrawSurface7@@XZ ; CDirectDrawSurface::GetSurface
; Function compile flags: /Ogty
; File c:\darkeden\designed_common\project\client\cdirectdrawsurface.h
;	COMDAT ?GetSurface@CDirectDrawSurface@@QAEAAPAUIDirectDrawSurface7@@XZ
_TEXT	SEGMENT
?GetSurface@CDirectDrawSurface@@QAEAAPAUIDirectDrawSurface7@@XZ PROC NEAR ; CDirectDrawSurface::GetSurface, COMDAT
; _this$ = ecx

; 127  : 	inline LPDIRECTDRAWSURFACE7 &	GetSurface() { return m_pDDSurface; } const

  00000	8b c1		 mov	 eax, ecx
  00002	c3		 ret	 0
?GetSurface@CDirectDrawSurface@@QAEAAPAUIDirectDrawSurface7@@XZ ENDP ; CDirectDrawSurface::GetSurface
_TEXT	ENDS
PUBLIC	??0ACriticalSection@@QAE@XZ			; ACriticalSection::ACriticalSection
EXTRN	__imp__InitializeCriticalSection@4:NEAR
; Function compile flags: /Ogty
; File c:\darkeden\designed_common\project\client\acriticalsection.h
;	COMDAT ??0ACriticalSection@@QAE@XZ
_TEXT	SEGMENT
??0ACriticalSection@@QAE@XZ PROC NEAR			; ACriticalSection::ACriticalSection, COMDAT
; _this$ = ecx

; 33   : 	ACriticalSection()	{ InitializeCriticalSection(&m_cs);	}

  00000	56		 push	 esi
  00001	8b f1		 mov	 esi, ecx
  00003	56		 push	 esi
  00004	ff 15 00 00 00
	00		 call	 DWORD PTR __imp__InitializeCriticalSection@4
  0000a	8b c6		 mov	 eax, esi
  0000c	5e		 pop	 esi
  0000d	c3		 ret	 0
??0ACriticalSection@@QAE@XZ ENDP			; ACriticalSection::ACriticalSection
_TEXT	ENDS
PUBLIC	??1ACriticalSection@@QAE@XZ			; ACriticalSection::~ACriticalSection
EXTRN	__imp__DeleteCriticalSection@4:NEAR
; Function compile flags: /Ogty
;	COMDAT ??1ACriticalSection@@QAE@XZ
_TEXT	SEGMENT
??1ACriticalSection@@QAE@XZ PROC NEAR			; ACriticalSection::~ACriticalSection, COMDAT
; _this$ = ecx

; 34   : 	~ACriticalSection()	{ DeleteCriticalSection(&m_cs);		}

  00000	51		 push	 ecx
  00001	ff 15 00 00 00
	00		 call	 DWORD PTR __imp__DeleteCriticalSection@4
  00007	c3		 ret	 0
??1ACriticalSection@@QAE@XZ ENDP			; ACriticalSection::~ACriticalSection
_TEXT	ENDS
PUBLIC	??0Base@@QAE@XZ					; Base::Base
EXTRN	??0C_VS_UI_RESULT_RECEIVER@@QAE@XZ:NEAR		; C_VS_UI_RESULT_RECEIVER::C_VS_UI_RESULT_RECEIVER
EXTRN	??0CSpriteSurface@@QAE@XZ:NEAR			; CSpriteSurface::CSpriteSurface
EXTRN	??1CSpriteSurface@@QAE@XZ:NEAR			; CSpriteSurface::~CSpriteSurface
EXTRN	__except_list:DWORD
EXTRN	___CxxFrameHandler:NEAR
;	COMDAT xdata$x
xdata$x	SEGMENT
$T89754	DD	0ffffffffH
	DD	FLAT:$L89741
	DD	00H
	DD	FLAT:$L89742
$T89751	DD	019930520H
	DD	02H
	DD	FLAT:$T89754
	DD	2 DUP(00H)
	DD	2 DUP(00H)
; Function compile flags: /Ogty
; File c:\darkeden\designed_common\project\new - vs_ui\src\vs_ui_base.cpp
xdata$x	ENDS
;	COMDAT ??0Base@@QAE@XZ
_TEXT	SEGMENT
_this$ = -16						; size = 4
__$EHRec$ = -12						; size = 12
??0Base@@QAE@XZ PROC NEAR				; Base::Base, COMDAT
; _this$ = ecx

; 22   : {

  00000	6a ff		 push	 -1
  00002	68 00 00 00 00	 push	 __ehhandler$??0Base@@QAE@XZ
  00007	64 a1 00 00 00
	00		 mov	 eax, DWORD PTR fs:__except_list
  0000d	50		 push	 eax
  0000e	64 89 25 00 00
	00 00		 mov	 DWORD PTR fs:__except_list, esp
  00015	51		 push	 ecx
  00016	56		 push	 esi
  00017	8b f1		 mov	 esi, ecx
  00019	8d 4e 08	 lea	 ecx, DWORD PTR [esi+8]
  0001c	89 74 24 04	 mov	 DWORD PTR _this$[esp+20], esi
  00020	e8 00 00 00 00	 call	 ??0CSpriteSurface@@QAE@XZ ; CSpriteSurface::CSpriteSurface
  00025	8d 86 48 02 00
	00		 lea	 eax, DWORD PTR [esi+584]
  0002b	50		 push	 eax
  0002c	c7 44 24 14 00
	00 00 00	 mov	 DWORD PTR __$EHRec$[esp+32], 0
  00034	ff 15 00 00 00
	00		 call	 DWORD PTR __imp__InitializeCriticalSection@4
  0003a	8d 8e 74 02 00
	00		 lea	 ecx, DWORD PTR [esi+628]
  00040	c6 44 24 10 01	 mov	 BYTE PTR __$EHRec$[esp+28], 1
  00045	e8 00 00 00 00	 call	 ??0C_VS_UI_RESULT_RECEIVER@@QAE@XZ ; C_VS_UI_RESULT_RECEIVER::C_VS_UI_RESULT_RECEIVER

; 23   : 	m_event_occured = false;
; 24   : 	m_p_DDSurface_back = NULL;
; 25   : 
; 26   : 	m_chat_dialog_pi.hfont = NULL;
; 27   : 
; 28   : //	m_slayer_font	= C_FONT_MANAGER::NO_GID;
; 29   : //	m_vampire_font = C_FONT_MANAGER::NO_GID;
; 30   : //	m_bbs_font		= C_FONT_MANAGER::NO_GID;
; 31   : //	m_item_font		= C_FONT_MANAGER::NO_GID;
; 32   : //	m_normal_font	= C_FONT_MANAGER::NO_GID;
; 33   : }

  0004a	8b 4c 24 08	 mov	 ecx, DWORD PTR __$EHRec$[esp+20]
  0004e	c6 06 00	 mov	 BYTE PTR [esi], 0
  00051	c7 46 04 00 00
	00 00		 mov	 DWORD PTR [esi+4], 0
  00058	c7 86 58 01 00
	00 00 00 00 00	 mov	 DWORD PTR [esi+344], 0
  00062	8b c6		 mov	 eax, esi
  00064	5e		 pop	 esi
  00065	64 89 0d 00 00
	00 00		 mov	 DWORD PTR fs:__except_list, ecx
  0006c	83 c4 10	 add	 esp, 16			; 00000010H
  0006f	c3		 ret	 0
_TEXT	ENDS
;	COMDAT text$x
text$x	SEGMENT
$L89741:
  00000	8b 4d f0	 mov	 ecx, DWORD PTR _this$[ebp]
  00003	83 c1 08	 add	 ecx, 8
  00006	e9 00 00 00 00	 jmp	 ??1CSpriteSurface@@QAE@XZ ; CSpriteSurface::~CSpriteSurface
$L89742:
  0000b	8b 4d f0	 mov	 ecx, DWORD PTR _this$[ebp]
  0000e	81 c1 48 02 00
	00		 add	 ecx, 584		; 00000248H
  00014	e9 00 00 00 00	 jmp	 ??1ACriticalSection@@QAE@XZ ; ACriticalSection::~ACriticalSection
__ehhandler$??0Base@@QAE@XZ:
  00019	b8 00 00 00 00	 mov	 eax, OFFSET FLAT:$T89751
  0001e	e9 00 00 00 00	 jmp	 ___CxxFrameHandler
text$x	ENDS
??0Base@@QAE@XZ ENDP					; Base::Base
PUBLIC	??1Base@@QAE@XZ					; Base::~Base
EXTRN	__imp__DeleteObject@4:NEAR
EXTRN	??1C_VS_UI_RESULT_RECEIVER@@QAE@XZ:NEAR		; C_VS_UI_RESULT_RECEIVER::~C_VS_UI_RESULT_RECEIVER
;	COMDAT xdata$x
; File c:\darkeden\designed_common\project\client\acriticalsection.h
xdata$x	SEGMENT
$T89770	DD	0ffffffffH
	DD	FLAT:$L89761
	DD	00H
	DD	FLAT:$L89762
$T89768	DD	019930520H
	DD	02H
	DD	FLAT:$T89770
	DD	2 DUP(00H)
	DD	2 DUP(00H)
; Function compile flags: /Ogty
; File c:\darkeden\designed_common\project\new - vs_ui\src\vs_ui_base.cpp
xdata$x	ENDS
;	COMDAT ??1Base@@QAE@XZ
_TEXT	SEGMENT
_this$ = -16						; size = 4
__$EHRec$ = -12						; size = 12
??1Base@@QAE@XZ PROC NEAR				; Base::~Base, COMDAT
; _this$ = ecx

; 41   : {

  00000	6a ff		 push	 -1
  00002	68 00 00 00 00	 push	 __ehhandler$??1Base@@QAE@XZ
  00007	64 a1 00 00 00
	00		 mov	 eax, DWORD PTR fs:__except_list
  0000d	50		 push	 eax
  0000e	64 89 25 00 00
	00 00		 mov	 DWORD PTR fs:__except_list, esp
  00015	51		 push	 ecx
  00016	56		 push	 esi
  00017	8b f1		 mov	 esi, ecx
  00019	57		 push	 edi
  0001a	89 74 24 08	 mov	 DWORD PTR _this$[esp+24], esi

; 42   : 	DeleteObject(m_small_pi.hfont);

  0001e	8b 46 2c	 mov	 eax, DWORD PTR [esi+44]
  00021	8b 3d 00 00 00
	00		 mov	 edi, DWORD PTR __imp__DeleteObject@4
  00027	50		 push	 eax
  00028	c7 44 24 18 01
	00 00 00	 mov	 DWORD PTR __$EHRec$[esp+36], 1
  00030	ff d7		 call	 edi

; 43   : 	DeleteObject(m_chatting_pi.hfont);

  00032	8b 4e 40	 mov	 ecx, DWORD PTR [esi+64]
  00035	51		 push	 ecx
  00036	ff d7		 call	 edi

; 44   : 	DeleteObject(m_user_id_pi.hfont);

  00038	8b 56 54	 mov	 edx, DWORD PTR [esi+84]
  0003b	52		 push	 edx
  0003c	ff d7		 call	 edi

; 45   : 	DeleteObject(m_value_pi.hfont);

  0003e	8b 46 68	 mov	 eax, DWORD PTR [esi+104]
  00041	50		 push	 eax
  00042	ff d7		 call	 edi

; 46   : 	DeleteObject(m_value2_pi.hfont);

  00044	8b 4e 7c	 mov	 ecx, DWORD PTR [esi+124]
  00047	51		 push	 ecx
  00048	ff d7		 call	 edi

; 47   : 	DeleteObject(m_item_name_pi.hfont);

  0004a	8b 96 90 00 00
	00		 mov	 edx, DWORD PTR [esi+144]
  00050	52		 push	 edx
  00051	ff d7		 call	 edi

; 48   : 	DeleteObject(m_item_desc_pi.hfont);

  00053	8b 86 a4 00 00
	00		 mov	 eax, DWORD PTR [esi+164]
  00059	50		 push	 eax
  0005a	ff d7		 call	 edi

; 49   : 	DeleteObject(m_dialog_msg_pi.hfont);

  0005c	8b 8e cc 00 00
	00		 mov	 ecx, DWORD PTR [esi+204]
  00062	51		 push	 ecx
  00063	ff d7		 call	 edi

; 50   : 	DeleteObject(m_dialog_menu_pi.hfont);

  00065	8b 96 b8 00 00
	00		 mov	 edx, DWORD PTR [esi+184]
  0006b	52		 push	 edx
  0006c	ff d7		 call	 edi

; 51   : 	DeleteObject(m_desc_msg_pi.hfont);

  0006e	8b 86 f4 00 00
	00		 mov	 eax, DWORD PTR [esi+244]
  00074	50		 push	 eax
  00075	ff d7		 call	 edi

; 52   : 	DeleteObject(m_desc_menu_pi.hfont);

  00077	8b 8e e0 00 00
	00		 mov	 ecx, DWORD PTR [esi+224]
  0007d	51		 push	 ecx
  0007e	ff d7		 call	 edi

; 53   : 	DeleteObject(m_money_pi.hfont);

  00080	8b 96 08 01 00
	00		 mov	 edx, DWORD PTR [esi+264]
  00086	52		 push	 edx
  00087	ff d7		 call	 edi

; 54   : 	DeleteObject(m_char_value_pi.hfont);

  00089	8b 86 1c 01 00
	00		 mov	 eax, DWORD PTR [esi+284]
  0008f	50		 push	 eax
  00090	ff d7		 call	 edi

; 55   : 
; 56   : 	if (m_chat_dialog_pi.hfont != NULL)

  00092	8b 86 58 01 00
	00		 mov	 eax, DWORD PTR [esi+344]
  00098	85 c0		 test	 eax, eax
  0009a	74 03		 je	 SHORT $L88422

; 57   : 		DeleteObject(m_chat_dialog_pi.hfont);

  0009c	50		 push	 eax
  0009d	ff d7		 call	 edi
$L88422:

; 58   : 	DeleteObject(m_info_pi.hfont);

  0009f	8b 8e 6c 01 00
	00		 mov	 ecx, DWORD PTR [esi+364]
  000a5	51		 push	 ecx
  000a6	ff d7		 call	 edi

; 59   : 	DeleteObject(m_item_pi.hfont);

  000a8	8b 96 80 01 00
	00		 mov	 edx, DWORD PTR [esi+384]
  000ae	52		 push	 edx
  000af	ff d7		 call	 edi

; 60   : 
; 61   : 	DeleteObject(m_char_name_pi.hfont);		//by larosel

  000b1	8b 86 94 01 00
	00		 mov	 eax, DWORD PTR [esi+404]
  000b7	50		 push	 eax
  000b8	ff d7		 call	 edi

; 62   : 	DeleteObject(m_char_chat_pi.hfont);

  000ba	8b 8e a8 01 00
	00		 mov	 ecx, DWORD PTR [esi+424]
  000c0	51		 push	 ecx
  000c1	ff d7		 call	 edi

; 63   : 	DeleteObject(m_char_chat_large_pi.hfont);

  000c3	8b 96 30 01 00
	00		 mov	 edx, DWORD PTR [esi+304]
  000c9	52		 push	 edx
  000ca	ff d7		 call	 edi

; 64   : 	DeleteObject(m_char_chat_event_pi.hfont);

  000cc	8b 86 44 01 00
	00		 mov	 eax, DWORD PTR [esi+324]
  000d2	50		 push	 eax
  000d3	ff d7		 call	 edi

; 65   : 
; 66   : 	DeleteObject(m_party_name_pi.hfont);

  000d5	8b 8e bc 01 00
	00		 mov	 ecx, DWORD PTR [esi+444]
  000db	51		 push	 ecx
  000dc	ff d7		 call	 edi

; 67   : 	DeleteObject(m_xmas_pi.hfont);

  000de	8b 96 0c 02 00
	00		 mov	 edx, DWORD PTR [esi+524]
  000e4	52		 push	 edx
  000e5	ff d7		 call	 edi

; 68   : 	
; 69   : 
; 70   : 	DeleteObject(m_money2_pi.hfont);

  000e7	8b 86 20 02 00
	00		 mov	 eax, DWORD PTR [esi+544]
  000ed	50		 push	 eax
  000ee	ff d7		 call	 edi

; 71   : #if __CONTENTS(__TITLE_UI_RENWEAL)
; 72   : 	DeleteObject(m_title_menu_pi.hfont);  

  000f0	8b 8e 60 02 00
	00		 mov	 ecx, DWORD PTR [esi+608]
  000f6	51		 push	 ecx
  000f7	ff d7		 call	 edi

; 73   : #endif //__TITLE_UI_RENWEAL
; 74   : 	DeleteObject(m_gearinfo_pi.hfont);

  000f9	8b 96 34 02 00
	00		 mov	 edx, DWORD PTR [esi+564]
  000ff	52		 push	 edx
  00100	ff d7		 call	 edi

; 75   : }

  00102	8d 8e 74 02 00
	00		 lea	 ecx, DWORD PTR [esi+628]
  00108	e8 00 00 00 00	 call	 ??1C_VS_UI_RESULT_RECEIVER@@QAE@XZ ; C_VS_UI_RESULT_RECEIVER::~C_VS_UI_RESULT_RECEIVER
  0010d	8d 86 48 02 00
	00		 lea	 eax, DWORD PTR [esi+584]
  00113	50		 push	 eax
  00114	ff 15 00 00 00
	00		 call	 DWORD PTR __imp__DeleteCriticalSection@4
  0011a	8d 4e 08	 lea	 ecx, DWORD PTR [esi+8]
  0011d	c7 44 24 14 ff
	ff ff ff	 mov	 DWORD PTR __$EHRec$[esp+32], -1
  00125	e8 00 00 00 00	 call	 ??1CSpriteSurface@@QAE@XZ ; CSpriteSurface::~CSpriteSurface
  0012a	8b 4c 24 0c	 mov	 ecx, DWORD PTR __$EHRec$[esp+24]
  0012e	5f		 pop	 edi
  0012f	5e		 pop	 esi
  00130	64 89 0d 00 00
	00 00		 mov	 DWORD PTR fs:__except_list, ecx
  00137	83 c4 10	 add	 esp, 16			; 00000010H
  0013a	c3		 ret	 0
_TEXT	ENDS
;	COMDAT text$x
text$x	SEGMENT
$L89761:
  00000	8b 4d f0	 mov	 ecx, DWORD PTR _this$[ebp]
  00003	83 c1 08	 add	 ecx, 8
  00006	e9 00 00 00 00	 jmp	 ??1CSpriteSurface@@QAE@XZ ; CSpriteSurface::~CSpriteSurface
$L89762:
  0000b	8b 4d f0	 mov	 ecx, DWORD PTR _this$[ebp]
  0000e	81 c1 48 02 00
	00		 add	 ecx, 584		; 00000248H
  00014	e9 00 00 00 00	 jmp	 ??1ACriticalSection@@QAE@XZ ; ACriticalSection::~ACriticalSection
__ehhandler$??1Base@@QAE@XZ:
  00019	b8 00 00 00 00	 mov	 eax, OFFSET FLAT:$T89768
  0001e	e9 00 00 00 00	 jmp	 ___CxxFrameHandler
text$x	ENDS
??1Base@@QAE@XZ ENDP					; Base::~Base
PUBLIC	?SetFont@Base@@AAEXAAUPrintInfo@@AAUtagLOGFONTA@@KKHH@Z ; Base::SetFont
PUBLIC	??_C@_0EB@PPOCDDGI@?2darkeden?2Designed_Common?2Projec@ ; `string'
EXTRN	__imp__CreateFontIndirectA@4:NEAR
EXTRN	?g_BasicException@@YAXW4EXCEPTION_CODE@@PAD1K@Z:NEAR ; g_BasicException
;	COMDAT ??_C@_0EB@PPOCDDGI@?2darkeden?2Designed_Common?2Projec@
CONST	SEGMENT
??_C@_0EB@PPOCDDGI@?2darkeden?2Designed_Common?2Projec@ DB '\darkeden\Des'
	DB	'igned_Common\Project\New - vs_ui\src\VS_UI_Base.cpp', 00H ; `string'
; Function compile flags: /Ogty
CONST	ENDS
;	COMDAT ?SetFont@Base@@AAEXAAUPrintInfo@@AAUtagLOGFONTA@@KKHH@Z
_TEXT	SEGMENT
_pi$ = 8						; size = 4
_lf$ = 12						; size = 4
_textcolor$ = 16					; size = 4
_backcolor$ = 20					; size = 4
_bk_mode$ = 24						; size = 4
_align$ = 28						; size = 4
?SetFont@Base@@AAEXAAUPrintInfo@@AAUtagLOGFONTA@@KKHH@Z PROC NEAR ; Base::SetFont, COMDAT
; _this$ = ecx

; 84   : 	HFONT hfont = CreateFontIndirect(&lf);

  00000	8b 44 24 08	 mov	 eax, DWORD PTR _lf$[esp-4]
  00004	56		 push	 esi
  00005	50		 push	 eax
  00006	ff 15 00 00 00
	00		 call	 DWORD PTR __imp__CreateFontIndirectA@4
  0000c	8b f0		 mov	 esi, eax

; 85   : 
; 86   : 
; 87   : #ifdef UNICODE
; 88   : 	int a = 0;
; 89   : #endif 
; 90   : 
; 91   : 	if (hfont == NULL)

  0000e	85 f6		 test	 esi, esi
  00010	75 12		 jne	 SHORT $L88433

; 92   : 	  _Error(FAILED_JOB);

  00012	6a 5c		 push	 92			; 0000005cH
  00014	68 00 00 00 00	 push	 OFFSET FLAT:??_C@_0EB@PPOCDDGI@?2darkeden?2Designed_Common?2Projec@
  00019	50		 push	 eax
  0001a	6a 04		 push	 4
  0001c	e8 00 00 00 00	 call	 ?g_BasicException@@YAXW4EXCEPTION_CODE@@PAD1K@Z ; g_BasicException
  00021	83 c4 10	 add	 esp, 16			; 00000010H
$L88433:

; 93   : 
; 94   : 	pi.hfont = hfont;

  00024	8b 44 24 08	 mov	 eax, DWORD PTR _pi$[esp]

; 95   : 	pi.text_color = textcolor;

  00028	8b 4c 24 10	 mov	 ecx, DWORD PTR _textcolor$[esp]

; 96   : 	pi.back_color = backcolor;

  0002c	8b 54 24 14	 mov	 edx, DWORD PTR _backcolor$[esp]
  00030	89 48 04	 mov	 DWORD PTR [eax+4], ecx

; 97   : 	pi.bk_mode = bk_mode;

  00033	8b 4c 24 18	 mov	 ecx, DWORD PTR _bk_mode$[esp]
  00037	89 50 08	 mov	 DWORD PTR [eax+8], edx

; 98   : 	pi.text_align = align;

  0003a	8b 54 24 1c	 mov	 edx, DWORD PTR _align$[esp]
  0003e	89 30		 mov	 DWORD PTR [eax], esi
  00040	89 48 0c	 mov	 DWORD PTR [eax+12], ecx
  00043	89 50 10	 mov	 DWORD PTR [eax+16], edx
  00046	5e		 pop	 esi

; 99   : }

  00047	c2 18 00	 ret	 24			; 00000018H
?SetFont@Base@@AAEXAAUPrintInfo@@AAUtagLOGFONTA@@KKHH@Z ENDP ; Base::SetFont
_TEXT	ENDS
PUBLIC	?SetDefaultLogfont@Base@@ABEXAAUtagLOGFONTA@@@Z	; Base::SetDefaultLogfont
PUBLIC	??_C@_0L@IPEIPBIF@MS?5PGothic?$AA@		; `string'
PUBLIC	??_C@_06MFMMLLPC@?$LB?$LM?$LI?$LC?C?$LM?$AA@	; `string'
EXTRN	?gC_ci@@3PAVCI@@A:DWORD				; gC_ci
;	COMDAT ??_C@_0L@IPEIPBIF@MS?5PGothic?$AA@
CONST	SEGMENT
??_C@_0L@IPEIPBIF@MS?5PGothic?$AA@ DB 'MS PGothic', 00H	; `string'
CONST	ENDS
;	COMDAT ??_C@_06MFMMLLPC@?$LB?$LM?$LI?$LC?C?$LM?$AA@
CONST	SEGMENT
??_C@_06MFMMLLPC@?$LB?$LM?$LI?$LC?C?$LM?$AA@ DB 0b1H, 0bcH, 0b8H, 0b2H, 0c3H
	DB	0bcH, 00H					; `string'
; Function compile flags: /Ogty
CONST	ENDS
;	COMDAT ?SetDefaultLogfont@Base@@ABEXAAUtagLOGFONTA@@@Z
_TEXT	SEGMENT
_lf$ = 8						; size = 4
?SetDefaultLogfont@Base@@ABEXAAUtagLOGFONTA@@@Z PROC NEAR ; Base::SetDefaultLogfont, COMDAT
; _this$ = ecx

; 107  : {

  00000	53		 push	 ebx

; 108  : 	lf.lfHeight = 0; // 0 = default

  00001	33 db		 xor	 ebx, ebx
  00003	56		 push	 esi
  00004	8b 74 24 0c	 mov	 esi, DWORD PTR _lf$[esp+4]
  00008	89 1e		 mov	 DWORD PTR [esi], ebx

; 109  : 	lf.lfWidth = 0; // 0 = 높이에 기준하여 자동으로 설정됨.

  0000a	89 5e 04	 mov	 DWORD PTR [esi+4], ebx

; 110  : 	lf.lfEscapement = 0; // 방향설정 (900, 2700)

  0000d	89 5e 08	 mov	 DWORD PTR [esi+8], ebx

; 111  : 	lf.lfOrientation = 0;

  00010	89 5e 0c	 mov	 DWORD PTR [esi+12], ebx

; 112  : 	lf.lfWeight = FW_NORMAL; // FW_BOLD

  00013	c7 46 10 90 01
	00 00		 mov	 DWORD PTR [esi+16], 400	; 00000190H

; 113  : 	lf.lfItalic = 0; // 0 아닌 값이면 italic이다.

  0001a	88 5e 14	 mov	 BYTE PTR [esi+20], bl

; 114  : 	lf.lfUnderline = 0;

  0001d	88 5e 15	 mov	 BYTE PTR [esi+21], bl

; 115  : 	lf.lfStrikeOut = 0;

  00020	88 5e 16	 mov	 BYTE PTR [esi+22], bl

; 116  : 	if(gC_ci->IsChinese())

  00023	8b 0d 00 00 00
	00		 mov	 ecx, DWORD PTR ?gC_ci@@3PAVCI@@A ; gC_ci
  00029	8b 01		 mov	 eax, DWORD PTR [ecx]
  0002b	ff 50 04	 call	 DWORD PTR [eax+4]
  0002e	84 c0		 test	 al, al
  00030	74 06		 je	 SHORT $L88439

; 117  : 		lf.lfCharSet = GB2312_CHARSET;//*/JOHAB_CHARSET;

  00032	c6 46 17 86	 mov	 BYTE PTR [esi+23], 134	; 00000086H

; 118  : 		//lf.lfCharSet = THAI_CHARSET;//*/JOHAB_CHARSET;揭匡와빵똥
; 119  :     else if(gC_ci->IsJapanese())

  00036	eb 17		 jmp	 SHORT $L88441
$L88439:
  00038	8b 0d 00 00 00
	00		 mov	 ecx, DWORD PTR ?gC_ci@@3PAVCI@@A ; gC_ci
  0003e	8b 11		 mov	 edx, DWORD PTR [ecx]
  00040	ff 52 08	 call	 DWORD PTR [edx+8]
  00043	f6 d8		 neg	 al
  00045	1a c0		 sbb	 al, al
  00047	05 81 00 00 00	 add	 eax, 129		; 00000081H
  0004c	88 46 17	 mov	 BYTE PTR [esi+23], al
$L88441:

; 120  : 		lf.lfCharSet = SHIFTJIS_CHARSET ;
; 121  : 	else
; 122  : 		lf.lfCharSet = HANGUL_CHARSET;//*/JOHAB_CHARSET;
; 123  : 	if(gC_ci->IsJapanese())

  0004f	8b 0d 00 00 00
	00		 mov	 ecx, DWORD PTR ?gC_ci@@3PAVCI@@A ; gC_ci
  00055	8b 01		 mov	 eax, DWORD PTR [ecx]
  00057	ff 50 08	 call	 DWORD PTR [eax+8]
  0005a	84 c0		 test	 al, al

; 124  : 	{
; 125  : 		lf.lfOutPrecision = OUT_DEFAULT_PRECIS;
; 126  : 		lf.lfClipPrecision = CLIP_DEFAULT_PRECIS;

  0005c	88 5e 19	 mov	 BYTE PTR [esi+25], bl
  0005f	88 5e 18	 mov	 BYTE PTR [esi+24], bl
  00062	74 34		 je	 SHORT $L88443

; 127  : 		lf.lfQuality = PROOF_QUALITY ; //DEFAULT_QUALITY;

  00064	c6 46 1a 02	 mov	 BYTE PTR [esi+26], 2

; 128  : 		lf.lfPitchAndFamily = DEFAULT_PITCH | FF_ROMAN  ; // FF_DONTCARE;

  00068	c6 46 1b 10	 mov	 BYTE PTR [esi+27], 16	; 00000010H

; 129  : 		strcpy(lf.lfFaceName, "MS PGothic");//"Times New Roman");

  0006c	8b 0d 00 00 00
	00		 mov	 ecx, DWORD PTR ??_C@_0L@IPEIPBIF@MS?5PGothic?$AA@
  00072	83 c6 1c	 add	 esi, 28			; 0000001cH
  00075	89 0e		 mov	 DWORD PTR [esi], ecx
  00077	8b 15 04 00 00
	00		 mov	 edx, DWORD PTR ??_C@_0L@IPEIPBIF@MS?5PGothic?$AA@+4
  0007d	89 56 04	 mov	 DWORD PTR [esi+4], edx
  00080	66 a1 08 00 00
	00		 mov	 ax, WORD PTR ??_C@_0L@IPEIPBIF@MS?5PGothic?$AA@+8
  00086	66 89 46 08	 mov	 WORD PTR [esi+8], ax
  0008a	8a 0d 0a 00 00
	00		 mov	 cl, BYTE PTR ??_C@_0L@IPEIPBIF@MS?5PGothic?$AA@+10
  00090	88 4e 0a	 mov	 BYTE PTR [esi+10], cl
  00093	5e		 pop	 esi
  00094	5b		 pop	 ebx

; 138  : 	}
; 139  : }

  00095	c2 04 00	 ret	 4
$L88443:

; 130  : 	}
; 131  : 	else
; 132  : 	{
; 133  : 		lf.lfOutPrecision = OUT_DEFAULT_PRECIS;
; 134  : 		lf.lfClipPrecision = CLIP_DEFAULT_PRECIS;
; 135  : 		lf.lfQuality = DEFAULT_QUALITY;

  00098	88 5e 1a	 mov	 BYTE PTR [esi+26], bl

; 136  : 		lf.lfPitchAndFamily = DEFAULT_PITCH|FF_DONTCARE;

  0009b	88 5e 1b	 mov	 BYTE PTR [esi+27], bl

; 137  : 		strcpy(lf.lfFaceName, "굴림체");//"Times New Roman");

  0009e	8b 15 00 00 00
	00		 mov	 edx, DWORD PTR ??_C@_06MFMMLLPC@?$LB?$LM?$LI?$LC?C?$LM?$AA@
  000a4	83 c6 1c	 add	 esi, 28			; 0000001cH
  000a7	89 16		 mov	 DWORD PTR [esi], edx
  000a9	66 a1 04 00 00
	00		 mov	 ax, WORD PTR ??_C@_06MFMMLLPC@?$LB?$LM?$LI?$LC?C?$LM?$AA@+4
  000af	66 89 46 04	 mov	 WORD PTR [esi+4], ax
  000b3	8a 0d 06 00 00
	00		 mov	 cl, BYTE PTR ??_C@_06MFMMLLPC@?$LB?$LM?$LI?$LC?C?$LM?$AA@+6
  000b9	88 4e 06	 mov	 BYTE PTR [esi+6], cl
  000bc	5e		 pop	 esi
  000bd	5b		 pop	 ebx

; 138  : 	}
; 139  : }

  000be	c2 04 00	 ret	 4
?SetDefaultLogfont@Base@@ABEXAAUtagLOGFONTA@@@Z ENDP	; Base::SetDefaultLogfont
_TEXT	ENDS
PUBLIC	?InitFont@Base@@AAEXXZ				; Base::InitFont
PUBLIC	??_C@_04IKDGCAJA@?K?N?L?e?$AA@			; `string'
PUBLIC	??_C@_0O@LAEHDGPN@?$ICl?$ICr?5?$IDS?$IDV?$IDb?$IDN?$AA@ ; `string'
PUBLIC	??_C@_0O@LMJDHGJK@MS?5Sans?5Serif?$AA@		; `string'
PUBLIC	??_C@_06IDCGFJNK@?$LF?$LI?$LP?r?C?$LM?$AA@	; `string'
PUBLIC	??_C@_06CGJLLEAJ@?P?B?K?N?L?e?$AA@		; `string'
PUBLIC	??_C@_04FOGALLPG@?$LB?$LM?$LI?$LC?$AA@		; `string'
PUBLIC	??_C@_09LCOPKLB@?$ICl?$ICr?5?$JG?$LO?$JC?$KJ?$AA@ ; `string'
PUBLIC	??_C@_08OGLPJIFC@?$LI?$LM?$MA?$LK?$LA?m?$LF?q?$AA@ ; `string'
EXTRN	?SetJapanInput@CI@@QAEXXZ:NEAR			; CI::SetJapanInput
EXTRN	___security_cookie:DWORD
EXTRN	@__security_check_cookie@4:NEAR
;	COMDAT ??_C@_0O@LAEHDGPN@?$ICl?$ICr?5?$IDS?$IDV?$IDb?$IDN?$AA@
CONST	SEGMENT
??_C@_0O@LAEHDGPN@?$ICl?$ICr?5?$IDS?$IDV?$IDb?$IDN?$AA@ DB 082H, 'l', 082H
	DB	'r ', 083H, 'S', 083H, 'V', 083H, 'b', 083H, 'N', 00H ; `string'
CONST	ENDS
;	COMDAT ??_C@_0O@LMJDHGJK@MS?5Sans?5Serif?$AA@
CONST	SEGMENT
??_C@_0O@LMJDHGJK@MS?5Sans?5Serif?$AA@ DB 'MS Sans Serif', 00H ; `string'
CONST	ENDS
;	COMDAT ??_C@_06IDCGFJNK@?$LF?$LI?$LP?r?C?$LM?$AA@
CONST	SEGMENT
??_C@_06IDCGFJNK@?$LF?$LI?$LP?r?C?$LM?$AA@ DB 0b5H, 0b8H, 0bfH, 0f2H, 0c3H
	DB	0bcH, 00H					; `string'
CONST	ENDS
;	COMDAT ??_C@_04IKDGCAJA@?K?N?L?e?$AA@
CONST	SEGMENT
??_C@_04IKDGCAJA@?K?N?L?e?$AA@ DB 0cbH, 0ceH, 0ccH, 0e5H, 00H ; `string'
CONST	ENDS
;	COMDAT ??_C@_06CGJLLEAJ@?P?B?K?N?L?e?$AA@
CONST	SEGMENT
??_C@_06CGJLLEAJ@?P?B?K?N?L?e?$AA@ DB 0d0H, 0c2H, 0cbH, 0ceH, 0ccH, 0e5H, 00H ; `string'
CONST	ENDS
;	COMDAT ??_C@_04FOGALLPG@?$LB?$LM?$LI?$LC?$AA@
CONST	SEGMENT
??_C@_04FOGALLPG@?$LB?$LM?$LI?$LC?$AA@ DB 0b1H, 0bcH, 0b8H, 0b2H, 00H ; `string'
CONST	ENDS
;	COMDAT ??_C@_08OGLPJIFC@?$LI?$LM?$MA?$LK?$LA?m?$LF?q?$AA@
CONST	SEGMENT
??_C@_08OGLPJIFC@?$LI?$LM?$MA?$LK?$LA?m?$LF?q?$AA@ DB 0b8H, 0bcH, 0c0H, 0baH
	DB	0b0H, 0edH, 0b5H, 0f1H, 00H			; `string'
CONST	ENDS
;	COMDAT ??_C@_09LCOPKLB@?$ICl?$ICr?5?$JG?$LO?$JC?$KJ?$AA@
CONST	SEGMENT
??_C@_09LCOPKLB@?$ICl?$ICr?5?$JG?$LO?$JC?$KJ?$AA@ DB 082H, 'l', 082H, 'r '
	DB	096H, 0beH, 092H, 0a9H, 00H			; `string'
; Function compile flags: /Ogty
CONST	ENDS
;	COMDAT ?InitFont@Base@@AAEXXZ
_TEXT	SEGMENT
_hfont$89980 = -388					; size = 4
_hfont$89959 = -388					; size = 4
_hfont$89952 = -388					; size = 4
_hfont$89945 = -388					; size = 4
_hfont$89938 = -388					; size = 4
_hfont$89931 = -388					; size = 4
_hfont$89924 = -388					; size = 4
_hfont$89854 = -388					; size = 4
tv1133 = -384						; size = 4
_Language$ = -377					; size = 1
tv2280 = -376						; size = 4
tv1132 = -372						; size = 4
tv2282 = -368						; size = 4
_lf$ = -364						; size = 60
_szFontName$ = -304					; size = 300
__$ArrayPad$ = -4					; size = 4
__$ReturnAddr$ = 4					; size = 4
?InitFont@Base@@AAEXXZ PROC NEAR			; Base::InitFont, COMDAT
; _this$ = ecx

; 202  : {

  00000	81 ec 84 01 00
	00		 sub	 esp, 388		; 00000184H

; 216  : 		{ "MS Sans Serif",	"MS Sans Serif","lr SVbN"},

  00006	a1 00 00 00 00	 mov	 eax, DWORD PTR ___security_cookie

; 217  : 		{ "돋움체",			"劤芥竟",		"lr SVbN"},

  0000b	89 84 24 80 01
	00 00		 mov	 DWORD PTR __$ArrayPad$[esp+388], eax
  00012	53		 push	 ebx
  00013	55		 push	 ebp
  00014	56		 push	 esi
  00015	57		 push	 edi
  00016	8b f1		 mov	 esi, ecx

; 203  : 	LOGFONT lf;
; 204  : 
; 205  : 	// 
; 206  : 	// 괜찮은 style
; 207  : 	//
; 208  : 	// - 바탕, 13
; 209  : 	//
; 210  : 	// !Times New Romans로 하지 말것. OS간 위치 안맞는 문제 발생함.
; 211  : 	//Tahoma
; 212  : 	//change by rallser  揭벌와빵똥
; 213  : 	const char szFontName[5][3][20] = {
; 214  : 		// Hangul Font      Chinese Font
; 215  : 		{ "굴림체",			"芥竟",			"lr SVbN"},

  00018	66 8b 1d 0c 00
	00 00		 mov	 bx, WORD PTR ??_C@_0O@LAEHDGPN@?$ICl?$ICr?5?$IDS?$IDV?$IDb?$IDN?$AA@+12
  0001f	66 89 9c 24 98
	00 00 00	 mov	 WORD PTR _szFontName$[esp+456], bx
  00027	33 db		 xor	 ebx, ebx
  00029	89 9c 24 9a 00
	00 00		 mov	 DWORD PTR _szFontName$[esp+458], ebx
  00030	66 89 9c 24 9e
	00 00 00	 mov	 WORD PTR _szFontName$[esp+462], bx

; 216  : 		{ "MS Sans Serif",	"MS Sans Serif","lr SVbN"},

  00038	8b 1d 00 00 00
	00		 mov	 ebx, DWORD PTR ??_C@_0O@LMJDHGJK@MS?5Sans?5Serif?$AA@
  0003e	89 9c 24 a0 00
	00 00		 mov	 DWORD PTR _szFontName$[esp+464], ebx
  00045	8b 1d 04 00 00
	00		 mov	 ebx, DWORD PTR ??_C@_0O@LMJDHGJK@MS?5Sans?5Serif?$AA@+4
  0004b	89 9c 24 a4 00
	00 00		 mov	 DWORD PTR _szFontName$[esp+468], ebx
  00052	8b 1d 08 00 00
	00		 mov	 ebx, DWORD PTR ??_C@_0O@LMJDHGJK@MS?5Sans?5Serif?$AA@+8
  00058	89 9c 24 a8 00
	00 00		 mov	 DWORD PTR _szFontName$[esp+472], ebx
  0005f	66 8b 1d 0c 00
	00 00		 mov	 bx, WORD PTR ??_C@_0O@LMJDHGJK@MS?5Sans?5Serif?$AA@+12
  00066	66 89 9c 24 ac
	00 00 00	 mov	 WORD PTR _szFontName$[esp+476], bx
  0006e	33 db		 xor	 ebx, ebx
  00070	89 9c 24 ae 00
	00 00		 mov	 DWORD PTR _szFontName$[esp+478], ebx
  00077	66 89 9c 24 b2
	00 00 00	 mov	 WORD PTR _szFontName$[esp+482], bx
  0007f	8b 1d 00 00 00
	00		 mov	 ebx, DWORD PTR ??_C@_0O@LMJDHGJK@MS?5Sans?5Serif?$AA@
  00085	89 9c 24 b4 00
	00 00		 mov	 DWORD PTR _szFontName$[esp+484], ebx
  0008c	8b 1d 04 00 00
	00		 mov	 ebx, DWORD PTR ??_C@_0O@LMJDHGJK@MS?5Sans?5Serif?$AA@+4
  00092	89 9c 24 b8 00
	00 00		 mov	 DWORD PTR _szFontName$[esp+488], ebx
  00099	8b 1d 08 00 00
	00		 mov	 ebx, DWORD PTR ??_C@_0O@LMJDHGJK@MS?5Sans?5Serif?$AA@+8
  0009f	8a 15 06 00 00
	00		 mov	 dl, BYTE PTR ??_C@_06MFMMLLPC@?$LB?$LM?$LI?$LC?C?$LM?$AA@+6
  000a5	89 9c 24 bc 00
	00 00		 mov	 DWORD PTR _szFontName$[esp+492], ebx
  000ac	66 8b 1d 0c 00
	00 00		 mov	 bx, WORD PTR ??_C@_0O@LMJDHGJK@MS?5Sans?5Serif?$AA@+12
  000b3	66 89 9c 24 c0
	00 00 00	 mov	 WORD PTR _szFontName$[esp+496], bx
  000bb	33 db		 xor	 ebx, ebx
  000bd	89 9c 24 c2 00
	00 00		 mov	 DWORD PTR _szFontName$[esp+498], ebx
  000c4	66 89 9c 24 c6
	00 00 00	 mov	 WORD PTR _szFontName$[esp+502], bx
  000cc	66 8b 1d 0c 00
	00 00		 mov	 bx, WORD PTR ??_C@_0O@LAEHDGPN@?$ICl?$ICr?5?$IDS?$IDV?$IDb?$IDN?$AA@+12
  000d3	66 89 9c 24 d4
	00 00 00	 mov	 WORD PTR _szFontName$[esp+516], bx
  000db	33 db		 xor	 ebx, ebx
  000dd	89 9c 24 d6 00
	00 00		 mov	 DWORD PTR _szFontName$[esp+518], ebx
  000e4	66 89 9c 24 da
	00 00 00	 mov	 WORD PTR _szFontName$[esp+522], bx

; 217  : 		{ "돋움체",			"劤芥竟",		"lr SVbN"},

  000ec	8b 1d 00 00 00
	00		 mov	 ebx, DWORD PTR ??_C@_06IDCGFJNK@?$LF?$LI?$LP?r?C?$LM?$AA@
  000f2	89 9c 24 dc 00
	00 00		 mov	 DWORD PTR _szFontName$[esp+524], ebx
  000f9	66 8b 1d 04 00
	00 00		 mov	 bx, WORD PTR ??_C@_06IDCGFJNK@?$LF?$LI?$LP?r?C?$LM?$AA@+4
  00100	a1 00 00 00 00	 mov	 eax, DWORD PTR ??_C@_06MFMMLLPC@?$LB?$LM?$LI?$LC?C?$LM?$AA@
  00105	88 54 24 6a	 mov	 BYTE PTR _szFontName$[esp+410], dl
  00109	33 d2		 xor	 edx, edx
  0010b	66 89 9c 24 e0
	00 00 00	 mov	 WORD PTR _szFontName$[esp+528], bx
  00113	8a 1d 06 00 00
	00		 mov	 bl, BYTE PTR ??_C@_06IDCGFJNK@?$LF?$LI?$LP?r?C?$LM?$AA@+6
  00119	89 44 24 64	 mov	 DWORD PTR _szFontName$[esp+404], eax
  0011d	33 c0		 xor	 eax, eax
  0011f	89 54 24 7d	 mov	 DWORD PTR _szFontName$[esp+429], edx
  00123	88 9c 24 e2 00
	00 00		 mov	 BYTE PTR _szFontName$[esp+530], bl
  0012a	33 db		 xor	 ebx, ebx
  0012c	8b 2d 04 00 00
	00		 mov	 ebp, DWORD PTR ??_C@_0O@LAEHDGPN@?$ICl?$ICr?5?$IDS?$IDV?$IDb?$IDN?$AA@+4
  00132	89 44 24 6b	 mov	 DWORD PTR _szFontName$[esp+411], eax
  00136	89 94 24 81 00
	00 00		 mov	 DWORD PTR _szFontName$[esp+433], edx
  0013d	89 9c 24 e3 00
	00 00		 mov	 DWORD PTR _szFontName$[esp+531], ebx
  00144	89 44 24 6f	 mov	 DWORD PTR _szFontName$[esp+415], eax
  00148	89 94 24 85 00
	00 00		 mov	 DWORD PTR _szFontName$[esp+437], edx
  0014f	66 8b 0d 04 00
	00 00		 mov	 cx, WORD PTR ??_C@_06MFMMLLPC@?$LB?$LM?$LI?$LC?C?$LM?$AA@+4
  00156	89 44 24 73	 mov	 DWORD PTR _szFontName$[esp+419], eax
  0015a	66 89 94 24 89
	00 00 00	 mov	 WORD PTR _szFontName$[esp+441], dx
  00162	89 9c 24 e7 00
	00 00		 mov	 DWORD PTR _szFontName$[esp+535], ebx
  00169	89 9c 24 eb 00
	00 00		 mov	 DWORD PTR _szFontName$[esp+539], ebx
  00170	8b 3d 00 00 00
	00		 mov	 edi, DWORD PTR ??_C@_0O@LAEHDGPN@?$ICl?$ICr?5?$IDS?$IDV?$IDb?$IDN?$AA@
  00176	66 89 4c 24 68	 mov	 WORD PTR _szFontName$[esp+408], cx
  0017b	8a 0d 04 00 00
	00		 mov	 cl, BYTE PTR ??_C@_04IKDGCAJA@?K?N?L?e?$AA@+4
  00181	88 44 24 77	 mov	 BYTE PTR _szFontName$[esp+423], al
  00185	a1 00 00 00 00	 mov	 eax, DWORD PTR ??_C@_04IKDGCAJA@?K?N?L?e?$AA@
  0018a	88 94 24 8b 00
	00 00		 mov	 BYTE PTR _szFontName$[esp+443], dl
  00191	8b 15 08 00 00
	00		 mov	 edx, DWORD PTR ??_C@_0O@LAEHDGPN@?$ICl?$ICr?5?$IDS?$IDV?$IDb?$IDN?$AA@+8
  00197	88 9c 24 ef 00
	00 00		 mov	 BYTE PTR _szFontName$[esp+543], bl
  0019e	8b 1d 00 00 00
	00		 mov	 ebx, DWORD PTR ??_C@_06CGJLLEAJ@?P?B?K?N?L?e?$AA@
  001a4	89 44 24 78	 mov	 DWORD PTR _szFontName$[esp+424], eax
  001a8	88 4c 24 7c	 mov	 BYTE PTR _szFontName$[esp+428], cl
  001ac	89 bc 24 8c 00
	00 00		 mov	 DWORD PTR _szFontName$[esp+444], edi
  001b3	89 ac 24 90 00
	00 00		 mov	 DWORD PTR _szFontName$[esp+448], ebp
  001ba	89 94 24 94 00
	00 00		 mov	 DWORD PTR _szFontName$[esp+452], edx
  001c1	89 bc 24 c8 00
	00 00		 mov	 DWORD PTR _szFontName$[esp+504], edi
  001c8	89 ac 24 cc 00
	00 00		 mov	 DWORD PTR _szFontName$[esp+508], ebp
  001cf	89 94 24 d0 00
	00 00		 mov	 DWORD PTR _szFontName$[esp+512], edx
  001d6	89 94 24 0c 01
	00 00		 mov	 DWORD PTR _szFontName$[esp+572], edx
  001dd	66 8b 15 0c 00
	00 00		 mov	 dx, WORD PTR ??_C@_0O@LAEHDGPN@?$ICl?$ICr?5?$IDS?$IDV?$IDb?$IDN?$AA@+12
  001e4	66 89 94 24 10
	01 00 00	 mov	 WORD PTR _szFontName$[esp+576], dx
  001ec	33 d2		 xor	 edx, edx
  001ee	89 9c 24 f0 00
	00 00		 mov	 DWORD PTR _szFontName$[esp+544], ebx
  001f5	66 8b 1d 04 00
	00 00		 mov	 bx, WORD PTR ??_C@_06CGJLLEAJ@?P?B?K?N?L?e?$AA@+4
  001fc	89 94 24 12 01
	00 00		 mov	 DWORD PTR _szFontName$[esp+578], edx
  00203	66 89 94 24 16
	01 00 00	 mov	 WORD PTR _szFontName$[esp+582], dx

; 218  : 		{ "굴림",			"芥竟",			"lr "},

  0020b	8b 15 00 00 00
	00		 mov	 edx, DWORD PTR ??_C@_04FOGALLPG@?$LB?$LM?$LI?$LC?$AA@
  00211	66 89 9c 24 f4
	00 00 00	 mov	 WORD PTR _szFontName$[esp+548], bx
  00219	8a 1d 06 00 00
	00		 mov	 bl, BYTE PTR ??_C@_06CGJLLEAJ@?P?B?K?N?L?e?$AA@+6
  0021f	89 94 24 18 01
	00 00		 mov	 DWORD PTR _szFontName$[esp+584], edx
  00226	8a 15 04 00 00
	00		 mov	 dl, BYTE PTR ??_C@_04FOGALLPG@?$LB?$LM?$LI?$LC?$AA@+4
  0022c	88 9c 24 f6 00
	00 00		 mov	 BYTE PTR _szFontName$[esp+550], bl
  00233	33 db		 xor	 ebx, ebx
  00235	88 94 24 1c 01
	00 00		 mov	 BYTE PTR _szFontName$[esp+588], dl
  0023c	89 9c 24 f7 00
	00 00		 mov	 DWORD PTR _szFontName$[esp+551], ebx
  00243	33 d2		 xor	 edx, edx
  00245	89 9c 24 fb 00
	00 00		 mov	 DWORD PTR _szFontName$[esp+555], ebx
  0024c	89 94 24 1d 01
	00 00		 mov	 DWORD PTR _szFontName$[esp+589], edx
  00253	89 9c 24 ff 00
	00 00		 mov	 DWORD PTR _szFontName$[esp+559], ebx
  0025a	89 94 24 21 01
	00 00		 mov	 DWORD PTR _szFontName$[esp+593], edx
  00261	88 9c 24 03 01
	00 00		 mov	 BYTE PTR _szFontName$[esp+563], bl
  00268	89 94 24 25 01
	00 00		 mov	 DWORD PTR _szFontName$[esp+597], edx
  0026f	89 9c 24 4a 01
	00 00		 mov	 DWORD PTR _szFontName$[esp+634], ebx
  00276	66 89 94 24 29
	01 00 00	 mov	 WORD PTR _szFontName$[esp+601], dx
  0027e	89 9c 24 4e 01
	00 00		 mov	 DWORD PTR _szFontName$[esp+638], ebx
  00285	66 89 9c 24 52
	01 00 00	 mov	 WORD PTR _szFontName$[esp+642], bx

; 219  : 		{ "맑은고딕",		"芥竟",			"lr "}

  0028d	8b 1d 00 00 00
	00		 mov	 ebx, DWORD PTR ??_C@_08OGLPJIFC@?$LI?$LM?$MA?$LK?$LA?m?$LF?q?$AA@
  00293	88 94 24 2b 01
	00 00		 mov	 BYTE PTR _szFontName$[esp+603], dl
  0029a	89 9c 24 54 01
	00 00		 mov	 DWORD PTR _szFontName$[esp+644], ebx
  002a1	8b 1d 04 00 00
	00		 mov	 ebx, DWORD PTR ??_C@_08OGLPJIFC@?$LI?$LM?$MA?$LK?$LA?m?$LF?q?$AA@+4
  002a7	89 94 24 31 01
	00 00		 mov	 DWORD PTR _szFontName$[esp+609], edx
  002ae	89 84 24 2c 01
	00 00		 mov	 DWORD PTR _szFontName$[esp+604], eax
  002b5	89 9c 24 58 01
	00 00		 mov	 DWORD PTR _szFontName$[esp+648], ebx
  002bc	8a 1d 08 00 00
	00		 mov	 bl, BYTE PTR ??_C@_08OGLPJIFC@?$LI?$LM?$MA?$LK?$LA?m?$LF?q?$AA@+8
  002c2	89 84 24 68 01
	00 00		 mov	 DWORD PTR _szFontName$[esp+664], eax
  002c9	88 8c 24 30 01
	00 00		 mov	 BYTE PTR _szFontName$[esp+608], cl
  002d0	89 94 24 35 01
	00 00		 mov	 DWORD PTR _szFontName$[esp+613], edx
  002d7	88 8c 24 6c 01
	00 00		 mov	 BYTE PTR _szFontName$[esp+668], cl
  002de	33 c0		 xor	 eax, eax
  002e0	33 c9		 xor	 ecx, ecx
  002e2	89 94 24 39 01
	00 00		 mov	 DWORD PTR _szFontName$[esp+617], edx
  002e9	88 9c 24 5c 01
	00 00		 mov	 BYTE PTR _szFontName$[esp+652], bl
  002f0	89 84 24 6d 01
	00 00		 mov	 DWORD PTR _szFontName$[esp+669], eax
  002f7	66 89 94 24 3d
	01 00 00	 mov	 WORD PTR _szFontName$[esp+621], dx
  002ff	33 db		 xor	 ebx, ebx
  00301	89 8c 24 86 01
	00 00		 mov	 DWORD PTR _szFontName$[esp+694], ecx
  00308	89 84 24 71 01
	00 00		 mov	 DWORD PTR _szFontName$[esp+673], eax
  0030f	89 8c 24 8a 01
	00 00		 mov	 DWORD PTR _szFontName$[esp+698], ecx
  00316	88 94 24 3f 01
	00 00		 mov	 BYTE PTR _szFontName$[esp+623], dl
  0031d	66 8b 15 08 00
	00 00		 mov	 dx, WORD PTR ??_C@_09LCOPKLB@?$ICl?$ICr?5?$JG?$LO?$JC?$KJ?$AA@+8
  00324	89 9c 24 5d 01
	00 00		 mov	 DWORD PTR _szFontName$[esp+653], ebx
  0032b	89 84 24 75 01
	00 00		 mov	 DWORD PTR _szFontName$[esp+677], eax
  00332	66 89 8c 24 8e
	01 00 00	 mov	 WORD PTR _szFontName$[esp+702], cx

; 220  : 	};
; 221  : 
; 222  :     /*   const char szFontName[5][3][20] = {
; 223  : 		// Hangul Font      Chinese Font
; 224  : 		{ "굴림체",			"Tahoma",			"lr SVbN"},
; 225  : 		{ "MS Sans Serif",	"Tahoma","lr SVbN"},
; 226  : 		{ "돋움체",			"Tahoma",		"lr SVbN"},
; 227  : 		{ "굴림",			"Tahoma",			"lr "},
; 228  : 		{ "맑은고딕",		"Tahoma",			"lr "}
; 229  : 	};*/
; 230  : 
; 231  : 
; 232  : 	char Language;
; 233  : 	int local_font_size = 0;
; 234  : 	
; 235  : 	if(gC_ci->IsChinese())

  0033a	8b 0d 00 00 00
	00		 mov	 ecx, DWORD PTR ?gC_ci@@3PAVCI@@A ; gC_ci
  00340	89 9c 24 61 01
	00 00		 mov	 DWORD PTR _szFontName$[esp+657], ebx
  00347	89 bc 24 04 01
	00 00		 mov	 DWORD PTR _szFontName$[esp+564], edi
  0034e	8b 3d 00 00 00
	00		 mov	 edi, DWORD PTR ??_C@_09LCOPKLB@?$ICl?$ICr?5?$JG?$LO?$JC?$KJ?$AA@
  00354	89 ac 24 08 01
	00 00		 mov	 DWORD PTR _szFontName$[esp+568], ebp
  0035b	8b 2d 04 00 00
	00		 mov	 ebp, DWORD PTR ??_C@_09LCOPKLB@?$ICl?$ICr?5?$JG?$LO?$JC?$KJ?$AA@+4
  00361	66 89 94 24 48
	01 00 00	 mov	 WORD PTR _szFontName$[esp+632], dx
  00369	66 89 84 24 79
	01 00 00	 mov	 WORD PTR _szFontName$[esp+681], ax
  00371	66 89 94 24 84
	01 00 00	 mov	 WORD PTR _szFontName$[esp+692], dx
  00379	8b 11		 mov	 edx, DWORD PTR [ecx]
  0037b	66 89 9c 24 65
	01 00 00	 mov	 WORD PTR _szFontName$[esp+661], bx
  00383	89 bc 24 40 01
	00 00		 mov	 DWORD PTR _szFontName$[esp+624], edi
  0038a	89 ac 24 44 01
	00 00		 mov	 DWORD PTR _szFontName$[esp+628], ebp
  00391	88 9c 24 67 01
	00 00		 mov	 BYTE PTR _szFontName$[esp+663], bl
  00398	88 84 24 7b 01
	00 00		 mov	 BYTE PTR _szFontName$[esp+683], al
  0039f	89 bc 24 7c 01
	00 00		 mov	 DWORD PTR _szFontName$[esp+684], edi
  003a6	89 ac 24 80 01
	00 00		 mov	 DWORD PTR _szFontName$[esp+688], ebp
  003ad	ff 52 04	 call	 DWORD PTR [edx+4]

; 236  : 	{
; 237  : 		Language = 1;
; 238  : 		local_font_size = 0; //by viva 櫓匡槨0  揭匡槨2
; 239  : 	//	local_font_size = 0; //by viva 櫓匡槨0  揭匡槨2
; 240  : 	}
; 241  : 	if(gC_ci->IsJapanese())

  003b0	8b 0d 00 00 00
	00		 mov	 ecx, DWORD PTR ?gC_ci@@3PAVCI@@A ; gC_ci
  003b6	8b 01		 mov	 eax, DWORD PTR [ecx]
  003b8	ff 50 08	 call	 DWORD PTR [eax+8]
  003bb	84 c0		 test	 al, al
  003bd	74 12		 je	 SHORT $L88472

; 242  : 	{
; 243  : 		Language = 2;
; 244  : 		gC_ci->SetJapanInput() ;  

  003bf	8b 0d 00 00 00
	00		 mov	 ecx, DWORD PTR ?gC_ci@@3PAVCI@@A ; gC_ci
  003c5	c6 44 24 1b 02	 mov	 BYTE PTR _Language$[esp+404], 2
  003ca	e8 00 00 00 00	 call	 ?SetJapanInput@CI@@QAEXXZ ; CI::SetJapanInput

; 245  : 	}
; 246  : 	else 

  003cf	eb 04		 jmp	 SHORT $L88473
$L88472:

; 247  : 		Language = 0;

  003d1	88 5c 24 1b	 mov	 BYTE PTR _Language$[esp+404], bl
$L88473:

; 248  : 	
; 249  : 	SetDefaultLogfont(lf); //by larosel

  003d5	8d 4c 24 28	 lea	 ecx, DWORD PTR _lf$[esp+404]
  003d9	51		 push	 ecx
  003da	8b ce		 mov	 ecx, esi
  003dc	e8 00 00 00 00	 call	 ?SetDefaultLogfont@Base@@ABEXAAUtagLOGFONTA@@@Z ; Base::SetDefaultLogfont

; 250  : 	lf.lfHeight = 10 + local_font_size;
; 251  : 	strcpy(lf.lfFaceName, szFontName[0][Language]);

  003e1	0f be 44 24 1b	 movsx	 eax, BYTE PTR _Language$[esp+404]
  003e6	8d 0c 80	 lea	 ecx, DWORD PTR [eax+eax*4]
  003e9	8d 04 80	 lea	 eax, DWORD PTR [eax+eax*4]
  003ec	c1 e0 02	 shl	 eax, 2
  003ef	c1 e1 02	 shl	 ecx, 2
  003f2	8d 7c 24 44	 lea	 edi, DWORD PTR _lf$[esp+432]
  003f6	2b f8		 sub	 edi, eax
  003f8	8d 54 24 64	 lea	 edx, DWORD PTR _szFontName$[esp+404]
  003fc	89 4c 24 20	 mov	 DWORD PTR tv1132[esp+404], ecx
  00400	8d 4c 0c 64	 lea	 ecx, DWORD PTR _szFontName$[esp+ecx+404]
  00404	2b fa		 sub	 edi, edx
  00406	c7 44 24 28 0a
	00 00 00	 mov	 DWORD PTR _lf$[esp+404], 10 ; 0000000aH
  0040e	89 4c 24 14	 mov	 DWORD PTR tv1133[esp+404], ecx
  00412	89 44 24 1c	 mov	 DWORD PTR tv2280[esp+404], eax
  00416	89 7c 24 24	 mov	 DWORD PTR tv2282[esp+404], edi
  0041a	8d 9b 00 00 00
	00		 npad	 6
$L89783:
  00420	8a 01		 mov	 al, BYTE PTR [ecx]
  00422	88 04 39	 mov	 BYTE PTR [ecx+edi], al
  00425	41		 inc	 ecx
  00426	3a c3		 cmp	 al, bl
  00428	75 f6		 jne	 SHORT $L89783

; 252  : 	SetFont(m_small_pi, lf, RGB(20, 70, 0));

  0042a	8d 44 24 28	 lea	 eax, DWORD PTR _lf$[esp+404]
  0042e	50		 push	 eax
  0042f	ff 15 00 00 00
	00		 call	 DWORD PTR __imp__CreateFontIndirectA@4
  00435	8b e8		 mov	 ebp, eax
  00437	3b eb		 cmp	 ebp, ebx
  00439	75 12		 jne	 SHORT $L89813
  0043b	6a 5c		 push	 92			; 0000005cH
  0043d	68 00 00 00 00	 push	 OFFSET FLAT:??_C@_0EB@PPOCDDGI@?2darkeden?2Designed_Common?2Projec@
  00442	53		 push	 ebx
  00443	6a 04		 push	 4
  00445	e8 00 00 00 00	 call	 ?g_BasicException@@YAXW4EXCEPTION_CODE@@PAD1K@Z ; g_BasicException
  0044a	83 c4 10	 add	 esp, 16			; 00000010H
$L89813:

; 253  : 
; 254  : 	SetDefaultLogfont(lf); //by larosel

  0044d	8d 4c 24 28	 lea	 ecx, DWORD PTR _lf$[esp+404]
  00451	51		 push	 ecx
  00452	8b ce		 mov	 ecx, esi
  00454	89 6e 2c	 mov	 DWORD PTR [esi+44], ebp
  00457	c7 46 30 14 46
	00 00		 mov	 DWORD PTR [esi+48], 17940 ; 00004614H
  0045e	89 5e 34	 mov	 DWORD PTR [esi+52], ebx
  00461	c7 46 38 01 00
	00 00		 mov	 DWORD PTR [esi+56], 1
  00468	89 5e 3c	 mov	 DWORD PTR [esi+60], ebx
  0046b	e8 00 00 00 00	 call	 ?SetDefaultLogfont@Base@@ABEXAAUtagLOGFONTA@@@Z ; Base::SetDefaultLogfont

; 255  : 	lf.lfHeight = 12 + local_font_size;
; 256  : 	strcpy(lf.lfFaceName, szFontName[0][Language]);

  00470	8b 44 24 14	 mov	 eax, DWORD PTR tv1133[esp+404]
  00474	c7 44 24 28 0c
	00 00 00	 mov	 DWORD PTR _lf$[esp+404], 12 ; 0000000cH
  0047c	8d 64 24 00	 npad	 4
$L89784:
  00480	8a 08		 mov	 cl, BYTE PTR [eax]
  00482	88 0c 38	 mov	 BYTE PTR [eax+edi], cl
  00485	40		 inc	 eax
  00486	3a cb		 cmp	 cl, bl
  00488	75 f6		 jne	 SHORT $L89784

; 257  : 	SetFont(m_chatting_pi, lf, RGB(20, 70, 0));

  0048a	8d 54 24 28	 lea	 edx, DWORD PTR _lf$[esp+404]
  0048e	52		 push	 edx
  0048f	ff 15 00 00 00
	00		 call	 DWORD PTR __imp__CreateFontIndirectA@4
  00495	8b e8		 mov	 ebp, eax
  00497	3b eb		 cmp	 ebp, ebx
  00499	75 12		 jne	 SHORT $L90029
  0049b	6a 5c		 push	 92			; 0000005cH
  0049d	68 00 00 00 00	 push	 OFFSET FLAT:??_C@_0EB@PPOCDDGI@?2darkeden?2Designed_Common?2Projec@
  004a2	53		 push	 ebx
  004a3	6a 04		 push	 4
  004a5	e8 00 00 00 00	 call	 ?g_BasicException@@YAXW4EXCEPTION_CODE@@PAD1K@Z ; g_BasicException
  004aa	83 c4 10	 add	 esp, 16			; 00000010H
$L90029:

; 258  : 
; 259  : 	SetDefaultLogfont(lf); //by larosel

  004ad	8d 44 24 28	 lea	 eax, DWORD PTR _lf$[esp+404]
  004b1	50		 push	 eax
  004b2	8b ce		 mov	 ecx, esi
  004b4	89 6e 40	 mov	 DWORD PTR [esi+64], ebp
  004b7	c7 46 44 14 46
	00 00		 mov	 DWORD PTR [esi+68], 17940 ; 00004614H
  004be	89 5e 48	 mov	 DWORD PTR [esi+72], ebx
  004c1	c7 46 4c 01 00
	00 00		 mov	 DWORD PTR [esi+76], 1
  004c8	89 5e 50	 mov	 DWORD PTR [esi+80], ebx
  004cb	e8 00 00 00 00	 call	 ?SetDefaultLogfont@Base@@ABEXAAUtagLOGFONTA@@@Z ; Base::SetDefaultLogfont

; 260  : 	lf.lfHeight = 12 + local_font_size;
; 261  : 	lf.lfWeight = FW_BOLD;
; 262  : 	strcpy(lf.lfFaceName, szFontName[0][Language]);

  004d0	8b 44 24 14	 mov	 eax, DWORD PTR tv1133[esp+404]
  004d4	c7 44 24 28 0c
	00 00 00	 mov	 DWORD PTR _lf$[esp+404], 12 ; 0000000cH
  004dc	c7 44 24 38 bc
	02 00 00	 mov	 DWORD PTR _lf$[esp+420], 700 ; 000002bcH
$L89785:
  004e4	8a 08		 mov	 cl, BYTE PTR [eax]
  004e6	88 0c 38	 mov	 BYTE PTR [eax+edi], cl
  004e9	40		 inc	 eax
  004ea	3a cb		 cmp	 cl, bl
  004ec	75 f6		 jne	 SHORT $L89785

; 263  : 	SetFont(m_user_id_pi, lf, RGB(20, 70, 0));

  004ee	8d 4c 24 28	 lea	 ecx, DWORD PTR _lf$[esp+404]
  004f2	51		 push	 ecx
  004f3	ff 15 00 00 00
	00		 call	 DWORD PTR __imp__CreateFontIndirectA@4
  004f9	8b e8		 mov	 ebp, eax
  004fb	3b eb		 cmp	 ebp, ebx
  004fd	75 12		 jne	 SHORT $L89827
  004ff	6a 5c		 push	 92			; 0000005cH
  00501	68 00 00 00 00	 push	 OFFSET FLAT:??_C@_0EB@PPOCDDGI@?2darkeden?2Designed_Common?2Projec@
  00506	53		 push	 ebx
  00507	6a 04		 push	 4
  00509	e8 00 00 00 00	 call	 ?g_BasicException@@YAXW4EXCEPTION_CODE@@PAD1K@Z ; g_BasicException
  0050e	83 c4 10	 add	 esp, 16			; 00000010H
$L89827:

; 264  : 
; 265  : 
; 266  : 	//
; 267  : 	SetDefaultLogfont(lf); //by larosel

  00511	8d 54 24 28	 lea	 edx, DWORD PTR _lf$[esp+404]
  00515	52		 push	 edx
  00516	8b ce		 mov	 ecx, esi
  00518	89 6e 54	 mov	 DWORD PTR [esi+84], ebp
  0051b	c7 46 58 14 46
	00 00		 mov	 DWORD PTR [esi+88], 17940 ; 00004614H
  00522	89 5e 5c	 mov	 DWORD PTR [esi+92], ebx
  00525	c7 46 60 01 00
	00 00		 mov	 DWORD PTR [esi+96], 1
  0052c	89 5e 64	 mov	 DWORD PTR [esi+100], ebx
  0052f	e8 00 00 00 00	 call	 ?SetDefaultLogfont@Base@@ABEXAAUtagLOGFONTA@@@Z ; Base::SetDefaultLogfont

; 268  : 	lf.lfHeight = 25 + local_font_size;
; 269  : 	lf.lfWeight = FW_BOLD;
; 270  : 	strcpy(lf.lfFaceName, szFontName[0][Language]);

  00534	8b 44 24 14	 mov	 eax, DWORD PTR tv1133[esp+404]
  00538	c7 44 24 28 19
	00 00 00	 mov	 DWORD PTR _lf$[esp+404], 25 ; 00000019H
  00540	c7 44 24 38 bc
	02 00 00	 mov	 DWORD PTR _lf$[esp+420], 700 ; 000002bcH
$L89786:
  00548	8a 08		 mov	 cl, BYTE PTR [eax]
  0054a	88 0c 38	 mov	 BYTE PTR [eax+edi], cl
  0054d	40		 inc	 eax
  0054e	3a cb		 cmp	 cl, bl
  00550	75 f6		 jne	 SHORT $L89786

; 271  : 	SetFont(m_haysNameBig, lf, RGB(20, 70, 0));

  00552	8d 44 24 28	 lea	 eax, DWORD PTR _lf$[esp+404]
  00556	50		 push	 eax
  00557	ff 15 00 00 00
	00		 call	 DWORD PTR __imp__CreateFontIndirectA@4
  0055d	8b e8		 mov	 ebp, eax
  0055f	3b eb		 cmp	 ebp, ebx
  00561	75 12		 jne	 SHORT $L90030
  00563	6a 5c		 push	 92			; 0000005cH
  00565	68 00 00 00 00	 push	 OFFSET FLAT:??_C@_0EB@PPOCDDGI@?2darkeden?2Designed_Common?2Projec@
  0056a	53		 push	 ebx
  0056b	6a 04		 push	 4
  0056d	e8 00 00 00 00	 call	 ?g_BasicException@@YAXW4EXCEPTION_CODE@@PAD1K@Z ; g_BasicException
  00572	83 c4 10	 add	 esp, 16			; 00000010H
$L90030:

; 272  : 
; 273  : 	SetDefaultLogfont(lf); //by larosel

  00575	8d 4c 24 28	 lea	 ecx, DWORD PTR _lf$[esp+404]
  00579	51		 push	 ecx
  0057a	8b ce		 mov	 ecx, esi
  0057c	89 ae d0 01 00
	00		 mov	 DWORD PTR [esi+464], ebp
  00582	c7 86 d4 01 00
	00 14 46 00 00	 mov	 DWORD PTR [esi+468], 17940 ; 00004614H
  0058c	89 9e d8 01 00
	00		 mov	 DWORD PTR [esi+472], ebx
  00592	c7 86 dc 01 00
	00 01 00 00 00	 mov	 DWORD PTR [esi+476], 1
  0059c	89 9e e0 01 00
	00		 mov	 DWORD PTR [esi+480], ebx
  005a2	e8 00 00 00 00	 call	 ?SetDefaultLogfont@Base@@ABEXAAUtagLOGFONTA@@@Z ; Base::SetDefaultLogfont

; 274  : 	lf.lfHeight = 25 + local_font_size;
; 275  : 	lf.lfWeight = FW_HEAVY;
; 276  : 	strcpy(lf.lfFaceName, szFontName[0][Language]);

  005a7	8b 44 24 14	 mov	 eax, DWORD PTR tv1133[esp+404]
  005ab	c7 44 24 28 19
	00 00 00	 mov	 DWORD PTR _lf$[esp+404], 25 ; 00000019H
  005b3	c7 44 24 38 84
	03 00 00	 mov	 DWORD PTR _lf$[esp+420], 900 ; 00000384H
  005bb	eb 03 8d 49 00	 npad	 5
$L89787:
  005c0	8a 08		 mov	 cl, BYTE PTR [eax]
  005c2	88 0c 38	 mov	 BYTE PTR [eax+edi], cl
  005c5	40		 inc	 eax
  005c6	3a cb		 cmp	 cl, bl
  005c8	75 f6		 jne	 SHORT $L89787

; 277  : 	SetFont(m_PayEvent_pi, lf, RGB(20, 70, 0));

  005ca	8d 54 24 28	 lea	 edx, DWORD PTR _lf$[esp+404]
  005ce	52		 push	 edx
  005cf	ff 15 00 00 00
	00		 call	 DWORD PTR __imp__CreateFontIndirectA@4
  005d5	8b e8		 mov	 ebp, eax
  005d7	3b eb		 cmp	 ebp, ebx
  005d9	75 12		 jne	 SHORT $L89841
  005db	6a 5c		 push	 92			; 0000005cH
  005dd	68 00 00 00 00	 push	 OFFSET FLAT:??_C@_0EB@PPOCDDGI@?2darkeden?2Designed_Common?2Projec@
  005e2	53		 push	 ebx
  005e3	6a 04		 push	 4
  005e5	e8 00 00 00 00	 call	 ?g_BasicException@@YAXW4EXCEPTION_CODE@@PAD1K@Z ; g_BasicException
  005ea	83 c4 10	 add	 esp, 16			; 00000010H
$L89841:

; 278  : 
; 279  : 
; 280  : 	SetDefaultLogfont(lf); //by larosel

  005ed	8d 44 24 28	 lea	 eax, DWORD PTR _lf$[esp+404]
  005f1	50		 push	 eax
  005f2	8b ce		 mov	 ecx, esi
  005f4	89 ae f8 01 00
	00		 mov	 DWORD PTR [esi+504], ebp
  005fa	c7 86 fc 01 00
	00 14 46 00 00	 mov	 DWORD PTR [esi+508], 17940 ; 00004614H
  00604	89 9e 00 02 00
	00		 mov	 DWORD PTR [esi+512], ebx
  0060a	c7 86 04 02 00
	00 01 00 00 00	 mov	 DWORD PTR [esi+516], 1
  00614	89 9e 08 02 00
	00		 mov	 DWORD PTR [esi+520], ebx
  0061a	e8 00 00 00 00	 call	 ?SetDefaultLogfont@Base@@ABEXAAUtagLOGFONTA@@@Z ; Base::SetDefaultLogfont

; 281  : 	lf.lfHeight = 18 + local_font_size;
; 282  : 	lf.lfWeight = FW_BOLD;
; 283  : 	strcpy(lf.lfFaceName, szFontName[0][Language]);

  0061f	8b 44 24 14	 mov	 eax, DWORD PTR tv1133[esp+404]
  00623	c7 44 24 28 12
	00 00 00	 mov	 DWORD PTR _lf$[esp+404], 18 ; 00000012H
  0062b	c7 44 24 38 bc
	02 00 00	 mov	 DWORD PTR _lf$[esp+420], 700 ; 000002bcH
$L89788:
  00633	8a 08		 mov	 cl, BYTE PTR [eax]
  00635	88 0c 38	 mov	 BYTE PTR [eax+edi], cl
  00638	40		 inc	 eax
  00639	3a cb		 cmp	 cl, bl
  0063b	75 f6		 jne	 SHORT $L89788

; 284  : 	SetFont(m_haysLevel, lf, RGB(20, 70, 0));

  0063d	8d 4c 24 28	 lea	 ecx, DWORD PTR _lf$[esp+404]
  00641	51		 push	 ecx
  00642	ff 15 00 00 00
	00		 call	 DWORD PTR __imp__CreateFontIndirectA@4
  00648	8b f8		 mov	 edi, eax
  0064a	3b fb		 cmp	 edi, ebx
  0064c	75 12		 jne	 SHORT $L89848
  0064e	6a 5c		 push	 92			; 0000005cH
  00650	68 00 00 00 00	 push	 OFFSET FLAT:??_C@_0EB@PPOCDDGI@?2darkeden?2Designed_Common?2Projec@
  00655	53		 push	 ebx
  00656	6a 04		 push	 4
  00658	e8 00 00 00 00	 call	 ?g_BasicException@@YAXW4EXCEPTION_CODE@@PAD1K@Z ; g_BasicException
  0065d	83 c4 10	 add	 esp, 16			; 00000010H
$L89848:

; 285  : 
; 286  : 	
; 287  : 
; 288  : 	// new style...
; 289  : 	SetDefaultLogfont(lf);

  00660	8d 54 24 28	 lea	 edx, DWORD PTR _lf$[esp+404]
  00664	52		 push	 edx
  00665	8b ce		 mov	 ecx, esi
  00667	89 be e4 01 00
	00		 mov	 DWORD PTR [esi+484], edi
  0066d	c7 86 e8 01 00
	00 14 46 00 00	 mov	 DWORD PTR [esi+488], 17940 ; 00004614H
  00677	89 9e ec 01 00
	00		 mov	 DWORD PTR [esi+492], ebx
  0067d	c7 86 f0 01 00
	00 01 00 00 00	 mov	 DWORD PTR [esi+496], 1
  00687	89 9e f4 01 00
	00		 mov	 DWORD PTR [esi+500], ebx
  0068d	e8 00 00 00 00	 call	 ?SetDefaultLogfont@Base@@ABEXAAUtagLOGFONTA@@@Z ; Base::SetDefaultLogfont

; 290  : 	lf.lfHeight = 14 + local_font_size;
; 291  : 	//lf.lfItalic = 1;
; 292  : 	//lf.lfWeight = FW_BOLD;
; 293  : 	strcpy(lf.lfFaceName, szFontName[1][Language]);

  00692	8b 4c 24 1c	 mov	 ecx, DWORD PTR tv2280[esp+404]
  00696	8b 6c 24 20	 mov	 ebp, DWORD PTR tv1132[esp+404]
  0069a	8d 7c 24 44	 lea	 edi, DWORD PTR _lf$[esp+432]
  0069e	2b f9		 sub	 edi, ecx
  006a0	8d ac 2c a0 00
	00 00		 lea	 ebp, DWORD PTR _szFontName$[esp+ebp+464]
  006a7	8d 8c 24 a0 00
	00 00		 lea	 ecx, DWORD PTR _szFontName$[esp+464]
  006ae	c7 44 24 28 0e
	00 00 00	 mov	 DWORD PTR _lf$[esp+404], 14 ; 0000000eH
  006b6	8b c5		 mov	 eax, ebp
  006b8	2b f9		 sub	 edi, ecx
  006ba	8d 9b 00 00 00
	00		 npad	 6
$L89789:
  006c0	8a 08		 mov	 cl, BYTE PTR [eax]
  006c2	88 0c 38	 mov	 BYTE PTR [eax+edi], cl
  006c5	40		 inc	 eax
  006c6	3a cb		 cmp	 cl, bl
  006c8	75 f6		 jne	 SHORT $L89789

; 294  : 	SetFont(m_value_pi, lf, RGB(255, 255, 255), 0, TRANSPARENT, TA_RIGHT);

  006ca	8d 54 24 28	 lea	 edx, DWORD PTR _lf$[esp+404]
  006ce	52		 push	 edx
  006cf	ff 15 00 00 00
	00		 call	 DWORD PTR __imp__CreateFontIndirectA@4
  006d5	3b c3		 cmp	 eax, ebx
  006d7	89 44 24 10	 mov	 DWORD PTR _hfont$89854[esp+404], eax
  006db	75 12		 jne	 SHORT $L89855
  006dd	6a 5c		 push	 92			; 0000005cH
  006df	68 00 00 00 00	 push	 OFFSET FLAT:??_C@_0EB@PPOCDDGI@?2darkeden?2Designed_Common?2Projec@
  006e4	53		 push	 ebx
  006e5	6a 04		 push	 4
  006e7	e8 00 00 00 00	 call	 ?g_BasicException@@YAXW4EXCEPTION_CODE@@PAD1K@Z ; g_BasicException
  006ec	83 c4 10	 add	 esp, 16			; 00000010H
$L89855:
  006ef	8b 44 24 10	 mov	 eax, DWORD PTR _hfont$89854[esp+404]

; 295  : 
; 296  : 	// new style...
; 297  : 	SetDefaultLogfont(lf);

  006f3	8d 4c 24 28	 lea	 ecx, DWORD PTR _lf$[esp+404]
  006f7	51		 push	 ecx
  006f8	8b ce		 mov	 ecx, esi
  006fa	89 46 68	 mov	 DWORD PTR [esi+104], eax
  006fd	c7 46 6c ff ff
	ff 00		 mov	 DWORD PTR [esi+108], 16777215 ; 00ffffffH
  00704	89 5e 70	 mov	 DWORD PTR [esi+112], ebx
  00707	c7 46 74 01 00
	00 00		 mov	 DWORD PTR [esi+116], 1
  0070e	c7 46 78 02 00
	00 00		 mov	 DWORD PTR [esi+120], 2
  00715	e8 00 00 00 00	 call	 ?SetDefaultLogfont@Base@@ABEXAAUtagLOGFONTA@@@Z ; Base::SetDefaultLogfont

; 298  : 	lf.lfHeight = 14 + local_font_size;

  0071a	c7 44 24 28 0e
	00 00 00	 mov	 DWORD PTR _lf$[esp+404], 14 ; 0000000eH

; 299  : 	lf.lfItalic = 1;

  00722	c6 44 24 3c 01	 mov	 BYTE PTR _lf$[esp+424], 1

; 300  : 	lf.lfWeight = FW_BOLD;

  00727	c7 44 24 38 bc
	02 00 00	 mov	 DWORD PTR _lf$[esp+420], 700 ; 000002bcH

; 301  : 	strcpy(lf.lfFaceName, szFontName[1][Language]);

  0072f	8b c5		 mov	 eax, ebp
$L89790:
  00731	8a 08		 mov	 cl, BYTE PTR [eax]
  00733	88 0c 38	 mov	 BYTE PTR [eax+edi], cl
  00736	40		 inc	 eax
  00737	3a cb		 cmp	 cl, bl
  00739	75 f6		 jne	 SHORT $L89790

; 302  : 	SetFont(m_value2_pi, lf, RGB(20, 70, 0));

  0073b	8d 54 24 28	 lea	 edx, DWORD PTR _lf$[esp+404]
  0073f	52		 push	 edx
  00740	ff 15 00 00 00
	00		 call	 DWORD PTR __imp__CreateFontIndirectA@4
  00746	8b f8		 mov	 edi, eax
  00748	3b fb		 cmp	 edi, ebx
  0074a	75 12		 jne	 SHORT $L90028
  0074c	6a 5c		 push	 92			; 0000005cH
  0074e	68 00 00 00 00	 push	 OFFSET FLAT:??_C@_0EB@PPOCDDGI@?2darkeden?2Designed_Common?2Projec@
  00753	53		 push	 ebx
  00754	6a 04		 push	 4
  00756	e8 00 00 00 00	 call	 ?g_BasicException@@YAXW4EXCEPTION_CODE@@PAD1K@Z ; g_BasicException
  0075b	83 c4 10	 add	 esp, 16			; 00000010H
$L90028:

; 303  : 
; 304  : 	// new style...
; 305  : 	SetDefaultLogfont(lf);

  0075e	8d 44 24 28	 lea	 eax, DWORD PTR _lf$[esp+404]
  00762	bd 01 00 00 00	 mov	 ebp, 1
  00767	50		 push	 eax
  00768	8b ce		 mov	 ecx, esi
  0076a	89 7e 7c	 mov	 DWORD PTR [esi+124], edi
  0076d	c7 86 80 00 00
	00 14 46 00 00	 mov	 DWORD PTR [esi+128], 17940 ; 00004614H
  00777	89 9e 84 00 00
	00		 mov	 DWORD PTR [esi+132], ebx
  0077d	89 ae 88 00 00
	00		 mov	 DWORD PTR [esi+136], ebp
  00783	89 9e 8c 00 00
	00		 mov	 DWORD PTR [esi+140], ebx
  00789	e8 00 00 00 00	 call	 ?SetDefaultLogfont@Base@@ABEXAAUtagLOGFONTA@@@Z ; Base::SetDefaultLogfont

; 306  : 	lf.lfHeight = 14 + local_font_size;
; 307  : 	lf.lfWeight = FW_BOLD;
; 308  : 	strcpy(lf.lfFaceName, szFontName[2][Language]);

  0078e	8b 4c 24 1c	 mov	 ecx, DWORD PTR tv2280[esp+404]
  00792	8b 7c 24 20	 mov	 edi, DWORD PTR tv1132[esp+404]
  00796	8d 44 24 44	 lea	 eax, DWORD PTR _lf$[esp+432]
  0079a	2b c1		 sub	 eax, ecx
  0079c	8d 8c 24 dc 00
	00 00		 lea	 ecx, DWORD PTR _szFontName$[esp+524]
  007a3	c7 44 24 28 0e
	00 00 00	 mov	 DWORD PTR _lf$[esp+404], 14 ; 0000000eH
  007ab	c7 44 24 38 bc
	02 00 00	 mov	 DWORD PTR _lf$[esp+420], 700 ; 000002bcH
  007b3	8d bc 3c dc 00
	00 00		 lea	 edi, DWORD PTR _szFontName$[esp+edi+524]
  007ba	2b c1		 sub	 eax, ecx
  007bc	8d 64 24 00	 npad	 4
$L89791:
  007c0	8a 0f		 mov	 cl, BYTE PTR [edi]
  007c2	88 0c 07	 mov	 BYTE PTR [edi+eax], cl
  007c5	47		 inc	 edi
  007c6	3a cb		 cmp	 cl, bl
  007c8	75 f6		 jne	 SHORT $L89791

; 309  : 	SetFont(m_item_name_pi, lf, RGB(255, 255, 255));

  007ca	8d 54 24 28	 lea	 edx, DWORD PTR _lf$[esp+404]
  007ce	52		 push	 edx
  007cf	ff 15 00 00 00
	00		 call	 DWORD PTR __imp__CreateFontIndirectA@4
  007d5	8b f8		 mov	 edi, eax
  007d7	3b fb		 cmp	 edi, ebx
  007d9	75 12		 jne	 SHORT $L89869
  007db	6a 5c		 push	 92			; 0000005cH
  007dd	68 00 00 00 00	 push	 OFFSET FLAT:??_C@_0EB@PPOCDDGI@?2darkeden?2Designed_Common?2Projec@
  007e2	53		 push	 ebx
  007e3	6a 04		 push	 4
  007e5	e8 00 00 00 00	 call	 ?g_BasicException@@YAXW4EXCEPTION_CODE@@PAD1K@Z ; g_BasicException
  007ea	83 c4 10	 add	 esp, 16			; 00000010H
$L89869:

; 310  : 
; 311  : 	// new style...
; 312  : 	SetDefaultLogfont(lf);

  007ed	8d 44 24 28	 lea	 eax, DWORD PTR _lf$[esp+404]
  007f1	50		 push	 eax
  007f2	8b ce		 mov	 ecx, esi
  007f4	89 be 90 00 00
	00		 mov	 DWORD PTR [esi+144], edi
  007fa	c7 86 94 00 00
	00 ff ff ff 00	 mov	 DWORD PTR [esi+148], 16777215 ; 00ffffffH
  00804	89 9e 98 00 00
	00		 mov	 DWORD PTR [esi+152], ebx
  0080a	89 ae 9c 00 00
	00		 mov	 DWORD PTR [esi+156], ebp
  00810	89 9e a0 00 00
	00		 mov	 DWORD PTR [esi+160], ebx
  00816	e8 00 00 00 00	 call	 ?SetDefaultLogfont@Base@@ABEXAAUtagLOGFONTA@@@Z ; Base::SetDefaultLogfont

; 313  : 	lf.lfHeight = 12 + local_font_size;
; 314  : 	strcpy(lf.lfFaceName, szFontName[0][Language]);

  0081b	8b 44 24 14	 mov	 eax, DWORD PTR tv1133[esp+404]
  0081f	8b 6c 24 24	 mov	 ebp, DWORD PTR tv2282[esp+404]
  00823	c7 44 24 28 0c
	00 00 00	 mov	 DWORD PTR _lf$[esp+404], 12 ; 0000000cH
  0082b	eb 03 8d 49 00	 npad	 5
$L89792:
  00830	8a 08		 mov	 cl, BYTE PTR [eax]
  00832	88 0c 28	 mov	 BYTE PTR [eax+ebp], cl
  00835	40		 inc	 eax
  00836	3a cb		 cmp	 cl, bl
  00838	75 f6		 jne	 SHORT $L89792

; 315  : 	SetFont(m_item_desc_pi, lf, RGB(192, 192, 255));

  0083a	8d 4c 24 28	 lea	 ecx, DWORD PTR _lf$[esp+404]
  0083e	51		 push	 ecx
  0083f	ff 15 00 00 00
	00		 call	 DWORD PTR __imp__CreateFontIndirectA@4
  00845	8b f8		 mov	 edi, eax
  00847	3b fb		 cmp	 edi, ebx
  00849	75 12		 jne	 SHORT $L89876
  0084b	6a 5c		 push	 92			; 0000005cH
  0084d	68 00 00 00 00	 push	 OFFSET FLAT:??_C@_0EB@PPOCDDGI@?2darkeden?2Designed_Common?2Projec@
  00852	53		 push	 ebx
  00853	6a 04		 push	 4
  00855	e8 00 00 00 00	 call	 ?g_BasicException@@YAXW4EXCEPTION_CODE@@PAD1K@Z ; g_BasicException
  0085a	83 c4 10	 add	 esp, 16			; 00000010H
$L89876:

; 316  : 
; 317  : 	// new style...
; 318  : 	SetDefaultLogfont(lf);

  0085d	8d 54 24 28	 lea	 edx, DWORD PTR _lf$[esp+404]
  00861	52		 push	 edx
  00862	8b ce		 mov	 ecx, esi
  00864	89 be a4 00 00
	00		 mov	 DWORD PTR [esi+164], edi
  0086a	c7 86 a8 00 00
	00 c0 c0 ff 00	 mov	 DWORD PTR [esi+168], 16761024 ; 00ffc0c0H
  00874	89 9e ac 00 00
	00		 mov	 DWORD PTR [esi+172], ebx
  0087a	c7 86 b0 00 00
	00 01 00 00 00	 mov	 DWORD PTR [esi+176], 1
  00884	89 9e b4 00 00
	00		 mov	 DWORD PTR [esi+180], ebx
  0088a	e8 00 00 00 00	 call	 ?SetDefaultLogfont@Base@@ABEXAAUtagLOGFONTA@@@Z ; Base::SetDefaultLogfont

; 319  : 	lf.lfHeight = 14 + local_font_size;
; 320  : //	lf.lfWeight = FW_BOLD;
; 321  : 	strcpy(lf.lfFaceName, szFontName[0][Language]);

  0088f	8b 44 24 14	 mov	 eax, DWORD PTR tv1133[esp+404]
  00893	c7 44 24 28 0e
	00 00 00	 mov	 DWORD PTR _lf$[esp+404], 14 ; 0000000eH
  0089b	eb 03 8d 49 00	 npad	 5
$L89793:
  008a0	8a 08		 mov	 cl, BYTE PTR [eax]
  008a2	88 0c 28	 mov	 BYTE PTR [eax+ebp], cl
  008a5	40		 inc	 eax
  008a6	3a cb		 cmp	 cl, bl
  008a8	75 f6		 jne	 SHORT $L89793

; 322  : 	SetFont(m_dialog_menu_pi, lf, RGB(255, 255, 255));

  008aa	8d 44 24 28	 lea	 eax, DWORD PTR _lf$[esp+404]
  008ae	50		 push	 eax
  008af	ff 15 00 00 00
	00		 call	 DWORD PTR __imp__CreateFontIndirectA@4
  008b5	8b f8		 mov	 edi, eax
  008b7	3b fb		 cmp	 edi, ebx
  008b9	75 12		 jne	 SHORT $L89883
  008bb	6a 5c		 push	 92			; 0000005cH
  008bd	68 00 00 00 00	 push	 OFFSET FLAT:??_C@_0EB@PPOCDDGI@?2darkeden?2Designed_Common?2Projec@
  008c2	53		 push	 ebx
  008c3	6a 04		 push	 4
  008c5	e8 00 00 00 00	 call	 ?g_BasicException@@YAXW4EXCEPTION_CODE@@PAD1K@Z ; g_BasicException
  008ca	83 c4 10	 add	 esp, 16			; 00000010H
$L89883:

; 323  : 
; 324  : 	// new style...
; 325  : 	SetDefaultLogfont(lf);

  008cd	8d 4c 24 28	 lea	 ecx, DWORD PTR _lf$[esp+404]
  008d1	51		 push	 ecx
  008d2	8b ce		 mov	 ecx, esi
  008d4	89 be b8 00 00
	00		 mov	 DWORD PTR [esi+184], edi
  008da	c7 86 bc 00 00
	00 ff ff ff 00	 mov	 DWORD PTR [esi+188], 16777215 ; 00ffffffH
  008e4	89 9e c0 00 00
	00		 mov	 DWORD PTR [esi+192], ebx
  008ea	c7 86 c4 00 00
	00 01 00 00 00	 mov	 DWORD PTR [esi+196], 1
  008f4	89 9e c8 00 00
	00		 mov	 DWORD PTR [esi+200], ebx
  008fa	e8 00 00 00 00	 call	 ?SetDefaultLogfont@Base@@ABEXAAUtagLOGFONTA@@@Z ; Base::SetDefaultLogfont

; 326  : 	strcpy(lf.lfFaceName, szFontName[0][Language]);

  008ff	8b 44 24 14	 mov	 eax, DWORD PTR tv1133[esp+404]
$L89794:
  00903	8a 08		 mov	 cl, BYTE PTR [eax]
  00905	88 0c 28	 mov	 BYTE PTR [eax+ebp], cl
  00908	40		 inc	 eax
  00909	3a cb		 cmp	 cl, bl
  0090b	75 f6		 jne	 SHORT $L89794

; 327  : 	lf.lfHeight = 13 + local_font_size;
; 328  : 	SetFont(m_dialog_msg_pi, lf, RGB(255, 255, 255));

  0090d	8d 54 24 28	 lea	 edx, DWORD PTR _lf$[esp+404]
  00911	52		 push	 edx
  00912	c7 44 24 2c 0d
	00 00 00	 mov	 DWORD PTR _lf$[esp+408], 13 ; 0000000dH
  0091a	ff 15 00 00 00
	00		 call	 DWORD PTR __imp__CreateFontIndirectA@4
  00920	8b f8		 mov	 edi, eax
  00922	3b fb		 cmp	 edi, ebx
  00924	75 12		 jne	 SHORT $L89890
  00926	6a 5c		 push	 92			; 0000005cH
  00928	68 00 00 00 00	 push	 OFFSET FLAT:??_C@_0EB@PPOCDDGI@?2darkeden?2Designed_Common?2Projec@
  0092d	53		 push	 ebx
  0092e	6a 04		 push	 4
  00930	e8 00 00 00 00	 call	 ?g_BasicException@@YAXW4EXCEPTION_CODE@@PAD1K@Z ; g_BasicException
  00935	83 c4 10	 add	 esp, 16			; 00000010H
$L89890:

; 329  : 
; 330  : 	// new style...
; 331  : 	SetDefaultLogfont(lf);

  00938	8d 44 24 28	 lea	 eax, DWORD PTR _lf$[esp+404]
  0093c	50		 push	 eax
  0093d	8b ce		 mov	 ecx, esi
  0093f	89 be cc 00 00
	00		 mov	 DWORD PTR [esi+204], edi
  00945	c7 86 d0 00 00
	00 ff ff ff 00	 mov	 DWORD PTR [esi+208], 16777215 ; 00ffffffH
  0094f	89 9e d4 00 00
	00		 mov	 DWORD PTR [esi+212], ebx
  00955	c7 86 d8 00 00
	00 01 00 00 00	 mov	 DWORD PTR [esi+216], 1
  0095f	89 9e dc 00 00
	00		 mov	 DWORD PTR [esi+220], ebx
  00965	e8 00 00 00 00	 call	 ?SetDefaultLogfont@Base@@ABEXAAUtagLOGFONTA@@@Z ; Base::SetDefaultLogfont

; 332  : 	lf.lfHeight = 14 + local_font_size;
; 333  : 	lf.lfWeight = FW_BOLD;
; 334  : 	strcpy(lf.lfFaceName, szFontName[0][Language]);

  0096a	8b 44 24 14	 mov	 eax, DWORD PTR tv1133[esp+404]
  0096e	c7 44 24 28 0e
	00 00 00	 mov	 DWORD PTR _lf$[esp+404], 14 ; 0000000eH
  00976	c7 44 24 38 bc
	02 00 00	 mov	 DWORD PTR _lf$[esp+420], 700 ; 000002bcH
  0097e	8b ff		 npad	 2
$L89795:
  00980	8a 08		 mov	 cl, BYTE PTR [eax]
  00982	88 0c 28	 mov	 BYTE PTR [eax+ebp], cl
  00985	40		 inc	 eax
  00986	3a cb		 cmp	 cl, bl
  00988	75 f6		 jne	 SHORT $L89795

; 335  : 	SetFont(m_desc_menu_pi, lf, RGB(255, 255, 255));

  0098a	8d 4c 24 28	 lea	 ecx, DWORD PTR _lf$[esp+404]
  0098e	51		 push	 ecx
  0098f	ff 15 00 00 00
	00		 call	 DWORD PTR __imp__CreateFontIndirectA@4
  00995	8b f8		 mov	 edi, eax
  00997	3b fb		 cmp	 edi, ebx
  00999	75 12		 jne	 SHORT $L89897
  0099b	6a 5c		 push	 92			; 0000005cH
  0099d	68 00 00 00 00	 push	 OFFSET FLAT:??_C@_0EB@PPOCDDGI@?2darkeden?2Designed_Common?2Projec@
  009a2	53		 push	 ebx
  009a3	6a 04		 push	 4
  009a5	e8 00 00 00 00	 call	 ?g_BasicException@@YAXW4EXCEPTION_CODE@@PAD1K@Z ; g_BasicException
  009aa	83 c4 10	 add	 esp, 16			; 00000010H
$L89897:

; 336  : 
; 337  : 	// new style...
; 338  : 	SetDefaultLogfont(lf);

  009ad	8d 54 24 28	 lea	 edx, DWORD PTR _lf$[esp+404]
  009b1	52		 push	 edx
  009b2	8b ce		 mov	 ecx, esi
  009b4	89 be e0 00 00
	00		 mov	 DWORD PTR [esi+224], edi
  009ba	c7 86 e4 00 00
	00 ff ff ff 00	 mov	 DWORD PTR [esi+228], 16777215 ; 00ffffffH
  009c4	89 9e e8 00 00
	00		 mov	 DWORD PTR [esi+232], ebx
  009ca	c7 86 ec 00 00
	00 01 00 00 00	 mov	 DWORD PTR [esi+236], 1
  009d4	89 9e f0 00 00
	00		 mov	 DWORD PTR [esi+240], ebx
  009da	e8 00 00 00 00	 call	 ?SetDefaultLogfont@Base@@ABEXAAUtagLOGFONTA@@@Z ; Base::SetDefaultLogfont

; 339  : 	strcpy(lf.lfFaceName, szFontName[0][Language]);

  009df	8b 44 24 14	 mov	 eax, DWORD PTR tv1133[esp+404]
$L89796:
  009e3	8a 08		 mov	 cl, BYTE PTR [eax]
  009e5	88 0c 28	 mov	 BYTE PTR [eax+ebp], cl
  009e8	40		 inc	 eax
  009e9	3a cb		 cmp	 cl, bl
  009eb	75 f6		 jne	 SHORT $L89796

; 340  : 	lf.lfHeight = 14 + local_font_size;
; 341  : 	SetFont(m_desc_msg_pi, lf, RGB(255, 255, 255));

  009ed	8d 44 24 28	 lea	 eax, DWORD PTR _lf$[esp+404]
  009f1	50		 push	 eax
  009f2	c7 44 24 2c 0e
	00 00 00	 mov	 DWORD PTR _lf$[esp+408], 14 ; 0000000eH
  009fa	ff 15 00 00 00
	00		 call	 DWORD PTR __imp__CreateFontIndirectA@4
  00a00	8b f8		 mov	 edi, eax
  00a02	3b fb		 cmp	 edi, ebx
  00a04	75 12		 jne	 SHORT $L89904
  00a06	6a 5c		 push	 92			; 0000005cH
  00a08	68 00 00 00 00	 push	 OFFSET FLAT:??_C@_0EB@PPOCDDGI@?2darkeden?2Designed_Common?2Projec@
  00a0d	53		 push	 ebx
  00a0e	6a 04		 push	 4
  00a10	e8 00 00 00 00	 call	 ?g_BasicException@@YAXW4EXCEPTION_CODE@@PAD1K@Z ; g_BasicException
  00a15	83 c4 10	 add	 esp, 16			; 00000010H
$L89904:

; 342  : 
; 343  : 	// new style...
; 344  : 	SetDefaultLogfont(lf);

  00a18	8d 4c 24 28	 lea	 ecx, DWORD PTR _lf$[esp+404]
  00a1c	51		 push	 ecx
  00a1d	8b ce		 mov	 ecx, esi
  00a1f	89 be f4 00 00
	00		 mov	 DWORD PTR [esi+244], edi
  00a25	c7 86 f8 00 00
	00 ff ff ff 00	 mov	 DWORD PTR [esi+248], 16777215 ; 00ffffffH
  00a2f	89 9e fc 00 00
	00		 mov	 DWORD PTR [esi+252], ebx
  00a35	c7 86 00 01 00
	00 01 00 00 00	 mov	 DWORD PTR [esi+256], 1
  00a3f	89 9e 04 01 00
	00		 mov	 DWORD PTR [esi+260], ebx
  00a45	e8 00 00 00 00	 call	 ?SetDefaultLogfont@Base@@ABEXAAUtagLOGFONTA@@@Z ; Base::SetDefaultLogfont

; 345  : 	lf.lfHeight = 16 + local_font_size;
; 346  : 	strcpy(lf.lfFaceName, szFontName[0][Language]);

  00a4a	8b 44 24 14	 mov	 eax, DWORD PTR tv1133[esp+404]
  00a4e	c7 44 24 28 10
	00 00 00	 mov	 DWORD PTR _lf$[esp+404], 16 ; 00000010H
$L89797:
  00a56	8a 08		 mov	 cl, BYTE PTR [eax]
  00a58	88 0c 28	 mov	 BYTE PTR [eax+ebp], cl
  00a5b	40		 inc	 eax
  00a5c	3a cb		 cmp	 cl, bl
  00a5e	75 f6		 jne	 SHORT $L89797

; 347  : 	SetFont(m_money_pi, lf, RGB(255, 255, 255));

  00a60	8d 54 24 28	 lea	 edx, DWORD PTR _lf$[esp+404]
  00a64	52		 push	 edx
  00a65	ff 15 00 00 00
	00		 call	 DWORD PTR __imp__CreateFontIndirectA@4
  00a6b	8b f8		 mov	 edi, eax
  00a6d	3b fb		 cmp	 edi, ebx
  00a6f	75 12		 jne	 SHORT $L89911
  00a71	6a 5c		 push	 92			; 0000005cH
  00a73	68 00 00 00 00	 push	 OFFSET FLAT:??_C@_0EB@PPOCDDGI@?2darkeden?2Designed_Common?2Projec@
  00a78	53		 push	 ebx
  00a79	6a 04		 push	 4
  00a7b	e8 00 00 00 00	 call	 ?g_BasicException@@YAXW4EXCEPTION_CODE@@PAD1K@Z ; g_BasicException
  00a80	83 c4 10	 add	 esp, 16			; 00000010H
$L89911:

; 348  : 
; 349  : 	// new style...
; 350  : 	SetDefaultLogfont(lf);

  00a83	8d 44 24 28	 lea	 eax, DWORD PTR _lf$[esp+404]
  00a87	50		 push	 eax
  00a88	8b ce		 mov	 ecx, esi
  00a8a	89 be 08 01 00
	00		 mov	 DWORD PTR [esi+264], edi
  00a90	c7 86 0c 01 00
	00 ff ff ff 00	 mov	 DWORD PTR [esi+268], 16777215 ; 00ffffffH
  00a9a	89 9e 10 01 00
	00		 mov	 DWORD PTR [esi+272], ebx
  00aa0	c7 86 14 01 00
	00 01 00 00 00	 mov	 DWORD PTR [esi+276], 1
  00aaa	89 9e 18 01 00
	00		 mov	 DWORD PTR [esi+280], ebx
  00ab0	e8 00 00 00 00	 call	 ?SetDefaultLogfont@Base@@ABEXAAUtagLOGFONTA@@@Z ; Base::SetDefaultLogfont

; 351  : 	lf.lfHeight = 16 + local_font_size;
; 352  : 	lf.lfWeight = FW_BOLD;
; 353  : 	strcpy(lf.lfFaceName, szFontName[0][Language]);

  00ab5	8b 44 24 14	 mov	 eax, DWORD PTR tv1133[esp+404]
  00ab9	c7 44 24 28 10
	00 00 00	 mov	 DWORD PTR _lf$[esp+404], 16 ; 00000010H
  00ac1	c7 44 24 38 bc
	02 00 00	 mov	 DWORD PTR _lf$[esp+420], 700 ; 000002bcH
  00ac9	8d a4 24 00 00
	00 00		 npad	 7
$L89798:
  00ad0	8a 08		 mov	 cl, BYTE PTR [eax]
  00ad2	88 0c 28	 mov	 BYTE PTR [eax+ebp], cl
  00ad5	40		 inc	 eax
  00ad6	3a cb		 cmp	 cl, bl
  00ad8	75 f6		 jne	 SHORT $L89798

; 354  : 	SetFont(m_char_value_pi, lf, RGB(255, 255, 255));

  00ada	8d 4c 24 28	 lea	 ecx, DWORD PTR _lf$[esp+404]
  00ade	51		 push	 ecx
  00adf	ff 15 00 00 00
	00		 call	 DWORD PTR __imp__CreateFontIndirectA@4
  00ae5	8b f8		 mov	 edi, eax
  00ae7	3b fb		 cmp	 edi, ebx
  00ae9	75 12		 jne	 SHORT $L89918
  00aeb	6a 5c		 push	 92			; 0000005cH
  00aed	68 00 00 00 00	 push	 OFFSET FLAT:??_C@_0EB@PPOCDDGI@?2darkeden?2Designed_Common?2Projec@
  00af2	53		 push	 ebx
  00af3	6a 04		 push	 4
  00af5	e8 00 00 00 00	 call	 ?g_BasicException@@YAXW4EXCEPTION_CODE@@PAD1K@Z ; g_BasicException
  00afa	83 c4 10	 add	 esp, 16			; 00000010H
$L89918:

; 355  : 
; 356  : 	//
; 357  : 	//font used by Client by larosel 밖의 폰트보다 2씩 크게 해줘야함.
; 358  : 	//
; 359  : 	//SetDefaultLogfont(lf);
; 360  : 	//lf.lfHeight = 12;
; 361  : 	//strcpy(lf.lfFaceName, "굴림");
; 362  : 	//SetFont(m_chat_dialog_pi, lf, RGB(255, 255, 255));
; 363  : 
; 364  : 	SetDefaultLogfont(lf);

  00afd	8d 54 24 28	 lea	 edx, DWORD PTR _lf$[esp+404]
  00b01	52		 push	 edx
  00b02	8b ce		 mov	 ecx, esi
  00b04	89 be 1c 01 00
	00		 mov	 DWORD PTR [esi+284], edi
  00b0a	c7 86 20 01 00
	00 ff ff ff 00	 mov	 DWORD PTR [esi+288], 16777215 ; 00ffffffH
  00b14	89 9e 24 01 00
	00		 mov	 DWORD PTR [esi+292], ebx
  00b1a	c7 86 28 01 00
	00 01 00 00 00	 mov	 DWORD PTR [esi+296], 1
  00b24	89 9e 2c 01 00
	00		 mov	 DWORD PTR [esi+300], ebx
  00b2a	e8 00 00 00 00	 call	 ?SetDefaultLogfont@Base@@ABEXAAUtagLOGFONTA@@@Z ; Base::SetDefaultLogfont

; 365  : 	lf.lfHeight = 14 + local_font_size;
; 366  : 	lf.lfWeight = FW_BOLD;
; 367  : 	strcpy(lf.lfFaceName, szFontName[3][Language]);

  00b2f	8b 4c 24 1c	 mov	 ecx, DWORD PTR tv2280[esp+404]
  00b33	8b 6c 24 20	 mov	 ebp, DWORD PTR tv1132[esp+404]
  00b37	8d 7c 24 44	 lea	 edi, DWORD PTR _lf$[esp+432]
  00b3b	2b f9		 sub	 edi, ecx
  00b3d	8d ac 2c 18 01
	00 00		 lea	 ebp, DWORD PTR _szFontName$[esp+ebp+584]
  00b44	8d 8c 24 18 01
	00 00		 lea	 ecx, DWORD PTR _szFontName$[esp+584]
  00b4b	c7 44 24 28 0e
	00 00 00	 mov	 DWORD PTR _lf$[esp+404], 14 ; 0000000eH
  00b53	c7 44 24 38 bc
	02 00 00	 mov	 DWORD PTR _lf$[esp+420], 700 ; 000002bcH
  00b5b	8b c5		 mov	 eax, ebp
  00b5d	2b f9		 sub	 edi, ecx
  00b5f	90		 npad	 1
$L89799:
  00b60	8a 08		 mov	 cl, BYTE PTR [eax]
  00b62	88 0c 38	 mov	 BYTE PTR [eax+edi], cl
  00b65	40		 inc	 eax
  00b66	3a cb		 cmp	 cl, bl
  00b68	75 f6		 jne	 SHORT $L89799

; 368  : 	SetFont(m_info_pi, lf, RGB(255, 255, 255));

  00b6a	8d 54 24 28	 lea	 edx, DWORD PTR _lf$[esp+404]
  00b6e	52		 push	 edx
  00b6f	ff 15 00 00 00
	00		 call	 DWORD PTR __imp__CreateFontIndirectA@4
  00b75	3b c3		 cmp	 eax, ebx
  00b77	89 44 24 10	 mov	 DWORD PTR _hfont$89924[esp+404], eax
  00b7b	75 12		 jne	 SHORT $L89925
  00b7d	6a 5c		 push	 92			; 0000005cH
  00b7f	68 00 00 00 00	 push	 OFFSET FLAT:??_C@_0EB@PPOCDDGI@?2darkeden?2Designed_Common?2Projec@
  00b84	53		 push	 ebx
  00b85	6a 04		 push	 4
  00b87	e8 00 00 00 00	 call	 ?g_BasicException@@YAXW4EXCEPTION_CODE@@PAD1K@Z ; g_BasicException
  00b8c	83 c4 10	 add	 esp, 16			; 00000010H
$L89925:
  00b8f	8b 44 24 10	 mov	 eax, DWORD PTR _hfont$89924[esp+404]

; 369  : 
; 370  : 	SetDefaultLogfont(lf);

  00b93	8d 4c 24 28	 lea	 ecx, DWORD PTR _lf$[esp+404]
  00b97	51		 push	 ecx
  00b98	8b ce		 mov	 ecx, esi
  00b9a	89 86 6c 01 00
	00		 mov	 DWORD PTR [esi+364], eax
  00ba0	c7 86 70 01 00
	00 ff ff ff 00	 mov	 DWORD PTR [esi+368], 16777215 ; 00ffffffH
  00baa	89 9e 74 01 00
	00		 mov	 DWORD PTR [esi+372], ebx
  00bb0	c7 86 78 01 00
	00 01 00 00 00	 mov	 DWORD PTR [esi+376], 1
  00bba	89 9e 7c 01 00
	00		 mov	 DWORD PTR [esi+380], ebx
  00bc0	e8 00 00 00 00	 call	 ?SetDefaultLogfont@Base@@ABEXAAUtagLOGFONTA@@@Z ; Base::SetDefaultLogfont

; 371  : 	lf.lfHeight = 12 + local_font_size;

  00bc5	c7 44 24 28 0c
	00 00 00	 mov	 DWORD PTR _lf$[esp+404], 12 ; 0000000cH

; 372  : 	strcpy(lf.lfFaceName, szFontName[3][Language]);

  00bcd	8b c5		 mov	 eax, ebp
  00bcf	90		 npad	 1
$L89800:
  00bd0	8a 08		 mov	 cl, BYTE PTR [eax]
  00bd2	88 0c 38	 mov	 BYTE PTR [eax+edi], cl
  00bd5	40		 inc	 eax
  00bd6	3a cb		 cmp	 cl, bl
  00bd8	75 f6		 jne	 SHORT $L89800

; 373  : 	SetFont(m_item_pi, lf, RGB(255, 255, 255));

  00bda	8d 54 24 28	 lea	 edx, DWORD PTR _lf$[esp+404]
  00bde	52		 push	 edx
  00bdf	ff 15 00 00 00
	00		 call	 DWORD PTR __imp__CreateFontIndirectA@4
  00be5	3b c3		 cmp	 eax, ebx
  00be7	89 44 24 10	 mov	 DWORD PTR _hfont$89931[esp+404], eax
  00beb	75 12		 jne	 SHORT $L89932
  00bed	6a 5c		 push	 92			; 0000005cH
  00bef	68 00 00 00 00	 push	 OFFSET FLAT:??_C@_0EB@PPOCDDGI@?2darkeden?2Designed_Common?2Projec@
  00bf4	53		 push	 ebx
  00bf5	6a 04		 push	 4
  00bf7	e8 00 00 00 00	 call	 ?g_BasicException@@YAXW4EXCEPTION_CODE@@PAD1K@Z ; g_BasicException
  00bfc	83 c4 10	 add	 esp, 16			; 00000010H
$L89932:
  00bff	8b 44 24 10	 mov	 eax, DWORD PTR _hfont$89931[esp+404]

; 374  : 
; 375  : 	SetDefaultLogfont(lf);

  00c03	8d 4c 24 28	 lea	 ecx, DWORD PTR _lf$[esp+404]
  00c07	51		 push	 ecx
  00c08	8b ce		 mov	 ecx, esi
  00c0a	89 86 80 01 00
	00		 mov	 DWORD PTR [esi+384], eax
  00c10	c7 86 84 01 00
	00 ff ff ff 00	 mov	 DWORD PTR [esi+388], 16777215 ; 00ffffffH
  00c1a	89 9e 88 01 00
	00		 mov	 DWORD PTR [esi+392], ebx
  00c20	c7 86 8c 01 00
	00 01 00 00 00	 mov	 DWORD PTR [esi+396], 1
  00c2a	89 9e 90 01 00
	00		 mov	 DWORD PTR [esi+400], ebx
  00c30	e8 00 00 00 00	 call	 ?SetDefaultLogfont@Base@@ABEXAAUtagLOGFONTA@@@Z ; Base::SetDefaultLogfont

; 376  : 	lf.lfHeight = 13 + local_font_size;

  00c35	c7 44 24 28 0d
	00 00 00	 mov	 DWORD PTR _lf$[esp+404], 13 ; 0000000dH

; 377  : 	lf.lfWeight = FW_BOLD;

  00c3d	c7 44 24 38 bc
	02 00 00	 mov	 DWORD PTR _lf$[esp+420], 700 ; 000002bcH

; 378  : 	strcpy(lf.lfFaceName, szFontName[3][Language]);

  00c45	8b c5		 mov	 eax, ebp
$L89801:
  00c47	8a 08		 mov	 cl, BYTE PTR [eax]
  00c49	88 0c 38	 mov	 BYTE PTR [eax+edi], cl
  00c4c	40		 inc	 eax
  00c4d	3a cb		 cmp	 cl, bl
  00c4f	75 f6		 jne	 SHORT $L89801

; 379  : 	SetFont(m_char_name_pi, lf, RGB(255, 255, 255));

  00c51	8d 54 24 28	 lea	 edx, DWORD PTR _lf$[esp+404]
  00c55	52		 push	 edx
  00c56	ff 15 00 00 00
	00		 call	 DWORD PTR __imp__CreateFontIndirectA@4
  00c5c	3b c3		 cmp	 eax, ebx
  00c5e	89 44 24 10	 mov	 DWORD PTR _hfont$89938[esp+404], eax
  00c62	75 12		 jne	 SHORT $L89939
  00c64	6a 5c		 push	 92			; 0000005cH
  00c66	68 00 00 00 00	 push	 OFFSET FLAT:??_C@_0EB@PPOCDDGI@?2darkeden?2Designed_Common?2Projec@
  00c6b	53		 push	 ebx
  00c6c	6a 04		 push	 4
  00c6e	e8 00 00 00 00	 call	 ?g_BasicException@@YAXW4EXCEPTION_CODE@@PAD1K@Z ; g_BasicException
  00c73	83 c4 10	 add	 esp, 16			; 00000010H
$L89939:
  00c76	8b 44 24 10	 mov	 eax, DWORD PTR _hfont$89938[esp+404]

; 380  : 
; 381  : 	SetDefaultLogfont(lf);

  00c7a	8d 4c 24 28	 lea	 ecx, DWORD PTR _lf$[esp+404]
  00c7e	51		 push	 ecx
  00c7f	8b ce		 mov	 ecx, esi
  00c81	89 86 94 01 00
	00		 mov	 DWORD PTR [esi+404], eax
  00c87	c7 86 98 01 00
	00 ff ff ff 00	 mov	 DWORD PTR [esi+408], 16777215 ; 00ffffffH
  00c91	89 9e 9c 01 00
	00		 mov	 DWORD PTR [esi+412], ebx
  00c97	c7 86 a0 01 00
	00 01 00 00 00	 mov	 DWORD PTR [esi+416], 1
  00ca1	89 9e a4 01 00
	00		 mov	 DWORD PTR [esi+420], ebx
  00ca7	e8 00 00 00 00	 call	 ?SetDefaultLogfont@Base@@ABEXAAUtagLOGFONTA@@@Z ; Base::SetDefaultLogfont

; 382  : 	lf.lfHeight = 13 + local_font_size;

  00cac	c7 44 24 28 0d
	00 00 00	 mov	 DWORD PTR _lf$[esp+404], 13 ; 0000000dH

; 383  : 	strcpy(lf.lfFaceName, szFontName[3][Language]);

  00cb4	8b c5		 mov	 eax, ebp
$L89802:
  00cb6	8a 08		 mov	 cl, BYTE PTR [eax]
  00cb8	88 0c 38	 mov	 BYTE PTR [eax+edi], cl
  00cbb	40		 inc	 eax
  00cbc	3a cb		 cmp	 cl, bl
  00cbe	75 f6		 jne	 SHORT $L89802

; 384  : 	SetFont(m_char_chat_pi, lf, RGB(255, 255, 255));

  00cc0	8d 54 24 28	 lea	 edx, DWORD PTR _lf$[esp+404]
  00cc4	52		 push	 edx
  00cc5	ff 15 00 00 00
	00		 call	 DWORD PTR __imp__CreateFontIndirectA@4
  00ccb	3b c3		 cmp	 eax, ebx
  00ccd	89 44 24 10	 mov	 DWORD PTR _hfont$89945[esp+404], eax
  00cd1	75 12		 jne	 SHORT $L89946
  00cd3	6a 5c		 push	 92			; 0000005cH
  00cd5	68 00 00 00 00	 push	 OFFSET FLAT:??_C@_0EB@PPOCDDGI@?2darkeden?2Designed_Common?2Projec@
  00cda	53		 push	 ebx
  00cdb	6a 04		 push	 4
  00cdd	e8 00 00 00 00	 call	 ?g_BasicException@@YAXW4EXCEPTION_CODE@@PAD1K@Z ; g_BasicException
  00ce2	83 c4 10	 add	 esp, 16			; 00000010H
$L89946:
  00ce5	8b 44 24 10	 mov	 eax, DWORD PTR _hfont$89945[esp+404]

; 385  : 
; 386  : 	//party
; 387  : 	SetDefaultLogfont(lf); //by larosel

  00ce9	8d 4c 24 28	 lea	 ecx, DWORD PTR _lf$[esp+404]
  00ced	51		 push	 ecx
  00cee	8b ce		 mov	 ecx, esi
  00cf0	89 86 a8 01 00
	00		 mov	 DWORD PTR [esi+424], eax
  00cf6	c7 86 ac 01 00
	00 ff ff ff 00	 mov	 DWORD PTR [esi+428], 16777215 ; 00ffffffH
  00d00	89 9e b0 01 00
	00		 mov	 DWORD PTR [esi+432], ebx
  00d06	c7 86 b4 01 00
	00 01 00 00 00	 mov	 DWORD PTR [esi+436], 1
  00d10	89 9e b8 01 00
	00		 mov	 DWORD PTR [esi+440], ebx
  00d16	e8 00 00 00 00	 call	 ?SetDefaultLogfont@Base@@ABEXAAUtagLOGFONTA@@@Z ; Base::SetDefaultLogfont

; 388  : 	lf.lfHeight = 12 + local_font_size;

  00d1b	c7 44 24 28 0c
	00 00 00	 mov	 DWORD PTR _lf$[esp+404], 12 ; 0000000cH

; 389  : //	lf.lfWeight = FW_BOLD;
; 390  : 	strcpy(lf.lfFaceName, szFontName[3][Language]);

  00d23	8b c5		 mov	 eax, ebp
$L89803:
  00d25	8a 08		 mov	 cl, BYTE PTR [eax]
  00d27	88 0c 38	 mov	 BYTE PTR [eax+edi], cl
  00d2a	40		 inc	 eax
  00d2b	3a cb		 cmp	 cl, bl
  00d2d	75 f6		 jne	 SHORT $L89803

; 391  : 	SetFont(m_party_name_pi, lf, RGB(20, 70, 0));

  00d2f	8d 54 24 28	 lea	 edx, DWORD PTR _lf$[esp+404]
  00d33	52		 push	 edx
  00d34	ff 15 00 00 00
	00		 call	 DWORD PTR __imp__CreateFontIndirectA@4
  00d3a	3b c3		 cmp	 eax, ebx
  00d3c	89 44 24 10	 mov	 DWORD PTR _hfont$89952[esp+404], eax
  00d40	75 12		 jne	 SHORT $L89953
  00d42	6a 5c		 push	 92			; 0000005cH
  00d44	68 00 00 00 00	 push	 OFFSET FLAT:??_C@_0EB@PPOCDDGI@?2darkeden?2Designed_Common?2Projec@
  00d49	53		 push	 ebx
  00d4a	6a 04		 push	 4
  00d4c	e8 00 00 00 00	 call	 ?g_BasicException@@YAXW4EXCEPTION_CODE@@PAD1K@Z ; g_BasicException
  00d51	83 c4 10	 add	 esp, 16			; 00000010H
$L89953:
  00d54	8b 44 24 10	 mov	 eax, DWORD PTR _hfont$89952[esp+404]

; 392  : 
; 393  : 	//xmas
; 394  : 	SetDefaultLogfont(lf); //by larosel

  00d58	8d 4c 24 28	 lea	 ecx, DWORD PTR _lf$[esp+404]
  00d5c	51		 push	 ecx
  00d5d	8b ce		 mov	 ecx, esi
  00d5f	89 86 bc 01 00
	00		 mov	 DWORD PTR [esi+444], eax
  00d65	c7 86 c0 01 00
	00 14 46 00 00	 mov	 DWORD PTR [esi+448], 17940 ; 00004614H
  00d6f	89 9e c4 01 00
	00		 mov	 DWORD PTR [esi+452], ebx
  00d75	c7 86 c8 01 00
	00 01 00 00 00	 mov	 DWORD PTR [esi+456], 1
  00d7f	89 9e cc 01 00
	00		 mov	 DWORD PTR [esi+460], ebx
  00d85	e8 00 00 00 00	 call	 ?SetDefaultLogfont@Base@@ABEXAAUtagLOGFONTA@@@Z ; Base::SetDefaultLogfont

; 395  : 	lf.lfHeight = 10 + local_font_size;

  00d8a	c7 44 24 28 0a
	00 00 00	 mov	 DWORD PTR _lf$[esp+404], 10 ; 0000000aH

; 396  : //	lf.lfWeight = FW_BOLD;
; 397  : 	lf.lfItalic = true;

  00d92	c6 44 24 3c 01	 mov	 BYTE PTR _lf$[esp+424], 1

; 398  : 	strcpy(lf.lfFaceName, szFontName[3][Language]);

  00d97	8b c5		 mov	 eax, ebp
  00d99	8d a4 24 00 00
	00 00		 npad	 7
$L89804:
  00da0	8a 08		 mov	 cl, BYTE PTR [eax]
  00da2	88 0c 38	 mov	 BYTE PTR [eax+edi], cl
  00da5	40		 inc	 eax
  00da6	3a cb		 cmp	 cl, bl
  00da8	75 f6		 jne	 SHORT $L89804

; 399  : 	SetFont(m_xmas_pi, lf, RGB(20, 70, 0));

  00daa	8d 54 24 28	 lea	 edx, DWORD PTR _lf$[esp+404]
  00dae	52		 push	 edx
  00daf	ff 15 00 00 00
	00		 call	 DWORD PTR __imp__CreateFontIndirectA@4
  00db5	3b c3		 cmp	 eax, ebx
  00db7	89 44 24 10	 mov	 DWORD PTR _hfont$89959[esp+404], eax
  00dbb	75 12		 jne	 SHORT $L89960
  00dbd	6a 5c		 push	 92			; 0000005cH
  00dbf	68 00 00 00 00	 push	 OFFSET FLAT:??_C@_0EB@PPOCDDGI@?2darkeden?2Designed_Common?2Projec@
  00dc4	53		 push	 ebx
  00dc5	6a 04		 push	 4
  00dc7	e8 00 00 00 00	 call	 ?g_BasicException@@YAXW4EXCEPTION_CODE@@PAD1K@Z ; g_BasicException
  00dcc	83 c4 10	 add	 esp, 16			; 00000010H
$L89960:
  00dcf	8b 44 24 10	 mov	 eax, DWORD PTR _hfont$89959[esp+404]

; 400  : 
; 401  : 	SetDefaultLogfont(lf);

  00dd3	8d 4c 24 28	 lea	 ecx, DWORD PTR _lf$[esp+404]
  00dd7	51		 push	 ecx
  00dd8	8b ce		 mov	 ecx, esi
  00dda	89 86 0c 02 00
	00		 mov	 DWORD PTR [esi+524], eax
  00de0	c7 86 10 02 00
	00 14 46 00 00	 mov	 DWORD PTR [esi+528], 17940 ; 00004614H
  00dea	89 9e 14 02 00
	00		 mov	 DWORD PTR [esi+532], ebx
  00df0	c7 86 18 02 00
	00 01 00 00 00	 mov	 DWORD PTR [esi+536], 1
  00dfa	89 9e 1c 02 00
	00		 mov	 DWORD PTR [esi+540], ebx
  00e00	e8 00 00 00 00	 call	 ?SetDefaultLogfont@Base@@ABEXAAUtagLOGFONTA@@@Z ; Base::SetDefaultLogfont

; 402  : 	lf.lfHeight = 16 + local_font_size;

  00e05	c7 44 24 28 10
	00 00 00	 mov	 DWORD PTR _lf$[esp+404], 16 ; 00000010H

; 403  : 	lf.lfWeight = FW_BOLD;

  00e0d	c7 44 24 38 bc
	02 00 00	 mov	 DWORD PTR _lf$[esp+420], 700 ; 000002bcH

; 404  : 	strcpy(lf.lfFaceName, szFontName[3][Language]);

  00e15	8b c5		 mov	 eax, ebp
$L89805:
  00e17	8a 08		 mov	 cl, BYTE PTR [eax]
  00e19	88 0c 38	 mov	 BYTE PTR [eax+edi], cl
  00e1c	40		 inc	 eax
  00e1d	3a cb		 cmp	 cl, bl
  00e1f	75 f6		 jne	 SHORT $L89805

; 405  : 	SetFont( m_char_chat_large_pi, lf, RGB(255,255,255));

  00e21	8b 2d 00 00 00
	00		 mov	 ebp, DWORD PTR __imp__CreateFontIndirectA@4
  00e27	8d 54 24 28	 lea	 edx, DWORD PTR _lf$[esp+404]
  00e2b	52		 push	 edx
  00e2c	ff d5		 call	 ebp
  00e2e	8b f8		 mov	 edi, eax
  00e30	3b fb		 cmp	 edi, ebx
  00e32	75 12		 jne	 SHORT $L90026
  00e34	6a 5c		 push	 92			; 0000005cH
  00e36	68 00 00 00 00	 push	 OFFSET FLAT:??_C@_0EB@PPOCDDGI@?2darkeden?2Designed_Common?2Projec@
  00e3b	53		 push	 ebx
  00e3c	6a 04		 push	 4
  00e3e	e8 00 00 00 00	 call	 ?g_BasicException@@YAXW4EXCEPTION_CODE@@PAD1K@Z ; g_BasicException
  00e43	83 c4 10	 add	 esp, 16			; 00000010H
$L90026:

; 406  : 
; 407  : 	// new style...
; 408  : 	SetDefaultLogfont(lf);

  00e46	8d 44 24 28	 lea	 eax, DWORD PTR _lf$[esp+404]
  00e4a	50		 push	 eax
  00e4b	8b ce		 mov	 ecx, esi
  00e4d	89 be 30 01 00
	00		 mov	 DWORD PTR [esi+304], edi
  00e53	c7 86 34 01 00
	00 ff ff ff 00	 mov	 DWORD PTR [esi+308], 16777215 ; 00ffffffH
  00e5d	89 9e 38 01 00
	00		 mov	 DWORD PTR [esi+312], ebx
  00e63	c7 86 3c 01 00
	00 01 00 00 00	 mov	 DWORD PTR [esi+316], 1
  00e6d	89 9e 40 01 00
	00		 mov	 DWORD PTR [esi+320], ebx
  00e73	e8 00 00 00 00	 call	 ?SetDefaultLogfont@Base@@ABEXAAUtagLOGFONTA@@@Z ; Base::SetDefaultLogfont

; 409  : 	lf.lfHeight = 16 + local_font_size;
; 410  : 	strcpy(lf.lfFaceName, szFontName[0][Language]);

  00e78	8b 44 24 14	 mov	 eax, DWORD PTR tv1133[esp+404]
  00e7c	8b 54 24 24	 mov	 edx, DWORD PTR tv2282[esp+404]
  00e80	c7 44 24 28 10
	00 00 00	 mov	 DWORD PTR _lf$[esp+404], 16 ; 00000010H
$L89806:
  00e88	8a 08		 mov	 cl, BYTE PTR [eax]
  00e8a	88 0c 10	 mov	 BYTE PTR [eax+edx], cl
  00e8d	40		 inc	 eax
  00e8e	3a cb		 cmp	 cl, bl
  00e90	75 f6		 jne	 SHORT $L89806

; 411  : 	SetFont(m_money2_pi, lf, RGB(255, 255, 255), 0, TRANSPARENT, TA_RIGHT);

  00e92	8d 4c 24 28	 lea	 ecx, DWORD PTR _lf$[esp+404]
  00e96	51		 push	 ecx
  00e97	ff d5		 call	 ebp
  00e99	8b f8		 mov	 edi, eax
  00e9b	3b fb		 cmp	 edi, ebx
  00e9d	75 12		 jne	 SHORT $L89974
  00e9f	6a 5c		 push	 92			; 0000005cH
  00ea1	68 00 00 00 00	 push	 OFFSET FLAT:??_C@_0EB@PPOCDDGI@?2darkeden?2Designed_Common?2Projec@
  00ea6	53		 push	 ebx
  00ea7	6a 04		 push	 4
  00ea9	e8 00 00 00 00	 call	 ?g_BasicException@@YAXW4EXCEPTION_CODE@@PAD1K@Z ; g_BasicException
  00eae	83 c4 10	 add	 esp, 16			; 00000010H
$L89974:

; 412  : 
; 413  : 	// Event Message용 pi
; 414  : 	SetDefaultLogfont(lf);

  00eb1	8d 54 24 28	 lea	 edx, DWORD PTR _lf$[esp+404]
  00eb5	52		 push	 edx
  00eb6	8b ce		 mov	 ecx, esi
  00eb8	89 be 20 02 00
	00		 mov	 DWORD PTR [esi+544], edi
  00ebe	c7 86 24 02 00
	00 ff ff ff 00	 mov	 DWORD PTR [esi+548], 16777215 ; 00ffffffH
  00ec8	89 9e 28 02 00
	00		 mov	 DWORD PTR [esi+552], ebx
  00ece	c7 86 2c 02 00
	00 01 00 00 00	 mov	 DWORD PTR [esi+556], 1
  00ed8	c7 86 30 02 00
	00 02 00 00 00	 mov	 DWORD PTR [esi+560], 2
  00ee2	e8 00 00 00 00	 call	 ?SetDefaultLogfont@Base@@ABEXAAUtagLOGFONTA@@@Z ; Base::SetDefaultLogfont

; 415  : 	lf.lfHeight = 20 + local_font_size;
; 416  : 	lf.lfWeight = FW_BOLD;
; 417  : 	strcpy(lf.lfFaceName, szFontName[4][Language]);

  00ee7	8b 4c 24 1c	 mov	 ecx, DWORD PTR tv2280[esp+404]
  00eeb	8b 6c 24 20	 mov	 ebp, DWORD PTR tv1132[esp+404]
  00eef	8d 7c 24 44	 lea	 edi, DWORD PTR _lf$[esp+432]
  00ef3	2b f9		 sub	 edi, ecx
  00ef5	8d ac 2c 54 01
	00 00		 lea	 ebp, DWORD PTR _szFontName$[esp+ebp+644]
  00efc	8d 8c 24 54 01
	00 00		 lea	 ecx, DWORD PTR _szFontName$[esp+644]
  00f03	c7 44 24 28 14
	00 00 00	 mov	 DWORD PTR _lf$[esp+404], 20 ; 00000014H
  00f0b	c7 44 24 38 bc
	02 00 00	 mov	 DWORD PTR _lf$[esp+420], 700 ; 000002bcH
  00f13	8b c5		 mov	 eax, ebp
  00f15	2b f9		 sub	 edi, ecx
$L89807:
  00f17	8a 08		 mov	 cl, BYTE PTR [eax]
  00f19	88 0c 07	 mov	 BYTE PTR [edi+eax], cl
  00f1c	40		 inc	 eax
  00f1d	3a cb		 cmp	 cl, bl
  00f1f	75 f6		 jne	 SHORT $L89807

; 418  : 	SetFont(m_char_chat_event_pi, lf, RGB(255, 255, 255), 0, TRANSPARENT, TA_LEFT);

  00f21	8d 54 24 28	 lea	 edx, DWORD PTR _lf$[esp+404]
  00f25	52		 push	 edx
  00f26	ff 15 00 00 00
	00		 call	 DWORD PTR __imp__CreateFontIndirectA@4
  00f2c	3b c3		 cmp	 eax, ebx
  00f2e	89 44 24 10	 mov	 DWORD PTR _hfont$89980[esp+404], eax
  00f32	75 12		 jne	 SHORT $L89981
  00f34	6a 5c		 push	 92			; 0000005cH
  00f36	68 00 00 00 00	 push	 OFFSET FLAT:??_C@_0EB@PPOCDDGI@?2darkeden?2Designed_Common?2Projec@
  00f3b	53		 push	 ebx
  00f3c	6a 04		 push	 4
  00f3e	e8 00 00 00 00	 call	 ?g_BasicException@@YAXW4EXCEPTION_CODE@@PAD1K@Z ; g_BasicException
  00f43	83 c4 10	 add	 esp, 16			; 00000010H
$L89981:
  00f46	8b 44 24 10	 mov	 eax, DWORD PTR _hfont$89980[esp+404]

; 419  : 
; 420  : #if __CONTENTS(__TITLE_UI_RENWEAL)
; 421  : 	SetDefaultLogfont(lf);

  00f4a	8d 4c 24 28	 lea	 ecx, DWORD PTR _lf$[esp+404]
  00f4e	51		 push	 ecx
  00f4f	8b ce		 mov	 ecx, esi
  00f51	89 86 44 01 00
	00		 mov	 DWORD PTR [esi+324], eax
  00f57	c7 86 48 01 00
	00 ff ff ff 00	 mov	 DWORD PTR [esi+328], 16777215 ; 00ffffffH
  00f61	89 9e 4c 01 00
	00		 mov	 DWORD PTR [esi+332], ebx
  00f67	c7 86 50 01 00
	00 01 00 00 00	 mov	 DWORD PTR [esi+336], 1
  00f71	89 9e 54 01 00
	00		 mov	 DWORD PTR [esi+340], ebx
  00f77	e8 00 00 00 00	 call	 ?SetDefaultLogfont@Base@@ABEXAAUtagLOGFONTA@@@Z ; Base::SetDefaultLogfont

; 422  : 	lf.lfHeight = 12 + local_font_size;

  00f7c	c7 44 24 28 0c
	00 00 00	 mov	 DWORD PTR _lf$[esp+404], 12 ; 0000000cH

; 423  : //	lf.lfWeight = FW_BOLD;
; 424  : 	strcpy(lf.lfFaceName, szFontName[4][Language]);

  00f84	8b c5		 mov	 eax, ebp
$L89808:
  00f86	8a 08		 mov	 cl, BYTE PTR [eax]
  00f88	88 0c 07	 mov	 BYTE PTR [edi+eax], cl
  00f8b	40		 inc	 eax
  00f8c	3a cb		 cmp	 cl, bl
  00f8e	75 f6		 jne	 SHORT $L89808

; 425  : 	SetFont(m_title_menu_pi, lf, RGB(255, 255, 255), 0, TRANSPARENT, TA_LEFT);

  00f90	8d 54 24 28	 lea	 edx, DWORD PTR _lf$[esp+404]
  00f94	52		 push	 edx
  00f95	ff 15 00 00 00
	00		 call	 DWORD PTR __imp__CreateFontIndirectA@4
  00f9b	8b f8		 mov	 edi, eax
  00f9d	3b fb		 cmp	 edi, ebx
  00f9f	75 12		 jne	 SHORT $L90027
  00fa1	6a 5c		 push	 92			; 0000005cH
  00fa3	68 00 00 00 00	 push	 OFFSET FLAT:??_C@_0EB@PPOCDDGI@?2darkeden?2Designed_Common?2Projec@
  00fa8	53		 push	 ebx
  00fa9	6a 04		 push	 4
  00fab	e8 00 00 00 00	 call	 ?g_BasicException@@YAXW4EXCEPTION_CODE@@PAD1K@Z ; g_BasicException
  00fb0	83 c4 10	 add	 esp, 16			; 00000010H
$L90027:

; 426  : #endif // __TITLE_UI_RENWEAL
; 427  : 
; 428  : 
; 429  : 	SetDefaultLogfont(lf); //by larosel

  00fb3	8d 44 24 28	 lea	 eax, DWORD PTR _lf$[esp+404]
  00fb7	bd 01 00 00 00	 mov	 ebp, 1
  00fbc	50		 push	 eax
  00fbd	8b ce		 mov	 ecx, esi
  00fbf	89 be 60 02 00
	00		 mov	 DWORD PTR [esi+608], edi
  00fc5	c7 86 64 02 00
	00 ff ff ff 00	 mov	 DWORD PTR [esi+612], 16777215 ; 00ffffffH
  00fcf	89 9e 68 02 00
	00		 mov	 DWORD PTR [esi+616], ebx
  00fd5	89 ae 6c 02 00
	00		 mov	 DWORD PTR [esi+620], ebp
  00fdb	89 9e 70 02 00
	00		 mov	 DWORD PTR [esi+624], ebx
  00fe1	e8 00 00 00 00	 call	 ?SetDefaultLogfont@Base@@ABEXAAUtagLOGFONTA@@@Z ; Base::SetDefaultLogfont

; 430  : 	lf.lfHeight = 14 + local_font_size;
; 431  : 	strcpy(lf.lfFaceName, szFontName[0][Language]);

  00fe6	8b 44 24 14	 mov	 eax, DWORD PTR tv1133[esp+404]
  00fea	8b 54 24 24	 mov	 edx, DWORD PTR tv2282[esp+404]
  00fee	c7 44 24 28 0e
	00 00 00	 mov	 DWORD PTR _lf$[esp+404], 14 ; 0000000eH
$L89809:
  00ff6	8a 08		 mov	 cl, BYTE PTR [eax]
  00ff8	88 0c 10	 mov	 BYTE PTR [eax+edx], cl
  00ffb	40		 inc	 eax
  00ffc	3a cb		 cmp	 cl, bl
  00ffe	75 f6		 jne	 SHORT $L89809

; 432  : 	SetFont(m_gearinfo_pi, lf, RGB(20, 70, 0));

  01000	8d 4c 24 28	 lea	 ecx, DWORD PTR _lf$[esp+404]
  01004	51		 push	 ecx
  01005	ff 15 00 00 00
	00		 call	 DWORD PTR __imp__CreateFontIndirectA@4
  0100b	8b f8		 mov	 edi, eax
  0100d	3b fb		 cmp	 edi, ebx
  0100f	75 12		 jne	 SHORT $L89995
  01011	6a 5c		 push	 92			; 0000005cH
  01013	68 00 00 00 00	 push	 OFFSET FLAT:??_C@_0EB@PPOCDDGI@?2darkeden?2Designed_Common?2Projec@
  01018	53		 push	 ebx
  01019	6a 04		 push	 4
  0101b	e8 00 00 00 00	 call	 ?g_BasicException@@YAXW4EXCEPTION_CODE@@PAD1K@Z ; g_BasicException
  01020	83 c4 10	 add	 esp, 16			; 00000010H
$L89995:

; 433  : }

  01023	8b 8c 24 90 01
	00 00		 mov	 ecx, DWORD PTR __$ArrayPad$[esp+404]
  0102a	89 be 34 02 00
	00		 mov	 DWORD PTR [esi+564], edi
  01030	5f		 pop	 edi
  01031	89 9e 3c 02 00
	00		 mov	 DWORD PTR [esi+572], ebx
  01037	89 ae 40 02 00
	00		 mov	 DWORD PTR [esi+576], ebp
  0103d	89 9e 44 02 00
	00		 mov	 DWORD PTR [esi+580], ebx
  01043	c7 86 38 02 00
	00 14 46 00 00	 mov	 DWORD PTR [esi+568], 17940 ; 00004614H
  0104d	5e		 pop	 esi
  0104e	5d		 pop	 ebp
  0104f	5b		 pop	 ebx
  01050	e8 00 00 00 00	 call	 @__security_check_cookie@4
  01055	81 c4 84 01 00
	00		 add	 esp, 388		; 00000184H
  0105b	c3		 ret	 0
?InitFont@Base@@AAEXXZ ENDP				; Base::InitFont
_TEXT	ENDS
PUBLIC	?InitSurface@Base@@AAEXPAVCSpriteSurface@@@Z	; Base::InitSurface
EXTRN	?g_pUserInformation@@3PAVUserInformation@@A:DWORD ; g_pUserInformation
EXTRN	?g_SetFL2Surface@@YAXPAUIDirectDrawSurface7@@@Z:NEAR ; g_SetFL2Surface
EXTRN	?InitOffsurface@CDirectDrawSurface@@QAE_NHHK@Z:NEAR ; CDirectDrawSurface::InitOffsurface
EXTRN	?SetTransparency@CDirectDrawSurface@@QAEXK@Z:NEAR ; CDirectDrawSurface::SetTransparency
; Function compile flags: /Ogty
;	COMDAT ?InitSurface@Base@@AAEXPAVCSpriteSurface@@@Z
_TEXT	SEGMENT
_surface$ = 8						; size = 4
?InitSurface@Base@@AAEXPAVCSpriteSurface@@@Z PROC NEAR	; Base::InitSurface, COMDAT
; _this$ = ecx

; 442  : 	assert(surface);
; 443  : 
; 444  : 	m_p_DDSurface_back = surface;

  00000	8b 44 24 04	 mov	 eax, DWORD PTR _surface$[esp-4]
  00004	56		 push	 esi
  00005	8b f1		 mov	 esi, ecx
  00007	57		 push	 edi
  00008	89 46 04	 mov	 DWORD PTR [esi+4], eax

; 445  : 
; 446  : 	//g_pUserInformation->IsResolution1024
; 447  : 
; 448  : 
; 449  : 	bool ret = m_DDSurface_offscreen.InitOffsurface(g_pUserInformation->iResolution_x, g_pUserInformation->iResolution_y, DDSCAPS_SYSTEMMEMORY);

  0000b	a1 00 00 00 00	 mov	 eax, DWORD PTR ?g_pUserInformation@@3PAVUserInformation@@A ; g_pUserInformation
  00010	8b 88 50 01 00
	00		 mov	 ecx, DWORD PTR [eax+336]
  00016	8b 90 4c 01 00
	00		 mov	 edx, DWORD PTR [eax+332]
  0001c	68 00 08 00 00	 push	 2048			; 00000800H
  00021	51		 push	 ecx
  00022	8d 7e 08	 lea	 edi, DWORD PTR [esi+8]
  00025	52		 push	 edx
  00026	8b cf		 mov	 ecx, edi
  00028	e8 00 00 00 00	 call	 ?InitOffsurface@CDirectDrawSurface@@QAE_NHHK@Z ; CDirectDrawSurface::InitOffsurface

; 450  : 
; 451  : 	//bool ret = m_DDSurface_offscreen.InitOffsurface(RESOLUTION_X, RESOLUTION_Y, DDSCAPS_SYSTEMMEMORY);
; 452  : 
; 453  : 
; 454  : 	if (!ret)

  0002d	84 c0		 test	 al, al
  0002f	75 16		 jne	 SHORT $L88642

; 455  : 		_Error(FAILED_JOB);

  00031	68 c7 01 00 00	 push	 455			; 000001c7H
  00036	68 00 00 00 00	 push	 OFFSET FLAT:??_C@_0EB@PPOCDDGI@?2darkeden?2Designed_Common?2Projec@
  0003b	6a 00		 push	 0
  0003d	6a 04		 push	 4
  0003f	e8 00 00 00 00	 call	 ?g_BasicException@@YAXW4EXCEPTION_CODE@@PAD1K@Z ; g_BasicException
  00044	83 c4 10	 add	 esp, 16			; 00000010H
$L88642:

; 456  : 
; 457  : 	//
; 458  : 	// offscreen의 colorkey를 설정한다. 상황에 따라서 Image에서 안 쓰는 색을 
; 459  : 	// 결정해야 한다.
; 460  : 	//
; 461  : 	m_colorkey_red = RED;
; 462  : 
; 463  : 	m_DDSurface_offscreen.SetTransparency(m_colorkey_red); // default colorkey = red

  00047	68 00 c0 00 00	 push	 49152			; 0000c000H
  0004c	8b cf		 mov	 ecx, edi
  0004e	c7 46 28 00 c0
	00 00		 mov	 DWORD PTR [esi+40], 49152 ; 0000c000H
  00055	e8 00 00 00 00	 call	 ?SetTransparency@CDirectDrawSurface@@QAEXK@Z ; CDirectDrawSurface::SetTransparency

; 464  : 
; 465  : 	// set Unicorn edit widget surface
; 466  : 	g_SetFL2Surface(m_p_DDSurface_back->GetSurface());

  0005a	8b 46 04	 mov	 eax, DWORD PTR [esi+4]
  0005d	8b 08		 mov	 ecx, DWORD PTR [eax]
  0005f	51		 push	 ecx
  00060	e8 00 00 00 00	 call	 ?g_SetFL2Surface@@YAXPAUIDirectDrawSurface7@@@Z ; g_SetFL2Surface
  00065	83 c4 04	 add	 esp, 4
  00068	5f		 pop	 edi
  00069	5e		 pop	 esi

; 467  : }

  0006a	c2 04 00	 ret	 4
?InitSurface@Base@@AAEXPAVCSpriteSurface@@@Z ENDP	; Base::InitSurface
_TEXT	ENDS
PUBLIC	?DispatchMessageA@Base@@QAEXXZ			; Base::DispatchMessageA
EXTRN	?_DispatchMessage@C_VS_UI_RESULT_RECEIVER@@QAEXXZ:NEAR ; C_VS_UI_RESULT_RECEIVER::_DispatchMessage
; Function compile flags: /Ogty
;	COMDAT ?DispatchMessageA@Base@@QAEXXZ
_TEXT	SEGMENT
?DispatchMessageA@Base@@QAEXXZ PROC NEAR		; Base::DispatchMessageA, COMDAT
; _this$ = ecx

; 476  : 	m_C_ui_result_receiver._DispatchMessage();

  00000	81 c1 74 02 00
	00		 add	 ecx, 628		; 00000274H
  00006	e9 00 00 00 00	 jmp	 ?_DispatchMessage@C_VS_UI_RESULT_RECEIVER@@QAEXXZ ; C_VS_UI_RESULT_RECEIVER::_DispatchMessage
?DispatchMessageA@Base@@QAEXXZ ENDP			; Base::DispatchMessageA
_TEXT	ENDS
PUBLIC	?SendMessageA@Base@@QAEXKHHPAX@Z		; Base::SendMessageA
EXTRN	?_SendMessage@C_VS_UI_RESULT_RECEIVER@@QAEXKHHPAX@Z:NEAR ; C_VS_UI_RESULT_RECEIVER::_SendMessage
; Function compile flags: /Ogty
;	COMDAT ?SendMessageA@Base@@QAEXKHHPAX@Z
_TEXT	SEGMENT
_message$ = 8						; size = 4
_left$ = 12						; size = 4
_right$ = 16						; size = 4
_void_ptr$ = 20						; size = 4
?SendMessageA@Base@@QAEXKHHPAX@Z PROC NEAR		; Base::SendMessageA, COMDAT
; _this$ = ecx

; 486  : 	m_C_ui_result_receiver._SendMessage(message, left, right, void_ptr);

  00000	81 c1 74 02 00
	00		 add	 ecx, 628		; 00000274H
  00006	e9 00 00 00 00	 jmp	 ?_SendMessage@C_VS_UI_RESULT_RECEIVER@@QAEXKHHPAX@Z ; C_VS_UI_RESULT_RECEIVER::_SendMessage
?SendMessageA@Base@@QAEXKHHPAX@Z ENDP			; Base::SendMessageA
_TEXT	ENDS
PUBLIC	?StartEvent@Base@@QAEXXZ			; Base::StartEvent
; Function compile flags: /Ogty
;	COMDAT ?StartEvent@Base@@QAEXXZ
_TEXT	SEGMENT
?StartEvent@Base@@QAEXXZ PROC NEAR			; Base::StartEvent, COMDAT
; _this$ = ecx

; 496  : 	//assert(m_event_occured == false);
; 497  : 
; 498  : 	m_event_occured = true; 

  00000	c6 01 01	 mov	 BYTE PTR [ecx], 1

; 499  : }

  00003	c3		 ret	 0
?StartEvent@Base@@QAEXXZ ENDP				; Base::StartEvent
_TEXT	ENDS
PUBLIC	?FinishEvent@Base@@QAEXXZ			; Base::FinishEvent
; Function compile flags: /Ogty
;	COMDAT ?FinishEvent@Base@@QAEXXZ
_TEXT	SEGMENT
?FinishEvent@Base@@QAEXXZ PROC NEAR			; Base::FinishEvent, COMDAT
; _this$ = ecx

; 508  : 	//assert(m_event_occured == true);
; 509  : 
; 510  : 	m_event_occured = false; 

  00000	c6 01 00	 mov	 BYTE PTR [ecx], 0

; 511  : }

  00003	c3		 ret	 0
?FinishEvent@Base@@QAEXXZ ENDP				; Base::FinishEvent
_TEXT	ENDS
PUBLIC	?Init@Base@@QAEXPAVCSpriteSurface@@P6AXKHHPAX@Z@Z ; Base::Init
EXTRN	?SetResultReceiver@C_VS_UI_RESULT_RECEIVER@@QAEXP6AXKHHPAX@Z@Z:NEAR ; C_VS_UI_RESULT_RECEIVER::SetResultReceiver
EXTRN	?RunCursorBlinker@CI@@QAEXXZ:NEAR		; CI::RunCursorBlinker
; Function compile flags: /Ogty
;	COMDAT ?Init@Base@@QAEXPAVCSpriteSurface@@P6AXKHHPAX@Z@Z
_TEXT	SEGMENT
_surface$ = 8						; size = 4
_fp$ = 12						; size = 4
?Init@Base@@QAEXPAVCSpriteSurface@@P6AXKHHPAX@Z@Z PROC NEAR ; Base::Init, COMDAT
; _this$ = ecx

; 190  : 	InitSurface(surface);

  00000	8b 44 24 04	 mov	 eax, DWORD PTR _surface$[esp-4]
  00004	56		 push	 esi
  00005	50		 push	 eax
  00006	8b f1		 mov	 esi, ecx
  00008	e8 00 00 00 00	 call	 ?InitSurface@Base@@AAEXPAVCSpriteSurface@@@Z ; Base::InitSurface

; 191  : 	InitFont();

  0000d	8b ce		 mov	 ecx, esi
  0000f	e8 00 00 00 00	 call	 ?InitFont@Base@@AAEXXZ	; Base::InitFont

; 192  : 	m_C_ui_result_receiver.SetResultReceiver(fp);

  00014	8b 4c 24 0c	 mov	 ecx, DWORD PTR _fp$[esp]
  00018	51		 push	 ecx
  00019	8d 8e 74 02 00
	00		 lea	 ecx, DWORD PTR [esi+628]
  0001f	e8 00 00 00 00	 call	 ?SetResultReceiver@C_VS_UI_RESULT_RECEIVER@@QAEXP6AXKHHPAX@Z@Z ; C_VS_UI_RESULT_RECEIVER::SetResultReceiver

; 193  : 	gC_ci->RunCursorBlinker();

  00024	8b 0d 00 00 00
	00		 mov	 ecx, DWORD PTR ?gC_ci@@3PAVCI@@A ; gC_ci
  0002a	e8 00 00 00 00	 call	 ?RunCursorBlinker@CI@@QAEXXZ ; CI::RunCursorBlinker
  0002f	5e		 pop	 esi

; 194  : }

  00030	c2 08 00	 ret	 8
?Init@Base@@QAEXPAVCSpriteSurface@@P6AXKHHPAX@Z@Z ENDP	; Base::Init
_TEXT	ENDS
END
