; Listing generated by Microsoft (R) Optimizing Compiler Version 13.10.3077 

	TITLE	\darkeden\Designed_Common\Project\Client\AppendPatchInfo.cpp
	.386P
include listing.inc
if @Version gt 510
.model FLAT
else
_TEXT	SEGMENT PARA USE32 PUBLIC 'CODE'
_TEXT	ENDS
_DATA	SEGMENT DWORD USE32 PUBLIC 'DATA'
_DATA	ENDS
CONST	SEGMENT DWORD USE32 PUBLIC 'CONST'
CONST	ENDS
_BSS	SEGMENT DWORD USE32 PUBLIC 'BSS'
_BSS	ENDS
$$SYMBOLS	SEGMENT BYTE USE32 'DEBSYM'
$$SYMBOLS	ENDS
$$TYPES	SEGMENT BYTE USE32 'DEBTYP'
$$TYPES	ENDS
_TLS	SEGMENT DWORD USE32 PUBLIC 'TLS'
_TLS	ENDS
;	COMDAT ??_C@_0BN@ODLNCKCA@Data?2?2Info?2?2ClientConfig?4inf?$AA@
CONST	SEGMENT DWORD USE32 PUBLIC 'CONST'
CONST	ENDS
;	COMDAT ??_C@_0BM@DFPLPGPC@Data?2?2Info?2?2GuildMapper?4inf?$AA@
CONST	SEGMENT DWORD USE32 PUBLIC 'CONST'
CONST	ENDS
;	COMDAT ??_C@_0BN@LHODHNBK@Data?2?2Info?2?2GuildVersion?4inf?$AA@
CONST	SEGMENT DWORD USE32 PUBLIC 'CONST'
CONST	ENDS
;	COMDAT ??_C@_0BH@DDPLNCOL@Data?2?2Info?2?2Player?4inf?$AA@
CONST	SEGMENT DWORD USE32 PUBLIC 'CONST'
CONST	ENDS
;	COMDAT ??_C@_0BL@ILLNAPHB@Data?2?2Info?2?2Resolution?4inf?$AA@
CONST	SEGMENT DWORD USE32 PUBLIC 'CONST'
CONST	ENDS
;	COMDAT ??_C@_0CA@HEIGFDLG@Data?2?2Info?2?2SelectedChannel?4inf?$AA@
CONST	SEGMENT DWORD USE32 PUBLIC 'CONST'
CONST	ENDS
;	COMDAT ??_C@_0N@GOPDCEEB@basic_string?$AA@
CONST	SEGMENT DWORD USE32 PUBLIC 'CONST'
CONST	ENDS
rdata$r	SEGMENT DWORD USE32 PUBLIC 'CONST'
rdata$r	ENDS
text$yc	SEGMENT PARA USE32 PUBLIC 'CODE'
text$yc	ENDS
CRT$XCA	SEGMENT DWORD USE32 PUBLIC 'DATA'
CRT$XCA	ENDS
CRT$XCU	SEGMENT DWORD USE32 PUBLIC 'DATA'
CRT$XCU	ENDS
CRT$XCL	SEGMENT DWORD USE32 PUBLIC 'DATA'
CRT$XCL	ENDS
CRT$XCC	SEGMENT DWORD USE32 PUBLIC 'DATA'
CRT$XCC	ENDS
CRT$XCZ	SEGMENT DWORD USE32 PUBLIC 'DATA'
CRT$XCZ	ENDS
text$yd	SEGMENT PARA USE32 PUBLIC 'CODE'
text$yd	ENDS
;	COMDAT ?start@CNFS@@QAE_NPADH@Z
_TEXT	SEGMENT PARA USE32 PUBLIC 'CODE'
_TEXT	ENDS
;	COMDAT ?end@CNFS@@QAEXXZ
_TEXT	SEGMENT PARA USE32 PUBLIC 'CODE'
_TEXT	ENDS
;	COMDAT ?Init@VirtualFileHeader@@QAEXXZ
_TEXT	SEGMENT PARA USE32 PUBLIC 'CODE'
_TEXT	ENDS
;	COMDAT ??1IFileIO@@UAE@XZ
_TEXT	SEGMENT PARA USE32 PUBLIC 'CODE'
_TEXT	ENDS
;	COMDAT ??_GIFileIO@@UAEPAXI@Z
_TEXT	SEGMENT PARA USE32 PUBLIC 'CODE'
_TEXT	ENDS
;	COMDAT ??0iovfs_base@@QAE@XZ
_TEXT	SEGMENT PARA USE32 PUBLIC 'CODE'
_TEXT	ENDS
;	COMDAT ??_Giovfs_base@@UAEPAXI@Z
_TEXT	SEGMENT PARA USE32 PUBLIC 'CODE'
_TEXT	ENDS
;	COMDAT ??1iovfs_base@@UAE@XZ
_TEXT	SEGMENT PARA USE32 PUBLIC 'CODE'
_TEXT	ENDS
;	COMDAT ?Init@iovfs_base@@QAEXXZ
_TEXT	SEGMENT PARA USE32 PUBLIC 'CODE'
_TEXT	ENDS
;	COMDAT ??_Givfstream@@UAEPAXI@Z
_TEXT	SEGMENT PARA USE32 PUBLIC 'CODE'
_TEXT	ENDS
;	COMDAT ??1ivfstream@@UAE@XZ
_TEXT	SEGMENT PARA USE32 PUBLIC 'CODE'
_TEXT	ENDS
;	COMDAT ?open@ivfstream@@UAEXPBDH@Z
_TEXT	SEGMENT PARA USE32 PUBLIC 'CODE'
_TEXT	ENDS
;	COMDAT ?read@ivfstream@@QAEXPADI@Z
_TEXT	SEGMENT PARA USE32 PUBLIC 'CODE'
_TEXT	ENDS
;	COMDAT ??_Govfstream@@UAEPAXI@Z
_TEXT	SEGMENT PARA USE32 PUBLIC 'CODE'
_TEXT	ENDS
;	COMDAT ??1ovfstream@@UAE@XZ
_TEXT	SEGMENT PARA USE32 PUBLIC 'CODE'
_TEXT	ENDS
;	COMDAT ?open@ovfstream@@UAEXPBDH@Z
_TEXT	SEGMENT PARA USE32 PUBLIC 'CODE'
_TEXT	ENDS
;	COMDAT ?GetString@MString@@QBEPADXZ
_TEXT	SEGMENT PARA USE32 PUBLIC 'CODE'
_TEXT	ENDS
;	COMDAT ?GetSize@AppendPatch@@QBEHXZ
_TEXT	SEGMENT PARA USE32 PUBLIC 'CODE'
_TEXT	ENDS
;	COMDAT ?Append@APPEND_PATCH_NODE@@QBE_NPBD@Z
_TEXT	SEGMENT PARA USE32 PUBLIC 'CODE'
_TEXT	ENDS
;	COMDAT ?SaveToFile@APPEND_PATCH_NODE@@QAEXAAV?$basic_ofstream@DV?$char_traits@D@_STL@@@_STL@@@Z
_TEXT	SEGMENT PARA USE32 PUBLIC 'CODE'
_TEXT	ENDS
;	COMDAT ?LoadFromFile@APPEND_PATCH_NODE@@QAEXAAVivfstream@@@Z
_TEXT	SEGMENT PARA USE32 PUBLIC 'CODE'
_TEXT	ENDS
;	COMDAT ??0AppendPatch@@QAE@XZ
_TEXT	SEGMENT PARA USE32 PUBLIC 'CODE'
_TEXT	ENDS
;	COMDAT ??1AppendPatch@@QAE@XZ
_TEXT	SEGMENT PARA USE32 PUBLIC 'CODE'
_TEXT	ENDS
;	COMDAT ?Release@AppendPatch@@QAEXXZ
_TEXT	SEGMENT PARA USE32 PUBLIC 'CODE'
_TEXT	ENDS
;	COMDAT ??_GAPPEND_PATCH_NODE@@QAEPAXI@Z
_TEXT	SEGMENT PARA USE32 PUBLIC 'CODE'
_TEXT	ENDS
;	COMDAT ??1APPEND_PATCH_NODE@@QAE@XZ
_TEXT	SEGMENT PARA USE32 PUBLIC 'CODE'
_TEXT	ENDS
;	COMDAT ?SetOriginalInfo@AppendPatch@@QAEXPBDJG@Z
_TEXT	SEGMENT PARA USE32 PUBLIC 'CODE'
_TEXT	ENDS
;	COMDAT ?SetFinalInfo@AppendPatch@@QAEXJG@Z
_TEXT	SEGMENT PARA USE32 PUBLIC 'CODE'
_TEXT	ENDS
;	COMDAT ?SetFinalInfo@AppendPatch@@QAE_NPBD@Z
_TEXT	SEGMENT PARA USE32 PUBLIC 'CODE'
_TEXT	ENDS
;	COMDAT ??_D?$basic_ifstream@DV?$char_traits@D@_STL@@@_STL@@QAEXXZ
_TEXT	SEGMENT PARA USE32 PUBLIC 'CODE'
_TEXT	ENDS
;	COMDAT ?AddAppendInfo@AppendPatch@@QAEXPBDJG@Z
_TEXT	SEGMENT PARA USE32 PUBLIC 'CODE'
_TEXT	ENDS
;	COMDAT ??0APPEND_PATCH_NODE@@QAE@XZ
_TEXT	SEGMENT PARA USE32 PUBLIC 'CODE'
_TEXT	ENDS
;	COMDAT ?AddAppendInfo@AppendPatch@@QAE_NPBD@Z
_TEXT	SEGMENT PARA USE32 PUBLIC 'CODE'
_TEXT	ENDS
;	COMDAT ?ExecutePatch@AppendPatch@@QBE_NXZ
_TEXT	SEGMENT PARA USE32 PUBLIC 'CODE'
_TEXT	ENDS
;	COMDAT ?CheckFinalInfo@AppendPatch@@QBE_NXZ
_TEXT	SEGMENT PARA USE32 PUBLIC 'CODE'
_TEXT	ENDS
;	COMDAT ?CalculateFinalInfo@AppendPatch@@QBE_NXZ
_TEXT	SEGMENT PARA USE32 PUBLIC 'CODE'
_TEXT	ENDS
;	COMDAT ?SaveToFile@AppendPatch@@QAEXAAV?$basic_ofstream@DV?$char_traits@D@_STL@@@_STL@@@Z
_TEXT	SEGMENT PARA USE32 PUBLIC 'CODE'
_TEXT	ENDS
;	COMDAT ?LoadFromFile@AppendPatch@@QAEXAAVivfstream@@@Z
_TEXT	SEGMENT PARA USE32 PUBLIC 'CODE'
_TEXT	ENDS
;	COMDAT ?GetAllSize@AppendPatchTable@@QBEHXZ
_TEXT	SEGMENT PARA USE32 PUBLIC 'CODE'
_TEXT	ENDS
;	COMDAT ?eq@?$__char_traits_base@DH@_STL@@SA_NABD0@Z
_TEXT	SEGMENT PARA USE32 PUBLIC 'CODE'
_TEXT	ENDS
;	COMDAT ?not_eof@?$__char_traits_base@DH@_STL@@SAHABH@Z
_TEXT	SEGMENT PARA USE32 PUBLIC 'CODE'
_TEXT	ENDS
;	COMDAT ?eq_int_type@?$__char_traits_base@DH@_STL@@SA_NABH0@Z
_TEXT	SEGMENT PARA USE32 PUBLIC 'CODE'
_TEXT	ENDS
;	COMDAT ?get_allocator@?$basic_string@DV?$char_traits@D@_STL@@V?$allocator@D@2@@_STL@@QBE?AV?$allocator@D@2@XZ
_TEXT	SEGMENT PARA USE32 PUBLIC 'CODE'
_TEXT	ENDS
;	COMDAT ??4?$basic_string@DV?$char_traits@D@_STL@@V?$allocator@D@2@@_STL@@QAEAAV01@PBD@Z
_TEXT	SEGMENT PARA USE32 PUBLIC 'CODE'
_TEXT	ENDS
;	COMDAT ?_M_terminate_string@?$basic_string@DV?$char_traits@D@_STL@@V?$allocator@D@2@@_STL@@AAEXXZ
_TEXT	SEGMENT PARA USE32 PUBLIC 'CODE'
_TEXT	ENDS
;	COMDAT ??0?$_String_base@DV?$allocator@D@_STL@@@_STL@@QAE@ABV?$allocator@D@1@@Z
_TEXT	SEGMENT PARA USE32 PUBLIC 'CODE'
_TEXT	ENDS
;	COMDAT ?allocate@?$allocator@D@_STL@@QAEPADIPBX@Z
_TEXT	SEGMENT PARA USE32 PUBLIC 'CODE'
_TEXT	ENDS
;	COMDAT ??0?$fpos@H@_STL@@QAE@J@Z
_TEXT	SEGMENT PARA USE32 PUBLIC 'CODE'
_TEXT	ENDS
;	COMDAT ??B?$fpos@H@_STL@@QBEJXZ
_TEXT	SEGMENT PARA USE32 PUBLIC 'CODE'
_TEXT	ENDS
;	COMDAT ?state@?$fpos@H@_STL@@QBEHXZ
_TEXT	SEGMENT PARA USE32 PUBLIC 'CODE'
_TEXT	ENDS
;	COMDAT ?is_open@?$basic_filebuf@DV?$char_traits@D@_STL@@@_STL@@QBE_NXZ
_TEXT	SEGMENT PARA USE32 PUBLIC 'CODE'
_TEXT	ENDS
;	COMDAT ?_M_seek_return@?$basic_filebuf@DV?$char_traits@D@_STL@@@_STL@@AAE?AV?$fpos@H@2@JH@Z
_TEXT	SEGMENT PARA USE32 PUBLIC 'CODE'
_TEXT	ENDS
;	COMDAT ??0?$_Filebuf_Tmp_Buf@D@_STL@@QAE@H@Z
_TEXT	SEGMENT PARA USE32 PUBLIC 'CODE'
_TEXT	ENDS
;	COMDAT ??1?$_Filebuf_Tmp_Buf@D@_STL@@QAE@XZ
_TEXT	SEGMENT PARA USE32 PUBLIC 'CODE'
_TEXT	ENDS
;	COMDAT ?begin@?$vector@PAVAPPEND_PATCH_NODE@@V?$allocator@PAVAPPEND_PATCH_NODE@@@_STL@@@_STL@@QAEPAPAVAPPEND_PATCH_NODE@@XZ
_TEXT	SEGMENT PARA USE32 PUBLIC 'CODE'
_TEXT	ENDS
;	COMDAT ?begin@?$vector@PAVAPPEND_PATCH_NODE@@V?$allocator@PAVAPPEND_PATCH_NODE@@@_STL@@@_STL@@QBEPBQAVAPPEND_PATCH_NODE@@XZ
_TEXT	SEGMENT PARA USE32 PUBLIC 'CODE'
_TEXT	ENDS
;	COMDAT ?end@?$vector@PAVAPPEND_PATCH_NODE@@V?$allocator@PAVAPPEND_PATCH_NODE@@@_STL@@@_STL@@QAEPAPAVAPPEND_PATCH_NODE@@XZ
_TEXT	SEGMENT PARA USE32 PUBLIC 'CODE'
_TEXT	ENDS
;	COMDAT ?end@?$vector@PAVAPPEND_PATCH_NODE@@V?$allocator@PAVAPPEND_PATCH_NODE@@@_STL@@@_STL@@QBEPBQAVAPPEND_PATCH_NODE@@XZ
_TEXT	SEGMENT PARA USE32 PUBLIC 'CODE'
_TEXT	ENDS
;	COMDAT ?size@?$vector@PAVAPPEND_PATCH_NODE@@V?$allocator@PAVAPPEND_PATCH_NODE@@@_STL@@@_STL@@QBEIXZ
_TEXT	SEGMENT PARA USE32 PUBLIC 'CODE'
_TEXT	ENDS
;	COMDAT ?back@?$vector@PAVAPPEND_PATCH_NODE@@V?$allocator@PAVAPPEND_PATCH_NODE@@@_STL@@@_STL@@QAEAAPAVAPPEND_PATCH_NODE@@XZ
_TEXT	SEGMENT PARA USE32 PUBLIC 'CODE'
_TEXT	ENDS
;	COMDAT ??0?$vector@PAVAPPEND_PATCH_NODE@@V?$allocator@PAVAPPEND_PATCH_NODE@@@_STL@@@_STL@@QAE@ABV?$allocator@PAVAPPEND_PATCH_NODE@@@1@@Z
_TEXT	SEGMENT PARA USE32 PUBLIC 'CODE'
_TEXT	ENDS
;	COMDAT ??0?$vector@PAVAPPEND_PATCH_NODE@@V?$allocator@PAVAPPEND_PATCH_NODE@@@_STL@@@_STL@@QAE@ABV01@@Z
_TEXT	SEGMENT PARA USE32 PUBLIC 'CODE'
_TEXT	ENDS
;	COMDAT ??1?$vector@PAVAPPEND_PATCH_NODE@@V?$allocator@PAVAPPEND_PATCH_NODE@@@_STL@@@_STL@@QAE@XZ
_TEXT	SEGMENT PARA USE32 PUBLIC 'CODE'
_TEXT	ENDS
;	COMDAT ?push_back@?$vector@PAVAPPEND_PATCH_NODE@@V?$allocator@PAVAPPEND_PATCH_NODE@@@_STL@@@_STL@@QAEXABQAVAPPEND_PATCH_NODE@@@Z
_TEXT	SEGMENT PARA USE32 PUBLIC 'CODE'
_TEXT	ENDS
;	COMDAT ?clear@?$vector@PAVAPPEND_PATCH_NODE@@V?$allocator@PAVAPPEND_PATCH_NODE@@@_STL@@@_STL@@QAEXXZ
_TEXT	SEGMENT PARA USE32 PUBLIC 'CODE'
_TEXT	ENDS
;	COMDAT ??0?$allocator@PAVAPPEND_PATCH_NODE@@@_STL@@QAE@XZ
_TEXT	SEGMENT PARA USE32 PUBLIC 'CODE'
_TEXT	ENDS
;	COMDAT ??1?$allocator@PAVAPPEND_PATCH_NODE@@@_STL@@QAE@XZ
_TEXT	SEGMENT PARA USE32 PUBLIC 'CODE'
_TEXT	ENDS
;	COMDAT ??1?$basic_ofstream@DV?$char_traits@D@_STL@@@_STL@@UAE@XZ
_TEXT	SEGMENT PARA USE32 PUBLIC 'CODE'
_TEXT	ENDS
;	COMDAT ??0?$basic_ifstream@DV?$char_traits@D@_STL@@@_STL@@QAE@PBDH@Z
_TEXT	SEGMENT PARA USE32 PUBLIC 'CODE'
_TEXT	ENDS
;	COMDAT ??1?$basic_ifstream@DV?$char_traits@D@_STL@@@_STL@@UAE@XZ
_TEXT	SEGMENT PARA USE32 PUBLIC 'CODE'
_TEXT	ENDS
;	COMDAT ?is_open@?$basic_ifstream@DV?$char_traits@D@_STL@@@_STL@@QAE_NXZ
_TEXT	SEGMENT PARA USE32 PUBLIC 'CODE'
_TEXT	ENDS
;	COMDAT ?close@?$basic_ifstream@DV?$char_traits@D@_STL@@@_STL@@QAEXXZ
_TEXT	SEGMENT PARA USE32 PUBLIC 'CODE'
_TEXT	ENDS
;	COMDAT ??_G?$basic_ofstream@DV?$char_traits@D@_STL@@@_STL@@UAEPAXI@Z
_TEXT	SEGMENT PARA USE32 PUBLIC 'CODE'
_TEXT	ENDS
;	COMDAT ??_G?$basic_ifstream@DV?$char_traits@D@_STL@@@_STL@@UAEPAXI@Z
_TEXT	SEGMENT PARA USE32 PUBLIC 'CODE'
_TEXT	ENDS
;	COMDAT ??_D?$basic_ofstream@DV?$char_traits@D@_STL@@@_STL@@QAEXXZ
_TEXT	SEGMENT PARA USE32 PUBLIC 'CODE'
_TEXT	ENDS
;	COMDAT ?_M_terminate_string_aux@?$basic_string@DV?$char_traits@D@_STL@@V?$allocator@D@2@@_STL@@AAEXABU__true_type@2@@Z
_TEXT	SEGMENT PARA USE32 PUBLIC 'CODE'
_TEXT	ENDS
;	COMDAT ?assign@?$basic_string@DV?$char_traits@D@_STL@@V?$allocator@D@2@@_STL@@QAEAAV12@PBD0@Z
_TEXT	SEGMENT PARA USE32 PUBLIC 'CODE'
_TEXT	ENDS
;	COMDAT ??0?$allocator@D@_STL@@QAE@ABV01@@Z
_TEXT	SEGMENT PARA USE32 PUBLIC 'CODE'
_TEXT	ENDS
;	COMDAT ??0?$_STLP_alloc_proxy@PADDV?$allocator@D@_STL@@@_STL@@QAE@ABV?$allocator@D@1@PAD@Z
_TEXT	SEGMENT PARA USE32 PUBLIC 'CODE'
_TEXT	ENDS
;	COMDAT ?state@?$fpos@H@_STL@@QAEXH@Z
_TEXT	SEGMENT PARA USE32 PUBLIC 'CODE'
_TEXT	ENDS
;	COMDAT ??0?$basic_istream@DV?$char_traits@D@_STL@@@_STL@@QAE@PAV?$basic_streambuf@DV?$char_traits@D@_STL@@@1@@Z
_TEXT	SEGMENT PARA USE32 PUBLIC 'CODE'
_TEXT	ENDS
;	COMDAT ?setstate@?$basic_ios@DV?$char_traits@D@_STL@@@_STL@@QAEXH@Z
_TEXT	SEGMENT PARA USE32 PUBLIC 'CODE'
_TEXT	ENDS
;	COMDAT ?open@?$basic_filebuf@DV?$char_traits@D@_STL@@@_STL@@QAEPAV12@PBDH@Z
_TEXT	SEGMENT PARA USE32 PUBLIC 'CODE'
_TEXT	ENDS
;	COMDAT ?get_allocator@?$vector@PAVAPPEND_PATCH_NODE@@V?$allocator@PAVAPPEND_PATCH_NODE@@@_STL@@@_STL@@QBE?AV?$allocator@PAVAPPEND_PATCH_NODE@@@2@XZ
_TEXT	SEGMENT PARA USE32 PUBLIC 'CODE'
_TEXT	ENDS
;	COMDAT ?_M_insert_overflow@?$vector@PAVAPPEND_PATCH_NODE@@V?$allocator@PAVAPPEND_PATCH_NODE@@@_STL@@@_STL@@IAEXPAPAVAPPEND_PATCH_NODE@@ABQAV3@ABU__true_type@2@I_N@Z
_TEXT	SEGMENT PARA USE32 PUBLIC 'CODE'
_TEXT	ENDS
;	COMDAT ?erase@?$vector@PAVAPPEND_PATCH_NODE@@V?$allocator@PAVAPPEND_PATCH_NODE@@@_STL@@@_STL@@QAEPAPAVAPPEND_PATCH_NODE@@PAPAV3@0@Z
_TEXT	SEGMENT PARA USE32 PUBLIC 'CODE'
_TEXT	ENDS
;	COMDAT ??0?$_Vector_base@PAVAPPEND_PATCH_NODE@@V?$allocator@PAVAPPEND_PATCH_NODE@@@_STL@@@_STL@@QAE@ABV?$allocator@PAVAPPEND_PATCH_NODE@@@1@@Z
_TEXT	SEGMENT PARA USE32 PUBLIC 'CODE'
_TEXT	ENDS
;	COMDAT ??0?$_Vector_base@PAVAPPEND_PATCH_NODE@@V?$allocator@PAVAPPEND_PATCH_NODE@@@_STL@@@_STL@@QAE@IABV?$allocator@PAVAPPEND_PATCH_NODE@@@1@@Z
_TEXT	SEGMENT PARA USE32 PUBLIC 'CODE'
_TEXT	ENDS
;	COMDAT ??1?$_Vector_base@PAVAPPEND_PATCH_NODE@@V?$allocator@PAVAPPEND_PATCH_NODE@@@_STL@@@_STL@@QAE@XZ
_TEXT	SEGMENT PARA USE32 PUBLIC 'CODE'
_TEXT	ENDS
;	COMDAT ?rdbuf@?$basic_ifstream@DV?$char_traits@D@_STL@@@_STL@@QBEPAV?$basic_filebuf@DV?$char_traits@D@_STL@@@2@XZ
_TEXT	SEGMENT PARA USE32 PUBLIC 'CODE'
_TEXT	ENDS
;	COMDAT ??1?$_STLP_alloc_proxy@PAPAVAPPEND_PATCH_NODE@@PAV1@V?$allocator@PAVAPPEND_PATCH_NODE@@@_STL@@@_STL@@QAE@XZ
_TEXT	SEGMENT PARA USE32 PUBLIC 'CODE'
_TEXT	ENDS
;	COMDAT ?copy@?$__char_traits_base@DH@_STL@@SAPADPADPBDI@Z
_TEXT	SEGMENT PARA USE32 PUBLIC 'CODE'
_TEXT	ENDS
;	COMDAT ?begin@?$basic_string@DV?$char_traits@D@_STL@@V?$allocator@D@2@@_STL@@QAEPADXZ
_TEXT	SEGMENT PARA USE32 PUBLIC 'CODE'
_TEXT	ENDS
;	COMDAT ?end@?$basic_string@DV?$char_traits@D@_STL@@V?$allocator@D@2@@_STL@@QAEPADXZ
_TEXT	SEGMENT PARA USE32 PUBLIC 'CODE'
_TEXT	ENDS
;	COMDAT ?size@?$basic_string@DV?$char_traits@D@_STL@@V?$allocator@D@2@@_STL@@QBEIXZ
_TEXT	SEGMENT PARA USE32 PUBLIC 'CODE'
_TEXT	ENDS
;	COMDAT ?erase@?$basic_string@DV?$char_traits@D@_STL@@V?$allocator@D@2@@_STL@@QAEPADPAD0@Z
_TEXT	SEGMENT PARA USE32 PUBLIC 'CODE'
_TEXT	ENDS
;	COMDAT ?clear@?$basic_ios@DV?$char_traits@D@_STL@@@_STL@@QAEXH@Z
_TEXT	SEGMENT PARA USE32 PUBLIC 'CODE'
_TEXT	ENDS
;	COMDAT ?_M_clear@?$vector@PAVAPPEND_PATCH_NODE@@V?$allocator@PAVAPPEND_PATCH_NODE@@@_STL@@@_STL@@IAEXXZ
_TEXT	SEGMENT PARA USE32 PUBLIC 'CODE'
_TEXT	ENDS
;	COMDAT ?_M_set@?$vector@PAVAPPEND_PATCH_NODE@@V?$allocator@PAVAPPEND_PATCH_NODE@@@_STL@@@_STL@@IAEXPAPAVAPPEND_PATCH_NODE@@00@Z
_TEXT	SEGMENT PARA USE32 PUBLIC 'CODE'
_TEXT	ENDS
;	COMDAT ??0?$allocator@PAVAPPEND_PATCH_NODE@@@_STL@@QAE@ABV01@@Z
_TEXT	SEGMENT PARA USE32 PUBLIC 'CODE'
_TEXT	ENDS
;	COMDAT ?allocate@?$allocator@PAVAPPEND_PATCH_NODE@@@_STL@@QAEPAPAVAPPEND_PATCH_NODE@@IPBX@Z
_TEXT	SEGMENT PARA USE32 PUBLIC 'CODE'
_TEXT	ENDS
;	COMDAT ?deallocate@?$allocator@PAVAPPEND_PATCH_NODE@@@_STL@@QAEXPAPAVAPPEND_PATCH_NODE@@I@Z
_TEXT	SEGMENT PARA USE32 PUBLIC 'CODE'
_TEXT	ENDS
;	COMDAT ??0?$_STLP_alloc_proxy@PAPAVAPPEND_PATCH_NODE@@PAV1@V?$allocator@PAVAPPEND_PATCH_NODE@@@_STL@@@_STL@@QAE@ABV?$allocator@PAVAPPEND_PATCH_NODE@@@1@PAPAVAPPEND_PATCH_NODE@@@Z
_TEXT	SEGMENT PARA USE32 PUBLIC 'CODE'
_TEXT	ENDS
;	COMDAT ?move@?$__char_traits_base@DH@_STL@@SAPADPADPBDI@Z
_TEXT	SEGMENT PARA USE32 PUBLIC 'CODE'
_TEXT	ENDS
;	COMDAT ?rdbuf@?$basic_ios@DV?$char_traits@D@_STL@@@_STL@@QBEPAV?$basic_streambuf@DV?$char_traits@D@_STL@@@2@XZ
_TEXT	SEGMENT PARA USE32 PUBLIC 'CODE'
_TEXT	ENDS
;	COMDAT ??$_M_range_initialize@PBD@?$basic_string@DV?$char_traits@D@_STL@@V?$allocator@D@2@@_STL@@AAEXPBD0@Z
_TEXT	SEGMENT PARA USE32 PUBLIC 'CODE'
_TEXT	ENDS
;	COMDAT ??$_M_range_initialize@PAD@?$basic_string@DV?$char_traits@D@_STL@@V?$allocator@D@2@@_STL@@AAEXPAD0@Z
_TEXT	SEGMENT PARA USE32 PUBLIC 'CODE'
_TEXT	ENDS
;	COMDAT ?write@?$basic_ostream@DV?$char_traits@D@_STL@@@_STL@@QAEAAV12@PBDH@Z
_TEXT	SEGMENT PARA USE32 PUBLIC 'CODE'
_TEXT	ENDS
;	COMDAT ??0?$basic_filebuf@DV?$char_traits@D@_STL@@@_STL@@QAE@XZ
_TEXT	SEGMENT PARA USE32 PUBLIC 'CODE'
_TEXT	ENDS
;	COMDAT ?close@?$basic_filebuf@DV?$char_traits@D@_STL@@@_STL@@QAEPAV12@XZ
_TEXT	SEGMENT PARA USE32 PUBLIC 'CODE'
_TEXT	ENDS
;	COMDAT ?_M_exit_input_mode@?$basic_filebuf@DV?$char_traits@D@_STL@@@_STL@@AAEXXZ
_TEXT	SEGMENT PARA USE32 PUBLIC 'CODE'
_TEXT	ENDS
;	COMDAT ?_M_switch_to_output_mode@?$basic_filebuf@DV?$char_traits@D@_STL@@@_STL@@AAE_NXZ
_TEXT	SEGMENT PARA USE32 PUBLIC 'CODE'
_TEXT	ENDS
;	COMDAT ?_M_output_error@?$basic_filebuf@DV?$char_traits@D@_STL@@@_STL@@AAEHXZ
_TEXT	SEGMENT PARA USE32 PUBLIC 'CODE'
_TEXT	ENDS
;	COMDAT ?_M_allocate_buffers@?$basic_filebuf@DV?$char_traits@D@_STL@@@_STL@@AAE_NPADH@Z
_TEXT	SEGMENT PARA USE32 PUBLIC 'CODE'
_TEXT	ENDS
;	COMDAT ?_M_deallocate_buffers@?$basic_filebuf@DV?$char_traits@D@_STL@@@_STL@@AAEXXZ
_TEXT	SEGMENT PARA USE32 PUBLIC 'CODE'
_TEXT	ENDS
;	COMDAT ?_M_seek_init@?$basic_filebuf@DV?$char_traits@D@_STL@@@_STL@@AAE_N_N@Z
_TEXT	SEGMENT PARA USE32 PUBLIC 'CODE'
_TEXT	ENDS
;	COMDAT ?_M_setup_codecvt@?$basic_filebuf@DV?$char_traits@D@_STL@@@_STL@@AAEXABVlocale@2@@Z
_TEXT	SEGMENT PARA USE32 PUBLIC 'CODE'
_TEXT	ENDS
;	COMDAT ??$equal@PADPADU?$_Eq_traits@V?$char_traits@D@_STL@@@_STL@@@_STL@@YA_NPAD00U?$_Eq_traits@V?$char_traits@D@_STL@@@0@@Z
_TEXT	SEGMENT PARA USE32 PUBLIC 'CODE'
_TEXT	ENDS
;	COMDAT ??$_Destroy@V?$basic_string@DV?$char_traits@D@_STL@@V?$allocator@D@2@@_STL@@@_STL@@YAXPAV?$basic_string@DV?$char_traits@D@_STL@@V?$allocator@D@2@@0@@Z
_TEXT	SEGMENT PARA USE32 PUBLIC 'CODE'
_TEXT	ENDS
;	COMDAT ??$_M_assign_dispatch@PAD@?$basic_string@DV?$char_traits@D@_STL@@V?$allocator@D@2@@_STL@@AAEAAV01@PAD0ABU__false_type@1@@Z
_TEXT	SEGMENT PARA USE32 PUBLIC 'CODE'
_TEXT	ENDS
;	COMDAT ??0?$basic_ios@DV?$char_traits@D@_STL@@@_STL@@IAE@XZ
_TEXT	SEGMENT PARA USE32 PUBLIC 'CODE'
_TEXT	ENDS
;	COMDAT ?init@?$basic_ios@DV?$char_traits@D@_STL@@@_STL@@IAEXPAV?$basic_streambuf@DV?$char_traits@D@_STL@@@2@@Z
_TEXT	SEGMENT PARA USE32 PUBLIC 'CODE'
_TEXT	ENDS
;	COMDAT ?read@?$basic_istream@DV?$char_traits@D@_STL@@@_STL@@QAEAAV12@PADH@Z
_TEXT	SEGMENT PARA USE32 PUBLIC 'CODE'
_TEXT	ENDS
;	COMDAT ?tellg@?$basic_istream@DV?$char_traits@D@_STL@@@_STL@@QAE?AV?$fpos@H@2@XZ
_TEXT	SEGMENT PARA USE32 PUBLIC 'CODE'
_TEXT	ENDS
;	COMDAT ?seekg@?$basic_istream@DV?$char_traits@D@_STL@@@_STL@@QAEAAV12@JH@Z
_TEXT	SEGMENT PARA USE32 PUBLIC 'CODE'
_TEXT	ENDS
;	COMDAT ??0?$CTypeTable@VAppendPatch@@@@QAE@XZ
_TEXT	SEGMENT PARA USE32 PUBLIC 'CODE'
_TEXT	ENDS
;	COMDAT ??1?$CTypeTable@VAppendPatch@@@@QAE@XZ
_TEXT	SEGMENT PARA USE32 PUBLIC 'CODE'
_TEXT	ENDS
;	COMDAT ??$PUUFAppendPackImpl@G@@YA_NPBD0@Z
_TEXT	SEGMENT PARA USE32 PUBLIC 'CODE'
_TEXT	ENDS
;	COMDAT ??$__uninitialized_copy@PBQAVAPPEND_PATCH_NODE@@PAPAV1@@_STL@@YAPAPAVAPPEND_PATCH_NODE@@PBQAV1@0PAPAV1@ABU__true_type@0@@Z
_TEXT	SEGMENT PARA USE32 PUBLIC 'CODE'
_TEXT	ENDS
;	COMDAT ??$_Destroy@PAPAVAPPEND_PATCH_NODE@@@_STL@@YAXPAPAVAPPEND_PATCH_NODE@@0@Z
_TEXT	SEGMENT PARA USE32 PUBLIC 'CODE'
_TEXT	ENDS
;	COMDAT ??$_Construct@PAVAPPEND_PATCH_NODE@@PAV1@@_STL@@YAXPAPAVAPPEND_PATCH_NODE@@ABQAV1@@Z
_TEXT	SEGMENT PARA USE32 PUBLIC 'CODE'
_TEXT	ENDS
;	COMDAT ??$append@PBD@?$basic_string@DV?$char_traits@D@_STL@@V?$allocator@D@2@@_STL@@QAEAAV01@PBD0@Z
_TEXT	SEGMENT PARA USE32 PUBLIC 'CODE'
_TEXT	ENDS
;	COMDAT ??$max@I@_STL@@YAABIABI0@Z
_TEXT	SEGMENT PARA USE32 PUBLIC 'CODE'
_TEXT	ENDS
;	COMDAT ??$fill_n@PAPAVAPPEND_PATCH_NODE@@IPAV1@@_STL@@YAPAPAVAPPEND_PATCH_NODE@@PAPAV1@IABQAV1@@Z
_TEXT	SEGMENT PARA USE32 PUBLIC 'CODE'
_TEXT	ENDS
;	COMDAT ??$__copy_ptrs@PAPAVAPPEND_PATCH_NODE@@PAPAV1@@_STL@@YAPAPAVAPPEND_PATCH_NODE@@PAPAV1@00ABU__true_type@0@@Z
_TEXT	SEGMENT PARA USE32 PUBLIC 'CODE'
_TEXT	ENDS
;	COMDAT ??_G?$basic_string@DV?$char_traits@D@_STL@@V?$allocator@D@2@@_STL@@QAEPAXI@Z
_TEXT	SEGMENT PARA USE32 PUBLIC 'CODE'
_TEXT	ENDS
;	COMDAT ?tie@?$basic_ios@DV?$char_traits@D@_STL@@@_STL@@QAEPAV?$basic_ostream@DV?$char_traits@D@_STL@@@2@PAV32@@Z
_TEXT	SEGMENT PARA USE32 PUBLIC 'CODE'
_TEXT	ENDS
;	COMDAT ?fill@?$basic_ios@DV?$char_traits@D@_STL@@@_STL@@QAEDD@Z
_TEXT	SEGMENT PARA USE32 PUBLIC 'CODE'
_TEXT	ENDS
;	COMDAT ?_M_exit_putback_mode@?$basic_filebuf@DV?$char_traits@D@_STL@@@_STL@@AAEXXZ
_TEXT	SEGMENT PARA USE32 PUBLIC 'CODE'
_TEXT	ENDS
;	COMDAT ??R?$_Eq_traits@V?$char_traits@D@_STL@@@_STL@@QBE_NABD0@Z
_TEXT	SEGMENT PARA USE32 PUBLIC 'CODE'
_TEXT	ENDS
;	COMDAT ??0sentry@?$basic_ostream@DV?$char_traits@D@_STL@@@_STL@@QAE@AAV12@@Z
_TEXT	SEGMENT PARA USE32 PUBLIC 'CODE'
_TEXT	ENDS
;	COMDAT ??1sentry@?$basic_ostream@DV?$char_traits@D@_STL@@@_STL@@QAE@XZ
_TEXT	SEGMENT PARA USE32 PUBLIC 'CODE'
_TEXT	ENDS
;	COMDAT ??Bsentry@?$basic_ostream@DV?$char_traits@D@_STL@@@_STL@@QBE_NXZ
_TEXT	SEGMENT PARA USE32 PUBLIC 'CODE'
_TEXT	ENDS
;	COMDAT ??0sentry@?$basic_istream@DV?$char_traits@D@_STL@@@_STL@@QAE@AAV12@U_No_Skip_WS@2@@Z
_TEXT	SEGMENT PARA USE32 PUBLIC 'CODE'
_TEXT	ENDS
;	COMDAT ??1sentry@?$basic_istream@DV?$char_traits@D@_STL@@@_STL@@QAE@XZ
_TEXT	SEGMENT PARA USE32 PUBLIC 'CODE'
_TEXT	ENDS
;	COMDAT ??Bsentry@?$basic_istream@DV?$char_traits@D@_STL@@@_STL@@QBE_NXZ
_TEXT	SEGMENT PARA USE32 PUBLIC 'CODE'
_TEXT	ENDS
;	COMDAT ??0?$_Constant_unary_fun@_NH@_STL@@QAE@AB_N@Z
_TEXT	SEGMENT PARA USE32 PUBLIC 'CODE'
_TEXT	ENDS
;	COMDAT ?_Ret@?$_BothPtrType@PBQAVAPPEND_PATCH_NODE@@PAPAV1@@_STL@@SA?AU__true_type@2@XZ
_TEXT	SEGMENT PARA USE32 PUBLIC 'CODE'
_TEXT	ENDS
;	COMDAT ?flush@?$basic_ostream@DV?$char_traits@D@_STL@@@_STL@@QAEAAV12@XZ
_TEXT	SEGMENT PARA USE32 PUBLIC 'CODE'
_TEXT	ENDS
;	COMDAT ??$_M_range_initialize@PBD@?$basic_string@DV?$char_traits@D@_STL@@V?$allocator@D@2@@_STL@@AAEXPBD0ABUforward_iterator_tag@1@@Z
_TEXT	SEGMENT PARA USE32 PUBLIC 'CODE'
_TEXT	ENDS
;	COMDAT ??$_M_range_initialize@PAD@?$basic_string@DV?$char_traits@D@_STL@@V?$allocator@D@2@@_STL@@AAEXPAD0ABUforward_iterator_tag@1@@Z
_TEXT	SEGMENT PARA USE32 PUBLIC 'CODE'
_TEXT	ENDS
;	COMDAT ?rdbuf@?$basic_ios@DV?$char_traits@D@_STL@@@_STL@@QAEPAV?$basic_streambuf@DV?$char_traits@D@_STL@@@2@PAV32@@Z
_TEXT	SEGMENT PARA USE32 PUBLIC 'CODE'
_TEXT	ENDS
;	COMDAT ?imbue@?$basic_ios@DV?$char_traits@D@_STL@@@_STL@@QAE?AVlocale@2@ABV32@@Z
_TEXT	SEGMENT PARA USE32 PUBLIC 'CODE'
_TEXT	ENDS
;	COMDAT ?widen@?$basic_ios@DV?$char_traits@D@_STL@@@_STL@@QBEDD@Z
_TEXT	SEGMENT PARA USE32 PUBLIC 'CODE'
_TEXT	ENDS
;	COMDAT ?_M_handle_exception@?$basic_ios@DV?$char_traits@D@_STL@@@_STL@@QAEXH@Z
_TEXT	SEGMENT PARA USE32 PUBLIC 'CODE'
_TEXT	ENDS
;	COMDAT ?_M_unshift@?$basic_filebuf@DV?$char_traits@D@_STL@@@_STL@@AAE_NXZ
_TEXT	SEGMENT PARA USE32 PUBLIC 'CODE'
_TEXT	ENDS
;	COMDAT ?_M_allocate_buffers@?$basic_filebuf@DV?$char_traits@D@_STL@@@_STL@@AAE_NXZ
_TEXT	SEGMENT PARA USE32 PUBLIC 'CODE'
_TEXT	ENDS
;	COMDAT ??$max@H@_STL@@YAABHABH0@Z
_TEXT	SEGMENT PARA USE32 PUBLIC 'CODE'
_TEXT	ENDS
;	COMDAT ??$use_facet@V?$codecvt@DDH@_STL@@@_STL@@YAABV?$codecvt@DDH@0@ABVlocale@0@@Z
_TEXT	SEGMENT PARA USE32 PUBLIC 'CODE'
_TEXT	ENDS
;	COMDAT ??$append@PAD@?$basic_string@DV?$char_traits@D@_STL@@V?$allocator@D@2@@_STL@@QAEAAV01@PAD0@Z
_TEXT	SEGMENT PARA USE32 PUBLIC 'CODE'
_TEXT	ENDS
;	COMDAT ??$_M_read_buffered@DV?$char_traits@D@_STL@@U?$_Constant_unary_fun@_NH@2@U?$_Project2nd@PBDPBD@2@@_STL@@YAHPAV?$basic_istream@DV?$char_traits@D@_STL@@@0@PAV?$basic_streambuf@DV?$char_traits@D@_STL@@@0@HPADU?$_Constant_unary_fun@_NH@0@U?$_Project2nd@PBDPBD@0@_N55@Z
_TEXT	SEGMENT PARA USE32 PUBLIC 'CODE'
_TEXT	ENDS
;	COMDAT ??$_M_read_unbuffered@DV?$char_traits@D@_STL@@U?$_Constant_unary_fun@_NH@2@@_STL@@YAHPAV?$basic_istream@DV?$char_traits@D@_STL@@@0@PAV?$basic_streambuf@DV?$char_traits@D@_STL@@@0@HPADU?$_Constant_unary_fun@_NH@0@_N44@Z
_TEXT	SEGMENT PARA USE32 PUBLIC 'CODE'
_TEXT	ENDS
;	COMDAT ?Release@?$CTypeTable@VAppendPatch@@@@QAEXXZ
_TEXT	SEGMENT PARA USE32 PUBLIC 'CODE'
_TEXT	ENDS
;	COMDAT ??$__copy_aux@PBQAVAPPEND_PATCH_NODE@@PAPAV1@@_STL@@YAPAPAVAPPEND_PATCH_NODE@@PBQAV1@0PAPAV1@ABU__true_type@0@@Z
_TEXT	SEGMENT PARA USE32 PUBLIC 'CODE'
_TEXT	ENDS
;	COMDAT ??$__destroy@PAPAVAPPEND_PATCH_NODE@@PAV1@@_STL@@YAXPAPAVAPPEND_PATCH_NODE@@00@Z
_TEXT	SEGMENT PARA USE32 PUBLIC 'CODE'
_TEXT	ENDS
;	COMDAT ??$_M_append_dispatch@PBD@?$basic_string@DV?$char_traits@D@_STL@@V?$allocator@D@2@@_STL@@AAEAAV01@PBD0ABU__false_type@1@@Z
_TEXT	SEGMENT PARA USE32 PUBLIC 'CODE'
_TEXT	ENDS
;	COMDAT ??$_M_init@DV?$char_traits@D@_STL@@@_STL@@YA_NAAV?$basic_ostream@DV?$char_traits@D@_STL@@@0@@Z
_TEXT	SEGMENT PARA USE32 PUBLIC 'CODE'
_TEXT	ENDS
;	COMDAT ??$_M_init_noskip@DV?$char_traits@D@_STL@@@_STL@@YA_NAAV?$basic_istream@DV?$char_traits@D@_STL@@@0@@Z
_TEXT	SEGMENT PARA USE32 PUBLIC 'CODE'
_TEXT	ENDS
;	COMDAT ??_EAppendPatch@@QAEPAXI@Z
_TEXT	SEGMENT PARA USE32 PUBLIC 'CODE'
_TEXT	ENDS
;	COMDAT ?tie@?$basic_ios@DV?$char_traits@D@_STL@@@_STL@@QBEPAV?$basic_ostream@DV?$char_traits@D@_STL@@@2@XZ
_TEXT	SEGMENT PARA USE32 PUBLIC 'CODE'
_TEXT	ENDS
;	COMDAT ?_S_eof@?$basic_ios@DV?$char_traits@D@_STL@@@_STL@@SA_NH@Z
_TEXT	SEGMENT PARA USE32 PUBLIC 'CODE'
_TEXT	ENDS
;	COMDAT ??R?$_Constant_unary_fun@_NH@_STL@@QBEAB_NABH@Z
_TEXT	SEGMENT PARA USE32 PUBLIC 'CODE'
_TEXT	ENDS
;	COMDAT ??R?$_Project2nd@PBDPBD@_STL@@QBEPBDABQBD0@Z
_TEXT	SEGMENT PARA USE32 PUBLIC 'CODE'
_TEXT	ENDS
;	COMDAT ?_Ret@?$_OKToMemCpy@PAVAPPEND_PATCH_NODE@@PAV1@@_STL@@SA?AU__true_type@2@XZ
_TEXT	SEGMENT PARA USE32 PUBLIC 'CODE'
_TEXT	ENDS
;	COMDAT ??$distance@PBD@_STL@@YAHABQBD0@Z
_TEXT	SEGMENT PARA USE32 PUBLIC 'CODE'
_TEXT	ENDS
;	COMDAT ?_M_allocate_block@?$_String_base@DV?$allocator@D@_STL@@@_STL@@QAEXI@Z
_TEXT	SEGMENT PARA USE32 PUBLIC 'CODE'
_TEXT	ENDS
;	COMDAT ??$distance@PAD@_STL@@YAHABQAD0@Z
_TEXT	SEGMENT PARA USE32 PUBLIC 'CODE'
_TEXT	ENDS
;	COMDAT ??$uninitialized_copy@PADPAD@_STL@@YAPADPAD00@Z
_TEXT	SEGMENT PARA USE32 PUBLIC 'CODE'
_TEXT	ENDS
;	COMDAT ??$_M_append_dispatch@PAD@?$basic_string@DV?$char_traits@D@_STL@@V?$allocator@D@2@@_STL@@AAEAAV01@PAD0ABU__false_type@1@@Z
_TEXT	SEGMENT PARA USE32 PUBLIC 'CODE'
_TEXT	ENDS
;	COMDAT ??$_IsOKToMemCpy@PAVAPPEND_PATCH_NODE@@PAV1@@_STL@@YA?AU?$_OKToMemCpy@PAVAPPEND_PATCH_NODE@@PAV1@@0@PAPAVAPPEND_PATCH_NODE@@0@Z
_TEXT	SEGMENT PARA USE32 PUBLIC 'CODE'
_TEXT	ENDS
;	COMDAT ??$__copy_ptrs@PBQAVAPPEND_PATCH_NODE@@PAPAV1@@_STL@@YAPAPAVAPPEND_PATCH_NODE@@PBQAV1@0PAPAV1@ABU__true_type@0@@Z
_TEXT	SEGMENT PARA USE32 PUBLIC 'CODE'
_TEXT	ENDS
;	COMDAT ??$__destroy_aux@PAPAVAPPEND_PATCH_NODE@@@_STL@@YAXPAPAVAPPEND_PATCH_NODE@@0ABU__true_type@0@@Z
_TEXT	SEGMENT PARA USE32 PUBLIC 'CODE'
_TEXT	ENDS
;	COMDAT ??$append@PBD@?$basic_string@DV?$char_traits@D@_STL@@V?$allocator@D@2@@_STL@@AAEAAV01@PBD0ABUforward_iterator_tag@1@@Z
_TEXT	SEGMENT PARA USE32 PUBLIC 'CODE'
_TEXT	ENDS
;	COMDAT ?_M_construct_null@?$basic_string@DV?$char_traits@D@_STL@@V?$allocator@D@2@@_STL@@AAEXPAD@Z
_TEXT	SEGMENT PARA USE32 PUBLIC 'CODE'
_TEXT	ENDS
;	COMDAT ?max_size@?$basic_string@DV?$char_traits@D@_STL@@V?$allocator@D@2@@_STL@@QBEIXZ
_TEXT	SEGMENT PARA USE32 PUBLIC 'CODE'
_TEXT	ENDS
;	COMDAT ?capacity@?$basic_string@DV?$char_traits@D@_STL@@V?$allocator@D@2@@_STL@@QBEIXZ
_TEXT	SEGMENT PARA USE32 PUBLIC 'CODE'
_TEXT	ENDS
;	COMDAT ?max_size@?$_String_base@DV?$allocator@D@_STL@@@_STL@@QBEIXZ
_TEXT	SEGMENT PARA USE32 PUBLIC 'CODE'
_TEXT	ENDS
;	COMDAT ?_M_construct_null_aux@?$basic_string@DV?$char_traits@D@_STL@@V?$allocator@D@2@@_STL@@AAEXPADABU__true_type@2@@Z
_TEXT	SEGMENT PARA USE32 PUBLIC 'CODE'
_TEXT	ENDS
;	COMDAT ??$__distance@PBD@_STL@@YAHABQBD0ABUrandom_access_iterator_tag@0@@Z
_TEXT	SEGMENT PARA USE32 PUBLIC 'CODE'
_TEXT	ENDS
;	COMDAT ?_M_throw_length_error@?$_String_base@DV?$allocator@D@_STL@@@_STL@@QBEXXZ
_TEXT	SEGMENT PARA USE32 PUBLIC 'CODE'
_TEXT	ENDS
;	COMDAT ??$__distance@PAD@_STL@@YAHABQAD0ABUrandom_access_iterator_tag@0@@Z
_TEXT	SEGMENT PARA USE32 PUBLIC 'CODE'
_TEXT	ENDS
;	COMDAT ??$__uninitialized_copy@PADPAD@_STL@@YAPADPAD00ABU__true_type@0@@Z
_TEXT	SEGMENT PARA USE32 PUBLIC 'CODE'
_TEXT	ENDS
;	COMDAT ??$append@PAD@?$basic_string@DV?$char_traits@D@_STL@@V?$allocator@D@2@@_STL@@AAEAAV01@PAD0ABUforward_iterator_tag@1@@Z
_TEXT	SEGMENT PARA USE32 PUBLIC 'CODE'
_TEXT	ENDS
;	COMDAT ?_Ret@?$_BothPtrType@PADPAD@_STL@@SA?AU__true_type@2@XZ
_TEXT	SEGMENT PARA USE32 PUBLIC 'CODE'
_TEXT	ENDS
;	COMDAT ??$__copy_aux@PADPAD@_STL@@YAPADPAD00ABU__true_type@0@@Z
_TEXT	SEGMENT PARA USE32 PUBLIC 'CODE'
_TEXT	ENDS
;	COMDAT ?_Ret@?$_OKToMemCpy@DD@_STL@@SA?AU__true_type@2@XZ
_TEXT	SEGMENT PARA USE32 PUBLIC 'CODE'
_TEXT	ENDS
;	COMDAT ??$_IsOKToMemCpy@DD@_STL@@YA?AU?$_OKToMemCpy@DD@0@PAD0@Z
_TEXT	SEGMENT PARA USE32 PUBLIC 'CODE'
_TEXT	ENDS
;	COMDAT ??$__copy_ptrs@PADPAD@_STL@@YAPADPAD00ABU__true_type@0@@Z
_TEXT	SEGMENT PARA USE32 PUBLIC 'CODE'
_TEXT	ENDS
;	COMDAT ??_R3IFileIO@@8
rdata$r	SEGMENT DWORD USE32 PUBLIC 'CONST'
rdata$r	ENDS
;	COMDAT ??_R3?$basic_ofstream@DV?$char_traits@D@_STL@@@_STL@@8
rdata$r	SEGMENT DWORD USE32 PUBLIC 'CONST'
rdata$r	ENDS
;	COMDAT ??_R3?$basic_ifstream@DV?$char_traits@D@_STL@@@_STL@@8
rdata$r	SEGMENT DWORD USE32 PUBLIC 'CONST'
rdata$r	ENDS
;	COMDAT ??_R3ovfstream@@8
rdata$r	SEGMENT DWORD USE32 PUBLIC 'CONST'
rdata$r	ENDS
;	COMDAT ??_R3ivfstream@@8
rdata$r	SEGMENT DWORD USE32 PUBLIC 'CONST'
rdata$r	ENDS
;	COMDAT ??_R3iovfs_base@@8
rdata$r	SEGMENT DWORD USE32 PUBLIC 'CONST'
rdata$r	ENDS
;	COMDAT ??_R2IFileIO@@8
rdata$r	SEGMENT DWORD USE32 PUBLIC 'CONST'
rdata$r	ENDS
;	COMDAT ??_R2?$basic_ofstream@DV?$char_traits@D@_STL@@@_STL@@8
rdata$r	SEGMENT DWORD USE32 PUBLIC 'CONST'
rdata$r	ENDS
;	COMDAT ??_R2?$basic_ifstream@DV?$char_traits@D@_STL@@@_STL@@8
rdata$r	SEGMENT DWORD USE32 PUBLIC 'CONST'
rdata$r	ENDS
;	COMDAT ??_R2ovfstream@@8
rdata$r	SEGMENT DWORD USE32 PUBLIC 'CONST'
rdata$r	ENDS
;	COMDAT ??_R2ivfstream@@8
rdata$r	SEGMENT DWORD USE32 PUBLIC 'CONST'
rdata$r	ENDS
;	COMDAT ??_R2iovfs_base@@8
rdata$r	SEGMENT DWORD USE32 PUBLIC 'CONST'
rdata$r	ENDS
;	COMDAT ??_R1A@?0A@A@IFileIO@@8
rdata$r	SEGMENT DWORD USE32 PUBLIC 'CONST'
rdata$r	ENDS
;	COMDAT ??_R1A@?0A@A@?$basic_ostream@DV?$char_traits@D@_STL@@@_STL@@8
rdata$r	SEGMENT DWORD USE32 PUBLIC 'CONST'
rdata$r	ENDS
;	COMDAT ??_R0?AV?$basic_ostream@DV?$char_traits@D@_STL@@@_STL@@@8
_DATA	SEGMENT DWORD USE32 PUBLIC 'DATA'
_DATA	ENDS
;	COMDAT ??_R1A@?0A@A@?$basic_ofstream@DV?$char_traits@D@_STL@@@_STL@@8
rdata$r	SEGMENT DWORD USE32 PUBLIC 'CONST'
rdata$r	ENDS
;	COMDAT ??_R1A@A@3A@ios_base@_STL@@8
rdata$r	SEGMENT DWORD USE32 PUBLIC 'CONST'
rdata$r	ENDS
;	COMDAT ??_R0?AVios_base@_STL@@@8
_DATA	SEGMENT DWORD USE32 PUBLIC 'DATA'
_DATA	ENDS
;	COMDAT ??_R1A@A@3BA@?$basic_ios@DV?$char_traits@D@_STL@@@_STL@@8
rdata$r	SEGMENT DWORD USE32 PUBLIC 'CONST'
rdata$r	ENDS
;	COMDAT ??_R0?AV?$basic_ios@DV?$char_traits@D@_STL@@@_STL@@@8
_DATA	SEGMENT DWORD USE32 PUBLIC 'DATA'
_DATA	ENDS
;	COMDAT ??_R1A@?0A@A@?$basic_istream@DV?$char_traits@D@_STL@@@_STL@@8
rdata$r	SEGMENT DWORD USE32 PUBLIC 'CONST'
rdata$r	ENDS
;	COMDAT ??_R0?AV?$basic_istream@DV?$char_traits@D@_STL@@@_STL@@@8
_DATA	SEGMENT DWORD USE32 PUBLIC 'DATA'
_DATA	ENDS
;	COMDAT ??_R1A@?0A@A@?$basic_ifstream@DV?$char_traits@D@_STL@@@_STL@@8
rdata$r	SEGMENT DWORD USE32 PUBLIC 'CONST'
rdata$r	ENDS
;	COMDAT ??_R1A@?0A@A@ovfstream@@8
rdata$r	SEGMENT DWORD USE32 PUBLIC 'CONST'
rdata$r	ENDS
;	COMDAT ??_R1A@?0A@A@ivfstream@@8
rdata$r	SEGMENT DWORD USE32 PUBLIC 'CONST'
rdata$r	ENDS
;	COMDAT ??_R1A@?0A@A@iovfs_base@@8
rdata$r	SEGMENT DWORD USE32 PUBLIC 'CONST'
rdata$r	ENDS
;	COMDAT ??_R0?AVIFileIO@@@8
_DATA	SEGMENT DWORD USE32 PUBLIC 'DATA'
_DATA	ENDS
;	COMDAT ??_R0?AV?$basic_ofstream@DV?$char_traits@D@_STL@@@_STL@@@8
_DATA	SEGMENT DWORD USE32 PUBLIC 'DATA'
_DATA	ENDS
;	COMDAT ??_R0?AV?$basic_ifstream@DV?$char_traits@D@_STL@@@_STL@@@8
_DATA	SEGMENT DWORD USE32 PUBLIC 'DATA'
_DATA	ENDS
;	COMDAT ??_R0?AVovfstream@@@8
_DATA	SEGMENT DWORD USE32 PUBLIC 'DATA'
_DATA	ENDS
;	COMDAT ??_R0?AVivfstream@@@8
_DATA	SEGMENT DWORD USE32 PUBLIC 'DATA'
_DATA	ENDS
;	COMDAT ??_R0?AViovfs_base@@@8
_DATA	SEGMENT DWORD USE32 PUBLIC 'DATA'
_DATA	ENDS
;	COMDAT ??_R4IFileIO@@6B@
rdata$r	SEGMENT DWORD USE32 PUBLIC 'CONST'
rdata$r	ENDS
;	COMDAT ??_R4?$basic_ofstream@DV?$char_traits@D@_STL@@@_STL@@6B@
rdata$r	SEGMENT DWORD USE32 PUBLIC 'CONST'
rdata$r	ENDS
;	COMDAT ??_R4?$basic_ifstream@DV?$char_traits@D@_STL@@@_STL@@6B@
rdata$r	SEGMENT DWORD USE32 PUBLIC 'CONST'
rdata$r	ENDS
;	COMDAT ??_R4ovfstream@@6B@
rdata$r	SEGMENT DWORD USE32 PUBLIC 'CONST'
rdata$r	ENDS
;	COMDAT ??_R4ivfstream@@6B@
rdata$r	SEGMENT DWORD USE32 PUBLIC 'CONST'
rdata$r	ENDS
;	COMDAT ??_R4iovfs_base@@6B@
rdata$r	SEGMENT DWORD USE32 PUBLIC 'CONST'
rdata$r	ENDS
;	COMDAT ?_M_deallocate_block@?$_String_base@DV?$allocator@D@_STL@@@_STL@@QAEXXZ
_TEXT	SEGMENT PARA USE32 PUBLIC 'CODE'
_TEXT	ENDS
;	COMDAT ?deallocate@?$allocator@D@_STL@@QAEXPADI@Z
_TEXT	SEGMENT PARA USE32 PUBLIC 'CODE'
_TEXT	ENDS
;	COMDAT ?good@ios_base@_STL@@QBE_NXZ
_TEXT	SEGMENT PARA USE32 PUBLIC 'CODE'
_TEXT	ENDS
;	COMDAT ?to_char_type@?$char_traits@D@_STL@@SADABH@Z
_TEXT	SEGMENT PARA USE32 PUBLIC 'CODE'
_TEXT	ENDS
;	COMDAT ?sbumpc@?$basic_streambuf@DV?$char_traits@D@_STL@@@_STL@@QAEHXZ
_TEXT	SEGMENT PARA USE32 PUBLIC 'CODE'
_TEXT	ENDS
;	COMDAT ?_FILE_I_avail@_STL@@YAHPBU_iobuf@@@Z
_TEXT	SEGMENT PARA USE32 PUBLIC 'CODE'
_TEXT	ENDS
;	COMDAT ?to_int_type@?$char_traits@D@_STL@@SAHABD@Z
_TEXT	SEGMENT PARA USE32 PUBLIC 'CODE'
_TEXT	ENDS
;	COMDAT ?_FILE_I_postincr@_STL@@YAAADPAU_iobuf@@@Z
_TEXT	SEGMENT PARA USE32 PUBLIC 'CODE'
_TEXT	ENDS
;	COMDAT ?sgetc@?$basic_streambuf@DV?$char_traits@D@_STL@@@_STL@@QAEHXZ
_TEXT	SEGMENT PARA USE32 PUBLIC 'CODE'
_TEXT	ENDS
;	COMDAT ?_FILE_I_next@_STL@@YAPADPBU_iobuf@@@Z
_TEXT	SEGMENT PARA USE32 PUBLIC 'CODE'
_TEXT	ENDS
;	COMDAT ?_M_gbump@?$basic_streambuf@DV?$char_traits@D@_STL@@@_STL@@QAEXH@Z
_TEXT	SEGMENT PARA USE32 PUBLIC 'CODE'
_TEXT	ENDS
;	COMDAT ?_FILE_I_bump@_STL@@YAXPAU_iobuf@@H@Z
_TEXT	SEGMENT PARA USE32 PUBLIC 'CODE'
_TEXT	ENDS
;	COMDAT ??$min@H@_STL@@YAABHABH0@Z
_TEXT	SEGMENT PARA USE32 PUBLIC 'CODE'
_TEXT	ENDS
;	COMDAT ?_M_gptr@?$basic_streambuf@DV?$char_traits@D@_STL@@@_STL@@QBEPADXZ
_TEXT	SEGMENT PARA USE32 PUBLIC 'CODE'
_TEXT	ENDS
;	COMDAT ?_M_egptr@?$basic_streambuf@DV?$char_traits@D@_STL@@@_STL@@QBEPADXZ
_TEXT	SEGMENT PARA USE32 PUBLIC 'CODE'
_TEXT	ENDS
;	COMDAT ?_FILE_I_end@_STL@@YAPADPBU_iobuf@@@Z
_TEXT	SEGMENT PARA USE32 PUBLIC 'CODE'
_TEXT	ENDS
;	COMDAT ?__page_size@_Filebuf_base@_STL@@SAIXZ
_TEXT	SEGMENT PARA USE32 PUBLIC 'CODE'
_TEXT	ENDS
;	COMDAT ?_M_write@?$basic_filebuf@DV?$char_traits@D@_STL@@@_STL@@QAE_NPADH@Z
_TEXT	SEGMENT PARA USE32 PUBLIC 'CODE'
_TEXT	ENDS
;	COMDAT ?unshift@?$codecvt@DDH@_STL@@QBE?AW4result@codecvt_base@2@AAHPAD1AAPAD@Z
_TEXT	SEGMENT PARA USE32 PUBLIC 'CODE'
_TEXT	ENDS
;	COMDAT ?_M_get_exception_mask@ios_base@_STL@@IBEHXZ
_TEXT	SEGMENT PARA USE32 PUBLIC 'CODE'
_TEXT	ENDS
;	COMDAT ?_M_setstate_nothrow@ios_base@_STL@@IAEXH@Z
_TEXT	SEGMENT PARA USE32 PUBLIC 'CODE'
_TEXT	ENDS
;	COMDAT ?_M_ctype_facet@ios_base@_STL@@QBEPBVfacet@locale@2@XZ
_TEXT	SEGMENT PARA USE32 PUBLIC 'CODE'
_TEXT	ENDS
;	COMDAT ?widen@?$ctype@D@_STL@@QBEDD@Z
_TEXT	SEGMENT PARA USE32 PUBLIC 'CODE'
_TEXT	ENDS
;	COMDAT ?grouping@?$numpunct@D@_STL@@QBE?AV?$basic_string@DV?$char_traits@D@_STL@@V?$allocator@D@2@@2@XZ
_TEXT	SEGMENT PARA USE32 PUBLIC 'CODE'
_TEXT	ENDS
;	COMDAT ??4?$basic_string@DV?$char_traits@D@_STL@@V?$allocator@D@2@@_STL@@QAEAAV01@ABV01@@Z
_TEXT	SEGMENT PARA USE32 PUBLIC 'CODE'
_TEXT	ENDS
;	COMDAT ??$assign@PAD@?$basic_string@DV?$char_traits@D@_STL@@V?$allocator@D@2@@_STL@@QAEAAV01@PAD0@Z
_TEXT	SEGMENT PARA USE32 PUBLIC 'CODE'
_TEXT	ENDS
;	COMDAT ?uninitialized_copy@_STL@@YAPADPBD0PAD@Z
_TEXT	SEGMENT PARA USE32 PUBLIC 'CODE'
_TEXT	ENDS
;	COMDAT ?pubsync@?$basic_streambuf@DV?$char_traits@D@_STL@@@_STL@@QAEHXZ
_TEXT	SEGMENT PARA USE32 PUBLIC 'CODE'
_TEXT	ENDS
;	COMDAT ?flags@ios_base@_STL@@QBEHXZ
_TEXT	SEGMENT PARA USE32 PUBLIC 'CODE'
_TEXT	ENDS
;	COMDAT ??2@YAPAXIPAX@Z
_TEXT	SEGMENT PARA USE32 PUBLIC 'CODE'
_TEXT	ENDS
;	COMDAT ?pubseekoff@?$basic_streambuf@DV?$char_traits@D@_STL@@@_STL@@QAE?AV?$fpos@H@2@JHH@Z
_TEXT	SEGMENT PARA USE32 PUBLIC 'CODE'
_TEXT	ENDS
;	COMDAT ?fail@ios_base@_STL@@QBE_NXZ
_TEXT	SEGMENT PARA USE32 PUBLIC 'CODE'
_TEXT	ENDS
;	COMDAT ?egptr@?$basic_streambuf@DV?$char_traits@D@_STL@@@_STL@@IBEPADXZ
_TEXT	SEGMENT PARA USE32 PUBLIC 'CODE'
_TEXT	ENDS
;	COMDAT ?gptr@?$basic_streambuf@DV?$char_traits@D@_STL@@@_STL@@IBEPADXZ
_TEXT	SEGMENT PARA USE32 PUBLIC 'CODE'
_TEXT	ENDS
;	COMDAT ?eof@ios_base@_STL@@QBE_NXZ
_TEXT	SEGMENT PARA USE32 PUBLIC 'CODE'
_TEXT	ENDS
;	COMDAT ?precision@ios_base@_STL@@QAEHH@Z
_TEXT	SEGMENT PARA USE32 PUBLIC 'CODE'
_TEXT	ENDS
;	COMDAT ?width@ios_base@_STL@@QAEHH@Z
_TEXT	SEGMENT PARA USE32 PUBLIC 'CODE'
_TEXT	ENDS
;	COMDAT ?flags@ios_base@_STL@@QAEHH@Z
_TEXT	SEGMENT PARA USE32 PUBLIC 'CODE'
_TEXT	ENDS
;	COMDAT ?_M_set_exception_mask@ios_base@_STL@@IAEXH@Z
_TEXT	SEGMENT PARA USE32 PUBLIC 'CODE'
_TEXT	ENDS
;	COMDAT ??_7?$basic_ios@DV?$char_traits@D@_STL@@@_STL@@6B@
CONST	SEGMENT DWORD USE32 PUBLIC 'CONST'
CONST	ENDS
;	COMDAT ??_R4?$basic_ios@DV?$char_traits@D@_STL@@@_STL@@6B@
rdata$r	SEGMENT DWORD USE32 PUBLIC 'CONST'
rdata$r	ENDS
;	COMDAT ??_R3?$basic_ios@DV?$char_traits@D@_STL@@@_STL@@8
rdata$r	SEGMENT DWORD USE32 PUBLIC 'CONST'
rdata$r	ENDS
;	COMDAT ??_R2?$basic_ios@DV?$char_traits@D@_STL@@@_STL@@8
rdata$r	SEGMENT DWORD USE32 PUBLIC 'CONST'
rdata$r	ENDS
;	COMDAT ??_R1A@?0A@A@?$basic_ios@DV?$char_traits@D@_STL@@@_STL@@8
rdata$r	SEGMENT DWORD USE32 PUBLIC 'CONST'
rdata$r	ENDS
;	COMDAT ??_R1A@?0A@A@ios_base@_STL@@8
rdata$r	SEGMENT DWORD USE32 PUBLIC 'CONST'
rdata$r	ENDS
;	COMDAT ??_G?$basic_ios@DV?$char_traits@D@_STL@@@_STL@@UAEPAXI@Z
_TEXT	SEGMENT PARA USE32 PUBLIC 'CODE'
_TEXT	ENDS
;	COMDAT ?assign@?$char_traits@D@_STL@@SAXAADABD@Z
_TEXT	SEGMENT PARA USE32 PUBLIC 'CODE'
_TEXT	ENDS
;	COMDAT ?always_noconv@?$codecvt@DDH@_STL@@QBE_NXZ
_TEXT	SEGMENT PARA USE32 PUBLIC 'CODE'
_TEXT	ENDS
;	COMDAT ?encoding@?$codecvt@DDH@_STL@@QBEHXZ
_TEXT	SEGMENT PARA USE32 PUBLIC 'CODE'
_TEXT	ENDS
;	COMDAT ?max_length@?$codecvt@DDH@_STL@@QBEHXZ
_TEXT	SEGMENT PARA USE32 PUBLIC 'CODE'
_TEXT	ENDS
;	COMDAT ?__o_mode@_Filebuf_base@_STL@@QBEHXZ
_TEXT	SEGMENT PARA USE32 PUBLIC 'CODE'
_TEXT	ENDS
;	COMDAT ??_7?$basic_filebuf@DV?$char_traits@D@_STL@@@_STL@@6B@
CONST	SEGMENT DWORD USE32 PUBLIC 'CONST'
CONST	ENDS
;	COMDAT ??_R4?$basic_filebuf@DV?$char_traits@D@_STL@@@_STL@@6B@
rdata$r	SEGMENT DWORD USE32 PUBLIC 'CONST'
rdata$r	ENDS
;	COMDAT ??_R0?AV?$basic_filebuf@DV?$char_traits@D@_STL@@@_STL@@@8
_DATA	SEGMENT DWORD USE32 PUBLIC 'DATA'
_DATA	ENDS
;	COMDAT ??_R3?$basic_filebuf@DV?$char_traits@D@_STL@@@_STL@@8
rdata$r	SEGMENT DWORD USE32 PUBLIC 'CONST'
rdata$r	ENDS
;	COMDAT ??_R2?$basic_filebuf@DV?$char_traits@D@_STL@@@_STL@@8
rdata$r	SEGMENT DWORD USE32 PUBLIC 'CONST'
rdata$r	ENDS
;	COMDAT ??_R1A@?0A@A@?$basic_filebuf@DV?$char_traits@D@_STL@@@_STL@@8
rdata$r	SEGMENT DWORD USE32 PUBLIC 'CONST'
rdata$r	ENDS
;	COMDAT ??_R1A@?0A@A@?$basic_streambuf@DV?$char_traits@D@_STL@@@_STL@@8
rdata$r	SEGMENT DWORD USE32 PUBLIC 'CONST'
rdata$r	ENDS
;	COMDAT ??_R0?AV?$basic_streambuf@DV?$char_traits@D@_STL@@@_STL@@@8
_DATA	SEGMENT DWORD USE32 PUBLIC 'DATA'
_DATA	ENDS
;	COMDAT ??_G?$basic_filebuf@DV?$char_traits@D@_STL@@@_STL@@UAEPAXI@Z
_TEXT	SEGMENT PARA USE32 PUBLIC 'CODE'
_TEXT	ENDS
;	COMDAT ?setbuf@?$basic_filebuf@DV?$char_traits@D@_STL@@@_STL@@MAEPAV?$basic_streambuf@DV?$char_traits@D@_STL@@@2@PADH@Z
_TEXT	SEGMENT PARA USE32 PUBLIC 'CODE'
_TEXT	ENDS
;	COMDAT ?seekoff@?$basic_filebuf@DV?$char_traits@D@_STL@@@_STL@@MAE?AV?$fpos@H@2@JHH@Z
_TEXT	SEGMENT PARA USE32 PUBLIC 'CODE'
_TEXT	ENDS
;	COMDAT ?_M_in_binary_mode@_Filebuf_base@_STL@@QBE_NXZ
_TEXT	SEGMENT PARA USE32 PUBLIC 'CODE'
_TEXT	ENDS
;	COMDAT ?length@?$codecvt@DDH@_STL@@QBEHABHPBD1I@Z
_TEXT	SEGMENT PARA USE32 PUBLIC 'CODE'
_TEXT	ENDS
;	COMDAT ?in@?$codecvt@DDH@_STL@@QBE?AW4result@codecvt_base@2@AAHPBD1AAPBDPAD3AAPAD@Z
_TEXT	SEGMENT PARA USE32 PUBLIC 'CODE'
_TEXT	ENDS
;	COMDAT ?eback@?$basic_streambuf@DV?$char_traits@D@_STL@@@_STL@@IBEPADXZ
_TEXT	SEGMENT PARA USE32 PUBLIC 'CODE'
_TEXT	ENDS
;	COMDAT ?_FILE_I_begin@_STL@@YAPADPBU_iobuf@@@Z
_TEXT	SEGMENT PARA USE32 PUBLIC 'CODE'
_TEXT	ENDS
;	COMDAT ?_M_get_offset@_Filebuf_base@_STL@@QAEJPAD0@Z
_TEXT	SEGMENT PARA USE32 PUBLIC 'CODE'
_TEXT	ENDS
;	COMDAT ??$count@PADD@_STL@@YAHPAD0ABD@Z
_TEXT	SEGMENT PARA USE32 PUBLIC 'CODE'
_TEXT	ENDS
;	COMDAT ?seekpos@?$basic_filebuf@DV?$char_traits@D@_STL@@@_STL@@MAE?AV?$fpos@H@2@V32@H@Z
_TEXT	SEGMENT PARA USE32 PUBLIC 'CODE'
_TEXT	ENDS
;	COMDAT ?sync@?$basic_filebuf@DV?$char_traits@D@_STL@@@_STL@@MAEHXZ
_TEXT	SEGMENT PARA USE32 PUBLIC 'CODE'
_TEXT	ENDS
;	COMDAT ?showmanyc@?$basic_filebuf@DV?$char_traits@D@_STL@@@_STL@@MAEHXZ
_TEXT	SEGMENT PARA USE32 PUBLIC 'CODE'
_TEXT	ENDS
;	COMDAT ?underflow@?$basic_filebuf@DV?$char_traits@D@_STL@@@_STL@@MAEHXZ
_TEXT	SEGMENT PARA USE32 PUBLIC 'CODE'
_TEXT	ENDS
;	COMDAT ?pbackfail@?$basic_filebuf@DV?$char_traits@D@_STL@@@_STL@@MAEHH@Z
_TEXT	SEGMENT PARA USE32 PUBLIC 'CODE'
_TEXT	ENDS
;	COMDAT ?gbump@?$basic_streambuf@DV?$char_traits@D@_STL@@@_STL@@IAEXH@Z
_TEXT	SEGMENT PARA USE32 PUBLIC 'CODE'
_TEXT	ENDS
;	COMDAT ?overflow@?$basic_filebuf@DV?$char_traits@D@_STL@@@_STL@@MAEHH@Z
_TEXT	SEGMENT PARA USE32 PUBLIC 'CODE'
_TEXT	ENDS
;	COMDAT ?pptr@?$basic_streambuf@DV?$char_traits@D@_STL@@@_STL@@IBEPADXZ
_TEXT	SEGMENT PARA USE32 PUBLIC 'CODE'
_TEXT	ENDS
;	COMDAT ?_FILE_O_next@_STL@@YAPADPBU_iobuf@@@Z
_TEXT	SEGMENT PARA USE32 PUBLIC 'CODE'
_TEXT	ENDS
;	COMDAT ?out@?$codecvt@DDH@_STL@@QBE?AW4result@codecvt_base@2@AAHPBD1AAPBDPAD3AAPAD@Z
_TEXT	SEGMENT PARA USE32 PUBLIC 'CODE'
_TEXT	ENDS
;	COMDAT ?_M_doit@?$_Noconv_output@V?$char_traits@D@_STL@@@_STL@@SA_NPAV?$basic_filebuf@DV?$char_traits@D@_STL@@@2@PAD1@Z
_TEXT	SEGMENT PARA USE32 PUBLIC 'CODE'
_TEXT	ENDS
;	COMDAT ?imbue@?$basic_filebuf@DV?$char_traits@D@_STL@@@_STL@@MAEXABVlocale@2@@Z
_TEXT	SEGMENT PARA USE32 PUBLIC 'CODE'
_TEXT	ENDS
;	COMDAT ??0?$basic_streambuf@DV?$char_traits@D@_STL@@@_STL@@IAE@XZ
_TEXT	SEGMENT PARA USE32 PUBLIC 'CODE'
_TEXT	ENDS
;	COMDAT ??_7?$basic_streambuf@DV?$char_traits@D@_STL@@@_STL@@6B@
CONST	SEGMENT DWORD USE32 PUBLIC 'CONST'
CONST	ENDS
;	COMDAT ??_R4?$basic_streambuf@DV?$char_traits@D@_STL@@@_STL@@6B@
rdata$r	SEGMENT DWORD USE32 PUBLIC 'CONST'
rdata$r	ENDS
;	COMDAT ??_R3?$basic_streambuf@DV?$char_traits@D@_STL@@@_STL@@8
rdata$r	SEGMENT DWORD USE32 PUBLIC 'CONST'
rdata$r	ENDS
;	COMDAT ??_R2?$basic_streambuf@DV?$char_traits@D@_STL@@@_STL@@8
rdata$r	SEGMENT DWORD USE32 PUBLIC 'CONST'
rdata$r	ENDS
;	COMDAT ??_G?$basic_streambuf@DV?$char_traits@D@_STL@@@_STL@@UAEPAXI@Z
_TEXT	SEGMENT PARA USE32 PUBLIC 'CODE'
_TEXT	ENDS
;	COMDAT ??0_STLP_mutex@_STL@@QAE@XZ
_TEXT	SEGMENT PARA USE32 PUBLIC 'CODE'
_TEXT	ENDS
;	COMDAT ?_M_initialize@_STLP_mutex_base@_STL@@QAEXXZ
_TEXT	SEGMENT PARA USE32 PUBLIC 'CODE'
_TEXT	ENDS
;	COMDAT ??1_STLP_mutex@_STL@@QAE@XZ
_TEXT	SEGMENT PARA USE32 PUBLIC 'CODE'
_TEXT	ENDS
;	COMDAT ?_M_destroy@_STLP_mutex_base@_STL@@QAEXXZ
_TEXT	SEGMENT PARA USE32 PUBLIC 'CODE'
_TEXT	ENDS
;	COMDAT ?_FILE_I_set@_STL@@YAXPAU_iobuf@@PAD11@Z
_TEXT	SEGMENT PARA USE32 PUBLIC 'CODE'
_TEXT	ENDS
;	COMDAT ?_FILE_O_set@_STL@@YAXPAU_iobuf@@PAD11@Z
_TEXT	SEGMENT PARA USE32 PUBLIC 'CODE'
_TEXT	ENDS
;	COMDAT ?sputn@?$basic_streambuf@DV?$char_traits@D@_STL@@@_STL@@QAEHPBDH@Z
_TEXT	SEGMENT PARA USE32 PUBLIC 'CODE'
_TEXT	ENDS
;	COMDAT ?deallocate@?$__node_alloc@$00$0A@@_STL@@SAXPAXI@Z
_TEXT	SEGMENT PARA USE32 PUBLIC 'CODE'
_TEXT	ENDS
;	COMDAT ?__stl_delete@_STL@@YAXPAX@Z
_TEXT	SEGMENT PARA USE32 PUBLIC 'CODE'
_TEXT	ENDS
;	COMDAT ?_M_check_exception_mask@ios_base@_STL@@IAEXXZ
_TEXT	SEGMENT PARA USE32 PUBLIC 'CODE'
_TEXT	ENDS
;	COMDAT ?_M_clear_nothrow@ios_base@_STL@@IAEXH@Z
_TEXT	SEGMENT PARA USE32 PUBLIC 'CODE'
_TEXT	ENDS
;	COMDAT ?_Destroy@_STL@@YAXPAD0@Z
_TEXT	SEGMENT PARA USE32 PUBLIC 'CODE'
_TEXT	ENDS
;	COMDAT ?__copy_trivial@_STL@@YAPAXPBX0PAX@Z
_TEXT	SEGMENT PARA USE32 PUBLIC 'CODE'
_TEXT	ENDS
;	COMDAT ?rdstate@ios_base@_STL@@QBEHXZ
_TEXT	SEGMENT PARA USE32 PUBLIC 'CODE'
_TEXT	ENDS
;	COMDAT ??_7?$basic_istream@DV?$char_traits@D@_STL@@@_STL@@6B@
CONST	SEGMENT DWORD USE32 PUBLIC 'CONST'
CONST	ENDS
;	COMDAT ??_R4?$basic_istream@DV?$char_traits@D@_STL@@@_STL@@6B@
rdata$r	SEGMENT DWORD USE32 PUBLIC 'CONST'
rdata$r	ENDS
;	COMDAT ??_R3?$basic_istream@DV?$char_traits@D@_STL@@@_STL@@8
rdata$r	SEGMENT DWORD USE32 PUBLIC 'CONST'
rdata$r	ENDS
;	COMDAT ??_R2?$basic_istream@DV?$char_traits@D@_STL@@@_STL@@8
rdata$r	SEGMENT DWORD USE32 PUBLIC 'CONST'
rdata$r	ENDS
;	COMDAT ??_G?$basic_istream@DV?$char_traits@D@_STL@@@_STL@@UAEPAXI@Z
_TEXT	SEGMENT PARA USE32 PUBLIC 'CODE'
_TEXT	ENDS
;	COMDAT ??_D?$basic_istream@DV?$char_traits@D@_STL@@@_STL@@QAEXXZ
_TEXT	SEGMENT PARA USE32 PUBLIC 'CODE'
_TEXT	ENDS
;	COMDAT ??_8?$basic_istream@DV?$char_traits@D@_STL@@@_STL@@7B@
CONST	SEGMENT DWORD USE32 PUBLIC 'CONST'
CONST	ENDS
;	COMDAT ??_7?$basic_ifstream@DV?$char_traits@D@_STL@@@_STL@@6B@
CONST	SEGMENT DWORD USE32 PUBLIC 'CONST'
CONST	ENDS
;	COMDAT ??1?$basic_istream@DV?$char_traits@D@_STL@@@_STL@@UAE@XZ
_TEXT	SEGMENT PARA USE32 PUBLIC 'CODE'
_TEXT	ENDS
;	COMDAT ??_8?$basic_ifstream@DV?$char_traits@D@_STL@@@_STL@@7B@
CONST	SEGMENT DWORD USE32 PUBLIC 'CONST'
CONST	ENDS
;	COMDAT ??1?$basic_filebuf@DV?$char_traits@D@_STL@@@_STL@@UAE@XZ
_TEXT	SEGMENT PARA USE32 PUBLIC 'CODE'
_TEXT	ENDS
;	COMDAT ??1?$basic_ostream@DV?$char_traits@D@_STL@@@_STL@@UAE@XZ
_TEXT	SEGMENT PARA USE32 PUBLIC 'CODE'
_TEXT	ENDS
;	COMDAT ??_7?$basic_ostream@DV?$char_traits@D@_STL@@@_STL@@6B@
CONST	SEGMENT DWORD USE32 PUBLIC 'CONST'
CONST	ENDS
;	COMDAT ??_R4?$basic_ostream@DV?$char_traits@D@_STL@@@_STL@@6B@
rdata$r	SEGMENT DWORD USE32 PUBLIC 'CONST'
rdata$r	ENDS
;	COMDAT ??_R3?$basic_ostream@DV?$char_traits@D@_STL@@@_STL@@8
rdata$r	SEGMENT DWORD USE32 PUBLIC 'CONST'
rdata$r	ENDS
;	COMDAT ??_R2?$basic_ostream@DV?$char_traits@D@_STL@@@_STL@@8
rdata$r	SEGMENT DWORD USE32 PUBLIC 'CONST'
rdata$r	ENDS
;	COMDAT ??_G?$basic_ostream@DV?$char_traits@D@_STL@@@_STL@@UAEPAXI@Z
_TEXT	SEGMENT PARA USE32 PUBLIC 'CODE'
_TEXT	ENDS
;	COMDAT ??_D?$basic_ostream@DV?$char_traits@D@_STL@@@_STL@@QAEXXZ
_TEXT	SEGMENT PARA USE32 PUBLIC 'CODE'
_TEXT	ENDS
;	COMDAT ??_7?$basic_ofstream@DV?$char_traits@D@_STL@@@_STL@@6B@
CONST	SEGMENT DWORD USE32 PUBLIC 'CONST'
CONST	ENDS
;	COMDAT ?setp@?$basic_streambuf@DV?$char_traits@D@_STL@@@_STL@@IAEXPAD0@Z
_TEXT	SEGMENT PARA USE32 PUBLIC 'CODE'
_TEXT	ENDS
;	COMDAT ?setg@?$basic_streambuf@DV?$char_traits@D@_STL@@@_STL@@IAEXPAD00@Z
_TEXT	SEGMENT PARA USE32 PUBLIC 'CODE'
_TEXT	ENDS
;	COMDAT ?__is_open@_Filebuf_base@_STL@@QBE_NXZ
_TEXT	SEGMENT PARA USE32 PUBLIC 'CODE'
_TEXT	ENDS
;	COMDAT ?allocate@?$__node_alloc@$00$0A@@_STL@@SAPAXI@Z
_TEXT	SEGMENT PARA USE32 PUBLIC 'CODE'
_TEXT	ENDS
;	COMDAT ?__stl_new@_STL@@YAPAXI@Z
_TEXT	SEGMENT PARA USE32 PUBLIC 'CODE'
_TEXT	ENDS
;	COMDAT ??1?$_STLP_alloc_proxy@PADDV?$allocator@D@_STL@@@_STL@@QAE@XZ
_TEXT	SEGMENT PARA USE32 PUBLIC 'CODE'
_TEXT	ENDS
;	COMDAT ?length@?$char_traits@D@_STL@@SAIPBD@Z
_TEXT	SEGMENT PARA USE32 PUBLIC 'CODE'
_TEXT	ENDS
;	COMDAT ??1?$allocator@D@_STL@@QAE@XZ
_TEXT	SEGMENT PARA USE32 PUBLIC 'CODE'
_TEXT	ENDS
;	COMDAT ?eof@?$__char_traits_base@DH@_STL@@SAHXZ
_TEXT	SEGMENT PARA USE32 PUBLIC 'CODE'
_TEXT	ENDS
;	COMDAT ??1?$basic_ios@DV?$char_traits@D@_STL@@@_STL@@UAE@XZ
_TEXT	SEGMENT PARA USE32 PUBLIC 'CODE'
_TEXT	ENDS
;	COMDAT ??_7ovfstream@@6B@
CONST	SEGMENT DWORD USE32 PUBLIC 'CONST'
CONST	ENDS
;	COMDAT ??_7ivfstream@@6B@
CONST	SEGMENT DWORD USE32 PUBLIC 'CONST'
CONST	ENDS
;	COMDAT ??0?$basic_string@DV?$char_traits@D@_STL@@V?$allocator@D@2@@_STL@@QAE@XZ
_TEXT	SEGMENT PARA USE32 PUBLIC 'CODE'
_TEXT	ENDS
;	COMDAT ??0?$allocator@D@_STL@@QAE@XZ
_TEXT	SEGMENT PARA USE32 PUBLIC 'CODE'
_TEXT	ENDS
;	COMDAT ??1?$_String_base@DV?$allocator@D@_STL@@@_STL@@QAE@XZ
_TEXT	SEGMENT PARA USE32 PUBLIC 'CODE'
_TEXT	ENDS
;	COMDAT ??1?$basic_string@DV?$char_traits@D@_STL@@V?$allocator@D@2@@_STL@@QAE@XZ
_TEXT	SEGMENT PARA USE32 PUBLIC 'CODE'
_TEXT	ENDS
;	COMDAT ??_7iovfs_base@@6B@
CONST	SEGMENT DWORD USE32 PUBLIC 'CONST'
CONST	ENDS
;	COMDAT ??_7IFileIO@@6B@
CONST	SEGMENT DWORD USE32 PUBLIC 'CONST'
CONST	ENDS
sxdata	SEGMENT DWORD USE32 'SXDATA'
sxdata	ENDS
FLAT	GROUP _DATA, CONST, _BSS
	ASSUME	CS: FLAT, DS: FLAT, SS: FLAT
endif

INCLUDELIB LIBCMT
INCLUDELIB OLDNAMES

PUBLIC	??2@YAPAXIPAX@Z					; operator new
; Function compile flags: /Ogsy
; File c:\program files\microsoft visual studio .net 2003\vc7\include\new
;	COMDAT ??2@YAPAXIPAX@Z
_TEXT	SEGMENT
___formal$ = 8						; size = 4
__Where$ = 12						; size = 4
??2@YAPAXIPAX@Z PROC NEAR				; operator new, COMDAT

; 64   : 	return (_Where);

  00000	8b 44 24 08	 mov	 eax, DWORD PTR __Where$[esp-4]

; 65   : 	}

  00004	c3		 ret	 0
??2@YAPAXIPAX@Z ENDP					; operator new
_TEXT	ENDS
PUBLIC	?__stl_new@_STL@@YAPAXI@Z			; _STL::__stl_new
EXTRN	??2@YAPAXI@Z:NEAR				; operator new
; Function compile flags: /Ogsy
; File c:\stlport-4.6.1\stlport\stl\_new.h
;	COMDAT ?__stl_new@_STL@@YAPAXI@Z
_TEXT	SEGMENT
___n$ = 8						; size = 4
?__stl_new@_STL@@YAPAXI@Z PROC NEAR			; _STL::__stl_new, COMDAT

; 86   : inline void*  _STLP_CALL __stl_new(size_t __n)   { _STLP_CHECK_NULL_ALLOC(::operator _STLP_NEW(__n)); }

  00000	e9 00 00 00 00	 jmp	 ??2@YAPAXI@Z		; operator new
?__stl_new@_STL@@YAPAXI@Z ENDP				; _STL::__stl_new
_TEXT	ENDS
PUBLIC	?__stl_delete@_STL@@YAXPAX@Z			; _STL::__stl_delete
EXTRN	??3@YAXPAX@Z:NEAR				; operator delete
; Function compile flags: /Ogsy
;	COMDAT ?__stl_delete@_STL@@YAXPAX@Z
_TEXT	SEGMENT
___p$ = 8						; size = 4
?__stl_delete@_STL@@YAXPAX@Z PROC NEAR			; _STL::__stl_delete, COMDAT

; 87   : inline void   _STLP_CALL __stl_delete(void* __p) { ::operator delete(__p); }

  00000	e9 00 00 00 00	 jmp	 ??3@YAXPAX@Z		; operator delete
?__stl_delete@_STL@@YAXPAX@Z ENDP			; _STL::__stl_delete
_TEXT	ENDS
PUBLIC	?_M_initialize@_STLP_mutex_base@_STL@@QAEXXZ	; _STL::_STLP_mutex_base::_M_initialize
; Function compile flags: /Ogsy
; File c:\stlport-4.6.1\stlport\stl\_threads.h
;	COMDAT ?_M_initialize@_STLP_mutex_base@_STL@@QAEXXZ
_TEXT	SEGMENT
?_M_initialize@_STLP_mutex_base@_STL@@QAEXXZ PROC NEAR	; _STL::_STLP_mutex_base::_M_initialize, COMDAT
; _this$ = ecx

; 321  :   inline void _M_initialize() { _M_lock=0; }

  00000	c7 01 00 00 00
	00		 mov	 DWORD PTR [ecx], 0
  00006	c3		 ret	 0
?_M_initialize@_STLP_mutex_base@_STL@@QAEXXZ ENDP	; _STL::_STLP_mutex_base::_M_initialize
_TEXT	ENDS
PUBLIC	?_M_destroy@_STLP_mutex_base@_STL@@QAEXXZ	; _STL::_STLP_mutex_base::_M_destroy
; Function compile flags: /Ogsy
;	COMDAT ?_M_destroy@_STLP_mutex_base@_STL@@QAEXXZ
_TEXT	SEGMENT
?_M_destroy@_STLP_mutex_base@_STL@@QAEXXZ PROC NEAR	; _STL::_STLP_mutex_base::_M_destroy, COMDAT
; _this$ = ecx

; 322  :   inline void _M_destroy() {}

  00000	c3		 ret	 0
?_M_destroy@_STLP_mutex_base@_STL@@QAEXXZ ENDP		; _STL::_STLP_mutex_base::_M_destroy
_TEXT	ENDS
PUBLIC	??0_STLP_mutex@_STL@@QAE@XZ			; _STL::_STLP_mutex::_STLP_mutex
; Function compile flags: /Ogsy
;	COMDAT ??0_STLP_mutex@_STL@@QAE@XZ
_TEXT	SEGMENT
??0_STLP_mutex@_STL@@QAE@XZ PROC NEAR			; _STL::_STLP_mutex::_STLP_mutex, COMDAT
; _this$ = ecx

; 467  :     inline _STLP_mutex () { _M_initialize(); }

  00000	8b c1		 mov	 eax, ecx
  00002	c7 00 00 00 00
	00		 mov	 DWORD PTR [eax], 0
  00008	c3		 ret	 0
??0_STLP_mutex@_STL@@QAE@XZ ENDP			; _STL::_STLP_mutex::_STLP_mutex
_TEXT	ENDS
PUBLIC	??1_STLP_mutex@_STL@@QAE@XZ			; _STL::_STLP_mutex::~_STLP_mutex
; Function compile flags: /Ogsy
;	COMDAT ??1_STLP_mutex@_STL@@QAE@XZ
_TEXT	SEGMENT
??1_STLP_mutex@_STL@@QAE@XZ PROC NEAR			; _STL::_STLP_mutex::~_STLP_mutex, COMDAT
; _this$ = ecx

; 468  :     inline ~_STLP_mutex () { _M_destroy(); }

  00000	c3		 ret	 0
??1_STLP_mutex@_STL@@QAE@XZ ENDP			; _STL::_STLP_mutex::~_STLP_mutex
_TEXT	ENDS
PUBLIC	?_Destroy@_STL@@YAXPAD0@Z			; _STL::_Destroy
; Function compile flags: /Ogsy
; File c:\stlport-4.6.1\stlport\stl\_construct.h
;	COMDAT ?_Destroy@_STL@@YAXPAD0@Z
_TEXT	SEGMENT
___formal$ = 8						; size = 4
___formal$ = 12						; size = 4
?_Destroy@_STL@@YAXPAD0@Z PROC NEAR			; _STL::_Destroy, COMDAT

; 142  : inline void _Destroy(char*, char*) {}

  00000	c3		 ret	 0
?_Destroy@_STL@@YAXPAD0@Z ENDP				; _STL::_Destroy
_TEXT	ENDS
PUBLIC	?__copy_trivial@_STL@@YAPAXPBX0PAX@Z		; _STL::__copy_trivial
EXTRN	_memmove:NEAR
; Function compile flags: /Ogsy
; File c:\stlport-4.6.1\stlport\stl\_algobase.h
;	COMDAT ?__copy_trivial@_STL@@YAPAXPBX0PAX@Z
_TEXT	SEGMENT
___first$ = 8						; size = 4
___last$ = 12						; size = 4
___result$ = 16						; size = 4
?__copy_trivial@_STL@@YAPAXPBX0PAX@Z PROC NEAR		; _STL::__copy_trivial, COMDAT

; 147  : __copy_trivial(const void* __first, const void* __last, void* __result) {

  00000	55		 push	 ebp
  00001	8b ec		 mov	 ebp, esp
  00003	56		 push	 esi

; 148  :   return (__last == __first) ? __result : 
; 149  :     ((char*)memmove(__result, __first, ((const char*)__last - (const char*)__first))) + 
; 150  :     ((const char*)__last - (const char*)__first);

  00004	8b 75 0c	 mov	 esi, DWORD PTR ___last$[ebp]
  00007	3b 75 08	 cmp	 esi, DWORD PTR ___first$[ebp]
  0000a	75 05		 jne	 SHORT $L103008
  0000c	8b 45 10	 mov	 eax, DWORD PTR ___result$[ebp]
  0000f	eb 14		 jmp	 SHORT $L103009
$L103008:
  00011	2b 75 08	 sub	 esi, DWORD PTR ___first$[ebp]
  00014	56		 push	 esi
  00015	ff 75 08	 push	 DWORD PTR ___first$[ebp]
  00018	ff 75 10	 push	 DWORD PTR ___result$[ebp]
  0001b	e8 00 00 00 00	 call	 _memmove
  00020	83 c4 0c	 add	 esp, 12			; 0000000cH
  00023	03 c6		 add	 eax, esi
$L103009:
  00025	5e		 pop	 esi

; 151  : }

  00026	5d		 pop	 ebp
  00027	c3		 ret	 0
?__copy_trivial@_STL@@YAPAXPBX0PAX@Z ENDP		; _STL::__copy_trivial
_TEXT	ENDS
PUBLIC	?read@ivfstream@@QAEXPADI@Z			; ivfstream::read
; Function compile flags: /Ogsy
; File c:\darkeden\designed_common\project\client\virtualfilesystem\vfstream.inl
;	COMDAT ?read@ivfstream@@QAEXPADI@Z
_TEXT	SEGMENT
_buf$ = 8						; size = 4
_len$ = 12						; size = 4
?read@ivfstream@@QAEXPADI@Z PROC NEAR			; ivfstream::read, COMDAT
; _this$ = ecx

; 81   : 	if(m_pFileIO) m_pFileIO->read(buf, len);

  00000	83 79 04 00	 cmp	 DWORD PTR [ecx+4], 0
  00004	74 08		 je	 SHORT $L100362
  00006	8b 49 04	 mov	 ecx, DWORD PTR [ecx+4]
  00009	8b 01		 mov	 eax, DWORD PTR [ecx]
  0000b	ff 60 10	 jmp	 DWORD PTR [eax+16]
$L100362:

; 82   : }

  0000e	c2 08 00	 ret	 8
?read@ivfstream@@QAEXPADI@Z ENDP			; ivfstream::read
_TEXT	ENDS
PUBLIC	?to_char_type@?$char_traits@D@_STL@@SADABH@Z	; _STL::char_traits<char>::to_char_type
; Function compile flags: /Ogsy
; File c:\stlport-4.6.1\stlport\stl\char_traits.h
;	COMDAT ?to_char_type@?$char_traits@D@_STL@@SADABH@Z
_TEXT	SEGMENT
___c$ = 8						; size = 4
?to_char_type@?$char_traits@D@_STL@@SADABH@Z PROC NEAR	; _STL::char_traits<char>::to_char_type, COMDAT

; 228  :     return (char)(unsigned char)__c;

  00000	8b 44 24 04	 mov	 eax, DWORD PTR ___c$[esp-4]
  00004	8a 00		 mov	 al, BYTE PTR [eax]

; 229  :   }

  00006	c3		 ret	 0
?to_char_type@?$char_traits@D@_STL@@SADABH@Z ENDP	; _STL::char_traits<char>::to_char_type
_TEXT	ENDS
PUBLIC	?to_int_type@?$char_traits@D@_STL@@SAHABD@Z	; _STL::char_traits<char>::to_int_type
; Function compile flags: /Ogsy
;	COMDAT ?to_int_type@?$char_traits@D@_STL@@SAHABD@Z
_TEXT	SEGMENT
___c$ = 8						; size = 4
?to_int_type@?$char_traits@D@_STL@@SAHABD@Z PROC NEAR	; _STL::char_traits<char>::to_int_type, COMDAT

; 232  :     return (unsigned char)__c;

  00000	8b 44 24 04	 mov	 eax, DWORD PTR ___c$[esp-4]
  00004	0f b6 00	 movzx	 eax, BYTE PTR [eax]

; 233  :   }

  00007	c3		 ret	 0
?to_int_type@?$char_traits@D@_STL@@SAHABD@Z ENDP	; _STL::char_traits<char>::to_int_type
_TEXT	ENDS
PUBLIC	?assign@?$char_traits@D@_STL@@SAXAADABD@Z	; _STL::char_traits<char>::assign
; Function compile flags: /Ogsy
;	COMDAT ?assign@?$char_traits@D@_STL@@SAXAADABD@Z
_TEXT	SEGMENT
___c1$ = 8						; size = 4
___c2$ = 12						; size = 4
?assign@?$char_traits@D@_STL@@SAXAADABD@Z PROC NEAR	; _STL::char_traits<char>::assign, COMDAT

; 240  :   static void _STLP_CALL assign(char& __c1, const char& __c2) { __c1 = __c2; }

  00000	8b 44 24 08	 mov	 eax, DWORD PTR ___c2$[esp-4]
  00004	8a 00		 mov	 al, BYTE PTR [eax]
  00006	8b 4c 24 04	 mov	 ecx, DWORD PTR ___c1$[esp-4]
  0000a	88 01		 mov	 BYTE PTR [ecx], al
  0000c	c3		 ret	 0
?assign@?$char_traits@D@_STL@@SAXAADABD@Z ENDP		; _STL::char_traits<char>::assign
_TEXT	ENDS
PUBLIC	?GetString@MString@@QBEPADXZ			; MString::GetString
; Function compile flags: /Ogsy
; File c:\darkeden\designed_common\project\client\mstring.h
;	COMDAT ?GetString@MString@@QBEPADXZ
_TEXT	SEGMENT
?GetString@MString@@QBEPADXZ PROC NEAR			; MString::GetString, COMDAT
; _this$ = ecx

; 39   : 		char*		GetString() const		{ return m_pString; }

  00000	8b 41 08	 mov	 eax, DWORD PTR [ecx+8]
  00003	c3		 ret	 0
?GetString@MString@@QBEPADXZ ENDP			; MString::GetString
_TEXT	ENDS
PUBLIC	?widen@?$ctype@D@_STL@@QBEDD@Z			; _STL::ctype<char>::widen
; Function compile flags: /Ogsy
; File c:\stlport-4.6.1\stlport\stl\_ctype.h
;	COMDAT ?widen@?$ctype@D@_STL@@QBEDD@Z
_TEXT	SEGMENT
___c$ = 8						; size = 1
?widen@?$ctype@D@_STL@@QBEDD@Z PROC NEAR		; _STL::ctype<char>::widen, COMDAT
; _this$ = ecx

; 102  :   char        widen(char __c) const { return do_widen(__c); }

  00000	8b 01		 mov	 eax, DWORD PTR [ecx]
  00002	ff 60 18	 jmp	 DWORD PTR [eax+24]
?widen@?$ctype@D@_STL@@QBEDD@Z ENDP			; _STL::ctype<char>::widen
_TEXT	ENDS
PUBLIC	?LoadFromFile@APPEND_PATCH_NODE@@QAEXAAVivfstream@@@Z ; APPEND_PATCH_NODE::LoadFromFile
; Function compile flags: /Ogsy
; File c:\darkeden\designed_common\project\client\appendpatchinfo.cpp
;	COMDAT ?LoadFromFile@APPEND_PATCH_NODE@@QAEXAAVivfstream@@@Z
_TEXT	SEGMENT
_file$ = 8						; size = 4
?LoadFromFile@APPEND_PATCH_NODE@@QAEXAAVivfstream@@@Z PROC NEAR ; APPEND_PATCH_NODE::LoadFromFile, COMDAT
; _this$ = ecx

; 133  : {

  00000	53		 push	 ebx
  00001	56		 push	 esi

; 134  : 	appendFilename.LoadFromFile( file );

  00002	8b 74 24 0c	 mov	 esi, DWORD PTR _file$[esp+4]
  00006	57		 push	 edi
  00007	8b f9		 mov	 edi, ecx
  00009	8b 07		 mov	 eax, DWORD PTR [edi]
  0000b	56		 push	 esi
  0000c	ff 50 08	 call	 DWORD PTR [eax+8]

; 135  : 	file.read((char*)&appendFilesize, 4);

  0000f	33 db		 xor	 ebx, ebx
  00011	39 5e 04	 cmp	 DWORD PTR [esi+4], ebx
  00014	74 5a		 je	 SHORT $L103053
  00016	8b 4e 04	 mov	 ecx, DWORD PTR [esi+4]
  00019	8b 01		 mov	 eax, DWORD PTR [ecx]
  0001b	6a 04		 push	 4
  0001d	8d 57 0c	 lea	 edx, DWORD PTR [edi+12]
  00020	52		 push	 edx
  00021	ff 50 10	 call	 DWORD PTR [eax+16]

; 136  : 	file.read((char*)&appSpkSize, 2);

  00024	39 5e 04	 cmp	 DWORD PTR [esi+4], ebx
  00027	74 47		 je	 SHORT $L103053
  00029	8b 4e 04	 mov	 ecx, DWORD PTR [esi+4]
  0002c	8b 01		 mov	 eax, DWORD PTR [ecx]
  0002e	6a 02		 push	 2
  00030	8d 57 10	 lea	 edx, DWORD PTR [edi+16]
  00033	52		 push	 edx
  00034	ff 50 10	 call	 DWORD PTR [eax+16]

; 137  : 	file.read((char*)&writePosition, 4);

  00037	39 5e 04	 cmp	 DWORD PTR [esi+4], ebx
  0003a	74 34		 je	 SHORT $L103053
  0003c	8b 4e 04	 mov	 ecx, DWORD PTR [esi+4]
  0003f	8b 01		 mov	 eax, DWORD PTR [ecx]
  00041	6a 04		 push	 4
  00043	8d 57 14	 lea	 edx, DWORD PTR [edi+20]
  00046	52		 push	 edx
  00047	ff 50 10	 call	 DWORD PTR [eax+16]

; 138  : 	file.read((char*)&afterFilesize, 4);

  0004a	39 5e 04	 cmp	 DWORD PTR [esi+4], ebx
  0004d	74 21		 je	 SHORT $L103053
  0004f	8b 4e 04	 mov	 ecx, DWORD PTR [esi+4]
  00052	8b 01		 mov	 eax, DWORD PTR [ecx]
  00054	6a 04		 push	 4
  00056	8d 57 18	 lea	 edx, DWORD PTR [edi+24]
  00059	52		 push	 edx
  0005a	ff 50 10	 call	 DWORD PTR [eax+16]

; 139  : 	file.read((char*)&afterSpkSize, 2);

  0005d	39 5e 04	 cmp	 DWORD PTR [esi+4], ebx
  00060	74 0e		 je	 SHORT $L103053
  00062	8b 4e 04	 mov	 ecx, DWORD PTR [esi+4]
  00065	8b 01		 mov	 eax, DWORD PTR [ecx]
  00067	6a 02		 push	 2
  00069	83 c7 1c	 add	 edi, 28			; 0000001cH
  0006c	57		 push	 edi
  0006d	ff 50 10	 call	 DWORD PTR [eax+16]
$L103053:
  00070	5f		 pop	 edi
  00071	5e		 pop	 esi
  00072	5b		 pop	 ebx

; 140  : }

  00073	c2 04 00	 ret	 4
?LoadFromFile@APPEND_PATCH_NODE@@QAEXAAVivfstream@@@Z ENDP ; APPEND_PATCH_NODE::LoadFromFile
_TEXT	ENDS
PUBLIC	??1APPEND_PATCH_NODE@@QAE@XZ			; APPEND_PATCH_NODE::~APPEND_PATCH_NODE
EXTRN	??1MString@@UAE@XZ:NEAR				; MString::~MString
; Function compile flags: /Ogsy
;	COMDAT ??1APPEND_PATCH_NODE@@QAE@XZ
_TEXT	SEGMENT
??1APPEND_PATCH_NODE@@QAE@XZ PROC NEAR			; APPEND_PATCH_NODE::~APPEND_PATCH_NODE, COMDAT
; _this$ = ecx
  00000	e9 00 00 00 00	 jmp	 ??1MString@@UAE@XZ	; MString::~MString
??1APPEND_PATCH_NODE@@QAE@XZ ENDP			; APPEND_PATCH_NODE::~APPEND_PATCH_NODE
_TEXT	ENDS
PUBLIC	?SetOriginalInfo@AppendPatch@@QAEXPBDJG@Z	; AppendPatch::SetOriginalInfo
EXTRN	??4MString@@QAEXPBD@Z:NEAR			; MString::operator=
; Function compile flags: /Ogsy
;	COMDAT ?SetOriginalInfo@AppendPatch@@QAEXPBDJG@Z
_TEXT	SEGMENT
_orgFilename$ = 8					; size = 4
_orgFilesize$ = 12					; size = 4
_orgSpkSize$ = 16					; size = 2
?SetOriginalInfo@AppendPatch@@QAEXPBDJG@Z PROC NEAR	; AppendPatch::SetOriginalInfo, COMDAT
; _this$ = ecx

; 191  : {

  00000	56		 push	 esi

; 192  : 	m_orgFilename = orgFilename;

  00001	ff 74 24 08	 push	 DWORD PTR _orgFilename$[esp]
  00005	8b f1		 mov	 esi, ecx
  00007	e8 00 00 00 00	 call	 ??4MString@@QAEXPBD@Z	; MString::operator=

; 193  : 
; 194  : 	m_orgFilesize = orgFilesize;

  0000c	8b 44 24 0c	 mov	 eax, DWORD PTR _orgFilesize$[esp]
  00010	89 46 0c	 mov	 DWORD PTR [esi+12], eax

; 195  : 	m_orgSpkSize = orgSpkSize;

  00013	66 8b 44 24 10	 mov	 ax, WORD PTR _orgSpkSize$[esp]
  00018	66 89 46 10	 mov	 WORD PTR [esi+16], ax
  0001c	5e		 pop	 esi

; 196  : }

  0001d	c2 0c 00	 ret	 12			; 0000000cH
?SetOriginalInfo@AppendPatch@@QAEXPBDJG@Z ENDP		; AppendPatch::SetOriginalInfo
_TEXT	ENDS
PUBLIC	?SetFinalInfo@AppendPatch@@QAEXJG@Z		; AppendPatch::SetFinalInfo
; Function compile flags: /Ogsy
;	COMDAT ?SetFinalInfo@AppendPatch@@QAEXJG@Z
_TEXT	SEGMENT
_finalFilesize$ = 8					; size = 4
_finalSpkSize$ = 12					; size = 2
?SetFinalInfo@AppendPatch@@QAEXJG@Z PROC NEAR		; AppendPatch::SetFinalInfo, COMDAT
; _this$ = ecx

; 204  : 	m_finalFilesize = finalFilesize;

  00000	8b 44 24 04	 mov	 eax, DWORD PTR _finalFilesize$[esp-4]
  00004	89 41 14	 mov	 DWORD PTR [ecx+20], eax

; 205  : 	m_finalSpkSize = finalSpkSize;

  00007	66 8b 44 24 08	 mov	 ax, WORD PTR _finalSpkSize$[esp-4]
  0000c	66 89 41 18	 mov	 WORD PTR [ecx+24], ax

; 206  : }

  00010	c2 08 00	 ret	 8
?SetFinalInfo@AppendPatch@@QAEXJG@Z ENDP		; AppendPatch::SetFinalInfo
_TEXT	ENDS
PUBLIC	??0APPEND_PATCH_NODE@@QAE@XZ			; APPEND_PATCH_NODE::APPEND_PATCH_NODE
EXTRN	??0MString@@QAE@XZ:NEAR				; MString::MString
; Function compile flags: /Ogsy
;	COMDAT ??0APPEND_PATCH_NODE@@QAE@XZ
_TEXT	SEGMENT
??0APPEND_PATCH_NODE@@QAE@XZ PROC NEAR			; APPEND_PATCH_NODE::APPEND_PATCH_NODE, COMDAT
; _this$ = ecx
  00000	56		 push	 esi
  00001	8b f1		 mov	 esi, ecx
  00003	e8 00 00 00 00	 call	 ??0MString@@QAE@XZ	; MString::MString
  00008	8b c6		 mov	 eax, esi
  0000a	5e		 pop	 esi
  0000b	c3		 ret	 0
??0APPEND_PATCH_NODE@@QAE@XZ ENDP			; APPEND_PATCH_NODE::APPEND_PATCH_NODE
_TEXT	ENDS
PUBLIC	?ExecutePatch@AppendPatch@@QBE_NXZ		; AppendPatch::ExecutePatch
; Function compile flags: /Ogsy
;	COMDAT ?ExecutePatch@AppendPatch@@QBE_NXZ
_TEXT	SEGMENT
?ExecutePatch@AppendPatch@@QBE_NXZ PROC NEAR		; AppendPatch::ExecutePatch, COMDAT
; _this$ = ecx

; 376  : 	/*
; 377  : 	char szTempFileName[MAX_PATH];
; 378  : 	make_temp_filepath(m_orgFilename.GetString(), szTempFileName);
; 379  : 
; 380  : 	WORD tempSize = 0;	
; 381  : 	std::ofstream tempFileOut(szTempFileName, std::ios_base::binary);
; 382  : 	tempFileOut.write((const char*)&tempSize, 2);
; 383  : 	tempFileOut.close();
; 384  : 
; 385  : 	APPEND_PATCH_VECTOR::const_iterator iNode = m_AppendPatch.begin();
; 386  : 
; 387  : 	while (iNode != m_AppendPatch.end())
; 388  : 	{
; 389  : 		APPEND_PATCH_NODE* pNode = *iNode;
; 390  : 
; 391  : 		if (!pNode->Append(szTempFileName))
; 392  : 		{
; 393  : 			return false;
; 394  : 		}
; 395  : 	
; 396  : 		iNode++;
; 397  : 	}
; 398  : 
; 399  : 	std::ifstream tempFileIn(szTempFileName, std::ios_base::binary);
; 400  : 	tempFileIn.read((char*)&tempSize, 2);
; 401  : 	tempFileIn.close();
; 402  : 
; 403  : 	if(tempSize > 0)
; 404  : 		PUUFAppendPackImpl<WORD>(szTempFileName, m_orgFilename.GetString());
; 405  : 
; 406  : 	UUFDeleteFile(szTempFileName);
; 407  : 	*/
; 408  : 
; 409  : 	return true;

  00000	b0 01		 mov	 al, 1

; 410  : }

  00002	c3		 ret	 0
?ExecutePatch@AppendPatch@@QBE_NXZ ENDP			; AppendPatch::ExecutePatch
_TEXT	ENDS
PUBLIC	?CheckFinalInfo@AppendPatch@@QBE_NXZ		; AppendPatch::CheckFinalInfo
; Function compile flags: /Ogsy
;	COMDAT ?CheckFinalInfo@AppendPatch@@QBE_NXZ
_TEXT	SEGMENT
?CheckFinalInfo@AppendPatch@@QBE_NXZ PROC NEAR		; AppendPatch::CheckFinalInfo, COMDAT
; _this$ = ecx

; 418  : 	/*
; 419  : 	WORD spkSize	= 0;
; 420  : 	long fpEnd		= 0;
; 421  : 
; 422  : 	//      
; 423  : 	if(!access(m_orgFilename.GetString(), 0))
; 424  : 	{
; 425  : 		std::ifstream orgFile(m_orgFilename.GetString(), std::ios::binary);
; 426  : 		if(orgFile.is_open())
; 427  : 		{
; 428  : 			orgFile.read((char*)&spkSize, 2);	// Sprite 
; 429  : 
; 430  : 			orgFile.seekg( 0, std::ios::end );
; 431  : 			fpEnd = orgFile.tellg();
; 432  : 
; 433  : 			orgFile.close();
; 434  : 		}
; 435  : 	}
; 436  : 	//    Package   
; 437  : 	else
; 438  : 	{
; 439  : 		const PACKAGEINNERPATH_DATA* pPPD = CPackagePath::Instance()->GetPackageInnerPathData(m_orgFilename.GetString());
; 440  : 		if(!pPPD) return false;
; 441  : 
; 442  : 		LPCTSTR	packagePath	= CPackagePath::Instance()->GetPackagePath(pPPD->nPackageIdx);
; 443  : 		if(!packagePath) return false;
; 444  : 
; 445  : 		char szTempFileName[MAX_PATH];
; 446  : 		make_temp_filepath(packagePath, szTempFileName);
; 447  : 		
; 448  : 		//  Package     
; 449  : 		//   hdr .
; 450  : 		zzip_dir_hdr* pHDR = NULL;
; 451  : 		CPackageCacheData* pPackageData	= CPackageCache::Instance()->GetCacheData(szTempFileName);
; 452  : 		if(pPackageData)
; 453  : 		{
; 454  : 			pHDR = pPackageData->GetFileInfo(pPPD->strInnerPath.c_str());
; 455  : 		}
; 456  : 
; 457  : 		//  Package   
; 458  : 		//  Package .
; 459  : 		if(!pHDR)
; 460  : 		{
; 461  : 			pPackageData = CPackageCache::Instance()->GetCacheData(packagePath);
; 462  : 			if(!pPackageData) return false;
; 463  : 
; 464  : 			pHDR = pPackageData->GetFileInfo(pPPD->strInnerPath.c_str());
; 465  : 		}
; 466  : 		
; 467  : 		if(!pHDR) return false;
; 468  : 
; 469  : 		zzip_dir* pDir = pPackageData->GetCompressedDir();
; 470  : 		if(!pDir) return false;
; 471  : 
; 472  : 		fpEnd = pHDR->d_usize;
; 473  : 
; 474  : 		CCompressedFileIO compressedFileIO;
; 475  : 		compressedFileIO.open_hdr(pDir, pHDR);
; 476  : 		compressedFileIO.read((char*)&spkSize, 2);
; 477  : 		compressedFileIO.close();
; 478  : 
; 479  : 		//          hdr  .
; 480  : 		CPackageCache::Instance()->DeleteCacheData(szTempFileName);
; 481  : 	}
; 482  : 
; 483  : 
; 484  : 	if (spkSize != m_finalSpkSize)
; 485  : 	{
; 486  : 		return false;
; 487  : 	}
; 488  : 
; 489  : 	if (fpEnd != m_finalFilesize)
; 490  : 	{
; 491  : 		return false;
; 492  : 	}
; 493  : 	*/
; 494  : 
; 495  : 	return true;

  00000	b0 01		 mov	 al, 1

; 496  : }

  00002	c3		 ret	 0
?CheckFinalInfo@AppendPatch@@QBE_NXZ ENDP		; AppendPatch::CheckFinalInfo
_TEXT	ENDS
PUBLIC	?eq_int_type@?$__char_traits_base@DH@_STL@@SA_NABH0@Z ; _STL::__char_traits_base<char,int>::eq_int_type
; Function compile flags: /Ogsy
; File c:\stlport-4.6.1\stlport\stl\char_traits.h
;	COMDAT ?eq_int_type@?$__char_traits_base@DH@_STL@@SA_NABH0@Z
_TEXT	SEGMENT
___c1$ = 8						; size = 4
___c2$ = 12						; size = 4
?eq_int_type@?$__char_traits_base@DH@_STL@@SA_NABH0@Z PROC NEAR ; _STL::__char_traits_base<char,int>::eq_int_type, COMDAT

; 193  :     return __c1 == __c2;

  00000	8b 44 24 04	 mov	 eax, DWORD PTR ___c1$[esp-4]
  00004	8b 00		 mov	 eax, DWORD PTR [eax]
  00006	8b 4c 24 08	 mov	 ecx, DWORD PTR ___c2$[esp-4]
  0000a	2b 01		 sub	 eax, DWORD PTR [ecx]
  0000c	f7 d8		 neg	 eax
  0000e	1b c0		 sbb	 eax, eax
  00010	40		 inc	 eax

; 194  :   }

  00011	c3		 ret	 0
?eq_int_type@?$__char_traits_base@DH@_STL@@SA_NABH0@Z ENDP ; _STL::__char_traits_base<char,int>::eq_int_type
_TEXT	ENDS
PUBLIC	??0?$fpos@H@_STL@@QAE@J@Z			; _STL::fpos<int>::fpos<int>
; Function compile flags: /Ogsy
;	COMDAT ??0?$fpos@H@_STL@@QAE@J@Z
_TEXT	SEGMENT
___pos$ = 8						; size = 4
??0?$fpos@H@_STL@@QAE@J@Z PROC NEAR			; _STL::fpos<int>::fpos<int>, COMDAT
; _this$ = ecx

; 78   :   fpos(streamoff __pos) : _M_pos(__pos), _M_st(_STLP_NULL_CHAR_INIT(_StateT)) {}

  00000	8b c1		 mov	 eax, ecx
  00002	8b 4c 24 04	 mov	 ecx, DWORD PTR ___pos$[esp-4]
  00006	83 60 04 00	 and	 DWORD PTR [eax+4], 0
  0000a	89 08		 mov	 DWORD PTR [eax], ecx
  0000c	c2 04 00	 ret	 4
??0?$fpos@H@_STL@@QAE@J@Z ENDP				; _STL::fpos<int>::fpos<int>
_TEXT	ENDS
PUBLIC	??B?$fpos@H@_STL@@QBEJXZ			; _STL::fpos<int>::operator long
; Function compile flags: /Ogsy
;	COMDAT ??B?$fpos@H@_STL@@QBEJXZ
_TEXT	SEGMENT
??B?$fpos@H@_STL@@QBEJXZ PROC NEAR			; _STL::fpos<int>::operator long, COMDAT
; _this$ = ecx

; 81   :   operator streamoff() const { return _M_pos; }

  00000	8b 01		 mov	 eax, DWORD PTR [ecx]
  00002	c3		 ret	 0
??B?$fpos@H@_STL@@QBEJXZ ENDP				; _STL::fpos<int>::operator long
_TEXT	ENDS
PUBLIC	?begin@?$vector@PAVAPPEND_PATCH_NODE@@V?$allocator@PAVAPPEND_PATCH_NODE@@@_STL@@@_STL@@QAEPAPAVAPPEND_PATCH_NODE@@XZ ; _STL::vector<APPEND_PATCH_NODE *,_STL::allocator<APPEND_PATCH_NODE *> >::begin
; Function compile flags: /Ogsy
; File c:\stlport-4.6.1\stlport\stl\_vector.h
;	COMDAT ?begin@?$vector@PAVAPPEND_PATCH_NODE@@V?$allocator@PAVAPPEND_PATCH_NODE@@@_STL@@@_STL@@QAEPAPAVAPPEND_PATCH_NODE@@XZ
_TEXT	SEGMENT
?begin@?$vector@PAVAPPEND_PATCH_NODE@@V?$allocator@PAVAPPEND_PATCH_NODE@@@_STL@@@_STL@@QAEPAPAVAPPEND_PATCH_NODE@@XZ PROC NEAR ; _STL::vector<APPEND_PATCH_NODE *,_STL::allocator<APPEND_PATCH_NODE *> >::begin, COMDAT
; _this$ = ecx

; 172  :   iterator begin()             { return this->_M_start; }

  00000	8b 01		 mov	 eax, DWORD PTR [ecx]
  00002	c3		 ret	 0
?begin@?$vector@PAVAPPEND_PATCH_NODE@@V?$allocator@PAVAPPEND_PATCH_NODE@@@_STL@@@_STL@@QAEPAPAVAPPEND_PATCH_NODE@@XZ ENDP ; _STL::vector<APPEND_PATCH_NODE *,_STL::allocator<APPEND_PATCH_NODE *> >::begin
_TEXT	ENDS
PUBLIC	?begin@?$vector@PAVAPPEND_PATCH_NODE@@V?$allocator@PAVAPPEND_PATCH_NODE@@@_STL@@@_STL@@QBEPBQAVAPPEND_PATCH_NODE@@XZ ; _STL::vector<APPEND_PATCH_NODE *,_STL::allocator<APPEND_PATCH_NODE *> >::begin
; Function compile flags: /Ogsy
;	COMDAT ?begin@?$vector@PAVAPPEND_PATCH_NODE@@V?$allocator@PAVAPPEND_PATCH_NODE@@@_STL@@@_STL@@QBEPBQAVAPPEND_PATCH_NODE@@XZ
_TEXT	SEGMENT
?begin@?$vector@PAVAPPEND_PATCH_NODE@@V?$allocator@PAVAPPEND_PATCH_NODE@@@_STL@@@_STL@@QBEPBQAVAPPEND_PATCH_NODE@@XZ PROC NEAR ; _STL::vector<APPEND_PATCH_NODE *,_STL::allocator<APPEND_PATCH_NODE *> >::begin, COMDAT
; _this$ = ecx

; 173  :   const_iterator begin() const { return this->_M_start; }

  00000	8b 01		 mov	 eax, DWORD PTR [ecx]
  00002	c3		 ret	 0
?begin@?$vector@PAVAPPEND_PATCH_NODE@@V?$allocator@PAVAPPEND_PATCH_NODE@@@_STL@@@_STL@@QBEPBQAVAPPEND_PATCH_NODE@@XZ ENDP ; _STL::vector<APPEND_PATCH_NODE *,_STL::allocator<APPEND_PATCH_NODE *> >::begin
_TEXT	ENDS
PUBLIC	?end@?$vector@PAVAPPEND_PATCH_NODE@@V?$allocator@PAVAPPEND_PATCH_NODE@@@_STL@@@_STL@@QAEPAPAVAPPEND_PATCH_NODE@@XZ ; _STL::vector<APPEND_PATCH_NODE *,_STL::allocator<APPEND_PATCH_NODE *> >::end
; Function compile flags: /Ogsy
;	COMDAT ?end@?$vector@PAVAPPEND_PATCH_NODE@@V?$allocator@PAVAPPEND_PATCH_NODE@@@_STL@@@_STL@@QAEPAPAVAPPEND_PATCH_NODE@@XZ
_TEXT	SEGMENT
?end@?$vector@PAVAPPEND_PATCH_NODE@@V?$allocator@PAVAPPEND_PATCH_NODE@@@_STL@@@_STL@@QAEPAPAVAPPEND_PATCH_NODE@@XZ PROC NEAR ; _STL::vector<APPEND_PATCH_NODE *,_STL::allocator<APPEND_PATCH_NODE *> >::end, COMDAT
; _this$ = ecx

; 174  :   iterator end()               { return this->_M_finish; }

  00000	8b 41 04	 mov	 eax, DWORD PTR [ecx+4]
  00003	c3		 ret	 0
?end@?$vector@PAVAPPEND_PATCH_NODE@@V?$allocator@PAVAPPEND_PATCH_NODE@@@_STL@@@_STL@@QAEPAPAVAPPEND_PATCH_NODE@@XZ ENDP ; _STL::vector<APPEND_PATCH_NODE *,_STL::allocator<APPEND_PATCH_NODE *> >::end
_TEXT	ENDS
PUBLIC	?end@?$vector@PAVAPPEND_PATCH_NODE@@V?$allocator@PAVAPPEND_PATCH_NODE@@@_STL@@@_STL@@QBEPBQAVAPPEND_PATCH_NODE@@XZ ; _STL::vector<APPEND_PATCH_NODE *,_STL::allocator<APPEND_PATCH_NODE *> >::end
; Function compile flags: /Ogsy
;	COMDAT ?end@?$vector@PAVAPPEND_PATCH_NODE@@V?$allocator@PAVAPPEND_PATCH_NODE@@@_STL@@@_STL@@QBEPBQAVAPPEND_PATCH_NODE@@XZ
_TEXT	SEGMENT
?end@?$vector@PAVAPPEND_PATCH_NODE@@V?$allocator@PAVAPPEND_PATCH_NODE@@@_STL@@@_STL@@QBEPBQAVAPPEND_PATCH_NODE@@XZ PROC NEAR ; _STL::vector<APPEND_PATCH_NODE *,_STL::allocator<APPEND_PATCH_NODE *> >::end, COMDAT
; _this$ = ecx

; 175  :   const_iterator end() const   { return this->_M_finish; }

  00000	8b 41 04	 mov	 eax, DWORD PTR [ecx+4]
  00003	c3		 ret	 0
?end@?$vector@PAVAPPEND_PATCH_NODE@@V?$allocator@PAVAPPEND_PATCH_NODE@@@_STL@@@_STL@@QBEPBQAVAPPEND_PATCH_NODE@@XZ ENDP ; _STL::vector<APPEND_PATCH_NODE *,_STL::allocator<APPEND_PATCH_NODE *> >::end
_TEXT	ENDS
PUBLIC	?size@?$vector@PAVAPPEND_PATCH_NODE@@V?$allocator@PAVAPPEND_PATCH_NODE@@@_STL@@@_STL@@QBEIXZ ; _STL::vector<APPEND_PATCH_NODE *,_STL::allocator<APPEND_PATCH_NODE *> >::size
; Function compile flags: /Ogsy
;	COMDAT ?size@?$vector@PAVAPPEND_PATCH_NODE@@V?$allocator@PAVAPPEND_PATCH_NODE@@@_STL@@@_STL@@QBEIXZ
_TEXT	SEGMENT
?size@?$vector@PAVAPPEND_PATCH_NODE@@V?$allocator@PAVAPPEND_PATCH_NODE@@@_STL@@@_STL@@QBEIXZ PROC NEAR ; _STL::vector<APPEND_PATCH_NODE *,_STL::allocator<APPEND_PATCH_NODE *> >::size, COMDAT
; _this$ = ecx

; 182  :   size_type size() const        { return size_type(this->_M_finish - this->_M_start); }

  00000	8b 41 04	 mov	 eax, DWORD PTR [ecx+4]
  00003	2b 01		 sub	 eax, DWORD PTR [ecx]
  00005	c1 f8 02	 sar	 eax, 2
  00008	c3		 ret	 0
?size@?$vector@PAVAPPEND_PATCH_NODE@@V?$allocator@PAVAPPEND_PATCH_NODE@@@_STL@@@_STL@@QBEIXZ ENDP ; _STL::vector<APPEND_PATCH_NODE *,_STL::allocator<APPEND_PATCH_NODE *> >::size
_TEXT	ENDS
PUBLIC	?back@?$vector@PAVAPPEND_PATCH_NODE@@V?$allocator@PAVAPPEND_PATCH_NODE@@@_STL@@@_STL@@QAEAAPAVAPPEND_PATCH_NODE@@XZ ; _STL::vector<APPEND_PATCH_NODE *,_STL::allocator<APPEND_PATCH_NODE *> >::back
; Function compile flags: /Ogsy
;	COMDAT ?back@?$vector@PAVAPPEND_PATCH_NODE@@V?$allocator@PAVAPPEND_PATCH_NODE@@@_STL@@@_STL@@QAEAAPAVAPPEND_PATCH_NODE@@XZ
_TEXT	SEGMENT
?back@?$vector@PAVAPPEND_PATCH_NODE@@V?$allocator@PAVAPPEND_PATCH_NODE@@@_STL@@@_STL@@QAEAAPAVAPPEND_PATCH_NODE@@XZ PROC NEAR ; _STL::vector<APPEND_PATCH_NODE *,_STL::allocator<APPEND_PATCH_NODE *> >::back, COMDAT
; _this$ = ecx

; 192  :   reference back()              { return *(end() - 1); }

  00000	8b 41 04	 mov	 eax, DWORD PTR [ecx+4]
  00003	83 e8 04	 sub	 eax, 4
  00006	c3		 ret	 0
?back@?$vector@PAVAPPEND_PATCH_NODE@@V?$allocator@PAVAPPEND_PATCH_NODE@@@_STL@@@_STL@@QAEAAPAVAPPEND_PATCH_NODE@@XZ ENDP ; _STL::vector<APPEND_PATCH_NODE *,_STL::allocator<APPEND_PATCH_NODE *> >::back
_TEXT	ENDS
PUBLIC	??0?$allocator@PAVAPPEND_PATCH_NODE@@@_STL@@QAE@XZ ; _STL::allocator<APPEND_PATCH_NODE *>::allocator<APPEND_PATCH_NODE *>
; Function compile flags: /Ogsy
; File c:\stlport-4.6.1\stlport\stl\_alloc.h
;	COMDAT ??0?$allocator@PAVAPPEND_PATCH_NODE@@@_STL@@QAE@XZ
_TEXT	SEGMENT
??0?$allocator@PAVAPPEND_PATCH_NODE@@@_STL@@QAE@XZ PROC NEAR ; _STL::allocator<APPEND_PATCH_NODE *>::allocator<APPEND_PATCH_NODE *>, COMDAT
; _this$ = ecx

; 345  :   allocator() _STLP_NOTHROW {}

  00000	8b c1		 mov	 eax, ecx
  00002	c3		 ret	 0
??0?$allocator@PAVAPPEND_PATCH_NODE@@@_STL@@QAE@XZ ENDP	; _STL::allocator<APPEND_PATCH_NODE *>::allocator<APPEND_PATCH_NODE *>
_TEXT	ENDS
PUBLIC	??1?$allocator@PAVAPPEND_PATCH_NODE@@@_STL@@QAE@XZ ; _STL::allocator<APPEND_PATCH_NODE *>::~allocator<APPEND_PATCH_NODE *>
; Function compile flags: /Ogsy
;	COMDAT ??1?$allocator@PAVAPPEND_PATCH_NODE@@@_STL@@QAE@XZ
_TEXT	SEGMENT
??1?$allocator@PAVAPPEND_PATCH_NODE@@@_STL@@QAE@XZ PROC NEAR ; _STL::allocator<APPEND_PATCH_NODE *>::~allocator<APPEND_PATCH_NODE *>, COMDAT
; _this$ = ecx

; 350  :   ~allocator() _STLP_NOTHROW {}

  00000	c3		 ret	 0
??1?$allocator@PAVAPPEND_PATCH_NODE@@@_STL@@QAE@XZ ENDP	; _STL::allocator<APPEND_PATCH_NODE *>::~allocator<APPEND_PATCH_NODE *>
_TEXT	ENDS
PUBLIC	?flags@ios_base@_STL@@QBEHXZ			; _STL::ios_base::flags
; Function compile flags: /Ogsy
; File c:\stlport-4.6.1\stlport\stl\_ios_base.h
;	COMDAT ?flags@ios_base@_STL@@QBEHXZ
_TEXT	SEGMENT
?flags@ios_base@_STL@@QBEHXZ PROC NEAR			; _STL::ios_base::flags, COMDAT
; _this$ = ecx

; 115  :   fmtflags flags() const { return _M_fmtflags; }

  00000	8b 41 04	 mov	 eax, DWORD PTR [ecx+4]
  00003	c3		 ret	 0
?flags@ios_base@_STL@@QBEHXZ ENDP			; _STL::ios_base::flags
_TEXT	ENDS
PUBLIC	?flags@ios_base@_STL@@QAEHH@Z			; _STL::ios_base::flags
; Function compile flags: /Ogsy
;	COMDAT ?flags@ios_base@_STL@@QAEHH@Z
_TEXT	SEGMENT
___flags$ = 8						; size = 4
?flags@ios_base@_STL@@QAEHH@Z PROC NEAR			; _STL::ios_base::flags, COMDAT
; _this$ = ecx

; 117  :     fmtflags __tmp = _M_fmtflags;
; 118  :     _M_fmtflags = __flags;

  00000	8b 54 24 04	 mov	 edx, DWORD PTR ___flags$[esp-4]
  00004	8b 41 04	 mov	 eax, DWORD PTR [ecx+4]
  00007	89 51 04	 mov	 DWORD PTR [ecx+4], edx

; 119  :     return __tmp;
; 120  :   }

  0000a	c2 04 00	 ret	 4
?flags@ios_base@_STL@@QAEHH@Z ENDP			; _STL::ios_base::flags
_TEXT	ENDS
PUBLIC	?precision@ios_base@_STL@@QAEHH@Z		; _STL::ios_base::precision
; Function compile flags: /Ogsy
;	COMDAT ?precision@ios_base@_STL@@QAEHH@Z
_TEXT	SEGMENT
___newprecision$ = 8					; size = 4
?precision@ios_base@_STL@@QAEHH@Z PROC NEAR		; _STL::ios_base::precision, COMDAT
; _this$ = ecx

; 137  :     streamsize __tmp = _M_precision;
; 138  :     _M_precision = __newprecision;

  00000	8b 54 24 04	 mov	 edx, DWORD PTR ___newprecision$[esp-4]
  00004	8b 41 18	 mov	 eax, DWORD PTR [ecx+24]
  00007	89 51 18	 mov	 DWORD PTR [ecx+24], edx

; 139  :     return __tmp;
; 140  :   }

  0000a	c2 04 00	 ret	 4
?precision@ios_base@_STL@@QAEHH@Z ENDP			; _STL::ios_base::precision
_TEXT	ENDS
PUBLIC	?width@ios_base@_STL@@QAEHH@Z			; _STL::ios_base::width
; Function compile flags: /Ogsy
;	COMDAT ?width@ios_base@_STL@@QAEHH@Z
_TEXT	SEGMENT
___newwidth$ = 8					; size = 4
?width@ios_base@_STL@@QAEHH@Z PROC NEAR			; _STL::ios_base::width, COMDAT
; _this$ = ecx

; 144  :     streamsize __tmp = _M_width;
; 145  :     _M_width = __newwidth;

  00000	8b 54 24 04	 mov	 edx, DWORD PTR ___newwidth$[esp-4]
  00004	8b 41 1c	 mov	 eax, DWORD PTR [ecx+28]
  00007	89 51 1c	 mov	 DWORD PTR [ecx+28], edx

; 146  :     return __tmp;
; 147  :   }

  0000a	c2 04 00	 ret	 4
?width@ios_base@_STL@@QAEHH@Z ENDP			; _STL::ios_base::width
_TEXT	ENDS
PUBLIC	?rdstate@ios_base@_STL@@QBEHXZ			; _STL::ios_base::rdstate
; Function compile flags: /Ogsy
;	COMDAT ?rdstate@ios_base@_STL@@QBEHXZ
_TEXT	SEGMENT
?rdstate@ios_base@_STL@@QBEHXZ PROC NEAR		; _STL::ios_base::rdstate, COMDAT
; _this$ = ecx

; 178  :   iostate rdstate() const { return _M_iostate; }

  00000	8b 41 08	 mov	 eax, DWORD PTR [ecx+8]
  00003	c3		 ret	 0
?rdstate@ios_base@_STL@@QBEHXZ ENDP			; _STL::ios_base::rdstate
_TEXT	ENDS
PUBLIC	?good@ios_base@_STL@@QBE_NXZ			; _STL::ios_base::good
; Function compile flags: /Ogsy
;	COMDAT ?good@ios_base@_STL@@QBE_NXZ
_TEXT	SEGMENT
?good@ios_base@_STL@@QBE_NXZ PROC NEAR			; _STL::ios_base::good, COMDAT
; _this$ = ecx

; 180  :   bool good() const { return _M_iostate == 0; }

  00000	33 c0		 xor	 eax, eax
  00002	39 41 08	 cmp	 DWORD PTR [ecx+8], eax
  00005	0f 94 c0	 sete	 al
  00008	c3		 ret	 0
?good@ios_base@_STL@@QBE_NXZ ENDP			; _STL::ios_base::good
_TEXT	ENDS
PUBLIC	?eof@ios_base@_STL@@QBE_NXZ			; _STL::ios_base::eof
; Function compile flags: /Ogsy
;	COMDAT ?eof@ios_base@_STL@@QBE_NXZ
_TEXT	SEGMENT
?eof@ios_base@_STL@@QBE_NXZ PROC NEAR			; _STL::ios_base::eof, COMDAT
; _this$ = ecx

; 181  :   bool eof() const { return (_M_iostate & eofbit) != 0; }

  00000	8b 41 08	 mov	 eax, DWORD PTR [ecx+8]
  00003	d1 e8		 shr	 eax, 1
  00005	83 e0 01	 and	 eax, 1
  00008	c3		 ret	 0
?eof@ios_base@_STL@@QBE_NXZ ENDP			; _STL::ios_base::eof
_TEXT	ENDS
PUBLIC	?fail@ios_base@_STL@@QBE_NXZ			; _STL::ios_base::fail
; Function compile flags: /Ogsy
;	COMDAT ?fail@ios_base@_STL@@QBE_NXZ
_TEXT	SEGMENT
?fail@ios_base@_STL@@QBE_NXZ PROC NEAR			; _STL::ios_base::fail, COMDAT
; _this$ = ecx

; 182  :   bool fail() const { return (_M_iostate & (failbit | badbit)) != 0; }

  00000	8b 41 08	 mov	 eax, DWORD PTR [ecx+8]
  00003	24 05		 and	 al, 5
  00005	f6 d8		 neg	 al
  00007	1b c0		 sbb	 eax, eax
  00009	f7 d8		 neg	 eax
  0000b	c3		 ret	 0
?fail@ios_base@_STL@@QBE_NXZ ENDP			; _STL::ios_base::fail
_TEXT	ENDS
PUBLIC	?_M_setstate_nothrow@ios_base@_STL@@IAEXH@Z	; _STL::ios_base::_M_setstate_nothrow
; Function compile flags: /Ogsy
;	COMDAT ?_M_setstate_nothrow@ios_base@_STL@@IAEXH@Z
_TEXT	SEGMENT
___state$ = 8						; size = 4
?_M_setstate_nothrow@ios_base@_STL@@IAEXH@Z PROC NEAR	; _STL::ios_base::_M_setstate_nothrow, COMDAT
; _this$ = ecx

; 193  :   void _M_setstate_nothrow(iostate __state) { _M_iostate |= __state; }

  00000	8b 44 24 04	 mov	 eax, DWORD PTR ___state$[esp-4]
  00004	09 41 08	 or	 DWORD PTR [ecx+8], eax
  00007	c2 04 00	 ret	 4
?_M_setstate_nothrow@ios_base@_STL@@IAEXH@Z ENDP	; _STL::ios_base::_M_setstate_nothrow
_TEXT	ENDS
PUBLIC	?_M_clear_nothrow@ios_base@_STL@@IAEXH@Z	; _STL::ios_base::_M_clear_nothrow
; Function compile flags: /Ogsy
;	COMDAT ?_M_clear_nothrow@ios_base@_STL@@IAEXH@Z
_TEXT	SEGMENT
___state$ = 8						; size = 4
?_M_clear_nothrow@ios_base@_STL@@IAEXH@Z PROC NEAR	; _STL::ios_base::_M_clear_nothrow, COMDAT
; _this$ = ecx

; 194  :   void _M_clear_nothrow(iostate __state) { _M_iostate = __state; }

  00000	8b 44 24 04	 mov	 eax, DWORD PTR ___state$[esp-4]
  00004	89 41 08	 mov	 DWORD PTR [ecx+8], eax
  00007	c2 04 00	 ret	 4
?_M_clear_nothrow@ios_base@_STL@@IAEXH@Z ENDP		; _STL::ios_base::_M_clear_nothrow
_TEXT	ENDS
PUBLIC	?_M_get_exception_mask@ios_base@_STL@@IBEHXZ	; _STL::ios_base::_M_get_exception_mask
; Function compile flags: /Ogsy
;	COMDAT ?_M_get_exception_mask@ios_base@_STL@@IBEHXZ
_TEXT	SEGMENT
?_M_get_exception_mask@ios_base@_STL@@IBEHXZ PROC NEAR	; _STL::ios_base::_M_get_exception_mask, COMDAT
; _this$ = ecx

; 195  :   iostate _M_get_exception_mask() const { return _M_exception_mask; }

  00000	8b 41 14	 mov	 eax, DWORD PTR [ecx+20]
  00003	c3		 ret	 0
?_M_get_exception_mask@ios_base@_STL@@IBEHXZ ENDP	; _STL::ios_base::_M_get_exception_mask
_TEXT	ENDS
PUBLIC	?_M_set_exception_mask@ios_base@_STL@@IAEXH@Z	; _STL::ios_base::_M_set_exception_mask
; Function compile flags: /Ogsy
;	COMDAT ?_M_set_exception_mask@ios_base@_STL@@IAEXH@Z
_TEXT	SEGMENT
___mask$ = 8						; size = 4
?_M_set_exception_mask@ios_base@_STL@@IAEXH@Z PROC NEAR	; _STL::ios_base::_M_set_exception_mask, COMDAT
; _this$ = ecx

; 196  :   void _M_set_exception_mask(iostate __mask) { _M_exception_mask = __mask; }

  00000	8b 44 24 04	 mov	 eax, DWORD PTR ___mask$[esp-4]
  00004	89 41 14	 mov	 DWORD PTR [ecx+20], eax
  00007	c2 04 00	 ret	 4
?_M_set_exception_mask@ios_base@_STL@@IAEXH@Z ENDP	; _STL::ios_base::_M_set_exception_mask
_TEXT	ENDS
PUBLIC	?_M_check_exception_mask@ios_base@_STL@@IAEXXZ	; _STL::ios_base::_M_check_exception_mask
EXTRN	?_M_throw_failure@ios_base@_STL@@IAEXXZ:NEAR	; _STL::ios_base::_M_throw_failure
; Function compile flags: /Ogsy
;	COMDAT ?_M_check_exception_mask@ios_base@_STL@@IAEXXZ
_TEXT	SEGMENT
?_M_check_exception_mask@ios_base@_STL@@IAEXXZ PROC NEAR ; _STL::ios_base::_M_check_exception_mask, COMDAT
; _this$ = ecx

; 198  :     if (_M_iostate & _M_exception_mask)

  00000	8b 41 14	 mov	 eax, DWORD PTR [ecx+20]
  00003	85 41 08	 test	 eax, DWORD PTR [ecx+8]
  00006	74 05		 je	 SHORT $L79498

; 199  :       _M_throw_failure(); 

  00008	e9 00 00 00 00	 jmp	 ?_M_throw_failure@ios_base@_STL@@IAEXXZ ; _STL::ios_base::_M_throw_failure
$L79498:

; 200  :   }

  0000d	c3		 ret	 0
?_M_check_exception_mask@ios_base@_STL@@IAEXXZ ENDP	; _STL::ios_base::_M_check_exception_mask
_TEXT	ENDS
PUBLIC	?_M_ctype_facet@ios_base@_STL@@QBEPBVfacet@locale@2@XZ ; _STL::ios_base::_M_ctype_facet
; Function compile flags: /Ogsy
;	COMDAT ?_M_ctype_facet@ios_base@_STL@@QBEPBVfacet@locale@2@XZ
_TEXT	SEGMENT
?_M_ctype_facet@ios_base@_STL@@QBEPBVfacet@locale@2@XZ PROC NEAR ; _STL::ios_base::_M_ctype_facet, COMDAT
; _this$ = ecx

; 250  :   const locale::facet* _M_ctype_facet() const { return _M_cached_ctype; }

  00000	8b 41 40	 mov	 eax, DWORD PTR [ecx+64]
  00003	c3		 ret	 0
?_M_ctype_facet@ios_base@_STL@@QBEPBVfacet@locale@2@XZ ENDP ; _STL::ios_base::_M_ctype_facet
_TEXT	ENDS
PUBLIC	?open@?$basic_filebuf@DV?$char_traits@D@_STL@@@_STL@@QAEPAV12@PBDH@Z ; _STL::basic_filebuf<char,_STL::char_traits<char> >::open
EXTRN	?_M_open@_Filebuf_base@_STL@@QAE_NPBDH@Z:NEAR	; _STL::_Filebuf_base::_M_open
; Function compile flags: /Ogsy
; File c:\stlport-4.6.1\stlport\stl\_fstream.h
;	COMDAT ?open@?$basic_filebuf@DV?$char_traits@D@_STL@@@_STL@@QAEPAV12@PBDH@Z
_TEXT	SEGMENT
___s$ = 8						; size = 4
___m$ = 12						; size = 4
?open@?$basic_filebuf@DV?$char_traits@D@_STL@@@_STL@@QAEPAV12@PBDH@Z PROC NEAR ; _STL::basic_filebuf<char,_STL::char_traits<char> >::open, COMDAT
; _this$ = ecx

; 200  :   _Self* open(const char* __s, ios_base::openmode __m) {

  00000	56		 push	 esi

; 201  :     return _M_base._M_open(__s, __m) ? this : 0;

  00001	ff 74 24 0c	 push	 DWORD PTR ___m$[esp]
  00005	8b f1		 mov	 esi, ecx
  00007	ff 74 24 0c	 push	 DWORD PTR ___s$[esp+4]
  0000b	8d 4e 54	 lea	 ecx, DWORD PTR [esi+84]
  0000e	e8 00 00 00 00	 call	 ?_M_open@_Filebuf_base@_STL@@QAE_NPBDH@Z ; _STL::_Filebuf_base::_M_open
  00013	f6 d8		 neg	 al
  00015	1b c0		 sbb	 eax, eax
  00017	23 c6		 and	 eax, esi
  00019	5e		 pop	 esi

; 202  :   }

  0001a	c2 08 00	 ret	 8
?open@?$basic_filebuf@DV?$char_traits@D@_STL@@@_STL@@QAEPAV12@PBDH@Z ENDP ; _STL::basic_filebuf<char,_STL::char_traits<char> >::open
_TEXT	ENDS
PUBLIC	?rdbuf@?$basic_ifstream@DV?$char_traits@D@_STL@@@_STL@@QBEPAV?$basic_filebuf@DV?$char_traits@D@_STL@@@2@XZ ; _STL::basic_ifstream<char,_STL::char_traits<char> >::rdbuf
; Function compile flags: /Ogsy
;	COMDAT ?rdbuf@?$basic_ifstream@DV?$char_traits@D@_STL@@@_STL@@QBEPAV?$basic_filebuf@DV?$char_traits@D@_STL@@@2@XZ
_TEXT	SEGMENT
?rdbuf@?$basic_ifstream@DV?$char_traits@D@_STL@@@_STL@@QBEPAV?$basic_filebuf@DV?$char_traits@D@_STL@@@2@XZ PROC NEAR ; _STL::basic_ifstream<char,_STL::char_traits<char> >::rdbuf, COMDAT
; _this$ = ecx

; 547  :     { return __CONST_CAST(_Buf*,&_M_buf); }

  00000	8d 41 08	 lea	 eax, DWORD PTR [ecx+8]
  00003	c3		 ret	 0
?rdbuf@?$basic_ifstream@DV?$char_traits@D@_STL@@@_STL@@QBEPAV?$basic_filebuf@DV?$char_traits@D@_STL@@@2@XZ ENDP ; _STL::basic_ifstream<char,_STL::char_traits<char> >::rdbuf
_TEXT	ENDS
PUBLIC	??1?$_STLP_alloc_proxy@PAPAVAPPEND_PATCH_NODE@@PAV1@V?$allocator@PAVAPPEND_PATCH_NODE@@@_STL@@@_STL@@QAE@XZ ; _STL::_STLP_alloc_proxy<APPEND_PATCH_NODE * *,APPEND_PATCH_NODE *,_STL::allocator<APPEND_PATCH_NODE *> >::~_STLP_alloc_proxy<APPEND_PATCH_NODE * *,APPEND_PATCH_NODE *,_STL::allocator<APPEND_PATCH_NODE *> >
; Function compile flags: /Ogsy
;	COMDAT ??1?$_STLP_alloc_proxy@PAPAVAPPEND_PATCH_NODE@@PAV1@V?$allocator@PAVAPPEND_PATCH_NODE@@@_STL@@@_STL@@QAE@XZ
_TEXT	SEGMENT
??1?$_STLP_alloc_proxy@PAPAVAPPEND_PATCH_NODE@@PAV1@V?$allocator@PAVAPPEND_PATCH_NODE@@@_STL@@@_STL@@QAE@XZ PROC NEAR ; _STL::_STLP_alloc_proxy<APPEND_PATCH_NODE * *,APPEND_PATCH_NODE *,_STL::allocator<APPEND_PATCH_NODE *> >::~_STLP_alloc_proxy<APPEND_PATCH_NODE * *,APPEND_PATCH_NODE *,_STL::allocator<APPEND_PATCH_NODE *> >, COMDAT
; _this$ = ecx
  00000	c3		 ret	 0
??1?$_STLP_alloc_proxy@PAPAVAPPEND_PATCH_NODE@@PAV1@V?$allocator@PAVAPPEND_PATCH_NODE@@@_STL@@@_STL@@QAE@XZ ENDP ; _STL::_STLP_alloc_proxy<APPEND_PATCH_NODE * *,APPEND_PATCH_NODE *,_STL::allocator<APPEND_PATCH_NODE *> >::~_STLP_alloc_proxy<APPEND_PATCH_NODE * *,APPEND_PATCH_NODE *,_STL::allocator<APPEND_PATCH_NODE *> >
_TEXT	ENDS
PUBLIC	?copy@?$__char_traits_base@DH@_STL@@SAPADPADPBDI@Z ; _STL::__char_traits_base<char,int>::copy
EXTRN	_memcpy:NEAR
; Function compile flags: /Ogsy
; File c:\stlport-4.6.1\stlport\stl\char_traits.h
;	COMDAT ?copy@?$__char_traits_base@DH@_STL@@SAPADPADPBDI@Z
_TEXT	SEGMENT
___s1$ = 8						; size = 4
___s2$ = 12						; size = 4
___n$ = 16						; size = 4
?copy@?$__char_traits_base@DH@_STL@@SAPADPADPBDI@Z PROC NEAR ; _STL::__char_traits_base<char,int>::copy, COMDAT

; 169  :   static _CharT* _STLP_CALL copy(_CharT* __s1, const _CharT* __s2, size_t __n) {

  00000	55		 push	 ebp
  00001	8b ec		 mov	 ebp, esp

; 170  :     return (__n == 0 ? __s1 :
; 171  : 	    (_CharT*)memcpy(__s1, __s2, __n * sizeof(_CharT)));

  00003	83 7d 10 00	 cmp	 DWORD PTR ___n$[ebp], 0
  00007	75 05		 jne	 SHORT $L103174
  00009	8b 45 08	 mov	 eax, DWORD PTR ___s1$[ebp]

; 172  :     } 

  0000c	5d		 pop	 ebp
  0000d	c3		 ret	 0
$L103174:
  0000e	5d		 pop	 ebp

; 170  :     return (__n == 0 ? __s1 :
; 171  : 	    (_CharT*)memcpy(__s1, __s2, __n * sizeof(_CharT)));

  0000f	e9 00 00 00 00	 jmp	 _memcpy
?copy@?$__char_traits_base@DH@_STL@@SAPADPADPBDI@Z ENDP	; _STL::__char_traits_base<char,int>::copy
_TEXT	ENDS
PUBLIC	?end@?$basic_string@DV?$char_traits@D@_STL@@V?$allocator@D@2@@_STL@@QAEPADXZ ; _STL::basic_string<char,_STL::char_traits<char>,_STL::allocator<char> >::end
; Function compile flags: /Ogsy
; File c:\stlport-4.6.1\stlport\stl\_string.h
;	COMDAT ?end@?$basic_string@DV?$char_traits@D@_STL@@V?$allocator@D@2@@_STL@@QAEPADXZ
_TEXT	SEGMENT
?end@?$basic_string@DV?$char_traits@D@_STL@@V?$allocator@D@2@@_STL@@QAEPADXZ PROC NEAR ; _STL::basic_string<char,_STL::char_traits<char>,_STL::allocator<char> >::end, COMDAT
; _this$ = ecx

; 417  :   iterator end()               { return this->_M_finish; }

  00000	8b 41 04	 mov	 eax, DWORD PTR [ecx+4]
  00003	c3		 ret	 0
?end@?$basic_string@DV?$char_traits@D@_STL@@V?$allocator@D@2@@_STL@@QAEPADXZ ENDP ; _STL::basic_string<char,_STL::char_traits<char>,_STL::allocator<char> >::end
_TEXT	ENDS
PUBLIC	?size@?$basic_string@DV?$char_traits@D@_STL@@V?$allocator@D@2@@_STL@@QBEIXZ ; _STL::basic_string<char,_STL::char_traits<char>,_STL::allocator<char> >::size
; Function compile flags: /Ogsy
;	COMDAT ?size@?$basic_string@DV?$char_traits@D@_STL@@V?$allocator@D@2@@_STL@@QBEIXZ
_TEXT	SEGMENT
?size@?$basic_string@DV?$char_traits@D@_STL@@V?$allocator@D@2@@_STL@@QBEIXZ PROC NEAR ; _STL::basic_string<char,_STL::char_traits<char>,_STL::allocator<char> >::size, COMDAT
; _this$ = ecx

; 431  :   size_type size() const { return this->_M_finish - this->_M_start; }

  00000	8b 41 04	 mov	 eax, DWORD PTR [ecx+4]
  00003	2b 01		 sub	 eax, DWORD PTR [ecx]
  00005	c3		 ret	 0
?size@?$basic_string@DV?$char_traits@D@_STL@@V?$allocator@D@2@@_STL@@QBEIXZ ENDP ; _STL::basic_string<char,_STL::char_traits<char>,_STL::allocator<char> >::size
_TEXT	ENDS
PUBLIC	?_M_set@?$vector@PAVAPPEND_PATCH_NODE@@V?$allocator@PAVAPPEND_PATCH_NODE@@@_STL@@@_STL@@IAEXPAPAVAPPEND_PATCH_NODE@@00@Z ; _STL::vector<APPEND_PATCH_NODE *,_STL::allocator<APPEND_PATCH_NODE *> >::_M_set
; Function compile flags: /Ogsy
; File c:\stlport-4.6.1\stlport\stl\_vector.h
;	COMDAT ?_M_set@?$vector@PAVAPPEND_PATCH_NODE@@V?$allocator@PAVAPPEND_PATCH_NODE@@@_STL@@@_STL@@IAEXPAPAVAPPEND_PATCH_NODE@@00@Z
_TEXT	SEGMENT
___s$ = 8						; size = 4
___f$ = 12						; size = 4
___e$ = 16						; size = 4
?_M_set@?$vector@PAVAPPEND_PATCH_NODE@@V?$allocator@PAVAPPEND_PATCH_NODE@@@_STL@@@_STL@@IAEXPAPAVAPPEND_PATCH_NODE@@00@Z PROC NEAR ; _STL::vector<APPEND_PATCH_NODE *,_STL::allocator<APPEND_PATCH_NODE *> >::_M_set, COMDAT
; _this$ = ecx

; 501  :     this->_M_start = __s;

  00000	8b 44 24 04	 mov	 eax, DWORD PTR ___s$[esp-4]
  00004	89 01		 mov	 DWORD PTR [ecx], eax

; 502  :     this->_M_finish = __f;

  00006	8b 44 24 08	 mov	 eax, DWORD PTR ___f$[esp-4]
  0000a	89 41 04	 mov	 DWORD PTR [ecx+4], eax

; 503  :     this->_M_end_of_storage._M_data = __e;

  0000d	8b 44 24 0c	 mov	 eax, DWORD PTR ___e$[esp-4]
  00011	89 41 08	 mov	 DWORD PTR [ecx+8], eax

; 504  :   }

  00014	c2 0c 00	 ret	 12			; 0000000cH
?_M_set@?$vector@PAVAPPEND_PATCH_NODE@@V?$allocator@PAVAPPEND_PATCH_NODE@@@_STL@@@_STL@@IAEXPAPAVAPPEND_PATCH_NODE@@00@Z ENDP ; _STL::vector<APPEND_PATCH_NODE *,_STL::allocator<APPEND_PATCH_NODE *> >::_M_set
_TEXT	ENDS
PUBLIC	??0?$allocator@PAVAPPEND_PATCH_NODE@@@_STL@@QAE@ABV01@@Z ; _STL::allocator<APPEND_PATCH_NODE *>::allocator<APPEND_PATCH_NODE *>
; Function compile flags: /Ogsy
; File c:\stlport-4.6.1\stlport\stl\_alloc.h
;	COMDAT ??0?$allocator@PAVAPPEND_PATCH_NODE@@@_STL@@QAE@ABV01@@Z
_TEXT	SEGMENT
___formal$ = 8						; size = 4
??0?$allocator@PAVAPPEND_PATCH_NODE@@@_STL@@QAE@ABV01@@Z PROC NEAR ; _STL::allocator<APPEND_PATCH_NODE *>::allocator<APPEND_PATCH_NODE *>, COMDAT
; _this$ = ecx

; 349  :   allocator(const allocator<_Tp>&) _STLP_NOTHROW {}

  00000	8b c1		 mov	 eax, ecx
  00002	c2 04 00	 ret	 4
??0?$allocator@PAVAPPEND_PATCH_NODE@@@_STL@@QAE@ABV01@@Z ENDP ; _STL::allocator<APPEND_PATCH_NODE *>::allocator<APPEND_PATCH_NODE *>
_TEXT	ENDS
PUBLIC	??0?$_STLP_alloc_proxy@PAPAVAPPEND_PATCH_NODE@@PAV1@V?$allocator@PAVAPPEND_PATCH_NODE@@@_STL@@@_STL@@QAE@ABV?$allocator@PAVAPPEND_PATCH_NODE@@@1@PAPAVAPPEND_PATCH_NODE@@@Z ; _STL::_STLP_alloc_proxy<APPEND_PATCH_NODE * *,APPEND_PATCH_NODE *,_STL::allocator<APPEND_PATCH_NODE *> >::_STLP_alloc_proxy<APPEND_PATCH_NODE * *,APPEND_PATCH_NODE *,_STL::allocator<APPEND_PATCH_NODE *> >
; Function compile flags: /Ogsy
;	COMDAT ??0?$_STLP_alloc_proxy@PAPAVAPPEND_PATCH_NODE@@PAV1@V?$allocator@PAVAPPEND_PATCH_NODE@@@_STL@@@_STL@@QAE@ABV?$allocator@PAVAPPEND_PATCH_NODE@@@1@PAPAVAPPEND_PATCH_NODE@@@Z
_TEXT	SEGMENT
___a$ = 8						; size = 4
___p$ = 12						; size = 4
??0?$_STLP_alloc_proxy@PAPAVAPPEND_PATCH_NODE@@PAV1@V?$allocator@PAVAPPEND_PATCH_NODE@@@_STL@@@_STL@@QAE@ABV?$allocator@PAVAPPEND_PATCH_NODE@@@1@PAPAVAPPEND_PATCH_NODE@@@Z PROC NEAR ; _STL::_STLP_alloc_proxy<APPEND_PATCH_NODE * *,APPEND_PATCH_NODE *,_STL::allocator<APPEND_PATCH_NODE *> >::_STLP_alloc_proxy<APPEND_PATCH_NODE * *,APPEND_PATCH_NODE *,_STL::allocator<APPEND_PATCH_NODE *> >, COMDAT
; _this$ = ecx

; 487  :   inline _STLP_alloc_proxy(const _MaybeReboundAlloc& __a, _Value __p) : _MaybeReboundAlloc(__a), _M_data(__p) {}

  00000	8b c1		 mov	 eax, ecx
  00002	8b 4c 24 08	 mov	 ecx, DWORD PTR ___p$[esp-4]
  00006	89 08		 mov	 DWORD PTR [eax], ecx
  00008	c2 08 00	 ret	 8
??0?$_STLP_alloc_proxy@PAPAVAPPEND_PATCH_NODE@@PAV1@V?$allocator@PAVAPPEND_PATCH_NODE@@@_STL@@@_STL@@QAE@ABV?$allocator@PAVAPPEND_PATCH_NODE@@@1@PAPAVAPPEND_PATCH_NODE@@@Z ENDP ; _STL::_STLP_alloc_proxy<APPEND_PATCH_NODE * *,APPEND_PATCH_NODE *,_STL::allocator<APPEND_PATCH_NODE *> >::_STLP_alloc_proxy<APPEND_PATCH_NODE * *,APPEND_PATCH_NODE *,_STL::allocator<APPEND_PATCH_NODE *> >
_TEXT	ENDS
PUBLIC	?move@?$__char_traits_base@DH@_STL@@SAPADPADPBDI@Z ; _STL::__char_traits_base<char,int>::move
; Function compile flags: /Ogsy
; File c:\stlport-4.6.1\stlport\stl\char_traits.h
;	COMDAT ?move@?$__char_traits_base@DH@_STL@@SAPADPADPBDI@Z
_TEXT	SEGMENT
___s1$ = 8						; size = 4
___s2$ = 12						; size = 4
__Sz$ = 16						; size = 4
?move@?$__char_traits_base@DH@_STL@@SAPADPADPBDI@Z PROC NEAR ; _STL::__char_traits_base<char,int>::move, COMDAT

; 165  :   static _CharT* _STLP_CALL move(_CharT* __s1, const _CharT* __s2, size_t _Sz) {    

  00000	55		 push	 ebp
  00001	8b ec		 mov	 ebp, esp

; 166  :     return (_Sz == 0 ? __s1 : (_CharT*)memmove(__s1, __s2, _Sz * sizeof(_CharT)));

  00003	83 7d 10 00	 cmp	 DWORD PTR __Sz$[ebp], 0
  00007	75 05		 jne	 SHORT $L103194
  00009	8b 45 08	 mov	 eax, DWORD PTR ___s1$[ebp]

; 167  :   }

  0000c	5d		 pop	 ebp
  0000d	c3		 ret	 0
$L103194:
  0000e	5d		 pop	 ebp

; 166  :     return (_Sz == 0 ? __s1 : (_CharT*)memmove(__s1, __s2, _Sz * sizeof(_CharT)));

  0000f	e9 00 00 00 00	 jmp	 _memmove
?move@?$__char_traits_base@DH@_STL@@SAPADPADPBDI@Z ENDP	; _STL::__char_traits_base<char,int>::move
_TEXT	ENDS
PUBLIC	?rdbuf@?$basic_ios@DV?$char_traits@D@_STL@@@_STL@@QBEPAV?$basic_streambuf@DV?$char_traits@D@_STL@@@2@XZ ; _STL::basic_ios<char,_STL::char_traits<char> >::rdbuf
; Function compile flags: /Ogsy
; File c:\stlport-4.6.1\stlport\stl\_ios.h
;	COMDAT ?rdbuf@?$basic_ios@DV?$char_traits@D@_STL@@@_STL@@QBEPAV?$basic_streambuf@DV?$char_traits@D@_STL@@@2@XZ
_TEXT	SEGMENT
?rdbuf@?$basic_ios@DV?$char_traits@D@_STL@@@_STL@@QBEPAV?$basic_streambuf@DV?$char_traits@D@_STL@@@2@XZ PROC NEAR ; _STL::basic_ios<char,_STL::char_traits<char> >::rdbuf, COMDAT
; _this$ = ecx

; 72   :     { return _M_streambuf; }

  00000	8b 41 58	 mov	 eax, DWORD PTR [ecx+88]
  00003	c3		 ret	 0
?rdbuf@?$basic_ios@DV?$char_traits@D@_STL@@@_STL@@QBEPAV?$basic_streambuf@DV?$char_traits@D@_STL@@@2@XZ ENDP ; _STL::basic_ios<char,_STL::char_traits<char> >::rdbuf
_TEXT	ENDS
PUBLIC	?_FILE_I_next@_STL@@YAPADPBU_iobuf@@@Z		; _STL::_FILE_I_next
; Function compile flags: /Ogsy
; File c:\stlport-4.6.1\stlport\stl\_stdio_file.h
;	COMDAT ?_FILE_I_next@_STL@@YAPADPBU_iobuf@@@Z
_TEXT	SEGMENT
___f$ = 8						; size = 4
?_FILE_I_next@_STL@@YAPADPBU_iobuf@@@Z PROC NEAR	; _STL::_FILE_I_next, COMDAT

; 99   : inline char* _FILE_I_next(const FILE *__f) { return (char*) __f->_ptr; }  

  00000	8b 44 24 04	 mov	 eax, DWORD PTR ___f$[esp-4]
  00004	8b 00		 mov	 eax, DWORD PTR [eax]
  00006	c3		 ret	 0
?_FILE_I_next@_STL@@YAPADPBU_iobuf@@@Z ENDP		; _STL::_FILE_I_next
_TEXT	ENDS
PUBLIC	?_FILE_I_end@_STL@@YAPADPBU_iobuf@@@Z		; _STL::_FILE_I_end
; Function compile flags: /Ogsy
;	COMDAT ?_FILE_I_end@_STL@@YAPADPBU_iobuf@@@Z
_TEXT	SEGMENT
___f$ = 8						; size = 4
?_FILE_I_end@_STL@@YAPADPBU_iobuf@@@Z PROC NEAR		; _STL::_FILE_I_end, COMDAT

; 101  :   { return (char*) __f->_ptr + __f->_cnt; }

  00000	8b 4c 24 04	 mov	 ecx, DWORD PTR ___f$[esp-4]
  00004	8b 41 04	 mov	 eax, DWORD PTR [ecx+4]
  00007	03 01		 add	 eax, DWORD PTR [ecx]
  00009	c3		 ret	 0
?_FILE_I_end@_STL@@YAPADPBU_iobuf@@@Z ENDP		; _STL::_FILE_I_end
_TEXT	ENDS
PUBLIC	?_FILE_I_avail@_STL@@YAHPBU_iobuf@@@Z		; _STL::_FILE_I_avail
; Function compile flags: /Ogsy
;	COMDAT ?_FILE_I_avail@_STL@@YAHPBU_iobuf@@@Z
_TEXT	SEGMENT
___f$ = 8						; size = 4
?_FILE_I_avail@_STL@@YAHPBU_iobuf@@@Z PROC NEAR		; _STL::_FILE_I_avail, COMDAT

; 103  : inline ptrdiff_t _FILE_I_avail(const FILE *__f) { return __f->_cnt; }

  00000	8b 44 24 04	 mov	 eax, DWORD PTR ___f$[esp-4]
  00004	8b 40 04	 mov	 eax, DWORD PTR [eax+4]
  00007	c3		 ret	 0
?_FILE_I_avail@_STL@@YAHPBU_iobuf@@@Z ENDP		; _STL::_FILE_I_avail
_TEXT	ENDS
PUBLIC	?_FILE_I_postincr@_STL@@YAAADPAU_iobuf@@@Z	; _STL::_FILE_I_postincr
; Function compile flags: /Ogsy
;	COMDAT ?_FILE_I_postincr@_STL@@YAAADPAU_iobuf@@@Z
_TEXT	SEGMENT
___f$ = 8						; size = 4
?_FILE_I_postincr@_STL@@YAAADPAU_iobuf@@@Z PROC NEAR	; _STL::_FILE_I_postincr, COMDAT

; 108  :   { --__f->_cnt; return *(char*) (__f->_ptr++); }

  00000	8b 4c 24 04	 mov	 ecx, DWORD PTR ___f$[esp-4]
  00004	8b 01		 mov	 eax, DWORD PTR [ecx]
  00006	ff 49 04	 dec	 DWORD PTR [ecx+4]
  00009	8d 50 01	 lea	 edx, DWORD PTR [eax+1]
  0000c	89 11		 mov	 DWORD PTR [ecx], edx
  0000e	c3		 ret	 0
?_FILE_I_postincr@_STL@@YAAADPAU_iobuf@@@Z ENDP		; _STL::_FILE_I_postincr
_TEXT	ENDS
PUBLIC	?_FILE_I_bump@_STL@@YAXPAU_iobuf@@H@Z		; _STL::_FILE_I_bump
; Function compile flags: /Ogsy
;	COMDAT ?_FILE_I_bump@_STL@@YAXPAU_iobuf@@H@Z
_TEXT	SEGMENT
___f$ = 8						; size = 4
___n$ = 12						; size = 4
?_FILE_I_bump@_STL@@YAXPAU_iobuf@@H@Z PROC NEAR		; _STL::_FILE_I_bump, COMDAT

; 114  :   { __f->_ptr += __n; __f->_cnt -= __n; }

  00000	8b 4c 24 08	 mov	 ecx, DWORD PTR ___n$[esp-4]
  00004	8b 44 24 04	 mov	 eax, DWORD PTR ___f$[esp-4]
  00008	01 08		 add	 DWORD PTR [eax], ecx
  0000a	29 48 04	 sub	 DWORD PTR [eax+4], ecx
  0000d	c3		 ret	 0
?_FILE_I_bump@_STL@@YAXPAU_iobuf@@H@Z ENDP		; _STL::_FILE_I_bump
_TEXT	ENDS
PUBLIC	?_FILE_I_set@_STL@@YAXPAU_iobuf@@PAD11@Z	; _STL::_FILE_I_set
; Function compile flags: /Ogsy
;	COMDAT ?_FILE_I_set@_STL@@YAXPAU_iobuf@@PAD11@Z
_TEXT	SEGMENT
___f$ = 8						; size = 4
___begin$ = 12						; size = 4
___next$ = 16						; size = 4
___end$ = 20						; size = 4
?_FILE_I_set@_STL@@YAXPAU_iobuf@@PAD11@Z PROC NEAR	; _STL::_FILE_I_set, COMDAT

; 117  :   __f->_base = (_File_ptr_type) __begin;

  00000	8b 44 24 04	 mov	 eax, DWORD PTR ___f$[esp-4]
  00004	8b 4c 24 08	 mov	 ecx, DWORD PTR ___begin$[esp-4]

; 118  :   __f->_ptr  = (_File_ptr_type) __next;
; 119  :   __f->_cnt  = __end - __next;

  00008	8b 54 24 10	 mov	 edx, DWORD PTR ___end$[esp-4]
  0000c	89 48 08	 mov	 DWORD PTR [eax+8], ecx
  0000f	8b 4c 24 0c	 mov	 ecx, DWORD PTR ___next$[esp-4]
  00013	2b d1		 sub	 edx, ecx
  00015	89 08		 mov	 DWORD PTR [eax], ecx
  00017	89 50 04	 mov	 DWORD PTR [eax+4], edx

; 120  : }

  0001a	c3		 ret	 0
?_FILE_I_set@_STL@@YAXPAU_iobuf@@PAD11@Z ENDP		; _STL::_FILE_I_set
_TEXT	ENDS
PUBLIC	?_FILE_O_set@_STL@@YAXPAU_iobuf@@PAD11@Z	; _STL::_FILE_O_set
; Function compile flags: /Ogsy
;	COMDAT ?_FILE_O_set@_STL@@YAXPAU_iobuf@@PAD11@Z
_TEXT	SEGMENT
___f$ = 8						; size = 4
___begin$ = 12						; size = 4
___next$ = 16						; size = 4
___end$ = 20						; size = 4
?_FILE_O_set@_STL@@YAXPAU_iobuf@@PAD11@Z PROC NEAR	; _STL::_FILE_O_set, COMDAT

; 745  :   { _FILE_I_set(__f, __begin, __next, __end); }

  00000	8b 44 24 04	 mov	 eax, DWORD PTR ___f$[esp-4]
  00004	8b 4c 24 08	 mov	 ecx, DWORD PTR ___begin$[esp-4]
  00008	8b 54 24 10	 mov	 edx, DWORD PTR ___end$[esp-4]
  0000c	89 48 08	 mov	 DWORD PTR [eax+8], ecx
  0000f	8b 4c 24 0c	 mov	 ecx, DWORD PTR ___next$[esp-4]
  00013	2b d1		 sub	 edx, ecx
  00015	89 08		 mov	 DWORD PTR [eax], ecx
  00017	89 50 04	 mov	 DWORD PTR [eax+4], edx
  0001a	c3		 ret	 0
?_FILE_O_set@_STL@@YAXPAU_iobuf@@PAD11@Z ENDP		; _STL::_FILE_O_set
_TEXT	ENDS
PUBLIC	?_M_exit_input_mode@?$basic_filebuf@DV?$char_traits@D@_STL@@@_STL@@AAEXXZ ; _STL::basic_filebuf<char,_STL::char_traits<char> >::_M_exit_input_mode
EXTRN	?_M_unmap@_Filebuf_base@_STL@@QAEXPAXJ@Z:NEAR	; _STL::_Filebuf_base::_M_unmap
; Function compile flags: /Ogsy
; File c:\stlport-4.6.1\stlport\stl\_fstream.c
;	COMDAT ?_M_exit_input_mode@?$basic_filebuf@DV?$char_traits@D@_STL@@@_STL@@AAEXXZ
_TEXT	SEGMENT
?_M_exit_input_mode@?$basic_filebuf@DV?$char_traits@D@_STL@@@_STL@@AAEXXZ PROC NEAR ; _STL::basic_filebuf<char,_STL::char_traits<char> >::_M_exit_input_mode, COMDAT
; _this$ = ecx

; 119  : {

  00000	56		 push	 esi
  00001	8b f1		 mov	 esi, ecx

; 120  :    if (_M_mmap_base != 0)

  00003	8b 86 8c 00 00
	00		 mov	 eax, DWORD PTR [esi+140]
  00009	85 c0		 test	 eax, eax
  0000b	74 0f		 je	 SHORT $L101680

; 121  :      _M_base._M_unmap(_M_mmap_base, _M_mmap_len); 

  0000d	ff b6 90 00 00
	00		 push	 DWORD PTR [esi+144]
  00013	8d 4e 54	 lea	 ecx, DWORD PTR [esi+84]
  00016	50		 push	 eax
  00017	e8 00 00 00 00	 call	 ?_M_unmap@_Filebuf_base@_STL@@QAEXPAXJ@Z ; _STL::_Filebuf_base::_M_unmap
$L101680:

; 122  :    _M_in_input_mode = false;
; 123  :    _M_mmap_base = 0;

  0001c	83 a6 8c 00 00
	00 00		 and	 DWORD PTR [esi+140], 0
  00023	c6 46 67 00	 mov	 BYTE PTR [esi+103], 0
  00027	5e		 pop	 esi

; 124  : }

  00028	c3		 ret	 0
?_M_exit_input_mode@?$basic_filebuf@DV?$char_traits@D@_STL@@@_STL@@AAEXXZ ENDP ; _STL::basic_filebuf<char,_STL::char_traits<char> >::_M_exit_input_mode
_TEXT	ENDS
PUBLIC	??_7?$basic_streambuf@DV?$char_traits@D@_STL@@@_STL@@6B@ ; _STL::basic_streambuf<char,_STL::char_traits<char> >::`vftable'
PUBLIC	??_G?$basic_streambuf@DV?$char_traits@D@_STL@@@_STL@@UAEPAXI@Z ; _STL::basic_streambuf<char,_STL::char_traits<char> >::`scalar deleting destructor'
PUBLIC	??_R4?$basic_streambuf@DV?$char_traits@D@_STL@@@_STL@@6B@ ; _STL::basic_streambuf<char,_STL::char_traits<char> >::`RTTI Complete Object Locator'
PUBLIC	??_R0?AV?$basic_streambuf@DV?$char_traits@D@_STL@@@_STL@@@8 ; _STL::basic_streambuf<char,_STL::char_traits<char> > `RTTI Type Descriptor'
PUBLIC	??_R3?$basic_streambuf@DV?$char_traits@D@_STL@@@_STL@@8 ; _STL::basic_streambuf<char,_STL::char_traits<char> >::`RTTI Class Hierarchy Descriptor'
PUBLIC	??_R2?$basic_streambuf@DV?$char_traits@D@_STL@@@_STL@@8 ; _STL::basic_streambuf<char,_STL::char_traits<char> >::`RTTI Base Class Array'
PUBLIC	??_R1A@?0A@A@?$basic_streambuf@DV?$char_traits@D@_STL@@@_STL@@8 ; _STL::basic_streambuf<char,_STL::char_traits<char> >::`RTTI Base Class Descriptor at (0,-1,0,0)'
PUBLIC	??0?$basic_streambuf@DV?$char_traits@D@_STL@@@_STL@@IAE@XZ ; _STL::basic_streambuf<char,_STL::char_traits<char> >::basic_streambuf<char,_STL::char_traits<char> >
EXTRN	?showmanyc@?$basic_streambuf@DV?$char_traits@D@_STL@@@_STL@@MAEHXZ:NEAR ; _STL::basic_streambuf<char,_STL::char_traits<char> >::showmanyc
EXTRN	?xsgetn@?$basic_streambuf@DV?$char_traits@D@_STL@@@_STL@@MAEHPADH@Z:NEAR ; _STL::basic_streambuf<char,_STL::char_traits<char> >::xsgetn
EXTRN	?underflow@?$basic_streambuf@DV?$char_traits@D@_STL@@@_STL@@MAEHXZ:NEAR ; _STL::basic_streambuf<char,_STL::char_traits<char> >::underflow
EXTRN	?uflow@?$basic_streambuf@DV?$char_traits@D@_STL@@@_STL@@MAEHXZ:NEAR ; _STL::basic_streambuf<char,_STL::char_traits<char> >::uflow
EXTRN	?pbackfail@?$basic_streambuf@DV?$char_traits@D@_STL@@@_STL@@MAEHH@Z:NEAR ; _STL::basic_streambuf<char,_STL::char_traits<char> >::pbackfail
EXTRN	?xsputn@?$basic_streambuf@DV?$char_traits@D@_STL@@@_STL@@MAEHPBDH@Z:NEAR ; _STL::basic_streambuf<char,_STL::char_traits<char> >::xsputn
EXTRN	?_M_xsputnc@?$basic_streambuf@DV?$char_traits@D@_STL@@@_STL@@MAEHDH@Z:NEAR ; _STL::basic_streambuf<char,_STL::char_traits<char> >::_M_xsputnc
EXTRN	?overflow@?$basic_streambuf@DV?$char_traits@D@_STL@@@_STL@@MAEHH@Z:NEAR ; _STL::basic_streambuf<char,_STL::char_traits<char> >::overflow
EXTRN	?imbue@?$basic_streambuf@DV?$char_traits@D@_STL@@@_STL@@MAEXABVlocale@2@@Z:NEAR ; _STL::basic_streambuf<char,_STL::char_traits<char> >::imbue
EXTRN	??_7type_info@@6B@:QWORD			; type_info::`vftable'
EXTRN	??_E?$basic_streambuf@DV?$char_traits@D@_STL@@@_STL@@UAEPAXI@Z:NEAR ; _STL::basic_streambuf<char,_STL::char_traits<char> >::`vector deleting destructor'
EXTRN	??0locale@_STL@@QAE@XZ:NEAR			; _STL::locale::locale
EXTRN	?setbuf@?$basic_streambuf@DV?$char_traits@D@_STL@@@_STL@@MAEPAV12@PADH@Z:NEAR ; _STL::basic_streambuf<char,_STL::char_traits<char> >::setbuf
EXTRN	?seekoff@?$basic_streambuf@DV?$char_traits@D@_STL@@@_STL@@MAE?AV?$fpos@H@2@JHH@Z:NEAR ; _STL::basic_streambuf<char,_STL::char_traits<char> >::seekoff
EXTRN	?seekpos@?$basic_streambuf@DV?$char_traits@D@_STL@@@_STL@@MAE?AV?$fpos@H@2@V32@H@Z:NEAR ; _STL::basic_streambuf<char,_STL::char_traits<char> >::seekpos
EXTRN	?sync@?$basic_streambuf@DV?$char_traits@D@_STL@@@_STL@@MAEHXZ:NEAR ; _STL::basic_streambuf<char,_STL::char_traits<char> >::sync
;	COMDAT ??_7?$basic_streambuf@DV?$char_traits@D@_STL@@@_STL@@6B@
; File c:\stlport-4.6.1\stlport\stl\_stdio_file.h
CONST	SEGMENT
??_7?$basic_streambuf@DV?$char_traits@D@_STL@@@_STL@@6B@ DD FLAT:??_R4?$basic_streambuf@DV?$char_traits@D@_STL@@@_STL@@6B@ ; _STL::basic_streambuf<char,_STL::char_traits<char> >::`vftable'
	DD	FLAT:??_E?$basic_streambuf@DV?$char_traits@D@_STL@@@_STL@@UAEPAXI@Z
	DD	FLAT:?setbuf@?$basic_streambuf@DV?$char_traits@D@_STL@@@_STL@@MAEPAV12@PADH@Z
	DD	FLAT:?seekoff@?$basic_streambuf@DV?$char_traits@D@_STL@@@_STL@@MAE?AV?$fpos@H@2@JHH@Z
	DD	FLAT:?seekpos@?$basic_streambuf@DV?$char_traits@D@_STL@@@_STL@@MAE?AV?$fpos@H@2@V32@H@Z
	DD	FLAT:?sync@?$basic_streambuf@DV?$char_traits@D@_STL@@@_STL@@MAEHXZ
	DD	FLAT:?showmanyc@?$basic_streambuf@DV?$char_traits@D@_STL@@@_STL@@MAEHXZ
	DD	FLAT:?xsgetn@?$basic_streambuf@DV?$char_traits@D@_STL@@@_STL@@MAEHPADH@Z
	DD	FLAT:?underflow@?$basic_streambuf@DV?$char_traits@D@_STL@@@_STL@@MAEHXZ
	DD	FLAT:?uflow@?$basic_streambuf@DV?$char_traits@D@_STL@@@_STL@@MAEHXZ
	DD	FLAT:?pbackfail@?$basic_streambuf@DV?$char_traits@D@_STL@@@_STL@@MAEHH@Z
	DD	FLAT:?xsputn@?$basic_streambuf@DV?$char_traits@D@_STL@@@_STL@@MAEHPBDH@Z
	DD	FLAT:?_M_xsputnc@?$basic_streambuf@DV?$char_traits@D@_STL@@@_STL@@MAEHDH@Z
	DD	FLAT:?overflow@?$basic_streambuf@DV?$char_traits@D@_STL@@@_STL@@MAEHH@Z
	DD	FLAT:?imbue@?$basic_streambuf@DV?$char_traits@D@_STL@@@_STL@@MAEXABVlocale@2@@Z
CONST	ENDS
;	COMDAT ??_R4?$basic_streambuf@DV?$char_traits@D@_STL@@@_STL@@6B@
rdata$r	SEGMENT
??_R4?$basic_streambuf@DV?$char_traits@D@_STL@@@_STL@@6B@ DD 00H ; _STL::basic_streambuf<char,_STL::char_traits<char> >::`RTTI Complete Object Locator'
	DD	00H
	DD	00H
	DD	FLAT:??_R0?AV?$basic_streambuf@DV?$char_traits@D@_STL@@@_STL@@@8
	DD	FLAT:??_R3?$basic_streambuf@DV?$char_traits@D@_STL@@@_STL@@8
rdata$r	ENDS
;	COMDAT ??_R0?AV?$basic_streambuf@DV?$char_traits@D@_STL@@@_STL@@@8
_DATA	SEGMENT
??_R0?AV?$basic_streambuf@DV?$char_traits@D@_STL@@@_STL@@@8 DD FLAT:??_7type_info@@6B@ ; _STL::basic_streambuf<char,_STL::char_traits<char> > `RTTI Type Descriptor'
	DD	00H
	DB	'.?AV?$basic_streambuf@DV?$char_traits@D@_STL@@@_STL@@', 00H
_DATA	ENDS
;	COMDAT ??_R3?$basic_streambuf@DV?$char_traits@D@_STL@@@_STL@@8
rdata$r	SEGMENT
??_R3?$basic_streambuf@DV?$char_traits@D@_STL@@@_STL@@8 DD 00H ; _STL::basic_streambuf<char,_STL::char_traits<char> >::`RTTI Class Hierarchy Descriptor'
	DD	00H
	DD	01H
	DD	FLAT:??_R2?$basic_streambuf@DV?$char_traits@D@_STL@@@_STL@@8
rdata$r	ENDS
;	COMDAT ??_R2?$basic_streambuf@DV?$char_traits@D@_STL@@@_STL@@8
rdata$r	SEGMENT
??_R2?$basic_streambuf@DV?$char_traits@D@_STL@@@_STL@@8 DD FLAT:??_R1A@?0A@A@?$basic_streambuf@DV?$char_traits@D@_STL@@@_STL@@8 ; _STL::basic_streambuf<char,_STL::char_traits<char> >::`RTTI Base Class Array'
rdata$r	ENDS
;	COMDAT ??_R1A@?0A@A@?$basic_streambuf@DV?$char_traits@D@_STL@@@_STL@@8
rdata$r	SEGMENT
??_R1A@?0A@A@?$basic_streambuf@DV?$char_traits@D@_STL@@@_STL@@8 DD FLAT:??_R0?AV?$basic_streambuf@DV?$char_traits@D@_STL@@@_STL@@@8 ; _STL::basic_streambuf<char,_STL::char_traits<char> >::`RTTI Base Class Descriptor at (0,-1,0,0)'
	DD	00H
	DD	00H
	DD	0ffffffffH
	DD	00H
	DD	00H
; Function compile flags: /Ogsy
; File c:\stlport-4.6.1\stlport\stl\_streambuf.h
rdata$r	ENDS
;	COMDAT ??0?$basic_streambuf@DV?$char_traits@D@_STL@@@_STL@@IAE@XZ
_TEXT	SEGMENT
??0?$basic_streambuf@DV?$char_traits@D@_STL@@@_STL@@IAE@XZ PROC NEAR ; _STL::basic_streambuf<char,_STL::char_traits<char> >::basic_streambuf<char,_STL::char_traits<char> >, COMDAT
; _this$ = ecx

; 352  :   {

  00000	56		 push	 esi
  00001	8b f1		 mov	 esi, ecx
  00003	8d 46 0c	 lea	 eax, DWORD PTR [esi+12]
  00006	89 46 04	 mov	 DWORD PTR [esi+4], eax
  00009	8d 46 2c	 lea	 eax, DWORD PTR [esi+44]
  0000c	8d 4e 4c	 lea	 ecx, DWORD PTR [esi+76]
  0000f	c7 06 00 00 00
	00		 mov	 DWORD PTR [esi], OFFSET FLAT:??_7?$basic_streambuf@DV?$char_traits@D@_STL@@@_STL@@6B@
  00015	89 46 08	 mov	 DWORD PTR [esi+8], eax
  00018	e8 00 00 00 00	 call	 ??0locale@_STL@@QAE@XZ	; _STL::locale::locale
  0001d	33 c9		 xor	 ecx, ecx
  0001f	89 4e 50	 mov	 DWORD PTR [esi+80], ecx

; 353  :     // _M_lock._M_initialize();
; 354  :     _FILE_I_set(_M_get, 0, 0, 0);

  00022	8b 46 04	 mov	 eax, DWORD PTR [esi+4]
  00025	89 48 08	 mov	 DWORD PTR [eax+8], ecx
  00028	89 08		 mov	 DWORD PTR [eax], ecx
  0002a	89 48 04	 mov	 DWORD PTR [eax+4], ecx

; 355  :     _FILE_O_set(_M_put, 0, 0, 0);

  0002d	8b 46 08	 mov	 eax, DWORD PTR [esi+8]
  00030	89 48 08	 mov	 DWORD PTR [eax+8], ecx
  00033	89 08		 mov	 DWORD PTR [eax], ecx
  00035	89 48 04	 mov	 DWORD PTR [eax+4], ecx

; 356  :   }

  00038	8b c6		 mov	 eax, esi
  0003a	5e		 pop	 esi
  0003b	c3		 ret	 0
??0?$basic_streambuf@DV?$char_traits@D@_STL@@@_STL@@IAE@XZ ENDP ; _STL::basic_streambuf<char,_STL::char_traits<char> >::basic_streambuf<char,_STL::char_traits<char> >
_TEXT	ENDS
PUBLIC	?gptr@?$basic_streambuf@DV?$char_traits@D@_STL@@@_STL@@IBEPADXZ ; _STL::basic_streambuf<char,_STL::char_traits<char> >::gptr
; Function compile flags: /Ogsy
;	COMDAT ?gptr@?$basic_streambuf@DV?$char_traits@D@_STL@@@_STL@@IBEPADXZ
_TEXT	SEGMENT
?gptr@?$basic_streambuf@DV?$char_traits@D@_STL@@@_STL@@IBEPADXZ PROC NEAR ; _STL::basic_streambuf<char,_STL::char_traits<char> >::gptr, COMDAT
; _this$ = ecx

; 363  :   char_type* gptr()  const { return _FILE_I_next(_M_get); }

  00000	8b 41 04	 mov	 eax, DWORD PTR [ecx+4]
  00003	8b 00		 mov	 eax, DWORD PTR [eax]
  00005	c3		 ret	 0
?gptr@?$basic_streambuf@DV?$char_traits@D@_STL@@@_STL@@IBEPADXZ ENDP ; _STL::basic_streambuf<char,_STL::char_traits<char> >::gptr
_TEXT	ENDS
PUBLIC	?egptr@?$basic_streambuf@DV?$char_traits@D@_STL@@@_STL@@IBEPADXZ ; _STL::basic_streambuf<char,_STL::char_traits<char> >::egptr
; Function compile flags: /Ogsy
;	COMDAT ?egptr@?$basic_streambuf@DV?$char_traits@D@_STL@@@_STL@@IBEPADXZ
_TEXT	SEGMENT
?egptr@?$basic_streambuf@DV?$char_traits@D@_STL@@@_STL@@IBEPADXZ PROC NEAR ; _STL::basic_streambuf<char,_STL::char_traits<char> >::egptr, COMDAT
; _this$ = ecx

; 364  :   char_type* egptr() const { return _FILE_I_end(_M_get); }

  00000	8b 49 04	 mov	 ecx, DWORD PTR [ecx+4]
  00003	8b 41 04	 mov	 eax, DWORD PTR [ecx+4]
  00006	03 01		 add	 eax, DWORD PTR [ecx]
  00008	c3		 ret	 0
?egptr@?$basic_streambuf@DV?$char_traits@D@_STL@@@_STL@@IBEPADXZ ENDP ; _STL::basic_streambuf<char,_STL::char_traits<char> >::egptr
_TEXT	ENDS
PUBLIC	?setg@?$basic_streambuf@DV?$char_traits@D@_STL@@@_STL@@IAEXPAD00@Z ; _STL::basic_streambuf<char,_STL::char_traits<char> >::setg
; Function compile flags: /Ogsy
;	COMDAT ?setg@?$basic_streambuf@DV?$char_traits@D@_STL@@@_STL@@IAEXPAD00@Z
_TEXT	SEGMENT
___gbegin$ = 8						; size = 4
___gnext$ = 12						; size = 4
___gend$ = 16						; size = 4
?setg@?$basic_streambuf@DV?$char_traits@D@_STL@@@_STL@@IAEXPAD00@Z PROC NEAR ; _STL::basic_streambuf<char,_STL::char_traits<char> >::setg, COMDAT
; _this$ = ecx

; 367  :     { _FILE_I_set(_M_get, __gbegin, __gnext, __gend); }

  00000	8b 41 04	 mov	 eax, DWORD PTR [ecx+4]
  00003	8b 4c 24 04	 mov	 ecx, DWORD PTR ___gbegin$[esp-4]
  00007	8b 54 24 0c	 mov	 edx, DWORD PTR ___gend$[esp-4]
  0000b	89 48 08	 mov	 DWORD PTR [eax+8], ecx
  0000e	8b 4c 24 08	 mov	 ecx, DWORD PTR ___gnext$[esp-4]
  00012	2b d1		 sub	 edx, ecx
  00014	89 08		 mov	 DWORD PTR [eax], ecx
  00016	89 50 04	 mov	 DWORD PTR [eax+4], edx
  00019	c2 0c 00	 ret	 12			; 0000000cH
?setg@?$basic_streambuf@DV?$char_traits@D@_STL@@@_STL@@IAEXPAD00@Z ENDP ; _STL::basic_streambuf<char,_STL::char_traits<char> >::setg
_TEXT	ENDS
PUBLIC	?_M_gptr@?$basic_streambuf@DV?$char_traits@D@_STL@@@_STL@@QBEPADXZ ; _STL::basic_streambuf<char,_STL::char_traits<char> >::_M_gptr
; Function compile flags: /Ogsy
;	COMDAT ?_M_gptr@?$basic_streambuf@DV?$char_traits@D@_STL@@@_STL@@QBEPADXZ
_TEXT	SEGMENT
?_M_gptr@?$basic_streambuf@DV?$char_traits@D@_STL@@@_STL@@QBEPADXZ PROC NEAR ; _STL::basic_streambuf<char,_STL::char_traits<char> >::_M_gptr, COMDAT
; _this$ = ecx

; 375  :   char_type* _M_gptr()  const { return _FILE_I_next(_M_get); }

  00000	8b 41 04	 mov	 eax, DWORD PTR [ecx+4]
  00003	8b 00		 mov	 eax, DWORD PTR [eax]
  00005	c3		 ret	 0
?_M_gptr@?$basic_streambuf@DV?$char_traits@D@_STL@@@_STL@@QBEPADXZ ENDP ; _STL::basic_streambuf<char,_STL::char_traits<char> >::_M_gptr
_TEXT	ENDS
PUBLIC	?_M_egptr@?$basic_streambuf@DV?$char_traits@D@_STL@@@_STL@@QBEPADXZ ; _STL::basic_streambuf<char,_STL::char_traits<char> >::_M_egptr
; Function compile flags: /Ogsy
;	COMDAT ?_M_egptr@?$basic_streambuf@DV?$char_traits@D@_STL@@@_STL@@QBEPADXZ
_TEXT	SEGMENT
?_M_egptr@?$basic_streambuf@DV?$char_traits@D@_STL@@@_STL@@QBEPADXZ PROC NEAR ; _STL::basic_streambuf<char,_STL::char_traits<char> >::_M_egptr, COMDAT
; _this$ = ecx

; 376  :   char_type* _M_egptr() const { return _FILE_I_end(_M_get); }

  00000	8b 49 04	 mov	 ecx, DWORD PTR [ecx+4]
  00003	8b 41 04	 mov	 eax, DWORD PTR [ecx+4]
  00006	03 01		 add	 eax, DWORD PTR [ecx]
  00008	c3		 ret	 0
?_M_egptr@?$basic_streambuf@DV?$char_traits@D@_STL@@@_STL@@QBEPADXZ ENDP ; _STL::basic_streambuf<char,_STL::char_traits<char> >::_M_egptr
_TEXT	ENDS
PUBLIC	?_M_gbump@?$basic_streambuf@DV?$char_traits@D@_STL@@@_STL@@QAEXH@Z ; _STL::basic_streambuf<char,_STL::char_traits<char> >::_M_gbump
; Function compile flags: /Ogsy
;	COMDAT ?_M_gbump@?$basic_streambuf@DV?$char_traits@D@_STL@@@_STL@@QAEXH@Z
_TEXT	SEGMENT
___n$ = 8						; size = 4
?_M_gbump@?$basic_streambuf@DV?$char_traits@D@_STL@@@_STL@@QAEXH@Z PROC NEAR ; _STL::basic_streambuf<char,_STL::char_traits<char> >::_M_gbump, COMDAT
; _this$ = ecx

; 378  :   void _M_gbump(int __n) { _FILE_I_bump(_M_get, __n); }

  00000	8b 41 04	 mov	 eax, DWORD PTR [ecx+4]
  00003	8b 4c 24 04	 mov	 ecx, DWORD PTR ___n$[esp-4]
  00007	01 08		 add	 DWORD PTR [eax], ecx
  00009	29 48 04	 sub	 DWORD PTR [eax+4], ecx
  0000c	c2 04 00	 ret	 4
?_M_gbump@?$basic_streambuf@DV?$char_traits@D@_STL@@@_STL@@QAEXH@Z ENDP ; _STL::basic_streambuf<char,_STL::char_traits<char> >::_M_gbump
_TEXT	ENDS
PUBLIC	?_M_deallocate_buffers@?$basic_filebuf@DV?$char_traits@D@_STL@@@_STL@@AAEXXZ ; _STL::basic_filebuf<char,_STL::char_traits<char> >::_M_deallocate_buffers
EXTRN	_free:NEAR
; Function compile flags: /Ogsy
; File c:\stlport-4.6.1\stlport\stl\_fstream.c
;	COMDAT ?_M_deallocate_buffers@?$basic_filebuf@DV?$char_traits@D@_STL@@@_STL@@AAEXXZ
_TEXT	SEGMENT
?_M_deallocate_buffers@?$basic_filebuf@DV?$char_traits@D@_STL@@@_STL@@AAEXXZ PROC NEAR ; _STL::basic_filebuf<char,_STL::char_traits<char> >::_M_deallocate_buffers, COMDAT
; _this$ = ecx

; 684  : {

  00000	53		 push	 ebx
  00001	56		 push	 esi
  00002	8b f1		 mov	 esi, ecx

; 685  :   if (_M_int_buf_dynamic)

  00004	33 db		 xor	 ebx, ebx
  00006	38 5e 66	 cmp	 BYTE PTR [esi+102], bl
  00009	74 09		 je	 SHORT $L101725

; 686  :     free(_M_int_buf);

  0000b	ff 76 6c	 push	 DWORD PTR [esi+108]
  0000e	e8 00 00 00 00	 call	 _free
  00013	59		 pop	 ecx
$L101725:

; 687  :   free(_M_ext_buf);

  00014	ff 76 74	 push	 DWORD PTR [esi+116]
  00017	e8 00 00 00 00	 call	 _free
  0001c	59		 pop	 ecx

; 688  :   _M_int_buf     = 0;

  0001d	89 5e 6c	 mov	 DWORD PTR [esi+108], ebx

; 689  :   _M_int_buf_EOS = 0;

  00020	89 5e 70	 mov	 DWORD PTR [esi+112], ebx

; 690  :   _M_ext_buf     = 0;

  00023	89 5e 74	 mov	 DWORD PTR [esi+116], ebx

; 691  :   _M_ext_buf_EOS = 0;

  00026	89 5e 78	 mov	 DWORD PTR [esi+120], ebx
  00029	5e		 pop	 esi
  0002a	5b		 pop	 ebx

; 692  : }

  0002b	c3		 ret	 0
?_M_deallocate_buffers@?$basic_filebuf@DV?$char_traits@D@_STL@@@_STL@@AAEXXZ ENDP ; _STL::basic_filebuf<char,_STL::char_traits<char> >::_M_deallocate_buffers
_TEXT	ENDS
PUBLIC	?setp@?$basic_streambuf@DV?$char_traits@D@_STL@@@_STL@@IAEXPAD0@Z ; _STL::basic_streambuf<char,_STL::char_traits<char> >::setp
; Function compile flags: /Ogsy
; File c:\stlport-4.6.1\stlport\stl\_streambuf.h
;	COMDAT ?setp@?$basic_streambuf@DV?$char_traits@D@_STL@@@_STL@@IAEXPAD0@Z
_TEXT	SEGMENT
___pbegin$ = 8						; size = 4
___pend$ = 12						; size = 4
?setp@?$basic_streambuf@DV?$char_traits@D@_STL@@@_STL@@IAEXPAD0@Z PROC NEAR ; _STL::basic_streambuf<char,_STL::char_traits<char> >::setp, COMDAT
; _this$ = ecx

; 389  :     { _FILE_O_set(_M_put, __pbegin, __pbegin, __pend); }

  00000	8b 41 08	 mov	 eax, DWORD PTR [ecx+8]
  00003	8b 4c 24 04	 mov	 ecx, DWORD PTR ___pbegin$[esp-4]
  00007	8b 54 24 08	 mov	 edx, DWORD PTR ___pend$[esp-4]
  0000b	2b d1		 sub	 edx, ecx
  0000d	89 48 08	 mov	 DWORD PTR [eax+8], ecx
  00010	89 08		 mov	 DWORD PTR [eax], ecx
  00012	89 50 04	 mov	 DWORD PTR [eax+4], edx
  00015	c2 08 00	 ret	 8
?setp@?$basic_streambuf@DV?$char_traits@D@_STL@@@_STL@@IAEXPAD0@Z ENDP ; _STL::basic_streambuf<char,_STL::char_traits<char> >::setp
_TEXT	ENDS
PUBLIC	?pubseekoff@?$basic_streambuf@DV?$char_traits@D@_STL@@@_STL@@QAE?AV?$fpos@H@2@JHH@Z ; _STL::basic_streambuf<char,_STL::char_traits<char> >::pubseekoff
; Function compile flags: /Ogsy
;	COMDAT ?pubseekoff@?$basic_streambuf@DV?$char_traits@D@_STL@@@_STL@@QAE?AV?$fpos@H@2@JHH@Z
_TEXT	SEGMENT
___$ReturnUdt$ = 8					; size = 4
___offset$ = 12						; size = 4
___way$ = 16						; size = 4
___mod$ = 20						; size = 4
?pubseekoff@?$basic_streambuf@DV?$char_traits@D@_STL@@@_STL@@QAE?AV?$fpos@H@2@JHH@Z PROC NEAR ; _STL::basic_streambuf<char,_STL::char_traits<char> >::pubseekoff, COMDAT
; _this$ = ecx

; 405  :     { return this->seekoff(__offset, __way, __mod); }

  00000	55		 push	 ebp
  00001	8b ec		 mov	 ebp, esp
  00003	ff 75 14	 push	 DWORD PTR ___mod$[ebp]
  00006	8b 01		 mov	 eax, DWORD PTR [ecx]
  00008	ff 75 10	 push	 DWORD PTR ___way$[ebp]
  0000b	ff 75 0c	 push	 DWORD PTR ___offset$[ebp]
  0000e	ff 75 08	 push	 DWORD PTR ___$ReturnUdt$[ebp]
  00011	ff 50 08	 call	 DWORD PTR [eax+8]
  00014	8b 45 08	 mov	 eax, DWORD PTR ___$ReturnUdt$[ebp]
  00017	5d		 pop	 ebp
  00018	c2 10 00	 ret	 16			; 00000010H
?pubseekoff@?$basic_streambuf@DV?$char_traits@D@_STL@@@_STL@@QAE?AV?$fpos@H@2@JHH@Z ENDP ; _STL::basic_streambuf<char,_STL::char_traits<char> >::pubseekoff
_TEXT	ENDS
PUBLIC	?pubsync@?$basic_streambuf@DV?$char_traits@D@_STL@@@_STL@@QAEHXZ ; _STL::basic_streambuf<char,_STL::char_traits<char> >::pubsync
; Function compile flags: /Ogsy
;	COMDAT ?pubsync@?$basic_streambuf@DV?$char_traits@D@_STL@@@_STL@@QAEHXZ
_TEXT	SEGMENT
?pubsync@?$basic_streambuf@DV?$char_traits@D@_STL@@@_STL@@QAEHXZ PROC NEAR ; _STL::basic_streambuf<char,_STL::char_traits<char> >::pubsync, COMDAT
; _this$ = ecx

; 411  :   int pubsync() { return this->sync(); }

  00000	8b 01		 mov	 eax, DWORD PTR [ecx]
  00002	ff 60 10	 jmp	 DWORD PTR [eax+16]
?pubsync@?$basic_streambuf@DV?$char_traits@D@_STL@@@_STL@@QAEHXZ ENDP ; _STL::basic_streambuf<char,_STL::char_traits<char> >::pubsync
_TEXT	ENDS
PUBLIC	?sputn@?$basic_streambuf@DV?$char_traits@D@_STL@@@_STL@@QAEHPBDH@Z ; _STL::basic_streambuf<char,_STL::char_traits<char> >::sputn
; Function compile flags: /Ogsy
;	COMDAT ?sputn@?$basic_streambuf@DV?$char_traits@D@_STL@@@_STL@@QAEHPBDH@Z
_TEXT	SEGMENT
___s$ = 8						; size = 4
___n$ = 12						; size = 4
?sputn@?$basic_streambuf@DV?$char_traits@D@_STL@@@_STL@@QAEHPBDH@Z PROC NEAR ; _STL::basic_streambuf<char,_STL::char_traits<char> >::sputn, COMDAT
; _this$ = ecx

; 441  :     { return this->xsputn(__s, __n); }

  00000	8b 01		 mov	 eax, DWORD PTR [ecx]
  00002	ff 60 28	 jmp	 DWORD PTR [eax+40]
?sputn@?$basic_streambuf@DV?$char_traits@D@_STL@@@_STL@@QAEHPBDH@Z ENDP ; _STL::basic_streambuf<char,_STL::char_traits<char> >::sputn
_TEXT	ENDS
PUBLIC	??_R4?$basic_ios@DV?$char_traits@D@_STL@@@_STL@@6B@ ; _STL::basic_ios<char,_STL::char_traits<char> >::`RTTI Complete Object Locator'
PUBLIC	??_R3?$basic_ios@DV?$char_traits@D@_STL@@@_STL@@8 ; _STL::basic_ios<char,_STL::char_traits<char> >::`RTTI Class Hierarchy Descriptor'
PUBLIC	??_R2?$basic_ios@DV?$char_traits@D@_STL@@@_STL@@8 ; _STL::basic_ios<char,_STL::char_traits<char> >::`RTTI Base Class Array'
PUBLIC	??_R1A@?0A@A@?$basic_ios@DV?$char_traits@D@_STL@@@_STL@@8 ; _STL::basic_ios<char,_STL::char_traits<char> >::`RTTI Base Class Descriptor at (0,-1,0,0)'
PUBLIC	??_R1A@?0A@A@ios_base@_STL@@8			; _STL::ios_base::`RTTI Base Class Descriptor at (0,-1,0,0)'
PUBLIC	??0?$basic_ios@DV?$char_traits@D@_STL@@@_STL@@IAE@XZ ; _STL::basic_ios<char,_STL::char_traits<char> >::basic_ios<char,_STL::char_traits<char> >
PUBLIC	??_7?$basic_ios@DV?$char_traits@D@_STL@@@_STL@@6B@ ; _STL::basic_ios<char,_STL::char_traits<char> >::`vftable'
PUBLIC	??_G?$basic_ios@DV?$char_traits@D@_STL@@@_STL@@UAEPAXI@Z ; _STL::basic_ios<char,_STL::char_traits<char> >::`scalar deleting destructor'
PUBLIC	??_R0?AV?$basic_ios@DV?$char_traits@D@_STL@@@_STL@@@8 ; _STL::basic_ios<char,_STL::char_traits<char> > `RTTI Type Descriptor'
PUBLIC	??_R0?AVios_base@_STL@@@8			; _STL::ios_base `RTTI Type Descriptor'
EXTRN	??_E?$basic_ios@DV?$char_traits@D@_STL@@@_STL@@UAEPAXI@Z:NEAR ; _STL::basic_ios<char,_STL::char_traits<char> >::`vector deleting destructor'
EXTRN	??0ios_base@_STL@@IAE@XZ:NEAR			; _STL::ios_base::ios_base
;	COMDAT ??_7?$basic_ios@DV?$char_traits@D@_STL@@@_STL@@6B@
; File c:\stlport-4.6.1\stlport\stl\_ios.c
CONST	SEGMENT
??_7?$basic_ios@DV?$char_traits@D@_STL@@@_STL@@6B@ DD FLAT:??_R4?$basic_ios@DV?$char_traits@D@_STL@@@_STL@@6B@ ; _STL::basic_ios<char,_STL::char_traits<char> >::`vftable'
	DD	FLAT:??_E?$basic_ios@DV?$char_traits@D@_STL@@@_STL@@UAEPAXI@Z
CONST	ENDS
;	COMDAT ??_R4?$basic_ios@DV?$char_traits@D@_STL@@@_STL@@6B@
rdata$r	SEGMENT
??_R4?$basic_ios@DV?$char_traits@D@_STL@@@_STL@@6B@ DD 00H ; _STL::basic_ios<char,_STL::char_traits<char> >::`RTTI Complete Object Locator'
	DD	00H
	DD	00H
	DD	FLAT:??_R0?AV?$basic_ios@DV?$char_traits@D@_STL@@@_STL@@@8
	DD	FLAT:??_R3?$basic_ios@DV?$char_traits@D@_STL@@@_STL@@8
rdata$r	ENDS
;	COMDAT ??_R0?AV?$basic_ios@DV?$char_traits@D@_STL@@@_STL@@@8
_DATA	SEGMENT
??_R0?AV?$basic_ios@DV?$char_traits@D@_STL@@@_STL@@@8 DD FLAT:??_7type_info@@6B@ ; _STL::basic_ios<char,_STL::char_traits<char> > `RTTI Type Descriptor'
	DD	00H
	DB	'.?AV?$basic_ios@DV?$char_traits@D@_STL@@@_STL@@', 00H
_DATA	ENDS
;	COMDAT ??_R3?$basic_ios@DV?$char_traits@D@_STL@@@_STL@@8
rdata$r	SEGMENT
??_R3?$basic_ios@DV?$char_traits@D@_STL@@@_STL@@8 DD 00H ; _STL::basic_ios<char,_STL::char_traits<char> >::`RTTI Class Hierarchy Descriptor'
	DD	00H
	DD	02H
	DD	FLAT:??_R2?$basic_ios@DV?$char_traits@D@_STL@@@_STL@@8
rdata$r	ENDS
;	COMDAT ??_R2?$basic_ios@DV?$char_traits@D@_STL@@@_STL@@8
rdata$r	SEGMENT
??_R2?$basic_ios@DV?$char_traits@D@_STL@@@_STL@@8 DD FLAT:??_R1A@?0A@A@?$basic_ios@DV?$char_traits@D@_STL@@@_STL@@8 ; _STL::basic_ios<char,_STL::char_traits<char> >::`RTTI Base Class Array'
	DD	FLAT:??_R1A@?0A@A@ios_base@_STL@@8
rdata$r	ENDS
;	COMDAT ??_R1A@?0A@A@?$basic_ios@DV?$char_traits@D@_STL@@@_STL@@8
rdata$r	SEGMENT
??_R1A@?0A@A@?$basic_ios@DV?$char_traits@D@_STL@@@_STL@@8 DD FLAT:??_R0?AV?$basic_ios@DV?$char_traits@D@_STL@@@_STL@@@8 ; _STL::basic_ios<char,_STL::char_traits<char> >::`RTTI Base Class Descriptor at (0,-1,0,0)'
	DD	01H
	DD	00H
	DD	0ffffffffH
	DD	00H
	DD	00H
rdata$r	ENDS
;	COMDAT ??_R1A@?0A@A@ios_base@_STL@@8
rdata$r	SEGMENT
??_R1A@?0A@A@ios_base@_STL@@8 DD FLAT:??_R0?AVios_base@_STL@@@8 ; _STL::ios_base::`RTTI Base Class Descriptor at (0,-1,0,0)'
	DD	00H
	DD	00H
	DD	0ffffffffH
	DD	00H
	DD	00H
rdata$r	ENDS
;	COMDAT ??_R0?AVios_base@_STL@@@8
_DATA	SEGMENT
??_R0?AVios_base@_STL@@@8 DD FLAT:??_7type_info@@6B@	; _STL::ios_base `RTTI Type Descriptor'
	DD	00H
	DB	'.?AVios_base@_STL@@', 00H
; Function compile flags: /Ogsy
_DATA	ENDS
;	COMDAT ??0?$basic_ios@DV?$char_traits@D@_STL@@@_STL@@IAE@XZ
_TEXT	SEGMENT
??0?$basic_ios@DV?$char_traits@D@_STL@@@_STL@@IAE@XZ PROC NEAR ; _STL::basic_ios<char,_STL::char_traits<char> >::basic_ios<char,_STL::char_traits<char> >, COMDAT
; _this$ = ecx

; 95   : {}

  00000	56		 push	 esi
  00001	8b f1		 mov	 esi, ecx
  00003	e8 00 00 00 00	 call	 ??0ios_base@_STL@@IAE@XZ ; _STL::ios_base::ios_base
  00008	33 c0		 xor	 eax, eax
  0000a	88 46 54	 mov	 BYTE PTR [esi+84], al
  0000d	89 46 58	 mov	 DWORD PTR [esi+88], eax
  00010	89 46 5c	 mov	 DWORD PTR [esi+92], eax
  00013	c7 06 00 00 00
	00		 mov	 DWORD PTR [esi], OFFSET FLAT:??_7?$basic_ios@DV?$char_traits@D@_STL@@@_STL@@6B@
  00019	8b c6		 mov	 eax, esi
  0001b	5e		 pop	 esi
  0001c	c3		 ret	 0
??0?$basic_ios@DV?$char_traits@D@_STL@@@_STL@@IAE@XZ ENDP ; _STL::basic_ios<char,_STL::char_traits<char> >::basic_ios<char,_STL::char_traits<char> >
_TEXT	ENDS
PUBLIC	?sbumpc@?$basic_streambuf@DV?$char_traits@D@_STL@@@_STL@@QAEHXZ ; _STL::basic_streambuf<char,_STL::char_traits<char> >::sbumpc
; Function compile flags: /Ogsy
; File c:\stlport-4.6.1\stlport\stl\_streambuf.h
;	COMDAT ?sbumpc@?$basic_streambuf@DV?$char_traits@D@_STL@@@_STL@@QAEHXZ
_TEXT	SEGMENT
?sbumpc@?$basic_streambuf@DV?$char_traits@D@_STL@@@_STL@@QAEHXZ PROC NEAR ; _STL::basic_streambuf<char,_STL::char_traits<char> >::sbumpc, COMDAT
; _this$ = ecx

; 464  :     return _FILE_I_avail(_M_get) > 0
; 465  :       ? traits_type::to_int_type(_FILE_I_postincr(_M_get))
; 466  :       : this->uflow();

  00000	8b 41 04	 mov	 eax, DWORD PTR [ecx+4]
  00003	83 78 04 00	 cmp	 DWORD PTR [eax+4], 0
  00007	7e 0e		 jle	 SHORT $L103329
  00009	8b 08		 mov	 ecx, DWORD PTR [eax]
  0000b	ff 48 04	 dec	 DWORD PTR [eax+4]
  0000e	8d 51 01	 lea	 edx, DWORD PTR [ecx+1]
  00011	89 10		 mov	 DWORD PTR [eax], edx
  00013	0f b6 01	 movzx	 eax, BYTE PTR [ecx]

; 467  :   }

  00016	c3		 ret	 0
$L103329:

; 464  :     return _FILE_I_avail(_M_get) > 0
; 465  :       ? traits_type::to_int_type(_FILE_I_postincr(_M_get))
; 466  :       : this->uflow();

  00017	8b 01		 mov	 eax, DWORD PTR [ecx]
  00019	ff 60 20	 jmp	 DWORD PTR [eax+32]
?sbumpc@?$basic_streambuf@DV?$char_traits@D@_STL@@@_STL@@QAEHXZ ENDP ; _STL::basic_streambuf<char,_STL::char_traits<char> >::sbumpc
_TEXT	ENDS
PUBLIC	?sgetc@?$basic_streambuf@DV?$char_traits@D@_STL@@@_STL@@QAEHXZ ; _STL::basic_streambuf<char,_STL::char_traits<char> >::sgetc
; Function compile flags: /Ogsy
;	COMDAT ?sgetc@?$basic_streambuf@DV?$char_traits@D@_STL@@@_STL@@QAEHXZ
_TEXT	SEGMENT
?sgetc@?$basic_streambuf@DV?$char_traits@D@_STL@@@_STL@@QAEHXZ PROC NEAR ; _STL::basic_streambuf<char,_STL::char_traits<char> >::sgetc, COMDAT
; _this$ = ecx

; 471  :     return _FILE_I_avail(_M_get) > 0
; 472  :       ? traits_type::to_int_type(*_FILE_I_next(_M_get))
; 473  :       : this->underflow();

  00000	8b 41 04	 mov	 eax, DWORD PTR [ecx+4]
  00003	83 78 04 00	 cmp	 DWORD PTR [eax+4], 0
  00007	7e 06		 jle	 SHORT $L103347
  00009	8b 00		 mov	 eax, DWORD PTR [eax]
  0000b	0f b6 00	 movzx	 eax, BYTE PTR [eax]

; 474  :   }

  0000e	c3		 ret	 0
$L103347:

; 471  :     return _FILE_I_avail(_M_get) > 0
; 472  :       ? traits_type::to_int_type(*_FILE_I_next(_M_get))
; 473  :       : this->underflow();

  0000f	8b 01		 mov	 eax, DWORD PTR [ecx]
  00011	ff 60 1c	 jmp	 DWORD PTR [eax+28]
?sgetc@?$basic_streambuf@DV?$char_traits@D@_STL@@@_STL@@QAEHXZ ENDP ; _STL::basic_streambuf<char,_STL::char_traits<char> >::sgetc
_TEXT	ENDS
EXTRN	??1?$basic_streambuf@DV?$char_traits@D@_STL@@@_STL@@UAE@XZ:NEAR ; _STL::basic_streambuf<char,_STL::char_traits<char> >::~basic_streambuf<char,_STL::char_traits<char> >
; Function compile flags: /Ogsy
;	COMDAT ??_G?$basic_streambuf@DV?$char_traits@D@_STL@@@_STL@@UAEPAXI@Z
_TEXT	SEGMENT
___flags$ = 8						; size = 4
??_G?$basic_streambuf@DV?$char_traits@D@_STL@@@_STL@@UAEPAXI@Z PROC NEAR ; _STL::basic_streambuf<char,_STL::char_traits<char> >::`scalar deleting destructor', COMDAT
; _this$ = ecx
  00000	56		 push	 esi
  00001	8b f1		 mov	 esi, ecx
  00003	e8 00 00 00 00	 call	 ??1?$basic_streambuf@DV?$char_traits@D@_STL@@@_STL@@UAE@XZ ; _STL::basic_streambuf<char,_STL::char_traits<char> >::~basic_streambuf<char,_STL::char_traits<char> >
  00008	f6 44 24 08 01	 test	 BYTE PTR ___flags$[esp], 1
  0000d	74 07		 je	 SHORT $L81055
  0000f	56		 push	 esi
  00010	e8 00 00 00 00	 call	 ??3@YAXPAX@Z		; operator delete
  00015	59		 pop	 ecx
$L81055:
  00016	8b c6		 mov	 eax, esi
  00018	5e		 pop	 esi
  00019	c2 04 00	 ret	 4
??_G?$basic_streambuf@DV?$char_traits@D@_STL@@@_STL@@UAEPAXI@Z ENDP ; _STL::basic_streambuf<char,_STL::char_traits<char> >::`scalar deleting destructor'
_TEXT	ENDS
PUBLIC	?tellg@?$basic_istream@DV?$char_traits@D@_STL@@@_STL@@QAE?AV?$fpos@H@2@XZ ; _STL::basic_istream<char,_STL::char_traits<char> >::tellg
; Function compile flags: /Ogsy
; File c:\stlport-4.6.1\stlport\stl\_istream.c
;	COMDAT ?tellg@?$basic_istream@DV?$char_traits@D@_STL@@@_STL@@QAE?AV?$fpos@H@2@XZ
_TEXT	SEGMENT
$T103371 = -8						; size = 8
$T103370 = -8						; size = 8
___$ReturnUdt$ = 8					; size = 4
?tellg@?$basic_istream@DV?$char_traits@D@_STL@@@_STL@@QAE?AV?$fpos@H@2@XZ PROC NEAR ; _STL::basic_istream<char,_STL::char_traits<char> >::tellg, COMDAT
; _this$ = ecx

; 442  : basic_istream<_CharT, _Traits>::tellg() {

  00000	55		 push	 ebp
  00001	8b ec		 mov	 ebp, esp
  00003	51		 push	 ecx
  00004	51		 push	 ecx
  00005	8b c1		 mov	 eax, ecx

; 443  :   //   sentry __sentry(*this, _No_Skip_WS());
; 444  :   basic_streambuf<_CharT, _Traits>* __buf = this->rdbuf();

  00007	8b 10		 mov	 edx, DWORD PTR [eax]
  00009	8b 4a 04	 mov	 ecx, DWORD PTR [edx+4]
  0000c	8b 4c 01 58	 mov	 ecx, DWORD PTR [ecx+eax+88]

; 445  :   return (__buf && !this->fail()) ? __buf->pubseekoff(0, ios_base::cur, ios_base::in)
; 446  :     : pos_type(-1);

  00010	85 c9		 test	 ecx, ecx
  00012	74 1b		 je	 SHORT $L103369
  00014	8b 52 04	 mov	 edx, DWORD PTR [edx+4]
  00017	f6 44 02 08 05	 test	 BYTE PTR [edx+eax+8], 5
  0001c	75 11		 jne	 SHORT $L103369
  0001e	8b 01		 mov	 eax, DWORD PTR [ecx]
  00020	6a 08		 push	 8
  00022	6a 02		 push	 2
  00024	6a 00		 push	 0
  00026	8d 55 f8	 lea	 edx, DWORD PTR $T103370[ebp]
  00029	52		 push	 edx
  0002a	ff 50 08	 call	 DWORD PTR [eax+8]
  0002d	eb 08		 jmp	 SHORT $L103385
$L103369:
  0002f	83 4d f8 ff	 or	 DWORD PTR $T103371[ebp], -1
  00033	83 65 fc 00	 and	 DWORD PTR $T103371[ebp+4], 0
$L103385:
  00037	8b 45 08	 mov	 eax, DWORD PTR ___$ReturnUdt$[ebp]
  0003a	8d 4d f8	 lea	 ecx, DWORD PTR $T103371[ebp]
  0003d	8b 11		 mov	 edx, DWORD PTR [ecx]
  0003f	8b 49 04	 mov	 ecx, DWORD PTR [ecx+4]
  00042	89 10		 mov	 DWORD PTR [eax], edx
  00044	89 48 04	 mov	 DWORD PTR [eax+4], ecx

; 447  : }

  00047	c9		 leave
  00048	c2 04 00	 ret	 4
?tellg@?$basic_istream@DV?$char_traits@D@_STL@@@_STL@@QAE?AV?$fpos@H@2@XZ ENDP ; _STL::basic_istream<char,_STL::char_traits<char> >::tellg
_TEXT	ENDS
PUBLIC	??$PUUFAppendPackImpl@G@@YA_NPBD0@Z		; PUUFAppendPackImpl<unsigned short>
; Function compile flags: /Ogsy
; File c:\darkeden\designed_common\project\client\updater\packageupdateutility.h
;	COMDAT ??$PUUFAppendPackImpl@G@@YA_NPBD0@Z
_TEXT	SEGMENT
_FilenameAdd$ = 8					; size = 4
_FilenameOriginal$ = 12					; size = 4
??$PUUFAppendPackImpl@G@@YA_NPBD0@Z PROC NEAR		; PUUFAppendPackImpl<unsigned short>, COMDAT

; 55   : 	/*
; 56   : 	if(!PUUFIsFileExist(FilenameOriginal))
; 57   : 		return UUFAppendPackImpl<SIZE_TYPE>(FilenameAdd, FilenameOriginal);
; 58   : 
; 59   : 	if(UUFHasPermission(FilenameOriginal) && UUFHasPermission(FilenameAdd))
; 60   : 	{
; 61   : 		//------------------------------------------
; 62   : 		//  Filesize ?
; 63   : 		//------------------------------------------
; 64   : 		//if (!IsFileSizeBeforeOK())
; 65   : 		//{
; 66   : 			// Update   Filesize .. !!						
; 67   : 		//	return false;
; 68   : 		//}
; 69   : 
; 70   : 		SIZE_TYPE sourceCount, targetCount;
; 71   : 
; 72   : 		//---------------------------------------------------------------
; 73   : 		// target  .
; 74   : 		//---------------------------------------------------------------
; 75   : 		ivfstream originalFile(FilenameOriginal, std::ios_base::binary);
; 76   : 		
; 77   : 		originalFile.read((char*)&targetCount, sizeof(SIZE_TYPE));
; 78   : 
; 79   : 		//---------------------------------------------------------------
; 80   : 		// source  target  .
; 81   : 		//---------------------------------------------------------------
; 82   : 		std::ifstream addFile(FilenameAdd, std::ios_base::binary);
; 83   : 			
; 84   : 		addFile.read((char*)&sourceCount, sizeof(SIZE_TYPE));
; 85   : 
; 86   : 		targetCount += sourceCount;
; 87   : 
; 88   : 
; 89   : 		//---------------------------------------------------------------
; 90   : 		// original source  target .
; 91   : 		//---------------------------------------------------------------
; 92   : 		opfstream targetFile(FilenameOriginal, std::ios_base::binary);
; 93   : 
; 94   : 		//  .
; 95   : 		targetFile.write((char *)&targetCount, sizeof(SIZE_TYPE));
; 96   : 
; 97   : 		//---------------------------------------------------------------
; 98   : 		// originalFile targetFile .
; 99   : 		//---------------------------------------------------------------
; 100  : 		char buffer[SIZE_BUFFER];
; 101  : 		int n;
; 102  : 
; 103  : 		while (1)
; 104  : 		{
; 105  : 			originalFile.read(buffer, SIZE_BUFFER);
; 106  : 			
; 107  : 			n = originalFile.gcount();
; 108  : 
; 109  : 			if (n > 0)
; 110  : 			{		
; 111  : 				targetFile.write(buffer, n);
; 112  : 			}
; 113  : 			else
; 114  : 			{
; 115  : 				break;
; 116  : 			}
; 117  : 		}
; 118  : 
; 119  : 		//---------------------------------------------------------------
; 120  : 		// addFile targetFile .
; 121  : 		//---------------------------------------------------------------
; 122  : 		while (1)
; 123  : 		{
; 124  : 			addFile.read(buffer, SIZE_BUFFER);
; 125  : 			
; 126  : 			n = addFile.gcount();
; 127  : 
; 128  : 			if (n > 0)
; 129  : 			{		
; 130  : 				targetFile.write(buffer, n);
; 131  : 			}
; 132  : 			else
; 133  : 			{
; 134  : 				break;
; 135  : 			}
; 136  : 		}
; 137  : 
; 138  : 		addFile.close();
; 139  : 		originalFile.close();
; 140  : 		targetFile.close();
; 141  : 
; 142  : 		//------------------------------------------
; 143  : 		//  Filesize ?
; 144  : 		//------------------------------------------
; 145  : 		//if (!IsFileSizeAfterOK())
; 146  : 		//{
; 147  : 			// Update   Filesize .. !!
; 148  : 			//  .
; 149  : 		//	return false;
; 150  : 		//}
; 151  : 	}
; 152  : 	*/
; 153  : 
; 154  : 	return true;

  00000	b0 01		 mov	 al, 1

; 155  : }

  00002	c3		 ret	 0
??$PUUFAppendPackImpl@G@@YA_NPBD0@Z ENDP		; PUUFAppendPackImpl<unsigned short>
_TEXT	ENDS
PUBLIC	??$_Construct@PAVAPPEND_PATCH_NODE@@PAV1@@_STL@@YAXPAPAVAPPEND_PATCH_NODE@@ABQAV1@@Z ; _STL::_Construct<APPEND_PATCH_NODE *,APPEND_PATCH_NODE *>
; Function compile flags: /Ogsy
; File c:\stlport-4.6.1\stlport\stl\_construct.h
;	COMDAT ??$_Construct@PAVAPPEND_PATCH_NODE@@PAV1@@_STL@@YAXPAPAVAPPEND_PATCH_NODE@@ABQAV1@@Z
_TEXT	SEGMENT
___p$ = 8						; size = 4
___val$ = 12						; size = 4
??$_Construct@PAVAPPEND_PATCH_NODE@@PAV1@@_STL@@YAXPAPAVAPPEND_PATCH_NODE@@ABQAV1@@Z PROC NEAR ; _STL::_Construct<APPEND_PATCH_NODE *,APPEND_PATCH_NODE *>, COMDAT

; 94   : # ifdef _STLP_DEBUG_UNINITIALIZED
; 95   : 	memset((char*)__p, _STLP_SHRED_BYTE, sizeof(_T1));
; 96   : # endif
; 97   :     _STLP_PLACEMENT_NEW (__p) _T1(__val);

  00000	8b 44 24 04	 mov	 eax, DWORD PTR ___p$[esp-4]
  00004	85 c0		 test	 eax, eax
  00006	74 08		 je	 SHORT $L103392
  00008	8b 4c 24 08	 mov	 ecx, DWORD PTR ___val$[esp-4]
  0000c	8b 09		 mov	 ecx, DWORD PTR [ecx]
  0000e	89 08		 mov	 DWORD PTR [eax], ecx
$L103392:

; 98   : }

  00010	c3		 ret	 0
??$_Construct@PAVAPPEND_PATCH_NODE@@PAV1@@_STL@@YAXPAPAVAPPEND_PATCH_NODE@@ABQAV1@@Z ENDP ; _STL::_Construct<APPEND_PATCH_NODE *,APPEND_PATCH_NODE *>
_TEXT	ENDS
PUBLIC	??$max@I@_STL@@YAABIABI0@Z			; _STL::max<unsigned int>
; Function compile flags: /Ogsy
; File c:\stlport-4.6.1\stlport\stl\_algobase.h
;	COMDAT ??$max@I@_STL@@YAABIABI0@Z
_TEXT	SEGMENT
___a$ = 8						; size = 4
___b$ = 12						; size = 4
??$max@I@_STL@@YAABIABI0@Z PROC NEAR			; _STL::max<unsigned int>, COMDAT

; 79   : inline const _Tp& (max)(const _Tp& __a, const _Tp& __b) {  return  __a < __b ? __b : __a; }

  00000	8b 44 24 04	 mov	 eax, DWORD PTR ___a$[esp-4]
  00004	8b 10		 mov	 edx, DWORD PTR [eax]
  00006	8b 4c 24 08	 mov	 ecx, DWORD PTR ___b$[esp-4]
  0000a	3b 11		 cmp	 edx, DWORD PTR [ecx]
  0000c	73 02		 jae	 SHORT $L103402
  0000e	8b c1		 mov	 eax, ecx
$L103402:
  00010	c3		 ret	 0
??$max@I@_STL@@YAABIABI0@Z ENDP				; _STL::max<unsigned int>
_TEXT	ENDS
PUBLIC	??$fill_n@PAPAVAPPEND_PATCH_NODE@@IPAV1@@_STL@@YAPAPAVAPPEND_PATCH_NODE@@PAPAV1@IABQAV1@@Z ; _STL::fill_n<APPEND_PATCH_NODE * *,unsigned int,APPEND_PATCH_NODE *>
; Function compile flags: /Ogsy
;	COMDAT ??$fill_n@PAPAVAPPEND_PATCH_NODE@@IPAV1@@_STL@@YAPAPAVAPPEND_PATCH_NODE@@PAPAV1@IABQAV1@@Z
_TEXT	SEGMENT
___first$ = 8						; size = 4
___n$ = 12						; size = 4
___val$ = 16						; size = 4
??$fill_n@PAPAVAPPEND_PATCH_NODE@@IPAV1@@_STL@@YAPAPAVAPPEND_PATCH_NODE@@PAPAV1@IABQAV1@@Z PROC NEAR ; _STL::fill_n<APPEND_PATCH_NODE * *,unsigned int,APPEND_PATCH_NODE *>, COMDAT

; 332  : _OutputIter fill_n(_OutputIter __first, _Size __n, const _Tp& __val) {

  00000	55		 push	 ebp
  00001	8b ec		 mov	 ebp, esp

; 333  :   _STLP_FIX_LITERAL_BUG(__first)
; 334  :   for ( ; __n > 0; --__n, ++__first)

  00003	8b 45 0c	 mov	 eax, DWORD PTR ___n$[ebp]
  00006	85 c0		 test	 eax, eax
  00008	76 11		 jbe	 SHORT $L102005
$L102003:

; 335  :     *__first = __val;

  0000a	8b 4d 10	 mov	 ecx, DWORD PTR ___val$[ebp]
  0000d	8b 55 08	 mov	 edx, DWORD PTR ___first$[ebp]
  00010	8b 09		 mov	 ecx, DWORD PTR [ecx]
  00012	83 45 08 04	 add	 DWORD PTR ___first$[ebp], 4
  00016	48		 dec	 eax
  00017	89 0a		 mov	 DWORD PTR [edx], ecx
  00019	75 ef		 jne	 SHORT $L102003
$L102005:

; 336  :   return __first;

  0001b	8b 45 08	 mov	 eax, DWORD PTR ___first$[ebp]

; 337  : }

  0001e	5d		 pop	 ebp
  0001f	c3		 ret	 0
??$fill_n@PAPAVAPPEND_PATCH_NODE@@IPAV1@@_STL@@YAPAPAVAPPEND_PATCH_NODE@@PAPAV1@IABQAV1@@Z ENDP ; _STL::fill_n<APPEND_PATCH_NODE * *,unsigned int,APPEND_PATCH_NODE *>
_TEXT	ENDS
PUBLIC	??$__copy_ptrs@PAPAVAPPEND_PATCH_NODE@@PAPAV1@@_STL@@YAPAPAVAPPEND_PATCH_NODE@@PAPAV1@00ABU__true_type@0@@Z ; _STL::__copy_ptrs<APPEND_PATCH_NODE * *,APPEND_PATCH_NODE * *>
; Function compile flags: /Ogsy
;	COMDAT ??$__copy_ptrs@PAPAVAPPEND_PATCH_NODE@@PAPAV1@@_STL@@YAPAPAVAPPEND_PATCH_NODE@@PAPAV1@00ABU__true_type@0@@Z
_TEXT	SEGMENT
___first$ = 8						; size = 4
___last$ = 12						; size = 4
___result$ = 16						; size = 4
___formal$ = 20						; size = 4
??$__copy_ptrs@PAPAVAPPEND_PATCH_NODE@@PAPAV1@@_STL@@YAPAPAVAPPEND_PATCH_NODE@@PAPAV1@00ABU__true_type@0@@Z PROC NEAR ; _STL::__copy_ptrs<APPEND_PATCH_NODE * *,APPEND_PATCH_NODE * *>, COMDAT

; 195  : // we know they all pointers, so this cast is OK 
; 196  :   //  return (_OutputIter)__copy_trivial(&(*__first), &(*__last), &(*__result));
; 197  :   return (_OutputIter)__copy_trivial(__first, __last, __result);

  00000	ff 74 24 0c	 push	 DWORD PTR ___result$[esp-4]
  00004	ff 74 24 0c	 push	 DWORD PTR ___last$[esp]
  00008	ff 74 24 0c	 push	 DWORD PTR ___first$[esp+4]
  0000c	e8 00 00 00 00	 call	 ?__copy_trivial@_STL@@YAPAXPBX0PAX@Z ; _STL::__copy_trivial
  00011	83 c4 0c	 add	 esp, 12			; 0000000cH

; 198  : }

  00014	c3		 ret	 0
??$__copy_ptrs@PAPAVAPPEND_PATCH_NODE@@PAPAV1@@_STL@@YAPAPAVAPPEND_PATCH_NODE@@PAPAV1@00ABU__true_type@0@@Z ENDP ; _STL::__copy_ptrs<APPEND_PATCH_NODE * *,APPEND_PATCH_NODE * *>
_TEXT	ENDS
PUBLIC	?tie@?$basic_ios@DV?$char_traits@D@_STL@@@_STL@@QAEPAV?$basic_ostream@DV?$char_traits@D@_STL@@@2@PAV32@@Z ; _STL::basic_ios<char,_STL::char_traits<char> >::tie
; Function compile flags: /Ogsy
; File c:\stlport-4.6.1\stlport\stl\_ios.h
;	COMDAT ?tie@?$basic_ios@DV?$char_traits@D@_STL@@@_STL@@QAEPAV?$basic_ostream@DV?$char_traits@D@_STL@@@2@PAV32@@Z
_TEXT	SEGMENT
___new_tied_ostream$ = 8				; size = 4
?tie@?$basic_ios@DV?$char_traits@D@_STL@@@_STL@@QAEPAV?$basic_ostream@DV?$char_traits@D@_STL@@@2@PAV32@@Z PROC NEAR ; _STL::basic_ios<char,_STL::char_traits<char> >::tie, COMDAT
; _this$ = ecx

; 66   :     basic_ostream<char_type, traits_type>* __tmp = _M_tied_ostream;
; 67   :     _M_tied_ostream = __new_tied_ostream;

  00000	8b 54 24 04	 mov	 edx, DWORD PTR ___new_tied_ostream$[esp-4]
  00004	8b 41 5c	 mov	 eax, DWORD PTR [ecx+92]
  00007	89 51 5c	 mov	 DWORD PTR [ecx+92], edx

; 68   :     return __tmp;
; 69   :   }

  0000a	c2 04 00	 ret	 4
?tie@?$basic_ios@DV?$char_traits@D@_STL@@@_STL@@QAEPAV?$basic_ostream@DV?$char_traits@D@_STL@@@2@PAV32@@Z ENDP ; _STL::basic_ios<char,_STL::char_traits<char> >::tie
_TEXT	ENDS
PUBLIC	?fill@?$basic_ios@DV?$char_traits@D@_STL@@@_STL@@QAEDD@Z ; _STL::basic_ios<char,_STL::char_traits<char> >::fill
; Function compile flags: /Ogsy
;	COMDAT ?fill@?$basic_ios@DV?$char_traits@D@_STL@@@_STL@@QAEDD@Z
_TEXT	SEGMENT
___fill$ = 8						; size = 1
?fill@?$basic_ios@DV?$char_traits@D@_STL@@@_STL@@QAEDD@Z PROC NEAR ; _STL::basic_ios<char,_STL::char_traits<char> >::fill, COMDAT
; _this$ = ecx

; 82   :     char_type __tmp(_M_fill);
; 83   :     _M_fill = __fill;

  00000	8a 54 24 04	 mov	 dl, BYTE PTR ___fill$[esp-4]
  00004	8a 41 54	 mov	 al, BYTE PTR [ecx+84]
  00007	88 51 54	 mov	 BYTE PTR [ecx+84], dl

; 84   :     return __tmp;
; 85   :   }

  0000a	c2 04 00	 ret	 4
?fill@?$basic_ios@DV?$char_traits@D@_STL@@@_STL@@QAEDD@Z ENDP ; _STL::basic_ios<char,_STL::char_traits<char> >::fill
_TEXT	ENDS
PUBLIC	??Bsentry@?$basic_ostream@DV?$char_traits@D@_STL@@@_STL@@QBE_NXZ ; _STL::basic_ostream<char,_STL::char_traits<char> >::sentry::operator bool
; Function compile flags: /Ogsy
; File c:\stlport-4.6.1\stlport\stl\_ostream.h
;	COMDAT ??Bsentry@?$basic_ostream@DV?$char_traits@D@_STL@@@_STL@@QBE_NXZ
_TEXT	SEGMENT
??Bsentry@?$basic_ostream@DV?$char_traits@D@_STL@@@_STL@@QBE_NXZ PROC NEAR ; _STL::basic_ostream<char,_STL::char_traits<char> >::sentry::operator bool, COMDAT
; _this$ = ecx

; 176  :       operator bool() const { return _M_ok; }

  00000	8a 41 04	 mov	 al, BYTE PTR [ecx+4]
  00003	c3		 ret	 0
??Bsentry@?$basic_ostream@DV?$char_traits@D@_STL@@@_STL@@QBE_NXZ ENDP ; _STL::basic_ostream<char,_STL::char_traits<char> >::sentry::operator bool
_TEXT	ENDS
PUBLIC	??1sentry@?$basic_istream@DV?$char_traits@D@_STL@@@_STL@@QAE@XZ ; _STL::basic_istream<char,_STL::char_traits<char> >::sentry::~sentry
; Function compile flags: /Ogsy
; File c:\stlport-4.6.1\stlport\stl\_istream.h
;	COMDAT ??1sentry@?$basic_istream@DV?$char_traits@D@_STL@@@_STL@@QAE@XZ
_TEXT	SEGMENT
??1sentry@?$basic_istream@DV?$char_traits@D@_STL@@@_STL@@QAE@XZ PROC NEAR ; _STL::basic_istream<char,_STL::char_traits<char> >::sentry::~sentry, COMDAT
; _this$ = ecx

; 231  :     ~sentry() {}

  00000	c3		 ret	 0
??1sentry@?$basic_istream@DV?$char_traits@D@_STL@@@_STL@@QAE@XZ ENDP ; _STL::basic_istream<char,_STL::char_traits<char> >::sentry::~sentry
_TEXT	ENDS
PUBLIC	??Bsentry@?$basic_istream@DV?$char_traits@D@_STL@@@_STL@@QBE_NXZ ; _STL::basic_istream<char,_STL::char_traits<char> >::sentry::operator bool
; Function compile flags: /Ogsy
;	COMDAT ??Bsentry@?$basic_istream@DV?$char_traits@D@_STL@@@_STL@@QBE_NXZ
_TEXT	SEGMENT
??Bsentry@?$basic_istream@DV?$char_traits@D@_STL@@@_STL@@QBE_NXZ PROC NEAR ; _STL::basic_istream<char,_STL::char_traits<char> >::sentry::operator bool, COMDAT
; _this$ = ecx

; 233  :     operator bool() const { return _M_ok; }

  00000	8a 01		 mov	 al, BYTE PTR [ecx]
  00002	c3		 ret	 0
??Bsentry@?$basic_istream@DV?$char_traits@D@_STL@@@_STL@@QBE_NXZ ENDP ; _STL::basic_istream<char,_STL::char_traits<char> >::sentry::operator bool
_TEXT	ENDS
PUBLIC	??0?$_Constant_unary_fun@_NH@_STL@@QAE@AB_N@Z	; _STL::_Constant_unary_fun<bool,int>::_Constant_unary_fun<bool,int>
; Function compile flags: /Ogsy
; File c:\stlport-4.6.1\stlport\stl\_function_base.h
;	COMDAT ??0?$_Constant_unary_fun@_NH@_STL@@QAE@AB_N@Z
_TEXT	SEGMENT
___v$ = 8						; size = 4
??0?$_Constant_unary_fun@_NH@_STL@@QAE@AB_N@Z PROC NEAR	; _STL::_Constant_unary_fun<bool,int>::_Constant_unary_fun<bool,int>, COMDAT
; _this$ = ecx

; 199  :   _Constant_unary_fun(const result_type& __v) : _M_val(__v) {}

  00000	8b c1		 mov	 eax, ecx
  00002	8b 4c 24 04	 mov	 ecx, DWORD PTR ___v$[esp-4]
  00006	8a 09		 mov	 cl, BYTE PTR [ecx]
  00008	88 08		 mov	 BYTE PTR [eax], cl
  0000a	c2 04 00	 ret	 4
??0?$_Constant_unary_fun@_NH@_STL@@QAE@AB_N@Z ENDP	; _STL::_Constant_unary_fun<bool,int>::_Constant_unary_fun<bool,int>
_TEXT	ENDS
PUBLIC	?unshift@?$codecvt@DDH@_STL@@QBE?AW4result@codecvt_base@2@AAHPAD1AAPAD@Z ; _STL::codecvt<char,char,int>::unshift
; Function compile flags: /Ogsy
; File c:\stlport-4.6.1\stlport\stl\_codecvt.h
;	COMDAT ?unshift@?$codecvt@DDH@_STL@@QBE?AW4result@codecvt_base@2@AAHPAD1AAPAD@Z
_TEXT	SEGMENT
___state$ = 8						; size = 4
___to$ = 12						; size = 4
___to_limit$ = 16					; size = 4
___to_next$ = 20					; size = 4
?unshift@?$codecvt@DDH@_STL@@QBE?AW4result@codecvt_base@2@AAHPAD1AAPAD@Z PROC NEAR ; _STL::codecvt<char,char,int>::unshift, COMDAT
; _this$ = ecx

; 76   :     { return do_unshift(__state, __to, __to_limit, __to_next); }

  00000	8b 01		 mov	 eax, DWORD PTR [ecx]
  00002	ff 60 0c	 jmp	 DWORD PTR [eax+12]
?unshift@?$codecvt@DDH@_STL@@QBE?AW4result@codecvt_base@2@AAHPAD1AAPAD@Z ENDP ; _STL::codecvt<char,char,int>::unshift
_TEXT	ENDS
PUBLIC	?encoding@?$codecvt@DDH@_STL@@QBEHXZ		; _STL::codecvt<char,char,int>::encoding
; Function compile flags: /Ogsy
;	COMDAT ?encoding@?$codecvt@DDH@_STL@@QBEHXZ
_TEXT	SEGMENT
?encoding@?$codecvt@DDH@_STL@@QBEHXZ PROC NEAR		; _STL::codecvt<char,char,int>::encoding, COMDAT
; _this$ = ecx

; 90   :   int encoding() const _STLP_NOTHROW { return do_encoding(); }

  00000	8b 01		 mov	 eax, DWORD PTR [ecx]
  00002	ff 60 10	 jmp	 DWORD PTR [eax+16]
?encoding@?$codecvt@DDH@_STL@@QBEHXZ ENDP		; _STL::codecvt<char,char,int>::encoding
_TEXT	ENDS
PUBLIC	?always_noconv@?$codecvt@DDH@_STL@@QBE_NXZ	; _STL::codecvt<char,char,int>::always_noconv
; Function compile flags: /Ogsy
;	COMDAT ?always_noconv@?$codecvt@DDH@_STL@@QBE_NXZ
_TEXT	SEGMENT
?always_noconv@?$codecvt@DDH@_STL@@QBE_NXZ PROC NEAR	; _STL::codecvt<char,char,int>::always_noconv, COMDAT
; _this$ = ecx

; 92   :   bool always_noconv() const _STLP_NOTHROW { return do_always_noconv(); }

  00000	8b 01		 mov	 eax, DWORD PTR [ecx]
  00002	ff 60 14	 jmp	 DWORD PTR [eax+20]
?always_noconv@?$codecvt@DDH@_STL@@QBE_NXZ ENDP		; _STL::codecvt<char,char,int>::always_noconv
_TEXT	ENDS
PUBLIC	?max_length@?$codecvt@DDH@_STL@@QBEHXZ		; _STL::codecvt<char,char,int>::max_length
; Function compile flags: /Ogsy
;	COMDAT ?max_length@?$codecvt@DDH@_STL@@QBEHXZ
_TEXT	SEGMENT
?max_length@?$codecvt@DDH@_STL@@QBEHXZ PROC NEAR	; _STL::codecvt<char,char,int>::max_length, COMDAT
; _this$ = ecx

; 99   :   int max_length() const _STLP_NOTHROW { return do_max_length(); }

  00000	8b 01		 mov	 eax, DWORD PTR [ecx]
  00002	ff 60 1c	 jmp	 DWORD PTR [eax+28]
?max_length@?$codecvt@DDH@_STL@@QBEHXZ ENDP		; _STL::codecvt<char,char,int>::max_length
_TEXT	ENDS
PUBLIC	?widen@?$basic_ios@DV?$char_traits@D@_STL@@@_STL@@QBEDD@Z ; _STL::basic_ios<char,_STL::char_traits<char> >::widen
; Function compile flags: /Ogsy
; File c:\stlport-4.6.1\stlport\stl\_ios.h
;	COMDAT ?widen@?$basic_ios@DV?$char_traits@D@_STL@@@_STL@@QBEDD@Z
_TEXT	SEGMENT
___c$ = 8						; size = 1
?widen@?$basic_ios@DV?$char_traits@D@_STL@@@_STL@@QBEDD@Z PROC NEAR ; _STL::basic_ios<char,_STL::char_traits<char> >::widen, COMDAT
; _this$ = ecx

; 143  :   return ((const ctype<_CharT>*)this->_M_ctype_facet())->widen(__c); }

  00000	8b 49 40	 mov	 ecx, DWORD PTR [ecx+64]
  00003	8b 01		 mov	 eax, DWORD PTR [ecx]
  00005	ff 60 18	 jmp	 DWORD PTR [eax+24]
?widen@?$basic_ios@DV?$char_traits@D@_STL@@@_STL@@QBEDD@Z ENDP ; _STL::basic_ios<char,_STL::char_traits<char> >::widen
_TEXT	ENDS
PUBLIC	?_M_handle_exception@?$basic_ios@DV?$char_traits@D@_STL@@@_STL@@QAEXH@Z ; _STL::basic_ios<char,_STL::char_traits<char> >::_M_handle_exception
EXTRN	__CxxThrowException@8:NEAR
; Function compile flags: /Ogsy
; File c:\stlport-4.6.1\stlport\stl\_ios.c
;	COMDAT ?_M_handle_exception@?$basic_ios@DV?$char_traits@D@_STL@@@_STL@@QAEXH@Z
_TEXT	SEGMENT
___flag$ = 8						; size = 4
?_M_handle_exception@?$basic_ios@DV?$char_traits@D@_STL@@@_STL@@QAEXH@Z PROC NEAR ; _STL::basic_ios<char,_STL::char_traits<char> >::_M_handle_exception, COMDAT
; _this$ = ecx

; 118  :   this->_M_setstate_nothrow(__flag);

  00000	8b 44 24 04	 mov	 eax, DWORD PTR ___flag$[esp-4]
  00004	09 41 08	 or	 DWORD PTR [ecx+8], eax

; 119  :   if (this->_M_get_exception_mask() & __flag)

  00007	85 41 14	 test	 DWORD PTR [ecx+20], eax
  0000a	74 09		 je	 SHORT $L102116

; 120  :     _STLP_RETHROW;

  0000c	6a 00		 push	 0
  0000e	6a 00		 push	 0
  00010	e8 00 00 00 00	 call	 __CxxThrowException@8
$L103468:
$L102116:

; 121  : }

  00015	c2 04 00	 ret	 4
$L103467:
?_M_handle_exception@?$basic_ios@DV?$char_traits@D@_STL@@@_STL@@QAEXH@Z ENDP ; _STL::basic_ios<char,_STL::char_traits<char> >::_M_handle_exception
_TEXT	ENDS
PUBLIC	??$max@H@_STL@@YAABHABH0@Z			; _STL::max<int>
; Function compile flags: /Ogsy
; File c:\stlport-4.6.1\stlport\stl\_algobase.h
;	COMDAT ??$max@H@_STL@@YAABHABH0@Z
_TEXT	SEGMENT
___a$ = 8						; size = 4
___b$ = 12						; size = 4
??$max@H@_STL@@YAABHABH0@Z PROC NEAR			; _STL::max<int>, COMDAT

; 79   : inline const _Tp& (max)(const _Tp& __a, const _Tp& __b) {  return  __a < __b ? __b : __a; }

  00000	8b 44 24 04	 mov	 eax, DWORD PTR ___a$[esp-4]
  00004	8b 10		 mov	 edx, DWORD PTR [eax]
  00006	8b 4c 24 08	 mov	 ecx, DWORD PTR ___b$[esp-4]
  0000a	3b 11		 cmp	 edx, DWORD PTR [ecx]
  0000c	7d 02		 jge	 SHORT $L103474
  0000e	8b c1		 mov	 eax, ecx
$L103474:
  00010	c3		 ret	 0
??$max@H@_STL@@YAABHABH0@Z ENDP				; _STL::max<int>
_TEXT	ENDS
PUBLIC	??$use_facet@V?$codecvt@DDH@_STL@@@_STL@@YAABV?$codecvt@DDH@0@ABVlocale@0@@Z ; _STL::use_facet<_STL::codecvt<char,char,int> >
EXTRN	?_M_use_facet@locale@_STL@@QBEPAVfacet@12@ABVid@12@@Z:NEAR ; _STL::locale::_M_use_facet
EXTRN	?id@?$codecvt@DDH@_STL@@2V0locale@2@A:DWORD	; _STL::codecvt<char,char,int>::id
; Function compile flags: /Ogsy
; File c:\stlport-4.6.1\stlport\stl\_locale.h
;	COMDAT ??$use_facet@V?$codecvt@DDH@_STL@@@_STL@@YAABV?$codecvt@DDH@0@ABVlocale@0@@Z
_TEXT	SEGMENT
___loc$ = 8						; size = 4
??$use_facet@V?$codecvt@DDH@_STL@@@_STL@@YAABV?$codecvt@DDH@0@ABVlocale@0@@Z PROC NEAR ; _STL::use_facet<_STL::codecvt<char,char,int> >, COMDAT

; 204  :   return *__STATIC_CAST(const _Facet*,__loc._M_use_facet(_Facet::id));

  00000	8b 4c 24 04	 mov	 ecx, DWORD PTR ___loc$[esp-4]
  00004	68 00 00 00 00	 push	 OFFSET FLAT:?id@?$codecvt@DDH@_STL@@2V0locale@2@A ; _STL::codecvt<char,char,int>::id
  00009	e8 00 00 00 00	 call	 ?_M_use_facet@locale@_STL@@QBEPAVfacet@12@ABVid@12@@Z ; _STL::locale::_M_use_facet

; 205  : }

  0000e	c3		 ret	 0
??$use_facet@V?$codecvt@DDH@_STL@@@_STL@@YAABV?$codecvt@DDH@0@ABVlocale@0@@Z ENDP ; _STL::use_facet<_STL::codecvt<char,char,int> >
_TEXT	ENDS
PUBLIC	?__is_open@_Filebuf_base@_STL@@QBE_NXZ		; _STL::_Filebuf_base::__is_open
; Function compile flags: /Ogsy
; File c:\stlport-4.6.1\stlport\stl\_fstream.h
;	COMDAT ?__is_open@_Filebuf_base@_STL@@QBE_NXZ
_TEXT	SEGMENT
?__is_open@_Filebuf_base@_STL@@QBE_NXZ PROC NEAR	; _STL::_Filebuf_base::__is_open, COMDAT
; _this$ = ecx

; 150  :   bool __is_open()      const { return (_M_is_open !=0 ); } 

  00000	33 c0		 xor	 eax, eax
  00002	38 41 0c	 cmp	 BYTE PTR [ecx+12], al
  00005	0f 95 c0	 setne	 al
  00008	c3		 ret	 0
?__is_open@_Filebuf_base@_STL@@QBE_NXZ ENDP		; _STL::_Filebuf_base::__is_open
_TEXT	ENDS
PUBLIC	?tie@?$basic_ios@DV?$char_traits@D@_STL@@@_STL@@QBEPAV?$basic_ostream@DV?$char_traits@D@_STL@@@2@XZ ; _STL::basic_ios<char,_STL::char_traits<char> >::tie
; Function compile flags: /Ogsy
; File c:\stlport-4.6.1\stlport\stl\_ios.h
;	COMDAT ?tie@?$basic_ios@DV?$char_traits@D@_STL@@@_STL@@QBEPAV?$basic_ostream@DV?$char_traits@D@_STL@@@2@XZ
_TEXT	SEGMENT
?tie@?$basic_ios@DV?$char_traits@D@_STL@@@_STL@@QBEPAV?$basic_ostream@DV?$char_traits@D@_STL@@@2@XZ PROC NEAR ; _STL::basic_ios<char,_STL::char_traits<char> >::tie, COMDAT
; _this$ = ecx

; 62   :     return _M_tied_ostream;

  00000	8b 41 5c	 mov	 eax, DWORD PTR [ecx+92]

; 63   :   }

  00003	c3		 ret	 0
?tie@?$basic_ios@DV?$char_traits@D@_STL@@@_STL@@QBEPAV?$basic_ostream@DV?$char_traits@D@_STL@@@2@XZ ENDP ; _STL::basic_ios<char,_STL::char_traits<char> >::tie
_TEXT	ENDS
PUBLIC	??R?$_Constant_unary_fun@_NH@_STL@@QBEAB_NABH@Z	; _STL::_Constant_unary_fun<bool,int>::operator()
; Function compile flags: /Ogsy
; File c:\stlport-4.6.1\stlport\stl\_function_base.h
;	COMDAT ??R?$_Constant_unary_fun@_NH@_STL@@QBEAB_NABH@Z
_TEXT	SEGMENT
___formal$ = 8						; size = 4
??R?$_Constant_unary_fun@_NH@_STL@@QBEAB_NABH@Z PROC NEAR ; _STL::_Constant_unary_fun<bool,int>::operator(), COMDAT
; _this$ = ecx

; 200  :   const result_type& operator()(const _Argument&) const { return _M_val; }

  00000	8b c1		 mov	 eax, ecx
  00002	c2 04 00	 ret	 4
??R?$_Constant_unary_fun@_NH@_STL@@QBEAB_NABH@Z ENDP	; _STL::_Constant_unary_fun<bool,int>::operator()
_TEXT	ENDS
PUBLIC	??R?$_Project2nd@PBDPBD@_STL@@QBEPBDABQBD0@Z	; _STL::_Project2nd<char const *,char const *>::operator()
; Function compile flags: /Ogsy
;	COMDAT ??R?$_Project2nd@PBDPBD@_STL@@QBEPBDABQBD0@Z
_TEXT	SEGMENT
___formal$ = 8						; size = 4
___y$ = 12						; size = 4
??R?$_Project2nd@PBDPBD@_STL@@QBEPBDABQBD0@Z PROC NEAR	; _STL::_Project2nd<char const *,char const *>::operator(), COMDAT
; _this$ = ecx

; 173  :   _Arg2 operator()(const _Arg1&, const _Arg2& __y) const { return __y; }

  00000	8b 44 24 08	 mov	 eax, DWORD PTR ___y$[esp-4]
  00004	8b 00		 mov	 eax, DWORD PTR [eax]
  00006	c2 08 00	 ret	 8
??R?$_Project2nd@PBDPBD@_STL@@QBEPBDABQBD0@Z ENDP	; _STL::_Project2nd<char const *,char const *>::operator()
_TEXT	ENDS
PUBLIC	??$__destroy_aux@PAPAVAPPEND_PATCH_NODE@@@_STL@@YAXPAPAVAPPEND_PATCH_NODE@@0ABU__true_type@0@@Z ; _STL::__destroy_aux<APPEND_PATCH_NODE * *>
; Function compile flags: /Ogsy
; File c:\stlport-4.6.1\stlport\stl\_construct.h
;	COMDAT ??$__destroy_aux@PAPAVAPPEND_PATCH_NODE@@@_STL@@YAXPAPAVAPPEND_PATCH_NODE@@0ABU__true_type@0@@Z
_TEXT	SEGMENT
___formal$ = 8						; size = 4
___formal$ = 12						; size = 4
___formal$ = 16						; size = 4
??$__destroy_aux@PAPAVAPPEND_PATCH_NODE@@@_STL@@YAXPAPAVAPPEND_PATCH_NODE@@0ABU__true_type@0@@Z PROC NEAR ; _STL::__destroy_aux<APPEND_PATCH_NODE * *>, COMDAT

; 128  : inline void __destroy_aux(_ForwardIterator, _ForwardIterator, const __true_type&) {}

  00000	c3		 ret	 0
??$__destroy_aux@PAPAVAPPEND_PATCH_NODE@@@_STL@@YAXPAPAVAPPEND_PATCH_NODE@@0ABU__true_type@0@@Z ENDP ; _STL::__destroy_aux<APPEND_PATCH_NODE * *>
_TEXT	ENDS
PUBLIC	?capacity@?$basic_string@DV?$char_traits@D@_STL@@V?$allocator@D@2@@_STL@@QBEIXZ ; _STL::basic_string<char,_STL::char_traits<char>,_STL::allocator<char> >::capacity
; Function compile flags: /Ogsy
; File c:\stlport-4.6.1\stlport\stl\_string.h
;	COMDAT ?capacity@?$basic_string@DV?$char_traits@D@_STL@@V?$allocator@D@2@@_STL@@QBEIXZ
_TEXT	SEGMENT
?capacity@?$basic_string@DV?$char_traits@D@_STL@@V?$allocator@D@2@@_STL@@QBEIXZ PROC NEAR ; _STL::basic_string<char,_STL::char_traits<char>,_STL::allocator<char> >::capacity, COMDAT
; _this$ = ecx

; 447  :   size_type capacity() const { return (this->_M_end_of_storage._M_data - this->_M_start) - 1; }

  00000	8b 41 08	 mov	 eax, DWORD PTR [ecx+8]
  00003	2b 01		 sub	 eax, DWORD PTR [ecx]
  00005	48		 dec	 eax
  00006	c3		 ret	 0
?capacity@?$basic_string@DV?$char_traits@D@_STL@@V?$allocator@D@2@@_STL@@QBEIXZ ENDP ; _STL::basic_string<char,_STL::char_traits<char>,_STL::allocator<char> >::capacity
_TEXT	ENDS
PUBLIC	?max_size@?$_String_base@DV?$allocator@D@_STL@@@_STL@@QBEIXZ ; _STL::_String_base<char,_STL::allocator<char> >::max_size
; Function compile flags: /Ogsy
;	COMDAT ?max_size@?$_String_base@DV?$allocator@D@_STL@@@_STL@@QBEIXZ
_TEXT	SEGMENT
?max_size@?$_String_base@DV?$allocator@D@_STL@@@_STL@@QBEIXZ PROC NEAR ; _STL::_String_base<char,_STL::allocator<char> >::max_size, COMDAT
; _this$ = ecx

; 126  :   size_t max_size() const { return (size_t(-1) / sizeof(_Tp)) - 1; }

  00000	6a fe		 push	 -2			; fffffffeH
  00002	58		 pop	 eax
  00003	c3		 ret	 0
?max_size@?$_String_base@DV?$allocator@D@_STL@@@_STL@@QBEIXZ ENDP ; _STL::_String_base<char,_STL::allocator<char> >::max_size
_TEXT	ENDS
PUBLIC	?_M_construct_null_aux@?$basic_string@DV?$char_traits@D@_STL@@V?$allocator@D@2@@_STL@@AAEXPADABU__true_type@2@@Z ; _STL::basic_string<char,_STL::char_traits<char>,_STL::allocator<char> >::_M_construct_null_aux
; Function compile flags: /Ogsy
;	COMDAT ?_M_construct_null_aux@?$basic_string@DV?$char_traits@D@_STL@@V?$allocator@D@2@@_STL@@AAEXPADABU__true_type@2@@Z
_TEXT	SEGMENT
___p$ = 8						; size = 4
___formal$ = 12						; size = 4
?_M_construct_null_aux@?$basic_string@DV?$char_traits@D@_STL@@V?$allocator@D@2@@_STL@@AAEXPADABU__true_type@2@@Z PROC NEAR ; _STL::basic_string<char,_STL::char_traits<char>,_STL::allocator<char> >::_M_construct_null_aux, COMDAT
; _this$ = ecx

; 332  :     *__p = 0;

  00000	8b 44 24 04	 mov	 eax, DWORD PTR ___p$[esp-4]
  00004	c6 00 00	 mov	 BYTE PTR [eax], 0

; 333  :   }

  00007	c2 08 00	 ret	 8
?_M_construct_null_aux@?$basic_string@DV?$char_traits@D@_STL@@V?$allocator@D@2@@_STL@@AAEXPADABU__true_type@2@@Z ENDP ; _STL::basic_string<char,_STL::char_traits<char>,_STL::allocator<char> >::_M_construct_null_aux
_TEXT	ENDS
PUBLIC	??_C@_0N@GOPDCEEB@basic_string?$AA@		; `string'
PUBLIC	?_M_throw_length_error@?$_String_base@DV?$allocator@D@_STL@@@_STL@@QBEXXZ ; _STL::_String_base<char,_STL::allocator<char> >::_M_throw_length_error
EXTRN	?__stl_throw_length_error@_STL@@YAXPBD@Z:NEAR	; _STL::__stl_throw_length_error
;	COMDAT ??_C@_0N@GOPDCEEB@basic_string?$AA@
; File c:\stlport-4.6.1\stlport\stl\_string.c
CONST	SEGMENT
??_C@_0N@GOPDCEEB@basic_string?$AA@ DB 'basic_string', 00H ; `string'
; Function compile flags: /Ogsy
CONST	ENDS
;	COMDAT ?_M_throw_length_error@?$_String_base@DV?$allocator@D@_STL@@@_STL@@QBEXXZ
_TEXT	SEGMENT
?_M_throw_length_error@?$_String_base@DV?$allocator@D@_STL@@@_STL@@QBEXXZ PROC NEAR ; _STL::_String_base<char,_STL::allocator<char> >::_M_throw_length_error, COMDAT
; _this$ = ecx

; 523  :     __stl_throw_length_error("basic_string");

  00000	68 00 00 00 00	 push	 OFFSET FLAT:??_C@_0N@GOPDCEEB@basic_string?$AA@
  00005	e8 00 00 00 00	 call	 ?__stl_throw_length_error@_STL@@YAXPBD@Z ; _STL::__stl_throw_length_error
  0000a	59		 pop	 ecx

; 524  : }

  0000b	c3		 ret	 0
?_M_throw_length_error@?$_String_base@DV?$allocator@D@_STL@@@_STL@@QBEXXZ ENDP ; _STL::_String_base<char,_STL::allocator<char> >::_M_throw_length_error
_TEXT	ENDS
PUBLIC	??$__distance@PAD@_STL@@YAHABQAD0ABUrandom_access_iterator_tag@0@@Z ; _STL::__distance<char *>
; Function compile flags: /Ogsy
; File c:\stlport-4.6.1\stlport\stl\_iterator_base.h
;	COMDAT ??$__distance@PAD@_STL@@YAHABQAD0ABUrandom_access_iterator_tag@0@@Z
_TEXT	SEGMENT
___first$ = 8						; size = 4
___last$ = 12						; size = 4
___formal$ = 16						; size = 4
??$__distance@PAD@_STL@@YAHABQAD0ABUrandom_access_iterator_tag@0@@Z PROC NEAR ; _STL::__distance<char *>, COMDAT

; 363  :   return __last - __first;

  00000	8b 44 24 08	 mov	 eax, DWORD PTR ___last$[esp-4]
  00004	8b 00		 mov	 eax, DWORD PTR [eax]
  00006	8b 4c 24 04	 mov	 ecx, DWORD PTR ___first$[esp-4]
  0000a	2b 01		 sub	 eax, DWORD PTR [ecx]

; 364  : }

  0000c	c3		 ret	 0
??$__distance@PAD@_STL@@YAHABQAD0ABUrandom_access_iterator_tag@0@@Z ENDP ; _STL::__distance<char *>
_TEXT	ENDS
PUBLIC	?_Ret@?$_BothPtrType@PADPAD@_STL@@SA?AU__true_type@2@XZ ; _STL::_BothPtrType<char *,char *>::_Ret
; Function compile flags: /Ogsy
; File c:\stlport-4.6.1\stlport\stl\type_traits.h
;	COMDAT ?_Ret@?$_BothPtrType@PADPAD@_STL@@SA?AU__true_type@2@XZ
_TEXT	SEGMENT
$T103511 = -1						; size = 1
?_Ret@?$_BothPtrType@PADPAD@_STL@@SA?AU__true_type@2@XZ PROC NEAR ; _STL::_BothPtrType<char *,char *>::_Ret, COMDAT

; 234  :   static __true_type _Ret() { return __true_type();} 

  00000	55		 push	 ebp
  00001	8b ec		 mov	 ebp, esp
  00003	51		 push	 ecx
  00004	57		 push	 edi
  00005	33 c0		 xor	 eax, eax
  00007	8d 7d ff	 lea	 edi, DWORD PTR $T103511[ebp]
  0000a	aa		 stosb
  0000b	8a 45 ff	 mov	 al, BYTE PTR $T103511[ebp]
  0000e	5f		 pop	 edi
  0000f	c9		 leave
  00010	c3		 ret	 0
?_Ret@?$_BothPtrType@PADPAD@_STL@@SA?AU__true_type@2@XZ ENDP ; _STL::_BothPtrType<char *,char *>::_Ret
_TEXT	ENDS
PUBLIC	?_Ret@?$_OKToMemCpy@DD@_STL@@SA?AU__true_type@2@XZ ; _STL::_OKToMemCpy<char,char>::_Ret
; Function compile flags: /Ogsy
;	COMDAT ?_Ret@?$_OKToMemCpy@DD@_STL@@SA?AU__true_type@2@XZ
_TEXT	SEGMENT
$T103514 = -1						; size = 1
?_Ret@?$_OKToMemCpy@DD@_STL@@SA?AU__true_type@2@XZ PROC NEAR ; _STL::_OKToMemCpy<char,char>::_Ret, COMDAT

; 361  :   static _Type _Ret() { return _Type(); }

  00000	55		 push	 ebp
  00001	8b ec		 mov	 ebp, esp
  00003	51		 push	 ecx
  00004	57		 push	 edi
  00005	33 c0		 xor	 eax, eax
  00007	8d 7d ff	 lea	 edi, DWORD PTR $T103514[ebp]
  0000a	aa		 stosb
  0000b	8a 45 ff	 mov	 al, BYTE PTR $T103514[ebp]
  0000e	5f		 pop	 edi
  0000f	c9		 leave
  00010	c3		 ret	 0
?_Ret@?$_OKToMemCpy@DD@_STL@@SA?AU__true_type@2@XZ ENDP	; _STL::_OKToMemCpy<char,char>::_Ret
_TEXT	ENDS
PUBLIC	??$_IsOKToMemCpy@DD@_STL@@YA?AU?$_OKToMemCpy@DD@0@PAD0@Z ; _STL::_IsOKToMemCpy<char,char>
; Function compile flags: /Ogsy
;	COMDAT ??$_IsOKToMemCpy@DD@_STL@@YA?AU?$_OKToMemCpy@DD@0@PAD0@Z
_TEXT	SEGMENT
$T103517 = -1						; size = 1
___formal$ = 8						; size = 4
___formal$ = 12						; size = 4
??$_IsOKToMemCpy@DD@_STL@@YA?AU?$_OKToMemCpy@DD@0@PAD0@Z PROC NEAR ; _STL::_IsOKToMemCpy<char,char>, COMDAT

; 365  : inline _OKToMemCpy<_Tp1, _Tp2> _IsOKToMemCpy(_Tp1*, _Tp2*)  {

  00000	55		 push	 ebp
  00001	8b ec		 mov	 ebp, esp
  00003	51		 push	 ecx
  00004	57		 push	 edi

; 366  :   return _OKToMemCpy<_Tp1, _Tp2>();

  00005	33 c0		 xor	 eax, eax
  00007	8d 7d ff	 lea	 edi, DWORD PTR $T103517[ebp]
  0000a	aa		 stosb
  0000b	8a 45 ff	 mov	 al, BYTE PTR $T103517[ebp]
  0000e	5f		 pop	 edi

; 367  : }

  0000f	c9		 leave
  00010	c3		 ret	 0
??$_IsOKToMemCpy@DD@_STL@@YA?AU?$_OKToMemCpy@DD@0@PAD0@Z ENDP ; _STL::_IsOKToMemCpy<char,char>
_TEXT	ENDS
PUBLIC	??$__copy_ptrs@PADPAD@_STL@@YAPADPAD00ABU__true_type@0@@Z ; _STL::__copy_ptrs<char *,char *>
; Function compile flags: /Ogsy
; File c:\stlport-4.6.1\stlport\stl\_algobase.h
;	COMDAT ??$__copy_ptrs@PADPAD@_STL@@YAPADPAD00ABU__true_type@0@@Z
_TEXT	SEGMENT
___first$ = 8						; size = 4
___last$ = 12						; size = 4
___result$ = 16						; size = 4
___formal$ = 20						; size = 4
??$__copy_ptrs@PADPAD@_STL@@YAPADPAD00ABU__true_type@0@@Z PROC NEAR ; _STL::__copy_ptrs<char *,char *>, COMDAT

; 195  : // we know they all pointers, so this cast is OK 
; 196  :   //  return (_OutputIter)__copy_trivial(&(*__first), &(*__last), &(*__result));
; 197  :   return (_OutputIter)__copy_trivial(__first, __last, __result);

  00000	ff 74 24 0c	 push	 DWORD PTR ___result$[esp-4]
  00004	ff 74 24 0c	 push	 DWORD PTR ___last$[esp]
  00008	ff 74 24 0c	 push	 DWORD PTR ___first$[esp+4]
  0000c	e8 00 00 00 00	 call	 ?__copy_trivial@_STL@@YAPAXPBX0PAX@Z ; _STL::__copy_trivial
  00011	83 c4 0c	 add	 esp, 12			; 0000000cH

; 198  : }

  00014	c3		 ret	 0
??$__copy_ptrs@PADPAD@_STL@@YAPADPAD00ABU__true_type@0@@Z ENDP ; _STL::__copy_ptrs<char *,char *>
_TEXT	ENDS
PUBLIC	?eof@?$__char_traits_base@DH@_STL@@SAHXZ	; _STL::__char_traits_base<char,int>::eof
; Function compile flags: /Ogsy
; File c:\stlport-4.6.1\stlport\stl\char_traits.h
;	COMDAT ?eof@?$__char_traits_base@DH@_STL@@SAHXZ
_TEXT	SEGMENT
?eof@?$__char_traits_base@DH@_STL@@SAHXZ PROC NEAR	; _STL::__char_traits_base<char,int>::eof, COMDAT

; 197  :     return (int_type)-1;

  00000	83 c8 ff	 or	 eax, -1

; 198  :     //    return __STATIC_CAST(int_type,-1);
; 199  :   }

  00003	c3		 ret	 0
?eof@?$__char_traits_base@DH@_STL@@SAHXZ ENDP		; _STL::__char_traits_base<char,int>::eof
_TEXT	ENDS
PUBLIC	??1?$allocator@D@_STL@@QAE@XZ			; _STL::allocator<char>::~allocator<char>
; Function compile flags: /Ogsy
; File c:\stlport-4.6.1\stlport\stl\_alloc.h
;	COMDAT ??1?$allocator@D@_STL@@QAE@XZ
_TEXT	SEGMENT
??1?$allocator@D@_STL@@QAE@XZ PROC NEAR			; _STL::allocator<char>::~allocator<char>, COMDAT
; _this$ = ecx

; 350  :   ~allocator() _STLP_NOTHROW {}

  00000	c3		 ret	 0
??1?$allocator@D@_STL@@QAE@XZ ENDP			; _STL::allocator<char>::~allocator<char>
_TEXT	ENDS
PUBLIC	??1?$basic_istream@DV?$char_traits@D@_STL@@@_STL@@UAE@XZ ; _STL::basic_istream<char,_STL::char_traits<char> >::~basic_istream<char,_STL::char_traits<char> >
PUBLIC	??_7?$basic_istream@DV?$char_traits@D@_STL@@@_STL@@6B@ ; _STL::basic_istream<char,_STL::char_traits<char> >::`vftable'
PUBLIC	??_G?$basic_istream@DV?$char_traits@D@_STL@@@_STL@@UAEPAXI@Z ; _STL::basic_istream<char,_STL::char_traits<char> >::`scalar deleting destructor'
PUBLIC	??_R4?$basic_istream@DV?$char_traits@D@_STL@@@_STL@@6B@ ; _STL::basic_istream<char,_STL::char_traits<char> >::`RTTI Complete Object Locator'
PUBLIC	??_R0?AV?$basic_istream@DV?$char_traits@D@_STL@@@_STL@@@8 ; _STL::basic_istream<char,_STL::char_traits<char> > `RTTI Type Descriptor'
PUBLIC	??_R3?$basic_istream@DV?$char_traits@D@_STL@@@_STL@@8 ; _STL::basic_istream<char,_STL::char_traits<char> >::`RTTI Class Hierarchy Descriptor'
PUBLIC	??_R2?$basic_istream@DV?$char_traits@D@_STL@@@_STL@@8 ; _STL::basic_istream<char,_STL::char_traits<char> >::`RTTI Base Class Array'
PUBLIC	??_R1A@?0A@A@?$basic_istream@DV?$char_traits@D@_STL@@@_STL@@8 ; _STL::basic_istream<char,_STL::char_traits<char> >::`RTTI Base Class Descriptor at (0,-1,0,0)'
PUBLIC	??_R1A@A@3BA@?$basic_ios@DV?$char_traits@D@_STL@@@_STL@@8 ; _STL::basic_ios<char,_STL::char_traits<char> >::`RTTI Base Class Descriptor at (0,0,4,16)'
PUBLIC	??_R1A@A@3A@ios_base@_STL@@8			; _STL::ios_base::`RTTI Base Class Descriptor at (0,0,4,0)'
EXTRN	??_E?$basic_istream@DV?$char_traits@D@_STL@@@_STL@@UAEPAXI@Z:NEAR ; _STL::basic_istream<char,_STL::char_traits<char> >::`vector deleting destructor'
;	COMDAT ??_7?$basic_istream@DV?$char_traits@D@_STL@@@_STL@@6B@
; File c:\stlport-4.6.1\stlport\stl\_istream.h
CONST	SEGMENT
??_7?$basic_istream@DV?$char_traits@D@_STL@@@_STL@@6B@ DD FLAT:??_R4?$basic_istream@DV?$char_traits@D@_STL@@@_STL@@6B@ ; _STL::basic_istream<char,_STL::char_traits<char> >::`vftable'
	DD	FLAT:??_E?$basic_istream@DV?$char_traits@D@_STL@@@_STL@@UAEPAXI@Z
CONST	ENDS
;	COMDAT ??_R4?$basic_istream@DV?$char_traits@D@_STL@@@_STL@@6B@
rdata$r	SEGMENT
??_R4?$basic_istream@DV?$char_traits@D@_STL@@@_STL@@6B@ DD 00H ; _STL::basic_istream<char,_STL::char_traits<char> >::`RTTI Complete Object Locator'
	DD	08H
	DD	00H
	DD	FLAT:??_R0?AV?$basic_istream@DV?$char_traits@D@_STL@@@_STL@@@8
	DD	FLAT:??_R3?$basic_istream@DV?$char_traits@D@_STL@@@_STL@@8
rdata$r	ENDS
;	COMDAT ??_R0?AV?$basic_istream@DV?$char_traits@D@_STL@@@_STL@@@8
_DATA	SEGMENT
??_R0?AV?$basic_istream@DV?$char_traits@D@_STL@@@_STL@@@8 DD FLAT:??_7type_info@@6B@ ; _STL::basic_istream<char,_STL::char_traits<char> > `RTTI Type Descriptor'
	DD	00H
	DB	'.?AV?$basic_istream@DV?$char_traits@D@_STL@@@_STL@@', 00H
_DATA	ENDS
;	COMDAT ??_R3?$basic_istream@DV?$char_traits@D@_STL@@@_STL@@8
rdata$r	SEGMENT
??_R3?$basic_istream@DV?$char_traits@D@_STL@@@_STL@@8 DD 00H ; _STL::basic_istream<char,_STL::char_traits<char> >::`RTTI Class Hierarchy Descriptor'
	DD	00H
	DD	03H
	DD	FLAT:??_R2?$basic_istream@DV?$char_traits@D@_STL@@@_STL@@8
rdata$r	ENDS
;	COMDAT ??_R2?$basic_istream@DV?$char_traits@D@_STL@@@_STL@@8
rdata$r	SEGMENT
??_R2?$basic_istream@DV?$char_traits@D@_STL@@@_STL@@8 DD FLAT:??_R1A@?0A@A@?$basic_istream@DV?$char_traits@D@_STL@@@_STL@@8 ; _STL::basic_istream<char,_STL::char_traits<char> >::`RTTI Base Class Array'
	DD	FLAT:??_R1A@A@3BA@?$basic_ios@DV?$char_traits@D@_STL@@@_STL@@8
	DD	FLAT:??_R1A@A@3A@ios_base@_STL@@8
rdata$r	ENDS
;	COMDAT ??_R1A@?0A@A@?$basic_istream@DV?$char_traits@D@_STL@@@_STL@@8
rdata$r	SEGMENT
??_R1A@?0A@A@?$basic_istream@DV?$char_traits@D@_STL@@@_STL@@8 DD FLAT:??_R0?AV?$basic_istream@DV?$char_traits@D@_STL@@@_STL@@@8 ; _STL::basic_istream<char,_STL::char_traits<char> >::`RTTI Base Class Descriptor at (0,-1,0,0)'
	DD	02H
	DD	00H
	DD	0ffffffffH
	DD	00H
	DD	00H
rdata$r	ENDS
;	COMDAT ??_R1A@A@3BA@?$basic_ios@DV?$char_traits@D@_STL@@@_STL@@8
rdata$r	SEGMENT
??_R1A@A@3BA@?$basic_ios@DV?$char_traits@D@_STL@@@_STL@@8 DD FLAT:??_R0?AV?$basic_ios@DV?$char_traits@D@_STL@@@_STL@@@8 ; _STL::basic_ios<char,_STL::char_traits<char> >::`RTTI Base Class Descriptor at (0,0,4,16)'
	DD	01H
	DD	00H
	DD	00H
	DD	04H
	DD	010H
rdata$r	ENDS
;	COMDAT ??_R1A@A@3A@ios_base@_STL@@8
rdata$r	SEGMENT
??_R1A@A@3A@ios_base@_STL@@8 DD FLAT:??_R0?AVios_base@_STL@@@8 ; _STL::ios_base::`RTTI Base Class Descriptor at (0,0,4,0)'
	DD	00H
	DD	00H
	DD	00H
	DD	04H
	DD	00H
; Function compile flags: /Ogsy
rdata$r	ENDS
;	COMDAT ??1?$basic_istream@DV?$char_traits@D@_STL@@@_STL@@UAE@XZ
_TEXT	SEGMENT
??1?$basic_istream@DV?$char_traits@D@_STL@@@_STL@@UAE@XZ PROC NEAR ; _STL::basic_istream<char,_STL::char_traits<char> >::~basic_istream<char,_STL::char_traits<char> >, COMDAT
; _this$ = ecx

; 87   :   ~basic_istream() {};

  00000	8b 41 f8	 mov	 eax, DWORD PTR [ecx-8]
  00003	8b 40 04	 mov	 eax, DWORD PTR [eax+4]
  00006	c7 44 08 f8 00
	00 00 00	 mov	 DWORD PTR [eax+ecx-8], OFFSET FLAT:??_7?$basic_istream@DV?$char_traits@D@_STL@@@_STL@@6B@
  0000e	c3		 ret	 0
??1?$basic_istream@DV?$char_traits@D@_STL@@@_STL@@UAE@XZ ENDP ; _STL::basic_istream<char,_STL::char_traits<char> >::~basic_istream<char,_STL::char_traits<char> >
_TEXT	ENDS
PUBLIC	??1?$basic_ios@DV?$char_traits@D@_STL@@@_STL@@UAE@XZ ; _STL::basic_ios<char,_STL::char_traits<char> >::~basic_ios<char,_STL::char_traits<char> >
EXTRN	??1ios_base@_STL@@UAE@XZ:NEAR			; _STL::ios_base::~ios_base
; Function compile flags: /Ogsy
; File c:\stlport-4.6.1\stlport\stl\_ios.h
;	COMDAT ??1?$basic_ios@DV?$char_traits@D@_STL@@@_STL@@UAE@XZ
_TEXT	SEGMENT
??1?$basic_ios@DV?$char_traits@D@_STL@@@_STL@@UAE@XZ PROC NEAR ; _STL::basic_ios<char,_STL::char_traits<char> >::~basic_ios<char,_STL::char_traits<char> >, COMDAT
; _this$ = ecx

; 58   :   virtual ~basic_ios() {}

  00000	c7 01 00 00 00
	00		 mov	 DWORD PTR [ecx], OFFSET FLAT:??_7?$basic_ios@DV?$char_traits@D@_STL@@@_STL@@6B@
  00006	e9 00 00 00 00	 jmp	 ??1ios_base@_STL@@UAE@XZ ; _STL::ios_base::~ios_base
??1?$basic_ios@DV?$char_traits@D@_STL@@@_STL@@UAE@XZ ENDP ; _STL::basic_ios<char,_STL::char_traits<char> >::~basic_ios<char,_STL::char_traits<char> >
_TEXT	ENDS
PUBLIC	?_M_write@?$basic_filebuf@DV?$char_traits@D@_STL@@@_STL@@QAE_NPADH@Z ; _STL::basic_filebuf<char,_STL::char_traits<char> >::_M_write
EXTRN	?_M_write@_Filebuf_base@_STL@@QAE_NPADH@Z:NEAR	; _STL::_Filebuf_base::_M_write
; Function compile flags: /Ogsy
; File c:\stlport-4.6.1\stlport\stl\_fstream.h
;	COMDAT ?_M_write@?$basic_filebuf@DV?$char_traits@D@_STL@@@_STL@@QAE_NPADH@Z
_TEXT	SEGMENT
___buf$ = 8						; size = 4
___n$ = 12						; size = 4
?_M_write@?$basic_filebuf@DV?$char_traits@D@_STL@@@_STL@@QAE_NPADH@Z PROC NEAR ; _STL::basic_filebuf<char,_STL::char_traits<char> >::_M_write, COMDAT
; _this$ = ecx

; 349  :   bool _M_write(char* __buf,  ptrdiff_t __n) {return _M_base._M_write(__buf, __n); }

  00000	83 c1 54	 add	 ecx, 84			; 00000054H
  00003	e9 00 00 00 00	 jmp	 ?_M_write@_Filebuf_base@_STL@@QAE_NPADH@Z ; _STL::_Filebuf_base::_M_write
?_M_write@?$basic_filebuf@DV?$char_traits@D@_STL@@@_STL@@QAE_NPADH@Z ENDP ; _STL::basic_filebuf<char,_STL::char_traits<char> >::_M_write
; Function compile flags: /Ogsy
_TEXT	ENDS
;	COMDAT ??_G?$basic_ios@DV?$char_traits@D@_STL@@@_STL@@UAEPAXI@Z
_TEXT	SEGMENT
___flags$ = 8						; size = 4
??_G?$basic_ios@DV?$char_traits@D@_STL@@@_STL@@UAEPAXI@Z PROC NEAR ; _STL::basic_ios<char,_STL::char_traits<char> >::`scalar deleting destructor', COMDAT
; _this$ = ecx
  00000	56		 push	 esi
  00001	8b f1		 mov	 esi, ecx
  00003	e8 00 00 00 00	 call	 ??1?$basic_ios@DV?$char_traits@D@_STL@@@_STL@@UAE@XZ ; _STL::basic_ios<char,_STL::char_traits<char> >::~basic_ios<char,_STL::char_traits<char> >
  00008	f6 44 24 08 01	 test	 BYTE PTR ___flags$[esp], 1
  0000d	74 07		 je	 SHORT $L98548
  0000f	56		 push	 esi
  00010	e8 00 00 00 00	 call	 ??3@YAXPAX@Z		; operator delete
  00015	59		 pop	 ecx
$L98548:
  00016	8b c6		 mov	 eax, esi
  00018	5e		 pop	 esi
  00019	c2 04 00	 ret	 4
??_G?$basic_ios@DV?$char_traits@D@_STL@@@_STL@@UAEPAXI@Z ENDP ; _STL::basic_ios<char,_STL::char_traits<char> >::`scalar deleting destructor'
_TEXT	ENDS
PUBLIC	??1?$_STLP_alloc_proxy@PADDV?$allocator@D@_STL@@@_STL@@QAE@XZ ; _STL::_STLP_alloc_proxy<char *,char,_STL::allocator<char> >::~_STLP_alloc_proxy<char *,char,_STL::allocator<char> >
; Function compile flags: /Ogsy
;	COMDAT ??1?$_STLP_alloc_proxy@PADDV?$allocator@D@_STL@@@_STL@@QAE@XZ
_TEXT	SEGMENT
??1?$_STLP_alloc_proxy@PADDV?$allocator@D@_STL@@@_STL@@QAE@XZ PROC NEAR ; _STL::_STLP_alloc_proxy<char *,char,_STL::allocator<char> >::~_STLP_alloc_proxy<char *,char,_STL::allocator<char> >, COMDAT
; _this$ = ecx
  00000	c3		 ret	 0
??1?$_STLP_alloc_proxy@PADDV?$allocator@D@_STL@@@_STL@@QAE@XZ ENDP ; _STL::_STLP_alloc_proxy<char *,char,_STL::allocator<char> >::~_STLP_alloc_proxy<char *,char,_STL::allocator<char> >
_TEXT	ENDS
PUBLIC	?allocate@?$__node_alloc@$00$0A@@_STL@@SAPAXI@Z	; _STL::__node_alloc<1,0>::allocate
EXTRN	?_M_allocate@?$__node_alloc@$00$0A@@_STL@@CAPAXI@Z:NEAR ; _STL::__node_alloc<1,0>::_M_allocate
; Function compile flags: /Ogsy
; File c:\stlport-4.6.1\stlport\stl\_alloc.h
;	COMDAT ?allocate@?$__node_alloc@$00$0A@@_STL@@SAPAXI@Z
_TEXT	SEGMENT
___n$ = 8						; size = 4
?allocate@?$__node_alloc@$00$0A@@_STL@@SAPAXI@Z PROC NEAR ; _STL::__node_alloc<1,0>::allocate, COMDAT

; 251  :   static void * _STLP_CALL allocate(size_t __n) { return (__n > (size_t)_MAX_BYTES) ?  __stl_new(__n) : _M_allocate(__n); }

  00000	8b 44 24 04	 mov	 eax, DWORD PTR ___n$[esp-4]
  00004	3d 80 00 00 00	 cmp	 eax, 128		; 00000080H
  00009	50		 push	 eax
  0000a	76 07		 jbe	 SHORT $L103549
  0000c	e8 00 00 00 00	 call	 ??2@YAPAXI@Z		; operator new
  00011	59		 pop	 ecx
  00012	c3		 ret	 0
$L103549:
  00013	e8 00 00 00 00	 call	 ?_M_allocate@?$__node_alloc@$00$0A@@_STL@@CAPAXI@Z ; _STL::__node_alloc<1,0>::_M_allocate
  00018	59		 pop	 ecx
  00019	c3		 ret	 0
?allocate@?$__node_alloc@$00$0A@@_STL@@SAPAXI@Z ENDP	; _STL::__node_alloc<1,0>::allocate
_TEXT	ENDS
PUBLIC	?deallocate@?$__node_alloc@$00$0A@@_STL@@SAXPAXI@Z ; _STL::__node_alloc<1,0>::deallocate
EXTRN	?_M_deallocate@?$__node_alloc@$00$0A@@_STL@@CAXPAXI@Z:NEAR ; _STL::__node_alloc<1,0>::_M_deallocate
; Function compile flags: /Ogsy
;	COMDAT ?deallocate@?$__node_alloc@$00$0A@@_STL@@SAXPAXI@Z
_TEXT	SEGMENT
___p$ = 8						; size = 4
___n$ = 12						; size = 4
?deallocate@?$__node_alloc@$00$0A@@_STL@@SAXPAXI@Z PROC NEAR ; _STL::__node_alloc<1,0>::deallocate, COMDAT

; 253  :   static void _STLP_CALL deallocate(void *__p, size_t __n) { if (__n > (size_t)_MAX_BYTES) __stl_delete(__p); else _M_deallocate(__p, __n); }

  00000	81 7c 24 08 80
	00 00 00	 cmp	 DWORD PTR ___n$[esp-4], 128 ; 00000080H
  00008	76 0b		 jbe	 SHORT $L98677
  0000a	ff 74 24 04	 push	 DWORD PTR ___p$[esp-4]
  0000e	e8 00 00 00 00	 call	 ??3@YAXPAX@Z		; operator delete
  00013	59		 pop	 ecx
  00014	c3		 ret	 0
$L98677:
  00015	e9 00 00 00 00	 jmp	 ?_M_deallocate@?$__node_alloc@$00$0A@@_STL@@CAXPAXI@Z ; _STL::__node_alloc<1,0>::_M_deallocate
?deallocate@?$__node_alloc@$00$0A@@_STL@@SAXPAXI@Z ENDP	; _STL::__node_alloc<1,0>::deallocate
_TEXT	ENDS
PUBLIC	??$min@H@_STL@@YAABHABH0@Z			; _STL::min<int>
; Function compile flags: /Ogsy
; File c:\stlport-4.6.1\stlport\stl\_algobase.h
;	COMDAT ??$min@H@_STL@@YAABHABH0@Z
_TEXT	SEGMENT
___a$ = 8						; size = 4
___b$ = 12						; size = 4
??$min@H@_STL@@YAABHABH0@Z PROC NEAR			; _STL::min<int>, COMDAT

; 77   : inline const _Tp& (min)(const _Tp& __a, const _Tp& __b) { return __b < __a ? __b : __a; }

  00000	8b 44 24 08	 mov	 eax, DWORD PTR ___b$[esp-4]
  00004	8b 10		 mov	 edx, DWORD PTR [eax]
  00006	8b 4c 24 04	 mov	 ecx, DWORD PTR ___a$[esp-4]
  0000a	3b 11		 cmp	 edx, DWORD PTR [ecx]
  0000c	7c 02		 jl	 SHORT $L103566
  0000e	8b c1		 mov	 eax, ecx
$L103566:
  00010	c3		 ret	 0
??$min@H@_STL@@YAABHABH0@Z ENDP				; _STL::min<int>
_TEXT	ENDS
PUBLIC	?GetSize@AppendPatch@@QBEHXZ			; AppendPatch::GetSize
; Function compile flags: /Ogsy
; File c:\darkeden\designed_common\project\client\appendpatchinfo.h
;	COMDAT ?GetSize@AppendPatch@@QBEHXZ
_TEXT	SEGMENT
?GetSize@AppendPatch@@QBEHXZ PROC NEAR			; AppendPatch::GetSize, COMDAT
; _this$ = ecx

; 53   : 		int			GetSize() const			{ return m_AppendPatch.size(); }

  00000	8b 41 20	 mov	 eax, DWORD PTR [ecx+32]
  00003	2b 41 1c	 sub	 eax, DWORD PTR [ecx+28]
  00006	c1 f8 02	 sar	 eax, 2
  00009	c3		 ret	 0
?GetSize@AppendPatch@@QBEHXZ ENDP			; AppendPatch::GetSize
_TEXT	ENDS
PUBLIC	?Append@APPEND_PATCH_NODE@@QBE_NPBD@Z		; APPEND_PATCH_NODE::Append
EXTRN	_access:NEAR
EXTRN	_remove:NEAR
; Function compile flags: /Ogsy
; File c:\darkeden\designed_common\project\client\appendpatchinfo.cpp
;	COMDAT ?Append@APPEND_PATCH_NODE@@QBE_NPBD@Z
_TEXT	SEGMENT
_orgFilename$ = 8					; size = 4
?Append@APPEND_PATCH_NODE@@QBE_NPBD@Z PROC NEAR		; APPEND_PATCH_NODE::Append, COMDAT
; _this$ = ecx

; 23   : {	

  00000	56		 push	 esi
  00001	8b f1		 mov	 esi, ecx

; 24   : 	//if(access(orgFilename, 0)) return false;
; 25   : 
; 26   : 	#if !defined(__GAME_CLIENT__) && !defined(__INIT_INFO__)
; 27   : 	//	UpdateProgressBar();
; 28   : 	#endif
; 29   : 
; 30   : 	if(!access(appendFilename.GetString(), 0))	

  00003	8b 46 08	 mov	 eax, DWORD PTR [esi+8]
  00006	6a 00		 push	 0
  00008	50		 push	 eax
  00009	e8 00 00 00 00	 call	 _access
  0000e	85 c0		 test	 eax, eax
  00010	59		 pop	 ecx
  00011	59		 pop	 ecx
  00012	75 09		 jne	 SHORT $L101057

; 31   : 	{
; 32   : 		if(PUUFAppendPackImpl<WORD>(appendFilename.GetString(), orgFilename))
; 33   : 		{
; 34   : 			remove( appendFilename.GetString() );

  00014	ff 76 08	 push	 DWORD PTR [esi+8]
  00017	e8 00 00 00 00	 call	 _remove
  0001c	59		 pop	 ecx
$L101057:

; 35   : 			return true;
; 36   : 		}
; 37   : 
; 38   : 		return false;
; 39   : 	}
; 40   : 
; 41   : 	/*
; 42   : 	//-------------------------------------------------------------
; 43   : 	// append ..
; 44   : 	//-------------------------------------------------------------
; 45   : 	std::ifstream appendFile(appendFilename.GetString(), std::ios::binary);		
; 46   : 
; 47   : 	int n;
; 48   : 	char buffer[4096];
; 49   : 
; 50   : 	// .. - -;;
; 51   : 	#ifdef __GAME_CLIENT__
; 52   : 		UpdateProgressBar();
; 53   : 	#endif
; 54   : 
; 55   : 	//-------------------------------------------------------------
; 56   : 	//     ..
; 57   : 	//-------------------------------------------------------------
; 58   : 	if (appendFile.is_open())
; 59   : 	{
; 60   : 		#ifdef __GAME_CLIENT__
; 61   : 			SetProgressBarText("   .");
; 62   : 		#endif
; 63   : 
; 64   : 		std::fstream orgFile(orgFilename, std::ios::binary | std::ios::ate | std::ios::in | std::ios::out);
; 65   : 		
; 66   : 		if (orgFile.is_open())
; 67   : 		{
; 68   : 
; 69   : 			WORD orgSpkSize;
; 70   : 			orgFile.seekg( 0 );
; 71   : 			orgFile.read((char*)&orgSpkSize, 2);	// Sprite 
; 72   : 			
; 73   : 			appendFile.seekg( 2 );	// size 
; 74   : 			orgFile.seekp( writePosition );		
; 75   : 			
; 76   : 			while (1)
; 77   : 			{
; 78   : 				appendFile.read(buffer, 4096);
; 79   : 				n = appendFile.gcount();
; 80   : 				
; 81   : 				if (n > 0)
; 82   : 				{
; 83   : 					orgFile.write(buffer, n);
; 84   : 				}
; 85   : 				else
; 86   : 				{
; 87   : 					break;
; 88   : 				}
; 89   : 			}		
; 90   : 			
; 91   : 			appendFile.close();
; 92   : 			
; 93   : 			//  
; 94   : 			orgFile.seekp( 0, std::ios::beg );
; 95   : 			WORD afterNum = max(afterSpkSize, orgSpkSize);	//    - -;
; 96   : 			
; 97   : 			orgFile.write((const char*)&afterSpkSize, 2);
; 98   : 			orgFile.close();
; 99   : 			
; 100  : 			
; 101  : 			//  .
; 102  : 			remove( appendFilename.GetString() );
; 103  : 		}
; 104  : 		else
; 105  : 		{
; 106  : 			return false;
; 107  : 		}
; 108  : 	}
; 109  : 	*/
; 110  : 
; 111  : 	return true;

  0001d	b0 01		 mov	 al, 1
  0001f	5e		 pop	 esi

; 112  : }

  00020	c2 04 00	 ret	 4
?Append@APPEND_PATCH_NODE@@QBE_NPBD@Z ENDP		; APPEND_PATCH_NODE::Append
_TEXT	ENDS
PUBLIC	??_GAPPEND_PATCH_NODE@@QAEPAXI@Z		; APPEND_PATCH_NODE::`scalar deleting destructor'
; Function compile flags: /Ogsy
;	COMDAT ??_GAPPEND_PATCH_NODE@@QAEPAXI@Z
_TEXT	SEGMENT
___flags$ = 8						; size = 4
??_GAPPEND_PATCH_NODE@@QAEPAXI@Z PROC NEAR		; APPEND_PATCH_NODE::`scalar deleting destructor', COMDAT
; _this$ = ecx
  00000	56		 push	 esi
  00001	8b f1		 mov	 esi, ecx
  00003	e8 00 00 00 00	 call	 ??1APPEND_PATCH_NODE@@QAE@XZ
  00008	f6 44 24 08 01	 test	 BYTE PTR ___flags$[esp], 1
  0000d	74 07		 je	 SHORT $L101141
  0000f	56		 push	 esi
  00010	e8 00 00 00 00	 call	 ??3@YAXPAX@Z		; operator delete
  00015	59		 pop	 ecx
$L101141:
  00016	8b c6		 mov	 eax, esi
  00018	5e		 pop	 esi
  00019	c2 04 00	 ret	 4
??_GAPPEND_PATCH_NODE@@QAEPAXI@Z ENDP			; APPEND_PATCH_NODE::`scalar deleting destructor'
_TEXT	ENDS
PUBLIC	?CalculateFinalInfo@AppendPatch@@QBE_NXZ	; AppendPatch::CalculateFinalInfo
; Function compile flags: /Ogsy
;	COMDAT ?CalculateFinalInfo@AppendPatch@@QBE_NXZ
_TEXT	SEGMENT
_totalSpkSize$ = -4					; size = 2
?CalculateFinalInfo@AppendPatch@@QBE_NXZ PROC NEAR	; AppendPatch::CalculateFinalInfo, COMDAT
; _this$ = ecx

; 505  : {

  00000	55		 push	 ebp
  00001	8b ec		 mov	 ebp, esp
  00003	51		 push	 ecx

; 506  : 	APPEND_PATCH_VECTOR::const_iterator iNode = m_AppendPatch.begin();
; 507  : 
; 508  : 	long totalFilesize	= m_orgFilesize;

  00004	8b 41 0c	 mov	 eax, DWORD PTR [ecx+12]

; 509  : 	WORD totalSpkSize	= m_orgSpkSize;

  00007	33 d2		 xor	 edx, edx
  00009	66 8b 51 10	 mov	 dx, WORD PTR [ecx+16]
  0000d	56		 push	 esi
  0000e	8b 71 1c	 mov	 esi, DWORD PTR [ecx+28]

; 510  : 
; 511  : 	while (iNode != m_AppendPatch.end())

  00011	3b 71 20	 cmp	 esi, DWORD PTR [ecx+32]
  00014	57		 push	 edi
  00015	66 8b fa	 mov	 di, dx
  00018	89 55 fc	 mov	 DWORD PTR _totalSpkSize$[ebp], edx
  0001b	74 17		 je	 SHORT $L101269
  0001d	53		 push	 ebx
$L101268:

; 512  : 	{
; 513  : 		APPEND_PATCH_NODE* pNode = *iNode;

  0001e	8b 16		 mov	 edx, DWORD PTR [esi]

; 514  : 
; 515  : 		totalFilesize += pNode->appendFilesize - 2;	// -2 for spkNum

  00020	8b 5a 0c	 mov	 ebx, DWORD PTR [edx+12]

; 516  : 		totalSpkSize += pNode->appSpkSize;

  00023	66 03 7a 10	 add	 di, WORD PTR [edx+16]

; 517  : 		
; 518  : 		iNode++;

  00027	83 c6 04	 add	 esi, 4
  0002a	3b 71 20	 cmp	 esi, DWORD PTR [ecx+32]
  0002d	8d 44 18 fe	 lea	 eax, DWORD PTR [eax+ebx-2]
  00031	75 eb		 jne	 SHORT $L101268
  00033	5b		 pop	 ebx
$L101269:

; 519  : 	}
; 520  : 
; 521  : 	if (m_finalFilesize==totalFilesize
; 522  : 		&& m_finalSpkSize==totalSpkSize)

  00034	39 41 14	 cmp	 DWORD PTR [ecx+20], eax
  00037	75 0a		 jne	 SHORT $L101271
  00039	66 39 79 18	 cmp	 WORD PTR [ecx+24], di
  0003d	75 04		 jne	 SHORT $L101271

; 523  : 	{
; 524  : 		return true;

  0003f	b0 01		 mov	 al, 1
  00041	eb 02		 jmp	 SHORT $L101263
$L101271:

; 525  : 	}
; 526  : 	
; 527  : 	return false;

  00043	32 c0		 xor	 al, al
$L101263:
  00045	5f		 pop	 edi
  00046	5e		 pop	 esi

; 528  : }

  00047	c9		 leave
  00048	c3		 ret	 0
?CalculateFinalInfo@AppendPatch@@QBE_NXZ ENDP		; AppendPatch::CalculateFinalInfo
_TEXT	ENDS
PUBLIC	?GetAllSize@AppendPatchTable@@QBEHXZ		; AppendPatchTable::GetAllSize
; Function compile flags: /Ogsy
;	COMDAT ?GetAllSize@AppendPatchTable@@QBEHXZ
_TEXT	SEGMENT
?GetAllSize@AppendPatchTable@@QBEHXZ PROC NEAR		; AppendPatchTable::GetAllSize, COMDAT
; _this$ = ecx

; 591  : 	int allSize = 0;
; 592  : 
; 593  : 	for (int i=0; i<m_Size; i++)

  00000	8b 11		 mov	 edx, DWORD PTR [ecx]
  00002	33 c0		 xor	 eax, eax
  00004	85 d2		 test	 edx, edx
  00006	7e 18		 jle	 SHORT $L101313
  00008	8b 49 04	 mov	 ecx, DWORD PTR [ecx+4]
  0000b	83 c1 1c	 add	 ecx, 28			; 0000001cH
  0000e	56		 push	 esi
$L101311:

; 594  : 	{
; 595  : 		allSize += m_pTypeInfo[i].GetSize();

  0000f	8b 71 04	 mov	 esi, DWORD PTR [ecx+4]
  00012	2b 31		 sub	 esi, DWORD PTR [ecx]
  00014	83 c1 28	 add	 ecx, 40			; 00000028H
  00017	c1 fe 02	 sar	 esi, 2
  0001a	03 c6		 add	 eax, esi
  0001c	4a		 dec	 edx
  0001d	75 f0		 jne	 SHORT $L101311
  0001f	5e		 pop	 esi
$L101313:

; 596  : 	}
; 597  : 
; 598  : 	return allSize;
; 599  : }

  00020	c3		 ret	 0
?GetAllSize@AppendPatchTable@@QBEHXZ ENDP		; AppendPatchTable::GetAllSize
_TEXT	ENDS
PUBLIC	?allocate@?$allocator@D@_STL@@QAEPADIPBX@Z	; _STL::allocator<char>::allocate
; Function compile flags: /Ogsy
; File c:\stlport-4.6.1\stlport\stl\_alloc.h
;	COMDAT ?allocate@?$allocator@D@_STL@@QAEPADIPBX@Z
_TEXT	SEGMENT
___n$ = 8						; size = 4
___formal$ = 12						; size = 4
?allocate@?$allocator@D@_STL@@QAEPADIPBX@Z PROC NEAR	; _STL::allocator<char>::allocate, COMDAT
; _this$ = ecx

; 355  :     return __n != 0 ? __REINTERPRET_CAST(value_type*,__sgi_alloc::allocate(__n * sizeof(value_type))) : 0;

  00000	33 c0		 xor	 eax, eax
  00002	39 44 24 04	 cmp	 DWORD PTR ___n$[esp-4], eax
  00006	74 0a		 je	 SHORT $L103625
  00008	ff 74 24 04	 push	 DWORD PTR ___n$[esp-4]
  0000c	e8 00 00 00 00	 call	 ?allocate@?$__node_alloc@$00$0A@@_STL@@SAPAXI@Z ; _STL::__node_alloc<1,0>::allocate
  00011	59		 pop	 ecx
$L103625:

; 356  :   }

  00012	c2 08 00	 ret	 8
?allocate@?$allocator@D@_STL@@QAEPADIPBX@Z ENDP		; _STL::allocator<char>::allocate
_TEXT	ENDS
PUBLIC	?is_open@?$basic_filebuf@DV?$char_traits@D@_STL@@@_STL@@QBE_NXZ ; _STL::basic_filebuf<char,_STL::char_traits<char> >::is_open
; Function compile flags: /Ogsy
; File c:\stlport-4.6.1\stlport\stl\_fstream.h
;	COMDAT ?is_open@?$basic_filebuf@DV?$char_traits@D@_STL@@@_STL@@QBE_NXZ
_TEXT	SEGMENT
?is_open@?$basic_filebuf@DV?$char_traits@D@_STL@@@_STL@@QBE_NXZ PROC NEAR ; _STL::basic_filebuf<char,_STL::char_traits<char> >::is_open, COMDAT
; _this$ = ecx

; 198  :   bool is_open() const { return _M_base.__is_open(); }

  00000	33 c0		 xor	 eax, eax
  00002	38 41 60	 cmp	 BYTE PTR [ecx+96], al
  00005	0f 95 c0	 setne	 al
  00008	c3		 ret	 0
?is_open@?$basic_filebuf@DV?$char_traits@D@_STL@@@_STL@@QBE_NXZ ENDP ; _STL::basic_filebuf<char,_STL::char_traits<char> >::is_open
_TEXT	ENDS
PUBLIC	?is_open@?$basic_ifstream@DV?$char_traits@D@_STL@@@_STL@@QAE_NXZ ; _STL::basic_ifstream<char,_STL::char_traits<char> >::is_open
; Function compile flags: /Ogsy
;	COMDAT ?is_open@?$basic_ifstream@DV?$char_traits@D@_STL@@@_STL@@QAE_NXZ
_TEXT	SEGMENT
?is_open@?$basic_ifstream@DV?$char_traits@D@_STL@@@_STL@@QAE_NXZ PROC NEAR ; _STL::basic_ifstream<char,_STL::char_traits<char> >::is_open, COMDAT
; _this$ = ecx

; 550  :     return this->rdbuf()->is_open();

  00000	33 c0		 xor	 eax, eax
  00002	38 41 68	 cmp	 BYTE PTR [ecx+104], al
  00005	0f 95 c0	 setne	 al

; 551  :   }

  00008	c3		 ret	 0
?is_open@?$basic_ifstream@DV?$char_traits@D@_STL@@@_STL@@QAE_NXZ ENDP ; _STL::basic_ifstream<char,_STL::char_traits<char> >::is_open
_TEXT	ENDS
PUBLIC	??0?$_Vector_base@PAVAPPEND_PATCH_NODE@@V?$allocator@PAVAPPEND_PATCH_NODE@@@_STL@@@_STL@@QAE@ABV?$allocator@PAVAPPEND_PATCH_NODE@@@1@@Z ; _STL::_Vector_base<APPEND_PATCH_NODE *,_STL::allocator<APPEND_PATCH_NODE *> >::_Vector_base<APPEND_PATCH_NODE *,_STL::allocator<APPEND_PATCH_NODE *> >
; Function compile flags: /Ogsy
; File c:\stlport-4.6.1\stlport\stl\_vector.h
;	COMDAT ??0?$_Vector_base@PAVAPPEND_PATCH_NODE@@V?$allocator@PAVAPPEND_PATCH_NODE@@@_STL@@@_STL@@QAE@ABV?$allocator@PAVAPPEND_PATCH_NODE@@@1@@Z
_TEXT	SEGMENT
___a$ = 8						; size = 4
??0?$_Vector_base@PAVAPPEND_PATCH_NODE@@V?$allocator@PAVAPPEND_PATCH_NODE@@@_STL@@@_STL@@QAE@ABV?$allocator@PAVAPPEND_PATCH_NODE@@@1@@Z PROC NEAR ; _STL::_Vector_base<APPEND_PATCH_NODE *,_STL::allocator<APPEND_PATCH_NODE *> >::_Vector_base<APPEND_PATCH_NODE *,_STL::allocator<APPEND_PATCH_NODE *> >, COMDAT
; _this$ = ecx

; 72   :     : _M_start(0), _M_finish(0), _M_end_of_storage(__a, 0) {

  00000	56		 push	 esi
  00001	33 c0		 xor	 eax, eax
  00003	8b f1		 mov	 esi, ecx
  00005	50		 push	 eax
  00006	ff 74 24 0c	 push	 DWORD PTR ___a$[esp+4]
  0000a	8d 4e 08	 lea	 ecx, DWORD PTR [esi+8]
  0000d	89 06		 mov	 DWORD PTR [esi], eax
  0000f	89 46 04	 mov	 DWORD PTR [esi+4], eax
  00012	e8 00 00 00 00	 call	 ??0?$_STLP_alloc_proxy@PAPAVAPPEND_PATCH_NODE@@PAV1@V?$allocator@PAVAPPEND_PATCH_NODE@@@_STL@@@_STL@@QAE@ABV?$allocator@PAVAPPEND_PATCH_NODE@@@1@PAPAVAPPEND_PATCH_NODE@@@Z ; _STL::_STLP_alloc_proxy<APPEND_PATCH_NODE * *,APPEND_PATCH_NODE *,_STL::allocator<APPEND_PATCH_NODE *> >::_STLP_alloc_proxy<APPEND_PATCH_NODE * *,APPEND_PATCH_NODE *,_STL::allocator<APPEND_PATCH_NODE *> >

; 73   :   }

  00017	8b c6		 mov	 eax, esi
  00019	5e		 pop	 esi
  0001a	c2 04 00	 ret	 4
??0?$_Vector_base@PAVAPPEND_PATCH_NODE@@V?$allocator@PAVAPPEND_PATCH_NODE@@@_STL@@@_STL@@QAE@ABV?$allocator@PAVAPPEND_PATCH_NODE@@@1@@Z ENDP ; _STL::_Vector_base<APPEND_PATCH_NODE *,_STL::allocator<APPEND_PATCH_NODE *> >::_Vector_base<APPEND_PATCH_NODE *,_STL::allocator<APPEND_PATCH_NODE *> >
_TEXT	ENDS
PUBLIC	?erase@?$basic_string@DV?$char_traits@D@_STL@@V?$allocator@D@2@@_STL@@QAEPADPAD0@Z ; _STL::basic_string<char,_STL::char_traits<char>,_STL::allocator<char> >::erase
; Function compile flags: /Ogsy
; File c:\stlport-4.6.1\stlport\stl\_string.h
;	COMDAT ?erase@?$basic_string@DV?$char_traits@D@_STL@@V?$allocator@D@2@@_STL@@QAEPADPAD0@Z
_TEXT	SEGMENT
___first$ = 8						; size = 4
___last$ = 12						; size = 4
?erase@?$basic_string@DV?$char_traits@D@_STL@@V?$allocator@D@2@@_STL@@QAEPADPAD0@Z PROC NEAR ; _STL::basic_string<char,_STL::char_traits<char>,_STL::allocator<char> >::erase, COMDAT
; _this$ = ecx

; 862  :   iterator erase(iterator __first, iterator __last) {

  00000	53		 push	 ebx

; 863  :     if (__first != __last) {

  00001	8b 5c 24 08	 mov	 ebx, DWORD PTR ___first$[esp]
  00005	56		 push	 esi
  00006	57		 push	 edi
  00007	8b 7c 24 14	 mov	 edi, DWORD PTR ___last$[esp+8]
  0000b	3b df		 cmp	 ebx, edi
  0000d	8b f1		 mov	 esi, ecx
  0000f	74 1a		 je	 SHORT $L101563

; 864  :                                 // The move includes the terminating _CharT().
; 865  :       traits_type::move(__first, __last, (this->_M_finish - __last) + 1);

  00011	8b 46 04	 mov	 eax, DWORD PTR [esi+4]
  00014	2b c7		 sub	 eax, edi
  00016	40		 inc	 eax
  00017	74 0b		 je	 SHORT $L103658
  00019	50		 push	 eax
  0001a	57		 push	 edi
  0001b	53		 push	 ebx
  0001c	e8 00 00 00 00	 call	 _memmove
  00021	83 c4 0c	 add	 esp, 12			; 0000000cH
$L103658:

; 866  :       pointer __new_finish = this->_M_finish - (__last - __first);

  00024	8b c3		 mov	 eax, ebx
  00026	2b c7		 sub	 eax, edi

; 867  :       _STLP_STD::_Destroy(__new_finish + 1, this->_M_finish + 1);
; 868  :       this->_M_finish = __new_finish;

  00028	01 46 04	 add	 DWORD PTR [esi+4], eax
$L101563:
  0002b	5f		 pop	 edi
  0002c	5e		 pop	 esi

; 869  :     }
; 870  :     return __first;

  0002d	8b c3		 mov	 eax, ebx
  0002f	5b		 pop	 ebx

; 871  :   }

  00030	c2 08 00	 ret	 8
?erase@?$basic_string@DV?$char_traits@D@_STL@@V?$allocator@D@2@@_STL@@QAEPADPAD0@Z ENDP ; _STL::basic_string<char,_STL::char_traits<char>,_STL::allocator<char> >::erase
_TEXT	ENDS
PUBLIC	?clear@?$basic_ios@DV?$char_traits@D@_STL@@@_STL@@QAEXH@Z ; _STL::basic_ios<char,_STL::char_traits<char> >::clear
; Function compile flags: /Ogsy
; File c:\stlport-4.6.1\stlport\stl\_ios.h
;	COMDAT ?clear@?$basic_ios@DV?$char_traits@D@_STL@@@_STL@@QAEXH@Z
_TEXT	SEGMENT
___state$ = 8						; size = 4
?clear@?$basic_ios@DV?$char_traits@D@_STL@@@_STL@@QAEXH@Z PROC NEAR ; _STL::basic_ios<char,_STL::char_traits<char> >::clear, COMDAT
; _this$ = ecx

; 91   :     _M_clear_nothrow(this->rdbuf() ? __state : iostate(__state|ios_base::badbit));

  00000	83 79 58 00	 cmp	 DWORD PTR [ecx+88], 0
  00004	8b 44 24 04	 mov	 eax, DWORD PTR ___state$[esp-4]
  00008	75 03		 jne	 SHORT $L103667
  0000a	83 c8 01	 or	 eax, 1
$L103667:

; 92   :     _M_check_exception_mask();

  0000d	85 41 14	 test	 DWORD PTR [ecx+20], eax
  00010	89 41 08	 mov	 DWORD PTR [ecx+8], eax
  00013	74 05		 je	 SHORT $L103679
  00015	e8 00 00 00 00	 call	 ?_M_throw_failure@ios_base@_STL@@IAEXXZ ; _STL::ios_base::_M_throw_failure
$L103679:

; 93   :   }

  0001a	c2 04 00	 ret	 4
?clear@?$basic_ios@DV?$char_traits@D@_STL@@@_STL@@QAEXH@Z ENDP ; _STL::basic_ios<char,_STL::char_traits<char> >::clear
_TEXT	ENDS
PUBLIC	?allocate@?$allocator@PAVAPPEND_PATCH_NODE@@@_STL@@QAEPAPAVAPPEND_PATCH_NODE@@IPBX@Z ; _STL::allocator<APPEND_PATCH_NODE *>::allocate
; Function compile flags: /Ogsy
; File c:\stlport-4.6.1\stlport\stl\_alloc.h
;	COMDAT ?allocate@?$allocator@PAVAPPEND_PATCH_NODE@@@_STL@@QAEPAPAVAPPEND_PATCH_NODE@@IPBX@Z
_TEXT	SEGMENT
___n$ = 8						; size = 4
___formal$ = 12						; size = 4
?allocate@?$allocator@PAVAPPEND_PATCH_NODE@@@_STL@@QAEPAPAVAPPEND_PATCH_NODE@@IPBX@Z PROC NEAR ; _STL::allocator<APPEND_PATCH_NODE *>::allocate, COMDAT
; _this$ = ecx

; 355  :     return __n != 0 ? __REINTERPRET_CAST(value_type*,__sgi_alloc::allocate(__n * sizeof(value_type))) : 0;

  00000	8b 44 24 04	 mov	 eax, DWORD PTR ___n$[esp-4]
  00004	85 c0		 test	 eax, eax
  00006	74 0c		 je	 SHORT $L103683
  00008	c1 e0 02	 shl	 eax, 2
  0000b	50		 push	 eax
  0000c	e8 00 00 00 00	 call	 ?allocate@?$__node_alloc@$00$0A@@_STL@@SAPAXI@Z ; _STL::__node_alloc<1,0>::allocate
  00011	59		 pop	 ecx
  00012	eb 02		 jmp	 SHORT $L103684
$L103683:
  00014	33 c0		 xor	 eax, eax
$L103684:

; 356  :   }

  00016	c2 08 00	 ret	 8
?allocate@?$allocator@PAVAPPEND_PATCH_NODE@@@_STL@@QAEPAPAVAPPEND_PATCH_NODE@@IPBX@Z ENDP ; _STL::allocator<APPEND_PATCH_NODE *>::allocate
_TEXT	ENDS
PUBLIC	?deallocate@?$allocator@PAVAPPEND_PATCH_NODE@@@_STL@@QAEXPAPAVAPPEND_PATCH_NODE@@I@Z ; _STL::allocator<APPEND_PATCH_NODE *>::deallocate
; Function compile flags: /Ogsy
;	COMDAT ?deallocate@?$allocator@PAVAPPEND_PATCH_NODE@@@_STL@@QAEXPAPAVAPPEND_PATCH_NODE@@I@Z
_TEXT	SEGMENT
___p$ = 8						; size = 4
___n$ = 12						; size = 4
?deallocate@?$allocator@PAVAPPEND_PATCH_NODE@@@_STL@@QAEXPAPAVAPPEND_PATCH_NODE@@I@Z PROC NEAR ; _STL::allocator<APPEND_PATCH_NODE *>::deallocate, COMDAT
; _this$ = ecx

; 359  :     _STLP_ASSERT( (__p == 0) == (__n == 0) )
; 360  :       if (__p != 0) __sgi_alloc::deallocate((void*)__p, __n * sizeof(value_type));

  00000	83 7c 24 04 00	 cmp	 DWORD PTR ___p$[esp-4], 0
  00005	74 13		 je	 SHORT $L101579
  00007	8b 44 24 08	 mov	 eax, DWORD PTR ___n$[esp-4]
  0000b	c1 e0 02	 shl	 eax, 2
  0000e	50		 push	 eax
  0000f	ff 74 24 08	 push	 DWORD PTR ___p$[esp]
  00013	e8 00 00 00 00	 call	 ?deallocate@?$__node_alloc@$00$0A@@_STL@@SAXPAXI@Z ; _STL::__node_alloc<1,0>::deallocate
  00018	59		 pop	 ecx
  00019	59		 pop	 ecx
$L101579:

; 361  :   }

  0001a	c2 08 00	 ret	 8
?deallocate@?$allocator@PAVAPPEND_PATCH_NODE@@@_STL@@QAEXPAPAVAPPEND_PATCH_NODE@@I@Z ENDP ; _STL::allocator<APPEND_PATCH_NODE *>::deallocate
_TEXT	ENDS
PUBLIC	?_M_setup_codecvt@?$basic_filebuf@DV?$char_traits@D@_STL@@@_STL@@AAEXABVlocale@2@@Z ; _STL::basic_filebuf<char,_STL::char_traits<char> >::_M_setup_codecvt
; Function compile flags: /Ogsy
; File c:\stlport-4.6.1\stlport\stl\_fstream.c
;	COMDAT ?_M_setup_codecvt@?$basic_filebuf@DV?$char_traits@D@_STL@@@_STL@@AAEXABVlocale@2@@Z
_TEXT	SEGMENT
$T103691 = -4						; size = 4
___encoding$ = 8					; size = 4
___loc$ = 8						; size = 4
?_M_setup_codecvt@?$basic_filebuf@DV?$char_traits@D@_STL@@@_STL@@AAEXABVlocale@2@@Z PROC NEAR ; _STL::basic_filebuf<char,_STL::char_traits<char> >::_M_setup_codecvt, COMDAT
; _this$ = ecx

; 730  : {

  00000	55		 push	 ebp
  00001	8b ec		 mov	 ebp, esp
  00003	51		 push	 ecx
  00004	56		 push	 esi
  00005	8b f1		 mov	 esi, ecx

; 731  :   _M_codecvt = &use_facet<_Codecvt>(__loc) ;

  00007	8b 4d 08	 mov	 ecx, DWORD PTR ___loc$[ebp]
  0000a	68 00 00 00 00	 push	 OFFSET FLAT:?id@?$codecvt@DDH@_STL@@2V0locale@2@A ; _STL::codecvt<char,char,int>::id
  0000f	e8 00 00 00 00	 call	 ?_M_use_facet@locale@_STL@@QBEPAVfacet@12@ABVid@12@@Z ; _STL::locale::_M_use_facet
  00014	89 86 a0 00 00
	00		 mov	 DWORD PTR [esi+160], eax

; 732  :   int __encoding    = _M_codecvt->encoding();

  0001a	8b 10		 mov	 edx, DWORD PTR [eax]
  0001c	8b c8		 mov	 ecx, eax
  0001e	ff 52 10	 call	 DWORD PTR [edx+16]
  00021	89 45 08	 mov	 DWORD PTR ___encoding$[ebp], eax

; 733  : 
; 734  :   _M_width          = (max)(__encoding, 1);

  00024	33 c0		 xor	 eax, eax
  00026	40		 inc	 eax
  00027	39 45 08	 cmp	 DWORD PTR ___encoding$[ebp], eax
  0002a	89 45 fc	 mov	 DWORD PTR $T103691[ebp], eax
  0002d	8d 45 fc	 lea	 eax, DWORD PTR $T103691[ebp]
  00030	7c 03		 jl	 SHORT $L103706
  00032	8d 45 08	 lea	 eax, DWORD PTR ___encoding$[ebp]
$L103706:
  00035	8b 00		 mov	 eax, DWORD PTR [eax]

; 735  :   _M_max_width      = _M_codecvt->max_length();

  00037	8b 8e a0 00 00
	00		 mov	 ecx, DWORD PTR [esi+160]
  0003d	89 86 a4 00 00
	00		 mov	 DWORD PTR [esi+164], eax
  00043	8b 01		 mov	 eax, DWORD PTR [ecx]
  00045	ff 50 1c	 call	 DWORD PTR [eax+28]

; 736  :   _M_constant_width = __encoding > 0;

  00048	83 7d 08 00	 cmp	 DWORD PTR ___encoding$[ebp], 0

; 737  :   _M_always_noconv  = _M_codecvt->always_noconv();

  0004c	8b 8e a0 00 00
	00		 mov	 ecx, DWORD PTR [esi+160]
  00052	89 86 a8 00 00
	00		 mov	 DWORD PTR [esi+168], eax
  00058	0f 9f c0	 setg	 al
  0005b	88 46 64	 mov	 BYTE PTR [esi+100], al
  0005e	8b 01		 mov	 eax, DWORD PTR [ecx]
  00060	ff 50 14	 call	 DWORD PTR [eax+20]
  00063	88 46 65	 mov	 BYTE PTR [esi+101], al
  00066	5e		 pop	 esi

; 738  : }

  00067	c9		 leave
  00068	c2 04 00	 ret	 4
?_M_setup_codecvt@?$basic_filebuf@DV?$char_traits@D@_STL@@@_STL@@AAEXABVlocale@2@@Z ENDP ; _STL::basic_filebuf<char,_STL::char_traits<char> >::_M_setup_codecvt
_TEXT	ENDS
PUBLIC	?rdbuf@?$basic_ios@DV?$char_traits@D@_STL@@@_STL@@QAEPAV?$basic_streambuf@DV?$char_traits@D@_STL@@@2@PAV32@@Z ; _STL::basic_ios<char,_STL::char_traits<char> >::rdbuf
; Function compile flags: /Ogsy
; File c:\stlport-4.6.1\stlport\stl\_ios.c
;	COMDAT ?rdbuf@?$basic_ios@DV?$char_traits@D@_STL@@@_STL@@QAEPAV?$basic_streambuf@DV?$char_traits@D@_STL@@@2@PAV32@@Z
_TEXT	SEGMENT
___buf$ = 8						; size = 4
?rdbuf@?$basic_ios@DV?$char_traits@D@_STL@@@_STL@@QAEPAV?$basic_streambuf@DV?$char_traits@D@_STL@@@2@PAV32@@Z PROC NEAR ; _STL::basic_ios<char,_STL::char_traits<char> >::rdbuf, COMDAT
; _this$ = ecx

; 53   :   basic_streambuf<_CharT, _Traits>* __tmp = _M_streambuf;
; 54   :   _M_streambuf = __buf;

  00000	8b 44 24 04	 mov	 eax, DWORD PTR ___buf$[esp-4]
  00004	56		 push	 esi
  00005	8b 71 58	 mov	 esi, DWORD PTR [ecx+88]

; 55   :   this->clear();

  00008	6a 00		 push	 0
  0000a	89 41 58	 mov	 DWORD PTR [ecx+88], eax
  0000d	e8 00 00 00 00	 call	 ?clear@?$basic_ios@DV?$char_traits@D@_STL@@@_STL@@QAEXH@Z ; _STL::basic_ios<char,_STL::char_traits<char> >::clear

; 56   :   return __tmp;

  00012	8b c6		 mov	 eax, esi
  00014	5e		 pop	 esi

; 57   : }

  00015	c2 04 00	 ret	 4
?rdbuf@?$basic_ios@DV?$char_traits@D@_STL@@@_STL@@QAEPAV?$basic_streambuf@DV?$char_traits@D@_STL@@@2@PAV32@@Z ENDP ; _STL::basic_ios<char,_STL::char_traits<char> >::rdbuf
_TEXT	ENDS
PUBLIC	?_M_unshift@?$basic_filebuf@DV?$char_traits@D@_STL@@@_STL@@AAE_NXZ ; _STL::basic_filebuf<char,_STL::char_traits<char> >::_M_unshift
; Function compile flags: /Ogsy
; File c:\stlport-4.6.1\stlport\stl\_fstream.c
;	COMDAT ?_M_unshift@?$basic_filebuf@DV?$char_traits@D@_STL@@@_STL@@AAE_NXZ
_TEXT	SEGMENT
___enext$102127 = -4					; size = 4
?_M_unshift@?$basic_filebuf@DV?$char_traits@D@_STL@@@_STL@@AAE_NXZ PROC NEAR ; _STL::basic_filebuf<char,_STL::char_traits<char> >::_M_unshift, COMDAT
; _this$ = ecx

; 605  : {

  00000	55		 push	 ebp
  00001	8b ec		 mov	 ebp, esp
  00003	51		 push	 ecx
  00004	53		 push	 ebx
  00005	56		 push	 esi
  00006	8b f1		 mov	 esi, ecx

; 606  :   if (_M_in_output_mode && !_M_constant_width) {

  00008	80 7e 68 00	 cmp	 BYTE PTR [esi+104], 0
  0000c	57		 push	 edi
  0000d	74 57		 je	 SHORT $L102126
  0000f	80 7e 64 00	 cmp	 BYTE PTR [esi+100], 0
  00013	75 51		 jne	 SHORT $L102126
$L102124:

; 607  :     typename _Codecvt::result __status;
; 608  :     do {
; 609  :       char* __enext = _M_ext_buf;

  00015	8b 46 74	 mov	 eax, DWORD PTR [esi+116]

; 610  :       __status = _M_codecvt->unshift(_M_state,
; 611  :                                      _M_ext_buf, _M_ext_buf_EOS, __enext);

  00018	8b 56 78	 mov	 edx, DWORD PTR [esi+120]
  0001b	8b 8e a0 00 00
	00		 mov	 ecx, DWORD PTR [esi+160]
  00021	8d 5d fc	 lea	 ebx, DWORD PTR ___enext$102127[ebp]
  00024	53		 push	 ebx
  00025	52		 push	 edx
  00026	89 45 fc	 mov	 DWORD PTR ___enext$102127[ebp], eax
  00029	8b 39		 mov	 edi, DWORD PTR [ecx]
  0002b	50		 push	 eax
  0002c	8d 86 84 00 00
	00		 lea	 eax, DWORD PTR [esi+132]
  00032	50		 push	 eax
  00033	ff 57 0c	 call	 DWORD PTR [edi+12]
  00036	8b f8		 mov	 edi, eax

; 612  :       if (__status == _Codecvt::noconv ||
; 613  :           (__enext == _M_ext_buf && __status == _Codecvt::ok))

  00038	83 ff 03	 cmp	 edi, 3
  0003b	74 29		 je	 SHORT $L102126
  0003d	8b 45 fc	 mov	 eax, DWORD PTR ___enext$102127[ebp]
  00040	3b 46 74	 cmp	 eax, DWORD PTR [esi+116]
  00043	75 04		 jne	 SHORT $L102128
  00045	85 ff		 test	 edi, edi
  00047	74 1d		 je	 SHORT $L102126
$L102128:

; 614  :         return true;
; 615  :       else if (__status == _Codecvt::error)

  00049	83 ff 02	 cmp	 edi, 2
  0004c	74 1f		 je	 SHORT $L103736

; 616  :         return false;
; 617  :       else if (!_M_write(_M_ext_buf, __enext - _M_ext_buf))

  0004e	8b 4e 74	 mov	 ecx, DWORD PTR [esi+116]
  00051	2b c1		 sub	 eax, ecx
  00053	50		 push	 eax
  00054	51		 push	 ecx
  00055	8d 4e 54	 lea	 ecx, DWORD PTR [esi+84]
  00058	e8 00 00 00 00	 call	 ?_M_write@_Filebuf_base@_STL@@QAE_NPADH@Z ; _STL::_Filebuf_base::_M_write
  0005d	84 c0		 test	 al, al
  0005f	74 0c		 je	 SHORT $L103736

; 619  :     } while(__status == _Codecvt::partial);

  00061	83 ff 01	 cmp	 edi, 1
  00064	74 af		 je	 SHORT $L102124
$L102126:

; 620  :   }
; 621  : 
; 622  :   return true;

  00066	b0 01		 mov	 al, 1
$L102121:
  00068	5f		 pop	 edi
  00069	5e		 pop	 esi
  0006a	5b		 pop	 ebx

; 623  : }

  0006b	c9		 leave
  0006c	c3		 ret	 0
$L103736:

; 618  :         return false;

  0006d	32 c0		 xor	 al, al
  0006f	eb f7		 jmp	 SHORT $L102121
?_M_unshift@?$basic_filebuf@DV?$char_traits@D@_STL@@@_STL@@AAE_NXZ ENDP ; _STL::basic_filebuf<char,_STL::char_traits<char> >::_M_unshift
_TEXT	ENDS
PUBLIC	??$__destroy@PAPAVAPPEND_PATCH_NODE@@PAV1@@_STL@@YAXPAPAVAPPEND_PATCH_NODE@@00@Z ; _STL::__destroy<APPEND_PATCH_NODE * *,APPEND_PATCH_NODE *>
; Function compile flags: /Ogsy
; File c:\stlport-4.6.1\stlport\stl\_construct.h
;	COMDAT ??$__destroy@PAPAVAPPEND_PATCH_NODE@@PAV1@@_STL@@YAXPAPAVAPPEND_PATCH_NODE@@00@Z
_TEXT	SEGMENT
___first$ = 8						; size = 4
___last$ = 12						; size = 4
___formal$ = 16						; size = 4
??$__destroy@PAPAVAPPEND_PATCH_NODE@@PAV1@@_STL@@YAXPAPAVAPPEND_PATCH_NODE@@00@Z PROC NEAR ; _STL::__destroy<APPEND_PATCH_NODE * *,APPEND_PATCH_NODE *>, COMDAT

; 133  :   typedef typename __type_traits<_Tp>::has_trivial_destructor _Trivial_destructor;
; 134  :   __destroy_aux(__first, __last, _Trivial_destructor());
; 135  : }

  00000	c3		 ret	 0
??$__destroy@PAPAVAPPEND_PATCH_NODE@@PAV1@@_STL@@YAXPAPAVAPPEND_PATCH_NODE@@00@Z ENDP ; _STL::__destroy<APPEND_PATCH_NODE * *,APPEND_PATCH_NODE *>
_TEXT	ENDS
PUBLIC	?_S_eof@?$basic_ios@DV?$char_traits@D@_STL@@@_STL@@SA_NH@Z ; _STL::basic_ios<char,_STL::char_traits<char> >::_S_eof
; Function compile flags: /Ogsy
; File c:\stlport-4.6.1\stlport\stl\_ios.h
;	COMDAT ?_S_eof@?$basic_ios@DV?$char_traits@D@_STL@@@_STL@@SA_NH@Z
_TEXT	SEGMENT
___c$ = 8						; size = 4
?_S_eof@?$basic_ios@DV?$char_traits@D@_STL@@@_STL@@SA_NH@Z PROC NEAR ; _STL::basic_ios<char,_STL::char_traits<char> >::_S_eof, COMDAT

; 110  :     const int_type __eof = _Traits::eof();
; 111  :     return _Traits::eq_int_type(__c, __eof);

  00000	33 c0		 xor	 eax, eax
  00002	83 7c 24 04 ff	 cmp	 DWORD PTR ___c$[esp-4], -1
  00007	0f 94 c0	 sete	 al

; 112  :   }

  0000a	c3		 ret	 0
?_S_eof@?$basic_ios@DV?$char_traits@D@_STL@@@_STL@@SA_NH@Z ENDP ; _STL::basic_ios<char,_STL::char_traits<char> >::_S_eof
_TEXT	ENDS
PUBLIC	??$distance@PAD@_STL@@YAHABQAD0@Z		; _STL::distance<char *>
; Function compile flags: /Ogsy
; File c:\stlport-4.6.1\stlport\stl\_iterator_base.h
;	COMDAT ??$distance@PAD@_STL@@YAHABQAD0@Z
_TEXT	SEGMENT
___first$ = 8						; size = 4
___last$ = 12						; size = 4
??$distance@PAD@_STL@@YAHABQAD0@Z PROC NEAR		; _STL::distance<char *>, COMDAT

; 369  :   return __distance(__first, __last, _STLP_ITERATOR_CATEGORY(__first, _InputIterator));  

  00000	8b 44 24 08	 mov	 eax, DWORD PTR ___last$[esp-4]
  00004	8b 00		 mov	 eax, DWORD PTR [eax]
  00006	8b 4c 24 04	 mov	 ecx, DWORD PTR ___first$[esp-4]
  0000a	2b 01		 sub	 eax, DWORD PTR [ecx]

; 370  : }

  0000c	c3		 ret	 0
??$distance@PAD@_STL@@YAHABQAD0@Z ENDP			; _STL::distance<char *>
_TEXT	ENDS
PUBLIC	?_M_construct_null@?$basic_string@DV?$char_traits@D@_STL@@V?$allocator@D@2@@_STL@@AAEXPAD@Z ; _STL::basic_string<char,_STL::char_traits<char>,_STL::allocator<char> >::_M_construct_null
; Function compile flags: /Ogsy
; File c:\stlport-4.6.1\stlport\stl\_string.h
;	COMDAT ?_M_construct_null@?$basic_string@DV?$char_traits@D@_STL@@V?$allocator@D@2@@_STL@@AAEXPAD@Z
_TEXT	SEGMENT
___p$ = 8						; size = 4
?_M_construct_null@?$basic_string@DV?$char_traits@D@_STL@@V?$allocator@D@2@@_STL@@AAEXPAD@Z PROC NEAR ; _STL::basic_string<char,_STL::char_traits<char>,_STL::allocator<char> >::_M_construct_null, COMDAT
; _this$ = ecx

; 336  :     _M_construct_null_aux(__p, _Char_Is_Integral());

  00000	8b 44 24 04	 mov	 eax, DWORD PTR ___p$[esp-4]
  00004	c6 00 00	 mov	 BYTE PTR [eax], 0

; 337  :   }

  00007	c2 04 00	 ret	 4
?_M_construct_null@?$basic_string@DV?$char_traits@D@_STL@@V?$allocator@D@2@@_STL@@AAEXPAD@Z ENDP ; _STL::basic_string<char,_STL::char_traits<char>,_STL::allocator<char> >::_M_construct_null
_TEXT	ENDS
PUBLIC	?max_size@?$basic_string@DV?$char_traits@D@_STL@@V?$allocator@D@2@@_STL@@QBEIXZ ; _STL::basic_string<char,_STL::char_traits<char>,_STL::allocator<char> >::max_size
; Function compile flags: /Ogsy
;	COMDAT ?max_size@?$basic_string@DV?$char_traits@D@_STL@@V?$allocator@D@2@@_STL@@QBEIXZ
_TEXT	SEGMENT
?max_size@?$basic_string@DV?$char_traits@D@_STL@@V?$allocator@D@2@@_STL@@QBEIXZ PROC NEAR ; _STL::basic_string<char,_STL::char_traits<char>,_STL::allocator<char> >::max_size, COMDAT
; _this$ = ecx

; 434  :   size_t max_size() const { return _Base::max_size(); }

  00000	6a fe		 push	 -2			; fffffffeH
  00002	58		 pop	 eax
  00003	c3		 ret	 0
?max_size@?$basic_string@DV?$char_traits@D@_STL@@V?$allocator@D@2@@_STL@@QBEIXZ ENDP ; _STL::basic_string<char,_STL::char_traits<char>,_STL::allocator<char> >::max_size
_TEXT	ENDS
PUBLIC	??$__copy_aux@PADPAD@_STL@@YAPADPAD00ABU__true_type@0@@Z ; _STL::__copy_aux<char *,char *>
; Function compile flags: /Ogsy
; File c:\stlport-4.6.1\stlport\stl\_algobase.h
;	COMDAT ??$__copy_aux@PADPAD@_STL@@YAPADPAD00ABU__true_type@0@@Z
_TEXT	SEGMENT
___first$ = 8						; size = 4
___last$ = 12						; size = 4
___result$ = 16						; size = 4
___formal$ = 20						; size = 4
??$__copy_aux@PADPAD@_STL@@YAPADPAD00ABU__true_type@0@@Z PROC NEAR ; _STL::__copy_aux<char *,char *>, COMDAT

; 202  :   return __copy_ptrs(__first, __last, __result, 
; 203  :                      _IsOKToMemCpy(_STLP_VALUE_TYPE(__first, _InputIter), 
; 204  :                                    _STLP_VALUE_TYPE(__result, _OutputIter))._Ret());

  00000	ff 74 24 0c	 push	 DWORD PTR ___result$[esp-4]
  00004	ff 74 24 0c	 push	 DWORD PTR ___last$[esp]
  00008	ff 74 24 0c	 push	 DWORD PTR ___first$[esp+4]
  0000c	e8 00 00 00 00	 call	 ?__copy_trivial@_STL@@YAPAXPBX0PAX@Z ; _STL::__copy_trivial
  00011	83 c4 0c	 add	 esp, 12			; 0000000cH

; 205  : }

  00014	c3		 ret	 0
??$__copy_aux@PADPAD@_STL@@YAPADPAD00ABU__true_type@0@@Z ENDP ; _STL::__copy_aux<char *,char *>
_TEXT	ENDS
PUBLIC	??_D?$basic_istream@DV?$char_traits@D@_STL@@@_STL@@QAEXXZ ; _STL::basic_istream<char,_STL::char_traits<char> >::`vbase destructor'
; Function compile flags: /Ogsy
;	COMDAT ??_G?$basic_istream@DV?$char_traits@D@_STL@@@_STL@@UAEPAXI@Z
_TEXT	SEGMENT
___flags$ = 8						; size = 4
??_G?$basic_istream@DV?$char_traits@D@_STL@@@_STL@@UAEPAXI@Z PROC NEAR ; _STL::basic_istream<char,_STL::char_traits<char> >::`scalar deleting destructor', COMDAT
; _this$ = ecx
  00000	56		 push	 esi
  00001	8d 71 f8	 lea	 esi, DWORD PTR [ecx-8]
  00004	8b ce		 mov	 ecx, esi
  00006	e8 00 00 00 00	 call	 ??_D?$basic_istream@DV?$char_traits@D@_STL@@@_STL@@QAEXXZ
  0000b	f6 44 24 08 01	 test	 BYTE PTR ___flags$[esp], 1
  00010	74 07		 je	 SHORT $L98545
  00012	56		 push	 esi
  00013	e8 00 00 00 00	 call	 ??3@YAXPAX@Z		; operator delete
  00018	59		 pop	 ecx
$L98545:
  00019	8b c6		 mov	 eax, esi
  0001b	5e		 pop	 esi
  0001c	c2 04 00	 ret	 4
??_G?$basic_istream@DV?$char_traits@D@_STL@@@_STL@@UAEPAXI@Z ENDP ; _STL::basic_istream<char,_STL::char_traits<char> >::`scalar deleting destructor'
; Function compile flags: /Ogsy
_TEXT	ENDS
;	COMDAT ??_D?$basic_istream@DV?$char_traits@D@_STL@@@_STL@@QAEXXZ
_TEXT	SEGMENT
??_D?$basic_istream@DV?$char_traits@D@_STL@@@_STL@@QAEXXZ PROC NEAR ; _STL::basic_istream<char,_STL::char_traits<char> >::`vbase destructor', COMDAT
; _this$ = ecx
  00000	8b 01		 mov	 eax, DWORD PTR [ecx]
  00002	8b 40 04	 mov	 eax, DWORD PTR [eax+4]
  00005	83 c1 08	 add	 ecx, 8
  00008	c7 44 08 f8 00
	00 00 00	 mov	 DWORD PTR [eax+ecx-8], OFFSET FLAT:??_7?$basic_istream@DV?$char_traits@D@_STL@@@_STL@@6B@
  00010	e9 00 00 00 00	 jmp	 ??1?$basic_ios@DV?$char_traits@D@_STL@@@_STL@@UAE@XZ ; _STL::basic_ios<char,_STL::char_traits<char> >::~basic_ios<char,_STL::char_traits<char> >
??_D?$basic_istream@DV?$char_traits@D@_STL@@@_STL@@QAEXXZ ENDP ; _STL::basic_istream<char,_STL::char_traits<char> >::`vbase destructor'
_TEXT	ENDS
PUBLIC	?deallocate@?$allocator@D@_STL@@QAEXPADI@Z	; _STL::allocator<char>::deallocate
; Function compile flags: /Ogsy
; File c:\stlport-4.6.1\stlport\stl\_alloc.h
;	COMDAT ?deallocate@?$allocator@D@_STL@@QAEXPADI@Z
_TEXT	SEGMENT
___p$ = 8						; size = 4
___n$ = 12						; size = 4
?deallocate@?$allocator@D@_STL@@QAEXPADI@Z PROC NEAR	; _STL::allocator<char>::deallocate, COMDAT
; _this$ = ecx

; 359  :     _STLP_ASSERT( (__p == 0) == (__n == 0) )
; 360  :       if (__p != 0) __sgi_alloc::deallocate((void*)__p, __n * sizeof(value_type));

  00000	83 7c 24 04 00	 cmp	 DWORD PTR ___p$[esp-4], 0
  00005	74 0f		 je	 SHORT $L98663
  00007	ff 74 24 08	 push	 DWORD PTR ___n$[esp-4]
  0000b	ff 74 24 08	 push	 DWORD PTR ___p$[esp]
  0000f	e8 00 00 00 00	 call	 ?deallocate@?$__node_alloc@$00$0A@@_STL@@SAXPAXI@Z ; _STL::__node_alloc<1,0>::deallocate
  00014	59		 pop	 ecx
  00015	59		 pop	 ecx
$L98663:

; 361  :   }

  00016	c2 08 00	 ret	 8
?deallocate@?$allocator@D@_STL@@QAEXPADI@Z ENDP		; _STL::allocator<char>::deallocate
_TEXT	ENDS
PUBLIC	?setstate@?$basic_ios@DV?$char_traits@D@_STL@@@_STL@@QAEXH@Z ; _STL::basic_ios<char,_STL::char_traits<char> >::setstate
; Function compile flags: /Ogsy
; File c:\stlport-4.6.1\stlport\stl\_ios.h
;	COMDAT ?setstate@?$basic_ios@DV?$char_traits@D@_STL@@@_STL@@QAEXH@Z
_TEXT	SEGMENT
___state$ = 8						; size = 4
?setstate@?$basic_ios@DV?$char_traits@D@_STL@@@_STL@@QAEXH@Z PROC NEAR ; _STL::basic_ios<char,_STL::char_traits<char> >::setstate, COMDAT
; _this$ = ecx

; 94   :   void setstate(iostate __state) { this->clear(rdstate() | __state); }

  00000	8b 41 08	 mov	 eax, DWORD PTR [ecx+8]
  00003	0b 44 24 04	 or	 eax, DWORD PTR ___state$[esp-4]
  00007	50		 push	 eax
  00008	e8 00 00 00 00	 call	 ?clear@?$basic_ios@DV?$char_traits@D@_STL@@@_STL@@QAEXH@Z ; _STL::basic_ios<char,_STL::char_traits<char> >::clear
  0000d	c2 04 00	 ret	 4
?setstate@?$basic_ios@DV?$char_traits@D@_STL@@@_STL@@QAEXH@Z ENDP ; _STL::basic_ios<char,_STL::char_traits<char> >::setstate
_TEXT	ENDS
PUBLIC	??1?$_Vector_base@PAVAPPEND_PATCH_NODE@@V?$allocator@PAVAPPEND_PATCH_NODE@@@_STL@@@_STL@@QAE@XZ ; _STL::_Vector_base<APPEND_PATCH_NODE *,_STL::allocator<APPEND_PATCH_NODE *> >::~_Vector_base<APPEND_PATCH_NODE *,_STL::allocator<APPEND_PATCH_NODE *> >
; Function compile flags: /Ogsy
; File c:\stlport-4.6.1\stlport\stl\_vector.h
;	COMDAT ??1?$_Vector_base@PAVAPPEND_PATCH_NODE@@V?$allocator@PAVAPPEND_PATCH_NODE@@@_STL@@@_STL@@QAE@XZ
_TEXT	SEGMENT
??1?$_Vector_base@PAVAPPEND_PATCH_NODE@@V?$allocator@PAVAPPEND_PATCH_NODE@@@_STL@@@_STL@@QAE@XZ PROC NEAR ; _STL::_Vector_base<APPEND_PATCH_NODE *,_STL::allocator<APPEND_PATCH_NODE *> >::~_Vector_base<APPEND_PATCH_NODE *,_STL::allocator<APPEND_PATCH_NODE *> >, COMDAT
; _this$ = ecx

; 84   :     if (_M_start !=0) 

  00000	8b 01		 mov	 eax, DWORD PTR [ecx]
  00002	85 c0		 test	 eax, eax
  00004	74 11		 je	 SHORT $L101546

; 85   :     _M_end_of_storage.deallocate(_M_start, _M_end_of_storage._M_data - _M_start); 

  00006	83 c1 08	 add	 ecx, 8
  00009	8b 11		 mov	 edx, DWORD PTR [ecx]
  0000b	2b d0		 sub	 edx, eax
  0000d	c1 fa 02	 sar	 edx, 2
  00010	52		 push	 edx
  00011	50		 push	 eax
  00012	e8 00 00 00 00	 call	 ?deallocate@?$allocator@PAVAPPEND_PATCH_NODE@@@_STL@@QAEXPAPAVAPPEND_PATCH_NODE@@I@Z ; _STL::allocator<APPEND_PATCH_NODE *>::deallocate
$L101546:

; 86   :   }

  00017	c3		 ret	 0
??1?$_Vector_base@PAVAPPEND_PATCH_NODE@@V?$allocator@PAVAPPEND_PATCH_NODE@@@_STL@@@_STL@@QAE@XZ ENDP ; _STL::_Vector_base<APPEND_PATCH_NODE *,_STL::allocator<APPEND_PATCH_NODE *> >::~_Vector_base<APPEND_PATCH_NODE *,_STL::allocator<APPEND_PATCH_NODE *> >
_TEXT	ENDS
PUBLIC	??0?$basic_filebuf@DV?$char_traits@D@_STL@@@_STL@@QAE@XZ ; _STL::basic_filebuf<char,_STL::char_traits<char> >::basic_filebuf<char,_STL::char_traits<char> >
PUBLIC	?showmanyc@?$basic_filebuf@DV?$char_traits@D@_STL@@@_STL@@MAEHXZ ; _STL::basic_filebuf<char,_STL::char_traits<char> >::showmanyc
PUBLIC	?underflow@?$basic_filebuf@DV?$char_traits@D@_STL@@@_STL@@MAEHXZ ; _STL::basic_filebuf<char,_STL::char_traits<char> >::underflow
PUBLIC	?pbackfail@?$basic_filebuf@DV?$char_traits@D@_STL@@@_STL@@MAEHH@Z ; _STL::basic_filebuf<char,_STL::char_traits<char> >::pbackfail
PUBLIC	?overflow@?$basic_filebuf@DV?$char_traits@D@_STL@@@_STL@@MAEHH@Z ; _STL::basic_filebuf<char,_STL::char_traits<char> >::overflow
PUBLIC	?setbuf@?$basic_filebuf@DV?$char_traits@D@_STL@@@_STL@@MAEPAV?$basic_streambuf@DV?$char_traits@D@_STL@@@2@PADH@Z ; _STL::basic_filebuf<char,_STL::char_traits<char> >::setbuf
PUBLIC	?seekoff@?$basic_filebuf@DV?$char_traits@D@_STL@@@_STL@@MAE?AV?$fpos@H@2@JHH@Z ; _STL::basic_filebuf<char,_STL::char_traits<char> >::seekoff
PUBLIC	?seekpos@?$basic_filebuf@DV?$char_traits@D@_STL@@@_STL@@MAE?AV?$fpos@H@2@V32@H@Z ; _STL::basic_filebuf<char,_STL::char_traits<char> >::seekpos
PUBLIC	?sync@?$basic_filebuf@DV?$char_traits@D@_STL@@@_STL@@MAEHXZ ; _STL::basic_filebuf<char,_STL::char_traits<char> >::sync
PUBLIC	?imbue@?$basic_filebuf@DV?$char_traits@D@_STL@@@_STL@@MAEXABVlocale@2@@Z ; _STL::basic_filebuf<char,_STL::char_traits<char> >::imbue
PUBLIC	??_7?$basic_filebuf@DV?$char_traits@D@_STL@@@_STL@@6B@ ; _STL::basic_filebuf<char,_STL::char_traits<char> >::`vftable'
PUBLIC	??_G?$basic_filebuf@DV?$char_traits@D@_STL@@@_STL@@UAEPAXI@Z ; _STL::basic_filebuf<char,_STL::char_traits<char> >::`scalar deleting destructor'
PUBLIC	??_R4?$basic_filebuf@DV?$char_traits@D@_STL@@@_STL@@6B@ ; _STL::basic_filebuf<char,_STL::char_traits<char> >::`RTTI Complete Object Locator'
PUBLIC	??_R0?AV?$basic_filebuf@DV?$char_traits@D@_STL@@@_STL@@@8 ; _STL::basic_filebuf<char,_STL::char_traits<char> > `RTTI Type Descriptor'
PUBLIC	??_R3?$basic_filebuf@DV?$char_traits@D@_STL@@@_STL@@8 ; _STL::basic_filebuf<char,_STL::char_traits<char> >::`RTTI Class Hierarchy Descriptor'
PUBLIC	??_R2?$basic_filebuf@DV?$char_traits@D@_STL@@@_STL@@8 ; _STL::basic_filebuf<char,_STL::char_traits<char> >::`RTTI Base Class Array'
PUBLIC	??_R1A@?0A@A@?$basic_filebuf@DV?$char_traits@D@_STL@@@_STL@@8 ; _STL::basic_filebuf<char,_STL::char_traits<char> >::`RTTI Base Class Descriptor at (0,-1,0,0)'
EXTRN	??0_Filebuf_base@_STL@@QAE@XZ:NEAR		; _STL::_Filebuf_base::_Filebuf_base
EXTRN	??1locale@_STL@@QAE@XZ:NEAR			; _STL::locale::~locale
EXTRN	__EH_prolog:NEAR
EXTRN	__except_list:DWORD
EXTRN	___CxxFrameHandler:NEAR
EXTRN	??_E?$basic_filebuf@DV?$char_traits@D@_STL@@@_STL@@UAEPAXI@Z:NEAR ; _STL::basic_filebuf<char,_STL::char_traits<char> >::`vector deleting destructor'
;	COMDAT xdata$x
; File c:\stlport-4.6.1\stlport\stl\_fstream.c
xdata$x	SEGMENT
$T103831 DD	0ffffffffH
	DD	FLAT:$L103822
	DD	00H
	DD	FLAT:$L103823
$T103827 DD	019930520H
	DD	02H
	DD	FLAT:$T103831
	DD	2 DUP(00H)
	DD	2 DUP(00H)
xdata$x	ENDS
;	COMDAT ??_7?$basic_filebuf@DV?$char_traits@D@_STL@@@_STL@@6B@
CONST	SEGMENT
??_7?$basic_filebuf@DV?$char_traits@D@_STL@@@_STL@@6B@ DD FLAT:??_R4?$basic_filebuf@DV?$char_traits@D@_STL@@@_STL@@6B@ ; _STL::basic_filebuf<char,_STL::char_traits<char> >::`vftable'
	DD	FLAT:??_E?$basic_filebuf@DV?$char_traits@D@_STL@@@_STL@@UAEPAXI@Z
	DD	FLAT:?setbuf@?$basic_filebuf@DV?$char_traits@D@_STL@@@_STL@@MAEPAV?$basic_streambuf@DV?$char_traits@D@_STL@@@2@PADH@Z
	DD	FLAT:?seekoff@?$basic_filebuf@DV?$char_traits@D@_STL@@@_STL@@MAE?AV?$fpos@H@2@JHH@Z
	DD	FLAT:?seekpos@?$basic_filebuf@DV?$char_traits@D@_STL@@@_STL@@MAE?AV?$fpos@H@2@V32@H@Z
	DD	FLAT:?sync@?$basic_filebuf@DV?$char_traits@D@_STL@@@_STL@@MAEHXZ
	DD	FLAT:?showmanyc@?$basic_filebuf@DV?$char_traits@D@_STL@@@_STL@@MAEHXZ
	DD	FLAT:?xsgetn@?$basic_streambuf@DV?$char_traits@D@_STL@@@_STL@@MAEHPADH@Z
	DD	FLAT:?underflow@?$basic_filebuf@DV?$char_traits@D@_STL@@@_STL@@MAEHXZ
	DD	FLAT:?uflow@?$basic_streambuf@DV?$char_traits@D@_STL@@@_STL@@MAEHXZ
	DD	FLAT:?pbackfail@?$basic_filebuf@DV?$char_traits@D@_STL@@@_STL@@MAEHH@Z
	DD	FLAT:?xsputn@?$basic_streambuf@DV?$char_traits@D@_STL@@@_STL@@MAEHPBDH@Z
	DD	FLAT:?_M_xsputnc@?$basic_streambuf@DV?$char_traits@D@_STL@@@_STL@@MAEHDH@Z
	DD	FLAT:?overflow@?$basic_filebuf@DV?$char_traits@D@_STL@@@_STL@@MAEHH@Z
	DD	FLAT:?imbue@?$basic_filebuf@DV?$char_traits@D@_STL@@@_STL@@MAEXABVlocale@2@@Z
CONST	ENDS
;	COMDAT ??_R4?$basic_filebuf@DV?$char_traits@D@_STL@@@_STL@@6B@
rdata$r	SEGMENT
??_R4?$basic_filebuf@DV?$char_traits@D@_STL@@@_STL@@6B@ DD 00H ; _STL::basic_filebuf<char,_STL::char_traits<char> >::`RTTI Complete Object Locator'
	DD	00H
	DD	00H
	DD	FLAT:??_R0?AV?$basic_filebuf@DV?$char_traits@D@_STL@@@_STL@@@8
	DD	FLAT:??_R3?$basic_filebuf@DV?$char_traits@D@_STL@@@_STL@@8
rdata$r	ENDS
;	COMDAT ??_R0?AV?$basic_filebuf@DV?$char_traits@D@_STL@@@_STL@@@8
_DATA	SEGMENT
??_R0?AV?$basic_filebuf@DV?$char_traits@D@_STL@@@_STL@@@8 DD FLAT:??_7type_info@@6B@ ; _STL::basic_filebuf<char,_STL::char_traits<char> > `RTTI Type Descriptor'
	DD	00H
	DB	'.?AV?$basic_filebuf@DV?$char_traits@D@_STL@@@_STL@@', 00H
_DATA	ENDS
;	COMDAT ??_R3?$basic_filebuf@DV?$char_traits@D@_STL@@@_STL@@8
rdata$r	SEGMENT
??_R3?$basic_filebuf@DV?$char_traits@D@_STL@@@_STL@@8 DD 00H ; _STL::basic_filebuf<char,_STL::char_traits<char> >::`RTTI Class Hierarchy Descriptor'
	DD	00H
	DD	02H
	DD	FLAT:??_R2?$basic_filebuf@DV?$char_traits@D@_STL@@@_STL@@8
rdata$r	ENDS
;	COMDAT ??_R2?$basic_filebuf@DV?$char_traits@D@_STL@@@_STL@@8
rdata$r	SEGMENT
??_R2?$basic_filebuf@DV?$char_traits@D@_STL@@@_STL@@8 DD FLAT:??_R1A@?0A@A@?$basic_filebuf@DV?$char_traits@D@_STL@@@_STL@@8 ; _STL::basic_filebuf<char,_STL::char_traits<char> >::`RTTI Base Class Array'
	DD	FLAT:??_R1A@?0A@A@?$basic_streambuf@DV?$char_traits@D@_STL@@@_STL@@8
rdata$r	ENDS
;	COMDAT ??_R1A@?0A@A@?$basic_filebuf@DV?$char_traits@D@_STL@@@_STL@@8
rdata$r	SEGMENT
??_R1A@?0A@A@?$basic_filebuf@DV?$char_traits@D@_STL@@@_STL@@8 DD FLAT:??_R0?AV?$basic_filebuf@DV?$char_traits@D@_STL@@@_STL@@@8 ; _STL::basic_filebuf<char,_STL::char_traits<char> >::`RTTI Base Class Descriptor at (0,-1,0,0)'
	DD	01H
	DD	00H
	DD	0ffffffffH
	DD	00H
	DD	00H
; Function compile flags: /Ogsy
rdata$r	ENDS
;	COMDAT ??0?$basic_filebuf@DV?$char_traits@D@_STL@@@_STL@@QAE@XZ
_TEXT	SEGMENT
_this$ = -20						; size = 4
$T103821 = -16						; size = 4
__$EHRec$ = -12						; size = 12
??0?$basic_filebuf@DV?$char_traits@D@_STL@@@_STL@@QAE@XZ PROC NEAR ; _STL::basic_filebuf<char,_STL::char_traits<char> >::basic_filebuf<char,_STL::char_traits<char> >, COMDAT
; _this$ = ecx

; 60   : {

  00000	b8 00 00 00 00	 mov	 eax, __ehhandler$??0?$basic_filebuf@DV?$char_traits@D@_STL@@@_STL@@QAE@XZ
  00005	e8 00 00 00 00	 call	 __EH_prolog
  0000a	51		 push	 ecx
  0000b	51		 push	 ecx
  0000c	53		 push	 ebx
  0000d	56		 push	 esi
  0000e	8b f1		 mov	 esi, ecx
  00010	89 75 ec	 mov	 DWORD PTR _this$[ebp], esi
  00013	e8 00 00 00 00	 call	 ??0?$basic_streambuf@DV?$char_traits@D@_STL@@@_STL@@IAE@XZ ; _STL::basic_streambuf<char,_STL::char_traits<char> >::basic_streambuf<char,_STL::char_traits<char> >
  00018	33 db		 xor	 ebx, ebx
  0001a	8d 4e 54	 lea	 ecx, DWORD PTR [esi+84]
  0001d	89 5d fc	 mov	 DWORD PTR __$EHRec$[ebp+8], ebx
  00020	c7 06 00 00 00
	00		 mov	 DWORD PTR [esi], OFFSET FLAT:??_7?$basic_filebuf@DV?$char_traits@D@_STL@@@_STL@@6B@
  00026	e8 00 00 00 00	 call	 ??0_Filebuf_base@_STL@@QAE@XZ ; _STL::_Filebuf_base::_Filebuf_base
  0002b	33 c0		 xor	 eax, eax
  0002d	40		 inc	 eax

; 61   :   this->_M_setup_codecvt(locale());

  0002e	8d 4d f0	 lea	 ecx, DWORD PTR $T103821[ebp]
  00031	88 5e 64	 mov	 BYTE PTR [esi+100], bl
  00034	88 5e 65	 mov	 BYTE PTR [esi+101], bl
  00037	88 5e 66	 mov	 BYTE PTR [esi+102], bl
  0003a	88 5e 67	 mov	 BYTE PTR [esi+103], bl
  0003d	88 5e 68	 mov	 BYTE PTR [esi+104], bl
  00040	88 5e 69	 mov	 BYTE PTR [esi+105], bl
  00043	88 5e 6a	 mov	 BYTE PTR [esi+106], bl
  00046	89 5e 6c	 mov	 DWORD PTR [esi+108], ebx
  00049	89 5e 70	 mov	 DWORD PTR [esi+112], ebx
  0004c	89 5e 74	 mov	 DWORD PTR [esi+116], ebx
  0004f	89 5e 78	 mov	 DWORD PTR [esi+120], ebx
  00052	89 5e 7c	 mov	 DWORD PTR [esi+124], ebx
  00055	89 9e 80 00 00
	00		 mov	 DWORD PTR [esi+128], ebx
  0005b	89 9e 84 00 00
	00		 mov	 DWORD PTR [esi+132], ebx
  00061	89 9e 88 00 00
	00		 mov	 DWORD PTR [esi+136], ebx
  00067	89 9e 8c 00 00
	00		 mov	 DWORD PTR [esi+140], ebx
  0006d	89 9e 90 00 00
	00		 mov	 DWORD PTR [esi+144], ebx
  00073	89 9e 94 00 00
	00		 mov	 DWORD PTR [esi+148], ebx
  00079	89 9e 98 00 00
	00		 mov	 DWORD PTR [esi+152], ebx
  0007f	89 9e 9c 00 00
	00		 mov	 DWORD PTR [esi+156], ebx
  00085	89 9e a0 00 00
	00		 mov	 DWORD PTR [esi+160], ebx
  0008b	89 86 a4 00 00
	00		 mov	 DWORD PTR [esi+164], eax
  00091	89 86 a8 00 00
	00		 mov	 DWORD PTR [esi+168], eax
  00097	e8 00 00 00 00	 call	 ??0locale@_STL@@QAE@XZ	; _STL::locale::locale
  0009c	50		 push	 eax
  0009d	8b ce		 mov	 ecx, esi
  0009f	c6 45 fc 01	 mov	 BYTE PTR __$EHRec$[ebp+8], 1
  000a3	e8 00 00 00 00	 call	 ?_M_setup_codecvt@?$basic_filebuf@DV?$char_traits@D@_STL@@@_STL@@AAEXABVlocale@2@@Z ; _STL::basic_filebuf<char,_STL::char_traits<char> >::_M_setup_codecvt
  000a8	8d 4d f0	 lea	 ecx, DWORD PTR $T103821[ebp]
  000ab	88 5d fc	 mov	 BYTE PTR __$EHRec$[ebp+8], bl
  000ae	e8 00 00 00 00	 call	 ??1locale@_STL@@QAE@XZ	; _STL::locale::~locale

; 62   : }

  000b3	8b 4d f4	 mov	 ecx, DWORD PTR __$EHRec$[ebp]
  000b6	8b c6		 mov	 eax, esi
  000b8	5e		 pop	 esi
  000b9	5b		 pop	 ebx
  000ba	64 89 0d 00 00
	00 00		 mov	 DWORD PTR fs:__except_list, ecx
  000c1	c9		 leave
  000c2	c3		 ret	 0
_TEXT	ENDS
;	COMDAT text$x
text$x	SEGMENT
$L103822:
  00000	8b 4d ec	 mov	 ecx, DWORD PTR _this$[ebp]
  00003	e9 00 00 00 00	 jmp	 ??1?$basic_streambuf@DV?$char_traits@D@_STL@@@_STL@@UAE@XZ ; _STL::basic_streambuf<char,_STL::char_traits<char> >::~basic_streambuf<char,_STL::char_traits<char> >
$L103823:
  00008	8d 4d f0	 lea	 ecx, DWORD PTR $T103821[ebp]
  0000b	e9 00 00 00 00	 jmp	 ??1locale@_STL@@QAE@XZ	; _STL::locale::~locale
__ehhandler$??0?$basic_filebuf@DV?$char_traits@D@_STL@@@_STL@@QAE@XZ:
  00010	b8 00 00 00 00	 mov	 eax, OFFSET FLAT:$T103827
  00015	e9 00 00 00 00	 jmp	 ___CxxFrameHandler
text$x	ENDS
??0?$basic_filebuf@DV?$char_traits@D@_STL@@@_STL@@QAE@XZ ENDP ; _STL::basic_filebuf<char,_STL::char_traits<char> >::basic_filebuf<char,_STL::char_traits<char> >
EXTRN	?_M_doit@?$_Underflow@DV?$char_traits@D@_STL@@@_STL@@SAHPAV?$basic_filebuf@DV?$char_traits@D@_STL@@@2@@Z:NEAR ; _STL::_Underflow<char,_STL::char_traits<char> >::_M_doit
; Function compile flags: /Ogsy
;	COMDAT ?underflow@?$basic_filebuf@DV?$char_traits@D@_STL@@@_STL@@MAEHXZ
_TEXT	SEGMENT
?underflow@?$basic_filebuf@DV?$char_traits@D@_STL@@@_STL@@MAEHXZ PROC NEAR ; _STL::basic_filebuf<char,_STL::char_traits<char> >::underflow, COMDAT
; _this$ = ecx

; 75   :   return _Underflow<_CharT, _Traits>::_M_doit(this);

  00000	51		 push	 ecx
  00001	e8 00 00 00 00	 call	 ?_M_doit@?$_Underflow@DV?$char_traits@D@_STL@@@_STL@@SAHPAV?$basic_filebuf@DV?$char_traits@D@_STL@@@2@@Z ; _STL::_Underflow<char,_STL::char_traits<char> >::_M_doit
  00006	59		 pop	 ecx

; 76   : }

  00007	c3		 ret	 0
?underflow@?$basic_filebuf@DV?$char_traits@D@_STL@@@_STL@@MAEHXZ ENDP ; _STL::basic_filebuf<char,_STL::char_traits<char> >::underflow
; Function compile flags: /Ogsy
_TEXT	ENDS
;	COMDAT ?pbackfail@?$basic_filebuf@DV?$char_traits@D@_STL@@@_STL@@MAEHH@Z
_TEXT	SEGMENT
___c$ = 8						; size = 4
?pbackfail@?$basic_filebuf@DV?$char_traits@D@_STL@@@_STL@@MAEHH@Z PROC NEAR ; _STL::basic_filebuf<char,_STL::char_traits<char> >::pbackfail, COMDAT
; _this$ = ecx

; 162  :   const int_type __eof = traits_type::eof();
; 163  : 
; 164  :   // If we aren't already in input mode, pushback is impossible.
; 165  :   if (!_M_in_input_mode)
; 166  :     return __eof;

  00000	83 c8 ff	 or	 eax, -1
  00003	80 79 67 00	 cmp	 BYTE PTR [ecx+103], 0
  00007	0f 84 b0 00 00
	00		 je	 $L98761

; 167  : 
; 168  :   // We can use the ordinary get buffer if there's enough space, and
; 169  :   // if it's a buffer that we're allowed to write to.
; 170  :   if (this->gptr() != this->eback() &&
; 171  :       (traits_type::eq_int_type(__c, __eof) ||
; 172  :        traits_type::eq(traits_type::to_char_type(__c), this->gptr()[-1]) ||
; 173  :        !_M_mmap_base)) {

  0000d	8b 51 04	 mov	 edx, DWORD PTR [ecx+4]
  00010	53		 push	 ebx
  00011	8b 5c 24 08	 mov	 ebx, DWORD PTR ___c$[esp]
  00015	56		 push	 esi
  00016	8b 32		 mov	 esi, DWORD PTR [edx]
  00018	57		 push	 edi
  00019	8b 7a 08	 mov	 edi, DWORD PTR [edx+8]
  0001c	3b f7		 cmp	 esi, edi
  0001e	74 2e		 je	 SHORT $L98765
  00020	3b d8		 cmp	 ebx, eax
  00022	74 0e		 je	 SHORT $L98766
  00024	3a 5e ff	 cmp	 bl, BYTE PTR [esi-1]
  00027	74 09		 je	 SHORT $L98766
  00029	83 b9 8c 00 00
	00 00		 cmp	 DWORD PTR [ecx+140], 0
  00030	75 1c		 jne	 SHORT $L98765
$L98766:

; 174  :     this->gbump(-1);

  00032	ff 0a		 dec	 DWORD PTR [edx]
  00034	ff 42 04	 inc	 DWORD PTR [edx+4]

; 175  :     if (traits_type::eq_int_type(__c, __eof) ||
; 176  :         traits_type::eq(traits_type::to_char_type(__c), *this->gptr()))

  00037	3b d8		 cmp	 ebx, eax
  00039	74 09		 je	 SHORT $L98769
  0003b	8b 41 04	 mov	 eax, DWORD PTR [ecx+4]
  0003e	8b 00		 mov	 eax, DWORD PTR [eax]
  00040	3a 18		 cmp	 bl, BYTE PTR [eax]
  00042	75 6d		 jne	 SHORT $L98777
$L98769:

; 177  :       return traits_type::to_int_type(*this->gptr());

  00044	8b 41 04	 mov	 eax, DWORD PTR [ecx+4]
  00047	8b 00		 mov	 eax, DWORD PTR [eax]
  00049	0f b6 00	 movzx	 eax, BYTE PTR [eax]
  0004c	eb 6c		 jmp	 SHORT $L104016
$L98765:

; 178  :   }
; 179  :   else if (!traits_type::eq_int_type(__c, __eof)) {

  0004e	3b d8		 cmp	 ebx, eax
  00050	74 68		 je	 SHORT $L104016

; 180  :     // Are we in the putback buffer already?
; 181  :     _CharT* __pback_end = _M_pback_buf + __STATIC_CAST(int,_S_pback_buf_size);
; 182  :     if (_M_in_putback_mode) {

  00052	80 79 6a 00	 cmp	 BYTE PTR [ecx+106], 0
  00056	8d b1 b4 00 00
	00		 lea	 esi, DWORD PTR [ecx+180]
  0005c	74 29		 je	 SHORT $L98774

; 183  :       // Do we have more room in the putback buffer?
; 184  :       if (this->eback() != _M_pback_buf) 

  0005e	8d 99 ac 00 00
	00		 lea	 ebx, DWORD PTR [ecx+172]
  00064	3b fb		 cmp	 edi, ebx
  00066	74 52		 je	 SHORT $L104016

; 185  :         this->setg(this->egptr() - 1, this->egptr() - 1, __pback_end);

  00068	8b 42 04	 mov	 eax, DWORD PTR [edx+4]
  0006b	8b 3a		 mov	 edi, DWORD PTR [edx]
  0006d	8b 1a		 mov	 ebx, DWORD PTR [edx]
  0006f	8d 7c 38 ff	 lea	 edi, DWORD PTR [eax+edi-1]
  00073	8d 44 18 ff	 lea	 eax, DWORD PTR [eax+ebx-1]

; 186  :       else
; 187  :         return __eof;           // No more room in the buffer, so fail.
; 188  :     }
; 189  :     else {                      // We're not yet in the putback buffer.

  00077	8b 5c 24 10	 mov	 ebx, DWORD PTR ___c$[esp+8]
  0007b	2b f7		 sub	 esi, edi
  0007d	89 42 08	 mov	 DWORD PTR [edx+8], eax
  00080	89 3a		 mov	 DWORD PTR [edx], edi
  00082	89 72 04	 mov	 DWORD PTR [edx+4], esi
  00085	eb 2a		 jmp	 SHORT $L98777
$L98774:

; 190  :       _M_saved_eback = this->eback();

  00087	89 b9 94 00 00
	00		 mov	 DWORD PTR [ecx+148], edi

; 191  :       _M_saved_gptr  = this->gptr();

  0008d	8b 02		 mov	 eax, DWORD PTR [edx]
  0008f	89 81 98 00 00
	00		 mov	 DWORD PTR [ecx+152], eax

; 192  :       _M_saved_egptr = this->egptr();

  00095	8b 42 04	 mov	 eax, DWORD PTR [edx+4]
  00098	03 02		 add	 eax, DWORD PTR [edx]

; 193  :       this->setg(__pback_end - 1, __pback_end - 1, __pback_end);

  0009a	8d 7e ff	 lea	 edi, DWORD PTR [esi-1]
  0009d	89 81 9c 00 00
	00		 mov	 DWORD PTR [ecx+156], eax
  000a3	2b f7		 sub	 esi, edi
  000a5	89 7a 08	 mov	 DWORD PTR [edx+8], edi
  000a8	89 3a		 mov	 DWORD PTR [edx], edi
  000aa	89 72 04	 mov	 DWORD PTR [edx+4], esi

; 194  :       _M_in_putback_mode = true;

  000ad	c6 41 6a 01	 mov	 BYTE PTR [ecx+106], 1
$L98777:

; 195  :     }
; 196  :   }
; 197  :   else
; 198  :     return __eof;
; 199  : 
; 200  :   // We have made a putback position available.  Assign to it, and return.
; 201  :   *this->gptr() = traits_type::to_char_type(__c);

  000b1	8b 41 04	 mov	 eax, DWORD PTR [ecx+4]
  000b4	8b 00		 mov	 eax, DWORD PTR [eax]
  000b6	88 18		 mov	 BYTE PTR [eax], bl

; 202  :   return __c;

  000b8	8b c3		 mov	 eax, ebx
$L104016:
  000ba	5f		 pop	 edi
  000bb	5e		 pop	 esi
  000bc	5b		 pop	 ebx
$L98761:

; 203  : }

  000bd	c2 04 00	 ret	 4
?pbackfail@?$basic_filebuf@DV?$char_traits@D@_STL@@@_STL@@MAEHH@Z ENDP ; _STL::basic_filebuf<char,_STL::char_traits<char> >::pbackfail
; Function compile flags: /Ogsy
_TEXT	ENDS
;	COMDAT ?sync@?$basic_filebuf@DV?$char_traits@D@_STL@@@_STL@@MAEHXZ
_TEXT	SEGMENT
?sync@?$basic_filebuf@DV?$char_traits@D@_STL@@@_STL@@MAEHXZ PROC NEAR ; _STL::basic_filebuf<char,_STL::char_traits<char> >::sync, COMDAT
; _this$ = ecx

; 414  :   if (_M_in_output_mode)

  00000	80 79 68 00	 cmp	 BYTE PTR [ecx+104], 0
  00004	74 13		 je	 SHORT $L98951

; 415  :     return traits_type::eq_int_type(this->overflow(traits_type::eof()),
; 416  :                                     traits_type::eof())
; 417  :       ? -1
; 418  :       : 0;

  00006	8b 01		 mov	 eax, DWORD PTR [ecx]
  00008	6a ff		 push	 -1
  0000a	ff 50 30	 call	 DWORD PTR [eax+48]
  0000d	33 c9		 xor	 ecx, ecx
  0000f	83 f8 ff	 cmp	 eax, -1
  00012	0f 95 c1	 setne	 cl
  00015	49		 dec	 ecx
  00016	8b c1		 mov	 eax, ecx

; 421  : }

  00018	c3		 ret	 0
$L98951:

; 419  :   else
; 420  :     return 0;

  00019	33 c0		 xor	 eax, eax

; 421  : }

  0001b	c3		 ret	 0
?sync@?$basic_filebuf@DV?$char_traits@D@_STL@@@_STL@@MAEHXZ ENDP ; _STL::basic_filebuf<char,_STL::char_traits<char> >::sync
_TEXT	ENDS
EXTRN	?_M_seek@_Filebuf_base@_STL@@QAEJJH@Z:NEAR	; _STL::_Filebuf_base::_M_seek
EXTRN	?_M_file_size@_Filebuf_base@_STL@@QAEJXZ:NEAR	; _STL::_Filebuf_base::_M_file_size
; Function compile flags: /Ogsy
;	COMDAT ?showmanyc@?$basic_filebuf@DV?$char_traits@D@_STL@@@_STL@@MAEHXZ
_TEXT	SEGMENT
?showmanyc@?$basic_filebuf@DV?$char_traits@D@_STL@@@_STL@@MAEHXZ PROC NEAR ; _STL::basic_filebuf<char,_STL::char_traits<char> >::showmanyc, COMDAT
; _this$ = ecx

; 132  : {

  00000	53		 push	 ebx

; 133  :   // Is there any possibility that reads can succeed?
; 134  :   if (!this->is_open() || _M_in_output_mode || _M_in_error_mode)

  00001	33 db		 xor	 ebx, ebx
  00003	38 59 60	 cmp	 BYTE PTR [ecx+96], bl
  00006	74 4a		 je	 SHORT $L98743
  00008	38 59 68	 cmp	 BYTE PTR [ecx+104], bl
  0000b	75 45		 jne	 SHORT $L98743
  0000d	38 59 69	 cmp	 BYTE PTR [ecx+105], bl
  00010	75 40		 jne	 SHORT $L98743

; 136  : 
; 137  :   else if (_M_in_putback_mode)

  00012	38 59 6a	 cmp	 BYTE PTR [ecx+106], bl
  00015	74 08		 je	 SHORT $L98745

; 138  :     return this->egptr() - this->gptr();

  00017	8b 49 04	 mov	 ecx, DWORD PTR [ecx+4]
  0001a	8b 41 04	 mov	 eax, DWORD PTR [ecx+4]
  0001d	5b		 pop	 ebx

; 148  : }

  0001e	c3		 ret	 0
$L98745:

; 139  : 
; 140  :   else if (_M_constant_width) {

  0001f	38 59 64	 cmp	 BYTE PTR [ecx+100], bl
  00022	74 2a		 je	 SHORT $L98747
  00024	56		 push	 esi
  00025	57		 push	 edi

; 141  :     streamoff __pos  = _M_base._M_seek(0, ios_base::cur);

  00026	8d 71 54	 lea	 esi, DWORD PTR [ecx+84]
  00029	6a 02		 push	 2
  0002b	53		 push	 ebx
  0002c	8b ce		 mov	 ecx, esi
  0002e	e8 00 00 00 00	 call	 ?_M_seek@_Filebuf_base@_STL@@QAEJJH@Z ; _STL::_Filebuf_base::_M_seek

; 142  :     streamoff __size = _M_base._M_file_size();

  00033	8b ce		 mov	 ecx, esi
  00035	8b f8		 mov	 edi, eax
  00037	e8 00 00 00 00	 call	 ?_M_file_size@_Filebuf_base@_STL@@QAEJXZ ; _STL::_Filebuf_base::_M_file_size

; 143  :     return __pos >= 0 && __size > __pos ? __size - __pos : 0;

  0003c	3b fb		 cmp	 edi, ebx
  0003e	7c 08		 jl	 SHORT $L104036
  00040	3b c7		 cmp	 eax, edi
  00042	7e 04		 jle	 SHORT $L104036
  00044	2b c7		 sub	 eax, edi
  00046	eb 02		 jmp	 SHORT $L104037
$L104036:
  00048	33 c0		 xor	 eax, eax
$L104037:
  0004a	5f		 pop	 edi
  0004b	5e		 pop	 esi
  0004c	5b		 pop	 ebx

; 148  : }

  0004d	c3		 ret	 0
$L98747:

; 144  :   }
; 145  : 
; 146  :   else 
; 147  :     return 0;

  0004e	33 c0		 xor	 eax, eax
  00050	5b		 pop	 ebx

; 148  : }

  00051	c3		 ret	 0
$L98743:

; 135  :     return -1;

  00052	83 c8 ff	 or	 eax, -1
  00055	5b		 pop	 ebx

; 148  : }

  00056	c3		 ret	 0
?showmanyc@?$basic_filebuf@DV?$char_traits@D@_STL@@@_STL@@MAEHXZ ENDP ; _STL::basic_filebuf<char,_STL::char_traits<char> >::showmanyc
_TEXT	ENDS
PUBLIC	?_M_allocate_buffers@?$basic_filebuf@DV?$char_traits@D@_STL@@@_STL@@AAE_NPADH@Z ; _STL::basic_filebuf<char,_STL::char_traits<char> >::_M_allocate_buffers
; Function compile flags: /Ogsy
;	COMDAT ?setbuf@?$basic_filebuf@DV?$char_traits@D@_STL@@@_STL@@MAEPAV?$basic_streambuf@DV?$char_traits@D@_STL@@@2@PADH@Z
_TEXT	SEGMENT
___buf$ = 8						; size = 4
___n$ = 12						; size = 4
?setbuf@?$basic_filebuf@DV?$char_traits@D@_STL@@@_STL@@MAEPAV?$basic_streambuf@DV?$char_traits@D@_STL@@@2@PADH@Z PROC NEAR ; _STL::basic_filebuf<char,_STL::char_traits<char> >::setbuf, COMDAT
; _this$ = ecx

; 273  : {

  00000	55		 push	 ebp
  00001	8b ec		 mov	 ebp, esp
  00003	56		 push	 esi
  00004	8b f1		 mov	 esi, ecx

; 274  :   if (!_M_in_input_mode &&! _M_in_output_mode && !_M_in_error_mode &&
; 275  :       _M_int_buf == 0) {

  00006	33 c0		 xor	 eax, eax
  00008	38 46 67	 cmp	 BYTE PTR [esi+103], al
  0000b	75 30		 jne	 SHORT $L98816
  0000d	38 46 68	 cmp	 BYTE PTR [esi+104], al
  00010	75 2b		 jne	 SHORT $L98816
  00012	38 46 69	 cmp	 BYTE PTR [esi+105], al
  00015	75 26		 jne	 SHORT $L98816
  00017	39 46 6c	 cmp	 DWORD PTR [esi+108], eax
  0001a	75 21		 jne	 SHORT $L98816

; 276  :     if (__buf == 0 && __n == 0)

  0001c	39 45 08	 cmp	 DWORD PTR ___buf$[ebp], eax
  0001f	75 0a		 jne	 SHORT $L104068
  00021	39 45 0c	 cmp	 DWORD PTR ___n$[ebp], eax
  00024	75 17		 jne	 SHORT $L98816

; 277  :       _M_allocate_buffers(0, 1);

  00026	6a 01		 push	 1
  00028	50		 push	 eax

; 278  :     else if (__buf != 0 && __n > 0)

  00029	eb 0b		 jmp	 SHORT $L104069
$L104068:
  0002b	39 45 0c	 cmp	 DWORD PTR ___n$[ebp], eax
  0002e	7e 0d		 jle	 SHORT $L98816

; 279  :       _M_allocate_buffers(__buf, __n);

  00030	ff 75 0c	 push	 DWORD PTR ___n$[ebp]
  00033	ff 75 08	 push	 DWORD PTR ___buf$[ebp]
$L104069:
  00036	8b ce		 mov	 ecx, esi
  00038	e8 00 00 00 00	 call	 ?_M_allocate_buffers@?$basic_filebuf@DV?$char_traits@D@_STL@@@_STL@@AAE_NPADH@Z ; _STL::basic_filebuf<char,_STL::char_traits<char> >::_M_allocate_buffers
$L98816:

; 280  :   }
; 281  :   return this;

  0003d	8b c6		 mov	 eax, esi
  0003f	5e		 pop	 esi

; 282  : }

  00040	5d		 pop	 ebp
  00041	c2 08 00	 ret	 8
?setbuf@?$basic_filebuf@DV?$char_traits@D@_STL@@@_STL@@MAEPAV?$basic_streambuf@DV?$char_traits@D@_STL@@@2@PADH@Z ENDP ; _STL::basic_filebuf<char,_STL::char_traits<char> >::setbuf
_TEXT	ENDS
EXTRN	_malloc:NEAR
; Function compile flags: /Ogsy
;	COMDAT ?_M_allocate_buffers@?$basic_filebuf@DV?$char_traits@D@_STL@@@_STL@@AAE_NPADH@Z
_TEXT	SEGMENT
$T104075 = -8						; size = 4
$T104073 = -8						; size = 4
$T104074 = -4						; size = 4
$T104072 = 8						; size = 4
___buf$ = 8						; size = 4
___n$ = 12						; size = 4
?_M_allocate_buffers@?$basic_filebuf@DV?$char_traits@D@_STL@@@_STL@@AAE_NPADH@Z PROC NEAR ; _STL::basic_filebuf<char,_STL::char_traits<char> >::_M_allocate_buffers, COMDAT
; _this$ = ecx

; 644  : {

  00000	55		 push	 ebp
  00001	8b ec		 mov	 ebp, esp
  00003	51		 push	 ecx
  00004	51		 push	 ecx

; 645  : 
; 646  :   if (__buf == 0) {

  00005	8b 45 08	 mov	 eax, DWORD PTR ___buf$[ebp]
  00008	85 c0		 test	 eax, eax
  0000a	56		 push	 esi
  0000b	8b f1		 mov	 esi, ecx
  0000d	75 1a		 jne	 SHORT $L101703

; 647  :     _M_int_buf = __STATIC_CAST(_CharT*,malloc(__n * sizeof(_CharT)));

  0000f	ff 75 0c	 push	 DWORD PTR ___n$[ebp]
  00012	e8 00 00 00 00	 call	 _malloc

; 648  :     if (! _M_int_buf)

  00017	85 c0		 test	 eax, eax
  00019	59		 pop	 ecx
  0001a	89 46 6c	 mov	 DWORD PTR [esi+108], eax
  0001d	75 04		 jne	 SHORT $L101706

; 649  :       return false;

  0001f	32 c0		 xor	 al, al
  00021	eb 7a		 jmp	 SHORT $L101702
$L101706:

; 650  :     _M_int_buf_dynamic = true;

  00023	c6 46 66 01	 mov	 BYTE PTR [esi+102], 1

; 651  :   }
; 652  :   else {

  00027	eb 07		 jmp	 SHORT $L101707
$L101703:

; 653  :     _M_int_buf = __buf;

  00029	89 46 6c	 mov	 DWORD PTR [esi+108], eax

; 654  :     _M_int_buf_dynamic = false;

  0002c	c6 46 66 00	 mov	 BYTE PTR [esi+102], 0
$L101707:
  00030	57		 push	 edi

; 655  :   }
; 656  :   
; 657  :   size_t __ebufsiz = (max)(__n * (max)(_M_codecvt->encoding(), 1),
; 658  :                       streamsize(_M_codecvt->max_length()));

  00031	8d be a0 00 00
	00		 lea	 edi, DWORD PTR [esi+160]
  00037	8b 0f		 mov	 ecx, DWORD PTR [edi]
  00039	8b 01		 mov	 eax, DWORD PTR [ecx]
  0003b	ff 50 1c	 call	 DWORD PTR [eax+28]
  0003e	8b 0f		 mov	 ecx, DWORD PTR [edi]
  00040	89 45 08	 mov	 DWORD PTR $T104072[ebp], eax
  00043	8b 01		 mov	 eax, DWORD PTR [ecx]
  00045	c7 45 fc 01 00
	00 00		 mov	 DWORD PTR $T104074[ebp], 1
  0004c	ff 50 10	 call	 DWORD PTR [eax+16]
  0004f	89 45 f8	 mov	 DWORD PTR $T104075[ebp], eax
  00052	83 f8 01	 cmp	 eax, 1
  00055	8d 45 fc	 lea	 eax, DWORD PTR $T104074[ebp]
  00058	7c 03		 jl	 SHORT $L104091
  0005a	8d 45 f8	 lea	 eax, DWORD PTR $T104075[ebp]
$L104091:
  0005d	8b 00		 mov	 eax, DWORD PTR [eax]
  0005f	0f af 45 0c	 imul	 eax, DWORD PTR ___n$[ebp]
  00063	3b 45 08	 cmp	 eax, DWORD PTR $T104072[ebp]
  00066	89 45 f8	 mov	 DWORD PTR $T104073[ebp], eax
  00069	8d 45 08	 lea	 eax, DWORD PTR $T104072[ebp]
  0006c	7c 03		 jl	 SHORT $L104100
  0006e	8d 45 f8	 lea	 eax, DWORD PTR $T104073[ebp]
$L104100:
  00071	8b 38		 mov	 edi, DWORD PTR [eax]

; 659  : 
; 660  :   _M_ext_buf = __STATIC_CAST(char*,malloc(__ebufsiz));

  00073	57		 push	 edi
  00074	e8 00 00 00 00	 call	 _malloc

; 661  :   if (!_M_ext_buf) {

  00079	85 c0		 test	 eax, eax
  0007b	59		 pop	 ecx
  0007c	89 46 74	 mov	 DWORD PTR [esi+116], eax
  0007f	75 0b		 jne	 SHORT $L101719

; 662  :     _M_deallocate_buffers();

  00081	8b ce		 mov	 ecx, esi
  00083	e8 00 00 00 00	 call	 ?_M_deallocate_buffers@?$basic_filebuf@DV?$char_traits@D@_STL@@@_STL@@AAEXXZ ; _STL::basic_filebuf<char,_STL::char_traits<char> >::_M_deallocate_buffers

; 663  :     return false;

  00088	32 c0		 xor	 al, al
  0008a	eb 10		 jmp	 SHORT $L104102
$L101719:

; 664  :   }
; 665  : 
; 666  :   _M_int_buf_EOS = _M_int_buf + __n;

  0008c	8b 4e 6c	 mov	 ecx, DWORD PTR [esi+108]
  0008f	03 4d 0c	 add	 ecx, DWORD PTR ___n$[ebp]

; 667  :   _M_ext_buf_EOS = _M_ext_buf + __ebufsiz;

  00092	03 c7		 add	 eax, edi
  00094	89 46 78	 mov	 DWORD PTR [esi+120], eax
  00097	89 4e 70	 mov	 DWORD PTR [esi+112], ecx

; 668  :   return true;

  0009a	b0 01		 mov	 al, 1
$L104102:
  0009c	5f		 pop	 edi
$L101702:
  0009d	5e		 pop	 esi

; 669  : }

  0009e	c9		 leave
  0009f	c2 08 00	 ret	 8
?_M_allocate_buffers@?$basic_filebuf@DV?$char_traits@D@_STL@@@_STL@@AAE_NPADH@Z ENDP ; _STL::basic_filebuf<char,_STL::char_traits<char> >::_M_allocate_buffers
; Function compile flags: /Ogsy
_TEXT	ENDS
;	COMDAT ?imbue@?$basic_filebuf@DV?$char_traits@D@_STL@@@_STL@@MAEXABVlocale@2@@Z
_TEXT	SEGMENT
___loc$ = 8						; size = 4
?imbue@?$basic_filebuf@DV?$char_traits@D@_STL@@@_STL@@MAEXABVlocale@2@@Z PROC NEAR ; _STL::basic_filebuf<char,_STL::char_traits<char> >::imbue, COMDAT
; _this$ = ecx

; 429  :   if (!_M_in_input_mode &&! _M_in_output_mode && !_M_in_error_mode) {

  00000	32 c0		 xor	 al, al
  00002	38 41 67	 cmp	 BYTE PTR [ecx+103], al
  00005	75 0f		 jne	 SHORT $L98961
  00007	38 41 68	 cmp	 BYTE PTR [ecx+104], al
  0000a	75 0a		 jne	 SHORT $L98961
  0000c	38 41 69	 cmp	 BYTE PTR [ecx+105], al
  0000f	75 05		 jne	 SHORT $L98961

; 430  :     this->_M_setup_codecvt(__loc);

  00011	e9 00 00 00 00	 jmp	 ?_M_setup_codecvt@?$basic_filebuf@DV?$char_traits@D@_STL@@@_STL@@AAEXABVlocale@2@@Z ; _STL::basic_filebuf<char,_STL::char_traits<char> >::_M_setup_codecvt
$L98961:

; 431  :   }
; 432  : }

  00016	c2 04 00	 ret	 4
?imbue@?$basic_filebuf@DV?$char_traits@D@_STL@@@_STL@@MAEXABVlocale@2@@Z ENDP ; _STL::basic_filebuf<char,_STL::char_traits<char> >::imbue
_TEXT	ENDS
PUBLIC	?close@?$basic_filebuf@DV?$char_traits@D@_STL@@@_STL@@QAEPAV12@XZ ; _STL::basic_filebuf<char,_STL::char_traits<char> >::close
EXTRN	?_M_close@_Filebuf_base@_STL@@QAE_NXZ:NEAR	; _STL::_Filebuf_base::_M_close
; Function compile flags: /Ogsy
;	COMDAT ?close@?$basic_filebuf@DV?$char_traits@D@_STL@@@_STL@@QAEPAV12@XZ
_TEXT	SEGMENT
___ok$ = -1						; size = 1
?close@?$basic_filebuf@DV?$char_traits@D@_STL@@@_STL@@QAEPAV12@XZ PROC NEAR ; _STL::basic_filebuf<char,_STL::char_traits<char> >::close, COMDAT
; _this$ = ecx

; 81   : {

  00000	55		 push	 ebp
  00001	8b ec		 mov	 ebp, esp
  00003	51		 push	 ecx
  00004	53		 push	 ebx
  00005	56		 push	 esi
  00006	8b f1		 mov	 esi, ecx

; 82   :   bool __ok = this->is_open();

  00008	33 db		 xor	 ebx, ebx
  0000a	38 5e 60	 cmp	 BYTE PTR [esi+96], bl
  0000d	0f 95 45 ff	 setne	 BYTE PTR ___ok$[ebp]

; 83   : 
; 84   :   if (_M_in_output_mode) {

  00011	38 5e 68	 cmp	 BYTE PTR [esi+104], bl
  00014	74 21		 je	 SHORT $L101670

; 85   :     __ok = __ok && !_Traits::eq_int_type(this->overflow(traits_type::eof()),
; 86   :                                          traits_type::eof());

  00016	38 5d ff	 cmp	 BYTE PTR ___ok$[ebp], bl
  00019	74 10		 je	 SHORT $L104110
  0001b	8b 06		 mov	 eax, DWORD PTR [esi]
  0001d	6a ff		 push	 -1
  0001f	ff 50 30	 call	 DWORD PTR [eax+48]
  00022	83 f8 ff	 cmp	 eax, -1
  00025	c6 45 ff 01	 mov	 BYTE PTR ___ok$[ebp], 1
  00029	75 03		 jne	 SHORT $L104111
$L104110:
  0002b	88 5d ff	 mov	 BYTE PTR ___ok$[ebp], bl
$L104111:

; 87   :     __ok == __ok && this->_M_unshift();

  0002e	8b ce		 mov	 ecx, esi
  00030	e8 00 00 00 00	 call	 ?_M_unshift@?$basic_filebuf@DV?$char_traits@D@_STL@@@_STL@@AAE_NXZ ; _STL::basic_filebuf<char,_STL::char_traits<char> >::_M_unshift

; 88   :   }
; 89   :   else if (_M_in_input_mode)

  00035	eb 0c		 jmp	 SHORT $L101674
$L101670:
  00037	38 5e 67	 cmp	 BYTE PTR [esi+103], bl
  0003a	74 07		 je	 SHORT $L101674

; 90   :       this->_M_exit_input_mode();

  0003c	8b ce		 mov	 ecx, esi
  0003e	e8 00 00 00 00	 call	 ?_M_exit_input_mode@?$basic_filebuf@DV?$char_traits@D@_STL@@@_STL@@AAEXXZ ; _STL::basic_filebuf<char,_STL::char_traits<char> >::_M_exit_input_mode
$L101674:

; 91   : 
; 92   :   // Note order of arguments.  We close the file even if __ok is false.
; 93   :   __ok = _M_base._M_close() && __ok;

  00043	8d 4e 54	 lea	 ecx, DWORD PTR [esi+84]
  00046	e8 00 00 00 00	 call	 ?_M_close@_Filebuf_base@_STL@@QAE_NXZ ; _STL::_Filebuf_base::_M_close
  0004b	84 c0		 test	 al, al
  0004d	74 09		 je	 SHORT $L104113
  0004f	38 5d ff	 cmp	 BYTE PTR ___ok$[ebp], bl
  00052	74 04		 je	 SHORT $L104113
  00054	b0 01		 mov	 al, 1
  00056	eb 02		 jmp	 SHORT $L104114
$L104113:
  00058	32 c0		 xor	 al, al
$L104114:

; 94   : 
; 95   :   // Restore the initial state, except that we don't deallocate the buffer
; 96   :   // or mess with the cached codecvt information.
; 97   :   _M_state = _M_end_state = _State_type();
; 98   :   _M_ext_buf_converted = _M_ext_buf_end = 0;
; 99   : 
; 100  :   _M_mmap_base = 0;
; 101  :   _M_mmap_len = 0;
; 102  : 
; 103  :   this->setg(0, 0, 0);

  0005a	8b 4e 04	 mov	 ecx, DWORD PTR [esi+4]
  0005d	89 9e 88 00 00
	00		 mov	 DWORD PTR [esi+136], ebx
  00063	89 9e 84 00 00
	00		 mov	 DWORD PTR [esi+132], ebx
  00069	89 9e 80 00 00
	00		 mov	 DWORD PTR [esi+128], ebx
  0006f	89 5e 7c	 mov	 DWORD PTR [esi+124], ebx
  00072	89 9e 8c 00 00
	00		 mov	 DWORD PTR [esi+140], ebx
  00078	89 9e 90 00 00
	00		 mov	 DWORD PTR [esi+144], ebx
  0007e	89 59 08	 mov	 DWORD PTR [ecx+8], ebx
  00081	89 19		 mov	 DWORD PTR [ecx], ebx
  00083	89 59 04	 mov	 DWORD PTR [ecx+4], ebx

; 104  :   this->setp(0, 0);

  00086	8b 4e 08	 mov	 ecx, DWORD PTR [esi+8]

; 105  : 
; 106  :   _M_saved_eback = _M_saved_gptr = _M_saved_egptr = 0;
; 107  : 
; 108  :   _M_in_input_mode = _M_in_output_mode = _M_in_error_mode = _M_in_putback_mode
; 109  :     = false;
; 110  : 
; 111  :   return __ok ? this : 0;

  00089	f6 d8		 neg	 al
  0008b	89 59 08	 mov	 DWORD PTR [ecx+8], ebx
  0008e	89 19		 mov	 DWORD PTR [ecx], ebx
  00090	89 59 04	 mov	 DWORD PTR [ecx+4], ebx
  00093	89 9e 9c 00 00
	00		 mov	 DWORD PTR [esi+156], ebx
  00099	89 9e 98 00 00
	00		 mov	 DWORD PTR [esi+152], ebx
  0009f	89 9e 94 00 00
	00		 mov	 DWORD PTR [esi+148], ebx
  000a5	1b c0		 sbb	 eax, eax
  000a7	88 5e 6a	 mov	 BYTE PTR [esi+106], bl
  000aa	88 5e 69	 mov	 BYTE PTR [esi+105], bl
  000ad	88 5e 68	 mov	 BYTE PTR [esi+104], bl
  000b0	88 5e 67	 mov	 BYTE PTR [esi+103], bl
  000b3	23 c6		 and	 eax, esi
  000b5	5e		 pop	 esi
  000b6	5b		 pop	 ebx

; 112  : }

  000b7	c9		 leave
  000b8	c3		 ret	 0
?close@?$basic_filebuf@DV?$char_traits@D@_STL@@@_STL@@QAEPAV12@XZ ENDP ; _STL::basic_filebuf<char,_STL::char_traits<char> >::close
_TEXT	ENDS
PUBLIC	??$_Destroy@PAPAVAPPEND_PATCH_NODE@@@_STL@@YAXPAPAVAPPEND_PATCH_NODE@@0@Z ; _STL::_Destroy<APPEND_PATCH_NODE * *>
; Function compile flags: /Ogsy
; File c:\stlport-4.6.1\stlport\stl\_construct.h
;	COMDAT ??$_Destroy@PAPAVAPPEND_PATCH_NODE@@@_STL@@YAXPAPAVAPPEND_PATCH_NODE@@0@Z
_TEXT	SEGMENT
___first$ = 8						; size = 4
___last$ = 12						; size = 4
??$_Destroy@PAPAVAPPEND_PATCH_NODE@@@_STL@@YAXPAPAVAPPEND_PATCH_NODE@@0@Z PROC NEAR ; _STL::_Destroy<APPEND_PATCH_NODE * *>, COMDAT

; 139  :   __destroy(__first, __last, _STLP_VALUE_TYPE(__first, _ForwardIterator));
; 140  : }

  00000	c3		 ret	 0
??$_Destroy@PAPAVAPPEND_PATCH_NODE@@@_STL@@YAXPAPAVAPPEND_PATCH_NODE@@0@Z ENDP ; _STL::_Destroy<APPEND_PATCH_NODE * *>
_TEXT	ENDS
PUBLIC	?flush@?$basic_ostream@DV?$char_traits@D@_STL@@@_STL@@QAEAAV12@XZ ; _STL::basic_ostream<char,_STL::char_traits<char> >::flush
; Function compile flags: /Ogsy
; File c:\stlport-4.6.1\stlport\stl\_ostream.h
;	COMDAT ?flush@?$basic_ostream@DV?$char_traits@D@_STL@@@_STL@@QAEAAV12@XZ
_TEXT	SEGMENT
?flush@?$basic_ostream@DV?$char_traits@D@_STL@@@_STL@@QAEAAV12@XZ PROC NEAR ; _STL::basic_ostream<char,_STL::char_traits<char> >::flush, COMDAT
; _this$ = ecx

; 120  :   _Self& flush() {

  00000	56		 push	 esi
  00001	8b f1		 mov	 esi, ecx

; 121  :     if (this->rdbuf())

  00003	8b 06		 mov	 eax, DWORD PTR [esi]
  00005	8b 40 04	 mov	 eax, DWORD PTR [eax+4]
  00008	8b 4c 30 58	 mov	 ecx, DWORD PTR [eax+esi+88]
  0000c	85 c9		 test	 ecx, ecx
  0000e	74 1d		 je	 SHORT $L104188

; 122  :       if (this->rdbuf()->pubsync() == -1)

  00010	8b 01		 mov	 eax, DWORD PTR [ecx]
  00012	ff 50 10	 call	 DWORD PTR [eax+16]
  00015	83 f8 ff	 cmp	 eax, -1
  00018	75 13		 jne	 SHORT $L104188

; 123  :         this->setstate(ios_base::badbit);

  0001a	8b 06		 mov	 eax, DWORD PTR [esi]
  0001c	8b 48 04	 mov	 ecx, DWORD PTR [eax+4]
  0001f	03 ce		 add	 ecx, esi
  00021	8b 41 08	 mov	 eax, DWORD PTR [ecx+8]
  00024	83 c8 01	 or	 eax, 1
  00027	50		 push	 eax
  00028	e8 00 00 00 00	 call	 ?clear@?$basic_ios@DV?$char_traits@D@_STL@@@_STL@@QAEXH@Z ; _STL::basic_ios<char,_STL::char_traits<char> >::clear
$L104188:

; 124  :     return *this;

  0002d	8b c6		 mov	 eax, esi
  0002f	5e		 pop	 esi

; 125  :   }

  00030	c3		 ret	 0
?flush@?$basic_ostream@DV?$char_traits@D@_STL@@@_STL@@QAEAAV12@XZ ENDP ; _STL::basic_ostream<char,_STL::char_traits<char> >::flush
_TEXT	ENDS
PUBLIC	??$_M_read_unbuffered@DV?$char_traits@D@_STL@@U?$_Constant_unary_fun@_NH@2@@_STL@@YAHPAV?$basic_istream@DV?$char_traits@D@_STL@@@0@PAV?$basic_streambuf@DV?$char_traits@D@_STL@@@0@HPADU?$_Constant_unary_fun@_NH@0@_N44@Z ; _STL::_M_read_unbuffered<char,_STL::char_traits<char>,_STL::_Constant_unary_fun<bool,int> >
;	COMDAT xdata$x
; File c:\stlport-4.6.1\stlport\stl\_ios_base.h
xdata$x	SEGMENT
$T104238 DD	0ffffffffH
	DD	00H
	DD	0ffffffffH
	DD	00H
$T104240 DD	00H
	DD	00H
	DD	00H
	DD	FLAT:$L104198
$T104239 DD	00H
	DD	00H
	DD	01H
	DD	01H
	DD	FLAT:$T104240
$T104233 DD	019930520H
	DD	02H
	DD	FLAT:$T104238
	DD	01H
	DD	FLAT:$T104239
	DD	2 DUP(00H)
; Function compile flags: /Ogsy
; File c:\stlport-4.6.1\stlport\stl\_istream.c
xdata$x	ENDS
;	COMDAT ??$_M_read_unbuffered@DV?$char_traits@D@_STL@@U?$_Constant_unary_fun@_NH@2@@_STL@@YAHPAV?$basic_istream@DV?$char_traits@D@_STL@@@0@PAV?$basic_streambuf@DV?$char_traits@D@_STL@@@0@HPADU?$_Constant_unary_fun@_NH@0@_N44@Z
_TEXT	SEGMENT
___n$ = -20						; size = 4
__$EHRec$ = -16						; size = 16
___that$ = 8						; size = 4
___buf$ = 12						; size = 4
__Num$ = 16						; size = 4
___s$ = 20						; size = 4
___is_delim$ = 24					; size = 1
___extract_delim$ = 28					; size = 1
___append_null$ = 32					; size = 1
___is_getline$ = 36					; size = 1
??$_M_read_unbuffered@DV?$char_traits@D@_STL@@U?$_Constant_unary_fun@_NH@2@@_STL@@YAHPAV?$basic_istream@DV?$char_traits@D@_STL@@@0@PAV?$basic_streambuf@DV?$char_traits@D@_STL@@@0@HPADU?$_Constant_unary_fun@_NH@0@_N44@Z PROC NEAR ; _STL::_M_read_unbuffered<char,_STL::char_traits<char>,_STL::_Constant_unary_fun<bool,int> >, COMDAT

; 528  : {

  00000	b8 00 00 00 00	 mov	 eax, __ehhandler$??$_M_read_unbuffered@DV?$char_traits@D@_STL@@U?$_Constant_unary_fun@_NH@2@@_STL@@YAHPAV?$basic_istream@DV?$char_traits@D@_STL@@@0@PAV?$basic_streambuf@DV?$char_traits@D@_STL@@@0@HPADU?$_Constant_unary_fun@_NH@0@_N44@Z
  00005	e8 00 00 00 00	 call	 __EH_prolog
  0000a	51		 push	 ecx
  0000b	51		 push	 ecx
  0000c	53		 push	 ebx
  0000d	56		 push	 esi

; 529  :   streamsize __n = 0;
; 530  :   ios_base::iostate __status = 0;
; 531  :   
; 532  :   typedef typename basic_istream<_CharT, _Traits>::int_type int_type;
; 533  :   // The operations that can potentially throw are sbumpc, snextc, and sgetc.
; 534  :   _STLP_TRY {

  0000e	8b 75 14	 mov	 esi, DWORD PTR ___s$[ebp]
  00011	33 db		 xor	 ebx, ebx
  00013	57		 push	 edi
  00014	89 65 f0	 mov	 DWORD PTR __$EHRec$[ebp], esp
  00017	89 5d ec	 mov	 DWORD PTR ___n$[ebp], ebx
  0001a	33 ff		 xor	 edi, edi
  0001c	89 5d fc	 mov	 DWORD PTR __$EHRec$[ebp+12], ebx
$L102194:

; 535  : # if 0
; 536  :     int_type __c = __buf->sgetc();
; 537  :     while (true) {
; 538  :       if (__that->_S_eof(__c)) {
; 539  :         if (__n < _Num || __is_getline)
; 540  :           __status |= ios_base::eofbit;
; 541  :         break;
; 542  :       }
; 543  : 
; 544  :       else if (__is_delim(__c)) {
; 545  :         if (__extract_delim) {  // Extract and discard current character.
; 546  :           __buf->sbumpc();
; 547  :           ++__n;
; 548  :         }
; 549  :         break;
; 550  :       }
; 551  : 
; 552  :       else if (__n == _Num) {
; 553  :         if (__is_getline)
; 554  :           __status |= ios_base::failbit;
; 555  :         break;
; 556  :       }
; 557  :         
; 558  :       *__s++ = _Traits::to_char_type(__c);
; 559  :       ++__n;
; 560  :       __c = __buf->snextc();
; 561  :     }
; 562  : # else
; 563  : // int_type __c = __buf->sbumpc(); // __buf->sgetc();
; 564  : while (true) {
; 565  : 
; 566  : int_type __c = __buf->sbumpc(); // sschwarz

  0001f	8b 4d 0c	 mov	 ecx, DWORD PTR ___buf$[ebp]
  00022	e8 00 00 00 00	 call	 ?sbumpc@?$basic_streambuf@DV?$char_traits@D@_STL@@@_STL@@QAEHXZ ; _STL::basic_streambuf<char,_STL::char_traits<char> >::sbumpc

; 567  : 
; 568  : if (__that->_S_eof(__c)) {

  00027	83 f8 ff	 cmp	 eax, -1
  0002a	75 12		 jne	 SHORT $L102197

; 569  : if (__n < _Num || __is_getline)

  0002c	8b 45 ec	 mov	 eax, DWORD PTR ___n$[ebp]
  0002f	3b 45 10	 cmp	 eax, DWORD PTR __Num$[ebp]
  00032	7c 05		 jl	 SHORT $L102199
  00034	38 5d 24	 cmp	 BYTE PTR ___is_getline$[ebp], bl
  00037	74 2d		 je	 SHORT $L102206
$L102199:

; 570  : __status |= ios_base::eofbit;

  00039	83 cf 02	 or	 edi, 2

; 571  : break;

  0003c	eb 28		 jmp	 SHORT $L102206
$L102197:

; 572  : }
; 573  : 
; 574  : else if (__is_delim(__c)) {

  0003e	38 5d 18	 cmp	 BYTE PTR ___is_delim$[ebp], bl
  00041	74 0a		 je	 SHORT $L102202

; 575  : if (__extract_delim) { // Extract and discard current character.

  00043	38 5d 1c	 cmp	 BYTE PTR ___extract_delim$[ebp], bl
  00046	74 1e		 je	 SHORT $L102206

; 576  : // __buf->sbumpc();
; 577  : ++__n;

  00048	ff 45 ec	 inc	 DWORD PTR ___n$[ebp]

; 578  : }
; 579  : break;

  0004b	eb 19		 jmp	 SHORT $L102206
$L102202:

; 580  : }
; 581  : 
; 582  : else { // regular character
; 583  : 
; 584  : *__s++ = _Traits::to_char_type(__c);

  0004d	88 06		 mov	 BYTE PTR [esi], al
  0004f	46		 inc	 esi

; 585  : ++__n;

  00050	ff 45 ec	 inc	 DWORD PTR ___n$[ebp]

; 586  : 
; 587  : }
; 588  : 
; 589  : if (__n == _Num) {

  00053	8b 45 ec	 mov	 eax, DWORD PTR ___n$[ebp]
  00056	3b 45 10	 cmp	 eax, DWORD PTR __Num$[ebp]
  00059	89 75 14	 mov	 DWORD PTR ___s$[ebp], esi
  0005c	75 c1		 jne	 SHORT $L102194

; 590  : if (__is_getline) // didn't find delimiter as one of the _Num chars

  0005e	38 5d 24	 cmp	 BYTE PTR ___is_getline$[ebp], bl
  00061	74 03		 je	 SHORT $L102206

; 591  : __status |= ios_base::failbit;

  00063	83 cf 04	 or	 edi, 4
$L102206:

; 607  :   }

  00066	83 4d fc ff	 or	 DWORD PTR __$EHRec$[ebp+12], -1

; 608  : 
; 609  :   if (__append_null)

  0006a	38 5d 20	 cmp	 BYTE PTR ___append_null$[ebp], bl
  0006d	74 02		 je	 SHORT $L102208

; 610  :     *__s =  _STLP_DEFAULT_CONSTRUCTED(_CharT);

  0006f	88 1e		 mov	 BYTE PTR [esi], bl
$L102208:

; 611  :   if (__status)

  00071	3b fb		 cmp	 edi, ebx
  00073	74 15		 je	 SHORT $L104200

; 612  :     __that->setstate(__status);    // This might throw.

  00075	8b 45 08	 mov	 eax, DWORD PTR ___that$[ebp]
  00078	8b 08		 mov	 ecx, DWORD PTR [eax]
  0007a	8b 49 04	 mov	 ecx, DWORD PTR [ecx+4]
  0007d	03 c8		 add	 ecx, eax
  0007f	8b 41 08	 mov	 eax, DWORD PTR [ecx+8]
  00082	0b c7		 or	 eax, edi
  00084	50		 push	 eax
  00085	e8 00 00 00 00	 call	 ?clear@?$basic_ios@DV?$char_traits@D@_STL@@@_STL@@QAEXH@Z ; _STL::basic_ios<char,_STL::char_traits<char> >::clear
$L104200:

; 613  :   return __n;
; 614  : }

  0008a	8b 4d f4	 mov	 ecx, DWORD PTR __$EHRec$[ebp+4]
  0008d	8b 45 ec	 mov	 eax, DWORD PTR ___n$[ebp]
  00090	5f		 pop	 edi
  00091	5e		 pop	 esi
  00092	64 89 0d 00 00
	00 00		 mov	 DWORD PTR fs:__except_list, ecx
  00099	5b		 pop	 ebx
  0009a	c9		 leave
  0009b	c3		 ret	 0
$L104198:

; 592  : break;
; 593  : }
; 594  : 
; 595  : // *__s++ = _Traits::to_char_type(__c);
; 596  : // ++__n;
; 597  : 
; 598  : }
; 599  : 
; 600  : # endif
; 601  : 
; 602  :   }
; 603  :   _STLP_CATCH_ALL {
; 604  :     __that->_M_handle_exception(ios_base::badbit);

  0009c	8b 45 08	 mov	 eax, DWORD PTR ___that$[ebp]
  0009f	8b 08		 mov	 ecx, DWORD PTR [eax]
  000a1	8b 49 04	 mov	 ecx, DWORD PTR [ecx+4]
  000a4	6a 01		 push	 1
  000a6	03 c8		 add	 ecx, eax
  000a8	e8 00 00 00 00	 call	 ?_M_handle_exception@?$basic_ios@DV?$char_traits@D@_STL@@@_STL@@QAEXH@Z ; _STL::basic_ios<char,_STL::char_traits<char> >::_M_handle_exception

; 605  :     *__s = _STLP_DEFAULT_CONSTRUCTED(_CharT);

  000ad	8b 45 14	 mov	 eax, DWORD PTR ___s$[ebp]
  000b0	c6 00 00	 mov	 BYTE PTR [eax], 0

; 606  :     return __n;

  000b3	b8 00 00 00 00	 mov	 eax, $L104200
  000b8	c3		 ret	 0
_TEXT	ENDS
;	COMDAT text$x
text$x	SEGMENT
__ehhandler$??$_M_read_unbuffered@DV?$char_traits@D@_STL@@U?$_Constant_unary_fun@_NH@2@@_STL@@YAHPAV?$basic_istream@DV?$char_traits@D@_STL@@@0@PAV?$basic_streambuf@DV?$char_traits@D@_STL@@@0@HPADU?$_Constant_unary_fun@_NH@0@_N44@Z:
  00000	b8 00 00 00 00	 mov	 eax, OFFSET FLAT:$T104233
  00005	e9 00 00 00 00	 jmp	 ___CxxFrameHandler
text$x	ENDS
??$_M_read_unbuffered@DV?$char_traits@D@_STL@@U?$_Constant_unary_fun@_NH@2@@_STL@@YAHPAV?$basic_istream@DV?$char_traits@D@_STL@@@0@PAV?$basic_streambuf@DV?$char_traits@D@_STL@@@0@HPADU?$_Constant_unary_fun@_NH@0@_N44@Z ENDP ; _STL::_M_read_unbuffered<char,_STL::char_traits<char>,_STL::_Constant_unary_fun<bool,int> >
PUBLIC	??$_M_init@DV?$char_traits@D@_STL@@@_STL@@YA_NAAV?$basic_ostream@DV?$char_traits@D@_STL@@@0@@Z ; _STL::_M_init<char,_STL::char_traits<char> >
; Function compile flags: /Ogsy
; File c:\stlport-4.6.1\stlport\stl\_ostream.c
;	COMDAT ??$_M_init@DV?$char_traits@D@_STL@@@_STL@@YA_NAAV?$basic_ostream@DV?$char_traits@D@_STL@@@0@@Z
_TEXT	SEGMENT
___str$ = 8						; size = 4
??$_M_init@DV?$char_traits@D@_STL@@@_STL@@YA_NAAV?$basic_ostream@DV?$char_traits@D@_STL@@@0@@Z PROC NEAR ; _STL::_M_init<char,_STL::char_traits<char> >, COMDAT

; 37   : _M_init(basic_ostream<_CharT, _Traits>& __str) {

  00000	56		 push	 esi

; 38   :   if (__str.good()) {

  00001	8b 74 24 08	 mov	 esi, DWORD PTR ___str$[esp]
  00005	8b 06		 mov	 eax, DWORD PTR [esi]
  00007	8b 40 04	 mov	 eax, DWORD PTR [eax+4]
  0000a	8d 0c 30	 lea	 ecx, DWORD PTR [eax+esi]
  0000d	83 79 08 00	 cmp	 DWORD PTR [ecx+8], 0
  00011	75 36		 jne	 SHORT $L102312

; 39   :     // boris : check if this is needed !
; 40   :     if (!__str.rdbuf())

  00013	83 79 58 00	 cmp	 DWORD PTR [ecx+88], 0
  00017	75 0c		 jne	 SHORT $L104257

; 41   :       __str.setstate(ios_base::badbit);

  00019	8b 41 08	 mov	 eax, DWORD PTR [ecx+8]
  0001c	83 c8 01	 or	 eax, 1
  0001f	50		 push	 eax
  00020	e8 00 00 00 00	 call	 ?clear@?$basic_ios@DV?$char_traits@D@_STL@@@_STL@@QAEXH@Z ; _STL::basic_ios<char,_STL::char_traits<char> >::clear
$L104257:

; 42   :     if (__str.tie())

  00025	8b 06		 mov	 eax, DWORD PTR [esi]
  00027	8b 40 04	 mov	 eax, DWORD PTR [eax+4]
  0002a	8b 4c 30 5c	 mov	 ecx, DWORD PTR [eax+esi+92]
  0002e	85 c9		 test	 ecx, ecx
  00030	74 05		 je	 SHORT $L102314

; 43   :       __str.tie()->flush();

  00032	e8 00 00 00 00	 call	 ?flush@?$basic_ostream@DV?$char_traits@D@_STL@@@_STL@@QAEAAV12@XZ ; _STL::basic_ostream<char,_STL::char_traits<char> >::flush
$L102314:

; 44   :     return __str.good();

  00037	8b 06		 mov	 eax, DWORD PTR [esi]
  00039	8b 40 04	 mov	 eax, DWORD PTR [eax+4]
  0003c	33 c9		 xor	 ecx, ecx
  0003e	39 4c 30 08	 cmp	 DWORD PTR [eax+esi+8], ecx
  00042	5e		 pop	 esi
  00043	0f 94 c1	 sete	 cl
  00046	8a c1		 mov	 al, cl

; 47   : }

  00048	c3		 ret	 0
$L102312:

; 45   :   } else
; 46   :     return false;

  00049	32 c0		 xor	 al, al
  0004b	5e		 pop	 esi

; 47   : }

  0004c	c3		 ret	 0
??$_M_init@DV?$char_traits@D@_STL@@@_STL@@YA_NAAV?$basic_ostream@DV?$char_traits@D@_STL@@@0@@Z ENDP ; _STL::_M_init<char,_STL::char_traits<char> >
_TEXT	ENDS
PUBLIC	??$_M_init_noskip@DV?$char_traits@D@_STL@@@_STL@@YA_NAAV?$basic_istream@DV?$char_traits@D@_STL@@@0@@Z ; _STL::_M_init_noskip<char,_STL::char_traits<char> >
; Function compile flags: /Ogsy
; File c:\stlport-4.6.1\stlport\stl\_istream.c
;	COMDAT ??$_M_init_noskip@DV?$char_traits@D@_STL@@@_STL@@YA_NAAV?$basic_istream@DV?$char_traits@D@_STL@@@0@@Z
_TEXT	SEGMENT
___is$ = 8						; size = 4
??$_M_init_noskip@DV?$char_traits@D@_STL@@@_STL@@YA_NAAV?$basic_istream@DV?$char_traits@D@_STL@@@0@@Z PROC NEAR ; _STL::_M_init_noskip<char,_STL::char_traits<char> >, COMDAT

; 214  : _M_init_noskip(basic_istream<_CharT, _Traits>& __is){

  00000	56		 push	 esi

; 215  :   if (__is.good()) {

  00001	8b 74 24 08	 mov	 esi, DWORD PTR ___is$[esp]
  00005	8b 06		 mov	 eax, DWORD PTR [esi]
  00007	8b 40 04	 mov	 eax, DWORD PTR [eax+4]
  0000a	8d 0c 30	 lea	 ecx, DWORD PTR [eax+esi]
  0000d	83 79 08 00	 cmp	 DWORD PTR [ecx+8], 0
  00011	75 22		 jne	 SHORT $L102317

; 216  :     if (__is.tie())

  00013	8b 49 5c	 mov	 ecx, DWORD PTR [ecx+92]
  00016	85 c9		 test	 ecx, ecx
  00018	74 05		 je	 SHORT $L102318

; 217  :       __is.tie()->flush();

  0001a	e8 00 00 00 00	 call	 ?flush@?$basic_ostream@DV?$char_traits@D@_STL@@@_STL@@QAEAAV12@XZ ; _STL::basic_ostream<char,_STL::char_traits<char> >::flush
$L102318:

; 218  :     
; 219  :     if (!__is.rdbuf())

  0001f	8b 06		 mov	 eax, DWORD PTR [esi]
  00021	8b 40 04	 mov	 eax, DWORD PTR [eax+4]
  00024	8d 0c 30	 lea	 ecx, DWORD PTR [eax+esi]
  00027	83 79 58 00	 cmp	 DWORD PTR [ecx+88], 0
  0002b	75 14		 jne	 SHORT $L104306

; 220  :       __is.setstate(ios_base::badbit);

  0002d	8b 41 08	 mov	 eax, DWORD PTR [ecx+8]
  00030	83 c8 01	 or	 eax, 1

; 221  :   }
; 222  :   else

  00033	eb 06		 jmp	 SHORT $L104314
$L102317:

; 223  :     __is.setstate(ios_base::failbit);

  00035	8b 41 08	 mov	 eax, DWORD PTR [ecx+8]
  00038	83 c8 04	 or	 eax, 4
$L104314:
  0003b	50		 push	 eax
  0003c	e8 00 00 00 00	 call	 ?clear@?$basic_ios@DV?$char_traits@D@_STL@@@_STL@@QAEXH@Z ; _STL::basic_ios<char,_STL::char_traits<char> >::clear
$L104306:

; 224  :   return __is.good();

  00041	8b 06		 mov	 eax, DWORD PTR [esi]
  00043	8b 40 04	 mov	 eax, DWORD PTR [eax+4]
  00046	33 c9		 xor	 ecx, ecx
  00048	39 4c 30 08	 cmp	 DWORD PTR [eax+esi+8], ecx
  0004c	5e		 pop	 esi
  0004d	0f 94 c1	 sete	 cl
  00050	8a c1		 mov	 al, cl

; 225  : }

  00052	c3		 ret	 0
??$_M_init_noskip@DV?$char_traits@D@_STL@@@_STL@@YA_NAAV?$basic_istream@DV?$char_traits@D@_STL@@@0@@Z ENDP ; _STL::_M_init_noskip<char,_STL::char_traits<char> >
_TEXT	ENDS
PUBLIC	??$__uninitialized_copy@PADPAD@_STL@@YAPADPAD00ABU__true_type@0@@Z ; _STL::__uninitialized_copy<char *,char *>
; Function compile flags: /Ogsy
; File c:\stlport-4.6.1\stlport\stl\_uninitialized.h
;	COMDAT ??$__uninitialized_copy@PADPAD@_STL@@YAPADPAD00ABU__true_type@0@@Z
_TEXT	SEGMENT
___first$ = 8						; size = 4
___last$ = 12						; size = 4
___result$ = 16						; size = 4
___formal$ = 20						; size = 4
??$__uninitialized_copy@PADPAD@_STL@@YAPADPAD00ABU__true_type@0@@Z PROC NEAR ; _STL::__uninitialized_copy<char *,char *>, COMDAT

; 55   :   return __copy_aux(__first, __last, __result, _BothPtrType< _InputIter, _ForwardIter> :: _Ret());

  00000	ff 74 24 0c	 push	 DWORD PTR ___result$[esp-4]
  00004	ff 74 24 0c	 push	 DWORD PTR ___last$[esp]
  00008	ff 74 24 0c	 push	 DWORD PTR ___first$[esp+4]
  0000c	e8 00 00 00 00	 call	 ?__copy_trivial@_STL@@YAPAXPBX0PAX@Z ; _STL::__copy_trivial
  00011	83 c4 0c	 add	 esp, 12			; 0000000cH

; 56   : }

  00014	c3		 ret	 0
??$__uninitialized_copy@PADPAD@_STL@@YAPADPAD00ABU__true_type@0@@Z ENDP ; _STL::__uninitialized_copy<char *,char *>
_TEXT	ENDS
PUBLIC	?_M_deallocate_block@?$_String_base@DV?$allocator@D@_STL@@@_STL@@QAEXXZ ; _STL::_String_base<char,_STL::allocator<char> >::_M_deallocate_block
; Function compile flags: /Ogsy
; File c:\stlport-4.6.1\stlport\stl\_string.h
;	COMDAT ?_M_deallocate_block@?$_String_base@DV?$allocator@D@_STL@@@_STL@@QAEXXZ
_TEXT	SEGMENT
?_M_deallocate_block@?$_String_base@DV?$allocator@D@_STL@@@_STL@@QAEXXZ PROC NEAR ; _STL::_String_base<char,_STL::allocator<char> >::_M_deallocate_block, COMDAT
; _this$ = ecx

; 124  :     { _M_end_of_storage.deallocate(_M_start, _M_end_of_storage._M_data - _M_start); }

  00000	8b c1		 mov	 eax, ecx
  00002	8d 48 08	 lea	 ecx, DWORD PTR [eax+8]
  00005	8b 00		 mov	 eax, DWORD PTR [eax]
  00007	8b 11		 mov	 edx, DWORD PTR [ecx]
  00009	2b d0		 sub	 edx, eax
  0000b	52		 push	 edx
  0000c	50		 push	 eax
  0000d	e8 00 00 00 00	 call	 ?deallocate@?$allocator@D@_STL@@QAEXPADI@Z ; _STL::allocator<char>::deallocate
  00012	c3		 ret	 0
?_M_deallocate_block@?$_String_base@DV?$allocator@D@_STL@@@_STL@@QAEXXZ ENDP ; _STL::_String_base<char,_STL::allocator<char> >::_M_deallocate_block
_TEXT	ENDS
PUBLIC	??1?$basic_filebuf@DV?$char_traits@D@_STL@@@_STL@@UAE@XZ ; _STL::basic_filebuf<char,_STL::char_traits<char> >::~basic_filebuf<char,_STL::char_traits<char> >
;	COMDAT xdata$x
; File c:\stlport-4.6.1\stlport\stl\_fstream.c
xdata$x	SEGMENT
$T104362 DD	0ffffffffH
	DD	FLAT:$L104358
$T104360 DD	019930520H
	DD	01H
	DD	FLAT:$T104362
	DD	2 DUP(00H)
	DD	2 DUP(00H)
; Function compile flags: /Ogsy
xdata$x	ENDS
;	COMDAT ??1?$basic_filebuf@DV?$char_traits@D@_STL@@@_STL@@UAE@XZ
_TEXT	SEGMENT
_this$ = -16						; size = 4
__$EHRec$ = -12						; size = 12
??1?$basic_filebuf@DV?$char_traits@D@_STL@@@_STL@@UAE@XZ PROC NEAR ; _STL::basic_filebuf<char,_STL::char_traits<char> >::~basic_filebuf<char,_STL::char_traits<char> >, COMDAT
; _this$ = ecx

; 65   : basic_filebuf<_CharT, _Traits>::~basic_filebuf() {

  00000	b8 00 00 00 00	 mov	 eax, __ehhandler$??1?$basic_filebuf@DV?$char_traits@D@_STL@@@_STL@@UAE@XZ
  00005	e8 00 00 00 00	 call	 __EH_prolog
  0000a	51		 push	 ecx
  0000b	56		 push	 esi
  0000c	8b f1		 mov	 esi, ecx
  0000e	89 75 f0	 mov	 DWORD PTR _this$[ebp], esi
  00011	c7 06 00 00 00
	00		 mov	 DWORD PTR [esi], OFFSET FLAT:??_7?$basic_filebuf@DV?$char_traits@D@_STL@@@_STL@@6B@
  00017	83 65 fc 00	 and	 DWORD PTR __$EHRec$[ebp+8], 0

; 66   :   this->close();

  0001b	e8 00 00 00 00	 call	 ?close@?$basic_filebuf@DV?$char_traits@D@_STL@@@_STL@@QAEPAV12@XZ ; _STL::basic_filebuf<char,_STL::char_traits<char> >::close

; 67   :   _M_deallocate_buffers();

  00020	8b ce		 mov	 ecx, esi
  00022	e8 00 00 00 00	 call	 ?_M_deallocate_buffers@?$basic_filebuf@DV?$char_traits@D@_STL@@@_STL@@AAEXXZ ; _STL::basic_filebuf<char,_STL::char_traits<char> >::_M_deallocate_buffers

; 68   : }

  00027	83 4d fc ff	 or	 DWORD PTR __$EHRec$[ebp+8], -1
  0002b	8b ce		 mov	 ecx, esi
  0002d	e8 00 00 00 00	 call	 ??1?$basic_streambuf@DV?$char_traits@D@_STL@@@_STL@@UAE@XZ ; _STL::basic_streambuf<char,_STL::char_traits<char> >::~basic_streambuf<char,_STL::char_traits<char> >
  00032	8b 4d f4	 mov	 ecx, DWORD PTR __$EHRec$[ebp]
  00035	5e		 pop	 esi
  00036	64 89 0d 00 00
	00 00		 mov	 DWORD PTR fs:__except_list, ecx
  0003d	c9		 leave
  0003e	c3		 ret	 0
_TEXT	ENDS
;	COMDAT text$x
text$x	SEGMENT
$L104358:
  00000	8b 4d f0	 mov	 ecx, DWORD PTR _this$[ebp]
  00003	e9 00 00 00 00	 jmp	 ??1?$basic_streambuf@DV?$char_traits@D@_STL@@@_STL@@UAE@XZ ; _STL::basic_streambuf<char,_STL::char_traits<char> >::~basic_streambuf<char,_STL::char_traits<char> >
__ehhandler$??1?$basic_filebuf@DV?$char_traits@D@_STL@@@_STL@@UAE@XZ:
  00008	b8 00 00 00 00	 mov	 eax, OFFSET FLAT:$T104360
  0000d	e9 00 00 00 00	 jmp	 ___CxxFrameHandler
text$x	ENDS
??1?$basic_filebuf@DV?$char_traits@D@_STL@@@_STL@@UAE@XZ ENDP ; _STL::basic_filebuf<char,_STL::char_traits<char> >::~basic_filebuf<char,_STL::char_traits<char> >
PUBLIC	?_M_switch_to_output_mode@?$basic_filebuf@DV?$char_traits@D@_STL@@@_STL@@AAE_NXZ ; _STL::basic_filebuf<char,_STL::char_traits<char> >::_M_switch_to_output_mode
PUBLIC	?_M_output_error@?$basic_filebuf@DV?$char_traits@D@_STL@@@_STL@@AAEHXZ ; _STL::basic_filebuf<char,_STL::char_traits<char> >::_M_output_error
; Function compile flags: /Ogsy
;	COMDAT ?overflow@?$basic_filebuf@DV?$char_traits@D@_STL@@@_STL@@MAEHH@Z
_TEXT	SEGMENT
___enext$98795 = -12					; size = 4
___iend$ = -8						; size = 4
___inext$98794 = -4					; size = 4
___c$ = 8						; size = 4
?overflow@?$basic_filebuf@DV?$char_traits@D@_STL@@@_STL@@MAEHH@Z PROC NEAR ; _STL::basic_filebuf<char,_STL::char_traits<char> >::overflow, COMDAT
; _this$ = ecx

; 213  : {

  00000	55		 push	 ebp
  00001	8b ec		 mov	 ebp, esp
  00003	83 ec 0c	 sub	 esp, 12			; 0000000cH
  00006	56		 push	 esi
  00007	8b f1		 mov	 esi, ecx

; 214  :   // Switch to output mode, if necessary.
; 215  :   if (!_M_in_output_mode)

  00009	80 7e 68 00	 cmp	 BYTE PTR [esi+104], 0
  0000d	75 11		 jne	 SHORT $L98786

; 216  :     if (!_M_switch_to_output_mode())

  0000f	e8 00 00 00 00	 call	 ?_M_switch_to_output_mode@?$basic_filebuf@DV?$char_traits@D@_STL@@@_STL@@AAE_NXZ ; _STL::basic_filebuf<char,_STL::char_traits<char> >::_M_switch_to_output_mode
  00014	84 c0		 test	 al, al
  00016	75 08		 jne	 SHORT $L98786

; 217  :       return traits_type::eof();

  00018	83 c8 ff	 or	 eax, -1
  0001b	e9 b1 00 00 00	 jmp	 $L98784
$L98786:

; 218  : 
; 219  :   _CharT* __ibegin = this->_M_int_buf;
; 220  :   _CharT* __iend   = this->pptr();
; 221  :   this->setp(_M_int_buf, _M_int_buf_EOS - 1);

  00020	8b 46 70	 mov	 eax, DWORD PTR [esi+112]
  00023	8b 4e 08	 mov	 ecx, DWORD PTR [esi+8]
  00026	8b 11		 mov	 edx, DWORD PTR [ecx]
  00028	48		 dec	 eax
  00029	57		 push	 edi
  0002a	8b 7e 6c	 mov	 edi, DWORD PTR [esi+108]
  0002d	2b c7		 sub	 eax, edi
  0002f	89 41 04	 mov	 DWORD PTR [ecx+4], eax

; 222  : 
; 223  :   // Put __c at the end of the internal buffer.
; 224  :   if (!traits_type::eq_int_type(__c, traits_type::eof()))

  00032	8b 45 08	 mov	 eax, DWORD PTR ___c$[ebp]
  00035	83 f8 ff	 cmp	 eax, -1
  00038	89 55 f8	 mov	 DWORD PTR ___iend$[ebp], edx
  0003b	89 79 08	 mov	 DWORD PTR [ecx+8], edi
  0003e	89 39		 mov	 DWORD PTR [ecx], edi
  00040	74 06		 je	 SHORT $L104534

; 225  :     *__iend++ = __c;

  00042	88 02		 mov	 BYTE PTR [edx], al
  00044	42		 inc	 edx
  00045	89 55 f8	 mov	 DWORD PTR ___iend$[ebp], edx
$L104534:

; 226  : 
; 227  :   // For variable-width encodings, output may take more than one pass.
; 228  :   while (__ibegin != __iend) {

  00048	3b fa		 cmp	 edi, edx
  0004a	53		 push	 ebx
  0004b	74 77		 je	 SHORT $L98793
$L98792:

; 229  :     const _CharT* __inext = __ibegin;
; 230  :     char* __enext         = _M_ext_buf;

  0004d	8b 46 74	 mov	 eax, DWORD PTR [esi+116]

; 231  :     typename _Codecvt::result __status
; 232  :       = _M_codecvt->out(_M_state, __ibegin, __iend, __inext,
; 233  :                                   _M_ext_buf, _M_ext_buf_EOS, __enext);

  00050	8b 8e a0 00 00
	00		 mov	 ecx, DWORD PTR [esi+160]
  00056	8d 5d f4	 lea	 ebx, DWORD PTR ___enext$98795[ebp]
  00059	53		 push	 ebx
  0005a	ff 76 78	 push	 DWORD PTR [esi+120]
  0005d	8b 5d f8	 mov	 ebx, DWORD PTR ___iend$[ebp]
  00060	50		 push	 eax
  00061	89 45 f4	 mov	 DWORD PTR ___enext$98795[ebp], eax
  00064	8d 45 fc	 lea	 eax, DWORD PTR ___inext$98794[ebp]
  00067	50		 push	 eax
  00068	53		 push	 ebx
  00069	57		 push	 edi
  0006a	8d 86 84 00 00
	00		 lea	 eax, DWORD PTR [esi+132]
  00070	89 7d fc	 mov	 DWORD PTR ___inext$98794[ebp], edi
  00073	8b 11		 mov	 edx, DWORD PTR [ecx]
  00075	50		 push	 eax
  00076	ff 52 04	 call	 DWORD PTR [edx+4]

; 234  :     if (__status == _Codecvt::noconv)

  00079	83 f8 03	 cmp	 eax, 3
  0007c	74 58		 je	 SHORT $L104535

; 238  : 
; 239  :     // For a constant-width encoding we know that the external buffer
; 240  :     // is large enough, so failure to consume the entire internal buffer
; 241  :     // or to produce the correct number of external characters, is an error.
; 242  :     // For a variable-width encoding, however, we require only that we 
; 243  :     // consume at least one internal character
; 244  :     else if (__status != _Codecvt::error && 
; 245  :              ((__inext == __iend && (__enext - _M_ext_buf == 
; 246  :                                      _M_width * (__iend - __ibegin))) ||
; 247  :               (!_M_constant_width && __inext != __ibegin))) {

  0007e	83 f8 02	 cmp	 eax, 2
  00081	74 63		 je	 SHORT $L104368
  00083	39 5d fc	 cmp	 DWORD PTR ___inext$98794[ebp], ebx
  00086	8b 45 f4	 mov	 eax, DWORD PTR ___enext$98795[ebp]
  00089	75 14		 jne	 SHORT $L98801
  0008b	8b cb		 mov	 ecx, ebx
  0008d	2b cf		 sub	 ecx, edi
  0008f	0f af 8e a4 00
	00 00		 imul	 ecx, DWORD PTR [esi+164]
  00096	8b d0		 mov	 edx, eax
  00098	2b 56 74	 sub	 edx, DWORD PTR [esi+116]
  0009b	3b d1		 cmp	 edx, ecx
  0009d	74 0b		 je	 SHORT $L98800
$L98801:
  0009f	80 7e 64 00	 cmp	 BYTE PTR [esi+100], 0
  000a3	75 41		 jne	 SHORT $L104368
  000a5	39 7d fc	 cmp	 DWORD PTR ___inext$98794[ebp], edi
  000a8	74 3c		 je	 SHORT $L104368
$L98800:

; 248  :         // We successfully converted part or all of the internal buffer.
; 249  :       ptrdiff_t __n = __enext - _M_ext_buf;

  000aa	8b 4e 74	 mov	 ecx, DWORD PTR [esi+116]
  000ad	2b c1		 sub	 eax, ecx

; 250  :       if (_M_write(_M_ext_buf, __n))

  000af	50		 push	 eax
  000b0	51		 push	 ecx
  000b1	8d 4e 54	 lea	 ecx, DWORD PTR [esi+84]
  000b4	e8 00 00 00 00	 call	 ?_M_write@_Filebuf_base@_STL@@QAE_NPADH@Z ; _STL::_Filebuf_base::_M_write
  000b9	84 c0		 test	 al, al
  000bb	74 29		 je	 SHORT $L104368

; 251  :         __ibegin += __inext - __ibegin;

  000bd	8b 7d fc	 mov	 edi, DWORD PTR ___inext$98794[ebp]
  000c0	3b fb		 cmp	 edi, ebx
  000c2	75 89		 jne	 SHORT $L98792
$L98793:

; 252  :       else
; 253  :         return _M_output_error();
; 254  :     }
; 255  :     else
; 256  :       return _M_output_error();
; 257  :   }
; 258  : 
; 259  :   return traits_type::not_eof(__c);

  000c4	8b 45 08	 mov	 eax, DWORD PTR ___c$[ebp]
  000c7	40		 inc	 eax
  000c8	f7 d8		 neg	 eax
  000ca	1b c0		 sbb	 eax, eax
  000cc	23 45 08	 and	 eax, DWORD PTR ___c$[ebp]
$L104538:
  000cf	5b		 pop	 ebx
  000d0	5f		 pop	 edi
$L98784:
  000d1	5e		 pop	 esi

; 260  : }

  000d2	c9		 leave
  000d3	c2 04 00	 ret	 4
$L104535:

; 235  :       return _Noconv_output<_Traits>::_M_doit(this, __ibegin, __iend)
; 236  :         ? traits_type::not_eof(__c)
; 237  :         : _M_output_error();

  000d6	2b df		 sub	 ebx, edi
  000d8	53		 push	 ebx
  000d9	57		 push	 edi
  000da	8d 4e 54	 lea	 ecx, DWORD PTR [esi+84]
  000dd	e8 00 00 00 00	 call	 ?_M_write@_Filebuf_base@_STL@@QAE_NPADH@Z ; _STL::_Filebuf_base::_M_write
  000e2	84 c0		 test	 al, al
  000e4	75 de		 jne	 SHORT $L98793
$L104368:
  000e6	8b ce		 mov	 ecx, esi
  000e8	e8 00 00 00 00	 call	 ?_M_output_error@?$basic_filebuf@DV?$char_traits@D@_STL@@@_STL@@AAEHXZ ; _STL::basic_filebuf<char,_STL::char_traits<char> >::_M_output_error
  000ed	eb e0		 jmp	 SHORT $L104538
?overflow@?$basic_filebuf@DV?$char_traits@D@_STL@@@_STL@@MAEHH@Z ENDP ; _STL::basic_filebuf<char,_STL::char_traits<char> >::overflow
; Function compile flags: /Ogsy
_TEXT	ENDS
;	COMDAT ?_M_output_error@?$basic_filebuf@DV?$char_traits@D@_STL@@@_STL@@AAEHXZ
_TEXT	SEGMENT
?_M_output_error@?$basic_filebuf@DV?$char_traits@D@_STL@@@_STL@@AAEHXZ PROC NEAR ; _STL::basic_filebuf<char,_STL::char_traits<char> >::_M_output_error, COMDAT
; _this$ = ecx

; 591  :   _M_in_output_mode = false;

  00000	33 c0		 xor	 eax, eax
  00002	88 41 68	 mov	 BYTE PTR [ecx+104], al

; 592  :   _M_in_input_mode = false;

  00005	88 41 67	 mov	 BYTE PTR [ecx+103], al

; 593  :   _M_in_error_mode = true;

  00008	c6 41 69 01	 mov	 BYTE PTR [ecx+105], 1

; 594  :   this->setp(0, 0);

  0000c	8b 49 08	 mov	 ecx, DWORD PTR [ecx+8]
  0000f	89 41 08	 mov	 DWORD PTR [ecx+8], eax
  00012	89 01		 mov	 DWORD PTR [ecx], eax
  00014	89 41 04	 mov	 DWORD PTR [ecx+4], eax

; 595  :   return traits_type::eof();

  00017	83 c8 ff	 or	 eax, -1

; 596  : }

  0001a	c3		 ret	 0
?_M_output_error@?$basic_filebuf@DV?$char_traits@D@_STL@@@_STL@@AAEHXZ ENDP ; _STL::basic_filebuf<char,_STL::char_traits<char> >::_M_output_error
_TEXT	ENDS
EXTRN	?_M_page_size@_Filebuf_base@_STL@@1IA:DWORD	; _STL::_Filebuf_base::_M_page_size
; Function compile flags: /Ogsy
;	COMDAT ?_M_switch_to_output_mode@?$basic_filebuf@DV?$char_traits@D@_STL@@@_STL@@AAE_NXZ
_TEXT	SEGMENT
?_M_switch_to_output_mode@?$basic_filebuf@DV?$char_traits@D@_STL@@@_STL@@AAE_NXZ PROC NEAR ; _STL::basic_filebuf<char,_STL::char_traits<char> >::_M_switch_to_output_mode, COMDAT
; _this$ = ecx

; 471  : {

  00000	53		 push	 ebx
  00001	56		 push	 esi
  00002	8b f1		 mov	 esi, ecx

; 472  :   if (this->is_open() && (_M_base.__o_mode() & (int)ios_base::out) &&
; 473  :       _M_in_input_mode == 0 && _M_in_error_mode == 0) {

  00004	33 db		 xor	 ebx, ebx
  00006	38 5e 60	 cmp	 BYTE PTR [esi+96], bl
  00009	74 5d		 je	 SHORT $L101687
  0000b	f6 46 5c 10	 test	 BYTE PTR [esi+92], 16	; 00000010H
  0000f	74 57		 je	 SHORT $L101687
  00011	38 5e 67	 cmp	 BYTE PTR [esi+103], bl
  00014	75 52		 jne	 SHORT $L101687
  00016	38 5e 69	 cmp	 BYTE PTR [esi+105], bl
  00019	75 4d		 jne	 SHORT $L101687

; 474  : 
; 475  :     if (!_M_int_buf && !_M_allocate_buffers())

  0001b	39 5e 6c	 cmp	 DWORD PTR [esi+108], ebx
  0001e	75 20		 jne	 SHORT $L101688
  00020	8b 0d 00 00 00
	00		 mov	 ecx, DWORD PTR ?_M_page_size@_Filebuf_base@_STL@@1IA ; _STL::_Filebuf_base::_M_page_size
  00026	8d 81 ff 0f 00
	00		 lea	 eax, DWORD PTR [ecx+4095]
  0002c	33 d2		 xor	 edx, edx
  0002e	f7 f1		 div	 ecx
  00030	0f af c1	 imul	 eax, ecx
  00033	50		 push	 eax
  00034	53		 push	 ebx
  00035	8b ce		 mov	 ecx, esi
  00037	e8 00 00 00 00	 call	 ?_M_allocate_buffers@?$basic_filebuf@DV?$char_traits@D@_STL@@@_STL@@AAE_NPADH@Z ; _STL::basic_filebuf<char,_STL::char_traits<char> >::_M_allocate_buffers
  0003c	84 c0		 test	 al, al

; 476  :       return false;

  0003e	74 28		 je	 SHORT $L101687
$L101688:

; 477  : 
; 478  :     // In append mode, every write does an implicit seek to the end
; 479  :     // of the file.  Whenever leaving output mode, the end of file
; 480  :     // get put in the initial shift state.
; 481  :     if (_M_base.__o_mode() & ios_base::app)

  00040	f6 46 5c 01	 test	 BYTE PTR [esi+92], 1
  00044	74 06		 je	 SHORT $L101689

; 482  :       _M_state = _State_type();

  00046	89 9e 84 00 00
	00		 mov	 DWORD PTR [esi+132], ebx
$L101689:

; 483  : 
; 484  :     this->setp(_M_int_buf, _M_int_buf_EOS - 1);

  0004c	8b 46 70	 mov	 eax, DWORD PTR [esi+112]
  0004f	8b 56 6c	 mov	 edx, DWORD PTR [esi+108]
  00052	8b 4e 08	 mov	 ecx, DWORD PTR [esi+8]
  00055	48		 dec	 eax
  00056	2b c2		 sub	 eax, edx
  00058	89 41 04	 mov	 DWORD PTR [ecx+4], eax
  0005b	89 51 08	 mov	 DWORD PTR [ecx+8], edx
  0005e	89 11		 mov	 DWORD PTR [ecx], edx

; 485  :     _M_in_output_mode = true;

  00060	c6 46 68 01	 mov	 BYTE PTR [esi+104], 1

; 486  : 
; 487  :     return true;

  00064	b0 01		 mov	 al, 1
  00066	eb 02		 jmp	 SHORT $L101690
$L101687:

; 488  :   }
; 489  :   else
; 490  :     return false;

  00068	32 c0		 xor	 al, al
$L101690:
  0006a	5e		 pop	 esi
  0006b	5b		 pop	 ebx

; 491  : }

  0006c	c3		 ret	 0
?_M_switch_to_output_mode@?$basic_filebuf@DV?$char_traits@D@_STL@@@_STL@@AAE_NXZ ENDP ; _STL::basic_filebuf<char,_STL::char_traits<char> >::_M_switch_to_output_mode
_TEXT	ENDS
PUBLIC	?_M_seek_return@?$basic_filebuf@DV?$char_traits@D@_STL@@@_STL@@AAE?AV?$fpos@H@2@JH@Z ; _STL::basic_filebuf<char,_STL::char_traits<char> >::_M_seek_return
PUBLIC	?_M_seek_init@?$basic_filebuf@DV?$char_traits@D@_STL@@@_STL@@AAE_N_N@Z ; _STL::basic_filebuf<char,_STL::char_traits<char> >::_M_seek_init
PUBLIC	??1?$_Filebuf_Tmp_Buf@D@_STL@@QAE@XZ		; _STL::_Filebuf_Tmp_Buf<char>::~_Filebuf_Tmp_Buf<char>
EXTRN	??_V@YAXPAX@Z:NEAR				; operator delete[]
EXTRN	??_U@YAPAXI@Z:NEAR				; operator new[]
;	COMDAT xdata$x
; File c:\stlport-4.6.1\stlport\stl\char_traits.h
xdata$x	SEGMENT
$T104895 DD	0ffffffffH
	DD	FLAT:$L104622
$T104869 DD	019930520H
	DD	01H
	DD	FLAT:$T104895
	DD	2 DUP(00H)
	DD	2 DUP(00H)
; Function compile flags: /Ogsy
; File c:\stlport-4.6.1\stlport\stl\_fstream.c
xdata$x	ENDS
;	COMDAT ?seekoff@?$basic_filebuf@DV?$char_traits@D@_STL@@@_STL@@MAE?AV?$fpos@H@2@JHH@Z
_TEXT	SEGMENT
___dummy$98878 = -28					; size = 4
___tmp_state$98860 = -24				; size = 4
___state$98858 = -20					; size = 4
___inext$98877 = -16					; size = 4
__$EHRec$ = -12						; size = 12
___$ReturnUdt$ = 8					; size = 4
___buf$98875 = 12					; size = 4
___off$ = 12						; size = 4
tv738 = 16						; size = 4
___cur$98916 = 16					; size = 4
___whence$ = 16						; size = 4
___formal$ = 20						; size = 4
?seekoff@?$basic_filebuf@DV?$char_traits@D@_STL@@@_STL@@MAE?AV?$fpos@H@2@JHH@Z PROC NEAR ; _STL::basic_filebuf<char,_STL::char_traits<char> >::seekoff, COMDAT
; _this$ = ecx

; 289  : {

  00000	b8 00 00 00 00	 mov	 eax, __ehhandler$?seekoff@?$basic_filebuf@DV?$char_traits@D@_STL@@@_STL@@MAE?AV?$fpos@H@2@JHH@Z
  00005	e8 00 00 00 00	 call	 __EH_prolog
  0000a	83 ec 10	 sub	 esp, 16			; 00000010H
  0000d	53		 push	 ebx
  0000e	56		 push	 esi
  0000f	8b f1		 mov	 esi, ecx

; 290  :   if (this->is_open() &&
; 291  :       (__off == 0 || (_M_constant_width && this->_M_base._M_in_binary_mode()))) {

  00011	80 7e 60 00	 cmp	 BYTE PTR [esi+96], 0
  00015	57		 push	 edi
  00016	0f 84 64 02 00
	00		 je	 $L104882
  0001c	8b 5d 0c	 mov	 ebx, DWORD PTR ___off$[ebp]
  0001f	85 db		 test	 ebx, ebx
  00021	8b 7d 10	 mov	 edi, DWORD PTR ___whence$[ebp]
  00024	74 55		 je	 SHORT $L104879
  00026	80 7e 64 00	 cmp	 BYTE PTR [esi+100], 0
  0002a	0f 84 50 02 00
	00		 je	 $L104882
  00030	8b 46 5c	 mov	 eax, DWORD PTR [esi+92]
  00033	c1 e8 02	 shr	 eax, 2
  00036	a8 01		 test	 al, 1
  00038	0f 84 42 02 00
	00		 je	 $L104882
$L104619:

; 292  : 
; 293  :     if (!_M_seek_init(__off != 0 || __whence != ios_base::cur))

  0003e	33 c0		 xor	 eax, eax
  00040	b0 01		 mov	 al, 1
$L104620:
  00042	50		 push	 eax
  00043	8b ce		 mov	 ecx, esi
  00045	e8 00 00 00 00	 call	 ?_M_seek_init@?$basic_filebuf@DV?$char_traits@D@_STL@@@_STL@@AAE_N_N@Z ; _STL::basic_filebuf<char,_STL::char_traits<char> >::_M_seek_init
  0004a	84 c0		 test	 al, al

; 294  :       return pos_type(-1);

  0004c	0f 84 2e 02 00
	00		 je	 $L104882

; 295  : 
; 296  :     // Seek to beginning or end, regardless of whether we're in input mode.
; 297  :     if (__whence == ios_base::beg || __whence == ios_base::end)

  00052	83 ff 01	 cmp	 edi, 1
  00055	0f 84 00 02 00
	00		 je	 $L98831
  0005b	83 ff 04	 cmp	 edi, 4
  0005e	0f 84 f7 01 00
	00		 je	 $L98831

; 300  : 
; 301  :     // Seek relative to current position.  Complicated if we're in input mode.
; 302  :     else if (__whence == ios_base::cur) {

  00064	83 ff 02	 cmp	 edi, 2
  00067	0f 85 13 02 00
	00		 jne	 $L104882

; 303  : 
; 304  :       if (!_M_in_input_mode)

  0006d	80 7e 67 00	 cmp	 BYTE PTR [esi+103], 0
  00071	75 11		 jne	 SHORT $L98835

; 305  :         return _M_seek_return(_M_base._M_seek(_M_width * __off, __whence),
; 306  :                               _State_type());

  00073	6a 00		 push	 0
  00075	57		 push	 edi
  00076	e9 e3 01 00 00	 jmp	 $L104893
$L104879:

; 292  : 
; 293  :     if (!_M_seek_init(__off != 0 || __whence != ios_base::cur))

  0007b	83 ff 02	 cmp	 edi, 2
  0007e	75 be		 jne	 SHORT $L104619
  00080	32 c0		 xor	 al, al
  00082	eb be		 jmp	 SHORT $L104620
$L98835:

; 307  :       else if (_M_mmap_base != 0) {

  00084	8b 86 8c 00 00
	00		 mov	 eax, DWORD PTR [esi+140]
  0008a	85 c0		 test	 eax, eax

; 308  :         // __off is relative to gptr().  We need to do a bit of arithmetic
; 309  :         // to get an offset relative to the external file pointer.
; 310  :         streamoff __adjust = _M_mmap_len - (this->gptr() - (_CharT*) _M_mmap_base);

  0008c	8b 4e 04	 mov	 ecx, DWORD PTR [esi+4]
  0008f	74 18		 je	 SHORT $L98838
  00091	8b be 90 00 00
	00		 mov	 edi, DWORD PTR [esi+144]
  00097	2b 39		 sub	 edi, DWORD PTR [ecx]
  00099	03 f8		 add	 edi, eax
  0009b	eb 5a		 jmp	 SHORT $L104894
$L98850:

; 311  : 
; 312  :         // if __off == 0, we do not need to exit input mode and to shift file pointer
; 313  :         if (__off == 0) {
; 314  :           return pos_type(_M_base._M_seek(0, ios_base::cur) - __adjust);
; 315  :         }
; 316  :         else
; 317  :           return _M_seek_return(_M_base._M_seek(__off - __adjust, ios_base::cur), _State_type());

  0009d	6a 00		 push	 0
  0009f	6a 02		 push	 2
  000a1	2b df		 sub	 ebx, edi
  000a3	53		 push	 ebx
  000a4	e9 c2 01 00 00	 jmp	 $L104888
$L98838:

; 318  :       }
; 319  :       else if (_M_constant_width) { // Get or set the position.  
; 320  : 
; 321  :         streamoff __iadj = _M_width * (this->gptr() - this->eback());

  000a9	8b 01		 mov	 eax, DWORD PTR [ecx]
  000ab	2b 41 08	 sub	 eax, DWORD PTR [ecx+8]
  000ae	80 7e 64 00	 cmp	 BYTE PTR [esi+100], 0

; 322  :         
; 323  :         // Compensate for offset relative to gptr versus offset relative
; 324  :         // to external pointer.  For a text-oriented stream, where the 
; 325  :         // compensation is more than just pointer arithmetic, we may get
; 326  :         // but not set the current position.
; 327  :         
; 328  :         if (__iadj <= _M_ext_buf_end - _M_ext_buf) {

  000b2	8b 56 74	 mov	 edx, DWORD PTR [esi+116]
  000b5	74 5d		 je	 SHORT $L98846
  000b7	0f af 86 a4 00
	00 00		 imul	 eax, DWORD PTR [esi+164]
  000be	8b 8e 80 00 00
	00		 mov	 ecx, DWORD PTR [esi+128]
  000c4	8b f9		 mov	 edi, ecx
  000c6	2b fa		 sub	 edi, edx
  000c8	3b c7		 cmp	 eax, edi
  000ca	0f 8f b0 01 00
	00		 jg	 $L104882

; 329  :           
; 330  :           streamoff __eadj =  _M_base._M_get_offset(_M_ext_buf + __iadj, _M_ext_buf_end);

  000d0	03 c2		 add	 eax, edx
  000d2	f6 46 5c 04	 test	 BYTE PTR [esi+92], 4
  000d6	74 06		 je	 SHORT $L104686
  000d8	2b c8		 sub	 ecx, eax
  000da	8b f9		 mov	 edi, ecx
  000dc	eb 19		 jmp	 SHORT $L104894
$L104686:
  000de	33 d2		 xor	 edx, edx
  000e0	3b c1		 cmp	 eax, ecx
  000e2	8b f8		 mov	 edi, eax
  000e4	74 0b		 je	 SHORT $L104693
$L104691:
  000e6	80 3f 0a	 cmp	 BYTE PTR [edi], 10	; 0000000aH
  000e9	75 01		 jne	 SHORT $L104692
  000eb	42		 inc	 edx
$L104692:
  000ec	47		 inc	 edi
  000ed	3b f9		 cmp	 edi, ecx
  000ef	75 f5		 jne	 SHORT $L104691
$L104693:
  000f1	2b d0		 sub	 edx, eax
  000f3	03 d1		 add	 edx, ecx
  000f5	8b fa		 mov	 edi, edx
$L104894:

; 331  : 
; 332  :           if (__off == 0) {

  000f7	85 db		 test	 ebx, ebx

; 333  :             return pos_type(_M_base._M_seek(0, ios_base::cur) - __eadj);

  000f9	8d 4e 54	 lea	 ecx, DWORD PTR [esi+84]
  000fc	75 9f		 jne	 SHORT $L98850
  000fe	6a 02		 push	 2
  00100	53		 push	 ebx
  00101	e8 00 00 00 00	 call	 ?_M_seek@_Filebuf_base@_STL@@QAEJJH@Z ; _STL::_Filebuf_base::_M_seek
  00106	8b c8		 mov	 ecx, eax
  00108	8b 45 08	 mov	 eax, DWORD PTR ___$ReturnUdt$[ebp]
  0010b	2b cf		 sub	 ecx, edi
  0010d	89 08		 mov	 DWORD PTR [eax], ecx
  0010f	e9 72 01 00 00	 jmp	 $L104887
$L98846:

; 334  :           }  else {
; 335  :             return _M_seek_return(_M_base._M_seek(__off - __eadj, ios_base::cur), _State_type());
; 336  :           }
; 337  :         }
; 338  :         else
; 339  :           return pos_type(-1);
; 340  :       }
; 341  :       else {                    // Get the position.  Encoding is var width.
; 342  :         // Get position in internal buffer.
; 343  :         ptrdiff_t __ipos = this->gptr() - this->eback();
; 344  :         
; 345  :         // Get corresponding position in external buffer.
; 346  :         _State_type __state = _M_state;
; 347  :         int __epos = _M_codecvt->length(__state, _M_ext_buf, _M_ext_buf_end,
; 348  :                                         __ipos);

  00114	8b 8e a0 00 00
	00		 mov	 ecx, DWORD PTR [esi+160]
  0011a	8b f8		 mov	 edi, eax
  0011c	8b 86 84 00 00
	00		 mov	 eax, DWORD PTR [esi+132]
  00122	89 45 ec	 mov	 DWORD PTR ___state$98858[ebp], eax
  00125	8b 86 80 00 00
	00		 mov	 eax, DWORD PTR [esi+128]
  0012b	8b 19		 mov	 ebx, DWORD PTR [ecx]
  0012d	57		 push	 edi
  0012e	50		 push	 eax
  0012f	52		 push	 edx
  00130	8d 45 ec	 lea	 eax, DWORD PTR ___state$98858[ebp]
  00133	50		 push	 eax
  00134	ff 53 18	 call	 DWORD PTR [ebx+24]
  00137	8b d8		 mov	 ebx, eax

; 349  : 
; 350  :         // Sanity check (expensive): make sure __epos is the right answer.
; 351  :         _State_type __tmp_state = _M_state;

  00139	8b 86 84 00 00
	00		 mov	 eax, DWORD PTR [esi+132]

; 352  :         _Filebuf_Tmp_Buf<_CharT> __buf(__ipos);

  0013f	57		 push	 edi
  00140	89 45 e8	 mov	 DWORD PTR ___tmp_state$98860[ebp], eax
  00143	e8 00 00 00 00	 call	 ??_U@YAPAXI@Z		; operator new[]
  00148	8b d0		 mov	 edx, eax
  0014a	59		 pop	 ecx
  0014b	89 55 0c	 mov	 DWORD PTR ___buf$98875[ebp], edx

; 353  :         _CharT* __ibegin = __buf._M_ptr;
; 354  :         _CharT* __inext  = __ibegin;
; 355  : 
; 356  :         const char* __dummy;
; 357  :         typename _Codecvt::result __status
; 358  :           = _M_codecvt->in(__tmp_state,
; 359  :                            _M_ext_buf, _M_ext_buf + __epos, __dummy,
; 360  :                            __ibegin, __ibegin + __ipos, __inext);

  0014e	8b 46 74	 mov	 eax, DWORD PTR [esi+116]
  00151	8b 8e a0 00 00
	00		 mov	 ecx, DWORD PTR [esi+160]
  00157	83 65 fc 00	 and	 DWORD PTR __$EHRec$[ebp+8], 0
  0015b	89 55 f0	 mov	 DWORD PTR ___inext$98877[ebp], edx
  0015e	03 d7		 add	 edx, edi
  00160	8b 39		 mov	 edi, DWORD PTR [ecx]
  00162	89 55 10	 mov	 DWORD PTR tv738[ebp], edx
  00165	8d 55 f0	 lea	 edx, DWORD PTR ___inext$98877[ebp]
  00168	52		 push	 edx
  00169	ff 75 10	 push	 DWORD PTR tv738[ebp]
  0016c	8d 55 e4	 lea	 edx, DWORD PTR ___dummy$98878[ebp]
  0016f	ff 75 0c	 push	 DWORD PTR ___buf$98875[ebp]
  00172	52		 push	 edx
  00173	8d 14 18	 lea	 edx, DWORD PTR [eax+ebx]
  00176	52		 push	 edx
  00177	50		 push	 eax
  00178	8d 45 e8	 lea	 eax, DWORD PTR ___tmp_state$98860[ebp]
  0017b	50		 push	 eax
  0017c	ff 57 08	 call	 DWORD PTR [edi+8]

; 361  :         if (__status != _Codecvt::error &&
; 362  :             (__status == _Codecvt::noconv ||
; 363  :              (__inext == __ibegin + __ipos &&
; 364  :               equal(this->gptr(), this->eback(), __ibegin,
; 365  :                     _Eq_traits<traits_type>())))) {

  0017f	83 f8 02	 cmp	 eax, 2
  00182	0f 84 bc 00 00
	00		 je	 $L104881
  00188	83 f8 03	 cmp	 eax, 3
  0018b	74 2d		 je	 SHORT $L104880
  0018d	8b 45 10	 mov	 eax, DWORD PTR tv738[ebp]
  00190	39 45 f0	 cmp	 DWORD PTR ___inext$98877[ebp], eax
  00193	0f 85 ab 00 00
	00		 jne	 $L104881
  00199	8b 46 04	 mov	 eax, DWORD PTR [esi+4]
  0019c	8b 78 08	 mov	 edi, DWORD PTR [eax+8]
  0019f	8b 00		 mov	 eax, DWORD PTR [eax]
  001a1	3b c7		 cmp	 eax, edi
  001a3	74 15		 je	 SHORT $L104880
  001a5	8b 4d 0c	 mov	 ecx, DWORD PTR ___buf$98875[ebp]
  001a8	2b c8		 sub	 ecx, eax
$L104774:
  001aa	8a 10		 mov	 dl, BYTE PTR [eax]
  001ac	3a 14 01	 cmp	 dl, BYTE PTR [ecx+eax]
  001af	0f 85 8f 00 00
	00		 jne	 $L104881
  001b5	40		 inc	 eax
  001b6	3b c7		 cmp	 eax, edi
  001b8	75 f0		 jne	 SHORT $L104774
$L104880:

; 366  :           // Get the current position (at the end of the external buffer),
; 367  :           // then adjust it.  Again, it might be a text-oriented stream.
; 368  :           streamoff __cur = _M_base._M_seek(0, ios_base::cur);

  001ba	6a 02		 push	 2
  001bc	6a 00		 push	 0
  001be	8d 4e 54	 lea	 ecx, DWORD PTR [esi+84]
  001c1	e8 00 00 00 00	 call	 ?_M_seek@_Filebuf_base@_STL@@QAEJJH@Z ; _STL::_Filebuf_base::_M_seek

; 369  :           streamoff __adj =
; 370  :             _M_base._M_get_offset(_M_ext_buf, _M_ext_buf + __epos) -
; 371  :             _M_base._M_get_offset(_M_ext_buf, _M_ext_buf_end);

  001c6	8b 4e 74	 mov	 ecx, DWORD PTR [esi+116]
  001c9	8b 7e 5c	 mov	 edi, DWORD PTR [esi+92]
  001cc	03 d9		 add	 ebx, ecx
  001ce	83 e7 04	 and	 edi, 4
  001d1	89 45 10	 mov	 DWORD PTR ___cur$98916[ebp], eax
  001d4	74 04		 je	 SHORT $L104798
  001d6	2b d9		 sub	 ebx, ecx
  001d8	eb 19		 jmp	 SHORT $L104799
$L104798:
  001da	33 d2		 xor	 edx, edx
  001dc	3b cb		 cmp	 ecx, ebx
  001de	8b c1		 mov	 eax, ecx
  001e0	74 0b		 je	 SHORT $L104805
$L104803:
  001e2	80 38 0a	 cmp	 BYTE PTR [eax], 10	; 0000000aH
  001e5	75 01		 jne	 SHORT $L104804
  001e7	42		 inc	 edx
$L104804:
  001e8	40		 inc	 eax
  001e9	3b c3		 cmp	 eax, ebx
  001eb	75 f5		 jne	 SHORT $L104803
$L104805:
  001ed	2b d1		 sub	 edx, ecx
  001ef	03 d3		 add	 edx, ebx
  001f1	8b da		 mov	 ebx, edx
$L104799:
  001f3	85 ff		 test	 edi, edi
  001f5	8b 8e 80 00 00
	00		 mov	 ecx, DWORD PTR [esi+128]
  001fb	8b 46 74	 mov	 eax, DWORD PTR [esi+116]
  001fe	74 04		 je	 SHORT $L104825
  00200	2b c8		 sub	 ecx, eax
  00202	eb 19		 jmp	 SHORT $L104826
$L104825:
  00204	33 d2		 xor	 edx, edx
  00206	3b c1		 cmp	 eax, ecx
  00208	8b f8		 mov	 edi, eax
  0020a	74 0b		 je	 SHORT $L104832
$L104830:
  0020c	80 3f 0a	 cmp	 BYTE PTR [edi], 10	; 0000000aH
  0020f	75 01		 jne	 SHORT $L104831
  00211	42		 inc	 edx
$L104831:
  00212	47		 inc	 edi
  00213	3b f9		 cmp	 edi, ecx
  00215	75 f5		 jne	 SHORT $L104830
$L104832:
  00217	2b d0		 sub	 edx, eax
  00219	03 d1		 add	 edx, ecx
  0021b	8b ca		 mov	 ecx, edx
$L104826:

; 372  :           if (__cur != -1 && __cur + __adj >= 0)

  0021d	8b 45 10	 mov	 eax, DWORD PTR ___cur$98916[ebp]
  00220	2b d9		 sub	 ebx, ecx
  00222	83 f8 ff	 cmp	 eax, -1
  00225	74 1d		 je	 SHORT $L104881
  00227	03 c3		 add	 eax, ebx
  00229	78 19		 js	 SHORT $L104881

; 373  :             return _M_seek_return(__cur + __adj, __state);

  0022b	ff 75 ec	 push	 DWORD PTR ___state$98858[ebp]
  0022e	8b ce		 mov	 ecx, esi
  00230	50		 push	 eax
  00231	ff 75 08	 push	 DWORD PTR ___$ReturnUdt$[ebp]
  00234	e8 00 00 00 00	 call	 ?_M_seek_return@?$basic_filebuf@DV?$char_traits@D@_STL@@@_STL@@AAE?AV?$fpos@H@2@JH@Z ; _STL::basic_filebuf<char,_STL::char_traits<char> >::_M_seek_return
  00239	ff 75 0c	 push	 DWORD PTR ___buf$98875[ebp]
  0023c	e8 00 00 00 00	 call	 ??_V@YAXPAX@Z		; operator delete[]
  00241	59		 pop	 ecx
  00242	eb 37		 jmp	 SHORT $L104892
$L104881:

; 374  :           else
; 375  :             return pos_type(-1);
; 376  :         }
; 377  :         else                    // We failed the sanity check.
; 378  :           return pos_type(-1);

  00244	8b 75 08	 mov	 esi, DWORD PTR ___$ReturnUdt$[ebp]
  00247	ff 75 0c	 push	 DWORD PTR ___buf$98875[ebp]
  0024a	83 0e ff	 or	 DWORD PTR [esi], -1
  0024d	83 66 04 00	 and	 DWORD PTR [esi+4], 0
  00251	e8 00 00 00 00	 call	 ??_V@YAXPAX@Z		; operator delete[]
  00256	59		 pop	 ecx
  00257	8b c6		 mov	 eax, esi

; 379  :       }
; 380  :     }
; 381  :     else                        // Unrecognized value for __whence.
; 382  :       return pos_type(-1);

  00259	eb 2f		 jmp	 SHORT $L98926
$L98831:

; 298  :       return _M_seek_return(_M_base._M_seek(_M_width * __off, __whence),
; 299  :                             _State_type());

  0025b	6a 00		 push	 0
  0025d	57		 push	 edi
$L104893:
  0025e	8b 86 a4 00 00
	00		 mov	 eax, DWORD PTR [esi+164]
  00264	0f af c3	 imul	 eax, ebx
  00267	50		 push	 eax
  00268	8d 4e 54	 lea	 ecx, DWORD PTR [esi+84]
$L104888:
  0026b	e8 00 00 00 00	 call	 ?_M_seek@_Filebuf_base@_STL@@QAEJJH@Z ; _STL::_Filebuf_base::_M_seek
  00270	50		 push	 eax
  00271	ff 75 08	 push	 DWORD PTR ___$ReturnUdt$[ebp]
  00274	8b ce		 mov	 ecx, esi
  00276	e8 00 00 00 00	 call	 ?_M_seek_return@?$basic_filebuf@DV?$char_traits@D@_STL@@@_STL@@AAE?AV?$fpos@H@2@JH@Z ; _STL::basic_filebuf<char,_STL::char_traits<char> >::_M_seek_return
$L104892:
  0027b	8b 45 08	 mov	 eax, DWORD PTR ___$ReturnUdt$[ebp]
  0027e	eb 0a		 jmp	 SHORT $L98926
$L104882:

; 383  :   }
; 384  :   else
; 385  :     return pos_type(-1);

  00280	8b 45 08	 mov	 eax, DWORD PTR ___$ReturnUdt$[ebp]
  00283	83 08 ff	 or	 DWORD PTR [eax], -1
$L104887:
  00286	83 60 04 00	 and	 DWORD PTR [eax+4], 0
$L98926:

; 386  : }

  0028a	8b 4d f4	 mov	 ecx, DWORD PTR __$EHRec$[ebp]
  0028d	5f		 pop	 edi
  0028e	5e		 pop	 esi
  0028f	5b		 pop	 ebx
  00290	64 89 0d 00 00
	00 00		 mov	 DWORD PTR fs:__except_list, ecx
  00297	c9		 leave
  00298	c2 10 00	 ret	 16			; 00000010H
_TEXT	ENDS
;	COMDAT text$x
text$x	SEGMENT
$L104622:
  00000	8d 4d 0c	 lea	 ecx, DWORD PTR ___buf$98875[ebp]
  00003	e9 00 00 00 00	 jmp	 ??1?$_Filebuf_Tmp_Buf@D@_STL@@QAE@XZ ; _STL::_Filebuf_Tmp_Buf<char>::~_Filebuf_Tmp_Buf<char>
__ehhandler$?seekoff@?$basic_filebuf@DV?$char_traits@D@_STL@@@_STL@@MAE?AV?$fpos@H@2@JHH@Z:
  00008	b8 00 00 00 00	 mov	 eax, OFFSET FLAT:$T104869
  0000d	e9 00 00 00 00	 jmp	 ___CxxFrameHandler
text$x	ENDS
?seekoff@?$basic_filebuf@DV?$char_traits@D@_STL@@@_STL@@MAE?AV?$fpos@H@2@JHH@Z ENDP ; _STL::basic_filebuf<char,_STL::char_traits<char> >::seekoff
; Function compile flags: /Ogsy
; File c:\stlport-4.6.1\stlport\stl\_fstream.h
;	COMDAT ??1?$_Filebuf_Tmp_Buf@D@_STL@@QAE@XZ
_TEXT	SEGMENT
??1?$_Filebuf_Tmp_Buf@D@_STL@@QAE@XZ PROC NEAR		; _STL::_Filebuf_Tmp_Buf<char>::~_Filebuf_Tmp_Buf<char>, COMDAT
; _this$ = ecx

; 374  :   ~_Filebuf_Tmp_Buf() { delete[] _M_ptr; }

  00000	ff 31		 push	 DWORD PTR [ecx]
  00002	e8 00 00 00 00	 call	 ??_V@YAXPAX@Z		; operator delete[]
  00007	59		 pop	 ecx
  00008	c3		 ret	 0
??1?$_Filebuf_Tmp_Buf@D@_STL@@QAE@XZ ENDP		; _STL::_Filebuf_Tmp_Buf<char>::~_Filebuf_Tmp_Buf<char>
; Function compile flags: /Ogsy
_TEXT	ENDS
;	COMDAT ?_M_seek_return@?$basic_filebuf@DV?$char_traits@D@_STL@@@_STL@@AAE?AV?$fpos@H@2@JH@Z
_TEXT	SEGMENT
___$ReturnUdt$ = 8					; size = 4
___off$ = 12						; size = 4
___state$ = 16						; size = 4
?_M_seek_return@?$basic_filebuf@DV?$char_traits@D@_STL@@@_STL@@AAE?AV?$fpos@H@2@JH@Z PROC NEAR ; _STL::basic_filebuf<char,_STL::char_traits<char> >::_M_seek_return, COMDAT
; _this$ = ecx

; 265  :   pos_type _M_seek_return(off_type __off, _State_type __state) {

  00000	56		 push	 esi
  00001	57		 push	 edi

; 266  :     if (__off != -1) {

  00002	8b 7c 24 10	 mov	 edi, DWORD PTR ___off$[esp+4]
  00006	83 ff ff	 cmp	 edi, -1
  00009	8b f1		 mov	 esi, ecx
  0000b	74 30		 je	 SHORT $L104923
  0000d	53		 push	 ebx

; 267  :       if (_M_in_input_mode)

  0000e	33 db		 xor	 ebx, ebx
  00010	38 5e 67	 cmp	 BYTE PTR [esi+103], bl
  00013	74 05		 je	 SHORT $L101354

; 268  :         _M_exit_input_mode();

  00015	e8 00 00 00 00	 call	 ?_M_exit_input_mode@?$basic_filebuf@DV?$char_traits@D@_STL@@@_STL@@AAEXXZ ; _STL::basic_filebuf<char,_STL::char_traits<char> >::_M_exit_input_mode
$L101354:

; 269  :       _M_in_input_mode = false;
; 270  :       _M_in_output_mode = false;
; 271  :       _M_in_putback_mode = false;
; 272  :       _M_in_error_mode = false;
; 273  :       this->setg(0, 0, 0);

  0001a	8b 46 04	 mov	 eax, DWORD PTR [esi+4]
  0001d	88 5e 67	 mov	 BYTE PTR [esi+103], bl
  00020	88 5e 68	 mov	 BYTE PTR [esi+104], bl
  00023	88 5e 6a	 mov	 BYTE PTR [esi+106], bl
  00026	88 5e 69	 mov	 BYTE PTR [esi+105], bl
  00029	89 58 08	 mov	 DWORD PTR [eax+8], ebx
  0002c	89 18		 mov	 DWORD PTR [eax], ebx
  0002e	89 58 04	 mov	 DWORD PTR [eax+4], ebx

; 274  :       this->setp(0, 0);

  00031	8b 76 08	 mov	 esi, DWORD PTR [esi+8]
  00034	89 5e 08	 mov	 DWORD PTR [esi+8], ebx
  00037	89 1e		 mov	 DWORD PTR [esi], ebx
  00039	89 5e 04	 mov	 DWORD PTR [esi+4], ebx
  0003c	5b		 pop	 ebx
$L104923:

; 275  :     }
; 276  :     
; 277  :     pos_type __result(__off);
; 278  :     __result.state(__state);
; 279  :     return __result;

  0003d	8b 44 24 0c	 mov	 eax, DWORD PTR ___$ReturnUdt$[esp+4]
  00041	8b 4c 24 14	 mov	 ecx, DWORD PTR ___state$[esp+4]
  00045	89 38		 mov	 DWORD PTR [eax], edi
  00047	5f		 pop	 edi
  00048	89 48 04	 mov	 DWORD PTR [eax+4], ecx
  0004b	5e		 pop	 esi

; 280  :   }

  0004c	c2 0c 00	 ret	 12			; 0000000cH
?_M_seek_return@?$basic_filebuf@DV?$char_traits@D@_STL@@@_STL@@AAE?AV?$fpos@H@2@JH@Z ENDP ; _STL::basic_filebuf<char,_STL::char_traits<char> >::_M_seek_return
_TEXT	ENDS
PUBLIC	?_M_exit_putback_mode@?$basic_filebuf@DV?$char_traits@D@_STL@@@_STL@@AAEXXZ ; _STL::basic_filebuf<char,_STL::char_traits<char> >::_M_exit_putback_mode
; Function compile flags: /Ogsy
; File c:\stlport-4.6.1\stlport\stl\_fstream.c
;	COMDAT ?_M_seek_init@?$basic_filebuf@DV?$char_traits@D@_STL@@@_STL@@AAE_N_N@Z
_TEXT	SEGMENT
___do_unshift$ = 8					; size = 1
?_M_seek_init@?$basic_filebuf@DV?$char_traits@D@_STL@@@_STL@@AAE_N_N@Z PROC NEAR ; _STL::basic_filebuf<char,_STL::char_traits<char> >::_M_seek_init, COMDAT
; _this$ = ecx

; 699  : bool basic_filebuf<_CharT, _Traits>::_M_seek_init(bool __do_unshift) {

  00000	53		 push	 ebx
  00001	56		 push	 esi
  00002	8b f1		 mov	 esi, ecx

; 700  :   // If we're in error mode, leave it.
; 701  :    _M_in_error_mode = false;

  00004	33 db		 xor	 ebx, ebx

; 702  :    
; 703  :   // Flush the output buffer if we're in output mode, and (conditionally)
; 704  :   // emit an unshift sequence.
; 705  :   if (_M_in_output_mode) {

  00006	38 5e 68	 cmp	 BYTE PTR [esi+104], bl
  00009	88 5e 69	 mov	 BYTE PTR [esi+105], bl
  0000c	74 3e		 je	 SHORT $L101737

; 706  :     bool __ok = !traits_type::eq_int_type(this->overflow(traits_type::eof()),
; 707  :                                           traits_type::eof());

  0000e	8b 06		 mov	 eax, DWORD PTR [esi]
  00010	6a ff		 push	 -1
  00012	ff 50 30	 call	 DWORD PTR [eax+48]
  00015	83 f8 ff	 cmp	 eax, -1
  00018	0f 95 c0	 setne	 al

; 708  :     if (__do_unshift)

  0001b	38 5c 24 0c	 cmp	 BYTE PTR ___do_unshift$[esp+4], bl
  0001f	74 11		 je	 SHORT $L104941

; 709  :       __ok = __ok && this->_M_unshift();

  00021	3a c3		 cmp	 al, bl
  00023	74 0b		 je	 SHORT $L104940
  00025	8b ce		 mov	 ecx, esi
  00027	e8 00 00 00 00	 call	 ?_M_unshift@?$basic_filebuf@DV?$char_traits@D@_STL@@@_STL@@AAE_NXZ ; _STL::basic_filebuf<char,_STL::char_traits<char> >::_M_unshift
  0002c	84 c0		 test	 al, al
  0002e	75 1c		 jne	 SHORT $L101737
$L104940:
  00030	32 c0		 xor	 al, al
$L104941:

; 710  :     if (!__ok) {

  00032	3a c3		 cmp	 al, bl
  00034	75 16		 jne	 SHORT $L101737

; 711  :       _M_in_output_mode = false;

  00036	88 5e 68	 mov	 BYTE PTR [esi+104], bl

; 712  :       _M_in_error_mode = true;

  00039	c6 46 69 01	 mov	 BYTE PTR [esi+105], 1

; 713  :       this->setp(0, 0);

  0003d	8b 76 08	 mov	 esi, DWORD PTR [esi+8]
  00040	89 5e 08	 mov	 DWORD PTR [esi+8], ebx
  00043	89 1e		 mov	 DWORD PTR [esi], ebx
  00045	89 5e 04	 mov	 DWORD PTR [esi+4], ebx

; 714  :       return false;

  00048	32 c0		 xor	 al, al
  0004a	eb 13		 jmp	 SHORT $L101731
$L101737:

; 715  :     }
; 716  :   }
; 717  : 
; 718  :   // Discard putback characters, if any.
; 719  :   if (_M_in_input_mode && _M_in_putback_mode)

  0004c	38 5e 67	 cmp	 BYTE PTR [esi+103], bl
  0004f	74 0c		 je	 SHORT $L101738
  00051	38 5e 6a	 cmp	 BYTE PTR [esi+106], bl
  00054	74 07		 je	 SHORT $L101738

; 720  :     _M_exit_putback_mode();

  00056	8b ce		 mov	 ecx, esi
  00058	e8 00 00 00 00	 call	 ?_M_exit_putback_mode@?$basic_filebuf@DV?$char_traits@D@_STL@@@_STL@@AAEXXZ ; _STL::basic_filebuf<char,_STL::char_traits<char> >::_M_exit_putback_mode
$L101738:

; 721  : 
; 722  :   return true;

  0005d	b0 01		 mov	 al, 1
$L101731:
  0005f	5e		 pop	 esi
  00060	5b		 pop	 ebx

; 723  : }

  00061	c2 04 00	 ret	 4
?_M_seek_init@?$basic_filebuf@DV?$char_traits@D@_STL@@@_STL@@AAE_N_N@Z ENDP ; _STL::basic_filebuf<char,_STL::char_traits<char> >::_M_seek_init
; Function compile flags: /Ogsy
; File c:\stlport-4.6.1\stlport\stl\_fstream.h
_TEXT	ENDS
;	COMDAT ?_M_exit_putback_mode@?$basic_filebuf@DV?$char_traits@D@_STL@@@_STL@@AAEXXZ
_TEXT	SEGMENT
?_M_exit_putback_mode@?$basic_filebuf@DV?$char_traits@D@_STL@@@_STL@@AAEXXZ PROC NEAR ; _STL::basic_filebuf<char,_STL::char_traits<char> >::_M_exit_putback_mode, COMDAT
; _this$ = ecx

; 245  :     this->setg(_M_saved_eback, _M_saved_gptr, _M_saved_egptr);

  00000	8b 81 9c 00 00
	00		 mov	 eax, DWORD PTR [ecx+156]
  00006	8b 51 04	 mov	 edx, DWORD PTR [ecx+4]
  00009	56		 push	 esi
  0000a	8b b1 98 00 00
	00		 mov	 esi, DWORD PTR [ecx+152]
  00010	57		 push	 edi
  00011	8b b9 94 00 00
	00		 mov	 edi, DWORD PTR [ecx+148]
  00017	89 7a 08	 mov	 DWORD PTR [edx+8], edi
  0001a	2b c6		 sub	 eax, esi
  0001c	89 32		 mov	 DWORD PTR [edx], esi
  0001e	5f		 pop	 edi
  0001f	89 42 04	 mov	 DWORD PTR [edx+4], eax

; 246  :     _M_in_putback_mode = false;

  00022	c6 41 6a 00	 mov	 BYTE PTR [ecx+106], 0
  00026	5e		 pop	 esi

; 247  :   }

  00027	c3		 ret	 0
?_M_exit_putback_mode@?$basic_filebuf@DV?$char_traits@D@_STL@@@_STL@@AAEXXZ ENDP ; _STL::basic_filebuf<char,_STL::char_traits<char> >::_M_exit_putback_mode
; Function compile flags: /Ogsy
; File c:\stlport-4.6.1\stlport\stl\_fstream.c
_TEXT	ENDS
;	COMDAT ?seekpos@?$basic_filebuf@DV?$char_traits@D@_STL@@@_STL@@MAE?AV?$fpos@H@2@V32@H@Z
_TEXT	SEGMENT
___$ReturnUdt$ = 8					; size = 4
___pos$ = 12						; size = 8
___formal$ = 20						; size = 4
?seekpos@?$basic_filebuf@DV?$char_traits@D@_STL@@@_STL@@MAE?AV?$fpos@H@2@V32@H@Z PROC NEAR ; _STL::basic_filebuf<char,_STL::char_traits<char> >::seekpos, COMDAT
; _this$ = ecx

; 393  : {

  00000	55		 push	 ebp
  00001	8b ec		 mov	 ebp, esp
  00003	56		 push	 esi
  00004	8b f1		 mov	 esi, ecx

; 394  :   if (this->is_open()) {

  00006	80 7e 60 00	 cmp	 BYTE PTR [esi+96], 0
  0000a	74 3f		 je	 SHORT $L98936

; 395  :     if (!_M_seek_init(true))

  0000c	6a 01		 push	 1
  0000e	e8 00 00 00 00	 call	 ?_M_seek_init@?$basic_filebuf@DV?$char_traits@D@_STL@@@_STL@@AAE_N_N@Z ; _STL::basic_filebuf<char,_STL::char_traits<char> >::_M_seek_init
  00013	84 c0		 test	 al, al

; 396  :       return pos_type(-1);

  00015	74 34		 je	 SHORT $L98936

; 397  : 
; 398  :     streamoff __off = off_type(__pos);
; 399  :     if (__off != -1 && _M_base._M_seek(__off, ios_base::beg) != -1) {

  00017	83 7d 0c ff	 cmp	 DWORD PTR ___pos$[ebp], -1
  0001b	74 2e		 je	 SHORT $L98936
  0001d	6a 01		 push	 1
  0001f	ff 75 0c	 push	 DWORD PTR ___pos$[ebp]
  00022	8d 4e 54	 lea	 ecx, DWORD PTR [esi+84]
  00025	e8 00 00 00 00	 call	 ?_M_seek@_Filebuf_base@_STL@@QAEJJH@Z ; _STL::_Filebuf_base::_M_seek
  0002a	83 f8 ff	 cmp	 eax, -1
  0002d	74 1c		 je	 SHORT $L98936

; 400  :       _M_state = __pos.state();

  0002f	8b 45 10	 mov	 eax, DWORD PTR ___pos$[ebp+4]

; 401  :       return _M_seek_return(__off, __pos.state());

  00032	50		 push	 eax
  00033	ff 75 0c	 push	 DWORD PTR ___pos$[ebp]
  00036	8b ce		 mov	 ecx, esi
  00038	ff 75 08	 push	 DWORD PTR ___$ReturnUdt$[ebp]
  0003b	89 86 84 00 00
	00		 mov	 DWORD PTR [esi+132], eax
  00041	e8 00 00 00 00	 call	 ?_M_seek_return@?$basic_filebuf@DV?$char_traits@D@_STL@@@_STL@@AAE?AV?$fpos@H@2@JH@Z ; _STL::basic_filebuf<char,_STL::char_traits<char> >::_M_seek_return
  00046	8b 45 08	 mov	 eax, DWORD PTR ___$ReturnUdt$[ebp]
  00049	eb 0a		 jmp	 SHORT $L98944
$L98936:

; 402  :     }
; 403  :     else
; 404  :       return pos_type(-1);
; 405  :   }
; 406  :   else
; 407  :     return pos_type(-1);

  0004b	8b 45 08	 mov	 eax, DWORD PTR ___$ReturnUdt$[ebp]
  0004e	83 08 ff	 or	 DWORD PTR [eax], -1
  00051	83 60 04 00	 and	 DWORD PTR [eax+4], 0
$L98944:
  00055	5e		 pop	 esi

; 408  : }

  00056	5d		 pop	 ebp
  00057	c2 10 00	 ret	 16			; 00000010H
?seekpos@?$basic_filebuf@DV?$char_traits@D@_STL@@@_STL@@MAE?AV?$fpos@H@2@V32@H@Z ENDP ; _STL::basic_filebuf<char,_STL::char_traits<char> >::seekpos
; Function compile flags: /Ogsy
_TEXT	ENDS
;	COMDAT ??_G?$basic_filebuf@DV?$char_traits@D@_STL@@@_STL@@UAEPAXI@Z
_TEXT	SEGMENT
___flags$ = 8						; size = 4
??_G?$basic_filebuf@DV?$char_traits@D@_STL@@@_STL@@UAEPAXI@Z PROC NEAR ; _STL::basic_filebuf<char,_STL::char_traits<char> >::`scalar deleting destructor', COMDAT
; _this$ = ecx
  00000	56		 push	 esi
  00001	8b f1		 mov	 esi, ecx
  00003	e8 00 00 00 00	 call	 ??1?$basic_filebuf@DV?$char_traits@D@_STL@@@_STL@@UAE@XZ ; _STL::basic_filebuf<char,_STL::char_traits<char> >::~basic_filebuf<char,_STL::char_traits<char> >
  00008	f6 44 24 08 01	 test	 BYTE PTR ___flags$[esp], 1
  0000d	74 07		 je	 SHORT $L99020
  0000f	56		 push	 esi
  00010	e8 00 00 00 00	 call	 ??3@YAXPAX@Z		; operator delete
  00015	59		 pop	 ecx
$L99020:
  00016	8b c6		 mov	 eax, esi
  00018	5e		 pop	 esi
  00019	c2 04 00	 ret	 4
??_G?$basic_filebuf@DV?$char_traits@D@_STL@@@_STL@@UAEPAXI@Z ENDP ; _STL::basic_filebuf<char,_STL::char_traits<char> >::`scalar deleting destructor'
_TEXT	ENDS
PUBLIC	??0?$vector@PAVAPPEND_PATCH_NODE@@V?$allocator@PAVAPPEND_PATCH_NODE@@@_STL@@@_STL@@QAE@ABV?$allocator@PAVAPPEND_PATCH_NODE@@@1@@Z ; _STL::vector<APPEND_PATCH_NODE *,_STL::allocator<APPEND_PATCH_NODE *> >::vector<APPEND_PATCH_NODE *,_STL::allocator<APPEND_PATCH_NODE *> >
; Function compile flags: /Ogsy
; File c:\stlport-4.6.1\stlport\stl\_vector.h
;	COMDAT ??0?$vector@PAVAPPEND_PATCH_NODE@@V?$allocator@PAVAPPEND_PATCH_NODE@@@_STL@@@_STL@@QAE@ABV?$allocator@PAVAPPEND_PATCH_NODE@@@1@@Z
_TEXT	SEGMENT
___a$ = 8						; size = 4
??0?$vector@PAVAPPEND_PATCH_NODE@@V?$allocator@PAVAPPEND_PATCH_NODE@@@_STL@@@_STL@@QAE@ABV?$allocator@PAVAPPEND_PATCH_NODE@@@1@@Z PROC NEAR ; _STL::vector<APPEND_PATCH_NODE *,_STL::allocator<APPEND_PATCH_NODE *> >::vector<APPEND_PATCH_NODE *,_STL::allocator<APPEND_PATCH_NODE *> >, COMDAT
; _this$ = ecx

; 199  :     _Vector_base<_Tp, _Alloc>(__a) {}

  00000	56		 push	 esi
  00001	ff 74 24 08	 push	 DWORD PTR ___a$[esp]
  00005	8b f1		 mov	 esi, ecx
  00007	e8 00 00 00 00	 call	 ??0?$_Vector_base@PAVAPPEND_PATCH_NODE@@V?$allocator@PAVAPPEND_PATCH_NODE@@@_STL@@@_STL@@QAE@ABV?$allocator@PAVAPPEND_PATCH_NODE@@@1@@Z ; _STL::_Vector_base<APPEND_PATCH_NODE *,_STL::allocator<APPEND_PATCH_NODE *> >::_Vector_base<APPEND_PATCH_NODE *,_STL::allocator<APPEND_PATCH_NODE *> >
  0000c	8b c6		 mov	 eax, esi
  0000e	5e		 pop	 esi
  0000f	c2 04 00	 ret	 4
??0?$vector@PAVAPPEND_PATCH_NODE@@V?$allocator@PAVAPPEND_PATCH_NODE@@@_STL@@@_STL@@QAE@ABV?$allocator@PAVAPPEND_PATCH_NODE@@@1@@Z ENDP ; _STL::vector<APPEND_PATCH_NODE *,_STL::allocator<APPEND_PATCH_NODE *> >::vector<APPEND_PATCH_NODE *,_STL::allocator<APPEND_PATCH_NODE *> >
_TEXT	ENDS
PUBLIC	??1?$vector@PAVAPPEND_PATCH_NODE@@V?$allocator@PAVAPPEND_PATCH_NODE@@@_STL@@@_STL@@QAE@XZ ; _STL::vector<APPEND_PATCH_NODE *,_STL::allocator<APPEND_PATCH_NODE *> >::~vector<APPEND_PATCH_NODE *,_STL::allocator<APPEND_PATCH_NODE *> >
; Function compile flags: /Ogsy
;	COMDAT ??1?$vector@PAVAPPEND_PATCH_NODE@@V?$allocator@PAVAPPEND_PATCH_NODE@@@_STL@@@_STL@@QAE@XZ
_TEXT	SEGMENT
??1?$vector@PAVAPPEND_PATCH_NODE@@V?$allocator@PAVAPPEND_PATCH_NODE@@@_STL@@@_STL@@QAE@XZ PROC NEAR ; _STL::vector<APPEND_PATCH_NODE *,_STL::allocator<APPEND_PATCH_NODE *> >::~vector<APPEND_PATCH_NODE *,_STL::allocator<APPEND_PATCH_NODE *> >, COMDAT
; _this$ = ecx

; 258  :   ~vector() { _Destroy(this->_M_start, this->_M_finish); }

  00000	e9 00 00 00 00	 jmp	 ??1?$_Vector_base@PAVAPPEND_PATCH_NODE@@V?$allocator@PAVAPPEND_PATCH_NODE@@@_STL@@@_STL@@QAE@XZ ; _STL::_Vector_base<APPEND_PATCH_NODE *,_STL::allocator<APPEND_PATCH_NODE *> >::~_Vector_base<APPEND_PATCH_NODE *,_STL::allocator<APPEND_PATCH_NODE *> >
??1?$vector@PAVAPPEND_PATCH_NODE@@V?$allocator@PAVAPPEND_PATCH_NODE@@@_STL@@@_STL@@QAE@XZ ENDP ; _STL::vector<APPEND_PATCH_NODE *,_STL::allocator<APPEND_PATCH_NODE *> >::~vector<APPEND_PATCH_NODE *,_STL::allocator<APPEND_PATCH_NODE *> >
_TEXT	ENDS
PUBLIC	??_R4?$basic_ifstream@DV?$char_traits@D@_STL@@@_STL@@6B@ ; _STL::basic_ifstream<char,_STL::char_traits<char> >::`RTTI Complete Object Locator'
PUBLIC	??_R0?AV?$basic_ifstream@DV?$char_traits@D@_STL@@@_STL@@@8 ; _STL::basic_ifstream<char,_STL::char_traits<char> > `RTTI Type Descriptor'
PUBLIC	??_R3?$basic_ifstream@DV?$char_traits@D@_STL@@@_STL@@8 ; _STL::basic_ifstream<char,_STL::char_traits<char> >::`RTTI Class Hierarchy Descriptor'
PUBLIC	??_R2?$basic_ifstream@DV?$char_traits@D@_STL@@@_STL@@8 ; _STL::basic_ifstream<char,_STL::char_traits<char> >::`RTTI Base Class Array'
PUBLIC	??_R1A@?0A@A@?$basic_ifstream@DV?$char_traits@D@_STL@@@_STL@@8 ; _STL::basic_ifstream<char,_STL::char_traits<char> >::`RTTI Base Class Descriptor at (0,-1,0,0)'
PUBLIC	??1?$basic_ifstream@DV?$char_traits@D@_STL@@@_STL@@UAE@XZ ; _STL::basic_ifstream<char,_STL::char_traits<char> >::~basic_ifstream<char,_STL::char_traits<char> >
PUBLIC	??_7?$basic_ifstream@DV?$char_traits@D@_STL@@@_STL@@6B@ ; _STL::basic_ifstream<char,_STL::char_traits<char> >::`vftable'
PUBLIC	??_G?$basic_ifstream@DV?$char_traits@D@_STL@@@_STL@@UAEPAXI@Z ; _STL::basic_ifstream<char,_STL::char_traits<char> >::`scalar deleting destructor'
EXTRN	??_E?$basic_ifstream@DV?$char_traits@D@_STL@@@_STL@@UAEPAXI@Z:NEAR ; _STL::basic_ifstream<char,_STL::char_traits<char> >::`vector deleting destructor'
;	COMDAT xdata$x
; File c:\stlport-4.6.1\stlport\stl\_istream.h
xdata$x	SEGMENT
$T105068 DD	0ffffffffH
	DD	FLAT:$L105059
$T105066 DD	019930520H
	DD	01H
	DD	FLAT:$T105068
	DD	2 DUP(00H)
	DD	2 DUP(00H)
xdata$x	ENDS
;	COMDAT ??_7?$basic_ifstream@DV?$char_traits@D@_STL@@@_STL@@6B@
CONST	SEGMENT
??_7?$basic_ifstream@DV?$char_traits@D@_STL@@@_STL@@6B@ DD FLAT:??_R4?$basic_ifstream@DV?$char_traits@D@_STL@@@_STL@@6B@ ; _STL::basic_ifstream<char,_STL::char_traits<char> >::`vftable'
	DD	FLAT:??_E?$basic_ifstream@DV?$char_traits@D@_STL@@@_STL@@UAEPAXI@Z
CONST	ENDS
;	COMDAT ??_R4?$basic_ifstream@DV?$char_traits@D@_STL@@@_STL@@6B@
rdata$r	SEGMENT
??_R4?$basic_ifstream@DV?$char_traits@D@_STL@@@_STL@@6B@ DD 00H ; _STL::basic_ifstream<char,_STL::char_traits<char> >::`RTTI Complete Object Locator'
	DD	0bcH
	DD	00H
	DD	FLAT:??_R0?AV?$basic_ifstream@DV?$char_traits@D@_STL@@@_STL@@@8
	DD	FLAT:??_R3?$basic_ifstream@DV?$char_traits@D@_STL@@@_STL@@8
rdata$r	ENDS
;	COMDAT ??_R0?AV?$basic_ifstream@DV?$char_traits@D@_STL@@@_STL@@@8
_DATA	SEGMENT
??_R0?AV?$basic_ifstream@DV?$char_traits@D@_STL@@@_STL@@@8 DD FLAT:??_7type_info@@6B@ ; _STL::basic_ifstream<char,_STL::char_traits<char> > `RTTI Type Descriptor'
	DD	00H
	DB	'.?AV?$basic_ifstream@DV?$char_traits@D@_STL@@@_STL@@', 00H
_DATA	ENDS
;	COMDAT ??_R3?$basic_ifstream@DV?$char_traits@D@_STL@@@_STL@@8
rdata$r	SEGMENT
??_R3?$basic_ifstream@DV?$char_traits@D@_STL@@@_STL@@8 DD 00H ; _STL::basic_ifstream<char,_STL::char_traits<char> >::`RTTI Class Hierarchy Descriptor'
	DD	00H
	DD	04H
	DD	FLAT:??_R2?$basic_ifstream@DV?$char_traits@D@_STL@@@_STL@@8
rdata$r	ENDS
;	COMDAT ??_R2?$basic_ifstream@DV?$char_traits@D@_STL@@@_STL@@8
rdata$r	SEGMENT
??_R2?$basic_ifstream@DV?$char_traits@D@_STL@@@_STL@@8 DD FLAT:??_R1A@?0A@A@?$basic_ifstream@DV?$char_traits@D@_STL@@@_STL@@8 ; _STL::basic_ifstream<char,_STL::char_traits<char> >::`RTTI Base Class Array'
	DD	FLAT:??_R1A@?0A@A@?$basic_istream@DV?$char_traits@D@_STL@@@_STL@@8
	DD	FLAT:??_R1A@A@3BA@?$basic_ios@DV?$char_traits@D@_STL@@@_STL@@8
	DD	FLAT:??_R1A@A@3A@ios_base@_STL@@8
rdata$r	ENDS
;	COMDAT ??_R1A@?0A@A@?$basic_ifstream@DV?$char_traits@D@_STL@@@_STL@@8
rdata$r	SEGMENT
??_R1A@?0A@A@?$basic_ifstream@DV?$char_traits@D@_STL@@@_STL@@8 DD FLAT:??_R0?AV?$basic_ifstream@DV?$char_traits@D@_STL@@@_STL@@@8 ; _STL::basic_ifstream<char,_STL::char_traits<char> >::`RTTI Base Class Descriptor at (0,-1,0,0)'
	DD	03H
	DD	00H
	DD	0ffffffffH
	DD	00H
	DD	00H
; Function compile flags: /Ogsy
; File c:\stlport-4.6.1\stlport\stl\_fstream.h
rdata$r	ENDS
;	COMDAT ??1?$basic_ifstream@DV?$char_traits@D@_STL@@@_STL@@UAE@XZ
_TEXT	SEGMENT
_this$ = -16						; size = 4
__$EHRec$ = -12						; size = 12
??1?$basic_ifstream@DV?$char_traits@D@_STL@@@_STL@@UAE@XZ PROC NEAR ; _STL::basic_ifstream<char,_STL::char_traits<char> >::~basic_ifstream<char,_STL::char_traits<char> >, COMDAT
; _this$ = ecx

; 543  :   ~basic_ifstream() {}

  00000	b8 00 00 00 00	 mov	 eax, __ehhandler$??1?$basic_ifstream@DV?$char_traits@D@_STL@@@_STL@@UAE@XZ
  00005	e8 00 00 00 00	 call	 __EH_prolog
  0000a	51		 push	 ecx
  0000b	8b 81 44 ff ff
	ff		 mov	 eax, DWORD PTR [ecx-188]
  00011	8b 40 04	 mov	 eax, DWORD PTR [eax+4]
  00014	56		 push	 esi
  00015	89 4d f0	 mov	 DWORD PTR _this$[ebp], ecx
  00018	c7 84 08 44 ff
	ff ff 00 00 00
	00		 mov	 DWORD PTR [eax+ecx-188], OFFSET FLAT:??_7?$basic_ifstream@DV?$char_traits@D@_STL@@@_STL@@6B@
  00023	83 65 fc 00	 and	 DWORD PTR __$EHRec$[ebp+8], 0
  00027	8d b1 4c ff ff
	ff		 lea	 esi, DWORD PTR [ecx-180]
  0002d	8b ce		 mov	 ecx, esi
  0002f	e8 00 00 00 00	 call	 ??1?$basic_filebuf@DV?$char_traits@D@_STL@@@_STL@@UAE@XZ ; _STL::basic_filebuf<char,_STL::char_traits<char> >::~basic_filebuf<char,_STL::char_traits<char> >
  00034	8b 46 f8	 mov	 eax, DWORD PTR [esi-8]
  00037	8b 40 04	 mov	 eax, DWORD PTR [eax+4]
  0003a	8b 4d f4	 mov	 ecx, DWORD PTR __$EHRec$[ebp]
  0003d	c7 44 30 f8 00
	00 00 00	 mov	 DWORD PTR [eax+esi-8], OFFSET FLAT:??_7?$basic_istream@DV?$char_traits@D@_STL@@@_STL@@6B@
  00045	5e		 pop	 esi
  00046	64 89 0d 00 00
	00 00		 mov	 DWORD PTR fs:__except_list, ecx
  0004d	c9		 leave
  0004e	c3		 ret	 0
_TEXT	ENDS
;	COMDAT text$x
text$x	SEGMENT
$L105059:
  00000	8b 4d f0	 mov	 ecx, DWORD PTR _this$[ebp]
  00003	81 e9 b4 00 00
	00		 sub	 ecx, 180		; 000000b4H
  00009	e9 00 00 00 00	 jmp	 ??1?$basic_istream@DV?$char_traits@D@_STL@@@_STL@@UAE@XZ ; _STL::basic_istream<char,_STL::char_traits<char> >::~basic_istream<char,_STL::char_traits<char> >
__ehhandler$??1?$basic_ifstream@DV?$char_traits@D@_STL@@@_STL@@UAE@XZ:
  0000e	b8 00 00 00 00	 mov	 eax, OFFSET FLAT:$T105066
  00013	e9 00 00 00 00	 jmp	 ___CxxFrameHandler
text$x	ENDS
??1?$basic_ifstream@DV?$char_traits@D@_STL@@@_STL@@UAE@XZ ENDP ; _STL::basic_ifstream<char,_STL::char_traits<char> >::~basic_ifstream<char,_STL::char_traits<char> >
PUBLIC	?close@?$basic_ifstream@DV?$char_traits@D@_STL@@@_STL@@QAEXXZ ; _STL::basic_ifstream<char,_STL::char_traits<char> >::close
; Function compile flags: /Ogsy
;	COMDAT ?close@?$basic_ifstream@DV?$char_traits@D@_STL@@@_STL@@QAEXXZ
_TEXT	SEGMENT
?close@?$basic_ifstream@DV?$char_traits@D@_STL@@@_STL@@QAEXXZ PROC NEAR ; _STL::basic_ifstream<char,_STL::char_traits<char> >::close, COMDAT
; _this$ = ecx

; 558  :   void close() {

  00000	56		 push	 esi
  00001	8b f1		 mov	 esi, ecx

; 559  :     if (!this->rdbuf()->close())

  00003	8d 4e 08	 lea	 ecx, DWORD PTR [esi+8]
  00006	e8 00 00 00 00	 call	 ?close@?$basic_filebuf@DV?$char_traits@D@_STL@@@_STL@@QAEPAV12@XZ ; _STL::basic_filebuf<char,_STL::char_traits<char> >::close
  0000b	85 c0		 test	 eax, eax
  0000d	75 13		 jne	 SHORT $L105081

; 560  :       this->setstate(ios_base::failbit);

  0000f	8b 06		 mov	 eax, DWORD PTR [esi]
  00011	8b 48 04	 mov	 ecx, DWORD PTR [eax+4]
  00014	03 ce		 add	 ecx, esi
  00016	8b 41 08	 mov	 eax, DWORD PTR [ecx+8]
  00019	83 c8 04	 or	 eax, 4
  0001c	50		 push	 eax
  0001d	e8 00 00 00 00	 call	 ?clear@?$basic_ios@DV?$char_traits@D@_STL@@@_STL@@QAEXH@Z ; _STL::basic_ios<char,_STL::char_traits<char> >::clear
$L105081:
  00022	5e		 pop	 esi

; 561  :   }

  00023	c3		 ret	 0
?close@?$basic_ifstream@DV?$char_traits@D@_STL@@@_STL@@QAEXXZ ENDP ; _STL::basic_ifstream<char,_STL::char_traits<char> >::close
_TEXT	ENDS
PUBLIC	?erase@?$vector@PAVAPPEND_PATCH_NODE@@V?$allocator@PAVAPPEND_PATCH_NODE@@@_STL@@@_STL@@QAEPAPAVAPPEND_PATCH_NODE@@PAPAV3@0@Z ; _STL::vector<APPEND_PATCH_NODE *,_STL::allocator<APPEND_PATCH_NODE *> >::erase
; Function compile flags: /Ogsy
; File c:\stlport-4.6.1\stlport\stl\_vector.h
;	COMDAT ?erase@?$vector@PAVAPPEND_PATCH_NODE@@V?$allocator@PAVAPPEND_PATCH_NODE@@@_STL@@@_STL@@QAEPAPAVAPPEND_PATCH_NODE@@PAPAV3@0@Z
_TEXT	SEGMENT
___first$ = 8						; size = 4
___last$ = 12						; size = 4
?erase@?$vector@PAVAPPEND_PATCH_NODE@@V?$allocator@PAVAPPEND_PATCH_NODE@@@_STL@@@_STL@@QAEPAPAVAPPEND_PATCH_NODE@@PAPAV3@0@Z PROC NEAR ; _STL::vector<APPEND_PATCH_NODE *,_STL::allocator<APPEND_PATCH_NODE *> >::erase, COMDAT
; _this$ = ecx

; 473  :   iterator erase(iterator __first, iterator __last) {

  00000	56		 push	 esi

; 474  :     pointer __i = __copy_ptrs(__last, this->_M_finish, __first, _TrivialAss());

  00001	ff 74 24 08	 push	 DWORD PTR ___first$[esp]
  00005	8b f1		 mov	 esi, ecx
  00007	8b 46 04	 mov	 eax, DWORD PTR [esi+4]
  0000a	50		 push	 eax
  0000b	ff 74 24 14	 push	 DWORD PTR ___last$[esp+8]
  0000f	e8 00 00 00 00	 call	 ?__copy_trivial@_STL@@YAPAXPBX0PAX@Z ; _STL::__copy_trivial
  00014	83 c4 0c	 add	 esp, 12			; 0000000cH

; 475  :     _Destroy(__i, this->_M_finish);
; 476  :     this->_M_finish = __i;

  00017	89 46 04	 mov	 DWORD PTR [esi+4], eax

; 477  :     return __first;

  0001a	8b 44 24 08	 mov	 eax, DWORD PTR ___first$[esp]
  0001e	5e		 pop	 esi

; 478  :   }

  0001f	c2 08 00	 ret	 8
?erase@?$vector@PAVAPPEND_PATCH_NODE@@V?$allocator@PAVAPPEND_PATCH_NODE@@@_STL@@@_STL@@QAEPAPAVAPPEND_PATCH_NODE@@PAPAV3@0@Z ENDP ; _STL::vector<APPEND_PATCH_NODE *,_STL::allocator<APPEND_PATCH_NODE *> >::erase
_TEXT	ENDS
PUBLIC	?_M_clear@?$vector@PAVAPPEND_PATCH_NODE@@V?$allocator@PAVAPPEND_PATCH_NODE@@@_STL@@@_STL@@IAEXXZ ; _STL::vector<APPEND_PATCH_NODE *,_STL::allocator<APPEND_PATCH_NODE *> >::_M_clear
; Function compile flags: /Ogsy
;	COMDAT ?_M_clear@?$vector@PAVAPPEND_PATCH_NODE@@V?$allocator@PAVAPPEND_PATCH_NODE@@@_STL@@@_STL@@IAEXXZ
_TEXT	SEGMENT
?_M_clear@?$vector@PAVAPPEND_PATCH_NODE@@V?$allocator@PAVAPPEND_PATCH_NODE@@@_STL@@@_STL@@IAEXXZ PROC NEAR ; _STL::vector<APPEND_PATCH_NODE *,_STL::allocator<APPEND_PATCH_NODE *> >::_M_clear, COMDAT
; _this$ = ecx

; 493  :   void _M_clear() {

  00000	8b c1		 mov	 eax, ecx

; 494  :     //    if (this->_M_start) {
; 495  :     _Destroy(this->_M_start, this->_M_finish);
; 496  :     this->_M_end_of_storage.deallocate(this->_M_start, this->_M_end_of_storage._M_data - this->_M_start);

  00002	8d 48 08	 lea	 ecx, DWORD PTR [eax+8]
  00005	8b 00		 mov	 eax, DWORD PTR [eax]
  00007	8b 11		 mov	 edx, DWORD PTR [ecx]
  00009	2b d0		 sub	 edx, eax
  0000b	c1 fa 02	 sar	 edx, 2
  0000e	52		 push	 edx
  0000f	50		 push	 eax
  00010	e8 00 00 00 00	 call	 ?deallocate@?$allocator@PAVAPPEND_PATCH_NODE@@@_STL@@QAEXPAPAVAPPEND_PATCH_NODE@@I@Z ; _STL::allocator<APPEND_PATCH_NODE *>::deallocate

; 497  :     //    }
; 498  :   }

  00015	c3		 ret	 0
?_M_clear@?$vector@PAVAPPEND_PATCH_NODE@@V?$allocator@PAVAPPEND_PATCH_NODE@@@_STL@@@_STL@@IAEXXZ ENDP ; _STL::vector<APPEND_PATCH_NODE *,_STL::allocator<APPEND_PATCH_NODE *> >::_M_clear
_TEXT	ENDS
PUBLIC	??0sentry@?$basic_ostream@DV?$char_traits@D@_STL@@@_STL@@QAE@AAV12@@Z ; _STL::basic_ostream<char,_STL::char_traits<char> >::sentry::sentry
; Function compile flags: /Ogsy
; File c:\stlport-4.6.1\stlport\stl\_ostream.h
;	COMDAT ??0sentry@?$basic_ostream@DV?$char_traits@D@_STL@@@_STL@@QAE@AAV12@@Z
_TEXT	SEGMENT
___str$ = 8						; size = 4
??0sentry@?$basic_ostream@DV?$char_traits@D@_STL@@@_STL@@QAE@AAV12@@Z PROC NEAR ; _STL::basic_ostream<char,_STL::char_traits<char> >::sentry::sentry, COMDAT
; _this$ = ecx

; 165  :       {

  00000	8b 44 24 04	 mov	 eax, DWORD PTR ___str$[esp-4]
  00004	56		 push	 esi
  00005	8b f1		 mov	 esi, ecx
  00007	50		 push	 eax
  00008	89 06		 mov	 DWORD PTR [esi], eax
  0000a	e8 00 00 00 00	 call	 ??$_M_init@DV?$char_traits@D@_STL@@@_STL@@YA_NAAV?$basic_ostream@DV?$char_traits@D@_STL@@@0@@Z ; _STL::_M_init<char,_STL::char_traits<char> >
  0000f	88 46 04	 mov	 BYTE PTR [esi+4], al
  00012	59		 pop	 ecx

; 166  :       }

  00013	8b c6		 mov	 eax, esi
  00015	5e		 pop	 esi
  00016	c2 04 00	 ret	 4
??0sentry@?$basic_ostream@DV?$char_traits@D@_STL@@@_STL@@QAE@AAV12@@Z ENDP ; _STL::basic_ostream<char,_STL::char_traits<char> >::sentry::sentry
_TEXT	ENDS
PUBLIC	??1sentry@?$basic_ostream@DV?$char_traits@D@_STL@@@_STL@@QAE@XZ ; _STL::basic_ostream<char,_STL::char_traits<char> >::sentry::~sentry
; Function compile flags: /Ogsy
;	COMDAT ??1sentry@?$basic_ostream@DV?$char_traits@D@_STL@@@_STL@@QAE@XZ
_TEXT	SEGMENT
??1sentry@?$basic_ostream@DV?$char_traits@D@_STL@@@_STL@@QAE@XZ PROC NEAR ; _STL::basic_ostream<char,_STL::char_traits<char> >::sentry::~sentry, COMDAT
; _this$ = ecx

; 169  :         if (_M_str.flags() & ios_base::unitbuf)

  00000	8b 09		 mov	 ecx, DWORD PTR [ecx]
  00002	8b 01		 mov	 eax, DWORD PTR [ecx]
  00004	8b 40 04	 mov	 eax, DWORD PTR [eax+4]
  00007	f6 44 08 05 20	 test	 BYTE PTR [eax+ecx+5], 32 ; 00000020H
  0000c	74 05		 je	 SHORT $L102031

; 170  : # ifndef _STLP_INCOMPLETE_EXCEPTION_HEADER 
; 171  :           if (!_STLP_VENDOR_EXCEPT_STD::uncaught_exception())
; 172  : # endif
; 173  :             _M_str.flush();

  0000e	e9 00 00 00 00	 jmp	 ?flush@?$basic_ostream@DV?$char_traits@D@_STL@@@_STL@@QAEAAV12@XZ ; _STL::basic_ostream<char,_STL::char_traits<char> >::flush
$L102031:

; 174  :       }

  00013	c3		 ret	 0
??1sentry@?$basic_ostream@DV?$char_traits@D@_STL@@@_STL@@QAE@XZ ENDP ; _STL::basic_ostream<char,_STL::char_traits<char> >::sentry::~sentry
_TEXT	ENDS
PUBLIC	??0sentry@?$basic_istream@DV?$char_traits@D@_STL@@@_STL@@QAE@AAV12@U_No_Skip_WS@2@@Z ; _STL::basic_istream<char,_STL::char_traits<char> >::sentry::sentry
; Function compile flags: /Ogsy
; File c:\stlport-4.6.1\stlport\stl\_istream.h
;	COMDAT ??0sentry@?$basic_istream@DV?$char_traits@D@_STL@@@_STL@@QAE@AAV12@U_No_Skip_WS@2@@Z
_TEXT	SEGMENT
___is$ = 8						; size = 4
___formal$ = 12						; size = 1
??0sentry@?$basic_istream@DV?$char_traits@D@_STL@@@_STL@@QAE@AAV12@U_No_Skip_WS@2@@Z PROC NEAR ; _STL::basic_istream<char,_STL::char_traits<char> >::sentry::sentry, COMDAT
; _this$ = ecx

; 229  :       _M_ok(_M_init_noskip(__is)) {}

  00000	56		 push	 esi
  00001	ff 74 24 08	 push	 DWORD PTR ___is$[esp]
  00005	8b f1		 mov	 esi, ecx
  00007	e8 00 00 00 00	 call	 ??$_M_init_noskip@DV?$char_traits@D@_STL@@@_STL@@YA_NAAV?$basic_istream@DV?$char_traits@D@_STL@@@0@@Z ; _STL::_M_init_noskip<char,_STL::char_traits<char> >
  0000c	88 06		 mov	 BYTE PTR [esi], al
  0000e	59		 pop	 ecx
  0000f	8b c6		 mov	 eax, esi
  00011	5e		 pop	 esi
  00012	c2 08 00	 ret	 8
??0sentry@?$basic_istream@DV?$char_traits@D@_STL@@@_STL@@QAE@AAV12@U_No_Skip_WS@2@@Z ENDP ; _STL::basic_istream<char,_STL::char_traits<char> >::sentry::sentry
_TEXT	ENDS
PUBLIC	??$_M_read_buffered@DV?$char_traits@D@_STL@@U?$_Constant_unary_fun@_NH@2@U?$_Project2nd@PBDPBD@2@@_STL@@YAHPAV?$basic_istream@DV?$char_traits@D@_STL@@@0@PAV?$basic_streambuf@DV?$char_traits@D@_STL@@@0@HPADU?$_Constant_unary_fun@_NH@0@U?$_Project2nd@PBDPBD@0@_N55@Z ; _STL::_M_read_buffered<char,_STL::char_traits<char>,_STL::_Constant_unary_fun<bool,int>,_STL::_Project2nd<char const *,char const *> >
;	COMDAT xdata$x
; File c:\stlport-4.6.1\stlport\stl\_ios_base.h
xdata$x	SEGMENT
$T105278 DD	0ffffffffH
	DD	00H
	DD	0ffffffffH
	DD	00H
$T105280 DD	00H
	DD	00H
	DD	00H
	DD	FLAT:$L105154
$T105279 DD	00H
	DD	00H
	DD	01H
	DD	01H
	DD	FLAT:$T105280
$T105272 DD	019930520H
	DD	02H
	DD	FLAT:$T105278
	DD	01H
	DD	FLAT:$T105279
	DD	2 DUP(00H)
; Function compile flags: /Ogsy
; File c:\stlport-4.6.1\stlport\stl\_istream.c
xdata$x	ENDS
;	COMDAT ??$_M_read_buffered@DV?$char_traits@D@_STL@@U?$_Constant_unary_fun@_NH@2@U?$_Project2nd@PBDPBD@2@@_STL@@YAHPAV?$basic_istream@DV?$char_traits@D@_STL@@@0@PAV?$basic_streambuf@DV?$char_traits@D@_STL@@@0@HPADU?$_Constant_unary_fun@_NH@0@U?$_Project2nd@PBDPBD@0@_N55@Z
_TEXT	SEGMENT
tv309 = -40						; size = 4
$T105152 = -36						; size = 4
___request$102169 = -32					; size = 4
___n$ = -28						; size = 4
___status$ = -24					; size = 4
___done$ = -17						; size = 1
__$EHRec$ = -16						; size = 16
___that$ = 8						; size = 4
___buf$ = 12						; size = 4
__Num$ = 16						; size = 4
___s$ = 20						; size = 4
___is_delim$ = 24					; size = 1
___scan_delim$ = 28					; size = 1
___extract_delim$ = 32					; size = 1
___append_null$ = 36					; size = 1
___is_getline$ = 40					; size = 1
??$_M_read_buffered@DV?$char_traits@D@_STL@@U?$_Constant_unary_fun@_NH@2@U?$_Project2nd@PBDPBD@2@@_STL@@YAHPAV?$basic_istream@DV?$char_traits@D@_STL@@@0@PAV?$basic_streambuf@DV?$char_traits@D@_STL@@@0@HPADU?$_Constant_unary_fun@_NH@0@U?$_Project2nd@PBDPBD@0@_N55@Z PROC NEAR ; _STL::_M_read_buffered<char,_STL::char_traits<char>,_STL::_Constant_unary_fun<bool,int>,_STL::_Project2nd<char const *,char const *> >, COMDAT

; 627  : {

  00000	b8 00 00 00 00	 mov	 eax, __ehhandler$??$_M_read_buffered@DV?$char_traits@D@_STL@@U?$_Constant_unary_fun@_NH@2@U?$_Project2nd@PBDPBD@2@@_STL@@YAHPAV?$basic_istream@DV?$char_traits@D@_STL@@@0@PAV?$basic_streambuf@DV?$char_traits@D@_STL@@@0@HPADU?$_Constant_unary_fun@_NH@0@U?$_Project2nd@PBDPBD@0@_N55@Z
  00005	e8 00 00 00 00	 call	 __EH_prolog
  0000a	83 ec 1c	 sub	 esp, 28			; 0000001cH
  0000d	53		 push	 ebx

; 628  :   streamsize __n = 0;
; 629  :   ios_base::iostate __status = 0;
; 630  :   bool __done    = false;
; 631  : 
; 632  :   _STLP_TRY {

  0000e	8b 5d 10	 mov	 ebx, DWORD PTR __Num$[ebp]
  00011	33 c0		 xor	 eax, eax
  00013	56		 push	 esi
  00014	57		 push	 edi
  00015	8b 7d 0c	 mov	 edi, DWORD PTR ___buf$[ebp]
  00018	89 65 f0	 mov	 DWORD PTR __$EHRec$[ebp], esp
  0001b	89 45 e4	 mov	 DWORD PTR ___n$[ebp], eax
  0001e	89 45 e8	 mov	 DWORD PTR ___status$[ebp], eax
  00021	88 45 ef	 mov	 BYTE PTR ___done$[ebp], al
  00024	89 45 fc	 mov	 DWORD PTR __$EHRec$[ebp+12], eax
$L102165:

; 633  :     while (__buf->_M_egptr() != __buf->_M_gptr() && !__done) {

  00027	8b 47 04	 mov	 eax, DWORD PTR [edi+4]
  0002a	8b 08		 mov	 ecx, DWORD PTR [eax]
  0002c	8b 50 04	 mov	 edx, DWORD PTR [eax+4]
  0002f	03 d1		 add	 edx, ecx
  00031	3b d1		 cmp	 edx, ecx
  00033	0f 84 ae 00 00
	00		 je	 $L102166
  00039	80 7d ef 00	 cmp	 BYTE PTR ___done$[ebp], 0
  0003d	0f 85 a4 00 00
	00		 jne	 $L102166

; 634  :       const _CharT* __first = __buf->_M_gptr();

  00043	8b 10		 mov	 edx, DWORD PTR [eax]

; 635  :       const _CharT* __last  = __buf->_M_egptr();

  00045	8b 48 04	 mov	 ecx, DWORD PTR [eax+4]
  00048	03 ca		 add	 ecx, edx

; 636  :       ptrdiff_t __request = _Num - __n;

  0004a	8b c3		 mov	 eax, ebx
  0004c	2b 45 e4	 sub	 eax, DWORD PTR ___n$[ebp]

; 637  : 
; 638  :       const _CharT* __p  = __scan_delim(__first, __last);
; 639  :       ptrdiff_t __chunk = (min) (ptrdiff_t(__p - __first), __request);

  0004f	2b ca		 sub	 ecx, edx
  00051	89 45 e0	 mov	 DWORD PTR ___request$102169[ebp], eax
  00054	3b c1		 cmp	 eax, ecx
  00056	89 4d d8	 mov	 DWORD PTR tv309[ebp], ecx
  00059	89 4d dc	 mov	 DWORD PTR $T105152[ebp], ecx
  0005c	8d 45 e0	 lea	 eax, DWORD PTR ___request$102169[ebp]
  0005f	7c 03		 jl	 SHORT $L105204
  00061	8d 45 dc	 lea	 eax, DWORD PTR $T105152[ebp]
$L105204:
  00064	8b 30		 mov	 esi, DWORD PTR [eax]

; 640  :       _Traits::copy(__s, __first, __chunk);

  00066	85 f6		 test	 esi, esi
  00068	74 0d		 je	 SHORT $L105211
  0006a	56		 push	 esi
  0006b	52		 push	 edx
  0006c	ff 75 14	 push	 DWORD PTR ___s$[ebp]
  0006f	e8 00 00 00 00	 call	 _memcpy
  00074	83 c4 0c	 add	 esp, 12			; 0000000cH
$L105211:

; 641  :       __s += __chunk;
; 642  :       __n += __chunk;
; 643  :       __buf->_M_gbump((int)__chunk);

  00077	8b 47 04	 mov	 eax, DWORD PTR [edi+4]
  0007a	01 75 e4	 add	 DWORD PTR ___n$[ebp], esi
  0007d	01 75 14	 add	 DWORD PTR ___s$[ebp], esi
  00080	01 30		 add	 DWORD PTR [eax], esi
  00082	29 70 04	 sub	 DWORD PTR [eax+4], esi

; 644  : 
; 645  :       // We terminated by finding delim.
; 646  :       if (__p != __last && __p - __first <= __request) {
; 647  :         if (__extract_delim) {
; 648  :           __n += 1;
; 649  :           __buf->_M_gbump(1);
; 650  :         }
; 651  :         __done = true;
; 652  :       }
; 653  : 
; 654  :       // We terminated by reading all the characters we were asked for.
; 655  :       else if(__n == _Num) {

  00085	39 5d e4	 cmp	 DWORD PTR ___n$[ebp], ebx
  00088	75 26		 jne	 SHORT $L102178

; 656  : 
; 657  :         // Find out if we have reached eof.  This matters for getline.
; 658  :         if (__is_getline) {

  0008a	80 7d 28 00	 cmp	 BYTE PTR ___is_getline$[ebp], 0
  0008e	74 17		 je	 SHORT $L102182

; 659  :           if (__chunk == __last - __first) {

  00090	3b 75 d8	 cmp	 esi, DWORD PTR tv309[ebp]
  00093	75 0e		 jne	 SHORT $L102180

; 660  :             if (__that->_S_eof(__buf->sgetc()))

  00095	8b cf		 mov	 ecx, edi
  00097	e8 00 00 00 00	 call	 ?sgetc@?$basic_streambuf@DV?$char_traits@D@_STL@@@_STL@@QAEHXZ ; _STL::basic_streambuf<char,_STL::char_traits<char> >::sgetc
  0009c	83 f8 ff	 cmp	 eax, -1
  0009f	75 06		 jne	 SHORT $L102182

; 661  :               __status |= ios_base::eofbit;            
; 662  :           }
; 663  :           else

  000a1	eb 1d		 jmp	 SHORT $L105277
$L102180:

; 664  :             __status |= ios_base::failbit;

  000a3	83 4d e8 04	 or	 DWORD PTR ___status$[ebp], 4
$L102182:

; 665  :         }
; 666  :         __done   = true;

  000a7	c6 45 ef 01	 mov	 BYTE PTR ___done$[ebp], 1

; 667  :       }
; 668  : 
; 669  :       // The buffer contained fewer than _Num - __n characters.  Either we're
; 670  :       // at eof, or we should refill the buffer and try again.
; 671  :       else {

  000ab	e9 77 ff ff ff	 jmp	 $L102165
$L102178:

; 672  : 	if (__that->_S_eof(__buf->sgetc())) {

  000b0	8b cf		 mov	 ecx, edi
  000b2	e8 00 00 00 00	 call	 ?sgetc@?$basic_streambuf@DV?$char_traits@D@_STL@@@_STL@@QAEHXZ ; _STL::basic_streambuf<char,_STL::char_traits<char> >::sgetc
  000b7	83 f8 ff	 cmp	 eax, -1
  000ba	0f 85 67 ff ff
	ff		 jne	 $L102165
$L105277:

; 673  :           __status |= ios_base::eofbit;

  000c0	83 4d e8 02	 or	 DWORD PTR ___status$[ebp], 2

; 674  :           __done = true;
; 675  :         }
; 676  :       }
; 677  :     } // Close the while loop.

  000c4	eb e1		 jmp	 SHORT $L102182
$L105154:

; 678  :   }
; 679  :   _STLP_CATCH_ALL {
; 680  :     __that->_M_handle_exception(ios_base::badbit);

  000c6	8b 45 08	 mov	 eax, DWORD PTR ___that$[ebp]
  000c9	8b 08		 mov	 ecx, DWORD PTR [eax]
  000cb	8b 49 04	 mov	 ecx, DWORD PTR [ecx+4]
  000ce	6a 01		 push	 1
  000d0	03 c8		 add	 ecx, eax
  000d2	e8 00 00 00 00	 call	 ?_M_handle_exception@?$basic_ios@DV?$char_traits@D@_STL@@@_STL@@QAEXH@Z ; _STL::basic_ios<char,_STL::char_traits<char> >::_M_handle_exception

; 681  :     __done = true;

  000d7	c6 45 ef 01	 mov	 BYTE PTR ___done$[ebp], 1

; 682  :   }

  000db	b8 00 00 00 00	 mov	 eax, $L105274
  000e0	c3		 ret	 0
$L105274:
  000e1	8b 5d 10	 mov	 ebx, DWORD PTR __Num$[ebp]
  000e4	8b 7d 0c	 mov	 edi, DWORD PTR ___buf$[ebp]
$L102166:
  000e7	83 4d fc ff	 or	 DWORD PTR __$EHRec$[ebp+12], -1

; 683  : 
; 684  :   if (__done) {

  000eb	80 7d ef 00	 cmp	 BYTE PTR ___done$[ebp], 0
  000ef	74 2d		 je	 SHORT $L102185

; 685  :     if (__append_null)

  000f1	80 7d 24 00	 cmp	 BYTE PTR ___append_null$[ebp], 0
  000f5	74 06		 je	 SHORT $L102186

; 686  :         *__s =  _STLP_DEFAULT_CONSTRUCTED(_CharT);

  000f7	8b 45 14	 mov	 eax, DWORD PTR ___s$[ebp]
  000fa	c6 00 00	 mov	 BYTE PTR [eax], 0
$L102186:

; 687  :     if (__status != 0)

  000fd	83 7d e8 00	 cmp	 DWORD PTR ___status$[ebp], 0
  00101	74 16		 je	 SHORT $L105266

; 688  :       __that->setstate(__status);   // This might throw.

  00103	8b 45 08	 mov	 eax, DWORD PTR ___that$[ebp]
  00106	8b 08		 mov	 ecx, DWORD PTR [eax]
  00108	8b 49 04	 mov	 ecx, DWORD PTR [ecx+4]
  0010b	03 c8		 add	 ecx, eax
  0010d	8b 41 08	 mov	 eax, DWORD PTR [ecx+8]
  00110	0b 45 e8	 or	 eax, DWORD PTR ___status$[ebp]
  00113	50		 push	 eax
  00114	e8 00 00 00 00	 call	 ?clear@?$basic_ios@DV?$char_traits@D@_STL@@@_STL@@QAEXH@Z ; _STL::basic_ios<char,_STL::char_traits<char> >::clear
$L105266:

; 689  :     return __n;

  00119	8b 45 e4	 mov	 eax, DWORD PTR ___n$[ebp]
  0011c	eb 22		 jmp	 SHORT $L102159
$L102185:

; 690  :   }
; 691  : 
; 692  :   // If execution has reached this point, then we have an empty buffer but
; 693  :   // we have not reached eof.  What that means is that the streambuf has
; 694  :   // decided to switch from buffered to unbuffered input.  We switch to
; 695  :   // to _M_read_unbuffered.
; 696  : 
; 697  :   return __n + _M_read_unbuffered(__that,  __buf, _Num - __n, __s, __is_delim,
; 698  :                                   __extract_delim,__append_null,__is_getline);

  0011e	ff 75 28	 push	 DWORD PTR ___is_getline$[ebp]
  00121	2b 5d e4	 sub	 ebx, DWORD PTR ___n$[ebp]
  00124	ff 75 24	 push	 DWORD PTR ___append_null$[ebp]
  00127	ff 75 20	 push	 DWORD PTR ___extract_delim$[ebp]
  0012a	ff 75 18	 push	 DWORD PTR ___is_delim$[ebp]
  0012d	ff 75 14	 push	 DWORD PTR ___s$[ebp]
  00130	53		 push	 ebx
  00131	57		 push	 edi
  00132	ff 75 08	 push	 DWORD PTR ___that$[ebp]
  00135	e8 00 00 00 00	 call	 ??$_M_read_unbuffered@DV?$char_traits@D@_STL@@U?$_Constant_unary_fun@_NH@2@@_STL@@YAHPAV?$basic_istream@DV?$char_traits@D@_STL@@@0@PAV?$basic_streambuf@DV?$char_traits@D@_STL@@@0@HPADU?$_Constant_unary_fun@_NH@0@_N44@Z ; _STL::_M_read_unbuffered<char,_STL::char_traits<char>,_STL::_Constant_unary_fun<bool,int> >
  0013a	83 c4 20	 add	 esp, 32			; 00000020H
  0013d	03 45 e4	 add	 eax, DWORD PTR ___n$[ebp]
$L102159:

; 699  : }

  00140	8b 4d f4	 mov	 ecx, DWORD PTR __$EHRec$[ebp+4]
  00143	5f		 pop	 edi
  00144	5e		 pop	 esi
  00145	64 89 0d 00 00
	00 00		 mov	 DWORD PTR fs:__except_list, ecx
  0014c	5b		 pop	 ebx
  0014d	c9		 leave
  0014e	c3		 ret	 0
_TEXT	ENDS
;	COMDAT text$x
text$x	SEGMENT
__ehhandler$??$_M_read_buffered@DV?$char_traits@D@_STL@@U?$_Constant_unary_fun@_NH@2@U?$_Project2nd@PBDPBD@2@@_STL@@YAHPAV?$basic_istream@DV?$char_traits@D@_STL@@@0@PAV?$basic_streambuf@DV?$char_traits@D@_STL@@@0@HPADU?$_Constant_unary_fun@_NH@0@U?$_Project2nd@PBDPBD@0@_N55@Z:
  00000	b8 00 00 00 00	 mov	 eax, OFFSET FLAT:$T105272
  00005	e9 00 00 00 00	 jmp	 ___CxxFrameHandler
text$x	ENDS
??$_M_read_buffered@DV?$char_traits@D@_STL@@U?$_Constant_unary_fun@_NH@2@U?$_Project2nd@PBDPBD@2@@_STL@@YAHPAV?$basic_istream@DV?$char_traits@D@_STL@@@0@PAV?$basic_streambuf@DV?$char_traits@D@_STL@@@0@HPADU?$_Constant_unary_fun@_NH@0@U?$_Project2nd@PBDPBD@0@_N55@Z ENDP ; _STL::_M_read_buffered<char,_STL::char_traits<char>,_STL::_Constant_unary_fun<bool,int>,_STL::_Project2nd<char const *,char const *> >
PUBLIC	??$uninitialized_copy@PADPAD@_STL@@YAPADPAD00@Z	; _STL::uninitialized_copy<char *,char *>
; Function compile flags: /Ogsy
; File c:\stlport-4.6.1\stlport\stl\_uninitialized.h
;	COMDAT ??$uninitialized_copy@PADPAD@_STL@@YAPADPAD00@Z
_TEXT	SEGMENT
___first$ = 8						; size = 4
___last$ = 12						; size = 4
___result$ = 16						; size = 4
??$uninitialized_copy@PADPAD@_STL@@YAPADPAD00@Z PROC NEAR ; _STL::uninitialized_copy<char *,char *>, COMDAT

; 79   :   return __uninitialized_copy(__first, __last, __result,  _IS_POD_ITER(__result, _ForwardIter));

  00000	e9 00 00 00 00	 jmp	 ?__copy_trivial@_STL@@YAPAXPBX0PAX@Z ; _STL::__copy_trivial
??$uninitialized_copy@PADPAD@_STL@@YAPADPAD00@Z ENDP	; _STL::uninitialized_copy<char *,char *>
_TEXT	ENDS
PUBLIC	??$append@PAD@?$basic_string@DV?$char_traits@D@_STL@@V?$allocator@D@2@@_STL@@AAEAAV01@PAD0ABUforward_iterator_tag@1@@Z ; _STL::basic_string<char,_STL::char_traits<char>,_STL::allocator<char> >::append<char *>
; Function compile flags: /Ogsy
; File c:\stlport-4.6.1\stlport\stl\_string.h
;	COMDAT ??$append@PAD@?$basic_string@DV?$char_traits@D@_STL@@V?$allocator@D@2@@_STL@@AAEAAV01@PAD0ABUforward_iterator_tag@1@@Z
_TEXT	SEGMENT
___len$102487 = -8					; size = 4
___old_size$102480 = -8					; size = 4
$T105343 = -4						; size = 4
___first$ = 8						; size = 4
___last$ = 12						; size = 4
___formal$ = 16						; size = 4
??$append@PAD@?$basic_string@DV?$char_traits@D@_STL@@V?$allocator@D@2@@_STL@@AAEAAV01@PAD0ABUforward_iterator_tag@1@@Z PROC NEAR ; _STL::basic_string<char,_STL::char_traits<char>,_STL::allocator<char> >::append<char *>, COMDAT
; _this$ = ecx

; 542  :   template <class _ForwardIter> _Self& append(_ForwardIter __first, _ForwardIter __last, 

  00000	55		 push	 ebp
  00001	8b ec		 mov	 ebp, esp
  00003	51		 push	 ecx
  00004	51		 push	 ecx
  00005	56		 push	 esi
  00006	57		 push	 edi

; 543  :                        const forward_iterator_tag &)  {
; 544  :     if (__first != __last) {

  00007	8b 7d 0c	 mov	 edi, DWORD PTR ___last$[ebp]
  0000a	39 7d 08	 cmp	 DWORD PTR ___first$[ebp], edi
  0000d	8b f1		 mov	 esi, ecx
  0000f	0f 84 b6 00 00
	00		 je	 $L102493

; 545  : 	    const size_type __old_size = size();
; 546  : 	    difference_type __n = distance(__first, __last);

  00015	2b 7d 08	 sub	 edi, DWORD PTR ___first$[ebp]
  00018	53		 push	 ebx
  00019	8b 5e 04	 mov	 ebx, DWORD PTR [esi+4]
  0001c	2b 1e		 sub	 ebx, DWORD PTR [esi]

; 547  : 	    if (__STATIC_CAST(size_type,__n) > max_size() || __old_size > max_size() - __STATIC_CAST(size_type,__n))

  0001e	83 ff fe	 cmp	 edi, -2			; fffffffeH
  00021	89 5d f8	 mov	 DWORD PTR ___old_size$102480[ebp], ebx
  00024	77 09		 ja	 SHORT $L102485
  00026	6a fe		 push	 -2			; fffffffeH
  00028	58		 pop	 eax
  00029	2b c7		 sub	 eax, edi
  0002b	3b d8		 cmp	 ebx, eax
  0002d	76 07		 jbe	 SHORT $L102484
$L102485:

; 548  : 	      this->_M_throw_length_error();

  0002f	8b ce		 mov	 ecx, esi
  00031	e8 00 00 00 00	 call	 ?_M_throw_length_error@?$_String_base@DV?$allocator@D@_STL@@@_STL@@QBEXXZ ; _STL::_String_base<char,_STL::allocator<char> >::_M_throw_length_error
$L102484:

; 549  : 	    if (__old_size + __n > capacity()) {

  00036	8b 46 08	 mov	 eax, DWORD PTR [esi+8]
  00039	2b 06		 sub	 eax, DWORD PTR [esi]
  0003b	8d 0c 1f	 lea	 ecx, DWORD PTR [edi+ebx]
  0003e	48		 dec	 eax
  0003f	3b c8		 cmp	 ecx, eax
  00041	76 5e		 jbe	 SHORT $L102486

; 550  : 	      const size_type __len = __old_size +
; 551  : 	                            (max)(__old_size, __STATIC_CAST(size_type,__n)) + 1;

  00043	3b df		 cmp	 ebx, edi
  00045	89 7d fc	 mov	 DWORD PTR $T105343[ebp], edi
  00048	8d 45 fc	 lea	 eax, DWORD PTR $T105343[ebp]
  0004b	72 03		 jb	 SHORT $L105388
  0004d	8d 45 f8	 lea	 eax, DWORD PTR ___old_size$102480[ebp]
$L105388:
  00050	8b 00		 mov	 eax, DWORD PTR [eax]
  00052	8d 5c 18 01	 lea	 ebx, DWORD PTR [eax+ebx+1]

; 552  : 	      pointer __new_start = this->_M_end_of_storage.allocate(__len);

  00056	85 db		 test	 ebx, ebx
  00058	89 5d f8	 mov	 DWORD PTR ___len$102487[ebp], ebx
  0005b	74 0b		 je	 SHORT $L105393
  0005d	53		 push	 ebx
  0005e	e8 00 00 00 00	 call	 ?allocate@?$__node_alloc@$00$0A@@_STL@@SAPAXI@Z ; _STL::__node_alloc<1,0>::allocate
  00063	59		 pop	 ecx
  00064	8b f8		 mov	 edi, eax
  00066	eb 02		 jmp	 SHORT $L105394
$L105393:
  00068	33 ff		 xor	 edi, edi
$L105394:

; 553  : 	      pointer __new_finish = __new_start;
; 554  : 	      _STLP_TRY {
; 555  : 	        __new_finish = uninitialized_copy(this->_M_start, this->_M_finish, __new_start);

  0006a	8b 46 04	 mov	 eax, DWORD PTR [esi+4]
  0006d	8b 0e		 mov	 ecx, DWORD PTR [esi]
  0006f	57		 push	 edi
  00070	50		 push	 eax
  00071	51		 push	 ecx
  00072	e8 00 00 00 00	 call	 ?__copy_trivial@_STL@@YAPAXPBX0PAX@Z ; _STL::__copy_trivial

; 556  : 	        __new_finish = uninitialized_copy(__first, __last, __new_finish);

  00077	50		 push	 eax
  00078	ff 75 0c	 push	 DWORD PTR ___last$[ebp]
  0007b	ff 75 08	 push	 DWORD PTR ___first$[ebp]
  0007e	e8 00 00 00 00	 call	 ?__copy_trivial@_STL@@YAPAXPBX0PAX@Z ; _STL::__copy_trivial
  00083	8b d8		 mov	 ebx, eax
  00085	83 c4 18	 add	 esp, 24			; 00000018H

; 557  : 	        _M_construct_null(__new_finish);
; 558  : 	      }
; 559  : 	      _STLP_UNWIND((_STLP_STD::_Destroy(__new_start,__new_finish),
; 560  : 	                    this->_M_end_of_storage.deallocate(__new_start,__len)));
; 561  : 	      _STLP_STD::_Destroy(this->_M_start, this->_M_finish + 1);
; 562  : 	      this->_M_deallocate_block();

  00088	8b ce		 mov	 ecx, esi
  0008a	c6 03 00	 mov	 BYTE PTR [ebx], 0
  0008d	e8 00 00 00 00	 call	 ?_M_deallocate_block@?$_String_base@DV?$allocator@D@_STL@@@_STL@@QAEXXZ ; _STL::_String_base<char,_STL::allocator<char> >::_M_deallocate_block

; 563  : 	      this->_M_start = __new_start;
; 564  : 	      this->_M_finish = __new_finish;
; 565  : 	      this->_M_end_of_storage._M_data = __new_start + __len; 

  00092	8b 45 f8	 mov	 eax, DWORD PTR ___len$102487[ebp]
  00095	89 3e		 mov	 DWORD PTR [esi], edi
  00097	03 f8		 add	 edi, eax
  00099	89 5e 04	 mov	 DWORD PTR [esi+4], ebx
  0009c	89 7e 08	 mov	 DWORD PTR [esi+8], edi

; 566  : 	    }
; 567  : 	    else {

  0009f	eb 29		 jmp	 SHORT $L105670
$L102486:

; 568  : 	      _ForwardIter __f1 = __first;
; 569  : 	      ++__f1;
; 570  : 	      uninitialized_copy(__f1, __last, this->_M_finish + 1);

  000a1	8b 46 04	 mov	 eax, DWORD PTR [esi+4]
  000a4	40		 inc	 eax
  000a5	50		 push	 eax
  000a6	8b 45 08	 mov	 eax, DWORD PTR ___first$[ebp]
  000a9	ff 75 0c	 push	 DWORD PTR ___last$[ebp]
  000ac	40		 inc	 eax
  000ad	50		 push	 eax
  000ae	e8 00 00 00 00	 call	 ?__copy_trivial@_STL@@YAPAXPBX0PAX@Z ; _STL::__copy_trivial

; 571  : 	      _STLP_TRY {
; 572  : 	        _M_construct_null(this->_M_finish + __n);

  000b3	8b 46 04	 mov	 eax, DWORD PTR [esi+4]

; 573  : 	      }
; 574  : 	      _STLP_UNWIND(_STLP_STD::_Destroy(this->_M_finish + 1, this->_M_finish + __n));
; 575  : 	      _Traits::assign(*end(), *__first);

  000b6	8b 4d 08	 mov	 ecx, DWORD PTR ___first$[ebp]
  000b9	c6 04 07 00	 mov	 BYTE PTR [edi+eax], 0
  000bd	8b 46 04	 mov	 eax, DWORD PTR [esi+4]
  000c0	8a 09		 mov	 cl, BYTE PTR [ecx]
  000c2	83 c4 0c	 add	 esp, 12			; 0000000cH
  000c5	88 08		 mov	 BYTE PTR [eax], cl

; 576  : 	      this->_M_finish += __n;

  000c7	01 7e 04	 add	 DWORD PTR [esi+4], edi
$L105670:
  000ca	5b		 pop	 ebx
$L102493:
  000cb	5f		 pop	 edi

; 577  : 	    }
; 578  : 	  }
; 579  : 	  return *this;  

  000cc	8b c6		 mov	 eax, esi
  000ce	5e		 pop	 esi

; 580  : 	}

  000cf	c9		 leave
  000d0	c2 0c 00	 ret	 12			; 0000000cH
??$append@PAD@?$basic_string@DV?$char_traits@D@_STL@@V?$allocator@D@2@@_STL@@AAEAAV01@PAD0ABUforward_iterator_tag@1@@Z ENDP ; _STL::basic_string<char,_STL::char_traits<char>,_STL::allocator<char> >::append<char *>
_TEXT	ENDS
PUBLIC	??1?$_String_base@DV?$allocator@D@_STL@@@_STL@@QAE@XZ ; _STL::_String_base<char,_STL::allocator<char> >::~_String_base<char,_STL::allocator<char> >
; Function compile flags: /Ogsy
;	COMDAT ??1?$_String_base@DV?$allocator@D@_STL@@@_STL@@QAE@XZ
_TEXT	SEGMENT
??1?$_String_base@DV?$allocator@D@_STL@@@_STL@@QAE@XZ PROC NEAR ; _STL::_String_base<char,_STL::allocator<char> >::~_String_base<char,_STL::allocator<char> >, COMDAT
; _this$ = ecx

; 135  :   ~_String_base() { _M_deallocate_block(); }

  00000	e9 00 00 00 00	 jmp	 ?_M_deallocate_block@?$_String_base@DV?$allocator@D@_STL@@@_STL@@QAEXXZ ; _STL::_String_base<char,_STL::allocator<char> >::_M_deallocate_block
??1?$_String_base@DV?$allocator@D@_STL@@@_STL@@QAE@XZ ENDP ; _STL::_String_base<char,_STL::allocator<char> >::~_String_base<char,_STL::allocator<char> >
_TEXT	ENDS
PUBLIC	??0AppendPatch@@QAE@XZ				; AppendPatch::AppendPatch
; Function compile flags: /Ogsy
; File c:\darkeden\designed_common\project\client\appendpatchinfo.cpp
;	COMDAT ??0AppendPatch@@QAE@XZ
_TEXT	SEGMENT
$T105676 = -1						; size = 1
??0AppendPatch@@QAE@XZ PROC NEAR			; AppendPatch::AppendPatch, COMDAT
; _this$ = ecx

; 149  : {

  00000	51		 push	 ecx
  00001	56		 push	 esi
  00002	8b f1		 mov	 esi, ecx
  00004	e8 00 00 00 00	 call	 ??0MString@@QAE@XZ	; MString::MString
  00009	8d 44 24 07	 lea	 eax, DWORD PTR $T105676[esp+8]
  0000d	50		 push	 eax
  0000e	8d 4e 1c	 lea	 ecx, DWORD PTR [esi+28]
  00011	e8 00 00 00 00	 call	 ??0?$_Vector_base@PAVAPPEND_PATCH_NODE@@V?$allocator@PAVAPPEND_PATCH_NODE@@@_STL@@@_STL@@QAE@ABV?$allocator@PAVAPPEND_PATCH_NODE@@@1@@Z ; _STL::_Vector_base<APPEND_PATCH_NODE *,_STL::allocator<APPEND_PATCH_NODE *> >::_Vector_base<APPEND_PATCH_NODE *,_STL::allocator<APPEND_PATCH_NODE *> >

; 150  : 	m_orgFilesize = 0;

  00016	33 c0		 xor	 eax, eax
  00018	89 46 0c	 mov	 DWORD PTR [esi+12], eax

; 151  : 	m_orgSpkSize = 0;

  0001b	66 89 46 10	 mov	 WORD PTR [esi+16], ax

; 152  : 
; 153  : 	m_finalFilesize = 0;

  0001f	89 46 14	 mov	 DWORD PTR [esi+20], eax

; 154  : 	m_finalSpkSize = 0;

  00022	66 89 46 18	 mov	 WORD PTR [esi+24], ax

; 155  : }

  00026	8b c6		 mov	 eax, esi
  00028	5e		 pop	 esi
  00029	59		 pop	 ecx
  0002a	c3		 ret	 0
??0AppendPatch@@QAE@XZ ENDP				; AppendPatch::AppendPatch
_TEXT	ENDS
PUBLIC	??_D?$basic_ifstream@DV?$char_traits@D@_STL@@@_STL@@QAEXXZ ; _STL::basic_ifstream<char,_STL::char_traits<char> >::`vbase destructor'
; Function compile flags: /Ogsy
;	COMDAT ??_D?$basic_ifstream@DV?$char_traits@D@_STL@@@_STL@@QAEXXZ
_TEXT	SEGMENT
??_D?$basic_ifstream@DV?$char_traits@D@_STL@@@_STL@@QAEXXZ PROC NEAR ; _STL::basic_ifstream<char,_STL::char_traits<char> >::`vbase destructor', COMDAT
; _this$ = ecx
  00000	56		 push	 esi
  00001	8d b1 bc 00 00
	00		 lea	 esi, DWORD PTR [ecx+188]
  00007	8b ce		 mov	 ecx, esi
  00009	e8 00 00 00 00	 call	 ??1?$basic_ifstream@DV?$char_traits@D@_STL@@@_STL@@UAE@XZ ; _STL::basic_ifstream<char,_STL::char_traits<char> >::~basic_ifstream<char,_STL::char_traits<char> >
  0000e	8b ce		 mov	 ecx, esi
  00010	5e		 pop	 esi
  00011	e9 00 00 00 00	 jmp	 ??1?$basic_ios@DV?$char_traits@D@_STL@@@_STL@@UAE@XZ ; _STL::basic_ios<char,_STL::char_traits<char> >::~basic_ios<char,_STL::char_traits<char> >
??_D?$basic_ifstream@DV?$char_traits@D@_STL@@@_STL@@QAEXXZ ENDP ; _STL::basic_ifstream<char,_STL::char_traits<char> >::`vbase destructor'
_TEXT	ENDS
PUBLIC	?clear@?$vector@PAVAPPEND_PATCH_NODE@@V?$allocator@PAVAPPEND_PATCH_NODE@@@_STL@@@_STL@@QAEXXZ ; _STL::vector<APPEND_PATCH_NODE *,_STL::allocator<APPEND_PATCH_NODE *> >::clear
; Function compile flags: /Ogsy
; File c:\stlport-4.6.1\stlport\stl\_vector.h
;	COMDAT ?clear@?$vector@PAVAPPEND_PATCH_NODE@@V?$allocator@PAVAPPEND_PATCH_NODE@@@_STL@@@_STL@@QAEXXZ
_TEXT	SEGMENT
?clear@?$vector@PAVAPPEND_PATCH_NODE@@V?$allocator@PAVAPPEND_PATCH_NODE@@@_STL@@@_STL@@QAEXXZ PROC NEAR ; _STL::vector<APPEND_PATCH_NODE *,_STL::allocator<APPEND_PATCH_NODE *> >::clear, COMDAT
; _this$ = ecx

; 488  :     erase(begin(), end());

  00000	ff 71 04	 push	 DWORD PTR [ecx+4]
  00003	ff 31		 push	 DWORD PTR [ecx]
  00005	e8 00 00 00 00	 call	 ?erase@?$vector@PAVAPPEND_PATCH_NODE@@V?$allocator@PAVAPPEND_PATCH_NODE@@@_STL@@@_STL@@QAEPAPAVAPPEND_PATCH_NODE@@PAPAV3@0@Z ; _STL::vector<APPEND_PATCH_NODE *,_STL::allocator<APPEND_PATCH_NODE *> >::erase

; 489  :   }

  0000a	c3		 ret	 0
?clear@?$vector@PAVAPPEND_PATCH_NODE@@V?$allocator@PAVAPPEND_PATCH_NODE@@@_STL@@@_STL@@QAEXXZ ENDP ; _STL::vector<APPEND_PATCH_NODE *,_STL::allocator<APPEND_PATCH_NODE *> >::clear
; Function compile flags: /Ogsy
_TEXT	ENDS
;	COMDAT ??_G?$basic_ifstream@DV?$char_traits@D@_STL@@@_STL@@UAEPAXI@Z
_TEXT	SEGMENT
___flags$ = 8						; size = 4
??_G?$basic_ifstream@DV?$char_traits@D@_STL@@@_STL@@UAEPAXI@Z PROC NEAR ; _STL::basic_ifstream<char,_STL::char_traits<char> >::`scalar deleting destructor', COMDAT
; _this$ = ecx
  00000	56		 push	 esi
  00001	8d b1 44 ff ff
	ff		 lea	 esi, DWORD PTR [ecx-188]
  00007	8b ce		 mov	 ecx, esi
  00009	e8 00 00 00 00	 call	 ??_D?$basic_ifstream@DV?$char_traits@D@_STL@@@_STL@@QAEXXZ
  0000e	f6 44 24 08 01	 test	 BYTE PTR ___flags$[esp], 1
  00013	74 07		 je	 SHORT $L101444
  00015	56		 push	 esi
  00016	e8 00 00 00 00	 call	 ??3@YAXPAX@Z		; operator delete
  0001b	59		 pop	 ecx
$L101444:
  0001c	8b c6		 mov	 eax, esi
  0001e	5e		 pop	 esi
  0001f	c2 04 00	 ret	 4
??_G?$basic_ifstream@DV?$char_traits@D@_STL@@@_STL@@UAEPAXI@Z ENDP ; _STL::basic_ifstream<char,_STL::char_traits<char> >::`scalar deleting destructor'
_TEXT	ENDS
PUBLIC	?_M_insert_overflow@?$vector@PAVAPPEND_PATCH_NODE@@V?$allocator@PAVAPPEND_PATCH_NODE@@@_STL@@@_STL@@IAEXPAPAVAPPEND_PATCH_NODE@@ABQAV3@ABU__true_type@2@I_N@Z ; _STL::vector<APPEND_PATCH_NODE *,_STL::allocator<APPEND_PATCH_NODE *> >::_M_insert_overflow
; Function compile flags: /Ogsy
;	COMDAT ?_M_insert_overflow@?$vector@PAVAPPEND_PATCH_NODE@@V?$allocator@PAVAPPEND_PATCH_NODE@@@_STL@@@_STL@@IAEXPAPAVAPPEND_PATCH_NODE@@ABQAV3@ABU__true_type@2@I_N@Z
_TEXT	SEGMENT
___old_size$ = -4					; size = 4
___position$ = 8					; size = 4
___x$ = 12						; size = 4
___formal$ = 16						; size = 4
___new_finish$ = 20					; size = 4
___fill_len$ = 20					; size = 4
___atend$ = 24						; size = 1
?_M_insert_overflow@?$vector@PAVAPPEND_PATCH_NODE@@V?$allocator@PAVAPPEND_PATCH_NODE@@@_STL@@@_STL@@IAEXPAPAVAPPEND_PATCH_NODE@@ABQAV3@ABU__true_type@2@I_N@Z PROC NEAR ; _STL::vector<APPEND_PATCH_NODE *,_STL::allocator<APPEND_PATCH_NODE *> >::_M_insert_overflow, COMDAT
; _this$ = ecx

; 151  : 			  size_type __fill_len, bool __atend = false) {

  00000	55		 push	 ebp
  00001	8b ec		 mov	 ebp, esp
  00003	51		 push	 ecx
  00004	53		 push	 ebx
  00005	56		 push	 esi
  00006	8b f1		 mov	 esi, ecx

; 152  :     const size_type __old_size = size();

  00008	8b 46 04	 mov	 eax, DWORD PTR [esi+4]
  0000b	2b 06		 sub	 eax, DWORD PTR [esi]
  0000d	57		 push	 edi
  0000e	c1 f8 02	 sar	 eax, 2

; 153  :     const size_type __len = __old_size + (max)(__old_size, __fill_len);

  00011	3b 45 14	 cmp	 eax, DWORD PTR ___fill_len$[ebp]
  00014	89 45 fc	 mov	 DWORD PTR ___old_size$[ebp], eax
  00017	8d 4d 14	 lea	 ecx, DWORD PTR ___fill_len$[ebp]
  0001a	72 03		 jb	 SHORT $L105720
  0001c	8d 4d fc	 lea	 ecx, DWORD PTR ___old_size$[ebp]
$L105720:
  0001f	8b 39		 mov	 edi, DWORD PTR [ecx]
  00021	03 f8		 add	 edi, eax

; 154  :     
; 155  :     pointer __new_start = this->_M_end_of_storage.allocate(__len);

  00023	74 10		 je	 SHORT $L105727
  00025	8b c7		 mov	 eax, edi
  00027	c1 e0 02	 shl	 eax, 2
  0002a	50		 push	 eax
  0002b	e8 00 00 00 00	 call	 ?allocate@?$__node_alloc@$00$0A@@_STL@@SAPAXI@Z ; _STL::__node_alloc<1,0>::allocate
  00030	59		 pop	 ecx
  00031	8b d8		 mov	 ebx, eax
  00033	eb 02		 jmp	 SHORT $L105728
$L105727:
  00035	33 db		 xor	 ebx, ebx
$L105728:

; 156  :     pointer __new_finish = (pointer)__copy_trivial(this->_M_start, __position, __new_start);

  00037	53		 push	 ebx
  00038	ff 75 08	 push	 DWORD PTR ___position$[ebp]
  0003b	ff 36		 push	 DWORD PTR [esi]
  0003d	e8 00 00 00 00	 call	 ?__copy_trivial@_STL@@YAPAXPBX0PAX@Z ; _STL::__copy_trivial

; 157  :       // handle insertion
; 158  :     __new_finish = fill_n(__new_finish, __fill_len, __x);

  00042	ff 75 0c	 push	 DWORD PTR ___x$[ebp]
  00045	ff 75 14	 push	 DWORD PTR ___fill_len$[ebp]
  00048	50		 push	 eax
  00049	e8 00 00 00 00	 call	 ??$fill_n@PAPAVAPPEND_PATCH_NODE@@IPAV1@@_STL@@YAPAPAVAPPEND_PATCH_NODE@@PAPAV1@IABQAV1@@Z ; _STL::fill_n<APPEND_PATCH_NODE * *,unsigned int,APPEND_PATCH_NODE *>
  0004e	83 c4 18	 add	 esp, 24			; 00000018H

; 159  :     if (!__atend)

  00051	80 7d 18 00	 cmp	 BYTE PTR ___atend$[ebp], 0
  00055	89 45 14	 mov	 DWORD PTR ___new_finish$[ebp], eax
  00058	75 12		 jne	 SHORT $L101518

; 160  :       // copy remainder
; 161  :       __new_finish = (pointer)__copy_trivial(__position, this->_M_finish, __new_finish);

  0005a	50		 push	 eax
  0005b	ff 76 04	 push	 DWORD PTR [esi+4]
  0005e	ff 75 08	 push	 DWORD PTR ___position$[ebp]
  00061	e8 00 00 00 00	 call	 ?__copy_trivial@_STL@@YAPAXPBX0PAX@Z ; _STL::__copy_trivial
  00066	83 c4 0c	 add	 esp, 12			; 0000000cH
  00069	89 45 14	 mov	 DWORD PTR ___new_finish$[ebp], eax
$L101518:

; 162  :     _M_clear();

  0006c	8b ce		 mov	 ecx, esi
  0006e	e8 00 00 00 00	 call	 ?_M_clear@?$vector@PAVAPPEND_PATCH_NODE@@V?$allocator@PAVAPPEND_PATCH_NODE@@@_STL@@@_STL@@IAEXXZ ; _STL::vector<APPEND_PATCH_NODE *,_STL::allocator<APPEND_PATCH_NODE *> >::_M_clear

; 163  :     _M_set(__new_start, __new_finish, __new_start + __len);

  00073	8b 45 14	 mov	 eax, DWORD PTR ___new_finish$[ebp]
  00076	89 46 04	 mov	 DWORD PTR [esi+4], eax
  00079	8d 04 bb	 lea	 eax, DWORD PTR [ebx+edi*4]
  0007c	5f		 pop	 edi
  0007d	89 1e		 mov	 DWORD PTR [esi], ebx
  0007f	89 46 08	 mov	 DWORD PTR [esi+8], eax
  00082	5e		 pop	 esi
  00083	5b		 pop	 ebx

; 164  :   }

  00084	c9		 leave
  00085	c2 14 00	 ret	 20			; 00000014H
?_M_insert_overflow@?$vector@PAVAPPEND_PATCH_NODE@@V?$allocator@PAVAPPEND_PATCH_NODE@@@_STL@@@_STL@@IAEXPAPAVAPPEND_PATCH_NODE@@ABQAV3@ABU__true_type@2@I_N@Z ENDP ; _STL::vector<APPEND_PATCH_NODE *,_STL::allocator<APPEND_PATCH_NODE *> >::_M_insert_overflow
_TEXT	ENDS
PUBLIC	?write@?$basic_ostream@DV?$char_traits@D@_STL@@@_STL@@QAEAAV12@PBDH@Z ; _STL::basic_ostream<char,_STL::char_traits<char> >::write
;	COMDAT xdata$x
; File c:\stlport-4.6.1\stlport\stl\_ios_base.h
xdata$x	SEGMENT
$T105773 DD	0ffffffffH
	DD	FLAT:$L105737
	DD	00H
	DD	00H
	DD	00H
	DD	00H
$T105775 DD	00H
	DD	00H
	DD	00H
	DD	FLAT:$L105736
$T105774 DD	01H
	DD	01H
	DD	02H
	DD	01H
	DD	FLAT:$T105775
$T105770 DD	019930520H
	DD	03H
	DD	FLAT:$T105773
	DD	01H
	DD	FLAT:$T105774
	DD	2 DUP(00H)
; Function compile flags: /Ogsy
; File c:\stlport-4.6.1\stlport\stl\_ostream.c
xdata$x	ENDS
;	COMDAT ?write@?$basic_ostream@DV?$char_traits@D@_STL@@@_STL@@QAEAAV12@PBDH@Z
_TEXT	SEGMENT
___sentry$ = -32					; size = 8
_this$ = -24						; size = 4
___failed$ = -17					; size = 1
__$EHRec$ = -16						; size = 16
___s$ = 8						; size = 4
___n$ = 12						; size = 4
?write@?$basic_ostream@DV?$char_traits@D@_STL@@@_STL@@QAEAAV12@PBDH@Z PROC NEAR ; _STL::basic_ostream<char,_STL::char_traits<char> >::write, COMDAT
; _this$ = ecx

; 359  : {

  00000	b8 00 00 00 00	 mov	 eax, __ehhandler$?write@?$basic_ostream@DV?$char_traits@D@_STL@@@_STL@@QAEAAV12@PBDH@Z
  00005	e8 00 00 00 00	 call	 __EH_prolog
  0000a	83 ec 14	 sub	 esp, 20			; 00000014H
  0000d	53		 push	 ebx
  0000e	56		 push	 esi
  0000f	57		 push	 edi
  00010	8b f1		 mov	 esi, ecx
  00012	89 65 f0	 mov	 DWORD PTR __$EHRec$[ebp], esp

; 360  :   sentry __sentry(*this);

  00015	56		 push	 esi
  00016	8d 4d e0	 lea	 ecx, DWORD PTR ___sentry$[ebp]
  00019	89 75 e8	 mov	 DWORD PTR _this$[ebp], esi
  0001c	e8 00 00 00 00	 call	 ??0sentry@?$basic_ostream@DV?$char_traits@D@_STL@@@_STL@@QAE@AAV12@@Z ; _STL::basic_ostream<char,_STL::char_traits<char> >::sentry::sentry
  00021	83 65 fc 00	 and	 DWORD PTR __$EHRec$[ebp+12], 0

; 361  :   bool __failed = true;
; 362  : 
; 363  :   if (__sentry) {

  00025	80 7d e4 00	 cmp	 BYTE PTR ___sentry$[ebp+4], 0
  00029	c6 45 ef 01	 mov	 BYTE PTR ___failed$[ebp], 1
  0002d	74 3b		 je	 SHORT $L101655

; 364  :     _STLP_TRY {
; 365  :       __failed = this->rdbuf()->sputn(__s, __n) != __n;

  0002f	8b 06		 mov	 eax, DWORD PTR [esi]
  00031	8b 40 04	 mov	 eax, DWORD PTR [eax+4]
  00034	ff 75 0c	 push	 DWORD PTR ___n$[ebp]
  00037	8b 4c 30 58	 mov	 ecx, DWORD PTR [eax+esi+88]
  0003b	ff 75 08	 push	 DWORD PTR ___s$[ebp]
  0003e	8b 01		 mov	 eax, DWORD PTR [ecx]
  00040	c6 45 fc 01	 mov	 BYTE PTR __$EHRec$[ebp+12], 1
  00044	ff 50 28	 call	 DWORD PTR [eax+40]
  00047	3b 45 0c	 cmp	 eax, DWORD PTR ___n$[ebp]
  0004a	0f 95 45 ef	 setne	 BYTE PTR ___failed$[ebp]
  0004e	eb 1a		 jmp	 SHORT $L101655
$L105736:

; 366  :     }
; 367  :     _STLP_CATCH_ALL {
; 368  :       this->_M_handle_exception(ios_base::badbit);

  00050	8b 45 e8	 mov	 eax, DWORD PTR _this$[ebp]
  00053	8b 08		 mov	 ecx, DWORD PTR [eax]
  00055	8b 49 04	 mov	 ecx, DWORD PTR [ecx+4]
  00058	6a 01		 push	 1
  0005a	03 c8		 add	 ecx, eax
  0005c	e8 00 00 00 00	 call	 ?_M_handle_exception@?$basic_ios@DV?$char_traits@D@_STL@@@_STL@@QAEXH@Z ; _STL::basic_ios<char,_STL::char_traits<char> >::_M_handle_exception

; 369  :     }

  00061	b8 00 00 00 00	 mov	 eax, $L105771
  00066	c3		 ret	 0
$L105771:
  00067	8b 75 e8	 mov	 esi, DWORD PTR _this$[ebp]
$L101655:
  0006a	83 65 fc 00	 and	 DWORD PTR __$EHRec$[ebp+12], 0

; 370  :   }
; 371  : 
; 372  :   if (__failed)

  0006e	80 7d ef 00	 cmp	 BYTE PTR ___failed$[ebp], 0
  00072	74 13		 je	 SHORT $L105754

; 373  :     this->setstate(ios_base::badbit);

  00074	8b 06		 mov	 eax, DWORD PTR [esi]
  00076	8b 48 04	 mov	 ecx, DWORD PTR [eax+4]
  00079	03 ce		 add	 ecx, esi
  0007b	8b 41 08	 mov	 eax, DWORD PTR [ecx+8]
  0007e	83 c8 01	 or	 eax, 1
  00081	50		 push	 eax
  00082	e8 00 00 00 00	 call	 ?clear@?$basic_ios@DV?$char_traits@D@_STL@@@_STL@@QAEXH@Z ; _STL::basic_ios<char,_STL::char_traits<char> >::clear
$L105754:

; 374  : 
; 375  :   return *this;

  00087	8b 4d e0	 mov	 ecx, DWORD PTR ___sentry$[ebp]
  0008a	8b 01		 mov	 eax, DWORD PTR [ecx]
  0008c	8b 40 04	 mov	 eax, DWORD PTR [eax+4]
  0008f	83 4d fc ff	 or	 DWORD PTR __$EHRec$[ebp+12], -1
  00093	f6 44 08 05 20	 test	 BYTE PTR [eax+ecx+5], 32 ; 00000020H
  00098	74 05		 je	 SHORT $L105768
  0009a	e8 00 00 00 00	 call	 ?flush@?$basic_ostream@DV?$char_traits@D@_STL@@@_STL@@QAEAAV12@XZ ; _STL::basic_ostream<char,_STL::char_traits<char> >::flush
$L105768:

; 376  : }

  0009f	8b 4d f4	 mov	 ecx, DWORD PTR __$EHRec$[ebp+4]
  000a2	5f		 pop	 edi
  000a3	8b c6		 mov	 eax, esi
  000a5	5e		 pop	 esi
  000a6	64 89 0d 00 00
	00 00		 mov	 DWORD PTR fs:__except_list, ecx
  000ad	5b		 pop	 ebx
  000ae	c9		 leave
  000af	c2 08 00	 ret	 8
_TEXT	ENDS
;	COMDAT text$x
text$x	SEGMENT
$L105737:
  00000	8d 4d e0	 lea	 ecx, DWORD PTR ___sentry$[ebp]
  00003	e9 00 00 00 00	 jmp	 ??1sentry@?$basic_ostream@DV?$char_traits@D@_STL@@@_STL@@QAE@XZ ; _STL::basic_ostream<char,_STL::char_traits<char> >::sentry::~sentry
__ehhandler$?write@?$basic_ostream@DV?$char_traits@D@_STL@@@_STL@@QAEAAV12@PBDH@Z:
  00008	b8 00 00 00 00	 mov	 eax, OFFSET FLAT:$T105770
  0000d	e9 00 00 00 00	 jmp	 ___CxxFrameHandler
text$x	ENDS
?write@?$basic_ostream@DV?$char_traits@D@_STL@@@_STL@@QAEAAV12@PBDH@Z ENDP ; _STL::basic_ostream<char,_STL::char_traits<char> >::write
PUBLIC	?read@?$basic_istream@DV?$char_traits@D@_STL@@@_STL@@QAEAAV12@PADH@Z ; _STL::basic_istream<char,_STL::char_traits<char> >::read
; Function compile flags: /Ogsy
; File c:\stlport-4.6.1\stlport\stl\_istream.c
;	COMDAT ?read@?$basic_istream@DV?$char_traits@D@_STL@@@_STL@@QAEAAV12@PADH@Z
_TEXT	SEGMENT
$T105784 = -4						; size = 1
$T105782 = -4						; size = 1
$T105781 = 8						; size = 1
___s$ = 8						; size = 4
___n$ = 12						; size = 4
?read@?$basic_istream@DV?$char_traits@D@_STL@@@_STL@@QAEAAV12@PADH@Z PROC NEAR ; _STL::basic_istream<char,_STL::char_traits<char> >::read, COMDAT
; _this$ = ecx

; 769  : {

  00000	55		 push	 ebp
  00001	8b ec		 mov	 ebp, esp
  00003	51		 push	 ecx
  00004	56		 push	 esi
  00005	8b f1		 mov	 esi, ecx

; 770  :   sentry __sentry(*this, _No_Skip_WS());

  00007	56		 push	 esi
  00008	e8 00 00 00 00	 call	 ??$_M_init_noskip@DV?$char_traits@D@_STL@@@_STL@@YA_NAAV?$basic_istream@DV?$char_traits@D@_STL@@@0@@Z ; _STL::_M_init_noskip<char,_STL::char_traits<char> >

; 771  :   this->_M_gcount = 0;

  0000d	33 d2		 xor	 edx, edx

; 772  : 
; 773  :   if (__sentry && !this->eof()) {

  0000f	3a c2		 cmp	 al, dl
  00011	59		 pop	 ecx
  00012	89 56 04	 mov	 DWORD PTR [esi+4], edx
  00015	74 5a		 je	 SHORT $L101811
  00017	8b 06		 mov	 eax, DWORD PTR [esi]
  00019	8b 40 04	 mov	 eax, DWORD PTR [eax+4]
  0001c	03 c6		 add	 eax, esi
  0001e	8b 48 08	 mov	 ecx, DWORD PTR [eax+8]
  00021	d1 e9		 shr	 ecx, 1
  00023	f6 d1		 not	 cl
  00025	f6 c1 01	 test	 cl, 1
  00028	74 47		 je	 SHORT $L101811

; 774  :     basic_streambuf<_CharT, _Traits>*__buf = this->rdbuf();

  0002a	8b 48 58	 mov	 ecx, DWORD PTR [eax+88]

; 775  :     if (__buf->gptr() != __buf->egptr()) 

  0002d	8b 41 04	 mov	 eax, DWORD PTR [ecx+4]
  00030	57		 push	 edi
  00031	8b 78 04	 mov	 edi, DWORD PTR [eax+4]
  00034	03 38		 add	 edi, DWORD PTR [eax]

; 776  :       _M_gcount
; 777  :         = _M_read_buffered(this,  __buf, __n, __s,
; 778  :                            _Constant_unary_fun<bool, int_type>(false),
; 779  :                            _Project2nd<const _CharT*, const _CharT*>(),
; 780  :                            false, false, false);

  00036	88 55 fc	 mov	 BYTE PTR $T105782[ebp], dl
  00039	39 38		 cmp	 DWORD PTR [eax], edi
  0003b	5f		 pop	 edi
  0003c	52		 push	 edx
  0003d	52		 push	 edx
  0003e	52		 push	 edx
  0003f	74 1b		 je	 SHORT $L101813
  00041	ff 75 08	 push	 DWORD PTR $T105781[ebp]
  00044	ff 75 fc	 push	 DWORD PTR $T105782[ebp]
  00047	ff 75 08	 push	 DWORD PTR ___s$[ebp]
  0004a	ff 75 0c	 push	 DWORD PTR ___n$[ebp]
  0004d	51		 push	 ecx
  0004e	56		 push	 esi
  0004f	e8 00 00 00 00	 call	 ??$_M_read_buffered@DV?$char_traits@D@_STL@@U?$_Constant_unary_fun@_NH@2@U?$_Project2nd@PBDPBD@2@@_STL@@YAHPAV?$basic_istream@DV?$char_traits@D@_STL@@@0@PAV?$basic_streambuf@DV?$char_traits@D@_STL@@@0@HPADU?$_Constant_unary_fun@_NH@0@U?$_Project2nd@PBDPBD@0@_N55@Z ; _STL::_M_read_buffered<char,_STL::char_traits<char>,_STL::_Constant_unary_fun<bool,int>,_STL::_Project2nd<char const *,char const *> >
  00054	83 c4 24	 add	 esp, 36			; 00000024H
$L105851:
  00057	89 46 04	 mov	 DWORD PTR [esi+4], eax

; 781  :     else

  0005a	eb 28		 jmp	 SHORT $L105830
$L101813:

; 782  :       _M_gcount
; 783  :         = _M_read_unbuffered(this,  __buf, __n, __s,
; 784  :                              _Constant_unary_fun<bool, int_type>(false),
; 785  :                              false, false, false);

  0005c	ff 75 fc	 push	 DWORD PTR $T105784[ebp]
  0005f	ff 75 08	 push	 DWORD PTR ___s$[ebp]
  00062	ff 75 0c	 push	 DWORD PTR ___n$[ebp]
  00065	51		 push	 ecx
  00066	56		 push	 esi
  00067	e8 00 00 00 00	 call	 ??$_M_read_unbuffered@DV?$char_traits@D@_STL@@U?$_Constant_unary_fun@_NH@2@@_STL@@YAHPAV?$basic_istream@DV?$char_traits@D@_STL@@@0@PAV?$basic_streambuf@DV?$char_traits@D@_STL@@@0@HPADU?$_Constant_unary_fun@_NH@0@_N44@Z ; _STL::_M_read_unbuffered<char,_STL::char_traits<char>,_STL::_Constant_unary_fun<bool,int> >
  0006c	83 c4 20	 add	 esp, 32			; 00000020H

; 786  :   }
; 787  :   else

  0006f	eb e6		 jmp	 SHORT $L105851
$L101811:

; 788  :     this->setstate(ios_base::failbit);

  00071	8b 06		 mov	 eax, DWORD PTR [esi]
  00073	8b 48 04	 mov	 ecx, DWORD PTR [eax+4]
  00076	03 ce		 add	 ecx, esi
  00078	8b 41 08	 mov	 eax, DWORD PTR [ecx+8]
  0007b	83 c8 04	 or	 eax, 4
  0007e	50		 push	 eax
  0007f	e8 00 00 00 00	 call	 ?clear@?$basic_ios@DV?$char_traits@D@_STL@@@_STL@@QAEXH@Z ; _STL::basic_ios<char,_STL::char_traits<char> >::clear
$L105830:

; 789  : 
; 790  :   if (this->eof())

  00084	8b 06		 mov	 eax, DWORD PTR [esi]
  00086	8b 40 04	 mov	 eax, DWORD PTR [eax+4]
  00089	8d 0c 30	 lea	 ecx, DWORD PTR [eax+esi]
  0008c	8b 41 08	 mov	 eax, DWORD PTR [ecx+8]
  0008f	d1 e8		 shr	 eax, 1
  00091	a8 01		 test	 al, 1
  00093	74 0c		 je	 SHORT $L105843

; 791  :     this->setstate(ios_base::eofbit | ios_base::failbit);

  00095	8b 41 08	 mov	 eax, DWORD PTR [ecx+8]
  00098	83 c8 06	 or	 eax, 6
  0009b	50		 push	 eax
  0009c	e8 00 00 00 00	 call	 ?clear@?$basic_ios@DV?$char_traits@D@_STL@@@_STL@@QAEXH@Z ; _STL::basic_ios<char,_STL::char_traits<char> >::clear
$L105843:

; 792  : 
; 793  :   return *this;

  000a1	8b c6		 mov	 eax, esi
  000a3	5e		 pop	 esi

; 794  : }

  000a4	c9		 leave
  000a5	c2 08 00	 ret	 8
?read@?$basic_istream@DV?$char_traits@D@_STL@@@_STL@@QAEAAV12@PADH@Z ENDP ; _STL::basic_istream<char,_STL::char_traits<char> >::read
_TEXT	ENDS
PUBLIC	?seekg@?$basic_istream@DV?$char_traits@D@_STL@@@_STL@@QAEAAV12@JH@Z ; _STL::basic_istream<char,_STL::char_traits<char> >::seekg
; Function compile flags: /Ogsy
;	COMDAT ?seekg@?$basic_istream@DV?$char_traits@D@_STL@@@_STL@@QAEAAV12@JH@Z
_TEXT	SEGMENT
$T105855 = -8						; size = 8
___off$ = 8						; size = 4
___dir$ = 12						; size = 4
?seekg@?$basic_istream@DV?$char_traits@D@_STL@@@_STL@@QAEAAV12@JH@Z PROC NEAR ; _STL::basic_istream<char,_STL::char_traits<char> >::seekg, COMDAT
; _this$ = ecx

; 463  : {

  00000	55		 push	 ebp
  00001	8b ec		 mov	 ebp, esp
  00003	51		 push	 ecx
  00004	51		 push	 ecx
  00005	56		 push	 esi
  00006	8b f1		 mov	 esi, ecx

; 464  :   sentry __sentry(*this, _No_Skip_WS());

  00008	56		 push	 esi
  00009	e8 00 00 00 00	 call	 ??$_M_init_noskip@DV?$char_traits@D@_STL@@@_STL@@YA_NAAV?$basic_istream@DV?$char_traits@D@_STL@@@0@@Z ; _STL::_M_init_noskip<char,_STL::char_traits<char> >

; 465  : 
; 466  :   basic_streambuf<_CharT, _Traits>* __buf = this->rdbuf();

  0000e	8b 06		 mov	 eax, DWORD PTR [esi]
  00010	8b 40 04	 mov	 eax, DWORD PTR [eax+4]
  00013	03 c6		 add	 eax, esi

; 467  :   if (!this->fail() && __buf)

  00015	f6 40 08 05	 test	 BYTE PTR [eax+8], 5
  00019	59		 pop	 ecx
  0001a	8b 48 58	 mov	 ecx, DWORD PTR [eax+88]
  0001d	75 15		 jne	 SHORT $L105868
  0001f	85 c9		 test	 ecx, ecx
  00021	74 11		 je	 SHORT $L105868

; 468  :     __buf->pubseekoff(__off, __dir, ios_base::in);

  00023	8b 01		 mov	 eax, DWORD PTR [ecx]
  00025	6a 08		 push	 8
  00027	ff 75 0c	 push	 DWORD PTR ___dir$[ebp]
  0002a	8d 55 f8	 lea	 edx, DWORD PTR $T105855[ebp]
  0002d	ff 75 08	 push	 DWORD PTR ___off$[ebp]
  00030	52		 push	 edx
  00031	ff 50 08	 call	 DWORD PTR [eax+8]
$L105868:

; 469  :   return *this;

  00034	8b c6		 mov	 eax, esi
  00036	5e		 pop	 esi

; 470  : }

  00037	c9		 leave
  00038	c2 08 00	 ret	 8
?seekg@?$basic_istream@DV?$char_traits@D@_STL@@@_STL@@QAEAAV12@JH@Z ENDP ; _STL::basic_istream<char,_STL::char_traits<char> >::seekg
_TEXT	ENDS
PUBLIC	??$_M_append_dispatch@PAD@?$basic_string@DV?$char_traits@D@_STL@@V?$allocator@D@2@@_STL@@AAEAAV01@PAD0ABU__false_type@1@@Z ; _STL::basic_string<char,_STL::char_traits<char>,_STL::allocator<char> >::_M_append_dispatch<char *>
; Function compile flags: /Ogsy
; File c:\stlport-4.6.1\stlport\stl\_string.h
;	COMDAT ??$_M_append_dispatch@PAD@?$basic_string@DV?$char_traits@D@_STL@@V?$allocator@D@2@@_STL@@AAEAAV01@PAD0ABU__false_type@1@@Z
_TEXT	SEGMENT
___f$ = 8						; size = 4
___l$ = 12						; size = 4
$T105875 = 15						; size = 1
___formal$ = 16						; size = 4
??$_M_append_dispatch@PAD@?$basic_string@DV?$char_traits@D@_STL@@V?$allocator@D@2@@_STL@@AAEAAV01@PAD0ABU__false_type@1@@Z PROC NEAR ; _STL::basic_string<char,_STL::char_traits<char>,_STL::allocator<char> >::_M_append_dispatch<char *>, COMDAT
; _this$ = ecx

; 586  :   template <class _InputIter> _Self& _M_append_dispatch(_InputIter __f, _InputIter __l,

  00000	55		 push	 ebp
  00001	8b ec		 mov	 ebp, esp

; 587  :                                    const __false_type&) {
; 588  :     return append(__f, __l, _STLP_ITERATOR_CATEGORY(__f, _InputIter));

  00003	8d 45 0f	 lea	 eax, DWORD PTR $T105875[ebp]
  00006	50		 push	 eax
  00007	ff 75 0c	 push	 DWORD PTR ___l$[ebp]
  0000a	ff 75 08	 push	 DWORD PTR ___f$[ebp]
  0000d	e8 00 00 00 00	 call	 ??$append@PAD@?$basic_string@DV?$char_traits@D@_STL@@V?$allocator@D@2@@_STL@@AAEAAV01@PAD0ABUforward_iterator_tag@1@@Z ; _STL::basic_string<char,_STL::char_traits<char>,_STL::allocator<char> >::append<char *>

; 589  :   }

  00012	5d		 pop	 ebp
  00013	c2 0c 00	 ret	 12			; 0000000cH
??$_M_append_dispatch@PAD@?$basic_string@DV?$char_traits@D@_STL@@V?$allocator@D@2@@_STL@@AAEAAV01@PAD0ABU__false_type@1@@Z ENDP ; _STL::basic_string<char,_STL::char_traits<char>,_STL::allocator<char> >::_M_append_dispatch<char *>
_TEXT	ENDS
PUBLIC	??1?$basic_string@DV?$char_traits@D@_STL@@V?$allocator@D@2@@_STL@@QAE@XZ ; _STL::basic_string<char,_STL::char_traits<char>,_STL::allocator<char> >::~basic_string<char,_STL::char_traits<char>,_STL::allocator<char> >
; Function compile flags: /Ogsy
;	COMDAT ??1?$basic_string@DV?$char_traits@D@_STL@@V?$allocator@D@2@@_STL@@QAE@XZ
_TEXT	SEGMENT
??1?$basic_string@DV?$char_traits@D@_STL@@V?$allocator@D@2@@_STL@@QAE@XZ PROC NEAR ; _STL::basic_string<char,_STL::char_traits<char>,_STL::allocator<char> >::~basic_string<char,_STL::char_traits<char>,_STL::allocator<char> >, COMDAT
; _this$ = ecx

; 305  :   ~basic_string() { _STLP_STD::_Destroy(this->_M_start, this->_M_finish + 1); }

  00000	e9 00 00 00 00	 jmp	 ?_M_deallocate_block@?$_String_base@DV?$allocator@D@_STL@@@_STL@@QAEXXZ ; _STL::_String_base<char,_STL::allocator<char> >::_M_deallocate_block
??1?$basic_string@DV?$char_traits@D@_STL@@V?$allocator@D@2@@_STL@@QAE@XZ ENDP ; _STL::basic_string<char,_STL::char_traits<char>,_STL::allocator<char> >::~basic_string<char,_STL::char_traits<char>,_STL::allocator<char> >
_TEXT	ENDS
PUBLIC	?SaveToFile@APPEND_PATCH_NODE@@QAEXAAV?$basic_ofstream@DV?$char_traits@D@_STL@@@_STL@@@Z ; APPEND_PATCH_NODE::SaveToFile
; Function compile flags: /Ogsy
; File c:\darkeden\designed_common\project\client\appendpatchinfo.cpp
;	COMDAT ?SaveToFile@APPEND_PATCH_NODE@@QAEXAAV?$basic_ofstream@DV?$char_traits@D@_STL@@@_STL@@@Z
_TEXT	SEGMENT
_file$ = 8						; size = 4
?SaveToFile@APPEND_PATCH_NODE@@QAEXAAV?$basic_ofstream@DV?$char_traits@D@_STL@@@_STL@@@Z PROC NEAR ; APPEND_PATCH_NODE::SaveToFile, COMDAT
; _this$ = ecx

; 119  : {

  00000	56		 push	 esi
  00001	57		 push	 edi

; 120  : 	appendFilename.SaveToFile( file );

  00002	8b 7c 24 0c	 mov	 edi, DWORD PTR _file$[esp+4]
  00006	8b f1		 mov	 esi, ecx
  00008	8b 06		 mov	 eax, DWORD PTR [esi]
  0000a	57		 push	 edi
  0000b	ff 50 04	 call	 DWORD PTR [eax+4]

; 121  : 	file.write((const char*)&appendFilesize, 4);

  0000e	6a 04		 push	 4
  00010	8d 46 0c	 lea	 eax, DWORD PTR [esi+12]
  00013	50		 push	 eax
  00014	8b cf		 mov	 ecx, edi
  00016	e8 00 00 00 00	 call	 ?write@?$basic_ostream@DV?$char_traits@D@_STL@@@_STL@@QAEAAV12@PBDH@Z ; _STL::basic_ostream<char,_STL::char_traits<char> >::write

; 122  : 	file.write((const char*)&appSpkSize, 2);

  0001b	6a 02		 push	 2
  0001d	8d 46 10	 lea	 eax, DWORD PTR [esi+16]
  00020	50		 push	 eax
  00021	8b cf		 mov	 ecx, edi
  00023	e8 00 00 00 00	 call	 ?write@?$basic_ostream@DV?$char_traits@D@_STL@@@_STL@@QAEAAV12@PBDH@Z ; _STL::basic_ostream<char,_STL::char_traits<char> >::write

; 123  : 	file.write((const char*)&writePosition, 4);

  00028	6a 04		 push	 4
  0002a	8d 46 14	 lea	 eax, DWORD PTR [esi+20]
  0002d	50		 push	 eax
  0002e	8b cf		 mov	 ecx, edi
  00030	e8 00 00 00 00	 call	 ?write@?$basic_ostream@DV?$char_traits@D@_STL@@@_STL@@QAEAAV12@PBDH@Z ; _STL::basic_ostream<char,_STL::char_traits<char> >::write

; 124  : 	file.write((const char*)&afterFilesize, 4);

  00035	6a 04		 push	 4
  00037	8d 46 18	 lea	 eax, DWORD PTR [esi+24]
  0003a	50		 push	 eax
  0003b	8b cf		 mov	 ecx, edi
  0003d	e8 00 00 00 00	 call	 ?write@?$basic_ostream@DV?$char_traits@D@_STL@@@_STL@@QAEAAV12@PBDH@Z ; _STL::basic_ostream<char,_STL::char_traits<char> >::write

; 125  : 	file.write((const char*)&afterSpkSize, 2);

  00042	6a 02		 push	 2
  00044	83 c6 1c	 add	 esi, 28			; 0000001cH
  00047	56		 push	 esi
  00048	8b cf		 mov	 ecx, edi
  0004a	e8 00 00 00 00	 call	 ?write@?$basic_ostream@DV?$char_traits@D@_STL@@@_STL@@QAEAAV12@PBDH@Z ; _STL::basic_ostream<char,_STL::char_traits<char> >::write
  0004f	5f		 pop	 edi
  00050	5e		 pop	 esi

; 126  : }

  00051	c2 04 00	 ret	 4
?SaveToFile@APPEND_PATCH_NODE@@QAEXAAV?$basic_ofstream@DV?$char_traits@D@_STL@@@_STL@@@Z ENDP ; APPEND_PATCH_NODE::SaveToFile
_TEXT	ENDS
PUBLIC	?Release@AppendPatch@@QAEXXZ			; AppendPatch::Release
EXTRN	?Release@MString@@QAEXXZ:NEAR			; MString::Release
; Function compile flags: /Ogsy
;	COMDAT ?Release@AppendPatch@@QAEXXZ
_TEXT	SEGMENT
?Release@AppendPatch@@QAEXXZ PROC NEAR			; AppendPatch::Release, COMDAT
; _this$ = ecx

; 167  : {

  00000	53		 push	 ebx
  00001	56		 push	 esi
  00002	8b f1		 mov	 esi, ecx
  00004	57		 push	 edi

; 168  : 	APPEND_PATCH_VECTOR::iterator iNode = m_AppendPatch.begin();

  00005	8d 7e 1c	 lea	 edi, DWORD PTR [esi+28]
  00008	8b 1f		 mov	 ebx, DWORD PTR [edi]

; 169  : 
; 170  : 	while (iNode != m_AppendPatch.end())

  0000a	3b 5e 20	 cmp	 ebx, DWORD PTR [esi+32]
  0000d	74 1e		 je	 SHORT $L101135
  0000f	55		 push	 ebp
$L101134:

; 171  : 	{
; 172  : 		delete *iNode;

  00010	8b 2b		 mov	 ebp, DWORD PTR [ebx]
  00012	85 ed		 test	 ebp, ebp
  00014	74 0e		 je	 SHORT $L105905
  00016	8b cd		 mov	 ecx, ebp
  00018	e8 00 00 00 00	 call	 ??1APPEND_PATCH_NODE@@QAE@XZ
  0001d	55		 push	 ebp
  0001e	e8 00 00 00 00	 call	 ??3@YAXPAX@Z		; operator delete
  00023	59		 pop	 ecx
$L105905:

; 173  : 
; 174  : 		iNode ++;

  00024	83 c3 04	 add	 ebx, 4
  00027	3b 5e 20	 cmp	 ebx, DWORD PTR [esi+32]
  0002a	75 e4		 jne	 SHORT $L101134
  0002c	5d		 pop	 ebp
$L101135:

; 175  : 	}
; 176  : 
; 177  : 	m_AppendPatch.clear();

  0002d	ff 77 04	 push	 DWORD PTR [edi+4]
  00030	8b cf		 mov	 ecx, edi
  00032	ff 37		 push	 DWORD PTR [edi]
  00034	e8 00 00 00 00	 call	 ?erase@?$vector@PAVAPPEND_PATCH_NODE@@V?$allocator@PAVAPPEND_PATCH_NODE@@@_STL@@@_STL@@QAEPAPAVAPPEND_PATCH_NODE@@PAPAV3@0@Z ; _STL::vector<APPEND_PATCH_NODE *,_STL::allocator<APPEND_PATCH_NODE *> >::erase

; 178  : 
; 179  : 	m_orgFilename.Release();

  00039	8b ce		 mov	 ecx, esi
  0003b	e8 00 00 00 00	 call	 ?Release@MString@@QAEXXZ ; MString::Release

; 180  : 	m_orgFilesize = 0;

  00040	33 c0		 xor	 eax, eax
  00042	5f		 pop	 edi
  00043	89 46 0c	 mov	 DWORD PTR [esi+12], eax

; 181  : 	m_orgSpkSize = 0;

  00046	66 89 46 10	 mov	 WORD PTR [esi+16], ax

; 182  : 	m_finalFilesize = 0;

  0004a	89 46 14	 mov	 DWORD PTR [esi+20], eax

; 183  : 	m_finalSpkSize = 0;

  0004d	66 89 46 18	 mov	 WORD PTR [esi+24], ax
  00051	5e		 pop	 esi
  00052	5b		 pop	 ebx

; 184  : }

  00053	c3		 ret	 0
?Release@AppendPatch@@QAEXXZ ENDP			; AppendPatch::Release
_TEXT	ENDS
PUBLIC	?SaveToFile@AppendPatch@@QAEXAAV?$basic_ofstream@DV?$char_traits@D@_STL@@@_STL@@@Z ; AppendPatch::SaveToFile
; Function compile flags: /Ogsy
;	COMDAT ?SaveToFile@AppendPatch@@QAEXAAV?$basic_ofstream@DV?$char_traits@D@_STL@@@_STL@@@Z
_TEXT	SEGMENT
_num$ = 8						; size = 4
_file$ = 8						; size = 4
?SaveToFile@AppendPatch@@QAEXAAV?$basic_ofstream@DV?$char_traits@D@_STL@@@_STL@@@Z PROC NEAR ; AppendPatch::SaveToFile, COMDAT
; _this$ = ecx

; 535  : {	

  00000	55		 push	 ebp
  00001	8b ec		 mov	 ebp, esp
  00003	53		 push	 ebx

; 536  : 	m_orgFilename.SaveToFile( file );

  00004	8b 5d 08	 mov	 ebx, DWORD PTR _file$[ebp]
  00007	56		 push	 esi
  00008	57		 push	 edi
  00009	8b f1		 mov	 esi, ecx
  0000b	8b 06		 mov	 eax, DWORD PTR [esi]
  0000d	53		 push	 ebx
  0000e	ff 50 04	 call	 DWORD PTR [eax+4]

; 537  : 	file.write((const char*)&m_orgFilesize, 4);

  00011	6a 04		 push	 4
  00013	8d 46 0c	 lea	 eax, DWORD PTR [esi+12]
  00016	50		 push	 eax
  00017	8b cb		 mov	 ecx, ebx
  00019	e8 00 00 00 00	 call	 ?write@?$basic_ostream@DV?$char_traits@D@_STL@@@_STL@@QAEAAV12@PBDH@Z ; _STL::basic_ostream<char,_STL::char_traits<char> >::write

; 538  : 	file.write((const char*)&m_orgSpkSize, 2);

  0001e	6a 02		 push	 2
  00020	8d 46 10	 lea	 eax, DWORD PTR [esi+16]
  00023	50		 push	 eax
  00024	8b cb		 mov	 ecx, ebx
  00026	e8 00 00 00 00	 call	 ?write@?$basic_ostream@DV?$char_traits@D@_STL@@@_STL@@QAEAAV12@PBDH@Z ; _STL::basic_ostream<char,_STL::char_traits<char> >::write

; 539  : 	file.write((const char*)&m_finalFilesize, 4);

  0002b	6a 04		 push	 4
  0002d	8d 46 14	 lea	 eax, DWORD PTR [esi+20]
  00030	50		 push	 eax
  00031	8b cb		 mov	 ecx, ebx
  00033	e8 00 00 00 00	 call	 ?write@?$basic_ostream@DV?$char_traits@D@_STL@@@_STL@@QAEAAV12@PBDH@Z ; _STL::basic_ostream<char,_STL::char_traits<char> >::write

; 540  : 	file.write((const char*)&m_finalSpkSize, 2);

  00038	6a 02		 push	 2
  0003a	8d 46 18	 lea	 eax, DWORD PTR [esi+24]
  0003d	50		 push	 eax
  0003e	8b cb		 mov	 ecx, ebx
  00040	e8 00 00 00 00	 call	 ?write@?$basic_ostream@DV?$char_traits@D@_STL@@@_STL@@QAEAAV12@PBDH@Z ; _STL::basic_ostream<char,_STL::char_traits<char> >::write

; 541  : 
; 542  : 	int num = m_AppendPatch.size();

  00045	8b 46 20	 mov	 eax, DWORD PTR [esi+32]
  00048	2b 46 1c	 sub	 eax, DWORD PTR [esi+28]

; 543  : 	file.write((const char*)&num, 4);

  0004b	6a 04		 push	 4
  0004d	c1 f8 02	 sar	 eax, 2
  00050	89 45 08	 mov	 DWORD PTR _num$[ebp], eax
  00053	8d 45 08	 lea	 eax, DWORD PTR _num$[ebp]
  00056	50		 push	 eax
  00057	8b cb		 mov	 ecx, ebx
  00059	e8 00 00 00 00	 call	 ?write@?$basic_ostream@DV?$char_traits@D@_STL@@@_STL@@QAEAAV12@PBDH@Z ; _STL::basic_ostream<char,_STL::char_traits<char> >::write

; 544  : 
; 545  : 	APPEND_PATCH_VECTOR::const_iterator iNode = m_AppendPatch.begin();

  0005e	8b 7e 1c	 mov	 edi, DWORD PTR [esi+28]
  00061	eb 0b		 jmp	 SHORT $L105952
$L101284:

; 548  : 	{
; 549  : 		APPEND_PATCH_NODE* pNode = *iNode;
; 550  : 
; 551  : 		pNode->SaveToFile( file );

  00063	8b 0f		 mov	 ecx, DWORD PTR [edi]
  00065	53		 push	 ebx
  00066	e8 00 00 00 00	 call	 ?SaveToFile@APPEND_PATCH_NODE@@QAEXAAV?$basic_ofstream@DV?$char_traits@D@_STL@@@_STL@@@Z ; APPEND_PATCH_NODE::SaveToFile

; 552  : 		
; 553  : 		iNode++;

  0006b	83 c7 04	 add	 edi, 4
$L105952:

; 546  : 
; 547  : 	while (iNode != m_AppendPatch.end())

  0006e	3b 7e 20	 cmp	 edi, DWORD PTR [esi+32]
  00071	75 f0		 jne	 SHORT $L101284
  00073	5f		 pop	 edi
  00074	5e		 pop	 esi
  00075	5b		 pop	 ebx

; 554  : 	}	
; 555  : }

  00076	5d		 pop	 ebp
  00077	c2 04 00	 ret	 4
?SaveToFile@AppendPatch@@QAEXAAV?$basic_ofstream@DV?$char_traits@D@_STL@@@_STL@@@Z ENDP ; AppendPatch::SaveToFile
_TEXT	ENDS
PUBLIC	?push_back@?$vector@PAVAPPEND_PATCH_NODE@@V?$allocator@PAVAPPEND_PATCH_NODE@@@_STL@@@_STL@@QAEXABQAVAPPEND_PATCH_NODE@@@Z ; _STL::vector<APPEND_PATCH_NODE *,_STL::allocator<APPEND_PATCH_NODE *> >::push_back
; Function compile flags: /Ogsy
; File c:\stlport-4.6.1\stlport\stl\_vector.h
;	COMDAT ?push_back@?$vector@PAVAPPEND_PATCH_NODE@@V?$allocator@PAVAPPEND_PATCH_NODE@@@_STL@@@_STL@@QAEXABQAVAPPEND_PATCH_NODE@@@Z
_TEXT	SEGMENT
___x$ = 8						; size = 4
$T105955 = 11						; size = 1
?push_back@?$vector@PAVAPPEND_PATCH_NODE@@V?$allocator@PAVAPPEND_PATCH_NODE@@@_STL@@@_STL@@QAEXABQAVAPPEND_PATCH_NODE@@@Z PROC NEAR ; _STL::vector<APPEND_PATCH_NODE *,_STL::allocator<APPEND_PATCH_NODE *> >::push_back, COMDAT
; _this$ = ecx

; 331  :   void push_back(const _Tp& __x) {

  00000	55		 push	 ebp
  00001	8b ec		 mov	 ebp, esp

; 332  :     if (this->_M_finish != this->_M_end_of_storage._M_data) {

  00003	8b 41 04	 mov	 eax, DWORD PTR [ecx+4]
  00006	3b 41 08	 cmp	 eax, DWORD PTR [ecx+8]
  00009	74 11		 je	 SHORT $L101408

; 333  :       _Construct(this->_M_finish, __x);

  0000b	85 c0		 test	 eax, eax
  0000d	74 07		 je	 SHORT $L105965
  0000f	8b 55 08	 mov	 edx, DWORD PTR ___x$[ebp]
  00012	8b 12		 mov	 edx, DWORD PTR [edx]
  00014	89 10		 mov	 DWORD PTR [eax], edx
$L105965:

; 334  :       ++this->_M_finish;

  00016	83 41 04 04	 add	 DWORD PTR [ecx+4], 4

; 335  :     }
; 336  :     else

  0001a	eb 11		 jmp	 SHORT $L101415
$L101408:

; 337  :       _M_insert_overflow(this->_M_finish, __x, _IsPODType(), 1UL, true);

  0001c	6a 01		 push	 1
  0001e	6a 01		 push	 1
  00020	8d 55 0b	 lea	 edx, DWORD PTR $T105955[ebp]
  00023	52		 push	 edx
  00024	ff 75 08	 push	 DWORD PTR ___x$[ebp]
  00027	50		 push	 eax
  00028	e8 00 00 00 00	 call	 ?_M_insert_overflow@?$vector@PAVAPPEND_PATCH_NODE@@V?$allocator@PAVAPPEND_PATCH_NODE@@@_STL@@@_STL@@IAEXPAPAVAPPEND_PATCH_NODE@@ABQAV3@ABU__true_type@2@I_N@Z ; _STL::vector<APPEND_PATCH_NODE *,_STL::allocator<APPEND_PATCH_NODE *> >::_M_insert_overflow
$L101415:

; 338  :   }

  0002d	5d		 pop	 ebp
  0002e	c2 04 00	 ret	 4
?push_back@?$vector@PAVAPPEND_PATCH_NODE@@V?$allocator@PAVAPPEND_PATCH_NODE@@@_STL@@@_STL@@QAEXABQAVAPPEND_PATCH_NODE@@@Z ENDP ; _STL::vector<APPEND_PATCH_NODE *,_STL::allocator<APPEND_PATCH_NODE *> >::push_back
_TEXT	ENDS
PUBLIC	?grouping@?$numpunct@D@_STL@@QBE?AV?$basic_string@DV?$char_traits@D@_STL@@V?$allocator@D@2@@2@XZ ; _STL::numpunct<char>::grouping
; Function compile flags: /Ogsy
; File c:\stlport-4.6.1\stlport\stl\_numpunct.h
;	COMDAT ?grouping@?$numpunct@D@_STL@@QBE?AV?$basic_string@DV?$char_traits@D@_STL@@V?$allocator@D@2@@2@XZ
_TEXT	SEGMENT
$T105974 = -4						; size = 4
___$ReturnUdt$ = 8					; size = 4
?grouping@?$numpunct@D@_STL@@QBE?AV?$basic_string@DV?$char_traits@D@_STL@@V?$allocator@D@2@@2@XZ PROC NEAR ; _STL::numpunct<char>::grouping, COMDAT
; _this$ = ecx

; 62   :   string grouping() const { return do_grouping(); }

  00000	55		 push	 ebp
  00001	8b ec		 mov	 ebp, esp
  00003	51		 push	 ecx
  00004	ff 75 08	 push	 DWORD PTR ___$ReturnUdt$[ebp]
  00007	8b 01		 mov	 eax, DWORD PTR [ecx]
  00009	83 65 fc 00	 and	 DWORD PTR $T105974[ebp], 0
  0000d	ff 50 0c	 call	 DWORD PTR [eax+12]
  00010	8b 45 08	 mov	 eax, DWORD PTR ___$ReturnUdt$[ebp]
  00013	c9		 leave
  00014	c2 04 00	 ret	 4
?grouping@?$numpunct@D@_STL@@QBE?AV?$basic_string@DV?$char_traits@D@_STL@@V?$allocator@D@2@@2@XZ ENDP ; _STL::numpunct<char>::grouping
_TEXT	ENDS
PUBLIC	??$append@PAD@?$basic_string@DV?$char_traits@D@_STL@@V?$allocator@D@2@@_STL@@QAEAAV01@PAD0@Z ; _STL::basic_string<char,_STL::char_traits<char>,_STL::allocator<char> >::append<char *>
; Function compile flags: /Ogsy
; File c:\stlport-4.6.1\stlport\stl\_string.h
;	COMDAT ??$append@PAD@?$basic_string@DV?$char_traits@D@_STL@@V?$allocator@D@2@@_STL@@QAEAAV01@PAD0@Z
_TEXT	SEGMENT
___first$ = 8						; size = 4
___last$ = 12						; size = 4
$T105982 = 15						; size = 1
??$append@PAD@?$basic_string@DV?$char_traits@D@_STL@@V?$allocator@D@2@@_STL@@QAEAAV01@PAD0@Z PROC NEAR ; _STL::basic_string<char,_STL::char_traits<char>,_STL::allocator<char> >::append<char *>, COMDAT
; _this$ = ecx

; 506  :   template <class _InputIter> _Self& append(_InputIter __first, _InputIter __last) {

  00000	55		 push	 ebp
  00001	8b ec		 mov	 ebp, esp

; 507  :     typedef typename _Is_integer<_InputIter>::_Integral _Integral;
; 508  :     return _M_append_dispatch(__first, __last, _Integral());

  00003	8d 45 0f	 lea	 eax, DWORD PTR $T105982[ebp]
  00006	50		 push	 eax
  00007	ff 75 0c	 push	 DWORD PTR ___last$[ebp]
  0000a	ff 75 08	 push	 DWORD PTR ___first$[ebp]
  0000d	e8 00 00 00 00	 call	 ??$append@PAD@?$basic_string@DV?$char_traits@D@_STL@@V?$allocator@D@2@@_STL@@AAEAAV01@PAD0ABUforward_iterator_tag@1@@Z ; _STL::basic_string<char,_STL::char_traits<char>,_STL::allocator<char> >::append<char *>

; 509  :   }

  00012	5d		 pop	 ebp
  00013	c2 08 00	 ret	 8
??$append@PAD@?$basic_string@DV?$char_traits@D@_STL@@V?$allocator@D@2@@_STL@@QAEAAV01@PAD0@Z ENDP ; _STL::basic_string<char,_STL::char_traits<char>,_STL::allocator<char> >::append<char *>
_TEXT	ENDS
PUBLIC	??1AppendPatch@@QAE@XZ				; AppendPatch::~AppendPatch
;	COMDAT xdata$x
; File c:\stlport-4.6.1\stlport\stl\_construct.h
xdata$x	SEGMENT
$T106023 DD	0ffffffffH
	DD	FLAT:$L105986
	DD	00H
	DD	FLAT:$L105987
$T106021 DD	019930520H
	DD	02H
	DD	FLAT:$T106023
	DD	2 DUP(00H)
	DD	2 DUP(00H)
; Function compile flags: /Ogsy
; File c:\darkeden\designed_common\project\client\appendpatchinfo.cpp
xdata$x	ENDS
;	COMDAT ??1AppendPatch@@QAE@XZ
_TEXT	SEGMENT
_this$ = -16						; size = 4
__$EHRec$ = -12						; size = 12
??1AppendPatch@@QAE@XZ PROC NEAR			; AppendPatch::~AppendPatch, COMDAT
; _this$ = ecx

; 158  : {

  00000	b8 00 00 00 00	 mov	 eax, __ehhandler$??1AppendPatch@@QAE@XZ
  00005	e8 00 00 00 00	 call	 __EH_prolog
  0000a	51		 push	 ecx
  0000b	56		 push	 esi
  0000c	8b f1		 mov	 esi, ecx
  0000e	89 75 f0	 mov	 DWORD PTR _this$[ebp], esi
  00011	c7 45 fc 01 00
	00 00		 mov	 DWORD PTR __$EHRec$[ebp+8], 1

; 159  : 	Release();

  00018	e8 00 00 00 00	 call	 ?Release@AppendPatch@@QAEXXZ ; AppendPatch::Release

; 160  : }

  0001d	8d 4e 1c	 lea	 ecx, DWORD PTR [esi+28]
  00020	c6 45 fc 00	 mov	 BYTE PTR __$EHRec$[ebp+8], 0
  00024	e8 00 00 00 00	 call	 ??1?$_Vector_base@PAVAPPEND_PATCH_NODE@@V?$allocator@PAVAPPEND_PATCH_NODE@@@_STL@@@_STL@@QAE@XZ ; _STL::_Vector_base<APPEND_PATCH_NODE *,_STL::allocator<APPEND_PATCH_NODE *> >::~_Vector_base<APPEND_PATCH_NODE *,_STL::allocator<APPEND_PATCH_NODE *> >
  00029	83 4d fc ff	 or	 DWORD PTR __$EHRec$[ebp+8], -1
  0002d	8b ce		 mov	 ecx, esi
  0002f	e8 00 00 00 00	 call	 ??1MString@@UAE@XZ	; MString::~MString
  00034	8b 4d f4	 mov	 ecx, DWORD PTR __$EHRec$[ebp]
  00037	5e		 pop	 esi
  00038	64 89 0d 00 00
	00 00		 mov	 DWORD PTR fs:__except_list, ecx
  0003f	c9		 leave
  00040	c3		 ret	 0
_TEXT	ENDS
;	COMDAT text$x
text$x	SEGMENT
$L105986:
  00000	8b 4d f0	 mov	 ecx, DWORD PTR _this$[ebp]
  00003	e9 00 00 00 00	 jmp	 ??1MString@@UAE@XZ	; MString::~MString
$L105987:
  00008	8b 4d f0	 mov	 ecx, DWORD PTR _this$[ebp]
  0000b	83 c1 1c	 add	 ecx, 28			; 0000001cH
  0000e	e9 00 00 00 00	 jmp	 ??1?$vector@PAVAPPEND_PATCH_NODE@@V?$allocator@PAVAPPEND_PATCH_NODE@@@_STL@@@_STL@@QAE@XZ ; _STL::vector<APPEND_PATCH_NODE *,_STL::allocator<APPEND_PATCH_NODE *> >::~vector<APPEND_PATCH_NODE *,_STL::allocator<APPEND_PATCH_NODE *> >
__ehhandler$??1AppendPatch@@QAE@XZ:
  00013	b8 00 00 00 00	 mov	 eax, OFFSET FLAT:$T106021
  00018	e9 00 00 00 00	 jmp	 ___CxxFrameHandler
text$x	ENDS
??1AppendPatch@@QAE@XZ ENDP				; AppendPatch::~AppendPatch
PUBLIC	?AddAppendInfo@AppendPatch@@QAEXPBDJG@Z		; AppendPatch::AddAppendInfo
;	COMDAT xdata$x
xdata$x	SEGMENT
$T106053 DD	0ffffffffH
	DD	FLAT:$L106032
$T106051 DD	019930520H
	DD	01H
	DD	FLAT:$T106053
	DD	2 DUP(00H)
	DD	2 DUP(00H)
; Function compile flags: /Ogsy
xdata$x	ENDS
;	COMDAT ?AddAppendInfo@AppendPatch@@QAEXPBDJG@Z
_TEXT	SEGMENT
tv160 = -20						; size = 4
$T106029 = -16						; size = 4
_pNode$ = -16						; size = 4
__$EHRec$ = -12						; size = 12
_appendFilename$ = 8					; size = 4
_appendFilesize$ = 12					; size = 4
_appSpkSize$ = 16					; size = 2
?AddAppendInfo@AppendPatch@@QAEXPBDJG@Z PROC NEAR	; AppendPatch::AddAppendInfo, COMDAT
; _this$ = ecx

; 242  : {

  00000	b8 00 00 00 00	 mov	 eax, __ehhandler$?AddAppendInfo@AppendPatch@@QAEXPBDJG@Z
  00005	e8 00 00 00 00	 call	 __EH_prolog
  0000a	51		 push	 ecx
  0000b	51		 push	 ecx

; 243  : 	long previousFilesize;
; 244  : 	WORD previousSpkSize;
; 245  : 
; 246  : 	//------------------------------------------------------------
; 247  : 	//    
; 248  : 	//------------------------------------------------------------
; 249  : 	if (m_AppendPatch.size()==0)

  0000c	8d 41 1c	 lea	 eax, DWORD PTR [ecx+28]
  0000f	8b 50 04	 mov	 edx, DWORD PTR [eax+4]
  00012	2b 10		 sub	 edx, DWORD PTR [eax]
  00014	53		 push	 ebx
  00015	f7 c2 fc ff ff
	ff		 test	 edx, -4			; fffffffcH
  0001b	56		 push	 esi
  0001c	57		 push	 edi
  0001d	89 45 ec	 mov	 DWORD PTR tv160[ebp], eax
  00020	75 09		 jne	 SHORT $L101215

; 250  : 	{
; 251  : 		previousFilesize = m_orgFilesize;

  00022	8b 79 0c	 mov	 edi, DWORD PTR [ecx+12]

; 252  : 		previousSpkSize	= m_orgSpkSize;

  00025	66 8b 59 10	 mov	 bx, WORD PTR [ecx+16]

; 253  : 	}
; 254  : 	else

  00029	eb 0d		 jmp	 SHORT $L101216
$L101215:

; 255  : 	{
; 256  : 		APPEND_PATCH_NODE* pNode = m_AppendPatch.back();

  0002b	8b 49 20	 mov	 ecx, DWORD PTR [ecx+32]
  0002e	8b 41 fc	 mov	 eax, DWORD PTR [ecx-4]

; 257  : 
; 258  : 		previousFilesize = pNode->afterFilesize;

  00031	8b 78 18	 mov	 edi, DWORD PTR [eax+24]

; 259  : 		previousSpkSize = pNode->afterSpkSize;

  00034	66 8b 58 1c	 mov	 bx, WORD PTR [eax+28]
$L101216:

; 260  : 	}
; 261  : 
; 262  : 	//------------------------------------------------------------
; 263  : 	//   
; 264  : 	//------------------------------------------------------------
; 265  : 	APPEND_PATCH_NODE* pNode = new APPEND_PATCH_NODE;

  00038	6a 20		 push	 32			; 00000020H
  0003a	e8 00 00 00 00	 call	 ??2@YAPAXI@Z		; operator new
  0003f	8b f0		 mov	 esi, eax
  00041	59		 pop	 ecx
  00042	89 75 f0	 mov	 DWORD PTR $T106029[ebp], esi
  00045	83 65 fc 00	 and	 DWORD PTR __$EHRec$[ebp+8], 0
  00049	85 f6		 test	 esi, esi
  0004b	74 09		 je	 SHORT $L106030
  0004d	8b ce		 mov	 ecx, esi
  0004f	e8 00 00 00 00	 call	 ??0MString@@QAE@XZ	; MString::MString
  00054	eb 02		 jmp	 SHORT $L106031
$L106030:
  00056	33 f6		 xor	 esi, esi
$L106031:

; 266  : 
; 267  : 	pNode->appendFilename	= appendFilename;

  00058	ff 75 08	 push	 DWORD PTR _appendFilename$[ebp]
  0005b	83 4d fc ff	 or	 DWORD PTR __$EHRec$[ebp+8], -1
  0005f	8b ce		 mov	 ecx, esi
  00061	89 75 f0	 mov	 DWORD PTR _pNode$[ebp], esi
  00064	e8 00 00 00 00	 call	 ??4MString@@QAEXPBD@Z	; MString::operator=

; 268  : 	pNode->appendFilesize	= appendFilesize;

  00069	8b 45 0c	 mov	 eax, DWORD PTR _appendFilesize$[ebp]

; 269  : 	pNode->appSpkSize		= appSpkSize;		

  0006c	8b 4d 10	 mov	 ecx, DWORD PTR _appSpkSize$[ebp]
  0006f	89 46 0c	 mov	 DWORD PTR [esi+12], eax
  00072	66 89 4e 10	 mov	 WORD PTR [esi+16], cx

; 270  : 	pNode->writePosition	= previousFilesize;
; 271  : 	pNode->afterFilesize	= previousFilesize + appendFilesize-2;	// SPK   2 bytes

  00076	8d 44 07 fe	 lea	 eax, DWORD PTR [edi+eax-2]
  0007a	89 7e 14	 mov	 DWORD PTR [esi+20], edi
  0007d	89 46 18	 mov	 DWORD PTR [esi+24], eax

; 272  : 	pNode->afterSpkSize		= previousSpkSize + appSpkSize;

  00080	03 d9		 add	 ebx, ecx

; 273  : 
; 274  : 	m_AppendPatch.push_back( pNode );

  00082	8b 4d ec	 mov	 ecx, DWORD PTR tv160[ebp]
  00085	8d 45 f0	 lea	 eax, DWORD PTR _pNode$[ebp]
  00088	50		 push	 eax
  00089	66 89 5e 1c	 mov	 WORD PTR [esi+28], bx
  0008d	e8 00 00 00 00	 call	 ?push_back@?$vector@PAVAPPEND_PATCH_NODE@@V?$allocator@PAVAPPEND_PATCH_NODE@@@_STL@@@_STL@@QAEXABQAVAPPEND_PATCH_NODE@@@Z ; _STL::vector<APPEND_PATCH_NODE *,_STL::allocator<APPEND_PATCH_NODE *> >::push_back

; 275  : }

  00092	8b 4d f4	 mov	 ecx, DWORD PTR __$EHRec$[ebp]
  00095	5f		 pop	 edi
  00096	5e		 pop	 esi
  00097	5b		 pop	 ebx
  00098	64 89 0d 00 00
	00 00		 mov	 DWORD PTR fs:__except_list, ecx
  0009f	c9		 leave
  000a0	c2 0c 00	 ret	 12			; 0000000cH
_TEXT	ENDS
;	COMDAT text$x
text$x	SEGMENT
$L106032:
  00000	ff 75 f0	 push	 DWORD PTR $T106029[ebp]
  00003	e8 00 00 00 00	 call	 ??3@YAXPAX@Z		; operator delete
  00008	59		 pop	 ecx
  00009	c3		 ret	 0
__ehhandler$?AddAppendInfo@AppendPatch@@QAEXPBDJG@Z:
  0000a	b8 00 00 00 00	 mov	 eax, OFFSET FLAT:$T106051
  0000f	e9 00 00 00 00	 jmp	 ___CxxFrameHandler
text$x	ENDS
?AddAppendInfo@AppendPatch@@QAEXPBDJG@Z ENDP		; AppendPatch::AddAppendInfo
PUBLIC	?LoadFromFile@AppendPatch@@QAEXAAVivfstream@@@Z	; AppendPatch::LoadFromFile
;	COMDAT xdata$x
xdata$x	SEGMENT
$T106101 DD	0ffffffffH
	DD	FLAT:$L106062
$T106093 DD	019930520H
	DD	01H
	DD	FLAT:$T106101
	DD	2 DUP(00H)
	DD	2 DUP(00H)
; Function compile flags: /Ogsy
xdata$x	ENDS
;	COMDAT ?LoadFromFile@AppendPatch@@QAEXAAVivfstream@@@Z
_TEXT	SEGMENT
tv242 = -20						; size = 4
_num$ = -16						; size = 4
__$EHRec$ = -12						; size = 12
$T106059 = 8						; size = 4
_pNode$101301 = 8					; size = 4
_file$ = 8						; size = 4
?LoadFromFile@AppendPatch@@QAEXAAVivfstream@@@Z PROC NEAR ; AppendPatch::LoadFromFile, COMDAT
; _this$ = ecx

; 562  : {

  00000	b8 00 00 00 00	 mov	 eax, __ehhandler$?LoadFromFile@AppendPatch@@QAEXAAVivfstream@@@Z
  00005	e8 00 00 00 00	 call	 __EH_prolog
  0000a	51		 push	 ecx
  0000b	51		 push	 ecx
  0000c	53		 push	 ebx
  0000d	56		 push	 esi
  0000e	57		 push	 edi
  0000f	8b f9		 mov	 edi, ecx

; 563  : 	Release();

  00011	e8 00 00 00 00	 call	 ?Release@AppendPatch@@QAEXXZ ; AppendPatch::Release

; 564  : 
; 565  : 	m_orgFilename.LoadFromFile( file );

  00016	8b 75 08	 mov	 esi, DWORD PTR _file$[ebp]
  00019	8b 07		 mov	 eax, DWORD PTR [edi]
  0001b	56		 push	 esi
  0001c	8b cf		 mov	 ecx, edi
  0001e	ff 50 08	 call	 DWORD PTR [eax+8]

; 566  : 	file.read((char*)&m_orgFilesize, 4);

  00021	33 db		 xor	 ebx, ebx
  00023	39 5e 04	 cmp	 DWORD PTR [esi+4], ebx
  00026	74 5a		 je	 SHORT $L106085
  00028	8b 4e 04	 mov	 ecx, DWORD PTR [esi+4]
  0002b	8b 01		 mov	 eax, DWORD PTR [ecx]
  0002d	6a 04		 push	 4
  0002f	8d 57 0c	 lea	 edx, DWORD PTR [edi+12]
  00032	52		 push	 edx
  00033	ff 50 10	 call	 DWORD PTR [eax+16]

; 567  : 	file.read((char*)&m_orgSpkSize, 2);

  00036	39 5e 04	 cmp	 DWORD PTR [esi+4], ebx
  00039	74 47		 je	 SHORT $L106085
  0003b	8b 4e 04	 mov	 ecx, DWORD PTR [esi+4]
  0003e	8b 01		 mov	 eax, DWORD PTR [ecx]
  00040	6a 02		 push	 2
  00042	8d 57 10	 lea	 edx, DWORD PTR [edi+16]
  00045	52		 push	 edx
  00046	ff 50 10	 call	 DWORD PTR [eax+16]

; 568  : 	file.read((char*)&m_finalFilesize, 4);

  00049	39 5e 04	 cmp	 DWORD PTR [esi+4], ebx
  0004c	74 34		 je	 SHORT $L106085
  0004e	8b 4e 04	 mov	 ecx, DWORD PTR [esi+4]
  00051	8b 01		 mov	 eax, DWORD PTR [ecx]
  00053	6a 04		 push	 4
  00055	8d 57 14	 lea	 edx, DWORD PTR [edi+20]
  00058	52		 push	 edx
  00059	ff 50 10	 call	 DWORD PTR [eax+16]

; 569  : 	file.read((char*)&m_finalSpkSize, 2);

  0005c	39 5e 04	 cmp	 DWORD PTR [esi+4], ebx
  0005f	74 21		 je	 SHORT $L106085
  00061	8b 4e 04	 mov	 ecx, DWORD PTR [esi+4]
  00064	8b 01		 mov	 eax, DWORD PTR [ecx]
  00066	6a 02		 push	 2
  00068	8d 57 18	 lea	 edx, DWORD PTR [edi+24]
  0006b	52		 push	 edx
  0006c	ff 50 10	 call	 DWORD PTR [eax+16]

; 570  : 
; 571  : 	int num;
; 572  : 	file.read((char*)&num, 4);

  0006f	39 5e 04	 cmp	 DWORD PTR [esi+4], ebx
  00072	74 0e		 je	 SHORT $L106085
  00074	8b 4e 04	 mov	 ecx, DWORD PTR [esi+4]
  00077	8b 01		 mov	 eax, DWORD PTR [ecx]
  00079	6a 04		 push	 4
  0007b	8d 55 f0	 lea	 edx, DWORD PTR _num$[ebp]
  0007e	52		 push	 edx
  0007f	ff 50 10	 call	 DWORD PTR [eax+16]
$L106085:

; 573  : 
; 574  : 	for (int i=0; i<num; i++)

  00082	83 7d f0 00	 cmp	 DWORD PTR _num$[ebp], 0
  00086	7e 44		 jle	 SHORT $L101300
  00088	83 c7 1c	 add	 edi, 28			; 0000001cH

; 575  : 	{
; 576  : 		APPEND_PATCH_NODE* pNode = new APPEND_PATCH_NODE;

  0008b	89 7d ec	 mov	 DWORD PTR tv242[ebp], edi
$L101298:
  0008e	6a 20		 push	 32			; 00000020H
  00090	e8 00 00 00 00	 call	 ??2@YAPAXI@Z		; operator new
  00095	8b f8		 mov	 edi, eax
  00097	59		 pop	 ecx
  00098	89 7d 08	 mov	 DWORD PTR $T106059[ebp], edi
  0009b	33 c9		 xor	 ecx, ecx
  0009d	3b f9		 cmp	 edi, ecx
  0009f	89 4d fc	 mov	 DWORD PTR __$EHRec$[ebp+8], ecx
  000a2	74 09		 je	 SHORT $L106061
  000a4	8b cf		 mov	 ecx, edi
  000a6	e8 00 00 00 00	 call	 ??0MString@@QAE@XZ	; MString::MString
  000ab	8b cf		 mov	 ecx, edi
$L106061:
  000ad	83 4d fc ff	 or	 DWORD PTR __$EHRec$[ebp+8], -1

; 577  : 
; 578  : 		pNode->LoadFromFile( file );

  000b1	56		 push	 esi
  000b2	89 4d 08	 mov	 DWORD PTR _pNode$101301[ebp], ecx
  000b5	e8 00 00 00 00	 call	 ?LoadFromFile@APPEND_PATCH_NODE@@QAEXAAVivfstream@@@Z ; APPEND_PATCH_NODE::LoadFromFile

; 579  : 		
; 580  : 		m_AppendPatch.push_back( pNode );

  000ba	8b 4d ec	 mov	 ecx, DWORD PTR tv242[ebp]
  000bd	8d 45 08	 lea	 eax, DWORD PTR _pNode$101301[ebp]
  000c0	50		 push	 eax
  000c1	e8 00 00 00 00	 call	 ?push_back@?$vector@PAVAPPEND_PATCH_NODE@@V?$allocator@PAVAPPEND_PATCH_NODE@@@_STL@@@_STL@@QAEXABQAVAPPEND_PATCH_NODE@@@Z ; _STL::vector<APPEND_PATCH_NODE *,_STL::allocator<APPEND_PATCH_NODE *> >::push_back
  000c6	43		 inc	 ebx
  000c7	3b 5d f0	 cmp	 ebx, DWORD PTR _num$[ebp]
  000ca	7c c2		 jl	 SHORT $L101298
$L101300:

; 581  : 	}
; 582  : }

  000cc	8b 4d f4	 mov	 ecx, DWORD PTR __$EHRec$[ebp]
  000cf	5f		 pop	 edi
  000d0	5e		 pop	 esi
  000d1	5b		 pop	 ebx
  000d2	64 89 0d 00 00
	00 00		 mov	 DWORD PTR fs:__except_list, ecx
  000d9	c9		 leave
  000da	c2 04 00	 ret	 4
_TEXT	ENDS
;	COMDAT text$x
text$x	SEGMENT
$L106062:
  00000	ff 75 08	 push	 DWORD PTR $T106059[ebp]
  00003	e8 00 00 00 00	 call	 ??3@YAXPAX@Z		; operator delete
  00008	59		 pop	 ecx
  00009	c3		 ret	 0
__ehhandler$?LoadFromFile@AppendPatch@@QAEXAAVivfstream@@@Z:
  0000a	b8 00 00 00 00	 mov	 eax, OFFSET FLAT:$T106093
  0000f	e9 00 00 00 00	 jmp	 ___CxxFrameHandler
text$x	ENDS
?LoadFromFile@AppendPatch@@QAEXAAVivfstream@@@Z ENDP	; AppendPatch::LoadFromFile
PUBLIC	??$_M_assign_dispatch@PAD@?$basic_string@DV?$char_traits@D@_STL@@V?$allocator@D@2@@_STL@@AAEAAV01@PAD0ABU__false_type@1@@Z ; _STL::basic_string<char,_STL::char_traits<char>,_STL::allocator<char> >::_M_assign_dispatch<char *>
; Function compile flags: /Ogsy
; File c:\stlport-4.6.1\stlport\stl\_string.h
;	COMDAT ??$_M_assign_dispatch@PAD@?$basic_string@DV?$char_traits@D@_STL@@V?$allocator@D@2@@_STL@@AAEAAV01@PAD0ABU__false_type@1@@Z
_TEXT	SEGMENT
___f$ = 8						; size = 4
$T106123 = 11						; size = 1
___l$ = 12						; size = 4
___formal$ = 16						; size = 4
??$_M_assign_dispatch@PAD@?$basic_string@DV?$char_traits@D@_STL@@V?$allocator@D@2@@_STL@@AAEAAV01@PAD0ABU__false_type@1@@Z PROC NEAR ; _STL::basic_string<char,_STL::char_traits<char>,_STL::allocator<char> >::_M_assign_dispatch<char *>, COMDAT
; _this$ = ecx

; 624  :   _Self& _M_assign_dispatch(_InputIter __f, _InputIter __l,

  00000	55		 push	 ebp
  00001	8b ec		 mov	 ebp, esp
  00003	56		 push	 esi
  00004	8b f1		 mov	 esi, ecx

; 625  : 			    const __false_type&)  {
; 626  :     pointer __cur = this->_M_start;
; 627  :     while (__f != __l && __cur != this->_M_finish) {

  00006	8b 4d 08	 mov	 ecx, DWORD PTR ___f$[ebp]
  00009	8b 06		 mov	 eax, DWORD PTR [esi]
  0000b	57		 push	 edi
  0000c	8b 7d 0c	 mov	 edi, DWORD PTR ___l$[ebp]
  0000f	3b cf		 cmp	 ecx, edi
  00011	74 13		 je	 SHORT $L106128
$L101762:
  00013	3b 46 04	 cmp	 eax, DWORD PTR [esi+4]
  00016	74 0a		 je	 SHORT $L101763

; 628  :       _Traits::assign(*__cur, *__f);

  00018	8a 11		 mov	 dl, BYTE PTR [ecx]

; 629  :       ++__f;

  0001a	41		 inc	 ecx
  0001b	88 10		 mov	 BYTE PTR [eax], dl

; 630  :       ++__cur;

  0001d	40		 inc	 eax
  0001e	3b cf		 cmp	 ecx, edi
  00020	75 f1		 jne	 SHORT $L101762
$L101763:

; 631  :     }
; 632  :     if (__f == __l)

  00022	3b cf		 cmp	 ecx, edi
  00024	75 0d		 jne	 SHORT $L101764
$L106128:

; 633  :       erase(__cur, end());

  00026	ff 76 04	 push	 DWORD PTR [esi+4]
  00029	8b ce		 mov	 ecx, esi
  0002b	50		 push	 eax
  0002c	e8 00 00 00 00	 call	 ?erase@?$basic_string@DV?$char_traits@D@_STL@@V?$allocator@D@2@@_STL@@QAEPADPAD0@Z ; _STL::basic_string<char,_STL::char_traits<char>,_STL::allocator<char> >::erase

; 634  :     else

  00031	eb 0d		 jmp	 SHORT $L106125
$L101764:

; 635  :       append(__f, __l);

  00033	8d 45 0b	 lea	 eax, DWORD PTR $T106123[ebp]
  00036	50		 push	 eax
  00037	57		 push	 edi
  00038	51		 push	 ecx
  00039	8b ce		 mov	 ecx, esi
  0003b	e8 00 00 00 00	 call	 ??$append@PAD@?$basic_string@DV?$char_traits@D@_STL@@V?$allocator@D@2@@_STL@@AAEAAV01@PAD0ABUforward_iterator_tag@1@@Z ; _STL::basic_string<char,_STL::char_traits<char>,_STL::allocator<char> >::append<char *>
$L106125:
  00040	5f		 pop	 edi

; 636  :     return *this;

  00041	8b c6		 mov	 eax, esi
  00043	5e		 pop	 esi

; 637  :   }

  00044	5d		 pop	 ebp
  00045	c2 0c 00	 ret	 12			; 0000000cH
??$_M_assign_dispatch@PAD@?$basic_string@DV?$char_traits@D@_STL@@V?$allocator@D@2@@_STL@@AAEAAV01@PAD0ABU__false_type@1@@Z ENDP ; _STL::basic_string<char,_STL::char_traits<char>,_STL::allocator<char> >::_M_assign_dispatch<char *>
_TEXT	ENDS
PUBLIC	??$assign@PAD@?$basic_string@DV?$char_traits@D@_STL@@V?$allocator@D@2@@_STL@@QAEAAV01@PAD0@Z ; _STL::basic_string<char,_STL::char_traits<char>,_STL::allocator<char> >::assign<char *>
; Function compile flags: /Ogsy
;	COMDAT ??$assign@PAD@?$basic_string@DV?$char_traits@D@_STL@@V?$allocator@D@2@@_STL@@QAEAAV01@PAD0@Z
_TEXT	SEGMENT
___first$ = 8						; size = 4
___last$ = 12						; size = 4
$T106131 = 15						; size = 1
??$assign@PAD@?$basic_string@DV?$char_traits@D@_STL@@V?$allocator@D@2@@_STL@@QAEAAV01@PAD0@Z PROC NEAR ; _STL::basic_string<char,_STL::char_traits<char>,_STL::allocator<char> >::assign<char *>, COMDAT
; _this$ = ecx

; 642  :   template <class _InputIter> _Self& assign(_InputIter __first, _InputIter __last) {

  00000	55		 push	 ebp
  00001	8b ec		 mov	 ebp, esp

; 643  :     typedef typename _Is_integer<_InputIter>::_Integral _Integral;
; 644  :     return _M_assign_dispatch(__first, __last, _Integral());

  00003	8d 45 0f	 lea	 eax, DWORD PTR $T106131[ebp]
  00006	50		 push	 eax
  00007	ff 75 0c	 push	 DWORD PTR ___last$[ebp]
  0000a	ff 75 08	 push	 DWORD PTR ___first$[ebp]
  0000d	e8 00 00 00 00	 call	 ??$_M_assign_dispatch@PAD@?$basic_string@DV?$char_traits@D@_STL@@V?$allocator@D@2@@_STL@@AAEAAV01@PAD0ABU__false_type@1@@Z ; _STL::basic_string<char,_STL::char_traits<char>,_STL::allocator<char> >::_M_assign_dispatch<char *>

; 645  :   }

  00012	5d		 pop	 ebp
  00013	c2 08 00	 ret	 8
??$assign@PAD@?$basic_string@DV?$char_traits@D@_STL@@V?$allocator@D@2@@_STL@@QAEAAV01@PAD0@Z ENDP ; _STL::basic_string<char,_STL::char_traits<char>,_STL::allocator<char> >::assign<char *>
_TEXT	ENDS
PUBLIC	??4?$basic_string@DV?$char_traits@D@_STL@@V?$allocator@D@2@@_STL@@QAEAAV01@ABV01@@Z ; _STL::basic_string<char,_STL::char_traits<char>,_STL::allocator<char> >::operator=
; Function compile flags: /Ogsy
;	COMDAT ??4?$basic_string@DV?$char_traits@D@_STL@@V?$allocator@D@2@@_STL@@QAEAAV01@ABV01@@Z
_TEXT	SEGMENT
___s$ = 8						; size = 4
$T106137 = 11						; size = 1
??4?$basic_string@DV?$char_traits@D@_STL@@V?$allocator@D@2@@_STL@@QAEAAV01@ABV01@@Z PROC NEAR ; _STL::basic_string<char,_STL::char_traits<char>,_STL::allocator<char> >::operator=, COMDAT
; _this$ = ecx

; 307  :   _Self& operator=(const _Self& __s) {

  00000	55		 push	 ebp
  00001	8b ec		 mov	 ebp, esp

; 308  :     if (&__s != this) 

  00003	8b 45 08	 mov	 eax, DWORD PTR ___s$[ebp]
  00006	56		 push	 esi
  00007	8b f1		 mov	 esi, ecx
  00009	3b c6		 cmp	 eax, esi
  0000b	74 10		 je	 SHORT $L106138

; 309  :       assign(__s._M_start, __s._M_finish);

  0000d	8d 4d 0b	 lea	 ecx, DWORD PTR $T106137[ebp]
  00010	51		 push	 ecx
  00011	ff 70 04	 push	 DWORD PTR [eax+4]
  00014	8b ce		 mov	 ecx, esi
  00016	ff 30		 push	 DWORD PTR [eax]
  00018	e8 00 00 00 00	 call	 ??$_M_assign_dispatch@PAD@?$basic_string@DV?$char_traits@D@_STL@@V?$allocator@D@2@@_STL@@AAEAAV01@PAD0ABU__false_type@1@@Z ; _STL::basic_string<char,_STL::char_traits<char>,_STL::allocator<char> >::_M_assign_dispatch<char *>
$L106138:

; 310  :     return *this;

  0001d	8b c6		 mov	 eax, esi
  0001f	5e		 pop	 esi

; 311  :   }

  00020	5d		 pop	 ebp
  00021	c2 04 00	 ret	 4
??4?$basic_string@DV?$char_traits@D@_STL@@V?$allocator@D@2@@_STL@@QAEAAV01@ABV01@@Z ENDP ; _STL::basic_string<char,_STL::char_traits<char>,_STL::allocator<char> >::operator=
_TEXT	ENDS
PUBLIC	?imbue@?$basic_ios@DV?$char_traits@D@_STL@@@_STL@@QAE?AVlocale@2@ABV32@@Z ; _STL::basic_ios<char,_STL::char_traits<char> >::imbue
EXTRN	?pubimbue@?$basic_streambuf@DV?$char_traits@D@_STL@@@_STL@@QAE?AVlocale@2@ABV32@@Z:NEAR ; _STL::basic_streambuf<char,_STL::char_traits<char> >::pubimbue
EXTRN	??0locale@_STL@@QAE@ABV01@@Z:NEAR		; _STL::locale::locale
EXTRN	?_M_get_facet@locale@_STL@@QBEPAVfacet@12@ABVid@12@@Z:NEAR ; _STL::locale::_M_get_facet
EXTRN	?id@?$ctype@D@_STL@@2V0locale@2@A:DWORD		; _STL::ctype<char>::id
EXTRN	?imbue@ios_base@_STL@@QAE?AVlocale@2@ABV32@@Z:NEAR ; _STL::ios_base::imbue
EXTRN	?id@?$numpunct@D@_STL@@2V0locale@2@A:DWORD	; _STL::numpunct<char>::id
;	COMDAT xdata$x
; File c:\stlport-4.6.1\stlport\stl\_alloc.h
xdata$x	SEGMENT
$T106192 DD	0ffffffffH
	DD	FLAT:$L106149
	DD	00H
	DD	FLAT:$L106146
	DD	01H
	DD	FLAT:$L106148
$T106190 DD	019930520H
	DD	03H
	DD	FLAT:$T106192
	DD	2 DUP(00H)
	DD	2 DUP(00H)
; Function compile flags: /Ogsy
; File c:\stlport-4.6.1\stlport\stl\_ios.c
xdata$x	ENDS
;	COMDAT ?imbue@?$basic_ios@DV?$char_traits@D@_STL@@@_STL@@QAE?AVlocale@2@ABV32@@Z
_TEXT	SEGMENT
$T106145 = -32						; size = 12
$T106150 = -20						; size = 4
$T106144 = -16						; size = 4
__$EHRec$ = -12						; size = 12
___$ReturnUdt$ = 8					; size = 4
___tmp$ = 12						; size = 4
___loc$ = 12						; size = 4
?imbue@?$basic_ios@DV?$char_traits@D@_STL@@@_STL@@QAE?AVlocale@2@ABV32@@Z PROC NEAR ; _STL::basic_ios<char,_STL::char_traits<char> >::imbue, COMDAT
; _this$ = ecx

; 74   : {

  00000	b8 00 00 00 00	 mov	 eax, __ehhandler$?imbue@?$basic_ios@DV?$char_traits@D@_STL@@@_STL@@QAE?AVlocale@2@ABV32@@Z
  00005	e8 00 00 00 00	 call	 __EH_prolog
  0000a	83 ec 14	 sub	 esp, 20			; 00000014H
  0000d	83 65 ec 00	 and	 DWORD PTR $T106150[ebp], 0
  00011	53		 push	 ebx
  00012	56		 push	 esi
  00013	57		 push	 edi

; 75   :   locale __tmp = ios_base::imbue(__loc);

  00014	8b 7d 0c	 mov	 edi, DWORD PTR ___loc$[ebp]
  00017	57		 push	 edi
  00018	8d 45 0c	 lea	 eax, DWORD PTR ___tmp$[ebp]
  0001b	50		 push	 eax
  0001c	8b f1		 mov	 esi, ecx
  0001e	e8 00 00 00 00	 call	 ?imbue@ios_base@_STL@@QAE?AVlocale@2@ABV32@@Z ; _STL::ios_base::imbue

; 76   : 
; 77   :   if (_M_streambuf)

  00023	8b 4e 58	 mov	 ecx, DWORD PTR [esi+88]
  00026	33 db		 xor	 ebx, ebx
  00028	43		 inc	 ebx
  00029	85 c9		 test	 ecx, ecx
  0002b	89 5d fc	 mov	 DWORD PTR __$EHRec$[ebp+8], ebx
  0002e	74 12		 je	 SHORT $L102099

; 78   :     _M_streambuf->pubimbue(__loc);

  00030	57		 push	 edi
  00031	8d 45 f0	 lea	 eax, DWORD PTR $T106144[ebp]
  00034	50		 push	 eax
  00035	e8 00 00 00 00	 call	 ?pubimbue@?$basic_streambuf@DV?$char_traits@D@_STL@@@_STL@@QAE?AVlocale@2@ABV32@@Z ; _STL::basic_streambuf<char,_STL::char_traits<char> >::pubimbue
  0003a	8d 4d f0	 lea	 ecx, DWORD PTR $T106144[ebp]
  0003d	e8 00 00 00 00	 call	 ??1locale@_STL@@QAE@XZ	; _STL::locale::~locale
$L102099:

; 79   : 
; 80   :   // no throwing here
; 81   :   this->_M_cached_ctype = __loc._M_get_facet(ctype<char_type>::id) ;

  00042	68 00 00 00 00	 push	 OFFSET FLAT:?id@?$ctype@D@_STL@@2V0locale@2@A ; _STL::ctype<char>::id
  00047	8b cf		 mov	 ecx, edi
  00049	e8 00 00 00 00	 call	 ?_M_get_facet@locale@_STL@@QBEPAVfacet@12@ABVid@12@@Z ; _STL::locale::_M_get_facet

; 82   :   this->_M_cached_numpunct = __loc._M_get_facet(numpunct<char_type>::id) ;

  0004e	68 00 00 00 00	 push	 OFFSET FLAT:?id@?$numpunct@D@_STL@@2V0locale@2@A ; _STL::numpunct<char>::id
  00053	8b cf		 mov	 ecx, edi
  00055	89 46 40	 mov	 DWORD PTR [esi+64], eax
  00058	e8 00 00 00 00	 call	 ?_M_get_facet@locale@_STL@@QBEPAVfacet@12@ABVid@12@@Z ; _STL::locale::_M_get_facet

; 83   :   this->_M_cached_grouping = ((numpunct<char_type>*)_M_cached_numpunct)->grouping() ;

  0005d	8d 4d e0	 lea	 ecx, DWORD PTR $T106145[ebp]
  00060	51		 push	 ecx
  00061	8b c8		 mov	 ecx, eax
  00063	89 46 44	 mov	 DWORD PTR [esi+68], eax
  00066	e8 00 00 00 00	 call	 ?grouping@?$numpunct@D@_STL@@QBE?AV?$basic_string@DV?$char_traits@D@_STL@@V?$allocator@D@2@@2@XZ ; _STL::numpunct<char>::grouping
  0006b	50		 push	 eax
  0006c	8d 4e 48	 lea	 ecx, DWORD PTR [esi+72]
  0006f	c6 45 fc 02	 mov	 BYTE PTR __$EHRec$[ebp+8], 2
  00073	e8 00 00 00 00	 call	 ??4?$basic_string@DV?$char_traits@D@_STL@@V?$allocator@D@2@@_STL@@QAEAAV01@ABV01@@Z ; _STL::basic_string<char,_STL::char_traits<char>,_STL::allocator<char> >::operator=
  00078	8b 45 e8	 mov	 eax, DWORD PTR $T106145[ebp+8]
  0007b	2b 45 e0	 sub	 eax, DWORD PTR $T106145[ebp]
  0007e	8d 4d e8	 lea	 ecx, DWORD PTR $T106145[ebp+8]
  00081	50		 push	 eax
  00082	ff 75 e0	 push	 DWORD PTR $T106145[ebp]
  00085	88 5d fc	 mov	 BYTE PTR __$EHRec$[ebp+8], bl
  00088	e8 00 00 00 00	 call	 ?deallocate@?$allocator@D@_STL@@QAEXPADI@Z ; _STL::allocator<char>::deallocate

; 84   :   return __tmp;

  0008d	8b 4d 08	 mov	 ecx, DWORD PTR ___$ReturnUdt$[ebp]
  00090	8d 45 0c	 lea	 eax, DWORD PTR ___tmp$[ebp]
  00093	50		 push	 eax
  00094	e8 00 00 00 00	 call	 ??0locale@_STL@@QAE@ABV01@@Z ; _STL::locale::locale
  00099	8d 4d 0c	 lea	 ecx, DWORD PTR ___tmp$[ebp]
  0009c	89 5d ec	 mov	 DWORD PTR $T106150[ebp], ebx
  0009f	c6 45 fc 00	 mov	 BYTE PTR __$EHRec$[ebp+8], 0
  000a3	e8 00 00 00 00	 call	 ??1locale@_STL@@QAE@XZ	; _STL::locale::~locale

; 85   : }

  000a8	8b 4d f4	 mov	 ecx, DWORD PTR __$EHRec$[ebp]
  000ab	8b 45 08	 mov	 eax, DWORD PTR ___$ReturnUdt$[ebp]
  000ae	5f		 pop	 edi
  000af	5e		 pop	 esi
  000b0	5b		 pop	 ebx
  000b1	64 89 0d 00 00
	00 00		 mov	 DWORD PTR fs:__except_list, ecx
  000b8	c9		 leave
  000b9	c2 08 00	 ret	 8
_TEXT	ENDS
;	COMDAT text$x
text$x	SEGMENT
$L106146:
  00000	8d 4d 0c	 lea	 ecx, DWORD PTR ___tmp$[ebp]
  00003	e9 00 00 00 00	 jmp	 ??1locale@_STL@@QAE@XZ	; _STL::locale::~locale
$L106148:
  00008	8d 4d e0	 lea	 ecx, DWORD PTR $T106145[ebp]
  0000b	e9 00 00 00 00	 jmp	 ??1?$basic_string@DV?$char_traits@D@_STL@@V?$allocator@D@2@@_STL@@QAE@XZ ; _STL::basic_string<char,_STL::char_traits<char>,_STL::allocator<char> >::~basic_string<char,_STL::char_traits<char>,_STL::allocator<char> >
$L106149:
  00010	8b 45 ec	 mov	 eax, DWORD PTR $T106150[ebp]
  00013	83 e0 01	 and	 eax, 1
  00016	0f 84 0c 00 00
	00		 je	 $L106151
  0001c	83 65 ec fe	 and	 DWORD PTR $T106150[ebp], -2 ; fffffffeH
  00020	8b 4d 08	 mov	 ecx, DWORD PTR ___$ReturnUdt$[ebp]
  00023	e9 00 00 00 00	 jmp	 ??1locale@_STL@@QAE@XZ	; _STL::locale::~locale
$L106151:
  00028	c3		 ret	 0
__ehhandler$?imbue@?$basic_ios@DV?$char_traits@D@_STL@@@_STL@@QAE?AVlocale@2@ABV32@@Z:
  00029	b8 00 00 00 00	 mov	 eax, OFFSET FLAT:$T106190
  0002e	e9 00 00 00 00	 jmp	 ___CxxFrameHandler
text$x	ENDS
?imbue@?$basic_ios@DV?$char_traits@D@_STL@@@_STL@@QAE?AVlocale@2@ABV32@@Z ENDP ; _STL::basic_ios<char,_STL::char_traits<char> >::imbue
PUBLIC	?init@?$basic_ios@DV?$char_traits@D@_STL@@@_STL@@IAEXPAV?$basic_streambuf@DV?$char_traits@D@_STL@@@2@@Z ; _STL::basic_ios<char,_STL::char_traits<char> >::init
;	COMDAT xdata$x
; File c:\stlport-4.6.1\stlport\stl\_ios.h
xdata$x	SEGMENT
$T106245 DD	0ffffffffH
	DD	FLAT:$L106199
$T106243 DD	019930520H
	DD	01H
	DD	FLAT:$T106245
	DD	2 DUP(00H)
	DD	2 DUP(00H)
; Function compile flags: /Ogsy
; File c:\stlport-4.6.1\stlport\stl\_ios.c
xdata$x	ENDS
;	COMDAT ?init@?$basic_ios@DV?$char_traits@D@_STL@@@_STL@@IAEXPAV?$basic_streambuf@DV?$char_traits@D@_STL@@@2@@Z
_TEXT	SEGMENT
$T106197 = -20						; size = 4
$T106198 = -16						; size = 4
__$EHRec$ = -12						; size = 12
___sb$ = 8						; size = 4
?init@?$basic_ios@DV?$char_traits@D@_STL@@@_STL@@IAEXPAV?$basic_streambuf@DV?$char_traits@D@_STL@@@2@@Z PROC NEAR ; _STL::basic_ios<char,_STL::char_traits<char> >::init, COMDAT
; _this$ = ecx

; 100  : {

  00000	b8 00 00 00 00	 mov	 eax, __ehhandler$?init@?$basic_ios@DV?$char_traits@D@_STL@@@_STL@@IAEXPAV?$basic_streambuf@DV?$char_traits@D@_STL@@@2@@Z
  00005	e8 00 00 00 00	 call	 __EH_prolog
  0000a	51		 push	 ecx
  0000b	51		 push	 ecx
  0000c	56		 push	 esi
  0000d	57		 push	 edi

; 101  :   this->rdbuf(__sb);

  0000e	ff 75 08	 push	 DWORD PTR ___sb$[ebp]
  00011	8b f1		 mov	 esi, ecx
  00013	e8 00 00 00 00	 call	 ?rdbuf@?$basic_ios@DV?$char_traits@D@_STL@@@_STL@@QAEPAV?$basic_streambuf@DV?$char_traits@D@_STL@@@2@PAV32@@Z ; _STL::basic_ios<char,_STL::char_traits<char> >::rdbuf

; 102  :   this->imbue(locale());

  00018	8d 4d ec	 lea	 ecx, DWORD PTR $T106197[ebp]
  0001b	e8 00 00 00 00	 call	 ??0locale@_STL@@QAE@XZ	; _STL::locale::locale
  00020	50		 push	 eax
  00021	8d 45 f0	 lea	 eax, DWORD PTR $T106198[ebp]
  00024	33 ff		 xor	 edi, edi
  00026	50		 push	 eax
  00027	8b ce		 mov	 ecx, esi
  00029	89 7d fc	 mov	 DWORD PTR __$EHRec$[ebp+8], edi
  0002c	e8 00 00 00 00	 call	 ?imbue@?$basic_ios@DV?$char_traits@D@_STL@@@_STL@@QAE?AVlocale@2@ABV32@@Z ; _STL::basic_ios<char,_STL::char_traits<char> >::imbue
  00031	8d 4d f0	 lea	 ecx, DWORD PTR $T106198[ebp]
  00034	e8 00 00 00 00	 call	 ??1locale@_STL@@QAE@XZ	; _STL::locale::~locale
  00039	83 4d fc ff	 or	 DWORD PTR __$EHRec$[ebp+8], -1
  0003d	8d 4d ec	 lea	 ecx, DWORD PTR $T106197[ebp]
  00040	e8 00 00 00 00	 call	 ??1locale@_STL@@QAE@XZ	; _STL::locale::~locale

; 103  :   this->tie(0);
; 104  :   this->_M_set_exception_mask(ios_base::goodbit);
; 105  :   this->_M_clear_nothrow(__sb != 0 ? ios_base::goodbit : ios_base::badbit);
; 106  :   ios_base::flags(ios_base::skipws | ios_base::dec);
; 107  :   ios_base::width(0);
; 108  :   ios_base::precision(6);
; 109  :   this->fill(widen(' '));

  00045	8b 4e 40	 mov	 ecx, DWORD PTR [esi+64]
  00048	33 c0		 xor	 eax, eax
  0004a	39 7d 08	 cmp	 DWORD PTR ___sb$[ebp], edi
  0004d	89 7e 5c	 mov	 DWORD PTR [esi+92], edi
  00050	0f 94 c0	 sete	 al
  00053	89 7e 14	 mov	 DWORD PTR [esi+20], edi
  00056	c7 46 04 08 10
	00 00		 mov	 DWORD PTR [esi+4], 4104	; 00001008H
  0005d	89 7e 1c	 mov	 DWORD PTR [esi+28], edi
  00060	c7 46 18 06 00
	00 00		 mov	 DWORD PTR [esi+24], 6
  00067	6a 20		 push	 32			; 00000020H
  00069	89 46 08	 mov	 DWORD PTR [esi+8], eax
  0006c	8b 01		 mov	 eax, DWORD PTR [ecx]
  0006e	ff 50 18	 call	 DWORD PTR [eax+24]

; 110  :   // We don't need to worry about any of the three arrays: they are
; 111  :   // initialized correctly in ios_base's constructor.
; 112  : }

  00071	8b 4d f4	 mov	 ecx, DWORD PTR __$EHRec$[ebp]
  00074	88 46 54	 mov	 BYTE PTR [esi+84], al
  00077	5f		 pop	 edi
  00078	5e		 pop	 esi
  00079	64 89 0d 00 00
	00 00		 mov	 DWORD PTR fs:__except_list, ecx
  00080	c9		 leave
  00081	c2 04 00	 ret	 4
_TEXT	ENDS
;	COMDAT text$x
text$x	SEGMENT
$L106199:
  00000	8d 4d ec	 lea	 ecx, DWORD PTR $T106197[ebp]
  00003	e9 00 00 00 00	 jmp	 ??1locale@_STL@@QAE@XZ	; _STL::locale::~locale
__ehhandler$?init@?$basic_ios@DV?$char_traits@D@_STL@@@_STL@@IAEXPAV?$basic_streambuf@DV?$char_traits@D@_STL@@@2@@Z:
  00008	b8 00 00 00 00	 mov	 eax, OFFSET FLAT:$T106243
  0000d	e9 00 00 00 00	 jmp	 ___CxxFrameHandler
text$x	ENDS
?init@?$basic_ios@DV?$char_traits@D@_STL@@@_STL@@IAEXPAV?$basic_streambuf@DV?$char_traits@D@_STL@@@2@@Z ENDP ; _STL::basic_ios<char,_STL::char_traits<char> >::init
PUBLIC	??0?$basic_istream@DV?$char_traits@D@_STL@@@_STL@@QAE@PAV?$basic_streambuf@DV?$char_traits@D@_STL@@@1@@Z ; _STL::basic_istream<char,_STL::char_traits<char> >::basic_istream<char,_STL::char_traits<char> >
PUBLIC	??_8?$basic_istream@DV?$char_traits@D@_STL@@@_STL@@7B@ ; _STL::basic_istream<char,_STL::char_traits<char> >::`vbtable'
;	COMDAT xdata$x
; File c:\stlport-4.6.1\stlport\stl\_istream.h
xdata$x	SEGMENT
$T106256 DD	0ffffffffH
	DD	FLAT:$L106251
$T106254 DD	019930520H
	DD	01H
	DD	FLAT:$T106256
	DD	2 DUP(00H)
	DD	2 DUP(00H)
xdata$x	ENDS
;	COMDAT ??_8?$basic_istream@DV?$char_traits@D@_STL@@@_STL@@7B@
CONST	SEGMENT
??_8?$basic_istream@DV?$char_traits@D@_STL@@@_STL@@7B@ DD 00H ; _STL::basic_istream<char,_STL::char_traits<char> >::`vbtable'
	DD	08H
; Function compile flags: /Ogsy
CONST	ENDS
;	COMDAT ??0?$basic_istream@DV?$char_traits@D@_STL@@@_STL@@QAE@PAV?$basic_streambuf@DV?$char_traits@D@_STL@@@1@@Z
_TEXT	SEGMENT
_this$ = -20						; size = 4
$T106250 = -16						; size = 4
__$EHRec$ = -12						; size = 12
___buf$ = 8						; size = 4
_$initVBases$ = 12					; size = 4
??0?$basic_istream@DV?$char_traits@D@_STL@@@_STL@@QAE@PAV?$basic_streambuf@DV?$char_traits@D@_STL@@@1@@Z PROC NEAR ; _STL::basic_istream<char,_STL::char_traits<char> >::basic_istream<char,_STL::char_traits<char> >, COMDAT
; _this$ = ecx

; 84   :     basic_ios<_CharT, _Traits>(), _M_gcount(0) {

  00000	b8 00 00 00 00	 mov	 eax, __ehhandler$??0?$basic_istream@DV?$char_traits@D@_STL@@@_STL@@QAE@PAV?$basic_streambuf@DV?$char_traits@D@_STL@@@1@@Z
  00005	e8 00 00 00 00	 call	 __EH_prolog
  0000a	51		 push	 ecx
  0000b	51		 push	 ecx
  0000c	83 65 f0 00	 and	 DWORD PTR $T106250[ebp], 0
  00010	83 7d 0c 00	 cmp	 DWORD PTR _$initVBases$[ebp], 0
  00014	56		 push	 esi
  00015	8b f1		 mov	 esi, ecx
  00017	89 75 ec	 mov	 DWORD PTR _this$[ebp], esi
  0001a	74 19		 je	 SHORT $L101468
  0001c	8d 4e 08	 lea	 ecx, DWORD PTR [esi+8]
  0001f	c7 06 00 00 00
	00		 mov	 DWORD PTR [esi], OFFSET FLAT:??_8?$basic_istream@DV?$char_traits@D@_STL@@@_STL@@7B@
  00025	e8 00 00 00 00	 call	 ??0?$basic_ios@DV?$char_traits@D@_STL@@@_STL@@IAE@XZ ; _STL::basic_ios<char,_STL::char_traits<char> >::basic_ios<char,_STL::char_traits<char> >
  0002a	83 65 fc 00	 and	 DWORD PTR __$EHRec$[ebp+8], 0
  0002e	c7 45 f0 01 00
	00 00		 mov	 DWORD PTR $T106250[ebp], 1
$L101468:
  00035	8b 06		 mov	 eax, DWORD PTR [esi]
  00037	8b 40 04	 mov	 eax, DWORD PTR [eax+4]

; 85   :     this->init(__buf);

  0003a	ff 75 08	 push	 DWORD PTR ___buf$[ebp]
  0003d	c7 04 06 00 00
	00 00		 mov	 DWORD PTR [esi+eax], OFFSET FLAT:??_7?$basic_istream@DV?$char_traits@D@_STL@@@_STL@@6B@
  00044	8b 06		 mov	 eax, DWORD PTR [esi]
  00046	83 66 04 00	 and	 DWORD PTR [esi+4], 0
  0004a	8b 48 04	 mov	 ecx, DWORD PTR [eax+4]
  0004d	03 ce		 add	 ecx, esi
  0004f	e8 00 00 00 00	 call	 ?init@?$basic_ios@DV?$char_traits@D@_STL@@@_STL@@IAEXPAV?$basic_streambuf@DV?$char_traits@D@_STL@@@2@@Z ; _STL::basic_ios<char,_STL::char_traits<char> >::init

; 86   :   }

  00054	8b 4d f4	 mov	 ecx, DWORD PTR __$EHRec$[ebp]
  00057	8b c6		 mov	 eax, esi
  00059	5e		 pop	 esi
  0005a	64 89 0d 00 00
	00 00		 mov	 DWORD PTR fs:__except_list, ecx
  00061	c9		 leave
  00062	c2 08 00	 ret	 8
_TEXT	ENDS
;	COMDAT text$x
text$x	SEGMENT
$L106251:
  00000	8b 45 f0	 mov	 eax, DWORD PTR $T106250[ebp]
  00003	83 e0 01	 and	 eax, 1
  00006	0f 84 0f 00 00
	00		 je	 $L106252
  0000c	83 65 f0 fe	 and	 DWORD PTR $T106250[ebp], -2 ; fffffffeH
  00010	8b 4d ec	 mov	 ecx, DWORD PTR _this$[ebp]
  00013	83 c1 08	 add	 ecx, 8
  00016	e9 00 00 00 00	 jmp	 ??1?$basic_ios@DV?$char_traits@D@_STL@@@_STL@@UAE@XZ ; _STL::basic_ios<char,_STL::char_traits<char> >::~basic_ios<char,_STL::char_traits<char> >
$L106252:
  0001b	c3		 ret	 0
__ehhandler$??0?$basic_istream@DV?$char_traits@D@_STL@@@_STL@@QAE@PAV?$basic_streambuf@DV?$char_traits@D@_STL@@@1@@Z:
  0001c	b8 00 00 00 00	 mov	 eax, OFFSET FLAT:$T106254
  00021	e9 00 00 00 00	 jmp	 ___CxxFrameHandler
text$x	ENDS
??0?$basic_istream@DV?$char_traits@D@_STL@@@_STL@@QAE@PAV?$basic_streambuf@DV?$char_traits@D@_STL@@@1@@Z ENDP ; _STL::basic_istream<char,_STL::char_traits<char> >::basic_istream<char,_STL::char_traits<char> >
PUBLIC	??0?$basic_ifstream@DV?$char_traits@D@_STL@@@_STL@@QAE@PBDH@Z ; _STL::basic_ifstream<char,_STL::char_traits<char> >::basic_ifstream<char,_STL::char_traits<char> >
PUBLIC	??_8?$basic_ifstream@DV?$char_traits@D@_STL@@@_STL@@7B@ ; _STL::basic_ifstream<char,_STL::char_traits<char> >::`vbtable'
;	COMDAT xdata$x
; File c:\stlport-4.6.1\stlport\stl\_ios_base.h
xdata$x	SEGMENT
$T106279 DD	0ffffffffH
	DD	FLAT:$L106262
	DD	00H
	DD	FLAT:$L106264
	DD	01H
	DD	FLAT:$L106265
$T106277 DD	019930520H
	DD	03H
	DD	FLAT:$T106279
	DD	2 DUP(00H)
	DD	2 DUP(00H)
xdata$x	ENDS
;	COMDAT ??_8?$basic_ifstream@DV?$char_traits@D@_STL@@@_STL@@7B@
CONST	SEGMENT
??_8?$basic_ifstream@DV?$char_traits@D@_STL@@@_STL@@7B@ DD 00H ; _STL::basic_ifstream<char,_STL::char_traits<char> >::`vbtable'
	DD	0bcH
; Function compile flags: /Ogsy
; File c:\stlport-4.6.1\stlport\stl\_fstream.h
CONST	ENDS
;	COMDAT ??0?$basic_ifstream@DV?$char_traits@D@_STL@@@_STL@@QAE@PBDH@Z
_TEXT	SEGMENT
_this$ = -20						; size = 4
$T106261 = -16						; size = 4
__$EHRec$ = -12						; size = 12
___s$ = 8						; size = 4
___mod$ = 12						; size = 4
_$initVBases$ = 16					; size = 4
??0?$basic_ifstream@DV?$char_traits@D@_STL@@@_STL@@QAE@PBDH@Z PROC NEAR ; _STL::basic_ifstream<char,_STL::char_traits<char> >::basic_ifstream<char,_STL::char_traits<char> >, COMDAT
; _this$ = ecx

; 520  :     _M_buf() {

  00000	b8 00 00 00 00	 mov	 eax, __ehhandler$??0?$basic_ifstream@DV?$char_traits@D@_STL@@@_STL@@QAE@PBDH@Z
  00005	e8 00 00 00 00	 call	 __EH_prolog
  0000a	51		 push	 ecx
  0000b	51		 push	 ecx
  0000c	53		 push	 ebx
  0000d	56		 push	 esi
  0000e	57		 push	 edi
  0000f	33 ff		 xor	 edi, edi
  00011	33 db		 xor	 ebx, ebx
  00013	8b f1		 mov	 esi, ecx
  00015	47		 inc	 edi
  00016	39 5d 10	 cmp	 DWORD PTR _$initVBases$[ebp], ebx
  00019	89 75 ec	 mov	 DWORD PTR _this$[ebp], esi
  0001c	89 5d f0	 mov	 DWORD PTR $T106261[ebp], ebx
  0001f	74 17		 je	 SHORT $L101428
  00021	8d 8e bc 00 00
	00		 lea	 ecx, DWORD PTR [esi+188]
  00027	c7 06 00 00 00
	00		 mov	 DWORD PTR [esi], OFFSET FLAT:??_8?$basic_ifstream@DV?$char_traits@D@_STL@@@_STL@@7B@
  0002d	e8 00 00 00 00	 call	 ??0?$basic_ios@DV?$char_traits@D@_STL@@@_STL@@IAE@XZ ; _STL::basic_ios<char,_STL::char_traits<char> >::basic_ios<char,_STL::char_traits<char> >
  00032	89 5d fc	 mov	 DWORD PTR __$EHRec$[ebp+8], ebx
  00035	89 7d f0	 mov	 DWORD PTR $T106261[ebp], edi
$L101428:
  00038	53		 push	 ebx
  00039	53		 push	 ebx
  0003a	8b ce		 mov	 ecx, esi
  0003c	e8 00 00 00 00	 call	 ??0?$basic_istream@DV?$char_traits@D@_STL@@@_STL@@QAE@PAV?$basic_streambuf@DV?$char_traits@D@_STL@@@1@@Z ; _STL::basic_istream<char,_STL::char_traits<char> >::basic_istream<char,_STL::char_traits<char> >
  00041	8b 06		 mov	 eax, DWORD PTR [esi]
  00043	8b 40 04	 mov	 eax, DWORD PTR [eax+4]
  00046	89 7d fc	 mov	 DWORD PTR __$EHRec$[ebp+8], edi
  00049	8d 7e 08	 lea	 edi, DWORD PTR [esi+8]
  0004c	8b cf		 mov	 ecx, edi
  0004e	c7 04 06 00 00
	00 00		 mov	 DWORD PTR [esi+eax], OFFSET FLAT:??_7?$basic_ifstream@DV?$char_traits@D@_STL@@@_STL@@6B@
  00055	e8 00 00 00 00	 call	 ??0?$basic_filebuf@DV?$char_traits@D@_STL@@@_STL@@QAE@XZ ; _STL::basic_filebuf<char,_STL::char_traits<char> >::basic_filebuf<char,_STL::char_traits<char> >

; 521  :       this->init(&_M_buf);

  0005a	8b 06		 mov	 eax, DWORD PTR [esi]
  0005c	8b 48 04	 mov	 ecx, DWORD PTR [eax+4]
  0005f	57		 push	 edi
  00060	03 ce		 add	 ecx, esi
  00062	c6 45 fc 02	 mov	 BYTE PTR __$EHRec$[ebp+8], 2
  00066	e8 00 00 00 00	 call	 ?init@?$basic_ios@DV?$char_traits@D@_STL@@@_STL@@IAEXPAV?$basic_streambuf@DV?$char_traits@D@_STL@@@2@@Z ; _STL::basic_ios<char,_STL::char_traits<char> >::init

; 522  :       if (!_M_buf.open(__s, __mod | ios_base::in))

  0006b	8b 45 0c	 mov	 eax, DWORD PTR ___mod$[ebp]
  0006e	83 c8 08	 or	 eax, 8
  00071	50		 push	 eax
  00072	ff 75 08	 push	 DWORD PTR ___s$[ebp]
  00075	8b cf		 mov	 ecx, edi
  00077	e8 00 00 00 00	 call	 ?open@?$basic_filebuf@DV?$char_traits@D@_STL@@@_STL@@QAEPAV12@PBDH@Z ; _STL::basic_filebuf<char,_STL::char_traits<char> >::open
  0007c	85 c0		 test	 eax, eax
  0007e	75 13		 jne	 SHORT $L106271

; 523  : 	this->setstate(ios_base::failbit);

  00080	8b 06		 mov	 eax, DWORD PTR [esi]
  00082	8b 48 04	 mov	 ecx, DWORD PTR [eax+4]
  00085	03 ce		 add	 ecx, esi
  00087	8b 41 08	 mov	 eax, DWORD PTR [ecx+8]
  0008a	83 c8 04	 or	 eax, 4
  0008d	50		 push	 eax
  0008e	e8 00 00 00 00	 call	 ?clear@?$basic_ios@DV?$char_traits@D@_STL@@@_STL@@QAEXH@Z ; _STL::basic_ios<char,_STL::char_traits<char> >::clear
$L106271:

; 524  :   }

  00093	8b 4d f4	 mov	 ecx, DWORD PTR __$EHRec$[ebp]
  00096	5f		 pop	 edi
  00097	8b c6		 mov	 eax, esi
  00099	5e		 pop	 esi
  0009a	5b		 pop	 ebx
  0009b	64 89 0d 00 00
	00 00		 mov	 DWORD PTR fs:__except_list, ecx
  000a2	c9		 leave
  000a3	c2 0c 00	 ret	 12			; 0000000cH
_TEXT	ENDS
;	COMDAT text$x
text$x	SEGMENT
$L106262:
  00000	8b 45 f0	 mov	 eax, DWORD PTR $T106261[ebp]
  00003	83 e0 01	 and	 eax, 1
  00006	0f 84 12 00 00
	00		 je	 $L106263
  0000c	83 65 f0 fe	 and	 DWORD PTR $T106261[ebp], -2 ; fffffffeH
  00010	8b 4d ec	 mov	 ecx, DWORD PTR _this$[ebp]
  00013	81 c1 bc 00 00
	00		 add	 ecx, 188		; 000000bcH
  00019	e9 00 00 00 00	 jmp	 ??1?$basic_ios@DV?$char_traits@D@_STL@@@_STL@@UAE@XZ ; _STL::basic_ios<char,_STL::char_traits<char> >::~basic_ios<char,_STL::char_traits<char> >
$L106263:
  0001e	c3		 ret	 0
$L106264:
  0001f	8b 4d ec	 mov	 ecx, DWORD PTR _this$[ebp]
  00022	83 c1 08	 add	 ecx, 8
  00025	e9 00 00 00 00	 jmp	 ??1?$basic_istream@DV?$char_traits@D@_STL@@@_STL@@UAE@XZ ; _STL::basic_istream<char,_STL::char_traits<char> >::~basic_istream<char,_STL::char_traits<char> >
$L106265:
  0002a	8b 4d ec	 mov	 ecx, DWORD PTR _this$[ebp]
  0002d	83 c1 08	 add	 ecx, 8
  00030	e9 00 00 00 00	 jmp	 ??1?$basic_filebuf@DV?$char_traits@D@_STL@@@_STL@@UAE@XZ ; _STL::basic_filebuf<char,_STL::char_traits<char> >::~basic_filebuf<char,_STL::char_traits<char> >
__ehhandler$??0?$basic_ifstream@DV?$char_traits@D@_STL@@@_STL@@QAE@PBDH@Z:
  00035	b8 00 00 00 00	 mov	 eax, OFFSET FLAT:$T106277
  0003a	e9 00 00 00 00	 jmp	 ___CxxFrameHandler
text$x	ENDS
??0?$basic_ifstream@DV?$char_traits@D@_STL@@@_STL@@QAE@PBDH@Z ENDP ; _STL::basic_ifstream<char,_STL::char_traits<char> >::basic_ifstream<char,_STL::char_traits<char> >
PUBLIC	?SetFinalInfo@AppendPatch@@QAE_NPBD@Z		; AppendPatch::SetFinalInfo
EXTRN	___security_cookie:DWORD
EXTRN	@__security_check_cookie@4:NEAR
;	COMDAT xdata$x
; File c:\stlport-4.6.1\stlport\stl\char_traits.h
xdata$x	SEGMENT
$T106321 DD	0ffffffffH
	DD	FLAT:$L106288
$T106315 DD	019930520H
	DD	01H
	DD	FLAT:$T106321
	DD	2 DUP(00H)
	DD	2 DUP(00H)
; Function compile flags: /Ogsy
; File c:\darkeden\designed_common\project\client\appendpatchinfo.cpp
xdata$x	ENDS
;	COMDAT ?SetFinalInfo@AppendPatch@@QAE_NPBD@Z
_TEXT	SEGMENT
$T106286 = -308						; size = 8
_file$ = -300						; size = 284
__$ArrayPad$ = -16					; size = 4
__$EHRec$ = -12						; size = 12
__$ReturnAddr$ = 4					; size = 4
_currentFilename$ = 8					; size = 4
?SetFinalInfo@AppendPatch@@QAE_NPBD@Z PROC NEAR		; AppendPatch::SetFinalInfo, COMDAT
; _this$ = ecx

; 215  : {

  00000	b8 00 00 00 00	 mov	 eax, __ehhandler$?SetFinalInfo@AppendPatch@@QAE_NPBD@Z
  00005	e8 00 00 00 00	 call	 __EH_prolog
  0000a	81 ec 28 01 00
	00		 sub	 esp, 296		; 00000128H
  00010	a1 00 00 00 00	 mov	 eax, DWORD PTR ___security_cookie
  00015	53		 push	 ebx
  00016	56		 push	 esi

; 216  : 	if(access(currentFilename, 0)) return false;

  00017	33 db		 xor	 ebx, ebx
  00019	53		 push	 ebx
  0001a	ff 75 08	 push	 DWORD PTR _currentFilename$[ebp]
  0001d	89 45 f0	 mov	 DWORD PTR __$ArrayPad$[ebp], eax
  00020	8b f1		 mov	 esi, ecx
  00022	e8 00 00 00 00	 call	 _access
  00027	85 c0		 test	 eax, eax
  00029	59		 pop	 ecx
  0002a	59		 pop	 ecx
  0002b	74 04		 je	 SHORT $L101159
  0002d	32 c0		 xor	 al, al
  0002f	eb 71		 jmp	 SHORT $L101158
$L101159:

; 217  : 
; 218  : 	std::ifstream file(currentFilename, std::ios::binary);

  00031	6a 01		 push	 1
  00033	6a 04		 push	 4
  00035	ff 75 08	 push	 DWORD PTR _currentFilename$[ebp]
  00038	8d 8d d4 fe ff
	ff		 lea	 ecx, DWORD PTR _file$[ebp]
  0003e	e8 00 00 00 00	 call	 ??0?$basic_ifstream@DV?$char_traits@D@_STL@@@_STL@@QAE@PBDH@Z ; _STL::basic_ifstream<char,_STL::char_traits<char> >::basic_ifstream<char,_STL::char_traits<char> >

; 219  : 
; 220  : 	if (!file.is_open())

  00043	38 9d 3c ff ff
	ff		 cmp	 BYTE PTR _file$[ebp+104], bl
  00049	89 5d fc	 mov	 DWORD PTR __$EHRec$[ebp+8], ebx
  0004c	74 43		 je	 SHORT $L106316

; 221  : 	{
; 222  : 		return false;
; 223  : 	}
; 224  : 
; 225  : 	// appSpkSize - Pack 
; 226  : 	file.read((char*)&m_finalSpkSize, 2);

  0004e	6a 02		 push	 2
  00050	8d 46 18	 lea	 eax, DWORD PTR [esi+24]
  00053	50		 push	 eax
  00054	8d 8d d4 fe ff
	ff		 lea	 ecx, DWORD PTR _file$[ebp]
  0005a	e8 00 00 00 00	 call	 ?read@?$basic_istream@DV?$char_traits@D@_STL@@@_STL@@QAEAAV12@PADH@Z ; _STL::basic_istream<char,_STL::char_traits<char> >::read

; 227  : 	file.seekg( 0, std::ios::end );

  0005f	6a 04		 push	 4
  00061	53		 push	 ebx
  00062	8d 8d d4 fe ff
	ff		 lea	 ecx, DWORD PTR _file$[ebp]
  00068	e8 00 00 00 00	 call	 ?seekg@?$basic_istream@DV?$char_traits@D@_STL@@@_STL@@QAEAAV12@JH@Z ; _STL::basic_istream<char,_STL::char_traits<char> >::seekg

; 228  : 
; 229  : 	// appendFilesize - AppendPack 
; 230  : 	m_finalFilesize = file.tellg();	

  0006d	8d 85 cc fe ff
	ff		 lea	 eax, DWORD PTR $T106286[ebp]
  00073	50		 push	 eax
  00074	8d 8d d4 fe ff
	ff		 lea	 ecx, DWORD PTR _file$[ebp]
  0007a	e8 00 00 00 00	 call	 ?tellg@?$basic_istream@DV?$char_traits@D@_STL@@@_STL@@QAE?AV?$fpos@H@2@XZ ; _STL::basic_istream<char,_STL::char_traits<char> >::tellg
  0007f	8b 00		 mov	 eax, DWORD PTR [eax]

; 231  : 	
; 232  : 	file.close();

  00081	8d 8d d4 fe ff
	ff		 lea	 ecx, DWORD PTR _file$[ebp]
  00087	89 46 14	 mov	 DWORD PTR [esi+20], eax
  0008a	e8 00 00 00 00	 call	 ?close@?$basic_ifstream@DV?$char_traits@D@_STL@@@_STL@@QAEXXZ ; _STL::basic_ifstream<char,_STL::char_traits<char> >::close
  0008f	b3 01		 mov	 bl, 1
$L106316:

; 233  : 
; 234  : 	return true;

  00091	83 4d fc ff	 or	 DWORD PTR __$EHRec$[ebp+8], -1
  00095	8d 8d d4 fe ff
	ff		 lea	 ecx, DWORD PTR _file$[ebp]
  0009b	e8 00 00 00 00	 call	 ??_D?$basic_ifstream@DV?$char_traits@D@_STL@@@_STL@@QAEXXZ
  000a0	8a c3		 mov	 al, bl
$L101158:

; 235  : }

  000a2	8b 4d f4	 mov	 ecx, DWORD PTR __$EHRec$[ebp]
  000a5	5e		 pop	 esi
  000a6	64 89 0d 00 00
	00 00		 mov	 DWORD PTR fs:__except_list, ecx
  000ad	8b 4d f0	 mov	 ecx, DWORD PTR __$ArrayPad$[ebp]
  000b0	5b		 pop	 ebx
  000b1	e8 00 00 00 00	 call	 @__security_check_cookie@4
  000b6	c9		 leave
  000b7	c2 04 00	 ret	 4
_TEXT	ENDS
;	COMDAT text$x
text$x	SEGMENT
$L106288:
  00000	8d 8d d4 fe ff
	ff		 lea	 ecx, DWORD PTR _file$[ebp]
  00006	e9 00 00 00 00	 jmp	 ??_D?$basic_ifstream@DV?$char_traits@D@_STL@@@_STL@@QAEXXZ
__ehhandler$?SetFinalInfo@AppendPatch@@QAE_NPBD@Z:
  0000b	b8 00 00 00 00	 mov	 eax, OFFSET FLAT:$T106315
  00010	e9 00 00 00 00	 jmp	 ___CxxFrameHandler
text$x	ENDS
?SetFinalInfo@AppendPatch@@QAE_NPBD@Z ENDP		; AppendPatch::SetFinalInfo
PUBLIC	?AddAppendInfo@AppendPatch@@QAE_NPBD@Z		; AppendPatch::AddAppendInfo
EXTRN	_strrchr:NEAR
EXTRN	_strcpy:NEAR
EXTRN	_strcat:NEAR
;	COMDAT xdata$x
xdata$x	SEGMENT
$T106391 DD	0ffffffffH
	DD	FLAT:$L106335
	DD	00H
	DD	FLAT:$L106336
$T106383 DD	019930520H
	DD	02H
	DD	FLAT:$T106391
	DD	2 DUP(00H)
	DD	2 DUP(00H)
; Function compile flags: /Ogsy
xdata$x	ENDS
;	COMDAT ?AddAppendInfo@AppendPatch@@QAE_NPBD@Z
_TEXT	SEGMENT
$T106328 = -576						; size = 8
tv234 = -568						; size = 4
_appSpkSize$ = -564					; size = 2
$T106331 = -560						; size = 4
_pNode$ = -560						; size = 4
_appendFilename$ = -556					; size = 256
_file$ = -300						; size = 284
__$ArrayPad$ = -16					; size = 4
__$EHRec$ = -12						; size = 12
__$ReturnAddr$ = 4					; size = 4
_previousSpkSize$ = 8					; size = 2
_currentFilename$ = 8					; size = 4
?AddAppendInfo@AppendPatch@@QAE_NPBD@Z PROC NEAR	; AppendPatch::AddAppendInfo, COMDAT
; _this$ = ecx

; 285  : {

  00000	b8 00 00 00 00	 mov	 eax, __ehhandler$?AddAppendInfo@AppendPatch@@QAE_NPBD@Z
  00005	e8 00 00 00 00	 call	 __EH_prolog
  0000a	81 ec 34 02 00
	00		 sub	 esp, 564		; 00000234H
  00010	a1 00 00 00 00	 mov	 eax, DWORD PTR ___security_cookie
  00015	56		 push	 esi
  00016	57		 push	 edi

; 286  : 	if(access(currentFilename, 0)) return false;

  00017	33 ff		 xor	 edi, edi
  00019	57		 push	 edi
  0001a	ff 75 08	 push	 DWORD PTR _currentFilename$[ebp]
  0001d	89 45 f0	 mov	 DWORD PTR __$ArrayPad$[ebp], eax
  00020	8b f1		 mov	 esi, ecx
  00022	e8 00 00 00 00	 call	 _access
  00027	85 c0		 test	 eax, eax
  00029	59		 pop	 ecx
  0002a	59		 pop	 ecx
  0002b	74 07		 je	 SHORT $L101229
  0002d	32 c0		 xor	 al, al
  0002f	e9 6c 01 00 00	 jmp	 $L101228
$L101229:
  00034	53		 push	 ebx

; 287  : 
; 288  : 	//------------------------------------------------------------
; 289  : 	//  
; 290  : 	//------------------------------------------------------------
; 291  : 	char appendFilename[256];
; 292  : 	long appendFilesize;
; 293  : 	WORD appSpkSize;
; 294  : 
; 295  : 	std::ifstream file(currentFilename, std::ios::binary);

  00035	6a 01		 push	 1
  00037	6a 04		 push	 4
  00039	ff 75 08	 push	 DWORD PTR _currentFilename$[ebp]
  0003c	8d 8d d4 fe ff
	ff		 lea	 ecx, DWORD PTR _file$[ebp]
  00042	e8 00 00 00 00	 call	 ??0?$basic_ifstream@DV?$char_traits@D@_STL@@@_STL@@QAE@PBDH@Z ; _STL::basic_ifstream<char,_STL::char_traits<char> >::basic_ifstream<char,_STL::char_traits<char> >

; 296  : 
; 297  : 	if (!file.is_open())

  00047	80 bd 3c ff ff
	ff 00		 cmp	 BYTE PTR _file$[ebp+104], 0
  0004e	89 7d fc	 mov	 DWORD PTR __$EHRec$[ebp+8], edi
  00051	75 07		 jne	 SHORT $L101234
$L106390:
  00053	32 db		 xor	 bl, bl
  00055	e9 34 01 00 00	 jmp	 $L106384
$L101234:

; 298  : 	{
; 299  : 		return false;
; 300  : 	}
; 301  : 
; 302  : 	// appSpkSize - Pack 
; 303  : 	file.read((char*)&appSpkSize, 2);

  0005a	6a 02		 push	 2
  0005c	8d 85 cc fd ff
	ff		 lea	 eax, DWORD PTR _appSpkSize$[ebp]
  00062	50		 push	 eax
  00063	8d 8d d4 fe ff
	ff		 lea	 ecx, DWORD PTR _file$[ebp]
  00069	e8 00 00 00 00	 call	 ?read@?$basic_istream@DV?$char_traits@D@_STL@@@_STL@@QAEAAV12@PADH@Z ; _STL::basic_istream<char,_STL::char_traits<char> >::read

; 304  : 	file.seekg( 0, std::ios::end );

  0006e	6a 04		 push	 4
  00070	57		 push	 edi
  00071	8d 8d d4 fe ff
	ff		 lea	 ecx, DWORD PTR _file$[ebp]
  00077	e8 00 00 00 00	 call	 ?seekg@?$basic_istream@DV?$char_traits@D@_STL@@@_STL@@QAEAAV12@JH@Z ; _STL::basic_istream<char,_STL::char_traits<char> >::seekg

; 305  : 
; 306  : 	// appendFilesize - AppendPack 
; 307  : 	appendFilesize = file.tellg();

  0007c	8d 85 c0 fd ff
	ff		 lea	 eax, DWORD PTR $T106328[ebp]
  00082	50		 push	 eax
  00083	8d 8d d4 fe ff
	ff		 lea	 ecx, DWORD PTR _file$[ebp]
  00089	e8 00 00 00 00	 call	 ?tellg@?$basic_istream@DV?$char_traits@D@_STL@@@_STL@@QAE?AV?$fpos@H@2@XZ ; _STL::basic_istream<char,_STL::char_traits<char> >::tellg
  0008e	8b 18		 mov	 ebx, DWORD PTR [eax]

; 308  : 	
; 309  : 	file.close();

  00090	8d 8d d4 fe ff
	ff		 lea	 ecx, DWORD PTR _file$[ebp]
  00096	e8 00 00 00 00	 call	 ?close@?$basic_ifstream@DV?$char_traits@D@_STL@@@_STL@@QAEXXZ ; _STL::basic_ifstream<char,_STL::char_traits<char> >::close

; 310  : 
; 311  : 	// appendFilename
; 312  : 	strcpy(appendFilename, m_orgFilename.GetString());

  0009b	ff 76 08	 push	 DWORD PTR [esi+8]
  0009e	8d 85 d4 fd ff
	ff		 lea	 eax, DWORD PTR _appendFilename$[ebp]
  000a4	50		 push	 eax
  000a5	e8 00 00 00 00	 call	 _strcpy

; 313  : 	char* pBS = strrchr(appendFilename, '\\');

  000aa	8d 85 d4 fd ff
	ff		 lea	 eax, DWORD PTR _appendFilename$[ebp]
  000b0	6a 5c		 push	 92			; 0000005cH
  000b2	50		 push	 eax
  000b3	e8 00 00 00 00	 call	 _strrchr
  000b8	83 c4 10	 add	 esp, 16			; 00000010H

; 314  : 	if (pBS==NULL)

  000bb	3b c7		 cmp	 eax, edi
  000bd	74 94		 je	 SHORT $L106390

; 315  : 	{
; 316  : 		// ? -_-;;
; 317  : 		return false;
; 318  : 	}
; 319  : 	else
; 320  : 	{
; 321  : 		*(pBS+1) = '\0';		// 'Data\\Image\\' 
; 322  : 	}
; 323  : 
; 324  : 	pBS = strrchr(currentFilename, '\\');	// '\\NewXX.spk'

  000bf	6a 5c		 push	 92			; 0000005cH
  000c1	ff 75 08	 push	 DWORD PTR _currentFilename$[ebp]
  000c4	c6 40 01 00	 mov	 BYTE PTR [eax+1], 0
  000c8	e8 00 00 00 00	 call	 _strrchr

; 325  : 	if (pBS==NULL)

  000cd	3b c7		 cmp	 eax, edi
  000cf	59		 pop	 ecx
  000d0	59		 pop	 ecx
  000d1	75 05		 jne	 SHORT $L101242

; 326  : 	{
; 327  : 		strcat(appendFilename, currentFilename);

  000d3	ff 75 08	 push	 DWORD PTR _currentFilename$[ebp]

; 328  : 	}
; 329  : 	else

  000d6	eb 02		 jmp	 SHORT $L106388
$L101242:

; 330  : 	{
; 331  : 		strcat(appendFilename, pBS+1);		// NewXX.spk

  000d8	40		 inc	 eax
  000d9	50		 push	 eax
$L106388:
  000da	8d 85 d4 fd ff
	ff		 lea	 eax, DWORD PTR _appendFilename$[ebp]
  000e0	50		 push	 eax
  000e1	e8 00 00 00 00	 call	 _strcat

; 332  : 	}
; 333  : 
; 334  : 	long previousFilesize;
; 335  : 	WORD previousSpkSize;
; 336  : 
; 337  : 	//------------------------------------------------------------
; 338  : 	//    
; 339  : 	//------------------------------------------------------------
; 340  : 	if (m_AppendPatch.size()==0)

  000e6	8d 46 1c	 lea	 eax, DWORD PTR [esi+28]
  000e9	59		 pop	 ecx
  000ea	59		 pop	 ecx
  000eb	8b 48 04	 mov	 ecx, DWORD PTR [eax+4]
  000ee	2b 08		 sub	 ecx, DWORD PTR [eax]
  000f0	89 85 c8 fd ff
	ff		 mov	 DWORD PTR tv234[ebp], eax
  000f6	f7 c1 fc ff ff
	ff		 test	 ecx, -4			; fffffffcH
  000fc	75 09		 jne	 SHORT $L101246

; 341  : 	{
; 342  : 		previousFilesize = m_orgFilesize;

  000fe	8b 7e 0c	 mov	 edi, DWORD PTR [esi+12]

; 343  : 		previousSpkSize	= m_orgSpkSize;

  00101	66 8b 46 10	 mov	 ax, WORD PTR [esi+16]

; 344  : 	}
; 345  : 	else

  00105	eb 0d		 jmp	 SHORT $L106389
$L101246:

; 346  : 	{
; 347  : 		APPEND_PATCH_NODE* pNode = m_AppendPatch.back();

  00107	8b 76 20	 mov	 esi, DWORD PTR [esi+32]
  0010a	8b 46 fc	 mov	 eax, DWORD PTR [esi-4]

; 348  : 
; 349  : 		previousFilesize = pNode->afterFilesize;

  0010d	8b 78 18	 mov	 edi, DWORD PTR [eax+24]

; 350  : 		previousSpkSize = pNode->afterSpkSize;

  00110	66 8b 40 1c	 mov	 ax, WORD PTR [eax+28]
$L106389:

; 351  : 	}
; 352  : 
; 353  : 	//------------------------------------------------------------
; 354  : 	//   
; 355  : 	//------------------------------------------------------------
; 356  : 	APPEND_PATCH_NODE* pNode = new APPEND_PATCH_NODE;

  00114	6a 20		 push	 32			; 00000020H
  00116	66 89 45 08	 mov	 WORD PTR _previousSpkSize$[ebp], ax
  0011a	e8 00 00 00 00	 call	 ??2@YAPAXI@Z		; operator new
  0011f	8b f0		 mov	 esi, eax
  00121	59		 pop	 ecx
  00122	89 b5 d0 fd ff
	ff		 mov	 DWORD PTR $T106331[ebp], esi
  00128	85 f6		 test	 esi, esi
  0012a	c6 45 fc 01	 mov	 BYTE PTR __$EHRec$[ebp+8], 1
  0012e	74 09		 je	 SHORT $L106332
  00130	8b ce		 mov	 ecx, esi
  00132	e8 00 00 00 00	 call	 ??0MString@@QAE@XZ	; MString::MString
  00137	eb 02		 jmp	 SHORT $L106333
$L106332:
  00139	33 f6		 xor	 esi, esi
$L106333:

; 357  : 
; 358  : 	pNode->appendFilename	= appendFilename;

  0013b	8d 85 d4 fd ff
	ff		 lea	 eax, DWORD PTR _appendFilename$[ebp]
  00141	50		 push	 eax
  00142	8b ce		 mov	 ecx, esi
  00144	c6 45 fc 00	 mov	 BYTE PTR __$EHRec$[ebp+8], 0
  00148	89 b5 d0 fd ff
	ff		 mov	 DWORD PTR _pNode$[ebp], esi
  0014e	e8 00 00 00 00	 call	 ??4MString@@QAEXPBD@Z	; MString::operator=

; 359  : 	pNode->appendFilesize	= appendFilesize;
; 360  : 	pNode->appSpkSize		= appSpkSize;		
; 361  : 	pNode->writePosition	= previousFilesize;
; 362  : 	pNode->afterFilesize	= previousFilesize + appendFilesize-2;	// SPK   2 bytes
; 363  : 	pNode->afterSpkSize		= previousSpkSize + appSpkSize;

  00153	8b 4d 08	 mov	 ecx, DWORD PTR _previousSpkSize$[ebp]
  00156	89 5e 0c	 mov	 DWORD PTR [esi+12], ebx
  00159	66 8b 85 cc fd
	ff ff		 mov	 ax, WORD PTR _appSpkSize$[ebp]
  00160	66 89 46 10	 mov	 WORD PTR [esi+16], ax
  00164	89 7e 14	 mov	 DWORD PTR [esi+20], edi
  00167	8d 44 1f fe	 lea	 eax, DWORD PTR [edi+ebx-2]
  0016b	89 46 18	 mov	 DWORD PTR [esi+24], eax
  0016e	8b 85 cc fd ff
	ff		 mov	 eax, DWORD PTR _appSpkSize$[ebp]
  00174	03 c8		 add	 ecx, eax

; 364  : 
; 365  : 	m_AppendPatch.push_back( pNode );

  00176	8d 85 d0 fd ff
	ff		 lea	 eax, DWORD PTR _pNode$[ebp]
  0017c	66 89 4e 1c	 mov	 WORD PTR [esi+28], cx
  00180	8b 8d c8 fd ff
	ff		 mov	 ecx, DWORD PTR tv234[ebp]
  00186	50		 push	 eax
  00187	e8 00 00 00 00	 call	 ?push_back@?$vector@PAVAPPEND_PATCH_NODE@@V?$allocator@PAVAPPEND_PATCH_NODE@@@_STL@@@_STL@@QAEXABQAVAPPEND_PATCH_NODE@@@Z ; _STL::vector<APPEND_PATCH_NODE *,_STL::allocator<APPEND_PATCH_NODE *> >::push_back
  0018c	b3 01		 mov	 bl, 1
$L106384:

; 366  : 
; 367  : 	return true;

  0018e	83 4d fc ff	 or	 DWORD PTR __$EHRec$[ebp+8], -1
  00192	8d 8d d4 fe ff
	ff		 lea	 ecx, DWORD PTR _file$[ebp]
  00198	e8 00 00 00 00	 call	 ??_D?$basic_ifstream@DV?$char_traits@D@_STL@@@_STL@@QAEXXZ
  0019d	8a c3		 mov	 al, bl
  0019f	5b		 pop	 ebx
$L101228:

; 368  : }

  001a0	8b 4d f4	 mov	 ecx, DWORD PTR __$EHRec$[ebp]
  001a3	5f		 pop	 edi
  001a4	64 89 0d 00 00
	00 00		 mov	 DWORD PTR fs:__except_list, ecx
  001ab	8b 4d f0	 mov	 ecx, DWORD PTR __$ArrayPad$[ebp]
  001ae	5e		 pop	 esi
  001af	e8 00 00 00 00	 call	 @__security_check_cookie@4
  001b4	c9		 leave
  001b5	c2 04 00	 ret	 4
_TEXT	ENDS
;	COMDAT text$x
text$x	SEGMENT
$L106335:
  00000	8d 8d d4 fe ff
	ff		 lea	 ecx, DWORD PTR _file$[ebp]
  00006	e9 00 00 00 00	 jmp	 ??_D?$basic_ifstream@DV?$char_traits@D@_STL@@@_STL@@QAEXXZ
$L106336:
  0000b	ff b5 d0 fd ff
	ff		 push	 DWORD PTR $T106331[ebp]
  00011	e8 00 00 00 00	 call	 ??3@YAXPAX@Z		; operator delete
  00016	59		 pop	 ecx
  00017	c3		 ret	 0
__ehhandler$?AddAppendInfo@AppendPatch@@QAE_NPBD@Z:
  00018	b8 00 00 00 00	 mov	 eax, OFFSET FLAT:$T106383
  0001d	e9 00 00 00 00	 jmp	 ___CxxFrameHandler
text$x	ENDS
?AddAppendInfo@AppendPatch@@QAE_NPBD@Z ENDP		; AppendPatch::AddAppendInfo
END
