; Listing generated by Microsoft (R) Optimizing Compiler Version 13.10.3077 

	TITLE	\darkeden\Designed_Common\Project\Client\Packet\Assert.cpp
	.386P
include listing.inc
if @Version gt 510
.model FLAT
else
_TEXT	SEGMENT PARA USE32 PUBLIC 'CODE'
_TEXT	ENDS
_DATA	SEGMENT DWORD USE32 PUBLIC 'DATA'
_DATA	ENDS
CONST	SEGMENT DWORD USE32 PUBLIC 'CONST'
CONST	ENDS
_BSS	SEGMENT DWORD USE32 PUBLIC 'BSS'
_BSS	ENDS
$$SYMBOLS	SEGMENT BYTE USE32 'DEBSYM'
$$SYMBOLS	ENDS
$$TYPES	SEGMENT BYTE USE32 'DEBTYP'
$$TYPES	ENDS
_TLS	SEGMENT DWORD USE32 PUBLIC 'TLS'
_TLS	ENDS
;	COMDAT ??_C@_0BE@DEFGJHNM@Assertion?5Failed?5?3?5?$AA@
CONST	SEGMENT DWORD USE32 PUBLIC 'CONST'
CONST	ENDS
;	COMDAT ??_C@_04LNPKFDKO@?5at?5?$AA@
CONST	SEGMENT DWORD USE32 PUBLIC 'CONST'
CONST	ENDS
;	COMDAT ??_C@_0BF@MIPHKFGA@assertion_failed?4log?$AA@
CONST	SEGMENT DWORD USE32 PUBLIC 'CONST'
CONST	ENDS
;	COMDAT ??_C@_0N@GOPDCEEB@basic_string?$AA@
CONST	SEGMENT DWORD USE32 PUBLIC 'CONST'
CONST	ENDS
xdata$x	SEGMENT DWORD USE32 PUBLIC 'CONST'
xdata$x	ENDS
rdata$r	SEGMENT DWORD USE32 PUBLIC 'CONST'
rdata$r	ENDS
text$yc	SEGMENT PARA USE32 PUBLIC 'CODE'
text$yc	ENDS
CRT$XCA	SEGMENT DWORD USE32 PUBLIC 'DATA'
CRT$XCA	ENDS
CRT$XCU	SEGMENT DWORD USE32 PUBLIC 'DATA'
CRT$XCU	ENDS
CRT$XCL	SEGMENT DWORD USE32 PUBLIC 'DATA'
CRT$XCL	ENDS
CRT$XCC	SEGMENT DWORD USE32 PUBLIC 'DATA'
CRT$XCC	ENDS
CRT$XCZ	SEGMENT DWORD USE32 PUBLIC 'DATA'
CRT$XCZ	ENDS
text$yd	SEGMENT PARA USE32 PUBLIC 'CODE'
text$yd	ENDS
;	COMDAT ?__assert__@@YAXPBDI00@Z
_TEXT	SEGMENT PARA USE32 PUBLIC 'CODE'
_TEXT	ENDS
;	COMDAT ??_D?$basic_ofstream@DV?$char_traits@D@_STL@@@_STL@@QAEXXZ
_TEXT	SEGMENT PARA USE32 PUBLIC 'CODE'
_TEXT	ENDS
;	COMDAT ??0AssertionError@@QAE@ABV0@@Z
_TEXT	SEGMENT PARA USE32 PUBLIC 'CODE'
_TEXT	ENDS
;	COMDAT ??0Error@@QAE@ABV0@@Z
_TEXT	SEGMENT PARA USE32 PUBLIC 'CODE'
_TEXT	ENDS
;	COMDAT ??0Throwable@@QAE@ABV0@@Z
_TEXT	SEGMENT PARA USE32 PUBLIC 'CODE'
_TEXT	ENDS
;	COMDAT ?eq@?$__char_traits_base@DH@_STL@@SA_NABD0@Z
_TEXT	SEGMENT PARA USE32 PUBLIC 'CODE'
_TEXT	ENDS
;	COMDAT ?not_eof@?$__char_traits_base@DH@_STL@@SAHABH@Z
_TEXT	SEGMENT PARA USE32 PUBLIC 'CODE'
_TEXT	ENDS
;	COMDAT ?eq_int_type@?$__char_traits_base@DH@_STL@@SA_NABH0@Z
_TEXT	SEGMENT PARA USE32 PUBLIC 'CODE'
_TEXT	ENDS
;	COMDAT ?get_allocator@?$basic_string@DV?$char_traits@D@_STL@@V?$allocator@D@2@@_STL@@QBE?AV?$allocator@D@2@XZ
_TEXT	SEGMENT PARA USE32 PUBLIC 'CODE'
_TEXT	ENDS
;	COMDAT ?_M_terminate_string@?$basic_string@DV?$char_traits@D@_STL@@V?$allocator@D@2@@_STL@@AAEXXZ
_TEXT	SEGMENT PARA USE32 PUBLIC 'CODE'
_TEXT	ENDS
;	COMDAT ?c_str@?$basic_string@DV?$char_traits@D@_STL@@V?$allocator@D@2@@_STL@@QBEPBDXZ
_TEXT	SEGMENT PARA USE32 PUBLIC 'CODE'
_TEXT	ENDS
;	COMDAT ??0?$_String_base@DV?$allocator@D@_STL@@@_STL@@QAE@ABV?$allocator@D@1@@Z
_TEXT	SEGMENT PARA USE32 PUBLIC 'CODE'
_TEXT	ENDS
;	COMDAT ?allocate@?$allocator@D@_STL@@QAEPADIPBX@Z
_TEXT	SEGMENT PARA USE32 PUBLIC 'CODE'
_TEXT	ENDS
;	COMDAT ??0?$fpos@H@_STL@@QAE@J@Z
_TEXT	SEGMENT PARA USE32 PUBLIC 'CODE'
_TEXT	ENDS
;	COMDAT ??B?$fpos@H@_STL@@QBEJXZ
_TEXT	SEGMENT PARA USE32 PUBLIC 'CODE'
_TEXT	ENDS
;	COMDAT ?state@?$fpos@H@_STL@@QBEHXZ
_TEXT	SEGMENT PARA USE32 PUBLIC 'CODE'
_TEXT	ENDS
;	COMDAT ??6?$basic_ostream@DV?$char_traits@D@_STL@@@_STL@@QAEAAV01@P6AAAV01@AAV01@@Z@Z
_TEXT	SEGMENT PARA USE32 PUBLIC 'CODE'
_TEXT	ENDS
;	COMDAT ?is_open@?$basic_filebuf@DV?$char_traits@D@_STL@@@_STL@@QBE_NXZ
_TEXT	SEGMENT PARA USE32 PUBLIC 'CODE'
_TEXT	ENDS
;	COMDAT ?_M_seek_return@?$basic_filebuf@DV?$char_traits@D@_STL@@@_STL@@AAE?AV?$fpos@H@2@JH@Z
_TEXT	SEGMENT PARA USE32 PUBLIC 'CODE'
_TEXT	ENDS
;	COMDAT ??0?$list@V?$basic_string@DV?$char_traits@D@_STL@@V?$allocator@D@2@@_STL@@V?$allocator@V?$basic_string@DV?$char_traits@D@_STL@@V?$allocator@D@2@@_STL@@@2@@_STL@@QAE@ABV01@@Z
_TEXT	SEGMENT PARA USE32 PUBLIC 'CODE'
_TEXT	ENDS
;	COMDAT ??0?$_Filebuf_Tmp_Buf@D@_STL@@QAE@H@Z
_TEXT	SEGMENT PARA USE32 PUBLIC 'CODE'
_TEXT	ENDS
;	COMDAT ??1?$_Filebuf_Tmp_Buf@D@_STL@@QAE@XZ
_TEXT	SEGMENT PARA USE32 PUBLIC 'CODE'
_TEXT	ENDS
;	COMDAT ??0?$basic_ofstream@DV?$char_traits@D@_STL@@@_STL@@QAE@PBDH@Z
_TEXT	SEGMENT PARA USE32 PUBLIC 'CODE'
_TEXT	ENDS
;	COMDAT ??1?$basic_ofstream@DV?$char_traits@D@_STL@@@_STL@@UAE@XZ
_TEXT	SEGMENT PARA USE32 PUBLIC 'CODE'
_TEXT	ENDS
;	COMDAT ?close@?$basic_ofstream@DV?$char_traits@D@_STL@@@_STL@@QAEXXZ
_TEXT	SEGMENT PARA USE32 PUBLIC 'CODE'
_TEXT	ENDS
;	COMDAT ??_G?$basic_ofstream@DV?$char_traits@D@_STL@@@_STL@@UAEPAXI@Z
_TEXT	SEGMENT PARA USE32 PUBLIC 'CODE'
_TEXT	ENDS
;	COMDAT ?_M_terminate_string_aux@?$basic_string@DV?$char_traits@D@_STL@@V?$allocator@D@2@@_STL@@AAEXABU__true_type@2@@Z
_TEXT	SEGMENT PARA USE32 PUBLIC 'CODE'
_TEXT	ENDS
;	COMDAT ??0?$allocator@D@_STL@@QAE@ABV01@@Z
_TEXT	SEGMENT PARA USE32 PUBLIC 'CODE'
_TEXT	ENDS
;	COMDAT ??0?$_STLP_alloc_proxy@PADDV?$allocator@D@_STL@@@_STL@@QAE@ABV?$allocator@D@1@PAD@Z
_TEXT	SEGMENT PARA USE32 PUBLIC 'CODE'
_TEXT	ENDS
;	COMDAT ?state@?$fpos@H@_STL@@QAEXH@Z
_TEXT	SEGMENT PARA USE32 PUBLIC 'CODE'
_TEXT	ENDS
;	COMDAT ?setstate@?$basic_ios@DV?$char_traits@D@_STL@@@_STL@@QAEXH@Z
_TEXT	SEGMENT PARA USE32 PUBLIC 'CODE'
_TEXT	ENDS
;	COMDAT ?open@?$basic_filebuf@DV?$char_traits@D@_STL@@@_STL@@QAEPAV12@PBDH@Z
_TEXT	SEGMENT PARA USE32 PUBLIC 'CODE'
_TEXT	ENDS
;	COMDAT ?get_allocator@?$_List_base@V?$basic_string@DV?$char_traits@D@_STL@@V?$allocator@D@2@@_STL@@V?$allocator@V?$basic_string@DV?$char_traits@D@_STL@@V?$allocator@D@2@@_STL@@@2@@_STL@@QBE?AV?$allocator@V?$basic_string@DV?$char_traits@D@_STL@@V?$allocator@D@2@@_STL@@@2@XZ
_TEXT	SEGMENT PARA USE32 PUBLIC 'CODE'
_TEXT	ENDS
;	COMDAT ?rdbuf@?$basic_ofstream@DV?$char_traits@D@_STL@@@_STL@@QBEPAV?$basic_filebuf@DV?$char_traits@D@_STL@@@2@XZ
_TEXT	SEGMENT PARA USE32 PUBLIC 'CODE'
_TEXT	ENDS
;	COMDAT ?clear@?$basic_ios@DV?$char_traits@D@_STL@@@_STL@@QAEXH@Z
_TEXT	SEGMENT PARA USE32 PUBLIC 'CODE'
_TEXT	ENDS
;	COMDAT ?rdbuf@?$basic_ios@DV?$char_traits@D@_STL@@@_STL@@QBEPAV?$basic_streambuf@DV?$char_traits@D@_STL@@@2@XZ
_TEXT	SEGMENT PARA USE32 PUBLIC 'CODE'
_TEXT	ENDS
;	COMDAT ??$_M_range_initialize@PBD@?$basic_string@DV?$char_traits@D@_STL@@V?$allocator@D@2@@_STL@@AAEXPBD0@Z
_TEXT	SEGMENT PARA USE32 PUBLIC 'CODE'
_TEXT	ENDS
;	COMDAT ??$_M_range_initialize@PAD@?$basic_string@DV?$char_traits@D@_STL@@V?$allocator@D@2@@_STL@@AAEXPAD0@Z
_TEXT	SEGMENT PARA USE32 PUBLIC 'CODE'
_TEXT	ENDS
;	COMDAT ??0?$basic_ostream@DV?$char_traits@D@_STL@@@_STL@@QAE@PAV?$basic_streambuf@DV?$char_traits@D@_STL@@@1@@Z
_TEXT	SEGMENT PARA USE32 PUBLIC 'CODE'
_TEXT	ENDS
;	COMDAT ??0?$basic_filebuf@DV?$char_traits@D@_STL@@@_STL@@QAE@XZ
_TEXT	SEGMENT PARA USE32 PUBLIC 'CODE'
_TEXT	ENDS
;	COMDAT ?close@?$basic_filebuf@DV?$char_traits@D@_STL@@@_STL@@QAEPAV12@XZ
_TEXT	SEGMENT PARA USE32 PUBLIC 'CODE'
_TEXT	ENDS
;	COMDAT ?_M_exit_input_mode@?$basic_filebuf@DV?$char_traits@D@_STL@@@_STL@@AAEXXZ
_TEXT	SEGMENT PARA USE32 PUBLIC 'CODE'
_TEXT	ENDS
;	COMDAT ?_M_switch_to_output_mode@?$basic_filebuf@DV?$char_traits@D@_STL@@@_STL@@AAE_NXZ
_TEXT	SEGMENT PARA USE32 PUBLIC 'CODE'
_TEXT	ENDS
;	COMDAT ?_M_output_error@?$basic_filebuf@DV?$char_traits@D@_STL@@@_STL@@AAEHXZ
_TEXT	SEGMENT PARA USE32 PUBLIC 'CODE'
_TEXT	ENDS
;	COMDAT ?_M_allocate_buffers@?$basic_filebuf@DV?$char_traits@D@_STL@@@_STL@@AAE_NPADH@Z
_TEXT	SEGMENT PARA USE32 PUBLIC 'CODE'
_TEXT	ENDS
;	COMDAT ?_M_deallocate_buffers@?$basic_filebuf@DV?$char_traits@D@_STL@@@_STL@@AAEXXZ
_TEXT	SEGMENT PARA USE32 PUBLIC 'CODE'
_TEXT	ENDS
;	COMDAT ?_M_seek_init@?$basic_filebuf@DV?$char_traits@D@_STL@@@_STL@@AAE_N_N@Z
_TEXT	SEGMENT PARA USE32 PUBLIC 'CODE'
_TEXT	ENDS
;	COMDAT ?_M_setup_codecvt@?$basic_filebuf@DV?$char_traits@D@_STL@@@_STL@@AAEXABVlocale@2@@Z
_TEXT	SEGMENT PARA USE32 PUBLIC 'CODE'
_TEXT	ENDS
;	COMDAT ??$equal@PADPADU?$_Eq_traits@V?$char_traits@D@_STL@@@_STL@@@_STL@@YA_NPAD00U?$_Eq_traits@V?$char_traits@D@_STL@@@0@@Z
_TEXT	SEGMENT PARA USE32 PUBLIC 'CODE'
_TEXT	ENDS
;	COMDAT ??$_Destroy@V?$basic_string@DV?$char_traits@D@_STL@@V?$allocator@D@2@@_STL@@@_STL@@YAXPAV?$basic_string@DV?$char_traits@D@_STL@@V?$allocator@D@2@@0@@Z
_TEXT	SEGMENT PARA USE32 PUBLIC 'CODE'
_TEXT	ENDS
;	COMDAT ??$_M_assign_dispatch@PAD@?$basic_string@DV?$char_traits@D@_STL@@V?$allocator@D@2@@_STL@@AAEAAV01@PAD0ABU__false_type@1@@Z
_TEXT	SEGMENT PARA USE32 PUBLIC 'CODE'
_TEXT	ENDS
;	COMDAT ??0?$basic_ios@DV?$char_traits@D@_STL@@@_STL@@IAE@XZ
_TEXT	SEGMENT PARA USE32 PUBLIC 'CODE'
_TEXT	ENDS
;	COMDAT ?init@?$basic_ios@DV?$char_traits@D@_STL@@@_STL@@IAEXPAV?$basic_streambuf@DV?$char_traits@D@_STL@@@2@@Z
_TEXT	SEGMENT PARA USE32 PUBLIC 'CODE'
_TEXT	ENDS
;	COMDAT ??$?6V?$char_traits@D@_STL@@@_STL@@YAAAV?$basic_ostream@DV?$char_traits@D@_STL@@@0@AAV10@PBD@Z
_TEXT	SEGMENT PARA USE32 PUBLIC 'CODE'
_TEXT	ENDS
;	COMDAT ??$endl@DV?$char_traits@D@_STL@@@_STL@@YAAAV?$basic_ostream@DV?$char_traits@D@_STL@@@0@AAV10@@Z
_TEXT	SEGMENT PARA USE32 PUBLIC 'CODE'
_TEXT	ENDS
;	COMDAT ??$insert@U?$_List_iterator@V?$basic_string@DV?$char_traits@D@_STL@@V?$allocator@D@2@@_STL@@U?$_Const_traits@V?$basic_string@DV?$char_traits@D@_STL@@V?$allocator@D@2@@_STL@@@2@@_STL@@@?$list@V?$basic_string@DV?$char_traits@D@_STL@@V?$allocator@D@2@@_STL@@V?$allocator@V?$basic_string@DV?$char_traits@D@_STL@@V?$allocator@D@2@@_STL@@@2@@_STL@@QAEXU?$_List_iterator@V?$basic_string@DV?$char_traits@D@_STL@@V?$allocator@D@2@@_STL@@U?$_Nonconst_traits@V?$basic_string@DV?$char_traits@D@_STL@@V?$allocator@D@2@@_STL@@@2@@1@U?$_List_iterator@V?$basic_string@DV?$char_traits@D@_STL@@V?$allocator@D@2@@_STL@@U?$_Const_traits@V?$basic_string@DV?$char_traits@D@_STL@@V?$allocator@D@2@@_STL@@@2@@1@1@Z
_TEXT	SEGMENT PARA USE32 PUBLIC 'CODE'
_TEXT	ENDS
;	COMDAT ??$?0U?$_List_node@V?$basic_string@DV?$char_traits@D@_STL@@V?$allocator@D@2@@_STL@@@_STL@@@?$allocator@V?$basic_string@DV?$char_traits@D@_STL@@V?$allocator@D@2@@_STL@@@_STL@@QAE@ABV?$allocator@U?$_List_node@V?$basic_string@DV?$char_traits@D@_STL@@V?$allocator@D@2@@_STL@@@_STL@@@1@@Z
_TEXT	SEGMENT PARA USE32 PUBLIC 'CODE'
_TEXT	ENDS
;	COMDAT ??_G?$basic_string@DV?$char_traits@D@_STL@@V?$allocator@D@2@@_STL@@QAEPAXI@Z
_TEXT	SEGMENT PARA USE32 PUBLIC 'CODE'
_TEXT	ENDS
;	COMDAT ?end@?$basic_string@DV?$char_traits@D@_STL@@V?$allocator@D@2@@_STL@@QAEPADXZ
_TEXT	SEGMENT PARA USE32 PUBLIC 'CODE'
_TEXT	ENDS
;	COMDAT ?erase@?$basic_string@DV?$char_traits@D@_STL@@V?$allocator@D@2@@_STL@@QAEPADPAD0@Z
_TEXT	SEGMENT PARA USE32 PUBLIC 'CODE'
_TEXT	ENDS
;	COMDAT ?tie@?$basic_ios@DV?$char_traits@D@_STL@@@_STL@@QAEPAV?$basic_ostream@DV?$char_traits@D@_STL@@@2@PAV32@@Z
_TEXT	SEGMENT PARA USE32 PUBLIC 'CODE'
_TEXT	ENDS
;	COMDAT ?fill@?$basic_ios@DV?$char_traits@D@_STL@@@_STL@@QAEDD@Z
_TEXT	SEGMENT PARA USE32 PUBLIC 'CODE'
_TEXT	ENDS
;	COMDAT ?flush@?$basic_ostream@DV?$char_traits@D@_STL@@@_STL@@QAEAAV12@XZ
_TEXT	SEGMENT PARA USE32 PUBLIC 'CODE'
_TEXT	ENDS
;	COMDAT ?_M_exit_putback_mode@?$basic_filebuf@DV?$char_traits@D@_STL@@@_STL@@AAEXXZ
_TEXT	SEGMENT PARA USE32 PUBLIC 'CODE'
_TEXT	ENDS
;	COMDAT ??0?$_List_iterator@V?$basic_string@DV?$char_traits@D@_STL@@V?$allocator@D@2@@_STL@@U?$_Nonconst_traits@V?$basic_string@DV?$char_traits@D@_STL@@V?$allocator@D@2@@_STL@@@2@@_STL@@QAE@ABU01@@Z
_TEXT	SEGMENT PARA USE32 PUBLIC 'CODE'
_TEXT	ENDS
;	COMDAT ??R?$_Eq_traits@V?$char_traits@D@_STL@@@_STL@@QBE_NABD0@Z
_TEXT	SEGMENT PARA USE32 PUBLIC 'CODE'
_TEXT	ENDS
;	COMDAT ?move@?$__char_traits_base@DH@_STL@@SAPADPADPBDI@Z
_TEXT	SEGMENT PARA USE32 PUBLIC 'CODE'
_TEXT	ENDS
;	COMDAT ??$_M_range_initialize@PBD@?$basic_string@DV?$char_traits@D@_STL@@V?$allocator@D@2@@_STL@@AAEXPBD0ABUforward_iterator_tag@1@@Z
_TEXT	SEGMENT PARA USE32 PUBLIC 'CODE'
_TEXT	ENDS
;	COMDAT ??$_M_range_initialize@PAD@?$basic_string@DV?$char_traits@D@_STL@@V?$allocator@D@2@@_STL@@AAEXPAD0ABUforward_iterator_tag@1@@Z
_TEXT	SEGMENT PARA USE32 PUBLIC 'CODE'
_TEXT	ENDS
;	COMDAT ?_M_put_nowiden@?$basic_ostream@DV?$char_traits@D@_STL@@@_STL@@QAEXPBD@Z
_TEXT	SEGMENT PARA USE32 PUBLIC 'CODE'
_TEXT	ENDS
;	COMDAT ?put@?$basic_ostream@DV?$char_traits@D@_STL@@@_STL@@QAEAAV12@D@Z
_TEXT	SEGMENT PARA USE32 PUBLIC 'CODE'
_TEXT	ENDS
;	COMDAT ?rdbuf@?$basic_ios@DV?$char_traits@D@_STL@@@_STL@@QAEPAV?$basic_streambuf@DV?$char_traits@D@_STL@@@2@PAV32@@Z
_TEXT	SEGMENT PARA USE32 PUBLIC 'CODE'
_TEXT	ENDS
;	COMDAT ?imbue@?$basic_ios@DV?$char_traits@D@_STL@@@_STL@@QAE?AVlocale@2@ABV32@@Z
_TEXT	SEGMENT PARA USE32 PUBLIC 'CODE'
_TEXT	ENDS
;	COMDAT ?widen@?$basic_ios@DV?$char_traits@D@_STL@@@_STL@@QBEDD@Z
_TEXT	SEGMENT PARA USE32 PUBLIC 'CODE'
_TEXT	ENDS
;	COMDAT ?_M_unshift@?$basic_filebuf@DV?$char_traits@D@_STL@@@_STL@@AAE_NXZ
_TEXT	SEGMENT PARA USE32 PUBLIC 'CODE'
_TEXT	ENDS
;	COMDAT ?_M_allocate_buffers@?$basic_filebuf@DV?$char_traits@D@_STL@@@_STL@@AAE_NXZ
_TEXT	SEGMENT PARA USE32 PUBLIC 'CODE'
_TEXT	ENDS
;	COMDAT ??$max@H@_STL@@YAABHABH0@Z
_TEXT	SEGMENT PARA USE32 PUBLIC 'CODE'
_TEXT	ENDS
;	COMDAT ??$use_facet@V?$codecvt@DDH@_STL@@@_STL@@YAABV?$codecvt@DDH@0@ABVlocale@0@@Z
_TEXT	SEGMENT PARA USE32 PUBLIC 'CODE'
_TEXT	ENDS
;	COMDAT ??$append@PAD@?$basic_string@DV?$char_traits@D@_STL@@V?$allocator@D@2@@_STL@@QAEAAV01@PAD0@Z
_TEXT	SEGMENT PARA USE32 PUBLIC 'CODE'
_TEXT	ENDS
;	COMDAT ??$_M_insert_dispatch@U?$_List_iterator@V?$basic_string@DV?$char_traits@D@_STL@@V?$allocator@D@2@@_STL@@U?$_Const_traits@V?$basic_string@DV?$char_traits@D@_STL@@V?$allocator@D@2@@_STL@@@2@@_STL@@@?$list@V?$basic_string@DV?$char_traits@D@_STL@@V?$allocator@D@2@@_STL@@V?$allocator@V?$basic_string@DV?$char_traits@D@_STL@@V?$allocator@D@2@@_STL@@@2@@_STL@@QAEXU?$_List_iterator@V?$basic_string@DV?$char_traits@D@_STL@@V?$allocator@D@2@@_STL@@U?$_Nonconst_traits@V?$basic_string@DV?$char_traits@D@_STL@@V?$allocator@D@2@@_STL@@@2@@1@U?$_List_iterator@V?$basic_string@DV?$char_traits@D@_STL@@V?$allocator@D@2@@_STL@@U?$_Const_traits@V?$basic_string@DV?$char_traits@D@_STL@@V?$allocator@D@2@@_STL@@@2@@1@1ABU__false_type@1@@Z
_TEXT	SEGMENT PARA USE32 PUBLIC 'CODE'
_TEXT	ENDS
;	COMDAT ?fill@?$basic_ios@DV?$char_traits@D@_STL@@@_STL@@QBEDXZ
_TEXT	SEGMENT PARA USE32 PUBLIC 'CODE'
_TEXT	ENDS
;	COMDAT ?_S_eof@?$basic_ios@DV?$char_traits@D@_STL@@@_STL@@SA_NH@Z
_TEXT	SEGMENT PARA USE32 PUBLIC 'CODE'
_TEXT	ENDS
;	COMDAT ??E?$_List_iterator@V?$basic_string@DV?$char_traits@D@_STL@@V?$allocator@D@2@@_STL@@U?$_Const_traits@V?$basic_string@DV?$char_traits@D@_STL@@V?$allocator@D@2@@_STL@@@2@@_STL@@QAEAAU01@XZ
_TEXT	SEGMENT PARA USE32 PUBLIC 'CODE'
_TEXT	ENDS
;	COMDAT ??0sentry@?$basic_ostream@DV?$char_traits@D@_STL@@@_STL@@QAE@AAV12@@Z
_TEXT	SEGMENT PARA USE32 PUBLIC 'CODE'
_TEXT	ENDS
;	COMDAT ??1sentry@?$basic_ostream@DV?$char_traits@D@_STL@@@_STL@@QAE@XZ
_TEXT	SEGMENT PARA USE32 PUBLIC 'CODE'
_TEXT	ENDS
;	COMDAT ??Bsentry@?$basic_ostream@DV?$char_traits@D@_STL@@@_STL@@QBE_NXZ
_TEXT	SEGMENT PARA USE32 PUBLIC 'CODE'
_TEXT	ENDS
;	COMDAT ??$distance@PBD@_STL@@YAHABQBD0@Z
_TEXT	SEGMENT PARA USE32 PUBLIC 'CODE'
_TEXT	ENDS
;	COMDAT ?_M_allocate_block@?$_String_base@DV?$allocator@D@_STL@@@_STL@@QAEXI@Z
_TEXT	SEGMENT PARA USE32 PUBLIC 'CODE'
_TEXT	ENDS
;	COMDAT ??$distance@PAD@_STL@@YAHABQAD0@Z
_TEXT	SEGMENT PARA USE32 PUBLIC 'CODE'
_TEXT	ENDS
;	COMDAT ??$uninitialized_copy@PADPAD@_STL@@YAPADPAD00@Z
_TEXT	SEGMENT PARA USE32 PUBLIC 'CODE'
_TEXT	ENDS
;	COMDAT ?_M_handle_exception@?$basic_ios@DV?$char_traits@D@_STL@@@_STL@@QAEXH@Z
_TEXT	SEGMENT PARA USE32 PUBLIC 'CODE'
_TEXT	ENDS
;	COMDAT ??$_M_append_dispatch@PAD@?$basic_string@DV?$char_traits@D@_STL@@V?$allocator@D@2@@_STL@@AAEAAV01@PAD0ABU__false_type@1@@Z
_TEXT	SEGMENT PARA USE32 PUBLIC 'CODE'
_TEXT	ENDS
;	COMDAT ??$_M_init@DV?$char_traits@D@_STL@@@_STL@@YA_NAAV?$basic_ostream@DV?$char_traits@D@_STL@@@0@@Z
_TEXT	SEGMENT PARA USE32 PUBLIC 'CODE'
_TEXT	ENDS
;	COMDAT ?max_size@?$_String_base@DV?$allocator@D@_STL@@@_STL@@QBEIXZ
_TEXT	SEGMENT PARA USE32 PUBLIC 'CODE'
_TEXT	ENDS
;	COMDAT ?tie@?$basic_ios@DV?$char_traits@D@_STL@@@_STL@@QBEPAV?$basic_ostream@DV?$char_traits@D@_STL@@@2@XZ
_TEXT	SEGMENT PARA USE32 PUBLIC 'CODE'
_TEXT	ENDS
;	COMDAT ??$__distance@PBD@_STL@@YAHABQBD0ABUrandom_access_iterator_tag@0@@Z
_TEXT	SEGMENT PARA USE32 PUBLIC 'CODE'
_TEXT	ENDS
;	COMDAT ?_M_throw_length_error@?$_String_base@DV?$allocator@D@_STL@@@_STL@@QBEXXZ
_TEXT	SEGMENT PARA USE32 PUBLIC 'CODE'
_TEXT	ENDS
;	COMDAT ??$__distance@PAD@_STL@@YAHABQAD0ABUrandom_access_iterator_tag@0@@Z
_TEXT	SEGMENT PARA USE32 PUBLIC 'CODE'
_TEXT	ENDS
;	COMDAT ??$__uninitialized_copy@PADPAD@_STL@@YAPADPAD00ABU__true_type@0@@Z
_TEXT	SEGMENT PARA USE32 PUBLIC 'CODE'
_TEXT	ENDS
;	COMDAT ??$append@PAD@?$basic_string@DV?$char_traits@D@_STL@@V?$allocator@D@2@@_STL@@AAEAAV01@PAD0ABUforward_iterator_tag@1@@Z
_TEXT	SEGMENT PARA USE32 PUBLIC 'CODE'
_TEXT	ENDS
;	COMDAT ?_M_construct_null@?$basic_string@DV?$char_traits@D@_STL@@V?$allocator@D@2@@_STL@@AAEXPAD@Z
_TEXT	SEGMENT PARA USE32 PUBLIC 'CODE'
_TEXT	ENDS
;	COMDAT ?size@?$basic_string@DV?$char_traits@D@_STL@@V?$allocator@D@2@@_STL@@QBEIXZ
_TEXT	SEGMENT PARA USE32 PUBLIC 'CODE'
_TEXT	ENDS
;	COMDAT ?max_size@?$basic_string@DV?$char_traits@D@_STL@@V?$allocator@D@2@@_STL@@QBEIXZ
_TEXT	SEGMENT PARA USE32 PUBLIC 'CODE'
_TEXT	ENDS
;	COMDAT ?capacity@?$basic_string@DV?$char_traits@D@_STL@@V?$allocator@D@2@@_STL@@QBEIXZ
_TEXT	SEGMENT PARA USE32 PUBLIC 'CODE'
_TEXT	ENDS
;	COMDAT ?_Ret@?$_BothPtrType@PADPAD@_STL@@SA?AU__true_type@2@XZ
_TEXT	SEGMENT PARA USE32 PUBLIC 'CODE'
_TEXT	ENDS
;	COMDAT ?_M_construct_null_aux@?$basic_string@DV?$char_traits@D@_STL@@V?$allocator@D@2@@_STL@@AAEXPADABU__true_type@2@@Z
_TEXT	SEGMENT PARA USE32 PUBLIC 'CODE'
_TEXT	ENDS
;	COMDAT ??$__copy_aux@PADPAD@_STL@@YAPADPAD00ABU__true_type@0@@Z
_TEXT	SEGMENT PARA USE32 PUBLIC 'CODE'
_TEXT	ENDS
;	COMDAT ??$max@I@_STL@@YAABIABI0@Z
_TEXT	SEGMENT PARA USE32 PUBLIC 'CODE'
_TEXT	ENDS
;	COMDAT ?_Ret@?$_OKToMemCpy@DD@_STL@@SA?AU__true_type@2@XZ
_TEXT	SEGMENT PARA USE32 PUBLIC 'CODE'
_TEXT	ENDS
;	COMDAT ??$_IsOKToMemCpy@DD@_STL@@YA?AU?$_OKToMemCpy@DD@0@PAD0@Z
_TEXT	SEGMENT PARA USE32 PUBLIC 'CODE'
_TEXT	ENDS
;	COMDAT ??$__copy_ptrs@PADPAD@_STL@@YAPADPAD00ABU__true_type@0@@Z
_TEXT	SEGMENT PARA USE32 PUBLIC 'CODE'
_TEXT	ENDS
;	COMDAT ??_R3?$basic_ofstream@DV?$char_traits@D@_STL@@@_STL@@8
rdata$r	SEGMENT DWORD USE32 PUBLIC 'CONST'
rdata$r	ENDS
;	COMDAT ??_R2?$basic_ofstream@DV?$char_traits@D@_STL@@@_STL@@8
rdata$r	SEGMENT DWORD USE32 PUBLIC 'CONST'
rdata$r	ENDS
;	COMDAT ??_R1A@A@3A@ios_base@_STL@@8
rdata$r	SEGMENT DWORD USE32 PUBLIC 'CONST'
rdata$r	ENDS
;	COMDAT ??_R0?AVios_base@_STL@@@8
_DATA	SEGMENT DWORD USE32 PUBLIC 'DATA'
_DATA	ENDS
;	COMDAT ??_R1A@A@3BA@?$basic_ios@DV?$char_traits@D@_STL@@@_STL@@8
rdata$r	SEGMENT DWORD USE32 PUBLIC 'CONST'
rdata$r	ENDS
;	COMDAT ??_R0?AV?$basic_ios@DV?$char_traits@D@_STL@@@_STL@@@8
_DATA	SEGMENT DWORD USE32 PUBLIC 'DATA'
_DATA	ENDS
;	COMDAT ??_R1A@?0A@A@?$basic_ostream@DV?$char_traits@D@_STL@@@_STL@@8
rdata$r	SEGMENT DWORD USE32 PUBLIC 'CONST'
rdata$r	ENDS
;	COMDAT ??_R0?AV?$basic_ostream@DV?$char_traits@D@_STL@@@_STL@@@8
_DATA	SEGMENT DWORD USE32 PUBLIC 'DATA'
_DATA	ENDS
;	COMDAT ??_R1A@?0A@A@?$basic_ofstream@DV?$char_traits@D@_STL@@@_STL@@8
rdata$r	SEGMENT DWORD USE32 PUBLIC 'CONST'
rdata$r	ENDS
;	COMDAT ??_R0?AV?$basic_ofstream@DV?$char_traits@D@_STL@@@_STL@@@8
_DATA	SEGMENT DWORD USE32 PUBLIC 'DATA'
_DATA	ENDS
;	COMDAT ??_R4?$basic_ofstream@DV?$char_traits@D@_STL@@@_STL@@6B@
rdata$r	SEGMENT DWORD USE32 PUBLIC 'CONST'
rdata$r	ENDS
;	COMDAT ?__copy_trivial@_STL@@YAPAXPBX0PAX@Z
_TEXT	SEGMENT PARA USE32 PUBLIC 'CODE'
_TEXT	ENDS
;	COMDAT ?_M_deallocate_block@?$_String_base@DV?$allocator@D@_STL@@@_STL@@QAEXXZ
_TEXT	SEGMENT PARA USE32 PUBLIC 'CODE'
_TEXT	ENDS
;	COMDAT ?deallocate@?$allocator@D@_STL@@QAEXPADI@Z
_TEXT	SEGMENT PARA USE32 PUBLIC 'CODE'
_TEXT	ENDS
;	COMDAT ?deallocate@?$__node_alloc@$00$0A@@_STL@@SAXPAXI@Z
_TEXT	SEGMENT PARA USE32 PUBLIC 'CODE'
_TEXT	ENDS
;	COMDAT ?__stl_delete@_STL@@YAXPAX@Z
_TEXT	SEGMENT PARA USE32 PUBLIC 'CODE'
_TEXT	ENDS
;	COMDAT ?good@ios_base@_STL@@QBE_NXZ
_TEXT	SEGMENT PARA USE32 PUBLIC 'CODE'
_TEXT	ENDS
;	COMDAT ?_M_get_exception_mask@ios_base@_STL@@IBEHXZ
_TEXT	SEGMENT PARA USE32 PUBLIC 'CODE'
_TEXT	ENDS
;	COMDAT ?_M_setstate_nothrow@ios_base@_STL@@IAEXH@Z
_TEXT	SEGMENT PARA USE32 PUBLIC 'CODE'
_TEXT	ENDS
;	COMDAT ?_M_incr@_List_iterator_base@_STL@@QAEXXZ
_TEXT	SEGMENT PARA USE32 PUBLIC 'CODE'
_TEXT	ENDS
;	COMDAT ??D?$_List_iterator@V?$basic_string@DV?$char_traits@D@_STL@@V?$allocator@D@2@@_STL@@U?$_Const_traits@V?$basic_string@DV?$char_traits@D@_STL@@V?$allocator@D@2@@_STL@@@2@@_STL@@QBEABV?$basic_string@DV?$char_traits@D@_STL@@V?$allocator@D@2@@1@XZ
_TEXT	SEGMENT PARA USE32 PUBLIC 'CODE'
_TEXT	ENDS
;	COMDAT ?insert@?$list@V?$basic_string@DV?$char_traits@D@_STL@@V?$allocator@D@2@@_STL@@V?$allocator@V?$basic_string@DV?$char_traits@D@_STL@@V?$allocator@D@2@@_STL@@@2@@_STL@@QAE?AU?$_List_iterator@V?$basic_string@DV?$char_traits@D@_STL@@V?$allocator@D@2@@_STL@@U?$_Nonconst_traits@V?$basic_string@DV?$char_traits@D@_STL@@V?$allocator@D@2@@_STL@@@2@@2@U32@ABV?$basic_string@DV?$char_traits@D@_STL@@V?$allocator@D@2@@2@@Z
_TEXT	SEGMENT PARA USE32 PUBLIC 'CODE'
_TEXT	ENDS
;	COMDAT ?_M_create_node@?$list@V?$basic_string@DV?$char_traits@D@_STL@@V?$allocator@D@2@@_STL@@V?$allocator@V?$basic_string@DV?$char_traits@D@_STL@@V?$allocator@D@2@@_STL@@@2@@_STL@@IAEPAU?$_List_node@V?$basic_string@DV?$char_traits@D@_STL@@V?$allocator@D@2@@_STL@@@2@ABV?$basic_string@DV?$char_traits@D@_STL@@V?$allocator@D@2@@2@@Z
_TEXT	SEGMENT PARA USE32 PUBLIC 'CODE'
_TEXT	ENDS
;	COMDAT ?allocate@?$allocator@U?$_List_node@V?$basic_string@DV?$char_traits@D@_STL@@V?$allocator@D@2@@_STL@@@_STL@@@_STL@@QAEPAU?$_List_node@V?$basic_string@DV?$char_traits@D@_STL@@V?$allocator@D@2@@_STL@@@2@IPBX@Z
_TEXT	SEGMENT PARA USE32 PUBLIC 'CODE'
_TEXT	ENDS
;	COMDAT ??$_Construct@V?$basic_string@DV?$char_traits@D@_STL@@V?$allocator@D@2@@_STL@@V12@@_STL@@YAXPAV?$basic_string@DV?$char_traits@D@_STL@@V?$allocator@D@2@@0@ABV10@@Z
_TEXT	SEGMENT PARA USE32 PUBLIC 'CODE'
_TEXT	ENDS
;	COMDAT ??2@YAPAXIPAX@Z
_TEXT	SEGMENT PARA USE32 PUBLIC 'CODE'
_TEXT	ENDS
;	COMDAT ??3@YAXPAX0@Z
_TEXT	SEGMENT PARA USE32 PUBLIC 'CODE'
_TEXT	ENDS
;	COMDAT ?deallocate@?$allocator@U?$_List_node@V?$basic_string@DV?$char_traits@D@_STL@@V?$allocator@D@2@@_STL@@@_STL@@@_STL@@QAEXPAU?$_List_node@V?$basic_string@DV?$char_traits@D@_STL@@V?$allocator@D@2@@_STL@@@2@I@Z
_TEXT	SEGMENT PARA USE32 PUBLIC 'CODE'
_TEXT	ENDS
;	COMDAT ??0?$_List_iterator@V?$basic_string@DV?$char_traits@D@_STL@@V?$allocator@D@2@@_STL@@U?$_Nonconst_traits@V?$basic_string@DV?$char_traits@D@_STL@@V?$allocator@D@2@@_STL@@@2@@_STL@@QAE@PAU?$_List_node@V?$basic_string@DV?$char_traits@D@_STL@@V?$allocator@D@2@@_STL@@@1@@Z
_TEXT	SEGMENT PARA USE32 PUBLIC 'CODE'
_TEXT	ENDS
;	COMDAT ??9_List_iterator_base@_STL@@QBE_NABU01@@Z
_TEXT	SEGMENT PARA USE32 PUBLIC 'CODE'
_TEXT	ENDS
;	COMDAT ?__page_size@_Filebuf_base@_STL@@SAIXZ
_TEXT	SEGMENT PARA USE32 PUBLIC 'CODE'
_TEXT	ENDS
;	COMDAT ?_M_write@?$basic_filebuf@DV?$char_traits@D@_STL@@@_STL@@QAE_NPADH@Z
_TEXT	SEGMENT PARA USE32 PUBLIC 'CODE'
_TEXT	ENDS
;	COMDAT ?unshift@?$codecvt@DDH@_STL@@QBE?AW4result@codecvt_base@2@AAHPAD1AAPAD@Z
_TEXT	SEGMENT PARA USE32 PUBLIC 'CODE'
_TEXT	ENDS
;	COMDAT ?_M_ctype_facet@ios_base@_STL@@QBEPBVfacet@locale@2@XZ
_TEXT	SEGMENT PARA USE32 PUBLIC 'CODE'
_TEXT	ENDS
;	COMDAT ?widen@?$ctype@D@_STL@@QBEDD@Z
_TEXT	SEGMENT PARA USE32 PUBLIC 'CODE'
_TEXT	ENDS
;	COMDAT ?grouping@?$numpunct@D@_STL@@QBE?AV?$basic_string@DV?$char_traits@D@_STL@@V?$allocator@D@2@@2@XZ
_TEXT	SEGMENT PARA USE32 PUBLIC 'CODE'
_TEXT	ENDS
;	COMDAT ??4?$basic_string@DV?$char_traits@D@_STL@@V?$allocator@D@2@@_STL@@QAEAAV01@ABV01@@Z
_TEXT	SEGMENT PARA USE32 PUBLIC 'CODE'
_TEXT	ENDS
;	COMDAT ??$assign@PAD@?$basic_string@DV?$char_traits@D@_STL@@V?$allocator@D@2@@_STL@@QAEAAV01@PAD0@Z
_TEXT	SEGMENT PARA USE32 PUBLIC 'CODE'
_TEXT	ENDS
;	COMDAT ?sputc@?$basic_streambuf@DV?$char_traits@D@_STL@@@_STL@@QAEHD@Z
_TEXT	SEGMENT PARA USE32 PUBLIC 'CODE'
_TEXT	ENDS
;	COMDAT ?_FILE_O_avail@_STL@@YAHPBU_iobuf@@@Z
_TEXT	SEGMENT PARA USE32 PUBLIC 'CODE'
_TEXT	ENDS
;	COMDAT ?_FILE_I_avail@_STL@@YAHPBU_iobuf@@@Z
_TEXT	SEGMENT PARA USE32 PUBLIC 'CODE'
_TEXT	ENDS
;	COMDAT ?_FILE_O_postincr@_STL@@YAAADPAU_iobuf@@@Z
_TEXT	SEGMENT PARA USE32 PUBLIC 'CODE'
_TEXT	ENDS
;	COMDAT ?_FILE_I_postincr@_STL@@YAAADPAU_iobuf@@@Z
_TEXT	SEGMENT PARA USE32 PUBLIC 'CODE'
_TEXT	ENDS
;	COMDAT ?to_int_type@?$char_traits@D@_STL@@SAHABD@Z
_TEXT	SEGMENT PARA USE32 PUBLIC 'CODE'
_TEXT	ENDS
;	COMDAT ?_M_sputnc@?$basic_streambuf@DV?$char_traits@D@_STL@@@_STL@@QAEHDH@Z
_TEXT	SEGMENT PARA USE32 PUBLIC 'CODE'
_TEXT	ENDS
;	COMDAT ?flags@ios_base@_STL@@QBEHXZ
_TEXT	SEGMENT PARA USE32 PUBLIC 'CODE'
_TEXT	ENDS
;	COMDAT ?sputn@?$basic_streambuf@DV?$char_traits@D@_STL@@@_STL@@QAEHPBDH@Z
_TEXT	SEGMENT PARA USE32 PUBLIC 'CODE'
_TEXT	ENDS
;	COMDAT ?width@ios_base@_STL@@QBEHXZ
_TEXT	SEGMENT PARA USE32 PUBLIC 'CODE'
_TEXT	ENDS
;	COMDAT ?length@?$char_traits@D@_STL@@SAIPBD@Z
_TEXT	SEGMENT PARA USE32 PUBLIC 'CODE'
_TEXT	ENDS
;	COMDAT ?uninitialized_copy@_STL@@YAPADPBD0PAD@Z
_TEXT	SEGMENT PARA USE32 PUBLIC 'CODE'
_TEXT	ENDS
;	COMDAT ??0_List_iterator_base@_STL@@QAE@PAU_List_node_base@1@@Z
_TEXT	SEGMENT PARA USE32 PUBLIC 'CODE'
_TEXT	ENDS
;	COMDAT ?pubsync@?$basic_streambuf@DV?$char_traits@D@_STL@@@_STL@@QAEHXZ
_TEXT	SEGMENT PARA USE32 PUBLIC 'CODE'
_TEXT	ENDS
;	COMDAT ?_Destroy@_STL@@YAXPAD0@Z
_TEXT	SEGMENT PARA USE32 PUBLIC 'CODE'
_TEXT	ENDS
;	COMDAT ?precision@ios_base@_STL@@QAEHH@Z
_TEXT	SEGMENT PARA USE32 PUBLIC 'CODE'
_TEXT	ENDS
;	COMDAT ?width@ios_base@_STL@@QAEHH@Z
_TEXT	SEGMENT PARA USE32 PUBLIC 'CODE'
_TEXT	ENDS
;	COMDAT ?flags@ios_base@_STL@@QAEHH@Z
_TEXT	SEGMENT PARA USE32 PUBLIC 'CODE'
_TEXT	ENDS
;	COMDAT ?_M_set_exception_mask@ios_base@_STL@@IAEXH@Z
_TEXT	SEGMENT PARA USE32 PUBLIC 'CODE'
_TEXT	ENDS
;	COMDAT ??_7?$basic_ios@DV?$char_traits@D@_STL@@@_STL@@6B@
CONST	SEGMENT DWORD USE32 PUBLIC 'CONST'
CONST	ENDS
;	COMDAT ??_R4?$basic_ios@DV?$char_traits@D@_STL@@@_STL@@6B@
rdata$r	SEGMENT DWORD USE32 PUBLIC 'CONST'
rdata$r	ENDS
;	COMDAT ??_R3?$basic_ios@DV?$char_traits@D@_STL@@@_STL@@8
rdata$r	SEGMENT DWORD USE32 PUBLIC 'CONST'
rdata$r	ENDS
;	COMDAT ??_R2?$basic_ios@DV?$char_traits@D@_STL@@@_STL@@8
rdata$r	SEGMENT DWORD USE32 PUBLIC 'CONST'
rdata$r	ENDS
;	COMDAT ??_R1A@?0A@A@?$basic_ios@DV?$char_traits@D@_STL@@@_STL@@8
rdata$r	SEGMENT DWORD USE32 PUBLIC 'CONST'
rdata$r	ENDS
;	COMDAT ??_R1A@?0A@A@ios_base@_STL@@8
rdata$r	SEGMENT DWORD USE32 PUBLIC 'CONST'
rdata$r	ENDS
;	COMDAT ??_G?$basic_ios@DV?$char_traits@D@_STL@@@_STL@@UAEPAXI@Z
_TEXT	SEGMENT PARA USE32 PUBLIC 'CODE'
_TEXT	ENDS
;	COMDAT ?assign@?$char_traits@D@_STL@@SAXAADABD@Z
_TEXT	SEGMENT PARA USE32 PUBLIC 'CODE'
_TEXT	ENDS
;	COMDAT ?always_noconv@?$codecvt@DDH@_STL@@QBE_NXZ
_TEXT	SEGMENT PARA USE32 PUBLIC 'CODE'
_TEXT	ENDS
;	COMDAT ?encoding@?$codecvt@DDH@_STL@@QBEHXZ
_TEXT	SEGMENT PARA USE32 PUBLIC 'CODE'
_TEXT	ENDS
;	COMDAT ?max_length@?$codecvt@DDH@_STL@@QBEHXZ
_TEXT	SEGMENT PARA USE32 PUBLIC 'CODE'
_TEXT	ENDS
;	COMDAT ?__o_mode@_Filebuf_base@_STL@@QBEHXZ
_TEXT	SEGMENT PARA USE32 PUBLIC 'CODE'
_TEXT	ENDS
;	COMDAT ??_7?$basic_filebuf@DV?$char_traits@D@_STL@@@_STL@@6B@
CONST	SEGMENT DWORD USE32 PUBLIC 'CONST'
CONST	ENDS
;	COMDAT ??_R4?$basic_filebuf@DV?$char_traits@D@_STL@@@_STL@@6B@
rdata$r	SEGMENT DWORD USE32 PUBLIC 'CONST'
rdata$r	ENDS
;	COMDAT ??_R0?AV?$basic_filebuf@DV?$char_traits@D@_STL@@@_STL@@@8
_DATA	SEGMENT DWORD USE32 PUBLIC 'DATA'
_DATA	ENDS
;	COMDAT ??_R3?$basic_filebuf@DV?$char_traits@D@_STL@@@_STL@@8
rdata$r	SEGMENT DWORD USE32 PUBLIC 'CONST'
rdata$r	ENDS
;	COMDAT ??_R2?$basic_filebuf@DV?$char_traits@D@_STL@@@_STL@@8
rdata$r	SEGMENT DWORD USE32 PUBLIC 'CONST'
rdata$r	ENDS
;	COMDAT ??_R1A@?0A@A@?$basic_filebuf@DV?$char_traits@D@_STL@@@_STL@@8
rdata$r	SEGMENT DWORD USE32 PUBLIC 'CONST'
rdata$r	ENDS
;	COMDAT ??_R1A@?0A@A@?$basic_streambuf@DV?$char_traits@D@_STL@@@_STL@@8
rdata$r	SEGMENT DWORD USE32 PUBLIC 'CONST'
rdata$r	ENDS
;	COMDAT ??_R0?AV?$basic_streambuf@DV?$char_traits@D@_STL@@@_STL@@@8
_DATA	SEGMENT DWORD USE32 PUBLIC 'DATA'
_DATA	ENDS
;	COMDAT ??_G?$basic_filebuf@DV?$char_traits@D@_STL@@@_STL@@UAEPAXI@Z
_TEXT	SEGMENT PARA USE32 PUBLIC 'CODE'
_TEXT	ENDS
;	COMDAT ?setbuf@?$basic_filebuf@DV?$char_traits@D@_STL@@@_STL@@MAEPAV?$basic_streambuf@DV?$char_traits@D@_STL@@@2@PADH@Z
_TEXT	SEGMENT PARA USE32 PUBLIC 'CODE'
_TEXT	ENDS
;	COMDAT ?seekoff@?$basic_filebuf@DV?$char_traits@D@_STL@@@_STL@@MAE?AV?$fpos@H@2@JHH@Z
_TEXT	SEGMENT PARA USE32 PUBLIC 'CODE'
_TEXT	ENDS
;	COMDAT ?_M_in_binary_mode@_Filebuf_base@_STL@@QBE_NXZ
_TEXT	SEGMENT PARA USE32 PUBLIC 'CODE'
_TEXT	ENDS
;	COMDAT ?length@?$codecvt@DDH@_STL@@QBEHABHPBD1I@Z
_TEXT	SEGMENT PARA USE32 PUBLIC 'CODE'
_TEXT	ENDS
;	COMDAT ?in@?$codecvt@DDH@_STL@@QBE?AW4result@codecvt_base@2@AAHPBD1AAPBDPAD3AAPAD@Z
_TEXT	SEGMENT PARA USE32 PUBLIC 'CODE'
_TEXT	ENDS
;	COMDAT ?eback@?$basic_streambuf@DV?$char_traits@D@_STL@@@_STL@@IBEPADXZ
_TEXT	SEGMENT PARA USE32 PUBLIC 'CODE'
_TEXT	ENDS
;	COMDAT ?_FILE_I_begin@_STL@@YAPADPBU_iobuf@@@Z
_TEXT	SEGMENT PARA USE32 PUBLIC 'CODE'
_TEXT	ENDS
;	COMDAT ?gptr@?$basic_streambuf@DV?$char_traits@D@_STL@@@_STL@@IBEPADXZ
_TEXT	SEGMENT PARA USE32 PUBLIC 'CODE'
_TEXT	ENDS
;	COMDAT ?_FILE_I_next@_STL@@YAPADPBU_iobuf@@@Z
_TEXT	SEGMENT PARA USE32 PUBLIC 'CODE'
_TEXT	ENDS
;	COMDAT ?_M_get_offset@_Filebuf_base@_STL@@QAEJPAD0@Z
_TEXT	SEGMENT PARA USE32 PUBLIC 'CODE'
_TEXT	ENDS
;	COMDAT ??$count@PADD@_STL@@YAHPAD0ABD@Z
_TEXT	SEGMENT PARA USE32 PUBLIC 'CODE'
_TEXT	ENDS
;	COMDAT ?seekpos@?$basic_filebuf@DV?$char_traits@D@_STL@@@_STL@@MAE?AV?$fpos@H@2@V32@H@Z
_TEXT	SEGMENT PARA USE32 PUBLIC 'CODE'
_TEXT	ENDS
;	COMDAT ?sync@?$basic_filebuf@DV?$char_traits@D@_STL@@@_STL@@MAEHXZ
_TEXT	SEGMENT PARA USE32 PUBLIC 'CODE'
_TEXT	ENDS
;	COMDAT ?showmanyc@?$basic_filebuf@DV?$char_traits@D@_STL@@@_STL@@MAEHXZ
_TEXT	SEGMENT PARA USE32 PUBLIC 'CODE'
_TEXT	ENDS
;	COMDAT ?egptr@?$basic_streambuf@DV?$char_traits@D@_STL@@@_STL@@IBEPADXZ
_TEXT	SEGMENT PARA USE32 PUBLIC 'CODE'
_TEXT	ENDS
;	COMDAT ?_FILE_I_end@_STL@@YAPADPBU_iobuf@@@Z
_TEXT	SEGMENT PARA USE32 PUBLIC 'CODE'
_TEXT	ENDS
;	COMDAT ?underflow@?$basic_filebuf@DV?$char_traits@D@_STL@@@_STL@@MAEHXZ
_TEXT	SEGMENT PARA USE32 PUBLIC 'CODE'
_TEXT	ENDS
;	COMDAT ?pbackfail@?$basic_filebuf@DV?$char_traits@D@_STL@@@_STL@@MAEHH@Z
_TEXT	SEGMENT PARA USE32 PUBLIC 'CODE'
_TEXT	ENDS
;	COMDAT ?gbump@?$basic_streambuf@DV?$char_traits@D@_STL@@@_STL@@IAEXH@Z
_TEXT	SEGMENT PARA USE32 PUBLIC 'CODE'
_TEXT	ENDS
;	COMDAT ?_FILE_I_bump@_STL@@YAXPAU_iobuf@@H@Z
_TEXT	SEGMENT PARA USE32 PUBLIC 'CODE'
_TEXT	ENDS
;	COMDAT ?to_char_type@?$char_traits@D@_STL@@SADABH@Z
_TEXT	SEGMENT PARA USE32 PUBLIC 'CODE'
_TEXT	ENDS
;	COMDAT ?overflow@?$basic_filebuf@DV?$char_traits@D@_STL@@@_STL@@MAEHH@Z
_TEXT	SEGMENT PARA USE32 PUBLIC 'CODE'
_TEXT	ENDS
;	COMDAT ?pptr@?$basic_streambuf@DV?$char_traits@D@_STL@@@_STL@@IBEPADXZ
_TEXT	SEGMENT PARA USE32 PUBLIC 'CODE'
_TEXT	ENDS
;	COMDAT ?_FILE_O_next@_STL@@YAPADPBU_iobuf@@@Z
_TEXT	SEGMENT PARA USE32 PUBLIC 'CODE'
_TEXT	ENDS
;	COMDAT ?out@?$codecvt@DDH@_STL@@QBE?AW4result@codecvt_base@2@AAHPBD1AAPBDPAD3AAPAD@Z
_TEXT	SEGMENT PARA USE32 PUBLIC 'CODE'
_TEXT	ENDS
;	COMDAT ?_M_doit@?$_Noconv_output@V?$char_traits@D@_STL@@@_STL@@SA_NPAV?$basic_filebuf@DV?$char_traits@D@_STL@@@2@PAD1@Z
_TEXT	SEGMENT PARA USE32 PUBLIC 'CODE'
_TEXT	ENDS
;	COMDAT ?imbue@?$basic_filebuf@DV?$char_traits@D@_STL@@@_STL@@MAEXABVlocale@2@@Z
_TEXT	SEGMENT PARA USE32 PUBLIC 'CODE'
_TEXT	ENDS
;	COMDAT ??0?$basic_streambuf@DV?$char_traits@D@_STL@@@_STL@@IAE@XZ
_TEXT	SEGMENT PARA USE32 PUBLIC 'CODE'
_TEXT	ENDS
;	COMDAT ??_7?$basic_streambuf@DV?$char_traits@D@_STL@@@_STL@@6B@
CONST	SEGMENT DWORD USE32 PUBLIC 'CONST'
CONST	ENDS
;	COMDAT ??_R4?$basic_streambuf@DV?$char_traits@D@_STL@@@_STL@@6B@
rdata$r	SEGMENT DWORD USE32 PUBLIC 'CONST'
rdata$r	ENDS
;	COMDAT ??_R3?$basic_streambuf@DV?$char_traits@D@_STL@@@_STL@@8
rdata$r	SEGMENT DWORD USE32 PUBLIC 'CONST'
rdata$r	ENDS
;	COMDAT ??_R2?$basic_streambuf@DV?$char_traits@D@_STL@@@_STL@@8
rdata$r	SEGMENT DWORD USE32 PUBLIC 'CONST'
rdata$r	ENDS
;	COMDAT ??_G?$basic_streambuf@DV?$char_traits@D@_STL@@@_STL@@UAEPAXI@Z
_TEXT	SEGMENT PARA USE32 PUBLIC 'CODE'
_TEXT	ENDS
;	COMDAT ??0_STLP_mutex@_STL@@QAE@XZ
_TEXT	SEGMENT PARA USE32 PUBLIC 'CODE'
_TEXT	ENDS
;	COMDAT ?_M_initialize@_STLP_mutex_base@_STL@@QAEXXZ
_TEXT	SEGMENT PARA USE32 PUBLIC 'CODE'
_TEXT	ENDS
;	COMDAT ??1_STLP_mutex@_STL@@QAE@XZ
_TEXT	SEGMENT PARA USE32 PUBLIC 'CODE'
_TEXT	ENDS
;	COMDAT ?_M_destroy@_STLP_mutex_base@_STL@@QAEXXZ
_TEXT	SEGMENT PARA USE32 PUBLIC 'CODE'
_TEXT	ENDS
;	COMDAT ?_FILE_I_set@_STL@@YAXPAU_iobuf@@PAD11@Z
_TEXT	SEGMENT PARA USE32 PUBLIC 'CODE'
_TEXT	ENDS
;	COMDAT ?_FILE_O_set@_STL@@YAXPAU_iobuf@@PAD11@Z
_TEXT	SEGMENT PARA USE32 PUBLIC 'CODE'
_TEXT	ENDS
;	COMDAT ??_7?$basic_ostream@DV?$char_traits@D@_STL@@@_STL@@6B@
CONST	SEGMENT DWORD USE32 PUBLIC 'CONST'
CONST	ENDS
;	COMDAT ??_R4?$basic_ostream@DV?$char_traits@D@_STL@@@_STL@@6B@
rdata$r	SEGMENT DWORD USE32 PUBLIC 'CONST'
rdata$r	ENDS
;	COMDAT ??_R3?$basic_ostream@DV?$char_traits@D@_STL@@@_STL@@8
rdata$r	SEGMENT DWORD USE32 PUBLIC 'CONST'
rdata$r	ENDS
;	COMDAT ??_R2?$basic_ostream@DV?$char_traits@D@_STL@@@_STL@@8
rdata$r	SEGMENT DWORD USE32 PUBLIC 'CONST'
rdata$r	ENDS
;	COMDAT ??_G?$basic_ostream@DV?$char_traits@D@_STL@@@_STL@@UAEPAXI@Z
_TEXT	SEGMENT PARA USE32 PUBLIC 'CODE'
_TEXT	ENDS
;	COMDAT ??_D?$basic_ostream@DV?$char_traits@D@_STL@@@_STL@@QAEXXZ
_TEXT	SEGMENT PARA USE32 PUBLIC 'CODE'
_TEXT	ENDS
;	COMDAT ??_8?$basic_ostream@DV?$char_traits@D@_STL@@@_STL@@7B@
CONST	SEGMENT DWORD USE32 PUBLIC 'CONST'
CONST	ENDS
;	COMDAT ?_M_check_exception_mask@ios_base@_STL@@IAEXXZ
_TEXT	SEGMENT PARA USE32 PUBLIC 'CODE'
_TEXT	ENDS
;	COMDAT ?_M_clear_nothrow@ios_base@_STL@@IAEXH@Z
_TEXT	SEGMENT PARA USE32 PUBLIC 'CODE'
_TEXT	ENDS
;	COMDAT ?rdstate@ios_base@_STL@@QBEHXZ
_TEXT	SEGMENT PARA USE32 PUBLIC 'CODE'
_TEXT	ENDS
;	COMDAT ??1?$basic_filebuf@DV?$char_traits@D@_STL@@@_STL@@UAE@XZ
_TEXT	SEGMENT PARA USE32 PUBLIC 'CODE'
_TEXT	ENDS
;	COMDAT ??_7?$basic_ofstream@DV?$char_traits@D@_STL@@@_STL@@6B@
CONST	SEGMENT DWORD USE32 PUBLIC 'CONST'
CONST	ENDS
;	COMDAT ??1?$basic_ostream@DV?$char_traits@D@_STL@@@_STL@@UAE@XZ
_TEXT	SEGMENT PARA USE32 PUBLIC 'CODE'
_TEXT	ENDS
;	COMDAT ??_8?$basic_ofstream@DV?$char_traits@D@_STL@@@_STL@@7B@
CONST	SEGMENT DWORD USE32 PUBLIC 'CONST'
CONST	ENDS
;	COMDAT ?begin@?$list@V?$basic_string@DV?$char_traits@D@_STL@@V?$allocator@D@2@@_STL@@V?$allocator@V?$basic_string@DV?$char_traits@D@_STL@@V?$allocator@D@2@@_STL@@@2@@_STL@@QAE?AU?$_List_iterator@V?$basic_string@DV?$char_traits@D@_STL@@V?$allocator@D@2@@_STL@@U?$_Nonconst_traits@V?$basic_string@DV?$char_traits@D@_STL@@V?$allocator@D@2@@_STL@@@2@@2@XZ
_TEXT	SEGMENT PARA USE32 PUBLIC 'CODE'
_TEXT	ENDS
;	COMDAT ?begin@?$list@V?$basic_string@DV?$char_traits@D@_STL@@V?$allocator@D@2@@_STL@@V?$allocator@V?$basic_string@DV?$char_traits@D@_STL@@V?$allocator@D@2@@_STL@@@2@@_STL@@QBE?AU?$_List_iterator@V?$basic_string@DV?$char_traits@D@_STL@@V?$allocator@D@2@@_STL@@U?$_Const_traits@V?$basic_string@DV?$char_traits@D@_STL@@V?$allocator@D@2@@_STL@@@2@@2@XZ
_TEXT	SEGMENT PARA USE32 PUBLIC 'CODE'
_TEXT	ENDS
;	COMDAT ??0?$_List_iterator@V?$basic_string@DV?$char_traits@D@_STL@@V?$allocator@D@2@@_STL@@U?$_Const_traits@V?$basic_string@DV?$char_traits@D@_STL@@V?$allocator@D@2@@_STL@@@2@@_STL@@QAE@PAU?$_List_node@V?$basic_string@DV?$char_traits@D@_STL@@V?$allocator@D@2@@_STL@@@1@@Z
_TEXT	SEGMENT PARA USE32 PUBLIC 'CODE'
_TEXT	ENDS
;	COMDAT ?end@?$list@V?$basic_string@DV?$char_traits@D@_STL@@V?$allocator@D@2@@_STL@@V?$allocator@V?$basic_string@DV?$char_traits@D@_STL@@V?$allocator@D@2@@_STL@@@2@@_STL@@QBE?AU?$_List_iterator@V?$basic_string@DV?$char_traits@D@_STL@@V?$allocator@D@2@@_STL@@U?$_Const_traits@V?$basic_string@DV?$char_traits@D@_STL@@V?$allocator@D@2@@_STL@@@2@@2@XZ
_TEXT	SEGMENT PARA USE32 PUBLIC 'CODE'
_TEXT	ENDS
;	COMDAT ??1?$_List_base@V?$basic_string@DV?$char_traits@D@_STL@@V?$allocator@D@2@@_STL@@V?$allocator@V?$basic_string@DV?$char_traits@D@_STL@@V?$allocator@D@2@@_STL@@@2@@_STL@@QAE@XZ
_TEXT	SEGMENT PARA USE32 PUBLIC 'CODE'
_TEXT	ENDS
;	COMDAT ??1?$_STLP_alloc_proxy@PAU?$_List_node@V?$basic_string@DV?$char_traits@D@_STL@@V?$allocator@D@2@@_STL@@@_STL@@U12@V?$allocator@U?$_List_node@V?$basic_string@DV?$char_traits@D@_STL@@V?$allocator@D@2@@_STL@@@_STL@@@2@@_STL@@QAE@XZ
_TEXT	SEGMENT PARA USE32 PUBLIC 'CODE'
_TEXT	ENDS
;	COMDAT ??1?$allocator@U?$_List_node@V?$basic_string@DV?$char_traits@D@_STL@@V?$allocator@D@2@@_STL@@@_STL@@@_STL@@QAE@XZ
_TEXT	SEGMENT PARA USE32 PUBLIC 'CODE'
_TEXT	ENDS
;	COMDAT ?clear@?$_List_base@V?$basic_string@DV?$char_traits@D@_STL@@V?$allocator@D@2@@_STL@@V?$allocator@V?$basic_string@DV?$char_traits@D@_STL@@V?$allocator@D@2@@_STL@@@2@@_STL@@QAEXXZ
_TEXT	SEGMENT PARA USE32 PUBLIC 'CODE'
_TEXT	ENDS
;	COMDAT ??1?$allocator@V?$basic_string@DV?$char_traits@D@_STL@@V?$allocator@D@2@@_STL@@@_STL@@QAE@XZ
_TEXT	SEGMENT PARA USE32 PUBLIC 'CODE'
_TEXT	ENDS
;	COMDAT ??0?$_List_base@V?$basic_string@DV?$char_traits@D@_STL@@V?$allocator@D@2@@_STL@@V?$allocator@V?$basic_string@DV?$char_traits@D@_STL@@V?$allocator@D@2@@_STL@@@2@@_STL@@QAE@ABV?$allocator@V?$basic_string@DV?$char_traits@D@_STL@@V?$allocator@D@2@@_STL@@@1@@Z
_TEXT	SEGMENT PARA USE32 PUBLIC 'CODE'
_TEXT	ENDS
;	COMDAT ??0?$_STLP_alloc_proxy@PAU?$_List_node@V?$basic_string@DV?$char_traits@D@_STL@@V?$allocator@D@2@@_STL@@@_STL@@U12@V?$allocator@U?$_List_node@V?$basic_string@DV?$char_traits@D@_STL@@V?$allocator@D@2@@_STL@@@_STL@@@2@@_STL@@QAE@ABV?$allocator@U?$_List_node@V?$basic_string@DV?$char_traits@D@_STL@@V?$allocator@D@2@@_STL@@@_STL@@@1@PAU?$_List_node@V?$basic_string@DV?$char_traits@D@_STL@@V?$allocator@D@2@@_STL@@@1@@Z
_TEXT	SEGMENT PARA USE32 PUBLIC 'CODE'
_TEXT	ENDS
;	COMDAT ??0?$allocator@U?$_List_node@V?$basic_string@DV?$char_traits@D@_STL@@V?$allocator@D@2@@_STL@@@_STL@@@_STL@@QAE@ABV01@@Z
_TEXT	SEGMENT PARA USE32 PUBLIC 'CODE'
_TEXT	ENDS
;	COMDAT ??$?0V?$basic_string@DV?$char_traits@D@_STL@@V?$allocator@D@2@@_STL@@@?$allocator@U?$_List_node@V?$basic_string@DV?$char_traits@D@_STL@@V?$allocator@D@2@@_STL@@@_STL@@@_STL@@QAE@ABV?$allocator@V?$basic_string@DV?$char_traits@D@_STL@@V?$allocator@D@2@@_STL@@@1@@Z
_TEXT	SEGMENT PARA USE32 PUBLIC 'CODE'
_TEXT	ENDS
;	COMDAT ?setp@?$basic_streambuf@DV?$char_traits@D@_STL@@@_STL@@IAEXPAD0@Z
_TEXT	SEGMENT PARA USE32 PUBLIC 'CODE'
_TEXT	ENDS
;	COMDAT ?setg@?$basic_streambuf@DV?$char_traits@D@_STL@@@_STL@@IAEXPAD00@Z
_TEXT	SEGMENT PARA USE32 PUBLIC 'CODE'
_TEXT	ENDS
;	COMDAT ?__is_open@_Filebuf_base@_STL@@QBE_NXZ
_TEXT	SEGMENT PARA USE32 PUBLIC 'CODE'
_TEXT	ENDS
;	COMDAT ?allocate@?$__node_alloc@$00$0A@@_STL@@SAPAXI@Z
_TEXT	SEGMENT PARA USE32 PUBLIC 'CODE'
_TEXT	ENDS
;	COMDAT ?__stl_new@_STL@@YAPAXI@Z
_TEXT	SEGMENT PARA USE32 PUBLIC 'CODE'
_TEXT	ENDS
;	COMDAT ??1?$_STLP_alloc_proxy@PADDV?$allocator@D@_STL@@@_STL@@QAE@XZ
_TEXT	SEGMENT PARA USE32 PUBLIC 'CODE'
_TEXT	ENDS
;	COMDAT ??1?$allocator@D@_STL@@QAE@XZ
_TEXT	SEGMENT PARA USE32 PUBLIC 'CODE'
_TEXT	ENDS
;	COMDAT ?eof@?$__char_traits_base@DH@_STL@@SAHXZ
_TEXT	SEGMENT PARA USE32 PUBLIC 'CODE'
_TEXT	ENDS
;	COMDAT ??1?$list@V?$basic_string@DV?$char_traits@D@_STL@@V?$allocator@D@2@@_STL@@V?$allocator@V?$basic_string@DV?$char_traits@D@_STL@@V?$allocator@D@2@@_STL@@@2@@_STL@@QAE@XZ
_TEXT	SEGMENT PARA USE32 PUBLIC 'CODE'
_TEXT	ENDS
;	COMDAT ??0?$basic_string@DV?$char_traits@D@_STL@@V?$allocator@D@2@@_STL@@QAE@ABV01@@Z
_TEXT	SEGMENT PARA USE32 PUBLIC 'CODE'
_TEXT	ENDS
;	COMDAT ??1?$_String_base@DV?$allocator@D@_STL@@@_STL@@QAE@XZ
_TEXT	SEGMENT PARA USE32 PUBLIC 'CODE'
_TEXT	ENDS
;	COMDAT ??_7Throwable@@6B@
CONST	SEGMENT DWORD USE32 PUBLIC 'CONST'
CONST	ENDS
;	COMDAT ??_R4Throwable@@6B@
rdata$r	SEGMENT DWORD USE32 PUBLIC 'CONST'
rdata$r	ENDS
;	COMDAT ??_R3Throwable@@8
rdata$r	SEGMENT DWORD USE32 PUBLIC 'CONST'
rdata$r	ENDS
;	COMDAT ??_R2Throwable@@8
rdata$r	SEGMENT DWORD USE32 PUBLIC 'CONST'
rdata$r	ENDS
;	COMDAT ??_R1A@?0A@A@Throwable@@8
rdata$r	SEGMENT DWORD USE32 PUBLIC 'CONST'
rdata$r	ENDS
;	COMDAT ??_GThrowable@@UAEPAXI@Z
_TEXT	SEGMENT PARA USE32 PUBLIC 'CODE'
_TEXT	ENDS
;	COMDAT ?getName@Throwable@@UBE?AV?$basic_string@DV?$char_traits@D@_STL@@V?$allocator@D@2@@_STL@@XZ
_TEXT	SEGMENT PARA USE32 PUBLIC 'CODE'
_TEXT	ENDS
;	COMDAT ??0?$basic_string@DV?$char_traits@D@_STL@@V?$allocator@D@2@@_STL@@QAE@PBDABV?$allocator@D@1@@Z
_TEXT	SEGMENT PARA USE32 PUBLIC 'CODE'
_TEXT	ENDS
;	COMDAT ??0?$allocator@D@_STL@@QAE@XZ
_TEXT	SEGMENT PARA USE32 PUBLIC 'CODE'
_TEXT	ENDS
;	COMDAT ??_C@_09KCKHMJEM@Throwable?$AA@
CONST	SEGMENT DWORD USE32 PUBLIC 'CONST'
CONST	ENDS
;	COMDAT ?toString@Throwable@@UBE?AV?$basic_string@DV?$char_traits@D@_STL@@V?$allocator@D@2@@_STL@@XZ
_TEXT	SEGMENT PARA USE32 PUBLIC 'CODE'
_TEXT	ENDS
;	COMDAT ?getStackTrace@Throwable@@QBE?AV?$basic_string@DV?$char_traits@D@_STL@@V?$allocator@D@2@@_STL@@XZ
_TEXT	SEGMENT PARA USE32 PUBLIC 'CODE'
_TEXT	ENDS
;	COMDAT ??E?$_List_iterator@V?$basic_string@DV?$char_traits@D@_STL@@V?$allocator@D@2@@_STL@@U?$_Const_traits@V?$basic_string@DV?$char_traits@D@_STL@@V?$allocator@D@2@@_STL@@@2@@_STL@@QAE?AU01@H@Z
_TEXT	SEGMENT PARA USE32 PUBLIC 'CODE'
_TEXT	ENDS
;	COMDAT ??_C@_01CLKCMJKC@?5?$AA@
CONST	SEGMENT DWORD USE32 PUBLIC 'CONST'
CONST	ENDS
;	COMDAT ??_7Error@@6B@
CONST	SEGMENT DWORD USE32 PUBLIC 'CONST'
CONST	ENDS
;	COMDAT ??_R4Error@@6B@
rdata$r	SEGMENT DWORD USE32 PUBLIC 'CONST'
rdata$r	ENDS
;	COMDAT ??_R3Error@@8
rdata$r	SEGMENT DWORD USE32 PUBLIC 'CONST'
rdata$r	ENDS
;	COMDAT ??_R2Error@@8
rdata$r	SEGMENT DWORD USE32 PUBLIC 'CONST'
rdata$r	ENDS
;	COMDAT ??_R1A@?0A@A@Error@@8
rdata$r	SEGMENT DWORD USE32 PUBLIC 'CONST'
rdata$r	ENDS
;	COMDAT ??_GError@@UAEPAXI@Z
_TEXT	SEGMENT PARA USE32 PUBLIC 'CODE'
_TEXT	ENDS
;	COMDAT ?getName@Error@@UBE?AV?$basic_string@DV?$char_traits@D@_STL@@V?$allocator@D@2@@_STL@@XZ
_TEXT	SEGMENT PARA USE32 PUBLIC 'CODE'
_TEXT	ENDS
;	COMDAT ??_C@_05NAOIJFC@Error?$AA@
CONST	SEGMENT DWORD USE32 PUBLIC 'CONST'
CONST	ENDS
;	COMDAT ??1Throwable@@UAE@XZ
_TEXT	SEGMENT PARA USE32 PUBLIC 'CODE'
_TEXT	ENDS
;	COMDAT ??_7AssertionError@@6B@
CONST	SEGMENT DWORD USE32 PUBLIC 'CONST'
CONST	ENDS
;	COMDAT ??_R4AssertionError@@6B@
rdata$r	SEGMENT DWORD USE32 PUBLIC 'CONST'
rdata$r	ENDS
;	COMDAT ??_R3AssertionError@@8
rdata$r	SEGMENT DWORD USE32 PUBLIC 'CONST'
rdata$r	ENDS
;	COMDAT ??_R2AssertionError@@8
rdata$r	SEGMENT DWORD USE32 PUBLIC 'CONST'
rdata$r	ENDS
;	COMDAT ??_R1A@?0A@A@AssertionError@@8
rdata$r	SEGMENT DWORD USE32 PUBLIC 'CONST'
rdata$r	ENDS
;	COMDAT ??_GAssertionError@@UAEPAXI@Z
_TEXT	SEGMENT PARA USE32 PUBLIC 'CODE'
_TEXT	ENDS
;	COMDAT ?getName@AssertionError@@UBE?AV?$basic_string@DV?$char_traits@D@_STL@@V?$allocator@D@2@@_STL@@XZ
_TEXT	SEGMENT PARA USE32 PUBLIC 'CODE'
_TEXT	ENDS
;	COMDAT ??_C@_0P@ECLAGKMP@AssertionError?$AA@
CONST	SEGMENT DWORD USE32 PUBLIC 'CONST'
CONST	ENDS
;	COMDAT ??1Error@@UAE@XZ
_TEXT	SEGMENT PARA USE32 PUBLIC 'CODE'
_TEXT	ENDS
;	COMDAT ??1?$basic_ios@DV?$char_traits@D@_STL@@@_STL@@UAE@XZ
_TEXT	SEGMENT PARA USE32 PUBLIC 'CODE'
_TEXT	ENDS
;	COMDAT __CTA3?AVAssertionError@@
xdata$x	SEGMENT DWORD USE32 PUBLIC 'CONST'
xdata$x	ENDS
;	COMDAT __CT??_R0?AVThrowable@@@8??0Throwable@@QAE@ABV0@@Z20
xdata$x	SEGMENT DWORD USE32 PUBLIC 'CONST'
xdata$x	ENDS
;	COMDAT __CT??_R0?AVError@@@8??0Error@@QAE@ABV0@@Z20
xdata$x	SEGMENT DWORD USE32 PUBLIC 'CONST'
xdata$x	ENDS
;	COMDAT __CT??_R0?AVAssertionError@@@8??0AssertionError@@QAE@ABV0@@Z20
xdata$x	SEGMENT DWORD USE32 PUBLIC 'CONST'
xdata$x	ENDS
;	COMDAT ??_R0?AVThrowable@@@8
_DATA	SEGMENT DWORD USE32 PUBLIC 'DATA'
_DATA	ENDS
;	COMDAT ??_R0?AVError@@@8
_DATA	SEGMENT DWORD USE32 PUBLIC 'DATA'
_DATA	ENDS
;	COMDAT ??_R0?AVAssertionError@@@8
_DATA	SEGMENT DWORD USE32 PUBLIC 'DATA'
_DATA	ENDS
;	COMDAT __TI3?AVAssertionError@@
xdata$x	SEGMENT DWORD USE32 PUBLIC 'CONST'
xdata$x	ENDS
;	COMDAT ??1AssertionError@@UAE@XZ
_TEXT	SEGMENT PARA USE32 PUBLIC 'CODE'
_TEXT	ENDS
;	COMDAT ??0AssertionError@@QAE@V?$basic_string@DV?$char_traits@D@_STL@@V?$allocator@D@2@@_STL@@@Z
_TEXT	SEGMENT PARA USE32 PUBLIC 'CODE'
_TEXT	ENDS
;	COMDAT ??0Error@@QAE@ABV?$basic_string@DV?$char_traits@D@_STL@@V?$allocator@D@2@@_STL@@@Z
_TEXT	SEGMENT PARA USE32 PUBLIC 'CODE'
_TEXT	ENDS
;	COMDAT ??0Throwable@@QAE@V?$basic_string@DV?$char_traits@D@_STL@@V?$allocator@D@2@@_STL@@@Z
_TEXT	SEGMENT PARA USE32 PUBLIC 'CODE'
_TEXT	ENDS
;	COMDAT ??0?$list@V?$basic_string@DV?$char_traits@D@_STL@@V?$allocator@D@2@@_STL@@V?$allocator@V?$basic_string@DV?$char_traits@D@_STL@@V?$allocator@D@2@@_STL@@@2@@_STL@@QAE@ABV?$allocator@V?$basic_string@DV?$char_traits@D@_STL@@V?$allocator@D@2@@_STL@@@1@@Z
_TEXT	SEGMENT PARA USE32 PUBLIC 'CODE'
_TEXT	ENDS
;	COMDAT ??0?$allocator@V?$basic_string@DV?$char_traits@D@_STL@@V?$allocator@D@2@@_STL@@@_STL@@QAE@XZ
_TEXT	SEGMENT PARA USE32 PUBLIC 'CODE'
_TEXT	ENDS
;	COMDAT ??1?$basic_string@DV?$char_traits@D@_STL@@V?$allocator@D@2@@_STL@@QAE@XZ
_TEXT	SEGMENT PARA USE32 PUBLIC 'CODE'
_TEXT	ENDS
;	COMDAT ??_C@_03MCPBMLDJ@?5?3?5?$AA@
CONST	SEGMENT DWORD USE32 PUBLIC 'CONST'
CONST	ENDS
sxdata	SEGMENT DWORD USE32 'SXDATA'
sxdata	ENDS
FLAT	GROUP _DATA, CONST, _BSS
	ASSUME	CS: FLAT, DS: FLAT, SS: FLAT
endif

INCLUDELIB LIBCMT
INCLUDELIB OLDNAMES

PUBLIC	?eq_int_type@?$__char_traits_base@DH@_STL@@SA_NABH0@Z ; _STL::__char_traits_base<char,int>::eq_int_type
; Function compile flags: /Ogsy
; File c:\stlport-4.6.1\stlport\stl\char_traits.h
;	COMDAT ?eq_int_type@?$__char_traits_base@DH@_STL@@SA_NABH0@Z
_TEXT	SEGMENT
___c1$ = 8						; size = 4
___c2$ = 12						; size = 4
?eq_int_type@?$__char_traits_base@DH@_STL@@SA_NABH0@Z PROC NEAR ; _STL::__char_traits_base<char,int>::eq_int_type, COMDAT

; 193  :     return __c1 == __c2;

  00000	8b 44 24 04	 mov	 eax, DWORD PTR ___c1$[esp-4]
  00004	8b 00		 mov	 eax, DWORD PTR [eax]
  00006	8b 4c 24 08	 mov	 ecx, DWORD PTR ___c2$[esp-4]
  0000a	2b 01		 sub	 eax, DWORD PTR [ecx]
  0000c	f7 d8		 neg	 eax
  0000e	1b c0		 sbb	 eax, eax
  00010	40		 inc	 eax

; 194  :   }

  00011	c3		 ret	 0
?eq_int_type@?$__char_traits_base@DH@_STL@@SA_NABH0@Z ENDP ; _STL::__char_traits_base<char,int>::eq_int_type
_TEXT	ENDS
PUBLIC	??2@YAPAXIPAX@Z					; operator new
; Function compile flags: /Ogsy
; File c:\program files\microsoft visual studio .net 2003\vc7\include\new
;	COMDAT ??2@YAPAXIPAX@Z
_TEXT	SEGMENT
___formal$ = 8						; size = 4
__Where$ = 12						; size = 4
??2@YAPAXIPAX@Z PROC NEAR				; operator new, COMDAT

; 64   : 	return (_Where);

  00000	8b 44 24 08	 mov	 eax, DWORD PTR __Where$[esp-4]

; 65   : 	}

  00004	c3		 ret	 0
??2@YAPAXIPAX@Z ENDP					; operator new
_TEXT	ENDS
PUBLIC	??3@YAXPAX0@Z					; operator delete
; Function compile flags: /Ogsy
;	COMDAT ??3@YAXPAX0@Z
_TEXT	SEGMENT
___formal$ = 8						; size = 4
___formal$ = 12						; size = 4
??3@YAXPAX0@Z PROC NEAR					; operator delete, COMDAT

; 69   : 	}

  00000	c3		 ret	 0
??3@YAXPAX0@Z ENDP					; operator delete
_TEXT	ENDS
PUBLIC	?__stl_new@_STL@@YAPAXI@Z			; _STL::__stl_new
EXTRN	??2@YAPAXI@Z:NEAR				; operator new
; Function compile flags: /Ogsy
; File c:\stlport-4.6.1\stlport\stl\_new.h
;	COMDAT ?__stl_new@_STL@@YAPAXI@Z
_TEXT	SEGMENT
___n$ = 8						; size = 4
?__stl_new@_STL@@YAPAXI@Z PROC NEAR			; _STL::__stl_new, COMDAT

; 86   : inline void*  _STLP_CALL __stl_new(size_t __n)   { _STLP_CHECK_NULL_ALLOC(::operator _STLP_NEW(__n)); }

  00000	e9 00 00 00 00	 jmp	 ??2@YAPAXI@Z		; operator new
?__stl_new@_STL@@YAPAXI@Z ENDP				; _STL::__stl_new
_TEXT	ENDS
PUBLIC	?c_str@?$basic_string@DV?$char_traits@D@_STL@@V?$allocator@D@2@@_STL@@QBEPBDXZ ; _STL::basic_string<char,_STL::char_traits<char>,_STL::allocator<char> >::c_str
; Function compile flags: /Ogsy
; File c:\stlport-4.6.1\stlport\stl\_string.h
;	COMDAT ?c_str@?$basic_string@DV?$char_traits@D@_STL@@V?$allocator@D@2@@_STL@@QBEPBDXZ
_TEXT	SEGMENT
?c_str@?$basic_string@DV?$char_traits@D@_STL@@V?$allocator@D@2@@_STL@@QBEPBDXZ PROC NEAR ; _STL::basic_string<char,_STL::char_traits<char>,_STL::allocator<char> >::c_str, COMDAT
; _this$ = ecx

; 1065 :   const _CharT* c_str() const { return this->_M_start; }

  00000	8b 01		 mov	 eax, DWORD PTR [ecx]
  00002	c3		 ret	 0
?c_str@?$basic_string@DV?$char_traits@D@_STL@@V?$allocator@D@2@@_STL@@QBEPBDXZ ENDP ; _STL::basic_string<char,_STL::char_traits<char>,_STL::allocator<char> >::c_str
_TEXT	ENDS
PUBLIC	?__stl_delete@_STL@@YAXPAX@Z			; _STL::__stl_delete
EXTRN	??3@YAXPAX@Z:NEAR				; operator delete
; Function compile flags: /Ogsy
; File c:\stlport-4.6.1\stlport\stl\_new.h
;	COMDAT ?__stl_delete@_STL@@YAXPAX@Z
_TEXT	SEGMENT
___p$ = 8						; size = 4
?__stl_delete@_STL@@YAXPAX@Z PROC NEAR			; _STL::__stl_delete, COMDAT

; 87   : inline void   _STLP_CALL __stl_delete(void* __p) { ::operator delete(__p); }

  00000	e9 00 00 00 00	 jmp	 ??3@YAXPAX@Z		; operator delete
?__stl_delete@_STL@@YAXPAX@Z ENDP			; _STL::__stl_delete
_TEXT	ENDS
PUBLIC	?_M_initialize@_STLP_mutex_base@_STL@@QAEXXZ	; _STL::_STLP_mutex_base::_M_initialize
; Function compile flags: /Ogsy
; File c:\stlport-4.6.1\stlport\stl\_threads.h
;	COMDAT ?_M_initialize@_STLP_mutex_base@_STL@@QAEXXZ
_TEXT	SEGMENT
?_M_initialize@_STLP_mutex_base@_STL@@QAEXXZ PROC NEAR	; _STL::_STLP_mutex_base::_M_initialize, COMDAT
; _this$ = ecx

; 321  :   inline void _M_initialize() { _M_lock=0; }

  00000	c7 01 00 00 00
	00		 mov	 DWORD PTR [ecx], 0
  00006	c3		 ret	 0
?_M_initialize@_STLP_mutex_base@_STL@@QAEXXZ ENDP	; _STL::_STLP_mutex_base::_M_initialize
_TEXT	ENDS
PUBLIC	?_M_destroy@_STLP_mutex_base@_STL@@QAEXXZ	; _STL::_STLP_mutex_base::_M_destroy
; Function compile flags: /Ogsy
;	COMDAT ?_M_destroy@_STLP_mutex_base@_STL@@QAEXXZ
_TEXT	SEGMENT
?_M_destroy@_STLP_mutex_base@_STL@@QAEXXZ PROC NEAR	; _STL::_STLP_mutex_base::_M_destroy, COMDAT
; _this$ = ecx

; 322  :   inline void _M_destroy() {}

  00000	c3		 ret	 0
?_M_destroy@_STLP_mutex_base@_STL@@QAEXXZ ENDP		; _STL::_STLP_mutex_base::_M_destroy
_TEXT	ENDS
PUBLIC	??0_STLP_mutex@_STL@@QAE@XZ			; _STL::_STLP_mutex::_STLP_mutex
; Function compile flags: /Ogsy
;	COMDAT ??0_STLP_mutex@_STL@@QAE@XZ
_TEXT	SEGMENT
??0_STLP_mutex@_STL@@QAE@XZ PROC NEAR			; _STL::_STLP_mutex::_STLP_mutex, COMDAT
; _this$ = ecx

; 467  :     inline _STLP_mutex () { _M_initialize(); }

  00000	8b c1		 mov	 eax, ecx
  00002	c7 00 00 00 00
	00		 mov	 DWORD PTR [eax], 0
  00008	c3		 ret	 0
??0_STLP_mutex@_STL@@QAE@XZ ENDP			; _STL::_STLP_mutex::_STLP_mutex
_TEXT	ENDS
PUBLIC	??1_STLP_mutex@_STL@@QAE@XZ			; _STL::_STLP_mutex::~_STLP_mutex
; Function compile flags: /Ogsy
;	COMDAT ??1_STLP_mutex@_STL@@QAE@XZ
_TEXT	SEGMENT
??1_STLP_mutex@_STL@@QAE@XZ PROC NEAR			; _STL::_STLP_mutex::~_STLP_mutex, COMDAT
; _this$ = ecx

; 468  :     inline ~_STLP_mutex () { _M_destroy(); }

  00000	c3		 ret	 0
??1_STLP_mutex@_STL@@QAE@XZ ENDP			; _STL::_STLP_mutex::~_STLP_mutex
_TEXT	ENDS
PUBLIC	??6?$basic_ostream@DV?$char_traits@D@_STL@@@_STL@@QAEAAV01@P6AAAV01@AAV01@@Z@Z ; _STL::basic_ostream<char,_STL::char_traits<char> >::operator<<
; Function compile flags: /Ogsy
; File c:\stlport-4.6.1\stlport\stl\_ostream.h
;	COMDAT ??6?$basic_ostream@DV?$char_traits@D@_STL@@@_STL@@QAEAAV01@P6AAAV01@AAV01@@Z@Z
_TEXT	SEGMENT
___f$ = 8						; size = 4
??6?$basic_ostream@DV?$char_traits@D@_STL@@@_STL@@QAEAAV01@P6AAAV01@AAV01@@Z@Z PROC NEAR ; _STL::basic_ostream<char,_STL::char_traits<char> >::operator<<, COMDAT
; _this$ = ecx

; 70   :   _Self& operator<< (__ostream_fn __f) { return __f(*this); }

  00000	51		 push	 ecx
  00001	ff 54 24 08	 call	 DWORD PTR ___f$[esp]
  00005	59		 pop	 ecx
  00006	c2 04 00	 ret	 4
??6?$basic_ostream@DV?$char_traits@D@_STL@@@_STL@@QAEAAV01@P6AAAV01@AAV01@@Z@Z ENDP ; _STL::basic_ostream<char,_STL::char_traits<char> >::operator<<
_TEXT	ENDS
PUBLIC	?_Destroy@_STL@@YAXPAD0@Z			; _STL::_Destroy
; Function compile flags: /Ogsy
; File c:\stlport-4.6.1\stlport\stl\_construct.h
;	COMDAT ?_Destroy@_STL@@YAXPAD0@Z
_TEXT	SEGMENT
___formal$ = 8						; size = 4
___formal$ = 12						; size = 4
?_Destroy@_STL@@YAXPAD0@Z PROC NEAR			; _STL::_Destroy, COMDAT

; 142  : inline void _Destroy(char*, char*) {}

  00000	c3		 ret	 0
?_Destroy@_STL@@YAXPAD0@Z ENDP				; _STL::_Destroy
_TEXT	ENDS
PUBLIC	?__copy_trivial@_STL@@YAPAXPBX0PAX@Z		; _STL::__copy_trivial
EXTRN	_memmove:NEAR
; Function compile flags: /Ogsy
; File c:\stlport-4.6.1\stlport\stl\_algobase.h
;	COMDAT ?__copy_trivial@_STL@@YAPAXPBX0PAX@Z
_TEXT	SEGMENT
___first$ = 8						; size = 4
___last$ = 12						; size = 4
___result$ = 16						; size = 4
?__copy_trivial@_STL@@YAPAXPBX0PAX@Z PROC NEAR		; _STL::__copy_trivial, COMDAT

; 147  : __copy_trivial(const void* __first, const void* __last, void* __result) {

  00000	55		 push	 ebp
  00001	8b ec		 mov	 ebp, esp
  00003	56		 push	 esi

; 148  :   return (__last == __first) ? __result : 
; 149  :     ((char*)memmove(__result, __first, ((const char*)__last - (const char*)__first))) + 
; 150  :     ((const char*)__last - (const char*)__first);

  00004	8b 75 0c	 mov	 esi, DWORD PTR ___last$[ebp]
  00007	3b 75 08	 cmp	 esi, DWORD PTR ___first$[ebp]
  0000a	75 05		 jne	 SHORT $L100670
  0000c	8b 45 10	 mov	 eax, DWORD PTR ___result$[ebp]
  0000f	eb 14		 jmp	 SHORT $L100671
$L100670:
  00011	2b 75 08	 sub	 esi, DWORD PTR ___first$[ebp]
  00014	56		 push	 esi
  00015	ff 75 08	 push	 DWORD PTR ___first$[ebp]
  00018	ff 75 10	 push	 DWORD PTR ___result$[ebp]
  0001b	e8 00 00 00 00	 call	 _memmove
  00020	83 c4 0c	 add	 esp, 12			; 0000000cH
  00023	03 c6		 add	 eax, esi
$L100671:
  00025	5e		 pop	 esi

; 151  : }

  00026	5d		 pop	 ebp
  00027	c3		 ret	 0
?__copy_trivial@_STL@@YAPAXPBX0PAX@Z ENDP		; _STL::__copy_trivial
_TEXT	ENDS
PUBLIC	?_M_terminate_string_aux@?$basic_string@DV?$char_traits@D@_STL@@V?$allocator@D@2@@_STL@@AAEXABU__true_type@2@@Z ; _STL::basic_string<char,_STL::char_traits<char>,_STL::allocator<char> >::_M_terminate_string_aux
; Function compile flags: /Ogsy
; File c:\stlport-4.6.1\stlport\stl\_string.h
;	COMDAT ?_M_terminate_string_aux@?$basic_string@DV?$char_traits@D@_STL@@V?$allocator@D@2@@_STL@@AAEXABU__true_type@2@@Z
_TEXT	SEGMENT
___formal$ = 8						; size = 4
?_M_terminate_string_aux@?$basic_string@DV?$char_traits@D@_STL@@V?$allocator@D@2@@_STL@@AAEXABU__true_type@2@@Z PROC NEAR ; _STL::basic_string<char,_STL::char_traits<char>,_STL::allocator<char> >::_M_terminate_string_aux, COMDAT
; _this$ = ecx

; 351  :     *(this->_M_finish)=0;

  00000	8b 41 04	 mov	 eax, DWORD PTR [ecx+4]
  00003	c6 00 00	 mov	 BYTE PTR [eax], 0

; 352  :   }

  00006	c2 04 00	 ret	 4
?_M_terminate_string_aux@?$basic_string@DV?$char_traits@D@_STL@@V?$allocator@D@2@@_STL@@AAEXABU__true_type@2@@Z ENDP ; _STL::basic_string<char,_STL::char_traits<char>,_STL::allocator<char> >::_M_terminate_string_aux
_TEXT	ENDS
PUBLIC	??0?$allocator@D@_STL@@QAE@ABV01@@Z		; _STL::allocator<char>::allocator<char>
; Function compile flags: /Ogsy
; File c:\stlport-4.6.1\stlport\stl\_alloc.h
;	COMDAT ??0?$allocator@D@_STL@@QAE@ABV01@@Z
_TEXT	SEGMENT
___formal$ = 8						; size = 4
??0?$allocator@D@_STL@@QAE@ABV01@@Z PROC NEAR		; _STL::allocator<char>::allocator<char>, COMDAT
; _this$ = ecx

; 349  :   allocator(const allocator<_Tp>&) _STLP_NOTHROW {}

  00000	8b c1		 mov	 eax, ecx
  00002	c2 04 00	 ret	 4
??0?$allocator@D@_STL@@QAE@ABV01@@Z ENDP		; _STL::allocator<char>::allocator<char>
_TEXT	ENDS
PUBLIC	?open@?$basic_filebuf@DV?$char_traits@D@_STL@@@_STL@@QAEPAV12@PBDH@Z ; _STL::basic_filebuf<char,_STL::char_traits<char> >::open
EXTRN	?_M_open@_Filebuf_base@_STL@@QAE_NPBDH@Z:NEAR	; _STL::_Filebuf_base::_M_open
; Function compile flags: /Ogsy
; File c:\stlport-4.6.1\stlport\stl\_fstream.h
;	COMDAT ?open@?$basic_filebuf@DV?$char_traits@D@_STL@@@_STL@@QAEPAV12@PBDH@Z
_TEXT	SEGMENT
___s$ = 8						; size = 4
___m$ = 12						; size = 4
?open@?$basic_filebuf@DV?$char_traits@D@_STL@@@_STL@@QAEPAV12@PBDH@Z PROC NEAR ; _STL::basic_filebuf<char,_STL::char_traits<char> >::open, COMDAT
; _this$ = ecx

; 200  :   _Self* open(const char* __s, ios_base::openmode __m) {

  00000	56		 push	 esi

; 201  :     return _M_base._M_open(__s, __m) ? this : 0;

  00001	ff 74 24 0c	 push	 DWORD PTR ___m$[esp]
  00005	8b f1		 mov	 esi, ecx
  00007	ff 74 24 0c	 push	 DWORD PTR ___s$[esp+4]
  0000b	8d 4e 54	 lea	 ecx, DWORD PTR [esi+84]
  0000e	e8 00 00 00 00	 call	 ?_M_open@_Filebuf_base@_STL@@QAE_NPBDH@Z ; _STL::_Filebuf_base::_M_open
  00013	f6 d8		 neg	 al
  00015	1b c0		 sbb	 eax, eax
  00017	23 c6		 and	 eax, esi
  00019	5e		 pop	 esi

; 202  :   }

  0001a	c2 08 00	 ret	 8
?open@?$basic_filebuf@DV?$char_traits@D@_STL@@@_STL@@QAEPAV12@PBDH@Z ENDP ; _STL::basic_filebuf<char,_STL::char_traits<char> >::open
_TEXT	ENDS
PUBLIC	?rdbuf@?$basic_ofstream@DV?$char_traits@D@_STL@@@_STL@@QBEPAV?$basic_filebuf@DV?$char_traits@D@_STL@@@2@XZ ; _STL::basic_ofstream<char,_STL::char_traits<char> >::rdbuf
; Function compile flags: /Ogsy
;	COMDAT ?rdbuf@?$basic_ofstream@DV?$char_traits@D@_STL@@@_STL@@QBEPAV?$basic_filebuf@DV?$char_traits@D@_STL@@@2@XZ
_TEXT	SEGMENT
?rdbuf@?$basic_ofstream@DV?$char_traits@D@_STL@@@_STL@@QBEPAV?$basic_filebuf@DV?$char_traits@D@_STL@@@2@XZ PROC NEAR ; _STL::basic_ofstream<char,_STL::char_traits<char> >::rdbuf, COMDAT
; _this$ = ecx

; 620  :     { return __CONST_CAST(_Buf*,&_M_buf); } 

  00000	8d 41 04	 lea	 eax, DWORD PTR [ecx+4]
  00003	c3		 ret	 0
?rdbuf@?$basic_ofstream@DV?$char_traits@D@_STL@@@_STL@@QBEPAV?$basic_filebuf@DV?$char_traits@D@_STL@@@2@XZ ENDP ; _STL::basic_ofstream<char,_STL::char_traits<char> >::rdbuf
_TEXT	ENDS
PUBLIC	?rdbuf@?$basic_ios@DV?$char_traits@D@_STL@@@_STL@@QBEPAV?$basic_streambuf@DV?$char_traits@D@_STL@@@2@XZ ; _STL::basic_ios<char,_STL::char_traits<char> >::rdbuf
; Function compile flags: /Ogsy
; File c:\stlport-4.6.1\stlport\stl\_ios.h
;	COMDAT ?rdbuf@?$basic_ios@DV?$char_traits@D@_STL@@@_STL@@QBEPAV?$basic_streambuf@DV?$char_traits@D@_STL@@@2@XZ
_TEXT	SEGMENT
?rdbuf@?$basic_ios@DV?$char_traits@D@_STL@@@_STL@@QBEPAV?$basic_streambuf@DV?$char_traits@D@_STL@@@2@XZ PROC NEAR ; _STL::basic_ios<char,_STL::char_traits<char> >::rdbuf, COMDAT
; _this$ = ecx

; 72   :     { return _M_streambuf; }

  00000	8b 41 58	 mov	 eax, DWORD PTR [ecx+88]
  00003	c3		 ret	 0
?rdbuf@?$basic_ios@DV?$char_traits@D@_STL@@@_STL@@QBEPAV?$basic_streambuf@DV?$char_traits@D@_STL@@@2@XZ ENDP ; _STL::basic_ios<char,_STL::char_traits<char> >::rdbuf
_TEXT	ENDS
PUBLIC	?to_int_type@?$char_traits@D@_STL@@SAHABD@Z	; _STL::char_traits<char>::to_int_type
; Function compile flags: /Ogsy
; File c:\stlport-4.6.1\stlport\stl\char_traits.h
;	COMDAT ?to_int_type@?$char_traits@D@_STL@@SAHABD@Z
_TEXT	SEGMENT
___c$ = 8						; size = 4
?to_int_type@?$char_traits@D@_STL@@SAHABD@Z PROC NEAR	; _STL::char_traits<char>::to_int_type, COMDAT

; 232  :     return (unsigned char)__c;

  00000	8b 44 24 04	 mov	 eax, DWORD PTR ___c$[esp-4]
  00004	0f b6 00	 movzx	 eax, BYTE PTR [eax]

; 233  :   }

  00007	c3		 ret	 0
?to_int_type@?$char_traits@D@_STL@@SAHABD@Z ENDP	; _STL::char_traits<char>::to_int_type
_TEXT	ENDS
PUBLIC	?length@?$char_traits@D@_STL@@SAIPBD@Z		; _STL::char_traits<char>::length
EXTRN	_strlen:NEAR
; Function compile flags: /Ogsy
;	COMDAT ?length@?$char_traits@D@_STL@@SAIPBD@Z
_TEXT	SEGMENT
___s$ = 8						; size = 4
?length@?$char_traits@D@_STL@@SAIPBD@Z PROC NEAR	; _STL::char_traits<char>::length, COMDAT

; 238  :   static size_t _STLP_CALL length(const char* __s) { return strlen(__s); }

  00000	e9 00 00 00 00	 jmp	 _strlen
?length@?$char_traits@D@_STL@@SAIPBD@Z ENDP		; _STL::char_traits<char>::length
_TEXT	ENDS
PUBLIC	?assign@?$char_traits@D@_STL@@SAXAADABD@Z	; _STL::char_traits<char>::assign
; Function compile flags: /Ogsy
;	COMDAT ?assign@?$char_traits@D@_STL@@SAXAADABD@Z
_TEXT	SEGMENT
___c1$ = 8						; size = 4
___c2$ = 12						; size = 4
?assign@?$char_traits@D@_STL@@SAXAADABD@Z PROC NEAR	; _STL::char_traits<char>::assign, COMDAT

; 240  :   static void _STLP_CALL assign(char& __c1, const char& __c2) { __c1 = __c2; }

  00000	8b 44 24 08	 mov	 eax, DWORD PTR ___c2$[esp-4]
  00004	8a 00		 mov	 al, BYTE PTR [eax]
  00006	8b 4c 24 04	 mov	 ecx, DWORD PTR ___c1$[esp-4]
  0000a	88 01		 mov	 BYTE PTR [ecx], al
  0000c	c3		 ret	 0
?assign@?$char_traits@D@_STL@@SAXAADABD@Z ENDP		; _STL::char_traits<char>::assign
_TEXT	ENDS
PUBLIC	?_M_exit_input_mode@?$basic_filebuf@DV?$char_traits@D@_STL@@@_STL@@AAEXXZ ; _STL::basic_filebuf<char,_STL::char_traits<char> >::_M_exit_input_mode
EXTRN	?_M_unmap@_Filebuf_base@_STL@@QAEXPAXJ@Z:NEAR	; _STL::_Filebuf_base::_M_unmap
; Function compile flags: /Ogsy
; File c:\stlport-4.6.1\stlport\stl\_fstream.c
;	COMDAT ?_M_exit_input_mode@?$basic_filebuf@DV?$char_traits@D@_STL@@@_STL@@AAEXXZ
_TEXT	SEGMENT
?_M_exit_input_mode@?$basic_filebuf@DV?$char_traits@D@_STL@@@_STL@@AAEXXZ PROC NEAR ; _STL::basic_filebuf<char,_STL::char_traits<char> >::_M_exit_input_mode, COMDAT
; _this$ = ecx

; 119  : {

  00000	56		 push	 esi
  00001	8b f1		 mov	 esi, ecx

; 120  :    if (_M_mmap_base != 0)

  00003	8b 86 8c 00 00
	00		 mov	 eax, DWORD PTR [esi+140]
  00009	85 c0		 test	 eax, eax
  0000b	74 0f		 je	 SHORT $L99745

; 121  :      _M_base._M_unmap(_M_mmap_base, _M_mmap_len); 

  0000d	ff b6 90 00 00
	00		 push	 DWORD PTR [esi+144]
  00013	8d 4e 54	 lea	 ecx, DWORD PTR [esi+84]
  00016	50		 push	 eax
  00017	e8 00 00 00 00	 call	 ?_M_unmap@_Filebuf_base@_STL@@QAEXPAXJ@Z ; _STL::_Filebuf_base::_M_unmap
$L99745:

; 122  :    _M_in_input_mode = false;
; 123  :    _M_mmap_base = 0;

  0001c	83 a6 8c 00 00
	00 00		 and	 DWORD PTR [esi+140], 0
  00023	c6 46 67 00	 mov	 BYTE PTR [esi+103], 0
  00027	5e		 pop	 esi

; 124  : }

  00028	c3		 ret	 0
?_M_exit_input_mode@?$basic_filebuf@DV?$char_traits@D@_STL@@@_STL@@AAEXXZ ENDP ; _STL::basic_filebuf<char,_STL::char_traits<char> >::_M_exit_input_mode
_TEXT	ENDS
PUBLIC	?widen@?$ctype@D@_STL@@QBEDD@Z			; _STL::ctype<char>::widen
; Function compile flags: /Ogsy
; File c:\stlport-4.6.1\stlport\stl\_ctype.h
;	COMDAT ?widen@?$ctype@D@_STL@@QBEDD@Z
_TEXT	SEGMENT
___c$ = 8						; size = 1
?widen@?$ctype@D@_STL@@QBEDD@Z PROC NEAR		; _STL::ctype<char>::widen, COMDAT
; _this$ = ecx

; 102  :   char        widen(char __c) const { return do_widen(__c); }

  00000	8b 01		 mov	 eax, DWORD PTR [ecx]
  00002	ff 60 18	 jmp	 DWORD PTR [eax+24]
?widen@?$ctype@D@_STL@@QBEDD@Z ENDP			; _STL::ctype<char>::widen
_TEXT	ENDS
PUBLIC	?_M_deallocate_buffers@?$basic_filebuf@DV?$char_traits@D@_STL@@@_STL@@AAEXXZ ; _STL::basic_filebuf<char,_STL::char_traits<char> >::_M_deallocate_buffers
EXTRN	_free:NEAR
; Function compile flags: /Ogsy
; File c:\stlport-4.6.1\stlport\stl\_fstream.c
;	COMDAT ?_M_deallocate_buffers@?$basic_filebuf@DV?$char_traits@D@_STL@@@_STL@@AAEXXZ
_TEXT	SEGMENT
?_M_deallocate_buffers@?$basic_filebuf@DV?$char_traits@D@_STL@@@_STL@@AAEXXZ PROC NEAR ; _STL::basic_filebuf<char,_STL::char_traits<char> >::_M_deallocate_buffers, COMDAT
; _this$ = ecx

; 684  : {

  00000	53		 push	 ebx
  00001	56		 push	 esi
  00002	8b f1		 mov	 esi, ecx

; 685  :   if (_M_int_buf_dynamic)

  00004	33 db		 xor	 ebx, ebx
  00006	38 5e 66	 cmp	 BYTE PTR [esi+102], bl
  00009	74 09		 je	 SHORT $L99790

; 686  :     free(_M_int_buf);

  0000b	ff 76 6c	 push	 DWORD PTR [esi+108]
  0000e	e8 00 00 00 00	 call	 _free
  00013	59		 pop	 ecx
$L99790:

; 687  :   free(_M_ext_buf);

  00014	ff 76 74	 push	 DWORD PTR [esi+116]
  00017	e8 00 00 00 00	 call	 _free
  0001c	59		 pop	 ecx

; 688  :   _M_int_buf     = 0;

  0001d	89 5e 6c	 mov	 DWORD PTR [esi+108], ebx

; 689  :   _M_int_buf_EOS = 0;

  00020	89 5e 70	 mov	 DWORD PTR [esi+112], ebx

; 690  :   _M_ext_buf     = 0;

  00023	89 5e 74	 mov	 DWORD PTR [esi+116], ebx

; 691  :   _M_ext_buf_EOS = 0;

  00026	89 5e 78	 mov	 DWORD PTR [esi+120], ebx
  00029	5e		 pop	 esi
  0002a	5b		 pop	 ebx

; 692  : }

  0002b	c3		 ret	 0
?_M_deallocate_buffers@?$basic_filebuf@DV?$char_traits@D@_STL@@@_STL@@AAEXXZ ENDP ; _STL::basic_filebuf<char,_STL::char_traits<char> >::_M_deallocate_buffers
_TEXT	ENDS
PUBLIC	??_R4?$basic_ios@DV?$char_traits@D@_STL@@@_STL@@6B@ ; _STL::basic_ios<char,_STL::char_traits<char> >::`RTTI Complete Object Locator'
PUBLIC	??_R3?$basic_ios@DV?$char_traits@D@_STL@@@_STL@@8 ; _STL::basic_ios<char,_STL::char_traits<char> >::`RTTI Class Hierarchy Descriptor'
PUBLIC	??_R2?$basic_ios@DV?$char_traits@D@_STL@@@_STL@@8 ; _STL::basic_ios<char,_STL::char_traits<char> >::`RTTI Base Class Array'
PUBLIC	??_R1A@?0A@A@?$basic_ios@DV?$char_traits@D@_STL@@@_STL@@8 ; _STL::basic_ios<char,_STL::char_traits<char> >::`RTTI Base Class Descriptor at (0,-1,0,0)'
PUBLIC	??_R1A@?0A@A@ios_base@_STL@@8			; _STL::ios_base::`RTTI Base Class Descriptor at (0,-1,0,0)'
PUBLIC	??0?$basic_ios@DV?$char_traits@D@_STL@@@_STL@@IAE@XZ ; _STL::basic_ios<char,_STL::char_traits<char> >::basic_ios<char,_STL::char_traits<char> >
PUBLIC	??_7?$basic_ios@DV?$char_traits@D@_STL@@@_STL@@6B@ ; _STL::basic_ios<char,_STL::char_traits<char> >::`vftable'
PUBLIC	??_G?$basic_ios@DV?$char_traits@D@_STL@@@_STL@@UAEPAXI@Z ; _STL::basic_ios<char,_STL::char_traits<char> >::`scalar deleting destructor'
PUBLIC	??_R0?AV?$basic_ios@DV?$char_traits@D@_STL@@@_STL@@@8 ; _STL::basic_ios<char,_STL::char_traits<char> > `RTTI Type Descriptor'
PUBLIC	??_R0?AVios_base@_STL@@@8			; _STL::ios_base `RTTI Type Descriptor'
EXTRN	??_7type_info@@6B@:QWORD			; type_info::`vftable'
EXTRN	??_E?$basic_ios@DV?$char_traits@D@_STL@@@_STL@@UAEPAXI@Z:NEAR ; _STL::basic_ios<char,_STL::char_traits<char> >::`vector deleting destructor'
EXTRN	??0ios_base@_STL@@IAE@XZ:NEAR			; _STL::ios_base::ios_base
;	COMDAT ??_7?$basic_ios@DV?$char_traits@D@_STL@@@_STL@@6B@
; File c:\stlport-4.6.1\stlport\stl\_ios.c
CONST	SEGMENT
??_7?$basic_ios@DV?$char_traits@D@_STL@@@_STL@@6B@ DD FLAT:??_R4?$basic_ios@DV?$char_traits@D@_STL@@@_STL@@6B@ ; _STL::basic_ios<char,_STL::char_traits<char> >::`vftable'
	DD	FLAT:??_E?$basic_ios@DV?$char_traits@D@_STL@@@_STL@@UAEPAXI@Z
CONST	ENDS
;	COMDAT ??_R4?$basic_ios@DV?$char_traits@D@_STL@@@_STL@@6B@
rdata$r	SEGMENT
??_R4?$basic_ios@DV?$char_traits@D@_STL@@@_STL@@6B@ DD 00H ; _STL::basic_ios<char,_STL::char_traits<char> >::`RTTI Complete Object Locator'
	DD	00H
	DD	00H
	DD	FLAT:??_R0?AV?$basic_ios@DV?$char_traits@D@_STL@@@_STL@@@8
	DD	FLAT:??_R3?$basic_ios@DV?$char_traits@D@_STL@@@_STL@@8
rdata$r	ENDS
;	COMDAT ??_R0?AV?$basic_ios@DV?$char_traits@D@_STL@@@_STL@@@8
_DATA	SEGMENT
??_R0?AV?$basic_ios@DV?$char_traits@D@_STL@@@_STL@@@8 DD FLAT:??_7type_info@@6B@ ; _STL::basic_ios<char,_STL::char_traits<char> > `RTTI Type Descriptor'
	DD	00H
	DB	'.?AV?$basic_ios@DV?$char_traits@D@_STL@@@_STL@@', 00H
_DATA	ENDS
;	COMDAT ??_R3?$basic_ios@DV?$char_traits@D@_STL@@@_STL@@8
rdata$r	SEGMENT
??_R3?$basic_ios@DV?$char_traits@D@_STL@@@_STL@@8 DD 00H ; _STL::basic_ios<char,_STL::char_traits<char> >::`RTTI Class Hierarchy Descriptor'
	DD	00H
	DD	02H
	DD	FLAT:??_R2?$basic_ios@DV?$char_traits@D@_STL@@@_STL@@8
rdata$r	ENDS
;	COMDAT ??_R2?$basic_ios@DV?$char_traits@D@_STL@@@_STL@@8
rdata$r	SEGMENT
??_R2?$basic_ios@DV?$char_traits@D@_STL@@@_STL@@8 DD FLAT:??_R1A@?0A@A@?$basic_ios@DV?$char_traits@D@_STL@@@_STL@@8 ; _STL::basic_ios<char,_STL::char_traits<char> >::`RTTI Base Class Array'
	DD	FLAT:??_R1A@?0A@A@ios_base@_STL@@8
rdata$r	ENDS
;	COMDAT ??_R1A@?0A@A@?$basic_ios@DV?$char_traits@D@_STL@@@_STL@@8
rdata$r	SEGMENT
??_R1A@?0A@A@?$basic_ios@DV?$char_traits@D@_STL@@@_STL@@8 DD FLAT:??_R0?AV?$basic_ios@DV?$char_traits@D@_STL@@@_STL@@@8 ; _STL::basic_ios<char,_STL::char_traits<char> >::`RTTI Base Class Descriptor at (0,-1,0,0)'
	DD	01H
	DD	00H
	DD	0ffffffffH
	DD	00H
	DD	00H
rdata$r	ENDS
;	COMDAT ??_R1A@?0A@A@ios_base@_STL@@8
rdata$r	SEGMENT
??_R1A@?0A@A@ios_base@_STL@@8 DD FLAT:??_R0?AVios_base@_STL@@@8 ; _STL::ios_base::`RTTI Base Class Descriptor at (0,-1,0,0)'
	DD	00H
	DD	00H
	DD	0ffffffffH
	DD	00H
	DD	00H
rdata$r	ENDS
;	COMDAT ??_R0?AVios_base@_STL@@@8
_DATA	SEGMENT
??_R0?AVios_base@_STL@@@8 DD FLAT:??_7type_info@@6B@	; _STL::ios_base `RTTI Type Descriptor'
	DD	00H
	DB	'.?AVios_base@_STL@@', 00H
; Function compile flags: /Ogsy
_DATA	ENDS
;	COMDAT ??0?$basic_ios@DV?$char_traits@D@_STL@@@_STL@@IAE@XZ
_TEXT	SEGMENT
??0?$basic_ios@DV?$char_traits@D@_STL@@@_STL@@IAE@XZ PROC NEAR ; _STL::basic_ios<char,_STL::char_traits<char> >::basic_ios<char,_STL::char_traits<char> >, COMDAT
; _this$ = ecx

; 95   : {}

  00000	56		 push	 esi
  00001	8b f1		 mov	 esi, ecx
  00003	e8 00 00 00 00	 call	 ??0ios_base@_STL@@IAE@XZ ; _STL::ios_base::ios_base
  00008	33 c0		 xor	 eax, eax
  0000a	88 46 54	 mov	 BYTE PTR [esi+84], al
  0000d	89 46 58	 mov	 DWORD PTR [esi+88], eax
  00010	89 46 5c	 mov	 DWORD PTR [esi+92], eax
  00013	c7 06 00 00 00
	00		 mov	 DWORD PTR [esi], OFFSET FLAT:??_7?$basic_ios@DV?$char_traits@D@_STL@@@_STL@@6B@
  00019	8b c6		 mov	 eax, esi
  0001b	5e		 pop	 esi
  0001c	c3		 ret	 0
??0?$basic_ios@DV?$char_traits@D@_STL@@@_STL@@IAE@XZ ENDP ; _STL::basic_ios<char,_STL::char_traits<char> >::basic_ios<char,_STL::char_traits<char> >
_TEXT	ENDS
PUBLIC	??$?0U?$_List_node@V?$basic_string@DV?$char_traits@D@_STL@@V?$allocator@D@2@@_STL@@@_STL@@@?$allocator@V?$basic_string@DV?$char_traits@D@_STL@@V?$allocator@D@2@@_STL@@@_STL@@QAE@ABV?$allocator@U?$_List_node@V?$basic_string@DV?$char_traits@D@_STL@@V?$allocator@D@2@@_STL@@@_STL@@@1@@Z ; _STL::allocator<_STL::basic_string<char,_STL::char_traits<char>,_STL::allocator<char> > >::allocator<_STL::basic_string<char,_STL::char_traits<char>,_STL::allocator<char> > ><_STL::_List_node<_STL::basic_string<char,_STL::char_traits<char>,_STL::allocator<char> > > >
; Function compile flags: /Ogsy
; File c:\stlport-4.6.1\stlport\stl\_alloc.h
;	COMDAT ??$?0U?$_List_node@V?$basic_string@DV?$char_traits@D@_STL@@V?$allocator@D@2@@_STL@@@_STL@@@?$allocator@V?$basic_string@DV?$char_traits@D@_STL@@V?$allocator@D@2@@_STL@@@_STL@@QAE@ABV?$allocator@U?$_List_node@V?$basic_string@DV?$char_traits@D@_STL@@V?$allocator@D@2@@_STL@@@_STL@@@1@@Z
_TEXT	SEGMENT
___formal$ = 8						; size = 4
??$?0U?$_List_node@V?$basic_string@DV?$char_traits@D@_STL@@V?$allocator@D@2@@_STL@@@_STL@@@?$allocator@V?$basic_string@DV?$char_traits@D@_STL@@V?$allocator@D@2@@_STL@@@_STL@@QAE@ABV?$allocator@U?$_List_node@V?$basic_string@DV?$char_traits@D@_STL@@V?$allocator@D@2@@_STL@@@_STL@@@1@@Z PROC NEAR ; _STL::allocator<_STL::basic_string<char,_STL::char_traits<char>,_STL::allocator<char> > >::allocator<_STL::basic_string<char,_STL::char_traits<char>,_STL::allocator<char> > ><_STL::_List_node<_STL::basic_string<char,_STL::char_traits<char>,_STL::allocator<char> > > >, COMDAT
; _this$ = ecx

; 347  :   template <class _Tp1> allocator(const allocator<_Tp1>&) _STLP_NOTHROW {}

  00000	8b c1		 mov	 eax, ecx
  00002	c2 04 00	 ret	 4
??$?0U?$_List_node@V?$basic_string@DV?$char_traits@D@_STL@@V?$allocator@D@2@@_STL@@@_STL@@@?$allocator@V?$basic_string@DV?$char_traits@D@_STL@@V?$allocator@D@2@@_STL@@@_STL@@QAE@ABV?$allocator@U?$_List_node@V?$basic_string@DV?$char_traits@D@_STL@@V?$allocator@D@2@@_STL@@@_STL@@@1@@Z ENDP ; _STL::allocator<_STL::basic_string<char,_STL::char_traits<char>,_STL::allocator<char> > >::allocator<_STL::basic_string<char,_STL::char_traits<char>,_STL::allocator<char> > ><_STL::_List_node<_STL::basic_string<char,_STL::char_traits<char>,_STL::allocator<char> > > >
_TEXT	ENDS
PUBLIC	?end@?$basic_string@DV?$char_traits@D@_STL@@V?$allocator@D@2@@_STL@@QAEPADXZ ; _STL::basic_string<char,_STL::char_traits<char>,_STL::allocator<char> >::end
; Function compile flags: /Ogsy
; File c:\stlport-4.6.1\stlport\stl\_string.h
;	COMDAT ?end@?$basic_string@DV?$char_traits@D@_STL@@V?$allocator@D@2@@_STL@@QAEPADXZ
_TEXT	SEGMENT
?end@?$basic_string@DV?$char_traits@D@_STL@@V?$allocator@D@2@@_STL@@QAEPADXZ PROC NEAR ; _STL::basic_string<char,_STL::char_traits<char>,_STL::allocator<char> >::end, COMDAT
; _this$ = ecx

; 417  :   iterator end()               { return this->_M_finish; }

  00000	8b 41 04	 mov	 eax, DWORD PTR [ecx+4]
  00003	c3		 ret	 0
?end@?$basic_string@DV?$char_traits@D@_STL@@V?$allocator@D@2@@_STL@@QAEPADXZ ENDP ; _STL::basic_string<char,_STL::char_traits<char>,_STL::allocator<char> >::end
_TEXT	ENDS
PUBLIC	?tie@?$basic_ios@DV?$char_traits@D@_STL@@@_STL@@QAEPAV?$basic_ostream@DV?$char_traits@D@_STL@@@2@PAV32@@Z ; _STL::basic_ios<char,_STL::char_traits<char> >::tie
; Function compile flags: /Ogsy
; File c:\stlport-4.6.1\stlport\stl\_ios.h
;	COMDAT ?tie@?$basic_ios@DV?$char_traits@D@_STL@@@_STL@@QAEPAV?$basic_ostream@DV?$char_traits@D@_STL@@@2@PAV32@@Z
_TEXT	SEGMENT
___new_tied_ostream$ = 8				; size = 4
?tie@?$basic_ios@DV?$char_traits@D@_STL@@@_STL@@QAEPAV?$basic_ostream@DV?$char_traits@D@_STL@@@2@PAV32@@Z PROC NEAR ; _STL::basic_ios<char,_STL::char_traits<char> >::tie, COMDAT
; _this$ = ecx

; 66   :     basic_ostream<char_type, traits_type>* __tmp = _M_tied_ostream;
; 67   :     _M_tied_ostream = __new_tied_ostream;

  00000	8b 54 24 04	 mov	 edx, DWORD PTR ___new_tied_ostream$[esp-4]
  00004	8b 41 5c	 mov	 eax, DWORD PTR [ecx+92]
  00007	89 51 5c	 mov	 DWORD PTR [ecx+92], edx

; 68   :     return __tmp;
; 69   :   }

  0000a	c2 04 00	 ret	 4
?tie@?$basic_ios@DV?$char_traits@D@_STL@@@_STL@@QAEPAV?$basic_ostream@DV?$char_traits@D@_STL@@@2@PAV32@@Z ENDP ; _STL::basic_ios<char,_STL::char_traits<char> >::tie
_TEXT	ENDS
PUBLIC	?fill@?$basic_ios@DV?$char_traits@D@_STL@@@_STL@@QAEDD@Z ; _STL::basic_ios<char,_STL::char_traits<char> >::fill
; Function compile flags: /Ogsy
;	COMDAT ?fill@?$basic_ios@DV?$char_traits@D@_STL@@@_STL@@QAEDD@Z
_TEXT	SEGMENT
___fill$ = 8						; size = 1
?fill@?$basic_ios@DV?$char_traits@D@_STL@@@_STL@@QAEDD@Z PROC NEAR ; _STL::basic_ios<char,_STL::char_traits<char> >::fill, COMDAT
; _this$ = ecx

; 82   :     char_type __tmp(_M_fill);
; 83   :     _M_fill = __fill;

  00000	8a 54 24 04	 mov	 dl, BYTE PTR ___fill$[esp-4]
  00004	8a 41 54	 mov	 al, BYTE PTR [ecx+84]
  00007	88 51 54	 mov	 BYTE PTR [ecx+84], dl

; 84   :     return __tmp;
; 85   :   }

  0000a	c2 04 00	 ret	 4
?fill@?$basic_ios@DV?$char_traits@D@_STL@@@_STL@@QAEDD@Z ENDP ; _STL::basic_ios<char,_STL::char_traits<char> >::fill
_TEXT	ENDS
PUBLIC	?move@?$__char_traits_base@DH@_STL@@SAPADPADPBDI@Z ; _STL::__char_traits_base<char,int>::move
; Function compile flags: /Ogsy
; File c:\stlport-4.6.1\stlport\stl\char_traits.h
;	COMDAT ?move@?$__char_traits_base@DH@_STL@@SAPADPADPBDI@Z
_TEXT	SEGMENT
___s1$ = 8						; size = 4
___s2$ = 12						; size = 4
__Sz$ = 16						; size = 4
?move@?$__char_traits_base@DH@_STL@@SAPADPADPBDI@Z PROC NEAR ; _STL::__char_traits_base<char,int>::move, COMDAT

; 165  :   static _CharT* _STLP_CALL move(_CharT* __s1, const _CharT* __s2, size_t _Sz) {    

  00000	55		 push	 ebp
  00001	8b ec		 mov	 ebp, esp

; 166  :     return (_Sz == 0 ? __s1 : (_CharT*)memmove(__s1, __s2, _Sz * sizeof(_CharT)));

  00003	83 7d 10 00	 cmp	 DWORD PTR __Sz$[ebp], 0
  00007	75 05		 jne	 SHORT $L100725
  00009	8b 45 08	 mov	 eax, DWORD PTR ___s1$[ebp]

; 167  :   }

  0000c	5d		 pop	 ebp
  0000d	c3		 ret	 0
$L100725:
  0000e	5d		 pop	 ebp

; 166  :     return (_Sz == 0 ? __s1 : (_CharT*)memmove(__s1, __s2, _Sz * sizeof(_CharT)));

  0000f	e9 00 00 00 00	 jmp	 _memmove
?move@?$__char_traits_base@DH@_STL@@SAPADPADPBDI@Z ENDP	; _STL::__char_traits_base<char,int>::move
_TEXT	ENDS
PUBLIC	??$max@H@_STL@@YAABHABH0@Z			; _STL::max<int>
; Function compile flags: /Ogsy
; File c:\stlport-4.6.1\stlport\stl\_algobase.h
;	COMDAT ??$max@H@_STL@@YAABHABH0@Z
_TEXT	SEGMENT
___a$ = 8						; size = 4
___b$ = 12						; size = 4
??$max@H@_STL@@YAABHABH0@Z PROC NEAR			; _STL::max<int>, COMDAT

; 79   : inline const _Tp& (max)(const _Tp& __a, const _Tp& __b) {  return  __a < __b ? __b : __a; }

  00000	8b 44 24 04	 mov	 eax, DWORD PTR ___a$[esp-4]
  00004	8b 10		 mov	 edx, DWORD PTR [eax]
  00006	8b 4c 24 08	 mov	 ecx, DWORD PTR ___b$[esp-4]
  0000a	3b 11		 cmp	 edx, DWORD PTR [ecx]
  0000c	7d 02		 jge	 SHORT $L100732
  0000e	8b c1		 mov	 eax, ecx
$L100732:
  00010	c3		 ret	 0
??$max@H@_STL@@YAABHABH0@Z ENDP				; _STL::max<int>
_TEXT	ENDS
PUBLIC	??$use_facet@V?$codecvt@DDH@_STL@@@_STL@@YAABV?$codecvt@DDH@0@ABVlocale@0@@Z ; _STL::use_facet<_STL::codecvt<char,char,int> >
EXTRN	?_M_use_facet@locale@_STL@@QBEPAVfacet@12@ABVid@12@@Z:NEAR ; _STL::locale::_M_use_facet
EXTRN	?id@?$codecvt@DDH@_STL@@2V0locale@2@A:DWORD	; _STL::codecvt<char,char,int>::id
; Function compile flags: /Ogsy
; File c:\stlport-4.6.1\stlport\stl\_locale.h
;	COMDAT ??$use_facet@V?$codecvt@DDH@_STL@@@_STL@@YAABV?$codecvt@DDH@0@ABVlocale@0@@Z
_TEXT	SEGMENT
___loc$ = 8						; size = 4
??$use_facet@V?$codecvt@DDH@_STL@@@_STL@@YAABV?$codecvt@DDH@0@ABVlocale@0@@Z PROC NEAR ; _STL::use_facet<_STL::codecvt<char,char,int> >, COMDAT

; 204  :   return *__STATIC_CAST(const _Facet*,__loc._M_use_facet(_Facet::id));

  00000	8b 4c 24 04	 mov	 ecx, DWORD PTR ___loc$[esp-4]
  00004	68 00 00 00 00	 push	 OFFSET FLAT:?id@?$codecvt@DDH@_STL@@2V0locale@2@A ; _STL::codecvt<char,char,int>::id
  00009	e8 00 00 00 00	 call	 ?_M_use_facet@locale@_STL@@QBEPAVfacet@12@ABVid@12@@Z ; _STL::locale::_M_use_facet

; 205  : }

  0000e	c3		 ret	 0
??$use_facet@V?$codecvt@DDH@_STL@@@_STL@@YAABV?$codecvt@DDH@0@ABVlocale@0@@Z ENDP ; _STL::use_facet<_STL::codecvt<char,char,int> >
_TEXT	ENDS
PUBLIC	?fill@?$basic_ios@DV?$char_traits@D@_STL@@@_STL@@QBEDXZ ; _STL::basic_ios<char,_STL::char_traits<char> >::fill
; Function compile flags: /Ogsy
; File c:\stlport-4.6.1\stlport\stl\_ios.h
;	COMDAT ?fill@?$basic_ios@DV?$char_traits@D@_STL@@@_STL@@QBEDXZ
_TEXT	SEGMENT
?fill@?$basic_ios@DV?$char_traits@D@_STL@@@_STL@@QBEDXZ PROC NEAR ; _STL::basic_ios<char,_STL::char_traits<char> >::fill, COMDAT
; _this$ = ecx

; 80   :   char_type fill() const { return _M_fill; }

  00000	8a 41 54	 mov	 al, BYTE PTR [ecx+84]
  00003	c3		 ret	 0
?fill@?$basic_ios@DV?$char_traits@D@_STL@@@_STL@@QBEDXZ ENDP ; _STL::basic_ios<char,_STL::char_traits<char> >::fill
_TEXT	ENDS
PUBLIC	??Bsentry@?$basic_ostream@DV?$char_traits@D@_STL@@@_STL@@QBE_NXZ ; _STL::basic_ostream<char,_STL::char_traits<char> >::sentry::operator bool
; Function compile flags: /Ogsy
; File c:\stlport-4.6.1\stlport\stl\_ostream.h
;	COMDAT ??Bsentry@?$basic_ostream@DV?$char_traits@D@_STL@@@_STL@@QBE_NXZ
_TEXT	SEGMENT
??Bsentry@?$basic_ostream@DV?$char_traits@D@_STL@@@_STL@@QBE_NXZ PROC NEAR ; _STL::basic_ostream<char,_STL::char_traits<char> >::sentry::operator bool, COMDAT
; _this$ = ecx

; 176  :       operator bool() const { return _M_ok; }

  00000	8a 41 04	 mov	 al, BYTE PTR [ecx+4]
  00003	c3		 ret	 0
??Bsentry@?$basic_ostream@DV?$char_traits@D@_STL@@@_STL@@QBE_NXZ ENDP ; _STL::basic_ostream<char,_STL::char_traits<char> >::sentry::operator bool
_TEXT	ENDS
PUBLIC	?flags@ios_base@_STL@@QBEHXZ			; _STL::ios_base::flags
; Function compile flags: /Ogsy
; File c:\stlport-4.6.1\stlport\stl\_ios_base.h
;	COMDAT ?flags@ios_base@_STL@@QBEHXZ
_TEXT	SEGMENT
?flags@ios_base@_STL@@QBEHXZ PROC NEAR			; _STL::ios_base::flags, COMDAT
; _this$ = ecx

; 115  :   fmtflags flags() const { return _M_fmtflags; }

  00000	8b 41 04	 mov	 eax, DWORD PTR [ecx+4]
  00003	c3		 ret	 0
?flags@ios_base@_STL@@QBEHXZ ENDP			; _STL::ios_base::flags
_TEXT	ENDS
PUBLIC	?flags@ios_base@_STL@@QAEHH@Z			; _STL::ios_base::flags
; Function compile flags: /Ogsy
;	COMDAT ?flags@ios_base@_STL@@QAEHH@Z
_TEXT	SEGMENT
___flags$ = 8						; size = 4
?flags@ios_base@_STL@@QAEHH@Z PROC NEAR			; _STL::ios_base::flags, COMDAT
; _this$ = ecx

; 117  :     fmtflags __tmp = _M_fmtflags;
; 118  :     _M_fmtflags = __flags;

  00000	8b 54 24 04	 mov	 edx, DWORD PTR ___flags$[esp-4]
  00004	8b 41 04	 mov	 eax, DWORD PTR [ecx+4]
  00007	89 51 04	 mov	 DWORD PTR [ecx+4], edx

; 119  :     return __tmp;
; 120  :   }

  0000a	c2 04 00	 ret	 4
?flags@ios_base@_STL@@QAEHH@Z ENDP			; _STL::ios_base::flags
_TEXT	ENDS
PUBLIC	?max_size@?$_String_base@DV?$allocator@D@_STL@@@_STL@@QBEIXZ ; _STL::_String_base<char,_STL::allocator<char> >::max_size
; Function compile flags: /Ogsy
; File c:\stlport-4.6.1\stlport\stl\_string.h
;	COMDAT ?max_size@?$_String_base@DV?$allocator@D@_STL@@@_STL@@QBEIXZ
_TEXT	SEGMENT
?max_size@?$_String_base@DV?$allocator@D@_STL@@@_STL@@QBEIXZ PROC NEAR ; _STL::_String_base<char,_STL::allocator<char> >::max_size, COMDAT
; _this$ = ecx

; 126  :   size_t max_size() const { return (size_t(-1) / sizeof(_Tp)) - 1; }

  00000	6a fe		 push	 -2			; fffffffeH
  00002	58		 pop	 eax
  00003	c3		 ret	 0
?max_size@?$_String_base@DV?$allocator@D@_STL@@@_STL@@QBEIXZ ENDP ; _STL::_String_base<char,_STL::allocator<char> >::max_size
_TEXT	ENDS
PUBLIC	?precision@ios_base@_STL@@QAEHH@Z		; _STL::ios_base::precision
; Function compile flags: /Ogsy
; File c:\stlport-4.6.1\stlport\stl\_ios_base.h
;	COMDAT ?precision@ios_base@_STL@@QAEHH@Z
_TEXT	SEGMENT
___newprecision$ = 8					; size = 4
?precision@ios_base@_STL@@QAEHH@Z PROC NEAR		; _STL::ios_base::precision, COMDAT
; _this$ = ecx

; 137  :     streamsize __tmp = _M_precision;
; 138  :     _M_precision = __newprecision;

  00000	8b 54 24 04	 mov	 edx, DWORD PTR ___newprecision$[esp-4]
  00004	8b 41 18	 mov	 eax, DWORD PTR [ecx+24]
  00007	89 51 18	 mov	 DWORD PTR [ecx+24], edx

; 139  :     return __tmp;
; 140  :   }

  0000a	c2 04 00	 ret	 4
?precision@ios_base@_STL@@QAEHH@Z ENDP			; _STL::ios_base::precision
_TEXT	ENDS
PUBLIC	?tie@?$basic_ios@DV?$char_traits@D@_STL@@@_STL@@QBEPAV?$basic_ostream@DV?$char_traits@D@_STL@@@2@XZ ; _STL::basic_ios<char,_STL::char_traits<char> >::tie
; Function compile flags: /Ogsy
; File c:\stlport-4.6.1\stlport\stl\_ios.h
;	COMDAT ?tie@?$basic_ios@DV?$char_traits@D@_STL@@@_STL@@QBEPAV?$basic_ostream@DV?$char_traits@D@_STL@@@2@XZ
_TEXT	SEGMENT
?tie@?$basic_ios@DV?$char_traits@D@_STL@@@_STL@@QBEPAV?$basic_ostream@DV?$char_traits@D@_STL@@@2@XZ PROC NEAR ; _STL::basic_ios<char,_STL::char_traits<char> >::tie, COMDAT
; _this$ = ecx

; 62   :     return _M_tied_ostream;

  00000	8b 41 5c	 mov	 eax, DWORD PTR [ecx+92]

; 63   :   }

  00003	c3		 ret	 0
?tie@?$basic_ios@DV?$char_traits@D@_STL@@@_STL@@QBEPAV?$basic_ostream@DV?$char_traits@D@_STL@@@2@XZ ENDP ; _STL::basic_ios<char,_STL::char_traits<char> >::tie
_TEXT	ENDS
PUBLIC	?width@ios_base@_STL@@QBEHXZ			; _STL::ios_base::width
; Function compile flags: /Ogsy
; File c:\stlport-4.6.1\stlport\stl\_ios_base.h
;	COMDAT ?width@ios_base@_STL@@QBEHXZ
_TEXT	SEGMENT
?width@ios_base@_STL@@QBEHXZ PROC NEAR			; _STL::ios_base::width, COMDAT
; _this$ = ecx

; 142  :   streamsize width() const { return _M_width; }

  00000	8b 41 1c	 mov	 eax, DWORD PTR [ecx+28]
  00003	c3		 ret	 0
?width@ios_base@_STL@@QBEHXZ ENDP			; _STL::ios_base::width
_TEXT	ENDS
PUBLIC	?_M_throw_length_error@?$_String_base@DV?$allocator@D@_STL@@@_STL@@QBEXXZ ; _STL::_String_base<char,_STL::allocator<char> >::_M_throw_length_error
PUBLIC	??_C@_0N@GOPDCEEB@basic_string?$AA@		; `string'
EXTRN	?__stl_throw_length_error@_STL@@YAXPBD@Z:NEAR	; _STL::__stl_throw_length_error
;	COMDAT ??_C@_0N@GOPDCEEB@basic_string?$AA@
; File c:\stlport-4.6.1\stlport\stl\_string.c
CONST	SEGMENT
??_C@_0N@GOPDCEEB@basic_string?$AA@ DB 'basic_string', 00H ; `string'
; Function compile flags: /Ogsy
CONST	ENDS
;	COMDAT ?_M_throw_length_error@?$_String_base@DV?$allocator@D@_STL@@@_STL@@QBEXXZ
_TEXT	SEGMENT
?_M_throw_length_error@?$_String_base@DV?$allocator@D@_STL@@@_STL@@QBEXXZ PROC NEAR ; _STL::_String_base<char,_STL::allocator<char> >::_M_throw_length_error, COMDAT
; _this$ = ecx

; 523  :     __stl_throw_length_error("basic_string");

  00000	68 00 00 00 00	 push	 OFFSET FLAT:??_C@_0N@GOPDCEEB@basic_string?$AA@
  00005	e8 00 00 00 00	 call	 ?__stl_throw_length_error@_STL@@YAXPBD@Z ; _STL::__stl_throw_length_error
  0000a	59		 pop	 ecx

; 524  : }

  0000b	c3		 ret	 0
?_M_throw_length_error@?$_String_base@DV?$allocator@D@_STL@@@_STL@@QBEXXZ ENDP ; _STL::_String_base<char,_STL::allocator<char> >::_M_throw_length_error
_TEXT	ENDS
PUBLIC	?width@ios_base@_STL@@QAEHH@Z			; _STL::ios_base::width
; Function compile flags: /Ogsy
; File c:\stlport-4.6.1\stlport\stl\_ios_base.h
;	COMDAT ?width@ios_base@_STL@@QAEHH@Z
_TEXT	SEGMENT
___newwidth$ = 8					; size = 4
?width@ios_base@_STL@@QAEHH@Z PROC NEAR			; _STL::ios_base::width, COMDAT
; _this$ = ecx

; 144  :     streamsize __tmp = _M_width;
; 145  :     _M_width = __newwidth;

  00000	8b 54 24 04	 mov	 edx, DWORD PTR ___newwidth$[esp-4]
  00004	8b 41 1c	 mov	 eax, DWORD PTR [ecx+28]
  00007	89 51 1c	 mov	 DWORD PTR [ecx+28], edx

; 146  :     return __tmp;
; 147  :   }

  0000a	c2 04 00	 ret	 4
?width@ios_base@_STL@@QAEHH@Z ENDP			; _STL::ios_base::width
_TEXT	ENDS
PUBLIC	??$__distance@PAD@_STL@@YAHABQAD0ABUrandom_access_iterator_tag@0@@Z ; _STL::__distance<char *>
; Function compile flags: /Ogsy
; File c:\stlport-4.6.1\stlport\stl\_iterator_base.h
;	COMDAT ??$__distance@PAD@_STL@@YAHABQAD0ABUrandom_access_iterator_tag@0@@Z
_TEXT	SEGMENT
___first$ = 8						; size = 4
___last$ = 12						; size = 4
___formal$ = 16						; size = 4
??$__distance@PAD@_STL@@YAHABQAD0ABUrandom_access_iterator_tag@0@@Z PROC NEAR ; _STL::__distance<char *>, COMDAT

; 363  :   return __last - __first;

  00000	8b 44 24 08	 mov	 eax, DWORD PTR ___last$[esp-4]
  00004	8b 00		 mov	 eax, DWORD PTR [eax]
  00006	8b 4c 24 04	 mov	 ecx, DWORD PTR ___first$[esp-4]
  0000a	2b 01		 sub	 eax, DWORD PTR [ecx]

; 364  : }

  0000c	c3		 ret	 0
??$__distance@PAD@_STL@@YAHABQAD0ABUrandom_access_iterator_tag@0@@Z ENDP ; _STL::__distance<char *>
_TEXT	ENDS
PUBLIC	?rdstate@ios_base@_STL@@QBEHXZ			; _STL::ios_base::rdstate
; Function compile flags: /Ogsy
; File c:\stlport-4.6.1\stlport\stl\_ios_base.h
;	COMDAT ?rdstate@ios_base@_STL@@QBEHXZ
_TEXT	SEGMENT
?rdstate@ios_base@_STL@@QBEHXZ PROC NEAR		; _STL::ios_base::rdstate, COMDAT
; _this$ = ecx

; 178  :   iostate rdstate() const { return _M_iostate; }

  00000	8b 41 08	 mov	 eax, DWORD PTR [ecx+8]
  00003	c3		 ret	 0
?rdstate@ios_base@_STL@@QBEHXZ ENDP			; _STL::ios_base::rdstate
_TEXT	ENDS
PUBLIC	?good@ios_base@_STL@@QBE_NXZ			; _STL::ios_base::good
; Function compile flags: /Ogsy
;	COMDAT ?good@ios_base@_STL@@QBE_NXZ
_TEXT	SEGMENT
?good@ios_base@_STL@@QBE_NXZ PROC NEAR			; _STL::ios_base::good, COMDAT
; _this$ = ecx

; 180  :   bool good() const { return _M_iostate == 0; }

  00000	33 c0		 xor	 eax, eax
  00002	39 41 08	 cmp	 DWORD PTR [ecx+8], eax
  00005	0f 94 c0	 sete	 al
  00008	c3		 ret	 0
?good@ios_base@_STL@@QBE_NXZ ENDP			; _STL::ios_base::good
_TEXT	ENDS
PUBLIC	?_M_setstate_nothrow@ios_base@_STL@@IAEXH@Z	; _STL::ios_base::_M_setstate_nothrow
; Function compile flags: /Ogsy
;	COMDAT ?_M_setstate_nothrow@ios_base@_STL@@IAEXH@Z
_TEXT	SEGMENT
___state$ = 8						; size = 4
?_M_setstate_nothrow@ios_base@_STL@@IAEXH@Z PROC NEAR	; _STL::ios_base::_M_setstate_nothrow, COMDAT
; _this$ = ecx

; 193  :   void _M_setstate_nothrow(iostate __state) { _M_iostate |= __state; }

  00000	8b 44 24 04	 mov	 eax, DWORD PTR ___state$[esp-4]
  00004	09 41 08	 or	 DWORD PTR [ecx+8], eax
  00007	c2 04 00	 ret	 4
?_M_setstate_nothrow@ios_base@_STL@@IAEXH@Z ENDP	; _STL::ios_base::_M_setstate_nothrow
_TEXT	ENDS
PUBLIC	?_M_clear_nothrow@ios_base@_STL@@IAEXH@Z	; _STL::ios_base::_M_clear_nothrow
; Function compile flags: /Ogsy
;	COMDAT ?_M_clear_nothrow@ios_base@_STL@@IAEXH@Z
_TEXT	SEGMENT
___state$ = 8						; size = 4
?_M_clear_nothrow@ios_base@_STL@@IAEXH@Z PROC NEAR	; _STL::ios_base::_M_clear_nothrow, COMDAT
; _this$ = ecx

; 194  :   void _M_clear_nothrow(iostate __state) { _M_iostate = __state; }

  00000	8b 44 24 04	 mov	 eax, DWORD PTR ___state$[esp-4]
  00004	89 41 08	 mov	 DWORD PTR [ecx+8], eax
  00007	c2 04 00	 ret	 4
?_M_clear_nothrow@ios_base@_STL@@IAEXH@Z ENDP		; _STL::ios_base::_M_clear_nothrow
_TEXT	ENDS
PUBLIC	?_M_get_exception_mask@ios_base@_STL@@IBEHXZ	; _STL::ios_base::_M_get_exception_mask
; Function compile flags: /Ogsy
;	COMDAT ?_M_get_exception_mask@ios_base@_STL@@IBEHXZ
_TEXT	SEGMENT
?_M_get_exception_mask@ios_base@_STL@@IBEHXZ PROC NEAR	; _STL::ios_base::_M_get_exception_mask, COMDAT
; _this$ = ecx

; 195  :   iostate _M_get_exception_mask() const { return _M_exception_mask; }

  00000	8b 41 14	 mov	 eax, DWORD PTR [ecx+20]
  00003	c3		 ret	 0
?_M_get_exception_mask@ios_base@_STL@@IBEHXZ ENDP	; _STL::ios_base::_M_get_exception_mask
_TEXT	ENDS
PUBLIC	?_M_set_exception_mask@ios_base@_STL@@IAEXH@Z	; _STL::ios_base::_M_set_exception_mask
; Function compile flags: /Ogsy
;	COMDAT ?_M_set_exception_mask@ios_base@_STL@@IAEXH@Z
_TEXT	SEGMENT
___mask$ = 8						; size = 4
?_M_set_exception_mask@ios_base@_STL@@IAEXH@Z PROC NEAR	; _STL::ios_base::_M_set_exception_mask, COMDAT
; _this$ = ecx

; 196  :   void _M_set_exception_mask(iostate __mask) { _M_exception_mask = __mask; }

  00000	8b 44 24 04	 mov	 eax, DWORD PTR ___mask$[esp-4]
  00004	89 41 14	 mov	 DWORD PTR [ecx+20], eax
  00007	c2 04 00	 ret	 4
?_M_set_exception_mask@ios_base@_STL@@IAEXH@Z ENDP	; _STL::ios_base::_M_set_exception_mask
_TEXT	ENDS
PUBLIC	?_M_check_exception_mask@ios_base@_STL@@IAEXXZ	; _STL::ios_base::_M_check_exception_mask
EXTRN	?_M_throw_failure@ios_base@_STL@@IAEXXZ:NEAR	; _STL::ios_base::_M_throw_failure
; Function compile flags: /Ogsy
;	COMDAT ?_M_check_exception_mask@ios_base@_STL@@IAEXXZ
_TEXT	SEGMENT
?_M_check_exception_mask@ios_base@_STL@@IAEXXZ PROC NEAR ; _STL::ios_base::_M_check_exception_mask, COMDAT
; _this$ = ecx

; 198  :     if (_M_iostate & _M_exception_mask)

  00000	8b 41 14	 mov	 eax, DWORD PTR [ecx+20]
  00003	85 41 08	 test	 eax, DWORD PTR [ecx+8]
  00006	74 05		 je	 SHORT $L79498

; 199  :       _M_throw_failure(); 

  00008	e9 00 00 00 00	 jmp	 ?_M_throw_failure@ios_base@_STL@@IAEXXZ ; _STL::ios_base::_M_throw_failure
$L79498:

; 200  :   }

  0000d	c3		 ret	 0
?_M_check_exception_mask@ios_base@_STL@@IAEXXZ ENDP	; _STL::ios_base::_M_check_exception_mask
_TEXT	ENDS
PUBLIC	?_M_ctype_facet@ios_base@_STL@@QBEPBVfacet@locale@2@XZ ; _STL::ios_base::_M_ctype_facet
; Function compile flags: /Ogsy
;	COMDAT ?_M_ctype_facet@ios_base@_STL@@QBEPBVfacet@locale@2@XZ
_TEXT	SEGMENT
?_M_ctype_facet@ios_base@_STL@@QBEPBVfacet@locale@2@XZ PROC NEAR ; _STL::ios_base::_M_ctype_facet, COMDAT
; _this$ = ecx

; 250  :   const locale::facet* _M_ctype_facet() const { return _M_cached_ctype; }

  00000	8b 41 40	 mov	 eax, DWORD PTR [ecx+64]
  00003	c3		 ret	 0
?_M_ctype_facet@ios_base@_STL@@QBEPBVfacet@locale@2@XZ ENDP ; _STL::ios_base::_M_ctype_facet
_TEXT	ENDS
PUBLIC	?size@?$basic_string@DV?$char_traits@D@_STL@@V?$allocator@D@2@@_STL@@QBEIXZ ; _STL::basic_string<char,_STL::char_traits<char>,_STL::allocator<char> >::size
; Function compile flags: /Ogsy
; File c:\stlport-4.6.1\stlport\stl\_string.h
;	COMDAT ?size@?$basic_string@DV?$char_traits@D@_STL@@V?$allocator@D@2@@_STL@@QBEIXZ
_TEXT	SEGMENT
?size@?$basic_string@DV?$char_traits@D@_STL@@V?$allocator@D@2@@_STL@@QBEIXZ PROC NEAR ; _STL::basic_string<char,_STL::char_traits<char>,_STL::allocator<char> >::size, COMDAT
; _this$ = ecx

; 431  :   size_type size() const { return this->_M_finish - this->_M_start; }

  00000	8b 41 04	 mov	 eax, DWORD PTR [ecx+4]
  00003	2b 01		 sub	 eax, DWORD PTR [ecx]
  00005	c3		 ret	 0
?size@?$basic_string@DV?$char_traits@D@_STL@@V?$allocator@D@2@@_STL@@QBEIXZ ENDP ; _STL::basic_string<char,_STL::char_traits<char>,_STL::allocator<char> >::size
_TEXT	ENDS
PUBLIC	?max_size@?$basic_string@DV?$char_traits@D@_STL@@V?$allocator@D@2@@_STL@@QBEIXZ ; _STL::basic_string<char,_STL::char_traits<char>,_STL::allocator<char> >::max_size
; Function compile flags: /Ogsy
;	COMDAT ?max_size@?$basic_string@DV?$char_traits@D@_STL@@V?$allocator@D@2@@_STL@@QBEIXZ
_TEXT	SEGMENT
?max_size@?$basic_string@DV?$char_traits@D@_STL@@V?$allocator@D@2@@_STL@@QBEIXZ PROC NEAR ; _STL::basic_string<char,_STL::char_traits<char>,_STL::allocator<char> >::max_size, COMDAT
; _this$ = ecx

; 434  :   size_t max_size() const { return _Base::max_size(); }

  00000	6a fe		 push	 -2			; fffffffeH
  00002	58		 pop	 eax
  00003	c3		 ret	 0
?max_size@?$basic_string@DV?$char_traits@D@_STL@@V?$allocator@D@2@@_STL@@QBEIXZ ENDP ; _STL::basic_string<char,_STL::char_traits<char>,_STL::allocator<char> >::max_size
_TEXT	ENDS
PUBLIC	?capacity@?$basic_string@DV?$char_traits@D@_STL@@V?$allocator@D@2@@_STL@@QBEIXZ ; _STL::basic_string<char,_STL::char_traits<char>,_STL::allocator<char> >::capacity
; Function compile flags: /Ogsy
;	COMDAT ?capacity@?$basic_string@DV?$char_traits@D@_STL@@V?$allocator@D@2@@_STL@@QBEIXZ
_TEXT	SEGMENT
?capacity@?$basic_string@DV?$char_traits@D@_STL@@V?$allocator@D@2@@_STL@@QBEIXZ PROC NEAR ; _STL::basic_string<char,_STL::char_traits<char>,_STL::allocator<char> >::capacity, COMDAT
; _this$ = ecx

; 447  :   size_type capacity() const { return (this->_M_end_of_storage._M_data - this->_M_start) - 1; }

  00000	8b 41 08	 mov	 eax, DWORD PTR [ecx+8]
  00003	2b 01		 sub	 eax, DWORD PTR [ecx]
  00005	48		 dec	 eax
  00006	c3		 ret	 0
?capacity@?$basic_string@DV?$char_traits@D@_STL@@V?$allocator@D@2@@_STL@@QBEIXZ ENDP ; _STL::basic_string<char,_STL::char_traits<char>,_STL::allocator<char> >::capacity
_TEXT	ENDS
PUBLIC	?_Ret@?$_BothPtrType@PADPAD@_STL@@SA?AU__true_type@2@XZ ; _STL::_BothPtrType<char *,char *>::_Ret
; Function compile flags: /Ogsy
; File c:\stlport-4.6.1\stlport\stl\type_traits.h
;	COMDAT ?_Ret@?$_BothPtrType@PADPAD@_STL@@SA?AU__true_type@2@XZ
_TEXT	SEGMENT
$T100808 = -1						; size = 1
?_Ret@?$_BothPtrType@PADPAD@_STL@@SA?AU__true_type@2@XZ PROC NEAR ; _STL::_BothPtrType<char *,char *>::_Ret, COMDAT

; 234  :   static __true_type _Ret() { return __true_type();} 

  00000	55		 push	 ebp
  00001	8b ec		 mov	 ebp, esp
  00003	51		 push	 ecx
  00004	57		 push	 edi
  00005	33 c0		 xor	 eax, eax
  00007	8d 7d ff	 lea	 edi, DWORD PTR $T100808[ebp]
  0000a	aa		 stosb
  0000b	8a 45 ff	 mov	 al, BYTE PTR $T100808[ebp]
  0000e	5f		 pop	 edi
  0000f	c9		 leave
  00010	c3		 ret	 0
?_Ret@?$_BothPtrType@PADPAD@_STL@@SA?AU__true_type@2@XZ ENDP ; _STL::_BothPtrType<char *,char *>::_Ret
_TEXT	ENDS
PUBLIC	?_M_construct_null_aux@?$basic_string@DV?$char_traits@D@_STL@@V?$allocator@D@2@@_STL@@AAEXPADABU__true_type@2@@Z ; _STL::basic_string<char,_STL::char_traits<char>,_STL::allocator<char> >::_M_construct_null_aux
; Function compile flags: /Ogsy
; File c:\stlport-4.6.1\stlport\stl\_string.h
;	COMDAT ?_M_construct_null_aux@?$basic_string@DV?$char_traits@D@_STL@@V?$allocator@D@2@@_STL@@AAEXPADABU__true_type@2@@Z
_TEXT	SEGMENT
___p$ = 8						; size = 4
___formal$ = 12						; size = 4
?_M_construct_null_aux@?$basic_string@DV?$char_traits@D@_STL@@V?$allocator@D@2@@_STL@@AAEXPADABU__true_type@2@@Z PROC NEAR ; _STL::basic_string<char,_STL::char_traits<char>,_STL::allocator<char> >::_M_construct_null_aux, COMDAT
; _this$ = ecx

; 332  :     *__p = 0;

  00000	8b 44 24 04	 mov	 eax, DWORD PTR ___p$[esp-4]
  00004	c6 00 00	 mov	 BYTE PTR [eax], 0

; 333  :   }

  00007	c2 08 00	 ret	 8
?_M_construct_null_aux@?$basic_string@DV?$char_traits@D@_STL@@V?$allocator@D@2@@_STL@@AAEXPADABU__true_type@2@@Z ENDP ; _STL::basic_string<char,_STL::char_traits<char>,_STL::allocator<char> >::_M_construct_null_aux
_TEXT	ENDS
PUBLIC	??$max@I@_STL@@YAABIABI0@Z			; _STL::max<unsigned int>
; Function compile flags: /Ogsy
; File c:\stlport-4.6.1\stlport\stl\_algobase.h
;	COMDAT ??$max@I@_STL@@YAABIABI0@Z
_TEXT	SEGMENT
___a$ = 8						; size = 4
___b$ = 12						; size = 4
??$max@I@_STL@@YAABIABI0@Z PROC NEAR			; _STL::max<unsigned int>, COMDAT

; 79   : inline const _Tp& (max)(const _Tp& __a, const _Tp& __b) {  return  __a < __b ? __b : __a; }

  00000	8b 44 24 04	 mov	 eax, DWORD PTR ___a$[esp-4]
  00004	8b 10		 mov	 edx, DWORD PTR [eax]
  00006	8b 4c 24 08	 mov	 ecx, DWORD PTR ___b$[esp-4]
  0000a	3b 11		 cmp	 edx, DWORD PTR [ecx]
  0000c	73 02		 jae	 SHORT $L100816
  0000e	8b c1		 mov	 eax, ecx
$L100816:
  00010	c3		 ret	 0
??$max@I@_STL@@YAABIABI0@Z ENDP				; _STL::max<unsigned int>
_TEXT	ENDS
PUBLIC	?_Ret@?$_OKToMemCpy@DD@_STL@@SA?AU__true_type@2@XZ ; _STL::_OKToMemCpy<char,char>::_Ret
; Function compile flags: /Ogsy
; File c:\stlport-4.6.1\stlport\stl\type_traits.h
;	COMDAT ?_Ret@?$_OKToMemCpy@DD@_STL@@SA?AU__true_type@2@XZ
_TEXT	SEGMENT
$T100820 = -1						; size = 1
?_Ret@?$_OKToMemCpy@DD@_STL@@SA?AU__true_type@2@XZ PROC NEAR ; _STL::_OKToMemCpy<char,char>::_Ret, COMDAT

; 361  :   static _Type _Ret() { return _Type(); }

  00000	55		 push	 ebp
  00001	8b ec		 mov	 ebp, esp
  00003	51		 push	 ecx
  00004	57		 push	 edi
  00005	33 c0		 xor	 eax, eax
  00007	8d 7d ff	 lea	 edi, DWORD PTR $T100820[ebp]
  0000a	aa		 stosb
  0000b	8a 45 ff	 mov	 al, BYTE PTR $T100820[ebp]
  0000e	5f		 pop	 edi
  0000f	c9		 leave
  00010	c3		 ret	 0
?_Ret@?$_OKToMemCpy@DD@_STL@@SA?AU__true_type@2@XZ ENDP	; _STL::_OKToMemCpy<char,char>::_Ret
_TEXT	ENDS
PUBLIC	??$_IsOKToMemCpy@DD@_STL@@YA?AU?$_OKToMemCpy@DD@0@PAD0@Z ; _STL::_IsOKToMemCpy<char,char>
; Function compile flags: /Ogsy
;	COMDAT ??$_IsOKToMemCpy@DD@_STL@@YA?AU?$_OKToMemCpy@DD@0@PAD0@Z
_TEXT	SEGMENT
$T100823 = -1						; size = 1
___formal$ = 8						; size = 4
___formal$ = 12						; size = 4
??$_IsOKToMemCpy@DD@_STL@@YA?AU?$_OKToMemCpy@DD@0@PAD0@Z PROC NEAR ; _STL::_IsOKToMemCpy<char,char>, COMDAT

; 365  : inline _OKToMemCpy<_Tp1, _Tp2> _IsOKToMemCpy(_Tp1*, _Tp2*)  {

  00000	55		 push	 ebp
  00001	8b ec		 mov	 ebp, esp
  00003	51		 push	 ecx
  00004	57		 push	 edi

; 366  :   return _OKToMemCpy<_Tp1, _Tp2>();

  00005	33 c0		 xor	 eax, eax
  00007	8d 7d ff	 lea	 edi, DWORD PTR $T100823[ebp]
  0000a	aa		 stosb
  0000b	8a 45 ff	 mov	 al, BYTE PTR $T100823[ebp]
  0000e	5f		 pop	 edi

; 367  : }

  0000f	c9		 leave
  00010	c3		 ret	 0
??$_IsOKToMemCpy@DD@_STL@@YA?AU?$_OKToMemCpy@DD@0@PAD0@Z ENDP ; _STL::_IsOKToMemCpy<char,char>
_TEXT	ENDS
PUBLIC	??$__copy_ptrs@PADPAD@_STL@@YAPADPAD00ABU__true_type@0@@Z ; _STL::__copy_ptrs<char *,char *>
; Function compile flags: /Ogsy
; File c:\stlport-4.6.1\stlport\stl\_algobase.h
;	COMDAT ??$__copy_ptrs@PADPAD@_STL@@YAPADPAD00ABU__true_type@0@@Z
_TEXT	SEGMENT
___first$ = 8						; size = 4
___last$ = 12						; size = 4
___result$ = 16						; size = 4
___formal$ = 20						; size = 4
??$__copy_ptrs@PADPAD@_STL@@YAPADPAD00ABU__true_type@0@@Z PROC NEAR ; _STL::__copy_ptrs<char *,char *>, COMDAT

; 195  : // we know they all pointers, so this cast is OK 
; 196  :   //  return (_OutputIter)__copy_trivial(&(*__first), &(*__last), &(*__result));
; 197  :   return (_OutputIter)__copy_trivial(__first, __last, __result);

  00000	ff 74 24 0c	 push	 DWORD PTR ___result$[esp-4]
  00004	ff 74 24 0c	 push	 DWORD PTR ___last$[esp]
  00008	ff 74 24 0c	 push	 DWORD PTR ___first$[esp+4]
  0000c	e8 00 00 00 00	 call	 ?__copy_trivial@_STL@@YAPAXPBX0PAX@Z ; _STL::__copy_trivial
  00011	83 c4 0c	 add	 esp, 12			; 0000000cH

; 198  : }

  00014	c3		 ret	 0
??$__copy_ptrs@PADPAD@_STL@@YAPADPAD00ABU__true_type@0@@Z ENDP ; _STL::__copy_ptrs<char *,char *>
_TEXT	ENDS
PUBLIC	?_FILE_I_avail@_STL@@YAHPBU_iobuf@@@Z		; _STL::_FILE_I_avail
; Function compile flags: /Ogsy
; File c:\stlport-4.6.1\stlport\stl\_stdio_file.h
;	COMDAT ?_FILE_I_avail@_STL@@YAHPBU_iobuf@@@Z
_TEXT	SEGMENT
___f$ = 8						; size = 4
?_FILE_I_avail@_STL@@YAHPBU_iobuf@@@Z PROC NEAR		; _STL::_FILE_I_avail, COMDAT

; 103  : inline ptrdiff_t _FILE_I_avail(const FILE *__f) { return __f->_cnt; }

  00000	8b 44 24 04	 mov	 eax, DWORD PTR ___f$[esp-4]
  00004	8b 40 04	 mov	 eax, DWORD PTR [eax+4]
  00007	c3		 ret	 0
?_FILE_I_avail@_STL@@YAHPBU_iobuf@@@Z ENDP		; _STL::_FILE_I_avail
_TEXT	ENDS
PUBLIC	?_FILE_I_postincr@_STL@@YAAADPAU_iobuf@@@Z	; _STL::_FILE_I_postincr
; Function compile flags: /Ogsy
;	COMDAT ?_FILE_I_postincr@_STL@@YAAADPAU_iobuf@@@Z
_TEXT	SEGMENT
___f$ = 8						; size = 4
?_FILE_I_postincr@_STL@@YAAADPAU_iobuf@@@Z PROC NEAR	; _STL::_FILE_I_postincr, COMDAT

; 108  :   { --__f->_cnt; return *(char*) (__f->_ptr++); }

  00000	8b 4c 24 04	 mov	 ecx, DWORD PTR ___f$[esp-4]
  00004	8b 01		 mov	 eax, DWORD PTR [ecx]
  00006	ff 49 04	 dec	 DWORD PTR [ecx+4]
  00009	8d 50 01	 lea	 edx, DWORD PTR [eax+1]
  0000c	89 11		 mov	 DWORD PTR [ecx], edx
  0000e	c3		 ret	 0
?_FILE_I_postincr@_STL@@YAAADPAU_iobuf@@@Z ENDP		; _STL::_FILE_I_postincr
_TEXT	ENDS
PUBLIC	?_FILE_I_set@_STL@@YAXPAU_iobuf@@PAD11@Z	; _STL::_FILE_I_set
; Function compile flags: /Ogsy
;	COMDAT ?_FILE_I_set@_STL@@YAXPAU_iobuf@@PAD11@Z
_TEXT	SEGMENT
___f$ = 8						; size = 4
___begin$ = 12						; size = 4
___next$ = 16						; size = 4
___end$ = 20						; size = 4
?_FILE_I_set@_STL@@YAXPAU_iobuf@@PAD11@Z PROC NEAR	; _STL::_FILE_I_set, COMDAT

; 117  :   __f->_base = (_File_ptr_type) __begin;

  00000	8b 44 24 04	 mov	 eax, DWORD PTR ___f$[esp-4]
  00004	8b 4c 24 08	 mov	 ecx, DWORD PTR ___begin$[esp-4]

; 118  :   __f->_ptr  = (_File_ptr_type) __next;
; 119  :   __f->_cnt  = __end - __next;

  00008	8b 54 24 10	 mov	 edx, DWORD PTR ___end$[esp-4]
  0000c	89 48 08	 mov	 DWORD PTR [eax+8], ecx
  0000f	8b 4c 24 0c	 mov	 ecx, DWORD PTR ___next$[esp-4]
  00013	2b d1		 sub	 edx, ecx
  00015	89 08		 mov	 DWORD PTR [eax], ecx
  00017	89 50 04	 mov	 DWORD PTR [eax+4], edx

; 120  : }

  0001a	c3		 ret	 0
?_FILE_I_set@_STL@@YAXPAU_iobuf@@PAD11@Z ENDP		; _STL::_FILE_I_set
_TEXT	ENDS
PUBLIC	?_FILE_O_avail@_STL@@YAHPBU_iobuf@@@Z		; _STL::_FILE_O_avail
; Function compile flags: /Ogsy
;	COMDAT ?_FILE_O_avail@_STL@@YAHPBU_iobuf@@@Z
_TEXT	SEGMENT
___f$ = 8						; size = 4
?_FILE_O_avail@_STL@@YAHPBU_iobuf@@@Z PROC NEAR		; _STL::_FILE_O_avail, COMDAT

; 736  : inline ptrdiff_t _FILE_O_avail(const FILE *__f) { return _FILE_I_avail(__f); }

  00000	8b 44 24 04	 mov	 eax, DWORD PTR ___f$[esp-4]
  00004	8b 40 04	 mov	 eax, DWORD PTR [eax+4]
  00007	c3		 ret	 0
?_FILE_O_avail@_STL@@YAHPBU_iobuf@@@Z ENDP		; _STL::_FILE_O_avail
_TEXT	ENDS
PUBLIC	?_FILE_O_postincr@_STL@@YAAADPAU_iobuf@@@Z	; _STL::_FILE_O_postincr
; Function compile flags: /Ogsy
;	COMDAT ?_FILE_O_postincr@_STL@@YAAADPAU_iobuf@@@Z
_TEXT	SEGMENT
___f$ = 8						; size = 4
?_FILE_O_postincr@_STL@@YAAADPAU_iobuf@@@Z PROC NEAR	; _STL::_FILE_O_postincr, COMDAT

; 739  : inline char& _FILE_O_postincr(FILE *__f) { return _FILE_I_postincr(__f); }

  00000	8b 4c 24 04	 mov	 ecx, DWORD PTR ___f$[esp-4]
  00004	8b 01		 mov	 eax, DWORD PTR [ecx]
  00006	ff 49 04	 dec	 DWORD PTR [ecx+4]
  00009	8d 50 01	 lea	 edx, DWORD PTR [eax+1]
  0000c	89 11		 mov	 DWORD PTR [ecx], edx
  0000e	c3		 ret	 0
?_FILE_O_postincr@_STL@@YAAADPAU_iobuf@@@Z ENDP		; _STL::_FILE_O_postincr
_TEXT	ENDS
PUBLIC	?_FILE_O_set@_STL@@YAXPAU_iobuf@@PAD11@Z	; _STL::_FILE_O_set
; Function compile flags: /Ogsy
;	COMDAT ?_FILE_O_set@_STL@@YAXPAU_iobuf@@PAD11@Z
_TEXT	SEGMENT
___f$ = 8						; size = 4
___begin$ = 12						; size = 4
___next$ = 16						; size = 4
___end$ = 20						; size = 4
?_FILE_O_set@_STL@@YAXPAU_iobuf@@PAD11@Z PROC NEAR	; _STL::_FILE_O_set, COMDAT

; 745  :   { _FILE_I_set(__f, __begin, __next, __end); }

  00000	8b 44 24 04	 mov	 eax, DWORD PTR ___f$[esp-4]
  00004	8b 4c 24 08	 mov	 ecx, DWORD PTR ___begin$[esp-4]
  00008	8b 54 24 10	 mov	 edx, DWORD PTR ___end$[esp-4]
  0000c	89 48 08	 mov	 DWORD PTR [eax+8], ecx
  0000f	8b 4c 24 0c	 mov	 ecx, DWORD PTR ___next$[esp-4]
  00013	2b d1		 sub	 edx, ecx
  00015	89 08		 mov	 DWORD PTR [eax], ecx
  00017	89 50 04	 mov	 DWORD PTR [eax+4], edx
  0001a	c3		 ret	 0
?_FILE_O_set@_STL@@YAXPAU_iobuf@@PAD11@Z ENDP		; _STL::_FILE_O_set
_TEXT	ENDS
PUBLIC	??_7?$basic_streambuf@DV?$char_traits@D@_STL@@@_STL@@6B@ ; _STL::basic_streambuf<char,_STL::char_traits<char> >::`vftable'
PUBLIC	??_G?$basic_streambuf@DV?$char_traits@D@_STL@@@_STL@@UAEPAXI@Z ; _STL::basic_streambuf<char,_STL::char_traits<char> >::`scalar deleting destructor'
PUBLIC	??_R4?$basic_streambuf@DV?$char_traits@D@_STL@@@_STL@@6B@ ; _STL::basic_streambuf<char,_STL::char_traits<char> >::`RTTI Complete Object Locator'
PUBLIC	??_R0?AV?$basic_streambuf@DV?$char_traits@D@_STL@@@_STL@@@8 ; _STL::basic_streambuf<char,_STL::char_traits<char> > `RTTI Type Descriptor'
PUBLIC	??_R3?$basic_streambuf@DV?$char_traits@D@_STL@@@_STL@@8 ; _STL::basic_streambuf<char,_STL::char_traits<char> >::`RTTI Class Hierarchy Descriptor'
PUBLIC	??_R2?$basic_streambuf@DV?$char_traits@D@_STL@@@_STL@@8 ; _STL::basic_streambuf<char,_STL::char_traits<char> >::`RTTI Base Class Array'
PUBLIC	??_R1A@?0A@A@?$basic_streambuf@DV?$char_traits@D@_STL@@@_STL@@8 ; _STL::basic_streambuf<char,_STL::char_traits<char> >::`RTTI Base Class Descriptor at (0,-1,0,0)'
PUBLIC	??0?$basic_streambuf@DV?$char_traits@D@_STL@@@_STL@@IAE@XZ ; _STL::basic_streambuf<char,_STL::char_traits<char> >::basic_streambuf<char,_STL::char_traits<char> >
EXTRN	?showmanyc@?$basic_streambuf@DV?$char_traits@D@_STL@@@_STL@@MAEHXZ:NEAR ; _STL::basic_streambuf<char,_STL::char_traits<char> >::showmanyc
EXTRN	?xsgetn@?$basic_streambuf@DV?$char_traits@D@_STL@@@_STL@@MAEHPADH@Z:NEAR ; _STL::basic_streambuf<char,_STL::char_traits<char> >::xsgetn
EXTRN	?underflow@?$basic_streambuf@DV?$char_traits@D@_STL@@@_STL@@MAEHXZ:NEAR ; _STL::basic_streambuf<char,_STL::char_traits<char> >::underflow
EXTRN	?uflow@?$basic_streambuf@DV?$char_traits@D@_STL@@@_STL@@MAEHXZ:NEAR ; _STL::basic_streambuf<char,_STL::char_traits<char> >::uflow
EXTRN	?pbackfail@?$basic_streambuf@DV?$char_traits@D@_STL@@@_STL@@MAEHH@Z:NEAR ; _STL::basic_streambuf<char,_STL::char_traits<char> >::pbackfail
EXTRN	?xsputn@?$basic_streambuf@DV?$char_traits@D@_STL@@@_STL@@MAEHPBDH@Z:NEAR ; _STL::basic_streambuf<char,_STL::char_traits<char> >::xsputn
EXTRN	?_M_xsputnc@?$basic_streambuf@DV?$char_traits@D@_STL@@@_STL@@MAEHDH@Z:NEAR ; _STL::basic_streambuf<char,_STL::char_traits<char> >::_M_xsputnc
EXTRN	?overflow@?$basic_streambuf@DV?$char_traits@D@_STL@@@_STL@@MAEHH@Z:NEAR ; _STL::basic_streambuf<char,_STL::char_traits<char> >::overflow
EXTRN	?imbue@?$basic_streambuf@DV?$char_traits@D@_STL@@@_STL@@MAEXABVlocale@2@@Z:NEAR ; _STL::basic_streambuf<char,_STL::char_traits<char> >::imbue
EXTRN	??_E?$basic_streambuf@DV?$char_traits@D@_STL@@@_STL@@UAEPAXI@Z:NEAR ; _STL::basic_streambuf<char,_STL::char_traits<char> >::`vector deleting destructor'
EXTRN	??0locale@_STL@@QAE@XZ:NEAR			; _STL::locale::locale
EXTRN	?setbuf@?$basic_streambuf@DV?$char_traits@D@_STL@@@_STL@@MAEPAV12@PADH@Z:NEAR ; _STL::basic_streambuf<char,_STL::char_traits<char> >::setbuf
EXTRN	?seekoff@?$basic_streambuf@DV?$char_traits@D@_STL@@@_STL@@MAE?AV?$fpos@H@2@JHH@Z:NEAR ; _STL::basic_streambuf<char,_STL::char_traits<char> >::seekoff
EXTRN	?seekpos@?$basic_streambuf@DV?$char_traits@D@_STL@@@_STL@@MAE?AV?$fpos@H@2@V32@H@Z:NEAR ; _STL::basic_streambuf<char,_STL::char_traits<char> >::seekpos
EXTRN	?sync@?$basic_streambuf@DV?$char_traits@D@_STL@@@_STL@@MAEHXZ:NEAR ; _STL::basic_streambuf<char,_STL::char_traits<char> >::sync
;	COMDAT ??_7?$basic_streambuf@DV?$char_traits@D@_STL@@@_STL@@6B@
CONST	SEGMENT
??_7?$basic_streambuf@DV?$char_traits@D@_STL@@@_STL@@6B@ DD FLAT:??_R4?$basic_streambuf@DV?$char_traits@D@_STL@@@_STL@@6B@ ; _STL::basic_streambuf<char,_STL::char_traits<char> >::`vftable'
	DD	FLAT:??_E?$basic_streambuf@DV?$char_traits@D@_STL@@@_STL@@UAEPAXI@Z
	DD	FLAT:?setbuf@?$basic_streambuf@DV?$char_traits@D@_STL@@@_STL@@MAEPAV12@PADH@Z
	DD	FLAT:?seekoff@?$basic_streambuf@DV?$char_traits@D@_STL@@@_STL@@MAE?AV?$fpos@H@2@JHH@Z
	DD	FLAT:?seekpos@?$basic_streambuf@DV?$char_traits@D@_STL@@@_STL@@MAE?AV?$fpos@H@2@V32@H@Z
	DD	FLAT:?sync@?$basic_streambuf@DV?$char_traits@D@_STL@@@_STL@@MAEHXZ
	DD	FLAT:?showmanyc@?$basic_streambuf@DV?$char_traits@D@_STL@@@_STL@@MAEHXZ
	DD	FLAT:?xsgetn@?$basic_streambuf@DV?$char_traits@D@_STL@@@_STL@@MAEHPADH@Z
	DD	FLAT:?underflow@?$basic_streambuf@DV?$char_traits@D@_STL@@@_STL@@MAEHXZ
	DD	FLAT:?uflow@?$basic_streambuf@DV?$char_traits@D@_STL@@@_STL@@MAEHXZ
	DD	FLAT:?pbackfail@?$basic_streambuf@DV?$char_traits@D@_STL@@@_STL@@MAEHH@Z
	DD	FLAT:?xsputn@?$basic_streambuf@DV?$char_traits@D@_STL@@@_STL@@MAEHPBDH@Z
	DD	FLAT:?_M_xsputnc@?$basic_streambuf@DV?$char_traits@D@_STL@@@_STL@@MAEHDH@Z
	DD	FLAT:?overflow@?$basic_streambuf@DV?$char_traits@D@_STL@@@_STL@@MAEHH@Z
	DD	FLAT:?imbue@?$basic_streambuf@DV?$char_traits@D@_STL@@@_STL@@MAEXABVlocale@2@@Z
CONST	ENDS
;	COMDAT ??_R4?$basic_streambuf@DV?$char_traits@D@_STL@@@_STL@@6B@
rdata$r	SEGMENT
??_R4?$basic_streambuf@DV?$char_traits@D@_STL@@@_STL@@6B@ DD 00H ; _STL::basic_streambuf<char,_STL::char_traits<char> >::`RTTI Complete Object Locator'
	DD	00H
	DD	00H
	DD	FLAT:??_R0?AV?$basic_streambuf@DV?$char_traits@D@_STL@@@_STL@@@8
	DD	FLAT:??_R3?$basic_streambuf@DV?$char_traits@D@_STL@@@_STL@@8
rdata$r	ENDS
;	COMDAT ??_R0?AV?$basic_streambuf@DV?$char_traits@D@_STL@@@_STL@@@8
_DATA	SEGMENT
??_R0?AV?$basic_streambuf@DV?$char_traits@D@_STL@@@_STL@@@8 DD FLAT:??_7type_info@@6B@ ; _STL::basic_streambuf<char,_STL::char_traits<char> > `RTTI Type Descriptor'
	DD	00H
	DB	'.?AV?$basic_streambuf@DV?$char_traits@D@_STL@@@_STL@@', 00H
_DATA	ENDS
;	COMDAT ??_R3?$basic_streambuf@DV?$char_traits@D@_STL@@@_STL@@8
rdata$r	SEGMENT
??_R3?$basic_streambuf@DV?$char_traits@D@_STL@@@_STL@@8 DD 00H ; _STL::basic_streambuf<char,_STL::char_traits<char> >::`RTTI Class Hierarchy Descriptor'
	DD	00H
	DD	01H
	DD	FLAT:??_R2?$basic_streambuf@DV?$char_traits@D@_STL@@@_STL@@8
rdata$r	ENDS
;	COMDAT ??_R2?$basic_streambuf@DV?$char_traits@D@_STL@@@_STL@@8
rdata$r	SEGMENT
??_R2?$basic_streambuf@DV?$char_traits@D@_STL@@@_STL@@8 DD FLAT:??_R1A@?0A@A@?$basic_streambuf@DV?$char_traits@D@_STL@@@_STL@@8 ; _STL::basic_streambuf<char,_STL::char_traits<char> >::`RTTI Base Class Array'
rdata$r	ENDS
;	COMDAT ??_R1A@?0A@A@?$basic_streambuf@DV?$char_traits@D@_STL@@@_STL@@8
rdata$r	SEGMENT
??_R1A@?0A@A@?$basic_streambuf@DV?$char_traits@D@_STL@@@_STL@@8 DD FLAT:??_R0?AV?$basic_streambuf@DV?$char_traits@D@_STL@@@_STL@@@8 ; _STL::basic_streambuf<char,_STL::char_traits<char> >::`RTTI Base Class Descriptor at (0,-1,0,0)'
	DD	00H
	DD	00H
	DD	0ffffffffH
	DD	00H
	DD	00H
; Function compile flags: /Ogsy
; File c:\stlport-4.6.1\stlport\stl\_streambuf.h
rdata$r	ENDS
;	COMDAT ??0?$basic_streambuf@DV?$char_traits@D@_STL@@@_STL@@IAE@XZ
_TEXT	SEGMENT
??0?$basic_streambuf@DV?$char_traits@D@_STL@@@_STL@@IAE@XZ PROC NEAR ; _STL::basic_streambuf<char,_STL::char_traits<char> >::basic_streambuf<char,_STL::char_traits<char> >, COMDAT
; _this$ = ecx

; 352  :   {

  00000	56		 push	 esi
  00001	8b f1		 mov	 esi, ecx
  00003	8d 46 0c	 lea	 eax, DWORD PTR [esi+12]
  00006	89 46 04	 mov	 DWORD PTR [esi+4], eax
  00009	8d 46 2c	 lea	 eax, DWORD PTR [esi+44]
  0000c	8d 4e 4c	 lea	 ecx, DWORD PTR [esi+76]
  0000f	c7 06 00 00 00
	00		 mov	 DWORD PTR [esi], OFFSET FLAT:??_7?$basic_streambuf@DV?$char_traits@D@_STL@@@_STL@@6B@
  00015	89 46 08	 mov	 DWORD PTR [esi+8], eax
  00018	e8 00 00 00 00	 call	 ??0locale@_STL@@QAE@XZ	; _STL::locale::locale
  0001d	33 c9		 xor	 ecx, ecx
  0001f	89 4e 50	 mov	 DWORD PTR [esi+80], ecx

; 353  :     // _M_lock._M_initialize();
; 354  :     _FILE_I_set(_M_get, 0, 0, 0);

  00022	8b 46 04	 mov	 eax, DWORD PTR [esi+4]
  00025	89 48 08	 mov	 DWORD PTR [eax+8], ecx
  00028	89 08		 mov	 DWORD PTR [eax], ecx
  0002a	89 48 04	 mov	 DWORD PTR [eax+4], ecx

; 355  :     _FILE_O_set(_M_put, 0, 0, 0);

  0002d	8b 46 08	 mov	 eax, DWORD PTR [esi+8]
  00030	89 48 08	 mov	 DWORD PTR [eax+8], ecx
  00033	89 08		 mov	 DWORD PTR [eax], ecx
  00035	89 48 04	 mov	 DWORD PTR [eax+4], ecx

; 356  :   }

  00038	8b c6		 mov	 eax, esi
  0003a	5e		 pop	 esi
  0003b	c3		 ret	 0
??0?$basic_streambuf@DV?$char_traits@D@_STL@@@_STL@@IAE@XZ ENDP ; _STL::basic_streambuf<char,_STL::char_traits<char> >::basic_streambuf<char,_STL::char_traits<char> >
_TEXT	ENDS
PUBLIC	?setg@?$basic_streambuf@DV?$char_traits@D@_STL@@@_STL@@IAEXPAD00@Z ; _STL::basic_streambuf<char,_STL::char_traits<char> >::setg
; Function compile flags: /Ogsy
;	COMDAT ?setg@?$basic_streambuf@DV?$char_traits@D@_STL@@@_STL@@IAEXPAD00@Z
_TEXT	SEGMENT
___gbegin$ = 8						; size = 4
___gnext$ = 12						; size = 4
___gend$ = 16						; size = 4
?setg@?$basic_streambuf@DV?$char_traits@D@_STL@@@_STL@@IAEXPAD00@Z PROC NEAR ; _STL::basic_streambuf<char,_STL::char_traits<char> >::setg, COMDAT
; _this$ = ecx

; 367  :     { _FILE_I_set(_M_get, __gbegin, __gnext, __gend); }

  00000	8b 41 04	 mov	 eax, DWORD PTR [ecx+4]
  00003	8b 4c 24 04	 mov	 ecx, DWORD PTR ___gbegin$[esp-4]
  00007	8b 54 24 0c	 mov	 edx, DWORD PTR ___gend$[esp-4]
  0000b	89 48 08	 mov	 DWORD PTR [eax+8], ecx
  0000e	8b 4c 24 08	 mov	 ecx, DWORD PTR ___gnext$[esp-4]
  00012	2b d1		 sub	 edx, ecx
  00014	89 08		 mov	 DWORD PTR [eax], ecx
  00016	89 50 04	 mov	 DWORD PTR [eax+4], edx
  00019	c2 0c 00	 ret	 12			; 0000000cH
?setg@?$basic_streambuf@DV?$char_traits@D@_STL@@@_STL@@IAEXPAD00@Z ENDP ; _STL::basic_streambuf<char,_STL::char_traits<char> >::setg
_TEXT	ENDS
PUBLIC	?setp@?$basic_streambuf@DV?$char_traits@D@_STL@@@_STL@@IAEXPAD0@Z ; _STL::basic_streambuf<char,_STL::char_traits<char> >::setp
; Function compile flags: /Ogsy
;	COMDAT ?setp@?$basic_streambuf@DV?$char_traits@D@_STL@@@_STL@@IAEXPAD0@Z
_TEXT	SEGMENT
___pbegin$ = 8						; size = 4
___pend$ = 12						; size = 4
?setp@?$basic_streambuf@DV?$char_traits@D@_STL@@@_STL@@IAEXPAD0@Z PROC NEAR ; _STL::basic_streambuf<char,_STL::char_traits<char> >::setp, COMDAT
; _this$ = ecx

; 389  :     { _FILE_O_set(_M_put, __pbegin, __pbegin, __pend); }

  00000	8b 41 08	 mov	 eax, DWORD PTR [ecx+8]
  00003	8b 4c 24 04	 mov	 ecx, DWORD PTR ___pbegin$[esp-4]
  00007	8b 54 24 08	 mov	 edx, DWORD PTR ___pend$[esp-4]
  0000b	2b d1		 sub	 edx, ecx
  0000d	89 48 08	 mov	 DWORD PTR [eax+8], ecx
  00010	89 08		 mov	 DWORD PTR [eax], ecx
  00012	89 50 04	 mov	 DWORD PTR [eax+4], edx
  00015	c2 08 00	 ret	 8
?setp@?$basic_streambuf@DV?$char_traits@D@_STL@@@_STL@@IAEXPAD0@Z ENDP ; _STL::basic_streambuf<char,_STL::char_traits<char> >::setp
_TEXT	ENDS
PUBLIC	?pubsync@?$basic_streambuf@DV?$char_traits@D@_STL@@@_STL@@QAEHXZ ; _STL::basic_streambuf<char,_STL::char_traits<char> >::pubsync
; Function compile flags: /Ogsy
;	COMDAT ?pubsync@?$basic_streambuf@DV?$char_traits@D@_STL@@@_STL@@QAEHXZ
_TEXT	SEGMENT
?pubsync@?$basic_streambuf@DV?$char_traits@D@_STL@@@_STL@@QAEHXZ PROC NEAR ; _STL::basic_streambuf<char,_STL::char_traits<char> >::pubsync, COMDAT
; _this$ = ecx

; 411  :   int pubsync() { return this->sync(); }

  00000	8b 01		 mov	 eax, DWORD PTR [ecx]
  00002	ff 60 10	 jmp	 DWORD PTR [eax+16]
?pubsync@?$basic_streambuf@DV?$char_traits@D@_STL@@@_STL@@QAEHXZ ENDP ; _STL::basic_streambuf<char,_STL::char_traits<char> >::pubsync
_TEXT	ENDS
PUBLIC	?sputc@?$basic_streambuf@DV?$char_traits@D@_STL@@@_STL@@QAEHD@Z ; _STL::basic_streambuf<char,_STL::char_traits<char> >::sputc
; Function compile flags: /Ogsy
;	COMDAT ?sputc@?$basic_streambuf@DV?$char_traits@D@_STL@@@_STL@@QAEHD@Z
_TEXT	SEGMENT
___c$ = 8						; size = 1
?sputc@?$basic_streambuf@DV?$char_traits@D@_STL@@@_STL@@QAEHD@Z PROC NEAR ; _STL::basic_streambuf<char,_STL::char_traits<char> >::sputc, COMDAT
; _this$ = ecx

; 428  :     int_type __res;
; 429  : 	if( _FILE_O_avail(_M_put) > 0 )

  00000	8b 41 08	 mov	 eax, DWORD PTR [ecx+8]
  00003	83 78 04 00	 cmp	 DWORD PTR [eax+4], 0
  00007	7e 15		 jle	 SHORT $L81027

; 430  : 	{
; 431  : 		_FILE_O_postincr(_M_put) = __c;

  00009	8b 08		 mov	 ecx, DWORD PTR [eax]
  0000b	ff 48 04	 dec	 DWORD PTR [eax+4]
  0000e	8d 51 01	 lea	 edx, DWORD PTR [ecx+1]
  00011	89 10		 mov	 DWORD PTR [eax], edx
  00013	8a 44 24 04	 mov	 al, BYTE PTR ___c$[esp-4]
  00017	88 01		 mov	 BYTE PTR [ecx], al

; 432  : 		__res = traits_type::to_int_type(__c);

  00019	0f b6 c0	 movzx	 eax, al

; 433  : 	}
; 434  : 	else

  0001c	eb 0b		 jmp	 SHORT $L81028
$L81027:

; 435  :       __res = this->overflow(traits_type::to_int_type(__c));

  0001e	0f b6 54 24 04	 movzx	 edx, BYTE PTR ___c$[esp-4]
  00023	8b 01		 mov	 eax, DWORD PTR [ecx]
  00025	52		 push	 edx
  00026	ff 50 30	 call	 DWORD PTR [eax+48]
$L81028:

; 436  :     return __res;
; 437  :   }

  00029	c2 04 00	 ret	 4
?sputc@?$basic_streambuf@DV?$char_traits@D@_STL@@@_STL@@QAEHD@Z ENDP ; _STL::basic_streambuf<char,_STL::char_traits<char> >::sputc
_TEXT	ENDS
PUBLIC	?sputn@?$basic_streambuf@DV?$char_traits@D@_STL@@@_STL@@QAEHPBDH@Z ; _STL::basic_streambuf<char,_STL::char_traits<char> >::sputn
; Function compile flags: /Ogsy
;	COMDAT ?sputn@?$basic_streambuf@DV?$char_traits@D@_STL@@@_STL@@QAEHPBDH@Z
_TEXT	SEGMENT
___s$ = 8						; size = 4
___n$ = 12						; size = 4
?sputn@?$basic_streambuf@DV?$char_traits@D@_STL@@@_STL@@QAEHPBDH@Z PROC NEAR ; _STL::basic_streambuf<char,_STL::char_traits<char> >::sputn, COMDAT
; _this$ = ecx

; 441  :     { return this->xsputn(__s, __n); }

  00000	8b 01		 mov	 eax, DWORD PTR [ecx]
  00002	ff 60 28	 jmp	 DWORD PTR [eax+40]
?sputn@?$basic_streambuf@DV?$char_traits@D@_STL@@@_STL@@QAEHPBDH@Z ENDP ; _STL::basic_streambuf<char,_STL::char_traits<char> >::sputn
_TEXT	ENDS
PUBLIC	?_M_sputnc@?$basic_streambuf@DV?$char_traits@D@_STL@@@_STL@@QAEHDH@Z ; _STL::basic_streambuf<char,_STL::char_traits<char> >::_M_sputnc
; Function compile flags: /Ogsy
;	COMDAT ?_M_sputnc@?$basic_streambuf@DV?$char_traits@D@_STL@@@_STL@@QAEHDH@Z
_TEXT	SEGMENT
___c$ = 8						; size = 1
___n$ = 12						; size = 4
?_M_sputnc@?$basic_streambuf@DV?$char_traits@D@_STL@@@_STL@@QAEHDH@Z PROC NEAR ; _STL::basic_streambuf<char,_STL::char_traits<char> >::_M_sputnc, COMDAT
; _this$ = ecx

; 445  :     { return this->_M_xsputnc(__c, __n); }

  00000	8b 01		 mov	 eax, DWORD PTR [ecx]
  00002	ff 60 2c	 jmp	 DWORD PTR [eax+44]
?_M_sputnc@?$basic_streambuf@DV?$char_traits@D@_STL@@@_STL@@QAEHDH@Z ENDP ; _STL::basic_streambuf<char,_STL::char_traits<char> >::_M_sputnc
_TEXT	ENDS
EXTRN	??1?$basic_streambuf@DV?$char_traits@D@_STL@@@_STL@@UAE@XZ:NEAR ; _STL::basic_streambuf<char,_STL::char_traits<char> >::~basic_streambuf<char,_STL::char_traits<char> >
; Function compile flags: /Ogsy
;	COMDAT ??_G?$basic_streambuf@DV?$char_traits@D@_STL@@@_STL@@UAEPAXI@Z
_TEXT	SEGMENT
___flags$ = 8						; size = 4
??_G?$basic_streambuf@DV?$char_traits@D@_STL@@@_STL@@UAEPAXI@Z PROC NEAR ; _STL::basic_streambuf<char,_STL::char_traits<char> >::`scalar deleting destructor', COMDAT
; _this$ = ecx
  00000	56		 push	 esi
  00001	8b f1		 mov	 esi, ecx
  00003	e8 00 00 00 00	 call	 ??1?$basic_streambuf@DV?$char_traits@D@_STL@@@_STL@@UAE@XZ ; _STL::basic_streambuf<char,_STL::char_traits<char> >::~basic_streambuf<char,_STL::char_traits<char> >
  00008	f6 44 24 08 01	 test	 BYTE PTR ___flags$[esp], 1
  0000d	74 07		 je	 SHORT $L81055
  0000f	56		 push	 esi
  00010	e8 00 00 00 00	 call	 ??3@YAXPAX@Z		; operator delete
  00015	59		 pop	 ecx
$L81055:
  00016	8b c6		 mov	 eax, esi
  00018	5e		 pop	 esi
  00019	c2 04 00	 ret	 4
??_G?$basic_streambuf@DV?$char_traits@D@_STL@@@_STL@@UAEPAXI@Z ENDP ; _STL::basic_streambuf<char,_STL::char_traits<char> >::`scalar deleting destructor'
_TEXT	ENDS
PUBLIC	?unshift@?$codecvt@DDH@_STL@@QBE?AW4result@codecvt_base@2@AAHPAD1AAPAD@Z ; _STL::codecvt<char,char,int>::unshift
; Function compile flags: /Ogsy
; File c:\stlport-4.6.1\stlport\stl\_codecvt.h
;	COMDAT ?unshift@?$codecvt@DDH@_STL@@QBE?AW4result@codecvt_base@2@AAHPAD1AAPAD@Z
_TEXT	SEGMENT
___state$ = 8						; size = 4
___to$ = 12						; size = 4
___to_limit$ = 16					; size = 4
___to_next$ = 20					; size = 4
?unshift@?$codecvt@DDH@_STL@@QBE?AW4result@codecvt_base@2@AAHPAD1AAPAD@Z PROC NEAR ; _STL::codecvt<char,char,int>::unshift, COMDAT
; _this$ = ecx

; 76   :     { return do_unshift(__state, __to, __to_limit, __to_next); }

  00000	8b 01		 mov	 eax, DWORD PTR [ecx]
  00002	ff 60 0c	 jmp	 DWORD PTR [eax+12]
?unshift@?$codecvt@DDH@_STL@@QBE?AW4result@codecvt_base@2@AAHPAD1AAPAD@Z ENDP ; _STL::codecvt<char,char,int>::unshift
_TEXT	ENDS
PUBLIC	?encoding@?$codecvt@DDH@_STL@@QBEHXZ		; _STL::codecvt<char,char,int>::encoding
; Function compile flags: /Ogsy
;	COMDAT ?encoding@?$codecvt@DDH@_STL@@QBEHXZ
_TEXT	SEGMENT
?encoding@?$codecvt@DDH@_STL@@QBEHXZ PROC NEAR		; _STL::codecvt<char,char,int>::encoding, COMDAT
; _this$ = ecx

; 90   :   int encoding() const _STLP_NOTHROW { return do_encoding(); }

  00000	8b 01		 mov	 eax, DWORD PTR [ecx]
  00002	ff 60 10	 jmp	 DWORD PTR [eax+16]
?encoding@?$codecvt@DDH@_STL@@QBEHXZ ENDP		; _STL::codecvt<char,char,int>::encoding
_TEXT	ENDS
PUBLIC	?always_noconv@?$codecvt@DDH@_STL@@QBE_NXZ	; _STL::codecvt<char,char,int>::always_noconv
; Function compile flags: /Ogsy
;	COMDAT ?always_noconv@?$codecvt@DDH@_STL@@QBE_NXZ
_TEXT	SEGMENT
?always_noconv@?$codecvt@DDH@_STL@@QBE_NXZ PROC NEAR	; _STL::codecvt<char,char,int>::always_noconv, COMDAT
; _this$ = ecx

; 92   :   bool always_noconv() const _STLP_NOTHROW { return do_always_noconv(); }

  00000	8b 01		 mov	 eax, DWORD PTR [ecx]
  00002	ff 60 14	 jmp	 DWORD PTR [eax+20]
?always_noconv@?$codecvt@DDH@_STL@@QBE_NXZ ENDP		; _STL::codecvt<char,char,int>::always_noconv
_TEXT	ENDS
PUBLIC	?max_length@?$codecvt@DDH@_STL@@QBEHXZ		; _STL::codecvt<char,char,int>::max_length
; Function compile flags: /Ogsy
;	COMDAT ?max_length@?$codecvt@DDH@_STL@@QBEHXZ
_TEXT	SEGMENT
?max_length@?$codecvt@DDH@_STL@@QBEHXZ PROC NEAR	; _STL::codecvt<char,char,int>::max_length, COMDAT
; _this$ = ecx

; 99   :   int max_length() const _STLP_NOTHROW { return do_max_length(); }

  00000	8b 01		 mov	 eax, DWORD PTR [ecx]
  00002	ff 60 1c	 jmp	 DWORD PTR [eax+28]
?max_length@?$codecvt@DDH@_STL@@QBEHXZ ENDP		; _STL::codecvt<char,char,int>::max_length
_TEXT	ENDS
PUBLIC	?__is_open@_Filebuf_base@_STL@@QBE_NXZ		; _STL::_Filebuf_base::__is_open
; Function compile flags: /Ogsy
; File c:\stlport-4.6.1\stlport\stl\_fstream.h
;	COMDAT ?__is_open@_Filebuf_base@_STL@@QBE_NXZ
_TEXT	SEGMENT
?__is_open@_Filebuf_base@_STL@@QBE_NXZ PROC NEAR	; _STL::_Filebuf_base::__is_open, COMDAT
; _this$ = ecx

; 150  :   bool __is_open()      const { return (_M_is_open !=0 ); } 

  00000	33 c0		 xor	 eax, eax
  00002	38 41 0c	 cmp	 BYTE PTR [ecx+12], al
  00005	0f 95 c0	 setne	 al
  00008	c3		 ret	 0
?__is_open@_Filebuf_base@_STL@@QBE_NXZ ENDP		; _STL::_Filebuf_base::__is_open
_TEXT	ENDS
PUBLIC	??0_List_iterator_base@_STL@@QAE@PAU_List_node_base@1@@Z ; _STL::_List_iterator_base::_List_iterator_base
; Function compile flags: /Ogsy
; File c:\stlport-4.6.1\stlport\stl\_list.h
;	COMDAT ??0_List_iterator_base@_STL@@QAE@PAU_List_node_base@1@@Z
_TEXT	SEGMENT
___x$ = 8						; size = 4
??0_List_iterator_base@_STL@@QAE@PAU_List_node_base@1@@Z PROC NEAR ; _STL::_List_iterator_base::_List_iterator_base, COMDAT
; _this$ = ecx

; 95   :   _List_iterator_base(_List_node_base* __x) : _M_node(__x) {}

  00000	8b c1		 mov	 eax, ecx
  00002	8b 4c 24 04	 mov	 ecx, DWORD PTR ___x$[esp-4]
  00006	89 08		 mov	 DWORD PTR [eax], ecx
  00008	c2 04 00	 ret	 4
??0_List_iterator_base@_STL@@QAE@PAU_List_node_base@1@@Z ENDP ; _STL::_List_iterator_base::_List_iterator_base
_TEXT	ENDS
PUBLIC	?_M_incr@_List_iterator_base@_STL@@QAEXXZ	; _STL::_List_iterator_base::_M_incr
; Function compile flags: /Ogsy
;	COMDAT ?_M_incr@_List_iterator_base@_STL@@QAEXXZ
_TEXT	SEGMENT
?_M_incr@_List_iterator_base@_STL@@QAEXXZ PROC NEAR	; _STL::_List_iterator_base::_M_incr, COMDAT
; _this$ = ecx

; 98   :   void _M_incr() { _M_node = _M_node->_M_next; }

  00000	8b 01		 mov	 eax, DWORD PTR [ecx]
  00002	8b 00		 mov	 eax, DWORD PTR [eax]
  00004	89 01		 mov	 DWORD PTR [ecx], eax
  00006	c3		 ret	 0
?_M_incr@_List_iterator_base@_STL@@QAEXXZ ENDP		; _STL::_List_iterator_base::_M_incr
_TEXT	ENDS
PUBLIC	??9_List_iterator_base@_STL@@QBE_NABU01@@Z	; _STL::_List_iterator_base::operator!=
; Function compile flags: /Ogsy
;	COMDAT ??9_List_iterator_base@_STL@@QBE_NABU01@@Z
_TEXT	SEGMENT
___y$ = 8						; size = 4
??9_List_iterator_base@_STL@@QBE_NABU01@@Z PROC NEAR	; _STL::_List_iterator_base::operator!=, COMDAT
; _this$ = ecx

; 104  :     return _M_node != __y._M_node; 

  00000	8b 01		 mov	 eax, DWORD PTR [ecx]
  00002	8b 54 24 04	 mov	 edx, DWORD PTR ___y$[esp-4]
  00006	33 c9		 xor	 ecx, ecx
  00008	3b 02		 cmp	 eax, DWORD PTR [edx]
  0000a	0f 95 c1	 setne	 cl
  0000d	8a c1		 mov	 al, cl

; 105  :   }

  0000f	c2 04 00	 ret	 4
??9_List_iterator_base@_STL@@QBE_NABU01@@Z ENDP		; _STL::_List_iterator_base::operator!=
_TEXT	ENDS
PUBLIC	?eof@?$__char_traits_base@DH@_STL@@SAHXZ	; _STL::__char_traits_base<char,int>::eof
; Function compile flags: /Ogsy
; File c:\stlport-4.6.1\stlport\stl\char_traits.h
;	COMDAT ?eof@?$__char_traits_base@DH@_STL@@SAHXZ
_TEXT	SEGMENT
?eof@?$__char_traits_base@DH@_STL@@SAHXZ PROC NEAR	; _STL::__char_traits_base<char,int>::eof, COMDAT

; 197  :     return (int_type)-1;

  00000	83 c8 ff	 or	 eax, -1

; 198  :     //    return __STATIC_CAST(int_type,-1);
; 199  :   }

  00003	c3		 ret	 0
?eof@?$__char_traits_base@DH@_STL@@SAHXZ ENDP		; _STL::__char_traits_base<char,int>::eof
_TEXT	ENDS
PUBLIC	??1?$allocator@D@_STL@@QAE@XZ			; _STL::allocator<char>::~allocator<char>
; Function compile flags: /Ogsy
; File c:\stlport-4.6.1\stlport\stl\_alloc.h
;	COMDAT ??1?$allocator@D@_STL@@QAE@XZ
_TEXT	SEGMENT
??1?$allocator@D@_STL@@QAE@XZ PROC NEAR			; _STL::allocator<char>::~allocator<char>, COMDAT
; _this$ = ecx

; 350  :   ~allocator() _STLP_NOTHROW {}

  00000	c3		 ret	 0
??1?$allocator@D@_STL@@QAE@XZ ENDP			; _STL::allocator<char>::~allocator<char>
_TEXT	ENDS
PUBLIC	??1?$basic_ios@DV?$char_traits@D@_STL@@@_STL@@UAE@XZ ; _STL::basic_ios<char,_STL::char_traits<char> >::~basic_ios<char,_STL::char_traits<char> >
EXTRN	??1ios_base@_STL@@UAE@XZ:NEAR			; _STL::ios_base::~ios_base
; Function compile flags: /Ogsy
; File c:\stlport-4.6.1\stlport\stl\_ios.h
;	COMDAT ??1?$basic_ios@DV?$char_traits@D@_STL@@@_STL@@UAE@XZ
_TEXT	SEGMENT
??1?$basic_ios@DV?$char_traits@D@_STL@@@_STL@@UAE@XZ PROC NEAR ; _STL::basic_ios<char,_STL::char_traits<char> >::~basic_ios<char,_STL::char_traits<char> >, COMDAT
; _this$ = ecx

; 58   :   virtual ~basic_ios() {}

  00000	c7 01 00 00 00
	00		 mov	 DWORD PTR [ecx], OFFSET FLAT:??_7?$basic_ios@DV?$char_traits@D@_STL@@@_STL@@6B@
  00006	e9 00 00 00 00	 jmp	 ??1ios_base@_STL@@UAE@XZ ; _STL::ios_base::~ios_base
??1?$basic_ios@DV?$char_traits@D@_STL@@@_STL@@UAE@XZ ENDP ; _STL::basic_ios<char,_STL::char_traits<char> >::~basic_ios<char,_STL::char_traits<char> >
_TEXT	ENDS
PUBLIC	?_M_write@?$basic_filebuf@DV?$char_traits@D@_STL@@@_STL@@QAE_NPADH@Z ; _STL::basic_filebuf<char,_STL::char_traits<char> >::_M_write
EXTRN	?_M_write@_Filebuf_base@_STL@@QAE_NPADH@Z:NEAR	; _STL::_Filebuf_base::_M_write
; Function compile flags: /Ogsy
; File c:\stlport-4.6.1\stlport\stl\_fstream.h
;	COMDAT ?_M_write@?$basic_filebuf@DV?$char_traits@D@_STL@@@_STL@@QAE_NPADH@Z
_TEXT	SEGMENT
___buf$ = 8						; size = 4
___n$ = 12						; size = 4
?_M_write@?$basic_filebuf@DV?$char_traits@D@_STL@@@_STL@@QAE_NPADH@Z PROC NEAR ; _STL::basic_filebuf<char,_STL::char_traits<char> >::_M_write, COMDAT
; _this$ = ecx

; 349  :   bool _M_write(char* __buf,  ptrdiff_t __n) {return _M_base._M_write(__buf, __n); }

  00000	83 c1 54	 add	 ecx, 84			; 00000054H
  00003	e9 00 00 00 00	 jmp	 ?_M_write@_Filebuf_base@_STL@@QAE_NPADH@Z ; _STL::_Filebuf_base::_M_write
?_M_write@?$basic_filebuf@DV?$char_traits@D@_STL@@@_STL@@QAE_NPADH@Z ENDP ; _STL::basic_filebuf<char,_STL::char_traits<char> >::_M_write
_TEXT	ENDS
PUBLIC	??0?$allocator@V?$basic_string@DV?$char_traits@D@_STL@@V?$allocator@D@2@@_STL@@@_STL@@QAE@XZ ; _STL::allocator<_STL::basic_string<char,_STL::char_traits<char>,_STL::allocator<char> > >::allocator<_STL::basic_string<char,_STL::char_traits<char>,_STL::allocator<char> > >
; Function compile flags: /Ogsy
; File c:\stlport-4.6.1\stlport\stl\_alloc.h
;	COMDAT ??0?$allocator@V?$basic_string@DV?$char_traits@D@_STL@@V?$allocator@D@2@@_STL@@@_STL@@QAE@XZ
_TEXT	SEGMENT
??0?$allocator@V?$basic_string@DV?$char_traits@D@_STL@@V?$allocator@D@2@@_STL@@@_STL@@QAE@XZ PROC NEAR ; _STL::allocator<_STL::basic_string<char,_STL::char_traits<char>,_STL::allocator<char> > >::allocator<_STL::basic_string<char,_STL::char_traits<char>,_STL::allocator<char> > >, COMDAT
; _this$ = ecx

; 345  :   allocator() _STLP_NOTHROW {}

  00000	8b c1		 mov	 eax, ecx
  00002	c3		 ret	 0
??0?$allocator@V?$basic_string@DV?$char_traits@D@_STL@@V?$allocator@D@2@@_STL@@@_STL@@QAE@XZ ENDP ; _STL::allocator<_STL::basic_string<char,_STL::char_traits<char>,_STL::allocator<char> > >::allocator<_STL::basic_string<char,_STL::char_traits<char>,_STL::allocator<char> > >
_TEXT	ENDS
PUBLIC	??1?$allocator@V?$basic_string@DV?$char_traits@D@_STL@@V?$allocator@D@2@@_STL@@@_STL@@QAE@XZ ; _STL::allocator<_STL::basic_string<char,_STL::char_traits<char>,_STL::allocator<char> > >::~allocator<_STL::basic_string<char,_STL::char_traits<char>,_STL::allocator<char> > >
; Function compile flags: /Ogsy
;	COMDAT ??1?$allocator@V?$basic_string@DV?$char_traits@D@_STL@@V?$allocator@D@2@@_STL@@@_STL@@QAE@XZ
_TEXT	SEGMENT
??1?$allocator@V?$basic_string@DV?$char_traits@D@_STL@@V?$allocator@D@2@@_STL@@@_STL@@QAE@XZ PROC NEAR ; _STL::allocator<_STL::basic_string<char,_STL::char_traits<char>,_STL::allocator<char> > >::~allocator<_STL::basic_string<char,_STL::char_traits<char>,_STL::allocator<char> > >, COMDAT
; _this$ = ecx

; 350  :   ~allocator() _STLP_NOTHROW {}

  00000	c3		 ret	 0
??1?$allocator@V?$basic_string@DV?$char_traits@D@_STL@@V?$allocator@D@2@@_STL@@@_STL@@QAE@XZ ENDP ; _STL::allocator<_STL::basic_string<char,_STL::char_traits<char>,_STL::allocator<char> > >::~allocator<_STL::basic_string<char,_STL::char_traits<char>,_STL::allocator<char> > >
_TEXT	ENDS
PUBLIC	??D?$_List_iterator@V?$basic_string@DV?$char_traits@D@_STL@@V?$allocator@D@2@@_STL@@U?$_Const_traits@V?$basic_string@DV?$char_traits@D@_STL@@V?$allocator@D@2@@_STL@@@2@@_STL@@QBEABV?$basic_string@DV?$char_traits@D@_STL@@V?$allocator@D@2@@1@XZ ; _STL::_List_iterator<_STL::basic_string<char,_STL::char_traits<char>,_STL::allocator<char> >,_STL::_Const_traits<_STL::basic_string<char,_STL::char_traits<char>,_STL::allocator<char> > > >::operator*
; Function compile flags: /Ogsy
; File c:\stlport-4.6.1\stlport\stl\_list.h
;	COMDAT ??D?$_List_iterator@V?$basic_string@DV?$char_traits@D@_STL@@V?$allocator@D@2@@_STL@@U?$_Const_traits@V?$basic_string@DV?$char_traits@D@_STL@@V?$allocator@D@2@@_STL@@@2@@_STL@@QBEABV?$basic_string@DV?$char_traits@D@_STL@@V?$allocator@D@2@@1@XZ
_TEXT	SEGMENT
??D?$_List_iterator@V?$basic_string@DV?$char_traits@D@_STL@@V?$allocator@D@2@@_STL@@U?$_Const_traits@V?$basic_string@DV?$char_traits@D@_STL@@V?$allocator@D@2@@_STL@@@2@@_STL@@QBEABV?$basic_string@DV?$char_traits@D@_STL@@V?$allocator@D@2@@1@XZ PROC NEAR ; _STL::_List_iterator<_STL::basic_string<char,_STL::char_traits<char>,_STL::allocator<char> >,_STL::_Const_traits<_STL::basic_string<char,_STL::char_traits<char>,_STL::allocator<char> > > >::operator*, COMDAT
; _this$ = ecx

; 130  :   reference operator*() const { return ((_Node*)_M_node)->_M_data; }

  00000	8b 01		 mov	 eax, DWORD PTR [ecx]
  00002	83 c0 08	 add	 eax, 8
  00005	c3		 ret	 0
??D?$_List_iterator@V?$basic_string@DV?$char_traits@D@_STL@@V?$allocator@D@2@@_STL@@U?$_Const_traits@V?$basic_string@DV?$char_traits@D@_STL@@V?$allocator@D@2@@_STL@@@2@@_STL@@QBEABV?$basic_string@DV?$char_traits@D@_STL@@V?$allocator@D@2@@1@XZ ENDP ; _STL::_List_iterator<_STL::basic_string<char,_STL::char_traits<char>,_STL::allocator<char> >,_STL::_Const_traits<_STL::basic_string<char,_STL::char_traits<char>,_STL::allocator<char> > > >::operator*
; Function compile flags: /Ogsy
_TEXT	ENDS
;	COMDAT ??_G?$basic_ios@DV?$char_traits@D@_STL@@@_STL@@UAEPAXI@Z
_TEXT	SEGMENT
___flags$ = 8						; size = 4
??_G?$basic_ios@DV?$char_traits@D@_STL@@@_STL@@UAEPAXI@Z PROC NEAR ; _STL::basic_ios<char,_STL::char_traits<char> >::`scalar deleting destructor', COMDAT
; _this$ = ecx
  00000	56		 push	 esi
  00001	8b f1		 mov	 esi, ecx
  00003	e8 00 00 00 00	 call	 ??1?$basic_ios@DV?$char_traits@D@_STL@@@_STL@@UAE@XZ ; _STL::basic_ios<char,_STL::char_traits<char> >::~basic_ios<char,_STL::char_traits<char> >
  00008	f6 44 24 08 01	 test	 BYTE PTR ___flags$[esp], 1
  0000d	74 07		 je	 SHORT $L98548
  0000f	56		 push	 esi
  00010	e8 00 00 00 00	 call	 ??3@YAXPAX@Z		; operator delete
  00015	59		 pop	 ecx
$L98548:
  00016	8b c6		 mov	 eax, esi
  00018	5e		 pop	 esi
  00019	c2 04 00	 ret	 4
??_G?$basic_ios@DV?$char_traits@D@_STL@@@_STL@@UAEPAXI@Z ENDP ; _STL::basic_ios<char,_STL::char_traits<char> >::`scalar deleting destructor'
_TEXT	ENDS
PUBLIC	??0?$_List_iterator@V?$basic_string@DV?$char_traits@D@_STL@@V?$allocator@D@2@@_STL@@U?$_Const_traits@V?$basic_string@DV?$char_traits@D@_STL@@V?$allocator@D@2@@_STL@@@2@@_STL@@QAE@PAU?$_List_node@V?$basic_string@DV?$char_traits@D@_STL@@V?$allocator@D@2@@_STL@@@1@@Z ; _STL::_List_iterator<_STL::basic_string<char,_STL::char_traits<char>,_STL::allocator<char> >,_STL::_Const_traits<_STL::basic_string<char,_STL::char_traits<char>,_STL::allocator<char> > > >::_List_iterator<_STL::basic_string<char,_STL::char_traits<char>,_STL::allocator<char> >,_STL::_Const_traits<_STL::basic_string<char,_STL::char_traits<char>,_STL::allocator<char> > > >
; Function compile flags: /Ogsy
;	COMDAT ??0?$_List_iterator@V?$basic_string@DV?$char_traits@D@_STL@@V?$allocator@D@2@@_STL@@U?$_Const_traits@V?$basic_string@DV?$char_traits@D@_STL@@V?$allocator@D@2@@_STL@@@2@@_STL@@QAE@PAU?$_List_node@V?$basic_string@DV?$char_traits@D@_STL@@V?$allocator@D@2@@_STL@@@1@@Z
_TEXT	SEGMENT
___x$ = 8						; size = 4
??0?$_List_iterator@V?$basic_string@DV?$char_traits@D@_STL@@V?$allocator@D@2@@_STL@@U?$_Const_traits@V?$basic_string@DV?$char_traits@D@_STL@@V?$allocator@D@2@@_STL@@@2@@_STL@@QAE@PAU?$_List_node@V?$basic_string@DV?$char_traits@D@_STL@@V?$allocator@D@2@@_STL@@@1@@Z PROC NEAR ; _STL::_List_iterator<_STL::basic_string<char,_STL::char_traits<char>,_STL::allocator<char> >,_STL::_Const_traits<_STL::basic_string<char,_STL::char_traits<char>,_STL::allocator<char> > > >::_List_iterator<_STL::basic_string<char,_STL::char_traits<char>,_STL::allocator<char> >,_STL::_Const_traits<_STL::basic_string<char,_STL::char_traits<char>,_STL::allocator<char> > > >, COMDAT
; _this$ = ecx

; 126  :   _List_iterator(_Node* __x) : _List_iterator_base(__x) {}

  00000	8b c1		 mov	 eax, ecx
  00002	8b 4c 24 04	 mov	 ecx, DWORD PTR ___x$[esp-4]
  00006	89 08		 mov	 DWORD PTR [eax], ecx
  00008	c2 04 00	 ret	 4
??0?$_List_iterator@V?$basic_string@DV?$char_traits@D@_STL@@V?$allocator@D@2@@_STL@@U?$_Const_traits@V?$basic_string@DV?$char_traits@D@_STL@@V?$allocator@D@2@@_STL@@@2@@_STL@@QAE@PAU?$_List_node@V?$basic_string@DV?$char_traits@D@_STL@@V?$allocator@D@2@@_STL@@@1@@Z ENDP ; _STL::_List_iterator<_STL::basic_string<char,_STL::char_traits<char>,_STL::allocator<char> >,_STL::_Const_traits<_STL::basic_string<char,_STL::char_traits<char>,_STL::allocator<char> > > >::_List_iterator<_STL::basic_string<char,_STL::char_traits<char>,_STL::allocator<char> >,_STL::_Const_traits<_STL::basic_string<char,_STL::char_traits<char>,_STL::allocator<char> > > >
_TEXT	ENDS
PUBLIC	??1?$_STLP_alloc_proxy@PADDV?$allocator@D@_STL@@@_STL@@QAE@XZ ; _STL::_STLP_alloc_proxy<char *,char,_STL::allocator<char> >::~_STLP_alloc_proxy<char *,char,_STL::allocator<char> >
; Function compile flags: /Ogsy
;	COMDAT ??1?$_STLP_alloc_proxy@PADDV?$allocator@D@_STL@@@_STL@@QAE@XZ
_TEXT	SEGMENT
??1?$_STLP_alloc_proxy@PADDV?$allocator@D@_STL@@@_STL@@QAE@XZ PROC NEAR ; _STL::_STLP_alloc_proxy<char *,char,_STL::allocator<char> >::~_STLP_alloc_proxy<char *,char,_STL::allocator<char> >, COMDAT
; _this$ = ecx
  00000	c3		 ret	 0
??1?$_STLP_alloc_proxy@PADDV?$allocator@D@_STL@@@_STL@@QAE@XZ ENDP ; _STL::_STLP_alloc_proxy<char *,char,_STL::allocator<char> >::~_STLP_alloc_proxy<char *,char,_STL::allocator<char> >
_TEXT	ENDS
PUBLIC	??1?$allocator@U?$_List_node@V?$basic_string@DV?$char_traits@D@_STL@@V?$allocator@D@2@@_STL@@@_STL@@@_STL@@QAE@XZ ; _STL::allocator<_STL::_List_node<_STL::basic_string<char,_STL::char_traits<char>,_STL::allocator<char> > > >::~allocator<_STL::_List_node<_STL::basic_string<char,_STL::char_traits<char>,_STL::allocator<char> > > >
; Function compile flags: /Ogsy
; File c:\stlport-4.6.1\stlport\stl\_alloc.h
;	COMDAT ??1?$allocator@U?$_List_node@V?$basic_string@DV?$char_traits@D@_STL@@V?$allocator@D@2@@_STL@@@_STL@@@_STL@@QAE@XZ
_TEXT	SEGMENT
??1?$allocator@U?$_List_node@V?$basic_string@DV?$char_traits@D@_STL@@V?$allocator@D@2@@_STL@@@_STL@@@_STL@@QAE@XZ PROC NEAR ; _STL::allocator<_STL::_List_node<_STL::basic_string<char,_STL::char_traits<char>,_STL::allocator<char> > > >::~allocator<_STL::_List_node<_STL::basic_string<char,_STL::char_traits<char>,_STL::allocator<char> > > >, COMDAT
; _this$ = ecx

; 350  :   ~allocator() _STLP_NOTHROW {}

  00000	c3		 ret	 0
??1?$allocator@U?$_List_node@V?$basic_string@DV?$char_traits@D@_STL@@V?$allocator@D@2@@_STL@@@_STL@@@_STL@@QAE@XZ ENDP ; _STL::allocator<_STL::_List_node<_STL::basic_string<char,_STL::char_traits<char>,_STL::allocator<char> > > >::~allocator<_STL::_List_node<_STL::basic_string<char,_STL::char_traits<char>,_STL::allocator<char> > > >
_TEXT	ENDS
PUBLIC	??0?$_List_iterator@V?$basic_string@DV?$char_traits@D@_STL@@V?$allocator@D@2@@_STL@@U?$_Nonconst_traits@V?$basic_string@DV?$char_traits@D@_STL@@V?$allocator@D@2@@_STL@@@2@@_STL@@QAE@PAU?$_List_node@V?$basic_string@DV?$char_traits@D@_STL@@V?$allocator@D@2@@_STL@@@1@@Z ; _STL::_List_iterator<_STL::basic_string<char,_STL::char_traits<char>,_STL::allocator<char> >,_STL::_Nonconst_traits<_STL::basic_string<char,_STL::char_traits<char>,_STL::allocator<char> > > >::_List_iterator<_STL::basic_string<char,_STL::char_traits<char>,_STL::allocator<char> >,_STL::_Nonconst_traits<_STL::basic_string<char,_STL::char_traits<char>,_STL::allocator<char> > > >
; Function compile flags: /Ogsy
; File c:\stlport-4.6.1\stlport\stl\_list.h
;	COMDAT ??0?$_List_iterator@V?$basic_string@DV?$char_traits@D@_STL@@V?$allocator@D@2@@_STL@@U?$_Nonconst_traits@V?$basic_string@DV?$char_traits@D@_STL@@V?$allocator@D@2@@_STL@@@2@@_STL@@QAE@PAU?$_List_node@V?$basic_string@DV?$char_traits@D@_STL@@V?$allocator@D@2@@_STL@@@1@@Z
_TEXT	SEGMENT
___x$ = 8						; size = 4
??0?$_List_iterator@V?$basic_string@DV?$char_traits@D@_STL@@V?$allocator@D@2@@_STL@@U?$_Nonconst_traits@V?$basic_string@DV?$char_traits@D@_STL@@V?$allocator@D@2@@_STL@@@2@@_STL@@QAE@PAU?$_List_node@V?$basic_string@DV?$char_traits@D@_STL@@V?$allocator@D@2@@_STL@@@1@@Z PROC NEAR ; _STL::_List_iterator<_STL::basic_string<char,_STL::char_traits<char>,_STL::allocator<char> >,_STL::_Nonconst_traits<_STL::basic_string<char,_STL::char_traits<char>,_STL::allocator<char> > > >::_List_iterator<_STL::basic_string<char,_STL::char_traits<char>,_STL::allocator<char> >,_STL::_Nonconst_traits<_STL::basic_string<char,_STL::char_traits<char>,_STL::allocator<char> > > >, COMDAT
; _this$ = ecx

; 126  :   _List_iterator(_Node* __x) : _List_iterator_base(__x) {}

  00000	8b c1		 mov	 eax, ecx
  00002	8b 4c 24 04	 mov	 ecx, DWORD PTR ___x$[esp-4]
  00006	89 08		 mov	 DWORD PTR [eax], ecx
  00008	c2 04 00	 ret	 4
??0?$_List_iterator@V?$basic_string@DV?$char_traits@D@_STL@@V?$allocator@D@2@@_STL@@U?$_Nonconst_traits@V?$basic_string@DV?$char_traits@D@_STL@@V?$allocator@D@2@@_STL@@@2@@_STL@@QAE@PAU?$_List_node@V?$basic_string@DV?$char_traits@D@_STL@@V?$allocator@D@2@@_STL@@@1@@Z ENDP ; _STL::_List_iterator<_STL::basic_string<char,_STL::char_traits<char>,_STL::allocator<char> >,_STL::_Nonconst_traits<_STL::basic_string<char,_STL::char_traits<char>,_STL::allocator<char> > > >::_List_iterator<_STL::basic_string<char,_STL::char_traits<char>,_STL::allocator<char> >,_STL::_Nonconst_traits<_STL::basic_string<char,_STL::char_traits<char>,_STL::allocator<char> > > >
_TEXT	ENDS
PUBLIC	??0?$allocator@U?$_List_node@V?$basic_string@DV?$char_traits@D@_STL@@V?$allocator@D@2@@_STL@@@_STL@@@_STL@@QAE@ABV01@@Z ; _STL::allocator<_STL::_List_node<_STL::basic_string<char,_STL::char_traits<char>,_STL::allocator<char> > > >::allocator<_STL::_List_node<_STL::basic_string<char,_STL::char_traits<char>,_STL::allocator<char> > > >
; Function compile flags: /Ogsy
; File c:\stlport-4.6.1\stlport\stl\_alloc.h
;	COMDAT ??0?$allocator@U?$_List_node@V?$basic_string@DV?$char_traits@D@_STL@@V?$allocator@D@2@@_STL@@@_STL@@@_STL@@QAE@ABV01@@Z
_TEXT	SEGMENT
___formal$ = 8						; size = 4
??0?$allocator@U?$_List_node@V?$basic_string@DV?$char_traits@D@_STL@@V?$allocator@D@2@@_STL@@@_STL@@@_STL@@QAE@ABV01@@Z PROC NEAR ; _STL::allocator<_STL::_List_node<_STL::basic_string<char,_STL::char_traits<char>,_STL::allocator<char> > > >::allocator<_STL::_List_node<_STL::basic_string<char,_STL::char_traits<char>,_STL::allocator<char> > > >, COMDAT
; _this$ = ecx

; 349  :   allocator(const allocator<_Tp>&) _STLP_NOTHROW {}

  00000	8b c1		 mov	 eax, ecx
  00002	c2 04 00	 ret	 4
??0?$allocator@U?$_List_node@V?$basic_string@DV?$char_traits@D@_STL@@V?$allocator@D@2@@_STL@@@_STL@@@_STL@@QAE@ABV01@@Z ENDP ; _STL::allocator<_STL::_List_node<_STL::basic_string<char,_STL::char_traits<char>,_STL::allocator<char> > > >::allocator<_STL::_List_node<_STL::basic_string<char,_STL::char_traits<char>,_STL::allocator<char> > > >
_TEXT	ENDS
PUBLIC	?allocate@?$__node_alloc@$00$0A@@_STL@@SAPAXI@Z	; _STL::__node_alloc<1,0>::allocate
EXTRN	?_M_allocate@?$__node_alloc@$00$0A@@_STL@@CAPAXI@Z:NEAR ; _STL::__node_alloc<1,0>::_M_allocate
; Function compile flags: /Ogsy
;	COMDAT ?allocate@?$__node_alloc@$00$0A@@_STL@@SAPAXI@Z
_TEXT	SEGMENT
___n$ = 8						; size = 4
?allocate@?$__node_alloc@$00$0A@@_STL@@SAPAXI@Z PROC NEAR ; _STL::__node_alloc<1,0>::allocate, COMDAT

; 251  :   static void * _STLP_CALL allocate(size_t __n) { return (__n > (size_t)_MAX_BYTES) ?  __stl_new(__n) : _M_allocate(__n); }

  00000	8b 44 24 04	 mov	 eax, DWORD PTR ___n$[esp-4]
  00004	3d 80 00 00 00	 cmp	 eax, 128		; 00000080H
  00009	50		 push	 eax
  0000a	76 07		 jbe	 SHORT $L101023
  0000c	e8 00 00 00 00	 call	 ??2@YAPAXI@Z		; operator new
  00011	59		 pop	 ecx
  00012	c3		 ret	 0
$L101023:
  00013	e8 00 00 00 00	 call	 ?_M_allocate@?$__node_alloc@$00$0A@@_STL@@CAPAXI@Z ; _STL::__node_alloc<1,0>::_M_allocate
  00018	59		 pop	 ecx
  00019	c3		 ret	 0
?allocate@?$__node_alloc@$00$0A@@_STL@@SAPAXI@Z ENDP	; _STL::__node_alloc<1,0>::allocate
_TEXT	ENDS
PUBLIC	?deallocate@?$__node_alloc@$00$0A@@_STL@@SAXPAXI@Z ; _STL::__node_alloc<1,0>::deallocate
EXTRN	?_M_deallocate@?$__node_alloc@$00$0A@@_STL@@CAXPAXI@Z:NEAR ; _STL::__node_alloc<1,0>::_M_deallocate
; Function compile flags: /Ogsy
;	COMDAT ?deallocate@?$__node_alloc@$00$0A@@_STL@@SAXPAXI@Z
_TEXT	SEGMENT
___p$ = 8						; size = 4
___n$ = 12						; size = 4
?deallocate@?$__node_alloc@$00$0A@@_STL@@SAXPAXI@Z PROC NEAR ; _STL::__node_alloc<1,0>::deallocate, COMDAT

; 253  :   static void _STLP_CALL deallocate(void *__p, size_t __n) { if (__n > (size_t)_MAX_BYTES) __stl_delete(__p); else _M_deallocate(__p, __n); }

  00000	81 7c 24 08 80
	00 00 00	 cmp	 DWORD PTR ___n$[esp-4], 128 ; 00000080H
  00008	76 0b		 jbe	 SHORT $L98677
  0000a	ff 74 24 04	 push	 DWORD PTR ___p$[esp-4]
  0000e	e8 00 00 00 00	 call	 ??3@YAXPAX@Z		; operator delete
  00013	59		 pop	 ecx
  00014	c3		 ret	 0
$L98677:
  00015	e9 00 00 00 00	 jmp	 ?_M_deallocate@?$__node_alloc@$00$0A@@_STL@@CAXPAXI@Z ; _STL::__node_alloc<1,0>::_M_deallocate
?deallocate@?$__node_alloc@$00$0A@@_STL@@SAXPAXI@Z ENDP	; _STL::__node_alloc<1,0>::deallocate
_TEXT	ENDS
PUBLIC	??1?$basic_ostream@DV?$char_traits@D@_STL@@@_STL@@UAE@XZ ; _STL::basic_ostream<char,_STL::char_traits<char> >::~basic_ostream<char,_STL::char_traits<char> >
PUBLIC	??_7?$basic_ostream@DV?$char_traits@D@_STL@@@_STL@@6B@ ; _STL::basic_ostream<char,_STL::char_traits<char> >::`vftable'
PUBLIC	??_G?$basic_ostream@DV?$char_traits@D@_STL@@@_STL@@UAEPAXI@Z ; _STL::basic_ostream<char,_STL::char_traits<char> >::`scalar deleting destructor'
PUBLIC	??_R1A@A@3BA@?$basic_ios@DV?$char_traits@D@_STL@@@_STL@@8 ; _STL::basic_ios<char,_STL::char_traits<char> >::`RTTI Base Class Descriptor at (0,0,4,16)'
PUBLIC	??_R1A@A@3A@ios_base@_STL@@8			; _STL::ios_base::`RTTI Base Class Descriptor at (0,0,4,0)'
PUBLIC	??_R4?$basic_ostream@DV?$char_traits@D@_STL@@@_STL@@6B@ ; _STL::basic_ostream<char,_STL::char_traits<char> >::`RTTI Complete Object Locator'
PUBLIC	??_R0?AV?$basic_ostream@DV?$char_traits@D@_STL@@@_STL@@@8 ; _STL::basic_ostream<char,_STL::char_traits<char> > `RTTI Type Descriptor'
PUBLIC	??_R3?$basic_ostream@DV?$char_traits@D@_STL@@@_STL@@8 ; _STL::basic_ostream<char,_STL::char_traits<char> >::`RTTI Class Hierarchy Descriptor'
PUBLIC	??_R2?$basic_ostream@DV?$char_traits@D@_STL@@@_STL@@8 ; _STL::basic_ostream<char,_STL::char_traits<char> >::`RTTI Base Class Array'
PUBLIC	??_R1A@?0A@A@?$basic_ostream@DV?$char_traits@D@_STL@@@_STL@@8 ; _STL::basic_ostream<char,_STL::char_traits<char> >::`RTTI Base Class Descriptor at (0,-1,0,0)'
EXTRN	??_E?$basic_ostream@DV?$char_traits@D@_STL@@@_STL@@UAEPAXI@Z:NEAR ; _STL::basic_ostream<char,_STL::char_traits<char> >::`vector deleting destructor'
;	COMDAT ??_7?$basic_ostream@DV?$char_traits@D@_STL@@@_STL@@6B@
; File c:\stlport-4.6.1\stlport\stl\_ostream.c
CONST	SEGMENT
??_7?$basic_ostream@DV?$char_traits@D@_STL@@@_STL@@6B@ DD FLAT:??_R4?$basic_ostream@DV?$char_traits@D@_STL@@@_STL@@6B@ ; _STL::basic_ostream<char,_STL::char_traits<char> >::`vftable'
	DD	FLAT:??_E?$basic_ostream@DV?$char_traits@D@_STL@@@_STL@@UAEPAXI@Z
CONST	ENDS
;	COMDAT ??_R4?$basic_ostream@DV?$char_traits@D@_STL@@@_STL@@6B@
rdata$r	SEGMENT
??_R4?$basic_ostream@DV?$char_traits@D@_STL@@@_STL@@6B@ DD 00H ; _STL::basic_ostream<char,_STL::char_traits<char> >::`RTTI Complete Object Locator'
	DD	04H
	DD	00H
	DD	FLAT:??_R0?AV?$basic_ostream@DV?$char_traits@D@_STL@@@_STL@@@8
	DD	FLAT:??_R3?$basic_ostream@DV?$char_traits@D@_STL@@@_STL@@8
rdata$r	ENDS
;	COMDAT ??_R0?AV?$basic_ostream@DV?$char_traits@D@_STL@@@_STL@@@8
_DATA	SEGMENT
??_R0?AV?$basic_ostream@DV?$char_traits@D@_STL@@@_STL@@@8 DD FLAT:??_7type_info@@6B@ ; _STL::basic_ostream<char,_STL::char_traits<char> > `RTTI Type Descriptor'
	DD	00H
	DB	'.?AV?$basic_ostream@DV?$char_traits@D@_STL@@@_STL@@', 00H
_DATA	ENDS
;	COMDAT ??_R3?$basic_ostream@DV?$char_traits@D@_STL@@@_STL@@8
rdata$r	SEGMENT
??_R3?$basic_ostream@DV?$char_traits@D@_STL@@@_STL@@8 DD 00H ; _STL::basic_ostream<char,_STL::char_traits<char> >::`RTTI Class Hierarchy Descriptor'
	DD	00H
	DD	03H
	DD	FLAT:??_R2?$basic_ostream@DV?$char_traits@D@_STL@@@_STL@@8
rdata$r	ENDS
;	COMDAT ??_R2?$basic_ostream@DV?$char_traits@D@_STL@@@_STL@@8
rdata$r	SEGMENT
??_R2?$basic_ostream@DV?$char_traits@D@_STL@@@_STL@@8 DD FLAT:??_R1A@?0A@A@?$basic_ostream@DV?$char_traits@D@_STL@@@_STL@@8 ; _STL::basic_ostream<char,_STL::char_traits<char> >::`RTTI Base Class Array'
	DD	FLAT:??_R1A@A@3BA@?$basic_ios@DV?$char_traits@D@_STL@@@_STL@@8
	DD	FLAT:??_R1A@A@3A@ios_base@_STL@@8
rdata$r	ENDS
;	COMDAT ??_R1A@?0A@A@?$basic_ostream@DV?$char_traits@D@_STL@@@_STL@@8
rdata$r	SEGMENT
??_R1A@?0A@A@?$basic_ostream@DV?$char_traits@D@_STL@@@_STL@@8 DD FLAT:??_R0?AV?$basic_ostream@DV?$char_traits@D@_STL@@@_STL@@@8 ; _STL::basic_ostream<char,_STL::char_traits<char> >::`RTTI Base Class Descriptor at (0,-1,0,0)'
	DD	02H
	DD	00H
	DD	0ffffffffH
	DD	00H
	DD	00H
rdata$r	ENDS
;	COMDAT ??_R1A@A@3BA@?$basic_ios@DV?$char_traits@D@_STL@@@_STL@@8
rdata$r	SEGMENT
??_R1A@A@3BA@?$basic_ios@DV?$char_traits@D@_STL@@@_STL@@8 DD FLAT:??_R0?AV?$basic_ios@DV?$char_traits@D@_STL@@@_STL@@@8 ; _STL::basic_ios<char,_STL::char_traits<char> >::`RTTI Base Class Descriptor at (0,0,4,16)'
	DD	01H
	DD	00H
	DD	00H
	DD	04H
	DD	010H
rdata$r	ENDS
;	COMDAT ??_R1A@A@3A@ios_base@_STL@@8
rdata$r	SEGMENT
??_R1A@A@3A@ios_base@_STL@@8 DD FLAT:??_R0?AVios_base@_STL@@@8 ; _STL::ios_base::`RTTI Base Class Descriptor at (0,0,4,0)'
	DD	00H
	DD	00H
	DD	00H
	DD	04H
	DD	00H
; Function compile flags: /Ogsy
rdata$r	ENDS
;	COMDAT ??1?$basic_ostream@DV?$char_traits@D@_STL@@@_STL@@UAE@XZ
_TEXT	SEGMENT
??1?$basic_ostream@DV?$char_traits@D@_STL@@@_STL@@UAE@XZ PROC NEAR ; _STL::basic_ostream<char,_STL::char_traits<char> >::~basic_ostream<char,_STL::char_traits<char> >, COMDAT
; _this$ = ecx

; 64   : {}

  00000	8b 41 fc	 mov	 eax, DWORD PTR [ecx-4]
  00003	8b 40 04	 mov	 eax, DWORD PTR [eax+4]
  00006	c7 44 08 fc 00
	00 00 00	 mov	 DWORD PTR [eax+ecx-4], OFFSET FLAT:??_7?$basic_ostream@DV?$char_traits@D@_STL@@@_STL@@6B@
  0000e	c3		 ret	 0
??1?$basic_ostream@DV?$char_traits@D@_STL@@@_STL@@UAE@XZ ENDP ; _STL::basic_ostream<char,_STL::char_traits<char> >::~basic_ostream<char,_STL::char_traits<char> >
_TEXT	ENDS
PUBLIC	??$?0V?$basic_string@DV?$char_traits@D@_STL@@V?$allocator@D@2@@_STL@@@?$allocator@U?$_List_node@V?$basic_string@DV?$char_traits@D@_STL@@V?$allocator@D@2@@_STL@@@_STL@@@_STL@@QAE@ABV?$allocator@V?$basic_string@DV?$char_traits@D@_STL@@V?$allocator@D@2@@_STL@@@1@@Z ; _STL::allocator<_STL::_List_node<_STL::basic_string<char,_STL::char_traits<char>,_STL::allocator<char> > > >::allocator<_STL::_List_node<_STL::basic_string<char,_STL::char_traits<char>,_STL::allocator<char> > > ><_STL::basic_string<char,_STL::char_traits<char>,_STL::allocator<char> > >
; Function compile flags: /Ogsy
; File c:\stlport-4.6.1\stlport\stl\_alloc.h
;	COMDAT ??$?0V?$basic_string@DV?$char_traits@D@_STL@@V?$allocator@D@2@@_STL@@@?$allocator@U?$_List_node@V?$basic_string@DV?$char_traits@D@_STL@@V?$allocator@D@2@@_STL@@@_STL@@@_STL@@QAE@ABV?$allocator@V?$basic_string@DV?$char_traits@D@_STL@@V?$allocator@D@2@@_STL@@@1@@Z
_TEXT	SEGMENT
___formal$ = 8						; size = 4
??$?0V?$basic_string@DV?$char_traits@D@_STL@@V?$allocator@D@2@@_STL@@@?$allocator@U?$_List_node@V?$basic_string@DV?$char_traits@D@_STL@@V?$allocator@D@2@@_STL@@@_STL@@@_STL@@QAE@ABV?$allocator@V?$basic_string@DV?$char_traits@D@_STL@@V?$allocator@D@2@@_STL@@@1@@Z PROC NEAR ; _STL::allocator<_STL::_List_node<_STL::basic_string<char,_STL::char_traits<char>,_STL::allocator<char> > > >::allocator<_STL::_List_node<_STL::basic_string<char,_STL::char_traits<char>,_STL::allocator<char> > > ><_STL::basic_string<char,_STL::char_traits<char>,_STL::allocator<char> > >, COMDAT
; _this$ = ecx

; 347  :   template <class _Tp1> allocator(const allocator<_Tp1>&) _STLP_NOTHROW {}

  00000	8b c1		 mov	 eax, ecx
  00002	c2 04 00	 ret	 4
??$?0V?$basic_string@DV?$char_traits@D@_STL@@V?$allocator@D@2@@_STL@@@?$allocator@U?$_List_node@V?$basic_string@DV?$char_traits@D@_STL@@V?$allocator@D@2@@_STL@@@_STL@@@_STL@@QAE@ABV?$allocator@V?$basic_string@DV?$char_traits@D@_STL@@V?$allocator@D@2@@_STL@@@1@@Z ENDP ; _STL::allocator<_STL::_List_node<_STL::basic_string<char,_STL::char_traits<char>,_STL::allocator<char> > > >::allocator<_STL::_List_node<_STL::basic_string<char,_STL::char_traits<char>,_STL::allocator<char> > > ><_STL::basic_string<char,_STL::char_traits<char>,_STL::allocator<char> > >
_TEXT	ENDS
PUBLIC	?get_allocator@?$basic_string@DV?$char_traits@D@_STL@@V?$allocator@D@2@@_STL@@QBE?AV?$allocator@D@2@XZ ; _STL::basic_string<char,_STL::char_traits<char>,_STL::allocator<char> >::get_allocator
; Function compile flags: /Ogsy
; File c:\stlport-4.6.1\stlport\stl\_string.h
;	COMDAT ?get_allocator@?$basic_string@DV?$char_traits@D@_STL@@V?$allocator@D@2@@_STL@@QBE?AV?$allocator@D@2@XZ
_TEXT	SEGMENT
___$ReturnUdt$ = 8					; size = 4
?get_allocator@?$basic_string@DV?$char_traits@D@_STL@@V?$allocator@D@2@@_STL@@QBE?AV?$allocator@D@2@XZ PROC NEAR ; _STL::basic_string<char,_STL::char_traits<char>,_STL::allocator<char> >::get_allocator, COMDAT
; _this$ = ecx

; 216  :     return _STLP_CONVERT_ALLOCATOR((const allocator_type&)this->_M_end_of_storage, _CharT);

  00000	8b 44 24 04	 mov	 eax, DWORD PTR ___$ReturnUdt$[esp-4]

; 217  :   }

  00004	c2 04 00	 ret	 4
?get_allocator@?$basic_string@DV?$char_traits@D@_STL@@V?$allocator@D@2@@_STL@@QBE?AV?$allocator@D@2@XZ ENDP ; _STL::basic_string<char,_STL::char_traits<char>,_STL::allocator<char> >::get_allocator
_TEXT	ENDS
PUBLIC	?_M_terminate_string@?$basic_string@DV?$char_traits@D@_STL@@V?$allocator@D@2@@_STL@@AAEXXZ ; _STL::basic_string<char,_STL::char_traits<char>,_STL::allocator<char> >::_M_terminate_string
; Function compile flags: /Ogsy
;	COMDAT ?_M_terminate_string@?$basic_string@DV?$char_traits@D@_STL@@V?$allocator@D@2@@_STL@@AAEXXZ
_TEXT	SEGMENT
?_M_terminate_string@?$basic_string@DV?$char_traits@D@_STL@@V?$allocator@D@2@@_STL@@AAEXXZ PROC NEAR ; _STL::basic_string<char,_STL::char_traits<char>,_STL::allocator<char> >::_M_terminate_string, COMDAT
; _this$ = ecx

; 355  :     _M_terminate_string_aux(_Char_Is_Integral());

  00000	8b 41 04	 mov	 eax, DWORD PTR [ecx+4]
  00003	c6 00 00	 mov	 BYTE PTR [eax], 0

; 356  :   }

  00006	c3		 ret	 0
?_M_terminate_string@?$basic_string@DV?$char_traits@D@_STL@@V?$allocator@D@2@@_STL@@AAEXXZ ENDP ; _STL::basic_string<char,_STL::char_traits<char>,_STL::allocator<char> >::_M_terminate_string
_TEXT	ENDS
PUBLIC	?allocate@?$allocator@D@_STL@@QAEPADIPBX@Z	; _STL::allocator<char>::allocate
; Function compile flags: /Ogsy
; File c:\stlport-4.6.1\stlport\stl\_alloc.h
;	COMDAT ?allocate@?$allocator@D@_STL@@QAEPADIPBX@Z
_TEXT	SEGMENT
___n$ = 8						; size = 4
___formal$ = 12						; size = 4
?allocate@?$allocator@D@_STL@@QAEPADIPBX@Z PROC NEAR	; _STL::allocator<char>::allocate, COMDAT
; _this$ = ecx

; 355  :     return __n != 0 ? __REINTERPRET_CAST(value_type*,__sgi_alloc::allocate(__n * sizeof(value_type))) : 0;

  00000	33 c0		 xor	 eax, eax
  00002	39 44 24 04	 cmp	 DWORD PTR ___n$[esp-4], eax
  00006	74 0a		 je	 SHORT $L101055
  00008	ff 74 24 04	 push	 DWORD PTR ___n$[esp-4]
  0000c	e8 00 00 00 00	 call	 ?allocate@?$__node_alloc@$00$0A@@_STL@@SAPAXI@Z ; _STL::__node_alloc<1,0>::allocate
  00011	59		 pop	 ecx
$L101055:

; 356  :   }

  00012	c2 08 00	 ret	 8
?allocate@?$allocator@D@_STL@@QAEPADIPBX@Z ENDP		; _STL::allocator<char>::allocate
_TEXT	ENDS
PUBLIC	?is_open@?$basic_filebuf@DV?$char_traits@D@_STL@@@_STL@@QBE_NXZ ; _STL::basic_filebuf<char,_STL::char_traits<char> >::is_open
; Function compile flags: /Ogsy
; File c:\stlport-4.6.1\stlport\stl\_fstream.h
;	COMDAT ?is_open@?$basic_filebuf@DV?$char_traits@D@_STL@@@_STL@@QBE_NXZ
_TEXT	SEGMENT
?is_open@?$basic_filebuf@DV?$char_traits@D@_STL@@@_STL@@QBE_NXZ PROC NEAR ; _STL::basic_filebuf<char,_STL::char_traits<char> >::is_open, COMDAT
; _this$ = ecx

; 198  :   bool is_open() const { return _M_base.__is_open(); }

  00000	33 c0		 xor	 eax, eax
  00002	38 41 60	 cmp	 BYTE PTR [ecx+96], al
  00005	0f 95 c0	 setne	 al
  00008	c3		 ret	 0
?is_open@?$basic_filebuf@DV?$char_traits@D@_STL@@@_STL@@QBE_NXZ ENDP ; _STL::basic_filebuf<char,_STL::char_traits<char> >::is_open
_TEXT	ENDS
PUBLIC	??0?$_STLP_alloc_proxy@PADDV?$allocator@D@_STL@@@_STL@@QAE@ABV?$allocator@D@1@PAD@Z ; _STL::_STLP_alloc_proxy<char *,char,_STL::allocator<char> >::_STLP_alloc_proxy<char *,char,_STL::allocator<char> >
; Function compile flags: /Ogsy
; File c:\stlport-4.6.1\stlport\stl\_alloc.h
;	COMDAT ??0?$_STLP_alloc_proxy@PADDV?$allocator@D@_STL@@@_STL@@QAE@ABV?$allocator@D@1@PAD@Z
_TEXT	SEGMENT
___a$ = 8						; size = 4
___p$ = 12						; size = 4
??0?$_STLP_alloc_proxy@PADDV?$allocator@D@_STL@@@_STL@@QAE@ABV?$allocator@D@1@PAD@Z PROC NEAR ; _STL::_STLP_alloc_proxy<char *,char,_STL::allocator<char> >::_STLP_alloc_proxy<char *,char,_STL::allocator<char> >, COMDAT
; _this$ = ecx

; 487  :   inline _STLP_alloc_proxy(const _MaybeReboundAlloc& __a, _Value __p) : _MaybeReboundAlloc(__a), _M_data(__p) {}

  00000	8b c1		 mov	 eax, ecx
  00002	8b 4c 24 08	 mov	 ecx, DWORD PTR ___p$[esp-4]
  00006	89 08		 mov	 DWORD PTR [eax], ecx
  00008	c2 08 00	 ret	 8
??0?$_STLP_alloc_proxy@PADDV?$allocator@D@_STL@@@_STL@@QAE@ABV?$allocator@D@1@PAD@Z ENDP ; _STL::_STLP_alloc_proxy<char *,char,_STL::allocator<char> >::_STLP_alloc_proxy<char *,char,_STL::allocator<char> >
_TEXT	ENDS
PUBLIC	?get_allocator@?$_List_base@V?$basic_string@DV?$char_traits@D@_STL@@V?$allocator@D@2@@_STL@@V?$allocator@V?$basic_string@DV?$char_traits@D@_STL@@V?$allocator@D@2@@_STL@@@2@@_STL@@QBE?AV?$allocator@V?$basic_string@DV?$char_traits@D@_STL@@V?$allocator@D@2@@_STL@@@2@XZ ; _STL::_List_base<_STL::basic_string<char,_STL::char_traits<char>,_STL::allocator<char> >,_STL::allocator<_STL::basic_string<char,_STL::char_traits<char>,_STL::allocator<char> > > >::get_allocator
; Function compile flags: /Ogsy
; File c:\stlport-4.6.1\stlport\stl\_list.h
;	COMDAT ?get_allocator@?$_List_base@V?$basic_string@DV?$char_traits@D@_STL@@V?$allocator@D@2@@_STL@@V?$allocator@V?$basic_string@DV?$char_traits@D@_STL@@V?$allocator@D@2@@_STL@@@2@@_STL@@QBE?AV?$allocator@V?$basic_string@DV?$char_traits@D@_STL@@V?$allocator@D@2@@_STL@@@2@XZ
_TEXT	SEGMENT
___$ReturnUdt$ = 8					; size = 4
?get_allocator@?$_List_base@V?$basic_string@DV?$char_traits@D@_STL@@V?$allocator@D@2@@_STL@@V?$allocator@V?$basic_string@DV?$char_traits@D@_STL@@V?$allocator@D@2@@_STL@@@2@@_STL@@QBE?AV?$allocator@V?$basic_string@DV?$char_traits@D@_STL@@V?$allocator@D@2@@_STL@@@2@XZ PROC NEAR ; _STL::_List_base<_STL::basic_string<char,_STL::char_traits<char>,_STL::allocator<char> >,_STL::allocator<_STL::basic_string<char,_STL::char_traits<char>,_STL::allocator<char> > > >::get_allocator, COMDAT
; _this$ = ecx

; 179  :     return _STLP_CONVERT_ALLOCATOR((const _Node_allocator_type&)_M_node, _Tp);

  00000	8b 44 24 04	 mov	 eax, DWORD PTR ___$ReturnUdt$[esp-4]

; 180  :   }

  00004	c2 04 00	 ret	 4
?get_allocator@?$_List_base@V?$basic_string@DV?$char_traits@D@_STL@@V?$allocator@D@2@@_STL@@V?$allocator@V?$basic_string@DV?$char_traits@D@_STL@@V?$allocator@D@2@@_STL@@@2@@_STL@@QBE?AV?$allocator@V?$basic_string@DV?$char_traits@D@_STL@@V?$allocator@D@2@@_STL@@@2@XZ ENDP ; _STL::_List_base<_STL::basic_string<char,_STL::char_traits<char>,_STL::allocator<char> >,_STL::allocator<_STL::basic_string<char,_STL::char_traits<char>,_STL::allocator<char> > > >::get_allocator
_TEXT	ENDS
PUBLIC	?clear@?$basic_ios@DV?$char_traits@D@_STL@@@_STL@@QAEXH@Z ; _STL::basic_ios<char,_STL::char_traits<char> >::clear
; Function compile flags: /Ogsy
; File c:\stlport-4.6.1\stlport\stl\_ios.h
;	COMDAT ?clear@?$basic_ios@DV?$char_traits@D@_STL@@@_STL@@QAEXH@Z
_TEXT	SEGMENT
___state$ = 8						; size = 4
?clear@?$basic_ios@DV?$char_traits@D@_STL@@@_STL@@QAEXH@Z PROC NEAR ; _STL::basic_ios<char,_STL::char_traits<char> >::clear, COMDAT
; _this$ = ecx

; 91   :     _M_clear_nothrow(this->rdbuf() ? __state : iostate(__state|ios_base::badbit));

  00000	83 79 58 00	 cmp	 DWORD PTR [ecx+88], 0
  00004	8b 44 24 04	 mov	 eax, DWORD PTR ___state$[esp-4]
  00008	75 03		 jne	 SHORT $L101072
  0000a	83 c8 01	 or	 eax, 1
$L101072:

; 92   :     _M_check_exception_mask();

  0000d	85 41 14	 test	 DWORD PTR [ecx+20], eax
  00010	89 41 08	 mov	 DWORD PTR [ecx+8], eax
  00013	74 05		 je	 SHORT $L101083
  00015	e8 00 00 00 00	 call	 ?_M_throw_failure@ios_base@_STL@@IAEXXZ ; _STL::ios_base::_M_throw_failure
$L101083:

; 93   :   }

  0001a	c2 04 00	 ret	 4
?clear@?$basic_ios@DV?$char_traits@D@_STL@@@_STL@@QAEXH@Z ENDP ; _STL::basic_ios<char,_STL::char_traits<char> >::clear
_TEXT	ENDS
PUBLIC	?_M_setup_codecvt@?$basic_filebuf@DV?$char_traits@D@_STL@@@_STL@@AAEXABVlocale@2@@Z ; _STL::basic_filebuf<char,_STL::char_traits<char> >::_M_setup_codecvt
; Function compile flags: /Ogsy
; File c:\stlport-4.6.1\stlport\stl\_fstream.c
;	COMDAT ?_M_setup_codecvt@?$basic_filebuf@DV?$char_traits@D@_STL@@@_STL@@AAEXABVlocale@2@@Z
_TEXT	SEGMENT
$T101088 = -4						; size = 4
___encoding$ = 8					; size = 4
___loc$ = 8						; size = 4
?_M_setup_codecvt@?$basic_filebuf@DV?$char_traits@D@_STL@@@_STL@@AAEXABVlocale@2@@Z PROC NEAR ; _STL::basic_filebuf<char,_STL::char_traits<char> >::_M_setup_codecvt, COMDAT
; _this$ = ecx

; 730  : {

  00000	55		 push	 ebp
  00001	8b ec		 mov	 ebp, esp
  00003	51		 push	 ecx
  00004	56		 push	 esi
  00005	8b f1		 mov	 esi, ecx

; 731  :   _M_codecvt = &use_facet<_Codecvt>(__loc) ;

  00007	8b 4d 08	 mov	 ecx, DWORD PTR ___loc$[ebp]
  0000a	68 00 00 00 00	 push	 OFFSET FLAT:?id@?$codecvt@DDH@_STL@@2V0locale@2@A ; _STL::codecvt<char,char,int>::id
  0000f	e8 00 00 00 00	 call	 ?_M_use_facet@locale@_STL@@QBEPAVfacet@12@ABVid@12@@Z ; _STL::locale::_M_use_facet
  00014	89 86 a0 00 00
	00		 mov	 DWORD PTR [esi+160], eax

; 732  :   int __encoding    = _M_codecvt->encoding();

  0001a	8b 10		 mov	 edx, DWORD PTR [eax]
  0001c	8b c8		 mov	 ecx, eax
  0001e	ff 52 10	 call	 DWORD PTR [edx+16]
  00021	89 45 08	 mov	 DWORD PTR ___encoding$[ebp], eax

; 733  : 
; 734  :   _M_width          = (max)(__encoding, 1);

  00024	33 c0		 xor	 eax, eax
  00026	40		 inc	 eax
  00027	39 45 08	 cmp	 DWORD PTR ___encoding$[ebp], eax
  0002a	89 45 fc	 mov	 DWORD PTR $T101088[ebp], eax
  0002d	8d 45 fc	 lea	 eax, DWORD PTR $T101088[ebp]
  00030	7c 03		 jl	 SHORT $L101104
  00032	8d 45 08	 lea	 eax, DWORD PTR ___encoding$[ebp]
$L101104:
  00035	8b 00		 mov	 eax, DWORD PTR [eax]

; 735  :   _M_max_width      = _M_codecvt->max_length();

  00037	8b 8e a0 00 00
	00		 mov	 ecx, DWORD PTR [esi+160]
  0003d	89 86 a4 00 00
	00		 mov	 DWORD PTR [esi+164], eax
  00043	8b 01		 mov	 eax, DWORD PTR [ecx]
  00045	ff 50 1c	 call	 DWORD PTR [eax+28]

; 736  :   _M_constant_width = __encoding > 0;

  00048	83 7d 08 00	 cmp	 DWORD PTR ___encoding$[ebp], 0

; 737  :   _M_always_noconv  = _M_codecvt->always_noconv();

  0004c	8b 8e a0 00 00
	00		 mov	 ecx, DWORD PTR [esi+160]
  00052	89 86 a8 00 00
	00		 mov	 DWORD PTR [esi+168], eax
  00058	0f 9f c0	 setg	 al
  0005b	88 46 64	 mov	 BYTE PTR [esi+100], al
  0005e	8b 01		 mov	 eax, DWORD PTR [ecx]
  00060	ff 50 14	 call	 DWORD PTR [eax+20]
  00063	88 46 65	 mov	 BYTE PTR [esi+101], al
  00066	5e		 pop	 esi

; 738  : }

  00067	c9		 leave
  00068	c2 04 00	 ret	 4
?_M_setup_codecvt@?$basic_filebuf@DV?$char_traits@D@_STL@@@_STL@@AAEXABVlocale@2@@Z ENDP ; _STL::basic_filebuf<char,_STL::char_traits<char> >::_M_setup_codecvt
_TEXT	ENDS
PUBLIC	?erase@?$basic_string@DV?$char_traits@D@_STL@@V?$allocator@D@2@@_STL@@QAEPADPAD0@Z ; _STL::basic_string<char,_STL::char_traits<char>,_STL::allocator<char> >::erase
; Function compile flags: /Ogsy
; File c:\stlport-4.6.1\stlport\stl\_string.h
;	COMDAT ?erase@?$basic_string@DV?$char_traits@D@_STL@@V?$allocator@D@2@@_STL@@QAEPADPAD0@Z
_TEXT	SEGMENT
___first$ = 8						; size = 4
___last$ = 12						; size = 4
?erase@?$basic_string@DV?$char_traits@D@_STL@@V?$allocator@D@2@@_STL@@QAEPADPAD0@Z PROC NEAR ; _STL::basic_string<char,_STL::char_traits<char>,_STL::allocator<char> >::erase, COMDAT
; _this$ = ecx

; 862  :   iterator erase(iterator __first, iterator __last) {

  00000	53		 push	 ebx

; 863  :     if (__first != __last) {

  00001	8b 5c 24 08	 mov	 ebx, DWORD PTR ___first$[esp]
  00005	56		 push	 esi
  00006	57		 push	 edi
  00007	8b 7c 24 14	 mov	 edi, DWORD PTR ___last$[esp+8]
  0000b	3b df		 cmp	 ebx, edi
  0000d	8b f1		 mov	 esi, ecx
  0000f	74 1a		 je	 SHORT $L99886

; 864  :                                 // The move includes the terminating _CharT().
; 865  :       traits_type::move(__first, __last, (this->_M_finish - __last) + 1);

  00011	8b 46 04	 mov	 eax, DWORD PTR [esi+4]
  00014	2b c7		 sub	 eax, edi
  00016	40		 inc	 eax
  00017	74 0b		 je	 SHORT $L101121
  00019	50		 push	 eax
  0001a	57		 push	 edi
  0001b	53		 push	 ebx
  0001c	e8 00 00 00 00	 call	 _memmove
  00021	83 c4 0c	 add	 esp, 12			; 0000000cH
$L101121:

; 866  :       pointer __new_finish = this->_M_finish - (__last - __first);

  00024	8b c3		 mov	 eax, ebx
  00026	2b c7		 sub	 eax, edi

; 867  :       _STLP_STD::_Destroy(__new_finish + 1, this->_M_finish + 1);
; 868  :       this->_M_finish = __new_finish;

  00028	01 46 04	 add	 DWORD PTR [esi+4], eax
$L99886:
  0002b	5f		 pop	 edi
  0002c	5e		 pop	 esi

; 869  :     }
; 870  :     return __first;

  0002d	8b c3		 mov	 eax, ebx
  0002f	5b		 pop	 ebx

; 871  :   }

  00030	c2 08 00	 ret	 8
?erase@?$basic_string@DV?$char_traits@D@_STL@@V?$allocator@D@2@@_STL@@QAEPADPAD0@Z ENDP ; _STL::basic_string<char,_STL::char_traits<char>,_STL::allocator<char> >::erase
_TEXT	ENDS
PUBLIC	??0?$_List_iterator@V?$basic_string@DV?$char_traits@D@_STL@@V?$allocator@D@2@@_STL@@U?$_Nonconst_traits@V?$basic_string@DV?$char_traits@D@_STL@@V?$allocator@D@2@@_STL@@@2@@_STL@@QAE@ABU01@@Z ; _STL::_List_iterator<_STL::basic_string<char,_STL::char_traits<char>,_STL::allocator<char> >,_STL::_Nonconst_traits<_STL::basic_string<char,_STL::char_traits<char>,_STL::allocator<char> > > >::_List_iterator<_STL::basic_string<char,_STL::char_traits<char>,_STL::allocator<char> >,_STL::_Nonconst_traits<_STL::basic_string<char,_STL::char_traits<char>,_STL::allocator<char> > > >
; Function compile flags: /Ogsy
; File c:\stlport-4.6.1\stlport\stl\_list.h
;	COMDAT ??0?$_List_iterator@V?$basic_string@DV?$char_traits@D@_STL@@V?$allocator@D@2@@_STL@@U?$_Nonconst_traits@V?$basic_string@DV?$char_traits@D@_STL@@V?$allocator@D@2@@_STL@@@2@@_STL@@QAE@ABU01@@Z
_TEXT	SEGMENT
___x$ = 8						; size = 4
??0?$_List_iterator@V?$basic_string@DV?$char_traits@D@_STL@@V?$allocator@D@2@@_STL@@U?$_Nonconst_traits@V?$basic_string@DV?$char_traits@D@_STL@@V?$allocator@D@2@@_STL@@@2@@_STL@@QAE@ABU01@@Z PROC NEAR ; _STL::_List_iterator<_STL::basic_string<char,_STL::char_traits<char>,_STL::allocator<char> >,_STL::_Nonconst_traits<_STL::basic_string<char,_STL::char_traits<char>,_STL::allocator<char> > > >::_List_iterator<_STL::basic_string<char,_STL::char_traits<char>,_STL::allocator<char> >,_STL::_Nonconst_traits<_STL::basic_string<char,_STL::char_traits<char>,_STL::allocator<char> > > >, COMDAT
; _this$ = ecx

; 128  :   _List_iterator(const iterator& __x) :  _List_iterator_base(__x._M_node) {}

  00000	8b c1		 mov	 eax, ecx
  00002	8b 4c 24 04	 mov	 ecx, DWORD PTR ___x$[esp-4]
  00006	8b 09		 mov	 ecx, DWORD PTR [ecx]
  00008	89 08		 mov	 DWORD PTR [eax], ecx
  0000a	c2 04 00	 ret	 4
??0?$_List_iterator@V?$basic_string@DV?$char_traits@D@_STL@@V?$allocator@D@2@@_STL@@U?$_Nonconst_traits@V?$basic_string@DV?$char_traits@D@_STL@@V?$allocator@D@2@@_STL@@@2@@_STL@@QAE@ABU01@@Z ENDP ; _STL::_List_iterator<_STL::basic_string<char,_STL::char_traits<char>,_STL::allocator<char> >,_STL::_Nonconst_traits<_STL::basic_string<char,_STL::char_traits<char>,_STL::allocator<char> > > >::_List_iterator<_STL::basic_string<char,_STL::char_traits<char>,_STL::allocator<char> >,_STL::_Nonconst_traits<_STL::basic_string<char,_STL::char_traits<char>,_STL::allocator<char> > > >
_TEXT	ENDS
PUBLIC	?rdbuf@?$basic_ios@DV?$char_traits@D@_STL@@@_STL@@QAEPAV?$basic_streambuf@DV?$char_traits@D@_STL@@@2@PAV32@@Z ; _STL::basic_ios<char,_STL::char_traits<char> >::rdbuf
; Function compile flags: /Ogsy
; File c:\stlport-4.6.1\stlport\stl\_ios.c
;	COMDAT ?rdbuf@?$basic_ios@DV?$char_traits@D@_STL@@@_STL@@QAEPAV?$basic_streambuf@DV?$char_traits@D@_STL@@@2@PAV32@@Z
_TEXT	SEGMENT
___buf$ = 8						; size = 4
?rdbuf@?$basic_ios@DV?$char_traits@D@_STL@@@_STL@@QAEPAV?$basic_streambuf@DV?$char_traits@D@_STL@@@2@PAV32@@Z PROC NEAR ; _STL::basic_ios<char,_STL::char_traits<char> >::rdbuf, COMDAT
; _this$ = ecx

; 53   :   basic_streambuf<_CharT, _Traits>* __tmp = _M_streambuf;
; 54   :   _M_streambuf = __buf;

  00000	8b 44 24 04	 mov	 eax, DWORD PTR ___buf$[esp-4]
  00004	56		 push	 esi
  00005	8b 71 58	 mov	 esi, DWORD PTR [ecx+88]

; 55   :   this->clear();

  00008	6a 00		 push	 0
  0000a	89 41 58	 mov	 DWORD PTR [ecx+88], eax
  0000d	e8 00 00 00 00	 call	 ?clear@?$basic_ios@DV?$char_traits@D@_STL@@@_STL@@QAEXH@Z ; _STL::basic_ios<char,_STL::char_traits<char> >::clear

; 56   :   return __tmp;

  00012	8b c6		 mov	 eax, esi
  00014	5e		 pop	 esi

; 57   : }

  00015	c2 04 00	 ret	 4
?rdbuf@?$basic_ios@DV?$char_traits@D@_STL@@@_STL@@QAEPAV?$basic_streambuf@DV?$char_traits@D@_STL@@@2@PAV32@@Z ENDP ; _STL::basic_ios<char,_STL::char_traits<char> >::rdbuf
_TEXT	ENDS
PUBLIC	?widen@?$basic_ios@DV?$char_traits@D@_STL@@@_STL@@QBEDD@Z ; _STL::basic_ios<char,_STL::char_traits<char> >::widen
; Function compile flags: /Ogsy
; File c:\stlport-4.6.1\stlport\stl\_ios.h
;	COMDAT ?widen@?$basic_ios@DV?$char_traits@D@_STL@@@_STL@@QBEDD@Z
_TEXT	SEGMENT
___c$ = 8						; size = 1
?widen@?$basic_ios@DV?$char_traits@D@_STL@@@_STL@@QBEDD@Z PROC NEAR ; _STL::basic_ios<char,_STL::char_traits<char> >::widen, COMDAT
; _this$ = ecx

; 143  :   return ((const ctype<_CharT>*)this->_M_ctype_facet())->widen(__c); }

  00000	8b 49 40	 mov	 ecx, DWORD PTR [ecx+64]
  00003	8b 01		 mov	 eax, DWORD PTR [ecx]
  00005	ff 60 18	 jmp	 DWORD PTR [eax+24]
?widen@?$basic_ios@DV?$char_traits@D@_STL@@@_STL@@QBEDD@Z ENDP ; _STL::basic_ios<char,_STL::char_traits<char> >::widen
_TEXT	ENDS
PUBLIC	?_M_unshift@?$basic_filebuf@DV?$char_traits@D@_STL@@@_STL@@AAE_NXZ ; _STL::basic_filebuf<char,_STL::char_traits<char> >::_M_unshift
; Function compile flags: /Ogsy
; File c:\stlport-4.6.1\stlport\stl\_fstream.c
;	COMDAT ?_M_unshift@?$basic_filebuf@DV?$char_traits@D@_STL@@@_STL@@AAE_NXZ
_TEXT	SEGMENT
___enext$100018 = -4					; size = 4
?_M_unshift@?$basic_filebuf@DV?$char_traits@D@_STL@@@_STL@@AAE_NXZ PROC NEAR ; _STL::basic_filebuf<char,_STL::char_traits<char> >::_M_unshift, COMDAT
; _this$ = ecx

; 605  : {

  00000	55		 push	 ebp
  00001	8b ec		 mov	 ebp, esp
  00003	51		 push	 ecx
  00004	53		 push	 ebx
  00005	56		 push	 esi
  00006	8b f1		 mov	 esi, ecx

; 606  :   if (_M_in_output_mode && !_M_constant_width) {

  00008	80 7e 68 00	 cmp	 BYTE PTR [esi+104], 0
  0000c	57		 push	 edi
  0000d	74 57		 je	 SHORT $L100017
  0000f	80 7e 64 00	 cmp	 BYTE PTR [esi+100], 0
  00013	75 51		 jne	 SHORT $L100017
$L100015:

; 607  :     typename _Codecvt::result __status;
; 608  :     do {
; 609  :       char* __enext = _M_ext_buf;

  00015	8b 46 74	 mov	 eax, DWORD PTR [esi+116]

; 610  :       __status = _M_codecvt->unshift(_M_state,
; 611  :                                      _M_ext_buf, _M_ext_buf_EOS, __enext);

  00018	8b 56 78	 mov	 edx, DWORD PTR [esi+120]
  0001b	8b 8e a0 00 00
	00		 mov	 ecx, DWORD PTR [esi+160]
  00021	8d 5d fc	 lea	 ebx, DWORD PTR ___enext$100018[ebp]
  00024	53		 push	 ebx
  00025	52		 push	 edx
  00026	89 45 fc	 mov	 DWORD PTR ___enext$100018[ebp], eax
  00029	8b 39		 mov	 edi, DWORD PTR [ecx]
  0002b	50		 push	 eax
  0002c	8d 86 84 00 00
	00		 lea	 eax, DWORD PTR [esi+132]
  00032	50		 push	 eax
  00033	ff 57 0c	 call	 DWORD PTR [edi+12]
  00036	8b f8		 mov	 edi, eax

; 612  :       if (__status == _Codecvt::noconv ||
; 613  :           (__enext == _M_ext_buf && __status == _Codecvt::ok))

  00038	83 ff 03	 cmp	 edi, 3
  0003b	74 29		 je	 SHORT $L100017
  0003d	8b 45 fc	 mov	 eax, DWORD PTR ___enext$100018[ebp]
  00040	3b 46 74	 cmp	 eax, DWORD PTR [esi+116]
  00043	75 04		 jne	 SHORT $L100019
  00045	85 ff		 test	 edi, edi
  00047	74 1d		 je	 SHORT $L100017
$L100019:

; 614  :         return true;
; 615  :       else if (__status == _Codecvt::error)

  00049	83 ff 02	 cmp	 edi, 2
  0004c	74 1f		 je	 SHORT $L101165

; 616  :         return false;
; 617  :       else if (!_M_write(_M_ext_buf, __enext - _M_ext_buf))

  0004e	8b 4e 74	 mov	 ecx, DWORD PTR [esi+116]
  00051	2b c1		 sub	 eax, ecx
  00053	50		 push	 eax
  00054	51		 push	 ecx
  00055	8d 4e 54	 lea	 ecx, DWORD PTR [esi+84]
  00058	e8 00 00 00 00	 call	 ?_M_write@_Filebuf_base@_STL@@QAE_NPADH@Z ; _STL::_Filebuf_base::_M_write
  0005d	84 c0		 test	 al, al
  0005f	74 0c		 je	 SHORT $L101165

; 619  :     } while(__status == _Codecvt::partial);

  00061	83 ff 01	 cmp	 edi, 1
  00064	74 af		 je	 SHORT $L100015
$L100017:

; 620  :   }
; 621  : 
; 622  :   return true;

  00066	b0 01		 mov	 al, 1
$L100012:
  00068	5f		 pop	 edi
  00069	5e		 pop	 esi
  0006a	5b		 pop	 ebx

; 623  : }

  0006b	c9		 leave
  0006c	c3		 ret	 0
$L101165:

; 618  :         return false;

  0006d	32 c0		 xor	 al, al
  0006f	eb f7		 jmp	 SHORT $L100012
?_M_unshift@?$basic_filebuf@DV?$char_traits@D@_STL@@@_STL@@AAE_NXZ ENDP ; _STL::basic_filebuf<char,_STL::char_traits<char> >::_M_unshift
_TEXT	ENDS
PUBLIC	?_S_eof@?$basic_ios@DV?$char_traits@D@_STL@@@_STL@@SA_NH@Z ; _STL::basic_ios<char,_STL::char_traits<char> >::_S_eof
; Function compile flags: /Ogsy
; File c:\stlport-4.6.1\stlport\stl\_ios.h
;	COMDAT ?_S_eof@?$basic_ios@DV?$char_traits@D@_STL@@@_STL@@SA_NH@Z
_TEXT	SEGMENT
___c$ = 8						; size = 4
?_S_eof@?$basic_ios@DV?$char_traits@D@_STL@@@_STL@@SA_NH@Z PROC NEAR ; _STL::basic_ios<char,_STL::char_traits<char> >::_S_eof, COMDAT

; 110  :     const int_type __eof = _Traits::eof();
; 111  :     return _Traits::eq_int_type(__c, __eof);

  00000	33 c0		 xor	 eax, eax
  00002	83 7c 24 04 ff	 cmp	 DWORD PTR ___c$[esp-4], -1
  00007	0f 94 c0	 sete	 al

; 112  :   }

  0000a	c3		 ret	 0
?_S_eof@?$basic_ios@DV?$char_traits@D@_STL@@@_STL@@SA_NH@Z ENDP ; _STL::basic_ios<char,_STL::char_traits<char> >::_S_eof
_TEXT	ENDS
PUBLIC	??E?$_List_iterator@V?$basic_string@DV?$char_traits@D@_STL@@V?$allocator@D@2@@_STL@@U?$_Const_traits@V?$basic_string@DV?$char_traits@D@_STL@@V?$allocator@D@2@@_STL@@@2@@_STL@@QAEAAU01@XZ ; _STL::_List_iterator<_STL::basic_string<char,_STL::char_traits<char>,_STL::allocator<char> >,_STL::_Const_traits<_STL::basic_string<char,_STL::char_traits<char>,_STL::allocator<char> > > >::operator++
; Function compile flags: /Ogsy
; File c:\stlport-4.6.1\stlport\stl\_list.h
;	COMDAT ??E?$_List_iterator@V?$basic_string@DV?$char_traits@D@_STL@@V?$allocator@D@2@@_STL@@U?$_Const_traits@V?$basic_string@DV?$char_traits@D@_STL@@V?$allocator@D@2@@_STL@@@2@@_STL@@QAEAAU01@XZ
_TEXT	SEGMENT
??E?$_List_iterator@V?$basic_string@DV?$char_traits@D@_STL@@V?$allocator@D@2@@_STL@@U?$_Const_traits@V?$basic_string@DV?$char_traits@D@_STL@@V?$allocator@D@2@@_STL@@@2@@_STL@@QAEAAU01@XZ PROC NEAR ; _STL::_List_iterator<_STL::basic_string<char,_STL::char_traits<char>,_STL::allocator<char> >,_STL::_Const_traits<_STL::basic_string<char,_STL::char_traits<char>,_STL::allocator<char> > > >::operator++, COMDAT
; _this$ = ecx

; 134  :   _Self& operator++() { 

  00000	8b c1		 mov	 eax, ecx

; 135  :     this->_M_incr();

  00002	8b 08		 mov	 ecx, DWORD PTR [eax]
  00004	8b 09		 mov	 ecx, DWORD PTR [ecx]
  00006	89 08		 mov	 DWORD PTR [eax], ecx

; 136  :     return *this;
; 137  :   }

  00008	c3		 ret	 0
??E?$_List_iterator@V?$basic_string@DV?$char_traits@D@_STL@@V?$allocator@D@2@@_STL@@U?$_Const_traits@V?$basic_string@DV?$char_traits@D@_STL@@V?$allocator@D@2@@_STL@@@2@@_STL@@QAEAAU01@XZ ENDP ; _STL::_List_iterator<_STL::basic_string<char,_STL::char_traits<char>,_STL::allocator<char> >,_STL::_Const_traits<_STL::basic_string<char,_STL::char_traits<char>,_STL::allocator<char> > > >::operator++
_TEXT	ENDS
PUBLIC	?_M_allocate_block@?$_String_base@DV?$allocator@D@_STL@@@_STL@@QAEXI@Z ; _STL::_String_base<char,_STL::allocator<char> >::_M_allocate_block
; Function compile flags: /Ogsy
; File c:\stlport-4.6.1\stlport\stl\_string.c
;	COMDAT ?_M_allocate_block@?$_String_base@DV?$allocator@D@_STL@@@_STL@@QAEXI@Z
_TEXT	SEGMENT
___n$ = 8						; size = 4
?_M_allocate_block@?$_String_base@DV?$allocator@D@_STL@@@_STL@@QAEXI@Z PROC NEAR ; _STL::_String_base<char,_STL::allocator<char> >::_M_allocate_block, COMDAT
; _this$ = ecx

; 530  : template <class _Tp, class _Alloc> void _String_base<_Tp, _Alloc>::_M_allocate_block(size_t __n) {  

  00000	56		 push	 esi
  00001	57		 push	 edi

; 531  :   if ((__n <= (max_size()+1)) && (__n>0)){ 

  00002	8b 7c 24 0c	 mov	 edi, DWORD PTR ___n$[esp+4]
  00006	83 ff ff	 cmp	 edi, -1
  00009	8b f1		 mov	 esi, ecx
  0000b	77 17		 ja	 SHORT $L100095
  0000d	85 ff		 test	 edi, edi
  0000f	76 13		 jbe	 SHORT $L100095

; 532  :     _M_start  = _M_end_of_storage.allocate(__n); 

  00011	57		 push	 edi
  00012	e8 00 00 00 00	 call	 ?allocate@?$__node_alloc@$00$0A@@_STL@@SAPAXI@Z ; _STL::__node_alloc<1,0>::allocate
  00017	89 06		 mov	 DWORD PTR [esi], eax

; 533  :     _M_finish = _M_start; 

  00019	89 46 04	 mov	 DWORD PTR [esi+4], eax

; 534  :     _M_end_of_storage._M_data = _M_start + __n; 

  0001c	03 c7		 add	 eax, edi
  0001e	59		 pop	 ecx
  0001f	89 46 08	 mov	 DWORD PTR [esi+8], eax

; 535  :   } 
; 536  :     else 

  00022	eb 07		 jmp	 SHORT $L100096
$L100095:

; 537  :       _M_throw_length_error(); 

  00024	8b ce		 mov	 ecx, esi
  00026	e8 00 00 00 00	 call	 ?_M_throw_length_error@?$_String_base@DV?$allocator@D@_STL@@@_STL@@QBEXXZ ; _STL::_String_base<char,_STL::allocator<char> >::_M_throw_length_error
$L100096:
  0002b	5f		 pop	 edi
  0002c	5e		 pop	 esi

; 538  : } 

  0002d	c2 04 00	 ret	 4
?_M_allocate_block@?$_String_base@DV?$allocator@D@_STL@@@_STL@@QAEXI@Z ENDP ; _STL::_String_base<char,_STL::allocator<char> >::_M_allocate_block
_TEXT	ENDS
PUBLIC	??$distance@PAD@_STL@@YAHABQAD0@Z		; _STL::distance<char *>
; Function compile flags: /Ogsy
; File c:\stlport-4.6.1\stlport\stl\_iterator_base.h
;	COMDAT ??$distance@PAD@_STL@@YAHABQAD0@Z
_TEXT	SEGMENT
___first$ = 8						; size = 4
___last$ = 12						; size = 4
??$distance@PAD@_STL@@YAHABQAD0@Z PROC NEAR		; _STL::distance<char *>, COMDAT

; 369  :   return __distance(__first, __last, _STLP_ITERATOR_CATEGORY(__first, _InputIterator));  

  00000	8b 44 24 08	 mov	 eax, DWORD PTR ___last$[esp-4]
  00004	8b 00		 mov	 eax, DWORD PTR [eax]
  00006	8b 4c 24 04	 mov	 ecx, DWORD PTR ___first$[esp-4]
  0000a	2b 01		 sub	 eax, DWORD PTR [ecx]

; 370  : }

  0000c	c3		 ret	 0
??$distance@PAD@_STL@@YAHABQAD0@Z ENDP			; _STL::distance<char *>
_TEXT	ENDS
PUBLIC	?_M_handle_exception@?$basic_ios@DV?$char_traits@D@_STL@@@_STL@@QAEXH@Z ; _STL::basic_ios<char,_STL::char_traits<char> >::_M_handle_exception
EXTRN	__CxxThrowException@8:NEAR
; Function compile flags: /Ogsy
; File c:\stlport-4.6.1\stlport\stl\_ios.c
;	COMDAT ?_M_handle_exception@?$basic_ios@DV?$char_traits@D@_STL@@@_STL@@QAEXH@Z
_TEXT	SEGMENT
___flag$ = 8						; size = 4
?_M_handle_exception@?$basic_ios@DV?$char_traits@D@_STL@@@_STL@@QAEXH@Z PROC NEAR ; _STL::basic_ios<char,_STL::char_traits<char> >::_M_handle_exception, COMDAT
; _this$ = ecx

; 118  :   this->_M_setstate_nothrow(__flag);

  00000	8b 44 24 04	 mov	 eax, DWORD PTR ___flag$[esp-4]
  00004	09 41 08	 or	 DWORD PTR [ecx+8], eax

; 119  :   if (this->_M_get_exception_mask() & __flag)

  00007	85 41 14	 test	 DWORD PTR [ecx+20], eax
  0000a	74 09		 je	 SHORT $L100135

; 120  :     _STLP_RETHROW;

  0000c	6a 00		 push	 0
  0000e	6a 00		 push	 0
  00010	e8 00 00 00 00	 call	 __CxxThrowException@8
$L101212:
$L100135:

; 121  : }

  00015	c2 04 00	 ret	 4
$L101211:
?_M_handle_exception@?$basic_ios@DV?$char_traits@D@_STL@@@_STL@@QAEXH@Z ENDP ; _STL::basic_ios<char,_STL::char_traits<char> >::_M_handle_exception
_TEXT	ENDS
PUBLIC	?_M_construct_null@?$basic_string@DV?$char_traits@D@_STL@@V?$allocator@D@2@@_STL@@AAEXPAD@Z ; _STL::basic_string<char,_STL::char_traits<char>,_STL::allocator<char> >::_M_construct_null
; Function compile flags: /Ogsy
; File c:\stlport-4.6.1\stlport\stl\_string.h
;	COMDAT ?_M_construct_null@?$basic_string@DV?$char_traits@D@_STL@@V?$allocator@D@2@@_STL@@AAEXPAD@Z
_TEXT	SEGMENT
___p$ = 8						; size = 4
?_M_construct_null@?$basic_string@DV?$char_traits@D@_STL@@V?$allocator@D@2@@_STL@@AAEXPAD@Z PROC NEAR ; _STL::basic_string<char,_STL::char_traits<char>,_STL::allocator<char> >::_M_construct_null, COMDAT
; _this$ = ecx

; 336  :     _M_construct_null_aux(__p, _Char_Is_Integral());

  00000	8b 44 24 04	 mov	 eax, DWORD PTR ___p$[esp-4]
  00004	c6 00 00	 mov	 BYTE PTR [eax], 0

; 337  :   }

  00007	c2 04 00	 ret	 4
?_M_construct_null@?$basic_string@DV?$char_traits@D@_STL@@V?$allocator@D@2@@_STL@@AAEXPAD@Z ENDP ; _STL::basic_string<char,_STL::char_traits<char>,_STL::allocator<char> >::_M_construct_null
_TEXT	ENDS
PUBLIC	??$__copy_aux@PADPAD@_STL@@YAPADPAD00ABU__true_type@0@@Z ; _STL::__copy_aux<char *,char *>
; Function compile flags: /Ogsy
; File c:\stlport-4.6.1\stlport\stl\_algobase.h
;	COMDAT ??$__copy_aux@PADPAD@_STL@@YAPADPAD00ABU__true_type@0@@Z
_TEXT	SEGMENT
___first$ = 8						; size = 4
___last$ = 12						; size = 4
___result$ = 16						; size = 4
___formal$ = 20						; size = 4
??$__copy_aux@PADPAD@_STL@@YAPADPAD00ABU__true_type@0@@Z PROC NEAR ; _STL::__copy_aux<char *,char *>, COMDAT

; 202  :   return __copy_ptrs(__first, __last, __result, 
; 203  :                      _IsOKToMemCpy(_STLP_VALUE_TYPE(__first, _InputIter), 
; 204  :                                    _STLP_VALUE_TYPE(__result, _OutputIter))._Ret());

  00000	ff 74 24 0c	 push	 DWORD PTR ___result$[esp-4]
  00004	ff 74 24 0c	 push	 DWORD PTR ___last$[esp]
  00008	ff 74 24 0c	 push	 DWORD PTR ___first$[esp+4]
  0000c	e8 00 00 00 00	 call	 ?__copy_trivial@_STL@@YAPAXPBX0PAX@Z ; _STL::__copy_trivial
  00011	83 c4 0c	 add	 esp, 12			; 0000000cH

; 205  : }

  00014	c3		 ret	 0
??$__copy_aux@PADPAD@_STL@@YAPADPAD00ABU__true_type@0@@Z ENDP ; _STL::__copy_aux<char *,char *>
_TEXT	ENDS
PUBLIC	?begin@?$list@V?$basic_string@DV?$char_traits@D@_STL@@V?$allocator@D@2@@_STL@@V?$allocator@V?$basic_string@DV?$char_traits@D@_STL@@V?$allocator@D@2@@_STL@@@2@@_STL@@QBE?AU?$_List_iterator@V?$basic_string@DV?$char_traits@D@_STL@@V?$allocator@D@2@@_STL@@U?$_Const_traits@V?$basic_string@DV?$char_traits@D@_STL@@V?$allocator@D@2@@_STL@@@2@@2@XZ ; _STL::list<_STL::basic_string<char,_STL::char_traits<char>,_STL::allocator<char> >,_STL::allocator<_STL::basic_string<char,_STL::char_traits<char>,_STL::allocator<char> > > >::begin
; Function compile flags: /Ogsy
; File c:\stlport-4.6.1\stlport\stl\_list.h
;	COMDAT ?begin@?$list@V?$basic_string@DV?$char_traits@D@_STL@@V?$allocator@D@2@@_STL@@V?$allocator@V?$basic_string@DV?$char_traits@D@_STL@@V?$allocator@D@2@@_STL@@@2@@_STL@@QBE?AU?$_List_iterator@V?$basic_string@DV?$char_traits@D@_STL@@V?$allocator@D@2@@_STL@@U?$_Const_traits@V?$basic_string@DV?$char_traits@D@_STL@@V?$allocator@D@2@@_STL@@@2@@2@XZ
_TEXT	SEGMENT
___$ReturnUdt$ = 8					; size = 4
?begin@?$list@V?$basic_string@DV?$char_traits@D@_STL@@V?$allocator@D@2@@_STL@@V?$allocator@V?$basic_string@DV?$char_traits@D@_STL@@V?$allocator@D@2@@_STL@@@2@@_STL@@QBE?AU?$_List_iterator@V?$basic_string@DV?$char_traits@D@_STL@@V?$allocator@D@2@@_STL@@U?$_Const_traits@V?$basic_string@DV?$char_traits@D@_STL@@V?$allocator@D@2@@_STL@@@2@@2@XZ PROC NEAR ; _STL::list<_STL::basic_string<char,_STL::char_traits<char>,_STL::allocator<char> >,_STL::allocator<_STL::basic_string<char,_STL::char_traits<char>,_STL::allocator<char> > > >::begin, COMDAT
; _this$ = ecx

; 267  :   const_iterator begin() const { return const_iterator((_Node*)(this->_M_node._M_data->_M_next)); }

  00000	8b 01		 mov	 eax, DWORD PTR [ecx]
  00002	8b 08		 mov	 ecx, DWORD PTR [eax]
  00004	8b 44 24 04	 mov	 eax, DWORD PTR ___$ReturnUdt$[esp-4]
  00008	89 08		 mov	 DWORD PTR [eax], ecx
  0000a	c2 04 00	 ret	 4
?begin@?$list@V?$basic_string@DV?$char_traits@D@_STL@@V?$allocator@D@2@@_STL@@V?$allocator@V?$basic_string@DV?$char_traits@D@_STL@@V?$allocator@D@2@@_STL@@@2@@_STL@@QBE?AU?$_List_iterator@V?$basic_string@DV?$char_traits@D@_STL@@V?$allocator@D@2@@_STL@@U?$_Const_traits@V?$basic_string@DV?$char_traits@D@_STL@@V?$allocator@D@2@@_STL@@@2@@2@XZ ENDP ; _STL::list<_STL::basic_string<char,_STL::char_traits<char>,_STL::allocator<char> >,_STL::allocator<_STL::basic_string<char,_STL::char_traits<char>,_STL::allocator<char> > > >::begin
_TEXT	ENDS
PUBLIC	?end@?$list@V?$basic_string@DV?$char_traits@D@_STL@@V?$allocator@D@2@@_STL@@V?$allocator@V?$basic_string@DV?$char_traits@D@_STL@@V?$allocator@D@2@@_STL@@@2@@_STL@@QBE?AU?$_List_iterator@V?$basic_string@DV?$char_traits@D@_STL@@V?$allocator@D@2@@_STL@@U?$_Const_traits@V?$basic_string@DV?$char_traits@D@_STL@@V?$allocator@D@2@@_STL@@@2@@2@XZ ; _STL::list<_STL::basic_string<char,_STL::char_traits<char>,_STL::allocator<char> >,_STL::allocator<_STL::basic_string<char,_STL::char_traits<char>,_STL::allocator<char> > > >::end
; Function compile flags: /Ogsy
;	COMDAT ?end@?$list@V?$basic_string@DV?$char_traits@D@_STL@@V?$allocator@D@2@@_STL@@V?$allocator@V?$basic_string@DV?$char_traits@D@_STL@@V?$allocator@D@2@@_STL@@@2@@_STL@@QBE?AU?$_List_iterator@V?$basic_string@DV?$char_traits@D@_STL@@V?$allocator@D@2@@_STL@@U?$_Const_traits@V?$basic_string@DV?$char_traits@D@_STL@@V?$allocator@D@2@@_STL@@@2@@2@XZ
_TEXT	SEGMENT
___$ReturnUdt$ = 8					; size = 4
?end@?$list@V?$basic_string@DV?$char_traits@D@_STL@@V?$allocator@D@2@@_STL@@V?$allocator@V?$basic_string@DV?$char_traits@D@_STL@@V?$allocator@D@2@@_STL@@@2@@_STL@@QBE?AU?$_List_iterator@V?$basic_string@DV?$char_traits@D@_STL@@V?$allocator@D@2@@_STL@@U?$_Const_traits@V?$basic_string@DV?$char_traits@D@_STL@@V?$allocator@D@2@@_STL@@@2@@2@XZ PROC NEAR ; _STL::list<_STL::basic_string<char,_STL::char_traits<char>,_STL::allocator<char> >,_STL::allocator<_STL::basic_string<char,_STL::char_traits<char>,_STL::allocator<char> > > >::end, COMDAT
; _this$ = ecx

; 270  :   const_iterator end() const { return this->_M_node._M_data; }

  00000	8b 09		 mov	 ecx, DWORD PTR [ecx]
  00002	8b 44 24 04	 mov	 eax, DWORD PTR ___$ReturnUdt$[esp-4]
  00006	89 08		 mov	 DWORD PTR [eax], ecx
  00008	c2 04 00	 ret	 4
?end@?$list@V?$basic_string@DV?$char_traits@D@_STL@@V?$allocator@D@2@@_STL@@V?$allocator@V?$basic_string@DV?$char_traits@D@_STL@@V?$allocator@D@2@@_STL@@@2@@_STL@@QBE?AU?$_List_iterator@V?$basic_string@DV?$char_traits@D@_STL@@V?$allocator@D@2@@_STL@@U?$_Const_traits@V?$basic_string@DV?$char_traits@D@_STL@@V?$allocator@D@2@@_STL@@@2@@2@XZ ENDP ; _STL::list<_STL::basic_string<char,_STL::char_traits<char>,_STL::allocator<char> >,_STL::allocator<_STL::basic_string<char,_STL::char_traits<char>,_STL::allocator<char> > > >::end
_TEXT	ENDS
PUBLIC	?begin@?$list@V?$basic_string@DV?$char_traits@D@_STL@@V?$allocator@D@2@@_STL@@V?$allocator@V?$basic_string@DV?$char_traits@D@_STL@@V?$allocator@D@2@@_STL@@@2@@_STL@@QAE?AU?$_List_iterator@V?$basic_string@DV?$char_traits@D@_STL@@V?$allocator@D@2@@_STL@@U?$_Nonconst_traits@V?$basic_string@DV?$char_traits@D@_STL@@V?$allocator@D@2@@_STL@@@2@@2@XZ ; _STL::list<_STL::basic_string<char,_STL::char_traits<char>,_STL::allocator<char> >,_STL::allocator<_STL::basic_string<char,_STL::char_traits<char>,_STL::allocator<char> > > >::begin
; Function compile flags: /Ogsy
;	COMDAT ?begin@?$list@V?$basic_string@DV?$char_traits@D@_STL@@V?$allocator@D@2@@_STL@@V?$allocator@V?$basic_string@DV?$char_traits@D@_STL@@V?$allocator@D@2@@_STL@@@2@@_STL@@QAE?AU?$_List_iterator@V?$basic_string@DV?$char_traits@D@_STL@@V?$allocator@D@2@@_STL@@U?$_Nonconst_traits@V?$basic_string@DV?$char_traits@D@_STL@@V?$allocator@D@2@@_STL@@@2@@2@XZ
_TEXT	SEGMENT
___$ReturnUdt$ = 8					; size = 4
?begin@?$list@V?$basic_string@DV?$char_traits@D@_STL@@V?$allocator@D@2@@_STL@@V?$allocator@V?$basic_string@DV?$char_traits@D@_STL@@V?$allocator@D@2@@_STL@@@2@@_STL@@QAE?AU?$_List_iterator@V?$basic_string@DV?$char_traits@D@_STL@@V?$allocator@D@2@@_STL@@U?$_Nonconst_traits@V?$basic_string@DV?$char_traits@D@_STL@@V?$allocator@D@2@@_STL@@@2@@2@XZ PROC NEAR ; _STL::list<_STL::basic_string<char,_STL::char_traits<char>,_STL::allocator<char> >,_STL::allocator<_STL::basic_string<char,_STL::char_traits<char>,_STL::allocator<char> > > >::begin, COMDAT
; _this$ = ecx

; 266  :   iterator begin()             { return iterator((_Node*)(this->_M_node._M_data->_M_next)); }

  00000	8b 01		 mov	 eax, DWORD PTR [ecx]
  00002	8b 08		 mov	 ecx, DWORD PTR [eax]
  00004	8b 44 24 04	 mov	 eax, DWORD PTR ___$ReturnUdt$[esp-4]
  00008	89 08		 mov	 DWORD PTR [eax], ecx
  0000a	c2 04 00	 ret	 4
?begin@?$list@V?$basic_string@DV?$char_traits@D@_STL@@V?$allocator@D@2@@_STL@@V?$allocator@V?$basic_string@DV?$char_traits@D@_STL@@V?$allocator@D@2@@_STL@@@2@@_STL@@QAE?AU?$_List_iterator@V?$basic_string@DV?$char_traits@D@_STL@@V?$allocator@D@2@@_STL@@U?$_Nonconst_traits@V?$basic_string@DV?$char_traits@D@_STL@@V?$allocator@D@2@@_STL@@@2@@2@XZ ENDP ; _STL::list<_STL::basic_string<char,_STL::char_traits<char>,_STL::allocator<char> >,_STL::allocator<_STL::basic_string<char,_STL::char_traits<char>,_STL::allocator<char> > > >::begin
_TEXT	ENDS
PUBLIC	??1?$_STLP_alloc_proxy@PAU?$_List_node@V?$basic_string@DV?$char_traits@D@_STL@@V?$allocator@D@2@@_STL@@@_STL@@U12@V?$allocator@U?$_List_node@V?$basic_string@DV?$char_traits@D@_STL@@V?$allocator@D@2@@_STL@@@_STL@@@2@@_STL@@QAE@XZ ; _STL::_STLP_alloc_proxy<_STL::_List_node<_STL::basic_string<char,_STL::char_traits<char>,_STL::allocator<char> > > *,_STL::_List_node<_STL::basic_string<char,_STL::char_traits<char>,_STL::allocator<char> > >,_STL::allocator<_STL::_List_node<_STL::basic_string<char,_STL::char_traits<char>,_STL::allocator<char> > > > >::~_STLP_alloc_proxy<_STL::_List_node<_STL::basic_string<char,_STL::char_traits<char>,_STL::allocator<char> > > *,_STL::_List_node<_STL::basic_string<char,_STL::char_traits<char>,_STL::allocator<char> > >,_STL::allocator<_STL::_List_node<_STL::basic_string<char,_STL::char_traits<char>,_STL::allocator<char> > > > >
; Function compile flags: /Ogsy
;	COMDAT ??1?$_STLP_alloc_proxy@PAU?$_List_node@V?$basic_string@DV?$char_traits@D@_STL@@V?$allocator@D@2@@_STL@@@_STL@@U12@V?$allocator@U?$_List_node@V?$basic_string@DV?$char_traits@D@_STL@@V?$allocator@D@2@@_STL@@@_STL@@@2@@_STL@@QAE@XZ
_TEXT	SEGMENT
??1?$_STLP_alloc_proxy@PAU?$_List_node@V?$basic_string@DV?$char_traits@D@_STL@@V?$allocator@D@2@@_STL@@@_STL@@U12@V?$allocator@U?$_List_node@V?$basic_string@DV?$char_traits@D@_STL@@V?$allocator@D@2@@_STL@@@_STL@@@2@@_STL@@QAE@XZ PROC NEAR ; _STL::_STLP_alloc_proxy<_STL::_List_node<_STL::basic_string<char,_STL::char_traits<char>,_STL::allocator<char> > > *,_STL::_List_node<_STL::basic_string<char,_STL::char_traits<char>,_STL::allocator<char> > >,_STL::allocator<_STL::_List_node<_STL::basic_string<char,_STL::char_traits<char>,_STL::allocator<char> > > > >::~_STLP_alloc_proxy<_STL::_List_node<_STL::basic_string<char,_STL::char_traits<char>,_STL::allocator<char> > > *,_STL::_List_node<_STL::basic_string<char,_STL::char_traits<char>,_STL::allocator<char> > >,_STL::allocator<_STL::_List_node<_STL::basic_string<char,_STL::char_traits<char>,_STL::allocator<char> > > > >, COMDAT
; _this$ = ecx
  00000	c3		 ret	 0
??1?$_STLP_alloc_proxy@PAU?$_List_node@V?$basic_string@DV?$char_traits@D@_STL@@V?$allocator@D@2@@_STL@@@_STL@@U12@V?$allocator@U?$_List_node@V?$basic_string@DV?$char_traits@D@_STL@@V?$allocator@D@2@@_STL@@@_STL@@@2@@_STL@@QAE@XZ ENDP ; _STL::_STLP_alloc_proxy<_STL::_List_node<_STL::basic_string<char,_STL::char_traits<char>,_STL::allocator<char> > > *,_STL::_List_node<_STL::basic_string<char,_STL::char_traits<char>,_STL::allocator<char> > >,_STL::allocator<_STL::_List_node<_STL::basic_string<char,_STL::char_traits<char>,_STL::allocator<char> > > > >::~_STLP_alloc_proxy<_STL::_List_node<_STL::basic_string<char,_STL::char_traits<char>,_STL::allocator<char> > > *,_STL::_List_node<_STL::basic_string<char,_STL::char_traits<char>,_STL::allocator<char> > >,_STL::allocator<_STL::_List_node<_STL::basic_string<char,_STL::char_traits<char>,_STL::allocator<char> > > > >
_TEXT	ENDS
PUBLIC	??0?$_STLP_alloc_proxy@PAU?$_List_node@V?$basic_string@DV?$char_traits@D@_STL@@V?$allocator@D@2@@_STL@@@_STL@@U12@V?$allocator@U?$_List_node@V?$basic_string@DV?$char_traits@D@_STL@@V?$allocator@D@2@@_STL@@@_STL@@@2@@_STL@@QAE@ABV?$allocator@U?$_List_node@V?$basic_string@DV?$char_traits@D@_STL@@V?$allocator@D@2@@_STL@@@_STL@@@1@PAU?$_List_node@V?$basic_string@DV?$char_traits@D@_STL@@V?$allocator@D@2@@_STL@@@1@@Z ; _STL::_STLP_alloc_proxy<_STL::_List_node<_STL::basic_string<char,_STL::char_traits<char>,_STL::allocator<char> > > *,_STL::_List_node<_STL::basic_string<char,_STL::char_traits<char>,_STL::allocator<char> > >,_STL::allocator<_STL::_List_node<_STL::basic_string<char,_STL::char_traits<char>,_STL::allocator<char> > > > >::_STLP_alloc_proxy<_STL::_List_node<_STL::basic_string<char,_STL::char_traits<char>,_STL::allocator<char> > > *,_STL::_List_node<_STL::basic_string<char,_STL::char_traits<char>,_STL::allocator<char> > >,_STL::allocator<_STL::_List_node<_STL::basic_string<char,_STL::char_traits<char>,_STL::allocator<char> > > > >
; Function compile flags: /Ogsy
; File c:\stlport-4.6.1\stlport\stl\_alloc.h
;	COMDAT ??0?$_STLP_alloc_proxy@PAU?$_List_node@V?$basic_string@DV?$char_traits@D@_STL@@V?$allocator@D@2@@_STL@@@_STL@@U12@V?$allocator@U?$_List_node@V?$basic_string@DV?$char_traits@D@_STL@@V?$allocator@D@2@@_STL@@@_STL@@@2@@_STL@@QAE@ABV?$allocator@U?$_List_node@V?$basic_string@DV?$char_traits@D@_STL@@V?$allocator@D@2@@_STL@@@_STL@@@1@PAU?$_List_node@V?$basic_string@DV?$char_traits@D@_STL@@V?$allocator@D@2@@_STL@@@1@@Z
_TEXT	SEGMENT
___a$ = 8						; size = 4
___p$ = 12						; size = 4
??0?$_STLP_alloc_proxy@PAU?$_List_node@V?$basic_string@DV?$char_traits@D@_STL@@V?$allocator@D@2@@_STL@@@_STL@@U12@V?$allocator@U?$_List_node@V?$basic_string@DV?$char_traits@D@_STL@@V?$allocator@D@2@@_STL@@@_STL@@@2@@_STL@@QAE@ABV?$allocator@U?$_List_node@V?$basic_string@DV?$char_traits@D@_STL@@V?$allocator@D@2@@_STL@@@_STL@@@1@PAU?$_List_node@V?$basic_string@DV?$char_traits@D@_STL@@V?$allocator@D@2@@_STL@@@1@@Z PROC NEAR ; _STL::_STLP_alloc_proxy<_STL::_List_node<_STL::basic_string<char,_STL::char_traits<char>,_STL::allocator<char> > > *,_STL::_List_node<_STL::basic_string<char,_STL::char_traits<char>,_STL::allocator<char> > >,_STL::allocator<_STL::_List_node<_STL::basic_string<char,_STL::char_traits<char>,_STL::allocator<char> > > > >::_STLP_alloc_proxy<_STL::_List_node<_STL::basic_string<char,_STL::char_traits<char>,_STL::allocator<char> > > *,_STL::_List_node<_STL::basic_string<char,_STL::char_traits<char>,_STL::allocator<char> > >,_STL::allocator<_STL::_List_node<_STL::basic_string<char,_STL::char_traits<char>,_STL::allocator<char> > > > >, COMDAT
; _this$ = ecx

; 487  :   inline _STLP_alloc_proxy(const _MaybeReboundAlloc& __a, _Value __p) : _MaybeReboundAlloc(__a), _M_data(__p) {}

  00000	8b c1		 mov	 eax, ecx
  00002	8b 4c 24 08	 mov	 ecx, DWORD PTR ___p$[esp-4]
  00006	89 08		 mov	 DWORD PTR [eax], ecx
  00008	c2 08 00	 ret	 8
??0?$_STLP_alloc_proxy@PAU?$_List_node@V?$basic_string@DV?$char_traits@D@_STL@@V?$allocator@D@2@@_STL@@@_STL@@U12@V?$allocator@U?$_List_node@V?$basic_string@DV?$char_traits@D@_STL@@V?$allocator@D@2@@_STL@@@_STL@@@2@@_STL@@QAE@ABV?$allocator@U?$_List_node@V?$basic_string@DV?$char_traits@D@_STL@@V?$allocator@D@2@@_STL@@@_STL@@@1@PAU?$_List_node@V?$basic_string@DV?$char_traits@D@_STL@@V?$allocator@D@2@@_STL@@@1@@Z ENDP ; _STL::_STLP_alloc_proxy<_STL::_List_node<_STL::basic_string<char,_STL::char_traits<char>,_STL::allocator<char> > > *,_STL::_List_node<_STL::basic_string<char,_STL::char_traits<char>,_STL::allocator<char> > >,_STL::allocator<_STL::_List_node<_STL::basic_string<char,_STL::char_traits<char>,_STL::allocator<char> > > > >::_STLP_alloc_proxy<_STL::_List_node<_STL::basic_string<char,_STL::char_traits<char>,_STL::allocator<char> > > *,_STL::_List_node<_STL::basic_string<char,_STL::char_traits<char>,_STL::allocator<char> > >,_STL::allocator<_STL::_List_node<_STL::basic_string<char,_STL::char_traits<char>,_STL::allocator<char> > > > >
_TEXT	ENDS
PUBLIC	?allocate@?$allocator@U?$_List_node@V?$basic_string@DV?$char_traits@D@_STL@@V?$allocator@D@2@@_STL@@@_STL@@@_STL@@QAEPAU?$_List_node@V?$basic_string@DV?$char_traits@D@_STL@@V?$allocator@D@2@@_STL@@@2@IPBX@Z ; _STL::allocator<_STL::_List_node<_STL::basic_string<char,_STL::char_traits<char>,_STL::allocator<char> > > >::allocate
; Function compile flags: /Ogsy
;	COMDAT ?allocate@?$allocator@U?$_List_node@V?$basic_string@DV?$char_traits@D@_STL@@V?$allocator@D@2@@_STL@@@_STL@@@_STL@@QAEPAU?$_List_node@V?$basic_string@DV?$char_traits@D@_STL@@V?$allocator@D@2@@_STL@@@2@IPBX@Z
_TEXT	SEGMENT
___n$ = 8						; size = 4
___formal$ = 12						; size = 4
?allocate@?$allocator@U?$_List_node@V?$basic_string@DV?$char_traits@D@_STL@@V?$allocator@D@2@@_STL@@@_STL@@@_STL@@QAEPAU?$_List_node@V?$basic_string@DV?$char_traits@D@_STL@@V?$allocator@D@2@@_STL@@@2@IPBX@Z PROC NEAR ; _STL::allocator<_STL::_List_node<_STL::basic_string<char,_STL::char_traits<char>,_STL::allocator<char> > > >::allocate, COMDAT
; _this$ = ecx

; 355  :     return __n != 0 ? __REINTERPRET_CAST(value_type*,__sgi_alloc::allocate(__n * sizeof(value_type))) : 0;

  00000	8b 44 24 04	 mov	 eax, DWORD PTR ___n$[esp-4]
  00004	85 c0		 test	 eax, eax
  00006	74 0f		 je	 SHORT $L101286
  00008	8d 04 80	 lea	 eax, DWORD PTR [eax+eax*4]
  0000b	c1 e0 02	 shl	 eax, 2
  0000e	50		 push	 eax
  0000f	e8 00 00 00 00	 call	 ?allocate@?$__node_alloc@$00$0A@@_STL@@SAPAXI@Z ; _STL::__node_alloc<1,0>::allocate
  00014	59		 pop	 ecx
  00015	eb 02		 jmp	 SHORT $L101287
$L101286:
  00017	33 c0		 xor	 eax, eax
$L101287:

; 356  :   }

  00019	c2 08 00	 ret	 8
?allocate@?$allocator@U?$_List_node@V?$basic_string@DV?$char_traits@D@_STL@@V?$allocator@D@2@@_STL@@@_STL@@@_STL@@QAEPAU?$_List_node@V?$basic_string@DV?$char_traits@D@_STL@@V?$allocator@D@2@@_STL@@@2@IPBX@Z ENDP ; _STL::allocator<_STL::_List_node<_STL::basic_string<char,_STL::char_traits<char>,_STL::allocator<char> > > >::allocate
_TEXT	ENDS
PUBLIC	?deallocate@?$allocator@U?$_List_node@V?$basic_string@DV?$char_traits@D@_STL@@V?$allocator@D@2@@_STL@@@_STL@@@_STL@@QAEXPAU?$_List_node@V?$basic_string@DV?$char_traits@D@_STL@@V?$allocator@D@2@@_STL@@@2@I@Z ; _STL::allocator<_STL::_List_node<_STL::basic_string<char,_STL::char_traits<char>,_STL::allocator<char> > > >::deallocate
; Function compile flags: /Ogsy
;	COMDAT ?deallocate@?$allocator@U?$_List_node@V?$basic_string@DV?$char_traits@D@_STL@@V?$allocator@D@2@@_STL@@@_STL@@@_STL@@QAEXPAU?$_List_node@V?$basic_string@DV?$char_traits@D@_STL@@V?$allocator@D@2@@_STL@@@2@I@Z
_TEXT	SEGMENT
___p$ = 8						; size = 4
___n$ = 12						; size = 4
?deallocate@?$allocator@U?$_List_node@V?$basic_string@DV?$char_traits@D@_STL@@V?$allocator@D@2@@_STL@@@_STL@@@_STL@@QAEXPAU?$_List_node@V?$basic_string@DV?$char_traits@D@_STL@@V?$allocator@D@2@@_STL@@@2@I@Z PROC NEAR ; _STL::allocator<_STL::_List_node<_STL::basic_string<char,_STL::char_traits<char>,_STL::allocator<char> > > >::deallocate, COMDAT
; _this$ = ecx

; 359  :     _STLP_ASSERT( (__p == 0) == (__n == 0) )
; 360  :       if (__p != 0) __sgi_alloc::deallocate((void*)__p, __n * sizeof(value_type));

  00000	83 7c 24 04 00	 cmp	 DWORD PTR ___p$[esp-4], 0
  00005	74 16		 je	 SHORT $L98656
  00007	8b 44 24 08	 mov	 eax, DWORD PTR ___n$[esp-4]
  0000b	8d 04 80	 lea	 eax, DWORD PTR [eax+eax*4]
  0000e	c1 e0 02	 shl	 eax, 2
  00011	50		 push	 eax
  00012	ff 74 24 08	 push	 DWORD PTR ___p$[esp]
  00016	e8 00 00 00 00	 call	 ?deallocate@?$__node_alloc@$00$0A@@_STL@@SAXPAXI@Z ; _STL::__node_alloc<1,0>::deallocate
  0001b	59		 pop	 ecx
  0001c	59		 pop	 ecx
$L98656:

; 361  :   }

  0001d	c2 08 00	 ret	 8
?deallocate@?$allocator@U?$_List_node@V?$basic_string@DV?$char_traits@D@_STL@@V?$allocator@D@2@@_STL@@@_STL@@@_STL@@QAEXPAU?$_List_node@V?$basic_string@DV?$char_traits@D@_STL@@V?$allocator@D@2@@_STL@@@2@I@Z ENDP ; _STL::allocator<_STL::_List_node<_STL::basic_string<char,_STL::char_traits<char>,_STL::allocator<char> > > >::deallocate
_TEXT	ENDS
PUBLIC	?deallocate@?$allocator@D@_STL@@QAEXPADI@Z	; _STL::allocator<char>::deallocate
; Function compile flags: /Ogsy
;	COMDAT ?deallocate@?$allocator@D@_STL@@QAEXPADI@Z
_TEXT	SEGMENT
___p$ = 8						; size = 4
___n$ = 12						; size = 4
?deallocate@?$allocator@D@_STL@@QAEXPADI@Z PROC NEAR	; _STL::allocator<char>::deallocate, COMDAT
; _this$ = ecx

; 359  :     _STLP_ASSERT( (__p == 0) == (__n == 0) )
; 360  :       if (__p != 0) __sgi_alloc::deallocate((void*)__p, __n * sizeof(value_type));

  00000	83 7c 24 04 00	 cmp	 DWORD PTR ___p$[esp-4], 0
  00005	74 0f		 je	 SHORT $L98663
  00007	ff 74 24 08	 push	 DWORD PTR ___n$[esp-4]
  0000b	ff 74 24 08	 push	 DWORD PTR ___p$[esp]
  0000f	e8 00 00 00 00	 call	 ?deallocate@?$__node_alloc@$00$0A@@_STL@@SAXPAXI@Z ; _STL::__node_alloc<1,0>::deallocate
  00014	59		 pop	 ecx
  00015	59		 pop	 ecx
$L98663:

; 361  :   }

  00016	c2 08 00	 ret	 8
?deallocate@?$allocator@D@_STL@@QAEXPADI@Z ENDP		; _STL::allocator<char>::deallocate
_TEXT	ENDS
PUBLIC	??_D?$basic_ostream@DV?$char_traits@D@_STL@@@_STL@@QAEXXZ ; _STL::basic_ostream<char,_STL::char_traits<char> >::`vbase destructor'
; Function compile flags: /Ogsy
;	COMDAT ??_G?$basic_ostream@DV?$char_traits@D@_STL@@@_STL@@UAEPAXI@Z
_TEXT	SEGMENT
___flags$ = 8						; size = 4
??_G?$basic_ostream@DV?$char_traits@D@_STL@@@_STL@@UAEPAXI@Z PROC NEAR ; _STL::basic_ostream<char,_STL::char_traits<char> >::`scalar deleting destructor', COMDAT
; _this$ = ecx
  00000	56		 push	 esi
  00001	8d 71 fc	 lea	 esi, DWORD PTR [ecx-4]
  00004	8b ce		 mov	 ecx, esi
  00006	e8 00 00 00 00	 call	 ??_D?$basic_ostream@DV?$char_traits@D@_STL@@@_STL@@QAEXXZ
  0000b	f6 44 24 08 01	 test	 BYTE PTR ___flags$[esp], 1
  00010	74 07		 je	 SHORT $L99014
  00012	56		 push	 esi
  00013	e8 00 00 00 00	 call	 ??3@YAXPAX@Z		; operator delete
  00018	59		 pop	 ecx
$L99014:
  00019	8b c6		 mov	 eax, esi
  0001b	5e		 pop	 esi
  0001c	c2 04 00	 ret	 4
??_G?$basic_ostream@DV?$char_traits@D@_STL@@@_STL@@UAEPAXI@Z ENDP ; _STL::basic_ostream<char,_STL::char_traits<char> >::`scalar deleting destructor'
; Function compile flags: /Ogsy
_TEXT	ENDS
;	COMDAT ??_D?$basic_ostream@DV?$char_traits@D@_STL@@@_STL@@QAEXXZ
_TEXT	SEGMENT
??_D?$basic_ostream@DV?$char_traits@D@_STL@@@_STL@@QAEXXZ PROC NEAR ; _STL::basic_ostream<char,_STL::char_traits<char> >::`vbase destructor', COMDAT
; _this$ = ecx
  00000	8b 01		 mov	 eax, DWORD PTR [ecx]
  00002	8b 40 04	 mov	 eax, DWORD PTR [eax+4]
  00005	83 c1 04	 add	 ecx, 4
  00008	c7 44 08 fc 00
	00 00 00	 mov	 DWORD PTR [eax+ecx-4], OFFSET FLAT:??_7?$basic_ostream@DV?$char_traits@D@_STL@@@_STL@@6B@
  00010	e9 00 00 00 00	 jmp	 ??1?$basic_ios@DV?$char_traits@D@_STL@@@_STL@@UAE@XZ ; _STL::basic_ios<char,_STL::char_traits<char> >::~basic_ios<char,_STL::char_traits<char> >
??_D?$basic_ostream@DV?$char_traits@D@_STL@@@_STL@@QAEXXZ ENDP ; _STL::basic_ostream<char,_STL::char_traits<char> >::`vbase destructor'
_TEXT	ENDS
PUBLIC	??0?$_String_base@DV?$allocator@D@_STL@@@_STL@@QAE@ABV?$allocator@D@1@@Z ; _STL::_String_base<char,_STL::allocator<char> >::_String_base<char,_STL::allocator<char> >
; Function compile flags: /Ogsy
; File c:\stlport-4.6.1\stlport\stl\_string.h
;	COMDAT ??0?$_String_base@DV?$allocator@D@_STL@@@_STL@@QAE@ABV?$allocator@D@1@@Z
_TEXT	SEGMENT
___a$ = 8						; size = 4
??0?$_String_base@DV?$allocator@D@_STL@@@_STL@@QAE@ABV?$allocator@D@1@@Z PROC NEAR ; _STL::_String_base<char,_STL::allocator<char> >::_String_base<char,_STL::allocator<char> >, COMDAT
; _this$ = ecx

; 129  :     : _M_start(0), _M_finish(0), _M_end_of_storage(__a, (_Tp*)0) {}

  00000	56		 push	 esi
  00001	33 c0		 xor	 eax, eax
  00003	8b f1		 mov	 esi, ecx
  00005	50		 push	 eax
  00006	ff 74 24 0c	 push	 DWORD PTR ___a$[esp+4]
  0000a	8d 4e 08	 lea	 ecx, DWORD PTR [esi+8]
  0000d	89 06		 mov	 DWORD PTR [esi], eax
  0000f	89 46 04	 mov	 DWORD PTR [esi+4], eax
  00012	e8 00 00 00 00	 call	 ??0?$_STLP_alloc_proxy@PADDV?$allocator@D@_STL@@@_STL@@QAE@ABV?$allocator@D@1@PAD@Z ; _STL::_STLP_alloc_proxy<char *,char,_STL::allocator<char> >::_STLP_alloc_proxy<char *,char,_STL::allocator<char> >
  00017	8b c6		 mov	 eax, esi
  00019	5e		 pop	 esi
  0001a	c2 04 00	 ret	 4
??0?$_String_base@DV?$allocator@D@_STL@@@_STL@@QAE@ABV?$allocator@D@1@@Z ENDP ; _STL::_String_base<char,_STL::allocator<char> >::_String_base<char,_STL::allocator<char> >
_TEXT	ENDS
PUBLIC	?setstate@?$basic_ios@DV?$char_traits@D@_STL@@@_STL@@QAEXH@Z ; _STL::basic_ios<char,_STL::char_traits<char> >::setstate
; Function compile flags: /Ogsy
; File c:\stlport-4.6.1\stlport\stl\_ios.h
;	COMDAT ?setstate@?$basic_ios@DV?$char_traits@D@_STL@@@_STL@@QAEXH@Z
_TEXT	SEGMENT
___state$ = 8						; size = 4
?setstate@?$basic_ios@DV?$char_traits@D@_STL@@@_STL@@QAEXH@Z PROC NEAR ; _STL::basic_ios<char,_STL::char_traits<char> >::setstate, COMDAT
; _this$ = ecx

; 94   :   void setstate(iostate __state) { this->clear(rdstate() | __state); }

  00000	8b 41 08	 mov	 eax, DWORD PTR [ecx+8]
  00003	0b 44 24 04	 or	 eax, DWORD PTR ___state$[esp-4]
  00007	50		 push	 eax
  00008	e8 00 00 00 00	 call	 ?clear@?$basic_ios@DV?$char_traits@D@_STL@@@_STL@@QAEXH@Z ; _STL::basic_ios<char,_STL::char_traits<char> >::clear
  0000d	c2 04 00	 ret	 4
?setstate@?$basic_ios@DV?$char_traits@D@_STL@@@_STL@@QAEXH@Z ENDP ; _STL::basic_ios<char,_STL::char_traits<char> >::setstate
_TEXT	ENDS
PUBLIC	??0?$basic_filebuf@DV?$char_traits@D@_STL@@@_STL@@QAE@XZ ; _STL::basic_filebuf<char,_STL::char_traits<char> >::basic_filebuf<char,_STL::char_traits<char> >
PUBLIC	?showmanyc@?$basic_filebuf@DV?$char_traits@D@_STL@@@_STL@@MAEHXZ ; _STL::basic_filebuf<char,_STL::char_traits<char> >::showmanyc
PUBLIC	?underflow@?$basic_filebuf@DV?$char_traits@D@_STL@@@_STL@@MAEHXZ ; _STL::basic_filebuf<char,_STL::char_traits<char> >::underflow
PUBLIC	?pbackfail@?$basic_filebuf@DV?$char_traits@D@_STL@@@_STL@@MAEHH@Z ; _STL::basic_filebuf<char,_STL::char_traits<char> >::pbackfail
PUBLIC	?overflow@?$basic_filebuf@DV?$char_traits@D@_STL@@@_STL@@MAEHH@Z ; _STL::basic_filebuf<char,_STL::char_traits<char> >::overflow
PUBLIC	?setbuf@?$basic_filebuf@DV?$char_traits@D@_STL@@@_STL@@MAEPAV?$basic_streambuf@DV?$char_traits@D@_STL@@@2@PADH@Z ; _STL::basic_filebuf<char,_STL::char_traits<char> >::setbuf
PUBLIC	?seekoff@?$basic_filebuf@DV?$char_traits@D@_STL@@@_STL@@MAE?AV?$fpos@H@2@JHH@Z ; _STL::basic_filebuf<char,_STL::char_traits<char> >::seekoff
PUBLIC	?seekpos@?$basic_filebuf@DV?$char_traits@D@_STL@@@_STL@@MAE?AV?$fpos@H@2@V32@H@Z ; _STL::basic_filebuf<char,_STL::char_traits<char> >::seekpos
PUBLIC	?sync@?$basic_filebuf@DV?$char_traits@D@_STL@@@_STL@@MAEHXZ ; _STL::basic_filebuf<char,_STL::char_traits<char> >::sync
PUBLIC	?imbue@?$basic_filebuf@DV?$char_traits@D@_STL@@@_STL@@MAEXABVlocale@2@@Z ; _STL::basic_filebuf<char,_STL::char_traits<char> >::imbue
PUBLIC	??_7?$basic_filebuf@DV?$char_traits@D@_STL@@@_STL@@6B@ ; _STL::basic_filebuf<char,_STL::char_traits<char> >::`vftable'
PUBLIC	??_G?$basic_filebuf@DV?$char_traits@D@_STL@@@_STL@@UAEPAXI@Z ; _STL::basic_filebuf<char,_STL::char_traits<char> >::`scalar deleting destructor'
PUBLIC	??_R4?$basic_filebuf@DV?$char_traits@D@_STL@@@_STL@@6B@ ; _STL::basic_filebuf<char,_STL::char_traits<char> >::`RTTI Complete Object Locator'
PUBLIC	??_R0?AV?$basic_filebuf@DV?$char_traits@D@_STL@@@_STL@@@8 ; _STL::basic_filebuf<char,_STL::char_traits<char> > `RTTI Type Descriptor'
PUBLIC	??_R3?$basic_filebuf@DV?$char_traits@D@_STL@@@_STL@@8 ; _STL::basic_filebuf<char,_STL::char_traits<char> >::`RTTI Class Hierarchy Descriptor'
PUBLIC	??_R2?$basic_filebuf@DV?$char_traits@D@_STL@@@_STL@@8 ; _STL::basic_filebuf<char,_STL::char_traits<char> >::`RTTI Base Class Array'
PUBLIC	??_R1A@?0A@A@?$basic_filebuf@DV?$char_traits@D@_STL@@@_STL@@8 ; _STL::basic_filebuf<char,_STL::char_traits<char> >::`RTTI Base Class Descriptor at (0,-1,0,0)'
EXTRN	??0_Filebuf_base@_STL@@QAE@XZ:NEAR		; _STL::_Filebuf_base::_Filebuf_base
EXTRN	??1locale@_STL@@QAE@XZ:NEAR			; _STL::locale::~locale
EXTRN	??_E?$basic_filebuf@DV?$char_traits@D@_STL@@@_STL@@UAEPAXI@Z:NEAR ; _STL::basic_filebuf<char,_STL::char_traits<char> >::`vector deleting destructor'
EXTRN	__EH_prolog:NEAR
EXTRN	__except_list:DWORD
EXTRN	___CxxFrameHandler:NEAR
;	COMDAT xdata$x
; File c:\stlport-4.6.1\stlport\stl\_fstream.c
xdata$x	SEGMENT
$T101332 DD	0ffffffffH
	DD	FLAT:$L101323
	DD	00H
	DD	FLAT:$L101324
$T101328 DD	019930520H
	DD	02H
	DD	FLAT:$T101332
	DD	2 DUP(00H)
	DD	2 DUP(00H)
xdata$x	ENDS
;	COMDAT ??_7?$basic_filebuf@DV?$char_traits@D@_STL@@@_STL@@6B@
CONST	SEGMENT
??_7?$basic_filebuf@DV?$char_traits@D@_STL@@@_STL@@6B@ DD FLAT:??_R4?$basic_filebuf@DV?$char_traits@D@_STL@@@_STL@@6B@ ; _STL::basic_filebuf<char,_STL::char_traits<char> >::`vftable'
	DD	FLAT:??_E?$basic_filebuf@DV?$char_traits@D@_STL@@@_STL@@UAEPAXI@Z
	DD	FLAT:?setbuf@?$basic_filebuf@DV?$char_traits@D@_STL@@@_STL@@MAEPAV?$basic_streambuf@DV?$char_traits@D@_STL@@@2@PADH@Z
	DD	FLAT:?seekoff@?$basic_filebuf@DV?$char_traits@D@_STL@@@_STL@@MAE?AV?$fpos@H@2@JHH@Z
	DD	FLAT:?seekpos@?$basic_filebuf@DV?$char_traits@D@_STL@@@_STL@@MAE?AV?$fpos@H@2@V32@H@Z
	DD	FLAT:?sync@?$basic_filebuf@DV?$char_traits@D@_STL@@@_STL@@MAEHXZ
	DD	FLAT:?showmanyc@?$basic_filebuf@DV?$char_traits@D@_STL@@@_STL@@MAEHXZ
	DD	FLAT:?xsgetn@?$basic_streambuf@DV?$char_traits@D@_STL@@@_STL@@MAEHPADH@Z
	DD	FLAT:?underflow@?$basic_filebuf@DV?$char_traits@D@_STL@@@_STL@@MAEHXZ
	DD	FLAT:?uflow@?$basic_streambuf@DV?$char_traits@D@_STL@@@_STL@@MAEHXZ
	DD	FLAT:?pbackfail@?$basic_filebuf@DV?$char_traits@D@_STL@@@_STL@@MAEHH@Z
	DD	FLAT:?xsputn@?$basic_streambuf@DV?$char_traits@D@_STL@@@_STL@@MAEHPBDH@Z
	DD	FLAT:?_M_xsputnc@?$basic_streambuf@DV?$char_traits@D@_STL@@@_STL@@MAEHDH@Z
	DD	FLAT:?overflow@?$basic_filebuf@DV?$char_traits@D@_STL@@@_STL@@MAEHH@Z
	DD	FLAT:?imbue@?$basic_filebuf@DV?$char_traits@D@_STL@@@_STL@@MAEXABVlocale@2@@Z
CONST	ENDS
;	COMDAT ??_R4?$basic_filebuf@DV?$char_traits@D@_STL@@@_STL@@6B@
rdata$r	SEGMENT
??_R4?$basic_filebuf@DV?$char_traits@D@_STL@@@_STL@@6B@ DD 00H ; _STL::basic_filebuf<char,_STL::char_traits<char> >::`RTTI Complete Object Locator'
	DD	00H
	DD	00H
	DD	FLAT:??_R0?AV?$basic_filebuf@DV?$char_traits@D@_STL@@@_STL@@@8
	DD	FLAT:??_R3?$basic_filebuf@DV?$char_traits@D@_STL@@@_STL@@8
rdata$r	ENDS
;	COMDAT ??_R0?AV?$basic_filebuf@DV?$char_traits@D@_STL@@@_STL@@@8
_DATA	SEGMENT
??_R0?AV?$basic_filebuf@DV?$char_traits@D@_STL@@@_STL@@@8 DD FLAT:??_7type_info@@6B@ ; _STL::basic_filebuf<char,_STL::char_traits<char> > `RTTI Type Descriptor'
	DD	00H
	DB	'.?AV?$basic_filebuf@DV?$char_traits@D@_STL@@@_STL@@', 00H
_DATA	ENDS
;	COMDAT ??_R3?$basic_filebuf@DV?$char_traits@D@_STL@@@_STL@@8
rdata$r	SEGMENT
??_R3?$basic_filebuf@DV?$char_traits@D@_STL@@@_STL@@8 DD 00H ; _STL::basic_filebuf<char,_STL::char_traits<char> >::`RTTI Class Hierarchy Descriptor'
	DD	00H
	DD	02H
	DD	FLAT:??_R2?$basic_filebuf@DV?$char_traits@D@_STL@@@_STL@@8
rdata$r	ENDS
;	COMDAT ??_R2?$basic_filebuf@DV?$char_traits@D@_STL@@@_STL@@8
rdata$r	SEGMENT
??_R2?$basic_filebuf@DV?$char_traits@D@_STL@@@_STL@@8 DD FLAT:??_R1A@?0A@A@?$basic_filebuf@DV?$char_traits@D@_STL@@@_STL@@8 ; _STL::basic_filebuf<char,_STL::char_traits<char> >::`RTTI Base Class Array'
	DD	FLAT:??_R1A@?0A@A@?$basic_streambuf@DV?$char_traits@D@_STL@@@_STL@@8
rdata$r	ENDS
;	COMDAT ??_R1A@?0A@A@?$basic_filebuf@DV?$char_traits@D@_STL@@@_STL@@8
rdata$r	SEGMENT
??_R1A@?0A@A@?$basic_filebuf@DV?$char_traits@D@_STL@@@_STL@@8 DD FLAT:??_R0?AV?$basic_filebuf@DV?$char_traits@D@_STL@@@_STL@@@8 ; _STL::basic_filebuf<char,_STL::char_traits<char> >::`RTTI Base Class Descriptor at (0,-1,0,0)'
	DD	01H
	DD	00H
	DD	0ffffffffH
	DD	00H
	DD	00H
; Function compile flags: /Ogsy
rdata$r	ENDS
;	COMDAT ??0?$basic_filebuf@DV?$char_traits@D@_STL@@@_STL@@QAE@XZ
_TEXT	SEGMENT
_this$ = -20						; size = 4
$T101322 = -16						; size = 4
__$EHRec$ = -12						; size = 12
??0?$basic_filebuf@DV?$char_traits@D@_STL@@@_STL@@QAE@XZ PROC NEAR ; _STL::basic_filebuf<char,_STL::char_traits<char> >::basic_filebuf<char,_STL::char_traits<char> >, COMDAT
; _this$ = ecx

; 60   : {

  00000	b8 00 00 00 00	 mov	 eax, __ehhandler$??0?$basic_filebuf@DV?$char_traits@D@_STL@@@_STL@@QAE@XZ
  00005	e8 00 00 00 00	 call	 __EH_prolog
  0000a	51		 push	 ecx
  0000b	51		 push	 ecx
  0000c	53		 push	 ebx
  0000d	56		 push	 esi
  0000e	8b f1		 mov	 esi, ecx
  00010	89 75 ec	 mov	 DWORD PTR _this$[ebp], esi
  00013	e8 00 00 00 00	 call	 ??0?$basic_streambuf@DV?$char_traits@D@_STL@@@_STL@@IAE@XZ ; _STL::basic_streambuf<char,_STL::char_traits<char> >::basic_streambuf<char,_STL::char_traits<char> >
  00018	33 db		 xor	 ebx, ebx
  0001a	8d 4e 54	 lea	 ecx, DWORD PTR [esi+84]
  0001d	89 5d fc	 mov	 DWORD PTR __$EHRec$[ebp+8], ebx
  00020	c7 06 00 00 00
	00		 mov	 DWORD PTR [esi], OFFSET FLAT:??_7?$basic_filebuf@DV?$char_traits@D@_STL@@@_STL@@6B@
  00026	e8 00 00 00 00	 call	 ??0_Filebuf_base@_STL@@QAE@XZ ; _STL::_Filebuf_base::_Filebuf_base
  0002b	33 c0		 xor	 eax, eax
  0002d	40		 inc	 eax

; 61   :   this->_M_setup_codecvt(locale());

  0002e	8d 4d f0	 lea	 ecx, DWORD PTR $T101322[ebp]
  00031	88 5e 64	 mov	 BYTE PTR [esi+100], bl
  00034	88 5e 65	 mov	 BYTE PTR [esi+101], bl
  00037	88 5e 66	 mov	 BYTE PTR [esi+102], bl
  0003a	88 5e 67	 mov	 BYTE PTR [esi+103], bl
  0003d	88 5e 68	 mov	 BYTE PTR [esi+104], bl
  00040	88 5e 69	 mov	 BYTE PTR [esi+105], bl
  00043	88 5e 6a	 mov	 BYTE PTR [esi+106], bl
  00046	89 5e 6c	 mov	 DWORD PTR [esi+108], ebx
  00049	89 5e 70	 mov	 DWORD PTR [esi+112], ebx
  0004c	89 5e 74	 mov	 DWORD PTR [esi+116], ebx
  0004f	89 5e 78	 mov	 DWORD PTR [esi+120], ebx
  00052	89 5e 7c	 mov	 DWORD PTR [esi+124], ebx
  00055	89 9e 80 00 00
	00		 mov	 DWORD PTR [esi+128], ebx
  0005b	89 9e 84 00 00
	00		 mov	 DWORD PTR [esi+132], ebx
  00061	89 9e 88 00 00
	00		 mov	 DWORD PTR [esi+136], ebx
  00067	89 9e 8c 00 00
	00		 mov	 DWORD PTR [esi+140], ebx
  0006d	89 9e 90 00 00
	00		 mov	 DWORD PTR [esi+144], ebx
  00073	89 9e 94 00 00
	00		 mov	 DWORD PTR [esi+148], ebx
  00079	89 9e 98 00 00
	00		 mov	 DWORD PTR [esi+152], ebx
  0007f	89 9e 9c 00 00
	00		 mov	 DWORD PTR [esi+156], ebx
  00085	89 9e a0 00 00
	00		 mov	 DWORD PTR [esi+160], ebx
  0008b	89 86 a4 00 00
	00		 mov	 DWORD PTR [esi+164], eax
  00091	89 86 a8 00 00
	00		 mov	 DWORD PTR [esi+168], eax
  00097	e8 00 00 00 00	 call	 ??0locale@_STL@@QAE@XZ	; _STL::locale::locale
  0009c	50		 push	 eax
  0009d	8b ce		 mov	 ecx, esi
  0009f	c6 45 fc 01	 mov	 BYTE PTR __$EHRec$[ebp+8], 1
  000a3	e8 00 00 00 00	 call	 ?_M_setup_codecvt@?$basic_filebuf@DV?$char_traits@D@_STL@@@_STL@@AAEXABVlocale@2@@Z ; _STL::basic_filebuf<char,_STL::char_traits<char> >::_M_setup_codecvt
  000a8	8d 4d f0	 lea	 ecx, DWORD PTR $T101322[ebp]
  000ab	88 5d fc	 mov	 BYTE PTR __$EHRec$[ebp+8], bl
  000ae	e8 00 00 00 00	 call	 ??1locale@_STL@@QAE@XZ	; _STL::locale::~locale

; 62   : }

  000b3	8b 4d f4	 mov	 ecx, DWORD PTR __$EHRec$[ebp]
  000b6	8b c6		 mov	 eax, esi
  000b8	5e		 pop	 esi
  000b9	5b		 pop	 ebx
  000ba	64 89 0d 00 00
	00 00		 mov	 DWORD PTR fs:__except_list, ecx
  000c1	c9		 leave
  000c2	c3		 ret	 0
_TEXT	ENDS
;	COMDAT text$x
text$x	SEGMENT
$L101323:
  00000	8b 4d ec	 mov	 ecx, DWORD PTR _this$[ebp]
  00003	e9 00 00 00 00	 jmp	 ??1?$basic_streambuf@DV?$char_traits@D@_STL@@@_STL@@UAE@XZ ; _STL::basic_streambuf<char,_STL::char_traits<char> >::~basic_streambuf<char,_STL::char_traits<char> >
$L101324:
  00008	8d 4d f0	 lea	 ecx, DWORD PTR $T101322[ebp]
  0000b	e9 00 00 00 00	 jmp	 ??1locale@_STL@@QAE@XZ	; _STL::locale::~locale
__ehhandler$??0?$basic_filebuf@DV?$char_traits@D@_STL@@@_STL@@QAE@XZ:
  00010	b8 00 00 00 00	 mov	 eax, OFFSET FLAT:$T101328
  00015	e9 00 00 00 00	 jmp	 ___CxxFrameHandler
text$x	ENDS
??0?$basic_filebuf@DV?$char_traits@D@_STL@@@_STL@@QAE@XZ ENDP ; _STL::basic_filebuf<char,_STL::char_traits<char> >::basic_filebuf<char,_STL::char_traits<char> >
EXTRN	?_M_doit@?$_Underflow@DV?$char_traits@D@_STL@@@_STL@@SAHPAV?$basic_filebuf@DV?$char_traits@D@_STL@@@2@@Z:NEAR ; _STL::_Underflow<char,_STL::char_traits<char> >::_M_doit
; Function compile flags: /Ogsy
;	COMDAT ?underflow@?$basic_filebuf@DV?$char_traits@D@_STL@@@_STL@@MAEHXZ
_TEXT	SEGMENT
?underflow@?$basic_filebuf@DV?$char_traits@D@_STL@@@_STL@@MAEHXZ PROC NEAR ; _STL::basic_filebuf<char,_STL::char_traits<char> >::underflow, COMDAT
; _this$ = ecx

; 75   :   return _Underflow<_CharT, _Traits>::_M_doit(this);

  00000	51		 push	 ecx
  00001	e8 00 00 00 00	 call	 ?_M_doit@?$_Underflow@DV?$char_traits@D@_STL@@@_STL@@SAHPAV?$basic_filebuf@DV?$char_traits@D@_STL@@@2@@Z ; _STL::_Underflow<char,_STL::char_traits<char> >::_M_doit
  00006	59		 pop	 ecx

; 76   : }

  00007	c3		 ret	 0
?underflow@?$basic_filebuf@DV?$char_traits@D@_STL@@@_STL@@MAEHXZ ENDP ; _STL::basic_filebuf<char,_STL::char_traits<char> >::underflow
; Function compile flags: /Ogsy
_TEXT	ENDS
;	COMDAT ?pbackfail@?$basic_filebuf@DV?$char_traits@D@_STL@@@_STL@@MAEHH@Z
_TEXT	SEGMENT
___c$ = 8						; size = 4
?pbackfail@?$basic_filebuf@DV?$char_traits@D@_STL@@@_STL@@MAEHH@Z PROC NEAR ; _STL::basic_filebuf<char,_STL::char_traits<char> >::pbackfail, COMDAT
; _this$ = ecx

; 162  :   const int_type __eof = traits_type::eof();
; 163  : 
; 164  :   // If we aren't already in input mode, pushback is impossible.
; 165  :   if (!_M_in_input_mode)
; 166  :     return __eof;

  00000	83 c8 ff	 or	 eax, -1
  00003	80 79 67 00	 cmp	 BYTE PTR [ecx+103], 0
  00007	0f 84 b0 00 00
	00		 je	 $L98761

; 167  : 
; 168  :   // We can use the ordinary get buffer if there's enough space, and
; 169  :   // if it's a buffer that we're allowed to write to.
; 170  :   if (this->gptr() != this->eback() &&
; 171  :       (traits_type::eq_int_type(__c, __eof) ||
; 172  :        traits_type::eq(traits_type::to_char_type(__c), this->gptr()[-1]) ||
; 173  :        !_M_mmap_base)) {

  0000d	8b 51 04	 mov	 edx, DWORD PTR [ecx+4]
  00010	53		 push	 ebx
  00011	8b 5c 24 08	 mov	 ebx, DWORD PTR ___c$[esp]
  00015	56		 push	 esi
  00016	8b 32		 mov	 esi, DWORD PTR [edx]
  00018	57		 push	 edi
  00019	8b 7a 08	 mov	 edi, DWORD PTR [edx+8]
  0001c	3b f7		 cmp	 esi, edi
  0001e	74 2e		 je	 SHORT $L98765
  00020	3b d8		 cmp	 ebx, eax
  00022	74 0e		 je	 SHORT $L98766
  00024	3a 5e ff	 cmp	 bl, BYTE PTR [esi-1]
  00027	74 09		 je	 SHORT $L98766
  00029	83 b9 8c 00 00
	00 00		 cmp	 DWORD PTR [ecx+140], 0
  00030	75 1c		 jne	 SHORT $L98765
$L98766:

; 174  :     this->gbump(-1);

  00032	ff 0a		 dec	 DWORD PTR [edx]
  00034	ff 42 04	 inc	 DWORD PTR [edx+4]

; 175  :     if (traits_type::eq_int_type(__c, __eof) ||
; 176  :         traits_type::eq(traits_type::to_char_type(__c), *this->gptr()))

  00037	3b d8		 cmp	 ebx, eax
  00039	74 09		 je	 SHORT $L98769
  0003b	8b 41 04	 mov	 eax, DWORD PTR [ecx+4]
  0003e	8b 00		 mov	 eax, DWORD PTR [eax]
  00040	3a 18		 cmp	 bl, BYTE PTR [eax]
  00042	75 6d		 jne	 SHORT $L98777
$L98769:

; 177  :       return traits_type::to_int_type(*this->gptr());

  00044	8b 41 04	 mov	 eax, DWORD PTR [ecx+4]
  00047	8b 00		 mov	 eax, DWORD PTR [eax]
  00049	0f b6 00	 movzx	 eax, BYTE PTR [eax]
  0004c	eb 6c		 jmp	 SHORT $L101518
$L98765:

; 178  :   }
; 179  :   else if (!traits_type::eq_int_type(__c, __eof)) {

  0004e	3b d8		 cmp	 ebx, eax
  00050	74 68		 je	 SHORT $L101518

; 180  :     // Are we in the putback buffer already?
; 181  :     _CharT* __pback_end = _M_pback_buf + __STATIC_CAST(int,_S_pback_buf_size);
; 182  :     if (_M_in_putback_mode) {

  00052	80 79 6a 00	 cmp	 BYTE PTR [ecx+106], 0
  00056	8d b1 b4 00 00
	00		 lea	 esi, DWORD PTR [ecx+180]
  0005c	74 29		 je	 SHORT $L98774

; 183  :       // Do we have more room in the putback buffer?
; 184  :       if (this->eback() != _M_pback_buf) 

  0005e	8d 99 ac 00 00
	00		 lea	 ebx, DWORD PTR [ecx+172]
  00064	3b fb		 cmp	 edi, ebx
  00066	74 52		 je	 SHORT $L101518

; 185  :         this->setg(this->egptr() - 1, this->egptr() - 1, __pback_end);

  00068	8b 42 04	 mov	 eax, DWORD PTR [edx+4]
  0006b	8b 3a		 mov	 edi, DWORD PTR [edx]
  0006d	8b 1a		 mov	 ebx, DWORD PTR [edx]
  0006f	8d 7c 38 ff	 lea	 edi, DWORD PTR [eax+edi-1]
  00073	8d 44 18 ff	 lea	 eax, DWORD PTR [eax+ebx-1]

; 186  :       else
; 187  :         return __eof;           // No more room in the buffer, so fail.
; 188  :     }
; 189  :     else {                      // We're not yet in the putback buffer.

  00077	8b 5c 24 10	 mov	 ebx, DWORD PTR ___c$[esp+8]
  0007b	2b f7		 sub	 esi, edi
  0007d	89 42 08	 mov	 DWORD PTR [edx+8], eax
  00080	89 3a		 mov	 DWORD PTR [edx], edi
  00082	89 72 04	 mov	 DWORD PTR [edx+4], esi
  00085	eb 2a		 jmp	 SHORT $L98777
$L98774:

; 190  :       _M_saved_eback = this->eback();

  00087	89 b9 94 00 00
	00		 mov	 DWORD PTR [ecx+148], edi

; 191  :       _M_saved_gptr  = this->gptr();

  0008d	8b 02		 mov	 eax, DWORD PTR [edx]
  0008f	89 81 98 00 00
	00		 mov	 DWORD PTR [ecx+152], eax

; 192  :       _M_saved_egptr = this->egptr();

  00095	8b 42 04	 mov	 eax, DWORD PTR [edx+4]
  00098	03 02		 add	 eax, DWORD PTR [edx]

; 193  :       this->setg(__pback_end - 1, __pback_end - 1, __pback_end);

  0009a	8d 7e ff	 lea	 edi, DWORD PTR [esi-1]
  0009d	89 81 9c 00 00
	00		 mov	 DWORD PTR [ecx+156], eax
  000a3	2b f7		 sub	 esi, edi
  000a5	89 7a 08	 mov	 DWORD PTR [edx+8], edi
  000a8	89 3a		 mov	 DWORD PTR [edx], edi
  000aa	89 72 04	 mov	 DWORD PTR [edx+4], esi

; 194  :       _M_in_putback_mode = true;

  000ad	c6 41 6a 01	 mov	 BYTE PTR [ecx+106], 1
$L98777:

; 195  :     }
; 196  :   }
; 197  :   else
; 198  :     return __eof;
; 199  : 
; 200  :   // We have made a putback position available.  Assign to it, and return.
; 201  :   *this->gptr() = traits_type::to_char_type(__c);

  000b1	8b 41 04	 mov	 eax, DWORD PTR [ecx+4]
  000b4	8b 00		 mov	 eax, DWORD PTR [eax]
  000b6	88 18		 mov	 BYTE PTR [eax], bl

; 202  :   return __c;

  000b8	8b c3		 mov	 eax, ebx
$L101518:
  000ba	5f		 pop	 edi
  000bb	5e		 pop	 esi
  000bc	5b		 pop	 ebx
$L98761:

; 203  : }

  000bd	c2 04 00	 ret	 4
?pbackfail@?$basic_filebuf@DV?$char_traits@D@_STL@@@_STL@@MAEHH@Z ENDP ; _STL::basic_filebuf<char,_STL::char_traits<char> >::pbackfail
; Function compile flags: /Ogsy
_TEXT	ENDS
;	COMDAT ?sync@?$basic_filebuf@DV?$char_traits@D@_STL@@@_STL@@MAEHXZ
_TEXT	SEGMENT
?sync@?$basic_filebuf@DV?$char_traits@D@_STL@@@_STL@@MAEHXZ PROC NEAR ; _STL::basic_filebuf<char,_STL::char_traits<char> >::sync, COMDAT
; _this$ = ecx

; 414  :   if (_M_in_output_mode)

  00000	80 79 68 00	 cmp	 BYTE PTR [ecx+104], 0
  00004	74 13		 je	 SHORT $L98951

; 415  :     return traits_type::eq_int_type(this->overflow(traits_type::eof()),
; 416  :                                     traits_type::eof())
; 417  :       ? -1
; 418  :       : 0;

  00006	8b 01		 mov	 eax, DWORD PTR [ecx]
  00008	6a ff		 push	 -1
  0000a	ff 50 30	 call	 DWORD PTR [eax+48]
  0000d	33 c9		 xor	 ecx, ecx
  0000f	83 f8 ff	 cmp	 eax, -1
  00012	0f 95 c1	 setne	 cl
  00015	49		 dec	 ecx
  00016	8b c1		 mov	 eax, ecx

; 421  : }

  00018	c3		 ret	 0
$L98951:

; 419  :   else
; 420  :     return 0;

  00019	33 c0		 xor	 eax, eax

; 421  : }

  0001b	c3		 ret	 0
?sync@?$basic_filebuf@DV?$char_traits@D@_STL@@@_STL@@MAEHXZ ENDP ; _STL::basic_filebuf<char,_STL::char_traits<char> >::sync
_TEXT	ENDS
EXTRN	?_M_seek@_Filebuf_base@_STL@@QAEJJH@Z:NEAR	; _STL::_Filebuf_base::_M_seek
EXTRN	?_M_file_size@_Filebuf_base@_STL@@QAEJXZ:NEAR	; _STL::_Filebuf_base::_M_file_size
; Function compile flags: /Ogsy
;	COMDAT ?showmanyc@?$basic_filebuf@DV?$char_traits@D@_STL@@@_STL@@MAEHXZ
_TEXT	SEGMENT
?showmanyc@?$basic_filebuf@DV?$char_traits@D@_STL@@@_STL@@MAEHXZ PROC NEAR ; _STL::basic_filebuf<char,_STL::char_traits<char> >::showmanyc, COMDAT
; _this$ = ecx

; 132  : {

  00000	53		 push	 ebx

; 133  :   // Is there any possibility that reads can succeed?
; 134  :   if (!this->is_open() || _M_in_output_mode || _M_in_error_mode)

  00001	33 db		 xor	 ebx, ebx
  00003	38 59 60	 cmp	 BYTE PTR [ecx+96], bl
  00006	74 4a		 je	 SHORT $L98743
  00008	38 59 68	 cmp	 BYTE PTR [ecx+104], bl
  0000b	75 45		 jne	 SHORT $L98743
  0000d	38 59 69	 cmp	 BYTE PTR [ecx+105], bl
  00010	75 40		 jne	 SHORT $L98743

; 136  : 
; 137  :   else if (_M_in_putback_mode)

  00012	38 59 6a	 cmp	 BYTE PTR [ecx+106], bl
  00015	74 08		 je	 SHORT $L98745

; 138  :     return this->egptr() - this->gptr();

  00017	8b 49 04	 mov	 ecx, DWORD PTR [ecx+4]
  0001a	8b 41 04	 mov	 eax, DWORD PTR [ecx+4]
  0001d	5b		 pop	 ebx

; 148  : }

  0001e	c3		 ret	 0
$L98745:

; 139  : 
; 140  :   else if (_M_constant_width) {

  0001f	38 59 64	 cmp	 BYTE PTR [ecx+100], bl
  00022	74 2a		 je	 SHORT $L98747
  00024	56		 push	 esi
  00025	57		 push	 edi

; 141  :     streamoff __pos  = _M_base._M_seek(0, ios_base::cur);

  00026	8d 71 54	 lea	 esi, DWORD PTR [ecx+84]
  00029	6a 02		 push	 2
  0002b	53		 push	 ebx
  0002c	8b ce		 mov	 ecx, esi
  0002e	e8 00 00 00 00	 call	 ?_M_seek@_Filebuf_base@_STL@@QAEJJH@Z ; _STL::_Filebuf_base::_M_seek

; 142  :     streamoff __size = _M_base._M_file_size();

  00033	8b ce		 mov	 ecx, esi
  00035	8b f8		 mov	 edi, eax
  00037	e8 00 00 00 00	 call	 ?_M_file_size@_Filebuf_base@_STL@@QAEJXZ ; _STL::_Filebuf_base::_M_file_size

; 143  :     return __pos >= 0 && __size > __pos ? __size - __pos : 0;

  0003c	3b fb		 cmp	 edi, ebx
  0003e	7c 08		 jl	 SHORT $L101538
  00040	3b c7		 cmp	 eax, edi
  00042	7e 04		 jle	 SHORT $L101538
  00044	2b c7		 sub	 eax, edi
  00046	eb 02		 jmp	 SHORT $L101539
$L101538:
  00048	33 c0		 xor	 eax, eax
$L101539:
  0004a	5f		 pop	 edi
  0004b	5e		 pop	 esi
  0004c	5b		 pop	 ebx

; 148  : }

  0004d	c3		 ret	 0
$L98747:

; 144  :   }
; 145  : 
; 146  :   else 
; 147  :     return 0;

  0004e	33 c0		 xor	 eax, eax
  00050	5b		 pop	 ebx

; 148  : }

  00051	c3		 ret	 0
$L98743:

; 135  :     return -1;

  00052	83 c8 ff	 or	 eax, -1
  00055	5b		 pop	 ebx

; 148  : }

  00056	c3		 ret	 0
?showmanyc@?$basic_filebuf@DV?$char_traits@D@_STL@@@_STL@@MAEHXZ ENDP ; _STL::basic_filebuf<char,_STL::char_traits<char> >::showmanyc
_TEXT	ENDS
PUBLIC	?_M_allocate_buffers@?$basic_filebuf@DV?$char_traits@D@_STL@@@_STL@@AAE_NPADH@Z ; _STL::basic_filebuf<char,_STL::char_traits<char> >::_M_allocate_buffers
; Function compile flags: /Ogsy
;	COMDAT ?setbuf@?$basic_filebuf@DV?$char_traits@D@_STL@@@_STL@@MAEPAV?$basic_streambuf@DV?$char_traits@D@_STL@@@2@PADH@Z
_TEXT	SEGMENT
___buf$ = 8						; size = 4
___n$ = 12						; size = 4
?setbuf@?$basic_filebuf@DV?$char_traits@D@_STL@@@_STL@@MAEPAV?$basic_streambuf@DV?$char_traits@D@_STL@@@2@PADH@Z PROC NEAR ; _STL::basic_filebuf<char,_STL::char_traits<char> >::setbuf, COMDAT
; _this$ = ecx

; 273  : {

  00000	55		 push	 ebp
  00001	8b ec		 mov	 ebp, esp
  00003	56		 push	 esi
  00004	8b f1		 mov	 esi, ecx

; 274  :   if (!_M_in_input_mode &&! _M_in_output_mode && !_M_in_error_mode &&
; 275  :       _M_int_buf == 0) {

  00006	33 c0		 xor	 eax, eax
  00008	38 46 67	 cmp	 BYTE PTR [esi+103], al
  0000b	75 30		 jne	 SHORT $L98816
  0000d	38 46 68	 cmp	 BYTE PTR [esi+104], al
  00010	75 2b		 jne	 SHORT $L98816
  00012	38 46 69	 cmp	 BYTE PTR [esi+105], al
  00015	75 26		 jne	 SHORT $L98816
  00017	39 46 6c	 cmp	 DWORD PTR [esi+108], eax
  0001a	75 21		 jne	 SHORT $L98816

; 276  :     if (__buf == 0 && __n == 0)

  0001c	39 45 08	 cmp	 DWORD PTR ___buf$[ebp], eax
  0001f	75 0a		 jne	 SHORT $L101570
  00021	39 45 0c	 cmp	 DWORD PTR ___n$[ebp], eax
  00024	75 17		 jne	 SHORT $L98816

; 277  :       _M_allocate_buffers(0, 1);

  00026	6a 01		 push	 1
  00028	50		 push	 eax

; 278  :     else if (__buf != 0 && __n > 0)

  00029	eb 0b		 jmp	 SHORT $L101571
$L101570:
  0002b	39 45 0c	 cmp	 DWORD PTR ___n$[ebp], eax
  0002e	7e 0d		 jle	 SHORT $L98816

; 279  :       _M_allocate_buffers(__buf, __n);

  00030	ff 75 0c	 push	 DWORD PTR ___n$[ebp]
  00033	ff 75 08	 push	 DWORD PTR ___buf$[ebp]
$L101571:
  00036	8b ce		 mov	 ecx, esi
  00038	e8 00 00 00 00	 call	 ?_M_allocate_buffers@?$basic_filebuf@DV?$char_traits@D@_STL@@@_STL@@AAE_NPADH@Z ; _STL::basic_filebuf<char,_STL::char_traits<char> >::_M_allocate_buffers
$L98816:

; 280  :   }
; 281  :   return this;

  0003d	8b c6		 mov	 eax, esi
  0003f	5e		 pop	 esi

; 282  : }

  00040	5d		 pop	 ebp
  00041	c2 08 00	 ret	 8
?setbuf@?$basic_filebuf@DV?$char_traits@D@_STL@@@_STL@@MAEPAV?$basic_streambuf@DV?$char_traits@D@_STL@@@2@PADH@Z ENDP ; _STL::basic_filebuf<char,_STL::char_traits<char> >::setbuf
_TEXT	ENDS
EXTRN	_malloc:NEAR
; Function compile flags: /Ogsy
;	COMDAT ?_M_allocate_buffers@?$basic_filebuf@DV?$char_traits@D@_STL@@@_STL@@AAE_NPADH@Z
_TEXT	SEGMENT
$T101577 = -8						; size = 4
$T101575 = -8						; size = 4
$T101576 = -4						; size = 4
$T101574 = 8						; size = 4
___buf$ = 8						; size = 4
___n$ = 12						; size = 4
?_M_allocate_buffers@?$basic_filebuf@DV?$char_traits@D@_STL@@@_STL@@AAE_NPADH@Z PROC NEAR ; _STL::basic_filebuf<char,_STL::char_traits<char> >::_M_allocate_buffers, COMDAT
; _this$ = ecx

; 644  : {

  00000	55		 push	 ebp
  00001	8b ec		 mov	 ebp, esp
  00003	51		 push	 ecx
  00004	51		 push	 ecx

; 645  : 
; 646  :   if (__buf == 0) {

  00005	8b 45 08	 mov	 eax, DWORD PTR ___buf$[ebp]
  00008	85 c0		 test	 eax, eax
  0000a	56		 push	 esi
  0000b	8b f1		 mov	 esi, ecx
  0000d	75 1a		 jne	 SHORT $L99768

; 647  :     _M_int_buf = __STATIC_CAST(_CharT*,malloc(__n * sizeof(_CharT)));

  0000f	ff 75 0c	 push	 DWORD PTR ___n$[ebp]
  00012	e8 00 00 00 00	 call	 _malloc

; 648  :     if (! _M_int_buf)

  00017	85 c0		 test	 eax, eax
  00019	59		 pop	 ecx
  0001a	89 46 6c	 mov	 DWORD PTR [esi+108], eax
  0001d	75 04		 jne	 SHORT $L99771

; 649  :       return false;

  0001f	32 c0		 xor	 al, al
  00021	eb 7a		 jmp	 SHORT $L99767
$L99771:

; 650  :     _M_int_buf_dynamic = true;

  00023	c6 46 66 01	 mov	 BYTE PTR [esi+102], 1

; 651  :   }
; 652  :   else {

  00027	eb 07		 jmp	 SHORT $L99772
$L99768:

; 653  :     _M_int_buf = __buf;

  00029	89 46 6c	 mov	 DWORD PTR [esi+108], eax

; 654  :     _M_int_buf_dynamic = false;

  0002c	c6 46 66 00	 mov	 BYTE PTR [esi+102], 0
$L99772:
  00030	57		 push	 edi

; 655  :   }
; 656  :   
; 657  :   size_t __ebufsiz = (max)(__n * (max)(_M_codecvt->encoding(), 1),
; 658  :                       streamsize(_M_codecvt->max_length()));

  00031	8d be a0 00 00
	00		 lea	 edi, DWORD PTR [esi+160]
  00037	8b 0f		 mov	 ecx, DWORD PTR [edi]
  00039	8b 01		 mov	 eax, DWORD PTR [ecx]
  0003b	ff 50 1c	 call	 DWORD PTR [eax+28]
  0003e	8b 0f		 mov	 ecx, DWORD PTR [edi]
  00040	89 45 08	 mov	 DWORD PTR $T101574[ebp], eax
  00043	8b 01		 mov	 eax, DWORD PTR [ecx]
  00045	c7 45 fc 01 00
	00 00		 mov	 DWORD PTR $T101576[ebp], 1
  0004c	ff 50 10	 call	 DWORD PTR [eax+16]
  0004f	89 45 f8	 mov	 DWORD PTR $T101577[ebp], eax
  00052	83 f8 01	 cmp	 eax, 1
  00055	8d 45 fc	 lea	 eax, DWORD PTR $T101576[ebp]
  00058	7c 03		 jl	 SHORT $L101593
  0005a	8d 45 f8	 lea	 eax, DWORD PTR $T101577[ebp]
$L101593:
  0005d	8b 00		 mov	 eax, DWORD PTR [eax]
  0005f	0f af 45 0c	 imul	 eax, DWORD PTR ___n$[ebp]
  00063	3b 45 08	 cmp	 eax, DWORD PTR $T101574[ebp]
  00066	89 45 f8	 mov	 DWORD PTR $T101575[ebp], eax
  00069	8d 45 08	 lea	 eax, DWORD PTR $T101574[ebp]
  0006c	7c 03		 jl	 SHORT $L101602
  0006e	8d 45 f8	 lea	 eax, DWORD PTR $T101575[ebp]
$L101602:
  00071	8b 38		 mov	 edi, DWORD PTR [eax]

; 659  : 
; 660  :   _M_ext_buf = __STATIC_CAST(char*,malloc(__ebufsiz));

  00073	57		 push	 edi
  00074	e8 00 00 00 00	 call	 _malloc

; 661  :   if (!_M_ext_buf) {

  00079	85 c0		 test	 eax, eax
  0007b	59		 pop	 ecx
  0007c	89 46 74	 mov	 DWORD PTR [esi+116], eax
  0007f	75 0b		 jne	 SHORT $L99784

; 662  :     _M_deallocate_buffers();

  00081	8b ce		 mov	 ecx, esi
  00083	e8 00 00 00 00	 call	 ?_M_deallocate_buffers@?$basic_filebuf@DV?$char_traits@D@_STL@@@_STL@@AAEXXZ ; _STL::basic_filebuf<char,_STL::char_traits<char> >::_M_deallocate_buffers

; 663  :     return false;

  00088	32 c0		 xor	 al, al
  0008a	eb 10		 jmp	 SHORT $L101604
$L99784:

; 664  :   }
; 665  : 
; 666  :   _M_int_buf_EOS = _M_int_buf + __n;

  0008c	8b 4e 6c	 mov	 ecx, DWORD PTR [esi+108]
  0008f	03 4d 0c	 add	 ecx, DWORD PTR ___n$[ebp]

; 667  :   _M_ext_buf_EOS = _M_ext_buf + __ebufsiz;

  00092	03 c7		 add	 eax, edi
  00094	89 46 78	 mov	 DWORD PTR [esi+120], eax
  00097	89 4e 70	 mov	 DWORD PTR [esi+112], ecx

; 668  :   return true;

  0009a	b0 01		 mov	 al, 1
$L101604:
  0009c	5f		 pop	 edi
$L99767:
  0009d	5e		 pop	 esi

; 669  : }

  0009e	c9		 leave
  0009f	c2 08 00	 ret	 8
?_M_allocate_buffers@?$basic_filebuf@DV?$char_traits@D@_STL@@@_STL@@AAE_NPADH@Z ENDP ; _STL::basic_filebuf<char,_STL::char_traits<char> >::_M_allocate_buffers
; Function compile flags: /Ogsy
_TEXT	ENDS
;	COMDAT ?imbue@?$basic_filebuf@DV?$char_traits@D@_STL@@@_STL@@MAEXABVlocale@2@@Z
_TEXT	SEGMENT
___loc$ = 8						; size = 4
?imbue@?$basic_filebuf@DV?$char_traits@D@_STL@@@_STL@@MAEXABVlocale@2@@Z PROC NEAR ; _STL::basic_filebuf<char,_STL::char_traits<char> >::imbue, COMDAT
; _this$ = ecx

; 429  :   if (!_M_in_input_mode &&! _M_in_output_mode && !_M_in_error_mode) {

  00000	32 c0		 xor	 al, al
  00002	38 41 67	 cmp	 BYTE PTR [ecx+103], al
  00005	75 0f		 jne	 SHORT $L98961
  00007	38 41 68	 cmp	 BYTE PTR [ecx+104], al
  0000a	75 0a		 jne	 SHORT $L98961
  0000c	38 41 69	 cmp	 BYTE PTR [ecx+105], al
  0000f	75 05		 jne	 SHORT $L98961

; 430  :     this->_M_setup_codecvt(__loc);

  00011	e9 00 00 00 00	 jmp	 ?_M_setup_codecvt@?$basic_filebuf@DV?$char_traits@D@_STL@@@_STL@@AAEXABVlocale@2@@Z ; _STL::basic_filebuf<char,_STL::char_traits<char> >::_M_setup_codecvt
$L98961:

; 431  :   }
; 432  : }

  00016	c2 04 00	 ret	 4
?imbue@?$basic_filebuf@DV?$char_traits@D@_STL@@@_STL@@MAEXABVlocale@2@@Z ENDP ; _STL::basic_filebuf<char,_STL::char_traits<char> >::imbue
_TEXT	ENDS
PUBLIC	?close@?$basic_filebuf@DV?$char_traits@D@_STL@@@_STL@@QAEPAV12@XZ ; _STL::basic_filebuf<char,_STL::char_traits<char> >::close
EXTRN	?_M_close@_Filebuf_base@_STL@@QAE_NXZ:NEAR	; _STL::_Filebuf_base::_M_close
; Function compile flags: /Ogsy
;	COMDAT ?close@?$basic_filebuf@DV?$char_traits@D@_STL@@@_STL@@QAEPAV12@XZ
_TEXT	SEGMENT
___ok$ = -1						; size = 1
?close@?$basic_filebuf@DV?$char_traits@D@_STL@@@_STL@@QAEPAV12@XZ PROC NEAR ; _STL::basic_filebuf<char,_STL::char_traits<char> >::close, COMDAT
; _this$ = ecx

; 81   : {

  00000	55		 push	 ebp
  00001	8b ec		 mov	 ebp, esp
  00003	51		 push	 ecx
  00004	53		 push	 ebx
  00005	56		 push	 esi
  00006	8b f1		 mov	 esi, ecx

; 82   :   bool __ok = this->is_open();

  00008	33 db		 xor	 ebx, ebx
  0000a	38 5e 60	 cmp	 BYTE PTR [esi+96], bl
  0000d	0f 95 45 ff	 setne	 BYTE PTR ___ok$[ebp]

; 83   : 
; 84   :   if (_M_in_output_mode) {

  00011	38 5e 68	 cmp	 BYTE PTR [esi+104], bl
  00014	74 21		 je	 SHORT $L99735

; 85   :     __ok = __ok && !_Traits::eq_int_type(this->overflow(traits_type::eof()),
; 86   :                                          traits_type::eof());

  00016	38 5d ff	 cmp	 BYTE PTR ___ok$[ebp], bl
  00019	74 10		 je	 SHORT $L101612
  0001b	8b 06		 mov	 eax, DWORD PTR [esi]
  0001d	6a ff		 push	 -1
  0001f	ff 50 30	 call	 DWORD PTR [eax+48]
  00022	83 f8 ff	 cmp	 eax, -1
  00025	c6 45 ff 01	 mov	 BYTE PTR ___ok$[ebp], 1
  00029	75 03		 jne	 SHORT $L101613
$L101612:
  0002b	88 5d ff	 mov	 BYTE PTR ___ok$[ebp], bl
$L101613:

; 87   :     __ok == __ok && this->_M_unshift();

  0002e	8b ce		 mov	 ecx, esi
  00030	e8 00 00 00 00	 call	 ?_M_unshift@?$basic_filebuf@DV?$char_traits@D@_STL@@@_STL@@AAE_NXZ ; _STL::basic_filebuf<char,_STL::char_traits<char> >::_M_unshift

; 88   :   }
; 89   :   else if (_M_in_input_mode)

  00035	eb 0c		 jmp	 SHORT $L99739
$L99735:
  00037	38 5e 67	 cmp	 BYTE PTR [esi+103], bl
  0003a	74 07		 je	 SHORT $L99739

; 90   :       this->_M_exit_input_mode();

  0003c	8b ce		 mov	 ecx, esi
  0003e	e8 00 00 00 00	 call	 ?_M_exit_input_mode@?$basic_filebuf@DV?$char_traits@D@_STL@@@_STL@@AAEXXZ ; _STL::basic_filebuf<char,_STL::char_traits<char> >::_M_exit_input_mode
$L99739:

; 91   : 
; 92   :   // Note order of arguments.  We close the file even if __ok is false.
; 93   :   __ok = _M_base._M_close() && __ok;

  00043	8d 4e 54	 lea	 ecx, DWORD PTR [esi+84]
  00046	e8 00 00 00 00	 call	 ?_M_close@_Filebuf_base@_STL@@QAE_NXZ ; _STL::_Filebuf_base::_M_close
  0004b	84 c0		 test	 al, al
  0004d	74 09		 je	 SHORT $L101615
  0004f	38 5d ff	 cmp	 BYTE PTR ___ok$[ebp], bl
  00052	74 04		 je	 SHORT $L101615
  00054	b0 01		 mov	 al, 1
  00056	eb 02		 jmp	 SHORT $L101616
$L101615:
  00058	32 c0		 xor	 al, al
$L101616:

; 94   : 
; 95   :   // Restore the initial state, except that we don't deallocate the buffer
; 96   :   // or mess with the cached codecvt information.
; 97   :   _M_state = _M_end_state = _State_type();
; 98   :   _M_ext_buf_converted = _M_ext_buf_end = 0;
; 99   : 
; 100  :   _M_mmap_base = 0;
; 101  :   _M_mmap_len = 0;
; 102  : 
; 103  :   this->setg(0, 0, 0);

  0005a	8b 4e 04	 mov	 ecx, DWORD PTR [esi+4]
  0005d	89 9e 88 00 00
	00		 mov	 DWORD PTR [esi+136], ebx
  00063	89 9e 84 00 00
	00		 mov	 DWORD PTR [esi+132], ebx
  00069	89 9e 80 00 00
	00		 mov	 DWORD PTR [esi+128], ebx
  0006f	89 5e 7c	 mov	 DWORD PTR [esi+124], ebx
  00072	89 9e 8c 00 00
	00		 mov	 DWORD PTR [esi+140], ebx
  00078	89 9e 90 00 00
	00		 mov	 DWORD PTR [esi+144], ebx
  0007e	89 59 08	 mov	 DWORD PTR [ecx+8], ebx
  00081	89 19		 mov	 DWORD PTR [ecx], ebx
  00083	89 59 04	 mov	 DWORD PTR [ecx+4], ebx

; 104  :   this->setp(0, 0);

  00086	8b 4e 08	 mov	 ecx, DWORD PTR [esi+8]

; 105  : 
; 106  :   _M_saved_eback = _M_saved_gptr = _M_saved_egptr = 0;
; 107  : 
; 108  :   _M_in_input_mode = _M_in_output_mode = _M_in_error_mode = _M_in_putback_mode
; 109  :     = false;
; 110  : 
; 111  :   return __ok ? this : 0;

  00089	f6 d8		 neg	 al
  0008b	89 59 08	 mov	 DWORD PTR [ecx+8], ebx
  0008e	89 19		 mov	 DWORD PTR [ecx], ebx
  00090	89 59 04	 mov	 DWORD PTR [ecx+4], ebx
  00093	89 9e 9c 00 00
	00		 mov	 DWORD PTR [esi+156], ebx
  00099	89 9e 98 00 00
	00		 mov	 DWORD PTR [esi+152], ebx
  0009f	89 9e 94 00 00
	00		 mov	 DWORD PTR [esi+148], ebx
  000a5	1b c0		 sbb	 eax, eax
  000a7	88 5e 6a	 mov	 BYTE PTR [esi+106], bl
  000aa	88 5e 69	 mov	 BYTE PTR [esi+105], bl
  000ad	88 5e 68	 mov	 BYTE PTR [esi+104], bl
  000b0	88 5e 67	 mov	 BYTE PTR [esi+103], bl
  000b3	23 c6		 and	 eax, esi
  000b5	5e		 pop	 esi
  000b6	5b		 pop	 ebx

; 112  : }

  000b7	c9		 leave
  000b8	c3		 ret	 0
?close@?$basic_filebuf@DV?$char_traits@D@_STL@@@_STL@@QAEPAV12@XZ ENDP ; _STL::basic_filebuf<char,_STL::char_traits<char> >::close
_TEXT	ENDS
PUBLIC	?flush@?$basic_ostream@DV?$char_traits@D@_STL@@@_STL@@QAEAAV12@XZ ; _STL::basic_ostream<char,_STL::char_traits<char> >::flush
; Function compile flags: /Ogsy
; File c:\stlport-4.6.1\stlport\stl\_ostream.h
;	COMDAT ?flush@?$basic_ostream@DV?$char_traits@D@_STL@@@_STL@@QAEAAV12@XZ
_TEXT	SEGMENT
?flush@?$basic_ostream@DV?$char_traits@D@_STL@@@_STL@@QAEAAV12@XZ PROC NEAR ; _STL::basic_ostream<char,_STL::char_traits<char> >::flush, COMDAT
; _this$ = ecx

; 120  :   _Self& flush() {

  00000	56		 push	 esi
  00001	8b f1		 mov	 esi, ecx

; 121  :     if (this->rdbuf())

  00003	8b 06		 mov	 eax, DWORD PTR [esi]
  00005	8b 40 04	 mov	 eax, DWORD PTR [eax+4]
  00008	8b 4c 30 58	 mov	 ecx, DWORD PTR [eax+esi+88]
  0000c	85 c9		 test	 ecx, ecx
  0000e	74 1d		 je	 SHORT $L101680

; 122  :       if (this->rdbuf()->pubsync() == -1)

  00010	8b 01		 mov	 eax, DWORD PTR [ecx]
  00012	ff 50 10	 call	 DWORD PTR [eax+16]
  00015	83 f8 ff	 cmp	 eax, -1
  00018	75 13		 jne	 SHORT $L101680

; 123  :         this->setstate(ios_base::badbit);

  0001a	8b 06		 mov	 eax, DWORD PTR [esi]
  0001c	8b 48 04	 mov	 ecx, DWORD PTR [eax+4]
  0001f	03 ce		 add	 ecx, esi
  00021	8b 41 08	 mov	 eax, DWORD PTR [ecx+8]
  00024	83 c8 01	 or	 eax, 1
  00027	50		 push	 eax
  00028	e8 00 00 00 00	 call	 ?clear@?$basic_ios@DV?$char_traits@D@_STL@@@_STL@@QAEXH@Z ; _STL::basic_ios<char,_STL::char_traits<char> >::clear
$L101680:

; 124  :     return *this;

  0002d	8b c6		 mov	 eax, esi
  0002f	5e		 pop	 esi

; 125  :   }

  00030	c3		 ret	 0
?flush@?$basic_ostream@DV?$char_traits@D@_STL@@@_STL@@QAEAAV12@XZ ENDP ; _STL::basic_ostream<char,_STL::char_traits<char> >::flush
_TEXT	ENDS
PUBLIC	??1sentry@?$basic_ostream@DV?$char_traits@D@_STL@@@_STL@@QAE@XZ ; _STL::basic_ostream<char,_STL::char_traits<char> >::sentry::~sentry
; Function compile flags: /Ogsy
;	COMDAT ??1sentry@?$basic_ostream@DV?$char_traits@D@_STL@@@_STL@@QAE@XZ
_TEXT	SEGMENT
??1sentry@?$basic_ostream@DV?$char_traits@D@_STL@@@_STL@@QAE@XZ PROC NEAR ; _STL::basic_ostream<char,_STL::char_traits<char> >::sentry::~sentry, COMDAT
; _this$ = ecx

; 169  :         if (_M_str.flags() & ios_base::unitbuf)

  00000	8b 09		 mov	 ecx, DWORD PTR [ecx]
  00002	8b 01		 mov	 eax, DWORD PTR [ecx]
  00004	8b 40 04	 mov	 eax, DWORD PTR [eax+4]
  00007	f6 44 08 05 20	 test	 BYTE PTR [eax+ecx+5], 32 ; 00000020H
  0000c	74 05		 je	 SHORT $L100072

; 170  : # ifndef _STLP_INCOMPLETE_EXCEPTION_HEADER 
; 171  :           if (!_STLP_VENDOR_EXCEPT_STD::uncaught_exception())
; 172  : # endif
; 173  :             _M_str.flush();

  0000e	e9 00 00 00 00	 jmp	 ?flush@?$basic_ostream@DV?$char_traits@D@_STL@@@_STL@@QAEAAV12@XZ ; _STL::basic_ostream<char,_STL::char_traits<char> >::flush
$L100072:

; 174  :       }

  00013	c3		 ret	 0
??1sentry@?$basic_ostream@DV?$char_traits@D@_STL@@@_STL@@QAE@XZ ENDP ; _STL::basic_ostream<char,_STL::char_traits<char> >::sentry::~sentry
_TEXT	ENDS
PUBLIC	??$_M_init@DV?$char_traits@D@_STL@@@_STL@@YA_NAAV?$basic_ostream@DV?$char_traits@D@_STL@@@0@@Z ; _STL::_M_init<char,_STL::char_traits<char> >
; Function compile flags: /Ogsy
; File c:\stlport-4.6.1\stlport\stl\_ostream.c
;	COMDAT ??$_M_init@DV?$char_traits@D@_STL@@@_STL@@YA_NAAV?$basic_ostream@DV?$char_traits@D@_STL@@@0@@Z
_TEXT	SEGMENT
___str$ = 8						; size = 4
??$_M_init@DV?$char_traits@D@_STL@@@_STL@@YA_NAAV?$basic_ostream@DV?$char_traits@D@_STL@@@0@@Z PROC NEAR ; _STL::_M_init<char,_STL::char_traits<char> >, COMDAT

; 37   : _M_init(basic_ostream<_CharT, _Traits>& __str) {

  00000	56		 push	 esi

; 38   :   if (__str.good()) {

  00001	8b 74 24 08	 mov	 esi, DWORD PTR ___str$[esp]
  00005	8b 06		 mov	 eax, DWORD PTR [esi]
  00007	8b 40 04	 mov	 eax, DWORD PTR [eax+4]
  0000a	8d 0c 30	 lea	 ecx, DWORD PTR [eax+esi]
  0000d	83 79 08 00	 cmp	 DWORD PTR [ecx+8], 0
  00011	75 36		 jne	 SHORT $L100150

; 39   :     // boris : check if this is needed !
; 40   :     if (!__str.rdbuf())

  00013	83 79 58 00	 cmp	 DWORD PTR [ecx+88], 0
  00017	75 0c		 jne	 SHORT $L101707

; 41   :       __str.setstate(ios_base::badbit);

  00019	8b 41 08	 mov	 eax, DWORD PTR [ecx+8]
  0001c	83 c8 01	 or	 eax, 1
  0001f	50		 push	 eax
  00020	e8 00 00 00 00	 call	 ?clear@?$basic_ios@DV?$char_traits@D@_STL@@@_STL@@QAEXH@Z ; _STL::basic_ios<char,_STL::char_traits<char> >::clear
$L101707:

; 42   :     if (__str.tie())

  00025	8b 06		 mov	 eax, DWORD PTR [esi]
  00027	8b 40 04	 mov	 eax, DWORD PTR [eax+4]
  0002a	8b 4c 30 5c	 mov	 ecx, DWORD PTR [eax+esi+92]
  0002e	85 c9		 test	 ecx, ecx
  00030	74 05		 je	 SHORT $L100152

; 43   :       __str.tie()->flush();

  00032	e8 00 00 00 00	 call	 ?flush@?$basic_ostream@DV?$char_traits@D@_STL@@@_STL@@QAEAAV12@XZ ; _STL::basic_ostream<char,_STL::char_traits<char> >::flush
$L100152:

; 44   :     return __str.good();

  00037	8b 06		 mov	 eax, DWORD PTR [esi]
  00039	8b 40 04	 mov	 eax, DWORD PTR [eax+4]
  0003c	33 c9		 xor	 ecx, ecx
  0003e	39 4c 30 08	 cmp	 DWORD PTR [eax+esi+8], ecx
  00042	5e		 pop	 esi
  00043	0f 94 c1	 sete	 cl
  00046	8a c1		 mov	 al, cl

; 47   : }

  00048	c3		 ret	 0
$L100150:

; 45   :   } else
; 46   :     return false;

  00049	32 c0		 xor	 al, al
  0004b	5e		 pop	 esi

; 47   : }

  0004c	c3		 ret	 0
??$_M_init@DV?$char_traits@D@_STL@@@_STL@@YA_NAAV?$basic_ostream@DV?$char_traits@D@_STL@@@0@@Z ENDP ; _STL::_M_init<char,_STL::char_traits<char> >
_TEXT	ENDS
PUBLIC	??$__uninitialized_copy@PADPAD@_STL@@YAPADPAD00ABU__true_type@0@@Z ; _STL::__uninitialized_copy<char *,char *>
; Function compile flags: /Ogsy
; File c:\stlport-4.6.1\stlport\stl\_uninitialized.h
;	COMDAT ??$__uninitialized_copy@PADPAD@_STL@@YAPADPAD00ABU__true_type@0@@Z
_TEXT	SEGMENT
___first$ = 8						; size = 4
___last$ = 12						; size = 4
___result$ = 16						; size = 4
___formal$ = 20						; size = 4
??$__uninitialized_copy@PADPAD@_STL@@YAPADPAD00ABU__true_type@0@@Z PROC NEAR ; _STL::__uninitialized_copy<char *,char *>, COMDAT

; 55   :   return __copy_aux(__first, __last, __result, _BothPtrType< _InputIter, _ForwardIter> :: _Ret());

  00000	ff 74 24 0c	 push	 DWORD PTR ___result$[esp-4]
  00004	ff 74 24 0c	 push	 DWORD PTR ___last$[esp]
  00008	ff 74 24 0c	 push	 DWORD PTR ___first$[esp+4]
  0000c	e8 00 00 00 00	 call	 ?__copy_trivial@_STL@@YAPAXPBX0PAX@Z ; _STL::__copy_trivial
  00011	83 c4 0c	 add	 esp, 12			; 0000000cH

; 56   : }

  00014	c3		 ret	 0
??$__uninitialized_copy@PADPAD@_STL@@YAPADPAD00ABU__true_type@0@@Z ENDP ; _STL::__uninitialized_copy<char *,char *>
_TEXT	ENDS
PUBLIC	??0?$_List_base@V?$basic_string@DV?$char_traits@D@_STL@@V?$allocator@D@2@@_STL@@V?$allocator@V?$basic_string@DV?$char_traits@D@_STL@@V?$allocator@D@2@@_STL@@@2@@_STL@@QAE@ABV?$allocator@V?$basic_string@DV?$char_traits@D@_STL@@V?$allocator@D@2@@_STL@@@1@@Z ; _STL::_List_base<_STL::basic_string<char,_STL::char_traits<char>,_STL::allocator<char> >,_STL::allocator<_STL::basic_string<char,_STL::char_traits<char>,_STL::allocator<char> > > >::_List_base<_STL::basic_string<char,_STL::char_traits<char>,_STL::allocator<char> >,_STL::allocator<_STL::basic_string<char,_STL::char_traits<char>,_STL::allocator<char> > > >
; Function compile flags: /Ogsy
; File c:\stlport-4.6.1\stlport\stl\_list.h
;	COMDAT ??0?$_List_base@V?$basic_string@DV?$char_traits@D@_STL@@V?$allocator@D@2@@_STL@@V?$allocator@V?$basic_string@DV?$char_traits@D@_STL@@V?$allocator@D@2@@_STL@@@2@@_STL@@QAE@ABV?$allocator@V?$basic_string@DV?$char_traits@D@_STL@@V?$allocator@D@2@@_STL@@@1@@Z
_TEXT	SEGMENT
$T101760 = -1						; size = 1
___a$ = 8						; size = 4
??0?$_List_base@V?$basic_string@DV?$char_traits@D@_STL@@V?$allocator@D@2@@_STL@@V?$allocator@V?$basic_string@DV?$char_traits@D@_STL@@V?$allocator@D@2@@_STL@@@2@@_STL@@QAE@ABV?$allocator@V?$basic_string@DV?$char_traits@D@_STL@@V?$allocator@D@2@@_STL@@@1@@Z PROC NEAR ; _STL::_List_base<_STL::basic_string<char,_STL::char_traits<char>,_STL::allocator<char> >,_STL::allocator<_STL::basic_string<char,_STL::char_traits<char>,_STL::allocator<char> > > >::_List_base<_STL::basic_string<char,_STL::char_traits<char>,_STL::allocator<char> >,_STL::allocator<_STL::basic_string<char,_STL::char_traits<char>,_STL::allocator<char> > > >, COMDAT
; _this$ = ecx

; 182  :   _List_base(const allocator_type& __a) : _M_node(_STLP_CONVERT_ALLOCATOR(__a, _Node), (_Node*)0) {

  00000	51		 push	 ecx
  00001	56		 push	 esi
  00002	6a 00		 push	 0
  00004	8d 44 24 0b	 lea	 eax, DWORD PTR $T101760[esp+12]
  00008	50		 push	 eax
  00009	8b f1		 mov	 esi, ecx
  0000b	e8 00 00 00 00	 call	 ??0?$_STLP_alloc_proxy@PAU?$_List_node@V?$basic_string@DV?$char_traits@D@_STL@@V?$allocator@D@2@@_STL@@@_STL@@U12@V?$allocator@U?$_List_node@V?$basic_string@DV?$char_traits@D@_STL@@V?$allocator@D@2@@_STL@@@_STL@@@2@@_STL@@QAE@ABV?$allocator@U?$_List_node@V?$basic_string@DV?$char_traits@D@_STL@@V?$allocator@D@2@@_STL@@@_STL@@@1@PAU?$_List_node@V?$basic_string@DV?$char_traits@D@_STL@@V?$allocator@D@2@@_STL@@@1@@Z ; _STL::_STLP_alloc_proxy<_STL::_List_node<_STL::basic_string<char,_STL::char_traits<char>,_STL::allocator<char> > > *,_STL::_List_node<_STL::basic_string<char,_STL::char_traits<char>,_STL::allocator<char> > >,_STL::allocator<_STL::_List_node<_STL::basic_string<char,_STL::char_traits<char>,_STL::allocator<char> > > > >::_STLP_alloc_proxy<_STL::_List_node<_STL::basic_string<char,_STL::char_traits<char>,_STL::allocator<char> > > *,_STL::_List_node<_STL::basic_string<char,_STL::char_traits<char>,_STL::allocator<char> > >,_STL::allocator<_STL::_List_node<_STL::basic_string<char,_STL::char_traits<char>,_STL::allocator<char> > > > >

; 183  :     _Node* __n = _M_node.allocate(1);

  00010	6a 14		 push	 20			; 00000014H
  00012	e8 00 00 00 00	 call	 ?allocate@?$__node_alloc@$00$0A@@_STL@@SAPAXI@Z ; _STL::__node_alloc<1,0>::allocate

; 184  :     __n->_M_next = __n;

  00017	89 00		 mov	 DWORD PTR [eax], eax

; 185  :     __n->_M_prev = __n;

  00019	89 40 04	 mov	 DWORD PTR [eax+4], eax

; 186  :     _M_node._M_data = __n;

  0001c	89 06		 mov	 DWORD PTR [esi], eax
  0001e	59		 pop	 ecx

; 187  :   }

  0001f	8b c6		 mov	 eax, esi
  00021	5e		 pop	 esi
  00022	59		 pop	 ecx
  00023	c2 04 00	 ret	 4
??0?$_List_base@V?$basic_string@DV?$char_traits@D@_STL@@V?$allocator@D@2@@_STL@@V?$allocator@V?$basic_string@DV?$char_traits@D@_STL@@V?$allocator@D@2@@_STL@@@2@@_STL@@QAE@ABV?$allocator@V?$basic_string@DV?$char_traits@D@_STL@@V?$allocator@D@2@@_STL@@@1@@Z ENDP ; _STL::_List_base<_STL::basic_string<char,_STL::char_traits<char>,_STL::allocator<char> >,_STL::allocator<_STL::basic_string<char,_STL::char_traits<char>,_STL::allocator<char> > > >::_List_base<_STL::basic_string<char,_STL::char_traits<char>,_STL::allocator<char> >,_STL::allocator<_STL::basic_string<char,_STL::char_traits<char>,_STL::allocator<char> > > >
_TEXT	ENDS
PUBLIC	?_M_deallocate_block@?$_String_base@DV?$allocator@D@_STL@@@_STL@@QAEXXZ ; _STL::_String_base<char,_STL::allocator<char> >::_M_deallocate_block
; Function compile flags: /Ogsy
; File c:\stlport-4.6.1\stlport\stl\_string.h
;	COMDAT ?_M_deallocate_block@?$_String_base@DV?$allocator@D@_STL@@@_STL@@QAEXXZ
_TEXT	SEGMENT
?_M_deallocate_block@?$_String_base@DV?$allocator@D@_STL@@@_STL@@QAEXXZ PROC NEAR ; _STL::_String_base<char,_STL::allocator<char> >::_M_deallocate_block, COMDAT
; _this$ = ecx

; 124  :     { _M_end_of_storage.deallocate(_M_start, _M_end_of_storage._M_data - _M_start); }

  00000	8b c1		 mov	 eax, ecx
  00002	8d 48 08	 lea	 ecx, DWORD PTR [eax+8]
  00005	8b 00		 mov	 eax, DWORD PTR [eax]
  00007	8b 11		 mov	 edx, DWORD PTR [ecx]
  00009	2b d0		 sub	 edx, eax
  0000b	52		 push	 edx
  0000c	50		 push	 eax
  0000d	e8 00 00 00 00	 call	 ?deallocate@?$allocator@D@_STL@@QAEXPADI@Z ; _STL::allocator<char>::deallocate
  00012	c3		 ret	 0
?_M_deallocate_block@?$_String_base@DV?$allocator@D@_STL@@@_STL@@QAEXXZ ENDP ; _STL::_String_base<char,_STL::allocator<char> >::_M_deallocate_block
_TEXT	ENDS
PUBLIC	??1?$basic_filebuf@DV?$char_traits@D@_STL@@@_STL@@UAE@XZ ; _STL::basic_filebuf<char,_STL::char_traits<char> >::~basic_filebuf<char,_STL::char_traits<char> >
;	COMDAT xdata$x
; File c:\stlport-4.6.1\stlport\stl\_fstream.c
xdata$x	SEGMENT
$T101781 DD	0ffffffffH
	DD	FLAT:$L101777
$T101779 DD	019930520H
	DD	01H
	DD	FLAT:$T101781
	DD	2 DUP(00H)
	DD	2 DUP(00H)
; Function compile flags: /Ogsy
xdata$x	ENDS
;	COMDAT ??1?$basic_filebuf@DV?$char_traits@D@_STL@@@_STL@@UAE@XZ
_TEXT	SEGMENT
_this$ = -16						; size = 4
__$EHRec$ = -12						; size = 12
??1?$basic_filebuf@DV?$char_traits@D@_STL@@@_STL@@UAE@XZ PROC NEAR ; _STL::basic_filebuf<char,_STL::char_traits<char> >::~basic_filebuf<char,_STL::char_traits<char> >, COMDAT
; _this$ = ecx

; 65   : basic_filebuf<_CharT, _Traits>::~basic_filebuf() {

  00000	b8 00 00 00 00	 mov	 eax, __ehhandler$??1?$basic_filebuf@DV?$char_traits@D@_STL@@@_STL@@UAE@XZ
  00005	e8 00 00 00 00	 call	 __EH_prolog
  0000a	51		 push	 ecx
  0000b	56		 push	 esi
  0000c	8b f1		 mov	 esi, ecx
  0000e	89 75 f0	 mov	 DWORD PTR _this$[ebp], esi
  00011	c7 06 00 00 00
	00		 mov	 DWORD PTR [esi], OFFSET FLAT:??_7?$basic_filebuf@DV?$char_traits@D@_STL@@@_STL@@6B@
  00017	83 65 fc 00	 and	 DWORD PTR __$EHRec$[ebp+8], 0

; 66   :   this->close();

  0001b	e8 00 00 00 00	 call	 ?close@?$basic_filebuf@DV?$char_traits@D@_STL@@@_STL@@QAEPAV12@XZ ; _STL::basic_filebuf<char,_STL::char_traits<char> >::close

; 67   :   _M_deallocate_buffers();

  00020	8b ce		 mov	 ecx, esi
  00022	e8 00 00 00 00	 call	 ?_M_deallocate_buffers@?$basic_filebuf@DV?$char_traits@D@_STL@@@_STL@@AAEXXZ ; _STL::basic_filebuf<char,_STL::char_traits<char> >::_M_deallocate_buffers

; 68   : }

  00027	83 4d fc ff	 or	 DWORD PTR __$EHRec$[ebp+8], -1
  0002b	8b ce		 mov	 ecx, esi
  0002d	e8 00 00 00 00	 call	 ??1?$basic_streambuf@DV?$char_traits@D@_STL@@@_STL@@UAE@XZ ; _STL::basic_streambuf<char,_STL::char_traits<char> >::~basic_streambuf<char,_STL::char_traits<char> >
  00032	8b 4d f4	 mov	 ecx, DWORD PTR __$EHRec$[ebp]
  00035	5e		 pop	 esi
  00036	64 89 0d 00 00
	00 00		 mov	 DWORD PTR fs:__except_list, ecx
  0003d	c9		 leave
  0003e	c3		 ret	 0
_TEXT	ENDS
;	COMDAT text$x
text$x	SEGMENT
$L101777:
  00000	8b 4d f0	 mov	 ecx, DWORD PTR _this$[ebp]
  00003	e9 00 00 00 00	 jmp	 ??1?$basic_streambuf@DV?$char_traits@D@_STL@@@_STL@@UAE@XZ ; _STL::basic_streambuf<char,_STL::char_traits<char> >::~basic_streambuf<char,_STL::char_traits<char> >
__ehhandler$??1?$basic_filebuf@DV?$char_traits@D@_STL@@@_STL@@UAE@XZ:
  00008	b8 00 00 00 00	 mov	 eax, OFFSET FLAT:$T101779
  0000d	e9 00 00 00 00	 jmp	 ___CxxFrameHandler
text$x	ENDS
??1?$basic_filebuf@DV?$char_traits@D@_STL@@@_STL@@UAE@XZ ENDP ; _STL::basic_filebuf<char,_STL::char_traits<char> >::~basic_filebuf<char,_STL::char_traits<char> >
PUBLIC	?_M_switch_to_output_mode@?$basic_filebuf@DV?$char_traits@D@_STL@@@_STL@@AAE_NXZ ; _STL::basic_filebuf<char,_STL::char_traits<char> >::_M_switch_to_output_mode
PUBLIC	?_M_output_error@?$basic_filebuf@DV?$char_traits@D@_STL@@@_STL@@AAEHXZ ; _STL::basic_filebuf<char,_STL::char_traits<char> >::_M_output_error
; Function compile flags: /Ogsy
;	COMDAT ?overflow@?$basic_filebuf@DV?$char_traits@D@_STL@@@_STL@@MAEHH@Z
_TEXT	SEGMENT
___enext$98795 = -12					; size = 4
___iend$ = -8						; size = 4
___inext$98794 = -4					; size = 4
___c$ = 8						; size = 4
?overflow@?$basic_filebuf@DV?$char_traits@D@_STL@@@_STL@@MAEHH@Z PROC NEAR ; _STL::basic_filebuf<char,_STL::char_traits<char> >::overflow, COMDAT
; _this$ = ecx

; 213  : {

  00000	55		 push	 ebp
  00001	8b ec		 mov	 ebp, esp
  00003	83 ec 0c	 sub	 esp, 12			; 0000000cH
  00006	56		 push	 esi
  00007	8b f1		 mov	 esi, ecx

; 214  :   // Switch to output mode, if necessary.
; 215  :   if (!_M_in_output_mode)

  00009	80 7e 68 00	 cmp	 BYTE PTR [esi+104], 0
  0000d	75 11		 jne	 SHORT $L98786

; 216  :     if (!_M_switch_to_output_mode())

  0000f	e8 00 00 00 00	 call	 ?_M_switch_to_output_mode@?$basic_filebuf@DV?$char_traits@D@_STL@@@_STL@@AAE_NXZ ; _STL::basic_filebuf<char,_STL::char_traits<char> >::_M_switch_to_output_mode
  00014	84 c0		 test	 al, al
  00016	75 08		 jne	 SHORT $L98786

; 217  :       return traits_type::eof();

  00018	83 c8 ff	 or	 eax, -1
  0001b	e9 b1 00 00 00	 jmp	 $L98784
$L98786:

; 218  : 
; 219  :   _CharT* __ibegin = this->_M_int_buf;
; 220  :   _CharT* __iend   = this->pptr();
; 221  :   this->setp(_M_int_buf, _M_int_buf_EOS - 1);

  00020	8b 46 70	 mov	 eax, DWORD PTR [esi+112]
  00023	8b 4e 08	 mov	 ecx, DWORD PTR [esi+8]
  00026	8b 11		 mov	 edx, DWORD PTR [ecx]
  00028	48		 dec	 eax
  00029	57		 push	 edi
  0002a	8b 7e 6c	 mov	 edi, DWORD PTR [esi+108]
  0002d	2b c7		 sub	 eax, edi
  0002f	89 41 04	 mov	 DWORD PTR [ecx+4], eax

; 222  : 
; 223  :   // Put __c at the end of the internal buffer.
; 224  :   if (!traits_type::eq_int_type(__c, traits_type::eof()))

  00032	8b 45 08	 mov	 eax, DWORD PTR ___c$[ebp]
  00035	83 f8 ff	 cmp	 eax, -1
  00038	89 55 f8	 mov	 DWORD PTR ___iend$[ebp], edx
  0003b	89 79 08	 mov	 DWORD PTR [ecx+8], edi
  0003e	89 39		 mov	 DWORD PTR [ecx], edi
  00040	74 06		 je	 SHORT $L101953

; 225  :     *__iend++ = __c;

  00042	88 02		 mov	 BYTE PTR [edx], al
  00044	42		 inc	 edx
  00045	89 55 f8	 mov	 DWORD PTR ___iend$[ebp], edx
$L101953:

; 226  : 
; 227  :   // For variable-width encodings, output may take more than one pass.
; 228  :   while (__ibegin != __iend) {

  00048	3b fa		 cmp	 edi, edx
  0004a	53		 push	 ebx
  0004b	74 77		 je	 SHORT $L98793
$L98792:

; 229  :     const _CharT* __inext = __ibegin;
; 230  :     char* __enext         = _M_ext_buf;

  0004d	8b 46 74	 mov	 eax, DWORD PTR [esi+116]

; 231  :     typename _Codecvt::result __status
; 232  :       = _M_codecvt->out(_M_state, __ibegin, __iend, __inext,
; 233  :                                   _M_ext_buf, _M_ext_buf_EOS, __enext);

  00050	8b 8e a0 00 00
	00		 mov	 ecx, DWORD PTR [esi+160]
  00056	8d 5d f4	 lea	 ebx, DWORD PTR ___enext$98795[ebp]
  00059	53		 push	 ebx
  0005a	ff 76 78	 push	 DWORD PTR [esi+120]
  0005d	8b 5d f8	 mov	 ebx, DWORD PTR ___iend$[ebp]
  00060	50		 push	 eax
  00061	89 45 f4	 mov	 DWORD PTR ___enext$98795[ebp], eax
  00064	8d 45 fc	 lea	 eax, DWORD PTR ___inext$98794[ebp]
  00067	50		 push	 eax
  00068	53		 push	 ebx
  00069	57		 push	 edi
  0006a	8d 86 84 00 00
	00		 lea	 eax, DWORD PTR [esi+132]
  00070	89 7d fc	 mov	 DWORD PTR ___inext$98794[ebp], edi
  00073	8b 11		 mov	 edx, DWORD PTR [ecx]
  00075	50		 push	 eax
  00076	ff 52 04	 call	 DWORD PTR [edx+4]

; 234  :     if (__status == _Codecvt::noconv)

  00079	83 f8 03	 cmp	 eax, 3
  0007c	74 58		 je	 SHORT $L101954

; 238  : 
; 239  :     // For a constant-width encoding we know that the external buffer
; 240  :     // is large enough, so failure to consume the entire internal buffer
; 241  :     // or to produce the correct number of external characters, is an error.
; 242  :     // For a variable-width encoding, however, we require only that we 
; 243  :     // consume at least one internal character
; 244  :     else if (__status != _Codecvt::error && 
; 245  :              ((__inext == __iend && (__enext - _M_ext_buf == 
; 246  :                                      _M_width * (__iend - __ibegin))) ||
; 247  :               (!_M_constant_width && __inext != __ibegin))) {

  0007e	83 f8 02	 cmp	 eax, 2
  00081	74 63		 je	 SHORT $L101787
  00083	39 5d fc	 cmp	 DWORD PTR ___inext$98794[ebp], ebx
  00086	8b 45 f4	 mov	 eax, DWORD PTR ___enext$98795[ebp]
  00089	75 14		 jne	 SHORT $L98801
  0008b	8b cb		 mov	 ecx, ebx
  0008d	2b cf		 sub	 ecx, edi
  0008f	0f af 8e a4 00
	00 00		 imul	 ecx, DWORD PTR [esi+164]
  00096	8b d0		 mov	 edx, eax
  00098	2b 56 74	 sub	 edx, DWORD PTR [esi+116]
  0009b	3b d1		 cmp	 edx, ecx
  0009d	74 0b		 je	 SHORT $L98800
$L98801:
  0009f	80 7e 64 00	 cmp	 BYTE PTR [esi+100], 0
  000a3	75 41		 jne	 SHORT $L101787
  000a5	39 7d fc	 cmp	 DWORD PTR ___inext$98794[ebp], edi
  000a8	74 3c		 je	 SHORT $L101787
$L98800:

; 248  :         // We successfully converted part or all of the internal buffer.
; 249  :       ptrdiff_t __n = __enext - _M_ext_buf;

  000aa	8b 4e 74	 mov	 ecx, DWORD PTR [esi+116]
  000ad	2b c1		 sub	 eax, ecx

; 250  :       if (_M_write(_M_ext_buf, __n))

  000af	50		 push	 eax
  000b0	51		 push	 ecx
  000b1	8d 4e 54	 lea	 ecx, DWORD PTR [esi+84]
  000b4	e8 00 00 00 00	 call	 ?_M_write@_Filebuf_base@_STL@@QAE_NPADH@Z ; _STL::_Filebuf_base::_M_write
  000b9	84 c0		 test	 al, al
  000bb	74 29		 je	 SHORT $L101787

; 251  :         __ibegin += __inext - __ibegin;

  000bd	8b 7d fc	 mov	 edi, DWORD PTR ___inext$98794[ebp]
  000c0	3b fb		 cmp	 edi, ebx
  000c2	75 89		 jne	 SHORT $L98792
$L98793:

; 252  :       else
; 253  :         return _M_output_error();
; 254  :     }
; 255  :     else
; 256  :       return _M_output_error();
; 257  :   }
; 258  : 
; 259  :   return traits_type::not_eof(__c);

  000c4	8b 45 08	 mov	 eax, DWORD PTR ___c$[ebp]
  000c7	40		 inc	 eax
  000c8	f7 d8		 neg	 eax
  000ca	1b c0		 sbb	 eax, eax
  000cc	23 45 08	 and	 eax, DWORD PTR ___c$[ebp]
$L101957:
  000cf	5b		 pop	 ebx
  000d0	5f		 pop	 edi
$L98784:
  000d1	5e		 pop	 esi

; 260  : }

  000d2	c9		 leave
  000d3	c2 04 00	 ret	 4
$L101954:

; 235  :       return _Noconv_output<_Traits>::_M_doit(this, __ibegin, __iend)
; 236  :         ? traits_type::not_eof(__c)
; 237  :         : _M_output_error();

  000d6	2b df		 sub	 ebx, edi
  000d8	53		 push	 ebx
  000d9	57		 push	 edi
  000da	8d 4e 54	 lea	 ecx, DWORD PTR [esi+84]
  000dd	e8 00 00 00 00	 call	 ?_M_write@_Filebuf_base@_STL@@QAE_NPADH@Z ; _STL::_Filebuf_base::_M_write
  000e2	84 c0		 test	 al, al
  000e4	75 de		 jne	 SHORT $L98793
$L101787:
  000e6	8b ce		 mov	 ecx, esi
  000e8	e8 00 00 00 00	 call	 ?_M_output_error@?$basic_filebuf@DV?$char_traits@D@_STL@@@_STL@@AAEHXZ ; _STL::basic_filebuf<char,_STL::char_traits<char> >::_M_output_error
  000ed	eb e0		 jmp	 SHORT $L101957
?overflow@?$basic_filebuf@DV?$char_traits@D@_STL@@@_STL@@MAEHH@Z ENDP ; _STL::basic_filebuf<char,_STL::char_traits<char> >::overflow
; Function compile flags: /Ogsy
_TEXT	ENDS
;	COMDAT ?_M_output_error@?$basic_filebuf@DV?$char_traits@D@_STL@@@_STL@@AAEHXZ
_TEXT	SEGMENT
?_M_output_error@?$basic_filebuf@DV?$char_traits@D@_STL@@@_STL@@AAEHXZ PROC NEAR ; _STL::basic_filebuf<char,_STL::char_traits<char> >::_M_output_error, COMDAT
; _this$ = ecx

; 591  :   _M_in_output_mode = false;

  00000	33 c0		 xor	 eax, eax
  00002	88 41 68	 mov	 BYTE PTR [ecx+104], al

; 592  :   _M_in_input_mode = false;

  00005	88 41 67	 mov	 BYTE PTR [ecx+103], al

; 593  :   _M_in_error_mode = true;

  00008	c6 41 69 01	 mov	 BYTE PTR [ecx+105], 1

; 594  :   this->setp(0, 0);

  0000c	8b 49 08	 mov	 ecx, DWORD PTR [ecx+8]
  0000f	89 41 08	 mov	 DWORD PTR [ecx+8], eax
  00012	89 01		 mov	 DWORD PTR [ecx], eax
  00014	89 41 04	 mov	 DWORD PTR [ecx+4], eax

; 595  :   return traits_type::eof();

  00017	83 c8 ff	 or	 eax, -1

; 596  : }

  0001a	c3		 ret	 0
?_M_output_error@?$basic_filebuf@DV?$char_traits@D@_STL@@@_STL@@AAEHXZ ENDP ; _STL::basic_filebuf<char,_STL::char_traits<char> >::_M_output_error
_TEXT	ENDS
EXTRN	?_M_page_size@_Filebuf_base@_STL@@1IA:DWORD	; _STL::_Filebuf_base::_M_page_size
; Function compile flags: /Ogsy
;	COMDAT ?_M_switch_to_output_mode@?$basic_filebuf@DV?$char_traits@D@_STL@@@_STL@@AAE_NXZ
_TEXT	SEGMENT
?_M_switch_to_output_mode@?$basic_filebuf@DV?$char_traits@D@_STL@@@_STL@@AAE_NXZ PROC NEAR ; _STL::basic_filebuf<char,_STL::char_traits<char> >::_M_switch_to_output_mode, COMDAT
; _this$ = ecx

; 471  : {

  00000	53		 push	 ebx
  00001	56		 push	 esi
  00002	8b f1		 mov	 esi, ecx

; 472  :   if (this->is_open() && (_M_base.__o_mode() & (int)ios_base::out) &&
; 473  :       _M_in_input_mode == 0 && _M_in_error_mode == 0) {

  00004	33 db		 xor	 ebx, ebx
  00006	38 5e 60	 cmp	 BYTE PTR [esi+96], bl
  00009	74 5d		 je	 SHORT $L99752
  0000b	f6 46 5c 10	 test	 BYTE PTR [esi+92], 16	; 00000010H
  0000f	74 57		 je	 SHORT $L99752
  00011	38 5e 67	 cmp	 BYTE PTR [esi+103], bl
  00014	75 52		 jne	 SHORT $L99752
  00016	38 5e 69	 cmp	 BYTE PTR [esi+105], bl
  00019	75 4d		 jne	 SHORT $L99752

; 474  : 
; 475  :     if (!_M_int_buf && !_M_allocate_buffers())

  0001b	39 5e 6c	 cmp	 DWORD PTR [esi+108], ebx
  0001e	75 20		 jne	 SHORT $L99753
  00020	8b 0d 00 00 00
	00		 mov	 ecx, DWORD PTR ?_M_page_size@_Filebuf_base@_STL@@1IA ; _STL::_Filebuf_base::_M_page_size
  00026	8d 81 ff 0f 00
	00		 lea	 eax, DWORD PTR [ecx+4095]
  0002c	33 d2		 xor	 edx, edx
  0002e	f7 f1		 div	 ecx
  00030	0f af c1	 imul	 eax, ecx
  00033	50		 push	 eax
  00034	53		 push	 ebx
  00035	8b ce		 mov	 ecx, esi
  00037	e8 00 00 00 00	 call	 ?_M_allocate_buffers@?$basic_filebuf@DV?$char_traits@D@_STL@@@_STL@@AAE_NPADH@Z ; _STL::basic_filebuf<char,_STL::char_traits<char> >::_M_allocate_buffers
  0003c	84 c0		 test	 al, al

; 476  :       return false;

  0003e	74 28		 je	 SHORT $L99752
$L99753:

; 477  : 
; 478  :     // In append mode, every write does an implicit seek to the end
; 479  :     // of the file.  Whenever leaving output mode, the end of file
; 480  :     // get put in the initial shift state.
; 481  :     if (_M_base.__o_mode() & ios_base::app)

  00040	f6 46 5c 01	 test	 BYTE PTR [esi+92], 1
  00044	74 06		 je	 SHORT $L99754

; 482  :       _M_state = _State_type();

  00046	89 9e 84 00 00
	00		 mov	 DWORD PTR [esi+132], ebx
$L99754:

; 483  : 
; 484  :     this->setp(_M_int_buf, _M_int_buf_EOS - 1);

  0004c	8b 46 70	 mov	 eax, DWORD PTR [esi+112]
  0004f	8b 56 6c	 mov	 edx, DWORD PTR [esi+108]
  00052	8b 4e 08	 mov	 ecx, DWORD PTR [esi+8]
  00055	48		 dec	 eax
  00056	2b c2		 sub	 eax, edx
  00058	89 41 04	 mov	 DWORD PTR [ecx+4], eax
  0005b	89 51 08	 mov	 DWORD PTR [ecx+8], edx
  0005e	89 11		 mov	 DWORD PTR [ecx], edx

; 485  :     _M_in_output_mode = true;

  00060	c6 46 68 01	 mov	 BYTE PTR [esi+104], 1

; 486  : 
; 487  :     return true;

  00064	b0 01		 mov	 al, 1
  00066	eb 02		 jmp	 SHORT $L99755
$L99752:

; 488  :   }
; 489  :   else
; 490  :     return false;

  00068	32 c0		 xor	 al, al
$L99755:
  0006a	5e		 pop	 esi
  0006b	5b		 pop	 ebx

; 491  : }

  0006c	c3		 ret	 0
?_M_switch_to_output_mode@?$basic_filebuf@DV?$char_traits@D@_STL@@@_STL@@AAE_NXZ ENDP ; _STL::basic_filebuf<char,_STL::char_traits<char> >::_M_switch_to_output_mode
_TEXT	ENDS
PUBLIC	?_M_seek_return@?$basic_filebuf@DV?$char_traits@D@_STL@@@_STL@@AAE?AV?$fpos@H@2@JH@Z ; _STL::basic_filebuf<char,_STL::char_traits<char> >::_M_seek_return
PUBLIC	?_M_seek_init@?$basic_filebuf@DV?$char_traits@D@_STL@@@_STL@@AAE_N_N@Z ; _STL::basic_filebuf<char,_STL::char_traits<char> >::_M_seek_init
PUBLIC	??1?$_Filebuf_Tmp_Buf@D@_STL@@QAE@XZ		; _STL::_Filebuf_Tmp_Buf<char>::~_Filebuf_Tmp_Buf<char>
EXTRN	??_V@YAXPAX@Z:NEAR				; operator delete[]
EXTRN	??_U@YAPAXI@Z:NEAR				; operator new[]
;	COMDAT xdata$x
; File c:\stlport-4.6.1\stlport\stl\char_traits.h
xdata$x	SEGMENT
$T102314 DD	0ffffffffH
	DD	FLAT:$L102041
$T102288 DD	019930520H
	DD	01H
	DD	FLAT:$T102314
	DD	2 DUP(00H)
	DD	2 DUP(00H)
; Function compile flags: /Ogsy
; File c:\stlport-4.6.1\stlport\stl\_fstream.c
xdata$x	ENDS
;	COMDAT ?seekoff@?$basic_filebuf@DV?$char_traits@D@_STL@@@_STL@@MAE?AV?$fpos@H@2@JHH@Z
_TEXT	SEGMENT
___dummy$98878 = -28					; size = 4
___tmp_state$98860 = -24				; size = 4
___state$98858 = -20					; size = 4
___inext$98877 = -16					; size = 4
__$EHRec$ = -12						; size = 12
___$ReturnUdt$ = 8					; size = 4
___buf$98875 = 12					; size = 4
___off$ = 12						; size = 4
tv738 = 16						; size = 4
___cur$98916 = 16					; size = 4
___whence$ = 16						; size = 4
___formal$ = 20						; size = 4
?seekoff@?$basic_filebuf@DV?$char_traits@D@_STL@@@_STL@@MAE?AV?$fpos@H@2@JHH@Z PROC NEAR ; _STL::basic_filebuf<char,_STL::char_traits<char> >::seekoff, COMDAT
; _this$ = ecx

; 289  : {

  00000	b8 00 00 00 00	 mov	 eax, __ehhandler$?seekoff@?$basic_filebuf@DV?$char_traits@D@_STL@@@_STL@@MAE?AV?$fpos@H@2@JHH@Z
  00005	e8 00 00 00 00	 call	 __EH_prolog
  0000a	83 ec 10	 sub	 esp, 16			; 00000010H
  0000d	53		 push	 ebx
  0000e	56		 push	 esi
  0000f	8b f1		 mov	 esi, ecx

; 290  :   if (this->is_open() &&
; 291  :       (__off == 0 || (_M_constant_width && this->_M_base._M_in_binary_mode()))) {

  00011	80 7e 60 00	 cmp	 BYTE PTR [esi+96], 0
  00015	57		 push	 edi
  00016	0f 84 64 02 00
	00		 je	 $L102301
  0001c	8b 5d 0c	 mov	 ebx, DWORD PTR ___off$[ebp]
  0001f	85 db		 test	 ebx, ebx
  00021	8b 7d 10	 mov	 edi, DWORD PTR ___whence$[ebp]
  00024	74 55		 je	 SHORT $L102298
  00026	80 7e 64 00	 cmp	 BYTE PTR [esi+100], 0
  0002a	0f 84 50 02 00
	00		 je	 $L102301
  00030	8b 46 5c	 mov	 eax, DWORD PTR [esi+92]
  00033	c1 e8 02	 shr	 eax, 2
  00036	a8 01		 test	 al, 1
  00038	0f 84 42 02 00
	00		 je	 $L102301
$L102038:

; 292  : 
; 293  :     if (!_M_seek_init(__off != 0 || __whence != ios_base::cur))

  0003e	33 c0		 xor	 eax, eax
  00040	b0 01		 mov	 al, 1
$L102039:
  00042	50		 push	 eax
  00043	8b ce		 mov	 ecx, esi
  00045	e8 00 00 00 00	 call	 ?_M_seek_init@?$basic_filebuf@DV?$char_traits@D@_STL@@@_STL@@AAE_N_N@Z ; _STL::basic_filebuf<char,_STL::char_traits<char> >::_M_seek_init
  0004a	84 c0		 test	 al, al

; 294  :       return pos_type(-1);

  0004c	0f 84 2e 02 00
	00		 je	 $L102301

; 295  : 
; 296  :     // Seek to beginning or end, regardless of whether we're in input mode.
; 297  :     if (__whence == ios_base::beg || __whence == ios_base::end)

  00052	83 ff 01	 cmp	 edi, 1
  00055	0f 84 00 02 00
	00		 je	 $L98831
  0005b	83 ff 04	 cmp	 edi, 4
  0005e	0f 84 f7 01 00
	00		 je	 $L98831

; 300  : 
; 301  :     // Seek relative to current position.  Complicated if we're in input mode.
; 302  :     else if (__whence == ios_base::cur) {

  00064	83 ff 02	 cmp	 edi, 2
  00067	0f 85 13 02 00
	00		 jne	 $L102301

; 303  : 
; 304  :       if (!_M_in_input_mode)

  0006d	80 7e 67 00	 cmp	 BYTE PTR [esi+103], 0
  00071	75 11		 jne	 SHORT $L98835

; 305  :         return _M_seek_return(_M_base._M_seek(_M_width * __off, __whence),
; 306  :                               _State_type());

  00073	6a 00		 push	 0
  00075	57		 push	 edi
  00076	e9 e3 01 00 00	 jmp	 $L102312
$L102298:

; 292  : 
; 293  :     if (!_M_seek_init(__off != 0 || __whence != ios_base::cur))

  0007b	83 ff 02	 cmp	 edi, 2
  0007e	75 be		 jne	 SHORT $L102038
  00080	32 c0		 xor	 al, al
  00082	eb be		 jmp	 SHORT $L102039
$L98835:

; 307  :       else if (_M_mmap_base != 0) {

  00084	8b 86 8c 00 00
	00		 mov	 eax, DWORD PTR [esi+140]
  0008a	85 c0		 test	 eax, eax

; 308  :         // __off is relative to gptr().  We need to do a bit of arithmetic
; 309  :         // to get an offset relative to the external file pointer.
; 310  :         streamoff __adjust = _M_mmap_len - (this->gptr() - (_CharT*) _M_mmap_base);

  0008c	8b 4e 04	 mov	 ecx, DWORD PTR [esi+4]
  0008f	74 18		 je	 SHORT $L98838
  00091	8b be 90 00 00
	00		 mov	 edi, DWORD PTR [esi+144]
  00097	2b 39		 sub	 edi, DWORD PTR [ecx]
  00099	03 f8		 add	 edi, eax
  0009b	eb 5a		 jmp	 SHORT $L102313
$L98850:

; 311  : 
; 312  :         // if __off == 0, we do not need to exit input mode and to shift file pointer
; 313  :         if (__off == 0) {
; 314  :           return pos_type(_M_base._M_seek(0, ios_base::cur) - __adjust);
; 315  :         }
; 316  :         else
; 317  :           return _M_seek_return(_M_base._M_seek(__off - __adjust, ios_base::cur), _State_type());

  0009d	6a 00		 push	 0
  0009f	6a 02		 push	 2
  000a1	2b df		 sub	 ebx, edi
  000a3	53		 push	 ebx
  000a4	e9 c2 01 00 00	 jmp	 $L102307
$L98838:

; 318  :       }
; 319  :       else if (_M_constant_width) { // Get or set the position.  
; 320  : 
; 321  :         streamoff __iadj = _M_width * (this->gptr() - this->eback());

  000a9	8b 01		 mov	 eax, DWORD PTR [ecx]
  000ab	2b 41 08	 sub	 eax, DWORD PTR [ecx+8]
  000ae	80 7e 64 00	 cmp	 BYTE PTR [esi+100], 0

; 322  :         
; 323  :         // Compensate for offset relative to gptr versus offset relative
; 324  :         // to external pointer.  For a text-oriented stream, where the 
; 325  :         // compensation is more than just pointer arithmetic, we may get
; 326  :         // but not set the current position.
; 327  :         
; 328  :         if (__iadj <= _M_ext_buf_end - _M_ext_buf) {

  000b2	8b 56 74	 mov	 edx, DWORD PTR [esi+116]
  000b5	74 5d		 je	 SHORT $L98846
  000b7	0f af 86 a4 00
	00 00		 imul	 eax, DWORD PTR [esi+164]
  000be	8b 8e 80 00 00
	00		 mov	 ecx, DWORD PTR [esi+128]
  000c4	8b f9		 mov	 edi, ecx
  000c6	2b fa		 sub	 edi, edx
  000c8	3b c7		 cmp	 eax, edi
  000ca	0f 8f b0 01 00
	00		 jg	 $L102301

; 329  :           
; 330  :           streamoff __eadj =  _M_base._M_get_offset(_M_ext_buf + __iadj, _M_ext_buf_end);

  000d0	03 c2		 add	 eax, edx
  000d2	f6 46 5c 04	 test	 BYTE PTR [esi+92], 4
  000d6	74 06		 je	 SHORT $L102105
  000d8	2b c8		 sub	 ecx, eax
  000da	8b f9		 mov	 edi, ecx
  000dc	eb 19		 jmp	 SHORT $L102313
$L102105:
  000de	33 d2		 xor	 edx, edx
  000e0	3b c1		 cmp	 eax, ecx
  000e2	8b f8		 mov	 edi, eax
  000e4	74 0b		 je	 SHORT $L102111
$L102109:
  000e6	80 3f 0a	 cmp	 BYTE PTR [edi], 10	; 0000000aH
  000e9	75 01		 jne	 SHORT $L102110
  000eb	42		 inc	 edx
$L102110:
  000ec	47		 inc	 edi
  000ed	3b f9		 cmp	 edi, ecx
  000ef	75 f5		 jne	 SHORT $L102109
$L102111:
  000f1	2b d0		 sub	 edx, eax
  000f3	03 d1		 add	 edx, ecx
  000f5	8b fa		 mov	 edi, edx
$L102313:

; 331  : 
; 332  :           if (__off == 0) {

  000f7	85 db		 test	 ebx, ebx

; 333  :             return pos_type(_M_base._M_seek(0, ios_base::cur) - __eadj);

  000f9	8d 4e 54	 lea	 ecx, DWORD PTR [esi+84]
  000fc	75 9f		 jne	 SHORT $L98850
  000fe	6a 02		 push	 2
  00100	53		 push	 ebx
  00101	e8 00 00 00 00	 call	 ?_M_seek@_Filebuf_base@_STL@@QAEJJH@Z ; _STL::_Filebuf_base::_M_seek
  00106	8b c8		 mov	 ecx, eax
  00108	8b 45 08	 mov	 eax, DWORD PTR ___$ReturnUdt$[ebp]
  0010b	2b cf		 sub	 ecx, edi
  0010d	89 08		 mov	 DWORD PTR [eax], ecx
  0010f	e9 72 01 00 00	 jmp	 $L102306
$L98846:

; 334  :           }  else {
; 335  :             return _M_seek_return(_M_base._M_seek(__off - __eadj, ios_base::cur), _State_type());
; 336  :           }
; 337  :         }
; 338  :         else
; 339  :           return pos_type(-1);
; 340  :       }
; 341  :       else {                    // Get the position.  Encoding is var width.
; 342  :         // Get position in internal buffer.
; 343  :         ptrdiff_t __ipos = this->gptr() - this->eback();
; 344  :         
; 345  :         // Get corresponding position in external buffer.
; 346  :         _State_type __state = _M_state;
; 347  :         int __epos = _M_codecvt->length(__state, _M_ext_buf, _M_ext_buf_end,
; 348  :                                         __ipos);

  00114	8b 8e a0 00 00
	00		 mov	 ecx, DWORD PTR [esi+160]
  0011a	8b f8		 mov	 edi, eax
  0011c	8b 86 84 00 00
	00		 mov	 eax, DWORD PTR [esi+132]
  00122	89 45 ec	 mov	 DWORD PTR ___state$98858[ebp], eax
  00125	8b 86 80 00 00
	00		 mov	 eax, DWORD PTR [esi+128]
  0012b	8b 19		 mov	 ebx, DWORD PTR [ecx]
  0012d	57		 push	 edi
  0012e	50		 push	 eax
  0012f	52		 push	 edx
  00130	8d 45 ec	 lea	 eax, DWORD PTR ___state$98858[ebp]
  00133	50		 push	 eax
  00134	ff 53 18	 call	 DWORD PTR [ebx+24]
  00137	8b d8		 mov	 ebx, eax

; 349  : 
; 350  :         // Sanity check (expensive): make sure __epos is the right answer.
; 351  :         _State_type __tmp_state = _M_state;

  00139	8b 86 84 00 00
	00		 mov	 eax, DWORD PTR [esi+132]

; 352  :         _Filebuf_Tmp_Buf<_CharT> __buf(__ipos);

  0013f	57		 push	 edi
  00140	89 45 e8	 mov	 DWORD PTR ___tmp_state$98860[ebp], eax
  00143	e8 00 00 00 00	 call	 ??_U@YAPAXI@Z		; operator new[]
  00148	8b d0		 mov	 edx, eax
  0014a	59		 pop	 ecx
  0014b	89 55 0c	 mov	 DWORD PTR ___buf$98875[ebp], edx

; 353  :         _CharT* __ibegin = __buf._M_ptr;
; 354  :         _CharT* __inext  = __ibegin;
; 355  : 
; 356  :         const char* __dummy;
; 357  :         typename _Codecvt::result __status
; 358  :           = _M_codecvt->in(__tmp_state,
; 359  :                            _M_ext_buf, _M_ext_buf + __epos, __dummy,
; 360  :                            __ibegin, __ibegin + __ipos, __inext);

  0014e	8b 46 74	 mov	 eax, DWORD PTR [esi+116]
  00151	8b 8e a0 00 00
	00		 mov	 ecx, DWORD PTR [esi+160]
  00157	83 65 fc 00	 and	 DWORD PTR __$EHRec$[ebp+8], 0
  0015b	89 55 f0	 mov	 DWORD PTR ___inext$98877[ebp], edx
  0015e	03 d7		 add	 edx, edi
  00160	8b 39		 mov	 edi, DWORD PTR [ecx]
  00162	89 55 10	 mov	 DWORD PTR tv738[ebp], edx
  00165	8d 55 f0	 lea	 edx, DWORD PTR ___inext$98877[ebp]
  00168	52		 push	 edx
  00169	ff 75 10	 push	 DWORD PTR tv738[ebp]
  0016c	8d 55 e4	 lea	 edx, DWORD PTR ___dummy$98878[ebp]
  0016f	ff 75 0c	 push	 DWORD PTR ___buf$98875[ebp]
  00172	52		 push	 edx
  00173	8d 14 18	 lea	 edx, DWORD PTR [eax+ebx]
  00176	52		 push	 edx
  00177	50		 push	 eax
  00178	8d 45 e8	 lea	 eax, DWORD PTR ___tmp_state$98860[ebp]
  0017b	50		 push	 eax
  0017c	ff 57 08	 call	 DWORD PTR [edi+8]

; 361  :         if (__status != _Codecvt::error &&
; 362  :             (__status == _Codecvt::noconv ||
; 363  :              (__inext == __ibegin + __ipos &&
; 364  :               equal(this->gptr(), this->eback(), __ibegin,
; 365  :                     _Eq_traits<traits_type>())))) {

  0017f	83 f8 02	 cmp	 eax, 2
  00182	0f 84 bc 00 00
	00		 je	 $L102300
  00188	83 f8 03	 cmp	 eax, 3
  0018b	74 2d		 je	 SHORT $L102299
  0018d	8b 45 10	 mov	 eax, DWORD PTR tv738[ebp]
  00190	39 45 f0	 cmp	 DWORD PTR ___inext$98877[ebp], eax
  00193	0f 85 ab 00 00
	00		 jne	 $L102300
  00199	8b 46 04	 mov	 eax, DWORD PTR [esi+4]
  0019c	8b 78 08	 mov	 edi, DWORD PTR [eax+8]
  0019f	8b 00		 mov	 eax, DWORD PTR [eax]
  001a1	3b c7		 cmp	 eax, edi
  001a3	74 15		 je	 SHORT $L102299
  001a5	8b 4d 0c	 mov	 ecx, DWORD PTR ___buf$98875[ebp]
  001a8	2b c8		 sub	 ecx, eax
$L102188:
  001aa	8a 10		 mov	 dl, BYTE PTR [eax]
  001ac	3a 14 01	 cmp	 dl, BYTE PTR [ecx+eax]
  001af	0f 85 8f 00 00
	00		 jne	 $L102300
  001b5	40		 inc	 eax
  001b6	3b c7		 cmp	 eax, edi
  001b8	75 f0		 jne	 SHORT $L102188
$L102299:

; 366  :           // Get the current position (at the end of the external buffer),
; 367  :           // then adjust it.  Again, it might be a text-oriented stream.
; 368  :           streamoff __cur = _M_base._M_seek(0, ios_base::cur);

  001ba	6a 02		 push	 2
  001bc	6a 00		 push	 0
  001be	8d 4e 54	 lea	 ecx, DWORD PTR [esi+84]
  001c1	e8 00 00 00 00	 call	 ?_M_seek@_Filebuf_base@_STL@@QAEJJH@Z ; _STL::_Filebuf_base::_M_seek

; 369  :           streamoff __adj =
; 370  :             _M_base._M_get_offset(_M_ext_buf, _M_ext_buf + __epos) -
; 371  :             _M_base._M_get_offset(_M_ext_buf, _M_ext_buf_end);

  001c6	8b 4e 74	 mov	 ecx, DWORD PTR [esi+116]
  001c9	8b 7e 5c	 mov	 edi, DWORD PTR [esi+92]
  001cc	03 d9		 add	 ebx, ecx
  001ce	83 e7 04	 and	 edi, 4
  001d1	89 45 10	 mov	 DWORD PTR ___cur$98916[ebp], eax
  001d4	74 04		 je	 SHORT $L102217
  001d6	2b d9		 sub	 ebx, ecx
  001d8	eb 19		 jmp	 SHORT $L102218
$L102217:
  001da	33 d2		 xor	 edx, edx
  001dc	3b cb		 cmp	 ecx, ebx
  001de	8b c1		 mov	 eax, ecx
  001e0	74 0b		 je	 SHORT $L102223
$L102221:
  001e2	80 38 0a	 cmp	 BYTE PTR [eax], 10	; 0000000aH
  001e5	75 01		 jne	 SHORT $L102222
  001e7	42		 inc	 edx
$L102222:
  001e8	40		 inc	 eax
  001e9	3b c3		 cmp	 eax, ebx
  001eb	75 f5		 jne	 SHORT $L102221
$L102223:
  001ed	2b d1		 sub	 edx, ecx
  001ef	03 d3		 add	 edx, ebx
  001f1	8b da		 mov	 ebx, edx
$L102218:
  001f3	85 ff		 test	 edi, edi
  001f5	8b 8e 80 00 00
	00		 mov	 ecx, DWORD PTR [esi+128]
  001fb	8b 46 74	 mov	 eax, DWORD PTR [esi+116]
  001fe	74 04		 je	 SHORT $L102244
  00200	2b c8		 sub	 ecx, eax
  00202	eb 19		 jmp	 SHORT $L102245
$L102244:
  00204	33 d2		 xor	 edx, edx
  00206	3b c1		 cmp	 eax, ecx
  00208	8b f8		 mov	 edi, eax
  0020a	74 0b		 je	 SHORT $L102250
$L102248:
  0020c	80 3f 0a	 cmp	 BYTE PTR [edi], 10	; 0000000aH
  0020f	75 01		 jne	 SHORT $L102249
  00211	42		 inc	 edx
$L102249:
  00212	47		 inc	 edi
  00213	3b f9		 cmp	 edi, ecx
  00215	75 f5		 jne	 SHORT $L102248
$L102250:
  00217	2b d0		 sub	 edx, eax
  00219	03 d1		 add	 edx, ecx
  0021b	8b ca		 mov	 ecx, edx
$L102245:

; 372  :           if (__cur != -1 && __cur + __adj >= 0)

  0021d	8b 45 10	 mov	 eax, DWORD PTR ___cur$98916[ebp]
  00220	2b d9		 sub	 ebx, ecx
  00222	83 f8 ff	 cmp	 eax, -1
  00225	74 1d		 je	 SHORT $L102300
  00227	03 c3		 add	 eax, ebx
  00229	78 19		 js	 SHORT $L102300

; 373  :             return _M_seek_return(__cur + __adj, __state);

  0022b	ff 75 ec	 push	 DWORD PTR ___state$98858[ebp]
  0022e	8b ce		 mov	 ecx, esi
  00230	50		 push	 eax
  00231	ff 75 08	 push	 DWORD PTR ___$ReturnUdt$[ebp]
  00234	e8 00 00 00 00	 call	 ?_M_seek_return@?$basic_filebuf@DV?$char_traits@D@_STL@@@_STL@@AAE?AV?$fpos@H@2@JH@Z ; _STL::basic_filebuf<char,_STL::char_traits<char> >::_M_seek_return
  00239	ff 75 0c	 push	 DWORD PTR ___buf$98875[ebp]
  0023c	e8 00 00 00 00	 call	 ??_V@YAXPAX@Z		; operator delete[]
  00241	59		 pop	 ecx
  00242	eb 37		 jmp	 SHORT $L102311
$L102300:

; 374  :           else
; 375  :             return pos_type(-1);
; 376  :         }
; 377  :         else                    // We failed the sanity check.
; 378  :           return pos_type(-1);

  00244	8b 75 08	 mov	 esi, DWORD PTR ___$ReturnUdt$[ebp]
  00247	ff 75 0c	 push	 DWORD PTR ___buf$98875[ebp]
  0024a	83 0e ff	 or	 DWORD PTR [esi], -1
  0024d	83 66 04 00	 and	 DWORD PTR [esi+4], 0
  00251	e8 00 00 00 00	 call	 ??_V@YAXPAX@Z		; operator delete[]
  00256	59		 pop	 ecx
  00257	8b c6		 mov	 eax, esi

; 379  :       }
; 380  :     }
; 381  :     else                        // Unrecognized value for __whence.
; 382  :       return pos_type(-1);

  00259	eb 2f		 jmp	 SHORT $L98926
$L98831:

; 298  :       return _M_seek_return(_M_base._M_seek(_M_width * __off, __whence),
; 299  :                             _State_type());

  0025b	6a 00		 push	 0
  0025d	57		 push	 edi
$L102312:
  0025e	8b 86 a4 00 00
	00		 mov	 eax, DWORD PTR [esi+164]
  00264	0f af c3	 imul	 eax, ebx
  00267	50		 push	 eax
  00268	8d 4e 54	 lea	 ecx, DWORD PTR [esi+84]
$L102307:
  0026b	e8 00 00 00 00	 call	 ?_M_seek@_Filebuf_base@_STL@@QAEJJH@Z ; _STL::_Filebuf_base::_M_seek
  00270	50		 push	 eax
  00271	ff 75 08	 push	 DWORD PTR ___$ReturnUdt$[ebp]
  00274	8b ce		 mov	 ecx, esi
  00276	e8 00 00 00 00	 call	 ?_M_seek_return@?$basic_filebuf@DV?$char_traits@D@_STL@@@_STL@@AAE?AV?$fpos@H@2@JH@Z ; _STL::basic_filebuf<char,_STL::char_traits<char> >::_M_seek_return
$L102311:
  0027b	8b 45 08	 mov	 eax, DWORD PTR ___$ReturnUdt$[ebp]
  0027e	eb 0a		 jmp	 SHORT $L98926
$L102301:

; 383  :   }
; 384  :   else
; 385  :     return pos_type(-1);

  00280	8b 45 08	 mov	 eax, DWORD PTR ___$ReturnUdt$[ebp]
  00283	83 08 ff	 or	 DWORD PTR [eax], -1
$L102306:
  00286	83 60 04 00	 and	 DWORD PTR [eax+4], 0
$L98926:

; 386  : }

  0028a	8b 4d f4	 mov	 ecx, DWORD PTR __$EHRec$[ebp]
  0028d	5f		 pop	 edi
  0028e	5e		 pop	 esi
  0028f	5b		 pop	 ebx
  00290	64 89 0d 00 00
	00 00		 mov	 DWORD PTR fs:__except_list, ecx
  00297	c9		 leave
  00298	c2 10 00	 ret	 16			; 00000010H
_TEXT	ENDS
;	COMDAT text$x
text$x	SEGMENT
$L102041:
  00000	8d 4d 0c	 lea	 ecx, DWORD PTR ___buf$98875[ebp]
  00003	e9 00 00 00 00	 jmp	 ??1?$_Filebuf_Tmp_Buf@D@_STL@@QAE@XZ ; _STL::_Filebuf_Tmp_Buf<char>::~_Filebuf_Tmp_Buf<char>
__ehhandler$?seekoff@?$basic_filebuf@DV?$char_traits@D@_STL@@@_STL@@MAE?AV?$fpos@H@2@JHH@Z:
  00008	b8 00 00 00 00	 mov	 eax, OFFSET FLAT:$T102288
  0000d	e9 00 00 00 00	 jmp	 ___CxxFrameHandler
text$x	ENDS
?seekoff@?$basic_filebuf@DV?$char_traits@D@_STL@@@_STL@@MAE?AV?$fpos@H@2@JHH@Z ENDP ; _STL::basic_filebuf<char,_STL::char_traits<char> >::seekoff
; Function compile flags: /Ogsy
; File c:\stlport-4.6.1\stlport\stl\_fstream.h
;	COMDAT ??1?$_Filebuf_Tmp_Buf@D@_STL@@QAE@XZ
_TEXT	SEGMENT
??1?$_Filebuf_Tmp_Buf@D@_STL@@QAE@XZ PROC NEAR		; _STL::_Filebuf_Tmp_Buf<char>::~_Filebuf_Tmp_Buf<char>, COMDAT
; _this$ = ecx

; 374  :   ~_Filebuf_Tmp_Buf() { delete[] _M_ptr; }

  00000	ff 31		 push	 DWORD PTR [ecx]
  00002	e8 00 00 00 00	 call	 ??_V@YAXPAX@Z		; operator delete[]
  00007	59		 pop	 ecx
  00008	c3		 ret	 0
??1?$_Filebuf_Tmp_Buf@D@_STL@@QAE@XZ ENDP		; _STL::_Filebuf_Tmp_Buf<char>::~_Filebuf_Tmp_Buf<char>
; Function compile flags: /Ogsy
_TEXT	ENDS
;	COMDAT ?_M_seek_return@?$basic_filebuf@DV?$char_traits@D@_STL@@@_STL@@AAE?AV?$fpos@H@2@JH@Z
_TEXT	SEGMENT
___$ReturnUdt$ = 8					; size = 4
___off$ = 12						; size = 4
___state$ = 16						; size = 4
?_M_seek_return@?$basic_filebuf@DV?$char_traits@D@_STL@@@_STL@@AAE?AV?$fpos@H@2@JH@Z PROC NEAR ; _STL::basic_filebuf<char,_STL::char_traits<char> >::_M_seek_return, COMDAT
; _this$ = ecx

; 265  :   pos_type _M_seek_return(off_type __off, _State_type __state) {

  00000	56		 push	 esi
  00001	57		 push	 edi

; 266  :     if (__off != -1) {

  00002	8b 7c 24 10	 mov	 edi, DWORD PTR ___off$[esp+4]
  00006	83 ff ff	 cmp	 edi, -1
  00009	8b f1		 mov	 esi, ecx
  0000b	74 30		 je	 SHORT $L102342
  0000d	53		 push	 ebx

; 267  :       if (_M_in_input_mode)

  0000e	33 db		 xor	 ebx, ebx
  00010	38 5e 67	 cmp	 BYTE PTR [esi+103], bl
  00013	74 05		 je	 SHORT $L99613

; 268  :         _M_exit_input_mode();

  00015	e8 00 00 00 00	 call	 ?_M_exit_input_mode@?$basic_filebuf@DV?$char_traits@D@_STL@@@_STL@@AAEXXZ ; _STL::basic_filebuf<char,_STL::char_traits<char> >::_M_exit_input_mode
$L99613:

; 269  :       _M_in_input_mode = false;
; 270  :       _M_in_output_mode = false;
; 271  :       _M_in_putback_mode = false;
; 272  :       _M_in_error_mode = false;
; 273  :       this->setg(0, 0, 0);

  0001a	8b 46 04	 mov	 eax, DWORD PTR [esi+4]
  0001d	88 5e 67	 mov	 BYTE PTR [esi+103], bl
  00020	88 5e 68	 mov	 BYTE PTR [esi+104], bl
  00023	88 5e 6a	 mov	 BYTE PTR [esi+106], bl
  00026	88 5e 69	 mov	 BYTE PTR [esi+105], bl
  00029	89 58 08	 mov	 DWORD PTR [eax+8], ebx
  0002c	89 18		 mov	 DWORD PTR [eax], ebx
  0002e	89 58 04	 mov	 DWORD PTR [eax+4], ebx

; 274  :       this->setp(0, 0);

  00031	8b 76 08	 mov	 esi, DWORD PTR [esi+8]
  00034	89 5e 08	 mov	 DWORD PTR [esi+8], ebx
  00037	89 1e		 mov	 DWORD PTR [esi], ebx
  00039	89 5e 04	 mov	 DWORD PTR [esi+4], ebx
  0003c	5b		 pop	 ebx
$L102342:

; 275  :     }
; 276  :     
; 277  :     pos_type __result(__off);
; 278  :     __result.state(__state);
; 279  :     return __result;

  0003d	8b 44 24 0c	 mov	 eax, DWORD PTR ___$ReturnUdt$[esp+4]
  00041	8b 4c 24 14	 mov	 ecx, DWORD PTR ___state$[esp+4]
  00045	89 38		 mov	 DWORD PTR [eax], edi
  00047	5f		 pop	 edi
  00048	89 48 04	 mov	 DWORD PTR [eax+4], ecx
  0004b	5e		 pop	 esi

; 280  :   }

  0004c	c2 0c 00	 ret	 12			; 0000000cH
?_M_seek_return@?$basic_filebuf@DV?$char_traits@D@_STL@@@_STL@@AAE?AV?$fpos@H@2@JH@Z ENDP ; _STL::basic_filebuf<char,_STL::char_traits<char> >::_M_seek_return
_TEXT	ENDS
PUBLIC	?_M_exit_putback_mode@?$basic_filebuf@DV?$char_traits@D@_STL@@@_STL@@AAEXXZ ; _STL::basic_filebuf<char,_STL::char_traits<char> >::_M_exit_putback_mode
; Function compile flags: /Ogsy
; File c:\stlport-4.6.1\stlport\stl\_fstream.c
;	COMDAT ?_M_seek_init@?$basic_filebuf@DV?$char_traits@D@_STL@@@_STL@@AAE_N_N@Z
_TEXT	SEGMENT
___do_unshift$ = 8					; size = 1
?_M_seek_init@?$basic_filebuf@DV?$char_traits@D@_STL@@@_STL@@AAE_N_N@Z PROC NEAR ; _STL::basic_filebuf<char,_STL::char_traits<char> >::_M_seek_init, COMDAT
; _this$ = ecx

; 699  : bool basic_filebuf<_CharT, _Traits>::_M_seek_init(bool __do_unshift) {

  00000	53		 push	 ebx
  00001	56		 push	 esi
  00002	8b f1		 mov	 esi, ecx

; 700  :   // If we're in error mode, leave it.
; 701  :    _M_in_error_mode = false;

  00004	33 db		 xor	 ebx, ebx

; 702  :    
; 703  :   // Flush the output buffer if we're in output mode, and (conditionally)
; 704  :   // emit an unshift sequence.
; 705  :   if (_M_in_output_mode) {

  00006	38 5e 68	 cmp	 BYTE PTR [esi+104], bl
  00009	88 5e 69	 mov	 BYTE PTR [esi+105], bl
  0000c	74 3e		 je	 SHORT $L99802

; 706  :     bool __ok = !traits_type::eq_int_type(this->overflow(traits_type::eof()),
; 707  :                                           traits_type::eof());

  0000e	8b 06		 mov	 eax, DWORD PTR [esi]
  00010	6a ff		 push	 -1
  00012	ff 50 30	 call	 DWORD PTR [eax+48]
  00015	83 f8 ff	 cmp	 eax, -1
  00018	0f 95 c0	 setne	 al

; 708  :     if (__do_unshift)

  0001b	38 5c 24 0c	 cmp	 BYTE PTR ___do_unshift$[esp+4], bl
  0001f	74 11		 je	 SHORT $L102360

; 709  :       __ok = __ok && this->_M_unshift();

  00021	3a c3		 cmp	 al, bl
  00023	74 0b		 je	 SHORT $L102359
  00025	8b ce		 mov	 ecx, esi
  00027	e8 00 00 00 00	 call	 ?_M_unshift@?$basic_filebuf@DV?$char_traits@D@_STL@@@_STL@@AAE_NXZ ; _STL::basic_filebuf<char,_STL::char_traits<char> >::_M_unshift
  0002c	84 c0		 test	 al, al
  0002e	75 1c		 jne	 SHORT $L99802
$L102359:
  00030	32 c0		 xor	 al, al
$L102360:

; 710  :     if (!__ok) {

  00032	3a c3		 cmp	 al, bl
  00034	75 16		 jne	 SHORT $L99802

; 711  :       _M_in_output_mode = false;

  00036	88 5e 68	 mov	 BYTE PTR [esi+104], bl

; 712  :       _M_in_error_mode = true;

  00039	c6 46 69 01	 mov	 BYTE PTR [esi+105], 1

; 713  :       this->setp(0, 0);

  0003d	8b 76 08	 mov	 esi, DWORD PTR [esi+8]
  00040	89 5e 08	 mov	 DWORD PTR [esi+8], ebx
  00043	89 1e		 mov	 DWORD PTR [esi], ebx
  00045	89 5e 04	 mov	 DWORD PTR [esi+4], ebx

; 714  :       return false;

  00048	32 c0		 xor	 al, al
  0004a	eb 13		 jmp	 SHORT $L99796
$L99802:

; 715  :     }
; 716  :   }
; 717  : 
; 718  :   // Discard putback characters, if any.
; 719  :   if (_M_in_input_mode && _M_in_putback_mode)

  0004c	38 5e 67	 cmp	 BYTE PTR [esi+103], bl
  0004f	74 0c		 je	 SHORT $L99803
  00051	38 5e 6a	 cmp	 BYTE PTR [esi+106], bl
  00054	74 07		 je	 SHORT $L99803

; 720  :     _M_exit_putback_mode();

  00056	8b ce		 mov	 ecx, esi
  00058	e8 00 00 00 00	 call	 ?_M_exit_putback_mode@?$basic_filebuf@DV?$char_traits@D@_STL@@@_STL@@AAEXXZ ; _STL::basic_filebuf<char,_STL::char_traits<char> >::_M_exit_putback_mode
$L99803:

; 721  : 
; 722  :   return true;

  0005d	b0 01		 mov	 al, 1
$L99796:
  0005f	5e		 pop	 esi
  00060	5b		 pop	 ebx

; 723  : }

  00061	c2 04 00	 ret	 4
?_M_seek_init@?$basic_filebuf@DV?$char_traits@D@_STL@@@_STL@@AAE_N_N@Z ENDP ; _STL::basic_filebuf<char,_STL::char_traits<char> >::_M_seek_init
; Function compile flags: /Ogsy
; File c:\stlport-4.6.1\stlport\stl\_fstream.h
_TEXT	ENDS
;	COMDAT ?_M_exit_putback_mode@?$basic_filebuf@DV?$char_traits@D@_STL@@@_STL@@AAEXXZ
_TEXT	SEGMENT
?_M_exit_putback_mode@?$basic_filebuf@DV?$char_traits@D@_STL@@@_STL@@AAEXXZ PROC NEAR ; _STL::basic_filebuf<char,_STL::char_traits<char> >::_M_exit_putback_mode, COMDAT
; _this$ = ecx

; 245  :     this->setg(_M_saved_eback, _M_saved_gptr, _M_saved_egptr);

  00000	8b 81 9c 00 00
	00		 mov	 eax, DWORD PTR [ecx+156]
  00006	8b 51 04	 mov	 edx, DWORD PTR [ecx+4]
  00009	56		 push	 esi
  0000a	8b b1 98 00 00
	00		 mov	 esi, DWORD PTR [ecx+152]
  00010	57		 push	 edi
  00011	8b b9 94 00 00
	00		 mov	 edi, DWORD PTR [ecx+148]
  00017	89 7a 08	 mov	 DWORD PTR [edx+8], edi
  0001a	2b c6		 sub	 eax, esi
  0001c	89 32		 mov	 DWORD PTR [edx], esi
  0001e	5f		 pop	 edi
  0001f	89 42 04	 mov	 DWORD PTR [edx+4], eax

; 246  :     _M_in_putback_mode = false;

  00022	c6 41 6a 00	 mov	 BYTE PTR [ecx+106], 0
  00026	5e		 pop	 esi

; 247  :   }

  00027	c3		 ret	 0
?_M_exit_putback_mode@?$basic_filebuf@DV?$char_traits@D@_STL@@@_STL@@AAEXXZ ENDP ; _STL::basic_filebuf<char,_STL::char_traits<char> >::_M_exit_putback_mode
; Function compile flags: /Ogsy
; File c:\stlport-4.6.1\stlport\stl\_fstream.c
_TEXT	ENDS
;	COMDAT ?seekpos@?$basic_filebuf@DV?$char_traits@D@_STL@@@_STL@@MAE?AV?$fpos@H@2@V32@H@Z
_TEXT	SEGMENT
___$ReturnUdt$ = 8					; size = 4
___pos$ = 12						; size = 8
___formal$ = 20						; size = 4
?seekpos@?$basic_filebuf@DV?$char_traits@D@_STL@@@_STL@@MAE?AV?$fpos@H@2@V32@H@Z PROC NEAR ; _STL::basic_filebuf<char,_STL::char_traits<char> >::seekpos, COMDAT
; _this$ = ecx

; 393  : {

  00000	55		 push	 ebp
  00001	8b ec		 mov	 ebp, esp
  00003	56		 push	 esi
  00004	8b f1		 mov	 esi, ecx

; 394  :   if (this->is_open()) {

  00006	80 7e 60 00	 cmp	 BYTE PTR [esi+96], 0
  0000a	74 3f		 je	 SHORT $L98936

; 395  :     if (!_M_seek_init(true))

  0000c	6a 01		 push	 1
  0000e	e8 00 00 00 00	 call	 ?_M_seek_init@?$basic_filebuf@DV?$char_traits@D@_STL@@@_STL@@AAE_N_N@Z ; _STL::basic_filebuf<char,_STL::char_traits<char> >::_M_seek_init
  00013	84 c0		 test	 al, al

; 396  :       return pos_type(-1);

  00015	74 34		 je	 SHORT $L98936

; 397  : 
; 398  :     streamoff __off = off_type(__pos);
; 399  :     if (__off != -1 && _M_base._M_seek(__off, ios_base::beg) != -1) {

  00017	83 7d 0c ff	 cmp	 DWORD PTR ___pos$[ebp], -1
  0001b	74 2e		 je	 SHORT $L98936
  0001d	6a 01		 push	 1
  0001f	ff 75 0c	 push	 DWORD PTR ___pos$[ebp]
  00022	8d 4e 54	 lea	 ecx, DWORD PTR [esi+84]
  00025	e8 00 00 00 00	 call	 ?_M_seek@_Filebuf_base@_STL@@QAEJJH@Z ; _STL::_Filebuf_base::_M_seek
  0002a	83 f8 ff	 cmp	 eax, -1
  0002d	74 1c		 je	 SHORT $L98936

; 400  :       _M_state = __pos.state();

  0002f	8b 45 10	 mov	 eax, DWORD PTR ___pos$[ebp+4]

; 401  :       return _M_seek_return(__off, __pos.state());

  00032	50		 push	 eax
  00033	ff 75 0c	 push	 DWORD PTR ___pos$[ebp]
  00036	8b ce		 mov	 ecx, esi
  00038	ff 75 08	 push	 DWORD PTR ___$ReturnUdt$[ebp]
  0003b	89 86 84 00 00
	00		 mov	 DWORD PTR [esi+132], eax
  00041	e8 00 00 00 00	 call	 ?_M_seek_return@?$basic_filebuf@DV?$char_traits@D@_STL@@@_STL@@AAE?AV?$fpos@H@2@JH@Z ; _STL::basic_filebuf<char,_STL::char_traits<char> >::_M_seek_return
  00046	8b 45 08	 mov	 eax, DWORD PTR ___$ReturnUdt$[ebp]
  00049	eb 0a		 jmp	 SHORT $L98944
$L98936:

; 402  :     }
; 403  :     else
; 404  :       return pos_type(-1);
; 405  :   }
; 406  :   else
; 407  :     return pos_type(-1);

  0004b	8b 45 08	 mov	 eax, DWORD PTR ___$ReturnUdt$[ebp]
  0004e	83 08 ff	 or	 DWORD PTR [eax], -1
  00051	83 60 04 00	 and	 DWORD PTR [eax+4], 0
$L98944:
  00055	5e		 pop	 esi

; 408  : }

  00056	5d		 pop	 ebp
  00057	c2 10 00	 ret	 16			; 00000010H
?seekpos@?$basic_filebuf@DV?$char_traits@D@_STL@@@_STL@@MAE?AV?$fpos@H@2@V32@H@Z ENDP ; _STL::basic_filebuf<char,_STL::char_traits<char> >::seekpos
; Function compile flags: /Ogsy
_TEXT	ENDS
;	COMDAT ??_G?$basic_filebuf@DV?$char_traits@D@_STL@@@_STL@@UAEPAXI@Z
_TEXT	SEGMENT
___flags$ = 8						; size = 4
??_G?$basic_filebuf@DV?$char_traits@D@_STL@@@_STL@@UAEPAXI@Z PROC NEAR ; _STL::basic_filebuf<char,_STL::char_traits<char> >::`scalar deleting destructor', COMDAT
; _this$ = ecx
  00000	56		 push	 esi
  00001	8b f1		 mov	 esi, ecx
  00003	e8 00 00 00 00	 call	 ??1?$basic_filebuf@DV?$char_traits@D@_STL@@@_STL@@UAE@XZ ; _STL::basic_filebuf<char,_STL::char_traits<char> >::~basic_filebuf<char,_STL::char_traits<char> >
  00008	f6 44 24 08 01	 test	 BYTE PTR ___flags$[esp], 1
  0000d	74 07		 je	 SHORT $L99020
  0000f	56		 push	 esi
  00010	e8 00 00 00 00	 call	 ??3@YAXPAX@Z		; operator delete
  00015	59		 pop	 ecx
$L99020:
  00016	8b c6		 mov	 eax, esi
  00018	5e		 pop	 esi
  00019	c2 04 00	 ret	 4
??_G?$basic_filebuf@DV?$char_traits@D@_STL@@@_STL@@UAEPAXI@Z ENDP ; _STL::basic_filebuf<char,_STL::char_traits<char> >::`scalar deleting destructor'
_TEXT	ENDS
PUBLIC	??1?$basic_ofstream@DV?$char_traits@D@_STL@@@_STL@@UAE@XZ ; _STL::basic_ofstream<char,_STL::char_traits<char> >::~basic_ofstream<char,_STL::char_traits<char> >
PUBLIC	??_7?$basic_ofstream@DV?$char_traits@D@_STL@@@_STL@@6B@ ; _STL::basic_ofstream<char,_STL::char_traits<char> >::`vftable'
PUBLIC	??_G?$basic_ofstream@DV?$char_traits@D@_STL@@@_STL@@UAEPAXI@Z ; _STL::basic_ofstream<char,_STL::char_traits<char> >::`scalar deleting destructor'
PUBLIC	??_R4?$basic_ofstream@DV?$char_traits@D@_STL@@@_STL@@6B@ ; _STL::basic_ofstream<char,_STL::char_traits<char> >::`RTTI Complete Object Locator'
PUBLIC	??_R0?AV?$basic_ofstream@DV?$char_traits@D@_STL@@@_STL@@@8 ; _STL::basic_ofstream<char,_STL::char_traits<char> > `RTTI Type Descriptor'
PUBLIC	??_R3?$basic_ofstream@DV?$char_traits@D@_STL@@@_STL@@8 ; _STL::basic_ofstream<char,_STL::char_traits<char> >::`RTTI Class Hierarchy Descriptor'
PUBLIC	??_R2?$basic_ofstream@DV?$char_traits@D@_STL@@@_STL@@8 ; _STL::basic_ofstream<char,_STL::char_traits<char> >::`RTTI Base Class Array'
PUBLIC	??_R1A@?0A@A@?$basic_ofstream@DV?$char_traits@D@_STL@@@_STL@@8 ; _STL::basic_ofstream<char,_STL::char_traits<char> >::`RTTI Base Class Descriptor at (0,-1,0,0)'
EXTRN	??_E?$basic_ofstream@DV?$char_traits@D@_STL@@@_STL@@UAEPAXI@Z:NEAR ; _STL::basic_ofstream<char,_STL::char_traits<char> >::`vector deleting destructor'
;	COMDAT xdata$x
; File c:\stlport-4.6.1\stlport\stl\_ostream.c
xdata$x	SEGMENT
$T102459 DD	0ffffffffH
	DD	FLAT:$L102450
$T102457 DD	019930520H
	DD	01H
	DD	FLAT:$T102459
	DD	2 DUP(00H)
	DD	2 DUP(00H)
xdata$x	ENDS
;	COMDAT ??_7?$basic_ofstream@DV?$char_traits@D@_STL@@@_STL@@6B@
CONST	SEGMENT
??_7?$basic_ofstream@DV?$char_traits@D@_STL@@@_STL@@6B@ DD FLAT:??_R4?$basic_ofstream@DV?$char_traits@D@_STL@@@_STL@@6B@ ; _STL::basic_ofstream<char,_STL::char_traits<char> >::`vftable'
	DD	FLAT:??_E?$basic_ofstream@DV?$char_traits@D@_STL@@@_STL@@UAEPAXI@Z
CONST	ENDS
;	COMDAT ??_R4?$basic_ofstream@DV?$char_traits@D@_STL@@@_STL@@6B@
rdata$r	SEGMENT
??_R4?$basic_ofstream@DV?$char_traits@D@_STL@@@_STL@@6B@ DD 00H ; _STL::basic_ofstream<char,_STL::char_traits<char> >::`RTTI Complete Object Locator'
	DD	0b8H
	DD	00H
	DD	FLAT:??_R0?AV?$basic_ofstream@DV?$char_traits@D@_STL@@@_STL@@@8
	DD	FLAT:??_R3?$basic_ofstream@DV?$char_traits@D@_STL@@@_STL@@8
rdata$r	ENDS
;	COMDAT ??_R0?AV?$basic_ofstream@DV?$char_traits@D@_STL@@@_STL@@@8
_DATA	SEGMENT
??_R0?AV?$basic_ofstream@DV?$char_traits@D@_STL@@@_STL@@@8 DD FLAT:??_7type_info@@6B@ ; _STL::basic_ofstream<char,_STL::char_traits<char> > `RTTI Type Descriptor'
	DD	00H
	DB	'.?AV?$basic_ofstream@DV?$char_traits@D@_STL@@@_STL@@', 00H
_DATA	ENDS
;	COMDAT ??_R3?$basic_ofstream@DV?$char_traits@D@_STL@@@_STL@@8
rdata$r	SEGMENT
??_R3?$basic_ofstream@DV?$char_traits@D@_STL@@@_STL@@8 DD 00H ; _STL::basic_ofstream<char,_STL::char_traits<char> >::`RTTI Class Hierarchy Descriptor'
	DD	00H
	DD	04H
	DD	FLAT:??_R2?$basic_ofstream@DV?$char_traits@D@_STL@@@_STL@@8
rdata$r	ENDS
;	COMDAT ??_R2?$basic_ofstream@DV?$char_traits@D@_STL@@@_STL@@8
rdata$r	SEGMENT
??_R2?$basic_ofstream@DV?$char_traits@D@_STL@@@_STL@@8 DD FLAT:??_R1A@?0A@A@?$basic_ofstream@DV?$char_traits@D@_STL@@@_STL@@8 ; _STL::basic_ofstream<char,_STL::char_traits<char> >::`RTTI Base Class Array'
	DD	FLAT:??_R1A@?0A@A@?$basic_ostream@DV?$char_traits@D@_STL@@@_STL@@8
	DD	FLAT:??_R1A@A@3BA@?$basic_ios@DV?$char_traits@D@_STL@@@_STL@@8
	DD	FLAT:??_R1A@A@3A@ios_base@_STL@@8
rdata$r	ENDS
;	COMDAT ??_R1A@?0A@A@?$basic_ofstream@DV?$char_traits@D@_STL@@@_STL@@8
rdata$r	SEGMENT
??_R1A@?0A@A@?$basic_ofstream@DV?$char_traits@D@_STL@@@_STL@@8 DD FLAT:??_R0?AV?$basic_ofstream@DV?$char_traits@D@_STL@@@_STL@@@8 ; _STL::basic_ofstream<char,_STL::char_traits<char> >::`RTTI Base Class Descriptor at (0,-1,0,0)'
	DD	03H
	DD	00H
	DD	0ffffffffH
	DD	00H
	DD	00H
; Function compile flags: /Ogsy
; File c:\stlport-4.6.1\stlport\stl\_fstream.h
rdata$r	ENDS
;	COMDAT ??1?$basic_ofstream@DV?$char_traits@D@_STL@@@_STL@@UAE@XZ
_TEXT	SEGMENT
_this$ = -16						; size = 4
__$EHRec$ = -12						; size = 12
??1?$basic_ofstream@DV?$char_traits@D@_STL@@@_STL@@UAE@XZ PROC NEAR ; _STL::basic_ofstream<char,_STL::char_traits<char> >::~basic_ofstream<char,_STL::char_traits<char> >, COMDAT
; _this$ = ecx

; 616  :   ~basic_ofstream() {}

  00000	b8 00 00 00 00	 mov	 eax, __ehhandler$??1?$basic_ofstream@DV?$char_traits@D@_STL@@@_STL@@UAE@XZ
  00005	e8 00 00 00 00	 call	 __EH_prolog
  0000a	51		 push	 ecx
  0000b	8b 81 48 ff ff
	ff		 mov	 eax, DWORD PTR [ecx-184]
  00011	8b 40 04	 mov	 eax, DWORD PTR [eax+4]
  00014	56		 push	 esi
  00015	89 4d f0	 mov	 DWORD PTR _this$[ebp], ecx
  00018	c7 84 08 48 ff
	ff ff 00 00 00
	00		 mov	 DWORD PTR [eax+ecx-184], OFFSET FLAT:??_7?$basic_ofstream@DV?$char_traits@D@_STL@@@_STL@@6B@
  00023	83 65 fc 00	 and	 DWORD PTR __$EHRec$[ebp+8], 0
  00027	8d b1 4c ff ff
	ff		 lea	 esi, DWORD PTR [ecx-180]
  0002d	8b ce		 mov	 ecx, esi
  0002f	e8 00 00 00 00	 call	 ??1?$basic_filebuf@DV?$char_traits@D@_STL@@@_STL@@UAE@XZ ; _STL::basic_filebuf<char,_STL::char_traits<char> >::~basic_filebuf<char,_STL::char_traits<char> >
  00034	8b 46 fc	 mov	 eax, DWORD PTR [esi-4]
  00037	8b 40 04	 mov	 eax, DWORD PTR [eax+4]
  0003a	8b 4d f4	 mov	 ecx, DWORD PTR __$EHRec$[ebp]
  0003d	c7 44 30 fc 00
	00 00 00	 mov	 DWORD PTR [eax+esi-4], OFFSET FLAT:??_7?$basic_ostream@DV?$char_traits@D@_STL@@@_STL@@6B@
  00045	5e		 pop	 esi
  00046	64 89 0d 00 00
	00 00		 mov	 DWORD PTR fs:__except_list, ecx
  0004d	c9		 leave
  0004e	c3		 ret	 0
_TEXT	ENDS
;	COMDAT text$x
text$x	SEGMENT
$L102450:
  00000	8b 4d f0	 mov	 ecx, DWORD PTR _this$[ebp]
  00003	81 e9 b4 00 00
	00		 sub	 ecx, 180		; 000000b4H
  00009	e9 00 00 00 00	 jmp	 ??1?$basic_ostream@DV?$char_traits@D@_STL@@@_STL@@UAE@XZ ; _STL::basic_ostream<char,_STL::char_traits<char> >::~basic_ostream<char,_STL::char_traits<char> >
__ehhandler$??1?$basic_ofstream@DV?$char_traits@D@_STL@@@_STL@@UAE@XZ:
  0000e	b8 00 00 00 00	 mov	 eax, OFFSET FLAT:$T102457
  00013	e9 00 00 00 00	 jmp	 ___CxxFrameHandler
text$x	ENDS
??1?$basic_ofstream@DV?$char_traits@D@_STL@@@_STL@@UAE@XZ ENDP ; _STL::basic_ofstream<char,_STL::char_traits<char> >::~basic_ofstream<char,_STL::char_traits<char> >
PUBLIC	?close@?$basic_ofstream@DV?$char_traits@D@_STL@@@_STL@@QAEXXZ ; _STL::basic_ofstream<char,_STL::char_traits<char> >::close
; Function compile flags: /Ogsy
;	COMDAT ?close@?$basic_ofstream@DV?$char_traits@D@_STL@@@_STL@@QAEXXZ
_TEXT	SEGMENT
?close@?$basic_ofstream@DV?$char_traits@D@_STL@@@_STL@@QAEXXZ PROC NEAR ; _STL::basic_ofstream<char,_STL::char_traits<char> >::close, COMDAT
; _this$ = ecx

; 631  :   void close() {

  00000	56		 push	 esi
  00001	8b f1		 mov	 esi, ecx

; 632  :     if (!this->rdbuf()->close())

  00003	8d 4e 04	 lea	 ecx, DWORD PTR [esi+4]
  00006	e8 00 00 00 00	 call	 ?close@?$basic_filebuf@DV?$char_traits@D@_STL@@@_STL@@QAEPAV12@XZ ; _STL::basic_filebuf<char,_STL::char_traits<char> >::close
  0000b	85 c0		 test	 eax, eax
  0000d	75 13		 jne	 SHORT $L102475

; 633  :       this->setstate(ios_base::failbit);

  0000f	8b 06		 mov	 eax, DWORD PTR [esi]
  00011	8b 48 04	 mov	 ecx, DWORD PTR [eax+4]
  00014	03 ce		 add	 ecx, esi
  00016	8b 41 08	 mov	 eax, DWORD PTR [ecx+8]
  00019	83 c8 04	 or	 eax, 4
  0001c	50		 push	 eax
  0001d	e8 00 00 00 00	 call	 ?clear@?$basic_ios@DV?$char_traits@D@_STL@@@_STL@@QAEXH@Z ; _STL::basic_ios<char,_STL::char_traits<char> >::clear
$L102475:
  00022	5e		 pop	 esi

; 634  :   }

  00023	c3		 ret	 0
?close@?$basic_ofstream@DV?$char_traits@D@_STL@@@_STL@@QAEXXZ ENDP ; _STL::basic_ofstream<char,_STL::char_traits<char> >::close
_TEXT	ENDS
PUBLIC	??0sentry@?$basic_ostream@DV?$char_traits@D@_STL@@@_STL@@QAE@AAV12@@Z ; _STL::basic_ostream<char,_STL::char_traits<char> >::sentry::sentry
; Function compile flags: /Ogsy
; File c:\stlport-4.6.1\stlport\stl\_ostream.h
;	COMDAT ??0sentry@?$basic_ostream@DV?$char_traits@D@_STL@@@_STL@@QAE@AAV12@@Z
_TEXT	SEGMENT
___str$ = 8						; size = 4
??0sentry@?$basic_ostream@DV?$char_traits@D@_STL@@@_STL@@QAE@AAV12@@Z PROC NEAR ; _STL::basic_ostream<char,_STL::char_traits<char> >::sentry::sentry, COMDAT
; _this$ = ecx

; 165  :       {

  00000	8b 44 24 04	 mov	 eax, DWORD PTR ___str$[esp-4]
  00004	56		 push	 esi
  00005	8b f1		 mov	 esi, ecx
  00007	50		 push	 eax
  00008	89 06		 mov	 DWORD PTR [esi], eax
  0000a	e8 00 00 00 00	 call	 ??$_M_init@DV?$char_traits@D@_STL@@@_STL@@YA_NAAV?$basic_ostream@DV?$char_traits@D@_STL@@@0@@Z ; _STL::_M_init<char,_STL::char_traits<char> >
  0000f	88 46 04	 mov	 BYTE PTR [esi+4], al
  00012	59		 pop	 ecx

; 166  :       }

  00013	8b c6		 mov	 eax, esi
  00015	5e		 pop	 esi
  00016	c2 04 00	 ret	 4
??0sentry@?$basic_ostream@DV?$char_traits@D@_STL@@@_STL@@QAE@AAV12@@Z ENDP ; _STL::basic_ostream<char,_STL::char_traits<char> >::sentry::sentry
_TEXT	ENDS
PUBLIC	??$uninitialized_copy@PADPAD@_STL@@YAPADPAD00@Z	; _STL::uninitialized_copy<char *,char *>
; Function compile flags: /Ogsy
; File c:\stlport-4.6.1\stlport\stl\_uninitialized.h
;	COMDAT ??$uninitialized_copy@PADPAD@_STL@@YAPADPAD00@Z
_TEXT	SEGMENT
___first$ = 8						; size = 4
___last$ = 12						; size = 4
___result$ = 16						; size = 4
??$uninitialized_copy@PADPAD@_STL@@YAPADPAD00@Z PROC NEAR ; _STL::uninitialized_copy<char *,char *>, COMDAT

; 79   :   return __uninitialized_copy(__first, __last, __result,  _IS_POD_ITER(__result, _ForwardIter));

  00000	e9 00 00 00 00	 jmp	 ?__copy_trivial@_STL@@YAPAXPBX0PAX@Z ; _STL::__copy_trivial
??$uninitialized_copy@PADPAD@_STL@@YAPADPAD00@Z ENDP	; _STL::uninitialized_copy<char *,char *>
_TEXT	ENDS
PUBLIC	??$append@PAD@?$basic_string@DV?$char_traits@D@_STL@@V?$allocator@D@2@@_STL@@AAEAAV01@PAD0ABUforward_iterator_tag@1@@Z ; _STL::basic_string<char,_STL::char_traits<char>,_STL::allocator<char> >::append<char *>
; Function compile flags: /Ogsy
; File c:\stlport-4.6.1\stlport\stl\_string.h
;	COMDAT ??$append@PAD@?$basic_string@DV?$char_traits@D@_STL@@V?$allocator@D@2@@_STL@@AAEAAV01@PAD0ABUforward_iterator_tag@1@@Z
_TEXT	SEGMENT
___len$100205 = -8					; size = 4
___old_size$100198 = -8					; size = 4
$T102541 = -4						; size = 4
___first$ = 8						; size = 4
___last$ = 12						; size = 4
___formal$ = 16						; size = 4
??$append@PAD@?$basic_string@DV?$char_traits@D@_STL@@V?$allocator@D@2@@_STL@@AAEAAV01@PAD0ABUforward_iterator_tag@1@@Z PROC NEAR ; _STL::basic_string<char,_STL::char_traits<char>,_STL::allocator<char> >::append<char *>, COMDAT
; _this$ = ecx

; 542  :   template <class _ForwardIter> _Self& append(_ForwardIter __first, _ForwardIter __last, 

  00000	55		 push	 ebp
  00001	8b ec		 mov	 ebp, esp
  00003	51		 push	 ecx
  00004	51		 push	 ecx
  00005	56		 push	 esi
  00006	57		 push	 edi

; 543  :                        const forward_iterator_tag &)  {
; 544  :     if (__first != __last) {

  00007	8b 7d 0c	 mov	 edi, DWORD PTR ___last$[ebp]
  0000a	39 7d 08	 cmp	 DWORD PTR ___first$[ebp], edi
  0000d	8b f1		 mov	 esi, ecx
  0000f	0f 84 b6 00 00
	00		 je	 $L100216

; 545  : 	    const size_type __old_size = size();
; 546  : 	    difference_type __n = distance(__first, __last);

  00015	2b 7d 08	 sub	 edi, DWORD PTR ___first$[ebp]
  00018	53		 push	 ebx
  00019	8b 5e 04	 mov	 ebx, DWORD PTR [esi+4]
  0001c	2b 1e		 sub	 ebx, DWORD PTR [esi]

; 547  : 	    if (__STATIC_CAST(size_type,__n) > max_size() || __old_size > max_size() - __STATIC_CAST(size_type,__n))

  0001e	83 ff fe	 cmp	 edi, -2			; fffffffeH
  00021	89 5d f8	 mov	 DWORD PTR ___old_size$100198[ebp], ebx
  00024	77 09		 ja	 SHORT $L100203
  00026	6a fe		 push	 -2			; fffffffeH
  00028	58		 pop	 eax
  00029	2b c7		 sub	 eax, edi
  0002b	3b d8		 cmp	 ebx, eax
  0002d	76 07		 jbe	 SHORT $L100202
$L100203:

; 548  : 	      this->_M_throw_length_error();

  0002f	8b ce		 mov	 ecx, esi
  00031	e8 00 00 00 00	 call	 ?_M_throw_length_error@?$_String_base@DV?$allocator@D@_STL@@@_STL@@QBEXXZ ; _STL::_String_base<char,_STL::allocator<char> >::_M_throw_length_error
$L100202:

; 549  : 	    if (__old_size + __n > capacity()) {

  00036	8b 46 08	 mov	 eax, DWORD PTR [esi+8]
  00039	2b 06		 sub	 eax, DWORD PTR [esi]
  0003b	8d 0c 1f	 lea	 ecx, DWORD PTR [edi+ebx]
  0003e	48		 dec	 eax
  0003f	3b c8		 cmp	 ecx, eax
  00041	76 5e		 jbe	 SHORT $L100204

; 550  : 	      const size_type __len = __old_size +
; 551  : 	                            (max)(__old_size, __STATIC_CAST(size_type,__n)) + 1;

  00043	3b df		 cmp	 ebx, edi
  00045	89 7d fc	 mov	 DWORD PTR $T102541[ebp], edi
  00048	8d 45 fc	 lea	 eax, DWORD PTR $T102541[ebp]
  0004b	72 03		 jb	 SHORT $L102585
  0004d	8d 45 f8	 lea	 eax, DWORD PTR ___old_size$100198[ebp]
$L102585:
  00050	8b 00		 mov	 eax, DWORD PTR [eax]
  00052	8d 5c 18 01	 lea	 ebx, DWORD PTR [eax+ebx+1]

; 552  : 	      pointer __new_start = this->_M_end_of_storage.allocate(__len);

  00056	85 db		 test	 ebx, ebx
  00058	89 5d f8	 mov	 DWORD PTR ___len$100205[ebp], ebx
  0005b	74 0b		 je	 SHORT $L102591
  0005d	53		 push	 ebx
  0005e	e8 00 00 00 00	 call	 ?allocate@?$__node_alloc@$00$0A@@_STL@@SAPAXI@Z ; _STL::__node_alloc<1,0>::allocate
  00063	59		 pop	 ecx
  00064	8b f8		 mov	 edi, eax
  00066	eb 02		 jmp	 SHORT $L102592
$L102591:
  00068	33 ff		 xor	 edi, edi
$L102592:

; 553  : 	      pointer __new_finish = __new_start;
; 554  : 	      _STLP_TRY {
; 555  : 	        __new_finish = uninitialized_copy(this->_M_start, this->_M_finish, __new_start);

  0006a	8b 46 04	 mov	 eax, DWORD PTR [esi+4]
  0006d	8b 0e		 mov	 ecx, DWORD PTR [esi]
  0006f	57		 push	 edi
  00070	50		 push	 eax
  00071	51		 push	 ecx
  00072	e8 00 00 00 00	 call	 ?__copy_trivial@_STL@@YAPAXPBX0PAX@Z ; _STL::__copy_trivial

; 556  : 	        __new_finish = uninitialized_copy(__first, __last, __new_finish);

  00077	50		 push	 eax
  00078	ff 75 0c	 push	 DWORD PTR ___last$[ebp]
  0007b	ff 75 08	 push	 DWORD PTR ___first$[ebp]
  0007e	e8 00 00 00 00	 call	 ?__copy_trivial@_STL@@YAPAXPBX0PAX@Z ; _STL::__copy_trivial
  00083	8b d8		 mov	 ebx, eax
  00085	83 c4 18	 add	 esp, 24			; 00000018H

; 557  : 	        _M_construct_null(__new_finish);
; 558  : 	      }
; 559  : 	      _STLP_UNWIND((_STLP_STD::_Destroy(__new_start,__new_finish),
; 560  : 	                    this->_M_end_of_storage.deallocate(__new_start,__len)));
; 561  : 	      _STLP_STD::_Destroy(this->_M_start, this->_M_finish + 1);
; 562  : 	      this->_M_deallocate_block();

  00088	8b ce		 mov	 ecx, esi
  0008a	c6 03 00	 mov	 BYTE PTR [ebx], 0
  0008d	e8 00 00 00 00	 call	 ?_M_deallocate_block@?$_String_base@DV?$allocator@D@_STL@@@_STL@@QAEXXZ ; _STL::_String_base<char,_STL::allocator<char> >::_M_deallocate_block

; 563  : 	      this->_M_start = __new_start;
; 564  : 	      this->_M_finish = __new_finish;
; 565  : 	      this->_M_end_of_storage._M_data = __new_start + __len; 

  00092	8b 45 f8	 mov	 eax, DWORD PTR ___len$100205[ebp]
  00095	89 3e		 mov	 DWORD PTR [esi], edi
  00097	03 f8		 add	 edi, eax
  00099	89 5e 04	 mov	 DWORD PTR [esi+4], ebx
  0009c	89 7e 08	 mov	 DWORD PTR [esi+8], edi

; 566  : 	    }
; 567  : 	    else {

  0009f	eb 29		 jmp	 SHORT $L102868
$L100204:

; 568  : 	      _ForwardIter __f1 = __first;
; 569  : 	      ++__f1;
; 570  : 	      uninitialized_copy(__f1, __last, this->_M_finish + 1);

  000a1	8b 46 04	 mov	 eax, DWORD PTR [esi+4]
  000a4	40		 inc	 eax
  000a5	50		 push	 eax
  000a6	8b 45 08	 mov	 eax, DWORD PTR ___first$[ebp]
  000a9	ff 75 0c	 push	 DWORD PTR ___last$[ebp]
  000ac	40		 inc	 eax
  000ad	50		 push	 eax
  000ae	e8 00 00 00 00	 call	 ?__copy_trivial@_STL@@YAPAXPBX0PAX@Z ; _STL::__copy_trivial

; 571  : 	      _STLP_TRY {
; 572  : 	        _M_construct_null(this->_M_finish + __n);

  000b3	8b 46 04	 mov	 eax, DWORD PTR [esi+4]

; 573  : 	      }
; 574  : 	      _STLP_UNWIND(_STLP_STD::_Destroy(this->_M_finish + 1, this->_M_finish + __n));
; 575  : 	      _Traits::assign(*end(), *__first);

  000b6	8b 4d 08	 mov	 ecx, DWORD PTR ___first$[ebp]
  000b9	c6 04 07 00	 mov	 BYTE PTR [edi+eax], 0
  000bd	8b 46 04	 mov	 eax, DWORD PTR [esi+4]
  000c0	8a 09		 mov	 cl, BYTE PTR [ecx]
  000c2	83 c4 0c	 add	 esp, 12			; 0000000cH
  000c5	88 08		 mov	 BYTE PTR [eax], cl

; 576  : 	      this->_M_finish += __n;

  000c7	01 7e 04	 add	 DWORD PTR [esi+4], edi
$L102868:
  000ca	5b		 pop	 ebx
$L100216:
  000cb	5f		 pop	 edi

; 577  : 	    }
; 578  : 	  }
; 579  : 	  return *this;  

  000cc	8b c6		 mov	 eax, esi
  000ce	5e		 pop	 esi

; 580  : 	}

  000cf	c9		 leave
  000d0	c2 0c 00	 ret	 12			; 0000000cH
??$append@PAD@?$basic_string@DV?$char_traits@D@_STL@@V?$allocator@D@2@@_STL@@AAEAAV01@PAD0ABUforward_iterator_tag@1@@Z ENDP ; _STL::basic_string<char,_STL::char_traits<char>,_STL::allocator<char> >::append<char *>
_TEXT	ENDS
PUBLIC	??1?$_String_base@DV?$allocator@D@_STL@@@_STL@@QAE@XZ ; _STL::_String_base<char,_STL::allocator<char> >::~_String_base<char,_STL::allocator<char> >
; Function compile flags: /Ogsy
;	COMDAT ??1?$_String_base@DV?$allocator@D@_STL@@@_STL@@QAE@XZ
_TEXT	SEGMENT
??1?$_String_base@DV?$allocator@D@_STL@@@_STL@@QAE@XZ PROC NEAR ; _STL::_String_base<char,_STL::allocator<char> >::~_String_base<char,_STL::allocator<char> >, COMDAT
; _this$ = ecx

; 135  :   ~_String_base() { _M_deallocate_block(); }

  00000	e9 00 00 00 00	 jmp	 ?_M_deallocate_block@?$_String_base@DV?$allocator@D@_STL@@@_STL@@QAEXXZ ; _STL::_String_base<char,_STL::allocator<char> >::_M_deallocate_block
??1?$_String_base@DV?$allocator@D@_STL@@@_STL@@QAE@XZ ENDP ; _STL::_String_base<char,_STL::allocator<char> >::~_String_base<char,_STL::allocator<char> >
_TEXT	ENDS
PUBLIC	??_D?$basic_ofstream@DV?$char_traits@D@_STL@@@_STL@@QAEXXZ ; _STL::basic_ofstream<char,_STL::char_traits<char> >::`vbase destructor'
; Function compile flags: /Ogsy
;	COMDAT ??_D?$basic_ofstream@DV?$char_traits@D@_STL@@@_STL@@QAEXXZ
_TEXT	SEGMENT
??_D?$basic_ofstream@DV?$char_traits@D@_STL@@@_STL@@QAEXXZ PROC NEAR ; _STL::basic_ofstream<char,_STL::char_traits<char> >::`vbase destructor', COMDAT
; _this$ = ecx
  00000	56		 push	 esi
  00001	8d b1 b8 00 00
	00		 lea	 esi, DWORD PTR [ecx+184]
  00007	8b ce		 mov	 ecx, esi
  00009	e8 00 00 00 00	 call	 ??1?$basic_ofstream@DV?$char_traits@D@_STL@@@_STL@@UAE@XZ ; _STL::basic_ofstream<char,_STL::char_traits<char> >::~basic_ofstream<char,_STL::char_traits<char> >
  0000e	8b ce		 mov	 ecx, esi
  00010	5e		 pop	 esi
  00011	e9 00 00 00 00	 jmp	 ??1?$basic_ios@DV?$char_traits@D@_STL@@@_STL@@UAE@XZ ; _STL::basic_ios<char,_STL::char_traits<char> >::~basic_ios<char,_STL::char_traits<char> >
??_D?$basic_ofstream@DV?$char_traits@D@_STL@@@_STL@@QAEXXZ ENDP ; _STL::basic_ofstream<char,_STL::char_traits<char> >::`vbase destructor'
; Function compile flags: /Ogsy
_TEXT	ENDS
;	COMDAT ??_G?$basic_ofstream@DV?$char_traits@D@_STL@@@_STL@@UAEPAXI@Z
_TEXT	SEGMENT
___flags$ = 8						; size = 4
??_G?$basic_ofstream@DV?$char_traits@D@_STL@@@_STL@@UAEPAXI@Z PROC NEAR ; _STL::basic_ofstream<char,_STL::char_traits<char> >::`scalar deleting destructor', COMDAT
; _this$ = ecx
  00000	56		 push	 esi
  00001	8d b1 48 ff ff
	ff		 lea	 esi, DWORD PTR [ecx-184]
  00007	8b ce		 mov	 ecx, esi
  00009	e8 00 00 00 00	 call	 ??_D?$basic_ofstream@DV?$char_traits@D@_STL@@@_STL@@QAEXXZ
  0000e	f6 44 24 08 01	 test	 BYTE PTR ___flags$[esp], 1
  00013	74 07		 je	 SHORT $L99647
  00015	56		 push	 esi
  00016	e8 00 00 00 00	 call	 ??3@YAXPAX@Z		; operator delete
  0001b	59		 pop	 ecx
$L99647:
  0001c	8b c6		 mov	 eax, esi
  0001e	5e		 pop	 esi
  0001f	c2 04 00	 ret	 4
??_G?$basic_ofstream@DV?$char_traits@D@_STL@@@_STL@@UAEPAXI@Z ENDP ; _STL::basic_ofstream<char,_STL::char_traits<char> >::`scalar deleting destructor'
_TEXT	ENDS
PUBLIC	??$_M_range_initialize@PAD@?$basic_string@DV?$char_traits@D@_STL@@V?$allocator@D@2@@_STL@@AAEXPAD0ABUforward_iterator_tag@1@@Z ; _STL::basic_string<char,_STL::char_traits<char>,_STL::allocator<char> >::_M_range_initialize<char *>
; Function compile flags: /Ogsy
;	COMDAT ??$_M_range_initialize@PAD@?$basic_string@DV?$char_traits@D@_STL@@V?$allocator@D@2@@_STL@@AAEXPAD0ABUforward_iterator_tag@1@@Z
_TEXT	SEGMENT
___f$ = 8						; size = 4
___l$ = 12						; size = 4
___formal$ = 16						; size = 4
??$_M_range_initialize@PAD@?$basic_string@DV?$char_traits@D@_STL@@V?$allocator@D@2@@_STL@@AAEXPAD0ABUforward_iterator_tag@1@@Z PROC NEAR ; _STL::basic_string<char,_STL::char_traits<char>,_STL::allocator<char> >::_M_range_initialize<char *>, COMDAT
; _this$ = ecx

; 383  :                            const forward_iterator_tag &) {
; 384  :     difference_type __n = distance(__f, __l);
; 385  :     this->_M_allocate_block(__n + 1);

  00000	8b 44 24 08	 mov	 eax, DWORD PTR ___l$[esp-4]
  00004	2b 44 24 04	 sub	 eax, DWORD PTR ___f$[esp-4]
  00008	56		 push	 esi
  00009	40		 inc	 eax
  0000a	50		 push	 eax
  0000b	8b f1		 mov	 esi, ecx
  0000d	e8 00 00 00 00	 call	 ?_M_allocate_block@?$_String_base@DV?$allocator@D@_STL@@@_STL@@QAEXI@Z ; _STL::_String_base<char,_STL::allocator<char> >::_M_allocate_block

; 386  :     this->_M_finish = uninitialized_copy(__f, __l, this->_M_start);

  00012	ff 36		 push	 DWORD PTR [esi]
  00014	ff 74 24 10	 push	 DWORD PTR ___l$[esp+4]
  00018	ff 74 24 10	 push	 DWORD PTR ___f$[esp+8]
  0001c	e8 00 00 00 00	 call	 ?__copy_trivial@_STL@@YAPAXPBX0PAX@Z ; _STL::__copy_trivial
  00021	83 c4 0c	 add	 esp, 12			; 0000000cH
  00024	89 46 04	 mov	 DWORD PTR [esi+4], eax

; 387  :     _M_terminate_string();

  00027	c6 00 00	 mov	 BYTE PTR [eax], 0
  0002a	5e		 pop	 esi

; 388  :   }

  0002b	c2 0c 00	 ret	 12			; 0000000cH
??$_M_range_initialize@PAD@?$basic_string@DV?$char_traits@D@_STL@@V?$allocator@D@2@@_STL@@AAEXPAD0ABUforward_iterator_tag@1@@Z ENDP ; _STL::basic_string<char,_STL::char_traits<char>,_STL::allocator<char> >::_M_range_initialize<char *>
_TEXT	ENDS
PUBLIC	?_M_put_nowiden@?$basic_ostream@DV?$char_traits@D@_STL@@@_STL@@QAEXPBD@Z ; _STL::basic_ostream<char,_STL::char_traits<char> >::_M_put_nowiden
;	COMDAT xdata$x
; File c:\stlport-4.6.1\stlport\stl\_ios_base.h
xdata$x	SEGMENT
$T103085 DD	0ffffffffH
	DD	FLAT:$L102991
	DD	00H
	DD	00H
	DD	00H
	DD	00H
$T103087 DD	00H
	DD	00H
	DD	00H
	DD	FLAT:$L102990
$T103086 DD	01H
	DD	01H
	DD	02H
	DD	01H
	DD	FLAT:$T103087
$T103080 DD	019930520H
	DD	03H
	DD	FLAT:$T103085
	DD	01H
	DD	FLAT:$T103086
	DD	2 DUP(00H)
; Function compile flags: /Ogsy
; File c:\stlport-4.6.1\stlport\stl\_ostream.c
xdata$x	ENDS
;	COMDAT ?_M_put_nowiden@?$basic_ostream@DV?$char_traits@D@_STL@@@_STL@@QAEXPBD@Z
_TEXT	SEGMENT
___sentry$ = -36					; size = 8
$T103039 = -28						; size = 1
_this$ = -24						; size = 4
___failed$99960 = -17					; size = 1
__$EHRec$ = -16						; size = 16
$T103028 = 8						; size = 1
___s$ = 8						; size = 4
?_M_put_nowiden@?$basic_ostream@DV?$char_traits@D@_STL@@@_STL@@QAEXPBD@Z PROC NEAR ; _STL::basic_ostream<char,_STL::char_traits<char> >::_M_put_nowiden, COMDAT
; _this$ = ecx

; 256  : {

  00000	b8 00 00 00 00	 mov	 eax, __ehhandler$?_M_put_nowiden@?$basic_ostream@DV?$char_traits@D@_STL@@@_STL@@QAEXPBD@Z
  00005	e8 00 00 00 00	 call	 __EH_prolog
  0000a	83 ec 18	 sub	 esp, 24			; 00000018H
  0000d	53		 push	 ebx
  0000e	56		 push	 esi
  0000f	57		 push	 edi
  00010	8b f1		 mov	 esi, ecx
  00012	89 65 f0	 mov	 DWORD PTR __$EHRec$[ebp], esp

; 257  :   sentry __sentry(*this);

  00015	56		 push	 esi
  00016	8d 4d dc	 lea	 ecx, DWORD PTR ___sentry$[ebp]
  00019	89 75 e8	 mov	 DWORD PTR _this$[ebp], esi
  0001c	e8 00 00 00 00	 call	 ??0sentry@?$basic_ostream@DV?$char_traits@D@_STL@@@_STL@@QAE@AAV12@@Z ; _STL::basic_ostream<char,_STL::char_traits<char> >::sentry::sentry
  00021	33 db		 xor	 ebx, ebx

; 258  :   if (__sentry) {

  00023	38 5d e0	 cmp	 BYTE PTR ___sentry$[ebp+4], bl
  00026	89 5d fc	 mov	 DWORD PTR __$EHRec$[ebp+12], ebx
  00029	0f 84 0b 01 00
	00		 je	 $L103064

; 259  :     bool __failed = true;
; 260  :     streamsize __n = _Traits::length(__s);

  0002f	ff 75 08	 push	 DWORD PTR ___s$[ebp]
  00032	c6 45 ef 01	 mov	 BYTE PTR ___failed$99960[ebp], 1
  00036	e8 00 00 00 00	 call	 _strlen
  0003b	59		 pop	 ecx

; 261  :     streamsize __npad = this->width() > __n ? this->width() - __n : 0;

  0003c	8b 0e		 mov	 ecx, DWORD PTR [esi]
  0003e	8b f8		 mov	 edi, eax
  00040	8b 41 04	 mov	 eax, DWORD PTR [ecx+4]
  00043	03 c6		 add	 eax, esi
  00045	8b 50 1c	 mov	 edx, DWORD PTR [eax+28]
  00048	3b d7		 cmp	 edx, edi
  0004a	7e 04		 jle	 SHORT $L102984
  0004c	2b d7		 sub	 edx, edi
  0004e	8b da		 mov	 ebx, edx
$L102984:

; 262  : 
; 263  :     _STLP_TRY {
; 264  :       if (__npad == 0)

  00050	85 db		 test	 ebx, ebx
  00052	c6 45 fc 01	 mov	 BYTE PTR __$EHRec$[ebp+12], 1
  00056	75 18		 jne	 SHORT $L99964

; 265  :         __failed = this->rdbuf()->sputn(__s, __n) != __n;

  00058	8b 40 58	 mov	 eax, DWORD PTR [eax+88]
  0005b	8b 10		 mov	 edx, DWORD PTR [eax]
  0005d	57		 push	 edi
  0005e	ff 75 08	 push	 DWORD PTR ___s$[ebp]
  00061	8b c8		 mov	 ecx, eax
  00063	ff 52 28	 call	 DWORD PTR [edx+40]
  00066	3b c7		 cmp	 eax, edi
  00068	0f 95 c1	 setne	 cl

; 266  :       else if ((this->flags() & ios_base::adjustfield) == ios_base::left) {

  0006b	e9 85 00 00 00	 jmp	 $L102988
$L99964:
  00070	8b 50 04	 mov	 edx, DWORD PTR [eax+4]
  00073	80 e2 07	 and	 dl, 7
  00076	80 fa 01	 cmp	 dl, 1
  00079	75 39		 jne	 SHORT $L99966

; 267  :         __failed = this->rdbuf()->sputn(__s, __n) != __n;

  0007b	8b 40 58	 mov	 eax, DWORD PTR [eax+88]
  0007e	8b 10		 mov	 edx, DWORD PTR [eax]
  00080	57		 push	 edi
  00081	ff 75 08	 push	 DWORD PTR ___s$[ebp]
  00084	8b c8		 mov	 ecx, eax
  00086	ff 52 28	 call	 DWORD PTR [edx+40]
  00089	3b c7		 cmp	 eax, edi
  0008b	0f 95 45 ef	 setne	 BYTE PTR ___failed$99960[ebp]

; 268  :         __failed = __failed || 
; 269  :                    this->rdbuf()->_M_sputnc(this->fill(), __npad) != __npad;

  0008f	80 7d ef 00	 cmp	 BYTE PTR ___failed$99960[ebp], 0
  00093	75 5e		 jne	 SHORT $L102987
  00095	8b 06		 mov	 eax, DWORD PTR [esi]
  00097	8b 40 04	 mov	 eax, DWORD PTR [eax+4]
  0009a	03 c6		 add	 eax, esi
  0009c	8a 48 54	 mov	 cl, BYTE PTR [eax+84]
  0009f	8b 40 58	 mov	 eax, DWORD PTR [eax+88]
  000a2	8b 10		 mov	 edx, DWORD PTR [eax]
  000a4	88 4d 08	 mov	 BYTE PTR $T103028[ebp], cl
  000a7	53		 push	 ebx
  000a8	ff 75 08	 push	 DWORD PTR $T103028[ebp]
  000ab	8b c8		 mov	 ecx, eax
  000ad	ff 52 2c	 call	 DWORD PTR [edx+44]
  000b0	3b c3		 cmp	 eax, ebx

; 270  :       }
; 271  :       else {

  000b2	eb 39		 jmp	 SHORT $L103084
$L99966:

; 272  :         __failed = this->rdbuf()->_M_sputnc(this->fill(), __npad) != __npad;

  000b4	8b 41 04	 mov	 eax, DWORD PTR [ecx+4]
  000b7	03 c6		 add	 eax, esi
  000b9	8a 48 54	 mov	 cl, BYTE PTR [eax+84]
  000bc	8b 40 58	 mov	 eax, DWORD PTR [eax+88]
  000bf	8b 10		 mov	 edx, DWORD PTR [eax]
  000c1	88 4d e4	 mov	 BYTE PTR $T103039[ebp], cl
  000c4	53		 push	 ebx
  000c5	ff 75 e4	 push	 DWORD PTR $T103039[ebp]
  000c8	8b c8		 mov	 ecx, eax
  000ca	ff 52 2c	 call	 DWORD PTR [edx+44]
  000cd	3b c3		 cmp	 eax, ebx
  000cf	0f 95 45 ef	 setne	 BYTE PTR ___failed$99960[ebp]

; 273  :         __failed = __failed || this->rdbuf()->sputn(__s, __n) != __n;

  000d3	80 7d ef 00	 cmp	 BYTE PTR ___failed$99960[ebp], 0
  000d7	75 1a		 jne	 SHORT $L102987
  000d9	8b 06		 mov	 eax, DWORD PTR [esi]
  000db	8b 40 04	 mov	 eax, DWORD PTR [eax+4]
  000de	8b 4c 30 58	 mov	 ecx, DWORD PTR [eax+esi+88]
  000e2	8b 01		 mov	 eax, DWORD PTR [ecx]
  000e4	57		 push	 edi
  000e5	ff 75 08	 push	 DWORD PTR ___s$[ebp]
  000e8	ff 50 28	 call	 DWORD PTR [eax+40]
  000eb	3b c7		 cmp	 eax, edi
$L103084:
  000ed	75 04		 jne	 SHORT $L102987
  000ef	32 c9		 xor	 cl, cl
  000f1	eb 02		 jmp	 SHORT $L102988
$L102987:
  000f3	b1 01		 mov	 cl, 1
$L102988:

; 274  :       }
; 275  : 
; 276  :       this->width(0);

  000f5	8b 06		 mov	 eax, DWORD PTR [esi]
  000f7	8b 40 04	 mov	 eax, DWORD PTR [eax+4]
  000fa	03 c6		 add	 eax, esi
  000fc	83 60 1c 00	 and	 DWORD PTR [eax+28], 0
  00100	eb 1d		 jmp	 SHORT $L99963
$L102990:

; 277  :     }
; 278  :     _STLP_CATCH_ALL {
; 279  :       this->_M_handle_exception(ios_base::badbit);

  00102	8b 45 e8	 mov	 eax, DWORD PTR _this$[ebp]
  00105	8b 08		 mov	 ecx, DWORD PTR [eax]
  00107	8b 49 04	 mov	 ecx, DWORD PTR [ecx+4]
  0010a	6a 01		 push	 1
  0010c	03 c8		 add	 ecx, eax
  0010e	e8 00 00 00 00	 call	 ?_M_handle_exception@?$basic_ios@DV?$char_traits@D@_STL@@@_STL@@QAEXH@Z ; _STL::basic_ios<char,_STL::char_traits<char> >::_M_handle_exception

; 280  :     }

  00113	b8 00 00 00 00	 mov	 eax, $L103081
  00118	c3		 ret	 0
$L103081:
  00119	8b 75 e8	 mov	 esi, DWORD PTR _this$[ebp]
  0011c	8a 4d ef	 mov	 cl, BYTE PTR ___failed$99960[ebp]
$L99963:
  0011f	83 65 fc 00	 and	 DWORD PTR __$EHRec$[ebp+12], 0

; 281  : 
; 282  :     if (__failed)

  00123	84 c9		 test	 cl, cl
  00125	74 13		 je	 SHORT $L103064

; 283  :       this->setstate(ios_base::failbit);

  00127	8b 06		 mov	 eax, DWORD PTR [esi]
  00129	8b 48 04	 mov	 ecx, DWORD PTR [eax+4]
  0012c	03 ce		 add	 ecx, esi
  0012e	8b 41 08	 mov	 eax, DWORD PTR [ecx+8]
  00131	83 c8 04	 or	 eax, 4
  00134	50		 push	 eax
  00135	e8 00 00 00 00	 call	 ?clear@?$basic_ios@DV?$char_traits@D@_STL@@@_STL@@QAEXH@Z ; _STL::basic_ios<char,_STL::char_traits<char> >::clear
$L103064:

; 284  :   }
; 285  : }

  0013a	8b 4d dc	 mov	 ecx, DWORD PTR ___sentry$[ebp]
  0013d	8b 01		 mov	 eax, DWORD PTR [ecx]
  0013f	8b 40 04	 mov	 eax, DWORD PTR [eax+4]
  00142	83 4d fc ff	 or	 DWORD PTR __$EHRec$[ebp+12], -1
  00146	f6 44 08 05 20	 test	 BYTE PTR [eax+ecx+5], 32 ; 00000020H
  0014b	74 05		 je	 SHORT $L103078
  0014d	e8 00 00 00 00	 call	 ?flush@?$basic_ostream@DV?$char_traits@D@_STL@@@_STL@@QAEAAV12@XZ ; _STL::basic_ostream<char,_STL::char_traits<char> >::flush
$L103078:
  00152	8b 4d f4	 mov	 ecx, DWORD PTR __$EHRec$[ebp+4]
  00155	5f		 pop	 edi
  00156	5e		 pop	 esi
  00157	64 89 0d 00 00
	00 00		 mov	 DWORD PTR fs:__except_list, ecx
  0015e	5b		 pop	 ebx
  0015f	c9		 leave
  00160	c2 04 00	 ret	 4
_TEXT	ENDS
;	COMDAT text$x
text$x	SEGMENT
$L102991:
  00000	8d 4d dc	 lea	 ecx, DWORD PTR ___sentry$[ebp]
  00003	e9 00 00 00 00	 jmp	 ??1sentry@?$basic_ostream@DV?$char_traits@D@_STL@@@_STL@@QAE@XZ ; _STL::basic_ostream<char,_STL::char_traits<char> >::sentry::~sentry
__ehhandler$?_M_put_nowiden@?$basic_ostream@DV?$char_traits@D@_STL@@@_STL@@QAEXPBD@Z:
  00008	b8 00 00 00 00	 mov	 eax, OFFSET FLAT:$T103080
  0000d	e9 00 00 00 00	 jmp	 ___CxxFrameHandler
text$x	ENDS
?_M_put_nowiden@?$basic_ostream@DV?$char_traits@D@_STL@@@_STL@@QAEXPBD@Z ENDP ; _STL::basic_ostream<char,_STL::char_traits<char> >::_M_put_nowiden
PUBLIC	?put@?$basic_ostream@DV?$char_traits@D@_STL@@@_STL@@QAEAAV12@D@Z ; _STL::basic_ostream<char,_STL::char_traits<char> >::put
;	COMDAT xdata$x
; File c:\stlport-4.6.1\stlport\stl\_ios_base.h
xdata$x	SEGMENT
$T103144 DD	0ffffffffH
	DD	FLAT:$L103095
	DD	00H
	DD	00H
	DD	00H
	DD	00H
$T103146 DD	00H
	DD	00H
	DD	00H
	DD	FLAT:$L103094
$T103145 DD	01H
	DD	01H
	DD	02H
	DD	01H
	DD	FLAT:$T103146
$T103140 DD	019930520H
	DD	03H
	DD	FLAT:$T103144
	DD	01H
	DD	FLAT:$T103145
	DD	2 DUP(00H)
; Function compile flags: /Ogsy
; File c:\stlport-4.6.1\stlport\stl\_ostream.c
xdata$x	ENDS
;	COMDAT ?put@?$basic_ostream@DV?$char_traits@D@_STL@@@_STL@@QAEAAV12@D@Z
_TEXT	SEGMENT
___sentry$ = -32					; size = 8
_this$ = -24						; size = 4
___failed$ = -17					; size = 1
__$EHRec$ = -16						; size = 16
___c$ = 8						; size = 1
?put@?$basic_ostream@DV?$char_traits@D@_STL@@@_STL@@QAEAAV12@D@Z PROC NEAR ; _STL::basic_ostream<char,_STL::char_traits<char> >::put, COMDAT
; _this$ = ecx

; 336  : {

  00000	b8 00 00 00 00	 mov	 eax, __ehhandler$?put@?$basic_ostream@DV?$char_traits@D@_STL@@@_STL@@QAEAAV12@D@Z
  00005	e8 00 00 00 00	 call	 __EH_prolog
  0000a	83 ec 14	 sub	 esp, 20			; 00000014H
  0000d	53		 push	 ebx
  0000e	56		 push	 esi
  0000f	57		 push	 edi
  00010	8b f1		 mov	 esi, ecx
  00012	89 65 f0	 mov	 DWORD PTR __$EHRec$[ebp], esp

; 337  :   sentry __sentry(*this);

  00015	56		 push	 esi
  00016	8d 4d e0	 lea	 ecx, DWORD PTR ___sentry$[ebp]
  00019	89 75 e8	 mov	 DWORD PTR _this$[ebp], esi
  0001c	e8 00 00 00 00	 call	 ??0sentry@?$basic_ostream@DV?$char_traits@D@_STL@@@_STL@@QAE@AAV12@@Z ; _STL::basic_ostream<char,_STL::char_traits<char> >::sentry::sentry
  00021	83 65 fc 00	 and	 DWORD PTR __$EHRec$[ebp+12], 0

; 338  :   bool __failed = true;
; 339  : 
; 340  :   if (__sentry) {

  00025	80 7d e4 00	 cmp	 BYTE PTR ___sentry$[ebp+4], 0
  00029	c6 45 ef 01	 mov	 BYTE PTR ___failed$[ebp], 1
  0002d	74 38		 je	 SHORT $L99978

; 341  :     _STLP_TRY {
; 342  :       __failed = this->_S_eof(this->rdbuf()->sputc(__c));

  0002f	8b 06		 mov	 eax, DWORD PTR [esi]
  00031	8b 40 04	 mov	 eax, DWORD PTR [eax+4]
  00034	ff 75 08	 push	 DWORD PTR ___c$[ebp]
  00037	8b 4c 30 58	 mov	 ecx, DWORD PTR [eax+esi+88]
  0003b	c6 45 fc 01	 mov	 BYTE PTR __$EHRec$[ebp+12], 1
  0003f	e8 00 00 00 00	 call	 ?sputc@?$basic_streambuf@DV?$char_traits@D@_STL@@@_STL@@QAEHD@Z ; _STL::basic_streambuf<char,_STL::char_traits<char> >::sputc
  00044	83 f8 ff	 cmp	 eax, -1
  00047	0f 94 45 ef	 sete	 BYTE PTR ___failed$[ebp]
  0004b	eb 1a		 jmp	 SHORT $L99978
$L103094:

; 343  :     }
; 344  :     _STLP_CATCH_ALL {
; 345  :       this->_M_handle_exception(ios_base::badbit);

  0004d	8b 45 e8	 mov	 eax, DWORD PTR _this$[ebp]
  00050	8b 08		 mov	 ecx, DWORD PTR [eax]
  00052	8b 49 04	 mov	 ecx, DWORD PTR [ecx+4]
  00055	6a 01		 push	 1
  00057	03 c8		 add	 ecx, eax
  00059	e8 00 00 00 00	 call	 ?_M_handle_exception@?$basic_ios@DV?$char_traits@D@_STL@@@_STL@@QAEXH@Z ; _STL::basic_ios<char,_STL::char_traits<char> >::_M_handle_exception

; 346  :     }

  0005e	b8 00 00 00 00	 mov	 eax, $L103141
  00063	c3		 ret	 0
$L103141:
  00064	8b 75 e8	 mov	 esi, DWORD PTR _this$[ebp]
$L99978:
  00067	83 65 fc 00	 and	 DWORD PTR __$EHRec$[ebp+12], 0

; 347  :   }
; 348  : 
; 349  :   if (__failed)

  0006b	80 7d ef 00	 cmp	 BYTE PTR ___failed$[ebp], 0
  0006f	74 13		 je	 SHORT $L103124

; 350  :     this->setstate(ios_base::badbit);

  00071	8b 06		 mov	 eax, DWORD PTR [esi]
  00073	8b 48 04	 mov	 ecx, DWORD PTR [eax+4]
  00076	03 ce		 add	 ecx, esi
  00078	8b 41 08	 mov	 eax, DWORD PTR [ecx+8]
  0007b	83 c8 01	 or	 eax, 1
  0007e	50		 push	 eax
  0007f	e8 00 00 00 00	 call	 ?clear@?$basic_ios@DV?$char_traits@D@_STL@@@_STL@@QAEXH@Z ; _STL::basic_ios<char,_STL::char_traits<char> >::clear
$L103124:

; 351  : 
; 352  :   return *this;

  00084	8b 4d e0	 mov	 ecx, DWORD PTR ___sentry$[ebp]
  00087	8b 01		 mov	 eax, DWORD PTR [ecx]
  00089	8b 40 04	 mov	 eax, DWORD PTR [eax+4]
  0008c	83 4d fc ff	 or	 DWORD PTR __$EHRec$[ebp+12], -1
  00090	f6 44 08 05 20	 test	 BYTE PTR [eax+ecx+5], 32 ; 00000020H
  00095	74 05		 je	 SHORT $L103138
  00097	e8 00 00 00 00	 call	 ?flush@?$basic_ostream@DV?$char_traits@D@_STL@@@_STL@@QAEAAV12@XZ ; _STL::basic_ostream<char,_STL::char_traits<char> >::flush
$L103138:

; 353  : }

  0009c	8b 4d f4	 mov	 ecx, DWORD PTR __$EHRec$[ebp+4]
  0009f	5f		 pop	 edi
  000a0	8b c6		 mov	 eax, esi
  000a2	5e		 pop	 esi
  000a3	64 89 0d 00 00
	00 00		 mov	 DWORD PTR fs:__except_list, ecx
  000aa	5b		 pop	 ebx
  000ab	c9		 leave
  000ac	c2 04 00	 ret	 4
_TEXT	ENDS
;	COMDAT text$x
text$x	SEGMENT
$L103095:
  00000	8d 4d e0	 lea	 ecx, DWORD PTR ___sentry$[ebp]
  00003	e9 00 00 00 00	 jmp	 ??1sentry@?$basic_ostream@DV?$char_traits@D@_STL@@@_STL@@QAE@XZ ; _STL::basic_ostream<char,_STL::char_traits<char> >::sentry::~sentry
__ehhandler$?put@?$basic_ostream@DV?$char_traits@D@_STL@@@_STL@@QAEAAV12@D@Z:
  00008	b8 00 00 00 00	 mov	 eax, OFFSET FLAT:$T103140
  0000d	e9 00 00 00 00	 jmp	 ___CxxFrameHandler
text$x	ENDS
?put@?$basic_ostream@DV?$char_traits@D@_STL@@@_STL@@QAEAAV12@D@Z ENDP ; _STL::basic_ostream<char,_STL::char_traits<char> >::put
PUBLIC	??$_M_append_dispatch@PAD@?$basic_string@DV?$char_traits@D@_STL@@V?$allocator@D@2@@_STL@@AAEAAV01@PAD0ABU__false_type@1@@Z ; _STL::basic_string<char,_STL::char_traits<char>,_STL::allocator<char> >::_M_append_dispatch<char *>
; Function compile flags: /Ogsy
; File c:\stlport-4.6.1\stlport\stl\_string.h
;	COMDAT ??$_M_append_dispatch@PAD@?$basic_string@DV?$char_traits@D@_STL@@V?$allocator@D@2@@_STL@@AAEAAV01@PAD0ABU__false_type@1@@Z
_TEXT	SEGMENT
___f$ = 8						; size = 4
___l$ = 12						; size = 4
$T103151 = 15						; size = 1
___formal$ = 16						; size = 4
??$_M_append_dispatch@PAD@?$basic_string@DV?$char_traits@D@_STL@@V?$allocator@D@2@@_STL@@AAEAAV01@PAD0ABU__false_type@1@@Z PROC NEAR ; _STL::basic_string<char,_STL::char_traits<char>,_STL::allocator<char> >::_M_append_dispatch<char *>, COMDAT
; _this$ = ecx

; 586  :   template <class _InputIter> _Self& _M_append_dispatch(_InputIter __f, _InputIter __l,

  00000	55		 push	 ebp
  00001	8b ec		 mov	 ebp, esp

; 587  :                                    const __false_type&) {
; 588  :     return append(__f, __l, _STLP_ITERATOR_CATEGORY(__f, _InputIter));

  00003	8d 45 0f	 lea	 eax, DWORD PTR $T103151[ebp]
  00006	50		 push	 eax
  00007	ff 75 0c	 push	 DWORD PTR ___l$[ebp]
  0000a	ff 75 08	 push	 DWORD PTR ___f$[ebp]
  0000d	e8 00 00 00 00	 call	 ??$append@PAD@?$basic_string@DV?$char_traits@D@_STL@@V?$allocator@D@2@@_STL@@AAEAAV01@PAD0ABUforward_iterator_tag@1@@Z ; _STL::basic_string<char,_STL::char_traits<char>,_STL::allocator<char> >::append<char *>

; 589  :   }

  00012	5d		 pop	 ebp
  00013	c2 0c 00	 ret	 12			; 0000000cH
??$_M_append_dispatch@PAD@?$basic_string@DV?$char_traits@D@_STL@@V?$allocator@D@2@@_STL@@AAEAAV01@PAD0ABU__false_type@1@@Z ENDP ; _STL::basic_string<char,_STL::char_traits<char>,_STL::allocator<char> >::_M_append_dispatch<char *>
_TEXT	ENDS
PUBLIC	??1?$basic_string@DV?$char_traits@D@_STL@@V?$allocator@D@2@@_STL@@QAE@XZ ; _STL::basic_string<char,_STL::char_traits<char>,_STL::allocator<char> >::~basic_string<char,_STL::char_traits<char>,_STL::allocator<char> >
; Function compile flags: /Ogsy
;	COMDAT ??1?$basic_string@DV?$char_traits@D@_STL@@V?$allocator@D@2@@_STL@@QAE@XZ
_TEXT	SEGMENT
??1?$basic_string@DV?$char_traits@D@_STL@@V?$allocator@D@2@@_STL@@QAE@XZ PROC NEAR ; _STL::basic_string<char,_STL::char_traits<char>,_STL::allocator<char> >::~basic_string<char,_STL::char_traits<char>,_STL::allocator<char> >, COMDAT
; _this$ = ecx

; 305  :   ~basic_string() { _STLP_STD::_Destroy(this->_M_start, this->_M_finish + 1); }

  00000	e9 00 00 00 00	 jmp	 ?_M_deallocate_block@?$_String_base@DV?$allocator@D@_STL@@@_STL@@QAEXXZ ; _STL::_String_base<char,_STL::allocator<char> >::_M_deallocate_block
??1?$basic_string@DV?$char_traits@D@_STL@@V?$allocator@D@2@@_STL@@QAE@XZ ENDP ; _STL::basic_string<char,_STL::char_traits<char>,_STL::allocator<char> >::~basic_string<char,_STL::char_traits<char>,_STL::allocator<char> >
_TEXT	ENDS
PUBLIC	??$_M_range_initialize@PAD@?$basic_string@DV?$char_traits@D@_STL@@V?$allocator@D@2@@_STL@@AAEXPAD0@Z ; _STL::basic_string<char,_STL::char_traits<char>,_STL::allocator<char> >::_M_range_initialize<char *>
; Function compile flags: /Ogsy
;	COMDAT ??$_M_range_initialize@PAD@?$basic_string@DV?$char_traits@D@_STL@@V?$allocator@D@2@@_STL@@AAEXPAD0@Z
_TEXT	SEGMENT
___f$ = 8						; size = 4
___l$ = 12						; size = 4
$T103176 = 15						; size = 1
??$_M_range_initialize@PAD@?$basic_string@DV?$char_traits@D@_STL@@V?$allocator@D@2@@_STL@@AAEXPAD0@Z PROC NEAR ; _STL::basic_string<char,_STL::char_traits<char>,_STL::allocator<char> >::_M_range_initialize<char *>, COMDAT
; _this$ = ecx

; 390  :   template <class _InputIter> void _M_range_initialize(_InputIter __f, _InputIter __l) {

  00000	55		 push	 ebp
  00001	8b ec		 mov	 ebp, esp

; 391  :     _M_range_initialize(__f, __l, _STLP_ITERATOR_CATEGORY(__f, _InputIter));

  00003	8d 45 0f	 lea	 eax, DWORD PTR $T103176[ebp]
  00006	50		 push	 eax
  00007	ff 75 0c	 push	 DWORD PTR ___l$[ebp]
  0000a	ff 75 08	 push	 DWORD PTR ___f$[ebp]
  0000d	e8 00 00 00 00	 call	 ??$_M_range_initialize@PAD@?$basic_string@DV?$char_traits@D@_STL@@V?$allocator@D@2@@_STL@@AAEXPAD0ABUforward_iterator_tag@1@@Z ; _STL::basic_string<char,_STL::char_traits<char>,_STL::allocator<char> >::_M_range_initialize<char *>

; 392  :   }

  00012	5d		 pop	 ebp
  00013	c2 08 00	 ret	 8
??$_M_range_initialize@PAD@?$basic_string@DV?$char_traits@D@_STL@@V?$allocator@D@2@@_STL@@AAEXPAD0@Z ENDP ; _STL::basic_string<char,_STL::char_traits<char>,_STL::allocator<char> >::_M_range_initialize<char *>
_TEXT	ENDS
PUBLIC	??$?6V?$char_traits@D@_STL@@@_STL@@YAAAV?$basic_ostream@DV?$char_traits@D@_STL@@@0@AAV10@PBD@Z ; _STL::operator<<<_STL::char_traits<char> >
; Function compile flags: /Ogsy
; File c:\stlport-4.6.1\stlport\stl\_ostream.h
;	COMDAT ??$?6V?$char_traits@D@_STL@@@_STL@@YAAAV?$basic_ostream@DV?$char_traits@D@_STL@@@0@AAV10@PBD@Z
_TEXT	SEGMENT
___os$ = 8						; size = 4
___s$ = 12						; size = 4
??$?6V?$char_traits@D@_STL@@@_STL@@YAAAV?$basic_ostream@DV?$char_traits@D@_STL@@@0@AAV10@PBD@Z PROC NEAR ; _STL::operator<<<_STL::char_traits<char> >, COMDAT

; 300  :   __os._M_put_nowiden(__s);

  00000	ff 74 24 08	 push	 DWORD PTR ___s$[esp-4]
  00004	8b 4c 24 08	 mov	 ecx, DWORD PTR ___os$[esp]
  00008	e8 00 00 00 00	 call	 ?_M_put_nowiden@?$basic_ostream@DV?$char_traits@D@_STL@@@_STL@@QAEXPBD@Z ; _STL::basic_ostream<char,_STL::char_traits<char> >::_M_put_nowiden

; 301  :   return __os;

  0000d	8b 44 24 04	 mov	 eax, DWORD PTR ___os$[esp-4]

; 302  : }

  00011	c3		 ret	 0
??$?6V?$char_traits@D@_STL@@@_STL@@YAAAV?$basic_ostream@DV?$char_traits@D@_STL@@@0@AAV10@PBD@Z ENDP ; _STL::operator<<<_STL::char_traits<char> >
_TEXT	ENDS
PUBLIC	??$endl@DV?$char_traits@D@_STL@@@_STL@@YAAAV?$basic_ostream@DV?$char_traits@D@_STL@@@0@AAV10@@Z ; _STL::endl<char,_STL::char_traits<char> >
; Function compile flags: /Ogsy
;	COMDAT ??$endl@DV?$char_traits@D@_STL@@@_STL@@YAAAV?$basic_ostream@DV?$char_traits@D@_STL@@@0@AAV10@@Z
_TEXT	SEGMENT
___os$ = 8						; size = 4
??$endl@DV?$char_traits@D@_STL@@@_STL@@YAAAV?$basic_ostream@DV?$char_traits@D@_STL@@@0@AAV10@@Z PROC NEAR ; _STL::endl<char,_STL::char_traits<char> >, COMDAT

; 324  : endl(basic_ostream<_CharT, _Traits>& __os) {

  00000	56		 push	 esi

; 325  :   __os.put(__os.widen('\n'));

  00001	8b 74 24 08	 mov	 esi, DWORD PTR ___os$[esp]
  00005	8b 06		 mov	 eax, DWORD PTR [esi]
  00007	8b 40 04	 mov	 eax, DWORD PTR [eax+4]
  0000a	8b 4c 30 40	 mov	 ecx, DWORD PTR [eax+esi+64]
  0000e	8b 01		 mov	 eax, DWORD PTR [ecx]
  00010	6a 0a		 push	 10			; 0000000aH
  00012	ff 50 18	 call	 DWORD PTR [eax+24]
  00015	8b ce		 mov	 ecx, esi
  00017	50		 push	 eax
  00018	e8 00 00 00 00	 call	 ?put@?$basic_ostream@DV?$char_traits@D@_STL@@@_STL@@QAEAAV12@D@Z ; _STL::basic_ostream<char,_STL::char_traits<char> >::put

; 326  :   __os.flush();

  0001d	8b ce		 mov	 ecx, esi
  0001f	e8 00 00 00 00	 call	 ?flush@?$basic_ostream@DV?$char_traits@D@_STL@@@_STL@@QAEAAV12@XZ ; _STL::basic_ostream<char,_STL::char_traits<char> >::flush

; 327  :   return __os;

  00024	8b c6		 mov	 eax, esi
  00026	5e		 pop	 esi

; 328  : }

  00027	c3		 ret	 0
??$endl@DV?$char_traits@D@_STL@@@_STL@@YAAAV?$basic_ostream@DV?$char_traits@D@_STL@@@0@AAV10@@Z ENDP ; _STL::endl<char,_STL::char_traits<char> >
_TEXT	ENDS
PUBLIC	??_G?$basic_string@DV?$char_traits@D@_STL@@V?$allocator@D@2@@_STL@@QAEPAXI@Z ; _STL::basic_string<char,_STL::char_traits<char>,_STL::allocator<char> >::`scalar deleting destructor'
; Function compile flags: /Ogsy
;	COMDAT ??_G?$basic_string@DV?$char_traits@D@_STL@@V?$allocator@D@2@@_STL@@QAEPAXI@Z
_TEXT	SEGMENT
___flags$ = 8						; size = 4
??_G?$basic_string@DV?$char_traits@D@_STL@@V?$allocator@D@2@@_STL@@QAEPAXI@Z PROC NEAR ; _STL::basic_string<char,_STL::char_traits<char>,_STL::allocator<char> >::`scalar deleting destructor', COMDAT
; _this$ = ecx
  00000	56		 push	 esi
  00001	8b f1		 mov	 esi, ecx
  00003	e8 00 00 00 00	 call	 ??1?$basic_string@DV?$char_traits@D@_STL@@V?$allocator@D@2@@_STL@@QAE@XZ ; _STL::basic_string<char,_STL::char_traits<char>,_STL::allocator<char> >::~basic_string<char,_STL::char_traits<char>,_STL::allocator<char> >
  00008	f6 44 24 08 01	 test	 BYTE PTR ___flags$[esp], 1
  0000d	74 07		 je	 SHORT $L99881
  0000f	56		 push	 esi
  00010	e8 00 00 00 00	 call	 ??3@YAXPAX@Z		; operator delete
  00015	59		 pop	 ecx
$L99881:
  00016	8b c6		 mov	 eax, esi
  00018	5e		 pop	 esi
  00019	c2 04 00	 ret	 4
??_G?$basic_string@DV?$char_traits@D@_STL@@V?$allocator@D@2@@_STL@@QAEPAXI@Z ENDP ; _STL::basic_string<char,_STL::char_traits<char>,_STL::allocator<char> >::`scalar deleting destructor'
_TEXT	ENDS
PUBLIC	??$append@PAD@?$basic_string@DV?$char_traits@D@_STL@@V?$allocator@D@2@@_STL@@QAEAAV01@PAD0@Z ; _STL::basic_string<char,_STL::char_traits<char>,_STL::allocator<char> >::append<char *>
; Function compile flags: /Ogsy
; File c:\stlport-4.6.1\stlport\stl\_string.h
;	COMDAT ??$append@PAD@?$basic_string@DV?$char_traits@D@_STL@@V?$allocator@D@2@@_STL@@QAEAAV01@PAD0@Z
_TEXT	SEGMENT
___first$ = 8						; size = 4
___last$ = 12						; size = 4
$T103207 = 15						; size = 1
??$append@PAD@?$basic_string@DV?$char_traits@D@_STL@@V?$allocator@D@2@@_STL@@QAEAAV01@PAD0@Z PROC NEAR ; _STL::basic_string<char,_STL::char_traits<char>,_STL::allocator<char> >::append<char *>, COMDAT
; _this$ = ecx

; 506  :   template <class _InputIter> _Self& append(_InputIter __first, _InputIter __last) {

  00000	55		 push	 ebp
  00001	8b ec		 mov	 ebp, esp

; 507  :     typedef typename _Is_integer<_InputIter>::_Integral _Integral;
; 508  :     return _M_append_dispatch(__first, __last, _Integral());

  00003	8d 45 0f	 lea	 eax, DWORD PTR $T103207[ebp]
  00006	50		 push	 eax
  00007	ff 75 0c	 push	 DWORD PTR ___last$[ebp]
  0000a	ff 75 08	 push	 DWORD PTR ___first$[ebp]
  0000d	e8 00 00 00 00	 call	 ??$append@PAD@?$basic_string@DV?$char_traits@D@_STL@@V?$allocator@D@2@@_STL@@AAEAAV01@PAD0ABUforward_iterator_tag@1@@Z ; _STL::basic_string<char,_STL::char_traits<char>,_STL::allocator<char> >::append<char *>

; 509  :   }

  00012	5d		 pop	 ebp
  00013	c2 08 00	 ret	 8
??$append@PAD@?$basic_string@DV?$char_traits@D@_STL@@V?$allocator@D@2@@_STL@@QAEAAV01@PAD0@Z ENDP ; _STL::basic_string<char,_STL::char_traits<char>,_STL::allocator<char> >::append<char *>
_TEXT	ENDS
PUBLIC	?grouping@?$numpunct@D@_STL@@QBE?AV?$basic_string@DV?$char_traits@D@_STL@@V?$allocator@D@2@@2@XZ ; _STL::numpunct<char>::grouping
; Function compile flags: /Ogsy
; File c:\stlport-4.6.1\stlport\stl\_numpunct.h
;	COMDAT ?grouping@?$numpunct@D@_STL@@QBE?AV?$basic_string@DV?$char_traits@D@_STL@@V?$allocator@D@2@@2@XZ
_TEXT	SEGMENT
$T103212 = -4						; size = 4
___$ReturnUdt$ = 8					; size = 4
?grouping@?$numpunct@D@_STL@@QBE?AV?$basic_string@DV?$char_traits@D@_STL@@V?$allocator@D@2@@2@XZ PROC NEAR ; _STL::numpunct<char>::grouping, COMDAT
; _this$ = ecx

; 62   :   string grouping() const { return do_grouping(); }

  00000	55		 push	 ebp
  00001	8b ec		 mov	 ebp, esp
  00003	51		 push	 ecx
  00004	ff 75 08	 push	 DWORD PTR ___$ReturnUdt$[ebp]
  00007	8b 01		 mov	 eax, DWORD PTR [ecx]
  00009	83 65 fc 00	 and	 DWORD PTR $T103212[ebp], 0
  0000d	ff 50 0c	 call	 DWORD PTR [eax+12]
  00010	8b 45 08	 mov	 eax, DWORD PTR ___$ReturnUdt$[ebp]
  00013	c9		 leave
  00014	c2 04 00	 ret	 4
?grouping@?$numpunct@D@_STL@@QBE?AV?$basic_string@DV?$char_traits@D@_STL@@V?$allocator@D@2@@2@XZ ENDP ; _STL::numpunct<char>::grouping
_TEXT	ENDS
PUBLIC	??0?$basic_string@DV?$char_traits@D@_STL@@V?$allocator@D@2@@_STL@@QAE@ABV01@@Z ; _STL::basic_string<char,_STL::char_traits<char>,_STL::allocator<char> >::basic_string<char,_STL::char_traits<char>,_STL::allocator<char> >
;	COMDAT xdata$x
; File c:\stlport-4.6.1\stlport\stl\_string.h
xdata$x	SEGMENT
$T103231 DD	0ffffffffH
	DD	FLAT:$L103217
$T103229 DD	019930520H
	DD	01H
	DD	FLAT:$T103231
	DD	2 DUP(00H)
	DD	2 DUP(00H)
; Function compile flags: /Ogsy
; File c:\stlport-4.6.1\stlport\stl\_string.c
xdata$x	ENDS
;	COMDAT ??0?$basic_string@DV?$char_traits@D@_STL@@V?$allocator@D@2@@_STL@@QAE@ABV01@@Z
_TEXT	SEGMENT
_this$ = -16						; size = 4
__$EHRec$ = -12						; size = 12
___s$ = 8						; size = 4
$T103225 = 11						; size = 1
$T103216 = 11						; size = 1
??0?$basic_string@DV?$char_traits@D@_STL@@V?$allocator@D@2@@_STL@@QAE@ABV01@@Z PROC NEAR ; _STL::basic_string<char,_STL::char_traits<char>,_STL::allocator<char> >::basic_string<char,_STL::char_traits<char>,_STL::allocator<char> >, COMDAT
; _this$ = ecx

; 560  : {  

  00000	b8 00 00 00 00	 mov	 eax, __ehhandler$??0?$basic_string@DV?$char_traits@D@_STL@@V?$allocator@D@2@@_STL@@QAE@ABV01@@Z
  00005	e8 00 00 00 00	 call	 __EH_prolog
  0000a	51		 push	 ecx
  0000b	56		 push	 esi
  0000c	8b 75 08	 mov	 esi, DWORD PTR ___s$[ebp]
  0000f	57		 push	 edi
  00010	8b f9		 mov	 edi, ecx
  00012	8d 45 0b	 lea	 eax, DWORD PTR $T103216[ebp]
  00015	50		 push	 eax
  00016	8b ce		 mov	 ecx, esi
  00018	89 7d f0	 mov	 DWORD PTR _this$[ebp], edi
  0001b	e8 00 00 00 00	 call	 ?get_allocator@?$basic_string@DV?$char_traits@D@_STL@@V?$allocator@D@2@@_STL@@QBE?AV?$allocator@D@2@XZ ; _STL::basic_string<char,_STL::char_traits<char>,_STL::allocator<char> >::get_allocator
  00020	50		 push	 eax
  00021	8b cf		 mov	 ecx, edi
  00023	e8 00 00 00 00	 call	 ??0?$_String_base@DV?$allocator@D@_STL@@@_STL@@QAE@ABV?$allocator@D@1@@Z ; _STL::_String_base<char,_STL::allocator<char> >::_String_base<char,_STL::allocator<char> >
  00028	83 65 fc 00	 and	 DWORD PTR __$EHRec$[ebp+8], 0

; 561  :   _M_range_initialize(__s._M_start, __s._M_finish);  

  0002c	8d 45 0b	 lea	 eax, DWORD PTR $T103225[ebp]
  0002f	50		 push	 eax
  00030	ff 76 04	 push	 DWORD PTR [esi+4]
  00033	8b cf		 mov	 ecx, edi
  00035	ff 36		 push	 DWORD PTR [esi]
  00037	e8 00 00 00 00	 call	 ??$_M_range_initialize@PAD@?$basic_string@DV?$char_traits@D@_STL@@V?$allocator@D@2@@_STL@@AAEXPAD0ABUforward_iterator_tag@1@@Z ; _STL::basic_string<char,_STL::char_traits<char>,_STL::allocator<char> >::_M_range_initialize<char *>

; 562  : } 

  0003c	8b 4d f4	 mov	 ecx, DWORD PTR __$EHRec$[ebp]
  0003f	8b c7		 mov	 eax, edi
  00041	5f		 pop	 edi
  00042	5e		 pop	 esi
  00043	64 89 0d 00 00
	00 00		 mov	 DWORD PTR fs:__except_list, ecx
  0004a	c9		 leave
  0004b	c2 04 00	 ret	 4
_TEXT	ENDS
;	COMDAT text$x
text$x	SEGMENT
$L103217:
  00000	8b 4d f0	 mov	 ecx, DWORD PTR _this$[ebp]
  00003	e9 00 00 00 00	 jmp	 ??1?$_String_base@DV?$allocator@D@_STL@@@_STL@@QAE@XZ ; _STL::_String_base<char,_STL::allocator<char> >::~_String_base<char,_STL::allocator<char> >
__ehhandler$??0?$basic_string@DV?$char_traits@D@_STL@@V?$allocator@D@2@@_STL@@QAE@ABV01@@Z:
  00008	b8 00 00 00 00	 mov	 eax, OFFSET FLAT:$T103229
  0000d	e9 00 00 00 00	 jmp	 ___CxxFrameHandler
text$x	ENDS
??0?$basic_string@DV?$char_traits@D@_STL@@V?$allocator@D@2@@_STL@@QAE@ABV01@@Z ENDP ; _STL::basic_string<char,_STL::char_traits<char>,_STL::allocator<char> >::basic_string<char,_STL::char_traits<char>,_STL::allocator<char> >
PUBLIC	??$_Construct@V?$basic_string@DV?$char_traits@D@_STL@@V?$allocator@D@2@@_STL@@V12@@_STL@@YAXPAV?$basic_string@DV?$char_traits@D@_STL@@V?$allocator@D@2@@0@ABV10@@Z ; _STL::_Construct<_STL::basic_string<char,_STL::char_traits<char>,_STL::allocator<char> >,_STL::basic_string<char,_STL::char_traits<char>,_STL::allocator<char> > >
;	COMDAT xdata$x
; File c:\program files\microsoft visual studio .net 2003\vc7\include\new
xdata$x	SEGMENT
$T103247 DD	0ffffffffH
	DD	FLAT:$L103240
$T103245 DD	019930520H
	DD	01H
	DD	FLAT:$T103247
	DD	2 DUP(00H)
	DD	2 DUP(00H)
; Function compile flags: /Ogsy
; File c:\stlport-4.6.1\stlport\stl\_construct.h
xdata$x	ENDS
;	COMDAT ??$_Construct@V?$basic_string@DV?$char_traits@D@_STL@@V?$allocator@D@2@@_STL@@V12@@_STL@@YAXPAV?$basic_string@DV?$char_traits@D@_STL@@V?$allocator@D@2@@0@ABV10@@Z
_TEXT	SEGMENT
$T103237 = -16						; size = 4
__$EHRec$ = -12						; size = 12
___p$ = 8						; size = 4
___val$ = 12						; size = 4
??$_Construct@V?$basic_string@DV?$char_traits@D@_STL@@V?$allocator@D@2@@_STL@@V12@@_STL@@YAXPAV?$basic_string@DV?$char_traits@D@_STL@@V?$allocator@D@2@@0@ABV10@@Z PROC NEAR ; _STL::_Construct<_STL::basic_string<char,_STL::char_traits<char>,_STL::allocator<char> >,_STL::basic_string<char,_STL::char_traits<char>,_STL::allocator<char> > >, COMDAT

; 93   : inline void _Construct(_T1* __p, const _T2& __val) {

  00000	b8 00 00 00 00	 mov	 eax, __ehhandler$??$_Construct@V?$basic_string@DV?$char_traits@D@_STL@@V?$allocator@D@2@@_STL@@V12@@_STL@@YAXPAV?$basic_string@DV?$char_traits@D@_STL@@V?$allocator@D@2@@0@ABV10@@Z
  00005	e8 00 00 00 00	 call	 __EH_prolog
  0000a	51		 push	 ecx

; 94   : # ifdef _STLP_DEBUG_UNINITIALIZED
; 95   : 	memset((char*)__p, _STLP_SHRED_BYTE, sizeof(_T1));
; 96   : # endif
; 97   :     _STLP_PLACEMENT_NEW (__p) _T1(__val);

  0000b	8b 4d 08	 mov	 ecx, DWORD PTR ___p$[ebp]
  0000e	89 4d f0	 mov	 DWORD PTR $T103237[ebp], ecx
  00011	83 65 fc 00	 and	 DWORD PTR __$EHRec$[ebp+8], 0
  00015	85 c9		 test	 ecx, ecx
  00017	74 08		 je	 SHORT $L103238
  00019	ff 75 0c	 push	 DWORD PTR ___val$[ebp]
  0001c	e8 00 00 00 00	 call	 ??0?$basic_string@DV?$char_traits@D@_STL@@V?$allocator@D@2@@_STL@@QAE@ABV01@@Z ; _STL::basic_string<char,_STL::char_traits<char>,_STL::allocator<char> >::basic_string<char,_STL::char_traits<char>,_STL::allocator<char> >
$L103238:

; 98   : }

  00021	8b 4d f4	 mov	 ecx, DWORD PTR __$EHRec$[ebp]
  00024	64 89 0d 00 00
	00 00		 mov	 DWORD PTR fs:__except_list, ecx
  0002b	c9		 leave
  0002c	c3		 ret	 0
_TEXT	ENDS
;	COMDAT text$x
text$x	SEGMENT
$L103240:
  00000	ff 75 08	 push	 DWORD PTR ___p$[ebp]
  00003	ff 75 f0	 push	 DWORD PTR $T103237[ebp]
  00006	e8 00 00 00 00	 call	 ??3@YAXPAX0@Z		; operator delete
  0000b	59		 pop	 ecx
  0000c	59		 pop	 ecx
  0000d	c3		 ret	 0
__ehhandler$??$_Construct@V?$basic_string@DV?$char_traits@D@_STL@@V?$allocator@D@2@@_STL@@V12@@_STL@@YAXPAV?$basic_string@DV?$char_traits@D@_STL@@V?$allocator@D@2@@0@ABV10@@Z:
  0000e	b8 00 00 00 00	 mov	 eax, OFFSET FLAT:$T103245
  00013	e9 00 00 00 00	 jmp	 ___CxxFrameHandler
text$x	ENDS
??$_Construct@V?$basic_string@DV?$char_traits@D@_STL@@V?$allocator@D@2@@_STL@@V12@@_STL@@YAXPAV?$basic_string@DV?$char_traits@D@_STL@@V?$allocator@D@2@@0@ABV10@@Z ENDP ; _STL::_Construct<_STL::basic_string<char,_STL::char_traits<char>,_STL::allocator<char> >,_STL::basic_string<char,_STL::char_traits<char>,_STL::allocator<char> > >
PUBLIC	??$_Destroy@V?$basic_string@DV?$char_traits@D@_STL@@V?$allocator@D@2@@_STL@@@_STL@@YAXPAV?$basic_string@DV?$char_traits@D@_STL@@V?$allocator@D@2@@0@@Z ; _STL::_Destroy<_STL::basic_string<char,_STL::char_traits<char>,_STL::allocator<char> > >
; Function compile flags: /Ogsy
;	COMDAT ??$_Destroy@V?$basic_string@DV?$char_traits@D@_STL@@V?$allocator@D@2@@_STL@@@_STL@@YAXPAV?$basic_string@DV?$char_traits@D@_STL@@V?$allocator@D@2@@0@@Z
_TEXT	SEGMENT
___pointer$ = 8						; size = 4
??$_Destroy@V?$basic_string@DV?$char_traits@D@_STL@@V?$allocator@D@2@@_STL@@@_STL@@YAXPAV?$basic_string@DV?$char_traits@D@_STL@@V?$allocator@D@2@@0@@Z PROC NEAR ; _STL::_Destroy<_STL::basic_string<char,_STL::char_traits<char>,_STL::allocator<char> > >, COMDAT

; 57   : # if _MSC_VER >= 1010
; 58   :   __pointer;
; 59   : # endif	// _MSC_VER >= 1000
; 60   : # ifdef _STLP_TRIVIAL_DESTRUCTOR_BUG
; 61   :   typedef typename __type_traits<_Tp>::has_trivial_destructor _Trivial_destructor;
; 62   :   __destroy_aux(__pointer, _Trivial_destructor());
; 63   : # else
; 64   : #  if ( defined (__BORLANDC__) && ( __BORLANDC__ < 0x500 ) )
; 65   :     __pointer->_Tp::~_Tp();
; 66   : #  else
; 67   :     __pointer->~_Tp();

  00000	8b 4c 24 04	 mov	 ecx, DWORD PTR ___pointer$[esp-4]
  00004	e9 00 00 00 00	 jmp	 ??1?$basic_string@DV?$char_traits@D@_STL@@V?$allocator@D@2@@_STL@@QAE@XZ ; _STL::basic_string<char,_STL::char_traits<char>,_STL::allocator<char> >::~basic_string<char,_STL::char_traits<char>,_STL::allocator<char> >
??$_Destroy@V?$basic_string@DV?$char_traits@D@_STL@@V?$allocator@D@2@@_STL@@@_STL@@YAXPAV?$basic_string@DV?$char_traits@D@_STL@@V?$allocator@D@2@@0@@Z ENDP ; _STL::_Destroy<_STL::basic_string<char,_STL::char_traits<char>,_STL::allocator<char> > >
_TEXT	ENDS
PUBLIC	??$_M_assign_dispatch@PAD@?$basic_string@DV?$char_traits@D@_STL@@V?$allocator@D@2@@_STL@@AAEAAV01@PAD0ABU__false_type@1@@Z ; _STL::basic_string<char,_STL::char_traits<char>,_STL::allocator<char> >::_M_assign_dispatch<char *>
; Function compile flags: /Ogsy
; File c:\stlport-4.6.1\stlport\stl\_string.h
;	COMDAT ??$_M_assign_dispatch@PAD@?$basic_string@DV?$char_traits@D@_STL@@V?$allocator@D@2@@_STL@@AAEAAV01@PAD0ABU__false_type@1@@Z
_TEXT	SEGMENT
___f$ = 8						; size = 4
$T103278 = 11						; size = 1
___l$ = 12						; size = 4
___formal$ = 16						; size = 4
??$_M_assign_dispatch@PAD@?$basic_string@DV?$char_traits@D@_STL@@V?$allocator@D@2@@_STL@@AAEAAV01@PAD0ABU__false_type@1@@Z PROC NEAR ; _STL::basic_string<char,_STL::char_traits<char>,_STL::allocator<char> >::_M_assign_dispatch<char *>, COMDAT
; _this$ = ecx

; 624  :   _Self& _M_assign_dispatch(_InputIter __f, _InputIter __l,

  00000	55		 push	 ebp
  00001	8b ec		 mov	 ebp, esp
  00003	56		 push	 esi
  00004	8b f1		 mov	 esi, ecx

; 625  : 			    const __false_type&)  {
; 626  :     pointer __cur = this->_M_start;
; 627  :     while (__f != __l && __cur != this->_M_finish) {

  00006	8b 4d 08	 mov	 ecx, DWORD PTR ___f$[ebp]
  00009	8b 06		 mov	 eax, DWORD PTR [esi]
  0000b	57		 push	 edi
  0000c	8b 7d 0c	 mov	 edi, DWORD PTR ___l$[ebp]
  0000f	3b cf		 cmp	 ecx, edi
  00011	74 13		 je	 SHORT $L103281
$L99827:
  00013	3b 46 04	 cmp	 eax, DWORD PTR [esi+4]
  00016	74 0a		 je	 SHORT $L99828

; 628  :       _Traits::assign(*__cur, *__f);

  00018	8a 11		 mov	 dl, BYTE PTR [ecx]

; 629  :       ++__f;

  0001a	41		 inc	 ecx
  0001b	88 10		 mov	 BYTE PTR [eax], dl

; 630  :       ++__cur;

  0001d	40		 inc	 eax
  0001e	3b cf		 cmp	 ecx, edi
  00020	75 f1		 jne	 SHORT $L99827
$L99828:

; 631  :     }
; 632  :     if (__f == __l)

  00022	3b cf		 cmp	 ecx, edi
  00024	75 0d		 jne	 SHORT $L99829
$L103281:

; 633  :       erase(__cur, end());

  00026	ff 76 04	 push	 DWORD PTR [esi+4]
  00029	8b ce		 mov	 ecx, esi
  0002b	50		 push	 eax
  0002c	e8 00 00 00 00	 call	 ?erase@?$basic_string@DV?$char_traits@D@_STL@@V?$allocator@D@2@@_STL@@QAEPADPAD0@Z ; _STL::basic_string<char,_STL::char_traits<char>,_STL::allocator<char> >::erase

; 634  :     else

  00031	eb 0d		 jmp	 SHORT $L103273
$L99829:

; 635  :       append(__f, __l);

  00033	8d 45 0b	 lea	 eax, DWORD PTR $T103278[ebp]
  00036	50		 push	 eax
  00037	57		 push	 edi
  00038	51		 push	 ecx
  00039	8b ce		 mov	 ecx, esi
  0003b	e8 00 00 00 00	 call	 ??$append@PAD@?$basic_string@DV?$char_traits@D@_STL@@V?$allocator@D@2@@_STL@@AAEAAV01@PAD0ABUforward_iterator_tag@1@@Z ; _STL::basic_string<char,_STL::char_traits<char>,_STL::allocator<char> >::append<char *>
$L103273:
  00040	5f		 pop	 edi

; 636  :     return *this;

  00041	8b c6		 mov	 eax, esi
  00043	5e		 pop	 esi

; 637  :   }

  00044	5d		 pop	 ebp
  00045	c2 0c 00	 ret	 12			; 0000000cH
??$_M_assign_dispatch@PAD@?$basic_string@DV?$char_traits@D@_STL@@V?$allocator@D@2@@_STL@@AAEAAV01@PAD0ABU__false_type@1@@Z ENDP ; _STL::basic_string<char,_STL::char_traits<char>,_STL::allocator<char> >::_M_assign_dispatch<char *>
_TEXT	ENDS
PUBLIC	?_M_create_node@?$list@V?$basic_string@DV?$char_traits@D@_STL@@V?$allocator@D@2@@_STL@@V?$allocator@V?$basic_string@DV?$char_traits@D@_STL@@V?$allocator@D@2@@_STL@@@2@@_STL@@IAEPAU?$_List_node@V?$basic_string@DV?$char_traits@D@_STL@@V?$allocator@D@2@@_STL@@@2@ABV?$basic_string@DV?$char_traits@D@_STL@@V?$allocator@D@2@@2@@Z ; _STL::list<_STL::basic_string<char,_STL::char_traits<char>,_STL::allocator<char> >,_STL::allocator<_STL::basic_string<char,_STL::char_traits<char>,_STL::allocator<char> > > >::_M_create_node
;	COMDAT xdata$x
; File c:\stlport-4.6.1\stlport\stl\_alloc.h
xdata$x	SEGMENT
$T103297 DD	0ffffffffH
	DD	00H
	DD	0ffffffffH
	DD	00H
$T103299 DD	00H
	DD	00H
	DD	00H
	DD	FLAT:$L103285
$T103298 DD	00H
	DD	00H
	DD	01H
	DD	01H
	DD	FLAT:$T103299
$T103294 DD	019930520H
	DD	02H
	DD	FLAT:$T103297
	DD	01H
	DD	FLAT:$T103298
	DD	2 DUP(00H)
; Function compile flags: /Ogsy
; File c:\stlport-4.6.1\stlport\stl\_list.h
xdata$x	ENDS
;	COMDAT ?_M_create_node@?$list@V?$basic_string@DV?$char_traits@D@_STL@@V?$allocator@D@2@@_STL@@V?$allocator@V?$basic_string@DV?$char_traits@D@_STL@@V?$allocator@D@2@@_STL@@@2@@_STL@@IAEPAU?$_List_node@V?$basic_string@DV?$char_traits@D@_STL@@V?$allocator@D@2@@_STL@@@2@ABV?$basic_string@DV?$char_traits@D@_STL@@V?$allocator@D@2@@2@@Z
_TEXT	SEGMENT
_this$ = -24						; size = 4
___p$ = -20						; size = 4
__$EHRec$ = -16						; size = 16
___x$ = 8						; size = 4
?_M_create_node@?$list@V?$basic_string@DV?$char_traits@D@_STL@@V?$allocator@D@2@@_STL@@V?$allocator@V?$basic_string@DV?$char_traits@D@_STL@@V?$allocator@D@2@@_STL@@@2@@_STL@@IAEPAU?$_List_node@V?$basic_string@DV?$char_traits@D@_STL@@V?$allocator@D@2@@_STL@@@2@ABV?$basic_string@DV?$char_traits@D@_STL@@V?$allocator@D@2@@2@@Z PROC NEAR ; _STL::list<_STL::basic_string<char,_STL::char_traits<char>,_STL::allocator<char> >,_STL::allocator<_STL::basic_string<char,_STL::char_traits<char>,_STL::allocator<char> > > >::_M_create_node, COMDAT
; _this$ = ecx

; 240  :   {

  00000	b8 00 00 00 00	 mov	 eax, __ehhandler$?_M_create_node@?$list@V?$basic_string@DV?$char_traits@D@_STL@@V?$allocator@D@2@@_STL@@V?$allocator@V?$basic_string@DV?$char_traits@D@_STL@@V?$allocator@D@2@@_STL@@@2@@_STL@@IAEPAU?$_List_node@V?$basic_string@DV?$char_traits@D@_STL@@V?$allocator@D@2@@_STL@@@2@ABV?$basic_string@DV?$char_traits@D@_STL@@V?$allocator@D@2@@2@@Z
  00005	e8 00 00 00 00	 call	 __EH_prolog
  0000a	83 ec 0c	 sub	 esp, 12			; 0000000cH
  0000d	53		 push	 ebx
  0000e	56		 push	 esi
  0000f	57		 push	 edi
  00010	89 65 f0	 mov	 DWORD PTR __$EHRec$[ebp], esp

; 241  :     _Node* __p = this->_M_node.allocate(1);

  00013	6a 14		 push	 20			; 00000014H
  00015	89 4d e8	 mov	 DWORD PTR _this$[ebp], ecx
  00018	e8 00 00 00 00	 call	 ?allocate@?$__node_alloc@$00$0A@@_STL@@SAPAXI@Z ; _STL::__node_alloc<1,0>::allocate

; 242  :     _STLP_TRY {
; 243  :       _Construct(&__p->_M_data, __x);

  0001d	ff 75 08	 push	 DWORD PTR ___x$[ebp]
  00020	83 65 fc 00	 and	 DWORD PTR __$EHRec$[ebp+12], 0
  00024	8b f0		 mov	 esi, eax
  00026	8d 46 08	 lea	 eax, DWORD PTR [esi+8]
  00029	50		 push	 eax
  0002a	89 75 ec	 mov	 DWORD PTR ___p$[ebp], esi
  0002d	e8 00 00 00 00	 call	 ??$_Construct@V?$basic_string@DV?$char_traits@D@_STL@@V?$allocator@D@2@@_STL@@V12@@_STL@@YAXPAV?$basic_string@DV?$char_traits@D@_STL@@V?$allocator@D@2@@0@ABV10@@Z ; _STL::_Construct<_STL::basic_string<char,_STL::char_traits<char>,_STL::allocator<char> >,_STL::basic_string<char,_STL::char_traits<char>,_STL::allocator<char> > >

; 246  :     return __p;
; 247  :   }

  00032	8b 4d f4	 mov	 ecx, DWORD PTR __$EHRec$[ebp+4]
  00035	83 c4 0c	 add	 esp, 12			; 0000000cH
  00038	5f		 pop	 edi
  00039	8b c6		 mov	 eax, esi
  0003b	5e		 pop	 esi
  0003c	64 89 0d 00 00
	00 00		 mov	 DWORD PTR fs:__except_list, ecx
  00043	5b		 pop	 ebx
  00044	c9		 leave
  00045	c2 04 00	 ret	 4
$L103285:

; 244  :     }
; 245  :     _STLP_UNWIND(this->_M_node.deallocate(__p, 1));

  00048	8b 4d e8	 mov	 ecx, DWORD PTR _this$[ebp]
  0004b	6a 01		 push	 1
  0004d	ff 75 ec	 push	 DWORD PTR ___p$[ebp]
  00050	e8 00 00 00 00	 call	 ?deallocate@?$allocator@U?$_List_node@V?$basic_string@DV?$char_traits@D@_STL@@V?$allocator@D@2@@_STL@@@_STL@@@_STL@@QAEXPAU?$_List_node@V?$basic_string@DV?$char_traits@D@_STL@@V?$allocator@D@2@@_STL@@@2@I@Z ; _STL::allocator<_STL::_List_node<_STL::basic_string<char,_STL::char_traits<char>,_STL::allocator<char> > > >::deallocate
  00055	6a 00		 push	 0
  00057	6a 00		 push	 0
  00059	e8 00 00 00 00	 call	 __CxxThrowException@8
$L103300:
$L103296:
  0005e	cc		 int	 3
_TEXT	ENDS
;	COMDAT text$x
text$x	SEGMENT
__ehhandler$?_M_create_node@?$list@V?$basic_string@DV?$char_traits@D@_STL@@V?$allocator@D@2@@_STL@@V?$allocator@V?$basic_string@DV?$char_traits@D@_STL@@V?$allocator@D@2@@_STL@@@2@@_STL@@IAEPAU?$_List_node@V?$basic_string@DV?$char_traits@D@_STL@@V?$allocator@D@2@@_STL@@@2@ABV?$basic_string@DV?$char_traits@D@_STL@@V?$allocator@D@2@@2@@Z:
  00000	b8 00 00 00 00	 mov	 eax, OFFSET FLAT:$T103294
  00005	e9 00 00 00 00	 jmp	 ___CxxFrameHandler
text$x	ENDS
?_M_create_node@?$list@V?$basic_string@DV?$char_traits@D@_STL@@V?$allocator@D@2@@_STL@@V?$allocator@V?$basic_string@DV?$char_traits@D@_STL@@V?$allocator@D@2@@_STL@@@2@@_STL@@IAEPAU?$_List_node@V?$basic_string@DV?$char_traits@D@_STL@@V?$allocator@D@2@@_STL@@@2@ABV?$basic_string@DV?$char_traits@D@_STL@@V?$allocator@D@2@@2@@Z ENDP ; _STL::list<_STL::basic_string<char,_STL::char_traits<char>,_STL::allocator<char> >,_STL::allocator<_STL::basic_string<char,_STL::char_traits<char>,_STL::allocator<char> > > >::_M_create_node
PUBLIC	?clear@?$_List_base@V?$basic_string@DV?$char_traits@D@_STL@@V?$allocator@D@2@@_STL@@V?$allocator@V?$basic_string@DV?$char_traits@D@_STL@@V?$allocator@D@2@@_STL@@@2@@_STL@@QAEXXZ ; _STL::_List_base<_STL::basic_string<char,_STL::char_traits<char>,_STL::allocator<char> >,_STL::allocator<_STL::basic_string<char,_STL::char_traits<char>,_STL::allocator<char> > > >::clear
; Function compile flags: /Ogsy
; File c:\stlport-4.6.1\stlport\stl\_list.c
;	COMDAT ?clear@?$_List_base@V?$basic_string@DV?$char_traits@D@_STL@@V?$allocator@D@2@@_STL@@V?$allocator@V?$basic_string@DV?$char_traits@D@_STL@@V?$allocator@D@2@@_STL@@@2@@_STL@@QAEXXZ
_TEXT	SEGMENT
?clear@?$_List_base@V?$basic_string@DV?$char_traits@D@_STL@@V?$allocator@D@2@@_STL@@V?$allocator@V?$basic_string@DV?$char_traits@D@_STL@@V?$allocator@D@2@@_STL@@@2@@_STL@@QAEXXZ PROC NEAR ; _STL::_List_base<_STL::basic_string<char,_STL::char_traits<char>,_STL::allocator<char> >,_STL::allocator<_STL::basic_string<char,_STL::char_traits<char>,_STL::allocator<char> > > >::clear, COMDAT
; _this$ = ecx

; 68   : {

  00000	56		 push	 esi
  00001	57		 push	 edi
  00002	8b f9		 mov	 edi, ecx

; 69   :   _List_node<_Tp>* __cur = (_List_node<_Tp>*) this->_M_node._M_data->_M_next;

  00004	8b 07		 mov	 eax, DWORD PTR [edi]
  00006	8b 30		 mov	 esi, DWORD PTR [eax]

; 70   :   while (__cur != this->_M_node._M_data) {

  00008	3b f0		 cmp	 esi, eax
  0000a	74 1c		 je	 SHORT $L98971
  0000c	53		 push	 ebx
$L98970:

; 71   :     _List_node<_Tp>* __tmp = __cur;

  0000d	8b de		 mov	 ebx, esi

; 72   :     __cur = (_List_node<_Tp>*) __cur->_M_next;

  0000f	8b 36		 mov	 esi, DWORD PTR [esi]

; 73   :     _STLP_STD::_Destroy(&__tmp->_M_data);

  00011	8d 4b 08	 lea	 ecx, DWORD PTR [ebx+8]
  00014	e8 00 00 00 00	 call	 ??1?$basic_string@DV?$char_traits@D@_STL@@V?$allocator@D@2@@_STL@@QAE@XZ ; _STL::basic_string<char,_STL::char_traits<char>,_STL::allocator<char> >::~basic_string<char,_STL::char_traits<char>,_STL::allocator<char> >

; 74   :     this->_M_node.deallocate(__tmp, 1);

  00019	6a 01		 push	 1
  0001b	53		 push	 ebx
  0001c	8b cf		 mov	 ecx, edi
  0001e	e8 00 00 00 00	 call	 ?deallocate@?$allocator@U?$_List_node@V?$basic_string@DV?$char_traits@D@_STL@@V?$allocator@D@2@@_STL@@@_STL@@@_STL@@QAEXPAU?$_List_node@V?$basic_string@DV?$char_traits@D@_STL@@V?$allocator@D@2@@_STL@@@2@I@Z ; _STL::allocator<_STL::_List_node<_STL::basic_string<char,_STL::char_traits<char>,_STL::allocator<char> > > >::deallocate
  00023	3b 37		 cmp	 esi, DWORD PTR [edi]
  00025	75 e6		 jne	 SHORT $L98970
  00027	5b		 pop	 ebx
$L98971:

; 75   :   }
; 76   :   this->_M_node._M_data->_M_next = this->_M_node._M_data;

  00028	8b 07		 mov	 eax, DWORD PTR [edi]
  0002a	89 00		 mov	 DWORD PTR [eax], eax

; 77   :   this->_M_node._M_data->_M_prev = this->_M_node._M_data;

  0002c	8b 3f		 mov	 edi, DWORD PTR [edi]
  0002e	89 7f 04	 mov	 DWORD PTR [edi+4], edi
  00031	5f		 pop	 edi
  00032	5e		 pop	 esi

; 78   : }

  00033	c3		 ret	 0
?clear@?$_List_base@V?$basic_string@DV?$char_traits@D@_STL@@V?$allocator@D@2@@_STL@@V?$allocator@V?$basic_string@DV?$char_traits@D@_STL@@V?$allocator@D@2@@_STL@@@2@@_STL@@QAEXXZ ENDP ; _STL::_List_base<_STL::basic_string<char,_STL::char_traits<char>,_STL::allocator<char> >,_STL::allocator<_STL::basic_string<char,_STL::char_traits<char>,_STL::allocator<char> > > >::clear
_TEXT	ENDS
PUBLIC	??$assign@PAD@?$basic_string@DV?$char_traits@D@_STL@@V?$allocator@D@2@@_STL@@QAEAAV01@PAD0@Z ; _STL::basic_string<char,_STL::char_traits<char>,_STL::allocator<char> >::assign<char *>
; Function compile flags: /Ogsy
; File c:\stlport-4.6.1\stlport\stl\_string.h
;	COMDAT ??$assign@PAD@?$basic_string@DV?$char_traits@D@_STL@@V?$allocator@D@2@@_STL@@QAEAAV01@PAD0@Z
_TEXT	SEGMENT
___first$ = 8						; size = 4
___last$ = 12						; size = 4
$T103321 = 15						; size = 1
??$assign@PAD@?$basic_string@DV?$char_traits@D@_STL@@V?$allocator@D@2@@_STL@@QAEAAV01@PAD0@Z PROC NEAR ; _STL::basic_string<char,_STL::char_traits<char>,_STL::allocator<char> >::assign<char *>, COMDAT
; _this$ = ecx

; 642  :   template <class _InputIter> _Self& assign(_InputIter __first, _InputIter __last) {

  00000	55		 push	 ebp
  00001	8b ec		 mov	 ebp, esp

; 643  :     typedef typename _Is_integer<_InputIter>::_Integral _Integral;
; 644  :     return _M_assign_dispatch(__first, __last, _Integral());

  00003	8d 45 0f	 lea	 eax, DWORD PTR $T103321[ebp]
  00006	50		 push	 eax
  00007	ff 75 0c	 push	 DWORD PTR ___last$[ebp]
  0000a	ff 75 08	 push	 DWORD PTR ___first$[ebp]
  0000d	e8 00 00 00 00	 call	 ??$_M_assign_dispatch@PAD@?$basic_string@DV?$char_traits@D@_STL@@V?$allocator@D@2@@_STL@@AAEAAV01@PAD0ABU__false_type@1@@Z ; _STL::basic_string<char,_STL::char_traits<char>,_STL::allocator<char> >::_M_assign_dispatch<char *>

; 645  :   }

  00012	5d		 pop	 ebp
  00013	c2 08 00	 ret	 8
??$assign@PAD@?$basic_string@DV?$char_traits@D@_STL@@V?$allocator@D@2@@_STL@@QAEAAV01@PAD0@Z ENDP ; _STL::basic_string<char,_STL::char_traits<char>,_STL::allocator<char> >::assign<char *>
_TEXT	ENDS
PUBLIC	??4?$basic_string@DV?$char_traits@D@_STL@@V?$allocator@D@2@@_STL@@QAEAAV01@ABV01@@Z ; _STL::basic_string<char,_STL::char_traits<char>,_STL::allocator<char> >::operator=
; Function compile flags: /Ogsy
;	COMDAT ??4?$basic_string@DV?$char_traits@D@_STL@@V?$allocator@D@2@@_STL@@QAEAAV01@ABV01@@Z
_TEXT	SEGMENT
___s$ = 8						; size = 4
$T103329 = 11						; size = 1
??4?$basic_string@DV?$char_traits@D@_STL@@V?$allocator@D@2@@_STL@@QAEAAV01@ABV01@@Z PROC NEAR ; _STL::basic_string<char,_STL::char_traits<char>,_STL::allocator<char> >::operator=, COMDAT
; _this$ = ecx

; 307  :   _Self& operator=(const _Self& __s) {

  00000	55		 push	 ebp
  00001	8b ec		 mov	 ebp, esp

; 308  :     if (&__s != this) 

  00003	8b 45 08	 mov	 eax, DWORD PTR ___s$[ebp]
  00006	56		 push	 esi
  00007	8b f1		 mov	 esi, ecx
  00009	3b c6		 cmp	 eax, esi
  0000b	74 10		 je	 SHORT $L103326

; 309  :       assign(__s._M_start, __s._M_finish);

  0000d	8d 4d 0b	 lea	 ecx, DWORD PTR $T103329[ebp]
  00010	51		 push	 ecx
  00011	ff 70 04	 push	 DWORD PTR [eax+4]
  00014	8b ce		 mov	 ecx, esi
  00016	ff 30		 push	 DWORD PTR [eax]
  00018	e8 00 00 00 00	 call	 ??$_M_assign_dispatch@PAD@?$basic_string@DV?$char_traits@D@_STL@@V?$allocator@D@2@@_STL@@AAEAAV01@PAD0ABU__false_type@1@@Z ; _STL::basic_string<char,_STL::char_traits<char>,_STL::allocator<char> >::_M_assign_dispatch<char *>
$L103326:

; 310  :     return *this;

  0001d	8b c6		 mov	 eax, esi
  0001f	5e		 pop	 esi

; 311  :   }

  00020	5d		 pop	 ebp
  00021	c2 04 00	 ret	 4
??4?$basic_string@DV?$char_traits@D@_STL@@V?$allocator@D@2@@_STL@@QAEAAV01@ABV01@@Z ENDP ; _STL::basic_string<char,_STL::char_traits<char>,_STL::allocator<char> >::operator=
_TEXT	ENDS
PUBLIC	?insert@?$list@V?$basic_string@DV?$char_traits@D@_STL@@V?$allocator@D@2@@_STL@@V?$allocator@V?$basic_string@DV?$char_traits@D@_STL@@V?$allocator@D@2@@_STL@@@2@@_STL@@QAE?AU?$_List_iterator@V?$basic_string@DV?$char_traits@D@_STL@@V?$allocator@D@2@@_STL@@U?$_Nonconst_traits@V?$basic_string@DV?$char_traits@D@_STL@@V?$allocator@D@2@@_STL@@@2@@2@U32@ABV?$basic_string@DV?$char_traits@D@_STL@@V?$allocator@D@2@@2@@Z ; _STL::list<_STL::basic_string<char,_STL::char_traits<char>,_STL::allocator<char> >,_STL::allocator<_STL::basic_string<char,_STL::char_traits<char>,_STL::allocator<char> > > >::insert
; Function compile flags: /Ogsy
; File c:\stlport-4.6.1\stlport\stl\_list.h
;	COMDAT ?insert@?$list@V?$basic_string@DV?$char_traits@D@_STL@@V?$allocator@D@2@@_STL@@V?$allocator@V?$basic_string@DV?$char_traits@D@_STL@@V?$allocator@D@2@@_STL@@@2@@_STL@@QAE?AU?$_List_iterator@V?$basic_string@DV?$char_traits@D@_STL@@V?$allocator@D@2@@_STL@@U?$_Nonconst_traits@V?$basic_string@DV?$char_traits@D@_STL@@V?$allocator@D@2@@_STL@@@2@@2@U32@ABV?$basic_string@DV?$char_traits@D@_STL@@V?$allocator@D@2@@2@@Z
_TEXT	SEGMENT
___$ReturnUdt$ = 8					; size = 4
___position$ = 12					; size = 4
___x$ = 16						; size = 4
?insert@?$list@V?$basic_string@DV?$char_traits@D@_STL@@V?$allocator@D@2@@_STL@@V?$allocator@V?$basic_string@DV?$char_traits@D@_STL@@V?$allocator@D@2@@_STL@@@2@@_STL@@QAE?AU?$_List_iterator@V?$basic_string@DV?$char_traits@D@_STL@@V?$allocator@D@2@@_STL@@U?$_Nonconst_traits@V?$basic_string@DV?$char_traits@D@_STL@@V?$allocator@D@2@@_STL@@@2@@2@U32@ABV?$basic_string@DV?$char_traits@D@_STL@@V?$allocator@D@2@@2@@Z PROC NEAR ; _STL::list<_STL::basic_string<char,_STL::char_traits<char>,_STL::allocator<char> >,_STL::allocator<_STL::basic_string<char,_STL::char_traits<char>,_STL::allocator<char> > > >::insert, COMDAT
; _this$ = ecx

; 299  : 
; 300  :     _Node* __tmp = _M_create_node(__x);

  00000	ff 74 24 0c	 push	 DWORD PTR ___x$[esp-4]
  00004	e8 00 00 00 00	 call	 ?_M_create_node@?$list@V?$basic_string@DV?$char_traits@D@_STL@@V?$allocator@D@2@@_STL@@V?$allocator@V?$basic_string@DV?$char_traits@D@_STL@@V?$allocator@D@2@@_STL@@@2@@_STL@@IAEPAU?$_List_node@V?$basic_string@DV?$char_traits@D@_STL@@V?$allocator@D@2@@_STL@@@2@ABV?$basic_string@DV?$char_traits@D@_STL@@V?$allocator@D@2@@2@@Z ; _STL::list<_STL::basic_string<char,_STL::char_traits<char>,_STL::allocator<char> >,_STL::allocator<_STL::basic_string<char,_STL::char_traits<char>,_STL::allocator<char> > > >::_M_create_node

; 301  :     _List_node_base* __n = __position._M_node;
; 302  :     _List_node_base* __p = __n->_M_prev;

  00009	8b 4c 24 08	 mov	 ecx, DWORD PTR ___position$[esp-4]
  0000d	8b 51 04	 mov	 edx, DWORD PTR [ecx+4]

; 303  :     __tmp->_M_next = __n;

  00010	89 08		 mov	 DWORD PTR [eax], ecx

; 304  :     __tmp->_M_prev = __p;

  00012	89 50 04	 mov	 DWORD PTR [eax+4], edx

; 305  :     __p->_M_next = __tmp;

  00015	89 02		 mov	 DWORD PTR [edx], eax

; 306  :     __n->_M_prev = __tmp;

  00017	89 41 04	 mov	 DWORD PTR [ecx+4], eax

; 307  :     return __tmp;

  0001a	8b 4c 24 04	 mov	 ecx, DWORD PTR ___$ReturnUdt$[esp-4]
  0001e	89 01		 mov	 DWORD PTR [ecx], eax
  00020	8b c1		 mov	 eax, ecx

; 308  :   }

  00022	c2 0c 00	 ret	 12			; 0000000cH
?insert@?$list@V?$basic_string@DV?$char_traits@D@_STL@@V?$allocator@D@2@@_STL@@V?$allocator@V?$basic_string@DV?$char_traits@D@_STL@@V?$allocator@D@2@@_STL@@@2@@_STL@@QAE?AU?$_List_iterator@V?$basic_string@DV?$char_traits@D@_STL@@V?$allocator@D@2@@_STL@@U?$_Nonconst_traits@V?$basic_string@DV?$char_traits@D@_STL@@V?$allocator@D@2@@_STL@@@2@@2@U32@ABV?$basic_string@DV?$char_traits@D@_STL@@V?$allocator@D@2@@2@@Z ENDP ; _STL::list<_STL::basic_string<char,_STL::char_traits<char>,_STL::allocator<char> >,_STL::allocator<_STL::basic_string<char,_STL::char_traits<char>,_STL::allocator<char> > > >::insert
_TEXT	ENDS
PUBLIC	??1?$_List_base@V?$basic_string@DV?$char_traits@D@_STL@@V?$allocator@D@2@@_STL@@V?$allocator@V?$basic_string@DV?$char_traits@D@_STL@@V?$allocator@D@2@@_STL@@@2@@_STL@@QAE@XZ ; _STL::_List_base<_STL::basic_string<char,_STL::char_traits<char>,_STL::allocator<char> >,_STL::allocator<_STL::basic_string<char,_STL::char_traits<char>,_STL::allocator<char> > > >::~_List_base<_STL::basic_string<char,_STL::char_traits<char>,_STL::allocator<char> >,_STL::allocator<_STL::basic_string<char,_STL::char_traits<char>,_STL::allocator<char> > > >
; Function compile flags: /Ogsy
;	COMDAT ??1?$_List_base@V?$basic_string@DV?$char_traits@D@_STL@@V?$allocator@D@2@@_STL@@V?$allocator@V?$basic_string@DV?$char_traits@D@_STL@@V?$allocator@D@2@@_STL@@@2@@_STL@@QAE@XZ
_TEXT	SEGMENT
??1?$_List_base@V?$basic_string@DV?$char_traits@D@_STL@@V?$allocator@D@2@@_STL@@V?$allocator@V?$basic_string@DV?$char_traits@D@_STL@@V?$allocator@D@2@@_STL@@@2@@_STL@@QAE@XZ PROC NEAR ; _STL::_List_base<_STL::basic_string<char,_STL::char_traits<char>,_STL::allocator<char> >,_STL::allocator<_STL::basic_string<char,_STL::char_traits<char>,_STL::allocator<char> > > >::~_List_base<_STL::basic_string<char,_STL::char_traits<char>,_STL::allocator<char> >,_STL::allocator<_STL::basic_string<char,_STL::char_traits<char>,_STL::allocator<char> > > >, COMDAT
; _this$ = ecx

; 188  :   ~_List_base() {

  00000	56		 push	 esi
  00001	8b f1		 mov	 esi, ecx

; 189  :     clear();

  00003	e8 00 00 00 00	 call	 ?clear@?$_List_base@V?$basic_string@DV?$char_traits@D@_STL@@V?$allocator@D@2@@_STL@@V?$allocator@V?$basic_string@DV?$char_traits@D@_STL@@V?$allocator@D@2@@_STL@@@2@@_STL@@QAEXXZ ; _STL::_List_base<_STL::basic_string<char,_STL::char_traits<char>,_STL::allocator<char> >,_STL::allocator<_STL::basic_string<char,_STL::char_traits<char>,_STL::allocator<char> > > >::clear

; 190  :     _M_node.deallocate(_M_node._M_data, 1);

  00008	6a 01		 push	 1
  0000a	ff 36		 push	 DWORD PTR [esi]
  0000c	8b ce		 mov	 ecx, esi
  0000e	e8 00 00 00 00	 call	 ?deallocate@?$allocator@U?$_List_node@V?$basic_string@DV?$char_traits@D@_STL@@V?$allocator@D@2@@_STL@@@_STL@@@_STL@@QAEXPAU?$_List_node@V?$basic_string@DV?$char_traits@D@_STL@@V?$allocator@D@2@@_STL@@@2@I@Z ; _STL::allocator<_STL::_List_node<_STL::basic_string<char,_STL::char_traits<char>,_STL::allocator<char> > > >::deallocate
  00013	5e		 pop	 esi

; 191  :   }

  00014	c3		 ret	 0
??1?$_List_base@V?$basic_string@DV?$char_traits@D@_STL@@V?$allocator@D@2@@_STL@@V?$allocator@V?$basic_string@DV?$char_traits@D@_STL@@V?$allocator@D@2@@_STL@@@2@@_STL@@QAE@XZ ENDP ; _STL::_List_base<_STL::basic_string<char,_STL::char_traits<char>,_STL::allocator<char> >,_STL::allocator<_STL::basic_string<char,_STL::char_traits<char>,_STL::allocator<char> > > >::~_List_base<_STL::basic_string<char,_STL::char_traits<char>,_STL::allocator<char> >,_STL::allocator<_STL::basic_string<char,_STL::char_traits<char>,_STL::allocator<char> > > >
_TEXT	ENDS
PUBLIC	?imbue@?$basic_ios@DV?$char_traits@D@_STL@@@_STL@@QAE?AVlocale@2@ABV32@@Z ; _STL::basic_ios<char,_STL::char_traits<char> >::imbue
EXTRN	?pubimbue@?$basic_streambuf@DV?$char_traits@D@_STL@@@_STL@@QAE?AVlocale@2@ABV32@@Z:NEAR ; _STL::basic_streambuf<char,_STL::char_traits<char> >::pubimbue
EXTRN	??0locale@_STL@@QAE@ABV01@@Z:NEAR		; _STL::locale::locale
EXTRN	?_M_get_facet@locale@_STL@@QBEPAVfacet@12@ABVid@12@@Z:NEAR ; _STL::locale::_M_get_facet
EXTRN	?id@?$ctype@D@_STL@@2V0locale@2@A:DWORD		; _STL::ctype<char>::id
EXTRN	?imbue@ios_base@_STL@@QAE?AVlocale@2@ABV32@@Z:NEAR ; _STL::ios_base::imbue
EXTRN	?id@?$numpunct@D@_STL@@2V0locale@2@A:DWORD	; _STL::numpunct<char>::id
;	COMDAT xdata$x
; File c:\stlport-4.6.1\stlport\stl\_alloc.h
xdata$x	SEGMENT
$T103396 DD	0ffffffffH
	DD	FLAT:$L103353
	DD	00H
	DD	FLAT:$L103350
	DD	01H
	DD	FLAT:$L103352
$T103394 DD	019930520H
	DD	03H
	DD	FLAT:$T103396
	DD	2 DUP(00H)
	DD	2 DUP(00H)
; Function compile flags: /Ogsy
; File c:\stlport-4.6.1\stlport\stl\_ios.c
xdata$x	ENDS
;	COMDAT ?imbue@?$basic_ios@DV?$char_traits@D@_STL@@@_STL@@QAE?AVlocale@2@ABV32@@Z
_TEXT	SEGMENT
$T103349 = -32						; size = 12
$T103354 = -20						; size = 4
$T103348 = -16						; size = 4
__$EHRec$ = -12						; size = 12
___$ReturnUdt$ = 8					; size = 4
___tmp$ = 12						; size = 4
___loc$ = 12						; size = 4
?imbue@?$basic_ios@DV?$char_traits@D@_STL@@@_STL@@QAE?AVlocale@2@ABV32@@Z PROC NEAR ; _STL::basic_ios<char,_STL::char_traits<char> >::imbue, COMDAT
; _this$ = ecx

; 74   : {

  00000	b8 00 00 00 00	 mov	 eax, __ehhandler$?imbue@?$basic_ios@DV?$char_traits@D@_STL@@@_STL@@QAE?AVlocale@2@ABV32@@Z
  00005	e8 00 00 00 00	 call	 __EH_prolog
  0000a	83 ec 14	 sub	 esp, 20			; 00000014H
  0000d	83 65 ec 00	 and	 DWORD PTR $T103354[ebp], 0
  00011	53		 push	 ebx
  00012	56		 push	 esi
  00013	57		 push	 edi

; 75   :   locale __tmp = ios_base::imbue(__loc);

  00014	8b 7d 0c	 mov	 edi, DWORD PTR ___loc$[ebp]
  00017	57		 push	 edi
  00018	8d 45 0c	 lea	 eax, DWORD PTR ___tmp$[ebp]
  0001b	50		 push	 eax
  0001c	8b f1		 mov	 esi, ecx
  0001e	e8 00 00 00 00	 call	 ?imbue@ios_base@_STL@@QAE?AVlocale@2@ABV32@@Z ; _STL::ios_base::imbue

; 76   : 
; 77   :   if (_M_streambuf)

  00023	8b 4e 58	 mov	 ecx, DWORD PTR [esi+88]
  00026	33 db		 xor	 ebx, ebx
  00028	43		 inc	 ebx
  00029	85 c9		 test	 ecx, ecx
  0002b	89 5d fc	 mov	 DWORD PTR __$EHRec$[ebp+8], ebx
  0002e	74 12		 je	 SHORT $L99997

; 78   :     _M_streambuf->pubimbue(__loc);

  00030	57		 push	 edi
  00031	8d 45 f0	 lea	 eax, DWORD PTR $T103348[ebp]
  00034	50		 push	 eax
  00035	e8 00 00 00 00	 call	 ?pubimbue@?$basic_streambuf@DV?$char_traits@D@_STL@@@_STL@@QAE?AVlocale@2@ABV32@@Z ; _STL::basic_streambuf<char,_STL::char_traits<char> >::pubimbue
  0003a	8d 4d f0	 lea	 ecx, DWORD PTR $T103348[ebp]
  0003d	e8 00 00 00 00	 call	 ??1locale@_STL@@QAE@XZ	; _STL::locale::~locale
$L99997:

; 79   : 
; 80   :   // no throwing here
; 81   :   this->_M_cached_ctype = __loc._M_get_facet(ctype<char_type>::id) ;

  00042	68 00 00 00 00	 push	 OFFSET FLAT:?id@?$ctype@D@_STL@@2V0locale@2@A ; _STL::ctype<char>::id
  00047	8b cf		 mov	 ecx, edi
  00049	e8 00 00 00 00	 call	 ?_M_get_facet@locale@_STL@@QBEPAVfacet@12@ABVid@12@@Z ; _STL::locale::_M_get_facet

; 82   :   this->_M_cached_numpunct = __loc._M_get_facet(numpunct<char_type>::id) ;

  0004e	68 00 00 00 00	 push	 OFFSET FLAT:?id@?$numpunct@D@_STL@@2V0locale@2@A ; _STL::numpunct<char>::id
  00053	8b cf		 mov	 ecx, edi
  00055	89 46 40	 mov	 DWORD PTR [esi+64], eax
  00058	e8 00 00 00 00	 call	 ?_M_get_facet@locale@_STL@@QBEPAVfacet@12@ABVid@12@@Z ; _STL::locale::_M_get_facet

; 83   :   this->_M_cached_grouping = ((numpunct<char_type>*)_M_cached_numpunct)->grouping() ;

  0005d	8d 4d e0	 lea	 ecx, DWORD PTR $T103349[ebp]
  00060	51		 push	 ecx
  00061	8b c8		 mov	 ecx, eax
  00063	89 46 44	 mov	 DWORD PTR [esi+68], eax
  00066	e8 00 00 00 00	 call	 ?grouping@?$numpunct@D@_STL@@QBE?AV?$basic_string@DV?$char_traits@D@_STL@@V?$allocator@D@2@@2@XZ ; _STL::numpunct<char>::grouping
  0006b	50		 push	 eax
  0006c	8d 4e 48	 lea	 ecx, DWORD PTR [esi+72]
  0006f	c6 45 fc 02	 mov	 BYTE PTR __$EHRec$[ebp+8], 2
  00073	e8 00 00 00 00	 call	 ??4?$basic_string@DV?$char_traits@D@_STL@@V?$allocator@D@2@@_STL@@QAEAAV01@ABV01@@Z ; _STL::basic_string<char,_STL::char_traits<char>,_STL::allocator<char> >::operator=
  00078	8b 45 e8	 mov	 eax, DWORD PTR $T103349[ebp+8]
  0007b	2b 45 e0	 sub	 eax, DWORD PTR $T103349[ebp]
  0007e	8d 4d e8	 lea	 ecx, DWORD PTR $T103349[ebp+8]
  00081	50		 push	 eax
  00082	ff 75 e0	 push	 DWORD PTR $T103349[ebp]
  00085	88 5d fc	 mov	 BYTE PTR __$EHRec$[ebp+8], bl
  00088	e8 00 00 00 00	 call	 ?deallocate@?$allocator@D@_STL@@QAEXPADI@Z ; _STL::allocator<char>::deallocate

; 84   :   return __tmp;

  0008d	8b 4d 08	 mov	 ecx, DWORD PTR ___$ReturnUdt$[ebp]
  00090	8d 45 0c	 lea	 eax, DWORD PTR ___tmp$[ebp]
  00093	50		 push	 eax
  00094	e8 00 00 00 00	 call	 ??0locale@_STL@@QAE@ABV01@@Z ; _STL::locale::locale
  00099	8d 4d 0c	 lea	 ecx, DWORD PTR ___tmp$[ebp]
  0009c	89 5d ec	 mov	 DWORD PTR $T103354[ebp], ebx
  0009f	c6 45 fc 00	 mov	 BYTE PTR __$EHRec$[ebp+8], 0
  000a3	e8 00 00 00 00	 call	 ??1locale@_STL@@QAE@XZ	; _STL::locale::~locale

; 85   : }

  000a8	8b 4d f4	 mov	 ecx, DWORD PTR __$EHRec$[ebp]
  000ab	8b 45 08	 mov	 eax, DWORD PTR ___$ReturnUdt$[ebp]
  000ae	5f		 pop	 edi
  000af	5e		 pop	 esi
  000b0	5b		 pop	 ebx
  000b1	64 89 0d 00 00
	00 00		 mov	 DWORD PTR fs:__except_list, ecx
  000b8	c9		 leave
  000b9	c2 08 00	 ret	 8
_TEXT	ENDS
;	COMDAT text$x
text$x	SEGMENT
$L103350:
  00000	8d 4d 0c	 lea	 ecx, DWORD PTR ___tmp$[ebp]
  00003	e9 00 00 00 00	 jmp	 ??1locale@_STL@@QAE@XZ	; _STL::locale::~locale
$L103352:
  00008	8d 4d e0	 lea	 ecx, DWORD PTR $T103349[ebp]
  0000b	e9 00 00 00 00	 jmp	 ??1?$basic_string@DV?$char_traits@D@_STL@@V?$allocator@D@2@@_STL@@QAE@XZ ; _STL::basic_string<char,_STL::char_traits<char>,_STL::allocator<char> >::~basic_string<char,_STL::char_traits<char>,_STL::allocator<char> >
$L103353:
  00010	8b 45 ec	 mov	 eax, DWORD PTR $T103354[ebp]
  00013	83 e0 01	 and	 eax, 1
  00016	0f 84 0c 00 00
	00		 je	 $L103355
  0001c	83 65 ec fe	 and	 DWORD PTR $T103354[ebp], -2 ; fffffffeH
  00020	8b 4d 08	 mov	 ecx, DWORD PTR ___$ReturnUdt$[ebp]
  00023	e9 00 00 00 00	 jmp	 ??1locale@_STL@@QAE@XZ	; _STL::locale::~locale
$L103355:
  00028	c3		 ret	 0
__ehhandler$?imbue@?$basic_ios@DV?$char_traits@D@_STL@@@_STL@@QAE?AVlocale@2@ABV32@@Z:
  00029	b8 00 00 00 00	 mov	 eax, OFFSET FLAT:$T103394
  0002e	e9 00 00 00 00	 jmp	 ___CxxFrameHandler
text$x	ENDS
?imbue@?$basic_ios@DV?$char_traits@D@_STL@@@_STL@@QAE?AVlocale@2@ABV32@@Z ENDP ; _STL::basic_ios<char,_STL::char_traits<char> >::imbue
PUBLIC	??$_M_insert_dispatch@U?$_List_iterator@V?$basic_string@DV?$char_traits@D@_STL@@V?$allocator@D@2@@_STL@@U?$_Const_traits@V?$basic_string@DV?$char_traits@D@_STL@@V?$allocator@D@2@@_STL@@@2@@_STL@@@?$list@V?$basic_string@DV?$char_traits@D@_STL@@V?$allocator@D@2@@_STL@@V?$allocator@V?$basic_string@DV?$char_traits@D@_STL@@V?$allocator@D@2@@_STL@@@2@@_STL@@QAEXU?$_List_iterator@V?$basic_string@DV?$char_traits@D@_STL@@V?$allocator@D@2@@_STL@@U?$_Nonconst_traits@V?$basic_string@DV?$char_traits@D@_STL@@V?$allocator@D@2@@_STL@@@2@@1@U?$_List_iterator@V?$basic_string@DV?$char_traits@D@_STL@@V?$allocator@D@2@@_STL@@U?$_Const_traits@V?$basic_string@DV?$char_traits@D@_STL@@V?$allocator@D@2@@_STL@@@2@@1@1ABU__false_type@1@@Z ; _STL::list<_STL::basic_string<char,_STL::char_traits<char>,_STL::allocator<char> >,_STL::allocator<_STL::basic_string<char,_STL::char_traits<char>,_STL::allocator<char> > > >::_M_insert_dispatch<_STL::_List_iterator<_STL::basic_string<char,_STL::char_traits<char>,_STL::allocator<char> >,_STL::_Const_traits<_STL::basic_string<char,_STL::char_traits<char>,_STL::allocator<char> > > > >
; Function compile flags: /Ogsy
; File c:\stlport-4.6.1\stlport\stl\_list.h
;	COMDAT ??$_M_insert_dispatch@U?$_List_iterator@V?$basic_string@DV?$char_traits@D@_STL@@V?$allocator@D@2@@_STL@@U?$_Const_traits@V?$basic_string@DV?$char_traits@D@_STL@@V?$allocator@D@2@@_STL@@@2@@_STL@@@?$list@V?$basic_string@DV?$char_traits@D@_STL@@V?$allocator@D@2@@_STL@@V?$allocator@V?$basic_string@DV?$char_traits@D@_STL@@V?$allocator@D@2@@_STL@@@2@@_STL@@QAEXU?$_List_iterator@V?$basic_string@DV?$char_traits@D@_STL@@V?$allocator@D@2@@_STL@@U?$_Nonconst_traits@V?$basic_string@DV?$char_traits@D@_STL@@V?$allocator@D@2@@_STL@@@2@@1@U?$_List_iterator@V?$basic_string@DV?$char_traits@D@_STL@@V?$allocator@D@2@@_STL@@U?$_Const_traits@V?$basic_string@DV?$char_traits@D@_STL@@V?$allocator@D@2@@_STL@@@2@@1@1ABU__false_type@1@@Z
_TEXT	SEGMENT
___position$ = 8					; size = 4
$T103402 = 12						; size = 4
___first$ = 12						; size = 4
___last$ = 16						; size = 4
___formal$ = 20						; size = 4
??$_M_insert_dispatch@U?$_List_iterator@V?$basic_string@DV?$char_traits@D@_STL@@V?$allocator@D@2@@_STL@@U?$_Const_traits@V?$basic_string@DV?$char_traits@D@_STL@@V?$allocator@D@2@@_STL@@@2@@_STL@@@?$list@V?$basic_string@DV?$char_traits@D@_STL@@V?$allocator@D@2@@_STL@@V?$allocator@V?$basic_string@DV?$char_traits@D@_STL@@V?$allocator@D@2@@_STL@@@2@@_STL@@QAEXU?$_List_iterator@V?$basic_string@DV?$char_traits@D@_STL@@V?$allocator@D@2@@_STL@@U?$_Nonconst_traits@V?$basic_string@DV?$char_traits@D@_STL@@V?$allocator@D@2@@_STL@@@2@@1@U?$_List_iterator@V?$basic_string@DV?$char_traits@D@_STL@@V?$allocator@D@2@@_STL@@U?$_Const_traits@V?$basic_string@DV?$char_traits@D@_STL@@V?$allocator@D@2@@_STL@@@2@@1@1ABU__false_type@1@@Z PROC NEAR ; _STL::list<_STL::basic_string<char,_STL::char_traits<char>,_STL::allocator<char> >,_STL::allocator<_STL::basic_string<char,_STL::char_traits<char>,_STL::allocator<char> > > >::_M_insert_dispatch<_STL::_List_iterator<_STL::basic_string<char,_STL::char_traits<char>,_STL::allocator<char> >,_STL::_Const_traits<_STL::basic_string<char,_STL::char_traits<char>,_STL::allocator<char> > > > >, COMDAT
; _this$ = ecx

; 323  :   void 

  00000	55		 push	 ebp
  00001	8b ec		 mov	 ebp, esp
  00003	56		 push	 esi

; 324  :   _M_insert_dispatch(iterator __position,
; 325  : 		     _InputIter __first, _InputIter __last,
; 326  : 		     const __false_type&) 
; 327  : #else /* _STLP_MEMBER_TEMPLATES */
; 328  :   void insert(iterator __position, const _Tp* __first, const _Tp* __last) {
; 329  :     for ( ; __first != __last; ++__first)
; 330  :       insert(__position, *__first);
; 331  :   }
; 332  :   void insert(iterator __position, const_iterator __first, const_iterator __last)
; 333  : #endif /* _STLP_MEMBER_TEMPLATES */
; 334  :   {
; 335  :     for ( ; __first != __last; ++__first)

  00004	8b 75 0c	 mov	 esi, DWORD PTR ___first$[ebp]
  00007	57		 push	 edi
  00008	8b f9		 mov	 edi, ecx
  0000a	eb 19		 jmp	 SHORT $L103428
$L103407:

; 336  :       insert(__position, *__first);

  0000c	8d 46 08	 lea	 eax, DWORD PTR [esi+8]
  0000f	50		 push	 eax
  00010	51		 push	 ecx
  00011	8b 4d 08	 mov	 ecx, DWORD PTR ___position$[ebp]
  00014	8b c4		 mov	 eax, esp
  00016	89 08		 mov	 DWORD PTR [eax], ecx
  00018	8d 45 0c	 lea	 eax, DWORD PTR $T103402[ebp]
  0001b	50		 push	 eax
  0001c	8b cf		 mov	 ecx, edi
  0001e	e8 00 00 00 00	 call	 ?insert@?$list@V?$basic_string@DV?$char_traits@D@_STL@@V?$allocator@D@2@@_STL@@V?$allocator@V?$basic_string@DV?$char_traits@D@_STL@@V?$allocator@D@2@@_STL@@@2@@_STL@@QAE?AU?$_List_iterator@V?$basic_string@DV?$char_traits@D@_STL@@V?$allocator@D@2@@_STL@@U?$_Nonconst_traits@V?$basic_string@DV?$char_traits@D@_STL@@V?$allocator@D@2@@_STL@@@2@@2@U32@ABV?$basic_string@DV?$char_traits@D@_STL@@V?$allocator@D@2@@2@@Z ; _STL::list<_STL::basic_string<char,_STL::char_traits<char>,_STL::allocator<char> >,_STL::allocator<_STL::basic_string<char,_STL::char_traits<char>,_STL::allocator<char> > > >::insert
  00023	8b 36		 mov	 esi, DWORD PTR [esi]
$L103428:

; 324  :   _M_insert_dispatch(iterator __position,
; 325  : 		     _InputIter __first, _InputIter __last,
; 326  : 		     const __false_type&) 
; 327  : #else /* _STLP_MEMBER_TEMPLATES */
; 328  :   void insert(iterator __position, const _Tp* __first, const _Tp* __last) {
; 329  :     for ( ; __first != __last; ++__first)
; 330  :       insert(__position, *__first);
; 331  :   }
; 332  :   void insert(iterator __position, const_iterator __first, const_iterator __last)
; 333  : #endif /* _STLP_MEMBER_TEMPLATES */
; 334  :   {
; 335  :     for ( ; __first != __last; ++__first)

  00025	3b 75 10	 cmp	 esi, DWORD PTR ___last$[ebp]
  00028	75 e2		 jne	 SHORT $L103407

; 337  :   }

  0002a	5f		 pop	 edi
  0002b	5e		 pop	 esi
  0002c	5d		 pop	 ebp
  0002d	c2 10 00	 ret	 16			; 00000010H
??$_M_insert_dispatch@U?$_List_iterator@V?$basic_string@DV?$char_traits@D@_STL@@V?$allocator@D@2@@_STL@@U?$_Const_traits@V?$basic_string@DV?$char_traits@D@_STL@@V?$allocator@D@2@@_STL@@@2@@_STL@@@?$list@V?$basic_string@DV?$char_traits@D@_STL@@V?$allocator@D@2@@_STL@@V?$allocator@V?$basic_string@DV?$char_traits@D@_STL@@V?$allocator@D@2@@_STL@@@2@@_STL@@QAEXU?$_List_iterator@V?$basic_string@DV?$char_traits@D@_STL@@V?$allocator@D@2@@_STL@@U?$_Nonconst_traits@V?$basic_string@DV?$char_traits@D@_STL@@V?$allocator@D@2@@_STL@@@2@@1@U?$_List_iterator@V?$basic_string@DV?$char_traits@D@_STL@@V?$allocator@D@2@@_STL@@U?$_Const_traits@V?$basic_string@DV?$char_traits@D@_STL@@V?$allocator@D@2@@_STL@@@2@@1@1ABU__false_type@1@@Z ENDP ; _STL::list<_STL::basic_string<char,_STL::char_traits<char>,_STL::allocator<char> >,_STL::allocator<_STL::basic_string<char,_STL::char_traits<char>,_STL::allocator<char> > > >::_M_insert_dispatch<_STL::_List_iterator<_STL::basic_string<char,_STL::char_traits<char>,_STL::allocator<char> >,_STL::_Const_traits<_STL::basic_string<char,_STL::char_traits<char>,_STL::allocator<char> > > > >
_TEXT	ENDS
PUBLIC	??0?$list@V?$basic_string@DV?$char_traits@D@_STL@@V?$allocator@D@2@@_STL@@V?$allocator@V?$basic_string@DV?$char_traits@D@_STL@@V?$allocator@D@2@@_STL@@@2@@_STL@@QAE@ABV?$allocator@V?$basic_string@DV?$char_traits@D@_STL@@V?$allocator@D@2@@_STL@@@1@@Z ; _STL::list<_STL::basic_string<char,_STL::char_traits<char>,_STL::allocator<char> >,_STL::allocator<_STL::basic_string<char,_STL::char_traits<char>,_STL::allocator<char> > > >::list<_STL::basic_string<char,_STL::char_traits<char>,_STL::allocator<char> >,_STL::allocator<_STL::basic_string<char,_STL::char_traits<char>,_STL::allocator<char> > > >
; Function compile flags: /Ogsy
;	COMDAT ??0?$list@V?$basic_string@DV?$char_traits@D@_STL@@V?$allocator@D@2@@_STL@@V?$allocator@V?$basic_string@DV?$char_traits@D@_STL@@V?$allocator@D@2@@_STL@@@2@@_STL@@QAE@ABV?$allocator@V?$basic_string@DV?$char_traits@D@_STL@@V?$allocator@D@2@@_STL@@@1@@Z
_TEXT	SEGMENT
___a$ = 8						; size = 4
??0?$list@V?$basic_string@DV?$char_traits@D@_STL@@V?$allocator@D@2@@_STL@@V?$allocator@V?$basic_string@DV?$char_traits@D@_STL@@V?$allocator@D@2@@_STL@@@2@@_STL@@QAE@ABV?$allocator@V?$basic_string@DV?$char_traits@D@_STL@@V?$allocator@D@2@@_STL@@@1@@Z PROC NEAR ; _STL::list<_STL::basic_string<char,_STL::char_traits<char>,_STL::allocator<char> >,_STL::allocator<_STL::basic_string<char,_STL::char_traits<char>,_STL::allocator<char> > > >::list<_STL::basic_string<char,_STL::char_traits<char>,_STL::allocator<char> >,_STL::allocator<_STL::basic_string<char,_STL::char_traits<char>,_STL::allocator<char> > > >, COMDAT
; _this$ = ecx

; 264  :     _List_base<_Tp, _Alloc>(__a) {}

  00000	56		 push	 esi
  00001	ff 74 24 08	 push	 DWORD PTR ___a$[esp]
  00005	8b f1		 mov	 esi, ecx
  00007	e8 00 00 00 00	 call	 ??0?$_List_base@V?$basic_string@DV?$char_traits@D@_STL@@V?$allocator@D@2@@_STL@@V?$allocator@V?$basic_string@DV?$char_traits@D@_STL@@V?$allocator@D@2@@_STL@@@2@@_STL@@QAE@ABV?$allocator@V?$basic_string@DV?$char_traits@D@_STL@@V?$allocator@D@2@@_STL@@@1@@Z ; _STL::_List_base<_STL::basic_string<char,_STL::char_traits<char>,_STL::allocator<char> >,_STL::allocator<_STL::basic_string<char,_STL::char_traits<char>,_STL::allocator<char> > > >::_List_base<_STL::basic_string<char,_STL::char_traits<char>,_STL::allocator<char> >,_STL::allocator<_STL::basic_string<char,_STL::char_traits<char>,_STL::allocator<char> > > >
  0000c	8b c6		 mov	 eax, esi
  0000e	5e		 pop	 esi
  0000f	c2 04 00	 ret	 4
??0?$list@V?$basic_string@DV?$char_traits@D@_STL@@V?$allocator@D@2@@_STL@@V?$allocator@V?$basic_string@DV?$char_traits@D@_STL@@V?$allocator@D@2@@_STL@@@2@@_STL@@QAE@ABV?$allocator@V?$basic_string@DV?$char_traits@D@_STL@@V?$allocator@D@2@@_STL@@@1@@Z ENDP ; _STL::list<_STL::basic_string<char,_STL::char_traits<char>,_STL::allocator<char> >,_STL::allocator<_STL::basic_string<char,_STL::char_traits<char>,_STL::allocator<char> > > >::list<_STL::basic_string<char,_STL::char_traits<char>,_STL::allocator<char> >,_STL::allocator<_STL::basic_string<char,_STL::char_traits<char>,_STL::allocator<char> > > >
_TEXT	ENDS
PUBLIC	??1?$list@V?$basic_string@DV?$char_traits@D@_STL@@V?$allocator@D@2@@_STL@@V?$allocator@V?$basic_string@DV?$char_traits@D@_STL@@V?$allocator@D@2@@_STL@@@2@@_STL@@QAE@XZ ; _STL::list<_STL::basic_string<char,_STL::char_traits<char>,_STL::allocator<char> >,_STL::allocator<_STL::basic_string<char,_STL::char_traits<char>,_STL::allocator<char> > > >::~list<_STL::basic_string<char,_STL::char_traits<char>,_STL::allocator<char> >,_STL::allocator<_STL::basic_string<char,_STL::char_traits<char>,_STL::allocator<char> > > >
; Function compile flags: /Ogsy
;	COMDAT ??1?$list@V?$basic_string@DV?$char_traits@D@_STL@@V?$allocator@D@2@@_STL@@V?$allocator@V?$basic_string@DV?$char_traits@D@_STL@@V?$allocator@D@2@@_STL@@@2@@_STL@@QAE@XZ
_TEXT	SEGMENT
??1?$list@V?$basic_string@DV?$char_traits@D@_STL@@V?$allocator@D@2@@_STL@@V?$allocator@V?$basic_string@DV?$char_traits@D@_STL@@V?$allocator@D@2@@_STL@@@2@@_STL@@QAE@XZ PROC NEAR ; _STL::list<_STL::basic_string<char,_STL::char_traits<char>,_STL::allocator<char> >,_STL::allocator<_STL::basic_string<char,_STL::char_traits<char>,_STL::allocator<char> > > >::~list<_STL::basic_string<char,_STL::char_traits<char>,_STL::allocator<char> >,_STL::allocator<_STL::basic_string<char,_STL::char_traits<char>,_STL::allocator<char> > > >, COMDAT
; _this$ = ecx

; 416  :   ~list() { }

  00000	e9 00 00 00 00	 jmp	 ??1?$_List_base@V?$basic_string@DV?$char_traits@D@_STL@@V?$allocator@D@2@@_STL@@V?$allocator@V?$basic_string@DV?$char_traits@D@_STL@@V?$allocator@D@2@@_STL@@@2@@_STL@@QAE@XZ ; _STL::_List_base<_STL::basic_string<char,_STL::char_traits<char>,_STL::allocator<char> >,_STL::allocator<_STL::basic_string<char,_STL::char_traits<char>,_STL::allocator<char> > > >::~_List_base<_STL::basic_string<char,_STL::char_traits<char>,_STL::allocator<char> >,_STL::allocator<_STL::basic_string<char,_STL::char_traits<char>,_STL::allocator<char> > > >
??1?$list@V?$basic_string@DV?$char_traits@D@_STL@@V?$allocator@D@2@@_STL@@V?$allocator@V?$basic_string@DV?$char_traits@D@_STL@@V?$allocator@D@2@@_STL@@@2@@_STL@@QAE@XZ ENDP ; _STL::list<_STL::basic_string<char,_STL::char_traits<char>,_STL::allocator<char> >,_STL::allocator<_STL::basic_string<char,_STL::char_traits<char>,_STL::allocator<char> > > >::~list<_STL::basic_string<char,_STL::char_traits<char>,_STL::allocator<char> >,_STL::allocator<_STL::basic_string<char,_STL::char_traits<char>,_STL::allocator<char> > > >
_TEXT	ENDS
PUBLIC	?init@?$basic_ios@DV?$char_traits@D@_STL@@@_STL@@IAEXPAV?$basic_streambuf@DV?$char_traits@D@_STL@@@2@@Z ; _STL::basic_ios<char,_STL::char_traits<char> >::init
;	COMDAT xdata$x
; File c:\stlport-4.6.1\stlport\stl\_ios.h
xdata$x	SEGMENT
$T103487 DD	0ffffffffH
	DD	FLAT:$L103441
$T103485 DD	019930520H
	DD	01H
	DD	FLAT:$T103487
	DD	2 DUP(00H)
	DD	2 DUP(00H)
; Function compile flags: /Ogsy
; File c:\stlport-4.6.1\stlport\stl\_ios.c
xdata$x	ENDS
;	COMDAT ?init@?$basic_ios@DV?$char_traits@D@_STL@@@_STL@@IAEXPAV?$basic_streambuf@DV?$char_traits@D@_STL@@@2@@Z
_TEXT	SEGMENT
$T103439 = -20						; size = 4
$T103440 = -16						; size = 4
__$EHRec$ = -12						; size = 12
___sb$ = 8						; size = 4
?init@?$basic_ios@DV?$char_traits@D@_STL@@@_STL@@IAEXPAV?$basic_streambuf@DV?$char_traits@D@_STL@@@2@@Z PROC NEAR ; _STL::basic_ios<char,_STL::char_traits<char> >::init, COMDAT
; _this$ = ecx

; 100  : {

  00000	b8 00 00 00 00	 mov	 eax, __ehhandler$?init@?$basic_ios@DV?$char_traits@D@_STL@@@_STL@@IAEXPAV?$basic_streambuf@DV?$char_traits@D@_STL@@@2@@Z
  00005	e8 00 00 00 00	 call	 __EH_prolog
  0000a	51		 push	 ecx
  0000b	51		 push	 ecx
  0000c	56		 push	 esi
  0000d	57		 push	 edi

; 101  :   this->rdbuf(__sb);

  0000e	ff 75 08	 push	 DWORD PTR ___sb$[ebp]
  00011	8b f1		 mov	 esi, ecx
  00013	e8 00 00 00 00	 call	 ?rdbuf@?$basic_ios@DV?$char_traits@D@_STL@@@_STL@@QAEPAV?$basic_streambuf@DV?$char_traits@D@_STL@@@2@PAV32@@Z ; _STL::basic_ios<char,_STL::char_traits<char> >::rdbuf

; 102  :   this->imbue(locale());

  00018	8d 4d ec	 lea	 ecx, DWORD PTR $T103439[ebp]
  0001b	e8 00 00 00 00	 call	 ??0locale@_STL@@QAE@XZ	; _STL::locale::locale
  00020	50		 push	 eax
  00021	8d 45 f0	 lea	 eax, DWORD PTR $T103440[ebp]
  00024	33 ff		 xor	 edi, edi
  00026	50		 push	 eax
  00027	8b ce		 mov	 ecx, esi
  00029	89 7d fc	 mov	 DWORD PTR __$EHRec$[ebp+8], edi
  0002c	e8 00 00 00 00	 call	 ?imbue@?$basic_ios@DV?$char_traits@D@_STL@@@_STL@@QAE?AVlocale@2@ABV32@@Z ; _STL::basic_ios<char,_STL::char_traits<char> >::imbue
  00031	8d 4d f0	 lea	 ecx, DWORD PTR $T103440[ebp]
  00034	e8 00 00 00 00	 call	 ??1locale@_STL@@QAE@XZ	; _STL::locale::~locale
  00039	83 4d fc ff	 or	 DWORD PTR __$EHRec$[ebp+8], -1
  0003d	8d 4d ec	 lea	 ecx, DWORD PTR $T103439[ebp]
  00040	e8 00 00 00 00	 call	 ??1locale@_STL@@QAE@XZ	; _STL::locale::~locale

; 103  :   this->tie(0);
; 104  :   this->_M_set_exception_mask(ios_base::goodbit);
; 105  :   this->_M_clear_nothrow(__sb != 0 ? ios_base::goodbit : ios_base::badbit);
; 106  :   ios_base::flags(ios_base::skipws | ios_base::dec);
; 107  :   ios_base::width(0);
; 108  :   ios_base::precision(6);
; 109  :   this->fill(widen(' '));

  00045	8b 4e 40	 mov	 ecx, DWORD PTR [esi+64]
  00048	33 c0		 xor	 eax, eax
  0004a	39 7d 08	 cmp	 DWORD PTR ___sb$[ebp], edi
  0004d	89 7e 5c	 mov	 DWORD PTR [esi+92], edi
  00050	0f 94 c0	 sete	 al
  00053	89 7e 14	 mov	 DWORD PTR [esi+20], edi
  00056	c7 46 04 08 10
	00 00		 mov	 DWORD PTR [esi+4], 4104	; 00001008H
  0005d	89 7e 1c	 mov	 DWORD PTR [esi+28], edi
  00060	c7 46 18 06 00
	00 00		 mov	 DWORD PTR [esi+24], 6
  00067	6a 20		 push	 32			; 00000020H
  00069	89 46 08	 mov	 DWORD PTR [esi+8], eax
  0006c	8b 01		 mov	 eax, DWORD PTR [ecx]
  0006e	ff 50 18	 call	 DWORD PTR [eax+24]

; 110  :   // We don't need to worry about any of the three arrays: they are
; 111  :   // initialized correctly in ios_base's constructor.
; 112  : }

  00071	8b 4d f4	 mov	 ecx, DWORD PTR __$EHRec$[ebp]
  00074	88 46 54	 mov	 BYTE PTR [esi+84], al
  00077	5f		 pop	 edi
  00078	5e		 pop	 esi
  00079	64 89 0d 00 00
	00 00		 mov	 DWORD PTR fs:__except_list, ecx
  00080	c9		 leave
  00081	c2 04 00	 ret	 4
_TEXT	ENDS
;	COMDAT text$x
text$x	SEGMENT
$L103441:
  00000	8d 4d ec	 lea	 ecx, DWORD PTR $T103439[ebp]
  00003	e9 00 00 00 00	 jmp	 ??1locale@_STL@@QAE@XZ	; _STL::locale::~locale
__ehhandler$?init@?$basic_ios@DV?$char_traits@D@_STL@@@_STL@@IAEXPAV?$basic_streambuf@DV?$char_traits@D@_STL@@@2@@Z:
  00008	b8 00 00 00 00	 mov	 eax, OFFSET FLAT:$T103485
  0000d	e9 00 00 00 00	 jmp	 ___CxxFrameHandler
text$x	ENDS
?init@?$basic_ios@DV?$char_traits@D@_STL@@@_STL@@IAEXPAV?$basic_streambuf@DV?$char_traits@D@_STL@@@2@@Z ENDP ; _STL::basic_ios<char,_STL::char_traits<char> >::init
PUBLIC	??$insert@U?$_List_iterator@V?$basic_string@DV?$char_traits@D@_STL@@V?$allocator@D@2@@_STL@@U?$_Const_traits@V?$basic_string@DV?$char_traits@D@_STL@@V?$allocator@D@2@@_STL@@@2@@_STL@@@?$list@V?$basic_string@DV?$char_traits@D@_STL@@V?$allocator@D@2@@_STL@@V?$allocator@V?$basic_string@DV?$char_traits@D@_STL@@V?$allocator@D@2@@_STL@@@2@@_STL@@QAEXU?$_List_iterator@V?$basic_string@DV?$char_traits@D@_STL@@V?$allocator@D@2@@_STL@@U?$_Nonconst_traits@V?$basic_string@DV?$char_traits@D@_STL@@V?$allocator@D@2@@_STL@@@2@@1@U?$_List_iterator@V?$basic_string@DV?$char_traits@D@_STL@@V?$allocator@D@2@@_STL@@U?$_Const_traits@V?$basic_string@DV?$char_traits@D@_STL@@V?$allocator@D@2@@_STL@@@2@@1@1@Z ; _STL::list<_STL::basic_string<char,_STL::char_traits<char>,_STL::allocator<char> >,_STL::allocator<_STL::basic_string<char,_STL::char_traits<char>,_STL::allocator<char> > > >::insert<_STL::_List_iterator<_STL::basic_string<char,_STL::char_traits<char>,_STL::allocator<char> >,_STL::_Const_traits<_STL::basic_string<char,_STL::char_traits<char>,_STL::allocator<char> > > > >
; Function compile flags: /Ogsy
; File c:\stlport-4.6.1\stlport\stl\_list.h
;	COMDAT ??$insert@U?$_List_iterator@V?$basic_string@DV?$char_traits@D@_STL@@V?$allocator@D@2@@_STL@@U?$_Const_traits@V?$basic_string@DV?$char_traits@D@_STL@@V?$allocator@D@2@@_STL@@@2@@_STL@@@?$list@V?$basic_string@DV?$char_traits@D@_STL@@V?$allocator@D@2@@_STL@@V?$allocator@V?$basic_string@DV?$char_traits@D@_STL@@V?$allocator@D@2@@_STL@@@2@@_STL@@QAEXU?$_List_iterator@V?$basic_string@DV?$char_traits@D@_STL@@V?$allocator@D@2@@_STL@@U?$_Nonconst_traits@V?$basic_string@DV?$char_traits@D@_STL@@V?$allocator@D@2@@_STL@@@2@@1@U?$_List_iterator@V?$basic_string@DV?$char_traits@D@_STL@@V?$allocator@D@2@@_STL@@U?$_Const_traits@V?$basic_string@DV?$char_traits@D@_STL@@V?$allocator@D@2@@_STL@@@2@@1@1@Z
_TEXT	SEGMENT
___pos$ = 8						; size = 4
___first$ = 12						; size = 4
___last$ = 16						; size = 4
$T103492 = 19						; size = 1
??$insert@U?$_List_iterator@V?$basic_string@DV?$char_traits@D@_STL@@V?$allocator@D@2@@_STL@@U?$_Const_traits@V?$basic_string@DV?$char_traits@D@_STL@@V?$allocator@D@2@@_STL@@@2@@_STL@@@?$list@V?$basic_string@DV?$char_traits@D@_STL@@V?$allocator@D@2@@_STL@@V?$allocator@V?$basic_string@DV?$char_traits@D@_STL@@V?$allocator@D@2@@_STL@@@2@@_STL@@QAEXU?$_List_iterator@V?$basic_string@DV?$char_traits@D@_STL@@V?$allocator@D@2@@_STL@@U?$_Nonconst_traits@V?$basic_string@DV?$char_traits@D@_STL@@V?$allocator@D@2@@_STL@@@2@@1@U?$_List_iterator@V?$basic_string@DV?$char_traits@D@_STL@@V?$allocator@D@2@@_STL@@U?$_Const_traits@V?$basic_string@DV?$char_traits@D@_STL@@V?$allocator@D@2@@_STL@@@2@@1@1@Z PROC NEAR ; _STL::list<_STL::basic_string<char,_STL::char_traits<char>,_STL::allocator<char> >,_STL::allocator<_STL::basic_string<char,_STL::char_traits<char>,_STL::allocator<char> > > >::insert<_STL::_List_iterator<_STL::basic_string<char,_STL::char_traits<char>,_STL::allocator<char> >,_STL::_Const_traits<_STL::basic_string<char,_STL::char_traits<char>,_STL::allocator<char> > > > >, COMDAT
; _this$ = ecx

; 312  :   void insert(iterator __pos, _InputIterator __first, _InputIterator __last) {

  00000	55		 push	 ebp
  00001	8b ec		 mov	 ebp, esp

; 313  :     typedef typename _Is_integer<_InputIterator>::_Integral _Integral;
; 314  :     _M_insert_dispatch(__pos, __first, __last, _Integral());

  00003	8b 55 08	 mov	 edx, DWORD PTR ___pos$[ebp]
  00006	8d 45 13	 lea	 eax, DWORD PTR $T103492[ebp]
  00009	50		 push	 eax
  0000a	ff 75 10	 push	 DWORD PTR ___last$[ebp]
  0000d	ff 75 0c	 push	 DWORD PTR ___first$[ebp]
  00010	51		 push	 ecx
  00011	8b c4		 mov	 eax, esp
  00013	89 10		 mov	 DWORD PTR [eax], edx
  00015	e8 00 00 00 00	 call	 ??$_M_insert_dispatch@U?$_List_iterator@V?$basic_string@DV?$char_traits@D@_STL@@V?$allocator@D@2@@_STL@@U?$_Const_traits@V?$basic_string@DV?$char_traits@D@_STL@@V?$allocator@D@2@@_STL@@@2@@_STL@@@?$list@V?$basic_string@DV?$char_traits@D@_STL@@V?$allocator@D@2@@_STL@@V?$allocator@V?$basic_string@DV?$char_traits@D@_STL@@V?$allocator@D@2@@_STL@@@2@@_STL@@QAEXU?$_List_iterator@V?$basic_string@DV?$char_traits@D@_STL@@V?$allocator@D@2@@_STL@@U?$_Nonconst_traits@V?$basic_string@DV?$char_traits@D@_STL@@V?$allocator@D@2@@_STL@@@2@@1@U?$_List_iterator@V?$basic_string@DV?$char_traits@D@_STL@@V?$allocator@D@2@@_STL@@U?$_Const_traits@V?$basic_string@DV?$char_traits@D@_STL@@V?$allocator@D@2@@_STL@@@2@@1@1ABU__false_type@1@@Z ; _STL::list<_STL::basic_string<char,_STL::char_traits<char>,_STL::allocator<char> >,_STL::allocator<_STL::basic_string<char,_STL::char_traits<char>,_STL::allocator<char> > > >::_M_insert_dispatch<_STL::_List_iterator<_STL::basic_string<char,_STL::char_traits<char>,_STL::allocator<char> >,_STL::_Const_traits<_STL::basic_string<char,_STL::char_traits<char>,_STL::allocator<char> > > > >

; 315  :   }

  0001a	5d		 pop	 ebp
  0001b	c2 0c 00	 ret	 12			; 0000000cH
??$insert@U?$_List_iterator@V?$basic_string@DV?$char_traits@D@_STL@@V?$allocator@D@2@@_STL@@U?$_Const_traits@V?$basic_string@DV?$char_traits@D@_STL@@V?$allocator@D@2@@_STL@@@2@@_STL@@@?$list@V?$basic_string@DV?$char_traits@D@_STL@@V?$allocator@D@2@@_STL@@V?$allocator@V?$basic_string@DV?$char_traits@D@_STL@@V?$allocator@D@2@@_STL@@@2@@_STL@@QAEXU?$_List_iterator@V?$basic_string@DV?$char_traits@D@_STL@@V?$allocator@D@2@@_STL@@U?$_Nonconst_traits@V?$basic_string@DV?$char_traits@D@_STL@@V?$allocator@D@2@@_STL@@@2@@1@U?$_List_iterator@V?$basic_string@DV?$char_traits@D@_STL@@V?$allocator@D@2@@_STL@@U?$_Const_traits@V?$basic_string@DV?$char_traits@D@_STL@@V?$allocator@D@2@@_STL@@@2@@1@1@Z ENDP ; _STL::list<_STL::basic_string<char,_STL::char_traits<char>,_STL::allocator<char> >,_STL::allocator<_STL::basic_string<char,_STL::char_traits<char>,_STL::allocator<char> > > >::insert<_STL::_List_iterator<_STL::basic_string<char,_STL::char_traits<char>,_STL::allocator<char> >,_STL::_Const_traits<_STL::basic_string<char,_STL::char_traits<char>,_STL::allocator<char> > > > >
_TEXT	ENDS
PUBLIC	??_R1A@?0A@A@Throwable@@8			; Throwable::`RTTI Base Class Descriptor at (0,-1,0,0)'
PUBLIC	??_R0?AVThrowable@@@8				; Throwable `RTTI Type Descriptor'
PUBLIC	??0Throwable@@QAE@V?$basic_string@DV?$char_traits@D@_STL@@V?$allocator@D@2@@_STL@@@Z ; Throwable::Throwable
PUBLIC	?getName@Throwable@@UBE?AV?$basic_string@DV?$char_traits@D@_STL@@V?$allocator@D@2@@_STL@@XZ ; Throwable::getName
PUBLIC	?toString@Throwable@@UBE?AV?$basic_string@DV?$char_traits@D@_STL@@V?$allocator@D@2@@_STL@@XZ ; Throwable::toString
PUBLIC	??_R4Throwable@@6B@				; Throwable::`RTTI Complete Object Locator'
PUBLIC	??_R3Throwable@@8				; Throwable::`RTTI Class Hierarchy Descriptor'
PUBLIC	??_R2Throwable@@8				; Throwable::`RTTI Base Class Array'
PUBLIC	??_7Throwable@@6B@				; Throwable::`vftable'
PUBLIC	??_GThrowable@@UAEPAXI@Z			; Throwable::`scalar deleting destructor'
EXTRN	??_EThrowable@@UAEPAXI@Z:NEAR			; Throwable::`vector deleting destructor'
;	COMDAT ??_7Throwable@@6B@
; File c:\stlport-4.6.1\stlport\stl\_alloc.h
CONST	SEGMENT
??_7Throwable@@6B@ DD FLAT:??_R4Throwable@@6B@		; Throwable::`vftable'
	DD	FLAT:??_EThrowable@@UAEPAXI@Z
	DD	FLAT:?getName@Throwable@@UBE?AV?$basic_string@DV?$char_traits@D@_STL@@V?$allocator@D@2@@_STL@@XZ
	DD	FLAT:?toString@Throwable@@UBE?AV?$basic_string@DV?$char_traits@D@_STL@@V?$allocator@D@2@@_STL@@XZ
CONST	ENDS
;	COMDAT ??_R4Throwable@@6B@
rdata$r	SEGMENT
??_R4Throwable@@6B@ DD 00H				; Throwable::`RTTI Complete Object Locator'
	DD	00H
	DD	00H
	DD	FLAT:??_R0?AVThrowable@@@8
	DD	FLAT:??_R3Throwable@@8
rdata$r	ENDS
;	COMDAT ??_R0?AVThrowable@@@8
_DATA	SEGMENT
??_R0?AVThrowable@@@8 DD FLAT:??_7type_info@@6B@	; Throwable `RTTI Type Descriptor'
	DD	00H
	DB	'.?AVThrowable@@', 00H
	ORG $-24
	DD	FLAT:??_7type_info@@6B@
	DD	00H
	DB	'.?AVThrowable@@', 00H
_DATA	ENDS
;	COMDAT ??_R3Throwable@@8
rdata$r	SEGMENT
??_R3Throwable@@8 DD 00H				; Throwable::`RTTI Class Hierarchy Descriptor'
	DD	00H
	DD	01H
	DD	FLAT:??_R2Throwable@@8
rdata$r	ENDS
;	COMDAT ??_R2Throwable@@8
rdata$r	SEGMENT
??_R2Throwable@@8 DD FLAT:??_R1A@?0A@A@Throwable@@8	; Throwable::`RTTI Base Class Array'
rdata$r	ENDS
;	COMDAT ??_R1A@?0A@A@Throwable@@8
rdata$r	SEGMENT
??_R1A@?0A@A@Throwable@@8 DD FLAT:??_R0?AVThrowable@@@8	; Throwable::`RTTI Base Class Descriptor at (0,-1,0,0)'
	DD	00H
	DD	00H
	DD	0ffffffffH
	DD	00H
	DD	00H
; Function compile flags: /Ogsy
; File c:\darkeden\designed_common\project\client\packet\exception.h
rdata$r	ENDS
;	COMDAT ??0Throwable@@QAE@V?$basic_string@DV?$char_traits@D@_STL@@V?$allocator@D@2@@_STL@@@Z
_TEXT	SEGMENT
_message$ = 8						; size = 12
$T103506 = 19						; size = 1
??0Throwable@@QAE@V?$basic_string@DV?$char_traits@D@_STL@@V?$allocator@D@2@@_STL@@@Z PROC NEAR ; Throwable::Throwable, COMDAT
; _this$ = ecx

; 40   : 	Throwable ( std::string message ) throw () : m_Message(message) {}

  00000	55		 push	 ebp
  00001	8b ec		 mov	 ebp, esp
  00003	56		 push	 esi
  00004	8b f1		 mov	 esi, ecx
  00006	8d 45 08	 lea	 eax, DWORD PTR _message$[ebp]
  00009	50		 push	 eax
  0000a	8d 4e 04	 lea	 ecx, DWORD PTR [esi+4]
  0000d	c7 06 00 00 00
	00		 mov	 DWORD PTR [esi], OFFSET FLAT:??_7Throwable@@6B@
  00013	e8 00 00 00 00	 call	 ??0?$basic_string@DV?$char_traits@D@_STL@@V?$allocator@D@2@@_STL@@QAE@ABV01@@Z ; _STL::basic_string<char,_STL::char_traits<char>,_STL::allocator<char> >::basic_string<char,_STL::char_traits<char>,_STL::allocator<char> >
  00018	8d 45 13	 lea	 eax, DWORD PTR $T103506[ebp]
  0001b	50		 push	 eax
  0001c	8d 4e 10	 lea	 ecx, DWORD PTR [esi+16]
  0001f	e8 00 00 00 00	 call	 ??0?$list@V?$basic_string@DV?$char_traits@D@_STL@@V?$allocator@D@2@@_STL@@V?$allocator@V?$basic_string@DV?$char_traits@D@_STL@@V?$allocator@D@2@@_STL@@@2@@_STL@@QAE@ABV?$allocator@V?$basic_string@DV?$char_traits@D@_STL@@V?$allocator@D@2@@_STL@@@1@@Z ; _STL::list<_STL::basic_string<char,_STL::char_traits<char>,_STL::allocator<char> >,_STL::allocator<_STL::basic_string<char,_STL::char_traits<char>,_STL::allocator<char> > > >::list<_STL::basic_string<char,_STL::char_traits<char>,_STL::allocator<char> >,_STL::allocator<_STL::basic_string<char,_STL::char_traits<char>,_STL::allocator<char> > > >
  00024	8d 4d 08	 lea	 ecx, DWORD PTR _message$[ebp]
  00027	e8 00 00 00 00	 call	 ??1?$basic_string@DV?$char_traits@D@_STL@@V?$allocator@D@2@@_STL@@QAE@XZ ; _STL::basic_string<char,_STL::char_traits<char>,_STL::allocator<char> >::~basic_string<char,_STL::char_traits<char>,_STL::allocator<char> >
  0002c	8b c6		 mov	 eax, esi
  0002e	5e		 pop	 esi
  0002f	5d		 pop	 ebp
  00030	c2 0c 00	 ret	 12			; 0000000cH
??0Throwable@@QAE@V?$basic_string@DV?$char_traits@D@_STL@@V?$allocator@D@2@@_STL@@@Z ENDP ; Throwable::Throwable
_TEXT	ENDS
PUBLIC	??0?$basic_string@DV?$char_traits@D@_STL@@V?$allocator@D@2@@_STL@@QAE@PBDABV?$allocator@D@1@@Z ; _STL::basic_string<char,_STL::char_traits<char>,_STL::allocator<char> >::basic_string<char,_STL::char_traits<char>,_STL::allocator<char> >
PUBLIC	??_C@_09KCKHMJEM@Throwable?$AA@			; `string'
;	COMDAT ??_C@_09KCKHMJEM@Throwable?$AA@
; File c:\stlport-4.6.1\stlport\stl\_alloc.h
CONST	SEGMENT
??_C@_09KCKHMJEM@Throwable?$AA@ DB 'Throwable', 00H	; `string'
; Function compile flags: /Ogsy
; File c:\darkeden\designed_common\project\client\packet\exception.h
CONST	ENDS
;	COMDAT ?getName@Throwable@@UBE?AV?$basic_string@DV?$char_traits@D@_STL@@V?$allocator@D@2@@_STL@@XZ
_TEXT	SEGMENT
$T103515 = -1						; size = 1
___$ReturnUdt$ = 8					; size = 4
?getName@Throwable@@UBE?AV?$basic_string@DV?$char_traits@D@_STL@@V?$allocator@D@2@@_STL@@XZ PROC NEAR ; Throwable::getName, COMDAT
; _this$ = ecx

; 46   : 	virtual std::string getName () const throw () { return "Throwable"; }

  00000	55		 push	 ebp
  00001	8b ec		 mov	 ebp, esp
  00003	51		 push	 ecx
  00004	8b 4d 08	 mov	 ecx, DWORD PTR ___$ReturnUdt$[ebp]
  00007	8d 45 ff	 lea	 eax, DWORD PTR $T103515[ebp]
  0000a	50		 push	 eax
  0000b	68 00 00 00 00	 push	 OFFSET FLAT:??_C@_09KCKHMJEM@Throwable?$AA@
  00010	e8 00 00 00 00	 call	 ??0?$basic_string@DV?$char_traits@D@_STL@@V?$allocator@D@2@@_STL@@QAE@PBDABV?$allocator@D@1@@Z ; _STL::basic_string<char,_STL::char_traits<char>,_STL::allocator<char> >::basic_string<char,_STL::char_traits<char>,_STL::allocator<char> >
  00015	8b 45 08	 mov	 eax, DWORD PTR ___$ReturnUdt$[ebp]
  00018	c9		 leave
  00019	c2 04 00	 ret	 4
?getName@Throwable@@UBE?AV?$basic_string@DV?$char_traits@D@_STL@@V?$allocator@D@2@@_STL@@XZ ENDP ; Throwable::getName
_TEXT	ENDS
PUBLIC	??$_M_range_initialize@PBD@?$basic_string@DV?$char_traits@D@_STL@@V?$allocator@D@2@@_STL@@AAEXPBD0ABUforward_iterator_tag@1@@Z ; _STL::basic_string<char,_STL::char_traits<char>,_STL::allocator<char> >::_M_range_initialize<char const *>
;	COMDAT xdata$x
; File c:\stlport-4.6.1\stlport\stl\_string.h
xdata$x	SEGMENT
$T103564 DD	0ffffffffH
	DD	FLAT:$L103524
$T103562 DD	019930520H
	DD	01H
	DD	FLAT:$T103564
	DD	2 DUP(00H)
	DD	2 DUP(00H)
; Function compile flags: /Ogsy
; File c:\stlport-4.6.1\stlport\stl\_string.c
xdata$x	ENDS
;	COMDAT ??0?$basic_string@DV?$char_traits@D@_STL@@V?$allocator@D@2@@_STL@@QAE@PBDABV?$allocator@D@1@@Z
_TEXT	SEGMENT
_this$ = -16						; size = 4
__$EHRec$ = -12						; size = 12
___s$ = 8						; size = 4
$T103558 = 11						; size = 1
___a$ = 12						; size = 4
??0?$basic_string@DV?$char_traits@D@_STL@@V?$allocator@D@2@@_STL@@QAE@PBDABV?$allocator@D@1@@Z PROC NEAR ; _STL::basic_string<char,_STL::char_traits<char>,_STL::allocator<char> >::basic_string<char,_STL::char_traits<char>,_STL::allocator<char> >, COMDAT
; _this$ = ecx

; 552  : { 

  00000	b8 00 00 00 00	 mov	 eax, __ehhandler$??0?$basic_string@DV?$char_traits@D@_STL@@V?$allocator@D@2@@_STL@@QAE@PBDABV?$allocator@D@1@@Z
  00005	e8 00 00 00 00	 call	 __EH_prolog
  0000a	51		 push	 ecx
  0000b	56		 push	 esi
  0000c	ff 75 0c	 push	 DWORD PTR ___a$[ebp]
  0000f	8b f1		 mov	 esi, ecx
  00011	89 75 f0	 mov	 DWORD PTR _this$[ebp], esi
  00014	e8 00 00 00 00	 call	 ??0?$_String_base@DV?$allocator@D@_STL@@@_STL@@QAE@ABV?$allocator@D@1@@Z ; _STL::_String_base<char,_STL::allocator<char> >::_String_base<char,_STL::allocator<char> >

; 553  :   _STLP_FIX_LITERAL_BUG(__s) 
; 554  :     _M_range_initialize(__s, __s + traits_type::length(__s));  

  00019	ff 75 08	 push	 DWORD PTR ___s$[ebp]
  0001c	83 65 fc 00	 and	 DWORD PTR __$EHRec$[ebp+8], 0
  00020	e8 00 00 00 00	 call	 _strlen
  00025	03 45 08	 add	 eax, DWORD PTR ___s$[ebp]
  00028	59		 pop	 ecx
  00029	8d 4d 0b	 lea	 ecx, DWORD PTR $T103558[ebp]
  0002c	51		 push	 ecx
  0002d	50		 push	 eax
  0002e	ff 75 08	 push	 DWORD PTR ___s$[ebp]
  00031	8b ce		 mov	 ecx, esi
  00033	e8 00 00 00 00	 call	 ??$_M_range_initialize@PBD@?$basic_string@DV?$char_traits@D@_STL@@V?$allocator@D@2@@_STL@@AAEXPBD0ABUforward_iterator_tag@1@@Z ; _STL::basic_string<char,_STL::char_traits<char>,_STL::allocator<char> >::_M_range_initialize<char const *>

; 555  : } 

  00038	8b 4d f4	 mov	 ecx, DWORD PTR __$EHRec$[ebp]
  0003b	8b c6		 mov	 eax, esi
  0003d	5e		 pop	 esi
  0003e	64 89 0d 00 00
	00 00		 mov	 DWORD PTR fs:__except_list, ecx
  00045	c9		 leave
  00046	c2 08 00	 ret	 8
_TEXT	ENDS
;	COMDAT text$x
text$x	SEGMENT
$L103524:
  00000	8b 4d f0	 mov	 ecx, DWORD PTR _this$[ebp]
  00003	e9 00 00 00 00	 jmp	 ??1?$_String_base@DV?$allocator@D@_STL@@@_STL@@QAE@XZ ; _STL::_String_base<char,_STL::allocator<char> >::~_String_base<char,_STL::allocator<char> >
__ehhandler$??0?$basic_string@DV?$char_traits@D@_STL@@V?$allocator@D@2@@_STL@@QAE@PBDABV?$allocator@D@1@@Z:
  00008	b8 00 00 00 00	 mov	 eax, OFFSET FLAT:$T103562
  0000d	e9 00 00 00 00	 jmp	 ___CxxFrameHandler
text$x	ENDS
??0?$basic_string@DV?$char_traits@D@_STL@@V?$allocator@D@2@@_STL@@QAE@PBDABV?$allocator@D@1@@Z ENDP ; _STL::basic_string<char,_STL::char_traits<char>,_STL::allocator<char> >::basic_string<char,_STL::char_traits<char>,_STL::allocator<char> >
; Function compile flags: /Ogsy
; File c:\stlport-4.6.1\stlport\stl\_string.h
;	COMDAT ??$_M_range_initialize@PBD@?$basic_string@DV?$char_traits@D@_STL@@V?$allocator@D@2@@_STL@@AAEXPBD0ABUforward_iterator_tag@1@@Z
_TEXT	SEGMENT
___f$ = 8						; size = 4
___l$ = 12						; size = 4
___formal$ = 16						; size = 4
??$_M_range_initialize@PBD@?$basic_string@DV?$char_traits@D@_STL@@V?$allocator@D@2@@_STL@@AAEXPBD0ABUforward_iterator_tag@1@@Z PROC NEAR ; _STL::basic_string<char,_STL::char_traits<char>,_STL::allocator<char> >::_M_range_initialize<char const *>, COMDAT
; _this$ = ecx

; 383  :                            const forward_iterator_tag &) {
; 384  :     difference_type __n = distance(__f, __l);
; 385  :     this->_M_allocate_block(__n + 1);

  00000	8b 44 24 08	 mov	 eax, DWORD PTR ___l$[esp-4]
  00004	2b 44 24 04	 sub	 eax, DWORD PTR ___f$[esp-4]
  00008	56		 push	 esi
  00009	40		 inc	 eax
  0000a	50		 push	 eax
  0000b	8b f1		 mov	 esi, ecx
  0000d	e8 00 00 00 00	 call	 ?_M_allocate_block@?$_String_base@DV?$allocator@D@_STL@@@_STL@@QAEXI@Z ; _STL::_String_base<char,_STL::allocator<char> >::_M_allocate_block

; 386  :     this->_M_finish = uninitialized_copy(__f, __l, this->_M_start);

  00012	ff 36		 push	 DWORD PTR [esi]
  00014	ff 74 24 10	 push	 DWORD PTR ___l$[esp+4]
  00018	ff 74 24 10	 push	 DWORD PTR ___f$[esp+8]
  0001c	e8 00 00 00 00	 call	 ?__copy_trivial@_STL@@YAPAXPBX0PAX@Z ; _STL::__copy_trivial
  00021	83 c4 0c	 add	 esp, 12			; 0000000cH
  00024	89 46 04	 mov	 DWORD PTR [esi+4], eax

; 387  :     _M_terminate_string();

  00027	c6 00 00	 mov	 BYTE PTR [eax], 0
  0002a	5e		 pop	 esi

; 388  :   }

  0002b	c2 0c 00	 ret	 12			; 0000000cH
??$_M_range_initialize@PBD@?$basic_string@DV?$char_traits@D@_STL@@V?$allocator@D@2@@_STL@@AAEXPBD0ABUforward_iterator_tag@1@@Z ENDP ; _STL::basic_string<char,_STL::char_traits<char>,_STL::allocator<char> >::_M_range_initialize<char const *>
_TEXT	ENDS
PUBLIC	?getStackTrace@Throwable@@QBE?AV?$basic_string@DV?$char_traits@D@_STL@@V?$allocator@D@2@@_STL@@XZ ; Throwable::getStackTrace
PUBLIC	??_C@_03MCPBMLDJ@?5?3?5?$AA@			; `string'
EXTRN	??0StringStream@@QAE@XZ:NEAR			; StringStream::StringStream
EXTRN	??1StringStream@@QAE@XZ:NEAR			; StringStream::~StringStream
EXTRN	??6StringStream@@QAEAAV0@D@Z:NEAR		; StringStream::operator<<
EXTRN	??6StringStream@@QAEAAV0@PBD@Z:NEAR		; StringStream::operator<<
EXTRN	??6StringStream@@QAEAAV0@ABV?$basic_string@DV?$char_traits@D@_STL@@V?$allocator@D@2@@_STL@@@Z:NEAR ; StringStream::operator<<
EXTRN	?toString@StringStream@@QBE?AV?$basic_string@DV?$char_traits@D@_STL@@V?$allocator@D@2@@_STL@@XZ:NEAR ; StringStream::toString
;	COMDAT ??_C@_03MCPBMLDJ@?5?3?5?$AA@
; File c:\darkeden\designed_common\project\client\packet\exception.h
CONST	SEGMENT
??_C@_03MCPBMLDJ@?5?3?5?$AA@ DB ' : ', 00H		; `string'
; Function compile flags: /Ogsy
CONST	ENDS
;	COMDAT ?toString@Throwable@@UBE?AV?$basic_string@DV?$char_traits@D@_STL@@V?$allocator@D@2@@_STL@@XZ
_TEXT	SEGMENT
_buf$ = -44						; size = 20
$T103600 = -24						; size = 12
$T103599 = -24						; size = 12
$T103598 = -12						; size = 12
___$ReturnUdt$ = 8					; size = 4
?toString@Throwable@@UBE?AV?$basic_string@DV?$char_traits@D@_STL@@V?$allocator@D@2@@_STL@@XZ PROC NEAR ; Throwable::toString, COMDAT
; _this$ = ecx

; 79   : 	{

  00000	55		 push	 ebp
  00001	8b ec		 mov	 ebp, esp
  00003	83 ec 2c	 sub	 esp, 44			; 0000002cH
  00006	56		 push	 esi
  00007	8b f1		 mov	 esi, ecx

; 80   : 		StringStream buf;

  00009	8d 4d d4	 lea	 ecx, DWORD PTR _buf$[ebp]
  0000c	e8 00 00 00 00	 call	 ??0StringStream@@QAE@XZ	; StringStream::StringStream

; 81   : 		buf << getName() << " : " << m_Message << '\n'
; 82   : 			<< getStackTrace () ;

  00011	8d 45 e8	 lea	 eax, DWORD PTR $T103599[ebp]
  00014	50		 push	 eax
  00015	8b ce		 mov	 ecx, esi
  00017	e8 00 00 00 00	 call	 ?getStackTrace@Throwable@@QBE?AV?$basic_string@DV?$char_traits@D@_STL@@V?$allocator@D@2@@_STL@@XZ ; Throwable::getStackTrace
  0001c	50		 push	 eax
  0001d	6a 0a		 push	 10			; 0000000aH
  0001f	8d 46 04	 lea	 eax, DWORD PTR [esi+4]
  00022	50		 push	 eax
  00023	8b 06		 mov	 eax, DWORD PTR [esi]
  00025	68 00 00 00 00	 push	 OFFSET FLAT:??_C@_03MCPBMLDJ@?5?3?5?$AA@
  0002a	8d 4d f4	 lea	 ecx, DWORD PTR $T103598[ebp]
  0002d	51		 push	 ecx
  0002e	8b ce		 mov	 ecx, esi
  00030	ff 50 04	 call	 DWORD PTR [eax+4]
  00033	50		 push	 eax
  00034	8d 4d d4	 lea	 ecx, DWORD PTR _buf$[ebp]
  00037	e8 00 00 00 00	 call	 ??6StringStream@@QAEAAV0@ABV?$basic_string@DV?$char_traits@D@_STL@@V?$allocator@D@2@@_STL@@@Z ; StringStream::operator<<
  0003c	8b c8		 mov	 ecx, eax
  0003e	e8 00 00 00 00	 call	 ??6StringStream@@QAEAAV0@PBD@Z ; StringStream::operator<<
  00043	8b c8		 mov	 ecx, eax
  00045	e8 00 00 00 00	 call	 ??6StringStream@@QAEAAV0@ABV?$basic_string@DV?$char_traits@D@_STL@@V?$allocator@D@2@@_STL@@@Z ; StringStream::operator<<
  0004a	8b c8		 mov	 ecx, eax
  0004c	e8 00 00 00 00	 call	 ??6StringStream@@QAEAAV0@D@Z ; StringStream::operator<<
  00051	8b c8		 mov	 ecx, eax
  00053	e8 00 00 00 00	 call	 ??6StringStream@@QAEAAV0@ABV?$basic_string@DV?$char_traits@D@_STL@@V?$allocator@D@2@@_STL@@@Z ; StringStream::operator<<
  00058	8d 4d f4	 lea	 ecx, DWORD PTR $T103598[ebp]
  0005b	e8 00 00 00 00	 call	 ??1?$basic_string@DV?$char_traits@D@_STL@@V?$allocator@D@2@@_STL@@QAE@XZ ; _STL::basic_string<char,_STL::char_traits<char>,_STL::allocator<char> >::~basic_string<char,_STL::char_traits<char>,_STL::allocator<char> >
  00060	8d 4d e8	 lea	 ecx, DWORD PTR $T103599[ebp]
  00063	e8 00 00 00 00	 call	 ??1?$basic_string@DV?$char_traits@D@_STL@@V?$allocator@D@2@@_STL@@QAE@XZ ; _STL::basic_string<char,_STL::char_traits<char>,_STL::allocator<char> >::~basic_string<char,_STL::char_traits<char>,_STL::allocator<char> >

; 83   : 		
; 84   : 		return std::string( buf.toString() );

  00068	8d 45 e8	 lea	 eax, DWORD PTR $T103600[ebp]
  0006b	50		 push	 eax
  0006c	8d 4d d4	 lea	 ecx, DWORD PTR _buf$[ebp]
  0006f	e8 00 00 00 00	 call	 ?toString@StringStream@@QBE?AV?$basic_string@DV?$char_traits@D@_STL@@V?$allocator@D@2@@_STL@@XZ ; StringStream::toString
  00074	8b 4d 08	 mov	 ecx, DWORD PTR ___$ReturnUdt$[ebp]
  00077	50		 push	 eax
  00078	e8 00 00 00 00	 call	 ??0?$basic_string@DV?$char_traits@D@_STL@@V?$allocator@D@2@@_STL@@QAE@ABV01@@Z ; _STL::basic_string<char,_STL::char_traits<char>,_STL::allocator<char> >::basic_string<char,_STL::char_traits<char>,_STL::allocator<char> >
  0007d	8d 4d e8	 lea	 ecx, DWORD PTR $T103600[ebp]
  00080	e8 00 00 00 00	 call	 ??1?$basic_string@DV?$char_traits@D@_STL@@V?$allocator@D@2@@_STL@@QAE@XZ ; _STL::basic_string<char,_STL::char_traits<char>,_STL::allocator<char> >::~basic_string<char,_STL::char_traits<char>,_STL::allocator<char> >
  00085	8d 4d d4	 lea	 ecx, DWORD PTR _buf$[ebp]
  00088	e8 00 00 00 00	 call	 ??1StringStream@@QAE@XZ	; StringStream::~StringStream
  0008d	8b 45 08	 mov	 eax, DWORD PTR ___$ReturnUdt$[ebp]
  00090	5e		 pop	 esi

; 85   : 	}

  00091	c9		 leave
  00092	c2 04 00	 ret	 4
?toString@Throwable@@UBE?AV?$basic_string@DV?$char_traits@D@_STL@@V?$allocator@D@2@@_STL@@XZ ENDP ; Throwable::toString
_TEXT	ENDS
PUBLIC	??_C@_01CLKCMJKC@?5?$AA@			; `string'
;	COMDAT ??_C@_01CLKCMJKC@?5?$AA@
; File c:\stlport-4.6.1\stlport\stl\_list.h
CONST	SEGMENT
??_C@_01CLKCMJKC@?5?$AA@ DB ' ', 00H			; `string'
; Function compile flags: /Ogsy
; File c:\darkeden\designed_common\project\client\packet\exception.h
CONST	ENDS
;	COMDAT ?getStackTrace@Throwable@@QBE?AV?$basic_string@DV?$char_traits@D@_STL@@V?$allocator@D@2@@_STL@@XZ
_TEXT	SEGMENT
_buf$ = -36						; size = 20
$T103605 = -16						; size = 12
tv90 = -4						; size = 4
___$ReturnUdt$ = 8					; size = 4
?getStackTrace@Throwable@@QBE?AV?$basic_string@DV?$char_traits@D@_STL@@V?$allocator@D@2@@_STL@@XZ PROC NEAR ; Throwable::getStackTrace, COMDAT
; _this$ = ecx

; 56   : 	{

  00000	55		 push	 ebp
  00001	8b ec		 mov	 ebp, esp
  00003	83 ec 24	 sub	 esp, 36			; 00000024H
  00006	53		 push	 ebx
  00007	56		 push	 esi
  00008	57		 push	 edi
  00009	8b f9		 mov	 edi, ecx

; 57   : 		StringStream buf;

  0000b	8d 4d dc	 lea	 ecx, DWORD PTR _buf$[ebp]
  0000e	e8 00 00 00 00	 call	 ??0StringStream@@QAE@XZ	; StringStream::StringStream

; 58   : 		int i = 1;
; 59   : 
; 60   : 		for ( std::list<std::string>::const_iterator itr = m_Stacks.begin() ;

  00013	8b 47 10	 mov	 eax, DWORD PTR [edi+16]
  00016	8b 30		 mov	 esi, DWORD PTR [eax]
  00018	33 db		 xor	 ebx, ebx
  0001a	43		 inc	 ebx

; 61   : 			  itr != m_Stacks.end() ;
; 62   : 			  itr ++ , i ++ ) {

  0001b	3b f0		 cmp	 esi, eax
  0001d	74 36		 je	 SHORT $L88001
$L87999:

; 63   : 			for ( int j = 0 ; j < i ; j ++ )

  0001f	85 db		 test	 ebx, ebx
  00021	7e 15		 jle	 SHORT $L88005
  00023	89 5d fc	 mov	 DWORD PTR tv90[ebp], ebx
$L88003:

; 64   : 				buf << " ";

  00026	68 00 00 00 00	 push	 OFFSET FLAT:??_C@_01CLKCMJKC@?5?$AA@
  0002b	8d 4d dc	 lea	 ecx, DWORD PTR _buf$[ebp]
  0002e	e8 00 00 00 00	 call	 ??6StringStream@@QAEAAV0@PBD@Z ; StringStream::operator<<
  00033	ff 4d fc	 dec	 DWORD PTR tv90[ebp]
  00036	75 ee		 jne	 SHORT $L88003
$L88005:

; 65   : 			buf << *itr << '\n' ;

  00038	6a 0a		 push	 10			; 0000000aH
  0003a	8d 46 08	 lea	 eax, DWORD PTR [esi+8]
  0003d	50		 push	 eax
  0003e	8d 4d dc	 lea	 ecx, DWORD PTR _buf$[ebp]
  00041	e8 00 00 00 00	 call	 ??6StringStream@@QAEAAV0@ABV?$basic_string@DV?$char_traits@D@_STL@@V?$allocator@D@2@@_STL@@@Z ; StringStream::operator<<
  00046	8b c8		 mov	 ecx, eax
  00048	e8 00 00 00 00	 call	 ??6StringStream@@QAEAAV0@D@Z ; StringStream::operator<<
  0004d	8b 36		 mov	 esi, DWORD PTR [esi]
  0004f	43		 inc	 ebx
  00050	3b 77 10	 cmp	 esi, DWORD PTR [edi+16]
  00053	75 ca		 jne	 SHORT $L87999
$L88001:

; 66   : 		}
; 67   : 		
; 68   : 		return std::string( buf.toString() );

  00055	8d 45 f0	 lea	 eax, DWORD PTR $T103605[ebp]
  00058	50		 push	 eax
  00059	8d 4d dc	 lea	 ecx, DWORD PTR _buf$[ebp]
  0005c	e8 00 00 00 00	 call	 ?toString@StringStream@@QBE?AV?$basic_string@DV?$char_traits@D@_STL@@V?$allocator@D@2@@_STL@@XZ ; StringStream::toString
  00061	8b 4d 08	 mov	 ecx, DWORD PTR ___$ReturnUdt$[ebp]
  00064	50		 push	 eax
  00065	e8 00 00 00 00	 call	 ??0?$basic_string@DV?$char_traits@D@_STL@@V?$allocator@D@2@@_STL@@QAE@ABV01@@Z ; _STL::basic_string<char,_STL::char_traits<char>,_STL::allocator<char> >::basic_string<char,_STL::char_traits<char>,_STL::allocator<char> >
  0006a	8d 4d f0	 lea	 ecx, DWORD PTR $T103605[ebp]
  0006d	e8 00 00 00 00	 call	 ??1?$basic_string@DV?$char_traits@D@_STL@@V?$allocator@D@2@@_STL@@QAE@XZ ; _STL::basic_string<char,_STL::char_traits<char>,_STL::allocator<char> >::~basic_string<char,_STL::char_traits<char>,_STL::allocator<char> >
  00072	8d 4d dc	 lea	 ecx, DWORD PTR _buf$[ebp]
  00075	e8 00 00 00 00	 call	 ??1StringStream@@QAE@XZ	; StringStream::~StringStream
  0007a	8b 45 08	 mov	 eax, DWORD PTR ___$ReturnUdt$[ebp]
  0007d	5f		 pop	 edi
  0007e	5e		 pop	 esi
  0007f	5b		 pop	 ebx

; 69   : 	}

  00080	c9		 leave
  00081	c2 04 00	 ret	 4
?getStackTrace@Throwable@@QBE?AV?$basic_string@DV?$char_traits@D@_STL@@V?$allocator@D@2@@_STL@@XZ ENDP ; Throwable::getStackTrace
_TEXT	ENDS
PUBLIC	??1Throwable@@UAE@XZ				; Throwable::~Throwable
; Function compile flags: /Ogsy
;	COMDAT ??1Throwable@@UAE@XZ
_TEXT	SEGMENT
??1Throwable@@UAE@XZ PROC NEAR				; Throwable::~Throwable, COMDAT
; _this$ = ecx

; 43   : 	virtual ~Throwable () throw () {}

  00000	56		 push	 esi
  00001	8b f1		 mov	 esi, ecx
  00003	8d 4e 10	 lea	 ecx, DWORD PTR [esi+16]
  00006	c7 06 00 00 00
	00		 mov	 DWORD PTR [esi], OFFSET FLAT:??_7Throwable@@6B@
  0000c	e8 00 00 00 00	 call	 ??1?$list@V?$basic_string@DV?$char_traits@D@_STL@@V?$allocator@D@2@@_STL@@V?$allocator@V?$basic_string@DV?$char_traits@D@_STL@@V?$allocator@D@2@@_STL@@@2@@_STL@@QAE@XZ ; _STL::list<_STL::basic_string<char,_STL::char_traits<char>,_STL::allocator<char> >,_STL::allocator<_STL::basic_string<char,_STL::char_traits<char>,_STL::allocator<char> > > >::~list<_STL::basic_string<char,_STL::char_traits<char>,_STL::allocator<char> >,_STL::allocator<_STL::basic_string<char,_STL::char_traits<char>,_STL::allocator<char> > > >
  00011	8d 4e 04	 lea	 ecx, DWORD PTR [esi+4]
  00014	5e		 pop	 esi
  00015	e9 00 00 00 00	 jmp	 ??1?$basic_string@DV?$char_traits@D@_STL@@V?$allocator@D@2@@_STL@@QAE@XZ ; _STL::basic_string<char,_STL::char_traits<char>,_STL::allocator<char> >::~basic_string<char,_STL::char_traits<char>,_STL::allocator<char> >
??1Throwable@@UAE@XZ ENDP				; Throwable::~Throwable
; Function compile flags: /Ogsy
_TEXT	ENDS
;	COMDAT ??_GThrowable@@UAEPAXI@Z
_TEXT	SEGMENT
___flags$ = 8						; size = 4
??_GThrowable@@UAEPAXI@Z PROC NEAR			; Throwable::`scalar deleting destructor', COMDAT
; _this$ = ecx
  00000	56		 push	 esi
  00001	8b f1		 mov	 esi, ecx
  00003	e8 00 00 00 00	 call	 ??1Throwable@@UAE@XZ	; Throwable::~Throwable
  00008	f6 44 24 08 01	 test	 BYTE PTR ___flags$[esp], 1
  0000d	74 07		 je	 SHORT $L88026
  0000f	56		 push	 esi
  00010	e8 00 00 00 00	 call	 ??3@YAXPAX@Z		; operator delete
  00015	59		 pop	 ecx
$L88026:
  00016	8b c6		 mov	 eax, esi
  00018	5e		 pop	 esi
  00019	c2 04 00	 ret	 4
??_GThrowable@@UAEPAXI@Z ENDP				; Throwable::`scalar deleting destructor'
_TEXT	ENDS
PUBLIC	??0Error@@QAE@ABV?$basic_string@DV?$char_traits@D@_STL@@V?$allocator@D@2@@_STL@@@Z ; Error::Error
PUBLIC	?getName@Error@@UBE?AV?$basic_string@DV?$char_traits@D@_STL@@V?$allocator@D@2@@_STL@@XZ ; Error::getName
PUBLIC	??_7Error@@6B@					; Error::`vftable'
PUBLIC	??_GError@@UAEPAXI@Z				; Error::`scalar deleting destructor'
PUBLIC	??_R1A@?0A@A@Error@@8				; Error::`RTTI Base Class Descriptor at (0,-1,0,0)'
PUBLIC	??_R0?AVError@@@8				; Error `RTTI Type Descriptor'
PUBLIC	??_R4Error@@6B@					; Error::`RTTI Complete Object Locator'
PUBLIC	??_R3Error@@8					; Error::`RTTI Class Hierarchy Descriptor'
PUBLIC	??_R2Error@@8					; Error::`RTTI Base Class Array'
EXTRN	??_EError@@UAEPAXI@Z:NEAR			; Error::`vector deleting destructor'
;	COMDAT ??_7Error@@6B@
CONST	SEGMENT
??_7Error@@6B@ DD FLAT:??_R4Error@@6B@			; Error::`vftable'
	DD	FLAT:??_EError@@UAEPAXI@Z
	DD	FLAT:?getName@Error@@UBE?AV?$basic_string@DV?$char_traits@D@_STL@@V?$allocator@D@2@@_STL@@XZ
	DD	FLAT:?toString@Throwable@@UBE?AV?$basic_string@DV?$char_traits@D@_STL@@V?$allocator@D@2@@_STL@@XZ
CONST	ENDS
;	COMDAT ??_R4Error@@6B@
rdata$r	SEGMENT
??_R4Error@@6B@ DD 00H					; Error::`RTTI Complete Object Locator'
	DD	00H
	DD	00H
	DD	FLAT:??_R0?AVError@@@8
	DD	FLAT:??_R3Error@@8
rdata$r	ENDS
;	COMDAT ??_R0?AVError@@@8
_DATA	SEGMENT
??_R0?AVError@@@8 DD FLAT:??_7type_info@@6B@		; Error `RTTI Type Descriptor'
	DD	00H
	DB	'.?AVError@@', 00H
	ORG $-20
	DD	FLAT:??_7type_info@@6B@
	DD	00H
	DB	'.?AVError@@', 00H
_DATA	ENDS
;	COMDAT ??_R3Error@@8
rdata$r	SEGMENT
??_R3Error@@8 DD 00H					; Error::`RTTI Class Hierarchy Descriptor'
	DD	00H
	DD	02H
	DD	FLAT:??_R2Error@@8
rdata$r	ENDS
;	COMDAT ??_R2Error@@8
rdata$r	SEGMENT
??_R2Error@@8 DD FLAT:??_R1A@?0A@A@Error@@8		; Error::`RTTI Base Class Array'
	DD	FLAT:??_R1A@?0A@A@Throwable@@8
rdata$r	ENDS
;	COMDAT ??_R1A@?0A@A@Error@@8
rdata$r	SEGMENT
??_R1A@?0A@A@Error@@8 DD FLAT:??_R0?AVError@@@8		; Error::`RTTI Base Class Descriptor at (0,-1,0,0)'
	DD	01H
	DD	00H
	DD	0ffffffffH
	DD	00H
	DD	00H
; Function compile flags: /Ogsy
rdata$r	ENDS
;	COMDAT ??0Error@@QAE@ABV?$basic_string@DV?$char_traits@D@_STL@@V?$allocator@D@2@@_STL@@@Z
_TEXT	SEGMENT
$T103666 = -4						; size = 4
_msg$ = 8						; size = 4
??0Error@@QAE@ABV?$basic_string@DV?$char_traits@D@_STL@@V?$allocator@D@2@@_STL@@@Z PROC NEAR ; Error::Error, COMDAT
; _this$ = ecx

; 676  : 	Error ( const std::string & msg ) throw () : Throwable(msg) {}

  00000	55		 push	 ebp
  00001	8b ec		 mov	 ebp, esp
  00003	51		 push	 ecx
  00004	56		 push	 esi
  00005	83 ec 0c	 sub	 esp, 12			; 0000000cH
  00008	8b f1		 mov	 esi, ecx
  0000a	8b cc		 mov	 ecx, esp
  0000c	89 65 fc	 mov	 DWORD PTR $T103666[ebp], esp
  0000f	ff 75 08	 push	 DWORD PTR _msg$[ebp]
  00012	e8 00 00 00 00	 call	 ??0?$basic_string@DV?$char_traits@D@_STL@@V?$allocator@D@2@@_STL@@QAE@ABV01@@Z ; _STL::basic_string<char,_STL::char_traits<char>,_STL::allocator<char> >::basic_string<char,_STL::char_traits<char>,_STL::allocator<char> >
  00017	8b ce		 mov	 ecx, esi
  00019	e8 00 00 00 00	 call	 ??0Throwable@@QAE@V?$basic_string@DV?$char_traits@D@_STL@@V?$allocator@D@2@@_STL@@@Z ; Throwable::Throwable
  0001e	c7 06 00 00 00
	00		 mov	 DWORD PTR [esi], OFFSET FLAT:??_7Error@@6B@
  00024	8b c6		 mov	 eax, esi
  00026	5e		 pop	 esi
  00027	c9		 leave
  00028	c2 04 00	 ret	 4
??0Error@@QAE@ABV?$basic_string@DV?$char_traits@D@_STL@@V?$allocator@D@2@@_STL@@@Z ENDP ; Error::Error
_TEXT	ENDS
PUBLIC	??_C@_05NAOIJFC@Error?$AA@			; `string'
;	COMDAT ??_C@_05NAOIJFC@Error?$AA@
; File c:\stlport-4.6.1\stlport\stl\_alloc.h
CONST	SEGMENT
??_C@_05NAOIJFC@Error?$AA@ DB 'Error', 00H		; `string'
; Function compile flags: /Ogsy
; File c:\darkeden\designed_common\project\client\packet\exception.h
CONST	ENDS
;	COMDAT ?getName@Error@@UBE?AV?$basic_string@DV?$char_traits@D@_STL@@V?$allocator@D@2@@_STL@@XZ
_TEXT	SEGMENT
___$ReturnUdt$ = 8					; size = 4
$T103669 = 11						; size = 1
?getName@Error@@UBE?AV?$basic_string@DV?$char_traits@D@_STL@@V?$allocator@D@2@@_STL@@XZ PROC NEAR ; Error::getName, COMDAT
; _this$ = ecx

; 677  : 	std::string getName () const throw () { return "Error"; }

  00000	55		 push	 ebp
  00001	8b ec		 mov	 ebp, esp
  00003	8b 4d 08	 mov	 ecx, DWORD PTR ___$ReturnUdt$[ebp]
  00006	8d 45 0b	 lea	 eax, DWORD PTR $T103669[ebp]
  00009	50		 push	 eax
  0000a	68 00 00 00 00	 push	 OFFSET FLAT:??_C@_05NAOIJFC@Error?$AA@
  0000f	e8 00 00 00 00	 call	 ??0?$basic_string@DV?$char_traits@D@_STL@@V?$allocator@D@2@@_STL@@QAE@PBDABV?$allocator@D@1@@Z ; _STL::basic_string<char,_STL::char_traits<char>,_STL::allocator<char> >::basic_string<char,_STL::char_traits<char>,_STL::allocator<char> >
  00014	8b 45 08	 mov	 eax, DWORD PTR ___$ReturnUdt$[ebp]
  00017	5d		 pop	 ebp
  00018	c2 04 00	 ret	 4
?getName@Error@@UBE?AV?$basic_string@DV?$char_traits@D@_STL@@V?$allocator@D@2@@_STL@@XZ ENDP ; Error::getName
_TEXT	ENDS
PUBLIC	??1Error@@UAE@XZ				; Error::~Error
; Function compile flags: /Ogsy
;	COMDAT ??1Error@@UAE@XZ
_TEXT	SEGMENT
??1Error@@UAE@XZ PROC NEAR				; Error::~Error, COMDAT
; _this$ = ecx
  00000	e9 00 00 00 00	 jmp	 ??1Throwable@@UAE@XZ	; Throwable::~Throwable
??1Error@@UAE@XZ ENDP					; Error::~Error
_TEXT	ENDS
PUBLIC	??0AssertionError@@QAE@V?$basic_string@DV?$char_traits@D@_STL@@V?$allocator@D@2@@_STL@@@Z ; AssertionError::AssertionError
PUBLIC	?getName@AssertionError@@UBE?AV?$basic_string@DV?$char_traits@D@_STL@@V?$allocator@D@2@@_STL@@XZ ; AssertionError::getName
PUBLIC	??_7AssertionError@@6B@				; AssertionError::`vftable'
PUBLIC	??_GAssertionError@@UAEPAXI@Z			; AssertionError::`scalar deleting destructor'
PUBLIC	??_R4AssertionError@@6B@			; AssertionError::`RTTI Complete Object Locator'
PUBLIC	??_R0?AVAssertionError@@@8			; AssertionError `RTTI Type Descriptor'
PUBLIC	??_R3AssertionError@@8				; AssertionError::`RTTI Class Hierarchy Descriptor'
PUBLIC	??_R2AssertionError@@8				; AssertionError::`RTTI Base Class Array'
PUBLIC	??_R1A@?0A@A@AssertionError@@8			; AssertionError::`RTTI Base Class Descriptor at (0,-1,0,0)'
EXTRN	??_EAssertionError@@UAEPAXI@Z:NEAR		; AssertionError::`vector deleting destructor'
;	COMDAT ??_7AssertionError@@6B@
CONST	SEGMENT
??_7AssertionError@@6B@ DD FLAT:??_R4AssertionError@@6B@ ; AssertionError::`vftable'
	DD	FLAT:??_EAssertionError@@UAEPAXI@Z
	DD	FLAT:?getName@AssertionError@@UBE?AV?$basic_string@DV?$char_traits@D@_STL@@V?$allocator@D@2@@_STL@@XZ
	DD	FLAT:?toString@Throwable@@UBE?AV?$basic_string@DV?$char_traits@D@_STL@@V?$allocator@D@2@@_STL@@XZ
CONST	ENDS
;	COMDAT ??_R4AssertionError@@6B@
rdata$r	SEGMENT
??_R4AssertionError@@6B@ DD 00H				; AssertionError::`RTTI Complete Object Locator'
	DD	00H
	DD	00H
	DD	FLAT:??_R0?AVAssertionError@@@8
	DD	FLAT:??_R3AssertionError@@8
rdata$r	ENDS
;	COMDAT ??_R0?AVAssertionError@@@8
_DATA	SEGMENT
??_R0?AVAssertionError@@@8 DD FLAT:??_7type_info@@6B@	; AssertionError `RTTI Type Descriptor'
	DD	00H
	DB	'.?AVAssertionError@@', 00H
	ORG $-29
	DD	FLAT:??_7type_info@@6B@
	DD	00H
	DB	'.?AVAssertionError@@', 00H
_DATA	ENDS
;	COMDAT ??_R3AssertionError@@8
rdata$r	SEGMENT
??_R3AssertionError@@8 DD 00H				; AssertionError::`RTTI Class Hierarchy Descriptor'
	DD	00H
	DD	03H
	DD	FLAT:??_R2AssertionError@@8
rdata$r	ENDS
;	COMDAT ??_R2AssertionError@@8
rdata$r	SEGMENT
??_R2AssertionError@@8 DD FLAT:??_R1A@?0A@A@AssertionError@@8 ; AssertionError::`RTTI Base Class Array'
	DD	FLAT:??_R1A@?0A@A@Error@@8
	DD	FLAT:??_R1A@?0A@A@Throwable@@8
rdata$r	ENDS
;	COMDAT ??_R1A@?0A@A@AssertionError@@8
rdata$r	SEGMENT
??_R1A@?0A@A@AssertionError@@8 DD FLAT:??_R0?AVAssertionError@@@8 ; AssertionError::`RTTI Base Class Descriptor at (0,-1,0,0)'
	DD	02H
	DD	00H
	DD	0ffffffffH
	DD	00H
	DD	00H
; Function compile flags: /Ogsy
rdata$r	ENDS
;	COMDAT ??0AssertionError@@QAE@V?$basic_string@DV?$char_traits@D@_STL@@V?$allocator@D@2@@_STL@@@Z
_TEXT	SEGMENT
_msg$ = 8						; size = 12
??0AssertionError@@QAE@V?$basic_string@DV?$char_traits@D@_STL@@V?$allocator@D@2@@_STL@@@Z PROC NEAR ; AssertionError::AssertionError, COMDAT
; _this$ = ecx

; 700  : 		AssertionError ( std::string msg ) throw () : Error(msg) {}

  00000	56		 push	 esi
  00001	8d 44 24 08	 lea	 eax, DWORD PTR _msg$[esp]
  00005	50		 push	 eax
  00006	8b f1		 mov	 esi, ecx
  00008	e8 00 00 00 00	 call	 ??0Error@@QAE@ABV?$basic_string@DV?$char_traits@D@_STL@@V?$allocator@D@2@@_STL@@@Z ; Error::Error
  0000d	8d 4c 24 08	 lea	 ecx, DWORD PTR _msg$[esp]
  00011	c7 06 00 00 00
	00		 mov	 DWORD PTR [esi], OFFSET FLAT:??_7AssertionError@@6B@
  00017	e8 00 00 00 00	 call	 ??1?$basic_string@DV?$char_traits@D@_STL@@V?$allocator@D@2@@_STL@@QAE@XZ ; _STL::basic_string<char,_STL::char_traits<char>,_STL::allocator<char> >::~basic_string<char,_STL::char_traits<char>,_STL::allocator<char> >
  0001c	8b c6		 mov	 eax, esi
  0001e	5e		 pop	 esi
  0001f	c2 0c 00	 ret	 12			; 0000000cH
??0AssertionError@@QAE@V?$basic_string@DV?$char_traits@D@_STL@@V?$allocator@D@2@@_STL@@@Z ENDP ; AssertionError::AssertionError
_TEXT	ENDS
PUBLIC	??_C@_0P@ECLAGKMP@AssertionError?$AA@		; `string'
;	COMDAT ??_C@_0P@ECLAGKMP@AssertionError?$AA@
; File c:\stlport-4.6.1\stlport\stl\_alloc.h
CONST	SEGMENT
??_C@_0P@ECLAGKMP@AssertionError?$AA@ DB 'AssertionError', 00H ; `string'
; Function compile flags: /Ogsy
; File c:\darkeden\designed_common\project\client\packet\exception.h
CONST	ENDS
;	COMDAT ?getName@AssertionError@@UBE?AV?$basic_string@DV?$char_traits@D@_STL@@V?$allocator@D@2@@_STL@@XZ
_TEXT	SEGMENT
___$ReturnUdt$ = 8					; size = 4
$T103684 = 11						; size = 1
?getName@AssertionError@@UBE?AV?$basic_string@DV?$char_traits@D@_STL@@V?$allocator@D@2@@_STL@@XZ PROC NEAR ; AssertionError::getName, COMDAT
; _this$ = ecx

; 701  : 		std::string getName () const throw () { return "AssertionError"; }

  00000	55		 push	 ebp
  00001	8b ec		 mov	 ebp, esp
  00003	8b 4d 08	 mov	 ecx, DWORD PTR ___$ReturnUdt$[ebp]
  00006	8d 45 0b	 lea	 eax, DWORD PTR $T103684[ebp]
  00009	50		 push	 eax
  0000a	68 00 00 00 00	 push	 OFFSET FLAT:??_C@_0P@ECLAGKMP@AssertionError?$AA@
  0000f	e8 00 00 00 00	 call	 ??0?$basic_string@DV?$char_traits@D@_STL@@V?$allocator@D@2@@_STL@@QAE@PBDABV?$allocator@D@1@@Z ; _STL::basic_string<char,_STL::char_traits<char>,_STL::allocator<char> >::basic_string<char,_STL::char_traits<char>,_STL::allocator<char> >
  00014	8b 45 08	 mov	 eax, DWORD PTR ___$ReturnUdt$[ebp]
  00017	5d		 pop	 ebp
  00018	c2 04 00	 ret	 4
?getName@AssertionError@@UBE?AV?$basic_string@DV?$char_traits@D@_STL@@V?$allocator@D@2@@_STL@@XZ ENDP ; AssertionError::getName
_TEXT	ENDS
PUBLIC	??1AssertionError@@UAE@XZ			; AssertionError::~AssertionError
; Function compile flags: /Ogsy
;	COMDAT ??1AssertionError@@UAE@XZ
_TEXT	SEGMENT
??1AssertionError@@UAE@XZ PROC NEAR			; AssertionError::~AssertionError, COMDAT
; _this$ = ecx
  00000	e9 00 00 00 00	 jmp	 ??1Error@@UAE@XZ
??1AssertionError@@UAE@XZ ENDP				; AssertionError::~AssertionError
_TEXT	ENDS
PUBLIC	??0?$list@V?$basic_string@DV?$char_traits@D@_STL@@V?$allocator@D@2@@_STL@@V?$allocator@V?$basic_string@DV?$char_traits@D@_STL@@V?$allocator@D@2@@_STL@@@2@@_STL@@QAE@ABV01@@Z ; _STL::list<_STL::basic_string<char,_STL::char_traits<char>,_STL::allocator<char> >,_STL::allocator<_STL::basic_string<char,_STL::char_traits<char>,_STL::allocator<char> > > >::list<_STL::basic_string<char,_STL::char_traits<char>,_STL::allocator<char> >,_STL::allocator<_STL::basic_string<char,_STL::char_traits<char>,_STL::allocator<char> > > >
;	COMDAT xdata$x
; File c:\stlport-4.6.1\stlport\stl\_list.h
xdata$x	SEGMENT
$T103756 DD	0ffffffffH
	DD	FLAT:$L103700
$T103754 DD	019930520H
	DD	01H
	DD	FLAT:$T103756
	DD	2 DUP(00H)
	DD	2 DUP(00H)
; Function compile flags: /Ogsy
xdata$x	ENDS
;	COMDAT ??0?$list@V?$basic_string@DV?$char_traits@D@_STL@@V?$allocator@D@2@@_STL@@V?$allocator@V?$basic_string@DV?$char_traits@D@_STL@@V?$allocator@D@2@@_STL@@@2@@_STL@@QAE@ABV01@@Z
_TEXT	SEGMENT
$T103699 = -20						; size = 4
_this$ = -16						; size = 4
__$EHRec$ = -12						; size = 12
___x$ = 8						; size = 4
$T103696 = 11						; size = 1
??0?$list@V?$basic_string@DV?$char_traits@D@_STL@@V?$allocator@D@2@@_STL@@V?$allocator@V?$basic_string@DV?$char_traits@D@_STL@@V?$allocator@D@2@@_STL@@@2@@_STL@@QAE@ABV01@@Z PROC NEAR ; _STL::list<_STL::basic_string<char,_STL::char_traits<char>,_STL::allocator<char> >,_STL::allocator<_STL::basic_string<char,_STL::char_traits<char>,_STL::allocator<char> > > >::list<_STL::basic_string<char,_STL::char_traits<char>,_STL::allocator<char> >,_STL::allocator<_STL::basic_string<char,_STL::char_traits<char>,_STL::allocator<char> > > >, COMDAT
; _this$ = ecx

; 414  :     { insert(begin(), __x.begin(), __x.end()); }

  00000	b8 00 00 00 00	 mov	 eax, __ehhandler$??0?$list@V?$basic_string@DV?$char_traits@D@_STL@@V?$allocator@D@2@@_STL@@V?$allocator@V?$basic_string@DV?$char_traits@D@_STL@@V?$allocator@D@2@@_STL@@@2@@_STL@@QAE@ABV01@@Z
  00005	e8 00 00 00 00	 call	 __EH_prolog
  0000a	51		 push	 ecx
  0000b	51		 push	 ecx
  0000c	56		 push	 esi
  0000d	57		 push	 edi
  0000e	8b 7d 08	 mov	 edi, DWORD PTR ___x$[ebp]
  00011	8b f1		 mov	 esi, ecx
  00013	8d 45 0b	 lea	 eax, DWORD PTR $T103696[ebp]
  00016	50		 push	 eax
  00017	8b cf		 mov	 ecx, edi
  00019	89 75 f0	 mov	 DWORD PTR _this$[ebp], esi
  0001c	e8 00 00 00 00	 call	 ?get_allocator@?$_List_base@V?$basic_string@DV?$char_traits@D@_STL@@V?$allocator@D@2@@_STL@@V?$allocator@V?$basic_string@DV?$char_traits@D@_STL@@V?$allocator@D@2@@_STL@@@2@@_STL@@QBE?AV?$allocator@V?$basic_string@DV?$char_traits@D@_STL@@V?$allocator@D@2@@_STL@@@2@XZ ; _STL::_List_base<_STL::basic_string<char,_STL::char_traits<char>,_STL::allocator<char> >,_STL::allocator<_STL::basic_string<char,_STL::char_traits<char>,_STL::allocator<char> > > >::get_allocator
  00021	50		 push	 eax
  00022	8b ce		 mov	 ecx, esi
  00024	e8 00 00 00 00	 call	 ??0?$_List_base@V?$basic_string@DV?$char_traits@D@_STL@@V?$allocator@D@2@@_STL@@V?$allocator@V?$basic_string@DV?$char_traits@D@_STL@@V?$allocator@D@2@@_STL@@@2@@_STL@@QAE@ABV?$allocator@V?$basic_string@DV?$char_traits@D@_STL@@V?$allocator@D@2@@_STL@@@1@@Z ; _STL::_List_base<_STL::basic_string<char,_STL::char_traits<char>,_STL::allocator<char> >,_STL::allocator<_STL::basic_string<char,_STL::char_traits<char>,_STL::allocator<char> > > >::_List_base<_STL::basic_string<char,_STL::char_traits<char>,_STL::allocator<char> >,_STL::allocator<_STL::basic_string<char,_STL::char_traits<char>,_STL::allocator<char> > > >
  00029	8b 07		 mov	 eax, DWORD PTR [edi]
  0002b	8b 08		 mov	 ecx, DWORD PTR [eax]
  0002d	83 65 fc 00	 and	 DWORD PTR __$EHRec$[ebp+8], 0
  00031	50		 push	 eax
  00032	51		 push	 ecx
  00033	51		 push	 ecx
  00034	8b 0e		 mov	 ecx, DWORD PTR [esi]
  00036	8b 09		 mov	 ecx, DWORD PTR [ecx]
  00038	8b c4		 mov	 eax, esp
  0003a	89 08		 mov	 DWORD PTR [eax], ecx
  0003c	8b ce		 mov	 ecx, esi
  0003e	89 65 ec	 mov	 DWORD PTR $T103699[ebp], esp
  00041	e8 00 00 00 00	 call	 ??$insert@U?$_List_iterator@V?$basic_string@DV?$char_traits@D@_STL@@V?$allocator@D@2@@_STL@@U?$_Const_traits@V?$basic_string@DV?$char_traits@D@_STL@@V?$allocator@D@2@@_STL@@@2@@_STL@@@?$list@V?$basic_string@DV?$char_traits@D@_STL@@V?$allocator@D@2@@_STL@@V?$allocator@V?$basic_string@DV?$char_traits@D@_STL@@V?$allocator@D@2@@_STL@@@2@@_STL@@QAEXU?$_List_iterator@V?$basic_string@DV?$char_traits@D@_STL@@V?$allocator@D@2@@_STL@@U?$_Nonconst_traits@V?$basic_string@DV?$char_traits@D@_STL@@V?$allocator@D@2@@_STL@@@2@@1@U?$_List_iterator@V?$basic_string@DV?$char_traits@D@_STL@@V?$allocator@D@2@@_STL@@U?$_Const_traits@V?$basic_string@DV?$char_traits@D@_STL@@V?$allocator@D@2@@_STL@@@2@@1@1@Z ; _STL::list<_STL::basic_string<char,_STL::char_traits<char>,_STL::allocator<char> >,_STL::allocator<_STL::basic_string<char,_STL::char_traits<char>,_STL::allocator<char> > > >::insert<_STL::_List_iterator<_STL::basic_string<char,_STL::char_traits<char>,_STL::allocator<char> >,_STL::_Const_traits<_STL::basic_string<char,_STL::char_traits<char>,_STL::allocator<char> > > > >
  00046	8b 4d f4	 mov	 ecx, DWORD PTR __$EHRec$[ebp]
  00049	5f		 pop	 edi
  0004a	8b c6		 mov	 eax, esi
  0004c	64 89 0d 00 00
	00 00		 mov	 DWORD PTR fs:__except_list, ecx
  00053	5e		 pop	 esi
  00054	c9		 leave
  00055	c2 04 00	 ret	 4
_TEXT	ENDS
;	COMDAT text$x
text$x	SEGMENT
$L103700:
  00000	8b 4d f0	 mov	 ecx, DWORD PTR _this$[ebp]
  00003	e9 00 00 00 00	 jmp	 ??1?$_List_base@V?$basic_string@DV?$char_traits@D@_STL@@V?$allocator@D@2@@_STL@@V?$allocator@V?$basic_string@DV?$char_traits@D@_STL@@V?$allocator@D@2@@_STL@@@2@@_STL@@QAE@XZ ; _STL::_List_base<_STL::basic_string<char,_STL::char_traits<char>,_STL::allocator<char> >,_STL::allocator<_STL::basic_string<char,_STL::char_traits<char>,_STL::allocator<char> > > >::~_List_base<_STL::basic_string<char,_STL::char_traits<char>,_STL::allocator<char> >,_STL::allocator<_STL::basic_string<char,_STL::char_traits<char>,_STL::allocator<char> > > >
__ehhandler$??0?$list@V?$basic_string@DV?$char_traits@D@_STL@@V?$allocator@D@2@@_STL@@V?$allocator@V?$basic_string@DV?$char_traits@D@_STL@@V?$allocator@D@2@@_STL@@@2@@_STL@@QAE@ABV01@@Z:
  00008	b8 00 00 00 00	 mov	 eax, OFFSET FLAT:$T103754
  0000d	e9 00 00 00 00	 jmp	 ___CxxFrameHandler
text$x	ENDS
??0?$list@V?$basic_string@DV?$char_traits@D@_STL@@V?$allocator@D@2@@_STL@@V?$allocator@V?$basic_string@DV?$char_traits@D@_STL@@V?$allocator@D@2@@_STL@@@2@@_STL@@QAE@ABV01@@Z ENDP ; _STL::list<_STL::basic_string<char,_STL::char_traits<char>,_STL::allocator<char> >,_STL::allocator<_STL::basic_string<char,_STL::char_traits<char>,_STL::allocator<char> > > >::list<_STL::basic_string<char,_STL::char_traits<char>,_STL::allocator<char> >,_STL::allocator<_STL::basic_string<char,_STL::char_traits<char>,_STL::allocator<char> > > >
PUBLIC	??0?$basic_ostream@DV?$char_traits@D@_STL@@@_STL@@QAE@PAV?$basic_streambuf@DV?$char_traits@D@_STL@@@1@@Z ; _STL::basic_ostream<char,_STL::char_traits<char> >::basic_ostream<char,_STL::char_traits<char> >
PUBLIC	??_8?$basic_ostream@DV?$char_traits@D@_STL@@@_STL@@7B@ ; _STL::basic_ostream<char,_STL::char_traits<char> >::`vbtable'
;	COMDAT xdata$x
; File c:\stlport-4.6.1\stlport\stl\_ostream.c
xdata$x	SEGMENT
$T103767 DD	0ffffffffH
	DD	FLAT:$L103762
$T103765 DD	019930520H
	DD	01H
	DD	FLAT:$T103767
	DD	2 DUP(00H)
	DD	2 DUP(00H)
xdata$x	ENDS
;	COMDAT ??_8?$basic_ostream@DV?$char_traits@D@_STL@@@_STL@@7B@
CONST	SEGMENT
??_8?$basic_ostream@DV?$char_traits@D@_STL@@@_STL@@7B@ DD 00H ; _STL::basic_ostream<char,_STL::char_traits<char> >::`vbtable'
	DD	04H
; Function compile flags: /Ogsy
CONST	ENDS
;	COMDAT ??0?$basic_ostream@DV?$char_traits@D@_STL@@@_STL@@QAE@PAV?$basic_streambuf@DV?$char_traits@D@_STL@@@1@@Z
_TEXT	SEGMENT
_this$ = -20						; size = 4
$T103761 = -16						; size = 4
__$EHRec$ = -12						; size = 12
___buf$ = 8						; size = 4
_$initVBases$ = 12					; size = 4
??0?$basic_ostream@DV?$char_traits@D@_STL@@@_STL@@QAE@PAV?$basic_streambuf@DV?$char_traits@D@_STL@@@1@@Z PROC NEAR ; _STL::basic_ostream<char,_STL::char_traits<char> >::basic_ostream<char,_STL::char_traits<char> >, COMDAT
; _this$ = ecx

; 58   : {

  00000	b8 00 00 00 00	 mov	 eax, __ehhandler$??0?$basic_ostream@DV?$char_traits@D@_STL@@@_STL@@QAE@PAV?$basic_streambuf@DV?$char_traits@D@_STL@@@1@@Z
  00005	e8 00 00 00 00	 call	 __EH_prolog
  0000a	51		 push	 ecx
  0000b	51		 push	 ecx
  0000c	83 65 f0 00	 and	 DWORD PTR $T103761[ebp], 0
  00010	83 7d 0c 00	 cmp	 DWORD PTR _$initVBases$[ebp], 0
  00014	56		 push	 esi
  00015	8b f1		 mov	 esi, ecx
  00017	89 75 ec	 mov	 DWORD PTR _this$[ebp], esi
  0001a	74 19		 je	 SHORT $L99722
  0001c	8d 4e 04	 lea	 ecx, DWORD PTR [esi+4]
  0001f	c7 06 00 00 00
	00		 mov	 DWORD PTR [esi], OFFSET FLAT:??_8?$basic_ostream@DV?$char_traits@D@_STL@@@_STL@@7B@
  00025	e8 00 00 00 00	 call	 ??0?$basic_ios@DV?$char_traits@D@_STL@@@_STL@@IAE@XZ ; _STL::basic_ios<char,_STL::char_traits<char> >::basic_ios<char,_STL::char_traits<char> >
  0002a	83 65 fc 00	 and	 DWORD PTR __$EHRec$[ebp+8], 0
  0002e	c7 45 f0 01 00
	00 00		 mov	 DWORD PTR $T103761[ebp], 1
$L99722:
  00035	8b 06		 mov	 eax, DWORD PTR [esi]
  00037	8b 40 04	 mov	 eax, DWORD PTR [eax+4]

; 59   :   this->init(__buf);

  0003a	ff 75 08	 push	 DWORD PTR ___buf$[ebp]
  0003d	c7 04 06 00 00
	00 00		 mov	 DWORD PTR [esi+eax], OFFSET FLAT:??_7?$basic_ostream@DV?$char_traits@D@_STL@@@_STL@@6B@
  00044	8b 06		 mov	 eax, DWORD PTR [esi]
  00046	8b 48 04	 mov	 ecx, DWORD PTR [eax+4]
  00049	03 ce		 add	 ecx, esi
  0004b	e8 00 00 00 00	 call	 ?init@?$basic_ios@DV?$char_traits@D@_STL@@@_STL@@IAEXPAV?$basic_streambuf@DV?$char_traits@D@_STL@@@2@@Z ; _STL::basic_ios<char,_STL::char_traits<char> >::init

; 60   : }

  00050	8b 4d f4	 mov	 ecx, DWORD PTR __$EHRec$[ebp]
  00053	8b c6		 mov	 eax, esi
  00055	5e		 pop	 esi
  00056	64 89 0d 00 00
	00 00		 mov	 DWORD PTR fs:__except_list, ecx
  0005d	c9		 leave
  0005e	c2 08 00	 ret	 8
_TEXT	ENDS
;	COMDAT text$x
text$x	SEGMENT
$L103762:
  00000	8b 45 f0	 mov	 eax, DWORD PTR $T103761[ebp]
  00003	83 e0 01	 and	 eax, 1
  00006	0f 84 0f 00 00
	00		 je	 $L103763
  0000c	83 65 f0 fe	 and	 DWORD PTR $T103761[ebp], -2 ; fffffffeH
  00010	8b 4d ec	 mov	 ecx, DWORD PTR _this$[ebp]
  00013	83 c1 04	 add	 ecx, 4
  00016	e9 00 00 00 00	 jmp	 ??1?$basic_ios@DV?$char_traits@D@_STL@@@_STL@@UAE@XZ ; _STL::basic_ios<char,_STL::char_traits<char> >::~basic_ios<char,_STL::char_traits<char> >
$L103763:
  0001b	c3		 ret	 0
__ehhandler$??0?$basic_ostream@DV?$char_traits@D@_STL@@@_STL@@QAE@PAV?$basic_streambuf@DV?$char_traits@D@_STL@@@1@@Z:
  0001c	b8 00 00 00 00	 mov	 eax, OFFSET FLAT:$T103765
  00021	e9 00 00 00 00	 jmp	 ___CxxFrameHandler
text$x	ENDS
??0?$basic_ostream@DV?$char_traits@D@_STL@@@_STL@@QAE@PAV?$basic_streambuf@DV?$char_traits@D@_STL@@@1@@Z ENDP ; _STL::basic_ostream<char,_STL::char_traits<char> >::basic_ostream<char,_STL::char_traits<char> >
; Function compile flags: /Ogsy
;	COMDAT ??_GError@@UAEPAXI@Z
_TEXT	SEGMENT
___flags$ = 8						; size = 4
??_GError@@UAEPAXI@Z PROC NEAR				; Error::`scalar deleting destructor', COMDAT
; _this$ = ecx
  00000	56		 push	 esi
  00001	8b f1		 mov	 esi, ecx
  00003	e8 00 00 00 00	 call	 ??1Error@@UAE@XZ
  00008	f6 44 24 08 01	 test	 BYTE PTR ___flags$[esp], 1
  0000d	74 07		 je	 SHORT $L89237
  0000f	56		 push	 esi
  00010	e8 00 00 00 00	 call	 ??3@YAXPAX@Z		; operator delete
  00015	59		 pop	 ecx
$L89237:
  00016	8b c6		 mov	 eax, esi
  00018	5e		 pop	 esi
  00019	c2 04 00	 ret	 4
??_GError@@UAEPAXI@Z ENDP				; Error::`scalar deleting destructor'
; Function compile flags: /Ogsy
_TEXT	ENDS
;	COMDAT ??_GAssertionError@@UAEPAXI@Z
_TEXT	SEGMENT
___flags$ = 8						; size = 4
??_GAssertionError@@UAEPAXI@Z PROC NEAR			; AssertionError::`scalar deleting destructor', COMDAT
; _this$ = ecx
  00000	56		 push	 esi
  00001	8b f1		 mov	 esi, ecx
  00003	e8 00 00 00 00	 call	 ??1AssertionError@@UAE@XZ
  00008	f6 44 24 08 01	 test	 BYTE PTR ___flags$[esp], 1
  0000d	74 07		 je	 SHORT $L89301
  0000f	56		 push	 esi
  00010	e8 00 00 00 00	 call	 ??3@YAXPAX@Z		; operator delete
  00015	59		 pop	 ecx
$L89301:
  00016	8b c6		 mov	 eax, esi
  00018	5e		 pop	 esi
  00019	c2 04 00	 ret	 4
??_GAssertionError@@UAEPAXI@Z ENDP			; AssertionError::`scalar deleting destructor'
_TEXT	ENDS
PUBLIC	??0Throwable@@QAE@ABV0@@Z			; Throwable::Throwable
;	COMDAT xdata$x
xdata$x	SEGMENT
$T103783 DD	0ffffffffH
	DD	FLAT:$L103778
$T103781 DD	019930520H
	DD	01H
	DD	FLAT:$T103783
	DD	2 DUP(00H)
	DD	2 DUP(00H)
; Function compile flags: /Ogsy
xdata$x	ENDS
;	COMDAT ??0Throwable@@QAE@ABV0@@Z
_TEXT	SEGMENT
_this$ = -16						; size = 4
__$EHRec$ = -12						; size = 12
___that$ = 8						; size = 4
??0Throwable@@QAE@ABV0@@Z PROC NEAR			; Throwable::Throwable, COMDAT
; _this$ = ecx
  00000	b8 00 00 00 00	 mov	 eax, __ehhandler$??0Throwable@@QAE@ABV0@@Z
  00005	e8 00 00 00 00	 call	 __EH_prolog
  0000a	51		 push	 ecx
  0000b	56		 push	 esi
  0000c	57		 push	 edi
  0000d	8b 7d 08	 mov	 edi, DWORD PTR ___that$[ebp]
  00010	8b f1		 mov	 esi, ecx
  00012	8d 47 04	 lea	 eax, DWORD PTR [edi+4]
  00015	50		 push	 eax
  00016	8d 4e 04	 lea	 ecx, DWORD PTR [esi+4]
  00019	89 75 f0	 mov	 DWORD PTR _this$[ebp], esi
  0001c	c7 06 00 00 00
	00		 mov	 DWORD PTR [esi], OFFSET FLAT:??_7Throwable@@6B@
  00022	e8 00 00 00 00	 call	 ??0?$basic_string@DV?$char_traits@D@_STL@@V?$allocator@D@2@@_STL@@QAE@ABV01@@Z ; _STL::basic_string<char,_STL::char_traits<char>,_STL::allocator<char> >::basic_string<char,_STL::char_traits<char>,_STL::allocator<char> >
  00027	83 65 fc 00	 and	 DWORD PTR __$EHRec$[ebp+8], 0
  0002b	83 c7 10	 add	 edi, 16			; 00000010H
  0002e	57		 push	 edi
  0002f	8d 4e 10	 lea	 ecx, DWORD PTR [esi+16]
  00032	e8 00 00 00 00	 call	 ??0?$list@V?$basic_string@DV?$char_traits@D@_STL@@V?$allocator@D@2@@_STL@@V?$allocator@V?$basic_string@DV?$char_traits@D@_STL@@V?$allocator@D@2@@_STL@@@2@@_STL@@QAE@ABV01@@Z ; _STL::list<_STL::basic_string<char,_STL::char_traits<char>,_STL::allocator<char> >,_STL::allocator<_STL::basic_string<char,_STL::char_traits<char>,_STL::allocator<char> > > >::list<_STL::basic_string<char,_STL::char_traits<char>,_STL::allocator<char> >,_STL::allocator<_STL::basic_string<char,_STL::char_traits<char>,_STL::allocator<char> > > >
  00037	8b 4d f4	 mov	 ecx, DWORD PTR __$EHRec$[ebp]
  0003a	5f		 pop	 edi
  0003b	8b c6		 mov	 eax, esi
  0003d	5e		 pop	 esi
  0003e	64 89 0d 00 00
	00 00		 mov	 DWORD PTR fs:__except_list, ecx
  00045	c9		 leave
  00046	c2 04 00	 ret	 4
_TEXT	ENDS
;	COMDAT text$x
text$x	SEGMENT
$L103778:
  00000	8b 4d f0	 mov	 ecx, DWORD PTR _this$[ebp]
  00003	83 c1 04	 add	 ecx, 4
  00006	e9 00 00 00 00	 jmp	 ??1?$basic_string@DV?$char_traits@D@_STL@@V?$allocator@D@2@@_STL@@QAE@XZ ; _STL::basic_string<char,_STL::char_traits<char>,_STL::allocator<char> >::~basic_string<char,_STL::char_traits<char>,_STL::allocator<char> >
__ehhandler$??0Throwable@@QAE@ABV0@@Z:
  0000b	b8 00 00 00 00	 mov	 eax, OFFSET FLAT:$T103781
  00010	e9 00 00 00 00	 jmp	 ___CxxFrameHandler
text$x	ENDS
??0Throwable@@QAE@ABV0@@Z ENDP				; Throwable::Throwable
PUBLIC	??0?$basic_ofstream@DV?$char_traits@D@_STL@@@_STL@@QAE@PBDH@Z ; _STL::basic_ofstream<char,_STL::char_traits<char> >::basic_ofstream<char,_STL::char_traits<char> >
PUBLIC	??_8?$basic_ofstream@DV?$char_traits@D@_STL@@@_STL@@7B@ ; _STL::basic_ofstream<char,_STL::char_traits<char> >::`vbtable'
;	COMDAT xdata$x
; File c:\stlport-4.6.1\stlport\stl\_ios_base.h
xdata$x	SEGMENT
$T103806 DD	0ffffffffH
	DD	FLAT:$L103789
	DD	00H
	DD	FLAT:$L103791
	DD	01H
	DD	FLAT:$L103792
$T103804 DD	019930520H
	DD	03H
	DD	FLAT:$T103806
	DD	2 DUP(00H)
	DD	2 DUP(00H)
xdata$x	ENDS
;	COMDAT ??_8?$basic_ofstream@DV?$char_traits@D@_STL@@@_STL@@7B@
CONST	SEGMENT
??_8?$basic_ofstream@DV?$char_traits@D@_STL@@@_STL@@7B@ DD 00H ; _STL::basic_ofstream<char,_STL::char_traits<char> >::`vbtable'
	DD	0b8H
; Function compile flags: /Ogsy
; File c:\stlport-4.6.1\stlport\stl\_fstream.h
CONST	ENDS
;	COMDAT ??0?$basic_ofstream@DV?$char_traits@D@_STL@@@_STL@@QAE@PBDH@Z
_TEXT	SEGMENT
_this$ = -20						; size = 4
$T103788 = -16						; size = 4
__$EHRec$ = -12						; size = 12
___s$ = 8						; size = 4
___mod$ = 12						; size = 4
_$initVBases$ = 16					; size = 4
??0?$basic_ofstream@DV?$char_traits@D@_STL@@@_STL@@QAE@PBDH@Z PROC NEAR ; _STL::basic_ofstream<char,_STL::char_traits<char> >::basic_ofstream<char,_STL::char_traits<char> >, COMDAT
; _this$ = ecx

; 594  :       _M_buf() {

  00000	b8 00 00 00 00	 mov	 eax, __ehhandler$??0?$basic_ofstream@DV?$char_traits@D@_STL@@@_STL@@QAE@PBDH@Z
  00005	e8 00 00 00 00	 call	 __EH_prolog
  0000a	51		 push	 ecx
  0000b	51		 push	 ecx
  0000c	53		 push	 ebx
  0000d	56		 push	 esi
  0000e	57		 push	 edi
  0000f	33 ff		 xor	 edi, edi
  00011	33 db		 xor	 ebx, ebx
  00013	8b f1		 mov	 esi, ecx
  00015	47		 inc	 edi
  00016	39 5d 10	 cmp	 DWORD PTR _$initVBases$[ebp], ebx
  00019	89 75 ec	 mov	 DWORD PTR _this$[ebp], esi
  0001c	89 5d f0	 mov	 DWORD PTR $T103788[ebp], ebx
  0001f	74 17		 je	 SHORT $L99637
  00021	8d 8e b8 00 00
	00		 lea	 ecx, DWORD PTR [esi+184]
  00027	c7 06 00 00 00
	00		 mov	 DWORD PTR [esi], OFFSET FLAT:??_8?$basic_ofstream@DV?$char_traits@D@_STL@@@_STL@@7B@
  0002d	e8 00 00 00 00	 call	 ??0?$basic_ios@DV?$char_traits@D@_STL@@@_STL@@IAE@XZ ; _STL::basic_ios<char,_STL::char_traits<char> >::basic_ios<char,_STL::char_traits<char> >
  00032	89 5d fc	 mov	 DWORD PTR __$EHRec$[ebp+8], ebx
  00035	89 7d f0	 mov	 DWORD PTR $T103788[ebp], edi
$L99637:
  00038	53		 push	 ebx
  00039	53		 push	 ebx
  0003a	8b ce		 mov	 ecx, esi
  0003c	e8 00 00 00 00	 call	 ??0?$basic_ostream@DV?$char_traits@D@_STL@@@_STL@@QAE@PAV?$basic_streambuf@DV?$char_traits@D@_STL@@@1@@Z ; _STL::basic_ostream<char,_STL::char_traits<char> >::basic_ostream<char,_STL::char_traits<char> >
  00041	8b 06		 mov	 eax, DWORD PTR [esi]
  00043	8b 40 04	 mov	 eax, DWORD PTR [eax+4]
  00046	89 7d fc	 mov	 DWORD PTR __$EHRec$[ebp+8], edi
  00049	8d 7e 04	 lea	 edi, DWORD PTR [esi+4]
  0004c	8b cf		 mov	 ecx, edi
  0004e	c7 04 06 00 00
	00 00		 mov	 DWORD PTR [esi+eax], OFFSET FLAT:??_7?$basic_ofstream@DV?$char_traits@D@_STL@@@_STL@@6B@
  00055	e8 00 00 00 00	 call	 ??0?$basic_filebuf@DV?$char_traits@D@_STL@@@_STL@@QAE@XZ ; _STL::basic_filebuf<char,_STL::char_traits<char> >::basic_filebuf<char,_STL::char_traits<char> >

; 595  : 	this->init(&_M_buf);

  0005a	8b 06		 mov	 eax, DWORD PTR [esi]
  0005c	8b 48 04	 mov	 ecx, DWORD PTR [eax+4]
  0005f	57		 push	 edi
  00060	03 ce		 add	 ecx, esi
  00062	c6 45 fc 02	 mov	 BYTE PTR __$EHRec$[ebp+8], 2
  00066	e8 00 00 00 00	 call	 ?init@?$basic_ios@DV?$char_traits@D@_STL@@@_STL@@IAEXPAV?$basic_streambuf@DV?$char_traits@D@_STL@@@2@@Z ; _STL::basic_ios<char,_STL::char_traits<char> >::init

; 596  : 	if (!_M_buf.open(__s, __mod | ios_base::out))

  0006b	8b 45 0c	 mov	 eax, DWORD PTR ___mod$[ebp]
  0006e	83 c8 10	 or	 eax, 16			; 00000010H
  00071	50		 push	 eax
  00072	ff 75 08	 push	 DWORD PTR ___s$[ebp]
  00075	8b cf		 mov	 ecx, edi
  00077	e8 00 00 00 00	 call	 ?open@?$basic_filebuf@DV?$char_traits@D@_STL@@@_STL@@QAEPAV12@PBDH@Z ; _STL::basic_filebuf<char,_STL::char_traits<char> >::open
  0007c	85 c0		 test	 eax, eax
  0007e	75 13		 jne	 SHORT $L103798

; 597  : 	  this->setstate(ios_base::failbit);

  00080	8b 06		 mov	 eax, DWORD PTR [esi]
  00082	8b 48 04	 mov	 ecx, DWORD PTR [eax+4]
  00085	03 ce		 add	 ecx, esi
  00087	8b 41 08	 mov	 eax, DWORD PTR [ecx+8]
  0008a	83 c8 04	 or	 eax, 4
  0008d	50		 push	 eax
  0008e	e8 00 00 00 00	 call	 ?clear@?$basic_ios@DV?$char_traits@D@_STL@@@_STL@@QAEXH@Z ; _STL::basic_ios<char,_STL::char_traits<char> >::clear
$L103798:

; 598  :   }

  00093	8b 4d f4	 mov	 ecx, DWORD PTR __$EHRec$[ebp]
  00096	5f		 pop	 edi
  00097	8b c6		 mov	 eax, esi
  00099	5e		 pop	 esi
  0009a	5b		 pop	 ebx
  0009b	64 89 0d 00 00
	00 00		 mov	 DWORD PTR fs:__except_list, ecx
  000a2	c9		 leave
  000a3	c2 0c 00	 ret	 12			; 0000000cH
_TEXT	ENDS
;	COMDAT text$x
text$x	SEGMENT
$L103789:
  00000	8b 45 f0	 mov	 eax, DWORD PTR $T103788[ebp]
  00003	83 e0 01	 and	 eax, 1
  00006	0f 84 12 00 00
	00		 je	 $L103790
  0000c	83 65 f0 fe	 and	 DWORD PTR $T103788[ebp], -2 ; fffffffeH
  00010	8b 4d ec	 mov	 ecx, DWORD PTR _this$[ebp]
  00013	81 c1 b8 00 00
	00		 add	 ecx, 184		; 000000b8H
  00019	e9 00 00 00 00	 jmp	 ??1?$basic_ios@DV?$char_traits@D@_STL@@@_STL@@UAE@XZ ; _STL::basic_ios<char,_STL::char_traits<char> >::~basic_ios<char,_STL::char_traits<char> >
$L103790:
  0001e	c3		 ret	 0
$L103791:
  0001f	8b 4d ec	 mov	 ecx, DWORD PTR _this$[ebp]
  00022	83 c1 04	 add	 ecx, 4
  00025	e9 00 00 00 00	 jmp	 ??1?$basic_ostream@DV?$char_traits@D@_STL@@@_STL@@UAE@XZ ; _STL::basic_ostream<char,_STL::char_traits<char> >::~basic_ostream<char,_STL::char_traits<char> >
$L103792:
  0002a	8b 4d ec	 mov	 ecx, DWORD PTR _this$[ebp]
  0002d	83 c1 04	 add	 ecx, 4
  00030	e9 00 00 00 00	 jmp	 ??1?$basic_filebuf@DV?$char_traits@D@_STL@@@_STL@@UAE@XZ ; _STL::basic_filebuf<char,_STL::char_traits<char> >::~basic_filebuf<char,_STL::char_traits<char> >
__ehhandler$??0?$basic_ofstream@DV?$char_traits@D@_STL@@@_STL@@QAE@PBDH@Z:
  00035	b8 00 00 00 00	 mov	 eax, OFFSET FLAT:$T103804
  0003a	e9 00 00 00 00	 jmp	 ___CxxFrameHandler
text$x	ENDS
??0?$basic_ofstream@DV?$char_traits@D@_STL@@@_STL@@QAE@PBDH@Z ENDP ; _STL::basic_ofstream<char,_STL::char_traits<char> >::basic_ofstream<char,_STL::char_traits<char> >
PUBLIC	??0Error@@QAE@ABV0@@Z				; Error::Error
; Function compile flags: /Ogsy
;	COMDAT ??0Error@@QAE@ABV0@@Z
_TEXT	SEGMENT
___that$ = 8						; size = 4
??0Error@@QAE@ABV0@@Z PROC NEAR				; Error::Error, COMDAT
; _this$ = ecx
  00000	56		 push	 esi
  00001	ff 74 24 08	 push	 DWORD PTR ___that$[esp]
  00005	8b f1		 mov	 esi, ecx
  00007	e8 00 00 00 00	 call	 ??0Throwable@@QAE@ABV0@@Z
  0000c	c7 06 00 00 00
	00		 mov	 DWORD PTR [esi], OFFSET FLAT:??_7Error@@6B@
  00012	8b c6		 mov	 eax, esi
  00014	5e		 pop	 esi
  00015	c2 04 00	 ret	 4
??0Error@@QAE@ABV0@@Z ENDP				; Error::Error
_TEXT	ENDS
PUBLIC	??0AssertionError@@QAE@ABV0@@Z			; AssertionError::AssertionError
; Function compile flags: /Ogsy
;	COMDAT ??0AssertionError@@QAE@ABV0@@Z
_TEXT	SEGMENT
___that$ = 8						; size = 4
??0AssertionError@@QAE@ABV0@@Z PROC NEAR		; AssertionError::AssertionError, COMDAT
; _this$ = ecx
  00000	56		 push	 esi
  00001	ff 74 24 08	 push	 DWORD PTR ___that$[esp]
  00005	8b f1		 mov	 esi, ecx
  00007	e8 00 00 00 00	 call	 ??0Error@@QAE@ABV0@@Z
  0000c	c7 06 00 00 00
	00		 mov	 DWORD PTR [esi], OFFSET FLAT:??_7AssertionError@@6B@
  00012	8b c6		 mov	 eax, esi
  00014	5e		 pop	 esi
  00015	c2 04 00	 ret	 4
??0AssertionError@@QAE@ABV0@@Z ENDP			; AssertionError::AssertionError
_TEXT	ENDS
PUBLIC	??_C@_0BE@DEFGJHNM@Assertion?5Failed?5?3?5?$AA@	; `string'
PUBLIC	??_C@_04LNPKFDKO@?5at?5?$AA@			; `string'
PUBLIC	??_C@_0BF@MIPHKFGA@assertion_failed?4log?$AA@	; `string'
PUBLIC	__TI3?AVAssertionError@@
PUBLIC	__CTA3?AVAssertionError@@
PUBLIC	__CT??_R0?AVAssertionError@@@8??0AssertionError@@QAE@ABV0@@Z20
PUBLIC	__CT??_R0?AVError@@@8??0Error@@QAE@ABV0@@Z20
PUBLIC	__CT??_R0?AVThrowable@@@8??0Throwable@@QAE@ABV0@@Z20
PUBLIC	?__assert__@@YAXPBDI00@Z			; __assert__
EXTRN	_ctime:NEAR
EXTRN	_time:NEAR
EXTRN	??6StringStream@@QAEAAV0@I@Z:NEAR		; StringStream::operator<<
EXTRN	___security_cookie:DWORD
EXTRN	@__security_check_cookie@4:NEAR
;	COMDAT xdata$x
; File c:\darkeden\designed_common\project\client\packet\exception.h
xdata$x	SEGMENT
$T103892 DD	0ffffffffH
	DD	FLAT:$L103824
	DD	00H
	DD	FLAT:$L103825
	DD	01H
	DD	FLAT:$L103826
	DD	01H
	DD	FLAT:$L103828
$T103886 DD	019930520H
	DD	04H
	DD	FLAT:$T103892
	DD	2 DUP(00H)
	DD	2 DUP(00H)
xdata$x	ENDS
;	COMDAT ??_C@_0BE@DEFGJHNM@Assertion?5Failed?5?3?5?$AA@
CONST	SEGMENT
??_C@_0BE@DEFGJHNM@Assertion?5Failed?5?3?5?$AA@ DB 'Assertion Failed : ', 00H ; `string'
CONST	ENDS
;	COMDAT ??_C@_04LNPKFDKO@?5at?5?$AA@
CONST	SEGMENT
??_C@_04LNPKFDKO@?5at?5?$AA@ DB ' at ', 00H		; `string'
CONST	ENDS
;	COMDAT ??_C@_0BF@MIPHKFGA@assertion_failed?4log?$AA@
CONST	SEGMENT
??_C@_0BF@MIPHKFGA@assertion_failed?4log?$AA@ DB 'assertion_failed.log', 00H ; `string'
CONST	ENDS
;	COMDAT __TI3?AVAssertionError@@
xdata$x	SEGMENT
__TI3?AVAssertionError@@ DD 00H
	DD	FLAT:??1AssertionError@@UAE@XZ
	DD	00H
	DD	FLAT:__CTA3?AVAssertionError@@
xdata$x	ENDS
;	COMDAT __CTA3?AVAssertionError@@
xdata$x	SEGMENT
__CTA3?AVAssertionError@@ DD 03H
	DD	FLAT:__CT??_R0?AVAssertionError@@@8??0AssertionError@@QAE@ABV0@@Z20
	DD	FLAT:__CT??_R0?AVError@@@8??0Error@@QAE@ABV0@@Z20
	DD	FLAT:__CT??_R0?AVThrowable@@@8??0Throwable@@QAE@ABV0@@Z20
xdata$x	ENDS
;	COMDAT __CT??_R0?AVAssertionError@@@8??0AssertionError@@QAE@ABV0@@Z20
xdata$x	SEGMENT
__CT??_R0?AVAssertionError@@@8??0AssertionError@@QAE@ABV0@@Z20 DD 00H
	DD	FLAT:??_R0?AVAssertionError@@@8
	DD	00H
	DD	0ffffffffH
	ORG $+4
	DD	014H
	DD	FLAT:??0AssertionError@@QAE@ABV0@@Z
xdata$x	ENDS
;	COMDAT __CT??_R0?AVError@@@8??0Error@@QAE@ABV0@@Z20
xdata$x	SEGMENT
__CT??_R0?AVError@@@8??0Error@@QAE@ABV0@@Z20 DD 00H
	DD	FLAT:??_R0?AVError@@@8
	DD	00H
	DD	0ffffffffH
	ORG $+4
	DD	014H
	DD	FLAT:??0Error@@QAE@ABV0@@Z
xdata$x	ENDS
;	COMDAT __CT??_R0?AVThrowable@@@8??0Throwable@@QAE@ABV0@@Z20
xdata$x	SEGMENT
__CT??_R0?AVThrowable@@@8??0Throwable@@QAE@ABV0@@Z20 DD 00H
	DD	FLAT:??_R0?AVThrowable@@@8
	DD	00H
	DD	0ffffffffH
	ORG $+4
	DD	014H
	DD	FLAT:??0Throwable@@QAE@ABV0@@Z
; Function compile flags: /Ogsy
; File c:\darkeden\designed_common\project\client\packet\assert.cpp
xdata$x	ENDS
;	COMDAT ?__assert__@@YAXPBDI00@Z
_TEXT	SEGMENT
$T103822 = -364						; size = 20
$T103823 = -344						; size = 4
_msg$ = -340						; size = 20
$T103821 = -320						; size = 20
$T103820 = -312						; size = 12
_currentTime$ = -300					; size = 4
_ofile$ = -296						; size = 280
__$ArrayPad$ = -16					; size = 4
__$EHRec$ = -12						; size = 12
__$ReturnAddr$ = 4					; size = 4
_file$ = 8						; size = 4
_line$ = 12						; size = 4
_func$ = 16						; size = 4
_expr$ = 20						; size = 4
?__assert__@@YAXPBDI00@Z PROC NEAR			; __assert__, COMDAT

; 24   : {

  00000	b8 00 00 00 00	 mov	 eax, __ehhandler$?__assert__@@YAXPBDI00@Z
  00005	e8 00 00 00 00	 call	 __EH_prolog
  0000a	81 ec 60 01 00
	00		 sub	 esp, 352		; 00000160H
  00010	a1 00 00 00 00	 mov	 eax, DWORD PTR ___security_cookie
  00015	56		 push	 esi

; 25   : 	StringStream msg;

  00016	8d 8d ac fe ff
	ff		 lea	 ecx, DWORD PTR _msg$[ebp]
  0001c	89 45 f0	 mov	 DWORD PTR __$ArrayPad$[ebp], eax
  0001f	e8 00 00 00 00	 call	 ??0StringStream@@QAE@XZ	; StringStream::StringStream

; 26   : 	
; 27   : 	msg << eos
; 28   : 		<< "Assertion Failed : " << file << " : " << line;

  00024	ff 75 0c	 push	 DWORD PTR _line$[ebp]
  00027	83 65 fc 00	 and	 DWORD PTR __$EHRec$[ebp+8], 0
  0002b	be 00 00 00 00	 mov	 esi, OFFSET FLAT:??_C@_03MCPBMLDJ@?5?3?5?$AA@
  00030	56		 push	 esi
  00031	ff 75 08	 push	 DWORD PTR _file$[ebp]
  00034	8d 8d ac fe ff
	ff		 lea	 ecx, DWORD PTR _msg$[ebp]
  0003a	68 00 00 00 00	 push	 OFFSET FLAT:??_C@_0BE@DEFGJHNM@Assertion?5Failed?5?3?5?$AA@
  0003f	6a 0a		 push	 10			; 0000000aH
  00041	e8 00 00 00 00	 call	 ??6StringStream@@QAEAAV0@D@Z ; StringStream::operator<<
  00046	8b c8		 mov	 ecx, eax
  00048	e8 00 00 00 00	 call	 ??6StringStream@@QAEAAV0@PBD@Z ; StringStream::operator<<
  0004d	8b c8		 mov	 ecx, eax
  0004f	e8 00 00 00 00	 call	 ??6StringStream@@QAEAAV0@PBD@Z ; StringStream::operator<<
  00054	8b c8		 mov	 ecx, eax
  00056	e8 00 00 00 00	 call	 ??6StringStream@@QAEAAV0@PBD@Z ; StringStream::operator<<
  0005b	8b c8		 mov	 ecx, eax
  0005d	e8 00 00 00 00	 call	 ??6StringStream@@QAEAAV0@I@Z ; StringStream::operator<<

; 29   : 
; 30   : 	if ( func )

  00062	83 7d 10 00	 cmp	 DWORD PTR _func$[ebp], 0
  00066	74 16		 je	 SHORT $L99449

; 31   : 		msg << " : " << func;

  00068	ff 75 10	 push	 DWORD PTR _func$[ebp]
  0006b	8d 8d ac fe ff
	ff		 lea	 ecx, DWORD PTR _msg$[ebp]
  00071	56		 push	 esi
  00072	e8 00 00 00 00	 call	 ??6StringStream@@QAEAAV0@PBD@Z ; StringStream::operator<<
  00077	8b c8		 mov	 ecx, eax
  00079	e8 00 00 00 00	 call	 ??6StringStream@@QAEAAV0@PBD@Z ; StringStream::operator<<
$L99449:

; 32   : 
; 33   : 	time_t currentTime = time(0);

  0007e	6a 00		 push	 0
  00080	e8 00 00 00 00	 call	 _time
  00085	89 85 d4 fe ff
	ff		 mov	 DWORD PTR _currentTime$[ebp], eax

; 34   : 	
; 35   : 	msg << expr << " at " << ctime(&currentTime);

  0008b	8d 85 d4 fe ff
	ff		 lea	 eax, DWORD PTR _currentTime$[ebp]
  00091	50		 push	 eax
  00092	e8 00 00 00 00	 call	 _ctime
  00097	59		 pop	 ecx
  00098	59		 pop	 ecx
  00099	50		 push	 eax
  0009a	68 00 00 00 00	 push	 OFFSET FLAT:??_C@_04LNPKFDKO@?5at?5?$AA@
  0009f	ff 75 14	 push	 DWORD PTR _expr$[ebp]
  000a2	8d 8d ac fe ff
	ff		 lea	 ecx, DWORD PTR _msg$[ebp]
  000a8	e8 00 00 00 00	 call	 ??6StringStream@@QAEAAV0@PBD@Z ; StringStream::operator<<
  000ad	8b c8		 mov	 ecx, eax
  000af	e8 00 00 00 00	 call	 ??6StringStream@@QAEAAV0@PBD@Z ; StringStream::operator<<
  000b4	8b c8		 mov	 ecx, eax
  000b6	e8 00 00 00 00	 call	 ??6StringStream@@QAEAAV0@PBD@Z ; StringStream::operator<<

; 36   : 	
; 37   : 	std::ofstream ofile("assertion_failed.log", std::ios::app);

  000bb	6a 01		 push	 1
  000bd	6a 01		 push	 1
  000bf	68 00 00 00 00	 push	 OFFSET FLAT:??_C@_0BF@MIPHKFGA@assertion_failed?4log?$AA@
  000c4	8d 8d d8 fe ff
	ff		 lea	 ecx, DWORD PTR _ofile$[ebp]
  000ca	e8 00 00 00 00	 call	 ??0?$basic_ofstream@DV?$char_traits@D@_STL@@@_STL@@QAE@PBDH@Z ; _STL::basic_ofstream<char,_STL::char_traits<char> >::basic_ofstream<char,_STL::char_traits<char> >

; 38   : 	ofile << msg.toString().c_str() << std::endl;

  000cf	8d 85 c8 fe ff
	ff		 lea	 eax, DWORD PTR $T103820[ebp]
  000d5	50		 push	 eax
  000d6	8d 8d ac fe ff
	ff		 lea	 ecx, DWORD PTR _msg$[ebp]
  000dc	e8 00 00 00 00	 call	 ?toString@StringStream@@QBE?AV?$basic_string@DV?$char_traits@D@_STL@@V?$allocator@D@2@@_STL@@XZ ; StringStream::toString
  000e1	ff 30		 push	 DWORD PTR [eax]
  000e3	8d 8d d8 fe ff
	ff		 lea	 ecx, DWORD PTR _ofile$[ebp]
  000e9	c6 45 fc 02	 mov	 BYTE PTR __$EHRec$[ebp+8], 2
  000ed	e8 00 00 00 00	 call	 ?_M_put_nowiden@?$basic_ostream@DV?$char_traits@D@_STL@@@_STL@@QAEXPBD@Z ; _STL::basic_ostream<char,_STL::char_traits<char> >::_M_put_nowiden
  000f2	8d 85 d8 fe ff
	ff		 lea	 eax, DWORD PTR _ofile$[ebp]
  000f8	50		 push	 eax
  000f9	e8 00 00 00 00	 call	 ??$endl@DV?$char_traits@D@_STL@@@_STL@@YAAAV?$basic_ostream@DV?$char_traits@D@_STL@@@0@AAV10@@Z ; _STL::endl<char,_STL::char_traits<char> >
  000fe	8b 85 d0 fe ff
	ff		 mov	 eax, DWORD PTR $T103820[ebp+8]
  00104	2b 85 c8 fe ff
	ff		 sub	 eax, DWORD PTR $T103820[ebp]
  0010a	59		 pop	 ecx
  0010b	50		 push	 eax
  0010c	ff b5 c8 fe ff
	ff		 push	 DWORD PTR $T103820[ebp]
  00112	8d 8d d0 fe ff
	ff		 lea	 ecx, DWORD PTR $T103820[ebp+8]
  00118	c6 45 fc 01	 mov	 BYTE PTR __$EHRec$[ebp+8], 1
  0011c	e8 00 00 00 00	 call	 ?deallocate@?$allocator@D@_STL@@QAEXPADI@Z ; _STL::allocator<char>::deallocate

; 39   : 	ofile.close();

  00121	8d 8d d8 fe ff
	ff		 lea	 ecx, DWORD PTR _ofile$[ebp]
  00127	e8 00 00 00 00	 call	 ?close@?$basic_ofstream@DV?$char_traits@D@_STL@@@_STL@@QAEXXZ ; _STL::basic_ofstream<char,_STL::char_traits<char> >::close

; 40   : 
; 41   : 	throw AssertionError( msg.toString() );

  0012c	83 ec 0c	 sub	 esp, 12			; 0000000cH
  0012f	8b c4		 mov	 eax, esp
  00131	89 a5 a8 fe ff
	ff		 mov	 DWORD PTR $T103823[ebp], esp
  00137	50		 push	 eax
  00138	8d 8d ac fe ff
	ff		 lea	 ecx, DWORD PTR _msg$[ebp]
  0013e	e8 00 00 00 00	 call	 ?toString@StringStream@@QBE?AV?$basic_string@DV?$char_traits@D@_STL@@V?$allocator@D@2@@_STL@@XZ ; StringStream::toString
  00143	8d 8d 94 fe ff
	ff		 lea	 ecx, DWORD PTR $T103822[ebp]
  00149	e8 00 00 00 00	 call	 ??0AssertionError@@QAE@V?$basic_string@DV?$char_traits@D@_STL@@V?$allocator@D@2@@_STL@@@Z ; AssertionError::AssertionError
  0014e	50		 push	 eax
  0014f	8d 8d c0 fe ff
	ff		 lea	 ecx, DWORD PTR $T103821[ebp]
  00155	c6 45 fc 03	 mov	 BYTE PTR __$EHRec$[ebp+8], 3
  00159	e8 00 00 00 00	 call	 ??0AssertionError@@QAE@ABV0@@Z
  0015e	68 00 00 00 00	 push	 OFFSET FLAT:__TI3?AVAssertionError@@
  00163	8d 85 c0 fe ff
	ff		 lea	 eax, DWORD PTR $T103821[ebp]
  00169	50		 push	 eax
  0016a	e8 00 00 00 00	 call	 __CxxThrowException@8
$L103893:
$L103891:
  0016f	cc		 int	 3
_TEXT	ENDS
;	COMDAT text$x
text$x	SEGMENT
$L103824:
  00000	8d 8d ac fe ff
	ff		 lea	 ecx, DWORD PTR _msg$[ebp]
  00006	e9 00 00 00 00	 jmp	 ??1StringStream@@QAE@XZ	; StringStream::~StringStream
$L103825:
  0000b	8d 8d d8 fe ff
	ff		 lea	 ecx, DWORD PTR _ofile$[ebp]
  00011	e9 00 00 00 00	 jmp	 ??_D?$basic_ofstream@DV?$char_traits@D@_STL@@@_STL@@QAEXXZ
$L103826:
  00016	8d 8d c8 fe ff
	ff		 lea	 ecx, DWORD PTR $T103820[ebp]
  0001c	e9 00 00 00 00	 jmp	 ??1?$basic_string@DV?$char_traits@D@_STL@@V?$allocator@D@2@@_STL@@QAE@XZ ; _STL::basic_string<char,_STL::char_traits<char>,_STL::allocator<char> >::~basic_string<char,_STL::char_traits<char>,_STL::allocator<char> >
$L103828:
  00021	8d 8d 94 fe ff
	ff		 lea	 ecx, DWORD PTR $T103822[ebp]
  00027	e9 00 00 00 00	 jmp	 ??1AssertionError@@UAE@XZ
__ehhandler$?__assert__@@YAXPBDI00@Z:
  0002c	b8 00 00 00 00	 mov	 eax, OFFSET FLAT:$T103886
  00031	e9 00 00 00 00	 jmp	 ___CxxFrameHandler
text$x	ENDS
?__assert__@@YAXPBDI00@Z ENDP				; __assert__
END
