; Listing generated by Microsoft (R) Optimizing Compiler Version 13.10.3077 

	TITLE	\darkeden\Designed_Common\Project\Client\BGMManager.cpp
	.386P
include listing.inc
if @Version gt 510
.model FLAT
else
_TEXT	SEGMENT PARA USE32 PUBLIC 'CODE'
_TEXT	ENDS
_DATA	SEGMENT DWORD USE32 PUBLIC 'DATA'
_DATA	ENDS
CONST	SEGMENT DWORD USE32 PUBLIC 'CONST'
CONST	ENDS
_BSS	SEGMENT DWORD USE32 PUBLIC 'BSS'
_BSS	ENDS
$$SYMBOLS	SEGMENT BYTE USE32 'DEBSYM'
$$SYMBOLS	ENDS
$$TYPES	SEGMENT BYTE USE32 'DEBTYP'
$$TYPES	ENDS
_TLS	SEGMENT DWORD USE32 PUBLIC 'TLS'
_TLS	ENDS
;	COMDAT ??_C@_0N@GOPDCEEB@basic_string?$AA@
CONST	SEGMENT DWORD USE32 PUBLIC 'CONST'
CONST	ENDS
rdata$r	SEGMENT DWORD USE32 PUBLIC 'CONST'
rdata$r	ENDS
text$yc	SEGMENT PARA USE32 PUBLIC 'CODE'
text$yc	ENDS
CRT$XCA	SEGMENT DWORD USE32 PUBLIC 'DATA'
CRT$XCA	ENDS
CRT$XCU	SEGMENT DWORD USE32 PUBLIC 'DATA'
CRT$XCU	ENDS
CRT$XCL	SEGMENT DWORD USE32 PUBLIC 'DATA'
CRT$XCL	ENDS
CRT$XCC	SEGMENT DWORD USE32 PUBLIC 'DATA'
CRT$XCC	ENDS
CRT$XCZ	SEGMENT DWORD USE32 PUBLIC 'DATA'
CRT$XCZ	ENDS
text$yd	SEGMENT PARA USE32 PUBLIC 'CODE'
text$yd	ENDS
;	COMDAT ?IsInit@BGMManager@@QAE_NXZ
_TEXT	SEGMENT PARA USE32 PUBLIC 'CODE'
_TEXT	ENDS
;	COMDAT ??0AutoLock@ACriticalSection@@QAE@AAV1@@Z
_TEXT	SEGMENT PARA USE32 PUBLIC 'CODE'
_TEXT	ENDS
;	COMDAT ??1AutoLock@ACriticalSection@@QAE@XZ
_TEXT	SEGMENT PARA USE32 PUBLIC 'CODE'
_TEXT	ENDS
;	COMDAT ??BAutoLock@ACriticalSection@@QAE_NXZ
_TEXT	SEGMENT PARA USE32 PUBLIC 'CODE'
_TEXT	ENDS
;	COMDAT ??0ACriticalSection@@QAE@XZ
_TEXT	SEGMENT PARA USE32 PUBLIC 'CODE'
_TEXT	ENDS
;	COMDAT ??1ACriticalSection@@QAE@XZ
_TEXT	SEGMENT PARA USE32 PUBLIC 'CODE'
_TEXT	ENDS
;	COMDAT ?Lock@ACriticalSection@@QAEXXZ
_TEXT	SEGMENT PARA USE32 PUBLIC 'CODE'
_TEXT	ENDS
;	COMDAT ?Unlock@ACriticalSection@@QAEXXZ
_TEXT	SEGMENT PARA USE32 PUBLIC 'CODE'
_TEXT	ENDS
;	COMDAT _$E79
text$yc	SEGMENT PARA USE32 PUBLIC 'CODE'
text$yc	ENDS
;	COMDAT _$E80
text$yd	SEGMENT PARA USE32 PUBLIC 'CODE'
text$yd	ENDS
;	COMDAT ?MusicUpdateThreadProc@@YGIPAX@Z
_TEXT	SEGMENT PARA USE32 PUBLIC 'CODE'
_TEXT	ENDS
;	COMDAT ??0BGMManager@@QAE@XZ
_TEXT	SEGMENT PARA USE32 PUBLIC 'CODE'
_TEXT	ENDS
;	COMDAT ??1BGMManager@@QAE@XZ
_TEXT	SEGMENT PARA USE32 PUBLIC 'CODE'
_TEXT	ENDS
;	COMDAT ?Init@BGMManager@@QAE_NPAUIDirectSound@@@Z
_TEXT	SEGMENT PARA USE32 PUBLIC 'CODE'
_TEXT	ENDS
;	COMDAT ?Destory@BGMManager@@QAE_NXZ
_TEXT	SEGMENT PARA USE32 PUBLIC 'CODE'
_TEXT	ENDS
;	COMDAT ??_GVorbisSound@@QAEPAXI@Z
_TEXT	SEGMENT PARA USE32 PUBLIC 'CODE'
_TEXT	ENDS
;	COMDAT ??_GACriticalSection@@QAEPAXI@Z
_TEXT	SEGMENT PARA USE32 PUBLIC 'CODE'
_TEXT	ENDS
;	COMDAT ?PlayMusic@BGMManager@@QAE_NPBD@Z
_TEXT	SEGMENT PARA USE32 PUBLIC 'CODE'
_TEXT	ENDS
;	COMDAT ?StopMusic@BGMManager@@QAE_NXZ
_TEXT	SEGMENT PARA USE32 PUBLIC 'CODE'
_TEXT	ENDS
;	COMDAT ?SetVolume@BGMManager@@QAEXH@Z
_TEXT	SEGMENT PARA USE32 PUBLIC 'CODE'
_TEXT	ENDS
;	COMDAT ?GetVolume@BGMManager@@QAEHXZ
_TEXT	SEGMENT PARA USE32 PUBLIC 'CODE'
_TEXT	ENDS
;	COMDAT ?eq@?$__char_traits_base@DH@_STL@@SA_NABD0@Z
_TEXT	SEGMENT PARA USE32 PUBLIC 'CODE'
_TEXT	ENDS
;	COMDAT ?not_eof@?$__char_traits_base@DH@_STL@@SAHABH@Z
_TEXT	SEGMENT PARA USE32 PUBLIC 'CODE'
_TEXT	ENDS
;	COMDAT ?eq_int_type@?$__char_traits_base@DH@_STL@@SA_NABH0@Z
_TEXT	SEGMENT PARA USE32 PUBLIC 'CODE'
_TEXT	ENDS
;	COMDAT ?get_allocator@?$basic_string@DV?$char_traits@D@_STL@@V?$allocator@D@2@@_STL@@QBE?AV?$allocator@D@2@XZ
_TEXT	SEGMENT PARA USE32 PUBLIC 'CODE'
_TEXT	ENDS
;	COMDAT ?_M_terminate_string@?$basic_string@DV?$char_traits@D@_STL@@V?$allocator@D@2@@_STL@@AAEXXZ
_TEXT	SEGMENT PARA USE32 PUBLIC 'CODE'
_TEXT	ENDS
;	COMDAT ??0?$_String_base@DV?$allocator@D@_STL@@@_STL@@QAE@ABV?$allocator@D@1@@Z
_TEXT	SEGMENT PARA USE32 PUBLIC 'CODE'
_TEXT	ENDS
;	COMDAT ?allocate@?$allocator@D@_STL@@QAEPADIPBX@Z
_TEXT	SEGMENT PARA USE32 PUBLIC 'CODE'
_TEXT	ENDS
;	COMDAT ??0?$fpos@H@_STL@@QAE@J@Z
_TEXT	SEGMENT PARA USE32 PUBLIC 'CODE'
_TEXT	ENDS
;	COMDAT ??B?$fpos@H@_STL@@QBEJXZ
_TEXT	SEGMENT PARA USE32 PUBLIC 'CODE'
_TEXT	ENDS
;	COMDAT ?state@?$fpos@H@_STL@@QBEHXZ
_TEXT	SEGMENT PARA USE32 PUBLIC 'CODE'
_TEXT	ENDS
;	COMDAT ?is_open@?$basic_filebuf@DV?$char_traits@D@_STL@@@_STL@@QBE_NXZ
_TEXT	SEGMENT PARA USE32 PUBLIC 'CODE'
_TEXT	ENDS
;	COMDAT ?_M_seek_return@?$basic_filebuf@DV?$char_traits@D@_STL@@@_STL@@AAE?AV?$fpos@H@2@JH@Z
_TEXT	SEGMENT PARA USE32 PUBLIC 'CODE'
_TEXT	ENDS
;	COMDAT ??0?$_Filebuf_Tmp_Buf@D@_STL@@QAE@H@Z
_TEXT	SEGMENT PARA USE32 PUBLIC 'CODE'
_TEXT	ENDS
;	COMDAT ??1?$_Filebuf_Tmp_Buf@D@_STL@@QAE@XZ
_TEXT	SEGMENT PARA USE32 PUBLIC 'CODE'
_TEXT	ENDS
;	COMDAT ??0?$TSingleton@VBGMManager@@@@QAE@XZ
_TEXT	SEGMENT PARA USE32 PUBLIC 'CODE'
_TEXT	ENDS
;	COMDAT ??1?$TSingleton@VBGMManager@@@@QAE@XZ
_TEXT	SEGMENT PARA USE32 PUBLIC 'CODE'
_TEXT	ENDS
;	COMDAT ?_M_terminate_string_aux@?$basic_string@DV?$char_traits@D@_STL@@V?$allocator@D@2@@_STL@@AAEXABU__true_type@2@@Z
_TEXT	SEGMENT PARA USE32 PUBLIC 'CODE'
_TEXT	ENDS
;	COMDAT ??0?$allocator@D@_STL@@QAE@ABV01@@Z
_TEXT	SEGMENT PARA USE32 PUBLIC 'CODE'
_TEXT	ENDS
;	COMDAT ??0?$_STLP_alloc_proxy@PADDV?$allocator@D@_STL@@@_STL@@QAE@ABV?$allocator@D@1@PAD@Z
_TEXT	SEGMENT PARA USE32 PUBLIC 'CODE'
_TEXT	ENDS
;	COMDAT ?state@?$fpos@H@_STL@@QAEXH@Z
_TEXT	SEGMENT PARA USE32 PUBLIC 'CODE'
_TEXT	ENDS
;	COMDAT ??$_M_range_initialize@PBD@?$basic_string@DV?$char_traits@D@_STL@@V?$allocator@D@2@@_STL@@AAEXPBD0@Z
_TEXT	SEGMENT PARA USE32 PUBLIC 'CODE'
_TEXT	ENDS
;	COMDAT ??$_M_range_initialize@PAD@?$basic_string@DV?$char_traits@D@_STL@@V?$allocator@D@2@@_STL@@AAEXPAD0@Z
_TEXT	SEGMENT PARA USE32 PUBLIC 'CODE'
_TEXT	ENDS
;	COMDAT ?close@?$basic_filebuf@DV?$char_traits@D@_STL@@@_STL@@QAEPAV12@XZ
_TEXT	SEGMENT PARA USE32 PUBLIC 'CODE'
_TEXT	ENDS
;	COMDAT ?_M_exit_input_mode@?$basic_filebuf@DV?$char_traits@D@_STL@@@_STL@@AAEXXZ
_TEXT	SEGMENT PARA USE32 PUBLIC 'CODE'
_TEXT	ENDS
;	COMDAT ?_M_switch_to_output_mode@?$basic_filebuf@DV?$char_traits@D@_STL@@@_STL@@AAE_NXZ
_TEXT	SEGMENT PARA USE32 PUBLIC 'CODE'
_TEXT	ENDS
;	COMDAT ?_M_output_error@?$basic_filebuf@DV?$char_traits@D@_STL@@@_STL@@AAEHXZ
_TEXT	SEGMENT PARA USE32 PUBLIC 'CODE'
_TEXT	ENDS
;	COMDAT ?_M_allocate_buffers@?$basic_filebuf@DV?$char_traits@D@_STL@@@_STL@@AAE_NPADH@Z
_TEXT	SEGMENT PARA USE32 PUBLIC 'CODE'
_TEXT	ENDS
;	COMDAT ?_M_deallocate_buffers@?$basic_filebuf@DV?$char_traits@D@_STL@@@_STL@@AAEXXZ
_TEXT	SEGMENT PARA USE32 PUBLIC 'CODE'
_TEXT	ENDS
;	COMDAT ?_M_seek_init@?$basic_filebuf@DV?$char_traits@D@_STL@@@_STL@@AAE_N_N@Z
_TEXT	SEGMENT PARA USE32 PUBLIC 'CODE'
_TEXT	ENDS
;	COMDAT ?_M_setup_codecvt@?$basic_filebuf@DV?$char_traits@D@_STL@@@_STL@@AAEXABVlocale@2@@Z
_TEXT	SEGMENT PARA USE32 PUBLIC 'CODE'
_TEXT	ENDS
;	COMDAT ??$equal@PADPADU?$_Eq_traits@V?$char_traits@D@_STL@@@_STL@@@_STL@@YA_NPAD00U?$_Eq_traits@V?$char_traits@D@_STL@@@0@@Z
_TEXT	SEGMENT PARA USE32 PUBLIC 'CODE'
_TEXT	ENDS
;	COMDAT ??$_Destroy@V?$basic_string@DV?$char_traits@D@_STL@@V?$allocator@D@2@@_STL@@@_STL@@YAXPAV?$basic_string@DV?$char_traits@D@_STL@@V?$allocator@D@2@@0@@Z
_TEXT	SEGMENT PARA USE32 PUBLIC 'CODE'
_TEXT	ENDS
;	COMDAT ??$_M_assign_dispatch@PAD@?$basic_string@DV?$char_traits@D@_STL@@V?$allocator@D@2@@_STL@@AAEAAV01@PAD0ABU__false_type@1@@Z
_TEXT	SEGMENT PARA USE32 PUBLIC 'CODE'
_TEXT	ENDS
;	COMDAT ??_G?$basic_string@DV?$char_traits@D@_STL@@V?$allocator@D@2@@_STL@@QAEPAXI@Z
_TEXT	SEGMENT PARA USE32 PUBLIC 'CODE'
_TEXT	ENDS
;	COMDAT ?end@?$basic_string@DV?$char_traits@D@_STL@@V?$allocator@D@2@@_STL@@QAEPADXZ
_TEXT	SEGMENT PARA USE32 PUBLIC 'CODE'
_TEXT	ENDS
;	COMDAT ?erase@?$basic_string@DV?$char_traits@D@_STL@@V?$allocator@D@2@@_STL@@QAEPADPAD0@Z
_TEXT	SEGMENT PARA USE32 PUBLIC 'CODE'
_TEXT	ENDS
;	COMDAT ?_M_exit_putback_mode@?$basic_filebuf@DV?$char_traits@D@_STL@@@_STL@@AAEXXZ
_TEXT	SEGMENT PARA USE32 PUBLIC 'CODE'
_TEXT	ENDS
;	COMDAT ??R?$_Eq_traits@V?$char_traits@D@_STL@@@_STL@@QBE_NABD0@Z
_TEXT	SEGMENT PARA USE32 PUBLIC 'CODE'
_TEXT	ENDS
;	COMDAT ?move@?$__char_traits_base@DH@_STL@@SAPADPADPBDI@Z
_TEXT	SEGMENT PARA USE32 PUBLIC 'CODE'
_TEXT	ENDS
;	COMDAT ??$_M_range_initialize@PBD@?$basic_string@DV?$char_traits@D@_STL@@V?$allocator@D@2@@_STL@@AAEXPBD0ABUforward_iterator_tag@1@@Z
_TEXT	SEGMENT PARA USE32 PUBLIC 'CODE'
_TEXT	ENDS
;	COMDAT ??$_M_range_initialize@PAD@?$basic_string@DV?$char_traits@D@_STL@@V?$allocator@D@2@@_STL@@AAEXPAD0ABUforward_iterator_tag@1@@Z
_TEXT	SEGMENT PARA USE32 PUBLIC 'CODE'
_TEXT	ENDS
;	COMDAT ?_M_unshift@?$basic_filebuf@DV?$char_traits@D@_STL@@@_STL@@AAE_NXZ
_TEXT	SEGMENT PARA USE32 PUBLIC 'CODE'
_TEXT	ENDS
;	COMDAT ?_M_allocate_buffers@?$basic_filebuf@DV?$char_traits@D@_STL@@@_STL@@AAE_NXZ
_TEXT	SEGMENT PARA USE32 PUBLIC 'CODE'
_TEXT	ENDS
;	COMDAT ??$max@H@_STL@@YAABHABH0@Z
_TEXT	SEGMENT PARA USE32 PUBLIC 'CODE'
_TEXT	ENDS
;	COMDAT ??$use_facet@V?$codecvt@DDH@_STL@@@_STL@@YAABV?$codecvt@DDH@0@ABVlocale@0@@Z
_TEXT	SEGMENT PARA USE32 PUBLIC 'CODE'
_TEXT	ENDS
;	COMDAT ??$append@PAD@?$basic_string@DV?$char_traits@D@_STL@@V?$allocator@D@2@@_STL@@QAEAAV01@PAD0@Z
_TEXT	SEGMENT PARA USE32 PUBLIC 'CODE'
_TEXT	ENDS
;	COMDAT ??$distance@PBD@_STL@@YAHABQBD0@Z
_TEXT	SEGMENT PARA USE32 PUBLIC 'CODE'
_TEXT	ENDS
;	COMDAT ?_M_allocate_block@?$_String_base@DV?$allocator@D@_STL@@@_STL@@QAEXI@Z
_TEXT	SEGMENT PARA USE32 PUBLIC 'CODE'
_TEXT	ENDS
;	COMDAT ??$distance@PAD@_STL@@YAHABQAD0@Z
_TEXT	SEGMENT PARA USE32 PUBLIC 'CODE'
_TEXT	ENDS
;	COMDAT ??$uninitialized_copy@PADPAD@_STL@@YAPADPAD00@Z
_TEXT	SEGMENT PARA USE32 PUBLIC 'CODE'
_TEXT	ENDS
;	COMDAT ??$_M_append_dispatch@PAD@?$basic_string@DV?$char_traits@D@_STL@@V?$allocator@D@2@@_STL@@AAEAAV01@PAD0ABU__false_type@1@@Z
_TEXT	SEGMENT PARA USE32 PUBLIC 'CODE'
_TEXT	ENDS
;	COMDAT ?max_size@?$_String_base@DV?$allocator@D@_STL@@@_STL@@QBEIXZ
_TEXT	SEGMENT PARA USE32 PUBLIC 'CODE'
_TEXT	ENDS
;	COMDAT ??$__distance@PBD@_STL@@YAHABQBD0ABUrandom_access_iterator_tag@0@@Z
_TEXT	SEGMENT PARA USE32 PUBLIC 'CODE'
_TEXT	ENDS
;	COMDAT ?_M_throw_length_error@?$_String_base@DV?$allocator@D@_STL@@@_STL@@QBEXXZ
_TEXT	SEGMENT PARA USE32 PUBLIC 'CODE'
_TEXT	ENDS
;	COMDAT ??$__distance@PAD@_STL@@YAHABQAD0ABUrandom_access_iterator_tag@0@@Z
_TEXT	SEGMENT PARA USE32 PUBLIC 'CODE'
_TEXT	ENDS
;	COMDAT ??$__uninitialized_copy@PADPAD@_STL@@YAPADPAD00ABU__true_type@0@@Z
_TEXT	SEGMENT PARA USE32 PUBLIC 'CODE'
_TEXT	ENDS
;	COMDAT ??$append@PAD@?$basic_string@DV?$char_traits@D@_STL@@V?$allocator@D@2@@_STL@@AAEAAV01@PAD0ABUforward_iterator_tag@1@@Z
_TEXT	SEGMENT PARA USE32 PUBLIC 'CODE'
_TEXT	ENDS
;	COMDAT ?_M_construct_null@?$basic_string@DV?$char_traits@D@_STL@@V?$allocator@D@2@@_STL@@AAEXPAD@Z
_TEXT	SEGMENT PARA USE32 PUBLIC 'CODE'
_TEXT	ENDS
;	COMDAT ?size@?$basic_string@DV?$char_traits@D@_STL@@V?$allocator@D@2@@_STL@@QBEIXZ
_TEXT	SEGMENT PARA USE32 PUBLIC 'CODE'
_TEXT	ENDS
;	COMDAT ?max_size@?$basic_string@DV?$char_traits@D@_STL@@V?$allocator@D@2@@_STL@@QBEIXZ
_TEXT	SEGMENT PARA USE32 PUBLIC 'CODE'
_TEXT	ENDS
;	COMDAT ?capacity@?$basic_string@DV?$char_traits@D@_STL@@V?$allocator@D@2@@_STL@@QBEIXZ
_TEXT	SEGMENT PARA USE32 PUBLIC 'CODE'
_TEXT	ENDS
;	COMDAT ?_Ret@?$_BothPtrType@PADPAD@_STL@@SA?AU__true_type@2@XZ
_TEXT	SEGMENT PARA USE32 PUBLIC 'CODE'
_TEXT	ENDS
;	COMDAT ?_M_construct_null_aux@?$basic_string@DV?$char_traits@D@_STL@@V?$allocator@D@2@@_STL@@AAEXPADABU__true_type@2@@Z
_TEXT	SEGMENT PARA USE32 PUBLIC 'CODE'
_TEXT	ENDS
;	COMDAT ??$__copy_aux@PADPAD@_STL@@YAPADPAD00ABU__true_type@0@@Z
_TEXT	SEGMENT PARA USE32 PUBLIC 'CODE'
_TEXT	ENDS
;	COMDAT ??$max@I@_STL@@YAABIABI0@Z
_TEXT	SEGMENT PARA USE32 PUBLIC 'CODE'
_TEXT	ENDS
;	COMDAT ?_Ret@?$_OKToMemCpy@DD@_STL@@SA?AU__true_type@2@XZ
_TEXT	SEGMENT PARA USE32 PUBLIC 'CODE'
_TEXT	ENDS
;	COMDAT ??$_IsOKToMemCpy@DD@_STL@@YA?AU?$_OKToMemCpy@DD@0@PAD0@Z
_TEXT	SEGMENT PARA USE32 PUBLIC 'CODE'
_TEXT	ENDS
;	COMDAT ??$__copy_ptrs@PADPAD@_STL@@YAPADPAD00ABU__true_type@0@@Z
_TEXT	SEGMENT PARA USE32 PUBLIC 'CODE'
_TEXT	ENDS
;	COMDAT ?__copy_trivial@_STL@@YAPAXPBX0PAX@Z
_TEXT	SEGMENT PARA USE32 PUBLIC 'CODE'
_TEXT	ENDS
;	COMDAT ?_M_deallocate_block@?$_String_base@DV?$allocator@D@_STL@@@_STL@@QAEXXZ
_TEXT	SEGMENT PARA USE32 PUBLIC 'CODE'
_TEXT	ENDS
;	COMDAT ?deallocate@?$allocator@D@_STL@@QAEXPADI@Z
_TEXT	SEGMENT PARA USE32 PUBLIC 'CODE'
_TEXT	ENDS
;	COMDAT ?deallocate@?$__node_alloc@$00$0A@@_STL@@SAXPAXI@Z
_TEXT	SEGMENT PARA USE32 PUBLIC 'CODE'
_TEXT	ENDS
;	COMDAT ?__stl_delete@_STL@@YAXPAX@Z
_TEXT	SEGMENT PARA USE32 PUBLIC 'CODE'
_TEXT	ENDS
;	COMDAT ?__page_size@_Filebuf_base@_STL@@SAIXZ
_TEXT	SEGMENT PARA USE32 PUBLIC 'CODE'
_TEXT	ENDS
;	COMDAT ?_M_write@?$basic_filebuf@DV?$char_traits@D@_STL@@@_STL@@QAE_NPADH@Z
_TEXT	SEGMENT PARA USE32 PUBLIC 'CODE'
_TEXT	ENDS
;	COMDAT ?unshift@?$codecvt@DDH@_STL@@QBE?AW4result@codecvt_base@2@AAHPAD1AAPAD@Z
_TEXT	SEGMENT PARA USE32 PUBLIC 'CODE'
_TEXT	ENDS
;	COMDAT ?uninitialized_copy@_STL@@YAPADPBD0PAD@Z
_TEXT	SEGMENT PARA USE32 PUBLIC 'CODE'
_TEXT	ENDS
;	COMDAT ?_Destroy@_STL@@YAXPAD0@Z
_TEXT	SEGMENT PARA USE32 PUBLIC 'CODE'
_TEXT	ENDS
;	COMDAT ?assign@?$char_traits@D@_STL@@SAXAADABD@Z
_TEXT	SEGMENT PARA USE32 PUBLIC 'CODE'
_TEXT	ENDS
;	COMDAT ?always_noconv@?$codecvt@DDH@_STL@@QBE_NXZ
_TEXT	SEGMENT PARA USE32 PUBLIC 'CODE'
_TEXT	ENDS
;	COMDAT ?encoding@?$codecvt@DDH@_STL@@QBEHXZ
_TEXT	SEGMENT PARA USE32 PUBLIC 'CODE'
_TEXT	ENDS
;	COMDAT ?max_length@?$codecvt@DDH@_STL@@QBEHXZ
_TEXT	SEGMENT PARA USE32 PUBLIC 'CODE'
_TEXT	ENDS
;	COMDAT ?__o_mode@_Filebuf_base@_STL@@QBEHXZ
_TEXT	SEGMENT PARA USE32 PUBLIC 'CODE'
_TEXT	ENDS
;	COMDAT ?m_pInstance@?$TSingleton@VBGMManager@@@@0PAVBGMManager@@A
_DATA	SEGMENT DWORD USE32 PUBLIC 'DATA'
_DATA	ENDS
;	COMDAT ?setp@?$basic_streambuf@DV?$char_traits@D@_STL@@@_STL@@IAEXPAD0@Z
_TEXT	SEGMENT PARA USE32 PUBLIC 'CODE'
_TEXT	ENDS
;	COMDAT ?_FILE_O_set@_STL@@YAXPAU_iobuf@@PAD11@Z
_TEXT	SEGMENT PARA USE32 PUBLIC 'CODE'
_TEXT	ENDS
;	COMDAT ?_FILE_I_set@_STL@@YAXPAU_iobuf@@PAD11@Z
_TEXT	SEGMENT PARA USE32 PUBLIC 'CODE'
_TEXT	ENDS
;	COMDAT ?setg@?$basic_streambuf@DV?$char_traits@D@_STL@@@_STL@@IAEXPAD00@Z
_TEXT	SEGMENT PARA USE32 PUBLIC 'CODE'
_TEXT	ENDS
;	COMDAT ?__is_open@_Filebuf_base@_STL@@QBE_NXZ
_TEXT	SEGMENT PARA USE32 PUBLIC 'CODE'
_TEXT	ENDS
;	COMDAT ?allocate@?$__node_alloc@$00$0A@@_STL@@SAPAXI@Z
_TEXT	SEGMENT PARA USE32 PUBLIC 'CODE'
_TEXT	ENDS
;	COMDAT ?__stl_new@_STL@@YAPAXI@Z
_TEXT	SEGMENT PARA USE32 PUBLIC 'CODE'
_TEXT	ENDS
;	COMDAT ??1?$_STLP_alloc_proxy@PADDV?$allocator@D@_STL@@@_STL@@QAE@XZ
_TEXT	SEGMENT PARA USE32 PUBLIC 'CODE'
_TEXT	ENDS
;	COMDAT ?eof@?$__char_traits_base@DH@_STL@@SAHXZ
_TEXT	SEGMENT PARA USE32 PUBLIC 'CODE'
_TEXT	ENDS
;	COMDAT ??1?$basic_string@DV?$char_traits@D@_STL@@V?$allocator@D@2@@_STL@@QAE@XZ
_TEXT	SEGMENT PARA USE32 PUBLIC 'CODE'
_TEXT	ENDS
;	COMDAT ??1?$_String_base@DV?$allocator@D@_STL@@@_STL@@QAE@XZ
_TEXT	SEGMENT PARA USE32 PUBLIC 'CODE'
_TEXT	ENDS
;	COMDAT ??1?$allocator@D@_STL@@QAE@XZ
_TEXT	SEGMENT PARA USE32 PUBLIC 'CODE'
_TEXT	ENDS
;	COMDAT ??0?$allocator@D@_STL@@QAE@XZ
_TEXT	SEGMENT PARA USE32 PUBLIC 'CODE'
_TEXT	ENDS
;	COMDAT ??0?$basic_string@DV?$char_traits@D@_STL@@V?$allocator@D@2@@_STL@@QAE@PBDABV?$allocator@D@1@@Z
_TEXT	SEGMENT PARA USE32 PUBLIC 'CODE'
_TEXT	ENDS
;	COMDAT ?length@?$char_traits@D@_STL@@SAIPBD@Z
_TEXT	SEGMENT PARA USE32 PUBLIC 'CODE'
_TEXT	ENDS
sxdata	SEGMENT DWORD USE32 'SXDATA'
sxdata	ENDS
FLAT	GROUP _DATA, CONST, _BSS
	ASSUME	CS: FLAT, DS: FLAT, SS: FLAT
endif

INCLUDELIB LIBCMT
INCLUDELIB OLDNAMES

PUBLIC	?IsInit@BGMManager@@QAE_NXZ			; BGMManager::IsInit
; Function compile flags: /Ogsy
; File c:\darkeden\designed_common\project\client\bgmmanager.h
;	COMDAT ?IsInit@BGMManager@@QAE_NXZ
_TEXT	SEGMENT
?IsInit@BGMManager@@QAE_NXZ PROC NEAR			; BGMManager::IsInit, COMDAT
; _this$ = ecx

; 22   : 	bool	IsInit()	{ return m_bInit;	}

  00000	8a 41 10	 mov	 al, BYTE PTR [ecx+16]
  00003	c3		 ret	 0
?IsInit@BGMManager@@QAE_NXZ ENDP			; BGMManager::IsInit
_TEXT	ENDS
PUBLIC	??BAutoLock@ACriticalSection@@QAE_NXZ		; ACriticalSection::AutoLock::operator bool
; Function compile flags: /Ogsy
; File c:\darkeden\designed_common\project\client\acriticalsection.h
;	COMDAT ??BAutoLock@ACriticalSection@@QAE_NXZ
_TEXT	SEGMENT
??BAutoLock@ACriticalSection@@QAE_NXZ PROC NEAR		; ACriticalSection::AutoLock::operator bool, COMDAT
; _this$ = ecx

; 25   : 			return false;

  00000	32 c0		 xor	 al, al

; 26   : 		}

  00002	c3		 ret	 0
??BAutoLock@ACriticalSection@@QAE_NXZ ENDP		; ACriticalSection::AutoLock::operator bool
_TEXT	ENDS
PUBLIC	??0ACriticalSection@@QAE@XZ			; ACriticalSection::ACriticalSection
EXTRN	__imp__InitializeCriticalSection@4:NEAR
; Function compile flags: /Ogsy
;	COMDAT ??0ACriticalSection@@QAE@XZ
_TEXT	SEGMENT
??0ACriticalSection@@QAE@XZ PROC NEAR			; ACriticalSection::ACriticalSection, COMDAT
; _this$ = ecx

; 33   : 	ACriticalSection()	{ InitializeCriticalSection(&m_cs);	}

  00000	56		 push	 esi
  00001	8b f1		 mov	 esi, ecx
  00003	56		 push	 esi
  00004	ff 15 00 00 00
	00		 call	 DWORD PTR __imp__InitializeCriticalSection@4
  0000a	8b c6		 mov	 eax, esi
  0000c	5e		 pop	 esi
  0000d	c3		 ret	 0
??0ACriticalSection@@QAE@XZ ENDP			; ACriticalSection::ACriticalSection
_TEXT	ENDS
PUBLIC	??1ACriticalSection@@QAE@XZ			; ACriticalSection::~ACriticalSection
EXTRN	__imp__DeleteCriticalSection@4:NEAR
; Function compile flags: /Ogsy
;	COMDAT ??1ACriticalSection@@QAE@XZ
_TEXT	SEGMENT
??1ACriticalSection@@QAE@XZ PROC NEAR			; ACriticalSection::~ACriticalSection, COMDAT
; _this$ = ecx

; 34   : 	~ACriticalSection()	{ DeleteCriticalSection(&m_cs);		}

  00000	51		 push	 ecx
  00001	ff 15 00 00 00
	00		 call	 DWORD PTR __imp__DeleteCriticalSection@4
  00007	c3		 ret	 0
??1ACriticalSection@@QAE@XZ ENDP			; ACriticalSection::~ACriticalSection
_TEXT	ENDS
PUBLIC	?Lock@ACriticalSection@@QAEXXZ			; ACriticalSection::Lock
EXTRN	__imp__EnterCriticalSection@4:NEAR
; Function compile flags: /Ogsy
;	COMDAT ?Lock@ACriticalSection@@QAEXXZ
_TEXT	SEGMENT
?Lock@ACriticalSection@@QAEXXZ PROC NEAR		; ACriticalSection::Lock, COMDAT
; _this$ = ecx

; 36   : 	void Lock()			{ EnterCriticalSection(&m_cs);		}

  00000	51		 push	 ecx
  00001	ff 15 00 00 00
	00		 call	 DWORD PTR __imp__EnterCriticalSection@4
  00007	c3		 ret	 0
?Lock@ACriticalSection@@QAEXXZ ENDP			; ACriticalSection::Lock
_TEXT	ENDS
PUBLIC	?Unlock@ACriticalSection@@QAEXXZ		; ACriticalSection::Unlock
EXTRN	__imp__LeaveCriticalSection@4:NEAR
; Function compile flags: /Ogsy
;	COMDAT ?Unlock@ACriticalSection@@QAEXXZ
_TEXT	SEGMENT
?Unlock@ACriticalSection@@QAEXXZ PROC NEAR		; ACriticalSection::Unlock, COMDAT
; _this$ = ecx

; 37   : 	void Unlock()		{ LeaveCriticalSection(&m_cs);		}

  00000	51		 push	 ecx
  00001	ff 15 00 00 00
	00		 call	 DWORD PTR __imp__LeaveCriticalSection@4
  00007	c3		 ret	 0
?Unlock@ACriticalSection@@QAEXXZ ENDP			; ACriticalSection::Unlock
_TEXT	ENDS
PUBLIC	?__stl_new@_STL@@YAPAXI@Z			; _STL::__stl_new
EXTRN	??2@YAPAXI@Z:NEAR				; operator new
; Function compile flags: /Ogsy
; File c:\stlport-4.6.1\stlport\stl\_new.h
;	COMDAT ?__stl_new@_STL@@YAPAXI@Z
_TEXT	SEGMENT
___n$ = 8						; size = 4
?__stl_new@_STL@@YAPAXI@Z PROC NEAR			; _STL::__stl_new, COMDAT

; 86   : inline void*  _STLP_CALL __stl_new(size_t __n)   { _STLP_CHECK_NULL_ALLOC(::operator _STLP_NEW(__n)); }

  00000	e9 00 00 00 00	 jmp	 ??2@YAPAXI@Z		; operator new
?__stl_new@_STL@@YAPAXI@Z ENDP				; _STL::__stl_new
_TEXT	ENDS
PUBLIC	?__stl_delete@_STL@@YAXPAX@Z			; _STL::__stl_delete
EXTRN	??3@YAXPAX@Z:NEAR				; operator delete
; Function compile flags: /Ogsy
;	COMDAT ?__stl_delete@_STL@@YAXPAX@Z
_TEXT	SEGMENT
___p$ = 8						; size = 4
?__stl_delete@_STL@@YAXPAX@Z PROC NEAR			; _STL::__stl_delete, COMDAT

; 87   : inline void   _STLP_CALL __stl_delete(void* __p) { ::operator delete(__p); }

  00000	e9 00 00 00 00	 jmp	 ??3@YAXPAX@Z		; operator delete
?__stl_delete@_STL@@YAXPAX@Z ENDP			; _STL::__stl_delete
_TEXT	ENDS
PUBLIC	??_GVorbisSound@@QAEPAXI@Z			; VorbisSound::`scalar deleting destructor'
EXTRN	??1VorbisSound@@QAE@XZ:NEAR			; VorbisSound::~VorbisSound
; Function compile flags: /Ogsy
;	COMDAT ??_GVorbisSound@@QAEPAXI@Z
_TEXT	SEGMENT
___flags$ = 8						; size = 4
??_GVorbisSound@@QAEPAXI@Z PROC NEAR			; VorbisSound::`scalar deleting destructor', COMDAT
; _this$ = ecx
  00000	56		 push	 esi
  00001	8b f1		 mov	 esi, ecx
  00003	e8 00 00 00 00	 call	 ??1VorbisSound@@QAE@XZ	; VorbisSound::~VorbisSound
  00008	f6 44 24 08 01	 test	 BYTE PTR ___flags$[esp], 1
  0000d	74 07		 je	 SHORT $L102226
  0000f	56		 push	 esi
  00010	e8 00 00 00 00	 call	 ??3@YAXPAX@Z		; operator delete
  00015	59		 pop	 ecx
$L102226:
  00016	8b c6		 mov	 eax, esi
  00018	5e		 pop	 esi
  00019	c2 04 00	 ret	 4
??_GVorbisSound@@QAEPAXI@Z ENDP				; VorbisSound::`scalar deleting destructor'
_TEXT	ENDS
PUBLIC	??_GACriticalSection@@QAEPAXI@Z			; ACriticalSection::`scalar deleting destructor'
; Function compile flags: /Ogsy
;	COMDAT ??_GACriticalSection@@QAEPAXI@Z
_TEXT	SEGMENT
___flags$ = 8						; size = 4
??_GACriticalSection@@QAEPAXI@Z PROC NEAR		; ACriticalSection::`scalar deleting destructor', COMDAT
; _this$ = ecx
  00000	56		 push	 esi
  00001	8b f1		 mov	 esi, ecx
  00003	56		 push	 esi
  00004	ff 15 00 00 00
	00		 call	 DWORD PTR __imp__DeleteCriticalSection@4
  0000a	f6 44 24 08 01	 test	 BYTE PTR ___flags$[esp], 1
  0000f	74 07		 je	 SHORT $L102229
  00011	56		 push	 esi
  00012	e8 00 00 00 00	 call	 ??3@YAXPAX@Z		; operator delete
  00017	59		 pop	 ecx
$L102229:
  00018	8b c6		 mov	 eax, esi
  0001a	5e		 pop	 esi
  0001b	c2 04 00	 ret	 4
??_GACriticalSection@@QAEPAXI@Z ENDP			; ACriticalSection::`scalar deleting destructor'
_TEXT	ENDS
PUBLIC	?_Destroy@_STL@@YAXPAD0@Z			; _STL::_Destroy
; Function compile flags: /Ogsy
; File c:\stlport-4.6.1\stlport\stl\_construct.h
;	COMDAT ?_Destroy@_STL@@YAXPAD0@Z
_TEXT	SEGMENT
___formal$ = 8						; size = 4
___formal$ = 12						; size = 4
?_Destroy@_STL@@YAXPAD0@Z PROC NEAR			; _STL::_Destroy, COMDAT

; 142  : inline void _Destroy(char*, char*) {}

  00000	c3		 ret	 0
?_Destroy@_STL@@YAXPAD0@Z ENDP				; _STL::_Destroy
_TEXT	ENDS
PUBLIC	?__copy_trivial@_STL@@YAPAXPBX0PAX@Z		; _STL::__copy_trivial
EXTRN	_memmove:NEAR
; Function compile flags: /Ogsy
; File c:\stlport-4.6.1\stlport\stl\_algobase.h
;	COMDAT ?__copy_trivial@_STL@@YAPAXPBX0PAX@Z
_TEXT	SEGMENT
___first$ = 8						; size = 4
___last$ = 12						; size = 4
___result$ = 16						; size = 4
?__copy_trivial@_STL@@YAPAXPBX0PAX@Z PROC NEAR		; _STL::__copy_trivial, COMDAT

; 147  : __copy_trivial(const void* __first, const void* __last, void* __result) {

  00000	55		 push	 ebp
  00001	8b ec		 mov	 ebp, esp
  00003	56		 push	 esi

; 148  :   return (__last == __first) ? __result : 
; 149  :     ((char*)memmove(__result, __first, ((const char*)__last - (const char*)__first))) + 
; 150  :     ((const char*)__last - (const char*)__first);

  00004	8b 75 0c	 mov	 esi, DWORD PTR ___last$[ebp]
  00007	3b 75 08	 cmp	 esi, DWORD PTR ___first$[ebp]
  0000a	75 05		 jne	 SHORT $L102952
  0000c	8b 45 10	 mov	 eax, DWORD PTR ___result$[ebp]
  0000f	eb 14		 jmp	 SHORT $L102953
$L102952:
  00011	2b 75 08	 sub	 esi, DWORD PTR ___first$[ebp]
  00014	56		 push	 esi
  00015	ff 75 08	 push	 DWORD PTR ___first$[ebp]
  00018	ff 75 10	 push	 DWORD PTR ___result$[ebp]
  0001b	e8 00 00 00 00	 call	 _memmove
  00020	83 c4 0c	 add	 esp, 12			; 0000000cH
  00023	03 c6		 add	 eax, esi
$L102953:
  00025	5e		 pop	 esi

; 151  : }

  00026	5d		 pop	 ebp
  00027	c3		 ret	 0
?__copy_trivial@_STL@@YAPAXPBX0PAX@Z ENDP		; _STL::__copy_trivial
_TEXT	ENDS
PUBLIC	?uninitialized_copy@_STL@@YAPADPBD0PAD@Z	; _STL::uninitialized_copy
; Function compile flags: /Ogsy
; File c:\stlport-4.6.1\stlport\stl\_uninitialized.h
;	COMDAT ?uninitialized_copy@_STL@@YAPADPBD0PAD@Z
_TEXT	SEGMENT
___first$ = 8						; size = 4
___last$ = 12						; size = 4
___result$ = 16						; size = 4
?uninitialized_copy@_STL@@YAPADPBD0PAD@Z PROC NEAR	; _STL::uninitialized_copy, COMDAT

; 84   :   return  (char*)__copy_trivial (__first, __last, __result);

  00000	e9 00 00 00 00	 jmp	 ?__copy_trivial@_STL@@YAPAXPBX0PAX@Z ; _STL::__copy_trivial
?uninitialized_copy@_STL@@YAPADPBD0PAD@Z ENDP		; _STL::uninitialized_copy
_TEXT	ENDS
PUBLIC	?m_pInstance@?$TSingleton@VBGMManager@@@@0PAVBGMManager@@A ; TSingleton<BGMManager>::m_pInstance
PUBLIC	??0?$TSingleton@VBGMManager@@@@QAE@XZ		; TSingleton<BGMManager>::TSingleton<BGMManager>
;	COMDAT ?m_pInstance@?$TSingleton@VBGMManager@@@@0PAVBGMManager@@A
; File c:\darkeden\designed_common\project\client\tsingleton.h
_BSS	SEGMENT
?m_pInstance@?$TSingleton@VBGMManager@@@@0PAVBGMManager@@A DD 01H DUP (?) ; TSingleton<BGMManager>::m_pInstance
; Function compile flags: /Ogsy
_BSS	ENDS
;	COMDAT ??0?$TSingleton@VBGMManager@@@@QAE@XZ
_TEXT	SEGMENT
??0?$TSingleton@VBGMManager@@@@QAE@XZ PROC NEAR		; TSingleton<BGMManager>::TSingleton<BGMManager>, COMDAT
; _this$ = ecx

; 13   : 	TSingleton()

  00000	8b c1		 mov	 eax, ecx

; 14   : 	{
; 15   : 		/*assert( !m_pInstance );*/
; 16   : 		int offset = (int)(T*)1-(int)(TSingleton<T>*)(T*)1;
; 17   : 		m_pInstance = (T*)((int)this + offset );

  00002	a3 00 00 00 00	 mov	 DWORD PTR ?m_pInstance@?$TSingleton@VBGMManager@@@@0PAVBGMManager@@A, eax ; TSingleton<BGMManager>::m_pInstance

; 18   : 	}

  00007	c3		 ret	 0
??0?$TSingleton@VBGMManager@@@@QAE@XZ ENDP		; TSingleton<BGMManager>::TSingleton<BGMManager>
_TEXT	ENDS
PUBLIC	??1?$TSingleton@VBGMManager@@@@QAE@XZ		; TSingleton<BGMManager>::~TSingleton<BGMManager>
; Function compile flags: /Ogsy
;	COMDAT ??1?$TSingleton@VBGMManager@@@@QAE@XZ
_TEXT	SEGMENT
??1?$TSingleton@VBGMManager@@@@QAE@XZ PROC NEAR		; TSingleton<BGMManager>::~TSingleton<BGMManager>, COMDAT
; _this$ = ecx

; 19   : 	~TSingleton() { /*assert( m_pInstance );*/ m_pInstance = 0; }

  00000	83 25 00 00 00
	00 00		 and	 DWORD PTR ?m_pInstance@?$TSingleton@VBGMManager@@@@0PAVBGMManager@@A, 0 ; TSingleton<BGMManager>::m_pInstance
  00007	c3		 ret	 0
??1?$TSingleton@VBGMManager@@@@QAE@XZ ENDP		; TSingleton<BGMManager>::~TSingleton<BGMManager>
_TEXT	ENDS
PUBLIC	?_M_terminate_string_aux@?$basic_string@DV?$char_traits@D@_STL@@V?$allocator@D@2@@_STL@@AAEXABU__true_type@2@@Z ; _STL::basic_string<char,_STL::char_traits<char>,_STL::allocator<char> >::_M_terminate_string_aux
; Function compile flags: /Ogsy
; File c:\stlport-4.6.1\stlport\stl\_string.h
;	COMDAT ?_M_terminate_string_aux@?$basic_string@DV?$char_traits@D@_STL@@V?$allocator@D@2@@_STL@@AAEXABU__true_type@2@@Z
_TEXT	SEGMENT
___formal$ = 8						; size = 4
?_M_terminate_string_aux@?$basic_string@DV?$char_traits@D@_STL@@V?$allocator@D@2@@_STL@@AAEXABU__true_type@2@@Z PROC NEAR ; _STL::basic_string<char,_STL::char_traits<char>,_STL::allocator<char> >::_M_terminate_string_aux, COMDAT
; _this$ = ecx

; 351  :     *(this->_M_finish)=0;

  00000	8b 41 04	 mov	 eax, DWORD PTR [ecx+4]
  00003	c6 00 00	 mov	 BYTE PTR [eax], 0

; 352  :   }

  00006	c2 04 00	 ret	 4
?_M_terminate_string_aux@?$basic_string@DV?$char_traits@D@_STL@@V?$allocator@D@2@@_STL@@AAEXABU__true_type@2@@Z ENDP ; _STL::basic_string<char,_STL::char_traits<char>,_STL::allocator<char> >::_M_terminate_string_aux
_TEXT	ENDS
PUBLIC	??0?$allocator@D@_STL@@QAE@ABV01@@Z		; _STL::allocator<char>::allocator<char>
; Function compile flags: /Ogsy
; File c:\stlport-4.6.1\stlport\stl\_alloc.h
;	COMDAT ??0?$allocator@D@_STL@@QAE@ABV01@@Z
_TEXT	SEGMENT
___formal$ = 8						; size = 4
??0?$allocator@D@_STL@@QAE@ABV01@@Z PROC NEAR		; _STL::allocator<char>::allocator<char>, COMDAT
; _this$ = ecx

; 349  :   allocator(const allocator<_Tp>&) _STLP_NOTHROW {}

  00000	8b c1		 mov	 eax, ecx
  00002	c2 04 00	 ret	 4
??0?$allocator@D@_STL@@QAE@ABV01@@Z ENDP		; _STL::allocator<char>::allocator<char>
_TEXT	ENDS
PUBLIC	?length@?$char_traits@D@_STL@@SAIPBD@Z		; _STL::char_traits<char>::length
EXTRN	_strlen:NEAR
; Function compile flags: /Ogsy
; File c:\stlport-4.6.1\stlport\stl\char_traits.h
;	COMDAT ?length@?$char_traits@D@_STL@@SAIPBD@Z
_TEXT	SEGMENT
___s$ = 8						; size = 4
?length@?$char_traits@D@_STL@@SAIPBD@Z PROC NEAR	; _STL::char_traits<char>::length, COMDAT

; 238  :   static size_t _STLP_CALL length(const char* __s) { return strlen(__s); }

  00000	e9 00 00 00 00	 jmp	 _strlen
?length@?$char_traits@D@_STL@@SAIPBD@Z ENDP		; _STL::char_traits<char>::length
_TEXT	ENDS
PUBLIC	?max_size@?$_String_base@DV?$allocator@D@_STL@@@_STL@@QBEIXZ ; _STL::_String_base<char,_STL::allocator<char> >::max_size
; Function compile flags: /Ogsy
; File c:\stlport-4.6.1\stlport\stl\_string.h
;	COMDAT ?max_size@?$_String_base@DV?$allocator@D@_STL@@@_STL@@QBEIXZ
_TEXT	SEGMENT
?max_size@?$_String_base@DV?$allocator@D@_STL@@@_STL@@QBEIXZ PROC NEAR ; _STL::_String_base<char,_STL::allocator<char> >::max_size, COMDAT
; _this$ = ecx

; 126  :   size_t max_size() const { return (size_t(-1) / sizeof(_Tp)) - 1; }

  00000	6a fe		 push	 -2			; fffffffeH
  00002	58		 pop	 eax
  00003	c3		 ret	 0
?max_size@?$_String_base@DV?$allocator@D@_STL@@@_STL@@QBEIXZ ENDP ; _STL::_String_base<char,_STL::allocator<char> >::max_size
_TEXT	ENDS
PUBLIC	??$__distance@PBD@_STL@@YAHABQBD0ABUrandom_access_iterator_tag@0@@Z ; _STL::__distance<char const *>
; Function compile flags: /Ogsy
; File c:\stlport-4.6.1\stlport\stl\_iterator_base.h
;	COMDAT ??$__distance@PBD@_STL@@YAHABQBD0ABUrandom_access_iterator_tag@0@@Z
_TEXT	SEGMENT
___first$ = 8						; size = 4
___last$ = 12						; size = 4
___formal$ = 16						; size = 4
??$__distance@PBD@_STL@@YAHABQBD0ABUrandom_access_iterator_tag@0@@Z PROC NEAR ; _STL::__distance<char const *>, COMDAT

; 363  :   return __last - __first;

  00000	8b 44 24 08	 mov	 eax, DWORD PTR ___last$[esp-4]
  00004	8b 00		 mov	 eax, DWORD PTR [eax]
  00006	8b 4c 24 04	 mov	 ecx, DWORD PTR ___first$[esp-4]
  0000a	2b 01		 sub	 eax, DWORD PTR [ecx]

; 364  : }

  0000c	c3		 ret	 0
??$__distance@PBD@_STL@@YAHABQBD0ABUrandom_access_iterator_tag@0@@Z ENDP ; _STL::__distance<char const *>
_TEXT	ENDS
PUBLIC	??_C@_0N@GOPDCEEB@basic_string?$AA@		; `string'
PUBLIC	?_M_throw_length_error@?$_String_base@DV?$allocator@D@_STL@@@_STL@@QBEXXZ ; _STL::_String_base<char,_STL::allocator<char> >::_M_throw_length_error
EXTRN	?__stl_throw_length_error@_STL@@YAXPBD@Z:NEAR	; _STL::__stl_throw_length_error
;	COMDAT ??_C@_0N@GOPDCEEB@basic_string?$AA@
; File c:\stlport-4.6.1\stlport\stl\_string.c
CONST	SEGMENT
??_C@_0N@GOPDCEEB@basic_string?$AA@ DB 'basic_string', 00H ; `string'
; Function compile flags: /Ogsy
CONST	ENDS
;	COMDAT ?_M_throw_length_error@?$_String_base@DV?$allocator@D@_STL@@@_STL@@QBEXXZ
_TEXT	SEGMENT
?_M_throw_length_error@?$_String_base@DV?$allocator@D@_STL@@@_STL@@QBEXXZ PROC NEAR ; _STL::_String_base<char,_STL::allocator<char> >::_M_throw_length_error, COMDAT
; _this$ = ecx

; 523  :     __stl_throw_length_error("basic_string");

  00000	68 00 00 00 00	 push	 OFFSET FLAT:??_C@_0N@GOPDCEEB@basic_string?$AA@
  00005	e8 00 00 00 00	 call	 ?__stl_throw_length_error@_STL@@YAXPBD@Z ; _STL::__stl_throw_length_error
  0000a	59		 pop	 ecx

; 524  : }

  0000b	c3		 ret	 0
?_M_throw_length_error@?$_String_base@DV?$allocator@D@_STL@@@_STL@@QBEXXZ ENDP ; _STL::_String_base<char,_STL::allocator<char> >::_M_throw_length_error
_TEXT	ENDS
PUBLIC	??0?$allocator@D@_STL@@QAE@XZ			; _STL::allocator<char>::allocator<char>
; Function compile flags: /Ogsy
; File c:\stlport-4.6.1\stlport\stl\_alloc.h
;	COMDAT ??0?$allocator@D@_STL@@QAE@XZ
_TEXT	SEGMENT
??0?$allocator@D@_STL@@QAE@XZ PROC NEAR			; _STL::allocator<char>::allocator<char>, COMDAT
; _this$ = ecx

; 345  :   allocator() _STLP_NOTHROW {}

  00000	8b c1		 mov	 eax, ecx
  00002	c3		 ret	 0
??0?$allocator@D@_STL@@QAE@XZ ENDP			; _STL::allocator<char>::allocator<char>
_TEXT	ENDS
PUBLIC	??1?$allocator@D@_STL@@QAE@XZ			; _STL::allocator<char>::~allocator<char>
; Function compile flags: /Ogsy
;	COMDAT ??1?$allocator@D@_STL@@QAE@XZ
_TEXT	SEGMENT
??1?$allocator@D@_STL@@QAE@XZ PROC NEAR			; _STL::allocator<char>::~allocator<char>, COMDAT
; _this$ = ecx

; 350  :   ~allocator() _STLP_NOTHROW {}

  00000	c3		 ret	 0
??1?$allocator@D@_STL@@QAE@XZ ENDP			; _STL::allocator<char>::~allocator<char>
_TEXT	ENDS
PUBLIC	??1?$_STLP_alloc_proxy@PADDV?$allocator@D@_STL@@@_STL@@QAE@XZ ; _STL::_STLP_alloc_proxy<char *,char,_STL::allocator<char> >::~_STLP_alloc_proxy<char *,char,_STL::allocator<char> >
; Function compile flags: /Ogsy
;	COMDAT ??1?$_STLP_alloc_proxy@PADDV?$allocator@D@_STL@@@_STL@@QAE@XZ
_TEXT	SEGMENT
??1?$_STLP_alloc_proxy@PADDV?$allocator@D@_STL@@@_STL@@QAE@XZ PROC NEAR ; _STL::_STLP_alloc_proxy<char *,char,_STL::allocator<char> >::~_STLP_alloc_proxy<char *,char,_STL::allocator<char> >, COMDAT
; _this$ = ecx
  00000	c3		 ret	 0
??1?$_STLP_alloc_proxy@PADDV?$allocator@D@_STL@@@_STL@@QAE@XZ ENDP ; _STL::_STLP_alloc_proxy<char *,char,_STL::allocator<char> >::~_STLP_alloc_proxy<char *,char,_STL::allocator<char> >
_TEXT	ENDS
PUBLIC	?allocate@?$__node_alloc@$00$0A@@_STL@@SAPAXI@Z	; _STL::__node_alloc<1,0>::allocate
EXTRN	?_M_allocate@?$__node_alloc@$00$0A@@_STL@@CAPAXI@Z:NEAR ; _STL::__node_alloc<1,0>::_M_allocate
; Function compile flags: /Ogsy
;	COMDAT ?allocate@?$__node_alloc@$00$0A@@_STL@@SAPAXI@Z
_TEXT	SEGMENT
___n$ = 8						; size = 4
?allocate@?$__node_alloc@$00$0A@@_STL@@SAPAXI@Z PROC NEAR ; _STL::__node_alloc<1,0>::allocate, COMDAT

; 251  :   static void * _STLP_CALL allocate(size_t __n) { return (__n > (size_t)_MAX_BYTES) ?  __stl_new(__n) : _M_allocate(__n); }

  00000	8b 44 24 04	 mov	 eax, DWORD PTR ___n$[esp-4]
  00004	3d 80 00 00 00	 cmp	 eax, 128		; 00000080H
  00009	50		 push	 eax
  0000a	76 07		 jbe	 SHORT $L102998
  0000c	e8 00 00 00 00	 call	 ??2@YAPAXI@Z		; operator new
  00011	59		 pop	 ecx
  00012	c3		 ret	 0
$L102998:
  00013	e8 00 00 00 00	 call	 ?_M_allocate@?$__node_alloc@$00$0A@@_STL@@CAPAXI@Z ; _STL::__node_alloc<1,0>::_M_allocate
  00018	59		 pop	 ecx
  00019	c3		 ret	 0
?allocate@?$__node_alloc@$00$0A@@_STL@@SAPAXI@Z ENDP	; _STL::__node_alloc<1,0>::allocate
_TEXT	ENDS
PUBLIC	?deallocate@?$__node_alloc@$00$0A@@_STL@@SAXPAXI@Z ; _STL::__node_alloc<1,0>::deallocate
EXTRN	?_M_deallocate@?$__node_alloc@$00$0A@@_STL@@CAXPAXI@Z:NEAR ; _STL::__node_alloc<1,0>::_M_deallocate
; Function compile flags: /Ogsy
;	COMDAT ?deallocate@?$__node_alloc@$00$0A@@_STL@@SAXPAXI@Z
_TEXT	SEGMENT
___p$ = 8						; size = 4
___n$ = 12						; size = 4
?deallocate@?$__node_alloc@$00$0A@@_STL@@SAXPAXI@Z PROC NEAR ; _STL::__node_alloc<1,0>::deallocate, COMDAT

; 253  :   static void _STLP_CALL deallocate(void *__p, size_t __n) { if (__n > (size_t)_MAX_BYTES) __stl_delete(__p); else _M_deallocate(__p, __n); }

  00000	81 7c 24 08 80
	00 00 00	 cmp	 DWORD PTR ___n$[esp-4], 128 ; 00000080H
  00008	76 0b		 jbe	 SHORT $L98677
  0000a	ff 74 24 04	 push	 DWORD PTR ___p$[esp-4]
  0000e	e8 00 00 00 00	 call	 ??3@YAXPAX@Z		; operator delete
  00013	59		 pop	 ecx
  00014	c3		 ret	 0
$L98677:
  00015	e9 00 00 00 00	 jmp	 ?_M_deallocate@?$__node_alloc@$00$0A@@_STL@@CAXPAXI@Z ; _STL::__node_alloc<1,0>::_M_deallocate
?deallocate@?$__node_alloc@$00$0A@@_STL@@SAXPAXI@Z ENDP	; _STL::__node_alloc<1,0>::deallocate
_TEXT	ENDS
PUBLIC	??0AutoLock@ACriticalSection@@QAE@AAV1@@Z	; ACriticalSection::AutoLock::AutoLock
; Function compile flags: /Ogsy
; File c:\darkeden\designed_common\project\client\acriticalsection.h
;	COMDAT ??0AutoLock@ACriticalSection@@QAE@AAV1@@Z
_TEXT	SEGMENT
_cs$ = 8						; size = 4
??0AutoLock@ACriticalSection@@QAE@AAV1@@Z PROC NEAR	; ACriticalSection::AutoLock::AutoLock, COMDAT
; _this$ = ecx

; 14   : 		{

  00000	8b 44 24 04	 mov	 eax, DWORD PTR _cs$[esp-4]
  00004	56		 push	 esi
  00005	8b f1		 mov	 esi, ecx

; 15   : 			m_cs.Lock();

  00007	50		 push	 eax
  00008	89 06		 mov	 DWORD PTR [esi], eax
  0000a	ff 15 00 00 00
	00		 call	 DWORD PTR __imp__EnterCriticalSection@4

; 16   : 		}

  00010	8b c6		 mov	 eax, esi
  00012	5e		 pop	 esi
  00013	c2 04 00	 ret	 4
??0AutoLock@ACriticalSection@@QAE@AAV1@@Z ENDP		; ACriticalSection::AutoLock::AutoLock
_TEXT	ENDS
PUBLIC	??1AutoLock@ACriticalSection@@QAE@XZ		; ACriticalSection::AutoLock::~AutoLock
; Function compile flags: /Ogsy
;	COMDAT ??1AutoLock@ACriticalSection@@QAE@XZ
_TEXT	SEGMENT
??1AutoLock@ACriticalSection@@QAE@XZ PROC NEAR		; ACriticalSection::AutoLock::~AutoLock, COMDAT
; _this$ = ecx

; 20   : 			m_cs.Unlock();

  00000	ff 31		 push	 DWORD PTR [ecx]
  00002	ff 15 00 00 00
	00		 call	 DWORD PTR __imp__LeaveCriticalSection@4

; 21   : 		}

  00008	c3		 ret	 0
??1AutoLock@ACriticalSection@@QAE@XZ ENDP		; ACriticalSection::AutoLock::~AutoLock
_TEXT	ENDS
PUBLIC	?MusicUpdateThreadProc@@YGIPAX@Z		; MusicUpdateThreadProc
EXTRN	__imp__Sleep@4:NEAR
EXTRN	?ServiceBuffer@VorbisSound@@QAEXXZ:NEAR		; VorbisSound::ServiceBuffer
EXTRN	__EH_prolog:NEAR
EXTRN	__except_list:DWORD
EXTRN	___CxxFrameHandler:NEAR
;	COMDAT xdata$x
xdata$x	SEGMENT
$T103065 DD	0ffffffffH
	DD	FLAT:$L103027
$T103057 DD	019930520H
	DD	01H
	DD	FLAT:$T103065
	DD	2 DUP(00H)
	DD	2 DUP(00H)
; Function compile flags: /Ogsy
; File c:\darkeden\designed_common\project\client\bgmmanager.cpp
xdata$x	ENDS
;	COMDAT ?MusicUpdateThreadProc@@YGIPAX@Z
_TEXT	SEGMENT
__$EHRec$ = -12						; size = 12
__syncVar$102183 = 8					; size = 4
_arg$ = 8						; size = 4
?MusicUpdateThreadProc@@YGIPAX@Z PROC NEAR		; MusicUpdateThreadProc, COMDAT

; 22   : {	

  00000	b8 00 00 00 00	 mov	 eax, __ehhandler$?MusicUpdateThreadProc@@YGIPAX@Z
  00005	e8 00 00 00 00	 call	 __EH_prolog
  0000a	53		 push	 ebx

; 23   : 	BGMManager *pBGMManager = static_cast<BGMManager*>(arg);
; 24   : 
; 25   : 	for(;;)
; 26   : 	{
; 27   : 		//50ms씩 슬리프
; 28   : 		Sleep(50);

  0000b	8b 1d 00 00 00
	00		 mov	 ebx, DWORD PTR __imp__Sleep@4
  00011	56		 push	 esi
  00012	6a 32		 push	 50			; 00000032H
  00014	ff d3		 call	 ebx

; 29   : 		
; 30   : 		// Thread를 끝낸다.
; 31   : 		if(!pBGMManager->IsInit())

  00016	8b 74 24 1c	 mov	 esi, DWORD PTR _arg$[esp+20]
  0001a	8a 46 10	 mov	 al, BYTE PTR [esi+16]
  0001d	84 c0		 test	 al, al
  0001f	74 4d		 je	 SHORT $L103060
  00021	55		 push	 ebp
  00022	57		 push	 edi
$L102180:

; 32   : 		{
; 33   : 			break;	
; 34   : 		}
; 35   : 
; 36   : 		synchronized(*pBGMManager->m_pMusicUpdateCS)

  00023	8b 3e		 mov	 edi, DWORD PTR [esi]
  00025	57		 push	 edi
  00026	89 7c 24 28	 mov	 DWORD PTR __syncVar$102183[esp+32], edi
  0002a	ff 15 00 00 00
	00		 call	 DWORD PTR __imp__EnterCriticalSection@4

; 37   : 		{
; 38   : 			VorbisSound* pVorbisSound = pBGMManager->m_pVorbisSound;

  00030	8b 4e 04	 mov	 ecx, DWORD PTR [esi+4]
  00033	83 64 24 18 00	 and	 DWORD PTR __$EHRec$[esp+36], 0

; 39   : 
; 40   : 			if(pVorbisSound)

  00038	85 c9		 test	 ecx, ecx
  0003a	74 1a		 je	 SHORT $L103061

; 41   : 			{
; 42   : 				//스트림이 초당 5번 업데이트되도록 정적 카운터를 사용한다.
; 43   : 				//더 사용하면 낭비가 된다.		
; 44   : 				if( ( pBGMManager->m_nStreamUpdateCount++ ) % 4 == 1 )

  0003c	8b 46 0c	 mov	 eax, DWORD PTR [esi+12]
  0003f	99		 cdq
  00040	6a 04		 push	 4
  00042	5d		 pop	 ebp
  00043	f7 fd		 idiv	 ebp
  00045	8b 46 0c	 mov	 eax, DWORD PTR [esi+12]
  00048	40		 inc	 eax
  00049	89 46 0c	 mov	 DWORD PTR [esi+12], eax
  0004c	83 fa 01	 cmp	 edx, 1
  0004f	75 05		 jne	 SHORT $L103061

; 45   : 				{			
; 46   : 					pBGMManager->m_pVorbisSound->ServiceBuffer();

  00051	e8 00 00 00 00	 call	 ?ServiceBuffer@VorbisSound@@QAEXXZ ; VorbisSound::ServiceBuffer
$L103061:

; 47   : 				}
; 48   : 			}
; 49   : 		}

  00056	83 4c 24 18 ff	 or	 DWORD PTR __$EHRec$[esp+36], -1
  0005b	57		 push	 edi
  0005c	ff 15 00 00 00
	00		 call	 DWORD PTR __imp__LeaveCriticalSection@4
  00062	6a 32		 push	 50			; 00000032H
  00064	ff d3		 call	 ebx
  00066	80 7e 10 00	 cmp	 BYTE PTR [esi+16], 0
  0006a	75 b7		 jne	 SHORT $L102180
  0006c	5f		 pop	 edi
  0006d	5d		 pop	 ebp
$L103060:

; 50   : 	}	
; 51   : 	
; 52   : 	return 0;
; 53   : }

  0006e	8b 4c 24 08	 mov	 ecx, DWORD PTR __$EHRec$[esp+20]
  00072	5e		 pop	 esi
  00073	33 c0		 xor	 eax, eax
  00075	5b		 pop	 ebx
  00076	64 89 0d 00 00
	00 00		 mov	 DWORD PTR fs:__except_list, ecx
  0007d	c9		 leave
  0007e	c2 04 00	 ret	 4
_TEXT	ENDS
;	COMDAT text$x
text$x	SEGMENT
$L103027:
  00000	8d 4d 08	 lea	 ecx, DWORD PTR __syncVar$102183[ebp]
  00003	e9 00 00 00 00	 jmp	 ??1AutoLock@ACriticalSection@@QAE@XZ ; ACriticalSection::AutoLock::~AutoLock
__ehhandler$?MusicUpdateThreadProc@@YGIPAX@Z:
  00008	b8 00 00 00 00	 mov	 eax, OFFSET FLAT:$T103057
  0000d	e9 00 00 00 00	 jmp	 ___CxxFrameHandler
text$x	ENDS
?MusicUpdateThreadProc@@YGIPAX@Z ENDP			; MusicUpdateThreadProc
PUBLIC	??0BGMManager@@QAE@XZ				; BGMManager::BGMManager
; Function compile flags: /Ogsy
;	COMDAT ??0BGMManager@@QAE@XZ
_TEXT	SEGMENT
??0BGMManager@@QAE@XZ PROC NEAR				; BGMManager::BGMManager, COMDAT
; _this$ = ecx

; 57   : {

  00000	8b c1		 mov	 eax, ecx

; 58   : 	m_pMusicUpdateCS		= NULL;

  00002	33 c9		 xor	 ecx, ecx
  00004	a3 00 00 00 00	 mov	 DWORD PTR ?m_pInstance@?$TSingleton@VBGMManager@@@@0PAVBGMManager@@A, eax ; TSingleton<BGMManager>::m_pInstance
  00009	89 08		 mov	 DWORD PTR [eax], ecx

; 59   : 	m_pVorbisSound			= NULL;

  0000b	89 48 04	 mov	 DWORD PTR [eax+4], ecx

; 60   : 	m_hUpdateThread			= NULL;

  0000e	89 48 08	 mov	 DWORD PTR [eax+8], ecx

; 61   : 
; 62   : 	m_nStreamUpdateCount	= 0;

  00011	89 48 0c	 mov	 DWORD PTR [eax+12], ecx

; 63   : 	m_bInit					= false;

  00014	88 48 10	 mov	 BYTE PTR [eax+16], cl

; 64   : }

  00017	c3		 ret	 0
??0BGMManager@@QAE@XZ ENDP				; BGMManager::BGMManager
_TEXT	ENDS
PUBLIC	?Destory@BGMManager@@QAE_NXZ			; BGMManager::Destory
EXTRN	__imp__CloseHandle@4:NEAR
EXTRN	?Stop@VorbisSound@@QAE_NXZ:NEAR			; VorbisSound::Stop
EXTRN	__imp__TerminateThread@8:NEAR
EXTRN	__imp__WaitForSingleObject@8:NEAR
; Function compile flags: /Ogsy
;	COMDAT ?Destory@BGMManager@@QAE_NXZ
_TEXT	SEGMENT
?Destory@BGMManager@@QAE_NXZ PROC NEAR			; BGMManager::Destory, COMDAT
; _this$ = ecx

; 100  : {

  00000	53		 push	 ebx
  00001	56		 push	 esi
  00002	8b f1		 mov	 esi, ecx

; 101  : 	// 일단 배경음악 중지하고 시작하자
; 102  : 	if(m_pVorbisSound)

  00004	8b 4e 04	 mov	 ecx, DWORD PTR [esi+4]
  00007	33 db		 xor	 ebx, ebx
  00009	3b cb		 cmp	 ecx, ebx
  0000b	74 05		 je	 SHORT $L102213

; 103  : 	{
; 104  : 		m_pVorbisSound->Stop();

  0000d	e8 00 00 00 00	 call	 ?Stop@VorbisSound@@QAE_NXZ ; VorbisSound::Stop
$L102213:

; 105  : 	}
; 106  : 
; 107  : 	//--------------------------------------------
; 108  : 	// thread 중지
; 109  : 	//--------------------------------------------
; 110  : 	m_bInit = false;
; 111  : 
; 112  : 	if(m_hUpdateThread)

  00012	8b 46 08	 mov	 eax, DWORD PTR [esi+8]
  00015	3b c3		 cmp	 eax, ebx
  00017	88 5e 10	 mov	 BYTE PTR [esi+16], bl
  0001a	74 29		 je	 SHORT $L102214

; 113  : 	{
; 114  : 		// Thread가 끝나기를 3초간 기다려준다.
; 115  : 		if(WaitForSingleObject(m_hUpdateThread, 3000) == WAIT_TIMEOUT)

  0001c	68 b8 0b 00 00	 push	 3000			; 00000bb8H
  00021	50		 push	 eax
  00022	ff 15 00 00 00
	00		 call	 DWORD PTR __imp__WaitForSingleObject@8
  00028	3d 02 01 00 00	 cmp	 eax, 258		; 00000102H
  0002d	75 0a		 jne	 SHORT $L102215

; 116  : 		{
; 117  : 			// 3초나 기다렸는데 안끝나면 걍 죽인다. -_-;
; 118  : 			TerminateThread(m_hUpdateThread, 0);

  0002f	53		 push	 ebx
  00030	ff 76 08	 push	 DWORD PTR [esi+8]
  00033	ff 15 00 00 00
	00		 call	 DWORD PTR __imp__TerminateThread@8
$L102215:

; 119  : 		}
; 120  : 
; 121  : 		CloseHandle(m_hUpdateThread);

  00039	ff 76 08	 push	 DWORD PTR [esi+8]
  0003c	ff 15 00 00 00
	00		 call	 DWORD PTR __imp__CloseHandle@4

; 122  : 
; 123  : 		m_hUpdateThread = NULL;

  00042	89 5e 08	 mov	 DWORD PTR [esi+8], ebx
$L102214:
  00045	57		 push	 edi

; 124  : 	}
; 125  : 
; 126  : 	SAFE_DELETE(m_pVorbisSound);

  00046	8b 7e 04	 mov	 edi, DWORD PTR [esi+4]
  00049	3b fb		 cmp	 edi, ebx
  0004b	74 11		 je	 SHORT $L102216
  0004d	8b cf		 mov	 ecx, edi
  0004f	e8 00 00 00 00	 call	 ??1VorbisSound@@QAE@XZ	; VorbisSound::~VorbisSound
  00054	57		 push	 edi
  00055	e8 00 00 00 00	 call	 ??3@YAXPAX@Z		; operator delete
  0005a	59		 pop	 ecx
  0005b	89 5e 04	 mov	 DWORD PTR [esi+4], ebx
$L102216:

; 127  : 	SAFE_DELETE(m_pMusicUpdateCS);

  0005e	8b 0e		 mov	 ecx, DWORD PTR [esi]
  00060	3b cb		 cmp	 ecx, ebx
  00062	5f		 pop	 edi
  00063	74 09		 je	 SHORT $L102219
  00065	6a 01		 push	 1
  00067	e8 00 00 00 00	 call	 ??_GACriticalSection@@QAEPAXI@Z
  0006c	89 1e		 mov	 DWORD PTR [esi], ebx
$L102219:
  0006e	5e		 pop	 esi

; 128  : 
; 129  : 	return true;

  0006f	b0 01		 mov	 al, 1
  00071	5b		 pop	 ebx

; 130  : }

  00072	c3		 ret	 0
?Destory@BGMManager@@QAE_NXZ ENDP			; BGMManager::Destory
_TEXT	ENDS
PUBLIC	?StopMusic@BGMManager@@QAE_NXZ			; BGMManager::StopMusic
;	COMDAT xdata$x
; File c:\darkeden\designed_common\project\client\acriticalsection.h
xdata$x	SEGMENT
$T103121 DD	0ffffffffH
	DD	FLAT:$L103095
$T103119 DD	019930520H
	DD	01H
	DD	FLAT:$T103121
	DD	2 DUP(00H)
	DD	2 DUP(00H)
; Function compile flags: /Ogsy
; File c:\darkeden\designed_common\project\client\bgmmanager.cpp
xdata$x	ENDS
;	COMDAT ?StopMusic@BGMManager@@QAE_NXZ
_TEXT	SEGMENT
__syncVar$102251 = -16					; size = 4
__$EHRec$ = -12						; size = 12
?StopMusic@BGMManager@@QAE_NXZ PROC NEAR		; BGMManager::StopMusic, COMDAT
; _this$ = ecx

; 161  : {

  00000	b8 00 00 00 00	 mov	 eax, __ehhandler$?StopMusic@BGMManager@@QAE_NXZ
  00005	e8 00 00 00 00	 call	 __EH_prolog
  0000a	51		 push	 ecx
  0000b	56		 push	 esi
  0000c	8b f1		 mov	 esi, ecx

; 162  : 	if(!m_pVorbisSound)

  0000e	83 7e 04 00	 cmp	 DWORD PTR [esi+4], 0
  00012	75 04		 jne	 SHORT $L102249

; 163  : 	{
; 164  : 		assert("BGMManager::StopMusic() : vorbis sound not init" && FALSE);
; 165  : 		return false;

  00014	32 c0		 xor	 al, al
  00016	eb 23		 jmp	 SHORT $L102248
$L102249:
  00018	57		 push	 edi

; 166  : 	}
; 167  : 
; 168  : 	synchronized(*m_pMusicUpdateCS)

  00019	8b 3e		 mov	 edi, DWORD PTR [esi]
  0001b	57		 push	 edi
  0001c	89 7d f0	 mov	 DWORD PTR __syncVar$102251[ebp], edi
  0001f	ff 15 00 00 00
	00		 call	 DWORD PTR __imp__EnterCriticalSection@4

; 169  : 	{
; 170  : 		m_pVorbisSound->Stop();

  00025	8b 4e 04	 mov	 ecx, DWORD PTR [esi+4]
  00028	83 65 fc 00	 and	 DWORD PTR __$EHRec$[ebp+8], 0
  0002c	e8 00 00 00 00	 call	 ?Stop@VorbisSound@@QAE_NXZ ; VorbisSound::Stop

; 171  : 	}

  00031	57		 push	 edi
  00032	ff 15 00 00 00
	00		 call	 DWORD PTR __imp__LeaveCriticalSection@4

; 172  : 
; 173  : 	return true;

  00038	b0 01		 mov	 al, 1
  0003a	5f		 pop	 edi
$L102248:

; 174  : }

  0003b	8b 4d f4	 mov	 ecx, DWORD PTR __$EHRec$[ebp]
  0003e	5e		 pop	 esi
  0003f	64 89 0d 00 00
	00 00		 mov	 DWORD PTR fs:__except_list, ecx
  00046	c9		 leave
  00047	c3		 ret	 0
_TEXT	ENDS
;	COMDAT text$x
text$x	SEGMENT
$L103095:
  00000	8d 4d f0	 lea	 ecx, DWORD PTR __syncVar$102251[ebp]
  00003	e9 00 00 00 00	 jmp	 ??1AutoLock@ACriticalSection@@QAE@XZ ; ACriticalSection::AutoLock::~AutoLock
__ehhandler$?StopMusic@BGMManager@@QAE_NXZ:
  00008	b8 00 00 00 00	 mov	 eax, OFFSET FLAT:$T103119
  0000d	e9 00 00 00 00	 jmp	 ___CxxFrameHandler
text$x	ENDS
?StopMusic@BGMManager@@QAE_NXZ ENDP			; BGMManager::StopMusic
PUBLIC	?SetVolume@BGMManager@@QAEXH@Z			; BGMManager::SetVolume
EXTRN	?SetVolume@VorbisSound@@QAE_NH@Z:NEAR		; VorbisSound::SetVolume
;	COMDAT xdata$x
; File c:\darkeden\designed_common\project\client\acriticalsection.h
xdata$x	SEGMENT
$T103152 DD	0ffffffffH
	DD	FLAT:$L103126
$T103150 DD	019930520H
	DD	01H
	DD	FLAT:$T103152
	DD	2 DUP(00H)
	DD	2 DUP(00H)
; Function compile flags: /Ogsy
; File c:\darkeden\designed_common\project\client\bgmmanager.cpp
xdata$x	ENDS
;	COMDAT ?SetVolume@BGMManager@@QAEXH@Z
_TEXT	SEGMENT
__syncVar$102260 = -16					; size = 4
__$EHRec$ = -12						; size = 12
_volume$ = 8						; size = 4
?SetVolume@BGMManager@@QAEXH@Z PROC NEAR		; BGMManager::SetVolume, COMDAT
; _this$ = ecx

; 178  : {

  00000	b8 00 00 00 00	 mov	 eax, __ehhandler$?SetVolume@BGMManager@@QAEXH@Z
  00005	e8 00 00 00 00	 call	 __EH_prolog
  0000a	51		 push	 ecx
  0000b	56		 push	 esi
  0000c	8b f1		 mov	 esi, ecx

; 179  : 	if(!m_pVorbisSound)

  0000e	83 7e 04 00	 cmp	 DWORD PTR [esi+4], 0
  00012	74 24		 je	 SHORT $L102257
  00014	57		 push	 edi

; 180  : 	{
; 181  : 		assert("BGMManager::SetVolume() : vorbis sound not init" && FALSE);
; 182  : 		return;
; 183  : 	}
; 184  : 
; 185  : 	synchronized(*m_pMusicUpdateCS)

  00015	8b 3e		 mov	 edi, DWORD PTR [esi]
  00017	57		 push	 edi
  00018	89 7d f0	 mov	 DWORD PTR __syncVar$102260[ebp], edi
  0001b	ff 15 00 00 00
	00		 call	 DWORD PTR __imp__EnterCriticalSection@4

; 186  : 	{
; 187  : 		m_pVorbisSound->SetVolume(volume);

  00021	ff 75 08	 push	 DWORD PTR _volume$[ebp]
  00024	8b 4e 04	 mov	 ecx, DWORD PTR [esi+4]
  00027	83 65 fc 00	 and	 DWORD PTR __$EHRec$[ebp+8], 0
  0002b	e8 00 00 00 00	 call	 ?SetVolume@VorbisSound@@QAE_NH@Z ; VorbisSound::SetVolume

; 188  : 	}

  00030	57		 push	 edi
  00031	ff 15 00 00 00
	00		 call	 DWORD PTR __imp__LeaveCriticalSection@4
  00037	5f		 pop	 edi
$L102257:

; 189  : }

  00038	8b 4d f4	 mov	 ecx, DWORD PTR __$EHRec$[ebp]
  0003b	5e		 pop	 esi
  0003c	64 89 0d 00 00
	00 00		 mov	 DWORD PTR fs:__except_list, ecx
  00043	c9		 leave
  00044	c2 04 00	 ret	 4
_TEXT	ENDS
;	COMDAT text$x
text$x	SEGMENT
$L103126:
  00000	8d 4d f0	 lea	 ecx, DWORD PTR __syncVar$102260[ebp]
  00003	e9 00 00 00 00	 jmp	 ??1AutoLock@ACriticalSection@@QAE@XZ ; ACriticalSection::AutoLock::~AutoLock
__ehhandler$?SetVolume@BGMManager@@QAEXH@Z:
  00008	b8 00 00 00 00	 mov	 eax, OFFSET FLAT:$T103150
  0000d	e9 00 00 00 00	 jmp	 ___CxxFrameHandler
text$x	ENDS
?SetVolume@BGMManager@@QAEXH@Z ENDP			; BGMManager::SetVolume
PUBLIC	?GetVolume@BGMManager@@QAEHXZ			; BGMManager::GetVolume
EXTRN	?GetVolume@VorbisSound@@QAEHXZ:NEAR		; VorbisSound::GetVolume
;	COMDAT xdata$x
; File c:\darkeden\designed_common\project\client\acriticalsection.h
xdata$x	SEGMENT
$T103193 DD	0ffffffffH
	DD	FLAT:$L103158
$T103191 DD	019930520H
	DD	01H
	DD	FLAT:$T103193
	DD	2 DUP(00H)
	DD	2 DUP(00H)
; Function compile flags: /Ogsy
; File c:\darkeden\designed_common\project\client\bgmmanager.cpp
xdata$x	ENDS
;	COMDAT ?GetVolume@BGMManager@@QAEHXZ
_TEXT	SEGMENT
__syncVar$102268 = -16					; size = 4
__$EHRec$ = -12						; size = 12
?GetVolume@BGMManager@@QAEHXZ PROC NEAR			; BGMManager::GetVolume, COMDAT
; _this$ = ecx

; 193  : {

  00000	b8 00 00 00 00	 mov	 eax, __ehhandler$?GetVolume@BGMManager@@QAEHXZ
  00005	e8 00 00 00 00	 call	 __EH_prolog
  0000a	51		 push	 ecx
  0000b	56		 push	 esi
  0000c	8b f1		 mov	 esi, ecx

; 194  : 	if(!m_pVorbisSound)

  0000e	83 7e 04 00	 cmp	 DWORD PTR [esi+4], 0
  00012	75 05		 jne	 SHORT $L102266

; 195  : 	{
; 196  : 		assert("BGMManager::GetVolume() : vorbis sound not init" && FALSE);
; 197  : 		return -1;

  00014	83 c8 ff	 or	 eax, -1
  00017	eb 25		 jmp	 SHORT $L102265
$L102266:
  00019	57		 push	 edi

; 198  : 	}
; 199  : 
; 200  : 	synchronized(*m_pMusicUpdateCS)

  0001a	8b 3e		 mov	 edi, DWORD PTR [esi]
  0001c	57		 push	 edi
  0001d	89 7d f0	 mov	 DWORD PTR __syncVar$102268[ebp], edi
  00020	ff 15 00 00 00
	00		 call	 DWORD PTR __imp__EnterCriticalSection@4

; 201  : 	{
; 202  : 		return m_pVorbisSound->GetVolume();

  00026	8b 4e 04	 mov	 ecx, DWORD PTR [esi+4]
  00029	83 65 fc 00	 and	 DWORD PTR __$EHRec$[ebp+8], 0
  0002d	e8 00 00 00 00	 call	 ?GetVolume@VorbisSound@@QAEHXZ ; VorbisSound::GetVolume
  00032	57		 push	 edi
  00033	8b f0		 mov	 esi, eax
  00035	ff 15 00 00 00
	00		 call	 DWORD PTR __imp__LeaveCriticalSection@4
  0003b	8b c6		 mov	 eax, esi
  0003d	5f		 pop	 edi
$L102265:

; 203  : 	}
; 204  : 
; 205  : 	return -1;
; 206  : }

  0003e	8b 4d f4	 mov	 ecx, DWORD PTR __$EHRec$[ebp]
  00041	5e		 pop	 esi
  00042	64 89 0d 00 00
	00 00		 mov	 DWORD PTR fs:__except_list, ecx
  00049	c9		 leave
  0004a	c3		 ret	 0
_TEXT	ENDS
;	COMDAT text$x
text$x	SEGMENT
$L103158:
  00000	8d 4d f0	 lea	 ecx, DWORD PTR __syncVar$102268[ebp]
  00003	e9 00 00 00 00	 jmp	 ??1AutoLock@ACriticalSection@@QAE@XZ ; ACriticalSection::AutoLock::~AutoLock
__ehhandler$?GetVolume@BGMManager@@QAEHXZ:
  00008	b8 00 00 00 00	 mov	 eax, OFFSET FLAT:$T103191
  0000d	e9 00 00 00 00	 jmp	 ___CxxFrameHandler
text$x	ENDS
?GetVolume@BGMManager@@QAEHXZ ENDP			; BGMManager::GetVolume
PUBLIC	?_M_terminate_string@?$basic_string@DV?$char_traits@D@_STL@@V?$allocator@D@2@@_STL@@AAEXXZ ; _STL::basic_string<char,_STL::char_traits<char>,_STL::allocator<char> >::_M_terminate_string
; Function compile flags: /Ogsy
; File c:\stlport-4.6.1\stlport\stl\_string.h
;	COMDAT ?_M_terminate_string@?$basic_string@DV?$char_traits@D@_STL@@V?$allocator@D@2@@_STL@@AAEXXZ
_TEXT	SEGMENT
?_M_terminate_string@?$basic_string@DV?$char_traits@D@_STL@@V?$allocator@D@2@@_STL@@AAEXXZ PROC NEAR ; _STL::basic_string<char,_STL::char_traits<char>,_STL::allocator<char> >::_M_terminate_string, COMDAT
; _this$ = ecx

; 355  :     _M_terminate_string_aux(_Char_Is_Integral());

  00000	8b 41 04	 mov	 eax, DWORD PTR [ecx+4]
  00003	c6 00 00	 mov	 BYTE PTR [eax], 0

; 356  :   }

  00006	c3		 ret	 0
?_M_terminate_string@?$basic_string@DV?$char_traits@D@_STL@@V?$allocator@D@2@@_STL@@AAEXXZ ENDP ; _STL::basic_string<char,_STL::char_traits<char>,_STL::allocator<char> >::_M_terminate_string
_TEXT	ENDS
PUBLIC	?allocate@?$allocator@D@_STL@@QAEPADIPBX@Z	; _STL::allocator<char>::allocate
; Function compile flags: /Ogsy
; File c:\stlport-4.6.1\stlport\stl\_alloc.h
;	COMDAT ?allocate@?$allocator@D@_STL@@QAEPADIPBX@Z
_TEXT	SEGMENT
___n$ = 8						; size = 4
___formal$ = 12						; size = 4
?allocate@?$allocator@D@_STL@@QAEPADIPBX@Z PROC NEAR	; _STL::allocator<char>::allocate, COMDAT
; _this$ = ecx

; 355  :     return __n != 0 ? __REINTERPRET_CAST(value_type*,__sgi_alloc::allocate(__n * sizeof(value_type))) : 0;

  00000	33 c0		 xor	 eax, eax
  00002	39 44 24 04	 cmp	 DWORD PTR ___n$[esp-4], eax
  00006	74 0a		 je	 SHORT $L103206
  00008	ff 74 24 04	 push	 DWORD PTR ___n$[esp-4]
  0000c	e8 00 00 00 00	 call	 ?allocate@?$__node_alloc@$00$0A@@_STL@@SAPAXI@Z ; _STL::__node_alloc<1,0>::allocate
  00011	59		 pop	 ecx
$L103206:

; 356  :   }

  00012	c2 08 00	 ret	 8
?allocate@?$allocator@D@_STL@@QAEPADIPBX@Z ENDP		; _STL::allocator<char>::allocate
_TEXT	ENDS
PUBLIC	??0?$_STLP_alloc_proxy@PADDV?$allocator@D@_STL@@@_STL@@QAE@ABV?$allocator@D@1@PAD@Z ; _STL::_STLP_alloc_proxy<char *,char,_STL::allocator<char> >::_STLP_alloc_proxy<char *,char,_STL::allocator<char> >
; Function compile flags: /Ogsy
;	COMDAT ??0?$_STLP_alloc_proxy@PADDV?$allocator@D@_STL@@@_STL@@QAE@ABV?$allocator@D@1@PAD@Z
_TEXT	SEGMENT
___a$ = 8						; size = 4
___p$ = 12						; size = 4
??0?$_STLP_alloc_proxy@PADDV?$allocator@D@_STL@@@_STL@@QAE@ABV?$allocator@D@1@PAD@Z PROC NEAR ; _STL::_STLP_alloc_proxy<char *,char,_STL::allocator<char> >::_STLP_alloc_proxy<char *,char,_STL::allocator<char> >, COMDAT
; _this$ = ecx

; 487  :   inline _STLP_alloc_proxy(const _MaybeReboundAlloc& __a, _Value __p) : _MaybeReboundAlloc(__a), _M_data(__p) {}

  00000	8b c1		 mov	 eax, ecx
  00002	8b 4c 24 08	 mov	 ecx, DWORD PTR ___p$[esp-4]
  00006	89 08		 mov	 DWORD PTR [eax], ecx
  00008	c2 08 00	 ret	 8
??0?$_STLP_alloc_proxy@PADDV?$allocator@D@_STL@@@_STL@@QAE@ABV?$allocator@D@1@PAD@Z ENDP ; _STL::_STLP_alloc_proxy<char *,char,_STL::allocator<char> >::_STLP_alloc_proxy<char *,char,_STL::allocator<char> >
_TEXT	ENDS
PUBLIC	??$distance@PBD@_STL@@YAHABQBD0@Z		; _STL::distance<char const *>
; Function compile flags: /Ogsy
; File c:\stlport-4.6.1\stlport\stl\_iterator_base.h
;	COMDAT ??$distance@PBD@_STL@@YAHABQBD0@Z
_TEXT	SEGMENT
___first$ = 8						; size = 4
___last$ = 12						; size = 4
??$distance@PBD@_STL@@YAHABQBD0@Z PROC NEAR		; _STL::distance<char const *>, COMDAT

; 369  :   return __distance(__first, __last, _STLP_ITERATOR_CATEGORY(__first, _InputIterator));  

  00000	8b 44 24 08	 mov	 eax, DWORD PTR ___last$[esp-4]
  00004	8b 00		 mov	 eax, DWORD PTR [eax]
  00006	8b 4c 24 04	 mov	 ecx, DWORD PTR ___first$[esp-4]
  0000a	2b 01		 sub	 eax, DWORD PTR [ecx]

; 370  : }

  0000c	c3		 ret	 0
??$distance@PBD@_STL@@YAHABQBD0@Z ENDP			; _STL::distance<char const *>
_TEXT	ENDS
PUBLIC	?_M_allocate_block@?$_String_base@DV?$allocator@D@_STL@@@_STL@@QAEXI@Z ; _STL::_String_base<char,_STL::allocator<char> >::_M_allocate_block
; Function compile flags: /Ogsy
; File c:\stlport-4.6.1\stlport\stl\_string.c
;	COMDAT ?_M_allocate_block@?$_String_base@DV?$allocator@D@_STL@@@_STL@@QAEXI@Z
_TEXT	SEGMENT
___n$ = 8						; size = 4
?_M_allocate_block@?$_String_base@DV?$allocator@D@_STL@@@_STL@@QAEXI@Z PROC NEAR ; _STL::_String_base<char,_STL::allocator<char> >::_M_allocate_block, COMDAT
; _this$ = ecx

; 530  : template <class _Tp, class _Alloc> void _String_base<_Tp, _Alloc>::_M_allocate_block(size_t __n) {  

  00000	56		 push	 esi
  00001	57		 push	 edi

; 531  :   if ((__n <= (max_size()+1)) && (__n>0)){ 

  00002	8b 7c 24 0c	 mov	 edi, DWORD PTR ___n$[esp+4]
  00006	83 ff ff	 cmp	 edi, -1
  00009	8b f1		 mov	 esi, ecx
  0000b	77 17		 ja	 SHORT $L102592
  0000d	85 ff		 test	 edi, edi
  0000f	76 13		 jbe	 SHORT $L102592

; 532  :     _M_start  = _M_end_of_storage.allocate(__n); 

  00011	57		 push	 edi
  00012	e8 00 00 00 00	 call	 ?allocate@?$__node_alloc@$00$0A@@_STL@@SAPAXI@Z ; _STL::__node_alloc<1,0>::allocate
  00017	89 06		 mov	 DWORD PTR [esi], eax

; 533  :     _M_finish = _M_start; 

  00019	89 46 04	 mov	 DWORD PTR [esi+4], eax

; 534  :     _M_end_of_storage._M_data = _M_start + __n; 

  0001c	03 c7		 add	 eax, edi
  0001e	59		 pop	 ecx
  0001f	89 46 08	 mov	 DWORD PTR [esi+8], eax

; 535  :   } 
; 536  :     else 

  00022	eb 07		 jmp	 SHORT $L102593
$L102592:

; 537  :       _M_throw_length_error(); 

  00024	8b ce		 mov	 ecx, esi
  00026	e8 00 00 00 00	 call	 ?_M_throw_length_error@?$_String_base@DV?$allocator@D@_STL@@@_STL@@QBEXXZ ; _STL::_String_base<char,_STL::allocator<char> >::_M_throw_length_error
$L102593:
  0002b	5f		 pop	 edi
  0002c	5e		 pop	 esi

; 538  : } 

  0002d	c2 04 00	 ret	 4
?_M_allocate_block@?$_String_base@DV?$allocator@D@_STL@@@_STL@@QAEXI@Z ENDP ; _STL::_String_base<char,_STL::allocator<char> >::_M_allocate_block
_TEXT	ENDS
PUBLIC	?deallocate@?$allocator@D@_STL@@QAEXPADI@Z	; _STL::allocator<char>::deallocate
; Function compile flags: /Ogsy
; File c:\stlport-4.6.1\stlport\stl\_alloc.h
;	COMDAT ?deallocate@?$allocator@D@_STL@@QAEXPADI@Z
_TEXT	SEGMENT
___p$ = 8						; size = 4
___n$ = 12						; size = 4
?deallocate@?$allocator@D@_STL@@QAEXPADI@Z PROC NEAR	; _STL::allocator<char>::deallocate, COMDAT
; _this$ = ecx

; 359  :     _STLP_ASSERT( (__p == 0) == (__n == 0) )
; 360  :       if (__p != 0) __sgi_alloc::deallocate((void*)__p, __n * sizeof(value_type));

  00000	83 7c 24 04 00	 cmp	 DWORD PTR ___p$[esp-4], 0
  00005	74 0f		 je	 SHORT $L98663
  00007	ff 74 24 08	 push	 DWORD PTR ___n$[esp-4]
  0000b	ff 74 24 08	 push	 DWORD PTR ___p$[esp]
  0000f	e8 00 00 00 00	 call	 ?deallocate@?$__node_alloc@$00$0A@@_STL@@SAXPAXI@Z ; _STL::__node_alloc<1,0>::deallocate
  00014	59		 pop	 ecx
  00015	59		 pop	 ecx
$L98663:

; 361  :   }

  00016	c2 08 00	 ret	 8
?deallocate@?$allocator@D@_STL@@QAEXPADI@Z ENDP		; _STL::allocator<char>::deallocate
_TEXT	ENDS
PUBLIC	??1BGMManager@@QAE@XZ				; BGMManager::~BGMManager
;	COMDAT xdata$x
; File c:\darkeden\designed_common\project\client\tsingleton.h
xdata$x	SEGMENT
$T103243 DD	0ffffffffH
	DD	FLAT:$L103236
$T103241 DD	019930520H
	DD	01H
	DD	FLAT:$T103243
	DD	2 DUP(00H)
	DD	2 DUP(00H)
; Function compile flags: /Ogsy
; File c:\darkeden\designed_common\project\client\bgmmanager.cpp
xdata$x	ENDS
;	COMDAT ??1BGMManager@@QAE@XZ
_TEXT	SEGMENT
_this$ = -16						; size = 4
__$EHRec$ = -12						; size = 12
??1BGMManager@@QAE@XZ PROC NEAR				; BGMManager::~BGMManager, COMDAT
; _this$ = ecx

; 68   : {

  00000	b8 00 00 00 00	 mov	 eax, __ehhandler$??1BGMManager@@QAE@XZ
  00005	e8 00 00 00 00	 call	 __EH_prolog
  0000a	51		 push	 ecx
  0000b	89 4d f0	 mov	 DWORD PTR _this$[ebp], ecx
  0000e	83 65 fc 00	 and	 DWORD PTR __$EHRec$[ebp+8], 0

; 69   : 	Destory();

  00012	e8 00 00 00 00	 call	 ?Destory@BGMManager@@QAE_NXZ ; BGMManager::Destory

; 70   : }

  00017	8b 4d f4	 mov	 ecx, DWORD PTR __$EHRec$[ebp]
  0001a	83 25 00 00 00
	00 00		 and	 DWORD PTR ?m_pInstance@?$TSingleton@VBGMManager@@@@0PAVBGMManager@@A, 0 ; TSingleton<BGMManager>::m_pInstance
  00021	64 89 0d 00 00
	00 00		 mov	 DWORD PTR fs:__except_list, ecx
  00028	c9		 leave
  00029	c3		 ret	 0
_TEXT	ENDS
;	COMDAT text$x
text$x	SEGMENT
$L103236:
  00000	8b 4d f0	 mov	 ecx, DWORD PTR _this$[ebp]
  00003	e9 00 00 00 00	 jmp	 ??1?$TSingleton@VBGMManager@@@@QAE@XZ ; TSingleton<BGMManager>::~TSingleton<BGMManager>
__ehhandler$??1BGMManager@@QAE@XZ:
  00008	b8 00 00 00 00	 mov	 eax, OFFSET FLAT:$T103241
  0000d	e9 00 00 00 00	 jmp	 ___CxxFrameHandler
text$x	ENDS
??1BGMManager@@QAE@XZ ENDP				; BGMManager::~BGMManager
PUBLIC	?Init@BGMManager@@QAE_NPAUIDirectSound@@@Z	; BGMManager::Init
EXTRN	??0VorbisSound@@QAE@XZ:NEAR			; VorbisSound::VorbisSound
EXTRN	?Init@VorbisSound@@QAEXPAUIDirectSound@@@Z:NEAR	; VorbisSound::Init
EXTRN	__beginthreadex:NEAR
EXTRN	__imp__SetThreadPriority@8:NEAR
;	COMDAT xdata$x
; File c:\darkeden\designed_common\project\client\acriticalsection.h
xdata$x	SEGMENT
$T103264 DD	0ffffffffH
	DD	FLAT:$L103257
$T103262 DD	019930520H
	DD	01H
	DD	FLAT:$T103264
	DD	2 DUP(00H)
	DD	2 DUP(00H)
; Function compile flags: /Ogsy
; File c:\darkeden\designed_common\project\client\bgmmanager.cpp
xdata$x	ENDS
;	COMDAT ?Init@BGMManager@@QAE_NPAUIDirectSound@@@Z
_TEXT	SEGMENT
_dwChildThreadID$ = -20					; size = 4
$T103253 = -16						; size = 4
__$EHRec$ = -12						; size = 12
_directSound$ = 8					; size = 4
?Init@BGMManager@@QAE_NPAUIDirectSound@@@Z PROC NEAR	; BGMManager::Init, COMDAT
; _this$ = ecx

; 74   : {

  00000	b8 00 00 00 00	 mov	 eax, __ehhandler$?Init@BGMManager@@QAE_NPAUIDirectSound@@@Z
  00005	e8 00 00 00 00	 call	 __EH_prolog
  0000a	51		 push	 ecx
  0000b	51		 push	 ecx
  0000c	53		 push	 ebx
  0000d	56		 push	 esi
  0000e	57		 push	 edi
  0000f	8b f1		 mov	 esi, ecx

; 75   : 	Destory();

  00011	e8 00 00 00 00	 call	 ?Destory@BGMManager@@QAE_NXZ ; BGMManager::Destory

; 76   : 
; 77   : 	m_pMusicUpdateCS	= new ACriticalSection;

  00016	6a 18		 push	 24			; 00000018H
  00018	e8 00 00 00 00	 call	 ??2@YAPAXI@Z		; operator new
  0001d	8b d8		 mov	 ebx, eax
  0001f	33 ff		 xor	 edi, edi
  00021	3b df		 cmp	 ebx, edi
  00023	59		 pop	 ecx
  00024	74 0b		 je	 SHORT $L103250
  00026	53		 push	 ebx
  00027	ff 15 00 00 00
	00		 call	 DWORD PTR __imp__InitializeCriticalSection@4
  0002d	8b c3		 mov	 eax, ebx
  0002f	eb 02		 jmp	 SHORT $L103251
$L103250:
  00031	33 c0		 xor	 eax, eax
$L103251:

; 78   : 	m_pVorbisSound		= new VorbisSound;

  00033	6a 50		 push	 80			; 00000050H
  00035	89 06		 mov	 DWORD PTR [esi], eax
  00037	e8 00 00 00 00	 call	 ??2@YAPAXI@Z		; operator new
  0003c	59		 pop	 ecx
  0003d	8b c8		 mov	 ecx, eax
  0003f	89 4d f0	 mov	 DWORD PTR $T103253[ebp], ecx
  00042	3b cf		 cmp	 ecx, edi
  00044	89 7d fc	 mov	 DWORD PTR __$EHRec$[ebp+8], edi
  00047	74 07		 je	 SHORT $L103254
  00049	e8 00 00 00 00	 call	 ??0VorbisSound@@QAE@XZ	; VorbisSound::VorbisSound
  0004e	eb 02		 jmp	 SHORT $L103255
$L103254:
  00050	33 c0		 xor	 eax, eax
$L103255:

; 79   : 	m_pVorbisSound->Init(directSound);

  00052	ff 75 08	 push	 DWORD PTR _directSound$[ebp]
  00055	83 4d fc ff	 or	 DWORD PTR __$EHRec$[ebp+8], -1
  00059	8b c8		 mov	 ecx, eax
  0005b	89 46 04	 mov	 DWORD PTR [esi+4], eax
  0005e	e8 00 00 00 00	 call	 ?Init@VorbisSound@@QAEXPAUIDirectSound@@@Z ; VorbisSound::Init

; 80   : 
; 81   : 	DWORD	dwChildThreadID;
; 82   : 
; 83   : 	m_hUpdateThread = (HANDLE)_beginthreadex(NULL,
; 84   : 											0,
; 85   : 											MusicUpdateThreadProc,
; 86   : 											this,
; 87   : 											0,
; 88   : 											(unsigned int *)&dwChildThreadID);

  00063	8d 45 ec	 lea	 eax, DWORD PTR _dwChildThreadID$[ebp]
  00066	50		 push	 eax
  00067	57		 push	 edi
  00068	56		 push	 esi
  00069	68 00 00 00 00	 push	 OFFSET FLAT:?MusicUpdateThreadProc@@YGIPAX@Z ; MusicUpdateThreadProc
  0006e	57		 push	 edi
  0006f	57		 push	 edi
  00070	e8 00 00 00 00	 call	 __beginthreadex
  00075	83 c4 18	 add	 esp, 24			; 00000018H

; 89   : 
; 90   : 	SetThreadPriority(m_hUpdateThread, THREAD_PRIORITY_BELOW_NORMAL);

  00078	6a ff		 push	 -1
  0007a	50		 push	 eax
  0007b	89 46 08	 mov	 DWORD PTR [esi+8], eax
  0007e	ff 15 00 00 00
	00		 call	 DWORD PTR __imp__SetThreadPriority@8

; 91   : 
; 92   : 	m_nStreamUpdateCount = 0;
; 93   : 	m_bInit	= true;
; 94   : 
; 95   : 	return true;
; 96   : }

  00084	8b 4d f4	 mov	 ecx, DWORD PTR __$EHRec$[ebp]
  00087	89 7e 0c	 mov	 DWORD PTR [esi+12], edi
  0008a	5f		 pop	 edi
  0008b	c6 46 10 01	 mov	 BYTE PTR [esi+16], 1
  0008f	5e		 pop	 esi
  00090	b0 01		 mov	 al, 1
  00092	5b		 pop	 ebx
  00093	64 89 0d 00 00
	00 00		 mov	 DWORD PTR fs:__except_list, ecx
  0009a	c9		 leave
  0009b	c2 04 00	 ret	 4
_TEXT	ENDS
;	COMDAT text$x
text$x	SEGMENT
$L103257:
  00000	ff 75 f0	 push	 DWORD PTR $T103253[ebp]
  00003	e8 00 00 00 00	 call	 ??3@YAXPAX@Z		; operator delete
  00008	59		 pop	 ecx
  00009	c3		 ret	 0
__ehhandler$?Init@BGMManager@@QAE_NPAUIDirectSound@@@Z:
  0000a	b8 00 00 00 00	 mov	 eax, OFFSET FLAT:$T103262
  0000f	e9 00 00 00 00	 jmp	 ___CxxFrameHandler
text$x	ENDS
?Init@BGMManager@@QAE_NPAUIDirectSound@@@Z ENDP		; BGMManager::Init
PUBLIC	??0?$_String_base@DV?$allocator@D@_STL@@@_STL@@QAE@ABV?$allocator@D@1@@Z ; _STL::_String_base<char,_STL::allocator<char> >::_String_base<char,_STL::allocator<char> >
; Function compile flags: /Ogsy
; File c:\stlport-4.6.1\stlport\stl\_string.h
;	COMDAT ??0?$_String_base@DV?$allocator@D@_STL@@@_STL@@QAE@ABV?$allocator@D@1@@Z
_TEXT	SEGMENT
___a$ = 8						; size = 4
??0?$_String_base@DV?$allocator@D@_STL@@@_STL@@QAE@ABV?$allocator@D@1@@Z PROC NEAR ; _STL::_String_base<char,_STL::allocator<char> >::_String_base<char,_STL::allocator<char> >, COMDAT
; _this$ = ecx

; 129  :     : _M_start(0), _M_finish(0), _M_end_of_storage(__a, (_Tp*)0) {}

  00000	56		 push	 esi
  00001	33 c0		 xor	 eax, eax
  00003	8b f1		 mov	 esi, ecx
  00005	50		 push	 eax
  00006	ff 74 24 0c	 push	 DWORD PTR ___a$[esp+4]
  0000a	8d 4e 08	 lea	 ecx, DWORD PTR [esi+8]
  0000d	89 06		 mov	 DWORD PTR [esi], eax
  0000f	89 46 04	 mov	 DWORD PTR [esi+4], eax
  00012	e8 00 00 00 00	 call	 ??0?$_STLP_alloc_proxy@PADDV?$allocator@D@_STL@@@_STL@@QAE@ABV?$allocator@D@1@PAD@Z ; _STL::_STLP_alloc_proxy<char *,char,_STL::allocator<char> >::_STLP_alloc_proxy<char *,char,_STL::allocator<char> >
  00017	8b c6		 mov	 eax, esi
  00019	5e		 pop	 esi
  0001a	c2 04 00	 ret	 4
??0?$_String_base@DV?$allocator@D@_STL@@@_STL@@QAE@ABV?$allocator@D@1@@Z ENDP ; _STL::_String_base<char,_STL::allocator<char> >::_String_base<char,_STL::allocator<char> >
_TEXT	ENDS
PUBLIC	??$_M_range_initialize@PBD@?$basic_string@DV?$char_traits@D@_STL@@V?$allocator@D@2@@_STL@@AAEXPBD0ABUforward_iterator_tag@1@@Z ; _STL::basic_string<char,_STL::char_traits<char>,_STL::allocator<char> >::_M_range_initialize<char const *>
; Function compile flags: /Ogsy
;	COMDAT ??$_M_range_initialize@PBD@?$basic_string@DV?$char_traits@D@_STL@@V?$allocator@D@2@@_STL@@AAEXPBD0ABUforward_iterator_tag@1@@Z
_TEXT	SEGMENT
___f$ = 8						; size = 4
___l$ = 12						; size = 4
___formal$ = 16						; size = 4
??$_M_range_initialize@PBD@?$basic_string@DV?$char_traits@D@_STL@@V?$allocator@D@2@@_STL@@AAEXPBD0ABUforward_iterator_tag@1@@Z PROC NEAR ; _STL::basic_string<char,_STL::char_traits<char>,_STL::allocator<char> >::_M_range_initialize<char const *>, COMDAT
; _this$ = ecx

; 383  :                            const forward_iterator_tag &) {
; 384  :     difference_type __n = distance(__f, __l);
; 385  :     this->_M_allocate_block(__n + 1);

  00000	8b 44 24 08	 mov	 eax, DWORD PTR ___l$[esp-4]
  00004	2b 44 24 04	 sub	 eax, DWORD PTR ___f$[esp-4]
  00008	56		 push	 esi
  00009	40		 inc	 eax
  0000a	50		 push	 eax
  0000b	8b f1		 mov	 esi, ecx
  0000d	e8 00 00 00 00	 call	 ?_M_allocate_block@?$_String_base@DV?$allocator@D@_STL@@@_STL@@QAEXI@Z ; _STL::_String_base<char,_STL::allocator<char> >::_M_allocate_block

; 386  :     this->_M_finish = uninitialized_copy(__f, __l, this->_M_start);

  00012	ff 36		 push	 DWORD PTR [esi]
  00014	ff 74 24 10	 push	 DWORD PTR ___l$[esp+4]
  00018	ff 74 24 10	 push	 DWORD PTR ___f$[esp+8]
  0001c	e8 00 00 00 00	 call	 ?__copy_trivial@_STL@@YAPAXPBX0PAX@Z ; _STL::__copy_trivial
  00021	83 c4 0c	 add	 esp, 12			; 0000000cH
  00024	89 46 04	 mov	 DWORD PTR [esi+4], eax

; 387  :     _M_terminate_string();

  00027	c6 00 00	 mov	 BYTE PTR [eax], 0
  0002a	5e		 pop	 esi

; 388  :   }

  0002b	c2 0c 00	 ret	 12			; 0000000cH
??$_M_range_initialize@PBD@?$basic_string@DV?$char_traits@D@_STL@@V?$allocator@D@2@@_STL@@AAEXPBD0ABUforward_iterator_tag@1@@Z ENDP ; _STL::basic_string<char,_STL::char_traits<char>,_STL::allocator<char> >::_M_range_initialize<char const *>
_TEXT	ENDS
PUBLIC	?_M_deallocate_block@?$_String_base@DV?$allocator@D@_STL@@@_STL@@QAEXXZ ; _STL::_String_base<char,_STL::allocator<char> >::_M_deallocate_block
; Function compile flags: /Ogsy
;	COMDAT ?_M_deallocate_block@?$_String_base@DV?$allocator@D@_STL@@@_STL@@QAEXXZ
_TEXT	SEGMENT
?_M_deallocate_block@?$_String_base@DV?$allocator@D@_STL@@@_STL@@QAEXXZ PROC NEAR ; _STL::_String_base<char,_STL::allocator<char> >::_M_deallocate_block, COMDAT
; _this$ = ecx

; 124  :     { _M_end_of_storage.deallocate(_M_start, _M_end_of_storage._M_data - _M_start); }

  00000	8b c1		 mov	 eax, ecx
  00002	8d 48 08	 lea	 ecx, DWORD PTR [eax+8]
  00005	8b 00		 mov	 eax, DWORD PTR [eax]
  00007	8b 11		 mov	 edx, DWORD PTR [ecx]
  00009	2b d0		 sub	 edx, eax
  0000b	52		 push	 edx
  0000c	50		 push	 eax
  0000d	e8 00 00 00 00	 call	 ?deallocate@?$allocator@D@_STL@@QAEXPADI@Z ; _STL::allocator<char>::deallocate
  00012	c3		 ret	 0
?_M_deallocate_block@?$_String_base@DV?$allocator@D@_STL@@@_STL@@QAEXXZ ENDP ; _STL::_String_base<char,_STL::allocator<char> >::_M_deallocate_block
_TEXT	ENDS
PUBLIC	??$_M_range_initialize@PBD@?$basic_string@DV?$char_traits@D@_STL@@V?$allocator@D@2@@_STL@@AAEXPBD0@Z ; _STL::basic_string<char,_STL::char_traits<char>,_STL::allocator<char> >::_M_range_initialize<char const *>
; Function compile flags: /Ogsy
;	COMDAT ??$_M_range_initialize@PBD@?$basic_string@DV?$char_traits@D@_STL@@V?$allocator@D@2@@_STL@@AAEXPBD0@Z
_TEXT	SEGMENT
___f$ = 8						; size = 4
___l$ = 12						; size = 4
$T103304 = 15						; size = 1
??$_M_range_initialize@PBD@?$basic_string@DV?$char_traits@D@_STL@@V?$allocator@D@2@@_STL@@AAEXPBD0@Z PROC NEAR ; _STL::basic_string<char,_STL::char_traits<char>,_STL::allocator<char> >::_M_range_initialize<char const *>, COMDAT
; _this$ = ecx

; 390  :   template <class _InputIter> void _M_range_initialize(_InputIter __f, _InputIter __l) {

  00000	55		 push	 ebp
  00001	8b ec		 mov	 ebp, esp

; 391  :     _M_range_initialize(__f, __l, _STLP_ITERATOR_CATEGORY(__f, _InputIter));

  00003	8d 45 0f	 lea	 eax, DWORD PTR $T103304[ebp]
  00006	50		 push	 eax
  00007	ff 75 0c	 push	 DWORD PTR ___l$[ebp]
  0000a	ff 75 08	 push	 DWORD PTR ___f$[ebp]
  0000d	e8 00 00 00 00	 call	 ??$_M_range_initialize@PBD@?$basic_string@DV?$char_traits@D@_STL@@V?$allocator@D@2@@_STL@@AAEXPBD0ABUforward_iterator_tag@1@@Z ; _STL::basic_string<char,_STL::char_traits<char>,_STL::allocator<char> >::_M_range_initialize<char const *>

; 392  :   }

  00012	5d		 pop	 ebp
  00013	c2 08 00	 ret	 8
??$_M_range_initialize@PBD@?$basic_string@DV?$char_traits@D@_STL@@V?$allocator@D@2@@_STL@@AAEXPBD0@Z ENDP ; _STL::basic_string<char,_STL::char_traits<char>,_STL::allocator<char> >::_M_range_initialize<char const *>
_TEXT	ENDS
PUBLIC	??1?$_String_base@DV?$allocator@D@_STL@@@_STL@@QAE@XZ ; _STL::_String_base<char,_STL::allocator<char> >::~_String_base<char,_STL::allocator<char> >
; Function compile flags: /Ogsy
;	COMDAT ??1?$_String_base@DV?$allocator@D@_STL@@@_STL@@QAE@XZ
_TEXT	SEGMENT
??1?$_String_base@DV?$allocator@D@_STL@@@_STL@@QAE@XZ PROC NEAR ; _STL::_String_base<char,_STL::allocator<char> >::~_String_base<char,_STL::allocator<char> >, COMDAT
; _this$ = ecx

; 135  :   ~_String_base() { _M_deallocate_block(); }

  00000	e9 00 00 00 00	 jmp	 ?_M_deallocate_block@?$_String_base@DV?$allocator@D@_STL@@@_STL@@QAEXXZ ; _STL::_String_base<char,_STL::allocator<char> >::_M_deallocate_block
??1?$_String_base@DV?$allocator@D@_STL@@@_STL@@QAE@XZ ENDP ; _STL::_String_base<char,_STL::allocator<char> >::~_String_base<char,_STL::allocator<char> >
_TEXT	ENDS
PUBLIC	??0?$basic_string@DV?$char_traits@D@_STL@@V?$allocator@D@2@@_STL@@QAE@PBDABV?$allocator@D@1@@Z ; _STL::basic_string<char,_STL::char_traits<char>,_STL::allocator<char> >::basic_string<char,_STL::char_traits<char>,_STL::allocator<char> >
;	COMDAT xdata$x
xdata$x	SEGMENT
$T103323 DD	0ffffffffH
	DD	FLAT:$L103310
$T103321 DD	019930520H
	DD	01H
	DD	FLAT:$T103323
	DD	2 DUP(00H)
	DD	2 DUP(00H)
; Function compile flags: /Ogsy
; File c:\stlport-4.6.1\stlport\stl\_string.c
xdata$x	ENDS
;	COMDAT ??0?$basic_string@DV?$char_traits@D@_STL@@V?$allocator@D@2@@_STL@@QAE@PBDABV?$allocator@D@1@@Z
_TEXT	SEGMENT
_this$ = -16						; size = 4
__$EHRec$ = -12						; size = 12
___s$ = 8						; size = 4
$T103317 = 11						; size = 1
___a$ = 12						; size = 4
??0?$basic_string@DV?$char_traits@D@_STL@@V?$allocator@D@2@@_STL@@QAE@PBDABV?$allocator@D@1@@Z PROC NEAR ; _STL::basic_string<char,_STL::char_traits<char>,_STL::allocator<char> >::basic_string<char,_STL::char_traits<char>,_STL::allocator<char> >, COMDAT
; _this$ = ecx

; 552  : { 

  00000	b8 00 00 00 00	 mov	 eax, __ehhandler$??0?$basic_string@DV?$char_traits@D@_STL@@V?$allocator@D@2@@_STL@@QAE@PBDABV?$allocator@D@1@@Z
  00005	e8 00 00 00 00	 call	 __EH_prolog
  0000a	51		 push	 ecx
  0000b	56		 push	 esi
  0000c	ff 75 0c	 push	 DWORD PTR ___a$[ebp]
  0000f	8b f1		 mov	 esi, ecx
  00011	89 75 f0	 mov	 DWORD PTR _this$[ebp], esi
  00014	e8 00 00 00 00	 call	 ??0?$_String_base@DV?$allocator@D@_STL@@@_STL@@QAE@ABV?$allocator@D@1@@Z ; _STL::_String_base<char,_STL::allocator<char> >::_String_base<char,_STL::allocator<char> >

; 553  :   _STLP_FIX_LITERAL_BUG(__s) 
; 554  :     _M_range_initialize(__s, __s + traits_type::length(__s));  

  00019	ff 75 08	 push	 DWORD PTR ___s$[ebp]
  0001c	83 65 fc 00	 and	 DWORD PTR __$EHRec$[ebp+8], 0
  00020	e8 00 00 00 00	 call	 _strlen
  00025	03 45 08	 add	 eax, DWORD PTR ___s$[ebp]
  00028	59		 pop	 ecx
  00029	8d 4d 0b	 lea	 ecx, DWORD PTR $T103317[ebp]
  0002c	51		 push	 ecx
  0002d	50		 push	 eax
  0002e	ff 75 08	 push	 DWORD PTR ___s$[ebp]
  00031	8b ce		 mov	 ecx, esi
  00033	e8 00 00 00 00	 call	 ??$_M_range_initialize@PBD@?$basic_string@DV?$char_traits@D@_STL@@V?$allocator@D@2@@_STL@@AAEXPBD0ABUforward_iterator_tag@1@@Z ; _STL::basic_string<char,_STL::char_traits<char>,_STL::allocator<char> >::_M_range_initialize<char const *>

; 555  : } 

  00038	8b 4d f4	 mov	 ecx, DWORD PTR __$EHRec$[ebp]
  0003b	8b c6		 mov	 eax, esi
  0003d	5e		 pop	 esi
  0003e	64 89 0d 00 00
	00 00		 mov	 DWORD PTR fs:__except_list, ecx
  00045	c9		 leave
  00046	c2 08 00	 ret	 8
_TEXT	ENDS
;	COMDAT text$x
text$x	SEGMENT
$L103310:
  00000	8b 4d f0	 mov	 ecx, DWORD PTR _this$[ebp]
  00003	e9 00 00 00 00	 jmp	 ??1?$_String_base@DV?$allocator@D@_STL@@@_STL@@QAE@XZ ; _STL::_String_base<char,_STL::allocator<char> >::~_String_base<char,_STL::allocator<char> >
__ehhandler$??0?$basic_string@DV?$char_traits@D@_STL@@V?$allocator@D@2@@_STL@@QAE@PBDABV?$allocator@D@1@@Z:
  00008	b8 00 00 00 00	 mov	 eax, OFFSET FLAT:$T103321
  0000d	e9 00 00 00 00	 jmp	 ___CxxFrameHandler
text$x	ENDS
??0?$basic_string@DV?$char_traits@D@_STL@@V?$allocator@D@2@@_STL@@QAE@PBDABV?$allocator@D@1@@Z ENDP ; _STL::basic_string<char,_STL::char_traits<char>,_STL::allocator<char> >::basic_string<char,_STL::char_traits<char>,_STL::allocator<char> >
PUBLIC	??1?$basic_string@DV?$char_traits@D@_STL@@V?$allocator@D@2@@_STL@@QAE@XZ ; _STL::basic_string<char,_STL::char_traits<char>,_STL::allocator<char> >::~basic_string<char,_STL::char_traits<char>,_STL::allocator<char> >
; Function compile flags: /Ogsy
; File c:\stlport-4.6.1\stlport\stl\_string.h
;	COMDAT ??1?$basic_string@DV?$char_traits@D@_STL@@V?$allocator@D@2@@_STL@@QAE@XZ
_TEXT	SEGMENT
??1?$basic_string@DV?$char_traits@D@_STL@@V?$allocator@D@2@@_STL@@QAE@XZ PROC NEAR ; _STL::basic_string<char,_STL::char_traits<char>,_STL::allocator<char> >::~basic_string<char,_STL::char_traits<char>,_STL::allocator<char> >, COMDAT
; _this$ = ecx

; 305  :   ~basic_string() { _STLP_STD::_Destroy(this->_M_start, this->_M_finish + 1); }

  00000	e9 00 00 00 00	 jmp	 ?_M_deallocate_block@?$_String_base@DV?$allocator@D@_STL@@@_STL@@QAEXXZ ; _STL::_String_base<char,_STL::allocator<char> >::_M_deallocate_block
??1?$basic_string@DV?$char_traits@D@_STL@@V?$allocator@D@2@@_STL@@QAE@XZ ENDP ; _STL::basic_string<char,_STL::char_traits<char>,_STL::allocator<char> >::~basic_string<char,_STL::char_traits<char>,_STL::allocator<char> >
_TEXT	ENDS
PUBLIC	?PlayMusic@BGMManager@@QAE_NPBD@Z		; BGMManager::PlayMusic
EXTRN	?Open@VorbisSound@@QAE_NV?$basic_string@DV?$char_traits@D@_STL@@V?$allocator@D@2@@_STL@@@Z:NEAR ; VorbisSound::Open
EXTRN	?Play@VorbisSound@@QAE_NXZ:NEAR			; VorbisSound::Play
;	COMDAT xdata$x
; File c:\darkeden\designed_common\project\client\acriticalsection.h
xdata$x	SEGMENT
$T103408 DD	0ffffffffH
	DD	FLAT:$L103355
$T103404 DD	019930520H
	DD	01H
	DD	FLAT:$T103408
	DD	2 DUP(00H)
	DD	2 DUP(00H)
; Function compile flags: /Ogsy
; File c:\darkeden\designed_common\project\client\bgmmanager.cpp
xdata$x	ENDS
;	COMDAT ?PlayMusic@BGMManager@@QAE_NPBD@Z
_TEXT	SEGMENT
$T103351 = -20						; size = 4
__syncVar$102236 = -16					; size = 4
__$EHRec$ = -12						; size = 12
_fileName$ = 8						; size = 4
$T103352 = 11						; size = 1
?PlayMusic@BGMManager@@QAE_NPBD@Z PROC NEAR		; BGMManager::PlayMusic, COMDAT
; _this$ = ecx

; 134  : {

  00000	b8 00 00 00 00	 mov	 eax, __ehhandler$?PlayMusic@BGMManager@@QAE_NPBD@Z
  00005	e8 00 00 00 00	 call	 __EH_prolog
  0000a	51		 push	 ecx
  0000b	51		 push	 ecx
  0000c	53		 push	 ebx
  0000d	56		 push	 esi
  0000e	8b f1		 mov	 esi, ecx

; 135  : 	if(!m_pVorbisSound)

  00010	33 db		 xor	 ebx, ebx
  00012	39 5e 04	 cmp	 DWORD PTR [esi+4], ebx
  00015	57		 push	 edi
  00016	75 04		 jne	 SHORT $L102234

; 136  : 	{
; 137  : 		assert("BGMManager::PlayMusic() : vorbis sound not init" && FALSE);
; 138  : 		return false;

  00018	32 c0		 xor	 al, al
  0001a	eb 4e		 jmp	 SHORT $L102233
$L102234:

; 139  : 	}
; 140  : 
; 141  : 	synchronized(*m_pMusicUpdateCS)

  0001c	8b 3e		 mov	 edi, DWORD PTR [esi]
  0001e	57		 push	 edi
  0001f	89 7d f0	 mov	 DWORD PTR __syncVar$102236[ebp], edi
  00022	ff 15 00 00 00
	00		 call	 DWORD PTR __imp__EnterCriticalSection@4

; 142  : 	{
; 143  : 		m_pVorbisSound->Stop();

  00028	8b 4e 04	 mov	 ecx, DWORD PTR [esi+4]
  0002b	89 5d fc	 mov	 DWORD PTR __$EHRec$[ebp+8], ebx
  0002e	e8 00 00 00 00	 call	 ?Stop@VorbisSound@@QAE_NXZ ; VorbisSound::Stop

; 144  : 		
; 145  : 		if(!m_pVorbisSound->Open(fileName))

  00033	83 ec 0c	 sub	 esp, 12			; 0000000cH
  00036	8b cc		 mov	 ecx, esp
  00038	89 65 ec	 mov	 DWORD PTR $T103351[ebp], esp
  0003b	8d 45 0b	 lea	 eax, DWORD PTR $T103352[ebp]
  0003e	50		 push	 eax
  0003f	ff 75 08	 push	 DWORD PTR _fileName$[ebp]
  00042	e8 00 00 00 00	 call	 ??0?$basic_string@DV?$char_traits@D@_STL@@V?$allocator@D@2@@_STL@@QAE@PBDABV?$allocator@D@1@@Z ; _STL::basic_string<char,_STL::char_traits<char>,_STL::allocator<char> >::basic_string<char,_STL::char_traits<char>,_STL::allocator<char> >
  00047	8b 4e 04	 mov	 ecx, DWORD PTR [esi+4]
  0004a	e8 00 00 00 00	 call	 ?Open@VorbisSound@@QAE_NV?$basic_string@DV?$char_traits@D@_STL@@V?$allocator@D@2@@_STL@@@Z ; VorbisSound::Open
  0004f	3a c3		 cmp	 al, bl
  00051	74 0e		 je	 SHORT $L103405

; 146  : 		{
; 147  : 			return false;
; 148  : 		}
; 149  : 		
; 150  : 		if(!m_pVorbisSound->Play())

  00053	8b 4e 04	 mov	 ecx, DWORD PTR [esi+4]
  00056	e8 00 00 00 00	 call	 ?Play@VorbisSound@@QAE_NXZ ; VorbisSound::Play
  0005b	84 c0		 test	 al, al
  0005d	74 02		 je	 SHORT $L103405
  0005f	b3 01		 mov	 bl, 1
$L103405:

; 151  : 		{
; 152  : 			return false;
; 153  : 		}
; 154  : 	}

  00061	57		 push	 edi
  00062	ff 15 00 00 00
	00		 call	 DWORD PTR __imp__LeaveCriticalSection@4

; 155  : 
; 156  : 	return true;

  00068	8a c3		 mov	 al, bl
$L102233:

; 157  : }

  0006a	8b 4d f4	 mov	 ecx, DWORD PTR __$EHRec$[ebp]
  0006d	5f		 pop	 edi
  0006e	5e		 pop	 esi
  0006f	64 89 0d 00 00
	00 00		 mov	 DWORD PTR fs:__except_list, ecx
  00076	5b		 pop	 ebx
  00077	c9		 leave
  00078	c2 04 00	 ret	 4
_TEXT	ENDS
;	COMDAT text$x
text$x	SEGMENT
$L103355:
  00000	8d 4d f0	 lea	 ecx, DWORD PTR __syncVar$102236[ebp]
  00003	e9 00 00 00 00	 jmp	 ??1AutoLock@ACriticalSection@@QAE@XZ ; ACriticalSection::AutoLock::~AutoLock
__ehhandler$?PlayMusic@BGMManager@@QAE_NPBD@Z:
  00008	b8 00 00 00 00	 mov	 eax, OFFSET FLAT:$T103404
  0000d	e9 00 00 00 00	 jmp	 ___CxxFrameHandler
text$x	ENDS
?PlayMusic@BGMManager@@QAE_NPBD@Z ENDP			; BGMManager::PlayMusic
EXTRN	_atexit:NEAR
CRT$XCU	SEGMENT
_$S81	DD	FLAT:_$E79
; Function compile flags: /Ogsy
CRT$XCU	ENDS
;	COMDAT _$E79
text$yc	SEGMENT
_$E79	PROC NEAR					; COMDAT

; 17   : 	BGMManager s_BGMManager;

  00000	b9 00 00 00 00	 mov	 ecx, OFFSET FLAT:?s_BGMManager@?A0x702794e3@@3VBGMManager@@A
  00005	e8 00 00 00 00	 call	 ??0BGMManager@@QAE@XZ	; BGMManager::BGMManager
  0000a	68 00 00 00 00	 push	 OFFSET FLAT:_$E80
  0000f	e8 00 00 00 00	 call	 _atexit
  00014	59		 pop	 ecx
  00015	c3		 ret	 0
_$E79	ENDP
; Function compile flags: /Ogsy
text$yc	ENDS
;	COMDAT _$E80
text$yd	SEGMENT
_$E80	PROC NEAR					; COMDAT
  00000	b9 00 00 00 00	 mov	 ecx, OFFSET FLAT:?s_BGMManager@?A0x702794e3@@3VBGMManager@@A
  00005	e9 00 00 00 00	 jmp	 ??1BGMManager@@QAE@XZ	; BGMManager::~BGMManager
_$E80	ENDP
text$yd	ENDS
PUBLIC	?s_BGMManager@?A0x702794e3@@3VBGMManager@@A	; `anonymous namespace'::s_BGMManager
_BSS	SEGMENT
?s_BGMManager@?A0x702794e3@@3VBGMManager@@A DB 014H DUP (?) ; `anonymous namespace'::s_BGMManager
_BSS	ENDS
END
