; Listing generated by Microsoft (R) Optimizing Compiler Version 13.10.3077 

	TITLE	\darkeden\Designed_Common\Project\Client\SpriteLib\CAlphaSprite.cpp
	.386P
include listing.inc
if @Version gt 510
.model FLAT
else
_TEXT	SEGMENT PARA USE32 PUBLIC 'CODE'
_TEXT	ENDS
_DATA	SEGMENT DWORD USE32 PUBLIC 'DATA'
_DATA	ENDS
CONST	SEGMENT DWORD USE32 PUBLIC 'CONST'
CONST	ENDS
_BSS	SEGMENT DWORD USE32 PUBLIC 'BSS'
_BSS	ENDS
$$SYMBOLS	SEGMENT BYTE USE32 'DEBSYM'
$$SYMBOLS	ENDS
$$TYPES	SEGMENT BYTE USE32 'DEBTYP'
$$TYPES	ENDS
_TLS	SEGMENT DWORD USE32 PUBLIC 'TLS'
_TLS	ENDS
;	COMDAT ??_C@_0BN@ODLNCKCA@Data?2?2Info?2?2ClientConfig?4inf?$AA@
CONST	SEGMENT DWORD USE32 PUBLIC 'CONST'
CONST	ENDS
;	COMDAT ??_C@_0BM@DFPLPGPC@Data?2?2Info?2?2GuildMapper?4inf?$AA@
CONST	SEGMENT DWORD USE32 PUBLIC 'CONST'
CONST	ENDS
;	COMDAT ??_C@_0BN@LHODHNBK@Data?2?2Info?2?2GuildVersion?4inf?$AA@
CONST	SEGMENT DWORD USE32 PUBLIC 'CONST'
CONST	ENDS
;	COMDAT ??_C@_0BH@DDPLNCOL@Data?2?2Info?2?2Player?4inf?$AA@
CONST	SEGMENT DWORD USE32 PUBLIC 'CONST'
CONST	ENDS
;	COMDAT ??_C@_0BL@ILLNAPHB@Data?2?2Info?2?2Resolution?4inf?$AA@
CONST	SEGMENT DWORD USE32 PUBLIC 'CONST'
CONST	ENDS
;	COMDAT ??_C@_0CA@HEIGFDLG@Data?2?2Info?2?2SelectedChannel?4inf?$AA@
CONST	SEGMENT DWORD USE32 PUBLIC 'CONST'
CONST	ENDS
;	COMDAT ??_C@_0N@GOPDCEEB@basic_string?$AA@
CONST	SEGMENT DWORD USE32 PUBLIC 'CONST'
CONST	ENDS
rdata$r	SEGMENT DWORD USE32 PUBLIC 'CONST'
rdata$r	ENDS
text$yc	SEGMENT PARA USE32 PUBLIC 'CODE'
text$yc	ENDS
CRT$XCA	SEGMENT DWORD USE32 PUBLIC 'DATA'
CRT$XCA	ENDS
CRT$XCU	SEGMENT DWORD USE32 PUBLIC 'DATA'
CRT$XCU	ENDS
CRT$XCL	SEGMENT DWORD USE32 PUBLIC 'DATA'
CRT$XCL	ENDS
CRT$XCC	SEGMENT DWORD USE32 PUBLIC 'DATA'
CRT$XCC	ENDS
CRT$XCZ	SEGMENT DWORD USE32 PUBLIC 'DATA'
CRT$XCZ	ENDS
text$yd	SEGMENT PARA USE32 PUBLIC 'CODE'
text$yd	ENDS
;	COMDAT ?Is565@CDirectDraw@@SA_NXZ
_TEXT	SEGMENT PARA USE32 PUBLIC 'CODE'
_TEXT	ENDS
;	COMDAT ?Red@CDirectDraw@@SAEABG@Z
_TEXT	SEGMENT PARA USE32 PUBLIC 'CODE'
_TEXT	ENDS
;	COMDAT ?Green@CDirectDraw@@SAEABG@Z
_TEXT	SEGMENT PARA USE32 PUBLIC 'CODE'
_TEXT	ENDS
;	COMDAT ?Blue@CDirectDraw@@SAEABG@Z
_TEXT	SEGMENT PARA USE32 PUBLIC 'CODE'
_TEXT	ENDS
;	COMDAT ?SetClipLeftTop@CDirectDrawSurface@@QAEXHH@Z
_TEXT	SEGMENT PARA USE32 PUBLIC 'CODE'
_TEXT	ENDS
;	COMDAT ?SetClipRightBottom@CDirectDrawSurface@@QAEXHH@Z
_TEXT	SEGMENT PARA USE32 PUBLIC 'CODE'
_TEXT	ENDS
;	COMDAT ?start@CNFS@@QAE_NPADH@Z
_TEXT	SEGMENT PARA USE32 PUBLIC 'CODE'
_TEXT	ENDS
;	COMDAT ?end@CNFS@@QAEXXZ
_TEXT	SEGMENT PARA USE32 PUBLIC 'CODE'
_TEXT	ENDS
;	COMDAT ?Init@VirtualFileHeader@@QAEXXZ
_TEXT	SEGMENT PARA USE32 PUBLIC 'CODE'
_TEXT	ENDS
;	COMDAT ??1IFileIO@@UAE@XZ
_TEXT	SEGMENT PARA USE32 PUBLIC 'CODE'
_TEXT	ENDS
;	COMDAT ??_GIFileIO@@UAEPAXI@Z
_TEXT	SEGMENT PARA USE32 PUBLIC 'CODE'
_TEXT	ENDS
;	COMDAT ??0iovfs_base@@QAE@XZ
_TEXT	SEGMENT PARA USE32 PUBLIC 'CODE'
_TEXT	ENDS
;	COMDAT ??_Giovfs_base@@UAEPAXI@Z
_TEXT	SEGMENT PARA USE32 PUBLIC 'CODE'
_TEXT	ENDS
;	COMDAT ??1iovfs_base@@UAE@XZ
_TEXT	SEGMENT PARA USE32 PUBLIC 'CODE'
_TEXT	ENDS
;	COMDAT ?Init@iovfs_base@@QAEXXZ
_TEXT	SEGMENT PARA USE32 PUBLIC 'CODE'
_TEXT	ENDS
;	COMDAT ??_Givfstream@@UAEPAXI@Z
_TEXT	SEGMENT PARA USE32 PUBLIC 'CODE'
_TEXT	ENDS
;	COMDAT ??1ivfstream@@UAE@XZ
_TEXT	SEGMENT PARA USE32 PUBLIC 'CODE'
_TEXT	ENDS
;	COMDAT ?open@ivfstream@@UAEXPBDH@Z
_TEXT	SEGMENT PARA USE32 PUBLIC 'CODE'
_TEXT	ENDS
;	COMDAT ??_Govfstream@@UAEPAXI@Z
_TEXT	SEGMENT PARA USE32 PUBLIC 'CODE'
_TEXT	ENDS
;	COMDAT ??1ovfstream@@UAE@XZ
_TEXT	SEGMENT PARA USE32 PUBLIC 'CODE'
_TEXT	ENDS
;	COMDAT ?open@ovfstream@@UAEXPBDH@Z
_TEXT	SEGMENT PARA USE32 PUBLIC 'CODE'
_TEXT	ENDS
;	COMDAT ??1ITypePackBase@@UAE@XZ
_TEXT	SEGMENT PARA USE32 PUBLIC 'CODE'
_TEXT	ENDS
;	COMDAT ??_GITypePackBase@@UAEPAXI@Z
_TEXT	SEGMENT PARA USE32 PUBLIC 'CODE'
_TEXT	ENDS
;	COMDAT ?IsInit@CSpritePalBase@@QBE_NXZ
_TEXT	SEGMENT PARA USE32 PUBLIC 'CODE'
_TEXT	ENDS
;	COMDAT ??0CAlphaSprite@@QAE@XZ
_TEXT	SEGMENT PARA USE32 PUBLIC 'CODE'
_TEXT	ENDS
;	COMDAT ??1CAlphaSprite@@QAE@XZ
_TEXT	SEGMENT PARA USE32 PUBLIC 'CODE'
_TEXT	ENDS
;	COMDAT ?Release@CAlphaSprite@@QAEXXZ
_TEXT	SEGMENT PARA USE32 PUBLIC 'CODE'
_TEXT	ENDS
;	COMDAT ??4CAlphaSprite@@QAEXABV0@@Z
_TEXT	SEGMENT PARA USE32 PUBLIC 'CODE'
_TEXT	ENDS
;	COMDAT ?SetPixel@CAlphaSprite@@QAEXPAGG0GGG@Z
_TEXT	SEGMENT PARA USE32 PUBLIC 'CODE'
_TEXT	ENDS
;	COMDAT ?IsColorPixel@CAlphaSprite@@QAE_NFF@Z
_TEXT	SEGMENT PARA USE32 PUBLIC 'CODE'
_TEXT	ENDS
;	COMDAT ?GetPixel@CAlphaSprite@@QBEGHHH@Z
_TEXT	SEGMENT PARA USE32 PUBLIC 'CODE'
_TEXT	ENDS
;	COMDAT ?memcpyAlpha@CAlphaSprite@@QAEXPAG0G@Z
_TEXT	SEGMENT PARA USE32 PUBLIC 'CODE'
_TEXT	ENDS
;	COMDAT ?memcpyAlpha4444@CAlphaSprite@@QAEXPAG0G@Z
_TEXT	SEGMENT PARA USE32 PUBLIC 'CODE'
_TEXT	ENDS
;	COMDAT ?BltClip@CAlphaSprite@@QAEXPAGGPAUtagRECT@@@Z
_TEXT	SEGMENT PARA USE32 PUBLIC 'CODE'
_TEXT	ENDS
;	COMDAT ?Blt@CAlphaSprite@@QAEXPAGG@Z
_TEXT	SEGMENT PARA USE32 PUBLIC 'CODE'
_TEXT	ENDS
;	COMDAT ?BltClipLeft@CAlphaSprite@@QAEXPAGGPAUtagRECT@@@Z
_TEXT	SEGMENT PARA USE32 PUBLIC 'CODE'
_TEXT	ENDS
;	COMDAT ?BltClipRight@CAlphaSprite@@QAEXPAGGPAUtagRECT@@@Z
_TEXT	SEGMENT PARA USE32 PUBLIC 'CODE'
_TEXT	ENDS
;	COMDAT ?BltClipWidth@CAlphaSprite@@QAEXPAGGPAUtagRECT@@@Z
_TEXT	SEGMENT PARA USE32 PUBLIC 'CODE'
_TEXT	ENDS
;	COMDAT ?BltClipHeight@CAlphaSprite@@QAEXPAGGPAUtagRECT@@@Z
_TEXT	SEGMENT PARA USE32 PUBLIC 'CODE'
_TEXT	ENDS
;	COMDAT ?Blt4444@CAlphaSprite@@QAEXPAGG@Z
_TEXT	SEGMENT PARA USE32 PUBLIC 'CODE'
_TEXT	ENDS
;	COMDAT ?Blt4444ClipLeft@CAlphaSprite@@QAEXPAGGPAUtagRECT@@@Z
_TEXT	SEGMENT PARA USE32 PUBLIC 'CODE'
_TEXT	ENDS
;	COMDAT ?Blt4444ClipRight@CAlphaSprite@@QAEXPAGGPAUtagRECT@@@Z
_TEXT	SEGMENT PARA USE32 PUBLIC 'CODE'
_TEXT	ENDS
;	COMDAT ?Blt4444ClipWidth@CAlphaSprite@@QAEXPAGGPAUtagRECT@@@Z
_TEXT	SEGMENT PARA USE32 PUBLIC 'CODE'
_TEXT	ENDS
;	COMDAT ?Blt4444ClipHeight@CAlphaSprite@@QAEXPAGGPAUtagRECT@@@Z
_TEXT	SEGMENT PARA USE32 PUBLIC 'CODE'
_TEXT	ENDS
;	COMDAT ?Blt4444NotTrans@CAlphaSprite@@QAEXPAGG@Z
_TEXT	SEGMENT PARA USE32 PUBLIC 'CODE'
_TEXT	ENDS
;	COMDAT ?Blt4444NotTransClipLeft@CAlphaSprite@@QAEXPAGGPAUtagRECT@@@Z
_TEXT	SEGMENT PARA USE32 PUBLIC 'CODE'
_TEXT	ENDS
;	COMDAT ?Blt4444NotTransClipRight@CAlphaSprite@@QAEXPAGGPAUtagRECT@@@Z
_TEXT	SEGMENT PARA USE32 PUBLIC 'CODE'
_TEXT	ENDS
;	COMDAT ?Blt4444NotTransClipWidth@CAlphaSprite@@QAEXPAGGPAUtagRECT@@@Z
_TEXT	SEGMENT PARA USE32 PUBLIC 'CODE'
_TEXT	ENDS
;	COMDAT ?Blt4444NotTransClipHeight@CAlphaSprite@@QAEXPAGGPAUtagRECT@@@Z
_TEXT	SEGMENT PARA USE32 PUBLIC 'CODE'
_TEXT	ENDS
;	COMDAT ?BltAlpha@CAlphaSprite@@QAEXPAGGE@Z
_TEXT	SEGMENT PARA USE32 PUBLIC 'CODE'
_TEXT	ENDS
;	COMDAT ?BltAlphaClipLeft@CAlphaSprite@@QAEXPAGGPAUtagRECT@@E@Z
_TEXT	SEGMENT PARA USE32 PUBLIC 'CODE'
_TEXT	ENDS
;	COMDAT ?BltAlphaClipRight@CAlphaSprite@@QAEXPAGGPAUtagRECT@@E@Z
_TEXT	SEGMENT PARA USE32 PUBLIC 'CODE'
_TEXT	ENDS
;	COMDAT ?BltAlphaClipWidth@CAlphaSprite@@QAEXPAGGPAUtagRECT@@E@Z
_TEXT	SEGMENT PARA USE32 PUBLIC 'CODE'
_TEXT	ENDS
;	COMDAT ?BltAlphaClipHeight@CAlphaSprite@@QAEXPAGGPAUtagRECT@@E@Z
_TEXT	SEGMENT PARA USE32 PUBLIC 'CODE'
_TEXT	ENDS
;	COMDAT ?memcpyAlphaValue@CAlphaSprite@@QAEXPAG0G@Z
_TEXT	SEGMENT PARA USE32 PUBLIC 'CODE'
_TEXT	ENDS
;	COMDAT ?Blt4444SmallNotTrans@CAlphaSprite@@QAEXPAGGE@Z
_TEXT	SEGMENT PARA USE32 PUBLIC 'CODE'
_TEXT	ENDS
;	COMDAT ?memcpyAlpha4444Small@CAlphaSprite@@QAEXPAG0G@Z
_TEXT	SEGMENT PARA USE32 PUBLIC 'CODE'
_TEXT	ENDS
;	COMDAT ?eq@?$__char_traits_base@DH@_STL@@SA_NABD0@Z
_TEXT	SEGMENT PARA USE32 PUBLIC 'CODE'
_TEXT	ENDS
;	COMDAT ?not_eof@?$__char_traits_base@DH@_STL@@SAHABH@Z
_TEXT	SEGMENT PARA USE32 PUBLIC 'CODE'
_TEXT	ENDS
;	COMDAT ?eq_int_type@?$__char_traits_base@DH@_STL@@SA_NABH0@Z
_TEXT	SEGMENT PARA USE32 PUBLIC 'CODE'
_TEXT	ENDS
;	COMDAT ?get_allocator@?$basic_string@DV?$char_traits@D@_STL@@V?$allocator@D@2@@_STL@@QBE?AV?$allocator@D@2@XZ
_TEXT	SEGMENT PARA USE32 PUBLIC 'CODE'
_TEXT	ENDS
;	COMDAT ??4?$basic_string@DV?$char_traits@D@_STL@@V?$allocator@D@2@@_STL@@QAEAAV01@PBD@Z
_TEXT	SEGMENT PARA USE32 PUBLIC 'CODE'
_TEXT	ENDS
;	COMDAT ?_M_terminate_string@?$basic_string@DV?$char_traits@D@_STL@@V?$allocator@D@2@@_STL@@AAEXXZ
_TEXT	SEGMENT PARA USE32 PUBLIC 'CODE'
_TEXT	ENDS
;	COMDAT ??0?$_String_base@DV?$allocator@D@_STL@@@_STL@@QAE@ABV?$allocator@D@1@@Z
_TEXT	SEGMENT PARA USE32 PUBLIC 'CODE'
_TEXT	ENDS
;	COMDAT ?allocate@?$allocator@D@_STL@@QAEPADIPBX@Z
_TEXT	SEGMENT PARA USE32 PUBLIC 'CODE'
_TEXT	ENDS
;	COMDAT ??0?$fpos@H@_STL@@QAE@J@Z
_TEXT	SEGMENT PARA USE32 PUBLIC 'CODE'
_TEXT	ENDS
;	COMDAT ??B?$fpos@H@_STL@@QBEJXZ
_TEXT	SEGMENT PARA USE32 PUBLIC 'CODE'
_TEXT	ENDS
;	COMDAT ?state@?$fpos@H@_STL@@QBEHXZ
_TEXT	SEGMENT PARA USE32 PUBLIC 'CODE'
_TEXT	ENDS
;	COMDAT ?is_open@?$basic_filebuf@DV?$char_traits@D@_STL@@@_STL@@QBE_NXZ
_TEXT	SEGMENT PARA USE32 PUBLIC 'CODE'
_TEXT	ENDS
;	COMDAT ?_M_seek_return@?$basic_filebuf@DV?$char_traits@D@_STL@@@_STL@@AAE?AV?$fpos@H@2@JH@Z
_TEXT	SEGMENT PARA USE32 PUBLIC 'CODE'
_TEXT	ENDS
;	COMDAT ??0?$_Filebuf_Tmp_Buf@D@_STL@@QAE@H@Z
_TEXT	SEGMENT PARA USE32 PUBLIC 'CODE'
_TEXT	ENDS
;	COMDAT ??1?$_Filebuf_Tmp_Buf@D@_STL@@QAE@XZ
_TEXT	SEGMENT PARA USE32 PUBLIC 'CODE'
_TEXT	ENDS
;	COMDAT ?_M_terminate_string_aux@?$basic_string@DV?$char_traits@D@_STL@@V?$allocator@D@2@@_STL@@AAEXABU__true_type@2@@Z
_TEXT	SEGMENT PARA USE32 PUBLIC 'CODE'
_TEXT	ENDS
;	COMDAT ?assign@?$basic_string@DV?$char_traits@D@_STL@@V?$allocator@D@2@@_STL@@QAEAAV12@PBD0@Z
_TEXT	SEGMENT PARA USE32 PUBLIC 'CODE'
_TEXT	ENDS
;	COMDAT ??0?$allocator@D@_STL@@QAE@ABV01@@Z
_TEXT	SEGMENT PARA USE32 PUBLIC 'CODE'
_TEXT	ENDS
;	COMDAT ??0?$_STLP_alloc_proxy@PADDV?$allocator@D@_STL@@@_STL@@QAE@ABV?$allocator@D@1@PAD@Z
_TEXT	SEGMENT PARA USE32 PUBLIC 'CODE'
_TEXT	ENDS
;	COMDAT ?state@?$fpos@H@_STL@@QAEXH@Z
_TEXT	SEGMENT PARA USE32 PUBLIC 'CODE'
_TEXT	ENDS
;	COMDAT ?copy@?$__char_traits_base@DH@_STL@@SAPADPADPBDI@Z
_TEXT	SEGMENT PARA USE32 PUBLIC 'CODE'
_TEXT	ENDS
;	COMDAT ?begin@?$basic_string@DV?$char_traits@D@_STL@@V?$allocator@D@2@@_STL@@QAEPADXZ
_TEXT	SEGMENT PARA USE32 PUBLIC 'CODE'
_TEXT	ENDS
;	COMDAT ?end@?$basic_string@DV?$char_traits@D@_STL@@V?$allocator@D@2@@_STL@@QAEPADXZ
_TEXT	SEGMENT PARA USE32 PUBLIC 'CODE'
_TEXT	ENDS
;	COMDAT ?size@?$basic_string@DV?$char_traits@D@_STL@@V?$allocator@D@2@@_STL@@QBEIXZ
_TEXT	SEGMENT PARA USE32 PUBLIC 'CODE'
_TEXT	ENDS
;	COMDAT ?erase@?$basic_string@DV?$char_traits@D@_STL@@V?$allocator@D@2@@_STL@@QAEPADPAD0@Z
_TEXT	SEGMENT PARA USE32 PUBLIC 'CODE'
_TEXT	ENDS
;	COMDAT ?move@?$__char_traits_base@DH@_STL@@SAPADPADPBDI@Z
_TEXT	SEGMENT PARA USE32 PUBLIC 'CODE'
_TEXT	ENDS
;	COMDAT ??$_M_range_initialize@PBD@?$basic_string@DV?$char_traits@D@_STL@@V?$allocator@D@2@@_STL@@AAEXPBD0@Z
_TEXT	SEGMENT PARA USE32 PUBLIC 'CODE'
_TEXT	ENDS
;	COMDAT ??$_M_range_initialize@PAD@?$basic_string@DV?$char_traits@D@_STL@@V?$allocator@D@2@@_STL@@AAEXPAD0@Z
_TEXT	SEGMENT PARA USE32 PUBLIC 'CODE'
_TEXT	ENDS
;	COMDAT ?close@?$basic_filebuf@DV?$char_traits@D@_STL@@@_STL@@QAEPAV12@XZ
_TEXT	SEGMENT PARA USE32 PUBLIC 'CODE'
_TEXT	ENDS
;	COMDAT ?_M_exit_input_mode@?$basic_filebuf@DV?$char_traits@D@_STL@@@_STL@@AAEXXZ
_TEXT	SEGMENT PARA USE32 PUBLIC 'CODE'
_TEXT	ENDS
;	COMDAT ?_M_switch_to_output_mode@?$basic_filebuf@DV?$char_traits@D@_STL@@@_STL@@AAE_NXZ
_TEXT	SEGMENT PARA USE32 PUBLIC 'CODE'
_TEXT	ENDS
;	COMDAT ?_M_output_error@?$basic_filebuf@DV?$char_traits@D@_STL@@@_STL@@AAEHXZ
_TEXT	SEGMENT PARA USE32 PUBLIC 'CODE'
_TEXT	ENDS
;	COMDAT ?_M_allocate_buffers@?$basic_filebuf@DV?$char_traits@D@_STL@@@_STL@@AAE_NPADH@Z
_TEXT	SEGMENT PARA USE32 PUBLIC 'CODE'
_TEXT	ENDS
;	COMDAT ?_M_deallocate_buffers@?$basic_filebuf@DV?$char_traits@D@_STL@@@_STL@@AAEXXZ
_TEXT	SEGMENT PARA USE32 PUBLIC 'CODE'
_TEXT	ENDS
;	COMDAT ?_M_seek_init@?$basic_filebuf@DV?$char_traits@D@_STL@@@_STL@@AAE_N_N@Z
_TEXT	SEGMENT PARA USE32 PUBLIC 'CODE'
_TEXT	ENDS
;	COMDAT ?_M_setup_codecvt@?$basic_filebuf@DV?$char_traits@D@_STL@@@_STL@@AAEXABVlocale@2@@Z
_TEXT	SEGMENT PARA USE32 PUBLIC 'CODE'
_TEXT	ENDS
;	COMDAT ??$equal@PADPADU?$_Eq_traits@V?$char_traits@D@_STL@@@_STL@@@_STL@@YA_NPAD00U?$_Eq_traits@V?$char_traits@D@_STL@@@0@@Z
_TEXT	SEGMENT PARA USE32 PUBLIC 'CODE'
_TEXT	ENDS
;	COMDAT ??$_Destroy@V?$basic_string@DV?$char_traits@D@_STL@@V?$allocator@D@2@@_STL@@@_STL@@YAXPAV?$basic_string@DV?$char_traits@D@_STL@@V?$allocator@D@2@@0@@Z
_TEXT	SEGMENT PARA USE32 PUBLIC 'CODE'
_TEXT	ENDS
;	COMDAT ??$_M_assign_dispatch@PAD@?$basic_string@DV?$char_traits@D@_STL@@V?$allocator@D@2@@_STL@@AAEAAV01@PAD0ABU__false_type@1@@Z
_TEXT	SEGMENT PARA USE32 PUBLIC 'CODE'
_TEXT	ENDS
;	COMDAT ??$append@PBD@?$basic_string@DV?$char_traits@D@_STL@@V?$allocator@D@2@@_STL@@QAEAAV01@PBD0@Z
_TEXT	SEGMENT PARA USE32 PUBLIC 'CODE'
_TEXT	ENDS
;	COMDAT ??_G?$basic_string@DV?$char_traits@D@_STL@@V?$allocator@D@2@@_STL@@QAEPAXI@Z
_TEXT	SEGMENT PARA USE32 PUBLIC 'CODE'
_TEXT	ENDS
;	COMDAT ?_M_exit_putback_mode@?$basic_filebuf@DV?$char_traits@D@_STL@@@_STL@@AAEXXZ
_TEXT	SEGMENT PARA USE32 PUBLIC 'CODE'
_TEXT	ENDS
;	COMDAT ??R?$_Eq_traits@V?$char_traits@D@_STL@@@_STL@@QBE_NABD0@Z
_TEXT	SEGMENT PARA USE32 PUBLIC 'CODE'
_TEXT	ENDS
;	COMDAT ??$_M_range_initialize@PBD@?$basic_string@DV?$char_traits@D@_STL@@V?$allocator@D@2@@_STL@@AAEXPBD0ABUforward_iterator_tag@1@@Z
_TEXT	SEGMENT PARA USE32 PUBLIC 'CODE'
_TEXT	ENDS
;	COMDAT ??$_M_range_initialize@PAD@?$basic_string@DV?$char_traits@D@_STL@@V?$allocator@D@2@@_STL@@AAEXPAD0ABUforward_iterator_tag@1@@Z
_TEXT	SEGMENT PARA USE32 PUBLIC 'CODE'
_TEXT	ENDS
;	COMDAT ?_M_unshift@?$basic_filebuf@DV?$char_traits@D@_STL@@@_STL@@AAE_NXZ
_TEXT	SEGMENT PARA USE32 PUBLIC 'CODE'
_TEXT	ENDS
;	COMDAT ?_M_allocate_buffers@?$basic_filebuf@DV?$char_traits@D@_STL@@@_STL@@AAE_NXZ
_TEXT	SEGMENT PARA USE32 PUBLIC 'CODE'
_TEXT	ENDS
;	COMDAT ??$max@H@_STL@@YAABHABH0@Z
_TEXT	SEGMENT PARA USE32 PUBLIC 'CODE'
_TEXT	ENDS
;	COMDAT ??$use_facet@V?$codecvt@DDH@_STL@@@_STL@@YAABV?$codecvt@DDH@0@ABVlocale@0@@Z
_TEXT	SEGMENT PARA USE32 PUBLIC 'CODE'
_TEXT	ENDS
;	COMDAT ??$append@PAD@?$basic_string@DV?$char_traits@D@_STL@@V?$allocator@D@2@@_STL@@QAEAAV01@PAD0@Z
_TEXT	SEGMENT PARA USE32 PUBLIC 'CODE'
_TEXT	ENDS
;	COMDAT ??$_M_append_dispatch@PBD@?$basic_string@DV?$char_traits@D@_STL@@V?$allocator@D@2@@_STL@@AAEAAV01@PBD0ABU__false_type@1@@Z
_TEXT	SEGMENT PARA USE32 PUBLIC 'CODE'
_TEXT	ENDS
;	COMDAT ??$distance@PBD@_STL@@YAHABQBD0@Z
_TEXT	SEGMENT PARA USE32 PUBLIC 'CODE'
_TEXT	ENDS
;	COMDAT ?_M_allocate_block@?$_String_base@DV?$allocator@D@_STL@@@_STL@@QAEXI@Z
_TEXT	SEGMENT PARA USE32 PUBLIC 'CODE'
_TEXT	ENDS
;	COMDAT ??$distance@PAD@_STL@@YAHABQAD0@Z
_TEXT	SEGMENT PARA USE32 PUBLIC 'CODE'
_TEXT	ENDS
;	COMDAT ??$uninitialized_copy@PADPAD@_STL@@YAPADPAD00@Z
_TEXT	SEGMENT PARA USE32 PUBLIC 'CODE'
_TEXT	ENDS
;	COMDAT ??$_M_append_dispatch@PAD@?$basic_string@DV?$char_traits@D@_STL@@V?$allocator@D@2@@_STL@@AAEAAV01@PAD0ABU__false_type@1@@Z
_TEXT	SEGMENT PARA USE32 PUBLIC 'CODE'
_TEXT	ENDS
;	COMDAT ??$append@PBD@?$basic_string@DV?$char_traits@D@_STL@@V?$allocator@D@2@@_STL@@AAEAAV01@PBD0ABUforward_iterator_tag@1@@Z
_TEXT	SEGMENT PARA USE32 PUBLIC 'CODE'
_TEXT	ENDS
;	COMDAT ?_M_construct_null@?$basic_string@DV?$char_traits@D@_STL@@V?$allocator@D@2@@_STL@@AAEXPAD@Z
_TEXT	SEGMENT PARA USE32 PUBLIC 'CODE'
_TEXT	ENDS
;	COMDAT ?max_size@?$basic_string@DV?$char_traits@D@_STL@@V?$allocator@D@2@@_STL@@QBEIXZ
_TEXT	SEGMENT PARA USE32 PUBLIC 'CODE'
_TEXT	ENDS
;	COMDAT ?capacity@?$basic_string@DV?$char_traits@D@_STL@@V?$allocator@D@2@@_STL@@QBEIXZ
_TEXT	SEGMENT PARA USE32 PUBLIC 'CODE'
_TEXT	ENDS
;	COMDAT ?max_size@?$_String_base@DV?$allocator@D@_STL@@@_STL@@QBEIXZ
_TEXT	SEGMENT PARA USE32 PUBLIC 'CODE'
_TEXT	ENDS
;	COMDAT ?_M_construct_null_aux@?$basic_string@DV?$char_traits@D@_STL@@V?$allocator@D@2@@_STL@@AAEXPADABU__true_type@2@@Z
_TEXT	SEGMENT PARA USE32 PUBLIC 'CODE'
_TEXT	ENDS
;	COMDAT ??$__distance@PBD@_STL@@YAHABQBD0ABUrandom_access_iterator_tag@0@@Z
_TEXT	SEGMENT PARA USE32 PUBLIC 'CODE'
_TEXT	ENDS
;	COMDAT ?_M_throw_length_error@?$_String_base@DV?$allocator@D@_STL@@@_STL@@QBEXXZ
_TEXT	SEGMENT PARA USE32 PUBLIC 'CODE'
_TEXT	ENDS
;	COMDAT ??$__distance@PAD@_STL@@YAHABQAD0ABUrandom_access_iterator_tag@0@@Z
_TEXT	SEGMENT PARA USE32 PUBLIC 'CODE'
_TEXT	ENDS
;	COMDAT ??$__uninitialized_copy@PADPAD@_STL@@YAPADPAD00ABU__true_type@0@@Z
_TEXT	SEGMENT PARA USE32 PUBLIC 'CODE'
_TEXT	ENDS
;	COMDAT ??$append@PAD@?$basic_string@DV?$char_traits@D@_STL@@V?$allocator@D@2@@_STL@@AAEAAV01@PAD0ABUforward_iterator_tag@1@@Z
_TEXT	SEGMENT PARA USE32 PUBLIC 'CODE'
_TEXT	ENDS
;	COMDAT ??$max@I@_STL@@YAABIABI0@Z
_TEXT	SEGMENT PARA USE32 PUBLIC 'CODE'
_TEXT	ENDS
;	COMDAT ?_Ret@?$_BothPtrType@PADPAD@_STL@@SA?AU__true_type@2@XZ
_TEXT	SEGMENT PARA USE32 PUBLIC 'CODE'
_TEXT	ENDS
;	COMDAT ??$__copy_aux@PADPAD@_STL@@YAPADPAD00ABU__true_type@0@@Z
_TEXT	SEGMENT PARA USE32 PUBLIC 'CODE'
_TEXT	ENDS
;	COMDAT ?_Ret@?$_OKToMemCpy@DD@_STL@@SA?AU__true_type@2@XZ
_TEXT	SEGMENT PARA USE32 PUBLIC 'CODE'
_TEXT	ENDS
;	COMDAT ??$_IsOKToMemCpy@DD@_STL@@YA?AU?$_OKToMemCpy@DD@0@PAD0@Z
_TEXT	SEGMENT PARA USE32 PUBLIC 'CODE'
_TEXT	ENDS
;	COMDAT ??$__copy_ptrs@PADPAD@_STL@@YAPADPAD00ABU__true_type@0@@Z
_TEXT	SEGMENT PARA USE32 PUBLIC 'CODE'
_TEXT	ENDS
;	COMDAT ??_R3IFileIO@@8
rdata$r	SEGMENT DWORD USE32 PUBLIC 'CONST'
rdata$r	ENDS
;	COMDAT ??_R3CAlphaSprite@@8
rdata$r	SEGMENT DWORD USE32 PUBLIC 'CONST'
rdata$r	ENDS
;	COMDAT ??_R3ITypePackBase@@8
rdata$r	SEGMENT DWORD USE32 PUBLIC 'CONST'
rdata$r	ENDS
;	COMDAT ??_R3ovfstream@@8
rdata$r	SEGMENT DWORD USE32 PUBLIC 'CONST'
rdata$r	ENDS
;	COMDAT ??_R3ivfstream@@8
rdata$r	SEGMENT DWORD USE32 PUBLIC 'CONST'
rdata$r	ENDS
;	COMDAT ??_R3iovfs_base@@8
rdata$r	SEGMENT DWORD USE32 PUBLIC 'CONST'
rdata$r	ENDS
;	COMDAT ??_R2IFileIO@@8
rdata$r	SEGMENT DWORD USE32 PUBLIC 'CONST'
rdata$r	ENDS
;	COMDAT ??_R2CAlphaSprite@@8
rdata$r	SEGMENT DWORD USE32 PUBLIC 'CONST'
rdata$r	ENDS
;	COMDAT ??_R2ITypePackBase@@8
rdata$r	SEGMENT DWORD USE32 PUBLIC 'CONST'
rdata$r	ENDS
;	COMDAT ??_R2ovfstream@@8
rdata$r	SEGMENT DWORD USE32 PUBLIC 'CONST'
rdata$r	ENDS
;	COMDAT ??_R2ivfstream@@8
rdata$r	SEGMENT DWORD USE32 PUBLIC 'CONST'
rdata$r	ENDS
;	COMDAT ??_R2iovfs_base@@8
rdata$r	SEGMENT DWORD USE32 PUBLIC 'CONST'
rdata$r	ENDS
;	COMDAT ??_R1A@?0A@A@IFileIO@@8
rdata$r	SEGMENT DWORD USE32 PUBLIC 'CONST'
rdata$r	ENDS
;	COMDAT ??_R1A@?0A@A@CAlphaSprite@@8
rdata$r	SEGMENT DWORD USE32 PUBLIC 'CONST'
rdata$r	ENDS
;	COMDAT ??_R1A@?0A@A@ITypePackBase@@8
rdata$r	SEGMENT DWORD USE32 PUBLIC 'CONST'
rdata$r	ENDS
;	COMDAT ??_R1A@?0A@A@ovfstream@@8
rdata$r	SEGMENT DWORD USE32 PUBLIC 'CONST'
rdata$r	ENDS
;	COMDAT ??_R1A@?0A@A@ivfstream@@8
rdata$r	SEGMENT DWORD USE32 PUBLIC 'CONST'
rdata$r	ENDS
;	COMDAT ??_R1A@?0A@A@iovfs_base@@8
rdata$r	SEGMENT DWORD USE32 PUBLIC 'CONST'
rdata$r	ENDS
;	COMDAT ??_R0?AVIFileIO@@@8
_DATA	SEGMENT DWORD USE32 PUBLIC 'DATA'
_DATA	ENDS
;	COMDAT ??_R0?AVCAlphaSprite@@@8
_DATA	SEGMENT DWORD USE32 PUBLIC 'DATA'
_DATA	ENDS
;	COMDAT ??_R0?AVITypePackBase@@@8
_DATA	SEGMENT DWORD USE32 PUBLIC 'DATA'
_DATA	ENDS
;	COMDAT ??_R0?AVovfstream@@@8
_DATA	SEGMENT DWORD USE32 PUBLIC 'DATA'
_DATA	ENDS
;	COMDAT ??_R0?AVivfstream@@@8
_DATA	SEGMENT DWORD USE32 PUBLIC 'DATA'
_DATA	ENDS
;	COMDAT ??_R0?AViovfs_base@@@8
_DATA	SEGMENT DWORD USE32 PUBLIC 'DATA'
_DATA	ENDS
;	COMDAT ??_R4IFileIO@@6B@
rdata$r	SEGMENT DWORD USE32 PUBLIC 'CONST'
rdata$r	ENDS
;	COMDAT ??_R4CAlphaSprite@@6B@
rdata$r	SEGMENT DWORD USE32 PUBLIC 'CONST'
rdata$r	ENDS
;	COMDAT ??_R4ITypePackBase@@6B@
rdata$r	SEGMENT DWORD USE32 PUBLIC 'CONST'
rdata$r	ENDS
;	COMDAT ??_R4ovfstream@@6B@
rdata$r	SEGMENT DWORD USE32 PUBLIC 'CONST'
rdata$r	ENDS
;	COMDAT ??_R4ivfstream@@6B@
rdata$r	SEGMENT DWORD USE32 PUBLIC 'CONST'
rdata$r	ENDS
;	COMDAT ??_R4iovfs_base@@6B@
rdata$r	SEGMENT DWORD USE32 PUBLIC 'CONST'
rdata$r	ENDS
;	COMDAT ?__copy_trivial@_STL@@YAPAXPBX0PAX@Z
_TEXT	SEGMENT PARA USE32 PUBLIC 'CODE'
_TEXT	ENDS
;	COMDAT ?_M_deallocate_block@?$_String_base@DV?$allocator@D@_STL@@@_STL@@QAEXXZ
_TEXT	SEGMENT PARA USE32 PUBLIC 'CODE'
_TEXT	ENDS
;	COMDAT ?deallocate@?$allocator@D@_STL@@QAEXPADI@Z
_TEXT	SEGMENT PARA USE32 PUBLIC 'CODE'
_TEXT	ENDS
;	COMDAT ?deallocate@?$__node_alloc@$00$0A@@_STL@@SAXPAXI@Z
_TEXT	SEGMENT PARA USE32 PUBLIC 'CODE'
_TEXT	ENDS
;	COMDAT ?__stl_delete@_STL@@YAXPAX@Z
_TEXT	SEGMENT PARA USE32 PUBLIC 'CODE'
_TEXT	ENDS
;	COMDAT ?__page_size@_Filebuf_base@_STL@@SAIXZ
_TEXT	SEGMENT PARA USE32 PUBLIC 'CODE'
_TEXT	ENDS
;	COMDAT ?_M_write@?$basic_filebuf@DV?$char_traits@D@_STL@@@_STL@@QAE_NPADH@Z
_TEXT	SEGMENT PARA USE32 PUBLIC 'CODE'
_TEXT	ENDS
;	COMDAT ?unshift@?$codecvt@DDH@_STL@@QBE?AW4result@codecvt_base@2@AAHPAD1AAPAD@Z
_TEXT	SEGMENT PARA USE32 PUBLIC 'CODE'
_TEXT	ENDS
;	COMDAT ?uninitialized_copy@_STL@@YAPADPBD0PAD@Z
_TEXT	SEGMENT PARA USE32 PUBLIC 'CODE'
_TEXT	ENDS
;	COMDAT ?assign@?$char_traits@D@_STL@@SAXAADABD@Z
_TEXT	SEGMENT PARA USE32 PUBLIC 'CODE'
_TEXT	ENDS
;	COMDAT ?always_noconv@?$codecvt@DDH@_STL@@QBE_NXZ
_TEXT	SEGMENT PARA USE32 PUBLIC 'CODE'
_TEXT	ENDS
;	COMDAT ?encoding@?$codecvt@DDH@_STL@@QBEHXZ
_TEXT	SEGMENT PARA USE32 PUBLIC 'CODE'
_TEXT	ENDS
;	COMDAT ?max_length@?$codecvt@DDH@_STL@@QBEHXZ
_TEXT	SEGMENT PARA USE32 PUBLIC 'CODE'
_TEXT	ENDS
;	COMDAT ?__o_mode@_Filebuf_base@_STL@@QBEHXZ
_TEXT	SEGMENT PARA USE32 PUBLIC 'CODE'
_TEXT	ENDS
;	COMDAT ?_Destroy@_STL@@YAXPAD0@Z
_TEXT	SEGMENT PARA USE32 PUBLIC 'CODE'
_TEXT	ENDS
;	COMDAT ?setp@?$basic_streambuf@DV?$char_traits@D@_STL@@@_STL@@IAEXPAD0@Z
_TEXT	SEGMENT PARA USE32 PUBLIC 'CODE'
_TEXT	ENDS
;	COMDAT ?_FILE_O_set@_STL@@YAXPAU_iobuf@@PAD11@Z
_TEXT	SEGMENT PARA USE32 PUBLIC 'CODE'
_TEXT	ENDS
;	COMDAT ?_FILE_I_set@_STL@@YAXPAU_iobuf@@PAD11@Z
_TEXT	SEGMENT PARA USE32 PUBLIC 'CODE'
_TEXT	ENDS
;	COMDAT ?setg@?$basic_streambuf@DV?$char_traits@D@_STL@@@_STL@@IAEXPAD00@Z
_TEXT	SEGMENT PARA USE32 PUBLIC 'CODE'
_TEXT	ENDS
;	COMDAT ?__is_open@_Filebuf_base@_STL@@QBE_NXZ
_TEXT	SEGMENT PARA USE32 PUBLIC 'CODE'
_TEXT	ENDS
;	COMDAT ?allocate@?$__node_alloc@$00$0A@@_STL@@SAPAXI@Z
_TEXT	SEGMENT PARA USE32 PUBLIC 'CODE'
_TEXT	ENDS
;	COMDAT ?__stl_new@_STL@@YAPAXI@Z
_TEXT	SEGMENT PARA USE32 PUBLIC 'CODE'
_TEXT	ENDS
;	COMDAT ??1?$_STLP_alloc_proxy@PADDV?$allocator@D@_STL@@@_STL@@QAE@XZ
_TEXT	SEGMENT PARA USE32 PUBLIC 'CODE'
_TEXT	ENDS
;	COMDAT ?length@?$char_traits@D@_STL@@SAIPBD@Z
_TEXT	SEGMENT PARA USE32 PUBLIC 'CODE'
_TEXT	ENDS
;	COMDAT ??1?$allocator@D@_STL@@QAE@XZ
_TEXT	SEGMENT PARA USE32 PUBLIC 'CODE'
_TEXT	ENDS
;	COMDAT ?eof@?$__char_traits_base@DH@_STL@@SAHXZ
_TEXT	SEGMENT PARA USE32 PUBLIC 'CODE'
_TEXT	ENDS
;	COMDAT ??_7CAlphaSprite@@6B@
CONST	SEGMENT DWORD USE32 PUBLIC 'CONST'
CONST	ENDS
;	COMDAT ??_7ITypePackBase@@6B@
CONST	SEGMENT DWORD USE32 PUBLIC 'CONST'
CONST	ENDS
;	COMDAT ??_7ovfstream@@6B@
CONST	SEGMENT DWORD USE32 PUBLIC 'CONST'
CONST	ENDS
;	COMDAT ??_7ivfstream@@6B@
CONST	SEGMENT DWORD USE32 PUBLIC 'CONST'
CONST	ENDS
;	COMDAT ??0?$basic_string@DV?$char_traits@D@_STL@@V?$allocator@D@2@@_STL@@QAE@XZ
_TEXT	SEGMENT PARA USE32 PUBLIC 'CODE'
_TEXT	ENDS
;	COMDAT ??0?$allocator@D@_STL@@QAE@XZ
_TEXT	SEGMENT PARA USE32 PUBLIC 'CODE'
_TEXT	ENDS
;	COMDAT ??1?$_String_base@DV?$allocator@D@_STL@@@_STL@@QAE@XZ
_TEXT	SEGMENT PARA USE32 PUBLIC 'CODE'
_TEXT	ENDS
;	COMDAT ??1?$basic_string@DV?$char_traits@D@_STL@@V?$allocator@D@2@@_STL@@QAE@XZ
_TEXT	SEGMENT PARA USE32 PUBLIC 'CODE'
_TEXT	ENDS
;	COMDAT ??_7iovfs_base@@6B@
CONST	SEGMENT DWORD USE32 PUBLIC 'CONST'
CONST	ENDS
;	COMDAT ??_7IFileIO@@6B@
CONST	SEGMENT DWORD USE32 PUBLIC 'CONST'
CONST	ENDS
sxdata	SEGMENT DWORD USE32 'SXDATA'
sxdata	ENDS
FLAT	GROUP _DATA, CONST, _BSS
	ASSUME	CS: FLAT, DS: FLAT, SS: FLAT
endif

INCLUDELIB LIBCMT
INCLUDELIB OLDNAMES

PUBLIC	?s_Colorkey@CAlphaSprite@@1GA			; CAlphaSprite::s_Colorkey
PUBLIC	?s_Value1@CAlphaSprite@@1HA			; CAlphaSprite::s_Value1
PUBLIC	?s_Value2@CAlphaSprite@@1HA			; CAlphaSprite::s_Value2
_BSS	SEGMENT
?s_Colorkey@CAlphaSprite@@1GA DW 01H DUP (?)		; CAlphaSprite::s_Colorkey
	ALIGN	4

?s_Value1@CAlphaSprite@@1HA DD 01H DUP (?)		; CAlphaSprite::s_Value1
?s_Value2@CAlphaSprite@@1HA DD 01H DUP (?)		; CAlphaSprite::s_Value2
_BSS	ENDS
PUBLIC	?Red@CDirectDraw@@SAEABG@Z			; CDirectDraw::Red
EXTRN	?s_bSHIFT_R@CDirectDraw@@2EA:BYTE		; CDirectDraw::s_bSHIFT_R
; Function compile flags: /Ogsy
; File c:\darkeden\designed_common\project\client\cdirectdraw.h
;	COMDAT ?Red@CDirectDraw@@SAEABG@Z
_TEXT	SEGMENT
_c$ = 8							; size = 4
?Red@CDirectDraw@@SAEABG@Z PROC NEAR			; CDirectDraw::Red, COMDAT

; 156  : 		return (c >> s_bSHIFT_R);

  00000	8b 44 24 04	 mov	 eax, DWORD PTR _c$[esp-4]
  00004	0f b7 00	 movzx	 eax, WORD PTR [eax]
  00007	8a 0d 00 00 00
	00		 mov	 cl, BYTE PTR ?s_bSHIFT_R@CDirectDraw@@2EA ; CDirectDraw::s_bSHIFT_R
  0000d	d3 e8		 shr	 eax, cl

; 157  : 	}

  0000f	c3		 ret	 0
?Red@CDirectDraw@@SAEABG@Z ENDP				; CDirectDraw::Red
_TEXT	ENDS
PUBLIC	?Green@CDirectDraw@@SAEABG@Z			; CDirectDraw::Green
EXTRN	?s_bSHIFT_G@CDirectDraw@@2EA:BYTE		; CDirectDraw::s_bSHIFT_G
; Function compile flags: /Ogsy
;	COMDAT ?Green@CDirectDraw@@SAEABG@Z
_TEXT	SEGMENT
_c$ = 8							; size = 4
?Green@CDirectDraw@@SAEABG@Z PROC NEAR			; CDirectDraw::Green, COMDAT

; 162  : 		//return ((c >> s_bSHIFT_G) & s_bMASK_G);	
; 163  : 
; 164  : 		BYTE g;
; 165  : 		g = c >> s_bSHIFT_G;

  00000	8b 44 24 04	 mov	 eax, DWORD PTR _c$[esp-4]
  00004	66 8b 00	 mov	 ax, WORD PTR [eax]
  00007	8a 0d 00 00 00
	00		 mov	 cl, BYTE PTR ?s_bSHIFT_G@CDirectDraw@@2EA ; CDirectDraw::s_bSHIFT_G
  0000d	66 d3 e8	 shr	 ax, cl

; 166  : 		g &= 0x1F;

  00010	24 1f		 and	 al, 31			; 0000001fH

; 167  : 		return g;			
; 168  : 	}

  00012	c3		 ret	 0
?Green@CDirectDraw@@SAEABG@Z ENDP			; CDirectDraw::Green
_TEXT	ENDS
PUBLIC	?Blue@CDirectDraw@@SAEABG@Z			; CDirectDraw::Blue
; Function compile flags: /Ogsy
;	COMDAT ?Blue@CDirectDraw@@SAEABG@Z
_TEXT	SEGMENT
_c$ = 8							; size = 4
?Blue@CDirectDraw@@SAEABG@Z PROC NEAR			; CDirectDraw::Blue, COMDAT

; 173  : 		return (c & 0x1F);

  00000	8b 44 24 04	 mov	 eax, DWORD PTR _c$[esp-4]
  00004	0f b6 00	 movzx	 eax, BYTE PTR [eax]
  00007	83 e0 1f	 and	 eax, 31			; 0000001fH

; 174  : 	}

  0000a	c3		 ret	 0
?Blue@CDirectDraw@@SAEABG@Z ENDP			; CDirectDraw::Blue
_TEXT	ENDS
PUBLIC	??_R4CAlphaSprite@@6B@				; CAlphaSprite::`RTTI Complete Object Locator'
PUBLIC	??_R0?AVCAlphaSprite@@@8			; CAlphaSprite `RTTI Type Descriptor'
PUBLIC	??_R3CAlphaSprite@@8				; CAlphaSprite::`RTTI Class Hierarchy Descriptor'
PUBLIC	??_R2CAlphaSprite@@8				; CAlphaSprite::`RTTI Base Class Array'
PUBLIC	??_R1A@?0A@A@CAlphaSprite@@8			; CAlphaSprite::`RTTI Base Class Descriptor at (0,-1,0,0)'
PUBLIC	??0CAlphaSprite@@QAE@XZ				; CAlphaSprite::CAlphaSprite
PUBLIC	??_7CAlphaSprite@@6B@				; CAlphaSprite::`vftable'
EXTRN	??_7type_info@@6B@:QWORD			; type_info::`vftable'
EXTRN	__purecall:NEAR
;	COMDAT ??_7CAlphaSprite@@6B@
; File c:\darkeden\designed_common\project\client\spritelib\calphasprite.cpp
CONST	SEGMENT
??_7CAlphaSprite@@6B@ DD FLAT:??_R4CAlphaSprite@@6B@	; CAlphaSprite::`vftable'
	DD	FLAT:__purecall
	DD	FLAT:__purecall
CONST	ENDS
;	COMDAT ??_R4CAlphaSprite@@6B@
rdata$r	SEGMENT
??_R4CAlphaSprite@@6B@ DD 00H				; CAlphaSprite::`RTTI Complete Object Locator'
	DD	00H
	DD	00H
	DD	FLAT:??_R0?AVCAlphaSprite@@@8
	DD	FLAT:??_R3CAlphaSprite@@8
rdata$r	ENDS
;	COMDAT ??_R0?AVCAlphaSprite@@@8
_DATA	SEGMENT
??_R0?AVCAlphaSprite@@@8 DD FLAT:??_7type_info@@6B@	; CAlphaSprite `RTTI Type Descriptor'
	DD	00H
	DB	'.?AVCAlphaSprite@@', 00H
_DATA	ENDS
;	COMDAT ??_R3CAlphaSprite@@8
rdata$r	SEGMENT
??_R3CAlphaSprite@@8 DD 00H				; CAlphaSprite::`RTTI Class Hierarchy Descriptor'
	DD	00H
	DD	01H
	DD	FLAT:??_R2CAlphaSprite@@8
rdata$r	ENDS
;	COMDAT ??_R2CAlphaSprite@@8
rdata$r	SEGMENT
??_R2CAlphaSprite@@8 DD FLAT:??_R1A@?0A@A@CAlphaSprite@@8 ; CAlphaSprite::`RTTI Base Class Array'
rdata$r	ENDS
;	COMDAT ??_R1A@?0A@A@CAlphaSprite@@8
rdata$r	SEGMENT
??_R1A@?0A@A@CAlphaSprite@@8 DD FLAT:??_R0?AVCAlphaSprite@@@8 ; CAlphaSprite::`RTTI Base Class Descriptor at (0,-1,0,0)'
	DD	00H
	DD	00H
	DD	0ffffffffH
	DD	00H
	DD	00H
; Function compile flags: /Ogsy
rdata$r	ENDS
;	COMDAT ??0CAlphaSprite@@QAE@XZ
_TEXT	SEGMENT
??0CAlphaSprite@@QAE@XZ PROC NEAR			; CAlphaSprite::CAlphaSprite, COMDAT
; _this$ = ecx

; 25   : {

  00000	8b c1		 mov	 eax, ecx

; 26   : 	m_Width		= 0;

  00002	33 c9		 xor	 ecx, ecx
  00004	c7 00 00 00 00
	00		 mov	 DWORD PTR [eax], OFFSET FLAT:??_7CAlphaSprite@@6B@
  0000a	66 89 48 04	 mov	 WORD PTR [eax+4], cx

; 27   : 	m_Height	= 0;

  0000e	66 89 48 06	 mov	 WORD PTR [eax+6], cx

; 28   : 	m_Pixels	= NULL;	

  00012	89 48 08	 mov	 DWORD PTR [eax+8], ecx

; 29   : 	m_bInit		= false;

  00015	88 48 0c	 mov	 BYTE PTR [eax+12], cl

; 30   : }

  00018	c3		 ret	 0
??0CAlphaSprite@@QAE@XZ ENDP				; CAlphaSprite::CAlphaSprite
_TEXT	ENDS
PUBLIC	?Release@CAlphaSprite@@QAEXXZ			; CAlphaSprite::Release
EXTRN	??_V@YAXPAX@Z:NEAR				; operator delete[]
; Function compile flags: /Ogsy
;	COMDAT ?Release@CAlphaSprite@@QAEXXZ
_TEXT	SEGMENT
?Release@CAlphaSprite@@QAEXXZ PROC NEAR			; CAlphaSprite::Release, COMDAT
; _this$ = ecx

; 48   : {

  00000	53		 push	 ebx
  00001	56		 push	 esi
  00002	8b f1		 mov	 esi, ecx

; 49   : 	if (m_Pixels!=NULL)

  00004	33 db		 xor	 ebx, ebx
  00006	39 5e 08	 cmp	 DWORD PTR [esi+8], ebx
  00009	74 36		 je	 SHORT $L103057
  0000b	57		 push	 edi

; 50   : 	{		
; 51   : 		m_bInit		= false;
; 52   : 
; 53   : 		for (int i=0; i<m_Height; i++)

  0000c	33 ff		 xor	 edi, edi
  0000e	66 39 5e 06	 cmp	 WORD PTR [esi+6], bx
  00012	88 5e 0c	 mov	 BYTE PTR [esi+12], bl
  00015	76 15		 jbe	 SHORT $L103061
$L103059:

; 54   : 			delete [] m_Pixels[i];

  00017	8b 46 08	 mov	 eax, DWORD PTR [esi+8]
  0001a	ff 34 b8	 push	 DWORD PTR [eax+edi*4]
  0001d	e8 00 00 00 00	 call	 ??_V@YAXPAX@Z		; operator delete[]
  00022	0f b7 46 06	 movzx	 eax, WORD PTR [esi+6]
  00026	47		 inc	 edi
  00027	3b f8		 cmp	 edi, eax
  00029	59		 pop	 ecx
  0002a	7c eb		 jl	 SHORT $L103059
$L103061:

; 55   : 			//free(m_Pixels[i]);
; 56   : 		delete [] m_Pixels;

  0002c	ff 76 08	 push	 DWORD PTR [esi+8]
  0002f	e8 00 00 00 00	 call	 ??_V@YAXPAX@Z		; operator delete[]
  00034	59		 pop	 ecx

; 57   : 		//free(m_Pixels);
; 58   : 
; 59   : 		//s_Delete++;
; 60   : 
; 61   : 		m_Pixels	= NULL;

  00035	89 5e 08	 mov	 DWORD PTR [esi+8], ebx

; 62   : 		m_Width		= 0;

  00038	66 89 5e 04	 mov	 WORD PTR [esi+4], bx

; 63   : 		m_Height	= 0;	

  0003c	66 89 5e 06	 mov	 WORD PTR [esi+6], bx
  00040	5f		 pop	 edi
$L103057:
  00041	5e		 pop	 esi
  00042	5b		 pop	 ebx

; 64   : 	}
; 65   : }

  00043	c3		 ret	 0
?Release@CAlphaSprite@@QAEXXZ ENDP			; CAlphaSprite::Release
_TEXT	ENDS
PUBLIC	??4CAlphaSprite@@QAEXABV0@@Z			; CAlphaSprite::operator=
EXTRN	??_U@YAPAXI@Z:NEAR				; operator new[]
EXTRN	_memcpy:NEAR
; Function compile flags: /Ogsy
;	COMDAT ??4CAlphaSprite@@QAEXABV0@@Z
_TEXT	SEGMENT
tv146 = -8						; size = 4
_i$ = -4						; size = 4
_index$ = 8						; size = 4
_Sprite$ = 8						; size = 4
??4CAlphaSprite@@QAEXABV0@@Z PROC NEAR			; CAlphaSprite::operator=, COMDAT
; _this$ = ecx

; 72   : {

  00000	55		 push	 ebp
  00001	8b ec		 mov	 ebp, esp
  00003	51		 push	 ecx
  00004	51		 push	 ecx
  00005	53		 push	 ebx
  00006	56		 push	 esi
  00007	57		 push	 edi
  00008	8b f1		 mov	 esi, ecx

; 73   : 		// 메모리 해제
; 74   : 	Release();

  0000a	e8 00 00 00 00	 call	 ?Release@CAlphaSprite@@QAEXXZ ; CAlphaSprite::Release

; 75   : 
; 76   : 
; 77   : 	// NULL이면 저장하지 않는다.
; 78   : 	if (Sprite.m_Pixels==NULL || Sprite.m_Width==0 || Sprite.m_Height==0)

  0000f	8b 5d 08	 mov	 ebx, DWORD PTR _Sprite$[ebp]
  00012	33 ff		 xor	 edi, edi
  00014	39 7b 08	 cmp	 DWORD PTR [ebx+8], edi
  00017	0f 84 a2 00 00
	00		 je	 $L103069
  0001d	66 8b 43 04	 mov	 ax, WORD PTR [ebx+4]
  00021	66 3b c7	 cmp	 ax, di
  00024	0f 84 95 00 00
	00		 je	 $L103069
  0002a	66 39 7b 06	 cmp	 WORD PTR [ebx+6], di
  0002e	0f 84 8b 00 00
	00		 je	 $L103069

; 79   : 		return;
; 80   : 
; 81   : 	// 크기 설정
; 82   : 	m_Width = Sprite.m_Width;

  00034	66 89 46 04	 mov	 WORD PTR [esi+4], ax

; 83   : 	m_Height = Sprite.m_Height;

  00038	66 8b 43 06	 mov	 ax, WORD PTR [ebx+6]
  0003c	66 89 46 06	 mov	 WORD PTR [esi+6], ax

; 84   : 	
; 85   : 	// 압축 된 것 저장
; 86   : 	int index;	
; 87   : 	register int i;
; 88   : 	register int j;
; 89   : 
; 90   : 	// 메모리 잡기
; 91   : 	m_Pixels = new WORD* [m_Height];

  00040	0f b7 c0	 movzx	 eax, ax
  00043	c1 e0 02	 shl	 eax, 2
  00046	50		 push	 eax
  00047	e8 00 00 00 00	 call	 ??_U@YAPAXI@Z		; operator new[]

; 92   : 
; 93   : 	for (i=0; i<m_Height; i++)

  0004c	66 39 7e 06	 cmp	 WORD PTR [esi+6], di
  00050	59		 pop	 ecx
  00051	89 46 08	 mov	 DWORD PTR [esi+8], eax
  00054	89 7d fc	 mov	 DWORD PTR _i$[ebp], edi
  00057	76 62		 jbe	 SHORT $L103077
$L104734:
  00059	8b 7d fc	 mov	 edi, DWORD PTR _i$[ebp]

; 94   : 	{
; 95   : 		// 반복 회수의 2 byte
; 96   : 		int	count = Sprite.m_Pixels[i][0], 

  0005c	8b 43 08	 mov	 eax, DWORD PTR [ebx+8]
  0005f	c1 e7 02	 shl	 edi, 2
  00062	8b 04 07	 mov	 eax, DWORD PTR [edi+eax]
  00065	0f b7 10	 movzx	 edx, WORD PTR [eax]

; 97   : 				colorCount;
; 98   : 		index	= 1;

  00068	33 c9		 xor	 ecx, ecx
  0006a	41		 inc	 ecx

; 99   : 
; 100  : 		// 각 line마다 byte수를 세어서 저장해야한다.
; 101  : 		for (j=0; j<count; j++)

  0006b	85 d2		 test	 edx, edx
  0006d	89 4d 08	 mov	 DWORD PTR _index$[ebp], ecx
  00070	7e 14		 jle	 SHORT $L103082

; 94   : 	{
; 95   : 		// 반복 회수의 2 byte
; 96   : 		int	count = Sprite.m_Pixels[i][0], 

  00072	89 55 f8	 mov	 DWORD PTR tv146[ebp], edx
$L104735:

; 99   : 
; 100  : 		// 각 line마다 byte수를 세어서 저장해야한다.
; 101  : 		for (j=0; j<count; j++)

  00075	ff 4d f8	 dec	 DWORD PTR tv146[ebp]

; 102  : 		{
; 103  : 			//transCount = m_Pixels[i][index];
; 104  : 			colorCount = Sprite.m_Pixels[i][index+1];
; 105  : 
; 106  : 			index+=2;	// 두 count 만큼
; 107  : 
; 108  : 			index += (colorCount<<1);	// 투명색 아닌것만큼 +				

  00078	0f b7 54 48 02	 movzx	 edx, WORD PTR [eax+ecx*2+2]
  0007d	8d 4c 51 02	 lea	 ecx, DWORD PTR [ecx+edx*2+2]
  00081	89 4d 08	 mov	 DWORD PTR _index$[ebp], ecx
  00084	75 ef		 jne	 SHORT $L104735
$L103082:

; 109  : 		}
; 110  : 
; 111  : 		// 메모리 잡기
; 112  : 		m_Pixels[i] = new WORD [index];

  00086	8d 04 09	 lea	 eax, DWORD PTR [ecx+ecx]
  00089	50		 push	 eax
  0008a	e8 00 00 00 00	 call	 ??_U@YAPAXI@Z		; operator new[]
  0008f	8b 4e 08	 mov	 ecx, DWORD PTR [esi+8]
  00092	89 04 0f	 mov	 DWORD PTR [edi+ecx], eax

; 113  : 		memcpy(m_Pixels[i], Sprite.m_Pixels[i], index<<1);

  00095	8b 45 08	 mov	 eax, DWORD PTR _index$[ebp]
  00098	03 c0		 add	 eax, eax
  0009a	50		 push	 eax
  0009b	8b 43 08	 mov	 eax, DWORD PTR [ebx+8]
  0009e	ff 34 07	 push	 DWORD PTR [edi+eax]
  000a1	8b 46 08	 mov	 eax, DWORD PTR [esi+8]
  000a4	ff 34 38	 push	 DWORD PTR [eax+edi]
  000a7	e8 00 00 00 00	 call	 _memcpy
  000ac	0f b7 46 06	 movzx	 eax, WORD PTR [esi+6]
  000b0	83 c4 10	 add	 esp, 16			; 00000010H
  000b3	ff 45 fc	 inc	 DWORD PTR _i$[ebp]
  000b6	39 45 fc	 cmp	 DWORD PTR _i$[ebp], eax
  000b9	7c 9e		 jl	 SHORT $L104734
$L103077:

; 114  : 	}
; 115  : 
; 116  : 	// 복사 완료
; 117  : 	m_bInit = true;

  000bb	c6 46 0c 01	 mov	 BYTE PTR [esi+12], 1
$L103069:
  000bf	5f		 pop	 edi
  000c0	5e		 pop	 esi
  000c1	5b		 pop	 ebx

; 118  : }

  000c2	c9		 leave
  000c3	c2 04 00	 ret	 4
??4CAlphaSprite@@QAEXABV0@@Z ENDP			; CAlphaSprite::operator=
_TEXT	ENDS
PUBLIC	?SetPixel@CAlphaSprite@@QAEXPAGG0GGG@Z		; CAlphaSprite::SetPixel
; Function compile flags: /Ogsy
;	COMDAT ?SetPixel@CAlphaSprite@@QAEXPAGG0GGG@Z
_TEXT	SEGMENT
tv232 = -40						; size = 4
tv334 = -36						; size = 4
_lastColorIndex$ = -32					; size = 4
tv146 = -28						; size = 4
_pSourceTemp$ = -24					; size = 4
tv346 = -20						; size = 4
tv237 = -16						; size = 4
_i$103107 = -12						; size = 4
_trans$ = -8						; size = 4
_count$ = -4						; size = 4
_pSource$ = 8						; size = 4
_sourcePitch$ = 12					; size = 2
_pFilter$ = 16						; size = 4
_filterPitch$ = 20					; size = 2
_bCheckTrans$ = 24					; size = 4
_width$ = 24						; size = 2
_color$ = 28						; size = 4
_height$ = 28						; size = 2
?SetPixel@CAlphaSprite@@QAEXPAGG0GGG@Z PROC NEAR	; CAlphaSprite::SetPixel, COMDAT
; _this$ = ecx

; 145  : {

  00000	55		 push	 ebp
  00001	8b ec		 mov	 ebp, esp
  00003	83 ec 28	 sub	 esp, 40			; 00000028H
  00006	53		 push	 ebx
  00007	56		 push	 esi
  00008	57		 push	 edi
  00009	8b f9		 mov	 edi, ecx

; 146  : 	// memory해제
; 147  : 	Release();

  0000b	e8 00 00 00 00	 call	 ?Release@CAlphaSprite@@QAEXXZ ; CAlphaSprite::Release

; 148  : 
; 149  : 	m_Width = width;

  00010	66 8b 45 18	 mov	 ax, WORD PTR _width$[ebp]

; 150  : 	m_Height = height;

  00014	66 8b 75 1c	 mov	 si, WORD PTR _height$[ebp]
  00018	66 89 47 04	 mov	 WORD PTR [edi+4], ax

; 151  : 
; 152  : 	// 일단 memory를 적당히 잡아둔다.	
; 153  : 	WORD*	data = new WORD[m_Width*4+10];

  0001c	0f b7 c0	 movzx	 eax, ax
  0001f	89 45 f0	 mov	 DWORD PTR tv237[ebp], eax
  00022	8d 04 c5 14 00
	00 00		 lea	 eax, DWORD PTR [eax*8+20]
  00029	50		 push	 eax
  0002a	66 89 77 06	 mov	 WORD PTR [edi+6], si
  0002e	e8 00 00 00 00	 call	 ??_U@YAPAXI@Z		; operator new[]

; 258  : 
; 259  : 	m_bInit = true;

  00033	0f b7 f6	 movzx	 esi, si
  00036	8b d8		 mov	 ebx, eax
  00038	8b c6		 mov	 eax, esi
  0003a	c1 e0 02	 shl	 eax, 2
  0003d	50		 push	 eax
  0003e	89 75 d8	 mov	 DWORD PTR tv232[ebp], esi
  00041	e8 00 00 00 00	 call	 ??_U@YAPAXI@Z		; operator new[]
  00046	59		 pop	 ecx
  00047	59		 pop	 ecx
  00048	33 c9		 xor	 ecx, ecx
  0004a	3b f1		 cmp	 esi, ecx
  0004c	89 47 08	 mov	 DWORD PTR [edi+8], eax
  0004f	89 4d f4	 mov	 DWORD PTR _i$103107[ebp], ecx
  00052	0f 8e 30 01 00
	00		 jle	 $L103110

; 154  : 
; 155  : 	int	index,				// data의 index로 사용
; 156  : 			lastColorIndex;		// 투명이 아닌색 개수의 최근 index
; 157  : 	int	count;				// 반복수
; 158  : 	int	trans,				// 투명색 개수
; 159  : 			color;				// 투명이 아닌색 개수
; 160  : 
; 161  : 	BOOL	bCheckTrans;		// 최근에 검사한게 투명색인가?
; 162  : 
; 163  : 	WORD	*pSourceTemp, *pFilterTemp;
; 164  : 
; 165  : 	// height줄 만큼 memory잡기
; 166  : 	m_Pixels = new WORD* [height];
; 167  : 
; 168  : 	for (register int i=0; i<height; i++)

  00058	eb 02		 jmp	 SHORT $L103108
$L104746:
  0005a	33 c9		 xor	 ecx, ecx
$L103108:

; 171  : 		count = 0;
; 172  : 		trans = 0;
; 173  : 		color = 0;
; 174  : 		bCheckTrans = TRUE;
; 175  : 
; 176  : 		pSourceTemp = pSource;

  0005c	8b 45 08	 mov	 eax, DWORD PTR _pSource$[ebp]
  0005f	33 f6		 xor	 esi, esi

; 177  : 		pFilterTemp = pFilter;
; 178  : 
; 179  : 		// 각 line에 대해서 압축~
; 180  : 		for (register int j=0; j<width; j++)

  00061	39 4d f0	 cmp	 DWORD PTR tv237[ebp], ecx
  00064	89 4d fc	 mov	 DWORD PTR _count$[ebp], ecx
  00067	89 4d f8	 mov	 DWORD PTR _trans$[ebp], ecx
  0006a	89 4d 1c	 mov	 DWORD PTR _color$[ebp], ecx
  0006d	c7 45 18 01 00
	00 00		 mov	 DWORD PTR _bCheckTrans$[ebp], 1
  00074	89 45 e8	 mov	 DWORD PTR _pSourceTemp$[ebp], eax
  00077	0f 8e b5 00 00
	00		 jle	 $L103123
  0007d	8b 4d e0	 mov	 ecx, DWORD PTR _lastColorIndex$[ebp]
  00080	8b 55 f0	 mov	 edx, DWORD PTR tv237[ebp]
  00083	03 c9		 add	 ecx, ecx
  00085	89 4d ec	 mov	 DWORD PTR tv346[ebp], ecx
  00088	8b 4d 10	 mov	 ecx, DWORD PTR _pFilter$[ebp]
  0008b	2b c8		 sub	 ecx, eax
  0008d	89 4d dc	 mov	 DWORD PTR tv334[ebp], ecx
  00090	89 55 e4	 mov	 DWORD PTR tv146[ebp], edx
  00093	eb 03		 jmp	 SHORT $L103112
$L104747:

; 169  : 	{
; 170  : 		index = 0;

  00095	8b 4d dc	 mov	 ecx, DWORD PTR tv334[ebp]
$L103112:

; 181  : 		{
; 182  : 			// 0번 color에 대해서 압축			
; 183  : 			if (*pSourceTemp==s_Colorkey)

  00098	66 8b 10	 mov	 dx, WORD PTR [eax]
  0009b	66 3b 15 00 00
	00 00		 cmp	 dx, WORD PTR ?s_Colorkey@CAlphaSprite@@1GA ; CAlphaSprite::s_Colorkey
  000a2	75 24		 jne	 SHORT $L103115

; 184  : 				// alpha값이 0인 것은 투명색으로 봐도 될거 같았는데.. 불안해서.. -_-;
; 185  : 				//|| (*pFilterTemp & 0x001F)==0)	// 2002.3.26 추가
; 186  : 			{
; 187  : 				// 최근에 검사한게 투명색이 아니었다면
; 188  : 				if (!bCheckTrans)

  000a4	83 7d 18 00	 cmp	 DWORD PTR _bCheckTrans$[ebp], 0
  000a8	75 19		 jne	 SHORT $L104748

; 189  : 				{
; 190  : 					// ' (투명,색깔수,색깔들) '의 한 set가 끝났음을 의미하므로
; 191  : 					// 색깔들은 (alpha,색깔들)의 집합을 의미한다.
; 192  : 					count++;
; 193  : 					
; 194  : 					// color개수 저장
; 195  : 					data[lastColorIndex] = color;

  000aa	66 8b 55 1c	 mov	 dx, WORD PTR _color$[ebp]
  000ae	8b 4d ec	 mov	 ecx, DWORD PTR tv346[ebp]
  000b1	ff 45 fc	 inc	 DWORD PTR _count$[ebp]

; 196  : 					color = 0;

  000b4	83 65 1c 00	 and	 DWORD PTR _color$[ebp], 0
  000b8	66 89 14 19	 mov	 WORD PTR [ecx+ebx], dx

; 197  : 
; 198  : 					bCheckTrans = TRUE;

  000bc	c7 45 18 01 00
	00 00		 mov	 DWORD PTR _bCheckTrans$[ebp], 1
$L104748:

; 199  : 				}
; 200  : 				
; 201  : 				trans++;				

  000c3	ff 45 f8	 inc	 DWORD PTR _trans$[ebp]

; 202  : 			}
; 203  : 			else

  000c6	eb 48		 jmp	 SHORT $L103117
$L103115:

; 204  : 			{
; 205  : 				// 최근에 검사한게 투명색이었다면..
; 206  : 				if (bCheckTrans)

  000c8	83 7d 18 00	 cmp	 DWORD PTR _bCheckTrans$[ebp], 0
  000cc	74 1b		 je	 SHORT $L103118

; 207  : 				{						
; 208  : 					data[index++] = trans;		// 상위 byte에 투명수를 넣는다.

  000ce	66 8b 55 f8	 mov	 dx, WORD PTR _trans$[ebp]

; 209  : 					trans = 0;

  000d2	83 65 f8 00	 and	 DWORD PTR _trans$[ebp], 0
  000d6	66 89 14 73	 mov	 WORD PTR [ebx+esi*2], dx
  000da	46		 inc	 esi
  000db	8d 14 36	 lea	 edx, DWORD PTR [esi+esi]

; 210  : 
; 211  : 					lastColorIndex=index++;			// 색깔수를 넣을 위치를 기억					

  000de	89 75 e0	 mov	 DWORD PTR _lastColorIndex$[ebp], esi
  000e1	46		 inc	 esi

; 212  : 
; 213  : 					bCheckTrans = FALSE;

  000e2	83 65 18 00	 and	 DWORD PTR _bCheckTrans$[ebp], 0
  000e6	89 55 ec	 mov	 DWORD PTR tv346[ebp], edx
$L103118:

; 214  : 				}
; 215  : 
; 216  : 				// alpha값 만들기
; 217  : 				BYTE alpha;
; 218  : 				WORD alpha2;				
; 219  : 				alpha = (BYTE)(*pFilterTemp & 0x001F);	// Alpha값(Blue값을 택한다.)

  000e9	8a 04 01	 mov	 al, BYTE PTR [ecx+eax]
  000ec	24 1f		 and	 al, 31			; 0000001fH

; 258  : 
; 259  : 	m_bInit = true;

  000ee	66 0f b6 c0	 movzx	 ax, al
  000f2	33 d2		 xor	 edx, edx
  000f4	8a f0		 mov	 dh, al
  000f6	6a 20		 push	 32			; 00000020H
  000f8	59		 pop	 ecx
  000f9	2b c8		 sub	 ecx, eax
  000fb	8b 45 e8	 mov	 eax, DWORD PTR _pSourceTemp$[ebp]
  000fe	0b ca		 or	 ecx, edx
  00100	66 89 0c 73	 mov	 WORD PTR [ebx+esi*2], cx
  00104	66 8b 08	 mov	 cx, WORD PTR [eax]
  00107	46		 inc	 esi
  00108	66 89 0c 73	 mov	 WORD PTR [ebx+esi*2], cx
  0010c	46		 inc	 esi
  0010d	ff 45 1c	 inc	 DWORD PTR _color$[ebp]
$L103117:
  00110	40		 inc	 eax
  00111	40		 inc	 eax
  00112	ff 4d e4	 dec	 DWORD PTR tv146[ebp]
  00115	89 45 e8	 mov	 DWORD PTR _pSourceTemp$[ebp], eax
  00118	0f 85 77 ff ff
	ff		 jne	 $L104747

; 220  : 				alpha2 = (alpha << 8) | (32-alpha);	// (Alpha:32-Alpha)
; 221  : 
; 222  : 				// 저장
; 223  : 				data[index++] = alpha2;					// Alpha 값을 저장한다.				
; 224  : 				data[index++] = *pSourceTemp;			// 실제 색깔을 저장한다.
; 225  : 
; 226  : 				color++;								
; 227  : 			}
; 228  : 
; 229  : 			pSourceTemp++;
; 230  : 			pFilterTemp++;
; 231  : 		}
; 232  : 		
; 233  : 		// 한 줄의 마지막 점이 투명색인가?
; 234  : 		if (bCheckTrans)

  0011e	83 7d 18 00	 cmp	 DWORD PTR _bCheckTrans$[ebp], 0
  00122	75 0e		 jne	 SHORT $L103123

; 235  : 		{
; 236  : 			// 투명색이면 별다른 처리를 안해줘도 될거 같다.
; 237  : 		}	
; 238  : 		// 투명색이 아닌 경우, 점의 개수를 저장시켜줘야 한다.
; 239  : 		else
; 240  : 		{			
; 241  : 			count++;
; 242  : 			data[lastColorIndex] = color;

  00124	8b 45 e0	 mov	 eax, DWORD PTR _lastColorIndex$[ebp]
  00127	66 8b 4d 1c	 mov	 cx, WORD PTR _color$[ebp]
  0012b	ff 45 fc	 inc	 DWORD PTR _count$[ebp]
  0012e	66 89 0c 43	 mov	 WORD PTR [ebx+eax*2], cx
$L103123:

; 243  : 		}
; 244  : 		
; 245  : 		// memory를 다시 잡는다.
; 246  : 		m_Pixels[i] = new WORD [index+1];

  00132	8d 44 36 02	 lea	 eax, DWORD PTR [esi+esi+2]
  00136	50		 push	 eax
  00137	e8 00 00 00 00	 call	 ??_U@YAPAXI@Z		; operator new[]
  0013c	8b 57 08	 mov	 edx, DWORD PTR [edi+8]
  0013f	8b 4d f4	 mov	 ecx, DWORD PTR _i$103107[ebp]
  00142	c1 e1 02	 shl	 ecx, 2
  00145	89 04 11	 mov	 DWORD PTR [ecx+edx], eax

; 247  : 
; 248  : 		// m_Pixels[i]를 압축했으므로 data로 대체한다.
; 249  : 		// m_Pixels[i][0]에는 count를 넣어야 한다.
; 250  : 		m_Pixels[i][0] = count;

  00148	8b 47 08	 mov	 eax, DWORD PTR [edi+8]
  0014b	8b 04 01	 mov	 eax, DWORD PTR [ecx+eax]
  0014e	66 8b 55 fc	 mov	 dx, WORD PTR _count$[ebp]
  00152	66 89 10	 mov	 WORD PTR [eax], dx

; 251  : 		memcpy(m_Pixels[i]+1, data, index<<1);

  00155	8d 04 36	 lea	 eax, DWORD PTR [esi+esi]
  00158	50		 push	 eax
  00159	8b 47 08	 mov	 eax, DWORD PTR [edi+8]
  0015c	8b 04 08	 mov	 eax, DWORD PTR [eax+ecx]
  0015f	40		 inc	 eax
  00160	40		 inc	 eax
  00161	53		 push	 ebx
  00162	50		 push	 eax
  00163	e8 00 00 00 00	 call	 _memcpy

; 252  : 
; 253  : 		pSource = (WORD*)((BYTE*)pSource + sourcePitch);

  00168	0f b7 45 0c	 movzx	 eax, WORD PTR _sourcePitch$[ebp]
  0016c	01 45 08	 add	 DWORD PTR _pSource$[ebp], eax

; 254  : 		pFilter = (WORD*)((BYTE*)pFilter + filterPitch);

  0016f	0f b7 45 14	 movzx	 eax, WORD PTR _filterPitch$[ebp]
  00173	01 45 10	 add	 DWORD PTR _pFilter$[ebp], eax
  00176	83 c4 10	 add	 esp, 16			; 00000010H
  00179	ff 45 f4	 inc	 DWORD PTR _i$103107[ebp]
  0017c	8b 45 f4	 mov	 eax, DWORD PTR _i$103107[ebp]
  0017f	3b 45 d8	 cmp	 eax, DWORD PTR tv232[ebp]
  00182	0f 8c d2 fe ff
	ff		 jl	 $L104746
$L103110:

; 255  : 	}
; 256  : 
; 257  : 	delete [] data;

  00188	53		 push	 ebx
  00189	e8 00 00 00 00	 call	 ??_V@YAXPAX@Z		; operator delete[]
  0018e	59		 pop	 ecx

; 258  : 
; 259  : 	m_bInit = true;

  0018f	c6 47 0c 01	 mov	 BYTE PTR [edi+12], 1
  00193	5f		 pop	 edi
  00194	5e		 pop	 esi
  00195	5b		 pop	 ebx

; 260  : }

  00196	c9		 leave
  00197	c2 18 00	 ret	 24			; 00000018H
?SetPixel@CAlphaSprite@@QAEXPAGG0GGG@Z ENDP		; CAlphaSprite::SetPixel
_TEXT	ENDS
PUBLIC	?IsColorPixel@CAlphaSprite@@QAE_NFF@Z		; CAlphaSprite::IsColorPixel
; Function compile flags: /Ogsy
;	COMDAT ?IsColorPixel@CAlphaSprite@@QAE_NFF@Z
_TEXT	SEGMENT
_x$ = 8							; size = 2
_y$ = 12						; size = 2
?IsColorPixel@CAlphaSprite@@QAE_NFF@Z PROC NEAR		; CAlphaSprite::IsColorPixel, COMDAT
; _this$ = ecx

; 277  : {

  00000	53		 push	 ebx

; 278  : 	// 초기화 된 경우
; 279  : 	if (m_bInit)

  00001	33 db		 xor	 ebx, ebx
  00003	38 59 0c	 cmp	 BYTE PTR [ecx+12], bl
  00006	56		 push	 esi
  00007	57		 push	 edi
  00008	74 56		 je	 SHORT $L103148

; 280  : 	{
; 281  : 		// Sprite의 영역을 벗어나면 false
; 282  : 		if (x<0 || y<0 || x>=m_Width || y>=m_Height)

  0000a	66 39 5c 24 10	 cmp	 WORD PTR _x$[esp+8], bx
  0000f	7c 4f		 jl	 SHORT $L103148
  00011	66 39 5c 24 14	 cmp	 WORD PTR _y$[esp+8], bx
  00016	7c 48		 jl	 SHORT $L103148
  00018	0f bf 7c 24 10	 movsx	 edi, WORD PTR _x$[esp+8]
  0001d	0f b7 41 04	 movzx	 eax, WORD PTR [ecx+4]
  00021	3b f8		 cmp	 edi, eax
  00023	7d 3b		 jge	 SHORT $L103148
  00025	0f bf 44 24 14	 movsx	 eax, WORD PTR _y$[esp+8]
  0002a	0f b7 51 06	 movzx	 edx, WORD PTR [ecx+6]
  0002e	3b c2		 cmp	 eax, edx
  00030	7d 2e		 jge	 SHORT $L103148

; 283  : 			return false;
; 284  : 
; 285  : 		// y번째 줄
; 286  : 		WORD	*pPixels = m_Pixels[y];

  00032	8b 49 08	 mov	 ecx, DWORD PTR [ecx+8]
  00035	8b 04 81	 mov	 eax, DWORD PTR [ecx+eax*4]

; 287  : 
; 288  : 		// y번째 줄의 반복 수
; 289  : 		int	count = *pPixels++;

  00038	0f b7 10	 movzx	 edx, WORD PTR [eax]
  0003b	40		 inc	 eax
  0003c	40		 inc	 eax

; 290  : 
; 291  : 		int	transCount, 
; 292  : 				colorCount,
; 293  : 				index = 0;

  0003d	33 c9		 xor	 ecx, ecx

; 294  : 
; 295  : 		// 한 줄 출력
; 296  : 		if (count > 0)

  0003f	3b d3		 cmp	 edx, ebx
  00041	7e 1d		 jle	 SHORT $L103148

; 297  : 		{			
; 298  : 			register int i = count;

  00043	8b da		 mov	 ebx, edx
$L103146:

; 299  : 			do
; 300  : 			{
; 301  : 				transCount = *pPixels++;

  00045	0f b7 30	 movzx	 esi, WORD PTR [eax]
  00048	40		 inc	 eax
  00049	40		 inc	 eax

; 302  : 				colorCount = *pPixels++;

  0004a	0f b7 10	 movzx	 edx, WORD PTR [eax]

; 303  : 
; 304  : 				index += transCount;

  0004d	03 ce		 add	 ecx, esi
  0004f	40		 inc	 eax

; 305  : 
; 306  : 				// 이번 loop안에 존재하는 점
; 307  : 				if (x < index+colorCount)

  00050	8d 34 0a	 lea	 esi, DWORD PTR [edx+ecx]
  00053	40		 inc	 eax
  00054	3b fe		 cmp	 edi, esi
  00056	7c 10		 jl	 SHORT $L104752

; 328  : 				}
; 329  : 				
; 330  : 				pPixels += (colorCount<<1);
; 331  : 				index += colorCount;
; 332  : 			} while (--i);

  00058	4b		 dec	 ebx
  00059	8d 04 90	 lea	 eax, DWORD PTR [eax+edx*4]
  0005c	8b ce		 mov	 ecx, esi
  0005e	75 e5		 jne	 SHORT $L103146
$L103148:

; 333  : 		}
; 334  : 	}
; 335  : 
; 336  : 	return false;

  00060	32 c0		 xor	 al, al
$L103135:
  00062	5f		 pop	 edi
  00063	5e		 pop	 esi
  00064	5b		 pop	 ebx

; 337  : }

  00065	c2 08 00	 ret	 8
$L104752:

; 308  : 				{
; 309  : 					// 투명색까지보다 적은 경우
; 310  : 					if (x < index)

  00068	3b f9		 cmp	 edi, ecx
  0006a	7d 0c		 jge	 SHORT $L103150

; 311  : 					{
; 312  : 						int n = index - x;
; 313  : 
; 314  : 						// [pixel + alpha] * n 만큼 뒤의 점을 읽는다.
; 315  : 						pPixels += n<<1;
; 316  : 
; 317  : 						// alpha값을 읽는다.
; 318  : 						if ((*pPixels >> 8)!= 0)

  0006c	2b cf		 sub	 ecx, edi
  0006e	f6 44 88 01 ff	 test	 BYTE PTR [eax+ecx*4+1], -1
  00073	0f 95 c0	 setne	 al

; 319  : 						{
; 320  : 							return true;
; 321  : 						}
; 322  : 
; 323  : 						return false;

  00076	eb ea		 jmp	 SHORT $L103135
$L103150:

; 324  : 					}
; 325  : 
; 326  : 					// 색깔에 속한다.
; 327  : 					return true;

  00078	b0 01		 mov	 al, 1
  0007a	eb e6		 jmp	 SHORT $L103135
?IsColorPixel@CAlphaSprite@@QAE_NFF@Z ENDP		; CAlphaSprite::IsColorPixel
_TEXT	ENDS
PUBLIC	?GetPixel@CAlphaSprite@@QBEGHHH@Z		; CAlphaSprite::GetPixel
; Function compile flags: /Ogsy
;	COMDAT ?GetPixel@CAlphaSprite@@QBEGHHH@Z
_TEXT	SEGMENT
_x$ = 8							; size = 4
_y$ = 12						; size = 4
_bColor$ = 16						; size = 4
?GetPixel@CAlphaSprite@@QBEGHHH@Z PROC NEAR		; CAlphaSprite::GetPixel, COMDAT
; _this$ = ecx

; 346  : {

  00000	53		 push	 ebx

; 347  : 	// 초기화 된 경우
; 348  : 	if (m_bInit)

  00001	33 d2		 xor	 edx, edx
  00003	38 51 0c	 cmp	 BYTE PTR [ecx+12], dl
  00006	56		 push	 esi
  00007	57		 push	 edi
  00008	74 4c		 je	 SHORT $L103171

; 349  : 	{
; 350  : 		// Sprite의 영역을 벗어나면 false
; 351  : 		if (x<0 || y<0 || x>=m_Width || y>=m_Height)

  0000a	8b 7c 24 10	 mov	 edi, DWORD PTR _x$[esp+8]
  0000e	3b fa		 cmp	 edi, edx
  00010	7c 44		 jl	 SHORT $L103171
  00012	8b 44 24 14	 mov	 eax, DWORD PTR _y$[esp+8]
  00016	3b c2		 cmp	 eax, edx
  00018	7c 3c		 jl	 SHORT $L103171
  0001a	0f b7 71 04	 movzx	 esi, WORD PTR [ecx+4]
  0001e	3b fe		 cmp	 edi, esi
  00020	7d 34		 jge	 SHORT $L103171
  00022	0f b7 71 06	 movzx	 esi, WORD PTR [ecx+6]
  00026	3b c6		 cmp	 eax, esi
  00028	7d 2c		 jge	 SHORT $L103171

; 352  : 			return 0;
; 353  : 
; 354  : 		// y번째 줄
; 355  : 		WORD	*pPixels = m_Pixels[y];

  0002a	8b 49 08	 mov	 ecx, DWORD PTR [ecx+8]
  0002d	8b 04 81	 mov	 eax, DWORD PTR [ecx+eax*4]

; 356  : 
; 357  : 		// y번째 줄의 반복 수
; 358  : 		int	count = *pPixels++;

  00030	0f b7 08	 movzx	 ecx, WORD PTR [eax]
  00033	40		 inc	 eax
  00034	40		 inc	 eax

; 359  : 
; 360  : 		int	transCount, 
; 361  : 				colorCount,
; 362  : 				index = 0;
; 363  : 
; 364  : 		// 한 줄 출력
; 365  : 		if (count > 0)

  00035	3b ca		 cmp	 ecx, edx
  00037	7e 1d		 jle	 SHORT $L103171

; 366  : 		{			
; 367  : 			register int i = count;

  00039	8b d9		 mov	 ebx, ecx
$L103169:

; 368  : 			do
; 369  : 			{
; 370  : 				transCount = *pPixels++;

  0003b	0f b7 30	 movzx	 esi, WORD PTR [eax]
  0003e	40		 inc	 eax
  0003f	40		 inc	 eax

; 371  : 				colorCount = *pPixels++;

  00040	0f b7 08	 movzx	 ecx, WORD PTR [eax]

; 372  : 
; 373  : 				index += transCount;

  00043	03 d6		 add	 edx, esi
  00045	40		 inc	 eax

; 374  : 
; 375  : 				// 이번 loop안에 존재하는 점
; 376  : 				if (x < index+colorCount)

  00046	8d 34 11	 lea	 esi, DWORD PTR [ecx+edx]
  00049	40		 inc	 eax
  0004a	3b fe		 cmp	 edi, esi
  0004c	7c 11		 jl	 SHORT $L104758

; 387  : 				}
; 388  : 				
; 389  : 				pPixels += (colorCount<<1);
; 390  : 				index += colorCount;
; 391  : 			} while (--i);

  0004e	4b		 dec	 ebx
  0004f	8d 04 88	 lea	 eax, DWORD PTR [eax+ecx*4]
  00052	8b d6		 mov	 edx, esi
  00054	75 e5		 jne	 SHORT $L103169
$L103171:

; 392  : 		}
; 393  : 	}
; 394  : 
; 395  : 	return 0;

  00056	66 33 c0	 xor	 ax, ax
$L103158:
  00059	5f		 pop	 edi
  0005a	5e		 pop	 esi
  0005b	5b		 pop	 ebx

; 396  : }

  0005c	c2 0c 00	 ret	 12			; 0000000cH
$L104758:

; 377  : 				{
; 378  : 					// 투명색까지보다 적은 경우
; 379  : 					if (x < index)

  0005f	3b fa		 cmp	 edi, edx

; 380  : 					{
; 381  : 						return 0;

  00061	7c f3		 jl	 SHORT $L103171

; 382  : 					}
; 383  : 
; 384  : 					// 색깔에 속한다.
; 385  : 					// AlphaChannel값이 있기 때문에...
; 386  : 					return pPixels[((x-index)<<1)+bColor];

  00063	8b 4c 24 18	 mov	 ecx, DWORD PTR _bColor$[esp+8]
  00067	2b fa		 sub	 edi, edx
  00069	8d 0c 79	 lea	 ecx, DWORD PTR [ecx+edi*2]
  0006c	66 8b 04 48	 mov	 ax, WORD PTR [eax+ecx*2]
  00070	eb e7		 jmp	 SHORT $L103158
?GetPixel@CAlphaSprite@@QBEGHHH@Z ENDP			; CAlphaSprite::GetPixel
_TEXT	ENDS
PUBLIC	?memcpyAlpha@CAlphaSprite@@QAEXPAG0G@Z		; CAlphaSprite::memcpyAlpha
; Function compile flags: /Ogsy
;	COMDAT ?memcpyAlpha@CAlphaSprite@@QAEXPAG0G@Z
_TEXT	SEGMENT
tv186 = -12						; size = 4
tv181 = -12						; size = 4
tv140 = -8						; size = 4
_db$ = -4						; size = 4
_pDest$ = 8						; size = 4
_dr$ = 12						; size = 4
_pSource$ = 12						; size = 4
tv179 = 16						; size = 4
tv176 = 16						; size = 4
_pixels$ = 16						; size = 2
_alpha$ = 19						; size = 1
?memcpyAlpha@CAlphaSprite@@QAEXPAG0G@Z PROC NEAR	; CAlphaSprite::memcpyAlpha, COMDAT
; _this$ = ecx

; 408  : {

  00000	55		 push	 ebp
  00001	8b ec		 mov	 ebp, esp
  00003	83 ec 0c	 sub	 esp, 12			; 0000000cH

; 409  : 	register WORD		sTemp,dTemp;
; 410  : 	register int		sr,sg,sb,dr,dg,db;
; 411  : 	//static WORD		temp, temp2;
; 412  : 
; 413  : 	register int i = pixels;

  00006	0f b7 45 10	 movzx	 eax, WORD PTR _pixels$[ebp]

; 414  : 
; 415  : 	BYTE alpha;
; 416  : 
; 417  : 	// Alpha Channel Blending
; 418  : 	// 한점씩 찍기
; 419  : 	while (i--)

  0000a	85 c0		 test	 eax, eax
  0000c	0f 84 c9 00 00
	00		 je	 $L104784
  00012	53		 push	 ebx
  00013	56		 push	 esi
  00014	57		 push	 edi
  00015	8b 7d 0c	 mov	 edi, DWORD PTR _pSource$[ebp]
  00018	89 45 f8	 mov	 DWORD PTR tv140[ebp], eax
$L103191:

; 420  : 	{	
; 421  : 		// Source에는 Alpha값이 포함되어 있다.
; 422  : 		alpha = *pSource >> 8;
; 423  : 		pSource++;
; 424  : 
; 425  : 		// 한점 찍기
; 426  : 		sTemp = *pSource;
; 427  : 		dTemp = *pDest;

  0001b	8b 4d 08	 mov	 ecx, DWORD PTR _pDest$[ebp]
  0001e	8a 47 01	 mov	 al, BYTE PTR [edi+1]

; 428  : 
; 429  : 		sr = CDirectDraw::Red(sTemp);
; 430  : 		sg = CDirectDraw::Green(sTemp);
; 431  : 		sb = CDirectDraw::Blue(sTemp);
; 432  : 
; 433  : 		dr = CDirectDraw::Red(dTemp);

  00021	66 0f b6 35 00
	00 00 00	 movzx	 si, BYTE PTR ?s_bSHIFT_R@CDirectDraw@@2EA ; CDirectDraw::s_bSHIFT_R
  00029	33 d2		 xor	 edx, edx
  0002b	66 8b 11	 mov	 dx, WORD PTR [ecx]
  0002e	66 8b ce	 mov	 cx, si
  00031	88 45 13	 mov	 BYTE PTR _alpha$[ebp], al
  00034	47		 inc	 edi
  00035	47		 inc	 edi
  00036	66 8b 07	 mov	 ax, WORD PTR [edi]
  00039	8b da		 mov	 ebx, edx
  0003b	66 d3 eb	 shr	 bx, cl

; 434  : 		dg = CDirectDraw::Green(dTemp);

  0003e	8b f2		 mov	 esi, edx

; 435  : 		db = CDirectDraw::Blue(dTemp);		

  00040	83 e2 1f	 and	 edx, 31			; 0000001fH
  00043	89 55 fc	 mov	 DWORD PTR _db$[ebp], edx
  00046	0f b6 cb	 movzx	 ecx, bl
  00049	8a 1d 00 00 00
	00		 mov	 bl, BYTE PTR ?s_bSHIFT_G@CDirectDraw@@2EA ; CDirectDraw::s_bSHIFT_G
  0004f	89 4d 0c	 mov	 DWORD PTR _dr$[ebp], ecx
  00052	66 0f b6 cb	 movzx	 cx, bl
  00056	66 d3 ee	 shr	 si, cl
  00059	8b c8		 mov	 ecx, eax
  0005b	89 4d f4	 mov	 DWORD PTR tv186[ebp], ecx
  0005e	8b d0		 mov	 edx, eax
  00060	66 0f b6 cb	 movzx	 cx, bl
  00064	66 d3 ea	 shr	 dx, cl
  00067	83 e6 1f	 and	 esi, 31			; 0000001fH
  0006a	83 e2 1f	 and	 edx, 31			; 0000001fH

; 436  : 		
; 437  : 		*pDest = ((((sb - db)*alpha >> 5) + db) |
; 438  : 					((((sg - dg)*alpha >> 5) + dg) << CDirectDraw::s_bSHIFT_G) |
; 439  : 					(((sr - dr)*alpha >> 5) + dr) << CDirectDraw::s_bSHIFT_R);

  0006d	2b d6		 sub	 edx, esi
  0006f	8b ca		 mov	 ecx, edx
  00071	0f b6 55 13	 movzx	 edx, BYTE PTR _alpha$[ebp]
  00075	0f af ca	 imul	 ecx, edx
  00078	c1 f9 05	 sar	 ecx, 5
  0007b	03 ce		 add	 ecx, esi
  0007d	8b f1		 mov	 esi, ecx
  0007f	8a cb		 mov	 cl, bl
  00081	d3 e6		 shl	 esi, cl
  00083	8b d8		 mov	 ebx, eax
  00085	83 e0 1f	 and	 eax, 31			; 0000001fH
  00088	2b 45 fc	 sub	 eax, DWORD PTR _db$[ebp]
  0008b	89 75 10	 mov	 DWORD PTR tv176[ebp], esi
  0008e	66 0f b6 35 00
	00 00 00	 movzx	 si, BYTE PTR ?s_bSHIFT_R@CDirectDraw@@2EA ; CDirectDraw::s_bSHIFT_R
  00096	0f af c2	 imul	 eax, edx
  00099	66 8b ce	 mov	 cx, si
  0009c	66 d3 eb	 shr	 bx, cl
  0009f	8a 0d 00 00 00
	00		 mov	 cl, BYTE PTR ?s_bSHIFT_R@CDirectDraw@@2EA ; CDirectDraw::s_bSHIFT_R
  000a5	c1 f8 05	 sar	 eax, 5
  000a8	03 45 fc	 add	 eax, DWORD PTR _db$[ebp]
  000ab	0f b6 f3	 movzx	 esi, bl
  000ae	2b 75 0c	 sub	 esi, DWORD PTR _dr$[ebp]
  000b1	0f af f2	 imul	 esi, edx
  000b4	c1 fe 05	 sar	 esi, 5
  000b7	03 75 0c	 add	 esi, DWORD PTR _dr$[ebp]
  000ba	d3 e6		 shl	 esi, cl
  000bc	8b 4d 10	 mov	 ecx, DWORD PTR tv176[ebp]
  000bf	0b ce		 or	 ecx, esi
  000c1	0b c8		 or	 ecx, eax
  000c3	8b 45 08	 mov	 eax, DWORD PTR _pDest$[ebp]

; 440  : 	
; 441  : 		/*
; 442  : 		// 잉... 이게 더 느리다.. 왜 그렇지.. - -;;;
; 443  : 		temp = sb-db;
; 444  : 		temp *= alpha;
; 445  : 		temp >>= 5;
; 446  : 		temp += db;
; 447  : 
; 448  : 		temp2 = sg-dg;
; 449  : 		temp2 *= alpha;
; 450  : 		temp2 >>= 5;
; 451  : 		temp2 += dg;
; 452  : 		temp2 <<= 5;
; 453  : 
; 454  : 		temp |= temp2;
; 455  : 
; 456  : 		temp2 = sr-dr;
; 457  : 		temp2 *= alpha;
; 458  : 		temp2 >>= 5;
; 459  : 		temp2 += dr;
; 460  : 		temp2 <<= CDirectDraw::s_bSHIFT_R;
; 461  : 
; 462  : 		temp |= temp2;
; 463  : 
; 464  : 		*pDest = temp;
; 465  : 		*/
; 466  : 
; 467  : 		pDest++;

  000c6	83 45 08 02	 add	 DWORD PTR _pDest$[ebp], 2

; 468  : 		pSource++;

  000ca	47		 inc	 edi
  000cb	47		 inc	 edi
  000cc	ff 4d f8	 dec	 DWORD PTR tv140[ebp]
  000cf	66 89 08	 mov	 WORD PTR [eax], cx
  000d2	0f 85 43 ff ff
	ff		 jne	 $L103191
  000d8	5f		 pop	 edi
  000d9	5e		 pop	 esi
  000da	5b		 pop	 ebx
$L104784:

; 469  : 	}
; 470  : 
; 471  : }

  000db	c9		 leave
  000dc	c2 0c 00	 ret	 12			; 0000000cH
?memcpyAlpha@CAlphaSprite@@QAEXPAG0G@Z ENDP		; CAlphaSprite::memcpyAlpha
_TEXT	ENDS
PUBLIC	?memcpyAlpha4444@CAlphaSprite@@QAEXPAG0G@Z	; CAlphaSprite::memcpyAlpha4444
EXTRN	?s_bSHIFT4_R@CDirectDraw@@2EA:BYTE		; CDirectDraw::s_bSHIFT4_R
EXTRN	?s_bSHIFT4_G@CDirectDraw@@2EA:BYTE		; CDirectDraw::s_bSHIFT4_G
EXTRN	?s_bSHIFT4_B@CDirectDraw@@2EA:BYTE		; CDirectDraw::s_bSHIFT4_B
; Function compile flags: /Ogsy
;	COMDAT ?memcpyAlpha4444@CAlphaSprite@@QAEXPAG0G@Z
_TEXT	SEGMENT
_pDest$ = 8						; size = 4
_pSource$ = 12						; size = 4
tv145 = 16						; size = 4
_pixels$ = 16						; size = 2
?memcpyAlpha4444@CAlphaSprite@@QAEXPAG0G@Z PROC NEAR	; CAlphaSprite::memcpyAlpha4444, COMDAT
; _this$ = ecx

; 486  : {

  00000	55		 push	 ebp
  00001	8b ec		 mov	 ebp, esp

; 487  : 	register WORD		sTemp;
; 488  : 	register int		sr,sg,sb;
; 489  : 	//static WORD		temp, temp2;
; 490  : 
; 491  : 	register int i = pixels;

  00003	0f b7 45 10	 movzx	 eax, WORD PTR _pixels$[ebp]

; 492  : 
; 493  : 	BYTE alpha;
; 494  : 
; 495  : 	// Alpha Channel Blending
; 496  : 	// 한점씩 찍기
; 497  : 	while (i--)

  00007	85 c0		 test	 eax, eax
  00009	74 61		 je	 SHORT $L104789
  0000b	53		 push	 ebx
  0000c	56		 push	 esi
  0000d	8b 75 0c	 mov	 esi, DWORD PTR _pSource$[ebp]
  00010	57		 push	 edi
  00011	8b 7d 08	 mov	 edi, DWORD PTR _pDest$[ebp]
  00014	89 45 10	 mov	 DWORD PTR tv145[ebp], eax
$L103206:

; 498  : 	{	
; 499  : 		// Source에는 Alpha값이 포함되어 있다.
; 500  : 		alpha = *pSource >> 9;	//	alpha = (*pSource >> 8) >> 1;

  00017	66 8b 16	 mov	 dx, WORD PTR [esi]

; 501  : 		pSource++;
; 502  : 
; 503  : 		// 한점 찍기
; 504  : 		sTemp = *pSource;
; 505  : 	
; 506  : 		sr = (sTemp >> CDirectDraw::s_bSHIFT4_R);// & 0x0F;

  0001a	8a 0d 00 00 00
	00		 mov	 cl, BYTE PTR ?s_bSHIFT4_R@CDirectDraw@@2EA ; CDirectDraw::s_bSHIFT4_R
  00020	66 c1 ea 09	 shr	 dx, 9
  00024	46		 inc	 esi

; 507  : 		sg = (sTemp >> CDirectDraw::s_bSHIFT4_G) & 0x0F;
; 508  : 		sb = (sTemp >> CDirectDraw::s_bSHIFT4_B) & 0x0F;
; 509  : 		
; 510  : 		*pDest =	(alpha << 12) |
; 511  : 					(sr << 8) |
; 512  : 					(sg << 4) |
; 513  : 					(sb);

  00025	33 c0		 xor	 eax, eax
  00027	46		 inc	 esi
  00028	66 8b 06	 mov	 ax, WORD PTR [esi]
  0002b	8b d8		 mov	 ebx, eax
  0002d	66 d3 eb	 shr	 bx, cl
  00030	66 0f b6 ca	 movzx	 cx, dl
  00034	8b d0		 mov	 edx, eax
  00036	c1 e1 04	 shl	 ecx, 4
  00039	0b d9		 or	 ebx, ecx
  0003b	8a 0d 00 00 00
	00		 mov	 cl, BYTE PTR ?s_bSHIFT4_G@CDirectDraw@@2EA ; CDirectDraw::s_bSHIFT4_G
  00041	66 d3 ea	 shr	 dx, cl
  00044	8a 0d 00 00 00
	00		 mov	 cl, BYTE PTR ?s_bSHIFT4_B@CDirectDraw@@2EA ; CDirectDraw::s_bSHIFT4_B
  0004a	66 d3 e8	 shr	 ax, cl
  0004d	c1 e3 04	 shl	 ebx, 4
  00050	83 e2 0f	 and	 edx, 15			; 0000000fH
  00053	0b da		 or	 ebx, edx
  00055	c1 e3 04	 shl	 ebx, 4
  00058	83 e0 0f	 and	 eax, 15			; 0000000fH
  0005b	0b d8		 or	 ebx, eax
  0005d	66 89 1f	 mov	 WORD PTR [edi], bx

; 514  : 	
; 515  : 		pDest++;

  00060	47		 inc	 edi
  00061	47		 inc	 edi

; 516  : 		pSource++;

  00062	46		 inc	 esi
  00063	46		 inc	 esi
  00064	ff 4d 10	 dec	 DWORD PTR tv145[ebp]
  00067	75 ae		 jne	 SHORT $L103206
  00069	5f		 pop	 edi
  0006a	5e		 pop	 esi
  0006b	5b		 pop	 ebx
$L104789:

; 517  : 	}
; 518  : }

  0006c	5d		 pop	 ebp
  0006d	c2 0c 00	 ret	 12			; 0000000cH
?memcpyAlpha4444@CAlphaSprite@@QAEXPAG0G@Z ENDP		; CAlphaSprite::memcpyAlpha4444
_TEXT	ENDS
PUBLIC	?BltClip@CAlphaSprite@@QAEXPAGGPAUtagRECT@@@Z	; CAlphaSprite::BltClip
; Function compile flags: /Ogsy
;	COMDAT ?BltClip@CAlphaSprite@@QAEXPAGGPAUtagRECT@@@Z
_TEXT	SEGMENT
_rectBottom$ = -28					; size = 4
_dist$ = -24						; size = 4
_transCount$ = -24					; size = 4
_i$ = -20						; size = 4
_j$ = -16						; size = 4
_bPut$ = -12						; size = 4
_index$ = -8						; size = 4
_this$ = -4						; size = 4
_pDest$ = 8						; size = 4
_pitch$ = 12						; size = 2
_pRect$ = 16						; size = 4
?BltClip@CAlphaSprite@@QAEXPAGGPAUtagRECT@@@Z PROC NEAR	; CAlphaSprite::BltClip, COMDAT
; _this$ = ecx

; 527  : {

  00000	55		 push	 ebp
  00001	8b ec		 mov	 ebp, esp
  00003	83 ec 1c	 sub	 esp, 28			; 0000001cH

; 528  : 	WORD	*pPixels,
; 529  : 			*pDestTemp;
; 530  : 
; 531  : 	//--------------------------------------------	
; 532  : 	// 첫 점 (x,y)
; 533  : 	//--------------------------------------------
; 534  : 	pDest = (WORD*)((BYTE*)pDest + pitch*pRect->top + pRect->left);

  00006	8b 45 10	 mov	 eax, DWORD PTR _pRect$[ebp]
  00009	0f b7 55 0c	 movzx	 edx, WORD PTR _pitch$[ebp]
  0000d	56		 push	 esi
  0000e	89 4d fc	 mov	 DWORD PTR _this$[ebp], ecx
  00011	8b 48 04	 mov	 ecx, DWORD PTR [eax+4]
  00014	8b f1		 mov	 esi, ecx
  00016	0f af f2	 imul	 esi, edx
  00019	03 30		 add	 esi, DWORD PTR [eax]

; 535  : 	//WORD width = ((pRect->right - pRect->left)<<1);
; 536  : 
; 537  : 	//--------------------------------------------
; 538  : 	// pRect만큼의 점을 출력한다.
; 539  : 	//--------------------------------------------
; 540  : 	int	count,
; 541  : 			transCount, 
; 542  : 			colorCount,
; 543  : 			index,
; 544  : 			dist;
; 545  : 
; 546  : 	BOOL	bPut;		
; 547  : 
; 548  : 	register int i;
; 549  : 	register int j;
; 550  : 	int rectBottom = pRect->bottom;	

  0001b	8b 50 0c	 mov	 edx, DWORD PTR [eax+12]
  0001e	01 75 08	 add	 DWORD PTR _pDest$[ebp], esi

; 551  : 
; 552  : 	for (i=pRect->top; i<rectBottom; i++)

  00021	3b ca		 cmp	 ecx, edx
  00023	89 55 e4	 mov	 DWORD PTR _rectBottom$[ebp], edx
  00026	89 4d ec	 mov	 DWORD PTR _i$[ebp], ecx
  00029	0f 8d f6 00 00
	00		 jge	 $L103229
  0002f	53		 push	 ebx
  00030	57		 push	 edi
$L104801:

; 553  : 	{
; 554  : 		pPixels = m_Pixels[i];

  00031	8b 55 fc	 mov	 edx, DWORD PTR _this$[ebp]
  00034	8b 52 08	 mov	 edx, DWORD PTR [edx+8]
  00037	8b 34 8a	 mov	 esi, DWORD PTR [edx+ecx*4]

; 555  : 		pDestTemp = pDest;		
; 556  : 
; 557  : 		// (투명수,색깔수,색깔들)의 반복 수
; 558  : 		count = *pPixels++;		

  0003a	0f b7 0e	 movzx	 ecx, WORD PTR [esi]
  0003d	8b 7d 08	 mov	 edi, DWORD PTR _pDest$[ebp]
  00040	46		 inc	 esi

; 559  : 
; 560  : 		// 한 줄 출력
; 561  : 		bPut = (pRect->left==0)? TRUE:FALSE;

  00041	33 db		 xor	 ebx, ebx
  00043	33 d2		 xor	 edx, edx
  00045	46		 inc	 esi
  00046	39 10		 cmp	 DWORD PTR [eax], edx
  00048	0f 94 c3	 sete	 bl

; 562  : 		index = 0;
; 563  : 			
; 564  : 		// 각 줄마다 Clipping을 해줘야 하는데...
; 565  : 		// xxxxxOOOOOOOOOOOOOO 이거나  (x:출력안함, O:출력함)
; 566  : 		// OOOOOOOOOOOOOOxxxxx 이거.. 두 가지 경우다.			
; 567  : 		if (count > 0)

  0004b	3b ca		 cmp	 ecx, edx
  0004d	89 5d f4	 mov	 DWORD PTR _bPut$[ebp], ebx
  00050	0f 8e b6 00 00
	00		 jle	 $L103233

; 568  : 		{
; 569  : 			j = count;

  00056	89 4d f0	 mov	 DWORD PTR _j$[ebp], ecx
$L103231:

; 570  : 			do 
; 571  : 			{				
; 572  : 				transCount = *pPixels++;		// 투명색 수			

  00059	0f b7 0e	 movzx	 ecx, WORD PTR [esi]
  0005c	46		 inc	 esi
  0005d	46		 inc	 esi

; 573  : 				colorCount = *pPixels++;		// 투명 아닌 색 수			

  0005e	0f b7 1e	 movzx	 ebx, WORD PTR [esi]
  00061	46		 inc	 esi

; 574  : 						
; 575  : 				// 투명색만큼 건너 뛴다.
; 576  : 				//lpSurfaceTemp += transCount;
; 577  : 				index += transCount;

  00062	03 d1		 add	 edx, ecx
  00064	46		 inc	 esi

; 578  : 
; 579  : 				// 출력해도 되는 경우에는 출력한다.
; 580  : 				if (bPut)

  00065	83 7d f4 00	 cmp	 DWORD PTR _bPut$[ebp], 0
  00069	89 4d e8	 mov	 DWORD PTR _transCount$[ebp], ecx
  0006c	89 55 f8	 mov	 DWORD PTR _index$[ebp], edx
  0006f	74 2a		 je	 SHORT $L103234

; 581  : 				{
; 582  : 					// 출력하고 있다가 오른쪽부분부터 출력하지 말아야 할 경우가 있다.
; 583  : 					// 현재 출력하는 줄은 모두 출력한 것이므로 break해야 한다.
; 584  : 
; 585  : 					// 투명색까지 출력하는것만으로 더 이상 출력할 필요가 없을 경우
; 586  : 					if (index > pRect->right)

  00071	8b 48 08	 mov	 ecx, DWORD PTR [eax+8]
  00074	3b d1		 cmp	 edx, ecx
  00076	0f 8f 90 00 00
	00		 jg	 $L103233

; 587  : 						break;
; 588  : 
; 589  : 					pDestTemp += transCount;

  0007c	8b 55 e8	 mov	 edx, DWORD PTR _transCount$[ebp]
  0007f	8d 3c 57	 lea	 edi, DWORD PTR [edi+edx*2]

; 590  : 
; 591  : 					// 투명색 아닌 것을 조금 출력해야 할 경우
; 592  : 					if (index+colorCount > pRect->right)

  00082	8b 55 f8	 mov	 edx, DWORD PTR _index$[ebp]
  00085	03 d3		 add	 edx, ebx
  00087	3b d1		 cmp	 edx, ecx

; 596  : 						break;
; 597  : 					}						
; 598  : 
; 599  : 					// 모두 출력
; 600  : 					memcpyAlpha(pDestTemp, pPixels, colorCount);

  00089	8b 4d fc	 mov	 ecx, DWORD PTR _this$[ebp]
  0008c	7f 6b		 jg	 SHORT $L104796
  0008e	53		 push	 ebx
  0008f	56		 push	 esi
  00090	57		 push	 edi
  00091	e8 00 00 00 00	 call	 ?memcpyAlpha@CAlphaSprite@@QAEXPAG0G@Z ; CAlphaSprite::memcpyAlpha

; 601  : 					pDestTemp += colorCount;

  00096	8d 3c 5f	 lea	 edi, DWORD PTR [edi+ebx*2]

; 602  : 				}				
; 603  : 				// 출력하면 안 될 경우(줄의 왼쪽부분)에는 출력해도 되는지 확인해본다.
; 604  : 				else

  00099	eb 48		 jmp	 SHORT $L104802
$L103234:

; 605  : 				{
; 606  : 					// 투명색만으로 범위를 넘어갔으므로 모두 출력
; 607  : 					if (index > pRect->left)

  0009b	8b 08		 mov	 ecx, DWORD PTR [eax]
  0009d	3b d1		 cmp	 edx, ecx
  0009f	7e 15		 jle	 SHORT $L103238

; 608  : 					{	
; 609  : 						pDestTemp += index - pRect->left;

  000a1	2b d1		 sub	 edx, ecx

; 610  : 						memcpyAlpha(pDestTemp, pPixels, colorCount);

  000a3	8b 4d fc	 mov	 ecx, DWORD PTR _this$[ebp]
  000a6	53		 push	 ebx
  000a7	8d 3c 57	 lea	 edi, DWORD PTR [edi+edx*2]
  000aa	56		 push	 esi
  000ab	57		 push	 edi
  000ac	e8 00 00 00 00	 call	 ?memcpyAlpha@CAlphaSprite@@QAEXPAG0G@Z ; CAlphaSprite::memcpyAlpha

; 611  : 						pDestTemp += colorCount;

  000b1	8d 3c 5f	 lea	 edi, DWORD PTR [edi+ebx*2]

; 612  : 						bPut = TRUE;
; 613  : 					}
; 614  : 					else

  000b4	eb 26		 jmp	 SHORT $L104803
$L103238:

; 615  : 					if (index+colorCount > pRect->left)

  000b6	03 d3		 add	 edx, ebx
  000b8	3b d1		 cmp	 edx, ecx
  000ba	7e 2a		 jle	 SHORT $L104798

; 616  : 					{
; 617  : 						dist = pRect->left - index;

  000bc	2b 4d f8	 sub	 ecx, DWORD PTR _index$[ebp]

; 618  : 
; 619  : 						// 투명이 아닌 색들을 Surface에 출력한다.
; 620  : 						memcpyAlpha(pDestTemp, pPixels+dist, colorCount-dist);

  000bf	8b c3		 mov	 eax, ebx
  000c1	2b c1		 sub	 eax, ecx
  000c3	50		 push	 eax
  000c4	8d 04 4e	 lea	 eax, DWORD PTR [esi+ecx*2]
  000c7	50		 push	 eax
  000c8	89 4d e8	 mov	 DWORD PTR _dist$[ebp], ecx
  000cb	8b 4d fc	 mov	 ecx, DWORD PTR _this$[ebp]
  000ce	57		 push	 edi
  000cf	e8 00 00 00 00	 call	 ?memcpyAlpha@CAlphaSprite@@QAEXPAG0G@Z ; CAlphaSprite::memcpyAlpha

; 621  : 						pDestTemp += colorCount-dist;

  000d4	8b c3		 mov	 eax, ebx
  000d6	2b 45 e8	 sub	 eax, DWORD PTR _dist$[ebp]
  000d9	8d 3c 47	 lea	 edi, DWORD PTR [edi+eax*2]
$L104803:

; 622  : 
; 623  : 						// 이제부터는 계속 출력한다.
; 624  : 						bPut = TRUE;

  000dc	c7 45 f4 01 00
	00 00		 mov	 DWORD PTR _bPut$[ebp], 1
$L104802:
  000e3	8b 45 10	 mov	 eax, DWORD PTR _pRect$[ebp]
$L104798:

; 625  : 					}
; 626  : 				}				
; 627  : 
; 628  : 				// 투명이 아닌 색만큼 index증가				
; 629  : 				pPixels += (colorCount<<1);		
; 630  : 
; 631  : 				index += colorCount;

  000e6	8b 55 f8	 mov	 edx, DWORD PTR _index$[ebp]
  000e9	03 d3		 add	 edx, ebx

; 632  : 			} while (--j);

  000eb	ff 4d f0	 dec	 DWORD PTR _j$[ebp]
  000ee	8d 34 9e	 lea	 esi, DWORD PTR [esi+ebx*4]
  000f1	0f 85 62 ff ff
	ff		 jne	 $L103231
  000f7	eb 13		 jmp	 SHORT $L103233
$L104796:

; 593  : 					{							
; 594  : 						// 투명이 아닌 색들을 Surface에 출력한다.
; 595  : 						memcpyAlpha(pDestTemp, pPixels, pRect->right - index);

  000f9	0f b7 40 08	 movzx	 eax, WORD PTR [eax+8]
  000fd	66 2b 45 f8	 sub	 ax, WORD PTR _index$[ebp]
  00101	50		 push	 eax
  00102	56		 push	 esi
  00103	57		 push	 edi
  00104	e8 00 00 00 00	 call	 ?memcpyAlpha@CAlphaSprite@@QAEXPAG0G@Z ; CAlphaSprite::memcpyAlpha
  00109	8b 45 10	 mov	 eax, DWORD PTR _pRect$[ebp]
$L103233:

; 633  : 		}
; 634  : 
; 635  : 		pDest = (WORD*)((BYTE*)pDest + pitch);

  0010c	0f b7 4d 0c	 movzx	 ecx, WORD PTR _pitch$[ebp]
  00110	01 4d 08	 add	 DWORD PTR _pDest$[ebp], ecx
  00113	8b 4d ec	 mov	 ecx, DWORD PTR _i$[ebp]
  00116	41		 inc	 ecx
  00117	3b 4d e4	 cmp	 ecx, DWORD PTR _rectBottom$[ebp]
  0011a	89 4d ec	 mov	 DWORD PTR _i$[ebp], ecx
  0011d	0f 8c 0e ff ff
	ff		 jl	 $L104801
  00123	5f		 pop	 edi
  00124	5b		 pop	 ebx
$L103229:
  00125	5e		 pop	 esi

; 636  : 	}
; 637  : }

  00126	c9		 leave
  00127	c2 0c 00	 ret	 12			; 0000000cH
?BltClip@CAlphaSprite@@QAEXPAGGPAUtagRECT@@@Z ENDP	; CAlphaSprite::BltClip
_TEXT	ENDS
PUBLIC	?Blt@CAlphaSprite@@QAEXPAGG@Z			; CAlphaSprite::Blt
; Function compile flags: /Ogsy
;	COMDAT ?Blt@CAlphaSprite@@QAEXPAGG@Z
_TEXT	SEGMENT
_j$ = -12						; size = 4
_this$ = -8						; size = 4
_i$ = -4						; size = 4
_pDest$ = 8						; size = 4
_pitch$ = 12						; size = 2
?Blt@CAlphaSprite@@QAEXPAGG@Z PROC NEAR			; CAlphaSprite::Blt, COMDAT
; _this$ = ecx

; 646  : {

  00000	55		 push	 ebp
  00001	8b ec		 mov	 ebp, esp
  00003	83 ec 0c	 sub	 esp, 12			; 0000000cH

; 647  : 	int	count,			
; 648  : 			colorCount;
; 649  : 
; 650  : 	WORD	*pDestTemp,
; 651  : 			*pPixels;
; 652  : 
; 653  : 	register int i;
; 654  : 	register int j;
; 655  : 	int rectBottom = m_Height;

  00006	0f b7 41 06	 movzx	 eax, WORD PTR [ecx+6]

; 656  : 
; 657  : 	if (rectBottom > 0)

  0000a	85 c0		 test	 eax, eax
  0000c	89 4d f8	 mov	 DWORD PTR _this$[ebp], ecx
  0000f	7e 67		 jle	 SHORT $L103260

; 658  : 	{
; 659  : 		i = rectBottom-1;

  00011	8d 50 ff	 lea	 edx, DWORD PTR [eax-1]

; 660  : 		pDest = (WORD*)((BYTE*)pDest + i*pitch);

  00014	0f b7 45 0c	 movzx	 eax, WORD PTR _pitch$[ebp]
  00018	0f af c2	 imul	 eax, edx
  0001b	01 45 08	 add	 DWORD PTR _pDest$[ebp], eax
  0001e	53		 push	 ebx
  0001f	56		 push	 esi
  00020	57		 push	 edi
  00021	89 55 fc	 mov	 DWORD PTR _i$[ebp], edx
  00024	eb 03		 jmp	 SHORT $L103258
$L104809:
  00026	8b 4d f8	 mov	 ecx, DWORD PTR _this$[ebp]
$L103258:

; 661  : 
; 662  : 		do
; 663  : 		{
; 664  : 			pPixels		= m_Pixels[i];

  00029	8b 41 08	 mov	 eax, DWORD PTR [ecx+8]
  0002c	8b 4d fc	 mov	 ecx, DWORD PTR _i$[ebp]
  0002f	8b 34 88	 mov	 esi, DWORD PTR [eax+ecx*4]

; 665  : 			pDestTemp	= pDest;
; 666  : 
; 667  : 			// (투명수,색깔수,색깔들)의 반복 수		
; 668  : 			count	= *pPixels++;		

  00032	0f b7 06	 movzx	 eax, WORD PTR [esi]
  00035	8b 5d 08	 mov	 ebx, DWORD PTR _pDest$[ebp]
  00038	46		 inc	 esi
  00039	46		 inc	 esi

; 669  : 
; 670  : 			// 한 줄 출력
; 671  : 			if (count > 0)

  0003a	85 c0		 test	 eax, eax
  0003c	7e 26		 jle	 SHORT $L103264

; 672  : 			{			
; 673  : 				j = count;

  0003e	89 45 f4	 mov	 DWORD PTR _j$[ebp], eax
$L103262:

; 674  : 				do
; 675  : 				{
; 676  : 					pDestTemp += *pPixels++;		// 투명색만큼 건너 뛴다.

  00041	0f b7 06	 movzx	 eax, WORD PTR [esi]

; 677  : 					colorCount = *pPixels++;		// 투명 아닌 색 수				
; 678  : 
; 679  : 					// 투명이 아닌 색들을 Surface에 출력한다.
; 680  : 					memcpyAlpha(pDestTemp, pPixels, colorCount);

  00044	8b 4d f8	 mov	 ecx, DWORD PTR _this$[ebp]
  00047	46		 inc	 esi
  00048	46		 inc	 esi
  00049	0f b7 3e	 movzx	 edi, WORD PTR [esi]
  0004c	46		 inc	 esi
  0004d	57		 push	 edi
  0004e	46		 inc	 esi
  0004f	8d 1c 43	 lea	 ebx, DWORD PTR [ebx+eax*2]
  00052	56		 push	 esi
  00053	53		 push	 ebx
  00054	e8 00 00 00 00	 call	 ?memcpyAlpha@CAlphaSprite@@QAEXPAG0G@Z ; CAlphaSprite::memcpyAlpha

; 681  : 					
; 682  : 					pDestTemp	+= colorCount;
; 683  : 
; 684  : 					// 실제 점 개수는 alpha값 때문에 2배이다.
; 685  : 					pPixels		+= (colorCount<<1);
; 686  : 				} while (--j);

  00059	ff 4d f4	 dec	 DWORD PTR _j$[ebp]
  0005c	8d 1c 7b	 lea	 ebx, DWORD PTR [ebx+edi*2]
  0005f	8d 34 be	 lea	 esi, DWORD PTR [esi+edi*4]
  00062	75 dd		 jne	 SHORT $L103262
$L103264:

; 687  : 			}
; 688  : 
; 689  : 			pDest = (WORD*)((BYTE*)pDest - pitch);

  00064	0f b7 45 0c	 movzx	 eax, WORD PTR _pitch$[ebp]
  00068	29 45 08	 sub	 DWORD PTR _pDest$[ebp], eax

; 690  : 		} while (i--);

  0006b	8b 45 fc	 mov	 eax, DWORD PTR _i$[ebp]
  0006e	ff 4d fc	 dec	 DWORD PTR _i$[ebp]
  00071	85 c0		 test	 eax, eax
  00073	75 b1		 jne	 SHORT $L104809
  00075	5f		 pop	 edi
  00076	5e		 pop	 esi
  00077	5b		 pop	 ebx
$L103260:

; 691  : 	}
; 692  : }

  00078	c9		 leave
  00079	c2 08 00	 ret	 8
?Blt@CAlphaSprite@@QAEXPAGG@Z ENDP			; CAlphaSprite::Blt
_TEXT	ENDS
PUBLIC	?BltClipLeft@CAlphaSprite@@QAEXPAGGPAUtagRECT@@@Z ; CAlphaSprite::BltClipLeft
; Function compile flags: /Ogsy
;	COMDAT ?BltClipLeft@CAlphaSprite@@QAEXPAGGPAUtagRECT@@@Z
_TEXT	SEGMENT
_rectBottom$ = -16					; size = 4
_rectLeft$ = -12					; size = 4
_i$ = -8						; size = 4
_this$ = -4						; size = 4
_pDest$ = 8						; size = 4
_pitch$ = 12						; size = 2
_j$ = 16						; size = 4
_pRect$ = 16						; size = 4
?BltClipLeft@CAlphaSprite@@QAEXPAGGPAUtagRECT@@@Z PROC NEAR ; CAlphaSprite::BltClipLeft, COMDAT
; _this$ = ecx

; 702  : {

  00000	55		 push	 ebp
  00001	8b ec		 mov	 ebp, esp
  00003	83 ec 10	 sub	 esp, 16			; 00000010H

; 703  : 	WORD	*pPixels,
; 704  : 			*pDestTemp;
; 705  : 
; 706  : 	//--------------------------------------------
; 707  : 	// pRect만큼의 점을 출력한다.
; 708  : 	//--------------------------------------------
; 709  : 	int	count,
; 710  : 			transCount, 
; 711  : 			colorCount,
; 712  : 			index,
; 713  : 			dist;
; 714  : 
; 715  : 	register int i;
; 716  : 	register int j;
; 717  : 
; 718  : 	int rectBottom = pRect->bottom;

  00006	8b 45 10	 mov	 eax, DWORD PTR _pRect$[ebp]
  00009	53		 push	 ebx

; 719  : 	int rectLeft = pRect->left;

  0000a	8b 18		 mov	 ebx, DWORD PTR [eax]
  0000c	89 4d fc	 mov	 DWORD PTR _this$[ebp], ecx
  0000f	8b 48 0c	 mov	 ecx, DWORD PTR [eax+12]

; 720  : 
; 721  : 	//---------------------------------------------
; 722  : 	// 출력해야하는 모든 줄에 대해서..
; 723  : 	//---------------------------------------------
; 724  : 	for (i=pRect->top; i<rectBottom; i++)

  00012	8b 40 04	 mov	 eax, DWORD PTR [eax+4]
  00015	3b c1		 cmp	 eax, ecx
  00017	89 4d f0	 mov	 DWORD PTR _rectBottom$[ebp], ecx
  0001a	89 5d f4	 mov	 DWORD PTR _rectLeft$[ebp], ebx
  0001d	89 45 f8	 mov	 DWORD PTR _i$[ebp], eax
  00020	0f 8d c8 00 00
	00		 jge	 $L103286
  00026	56		 push	 esi
  00027	57		 push	 edi
  00028	eb 03		 jmp	 SHORT $L103284
$L104819:
  0002a	8b 5d f4	 mov	 ebx, DWORD PTR _rectLeft$[ebp]
$L103284:

; 725  : 	{
; 726  : 		pPixels = m_Pixels[i];

  0002d	8b 4d fc	 mov	 ecx, DWORD PTR _this$[ebp]
  00030	8b 49 08	 mov	 ecx, DWORD PTR [ecx+8]
  00033	8b 34 81	 mov	 esi, DWORD PTR [ecx+eax*4]

; 727  : 		pDestTemp = pDest;		
; 728  : 
; 729  : 		// (투명수,색깔수,색깔들)의 반복 수
; 730  : 		count = *pPixels++;		

  00036	0f b7 16	 movzx	 edx, WORD PTR [esi]
  00039	8b 4d 08	 mov	 ecx, DWORD PTR _pDest$[ebp]
  0003c	46		 inc	 esi
  0003d	46		 inc	 esi

; 731  : 
; 732  : 		// 한 줄 출력		
; 733  : 		index = 0;

  0003e	33 c0		 xor	 eax, eax

; 734  : 		
; 735  : 		//---------------------------------------------
; 736  : 		// 각 줄마다 Clipping을 해줘야 하는데...
; 737  : 		// xxxxOOOOOOOOOOOOOO인 경우이므로..
; 738  : 		//---------------------------------------------
; 739  : 		// xxxx부분까지 check해주는 루틴
; 740  : 		//---------------------------------------------
; 741  : 		// 한 줄 출력
; 742  : 		if (count > 0)

  00040	85 d2		 test	 edx, edx
  00042	0f 8e 8d 00 00
	00		 jle	 $L103297

; 743  : 		{			
; 744  : 			j = count;

  00048	89 55 10	 mov	 DWORD PTR _j$[ebp], edx
$L103288:

; 745  : 			do
; 746  : 			{
; 747  : 				transCount = *pPixels++;		// 투명색 수			

  0004b	0f b7 16	 movzx	 edx, WORD PTR [esi]
  0004e	46		 inc	 esi
  0004f	46		 inc	 esi

; 748  : 				colorCount = *pPixels++;		// 투명 아닌 색 수			

  00050	0f b7 3e	 movzx	 edi, WORD PTR [esi]

; 749  : 						
; 750  : 				// 투명색만큼 index증가			
; 751  : 				index += transCount;

  00053	03 c2		 add	 eax, edx
  00055	46		 inc	 esi

; 752  : 				
; 753  : 			
; 754  : 				//---------------------------------------------
; 755  : 				// xxxx범위를 넘어가게 되는 경우
; 756  : 				//---------------------------------------------
; 757  : 				if (index+colorCount > rectLeft)

  00056	8d 14 07	 lea	 edx, DWORD PTR [edi+eax]
  00059	46		 inc	 esi
  0005a	3b d3		 cmp	 edx, ebx
  0005c	7f 0c		 jg	 SHORT $L104815

; 787  : 
; 788  : 						// 이제부터는 계속 출력한다.
; 789  : 						break;
; 790  : 					}
; 791  : 				}					
; 792  : 
; 793  : 				// 투명이 아닌 색만큼 index증가				
; 794  : 				pPixels += (colorCount<<1);
; 795  : 				index += colorCount;
; 796  : 			} while (--j);

  0005e	ff 4d 10	 dec	 DWORD PTR _j$[ebp]
  00061	8d 34 be	 lea	 esi, DWORD PTR [esi+edi*4]
  00064	8b c2		 mov	 eax, edx
  00066	75 e3		 jne	 SHORT $L103288
  00068	eb 3f		 jmp	 SHORT $L103290
$L104815:

; 758  : 				{
; 759  : 					//---------------------------------------------
; 760  : 					// 투명색만으로 xxxx범위를 넘어갔을 경우
; 761  : 					//---------------------------------------------
; 762  : 					if (index > rectLeft)

  0006a	3b c3		 cmp	 eax, ebx
  0006c	7e 18		 jle	 SHORT $L103292

; 763  : 					{	
; 764  : 						// 투명색부분 건너띔
; 765  : 						pDestTemp += index - rectLeft;

  0006e	8b 4d 08	 mov	 ecx, DWORD PTR _pDest$[ebp]

; 766  : 
; 767  : 						// 이번 단계는 모두 출력
; 768  : 						memcpyAlpha(pDestTemp, pPixels, colorCount);

  00071	57		 push	 edi
  00072	2b c3		 sub	 eax, ebx
  00074	8d 1c 41	 lea	 ebx, DWORD PTR [ecx+eax*2]
  00077	8b 4d fc	 mov	 ecx, DWORD PTR _this$[ebp]
  0007a	56		 push	 esi
  0007b	53		 push	 ebx
  0007c	e8 00 00 00 00	 call	 ?memcpyAlpha@CAlphaSprite@@QAEXPAG0G@Z ; CAlphaSprite::memcpyAlpha

; 769  : 						pDestTemp += colorCount;

  00081	8d 0c 7b	 lea	 ecx, DWORD PTR [ebx+edi*2]

; 770  : 						pPixels += (colorCount<<1);
; 771  : 
; 772  : 						// 이제부터는 계속 출력한다.
; 773  : 						break;

  00084	eb 20		 jmp	 SHORT $L104820
$L103292:

; 774  : 					}
; 775  : 					//---------------------------------------------
; 776  : 					// 투명색+투명아닌색의 일부까지 출력하면 
; 777  : 					// xxxx범위를 넘어가게 되는 경우
; 778  : 					//---------------------------------------------
; 779  : 					else
; 780  : 					{
; 781  : 						dist = rectLeft - index;
; 782  : 
; 783  : 						// 투명이 아닌 색들을 Surface에 출력한다.
; 784  : 						memcpyAlpha(pDestTemp, pPixels+(dist<<1), colorCount-dist);

  00086	8b 4d fc	 mov	 ecx, DWORD PTR _this$[ebp]
  00089	2b d8		 sub	 ebx, eax
  0008b	8b c7		 mov	 eax, edi
  0008d	2b c3		 sub	 eax, ebx
  0008f	50		 push	 eax
  00090	8d 04 9e	 lea	 eax, DWORD PTR [esi+ebx*4]
  00093	50		 push	 eax
  00094	ff 75 08	 push	 DWORD PTR _pDest$[ebp]
  00097	e8 00 00 00 00	 call	 ?memcpyAlpha@CAlphaSprite@@QAEXPAG0G@Z ; CAlphaSprite::memcpyAlpha

; 785  : 						pDestTemp += colorCount-dist;

  0009c	8b 4d 08	 mov	 ecx, DWORD PTR _pDest$[ebp]
  0009f	8b c7		 mov	 eax, edi
  000a1	2b c3		 sub	 eax, ebx
  000a3	8d 0c 41	 lea	 ecx, DWORD PTR [ecx+eax*2]
$L104820:

; 786  : 						pPixels += (colorCount<<1);

  000a6	8d 34 be	 lea	 esi, DWORD PTR [esi+edi*4]
$L103290:

; 797  : 
; 798  : 			//---------------------------------------------
; 799  : 			// 이제부터는 계속 출력한다.		
; 800  : 			//---------------------------------------------		
; 801  : 			if (--j > 0)

  000a9	ff 4d 10	 dec	 DWORD PTR _j$[ebp]
  000ac	83 7d 10 00	 cmp	 DWORD PTR _j$[ebp], 0
  000b0	7e 23		 jle	 SHORT $L103297
$L103295:

; 802  : 			{
; 803  : 				do
; 804  : 				{
; 805  : 					transCount = *pPixels++;		// 투명색 수			

  000b2	0f b7 06	 movzx	 eax, WORD PTR [esi]
  000b5	46		 inc	 esi
  000b6	46		 inc	 esi

; 806  : 					colorCount = *pPixels++;		// 투명 아닌 색 수			

  000b7	0f b7 3e	 movzx	 edi, WORD PTR [esi]
  000ba	46		 inc	 esi

; 807  : 							
; 808  : 					// 투명색만큼 건너 뛴다.
; 809  : 					pDestTemp += transCount;			
; 810  : 					
; 811  : 					// 투명색이 아닌만큼 출력해준다.
; 812  : 					memcpyAlpha(pDestTemp, pPixels, colorCount);

  000bb	57		 push	 edi
  000bc	46		 inc	 esi
  000bd	8d 1c 41	 lea	 ebx, DWORD PTR [ecx+eax*2]
  000c0	8b 4d fc	 mov	 ecx, DWORD PTR _this$[ebp]
  000c3	56		 push	 esi
  000c4	53		 push	 ebx
  000c5	e8 00 00 00 00	 call	 ?memcpyAlpha@CAlphaSprite@@QAEXPAG0G@Z ; CAlphaSprite::memcpyAlpha

; 813  : 
; 814  : 					// memory addr 증가
; 815  : 					pDestTemp += colorCount;
; 816  : 					pPixels += (colorCount<<1);
; 817  : 				} while (--j);

  000ca	ff 4d 10	 dec	 DWORD PTR _j$[ebp]
  000cd	8d 0c 7b	 lea	 ecx, DWORD PTR [ebx+edi*2]
  000d0	8d 34 be	 lea	 esi, DWORD PTR [esi+edi*4]
  000d3	75 dd		 jne	 SHORT $L103295
$L103297:

; 818  : 			}
; 819  : 		}
; 820  : 		
; 821  : 
; 822  : 		pDest = (WORD*)((BYTE*)pDest + pitch);

  000d5	0f b7 45 0c	 movzx	 eax, WORD PTR _pitch$[ebp]
  000d9	01 45 08	 add	 DWORD PTR _pDest$[ebp], eax
  000dc	8b 45 f8	 mov	 eax, DWORD PTR _i$[ebp]
  000df	40		 inc	 eax
  000e0	3b 45 f0	 cmp	 eax, DWORD PTR _rectBottom$[ebp]
  000e3	89 45 f8	 mov	 DWORD PTR _i$[ebp], eax
  000e6	0f 8c 3e ff ff
	ff		 jl	 $L104819
  000ec	5f		 pop	 edi
  000ed	5e		 pop	 esi
$L103286:
  000ee	5b		 pop	 ebx

; 823  : 	}
; 824  : }

  000ef	c9		 leave
  000f0	c2 0c 00	 ret	 12			; 0000000cH
?BltClipLeft@CAlphaSprite@@QAEXPAGGPAUtagRECT@@@Z ENDP	; CAlphaSprite::BltClipLeft
_TEXT	ENDS
PUBLIC	?BltClipRight@CAlphaSprite@@QAEXPAGGPAUtagRECT@@@Z ; CAlphaSprite::BltClipRight
; Function compile flags: /Ogsy
;	COMDAT ?BltClipRight@CAlphaSprite@@QAEXPAGGPAUtagRECT@@@Z
_TEXT	SEGMENT
_rectBottom$ = -20					; size = 4
tv183 = -16						; size = 4
_i$ = -12						; size = 4
_j$ = -8						; size = 4
_this$ = -4						; size = 4
_pDest$ = 8						; size = 4
_pitch$ = 12						; size = 2
_rectRight$ = 16					; size = 4
_pRect$ = 16						; size = 4
?BltClipRight@CAlphaSprite@@QAEXPAGGPAUtagRECT@@@Z PROC NEAR ; CAlphaSprite::BltClipRight, COMDAT
; _this$ = ecx

; 834  : {

  00000	55		 push	 ebp
  00001	8b ec		 mov	 ebp, esp
  00003	83 ec 14	 sub	 esp, 20			; 00000014H

; 835  : 	WORD	*pPixels,
; 836  : 			*pDestTemp;
; 837  : 
; 838  : 	//--------------------------------------------
; 839  : 	// pRect만큼의 점을 출력한다.
; 840  : 	//--------------------------------------------
; 841  : 	int	count,
; 842  : 			transCount, 
; 843  : 			colorCount,
; 844  : 			index;
; 845  : 
; 846  : 	register int	i;
; 847  : 	register int	j;
; 848  : 
; 849  : 	int rectBottom = pRect->bottom;

  00006	8b 45 10	 mov	 eax, DWORD PTR _pRect$[ebp]

; 850  : 	int rectRight = pRect->right;

  00009	8b 50 08	 mov	 edx, DWORD PTR [eax+8]
  0000c	89 4d fc	 mov	 DWORD PTR _this$[ebp], ecx
  0000f	8b 48 0c	 mov	 ecx, DWORD PTR [eax+12]

; 851  : 
; 852  : 	for (i=pRect->top; i<rectBottom; i++)

  00012	8b 40 04	 mov	 eax, DWORD PTR [eax+4]
  00015	3b c1		 cmp	 eax, ecx
  00017	89 4d ec	 mov	 DWORD PTR _rectBottom$[ebp], ecx
  0001a	89 55 10	 mov	 DWORD PTR _rectRight$[ebp], edx
  0001d	89 45 f4	 mov	 DWORD PTR _i$[ebp], eax
  00020	0f 8d 80 00 00
	00		 jge	 $L103318
  00026	53		 push	 ebx
  00027	56		 push	 esi
  00028	57		 push	 edi
$L104830:

; 853  : 	{
; 854  : 		pPixels = m_Pixels[i];

  00029	8b 4d fc	 mov	 ecx, DWORD PTR _this$[ebp]
  0002c	8b 49 08	 mov	 ecx, DWORD PTR [ecx+8]
  0002f	8b 34 81	 mov	 esi, DWORD PTR [ecx+eax*4]

; 855  : 		pDestTemp = pDest;		
; 856  : 
; 857  : 		// (투명수,색깔수,색깔들)의 반복 수
; 858  : 		count = *pPixels++;		

  00032	0f b7 06	 movzx	 eax, WORD PTR [esi]
  00035	8b 4d 08	 mov	 ecx, DWORD PTR _pDest$[ebp]
  00038	46		 inc	 esi
  00039	46		 inc	 esi

; 859  : 
; 860  : 		// 한 줄 출력		
; 861  : 		index = 0;

  0003a	33 d2		 xor	 edx, edx

; 862  : 			
; 863  : 		//---------------------------------------------
; 864  : 		// 각 줄마다 Clipping을 해줘야 하는데...		
; 865  : 		// OOOOOOOOOOOOOOxxxxx 이런 경우이다.
; 866  : 		//---------------------------------------------
; 867  : 		// OOOOOOOOOOOOOO까지만 출력해주면 된다.
; 868  : 		//---------------------------------------------
; 869  : 		// 한 줄 출력
; 870  : 		if (count > 0)

  0003c	85 c0		 test	 eax, eax
  0003e	7e 50		 jle	 SHORT $L103322

; 871  : 		{			
; 872  : 			j = count;

  00040	89 45 f8	 mov	 DWORD PTR _j$[ebp], eax
$L103320:

; 873  : 			do
; 874  : 			{
; 875  : 				transCount = *pPixels++;		// 투명색 수			

  00043	0f b7 06	 movzx	 eax, WORD PTR [esi]
  00046	46		 inc	 esi
  00047	46		 inc	 esi

; 876  : 				colorCount = *pPixels++;		// 투명 아닌 색 수			

  00048	0f b7 3e	 movzx	 edi, WORD PTR [esi]

; 877  : 						
; 878  : 				// 투명색만큼 index증가
; 879  : 				index += transCount;

  0004b	03 d0		 add	 edx, eax
  0004d	46		 inc	 esi

; 880  : 				
; 881  : 				// 출력하고 있다가 오른쪽부분부터 출력하지 말아야 할 경우가 있다.
; 882  : 				// 현재 출력하는 줄은 모두 출력한 것이므로 break해야 한다.
; 883  : 
; 884  : 				// 투명색까지 출력하는것만으로 더 이상 출력할 필요가 없을 경우
; 885  : 
; 886  : 				//---------------------------------------------
; 887  : 				// 오른쪽 끝까지 도달했을 경우
; 888  : 				//---------------------------------------------			
; 889  : 				if (index+colorCount > rectRight)

  0004e	8d 1c 17	 lea	 ebx, DWORD PTR [edi+edx]
  00051	46		 inc	 esi
  00052	3b 5d 10	 cmp	 ebx, DWORD PTR _rectRight$[ebp]
  00055	89 5d f0	 mov	 DWORD PTR tv183[ebp], ebx
  00058	7f 1e		 jg	 SHORT $L104825

; 903  : 						break;
; 904  : 					}
; 905  : 				}
; 906  : 
; 907  : 				// 투명색만큼 건너띄고
; 908  : 				pDestTemp += transCount;
; 909  : 
; 910  : 				// 출력
; 911  : 				memcpyAlpha(pDestTemp, pPixels, colorCount);

  0005a	57		 push	 edi
  0005b	8d 1c 41	 lea	 ebx, DWORD PTR [ecx+eax*2]
  0005e	8b 4d fc	 mov	 ecx, DWORD PTR _this$[ebp]
  00061	56		 push	 esi
  00062	53		 push	 ebx
  00063	e8 00 00 00 00	 call	 ?memcpyAlpha@CAlphaSprite@@QAEXPAG0G@Z ; CAlphaSprite::memcpyAlpha

; 912  : 				pDestTemp += colorCount;
; 913  : 				pPixels += (colorCount<<1);
; 914  : 				index += colorCount;
; 915  : 			} while (--j);

  00068	ff 4d f8	 dec	 DWORD PTR _j$[ebp]
  0006b	8b 55 f0	 mov	 edx, DWORD PTR tv183[ebp]
  0006e	8d 0c 7b	 lea	 ecx, DWORD PTR [ebx+edi*2]
  00071	8d 34 be	 lea	 esi, DWORD PTR [esi+edi*4]
  00074	75 cd		 jne	 SHORT $L103320
  00076	eb 18		 jmp	 SHORT $L103322
$L104825:

; 890  : 				{
; 891  : 					// 투명색만으로 더 출력할 필요가 없을 때
; 892  : 					if (index > rectRight)

  00078	3b 55 10	 cmp	 edx, DWORD PTR _rectRight$[ebp]
  0007b	7f 13		 jg	 SHORT $L103322

; 893  : 					{
; 894  : 						break;
; 895  : 					}
; 896  : 					// 투명색 아닌 것을 조금 출력해야 할 경우
; 897  : 					else
; 898  : 					{
; 899  : 						pDestTemp += transCount;
; 900  : 					
; 901  : 						// 투명이 아닌 색들을 Surface에 출력한다.
; 902  : 						memcpyAlpha(pDestTemp, pPixels, rectRight - index);

  0007d	8b 7d 10	 mov	 edi, DWORD PTR _rectRight$[ebp]
  00080	2b fa		 sub	 edi, edx
  00082	57		 push	 edi
  00083	8d 04 41	 lea	 eax, DWORD PTR [ecx+eax*2]
  00086	8b 4d fc	 mov	 ecx, DWORD PTR _this$[ebp]
  00089	56		 push	 esi
  0008a	50		 push	 eax
  0008b	e8 00 00 00 00	 call	 ?memcpyAlpha@CAlphaSprite@@QAEXPAG0G@Z ; CAlphaSprite::memcpyAlpha
$L103322:

; 916  : 		}
; 917  : 		
; 918  : 		pDest = (WORD*)((BYTE*)pDest + pitch);

  00090	0f b7 45 0c	 movzx	 eax, WORD PTR _pitch$[ebp]
  00094	01 45 08	 add	 DWORD PTR _pDest$[ebp], eax
  00097	8b 45 f4	 mov	 eax, DWORD PTR _i$[ebp]
  0009a	40		 inc	 eax
  0009b	3b 45 ec	 cmp	 eax, DWORD PTR _rectBottom$[ebp]
  0009e	89 45 f4	 mov	 DWORD PTR _i$[ebp], eax
  000a1	7c 86		 jl	 SHORT $L104830
  000a3	5f		 pop	 edi
  000a4	5e		 pop	 esi
  000a5	5b		 pop	 ebx
$L103318:

; 919  : 	}
; 920  : }

  000a6	c9		 leave
  000a7	c2 0c 00	 ret	 12			; 0000000cH
?BltClipRight@CAlphaSprite@@QAEXPAGGPAUtagRECT@@@Z ENDP	; CAlphaSprite::BltClipRight
_TEXT	ENDS
PUBLIC	?BltClipWidth@CAlphaSprite@@QAEXPAGGPAUtagRECT@@@Z ; CAlphaSprite::BltClipWidth
; Function compile flags: /Ogsy
;	COMDAT ?BltClipWidth@CAlphaSprite@@QAEXPAGGPAUtagRECT@@@Z
_TEXT	SEGMENT
_rectBottom$ = -32					; size = 4
_dist$ = -28						; size = 4
_i$ = -24						; size = 4
_rectLeft$ = -20					; size = 4
tv281 = -16						; size = 4
_this$ = -12						; size = 4
_pDestTemp$ = -8					; size = 4
_rectRight$ = -4					; size = 4
_pDest$ = 8						; size = 4
_pitch$ = 12						; size = 2
_j$ = 16						; size = 4
_pRect$ = 16						; size = 4
?BltClipWidth@CAlphaSprite@@QAEXPAGGPAUtagRECT@@@Z PROC NEAR ; CAlphaSprite::BltClipWidth, COMDAT
; _this$ = ecx

; 931  : {

  00000	55		 push	 ebp
  00001	8b ec		 mov	 ebp, esp
  00003	83 ec 20	 sub	 esp, 32			; 00000020H

; 932  : 	WORD	*pPixels,
; 933  : 			*pDestTemp;
; 934  : 
; 935  : 	//--------------------------------------------
; 936  : 	// pRect만큼의 점을 출력한다.
; 937  : 	//--------------------------------------------
; 938  : 	int	count,
; 939  : 			transCount, 
; 940  : 			colorCount,
; 941  : 			index,
; 942  : 			dist;
; 943  : 
; 944  : 	register int i;
; 945  : 	register int j;
; 946  : 
; 947  : 	int rectBottom = pRect->bottom;

  00006	8b 45 10	 mov	 eax, DWORD PTR _pRect$[ebp]

; 948  : 	int rectLeft = pRect->left;

  00009	8b 10		 mov	 edx, DWORD PTR [eax]
  0000b	56		 push	 esi

; 949  : 	int rectRight = pRect->right;

  0000c	8b 70 08	 mov	 esi, DWORD PTR [eax+8]
  0000f	89 4d f4	 mov	 DWORD PTR _this$[ebp], ecx
  00012	8b 48 0c	 mov	 ecx, DWORD PTR [eax+12]

; 950  : 
; 951  : 	//---------------------------------------------
; 952  : 	// 출력해야하는 모든 줄에 대해서..
; 953  : 	//---------------------------------------------
; 954  : 	for (i=pRect->top; i<rectBottom; i++)

  00015	8b 40 04	 mov	 eax, DWORD PTR [eax+4]
  00018	3b c1		 cmp	 eax, ecx
  0001a	89 4d e0	 mov	 DWORD PTR _rectBottom$[ebp], ecx
  0001d	89 55 ec	 mov	 DWORD PTR _rectLeft$[ebp], edx
  00020	89 75 fc	 mov	 DWORD PTR _rectRight$[ebp], esi
  00023	89 45 e8	 mov	 DWORD PTR _i$[ebp], eax
  00026	0f 8d 53 01 00
	00		 jge	 $L103348
  0002c	53		 push	 ebx
  0002d	57		 push	 edi
  0002e	eb 03		 jmp	 SHORT $L103346
$L104842:
  00030	8b 55 ec	 mov	 edx, DWORD PTR _rectLeft$[ebp]
$L103346:

; 955  : 	{
; 956  : 		pPixels = m_Pixels[i];

  00033	8b 4d f4	 mov	 ecx, DWORD PTR _this$[ebp]
  00036	8b 49 08	 mov	 ecx, DWORD PTR [ecx+8]
  00039	8b 34 81	 mov	 esi, DWORD PTR [ecx+eax*4]

; 957  : 		pDestTemp = pDest;		
; 958  : 
; 959  : 		// (투명수,색깔수,색깔들)의 반복 수
; 960  : 		count = *pPixels++;		

  0003c	0f b7 06	 movzx	 eax, WORD PTR [esi]
  0003f	8b 4d 08	 mov	 ecx, DWORD PTR _pDest$[ebp]
  00042	46		 inc	 esi
  00043	46		 inc	 esi

; 961  : 
; 962  : 		// 한 줄 출력		
; 963  : 		index = 0;

  00044	33 db		 xor	 ebx, ebx

; 964  : 		
; 965  : 		//---------------------------------------------
; 966  : 		// 각 줄마다 Clipping을 해줘야 하는데...
; 967  : 		// xxxxOOOOOOOOOOOOOO인 경우이므로..
; 968  : 		//---------------------------------------------
; 969  : 		// xxxx부분까지 check해주는 루틴
; 970  : 		//---------------------------------------------
; 971  : 		// 한 줄 출력
; 972  : 		if (count > 0)

  00046	85 c0		 test	 eax, eax
  00048	89 4d f8	 mov	 DWORD PTR _pDestTemp$[ebp], ecx
  0004b	0f 8e 15 01 00
	00		 jle	 $L103363

; 973  : 		{			
; 974  : 			j = count;

  00051	89 45 10	 mov	 DWORD PTR _j$[ebp], eax
$L103350:

; 975  : 			do
; 976  : 			{
; 977  : 				transCount = *pPixels++;		// 투명색 수			

  00054	0f b7 06	 movzx	 eax, WORD PTR [esi]
  00057	46		 inc	 esi
  00058	46		 inc	 esi

; 978  : 				colorCount = *pPixels++;		// 투명 아닌 색 수			

  00059	0f b7 3e	 movzx	 edi, WORD PTR [esi]

; 979  : 						
; 980  : 				// 투명색만큼 index증가			
; 981  : 				index += transCount;

  0005c	03 d8		 add	 ebx, eax
  0005e	46		 inc	 esi

; 982  : 				
; 983  : 			
; 984  : 				//---------------------------------------------
; 985  : 				// xxxx범위를 넘어가게 되는 경우
; 986  : 				//---------------------------------------------
; 987  : 				if (index+colorCount > rectLeft)

  0005f	8d 04 1f	 lea	 eax, DWORD PTR [edi+ebx]
  00062	46		 inc	 esi
  00063	3b c2		 cmp	 eax, edx
  00065	7f 0f		 jg	 SHORT $L104836

; 1044 : 
; 1045 : 						// 이제부터는 계속 출력한다.
; 1046 : 						break;
; 1047 : 					}
; 1048 : 				}					
; 1049 : 
; 1050 : 				// 투명이 아닌 색만큼 index증가				
; 1051 : 				pPixels += (colorCount<<1);
; 1052 : 				index += colorCount;
; 1053 : 			} while (--j);

  00067	ff 4d 10	 dec	 DWORD PTR _j$[ebp]
  0006a	8d 34 be	 lea	 esi, DWORD PTR [esi+edi*4]
  0006d	8b d8		 mov	 ebx, eax
  0006f	75 e3		 jne	 SHORT $L103350
  00071	e9 91 00 00 00	 jmp	 $L103352
$L104836:

; 988  : 				{
; 989  : 					//---------------------------------------------
; 990  : 					// 투명색만으로 xxxx범위를 넘어갔을 경우
; 991  : 					//---------------------------------------------
; 992  : 					if (index > rectLeft)

  00076	3b da		 cmp	 ebx, edx
  00078	7e 37		 jle	 SHORT $L103354

; 993  : 					{	
; 994  : 						// 투명색부분 건너띔
; 995  : 						pDestTemp += index - rectLeft;

  0007a	8b c3		 mov	 eax, ebx
  0007c	2b c2		 sub	 eax, edx
  0007e	8d 04 41	 lea	 eax, DWORD PTR [ecx+eax*2]

; 996  : 
; 997  : 						// 이번 단계는 모두 출력
; 998  : 						// 오른쪽 끝을 넘어가는 경우..
; 999  : 						if (index+colorCount > rectRight)

  00081	8d 0c 1f	 lea	 ecx, DWORD PTR [edi+ebx]
  00084	3b 4d fc	 cmp	 ecx, DWORD PTR _rectRight$[ebp]
  00087	89 45 f8	 mov	 DWORD PTR _pDestTemp$[ebp], eax
  0008a	89 4d f0	 mov	 DWORD PTR tv281[ebp], ecx
  0008d	7e 0f		 jle	 SHORT $L103355

; 1000 : 						{							
; 1001 : 							// 투명색만으로 오른쪽 끝 넘어가는 경우
; 1002 : 							if (index > rectRight)

  0008f	3b 5d fc	 cmp	 ebx, DWORD PTR _rectRight$[ebp]
  00092	7f 45		 jg	 SHORT $L104841

; 1003 : 							{
; 1004 : 							}
; 1005 : 							else
; 1006 : 							{
; 1007 : 								//memset((void*)pDestTemp, 0, (rectRight - index)<<1);
; 1008 : 								memcpyAlpha(pDestTemp, pPixels, (rectRight - index));

  00094	8b 4d fc	 mov	 ecx, DWORD PTR _rectRight$[ebp]
  00097	2b cb		 sub	 ecx, ebx
  00099	51		 push	 ecx
  0009a	56		 push	 esi
  0009b	50		 push	 eax

; 1009 : 							}
; 1010 : 
; 1011 : 							j = 0;
; 1012 : 							
; 1013 : 							break;

  0009c	eb 33		 jmp	 SHORT $L104845
$L103355:

; 1014 : 						}
; 1015 : 						memcpyAlpha(pDestTemp, pPixels, colorCount);

  0009e	8b 4d f4	 mov	 ecx, DWORD PTR _this$[ebp]
  000a1	57		 push	 edi
  000a2	56		 push	 esi
  000a3	50		 push	 eax
  000a4	e8 00 00 00 00	 call	 ?memcpyAlpha@CAlphaSprite@@QAEXPAG0G@Z ; CAlphaSprite::memcpyAlpha

; 1016 : 						pDestTemp += colorCount;

  000a9	8b 45 f8	 mov	 eax, DWORD PTR _pDestTemp$[ebp]
  000ac	8d 04 78	 lea	 eax, DWORD PTR [eax+edi*2]

; 1017 : 						pPixels += (colorCount<<1);
; 1018 : 						index += colorCount;
; 1019 : 
; 1020 : 						// 이제부터는 계속 출력한다.
; 1021 : 						break;

  000af	eb 4d		 jmp	 SHORT $L104844
$L103354:

; 1022 : 					}
; 1023 : 					//---------------------------------------------
; 1024 : 					// 투명색+투명아닌색의 일부까지 출력하면 
; 1025 : 					// xxxx범위를 넘어가게 되는 경우
; 1026 : 					//---------------------------------------------
; 1027 : 					else
; 1028 : 					{
; 1029 : 						dist = rectLeft - index;

  000b1	8b c2		 mov	 eax, edx

; 1030 : 
; 1031 : 						// 투명이 아닌 색들을 Surface에 출력한다.
; 1032 : 						// 오른쪽 끝을 넘어가는 경우..
; 1033 : 						if (index+colorCount > rectRight)

  000b3	8d 0c 1f	 lea	 ecx, DWORD PTR [edi+ebx]
  000b6	2b c3		 sub	 eax, ebx
  000b8	3b 4d fc	 cmp	 ecx, DWORD PTR _rectRight$[ebp]
  000bb	89 45 e4	 mov	 DWORD PTR _dist$[ebp], eax
  000be	89 4d f0	 mov	 DWORD PTR tv281[ebp], ecx
  000c1	7e 1c		 jle	 SHORT $L103359

; 1034 : 						{
; 1035 : 							memcpyAlpha(pDestTemp, pPixels+(dist<<1), (rectRight - rectLeft));

  000c3	8b 4d fc	 mov	 ecx, DWORD PTR _rectRight$[ebp]
  000c6	2b 4d ec	 sub	 ecx, DWORD PTR _rectLeft$[ebp]
  000c9	8d 04 86	 lea	 eax, DWORD PTR [esi+eax*4]
  000cc	51		 push	 ecx
  000cd	50		 push	 eax
  000ce	ff 75 08	 push	 DWORD PTR _pDest$[ebp]
$L104845:
  000d1	8b 4d f4	 mov	 ecx, DWORD PTR _this$[ebp]
  000d4	e8 00 00 00 00	 call	 ?memcpyAlpha@CAlphaSprite@@QAEXPAG0G@Z ; CAlphaSprite::memcpyAlpha
$L104841:

; 1036 : 
; 1037 : 							j = 0;						

  000d9	83 65 10 00	 and	 DWORD PTR _j$[ebp], 0

; 1038 : 							break;

  000dd	eb 28		 jmp	 SHORT $L103352
$L103359:

; 1039 : 						}		
; 1040 : 						memcpyAlpha(pDestTemp, pPixels+(dist<<1), colorCount-dist);

  000df	8b cf		 mov	 ecx, edi
  000e1	2b c8		 sub	 ecx, eax
  000e3	51		 push	 ecx
  000e4	8b 4d f4	 mov	 ecx, DWORD PTR _this$[ebp]
  000e7	8d 04 86	 lea	 eax, DWORD PTR [esi+eax*4]
  000ea	50		 push	 eax
  000eb	ff 75 08	 push	 DWORD PTR _pDest$[ebp]
  000ee	e8 00 00 00 00	 call	 ?memcpyAlpha@CAlphaSprite@@QAEXPAG0G@Z ; CAlphaSprite::memcpyAlpha

; 1041 : 						pDestTemp += colorCount-dist;

  000f3	8b 4d 08	 mov	 ecx, DWORD PTR _pDest$[ebp]
  000f6	8b c7		 mov	 eax, edi
  000f8	2b 45 e4	 sub	 eax, DWORD PTR _dist$[ebp]
  000fb	8d 04 41	 lea	 eax, DWORD PTR [ecx+eax*2]
$L104844:

; 1042 : 						pPixels += (colorCount<<1);
; 1043 : 						index += colorCount;

  000fe	8b 5d f0	 mov	 ebx, DWORD PTR tv281[ebp]
  00101	89 45 f8	 mov	 DWORD PTR _pDestTemp$[ebp], eax
  00104	8d 34 be	 lea	 esi, DWORD PTR [esi+edi*4]
$L103352:

; 1054 : 
; 1055 : 			//---------------------------------------------
; 1056 : 			// 각 줄마다 Clipping을 해줘야 하는데...		
; 1057 : 			// OOOOOOOOOOOOOOxxxxx 이런 경우이다.
; 1058 : 			//---------------------------------------------
; 1059 : 			// OOOOOOOOOOOOOO까지만 출력해주면 된다.
; 1060 : 			//---------------------------------------------
; 1061 : 			if (--j > 0)

  00107	ff 4d 10	 dec	 DWORD PTR _j$[ebp]
  0010a	83 7d 10 00	 cmp	 DWORD PTR _j$[ebp], 0
  0010e	7e 56		 jle	 SHORT $L103363
$L103361:

; 1062 : 			{
; 1063 : 				do
; 1064 : 				{
; 1065 : 					transCount = *pPixels++;		// 투명색 수			

  00110	0f b7 06	 movzx	 eax, WORD PTR [esi]
  00113	46		 inc	 esi
  00114	46		 inc	 esi

; 1066 : 					colorCount = *pPixels++;		// 투명 아닌 색 수			

  00115	0f b7 3e	 movzx	 edi, WORD PTR [esi]

; 1067 : 							
; 1068 : 					// 투명색만큼 index증가
; 1069 : 					index += transCount;

  00118	03 d8		 add	 ebx, eax
  0011a	46		 inc	 esi

; 1070 : 					
; 1071 : 					// 출력하고 있다가 오른쪽부분부터 출력하지 말아야 할 경우가 있다.
; 1072 : 					// 현재 출력하는 줄은 모두 출력한 것이므로 break해야 한다.
; 1073 : 
; 1074 : 					// 투명색까지 출력하는것만으로 더 이상 출력할 필요가 없을 경우
; 1075 : 
; 1076 : 					//---------------------------------------------
; 1077 : 					// 오른쪽 끝까지 도달했을 경우
; 1078 : 					//---------------------------------------------			
; 1079 : 					if (index+colorCount > rectRight)

  0011b	8d 0c 1f	 lea	 ecx, DWORD PTR [edi+ebx]
  0011e	46		 inc	 esi
  0011f	3b 4d fc	 cmp	 ecx, DWORD PTR _rectRight$[ebp]
  00122	89 4d f0	 mov	 DWORD PTR tv281[ebp], ecx
  00125	7f 24		 jg	 SHORT $L104837

; 1093 : 							break;
; 1094 : 						}
; 1095 : 					}
; 1096 : 
; 1097 : 					// 투명색만큼 건너띄고
; 1098 : 					pDestTemp += transCount;

  00127	8b 4d f8	 mov	 ecx, DWORD PTR _pDestTemp$[ebp]

; 1099 : 
; 1100 : 					// 출력
; 1101 : 					memcpyAlpha(pDestTemp, pPixels, colorCount);

  0012a	57		 push	 edi
  0012b	8d 1c 41	 lea	 ebx, DWORD PTR [ecx+eax*2]
  0012e	8b 4d f4	 mov	 ecx, DWORD PTR _this$[ebp]
  00131	56		 push	 esi
  00132	53		 push	 ebx
  00133	e8 00 00 00 00	 call	 ?memcpyAlpha@CAlphaSprite@@QAEXPAG0G@Z ; CAlphaSprite::memcpyAlpha

; 1102 : 					pDestTemp += colorCount;
; 1103 : 					pPixels += (colorCount<<1);
; 1104 : 					index += colorCount;
; 1105 : 				} while (--j);

  00138	ff 4d 10	 dec	 DWORD PTR _j$[ebp]
  0013b	8d 04 7b	 lea	 eax, DWORD PTR [ebx+edi*2]
  0013e	8b 5d f0	 mov	 ebx, DWORD PTR tv281[ebp]
  00141	89 45 f8	 mov	 DWORD PTR _pDestTemp$[ebp], eax
  00144	8d 34 be	 lea	 esi, DWORD PTR [esi+edi*4]
  00147	75 c7		 jne	 SHORT $L103361
  00149	eb 1b		 jmp	 SHORT $L103363
$L104837:

; 1080 : 					{
; 1081 : 						// 투명색만으로 더 출력할 필요가 없을 때
; 1082 : 						if (index > rectRight)

  0014b	3b 5d fc	 cmp	 ebx, DWORD PTR _rectRight$[ebp]
  0014e	7f 16		 jg	 SHORT $L103363

; 1083 : 						{
; 1084 : 							break;
; 1085 : 						}
; 1086 : 						// 투명색 아닌 것을 조금 출력해야 할 경우
; 1087 : 						else
; 1088 : 						{
; 1089 : 							pDestTemp += transCount;
; 1090 : 						
; 1091 : 							// 투명이 아닌 색들을 Surface에 출력한다.
; 1092 : 							memcpyAlpha(pDestTemp, pPixels, rectRight - index);

  00150	8b 4d fc	 mov	 ecx, DWORD PTR _rectRight$[ebp]
  00153	2b cb		 sub	 ecx, ebx
  00155	51		 push	 ecx
  00156	8b 4d f8	 mov	 ecx, DWORD PTR _pDestTemp$[ebp]
  00159	8d 04 41	 lea	 eax, DWORD PTR [ecx+eax*2]
  0015c	8b 4d f4	 mov	 ecx, DWORD PTR _this$[ebp]
  0015f	56		 push	 esi
  00160	50		 push	 eax
  00161	e8 00 00 00 00	 call	 ?memcpyAlpha@CAlphaSprite@@QAEXPAG0G@Z ; CAlphaSprite::memcpyAlpha
$L103363:

; 1106 : 			}
; 1107 : 		}		
; 1108 : 
; 1109 : 		pDest = (WORD*)((BYTE*)pDest + pitch);

  00166	0f b7 45 0c	 movzx	 eax, WORD PTR _pitch$[ebp]
  0016a	01 45 08	 add	 DWORD PTR _pDest$[ebp], eax
  0016d	8b 45 e8	 mov	 eax, DWORD PTR _i$[ebp]
  00170	40		 inc	 eax
  00171	3b 45 e0	 cmp	 eax, DWORD PTR _rectBottom$[ebp]
  00174	89 45 e8	 mov	 DWORD PTR _i$[ebp], eax
  00177	0f 8c b3 fe ff
	ff		 jl	 $L104842
  0017d	5f		 pop	 edi
  0017e	5b		 pop	 ebx
$L103348:
  0017f	5e		 pop	 esi

; 1110 : 	}
; 1111 : }

  00180	c9		 leave
  00181	c2 0c 00	 ret	 12			; 0000000cH
?BltClipWidth@CAlphaSprite@@QAEXPAGGPAUtagRECT@@@Z ENDP	; CAlphaSprite::BltClipWidth
_TEXT	ENDS
PUBLIC	?BltClipHeight@CAlphaSprite@@QAEXPAGGPAUtagRECT@@@Z ; CAlphaSprite::BltClipHeight
; Function compile flags: /Ogsy
;	COMDAT ?BltClipHeight@CAlphaSprite@@QAEXPAGGPAUtagRECT@@@Z
_TEXT	SEGMENT
_rectBottom$ = -12					; size = 4
_i$ = -8						; size = 4
_this$ = -4						; size = 4
_pDest$ = 8						; size = 4
_pitch$ = 12						; size = 2
_j$ = 16						; size = 4
_pRect$ = 16						; size = 4
?BltClipHeight@CAlphaSprite@@QAEXPAGGPAUtagRECT@@@Z PROC NEAR ; CAlphaSprite::BltClipHeight, COMDAT
; _this$ = ecx

; 1120 : {

  00000	55		 push	 ebp
  00001	8b ec		 mov	 ebp, esp
  00003	83 ec 0c	 sub	 esp, 12			; 0000000cH

; 1121 : 	int	count,			
; 1122 : 			colorCount;
; 1123 : 
; 1124 : 	WORD	*pDestTemp,
; 1125 : 			*pPixels;
; 1126 : 
; 1127 : 
; 1128 : 	register int i;
; 1129 : 	register int j;
; 1130 : 
; 1131 : 	int rectBottom = pRect->bottom;

  00006	8b 45 10	 mov	 eax, DWORD PTR _pRect$[ebp]
  00009	89 4d fc	 mov	 DWORD PTR _this$[ebp], ecx
  0000c	8b 48 0c	 mov	 ecx, DWORD PTR [eax+12]

; 1132 : 
; 1133 : 	for (i=pRect->top; i<rectBottom; i++)

  0000f	8b 40 04	 mov	 eax, DWORD PTR [eax+4]
  00012	3b c1		 cmp	 eax, ecx
  00014	89 4d f4	 mov	 DWORD PTR _rectBottom$[ebp], ecx
  00017	89 45 f8	 mov	 DWORD PTR _i$[ebp], eax
  0001a	7d 54		 jge	 SHORT $L103384
  0001c	53		 push	 ebx
  0001d	56		 push	 esi
  0001e	57		 push	 edi
$L104852:

; 1134 : 	{			
; 1135 : 		pPixels		= m_Pixels[i];

  0001f	8b 4d fc	 mov	 ecx, DWORD PTR _this$[ebp]
  00022	8b 49 08	 mov	 ecx, DWORD PTR [ecx+8]
  00025	8b 34 81	 mov	 esi, DWORD PTR [ecx+eax*4]

; 1136 : 		pDestTemp	= pDest;
; 1137 : 
; 1138 : 		// (투명수,색깔수,색깔들)의 반복 수		
; 1139 : 		count	= *pPixels++;		

  00028	0f b7 06	 movzx	 eax, WORD PTR [esi]
  0002b	8b 5d 08	 mov	 ebx, DWORD PTR _pDest$[ebp]
  0002e	46		 inc	 esi
  0002f	46		 inc	 esi

; 1140 : 
; 1141 : 		// 한 줄 출력
; 1142 : 		// 한 줄 출력
; 1143 : 		if (count > 0)

  00030	85 c0		 test	 eax, eax
  00032	7e 26		 jle	 SHORT $L103388

; 1144 : 		{			
; 1145 : 			j = count;

  00034	89 45 10	 mov	 DWORD PTR _j$[ebp], eax
$L103386:

; 1146 : 			do
; 1147 : 			{
; 1148 : 				pDestTemp += *pPixels++;		// 투명색만큼 건너 뛴다.

  00037	0f b7 06	 movzx	 eax, WORD PTR [esi]

; 1149 : 				colorCount = *pPixels++;		// 투명 아닌 색 수				
; 1150 : 
; 1151 : 				// 투명이 아닌 색들을 Surface에 출력한다.
; 1152 : 				memcpyAlpha(pDestTemp, pPixels, colorCount);

  0003a	8b 4d fc	 mov	 ecx, DWORD PTR _this$[ebp]
  0003d	46		 inc	 esi
  0003e	46		 inc	 esi
  0003f	0f b7 3e	 movzx	 edi, WORD PTR [esi]
  00042	46		 inc	 esi
  00043	57		 push	 edi
  00044	46		 inc	 esi
  00045	8d 1c 43	 lea	 ebx, DWORD PTR [ebx+eax*2]
  00048	56		 push	 esi
  00049	53		 push	 ebx
  0004a	e8 00 00 00 00	 call	 ?memcpyAlpha@CAlphaSprite@@QAEXPAG0G@Z ; CAlphaSprite::memcpyAlpha

; 1153 : 				
; 1154 : 				pDestTemp	+= colorCount;
; 1155 : 				pPixels		+= (colorCount<<1);
; 1156 : 			} while (--j);

  0004f	ff 4d 10	 dec	 DWORD PTR _j$[ebp]
  00052	8d 1c 7b	 lea	 ebx, DWORD PTR [ebx+edi*2]
  00055	8d 34 be	 lea	 esi, DWORD PTR [esi+edi*4]
  00058	75 dd		 jne	 SHORT $L103386
$L103388:

; 1157 : 		}
; 1158 : 
; 1159 : 		pDest = (WORD*)((BYTE*)pDest + pitch);

  0005a	0f b7 45 0c	 movzx	 eax, WORD PTR _pitch$[ebp]
  0005e	01 45 08	 add	 DWORD PTR _pDest$[ebp], eax
  00061	8b 45 f8	 mov	 eax, DWORD PTR _i$[ebp]
  00064	40		 inc	 eax
  00065	3b 45 f4	 cmp	 eax, DWORD PTR _rectBottom$[ebp]
  00068	89 45 f8	 mov	 DWORD PTR _i$[ebp], eax
  0006b	7c b2		 jl	 SHORT $L104852
  0006d	5f		 pop	 edi
  0006e	5e		 pop	 esi
  0006f	5b		 pop	 ebx
$L103384:

; 1160 : 	}
; 1161 : }

  00070	c9		 leave
  00071	c2 0c 00	 ret	 12			; 0000000cH
?BltClipHeight@CAlphaSprite@@QAEXPAGGPAUtagRECT@@@Z ENDP ; CAlphaSprite::BltClipHeight
_TEXT	ENDS
PUBLIC	?Blt4444@CAlphaSprite@@QAEXPAGG@Z		; CAlphaSprite::Blt4444
; Function compile flags: /Ogsy
;	COMDAT ?Blt4444@CAlphaSprite@@QAEXPAGG@Z
_TEXT	SEGMENT
_j$ = -12						; size = 4
_this$ = -8						; size = 4
_i$ = -4						; size = 4
_pDest$ = 8						; size = 4
_pitch$ = 12						; size = 2
?Blt4444@CAlphaSprite@@QAEXPAGG@Z PROC NEAR		; CAlphaSprite::Blt4444, COMDAT
; _this$ = ecx

; 1170 : {

  00000	55		 push	 ebp
  00001	8b ec		 mov	 ebp, esp
  00003	83 ec 0c	 sub	 esp, 12			; 0000000cH

; 1171 : 	int		count,			
; 1172 : 			colorCount;
; 1173 : 
; 1174 : 	WORD	*pDestTemp,
; 1175 : 			*pPixels;
; 1176 : 
; 1177 : 	register int i;
; 1178 : 	register int j;
; 1179 : 
; 1180 : 	int rectBottom = m_Height;

  00006	0f b7 41 06	 movzx	 eax, WORD PTR [ecx+6]

; 1181 : 
; 1182 : 	if (rectBottom > 0)

  0000a	85 c0		 test	 eax, eax
  0000c	89 4d f8	 mov	 DWORD PTR _this$[ebp], ecx
  0000f	7e 67		 jle	 SHORT $L103408

; 1183 : 	{
; 1184 : 		i = rectBottom-1;

  00011	8d 50 ff	 lea	 edx, DWORD PTR [eax-1]

; 1185 : 		pDest = (WORD*)((BYTE*)pDest + i*pitch);

  00014	0f b7 45 0c	 movzx	 eax, WORD PTR _pitch$[ebp]
  00018	0f af c2	 imul	 eax, edx
  0001b	01 45 08	 add	 DWORD PTR _pDest$[ebp], eax
  0001e	53		 push	 ebx
  0001f	56		 push	 esi
  00020	57		 push	 edi
  00021	89 55 fc	 mov	 DWORD PTR _i$[ebp], edx
  00024	eb 03		 jmp	 SHORT $L103406
$L104858:
  00026	8b 4d f8	 mov	 ecx, DWORD PTR _this$[ebp]
$L103406:

; 1186 : 
; 1187 : 		do
; 1188 : 		{
; 1189 : 			pPixels		= m_Pixels[i];

  00029	8b 41 08	 mov	 eax, DWORD PTR [ecx+8]
  0002c	8b 4d fc	 mov	 ecx, DWORD PTR _i$[ebp]
  0002f	8b 34 88	 mov	 esi, DWORD PTR [eax+ecx*4]

; 1190 : 			pDestTemp	= pDest;
; 1191 : 
; 1192 : 			// (투명수,색깔수,색깔들)의 반복 수		
; 1193 : 			count	= *pPixels++;		

  00032	0f b7 06	 movzx	 eax, WORD PTR [esi]
  00035	8b 5d 08	 mov	 ebx, DWORD PTR _pDest$[ebp]
  00038	46		 inc	 esi
  00039	46		 inc	 esi

; 1194 : 
; 1195 : 			// 한 줄 출력
; 1196 : 			// 한 줄 출력
; 1197 : 			if (count > 0)

  0003a	85 c0		 test	 eax, eax
  0003c	7e 26		 jle	 SHORT $L103412

; 1198 : 			{			
; 1199 : 				j = count;

  0003e	89 45 f4	 mov	 DWORD PTR _j$[ebp], eax
$L103410:

; 1200 : 				do
; 1201 : 				{				
; 1202 : 					pDestTemp += *pPixels++;		// 투명색만큼 건너 뛴다.

  00041	0f b7 06	 movzx	 eax, WORD PTR [esi]

; 1203 : 					colorCount = *pPixels++;		// 투명 아닌 색 수				
; 1204 : 
; 1205 : 					// 투명이 아닌 색들을 Surface에 출력한다.
; 1206 : 					memcpyAlpha4444(pDestTemp, pPixels, colorCount);

  00044	8b 4d f8	 mov	 ecx, DWORD PTR _this$[ebp]
  00047	46		 inc	 esi
  00048	46		 inc	 esi
  00049	0f b7 3e	 movzx	 edi, WORD PTR [esi]
  0004c	46		 inc	 esi
  0004d	57		 push	 edi
  0004e	46		 inc	 esi
  0004f	8d 1c 43	 lea	 ebx, DWORD PTR [ebx+eax*2]
  00052	56		 push	 esi
  00053	53		 push	 ebx
  00054	e8 00 00 00 00	 call	 ?memcpyAlpha4444@CAlphaSprite@@QAEXPAG0G@Z ; CAlphaSprite::memcpyAlpha4444

; 1207 : 					
; 1208 : 					pDestTemp	+= colorCount;
; 1209 : 
; 1210 : 					// 실제 점 개수는 alpha값 때문에 2배이다.
; 1211 : 					pPixels		+= (colorCount<<1);
; 1212 : 				} while (--j);

  00059	ff 4d f4	 dec	 DWORD PTR _j$[ebp]
  0005c	8d 1c 7b	 lea	 ebx, DWORD PTR [ebx+edi*2]
  0005f	8d 34 be	 lea	 esi, DWORD PTR [esi+edi*4]
  00062	75 dd		 jne	 SHORT $L103410
$L103412:

; 1213 : 			}
; 1214 : 
; 1215 : 			pDest = (WORD*)((BYTE*)pDest - pitch);

  00064	0f b7 45 0c	 movzx	 eax, WORD PTR _pitch$[ebp]
  00068	29 45 08	 sub	 DWORD PTR _pDest$[ebp], eax

; 1216 : 		} while (i--);

  0006b	8b 45 fc	 mov	 eax, DWORD PTR _i$[ebp]
  0006e	ff 4d fc	 dec	 DWORD PTR _i$[ebp]
  00071	85 c0		 test	 eax, eax
  00073	75 b1		 jne	 SHORT $L104858
  00075	5f		 pop	 edi
  00076	5e		 pop	 esi
  00077	5b		 pop	 ebx
$L103408:

; 1217 : 	}
; 1218 : }

  00078	c9		 leave
  00079	c2 08 00	 ret	 8
?Blt4444@CAlphaSprite@@QAEXPAGG@Z ENDP			; CAlphaSprite::Blt4444
_TEXT	ENDS
PUBLIC	?Blt4444ClipLeft@CAlphaSprite@@QAEXPAGGPAUtagRECT@@@Z ; CAlphaSprite::Blt4444ClipLeft
; Function compile flags: /Ogsy
;	COMDAT ?Blt4444ClipLeft@CAlphaSprite@@QAEXPAGGPAUtagRECT@@@Z
_TEXT	SEGMENT
_rectBottom$ = -16					; size = 4
_rectLeft$ = -12					; size = 4
_i$ = -8						; size = 4
_this$ = -4						; size = 4
_pDest$ = 8						; size = 4
_pitch$ = 12						; size = 2
_j$ = 16						; size = 4
_pRect$ = 16						; size = 4
?Blt4444ClipLeft@CAlphaSprite@@QAEXPAGGPAUtagRECT@@@Z PROC NEAR ; CAlphaSprite::Blt4444ClipLeft, COMDAT
; _this$ = ecx

; 1228 : {

  00000	55		 push	 ebp
  00001	8b ec		 mov	 ebp, esp
  00003	83 ec 10	 sub	 esp, 16			; 00000010H

; 1229 : 	WORD	*pPixels,
; 1230 : 			*pDestTemp;
; 1231 : 
; 1232 : 	//--------------------------------------------
; 1233 : 	// pRect만큼의 점을 출력한다.
; 1234 : 	//--------------------------------------------
; 1235 : 	int		count,
; 1236 : 			transCount, 
; 1237 : 			colorCount,
; 1238 : 			index,
; 1239 : 			dist;
; 1240 : 
; 1241 : 	register int i;
; 1242 : 	register int j;
; 1243 : 
; 1244 : 	int rectBottom = pRect->bottom;

  00006	8b 45 10	 mov	 eax, DWORD PTR _pRect$[ebp]
  00009	53		 push	 ebx

; 1245 : 	int rectLeft = pRect->left;

  0000a	8b 18		 mov	 ebx, DWORD PTR [eax]
  0000c	89 4d fc	 mov	 DWORD PTR _this$[ebp], ecx
  0000f	8b 48 0c	 mov	 ecx, DWORD PTR [eax+12]

; 1246 : 
; 1247 : 	//---------------------------------------------
; 1248 : 	// 출력해야하는 모든 줄에 대해서..
; 1249 : 	//---------------------------------------------
; 1250 : 	for (i=pRect->top; i<rectBottom; i++)

  00012	8b 40 04	 mov	 eax, DWORD PTR [eax+4]
  00015	3b c1		 cmp	 eax, ecx
  00017	89 4d f0	 mov	 DWORD PTR _rectBottom$[ebp], ecx
  0001a	89 5d f4	 mov	 DWORD PTR _rectLeft$[ebp], ebx
  0001d	89 45 f8	 mov	 DWORD PTR _i$[ebp], eax
  00020	0f 8d c8 00 00
	00		 jge	 $L103434
  00026	56		 push	 esi
  00027	57		 push	 edi
  00028	eb 03		 jmp	 SHORT $L103432
$L104868:
  0002a	8b 5d f4	 mov	 ebx, DWORD PTR _rectLeft$[ebp]
$L103432:

; 1251 : 	{
; 1252 : 		pPixels = m_Pixels[i];

  0002d	8b 4d fc	 mov	 ecx, DWORD PTR _this$[ebp]
  00030	8b 49 08	 mov	 ecx, DWORD PTR [ecx+8]
  00033	8b 34 81	 mov	 esi, DWORD PTR [ecx+eax*4]

; 1253 : 		pDestTemp = pDest;		
; 1254 : 
; 1255 : 		// (투명수,색깔수,색깔들)의 반복 수
; 1256 : 		count = *pPixels++;		

  00036	0f b7 16	 movzx	 edx, WORD PTR [esi]
  00039	8b 4d 08	 mov	 ecx, DWORD PTR _pDest$[ebp]
  0003c	46		 inc	 esi
  0003d	46		 inc	 esi

; 1257 : 
; 1258 : 		// 한 줄 출력		
; 1259 : 		index = 0;

  0003e	33 c0		 xor	 eax, eax

; 1260 : 		
; 1261 : 		//---------------------------------------------
; 1262 : 		// 각 줄마다 Clipping을 해줘야 하는데...
; 1263 : 		// xxxxOOOOOOOOOOOOOO인 경우이므로..
; 1264 : 		//---------------------------------------------
; 1265 : 		// xxxx부분까지 check해주는 루틴
; 1266 : 		//---------------------------------------------
; 1267 : 		// 한 줄 출력
; 1268 : 		if (count > 0)

  00040	85 d2		 test	 edx, edx
  00042	0f 8e 8d 00 00
	00		 jle	 $L103445

; 1269 : 		{			
; 1270 : 			j = count;

  00048	89 55 10	 mov	 DWORD PTR _j$[ebp], edx
$L103436:

; 1271 : 			do
; 1272 : 			{
; 1273 : 				transCount = *pPixels++;		// 투명색 수			

  0004b	0f b7 16	 movzx	 edx, WORD PTR [esi]
  0004e	46		 inc	 esi
  0004f	46		 inc	 esi

; 1274 : 				colorCount = *pPixels++;		// 투명 아닌 색 수			

  00050	0f b7 3e	 movzx	 edi, WORD PTR [esi]

; 1275 : 						
; 1276 : 				// 투명색만큼 index증가			
; 1277 : 				index += transCount;

  00053	03 c2		 add	 eax, edx
  00055	46		 inc	 esi

; 1278 : 				
; 1279 : 			
; 1280 : 				//---------------------------------------------
; 1281 : 				// xxxx범위를 넘어가게 되는 경우
; 1282 : 				//---------------------------------------------
; 1283 : 				if (index+colorCount > rectLeft)

  00056	8d 14 07	 lea	 edx, DWORD PTR [edi+eax]
  00059	46		 inc	 esi
  0005a	3b d3		 cmp	 edx, ebx
  0005c	7f 0c		 jg	 SHORT $L104864

; 1313 : 
; 1314 : 						// 이제부터는 계속 출력한다.
; 1315 : 						break;
; 1316 : 					}
; 1317 : 				}					
; 1318 : 
; 1319 : 				// 투명이 아닌 색만큼 index증가				
; 1320 : 				pPixels += (colorCount<<1);
; 1321 : 				index += colorCount;
; 1322 : 			} while (--j);

  0005e	ff 4d 10	 dec	 DWORD PTR _j$[ebp]
  00061	8d 34 be	 lea	 esi, DWORD PTR [esi+edi*4]
  00064	8b c2		 mov	 eax, edx
  00066	75 e3		 jne	 SHORT $L103436
  00068	eb 3f		 jmp	 SHORT $L103438
$L104864:

; 1284 : 				{
; 1285 : 					//---------------------------------------------
; 1286 : 					// 투명색만으로 xxxx범위를 넘어갔을 경우
; 1287 : 					//---------------------------------------------
; 1288 : 					if (index > rectLeft)

  0006a	3b c3		 cmp	 eax, ebx
  0006c	7e 18		 jle	 SHORT $L103440

; 1289 : 					{	
; 1290 : 						// 투명색부분 건너띔
; 1291 : 						pDestTemp += index - rectLeft;

  0006e	8b 4d 08	 mov	 ecx, DWORD PTR _pDest$[ebp]

; 1292 : 
; 1293 : 						// 이번 단계는 모두 출력
; 1294 : 						memcpyAlpha4444(pDestTemp, pPixels, colorCount);

  00071	57		 push	 edi
  00072	2b c3		 sub	 eax, ebx
  00074	8d 1c 41	 lea	 ebx, DWORD PTR [ecx+eax*2]
  00077	8b 4d fc	 mov	 ecx, DWORD PTR _this$[ebp]
  0007a	56		 push	 esi
  0007b	53		 push	 ebx
  0007c	e8 00 00 00 00	 call	 ?memcpyAlpha4444@CAlphaSprite@@QAEXPAG0G@Z ; CAlphaSprite::memcpyAlpha4444

; 1295 : 						pDestTemp += colorCount;

  00081	8d 0c 7b	 lea	 ecx, DWORD PTR [ebx+edi*2]

; 1296 : 						pPixels += (colorCount<<1);
; 1297 : 
; 1298 : 						// 이제부터는 계속 출력한다.
; 1299 : 						break;

  00084	eb 20		 jmp	 SHORT $L104869
$L103440:

; 1300 : 					}
; 1301 : 					//---------------------------------------------
; 1302 : 					// 투명색+투명아닌색의 일부까지 출력하면 
; 1303 : 					// xxxx범위를 넘어가게 되는 경우
; 1304 : 					//---------------------------------------------
; 1305 : 					else
; 1306 : 					{
; 1307 : 						dist = rectLeft - index;
; 1308 : 
; 1309 : 						// 투명이 아닌 색들을 Surface에 출력한다.
; 1310 : 						memcpyAlpha4444(pDestTemp, pPixels+(dist<<1), colorCount-dist);

  00086	8b 4d fc	 mov	 ecx, DWORD PTR _this$[ebp]
  00089	2b d8		 sub	 ebx, eax
  0008b	8b c7		 mov	 eax, edi
  0008d	2b c3		 sub	 eax, ebx
  0008f	50		 push	 eax
  00090	8d 04 9e	 lea	 eax, DWORD PTR [esi+ebx*4]
  00093	50		 push	 eax
  00094	ff 75 08	 push	 DWORD PTR _pDest$[ebp]
  00097	e8 00 00 00 00	 call	 ?memcpyAlpha4444@CAlphaSprite@@QAEXPAG0G@Z ; CAlphaSprite::memcpyAlpha4444

; 1311 : 						pDestTemp += colorCount-dist;

  0009c	8b 4d 08	 mov	 ecx, DWORD PTR _pDest$[ebp]
  0009f	8b c7		 mov	 eax, edi
  000a1	2b c3		 sub	 eax, ebx
  000a3	8d 0c 41	 lea	 ecx, DWORD PTR [ecx+eax*2]
$L104869:

; 1312 : 						pPixels += (colorCount<<1);

  000a6	8d 34 be	 lea	 esi, DWORD PTR [esi+edi*4]
$L103438:

; 1323 : 
; 1324 : 			//---------------------------------------------
; 1325 : 			// 이제부터는 계속 출력한다.		
; 1326 : 			//---------------------------------------------		
; 1327 : 			if (--j > 0)

  000a9	ff 4d 10	 dec	 DWORD PTR _j$[ebp]
  000ac	83 7d 10 00	 cmp	 DWORD PTR _j$[ebp], 0
  000b0	7e 23		 jle	 SHORT $L103445
$L103443:

; 1328 : 			{
; 1329 : 				do
; 1330 : 				{
; 1331 : 					transCount = *pPixels++;		// 투명색 수			

  000b2	0f b7 06	 movzx	 eax, WORD PTR [esi]
  000b5	46		 inc	 esi
  000b6	46		 inc	 esi

; 1332 : 					colorCount = *pPixels++;		// 투명 아닌 색 수			

  000b7	0f b7 3e	 movzx	 edi, WORD PTR [esi]
  000ba	46		 inc	 esi

; 1333 : 							
; 1334 : 					// 투명색만큼 건너 뛴다.
; 1335 : 					pDestTemp += transCount;			
; 1336 : 					
; 1337 : 					// 투명색이 아닌만큼 출력해준다.
; 1338 : 					memcpyAlpha4444(pDestTemp, pPixels, colorCount);

  000bb	57		 push	 edi
  000bc	46		 inc	 esi
  000bd	8d 1c 41	 lea	 ebx, DWORD PTR [ecx+eax*2]
  000c0	8b 4d fc	 mov	 ecx, DWORD PTR _this$[ebp]
  000c3	56		 push	 esi
  000c4	53		 push	 ebx
  000c5	e8 00 00 00 00	 call	 ?memcpyAlpha4444@CAlphaSprite@@QAEXPAG0G@Z ; CAlphaSprite::memcpyAlpha4444

; 1339 : 
; 1340 : 					// memory addr 증가
; 1341 : 					pDestTemp += colorCount;
; 1342 : 					pPixels += (colorCount<<1);
; 1343 : 				} while (--j);

  000ca	ff 4d 10	 dec	 DWORD PTR _j$[ebp]
  000cd	8d 0c 7b	 lea	 ecx, DWORD PTR [ebx+edi*2]
  000d0	8d 34 be	 lea	 esi, DWORD PTR [esi+edi*4]
  000d3	75 dd		 jne	 SHORT $L103443
$L103445:

; 1344 : 			}
; 1345 : 		}
; 1346 : 		
; 1347 : 
; 1348 : 		pDest = (WORD*)((BYTE*)pDest + pitch);

  000d5	0f b7 45 0c	 movzx	 eax, WORD PTR _pitch$[ebp]
  000d9	01 45 08	 add	 DWORD PTR _pDest$[ebp], eax
  000dc	8b 45 f8	 mov	 eax, DWORD PTR _i$[ebp]
  000df	40		 inc	 eax
  000e0	3b 45 f0	 cmp	 eax, DWORD PTR _rectBottom$[ebp]
  000e3	89 45 f8	 mov	 DWORD PTR _i$[ebp], eax
  000e6	0f 8c 3e ff ff
	ff		 jl	 $L104868
  000ec	5f		 pop	 edi
  000ed	5e		 pop	 esi
$L103434:
  000ee	5b		 pop	 ebx

; 1349 : 	}
; 1350 : }

  000ef	c9		 leave
  000f0	c2 0c 00	 ret	 12			; 0000000cH
?Blt4444ClipLeft@CAlphaSprite@@QAEXPAGGPAUtagRECT@@@Z ENDP ; CAlphaSprite::Blt4444ClipLeft
_TEXT	ENDS
PUBLIC	?Blt4444ClipRight@CAlphaSprite@@QAEXPAGGPAUtagRECT@@@Z ; CAlphaSprite::Blt4444ClipRight
; Function compile flags: /Ogsy
;	COMDAT ?Blt4444ClipRight@CAlphaSprite@@QAEXPAGGPAUtagRECT@@@Z
_TEXT	SEGMENT
_rectBottom$ = -20					; size = 4
tv183 = -16						; size = 4
_i$ = -12						; size = 4
_j$ = -8						; size = 4
_this$ = -4						; size = 4
_pDest$ = 8						; size = 4
_pitch$ = 12						; size = 2
_rectRight$ = 16					; size = 4
_pRect$ = 16						; size = 4
?Blt4444ClipRight@CAlphaSprite@@QAEXPAGGPAUtagRECT@@@Z PROC NEAR ; CAlphaSprite::Blt4444ClipRight, COMDAT
; _this$ = ecx

; 1360 : {

  00000	55		 push	 ebp
  00001	8b ec		 mov	 ebp, esp
  00003	83 ec 14	 sub	 esp, 20			; 00000014H

; 1361 : 	WORD	*pPixels,
; 1362 : 			*pDestTemp;
; 1363 : 
; 1364 : 	//--------------------------------------------
; 1365 : 	// pRect만큼의 점을 출력한다.
; 1366 : 	//--------------------------------------------
; 1367 : 	int		count,
; 1368 : 			transCount, 
; 1369 : 			colorCount,
; 1370 : 			index;
; 1371 : 
; 1372 : 	register int	i;
; 1373 : 	register int	j;
; 1374 : 
; 1375 : 	int rectBottom = pRect->bottom;

  00006	8b 45 10	 mov	 eax, DWORD PTR _pRect$[ebp]

; 1376 : 	int rectRight = pRect->right;

  00009	8b 50 08	 mov	 edx, DWORD PTR [eax+8]
  0000c	89 4d fc	 mov	 DWORD PTR _this$[ebp], ecx
  0000f	8b 48 0c	 mov	 ecx, DWORD PTR [eax+12]

; 1377 : 
; 1378 : 	for (i=pRect->top; i<rectBottom; i++)

  00012	8b 40 04	 mov	 eax, DWORD PTR [eax+4]
  00015	3b c1		 cmp	 eax, ecx
  00017	89 4d ec	 mov	 DWORD PTR _rectBottom$[ebp], ecx
  0001a	89 55 10	 mov	 DWORD PTR _rectRight$[ebp], edx
  0001d	89 45 f4	 mov	 DWORD PTR _i$[ebp], eax
  00020	0f 8d 80 00 00
	00		 jge	 $L103466
  00026	53		 push	 ebx
  00027	56		 push	 esi
  00028	57		 push	 edi
$L104879:

; 1379 : 	{
; 1380 : 		pPixels = m_Pixels[i];

  00029	8b 4d fc	 mov	 ecx, DWORD PTR _this$[ebp]
  0002c	8b 49 08	 mov	 ecx, DWORD PTR [ecx+8]
  0002f	8b 34 81	 mov	 esi, DWORD PTR [ecx+eax*4]

; 1381 : 		pDestTemp = pDest;		
; 1382 : 
; 1383 : 		// (투명수,색깔수,색깔들)의 반복 수
; 1384 : 		count = *pPixels++;		

  00032	0f b7 06	 movzx	 eax, WORD PTR [esi]
  00035	8b 4d 08	 mov	 ecx, DWORD PTR _pDest$[ebp]
  00038	46		 inc	 esi
  00039	46		 inc	 esi

; 1385 : 
; 1386 : 		// 한 줄 출력		
; 1387 : 		index = 0;

  0003a	33 d2		 xor	 edx, edx

; 1388 : 			
; 1389 : 		//---------------------------------------------
; 1390 : 		// 각 줄마다 Clipping을 해줘야 하는데...		
; 1391 : 		// OOOOOOOOOOOOOOxxxxx 이런 경우이다.
; 1392 : 		//---------------------------------------------
; 1393 : 		// OOOOOOOOOOOOOO까지만 출력해주면 된다.
; 1394 : 		//---------------------------------------------
; 1395 : 		// 한 줄 출력
; 1396 : 		if (count > 0)

  0003c	85 c0		 test	 eax, eax
  0003e	7e 50		 jle	 SHORT $L103470

; 1397 : 		{			
; 1398 : 			j = count;

  00040	89 45 f8	 mov	 DWORD PTR _j$[ebp], eax
$L103468:

; 1399 : 			do
; 1400 : 			{
; 1401 : 				transCount = *pPixels++;		// 투명색 수			

  00043	0f b7 06	 movzx	 eax, WORD PTR [esi]
  00046	46		 inc	 esi
  00047	46		 inc	 esi

; 1402 : 				colorCount = *pPixels++;		// 투명 아닌 색 수			

  00048	0f b7 3e	 movzx	 edi, WORD PTR [esi]

; 1403 : 						
; 1404 : 				// 투명색만큼 index증가
; 1405 : 				index += transCount;

  0004b	03 d0		 add	 edx, eax
  0004d	46		 inc	 esi

; 1406 : 				
; 1407 : 				// 출력하고 있다가 오른쪽부분부터 출력하지 말아야 할 경우가 있다.
; 1408 : 				// 현재 출력하는 줄은 모두 출력한 것이므로 break해야 한다.
; 1409 : 
; 1410 : 				// 투명색까지 출력하는것만으로 더 이상 출력할 필요가 없을 경우
; 1411 : 
; 1412 : 				//---------------------------------------------
; 1413 : 				// 오른쪽 끝까지 도달했을 경우
; 1414 : 				//---------------------------------------------			
; 1415 : 				if (index+colorCount > rectRight)

  0004e	8d 1c 17	 lea	 ebx, DWORD PTR [edi+edx]
  00051	46		 inc	 esi
  00052	3b 5d 10	 cmp	 ebx, DWORD PTR _rectRight$[ebp]
  00055	89 5d f0	 mov	 DWORD PTR tv183[ebp], ebx
  00058	7f 1e		 jg	 SHORT $L104874

; 1429 : 						break;
; 1430 : 					}
; 1431 : 				}
; 1432 : 
; 1433 : 				// 투명색만큼 건너띄고
; 1434 : 				pDestTemp += transCount;
; 1435 : 
; 1436 : 				// 출력
; 1437 : 				memcpyAlpha4444(pDestTemp, pPixels, colorCount);

  0005a	57		 push	 edi
  0005b	8d 1c 41	 lea	 ebx, DWORD PTR [ecx+eax*2]
  0005e	8b 4d fc	 mov	 ecx, DWORD PTR _this$[ebp]
  00061	56		 push	 esi
  00062	53		 push	 ebx
  00063	e8 00 00 00 00	 call	 ?memcpyAlpha4444@CAlphaSprite@@QAEXPAG0G@Z ; CAlphaSprite::memcpyAlpha4444

; 1438 : 				pDestTemp += colorCount;
; 1439 : 				pPixels += (colorCount<<1);
; 1440 : 				index += colorCount;
; 1441 : 			} while (--j);

  00068	ff 4d f8	 dec	 DWORD PTR _j$[ebp]
  0006b	8b 55 f0	 mov	 edx, DWORD PTR tv183[ebp]
  0006e	8d 0c 7b	 lea	 ecx, DWORD PTR [ebx+edi*2]
  00071	8d 34 be	 lea	 esi, DWORD PTR [esi+edi*4]
  00074	75 cd		 jne	 SHORT $L103468
  00076	eb 18		 jmp	 SHORT $L103470
$L104874:

; 1416 : 				{
; 1417 : 					// 투명색만으로 더 출력할 필요가 없을 때
; 1418 : 					if (index > rectRight)

  00078	3b 55 10	 cmp	 edx, DWORD PTR _rectRight$[ebp]
  0007b	7f 13		 jg	 SHORT $L103470

; 1419 : 					{
; 1420 : 						break;
; 1421 : 					}
; 1422 : 					// 투명색 아닌 것을 조금 출력해야 할 경우
; 1423 : 					else
; 1424 : 					{
; 1425 : 						pDestTemp += transCount;
; 1426 : 					
; 1427 : 						// 투명이 아닌 색들을 Surface에 출력한다.
; 1428 : 						memcpyAlpha4444(pDestTemp, pPixels, rectRight - index);

  0007d	8b 7d 10	 mov	 edi, DWORD PTR _rectRight$[ebp]
  00080	2b fa		 sub	 edi, edx
  00082	57		 push	 edi
  00083	8d 04 41	 lea	 eax, DWORD PTR [ecx+eax*2]
  00086	8b 4d fc	 mov	 ecx, DWORD PTR _this$[ebp]
  00089	56		 push	 esi
  0008a	50		 push	 eax
  0008b	e8 00 00 00 00	 call	 ?memcpyAlpha4444@CAlphaSprite@@QAEXPAG0G@Z ; CAlphaSprite::memcpyAlpha4444
$L103470:

; 1442 : 		}
; 1443 : 		
; 1444 : 		pDest = (WORD*)((BYTE*)pDest + pitch);

  00090	0f b7 45 0c	 movzx	 eax, WORD PTR _pitch$[ebp]
  00094	01 45 08	 add	 DWORD PTR _pDest$[ebp], eax
  00097	8b 45 f4	 mov	 eax, DWORD PTR _i$[ebp]
  0009a	40		 inc	 eax
  0009b	3b 45 ec	 cmp	 eax, DWORD PTR _rectBottom$[ebp]
  0009e	89 45 f4	 mov	 DWORD PTR _i$[ebp], eax
  000a1	7c 86		 jl	 SHORT $L104879
  000a3	5f		 pop	 edi
  000a4	5e		 pop	 esi
  000a5	5b		 pop	 ebx
$L103466:

; 1445 : 	}
; 1446 : }

  000a6	c9		 leave
  000a7	c2 0c 00	 ret	 12			; 0000000cH
?Blt4444ClipRight@CAlphaSprite@@QAEXPAGGPAUtagRECT@@@Z ENDP ; CAlphaSprite::Blt4444ClipRight
_TEXT	ENDS
PUBLIC	?Blt4444ClipWidth@CAlphaSprite@@QAEXPAGGPAUtagRECT@@@Z ; CAlphaSprite::Blt4444ClipWidth
; Function compile flags: /Ogsy
;	COMDAT ?Blt4444ClipWidth@CAlphaSprite@@QAEXPAGGPAUtagRECT@@@Z
_TEXT	SEGMENT
_rectBottom$ = -24					; size = 4
tv249 = -20						; size = 4
_dist$ = -20						; size = 4
_pDestTemp$ = -20					; size = 4
_rectLeft$ = -16					; size = 4
_i$ = -12						; size = 4
_rectRight$ = -8					; size = 4
_this$ = -4						; size = 4
_pDest$ = 8						; size = 4
_pitch$ = 12						; size = 2
_j$ = 16						; size = 4
_pRect$ = 16						; size = 4
?Blt4444ClipWidth@CAlphaSprite@@QAEXPAGGPAUtagRECT@@@Z PROC NEAR ; CAlphaSprite::Blt4444ClipWidth, COMDAT
; _this$ = ecx

; 1457 : {

  00000	55		 push	 ebp
  00001	8b ec		 mov	 ebp, esp
  00003	83 ec 18	 sub	 esp, 24			; 00000018H

; 1458 : 	WORD	*pPixels,
; 1459 : 			*pDestTemp;
; 1460 : 
; 1461 : 	//--------------------------------------------
; 1462 : 	// pRect만큼의 점을 출력한다.
; 1463 : 	//--------------------------------------------
; 1464 : 	int		count,
; 1465 : 			transCount, 
; 1466 : 			colorCount,
; 1467 : 			index,
; 1468 : 			dist;
; 1469 : 
; 1470 : 	register int i;
; 1471 : 	register int j;
; 1472 : 
; 1473 : 	int rectBottom = pRect->bottom;

  00006	8b 45 10	 mov	 eax, DWORD PTR _pRect$[ebp]

; 1474 : 	int rectLeft = pRect->left;

  00009	8b 10		 mov	 edx, DWORD PTR [eax]
  0000b	56		 push	 esi

; 1475 : 	int rectRight = pRect->right;

  0000c	8b 70 08	 mov	 esi, DWORD PTR [eax+8]
  0000f	89 4d fc	 mov	 DWORD PTR _this$[ebp], ecx
  00012	8b 48 0c	 mov	 ecx, DWORD PTR [eax+12]

; 1476 : 
; 1477 : 	//---------------------------------------------
; 1478 : 	// 출력해야하는 모든 줄에 대해서..
; 1479 : 	//---------------------------------------------
; 1480 : 	for (i=pRect->top; i<rectBottom; i++)

  00015	8b 40 04	 mov	 eax, DWORD PTR [eax+4]
  00018	3b c1		 cmp	 eax, ecx
  0001a	89 4d e8	 mov	 DWORD PTR _rectBottom$[ebp], ecx
  0001d	89 55 f0	 mov	 DWORD PTR _rectLeft$[ebp], edx
  00020	89 75 f8	 mov	 DWORD PTR _rectRight$[ebp], esi
  00023	89 45 f4	 mov	 DWORD PTR _i$[ebp], eax
  00026	0f 8d 02 01 00
	00		 jge	 $L103496
  0002c	53		 push	 ebx
  0002d	57		 push	 edi
  0002e	eb 03		 jmp	 SHORT $L103494
$L104891:
  00030	8b 55 f0	 mov	 edx, DWORD PTR _rectLeft$[ebp]
$L103494:

; 1481 : 	{
; 1482 : 		pPixels = m_Pixels[i];

  00033	8b 4d fc	 mov	 ecx, DWORD PTR _this$[ebp]
  00036	8b 49 08	 mov	 ecx, DWORD PTR [ecx+8]
  00039	8b 34 81	 mov	 esi, DWORD PTR [ecx+eax*4]

; 1483 : 		pDestTemp = pDest;		
; 1484 : 
; 1485 : 		// (투명수,색깔수,색깔들)의 반복 수
; 1486 : 		count = *pPixels++;		

  0003c	0f b7 0e	 movzx	 ecx, WORD PTR [esi]
  0003f	8b 45 08	 mov	 eax, DWORD PTR _pDest$[ebp]
  00042	46		 inc	 esi
  00043	46		 inc	 esi

; 1487 : 
; 1488 : 		// 한 줄 출력		
; 1489 : 		index = 0;

  00044	33 db		 xor	 ebx, ebx

; 1490 : 		
; 1491 : 		//---------------------------------------------
; 1492 : 		// 각 줄마다 Clipping을 해줘야 하는데...
; 1493 : 		// xxxxOOOOOOOOOOOOOO인 경우이므로..
; 1494 : 		//---------------------------------------------
; 1495 : 		// xxxx부분까지 check해주는 루틴
; 1496 : 		//---------------------------------------------
; 1497 : 		// 한 줄 출력
; 1498 : 		if (count > 0)

  00046	85 c9		 test	 ecx, ecx
  00048	0f 8e c7 00 00
	00		 jle	 $L103507

; 1499 : 		{			
; 1500 : 			j = count;

  0004e	89 4d 10	 mov	 DWORD PTR _j$[ebp], ecx
$L103498:

; 1501 : 			do
; 1502 : 			{
; 1503 : 				transCount = *pPixels++;		// 투명색 수			

  00051	0f b7 0e	 movzx	 ecx, WORD PTR [esi]
  00054	46		 inc	 esi
  00055	46		 inc	 esi

; 1504 : 				colorCount = *pPixels++;		// 투명 아닌 색 수			

  00056	0f b7 3e	 movzx	 edi, WORD PTR [esi]

; 1505 : 						
; 1506 : 				// 투명색만큼 index증가			
; 1507 : 				index += transCount;

  00059	03 d9		 add	 ebx, ecx
  0005b	46		 inc	 esi

; 1508 : 				
; 1509 : 			
; 1510 : 				//---------------------------------------------
; 1511 : 				// xxxx범위를 넘어가게 되는 경우
; 1512 : 				//---------------------------------------------
; 1513 : 				if (index+colorCount > rectLeft)

  0005c	8d 0c 1f	 lea	 ecx, DWORD PTR [edi+ebx]
  0005f	46		 inc	 esi
  00060	3b ca		 cmp	 ecx, edx
  00062	7f 0c		 jg	 SHORT $L104885

; 1545 : 
; 1546 : 						// 이제부터는 계속 출력한다.
; 1547 : 						break;
; 1548 : 					}
; 1549 : 				}					
; 1550 : 
; 1551 : 				// 투명이 아닌 색만큼 index증가				
; 1552 : 				pPixels += (colorCount<<1);
; 1553 : 				index += colorCount;
; 1554 : 			} while (--j);

  00064	ff 4d 10	 dec	 DWORD PTR _j$[ebp]
  00067	8d 34 be	 lea	 esi, DWORD PTR [esi+edi*4]
  0006a	8b d9		 mov	 ebx, ecx
  0006c	75 e3		 jne	 SHORT $L103498
  0006e	eb 4f		 jmp	 SHORT $L103500
$L104885:

; 1514 : 				{
; 1515 : 					//---------------------------------------------
; 1516 : 					// 투명색만으로 xxxx범위를 넘어갔을 경우
; 1517 : 					//---------------------------------------------
; 1518 : 					if (index > rectLeft)

  00070	3b da		 cmp	 ebx, edx
  00072	7e 20		 jle	 SHORT $L103502

; 1519 : 					{	
; 1520 : 						// 투명색부분 건너띔
; 1521 : 						pDestTemp += index - rectLeft;

  00074	8b 4d 08	 mov	 ecx, DWORD PTR _pDest$[ebp]
  00077	8b c3		 mov	 eax, ebx

; 1522 : 
; 1523 : 						// 이번 단계는 모두 출력
; 1524 : 						memcpyAlpha4444(pDestTemp, pPixels, colorCount);

  00079	57		 push	 edi
  0007a	2b c2		 sub	 eax, edx
  0007c	8d 04 41	 lea	 eax, DWORD PTR [ecx+eax*2]
  0007f	8b 4d fc	 mov	 ecx, DWORD PTR _this$[ebp]
  00082	56		 push	 esi
  00083	50		 push	 eax
  00084	89 45 ec	 mov	 DWORD PTR _pDestTemp$[ebp], eax
  00087	e8 00 00 00 00	 call	 ?memcpyAlpha4444@CAlphaSprite@@QAEXPAG0G@Z ; CAlphaSprite::memcpyAlpha4444

; 1525 : 						pDestTemp += colorCount;

  0008c	8b 45 ec	 mov	 eax, DWORD PTR _pDestTemp$[ebp]
  0008f	8d 04 78	 lea	 eax, DWORD PTR [eax+edi*2]

; 1526 : 						pPixels += (colorCount<<1);
; 1527 : 						index += colorCount;
; 1528 : 
; 1529 : 						// 이제부터는 계속 출력한다.
; 1530 : 						break;

  00092	eb 26		 jmp	 SHORT $L104892
$L103502:

; 1531 : 					}
; 1532 : 					//---------------------------------------------
; 1533 : 					// 투명색+투명아닌색의 일부까지 출력하면 
; 1534 : 					// xxxx범위를 넘어가게 되는 경우
; 1535 : 					//---------------------------------------------
; 1536 : 					else
; 1537 : 					{
; 1538 : 						dist = rectLeft - index;

  00094	8b c2		 mov	 eax, edx
  00096	2b c3		 sub	 eax, ebx

; 1539 : 
; 1540 : 						// 투명이 아닌 색들을 Surface에 출력한다.
; 1541 : 						memcpyAlpha4444(pDestTemp, pPixels+(dist<<1), colorCount-dist);

  00098	8b cf		 mov	 ecx, edi
  0009a	2b c8		 sub	 ecx, eax
  0009c	51		 push	 ecx
  0009d	8b 4d fc	 mov	 ecx, DWORD PTR _this$[ebp]
  000a0	89 45 ec	 mov	 DWORD PTR _dist$[ebp], eax
  000a3	8d 04 86	 lea	 eax, DWORD PTR [esi+eax*4]
  000a6	50		 push	 eax
  000a7	ff 75 08	 push	 DWORD PTR _pDest$[ebp]
  000aa	e8 00 00 00 00	 call	 ?memcpyAlpha4444@CAlphaSprite@@QAEXPAG0G@Z ; CAlphaSprite::memcpyAlpha4444

; 1542 : 						pDestTemp += colorCount-dist;

  000af	8b 4d 08	 mov	 ecx, DWORD PTR _pDest$[ebp]
  000b2	8b c7		 mov	 eax, edi
  000b4	2b 45 ec	 sub	 eax, DWORD PTR _dist$[ebp]
  000b7	8d 04 41	 lea	 eax, DWORD PTR [ecx+eax*2]
$L104892:

; 1543 : 						pPixels += (colorCount<<1);

  000ba	8d 34 be	 lea	 esi, DWORD PTR [esi+edi*4]

; 1544 : 						index += colorCount;

  000bd	03 df		 add	 ebx, edi
$L103500:

; 1555 : 
; 1556 : 			//---------------------------------------------
; 1557 : 			// 각 줄마다 Clipping을 해줘야 하는데...		
; 1558 : 			// OOOOOOOOOOOOOOxxxxx 이런 경우이다.
; 1559 : 			//---------------------------------------------
; 1560 : 			// OOOOOOOOOOOOOO까지만 출력해주면 된다.
; 1561 : 			//---------------------------------------------
; 1562 : 			if (--j > 0)

  000bf	ff 4d 10	 dec	 DWORD PTR _j$[ebp]
  000c2	83 7d 10 00	 cmp	 DWORD PTR _j$[ebp], 0
  000c6	7e 4d		 jle	 SHORT $L103507
$L103505:

; 1563 : 			{
; 1564 : 				do
; 1565 : 				{
; 1566 : 					transCount = *pPixels++;		// 투명색 수			

  000c8	0f b7 0e	 movzx	 ecx, WORD PTR [esi]
  000cb	46		 inc	 esi
  000cc	46		 inc	 esi

; 1567 : 					colorCount = *pPixels++;		// 투명 아닌 색 수			

  000cd	0f b7 3e	 movzx	 edi, WORD PTR [esi]

; 1568 : 							
; 1569 : 					// 투명색만큼 index증가
; 1570 : 					index += transCount;

  000d0	03 d9		 add	 ebx, ecx
  000d2	46		 inc	 esi

; 1571 : 					
; 1572 : 					// 출력하고 있다가 오른쪽부분부터 출력하지 말아야 할 경우가 있다.
; 1573 : 					// 현재 출력하는 줄은 모두 출력한 것이므로 break해야 한다.
; 1574 : 
; 1575 : 					// 투명색까지 출력하는것만으로 더 이상 출력할 필요가 없을 경우
; 1576 : 
; 1577 : 					//---------------------------------------------
; 1578 : 					// 오른쪽 끝까지 도달했을 경우
; 1579 : 					//---------------------------------------------			
; 1580 : 					if (index+colorCount > rectRight)

  000d3	8d 14 1f	 lea	 edx, DWORD PTR [edi+ebx]
  000d6	46		 inc	 esi
  000d7	3b 55 f8	 cmp	 edx, DWORD PTR _rectRight$[ebp]
  000da	89 55 ec	 mov	 DWORD PTR tv249[ebp], edx
  000dd	7f 1e		 jg	 SHORT $L104886

; 1594 : 							break;
; 1595 : 						}
; 1596 : 					}
; 1597 : 
; 1598 : 					// 투명색만큼 건너띄고
; 1599 : 					pDestTemp += transCount;
; 1600 : 
; 1601 : 					// 출력
; 1602 : 					memcpyAlpha4444(pDestTemp, pPixels, colorCount);

  000df	57		 push	 edi
  000e0	8d 1c 48	 lea	 ebx, DWORD PTR [eax+ecx*2]
  000e3	8b 4d fc	 mov	 ecx, DWORD PTR _this$[ebp]
  000e6	56		 push	 esi
  000e7	53		 push	 ebx
  000e8	e8 00 00 00 00	 call	 ?memcpyAlpha4444@CAlphaSprite@@QAEXPAG0G@Z ; CAlphaSprite::memcpyAlpha4444

; 1603 : 					pDestTemp += colorCount;
; 1604 : 					pPixels += (colorCount<<1);
; 1605 : 					index += colorCount;
; 1606 : 				} while (--j);

  000ed	ff 4d 10	 dec	 DWORD PTR _j$[ebp]
  000f0	8d 04 7b	 lea	 eax, DWORD PTR [ebx+edi*2]
  000f3	8b 5d ec	 mov	 ebx, DWORD PTR tv249[ebp]
  000f6	8d 34 be	 lea	 esi, DWORD PTR [esi+edi*4]
  000f9	75 cd		 jne	 SHORT $L103505
  000fb	eb 18		 jmp	 SHORT $L103507
$L104886:

; 1581 : 					{
; 1582 : 						// 투명색만으로 더 출력할 필요가 없을 때
; 1583 : 						if (index > rectRight)

  000fd	3b 5d f8	 cmp	 ebx, DWORD PTR _rectRight$[ebp]
  00100	7f 13		 jg	 SHORT $L103507

; 1584 : 						{
; 1585 : 							break;
; 1586 : 						}
; 1587 : 						// 투명색 아닌 것을 조금 출력해야 할 경우
; 1588 : 						else
; 1589 : 						{
; 1590 : 							pDestTemp += transCount;
; 1591 : 						
; 1592 : 							// 투명이 아닌 색들을 Surface에 출력한다.
; 1593 : 							memcpyAlpha4444(pDestTemp, pPixels, rectRight - index);

  00102	8b 55 f8	 mov	 edx, DWORD PTR _rectRight$[ebp]
  00105	2b d3		 sub	 edx, ebx
  00107	52		 push	 edx
  00108	8d 04 48	 lea	 eax, DWORD PTR [eax+ecx*2]
  0010b	8b 4d fc	 mov	 ecx, DWORD PTR _this$[ebp]
  0010e	56		 push	 esi
  0010f	50		 push	 eax
  00110	e8 00 00 00 00	 call	 ?memcpyAlpha4444@CAlphaSprite@@QAEXPAG0G@Z ; CAlphaSprite::memcpyAlpha4444
$L103507:

; 1607 : 			}
; 1608 : 		}		
; 1609 : 
; 1610 : 		pDest = (WORD*)((BYTE*)pDest + pitch);

  00115	0f b7 45 0c	 movzx	 eax, WORD PTR _pitch$[ebp]
  00119	01 45 08	 add	 DWORD PTR _pDest$[ebp], eax
  0011c	8b 45 f4	 mov	 eax, DWORD PTR _i$[ebp]
  0011f	40		 inc	 eax
  00120	3b 45 e8	 cmp	 eax, DWORD PTR _rectBottom$[ebp]
  00123	89 45 f4	 mov	 DWORD PTR _i$[ebp], eax
  00126	0f 8c 04 ff ff
	ff		 jl	 $L104891
  0012c	5f		 pop	 edi
  0012d	5b		 pop	 ebx
$L103496:
  0012e	5e		 pop	 esi

; 1611 : 	}
; 1612 : }

  0012f	c9		 leave
  00130	c2 0c 00	 ret	 12			; 0000000cH
?Blt4444ClipWidth@CAlphaSprite@@QAEXPAGGPAUtagRECT@@@Z ENDP ; CAlphaSprite::Blt4444ClipWidth
_TEXT	ENDS
PUBLIC	?Blt4444ClipHeight@CAlphaSprite@@QAEXPAGGPAUtagRECT@@@Z ; CAlphaSprite::Blt4444ClipHeight
; Function compile flags: /Ogsy
;	COMDAT ?Blt4444ClipHeight@CAlphaSprite@@QAEXPAGGPAUtagRECT@@@Z
_TEXT	SEGMENT
_rectBottom$ = -12					; size = 4
_i$ = -8						; size = 4
_this$ = -4						; size = 4
_pDest$ = 8						; size = 4
_pitch$ = 12						; size = 2
_j$ = 16						; size = 4
_pRect$ = 16						; size = 4
?Blt4444ClipHeight@CAlphaSprite@@QAEXPAGGPAUtagRECT@@@Z PROC NEAR ; CAlphaSprite::Blt4444ClipHeight, COMDAT
; _this$ = ecx

; 1621 : {

  00000	55		 push	 ebp
  00001	8b ec		 mov	 ebp, esp
  00003	83 ec 0c	 sub	 esp, 12			; 0000000cH

; 1622 : 	int		count,			
; 1623 : 			colorCount;
; 1624 : 
; 1625 : 	WORD	*pDestTemp,
; 1626 : 			*pPixels;
; 1627 : 
; 1628 : 
; 1629 : 	register int i;
; 1630 : 	register int j;
; 1631 : 
; 1632 : 	int rectBottom = pRect->bottom;

  00006	8b 45 10	 mov	 eax, DWORD PTR _pRect$[ebp]
  00009	89 4d fc	 mov	 DWORD PTR _this$[ebp], ecx
  0000c	8b 48 0c	 mov	 ecx, DWORD PTR [eax+12]

; 1633 : 
; 1634 : 	for (i=pRect->top; i<rectBottom; i++)

  0000f	8b 40 04	 mov	 eax, DWORD PTR [eax+4]
  00012	3b c1		 cmp	 eax, ecx
  00014	89 4d f4	 mov	 DWORD PTR _rectBottom$[ebp], ecx
  00017	89 45 f8	 mov	 DWORD PTR _i$[ebp], eax
  0001a	7d 54		 jge	 SHORT $L103528
  0001c	53		 push	 ebx
  0001d	56		 push	 esi
  0001e	57		 push	 edi
$L104899:

; 1635 : 	{			
; 1636 : 		pPixels		= m_Pixels[i];

  0001f	8b 4d fc	 mov	 ecx, DWORD PTR _this$[ebp]
  00022	8b 49 08	 mov	 ecx, DWORD PTR [ecx+8]
  00025	8b 34 81	 mov	 esi, DWORD PTR [ecx+eax*4]

; 1637 : 		pDestTemp	= pDest;
; 1638 : 
; 1639 : 		// (투명수,색깔수,색깔들)의 반복 수		
; 1640 : 		count	= *pPixels++;		

  00028	0f b7 06	 movzx	 eax, WORD PTR [esi]
  0002b	8b 5d 08	 mov	 ebx, DWORD PTR _pDest$[ebp]
  0002e	46		 inc	 esi
  0002f	46		 inc	 esi

; 1641 : 
; 1642 : 		// 한 줄 출력
; 1643 : 		// 한 줄 출력
; 1644 : 		if (count > 0)

  00030	85 c0		 test	 eax, eax
  00032	7e 26		 jle	 SHORT $L103532

; 1645 : 		{			
; 1646 : 			j = count;

  00034	89 45 10	 mov	 DWORD PTR _j$[ebp], eax
$L103530:

; 1647 : 			do
; 1648 : 			{	
; 1649 : 				pDestTemp += *pPixels++;		// 투명색만큼 건너 뛴다.

  00037	0f b7 06	 movzx	 eax, WORD PTR [esi]

; 1650 : 				colorCount = *pPixels++;		// 투명 아닌 색 수				
; 1651 : 
; 1652 : 				// 투명이 아닌 색들을 Surface에 출력한다.
; 1653 : 				memcpyAlpha4444(pDestTemp, pPixels, colorCount);

  0003a	8b 4d fc	 mov	 ecx, DWORD PTR _this$[ebp]
  0003d	46		 inc	 esi
  0003e	46		 inc	 esi
  0003f	0f b7 3e	 movzx	 edi, WORD PTR [esi]
  00042	46		 inc	 esi
  00043	57		 push	 edi
  00044	46		 inc	 esi
  00045	8d 1c 43	 lea	 ebx, DWORD PTR [ebx+eax*2]
  00048	56		 push	 esi
  00049	53		 push	 ebx
  0004a	e8 00 00 00 00	 call	 ?memcpyAlpha4444@CAlphaSprite@@QAEXPAG0G@Z ; CAlphaSprite::memcpyAlpha4444

; 1654 : 				
; 1655 : 				pDestTemp	+= colorCount;
; 1656 : 				pPixels		+= (colorCount<<1);
; 1657 : 			} while (--j);

  0004f	ff 4d 10	 dec	 DWORD PTR _j$[ebp]
  00052	8d 1c 7b	 lea	 ebx, DWORD PTR [ebx+edi*2]
  00055	8d 34 be	 lea	 esi, DWORD PTR [esi+edi*4]
  00058	75 dd		 jne	 SHORT $L103530
$L103532:

; 1658 : 		}
; 1659 : 
; 1660 : 		pDest = (WORD*)((BYTE*)pDest + pitch);

  0005a	0f b7 45 0c	 movzx	 eax, WORD PTR _pitch$[ebp]
  0005e	01 45 08	 add	 DWORD PTR _pDest$[ebp], eax
  00061	8b 45 f8	 mov	 eax, DWORD PTR _i$[ebp]
  00064	40		 inc	 eax
  00065	3b 45 f4	 cmp	 eax, DWORD PTR _rectBottom$[ebp]
  00068	89 45 f8	 mov	 DWORD PTR _i$[ebp], eax
  0006b	7c b2		 jl	 SHORT $L104899
  0006d	5f		 pop	 edi
  0006e	5e		 pop	 esi
  0006f	5b		 pop	 ebx
$L103528:

; 1661 : 	}
; 1662 : }

  00070	c9		 leave
  00071	c2 0c 00	 ret	 12			; 0000000cH
?Blt4444ClipHeight@CAlphaSprite@@QAEXPAGGPAUtagRECT@@@Z ENDP ; CAlphaSprite::Blt4444ClipHeight
_TEXT	ENDS
PUBLIC	?Blt4444NotTrans@CAlphaSprite@@QAEXPAGG@Z	; CAlphaSprite::Blt4444NotTrans
EXTRN	_memset:NEAR
; Function compile flags: /Ogsy
;	COMDAT ?Blt4444NotTrans@CAlphaSprite@@QAEXPAGG@Z
_TEXT	SEGMENT
_this$ = -16						; size = 4
_j$ = -12						; size = 4
_pDestTemp$ = -8					; size = 4
_i$ = -4						; size = 4
_pDest$ = 8						; size = 4
_pitch$ = 12						; size = 2
?Blt4444NotTrans@CAlphaSprite@@QAEXPAGG@Z PROC NEAR	; CAlphaSprite::Blt4444NotTrans, COMDAT
; _this$ = ecx

; 1672 : {

  00000	55		 push	 ebp
  00001	8b ec		 mov	 ebp, esp
  00003	83 ec 10	 sub	 esp, 16			; 00000010H

; 1673 : 	int		count,	
; 1674 : 			transCount,
; 1675 : 			colorCount;
; 1676 : 
; 1677 : 	WORD	*pDestTemp,
; 1678 : 			*pPixels;
; 1679 : 
; 1680 : 	register int i;
; 1681 : 	register int j;
; 1682 : 
; 1683 : 	int rectBottom = m_Height;

  00006	0f b7 41 06	 movzx	 eax, WORD PTR [ecx+6]

; 1684 : 
; 1685 : 	if (rectBottom > 0)

  0000a	85 c0		 test	 eax, eax
  0000c	89 4d f0	 mov	 DWORD PTR _this$[ebp], ecx
  0000f	7e 7f		 jle	 SHORT $L103553

; 1686 : 	{
; 1687 : 		i = rectBottom-1;

  00011	8d 50 ff	 lea	 edx, DWORD PTR [eax-1]

; 1688 : 		pDest = (WORD*)((BYTE*)pDest + i*pitch);

  00014	0f b7 45 0c	 movzx	 eax, WORD PTR _pitch$[ebp]
  00018	0f af c2	 imul	 eax, edx
  0001b	01 45 08	 add	 DWORD PTR _pDest$[ebp], eax
  0001e	53		 push	 ebx
  0001f	56		 push	 esi
  00020	89 55 fc	 mov	 DWORD PTR _i$[ebp], edx
  00023	57		 push	 edi
$L103551:

; 1689 : 
; 1690 : 		do
; 1691 : 		{
; 1692 : 			pPixels		= m_Pixels[i];

  00024	8b 41 08	 mov	 eax, DWORD PTR [ecx+8]
  00027	8b 55 fc	 mov	 edx, DWORD PTR _i$[ebp]
  0002a	8b 34 90	 mov	 esi, DWORD PTR [eax+edx*4]

; 1693 : 			pDestTemp	= pDest;

  0002d	8b 45 08	 mov	 eax, DWORD PTR _pDest$[ebp]
  00030	89 45 f8	 mov	 DWORD PTR _pDestTemp$[ebp], eax

; 1694 : 
; 1695 : 			// (투명수,색깔수,색깔들)의 반복 수		
; 1696 : 			count	= *pPixels++;		

  00033	0f b7 06	 movzx	 eax, WORD PTR [esi]
  00036	46		 inc	 esi
  00037	46		 inc	 esi

; 1697 : 
; 1698 : 			// 한 줄 출력
; 1699 : 			if (count > 0)

  00038	85 c0		 test	 eax, eax
  0003a	7e 40		 jle	 SHORT $L103557

; 1700 : 			{			
; 1701 : 				j = count;

  0003c	89 45 f4	 mov	 DWORD PTR _j$[ebp], eax
$L103555:

; 1702 : 				do
; 1703 : 				{		
; 1704 : 					transCount = *pPixels++;					

  0003f	0f b7 1e	 movzx	 ebx, WORD PTR [esi]
  00042	46		 inc	 esi

; 1705 : 					colorCount = *pPixels++;		// 투명 아닌 색 수				
; 1706 : 
; 1707 : 					// 0을 출력한다.
; 1708 : 					memset(pDestTemp, 0, transCount<<1);

  00043	8d 04 1b	 lea	 eax, DWORD PTR [ebx+ebx]
  00046	50		 push	 eax
  00047	46		 inc	 esi
  00048	0f b7 3e	 movzx	 edi, WORD PTR [esi]
  0004b	6a 00		 push	 0
  0004d	ff 75 f8	 push	 DWORD PTR _pDestTemp$[ebp]
  00050	46		 inc	 esi
  00051	46		 inc	 esi
  00052	e8 00 00 00 00	 call	 _memset

; 1709 : 					pDestTemp += transCount;		// 투명색만큼 건너 뛴다.

  00057	8b 45 f8	 mov	 eax, DWORD PTR _pDestTemp$[ebp]

; 1710 : 
; 1711 : 					// 투명이 아닌 색들을 Surface에 출력한다.
; 1712 : 					memcpyAlpha4444(pDestTemp, pPixels, colorCount);

  0005a	8b 4d f0	 mov	 ecx, DWORD PTR _this$[ebp]
  0005d	83 c4 0c	 add	 esp, 12			; 0000000cH
  00060	57		 push	 edi
  00061	8d 1c 58	 lea	 ebx, DWORD PTR [eax+ebx*2]
  00064	56		 push	 esi
  00065	53		 push	 ebx
  00066	e8 00 00 00 00	 call	 ?memcpyAlpha4444@CAlphaSprite@@QAEXPAG0G@Z ; CAlphaSprite::memcpyAlpha4444

; 1713 : 					
; 1714 : 					pDestTemp	+= colorCount;
; 1715 : 
; 1716 : 					// 실제 점 개수는 alpha값 때문에 2배이다.
; 1717 : 					pPixels		+= (colorCount<<1);
; 1718 : 				} while (--j);

  0006b	ff 4d f4	 dec	 DWORD PTR _j$[ebp]
  0006e	8d 04 7b	 lea	 eax, DWORD PTR [ebx+edi*2]
  00071	89 45 f8	 mov	 DWORD PTR _pDestTemp$[ebp], eax
  00074	8d 34 be	 lea	 esi, DWORD PTR [esi+edi*4]
  00077	75 c6		 jne	 SHORT $L103555
  00079	8b 4d f0	 mov	 ecx, DWORD PTR _this$[ebp]
$L103557:

; 1719 : 			}
; 1720 : 
; 1721 : 			pDest = (WORD*)((BYTE*)pDest - pitch);

  0007c	0f b7 45 0c	 movzx	 eax, WORD PTR _pitch$[ebp]
  00080	29 45 08	 sub	 DWORD PTR _pDest$[ebp], eax

; 1722 : 		} while (i--);

  00083	8b 45 fc	 mov	 eax, DWORD PTR _i$[ebp]
  00086	ff 4d fc	 dec	 DWORD PTR _i$[ebp]
  00089	85 c0		 test	 eax, eax
  0008b	75 97		 jne	 SHORT $L103551
  0008d	5f		 pop	 edi
  0008e	5e		 pop	 esi
  0008f	5b		 pop	 ebx
$L103553:

; 1723 : 	}
; 1724 : }

  00090	c9		 leave
  00091	c2 08 00	 ret	 8
?Blt4444NotTrans@CAlphaSprite@@QAEXPAGG@Z ENDP		; CAlphaSprite::Blt4444NotTrans
_TEXT	ENDS
PUBLIC	?Blt4444NotTransClipLeft@CAlphaSprite@@QAEXPAGGPAUtagRECT@@@Z ; CAlphaSprite::Blt4444NotTransClipLeft
; Function compile flags: /Ogsy
;	COMDAT ?Blt4444NotTransClipLeft@CAlphaSprite@@QAEXPAGGPAUtagRECT@@@Z
_TEXT	SEGMENT
_rectBottom$ = -20					; size = 4
_transCount$ = -16					; size = 4
_i$ = -12						; size = 4
_rectLeft$ = -8						; size = 4
_this$ = -4						; size = 4
_pDest$ = 8						; size = 4
_pitch$ = 12						; size = 2
_j$ = 16						; size = 4
_pRect$ = 16						; size = 4
?Blt4444NotTransClipLeft@CAlphaSprite@@QAEXPAGGPAUtagRECT@@@Z PROC NEAR ; CAlphaSprite::Blt4444NotTransClipLeft, COMDAT
; _this$ = ecx

; 1734 : {

  00000	55		 push	 ebp
  00001	8b ec		 mov	 ebp, esp
  00003	83 ec 14	 sub	 esp, 20			; 00000014H

; 1735 : 	WORD	*pPixels,
; 1736 : 			*pDestTemp;
; 1737 : 
; 1738 : 	//--------------------------------------------
; 1739 : 	// pRect만큼의 점을 출력한다.
; 1740 : 	//--------------------------------------------
; 1741 : 	int		count,
; 1742 : 			transCount, 
; 1743 : 			colorCount,
; 1744 : 			index,
; 1745 : 			dist;
; 1746 : 
; 1747 : 	register int i;
; 1748 : 	register int j;
; 1749 : 
; 1750 : 	int rectBottom = pRect->bottom;

  00006	8b 45 10	 mov	 eax, DWORD PTR _pRect$[ebp]

; 1751 : 	int rectLeft = pRect->left;

  00009	8b 10		 mov	 edx, DWORD PTR [eax]
  0000b	89 4d fc	 mov	 DWORD PTR _this$[ebp], ecx
  0000e	8b 48 0c	 mov	 ecx, DWORD PTR [eax+12]

; 1752 : 
; 1753 : 	//---------------------------------------------
; 1754 : 	// 출력해야하는 모든 줄에 대해서..
; 1755 : 	//---------------------------------------------
; 1756 : 	for (i=pRect->top; i<rectBottom; i++)

  00011	8b 40 04	 mov	 eax, DWORD PTR [eax+4]
  00014	3b c1		 cmp	 eax, ecx
  00016	89 4d ec	 mov	 DWORD PTR _rectBottom$[ebp], ecx
  00019	89 55 f8	 mov	 DWORD PTR _rectLeft$[ebp], edx
  0001c	89 45 f4	 mov	 DWORD PTR _i$[ebp], eax
  0001f	0f 8d ef 00 00
	00		 jge	 $L103579
  00025	53		 push	 ebx
  00026	56		 push	 esi
  00027	57		 push	 edi
$L104913:

; 1757 : 	{
; 1758 : 		pPixels = m_Pixels[i];

  00028	8b 55 fc	 mov	 edx, DWORD PTR _this$[ebp]
  0002b	8b 4a 08	 mov	 ecx, DWORD PTR [edx+8]
  0002e	8b 34 81	 mov	 esi, DWORD PTR [ecx+eax*4]

; 1759 : 		pDestTemp = pDest;		
; 1760 : 
; 1761 : 		// (투명수,색깔수,색깔들)의 반복 수
; 1762 : 		count = *pPixels++;		

  00031	0f b7 0e	 movzx	 ecx, WORD PTR [esi]
  00034	8b 5d 08	 mov	 ebx, DWORD PTR _pDest$[ebp]
  00037	46		 inc	 esi
  00038	46		 inc	 esi

; 1763 : 
; 1764 : 		// 한 줄 출력		
; 1765 : 		index = 0;

  00039	33 c0		 xor	 eax, eax

; 1766 : 		
; 1767 : 		//---------------------------------------------
; 1768 : 		// 각 줄마다 Clipping을 해줘야 하는데...
; 1769 : 		// xxxxOOOOOOOOOOOOOO인 경우이므로..
; 1770 : 		//---------------------------------------------
; 1771 : 		// xxxx부분까지 check해주는 루틴
; 1772 : 		//---------------------------------------------
; 1773 : 		// 한 줄 출력
; 1774 : 		if (count > 0)

  0003b	85 c9		 test	 ecx, ecx
  0003d	0f 8e b7 00 00
	00		 jle	 $L103590

; 1775 : 		{			
; 1776 : 			j = count;

  00043	89 4d 10	 mov	 DWORD PTR _j$[ebp], ecx
$L103581:

; 1777 : 			do
; 1778 : 			{
; 1779 : 				transCount = *pPixels++;		// 투명색 수			

  00046	0f b7 0e	 movzx	 ecx, WORD PTR [esi]
  00049	46		 inc	 esi
  0004a	46		 inc	 esi

; 1780 : 				colorCount = *pPixels++;		// 투명 아닌 색 수							

  0004b	0f b7 3e	 movzx	 edi, WORD PTR [esi]

; 1781 : 						
; 1782 : 				// 투명색만큼 index증가			
; 1783 : 				index += transCount;

  0004e	03 c1		 add	 eax, ecx
  00050	46		 inc	 esi

; 1784 : 				
; 1785 : 			
; 1786 : 				//---------------------------------------------
; 1787 : 				// xxxx범위를 넘어가게 되는 경우
; 1788 : 				//---------------------------------------------
; 1789 : 				if (index+colorCount > rectLeft)

  00051	8d 0c 07	 lea	 ecx, DWORD PTR [edi+eax]
  00054	46		 inc	 esi
  00055	3b 4d f8	 cmp	 ecx, DWORD PTR _rectLeft$[ebp]
  00058	7f 0c		 jg	 SHORT $L104911

; 1822 : 
; 1823 : 						// 이제부터는 계속 출력한다.
; 1824 : 						break;
; 1825 : 					}
; 1826 : 				}					
; 1827 : 
; 1828 : 				// 투명이 아닌 색만큼 index증가				
; 1829 : 				pPixels += (colorCount<<1);
; 1830 : 				index += colorCount;
; 1831 : 			} while (--j);

  0005a	ff 4d 10	 dec	 DWORD PTR _j$[ebp]
  0005d	8d 34 be	 lea	 esi, DWORD PTR [esi+edi*4]
  00060	8b c1		 mov	 eax, ecx
  00062	75 e2		 jne	 SHORT $L103581
  00064	eb 54		 jmp	 SHORT $L103583
$L104911:

; 1790 : 				{
; 1791 : 					//---------------------------------------------
; 1792 : 					// 투명색만으로 xxxx범위를 넘어갔을 경우
; 1793 : 					//---------------------------------------------
; 1794 : 					if (index > rectLeft)

  00066	8b 5d f8	 mov	 ebx, DWORD PTR _rectLeft$[ebp]
  00069	3b c3		 cmp	 eax, ebx
  0006b	7e 2b		 jle	 SHORT $L103585

; 1795 : 					{	
; 1796 : 						// 투명색부분 건너띔
; 1797 : 						// 0을 출력한다.
; 1798 : 						transCount = index - rectLeft;

  0006d	2b c3		 sub	 eax, ebx
  0006f	8b d8		 mov	 ebx, eax

; 1799 : 						memset(pDestTemp, 0, transCount<<1);

  00071	8d 04 1b	 lea	 eax, DWORD PTR [ebx+ebx]
  00074	50		 push	 eax
  00075	6a 00		 push	 0
  00077	ff 75 08	 push	 DWORD PTR _pDest$[ebp]
  0007a	e8 00 00 00 00	 call	 _memset

; 1800 : 						pDestTemp += transCount;		// 투명색만큼 건너 뛴다.

  0007f	8b 45 08	 mov	 eax, DWORD PTR _pDest$[ebp]

; 1801 : 						
; 1802 : 						// 이번 단계는 모두 출력
; 1803 : 						memcpyAlpha4444(pDestTemp, pPixels, colorCount);

  00082	8b 4d fc	 mov	 ecx, DWORD PTR _this$[ebp]
  00085	83 c4 0c	 add	 esp, 12			; 0000000cH
  00088	57		 push	 edi
  00089	8d 1c 58	 lea	 ebx, DWORD PTR [eax+ebx*2]
  0008c	56		 push	 esi
  0008d	53		 push	 ebx
  0008e	e8 00 00 00 00	 call	 ?memcpyAlpha4444@CAlphaSprite@@QAEXPAG0G@Z ; CAlphaSprite::memcpyAlpha4444

; 1804 : 						pDestTemp += colorCount;

  00093	8d 1c 7b	 lea	 ebx, DWORD PTR [ebx+edi*2]

; 1805 : 						pPixels += (colorCount<<1);
; 1806 : 
; 1807 : 						// 이제부터는 계속 출력한다.
; 1808 : 						break;

  00096	eb 1f		 jmp	 SHORT $L104914
$L103585:

; 1809 : 					}
; 1810 : 					//---------------------------------------------
; 1811 : 					// 투명색+투명아닌색의 일부까지 출력하면 
; 1812 : 					// xxxx범위를 넘어가게 되는 경우
; 1813 : 					//---------------------------------------------
; 1814 : 					else
; 1815 : 					{
; 1816 : 						dist = rectLeft - index;

  00098	2b d8		 sub	 ebx, eax

; 1817 : 
; 1818 : 						// 투명이 아닌 색들을 Surface에 출력한다.
; 1819 : 						memcpyAlpha4444(pDestTemp, pPixels+(dist<<1), colorCount-dist);

  0009a	8b c7		 mov	 eax, edi
  0009c	2b c3		 sub	 eax, ebx
  0009e	50		 push	 eax
  0009f	8d 04 9e	 lea	 eax, DWORD PTR [esi+ebx*4]
  000a2	50		 push	 eax
  000a3	ff 75 08	 push	 DWORD PTR _pDest$[ebp]
  000a6	8b ca		 mov	 ecx, edx
  000a8	e8 00 00 00 00	 call	 ?memcpyAlpha4444@CAlphaSprite@@QAEXPAG0G@Z ; CAlphaSprite::memcpyAlpha4444

; 1820 : 						pDestTemp += colorCount-dist;

  000ad	8b 4d 08	 mov	 ecx, DWORD PTR _pDest$[ebp]
  000b0	8b c7		 mov	 eax, edi
  000b2	2b c3		 sub	 eax, ebx
  000b4	8d 1c 41	 lea	 ebx, DWORD PTR [ecx+eax*2]
$L104914:

; 1821 : 						pPixels += (colorCount<<1);

  000b7	8d 34 be	 lea	 esi, DWORD PTR [esi+edi*4]
$L103583:

; 1832 : 
; 1833 : 			//---------------------------------------------
; 1834 : 			// 이제부터는 계속 출력한다.		
; 1835 : 			//---------------------------------------------		
; 1836 : 			if (--j > 0)

  000ba	ff 4d 10	 dec	 DWORD PTR _j$[ebp]
  000bd	83 7d 10 00	 cmp	 DWORD PTR _j$[ebp], 0
  000c1	7e 37		 jle	 SHORT $L103590
$L103588:

; 1837 : 			{
; 1838 : 				do
; 1839 : 				{
; 1840 : 					transCount = *pPixels++;		// 투명색 수			

  000c3	0f b7 06	 movzx	 eax, WORD PTR [esi]
  000c6	89 45 f0	 mov	 DWORD PTR _transCount$[ebp], eax
  000c9	46		 inc	 esi

; 1841 : 					colorCount = *pPixels++;		// 투명 아닌 색 수			
; 1842 : 							
; 1843 : 					// 0을 출력한다.
; 1844 : 					memset(pDestTemp, 0, transCount<<1);

  000ca	03 c0		 add	 eax, eax
  000cc	46		 inc	 esi
  000cd	0f b7 3e	 movzx	 edi, WORD PTR [esi]
  000d0	50		 push	 eax
  000d1	6a 00		 push	 0
  000d3	46		 inc	 esi
  000d4	53		 push	 ebx
  000d5	46		 inc	 esi
  000d6	e8 00 00 00 00	 call	 _memset

; 1845 : 					pDestTemp += transCount;		// 투명색만큼 건너 뛴다.

  000db	8b 45 f0	 mov	 eax, DWORD PTR _transCount$[ebp]

; 1846 : 					
; 1847 : 					// 투명색이 아닌만큼 출력해준다.
; 1848 : 					memcpyAlpha4444(pDestTemp, pPixels, colorCount);

  000de	8b 4d fc	 mov	 ecx, DWORD PTR _this$[ebp]
  000e1	83 c4 0c	 add	 esp, 12			; 0000000cH
  000e4	57		 push	 edi
  000e5	8d 1c 43	 lea	 ebx, DWORD PTR [ebx+eax*2]
  000e8	56		 push	 esi
  000e9	53		 push	 ebx
  000ea	e8 00 00 00 00	 call	 ?memcpyAlpha4444@CAlphaSprite@@QAEXPAG0G@Z ; CAlphaSprite::memcpyAlpha4444

; 1849 : 
; 1850 : 					// memory addr 증가
; 1851 : 					pDestTemp += colorCount;
; 1852 : 					pPixels += (colorCount<<1);
; 1853 : 				} while (--j);

  000ef	ff 4d 10	 dec	 DWORD PTR _j$[ebp]
  000f2	8d 1c 7b	 lea	 ebx, DWORD PTR [ebx+edi*2]
  000f5	8d 34 be	 lea	 esi, DWORD PTR [esi+edi*4]
  000f8	75 c9		 jne	 SHORT $L103588
$L103590:

; 1854 : 			}
; 1855 : 		}
; 1856 : 		
; 1857 : 
; 1858 : 		pDest = (WORD*)((BYTE*)pDest + pitch);

  000fa	0f b7 45 0c	 movzx	 eax, WORD PTR _pitch$[ebp]
  000fe	01 45 08	 add	 DWORD PTR _pDest$[ebp], eax
  00101	8b 45 f4	 mov	 eax, DWORD PTR _i$[ebp]
  00104	40		 inc	 eax
  00105	3b 45 ec	 cmp	 eax, DWORD PTR _rectBottom$[ebp]
  00108	89 45 f4	 mov	 DWORD PTR _i$[ebp], eax
  0010b	0f 8c 17 ff ff
	ff		 jl	 $L104913
  00111	5f		 pop	 edi
  00112	5e		 pop	 esi
  00113	5b		 pop	 ebx
$L103579:

; 1859 : 	}
; 1860 : }

  00114	c9		 leave
  00115	c2 0c 00	 ret	 12			; 0000000cH
?Blt4444NotTransClipLeft@CAlphaSprite@@QAEXPAGGPAUtagRECT@@@Z ENDP ; CAlphaSprite::Blt4444NotTransClipLeft
_TEXT	ENDS
PUBLIC	?Blt4444NotTransClipRight@CAlphaSprite@@QAEXPAGGPAUtagRECT@@@Z ; CAlphaSprite::Blt4444NotTransClipRight
; Function compile flags: /Ogsy
;	COMDAT ?Blt4444NotTransClipRight@CAlphaSprite@@QAEXPAGGPAUtagRECT@@@Z
_TEXT	SEGMENT
_rectBottom$ = -28					; size = 4
tv215 = -24						; size = 4
_i$ = -20						; size = 4
_rectRight$ = -16					; size = 4
_j$ = -12						; size = 4
_this$ = -8						; size = 4
_pDestTemp$ = -4					; size = 4
_pDest$ = 8						; size = 4
_pitch$ = 12						; size = 2
_index$ = 16						; size = 4
_pRect$ = 16						; size = 4
?Blt4444NotTransClipRight@CAlphaSprite@@QAEXPAGGPAUtagRECT@@@Z PROC NEAR ; CAlphaSprite::Blt4444NotTransClipRight, COMDAT
; _this$ = ecx

; 1870 : {

  00000	55		 push	 ebp
  00001	8b ec		 mov	 ebp, esp
  00003	83 ec 1c	 sub	 esp, 28			; 0000001cH

; 1871 : 	WORD	*pPixels,
; 1872 : 			*pDestTemp;
; 1873 : 
; 1874 : 	//--------------------------------------------
; 1875 : 	// pRect만큼의 점을 출력한다.
; 1876 : 	//--------------------------------------------
; 1877 : 	int		count,
; 1878 : 			transCount, 
; 1879 : 			colorCount,
; 1880 : 			index;
; 1881 : 
; 1882 : 	register int	i;
; 1883 : 	register int	j;
; 1884 : 
; 1885 : 	int rectBottom = pRect->bottom;

  00006	8b 45 10	 mov	 eax, DWORD PTR _pRect$[ebp]

; 1886 : 	int rectRight = pRect->right;

  00009	8b 50 08	 mov	 edx, DWORD PTR [eax+8]
  0000c	89 4d f8	 mov	 DWORD PTR _this$[ebp], ecx
  0000f	8b 48 0c	 mov	 ecx, DWORD PTR [eax+12]

; 1887 : 
; 1888 : 	for (i=pRect->top; i<rectBottom; i++)

  00012	8b 40 04	 mov	 eax, DWORD PTR [eax+4]
  00015	3b c1		 cmp	 eax, ecx
  00017	89 4d e4	 mov	 DWORD PTR _rectBottom$[ebp], ecx
  0001a	89 55 f0	 mov	 DWORD PTR _rectRight$[ebp], edx
  0001d	89 45 ec	 mov	 DWORD PTR _i$[ebp], eax
  00020	0f 8d c1 00 00
	00		 jge	 $L103611
  00026	53		 push	 ebx
  00027	56		 push	 esi
  00028	57		 push	 edi
$L104922:

; 1889 : 	{
; 1890 : 		pPixels = m_Pixels[i];

  00029	8b 4d f8	 mov	 ecx, DWORD PTR _this$[ebp]
  0002c	8b 49 08	 mov	 ecx, DWORD PTR [ecx+8]
  0002f	8b 34 81	 mov	 esi, DWORD PTR [ecx+eax*4]

; 1891 : 		pDestTemp = pDest;		

  00032	8b 45 08	 mov	 eax, DWORD PTR _pDest$[ebp]

; 1892 : 
; 1893 : 		// (투명수,색깔수,색깔들)의 반복 수
; 1894 : 		count = *pPixels++;		
; 1895 : 
; 1896 : 		// 한 줄 출력		
; 1897 : 		index = 0;

  00035	83 65 10 00	 and	 DWORD PTR _index$[ebp], 0
  00039	89 45 fc	 mov	 DWORD PTR _pDestTemp$[ebp], eax
  0003c	0f b7 06	 movzx	 eax, WORD PTR [esi]
  0003f	46		 inc	 esi
  00040	46		 inc	 esi

; 1898 : 			
; 1899 : 		//---------------------------------------------
; 1900 : 		// 각 줄마다 Clipping을 해줘야 하는데...		
; 1901 : 		// OOOOOOOOOOOOOOxxxxx 이런 경우이다.
; 1902 : 		//---------------------------------------------
; 1903 : 		// OOOOOOOOOOOOOO까지만 출력해주면 된다.
; 1904 : 		//---------------------------------------------
; 1905 : 		// 한 줄 출력
; 1906 : 		if (count > 0)

  00041	85 c0		 test	 eax, eax
  00043	0f 8e 84 00 00
	00		 jle	 $L103615

; 1907 : 		{			
; 1908 : 			j = count;

  00049	89 45 f4	 mov	 DWORD PTR _j$[ebp], eax
$L103613:

; 1909 : 			do
; 1910 : 			{
; 1911 : 				transCount = *pPixels++;		// 투명색 수			

  0004c	0f b7 3e	 movzx	 edi, WORD PTR [esi]

; 1912 : 				colorCount = *pPixels++;		// 투명 아닌 색 수			
; 1913 : 						
; 1914 : 				// 투명색만큼 index증가
; 1915 : 				index += transCount;

  0004f	01 7d 10	 add	 DWORD PTR _index$[ebp], edi

; 1916 : 				
; 1917 : 				// 출력하고 있다가 오른쪽부분부터 출력하지 말아야 할 경우가 있다.
; 1918 : 				// 현재 출력하는 줄은 모두 출력한 것이므로 break해야 한다.
; 1919 : 
; 1920 : 				// 투명색까지 출력하는것만으로 더 이상 출력할 필요가 없을 경우
; 1921 : 
; 1922 : 				//---------------------------------------------
; 1923 : 				// 오른쪽 끝까지 도달했을 경우
; 1924 : 				//---------------------------------------------			
; 1925 : 				if (index+colorCount > rectRight)

  00052	8b 45 10	 mov	 eax, DWORD PTR _index$[ebp]
  00055	8b 4d f0	 mov	 ecx, DWORD PTR _rectRight$[ebp]
  00058	46		 inc	 esi
  00059	46		 inc	 esi
  0005a	0f b7 1e	 movzx	 ebx, WORD PTR [esi]
  0005d	46		 inc	 esi
  0005e	03 c3		 add	 eax, ebx
  00060	46		 inc	 esi
  00061	3b c1		 cmp	 eax, ecx
  00063	89 45 e8	 mov	 DWORD PTR tv215[ebp], eax
  00066	7f 38		 jg	 SHORT $L104919

; 1941 : 						break;
; 1942 : 					}
; 1943 : 				}
; 1944 : 
; 1945 : 				// 0을 출력한다.
; 1946 : 				memset(pDestTemp, 0, transCount<<1);

  00068	8d 04 3f	 lea	 eax, DWORD PTR [edi+edi]
  0006b	50		 push	 eax
  0006c	6a 00		 push	 0
  0006e	ff 75 fc	 push	 DWORD PTR _pDestTemp$[ebp]
  00071	e8 00 00 00 00	 call	 _memset

; 1947 : 				pDestTemp += transCount;		// 투명색만큼 건너 뛴다.

  00076	8b 45 fc	 mov	 eax, DWORD PTR _pDestTemp$[ebp]

; 1948 : 
; 1949 : 				// 출력
; 1950 : 				memcpyAlpha4444(pDestTemp, pPixels, colorCount);

  00079	8b 4d f8	 mov	 ecx, DWORD PTR _this$[ebp]
  0007c	83 c4 0c	 add	 esp, 12			; 0000000cH
  0007f	53		 push	 ebx
  00080	8d 3c 78	 lea	 edi, DWORD PTR [eax+edi*2]
  00083	56		 push	 esi
  00084	57		 push	 edi
  00085	e8 00 00 00 00	 call	 ?memcpyAlpha4444@CAlphaSprite@@QAEXPAG0G@Z ; CAlphaSprite::memcpyAlpha4444

; 1951 : 				pDestTemp += colorCount;
; 1952 : 				pPixels += (colorCount<<1);
; 1953 : 				index += colorCount;
; 1954 : 			} while (--j);

  0008a	ff 4d f4	 dec	 DWORD PTR _j$[ebp]
  0008d	8d 04 5f	 lea	 eax, DWORD PTR [edi+ebx*2]
  00090	89 45 fc	 mov	 DWORD PTR _pDestTemp$[ebp], eax
  00093	8b 45 e8	 mov	 eax, DWORD PTR tv215[ebp]
  00096	8d 34 9e	 lea	 esi, DWORD PTR [esi+ebx*4]
  00099	89 45 10	 mov	 DWORD PTR _index$[ebp], eax
  0009c	75 ae		 jne	 SHORT $L103613
  0009e	eb 2d		 jmp	 SHORT $L103615
$L104919:

; 1926 : 				{
; 1927 : 					// 투명색만으로 더 출력할 필요가 없을 때
; 1928 : 					if (index > rectRight)

  000a0	39 4d 10	 cmp	 DWORD PTR _index$[ebp], ecx
  000a3	7f 28		 jg	 SHORT $L103615

; 1929 : 					{
; 1930 : 						break;
; 1931 : 					}
; 1932 : 					// 투명색 아닌 것을 조금 출력해야 할 경우
; 1933 : 					else
; 1934 : 					{
; 1935 : 						// 0을 출력한다.
; 1936 : 						memset(pDestTemp, 0, transCount<<1);

  000a5	8d 04 3f	 lea	 eax, DWORD PTR [edi+edi]
  000a8	50		 push	 eax
  000a9	6a 00		 push	 0
  000ab	ff 75 fc	 push	 DWORD PTR _pDestTemp$[ebp]
  000ae	e8 00 00 00 00	 call	 _memset

; 1937 : 						pDestTemp += transCount;		// 투명색만큼 건너 뛴다.
; 1938 : 					
; 1939 : 						// 투명이 아닌 색들을 Surface에 출력한다.
; 1940 : 						memcpyAlpha4444(pDestTemp, pPixels, rectRight - index);

  000b3	8b 45 f0	 mov	 eax, DWORD PTR _rectRight$[ebp]
  000b6	2b 45 10	 sub	 eax, DWORD PTR _index$[ebp]
  000b9	8b 4d f8	 mov	 ecx, DWORD PTR _this$[ebp]
  000bc	83 c4 0c	 add	 esp, 12			; 0000000cH
  000bf	50		 push	 eax
  000c0	8b 45 fc	 mov	 eax, DWORD PTR _pDestTemp$[ebp]
  000c3	56		 push	 esi
  000c4	8d 04 78	 lea	 eax, DWORD PTR [eax+edi*2]
  000c7	50		 push	 eax
  000c8	e8 00 00 00 00	 call	 ?memcpyAlpha4444@CAlphaSprite@@QAEXPAG0G@Z ; CAlphaSprite::memcpyAlpha4444
$L103615:

; 1955 : 		}
; 1956 : 		
; 1957 : 		pDest = (WORD*)((BYTE*)pDest + pitch);

  000cd	0f b7 45 0c	 movzx	 eax, WORD PTR _pitch$[ebp]
  000d1	01 45 08	 add	 DWORD PTR _pDest$[ebp], eax
  000d4	8b 45 ec	 mov	 eax, DWORD PTR _i$[ebp]
  000d7	40		 inc	 eax
  000d8	3b 45 e4	 cmp	 eax, DWORD PTR _rectBottom$[ebp]
  000db	89 45 ec	 mov	 DWORD PTR _i$[ebp], eax
  000de	0f 8c 45 ff ff
	ff		 jl	 $L104922
  000e4	5f		 pop	 edi
  000e5	5e		 pop	 esi
  000e6	5b		 pop	 ebx
$L103611:

; 1958 : 	}
; 1959 : }

  000e7	c9		 leave
  000e8	c2 0c 00	 ret	 12			; 0000000cH
?Blt4444NotTransClipRight@CAlphaSprite@@QAEXPAGGPAUtagRECT@@@Z ENDP ; CAlphaSprite::Blt4444NotTransClipRight
_TEXT	ENDS
PUBLIC	?Blt4444NotTransClipWidth@CAlphaSprite@@QAEXPAGGPAUtagRECT@@@Z ; CAlphaSprite::Blt4444NotTransClipWidth
; Function compile flags: /Ogsy
;	COMDAT ?Blt4444NotTransClipWidth@CAlphaSprite@@QAEXPAGGPAUtagRECT@@@Z
_TEXT	SEGMENT
_rectBottom$ = -32					; size = 4
tv281 = -28						; size = 4
_colorCount$ = -24					; size = 4
_rectLeft$ = -20					; size = 4
_i$ = -16						; size = 4
_rectRight$ = -12					; size = 4
_this$ = -8						; size = 4
_j$ = -4						; size = 4
_pDest$ = 8						; size = 4
_pitch$ = 12						; size = 2
_index$ = 16						; size = 4
_pRect$ = 16						; size = 4
?Blt4444NotTransClipWidth@CAlphaSprite@@QAEXPAGGPAUtagRECT@@@Z PROC NEAR ; CAlphaSprite::Blt4444NotTransClipWidth, COMDAT
; _this$ = ecx

; 1970 : {

  00000	55		 push	 ebp
  00001	8b ec		 mov	 ebp, esp
  00003	83 ec 20	 sub	 esp, 32			; 00000020H

; 1971 : 	WORD	*pPixels,
; 1972 : 			*pDestTemp;
; 1973 : 
; 1974 : 	//--------------------------------------------
; 1975 : 	// pRect만큼의 점을 출력한다.
; 1976 : 	//--------------------------------------------
; 1977 : 	int		count,
; 1978 : 			transCount, 
; 1979 : 			colorCount,
; 1980 : 			index,
; 1981 : 			dist;
; 1982 : 
; 1983 : 	register int i;
; 1984 : 	register int j;
; 1985 : 
; 1986 : 	int rectBottom = pRect->bottom;

  00006	8b 45 10	 mov	 eax, DWORD PTR _pRect$[ebp]

; 1987 : 	int rectLeft = pRect->left;

  00009	8b 10		 mov	 edx, DWORD PTR [eax]
  0000b	56		 push	 esi

; 1988 : 	int rectRight = pRect->right;

  0000c	8b 70 08	 mov	 esi, DWORD PTR [eax+8]
  0000f	89 4d f8	 mov	 DWORD PTR _this$[ebp], ecx
  00012	8b 48 0c	 mov	 ecx, DWORD PTR [eax+12]

; 1989 : 
; 1990 : 	//---------------------------------------------
; 1991 : 	// 출력해야하는 모든 줄에 대해서..
; 1992 : 	//---------------------------------------------
; 1993 : 	for (i=pRect->top; i<rectBottom; i++)

  00015	8b 40 04	 mov	 eax, DWORD PTR [eax+4]
  00018	3b c1		 cmp	 eax, ecx
  0001a	89 4d e0	 mov	 DWORD PTR _rectBottom$[ebp], ecx
  0001d	89 55 ec	 mov	 DWORD PTR _rectLeft$[ebp], edx
  00020	89 75 f4	 mov	 DWORD PTR _rectRight$[ebp], esi
  00023	89 45 f0	 mov	 DWORD PTR _i$[ebp], eax
  00026	0f 8d 3d 01 00
	00		 jge	 $L103641
  0002c	53		 push	 ebx
  0002d	57		 push	 edi
  0002e	eb 03		 jmp	 SHORT $L103639
$L104933:
  00030	8b 55 ec	 mov	 edx, DWORD PTR _rectLeft$[ebp]
$L103639:

; 1994 : 	{
; 1995 : 		pPixels = m_Pixels[i];

  00033	8b 4d f8	 mov	 ecx, DWORD PTR _this$[ebp]
  00036	8b 49 08	 mov	 ecx, DWORD PTR [ecx+8]
  00039	8b 34 81	 mov	 esi, DWORD PTR [ecx+eax*4]

; 1996 : 		pDestTemp = pDest;		
; 1997 : 
; 1998 : 		// (투명수,색깔수,색깔들)의 반복 수
; 1999 : 		count = *pPixels++;		

  0003c	0f b7 0e	 movzx	 ecx, WORD PTR [esi]
  0003f	8b 5d 08	 mov	 ebx, DWORD PTR _pDest$[ebp]
  00042	46		 inc	 esi
  00043	46		 inc	 esi

; 2000 : 
; 2001 : 		// 한 줄 출력		
; 2002 : 		index = 0;

  00044	33 c0		 xor	 eax, eax

; 2003 : 		
; 2004 : 		//---------------------------------------------
; 2005 : 		// 각 줄마다 Clipping을 해줘야 하는데...
; 2006 : 		// xxxxOOOOOOOOOOOOOO인 경우이므로..
; 2007 : 		//---------------------------------------------
; 2008 : 		// xxxx부분까지 check해주는 루틴
; 2009 : 		//---------------------------------------------
; 2010 : 		// 한 줄 출력
; 2011 : 		if (count > 0)

  00046	85 c9		 test	 ecx, ecx
  00048	0f 8e 02 01 00
	00		 jle	 $L103652

; 2012 : 		{			
; 2013 : 			j = count;

  0004e	89 4d fc	 mov	 DWORD PTR _j$[ebp], ecx
$L103643:

; 2014 : 			do
; 2015 : 			{
; 2016 : 				transCount = *pPixels++;		// 투명색 수			

  00051	0f b7 0e	 movzx	 ecx, WORD PTR [esi]
  00054	46		 inc	 esi
  00055	46		 inc	 esi

; 2017 : 				colorCount = *pPixels++;		// 투명 아닌 색 수			

  00056	0f b7 3e	 movzx	 edi, WORD PTR [esi]

; 2018 : 						
; 2019 : 				// 투명색만큼 index증가			
; 2020 : 				index += transCount;

  00059	03 c1		 add	 eax, ecx
  0005b	46		 inc	 esi

; 2021 : 				
; 2022 : 			
; 2023 : 				//---------------------------------------------
; 2024 : 				// xxxx범위를 넘어가게 되는 경우
; 2025 : 				//---------------------------------------------
; 2026 : 				if (index+colorCount > rectLeft)

  0005c	8d 0c 07	 lea	 ecx, DWORD PTR [edi+eax]
  0005f	46		 inc	 esi
  00060	3b ca		 cmp	 ecx, edx
  00062	89 45 10	 mov	 DWORD PTR _index$[ebp], eax
  00065	7f 0f		 jg	 SHORT $L104928

; 2060 : 
; 2061 : 						// 이제부터는 계속 출력한다.
; 2062 : 						break;
; 2063 : 					}
; 2064 : 				}					
; 2065 : 
; 2066 : 				// 투명이 아닌 색만큼 index증가				
; 2067 : 				pPixels += (colorCount<<1);
; 2068 : 				index += colorCount;
; 2069 : 			} while (--j);

  00067	ff 4d fc	 dec	 DWORD PTR _j$[ebp]
  0006a	8d 34 be	 lea	 esi, DWORD PTR [esi+edi*4]
  0006d	89 4d 10	 mov	 DWORD PTR _index$[ebp], ecx
  00070	74 5b		 je	 SHORT $L103645
  00072	8b c1		 mov	 eax, ecx
  00074	eb db		 jmp	 SHORT $L103643
$L104928:

; 2027 : 				{
; 2028 : 					//---------------------------------------------
; 2029 : 					// 투명색만으로 xxxx범위를 넘어갔을 경우
; 2030 : 					//---------------------------------------------
; 2031 : 					if (index > rectLeft)

  00076	3b c2		 cmp	 eax, edx
  00078	7e 2b		 jle	 SHORT $L103647

; 2032 : 					{	
; 2033 : 						transCount = index - rectLeft;

  0007a	8b d8		 mov	 ebx, eax
  0007c	2b da		 sub	 ebx, edx

; 2034 : 						// 0을 출력한다.
; 2035 : 						memset(pDestTemp, 0, transCount<<1);

  0007e	8d 04 1b	 lea	 eax, DWORD PTR [ebx+ebx]
  00081	50		 push	 eax
  00082	6a 00		 push	 0
  00084	ff 75 08	 push	 DWORD PTR _pDest$[ebp]
  00087	e8 00 00 00 00	 call	 _memset

; 2036 : 						pDestTemp += transCount;		// 투명색만큼 건너 뛴다.

  0008c	8b 45 08	 mov	 eax, DWORD PTR _pDest$[ebp]

; 2037 : 
; 2038 : 						// 이번 단계는 모두 출력
; 2039 : 						memcpyAlpha4444(pDestTemp, pPixels, colorCount);

  0008f	8b 4d f8	 mov	 ecx, DWORD PTR _this$[ebp]
  00092	83 c4 0c	 add	 esp, 12			; 0000000cH
  00095	57		 push	 edi
  00096	8d 1c 58	 lea	 ebx, DWORD PTR [eax+ebx*2]
  00099	56		 push	 esi
  0009a	53		 push	 ebx
  0009b	e8 00 00 00 00	 call	 ?memcpyAlpha4444@CAlphaSprite@@QAEXPAG0G@Z ; CAlphaSprite::memcpyAlpha4444

; 2040 : 						pDestTemp += colorCount;

  000a0	8d 1c 7b	 lea	 ebx, DWORD PTR [ebx+edi*2]

; 2041 : 						pPixels += (colorCount<<1);
; 2042 : 						index += colorCount;
; 2043 : 
; 2044 : 						// 이제부터는 계속 출력한다.
; 2045 : 						break;

  000a3	eb 22		 jmp	 SHORT $L104934
$L103647:

; 2046 : 					}
; 2047 : 					//---------------------------------------------
; 2048 : 					// 투명색+투명아닌색의 일부까지 출력하면 
; 2049 : 					// xxxx범위를 넘어가게 되는 경우
; 2050 : 					//---------------------------------------------
; 2051 : 					else
; 2052 : 					{
; 2053 : 						dist = rectLeft - index;
; 2054 : 
; 2055 : 						// 투명이 아닌 색들을 Surface에 출력한다.
; 2056 : 						memcpyAlpha4444(pDestTemp, pPixels+(dist<<1), colorCount-dist);

  000a5	8b 4d f8	 mov	 ecx, DWORD PTR _this$[ebp]
  000a8	8b da		 mov	 ebx, edx
  000aa	2b d8		 sub	 ebx, eax
  000ac	8b c7		 mov	 eax, edi
  000ae	2b c3		 sub	 eax, ebx
  000b0	50		 push	 eax
  000b1	8d 04 9e	 lea	 eax, DWORD PTR [esi+ebx*4]
  000b4	50		 push	 eax
  000b5	ff 75 08	 push	 DWORD PTR _pDest$[ebp]
  000b8	e8 00 00 00 00	 call	 ?memcpyAlpha4444@CAlphaSprite@@QAEXPAG0G@Z ; CAlphaSprite::memcpyAlpha4444

; 2057 : 						pDestTemp += colorCount-dist;

  000bd	8b 4d 08	 mov	 ecx, DWORD PTR _pDest$[ebp]
  000c0	8b c7		 mov	 eax, edi
  000c2	2b c3		 sub	 eax, ebx
  000c4	8d 1c 41	 lea	 ebx, DWORD PTR [ecx+eax*2]
$L104934:

; 2058 : 						pPixels += (colorCount<<1);
; 2059 : 						index += colorCount;

  000c7	01 7d 10	 add	 DWORD PTR _index$[ebp], edi
  000ca	8d 34 be	 lea	 esi, DWORD PTR [esi+edi*4]
$L103645:

; 2070 : 
; 2071 : 			//---------------------------------------------
; 2072 : 			// 각 줄마다 Clipping을 해줘야 하는데...		
; 2073 : 			// OOOOOOOOOOOOOOxxxxx 이런 경우이다.
; 2074 : 			//---------------------------------------------
; 2075 : 			// OOOOOOOOOOOOOO까지만 출력해주면 된다.
; 2076 : 			//---------------------------------------------
; 2077 : 			if (--j > 0)

  000cd	ff 4d fc	 dec	 DWORD PTR _j$[ebp]
  000d0	83 7d fc 00	 cmp	 DWORD PTR _j$[ebp], 0
  000d4	7e 7a		 jle	 SHORT $L103652
$L103650:

; 2078 : 			{
; 2079 : 				do
; 2080 : 				{
; 2081 : 					transCount = *pPixels++;		// 투명색 수			

  000d6	0f b7 3e	 movzx	 edi, WORD PTR [esi]

; 2082 : 					colorCount = *pPixels++;		// 투명 아닌 색 수			
; 2083 : 							
; 2084 : 					// 투명색만큼 index증가
; 2085 : 					index += transCount;

  000d9	01 7d 10	 add	 DWORD PTR _index$[ebp], edi

; 2086 : 					
; 2087 : 					// 출력하고 있다가 오른쪽부분부터 출력하지 말아야 할 경우가 있다.
; 2088 : 					// 현재 출력하는 줄은 모두 출력한 것이므로 break해야 한다.
; 2089 : 
; 2090 : 					// 투명색까지 출력하는것만으로 더 이상 출력할 필요가 없을 경우
; 2091 : 
; 2092 : 					//---------------------------------------------
; 2093 : 					// 오른쪽 끝까지 도달했을 경우
; 2094 : 					//---------------------------------------------			
; 2095 : 					if (index+colorCount > rectRight)

  000dc	8b 4d 10	 mov	 ecx, DWORD PTR _index$[ebp]
  000df	46		 inc	 esi
  000e0	46		 inc	 esi
  000e1	0f b7 06	 movzx	 eax, WORD PTR [esi]
  000e4	89 45 e8	 mov	 DWORD PTR _colorCount$[ebp], eax
  000e7	03 c1		 add	 eax, ecx
  000e9	8b 4d f4	 mov	 ecx, DWORD PTR _rectRight$[ebp]
  000ec	46		 inc	 esi
  000ed	46		 inc	 esi
  000ee	3b c1		 cmp	 eax, ecx
  000f0	89 45 e4	 mov	 DWORD PTR tv281[ebp], eax
  000f3	7f 33		 jg	 SHORT $L104929

; 2111 : 							break;
; 2112 : 						}
; 2113 : 					}
; 2114 : 
; 2115 : 					// 0을 출력한다.
; 2116 : 					memset(pDestTemp, 0, transCount<<1);

  000f5	8d 04 3f	 lea	 eax, DWORD PTR [edi+edi]
  000f8	50		 push	 eax
  000f9	6a 00		 push	 0
  000fb	53		 push	 ebx
  000fc	e8 00 00 00 00	 call	 _memset

; 2117 : 					pDestTemp += transCount;		// 투명색만큼 건너 뛴다.
; 2118 : 
; 2119 : 					// 출력
; 2120 : 					memcpyAlpha4444(pDestTemp, pPixels, colorCount);

  00101	8b 4d f8	 mov	 ecx, DWORD PTR _this$[ebp]
  00104	83 c4 0c	 add	 esp, 12			; 0000000cH
  00107	8d 1c 7b	 lea	 ebx, DWORD PTR [ebx+edi*2]
  0010a	8b 7d e8	 mov	 edi, DWORD PTR _colorCount$[ebp]
  0010d	57		 push	 edi
  0010e	56		 push	 esi
  0010f	53		 push	 ebx
  00110	e8 00 00 00 00	 call	 ?memcpyAlpha4444@CAlphaSprite@@QAEXPAG0G@Z ; CAlphaSprite::memcpyAlpha4444

; 2121 : 					pDestTemp += colorCount;
; 2122 : 					pPixels += (colorCount<<1);
; 2123 : 					index += colorCount;
; 2124 : 				} while (--j);

  00115	ff 4d fc	 dec	 DWORD PTR _j$[ebp]
  00118	8b 45 e4	 mov	 eax, DWORD PTR tv281[ebp]
  0011b	8d 1c 7b	 lea	 ebx, DWORD PTR [ebx+edi*2]
  0011e	8d 34 be	 lea	 esi, DWORD PTR [esi+edi*4]
  00121	89 45 10	 mov	 DWORD PTR _index$[ebp], eax
  00124	75 b0		 jne	 SHORT $L103650
  00126	eb 28		 jmp	 SHORT $L103652
$L104929:

; 2096 : 					{
; 2097 : 						// 투명색만으로 더 출력할 필요가 없을 때
; 2098 : 						if (index > rectRight)

  00128	39 4d 10	 cmp	 DWORD PTR _index$[ebp], ecx
  0012b	7f 23		 jg	 SHORT $L103652

; 2099 : 						{
; 2100 : 							break;
; 2101 : 						}
; 2102 : 						// 투명색 아닌 것을 조금 출력해야 할 경우
; 2103 : 						else
; 2104 : 						{
; 2105 : 							// 0을 출력한다.
; 2106 : 							memset(pDestTemp, 0, transCount<<1);

  0012d	8d 04 3f	 lea	 eax, DWORD PTR [edi+edi]
  00130	50		 push	 eax
  00131	6a 00		 push	 0
  00133	53		 push	 ebx
  00134	e8 00 00 00 00	 call	 _memset

; 2107 : 							pDestTemp += transCount;		// 투명색만큼 건너 뛴다.
; 2108 : 						
; 2109 : 							// 투명이 아닌 색들을 Surface에 출력한다.
; 2110 : 							memcpyAlpha4444(pDestTemp, pPixels, rectRight - index);

  00139	8b 45 f4	 mov	 eax, DWORD PTR _rectRight$[ebp]
  0013c	2b 45 10	 sub	 eax, DWORD PTR _index$[ebp]
  0013f	8b 4d f8	 mov	 ecx, DWORD PTR _this$[ebp]
  00142	83 c4 0c	 add	 esp, 12			; 0000000cH
  00145	50		 push	 eax
  00146	56		 push	 esi
  00147	8d 04 7b	 lea	 eax, DWORD PTR [ebx+edi*2]
  0014a	50		 push	 eax
  0014b	e8 00 00 00 00	 call	 ?memcpyAlpha4444@CAlphaSprite@@QAEXPAG0G@Z ; CAlphaSprite::memcpyAlpha4444
$L103652:

; 2125 : 			}
; 2126 : 		}		
; 2127 : 
; 2128 : 		pDest = (WORD*)((BYTE*)pDest + pitch);

  00150	0f b7 45 0c	 movzx	 eax, WORD PTR _pitch$[ebp]
  00154	01 45 08	 add	 DWORD PTR _pDest$[ebp], eax
  00157	8b 45 f0	 mov	 eax, DWORD PTR _i$[ebp]
  0015a	40		 inc	 eax
  0015b	3b 45 e0	 cmp	 eax, DWORD PTR _rectBottom$[ebp]
  0015e	89 45 f0	 mov	 DWORD PTR _i$[ebp], eax
  00161	0f 8c c9 fe ff
	ff		 jl	 $L104933
  00167	5f		 pop	 edi
  00168	5b		 pop	 ebx
$L103641:
  00169	5e		 pop	 esi

; 2129 : 	}
; 2130 : }

  0016a	c9		 leave
  0016b	c2 0c 00	 ret	 12			; 0000000cH
?Blt4444NotTransClipWidth@CAlphaSprite@@QAEXPAGGPAUtagRECT@@@Z ENDP ; CAlphaSprite::Blt4444NotTransClipWidth
_TEXT	ENDS
PUBLIC	?Blt4444NotTransClipHeight@CAlphaSprite@@QAEXPAGGPAUtagRECT@@@Z ; CAlphaSprite::Blt4444NotTransClipHeight
; Function compile flags: /Ogsy
;	COMDAT ?Blt4444NotTransClipHeight@CAlphaSprite@@QAEXPAGGPAUtagRECT@@@Z
_TEXT	SEGMENT
_rectBottom$ = -16					; size = 4
_i$ = -12						; size = 4
_j$ = -8						; size = 4
_this$ = -4						; size = 4
_pDest$ = 8						; size = 4
_pitch$ = 12						; size = 2
_pDestTemp$ = 16					; size = 4
_pRect$ = 16						; size = 4
?Blt4444NotTransClipHeight@CAlphaSprite@@QAEXPAGGPAUtagRECT@@@Z PROC NEAR ; CAlphaSprite::Blt4444NotTransClipHeight, COMDAT
; _this$ = ecx

; 2139 : {

  00000	55		 push	 ebp
  00001	8b ec		 mov	 ebp, esp
  00003	83 ec 10	 sub	 esp, 16			; 00000010H

; 2140 : 	int		count,
; 2141 : 			transCount,
; 2142 : 			colorCount;
; 2143 : 
; 2144 : 	WORD	*pDestTemp,
; 2145 : 			*pPixels;
; 2146 : 
; 2147 : 
; 2148 : 	register int i;
; 2149 : 	register int j;
; 2150 : 
; 2151 : 	int rectBottom = pRect->bottom;

  00006	8b 45 10	 mov	 eax, DWORD PTR _pRect$[ebp]
  00009	89 4d fc	 mov	 DWORD PTR _this$[ebp], ecx
  0000c	8b 48 0c	 mov	 ecx, DWORD PTR [eax+12]

; 2152 : 
; 2153 : 	for (i=pRect->top; i<rectBottom; i++)

  0000f	8b 40 04	 mov	 eax, DWORD PTR [eax+4]
  00012	3b c1		 cmp	 eax, ecx
  00014	89 4d f0	 mov	 DWORD PTR _rectBottom$[ebp], ecx
  00017	89 45 f4	 mov	 DWORD PTR _i$[ebp], eax
  0001a	7d 6e		 jge	 SHORT $L103674
  0001c	53		 push	 ebx
  0001d	56		 push	 esi
  0001e	57		 push	 edi
$L104941:

; 2154 : 	{			
; 2155 : 		pPixels		= m_Pixels[i];

  0001f	8b 4d fc	 mov	 ecx, DWORD PTR _this$[ebp]
  00022	8b 49 08	 mov	 ecx, DWORD PTR [ecx+8]
  00025	8b 34 81	 mov	 esi, DWORD PTR [ecx+eax*4]

; 2156 : 		pDestTemp	= pDest;

  00028	8b 45 08	 mov	 eax, DWORD PTR _pDest$[ebp]
  0002b	89 45 10	 mov	 DWORD PTR _pDestTemp$[ebp], eax

; 2157 : 
; 2158 : 		// (투명수,색깔수,색깔들)의 반복 수		
; 2159 : 		count	= *pPixels++;		

  0002e	0f b7 06	 movzx	 eax, WORD PTR [esi]
  00031	46		 inc	 esi
  00032	46		 inc	 esi

; 2160 : 
; 2161 : 		// 한 줄 출력
; 2162 : 		// 한 줄 출력
; 2163 : 		if (count > 0)

  00033	85 c0		 test	 eax, eax
  00035	7e 3d		 jle	 SHORT $L103678

; 2164 : 		{			
; 2165 : 			j = count;

  00037	89 45 f8	 mov	 DWORD PTR _j$[ebp], eax
$L103676:

; 2166 : 			do
; 2167 : 			{	
; 2168 : 				transCount = *pPixels++;		// 투명색만큼 건너 뛴다.

  0003a	0f b7 1e	 movzx	 ebx, WORD PTR [esi]
  0003d	46		 inc	 esi

; 2169 : 				colorCount = *pPixels++;		// 투명 아닌 색 수				
; 2170 : 
; 2171 : 				// 0을 출력한다.
; 2172 : 				memset(pDestTemp, 0, transCount<<1);

  0003e	8d 04 1b	 lea	 eax, DWORD PTR [ebx+ebx]
  00041	50		 push	 eax
  00042	46		 inc	 esi
  00043	0f b7 3e	 movzx	 edi, WORD PTR [esi]
  00046	6a 00		 push	 0
  00048	ff 75 10	 push	 DWORD PTR _pDestTemp$[ebp]
  0004b	46		 inc	 esi
  0004c	46		 inc	 esi
  0004d	e8 00 00 00 00	 call	 _memset

; 2173 : 				pDestTemp += transCount;		// 투명색만큼 건너 뛴다.

  00052	8b 45 10	 mov	 eax, DWORD PTR _pDestTemp$[ebp]

; 2174 : 
; 2175 : 				// 투명이 아닌 색들을 Surface에 출력한다.
; 2176 : 				memcpyAlpha4444(pDestTemp, pPixels, colorCount);

  00055	8b 4d fc	 mov	 ecx, DWORD PTR _this$[ebp]
  00058	83 c4 0c	 add	 esp, 12			; 0000000cH
  0005b	57		 push	 edi
  0005c	8d 1c 58	 lea	 ebx, DWORD PTR [eax+ebx*2]
  0005f	56		 push	 esi
  00060	53		 push	 ebx
  00061	e8 00 00 00 00	 call	 ?memcpyAlpha4444@CAlphaSprite@@QAEXPAG0G@Z ; CAlphaSprite::memcpyAlpha4444

; 2177 : 				
; 2178 : 				pDestTemp	+= colorCount;
; 2179 : 				pPixels		+= (colorCount<<1);
; 2180 : 			} while (--j);

  00066	ff 4d f8	 dec	 DWORD PTR _j$[ebp]
  00069	8d 04 7b	 lea	 eax, DWORD PTR [ebx+edi*2]
  0006c	89 45 10	 mov	 DWORD PTR _pDestTemp$[ebp], eax
  0006f	8d 34 be	 lea	 esi, DWORD PTR [esi+edi*4]
  00072	75 c6		 jne	 SHORT $L103676
$L103678:

; 2181 : 		}
; 2182 : 
; 2183 : 		pDest = (WORD*)((BYTE*)pDest + pitch);

  00074	0f b7 45 0c	 movzx	 eax, WORD PTR _pitch$[ebp]
  00078	01 45 08	 add	 DWORD PTR _pDest$[ebp], eax
  0007b	8b 45 f4	 mov	 eax, DWORD PTR _i$[ebp]
  0007e	40		 inc	 eax
  0007f	3b 45 f0	 cmp	 eax, DWORD PTR _rectBottom$[ebp]
  00082	89 45 f4	 mov	 DWORD PTR _i$[ebp], eax
  00085	7c 98		 jl	 SHORT $L104941
  00087	5f		 pop	 edi
  00088	5e		 pop	 esi
  00089	5b		 pop	 ebx
$L103674:

; 2184 : 	}
; 2185 : }

  0008a	c9		 leave
  0008b	c2 0c 00	 ret	 12			; 0000000cH
?Blt4444NotTransClipHeight@CAlphaSprite@@QAEXPAGGPAUtagRECT@@@Z ENDP ; CAlphaSprite::Blt4444NotTransClipHeight
_TEXT	ENDS
PUBLIC	?memcpyAlphaValue@CAlphaSprite@@QAEXPAG0G@Z	; CAlphaSprite::memcpyAlphaValue
; Function compile flags: /Ogsy
;	COMDAT ?memcpyAlphaValue@CAlphaSprite@@QAEXPAG0G@Z
_TEXT	SEGMENT
tv221 = -4						; size = 4
_db$ = 8						; size = 4
_pDest$ = 8						; size = 4
_pSource$ = 12						; size = 4
_dr$ = 16						; size = 4
_pixels$ = 16						; size = 2
?memcpyAlphaValue@CAlphaSprite@@QAEXPAG0G@Z PROC NEAR	; CAlphaSprite::memcpyAlphaValue, COMDAT
; _this$ = ecx

; 2735 : {

  00000	55		 push	 ebp
  00001	8b ec		 mov	 ebp, esp
  00003	51		 push	 ecx

; 2736 : 	register WORD		sTemp,dTemp;
; 2737 : 	register int		sr,sg,sb,dr,dg,db;
; 2738 : 	//static WORD		temp, temp2;
; 2739 : 
; 2740 : 	register int i = pixels;

  00004	0f b7 45 10	 movzx	 eax, WORD PTR _pixels$[ebp]

; 2741 : 
; 2742 : 	//BYTE alpha;
; 2743 : 
; 2744 : 	// Alpha Channel Blending
; 2745 : 	// 한점씩 찍기
; 2746 : 	while (i--)

  00008	85 c0		 test	 eax, eax
  0000a	0f 84 b0 00 00
	00		 je	 $L104965
  00010	53		 push	 ebx
  00011	56		 push	 esi
  00012	57		 push	 edi
  00013	8b 7d 08	 mov	 edi, DWORD PTR _pDest$[ebp]
  00016	89 45 fc	 mov	 DWORD PTR tv221[ebp], eax
$L103850:

; 2747 : 	{	
; 2748 : 		// Source에는 Alpha값이 포함되어 있다.
; 2749 : 		//alpha = *pSource >> 8;
; 2750 : 		pSource++;
; 2751 : 
; 2752 : 		// 한점 찍기
; 2753 : 		sTemp = *pSource;
; 2754 : 		dTemp = *pDest;
; 2755 : 
; 2756 : 		sr = CDirectDraw::Red(sTemp);
; 2757 : 		sg = CDirectDraw::Green(sTemp);
; 2758 : 		sb = CDirectDraw::Blue(sTemp);
; 2759 : 
; 2760 : 		dr = CDirectDraw::Red(dTemp);

  00019	66 0f b6 35 00
	00 00 00	 movzx	 si, BYTE PTR ?s_bSHIFT_R@CDirectDraw@@2EA ; CDirectDraw::s_bSHIFT_R
  00021	83 45 0c 02	 add	 DWORD PTR _pSource$[ebp], 2
  00025	8b 45 0c	 mov	 eax, DWORD PTR _pSource$[ebp]
  00028	66 8b 00	 mov	 ax, WORD PTR [eax]
  0002b	33 d2		 xor	 edx, edx
  0002d	66 8b 17	 mov	 dx, WORD PTR [edi]
  00030	66 8b ce	 mov	 cx, si

; 2761 : 		dg = CDirectDraw::Green(dTemp);
; 2762 : 		db = CDirectDraw::Blue(dTemp);		
; 2763 : 		
; 2764 : 		*pDest = ((s_Value1 * (sb - db) >> 5) + db |
; 2765 : 					((s_Value1 * (sg - dg) >> 5) + dg) << CDirectDraw::s_bSHIFT_G |
; 2766 : 					((s_Value1 * (sr - dr) >> 5) + dr) << CDirectDraw::s_bSHIFT_R);

  00033	8b 35 00 00 00
	00		 mov	 esi, DWORD PTR ?s_Value1@CAlphaSprite@@1HA ; CAlphaSprite::s_Value1

; 2767 : 	
; 2768 : 		/*
; 2769 : 		// 잉... 이게 더 느리다.. 왜 그렇지.. - -;;;
; 2770 : 		temp = sb-db;
; 2771 : 		temp *= alpha;
; 2772 : 		temp >>= 5;
; 2773 : 		temp += db;
; 2774 : 
; 2775 : 		temp2 = sg-dg;
; 2776 : 		temp2 *= alpha;
; 2777 : 		temp2 >>= 5;
; 2778 : 		temp2 += dg;
; 2779 : 		temp2 <<= 5;
; 2780 : 
; 2781 : 		temp |= temp2;
; 2782 : 
; 2783 : 		temp2 = sr-dr;
; 2784 : 		temp2 *= alpha;
; 2785 : 		temp2 >>= 5;
; 2786 : 		temp2 += dr;
; 2787 : 		temp2 <<= CDirectDraw::s_bSHIFT_R;
; 2788 : 
; 2789 : 		temp |= temp2;
; 2790 : 
; 2791 : 		*pDest = temp;
; 2792 : 		*/
; 2793 : 
; 2794 : 		pDest++;
; 2795 : 		pSource++;

  00039	83 45 0c 02	 add	 DWORD PTR _pSource$[ebp], 2
  0003d	8b da		 mov	 ebx, edx
  0003f	66 d3 eb	 shr	 bx, cl
  00042	0f b6 cb	 movzx	 ecx, bl
  00045	8b da		 mov	 ebx, edx
  00047	83 e2 1f	 and	 edx, 31			; 0000001fH
  0004a	89 55 08	 mov	 DWORD PTR _db$[ebp], edx
  0004d	89 4d 10	 mov	 DWORD PTR _dr$[ebp], ecx
  00050	66 0f b6 0d 00
	00 00 00	 movzx	 cx, BYTE PTR ?s_bSHIFT_G@CDirectDraw@@2EA ; CDirectDraw::s_bSHIFT_G
  00058	66 d3 eb	 shr	 bx, cl
  0005b	8b d0		 mov	 edx, eax
  0005d	66 d3 ea	 shr	 dx, cl
  00060	8a 0d 00 00 00
	00		 mov	 cl, BYTE PTR ?s_bSHIFT_G@CDirectDraw@@2EA ; CDirectDraw::s_bSHIFT_G
  00066	83 e3 1f	 and	 ebx, 31			; 0000001fH
  00069	83 e2 1f	 and	 edx, 31			; 0000001fH
  0006c	2b d3		 sub	 edx, ebx
  0006e	0f af d6	 imul	 edx, esi
  00071	c1 fa 05	 sar	 edx, 5
  00074	03 d3		 add	 edx, ebx
  00076	d3 e2		 shl	 edx, cl
  00078	66 0f b6 0d 00
	00 00 00	 movzx	 cx, BYTE PTR ?s_bSHIFT_R@CDirectDraw@@2EA ; CDirectDraw::s_bSHIFT_R
  00080	8b d8		 mov	 ebx, eax
  00082	66 d3 eb	 shr	 bx, cl
  00085	8a 0d 00 00 00
	00		 mov	 cl, BYTE PTR ?s_bSHIFT_R@CDirectDraw@@2EA ; CDirectDraw::s_bSHIFT_R
  0008b	83 e0 1f	 and	 eax, 31			; 0000001fH
  0008e	2b 45 08	 sub	 eax, DWORD PTR _db$[ebp]
  00091	0f b6 db	 movzx	 ebx, bl
  00094	2b 5d 10	 sub	 ebx, DWORD PTR _dr$[ebp]
  00097	0f af c6	 imul	 eax, esi
  0009a	0f af de	 imul	 ebx, esi
  0009d	c1 fb 05	 sar	 ebx, 5
  000a0	03 5d 10	 add	 ebx, DWORD PTR _dr$[ebp]
  000a3	c1 f8 05	 sar	 eax, 5
  000a6	03 45 08	 add	 eax, DWORD PTR _db$[ebp]
  000a9	d3 e3		 shl	 ebx, cl
  000ab	0b d3		 or	 edx, ebx
  000ad	0b d0		 or	 edx, eax
  000af	66 89 17	 mov	 WORD PTR [edi], dx
  000b2	47		 inc	 edi
  000b3	47		 inc	 edi
  000b4	ff 4d fc	 dec	 DWORD PTR tv221[ebp]
  000b7	0f 85 5c ff ff
	ff		 jne	 $L103850
  000bd	5f		 pop	 edi
  000be	5e		 pop	 esi
  000bf	5b		 pop	 ebx
$L104965:

; 2796 : 	}
; 2797 : }

  000c0	c9		 leave
  000c1	c2 0c 00	 ret	 12			; 0000000cH
?memcpyAlphaValue@CAlphaSprite@@QAEXPAG0G@Z ENDP	; CAlphaSprite::memcpyAlphaValue
_TEXT	ENDS
PUBLIC	?memcpyAlpha4444Small@CAlphaSprite@@QAEXPAG0G@Z	; CAlphaSprite::memcpyAlpha4444Small
; Function compile flags: /Ogsy
;	COMDAT ?memcpyAlpha4444Small@CAlphaSprite@@QAEXPAG0G@Z
_TEXT	SEGMENT
_pDest$ = 8						; size = 4
_pSource$ = 12						; size = 4
tv77 = 16						; size = 4
_pixels$ = 16						; size = 2
?memcpyAlpha4444Small@CAlphaSprite@@QAEXPAG0G@Z PROC NEAR ; CAlphaSprite::memcpyAlpha4444Small, COMDAT
; _this$ = ecx

; 2943 : {

  00000	55		 push	 ebp
  00001	8b ec		 mov	 ebp, esp

; 2944 : 	register WORD		sTemp;
; 2945 : 	register int		sr,sg,sb;
; 2946 : 	//static WORD		temp, temp2;
; 2947 : 
; 2948 : 	register int i = pixels >> s_Value1;

  00003	0f b7 45 10	 movzx	 eax, WORD PTR _pixels$[ebp]
  00007	8a 0d 00 00 00
	00		 mov	 cl, BYTE PTR ?s_Value1@CAlphaSprite@@1HA
  0000d	d3 e8		 shr	 eax, cl

; 2949 : 
; 2950 : 	BYTE alpha;
; 2951 : 	
; 2952 : 	// Alpha Channel Blending
; 2953 : 	// 한점씩 찍기
; 2954 : 	while (i--)

  0000f	85 c0		 test	 eax, eax
  00011	74 68		 je	 SHORT $L104970
  00013	53		 push	 ebx
  00014	56		 push	 esi
  00015	8b 75 08	 mov	 esi, DWORD PTR _pDest$[ebp]
  00018	89 45 10	 mov	 DWORD PTR tv77[ebp], eax
  0001b	8b 45 0c	 mov	 eax, DWORD PTR _pSource$[ebp]
  0001e	57		 push	 edi
$L103898:

; 2955 : 	{	
; 2956 : 		// Source에는 Alpha값이 포함되어 있다.
; 2957 : 		alpha = *pSource >> 9;	//	alpha = (*pSource >> 8) >> 1;	4 bit이기 때문에..

  0001f	66 8b 18	 mov	 bx, WORD PTR [eax]

; 2958 : 		pSource++;
; 2959 : 
; 2960 : 		// 한점 찍기
; 2961 : 		sTemp = *pSource;
; 2962 : 	
; 2963 : 		sr = (sTemp >> CDirectDraw::s_bSHIFT4_R);// & 0x0F;

  00022	8a 0d 00 00 00
	00		 mov	 cl, BYTE PTR ?s_bSHIFT4_R@CDirectDraw@@2EA ; CDirectDraw::s_bSHIFT4_R
  00028	66 c1 eb 09	 shr	 bx, 9
  0002c	40		 inc	 eax

; 2964 : 		sg = (sTemp >> CDirectDraw::s_bSHIFT4_G) & 0x0F;
; 2965 : 		sb = (sTemp >> CDirectDraw::s_bSHIFT4_B) & 0x0F;
; 2966 : 		
; 2967 : 		*pDest =	(alpha << 12) |
; 2968 : 					(sr << 8) |
; 2969 : 					(sg << 4) |
; 2970 : 					(sb);

  0002d	33 d2		 xor	 edx, edx
  0002f	40		 inc	 eax
  00030	66 8b 10	 mov	 dx, WORD PTR [eax]
  00033	8b fa		 mov	 edi, edx
  00035	66 d3 ef	 shr	 di, cl
  00038	66 0f b6 cb	 movzx	 cx, bl
  0003c	8b da		 mov	 ebx, edx
  0003e	c1 e1 04	 shl	 ecx, 4
  00041	0b f9		 or	 edi, ecx
  00043	8a 0d 00 00 00
	00		 mov	 cl, BYTE PTR ?s_bSHIFT4_G@CDirectDraw@@2EA ; CDirectDraw::s_bSHIFT4_G
  00049	66 d3 eb	 shr	 bx, cl
  0004c	8a 0d 00 00 00
	00		 mov	 cl, BYTE PTR ?s_bSHIFT4_B@CDirectDraw@@2EA ; CDirectDraw::s_bSHIFT4_B
  00052	66 d3 ea	 shr	 dx, cl
  00055	c1 e7 04	 shl	 edi, 4
  00058	83 e3 0f	 and	 ebx, 15			; 0000000fH
  0005b	0b fb		 or	 edi, ebx
  0005d	c1 e7 04	 shl	 edi, 4
  00060	83 e2 0f	 and	 edx, 15			; 0000000fH
  00063	0b fa		 or	 edi, edx
  00065	66 89 3e	 mov	 WORD PTR [esi], di

; 2971 : 	
; 2972 : 		pDest++;
; 2973 : 		pSource += s_Value2;

  00068	8b 0d 00 00 00
	00		 mov	 ecx, DWORD PTR ?s_Value2@CAlphaSprite@@1HA ; CAlphaSprite::s_Value2
  0006e	46		 inc	 esi
  0006f	46		 inc	 esi
  00070	ff 4d 10	 dec	 DWORD PTR tv77[ebp]
  00073	8d 04 48	 lea	 eax, DWORD PTR [eax+ecx*2]
  00076	75 a7		 jne	 SHORT $L103898
  00078	5f		 pop	 edi
  00079	5e		 pop	 esi
  0007a	5b		 pop	 ebx
$L104970:

; 2974 : 	}
; 2975 : }

  0007b	5d		 pop	 ebp
  0007c	c2 0c 00	 ret	 12			; 0000000cH
?memcpyAlpha4444Small@CAlphaSprite@@QAEXPAG0G@Z ENDP	; CAlphaSprite::memcpyAlpha4444Small
_TEXT	ENDS
PUBLIC	??1CAlphaSprite@@QAE@XZ				; CAlphaSprite::~CAlphaSprite
; Function compile flags: /Ogsy
;	COMDAT ??1CAlphaSprite@@QAE@XZ
_TEXT	SEGMENT
??1CAlphaSprite@@QAE@XZ PROC NEAR			; CAlphaSprite::~CAlphaSprite, COMDAT
; _this$ = ecx

; 33   : {

  00000	c7 01 00 00 00
	00		 mov	 DWORD PTR [ecx], OFFSET FLAT:??_7CAlphaSprite@@6B@

; 34   : 	Release();

  00006	e9 00 00 00 00	 jmp	 ?Release@CAlphaSprite@@QAEXXZ ; CAlphaSprite::Release
??1CAlphaSprite@@QAE@XZ ENDP				; CAlphaSprite::~CAlphaSprite
_TEXT	ENDS
PUBLIC	?BltAlpha@CAlphaSprite@@QAEXPAGGE@Z		; CAlphaSprite::BltAlpha
; Function compile flags: /Ogsy
;	COMDAT ?BltAlpha@CAlphaSprite@@QAEXPAGGE@Z
_TEXT	SEGMENT
_j$ = -8						; size = 4
_this$ = -4						; size = 4
_pDest$ = 8						; size = 4
_pitch$ = 12						; size = 2
_i$ = 16						; size = 4
_alpha$ = 16						; size = 1
?BltAlpha@CAlphaSprite@@QAEXPAGGE@Z PROC NEAR		; CAlphaSprite::BltAlpha, COMDAT
; _this$ = ecx

; 2195 : {

  00000	55		 push	 ebp
  00001	8b ec		 mov	 ebp, esp
  00003	51		 push	 ecx
  00004	51		 push	 ecx

; 2196 : 	s_Value1 = alpha;

  00005	0f b6 45 10	 movzx	 eax, BYTE PTR _alpha$[ebp]
  00009	a3 00 00 00 00	 mov	 DWORD PTR ?s_Value1@CAlphaSprite@@1HA, eax ; CAlphaSprite::s_Value1

; 2197 : 
; 2198 : 	int	count,			
; 2199 : 			colorCount;
; 2200 : 
; 2201 : 	WORD	*pDestTemp,
; 2202 : 			*pPixels;
; 2203 : 
; 2204 : 	register int i;
; 2205 : 	register int j;
; 2206 : 	int rectBottom = m_Height;

  0000e	0f b7 41 06	 movzx	 eax, WORD PTR [ecx+6]

; 2207 : 
; 2208 : 	if (rectBottom > 0)

  00012	85 c0		 test	 eax, eax
  00014	89 4d fc	 mov	 DWORD PTR _this$[ebp], ecx
  00017	7e 67		 jle	 SHORT $L103699

; 2209 : 	{
; 2210 : 		i = rectBottom-1;

  00019	8d 50 ff	 lea	 edx, DWORD PTR [eax-1]

; 2211 : 		pDest = (WORD*)((BYTE*)pDest + i*pitch);

  0001c	0f b7 45 0c	 movzx	 eax, WORD PTR _pitch$[ebp]
  00020	0f af c2	 imul	 eax, edx
  00023	01 45 08	 add	 DWORD PTR _pDest$[ebp], eax
  00026	53		 push	 ebx
  00027	56		 push	 esi
  00028	57		 push	 edi
  00029	89 55 10	 mov	 DWORD PTR _i$[ebp], edx
  0002c	eb 03		 jmp	 SHORT $L103697
$L104980:
  0002e	8b 4d fc	 mov	 ecx, DWORD PTR _this$[ebp]
$L103697:

; 2212 : 
; 2213 : 		do
; 2214 : 		{
; 2215 : 			pPixels		= m_Pixels[i];

  00031	8b 41 08	 mov	 eax, DWORD PTR [ecx+8]
  00034	8b 4d 10	 mov	 ecx, DWORD PTR _i$[ebp]
  00037	8b 34 88	 mov	 esi, DWORD PTR [eax+ecx*4]

; 2216 : 			pDestTemp	= pDest;
; 2217 : 
; 2218 : 			// (투명수,색깔수,색깔들)의 반복 수		
; 2219 : 			count	= *pPixels++;		

  0003a	0f b7 06	 movzx	 eax, WORD PTR [esi]
  0003d	8b 5d 08	 mov	 ebx, DWORD PTR _pDest$[ebp]
  00040	46		 inc	 esi
  00041	46		 inc	 esi

; 2220 : 
; 2221 : 			// 한 줄 출력
; 2222 : 			if (count > 0)

  00042	85 c0		 test	 eax, eax
  00044	7e 26		 jle	 SHORT $L103703

; 2223 : 			{			
; 2224 : 				j = count;

  00046	89 45 f8	 mov	 DWORD PTR _j$[ebp], eax
$L103701:

; 2225 : 				do
; 2226 : 				{
; 2227 : 					pDestTemp += *pPixels++;		// 투명색만큼 건너 뛴다.

  00049	0f b7 06	 movzx	 eax, WORD PTR [esi]

; 2228 : 					colorCount = *pPixels++;		// 투명 아닌 색 수				
; 2229 : 
; 2230 : 					// 투명이 아닌 색들을 Surface에 출력한다.
; 2231 : 					memcpyAlphaValue(pDestTemp, pPixels, colorCount);

  0004c	8b 4d fc	 mov	 ecx, DWORD PTR _this$[ebp]
  0004f	46		 inc	 esi
  00050	46		 inc	 esi
  00051	0f b7 3e	 movzx	 edi, WORD PTR [esi]
  00054	46		 inc	 esi
  00055	57		 push	 edi
  00056	46		 inc	 esi
  00057	8d 1c 43	 lea	 ebx, DWORD PTR [ebx+eax*2]
  0005a	56		 push	 esi
  0005b	53		 push	 ebx
  0005c	e8 00 00 00 00	 call	 ?memcpyAlphaValue@CAlphaSprite@@QAEXPAG0G@Z ; CAlphaSprite::memcpyAlphaValue

; 2232 : 					
; 2233 : 					pDestTemp	+= colorCount;
; 2234 : 
; 2235 : 					// 실제 점 개수는 alpha값 때문에 2배이다.
; 2236 : 					pPixels		+= (colorCount<<1);
; 2237 : 				} while (--j);

  00061	ff 4d f8	 dec	 DWORD PTR _j$[ebp]
  00064	8d 1c 7b	 lea	 ebx, DWORD PTR [ebx+edi*2]
  00067	8d 34 be	 lea	 esi, DWORD PTR [esi+edi*4]
  0006a	75 dd		 jne	 SHORT $L103701
$L103703:

; 2238 : 			}
; 2239 : 
; 2240 : 			pDest = (WORD*)((BYTE*)pDest - pitch);

  0006c	0f b7 45 0c	 movzx	 eax, WORD PTR _pitch$[ebp]
  00070	29 45 08	 sub	 DWORD PTR _pDest$[ebp], eax

; 2241 : 		} while (i--);

  00073	8b 45 10	 mov	 eax, DWORD PTR _i$[ebp]
  00076	ff 4d 10	 dec	 DWORD PTR _i$[ebp]
  00079	85 c0		 test	 eax, eax
  0007b	75 b1		 jne	 SHORT $L104980
  0007d	5f		 pop	 edi
  0007e	5e		 pop	 esi
  0007f	5b		 pop	 ebx
$L103699:

; 2242 : 	}
; 2243 : }

  00080	c9		 leave
  00081	c2 0c 00	 ret	 12			; 0000000cH
?BltAlpha@CAlphaSprite@@QAEXPAGGE@Z ENDP		; CAlphaSprite::BltAlpha
_TEXT	ENDS
PUBLIC	?BltAlphaClipLeft@CAlphaSprite@@QAEXPAGGPAUtagRECT@@E@Z ; CAlphaSprite::BltAlphaClipLeft
; Function compile flags: /Ogsy
;	COMDAT ?BltAlphaClipLeft@CAlphaSprite@@QAEXPAGGPAUtagRECT@@E@Z
_TEXT	SEGMENT
_rectBottom$ = -12					; size = 4
_rectLeft$ = -8						; size = 4
_this$ = -4						; size = 4
_pDest$ = 8						; size = 4
_pitch$ = 12						; size = 2
_i$ = 16						; size = 4
_pRect$ = 16						; size = 4
_j$ = 20						; size = 4
_alpha$ = 20						; size = 1
?BltAlphaClipLeft@CAlphaSprite@@QAEXPAGGPAUtagRECT@@E@Z PROC NEAR ; CAlphaSprite::BltAlphaClipLeft, COMDAT
; _this$ = ecx

; 2253 : {

  00000	55		 push	 ebp
  00001	8b ec		 mov	 ebp, esp
  00003	83 ec 0c	 sub	 esp, 12			; 0000000cH

; 2254 : 	s_Value1 = alpha;

  00006	0f b6 45 14	 movzx	 eax, BYTE PTR _alpha$[ebp]
  0000a	a3 00 00 00 00	 mov	 DWORD PTR ?s_Value1@CAlphaSprite@@1HA, eax ; CAlphaSprite::s_Value1

; 2255 : 
; 2256 : 	WORD	*pPixels,
; 2257 : 			*pDestTemp;
; 2258 : 
; 2259 : 	//--------------------------------------------
; 2260 : 	// pRect만큼의 점을 출력한다.
; 2261 : 	//--------------------------------------------
; 2262 : 	int	count,
; 2263 : 			transCount, 
; 2264 : 			colorCount,
; 2265 : 			index,
; 2266 : 			dist;
; 2267 : 
; 2268 : 	register int i;
; 2269 : 	register int j;
; 2270 : 
; 2271 : 	int rectBottom = pRect->bottom;

  0000f	8b 45 10	 mov	 eax, DWORD PTR _pRect$[ebp]
  00012	53		 push	 ebx

; 2272 : 	int rectLeft = pRect->left;

  00013	8b 18		 mov	 ebx, DWORD PTR [eax]
  00015	89 4d fc	 mov	 DWORD PTR _this$[ebp], ecx
  00018	8b 48 0c	 mov	 ecx, DWORD PTR [eax+12]

; 2273 : 
; 2274 : 	//---------------------------------------------
; 2275 : 	// 출력해야하는 모든 줄에 대해서..
; 2276 : 	//---------------------------------------------
; 2277 : 	for (i=pRect->top; i<rectBottom; i++)

  0001b	8b 40 04	 mov	 eax, DWORD PTR [eax+4]
  0001e	3b c1		 cmp	 eax, ecx
  00020	89 4d f4	 mov	 DWORD PTR _rectBottom$[ebp], ecx
  00023	89 5d f8	 mov	 DWORD PTR _rectLeft$[ebp], ebx
  00026	89 45 10	 mov	 DWORD PTR _i$[ebp], eax
  00029	0f 8d c8 00 00
	00		 jge	 $L103726
  0002f	56		 push	 esi
  00030	57		 push	 edi
  00031	eb 03		 jmp	 SHORT $L103724
$L104990:
  00033	8b 5d f8	 mov	 ebx, DWORD PTR _rectLeft$[ebp]
$L103724:

; 2278 : 	{
; 2279 : 		pPixels = m_Pixels[i];

  00036	8b 4d fc	 mov	 ecx, DWORD PTR _this$[ebp]
  00039	8b 49 08	 mov	 ecx, DWORD PTR [ecx+8]
  0003c	8b 34 81	 mov	 esi, DWORD PTR [ecx+eax*4]

; 2280 : 		pDestTemp = pDest;		
; 2281 : 
; 2282 : 		// (투명수,색깔수,색깔들)의 반복 수
; 2283 : 		count = *pPixels++;		

  0003f	0f b7 16	 movzx	 edx, WORD PTR [esi]
  00042	8b 4d 08	 mov	 ecx, DWORD PTR _pDest$[ebp]
  00045	46		 inc	 esi
  00046	46		 inc	 esi

; 2284 : 
; 2285 : 		// 한 줄 출력		
; 2286 : 		index = 0;

  00047	33 c0		 xor	 eax, eax

; 2287 : 		
; 2288 : 		//---------------------------------------------
; 2289 : 		// 각 줄마다 Clipping을 해줘야 하는데...
; 2290 : 		// xxxxOOOOOOOOOOOOOO인 경우이므로..
; 2291 : 		//---------------------------------------------
; 2292 : 		// xxxx부분까지 check해주는 루틴
; 2293 : 		//---------------------------------------------
; 2294 : 		// 한 줄 출력
; 2295 : 		if (count > 0)

  00049	85 d2		 test	 edx, edx
  0004b	0f 8e 8d 00 00
	00		 jle	 $L103737

; 2296 : 		{			
; 2297 : 			j = count;

  00051	89 55 14	 mov	 DWORD PTR _j$[ebp], edx
$L103728:

; 2298 : 			do
; 2299 : 			{
; 2300 : 				transCount = *pPixels++;		// 투명색 수			

  00054	0f b7 16	 movzx	 edx, WORD PTR [esi]
  00057	46		 inc	 esi
  00058	46		 inc	 esi

; 2301 : 				colorCount = *pPixels++;		// 투명 아닌 색 수			

  00059	0f b7 3e	 movzx	 edi, WORD PTR [esi]

; 2302 : 						
; 2303 : 				// 투명색만큼 index증가			
; 2304 : 				index += transCount;

  0005c	03 c2		 add	 eax, edx
  0005e	46		 inc	 esi

; 2305 : 				
; 2306 : 			
; 2307 : 				//---------------------------------------------
; 2308 : 				// xxxx범위를 넘어가게 되는 경우
; 2309 : 				//---------------------------------------------
; 2310 : 				if (index+colorCount > rectLeft)

  0005f	8d 14 07	 lea	 edx, DWORD PTR [edi+eax]
  00062	46		 inc	 esi
  00063	3b d3		 cmp	 edx, ebx
  00065	7f 0c		 jg	 SHORT $L104986

; 2340 : 
; 2341 : 						// 이제부터는 계속 출력한다.
; 2342 : 						break;
; 2343 : 					}
; 2344 : 				}					
; 2345 : 
; 2346 : 				// 투명이 아닌 색만큼 index증가				
; 2347 : 				pPixels += (colorCount<<1);
; 2348 : 				index += colorCount;
; 2349 : 			} while (--j);

  00067	ff 4d 14	 dec	 DWORD PTR _j$[ebp]
  0006a	8d 34 be	 lea	 esi, DWORD PTR [esi+edi*4]
  0006d	8b c2		 mov	 eax, edx
  0006f	75 e3		 jne	 SHORT $L103728
  00071	eb 3f		 jmp	 SHORT $L103730
$L104986:

; 2311 : 				{
; 2312 : 					//---------------------------------------------
; 2313 : 					// 투명색만으로 xxxx범위를 넘어갔을 경우
; 2314 : 					//---------------------------------------------
; 2315 : 					if (index > rectLeft)

  00073	3b c3		 cmp	 eax, ebx
  00075	7e 18		 jle	 SHORT $L103732

; 2316 : 					{	
; 2317 : 						// 투명색부분 건너띔
; 2318 : 						pDestTemp += index - rectLeft;

  00077	8b 4d 08	 mov	 ecx, DWORD PTR _pDest$[ebp]

; 2319 : 
; 2320 : 						// 이번 단계는 모두 출력
; 2321 : 						memcpyAlphaValue(pDestTemp, pPixels, colorCount);

  0007a	57		 push	 edi
  0007b	2b c3		 sub	 eax, ebx
  0007d	8d 1c 41	 lea	 ebx, DWORD PTR [ecx+eax*2]
  00080	8b 4d fc	 mov	 ecx, DWORD PTR _this$[ebp]
  00083	56		 push	 esi
  00084	53		 push	 ebx
  00085	e8 00 00 00 00	 call	 ?memcpyAlphaValue@CAlphaSprite@@QAEXPAG0G@Z ; CAlphaSprite::memcpyAlphaValue

; 2322 : 						pDestTemp += colorCount;

  0008a	8d 0c 7b	 lea	 ecx, DWORD PTR [ebx+edi*2]

; 2323 : 						pPixels += (colorCount<<1);
; 2324 : 
; 2325 : 						// 이제부터는 계속 출력한다.
; 2326 : 						break;

  0008d	eb 20		 jmp	 SHORT $L104991
$L103732:

; 2327 : 					}
; 2328 : 					//---------------------------------------------
; 2329 : 					// 투명색+투명아닌색의 일부까지 출력하면 
; 2330 : 					// xxxx범위를 넘어가게 되는 경우
; 2331 : 					//---------------------------------------------
; 2332 : 					else
; 2333 : 					{
; 2334 : 						dist = rectLeft - index;
; 2335 : 
; 2336 : 						// 투명이 아닌 색들을 Surface에 출력한다.
; 2337 : 						memcpyAlphaValue(pDestTemp, pPixels+(dist<<1), colorCount-dist);

  0008f	8b 4d fc	 mov	 ecx, DWORD PTR _this$[ebp]
  00092	2b d8		 sub	 ebx, eax
  00094	8b c7		 mov	 eax, edi
  00096	2b c3		 sub	 eax, ebx
  00098	50		 push	 eax
  00099	8d 04 9e	 lea	 eax, DWORD PTR [esi+ebx*4]
  0009c	50		 push	 eax
  0009d	ff 75 08	 push	 DWORD PTR _pDest$[ebp]
  000a0	e8 00 00 00 00	 call	 ?memcpyAlphaValue@CAlphaSprite@@QAEXPAG0G@Z ; CAlphaSprite::memcpyAlphaValue

; 2338 : 						pDestTemp += colorCount-dist;

  000a5	8b 4d 08	 mov	 ecx, DWORD PTR _pDest$[ebp]
  000a8	8b c7		 mov	 eax, edi
  000aa	2b c3		 sub	 eax, ebx
  000ac	8d 0c 41	 lea	 ecx, DWORD PTR [ecx+eax*2]
$L104991:

; 2339 : 						pPixels += (colorCount<<1);

  000af	8d 34 be	 lea	 esi, DWORD PTR [esi+edi*4]
$L103730:

; 2350 : 
; 2351 : 			//---------------------------------------------
; 2352 : 			// 이제부터는 계속 출력한다.		
; 2353 : 			//---------------------------------------------		
; 2354 : 			if (--j > 0)

  000b2	ff 4d 14	 dec	 DWORD PTR _j$[ebp]
  000b5	83 7d 14 00	 cmp	 DWORD PTR _j$[ebp], 0
  000b9	7e 23		 jle	 SHORT $L103737
$L103735:

; 2355 : 			{
; 2356 : 				do
; 2357 : 				{
; 2358 : 					transCount = *pPixels++;		// 투명색 수			

  000bb	0f b7 06	 movzx	 eax, WORD PTR [esi]
  000be	46		 inc	 esi
  000bf	46		 inc	 esi

; 2359 : 					colorCount = *pPixels++;		// 투명 아닌 색 수			

  000c0	0f b7 3e	 movzx	 edi, WORD PTR [esi]
  000c3	46		 inc	 esi

; 2360 : 							
; 2361 : 					// 투명색만큼 건너 뛴다.
; 2362 : 					pDestTemp += transCount;			
; 2363 : 					
; 2364 : 					// 투명색이 아닌만큼 출력해준다.
; 2365 : 					memcpyAlphaValue(pDestTemp, pPixels, colorCount);

  000c4	57		 push	 edi
  000c5	46		 inc	 esi
  000c6	8d 1c 41	 lea	 ebx, DWORD PTR [ecx+eax*2]
  000c9	8b 4d fc	 mov	 ecx, DWORD PTR _this$[ebp]
  000cc	56		 push	 esi
  000cd	53		 push	 ebx
  000ce	e8 00 00 00 00	 call	 ?memcpyAlphaValue@CAlphaSprite@@QAEXPAG0G@Z ; CAlphaSprite::memcpyAlphaValue

; 2366 : 
; 2367 : 					// memory addr 증가
; 2368 : 					pDestTemp += colorCount;
; 2369 : 					pPixels += (colorCount<<1);
; 2370 : 				} while (--j);

  000d3	ff 4d 14	 dec	 DWORD PTR _j$[ebp]
  000d6	8d 0c 7b	 lea	 ecx, DWORD PTR [ebx+edi*2]
  000d9	8d 34 be	 lea	 esi, DWORD PTR [esi+edi*4]
  000dc	75 dd		 jne	 SHORT $L103735
$L103737:

; 2371 : 			}
; 2372 : 		}
; 2373 : 		
; 2374 : 
; 2375 : 		pDest = (WORD*)((BYTE*)pDest + pitch);

  000de	0f b7 45 0c	 movzx	 eax, WORD PTR _pitch$[ebp]
  000e2	01 45 08	 add	 DWORD PTR _pDest$[ebp], eax
  000e5	8b 45 10	 mov	 eax, DWORD PTR _i$[ebp]
  000e8	40		 inc	 eax
  000e9	3b 45 f4	 cmp	 eax, DWORD PTR _rectBottom$[ebp]
  000ec	89 45 10	 mov	 DWORD PTR _i$[ebp], eax
  000ef	0f 8c 3e ff ff
	ff		 jl	 $L104990
  000f5	5f		 pop	 edi
  000f6	5e		 pop	 esi
$L103726:
  000f7	5b		 pop	 ebx

; 2376 : 	}
; 2377 : }

  000f8	c9		 leave
  000f9	c2 10 00	 ret	 16			; 00000010H
?BltAlphaClipLeft@CAlphaSprite@@QAEXPAGGPAUtagRECT@@E@Z ENDP ; CAlphaSprite::BltAlphaClipLeft
_TEXT	ENDS
PUBLIC	?BltAlphaClipRight@CAlphaSprite@@QAEXPAGGPAUtagRECT@@E@Z ; CAlphaSprite::BltAlphaClipRight
; Function compile flags: /Ogsy
;	COMDAT ?BltAlphaClipRight@CAlphaSprite@@QAEXPAGGPAUtagRECT@@E@Z
_TEXT	SEGMENT
_rectBottom$ = -16					; size = 4
tv184 = -12						; size = 4
_i$ = -8						; size = 4
_this$ = -4						; size = 4
_pDest$ = 8						; size = 4
_pitch$ = 12						; size = 2
_j$ = 16						; size = 4
_pRect$ = 16						; size = 4
_rectRight$ = 20					; size = 4
_alpha$ = 20						; size = 1
?BltAlphaClipRight@CAlphaSprite@@QAEXPAGGPAUtagRECT@@E@Z PROC NEAR ; CAlphaSprite::BltAlphaClipRight, COMDAT
; _this$ = ecx

; 2387 : {

  00000	55		 push	 ebp
  00001	8b ec		 mov	 ebp, esp
  00003	83 ec 10	 sub	 esp, 16			; 00000010H

; 2388 : 	s_Value1 = alpha;

  00006	0f b6 45 14	 movzx	 eax, BYTE PTR _alpha$[ebp]
  0000a	a3 00 00 00 00	 mov	 DWORD PTR ?s_Value1@CAlphaSprite@@1HA, eax ; CAlphaSprite::s_Value1

; 2389 : 
; 2390 : 	WORD	*pPixels,
; 2391 : 			*pDestTemp;
; 2392 : 
; 2393 : 	//--------------------------------------------
; 2394 : 	// pRect만큼의 점을 출력한다.
; 2395 : 	//--------------------------------------------
; 2396 : 	int	count,
; 2397 : 			transCount, 
; 2398 : 			colorCount,
; 2399 : 			index;
; 2400 : 
; 2401 : 	register int	i;
; 2402 : 	register int	j;
; 2403 : 
; 2404 : 	int rectBottom = pRect->bottom;

  0000f	8b 45 10	 mov	 eax, DWORD PTR _pRect$[ebp]

; 2405 : 	int rectRight = pRect->right;

  00012	8b 50 08	 mov	 edx, DWORD PTR [eax+8]
  00015	89 4d fc	 mov	 DWORD PTR _this$[ebp], ecx
  00018	8b 48 0c	 mov	 ecx, DWORD PTR [eax+12]

; 2406 : 
; 2407 : 	for (i=pRect->top; i<rectBottom; i++)

  0001b	8b 40 04	 mov	 eax, DWORD PTR [eax+4]
  0001e	3b c1		 cmp	 eax, ecx
  00020	89 4d f0	 mov	 DWORD PTR _rectBottom$[ebp], ecx
  00023	89 55 14	 mov	 DWORD PTR _rectRight$[ebp], edx
  00026	89 45 f8	 mov	 DWORD PTR _i$[ebp], eax
  00029	0f 8d 80 00 00
	00		 jge	 $L103759
  0002f	53		 push	 ebx
  00030	56		 push	 esi
  00031	57		 push	 edi
$L105001:

; 2408 : 	{
; 2409 : 		pPixels = m_Pixels[i];

  00032	8b 4d fc	 mov	 ecx, DWORD PTR _this$[ebp]
  00035	8b 49 08	 mov	 ecx, DWORD PTR [ecx+8]
  00038	8b 34 81	 mov	 esi, DWORD PTR [ecx+eax*4]

; 2410 : 		pDestTemp = pDest;		
; 2411 : 
; 2412 : 		// (투명수,색깔수,색깔들)의 반복 수
; 2413 : 		count = *pPixels++;		

  0003b	0f b7 06	 movzx	 eax, WORD PTR [esi]
  0003e	8b 4d 08	 mov	 ecx, DWORD PTR _pDest$[ebp]
  00041	46		 inc	 esi
  00042	46		 inc	 esi

; 2414 : 
; 2415 : 		// 한 줄 출력		
; 2416 : 		index = 0;

  00043	33 d2		 xor	 edx, edx

; 2417 : 			
; 2418 : 		//---------------------------------------------
; 2419 : 		// 각 줄마다 Clipping을 해줘야 하는데...		
; 2420 : 		// OOOOOOOOOOOOOOxxxxx 이런 경우이다.
; 2421 : 		//---------------------------------------------
; 2422 : 		// OOOOOOOOOOOOOO까지만 출력해주면 된다.
; 2423 : 		//---------------------------------------------
; 2424 : 		// 한 줄 출력
; 2425 : 		if (count > 0)

  00045	85 c0		 test	 eax, eax
  00047	7e 50		 jle	 SHORT $L103763

; 2426 : 		{			
; 2427 : 			j = count;

  00049	89 45 10	 mov	 DWORD PTR _j$[ebp], eax
$L103761:

; 2428 : 			do
; 2429 : 			{
; 2430 : 				transCount = *pPixels++;		// 투명색 수			

  0004c	0f b7 06	 movzx	 eax, WORD PTR [esi]
  0004f	46		 inc	 esi
  00050	46		 inc	 esi

; 2431 : 				colorCount = *pPixels++;		// 투명 아닌 색 수			

  00051	0f b7 3e	 movzx	 edi, WORD PTR [esi]

; 2432 : 						
; 2433 : 				// 투명색만큼 index증가
; 2434 : 				index += transCount;

  00054	03 d0		 add	 edx, eax
  00056	46		 inc	 esi

; 2435 : 				
; 2436 : 				// 출력하고 있다가 오른쪽부분부터 출력하지 말아야 할 경우가 있다.
; 2437 : 				// 현재 출력하는 줄은 모두 출력한 것이므로 break해야 한다.
; 2438 : 
; 2439 : 				// 투명색까지 출력하는것만으로 더 이상 출력할 필요가 없을 경우
; 2440 : 
; 2441 : 				//---------------------------------------------
; 2442 : 				// 오른쪽 끝까지 도달했을 경우
; 2443 : 				//---------------------------------------------			
; 2444 : 				if (index+colorCount > rectRight)

  00057	8d 1c 17	 lea	 ebx, DWORD PTR [edi+edx]
  0005a	46		 inc	 esi
  0005b	3b 5d 14	 cmp	 ebx, DWORD PTR _rectRight$[ebp]
  0005e	89 5d f4	 mov	 DWORD PTR tv184[ebp], ebx
  00061	7f 1e		 jg	 SHORT $L104996

; 2458 : 						break;
; 2459 : 					}
; 2460 : 				}
; 2461 : 
; 2462 : 				// 투명색만큼 건너띄고
; 2463 : 				pDestTemp += transCount;
; 2464 : 
; 2465 : 				// 출력
; 2466 : 				memcpyAlphaValue(pDestTemp, pPixels, colorCount);

  00063	57		 push	 edi
  00064	8d 1c 41	 lea	 ebx, DWORD PTR [ecx+eax*2]
  00067	8b 4d fc	 mov	 ecx, DWORD PTR _this$[ebp]
  0006a	56		 push	 esi
  0006b	53		 push	 ebx
  0006c	e8 00 00 00 00	 call	 ?memcpyAlphaValue@CAlphaSprite@@QAEXPAG0G@Z ; CAlphaSprite::memcpyAlphaValue

; 2467 : 				pDestTemp += colorCount;
; 2468 : 				pPixels += (colorCount<<1);
; 2469 : 				index += colorCount;
; 2470 : 			} while (--j);

  00071	ff 4d 10	 dec	 DWORD PTR _j$[ebp]
  00074	8b 55 f4	 mov	 edx, DWORD PTR tv184[ebp]
  00077	8d 0c 7b	 lea	 ecx, DWORD PTR [ebx+edi*2]
  0007a	8d 34 be	 lea	 esi, DWORD PTR [esi+edi*4]
  0007d	75 cd		 jne	 SHORT $L103761
  0007f	eb 18		 jmp	 SHORT $L103763
$L104996:

; 2445 : 				{
; 2446 : 					// 투명색만으로 더 출력할 필요가 없을 때
; 2447 : 					if (index > rectRight)

  00081	3b 55 14	 cmp	 edx, DWORD PTR _rectRight$[ebp]
  00084	7f 13		 jg	 SHORT $L103763

; 2448 : 					{
; 2449 : 						break;
; 2450 : 					}
; 2451 : 					// 투명색 아닌 것을 조금 출력해야 할 경우
; 2452 : 					else
; 2453 : 					{
; 2454 : 						pDestTemp += transCount;
; 2455 : 					
; 2456 : 						// 투명이 아닌 색들을 Surface에 출력한다.
; 2457 : 						memcpyAlphaValue(pDestTemp, pPixels, rectRight - index);

  00086	8b 7d 14	 mov	 edi, DWORD PTR _rectRight$[ebp]
  00089	2b fa		 sub	 edi, edx
  0008b	57		 push	 edi
  0008c	8d 04 41	 lea	 eax, DWORD PTR [ecx+eax*2]
  0008f	8b 4d fc	 mov	 ecx, DWORD PTR _this$[ebp]
  00092	56		 push	 esi
  00093	50		 push	 eax
  00094	e8 00 00 00 00	 call	 ?memcpyAlphaValue@CAlphaSprite@@QAEXPAG0G@Z ; CAlphaSprite::memcpyAlphaValue
$L103763:

; 2471 : 		}
; 2472 : 		
; 2473 : 		pDest = (WORD*)((BYTE*)pDest + pitch);

  00099	0f b7 45 0c	 movzx	 eax, WORD PTR _pitch$[ebp]
  0009d	01 45 08	 add	 DWORD PTR _pDest$[ebp], eax
  000a0	8b 45 f8	 mov	 eax, DWORD PTR _i$[ebp]
  000a3	40		 inc	 eax
  000a4	3b 45 f0	 cmp	 eax, DWORD PTR _rectBottom$[ebp]
  000a7	89 45 f8	 mov	 DWORD PTR _i$[ebp], eax
  000aa	7c 86		 jl	 SHORT $L105001
  000ac	5f		 pop	 edi
  000ad	5e		 pop	 esi
  000ae	5b		 pop	 ebx
$L103759:

; 2474 : 	}
; 2475 : }

  000af	c9		 leave
  000b0	c2 10 00	 ret	 16			; 00000010H
?BltAlphaClipRight@CAlphaSprite@@QAEXPAGGPAUtagRECT@@E@Z ENDP ; CAlphaSprite::BltAlphaClipRight
_TEXT	ENDS
PUBLIC	?BltAlphaClipWidth@CAlphaSprite@@QAEXPAGGPAUtagRECT@@E@Z ; CAlphaSprite::BltAlphaClipWidth
; Function compile flags: /Ogsy
;	COMDAT ?BltAlphaClipWidth@CAlphaSprite@@QAEXPAGGPAUtagRECT@@E@Z
_TEXT	SEGMENT
_rectBottom$ = -28					; size = 4
_dist$ = -24						; size = 4
_i$ = -20						; size = 4
_rectLeft$ = -16					; size = 4
tv282 = -12						; size = 4
_this$ = -8						; size = 4
_pDestTemp$ = -4					; size = 4
_pDest$ = 8						; size = 4
_pitch$ = 12						; size = 2
_rectRight$ = 16					; size = 4
_pRect$ = 16						; size = 4
_j$ = 20						; size = 4
_alpha$ = 20						; size = 1
?BltAlphaClipWidth@CAlphaSprite@@QAEXPAGGPAUtagRECT@@E@Z PROC NEAR ; CAlphaSprite::BltAlphaClipWidth, COMDAT
; _this$ = ecx

; 2486 : {

  00000	55		 push	 ebp
  00001	8b ec		 mov	 ebp, esp
  00003	83 ec 1c	 sub	 esp, 28			; 0000001cH

; 2487 : 	s_Value1 = alpha;

  00006	0f b6 45 14	 movzx	 eax, BYTE PTR _alpha$[ebp]
  0000a	a3 00 00 00 00	 mov	 DWORD PTR ?s_Value1@CAlphaSprite@@1HA, eax ; CAlphaSprite::s_Value1

; 2488 : 
; 2489 : 	WORD	*pPixels,
; 2490 : 			*pDestTemp;
; 2491 : 
; 2492 : 	//--------------------------------------------
; 2493 : 	// pRect만큼의 점을 출력한다.
; 2494 : 	//--------------------------------------------
; 2495 : 	int	count,
; 2496 : 			transCount, 
; 2497 : 			colorCount,
; 2498 : 			index,
; 2499 : 			dist;
; 2500 : 
; 2501 : 	register int i;
; 2502 : 	register int j;
; 2503 : 
; 2504 : 	int rectBottom = pRect->bottom;

  0000f	8b 45 10	 mov	 eax, DWORD PTR _pRect$[ebp]

; 2505 : 	int rectLeft = pRect->left;

  00012	8b 10		 mov	 edx, DWORD PTR [eax]
  00014	56		 push	 esi

; 2506 : 	int rectRight = pRect->right;

  00015	8b 70 08	 mov	 esi, DWORD PTR [eax+8]
  00018	89 4d f8	 mov	 DWORD PTR _this$[ebp], ecx
  0001b	8b 48 0c	 mov	 ecx, DWORD PTR [eax+12]

; 2507 : 
; 2508 : 	//---------------------------------------------
; 2509 : 	// 출력해야하는 모든 줄에 대해서..
; 2510 : 	//---------------------------------------------
; 2511 : 	for (i=pRect->top; i<rectBottom; i++)

  0001e	8b 40 04	 mov	 eax, DWORD PTR [eax+4]
  00021	3b c1		 cmp	 eax, ecx
  00023	89 4d e4	 mov	 DWORD PTR _rectBottom$[ebp], ecx
  00026	89 55 f0	 mov	 DWORD PTR _rectLeft$[ebp], edx
  00029	89 75 10	 mov	 DWORD PTR _rectRight$[ebp], esi
  0002c	89 45 ec	 mov	 DWORD PTR _i$[ebp], eax
  0002f	0f 8d 53 01 00
	00		 jge	 $L103790
  00035	53		 push	 ebx
  00036	57		 push	 edi
  00037	eb 03		 jmp	 SHORT $L103788
$L105013:
  00039	8b 55 f0	 mov	 edx, DWORD PTR _rectLeft$[ebp]
$L103788:

; 2512 : 	{
; 2513 : 		pPixels = m_Pixels[i];

  0003c	8b 4d f8	 mov	 ecx, DWORD PTR _this$[ebp]
  0003f	8b 49 08	 mov	 ecx, DWORD PTR [ecx+8]
  00042	8b 34 81	 mov	 esi, DWORD PTR [ecx+eax*4]

; 2514 : 		pDestTemp = pDest;		
; 2515 : 
; 2516 : 		// (투명수,색깔수,색깔들)의 반복 수
; 2517 : 		count = *pPixels++;		

  00045	0f b7 06	 movzx	 eax, WORD PTR [esi]
  00048	8b 4d 08	 mov	 ecx, DWORD PTR _pDest$[ebp]
  0004b	46		 inc	 esi
  0004c	46		 inc	 esi

; 2518 : 
; 2519 : 		// 한 줄 출력		
; 2520 : 		index = 0;

  0004d	33 db		 xor	 ebx, ebx

; 2521 : 		
; 2522 : 		//---------------------------------------------
; 2523 : 		// 각 줄마다 Clipping을 해줘야 하는데...
; 2524 : 		// xxxxOOOOOOOOOOOOOO인 경우이므로..
; 2525 : 		//---------------------------------------------
; 2526 : 		// xxxx부분까지 check해주는 루틴
; 2527 : 		//---------------------------------------------
; 2528 : 		// 한 줄 출력
; 2529 : 		if (count > 0)

  0004f	85 c0		 test	 eax, eax
  00051	89 4d fc	 mov	 DWORD PTR _pDestTemp$[ebp], ecx
  00054	0f 8e 15 01 00
	00		 jle	 $L103805

; 2530 : 		{			
; 2531 : 			j = count;

  0005a	89 45 14	 mov	 DWORD PTR _j$[ebp], eax
$L103792:

; 2532 : 			do
; 2533 : 			{
; 2534 : 				transCount = *pPixels++;		// 투명색 수			

  0005d	0f b7 06	 movzx	 eax, WORD PTR [esi]
  00060	46		 inc	 esi
  00061	46		 inc	 esi

; 2535 : 				colorCount = *pPixels++;		// 투명 아닌 색 수			

  00062	0f b7 3e	 movzx	 edi, WORD PTR [esi]

; 2536 : 						
; 2537 : 				// 투명색만큼 index증가			
; 2538 : 				index += transCount;

  00065	03 d8		 add	 ebx, eax
  00067	46		 inc	 esi

; 2539 : 				
; 2540 : 			
; 2541 : 				//---------------------------------------------
; 2542 : 				// xxxx범위를 넘어가게 되는 경우
; 2543 : 				//---------------------------------------------
; 2544 : 				if (index+colorCount > rectLeft)

  00068	8d 04 1f	 lea	 eax, DWORD PTR [edi+ebx]
  0006b	46		 inc	 esi
  0006c	3b c2		 cmp	 eax, edx
  0006e	7f 0f		 jg	 SHORT $L105007

; 2603 : 
; 2604 : 						// 이제부터는 계속 출력한다.
; 2605 : 						break;
; 2606 : 					}
; 2607 : 				}					
; 2608 : 
; 2609 : 				// 투명이 아닌 색만큼 index증가				
; 2610 : 				pPixels += (colorCount<<1);
; 2611 : 				index += colorCount;
; 2612 : 			} while (--j);

  00070	ff 4d 14	 dec	 DWORD PTR _j$[ebp]
  00073	8d 34 be	 lea	 esi, DWORD PTR [esi+edi*4]
  00076	8b d8		 mov	 ebx, eax
  00078	75 e3		 jne	 SHORT $L103792
  0007a	e9 91 00 00 00	 jmp	 $L103794
$L105007:

; 2545 : 				{
; 2546 : 					//---------------------------------------------
; 2547 : 					// 투명색만으로 xxxx범위를 넘어갔을 경우
; 2548 : 					//---------------------------------------------
; 2549 : 					if (index > rectLeft)

  0007f	3b da		 cmp	 ebx, edx
  00081	7e 37		 jle	 SHORT $L103796

; 2550 : 					{	
; 2551 : 						// 투명색부분 건너띔
; 2552 : 						pDestTemp += index - rectLeft;

  00083	8b c3		 mov	 eax, ebx
  00085	2b c2		 sub	 eax, edx
  00087	8d 04 41	 lea	 eax, DWORD PTR [ecx+eax*2]

; 2553 : 
; 2554 : 						// 이번 단계는 모두 출력
; 2555 : 						// 오른쪽 끝을 넘어가는 경우..
; 2556 : 						if (index+colorCount > rectRight)

  0008a	8d 0c 1f	 lea	 ecx, DWORD PTR [edi+ebx]
  0008d	3b 4d 10	 cmp	 ecx, DWORD PTR _rectRight$[ebp]
  00090	89 45 fc	 mov	 DWORD PTR _pDestTemp$[ebp], eax
  00093	89 4d f4	 mov	 DWORD PTR tv282[ebp], ecx
  00096	7e 0f		 jle	 SHORT $L103797

; 2557 : 						{							
; 2558 : 							// 투명색만으로 오른쪽 끝 넘어가는 경우
; 2559 : 							if (index > rectRight)

  00098	3b 5d 10	 cmp	 ebx, DWORD PTR _rectRight$[ebp]
  0009b	7f 45		 jg	 SHORT $L105012

; 2560 : 							{
; 2561 : 							}
; 2562 : 							else
; 2563 : 							{
; 2564 : 								//memset((void*)pDestTemp, 0, (rectRight - index)<<1);
; 2565 : 								memcpyAlphaValue(pDestTemp, pPixels, (rectRight - index));

  0009d	8b 4d 10	 mov	 ecx, DWORD PTR _rectRight$[ebp]
  000a0	2b cb		 sub	 ecx, ebx
  000a2	51		 push	 ecx
  000a3	56		 push	 esi
  000a4	50		 push	 eax

; 2566 : 							}
; 2567 : 
; 2568 : 							j = 0;
; 2569 : 							
; 2570 : 							break;

  000a5	eb 33		 jmp	 SHORT $L105016
$L103797:

; 2571 : 						}
; 2572 : 
; 2573 : 						memcpyAlphaValue(pDestTemp, pPixels, colorCount);

  000a7	8b 4d f8	 mov	 ecx, DWORD PTR _this$[ebp]
  000aa	57		 push	 edi
  000ab	56		 push	 esi
  000ac	50		 push	 eax
  000ad	e8 00 00 00 00	 call	 ?memcpyAlphaValue@CAlphaSprite@@QAEXPAG0G@Z ; CAlphaSprite::memcpyAlphaValue

; 2574 : 						pDestTemp += colorCount;

  000b2	8b 45 fc	 mov	 eax, DWORD PTR _pDestTemp$[ebp]
  000b5	8d 04 78	 lea	 eax, DWORD PTR [eax+edi*2]

; 2575 : 						pPixels += (colorCount<<1);
; 2576 : 						index += colorCount;
; 2577 : 
; 2578 : 						// 이제부터는 계속 출력한다.
; 2579 : 						break;

  000b8	eb 4d		 jmp	 SHORT $L105015
$L103796:

; 2580 : 					}
; 2581 : 					//---------------------------------------------
; 2582 : 					// 투명색+투명아닌색의 일부까지 출력하면 
; 2583 : 					// xxxx범위를 넘어가게 되는 경우
; 2584 : 					//---------------------------------------------
; 2585 : 					else
; 2586 : 					{
; 2587 : 						dist = rectLeft - index;

  000ba	8b c2		 mov	 eax, edx

; 2588 : 
; 2589 : 						// 투명이 아닌 색들을 Surface에 출력한다.
; 2590 : 						// 오른쪽 끝을 넘어가는 경우..
; 2591 : 						if (index+colorCount > rectRight)

  000bc	8d 0c 1f	 lea	 ecx, DWORD PTR [edi+ebx]
  000bf	2b c3		 sub	 eax, ebx
  000c1	3b 4d 10	 cmp	 ecx, DWORD PTR _rectRight$[ebp]
  000c4	89 45 e8	 mov	 DWORD PTR _dist$[ebp], eax
  000c7	89 4d f4	 mov	 DWORD PTR tv282[ebp], ecx
  000ca	7e 1c		 jle	 SHORT $L103801

; 2592 : 						{
; 2593 : 							memcpyAlphaValue(pDestTemp, pPixels+(dist<<1), (rectRight - rectLeft));

  000cc	8b 4d 10	 mov	 ecx, DWORD PTR _rectRight$[ebp]
  000cf	2b 4d f0	 sub	 ecx, DWORD PTR _rectLeft$[ebp]
  000d2	8d 04 86	 lea	 eax, DWORD PTR [esi+eax*4]
  000d5	51		 push	 ecx
  000d6	50		 push	 eax
  000d7	ff 75 08	 push	 DWORD PTR _pDest$[ebp]
$L105016:
  000da	8b 4d f8	 mov	 ecx, DWORD PTR _this$[ebp]
  000dd	e8 00 00 00 00	 call	 ?memcpyAlphaValue@CAlphaSprite@@QAEXPAG0G@Z ; CAlphaSprite::memcpyAlphaValue
$L105012:

; 2594 : 
; 2595 : 							j = 0;						

  000e2	83 65 14 00	 and	 DWORD PTR _j$[ebp], 0

; 2596 : 							break;

  000e6	eb 28		 jmp	 SHORT $L103794
$L103801:

; 2597 : 						}		
; 2598 : 
; 2599 : 						memcpyAlphaValue(pDestTemp, pPixels+(dist<<1), colorCount-dist);

  000e8	8b cf		 mov	 ecx, edi
  000ea	2b c8		 sub	 ecx, eax
  000ec	51		 push	 ecx
  000ed	8b 4d f8	 mov	 ecx, DWORD PTR _this$[ebp]
  000f0	8d 04 86	 lea	 eax, DWORD PTR [esi+eax*4]
  000f3	50		 push	 eax
  000f4	ff 75 08	 push	 DWORD PTR _pDest$[ebp]
  000f7	e8 00 00 00 00	 call	 ?memcpyAlphaValue@CAlphaSprite@@QAEXPAG0G@Z ; CAlphaSprite::memcpyAlphaValue

; 2600 : 						pDestTemp += colorCount-dist;

  000fc	8b 4d 08	 mov	 ecx, DWORD PTR _pDest$[ebp]
  000ff	8b c7		 mov	 eax, edi
  00101	2b 45 e8	 sub	 eax, DWORD PTR _dist$[ebp]
  00104	8d 04 41	 lea	 eax, DWORD PTR [ecx+eax*2]
$L105015:

; 2601 : 						pPixels += (colorCount<<1);
; 2602 : 						index += colorCount;

  00107	8b 5d f4	 mov	 ebx, DWORD PTR tv282[ebp]
  0010a	89 45 fc	 mov	 DWORD PTR _pDestTemp$[ebp], eax
  0010d	8d 34 be	 lea	 esi, DWORD PTR [esi+edi*4]
$L103794:

; 2613 : 
; 2614 : 			//---------------------------------------------
; 2615 : 			// 각 줄마다 Clipping을 해줘야 하는데...		
; 2616 : 			// OOOOOOOOOOOOOOxxxxx 이런 경우이다.
; 2617 : 			//---------------------------------------------
; 2618 : 			// OOOOOOOOOOOOOO까지만 출력해주면 된다.
; 2619 : 			//---------------------------------------------
; 2620 : 			if (--j > 0)

  00110	ff 4d 14	 dec	 DWORD PTR _j$[ebp]
  00113	83 7d 14 00	 cmp	 DWORD PTR _j$[ebp], 0
  00117	7e 56		 jle	 SHORT $L103805
$L103803:

; 2621 : 			{
; 2622 : 				do
; 2623 : 				{
; 2624 : 					transCount = *pPixels++;		// 투명색 수			

  00119	0f b7 06	 movzx	 eax, WORD PTR [esi]
  0011c	46		 inc	 esi
  0011d	46		 inc	 esi

; 2625 : 					colorCount = *pPixels++;		// 투명 아닌 색 수			

  0011e	0f b7 3e	 movzx	 edi, WORD PTR [esi]

; 2626 : 							
; 2627 : 					// 투명색만큼 index증가
; 2628 : 					index += transCount;

  00121	03 d8		 add	 ebx, eax
  00123	46		 inc	 esi

; 2629 : 					
; 2630 : 					// 출력하고 있다가 오른쪽부분부터 출력하지 말아야 할 경우가 있다.
; 2631 : 					// 현재 출력하는 줄은 모두 출력한 것이므로 break해야 한다.
; 2632 : 
; 2633 : 					// 투명색까지 출력하는것만으로 더 이상 출력할 필요가 없을 경우
; 2634 : 
; 2635 : 					//---------------------------------------------
; 2636 : 					// 오른쪽 끝까지 도달했을 경우
; 2637 : 					//---------------------------------------------			
; 2638 : 					if (index+colorCount > rectRight)

  00124	8d 0c 1f	 lea	 ecx, DWORD PTR [edi+ebx]
  00127	46		 inc	 esi
  00128	3b 4d 10	 cmp	 ecx, DWORD PTR _rectRight$[ebp]
  0012b	89 4d f4	 mov	 DWORD PTR tv282[ebp], ecx
  0012e	7f 24		 jg	 SHORT $L105008

; 2652 : 							break;
; 2653 : 						}
; 2654 : 					}
; 2655 : 
; 2656 : 					// 투명색만큼 건너띄고
; 2657 : 					pDestTemp += transCount;

  00130	8b 4d fc	 mov	 ecx, DWORD PTR _pDestTemp$[ebp]

; 2658 : 
; 2659 : 					// 출력
; 2660 : 					memcpyAlphaValue(pDestTemp, pPixels, colorCount);

  00133	57		 push	 edi
  00134	8d 1c 41	 lea	 ebx, DWORD PTR [ecx+eax*2]
  00137	8b 4d f8	 mov	 ecx, DWORD PTR _this$[ebp]
  0013a	56		 push	 esi
  0013b	53		 push	 ebx
  0013c	e8 00 00 00 00	 call	 ?memcpyAlphaValue@CAlphaSprite@@QAEXPAG0G@Z ; CAlphaSprite::memcpyAlphaValue

; 2661 : 					pDestTemp += colorCount;
; 2662 : 					pPixels += (colorCount<<1);
; 2663 : 					index += colorCount;
; 2664 : 				} while (--j);

  00141	ff 4d 14	 dec	 DWORD PTR _j$[ebp]
  00144	8d 04 7b	 lea	 eax, DWORD PTR [ebx+edi*2]
  00147	8b 5d f4	 mov	 ebx, DWORD PTR tv282[ebp]
  0014a	89 45 fc	 mov	 DWORD PTR _pDestTemp$[ebp], eax
  0014d	8d 34 be	 lea	 esi, DWORD PTR [esi+edi*4]
  00150	75 c7		 jne	 SHORT $L103803
  00152	eb 1b		 jmp	 SHORT $L103805
$L105008:

; 2639 : 					{
; 2640 : 						// 투명색만으로 더 출력할 필요가 없을 때
; 2641 : 						if (index > rectRight)

  00154	3b 5d 10	 cmp	 ebx, DWORD PTR _rectRight$[ebp]
  00157	7f 16		 jg	 SHORT $L103805

; 2642 : 						{
; 2643 : 							break;
; 2644 : 						}
; 2645 : 						// 투명색 아닌 것을 조금 출력해야 할 경우
; 2646 : 						else
; 2647 : 						{
; 2648 : 							pDestTemp += transCount;
; 2649 : 						
; 2650 : 							// 투명이 아닌 색들을 Surface에 출력한다.
; 2651 : 							memcpyAlphaValue(pDestTemp, pPixels, rectRight - index);

  00159	8b 4d 10	 mov	 ecx, DWORD PTR _rectRight$[ebp]
  0015c	2b cb		 sub	 ecx, ebx
  0015e	51		 push	 ecx
  0015f	8b 4d fc	 mov	 ecx, DWORD PTR _pDestTemp$[ebp]
  00162	8d 04 41	 lea	 eax, DWORD PTR [ecx+eax*2]
  00165	8b 4d f8	 mov	 ecx, DWORD PTR _this$[ebp]
  00168	56		 push	 esi
  00169	50		 push	 eax
  0016a	e8 00 00 00 00	 call	 ?memcpyAlphaValue@CAlphaSprite@@QAEXPAG0G@Z ; CAlphaSprite::memcpyAlphaValue
$L103805:

; 2665 : 			}
; 2666 : 		}		
; 2667 : 
; 2668 : 		pDest = (WORD*)((BYTE*)pDest + pitch);

  0016f	0f b7 45 0c	 movzx	 eax, WORD PTR _pitch$[ebp]
  00173	01 45 08	 add	 DWORD PTR _pDest$[ebp], eax
  00176	8b 45 ec	 mov	 eax, DWORD PTR _i$[ebp]
  00179	40		 inc	 eax
  0017a	3b 45 e4	 cmp	 eax, DWORD PTR _rectBottom$[ebp]
  0017d	89 45 ec	 mov	 DWORD PTR _i$[ebp], eax
  00180	0f 8c b3 fe ff
	ff		 jl	 $L105013
  00186	5f		 pop	 edi
  00187	5b		 pop	 ebx
$L103790:
  00188	5e		 pop	 esi

; 2669 : 	}
; 2670 : }

  00189	c9		 leave
  0018a	c2 10 00	 ret	 16			; 00000010H
?BltAlphaClipWidth@CAlphaSprite@@QAEXPAGGPAUtagRECT@@E@Z ENDP ; CAlphaSprite::BltAlphaClipWidth
_TEXT	ENDS
PUBLIC	?BltAlphaClipHeight@CAlphaSprite@@QAEXPAGGPAUtagRECT@@E@Z ; CAlphaSprite::BltAlphaClipHeight
; Function compile flags: /Ogsy
;	COMDAT ?BltAlphaClipHeight@CAlphaSprite@@QAEXPAGGPAUtagRECT@@E@Z
_TEXT	SEGMENT
_rectBottom$ = -8					; size = 4
_this$ = -4						; size = 4
_pDest$ = 8						; size = 4
_pitch$ = 12						; size = 2
_i$ = 16						; size = 4
_pRect$ = 16						; size = 4
_j$ = 20						; size = 4
_alpha$ = 20						; size = 1
?BltAlphaClipHeight@CAlphaSprite@@QAEXPAGGPAUtagRECT@@E@Z PROC NEAR ; CAlphaSprite::BltAlphaClipHeight, COMDAT
; _this$ = ecx

; 2679 : {

  00000	55		 push	 ebp
  00001	8b ec		 mov	 ebp, esp
  00003	51		 push	 ecx
  00004	51		 push	 ecx

; 2680 : 	s_Value1 = alpha;

  00005	0f b6 45 14	 movzx	 eax, BYTE PTR _alpha$[ebp]
  00009	a3 00 00 00 00	 mov	 DWORD PTR ?s_Value1@CAlphaSprite@@1HA, eax ; CAlphaSprite::s_Value1

; 2681 : 
; 2682 : 	int	count,			
; 2683 : 			colorCount;
; 2684 : 
; 2685 : 	WORD	*pDestTemp,
; 2686 : 			*pPixels;
; 2687 : 
; 2688 : 
; 2689 : 	register int i;
; 2690 : 	register int j;
; 2691 : 
; 2692 : 	int rectBottom = pRect->bottom;

  0000e	8b 45 10	 mov	 eax, DWORD PTR _pRect$[ebp]
  00011	89 4d fc	 mov	 DWORD PTR _this$[ebp], ecx
  00014	8b 48 0c	 mov	 ecx, DWORD PTR [eax+12]

; 2693 : 
; 2694 : 	for (i=pRect->top; i<rectBottom; i++)

  00017	8b 40 04	 mov	 eax, DWORD PTR [eax+4]
  0001a	3b c1		 cmp	 eax, ecx
  0001c	89 4d f8	 mov	 DWORD PTR _rectBottom$[ebp], ecx
  0001f	89 45 10	 mov	 DWORD PTR _i$[ebp], eax
  00022	7d 54		 jge	 SHORT $L103827
  00024	53		 push	 ebx
  00025	56		 push	 esi
  00026	57		 push	 edi
$L105023:

; 2695 : 	{			
; 2696 : 		pPixels		= m_Pixels[i];

  00027	8b 4d fc	 mov	 ecx, DWORD PTR _this$[ebp]
  0002a	8b 49 08	 mov	 ecx, DWORD PTR [ecx+8]
  0002d	8b 34 81	 mov	 esi, DWORD PTR [ecx+eax*4]

; 2697 : 		pDestTemp	= pDest;
; 2698 : 
; 2699 : 		// (투명수,색깔수,색깔들)의 반복 수		
; 2700 : 		count	= *pPixels++;		

  00030	0f b7 06	 movzx	 eax, WORD PTR [esi]
  00033	8b 5d 08	 mov	 ebx, DWORD PTR _pDest$[ebp]
  00036	46		 inc	 esi
  00037	46		 inc	 esi

; 2701 : 
; 2702 : 		// 한 줄 출력
; 2703 : 		// 한 줄 출력
; 2704 : 		if (count > 0)

  00038	85 c0		 test	 eax, eax
  0003a	7e 26		 jle	 SHORT $L103831

; 2705 : 		{			
; 2706 : 			j = count;

  0003c	89 45 14	 mov	 DWORD PTR _j$[ebp], eax
$L103829:

; 2707 : 			do
; 2708 : 			{
; 2709 : 				pDestTemp += *pPixels++;		// 투명색만큼 건너 뛴다.

  0003f	0f b7 06	 movzx	 eax, WORD PTR [esi]

; 2710 : 				colorCount = *pPixels++;		// 투명 아닌 색 수				
; 2711 : 
; 2712 : 				// 투명이 아닌 색들을 Surface에 출력한다.
; 2713 : 				memcpyAlphaValue(pDestTemp, pPixels, colorCount);

  00042	8b 4d fc	 mov	 ecx, DWORD PTR _this$[ebp]
  00045	46		 inc	 esi
  00046	46		 inc	 esi
  00047	0f b7 3e	 movzx	 edi, WORD PTR [esi]
  0004a	46		 inc	 esi
  0004b	57		 push	 edi
  0004c	46		 inc	 esi
  0004d	8d 1c 43	 lea	 ebx, DWORD PTR [ebx+eax*2]
  00050	56		 push	 esi
  00051	53		 push	 ebx
  00052	e8 00 00 00 00	 call	 ?memcpyAlphaValue@CAlphaSprite@@QAEXPAG0G@Z ; CAlphaSprite::memcpyAlphaValue

; 2714 : 				
; 2715 : 				pDestTemp	+= colorCount;
; 2716 : 				pPixels		+= (colorCount<<1);
; 2717 : 			} while (--j);

  00057	ff 4d 14	 dec	 DWORD PTR _j$[ebp]
  0005a	8d 1c 7b	 lea	 ebx, DWORD PTR [ebx+edi*2]
  0005d	8d 34 be	 lea	 esi, DWORD PTR [esi+edi*4]
  00060	75 dd		 jne	 SHORT $L103829
$L103831:

; 2718 : 		}
; 2719 : 
; 2720 : 		pDest = (WORD*)((BYTE*)pDest + pitch);

  00062	0f b7 45 0c	 movzx	 eax, WORD PTR _pitch$[ebp]
  00066	01 45 08	 add	 DWORD PTR _pDest$[ebp], eax
  00069	8b 45 10	 mov	 eax, DWORD PTR _i$[ebp]
  0006c	40		 inc	 eax
  0006d	3b 45 f8	 cmp	 eax, DWORD PTR _rectBottom$[ebp]
  00070	89 45 10	 mov	 DWORD PTR _i$[ebp], eax
  00073	7c b2		 jl	 SHORT $L105023
  00075	5f		 pop	 edi
  00076	5e		 pop	 esi
  00077	5b		 pop	 ebx
$L103827:

; 2721 : 	}
; 2722 : }

  00078	c9		 leave
  00079	c2 10 00	 ret	 16			; 00000010H
?BltAlphaClipHeight@CAlphaSprite@@QAEXPAGGPAUtagRECT@@E@Z ENDP ; CAlphaSprite::BltAlphaClipHeight
_TEXT	ENDS
PUBLIC	?Blt4444SmallNotTrans@CAlphaSprite@@QAEXPAGGE@Z	; CAlphaSprite::Blt4444SmallNotTrans
; Function compile flags: /Ogsy
;	COMDAT ?Blt4444SmallNotTrans@CAlphaSprite@@QAEXPAGGE@Z
_TEXT	SEGMENT
_stepY$103873 = -36					; size = 4
_pixelGapShift$ = -32					; size = 4
_this$ = -28						; size = 4
_j$ = -24						; size = 4
_colorCount$ = -20					; size = 4
_pDestTemp$ = -16					; size = 4
_i$ = -12						; size = 4
_totalShiftCount$ = -8					; size = 4
_totalCount$ = -4					; size = 4
_pDest$ = 8						; size = 4
_pitch$ = 12						; size = 2
_shift$ = 16						; size = 1
?Blt4444SmallNotTrans@CAlphaSprite@@QAEXPAGGE@Z PROC NEAR ; CAlphaSprite::Blt4444SmallNotTrans, COMDAT
; _this$ = ecx

; 2815 : {

  00000	55		 push	 ebp
  00001	8b ec		 mov	 ebp, esp
  00003	83 ec 24	 sub	 esp, 36			; 00000024H
  00006	8b d1		 mov	 edx, ecx

; 2816 : 	s_Value1 = shift;

  00008	0f b6 4d 10	 movzx	 ecx, BYTE PTR _shift$[ebp]

; 2817 : 	// memcpy에서 하나의 alpha값을 제외하고 +하는 값
; 2818 : 	s_Value2 = (2 << shift) - 1; //((1 << s_Value1) << 1) - 1;	

  0000c	6a 02		 push	 2
  0000e	58		 pop	 eax
  0000f	d3 e0		 shl	 eax, cl
  00011	89 0d 00 00 00
	00		 mov	 DWORD PTR ?s_Value1@CAlphaSprite@@1HA, ecx ; CAlphaSprite::s_Value1
  00017	89 55 e4	 mov	 DWORD PTR _this$[ebp], edx
  0001a	48		 dec	 eax
  0001b	a3 00 00 00 00	 mov	 DWORD PTR ?s_Value2@CAlphaSprite@@1HA, eax ; CAlphaSprite::s_Value2

; 2819 : 
; 2820 : 
; 2821 : 	int		count,	
; 2822 : 			transCount,
; 2823 : 			colorCount,
; 2824 : 			transCountShift,
; 2825 : 			colorCountShift,
; 2826 : 			totalCount,
; 2827 : 			totalShiftCount,
; 2828 : 			pixelGap,
; 2829 : 			pixelGapShift;
; 2830 : 
; 2831 : 	WORD	*pDestTemp,
; 2832 : 			*pPixels;
; 2833 : 
; 2834 : 	register int i;
; 2835 : 	register int j;
; 2836 : 
; 2837 : 	int rectBottom = m_Height;

  00020	0f b7 42 06	 movzx	 eax, WORD PTR [edx+6]

; 2838 : 
; 2839 : 	if (rectBottom > 0)

  00024	85 c0		 test	 eax, eax
  00026	0f 8e cc 00 00
	00		 jle	 $L103878
  0002c	53		 push	 ebx
  0002d	56		 push	 esi

; 2840 : 	{
; 2841 : 		i = rectBottom-1;

  0002e	8d 70 ff	 lea	 esi, DWORD PTR [eax-1]

; 2842 : 		int stepY = 1 << shift;		// y줄 건너띄는 pixel수
; 2843 : 		pDest = (WORD*)((BYTE*)pDest + (i>>shift)*pitch);

  00031	0f b7 45 0c	 movzx	 eax, WORD PTR _pitch$[ebp]
  00035	89 75 f4	 mov	 DWORD PTR _i$[ebp], esi
  00038	d3 fe		 sar	 esi, cl
  0003a	57		 push	 edi
  0003b	33 ff		 xor	 edi, edi
  0003d	47		 inc	 edi
  0003e	0f af f0	 imul	 esi, eax
  00041	d3 e7		 shl	 edi, cl
  00043	01 75 08	 add	 DWORD PTR _pDest$[ebp], esi
  00046	89 7d dc	 mov	 DWORD PTR _stepY$103873[ebp], edi
$L103876:

; 2844 : 
; 2845 : 		do
; 2846 : 		{
; 2847 : 			pPixels		= m_Pixels[i];

  00049	8b 42 08	 mov	 eax, DWORD PTR [edx+8]
  0004c	8b 4d f4	 mov	 ecx, DWORD PTR _i$[ebp]
  0004f	8b 34 88	 mov	 esi, DWORD PTR [eax+ecx*4]

; 2848 : 			pDestTemp	= pDest;

  00052	8b 45 08	 mov	 eax, DWORD PTR _pDest$[ebp]

; 2849 : 
; 2850 : 			// (투명수,색깔수,색깔들)의 반복 수		
; 2851 : 			count	= *pPixels++;		
; 2852 : 
; 2853 : 			// 한 줄 출력
; 2854 : 			totalCount = 0;

  00055	83 65 fc 00	 and	 DWORD PTR _totalCount$[ebp], 0

; 2855 : 			totalShiftCount = 0;

  00059	83 65 f8 00	 and	 DWORD PTR _totalShiftCount$[ebp], 0
  0005d	89 45 f0	 mov	 DWORD PTR _pDestTemp$[ebp], eax
  00060	0f b7 06	 movzx	 eax, WORD PTR [esi]
  00063	46		 inc	 esi
  00064	46		 inc	 esi

; 2856 : 			if (count > 0)

  00065	85 c0		 test	 eax, eax
  00067	7e 78		 jle	 SHORT $L103882

; 2857 : 			{			
; 2858 : 				j = count;

  00069	89 45 e8	 mov	 DWORD PTR _j$[ebp], eax
$L103880:

; 2859 : 				do
; 2860 : 				{		
; 2861 : 					transCount = *pPixels++;					

  0006c	0f b7 06	 movzx	 eax, WORD PTR [esi]

; 2862 : 					colorCount = *pPixels++;		// 투명 아닌 색 수	
; 2863 : 					
; 2864 : 					//--------------------------------------------------
; 2865 : 					// shift만큼 줄여진 값을 계산한다.
; 2866 : 					//--------------------------------------------------
; 2867 : 					transCountShift = transCount >> shift;

  0006f	0f b6 4d 10	 movzx	 ecx, BYTE PTR _shift$[ebp]

; 2868 : 					colorCountShift = colorCount >> shift;
; 2869 : 
; 2870 : 					//--------------------------------------------------
; 2871 : 					//				투명 부분 길이 보정
; 2872 : 					//--------------------------------------------------
; 2873 : 					// 실제 size의 pixel수..
; 2874 : 					//--------------------------------------------------
; 2875 : 					totalCount += transCount;

  00073	01 45 fc	 add	 DWORD PTR _totalCount$[ebp], eax
  00076	8b f8		 mov	 edi, eax

; 2876 : 					totalShiftCount += transCountShift;
; 2877 : 
; 2878 : 					// 실제pixel - shift해서 늘린 pixel(-_-;)
; 2879 : 					pixelGap = totalCount - (totalShiftCount << shift);

  00078	8b 45 fc	 mov	 eax, DWORD PTR _totalCount$[ebp]
  0007b	d3 ff		 sar	 edi, cl
  0007d	46		 inc	 esi
  0007e	46		 inc	 esi
  0007f	0f b7 1e	 movzx	 ebx, WORD PTR [esi]
  00082	01 7d f8	 add	 DWORD PTR _totalShiftCount$[ebp], edi
  00085	8b 55 f8	 mov	 edx, DWORD PTR _totalShiftCount$[ebp]
  00088	d3 e2		 shl	 edx, cl
  0008a	46		 inc	 esi
  0008b	89 5d ec	 mov	 DWORD PTR _colorCount$[ebp], ebx
  0008e	46		 inc	 esi
  0008f	2b c2		 sub	 eax, edx

; 2880 : 
; 2881 : 					// gap을 다시 shift해서 더해준다.
; 2882 : 					pixelGapShift = pixelGap >> shift;

  00091	d3 f8		 sar	 eax, cl
  00093	d3 fb		 sar	 ebx, cl

; 2883 : 					transCountShift += pixelGapShift;

  00095	03 f8		 add	 edi, eax
  00097	89 45 e0	 mov	 DWORD PTR _pixelGapShift$[ebp], eax

; 2884 : 					totalShiftCount += pixelGapShift;
; 2885 : 
; 2886 : 					
; 2887 : 					//--------------------------------------------------
; 2888 : 					// 0을 출력한다. 투명색이다..
; 2889 : 					//--------------------------------------------------
; 2890 : 					memset(pDestTemp, 0, transCountShift<<1);

  0009a	8d 04 3f	 lea	 eax, DWORD PTR [edi+edi]
  0009d	50		 push	 eax
  0009e	6a 00		 push	 0
  000a0	ff 75 f0	 push	 DWORD PTR _pDestTemp$[ebp]
  000a3	e8 00 00 00 00	 call	 _memset

; 2891 : 					pDestTemp += transCountShift;		// 투명색만큼 건너 뛴다.

  000a8	8b 45 f0	 mov	 eax, DWORD PTR _pDestTemp$[ebp]

; 2892 : 
; 2893 : 
; 2894 : 					//--------------------------------------------------
; 2895 : 					//				색깔 부분 길이 보정
; 2896 : 					//--------------------------------------------------
; 2897 : 					// (!!!) 근데 여기서 문제가 있다.
; 2898 : 					// 투명색이야 그냥 투명색인데..
; 2899 : 					// 색깔이 있는 부분에서는 
; 2900 : 					// 점 몇개를 더 찍어야될 경우..
; 2901 : 					// 어떤 점을 출력할까?? 흠..
; 2902 : 					// 이대로라면.. 
; 2903 : 					// 부족한 색깔만큼 그냥 건너띌 뿐.. 흠..- -;
; 2904 : 					//
; 2905 : 					// 그래서, 일단 제외.. - -;
; 2906 : 					//--------------------------------------------------
; 2907 : 					totalCount += colorCount;
; 2908 : 					totalShiftCount += colorCountShift;

  000ab	8b 4d e0	 mov	 ecx, DWORD PTR _pixelGapShift$[ebp]
  000ae	83 c4 0c	 add	 esp, 12			; 0000000cH
  000b1	8d 3c 78	 lea	 edi, DWORD PTR [eax+edi*2]
  000b4	8b 45 ec	 mov	 eax, DWORD PTR _colorCount$[ebp]
  000b7	01 45 fc	 add	 DWORD PTR _totalCount$[ebp], eax

; 2909 : 
; 2910 : 					//--------------------------------------------------
; 2911 : 					// 투명이 아닌 색들을 Surface에 출력한다.
; 2912 : 					//--------------------------------------------------					
; 2913 : 					memcpyAlpha4444Small(pDestTemp, pPixels, colorCount);

  000ba	50		 push	 eax
  000bb	03 cb		 add	 ecx, ebx
  000bd	01 4d f8	 add	 DWORD PTR _totalShiftCount$[ebp], ecx
  000c0	8b 4d e4	 mov	 ecx, DWORD PTR _this$[ebp]
  000c3	56		 push	 esi
  000c4	57		 push	 edi
  000c5	e8 00 00 00 00	 call	 ?memcpyAlpha4444Small@CAlphaSprite@@QAEXPAG0G@Z ; CAlphaSprite::memcpyAlpha4444Small

; 2914 : 					
; 2915 : 					pDestTemp	+= colorCountShift;
; 2916 : 
; 2917 : 					// 실제 점 개수는 alpha값 때문에 2배이다.
; 2918 : 					pPixels		+= (colorCount<<1);
; 2919 : 				} while (--j);

  000ca	ff 4d e8	 dec	 DWORD PTR _j$[ebp]
  000cd	8d 04 5f	 lea	 eax, DWORD PTR [edi+ebx*2]
  000d0	89 45 f0	 mov	 DWORD PTR _pDestTemp$[ebp], eax
  000d3	8b 45 ec	 mov	 eax, DWORD PTR _colorCount$[ebp]
  000d6	8d 34 86	 lea	 esi, DWORD PTR [esi+eax*4]
  000d9	75 91		 jne	 SHORT $L103880
  000db	8b 55 e4	 mov	 edx, DWORD PTR _this$[ebp]
  000de	8b 7d dc	 mov	 edi, DWORD PTR _stepY$103873[ebp]
$L103882:

; 2920 : 			}
; 2921 : 
; 2922 : 			pDest = (WORD*)((BYTE*)pDest - pitch);

  000e1	0f b7 45 0c	 movzx	 eax, WORD PTR _pitch$[ebp]

; 2923 : 
; 2924 : 			i-=stepY;

  000e5	29 7d f4	 sub	 DWORD PTR _i$[ebp], edi
  000e8	29 45 08	 sub	 DWORD PTR _pDest$[ebp], eax

; 2925 : 
; 2926 : 		} while (i>0);

  000eb	83 7d f4 00	 cmp	 DWORD PTR _i$[ebp], 0
  000ef	0f 8f 54 ff ff
	ff		 jg	 $L103876
  000f5	5f		 pop	 edi
  000f6	5e		 pop	 esi
  000f7	5b		 pop	 ebx
$L103878:

; 2927 : 	}
; 2928 : }

  000f8	c9		 leave
  000f9	c2 0c 00	 ret	 12			; 0000000cH
?Blt4444SmallNotTrans@CAlphaSprite@@QAEXPAGGE@Z ENDP	; CAlphaSprite::Blt4444SmallNotTrans
_TEXT	ENDS
END
