; Listing generated by Microsoft (R) Optimizing Compiler Version 13.10.3077 

	TITLE	\darkeden\Designed_Common\Project\Client\Client_PCH.cpp
	.386P
include listing.inc
if @Version gt 510
.model FLAT
else
_TEXT	SEGMENT PARA USE32 PUBLIC 'CODE'
_TEXT	ENDS
_DATA	SEGMENT DWORD USE32 PUBLIC 'DATA'
_DATA	ENDS
CONST	SEGMENT DWORD USE32 PUBLIC 'CONST'
CONST	ENDS
_BSS	SEGMENT DWORD USE32 PUBLIC 'BSS'
_BSS	ENDS
$$SYMBOLS	SEGMENT BYTE USE32 'DEBSYM'
$$SYMBOLS	ENDS
$$TYPES	SEGMENT BYTE USE32 'DEBTYP'
$$TYPES	ENDS
_TLS	SEGMENT DWORD USE32 PUBLIC 'TLS'
_TLS	ENDS
;	COMDAT ??_C@_01KICIPPFI@?2?$AA@
CONST	SEGMENT DWORD USE32 PUBLIC 'CONST'
CONST	ENDS
;	COMDAT ??_C@_05PDGJNCN@KOREA?$AA@
CONST	SEGMENT DWORD USE32 PUBLIC 'CONST'
CONST	ENDS
;	COMDAT ??_C@_03KFPADBNO@USA?$AA@
CONST	SEGMENT DWORD USE32 PUBLIC 'CONST'
CONST	ENDS
;	COMDAT ??_C@_05FBMCIMHB@JAPAN?$AA@
CONST	SEGMENT DWORD USE32 PUBLIC 'CONST'
CONST	ENDS
;	COMDAT ??_C@_09IJJFLHHI@PC_SLAYER?$AA@
CONST	SEGMENT DWORD USE32 PUBLIC 'CONST'
CONST	ENDS
;	COMDAT ??_C@_0L@MKGKKFOP@PC_VAMPIRE?$AA@
CONST	SEGMENT DWORD USE32 PUBLIC 'CONST'
CONST	ENDS
;	COMDAT ??_C@_0L@KABNPIHG@PC_OUSTERS?$AA@
CONST	SEGMENT DWORD USE32 PUBLIC 'CONST'
CONST	ENDS
;	COMDAT ??_C@_0M@CGIAEAIL@HELMET_NONE?$AA@
CONST	SEGMENT DWORD USE32 PUBLIC 'CONST'
CONST	ENDS
;	COMDAT ??_C@_07KPENNMCO@HELMET1?$AA@
CONST	SEGMENT DWORD USE32 PUBLIC 'CONST'
CONST	ENDS
;	COMDAT ??_C@_07IEGAIPON@HELMET2?$AA@
CONST	SEGMENT DWORD USE32 PUBLIC 'CONST'
CONST	ENDS
;	COMDAT ??_C@_07JNHLLOKM@HELMET3?$AA@
CONST	SEGMENT DWORD USE32 PUBLIC 'CONST'
CONST	ENDS
;	COMDAT ??_C@_07NCDKCIGL@HELMET4?$AA@
CONST	SEGMENT DWORD USE32 PUBLIC 'CONST'
CONST	ENDS
;	COMDAT ??_C@_07MLCBBJCK@HELMET5?$AA@
CONST	SEGMENT DWORD USE32 PUBLIC 'CONST'
CONST	ENDS
;	COMDAT ??_C@_07OAAMEKOJ@HELMET6?$AA@
CONST	SEGMENT DWORD USE32 PUBLIC 'CONST'
CONST	ENDS
;	COMDAT ??_C@_07PJBHHLKI@HELMET7?$AA@
CONST	SEGMENT DWORD USE32 PUBLIC 'CONST'
CONST	ENDS
;	COMDAT ??_C@_0N@DPDPMEKH@JACKET_BASIC?$AA@
CONST	SEGMENT DWORD USE32 PUBLIC 'CONST'
CONST	ENDS
;	COMDAT ??_C@_07GHDBLIDF@JACKET1?$AA@
CONST	SEGMENT DWORD USE32 PUBLIC 'CONST'
CONST	ENDS
;	COMDAT ??_C@_07EMBMOLPG@JACKET2?$AA@
CONST	SEGMENT DWORD USE32 PUBLIC 'CONST'
CONST	ENDS
;	COMDAT ??_C@_07FFAHNKLH@JACKET3?$AA@
CONST	SEGMENT DWORD USE32 PUBLIC 'CONST'
CONST	ENDS
;	COMDAT ??_C@_07BKEGEMHA@JACKET4?$AA@
CONST	SEGMENT DWORD USE32 PUBLIC 'CONST'
CONST	ENDS
;	COMDAT ??_C@_07DFNHNDB@JACKET5?$AA@
CONST	SEGMENT DWORD USE32 PUBLIC 'CONST'
CONST	ENDS
;	COMDAT ??_C@_07CIHACOPC@JACKET6?$AA@
CONST	SEGMENT DWORD USE32 PUBLIC 'CONST'
CONST	ENDS
;	COMDAT ??_C@_07DBGLBPLD@JACKET7?$AA@
CONST	SEGMENT DWORD USE32 PUBLIC 'CONST'
CONST	ENDS
;	COMDAT ??_C@_07LGPDADHM@JACKET8?$AA@
CONST	SEGMENT DWORD USE32 PUBLIC 'CONST'
CONST	ENDS
;	COMDAT ??_C@_0M@FEMKDPPK@PANTS_BASIC?$AA@
CONST	SEGMENT DWORD USE32 PUBLIC 'CONST'
CONST	ENDS
;	COMDAT ??_C@_06IOEJPJHJ@PANTS1?$AA@
CONST	SEGMENT DWORD USE32 PUBLIC 'CONST'
CONST	ENDS
;	COMDAT ??_C@_06KFGEKKLK@PANTS2?$AA@
CONST	SEGMENT DWORD USE32 PUBLIC 'CONST'
CONST	ENDS
;	COMDAT ??_C@_06LMHPJLPL@PANTS3?$AA@
CONST	SEGMENT DWORD USE32 PUBLIC 'CONST'
CONST	ENDS
;	COMDAT ??_C@_06PDDOANDM@PANTS4?$AA@
CONST	SEGMENT DWORD USE32 PUBLIC 'CONST'
CONST	ENDS
;	COMDAT ??_C@_06OKCFDMHN@PANTS5?$AA@
CONST	SEGMENT DWORD USE32 PUBLIC 'CONST'
CONST	ENDS
;	COMDAT ??_C@_06MBAIGPLO@PANTS6?$AA@
CONST	SEGMENT DWORD USE32 PUBLIC 'CONST'
CONST	ENDS
;	COMDAT ??_C@_0M@KCBDMDNI@WEAPON_NONE?$AA@
CONST	SEGMENT DWORD USE32 PUBLIC 'CONST'
CONST	ENDS
;	COMDAT ??_C@_0N@FCLCNMLC@WEAPON_SWORD?$AA@
CONST	SEGMENT DWORD USE32 PUBLIC 'CONST'
CONST	ENDS
;	COMDAT ??_C@_0P@NDAGDNIL@WEAPON_SWORD_2?$AA@
CONST	SEGMENT DWORD USE32 PUBLIC 'CONST'
CONST	ENDS
;	COMDAT ??_C@_0N@GMGHDCKP@WEAPON_BLADE?$AA@
CONST	SEGMENT DWORD USE32 PUBLIC 'CONST'
CONST	ENDS
;	COMDAT ??_C@_0P@GLNIKADN@WEAPON_BLADE_2?$AA@
CONST	SEGMENT DWORD USE32 PUBLIC 'CONST'
CONST	ENDS
;	COMDAT ??_C@_09HJIOIJGO@WEAPON_SR?$AA@
CONST	SEGMENT DWORD USE32 PUBLIC 'CONST'
CONST	ENDS
;	COMDAT ??_C@_0M@OFIKDJNP@WEAPON_SR_2?$AA@
CONST	SEGMENT DWORD USE32 PUBLIC 'CONST'
CONST	ENDS
;	COMDAT ??_C@_09GGCMPOHA@WEAPON_AR?$AA@
CONST	SEGMENT DWORD USE32 PUBLIC 'CONST'
CONST	ENDS
;	COMDAT ??_C@_0M@PPKKPNDN@WEAPON_AR_2?$AA@
CONST	SEGMENT DWORD USE32 PUBLIC 'CONST'
CONST	ENDS
;	COMDAT ??_C@_09EODLGPHK@WEAPON_SG?$AA@
CONST	SEGMENT DWORD USE32 PUBLIC 'CONST'
CONST	ENDS
;	COMDAT ??_C@_0L@CDBPPFJ@WEAPON_SMG?$AA@
CONST	SEGMENT DWORD USE32 PUBLIC 'CONST'
CONST	ENDS
;	COMDAT ??_C@_0N@JNMFLPPI@WEAPON_CROSS?$AA@
CONST	SEGMENT DWORD USE32 PUBLIC 'CONST'
CONST	ENDS
;	COMDAT ??_C@_0P@NCLGFJB@WEAPON_CROSS_2?$AA@
CONST	SEGMENT DWORD USE32 PUBLIC 'CONST'
CONST	ENDS
;	COMDAT ??_C@_0M@NLEFNGI@WEAPON_MACE?$AA@
CONST	SEGMENT DWORD USE32 PUBLIC 'CONST'
CONST	ENDS
;	COMDAT ??_C@_0O@DCGOPMKO@WEAPON_MACE_2?$AA@
CONST	SEGMENT DWORD USE32 PUBLIC 'CONST'
CONST	ENDS
;	COMDAT ??_C@_0M@LFPOKKMH@SHIELD_NONE?$AA@
CONST	SEGMENT DWORD USE32 PUBLIC 'CONST'
CONST	ENDS
;	COMDAT ??_C@_07OONIKGBL@SHIELD1?$AA@
CONST	SEGMENT DWORD USE32 PUBLIC 'CONST'
CONST	ENDS
;	COMDAT ??_C@_07MFPFPFNI@SHIELD2?$AA@
CONST	SEGMENT DWORD USE32 PUBLIC 'CONST'
CONST	ENDS
;	COMDAT ??_C@_07NMOOMEJJ@SHIELD3?$AA@
CONST	SEGMENT DWORD USE32 PUBLIC 'CONST'
CONST	ENDS
;	COMDAT ??_C@_07JDKPFCFO@SHIELD4?$AA@
CONST	SEGMENT DWORD USE32 PUBLIC 'CONST'
CONST	ENDS
;	COMDAT ??_C@_07IKLEGDBP@SHIELD5?$AA@
CONST	SEGMENT DWORD USE32 PUBLIC 'CONST'
CONST	ENDS
;	COMDAT ??_C@_07KBJJDANM@SHIELD6?$AA@
CONST	SEGMENT DWORD USE32 PUBLIC 'CONST'
CONST	ENDS
;	COMDAT ??_C@_0BA@HFMKBDFL@MOTORCYCLE_NONE?$AA@
CONST	SEGMENT DWORD USE32 PUBLIC 'CONST'
CONST	ENDS
;	COMDAT ??_C@_0M@OJHOMHKG@MOTORCYCLE1?$AA@
CONST	SEGMENT DWORD USE32 PUBLIC 'CONST'
CONST	ENDS
;	COMDAT ??_C@_0M@MCFDJEGF@MOTORCYCLE2?$AA@
CONST	SEGMENT DWORD USE32 PUBLIC 'CONST'
CONST	ENDS
;	COMDAT ??_C@_0M@NLEIKFCE@MOTORCYCLE3?$AA@
CONST	SEGMENT DWORD USE32 PUBLIC 'CONST'
CONST	ENDS
;	COMDAT ??_C@_0BA@PGHNLPG@MOTORCYCLE_WING?$AA@
CONST	SEGMENT DWORD USE32 PUBLIC 'CONST'
CONST	ENDS
;	COMDAT ??_C@_0BD@BHBJCGPL@VAMPIRE_COAT_BASIC?$AA@
CONST	SEGMENT DWORD USE32 PUBLIC 'CONST'
CONST	ENDS
;	COMDAT ??_C@_0O@BACADMJG@VAMPIRE_COAT1?$AA@
CONST	SEGMENT DWORD USE32 PUBLIC 'CONST'
CONST	ENDS
;	COMDAT ??_C@_0O@DLANGPFF@VAMPIRE_COAT2?$AA@
CONST	SEGMENT DWORD USE32 PUBLIC 'CONST'
CONST	ENDS
;	COMDAT ??_C@_0O@CCBGFOBE@VAMPIRE_COAT3?$AA@
CONST	SEGMENT DWORD USE32 PUBLIC 'CONST'
CONST	ENDS
;	COMDAT ??_C@_0O@GNFHMIND@VAMPIRE_COAT4?$AA@
CONST	SEGMENT DWORD USE32 PUBLIC 'CONST'
CONST	ENDS
;	COMDAT ??_C@_0O@HEEMPJJC@VAMPIRE_COAT5?$AA@
CONST	SEGMENT DWORD USE32 PUBLIC 'CONST'
CONST	ENDS
;	COMDAT ??_C@_0O@FPGBKKFB@VAMPIRE_COAT6?$AA@
CONST	SEGMENT DWORD USE32 PUBLIC 'CONST'
CONST	ENDS
;	COMDAT ??_C@_0O@EGHKJLBA@VAMPIRE_COAT7?$AA@
CONST	SEGMENT DWORD USE32 PUBLIC 'CONST'
CONST	ENDS
;	COMDAT ??_C@_0O@MBOCIHNP@VAMPIRE_COAT8?$AA@
CONST	SEGMENT DWORD USE32 PUBLIC 'CONST'
CONST	ENDS
;	COMDAT ??_C@_0BB@PNEFOEAC@VAMPIRE_COAT_MAX?$AA@
CONST	SEGMENT DWORD USE32 PUBLIC 'CONST'
CONST	ENDS
;	COMDAT ??_C@_0BB@JKNDCPFB@VAMPIRE_ARM_NONE?$AA@
CONST	SEGMENT DWORD USE32 PUBLIC 'CONST'
CONST	ENDS
;	COMDAT ??_C@_0BD@KLAHKJOO@VAMPIRE_ARM_WEAPON?$AA@
CONST	SEGMENT DWORD USE32 PUBLIC 'CONST'
CONST	ENDS
;	COMDAT ??_C@_0BE@KKGJJMKH@VAMPIRE_ARM_WEAPON2?$AA@
CONST	SEGMENT DWORD USE32 PUBLIC 'CONST'
CONST	ENDS
;	COMDAT ??_C@_0BE@LDHCKNOG@VAMPIRE_ARM_WEAPON3?$AA@
CONST	SEGMENT DWORD USE32 PUBLIC 'CONST'
CONST	ENDS
;	COMDAT ??_C@_0BE@PMDDDLCB@VAMPIRE_ARM_WEAPON4?$AA@
CONST	SEGMENT DWORD USE32 PUBLIC 'CONST'
CONST	ENDS
;	COMDAT ??_C@_0BE@OFCIAKGA@VAMPIRE_ARM_WEAPON5?$AA@
CONST	SEGMENT DWORD USE32 PUBLIC 'CONST'
CONST	ENDS
;	COMDAT ??_C@_0BA@GOJJGFKN@VAMPIRE_ARM_MAX?$AA@
CONST	SEGMENT DWORD USE32 PUBLIC 'CONST'
CONST	ENDS
;	COMDAT ??_C@_0BD@CMEAPGLN@OUSTERS_COAT_BASIC?$AA@
CONST	SEGMENT DWORD USE32 PUBLIC 'CONST'
CONST	ENDS
;	COMDAT ??_C@_0O@FJGCKGLE@OUSTERS_COAT1?$AA@
CONST	SEGMENT DWORD USE32 PUBLIC 'CONST'
CONST	ENDS
;	COMDAT ??_C@_0O@HCEPPFHH@OUSTERS_COAT2?$AA@
CONST	SEGMENT DWORD USE32 PUBLIC 'CONST'
CONST	ENDS
;	COMDAT ??_C@_0O@GLFEMEDG@OUSTERS_COAT3?$AA@
CONST	SEGMENT DWORD USE32 PUBLIC 'CONST'
CONST	ENDS
;	COMDAT ??_C@_0O@CEBFFCPB@OUSTERS_COAT4?$AA@
CONST	SEGMENT DWORD USE32 PUBLIC 'CONST'
CONST	ENDS
;	COMDAT ??_C@_0O@DNAOGDLA@OUSTERS_COAT5?$AA@
CONST	SEGMENT DWORD USE32 PUBLIC 'CONST'
CONST	ENDS
;	COMDAT ??_C@_0O@BGCDDAHD@OUSTERS_COAT6?$AA@
CONST	SEGMENT DWORD USE32 PUBLIC 'CONST'
CONST	ENDS
;	COMDAT ??_C@_0O@PDIABDC@OUSTERS_COAT7?$AA@
CONST	SEGMENT DWORD USE32 PUBLIC 'CONST'
CONST	ENDS
;	COMDAT ??_C@_0O@IIKABNPN@OUSTERS_COAT8?$AA@
CONST	SEGMENT DWORD USE32 PUBLIC 'CONST'
CONST	ENDS
;	COMDAT ??_C@_0BB@NFPADEOJ@OUSTERS_COAT_MAX?$AA@
CONST	SEGMENT DWORD USE32 PUBLIC 'CONST'
CONST	ENDS
;	COMDAT ??_C@_0BF@NIHPEBPJ@OUSTERS_ARM_GAUNTLET?$AA@
CONST	SEGMENT DWORD USE32 PUBLIC 'CONST'
CONST	ENDS
;	COMDAT ??_C@_0BE@LKHDHEBG@OUSTERS_ARM_CHAKRAM?$AA@
CONST	SEGMENT DWORD USE32 PUBLIC 'CONST'
CONST	ENDS
;	COMDAT ??_C@_0BI@BMIBILBB@OUSTERS_ARM_CHAKRAM_171?$AA@
CONST	SEGMENT DWORD USE32 PUBLIC 'CONST'
CONST	ENDS
;	COMDAT ??_C@_0BI@BHNNMMCM@OUSTERS_ARM_CHAKRAM_181?$AA@
CONST	SEGMENT DWORD USE32 PUBLIC 'CONST'
CONST	ENDS
;	COMDAT ??_C@_0BI@LHLDCHK@OUSTERS_ARM_CHAKRAM_201?$AA@
CONST	SEGMENT DWORD USE32 PUBLIC 'CONST'
CONST	ENDS
;	COMDAT ??_C@_0BI@JDNIMCD@OUSTERS_ARM_CHAKRAM_231?$AA@
CONST	SEGMENT DWORD USE32 PUBLIC 'CONST'
CONST	ENDS
;	COMDAT ??_C@_0BA@NJPBBAJF@OUSTERS_ARM_MAX?$AA@
CONST	SEGMENT DWORD USE32 PUBLIC 'CONST'
CONST	ENDS
;	COMDAT ??_C@_0BC@BKIKMGDC@OUSTERS_SYLPH_OFF?$AA@
CONST	SEGMENT DWORD USE32 PUBLIC 'CONST'
CONST	ENDS
;	COMDAT ??_C@_0BB@HHECBLJ@OUSTERS_SYLPH_ON?$AA@
CONST	SEGMENT DWORD USE32 PUBLIC 'CONST'
CONST	ENDS
;	COMDAT ??_C@_0BC@GBINCHOD@OUSTERS_SYLPH_MAX?$AA@
CONST	SEGMENT DWORD USE32 PUBLIC 'CONST'
CONST	ENDS
;	COMDAT ??_C@_06GNJIJHFJ@FEMALE?$AA@
CONST	SEGMENT DWORD USE32 PUBLIC 'CONST'
CONST	ENDS
;	COMDAT ??_C@_04EOJIGEKG@MALE?$AA@
CONST	SEGMENT DWORD USE32 PUBLIC 'CONST'
CONST	ENDS
;	COMDAT ??_C@_0M@MGGBCBCM@HAIR_STYLE1?$AA@
CONST	SEGMENT DWORD USE32 PUBLIC 'CONST'
CONST	ENDS
;	COMDAT ??_C@_0M@ONEMHCOP@HAIR_STYLE2?$AA@
CONST	SEGMENT DWORD USE32 PUBLIC 'CONST'
CONST	ENDS
;	COMDAT ??_C@_0M@PEFHEDKO@HAIR_STYLE3?$AA@
CONST	SEGMENT DWORD USE32 PUBLIC 'CONST'
CONST	ENDS
;	COMDAT ??_C@_05DHLLFIPI@SLOT1?$AA@
CONST	SEGMENT DWORD USE32 PUBLIC 'CONST'
CONST	ENDS
;	COMDAT ??_C@_05BMJGALDL@SLOT2?$AA@
CONST	SEGMENT DWORD USE32 PUBLIC 'CONST'
CONST	ENDS
;	COMDAT ??_C@_05FINDKHK@SLOT3?$AA@
CONST	SEGMENT DWORD USE32 PUBLIC 'CONST'
CONST	ENDS
;	COMDAT ??_C@_0BD@BKPGKFMA@SKILL_DOMAIN_BLADE?$AA@
CONST	SEGMENT DWORD USE32 PUBLIC 'CONST'
CONST	ENDS
;	COMDAT ??_C@_0BD@CECDELNN@SKILL_DOMAIN_SWORD?$AA@
CONST	SEGMENT DWORD USE32 PUBLIC 'CONST'
CONST	ENDS
;	COMDAT ??_C@_0BB@HKCDGOHA@SKILL_DOMAIN_GUN?$AA@
CONST	SEGMENT DWORD USE32 PUBLIC 'CONST'
CONST	ENDS
;	COMDAT ??_C@_0BC@NFKGNFCI@SKILL_DOMAIN_HEAL?$AA@
CONST	SEGMENT DWORD USE32 PUBLIC 'CONST'
CONST	ENDS
;	COMDAT ??_C@_0BF@FDJFGBCI@SKILL_DOMAIN_ENCHANT?$AA@
CONST	SEGMENT DWORD USE32 PUBLIC 'CONST'
CONST	ENDS
;	COMDAT ??_C@_0BB@GEEGLCIB@SKILL_DOMAIN_ETC?$AA@
CONST	SEGMENT DWORD USE32 PUBLIC 'CONST'
CONST	ENDS
;	COMDAT ??_C@_0BF@LOCCMLNB@SKILL_DOMAIN_VAMPIRE?$AA@
CONST	SEGMENT DWORD USE32 PUBLIC 'CONST'
CONST	ENDS
;	COMDAT ??_C@_04KCNEHMIH@LEFT?$AA@
CONST	SEGMENT DWORD USE32 PUBLIC 'CONST'
CONST	ENDS
;	COMDAT ??_C@_08JJOEDBDF@LEFTDOWN?$AA@
CONST	SEGMENT DWORD USE32 PUBLIC 'CONST'
CONST	ENDS
;	COMDAT ??_C@_04FANAOELO@DOWN?$AA@
CONST	SEGMENT DWORD USE32 PUBLIC 'CONST'
CONST	ENDS
;	COMDAT ??_C@_09HJALCCPH@RIGHTDOWN?$AA@
CONST	SEGMENT DWORD USE32 PUBLIC 'CONST'
CONST	ENDS
;	COMDAT ??_C@_05PMAFOJDE@RIGHT?$AA@
CONST	SEGMENT DWORD USE32 PUBLIC 'CONST'
CONST	ENDS
;	COMDAT ??_C@_07LCDAOECB@RIGHTUP?$AA@
CONST	SEGMENT DWORD USE32 PUBLIC 'CONST'
CONST	ENDS
;	COMDAT ??_C@_02NAHCJHOC@UP?$AA@
CONST	SEGMENT DWORD USE32 PUBLIC 'CONST'
CONST	ENDS
;	COMDAT ??_C@_06PNLNCAEA@LEFTUP?$AA@
CONST	SEGMENT DWORD USE32 PUBLIC 'CONST'
CONST	ENDS
;	COMDAT ??_C@_09MNBLBDJB@NO_DOMAIN?$AA@
CONST	SEGMENT DWORD USE32 PUBLIC 'CONST'
CONST	ENDS
;	COMDAT ??_C@_06CGCPEDIN@POISON?$AA@
CONST	SEGMENT DWORD USE32 PUBLIC 'CONST'
CONST	ENDS
;	COMDAT ??_C@_04DOLBLCIG@ACID?$AA@
CONST	SEGMENT DWORD USE32 PUBLIC 'CONST'
CONST	ENDS
;	COMDAT ??_C@_05LFPCIKKF@CURSE?$AA@
CONST	SEGMENT DWORD USE32 PUBLIC 'CONST'
CONST	ENDS
;	COMDAT ??_C@_05LNAKEIOE@BLOOD?$AA@
CONST	SEGMENT DWORD USE32 PUBLIC 'CONST'
CONST	ENDS
;	COMDAT ??_C@_0BB@POEPEIIF@MAGIC_DOMAIN_MAX?$AA@
CONST	SEGMENT DWORD USE32 PUBLIC 'CONST'
CONST	ENDS
;	COMDAT ??_C@_03KLDENHFJ@0x0?$AA@
CONST	SEGMENT DWORD USE32 PUBLIC 'CONST'
CONST	ENDS
;	COMDAT ??_C@_03KJDIBHN@1x1?$AA@
CONST	SEGMENT DWORD USE32 PUBLIC 'CONST'
CONST	ENDS
;	COMDAT ??_C@_03CBLONCLO@1x2?$AA@
CONST	SEGMENT DWORD USE32 PUBLIC 'CONST'
CONST	ENDS
;	COMDAT ??_C@_03DIKFODPP@1x3?$AA@
CONST	SEGMENT DWORD USE32 PUBLIC 'CONST'
CONST	ENDS
;	COMDAT ??_C@_03BICGCOJD@2x1?$AA@
CONST	SEGMENT DWORD USE32 PUBLIC 'CONST'
CONST	ENDS
;	COMDAT ??_C@_03DDALHNFA@2x2?$AA@
CONST	SEGMENT DWORD USE32 PUBLIC 'CONST'
CONST	ENDS
;	COMDAT ??_C@_03CKBAEMBB@2x3?$AA@
CONST	SEGMENT DWORD USE32 PUBLIC 'CONST'
CONST	ENDS
;	COMDAT ??_C@_0O@DFKHEBLJ@WEATHER_CLEAR?$AA@
CONST	SEGMENT DWORD USE32 PUBLIC 'CONST'
CONST	ENDS
;	COMDAT ??_C@_0O@KHMDHFHI@WEATHER_RAINY?$AA@
CONST	SEGMENT DWORD USE32 PUBLIC 'CONST'
CONST	ENDS
;	COMDAT ??_C@_0O@NIFDPGCP@WEATHER_SNOWY?$AA@
CONST	SEGMENT DWORD USE32 PUBLIC 'CONST'
CONST	ENDS
;	COMDAT ??_C@_0N@NHIBGPJH@WEATHER_SPOT?$AA@
CONST	SEGMENT DWORD USE32 PUBLIC 'CONST'
CONST	ENDS
;	COMDAT ??_C@_0O@JJADCPFG@PUBLIC_SCRIPT?$AA@
CONST	SEGMENT DWORD USE32 PUBLIC 'CONST'
CONST	ENDS
;	COMDAT ??_C@_0P@LLOBICJO@PRIVATE_SCRIPT?$AA@
CONST	SEGMENT DWORD USE32 PUBLIC 'CONST'
CONST	ENDS
;	COMDAT ??_C@_09KFONODGE@WAR_GUILD?$AA@
CONST	SEGMENT DWORD USE32 PUBLIC 'CONST'
CONST	ENDS
;	COMDAT ??_C@_08DNMJGMAL@WAR_RACE?$AA@
CONST	SEGMENT DWORD USE32 PUBLIC 'CONST'
CONST	ENDS
;	COMDAT ??_C@_09GALIHCGL@WAR_LEVEL?$AA@
CONST	SEGMENT DWORD USE32 PUBLIC 'CONST'
CONST	ENDS
;	COMDAT ??_C@_09KCKHMJEM@Throwable?$AA@
CONST	SEGMENT DWORD USE32 PUBLIC 'CONST'
CONST	ENDS
;	COMDAT ??_C@_01CLKCMJKC@?5?$AA@
CONST	SEGMENT DWORD USE32 PUBLIC 'CONST'
CONST	ENDS
;	COMDAT ??_C@_03MCPBMLDJ@?5?3?5?$AA@
CONST	SEGMENT DWORD USE32 PUBLIC 'CONST'
CONST	ENDS
;	COMDAT ??_C@_09FBNMMHMJ@Exception?$AA@
CONST	SEGMENT DWORD USE32 PUBLIC 'CONST'
CONST	ENDS
;	COMDAT ??_C@_0M@CBPJAJJI@IOException?$AA@
CONST	SEGMENT DWORD USE32 PUBLIC 'CONST'
CONST	ENDS
;	COMDAT ??_C@_0BH@MIDAMAGI@NonBlockingIOException?$AA@
CONST	SEGMENT DWORD USE32 PUBLIC 'CONST'
CONST	ENDS
;	COMDAT ??_C@_0BH@MEPLOPCA@InterruptedIOException?$AA@
CONST	SEGMENT DWORD USE32 PUBLIC 'CONST'
CONST	ENDS
;	COMDAT ??_C@_0N@GBIKDAKI@EOFException?$AA@
CONST	SEGMENT DWORD USE32 PUBLIC 'CONST'
CONST	ENDS
;	COMDAT ??_C@_0BH@EBMCKLMN@FileNotOpenedException?$AA@
CONST	SEGMENT DWORD USE32 PUBLIC 'CONST'
CONST	ENDS
;	COMDAT ??_C@_0BK@PMBIOEGC@FileAlreadyExistException?$AA@
CONST	SEGMENT DWORD USE32 PUBLIC 'CONST'
CONST	ENDS
;	COMDAT ??_C@_0BG@HLGGGMED@FileNotExistException?$AA@
CONST	SEGMENT DWORD USE32 PUBLIC 'CONST'
CONST	ENDS
;	COMDAT ??_C@_0BB@MLEDAIEI@TimeoutException?$AA@
CONST	SEGMENT DWORD USE32 PUBLIC 'CONST'
CONST	ENDS
;	COMDAT ??_C@_0BA@EOEGOLGE@SocketException?$AA@
CONST	SEGMENT DWORD USE32 PUBLIC 'CONST'
CONST	ENDS
;	COMDAT ??_C@_0O@GLDCGPDO@BindException?$AA@
CONST	SEGMENT DWORD USE32 PUBLIC 'CONST'
CONST	ENDS
;	COMDAT ??_C@_0BB@CICOPLDE@ConnectException?$AA@
CONST	SEGMENT DWORD USE32 PUBLIC 'CONST'
CONST	ENDS
;	COMDAT ??_C@_0BC@KDBIDNIF@ProtocolException?$AA@
CONST	SEGMENT DWORD USE32 PUBLIC 'CONST'
CONST	ENDS
;	COMDAT ??_C@_0O@EOJDHFPC@IdleException?$AA@
CONST	SEGMENT DWORD USE32 PUBLIC 'CONST'
CONST	ENDS
;	COMDAT ??_C@_0BJ@BKELNFKP@InvalidProtocolException?$AA@
CONST	SEGMENT DWORD USE32 PUBLIC 'CONST'
CONST	ENDS
;	COMDAT ??_C@_0BK@MPNKHNEB@InsufficientDataException?$AA@
CONST	SEGMENT DWORD USE32 PUBLIC 'CONST'
CONST	ENDS
;	COMDAT ??_C@_0M@OKDIKPDP@?5?$CI?5lack?5of?5?$AA@
CONST	SEGMENT DWORD USE32 PUBLIC 'CONST'
CONST	ENDS
;	COMDAT ??_C@_09BIPHNNF@?5bytes?5?$CJ?6?$AA@
CONST	SEGMENT DWORD USE32 PUBLIC 'CONST'
CONST	ENDS
;	COMDAT ??_C@_0BE@CNIDKGHK@DisconnectException?$AA@
CONST	SEGMENT DWORD USE32 PUBLIC 'CONST'
CONST	ENDS
;	COMDAT ??_C@_0BG@PFJMMBOB@IgnorePacketException?$AA@
CONST	SEGMENT DWORD USE32 PUBLIC 'CONST'
CONST	ENDS
;	COMDAT ??_C@_0BA@IEBFDCBF@ThreadException?$AA@
CONST	SEGMENT DWORD USE32 PUBLIC 'CONST'
CONST	ENDS
;	COMDAT ??_C@_0P@LDOBMGLN@MutexException?$AA@
CONST	SEGMENT DWORD USE32 PUBLIC 'CONST'
CONST	ENDS
;	COMDAT ??_C@_0BD@IFGHBBEC@MutexAttrException?$AA@
CONST	SEGMENT DWORD USE32 PUBLIC 'CONST'
CONST	ENDS
;	COMDAT ??_C@_0BB@EECEPEJC@CondVarException?$AA@
CONST	SEGMENT DWORD USE32 PUBLIC 'CONST'
CONST	ENDS
;	COMDAT ??_C@_0BD@BJKIBHCP@SemaphoreException?$AA@
CONST	SEGMENT DWORD USE32 PUBLIC 'CONST'
CONST	ENDS
;	COMDAT ??_C@_0N@HCOOCPMJ@SQLException?$AA@
CONST	SEGMENT DWORD USE32 PUBLIC 'CONST'
CONST	ENDS
;	COMDAT ??_C@_0L@CHEFJDPI@SQLWarning?$AA@
CONST	SEGMENT DWORD USE32 PUBLIC 'CONST'
CONST	ENDS
;	COMDAT ??_C@_0BE@LLFPIJON@SQLConnectException?$AA@
CONST	SEGMENT DWORD USE32 PUBLIC 'CONST'
CONST	ENDS
;	COMDAT ??_C@_0BC@OIGEHLLC@SQLQueryException?$AA@
CONST	SEGMENT DWORD USE32 PUBLIC 'CONST'
CONST	ENDS
;	COMDAT ??_C@_0BB@CDLLKKB@RuntimeException?$AA@
CONST	SEGMENT DWORD USE32 PUBLIC 'CONST'
CONST	ENDS
;	COMDAT ??_C@_0BJ@NPEJAJGA@InvalidArgumentException?$AA@
CONST	SEGMENT DWORD USE32 PUBLIC 'CONST'
CONST	ENDS
;	COMDAT ??_C@_0BE@LPPFFNIN@OutOfBoundException?$AA@
CONST	SEGMENT DWORD USE32 PUBLIC 'CONST'
CONST	ENDS
;	COMDAT ??_C@_0BF@ELLOECI@InterruptedException?$AA@
CONST	SEGMENT DWORD USE32 PUBLIC 'CONST'
CONST	ENDS
;	COMDAT ??_C@_0BH@EPEGACME@NoSuchElementException?$AA@
CONST	SEGMENT DWORD USE32 PUBLIC 'CONST'
CONST	ENDS
;	COMDAT ??_C@_0BE@CDFNNCMK@DuplicatedException?$AA@
CONST	SEGMENT DWORD USE32 PUBLIC 'CONST'
CONST	ENDS
;	COMDAT ??_C@_0O@DICNPAO@GameException?$AA@
CONST	SEGMENT DWORD USE32 PUBLIC 'CONST'
CONST	ENDS
;	COMDAT ??_C@_0BA@BIHHOPJC@PortalException?$AA@
CONST	SEGMENT DWORD USE32 PUBLIC 'CONST'
CONST	ENDS
;	COMDAT ??_C@_05NAOIJFC@Error?$AA@
CONST	SEGMENT DWORD USE32 PUBLIC 'CONST'
CONST	ENDS
;	COMDAT ??_C@_09PKFIBPJB@GameError?$AA@
CONST	SEGMENT DWORD USE32 PUBLIC 'CONST'
CONST	ENDS
;	COMDAT ??_C@_0P@ECLAGKMP@AssertionError?$AA@
CONST	SEGMENT DWORD USE32 PUBLIC 'CONST'
CONST	ENDS
;	COMDAT ??_C@_0BB@EOCHEBED@UnsupportedError?$AA@
CONST	SEGMENT DWORD USE32 PUBLIC 'CONST'
CONST	ENDS
;	COMDAT ??_C@_08CFLJAMDA@LogError?$AA@
CONST	SEGMENT DWORD USE32 PUBLIC 'CONST'
CONST	ENDS
;	COMDAT ??_C@_0N@CEGDJBPM@UnknownError?$AA@
CONST	SEGMENT DWORD USE32 PUBLIC 'CONST'
CONST	ENDS
;	COMDAT ??_C@_03NNFDLMCH@?5?$CI?5?$AA@
CONST	SEGMENT DWORD USE32 PUBLIC 'CONST'
CONST	ENDS
;	COMDAT ??_C@_04OHIEGJDI@?5?$CJ?5?6?$AA@
CONST	SEGMENT DWORD USE32 PUBLIC 'CONST'
CONST	ENDS
;	COMDAT ??_C@_0N@GOPDCEEB@basic_string?$AA@
CONST	SEGMENT DWORD USE32 PUBLIC 'CONST'
CONST	ENDS
rdata$r	SEGMENT DWORD USE32 PUBLIC 'CONST'
rdata$r	ENDS
text$yc	SEGMENT PARA USE32 PUBLIC 'CODE'
text$yc	ENDS
CRT$XCA	SEGMENT DWORD USE32 PUBLIC 'DATA'
CRT$XCA	ENDS
CRT$XCU	SEGMENT DWORD USE32 PUBLIC 'DATA'
CRT$XCU	ENDS
CRT$XCL	SEGMENT DWORD USE32 PUBLIC 'DATA'
CRT$XCL	ENDS
CRT$XCC	SEGMENT DWORD USE32 PUBLIC 'DATA'
CRT$XCC	ENDS
CRT$XCZ	SEGMENT DWORD USE32 PUBLIC 'DATA'
CRT$XCZ	ENDS
text$yd	SEGMENT PARA USE32 PUBLIC 'CODE'
text$yd	ENDS
;	COMDAT ??1bad_exception@std@@UAE@XZ
_TEXT	SEGMENT PARA USE32 PUBLIC 'CODE'
_TEXT	ENDS
;	COMDAT ??_Gbad_exception@std@@UAEPAXI@Z
_TEXT	SEGMENT PARA USE32 PUBLIC 'CODE'
_TEXT	ENDS
;	COMDAT ??1bad_alloc@std@@UAE@XZ
_TEXT	SEGMENT PARA USE32 PUBLIC 'CODE'
_TEXT	ENDS
;	COMDAT ??_Gbad_alloc@std@@UAEPAXI@Z
_TEXT	SEGMENT PARA USE32 PUBLIC 'CODE'
_TEXT	ENDS
;	COMDAT ??2@YAPAXIPAX@Z
_TEXT	SEGMENT PARA USE32 PUBLIC 'CODE'
_TEXT	ENDS
;	COMDAT ??3@YAXPAX0@Z
_TEXT	SEGMENT PARA USE32 PUBLIC 'CODE'
_TEXT	ENDS
;	COMDAT ?__stl_new@_STL@@YAPAXI@Z
_TEXT	SEGMENT PARA USE32 PUBLIC 'CODE'
_TEXT	ENDS
;	COMDAT ?__stl_delete@_STL@@YAXPAX@Z
_TEXT	SEGMENT PARA USE32 PUBLIC 'CODE'
_TEXT	ENDS
;	COMDAT ?_M_initialize@_STLP_mutex_base@_STL@@QAEXXZ
_TEXT	SEGMENT PARA USE32 PUBLIC 'CODE'
_TEXT	ENDS
;	COMDAT ?_M_destroy@_STLP_mutex_base@_STL@@QAEXXZ
_TEXT	SEGMENT PARA USE32 PUBLIC 'CODE'
_TEXT	ENDS
;	COMDAT ?_M_acquire_lock@_STLP_mutex_base@_STL@@QAEXXZ
_TEXT	SEGMENT PARA USE32 PUBLIC 'CODE'
_TEXT	ENDS
;	COMDAT ?_M_release_lock@_STLP_mutex_base@_STL@@QAEXXZ
_TEXT	SEGMENT PARA USE32 PUBLIC 'CODE'
_TEXT	ENDS
;	COMDAT ??0_STLP_mutex@_STL@@QAE@XZ
_TEXT	SEGMENT PARA USE32 PUBLIC 'CODE'
_TEXT	ENDS
;	COMDAT ??1_STLP_mutex@_STL@@QAE@XZ
_TEXT	SEGMENT PARA USE32 PUBLIC 'CODE'
_TEXT	ENDS
;	COMDAT ??0_Refcount_Base@_STL@@QAE@J@Z
_TEXT	SEGMENT PARA USE32 PUBLIC 'CODE'
_TEXT	ENDS
;	COMDAT ?_Destroy@_STL@@YAXPAD0@Z
_TEXT	SEGMENT PARA USE32 PUBLIC 'CODE'
_TEXT	ENDS
;	COMDAT ?_Destroy@_STL@@YAXPAG0@Z
_TEXT	SEGMENT PARA USE32 PUBLIC 'CODE'
_TEXT	ENDS
;	COMDAT ?__copy_trivial@_STL@@YAPAXPBX0PAX@Z
_TEXT	SEGMENT PARA USE32 PUBLIC 'CODE'
_TEXT	ENDS
;	COMDAT ?uninitialized_copy@_STL@@YAPADPBD0PAD@Z
_TEXT	SEGMENT PARA USE32 PUBLIC 'CODE'
_TEXT	ENDS
;	COMDAT _wmemchr
_TEXT	SEGMENT PARA USE32 PUBLIC 'CODE'
_TEXT	ENDS
;	COMDAT ?to_char_type@?$char_traits@D@_STL@@SADABH@Z
_TEXT	SEGMENT PARA USE32 PUBLIC 'CODE'
_TEXT	ENDS
;	COMDAT ?to_int_type@?$char_traits@D@_STL@@SAHABD@Z
_TEXT	SEGMENT PARA USE32 PUBLIC 'CODE'
_TEXT	ENDS
;	COMDAT ?length@?$char_traits@D@_STL@@SAIPBD@Z
_TEXT	SEGMENT PARA USE32 PUBLIC 'CODE'
_TEXT	ENDS
;	COMDAT ?assign@?$char_traits@D@_STL@@SAXAADABD@Z
_TEXT	SEGMENT PARA USE32 PUBLIC 'CODE'
_TEXT	ENDS
;	COMDAT ?_M_initialize@subtractive_rng@_STL@@QAEXK@Z
_TEXT	SEGMENT PARA USE32 PUBLIC 'CODE'
_TEXT	ENDS
;	COMDAT ??0facet@locale@_STL@@IAE@I@Z
_TEXT	SEGMENT PARA USE32 PUBLIC 'CODE'
_TEXT	ENDS
;	COMDAT ??_Gfacet@locale@_STL@@MAEPAXI@Z
_TEXT	SEGMENT PARA USE32 PUBLIC 'CODE'
_TEXT	ENDS
;	COMDAT ??_G?$ctype@G@_STL@@MAEPAXI@Z
_TEXT	SEGMENT PARA USE32 PUBLIC 'CODE'
_TEXT	ENDS
;	COMDAT ?__stl_hash_string@_STL@@YAIPBD@Z
_TEXT	SEGMENT PARA USE32 PUBLIC 'CODE'
_TEXT	ENDS
;	COMDAT _IsEqualGUID
_TEXT	SEGMENT PARA USE32 PUBLIC 'CODE'
_TEXT	ENDS
;	COMDAT _==
_TEXT	SEGMENT PARA USE32 PUBLIC 'CODE'
_TEXT	ENDS
;	COMDAT ??0logic_error@_STL@@QAE@ABV?$basic_string@DV?$char_traits@D@_STL@@V?$allocator@D@2@@1@@Z
_TEXT	SEGMENT PARA USE32 PUBLIC 'CODE'
_TEXT	ENDS
;	COMDAT ??_Glogic_error@_STL@@UAEPAXI@Z
_TEXT	SEGMENT PARA USE32 PUBLIC 'CODE'
_TEXT	ENDS
;	COMDAT ??0runtime_error@_STL@@QAE@ABV?$basic_string@DV?$char_traits@D@_STL@@V?$allocator@D@2@@1@@Z
_TEXT	SEGMENT PARA USE32 PUBLIC 'CODE'
_TEXT	ENDS
;	COMDAT ??_Gruntime_error@_STL@@UAEPAXI@Z
_TEXT	SEGMENT PARA USE32 PUBLIC 'CODE'
_TEXT	ENDS
;	COMDAT ??_Gdomain_error@_STL@@UAEPAXI@Z
_TEXT	SEGMENT PARA USE32 PUBLIC 'CODE'
_TEXT	ENDS
;	COMDAT ??_Ginvalid_argument@_STL@@UAEPAXI@Z
_TEXT	SEGMENT PARA USE32 PUBLIC 'CODE'
_TEXT	ENDS
;	COMDAT ??_Glength_error@_STL@@UAEPAXI@Z
_TEXT	SEGMENT PARA USE32 PUBLIC 'CODE'
_TEXT	ENDS
;	COMDAT ??_Gout_of_range@_STL@@UAEPAXI@Z
_TEXT	SEGMENT PARA USE32 PUBLIC 'CODE'
_TEXT	ENDS
;	COMDAT ??_Grange_error@_STL@@UAEPAXI@Z
_TEXT	SEGMENT PARA USE32 PUBLIC 'CODE'
_TEXT	ENDS
;	COMDAT ??_Goverflow_error@_STL@@UAEPAXI@Z
_TEXT	SEGMENT PARA USE32 PUBLIC 'CODE'
_TEXT	ENDS
;	COMDAT ??_Gunderflow_error@_STL@@UAEPAXI@Z
_TEXT	SEGMENT PARA USE32 PUBLIC 'CODE'
_TEXT	ENDS
;	COMDAT ?setf@ios_base@_STL@@QAEHH@Z
_TEXT	SEGMENT PARA USE32 PUBLIC 'CODE'
_TEXT	ENDS
;	COMDAT ?setf@ios_base@_STL@@QAEHHH@Z
_TEXT	SEGMENT PARA USE32 PUBLIC 'CODE'
_TEXT	ENDS
;	COMDAT ?unsetf@ios_base@_STL@@QAEXH@Z
_TEXT	SEGMENT PARA USE32 PUBLIC 'CODE'
_TEXT	ENDS
;	COMDAT ?fail@ios_base@_STL@@QBE_NXZ
_TEXT	SEGMENT PARA USE32 PUBLIC 'CODE'
_TEXT	ENDS
;	COMDAT ??_G?$numpunct@D@_STL@@MAEPAXI@Z
_TEXT	SEGMENT PARA USE32 PUBLIC 'CODE'
_TEXT	ENDS
;	COMDAT ??_G?$numpunct@G@_STL@@MAEPAXI@Z
_TEXT	SEGMENT PARA USE32 PUBLIC 'CODE'
_TEXT	ENDS
;	COMDAT ?_FILE_I_begin@_STL@@YAPADPBU_iobuf@@@Z
_TEXT	SEGMENT PARA USE32 PUBLIC 'CODE'
_TEXT	ENDS
;	COMDAT ?_FILE_I_next@_STL@@YAPADPBU_iobuf@@@Z
_TEXT	SEGMENT PARA USE32 PUBLIC 'CODE'
_TEXT	ENDS
;	COMDAT ?_FILE_I_end@_STL@@YAPADPBU_iobuf@@@Z
_TEXT	SEGMENT PARA USE32 PUBLIC 'CODE'
_TEXT	ENDS
;	COMDAT ?_FILE_I_avail@_STL@@YAHPBU_iobuf@@@Z
_TEXT	SEGMENT PARA USE32 PUBLIC 'CODE'
_TEXT	ENDS
;	COMDAT ?_FILE_I_preincr@_STL@@YAAADPAU_iobuf@@@Z
_TEXT	SEGMENT PARA USE32 PUBLIC 'CODE'
_TEXT	ENDS
;	COMDAT ?_FILE_I_postincr@_STL@@YAAADPAU_iobuf@@@Z
_TEXT	SEGMENT PARA USE32 PUBLIC 'CODE'
_TEXT	ENDS
;	COMDAT ?_FILE_I_predecr@_STL@@YAAADPAU_iobuf@@@Z
_TEXT	SEGMENT PARA USE32 PUBLIC 'CODE'
_TEXT	ENDS
;	COMDAT ?_FILE_I_postdecr@_STL@@YAAADPAU_iobuf@@@Z
_TEXT	SEGMENT PARA USE32 PUBLIC 'CODE'
_TEXT	ENDS
;	COMDAT ?_FILE_I_bump@_STL@@YAXPAU_iobuf@@H@Z
_TEXT	SEGMENT PARA USE32 PUBLIC 'CODE'
_TEXT	ENDS
;	COMDAT ?_FILE_I_set@_STL@@YAXPAU_iobuf@@PAD11@Z
_TEXT	SEGMENT PARA USE32 PUBLIC 'CODE'
_TEXT	ENDS
;	COMDAT ?_FILE_O_begin@_STL@@YAPADPBU_iobuf@@@Z
_TEXT	SEGMENT PARA USE32 PUBLIC 'CODE'
_TEXT	ENDS
;	COMDAT ?_FILE_O_next@_STL@@YAPADPBU_iobuf@@@Z
_TEXT	SEGMENT PARA USE32 PUBLIC 'CODE'
_TEXT	ENDS
;	COMDAT ?_FILE_O_end@_STL@@YAPADPBU_iobuf@@@Z
_TEXT	SEGMENT PARA USE32 PUBLIC 'CODE'
_TEXT	ENDS
;	COMDAT ?_FILE_O_avail@_STL@@YAHPBU_iobuf@@@Z
_TEXT	SEGMENT PARA USE32 PUBLIC 'CODE'
_TEXT	ENDS
;	COMDAT ?_FILE_O_postincr@_STL@@YAAADPAU_iobuf@@@Z
_TEXT	SEGMENT PARA USE32 PUBLIC 'CODE'
_TEXT	ENDS
;	COMDAT ?_FILE_O_bump@_STL@@YAXPAU_iobuf@@H@Z
_TEXT	SEGMENT PARA USE32 PUBLIC 'CODE'
_TEXT	ENDS
;	COMDAT ?_FILE_O_set@_STL@@YAXPAU_iobuf@@PAD11@Z
_TEXT	SEGMENT PARA USE32 PUBLIC 'CODE'
_TEXT	ENDS
;	COMDAT ?eback@?$basic_streambuf@DV?$char_traits@D@_STL@@@_STL@@IBEPADXZ
_TEXT	SEGMENT PARA USE32 PUBLIC 'CODE'
_TEXT	ENDS
;	COMDAT ?gptr@?$basic_streambuf@DV?$char_traits@D@_STL@@@_STL@@IBEPADXZ
_TEXT	SEGMENT PARA USE32 PUBLIC 'CODE'
_TEXT	ENDS
;	COMDAT ?egptr@?$basic_streambuf@DV?$char_traits@D@_STL@@@_STL@@IBEPADXZ
_TEXT	SEGMENT PARA USE32 PUBLIC 'CODE'
_TEXT	ENDS
;	COMDAT ?gbump@?$basic_streambuf@DV?$char_traits@D@_STL@@@_STL@@IAEXH@Z
_TEXT	SEGMENT PARA USE32 PUBLIC 'CODE'
_TEXT	ENDS
;	COMDAT ?setg@?$basic_streambuf@DV?$char_traits@D@_STL@@@_STL@@IAEXPAD00@Z
_TEXT	SEGMENT PARA USE32 PUBLIC 'CODE'
_TEXT	ENDS
;	COMDAT ?pptr@?$basic_streambuf@DV?$char_traits@D@_STL@@@_STL@@IBEPADXZ
_TEXT	SEGMENT PARA USE32 PUBLIC 'CODE'
_TEXT	ENDS
;	COMDAT ?setp@?$basic_streambuf@DV?$char_traits@D@_STL@@@_STL@@IAEXPAD0@Z
_TEXT	SEGMENT PARA USE32 PUBLIC 'CODE'
_TEXT	ENDS
;	COMDAT ?sbumpc@?$basic_streambuf@DV?$char_traits@D@_STL@@@_STL@@QAEHXZ
_TEXT	SEGMENT PARA USE32 PUBLIC 'CODE'
_TEXT	ENDS
;	COMDAT ??_G?$basic_streambuf@DV?$char_traits@D@_STL@@@_STL@@UAEPAXI@Z
_TEXT	SEGMENT PARA USE32 PUBLIC 'CODE'
_TEXT	ENDS
;	COMDAT _$E1
text$yc	SEGMENT PARA USE32 PUBLIC 'CODE'
text$yc	ENDS
;	COMDAT _$E2
text$yd	SEGMENT PARA USE32 PUBLIC 'CODE'
text$yd	ENDS
;	COMDAT _$E4
text$yc	SEGMENT PARA USE32 PUBLIC 'CODE'
text$yc	ENDS
;	COMDAT _$E5
text$yd	SEGMENT PARA USE32 PUBLIC 'CODE'
text$yd	ENDS
;	COMDAT ?out@?$codecvt@DDH@_STL@@QBE?AW4result@codecvt_base@2@AAHPBD1AAPBDPAD3AAPAD@Z
_TEXT	SEGMENT PARA USE32 PUBLIC 'CODE'
_TEXT	ENDS
;	COMDAT ?unshift@?$codecvt@DDH@_STL@@QBE?AW4result@codecvt_base@2@AAHPAD1AAPAD@Z
_TEXT	SEGMENT PARA USE32 PUBLIC 'CODE'
_TEXT	ENDS
;	COMDAT ?in@?$codecvt@DDH@_STL@@QBE?AW4result@codecvt_base@2@AAHPBD1AAPBDPAD3AAPAD@Z
_TEXT	SEGMENT PARA USE32 PUBLIC 'CODE'
_TEXT	ENDS
;	COMDAT ?encoding@?$codecvt@DDH@_STL@@QBEHXZ
_TEXT	SEGMENT PARA USE32 PUBLIC 'CODE'
_TEXT	ENDS
;	COMDAT ?always_noconv@?$codecvt@DDH@_STL@@QBE_NXZ
_TEXT	SEGMENT PARA USE32 PUBLIC 'CODE'
_TEXT	ENDS
;	COMDAT ?length@?$codecvt@DDH@_STL@@QBEHABHPBD1I@Z
_TEXT	SEGMENT PARA USE32 PUBLIC 'CODE'
_TEXT	ENDS
;	COMDAT ?max_length@?$codecvt@DDH@_STL@@QBEHXZ
_TEXT	SEGMENT PARA USE32 PUBLIC 'CODE'
_TEXT	ENDS
;	COMDAT ??_G?$codecvt@DDH@_STL@@MAEPAXI@Z
_TEXT	SEGMENT PARA USE32 PUBLIC 'CODE'
_TEXT	ENDS
;	COMDAT ??_G?$codecvt@GDH@_STL@@MAEPAXI@Z
_TEXT	SEGMENT PARA USE32 PUBLIC 'CODE'
_TEXT	ENDS
;	COMDAT ?_M_get_offset@_Filebuf_base@_STL@@QAEJPAD0@Z
_TEXT	SEGMENT PARA USE32 PUBLIC 'CODE'
_TEXT	ENDS
;	COMDAT ?_M_in_binary_mode@_Filebuf_base@_STL@@QBE_NXZ
_TEXT	SEGMENT PARA USE32 PUBLIC 'CODE'
_TEXT	ENDS
;	COMDAT ?__page_size@_Filebuf_base@_STL@@SAIXZ
_TEXT	SEGMENT PARA USE32 PUBLIC 'CODE'
_TEXT	ENDS
;	COMDAT ?__o_mode@_Filebuf_base@_STL@@QBEHXZ
_TEXT	SEGMENT PARA USE32 PUBLIC 'CODE'
_TEXT	ENDS
;	COMDAT ?__is_open@_Filebuf_base@_STL@@QBE_NXZ
_TEXT	SEGMENT PARA USE32 PUBLIC 'CODE'
_TEXT	ENDS
;	COMDAT ?_M_doit@?$_Noconv_output@V?$char_traits@D@_STL@@@_STL@@SA_NPAV?$basic_filebuf@DV?$char_traits@D@_STL@@@2@PAD1@Z
_TEXT	SEGMENT PARA USE32 PUBLIC 'CODE'
_TEXT	ENDS
;	COMDAT _$E7
text$yc	SEGMENT PARA USE32 PUBLIC 'CODE'
text$yc	ENDS
;	COMDAT _$E8
text$yd	SEGMENT PARA USE32 PUBLIC 'CODE'
text$yd	ENDS
;	COMDAT _$E10
text$yc	SEGMENT PARA USE32 PUBLIC 'CODE'
text$yc	ENDS
;	COMDAT _$E11
text$yd	SEGMENT PARA USE32 PUBLIC 'CODE'
text$yd	ENDS
;	COMDAT _$E13
text$yc	SEGMENT PARA USE32 PUBLIC 'CODE'
text$yc	ENDS
;	COMDAT _$E14
text$yd	SEGMENT PARA USE32 PUBLIC 'CODE'
text$yd	ENDS
;	COMDAT _$E16
text$yc	SEGMENT PARA USE32 PUBLIC 'CODE'
text$yc	ENDS
;	COMDAT _$E17
text$yd	SEGMENT PARA USE32 PUBLIC 'CODE'
text$yd	ENDS
;	COMDAT _$E19
text$yc	SEGMENT PARA USE32 PUBLIC 'CODE'
text$yc	ENDS
;	COMDAT _$E20
text$yd	SEGMENT PARA USE32 PUBLIC 'CODE'
text$yd	ENDS
;	COMDAT _$E22
text$yc	SEGMENT PARA USE32 PUBLIC 'CODE'
text$yc	ENDS
;	COMDAT _$E23
text$yd	SEGMENT PARA USE32 PUBLIC 'CODE'
text$yd	ENDS
;	COMDAT _$E25
text$yc	SEGMENT PARA USE32 PUBLIC 'CODE'
text$yc	ENDS
;	COMDAT _$E26
text$yd	SEGMENT PARA USE32 PUBLIC 'CODE'
text$yd	ENDS
;	COMDAT _$E28
text$yc	SEGMENT PARA USE32 PUBLIC 'CODE'
text$yc	ENDS
;	COMDAT _$E29
text$yd	SEGMENT PARA USE32 PUBLIC 'CODE'
text$yd	ENDS
;	COMDAT _$E31
text$yc	SEGMENT PARA USE32 PUBLIC 'CODE'
text$yc	ENDS
;	COMDAT _$E32
text$yd	SEGMENT PARA USE32 PUBLIC 'CODE'
text$yd	ENDS
;	COMDAT _$E34
text$yc	SEGMENT PARA USE32 PUBLIC 'CODE'
text$yc	ENDS
;	COMDAT _$E35
text$yd	SEGMENT PARA USE32 PUBLIC 'CODE'
text$yd	ENDS
;	COMDAT _$E37
text$yc	SEGMENT PARA USE32 PUBLIC 'CODE'
text$yc	ENDS
;	COMDAT _$E38
text$yd	SEGMENT PARA USE32 PUBLIC 'CODE'
text$yd	ENDS
;	COMDAT _$E40
text$yc	SEGMENT PARA USE32 PUBLIC 'CODE'
text$yc	ENDS
;	COMDAT _$E41
text$yd	SEGMENT PARA USE32 PUBLIC 'CODE'
text$yd	ENDS
;	COMDAT _$E43
text$yc	SEGMENT PARA USE32 PUBLIC 'CODE'
text$yc	ENDS
;	COMDAT _$E44
text$yd	SEGMENT PARA USE32 PUBLIC 'CODE'
text$yd	ENDS
;	COMDAT _$E46
text$yc	SEGMENT PARA USE32 PUBLIC 'CODE'
text$yc	ENDS
;	COMDAT _$E47
text$yd	SEGMENT PARA USE32 PUBLIC 'CODE'
text$yd	ENDS
;	COMDAT _$E49
text$yc	SEGMENT PARA USE32 PUBLIC 'CODE'
text$yc	ENDS
;	COMDAT _$E50
text$yd	SEGMENT PARA USE32 PUBLIC 'CODE'
text$yd	ENDS
;	COMDAT _$E52
text$yc	SEGMENT PARA USE32 PUBLIC 'CODE'
text$yc	ENDS
;	COMDAT _$E53
text$yd	SEGMENT PARA USE32 PUBLIC 'CODE'
text$yd	ENDS
;	COMDAT _$E55
text$yc	SEGMENT PARA USE32 PUBLIC 'CODE'
text$yc	ENDS
;	COMDAT _$E56
text$yd	SEGMENT PARA USE32 PUBLIC 'CODE'
text$yd	ENDS
;	COMDAT _$E58
text$yc	SEGMENT PARA USE32 PUBLIC 'CODE'
text$yc	ENDS
;	COMDAT _$E59
text$yd	SEGMENT PARA USE32 PUBLIC 'CODE'
text$yd	ENDS
;	COMDAT _$E61
text$yc	SEGMENT PARA USE32 PUBLIC 'CODE'
text$yc	ENDS
;	COMDAT _$E62
text$yd	SEGMENT PARA USE32 PUBLIC 'CODE'
text$yd	ENDS
;	COMDAT _$E64
text$yc	SEGMENT PARA USE32 PUBLIC 'CODE'
text$yc	ENDS
;	COMDAT _$E65
text$yd	SEGMENT PARA USE32 PUBLIC 'CODE'
text$yd	ENDS
;	COMDAT _$E67
text$yc	SEGMENT PARA USE32 PUBLIC 'CODE'
text$yc	ENDS
;	COMDAT _$E68
text$yd	SEGMENT PARA USE32 PUBLIC 'CODE'
text$yd	ENDS
;	COMDAT _$E70
text$yc	SEGMENT PARA USE32 PUBLIC 'CODE'
text$yc	ENDS
;	COMDAT _$E71
text$yd	SEGMENT PARA USE32 PUBLIC 'CODE'
text$yd	ENDS
;	COMDAT _$E73
text$yc	SEGMENT PARA USE32 PUBLIC 'CODE'
text$yc	ENDS
;	COMDAT _$E74
text$yd	SEGMENT PARA USE32 PUBLIC 'CODE'
text$yd	ENDS
;	COMDAT _$E76
text$yc	SEGMENT PARA USE32 PUBLIC 'CODE'
text$yc	ENDS
;	COMDAT _$E77
text$yd	SEGMENT PARA USE32 PUBLIC 'CODE'
text$yd	ENDS
;	COMDAT ??0_List_iterator_base@_STL@@QAE@PAU_List_node_base@1@@Z
_TEXT	SEGMENT PARA USE32 PUBLIC 'CODE'
_TEXT	ENDS
;	COMDAT ?_M_incr@_List_iterator_base@_STL@@QAEXXZ
_TEXT	SEGMENT PARA USE32 PUBLIC 'CODE'
_TEXT	ENDS
;	COMDAT ??9_List_iterator_base@_STL@@QBE_NABU01@@Z
_TEXT	SEGMENT PARA USE32 PUBLIC 'CODE'
_TEXT	ENDS
;	COMDAT ??0Throwable@@QAE@XZ
_TEXT	SEGMENT PARA USE32 PUBLIC 'CODE'
_TEXT	ENDS
;	COMDAT ??0Throwable@@QAE@V?$basic_string@DV?$char_traits@D@_STL@@V?$allocator@D@2@@_STL@@@Z
_TEXT	SEGMENT PARA USE32 PUBLIC 'CODE'
_TEXT	ENDS
;	COMDAT ??1Throwable@@UAE@XZ
_TEXT	SEGMENT PARA USE32 PUBLIC 'CODE'
_TEXT	ENDS
;	COMDAT ?getName@Throwable@@UBE?AV?$basic_string@DV?$char_traits@D@_STL@@V?$allocator@D@2@@_STL@@XZ
_TEXT	SEGMENT PARA USE32 PUBLIC 'CODE'
_TEXT	ENDS
;	COMDAT ?getStackTrace@Throwable@@QBE?AV?$basic_string@DV?$char_traits@D@_STL@@V?$allocator@D@2@@_STL@@XZ
_TEXT	SEGMENT PARA USE32 PUBLIC 'CODE'
_TEXT	ENDS
;	COMDAT ?getMessage@Throwable@@QBE?AV?$basic_string@DV?$char_traits@D@_STL@@V?$allocator@D@2@@_STL@@XZ
_TEXT	SEGMENT PARA USE32 PUBLIC 'CODE'
_TEXT	ENDS
;	COMDAT ?toString@Throwable@@UBE?AV?$basic_string@DV?$char_traits@D@_STL@@V?$allocator@D@2@@_STL@@XZ
_TEXT	SEGMENT PARA USE32 PUBLIC 'CODE'
_TEXT	ENDS
;	COMDAT ??_GThrowable@@UAEPAXI@Z
_TEXT	SEGMENT PARA USE32 PUBLIC 'CODE'
_TEXT	ENDS
;	COMDAT ??0Exception@@QAE@XZ
_TEXT	SEGMENT PARA USE32 PUBLIC 'CODE'
_TEXT	ENDS
;	COMDAT ??0Exception@@QAE@V?$basic_string@DV?$char_traits@D@_STL@@V?$allocator@D@2@@_STL@@@Z
_TEXT	SEGMENT PARA USE32 PUBLIC 'CODE'
_TEXT	ENDS
;	COMDAT ?getName@Exception@@UBE?AV?$basic_string@DV?$char_traits@D@_STL@@V?$allocator@D@2@@_STL@@XZ
_TEXT	SEGMENT PARA USE32 PUBLIC 'CODE'
_TEXT	ENDS
;	COMDAT ??_GException@@UAEPAXI@Z
_TEXT	SEGMENT PARA USE32 PUBLIC 'CODE'
_TEXT	ENDS
;	COMDAT ??1Exception@@UAE@XZ
_TEXT	SEGMENT PARA USE32 PUBLIC 'CODE'
_TEXT	ENDS
;	COMDAT ??0IOException@@QAE@XZ
_TEXT	SEGMENT PARA USE32 PUBLIC 'CODE'
_TEXT	ENDS
;	COMDAT ??0IOException@@QAE@V?$basic_string@DV?$char_traits@D@_STL@@V?$allocator@D@2@@_STL@@@Z
_TEXT	SEGMENT PARA USE32 PUBLIC 'CODE'
_TEXT	ENDS
;	COMDAT ?getName@IOException@@UBE?AV?$basic_string@DV?$char_traits@D@_STL@@V?$allocator@D@2@@_STL@@XZ
_TEXT	SEGMENT PARA USE32 PUBLIC 'CODE'
_TEXT	ENDS
;	COMDAT ??_GIOException@@UAEPAXI@Z
_TEXT	SEGMENT PARA USE32 PUBLIC 'CODE'
_TEXT	ENDS
;	COMDAT ??1IOException@@UAE@XZ
_TEXT	SEGMENT PARA USE32 PUBLIC 'CODE'
_TEXT	ENDS
;	COMDAT ?getName@NonBlockingIOException@@UBE?AV?$basic_string@DV?$char_traits@D@_STL@@V?$allocator@D@2@@_STL@@XZ
_TEXT	SEGMENT PARA USE32 PUBLIC 'CODE'
_TEXT	ENDS
;	COMDAT ??_GNonBlockingIOException@@UAEPAXI@Z
_TEXT	SEGMENT PARA USE32 PUBLIC 'CODE'
_TEXT	ENDS
;	COMDAT ??1NonBlockingIOException@@UAE@XZ
_TEXT	SEGMENT PARA USE32 PUBLIC 'CODE'
_TEXT	ENDS
;	COMDAT ?getName@InterruptedIOException@@UBE?AV?$basic_string@DV?$char_traits@D@_STL@@V?$allocator@D@2@@_STL@@XZ
_TEXT	SEGMENT PARA USE32 PUBLIC 'CODE'
_TEXT	ENDS
;	COMDAT ??_GInterruptedIOException@@UAEPAXI@Z
_TEXT	SEGMENT PARA USE32 PUBLIC 'CODE'
_TEXT	ENDS
;	COMDAT ??1InterruptedIOException@@UAE@XZ
_TEXT	SEGMENT PARA USE32 PUBLIC 'CODE'
_TEXT	ENDS
;	COMDAT ?getName@EOFException@@UBE?AV?$basic_string@DV?$char_traits@D@_STL@@V?$allocator@D@2@@_STL@@XZ
_TEXT	SEGMENT PARA USE32 PUBLIC 'CODE'
_TEXT	ENDS
;	COMDAT ??_GEOFException@@UAEPAXI@Z
_TEXT	SEGMENT PARA USE32 PUBLIC 'CODE'
_TEXT	ENDS
;	COMDAT ??1EOFException@@UAE@XZ
_TEXT	SEGMENT PARA USE32 PUBLIC 'CODE'
_TEXT	ENDS
;	COMDAT ?getName@FileNotOpenedException@@UBE?AV?$basic_string@DV?$char_traits@D@_STL@@V?$allocator@D@2@@_STL@@XZ
_TEXT	SEGMENT PARA USE32 PUBLIC 'CODE'
_TEXT	ENDS
;	COMDAT ??_GFileNotOpenedException@@UAEPAXI@Z
_TEXT	SEGMENT PARA USE32 PUBLIC 'CODE'
_TEXT	ENDS
;	COMDAT ??1FileNotOpenedException@@UAE@XZ
_TEXT	SEGMENT PARA USE32 PUBLIC 'CODE'
_TEXT	ENDS
;	COMDAT ?getName@FileAlreadyExistException@@UBE?AV?$basic_string@DV?$char_traits@D@_STL@@V?$allocator@D@2@@_STL@@XZ
_TEXT	SEGMENT PARA USE32 PUBLIC 'CODE'
_TEXT	ENDS
;	COMDAT ??_GFileAlreadyExistException@@UAEPAXI@Z
_TEXT	SEGMENT PARA USE32 PUBLIC 'CODE'
_TEXT	ENDS
;	COMDAT ??1FileAlreadyExistException@@UAE@XZ
_TEXT	SEGMENT PARA USE32 PUBLIC 'CODE'
_TEXT	ENDS
;	COMDAT ?getName@FileNotExistException@@UBE?AV?$basic_string@DV?$char_traits@D@_STL@@V?$allocator@D@2@@_STL@@XZ
_TEXT	SEGMENT PARA USE32 PUBLIC 'CODE'
_TEXT	ENDS
;	COMDAT ??_GFileNotExistException@@UAEPAXI@Z
_TEXT	SEGMENT PARA USE32 PUBLIC 'CODE'
_TEXT	ENDS
;	COMDAT ??1FileNotExistException@@UAE@XZ
_TEXT	SEGMENT PARA USE32 PUBLIC 'CODE'
_TEXT	ENDS
;	COMDAT ?getName@TimeoutException@@UBE?AV?$basic_string@DV?$char_traits@D@_STL@@V?$allocator@D@2@@_STL@@XZ
_TEXT	SEGMENT PARA USE32 PUBLIC 'CODE'
_TEXT	ENDS
;	COMDAT ??_GTimeoutException@@UAEPAXI@Z
_TEXT	SEGMENT PARA USE32 PUBLIC 'CODE'
_TEXT	ENDS
;	COMDAT ??1TimeoutException@@UAE@XZ
_TEXT	SEGMENT PARA USE32 PUBLIC 'CODE'
_TEXT	ENDS
;	COMDAT ??0SocketException@@QAE@XZ
_TEXT	SEGMENT PARA USE32 PUBLIC 'CODE'
_TEXT	ENDS
;	COMDAT ??0SocketException@@QAE@V?$basic_string@DV?$char_traits@D@_STL@@V?$allocator@D@2@@_STL@@@Z
_TEXT	SEGMENT PARA USE32 PUBLIC 'CODE'
_TEXT	ENDS
;	COMDAT ?getName@SocketException@@UBE?AV?$basic_string@DV?$char_traits@D@_STL@@V?$allocator@D@2@@_STL@@XZ
_TEXT	SEGMENT PARA USE32 PUBLIC 'CODE'
_TEXT	ENDS
;	COMDAT ??_GSocketException@@UAEPAXI@Z
_TEXT	SEGMENT PARA USE32 PUBLIC 'CODE'
_TEXT	ENDS
;	COMDAT ??1SocketException@@UAE@XZ
_TEXT	SEGMENT PARA USE32 PUBLIC 'CODE'
_TEXT	ENDS
;	COMDAT ?getName@BindException@@UBE?AV?$basic_string@DV?$char_traits@D@_STL@@V?$allocator@D@2@@_STL@@XZ
_TEXT	SEGMENT PARA USE32 PUBLIC 'CODE'
_TEXT	ENDS
;	COMDAT ??_GBindException@@UAEPAXI@Z
_TEXT	SEGMENT PARA USE32 PUBLIC 'CODE'
_TEXT	ENDS
;	COMDAT ??1BindException@@UAE@XZ
_TEXT	SEGMENT PARA USE32 PUBLIC 'CODE'
_TEXT	ENDS
;	COMDAT ?getName@ConnectException@@UBE?AV?$basic_string@DV?$char_traits@D@_STL@@V?$allocator@D@2@@_STL@@XZ
_TEXT	SEGMENT PARA USE32 PUBLIC 'CODE'
_TEXT	ENDS
;	COMDAT ??_GConnectException@@UAEPAXI@Z
_TEXT	SEGMENT PARA USE32 PUBLIC 'CODE'
_TEXT	ENDS
;	COMDAT ??1ConnectException@@UAE@XZ
_TEXT	SEGMENT PARA USE32 PUBLIC 'CODE'
_TEXT	ENDS
;	COMDAT ??0ProtocolException@@QAE@XZ
_TEXT	SEGMENT PARA USE32 PUBLIC 'CODE'
_TEXT	ENDS
;	COMDAT ??0ProtocolException@@QAE@V?$basic_string@DV?$char_traits@D@_STL@@V?$allocator@D@2@@_STL@@@Z
_TEXT	SEGMENT PARA USE32 PUBLIC 'CODE'
_TEXT	ENDS
;	COMDAT ?getName@ProtocolException@@UBE?AV?$basic_string@DV?$char_traits@D@_STL@@V?$allocator@D@2@@_STL@@XZ
_TEXT	SEGMENT PARA USE32 PUBLIC 'CODE'
_TEXT	ENDS
;	COMDAT ??_GProtocolException@@UAEPAXI@Z
_TEXT	SEGMENT PARA USE32 PUBLIC 'CODE'
_TEXT	ENDS
;	COMDAT ??1ProtocolException@@UAE@XZ
_TEXT	SEGMENT PARA USE32 PUBLIC 'CODE'
_TEXT	ENDS
;	COMDAT ?getName@IdleException@@UBE?AV?$basic_string@DV?$char_traits@D@_STL@@V?$allocator@D@2@@_STL@@XZ
_TEXT	SEGMENT PARA USE32 PUBLIC 'CODE'
_TEXT	ENDS
;	COMDAT ??_GIdleException@@UAEPAXI@Z
_TEXT	SEGMENT PARA USE32 PUBLIC 'CODE'
_TEXT	ENDS
;	COMDAT ??1IdleException@@UAE@XZ
_TEXT	SEGMENT PARA USE32 PUBLIC 'CODE'
_TEXT	ENDS
;	COMDAT ?getName@InvalidProtocolException@@UBE?AV?$basic_string@DV?$char_traits@D@_STL@@V?$allocator@D@2@@_STL@@XZ
_TEXT	SEGMENT PARA USE32 PUBLIC 'CODE'
_TEXT	ENDS
;	COMDAT ??_GInvalidProtocolException@@UAEPAXI@Z
_TEXT	SEGMENT PARA USE32 PUBLIC 'CODE'
_TEXT	ENDS
;	COMDAT ??1InvalidProtocolException@@UAE@XZ
_TEXT	SEGMENT PARA USE32 PUBLIC 'CODE'
_TEXT	ENDS
;	COMDAT ?getName@InsufficientDataException@@UBE?AV?$basic_string@DV?$char_traits@D@_STL@@V?$allocator@D@2@@_STL@@XZ
_TEXT	SEGMENT PARA USE32 PUBLIC 'CODE'
_TEXT	ENDS
;	COMDAT ?toString@InsufficientDataException@@UBE?AV?$basic_string@DV?$char_traits@D@_STL@@V?$allocator@D@2@@_STL@@XZ
_TEXT	SEGMENT PARA USE32 PUBLIC 'CODE'
_TEXT	ENDS
;	COMDAT ??_GInsufficientDataException@@UAEPAXI@Z
_TEXT	SEGMENT PARA USE32 PUBLIC 'CODE'
_TEXT	ENDS
;	COMDAT ??1InsufficientDataException@@UAE@XZ
_TEXT	SEGMENT PARA USE32 PUBLIC 'CODE'
_TEXT	ENDS
;	COMDAT ?getName@DisconnectException@@UBE?AV?$basic_string@DV?$char_traits@D@_STL@@V?$allocator@D@2@@_STL@@XZ
_TEXT	SEGMENT PARA USE32 PUBLIC 'CODE'
_TEXT	ENDS
;	COMDAT ??_GDisconnectException@@UAEPAXI@Z
_TEXT	SEGMENT PARA USE32 PUBLIC 'CODE'
_TEXT	ENDS
;	COMDAT ??1DisconnectException@@UAE@XZ
_TEXT	SEGMENT PARA USE32 PUBLIC 'CODE'
_TEXT	ENDS
;	COMDAT ?getName@IgnorePacketException@@UBE?AV?$basic_string@DV?$char_traits@D@_STL@@V?$allocator@D@2@@_STL@@XZ
_TEXT	SEGMENT PARA USE32 PUBLIC 'CODE'
_TEXT	ENDS
;	COMDAT ??_GIgnorePacketException@@UAEPAXI@Z
_TEXT	SEGMENT PARA USE32 PUBLIC 'CODE'
_TEXT	ENDS
;	COMDAT ??1IgnorePacketException@@UAE@XZ
_TEXT	SEGMENT PARA USE32 PUBLIC 'CODE'
_TEXT	ENDS
;	COMDAT ??0ThreadException@@QAE@XZ
_TEXT	SEGMENT PARA USE32 PUBLIC 'CODE'
_TEXT	ENDS
;	COMDAT ??0ThreadException@@QAE@V?$basic_string@DV?$char_traits@D@_STL@@V?$allocator@D@2@@_STL@@@Z
_TEXT	SEGMENT PARA USE32 PUBLIC 'CODE'
_TEXT	ENDS
;	COMDAT ?getName@ThreadException@@UBE?AV?$basic_string@DV?$char_traits@D@_STL@@V?$allocator@D@2@@_STL@@XZ
_TEXT	SEGMENT PARA USE32 PUBLIC 'CODE'
_TEXT	ENDS
;	COMDAT ??_GThreadException@@UAEPAXI@Z
_TEXT	SEGMENT PARA USE32 PUBLIC 'CODE'
_TEXT	ENDS
;	COMDAT ??1ThreadException@@UAE@XZ
_TEXT	SEGMENT PARA USE32 PUBLIC 'CODE'
_TEXT	ENDS
;	COMDAT ??0MutexException@@QAE@XZ
_TEXT	SEGMENT PARA USE32 PUBLIC 'CODE'
_TEXT	ENDS
;	COMDAT ??0MutexException@@QAE@V?$basic_string@DV?$char_traits@D@_STL@@V?$allocator@D@2@@_STL@@@Z
_TEXT	SEGMENT PARA USE32 PUBLIC 'CODE'
_TEXT	ENDS
;	COMDAT ?getName@MutexException@@UBE?AV?$basic_string@DV?$char_traits@D@_STL@@V?$allocator@D@2@@_STL@@XZ
_TEXT	SEGMENT PARA USE32 PUBLIC 'CODE'
_TEXT	ENDS
;	COMDAT ??_GMutexException@@UAEPAXI@Z
_TEXT	SEGMENT PARA USE32 PUBLIC 'CODE'
_TEXT	ENDS
;	COMDAT ??1MutexException@@UAE@XZ
_TEXT	SEGMENT PARA USE32 PUBLIC 'CODE'
_TEXT	ENDS
;	COMDAT ?getName@MutexAttrException@@UBE?AV?$basic_string@DV?$char_traits@D@_STL@@V?$allocator@D@2@@_STL@@XZ
_TEXT	SEGMENT PARA USE32 PUBLIC 'CODE'
_TEXT	ENDS
;	COMDAT ??_GMutexAttrException@@UAEPAXI@Z
_TEXT	SEGMENT PARA USE32 PUBLIC 'CODE'
_TEXT	ENDS
;	COMDAT ??1MutexAttrException@@UAE@XZ
_TEXT	SEGMENT PARA USE32 PUBLIC 'CODE'
_TEXT	ENDS
;	COMDAT ?getName@CondVarException@@UBE?AV?$basic_string@DV?$char_traits@D@_STL@@V?$allocator@D@2@@_STL@@XZ
_TEXT	SEGMENT PARA USE32 PUBLIC 'CODE'
_TEXT	ENDS
;	COMDAT ??_GCondVarException@@UAEPAXI@Z
_TEXT	SEGMENT PARA USE32 PUBLIC 'CODE'
_TEXT	ENDS
;	COMDAT ??1CondVarException@@UAE@XZ
_TEXT	SEGMENT PARA USE32 PUBLIC 'CODE'
_TEXT	ENDS
;	COMDAT ?getName@SemaphoreException@@UBE?AV?$basic_string@DV?$char_traits@D@_STL@@V?$allocator@D@2@@_STL@@XZ
_TEXT	SEGMENT PARA USE32 PUBLIC 'CODE'
_TEXT	ENDS
;	COMDAT ??_GSemaphoreException@@UAEPAXI@Z
_TEXT	SEGMENT PARA USE32 PUBLIC 'CODE'
_TEXT	ENDS
;	COMDAT ??1SemaphoreException@@UAE@XZ
_TEXT	SEGMENT PARA USE32 PUBLIC 'CODE'
_TEXT	ENDS
;	COMDAT ??0SQLException@@QAE@XZ
_TEXT	SEGMENT PARA USE32 PUBLIC 'CODE'
_TEXT	ENDS
;	COMDAT ??0SQLException@@QAE@V?$basic_string@DV?$char_traits@D@_STL@@V?$allocator@D@2@@_STL@@@Z
_TEXT	SEGMENT PARA USE32 PUBLIC 'CODE'
_TEXT	ENDS
;	COMDAT ?getName@SQLException@@UBE?AV?$basic_string@DV?$char_traits@D@_STL@@V?$allocator@D@2@@_STL@@XZ
_TEXT	SEGMENT PARA USE32 PUBLIC 'CODE'
_TEXT	ENDS
;	COMDAT ??_GSQLException@@UAEPAXI@Z
_TEXT	SEGMENT PARA USE32 PUBLIC 'CODE'
_TEXT	ENDS
;	COMDAT ??1SQLException@@UAE@XZ
_TEXT	SEGMENT PARA USE32 PUBLIC 'CODE'
_TEXT	ENDS
;	COMDAT ?getName@SQLWarning@@UBE?AV?$basic_string@DV?$char_traits@D@_STL@@V?$allocator@D@2@@_STL@@XZ
_TEXT	SEGMENT PARA USE32 PUBLIC 'CODE'
_TEXT	ENDS
;	COMDAT ??_GSQLWarning@@UAEPAXI@Z
_TEXT	SEGMENT PARA USE32 PUBLIC 'CODE'
_TEXT	ENDS
;	COMDAT ??1SQLWarning@@UAE@XZ
_TEXT	SEGMENT PARA USE32 PUBLIC 'CODE'
_TEXT	ENDS
;	COMDAT ?getName@SQLConnectException@@UBE?AV?$basic_string@DV?$char_traits@D@_STL@@V?$allocator@D@2@@_STL@@XZ
_TEXT	SEGMENT PARA USE32 PUBLIC 'CODE'
_TEXT	ENDS
;	COMDAT ??_GSQLConnectException@@UAEPAXI@Z
_TEXT	SEGMENT PARA USE32 PUBLIC 'CODE'
_TEXT	ENDS
;	COMDAT ??1SQLConnectException@@UAE@XZ
_TEXT	SEGMENT PARA USE32 PUBLIC 'CODE'
_TEXT	ENDS
;	COMDAT ?getName@SQLQueryException@@UBE?AV?$basic_string@DV?$char_traits@D@_STL@@V?$allocator@D@2@@_STL@@XZ
_TEXT	SEGMENT PARA USE32 PUBLIC 'CODE'
_TEXT	ENDS
;	COMDAT ??_GSQLQueryException@@UAEPAXI@Z
_TEXT	SEGMENT PARA USE32 PUBLIC 'CODE'
_TEXT	ENDS
;	COMDAT ??1SQLQueryException@@UAE@XZ
_TEXT	SEGMENT PARA USE32 PUBLIC 'CODE'
_TEXT	ENDS
;	COMDAT ??0RuntimeException@@QAE@XZ
_TEXT	SEGMENT PARA USE32 PUBLIC 'CODE'
_TEXT	ENDS
;	COMDAT ??0RuntimeException@@QAE@V?$basic_string@DV?$char_traits@D@_STL@@V?$allocator@D@2@@_STL@@@Z
_TEXT	SEGMENT PARA USE32 PUBLIC 'CODE'
_TEXT	ENDS
;	COMDAT ?getName@RuntimeException@@UBE?AV?$basic_string@DV?$char_traits@D@_STL@@V?$allocator@D@2@@_STL@@XZ
_TEXT	SEGMENT PARA USE32 PUBLIC 'CODE'
_TEXT	ENDS
;	COMDAT ??_GRuntimeException@@UAEPAXI@Z
_TEXT	SEGMENT PARA USE32 PUBLIC 'CODE'
_TEXT	ENDS
;	COMDAT ??1RuntimeException@@UAE@XZ
_TEXT	SEGMENT PARA USE32 PUBLIC 'CODE'
_TEXT	ENDS
;	COMDAT ?getName@InvalidArgumentException@@UBE?AV?$basic_string@DV?$char_traits@D@_STL@@V?$allocator@D@2@@_STL@@XZ
_TEXT	SEGMENT PARA USE32 PUBLIC 'CODE'
_TEXT	ENDS
;	COMDAT ??_GInvalidArgumentException@@UAEPAXI@Z
_TEXT	SEGMENT PARA USE32 PUBLIC 'CODE'
_TEXT	ENDS
;	COMDAT ??1InvalidArgumentException@@UAE@XZ
_TEXT	SEGMENT PARA USE32 PUBLIC 'CODE'
_TEXT	ENDS
;	COMDAT ?getName@OutOfBoundException@@UBE?AV?$basic_string@DV?$char_traits@D@_STL@@V?$allocator@D@2@@_STL@@XZ
_TEXT	SEGMENT PARA USE32 PUBLIC 'CODE'
_TEXT	ENDS
;	COMDAT ??_GOutOfBoundException@@UAEPAXI@Z
_TEXT	SEGMENT PARA USE32 PUBLIC 'CODE'
_TEXT	ENDS
;	COMDAT ??1OutOfBoundException@@UAE@XZ
_TEXT	SEGMENT PARA USE32 PUBLIC 'CODE'
_TEXT	ENDS
;	COMDAT ?getName@InterruptedException@@UBE?AV?$basic_string@DV?$char_traits@D@_STL@@V?$allocator@D@2@@_STL@@XZ
_TEXT	SEGMENT PARA USE32 PUBLIC 'CODE'
_TEXT	ENDS
;	COMDAT ??_GInterruptedException@@UAEPAXI@Z
_TEXT	SEGMENT PARA USE32 PUBLIC 'CODE'
_TEXT	ENDS
;	COMDAT ??1InterruptedException@@UAE@XZ
_TEXT	SEGMENT PARA USE32 PUBLIC 'CODE'
_TEXT	ENDS
;	COMDAT ?getName@NoSuchElementException@@UBE?AV?$basic_string@DV?$char_traits@D@_STL@@V?$allocator@D@2@@_STL@@XZ
_TEXT	SEGMENT PARA USE32 PUBLIC 'CODE'
_TEXT	ENDS
;	COMDAT ??_GNoSuchElementException@@UAEPAXI@Z
_TEXT	SEGMENT PARA USE32 PUBLIC 'CODE'
_TEXT	ENDS
;	COMDAT ??1NoSuchElementException@@UAE@XZ
_TEXT	SEGMENT PARA USE32 PUBLIC 'CODE'
_TEXT	ENDS
;	COMDAT ?getName@DuplicatedException@@UBE?AV?$basic_string@DV?$char_traits@D@_STL@@V?$allocator@D@2@@_STL@@XZ
_TEXT	SEGMENT PARA USE32 PUBLIC 'CODE'
_TEXT	ENDS
;	COMDAT ??_GDuplicatedException@@UAEPAXI@Z
_TEXT	SEGMENT PARA USE32 PUBLIC 'CODE'
_TEXT	ENDS
;	COMDAT ??1DuplicatedException@@UAE@XZ
_TEXT	SEGMENT PARA USE32 PUBLIC 'CODE'
_TEXT	ENDS
;	COMDAT ??0GameException@@QAE@XZ
_TEXT	SEGMENT PARA USE32 PUBLIC 'CODE'
_TEXT	ENDS
;	COMDAT ??0GameException@@QAE@V?$basic_string@DV?$char_traits@D@_STL@@V?$allocator@D@2@@_STL@@@Z
_TEXT	SEGMENT PARA USE32 PUBLIC 'CODE'
_TEXT	ENDS
;	COMDAT ?getName@GameException@@UBE?AV?$basic_string@DV?$char_traits@D@_STL@@V?$allocator@D@2@@_STL@@XZ
_TEXT	SEGMENT PARA USE32 PUBLIC 'CODE'
_TEXT	ENDS
;	COMDAT ??_GGameException@@UAEPAXI@Z
_TEXT	SEGMENT PARA USE32 PUBLIC 'CODE'
_TEXT	ENDS
;	COMDAT ??1GameException@@UAE@XZ
_TEXT	SEGMENT PARA USE32 PUBLIC 'CODE'
_TEXT	ENDS
;	COMDAT ?getName@PortalException@@UBE?AV?$basic_string@DV?$char_traits@D@_STL@@V?$allocator@D@2@@_STL@@XZ
_TEXT	SEGMENT PARA USE32 PUBLIC 'CODE'
_TEXT	ENDS
;	COMDAT ??_GPortalException@@UAEPAXI@Z
_TEXT	SEGMENT PARA USE32 PUBLIC 'CODE'
_TEXT	ENDS
;	COMDAT ??1PortalException@@UAE@XZ
_TEXT	SEGMENT PARA USE32 PUBLIC 'CODE'
_TEXT	ENDS
;	COMDAT ??0Error@@QAE@XZ
_TEXT	SEGMENT PARA USE32 PUBLIC 'CODE'
_TEXT	ENDS
;	COMDAT ??0Error@@QAE@ABV?$basic_string@DV?$char_traits@D@_STL@@V?$allocator@D@2@@_STL@@@Z
_TEXT	SEGMENT PARA USE32 PUBLIC 'CODE'
_TEXT	ENDS
;	COMDAT ?getName@Error@@UBE?AV?$basic_string@DV?$char_traits@D@_STL@@V?$allocator@D@2@@_STL@@XZ
_TEXT	SEGMENT PARA USE32 PUBLIC 'CODE'
_TEXT	ENDS
;	COMDAT ??_GError@@UAEPAXI@Z
_TEXT	SEGMENT PARA USE32 PUBLIC 'CODE'
_TEXT	ENDS
;	COMDAT ??1Error@@UAE@XZ
_TEXT	SEGMENT PARA USE32 PUBLIC 'CODE'
_TEXT	ENDS
;	COMDAT ?getName@GameError@@UBE?AV?$basic_string@DV?$char_traits@D@_STL@@V?$allocator@D@2@@_STL@@XZ
_TEXT	SEGMENT PARA USE32 PUBLIC 'CODE'
_TEXT	ENDS
;	COMDAT ??_GGameError@@UAEPAXI@Z
_TEXT	SEGMENT PARA USE32 PUBLIC 'CODE'
_TEXT	ENDS
;	COMDAT ??1GameError@@UAE@XZ
_TEXT	SEGMENT PARA USE32 PUBLIC 'CODE'
_TEXT	ENDS
;	COMDAT ?getName@AssertionError@@UBE?AV?$basic_string@DV?$char_traits@D@_STL@@V?$allocator@D@2@@_STL@@XZ
_TEXT	SEGMENT PARA USE32 PUBLIC 'CODE'
_TEXT	ENDS
;	COMDAT ??_GAssertionError@@UAEPAXI@Z
_TEXT	SEGMENT PARA USE32 PUBLIC 'CODE'
_TEXT	ENDS
;	COMDAT ??1AssertionError@@UAE@XZ
_TEXT	SEGMENT PARA USE32 PUBLIC 'CODE'
_TEXT	ENDS
;	COMDAT ?getName@UnsupportedError@@UBE?AV?$basic_string@DV?$char_traits@D@_STL@@V?$allocator@D@2@@_STL@@XZ
_TEXT	SEGMENT PARA USE32 PUBLIC 'CODE'
_TEXT	ENDS
;	COMDAT ??_GUnsupportedError@@UAEPAXI@Z
_TEXT	SEGMENT PARA USE32 PUBLIC 'CODE'
_TEXT	ENDS
;	COMDAT ??1UnsupportedError@@UAE@XZ
_TEXT	SEGMENT PARA USE32 PUBLIC 'CODE'
_TEXT	ENDS
;	COMDAT ?getName@LogError@@UBE?AV?$basic_string@DV?$char_traits@D@_STL@@V?$allocator@D@2@@_STL@@XZ
_TEXT	SEGMENT PARA USE32 PUBLIC 'CODE'
_TEXT	ENDS
;	COMDAT ??_GLogError@@UAEPAXI@Z
_TEXT	SEGMENT PARA USE32 PUBLIC 'CODE'
_TEXT	ENDS
;	COMDAT ??1LogError@@UAE@XZ
_TEXT	SEGMENT PARA USE32 PUBLIC 'CODE'
_TEXT	ENDS
;	COMDAT ?getName@UnknownError@@UBE?AV?$basic_string@DV?$char_traits@D@_STL@@V?$allocator@D@2@@_STL@@XZ
_TEXT	SEGMENT PARA USE32 PUBLIC 'CODE'
_TEXT	ENDS
;	COMDAT ?getErrorCode@UnknownError@@QBEIXZ
_TEXT	SEGMENT PARA USE32 PUBLIC 'CODE'
_TEXT	ENDS
;	COMDAT ?toString@UnknownError@@UBE?AV?$basic_string@DV?$char_traits@D@_STL@@V?$allocator@D@2@@_STL@@XZ
_TEXT	SEGMENT PARA USE32 PUBLIC 'CODE'
_TEXT	ENDS
;	COMDAT ??_GUnknownError@@UAEPAXI@Z
_TEXT	SEGMENT PARA USE32 PUBLIC 'CODE'
_TEXT	ENDS
;	COMDAT ??1UnknownError@@UAE@XZ
_TEXT	SEGMENT PARA USE32 PUBLIC 'CODE'
_TEXT	ENDS
;	COMDAT ??B_Bit_reference@_STL@@QBE_NXZ
_TEXT	SEGMENT PARA USE32 PUBLIC 'CODE'
_TEXT	ENDS
;	COMDAT ??4_Bit_reference@_STL@@QAEAAU01@_N@Z
_TEXT	SEGMENT PARA USE32 PUBLIC 'CODE'
_TEXT	ENDS
;	COMDAT ??4_Bit_reference@_STL@@QAEAAU01@ABU01@@Z
_TEXT	SEGMENT PARA USE32 PUBLIC 'CODE'
_TEXT	ENDS
;	COMDAT ??M_STL@@YA_NABU_Bit_iterator_base@0@0@Z
_TEXT	SEGMENT PARA USE32 PUBLIC 'CODE'
_TEXT	ENDS
;	COMDAT ?__black_count@_STL@@YAHPAU_Rb_tree_node_base@1@0@Z
_TEXT	SEGMENT PARA USE32 PUBLIC 'CODE'
_TEXT	ENDS
;	COMDAT ?_S_whichbyte@?$_Base_bitset@$00@_STL@@SAII@Z
_TEXT	SEGMENT PARA USE32 PUBLIC 'CODE'
_TEXT	ENDS
;	COMDAT ?_S_whichbit@?$_Base_bitset@$00@_STL@@SAII@Z
_TEXT	SEGMENT PARA USE32 PUBLIC 'CODE'
_TEXT	ENDS
;	COMDAT ??0CSize@@QAE@HH@Z
_TEXT	SEGMENT PARA USE32 PUBLIC 'CODE'
_TEXT	ENDS
;	COMDAT ??0CPoint@@QAE@HH@Z
_TEXT	SEGMENT PARA USE32 PUBLIC 'CODE'
_TEXT	ENDS
;	COMDAT ??0CRect@@QAE@XZ
_TEXT	SEGMENT PARA USE32 PUBLIC 'CODE'
_TEXT	ENDS
;	COMDAT ??0CRect@@QAE@HHHH@Z
_TEXT	SEGMENT PARA USE32 PUBLIC 'CODE'
_TEXT	ENDS
;	COMDAT ??0CRect@@QAE@PBUtagRECT@@@Z
_TEXT	SEGMENT PARA USE32 PUBLIC 'CODE'
_TEXT	ENDS
;	COMDAT ?Width@CRect@@QBEHXZ
_TEXT	SEGMENT PARA USE32 PUBLIC 'CODE'
_TEXT	ENDS
;	COMDAT ?Height@CRect@@QBEHXZ
_TEXT	SEGMENT PARA USE32 PUBLIC 'CODE'
_TEXT	ENDS
;	COMDAT ?SwapLeftRight@CRect@@SGXPAUtagRECT@@@Z
_TEXT	SEGMENT PARA USE32 PUBLIC 'CODE'
_TEXT	ENDS
;	COMDAT ?MoveToY@CRect@@QAEXH@Z
_TEXT	SEGMENT PARA USE32 PUBLIC 'CODE'
_TEXT	ENDS
;	COMDAT ?MoveToX@CRect@@QAEXH@Z
_TEXT	SEGMENT PARA USE32 PUBLIC 'CODE'
_TEXT	ENDS
;	COMDAT ??HCRect@@QBE?AV0@UtagPOINT@@@Z
_TEXT	SEGMENT PARA USE32 PUBLIC 'CODE'
_TEXT	ENDS
;	COMDAT ??GCRect@@QBE?AV0@UtagPOINT@@@Z
_TEXT	SEGMENT PARA USE32 PUBLIC 'CODE'
_TEXT	ENDS
;	COMDAT ??HCRect@@QBE?AV0@UtagSIZE@@@Z
_TEXT	SEGMENT PARA USE32 PUBLIC 'CODE'
_TEXT	ENDS
;	COMDAT ??GCRect@@QBE?AV0@UtagSIZE@@@Z
_TEXT	SEGMENT PARA USE32 PUBLIC 'CODE'
_TEXT	ENDS
;	COMDAT ?InflateRect@CRect@@QAEXPBUtagRECT@@@Z
_TEXT	SEGMENT PARA USE32 PUBLIC 'CODE'
_TEXT	ENDS
;	COMDAT ?DeflateRect@CRect@@QAEXPBUtagRECT@@@Z
_TEXT	SEGMENT PARA USE32 PUBLIC 'CODE'
_TEXT	ENDS
;	COMDAT ?eof@?$__char_traits_base@DH@_STL@@SAHXZ
_TEXT	SEGMENT PARA USE32 PUBLIC 'CODE'
_TEXT	ENDS
;	COMDAT ??1?$basic_string@DV?$char_traits@D@_STL@@V?$allocator@D@2@@_STL@@QAE@XZ
_TEXT	SEGMENT PARA USE32 PUBLIC 'CODE'
_TEXT	ENDS
;	COMDAT ??4?$basic_string@DV?$char_traits@D@_STL@@V?$allocator@D@2@@_STL@@QAEAAV01@ABV01@@Z
_TEXT	SEGMENT PARA USE32 PUBLIC 'CODE'
_TEXT	ENDS
;	COMDAT ??0?$allocator@D@_STL@@QAE@XZ
_TEXT	SEGMENT PARA USE32 PUBLIC 'CODE'
_TEXT	ENDS
;	COMDAT ??1?$allocator@D@_STL@@QAE@XZ
_TEXT	SEGMENT PARA USE32 PUBLIC 'CODE'
_TEXT	ENDS
;	COMDAT ??1?$basic_string@GV?$char_traits@G@_STL@@V?$allocator@G@2@@_STL@@QAE@XZ
_TEXT	SEGMENT PARA USE32 PUBLIC 'CODE'
_TEXT	ENDS
;	COMDAT ??1?$basic_istream@DV?$char_traits@D@_STL@@@_STL@@UAE@XZ
_TEXT	SEGMENT PARA USE32 PUBLIC 'CODE'
_TEXT	ENDS
;	COMDAT ??1?$basic_ios@DV?$char_traits@D@_STL@@@_STL@@UAE@XZ
_TEXT	SEGMENT PARA USE32 PUBLIC 'CODE'
_TEXT	ENDS
;	COMDAT ??1?$basic_istream@GV?$char_traits@G@_STL@@@_STL@@UAE@XZ
_TEXT	SEGMENT PARA USE32 PUBLIC 'CODE'
_TEXT	ENDS
;	COMDAT ??1?$basic_ios@GV?$char_traits@G@_STL@@@_STL@@UAE@XZ
_TEXT	SEGMENT PARA USE32 PUBLIC 'CODE'
_TEXT	ENDS
;	COMDAT ?_M_write@?$basic_filebuf@DV?$char_traits@D@_STL@@@_STL@@QAE_NPADH@Z
_TEXT	SEGMENT PARA USE32 PUBLIC 'CODE'
_TEXT	ENDS
;	COMDAT ?_M_do_noconv_input@?$basic_filebuf@DV?$char_traits@D@_STL@@@_STL@@QAEHXZ
_TEXT	SEGMENT PARA USE32 PUBLIC 'CODE'
_TEXT	ENDS
;	COMDAT ??0?$list@V?$basic_string@DV?$char_traits@D@_STL@@V?$allocator@D@2@@_STL@@V?$allocator@V?$basic_string@DV?$char_traits@D@_STL@@V?$allocator@D@2@@_STL@@@2@@_STL@@QAE@ABV?$allocator@V?$basic_string@DV?$char_traits@D@_STL@@V?$allocator@D@2@@_STL@@@1@@Z
_TEXT	SEGMENT PARA USE32 PUBLIC 'CODE'
_TEXT	ENDS
;	COMDAT ?begin@?$list@V?$basic_string@DV?$char_traits@D@_STL@@V?$allocator@D@2@@_STL@@V?$allocator@V?$basic_string@DV?$char_traits@D@_STL@@V?$allocator@D@2@@_STL@@@2@@_STL@@QBE?AU?$_List_iterator@V?$basic_string@DV?$char_traits@D@_STL@@V?$allocator@D@2@@_STL@@U?$_Const_traits@V?$basic_string@DV?$char_traits@D@_STL@@V?$allocator@D@2@@_STL@@@2@@2@XZ
_TEXT	SEGMENT PARA USE32 PUBLIC 'CODE'
_TEXT	ENDS
;	COMDAT ?end@?$list@V?$basic_string@DV?$char_traits@D@_STL@@V?$allocator@D@2@@_STL@@V?$allocator@V?$basic_string@DV?$char_traits@D@_STL@@V?$allocator@D@2@@_STL@@@2@@_STL@@QBE?AU?$_List_iterator@V?$basic_string@DV?$char_traits@D@_STL@@V?$allocator@D@2@@_STL@@U?$_Const_traits@V?$basic_string@DV?$char_traits@D@_STL@@V?$allocator@D@2@@_STL@@@2@@2@XZ
_TEXT	SEGMENT PARA USE32 PUBLIC 'CODE'
_TEXT	ENDS
;	COMDAT ?push_front@?$list@V?$basic_string@DV?$char_traits@D@_STL@@V?$allocator@D@2@@_STL@@V?$allocator@V?$basic_string@DV?$char_traits@D@_STL@@V?$allocator@D@2@@_STL@@@2@@_STL@@QAEXABV?$basic_string@DV?$char_traits@D@_STL@@V?$allocator@D@2@@2@@Z
_TEXT	SEGMENT PARA USE32 PUBLIC 'CODE'
_TEXT	ENDS
;	COMDAT ??1?$list@V?$basic_string@DV?$char_traits@D@_STL@@V?$allocator@D@2@@_STL@@V?$allocator@V?$basic_string@DV?$char_traits@D@_STL@@V?$allocator@D@2@@_STL@@@2@@_STL@@QAE@XZ
_TEXT	SEGMENT PARA USE32 PUBLIC 'CODE'
_TEXT	ENDS
;	COMDAT ??0?$allocator@V?$basic_string@DV?$char_traits@D@_STL@@V?$allocator@D@2@@_STL@@@_STL@@QAE@XZ
_TEXT	SEGMENT PARA USE32 PUBLIC 'CODE'
_TEXT	ENDS
;	COMDAT ??1?$allocator@V?$basic_string@DV?$char_traits@D@_STL@@V?$allocator@D@2@@_STL@@@_STL@@QAE@XZ
_TEXT	SEGMENT PARA USE32 PUBLIC 'CODE'
_TEXT	ENDS
;	COMDAT ??D?$_List_iterator@V?$basic_string@DV?$char_traits@D@_STL@@V?$allocator@D@2@@_STL@@U?$_Const_traits@V?$basic_string@DV?$char_traits@D@_STL@@V?$allocator@D@2@@_STL@@@2@@_STL@@QBEABV?$basic_string@DV?$char_traits@D@_STL@@V?$allocator@D@2@@1@XZ
_TEXT	SEGMENT PARA USE32 PUBLIC 'CODE'
_TEXT	ENDS
;	COMDAT ??E?$_List_iterator@V?$basic_string@DV?$char_traits@D@_STL@@V?$allocator@D@2@@_STL@@U?$_Const_traits@V?$basic_string@DV?$char_traits@D@_STL@@V?$allocator@D@2@@_STL@@@2@@_STL@@QAE?AU01@H@Z
_TEXT	SEGMENT PARA USE32 PUBLIC 'CODE'
_TEXT	ENDS
;	COMDAT ??_G?$basic_istream@DV?$char_traits@D@_STL@@@_STL@@UAEPAXI@Z
_TEXT	SEGMENT PARA USE32 PUBLIC 'CODE'
_TEXT	ENDS
;	COMDAT ??_G?$basic_ios@DV?$char_traits@D@_STL@@@_STL@@UAEPAXI@Z
_TEXT	SEGMENT PARA USE32 PUBLIC 'CODE'
_TEXT	ENDS
;	COMDAT ??_G?$basic_istream@GV?$char_traits@G@_STL@@@_STL@@UAEPAXI@Z
_TEXT	SEGMENT PARA USE32 PUBLIC 'CODE'
_TEXT	ENDS
;	COMDAT ??_G?$basic_ios@GV?$char_traits@G@_STL@@@_STL@@UAEPAXI@Z
_TEXT	SEGMENT PARA USE32 PUBLIC 'CODE'
_TEXT	ENDS
;	COMDAT ??_D?$basic_istream@DV?$char_traits@D@_STL@@@_STL@@QAEXXZ
_TEXT	SEGMENT PARA USE32 PUBLIC 'CODE'
_TEXT	ENDS
;	COMDAT ??_D?$basic_istream@GV?$char_traits@G@_STL@@@_STL@@QAEXXZ
_TEXT	SEGMENT PARA USE32 PUBLIC 'CODE'
_TEXT	ENDS
;	COMDAT ??1?$_String_base@DV?$allocator@D@_STL@@@_STL@@QAE@XZ
_TEXT	SEGMENT PARA USE32 PUBLIC 'CODE'
_TEXT	ENDS
;	COMDAT ??1?$_String_base@GV?$allocator@G@_STL@@@_STL@@QAE@XZ
_TEXT	SEGMENT PARA USE32 PUBLIC 'CODE'
_TEXT	ENDS
;	COMDAT ?begin@?$list@V?$basic_string@DV?$char_traits@D@_STL@@V?$allocator@D@2@@_STL@@V?$allocator@V?$basic_string@DV?$char_traits@D@_STL@@V?$allocator@D@2@@_STL@@@2@@_STL@@QAE?AU?$_List_iterator@V?$basic_string@DV?$char_traits@D@_STL@@V?$allocator@D@2@@_STL@@U?$_Nonconst_traits@V?$basic_string@DV?$char_traits@D@_STL@@V?$allocator@D@2@@_STL@@@2@@2@XZ
_TEXT	SEGMENT PARA USE32 PUBLIC 'CODE'
_TEXT	ENDS
;	COMDAT ?insert@?$list@V?$basic_string@DV?$char_traits@D@_STL@@V?$allocator@D@2@@_STL@@V?$allocator@V?$basic_string@DV?$char_traits@D@_STL@@V?$allocator@D@2@@_STL@@@2@@_STL@@QAE?AU?$_List_iterator@V?$basic_string@DV?$char_traits@D@_STL@@V?$allocator@D@2@@_STL@@U?$_Nonconst_traits@V?$basic_string@DV?$char_traits@D@_STL@@V?$allocator@D@2@@_STL@@@2@@2@U32@ABV?$basic_string@DV?$char_traits@D@_STL@@V?$allocator@D@2@@2@@Z
_TEXT	SEGMENT PARA USE32 PUBLIC 'CODE'
_TEXT	ENDS
;	COMDAT ??0?$_List_base@V?$basic_string@DV?$char_traits@D@_STL@@V?$allocator@D@2@@_STL@@V?$allocator@V?$basic_string@DV?$char_traits@D@_STL@@V?$allocator@D@2@@_STL@@@2@@_STL@@QAE@ABV?$allocator@V?$basic_string@DV?$char_traits@D@_STL@@V?$allocator@D@2@@_STL@@@1@@Z
_TEXT	SEGMENT PARA USE32 PUBLIC 'CODE'
_TEXT	ENDS
;	COMDAT ??1?$_List_base@V?$basic_string@DV?$char_traits@D@_STL@@V?$allocator@D@2@@_STL@@V?$allocator@V?$basic_string@DV?$char_traits@D@_STL@@V?$allocator@D@2@@_STL@@@2@@_STL@@QAE@XZ
_TEXT	SEGMENT PARA USE32 PUBLIC 'CODE'
_TEXT	ENDS
;	COMDAT ??0?$_List_iterator@V?$basic_string@DV?$char_traits@D@_STL@@V?$allocator@D@2@@_STL@@U?$_Const_traits@V?$basic_string@DV?$char_traits@D@_STL@@V?$allocator@D@2@@_STL@@@2@@_STL@@QAE@PAU?$_List_node@V?$basic_string@DV?$char_traits@D@_STL@@V?$allocator@D@2@@_STL@@@1@@Z
_TEXT	SEGMENT PARA USE32 PUBLIC 'CODE'
_TEXT	ENDS
;	COMDAT ??1?$_STLP_alloc_proxy@PADDV?$allocator@D@_STL@@@_STL@@QAE@XZ
_TEXT	SEGMENT PARA USE32 PUBLIC 'CODE'
_TEXT	ENDS
;	COMDAT ??1?$_STLP_alloc_proxy@PAGGV?$allocator@G@_STL@@@_STL@@QAE@XZ
_TEXT	SEGMENT PARA USE32 PUBLIC 'CODE'
_TEXT	ENDS
;	COMDAT ??1?$_STLP_alloc_proxy@PAU?$_List_node@V?$basic_string@DV?$char_traits@D@_STL@@V?$allocator@D@2@@_STL@@@_STL@@U12@V?$allocator@U?$_List_node@V?$basic_string@DV?$char_traits@D@_STL@@V?$allocator@D@2@@_STL@@@_STL@@@2@@_STL@@QAE@XZ
_TEXT	SEGMENT PARA USE32 PUBLIC 'CODE'
_TEXT	ENDS
;	COMDAT ?_M_deallocate_block@?$_String_base@DV?$allocator@D@_STL@@@_STL@@QAEXXZ
_TEXT	SEGMENT PARA USE32 PUBLIC 'CODE'
_TEXT	ENDS
;	COMDAT ?_M_deallocate_block@?$_String_base@GV?$allocator@G@_STL@@@_STL@@QAEXXZ
_TEXT	SEGMENT PARA USE32 PUBLIC 'CODE'
_TEXT	ENDS
;	COMDAT ??1?$allocator@G@_STL@@QAE@XZ
_TEXT	SEGMENT PARA USE32 PUBLIC 'CODE'
_TEXT	ENDS
;	COMDAT ?_M_create_node@?$list@V?$basic_string@DV?$char_traits@D@_STL@@V?$allocator@D@2@@_STL@@V?$allocator@V?$basic_string@DV?$char_traits@D@_STL@@V?$allocator@D@2@@_STL@@@2@@_STL@@IAEPAU?$_List_node@V?$basic_string@DV?$char_traits@D@_STL@@V?$allocator@D@2@@_STL@@@2@ABV?$basic_string@DV?$char_traits@D@_STL@@V?$allocator@D@2@@2@@Z
_TEXT	SEGMENT PARA USE32 PUBLIC 'CODE'
_TEXT	ENDS
;	COMDAT ??0?$_STLP_alloc_proxy@PAU?$_List_node@V?$basic_string@DV?$char_traits@D@_STL@@V?$allocator@D@2@@_STL@@@_STL@@U12@V?$allocator@U?$_List_node@V?$basic_string@DV?$char_traits@D@_STL@@V?$allocator@D@2@@_STL@@@_STL@@@2@@_STL@@QAE@ABV?$allocator@U?$_List_node@V?$basic_string@DV?$char_traits@D@_STL@@V?$allocator@D@2@@_STL@@@_STL@@@1@PAU?$_List_node@V?$basic_string@DV?$char_traits@D@_STL@@V?$allocator@D@2@@_STL@@@1@@Z
_TEXT	SEGMENT PARA USE32 PUBLIC 'CODE'
_TEXT	ENDS
;	COMDAT ??1?$allocator@U?$_List_node@V?$basic_string@DV?$char_traits@D@_STL@@V?$allocator@D@2@@_STL@@@_STL@@@_STL@@QAE@XZ
_TEXT	SEGMENT PARA USE32 PUBLIC 'CODE'
_TEXT	ENDS
;	COMDAT ?allocate@?$allocator@U?$_List_node@V?$basic_string@DV?$char_traits@D@_STL@@V?$allocator@D@2@@_STL@@@_STL@@@_STL@@QAEPAU?$_List_node@V?$basic_string@DV?$char_traits@D@_STL@@V?$allocator@D@2@@_STL@@@2@IPBX@Z
_TEXT	SEGMENT PARA USE32 PUBLIC 'CODE'
_TEXT	ENDS
;	COMDAT ?deallocate@?$allocator@U?$_List_node@V?$basic_string@DV?$char_traits@D@_STL@@V?$allocator@D@2@@_STL@@@_STL@@@_STL@@QAEXPAU?$_List_node@V?$basic_string@DV?$char_traits@D@_STL@@V?$allocator@D@2@@_STL@@@2@I@Z
_TEXT	SEGMENT PARA USE32 PUBLIC 'CODE'
_TEXT	ENDS
;	COMDAT ??0?$_List_iterator@V?$basic_string@DV?$char_traits@D@_STL@@V?$allocator@D@2@@_STL@@U?$_Nonconst_traits@V?$basic_string@DV?$char_traits@D@_STL@@V?$allocator@D@2@@_STL@@@2@@_STL@@QAE@PAU?$_List_node@V?$basic_string@DV?$char_traits@D@_STL@@V?$allocator@D@2@@_STL@@@1@@Z
_TEXT	SEGMENT PARA USE32 PUBLIC 'CODE'
_TEXT	ENDS
;	COMDAT ?deallocate@?$allocator@D@_STL@@QAEXPADI@Z
_TEXT	SEGMENT PARA USE32 PUBLIC 'CODE'
_TEXT	ENDS
;	COMDAT ?deallocate@?$allocator@G@_STL@@QAEXPAGI@Z
_TEXT	SEGMENT PARA USE32 PUBLIC 'CODE'
_TEXT	ENDS
;	COMDAT ??0?$allocator@U?$_List_node@V?$basic_string@DV?$char_traits@D@_STL@@V?$allocator@D@2@@_STL@@@_STL@@@_STL@@QAE@ABV01@@Z
_TEXT	SEGMENT PARA USE32 PUBLIC 'CODE'
_TEXT	ENDS
;	COMDAT ?allocate@?$__node_alloc@$00$0A@@_STL@@SAPAXI@Z
_TEXT	SEGMENT PARA USE32 PUBLIC 'CODE'
_TEXT	ENDS
;	COMDAT ?deallocate@?$__node_alloc@$00$0A@@_STL@@SAXPAXI@Z
_TEXT	SEGMENT PARA USE32 PUBLIC 'CODE'
_TEXT	ENDS
;	COMDAT ??$min@I@_STL@@YAABIABI0@Z
_TEXT	SEGMENT PARA USE32 PUBLIC 'CODE'
_TEXT	ENDS
;	COMDAT ??$min@H@_STL@@YAABHABH0@Z
_TEXT	SEGMENT PARA USE32 PUBLIC 'CODE'
_TEXT	ENDS
;	COMDAT ??0?$basic_string@DV?$char_traits@D@_STL@@V?$allocator@D@2@@_STL@@QAE@PBDABV?$allocator@D@1@@Z
_TEXT	SEGMENT PARA USE32 PUBLIC 'CODE'
_TEXT	ENDS
;	COMDAT ??0?$basic_string@DV?$char_traits@D@_STL@@V?$allocator@D@2@@_STL@@QAE@ABV01@@Z
_TEXT	SEGMENT PARA USE32 PUBLIC 'CODE'
_TEXT	ENDS
;	COMDAT ??0?$basic_string@DV?$char_traits@D@_STL@@V?$allocator@D@2@@_STL@@QAE@XZ
_TEXT	SEGMENT PARA USE32 PUBLIC 'CODE'
_TEXT	ENDS
;	COMDAT ??1?$basic_ostream@DV?$char_traits@D@_STL@@@_STL@@UAE@XZ
_TEXT	SEGMENT PARA USE32 PUBLIC 'CODE'
_TEXT	ENDS
;	COMDAT ??1?$basic_ostream@GV?$char_traits@G@_STL@@@_STL@@UAE@XZ
_TEXT	SEGMENT PARA USE32 PUBLIC 'CODE'
_TEXT	ENDS
;	COMDAT ??$count@PADD@_STL@@YAHPAD0ABD@Z
_TEXT	SEGMENT PARA USE32 PUBLIC 'CODE'
_TEXT	ENDS
;	COMDAT ??1?$basic_filebuf@DV?$char_traits@D@_STL@@@_STL@@UAE@XZ
_TEXT	SEGMENT PARA USE32 PUBLIC 'CODE'
_TEXT	ENDS
;	COMDAT ?showmanyc@?$basic_filebuf@DV?$char_traits@D@_STL@@@_STL@@MAEHXZ
_TEXT	SEGMENT PARA USE32 PUBLIC 'CODE'
_TEXT	ENDS
;	COMDAT ?underflow@?$basic_filebuf@DV?$char_traits@D@_STL@@@_STL@@MAEHXZ
_TEXT	SEGMENT PARA USE32 PUBLIC 'CODE'
_TEXT	ENDS
;	COMDAT ?pbackfail@?$basic_filebuf@DV?$char_traits@D@_STL@@@_STL@@MAEHH@Z
_TEXT	SEGMENT PARA USE32 PUBLIC 'CODE'
_TEXT	ENDS
;	COMDAT ?overflow@?$basic_filebuf@DV?$char_traits@D@_STL@@@_STL@@MAEHH@Z
_TEXT	SEGMENT PARA USE32 PUBLIC 'CODE'
_TEXT	ENDS
;	COMDAT ?setbuf@?$basic_filebuf@DV?$char_traits@D@_STL@@@_STL@@MAEPAV?$basic_streambuf@DV?$char_traits@D@_STL@@@2@PADH@Z
_TEXT	SEGMENT PARA USE32 PUBLIC 'CODE'
_TEXT	ENDS
;	COMDAT ?seekoff@?$basic_filebuf@DV?$char_traits@D@_STL@@@_STL@@MAE?AV?$fpos@H@2@JHH@Z
_TEXT	SEGMENT PARA USE32 PUBLIC 'CODE'
_TEXT	ENDS
;	COMDAT ?seekpos@?$basic_filebuf@DV?$char_traits@D@_STL@@@_STL@@MAE?AV?$fpos@H@2@V32@H@Z
_TEXT	SEGMENT PARA USE32 PUBLIC 'CODE'
_TEXT	ENDS
;	COMDAT ?sync@?$basic_filebuf@DV?$char_traits@D@_STL@@@_STL@@MAEHXZ
_TEXT	SEGMENT PARA USE32 PUBLIC 'CODE'
_TEXT	ENDS
;	COMDAT ?imbue@?$basic_filebuf@DV?$char_traits@D@_STL@@@_STL@@MAEXABVlocale@2@@Z
_TEXT	SEGMENT PARA USE32 PUBLIC 'CODE'
_TEXT	ENDS
;	COMDAT ?clear@?$_List_base@V?$basic_string@DV?$char_traits@D@_STL@@V?$allocator@D@2@@_STL@@V?$allocator@V?$basic_string@DV?$char_traits@D@_STL@@V?$allocator@D@2@@_STL@@@2@@_STL@@QAEXXZ
_TEXT	SEGMENT PARA USE32 PUBLIC 'CODE'
_TEXT	ENDS
;	COMDAT ??$assign@PAD@?$basic_string@DV?$char_traits@D@_STL@@V?$allocator@D@2@@_STL@@QAEAAV01@PAD0@Z
_TEXT	SEGMENT PARA USE32 PUBLIC 'CODE'
_TEXT	ENDS
;	COMDAT ??$?0V?$basic_string@DV?$char_traits@D@_STL@@V?$allocator@D@2@@_STL@@@?$allocator@U?$_List_node@V?$basic_string@DV?$char_traits@D@_STL@@V?$allocator@D@2@@_STL@@@_STL@@@_STL@@QAE@ABV?$allocator@V?$basic_string@DV?$char_traits@D@_STL@@V?$allocator@D@2@@_STL@@@1@@Z
_TEXT	SEGMENT PARA USE32 PUBLIC 'CODE'
_TEXT	ENDS
;	COMDAT ??$_Construct@V?$basic_string@DV?$char_traits@D@_STL@@V?$allocator@D@2@@_STL@@V12@@_STL@@YAXPAV?$basic_string@DV?$char_traits@D@_STL@@V?$allocator@D@2@@0@ABV10@@Z
_TEXT	SEGMENT PARA USE32 PUBLIC 'CODE'
_TEXT	ENDS
;	COMDAT ??_G?$basic_ostream@DV?$char_traits@D@_STL@@@_STL@@UAEPAXI@Z
_TEXT	SEGMENT PARA USE32 PUBLIC 'CODE'
_TEXT	ENDS
;	COMDAT ??_G?$basic_ostream@GV?$char_traits@G@_STL@@@_STL@@UAEPAXI@Z
_TEXT	SEGMENT PARA USE32 PUBLIC 'CODE'
_TEXT	ENDS
;	COMDAT ??_G?$basic_filebuf@DV?$char_traits@D@_STL@@@_STL@@UAEPAXI@Z
_TEXT	SEGMENT PARA USE32 PUBLIC 'CODE'
_TEXT	ENDS
;	COMDAT ??_D?$basic_ostream@DV?$char_traits@D@_STL@@@_STL@@QAEXXZ
_TEXT	SEGMENT PARA USE32 PUBLIC 'CODE'
_TEXT	ENDS
;	COMDAT ??_D?$basic_ostream@GV?$char_traits@G@_STL@@@_STL@@QAEXXZ
_TEXT	SEGMENT PARA USE32 PUBLIC 'CODE'
_TEXT	ENDS
;	COMDAT ?eq@?$__char_traits_base@DH@_STL@@SA_NABD0@Z
_TEXT	SEGMENT PARA USE32 PUBLIC 'CODE'
_TEXT	ENDS
;	COMDAT ?not_eof@?$__char_traits_base@DH@_STL@@SAHABH@Z
_TEXT	SEGMENT PARA USE32 PUBLIC 'CODE'
_TEXT	ENDS
;	COMDAT ?eq_int_type@?$__char_traits_base@DH@_STL@@SA_NABH0@Z
_TEXT	SEGMENT PARA USE32 PUBLIC 'CODE'
_TEXT	ENDS
;	COMDAT ?get_allocator@?$basic_string@DV?$char_traits@D@_STL@@V?$allocator@D@2@@_STL@@QBE?AV?$allocator@D@2@XZ
_TEXT	SEGMENT PARA USE32 PUBLIC 'CODE'
_TEXT	ENDS
;	COMDAT ?_M_terminate_string@?$basic_string@DV?$char_traits@D@_STL@@V?$allocator@D@2@@_STL@@AAEXXZ
_TEXT	SEGMENT PARA USE32 PUBLIC 'CODE'
_TEXT	ENDS
;	COMDAT ??0?$_String_base@DV?$allocator@D@_STL@@@_STL@@QAE@ABV?$allocator@D@1@@Z
_TEXT	SEGMENT PARA USE32 PUBLIC 'CODE'
_TEXT	ENDS
;	COMDAT ?allocate@?$allocator@D@_STL@@QAEPADIPBX@Z
_TEXT	SEGMENT PARA USE32 PUBLIC 'CODE'
_TEXT	ENDS
;	COMDAT ??0?$fpos@H@_STL@@QAE@J@Z
_TEXT	SEGMENT PARA USE32 PUBLIC 'CODE'
_TEXT	ENDS
;	COMDAT ??B?$fpos@H@_STL@@QBEJXZ
_TEXT	SEGMENT PARA USE32 PUBLIC 'CODE'
_TEXT	ENDS
;	COMDAT ?state@?$fpos@H@_STL@@QBEHXZ
_TEXT	SEGMENT PARA USE32 PUBLIC 'CODE'
_TEXT	ENDS
;	COMDAT ?is_open@?$basic_filebuf@DV?$char_traits@D@_STL@@@_STL@@QBE_NXZ
_TEXT	SEGMENT PARA USE32 PUBLIC 'CODE'
_TEXT	ENDS
;	COMDAT ?_M_seek_return@?$basic_filebuf@DV?$char_traits@D@_STL@@@_STL@@AAE?AV?$fpos@H@2@JH@Z
_TEXT	SEGMENT PARA USE32 PUBLIC 'CODE'
_TEXT	ENDS
;	COMDAT ??0?$_Filebuf_Tmp_Buf@D@_STL@@QAE@H@Z
_TEXT	SEGMENT PARA USE32 PUBLIC 'CODE'
_TEXT	ENDS
;	COMDAT ??1?$_Filebuf_Tmp_Buf@D@_STL@@QAE@XZ
_TEXT	SEGMENT PARA USE32 PUBLIC 'CODE'
_TEXT	ENDS
;	COMDAT ?_M_terminate_string_aux@?$basic_string@DV?$char_traits@D@_STL@@V?$allocator@D@2@@_STL@@AAEXABU__true_type@2@@Z
_TEXT	SEGMENT PARA USE32 PUBLIC 'CODE'
_TEXT	ENDS
;	COMDAT ??0?$allocator@D@_STL@@QAE@ABV01@@Z
_TEXT	SEGMENT PARA USE32 PUBLIC 'CODE'
_TEXT	ENDS
;	COMDAT ??0?$_STLP_alloc_proxy@PADDV?$allocator@D@_STL@@@_STL@@QAE@ABV?$allocator@D@1@PAD@Z
_TEXT	SEGMENT PARA USE32 PUBLIC 'CODE'
_TEXT	ENDS
;	COMDAT ?state@?$fpos@H@_STL@@QAEXH@Z
_TEXT	SEGMENT PARA USE32 PUBLIC 'CODE'
_TEXT	ENDS
;	COMDAT ??$_M_range_initialize@PBD@?$basic_string@DV?$char_traits@D@_STL@@V?$allocator@D@2@@_STL@@AAEXPBD0@Z
_TEXT	SEGMENT PARA USE32 PUBLIC 'CODE'
_TEXT	ENDS
;	COMDAT ??$_M_range_initialize@PAD@?$basic_string@DV?$char_traits@D@_STL@@V?$allocator@D@2@@_STL@@AAEXPAD0@Z
_TEXT	SEGMENT PARA USE32 PUBLIC 'CODE'
_TEXT	ENDS
;	COMDAT ?close@?$basic_filebuf@DV?$char_traits@D@_STL@@@_STL@@QAEPAV12@XZ
_TEXT	SEGMENT PARA USE32 PUBLIC 'CODE'
_TEXT	ENDS
;	COMDAT ?_M_exit_input_mode@?$basic_filebuf@DV?$char_traits@D@_STL@@@_STL@@AAEXXZ
_TEXT	SEGMENT PARA USE32 PUBLIC 'CODE'
_TEXT	ENDS
;	COMDAT ?_M_switch_to_output_mode@?$basic_filebuf@DV?$char_traits@D@_STL@@@_STL@@AAE_NXZ
_TEXT	SEGMENT PARA USE32 PUBLIC 'CODE'
_TEXT	ENDS
;	COMDAT ?_M_output_error@?$basic_filebuf@DV?$char_traits@D@_STL@@@_STL@@AAEHXZ
_TEXT	SEGMENT PARA USE32 PUBLIC 'CODE'
_TEXT	ENDS
;	COMDAT ?_M_allocate_buffers@?$basic_filebuf@DV?$char_traits@D@_STL@@@_STL@@AAE_NPADH@Z
_TEXT	SEGMENT PARA USE32 PUBLIC 'CODE'
_TEXT	ENDS
;	COMDAT ?_M_deallocate_buffers@?$basic_filebuf@DV?$char_traits@D@_STL@@@_STL@@AAEXXZ
_TEXT	SEGMENT PARA USE32 PUBLIC 'CODE'
_TEXT	ENDS
;	COMDAT ?_M_seek_init@?$basic_filebuf@DV?$char_traits@D@_STL@@@_STL@@AAE_N_N@Z
_TEXT	SEGMENT PARA USE32 PUBLIC 'CODE'
_TEXT	ENDS
;	COMDAT ?_M_setup_codecvt@?$basic_filebuf@DV?$char_traits@D@_STL@@@_STL@@AAEXABVlocale@2@@Z
_TEXT	SEGMENT PARA USE32 PUBLIC 'CODE'
_TEXT	ENDS
;	COMDAT ??$equal@PADPADU?$_Eq_traits@V?$char_traits@D@_STL@@@_STL@@@_STL@@YA_NPAD00U?$_Eq_traits@V?$char_traits@D@_STL@@@0@@Z
_TEXT	SEGMENT PARA USE32 PUBLIC 'CODE'
_TEXT	ENDS
;	COMDAT ??$_Destroy@V?$basic_string@DV?$char_traits@D@_STL@@V?$allocator@D@2@@_STL@@@_STL@@YAXPAV?$basic_string@DV?$char_traits@D@_STL@@V?$allocator@D@2@@0@@Z
_TEXT	SEGMENT PARA USE32 PUBLIC 'CODE'
_TEXT	ENDS
;	COMDAT ??$_M_assign_dispatch@PAD@?$basic_string@DV?$char_traits@D@_STL@@V?$allocator@D@2@@_STL@@AAEAAV01@PAD0ABU__false_type@1@@Z
_TEXT	SEGMENT PARA USE32 PUBLIC 'CODE'
_TEXT	ENDS
;	COMDAT ??_G?$basic_string@DV?$char_traits@D@_STL@@V?$allocator@D@2@@_STL@@QAEPAXI@Z
_TEXT	SEGMENT PARA USE32 PUBLIC 'CODE'
_TEXT	ENDS
;	COMDAT ?end@?$basic_string@DV?$char_traits@D@_STL@@V?$allocator@D@2@@_STL@@QAEPADXZ
_TEXT	SEGMENT PARA USE32 PUBLIC 'CODE'
_TEXT	ENDS
;	COMDAT ?erase@?$basic_string@DV?$char_traits@D@_STL@@V?$allocator@D@2@@_STL@@QAEPADPAD0@Z
_TEXT	SEGMENT PARA USE32 PUBLIC 'CODE'
_TEXT	ENDS
;	COMDAT ?_M_exit_putback_mode@?$basic_filebuf@DV?$char_traits@D@_STL@@@_STL@@AAEXXZ
_TEXT	SEGMENT PARA USE32 PUBLIC 'CODE'
_TEXT	ENDS
;	COMDAT ??R?$_Eq_traits@V?$char_traits@D@_STL@@@_STL@@QBE_NABD0@Z
_TEXT	SEGMENT PARA USE32 PUBLIC 'CODE'
_TEXT	ENDS
;	COMDAT ?move@?$__char_traits_base@DH@_STL@@SAPADPADPBDI@Z
_TEXT	SEGMENT PARA USE32 PUBLIC 'CODE'
_TEXT	ENDS
;	COMDAT ??$_M_range_initialize@PBD@?$basic_string@DV?$char_traits@D@_STL@@V?$allocator@D@2@@_STL@@AAEXPBD0ABUforward_iterator_tag@1@@Z
_TEXT	SEGMENT PARA USE32 PUBLIC 'CODE'
_TEXT	ENDS
;	COMDAT ??$_M_range_initialize@PAD@?$basic_string@DV?$char_traits@D@_STL@@V?$allocator@D@2@@_STL@@AAEXPAD0ABUforward_iterator_tag@1@@Z
_TEXT	SEGMENT PARA USE32 PUBLIC 'CODE'
_TEXT	ENDS
;	COMDAT ?_M_unshift@?$basic_filebuf@DV?$char_traits@D@_STL@@@_STL@@AAE_NXZ
_TEXT	SEGMENT PARA USE32 PUBLIC 'CODE'
_TEXT	ENDS
;	COMDAT ?_M_allocate_buffers@?$basic_filebuf@DV?$char_traits@D@_STL@@@_STL@@AAE_NXZ
_TEXT	SEGMENT PARA USE32 PUBLIC 'CODE'
_TEXT	ENDS
;	COMDAT ??$max@H@_STL@@YAABHABH0@Z
_TEXT	SEGMENT PARA USE32 PUBLIC 'CODE'
_TEXT	ENDS
;	COMDAT ??$use_facet@V?$codecvt@DDH@_STL@@@_STL@@YAABV?$codecvt@DDH@0@ABVlocale@0@@Z
_TEXT	SEGMENT PARA USE32 PUBLIC 'CODE'
_TEXT	ENDS
;	COMDAT ??$append@PAD@?$basic_string@DV?$char_traits@D@_STL@@V?$allocator@D@2@@_STL@@QAEAAV01@PAD0@Z
_TEXT	SEGMENT PARA USE32 PUBLIC 'CODE'
_TEXT	ENDS
;	COMDAT ??$distance@PBD@_STL@@YAHABQBD0@Z
_TEXT	SEGMENT PARA USE32 PUBLIC 'CODE'
_TEXT	ENDS
;	COMDAT ?_M_allocate_block@?$_String_base@DV?$allocator@D@_STL@@@_STL@@QAEXI@Z
_TEXT	SEGMENT PARA USE32 PUBLIC 'CODE'
_TEXT	ENDS
;	COMDAT ??$distance@PAD@_STL@@YAHABQAD0@Z
_TEXT	SEGMENT PARA USE32 PUBLIC 'CODE'
_TEXT	ENDS
;	COMDAT ??$uninitialized_copy@PADPAD@_STL@@YAPADPAD00@Z
_TEXT	SEGMENT PARA USE32 PUBLIC 'CODE'
_TEXT	ENDS
;	COMDAT ??$_M_append_dispatch@PAD@?$basic_string@DV?$char_traits@D@_STL@@V?$allocator@D@2@@_STL@@AAEAAV01@PAD0ABU__false_type@1@@Z
_TEXT	SEGMENT PARA USE32 PUBLIC 'CODE'
_TEXT	ENDS
;	COMDAT ?max_size@?$_String_base@DV?$allocator@D@_STL@@@_STL@@QBEIXZ
_TEXT	SEGMENT PARA USE32 PUBLIC 'CODE'
_TEXT	ENDS
;	COMDAT ??$__distance@PBD@_STL@@YAHABQBD0ABUrandom_access_iterator_tag@0@@Z
_TEXT	SEGMENT PARA USE32 PUBLIC 'CODE'
_TEXT	ENDS
;	COMDAT ?_M_throw_length_error@?$_String_base@DV?$allocator@D@_STL@@@_STL@@QBEXXZ
_TEXT	SEGMENT PARA USE32 PUBLIC 'CODE'
_TEXT	ENDS
;	COMDAT ??$__distance@PAD@_STL@@YAHABQAD0ABUrandom_access_iterator_tag@0@@Z
_TEXT	SEGMENT PARA USE32 PUBLIC 'CODE'
_TEXT	ENDS
;	COMDAT ??$__uninitialized_copy@PADPAD@_STL@@YAPADPAD00ABU__true_type@0@@Z
_TEXT	SEGMENT PARA USE32 PUBLIC 'CODE'
_TEXT	ENDS
;	COMDAT ??$append@PAD@?$basic_string@DV?$char_traits@D@_STL@@V?$allocator@D@2@@_STL@@AAEAAV01@PAD0ABUforward_iterator_tag@1@@Z
_TEXT	SEGMENT PARA USE32 PUBLIC 'CODE'
_TEXT	ENDS
;	COMDAT ?_M_construct_null@?$basic_string@DV?$char_traits@D@_STL@@V?$allocator@D@2@@_STL@@AAEXPAD@Z
_TEXT	SEGMENT PARA USE32 PUBLIC 'CODE'
_TEXT	ENDS
;	COMDAT ?size@?$basic_string@DV?$char_traits@D@_STL@@V?$allocator@D@2@@_STL@@QBEIXZ
_TEXT	SEGMENT PARA USE32 PUBLIC 'CODE'
_TEXT	ENDS
;	COMDAT ?max_size@?$basic_string@DV?$char_traits@D@_STL@@V?$allocator@D@2@@_STL@@QBEIXZ
_TEXT	SEGMENT PARA USE32 PUBLIC 'CODE'
_TEXT	ENDS
;	COMDAT ?capacity@?$basic_string@DV?$char_traits@D@_STL@@V?$allocator@D@2@@_STL@@QBEIXZ
_TEXT	SEGMENT PARA USE32 PUBLIC 'CODE'
_TEXT	ENDS
;	COMDAT ?_Ret@?$_BothPtrType@PADPAD@_STL@@SA?AU__true_type@2@XZ
_TEXT	SEGMENT PARA USE32 PUBLIC 'CODE'
_TEXT	ENDS
;	COMDAT ?_M_construct_null_aux@?$basic_string@DV?$char_traits@D@_STL@@V?$allocator@D@2@@_STL@@AAEXPADABU__true_type@2@@Z
_TEXT	SEGMENT PARA USE32 PUBLIC 'CODE'
_TEXT	ENDS
;	COMDAT ??$__copy_aux@PADPAD@_STL@@YAPADPAD00ABU__true_type@0@@Z
_TEXT	SEGMENT PARA USE32 PUBLIC 'CODE'
_TEXT	ENDS
;	COMDAT ??$max@I@_STL@@YAABIABI0@Z
_TEXT	SEGMENT PARA USE32 PUBLIC 'CODE'
_TEXT	ENDS
;	COMDAT ?_Ret@?$_OKToMemCpy@DD@_STL@@SA?AU__true_type@2@XZ
_TEXT	SEGMENT PARA USE32 PUBLIC 'CODE'
_TEXT	ENDS
;	COMDAT ??$_IsOKToMemCpy@DD@_STL@@YA?AU?$_OKToMemCpy@DD@0@PAD0@Z
_TEXT	SEGMENT PARA USE32 PUBLIC 'CODE'
_TEXT	ENDS
;	COMDAT ??$__copy_ptrs@PADPAD@_STL@@YAPADPAD00ABU__true_type@0@@Z
_TEXT	SEGMENT PARA USE32 PUBLIC 'CODE'
_TEXT	ENDS
;	COMDAT ??_R3RuntimeException@@8
rdata$r	SEGMENT DWORD USE32 PUBLIC 'CONST'
rdata$r	ENDS
;	COMDAT ??_R1A@?0A@A@GameException@@8
rdata$r	SEGMENT DWORD USE32 PUBLIC 'CONST'
rdata$r	ENDS
;	COMDAT ??_7AssertionError@@6B@
CONST	SEGMENT DWORD USE32 PUBLIC 'CONST'
CONST	ENDS
;	COMDAT ??_R0?AVTimeoutException@@@8
_DATA	SEGMENT DWORD USE32 PUBLIC 'DATA'
_DATA	ENDS
;	COMDAT ??_R2runtime_error@_STL@@8
rdata$r	SEGMENT DWORD USE32 PUBLIC 'CONST'
rdata$r	ENDS
;	COMDAT ??_R4IgnorePacketException@@6B@
rdata$r	SEGMENT DWORD USE32 PUBLIC 'CONST'
rdata$r	ENDS
;	COMDAT ??_R3Error@@8
rdata$r	SEGMENT DWORD USE32 PUBLIC 'CONST'
rdata$r	ENDS
;	COMDAT ??_R2UnknownError@@8
rdata$r	SEGMENT DWORD USE32 PUBLIC 'CONST'
rdata$r	ENDS
;	COMDAT ??_R2IgnorePacketException@@8
rdata$r	SEGMENT DWORD USE32 PUBLIC 'CONST'
rdata$r	ENDS
;	COMDAT ??_R1A@?0A@A@overflow_error@_STL@@8
rdata$r	SEGMENT DWORD USE32 PUBLIC 'CONST'
rdata$r	ENDS
;	COMDAT ??_R4IdleException@@6B@
rdata$r	SEGMENT DWORD USE32 PUBLIC 'CONST'
rdata$r	ENDS
;	COMDAT ??_R2EOFException@@8
rdata$r	SEGMENT DWORD USE32 PUBLIC 'CONST'
rdata$r	ENDS
;	COMDAT ??_R4ConnectException@@6B@
rdata$r	SEGMENT DWORD USE32 PUBLIC 'CONST'
rdata$r	ENDS
;	COMDAT ??_R3SQLWarning@@8
rdata$r	SEGMENT DWORD USE32 PUBLIC 'CONST'
rdata$r	ENDS
;	COMDAT ??_7IgnorePacketException@@6B@
CONST	SEGMENT DWORD USE32 PUBLIC 'CONST'
CONST	ENDS
;	COMDAT ??_R1A@?0A@A@BindException@@8
rdata$r	SEGMENT DWORD USE32 PUBLIC 'CONST'
rdata$r	ENDS
;	COMDAT ??_R4CondVarException@@6B@
rdata$r	SEGMENT DWORD USE32 PUBLIC 'CONST'
rdata$r	ENDS
;	COMDAT ??_R2ThreadException@@8
rdata$r	SEGMENT DWORD USE32 PUBLIC 'CONST'
rdata$r	ENDS
;	COMDAT ??_R0?AV?$numpunct@D@_STL@@@8
_DATA	SEGMENT DWORD USE32 PUBLIC 'DATA'
_DATA	ENDS
;	COMDAT ??_R13?0A@8_Refcount_Base@_STL@@8
rdata$r	SEGMENT DWORD USE32 PUBLIC 'CONST'
rdata$r	ENDS
;	COMDAT ??_R4?$basic_filebuf@DV?$char_traits@D@_STL@@@_STL@@6B@
rdata$r	SEGMENT DWORD USE32 PUBLIC 'CONST'
rdata$r	ENDS
;	COMDAT ??_R3InsufficientDataException@@8
rdata$r	SEGMENT DWORD USE32 PUBLIC 'CONST'
rdata$r	ENDS
;	COMDAT ??_R3NoSuchElementException@@8
rdata$r	SEGMENT DWORD USE32 PUBLIC 'CONST'
rdata$r	ENDS
;	COMDAT ??_R2MutexException@@8
rdata$r	SEGMENT DWORD USE32 PUBLIC 'CONST'
rdata$r	ENDS
;	COMDAT ??_7EOFException@@6B@
CONST	SEGMENT DWORD USE32 PUBLIC 'CONST'
CONST	ENDS
;	COMDAT ??_R0?AVThrowable@@@8
_DATA	SEGMENT DWORD USE32 PUBLIC 'DATA'
_DATA	ENDS
;	COMDAT ??_R0?AV?$codecvt@DDH@_STL@@@8
_DATA	SEGMENT DWORD USE32 PUBLIC 'DATA'
_DATA	ENDS
;	COMDAT ??_R4NoSuchElementException@@6B@
rdata$r	SEGMENT DWORD USE32 PUBLIC 'CONST'
rdata$r	ENDS
;	COMDAT ??_R0?AVSQLConnectException@@@8
_DATA	SEGMENT DWORD USE32 PUBLIC 'DATA'
_DATA	ENDS
;	COMDAT ??_R0?AVNoSuchElementException@@@8
_DATA	SEGMENT DWORD USE32 PUBLIC 'DATA'
_DATA	ENDS
;	COMDAT ??_R1A@?0A@A@IdleException@@8
rdata$r	SEGMENT DWORD USE32 PUBLIC 'CONST'
rdata$r	ENDS
;	COMDAT ??_R4OutOfBoundException@@6B@
rdata$r	SEGMENT DWORD USE32 PUBLIC 'CONST'
rdata$r	ENDS
;	COMDAT ??_R4UnsupportedError@@6B@
rdata$r	SEGMENT DWORD USE32 PUBLIC 'CONST'
rdata$r	ENDS
;	COMDAT ??_R4MutexAttrException@@6B@
rdata$r	SEGMENT DWORD USE32 PUBLIC 'CONST'
rdata$r	ENDS
;	COMDAT ??_R0?AVIOException@@@8
_DATA	SEGMENT DWORD USE32 PUBLIC 'DATA'
_DATA	ENDS
;	COMDAT ??_7FileNotOpenedException@@6B@
CONST	SEGMENT DWORD USE32 PUBLIC 'CONST'
CONST	ENDS
;	COMDAT ??_R1A@A@3A@ios_base@_STL@@8
rdata$r	SEGMENT DWORD USE32 PUBLIC 'CONST'
rdata$r	ENDS
;	COMDAT ??_R2PortalException@@8
rdata$r	SEGMENT DWORD USE32 PUBLIC 'CONST'
rdata$r	ENDS
;	COMDAT ??_R4FileAlreadyExistException@@6B@
rdata$r	SEGMENT DWORD USE32 PUBLIC 'CONST'
rdata$r	ENDS
;	COMDAT ??_R1A@?0A@A@?$codecvt@GDH@_STL@@8
rdata$r	SEGMENT DWORD USE32 PUBLIC 'CONST'
rdata$r	ENDS
;	COMDAT ??_R1A@?0A@A@Exception@@8
rdata$r	SEGMENT DWORD USE32 PUBLIC 'CONST'
rdata$r	ENDS
;	COMDAT ??_R2FileNotExistException@@8
rdata$r	SEGMENT DWORD USE32 PUBLIC 'CONST'
rdata$r	ENDS
;	COMDAT ??_R1A@?0A@A@range_error@_STL@@8
rdata$r	SEGMENT DWORD USE32 PUBLIC 'CONST'
rdata$r	ENDS
;	COMDAT ??_R1A@?0A@A@?$basic_istream@DV?$char_traits@D@_STL@@@_STL@@8
rdata$r	SEGMENT DWORD USE32 PUBLIC 'CONST'
rdata$r	ENDS
;	COMDAT ??_R2MutexAttrException@@8
rdata$r	SEGMENT DWORD USE32 PUBLIC 'CONST'
rdata$r	ENDS
;	COMDAT ??_R1A@?0A@A@__Named_exception@_STL@@8
rdata$r	SEGMENT DWORD USE32 PUBLIC 'CONST'
rdata$r	ENDS
;	COMDAT ??_R4?$ctype@G@_STL@@6B@
rdata$r	SEGMENT DWORD USE32 PUBLIC 'CONST'
rdata$r	ENDS
;	COMDAT ??_R2?$basic_filebuf@DV?$char_traits@D@_STL@@@_STL@@8
rdata$r	SEGMENT DWORD USE32 PUBLIC 'CONST'
rdata$r	ENDS
;	COMDAT ??_R0?AVThreadException@@@8
_DATA	SEGMENT DWORD USE32 PUBLIC 'DATA'
_DATA	ENDS
;	COMDAT ??_R4ProtocolException@@6B@
rdata$r	SEGMENT DWORD USE32 PUBLIC 'CONST'
rdata$r	ENDS
;	COMDAT ??_R3LogError@@8
rdata$r	SEGMENT DWORD USE32 PUBLIC 'CONST'
rdata$r	ENDS
;	COMDAT ??_R3IOException@@8
rdata$r	SEGMENT DWORD USE32 PUBLIC 'CONST'
rdata$r	ENDS
;	COMDAT ??_R4RuntimeException@@6B@
rdata$r	SEGMENT DWORD USE32 PUBLIC 'CONST'
rdata$r	ENDS
;	COMDAT ??_R2NoSuchElementException@@8
rdata$r	SEGMENT DWORD USE32 PUBLIC 'CONST'
rdata$r	ENDS
;	COMDAT ??_R1A@?0A@A@SQLConnectException@@8
rdata$r	SEGMENT DWORD USE32 PUBLIC 'CONST'
rdata$r	ENDS
;	COMDAT ??_R4AssertionError@@6B@
rdata$r	SEGMENT DWORD USE32 PUBLIC 'CONST'
rdata$r	ENDS
;	COMDAT ??_R2IdleException@@8
rdata$r	SEGMENT DWORD USE32 PUBLIC 'CONST'
rdata$r	ENDS
;	COMDAT ??_R3underflow_error@_STL@@8
rdata$r	SEGMENT DWORD USE32 PUBLIC 'CONST'
rdata$r	ENDS
;	COMDAT ??_R0?AV?$basic_ostream@GV?$char_traits@G@_STL@@@_STL@@@8
_DATA	SEGMENT DWORD USE32 PUBLIC 'DATA'
_DATA	ENDS
;	COMDAT ??_7DisconnectException@@6B@
CONST	SEGMENT DWORD USE32 PUBLIC 'CONST'
CONST	ENDS
;	COMDAT ??_R3out_of_range@_STL@@8
rdata$r	SEGMENT DWORD USE32 PUBLIC 'CONST'
rdata$r	ENDS
;	COMDAT ??_R1A@?0A@A@OutOfBoundException@@8
rdata$r	SEGMENT DWORD USE32 PUBLIC 'CONST'
rdata$r	ENDS
;	COMDAT ??_R4?$basic_ios@DV?$char_traits@D@_STL@@@_STL@@6B@
rdata$r	SEGMENT DWORD USE32 PUBLIC 'CONST'
rdata$r	ENDS
;	COMDAT ??_R3FileAlreadyExistException@@8
rdata$r	SEGMENT DWORD USE32 PUBLIC 'CONST'
rdata$r	ENDS
;	COMDAT ??_R1A@?0A@A@Error@@8
rdata$r	SEGMENT DWORD USE32 PUBLIC 'CONST'
rdata$r	ENDS
;	COMDAT ??_R1A@?0A@A@PortalException@@8
rdata$r	SEGMENT DWORD USE32 PUBLIC 'CONST'
rdata$r	ENDS
;	COMDAT ??_R1A@?0A@A@InvalidArgumentException@@8
rdata$r	SEGMENT DWORD USE32 PUBLIC 'CONST'
rdata$r	ENDS
;	COMDAT ??_R3OutOfBoundException@@8
rdata$r	SEGMENT DWORD USE32 PUBLIC 'CONST'
rdata$r	ENDS
;	COMDAT ??_R3?$numpunct@G@_STL@@8
rdata$r	SEGMENT DWORD USE32 PUBLIC 'CONST'
rdata$r	ENDS
;	COMDAT ??_R3overflow_error@_STL@@8
rdata$r	SEGMENT DWORD USE32 PUBLIC 'CONST'
rdata$r	ENDS
;	COMDAT ??_R2UnsupportedError@@8
rdata$r	SEGMENT DWORD USE32 PUBLIC 'CONST'
rdata$r	ENDS
;	COMDAT ??_R1A@?0A@A@bad_alloc@std@@8
rdata$r	SEGMENT DWORD USE32 PUBLIC 'CONST'
rdata$r	ENDS
;	COMDAT ??_R1A@?0A@A@GameError@@8
rdata$r	SEGMENT DWORD USE32 PUBLIC 'CONST'
rdata$r	ENDS
;	COMDAT ??_R4?$numpunct@D@_STL@@6B@
rdata$r	SEGMENT DWORD USE32 PUBLIC 'CONST'
rdata$r	ENDS
;	COMDAT ??_R2invalid_argument@_STL@@8
rdata$r	SEGMENT DWORD USE32 PUBLIC 'CONST'
rdata$r	ENDS
;	COMDAT ??_R3?$numpunct@D@_STL@@8
rdata$r	SEGMENT DWORD USE32 PUBLIC 'CONST'
rdata$r	ENDS
;	COMDAT ??_R4out_of_range@_STL@@6B@
rdata$r	SEGMENT DWORD USE32 PUBLIC 'CONST'
rdata$r	ENDS
;	COMDAT ??_R2bad_alloc@std@@8
rdata$r	SEGMENT DWORD USE32 PUBLIC 'CONST'
rdata$r	ENDS
;	COMDAT ??_R3InvalidArgumentException@@8
rdata$r	SEGMENT DWORD USE32 PUBLIC 'CONST'
rdata$r	ENDS
;	COMDAT ??_R2DuplicatedException@@8
rdata$r	SEGMENT DWORD USE32 PUBLIC 'CONST'
rdata$r	ENDS
;	COMDAT ??_R4DuplicatedException@@6B@
rdata$r	SEGMENT DWORD USE32 PUBLIC 'CONST'
rdata$r	ENDS
;	COMDAT ??_R3domain_error@_STL@@8
rdata$r	SEGMENT DWORD USE32 PUBLIC 'CONST'
rdata$r	ENDS
;	COMDAT ??_R2InterruptedException@@8
rdata$r	SEGMENT DWORD USE32 PUBLIC 'CONST'
rdata$r	ENDS
;	COMDAT ??_R3Exception@@8
rdata$r	SEGMENT DWORD USE32 PUBLIC 'CONST'
rdata$r	ENDS
;	COMDAT ??_7SQLConnectException@@6B@
CONST	SEGMENT DWORD USE32 PUBLIC 'CONST'
CONST	ENDS
;	COMDAT ??_R1A@?0A@A@length_error@_STL@@8
rdata$r	SEGMENT DWORD USE32 PUBLIC 'CONST'
rdata$r	ENDS
;	COMDAT ??_R3SQLException@@8
rdata$r	SEGMENT DWORD USE32 PUBLIC 'CONST'
rdata$r	ENDS
;	COMDAT ??_7SemaphoreException@@6B@
CONST	SEGMENT DWORD USE32 PUBLIC 'CONST'
CONST	ENDS
;	COMDAT ??_R1A@?0A@A@DuplicatedException@@8
rdata$r	SEGMENT DWORD USE32 PUBLIC 'CONST'
rdata$r	ENDS
;	COMDAT ??_R3CondVarException@@8
rdata$r	SEGMENT DWORD USE32 PUBLIC 'CONST'
rdata$r	ENDS
;	COMDAT ??_R2CondVarException@@8
rdata$r	SEGMENT DWORD USE32 PUBLIC 'CONST'
rdata$r	ENDS
;	COMDAT ??_7LogError@@6B@
CONST	SEGMENT DWORD USE32 PUBLIC 'CONST'
CONST	ENDS
;	COMDAT ??_R2FileNotOpenedException@@8
rdata$r	SEGMENT DWORD USE32 PUBLIC 'CONST'
rdata$r	ENDS
;	COMDAT ??_R2overflow_error@_STL@@8
rdata$r	SEGMENT DWORD USE32 PUBLIC 'CONST'
rdata$r	ENDS
;	COMDAT ??_R2?$numpunct@D@_STL@@8
rdata$r	SEGMENT DWORD USE32 PUBLIC 'CONST'
rdata$r	ENDS
;	COMDAT ??_R1A@?0A@A@exception@@8
rdata$r	SEGMENT DWORD USE32 PUBLIC 'CONST'
rdata$r	ENDS
;	COMDAT ??_7GameException@@6B@
CONST	SEGMENT DWORD USE32 PUBLIC 'CONST'
CONST	ENDS
;	COMDAT ??_R2GameError@@8
rdata$r	SEGMENT DWORD USE32 PUBLIC 'CONST'
rdata$r	ENDS
;	COMDAT ??_R0?AVSQLException@@@8
_DATA	SEGMENT DWORD USE32 PUBLIC 'DATA'
_DATA	ENDS
;	COMDAT ??_R1M@?0A@A@ctype_base@_STL@@8
rdata$r	SEGMENT DWORD USE32 PUBLIC 'CONST'
rdata$r	ENDS
;	COMDAT ??_R3PortalException@@8
rdata$r	SEGMENT DWORD USE32 PUBLIC 'CONST'
rdata$r	ENDS
;	COMDAT ??_R0?AV?$basic_ios@GV?$char_traits@G@_STL@@@_STL@@@8
_DATA	SEGMENT DWORD USE32 PUBLIC 'DATA'
_DATA	ENDS
;	COMDAT ??_R0?AVinvalid_argument@_STL@@@8
_DATA	SEGMENT DWORD USE32 PUBLIC 'DATA'
_DATA	ENDS
;	COMDAT ??_7OutOfBoundException@@6B@
CONST	SEGMENT DWORD USE32 PUBLIC 'CONST'
CONST	ENDS
;	COMDAT ??_R2FileAlreadyExistException@@8
rdata$r	SEGMENT DWORD USE32 PUBLIC 'CONST'
rdata$r	ENDS
;	COMDAT ??_R1A@?0A@A@?$basic_streambuf@DV?$char_traits@D@_STL@@@_STL@@8
rdata$r	SEGMENT DWORD USE32 PUBLIC 'CONST'
rdata$r	ENDS
;	COMDAT ??_R0?AVIgnorePacketException@@@8
_DATA	SEGMENT DWORD USE32 PUBLIC 'DATA'
_DATA	ENDS
;	COMDAT ??_R0?AVBindException@@@8
_DATA	SEGMENT DWORD USE32 PUBLIC 'DATA'
_DATA	ENDS
;	COMDAT ??_7Error@@6B@
CONST	SEGMENT DWORD USE32 PUBLIC 'CONST'
CONST	ENDS
;	COMDAT ??_R1A@?0A@A@?$basic_istream@GV?$char_traits@G@_STL@@@_STL@@8
rdata$r	SEGMENT DWORD USE32 PUBLIC 'CONST'
rdata$r	ENDS
;	COMDAT ??_R1A@?0A@A@ProtocolException@@8
rdata$r	SEGMENT DWORD USE32 PUBLIC 'CONST'
rdata$r	ENDS
;	COMDAT ??_R4InvalidProtocolException@@6B@
rdata$r	SEGMENT DWORD USE32 PUBLIC 'CONST'
rdata$r	ENDS
;	COMDAT ??_7InterruptedException@@6B@
CONST	SEGMENT DWORD USE32 PUBLIC 'CONST'
CONST	ENDS
;	COMDAT ??_R4FileNotExistException@@6B@
rdata$r	SEGMENT DWORD USE32 PUBLIC 'CONST'
rdata$r	ENDS
;	COMDAT ??_R4Exception@@6B@
rdata$r	SEGMENT DWORD USE32 PUBLIC 'CONST'
rdata$r	ENDS
;	COMDAT ??_R2?$ctype@G@_STL@@8
rdata$r	SEGMENT DWORD USE32 PUBLIC 'CONST'
rdata$r	ENDS
;	COMDAT ??_R4InvalidArgumentException@@6B@
rdata$r	SEGMENT DWORD USE32 PUBLIC 'CONST'
rdata$r	ENDS
;	COMDAT ??_R1A@?0A@A@SQLQueryException@@8
rdata$r	SEGMENT DWORD USE32 PUBLIC 'CONST'
rdata$r	ENDS
;	COMDAT ??_R2AssertionError@@8
rdata$r	SEGMENT DWORD USE32 PUBLIC 'CONST'
rdata$r	ENDS
;	COMDAT ??_7BindException@@6B@
CONST	SEGMENT DWORD USE32 PUBLIC 'CONST'
CONST	ENDS
;	COMDAT ??_R3range_error@_STL@@8
rdata$r	SEGMENT DWORD USE32 PUBLIC 'CONST'
rdata$r	ENDS
;	COMDAT ??_R4TimeoutException@@6B@
rdata$r	SEGMENT DWORD USE32 PUBLIC 'CONST'
rdata$r	ENDS
;	COMDAT ??_R3ThreadException@@8
rdata$r	SEGMENT DWORD USE32 PUBLIC 'CONST'
rdata$r	ENDS
;	COMDAT ??_R3?$basic_streambuf@DV?$char_traits@D@_STL@@@_STL@@8
rdata$r	SEGMENT DWORD USE32 PUBLIC 'CONST'
rdata$r	ENDS
;	COMDAT ??_R0?AVout_of_range@_STL@@@8
_DATA	SEGMENT DWORD USE32 PUBLIC 'DATA'
_DATA	ENDS
;	COMDAT ??_R2Throwable@@8
rdata$r	SEGMENT DWORD USE32 PUBLIC 'CONST'
rdata$r	ENDS
;	COMDAT ??_R1A@?0A@A@FileNotOpenedException@@8
rdata$r	SEGMENT DWORD USE32 PUBLIC 'CONST'
rdata$r	ENDS
;	COMDAT ??_R2?$numpunct@G@_STL@@8
rdata$r	SEGMENT DWORD USE32 PUBLIC 'CONST'
rdata$r	ENDS
;	COMDAT ??_R0?AVInterruptedException@@@8
_DATA	SEGMENT DWORD USE32 PUBLIC 'DATA'
_DATA	ENDS
;	COMDAT ??_R1A@?0A@A@NonBlockingIOException@@8
rdata$r	SEGMENT DWORD USE32 PUBLIC 'CONST'
rdata$r	ENDS
;	COMDAT ??_R0?AVGameException@@@8
_DATA	SEGMENT DWORD USE32 PUBLIC 'DATA'
_DATA	ENDS
;	COMDAT ??_R2?$basic_istream@GV?$char_traits@G@_STL@@@_STL@@8
rdata$r	SEGMENT DWORD USE32 PUBLIC 'CONST'
rdata$r	ENDS
;	COMDAT ??_7ConnectException@@6B@
CONST	SEGMENT DWORD USE32 PUBLIC 'CONST'
CONST	ENDS
;	COMDAT ??_R1A@?0A@A@ConnectException@@8
rdata$r	SEGMENT DWORD USE32 PUBLIC 'CONST'
rdata$r	ENDS
;	COMDAT ??_R4FileNotOpenedException@@6B@
rdata$r	SEGMENT DWORD USE32 PUBLIC 'CONST'
rdata$r	ENDS
;	COMDAT ??_R0?AVNonBlockingIOException@@@8
_DATA	SEGMENT DWORD USE32 PUBLIC 'DATA'
_DATA	ENDS
;	COMDAT ??_R3BindException@@8
rdata$r	SEGMENT DWORD USE32 PUBLIC 'CONST'
rdata$r	ENDS
;	COMDAT ??_R1A@?0A@A@RuntimeException@@8
rdata$r	SEGMENT DWORD USE32 PUBLIC 'CONST'
rdata$r	ENDS
;	COMDAT ??_R2SocketException@@8
rdata$r	SEGMENT DWORD USE32 PUBLIC 'CONST'
rdata$r	ENDS
;	COMDAT ??_7RuntimeException@@6B@
CONST	SEGMENT DWORD USE32 PUBLIC 'CONST'
CONST	ENDS
;	COMDAT ??_7GameError@@6B@
CONST	SEGMENT DWORD USE32 PUBLIC 'CONST'
CONST	ENDS
;	COMDAT ??_R4InterruptedException@@6B@
rdata$r	SEGMENT DWORD USE32 PUBLIC 'CONST'
rdata$r	ENDS
;	COMDAT ??_R4logic_error@_STL@@6B@
rdata$r	SEGMENT DWORD USE32 PUBLIC 'CONST'
rdata$r	ENDS
;	COMDAT ??_R4GameError@@6B@
rdata$r	SEGMENT DWORD USE32 PUBLIC 'CONST'
rdata$r	ENDS
;	COMDAT ??_7InsufficientDataException@@6B@
CONST	SEGMENT DWORD USE32 PUBLIC 'CONST'
CONST	ENDS
;	COMDAT ??_R2OutOfBoundException@@8
rdata$r	SEGMENT DWORD USE32 PUBLIC 'CONST'
rdata$r	ENDS
;	COMDAT ??_7SQLQueryException@@6B@
CONST	SEGMENT DWORD USE32 PUBLIC 'CONST'
CONST	ENDS
;	COMDAT ??_R1A@?0A@A@Throwable@@8
rdata$r	SEGMENT DWORD USE32 PUBLIC 'CONST'
rdata$r	ENDS
;	COMDAT ??_R4?$basic_ios@GV?$char_traits@G@_STL@@@_STL@@6B@
rdata$r	SEGMENT DWORD USE32 PUBLIC 'CONST'
rdata$r	ENDS
;	COMDAT ??_R0?AV?$basic_ios@DV?$char_traits@D@_STL@@@_STL@@@8
_DATA	SEGMENT DWORD USE32 PUBLIC 'DATA'
_DATA	ENDS
;	COMDAT ??_R3?$basic_ostream@DV?$char_traits@D@_STL@@@_STL@@8
rdata$r	SEGMENT DWORD USE32 PUBLIC 'CONST'
rdata$r	ENDS
;	COMDAT ??_R2SQLWarning@@8
rdata$r	SEGMENT DWORD USE32 PUBLIC 'CONST'
rdata$r	ENDS
;	COMDAT ??_R4ThreadException@@6B@
rdata$r	SEGMENT DWORD USE32 PUBLIC 'CONST'
rdata$r	ENDS
;	COMDAT ??_R4?$basic_istream@GV?$char_traits@G@_STL@@@_STL@@6B@
rdata$r	SEGMENT DWORD USE32 PUBLIC 'CONST'
rdata$r	ENDS
;	COMDAT ??_R4SemaphoreException@@6B@
rdata$r	SEGMENT DWORD USE32 PUBLIC 'CONST'
rdata$r	ENDS
;	COMDAT ??_R3FileNotOpenedException@@8
rdata$r	SEGMENT DWORD USE32 PUBLIC 'CONST'
rdata$r	ENDS
;	COMDAT ??_R2?$basic_istream@DV?$char_traits@D@_STL@@@_STL@@8
rdata$r	SEGMENT DWORD USE32 PUBLIC 'CONST'
rdata$r	ENDS
;	COMDAT ??_7MutexException@@6B@
CONST	SEGMENT DWORD USE32 PUBLIC 'CONST'
CONST	ENDS
;	COMDAT ??_R4?$codecvt@DDH@_STL@@6B@
rdata$r	SEGMENT DWORD USE32 PUBLIC 'CONST'
rdata$r	ENDS
;	COMDAT ??_R3GameError@@8
rdata$r	SEGMENT DWORD USE32 PUBLIC 'CONST'
rdata$r	ENDS
;	COMDAT ??_R0?AVPortalException@@@8
_DATA	SEGMENT DWORD USE32 PUBLIC 'DATA'
_DATA	ENDS
;	COMDAT ??_R2NonBlockingIOException@@8
rdata$r	SEGMENT DWORD USE32 PUBLIC 'CONST'
rdata$r	ENDS
;	COMDAT ??_R4IOException@@6B@
rdata$r	SEGMENT DWORD USE32 PUBLIC 'CONST'
rdata$r	ENDS
;	COMDAT ??_7NoSuchElementException@@6B@
CONST	SEGMENT DWORD USE32 PUBLIC 'CONST'
CONST	ENDS
;	COMDAT ??_7DuplicatedException@@6B@
CONST	SEGMENT DWORD USE32 PUBLIC 'CONST'
CONST	ENDS
;	COMDAT ??_R3?$ctype@G@_STL@@8
rdata$r	SEGMENT DWORD USE32 PUBLIC 'CONST'
rdata$r	ENDS
;	COMDAT ??_R1A@?0A@A@InterruptedIOException@@8
rdata$r	SEGMENT DWORD USE32 PUBLIC 'CONST'
rdata$r	ENDS
;	COMDAT ??_7ThreadException@@6B@
CONST	SEGMENT DWORD USE32 PUBLIC 'CONST'
CONST	ENDS
;	COMDAT ??_R0?AVIdleException@@@8
_DATA	SEGMENT DWORD USE32 PUBLIC 'DATA'
_DATA	ENDS
;	COMDAT ??_R1A@?0A@A@FileAlreadyExistException@@8
rdata$r	SEGMENT DWORD USE32 PUBLIC 'CONST'
rdata$r	ENDS
;	COMDAT ??_R1A@?0A@A@?$numpunct@G@_STL@@8
rdata$r	SEGMENT DWORD USE32 PUBLIC 'CONST'
rdata$r	ENDS
;	COMDAT ??_R4MutexException@@6B@
rdata$r	SEGMENT DWORD USE32 PUBLIC 'CONST'
rdata$r	ENDS
;	COMDAT ??_R3invalid_argument@_STL@@8
rdata$r	SEGMENT DWORD USE32 PUBLIC 'CONST'
rdata$r	ENDS
;	COMDAT ??_R3bad_exception@std@@8
rdata$r	SEGMENT DWORD USE32 PUBLIC 'CONST'
rdata$r	ENDS
;	COMDAT ??_R4range_error@_STL@@6B@
rdata$r	SEGMENT DWORD USE32 PUBLIC 'CONST'
rdata$r	ENDS
;	COMDAT ??_R1M@?0A@A@codecvt_base@_STL@@8
rdata$r	SEGMENT DWORD USE32 PUBLIC 'CONST'
rdata$r	ENDS
;	COMDAT ??_R0?AVexception@@@8
_DATA	SEGMENT DWORD USE32 PUBLIC 'DATA'
_DATA	ENDS
;	COMDAT ??_R3SQLConnectException@@8
rdata$r	SEGMENT DWORD USE32 PUBLIC 'CONST'
rdata$r	ENDS
;	COMDAT ??_R3IdleException@@8
rdata$r	SEGMENT DWORD USE32 PUBLIC 'CONST'
rdata$r	ENDS
;	COMDAT ??_R3facet@locale@_STL@@8
rdata$r	SEGMENT DWORD USE32 PUBLIC 'CONST'
rdata$r	ENDS
;	COMDAT ??_R0?AVdomain_error@_STL@@@8
_DATA	SEGMENT DWORD USE32 PUBLIC 'DATA'
_DATA	ENDS
;	COMDAT ??_R0?AV?$basic_istream@DV?$char_traits@D@_STL@@@_STL@@@8
_DATA	SEGMENT DWORD USE32 PUBLIC 'DATA'
_DATA	ENDS
;	COMDAT ??_R1A@?0A@A@invalid_argument@_STL@@8
rdata$r	SEGMENT DWORD USE32 PUBLIC 'CONST'
rdata$r	ENDS
;	COMDAT ??_R4runtime_error@_STL@@6B@
rdata$r	SEGMENT DWORD USE32 PUBLIC 'CONST'
rdata$r	ENDS
;	COMDAT ??_R0?AVlength_error@_STL@@@8
_DATA	SEGMENT DWORD USE32 PUBLIC 'DATA'
_DATA	ENDS
;	COMDAT ??_R1A@?0A@A@EOFException@@8
rdata$r	SEGMENT DWORD USE32 PUBLIC 'CONST'
rdata$r	ENDS
;	COMDAT ??_R1A@?0A@A@?$basic_ostream@GV?$char_traits@G@_STL@@@_STL@@8
rdata$r	SEGMENT DWORD USE32 PUBLIC 'CONST'
rdata$r	ENDS
;	COMDAT ??_R0?AV?$basic_istream@GV?$char_traits@G@_STL@@@_STL@@@8
_DATA	SEGMENT DWORD USE32 PUBLIC 'DATA'
_DATA	ENDS
;	COMDAT ??_R2LogError@@8
rdata$r	SEGMENT DWORD USE32 PUBLIC 'CONST'
rdata$r	ENDS
;	COMDAT ??_R2?$basic_ios@GV?$char_traits@G@_STL@@@_STL@@8
rdata$r	SEGMENT DWORD USE32 PUBLIC 'CONST'
rdata$r	ENDS
;	COMDAT ??_R3?$codecvt@GDH@_STL@@8
rdata$r	SEGMENT DWORD USE32 PUBLIC 'CONST'
rdata$r	ENDS
;	COMDAT ??_R1A@?0A@A@ios_base@_STL@@8
rdata$r	SEGMENT DWORD USE32 PUBLIC 'CONST'
rdata$r	ENDS
;	COMDAT ??_R1A@?0A@A@?$basic_filebuf@DV?$char_traits@D@_STL@@@_STL@@8
rdata$r	SEGMENT DWORD USE32 PUBLIC 'CONST'
rdata$r	ENDS
;	COMDAT ??_R3UnknownError@@8
rdata$r	SEGMENT DWORD USE32 PUBLIC 'CONST'
rdata$r	ENDS
;	COMDAT ??_R3ConnectException@@8
rdata$r	SEGMENT DWORD USE32 PUBLIC 'CONST'
rdata$r	ENDS
;	COMDAT ??_R2?$codecvt@GDH@_STL@@8
rdata$r	SEGMENT DWORD USE32 PUBLIC 'CONST'
rdata$r	ENDS
;	COMDAT ??_R1A@?0A@A@ThreadException@@8
rdata$r	SEGMENT DWORD USE32 PUBLIC 'CONST'
rdata$r	ENDS
;	COMDAT ??_R3bad_alloc@std@@8
rdata$r	SEGMENT DWORD USE32 PUBLIC 'CONST'
rdata$r	ENDS
;	COMDAT ??_R3?$basic_ios@GV?$char_traits@G@_STL@@@_STL@@8
rdata$r	SEGMENT DWORD USE32 PUBLIC 'CONST'
rdata$r	ENDS
;	COMDAT ??_R2ProtocolException@@8
rdata$r	SEGMENT DWORD USE32 PUBLIC 'CONST'
rdata$r	ENDS
;	COMDAT ??_R4facet@locale@_STL@@6B@
rdata$r	SEGMENT DWORD USE32 PUBLIC 'CONST'
rdata$r	ENDS
;	COMDAT ??_R0?AVbad_exception@std@@@8
_DATA	SEGMENT DWORD USE32 PUBLIC 'DATA'
_DATA	ENDS
;	COMDAT ??_R2SQLQueryException@@8
rdata$r	SEGMENT DWORD USE32 PUBLIC 'CONST'
rdata$r	ENDS
;	COMDAT ??_R4SQLWarning@@6B@
rdata$r	SEGMENT DWORD USE32 PUBLIC 'CONST'
rdata$r	ENDS
;	COMDAT ??_R2TimeoutException@@8
rdata$r	SEGMENT DWORD USE32 PUBLIC 'CONST'
rdata$r	ENDS
;	COMDAT ??_R2RuntimeException@@8
rdata$r	SEGMENT DWORD USE32 PUBLIC 'CONST'
rdata$r	ENDS
;	COMDAT ??_R2SemaphoreException@@8
rdata$r	SEGMENT DWORD USE32 PUBLIC 'CONST'
rdata$r	ENDS
;	COMDAT ??_R4?$codecvt@GDH@_STL@@6B@
rdata$r	SEGMENT DWORD USE32 PUBLIC 'CONST'
rdata$r	ENDS
;	COMDAT ??_R1A@?0A@A@SQLException@@8
rdata$r	SEGMENT DWORD USE32 PUBLIC 'CONST'
rdata$r	ENDS
;	COMDAT ??_R4SQLQueryException@@6B@
rdata$r	SEGMENT DWORD USE32 PUBLIC 'CONST'
rdata$r	ENDS
;	COMDAT ??_7PortalException@@6B@
CONST	SEGMENT DWORD USE32 PUBLIC 'CONST'
CONST	ENDS
;	COMDAT ??_R1A@?0A@A@DisconnectException@@8
rdata$r	SEGMENT DWORD USE32 PUBLIC 'CONST'
rdata$r	ENDS
;	COMDAT ??_R2bad_exception@std@@8
rdata$r	SEGMENT DWORD USE32 PUBLIC 'CONST'
rdata$r	ENDS
;	COMDAT ??_R4LogError@@6B@
rdata$r	SEGMENT DWORD USE32 PUBLIC 'CONST'
rdata$r	ENDS
;	COMDAT ??_R3TimeoutException@@8
rdata$r	SEGMENT DWORD USE32 PUBLIC 'CONST'
rdata$r	ENDS
;	COMDAT ??_R0?AVConnectException@@@8
_DATA	SEGMENT DWORD USE32 PUBLIC 'DATA'
_DATA	ENDS
;	COMDAT ??_R2?$basic_streambuf@DV?$char_traits@D@_STL@@@_STL@@8
rdata$r	SEGMENT DWORD USE32 PUBLIC 'CONST'
rdata$r	ENDS
;	COMDAT ??_R4invalid_argument@_STL@@6B@
rdata$r	SEGMENT DWORD USE32 PUBLIC 'CONST'
rdata$r	ENDS
;	COMDAT ??_R0?AVbad_alloc@std@@@8
_DATA	SEGMENT DWORD USE32 PUBLIC 'DATA'
_DATA	ENDS
;	COMDAT ??_R2?$basic_ostream@DV?$char_traits@D@_STL@@@_STL@@8
rdata$r	SEGMENT DWORD USE32 PUBLIC 'CONST'
rdata$r	ENDS
;	COMDAT ??_R4InsufficientDataException@@6B@
rdata$r	SEGMENT DWORD USE32 PUBLIC 'CONST'
rdata$r	ENDS
;	COMDAT ??_R1A@?0A@A@SemaphoreException@@8
rdata$r	SEGMENT DWORD USE32 PUBLIC 'CONST'
rdata$r	ENDS
;	COMDAT ??_R1A@?0A@A@AssertionError@@8
rdata$r	SEGMENT DWORD USE32 PUBLIC 'CONST'
rdata$r	ENDS
;	COMDAT ??_R2SQLException@@8
rdata$r	SEGMENT DWORD USE32 PUBLIC 'CONST'
rdata$r	ENDS
;	COMDAT ??_R0?AVctype_base@_STL@@@8
_DATA	SEGMENT DWORD USE32 PUBLIC 'DATA'
_DATA	ENDS
;	COMDAT ??_R2InvalidArgumentException@@8
rdata$r	SEGMENT DWORD USE32 PUBLIC 'CONST'
rdata$r	ENDS
;	COMDAT ??_R3runtime_error@_STL@@8
rdata$r	SEGMENT DWORD USE32 PUBLIC 'CONST'
rdata$r	ENDS
;	COMDAT ??_7ProtocolException@@6B@
CONST	SEGMENT DWORD USE32 PUBLIC 'CONST'
CONST	ENDS
;	COMDAT ??_R2logic_error@_STL@@8
rdata$r	SEGMENT DWORD USE32 PUBLIC 'CONST'
rdata$r	ENDS
;	COMDAT ??_R0?AV?$codecvt@GDH@_STL@@@8
_DATA	SEGMENT DWORD USE32 PUBLIC 'DATA'
_DATA	ENDS
;	COMDAT ??_R1A@?0A@A@FileNotExistException@@8
rdata$r	SEGMENT DWORD USE32 PUBLIC 'CONST'
rdata$r	ENDS
;	COMDAT ??_R0?AVUnsupportedError@@@8
_DATA	SEGMENT DWORD USE32 PUBLIC 'DATA'
_DATA	ENDS
;	COMDAT ??_R0?AV?$basic_streambuf@DV?$char_traits@D@_STL@@@_STL@@@8
_DATA	SEGMENT DWORD USE32 PUBLIC 'DATA'
_DATA	ENDS
;	COMDAT ??_R0?AVAssertionError@@@8
_DATA	SEGMENT DWORD USE32 PUBLIC 'DATA'
_DATA	ENDS
;	COMDAT ??_R4PortalException@@6B@
rdata$r	SEGMENT DWORD USE32 PUBLIC 'CONST'
rdata$r	ENDS
;	COMDAT ??_R1A@A@3BA@?$basic_ios@DV?$char_traits@D@_STL@@@_STL@@8
rdata$r	SEGMENT DWORD USE32 PUBLIC 'CONST'
rdata$r	ENDS
;	COMDAT ??_R1A@?0A@A@underflow_error@_STL@@8
rdata$r	SEGMENT DWORD USE32 PUBLIC 'CONST'
rdata$r	ENDS
;	COMDAT ??_R0?AVoverflow_error@_STL@@@8
_DATA	SEGMENT DWORD USE32 PUBLIC 'DATA'
_DATA	ENDS
;	COMDAT ??_R3?$basic_filebuf@DV?$char_traits@D@_STL@@@_STL@@8
rdata$r	SEGMENT DWORD USE32 PUBLIC 'CONST'
rdata$r	ENDS
;	COMDAT ??_R1A@?0A@A@?$basic_ios@DV?$char_traits@D@_STL@@@_STL@@8
rdata$r	SEGMENT DWORD USE32 PUBLIC 'CONST'
rdata$r	ENDS
;	COMDAT ??_R0?AVInterruptedIOException@@@8
_DATA	SEGMENT DWORD USE32 PUBLIC 'DATA'
_DATA	ENDS
;	COMDAT ??_R3?$basic_istream@GV?$char_traits@G@_STL@@@_STL@@8
rdata$r	SEGMENT DWORD USE32 PUBLIC 'CONST'
rdata$r	ENDS
;	COMDAT ??_R0?AVUnknownError@@@8
_DATA	SEGMENT DWORD USE32 PUBLIC 'DATA'
_DATA	ENDS
;	COMDAT ??_R0?AVunderflow_error@_STL@@@8
_DATA	SEGMENT DWORD USE32 PUBLIC 'DATA'
_DATA	ENDS
;	COMDAT ??_R2?$basic_ios@DV?$char_traits@D@_STL@@@_STL@@8
rdata$r	SEGMENT DWORD USE32 PUBLIC 'CONST'
rdata$r	ENDS
;	COMDAT ??_R3?$basic_ostream@GV?$char_traits@G@_STL@@@_STL@@8
rdata$r	SEGMENT DWORD USE32 PUBLIC 'CONST'
rdata$r	ENDS
;	COMDAT ??_R3logic_error@_STL@@8
rdata$r	SEGMENT DWORD USE32 PUBLIC 'CONST'
rdata$r	ENDS
;	COMDAT ??_7UnsupportedError@@6B@
CONST	SEGMENT DWORD USE32 PUBLIC 'CONST'
CONST	ENDS
;	COMDAT ??_R0?AVSemaphoreException@@@8
_DATA	SEGMENT DWORD USE32 PUBLIC 'DATA'
_DATA	ENDS
;	COMDAT ??_R0?AU_Refcount_Base@_STL@@@8
_DATA	SEGMENT DWORD USE32 PUBLIC 'DATA'
_DATA	ENDS
;	COMDAT ??_R2InterruptedIOException@@8
rdata$r	SEGMENT DWORD USE32 PUBLIC 'CONST'
rdata$r	ENDS
;	COMDAT ??_7IdleException@@6B@
CONST	SEGMENT DWORD USE32 PUBLIC 'CONST'
CONST	ENDS
;	COMDAT ??_R3FileNotExistException@@8
rdata$r	SEGMENT DWORD USE32 PUBLIC 'CONST'
rdata$r	ENDS
;	COMDAT ??_R0?AV?$basic_ostream@DV?$char_traits@D@_STL@@@_STL@@@8
_DATA	SEGMENT DWORD USE32 PUBLIC 'DATA'
_DATA	ENDS
;	COMDAT ??_R4DisconnectException@@6B@
rdata$r	SEGMENT DWORD USE32 PUBLIC 'CONST'
rdata$r	ENDS
;	COMDAT ??_R4GameException@@6B@
rdata$r	SEGMENT DWORD USE32 PUBLIC 'CONST'
rdata$r	ENDS
;	COMDAT ??_R3DisconnectException@@8
rdata$r	SEGMENT DWORD USE32 PUBLIC 'CONST'
rdata$r	ENDS
;	COMDAT ??_R2InsufficientDataException@@8
rdata$r	SEGMENT DWORD USE32 PUBLIC 'CONST'
rdata$r	ENDS
;	COMDAT ??_R0?AV?$ctype@G@_STL@@@8
_DATA	SEGMENT DWORD USE32 PUBLIC 'DATA'
_DATA	ENDS
;	COMDAT ??_R3SemaphoreException@@8
rdata$r	SEGMENT DWORD USE32 PUBLIC 'CONST'
rdata$r	ENDS
;	COMDAT ??_R0?AVfacet@locale@_STL@@@8
_DATA	SEGMENT DWORD USE32 PUBLIC 'DATA'
_DATA	ENDS
;	COMDAT ??_7MutexAttrException@@6B@
CONST	SEGMENT DWORD USE32 PUBLIC 'CONST'
CONST	ENDS
;	COMDAT ??_R3GameException@@8
rdata$r	SEGMENT DWORD USE32 PUBLIC 'CONST'
rdata$r	ENDS
;	COMDAT ??_R0?AV?$numpunct@G@_STL@@@8
_DATA	SEGMENT DWORD USE32 PUBLIC 'DATA'
_DATA	ENDS
;	COMDAT ??_R1A@?0A@A@InsufficientDataException@@8
rdata$r	SEGMENT DWORD USE32 PUBLIC 'CONST'
rdata$r	ENDS
;	COMDAT ??_R1A@?0A@A@out_of_range@_STL@@8
rdata$r	SEGMENT DWORD USE32 PUBLIC 'CONST'
rdata$r	ENDS
;	COMDAT ??_7InvalidArgumentException@@6B@
CONST	SEGMENT DWORD USE32 PUBLIC 'CONST'
CONST	ENDS
;	COMDAT ??_R0?AVInvalidArgumentException@@@8
_DATA	SEGMENT DWORD USE32 PUBLIC 'DATA'
_DATA	ENDS
;	COMDAT ??_7?$basic_streambuf@DV?$char_traits@D@_STL@@@_STL@@6B@
CONST	SEGMENT DWORD USE32 PUBLIC 'CONST'
CONST	ENDS
;	COMDAT ??_7runtime_error@_STL@@6B@
CONST	SEGMENT DWORD USE32 PUBLIC 'CONST'
CONST	ENDS
;	COMDAT ??_7?$numpunct@G@_STL@@6B@
CONST	SEGMENT DWORD USE32 PUBLIC 'CONST'
CONST	ENDS
;	COMDAT ??_7?$ctype@G@_STL@@6B@
CONST	SEGMENT DWORD USE32 PUBLIC 'CONST'
CONST	ENDS
;	COMDAT ??_7facet@locale@_STL@@6B@
CONST	SEGMENT DWORD USE32 PUBLIC 'CONST'
CONST	ENDS
;	COMDAT ??_7overflow_error@_STL@@6B@
CONST	SEGMENT DWORD USE32 PUBLIC 'CONST'
CONST	ENDS
;	COMDAT ??_7length_error@_STL@@6B@
CONST	SEGMENT DWORD USE32 PUBLIC 'CONST'
CONST	ENDS
;	COMDAT ??_7?$basic_istream@DV?$char_traits@D@_STL@@@_STL@@6B@
CONST	SEGMENT DWORD USE32 PUBLIC 'CONST'
CONST	ENDS
;	COMDAT ??_7?$codecvt@DDH@_STL@@6B@
CONST	SEGMENT DWORD USE32 PUBLIC 'CONST'
CONST	ENDS
;	COMDAT ??_7logic_error@_STL@@6B@
CONST	SEGMENT DWORD USE32 PUBLIC 'CONST'
CONST	ENDS
;	COMDAT ??_8?$basic_ostream@DV?$char_traits@D@_STL@@@_STL@@7B@
CONST	SEGMENT DWORD USE32 PUBLIC 'CONST'
CONST	ENDS
;	COMDAT ??_7?$basic_ostream@GV?$char_traits@G@_STL@@@_STL@@6B@
CONST	SEGMENT DWORD USE32 PUBLIC 'CONST'
CONST	ENDS
;	COMDAT ??_7underflow_error@_STL@@6B@
CONST	SEGMENT DWORD USE32 PUBLIC 'CONST'
CONST	ENDS
;	COMDAT ??_7?$numpunct@D@_STL@@6B@
CONST	SEGMENT DWORD USE32 PUBLIC 'CONST'
CONST	ENDS
;	COMDAT ??_8?$basic_istream@DV?$char_traits@D@_STL@@@_STL@@7B@
CONST	SEGMENT DWORD USE32 PUBLIC 'CONST'
CONST	ENDS
;	COMDAT ??_7invalid_argument@_STL@@6B@
CONST	SEGMENT DWORD USE32 PUBLIC 'CONST'
CONST	ENDS
;	COMDAT ??_8?$basic_istream@GV?$char_traits@G@_STL@@@_STL@@7B@
CONST	SEGMENT DWORD USE32 PUBLIC 'CONST'
CONST	ENDS
;	COMDAT ??_7range_error@_STL@@6B@
CONST	SEGMENT DWORD USE32 PUBLIC 'CONST'
CONST	ENDS
;	COMDAT ??_7?$basic_ios@GV?$char_traits@G@_STL@@@_STL@@6B@
CONST	SEGMENT DWORD USE32 PUBLIC 'CONST'
CONST	ENDS
;	COMDAT ??_7?$basic_ostream@DV?$char_traits@D@_STL@@@_STL@@6B@
CONST	SEGMENT DWORD USE32 PUBLIC 'CONST'
CONST	ENDS
;	COMDAT ??_7?$codecvt@GDH@_STL@@6B@
CONST	SEGMENT DWORD USE32 PUBLIC 'CONST'
CONST	ENDS
;	COMDAT ??_7domain_error@_STL@@6B@
CONST	SEGMENT DWORD USE32 PUBLIC 'CONST'
CONST	ENDS
;	COMDAT ??_7out_of_range@_STL@@6B@
CONST	SEGMENT DWORD USE32 PUBLIC 'CONST'
CONST	ENDS
;	COMDAT ??_7?$basic_ios@DV?$char_traits@D@_STL@@@_STL@@6B@
CONST	SEGMENT DWORD USE32 PUBLIC 'CONST'
CONST	ENDS
;	COMDAT ??_8?$basic_ostream@GV?$char_traits@G@_STL@@@_STL@@7B@
CONST	SEGMENT DWORD USE32 PUBLIC 'CONST'
CONST	ENDS
;	COMDAT ??_7?$basic_istream@GV?$char_traits@G@_STL@@@_STL@@6B@
CONST	SEGMENT DWORD USE32 PUBLIC 'CONST'
CONST	ENDS
;	COMDAT ??_7?$basic_filebuf@DV?$char_traits@D@_STL@@@_STL@@6B@
CONST	SEGMENT DWORD USE32 PUBLIC 'CONST'
CONST	ENDS
;	COMDAT ??_R3UnsupportedError@@8
rdata$r	SEGMENT DWORD USE32 PUBLIC 'CONST'
rdata$r	ENDS
;	COMDAT ??_R1A@?0A@A@?$basic_ostream@DV?$char_traits@D@_STL@@@_STL@@8
rdata$r	SEGMENT DWORD USE32 PUBLIC 'CONST'
rdata$r	ENDS
;	COMDAT ??_R0?AVOutOfBoundException@@@8
_DATA	SEGMENT DWORD USE32 PUBLIC 'DATA'
_DATA	ENDS
;	COMDAT ??_R0?AVLogError@@@8
_DATA	SEGMENT DWORD USE32 PUBLIC 'DATA'
_DATA	ENDS
;	COMDAT ??_R3Throwable@@8
rdata$r	SEGMENT DWORD USE32 PUBLIC 'CONST'
rdata$r	ENDS
;	COMDAT ??_R0?AV__Named_exception@_STL@@@8
_DATA	SEGMENT DWORD USE32 PUBLIC 'DATA'
_DATA	ENDS
;	COMDAT ??_R1A@?0A@A@InvalidProtocolException@@8
rdata$r	SEGMENT DWORD USE32 PUBLIC 'CONST'
rdata$r	ENDS
;	COMDAT ??_R1A@?0A@A@MutexException@@8
rdata$r	SEGMENT DWORD USE32 PUBLIC 'CONST'
rdata$r	ENDS
;	COMDAT ??_R0?AVFileAlreadyExistException@@@8
_DATA	SEGMENT DWORD USE32 PUBLIC 'DATA'
_DATA	ENDS
;	COMDAT ??_R3?$codecvt@DDH@_STL@@8
rdata$r	SEGMENT DWORD USE32 PUBLIC 'CONST'
rdata$r	ENDS
;	COMDAT ??_R0?AVGameError@@@8
_DATA	SEGMENT DWORD USE32 PUBLIC 'DATA'
_DATA	ENDS
;	COMDAT ??_R3DuplicatedException@@8
rdata$r	SEGMENT DWORD USE32 PUBLIC 'CONST'
rdata$r	ENDS
;	COMDAT ??_7Throwable@@6B@
CONST	SEGMENT DWORD USE32 PUBLIC 'CONST'
CONST	ENDS
;	COMDAT ??_R1A@?0A@A@TimeoutException@@8
rdata$r	SEGMENT DWORD USE32 PUBLIC 'CONST'
rdata$r	ENDS
;	COMDAT ??_R0?AVMutexException@@@8
_DATA	SEGMENT DWORD USE32 PUBLIC 'DATA'
_DATA	ENDS
;	COMDAT ??_R3InterruptedIOException@@8
rdata$r	SEGMENT DWORD USE32 PUBLIC 'CONST'
rdata$r	ENDS
;	COMDAT ??_R0?AVInsufficientDataException@@@8
_DATA	SEGMENT DWORD USE32 PUBLIC 'DATA'
_DATA	ENDS
;	COMDAT ??_R2range_error@_STL@@8
rdata$r	SEGMENT DWORD USE32 PUBLIC 'CONST'
rdata$r	ENDS
;	COMDAT ??_R3SQLQueryException@@8
rdata$r	SEGMENT DWORD USE32 PUBLIC 'CONST'
rdata$r	ENDS
;	COMDAT ??_R1A@?0A@A@?$codecvt@DDH@_STL@@8
rdata$r	SEGMENT DWORD USE32 PUBLIC 'CONST'
rdata$r	ENDS
;	COMDAT ??_R4bad_exception@std@@6B@
rdata$r	SEGMENT DWORD USE32 PUBLIC 'CONST'
rdata$r	ENDS
;	COMDAT ??_R0?AVSQLQueryException@@@8
_DATA	SEGMENT DWORD USE32 PUBLIC 'DATA'
_DATA	ENDS
;	COMDAT ??_R4BindException@@6B@
rdata$r	SEGMENT DWORD USE32 PUBLIC 'CONST'
rdata$r	ENDS
;	COMDAT ??_7SocketException@@6B@
CONST	SEGMENT DWORD USE32 PUBLIC 'CONST'
CONST	ENDS
;	COMDAT ??_R3AssertionError@@8
rdata$r	SEGMENT DWORD USE32 PUBLIC 'CONST'
rdata$r	ENDS
;	COMDAT ??_R1A@?0A@A@facet@locale@_STL@@8
rdata$r	SEGMENT DWORD USE32 PUBLIC 'CONST'
rdata$r	ENDS
;	COMDAT ??_R3MutexAttrException@@8
rdata$r	SEGMENT DWORD USE32 PUBLIC 'CONST'
rdata$r	ENDS
;	COMDAT ??_R1A@?0A@A@SocketException@@8
rdata$r	SEGMENT DWORD USE32 PUBLIC 'CONST'
rdata$r	ENDS
;	COMDAT ??_R3InterruptedException@@8
rdata$r	SEGMENT DWORD USE32 PUBLIC 'CONST'
rdata$r	ENDS
;	COMDAT ??_R4?$basic_ostream@DV?$char_traits@D@_STL@@@_STL@@6B@
rdata$r	SEGMENT DWORD USE32 PUBLIC 'CONST'
rdata$r	ENDS
;	COMDAT ??_7FileNotExistException@@6B@
CONST	SEGMENT DWORD USE32 PUBLIC 'CONST'
CONST	ENDS
;	COMDAT ??_R0?AVDuplicatedException@@@8
_DATA	SEGMENT DWORD USE32 PUBLIC 'DATA'
_DATA	ENDS
;	COMDAT ??_R4?$numpunct@G@_STL@@6B@
rdata$r	SEGMENT DWORD USE32 PUBLIC 'CONST'
rdata$r	ENDS
;	COMDAT ??_R2DisconnectException@@8
rdata$r	SEGMENT DWORD USE32 PUBLIC 'CONST'
rdata$r	ENDS
;	COMDAT ??_R0?AVios_base@_STL@@@8
_DATA	SEGMENT DWORD USE32 PUBLIC 'DATA'
_DATA	ENDS
;	COMDAT ??_R4UnknownError@@6B@
rdata$r	SEGMENT DWORD USE32 PUBLIC 'CONST'
rdata$r	ENDS
;	COMDAT ??_R1A@?0A@A@IOException@@8
rdata$r	SEGMENT DWORD USE32 PUBLIC 'CONST'
rdata$r	ENDS
;	COMDAT ??_R1A@?0A@A@?$basic_ios@GV?$char_traits@G@_STL@@@_STL@@8
rdata$r	SEGMENT DWORD USE32 PUBLIC 'CONST'
rdata$r	ENDS
;	COMDAT ??_R1A@A@3BA@?$basic_ios@GV?$char_traits@G@_STL@@@_STL@@8
rdata$r	SEGMENT DWORD USE32 PUBLIC 'CONST'
rdata$r	ENDS
;	COMDAT ??_R3IgnorePacketException@@8
rdata$r	SEGMENT DWORD USE32 PUBLIC 'CONST'
rdata$r	ENDS
;	COMDAT ??_R4?$basic_ostream@GV?$char_traits@G@_STL@@@_STL@@6B@
rdata$r	SEGMENT DWORD USE32 PUBLIC 'CONST'
rdata$r	ENDS
;	COMDAT ??_R0?AVSocketException@@@8
_DATA	SEGMENT DWORD USE32 PUBLIC 'DATA'
_DATA	ENDS
;	COMDAT ??_R0?AVrange_error@_STL@@@8
_DATA	SEGMENT DWORD USE32 PUBLIC 'DATA'
_DATA	ENDS
;	COMDAT ??_R0?AVInvalidProtocolException@@@8
_DATA	SEGMENT DWORD USE32 PUBLIC 'DATA'
_DATA	ENDS
;	COMDAT ??_R4bad_alloc@std@@6B@
rdata$r	SEGMENT DWORD USE32 PUBLIC 'CONST'
rdata$r	ENDS
;	COMDAT ??_R1A@?0A@A@bad_exception@std@@8
rdata$r	SEGMENT DWORD USE32 PUBLIC 'CONST'
rdata$r	ENDS
;	COMDAT ??_R2GameException@@8
rdata$r	SEGMENT DWORD USE32 PUBLIC 'CONST'
rdata$r	ENDS
;	COMDAT ??_R3ProtocolException@@8
rdata$r	SEGMENT DWORD USE32 PUBLIC 'CONST'
rdata$r	ENDS
;	COMDAT ??_R3EOFException@@8
rdata$r	SEGMENT DWORD USE32 PUBLIC 'CONST'
rdata$r	ENDS
;	COMDAT ??_R4?$basic_istream@DV?$char_traits@D@_STL@@@_STL@@6B@
rdata$r	SEGMENT DWORD USE32 PUBLIC 'CONST'
rdata$r	ENDS
;	COMDAT ??_R3InvalidProtocolException@@8
rdata$r	SEGMENT DWORD USE32 PUBLIC 'CONST'
rdata$r	ENDS
;	COMDAT ??_R3?$basic_istream@DV?$char_traits@D@_STL@@@_STL@@8
rdata$r	SEGMENT DWORD USE32 PUBLIC 'CONST'
rdata$r	ENDS
;	COMDAT ??_R1A@?0A@A@runtime_error@_STL@@8
rdata$r	SEGMENT DWORD USE32 PUBLIC 'CONST'
rdata$r	ENDS
;	COMDAT ??_7SQLException@@6B@
CONST	SEGMENT DWORD USE32 PUBLIC 'CONST'
CONST	ENDS
;	COMDAT ??_R4InterruptedIOException@@6B@
rdata$r	SEGMENT DWORD USE32 PUBLIC 'CONST'
rdata$r	ENDS
;	COMDAT ??_R4underflow_error@_STL@@6B@
rdata$r	SEGMENT DWORD USE32 PUBLIC 'CONST'
rdata$r	ENDS
;	COMDAT ??_R1A@?0A@A@?$numpunct@D@_STL@@8
rdata$r	SEGMENT DWORD USE32 PUBLIC 'CONST'
rdata$r	ENDS
;	COMDAT ??_R1A@?0A@A@logic_error@_STL@@8
rdata$r	SEGMENT DWORD USE32 PUBLIC 'CONST'
rdata$r	ENDS
;	COMDAT ??_R4NonBlockingIOException@@6B@
rdata$r	SEGMENT DWORD USE32 PUBLIC 'CONST'
rdata$r	ENDS
;	COMDAT ??_R2?$basic_ostream@GV?$char_traits@G@_STL@@@_STL@@8
rdata$r	SEGMENT DWORD USE32 PUBLIC 'CONST'
rdata$r	ENDS
;	COMDAT ??_R0?AVException@@@8
_DATA	SEGMENT DWORD USE32 PUBLIC 'DATA'
_DATA	ENDS
;	COMDAT ??_R1A@?0A@A@LogError@@8
rdata$r	SEGMENT DWORD USE32 PUBLIC 'CONST'
rdata$r	ENDS
;	COMDAT ??_R4overflow_error@_STL@@6B@
rdata$r	SEGMENT DWORD USE32 PUBLIC 'CONST'
rdata$r	ENDS
;	COMDAT ??_R3MutexException@@8
rdata$r	SEGMENT DWORD USE32 PUBLIC 'CONST'
rdata$r	ENDS
;	COMDAT ??_R1A@?0A@A@CondVarException@@8
rdata$r	SEGMENT DWORD USE32 PUBLIC 'CONST'
rdata$r	ENDS
;	COMDAT ??_7NonBlockingIOException@@6B@
CONST	SEGMENT DWORD USE32 PUBLIC 'CONST'
CONST	ENDS
;	COMDAT ??_R0?AVProtocolException@@@8
_DATA	SEGMENT DWORD USE32 PUBLIC 'DATA'
_DATA	ENDS
;	COMDAT ??_7TimeoutException@@6B@
CONST	SEGMENT DWORD USE32 PUBLIC 'CONST'
CONST	ENDS
;	COMDAT ??_R2SQLConnectException@@8
rdata$r	SEGMENT DWORD USE32 PUBLIC 'CONST'
rdata$r	ENDS
;	COMDAT ??_R4Throwable@@6B@
rdata$r	SEGMENT DWORD USE32 PUBLIC 'CONST'
rdata$r	ENDS
;	COMDAT ??_7Exception@@6B@
CONST	SEGMENT DWORD USE32 PUBLIC 'CONST'
CONST	ENDS
;	COMDAT ??_R2domain_error@_STL@@8
rdata$r	SEGMENT DWORD USE32 PUBLIC 'CONST'
rdata$r	ENDS
;	COMDAT ??_R4length_error@_STL@@6B@
rdata$r	SEGMENT DWORD USE32 PUBLIC 'CONST'
rdata$r	ENDS
;	COMDAT ??_R2Exception@@8
rdata$r	SEGMENT DWORD USE32 PUBLIC 'CONST'
rdata$r	ENDS
;	COMDAT ??_R0?AV?$basic_filebuf@DV?$char_traits@D@_STL@@@_STL@@@8
_DATA	SEGMENT DWORD USE32 PUBLIC 'DATA'
_DATA	ENDS
;	COMDAT ??_R1A@?0A@A@UnknownError@@8
rdata$r	SEGMENT DWORD USE32 PUBLIC 'CONST'
rdata$r	ENDS
;	COMDAT ??_7UnknownError@@6B@
CONST	SEGMENT DWORD USE32 PUBLIC 'CONST'
CONST	ENDS
;	COMDAT ??_7InvalidProtocolException@@6B@
CONST	SEGMENT DWORD USE32 PUBLIC 'CONST'
CONST	ENDS
;	COMDAT ??_R4SQLConnectException@@6B@
rdata$r	SEGMENT DWORD USE32 PUBLIC 'CONST'
rdata$r	ENDS
;	COMDAT ??_7InterruptedIOException@@6B@
CONST	SEGMENT DWORD USE32 PUBLIC 'CONST'
CONST	ENDS
;	COMDAT ??_R1A@?0A@A@UnsupportedError@@8
rdata$r	SEGMENT DWORD USE32 PUBLIC 'CONST'
rdata$r	ENDS
;	COMDAT ??_R0?AVSQLWarning@@@8
_DATA	SEGMENT DWORD USE32 PUBLIC 'DATA'
_DATA	ENDS
;	COMDAT ??_R0?AVcodecvt_base@_STL@@@8
_DATA	SEGMENT DWORD USE32 PUBLIC 'DATA'
_DATA	ENDS
;	COMDAT ??_R0?AVFileNotOpenedException@@@8
_DATA	SEGMENT DWORD USE32 PUBLIC 'DATA'
_DATA	ENDS
;	COMDAT ??_R0?AVDisconnectException@@@8
_DATA	SEGMENT DWORD USE32 PUBLIC 'DATA'
_DATA	ENDS
;	COMDAT ??_R2underflow_error@_STL@@8
rdata$r	SEGMENT DWORD USE32 PUBLIC 'CONST'
rdata$r	ENDS
;	COMDAT ??_R4?$basic_streambuf@DV?$char_traits@D@_STL@@@_STL@@6B@
rdata$r	SEGMENT DWORD USE32 PUBLIC 'CONST'
rdata$r	ENDS
;	COMDAT ??_R0?AVMutexAttrException@@@8
_DATA	SEGMENT DWORD USE32 PUBLIC 'DATA'
_DATA	ENDS
;	COMDAT ??_R0?AVlogic_error@_STL@@@8
_DATA	SEGMENT DWORD USE32 PUBLIC 'DATA'
_DATA	ENDS
;	COMDAT ??_R0?AVEOFException@@@8
_DATA	SEGMENT DWORD USE32 PUBLIC 'DATA'
_DATA	ENDS
;	COMDAT ??_R1A@?0A@A@?$ctype@G@_STL@@8
rdata$r	SEGMENT DWORD USE32 PUBLIC 'CONST'
rdata$r	ENDS
;	COMDAT ??_R4EOFException@@6B@
rdata$r	SEGMENT DWORD USE32 PUBLIC 'CONST'
rdata$r	ENDS
;	COMDAT ??_R3length_error@_STL@@8
rdata$r	SEGMENT DWORD USE32 PUBLIC 'CONST'
rdata$r	ENDS
;	COMDAT ??_R1A@?0A@A@MutexAttrException@@8
rdata$r	SEGMENT DWORD USE32 PUBLIC 'CONST'
rdata$r	ENDS
;	COMDAT ??_7bad_alloc@std@@6B@
CONST	SEGMENT DWORD USE32 PUBLIC 'CONST'
CONST	ENDS
;	COMDAT ??_7bad_exception@std@@6B@
CONST	SEGMENT DWORD USE32 PUBLIC 'CONST'
CONST	ENDS
;	COMDAT ??_R4domain_error@_STL@@6B@
rdata$r	SEGMENT DWORD USE32 PUBLIC 'CONST'
rdata$r	ENDS
;	COMDAT ??_7IOException@@6B@
CONST	SEGMENT DWORD USE32 PUBLIC 'CONST'
CONST	ENDS
;	COMDAT ??_R0?AVruntime_error@_STL@@@8
_DATA	SEGMENT DWORD USE32 PUBLIC 'DATA'
_DATA	ENDS
;	COMDAT ??_R2length_error@_STL@@8
rdata$r	SEGMENT DWORD USE32 PUBLIC 'CONST'
rdata$r	ENDS
;	COMDAT ??_7SQLWarning@@6B@
CONST	SEGMENT DWORD USE32 PUBLIC 'CONST'
CONST	ENDS
;	COMDAT ??_R2InvalidProtocolException@@8
rdata$r	SEGMENT DWORD USE32 PUBLIC 'CONST'
rdata$r	ENDS
;	COMDAT ??_R2IOException@@8
rdata$r	SEGMENT DWORD USE32 PUBLIC 'CONST'
rdata$r	ENDS
;	COMDAT ??_R1A@?0A@A@domain_error@_STL@@8
rdata$r	SEGMENT DWORD USE32 PUBLIC 'CONST'
rdata$r	ENDS
;	COMDAT ??_R1A@?0A@A@IgnorePacketException@@8
rdata$r	SEGMENT DWORD USE32 PUBLIC 'CONST'
rdata$r	ENDS
;	COMDAT ??_7CondVarException@@6B@
CONST	SEGMENT DWORD USE32 PUBLIC 'CONST'
CONST	ENDS
;	COMDAT ??_R3SocketException@@8
rdata$r	SEGMENT DWORD USE32 PUBLIC 'CONST'
rdata$r	ENDS
;	COMDAT ??_R2out_of_range@_STL@@8
rdata$r	SEGMENT DWORD USE32 PUBLIC 'CONST'
rdata$r	ENDS
;	COMDAT ??_R0?AVRuntimeException@@@8
_DATA	SEGMENT DWORD USE32 PUBLIC 'DATA'
_DATA	ENDS
;	COMDAT ??_R2BindException@@8
rdata$r	SEGMENT DWORD USE32 PUBLIC 'CONST'
rdata$r	ENDS
;	COMDAT ??_R0?AVCondVarException@@@8
_DATA	SEGMENT DWORD USE32 PUBLIC 'DATA'
_DATA	ENDS
;	COMDAT ??_R0?AVFileNotExistException@@@8
_DATA	SEGMENT DWORD USE32 PUBLIC 'DATA'
_DATA	ENDS
;	COMDAT ??_R2facet@locale@_STL@@8
rdata$r	SEGMENT DWORD USE32 PUBLIC 'CONST'
rdata$r	ENDS
;	COMDAT ??_R4Error@@6B@
rdata$r	SEGMENT DWORD USE32 PUBLIC 'CONST'
rdata$r	ENDS
;	COMDAT ??_R1A@?0A@A@SQLWarning@@8
rdata$r	SEGMENT DWORD USE32 PUBLIC 'CONST'
rdata$r	ENDS
;	COMDAT ??_R1A@?0A@A@InterruptedException@@8
rdata$r	SEGMENT DWORD USE32 PUBLIC 'CONST'
rdata$r	ENDS
;	COMDAT ??_R3NonBlockingIOException@@8
rdata$r	SEGMENT DWORD USE32 PUBLIC 'CONST'
rdata$r	ENDS
;	COMDAT ??_R2?$codecvt@DDH@_STL@@8
rdata$r	SEGMENT DWORD USE32 PUBLIC 'CONST'
rdata$r	ENDS
;	COMDAT ??_R0?AVError@@@8
_DATA	SEGMENT DWORD USE32 PUBLIC 'DATA'
_DATA	ENDS
;	COMDAT ??_R2ConnectException@@8
rdata$r	SEGMENT DWORD USE32 PUBLIC 'CONST'
rdata$r	ENDS
;	COMDAT ??_7FileAlreadyExistException@@6B@
CONST	SEGMENT DWORD USE32 PUBLIC 'CONST'
CONST	ENDS
;	COMDAT ??_R4SocketException@@6B@
rdata$r	SEGMENT DWORD USE32 PUBLIC 'CONST'
rdata$r	ENDS
;	COMDAT ??_R3?$basic_ios@DV?$char_traits@D@_STL@@@_STL@@8
rdata$r	SEGMENT DWORD USE32 PUBLIC 'CONST'
rdata$r	ENDS
;	COMDAT ??_R4SQLException@@6B@
rdata$r	SEGMENT DWORD USE32 PUBLIC 'CONST'
rdata$r	ENDS
;	COMDAT ??_R1A@?0A@A@NoSuchElementException@@8
rdata$r	SEGMENT DWORD USE32 PUBLIC 'CONST'
rdata$r	ENDS
;	COMDAT ??_R2Error@@8
rdata$r	SEGMENT DWORD USE32 PUBLIC 'CONST'
rdata$r	ENDS
sxdata	SEGMENT DWORD USE32 'SXDATA'
sxdata	ENDS
FLAT	GROUP _DATA, CONST, _BSS
	ASSUME	CS: FLAT, DS: FLAT, SS: FLAT
endif

INCLUDELIB LIBCMT
INCLUDELIB OLDNAMES

PUBLIC	?_M_terminate_string_aux@?$basic_string@DV?$char_traits@D@_STL@@V?$allocator@D@2@@_STL@@AAEXABU__true_type@2@@Z ; _STL::basic_string<char,_STL::char_traits<char>,_STL::allocator<char> >::_M_terminate_string_aux
; Function compile flags: /Ogsy
; File c:\stlport-4.6.1\stlport\stl\_string.h
;	COMDAT ?_M_terminate_string_aux@?$basic_string@DV?$char_traits@D@_STL@@V?$allocator@D@2@@_STL@@AAEXABU__true_type@2@@Z
_TEXT	SEGMENT
___formal$ = 8						; size = 4
?_M_terminate_string_aux@?$basic_string@DV?$char_traits@D@_STL@@V?$allocator@D@2@@_STL@@AAEXABU__true_type@2@@Z PROC NEAR ; _STL::basic_string<char,_STL::char_traits<char>,_STL::allocator<char> >::_M_terminate_string_aux, COMDAT
; _this$ = ecx

; 351  :     *(this->_M_finish)=0;

  00000	8b 41 04	 mov	 eax, DWORD PTR [ecx+4]
  00003	c6 00 00	 mov	 BYTE PTR [eax], 0

; 352  :   }

  00006	c2 04 00	 ret	 4
?_M_terminate_string_aux@?$basic_string@DV?$char_traits@D@_STL@@V?$allocator@D@2@@_STL@@AAEXABU__true_type@2@@Z ENDP ; _STL::basic_string<char,_STL::char_traits<char>,_STL::allocator<char> >::_M_terminate_string_aux
_TEXT	ENDS
PUBLIC	??0?$allocator@D@_STL@@QAE@ABV01@@Z		; _STL::allocator<char>::allocator<char>
; Function compile flags: /Ogsy
; File c:\stlport-4.6.1\stlport\stl\_alloc.h
;	COMDAT ??0?$allocator@D@_STL@@QAE@ABV01@@Z
_TEXT	SEGMENT
___formal$ = 8						; size = 4
??0?$allocator@D@_STL@@QAE@ABV01@@Z PROC NEAR		; _STL::allocator<char>::allocator<char>, COMDAT
; _this$ = ecx

; 349  :   allocator(const allocator<_Tp>&) _STLP_NOTHROW {}

  00000	8b c1		 mov	 eax, ecx
  00002	c2 04 00	 ret	 4
??0?$allocator@D@_STL@@QAE@ABV01@@Z ENDP		; _STL::allocator<char>::allocator<char>
_TEXT	ENDS
PUBLIC	?__stl_new@_STL@@YAPAXI@Z			; _STL::__stl_new
EXTRN	??2@YAPAXI@Z:NEAR				; operator new
; Function compile flags: /Ogsy
; File c:\stlport-4.6.1\stlport\stl\_new.h
;	COMDAT ?__stl_new@_STL@@YAPAXI@Z
_TEXT	SEGMENT
___n$ = 8						; size = 4
?__stl_new@_STL@@YAPAXI@Z PROC NEAR			; _STL::__stl_new, COMDAT

; 86   : inline void*  _STLP_CALL __stl_new(size_t __n)   { _STLP_CHECK_NULL_ALLOC(::operator _STLP_NEW(__n)); }

  00000	e9 00 00 00 00	 jmp	 ??2@YAPAXI@Z		; operator new
?__stl_new@_STL@@YAPAXI@Z ENDP				; _STL::__stl_new
_TEXT	ENDS
PUBLIC	?__stl_delete@_STL@@YAXPAX@Z			; _STL::__stl_delete
EXTRN	??3@YAXPAX@Z:NEAR				; operator delete
; Function compile flags: /Ogsy
;	COMDAT ?__stl_delete@_STL@@YAXPAX@Z
_TEXT	SEGMENT
___p$ = 8						; size = 4
?__stl_delete@_STL@@YAXPAX@Z PROC NEAR			; _STL::__stl_delete, COMDAT

; 87   : inline void   _STLP_CALL __stl_delete(void* __p) { ::operator delete(__p); }

  00000	e9 00 00 00 00	 jmp	 ??3@YAXPAX@Z		; operator delete
?__stl_delete@_STL@@YAXPAX@Z ENDP			; _STL::__stl_delete
_TEXT	ENDS
PUBLIC	?_Destroy@_STL@@YAXPAD0@Z			; _STL::_Destroy
; Function compile flags: /Ogsy
; File c:\stlport-4.6.1\stlport\stl\_construct.h
;	COMDAT ?_Destroy@_STL@@YAXPAD0@Z
_TEXT	SEGMENT
___formal$ = 8						; size = 4
___formal$ = 12						; size = 4
?_Destroy@_STL@@YAXPAD0@Z PROC NEAR			; _STL::_Destroy, COMDAT

; 142  : inline void _Destroy(char*, char*) {}

  00000	c3		 ret	 0
?_Destroy@_STL@@YAXPAD0@Z ENDP				; _STL::_Destroy
_TEXT	ENDS
PUBLIC	?__copy_trivial@_STL@@YAPAXPBX0PAX@Z		; _STL::__copy_trivial
EXTRN	_memmove:NEAR
; Function compile flags: /Ogsy
; File c:\stlport-4.6.1\stlport\stl\_algobase.h
;	COMDAT ?__copy_trivial@_STL@@YAPAXPBX0PAX@Z
_TEXT	SEGMENT
___first$ = 8						; size = 4
___last$ = 12						; size = 4
___result$ = 16						; size = 4
?__copy_trivial@_STL@@YAPAXPBX0PAX@Z PROC NEAR		; _STL::__copy_trivial, COMDAT

; 147  : __copy_trivial(const void* __first, const void* __last, void* __result) {

  00000	55		 push	 ebp
  00001	8b ec		 mov	 ebp, esp
  00003	56		 push	 esi

; 148  :   return (__last == __first) ? __result : 
; 149  :     ((char*)memmove(__result, __first, ((const char*)__last - (const char*)__first))) + 
; 150  :     ((const char*)__last - (const char*)__first);

  00004	8b 75 0c	 mov	 esi, DWORD PTR ___last$[ebp]
  00007	3b 75 08	 cmp	 esi, DWORD PTR ___first$[ebp]
  0000a	75 05		 jne	 SHORT $L100985
  0000c	8b 45 10	 mov	 eax, DWORD PTR ___result$[ebp]
  0000f	eb 14		 jmp	 SHORT $L100986
$L100985:
  00011	2b 75 08	 sub	 esi, DWORD PTR ___first$[ebp]
  00014	56		 push	 esi
  00015	ff 75 08	 push	 DWORD PTR ___first$[ebp]
  00018	ff 75 10	 push	 DWORD PTR ___result$[ebp]
  0001b	e8 00 00 00 00	 call	 _memmove
  00020	83 c4 0c	 add	 esp, 12			; 0000000cH
  00023	03 c6		 add	 eax, esi
$L100986:
  00025	5e		 pop	 esi

; 151  : }

  00026	5d		 pop	 ebp
  00027	c3		 ret	 0
?__copy_trivial@_STL@@YAPAXPBX0PAX@Z ENDP		; _STL::__copy_trivial
_TEXT	ENDS
PUBLIC	?uninitialized_copy@_STL@@YAPADPBD0PAD@Z	; _STL::uninitialized_copy
; Function compile flags: /Ogsy
; File c:\stlport-4.6.1\stlport\stl\_uninitialized.h
;	COMDAT ?uninitialized_copy@_STL@@YAPADPBD0PAD@Z
_TEXT	SEGMENT
___first$ = 8						; size = 4
___last$ = 12						; size = 4
___result$ = 16						; size = 4
?uninitialized_copy@_STL@@YAPADPBD0PAD@Z PROC NEAR	; _STL::uninitialized_copy, COMDAT

; 84   :   return  (char*)__copy_trivial (__first, __last, __result);

  00000	e9 00 00 00 00	 jmp	 ?__copy_trivial@_STL@@YAPAXPBX0PAX@Z ; _STL::__copy_trivial
?uninitialized_copy@_STL@@YAPADPBD0PAD@Z ENDP		; _STL::uninitialized_copy
_TEXT	ENDS
PUBLIC	?length@?$char_traits@D@_STL@@SAIPBD@Z		; _STL::char_traits<char>::length
EXTRN	_strlen:NEAR
; Function compile flags: /Ogsy
; File c:\stlport-4.6.1\stlport\stl\char_traits.h
;	COMDAT ?length@?$char_traits@D@_STL@@SAIPBD@Z
_TEXT	SEGMENT
___s$ = 8						; size = 4
?length@?$char_traits@D@_STL@@SAIPBD@Z PROC NEAR	; _STL::char_traits<char>::length, COMDAT

; 238  :   static size_t _STLP_CALL length(const char* __s) { return strlen(__s); }

  00000	e9 00 00 00 00	 jmp	 _strlen
?length@?$char_traits@D@_STL@@SAIPBD@Z ENDP		; _STL::char_traits<char>::length
_TEXT	ENDS
PUBLIC	?max_size@?$_String_base@DV?$allocator@D@_STL@@@_STL@@QBEIXZ ; _STL::_String_base<char,_STL::allocator<char> >::max_size
; Function compile flags: /Ogsy
; File c:\stlport-4.6.1\stlport\stl\_string.h
;	COMDAT ?max_size@?$_String_base@DV?$allocator@D@_STL@@@_STL@@QBEIXZ
_TEXT	SEGMENT
?max_size@?$_String_base@DV?$allocator@D@_STL@@@_STL@@QBEIXZ PROC NEAR ; _STL::_String_base<char,_STL::allocator<char> >::max_size, COMDAT
; _this$ = ecx

; 126  :   size_t max_size() const { return (size_t(-1) / sizeof(_Tp)) - 1; }

  00000	6a fe		 push	 -2			; fffffffeH
  00002	58		 pop	 eax
  00003	c3		 ret	 0
?max_size@?$_String_base@DV?$allocator@D@_STL@@@_STL@@QBEIXZ ENDP ; _STL::_String_base<char,_STL::allocator<char> >::max_size
_TEXT	ENDS
PUBLIC	??$__distance@PBD@_STL@@YAHABQBD0ABUrandom_access_iterator_tag@0@@Z ; _STL::__distance<char const *>
; Function compile flags: /Ogsy
; File c:\stlport-4.6.1\stlport\stl\_iterator_base.h
;	COMDAT ??$__distance@PBD@_STL@@YAHABQBD0ABUrandom_access_iterator_tag@0@@Z
_TEXT	SEGMENT
___first$ = 8						; size = 4
___last$ = 12						; size = 4
___formal$ = 16						; size = 4
??$__distance@PBD@_STL@@YAHABQBD0ABUrandom_access_iterator_tag@0@@Z PROC NEAR ; _STL::__distance<char const *>, COMDAT

; 363  :   return __last - __first;

  00000	8b 44 24 08	 mov	 eax, DWORD PTR ___last$[esp-4]
  00004	8b 00		 mov	 eax, DWORD PTR [eax]
  00006	8b 4c 24 04	 mov	 ecx, DWORD PTR ___first$[esp-4]
  0000a	2b 01		 sub	 eax, DWORD PTR [ecx]

; 364  : }

  0000c	c3		 ret	 0
??$__distance@PBD@_STL@@YAHABQBD0ABUrandom_access_iterator_tag@0@@Z ENDP ; _STL::__distance<char const *>
_TEXT	ENDS
PUBLIC	??_C@_0N@GOPDCEEB@basic_string?$AA@		; `string'
PUBLIC	?_M_throw_length_error@?$_String_base@DV?$allocator@D@_STL@@@_STL@@QBEXXZ ; _STL::_String_base<char,_STL::allocator<char> >::_M_throw_length_error
EXTRN	?__stl_throw_length_error@_STL@@YAXPBD@Z:NEAR	; _STL::__stl_throw_length_error
;	COMDAT ??_C@_0N@GOPDCEEB@basic_string?$AA@
; File c:\stlport-4.6.1\stlport\stl\_string.c
CONST	SEGMENT
??_C@_0N@GOPDCEEB@basic_string?$AA@ DB 'basic_string', 00H ; `string'
; Function compile flags: /Ogsy
CONST	ENDS
;	COMDAT ?_M_throw_length_error@?$_String_base@DV?$allocator@D@_STL@@@_STL@@QBEXXZ
_TEXT	SEGMENT
?_M_throw_length_error@?$_String_base@DV?$allocator@D@_STL@@@_STL@@QBEXXZ PROC NEAR ; _STL::_String_base<char,_STL::allocator<char> >::_M_throw_length_error, COMDAT
; _this$ = ecx

; 523  :     __stl_throw_length_error("basic_string");

  00000	68 00 00 00 00	 push	 OFFSET FLAT:??_C@_0N@GOPDCEEB@basic_string?$AA@
  00005	e8 00 00 00 00	 call	 ?__stl_throw_length_error@_STL@@YAXPBD@Z ; _STL::__stl_throw_length_error
  0000a	59		 pop	 ecx

; 524  : }

  0000b	c3		 ret	 0
?_M_throw_length_error@?$_String_base@DV?$allocator@D@_STL@@@_STL@@QBEXXZ ENDP ; _STL::_String_base<char,_STL::allocator<char> >::_M_throw_length_error
_TEXT	ENDS
PUBLIC	??0?$allocator@D@_STL@@QAE@XZ			; _STL::allocator<char>::allocator<char>
; Function compile flags: /Ogsy
; File c:\stlport-4.6.1\stlport\stl\_alloc.h
;	COMDAT ??0?$allocator@D@_STL@@QAE@XZ
_TEXT	SEGMENT
??0?$allocator@D@_STL@@QAE@XZ PROC NEAR			; _STL::allocator<char>::allocator<char>, COMDAT
; _this$ = ecx

; 345  :   allocator() _STLP_NOTHROW {}

  00000	8b c1		 mov	 eax, ecx
  00002	c3		 ret	 0
??0?$allocator@D@_STL@@QAE@XZ ENDP			; _STL::allocator<char>::allocator<char>
_TEXT	ENDS
PUBLIC	??1?$allocator@D@_STL@@QAE@XZ			; _STL::allocator<char>::~allocator<char>
; Function compile flags: /Ogsy
;	COMDAT ??1?$allocator@D@_STL@@QAE@XZ
_TEXT	SEGMENT
??1?$allocator@D@_STL@@QAE@XZ PROC NEAR			; _STL::allocator<char>::~allocator<char>, COMDAT
; _this$ = ecx

; 350  :   ~allocator() _STLP_NOTHROW {}

  00000	c3		 ret	 0
??1?$allocator@D@_STL@@QAE@XZ ENDP			; _STL::allocator<char>::~allocator<char>
_TEXT	ENDS
PUBLIC	??1?$_STLP_alloc_proxy@PADDV?$allocator@D@_STL@@@_STL@@QAE@XZ ; _STL::_STLP_alloc_proxy<char *,char,_STL::allocator<char> >::~_STLP_alloc_proxy<char *,char,_STL::allocator<char> >
; Function compile flags: /Ogsy
;	COMDAT ??1?$_STLP_alloc_proxy@PADDV?$allocator@D@_STL@@@_STL@@QAE@XZ
_TEXT	SEGMENT
??1?$_STLP_alloc_proxy@PADDV?$allocator@D@_STL@@@_STL@@QAE@XZ PROC NEAR ; _STL::_STLP_alloc_proxy<char *,char,_STL::allocator<char> >::~_STLP_alloc_proxy<char *,char,_STL::allocator<char> >, COMDAT
; _this$ = ecx
  00000	c3		 ret	 0
??1?$_STLP_alloc_proxy@PADDV?$allocator@D@_STL@@@_STL@@QAE@XZ ENDP ; _STL::_STLP_alloc_proxy<char *,char,_STL::allocator<char> >::~_STLP_alloc_proxy<char *,char,_STL::allocator<char> >
_TEXT	ENDS
PUBLIC	?allocate@?$__node_alloc@$00$0A@@_STL@@SAPAXI@Z	; _STL::__node_alloc<1,0>::allocate
EXTRN	?_M_allocate@?$__node_alloc@$00$0A@@_STL@@CAPAXI@Z:NEAR ; _STL::__node_alloc<1,0>::_M_allocate
; Function compile flags: /Ogsy
;	COMDAT ?allocate@?$__node_alloc@$00$0A@@_STL@@SAPAXI@Z
_TEXT	SEGMENT
___n$ = 8						; size = 4
?allocate@?$__node_alloc@$00$0A@@_STL@@SAPAXI@Z PROC NEAR ; _STL::__node_alloc<1,0>::allocate, COMDAT

; 251  :   static void * _STLP_CALL allocate(size_t __n) { return (__n > (size_t)_MAX_BYTES) ?  __stl_new(__n) : _M_allocate(__n); }

  00000	8b 44 24 04	 mov	 eax, DWORD PTR ___n$[esp-4]
  00004	3d 80 00 00 00	 cmp	 eax, 128		; 00000080H
  00009	50		 push	 eax
  0000a	76 07		 jbe	 SHORT $L101018
  0000c	e8 00 00 00 00	 call	 ??2@YAPAXI@Z		; operator new
  00011	59		 pop	 ecx
  00012	c3		 ret	 0
$L101018:
  00013	e8 00 00 00 00	 call	 ?_M_allocate@?$__node_alloc@$00$0A@@_STL@@CAPAXI@Z ; _STL::__node_alloc<1,0>::_M_allocate
  00018	59		 pop	 ecx
  00019	c3		 ret	 0
?allocate@?$__node_alloc@$00$0A@@_STL@@SAPAXI@Z ENDP	; _STL::__node_alloc<1,0>::allocate
_TEXT	ENDS
PUBLIC	?deallocate@?$__node_alloc@$00$0A@@_STL@@SAXPAXI@Z ; _STL::__node_alloc<1,0>::deallocate
EXTRN	?_M_deallocate@?$__node_alloc@$00$0A@@_STL@@CAXPAXI@Z:NEAR ; _STL::__node_alloc<1,0>::_M_deallocate
; Function compile flags: /Ogsy
;	COMDAT ?deallocate@?$__node_alloc@$00$0A@@_STL@@SAXPAXI@Z
_TEXT	SEGMENT
___p$ = 8						; size = 4
___n$ = 12						; size = 4
?deallocate@?$__node_alloc@$00$0A@@_STL@@SAXPAXI@Z PROC NEAR ; _STL::__node_alloc<1,0>::deallocate, COMDAT

; 253  :   static void _STLP_CALL deallocate(void *__p, size_t __n) { if (__n > (size_t)_MAX_BYTES) __stl_delete(__p); else _M_deallocate(__p, __n); }

  00000	81 7c 24 08 80
	00 00 00	 cmp	 DWORD PTR ___n$[esp-4], 128 ; 00000080H
  00008	76 0b		 jbe	 SHORT $L98677
  0000a	ff 74 24 04	 push	 DWORD PTR ___p$[esp-4]
  0000e	e8 00 00 00 00	 call	 ??3@YAXPAX@Z		; operator delete
  00013	59		 pop	 ecx
  00014	c3		 ret	 0
$L98677:
  00015	e9 00 00 00 00	 jmp	 ?_M_deallocate@?$__node_alloc@$00$0A@@_STL@@CAXPAXI@Z ; _STL::__node_alloc<1,0>::_M_deallocate
?deallocate@?$__node_alloc@$00$0A@@_STL@@SAXPAXI@Z ENDP	; _STL::__node_alloc<1,0>::deallocate
_TEXT	ENDS
PUBLIC	?_M_terminate_string@?$basic_string@DV?$char_traits@D@_STL@@V?$allocator@D@2@@_STL@@AAEXXZ ; _STL::basic_string<char,_STL::char_traits<char>,_STL::allocator<char> >::_M_terminate_string
; Function compile flags: /Ogsy
; File c:\stlport-4.6.1\stlport\stl\_string.h
;	COMDAT ?_M_terminate_string@?$basic_string@DV?$char_traits@D@_STL@@V?$allocator@D@2@@_STL@@AAEXXZ
_TEXT	SEGMENT
?_M_terminate_string@?$basic_string@DV?$char_traits@D@_STL@@V?$allocator@D@2@@_STL@@AAEXXZ PROC NEAR ; _STL::basic_string<char,_STL::char_traits<char>,_STL::allocator<char> >::_M_terminate_string, COMDAT
; _this$ = ecx

; 355  :     _M_terminate_string_aux(_Char_Is_Integral());

  00000	8b 41 04	 mov	 eax, DWORD PTR [ecx+4]
  00003	c6 00 00	 mov	 BYTE PTR [eax], 0

; 356  :   }

  00006	c3		 ret	 0
?_M_terminate_string@?$basic_string@DV?$char_traits@D@_STL@@V?$allocator@D@2@@_STL@@AAEXXZ ENDP ; _STL::basic_string<char,_STL::char_traits<char>,_STL::allocator<char> >::_M_terminate_string
_TEXT	ENDS
PUBLIC	?allocate@?$allocator@D@_STL@@QAEPADIPBX@Z	; _STL::allocator<char>::allocate
; Function compile flags: /Ogsy
; File c:\stlport-4.6.1\stlport\stl\_alloc.h
;	COMDAT ?allocate@?$allocator@D@_STL@@QAEPADIPBX@Z
_TEXT	SEGMENT
___n$ = 8						; size = 4
___formal$ = 12						; size = 4
?allocate@?$allocator@D@_STL@@QAEPADIPBX@Z PROC NEAR	; _STL::allocator<char>::allocate, COMDAT
; _this$ = ecx

; 355  :     return __n != 0 ? __REINTERPRET_CAST(value_type*,__sgi_alloc::allocate(__n * sizeof(value_type))) : 0;

  00000	33 c0		 xor	 eax, eax
  00002	39 44 24 04	 cmp	 DWORD PTR ___n$[esp-4], eax
  00006	74 0a		 je	 SHORT $L101041
  00008	ff 74 24 04	 push	 DWORD PTR ___n$[esp-4]
  0000c	e8 00 00 00 00	 call	 ?allocate@?$__node_alloc@$00$0A@@_STL@@SAPAXI@Z ; _STL::__node_alloc<1,0>::allocate
  00011	59		 pop	 ecx
$L101041:

; 356  :   }

  00012	c2 08 00	 ret	 8
?allocate@?$allocator@D@_STL@@QAEPADIPBX@Z ENDP		; _STL::allocator<char>::allocate
_TEXT	ENDS
PUBLIC	??0?$_STLP_alloc_proxy@PADDV?$allocator@D@_STL@@@_STL@@QAE@ABV?$allocator@D@1@PAD@Z ; _STL::_STLP_alloc_proxy<char *,char,_STL::allocator<char> >::_STLP_alloc_proxy<char *,char,_STL::allocator<char> >
; Function compile flags: /Ogsy
;	COMDAT ??0?$_STLP_alloc_proxy@PADDV?$allocator@D@_STL@@@_STL@@QAE@ABV?$allocator@D@1@PAD@Z
_TEXT	SEGMENT
___a$ = 8						; size = 4
___p$ = 12						; size = 4
??0?$_STLP_alloc_proxy@PADDV?$allocator@D@_STL@@@_STL@@QAE@ABV?$allocator@D@1@PAD@Z PROC NEAR ; _STL::_STLP_alloc_proxy<char *,char,_STL::allocator<char> >::_STLP_alloc_proxy<char *,char,_STL::allocator<char> >, COMDAT
; _this$ = ecx

; 487  :   inline _STLP_alloc_proxy(const _MaybeReboundAlloc& __a, _Value __p) : _MaybeReboundAlloc(__a), _M_data(__p) {}

  00000	8b c1		 mov	 eax, ecx
  00002	8b 4c 24 08	 mov	 ecx, DWORD PTR ___p$[esp-4]
  00006	89 08		 mov	 DWORD PTR [eax], ecx
  00008	c2 08 00	 ret	 8
??0?$_STLP_alloc_proxy@PADDV?$allocator@D@_STL@@@_STL@@QAE@ABV?$allocator@D@1@PAD@Z ENDP ; _STL::_STLP_alloc_proxy<char *,char,_STL::allocator<char> >::_STLP_alloc_proxy<char *,char,_STL::allocator<char> >
_TEXT	ENDS
PUBLIC	??$distance@PBD@_STL@@YAHABQBD0@Z		; _STL::distance<char const *>
; Function compile flags: /Ogsy
; File c:\stlport-4.6.1\stlport\stl\_iterator_base.h
;	COMDAT ??$distance@PBD@_STL@@YAHABQBD0@Z
_TEXT	SEGMENT
___first$ = 8						; size = 4
___last$ = 12						; size = 4
??$distance@PBD@_STL@@YAHABQBD0@Z PROC NEAR		; _STL::distance<char const *>, COMDAT

; 369  :   return __distance(__first, __last, _STLP_ITERATOR_CATEGORY(__first, _InputIterator));  

  00000	8b 44 24 08	 mov	 eax, DWORD PTR ___last$[esp-4]
  00004	8b 00		 mov	 eax, DWORD PTR [eax]
  00006	8b 4c 24 04	 mov	 ecx, DWORD PTR ___first$[esp-4]
  0000a	2b 01		 sub	 eax, DWORD PTR [ecx]

; 370  : }

  0000c	c3		 ret	 0
??$distance@PBD@_STL@@YAHABQBD0@Z ENDP			; _STL::distance<char const *>
_TEXT	ENDS
PUBLIC	?_M_allocate_block@?$_String_base@DV?$allocator@D@_STL@@@_STL@@QAEXI@Z ; _STL::_String_base<char,_STL::allocator<char> >::_M_allocate_block
; Function compile flags: /Ogsy
; File c:\stlport-4.6.1\stlport\stl\_string.c
;	COMDAT ?_M_allocate_block@?$_String_base@DV?$allocator@D@_STL@@@_STL@@QAEXI@Z
_TEXT	SEGMENT
___n$ = 8						; size = 4
?_M_allocate_block@?$_String_base@DV?$allocator@D@_STL@@@_STL@@QAEXI@Z PROC NEAR ; _STL::_String_base<char,_STL::allocator<char> >::_M_allocate_block, COMDAT
; _this$ = ecx

; 530  : template <class _Tp, class _Alloc> void _String_base<_Tp, _Alloc>::_M_allocate_block(size_t __n) {  

  00000	56		 push	 esi
  00001	57		 push	 edi

; 531  :   if ((__n <= (max_size()+1)) && (__n>0)){ 

  00002	8b 7c 24 0c	 mov	 edi, DWORD PTR ___n$[esp+4]
  00006	83 ff ff	 cmp	 edi, -1
  00009	8b f1		 mov	 esi, ecx
  0000b	77 17		 ja	 SHORT $L99684
  0000d	85 ff		 test	 edi, edi
  0000f	76 13		 jbe	 SHORT $L99684

; 532  :     _M_start  = _M_end_of_storage.allocate(__n); 

  00011	57		 push	 edi
  00012	e8 00 00 00 00	 call	 ?allocate@?$__node_alloc@$00$0A@@_STL@@SAPAXI@Z ; _STL::__node_alloc<1,0>::allocate
  00017	89 06		 mov	 DWORD PTR [esi], eax

; 533  :     _M_finish = _M_start; 

  00019	89 46 04	 mov	 DWORD PTR [esi+4], eax

; 534  :     _M_end_of_storage._M_data = _M_start + __n; 

  0001c	03 c7		 add	 eax, edi
  0001e	59		 pop	 ecx
  0001f	89 46 08	 mov	 DWORD PTR [esi+8], eax

; 535  :   } 
; 536  :     else 

  00022	eb 07		 jmp	 SHORT $L99685
$L99684:

; 537  :       _M_throw_length_error(); 

  00024	8b ce		 mov	 ecx, esi
  00026	e8 00 00 00 00	 call	 ?_M_throw_length_error@?$_String_base@DV?$allocator@D@_STL@@@_STL@@QBEXXZ ; _STL::_String_base<char,_STL::allocator<char> >::_M_throw_length_error
$L99685:
  0002b	5f		 pop	 edi
  0002c	5e		 pop	 esi

; 538  : } 

  0002d	c2 04 00	 ret	 4
?_M_allocate_block@?$_String_base@DV?$allocator@D@_STL@@@_STL@@QAEXI@Z ENDP ; _STL::_String_base<char,_STL::allocator<char> >::_M_allocate_block
_TEXT	ENDS
PUBLIC	?deallocate@?$allocator@D@_STL@@QAEXPADI@Z	; _STL::allocator<char>::deallocate
; Function compile flags: /Ogsy
; File c:\stlport-4.6.1\stlport\stl\_alloc.h
;	COMDAT ?deallocate@?$allocator@D@_STL@@QAEXPADI@Z
_TEXT	SEGMENT
___p$ = 8						; size = 4
___n$ = 12						; size = 4
?deallocate@?$allocator@D@_STL@@QAEXPADI@Z PROC NEAR	; _STL::allocator<char>::deallocate, COMDAT
; _this$ = ecx

; 359  :     _STLP_ASSERT( (__p == 0) == (__n == 0) )
; 360  :       if (__p != 0) __sgi_alloc::deallocate((void*)__p, __n * sizeof(value_type));

  00000	83 7c 24 04 00	 cmp	 DWORD PTR ___p$[esp-4], 0
  00005	74 0f		 je	 SHORT $L98663
  00007	ff 74 24 08	 push	 DWORD PTR ___n$[esp-4]
  0000b	ff 74 24 08	 push	 DWORD PTR ___p$[esp]
  0000f	e8 00 00 00 00	 call	 ?deallocate@?$__node_alloc@$00$0A@@_STL@@SAXPAXI@Z ; _STL::__node_alloc<1,0>::deallocate
  00014	59		 pop	 ecx
  00015	59		 pop	 ecx
$L98663:

; 361  :   }

  00016	c2 08 00	 ret	 8
?deallocate@?$allocator@D@_STL@@QAEXPADI@Z ENDP		; _STL::allocator<char>::deallocate
_TEXT	ENDS
PUBLIC	??0?$_String_base@DV?$allocator@D@_STL@@@_STL@@QAE@ABV?$allocator@D@1@@Z ; _STL::_String_base<char,_STL::allocator<char> >::_String_base<char,_STL::allocator<char> >
; Function compile flags: /Ogsy
; File c:\stlport-4.6.1\stlport\stl\_string.h
;	COMDAT ??0?$_String_base@DV?$allocator@D@_STL@@@_STL@@QAE@ABV?$allocator@D@1@@Z
_TEXT	SEGMENT
___a$ = 8						; size = 4
??0?$_String_base@DV?$allocator@D@_STL@@@_STL@@QAE@ABV?$allocator@D@1@@Z PROC NEAR ; _STL::_String_base<char,_STL::allocator<char> >::_String_base<char,_STL::allocator<char> >, COMDAT
; _this$ = ecx

; 129  :     : _M_start(0), _M_finish(0), _M_end_of_storage(__a, (_Tp*)0) {}

  00000	56		 push	 esi
  00001	33 c0		 xor	 eax, eax
  00003	8b f1		 mov	 esi, ecx
  00005	50		 push	 eax
  00006	ff 74 24 0c	 push	 DWORD PTR ___a$[esp+4]
  0000a	8d 4e 08	 lea	 ecx, DWORD PTR [esi+8]
  0000d	89 06		 mov	 DWORD PTR [esi], eax
  0000f	89 46 04	 mov	 DWORD PTR [esi+4], eax
  00012	e8 00 00 00 00	 call	 ??0?$_STLP_alloc_proxy@PADDV?$allocator@D@_STL@@@_STL@@QAE@ABV?$allocator@D@1@PAD@Z ; _STL::_STLP_alloc_proxy<char *,char,_STL::allocator<char> >::_STLP_alloc_proxy<char *,char,_STL::allocator<char> >
  00017	8b c6		 mov	 eax, esi
  00019	5e		 pop	 esi
  0001a	c2 04 00	 ret	 4
??0?$_String_base@DV?$allocator@D@_STL@@@_STL@@QAE@ABV?$allocator@D@1@@Z ENDP ; _STL::_String_base<char,_STL::allocator<char> >::_String_base<char,_STL::allocator<char> >
_TEXT	ENDS
PUBLIC	??$_M_range_initialize@PBD@?$basic_string@DV?$char_traits@D@_STL@@V?$allocator@D@2@@_STL@@AAEXPBD0ABUforward_iterator_tag@1@@Z ; _STL::basic_string<char,_STL::char_traits<char>,_STL::allocator<char> >::_M_range_initialize<char const *>
; Function compile flags: /Ogsy
;	COMDAT ??$_M_range_initialize@PBD@?$basic_string@DV?$char_traits@D@_STL@@V?$allocator@D@2@@_STL@@AAEXPBD0ABUforward_iterator_tag@1@@Z
_TEXT	SEGMENT
___f$ = 8						; size = 4
___l$ = 12						; size = 4
___formal$ = 16						; size = 4
??$_M_range_initialize@PBD@?$basic_string@DV?$char_traits@D@_STL@@V?$allocator@D@2@@_STL@@AAEXPBD0ABUforward_iterator_tag@1@@Z PROC NEAR ; _STL::basic_string<char,_STL::char_traits<char>,_STL::allocator<char> >::_M_range_initialize<char const *>, COMDAT
; _this$ = ecx

; 383  :                            const forward_iterator_tag &) {
; 384  :     difference_type __n = distance(__f, __l);
; 385  :     this->_M_allocate_block(__n + 1);

  00000	8b 44 24 08	 mov	 eax, DWORD PTR ___l$[esp-4]
  00004	2b 44 24 04	 sub	 eax, DWORD PTR ___f$[esp-4]
  00008	56		 push	 esi
  00009	40		 inc	 eax
  0000a	50		 push	 eax
  0000b	8b f1		 mov	 esi, ecx
  0000d	e8 00 00 00 00	 call	 ?_M_allocate_block@?$_String_base@DV?$allocator@D@_STL@@@_STL@@QAEXI@Z ; _STL::_String_base<char,_STL::allocator<char> >::_M_allocate_block

; 386  :     this->_M_finish = uninitialized_copy(__f, __l, this->_M_start);

  00012	ff 36		 push	 DWORD PTR [esi]
  00014	ff 74 24 10	 push	 DWORD PTR ___l$[esp+4]
  00018	ff 74 24 10	 push	 DWORD PTR ___f$[esp+8]
  0001c	e8 00 00 00 00	 call	 ?__copy_trivial@_STL@@YAPAXPBX0PAX@Z ; _STL::__copy_trivial
  00021	83 c4 0c	 add	 esp, 12			; 0000000cH
  00024	89 46 04	 mov	 DWORD PTR [esi+4], eax

; 387  :     _M_terminate_string();

  00027	c6 00 00	 mov	 BYTE PTR [eax], 0
  0002a	5e		 pop	 esi

; 388  :   }

  0002b	c2 0c 00	 ret	 12			; 0000000cH
??$_M_range_initialize@PBD@?$basic_string@DV?$char_traits@D@_STL@@V?$allocator@D@2@@_STL@@AAEXPBD0ABUforward_iterator_tag@1@@Z ENDP ; _STL::basic_string<char,_STL::char_traits<char>,_STL::allocator<char> >::_M_range_initialize<char const *>
_TEXT	ENDS
PUBLIC	?_M_deallocate_block@?$_String_base@DV?$allocator@D@_STL@@@_STL@@QAEXXZ ; _STL::_String_base<char,_STL::allocator<char> >::_M_deallocate_block
; Function compile flags: /Ogsy
;	COMDAT ?_M_deallocate_block@?$_String_base@DV?$allocator@D@_STL@@@_STL@@QAEXXZ
_TEXT	SEGMENT
?_M_deallocate_block@?$_String_base@DV?$allocator@D@_STL@@@_STL@@QAEXXZ PROC NEAR ; _STL::_String_base<char,_STL::allocator<char> >::_M_deallocate_block, COMDAT
; _this$ = ecx

; 124  :     { _M_end_of_storage.deallocate(_M_start, _M_end_of_storage._M_data - _M_start); }

  00000	8b c1		 mov	 eax, ecx
  00002	8d 48 08	 lea	 ecx, DWORD PTR [eax+8]
  00005	8b 00		 mov	 eax, DWORD PTR [eax]
  00007	8b 11		 mov	 edx, DWORD PTR [ecx]
  00009	2b d0		 sub	 edx, eax
  0000b	52		 push	 edx
  0000c	50		 push	 eax
  0000d	e8 00 00 00 00	 call	 ?deallocate@?$allocator@D@_STL@@QAEXPADI@Z ; _STL::allocator<char>::deallocate
  00012	c3		 ret	 0
?_M_deallocate_block@?$_String_base@DV?$allocator@D@_STL@@@_STL@@QAEXXZ ENDP ; _STL::_String_base<char,_STL::allocator<char> >::_M_deallocate_block
_TEXT	ENDS
PUBLIC	??$_M_range_initialize@PBD@?$basic_string@DV?$char_traits@D@_STL@@V?$allocator@D@2@@_STL@@AAEXPBD0@Z ; _STL::basic_string<char,_STL::char_traits<char>,_STL::allocator<char> >::_M_range_initialize<char const *>
; Function compile flags: /Ogsy
;	COMDAT ??$_M_range_initialize@PBD@?$basic_string@DV?$char_traits@D@_STL@@V?$allocator@D@2@@_STL@@AAEXPBD0@Z
_TEXT	SEGMENT
___f$ = 8						; size = 4
___l$ = 12						; size = 4
$T101106 = 15						; size = 1
??$_M_range_initialize@PBD@?$basic_string@DV?$char_traits@D@_STL@@V?$allocator@D@2@@_STL@@AAEXPBD0@Z PROC NEAR ; _STL::basic_string<char,_STL::char_traits<char>,_STL::allocator<char> >::_M_range_initialize<char const *>, COMDAT
; _this$ = ecx

; 390  :   template <class _InputIter> void _M_range_initialize(_InputIter __f, _InputIter __l) {

  00000	55		 push	 ebp
  00001	8b ec		 mov	 ebp, esp

; 391  :     _M_range_initialize(__f, __l, _STLP_ITERATOR_CATEGORY(__f, _InputIter));

  00003	8d 45 0f	 lea	 eax, DWORD PTR $T101106[ebp]
  00006	50		 push	 eax
  00007	ff 75 0c	 push	 DWORD PTR ___l$[ebp]
  0000a	ff 75 08	 push	 DWORD PTR ___f$[ebp]
  0000d	e8 00 00 00 00	 call	 ??$_M_range_initialize@PBD@?$basic_string@DV?$char_traits@D@_STL@@V?$allocator@D@2@@_STL@@AAEXPBD0ABUforward_iterator_tag@1@@Z ; _STL::basic_string<char,_STL::char_traits<char>,_STL::allocator<char> >::_M_range_initialize<char const *>

; 392  :   }

  00012	5d		 pop	 ebp
  00013	c2 08 00	 ret	 8
??$_M_range_initialize@PBD@?$basic_string@DV?$char_traits@D@_STL@@V?$allocator@D@2@@_STL@@AAEXPBD0@Z ENDP ; _STL::basic_string<char,_STL::char_traits<char>,_STL::allocator<char> >::_M_range_initialize<char const *>
_TEXT	ENDS
PUBLIC	??1?$_String_base@DV?$allocator@D@_STL@@@_STL@@QAE@XZ ; _STL::_String_base<char,_STL::allocator<char> >::~_String_base<char,_STL::allocator<char> >
; Function compile flags: /Ogsy
;	COMDAT ??1?$_String_base@DV?$allocator@D@_STL@@@_STL@@QAE@XZ
_TEXT	SEGMENT
??1?$_String_base@DV?$allocator@D@_STL@@@_STL@@QAE@XZ PROC NEAR ; _STL::_String_base<char,_STL::allocator<char> >::~_String_base<char,_STL::allocator<char> >, COMDAT
; _this$ = ecx

; 135  :   ~_String_base() { _M_deallocate_block(); }

  00000	e9 00 00 00 00	 jmp	 ?_M_deallocate_block@?$_String_base@DV?$allocator@D@_STL@@@_STL@@QAEXXZ ; _STL::_String_base<char,_STL::allocator<char> >::_M_deallocate_block
??1?$_String_base@DV?$allocator@D@_STL@@@_STL@@QAE@XZ ENDP ; _STL::_String_base<char,_STL::allocator<char> >::~_String_base<char,_STL::allocator<char> >
_TEXT	ENDS
PUBLIC	??0?$basic_string@DV?$char_traits@D@_STL@@V?$allocator@D@2@@_STL@@QAE@PBDABV?$allocator@D@1@@Z ; _STL::basic_string<char,_STL::char_traits<char>,_STL::allocator<char> >::basic_string<char,_STL::char_traits<char>,_STL::allocator<char> >
EXTRN	__EH_prolog:NEAR
EXTRN	__except_list:DWORD
EXTRN	___CxxFrameHandler:NEAR
;	COMDAT xdata$x
xdata$x	SEGMENT
$T101129 DD	0ffffffffH
	DD	FLAT:$L101112
$T101125 DD	019930520H
	DD	01H
	DD	FLAT:$T101129
	DD	2 DUP(00H)
	DD	2 DUP(00H)
; Function compile flags: /Ogsy
; File c:\stlport-4.6.1\stlport\stl\_string.c
xdata$x	ENDS
;	COMDAT ??0?$basic_string@DV?$char_traits@D@_STL@@V?$allocator@D@2@@_STL@@QAE@PBDABV?$allocator@D@1@@Z
_TEXT	SEGMENT
_this$ = -16						; size = 4
__$EHRec$ = -12						; size = 12
___s$ = 8						; size = 4
$T101120 = 11						; size = 1
___a$ = 12						; size = 4
??0?$basic_string@DV?$char_traits@D@_STL@@V?$allocator@D@2@@_STL@@QAE@PBDABV?$allocator@D@1@@Z PROC NEAR ; _STL::basic_string<char,_STL::char_traits<char>,_STL::allocator<char> >::basic_string<char,_STL::char_traits<char>,_STL::allocator<char> >, COMDAT
; _this$ = ecx

; 552  : { 

  00000	b8 00 00 00 00	 mov	 eax, __ehhandler$??0?$basic_string@DV?$char_traits@D@_STL@@V?$allocator@D@2@@_STL@@QAE@PBDABV?$allocator@D@1@@Z
  00005	e8 00 00 00 00	 call	 __EH_prolog
  0000a	51		 push	 ecx
  0000b	56		 push	 esi
  0000c	ff 75 0c	 push	 DWORD PTR ___a$[ebp]
  0000f	8b f1		 mov	 esi, ecx
  00011	89 75 f0	 mov	 DWORD PTR _this$[ebp], esi
  00014	e8 00 00 00 00	 call	 ??0?$_String_base@DV?$allocator@D@_STL@@@_STL@@QAE@ABV?$allocator@D@1@@Z ; _STL::_String_base<char,_STL::allocator<char> >::_String_base<char,_STL::allocator<char> >

; 553  :   _STLP_FIX_LITERAL_BUG(__s) 
; 554  :     _M_range_initialize(__s, __s + traits_type::length(__s));  

  00019	ff 75 08	 push	 DWORD PTR ___s$[ebp]
  0001c	83 65 fc 00	 and	 DWORD PTR __$EHRec$[ebp+8], 0
  00020	e8 00 00 00 00	 call	 _strlen
  00025	03 45 08	 add	 eax, DWORD PTR ___s$[ebp]
  00028	59		 pop	 ecx
  00029	8d 4d 0b	 lea	 ecx, DWORD PTR $T101120[ebp]
  0002c	51		 push	 ecx
  0002d	50		 push	 eax
  0002e	ff 75 08	 push	 DWORD PTR ___s$[ebp]
  00031	8b ce		 mov	 ecx, esi
  00033	e8 00 00 00 00	 call	 ??$_M_range_initialize@PBD@?$basic_string@DV?$char_traits@D@_STL@@V?$allocator@D@2@@_STL@@AAEXPBD0ABUforward_iterator_tag@1@@Z ; _STL::basic_string<char,_STL::char_traits<char>,_STL::allocator<char> >::_M_range_initialize<char const *>

; 555  : } 

  00038	8b 4d f4	 mov	 ecx, DWORD PTR __$EHRec$[ebp]
  0003b	8b c6		 mov	 eax, esi
  0003d	5e		 pop	 esi
  0003e	64 89 0d 00 00
	00 00		 mov	 DWORD PTR fs:__except_list, ecx
  00045	c9		 leave
  00046	c2 08 00	 ret	 8
_TEXT	ENDS
;	COMDAT text$x
text$x	SEGMENT
$L101112:
  00000	8b 4d f0	 mov	 ecx, DWORD PTR _this$[ebp]
  00003	e9 00 00 00 00	 jmp	 ??1?$_String_base@DV?$allocator@D@_STL@@@_STL@@QAE@XZ ; _STL::_String_base<char,_STL::allocator<char> >::~_String_base<char,_STL::allocator<char> >
__ehhandler$??0?$basic_string@DV?$char_traits@D@_STL@@V?$allocator@D@2@@_STL@@QAE@PBDABV?$allocator@D@1@@Z:
  00008	b8 00 00 00 00	 mov	 eax, OFFSET FLAT:$T101125
  0000d	e9 00 00 00 00	 jmp	 ___CxxFrameHandler
text$x	ENDS
??0?$basic_string@DV?$char_traits@D@_STL@@V?$allocator@D@2@@_STL@@QAE@PBDABV?$allocator@D@1@@Z ENDP ; _STL::basic_string<char,_STL::char_traits<char>,_STL::allocator<char> >::basic_string<char,_STL::char_traits<char>,_STL::allocator<char> >
PUBLIC	??1?$basic_string@DV?$char_traits@D@_STL@@V?$allocator@D@2@@_STL@@QAE@XZ ; _STL::basic_string<char,_STL::char_traits<char>,_STL::allocator<char> >::~basic_string<char,_STL::char_traits<char>,_STL::allocator<char> >
; Function compile flags: /Ogsy
; File c:\stlport-4.6.1\stlport\stl\_string.h
;	COMDAT ??1?$basic_string@DV?$char_traits@D@_STL@@V?$allocator@D@2@@_STL@@QAE@XZ
_TEXT	SEGMENT
??1?$basic_string@DV?$char_traits@D@_STL@@V?$allocator@D@2@@_STL@@QAE@XZ PROC NEAR ; _STL::basic_string<char,_STL::char_traits<char>,_STL::allocator<char> >::~basic_string<char,_STL::char_traits<char>,_STL::allocator<char> >, COMDAT
; _this$ = ecx

; 305  :   ~basic_string() { _STLP_STD::_Destroy(this->_M_start, this->_M_finish + 1); }

  00000	e9 00 00 00 00	 jmp	 ?_M_deallocate_block@?$_String_base@DV?$allocator@D@_STL@@@_STL@@QAEXXZ ; _STL::_String_base<char,_STL::allocator<char> >::_M_deallocate_block
??1?$basic_string@DV?$char_traits@D@_STL@@V?$allocator@D@2@@_STL@@QAE@XZ ENDP ; _STL::basic_string<char,_STL::char_traits<char>,_STL::allocator<char> >::~basic_string<char,_STL::char_traits<char>,_STL::allocator<char> >
_TEXT	ENDS
EXTRN	_atexit:NEAR
EXTRN	??0_Loc_init@ios_base@_STL@@QAE@XZ:NEAR		; _STL::ios_base::_Loc_init::_Loc_init
CRT$XCU	SEGMENT
_$S3	DD	FLAT:_$E1
; Function compile flags: /Ogsy
; File c:\stlport-4.6.1\stlport\iostream
CRT$XCU	ENDS
;	COMDAT _$E1
text$yc	SEGMENT
_$E1	PROC NEAR					; COMDAT

; 69   : static ios_base::_Loc_init _LocInit;

  00000	b9 00 00 00 00	 mov	 ecx, OFFSET FLAT:__LocInit
  00005	e8 00 00 00 00	 call	 ??0_Loc_init@ios_base@_STL@@QAE@XZ ; _STL::ios_base::_Loc_init::_Loc_init
  0000a	68 00 00 00 00	 push	 OFFSET FLAT:_$E2
  0000f	e8 00 00 00 00	 call	 _atexit
  00014	59		 pop	 ecx
  00015	c3		 ret	 0
_$E1	ENDP
text$yc	ENDS
EXTRN	??0Init@ios_base@_STL@@QAE@XZ:NEAR		; _STL::ios_base::Init::Init
CRT$XCU	SEGMENT
_$S6	DD	FLAT:_$E4
; Function compile flags: /Ogsy
CRT$XCU	ENDS
;	COMDAT _$E4
text$yc	SEGMENT
_$E4	PROC NEAR					; COMDAT

; 75   : static ios_base::Init _IosInit;

  00000	b9 00 00 00 00	 mov	 ecx, OFFSET FLAT:__IosInit
  00005	e8 00 00 00 00	 call	 ??0Init@ios_base@_STL@@QAE@XZ ; _STL::ios_base::Init::Init
  0000a	68 00 00 00 00	 push	 OFFSET FLAT:_$E5
  0000f	e8 00 00 00 00	 call	 _atexit
  00014	59		 pop	 ecx
  00015	c3		 ret	 0
_$E4	ENDP
text$yc	ENDS
PUBLIC	??_C@_01KICIPPFI@?2?$AA@			; `string'
CRT$XCU	SEGMENT
_$S9	DD	FLAT:_$E7
CRT$XCU	ENDS
;	COMDAT ??_C@_01KICIPPFI@?2?$AA@
; File c:\stlport-4.6.1\stlport\stl\_alloc.h
CONST	SEGMENT
??_C@_01KICIPPFI@?2?$AA@ DB '\', 00H			; `string'
; Function compile flags: /Ogsy
; File c:\darkeden\designed_common\project\client\packet\types\systemtypes.h
CONST	ENDS
;	COMDAT _$E7
text$yc	SEGMENT
$T101163 = -1						; size = 1
_$E7	PROC NEAR					; COMDAT

; 47   : 	const std::string separator = "\\";

  00000	51		 push	 ecx
  00001	8d 44 24 03	 lea	 eax, DWORD PTR $T101163[esp+4]
  00005	50		 push	 eax
  00006	68 00 00 00 00	 push	 OFFSET FLAT:??_C@_01KICIPPFI@?2?$AA@
  0000b	b9 00 00 00 00	 mov	 ecx, OFFSET FLAT:_separator
  00010	e8 00 00 00 00	 call	 ??0?$basic_string@DV?$char_traits@D@_STL@@V?$allocator@D@2@@_STL@@QAE@PBDABV?$allocator@D@1@@Z ; _STL::basic_string<char,_STL::char_traits<char>,_STL::allocator<char> >::basic_string<char,_STL::char_traits<char>,_STL::allocator<char> >
  00015	68 00 00 00 00	 push	 OFFSET FLAT:_$E8
  0001a	e8 00 00 00 00	 call	 _atexit
  0001f	59		 pop	 ecx
  00020	59		 pop	 ecx
  00021	c3		 ret	 0
_$E7	ENDP
text$yc	ENDS
PUBLIC	??_C@_05PDGJNCN@KOREA?$AA@			; `string'
PUBLIC	??_C@_03KFPADBNO@USA?$AA@			; `string'
PUBLIC	??_C@_05FBMCIMHB@JAPAN?$AA@			; `string'
CRT$XCU	SEGMENT
_$S12	DD	FLAT:_$E10
CRT$XCU	ENDS
;	COMDAT xdata$x
; File c:\stlport-4.6.1\stlport\stl\_alloc.h
xdata$x	SEGMENT
$T101200 DD	0ffffffffH
	DD	FLAT:$L101176
	DD	00H
	DD	FLAT:$L101177
$T101198 DD	019930520H
	DD	02H
	DD	FLAT:$T101200
	DD	2 DUP(00H)
	DD	2 DUP(00H)
xdata$x	ENDS
;	COMDAT ??_C@_05PDGJNCN@KOREA?$AA@
CONST	SEGMENT
??_C@_05PDGJNCN@KOREA?$AA@ DB 'KOREA', 00H		; `string'
CONST	ENDS
;	COMDAT ??_C@_03KFPADBNO@USA?$AA@
CONST	SEGMENT
??_C@_03KFPADBNO@USA?$AA@ DB 'USA', 00H			; `string'
CONST	ENDS
;	COMDAT ??_C@_05FBMCIMHB@JAPAN?$AA@
CONST	SEGMENT
??_C@_05FBMCIMHB@JAPAN?$AA@ DB 'JAPAN', 00H		; `string'
; Function compile flags: /Ogsy
; File c:\darkeden\designed_common\project\client\packet\types\playertypes.h
CONST	ENDS
;	COMDAT _$E10
text$yc	SEGMENT
$T101175 = -13						; size = 1
$T101174 = -13						; size = 1
$T101173 = -13						; size = 1
__$EHRec$ = -12						; size = 12
_$E10	PROC NEAR					; COMDAT

; 129  : {   

  00000	b8 00 00 00 00	 mov	 eax, __ehhandler$_$E10
  00005	e8 00 00 00 00	 call	 __EH_prolog
  0000a	51		 push	 ecx

; 130  : 	"KOREA",

  0000b	8d 45 f3	 lea	 eax, DWORD PTR $T101173[ebp]
  0000e	50		 push	 eax
  0000f	68 00 00 00 00	 push	 OFFSET FLAT:??_C@_05PDGJNCN@KOREA?$AA@
  00014	b9 00 00 00 00	 mov	 ecx, OFFSET FLAT:_Nation2String
  00019	e8 00 00 00 00	 call	 ??0?$basic_string@DV?$char_traits@D@_STL@@V?$allocator@D@2@@_STL@@QAE@PBDABV?$allocator@D@1@@Z ; _STL::basic_string<char,_STL::char_traits<char>,_STL::allocator<char> >::basic_string<char,_STL::char_traits<char>,_STL::allocator<char> >
  0001e	83 65 fc 00	 and	 DWORD PTR __$EHRec$[ebp+8], 0

; 131  : 	"USA",

  00022	8d 45 f3	 lea	 eax, DWORD PTR $T101174[ebp]
  00025	50		 push	 eax
  00026	68 00 00 00 00	 push	 OFFSET FLAT:??_C@_03KFPADBNO@USA?$AA@
  0002b	b9 0c 00 00 00	 mov	 ecx, OFFSET FLAT:_Nation2String+12
  00030	e8 00 00 00 00	 call	 ??0?$basic_string@DV?$char_traits@D@_STL@@V?$allocator@D@2@@_STL@@QAE@PBDABV?$allocator@D@1@@Z ; _STL::basic_string<char,_STL::char_traits<char>,_STL::allocator<char> >::basic_string<char,_STL::char_traits<char>,_STL::allocator<char> >

; 132  : 	"JAPAN"
; 133  : };

  00035	8d 45 f3	 lea	 eax, DWORD PTR $T101175[ebp]
  00038	50		 push	 eax
  00039	68 00 00 00 00	 push	 OFFSET FLAT:??_C@_05FBMCIMHB@JAPAN?$AA@
  0003e	b9 18 00 00 00	 mov	 ecx, OFFSET FLAT:_Nation2String+24
  00043	c6 45 fc 01	 mov	 BYTE PTR __$EHRec$[ebp+8], 1
  00047	e8 00 00 00 00	 call	 ??0?$basic_string@DV?$char_traits@D@_STL@@V?$allocator@D@2@@_STL@@QAE@PBDABV?$allocator@D@1@@Z ; _STL::basic_string<char,_STL::char_traits<char>,_STL::allocator<char> >::basic_string<char,_STL::char_traits<char>,_STL::allocator<char> >
  0004c	68 00 00 00 00	 push	 OFFSET FLAT:_$E11
  00051	e8 00 00 00 00	 call	 _atexit
  00056	59		 pop	 ecx
  00057	8b 4d f4	 mov	 ecx, DWORD PTR __$EHRec$[ebp]
  0005a	64 89 0d 00 00
	00 00		 mov	 DWORD PTR fs:__except_list, ecx
  00061	c9		 leave
  00062	c3		 ret	 0
text$yc	ENDS
;	COMDAT text$x
text$x	SEGMENT
$L101176:
  00000	b9 00 00 00 00	 mov	 ecx, OFFSET FLAT:_Nation2String
  00005	e9 00 00 00 00	 jmp	 ??1?$basic_string@DV?$char_traits@D@_STL@@V?$allocator@D@2@@_STL@@QAE@XZ ; _STL::basic_string<char,_STL::char_traits<char>,_STL::allocator<char> >::~basic_string<char,_STL::char_traits<char>,_STL::allocator<char> >
$L101177:
  0000a	b9 0c 00 00 00	 mov	 ecx, OFFSET FLAT:_Nation2String+12
  0000f	e9 00 00 00 00	 jmp	 ??1?$basic_string@DV?$char_traits@D@_STL@@V?$allocator@D@2@@_STL@@QAE@XZ ; _STL::basic_string<char,_STL::char_traits<char>,_STL::allocator<char> >::~basic_string<char,_STL::char_traits<char>,_STL::allocator<char> >
__ehhandler$_$E10:
  00014	b8 00 00 00 00	 mov	 eax, OFFSET FLAT:$T101198
  00019	e9 00 00 00 00	 jmp	 ___CxxFrameHandler
text$x	ENDS
_$E10	ENDP
PUBLIC	??_C@_09IJJFLHHI@PC_SLAYER?$AA@			; `string'
PUBLIC	??_C@_0L@MKGKKFOP@PC_VAMPIRE?$AA@		; `string'
PUBLIC	??_C@_0L@KABNPIHG@PC_OUSTERS?$AA@		; `string'
CRT$XCU	SEGMENT
_$S15	DD	FLAT:_$E13
CRT$XCU	ENDS
;	COMDAT xdata$x
; File c:\stlport-4.6.1\stlport\stl\_alloc.h
xdata$x	SEGMENT
$T101232 DD	0ffffffffH
	DD	FLAT:$L101208
	DD	00H
	DD	FLAT:$L101209
$T101230 DD	019930520H
	DD	02H
	DD	FLAT:$T101232
	DD	2 DUP(00H)
	DD	2 DUP(00H)
xdata$x	ENDS
;	COMDAT ??_C@_09IJJFLHHI@PC_SLAYER?$AA@
CONST	SEGMENT
??_C@_09IJJFLHHI@PC_SLAYER?$AA@ DB 'PC_SLAYER', 00H	; `string'
CONST	ENDS
;	COMDAT ??_C@_0L@MKGKKFOP@PC_VAMPIRE?$AA@
CONST	SEGMENT
??_C@_0L@MKGKKFOP@PC_VAMPIRE?$AA@ DB 'PC_VAMPIRE', 00H	; `string'
CONST	ENDS
;	COMDAT ??_C@_0L@KABNPIHG@PC_OUSTERS?$AA@
CONST	SEGMENT
??_C@_0L@KABNPIHG@PC_OUSTERS?$AA@ DB 'PC_OUSTERS', 00H	; `string'
; Function compile flags: /Ogsy
; File c:\darkeden\designed_common\project\client\packet\types\creaturetypes.h
CONST	ENDS
;	COMDAT _$E13
text$yc	SEGMENT
$T101207 = -13						; size = 1
$T101206 = -13						; size = 1
$T101205 = -13						; size = 1
__$EHRec$ = -12						; size = 12
_$E13	PROC NEAR					; COMDAT

; 26   : {

  00000	b8 00 00 00 00	 mov	 eax, __ehhandler$_$E13
  00005	e8 00 00 00 00	 call	 __EH_prolog
  0000a	51		 push	 ecx

; 27   : 	"PC_SLAYER",

  0000b	8d 45 f3	 lea	 eax, DWORD PTR $T101205[ebp]
  0000e	50		 push	 eax
  0000f	68 00 00 00 00	 push	 OFFSET FLAT:??_C@_09IJJFLHHI@PC_SLAYER?$AA@
  00014	b9 00 00 00 00	 mov	 ecx, OFFSET FLAT:_PCType2String
  00019	e8 00 00 00 00	 call	 ??0?$basic_string@DV?$char_traits@D@_STL@@V?$allocator@D@2@@_STL@@QAE@PBDABV?$allocator@D@1@@Z ; _STL::basic_string<char,_STL::char_traits<char>,_STL::allocator<char> >::basic_string<char,_STL::char_traits<char>,_STL::allocator<char> >
  0001e	83 65 fc 00	 and	 DWORD PTR __$EHRec$[ebp+8], 0

; 28   : 	"PC_VAMPIRE",

  00022	8d 45 f3	 lea	 eax, DWORD PTR $T101206[ebp]
  00025	50		 push	 eax
  00026	68 00 00 00 00	 push	 OFFSET FLAT:??_C@_0L@MKGKKFOP@PC_VAMPIRE?$AA@
  0002b	b9 0c 00 00 00	 mov	 ecx, OFFSET FLAT:_PCType2String+12
  00030	e8 00 00 00 00	 call	 ??0?$basic_string@DV?$char_traits@D@_STL@@V?$allocator@D@2@@_STL@@QAE@PBDABV?$allocator@D@1@@Z ; _STL::basic_string<char,_STL::char_traits<char>,_STL::allocator<char> >::basic_string<char,_STL::char_traits<char>,_STL::allocator<char> >

; 29   : 	"PC_OUSTERS"
; 30   : };

  00035	8d 45 f3	 lea	 eax, DWORD PTR $T101207[ebp]
  00038	50		 push	 eax
  00039	68 00 00 00 00	 push	 OFFSET FLAT:??_C@_0L@KABNPIHG@PC_OUSTERS?$AA@
  0003e	b9 18 00 00 00	 mov	 ecx, OFFSET FLAT:_PCType2String+24
  00043	c6 45 fc 01	 mov	 BYTE PTR __$EHRec$[ebp+8], 1
  00047	e8 00 00 00 00	 call	 ??0?$basic_string@DV?$char_traits@D@_STL@@V?$allocator@D@2@@_STL@@QAE@PBDABV?$allocator@D@1@@Z ; _STL::basic_string<char,_STL::char_traits<char>,_STL::allocator<char> >::basic_string<char,_STL::char_traits<char>,_STL::allocator<char> >
  0004c	68 00 00 00 00	 push	 OFFSET FLAT:_$E14
  00051	e8 00 00 00 00	 call	 _atexit
  00056	59		 pop	 ecx
  00057	8b 4d f4	 mov	 ecx, DWORD PTR __$EHRec$[ebp]
  0005a	64 89 0d 00 00
	00 00		 mov	 DWORD PTR fs:__except_list, ecx
  00061	c9		 leave
  00062	c3		 ret	 0
text$yc	ENDS
;	COMDAT text$x
text$x	SEGMENT
$L101208:
  00000	b9 00 00 00 00	 mov	 ecx, OFFSET FLAT:_PCType2String
  00005	e9 00 00 00 00	 jmp	 ??1?$basic_string@DV?$char_traits@D@_STL@@V?$allocator@D@2@@_STL@@QAE@XZ ; _STL::basic_string<char,_STL::char_traits<char>,_STL::allocator<char> >::~basic_string<char,_STL::char_traits<char>,_STL::allocator<char> >
$L101209:
  0000a	b9 0c 00 00 00	 mov	 ecx, OFFSET FLAT:_PCType2String+12
  0000f	e9 00 00 00 00	 jmp	 ??1?$basic_string@DV?$char_traits@D@_STL@@V?$allocator@D@2@@_STL@@QAE@XZ ; _STL::basic_string<char,_STL::char_traits<char>,_STL::allocator<char> >::~basic_string<char,_STL::char_traits<char>,_STL::allocator<char> >
__ehhandler$_$E13:
  00014	b8 00 00 00 00	 mov	 eax, OFFSET FLAT:$T101230
  00019	e9 00 00 00 00	 jmp	 ___CxxFrameHandler
text$x	ENDS
_$E13	ENDP
PUBLIC	??_C@_0M@CGIAEAIL@HELMET_NONE?$AA@		; `string'
PUBLIC	??_C@_07KPENNMCO@HELMET1?$AA@			; `string'
PUBLIC	??_C@_07IEGAIPON@HELMET2?$AA@			; `string'
PUBLIC	??_C@_07JNHLLOKM@HELMET3?$AA@			; `string'
PUBLIC	??_C@_07NCDKCIGL@HELMET4?$AA@			; `string'
PUBLIC	??_C@_07MLCBBJCK@HELMET5?$AA@			; `string'
PUBLIC	??_C@_07OAAMEKOJ@HELMET6?$AA@			; `string'
PUBLIC	??_C@_07PJBHHLKI@HELMET7?$AA@			; `string'
CRT$XCU	SEGMENT
_$S18	DD	FLAT:_$E16
CRT$XCU	ENDS
;	COMDAT xdata$x
; File c:\stlport-4.6.1\stlport\stl\_alloc.h
xdata$x	SEGMENT
$T101304 DD	0ffffffffH
	DD	FLAT:$L101245
	DD	00H
	DD	FLAT:$L101246
	DD	01H
	DD	FLAT:$L101247
	DD	02H
	DD	FLAT:$L101248
	DD	03H
	DD	FLAT:$L101249
	DD	04H
	DD	FLAT:$L101250
	DD	05H
	DD	FLAT:$L101251
$T101302 DD	019930520H
	DD	07H
	DD	FLAT:$T101304
	DD	2 DUP(00H)
	DD	2 DUP(00H)
xdata$x	ENDS
;	COMDAT ??_C@_0M@CGIAEAIL@HELMET_NONE?$AA@
CONST	SEGMENT
??_C@_0M@CGIAEAIL@HELMET_NONE?$AA@ DB 'HELMET_NONE', 00H ; `string'
CONST	ENDS
;	COMDAT ??_C@_07KPENNMCO@HELMET1?$AA@
CONST	SEGMENT
??_C@_07KPENNMCO@HELMET1?$AA@ DB 'HELMET1', 00H		; `string'
CONST	ENDS
;	COMDAT ??_C@_07IEGAIPON@HELMET2?$AA@
CONST	SEGMENT
??_C@_07IEGAIPON@HELMET2?$AA@ DB 'HELMET2', 00H		; `string'
CONST	ENDS
;	COMDAT ??_C@_07JNHLLOKM@HELMET3?$AA@
CONST	SEGMENT
??_C@_07JNHLLOKM@HELMET3?$AA@ DB 'HELMET3', 00H		; `string'
CONST	ENDS
;	COMDAT ??_C@_07NCDKCIGL@HELMET4?$AA@
CONST	SEGMENT
??_C@_07NCDKCIGL@HELMET4?$AA@ DB 'HELMET4', 00H		; `string'
CONST	ENDS
;	COMDAT ??_C@_07MLCBBJCK@HELMET5?$AA@
CONST	SEGMENT
??_C@_07MLCBBJCK@HELMET5?$AA@ DB 'HELMET5', 00H		; `string'
CONST	ENDS
;	COMDAT ??_C@_07OAAMEKOJ@HELMET6?$AA@
CONST	SEGMENT
??_C@_07OAAMEKOJ@HELMET6?$AA@ DB 'HELMET6', 00H		; `string'
CONST	ENDS
;	COMDAT ??_C@_07PJBHHLKI@HELMET7?$AA@
CONST	SEGMENT
??_C@_07PJBHHLKI@HELMET7?$AA@ DB 'HELMET7', 00H		; `string'
; Function compile flags: /Ogsy
; File c:\darkeden\designed_common\project\client\packet\types\creaturetypes.h
CONST	ENDS
;	COMDAT _$E16
text$yc	SEGMENT
$T101244 = -13						; size = 1
$T101243 = -13						; size = 1
$T101242 = -13						; size = 1
$T101241 = -13						; size = 1
$T101240 = -13						; size = 1
$T101239 = -13						; size = 1
$T101238 = -13						; size = 1
$T101237 = -13						; size = 1
__$EHRec$ = -12						; size = 12
_$E16	PROC NEAR					; COMDAT

; 48   : { 

  00000	b8 00 00 00 00	 mov	 eax, __ehhandler$_$E16
  00005	e8 00 00 00 00	 call	 __EH_prolog
  0000a	51		 push	 ecx

; 49   : 	"HELMET_NONE" , 

  0000b	8d 45 f3	 lea	 eax, DWORD PTR $T101237[ebp]
  0000e	50		 push	 eax
  0000f	68 00 00 00 00	 push	 OFFSET FLAT:??_C@_0M@CGIAEAIL@HELMET_NONE?$AA@
  00014	b9 00 00 00 00	 mov	 ecx, OFFSET FLAT:_HelmetType2String
  00019	e8 00 00 00 00	 call	 ??0?$basic_string@DV?$char_traits@D@_STL@@V?$allocator@D@2@@_STL@@QAE@PBDABV?$allocator@D@1@@Z ; _STL::basic_string<char,_STL::char_traits<char>,_STL::allocator<char> >::basic_string<char,_STL::char_traits<char>,_STL::allocator<char> >
  0001e	83 65 fc 00	 and	 DWORD PTR __$EHRec$[ebp+8], 0

; 50   : 	"HELMET1" ,

  00022	8d 45 f3	 lea	 eax, DWORD PTR $T101238[ebp]
  00025	50		 push	 eax
  00026	68 00 00 00 00	 push	 OFFSET FLAT:??_C@_07KPENNMCO@HELMET1?$AA@
  0002b	b9 0c 00 00 00	 mov	 ecx, OFFSET FLAT:_HelmetType2String+12
  00030	e8 00 00 00 00	 call	 ??0?$basic_string@DV?$char_traits@D@_STL@@V?$allocator@D@2@@_STL@@QAE@PBDABV?$allocator@D@1@@Z ; _STL::basic_string<char,_STL::char_traits<char>,_STL::allocator<char> >::basic_string<char,_STL::char_traits<char>,_STL::allocator<char> >

; 51   : 	"HELMET2" ,

  00035	8d 45 f3	 lea	 eax, DWORD PTR $T101239[ebp]
  00038	50		 push	 eax
  00039	68 00 00 00 00	 push	 OFFSET FLAT:??_C@_07IEGAIPON@HELMET2?$AA@
  0003e	b9 18 00 00 00	 mov	 ecx, OFFSET FLAT:_HelmetType2String+24
  00043	c6 45 fc 01	 mov	 BYTE PTR __$EHRec$[ebp+8], 1
  00047	e8 00 00 00 00	 call	 ??0?$basic_string@DV?$char_traits@D@_STL@@V?$allocator@D@2@@_STL@@QAE@PBDABV?$allocator@D@1@@Z ; _STL::basic_string<char,_STL::char_traits<char>,_STL::allocator<char> >::basic_string<char,_STL::char_traits<char>,_STL::allocator<char> >

; 52   : 	"HELMET3" ,

  0004c	8d 45 f3	 lea	 eax, DWORD PTR $T101240[ebp]
  0004f	50		 push	 eax
  00050	68 00 00 00 00	 push	 OFFSET FLAT:??_C@_07JNHLLOKM@HELMET3?$AA@
  00055	b9 24 00 00 00	 mov	 ecx, OFFSET FLAT:_HelmetType2String+36
  0005a	c6 45 fc 02	 mov	 BYTE PTR __$EHRec$[ebp+8], 2
  0005e	e8 00 00 00 00	 call	 ??0?$basic_string@DV?$char_traits@D@_STL@@V?$allocator@D@2@@_STL@@QAE@PBDABV?$allocator@D@1@@Z ; _STL::basic_string<char,_STL::char_traits<char>,_STL::allocator<char> >::basic_string<char,_STL::char_traits<char>,_STL::allocator<char> >

; 53   : 	"HELMET4" , //by viva 171

  00063	8d 45 f3	 lea	 eax, DWORD PTR $T101241[ebp]
  00066	50		 push	 eax
  00067	68 00 00 00 00	 push	 OFFSET FLAT:??_C@_07NCDKCIGL@HELMET4?$AA@
  0006c	b9 30 00 00 00	 mov	 ecx, OFFSET FLAT:_HelmetType2String+48
  00071	c6 45 fc 03	 mov	 BYTE PTR __$EHRec$[ebp+8], 3
  00075	e8 00 00 00 00	 call	 ??0?$basic_string@DV?$char_traits@D@_STL@@V?$allocator@D@2@@_STL@@QAE@PBDABV?$allocator@D@1@@Z ; _STL::basic_string<char,_STL::char_traits<char>,_STL::allocator<char> >::basic_string<char,_STL::char_traits<char>,_STL::allocator<char> >

; 54   : 	"HELMET5" ,	//by viva 191

  0007a	8d 45 f3	 lea	 eax, DWORD PTR $T101242[ebp]
  0007d	50		 push	 eax
  0007e	68 00 00 00 00	 push	 OFFSET FLAT:??_C@_07MLCBBJCK@HELMET5?$AA@
  00083	b9 3c 00 00 00	 mov	 ecx, OFFSET FLAT:_HelmetType2String+60
  00088	c6 45 fc 04	 mov	 BYTE PTR __$EHRec$[ebp+8], 4
  0008c	e8 00 00 00 00	 call	 ??0?$basic_string@DV?$char_traits@D@_STL@@V?$allocator@D@2@@_STL@@QAE@PBDABV?$allocator@D@1@@Z ; _STL::basic_string<char,_STL::char_traits<char>,_STL::allocator<char> >::basic_string<char,_STL::char_traits<char>,_STL::allocator<char> >

; 55   : 	"HELMET6" ,//by rallser201

  00091	8d 45 f3	 lea	 eax, DWORD PTR $T101243[ebp]
  00094	50		 push	 eax
  00095	68 00 00 00 00	 push	 OFFSET FLAT:??_C@_07OAAMEKOJ@HELMET6?$AA@
  0009a	b9 48 00 00 00	 mov	 ecx, OFFSET FLAT:_HelmetType2String+72
  0009f	c6 45 fc 05	 mov	 BYTE PTR __$EHRec$[ebp+8], 5
  000a3	e8 00 00 00 00	 call	 ??0?$basic_string@DV?$char_traits@D@_STL@@V?$allocator@D@2@@_STL@@QAE@PBDABV?$allocator@D@1@@Z ; _STL::basic_string<char,_STL::char_traits<char>,_STL::allocator<char> >::basic_string<char,_STL::char_traits<char>,_STL::allocator<char> >

; 56   : 	"HELMET7" ,//by rallser231

  000a8	8d 45 f3	 lea	 eax, DWORD PTR $T101244[ebp]
  000ab	50		 push	 eax
  000ac	68 00 00 00 00	 push	 OFFSET FLAT:??_C@_07PJBHHLKI@HELMET7?$AA@
  000b1	b9 54 00 00 00	 mov	 ecx, OFFSET FLAT:_HelmetType2String+84
  000b6	c6 45 fc 06	 mov	 BYTE PTR __$EHRec$[ebp+8], 6
  000ba	e8 00 00 00 00	 call	 ??0?$basic_string@DV?$char_traits@D@_STL@@V?$allocator@D@2@@_STL@@QAE@PBDABV?$allocator@D@1@@Z ; _STL::basic_string<char,_STL::char_traits<char>,_STL::allocator<char> >::basic_string<char,_STL::char_traits<char>,_STL::allocator<char> >

; 57   : };

  000bf	68 00 00 00 00	 push	 OFFSET FLAT:_$E17
  000c4	e8 00 00 00 00	 call	 _atexit
  000c9	59		 pop	 ecx
  000ca	8b 4d f4	 mov	 ecx, DWORD PTR __$EHRec$[ebp]
  000cd	64 89 0d 00 00
	00 00		 mov	 DWORD PTR fs:__except_list, ecx
  000d4	c9		 leave
  000d5	c3		 ret	 0
text$yc	ENDS
;	COMDAT text$x
text$x	SEGMENT
$L101245:
  00000	b9 00 00 00 00	 mov	 ecx, OFFSET FLAT:_HelmetType2String
  00005	e9 00 00 00 00	 jmp	 ??1?$basic_string@DV?$char_traits@D@_STL@@V?$allocator@D@2@@_STL@@QAE@XZ ; _STL::basic_string<char,_STL::char_traits<char>,_STL::allocator<char> >::~basic_string<char,_STL::char_traits<char>,_STL::allocator<char> >
$L101246:
  0000a	b9 0c 00 00 00	 mov	 ecx, OFFSET FLAT:_HelmetType2String+12
  0000f	e9 00 00 00 00	 jmp	 ??1?$basic_string@DV?$char_traits@D@_STL@@V?$allocator@D@2@@_STL@@QAE@XZ ; _STL::basic_string<char,_STL::char_traits<char>,_STL::allocator<char> >::~basic_string<char,_STL::char_traits<char>,_STL::allocator<char> >
$L101247:
  00014	b9 18 00 00 00	 mov	 ecx, OFFSET FLAT:_HelmetType2String+24
  00019	e9 00 00 00 00	 jmp	 ??1?$basic_string@DV?$char_traits@D@_STL@@V?$allocator@D@2@@_STL@@QAE@XZ ; _STL::basic_string<char,_STL::char_traits<char>,_STL::allocator<char> >::~basic_string<char,_STL::char_traits<char>,_STL::allocator<char> >
$L101248:
  0001e	b9 24 00 00 00	 mov	 ecx, OFFSET FLAT:_HelmetType2String+36
  00023	e9 00 00 00 00	 jmp	 ??1?$basic_string@DV?$char_traits@D@_STL@@V?$allocator@D@2@@_STL@@QAE@XZ ; _STL::basic_string<char,_STL::char_traits<char>,_STL::allocator<char> >::~basic_string<char,_STL::char_traits<char>,_STL::allocator<char> >
$L101249:
  00028	b9 30 00 00 00	 mov	 ecx, OFFSET FLAT:_HelmetType2String+48
  0002d	e9 00 00 00 00	 jmp	 ??1?$basic_string@DV?$char_traits@D@_STL@@V?$allocator@D@2@@_STL@@QAE@XZ ; _STL::basic_string<char,_STL::char_traits<char>,_STL::allocator<char> >::~basic_string<char,_STL::char_traits<char>,_STL::allocator<char> >
$L101250:
  00032	b9 3c 00 00 00	 mov	 ecx, OFFSET FLAT:_HelmetType2String+60
  00037	e9 00 00 00 00	 jmp	 ??1?$basic_string@DV?$char_traits@D@_STL@@V?$allocator@D@2@@_STL@@QAE@XZ ; _STL::basic_string<char,_STL::char_traits<char>,_STL::allocator<char> >::~basic_string<char,_STL::char_traits<char>,_STL::allocator<char> >
$L101251:
  0003c	b9 48 00 00 00	 mov	 ecx, OFFSET FLAT:_HelmetType2String+72
  00041	e9 00 00 00 00	 jmp	 ??1?$basic_string@DV?$char_traits@D@_STL@@V?$allocator@D@2@@_STL@@QAE@XZ ; _STL::basic_string<char,_STL::char_traits<char>,_STL::allocator<char> >::~basic_string<char,_STL::char_traits<char>,_STL::allocator<char> >
__ehhandler$_$E16:
  00046	b8 00 00 00 00	 mov	 eax, OFFSET FLAT:$T101302
  0004b	e9 00 00 00 00	 jmp	 ___CxxFrameHandler
text$x	ENDS
_$E16	ENDP
PUBLIC	??_C@_0N@DPDPMEKH@JACKET_BASIC?$AA@		; `string'
PUBLIC	??_C@_07GHDBLIDF@JACKET1?$AA@			; `string'
PUBLIC	??_C@_07EMBMOLPG@JACKET2?$AA@			; `string'
PUBLIC	??_C@_07FFAHNKLH@JACKET3?$AA@			; `string'
PUBLIC	??_C@_07BKEGEMHA@JACKET4?$AA@			; `string'
PUBLIC	??_C@_07DFNHNDB@JACKET5?$AA@			; `string'
PUBLIC	??_C@_07CIHACOPC@JACKET6?$AA@			; `string'
PUBLIC	??_C@_07DBGLBPLD@JACKET7?$AA@			; `string'
PUBLIC	??_C@_07LGPDADHM@JACKET8?$AA@			; `string'
CRT$XCU	SEGMENT
_$S21	DD	FLAT:_$E19
CRT$XCU	ENDS
;	COMDAT xdata$x
; File c:\stlport-4.6.1\stlport\stl\_alloc.h
xdata$x	SEGMENT
$T101384 DD	0ffffffffH
	DD	FLAT:$L101318
	DD	00H
	DD	FLAT:$L101319
	DD	01H
	DD	FLAT:$L101320
	DD	02H
	DD	FLAT:$L101321
	DD	03H
	DD	FLAT:$L101322
	DD	04H
	DD	FLAT:$L101323
	DD	05H
	DD	FLAT:$L101324
	DD	06H
	DD	FLAT:$L101325
$T101382 DD	019930520H
	DD	08H
	DD	FLAT:$T101384
	DD	2 DUP(00H)
	DD	2 DUP(00H)
xdata$x	ENDS
;	COMDAT ??_C@_0N@DPDPMEKH@JACKET_BASIC?$AA@
CONST	SEGMENT
??_C@_0N@DPDPMEKH@JACKET_BASIC?$AA@ DB 'JACKET_BASIC', 00H ; `string'
CONST	ENDS
;	COMDAT ??_C@_07GHDBLIDF@JACKET1?$AA@
CONST	SEGMENT
??_C@_07GHDBLIDF@JACKET1?$AA@ DB 'JACKET1', 00H		; `string'
CONST	ENDS
;	COMDAT ??_C@_07EMBMOLPG@JACKET2?$AA@
CONST	SEGMENT
??_C@_07EMBMOLPG@JACKET2?$AA@ DB 'JACKET2', 00H		; `string'
CONST	ENDS
;	COMDAT ??_C@_07FFAHNKLH@JACKET3?$AA@
CONST	SEGMENT
??_C@_07FFAHNKLH@JACKET3?$AA@ DB 'JACKET3', 00H		; `string'
CONST	ENDS
;	COMDAT ??_C@_07BKEGEMHA@JACKET4?$AA@
CONST	SEGMENT
??_C@_07BKEGEMHA@JACKET4?$AA@ DB 'JACKET4', 00H		; `string'
CONST	ENDS
;	COMDAT ??_C@_07DFNHNDB@JACKET5?$AA@
CONST	SEGMENT
??_C@_07DFNHNDB@JACKET5?$AA@ DB 'JACKET5', 00H		; `string'
CONST	ENDS
;	COMDAT ??_C@_07CIHACOPC@JACKET6?$AA@
CONST	SEGMENT
??_C@_07CIHACOPC@JACKET6?$AA@ DB 'JACKET6', 00H		; `string'
CONST	ENDS
;	COMDAT ??_C@_07DBGLBPLD@JACKET7?$AA@
CONST	SEGMENT
??_C@_07DBGLBPLD@JACKET7?$AA@ DB 'JACKET7', 00H		; `string'
CONST	ENDS
;	COMDAT ??_C@_07LGPDADHM@JACKET8?$AA@
CONST	SEGMENT
??_C@_07LGPDADHM@JACKET8?$AA@ DB 'JACKET8', 00H		; `string'
; Function compile flags: /Ogsy
; File c:\darkeden\designed_common\project\client\packet\types\creaturetypes.h
CONST	ENDS
;	COMDAT _$E19
text$yc	SEGMENT
$T101317 = -13						; size = 1
$T101316 = -13						; size = 1
$T101315 = -13						; size = 1
$T101314 = -13						; size = 1
$T101313 = -13						; size = 1
$T101312 = -13						; size = 1
$T101311 = -13						; size = 1
$T101310 = -13						; size = 1
$T101309 = -13						; size = 1
__$EHRec$ = -12						; size = 12
_$E19	PROC NEAR					; COMDAT

; 60   : { 

  00000	b8 00 00 00 00	 mov	 eax, __ehhandler$_$E19
  00005	e8 00 00 00 00	 call	 __EH_prolog
  0000a	51		 push	 ecx

; 61   : 	"JACKET_BASIC" , 

  0000b	8d 45 f3	 lea	 eax, DWORD PTR $T101309[ebp]
  0000e	50		 push	 eax
  0000f	68 00 00 00 00	 push	 OFFSET FLAT:??_C@_0N@DPDPMEKH@JACKET_BASIC?$AA@
  00014	b9 00 00 00 00	 mov	 ecx, OFFSET FLAT:_JacketType2String
  00019	e8 00 00 00 00	 call	 ??0?$basic_string@DV?$char_traits@D@_STL@@V?$allocator@D@2@@_STL@@QAE@PBDABV?$allocator@D@1@@Z ; _STL::basic_string<char,_STL::char_traits<char>,_STL::allocator<char> >::basic_string<char,_STL::char_traits<char>,_STL::allocator<char> >
  0001e	83 65 fc 00	 and	 DWORD PTR __$EHRec$[ebp+8], 0

; 62   : 	"JACKET1", 

  00022	8d 45 f3	 lea	 eax, DWORD PTR $T101310[ebp]
  00025	50		 push	 eax
  00026	68 00 00 00 00	 push	 OFFSET FLAT:??_C@_07GHDBLIDF@JACKET1?$AA@
  0002b	b9 0c 00 00 00	 mov	 ecx, OFFSET FLAT:_JacketType2String+12
  00030	e8 00 00 00 00	 call	 ??0?$basic_string@DV?$char_traits@D@_STL@@V?$allocator@D@2@@_STL@@QAE@PBDABV?$allocator@D@1@@Z ; _STL::basic_string<char,_STL::char_traits<char>,_STL::allocator<char> >::basic_string<char,_STL::char_traits<char>,_STL::allocator<char> >

; 63   : 	"JACKET2" ,

  00035	8d 45 f3	 lea	 eax, DWORD PTR $T101311[ebp]
  00038	50		 push	 eax
  00039	68 00 00 00 00	 push	 OFFSET FLAT:??_C@_07EMBMOLPG@JACKET2?$AA@
  0003e	b9 18 00 00 00	 mov	 ecx, OFFSET FLAT:_JacketType2String+24
  00043	c6 45 fc 01	 mov	 BYTE PTR __$EHRec$[ebp+8], 1
  00047	e8 00 00 00 00	 call	 ??0?$basic_string@DV?$char_traits@D@_STL@@V?$allocator@D@2@@_STL@@QAE@PBDABV?$allocator@D@1@@Z ; _STL::basic_string<char,_STL::char_traits<char>,_STL::allocator<char> >::basic_string<char,_STL::char_traits<char>,_STL::allocator<char> >

; 64   : 	"JACKET3" ,

  0004c	8d 45 f3	 lea	 eax, DWORD PTR $T101312[ebp]
  0004f	50		 push	 eax
  00050	68 00 00 00 00	 push	 OFFSET FLAT:??_C@_07FFAHNKLH@JACKET3?$AA@
  00055	b9 24 00 00 00	 mov	 ecx, OFFSET FLAT:_JacketType2String+36
  0005a	c6 45 fc 02	 mov	 BYTE PTR __$EHRec$[ebp+8], 2
  0005e	e8 00 00 00 00	 call	 ??0?$basic_string@DV?$char_traits@D@_STL@@V?$allocator@D@2@@_STL@@QAE@PBDABV?$allocator@D@1@@Z ; _STL::basic_string<char,_STL::char_traits<char>,_STL::allocator<char> >::basic_string<char,_STL::char_traits<char>,_STL::allocator<char> >

; 65   : 	"JACKET4" ,

  00063	8d 45 f3	 lea	 eax, DWORD PTR $T101313[ebp]
  00066	50		 push	 eax
  00067	68 00 00 00 00	 push	 OFFSET FLAT:??_C@_07BKEGEMHA@JACKET4?$AA@
  0006c	b9 30 00 00 00	 mov	 ecx, OFFSET FLAT:_JacketType2String+48
  00071	c6 45 fc 03	 mov	 BYTE PTR __$EHRec$[ebp+8], 3
  00075	e8 00 00 00 00	 call	 ??0?$basic_string@DV?$char_traits@D@_STL@@V?$allocator@D@2@@_STL@@QAE@PBDABV?$allocator@D@1@@Z ; _STL::basic_string<char,_STL::char_traits<char>,_STL::allocator<char> >::basic_string<char,_STL::char_traits<char>,_STL::allocator<char> >

; 66   : 	"JACKET5" ,	//by viva //171

  0007a	8d 45 f3	 lea	 eax, DWORD PTR $T101314[ebp]
  0007d	50		 push	 eax
  0007e	68 00 00 00 00	 push	 OFFSET FLAT:??_C@_07DFNHNDB@JACKET5?$AA@
  00083	b9 3c 00 00 00	 mov	 ecx, OFFSET FLAT:_JacketType2String+60
  00088	c6 45 fc 04	 mov	 BYTE PTR __$EHRec$[ebp+8], 4
  0008c	e8 00 00 00 00	 call	 ??0?$basic_string@DV?$char_traits@D@_STL@@V?$allocator@D@2@@_STL@@QAE@PBDABV?$allocator@D@1@@Z ; _STL::basic_string<char,_STL::char_traits<char>,_STL::allocator<char> >::basic_string<char,_STL::char_traits<char>,_STL::allocator<char> >

; 67   : 	"JACKET6" ,	//191

  00091	8d 45 f3	 lea	 eax, DWORD PTR $T101315[ebp]
  00094	50		 push	 eax
  00095	68 00 00 00 00	 push	 OFFSET FLAT:??_C@_07CIHACOPC@JACKET6?$AA@
  0009a	b9 48 00 00 00	 mov	 ecx, OFFSET FLAT:_JacketType2String+72
  0009f	c6 45 fc 05	 mov	 BYTE PTR __$EHRec$[ebp+8], 5
  000a3	e8 00 00 00 00	 call	 ??0?$basic_string@DV?$char_traits@D@_STL@@V?$allocator@D@2@@_STL@@QAE@PBDABV?$allocator@D@1@@Z ; _STL::basic_string<char,_STL::char_traits<char>,_STL::allocator<char> >::basic_string<char,_STL::char_traits<char>,_STL::allocator<char> >

; 68   : 	"JACKET7" ,

  000a8	8d 45 f3	 lea	 eax, DWORD PTR $T101316[ebp]
  000ab	50		 push	 eax
  000ac	68 00 00 00 00	 push	 OFFSET FLAT:??_C@_07DBGLBPLD@JACKET7?$AA@
  000b1	b9 54 00 00 00	 mov	 ecx, OFFSET FLAT:_JacketType2String+84
  000b6	c6 45 fc 06	 mov	 BYTE PTR __$EHRec$[ebp+8], 6
  000ba	e8 00 00 00 00	 call	 ??0?$basic_string@DV?$char_traits@D@_STL@@V?$allocator@D@2@@_STL@@QAE@PBDABV?$allocator@D@1@@Z ; _STL::basic_string<char,_STL::char_traits<char>,_STL::allocator<char> >::basic_string<char,_STL::char_traits<char>,_STL::allocator<char> >

; 69   : 	"JACKET8", //231,

  000bf	8d 45 f3	 lea	 eax, DWORD PTR $T101317[ebp]
  000c2	50		 push	 eax
  000c3	68 00 00 00 00	 push	 OFFSET FLAT:??_C@_07LGPDADHM@JACKET8?$AA@
  000c8	b9 60 00 00 00	 mov	 ecx, OFFSET FLAT:_JacketType2String+96
  000cd	c6 45 fc 07	 mov	 BYTE PTR __$EHRec$[ebp+8], 7
  000d1	e8 00 00 00 00	 call	 ??0?$basic_string@DV?$char_traits@D@_STL@@V?$allocator@D@2@@_STL@@QAE@PBDABV?$allocator@D@1@@Z ; _STL::basic_string<char,_STL::char_traits<char>,_STL::allocator<char> >::basic_string<char,_STL::char_traits<char>,_STL::allocator<char> >

; 70   : };

  000d6	68 00 00 00 00	 push	 OFFSET FLAT:_$E20
  000db	e8 00 00 00 00	 call	 _atexit
  000e0	59		 pop	 ecx
  000e1	8b 4d f4	 mov	 ecx, DWORD PTR __$EHRec$[ebp]
  000e4	64 89 0d 00 00
	00 00		 mov	 DWORD PTR fs:__except_list, ecx
  000eb	c9		 leave
  000ec	c3		 ret	 0
text$yc	ENDS
;	COMDAT text$x
text$x	SEGMENT
$L101318:
  00000	b9 00 00 00 00	 mov	 ecx, OFFSET FLAT:_JacketType2String
  00005	e9 00 00 00 00	 jmp	 ??1?$basic_string@DV?$char_traits@D@_STL@@V?$allocator@D@2@@_STL@@QAE@XZ ; _STL::basic_string<char,_STL::char_traits<char>,_STL::allocator<char> >::~basic_string<char,_STL::char_traits<char>,_STL::allocator<char> >
$L101319:
  0000a	b9 0c 00 00 00	 mov	 ecx, OFFSET FLAT:_JacketType2String+12
  0000f	e9 00 00 00 00	 jmp	 ??1?$basic_string@DV?$char_traits@D@_STL@@V?$allocator@D@2@@_STL@@QAE@XZ ; _STL::basic_string<char,_STL::char_traits<char>,_STL::allocator<char> >::~basic_string<char,_STL::char_traits<char>,_STL::allocator<char> >
$L101320:
  00014	b9 18 00 00 00	 mov	 ecx, OFFSET FLAT:_JacketType2String+24
  00019	e9 00 00 00 00	 jmp	 ??1?$basic_string@DV?$char_traits@D@_STL@@V?$allocator@D@2@@_STL@@QAE@XZ ; _STL::basic_string<char,_STL::char_traits<char>,_STL::allocator<char> >::~basic_string<char,_STL::char_traits<char>,_STL::allocator<char> >
$L101321:
  0001e	b9 24 00 00 00	 mov	 ecx, OFFSET FLAT:_JacketType2String+36
  00023	e9 00 00 00 00	 jmp	 ??1?$basic_string@DV?$char_traits@D@_STL@@V?$allocator@D@2@@_STL@@QAE@XZ ; _STL::basic_string<char,_STL::char_traits<char>,_STL::allocator<char> >::~basic_string<char,_STL::char_traits<char>,_STL::allocator<char> >
$L101322:
  00028	b9 30 00 00 00	 mov	 ecx, OFFSET FLAT:_JacketType2String+48
  0002d	e9 00 00 00 00	 jmp	 ??1?$basic_string@DV?$char_traits@D@_STL@@V?$allocator@D@2@@_STL@@QAE@XZ ; _STL::basic_string<char,_STL::char_traits<char>,_STL::allocator<char> >::~basic_string<char,_STL::char_traits<char>,_STL::allocator<char> >
$L101323:
  00032	b9 3c 00 00 00	 mov	 ecx, OFFSET FLAT:_JacketType2String+60
  00037	e9 00 00 00 00	 jmp	 ??1?$basic_string@DV?$char_traits@D@_STL@@V?$allocator@D@2@@_STL@@QAE@XZ ; _STL::basic_string<char,_STL::char_traits<char>,_STL::allocator<char> >::~basic_string<char,_STL::char_traits<char>,_STL::allocator<char> >
$L101324:
  0003c	b9 48 00 00 00	 mov	 ecx, OFFSET FLAT:_JacketType2String+72
  00041	e9 00 00 00 00	 jmp	 ??1?$basic_string@DV?$char_traits@D@_STL@@V?$allocator@D@2@@_STL@@QAE@XZ ; _STL::basic_string<char,_STL::char_traits<char>,_STL::allocator<char> >::~basic_string<char,_STL::char_traits<char>,_STL::allocator<char> >
$L101325:
  00046	b9 54 00 00 00	 mov	 ecx, OFFSET FLAT:_JacketType2String+84
  0004b	e9 00 00 00 00	 jmp	 ??1?$basic_string@DV?$char_traits@D@_STL@@V?$allocator@D@2@@_STL@@QAE@XZ ; _STL::basic_string<char,_STL::char_traits<char>,_STL::allocator<char> >::~basic_string<char,_STL::char_traits<char>,_STL::allocator<char> >
__ehhandler$_$E19:
  00050	b8 00 00 00 00	 mov	 eax, OFFSET FLAT:$T101382
  00055	e9 00 00 00 00	 jmp	 ___CxxFrameHandler
text$x	ENDS
_$E19	ENDP
PUBLIC	??_C@_0M@FEMKDPPK@PANTS_BASIC?$AA@		; `string'
PUBLIC	??_C@_06IOEJPJHJ@PANTS1?$AA@			; `string'
PUBLIC	??_C@_06KFGEKKLK@PANTS2?$AA@			; `string'
PUBLIC	??_C@_06LMHPJLPL@PANTS3?$AA@			; `string'
PUBLIC	??_C@_06PDDOANDM@PANTS4?$AA@			; `string'
PUBLIC	??_C@_06OKCFDMHN@PANTS5?$AA@			; `string'
PUBLIC	??_C@_06MBAIGPLO@PANTS6?$AA@			; `string'
CRT$XCU	SEGMENT
_$S24	DD	FLAT:_$E22
CRT$XCU	ENDS
;	COMDAT xdata$x
; File c:\stlport-4.6.1\stlport\stl\_alloc.h
xdata$x	SEGMENT
$T101448 DD	0ffffffffH
	DD	FLAT:$L101396
	DD	00H
	DD	FLAT:$L101397
	DD	01H
	DD	FLAT:$L101398
	DD	02H
	DD	FLAT:$L101399
	DD	03H
	DD	FLAT:$L101400
	DD	04H
	DD	FLAT:$L101401
$T101446 DD	019930520H
	DD	06H
	DD	FLAT:$T101448
	DD	2 DUP(00H)
	DD	2 DUP(00H)
xdata$x	ENDS
;	COMDAT ??_C@_0M@FEMKDPPK@PANTS_BASIC?$AA@
CONST	SEGMENT
??_C@_0M@FEMKDPPK@PANTS_BASIC?$AA@ DB 'PANTS_BASIC', 00H ; `string'
CONST	ENDS
;	COMDAT ??_C@_06IOEJPJHJ@PANTS1?$AA@
CONST	SEGMENT
??_C@_06IOEJPJHJ@PANTS1?$AA@ DB 'PANTS1', 00H		; `string'
CONST	ENDS
;	COMDAT ??_C@_06KFGEKKLK@PANTS2?$AA@
CONST	SEGMENT
??_C@_06KFGEKKLK@PANTS2?$AA@ DB 'PANTS2', 00H		; `string'
CONST	ENDS
;	COMDAT ??_C@_06LMHPJLPL@PANTS3?$AA@
CONST	SEGMENT
??_C@_06LMHPJLPL@PANTS3?$AA@ DB 'PANTS3', 00H		; `string'
CONST	ENDS
;	COMDAT ??_C@_06PDDOANDM@PANTS4?$AA@
CONST	SEGMENT
??_C@_06PDDOANDM@PANTS4?$AA@ DB 'PANTS4', 00H		; `string'
CONST	ENDS
;	COMDAT ??_C@_06OKCFDMHN@PANTS5?$AA@
CONST	SEGMENT
??_C@_06OKCFDMHN@PANTS5?$AA@ DB 'PANTS5', 00H		; `string'
CONST	ENDS
;	COMDAT ??_C@_06MBAIGPLO@PANTS6?$AA@
CONST	SEGMENT
??_C@_06MBAIGPLO@PANTS6?$AA@ DB 'PANTS6', 00H		; `string'
; Function compile flags: /Ogsy
; File c:\darkeden\designed_common\project\client\packet\types\creaturetypes.h
CONST	ENDS
;	COMDAT _$E22
text$yc	SEGMENT
$T101395 = -13						; size = 1
$T101394 = -13						; size = 1
$T101393 = -13						; size = 1
$T101392 = -13						; size = 1
$T101391 = -13						; size = 1
$T101390 = -13						; size = 1
$T101389 = -13						; size = 1
__$EHRec$ = -12						; size = 12
_$E22	PROC NEAR					; COMDAT

; 73   : { 

  00000	b8 00 00 00 00	 mov	 eax, __ehhandler$_$E22
  00005	e8 00 00 00 00	 call	 __EH_prolog
  0000a	51		 push	 ecx

; 74   : 	"PANTS_BASIC", 

  0000b	8d 45 f3	 lea	 eax, DWORD PTR $T101389[ebp]
  0000e	50		 push	 eax
  0000f	68 00 00 00 00	 push	 OFFSET FLAT:??_C@_0M@FEMKDPPK@PANTS_BASIC?$AA@
  00014	b9 00 00 00 00	 mov	 ecx, OFFSET FLAT:_PantsType2String
  00019	e8 00 00 00 00	 call	 ??0?$basic_string@DV?$char_traits@D@_STL@@V?$allocator@D@2@@_STL@@QAE@PBDABV?$allocator@D@1@@Z ; _STL::basic_string<char,_STL::char_traits<char>,_STL::allocator<char> >::basic_string<char,_STL::char_traits<char>,_STL::allocator<char> >
  0001e	83 65 fc 00	 and	 DWORD PTR __$EHRec$[ebp+8], 0

; 75   : 	"PANTS1", 

  00022	8d 45 f3	 lea	 eax, DWORD PTR $T101390[ebp]
  00025	50		 push	 eax
  00026	68 00 00 00 00	 push	 OFFSET FLAT:??_C@_06IOEJPJHJ@PANTS1?$AA@
  0002b	b9 0c 00 00 00	 mov	 ecx, OFFSET FLAT:_PantsType2String+12
  00030	e8 00 00 00 00	 call	 ??0?$basic_string@DV?$char_traits@D@_STL@@V?$allocator@D@2@@_STL@@QAE@PBDABV?$allocator@D@1@@Z ; _STL::basic_string<char,_STL::char_traits<char>,_STL::allocator<char> >::basic_string<char,_STL::char_traits<char>,_STL::allocator<char> >

; 76   : 	"PANTS2",

  00035	8d 45 f3	 lea	 eax, DWORD PTR $T101391[ebp]
  00038	50		 push	 eax
  00039	68 00 00 00 00	 push	 OFFSET FLAT:??_C@_06KFGEKKLK@PANTS2?$AA@
  0003e	b9 18 00 00 00	 mov	 ecx, OFFSET FLAT:_PantsType2String+24
  00043	c6 45 fc 01	 mov	 BYTE PTR __$EHRec$[ebp+8], 1
  00047	e8 00 00 00 00	 call	 ??0?$basic_string@DV?$char_traits@D@_STL@@V?$allocator@D@2@@_STL@@QAE@PBDABV?$allocator@D@1@@Z ; _STL::basic_string<char,_STL::char_traits<char>,_STL::allocator<char> >::basic_string<char,_STL::char_traits<char>,_STL::allocator<char> >

; 77   : 	"PANTS3",

  0004c	8d 45 f3	 lea	 eax, DWORD PTR $T101392[ebp]
  0004f	50		 push	 eax
  00050	68 00 00 00 00	 push	 OFFSET FLAT:??_C@_06LMHPJLPL@PANTS3?$AA@
  00055	b9 24 00 00 00	 mov	 ecx, OFFSET FLAT:_PantsType2String+36
  0005a	c6 45 fc 02	 mov	 BYTE PTR __$EHRec$[ebp+8], 2
  0005e	e8 00 00 00 00	 call	 ??0?$basic_string@DV?$char_traits@D@_STL@@V?$allocator@D@2@@_STL@@QAE@PBDABV?$allocator@D@1@@Z ; _STL::basic_string<char,_STL::char_traits<char>,_STL::allocator<char> >::basic_string<char,_STL::char_traits<char>,_STL::allocator<char> >

; 78   : 	"PANTS4",

  00063	8d 45 f3	 lea	 eax, DWORD PTR $T101393[ebp]
  00066	50		 push	 eax
  00067	68 00 00 00 00	 push	 OFFSET FLAT:??_C@_06PDDOANDM@PANTS4?$AA@
  0006c	b9 30 00 00 00	 mov	 ecx, OFFSET FLAT:_PantsType2String+48
  00071	c6 45 fc 03	 mov	 BYTE PTR __$EHRec$[ebp+8], 3
  00075	e8 00 00 00 00	 call	 ??0?$basic_string@DV?$char_traits@D@_STL@@V?$allocator@D@2@@_STL@@QAE@PBDABV?$allocator@D@1@@Z ; _STL::basic_string<char,_STL::char_traits<char>,_STL::allocator<char> >::basic_string<char,_STL::char_traits<char>,_STL::allocator<char> >

; 79   : 	"PANTS5",

  0007a	8d 45 f3	 lea	 eax, DWORD PTR $T101394[ebp]
  0007d	50		 push	 eax
  0007e	68 00 00 00 00	 push	 OFFSET FLAT:??_C@_06OKCFDMHN@PANTS5?$AA@
  00083	b9 3c 00 00 00	 mov	 ecx, OFFSET FLAT:_PantsType2String+60
  00088	c6 45 fc 04	 mov	 BYTE PTR __$EHRec$[ebp+8], 4
  0008c	e8 00 00 00 00	 call	 ??0?$basic_string@DV?$char_traits@D@_STL@@V?$allocator@D@2@@_STL@@QAE@PBDABV?$allocator@D@1@@Z ; _STL::basic_string<char,_STL::char_traits<char>,_STL::allocator<char> >::basic_string<char,_STL::char_traits<char>,_STL::allocator<char> >

; 80   : 	"PANTS6",

  00091	8d 45 f3	 lea	 eax, DWORD PTR $T101395[ebp]
  00094	50		 push	 eax
  00095	68 00 00 00 00	 push	 OFFSET FLAT:??_C@_06MBAIGPLO@PANTS6?$AA@
  0009a	b9 48 00 00 00	 mov	 ecx, OFFSET FLAT:_PantsType2String+72
  0009f	c6 45 fc 05	 mov	 BYTE PTR __$EHRec$[ebp+8], 5
  000a3	e8 00 00 00 00	 call	 ??0?$basic_string@DV?$char_traits@D@_STL@@V?$allocator@D@2@@_STL@@QAE@PBDABV?$allocator@D@1@@Z ; _STL::basic_string<char,_STL::char_traits<char>,_STL::allocator<char> >::basic_string<char,_STL::char_traits<char>,_STL::allocator<char> >

; 81   : };

  000a8	68 00 00 00 00	 push	 OFFSET FLAT:_$E23
  000ad	e8 00 00 00 00	 call	 _atexit
  000b2	59		 pop	 ecx
  000b3	8b 4d f4	 mov	 ecx, DWORD PTR __$EHRec$[ebp]
  000b6	64 89 0d 00 00
	00 00		 mov	 DWORD PTR fs:__except_list, ecx
  000bd	c9		 leave
  000be	c3		 ret	 0
text$yc	ENDS
;	COMDAT text$x
text$x	SEGMENT
$L101396:
  00000	b9 00 00 00 00	 mov	 ecx, OFFSET FLAT:_PantsType2String
  00005	e9 00 00 00 00	 jmp	 ??1?$basic_string@DV?$char_traits@D@_STL@@V?$allocator@D@2@@_STL@@QAE@XZ ; _STL::basic_string<char,_STL::char_traits<char>,_STL::allocator<char> >::~basic_string<char,_STL::char_traits<char>,_STL::allocator<char> >
$L101397:
  0000a	b9 0c 00 00 00	 mov	 ecx, OFFSET FLAT:_PantsType2String+12
  0000f	e9 00 00 00 00	 jmp	 ??1?$basic_string@DV?$char_traits@D@_STL@@V?$allocator@D@2@@_STL@@QAE@XZ ; _STL::basic_string<char,_STL::char_traits<char>,_STL::allocator<char> >::~basic_string<char,_STL::char_traits<char>,_STL::allocator<char> >
$L101398:
  00014	b9 18 00 00 00	 mov	 ecx, OFFSET FLAT:_PantsType2String+24
  00019	e9 00 00 00 00	 jmp	 ??1?$basic_string@DV?$char_traits@D@_STL@@V?$allocator@D@2@@_STL@@QAE@XZ ; _STL::basic_string<char,_STL::char_traits<char>,_STL::allocator<char> >::~basic_string<char,_STL::char_traits<char>,_STL::allocator<char> >
$L101399:
  0001e	b9 24 00 00 00	 mov	 ecx, OFFSET FLAT:_PantsType2String+36
  00023	e9 00 00 00 00	 jmp	 ??1?$basic_string@DV?$char_traits@D@_STL@@V?$allocator@D@2@@_STL@@QAE@XZ ; _STL::basic_string<char,_STL::char_traits<char>,_STL::allocator<char> >::~basic_string<char,_STL::char_traits<char>,_STL::allocator<char> >
$L101400:
  00028	b9 30 00 00 00	 mov	 ecx, OFFSET FLAT:_PantsType2String+48
  0002d	e9 00 00 00 00	 jmp	 ??1?$basic_string@DV?$char_traits@D@_STL@@V?$allocator@D@2@@_STL@@QAE@XZ ; _STL::basic_string<char,_STL::char_traits<char>,_STL::allocator<char> >::~basic_string<char,_STL::char_traits<char>,_STL::allocator<char> >
$L101401:
  00032	b9 3c 00 00 00	 mov	 ecx, OFFSET FLAT:_PantsType2String+60
  00037	e9 00 00 00 00	 jmp	 ??1?$basic_string@DV?$char_traits@D@_STL@@V?$allocator@D@2@@_STL@@QAE@XZ ; _STL::basic_string<char,_STL::char_traits<char>,_STL::allocator<char> >::~basic_string<char,_STL::char_traits<char>,_STL::allocator<char> >
__ehhandler$_$E22:
  0003c	b8 00 00 00 00	 mov	 eax, OFFSET FLAT:$T101446
  00041	e9 00 00 00 00	 jmp	 ___CxxFrameHandler
text$x	ENDS
_$E22	ENDP
PUBLIC	??_C@_0M@KCBDMDNI@WEAPON_NONE?$AA@		; `string'
PUBLIC	??_C@_0N@FCLCNMLC@WEAPON_SWORD?$AA@		; `string'
PUBLIC	??_C@_0P@NDAGDNIL@WEAPON_SWORD_2?$AA@		; `string'
PUBLIC	??_C@_0N@GMGHDCKP@WEAPON_BLADE?$AA@		; `string'
PUBLIC	??_C@_0P@GLNIKADN@WEAPON_BLADE_2?$AA@		; `string'
PUBLIC	??_C@_09HJIOIJGO@WEAPON_SR?$AA@			; `string'
PUBLIC	??_C@_0M@OFIKDJNP@WEAPON_SR_2?$AA@		; `string'
PUBLIC	??_C@_09GGCMPOHA@WEAPON_AR?$AA@			; `string'
PUBLIC	??_C@_0M@PPKKPNDN@WEAPON_AR_2?$AA@		; `string'
PUBLIC	??_C@_09EODLGPHK@WEAPON_SG?$AA@			; `string'
PUBLIC	??_C@_0L@CDBPPFJ@WEAPON_SMG?$AA@		; `string'
PUBLIC	??_C@_0N@JNMFLPPI@WEAPON_CROSS?$AA@		; `string'
PUBLIC	??_C@_0P@NCLGFJB@WEAPON_CROSS_2?$AA@		; `string'
PUBLIC	??_C@_0M@NLEFNGI@WEAPON_MACE?$AA@		; `string'
PUBLIC	??_C@_0O@DCGOPMKO@WEAPON_MACE_2?$AA@		; `string'
CRT$XCU	SEGMENT
_$S27	DD	FLAT:_$E25
CRT$XCU	ENDS
;	COMDAT xdata$x
; File c:\stlport-4.6.1\stlport\stl\_alloc.h
xdata$x	SEGMENT
$T101576 DD	0ffffffffH
	DD	FLAT:$L101468
	DD	00H
	DD	FLAT:$L101469
	DD	01H
	DD	FLAT:$L101470
	DD	02H
	DD	FLAT:$L101471
	DD	03H
	DD	FLAT:$L101472
	DD	04H
	DD	FLAT:$L101473
	DD	05H
	DD	FLAT:$L101474
	DD	06H
	DD	FLAT:$L101475
	DD	07H
	DD	FLAT:$L101476
	DD	08H
	DD	FLAT:$L101477
	DD	09H
	DD	FLAT:$L101478
	DD	0aH
	DD	FLAT:$L101479
	DD	0bH
	DD	FLAT:$L101480
	DD	0cH
	DD	FLAT:$L101481
$T101574 DD	019930520H
	DD	0eH
	DD	FLAT:$T101576
	DD	2 DUP(00H)
	DD	2 DUP(00H)
xdata$x	ENDS
;	COMDAT ??_C@_0M@KCBDMDNI@WEAPON_NONE?$AA@
CONST	SEGMENT
??_C@_0M@KCBDMDNI@WEAPON_NONE?$AA@ DB 'WEAPON_NONE', 00H ; `string'
CONST	ENDS
;	COMDAT ??_C@_0N@FCLCNMLC@WEAPON_SWORD?$AA@
CONST	SEGMENT
??_C@_0N@FCLCNMLC@WEAPON_SWORD?$AA@ DB 'WEAPON_SWORD', 00H ; `string'
CONST	ENDS
;	COMDAT ??_C@_0P@NDAGDNIL@WEAPON_SWORD_2?$AA@
CONST	SEGMENT
??_C@_0P@NDAGDNIL@WEAPON_SWORD_2?$AA@ DB 'WEAPON_SWORD_2', 00H ; `string'
CONST	ENDS
;	COMDAT ??_C@_0N@GMGHDCKP@WEAPON_BLADE?$AA@
CONST	SEGMENT
??_C@_0N@GMGHDCKP@WEAPON_BLADE?$AA@ DB 'WEAPON_BLADE', 00H ; `string'
CONST	ENDS
;	COMDAT ??_C@_0P@GLNIKADN@WEAPON_BLADE_2?$AA@
CONST	SEGMENT
??_C@_0P@GLNIKADN@WEAPON_BLADE_2?$AA@ DB 'WEAPON_BLADE_2', 00H ; `string'
CONST	ENDS
;	COMDAT ??_C@_09HJIOIJGO@WEAPON_SR?$AA@
CONST	SEGMENT
??_C@_09HJIOIJGO@WEAPON_SR?$AA@ DB 'WEAPON_SR', 00H	; `string'
CONST	ENDS
;	COMDAT ??_C@_0M@OFIKDJNP@WEAPON_SR_2?$AA@
CONST	SEGMENT
??_C@_0M@OFIKDJNP@WEAPON_SR_2?$AA@ DB 'WEAPON_SR_2', 00H ; `string'
CONST	ENDS
;	COMDAT ??_C@_09GGCMPOHA@WEAPON_AR?$AA@
CONST	SEGMENT
??_C@_09GGCMPOHA@WEAPON_AR?$AA@ DB 'WEAPON_AR', 00H	; `string'
CONST	ENDS
;	COMDAT ??_C@_0M@PPKKPNDN@WEAPON_AR_2?$AA@
CONST	SEGMENT
??_C@_0M@PPKKPNDN@WEAPON_AR_2?$AA@ DB 'WEAPON_AR_2', 00H ; `string'
CONST	ENDS
;	COMDAT ??_C@_09EODLGPHK@WEAPON_SG?$AA@
CONST	SEGMENT
??_C@_09EODLGPHK@WEAPON_SG?$AA@ DB 'WEAPON_SG', 00H	; `string'
CONST	ENDS
;	COMDAT ??_C@_0L@CDBPPFJ@WEAPON_SMG?$AA@
CONST	SEGMENT
??_C@_0L@CDBPPFJ@WEAPON_SMG?$AA@ DB 'WEAPON_SMG', 00H	; `string'
CONST	ENDS
;	COMDAT ??_C@_0N@JNMFLPPI@WEAPON_CROSS?$AA@
CONST	SEGMENT
??_C@_0N@JNMFLPPI@WEAPON_CROSS?$AA@ DB 'WEAPON_CROSS', 00H ; `string'
CONST	ENDS
;	COMDAT ??_C@_0P@NCLGFJB@WEAPON_CROSS_2?$AA@
CONST	SEGMENT
??_C@_0P@NCLGFJB@WEAPON_CROSS_2?$AA@ DB 'WEAPON_CROSS_2', 00H ; `string'
CONST	ENDS
;	COMDAT ??_C@_0M@NLEFNGI@WEAPON_MACE?$AA@
CONST	SEGMENT
??_C@_0M@NLEFNGI@WEAPON_MACE?$AA@ DB 'WEAPON_MACE', 00H	; `string'
CONST	ENDS
;	COMDAT ??_C@_0O@DCGOPMKO@WEAPON_MACE_2?$AA@
CONST	SEGMENT
??_C@_0O@DCGOPMKO@WEAPON_MACE_2?$AA@ DB 'WEAPON_MACE_2', 00H ; `string'
; Function compile flags: /Ogsy
; File c:\darkeden\designed_common\project\client\packet\types\creaturetypes.h
CONST	ENDS
;	COMDAT _$E25
text$yc	SEGMENT
$T101467 = -13						; size = 1
$T101466 = -13						; size = 1
$T101465 = -13						; size = 1
$T101464 = -13						; size = 1
$T101463 = -13						; size = 1
$T101462 = -13						; size = 1
$T101461 = -13						; size = 1
$T101460 = -13						; size = 1
$T101459 = -13						; size = 1
$T101458 = -13						; size = 1
$T101457 = -13						; size = 1
$T101456 = -13						; size = 1
$T101455 = -13						; size = 1
$T101454 = -13						; size = 1
$T101453 = -13						; size = 1
__$EHRec$ = -12						; size = 12
_$E25	PROC NEAR					; COMDAT

; 84   : { 

  00000	b8 00 00 00 00	 mov	 eax, __ehhandler$_$E25
  00005	e8 00 00 00 00	 call	 __EH_prolog
  0000a	51		 push	 ecx

; 85   : 	"WEAPON_NONE",

  0000b	8d 45 f3	 lea	 eax, DWORD PTR $T101453[ebp]
  0000e	50		 push	 eax
  0000f	68 00 00 00 00	 push	 OFFSET FLAT:??_C@_0M@KCBDMDNI@WEAPON_NONE?$AA@
  00014	b9 00 00 00 00	 mov	 ecx, OFFSET FLAT:_WeaponType2String
  00019	e8 00 00 00 00	 call	 ??0?$basic_string@DV?$char_traits@D@_STL@@V?$allocator@D@2@@_STL@@QAE@PBDABV?$allocator@D@1@@Z ; _STL::basic_string<char,_STL::char_traits<char>,_STL::allocator<char> >::basic_string<char,_STL::char_traits<char>,_STL::allocator<char> >
  0001e	83 65 fc 00	 and	 DWORD PTR __$EHRec$[ebp+8], 0

; 86   : 	"WEAPON_SWORD",

  00022	8d 45 f3	 lea	 eax, DWORD PTR $T101454[ebp]
  00025	50		 push	 eax
  00026	68 00 00 00 00	 push	 OFFSET FLAT:??_C@_0N@FCLCNMLC@WEAPON_SWORD?$AA@
  0002b	b9 0c 00 00 00	 mov	 ecx, OFFSET FLAT:_WeaponType2String+12
  00030	e8 00 00 00 00	 call	 ??0?$basic_string@DV?$char_traits@D@_STL@@V?$allocator@D@2@@_STL@@QAE@PBDABV?$allocator@D@1@@Z ; _STL::basic_string<char,_STL::char_traits<char>,_STL::allocator<char> >::basic_string<char,_STL::char_traits<char>,_STL::allocator<char> >

; 87   : 	"WEAPON_SWORD_2",	//by viva 171 181

  00035	8d 45 f3	 lea	 eax, DWORD PTR $T101455[ebp]
  00038	50		 push	 eax
  00039	68 00 00 00 00	 push	 OFFSET FLAT:??_C@_0P@NDAGDNIL@WEAPON_SWORD_2?$AA@
  0003e	b9 18 00 00 00	 mov	 ecx, OFFSET FLAT:_WeaponType2String+24
  00043	c6 45 fc 01	 mov	 BYTE PTR __$EHRec$[ebp+8], 1
  00047	e8 00 00 00 00	 call	 ??0?$basic_string@DV?$char_traits@D@_STL@@V?$allocator@D@2@@_STL@@QAE@PBDABV?$allocator@D@1@@Z ; _STL::basic_string<char,_STL::char_traits<char>,_STL::allocator<char> >::basic_string<char,_STL::char_traits<char>,_STL::allocator<char> >

; 88   : //	"WEAPON_SWORD_3",
; 89   : 	"WEAPON_BLADE",

  0004c	8d 45 f3	 lea	 eax, DWORD PTR $T101456[ebp]
  0004f	50		 push	 eax
  00050	68 00 00 00 00	 push	 OFFSET FLAT:??_C@_0N@GMGHDCKP@WEAPON_BLADE?$AA@
  00055	b9 24 00 00 00	 mov	 ecx, OFFSET FLAT:_WeaponType2String+36
  0005a	c6 45 fc 02	 mov	 BYTE PTR __$EHRec$[ebp+8], 2
  0005e	e8 00 00 00 00	 call	 ??0?$basic_string@DV?$char_traits@D@_STL@@V?$allocator@D@2@@_STL@@QAE@PBDABV?$allocator@D@1@@Z ; _STL::basic_string<char,_STL::char_traits<char>,_STL::allocator<char> >::basic_string<char,_STL::char_traits<char>,_STL::allocator<char> >

; 90   : 	"WEAPON_BLADE_2",

  00063	8d 45 f3	 lea	 eax, DWORD PTR $T101457[ebp]
  00066	50		 push	 eax
  00067	68 00 00 00 00	 push	 OFFSET FLAT:??_C@_0P@GLNIKADN@WEAPON_BLADE_2?$AA@
  0006c	b9 30 00 00 00	 mov	 ecx, OFFSET FLAT:_WeaponType2String+48
  00071	c6 45 fc 03	 mov	 BYTE PTR __$EHRec$[ebp+8], 3
  00075	e8 00 00 00 00	 call	 ??0?$basic_string@DV?$char_traits@D@_STL@@V?$allocator@D@2@@_STL@@QAE@PBDABV?$allocator@D@1@@Z ; _STL::basic_string<char,_STL::char_traits<char>,_STL::allocator<char> >::basic_string<char,_STL::char_traits<char>,_STL::allocator<char> >

; 91   : 	//"WEAPON_BLADE_3",
; 92   : 	"WEAPON_SR",

  0007a	8d 45 f3	 lea	 eax, DWORD PTR $T101458[ebp]
  0007d	50		 push	 eax
  0007e	68 00 00 00 00	 push	 OFFSET FLAT:??_C@_09HJIOIJGO@WEAPON_SR?$AA@
  00083	b9 3c 00 00 00	 mov	 ecx, OFFSET FLAT:_WeaponType2String+60
  00088	c6 45 fc 04	 mov	 BYTE PTR __$EHRec$[ebp+8], 4
  0008c	e8 00 00 00 00	 call	 ??0?$basic_string@DV?$char_traits@D@_STL@@V?$allocator@D@2@@_STL@@QAE@PBDABV?$allocator@D@1@@Z ; _STL::basic_string<char,_STL::char_traits<char>,_STL::allocator<char> >::basic_string<char,_STL::char_traits<char>,_STL::allocator<char> >

; 93   : 	"WEAPON_SR_2",

  00091	8d 45 f3	 lea	 eax, DWORD PTR $T101459[ebp]
  00094	50		 push	 eax
  00095	68 00 00 00 00	 push	 OFFSET FLAT:??_C@_0M@OFIKDJNP@WEAPON_SR_2?$AA@
  0009a	b9 48 00 00 00	 mov	 ecx, OFFSET FLAT:_WeaponType2String+72
  0009f	c6 45 fc 05	 mov	 BYTE PTR __$EHRec$[ebp+8], 5
  000a3	e8 00 00 00 00	 call	 ??0?$basic_string@DV?$char_traits@D@_STL@@V?$allocator@D@2@@_STL@@QAE@PBDABV?$allocator@D@1@@Z ; _STL::basic_string<char,_STL::char_traits<char>,_STL::allocator<char> >::basic_string<char,_STL::char_traits<char>,_STL::allocator<char> >

; 94   : //	"WEAPON_SR_3",
; 95   : 	"WEAPON_AR",

  000a8	8d 45 f3	 lea	 eax, DWORD PTR $T101460[ebp]
  000ab	50		 push	 eax
  000ac	68 00 00 00 00	 push	 OFFSET FLAT:??_C@_09GGCMPOHA@WEAPON_AR?$AA@
  000b1	b9 54 00 00 00	 mov	 ecx, OFFSET FLAT:_WeaponType2String+84
  000b6	c6 45 fc 06	 mov	 BYTE PTR __$EHRec$[ebp+8], 6
  000ba	e8 00 00 00 00	 call	 ??0?$basic_string@DV?$char_traits@D@_STL@@V?$allocator@D@2@@_STL@@QAE@PBDABV?$allocator@D@1@@Z ; _STL::basic_string<char,_STL::char_traits<char>,_STL::allocator<char> >::basic_string<char,_STL::char_traits<char>,_STL::allocator<char> >

; 96   : 	"WEAPON_AR_2",

  000bf	8d 45 f3	 lea	 eax, DWORD PTR $T101461[ebp]
  000c2	50		 push	 eax
  000c3	68 00 00 00 00	 push	 OFFSET FLAT:??_C@_0M@PPKKPNDN@WEAPON_AR_2?$AA@
  000c8	b9 60 00 00 00	 mov	 ecx, OFFSET FLAT:_WeaponType2String+96
  000cd	c6 45 fc 07	 mov	 BYTE PTR __$EHRec$[ebp+8], 7
  000d1	e8 00 00 00 00	 call	 ??0?$basic_string@DV?$char_traits@D@_STL@@V?$allocator@D@2@@_STL@@QAE@PBDABV?$allocator@D@1@@Z ; _STL::basic_string<char,_STL::char_traits<char>,_STL::allocator<char> >::basic_string<char,_STL::char_traits<char>,_STL::allocator<char> >

; 97   : //	"WEAPON_AR_3",
; 98   : 	"WEAPON_SG",

  000d6	8d 45 f3	 lea	 eax, DWORD PTR $T101462[ebp]
  000d9	50		 push	 eax
  000da	68 00 00 00 00	 push	 OFFSET FLAT:??_C@_09EODLGPHK@WEAPON_SG?$AA@
  000df	b9 6c 00 00 00	 mov	 ecx, OFFSET FLAT:_WeaponType2String+108
  000e4	c6 45 fc 08	 mov	 BYTE PTR __$EHRec$[ebp+8], 8
  000e8	e8 00 00 00 00	 call	 ??0?$basic_string@DV?$char_traits@D@_STL@@V?$allocator@D@2@@_STL@@QAE@PBDABV?$allocator@D@1@@Z ; _STL::basic_string<char,_STL::char_traits<char>,_STL::allocator<char> >::basic_string<char,_STL::char_traits<char>,_STL::allocator<char> >

; 99   : 	"WEAPON_SMG",

  000ed	8d 45 f3	 lea	 eax, DWORD PTR $T101463[ebp]
  000f0	50		 push	 eax
  000f1	68 00 00 00 00	 push	 OFFSET FLAT:??_C@_0L@CDBPPFJ@WEAPON_SMG?$AA@
  000f6	b9 78 00 00 00	 mov	 ecx, OFFSET FLAT:_WeaponType2String+120
  000fb	c6 45 fc 09	 mov	 BYTE PTR __$EHRec$[ebp+8], 9
  000ff	e8 00 00 00 00	 call	 ??0?$basic_string@DV?$char_traits@D@_STL@@V?$allocator@D@2@@_STL@@QAE@PBDABV?$allocator@D@1@@Z ; _STL::basic_string<char,_STL::char_traits<char>,_STL::allocator<char> >::basic_string<char,_STL::char_traits<char>,_STL::allocator<char> >

; 100  : 	"WEAPON_CROSS",

  00104	8d 45 f3	 lea	 eax, DWORD PTR $T101464[ebp]
  00107	50		 push	 eax
  00108	c6 45 fc 0a	 mov	 BYTE PTR __$EHRec$[ebp+8], 10 ; 0000000aH
  0010c	68 00 00 00 00	 push	 OFFSET FLAT:??_C@_0N@JNMFLPPI@WEAPON_CROSS?$AA@
  00111	b9 84 00 00 00	 mov	 ecx, OFFSET FLAT:_WeaponType2String+132
  00116	e8 00 00 00 00	 call	 ??0?$basic_string@DV?$char_traits@D@_STL@@V?$allocator@D@2@@_STL@@QAE@PBDABV?$allocator@D@1@@Z ; _STL::basic_string<char,_STL::char_traits<char>,_STL::allocator<char> >::basic_string<char,_STL::char_traits<char>,_STL::allocator<char> >

; 101  : 	"WEAPON_CROSS_2",

  0011b	8d 45 f3	 lea	 eax, DWORD PTR $T101465[ebp]
  0011e	50		 push	 eax
  0011f	68 00 00 00 00	 push	 OFFSET FLAT:??_C@_0P@NCLGFJB@WEAPON_CROSS_2?$AA@
  00124	b9 90 00 00 00	 mov	 ecx, OFFSET FLAT:_WeaponType2String+144
  00129	c6 45 fc 0b	 mov	 BYTE PTR __$EHRec$[ebp+8], 11 ; 0000000bH
  0012d	e8 00 00 00 00	 call	 ??0?$basic_string@DV?$char_traits@D@_STL@@V?$allocator@D@2@@_STL@@QAE@PBDABV?$allocator@D@1@@Z ; _STL::basic_string<char,_STL::char_traits<char>,_STL::allocator<char> >::basic_string<char,_STL::char_traits<char>,_STL::allocator<char> >

; 102  : //	"WEAPON_CROSS_3"
; 103  : 	"WEAPON_MACE",

  00132	8d 45 f3	 lea	 eax, DWORD PTR $T101466[ebp]
  00135	50		 push	 eax
  00136	68 00 00 00 00	 push	 OFFSET FLAT:??_C@_0M@NLEFNGI@WEAPON_MACE?$AA@
  0013b	b9 9c 00 00 00	 mov	 ecx, OFFSET FLAT:_WeaponType2String+156
  00140	c6 45 fc 0c	 mov	 BYTE PTR __$EHRec$[ebp+8], 12 ; 0000000cH
  00144	e8 00 00 00 00	 call	 ??0?$basic_string@DV?$char_traits@D@_STL@@V?$allocator@D@2@@_STL@@QAE@PBDABV?$allocator@D@1@@Z ; _STL::basic_string<char,_STL::char_traits<char>,_STL::allocator<char> >::basic_string<char,_STL::char_traits<char>,_STL::allocator<char> >

; 104  : 	"WEAPON_MACE_2",

  00149	8d 45 f3	 lea	 eax, DWORD PTR $T101467[ebp]
  0014c	50		 push	 eax
  0014d	68 00 00 00 00	 push	 OFFSET FLAT:??_C@_0O@DCGOPMKO@WEAPON_MACE_2?$AA@
  00152	b9 a8 00 00 00	 mov	 ecx, OFFSET FLAT:_WeaponType2String+168
  00157	c6 45 fc 0d	 mov	 BYTE PTR __$EHRec$[ebp+8], 13 ; 0000000dH
  0015b	e8 00 00 00 00	 call	 ??0?$basic_string@DV?$char_traits@D@_STL@@V?$allocator@D@2@@_STL@@QAE@PBDABV?$allocator@D@1@@Z ; _STL::basic_string<char,_STL::char_traits<char>,_STL::allocator<char> >::basic_string<char,_STL::char_traits<char>,_STL::allocator<char> >

; 105  : //	"WEAPON_MACE_3"
; 106  : //	"WEAPON_SHIELD",
; 107  : //	"WEAPON_SWORD_SHIELD",
; 108  : };

  00160	68 00 00 00 00	 push	 OFFSET FLAT:_$E26
  00165	e8 00 00 00 00	 call	 _atexit
  0016a	59		 pop	 ecx
  0016b	8b 4d f4	 mov	 ecx, DWORD PTR __$EHRec$[ebp]
  0016e	64 89 0d 00 00
	00 00		 mov	 DWORD PTR fs:__except_list, ecx
  00175	c9		 leave
  00176	c3		 ret	 0
text$yc	ENDS
;	COMDAT text$x
text$x	SEGMENT
$L101468:
  00000	b9 00 00 00 00	 mov	 ecx, OFFSET FLAT:_WeaponType2String
  00005	e9 00 00 00 00	 jmp	 ??1?$basic_string@DV?$char_traits@D@_STL@@V?$allocator@D@2@@_STL@@QAE@XZ ; _STL::basic_string<char,_STL::char_traits<char>,_STL::allocator<char> >::~basic_string<char,_STL::char_traits<char>,_STL::allocator<char> >
$L101469:
  0000a	b9 0c 00 00 00	 mov	 ecx, OFFSET FLAT:_WeaponType2String+12
  0000f	e9 00 00 00 00	 jmp	 ??1?$basic_string@DV?$char_traits@D@_STL@@V?$allocator@D@2@@_STL@@QAE@XZ ; _STL::basic_string<char,_STL::char_traits<char>,_STL::allocator<char> >::~basic_string<char,_STL::char_traits<char>,_STL::allocator<char> >
$L101470:
  00014	b9 18 00 00 00	 mov	 ecx, OFFSET FLAT:_WeaponType2String+24
  00019	e9 00 00 00 00	 jmp	 ??1?$basic_string@DV?$char_traits@D@_STL@@V?$allocator@D@2@@_STL@@QAE@XZ ; _STL::basic_string<char,_STL::char_traits<char>,_STL::allocator<char> >::~basic_string<char,_STL::char_traits<char>,_STL::allocator<char> >
$L101471:
  0001e	b9 24 00 00 00	 mov	 ecx, OFFSET FLAT:_WeaponType2String+36
  00023	e9 00 00 00 00	 jmp	 ??1?$basic_string@DV?$char_traits@D@_STL@@V?$allocator@D@2@@_STL@@QAE@XZ ; _STL::basic_string<char,_STL::char_traits<char>,_STL::allocator<char> >::~basic_string<char,_STL::char_traits<char>,_STL::allocator<char> >
$L101472:
  00028	b9 30 00 00 00	 mov	 ecx, OFFSET FLAT:_WeaponType2String+48
  0002d	e9 00 00 00 00	 jmp	 ??1?$basic_string@DV?$char_traits@D@_STL@@V?$allocator@D@2@@_STL@@QAE@XZ ; _STL::basic_string<char,_STL::char_traits<char>,_STL::allocator<char> >::~basic_string<char,_STL::char_traits<char>,_STL::allocator<char> >
$L101473:
  00032	b9 3c 00 00 00	 mov	 ecx, OFFSET FLAT:_WeaponType2String+60
  00037	e9 00 00 00 00	 jmp	 ??1?$basic_string@DV?$char_traits@D@_STL@@V?$allocator@D@2@@_STL@@QAE@XZ ; _STL::basic_string<char,_STL::char_traits<char>,_STL::allocator<char> >::~basic_string<char,_STL::char_traits<char>,_STL::allocator<char> >
$L101474:
  0003c	b9 48 00 00 00	 mov	 ecx, OFFSET FLAT:_WeaponType2String+72
  00041	e9 00 00 00 00	 jmp	 ??1?$basic_string@DV?$char_traits@D@_STL@@V?$allocator@D@2@@_STL@@QAE@XZ ; _STL::basic_string<char,_STL::char_traits<char>,_STL::allocator<char> >::~basic_string<char,_STL::char_traits<char>,_STL::allocator<char> >
$L101475:
  00046	b9 54 00 00 00	 mov	 ecx, OFFSET FLAT:_WeaponType2String+84
  0004b	e9 00 00 00 00	 jmp	 ??1?$basic_string@DV?$char_traits@D@_STL@@V?$allocator@D@2@@_STL@@QAE@XZ ; _STL::basic_string<char,_STL::char_traits<char>,_STL::allocator<char> >::~basic_string<char,_STL::char_traits<char>,_STL::allocator<char> >
$L101476:
  00050	b9 60 00 00 00	 mov	 ecx, OFFSET FLAT:_WeaponType2String+96
  00055	e9 00 00 00 00	 jmp	 ??1?$basic_string@DV?$char_traits@D@_STL@@V?$allocator@D@2@@_STL@@QAE@XZ ; _STL::basic_string<char,_STL::char_traits<char>,_STL::allocator<char> >::~basic_string<char,_STL::char_traits<char>,_STL::allocator<char> >
$L101477:
  0005a	b9 6c 00 00 00	 mov	 ecx, OFFSET FLAT:_WeaponType2String+108
  0005f	e9 00 00 00 00	 jmp	 ??1?$basic_string@DV?$char_traits@D@_STL@@V?$allocator@D@2@@_STL@@QAE@XZ ; _STL::basic_string<char,_STL::char_traits<char>,_STL::allocator<char> >::~basic_string<char,_STL::char_traits<char>,_STL::allocator<char> >
$L101478:
  00064	b9 78 00 00 00	 mov	 ecx, OFFSET FLAT:_WeaponType2String+120
  00069	e9 00 00 00 00	 jmp	 ??1?$basic_string@DV?$char_traits@D@_STL@@V?$allocator@D@2@@_STL@@QAE@XZ ; _STL::basic_string<char,_STL::char_traits<char>,_STL::allocator<char> >::~basic_string<char,_STL::char_traits<char>,_STL::allocator<char> >
$L101479:
  0006e	b9 84 00 00 00	 mov	 ecx, OFFSET FLAT:_WeaponType2String+132
  00073	e9 00 00 00 00	 jmp	 ??1?$basic_string@DV?$char_traits@D@_STL@@V?$allocator@D@2@@_STL@@QAE@XZ ; _STL::basic_string<char,_STL::char_traits<char>,_STL::allocator<char> >::~basic_string<char,_STL::char_traits<char>,_STL::allocator<char> >
$L101480:
  00078	b9 90 00 00 00	 mov	 ecx, OFFSET FLAT:_WeaponType2String+144
  0007d	e9 00 00 00 00	 jmp	 ??1?$basic_string@DV?$char_traits@D@_STL@@V?$allocator@D@2@@_STL@@QAE@XZ ; _STL::basic_string<char,_STL::char_traits<char>,_STL::allocator<char> >::~basic_string<char,_STL::char_traits<char>,_STL::allocator<char> >
$L101481:
  00082	b9 9c 00 00 00	 mov	 ecx, OFFSET FLAT:_WeaponType2String+156
  00087	e9 00 00 00 00	 jmp	 ??1?$basic_string@DV?$char_traits@D@_STL@@V?$allocator@D@2@@_STL@@QAE@XZ ; _STL::basic_string<char,_STL::char_traits<char>,_STL::allocator<char> >::~basic_string<char,_STL::char_traits<char>,_STL::allocator<char> >
__ehhandler$_$E25:
  0008c	b8 00 00 00 00	 mov	 eax, OFFSET FLAT:$T101574
  00091	e9 00 00 00 00	 jmp	 ___CxxFrameHandler
text$x	ENDS
_$E25	ENDP
PUBLIC	??_C@_0M@LFPOKKMH@SHIELD_NONE?$AA@		; `string'
PUBLIC	??_C@_07OONIKGBL@SHIELD1?$AA@			; `string'
PUBLIC	??_C@_07MFPFPFNI@SHIELD2?$AA@			; `string'
PUBLIC	??_C@_07NMOOMEJJ@SHIELD3?$AA@			; `string'
PUBLIC	??_C@_07JDKPFCFO@SHIELD4?$AA@			; `string'
PUBLIC	??_C@_07IKLEGDBP@SHIELD5?$AA@			; `string'
PUBLIC	??_C@_07KBJJDANM@SHIELD6?$AA@			; `string'
CRT$XCU	SEGMENT
_$S30	DD	FLAT:_$E28
CRT$XCU	ENDS
;	COMDAT xdata$x
; File c:\stlport-4.6.1\stlport\stl\_alloc.h
xdata$x	SEGMENT
$T101640 DD	0ffffffffH
	DD	FLAT:$L101588
	DD	00H
	DD	FLAT:$L101589
	DD	01H
	DD	FLAT:$L101590
	DD	02H
	DD	FLAT:$L101591
	DD	03H
	DD	FLAT:$L101592
	DD	04H
	DD	FLAT:$L101593
$T101638 DD	019930520H
	DD	06H
	DD	FLAT:$T101640
	DD	2 DUP(00H)
	DD	2 DUP(00H)
xdata$x	ENDS
;	COMDAT ??_C@_0M@LFPOKKMH@SHIELD_NONE?$AA@
CONST	SEGMENT
??_C@_0M@LFPOKKMH@SHIELD_NONE?$AA@ DB 'SHIELD_NONE', 00H ; `string'
CONST	ENDS
;	COMDAT ??_C@_07OONIKGBL@SHIELD1?$AA@
CONST	SEGMENT
??_C@_07OONIKGBL@SHIELD1?$AA@ DB 'SHIELD1', 00H		; `string'
CONST	ENDS
;	COMDAT ??_C@_07MFPFPFNI@SHIELD2?$AA@
CONST	SEGMENT
??_C@_07MFPFPFNI@SHIELD2?$AA@ DB 'SHIELD2', 00H		; `string'
CONST	ENDS
;	COMDAT ??_C@_07NMOOMEJJ@SHIELD3?$AA@
CONST	SEGMENT
??_C@_07NMOOMEJJ@SHIELD3?$AA@ DB 'SHIELD3', 00H		; `string'
CONST	ENDS
;	COMDAT ??_C@_07JDKPFCFO@SHIELD4?$AA@
CONST	SEGMENT
??_C@_07JDKPFCFO@SHIELD4?$AA@ DB 'SHIELD4', 00H		; `string'
CONST	ENDS
;	COMDAT ??_C@_07IKLEGDBP@SHIELD5?$AA@
CONST	SEGMENT
??_C@_07IKLEGDBP@SHIELD5?$AA@ DB 'SHIELD5', 00H		; `string'
CONST	ENDS
;	COMDAT ??_C@_07KBJJDANM@SHIELD6?$AA@
CONST	SEGMENT
??_C@_07KBJJDANM@SHIELD6?$AA@ DB 'SHIELD6', 00H		; `string'
; Function compile flags: /Ogsy
; File c:\darkeden\designed_common\project\client\packet\types\creaturetypes.h
CONST	ENDS
;	COMDAT _$E28
text$yc	SEGMENT
$T101587 = -13						; size = 1
$T101586 = -13						; size = 1
$T101585 = -13						; size = 1
$T101584 = -13						; size = 1
$T101583 = -13						; size = 1
$T101582 = -13						; size = 1
$T101581 = -13						; size = 1
__$EHRec$ = -12						; size = 12
_$E28	PROC NEAR					; COMDAT

; 111  : { 

  00000	b8 00 00 00 00	 mov	 eax, __ehhandler$_$E28
  00005	e8 00 00 00 00	 call	 __EH_prolog
  0000a	51		 push	 ecx

; 112  : 	"SHIELD_NONE",

  0000b	8d 45 f3	 lea	 eax, DWORD PTR $T101581[ebp]
  0000e	50		 push	 eax
  0000f	68 00 00 00 00	 push	 OFFSET FLAT:??_C@_0M@LFPOKKMH@SHIELD_NONE?$AA@
  00014	b9 00 00 00 00	 mov	 ecx, OFFSET FLAT:_ShieldType2String
  00019	e8 00 00 00 00	 call	 ??0?$basic_string@DV?$char_traits@D@_STL@@V?$allocator@D@2@@_STL@@QAE@PBDABV?$allocator@D@1@@Z ; _STL::basic_string<char,_STL::char_traits<char>,_STL::allocator<char> >::basic_string<char,_STL::char_traits<char>,_STL::allocator<char> >
  0001e	83 65 fc 00	 and	 DWORD PTR __$EHRec$[ebp+8], 0

; 113  : 	"SHIELD1",

  00022	8d 45 f3	 lea	 eax, DWORD PTR $T101582[ebp]
  00025	50		 push	 eax
  00026	68 00 00 00 00	 push	 OFFSET FLAT:??_C@_07OONIKGBL@SHIELD1?$AA@
  0002b	b9 0c 00 00 00	 mov	 ecx, OFFSET FLAT:_ShieldType2String+12
  00030	e8 00 00 00 00	 call	 ??0?$basic_string@DV?$char_traits@D@_STL@@V?$allocator@D@2@@_STL@@QAE@PBDABV?$allocator@D@1@@Z ; _STL::basic_string<char,_STL::char_traits<char>,_STL::allocator<char> >::basic_string<char,_STL::char_traits<char>,_STL::allocator<char> >

; 114  : 	"SHIELD2",

  00035	8d 45 f3	 lea	 eax, DWORD PTR $T101583[ebp]
  00038	50		 push	 eax
  00039	68 00 00 00 00	 push	 OFFSET FLAT:??_C@_07MFPFPFNI@SHIELD2?$AA@
  0003e	b9 18 00 00 00	 mov	 ecx, OFFSET FLAT:_ShieldType2String+24
  00043	c6 45 fc 01	 mov	 BYTE PTR __$EHRec$[ebp+8], 1
  00047	e8 00 00 00 00	 call	 ??0?$basic_string@DV?$char_traits@D@_STL@@V?$allocator@D@2@@_STL@@QAE@PBDABV?$allocator@D@1@@Z ; _STL::basic_string<char,_STL::char_traits<char>,_STL::allocator<char> >::basic_string<char,_STL::char_traits<char>,_STL::allocator<char> >

; 115  : 	"SHIELD3",	//by viva 171

  0004c	8d 45 f3	 lea	 eax, DWORD PTR $T101584[ebp]
  0004f	50		 push	 eax
  00050	68 00 00 00 00	 push	 OFFSET FLAT:??_C@_07NMOOMEJJ@SHIELD3?$AA@
  00055	b9 24 00 00 00	 mov	 ecx, OFFSET FLAT:_ShieldType2String+36
  0005a	c6 45 fc 02	 mov	 BYTE PTR __$EHRec$[ebp+8], 2
  0005e	e8 00 00 00 00	 call	 ??0?$basic_string@DV?$char_traits@D@_STL@@V?$allocator@D@2@@_STL@@QAE@PBDABV?$allocator@D@1@@Z ; _STL::basic_string<char,_STL::char_traits<char>,_STL::allocator<char> >::basic_string<char,_STL::char_traits<char>,_STL::allocator<char> >

; 116  : 	"SHIELD4",	//181

  00063	8d 45 f3	 lea	 eax, DWORD PTR $T101585[ebp]
  00066	50		 push	 eax
  00067	68 00 00 00 00	 push	 OFFSET FLAT:??_C@_07JDKPFCFO@SHIELD4?$AA@
  0006c	b9 30 00 00 00	 mov	 ecx, OFFSET FLAT:_ShieldType2String+48
  00071	c6 45 fc 03	 mov	 BYTE PTR __$EHRec$[ebp+8], 3
  00075	e8 00 00 00 00	 call	 ??0?$basic_string@DV?$char_traits@D@_STL@@V?$allocator@D@2@@_STL@@QAE@PBDABV?$allocator@D@1@@Z ; _STL::basic_string<char,_STL::char_traits<char>,_STL::allocator<char> >::basic_string<char,_STL::char_traits<char>,_STL::allocator<char> >

; 117  : 	"SHIELD5",

  0007a	8d 45 f3	 lea	 eax, DWORD PTR $T101586[ebp]
  0007d	50		 push	 eax
  0007e	68 00 00 00 00	 push	 OFFSET FLAT:??_C@_07IKLEGDBP@SHIELD5?$AA@
  00083	b9 3c 00 00 00	 mov	 ecx, OFFSET FLAT:_ShieldType2String+60
  00088	c6 45 fc 04	 mov	 BYTE PTR __$EHRec$[ebp+8], 4
  0008c	e8 00 00 00 00	 call	 ??0?$basic_string@DV?$char_traits@D@_STL@@V?$allocator@D@2@@_STL@@QAE@PBDABV?$allocator@D@1@@Z ; _STL::basic_string<char,_STL::char_traits<char>,_STL::allocator<char> >::basic_string<char,_STL::char_traits<char>,_STL::allocator<char> >

; 118  : 	"SHIELD6",

  00091	8d 45 f3	 lea	 eax, DWORD PTR $T101587[ebp]
  00094	50		 push	 eax
  00095	68 00 00 00 00	 push	 OFFSET FLAT:??_C@_07KBJJDANM@SHIELD6?$AA@
  0009a	b9 48 00 00 00	 mov	 ecx, OFFSET FLAT:_ShieldType2String+72
  0009f	c6 45 fc 05	 mov	 BYTE PTR __$EHRec$[ebp+8], 5
  000a3	e8 00 00 00 00	 call	 ??0?$basic_string@DV?$char_traits@D@_STL@@V?$allocator@D@2@@_STL@@QAE@PBDABV?$allocator@D@1@@Z ; _STL::basic_string<char,_STL::char_traits<char>,_STL::allocator<char> >::basic_string<char,_STL::char_traits<char>,_STL::allocator<char> >

; 119  : };

  000a8	68 00 00 00 00	 push	 OFFSET FLAT:_$E29
  000ad	e8 00 00 00 00	 call	 _atexit
  000b2	59		 pop	 ecx
  000b3	8b 4d f4	 mov	 ecx, DWORD PTR __$EHRec$[ebp]
  000b6	64 89 0d 00 00
	00 00		 mov	 DWORD PTR fs:__except_list, ecx
  000bd	c9		 leave
  000be	c3		 ret	 0
text$yc	ENDS
;	COMDAT text$x
text$x	SEGMENT
$L101588:
  00000	b9 00 00 00 00	 mov	 ecx, OFFSET FLAT:_ShieldType2String
  00005	e9 00 00 00 00	 jmp	 ??1?$basic_string@DV?$char_traits@D@_STL@@V?$allocator@D@2@@_STL@@QAE@XZ ; _STL::basic_string<char,_STL::char_traits<char>,_STL::allocator<char> >::~basic_string<char,_STL::char_traits<char>,_STL::allocator<char> >
$L101589:
  0000a	b9 0c 00 00 00	 mov	 ecx, OFFSET FLAT:_ShieldType2String+12
  0000f	e9 00 00 00 00	 jmp	 ??1?$basic_string@DV?$char_traits@D@_STL@@V?$allocator@D@2@@_STL@@QAE@XZ ; _STL::basic_string<char,_STL::char_traits<char>,_STL::allocator<char> >::~basic_string<char,_STL::char_traits<char>,_STL::allocator<char> >
$L101590:
  00014	b9 18 00 00 00	 mov	 ecx, OFFSET FLAT:_ShieldType2String+24
  00019	e9 00 00 00 00	 jmp	 ??1?$basic_string@DV?$char_traits@D@_STL@@V?$allocator@D@2@@_STL@@QAE@XZ ; _STL::basic_string<char,_STL::char_traits<char>,_STL::allocator<char> >::~basic_string<char,_STL::char_traits<char>,_STL::allocator<char> >
$L101591:
  0001e	b9 24 00 00 00	 mov	 ecx, OFFSET FLAT:_ShieldType2String+36
  00023	e9 00 00 00 00	 jmp	 ??1?$basic_string@DV?$char_traits@D@_STL@@V?$allocator@D@2@@_STL@@QAE@XZ ; _STL::basic_string<char,_STL::char_traits<char>,_STL::allocator<char> >::~basic_string<char,_STL::char_traits<char>,_STL::allocator<char> >
$L101592:
  00028	b9 30 00 00 00	 mov	 ecx, OFFSET FLAT:_ShieldType2String+48
  0002d	e9 00 00 00 00	 jmp	 ??1?$basic_string@DV?$char_traits@D@_STL@@V?$allocator@D@2@@_STL@@QAE@XZ ; _STL::basic_string<char,_STL::char_traits<char>,_STL::allocator<char> >::~basic_string<char,_STL::char_traits<char>,_STL::allocator<char> >
$L101593:
  00032	b9 3c 00 00 00	 mov	 ecx, OFFSET FLAT:_ShieldType2String+60
  00037	e9 00 00 00 00	 jmp	 ??1?$basic_string@DV?$char_traits@D@_STL@@V?$allocator@D@2@@_STL@@QAE@XZ ; _STL::basic_string<char,_STL::char_traits<char>,_STL::allocator<char> >::~basic_string<char,_STL::char_traits<char>,_STL::allocator<char> >
__ehhandler$_$E28:
  0003c	b8 00 00 00 00	 mov	 eax, OFFSET FLAT:$T101638
  00041	e9 00 00 00 00	 jmp	 ___CxxFrameHandler
text$x	ENDS
_$E28	ENDP
PUBLIC	??_C@_0BA@HFMKBDFL@MOTORCYCLE_NONE?$AA@		; `string'
PUBLIC	??_C@_0M@OJHOMHKG@MOTORCYCLE1?$AA@		; `string'
PUBLIC	??_C@_0M@MCFDJEGF@MOTORCYCLE2?$AA@		; `string'
PUBLIC	??_C@_0M@NLEIKFCE@MOTORCYCLE3?$AA@		; `string'
PUBLIC	??_C@_0BA@PGHNLPG@MOTORCYCLE_WING?$AA@		; `string'
CRT$XCU	SEGMENT
_$S33	DD	FLAT:_$E31
CRT$XCU	ENDS
;	COMDAT xdata$x
; File c:\stlport-4.6.1\stlport\stl\_alloc.h
xdata$x	SEGMENT
$T101688 DD	0ffffffffH
	DD	FLAT:$L101650
	DD	00H
	DD	FLAT:$L101651
	DD	01H
	DD	FLAT:$L101652
	DD	02H
	DD	FLAT:$L101653
$T101686 DD	019930520H
	DD	04H
	DD	FLAT:$T101688
	DD	2 DUP(00H)
	DD	2 DUP(00H)
xdata$x	ENDS
;	COMDAT ??_C@_0BA@HFMKBDFL@MOTORCYCLE_NONE?$AA@
CONST	SEGMENT
??_C@_0BA@HFMKBDFL@MOTORCYCLE_NONE?$AA@ DB 'MOTORCYCLE_NONE', 00H ; `string'
CONST	ENDS
;	COMDAT ??_C@_0M@OJHOMHKG@MOTORCYCLE1?$AA@
CONST	SEGMENT
??_C@_0M@OJHOMHKG@MOTORCYCLE1?$AA@ DB 'MOTORCYCLE1', 00H ; `string'
CONST	ENDS
;	COMDAT ??_C@_0M@MCFDJEGF@MOTORCYCLE2?$AA@
CONST	SEGMENT
??_C@_0M@MCFDJEGF@MOTORCYCLE2?$AA@ DB 'MOTORCYCLE2', 00H ; `string'
CONST	ENDS
;	COMDAT ??_C@_0M@NLEIKFCE@MOTORCYCLE3?$AA@
CONST	SEGMENT
??_C@_0M@NLEIKFCE@MOTORCYCLE3?$AA@ DB 'MOTORCYCLE3', 00H ; `string'
CONST	ENDS
;	COMDAT ??_C@_0BA@PGHNLPG@MOTORCYCLE_WING?$AA@
CONST	SEGMENT
??_C@_0BA@PGHNLPG@MOTORCYCLE_WING?$AA@ DB 'MOTORCYCLE_WING', 00H ; `string'
; Function compile flags: /Ogsy
; File c:\darkeden\designed_common\project\client\packet\types\creaturetypes.h
CONST	ENDS
;	COMDAT _$E31
text$yc	SEGMENT
$T101649 = -13						; size = 1
$T101648 = -13						; size = 1
$T101647 = -13						; size = 1
$T101646 = -13						; size = 1
$T101645 = -13						; size = 1
__$EHRec$ = -12						; size = 12
_$E31	PROC NEAR					; COMDAT

; 122  : {

  00000	b8 00 00 00 00	 mov	 eax, __ehhandler$_$E31
  00005	e8 00 00 00 00	 call	 __EH_prolog
  0000a	51		 push	 ecx

; 123  : 	"MOTORCYCLE_NONE" ,

  0000b	8d 45 f3	 lea	 eax, DWORD PTR $T101645[ebp]
  0000e	50		 push	 eax
  0000f	68 00 00 00 00	 push	 OFFSET FLAT:??_C@_0BA@HFMKBDFL@MOTORCYCLE_NONE?$AA@
  00014	b9 00 00 00 00	 mov	 ecx, OFFSET FLAT:_MotorcycleType2String
  00019	e8 00 00 00 00	 call	 ??0?$basic_string@DV?$char_traits@D@_STL@@V?$allocator@D@2@@_STL@@QAE@PBDABV?$allocator@D@1@@Z ; _STL::basic_string<char,_STL::char_traits<char>,_STL::allocator<char> >::basic_string<char,_STL::char_traits<char>,_STL::allocator<char> >
  0001e	83 65 fc 00	 and	 DWORD PTR __$EHRec$[ebp+8], 0

; 124  : 	"MOTORCYCLE1" ,

  00022	8d 45 f3	 lea	 eax, DWORD PTR $T101646[ebp]
  00025	50		 push	 eax
  00026	68 00 00 00 00	 push	 OFFSET FLAT:??_C@_0M@OJHOMHKG@MOTORCYCLE1?$AA@
  0002b	b9 0c 00 00 00	 mov	 ecx, OFFSET FLAT:_MotorcycleType2String+12
  00030	e8 00 00 00 00	 call	 ??0?$basic_string@DV?$char_traits@D@_STL@@V?$allocator@D@2@@_STL@@QAE@PBDABV?$allocator@D@1@@Z ; _STL::basic_string<char,_STL::char_traits<char>,_STL::allocator<char> >::basic_string<char,_STL::char_traits<char>,_STL::allocator<char> >

; 125  : 	"MOTORCYCLE2" ,

  00035	8d 45 f3	 lea	 eax, DWORD PTR $T101647[ebp]
  00038	50		 push	 eax
  00039	68 00 00 00 00	 push	 OFFSET FLAT:??_C@_0M@MCFDJEGF@MOTORCYCLE2?$AA@
  0003e	b9 18 00 00 00	 mov	 ecx, OFFSET FLAT:_MotorcycleType2String+24
  00043	c6 45 fc 01	 mov	 BYTE PTR __$EHRec$[ebp+8], 1
  00047	e8 00 00 00 00	 call	 ??0?$basic_string@DV?$char_traits@D@_STL@@V?$allocator@D@2@@_STL@@QAE@PBDABV?$allocator@D@1@@Z ; _STL::basic_string<char,_STL::char_traits<char>,_STL::allocator<char> >::basic_string<char,_STL::char_traits<char>,_STL::allocator<char> >

; 126  : 	"MOTORCYCLE3",

  0004c	8d 45 f3	 lea	 eax, DWORD PTR $T101648[ebp]
  0004f	50		 push	 eax
  00050	68 00 00 00 00	 push	 OFFSET FLAT:??_C@_0M@NLEIKFCE@MOTORCYCLE3?$AA@
  00055	b9 24 00 00 00	 mov	 ecx, OFFSET FLAT:_MotorcycleType2String+36
  0005a	c6 45 fc 02	 mov	 BYTE PTR __$EHRec$[ebp+8], 2
  0005e	e8 00 00 00 00	 call	 ??0?$basic_string@DV?$char_traits@D@_STL@@V?$allocator@D@2@@_STL@@QAE@PBDABV?$allocator@D@1@@Z ; _STL::basic_string<char,_STL::char_traits<char>,_STL::allocator<char> >::basic_string<char,_STL::char_traits<char>,_STL::allocator<char> >

; 127  : 	"MOTORCYCLE_WING"
; 128  : };

  00063	8d 45 f3	 lea	 eax, DWORD PTR $T101649[ebp]
  00066	50		 push	 eax
  00067	68 00 00 00 00	 push	 OFFSET FLAT:??_C@_0BA@PGHNLPG@MOTORCYCLE_WING?$AA@
  0006c	b9 30 00 00 00	 mov	 ecx, OFFSET FLAT:_MotorcycleType2String+48
  00071	c6 45 fc 03	 mov	 BYTE PTR __$EHRec$[ebp+8], 3
  00075	e8 00 00 00 00	 call	 ??0?$basic_string@DV?$char_traits@D@_STL@@V?$allocator@D@2@@_STL@@QAE@PBDABV?$allocator@D@1@@Z ; _STL::basic_string<char,_STL::char_traits<char>,_STL::allocator<char> >::basic_string<char,_STL::char_traits<char>,_STL::allocator<char> >
  0007a	68 00 00 00 00	 push	 OFFSET FLAT:_$E32
  0007f	e8 00 00 00 00	 call	 _atexit
  00084	59		 pop	 ecx
  00085	8b 4d f4	 mov	 ecx, DWORD PTR __$EHRec$[ebp]
  00088	64 89 0d 00 00
	00 00		 mov	 DWORD PTR fs:__except_list, ecx
  0008f	c9		 leave
  00090	c3		 ret	 0
text$yc	ENDS
;	COMDAT text$x
text$x	SEGMENT
$L101650:
  00000	b9 00 00 00 00	 mov	 ecx, OFFSET FLAT:_MotorcycleType2String
  00005	e9 00 00 00 00	 jmp	 ??1?$basic_string@DV?$char_traits@D@_STL@@V?$allocator@D@2@@_STL@@QAE@XZ ; _STL::basic_string<char,_STL::char_traits<char>,_STL::allocator<char> >::~basic_string<char,_STL::char_traits<char>,_STL::allocator<char> >
$L101651:
  0000a	b9 0c 00 00 00	 mov	 ecx, OFFSET FLAT:_MotorcycleType2String+12
  0000f	e9 00 00 00 00	 jmp	 ??1?$basic_string@DV?$char_traits@D@_STL@@V?$allocator@D@2@@_STL@@QAE@XZ ; _STL::basic_string<char,_STL::char_traits<char>,_STL::allocator<char> >::~basic_string<char,_STL::char_traits<char>,_STL::allocator<char> >
$L101652:
  00014	b9 18 00 00 00	 mov	 ecx, OFFSET FLAT:_MotorcycleType2String+24
  00019	e9 00 00 00 00	 jmp	 ??1?$basic_string@DV?$char_traits@D@_STL@@V?$allocator@D@2@@_STL@@QAE@XZ ; _STL::basic_string<char,_STL::char_traits<char>,_STL::allocator<char> >::~basic_string<char,_STL::char_traits<char>,_STL::allocator<char> >
$L101653:
  0001e	b9 24 00 00 00	 mov	 ecx, OFFSET FLAT:_MotorcycleType2String+36
  00023	e9 00 00 00 00	 jmp	 ??1?$basic_string@DV?$char_traits@D@_STL@@V?$allocator@D@2@@_STL@@QAE@XZ ; _STL::basic_string<char,_STL::char_traits<char>,_STL::allocator<char> >::~basic_string<char,_STL::char_traits<char>,_STL::allocator<char> >
__ehhandler$_$E31:
  00028	b8 00 00 00 00	 mov	 eax, OFFSET FLAT:$T101686
  0002d	e9 00 00 00 00	 jmp	 ___CxxFrameHandler
text$x	ENDS
_$E31	ENDP
PUBLIC	??_C@_0BD@BHBJCGPL@VAMPIRE_COAT_BASIC?$AA@	; `string'
PUBLIC	??_C@_0O@BACADMJG@VAMPIRE_COAT1?$AA@		; `string'
PUBLIC	??_C@_0O@DLANGPFF@VAMPIRE_COAT2?$AA@		; `string'
PUBLIC	??_C@_0O@CCBGFOBE@VAMPIRE_COAT3?$AA@		; `string'
PUBLIC	??_C@_0O@GNFHMIND@VAMPIRE_COAT4?$AA@		; `string'
PUBLIC	??_C@_0O@HEEMPJJC@VAMPIRE_COAT5?$AA@		; `string'
PUBLIC	??_C@_0O@FPGBKKFB@VAMPIRE_COAT6?$AA@		; `string'
PUBLIC	??_C@_0O@EGHKJLBA@VAMPIRE_COAT7?$AA@		; `string'
PUBLIC	??_C@_0O@MBOCIHNP@VAMPIRE_COAT8?$AA@		; `string'
PUBLIC	??_C@_0BB@PNEFOEAC@VAMPIRE_COAT_MAX?$AA@	; `string'
CRT$XCU	SEGMENT
_$S36	DD	FLAT:_$E34
CRT$XCU	ENDS
;	COMDAT xdata$x
; File c:\stlport-4.6.1\stlport\stl\_alloc.h
xdata$x	SEGMENT
$T101776 DD	0ffffffffH
	DD	FLAT:$L101703
	DD	00H
	DD	FLAT:$L101704
	DD	01H
	DD	FLAT:$L101705
	DD	02H
	DD	FLAT:$L101706
	DD	03H
	DD	FLAT:$L101707
	DD	04H
	DD	FLAT:$L101708
	DD	05H
	DD	FLAT:$L101709
	DD	06H
	DD	FLAT:$L101710
	DD	07H
	DD	FLAT:$L101711
$T101774 DD	019930520H
	DD	09H
	DD	FLAT:$T101776
	DD	2 DUP(00H)
	DD	2 DUP(00H)
xdata$x	ENDS
;	COMDAT ??_C@_0BD@BHBJCGPL@VAMPIRE_COAT_BASIC?$AA@
CONST	SEGMENT
??_C@_0BD@BHBJCGPL@VAMPIRE_COAT_BASIC?$AA@ DB 'VAMPIRE_COAT_BASIC', 00H ; `string'
CONST	ENDS
;	COMDAT ??_C@_0O@BACADMJG@VAMPIRE_COAT1?$AA@
CONST	SEGMENT
??_C@_0O@BACADMJG@VAMPIRE_COAT1?$AA@ DB 'VAMPIRE_COAT1', 00H ; `string'
CONST	ENDS
;	COMDAT ??_C@_0O@DLANGPFF@VAMPIRE_COAT2?$AA@
CONST	SEGMENT
??_C@_0O@DLANGPFF@VAMPIRE_COAT2?$AA@ DB 'VAMPIRE_COAT2', 00H ; `string'
CONST	ENDS
;	COMDAT ??_C@_0O@CCBGFOBE@VAMPIRE_COAT3?$AA@
CONST	SEGMENT
??_C@_0O@CCBGFOBE@VAMPIRE_COAT3?$AA@ DB 'VAMPIRE_COAT3', 00H ; `string'
CONST	ENDS
;	COMDAT ??_C@_0O@GNFHMIND@VAMPIRE_COAT4?$AA@
CONST	SEGMENT
??_C@_0O@GNFHMIND@VAMPIRE_COAT4?$AA@ DB 'VAMPIRE_COAT4', 00H ; `string'
CONST	ENDS
;	COMDAT ??_C@_0O@HEEMPJJC@VAMPIRE_COAT5?$AA@
CONST	SEGMENT
??_C@_0O@HEEMPJJC@VAMPIRE_COAT5?$AA@ DB 'VAMPIRE_COAT5', 00H ; `string'
CONST	ENDS
;	COMDAT ??_C@_0O@FPGBKKFB@VAMPIRE_COAT6?$AA@
CONST	SEGMENT
??_C@_0O@FPGBKKFB@VAMPIRE_COAT6?$AA@ DB 'VAMPIRE_COAT6', 00H ; `string'
CONST	ENDS
;	COMDAT ??_C@_0O@EGHKJLBA@VAMPIRE_COAT7?$AA@
CONST	SEGMENT
??_C@_0O@EGHKJLBA@VAMPIRE_COAT7?$AA@ DB 'VAMPIRE_COAT7', 00H ; `string'
CONST	ENDS
;	COMDAT ??_C@_0O@MBOCIHNP@VAMPIRE_COAT8?$AA@
CONST	SEGMENT
??_C@_0O@MBOCIHNP@VAMPIRE_COAT8?$AA@ DB 'VAMPIRE_COAT8', 00H ; `string'
CONST	ENDS
;	COMDAT ??_C@_0BB@PNEFOEAC@VAMPIRE_COAT_MAX?$AA@
CONST	SEGMENT
??_C@_0BB@PNEFOEAC@VAMPIRE_COAT_MAX?$AA@ DB 'VAMPIRE_COAT_MAX', 00H ; `string'
; Function compile flags: /Ogsy
; File c:\darkeden\designed_common\project\client\packet\types\creaturetypes.h
CONST	ENDS
;	COMDAT _$E34
text$yc	SEGMENT
$T101702 = -13						; size = 1
$T101701 = -13						; size = 1
$T101700 = -13						; size = 1
$T101699 = -13						; size = 1
$T101698 = -13						; size = 1
$T101697 = -13						; size = 1
$T101696 = -13						; size = 1
$T101695 = -13						; size = 1
$T101694 = -13						; size = 1
$T101693 = -13						; size = 1
__$EHRec$ = -12						; size = 12
_$E34	PROC NEAR					; COMDAT

; 131  : { 

  00000	b8 00 00 00 00	 mov	 eax, __ehhandler$_$E34
  00005	e8 00 00 00 00	 call	 __EH_prolog
  0000a	51		 push	 ecx

; 132  : 	"VAMPIRE_COAT_BASIC" , 

  0000b	8d 45 f3	 lea	 eax, DWORD PTR $T101693[ebp]
  0000e	50		 push	 eax
  0000f	68 00 00 00 00	 push	 OFFSET FLAT:??_C@_0BD@BHBJCGPL@VAMPIRE_COAT_BASIC?$AA@
  00014	b9 00 00 00 00	 mov	 ecx, OFFSET FLAT:_VampireCoatType2String
  00019	e8 00 00 00 00	 call	 ??0?$basic_string@DV?$char_traits@D@_STL@@V?$allocator@D@2@@_STL@@QAE@PBDABV?$allocator@D@1@@Z ; _STL::basic_string<char,_STL::char_traits<char>,_STL::allocator<char> >::basic_string<char,_STL::char_traits<char>,_STL::allocator<char> >
  0001e	83 65 fc 00	 and	 DWORD PTR __$EHRec$[ebp+8], 0

; 133  : 	"VAMPIRE_COAT1" , 

  00022	8d 45 f3	 lea	 eax, DWORD PTR $T101694[ebp]
  00025	50		 push	 eax
  00026	68 00 00 00 00	 push	 OFFSET FLAT:??_C@_0O@BACADMJG@VAMPIRE_COAT1?$AA@
  0002b	b9 0c 00 00 00	 mov	 ecx, OFFSET FLAT:_VampireCoatType2String+12
  00030	e8 00 00 00 00	 call	 ??0?$basic_string@DV?$char_traits@D@_STL@@V?$allocator@D@2@@_STL@@QAE@PBDABV?$allocator@D@1@@Z ; _STL::basic_string<char,_STL::char_traits<char>,_STL::allocator<char> >::basic_string<char,_STL::char_traits<char>,_STL::allocator<char> >

; 134  : 	"VAMPIRE_COAT2" ,

  00035	8d 45 f3	 lea	 eax, DWORD PTR $T101695[ebp]
  00038	50		 push	 eax
  00039	68 00 00 00 00	 push	 OFFSET FLAT:??_C@_0O@DLANGPFF@VAMPIRE_COAT2?$AA@
  0003e	b9 18 00 00 00	 mov	 ecx, OFFSET FLAT:_VampireCoatType2String+24
  00043	c6 45 fc 01	 mov	 BYTE PTR __$EHRec$[ebp+8], 1
  00047	e8 00 00 00 00	 call	 ??0?$basic_string@DV?$char_traits@D@_STL@@V?$allocator@D@2@@_STL@@QAE@PBDABV?$allocator@D@1@@Z ; _STL::basic_string<char,_STL::char_traits<char>,_STL::allocator<char> >::basic_string<char,_STL::char_traits<char>,_STL::allocator<char> >

; 135  : 	"VAMPIRE_COAT3" ,

  0004c	8d 45 f3	 lea	 eax, DWORD PTR $T101696[ebp]
  0004f	50		 push	 eax
  00050	68 00 00 00 00	 push	 OFFSET FLAT:??_C@_0O@CCBGFOBE@VAMPIRE_COAT3?$AA@
  00055	b9 24 00 00 00	 mov	 ecx, OFFSET FLAT:_VampireCoatType2String+36
  0005a	c6 45 fc 02	 mov	 BYTE PTR __$EHRec$[ebp+8], 2
  0005e	e8 00 00 00 00	 call	 ??0?$basic_string@DV?$char_traits@D@_STL@@V?$allocator@D@2@@_STL@@QAE@PBDABV?$allocator@D@1@@Z ; _STL::basic_string<char,_STL::char_traits<char>,_STL::allocator<char> >::basic_string<char,_STL::char_traits<char>,_STL::allocator<char> >

; 136  : 	"VAMPIRE_COAT4" ,

  00063	8d 45 f3	 lea	 eax, DWORD PTR $T101697[ebp]
  00066	50		 push	 eax
  00067	68 00 00 00 00	 push	 OFFSET FLAT:??_C@_0O@GNFHMIND@VAMPIRE_COAT4?$AA@
  0006c	b9 30 00 00 00	 mov	 ecx, OFFSET FLAT:_VampireCoatType2String+48
  00071	c6 45 fc 03	 mov	 BYTE PTR __$EHRec$[ebp+8], 3
  00075	e8 00 00 00 00	 call	 ??0?$basic_string@DV?$char_traits@D@_STL@@V?$allocator@D@2@@_STL@@QAE@PBDABV?$allocator@D@1@@Z ; _STL::basic_string<char,_STL::char_traits<char>,_STL::allocator<char> >::basic_string<char,_STL::char_traits<char>,_STL::allocator<char> >

; 137  : 	"VAMPIRE_COAT5" ,	//by viva 171

  0007a	8d 45 f3	 lea	 eax, DWORD PTR $T101698[ebp]
  0007d	50		 push	 eax
  0007e	68 00 00 00 00	 push	 OFFSET FLAT:??_C@_0O@HEEMPJJC@VAMPIRE_COAT5?$AA@
  00083	b9 3c 00 00 00	 mov	 ecx, OFFSET FLAT:_VampireCoatType2String+60
  00088	c6 45 fc 04	 mov	 BYTE PTR __$EHRec$[ebp+8], 4
  0008c	e8 00 00 00 00	 call	 ??0?$basic_string@DV?$char_traits@D@_STL@@V?$allocator@D@2@@_STL@@QAE@PBDABV?$allocator@D@1@@Z ; _STL::basic_string<char,_STL::char_traits<char>,_STL::allocator<char> >::basic_string<char,_STL::char_traits<char>,_STL::allocator<char> >

; 138  : 	"VAMPIRE_COAT6" ,	//181

  00091	8d 45 f3	 lea	 eax, DWORD PTR $T101699[ebp]
  00094	50		 push	 eax
  00095	68 00 00 00 00	 push	 OFFSET FLAT:??_C@_0O@FPGBKKFB@VAMPIRE_COAT6?$AA@
  0009a	b9 48 00 00 00	 mov	 ecx, OFFSET FLAT:_VampireCoatType2String+72
  0009f	c6 45 fc 05	 mov	 BYTE PTR __$EHRec$[ebp+8], 5
  000a3	e8 00 00 00 00	 call	 ??0?$basic_string@DV?$char_traits@D@_STL@@V?$allocator@D@2@@_STL@@QAE@PBDABV?$allocator@D@1@@Z ; _STL::basic_string<char,_STL::char_traits<char>,_STL::allocator<char> >::basic_string<char,_STL::char_traits<char>,_STL::allocator<char> >

; 139  : 	"VAMPIRE_COAT7" ,

  000a8	8d 45 f3	 lea	 eax, DWORD PTR $T101700[ebp]
  000ab	50		 push	 eax
  000ac	68 00 00 00 00	 push	 OFFSET FLAT:??_C@_0O@EGHKJLBA@VAMPIRE_COAT7?$AA@
  000b1	b9 54 00 00 00	 mov	 ecx, OFFSET FLAT:_VampireCoatType2String+84
  000b6	c6 45 fc 06	 mov	 BYTE PTR __$EHRec$[ebp+8], 6
  000ba	e8 00 00 00 00	 call	 ??0?$basic_string@DV?$char_traits@D@_STL@@V?$allocator@D@2@@_STL@@QAE@PBDABV?$allocator@D@1@@Z ; _STL::basic_string<char,_STL::char_traits<char>,_STL::allocator<char> >::basic_string<char,_STL::char_traits<char>,_STL::allocator<char> >

; 140  : 	"VAMPIRE_COAT8" ,//231

  000bf	8d 45 f3	 lea	 eax, DWORD PTR $T101701[ebp]
  000c2	50		 push	 eax
  000c3	68 00 00 00 00	 push	 OFFSET FLAT:??_C@_0O@MBOCIHNP@VAMPIRE_COAT8?$AA@
  000c8	b9 60 00 00 00	 mov	 ecx, OFFSET FLAT:_VampireCoatType2String+96
  000cd	c6 45 fc 07	 mov	 BYTE PTR __$EHRec$[ebp+8], 7
  000d1	e8 00 00 00 00	 call	 ??0?$basic_string@DV?$char_traits@D@_STL@@V?$allocator@D@2@@_STL@@QAE@PBDABV?$allocator@D@1@@Z ; _STL::basic_string<char,_STL::char_traits<char>,_STL::allocator<char> >::basic_string<char,_STL::char_traits<char>,_STL::allocator<char> >

; 141  : 	"VAMPIRE_COAT_MAX"
; 142  : };

  000d6	8d 45 f3	 lea	 eax, DWORD PTR $T101702[ebp]
  000d9	50		 push	 eax
  000da	68 00 00 00 00	 push	 OFFSET FLAT:??_C@_0BB@PNEFOEAC@VAMPIRE_COAT_MAX?$AA@
  000df	b9 6c 00 00 00	 mov	 ecx, OFFSET FLAT:_VampireCoatType2String+108
  000e4	c6 45 fc 08	 mov	 BYTE PTR __$EHRec$[ebp+8], 8
  000e8	e8 00 00 00 00	 call	 ??0?$basic_string@DV?$char_traits@D@_STL@@V?$allocator@D@2@@_STL@@QAE@PBDABV?$allocator@D@1@@Z ; _STL::basic_string<char,_STL::char_traits<char>,_STL::allocator<char> >::basic_string<char,_STL::char_traits<char>,_STL::allocator<char> >
  000ed	68 00 00 00 00	 push	 OFFSET FLAT:_$E35
  000f2	e8 00 00 00 00	 call	 _atexit
  000f7	59		 pop	 ecx
  000f8	8b 4d f4	 mov	 ecx, DWORD PTR __$EHRec$[ebp]
  000fb	64 89 0d 00 00
	00 00		 mov	 DWORD PTR fs:__except_list, ecx
  00102	c9		 leave
  00103	c3		 ret	 0
text$yc	ENDS
;	COMDAT text$x
text$x	SEGMENT
$L101703:
  00000	b9 00 00 00 00	 mov	 ecx, OFFSET FLAT:_VampireCoatType2String
  00005	e9 00 00 00 00	 jmp	 ??1?$basic_string@DV?$char_traits@D@_STL@@V?$allocator@D@2@@_STL@@QAE@XZ ; _STL::basic_string<char,_STL::char_traits<char>,_STL::allocator<char> >::~basic_string<char,_STL::char_traits<char>,_STL::allocator<char> >
$L101704:
  0000a	b9 0c 00 00 00	 mov	 ecx, OFFSET FLAT:_VampireCoatType2String+12
  0000f	e9 00 00 00 00	 jmp	 ??1?$basic_string@DV?$char_traits@D@_STL@@V?$allocator@D@2@@_STL@@QAE@XZ ; _STL::basic_string<char,_STL::char_traits<char>,_STL::allocator<char> >::~basic_string<char,_STL::char_traits<char>,_STL::allocator<char> >
$L101705:
  00014	b9 18 00 00 00	 mov	 ecx, OFFSET FLAT:_VampireCoatType2String+24
  00019	e9 00 00 00 00	 jmp	 ??1?$basic_string@DV?$char_traits@D@_STL@@V?$allocator@D@2@@_STL@@QAE@XZ ; _STL::basic_string<char,_STL::char_traits<char>,_STL::allocator<char> >::~basic_string<char,_STL::char_traits<char>,_STL::allocator<char> >
$L101706:
  0001e	b9 24 00 00 00	 mov	 ecx, OFFSET FLAT:_VampireCoatType2String+36
  00023	e9 00 00 00 00	 jmp	 ??1?$basic_string@DV?$char_traits@D@_STL@@V?$allocator@D@2@@_STL@@QAE@XZ ; _STL::basic_string<char,_STL::char_traits<char>,_STL::allocator<char> >::~basic_string<char,_STL::char_traits<char>,_STL::allocator<char> >
$L101707:
  00028	b9 30 00 00 00	 mov	 ecx, OFFSET FLAT:_VampireCoatType2String+48
  0002d	e9 00 00 00 00	 jmp	 ??1?$basic_string@DV?$char_traits@D@_STL@@V?$allocator@D@2@@_STL@@QAE@XZ ; _STL::basic_string<char,_STL::char_traits<char>,_STL::allocator<char> >::~basic_string<char,_STL::char_traits<char>,_STL::allocator<char> >
$L101708:
  00032	b9 3c 00 00 00	 mov	 ecx, OFFSET FLAT:_VampireCoatType2String+60
  00037	e9 00 00 00 00	 jmp	 ??1?$basic_string@DV?$char_traits@D@_STL@@V?$allocator@D@2@@_STL@@QAE@XZ ; _STL::basic_string<char,_STL::char_traits<char>,_STL::allocator<char> >::~basic_string<char,_STL::char_traits<char>,_STL::allocator<char> >
$L101709:
  0003c	b9 48 00 00 00	 mov	 ecx, OFFSET FLAT:_VampireCoatType2String+72
  00041	e9 00 00 00 00	 jmp	 ??1?$basic_string@DV?$char_traits@D@_STL@@V?$allocator@D@2@@_STL@@QAE@XZ ; _STL::basic_string<char,_STL::char_traits<char>,_STL::allocator<char> >::~basic_string<char,_STL::char_traits<char>,_STL::allocator<char> >
$L101710:
  00046	b9 54 00 00 00	 mov	 ecx, OFFSET FLAT:_VampireCoatType2String+84
  0004b	e9 00 00 00 00	 jmp	 ??1?$basic_string@DV?$char_traits@D@_STL@@V?$allocator@D@2@@_STL@@QAE@XZ ; _STL::basic_string<char,_STL::char_traits<char>,_STL::allocator<char> >::~basic_string<char,_STL::char_traits<char>,_STL::allocator<char> >
$L101711:
  00050	b9 60 00 00 00	 mov	 ecx, OFFSET FLAT:_VampireCoatType2String+96
  00055	e9 00 00 00 00	 jmp	 ??1?$basic_string@DV?$char_traits@D@_STL@@V?$allocator@D@2@@_STL@@QAE@XZ ; _STL::basic_string<char,_STL::char_traits<char>,_STL::allocator<char> >::~basic_string<char,_STL::char_traits<char>,_STL::allocator<char> >
__ehhandler$_$E34:
  0005a	b8 00 00 00 00	 mov	 eax, OFFSET FLAT:$T101774
  0005f	e9 00 00 00 00	 jmp	 ___CxxFrameHandler
text$x	ENDS
_$E34	ENDP
PUBLIC	??_C@_0BB@JKNDCPFB@VAMPIRE_ARM_NONE?$AA@	; `string'
PUBLIC	??_C@_0BD@KLAHKJOO@VAMPIRE_ARM_WEAPON?$AA@	; `string'
PUBLIC	??_C@_0BE@KKGJJMKH@VAMPIRE_ARM_WEAPON2?$AA@	; `string'
PUBLIC	??_C@_0BE@LDHCKNOG@VAMPIRE_ARM_WEAPON3?$AA@	; `string'
PUBLIC	??_C@_0BE@PMDDDLCB@VAMPIRE_ARM_WEAPON4?$AA@	; `string'
PUBLIC	??_C@_0BE@OFCIAKGA@VAMPIRE_ARM_WEAPON5?$AA@	; `string'
PUBLIC	??_C@_0BA@GOJJGFKN@VAMPIRE_ARM_MAX?$AA@		; `string'
CRT$XCU	SEGMENT
_$S39	DD	FLAT:_$E37
CRT$XCU	ENDS
;	COMDAT xdata$x
; File c:\stlport-4.6.1\stlport\stl\_alloc.h
xdata$x	SEGMENT
$T101840 DD	0ffffffffH
	DD	FLAT:$L101788
	DD	00H
	DD	FLAT:$L101789
	DD	01H
	DD	FLAT:$L101790
	DD	02H
	DD	FLAT:$L101791
	DD	03H
	DD	FLAT:$L101792
	DD	04H
	DD	FLAT:$L101793
$T101838 DD	019930520H
	DD	06H
	DD	FLAT:$T101840
	DD	2 DUP(00H)
	DD	2 DUP(00H)
xdata$x	ENDS
;	COMDAT ??_C@_0BB@JKNDCPFB@VAMPIRE_ARM_NONE?$AA@
CONST	SEGMENT
??_C@_0BB@JKNDCPFB@VAMPIRE_ARM_NONE?$AA@ DB 'VAMPIRE_ARM_NONE', 00H ; `string'
CONST	ENDS
;	COMDAT ??_C@_0BD@KLAHKJOO@VAMPIRE_ARM_WEAPON?$AA@
CONST	SEGMENT
??_C@_0BD@KLAHKJOO@VAMPIRE_ARM_WEAPON?$AA@ DB 'VAMPIRE_ARM_WEAPON', 00H ; `string'
CONST	ENDS
;	COMDAT ??_C@_0BE@KKGJJMKH@VAMPIRE_ARM_WEAPON2?$AA@
CONST	SEGMENT
??_C@_0BE@KKGJJMKH@VAMPIRE_ARM_WEAPON2?$AA@ DB 'VAMPIRE_ARM_WEAPON2', 00H ; `string'
CONST	ENDS
;	COMDAT ??_C@_0BE@LDHCKNOG@VAMPIRE_ARM_WEAPON3?$AA@
CONST	SEGMENT
??_C@_0BE@LDHCKNOG@VAMPIRE_ARM_WEAPON3?$AA@ DB 'VAMPIRE_ARM_WEAPON3', 00H ; `string'
CONST	ENDS
;	COMDAT ??_C@_0BE@PMDDDLCB@VAMPIRE_ARM_WEAPON4?$AA@
CONST	SEGMENT
??_C@_0BE@PMDDDLCB@VAMPIRE_ARM_WEAPON4?$AA@ DB 'VAMPIRE_ARM_WEAPON4', 00H ; `string'
CONST	ENDS
;	COMDAT ??_C@_0BE@OFCIAKGA@VAMPIRE_ARM_WEAPON5?$AA@
CONST	SEGMENT
??_C@_0BE@OFCIAKGA@VAMPIRE_ARM_WEAPON5?$AA@ DB 'VAMPIRE_ARM_WEAPON5', 00H ; `string'
CONST	ENDS
;	COMDAT ??_C@_0BA@GOJJGFKN@VAMPIRE_ARM_MAX?$AA@
CONST	SEGMENT
??_C@_0BA@GOJJGFKN@VAMPIRE_ARM_MAX?$AA@ DB 'VAMPIRE_ARM_MAX', 00H ; `string'
; Function compile flags: /Ogsy
; File c:\darkeden\designed_common\project\client\packet\types\creaturetypes.h
CONST	ENDS
;	COMDAT _$E37
text$yc	SEGMENT
$T101787 = -13						; size = 1
$T101786 = -13						; size = 1
$T101785 = -13						; size = 1
$T101784 = -13						; size = 1
$T101783 = -13						; size = 1
$T101782 = -13						; size = 1
$T101781 = -13						; size = 1
__$EHRec$ = -12						; size = 12
_$E37	PROC NEAR					; COMDAT

; 145  : {

  00000	b8 00 00 00 00	 mov	 eax, __ehhandler$_$E37
  00005	e8 00 00 00 00	 call	 __EH_prolog
  0000a	51		 push	 ecx

; 146  : 	"VAMPIRE_ARM_NONE",

  0000b	8d 45 f3	 lea	 eax, DWORD PTR $T101781[ebp]
  0000e	50		 push	 eax
  0000f	68 00 00 00 00	 push	 OFFSET FLAT:??_C@_0BB@JKNDCPFB@VAMPIRE_ARM_NONE?$AA@
  00014	b9 00 00 00 00	 mov	 ecx, OFFSET FLAT:_VampireArmType2String
  00019	e8 00 00 00 00	 call	 ??0?$basic_string@DV?$char_traits@D@_STL@@V?$allocator@D@2@@_STL@@QAE@PBDABV?$allocator@D@1@@Z ; _STL::basic_string<char,_STL::char_traits<char>,_STL::allocator<char> >::basic_string<char,_STL::char_traits<char>,_STL::allocator<char> >
  0001e	83 65 fc 00	 and	 DWORD PTR __$EHRec$[ebp+8], 0

; 147  : 	"VAMPIRE_ARM_WEAPON",

  00022	8d 45 f3	 lea	 eax, DWORD PTR $T101782[ebp]
  00025	50		 push	 eax
  00026	68 00 00 00 00	 push	 OFFSET FLAT:??_C@_0BD@KLAHKJOO@VAMPIRE_ARM_WEAPON?$AA@
  0002b	b9 0c 00 00 00	 mov	 ecx, OFFSET FLAT:_VampireArmType2String+12
  00030	e8 00 00 00 00	 call	 ??0?$basic_string@DV?$char_traits@D@_STL@@V?$allocator@D@2@@_STL@@QAE@PBDABV?$allocator@D@1@@Z ; _STL::basic_string<char,_STL::char_traits<char>,_STL::allocator<char> >::basic_string<char,_STL::char_traits<char>,_STL::allocator<char> >

; 148  : 	"VAMPIRE_ARM_WEAPON2",	//by viva 171

  00035	8d 45 f3	 lea	 eax, DWORD PTR $T101783[ebp]
  00038	50		 push	 eax
  00039	68 00 00 00 00	 push	 OFFSET FLAT:??_C@_0BE@KKGJJMKH@VAMPIRE_ARM_WEAPON2?$AA@
  0003e	b9 18 00 00 00	 mov	 ecx, OFFSET FLAT:_VampireArmType2String+24
  00043	c6 45 fc 01	 mov	 BYTE PTR __$EHRec$[ebp+8], 1
  00047	e8 00 00 00 00	 call	 ??0?$basic_string@DV?$char_traits@D@_STL@@V?$allocator@D@2@@_STL@@QAE@PBDABV?$allocator@D@1@@Z ; _STL::basic_string<char,_STL::char_traits<char>,_STL::allocator<char> >::basic_string<char,_STL::char_traits<char>,_STL::allocator<char> >

; 149  : 	"VAMPIRE_ARM_WEAPON3",	//181

  0004c	8d 45 f3	 lea	 eax, DWORD PTR $T101784[ebp]
  0004f	50		 push	 eax
  00050	68 00 00 00 00	 push	 OFFSET FLAT:??_C@_0BE@LDHCKNOG@VAMPIRE_ARM_WEAPON3?$AA@
  00055	b9 24 00 00 00	 mov	 ecx, OFFSET FLAT:_VampireArmType2String+36
  0005a	c6 45 fc 02	 mov	 BYTE PTR __$EHRec$[ebp+8], 2
  0005e	e8 00 00 00 00	 call	 ??0?$basic_string@DV?$char_traits@D@_STL@@V?$allocator@D@2@@_STL@@QAE@PBDABV?$allocator@D@1@@Z ; _STL::basic_string<char,_STL::char_traits<char>,_STL::allocator<char> >::basic_string<char,_STL::char_traits<char>,_STL::allocator<char> >

; 150  : 	"VAMPIRE_ARM_WEAPON4",

  00063	8d 45 f3	 lea	 eax, DWORD PTR $T101785[ebp]
  00066	50		 push	 eax
  00067	68 00 00 00 00	 push	 OFFSET FLAT:??_C@_0BE@PMDDDLCB@VAMPIRE_ARM_WEAPON4?$AA@
  0006c	b9 30 00 00 00	 mov	 ecx, OFFSET FLAT:_VampireArmType2String+48
  00071	c6 45 fc 03	 mov	 BYTE PTR __$EHRec$[ebp+8], 3
  00075	e8 00 00 00 00	 call	 ??0?$basic_string@DV?$char_traits@D@_STL@@V?$allocator@D@2@@_STL@@QAE@PBDABV?$allocator@D@1@@Z ; _STL::basic_string<char,_STL::char_traits<char>,_STL::allocator<char> >::basic_string<char,_STL::char_traits<char>,_STL::allocator<char> >

; 151  : 	"VAMPIRE_ARM_WEAPON5",//231

  0007a	8d 45 f3	 lea	 eax, DWORD PTR $T101786[ebp]
  0007d	50		 push	 eax
  0007e	68 00 00 00 00	 push	 OFFSET FLAT:??_C@_0BE@OFCIAKGA@VAMPIRE_ARM_WEAPON5?$AA@
  00083	b9 3c 00 00 00	 mov	 ecx, OFFSET FLAT:_VampireArmType2String+60
  00088	c6 45 fc 04	 mov	 BYTE PTR __$EHRec$[ebp+8], 4
  0008c	e8 00 00 00 00	 call	 ??0?$basic_string@DV?$char_traits@D@_STL@@V?$allocator@D@2@@_STL@@QAE@PBDABV?$allocator@D@1@@Z ; _STL::basic_string<char,_STL::char_traits<char>,_STL::allocator<char> >::basic_string<char,_STL::char_traits<char>,_STL::allocator<char> >

; 152  : 	"VAMPIRE_ARM_MAX"
; 153  : };

  00091	8d 45 f3	 lea	 eax, DWORD PTR $T101787[ebp]
  00094	50		 push	 eax
  00095	68 00 00 00 00	 push	 OFFSET FLAT:??_C@_0BA@GOJJGFKN@VAMPIRE_ARM_MAX?$AA@
  0009a	b9 48 00 00 00	 mov	 ecx, OFFSET FLAT:_VampireArmType2String+72
  0009f	c6 45 fc 05	 mov	 BYTE PTR __$EHRec$[ebp+8], 5
  000a3	e8 00 00 00 00	 call	 ??0?$basic_string@DV?$char_traits@D@_STL@@V?$allocator@D@2@@_STL@@QAE@PBDABV?$allocator@D@1@@Z ; _STL::basic_string<char,_STL::char_traits<char>,_STL::allocator<char> >::basic_string<char,_STL::char_traits<char>,_STL::allocator<char> >
  000a8	68 00 00 00 00	 push	 OFFSET FLAT:_$E38
  000ad	e8 00 00 00 00	 call	 _atexit
  000b2	59		 pop	 ecx
  000b3	8b 4d f4	 mov	 ecx, DWORD PTR __$EHRec$[ebp]
  000b6	64 89 0d 00 00
	00 00		 mov	 DWORD PTR fs:__except_list, ecx
  000bd	c9		 leave
  000be	c3		 ret	 0
text$yc	ENDS
;	COMDAT text$x
text$x	SEGMENT
$L101788:
  00000	b9 00 00 00 00	 mov	 ecx, OFFSET FLAT:_VampireArmType2String
  00005	e9 00 00 00 00	 jmp	 ??1?$basic_string@DV?$char_traits@D@_STL@@V?$allocator@D@2@@_STL@@QAE@XZ ; _STL::basic_string<char,_STL::char_traits<char>,_STL::allocator<char> >::~basic_string<char,_STL::char_traits<char>,_STL::allocator<char> >
$L101789:
  0000a	b9 0c 00 00 00	 mov	 ecx, OFFSET FLAT:_VampireArmType2String+12
  0000f	e9 00 00 00 00	 jmp	 ??1?$basic_string@DV?$char_traits@D@_STL@@V?$allocator@D@2@@_STL@@QAE@XZ ; _STL::basic_string<char,_STL::char_traits<char>,_STL::allocator<char> >::~basic_string<char,_STL::char_traits<char>,_STL::allocator<char> >
$L101790:
  00014	b9 18 00 00 00	 mov	 ecx, OFFSET FLAT:_VampireArmType2String+24
  00019	e9 00 00 00 00	 jmp	 ??1?$basic_string@DV?$char_traits@D@_STL@@V?$allocator@D@2@@_STL@@QAE@XZ ; _STL::basic_string<char,_STL::char_traits<char>,_STL::allocator<char> >::~basic_string<char,_STL::char_traits<char>,_STL::allocator<char> >
$L101791:
  0001e	b9 24 00 00 00	 mov	 ecx, OFFSET FLAT:_VampireArmType2String+36
  00023	e9 00 00 00 00	 jmp	 ??1?$basic_string@DV?$char_traits@D@_STL@@V?$allocator@D@2@@_STL@@QAE@XZ ; _STL::basic_string<char,_STL::char_traits<char>,_STL::allocator<char> >::~basic_string<char,_STL::char_traits<char>,_STL::allocator<char> >
$L101792:
  00028	b9 30 00 00 00	 mov	 ecx, OFFSET FLAT:_VampireArmType2String+48
  0002d	e9 00 00 00 00	 jmp	 ??1?$basic_string@DV?$char_traits@D@_STL@@V?$allocator@D@2@@_STL@@QAE@XZ ; _STL::basic_string<char,_STL::char_traits<char>,_STL::allocator<char> >::~basic_string<char,_STL::char_traits<char>,_STL::allocator<char> >
$L101793:
  00032	b9 3c 00 00 00	 mov	 ecx, OFFSET FLAT:_VampireArmType2String+60
  00037	e9 00 00 00 00	 jmp	 ??1?$basic_string@DV?$char_traits@D@_STL@@V?$allocator@D@2@@_STL@@QAE@XZ ; _STL::basic_string<char,_STL::char_traits<char>,_STL::allocator<char> >::~basic_string<char,_STL::char_traits<char>,_STL::allocator<char> >
__ehhandler$_$E37:
  0003c	b8 00 00 00 00	 mov	 eax, OFFSET FLAT:$T101838
  00041	e9 00 00 00 00	 jmp	 ___CxxFrameHandler
text$x	ENDS
_$E37	ENDP
PUBLIC	??_C@_0BD@CMEAPGLN@OUSTERS_COAT_BASIC?$AA@	; `string'
PUBLIC	??_C@_0O@FJGCKGLE@OUSTERS_COAT1?$AA@		; `string'
PUBLIC	??_C@_0O@HCEPPFHH@OUSTERS_COAT2?$AA@		; `string'
PUBLIC	??_C@_0O@GLFEMEDG@OUSTERS_COAT3?$AA@		; `string'
PUBLIC	??_C@_0O@CEBFFCPB@OUSTERS_COAT4?$AA@		; `string'
PUBLIC	??_C@_0O@DNAOGDLA@OUSTERS_COAT5?$AA@		; `string'
PUBLIC	??_C@_0O@BGCDDAHD@OUSTERS_COAT6?$AA@		; `string'
PUBLIC	??_C@_0O@PDIABDC@OUSTERS_COAT7?$AA@		; `string'
PUBLIC	??_C@_0O@IIKABNPN@OUSTERS_COAT8?$AA@		; `string'
PUBLIC	??_C@_0BB@NFPADEOJ@OUSTERS_COAT_MAX?$AA@	; `string'
CRT$XCU	SEGMENT
_$S42	DD	FLAT:_$E40
CRT$XCU	ENDS
;	COMDAT xdata$x
; File c:\stlport-4.6.1\stlport\stl\_alloc.h
xdata$x	SEGMENT
$T101928 DD	0ffffffffH
	DD	FLAT:$L101855
	DD	00H
	DD	FLAT:$L101856
	DD	01H
	DD	FLAT:$L101857
	DD	02H
	DD	FLAT:$L101858
	DD	03H
	DD	FLAT:$L101859
	DD	04H
	DD	FLAT:$L101860
	DD	05H
	DD	FLAT:$L101861
	DD	06H
	DD	FLAT:$L101862
	DD	07H
	DD	FLAT:$L101863
$T101926 DD	019930520H
	DD	09H
	DD	FLAT:$T101928
	DD	2 DUP(00H)
	DD	2 DUP(00H)
xdata$x	ENDS
;	COMDAT ??_C@_0BD@CMEAPGLN@OUSTERS_COAT_BASIC?$AA@
CONST	SEGMENT
??_C@_0BD@CMEAPGLN@OUSTERS_COAT_BASIC?$AA@ DB 'OUSTERS_COAT_BASIC', 00H ; `string'
CONST	ENDS
;	COMDAT ??_C@_0O@FJGCKGLE@OUSTERS_COAT1?$AA@
CONST	SEGMENT
??_C@_0O@FJGCKGLE@OUSTERS_COAT1?$AA@ DB 'OUSTERS_COAT1', 00H ; `string'
CONST	ENDS
;	COMDAT ??_C@_0O@HCEPPFHH@OUSTERS_COAT2?$AA@
CONST	SEGMENT
??_C@_0O@HCEPPFHH@OUSTERS_COAT2?$AA@ DB 'OUSTERS_COAT2', 00H ; `string'
CONST	ENDS
;	COMDAT ??_C@_0O@GLFEMEDG@OUSTERS_COAT3?$AA@
CONST	SEGMENT
??_C@_0O@GLFEMEDG@OUSTERS_COAT3?$AA@ DB 'OUSTERS_COAT3', 00H ; `string'
CONST	ENDS
;	COMDAT ??_C@_0O@CEBFFCPB@OUSTERS_COAT4?$AA@
CONST	SEGMENT
??_C@_0O@CEBFFCPB@OUSTERS_COAT4?$AA@ DB 'OUSTERS_COAT4', 00H ; `string'
CONST	ENDS
;	COMDAT ??_C@_0O@DNAOGDLA@OUSTERS_COAT5?$AA@
CONST	SEGMENT
??_C@_0O@DNAOGDLA@OUSTERS_COAT5?$AA@ DB 'OUSTERS_COAT5', 00H ; `string'
CONST	ENDS
;	COMDAT ??_C@_0O@BGCDDAHD@OUSTERS_COAT6?$AA@
CONST	SEGMENT
??_C@_0O@BGCDDAHD@OUSTERS_COAT6?$AA@ DB 'OUSTERS_COAT6', 00H ; `string'
CONST	ENDS
;	COMDAT ??_C@_0O@PDIABDC@OUSTERS_COAT7?$AA@
CONST	SEGMENT
??_C@_0O@PDIABDC@OUSTERS_COAT7?$AA@ DB 'OUSTERS_COAT7', 00H ; `string'
CONST	ENDS
;	COMDAT ??_C@_0O@IIKABNPN@OUSTERS_COAT8?$AA@
CONST	SEGMENT
??_C@_0O@IIKABNPN@OUSTERS_COAT8?$AA@ DB 'OUSTERS_COAT8', 00H ; `string'
CONST	ENDS
;	COMDAT ??_C@_0BB@NFPADEOJ@OUSTERS_COAT_MAX?$AA@
CONST	SEGMENT
??_C@_0BB@NFPADEOJ@OUSTERS_COAT_MAX?$AA@ DB 'OUSTERS_COAT_MAX', 00H ; `string'
; Function compile flags: /Ogsy
; File c:\darkeden\designed_common\project\client\packet\types\creaturetypes.h
CONST	ENDS
;	COMDAT _$E40
text$yc	SEGMENT
$T101854 = -13						; size = 1
$T101853 = -13						; size = 1
$T101852 = -13						; size = 1
$T101851 = -13						; size = 1
$T101850 = -13						; size = 1
$T101849 = -13						; size = 1
$T101848 = -13						; size = 1
$T101847 = -13						; size = 1
$T101846 = -13						; size = 1
$T101845 = -13						; size = 1
__$EHRec$ = -12						; size = 12
_$E40	PROC NEAR					; COMDAT

; 156  : { 

  00000	b8 00 00 00 00	 mov	 eax, __ehhandler$_$E40
  00005	e8 00 00 00 00	 call	 __EH_prolog
  0000a	51		 push	 ecx

; 157  : 	"OUSTERS_COAT_BASIC" , 

  0000b	8d 45 f3	 lea	 eax, DWORD PTR $T101845[ebp]
  0000e	50		 push	 eax
  0000f	68 00 00 00 00	 push	 OFFSET FLAT:??_C@_0BD@CMEAPGLN@OUSTERS_COAT_BASIC?$AA@
  00014	b9 00 00 00 00	 mov	 ecx, OFFSET FLAT:_OustersCoatType2String
  00019	e8 00 00 00 00	 call	 ??0?$basic_string@DV?$char_traits@D@_STL@@V?$allocator@D@2@@_STL@@QAE@PBDABV?$allocator@D@1@@Z ; _STL::basic_string<char,_STL::char_traits<char>,_STL::allocator<char> >::basic_string<char,_STL::char_traits<char>,_STL::allocator<char> >
  0001e	83 65 fc 00	 and	 DWORD PTR __$EHRec$[ebp+8], 0

; 158  : 	"OUSTERS_COAT1" , 

  00022	8d 45 f3	 lea	 eax, DWORD PTR $T101846[ebp]
  00025	50		 push	 eax
  00026	68 00 00 00 00	 push	 OFFSET FLAT:??_C@_0O@FJGCKGLE@OUSTERS_COAT1?$AA@
  0002b	b9 0c 00 00 00	 mov	 ecx, OFFSET FLAT:_OustersCoatType2String+12
  00030	e8 00 00 00 00	 call	 ??0?$basic_string@DV?$char_traits@D@_STL@@V?$allocator@D@2@@_STL@@QAE@PBDABV?$allocator@D@1@@Z ; _STL::basic_string<char,_STL::char_traits<char>,_STL::allocator<char> >::basic_string<char,_STL::char_traits<char>,_STL::allocator<char> >

; 159  : 	"OUSTERS_COAT2" ,

  00035	8d 45 f3	 lea	 eax, DWORD PTR $T101847[ebp]
  00038	50		 push	 eax
  00039	68 00 00 00 00	 push	 OFFSET FLAT:??_C@_0O@HCEPPFHH@OUSTERS_COAT2?$AA@
  0003e	b9 18 00 00 00	 mov	 ecx, OFFSET FLAT:_OustersCoatType2String+24
  00043	c6 45 fc 01	 mov	 BYTE PTR __$EHRec$[ebp+8], 1
  00047	e8 00 00 00 00	 call	 ??0?$basic_string@DV?$char_traits@D@_STL@@V?$allocator@D@2@@_STL@@QAE@PBDABV?$allocator@D@1@@Z ; _STL::basic_string<char,_STL::char_traits<char>,_STL::allocator<char> >::basic_string<char,_STL::char_traits<char>,_STL::allocator<char> >

; 160  : 	"OUSTERS_COAT3" ,

  0004c	8d 45 f3	 lea	 eax, DWORD PTR $T101848[ebp]
  0004f	50		 push	 eax
  00050	68 00 00 00 00	 push	 OFFSET FLAT:??_C@_0O@GLFEMEDG@OUSTERS_COAT3?$AA@
  00055	b9 24 00 00 00	 mov	 ecx, OFFSET FLAT:_OustersCoatType2String+36
  0005a	c6 45 fc 02	 mov	 BYTE PTR __$EHRec$[ebp+8], 2
  0005e	e8 00 00 00 00	 call	 ??0?$basic_string@DV?$char_traits@D@_STL@@V?$allocator@D@2@@_STL@@QAE@PBDABV?$allocator@D@1@@Z ; _STL::basic_string<char,_STL::char_traits<char>,_STL::allocator<char> >::basic_string<char,_STL::char_traits<char>,_STL::allocator<char> >

; 161  : 	"OUSTERS_COAT4" ,

  00063	8d 45 f3	 lea	 eax, DWORD PTR $T101849[ebp]
  00066	50		 push	 eax
  00067	68 00 00 00 00	 push	 OFFSET FLAT:??_C@_0O@CEBFFCPB@OUSTERS_COAT4?$AA@
  0006c	b9 30 00 00 00	 mov	 ecx, OFFSET FLAT:_OustersCoatType2String+48
  00071	c6 45 fc 03	 mov	 BYTE PTR __$EHRec$[ebp+8], 3
  00075	e8 00 00 00 00	 call	 ??0?$basic_string@DV?$char_traits@D@_STL@@V?$allocator@D@2@@_STL@@QAE@PBDABV?$allocator@D@1@@Z ; _STL::basic_string<char,_STL::char_traits<char>,_STL::allocator<char> >::basic_string<char,_STL::char_traits<char>,_STL::allocator<char> >

; 162  : 	"OUSTERS_COAT5" ,	//by viva 171

  0007a	8d 45 f3	 lea	 eax, DWORD PTR $T101850[ebp]
  0007d	50		 push	 eax
  0007e	68 00 00 00 00	 push	 OFFSET FLAT:??_C@_0O@DNAOGDLA@OUSTERS_COAT5?$AA@
  00083	b9 3c 00 00 00	 mov	 ecx, OFFSET FLAT:_OustersCoatType2String+60
  00088	c6 45 fc 04	 mov	 BYTE PTR __$EHRec$[ebp+8], 4
  0008c	e8 00 00 00 00	 call	 ??0?$basic_string@DV?$char_traits@D@_STL@@V?$allocator@D@2@@_STL@@QAE@PBDABV?$allocator@D@1@@Z ; _STL::basic_string<char,_STL::char_traits<char>,_STL::allocator<char> >::basic_string<char,_STL::char_traits<char>,_STL::allocator<char> >

; 163  : 	"OUSTERS_COAT6" ,	//181

  00091	8d 45 f3	 lea	 eax, DWORD PTR $T101851[ebp]
  00094	50		 push	 eax
  00095	68 00 00 00 00	 push	 OFFSET FLAT:??_C@_0O@BGCDDAHD@OUSTERS_COAT6?$AA@
  0009a	b9 48 00 00 00	 mov	 ecx, OFFSET FLAT:_OustersCoatType2String+72
  0009f	c6 45 fc 05	 mov	 BYTE PTR __$EHRec$[ebp+8], 5
  000a3	e8 00 00 00 00	 call	 ??0?$basic_string@DV?$char_traits@D@_STL@@V?$allocator@D@2@@_STL@@QAE@PBDABV?$allocator@D@1@@Z ; _STL::basic_string<char,_STL::char_traits<char>,_STL::allocator<char> >::basic_string<char,_STL::char_traits<char>,_STL::allocator<char> >

; 164  : 	"OUSTERS_COAT7" ,	// by rallser201

  000a8	8d 45 f3	 lea	 eax, DWORD PTR $T101852[ebp]
  000ab	50		 push	 eax
  000ac	68 00 00 00 00	 push	 OFFSET FLAT:??_C@_0O@PDIABDC@OUSTERS_COAT7?$AA@
  000b1	b9 54 00 00 00	 mov	 ecx, OFFSET FLAT:_OustersCoatType2String+84
  000b6	c6 45 fc 06	 mov	 BYTE PTR __$EHRec$[ebp+8], 6
  000ba	e8 00 00 00 00	 call	 ??0?$basic_string@DV?$char_traits@D@_STL@@V?$allocator@D@2@@_STL@@QAE@PBDABV?$allocator@D@1@@Z ; _STL::basic_string<char,_STL::char_traits<char>,_STL::allocator<char> >::basic_string<char,_STL::char_traits<char>,_STL::allocator<char> >

; 165  : 	"OUSTERS_COAT8" ,	// by rallser231

  000bf	8d 45 f3	 lea	 eax, DWORD PTR $T101853[ebp]
  000c2	50		 push	 eax
  000c3	68 00 00 00 00	 push	 OFFSET FLAT:??_C@_0O@IIKABNPN@OUSTERS_COAT8?$AA@
  000c8	b9 60 00 00 00	 mov	 ecx, OFFSET FLAT:_OustersCoatType2String+96
  000cd	c6 45 fc 07	 mov	 BYTE PTR __$EHRec$[ebp+8], 7
  000d1	e8 00 00 00 00	 call	 ??0?$basic_string@DV?$char_traits@D@_STL@@V?$allocator@D@2@@_STL@@QAE@PBDABV?$allocator@D@1@@Z ; _STL::basic_string<char,_STL::char_traits<char>,_STL::allocator<char> >::basic_string<char,_STL::char_traits<char>,_STL::allocator<char> >

; 166  : 	"OUSTERS_COAT_MAX"
; 167  : };

  000d6	8d 45 f3	 lea	 eax, DWORD PTR $T101854[ebp]
  000d9	50		 push	 eax
  000da	68 00 00 00 00	 push	 OFFSET FLAT:??_C@_0BB@NFPADEOJ@OUSTERS_COAT_MAX?$AA@
  000df	b9 6c 00 00 00	 mov	 ecx, OFFSET FLAT:_OustersCoatType2String+108
  000e4	c6 45 fc 08	 mov	 BYTE PTR __$EHRec$[ebp+8], 8
  000e8	e8 00 00 00 00	 call	 ??0?$basic_string@DV?$char_traits@D@_STL@@V?$allocator@D@2@@_STL@@QAE@PBDABV?$allocator@D@1@@Z ; _STL::basic_string<char,_STL::char_traits<char>,_STL::allocator<char> >::basic_string<char,_STL::char_traits<char>,_STL::allocator<char> >
  000ed	68 00 00 00 00	 push	 OFFSET FLAT:_$E41
  000f2	e8 00 00 00 00	 call	 _atexit
  000f7	59		 pop	 ecx
  000f8	8b 4d f4	 mov	 ecx, DWORD PTR __$EHRec$[ebp]
  000fb	64 89 0d 00 00
	00 00		 mov	 DWORD PTR fs:__except_list, ecx
  00102	c9		 leave
  00103	c3		 ret	 0
text$yc	ENDS
;	COMDAT text$x
text$x	SEGMENT
$L101855:
  00000	b9 00 00 00 00	 mov	 ecx, OFFSET FLAT:_OustersCoatType2String
  00005	e9 00 00 00 00	 jmp	 ??1?$basic_string@DV?$char_traits@D@_STL@@V?$allocator@D@2@@_STL@@QAE@XZ ; _STL::basic_string<char,_STL::char_traits<char>,_STL::allocator<char> >::~basic_string<char,_STL::char_traits<char>,_STL::allocator<char> >
$L101856:
  0000a	b9 0c 00 00 00	 mov	 ecx, OFFSET FLAT:_OustersCoatType2String+12
  0000f	e9 00 00 00 00	 jmp	 ??1?$basic_string@DV?$char_traits@D@_STL@@V?$allocator@D@2@@_STL@@QAE@XZ ; _STL::basic_string<char,_STL::char_traits<char>,_STL::allocator<char> >::~basic_string<char,_STL::char_traits<char>,_STL::allocator<char> >
$L101857:
  00014	b9 18 00 00 00	 mov	 ecx, OFFSET FLAT:_OustersCoatType2String+24
  00019	e9 00 00 00 00	 jmp	 ??1?$basic_string@DV?$char_traits@D@_STL@@V?$allocator@D@2@@_STL@@QAE@XZ ; _STL::basic_string<char,_STL::char_traits<char>,_STL::allocator<char> >::~basic_string<char,_STL::char_traits<char>,_STL::allocator<char> >
$L101858:
  0001e	b9 24 00 00 00	 mov	 ecx, OFFSET FLAT:_OustersCoatType2String+36
  00023	e9 00 00 00 00	 jmp	 ??1?$basic_string@DV?$char_traits@D@_STL@@V?$allocator@D@2@@_STL@@QAE@XZ ; _STL::basic_string<char,_STL::char_traits<char>,_STL::allocator<char> >::~basic_string<char,_STL::char_traits<char>,_STL::allocator<char> >
$L101859:
  00028	b9 30 00 00 00	 mov	 ecx, OFFSET FLAT:_OustersCoatType2String+48
  0002d	e9 00 00 00 00	 jmp	 ??1?$basic_string@DV?$char_traits@D@_STL@@V?$allocator@D@2@@_STL@@QAE@XZ ; _STL::basic_string<char,_STL::char_traits<char>,_STL::allocator<char> >::~basic_string<char,_STL::char_traits<char>,_STL::allocator<char> >
$L101860:
  00032	b9 3c 00 00 00	 mov	 ecx, OFFSET FLAT:_OustersCoatType2String+60
  00037	e9 00 00 00 00	 jmp	 ??1?$basic_string@DV?$char_traits@D@_STL@@V?$allocator@D@2@@_STL@@QAE@XZ ; _STL::basic_string<char,_STL::char_traits<char>,_STL::allocator<char> >::~basic_string<char,_STL::char_traits<char>,_STL::allocator<char> >
$L101861:
  0003c	b9 48 00 00 00	 mov	 ecx, OFFSET FLAT:_OustersCoatType2String+72
