; Listing generated by Microsoft (R) Optimizing Compiler Version 13.10.3077 

	TITLE	\darkeden\Designed_Common\Project\Client\CMessageArray.cpp
	.386P
include listing.inc
if @Version gt 510
.model FLAT
else
_TEXT	SEGMENT PARA USE32 PUBLIC 'CODE'
_TEXT	ENDS
_DATA	SEGMENT DWORD USE32 PUBLIC 'DATA'
_DATA	ENDS
CONST	SEGMENT DWORD USE32 PUBLIC 'CONST'
CONST	ENDS
_BSS	SEGMENT DWORD USE32 PUBLIC 'BSS'
_BSS	ENDS
$$SYMBOLS	SEGMENT BYTE USE32 'DEBSYM'
$$SYMBOLS	ENDS
$$TYPES	SEGMENT BYTE USE32 'DEBTYP'
$$TYPES	ENDS
_TLS	SEGMENT DWORD USE32 PUBLIC 'TLS'
_TLS	ENDS
;	COMDAT ??_C@_0O@JKENFCBN@MinTrace?52003?$AA@
CONST	SEGMENT DWORD USE32 PUBLIC 'CONST'
CONST	ENDS
;	COMDAT ??_C@_0BE@MNEJIGLM@__MinTrace?5Window__?$AA@
CONST	SEGMENT DWORD USE32 PUBLIC 'CONST'
CONST	ENDS
;	COMDAT ??_C@_06KLPNNMEP@?$CF8d?0?$CFs?$AA@
CONST	SEGMENT DWORD USE32 PUBLIC 'CONST'
CONST	ENDS
;	COMDAT ??_C@_0BN@ODLNCKCA@Data?2?2Info?2?2ClientConfig?4inf?$AA@
CONST	SEGMENT DWORD USE32 PUBLIC 'CONST'
CONST	ENDS
;	COMDAT ??_C@_0BM@DFPLPGPC@Data?2?2Info?2?2GuildMapper?4inf?$AA@
CONST	SEGMENT DWORD USE32 PUBLIC 'CONST'
CONST	ENDS
;	COMDAT ??_C@_0BN@LHODHNBK@Data?2?2Info?2?2GuildVersion?4inf?$AA@
CONST	SEGMENT DWORD USE32 PUBLIC 'CONST'
CONST	ENDS
;	COMDAT ??_C@_0BH@DDPLNCOL@Data?2?2Info?2?2Player?4inf?$AA@
CONST	SEGMENT DWORD USE32 PUBLIC 'CONST'
CONST	ENDS
;	COMDAT ??_C@_0BL@ILLNAPHB@Data?2?2Info?2?2Resolution?4inf?$AA@
CONST	SEGMENT DWORD USE32 PUBLIC 'CONST'
CONST	ENDS
;	COMDAT ??_C@_0CA@HEIGFDLG@Data?2?2Info?2?2SelectedChannel?4inf?$AA@
CONST	SEGMENT DWORD USE32 PUBLIC 'CONST'
CONST	ENDS
;	COMDAT ??_C@_00CNPNBAHC@?$AA@
CONST	SEGMENT DWORD USE32 PUBLIC 'CONST'
CONST	ENDS
;	COMDAT ??_C@_07BGPHCEH@?$DMScore?$DO?$AA@
CONST	SEGMENT DWORD USE32 PUBLIC 'CONST'
CONST	ENDS
;	COMDAT ??_C@_05CFKAFMNN@Clean?$AA@
CONST	SEGMENT DWORD USE32 PUBLIC 'CONST'
CONST	ENDS
;	COMDAT ??_C@_09LGFFKJAA@?$EAShowBord?$AA@
CONST	SEGMENT DWORD USE32 PUBLIC 'CONST'
CONST	ENDS
;	COMDAT ??_C@_09BIHDICFI@?$EAHideBord?$AA@
CONST	SEGMENT DWORD USE32 PUBLIC 'CONST'
CONST	ENDS
;	COMDAT ??_C@_08POGECDCH@?$DMNO_3_V?$DO?$AA@
CONST	SEGMENT DWORD USE32 PUBLIC 'CONST'
CONST	ENDS
;	COMDAT ??_C@_08MDAEAKJH@?$DMNO_2_V?$DO?$AA@
CONST	SEGMENT DWORD USE32 PUBLIC 'CONST'
CONST	ENDS
;	COMDAT ??_C@_08IEKEHAEH@?$DMNO_1_V?$DO?$AA@
CONST	SEGMENT DWORD USE32 PUBLIC 'CONST'
CONST	ENDS
;	COMDAT ??_C@_08PIKPOBMM@?$DMNO_3_S?$DO?$AA@
CONST	SEGMENT DWORD USE32 PUBLIC 'CONST'
CONST	ENDS
;	COMDAT ??_C@_08MFMPMIHM@?$DMNO_2_S?$DO?$AA@
CONST	SEGMENT DWORD USE32 PUBLIC 'CONST'
CONST	ENDS
;	COMDAT ??_C@_08ICGPLCKM@?$DMNO_1_S?$DO?$AA@
CONST	SEGMENT DWORD USE32 PUBLIC 'CONST'
CONST	ENDS
;	COMDAT ??_C@_08ONJDLLNI@?$DMNO_3_O?$DO?$AA@
CONST	SEGMENT DWORD USE32 PUBLIC 'CONST'
CONST	ENDS
;	COMDAT ??_C@_08NAPDJCGI@?$DMNO_2_O?$DO?$AA@
CONST	SEGMENT DWORD USE32 PUBLIC 'CONST'
CONST	ENDS
;	COMDAT ??_C@_08JHFDOILI@?$DMNO_1_O?$DO?$AA@
CONST	SEGMENT DWORD USE32 PUBLIC 'CONST'
CONST	ENDS
;	COMDAT ??_C@_0BB@DDHHBAHM@?E?E?P?P?$LA?q?$CI?V?V?W?e?G?$LA?H?$PN?$CJ?$AA@
CONST	SEGMENT DWORD USE32 PUBLIC 'CONST'
CONST	ENDS
;	COMDAT ??_C@_0BJ@MHCDNMAM@?$LJ?m?5?5?5?5?5?5?5?5?5?H?K?5?5?5?5?5?5?5?5?5?D?$KH?$AA@
CONST	SEGMENT DWORD USE32 PUBLIC 'CONST'
CONST	ENDS
;	COMDAT ??_C@_01EEMJAFIK@?6?$AA@
CONST	SEGMENT DWORD USE32 PUBLIC 'CONST'
CONST	ENDS
;	COMDAT ??_C@_0N@GOPDCEEB@basic_string?$AA@
CONST	SEGMENT DWORD USE32 PUBLIC 'CONST'
CONST	ENDS
rdata$r	SEGMENT DWORD USE32 PUBLIC 'CONST'
rdata$r	ENDS
text$yc	SEGMENT PARA USE32 PUBLIC 'CODE'
text$yc	ENDS
CRT$XCA	SEGMENT DWORD USE32 PUBLIC 'DATA'
CRT$XCA	ENDS
CRT$XCU	SEGMENT DWORD USE32 PUBLIC 'DATA'
CRT$XCU	ENDS
CRT$XCL	SEGMENT DWORD USE32 PUBLIC 'DATA'
CRT$XCL	ENDS
CRT$XCC	SEGMENT DWORD USE32 PUBLIC 'DATA'
CRT$XCC	ENDS
CRT$XCZ	SEGMENT DWORD USE32 PUBLIC 'DATA'
CRT$XCZ	ENDS
text$yd	SEGMENT PARA USE32 PUBLIC 'CODE'
text$yd	ENDS
;	COMDAT ?SetDelay@CTimeCtrl@@QAEXK@Z
_TEXT	SEGMENT PARA USE32 PUBLIC 'CODE'
_TEXT	ENDS
;	COMDAT ?Clear@CTimeCtrl@@QAEXXZ
_TEXT	SEGMENT PARA USE32 PUBLIC 'CODE'
_TEXT	ENDS
;	COMDAT ?Begin@CTimeCtrl@@QAEXXZ
_TEXT	SEGMENT PARA USE32 PUBLIC 'CODE'
_TEXT	ENDS
;	COMDAT ?IsTimeAllow@CTimeCtrl@@QAE_NXZ
_TEXT	SEGMENT PARA USE32 PUBLIC 'CODE'
_TEXT	ENDS
;	COMDAT ??0CTimeCtrl@@QAE@XZ
_TEXT	SEGMENT PARA USE32 PUBLIC 'CODE'
_TEXT	ENDS
;	COMDAT ??1CTimeCtrl@@UAE@XZ
_TEXT	SEGMENT PARA USE32 PUBLIC 'CODE'
_TEXT	ENDS
;	COMDAT ??_GCTimeCtrl@@UAEPAXI@Z
_TEXT	SEGMENT PARA USE32 PUBLIC 'CODE'
_TEXT	ENDS
;	COMDAT ?_MinTraceA@@YAXPBD@Z
_TEXT	SEGMENT PARA USE32 PUBLIC 'CODE'
_TEXT	ENDS
;	COMDAT ?_MinTraceErrA@@YAXPBD@Z
_TEXT	SEGMENT PARA USE32 PUBLIC 'CODE'
_TEXT	ENDS
;	COMDAT ?_MinTraceWarA@@YAXPBD@Z
_TEXT	SEGMENT PARA USE32 PUBLIC 'CODE'
_TEXT	ENDS
;	COMDAT ?_ClMinTraceA@@YAXKPBD@Z
_TEXT	SEGMENT PARA USE32 PUBLIC 'CODE'
_TEXT	ENDS
;	COMDAT ?_CmdMinTraceA@@YAXHPBD@Z
_TEXT	SEGMENT PARA USE32 PUBLIC 'CODE'
_TEXT	ENDS
;	COMDAT ?start@CNFS@@QAE_NPADH@Z
_TEXT	SEGMENT PARA USE32 PUBLIC 'CODE'
_TEXT	ENDS
;	COMDAT ?end@CNFS@@QAEXXZ
_TEXT	SEGMENT PARA USE32 PUBLIC 'CODE'
_TEXT	ENDS
;	COMDAT ?Init@VirtualFileHeader@@QAEXXZ
_TEXT	SEGMENT PARA USE32 PUBLIC 'CODE'
_TEXT	ENDS
;	COMDAT ??1IFileIO@@UAE@XZ
_TEXT	SEGMENT PARA USE32 PUBLIC 'CODE'
_TEXT	ENDS
;	COMDAT ??_GIFileIO@@UAEPAXI@Z
_TEXT	SEGMENT PARA USE32 PUBLIC 'CODE'
_TEXT	ENDS
;	COMDAT ??0iovfs_base@@QAE@XZ
_TEXT	SEGMENT PARA USE32 PUBLIC 'CODE'
_TEXT	ENDS
;	COMDAT ??_Giovfs_base@@UAEPAXI@Z
_TEXT	SEGMENT PARA USE32 PUBLIC 'CODE'
_TEXT	ENDS
;	COMDAT ??1iovfs_base@@UAE@XZ
_TEXT	SEGMENT PARA USE32 PUBLIC 'CODE'
_TEXT	ENDS
;	COMDAT ?Init@iovfs_base@@QAEXXZ
_TEXT	SEGMENT PARA USE32 PUBLIC 'CODE'
_TEXT	ENDS
;	COMDAT ??_Givfstream@@UAEPAXI@Z
_TEXT	SEGMENT PARA USE32 PUBLIC 'CODE'
_TEXT	ENDS
;	COMDAT ??1ivfstream@@UAE@XZ
_TEXT	SEGMENT PARA USE32 PUBLIC 'CODE'
_TEXT	ENDS
;	COMDAT ?open@ivfstream@@UAEXPBDH@Z
_TEXT	SEGMENT PARA USE32 PUBLIC 'CODE'
_TEXT	ENDS
;	COMDAT ??_Govfstream@@UAEPAXI@Z
_TEXT	SEGMENT PARA USE32 PUBLIC 'CODE'
_TEXT	ENDS
;	COMDAT ??1ovfstream@@UAE@XZ
_TEXT	SEGMENT PARA USE32 PUBLIC 'CODE'
_TEXT	ENDS
;	COMDAT ?open@ovfstream@@UAEXPBDH@Z
_TEXT	SEGMENT PARA USE32 PUBLIC 'CODE'
_TEXT	ENDS
;	COMDAT ?Is565@CDirectDraw@@SA_NXZ
_TEXT	SEGMENT PARA USE32 PUBLIC 'CODE'
_TEXT	ENDS
;	COMDAT ?Red@CDirectDraw@@SAEABG@Z
_TEXT	SEGMENT PARA USE32 PUBLIC 'CODE'
_TEXT	ENDS
;	COMDAT ?Green@CDirectDraw@@SAEABG@Z
_TEXT	SEGMENT PARA USE32 PUBLIC 'CODE'
_TEXT	ENDS
;	COMDAT ?Blue@CDirectDraw@@SAEABG@Z
_TEXT	SEGMENT PARA USE32 PUBLIC 'CODE'
_TEXT	ENDS
;	COMDAT ?SetClipLeftTop@CDirectDrawSurface@@QAEXHH@Z
_TEXT	SEGMENT PARA USE32 PUBLIC 'CODE'
_TEXT	ENDS
;	COMDAT ?SetClipRightBottom@CDirectDrawSurface@@QAEXHH@Z
_TEXT	SEGMENT PARA USE32 PUBLIC 'CODE'
_TEXT	ENDS
;	COMDAT _acosl
_TEXT	SEGMENT PARA USE32 PUBLIC 'CODE'
_TEXT	ENDS
;	COMDAT _asinl
_TEXT	SEGMENT PARA USE32 PUBLIC 'CODE'
_TEXT	ENDS
;	COMDAT _atanl
_TEXT	SEGMENT PARA USE32 PUBLIC 'CODE'
_TEXT	ENDS
;	COMDAT _atan2l
_TEXT	SEGMENT PARA USE32 PUBLIC 'CODE'
_TEXT	ENDS
;	COMDAT _ceill
_TEXT	SEGMENT PARA USE32 PUBLIC 'CODE'
_TEXT	ENDS
;	COMDAT _cosl
_TEXT	SEGMENT PARA USE32 PUBLIC 'CODE'
_TEXT	ENDS
;	COMDAT _coshl
_TEXT	SEGMENT PARA USE32 PUBLIC 'CODE'
_TEXT	ENDS
;	COMDAT _expl
_TEXT	SEGMENT PARA USE32 PUBLIC 'CODE'
_TEXT	ENDS
;	COMDAT _fabsl
_TEXT	SEGMENT PARA USE32 PUBLIC 'CODE'
_TEXT	ENDS
;	COMDAT _floorl
_TEXT	SEGMENT PARA USE32 PUBLIC 'CODE'
_TEXT	ENDS
;	COMDAT _fmodl
_TEXT	SEGMENT PARA USE32 PUBLIC 'CODE'
_TEXT	ENDS
;	COMDAT _frexpl
_TEXT	SEGMENT PARA USE32 PUBLIC 'CODE'
_TEXT	ENDS
;	COMDAT _ldexpl
_TEXT	SEGMENT PARA USE32 PUBLIC 'CODE'
_TEXT	ENDS
;	COMDAT _logl
_TEXT	SEGMENT PARA USE32 PUBLIC 'CODE'
_TEXT	ENDS
;	COMDAT _log10l
_TEXT	SEGMENT PARA USE32 PUBLIC 'CODE'
_TEXT	ENDS
;	COMDAT _modfl
_TEXT	SEGMENT PARA USE32 PUBLIC 'CODE'
_TEXT	ENDS
;	COMDAT _powl
_TEXT	SEGMENT PARA USE32 PUBLIC 'CODE'
_TEXT	ENDS
;	COMDAT _sinl
_TEXT	SEGMENT PARA USE32 PUBLIC 'CODE'
_TEXT	ENDS
;	COMDAT _sinhl
_TEXT	SEGMENT PARA USE32 PUBLIC 'CODE'
_TEXT	ENDS
;	COMDAT _sqrtl
_TEXT	SEGMENT PARA USE32 PUBLIC 'CODE'
_TEXT	ENDS
;	COMDAT _tanl
_TEXT	SEGMENT PARA USE32 PUBLIC 'CODE'
_TEXT	ENDS
;	COMDAT _tanhl
_TEXT	SEGMENT PARA USE32 PUBLIC 'CODE'
_TEXT	ENDS
;	COMDAT _frexpf
_TEXT	SEGMENT PARA USE32 PUBLIC 'CODE'
_TEXT	ENDS
;	COMDAT _ldexpf
_TEXT	SEGMENT PARA USE32 PUBLIC 'CODE'
_TEXT	ENDS
;	COMDAT _acosf
_TEXT	SEGMENT PARA USE32 PUBLIC 'CODE'
_TEXT	ENDS
;	COMDAT _asinf
_TEXT	SEGMENT PARA USE32 PUBLIC 'CODE'
_TEXT	ENDS
;	COMDAT _atanf
_TEXT	SEGMENT PARA USE32 PUBLIC 'CODE'
_TEXT	ENDS
;	COMDAT _atan2f
_TEXT	SEGMENT PARA USE32 PUBLIC 'CODE'
_TEXT	ENDS
;	COMDAT _ceilf
_TEXT	SEGMENT PARA USE32 PUBLIC 'CODE'
_TEXT	ENDS
;	COMDAT _cosf
_TEXT	SEGMENT PARA USE32 PUBLIC 'CODE'
_TEXT	ENDS
;	COMDAT _coshf
_TEXT	SEGMENT PARA USE32 PUBLIC 'CODE'
_TEXT	ENDS
;	COMDAT _expf
_TEXT	SEGMENT PARA USE32 PUBLIC 'CODE'
_TEXT	ENDS
;	COMDAT _fabsf
_TEXT	SEGMENT PARA USE32 PUBLIC 'CODE'
_TEXT	ENDS
;	COMDAT _floorf
_TEXT	SEGMENT PARA USE32 PUBLIC 'CODE'
_TEXT	ENDS
;	COMDAT _fmodf
_TEXT	SEGMENT PARA USE32 PUBLIC 'CODE'
_TEXT	ENDS
;	COMDAT _logf
_TEXT	SEGMENT PARA USE32 PUBLIC 'CODE'
_TEXT	ENDS
;	COMDAT _log10f
_TEXT	SEGMENT PARA USE32 PUBLIC 'CODE'
_TEXT	ENDS
;	COMDAT _modff
_TEXT	SEGMENT PARA USE32 PUBLIC 'CODE'
_TEXT	ENDS
;	COMDAT _powf
_TEXT	SEGMENT PARA USE32 PUBLIC 'CODE'
_TEXT	ENDS
;	COMDAT _sinf
_TEXT	SEGMENT PARA USE32 PUBLIC 'CODE'
_TEXT	ENDS
;	COMDAT _sinhf
_TEXT	SEGMENT PARA USE32 PUBLIC 'CODE'
_TEXT	ENDS
;	COMDAT _sqrtf
_TEXT	SEGMENT PARA USE32 PUBLIC 'CODE'
_TEXT	ENDS
;	COMDAT _tanf
_TEXT	SEGMENT PARA USE32 PUBLIC 'CODE'
_TEXT	ENDS
;	COMDAT _tanhf
_TEXT	SEGMENT PARA USE32 PUBLIC 'CODE'
_TEXT	ENDS
;	COMDAT ??1ITypePackBase@@UAE@XZ
_TEXT	SEGMENT PARA USE32 PUBLIC 'CODE'
_TEXT	ENDS
;	COMDAT ??_GITypePackBase@@UAEPAXI@Z
_TEXT	SEGMENT PARA USE32 PUBLIC 'CODE'
_TEXT	ENDS
;	COMDAT ?IsInit@CSpritePalBase@@QBE_NXZ
_TEXT	SEGMENT PARA USE32 PUBLIC 'CODE'
_TEXT	ENDS
;	COMDAT ?GetMessageSize@C_VS_UI_RESULT_RECEIVER@@QBEHXZ
_TEXT	SEGMENT PARA USE32 PUBLIC 'CODE'
_TEXT	ENDS
;	COMDAT ?Lock@ACriticalSection@@QAEXXZ
_TEXT	SEGMENT PARA USE32 PUBLIC 'CODE'
_TEXT	ENDS
;	COMDAT ?Unlock@ACriticalSection@@QAEXXZ
_TEXT	SEGMENT PARA USE32 PUBLIC 'CODE'
_TEXT	ENDS
;	COMDAT ??0CInfomationBord@@QAE@XZ
_TEXT	SEGMENT PARA USE32 PUBLIC 'CODE'
_TEXT	ENDS
;	COMDAT ??1CInfomationBord@@QAE@XZ
_TEXT	SEGMENT PARA USE32 PUBLIC 'CODE'
_TEXT	ENDS
;	COMDAT ?Parse@CInfomationBord@@QAEXPBD@Z
_TEXT	SEGMENT PARA USE32 PUBLIC 'CODE'
_TEXT	ENDS
;	COMDAT ?SetTextPos@CInfomationBord@@QAE?AUtagRECT@@HH@Z
_TEXT	SEGMENT PARA USE32 PUBLIC 'CODE'
_TEXT	ENDS
;	COMDAT ?DrawTextA@@YAXHHPBDPAUPrintInfo@@@Z
_TEXT	SEGMENT PARA USE32 PUBLIC 'CODE'
_TEXT	ENDS
;	COMDAT ?ShowBord@CInfomationBord@@QAEXPAUPrintInfo@@@Z
_TEXT	SEGMENT PARA USE32 PUBLIC 'CODE'
_TEXT	ENDS
;	COMDAT ??0CMessageArray@@QAE@XZ
_TEXT	SEGMENT PARA USE32 PUBLIC 'CODE'
_TEXT	ENDS
;	COMDAT ??1CMessageArray@@QAE@XZ
_TEXT	SEGMENT PARA USE32 PUBLIC 'CODE'
_TEXT	ENDS
;	COMDAT ?Init@CMessageArray@@QAEXHHPBD@Z
_TEXT	SEGMENT PARA USE32 PUBLIC 'CODE'
_TEXT	ENDS
;	COMDAT ?Release@CMessageArray@@QAEXXZ
_TEXT	SEGMENT PARA USE32 PUBLIC 'CODE'
_TEXT	ENDS
;	COMDAT ?Add@CMessageArray@@QAEXPBD@Z
_TEXT	SEGMENT PARA USE32 PUBLIC 'CODE'
_TEXT	ENDS
;	COMDAT ?AddToFile@CMessageArray@@QAEXPBD@Z
_TEXT	SEGMENT PARA USE32 PUBLIC 'CODE'
_TEXT	ENDS
;	COMDAT ?AddFormatVL@CMessageArray@@QAEXPBD@Z
_TEXT	SEGMENT PARA USE32 PUBLIC 'CODE'
_TEXT	ENDS
;	COMDAT ?AddFormat@CMessageArray@@QAAXPBDZZ
_TEXT	SEGMENT PARA USE32 PUBLIC 'CODE'
_TEXT	ENDS
;	COMDAT ?Next@CMessageArray@@QAEXXZ
_TEXT	SEGMENT PARA USE32 PUBLIC 'CODE'
_TEXT	ENDS
;	COMDAT ??ACMessageArray@@QAEPBDH@Z
_TEXT	SEGMENT PARA USE32 PUBLIC 'CODE'
_TEXT	ENDS
;	COMDAT ?BeginUpdateTimer@CMessageArray@@QAEXH@Z
_TEXT	SEGMENT PARA USE32 PUBLIC 'CODE'
_TEXT	ENDS
;	COMDAT ?Update@CMessageArray@@QAEXXZ
_TEXT	SEGMENT PARA USE32 PUBLIC 'CODE'
_TEXT	ENDS
;	COMDAT ?Clear@CMessageArray@@QAEXXZ
_TEXT	SEGMENT PARA USE32 PUBLIC 'CODE'
_TEXT	ENDS
;	COMDAT ?eq@?$__char_traits_base@DH@_STL@@SA_NABD0@Z
_TEXT	SEGMENT PARA USE32 PUBLIC 'CODE'
_TEXT	ENDS
;	COMDAT ?not_eof@?$__char_traits_base@DH@_STL@@SAHABH@Z
_TEXT	SEGMENT PARA USE32 PUBLIC 'CODE'
_TEXT	ENDS
;	COMDAT ?eq_int_type@?$__char_traits_base@DH@_STL@@SA_NABH0@Z
_TEXT	SEGMENT PARA USE32 PUBLIC 'CODE'
_TEXT	ENDS
;	COMDAT ?get_allocator@?$basic_string@DV?$char_traits@D@_STL@@V?$allocator@D@2@@_STL@@QBE?AV?$allocator@D@2@XZ
_TEXT	SEGMENT PARA USE32 PUBLIC 'CODE'
_TEXT	ENDS
;	COMDAT ??4?$basic_string@DV?$char_traits@D@_STL@@V?$allocator@D@2@@_STL@@QAEAAV01@PBD@Z
_TEXT	SEGMENT PARA USE32 PUBLIC 'CODE'
_TEXT	ENDS
;	COMDAT ?_M_terminate_string@?$basic_string@DV?$char_traits@D@_STL@@V?$allocator@D@2@@_STL@@AAEXXZ
_TEXT	SEGMENT PARA USE32 PUBLIC 'CODE'
_TEXT	ENDS
;	COMDAT ?c_str@?$basic_string@DV?$char_traits@D@_STL@@V?$allocator@D@2@@_STL@@QBEPBDXZ
_TEXT	SEGMENT PARA USE32 PUBLIC 'CODE'
_TEXT	ENDS
;	COMDAT ?find@?$basic_string@DV?$char_traits@D@_STL@@V?$allocator@D@2@@_STL@@QBEIPBDI@Z
_TEXT	SEGMENT PARA USE32 PUBLIC 'CODE'
_TEXT	ENDS
;	COMDAT ?substr@?$basic_string@DV?$char_traits@D@_STL@@V?$allocator@D@2@@_STL@@QBE?AV12@II@Z
_TEXT	SEGMENT PARA USE32 PUBLIC 'CODE'
_TEXT	ENDS
;	COMDAT ??0?$_String_base@DV?$allocator@D@_STL@@@_STL@@QAE@ABV?$allocator@D@1@@Z
_TEXT	SEGMENT PARA USE32 PUBLIC 'CODE'
_TEXT	ENDS
;	COMDAT ?allocate@?$allocator@D@_STL@@QAEPADIPBX@Z
_TEXT	SEGMENT PARA USE32 PUBLIC 'CODE'
_TEXT	ENDS
;	COMDAT ?size@?$basic_string@GV?$char_traits@G@_STL@@V?$allocator@G@2@@_STL@@QBEIXZ
_TEXT	SEGMENT PARA USE32 PUBLIC 'CODE'
_TEXT	ENDS
;	COMDAT ?c_str@?$basic_string@GV?$char_traits@G@_STL@@V?$allocator@G@2@@_STL@@QBEPBGXZ
_TEXT	SEGMENT PARA USE32 PUBLIC 'CODE'
_TEXT	ENDS
;	COMDAT ??0?$fpos@H@_STL@@QAE@J@Z
_TEXT	SEGMENT PARA USE32 PUBLIC 'CODE'
_TEXT	ENDS
;	COMDAT ??B?$fpos@H@_STL@@QBEJXZ
_TEXT	SEGMENT PARA USE32 PUBLIC 'CODE'
_TEXT	ENDS
;	COMDAT ?state@?$fpos@H@_STL@@QBEHXZ
_TEXT	SEGMENT PARA USE32 PUBLIC 'CODE'
_TEXT	ENDS
;	COMDAT ?is_open@?$basic_filebuf@DV?$char_traits@D@_STL@@@_STL@@QBE_NXZ
_TEXT	SEGMENT PARA USE32 PUBLIC 'CODE'
_TEXT	ENDS
;	COMDAT ?_M_seek_return@?$basic_filebuf@DV?$char_traits@D@_STL@@@_STL@@AAE?AV?$fpos@H@2@JH@Z
_TEXT	SEGMENT PARA USE32 PUBLIC 'CODE'
_TEXT	ENDS
;	COMDAT ??0?$_Filebuf_Tmp_Buf@D@_STL@@QAE@H@Z
_TEXT	SEGMENT PARA USE32 PUBLIC 'CODE'
_TEXT	ENDS
;	COMDAT ??1?$_Filebuf_Tmp_Buf@D@_STL@@QAE@XZ
_TEXT	SEGMENT PARA USE32 PUBLIC 'CODE'
_TEXT	ENDS
;	COMDAT ?size@?$list@PAVWindow@@V?$allocator@PAVWindow@@@_STL@@@_STL@@QBEIXZ
_TEXT	SEGMENT PARA USE32 PUBLIC 'CODE'
_TEXT	ENDS
;	COMDAT ?Size@?$SimpleDataList@PAUMESSAGE@@@@QBEHXZ
_TEXT	SEGMENT PARA USE32 PUBLIC 'CODE'
_TEXT	ENDS
;	COMDAT ?_M_terminate_string_aux@?$basic_string@DV?$char_traits@D@_STL@@V?$allocator@D@2@@_STL@@AAEXABU__true_type@2@@Z
_TEXT	SEGMENT PARA USE32 PUBLIC 'CODE'
_TEXT	ENDS
;	COMDAT ?size@?$basic_string@DV?$char_traits@D@_STL@@V?$allocator@D@2@@_STL@@QBEIXZ
_TEXT	SEGMENT PARA USE32 PUBLIC 'CODE'
_TEXT	ENDS
;	COMDAT ?assign@?$basic_string@DV?$char_traits@D@_STL@@V?$allocator@D@2@@_STL@@QAEAAV12@PBD0@Z
_TEXT	SEGMENT PARA USE32 PUBLIC 'CODE'
_TEXT	ENDS
;	COMDAT ??0?$allocator@D@_STL@@QAE@ABV01@@Z
_TEXT	SEGMENT PARA USE32 PUBLIC 'CODE'
_TEXT	ENDS
;	COMDAT ??0?$_STLP_alloc_proxy@PADDV?$allocator@D@_STL@@@_STL@@QAE@ABV?$allocator@D@1@PAD@Z
_TEXT	SEGMENT PARA USE32 PUBLIC 'CODE'
_TEXT	ENDS
;	COMDAT ?state@?$fpos@H@_STL@@QAEXH@Z
_TEXT	SEGMENT PARA USE32 PUBLIC 'CODE'
_TEXT	ENDS
;	COMDAT ?begin@?$list@PAVWindow@@V?$allocator@PAVWindow@@@_STL@@@_STL@@QBE?AU?$_List_iterator@PAVWindow@@U?$_Const_traits@PAVWindow@@@_STL@@@2@XZ
_TEXT	SEGMENT PARA USE32 PUBLIC 'CODE'
_TEXT	ENDS
;	COMDAT ?end@?$list@PAVWindow@@V?$allocator@PAVWindow@@@_STL@@@_STL@@QBE?AU?$_List_iterator@PAVWindow@@U?$_Const_traits@PAVWindow@@@_STL@@@2@XZ
_TEXT	SEGMENT PARA USE32 PUBLIC 'CODE'
_TEXT	ENDS
;	COMDAT ?copy@?$__char_traits_base@DH@_STL@@SAPADPADPBDI@Z
_TEXT	SEGMENT PARA USE32 PUBLIC 'CODE'
_TEXT	ENDS
;	COMDAT ?begin@?$basic_string@DV?$char_traits@D@_STL@@V?$allocator@D@2@@_STL@@QAEPADXZ
_TEXT	SEGMENT PARA USE32 PUBLIC 'CODE'
_TEXT	ENDS
;	COMDAT ?end@?$basic_string@DV?$char_traits@D@_STL@@V?$allocator@D@2@@_STL@@QAEPADXZ
_TEXT	SEGMENT PARA USE32 PUBLIC 'CODE'
_TEXT	ENDS
;	COMDAT ?erase@?$basic_string@DV?$char_traits@D@_STL@@V?$allocator@D@2@@_STL@@QAEPADPAD0@Z
_TEXT	SEGMENT PARA USE32 PUBLIC 'CODE'
_TEXT	ENDS
;	COMDAT ??0?$_List_iterator@PAVWindow@@U?$_Const_traits@PAVWindow@@@_STL@@@_STL@@QAE@PAU?$_List_node@PAVWindow@@@1@@Z
_TEXT	SEGMENT PARA USE32 PUBLIC 'CODE'
_TEXT	ENDS
;	COMDAT ?move@?$__char_traits_base@DH@_STL@@SAPADPADPBDI@Z
_TEXT	SEGMENT PARA USE32 PUBLIC 'CODE'
_TEXT	ENDS
;	COMDAT ?find@?$basic_string@DV?$char_traits@D@_STL@@V?$allocator@D@2@@_STL@@QBEIPBDII@Z
_TEXT	SEGMENT PARA USE32 PUBLIC 'CODE'
_TEXT	ENDS
;	COMDAT ?_M_throw_out_of_range@?$_String_base@DV?$allocator@D@_STL@@@_STL@@QBEXXZ
_TEXT	SEGMENT PARA USE32 PUBLIC 'CODE'
_TEXT	ENDS
;	COMDAT ??$_M_range_initialize@PBD@?$basic_string@DV?$char_traits@D@_STL@@V?$allocator@D@2@@_STL@@AAEXPBD0@Z
_TEXT	SEGMENT PARA USE32 PUBLIC 'CODE'
_TEXT	ENDS
;	COMDAT ??$_M_range_initialize@PAD@?$basic_string@DV?$char_traits@D@_STL@@V?$allocator@D@2@@_STL@@AAEXPAD0@Z
_TEXT	SEGMENT PARA USE32 PUBLIC 'CODE'
_TEXT	ENDS
;	COMDAT ?close@?$basic_filebuf@DV?$char_traits@D@_STL@@@_STL@@QAEPAV12@XZ
_TEXT	SEGMENT PARA USE32 PUBLIC 'CODE'
_TEXT	ENDS
;	COMDAT ?_M_exit_input_mode@?$basic_filebuf@DV?$char_traits@D@_STL@@@_STL@@AAEXXZ
_TEXT	SEGMENT PARA USE32 PUBLIC 'CODE'
_TEXT	ENDS
;	COMDAT ?_M_switch_to_output_mode@?$basic_filebuf@DV?$char_traits@D@_STL@@@_STL@@AAE_NXZ
_TEXT	SEGMENT PARA USE32 PUBLIC 'CODE'
_TEXT	ENDS
;	COMDAT ?_M_output_error@?$basic_filebuf@DV?$char_traits@D@_STL@@@_STL@@AAEHXZ
_TEXT	SEGMENT PARA USE32 PUBLIC 'CODE'
_TEXT	ENDS
;	COMDAT ?_M_allocate_buffers@?$basic_filebuf@DV?$char_traits@D@_STL@@@_STL@@AAE_NPADH@Z
_TEXT	SEGMENT PARA USE32 PUBLIC 'CODE'
_TEXT	ENDS
;	COMDAT ?_M_deallocate_buffers@?$basic_filebuf@DV?$char_traits@D@_STL@@@_STL@@AAEXXZ
_TEXT	SEGMENT PARA USE32 PUBLIC 'CODE'
_TEXT	ENDS
;	COMDAT ?_M_seek_init@?$basic_filebuf@DV?$char_traits@D@_STL@@@_STL@@AAE_N_N@Z
_TEXT	SEGMENT PARA USE32 PUBLIC 'CODE'
_TEXT	ENDS
;	COMDAT ?_M_setup_codecvt@?$basic_filebuf@DV?$char_traits@D@_STL@@@_STL@@AAEXABVlocale@2@@Z
_TEXT	SEGMENT PARA USE32 PUBLIC 'CODE'
_TEXT	ENDS
;	COMDAT ??$equal@PADPADU?$_Eq_traits@V?$char_traits@D@_STL@@@_STL@@@_STL@@YA_NPAD00U?$_Eq_traits@V?$char_traits@D@_STL@@@0@@Z
_TEXT	SEGMENT PARA USE32 PUBLIC 'CODE'
_TEXT	ENDS
;	COMDAT ??$_Destroy@V?$basic_string@DV?$char_traits@D@_STL@@V?$allocator@D@2@@_STL@@@_STL@@YAXPAV?$basic_string@DV?$char_traits@D@_STL@@V?$allocator@D@2@@0@@Z
_TEXT	SEGMENT PARA USE32 PUBLIC 'CODE'
_TEXT	ENDS
;	COMDAT ??$_M_assign_dispatch@PAD@?$basic_string@DV?$char_traits@D@_STL@@V?$allocator@D@2@@_STL@@AAEAAV01@PAD0ABU__false_type@1@@Z
_TEXT	SEGMENT PARA USE32 PUBLIC 'CODE'
_TEXT	ENDS
;	COMDAT ??1?$SimpleDataList@PAVPI_Processor@@@@UAE@XZ
_TEXT	SEGMENT PARA USE32 PUBLIC 'CODE'
_TEXT	ENDS
;	COMDAT ??1?$SimpleDataList@PAVLineEditorVisual@@@@UAE@XZ
_TEXT	SEGMENT PARA USE32 PUBLIC 'CODE'
_TEXT	ENDS
;	COMDAT ??1?$SimpleDataList@PAVWindow@@@@UAE@XZ
_TEXT	SEGMENT PARA USE32 PUBLIC 'CODE'
_TEXT	ENDS
;	COMDAT ??$_Pow_int@N@@YANNH@Z
_TEXT	SEGMENT PARA USE32 PUBLIC 'CODE'
_TEXT	ENDS
;	COMDAT ??$_Pow_int@H@@YAHHH@Z
_TEXT	SEGMENT PARA USE32 PUBLIC 'CODE'
_TEXT	ENDS
;	COMDAT ??$_Pow_int@M@@YAMMH@Z
_TEXT	SEGMENT PARA USE32 PUBLIC 'CODE'
_TEXT	ENDS
;	COMDAT ??$_Pow_int@O@@YAOOH@Z
_TEXT	SEGMENT PARA USE32 PUBLIC 'CODE'
_TEXT	ENDS
;	COMDAT ??1?$SimpleDataList@PAUMESSAGE@@@@UAE@XZ
_TEXT	SEGMENT PARA USE32 PUBLIC 'CODE'
_TEXT	ENDS
;	COMDAT ??$?0PAD@?$basic_string@DV?$char_traits@D@_STL@@V?$allocator@D@2@@_STL@@QAE@PAD0ABV?$allocator@D@1@@Z
_TEXT	SEGMENT PARA USE32 PUBLIC 'CODE'
_TEXT	ENDS
;	COMDAT ??$distance@U?$_List_iterator@PAVWindow@@U?$_Const_traits@PAVWindow@@@_STL@@@_STL@@@_STL@@YAHABU?$_List_iterator@PAVWindow@@U?$_Const_traits@PAVWindow@@@_STL@@@0@0@Z
_TEXT	SEGMENT PARA USE32 PUBLIC 'CODE'
_TEXT	ENDS
;	COMDAT ??$append@PBD@?$basic_string@DV?$char_traits@D@_STL@@V?$allocator@D@2@@_STL@@QAEAAV01@PBD0@Z
_TEXT	SEGMENT PARA USE32 PUBLIC 'CODE'
_TEXT	ENDS
;	COMDAT ??_G?$basic_string@DV?$char_traits@D@_STL@@V?$allocator@D@2@@_STL@@QAEPAXI@Z
_TEXT	SEGMENT PARA USE32 PUBLIC 'CODE'
_TEXT	ENDS
;	COMDAT ??_G?$SimpleDataList@PAVPI_Processor@@@@UAEPAXI@Z
_TEXT	SEGMENT PARA USE32 PUBLIC 'CODE'
_TEXT	ENDS
;	COMDAT ??_G?$SimpleDataList@PAVLineEditorVisual@@@@UAEPAXI@Z
_TEXT	SEGMENT PARA USE32 PUBLIC 'CODE'
_TEXT	ENDS
;	COMDAT ??_G?$SimpleDataList@PAVWindow@@@@UAEPAXI@Z
_TEXT	SEGMENT PARA USE32 PUBLIC 'CODE'
_TEXT	ENDS
;	COMDAT ??_G?$SimpleDataList@PAUMESSAGE@@@@UAEPAXI@Z
_TEXT	SEGMENT PARA USE32 PUBLIC 'CODE'
_TEXT	ENDS
;	COMDAT ?_M_exit_putback_mode@?$basic_filebuf@DV?$char_traits@D@_STL@@@_STL@@AAEXXZ
_TEXT	SEGMENT PARA USE32 PUBLIC 'CODE'
_TEXT	ENDS
;	COMDAT ??R?$_Eq_traits@V?$char_traits@D@_STL@@@_STL@@QBE_NABD0@Z
_TEXT	SEGMENT PARA USE32 PUBLIC 'CODE'
_TEXT	ENDS
;	COMDAT ??$search@PBDPBDU?$_Eq_traits@V?$char_traits@D@_STL@@@_STL@@@_STL@@YAPBDPBD000U?$_Eq_traits@V?$char_traits@D@_STL@@@0@@Z
_TEXT	SEGMENT PARA USE32 PUBLIC 'CODE'
_TEXT	ENDS
;	COMDAT ??$_M_range_initialize@PBD@?$basic_string@DV?$char_traits@D@_STL@@V?$allocator@D@2@@_STL@@AAEXPBD0ABUforward_iterator_tag@1@@Z
_TEXT	SEGMENT PARA USE32 PUBLIC 'CODE'
_TEXT	ENDS
;	COMDAT ??$_M_range_initialize@PAD@?$basic_string@DV?$char_traits@D@_STL@@V?$allocator@D@2@@_STL@@AAEXPAD0ABUforward_iterator_tag@1@@Z
_TEXT	SEGMENT PARA USE32 PUBLIC 'CODE'
_TEXT	ENDS
;	COMDAT ?_M_unshift@?$basic_filebuf@DV?$char_traits@D@_STL@@@_STL@@AAE_NXZ
_TEXT	SEGMENT PARA USE32 PUBLIC 'CODE'
_TEXT	ENDS
;	COMDAT ?_M_allocate_buffers@?$basic_filebuf@DV?$char_traits@D@_STL@@@_STL@@AAE_NXZ
_TEXT	SEGMENT PARA USE32 PUBLIC 'CODE'
_TEXT	ENDS
;	COMDAT ??$max@H@_STL@@YAABHABH0@Z
_TEXT	SEGMENT PARA USE32 PUBLIC 'CODE'
_TEXT	ENDS
;	COMDAT ??$use_facet@V?$codecvt@DDH@_STL@@@_STL@@YAABV?$codecvt@DDH@0@ABVlocale@0@@Z
_TEXT	SEGMENT PARA USE32 PUBLIC 'CODE'
_TEXT	ENDS
;	COMDAT ??$append@PAD@?$basic_string@DV?$char_traits@D@_STL@@V?$allocator@D@2@@_STL@@QAEAAV01@PAD0@Z
_TEXT	SEGMENT PARA USE32 PUBLIC 'CODE'
_TEXT	ENDS
;	COMDAT ??$_M_initialize_dispatch@PAD@?$basic_string@DV?$char_traits@D@_STL@@V?$allocator@D@2@@_STL@@AAEXPAD0ABU__false_type@1@@Z
_TEXT	SEGMENT PARA USE32 PUBLIC 'CODE'
_TEXT	ENDS
;	COMDAT ??$__distance@U?$_List_iterator@PAVWindow@@U?$_Const_traits@PAVWindow@@@_STL@@@_STL@@@_STL@@YAHABU?$_List_iterator@PAVWindow@@U?$_Const_traits@PAVWindow@@@_STL@@@0@0ABUinput_iterator_tag@0@@Z
_TEXT	SEGMENT PARA USE32 PUBLIC 'CODE'
_TEXT	ENDS
;	COMDAT ??$_M_append_dispatch@PBD@?$basic_string@DV?$char_traits@D@_STL@@V?$allocator@D@2@@_STL@@AAEAAV01@PBD0ABU__false_type@1@@Z
_TEXT	SEGMENT PARA USE32 PUBLIC 'CODE'
_TEXT	ENDS
;	COMDAT ??E?$_List_iterator@PAVWindow@@U?$_Const_traits@PAVWindow@@@_STL@@@_STL@@QAEAAU01@XZ
_TEXT	SEGMENT PARA USE32 PUBLIC 'CODE'
_TEXT	ENDS
;	COMDAT ??$distance@PBD@_STL@@YAHABQBD0@Z
_TEXT	SEGMENT PARA USE32 PUBLIC 'CODE'
_TEXT	ENDS
;	COMDAT ?_M_allocate_block@?$_String_base@DV?$allocator@D@_STL@@@_STL@@QAEXI@Z
_TEXT	SEGMENT PARA USE32 PUBLIC 'CODE'
_TEXT	ENDS
;	COMDAT ??$distance@PAD@_STL@@YAHABQAD0@Z
_TEXT	SEGMENT PARA USE32 PUBLIC 'CODE'
_TEXT	ENDS
;	COMDAT ??$uninitialized_copy@PADPAD@_STL@@YAPADPAD00@Z
_TEXT	SEGMENT PARA USE32 PUBLIC 'CODE'
_TEXT	ENDS
;	COMDAT ??$_M_append_dispatch@PAD@?$basic_string@DV?$char_traits@D@_STL@@V?$allocator@D@2@@_STL@@AAEAAV01@PAD0ABU__false_type@1@@Z
_TEXT	SEGMENT PARA USE32 PUBLIC 'CODE'
_TEXT	ENDS
;	COMDAT ??$append@PBD@?$basic_string@DV?$char_traits@D@_STL@@V?$allocator@D@2@@_STL@@AAEAAV01@PBD0ABUforward_iterator_tag@1@@Z
_TEXT	SEGMENT PARA USE32 PUBLIC 'CODE'
_TEXT	ENDS
;	COMDAT ?_M_construct_null@?$basic_string@DV?$char_traits@D@_STL@@V?$allocator@D@2@@_STL@@AAEXPAD@Z
_TEXT	SEGMENT PARA USE32 PUBLIC 'CODE'
_TEXT	ENDS
;	COMDAT ?max_size@?$basic_string@DV?$char_traits@D@_STL@@V?$allocator@D@2@@_STL@@QBEIXZ
_TEXT	SEGMENT PARA USE32 PUBLIC 'CODE'
_TEXT	ENDS
;	COMDAT ?capacity@?$basic_string@DV?$char_traits@D@_STL@@V?$allocator@D@2@@_STL@@QBEIXZ
_TEXT	SEGMENT PARA USE32 PUBLIC 'CODE'
_TEXT	ENDS
;	COMDAT ?max_size@?$_String_base@DV?$allocator@D@_STL@@@_STL@@QBEIXZ
_TEXT	SEGMENT PARA USE32 PUBLIC 'CODE'
_TEXT	ENDS
;	COMDAT ?_M_construct_null_aux@?$basic_string@DV?$char_traits@D@_STL@@V?$allocator@D@2@@_STL@@AAEXPADABU__true_type@2@@Z
_TEXT	SEGMENT PARA USE32 PUBLIC 'CODE'
_TEXT	ENDS
;	COMDAT ??$__distance@PBD@_STL@@YAHABQBD0ABUrandom_access_iterator_tag@0@@Z
_TEXT	SEGMENT PARA USE32 PUBLIC 'CODE'
_TEXT	ENDS
;	COMDAT ?_M_throw_length_error@?$_String_base@DV?$allocator@D@_STL@@@_STL@@QBEXXZ
_TEXT	SEGMENT PARA USE32 PUBLIC 'CODE'
_TEXT	ENDS
;	COMDAT ??$__distance@PAD@_STL@@YAHABQAD0ABUrandom_access_iterator_tag@0@@Z
_TEXT	SEGMENT PARA USE32 PUBLIC 'CODE'
_TEXT	ENDS
;	COMDAT ??$__uninitialized_copy@PADPAD@_STL@@YAPADPAD00ABU__true_type@0@@Z
_TEXT	SEGMENT PARA USE32 PUBLIC 'CODE'
_TEXT	ENDS
;	COMDAT ??$append@PAD@?$basic_string@DV?$char_traits@D@_STL@@V?$allocator@D@2@@_STL@@AAEAAV01@PAD0ABUforward_iterator_tag@1@@Z
_TEXT	SEGMENT PARA USE32 PUBLIC 'CODE'
_TEXT	ENDS
;	COMDAT ??$max@I@_STL@@YAABIABI0@Z
_TEXT	SEGMENT PARA USE32 PUBLIC 'CODE'
_TEXT	ENDS
;	COMDAT ?_Ret@?$_BothPtrType@PADPAD@_STL@@SA?AU__true_type@2@XZ
_TEXT	SEGMENT PARA USE32 PUBLIC 'CODE'
_TEXT	ENDS
;	COMDAT ??$__copy_aux@PADPAD@_STL@@YAPADPAD00ABU__true_type@0@@Z
_TEXT	SEGMENT PARA USE32 PUBLIC 'CODE'
_TEXT	ENDS
;	COMDAT ?_Ret@?$_OKToMemCpy@DD@_STL@@SA?AU__true_type@2@XZ
_TEXT	SEGMENT PARA USE32 PUBLIC 'CODE'
_TEXT	ENDS
;	COMDAT ??$_IsOKToMemCpy@DD@_STL@@YA?AU?$_OKToMemCpy@DD@0@PAD0@Z
_TEXT	SEGMENT PARA USE32 PUBLIC 'CODE'
_TEXT	ENDS
;	COMDAT ??$__copy_ptrs@PADPAD@_STL@@YAPADPAD00ABU__true_type@0@@Z
_TEXT	SEGMENT PARA USE32 PUBLIC 'CODE'
_TEXT	ENDS
;	COMDAT ??_R3?$SimpleDataList@PAVLineEditorVisual@@@@8
rdata$r	SEGMENT DWORD USE32 PUBLIC 'CONST'
rdata$r	ENDS
;	COMDAT ??_R3ovfstream@@8
rdata$r	SEGMENT DWORD USE32 PUBLIC 'CONST'
rdata$r	ENDS
;	COMDAT ??_R3CTimeCtrl@@8
rdata$r	SEGMENT DWORD USE32 PUBLIC 'CONST'
rdata$r	ENDS
;	COMDAT ??_R3ivfstream@@8
rdata$r	SEGMENT DWORD USE32 PUBLIC 'CONST'
rdata$r	ENDS
;	COMDAT ??_R3?$SimpleDataList@PAUMESSAGE@@@@8
rdata$r	SEGMENT DWORD USE32 PUBLIC 'CONST'
rdata$r	ENDS
;	COMDAT ??_R3iovfs_base@@8
rdata$r	SEGMENT DWORD USE32 PUBLIC 'CONST'
rdata$r	ENDS
;	COMDAT ??_R3?$SimpleDataList@PAVPI_Processor@@@@8
rdata$r	SEGMENT DWORD USE32 PUBLIC 'CONST'
rdata$r	ENDS
;	COMDAT ??_R3?$SimpleDataList@PAVWindow@@@@8
rdata$r	SEGMENT DWORD USE32 PUBLIC 'CONST'
rdata$r	ENDS
;	COMDAT ??_R3IFileIO@@8
rdata$r	SEGMENT DWORD USE32 PUBLIC 'CONST'
rdata$r	ENDS
;	COMDAT ??_R3ITypePackBase@@8
rdata$r	SEGMENT DWORD USE32 PUBLIC 'CONST'
rdata$r	ENDS
;	COMDAT ??_R2?$SimpleDataList@PAVLineEditorVisual@@@@8
rdata$r	SEGMENT DWORD USE32 PUBLIC 'CONST'
rdata$r	ENDS
;	COMDAT ??_R2ovfstream@@8
rdata$r	SEGMENT DWORD USE32 PUBLIC 'CONST'
rdata$r	ENDS
;	COMDAT ??_R2CTimeCtrl@@8
rdata$r	SEGMENT DWORD USE32 PUBLIC 'CONST'
rdata$r	ENDS
;	COMDAT ??_R2ivfstream@@8
rdata$r	SEGMENT DWORD USE32 PUBLIC 'CONST'
rdata$r	ENDS
;	COMDAT ??_R2?$SimpleDataList@PAUMESSAGE@@@@8
rdata$r	SEGMENT DWORD USE32 PUBLIC 'CONST'
rdata$r	ENDS
;	COMDAT ??_R2iovfs_base@@8
rdata$r	SEGMENT DWORD USE32 PUBLIC 'CONST'
rdata$r	ENDS
;	COMDAT ??_R2?$SimpleDataList@PAVPI_Processor@@@@8
rdata$r	SEGMENT DWORD USE32 PUBLIC 'CONST'
rdata$r	ENDS
;	COMDAT ??_R2?$SimpleDataList@PAVWindow@@@@8
rdata$r	SEGMENT DWORD USE32 PUBLIC 'CONST'
rdata$r	ENDS
;	COMDAT ??_R2IFileIO@@8
rdata$r	SEGMENT DWORD USE32 PUBLIC 'CONST'
rdata$r	ENDS
;	COMDAT ??_R2ITypePackBase@@8
rdata$r	SEGMENT DWORD USE32 PUBLIC 'CONST'
rdata$r	ENDS
;	COMDAT ??_R1A@?0A@A@?$SimpleDataList@PAVLineEditorVisual@@@@8
rdata$r	SEGMENT DWORD USE32 PUBLIC 'CONST'
rdata$r	ENDS
;	COMDAT ??_R1A@?0A@A@ovfstream@@8
rdata$r	SEGMENT DWORD USE32 PUBLIC 'CONST'
rdata$r	ENDS
;	COMDAT ??_R1A@?0A@A@CTimeCtrl@@8
rdata$r	SEGMENT DWORD USE32 PUBLIC 'CONST'
rdata$r	ENDS
;	COMDAT ??_R1A@?0A@A@ivfstream@@8
rdata$r	SEGMENT DWORD USE32 PUBLIC 'CONST'
rdata$r	ENDS
;	COMDAT ??_R1A@?0A@A@?$SimpleDataList@PAUMESSAGE@@@@8
rdata$r	SEGMENT DWORD USE32 PUBLIC 'CONST'
rdata$r	ENDS
;	COMDAT ??_R1A@?0A@A@iovfs_base@@8
rdata$r	SEGMENT DWORD USE32 PUBLIC 'CONST'
rdata$r	ENDS
;	COMDAT ??_R1A@?0A@A@?$SimpleDataList@PAVPI_Processor@@@@8
rdata$r	SEGMENT DWORD USE32 PUBLIC 'CONST'
rdata$r	ENDS
;	COMDAT ??_R1A@?0A@A@?$SimpleDataList@PAVWindow@@@@8
rdata$r	SEGMENT DWORD USE32 PUBLIC 'CONST'
rdata$r	ENDS
;	COMDAT ??_R1A@?0A@A@IFileIO@@8
rdata$r	SEGMENT DWORD USE32 PUBLIC 'CONST'
rdata$r	ENDS
;	COMDAT ??_R1A@?0A@A@ITypePackBase@@8
rdata$r	SEGMENT DWORD USE32 PUBLIC 'CONST'
rdata$r	ENDS
;	COMDAT ??_R0?AV?$SimpleDataList@PAVLineEditorVisual@@@@@8
_DATA	SEGMENT DWORD USE32 PUBLIC 'DATA'
_DATA	ENDS
;	COMDAT ??_R0?AVovfstream@@@8
_DATA	SEGMENT DWORD USE32 PUBLIC 'DATA'
_DATA	ENDS
;	COMDAT ??_R0?AVCTimeCtrl@@@8
_DATA	SEGMENT DWORD USE32 PUBLIC 'DATA'
_DATA	ENDS
;	COMDAT ??_R0?AVivfstream@@@8
_DATA	SEGMENT DWORD USE32 PUBLIC 'DATA'
_DATA	ENDS
;	COMDAT ??_R0?AV?$SimpleDataList@PAUMESSAGE@@@@@8
_DATA	SEGMENT DWORD USE32 PUBLIC 'DATA'
_DATA	ENDS
;	COMDAT ??_R0?AViovfs_base@@@8
_DATA	SEGMENT DWORD USE32 PUBLIC 'DATA'
_DATA	ENDS
;	COMDAT ??_R0?AV?$SimpleDataList@PAVPI_Processor@@@@@8
_DATA	SEGMENT DWORD USE32 PUBLIC 'DATA'
_DATA	ENDS
;	COMDAT ??_R0?AV?$SimpleDataList@PAVWindow@@@@@8
_DATA	SEGMENT DWORD USE32 PUBLIC 'DATA'
_DATA	ENDS
;	COMDAT ??_R0?AVIFileIO@@@8
_DATA	SEGMENT DWORD USE32 PUBLIC 'DATA'
_DATA	ENDS
;	COMDAT ??_R0?AVITypePackBase@@@8
_DATA	SEGMENT DWORD USE32 PUBLIC 'DATA'
_DATA	ENDS
;	COMDAT ??_R4?$SimpleDataList@PAVLineEditorVisual@@@@6B@
rdata$r	SEGMENT DWORD USE32 PUBLIC 'CONST'
rdata$r	ENDS
;	COMDAT ??_R4ovfstream@@6B@
rdata$r	SEGMENT DWORD USE32 PUBLIC 'CONST'
rdata$r	ENDS
;	COMDAT ??_R4CTimeCtrl@@6B@
rdata$r	SEGMENT DWORD USE32 PUBLIC 'CONST'
rdata$r	ENDS
;	COMDAT ??_R4ivfstream@@6B@
rdata$r	SEGMENT DWORD USE32 PUBLIC 'CONST'
rdata$r	ENDS
;	COMDAT ??_R4?$SimpleDataList@PAUMESSAGE@@@@6B@
rdata$r	SEGMENT DWORD USE32 PUBLIC 'CONST'
rdata$r	ENDS
;	COMDAT ??_R4iovfs_base@@6B@
rdata$r	SEGMENT DWORD USE32 PUBLIC 'CONST'
rdata$r	ENDS
;	COMDAT ??_R4?$SimpleDataList@PAVPI_Processor@@@@6B@
rdata$r	SEGMENT DWORD USE32 PUBLIC 'CONST'
rdata$r	ENDS
;	COMDAT ??_R4?$SimpleDataList@PAVWindow@@@@6B@
rdata$r	SEGMENT DWORD USE32 PUBLIC 'CONST'
rdata$r	ENDS
;	COMDAT ??_R4IFileIO@@6B@
rdata$r	SEGMENT DWORD USE32 PUBLIC 'CONST'
rdata$r	ENDS
;	COMDAT ??_R4ITypePackBase@@6B@
rdata$r	SEGMENT DWORD USE32 PUBLIC 'CONST'
rdata$r	ENDS
;	COMDAT ?__copy_trivial@_STL@@YAPAXPBX0PAX@Z
_TEXT	SEGMENT PARA USE32 PUBLIC 'CODE'
_TEXT	ENDS
;	COMDAT ?_M_deallocate_block@?$_String_base@DV?$allocator@D@_STL@@@_STL@@QAEXXZ
_TEXT	SEGMENT PARA USE32 PUBLIC 'CODE'
_TEXT	ENDS
;	COMDAT ?deallocate@?$allocator@D@_STL@@QAEXPADI@Z
_TEXT	SEGMENT PARA USE32 PUBLIC 'CODE'
_TEXT	ENDS
;	COMDAT ?deallocate@?$__node_alloc@$00$0A@@_STL@@SAXPAXI@Z
_TEXT	SEGMENT PARA USE32 PUBLIC 'CODE'
_TEXT	ENDS
;	COMDAT ?__stl_delete@_STL@@YAXPAX@Z
_TEXT	SEGMENT PARA USE32 PUBLIC 'CODE'
_TEXT	ENDS
;	COMDAT ?_M_incr@_List_iterator_base@_STL@@QAEXXZ
_TEXT	SEGMENT PARA USE32 PUBLIC 'CODE'
_TEXT	ENDS
;	COMDAT ??9_List_iterator_base@_STL@@QBE_NABU01@@Z
_TEXT	SEGMENT PARA USE32 PUBLIC 'CODE'
_TEXT	ENDS
;	COMDAT ?__page_size@_Filebuf_base@_STL@@SAIXZ
_TEXT	SEGMENT PARA USE32 PUBLIC 'CODE'
_TEXT	ENDS
;	COMDAT ?_M_write@?$basic_filebuf@DV?$char_traits@D@_STL@@@_STL@@QAE_NPADH@Z
_TEXT	SEGMENT PARA USE32 PUBLIC 'CODE'
_TEXT	ENDS
;	COMDAT ?unshift@?$codecvt@DDH@_STL@@QBE?AW4result@codecvt_base@2@AAHPAD1AAPAD@Z
_TEXT	SEGMENT PARA USE32 PUBLIC 'CODE'
_TEXT	ENDS
;	COMDAT ?uninitialized_copy@_STL@@YAPADPBD0PAD@Z
_TEXT	SEGMENT PARA USE32 PUBLIC 'CODE'
_TEXT	ENDS
;	COMDAT ??1?$_String_base@DV?$allocator@D@_STL@@@_STL@@QAE@XZ
_TEXT	SEGMENT PARA USE32 PUBLIC 'CODE'
_TEXT	ENDS
;	COMDAT ??_7?$SimpleDataList@PAUMESSAGE@@@@6B@
CONST	SEGMENT DWORD USE32 PUBLIC 'CONST'
CONST	ENDS
;	COMDAT ??_7?$SimpleDataList@PAVWindow@@@@6B@
CONST	SEGMENT DWORD USE32 PUBLIC 'CONST'
CONST	ENDS
;	COMDAT ??_7?$SimpleDataList@PAVLineEditorVisual@@@@6B@
CONST	SEGMENT DWORD USE32 PUBLIC 'CONST'
CONST	ENDS
;	COMDAT ??_7?$SimpleDataList@PAVPI_Processor@@@@6B@
CONST	SEGMENT DWORD USE32 PUBLIC 'CONST'
CONST	ENDS
;	COMDAT ?assign@?$char_traits@D@_STL@@SAXAADABD@Z
_TEXT	SEGMENT PARA USE32 PUBLIC 'CODE'
_TEXT	ENDS
;	COMDAT ?always_noconv@?$codecvt@DDH@_STL@@QBE_NXZ
_TEXT	SEGMENT PARA USE32 PUBLIC 'CODE'
_TEXT	ENDS
;	COMDAT ?encoding@?$codecvt@DDH@_STL@@QBEHXZ
_TEXT	SEGMENT PARA USE32 PUBLIC 'CODE'
_TEXT	ENDS
;	COMDAT ?max_length@?$codecvt@DDH@_STL@@QBEHXZ
_TEXT	SEGMENT PARA USE32 PUBLIC 'CODE'
_TEXT	ENDS
;	COMDAT ?__o_mode@_Filebuf_base@_STL@@QBEHXZ
_TEXT	SEGMENT PARA USE32 PUBLIC 'CODE'
_TEXT	ENDS
;	COMDAT ??0_List_iterator_base@_STL@@QAE@PAU_List_node_base@1@@Z
_TEXT	SEGMENT PARA USE32 PUBLIC 'CODE'
_TEXT	ENDS
;	COMDAT ?_Destroy@_STL@@YAXPAD0@Z
_TEXT	SEGMENT PARA USE32 PUBLIC 'CODE'
_TEXT	ENDS
;	COMDAT ?setp@?$basic_streambuf@DV?$char_traits@D@_STL@@@_STL@@IAEXPAD0@Z
_TEXT	SEGMENT PARA USE32 PUBLIC 'CODE'
_TEXT	ENDS
;	COMDAT ?_FILE_O_set@_STL@@YAXPAU_iobuf@@PAD11@Z
_TEXT	SEGMENT PARA USE32 PUBLIC 'CODE'
_TEXT	ENDS
;	COMDAT ?_FILE_I_set@_STL@@YAXPAU_iobuf@@PAD11@Z
_TEXT	SEGMENT PARA USE32 PUBLIC 'CODE'
_TEXT	ENDS
;	COMDAT ?setg@?$basic_streambuf@DV?$char_traits@D@_STL@@@_STL@@IAEXPAD00@Z
_TEXT	SEGMENT PARA USE32 PUBLIC 'CODE'
_TEXT	ENDS
;	COMDAT ?__is_open@_Filebuf_base@_STL@@QBE_NXZ
_TEXT	SEGMENT PARA USE32 PUBLIC 'CODE'
_TEXT	ENDS
;	COMDAT ?allocate@?$__node_alloc@$00$0A@@_STL@@SAPAXI@Z
_TEXT	SEGMENT PARA USE32 PUBLIC 'CODE'
_TEXT	ENDS
;	COMDAT ?__stl_new@_STL@@YAPAXI@Z
_TEXT	SEGMENT PARA USE32 PUBLIC 'CODE'
_TEXT	ENDS
;	COMDAT ??1?$_STLP_alloc_proxy@PADDV?$allocator@D@_STL@@@_STL@@QAE@XZ
_TEXT	SEGMENT PARA USE32 PUBLIC 'CODE'
_TEXT	ENDS
;	COMDAT ??$min@I@_STL@@YAABIABI0@Z
_TEXT	SEGMENT PARA USE32 PUBLIC 'CODE'
_TEXT	ENDS
;	COMDAT ?length@?$char_traits@D@_STL@@SAIPBD@Z
_TEXT	SEGMENT PARA USE32 PUBLIC 'CODE'
_TEXT	ENDS
;	COMDAT ?eof@?$__char_traits_base@DH@_STL@@SAHXZ
_TEXT	SEGMENT PARA USE32 PUBLIC 'CODE'
_TEXT	ENDS
;	COMDAT ?Buffer@?1??AddFormat@CMessageArray@@QAAXPBDZZ@4PADA
_BSS	SEGMENT DWORD USE32 PUBLIC 'BSS'
_BSS	ENDS
;	COMDAT ?InfoBordHeight@?3??ShowBord@CInfomationBord@@QAEXPAUPrintInfo@@@Z@4HA
_DATA	SEGMENT DWORD USE32 PUBLIC 'DATA'
_DATA	ENDS
;	COMDAT ?InfoBordRt@?3??ShowBord@CInfomationBord@@QAEXPAUPrintInfo@@@Z@4UtagRECT@@A
_DATA	SEGMENT DWORD USE32 PUBLIC 'DATA'
_DATA	ENDS
;	COMDAT ?InfoBordY@?3??ShowBord@CInfomationBord@@QAEXPAUPrintInfo@@@Z@4HA
_BSS	SEGMENT DWORD USE32 PUBLIC 'BSS'
_BSS	ENDS
;	COMDAT ?InfoBordX@?3??ShowBord@CInfomationBord@@QAEXPAUPrintInfo@@@Z@4HA
_BSS	SEGMENT DWORD USE32 PUBLIC 'BSS'
_BSS	ENDS
;	COMDAT ?InfoBordWidth@?3??ShowBord@CInfomationBord@@QAEXPAUPrintInfo@@@Z@4HA
_BSS	SEGMENT DWORD USE32 PUBLIC 'BSS'
_BSS	ENDS
;	COMDAT ?$S79@?3??ShowBord@CInfomationBord@@QAEXPAUPrintInfo@@@Z@4IA
_BSS	SEGMENT DWORD USE32 PUBLIC 'BSS'
_BSS	ENDS
;	COMDAT ??4?$basic_string@DV?$char_traits@D@_STL@@V?$allocator@D@2@@_STL@@QAEAAV01@ABV01@@Z
_TEXT	SEGMENT PARA USE32 PUBLIC 'CODE'
_TEXT	ENDS
;	COMDAT ??$assign@PAD@?$basic_string@DV?$char_traits@D@_STL@@V?$allocator@D@2@@_STL@@QAEAAV01@PAD0@Z
_TEXT	SEGMENT PARA USE32 PUBLIC 'CODE'
_TEXT	ENDS
;	COMDAT ??1?$allocator@D@_STL@@QAE@XZ
_TEXT	SEGMENT PARA USE32 PUBLIC 'CODE'
_TEXT	ENDS
;	COMDAT ??0?$allocator@D@_STL@@QAE@XZ
_TEXT	SEGMENT PARA USE32 PUBLIC 'CODE'
_TEXT	ENDS
;	COMDAT ??0?$basic_string@DV?$char_traits@D@_STL@@V?$allocator@D@2@@_STL@@QAE@PBDABV?$allocator@D@1@@Z
_TEXT	SEGMENT PARA USE32 PUBLIC 'CODE'
_TEXT	ENDS
;	COMDAT ??_7ITypePackBase@@6B@
CONST	SEGMENT DWORD USE32 PUBLIC 'CONST'
CONST	ENDS
;	COMDAT ??0?$basic_string@DV?$char_traits@D@_STL@@V?$allocator@D@2@@_STL@@QAE@ABV01@@Z
_TEXT	SEGMENT PARA USE32 PUBLIC 'CODE'
_TEXT	ENDS
;	COMDAT ??_7ovfstream@@6B@
CONST	SEGMENT DWORD USE32 PUBLIC 'CONST'
CONST	ENDS
;	COMDAT ??_7ivfstream@@6B@
CONST	SEGMENT DWORD USE32 PUBLIC 'CONST'
CONST	ENDS
;	COMDAT ??0?$basic_string@DV?$char_traits@D@_STL@@V?$allocator@D@2@@_STL@@QAE@XZ
_TEXT	SEGMENT PARA USE32 PUBLIC 'CODE'
_TEXT	ENDS
;	COMDAT ??1?$basic_string@DV?$char_traits@D@_STL@@V?$allocator@D@2@@_STL@@QAE@XZ
_TEXT	SEGMENT PARA USE32 PUBLIC 'CODE'
_TEXT	ENDS
;	COMDAT ??_7iovfs_base@@6B@
CONST	SEGMENT DWORD USE32 PUBLIC 'CONST'
CONST	ENDS
;	COMDAT ??_7IFileIO@@6B@
CONST	SEGMENT DWORD USE32 PUBLIC 'CONST'
CONST	ENDS
;	COMDAT ??_7CTimeCtrl@@6B@
CONST	SEGMENT DWORD USE32 PUBLIC 'CONST'
CONST	ENDS
sxdata	SEGMENT DWORD USE32 'SXDATA'
sxdata	ENDS
FLAT	GROUP _DATA, CONST, _BSS
	ASSUME	CS: FLAT, DS: FLAT, SS: FLAT
endif

INCLUDELIB LIBCMT
INCLUDELIB OLDNAMES

PUBLIC	?g_bShowBord@@3_NA				; g_bShowBord
PUBLIC	??_C@_0O@JKENFCBN@MinTrace?52003?$AA@		; `string'
PUBLIC	??_C@_0BE@MNEJIGLM@__MinTrace?5Window__?$AA@	; `string'
_BSS	SEGMENT
?g_bShowBord@@3_NA DB 01H DUP (?)			; g_bShowBord
_BSS	ENDS
;	COMDAT ??_C@_0O@JKENFCBN@MinTrace?52003?$AA@
CONST	SEGMENT
??_C@_0O@JKENFCBN@MinTrace?52003?$AA@ DB 'MinTrace 2003', 00H ; `string'
CONST	ENDS
_DATA	SEGMENT
_g_pszMinTraceTitle DD FLAT:??_C@_0O@JKENFCBN@MinTrace?52003?$AA@
_DATA	ENDS
;	COMDAT ??_C@_0BE@MNEJIGLM@__MinTrace?5Window__?$AA@
CONST	SEGMENT
??_C@_0BE@MNEJIGLM@__MinTrace?5Window__?$AA@ DB '__MinTrace Window__', 00H ; `string'
CONST	ENDS
_DATA	SEGMENT
_g_pszMinTraceClassName DD FLAT:??_C@_0BE@MNEJIGLM@__MinTrace?5Window__?$AA@
_DATA	ENDS
PUBLIC	?SetDelay@CTimeCtrl@@QAEXK@Z			; CTimeCtrl::SetDelay
EXTRN	__imp__GetTickCount@0:NEAR
; Function compile flags: /Ogsy
; File c:\darkeden\designed_common\project\client\ticktimer.h
;	COMDAT ?SetDelay@CTimeCtrl@@QAEXK@Z
_TEXT	SEGMENT
_dwDelay$ = 8						; size = 4
?SetDelay@CTimeCtrl@@QAEXK@Z PROC NEAR			; CTimeCtrl::SetDelay, COMDAT
; _this$ = ecx

; 25   : 	{ 

  00000	56		 push	 esi
  00001	8b f1		 mov	 esi, ecx

; 26   : 		m_dwBeginTime = ::GetTickCount(); 

  00003	ff 15 00 00 00
	00		 call	 DWORD PTR __imp__GetTickCount@0
  00009	89 46 04	 mov	 DWORD PTR [esi+4], eax

; 27   : 		m_dwDelayTime = dwDelay; 

  0000c	8b 44 24 08	 mov	 eax, DWORD PTR _dwDelay$[esp]
  00010	89 46 0c	 mov	 DWORD PTR [esi+12], eax
  00013	5e		 pop	 esi

; 28   : 	}

  00014	c2 04 00	 ret	 4
?SetDelay@CTimeCtrl@@QAEXK@Z ENDP			; CTimeCtrl::SetDelay
_TEXT	ENDS
PUBLIC	?Clear@CTimeCtrl@@QAEXXZ			; CTimeCtrl::Clear
; Function compile flags: /Ogsy
;	COMDAT ?Clear@CTimeCtrl@@QAEXXZ
_TEXT	SEGMENT
?Clear@CTimeCtrl@@QAEXXZ PROC NEAR			; CTimeCtrl::Clear, COMDAT
; _this$ = ecx

; 32   : 		m_bIsStart = false;

  00000	33 c0		 xor	 eax, eax
  00002	88 41 10	 mov	 BYTE PTR [ecx+16], al

; 33   : 		m_dwBeginTime = 0; 

  00005	89 41 04	 mov	 DWORD PTR [ecx+4], eax

; 34   : 		m_dwDelayTime = 0; 

  00008	89 41 0c	 mov	 DWORD PTR [ecx+12], eax

; 35   : 		m_dwCurTime = 0;

  0000b	89 41 08	 mov	 DWORD PTR [ecx+8], eax

; 36   : 	}

  0000e	c3		 ret	 0
?Clear@CTimeCtrl@@QAEXXZ ENDP				; CTimeCtrl::Clear
_TEXT	ENDS
PUBLIC	?Begin@CTimeCtrl@@QAEXXZ			; CTimeCtrl::Begin
; Function compile flags: /Ogsy
;	COMDAT ?Begin@CTimeCtrl@@QAEXXZ
_TEXT	SEGMENT
?Begin@CTimeCtrl@@QAEXXZ PROC NEAR			; CTimeCtrl::Begin, COMDAT
; _this$ = ecx

; 39   : 	{

  00000	56		 push	 esi
  00001	57		 push	 edi

; 40   : 		m_dwBeginTime = ::GetTickCount();

  00002	8b 3d 00 00 00
	00		 mov	 edi, DWORD PTR __imp__GetTickCount@0
  00008	8b f1		 mov	 esi, ecx
  0000a	ff d7		 call	 edi
  0000c	89 46 04	 mov	 DWORD PTR [esi+4], eax

; 41   : 		m_dwCurTime = ::GetTickCount();

  0000f	ff d7		 call	 edi
  00011	5f		 pop	 edi
  00012	89 46 08	 mov	 DWORD PTR [esi+8], eax

; 42   : 		m_bIsStart = true;

  00015	c6 46 10 01	 mov	 BYTE PTR [esi+16], 1
  00019	5e		 pop	 esi

; 43   : 	}

  0001a	c3		 ret	 0
?Begin@CTimeCtrl@@QAEXXZ ENDP				; CTimeCtrl::Begin
_TEXT	ENDS
PUBLIC	?IsTimeAllow@CTimeCtrl@@QAE_NXZ			; CTimeCtrl::IsTimeAllow
; Function compile flags: /Ogsy
;	COMDAT ?IsTimeAllow@CTimeCtrl@@QAE_NXZ
_TEXT	SEGMENT
?IsTimeAllow@CTimeCtrl@@QAE_NXZ PROC NEAR		; CTimeCtrl::IsTimeAllow, COMDAT
; _this$ = ecx

; 46   : 	{

  00000	56		 push	 esi
  00001	8b f1		 mov	 esi, ecx

; 47   : 		if( !m_bIsStart ){ return false; }

  00003	80 7e 10 00	 cmp	 BYTE PTR [esi+16], 0
  00007	74 10		 je	 SHORT $L118556

; 48   : 
; 49   : 		DWORD dwTime = ::GetTickCount();

  00009	ff 15 00 00 00
	00		 call	 DWORD PTR __imp__GetTickCount@0

; 50   : 		if( dwTime - m_dwCurTime < m_dwDelayTime ){ return false; }

  0000f	8b c8		 mov	 ecx, eax
  00011	2b 4e 08	 sub	 ecx, DWORD PTR [esi+8]
  00014	3b 4e 0c	 cmp	 ecx, DWORD PTR [esi+12]
  00017	73 04		 jae	 SHORT $L99417
$L118556:
  00019	32 c0		 xor	 al, al
  0001b	5e		 pop	 esi

; 54   : 	}

  0001c	c3		 ret	 0
$L99417:

; 51   : 
; 52   : 		m_dwCurTime = dwTime;

  0001d	89 46 08	 mov	 DWORD PTR [esi+8], eax

; 53   : 		return true;

  00020	b0 01		 mov	 al, 1
  00022	5e		 pop	 esi

; 54   : 	}

  00023	c3		 ret	 0
?IsTimeAllow@CTimeCtrl@@QAE_NXZ ENDP			; CTimeCtrl::IsTimeAllow
_TEXT	ENDS
PUBLIC	??0CTimeCtrl@@QAE@XZ				; CTimeCtrl::CTimeCtrl
PUBLIC	??_7CTimeCtrl@@6B@				; CTimeCtrl::`vftable'
PUBLIC	??_GCTimeCtrl@@UAEPAXI@Z			; CTimeCtrl::`scalar deleting destructor'
PUBLIC	??_R4CTimeCtrl@@6B@				; CTimeCtrl::`RTTI Complete Object Locator'
PUBLIC	??_R0?AVCTimeCtrl@@@8				; CTimeCtrl `RTTI Type Descriptor'
PUBLIC	??_R3CTimeCtrl@@8				; CTimeCtrl::`RTTI Class Hierarchy Descriptor'
PUBLIC	??_R2CTimeCtrl@@8				; CTimeCtrl::`RTTI Base Class Array'
PUBLIC	??_R1A@?0A@A@CTimeCtrl@@8			; CTimeCtrl::`RTTI Base Class Descriptor at (0,-1,0,0)'
EXTRN	??_7type_info@@6B@:QWORD			; type_info::`vftable'
EXTRN	??_ECTimeCtrl@@UAEPAXI@Z:NEAR			; CTimeCtrl::`vector deleting destructor'
;	COMDAT ??_7CTimeCtrl@@6B@
CONST	SEGMENT
??_7CTimeCtrl@@6B@ DD FLAT:??_R4CTimeCtrl@@6B@		; CTimeCtrl::`vftable'
	DD	FLAT:??_ECTimeCtrl@@UAEPAXI@Z
CONST	ENDS
;	COMDAT ??_R4CTimeCtrl@@6B@
rdata$r	SEGMENT
??_R4CTimeCtrl@@6B@ DD 00H				; CTimeCtrl::`RTTI Complete Object Locator'
	DD	00H
	DD	00H
	DD	FLAT:??_R0?AVCTimeCtrl@@@8
	DD	FLAT:??_R3CTimeCtrl@@8
rdata$r	ENDS
;	COMDAT ??_R0?AVCTimeCtrl@@@8
_DATA	SEGMENT
??_R0?AVCTimeCtrl@@@8 DD FLAT:??_7type_info@@6B@	; CTimeCtrl `RTTI Type Descriptor'
	DD	00H
	DB	'.?AVCTimeCtrl@@', 00H
_DATA	ENDS
;	COMDAT ??_R3CTimeCtrl@@8
rdata$r	SEGMENT
??_R3CTimeCtrl@@8 DD 00H				; CTimeCtrl::`RTTI Class Hierarchy Descriptor'
	DD	00H
	DD	01H
	DD	FLAT:??_R2CTimeCtrl@@8
rdata$r	ENDS
;	COMDAT ??_R2CTimeCtrl@@8
rdata$r	SEGMENT
??_R2CTimeCtrl@@8 DD FLAT:??_R1A@?0A@A@CTimeCtrl@@8	; CTimeCtrl::`RTTI Base Class Array'
rdata$r	ENDS
;	COMDAT ??_R1A@?0A@A@CTimeCtrl@@8
rdata$r	SEGMENT
??_R1A@?0A@A@CTimeCtrl@@8 DD FLAT:??_R0?AVCTimeCtrl@@@8	; CTimeCtrl::`RTTI Base Class Descriptor at (0,-1,0,0)'
	DD	00H
	DD	00H
	DD	0ffffffffH
	DD	00H
	DD	00H
; Function compile flags: /Ogsy
rdata$r	ENDS
;	COMDAT ??0CTimeCtrl@@QAE@XZ
_TEXT	SEGMENT
??0CTimeCtrl@@QAE@XZ PROC NEAR				; CTimeCtrl::CTimeCtrl, COMDAT
; _this$ = ecx

; 57   : 	CTimeCtrl(){ Clear(); }

  00000	8b c1		 mov	 eax, ecx
  00002	33 c9		 xor	 ecx, ecx
  00004	c7 00 00 00 00
	00		 mov	 DWORD PTR [eax], OFFSET FLAT:??_7CTimeCtrl@@6B@
  0000a	88 48 10	 mov	 BYTE PTR [eax+16], cl
  0000d	89 48 04	 mov	 DWORD PTR [eax+4], ecx
  00010	89 48 0c	 mov	 DWORD PTR [eax+12], ecx
  00013	89 48 08	 mov	 DWORD PTR [eax+8], ecx
  00016	c3		 ret	 0
??0CTimeCtrl@@QAE@XZ ENDP				; CTimeCtrl::CTimeCtrl
_TEXT	ENDS
PUBLIC	??1CTimeCtrl@@UAE@XZ				; CTimeCtrl::~CTimeCtrl
; Function compile flags: /Ogsy
;	COMDAT ??1CTimeCtrl@@UAE@XZ
_TEXT	SEGMENT
??1CTimeCtrl@@UAE@XZ PROC NEAR				; CTimeCtrl::~CTimeCtrl, COMDAT
; _this$ = ecx

; 58   : 	virtual ~CTimeCtrl(){}

  00000	c7 01 00 00 00
	00		 mov	 DWORD PTR [ecx], OFFSET FLAT:??_7CTimeCtrl@@6B@
  00006	c3		 ret	 0
??1CTimeCtrl@@UAE@XZ ENDP				; CTimeCtrl::~CTimeCtrl
_TEXT	ENDS
EXTRN	??3@YAXPAX@Z:NEAR				; operator delete
; Function compile flags: /Ogsy
;	COMDAT ??_GCTimeCtrl@@UAEPAXI@Z
_TEXT	SEGMENT
___flags$ = 8						; size = 4
??_GCTimeCtrl@@UAEPAXI@Z PROC NEAR			; CTimeCtrl::`scalar deleting destructor', COMDAT
; _this$ = ecx
  00000	f6 44 24 04 01	 test	 BYTE PTR ___flags$[esp-4], 1
  00005	56		 push	 esi
  00006	8b f1		 mov	 esi, ecx
  00008	c7 06 00 00 00
	00		 mov	 DWORD PTR [esi], OFFSET FLAT:??_7CTimeCtrl@@6B@
  0000e	74 07		 je	 SHORT $L99427
  00010	56		 push	 esi
  00011	e8 00 00 00 00	 call	 ??3@YAXPAX@Z		; operator delete
  00016	59		 pop	 ecx
$L99427:
  00017	8b c6		 mov	 eax, esi
  00019	5e		 pop	 esi
  0001a	c2 04 00	 ret	 4
??_GCTimeCtrl@@UAEPAXI@Z ENDP				; CTimeCtrl::`scalar deleting destructor'
_TEXT	ENDS
PUBLIC	?__stl_new@_STL@@YAPAXI@Z			; _STL::__stl_new
EXTRN	??2@YAPAXI@Z:NEAR				; operator new
; Function compile flags: /Ogsy
; File c:\stlport-4.6.1\stlport\stl\_new.h
;	COMDAT ?__stl_new@_STL@@YAPAXI@Z
_TEXT	SEGMENT
___n$ = 8						; size = 4
?__stl_new@_STL@@YAPAXI@Z PROC NEAR			; _STL::__stl_new, COMDAT

; 86   : inline void*  _STLP_CALL __stl_new(size_t __n)   { _STLP_CHECK_NULL_ALLOC(::operator _STLP_NEW(__n)); }

  00000	e9 00 00 00 00	 jmp	 ??2@YAPAXI@Z		; operator new
?__stl_new@_STL@@YAPAXI@Z ENDP				; _STL::__stl_new
_TEXT	ENDS
PUBLIC	?__stl_delete@_STL@@YAXPAX@Z			; _STL::__stl_delete
; Function compile flags: /Ogsy
;	COMDAT ?__stl_delete@_STL@@YAXPAX@Z
_TEXT	SEGMENT
___p$ = 8						; size = 4
?__stl_delete@_STL@@YAXPAX@Z PROC NEAR			; _STL::__stl_delete, COMDAT

; 87   : inline void   _STLP_CALL __stl_delete(void* __p) { ::operator delete(__p); }

  00000	e9 00 00 00 00	 jmp	 ??3@YAXPAX@Z		; operator delete
?__stl_delete@_STL@@YAXPAX@Z ENDP			; _STL::__stl_delete
_TEXT	ENDS
PUBLIC	?_Destroy@_STL@@YAXPAD0@Z			; _STL::_Destroy
; Function compile flags: /Ogsy
; File c:\stlport-4.6.1\stlport\stl\_construct.h
;	COMDAT ?_Destroy@_STL@@YAXPAD0@Z
_TEXT	SEGMENT
___formal$ = 8						; size = 4
___formal$ = 12						; size = 4
?_Destroy@_STL@@YAXPAD0@Z PROC NEAR			; _STL::_Destroy, COMDAT

; 142  : inline void _Destroy(char*, char*) {}

  00000	c3		 ret	 0
?_Destroy@_STL@@YAXPAD0@Z ENDP				; _STL::_Destroy
_TEXT	ENDS
PUBLIC	?__copy_trivial@_STL@@YAPAXPBX0PAX@Z		; _STL::__copy_trivial
EXTRN	_memmove:NEAR
; Function compile flags: /Ogsy
; File c:\stlport-4.6.1\stlport\stl\_algobase.h
;	COMDAT ?__copy_trivial@_STL@@YAPAXPBX0PAX@Z
_TEXT	SEGMENT
___first$ = 8						; size = 4
___last$ = 12						; size = 4
___result$ = 16						; size = 4
?__copy_trivial@_STL@@YAPAXPBX0PAX@Z PROC NEAR		; _STL::__copy_trivial, COMDAT

; 147  : __copy_trivial(const void* __first, const void* __last, void* __result) {

  00000	55		 push	 ebp
  00001	8b ec		 mov	 ebp, esp
  00003	56		 push	 esi

; 148  :   return (__last == __first) ? __result : 
; 149  :     ((char*)memmove(__result, __first, ((const char*)__last - (const char*)__first))) + 
; 150  :     ((const char*)__last - (const char*)__first);

  00004	8b 75 0c	 mov	 esi, DWORD PTR ___last$[ebp]
  00007	3b 75 08	 cmp	 esi, DWORD PTR ___first$[ebp]
  0000a	75 05		 jne	 SHORT $L118585
  0000c	8b 45 10	 mov	 eax, DWORD PTR ___result$[ebp]
  0000f	eb 14		 jmp	 SHORT $L118586
$L118585:
  00011	2b 75 08	 sub	 esi, DWORD PTR ___first$[ebp]
  00014	56		 push	 esi
  00015	ff 75 08	 push	 DWORD PTR ___first$[ebp]
  00018	ff 75 10	 push	 DWORD PTR ___result$[ebp]
  0001b	e8 00 00 00 00	 call	 _memmove
  00020	83 c4 0c	 add	 esp, 12			; 0000000cH
  00023	03 c6		 add	 eax, esi
$L118586:
  00025	5e		 pop	 esi

; 151  : }

  00026	5d		 pop	 ebp
  00027	c3		 ret	 0
?__copy_trivial@_STL@@YAPAXPBX0PAX@Z ENDP		; _STL::__copy_trivial
_TEXT	ENDS
PUBLIC	?uninitialized_copy@_STL@@YAPADPBD0PAD@Z	; _STL::uninitialized_copy
; Function compile flags: /Ogsy
; File c:\stlport-4.6.1\stlport\stl\_uninitialized.h
;	COMDAT ?uninitialized_copy@_STL@@YAPADPBD0PAD@Z
_TEXT	SEGMENT
___first$ = 8						; size = 4
___last$ = 12						; size = 4
___result$ = 16						; size = 4
?uninitialized_copy@_STL@@YAPADPBD0PAD@Z PROC NEAR	; _STL::uninitialized_copy, COMDAT

; 84   :   return  (char*)__copy_trivial (__first, __last, __result);

  00000	e9 00 00 00 00	 jmp	 ?__copy_trivial@_STL@@YAPAXPBX0PAX@Z ; _STL::__copy_trivial
?uninitialized_copy@_STL@@YAPADPBD0PAD@Z ENDP		; _STL::uninitialized_copy
_TEXT	ENDS
PUBLIC	?length@?$char_traits@D@_STL@@SAIPBD@Z		; _STL::char_traits<char>::length
EXTRN	_strlen:NEAR
; Function compile flags: /Ogsy
; File c:\stlport-4.6.1\stlport\stl\char_traits.h
;	COMDAT ?length@?$char_traits@D@_STL@@SAIPBD@Z
_TEXT	SEGMENT
___s$ = 8						; size = 4
?length@?$char_traits@D@_STL@@SAIPBD@Z PROC NEAR	; _STL::char_traits<char>::length, COMDAT

; 238  :   static size_t _STLP_CALL length(const char* __s) { return strlen(__s); }

  00000	e9 00 00 00 00	 jmp	 _strlen
?length@?$char_traits@D@_STL@@SAIPBD@Z ENDP		; _STL::char_traits<char>::length
_TEXT	ENDS
PUBLIC	?assign@?$char_traits@D@_STL@@SAXAADABD@Z	; _STL::char_traits<char>::assign
; Function compile flags: /Ogsy
;	COMDAT ?assign@?$char_traits@D@_STL@@SAXAADABD@Z
_TEXT	SEGMENT
___c1$ = 8						; size = 4
___c2$ = 12						; size = 4
?assign@?$char_traits@D@_STL@@SAXAADABD@Z PROC NEAR	; _STL::char_traits<char>::assign, COMDAT

; 240  :   static void _STLP_CALL assign(char& __c1, const char& __c2) { __c1 = __c2; }

  00000	8b 44 24 08	 mov	 eax, DWORD PTR ___c2$[esp-4]
  00004	8a 00		 mov	 al, BYTE PTR [eax]
  00006	8b 4c 24 04	 mov	 ecx, DWORD PTR ___c1$[esp-4]
  0000a	88 01		 mov	 BYTE PTR [ecx], al
  0000c	c3		 ret	 0
?assign@?$char_traits@D@_STL@@SAXAADABD@Z ENDP		; _STL::char_traits<char>::assign
_TEXT	ENDS
PUBLIC	?SetTextPos@CInfomationBord@@QAE?AUtagRECT@@HH@Z ; CInfomationBord::SetTextPos
EXTRN	?g_pUserInformation@@3PAVUserInformation@@A:DWORD ; g_pUserInformation
; Function compile flags: /Ogsy
; File c:\darkeden\designed_common\project\client\cmessagearray.cpp
;	COMDAT ?SetTextPos@CInfomationBord@@QAE?AUtagRECT@@HH@Z
_TEXT	SEGMENT
_InfoBordRt$ = -16					; size = 16
___$ReturnUdt$ = 8					; size = 4
_x$ = 12						; size = 4
_y$ = 16						; size = 4
?SetTextPos@CInfomationBord@@QAE?AUtagRECT@@HH@Z PROC NEAR ; CInfomationBord::SetTextPos, COMDAT
; _this$ = ecx

; 160  : {

  00000	55		 push	 ebp
  00001	8b ec		 mov	 ebp, esp
  00003	83 ec 10	 sub	 esp, 16			; 00000010H

; 161  : 	int InfoBordWidth = g_pUserInformation->iResolution_x / 2;

  00006	8b 0d 00 00 00
	00		 mov	 ecx, DWORD PTR ?g_pUserInformation@@3PAVUserInformation@@A ; g_pUserInformation
  0000c	56		 push	 esi
  0000d	8b b1 4c 01 00
	00		 mov	 esi, DWORD PTR [ecx+332]
  00013	8b c6		 mov	 eax, esi
  00015	57		 push	 edi
  00016	99		 cdq
  00017	2b c2		 sub	 eax, edx
  00019	8b f8		 mov	 edi, eax

; 162  : 	int InfoBordHeight = 20;	
; 163  : 	int InfoBordX = (g_pUserInformation->iResolution_x-InfoBordWidth);
; 164  : 	int InfoBordY = g_pUserInformation->iResolution_y / 4 - 128;	

  0001b	8b 81 50 01 00
	00		 mov	 eax, DWORD PTR [ecx+336]
  00021	99		 cdq
  00022	6a 04		 push	 4
  00024	59		 pop	 ecx
  00025	f7 f9		 idiv	 ecx
  00027	d1 ff		 sar	 edi, 1
  00029	2b f7		 sub	 esi, edi

; 165  : 
; 166  : 	RECT InfoBordRt = {InfoBordX, InfoBordY, InfoBordX+InfoBordWidth, InfoBordY+InfoBordHeight};

  0002b	89 75 f0	 mov	 DWORD PTR _InfoBordRt$[ebp], esi
  0002e	03 f7		 add	 esi, edi
  00030	89 75 f8	 mov	 DWORD PTR _InfoBordRt$[ebp+8], esi

; 167  : 
; 168  : 	return InfoBordRt;

  00033	8d 75 f0	 lea	 esi, DWORD PTR _InfoBordRt$[ebp]
  00036	2d 80 00 00 00	 sub	 eax, 128		; 00000080H
  0003b	89 45 f4	 mov	 DWORD PTR _InfoBordRt$[ebp+4], eax
  0003e	83 c0 14	 add	 eax, 20			; 00000014H
  00041	89 45 fc	 mov	 DWORD PTR _InfoBordRt$[ebp+12], eax
  00044	8b 45 08	 mov	 eax, DWORD PTR ___$ReturnUdt$[ebp]
  00047	8b f8		 mov	 edi, eax
  00049	a5		 movsd
  0004a	a5		 movsd
  0004b	a5		 movsd
  0004c	a5		 movsd
  0004d	5f		 pop	 edi
  0004e	5e		 pop	 esi

; 169  : }

  0004f	c9		 leave
  00050	c2 0c 00	 ret	 12			; 0000000cH
?SetTextPos@CInfomationBord@@QAE?AUtagRECT@@HH@Z ENDP	; CInfomationBord::SetTextPos
_TEXT	ENDS
PUBLIC	?DrawTextA@@YAXHHPBDPAUPrintInfo@@@Z		; DrawTextA
EXTRN	?g_DrawText@@YAXPAUtagRECT@@PBDPAUPrintInfo@@@Z:NEAR ; g_DrawText
; Function compile flags: /Ogsy
;	COMDAT ?DrawTextA@@YAXHHPBDPAUPrintInfo@@@Z
_TEXT	SEGMENT
_rcRect$ = -16						; size = 16
_x$ = 8							; size = 4
_y$ = 12						; size = 4
_szStr$ = 16						; size = 4
_pInfo$ = 20						; size = 4
?DrawTextA@@YAXHHPBDPAUPrintInfo@@@Z PROC NEAR		; DrawTextA, COMDAT

; 172  : {

  00000	55		 push	 ebp
  00001	8b ec		 mov	 ebp, esp
  00003	83 ec 10	 sub	 esp, 16			; 00000010H

; 173  : 	RECT rcRect = {x, y, x+500, y + 20};

  00006	8b 45 08	 mov	 eax, DWORD PTR _x$[ebp]

; 174  : 	g_DrawText (&rcRect, szStr, pInfo);

  00009	ff 75 14	 push	 DWORD PTR _pInfo$[ebp]
  0000c	8b 4d 0c	 mov	 ecx, DWORD PTR _y$[ebp]
  0000f	ff 75 10	 push	 DWORD PTR _szStr$[ebp]
  00012	89 45 f0	 mov	 DWORD PTR _rcRect$[ebp], eax
  00015	05 f4 01 00 00	 add	 eax, 500		; 000001f4H
  0001a	89 45 f8	 mov	 DWORD PTR _rcRect$[ebp+8], eax
  0001d	89 4d f4	 mov	 DWORD PTR _rcRect$[ebp+4], ecx
  00020	8d 45 f0	 lea	 eax, DWORD PTR _rcRect$[ebp]
  00023	83 c1 14	 add	 ecx, 20			; 00000014H
  00026	50		 push	 eax
  00027	89 4d fc	 mov	 DWORD PTR _rcRect$[ebp+12], ecx
  0002a	e8 00 00 00 00	 call	 ?g_DrawText@@YAXPAUtagRECT@@PBDPAUPrintInfo@@@Z ; g_DrawText
  0002f	83 c4 0c	 add	 esp, 12			; 0000000cH

; 175  : }

  00032	c9		 leave
  00033	c3		 ret	 0
?DrawTextA@@YAXHHPBDPAUPrintInfo@@@Z ENDP		; DrawTextA
_TEXT	ENDS
PUBLIC	??0CMessageArray@@QAE@XZ			; CMessageArray::CMessageArray
; Function compile flags: /Ogsy
;	COMDAT ??0CMessageArray@@QAE@XZ
_TEXT	SEGMENT
??0CMessageArray@@QAE@XZ PROC NEAR			; CMessageArray::CMessageArray, COMDAT
; _this$ = ecx

; 221  : {

  00000	8b c1		 mov	 eax, ecx
  00002	33 c9		 xor	 ecx, ecx
  00004	c7 40 10 00 00
	00 00		 mov	 DWORD PTR [eax+16], OFFSET FLAT:??_7CTimeCtrl@@6B@
  0000b	88 48 20	 mov	 BYTE PTR [eax+32], cl
  0000e	89 48 14	 mov	 DWORD PTR [eax+20], ecx
  00011	89 48 1c	 mov	 DWORD PTR [eax+28], ecx
  00014	89 48 18	 mov	 DWORD PTR [eax+24], ecx

; 222  : 	m_Max		= 0;

  00017	89 48 04	 mov	 DWORD PTR [eax+4], ecx

; 223  : 	m_Length	= 0;

  0001a	89 08		 mov	 DWORD PTR [eax], ecx

; 224  : 	m_Current	= 0;

  0001c	89 48 0c	 mov	 DWORD PTR [eax+12], ecx

; 225  : 	m_ppMessage = NULL;

  0001f	89 48 08	 mov	 DWORD PTR [eax+8], ecx

; 226  : 
; 227  : 	m_bLog		= false;

  00022	88 48 24	 mov	 BYTE PTR [eax+36], cl

; 228  : 	m_LogFile	= 0;

  00025	89 48 28	 mov	 DWORD PTR [eax+40], ecx

; 229  : 	m_Filename	= NULL;

  00028	89 48 2c	 mov	 DWORD PTR [eax+44], ecx

; 230  : }

  0002b	c3		 ret	 0
??0CMessageArray@@QAE@XZ ENDP				; CMessageArray::CMessageArray
_TEXT	ENDS
PUBLIC	?Release@CMessageArray@@QAEXXZ			; CMessageArray::Release
EXTRN	__close:NEAR
EXTRN	??_V@YAXPAX@Z:NEAR				; operator delete[]
; Function compile flags: /Ogsy
;	COMDAT ?Release@CMessageArray@@QAEXXZ
_TEXT	SEGMENT
?Release@CMessageArray@@QAEXXZ PROC NEAR		; CMessageArray::Release, COMDAT
; _this$ = ecx

; 287  : {

  00000	53		 push	 ebx
  00001	56		 push	 esi
  00002	8b f1		 mov	 esi, ecx

; 288  : 	//   ..
; 289  : 	// ..    .
; 290  : 	// .. ..
; 291  : 	//#ifndef _DEBUG
; 292  : 		if (m_ppMessage!=NULL)

  00004	33 db		 xor	 ebx, ebx
  00006	39 5e 08	 cmp	 DWORD PTR [esi+8], ebx
  00009	74 34		 je	 SHORT $L117148
  0000b	57		 push	 edi

; 293  : 		{
; 294  : 			for (int i=0; i<m_Max; i++)

  0000c	33 ff		 xor	 edi, edi
  0000e	39 5e 04	 cmp	 DWORD PTR [esi+4], ebx
  00011	7e 17		 jle	 SHORT $L117152
$L117150:

; 295  : 			{
; 296  : 				if (m_ppMessage[i]!=NULL)

  00013	8b 46 08	 mov	 eax, DWORD PTR [esi+8]
  00016	8b 04 b8	 mov	 eax, DWORD PTR [eax+edi*4]
  00019	3b c3		 cmp	 eax, ebx
  0001b	74 07		 je	 SHORT $L117151

; 297  : 				{			
; 298  : 					delete [] m_ppMessage[i];			

  0001d	50		 push	 eax
  0001e	e8 00 00 00 00	 call	 ??_V@YAXPAX@Z		; operator delete[]
  00023	59		 pop	 ecx
$L117151:
  00024	47		 inc	 edi
  00025	3b 7e 04	 cmp	 edi, DWORD PTR [esi+4]
  00028	7c e9		 jl	 SHORT $L117150
$L117152:

; 299  : 				}
; 300  : 			}
; 301  : 
; 302  : 			delete [] m_ppMessage;

  0002a	ff 76 08	 push	 DWORD PTR [esi+8]
  0002d	e8 00 00 00 00	 call	 ??_V@YAXPAX@Z		; operator delete[]
  00032	59		 pop	 ecx

; 303  : 
; 304  : 			m_Max		= 0;

  00033	89 5e 04	 mov	 DWORD PTR [esi+4], ebx

; 305  : 			m_Length	= 0;

  00036	89 1e		 mov	 DWORD PTR [esi], ebx

; 306  : 			m_Current	= 0;

  00038	89 5e 0c	 mov	 DWORD PTR [esi+12], ebx

; 307  : 			m_ppMessage = NULL;

  0003b	89 5e 08	 mov	 DWORD PTR [esi+8], ebx
  0003e	5f		 pop	 edi
$L117148:

; 308  : 		}
; 309  : 	//#endif
; 310  : 
; 311  : 	// file log
; 312  : 	if (m_bLog)

  0003f	38 5e 24	 cmp	 BYTE PTR [esi+36], bl
  00042	74 1a		 je	 SHORT $L117157

; 313  : 	{
; 314  : 		_close(m_LogFile);

  00044	ff 76 28	 push	 DWORD PTR [esi+40]
  00047	e8 00 00 00 00	 call	 __close

; 315  : 		m_bLog = false;

  0004c	88 5e 24	 mov	 BYTE PTR [esi+36], bl

; 316  : 
; 317  : 		if (m_Filename != NULL)

  0004f	8b 76 2c	 mov	 esi, DWORD PTR [esi+44]
  00052	3b f3		 cmp	 esi, ebx
  00054	59		 pop	 ecx
  00055	74 07		 je	 SHORT $L117157

; 318  : 		{
; 319  : 			delete [] m_Filename;

  00057	56		 push	 esi
  00058	e8 00 00 00 00	 call	 ??_V@YAXPAX@Z		; operator delete[]
  0005d	59		 pop	 ecx
$L117157:
  0005e	5e		 pop	 esi
  0005f	5b		 pop	 ebx

; 320  : 		}
; 321  : 	}
; 322  : }

  00060	c3		 ret	 0
?Release@CMessageArray@@QAEXXZ ENDP			; CMessageArray::Release
_TEXT	ENDS
PUBLIC	??_C@_01EEMJAFIK@?6?$AA@			; `string'
PUBLIC	?Add@CMessageArray@@QAEXPBD@Z			; CMessageArray::Add
EXTRN	__write:NEAR
EXTRN	_strcpy:NEAR
;	COMDAT ??_C@_01EEMJAFIK@?6?$AA@
CONST	SEGMENT
??_C@_01EEMJAFIK@?6?$AA@ DB 0aH, 00H			; `string'
; Function compile flags: /Ogsy
CONST	ENDS
;	COMDAT ?Add@CMessageArray@@QAEXPBD@Z
_TEXT	SEGMENT
_str$ = 8						; size = 4
?Add@CMessageArray@@QAEXPBD@Z PROC NEAR			; CMessageArray::Add, COMDAT
; _this$ = ecx

; 331  : {	

  00000	53		 push	 ebx
  00001	55		 push	 ebp
  00002	56		 push	 esi
  00003	57		 push	 edi

; 332  : 	#ifndef __LOGGING__
; 333  : 		return;
; 334  : 	#endif
; 335  : 
; 336  : 	__BEGIN_LOCK	
; 337  : 
; 338  : 	int len = strlen(str);

  00004	8b 7c 24 14	 mov	 edi, DWORD PTR _str$[esp+12]
  00008	57		 push	 edi
  00009	8b f1		 mov	 esi, ecx
  0000b	e8 00 00 00 00	 call	 _strlen

; 339  : 	
; 340  : 	// file log
; 341  : 	if (m_bLog)

  00010	33 db		 xor	 ebx, ebx
  00012	38 5e 24	 cmp	 BYTE PTR [esi+36], bl
  00015	59		 pop	 ecx
  00016	8b e8		 mov	 ebp, eax
  00018	74 1c		 je	 SHORT $L117165

; 342  : 	{ 
; 343  : 		// [ TEST CODE ]  
; 344  : 		//sprintf(g_MessageBuffer, "[%4d] ", timeGetTime() % 10000);
; 345  : 		//_write( m_LogFile, g_MessageBuffer, strlen(g_MessageBuffer) );
; 346  : 
; 347  : 		//m_LogFile << str << endl;
; 348  : 		_write( m_LogFile, str, len );

  0001a	55		 push	 ebp
  0001b	57		 push	 edi
  0001c	ff 76 28	 push	 DWORD PTR [esi+40]
  0001f	e8 00 00 00 00	 call	 __write

; 349  : 		_write( m_LogFile, "\n", 1 );

  00024	6a 01		 push	 1
  00026	68 00 00 00 00	 push	 OFFSET FLAT:??_C@_01EEMJAFIK@?6?$AA@
  0002b	ff 76 28	 push	 DWORD PTR [esi+40]
  0002e	e8 00 00 00 00	 call	 __write
  00033	83 c4 18	 add	 esp, 24			; 00000018H
$L117165:

; 350  : 
; 351  : 		// [ TEST CODE ]    
; 352  : 		#ifdef OUTPUT_FILE_LOG
; 353  : 			_close( m_LogFile );
; 354  : 			m_LogFile = _open(m_Filename, _O_WRONLY | _O_TEXT | _O_APPEND | _O_CREAT);
; 355  : 		#endif
; 356  : 	}	
; 357  : 
; 358  : 	if (m_Current < 0)

  00036	39 5e 0c	 cmp	 DWORD PTR [esi+12], ebx
  00039	7d 03		 jge	 SHORT $L117167

; 359  : 		m_Current = 0;

  0003b	89 5e 0c	 mov	 DWORD PTR [esi+12], ebx
$L117167:

; 360  : 
; 361  : 	if (len >= m_Length)

  0003e	8b 0e		 mov	 ecx, DWORD PTR [esi]
  00040	3b e9		 cmp	 ebp, ecx
  00042	7c 2a		 jl	 SHORT $L117168

; 362  : 	{		
; 363  : 		for (int i=0; i<m_Length; i++)

  00044	33 c0		 xor	 eax, eax
  00046	3b cb		 cmp	 ecx, ebx
  00048	7e 14		 jle	 SHORT $L117172
$L117170:

; 364  : 		{
; 365  : 			m_ppMessage[m_Current][i] = str[i];

  0004a	8b 56 08	 mov	 edx, DWORD PTR [esi+8]
  0004d	8b 4e 0c	 mov	 ecx, DWORD PTR [esi+12]
  00050	8b 0c 8a	 mov	 ecx, DWORD PTR [edx+ecx*4]
  00053	8a 14 38	 mov	 dl, BYTE PTR [eax+edi]
  00056	88 14 08	 mov	 BYTE PTR [eax+ecx], dl
  00059	40		 inc	 eax
  0005a	3b 06		 cmp	 eax, DWORD PTR [esi]
  0005c	7c ec		 jl	 SHORT $L117170
$L117172:

; 366  : 		}	
; 367  : 		m_ppMessage[m_Current][m_Length] = NULL;		

  0005e	8b 4e 08	 mov	 ecx, DWORD PTR [esi+8]
  00061	8b 46 0c	 mov	 eax, DWORD PTR [esi+12]
  00064	8b 04 81	 mov	 eax, DWORD PTR [ecx+eax*4]
  00067	8b 0e		 mov	 ecx, DWORD PTR [esi]
  00069	88 1c 08	 mov	 BYTE PTR [eax+ecx], bl

; 368  : 		//strcpy(m_ppMessage[m_Current], "[ERROR] CMessageArray::Add() - String too long");		
; 369  : 	}
; 370  : 	else

  0006c	eb 11		 jmp	 SHORT $L117173
$L117168:

; 371  : 	{
; 372  : 		// 
; 373  : 		strcpy(m_ppMessage[m_Current], str);

  0006e	8b 46 0c	 mov	 eax, DWORD PTR [esi+12]
  00071	8b 4e 08	 mov	 ecx, DWORD PTR [esi+8]
  00074	57		 push	 edi
  00075	ff 34 81	 push	 DWORD PTR [ecx+eax*4]
  00078	e8 00 00 00 00	 call	 _strcpy
  0007d	59		 pop	 ecx
  0007e	59		 pop	 ecx
$L117173:

; 374  : 	}
; 375  : 
; 376  : 	m_Current++;

  0007f	ff 46 0c	 inc	 DWORD PTR [esi+12]
  00082	8b 46 0c	 mov	 eax, DWORD PTR [esi+12]

; 377  : 	if (m_Current==m_Max) m_Current=0;

  00085	3b 46 04	 cmp	 eax, DWORD PTR [esi+4]
  00088	75 03		 jne	 SHORT $L117174
  0008a	89 5e 0c	 mov	 DWORD PTR [esi+12], ebx
$L117174:
  0008d	5f		 pop	 edi
  0008e	5e		 pop	 esi
  0008f	5d		 pop	 ebp
  00090	5b		 pop	 ebx

; 378  : 
; 379  : 	__END_LOCK
; 380  : }

  00091	c2 04 00	 ret	 4
?Add@CMessageArray@@QAEXPBD@Z ENDP			; CMessageArray::Add
_TEXT	ENDS
PUBLIC	?AddToFile@CMessageArray@@QAEXPBD@Z		; CMessageArray::AddToFile
; Function compile flags: /Ogsy
;	COMDAT ?AddToFile@CMessageArray@@QAEXPBD@Z
_TEXT	SEGMENT
_str$ = 8						; size = 4
?AddToFile@CMessageArray@@QAEXPBD@Z PROC NEAR		; CMessageArray::AddToFile, COMDAT
; _this$ = ecx

; 389  : {

  00000	56		 push	 esi
  00001	8b f1		 mov	 esi, ecx

; 390  : 	#ifndef __LOGGING__
; 391  : 		return;
; 392  : 	#endif
; 393  : 
; 394  : 	__BEGIN_LOCK
; 395  : 	
; 396  : 	// file log
; 397  : 	if (m_bLog)

  00003	80 7e 24 00	 cmp	 BYTE PTR [esi+36], 0
  00007	74 28		 je	 SHORT $L117181

; 398  : 	{
; 399  : 		// [ TEST CODE ]  
; 400  : 		//sprintf(g_MessageBuffer, "[%4d] ", timeGetTime() % 10000);
; 401  : 		//_write( m_LogFile, g_MessageBuffer, strlen(g_MessageBuffer) );
; 402  : 
; 403  : 		//m_LogFile << str << endl;
; 404  : 		_write( m_LogFile, str, strlen( str ) );

  00009	ff 74 24 08	 push	 DWORD PTR _str$[esp]
  0000d	e8 00 00 00 00	 call	 _strlen
  00012	50		 push	 eax
  00013	ff 74 24 10	 push	 DWORD PTR _str$[esp+8]
  00017	ff 76 28	 push	 DWORD PTR [esi+40]
  0001a	e8 00 00 00 00	 call	 __write

; 405  : 		_write( m_LogFile, "\n", 1 );

  0001f	6a 01		 push	 1
  00021	68 00 00 00 00	 push	 OFFSET FLAT:??_C@_01EEMJAFIK@?6?$AA@
  00026	ff 76 28	 push	 DWORD PTR [esi+40]
  00029	e8 00 00 00 00	 call	 __write
  0002e	83 c4 1c	 add	 esp, 28			; 0000001cH
$L117181:
  00031	5e		 pop	 esi

; 406  : 
; 407  : 		// [ TEST CODE ]    
; 408  : 		#ifdef OUTPUT_FILE_LOG
; 409  : 			_close( m_LogFile );
; 410  : 			m_LogFile = _open(m_Filename, _O_WRONLY | _O_TEXT | _O_APPEND | _O_CREAT);
; 411  : 		#endif
; 412  : 	}	
; 413  : 
; 414  : 	__END_LOCK
; 415  : }

  00032	c2 04 00	 ret	 4
?AddToFile@CMessageArray@@QAEXPBD@Z ENDP		; CMessageArray::AddToFile
_TEXT	ENDS
PUBLIC	?AddFormatVL@CMessageArray@@QAEXPBD@Z		; CMessageArray::AddFormatVL
; Function compile flags: /Ogsy
;	COMDAT ?AddFormatVL@CMessageArray@@QAEXPBD@Z
_TEXT	SEGMENT
_format$ = 8						; size = 4
?AddFormatVL@CMessageArray@@QAEXPBD@Z PROC NEAR		; CMessageArray::AddFormatVL, COMDAT
; _this$ = ecx

; 422  : {

  00000	53		 push	 ebx
  00001	56		 push	 esi
  00002	57		 push	 edi

; 423  : 	__BEGIN_LOCK
; 424  : 
; 425  : 	int len = strlen(format);

  00003	8b 7c 24 10	 mov	 edi, DWORD PTR _format$[esp+8]
  00007	57		 push	 edi
  00008	8b f1		 mov	 esi, ecx
  0000a	e8 00 00 00 00	 call	 _strlen

; 426  :  
; 427  : 	// file log
; 428  : 	if (m_bLog)

  0000f	80 7e 24 00	 cmp	 BYTE PTR [esi+36], 0
  00013	59		 pop	 ecx
  00014	8b d8		 mov	 ebx, eax
  00016	74 1c		 je	 SHORT $L117189

; 429  : 	{
; 430  : 		// [ TEST CODE ]  
; 431  : 		//sprintf(g_MessageBuffer, "[%4d] ", timeGetTime() % 10000);
; 432  : 		//_write( m_LogFile, g_MessageBuffer, strlen(g_MessageBuffer) );
; 433  : 
; 434  : 		//m_LogFile << str << endl;
; 435  : 		_write( m_LogFile, format, len );

  00018	53		 push	 ebx
  00019	57		 push	 edi
  0001a	ff 76 28	 push	 DWORD PTR [esi+40]
  0001d	e8 00 00 00 00	 call	 __write

; 436  : 		_write( m_LogFile, "\n", 1 );

  00022	6a 01		 push	 1
  00024	68 00 00 00 00	 push	 OFFSET FLAT:??_C@_01EEMJAFIK@?6?$AA@
  00029	ff 76 28	 push	 DWORD PTR [esi+40]
  0002c	e8 00 00 00 00	 call	 __write
  00031	83 c4 18	 add	 esp, 24			; 00000018H
$L117189:

; 437  : 
; 438  : 		// [ TEST CODE ]    
; 439  : 		#ifdef OUTPUT_FILE_LOG
; 440  : 			_close( m_LogFile );
; 441  : 			m_LogFile = _open(m_Filename, _O_WRONLY | _O_TEXT | _O_APPEND | _O_CREAT);
; 442  : 		#endif
; 443  : 	}	
; 444  : 
; 445  : 	//  .. ( . - -;;)
; 446  : 	if (len >= m_Length)

  00034	8b 0e		 mov	 ecx, DWORD PTR [esi]
  00036	3b d9		 cmp	 ebx, ecx
  00038	7c 2b		 jl	 SHORT $L117190

; 447  : 	{		
; 448  : 		for (int i=0; i<m_Length; i++)

  0003a	33 c0		 xor	 eax, eax
  0003c	85 c9		 test	 ecx, ecx
  0003e	7e 14		 jle	 SHORT $L117194
$L117192:

; 449  : 		{
; 450  : 			m_ppMessage[m_Current][i] = format[i];

  00040	8b 56 08	 mov	 edx, DWORD PTR [esi+8]
  00043	8b 4e 0c	 mov	 ecx, DWORD PTR [esi+12]
  00046	8b 0c 8a	 mov	 ecx, DWORD PTR [edx+ecx*4]
  00049	8a 14 38	 mov	 dl, BYTE PTR [eax+edi]
  0004c	88 14 08	 mov	 BYTE PTR [eax+ecx], dl
  0004f	40		 inc	 eax
  00050	3b 06		 cmp	 eax, DWORD PTR [esi]
  00052	7c ec		 jl	 SHORT $L117192
$L117194:

; 451  : 		}	
; 452  : 
; 453  : 		m_ppMessage[m_Current][m_Length] = NULL;	

  00054	8b 4e 08	 mov	 ecx, DWORD PTR [esi+8]
  00057	8b 46 0c	 mov	 eax, DWORD PTR [esi+12]
  0005a	8b 04 81	 mov	 eax, DWORD PTR [ecx+eax*4]
  0005d	8b 0e		 mov	 ecx, DWORD PTR [esi]
  0005f	c6 04 08 00	 mov	 BYTE PTR [eax+ecx], 0

; 454  : 	}
; 455  : 	else

  00063	eb 11		 jmp	 SHORT $L117195
$L117190:

; 456  : 	{
; 457  : 		// 
; 458  : 		strcpy(m_ppMessage[m_Current], format);

  00065	8b 46 0c	 mov	 eax, DWORD PTR [esi+12]
  00068	8b 4e 08	 mov	 ecx, DWORD PTR [esi+8]
  0006b	57		 push	 edi
  0006c	ff 34 81	 push	 DWORD PTR [ecx+eax*4]
  0006f	e8 00 00 00 00	 call	 _strcpy
  00074	59		 pop	 ecx
  00075	59		 pop	 ecx
$L117195:

; 459  : 	}
; 460  : 	
; 461  : 
; 462  : 	m_Current++;

  00076	ff 46 0c	 inc	 DWORD PTR [esi+12]
  00079	8b 46 0c	 mov	 eax, DWORD PTR [esi+12]

; 463  : 	if (m_Current==m_Max) m_Current=0;

  0007c	3b 46 04	 cmp	 eax, DWORD PTR [esi+4]
  0007f	75 04		 jne	 SHORT $L117196
  00081	83 66 0c 00	 and	 DWORD PTR [esi+12], 0
$L117196:
  00085	5f		 pop	 edi
  00086	5e		 pop	 esi
  00087	5b		 pop	 ebx

; 464  : 
; 465  : 	__END_LOCK
; 466  : }

  00088	c2 04 00	 ret	 4
?AddFormatVL@CMessageArray@@QAEXPBD@Z ENDP		; CMessageArray::AddFormatVL
_TEXT	ENDS
PUBLIC	?AddFormat@CMessageArray@@QAAXPBDZZ		; CMessageArray::AddFormat
EXTRN	_vsprintf:NEAR
;	COMDAT ?Buffer@?1??AddFormat@CMessageArray@@QAAXPBDZZ@4PADA
_BSS	SEGMENT
?Buffer@?1??AddFormat@CMessageArray@@QAAXPBDZZ@4PADA DB 01000H DUP (?) ; `CMessageArray::AddFormat'::`2'::Buffer
; Function compile flags: /Ogsy
_BSS	ENDS
;	COMDAT ?AddFormat@CMessageArray@@QAAXPBDZZ
_TEXT	SEGMENT
_this$ = 8						; size = 4
_format$ = 12						; size = 4
?AddFormat@CMessageArray@@QAAXPBDZZ PROC NEAR		; CMessageArray::AddFormat, COMDAT

; 475  : {

  00000	53		 push	 ebx
  00001	56		 push	 esi
  00002	57		 push	 edi

; 476  : 	#ifndef __LOGGING__
; 477  : 		return;
; 478  : 	#endif
; 479  : 
; 480  : 	__BEGIN_LOCK
; 481  : 	
; 482  : 
; 483  : 	va_list		vl;
; 484  : 	static char Buffer[4096];
; 485  : 
; 486  :     va_start(vl, format);
; 487  : 	vsprintf(Buffer, format, vl);    

  00003	8d 44 24 18	 lea	 eax, DWORD PTR _format$[esp+12]
  00007	50		 push	 eax
  00008	ff 74 24 18	 push	 DWORD PTR _format$[esp+12]
  0000c	bf 00 00 00 00	 mov	 edi, OFFSET FLAT:?Buffer@?1??AddFormat@CMessageArray@@QAAXPBDZZ@4PADA
  00011	57		 push	 edi
  00012	e8 00 00 00 00	 call	 _vsprintf

; 488  :     va_end(vl);
; 489  : 
; 490  : 	int len = strlen(Buffer);

  00017	57		 push	 edi
  00018	e8 00 00 00 00	 call	 _strlen

; 491  :  
; 492  : 	// file log
; 493  : 	if (m_bLog)

  0001d	8b 74 24 20	 mov	 esi, DWORD PTR _this$[esp+24]
  00021	83 c4 10	 add	 esp, 16			; 00000010H
  00024	80 7e 24 00	 cmp	 BYTE PTR [esi+36], 0
  00028	8b d8		 mov	 ebx, eax
  0002a	74 1c		 je	 SHORT $L117213

; 494  : 	{
; 495  : 		// [ TEST CODE ]  
; 496  : 		//sprintf(g_MessageBuffer, "[%4d] ", timeGetTime() % 10000);
; 497  : 		//_write( m_LogFile, g_MessageBuffer, strlen(g_MessageBuffer) );
; 498  : 
; 499  : 		//m_LogFile << str << endl;
; 500  : 		_write( m_LogFile, Buffer, len );

  0002c	53		 push	 ebx
  0002d	57		 push	 edi
  0002e	ff 76 28	 push	 DWORD PTR [esi+40]
  00031	e8 00 00 00 00	 call	 __write

; 501  : 		_write( m_LogFile, "\n", 1 );

  00036	6a 01		 push	 1
  00038	68 00 00 00 00	 push	 OFFSET FLAT:??_C@_01EEMJAFIK@?6?$AA@
  0003d	ff 76 28	 push	 DWORD PTR [esi+40]
  00040	e8 00 00 00 00	 call	 __write
  00045	83 c4 18	 add	 esp, 24			; 00000018H
$L117213:

; 502  : 
; 503  : 		// [ TEST CODE ]    
; 504  : 		#ifdef OUTPUT_FILE_LOG
; 505  : 			_close( m_LogFile );
; 506  : 			m_LogFile = _open(m_Filename, _O_WRONLY | _O_TEXT | _O_APPEND | _O_CREAT);
; 507  : 		#endif
; 508  : 	}	
; 509  : 
; 510  : 	//  .. ( . - -;;)
; 511  : 	if (len >= m_Length)

  00048	8b 0e		 mov	 ecx, DWORD PTR [esi]
  0004a	3b d9		 cmp	 ebx, ecx
  0004c	7c 2e		 jl	 SHORT $L117214

; 512  : 	{		
; 513  : 		for (int i=0; i<m_Length; i++)

  0004e	33 c0		 xor	 eax, eax
  00050	85 c9		 test	 ecx, ecx
  00052	7e 17		 jle	 SHORT $L117218
$L117216:

; 514  : 		{
; 515  : 			m_ppMessage[m_Current][i] = Buffer[i];

  00054	8b 56 08	 mov	 edx, DWORD PTR [esi+8]
  00057	8b 4e 0c	 mov	 ecx, DWORD PTR [esi+12]
  0005a	8b 0c 8a	 mov	 ecx, DWORD PTR [edx+ecx*4]
  0005d	8a 90 00 00 00
	00		 mov	 dl, BYTE PTR ?Buffer@?1??AddFormat@CMessageArray@@QAAXPBDZZ@4PADA[eax]
  00063	88 14 08	 mov	 BYTE PTR [eax+ecx], dl
  00066	40		 inc	 eax
  00067	3b 06		 cmp	 eax, DWORD PTR [esi]
  00069	7c e9		 jl	 SHORT $L117216
$L117218:

; 516  : 		}	
; 517  : 
; 518  : 		m_ppMessage[m_Current][m_Length] = NULL;	

  0006b	8b 4e 08	 mov	 ecx, DWORD PTR [esi+8]
  0006e	8b 46 0c	 mov	 eax, DWORD PTR [esi+12]
  00071	8b 04 81	 mov	 eax, DWORD PTR [ecx+eax*4]
  00074	8b 0e		 mov	 ecx, DWORD PTR [esi]
  00076	c6 04 08 00	 mov	 BYTE PTR [eax+ecx], 0

; 519  : 	}
; 520  : 	else

  0007a	eb 11		 jmp	 SHORT $L117219
$L117214:

; 521  : 	{
; 522  : 		// 
; 523  : 		strcpy(m_ppMessage[m_Current], Buffer);

  0007c	8b 46 0c	 mov	 eax, DWORD PTR [esi+12]
  0007f	8b 4e 08	 mov	 ecx, DWORD PTR [esi+8]
  00082	57		 push	 edi
  00083	ff 34 81	 push	 DWORD PTR [ecx+eax*4]
  00086	e8 00 00 00 00	 call	 _strcpy
  0008b	59		 pop	 ecx
  0008c	59		 pop	 ecx
$L117219:

; 524  : 	}
; 525  : 	
; 526  : 
; 527  : 	m_Current++;

  0008d	ff 46 0c	 inc	 DWORD PTR [esi+12]
  00090	8b 46 0c	 mov	 eax, DWORD PTR [esi+12]

; 528  : 	if (m_Current==m_Max) m_Current=0;

  00093	3b 46 04	 cmp	 eax, DWORD PTR [esi+4]
  00096	75 04		 jne	 SHORT $L117220
  00098	83 66 0c 00	 and	 DWORD PTR [esi+12], 0
$L117220:
  0009c	5f		 pop	 edi
  0009d	5e		 pop	 esi
  0009e	5b		 pop	 ebx

; 529  : 
; 530  : 	__END_LOCK
; 531  : }

  0009f	c3		 ret	 0
?AddFormat@CMessageArray@@QAAXPBDZZ ENDP		; CMessageArray::AddFormat
_TEXT	ENDS
PUBLIC	?Next@CMessageArray@@QAEXXZ			; CMessageArray::Next
; Function compile flags: /Ogsy
;	COMDAT ?Next@CMessageArray@@QAEXXZ
_TEXT	SEGMENT
?Next@CMessageArray@@QAEXXZ PROC NEAR			; CMessageArray::Next, COMDAT
; _this$ = ecx

; 540  : {	

  00000	56		 push	 esi
  00001	8b f1		 mov	 esi, ecx

; 541  : 	#ifndef __LOGGING__
; 542  : 		return;
; 543  : 	#endif
; 544  : 
; 545  : 	__BEGIN_LOCK
; 546  : 
; 547  : 	// file log
; 548  : 	if (m_bLog)

  00003	80 7e 24 00	 cmp	 BYTE PTR [esi+36], 0
  00007	74 32		 je	 SHORT $L117226

; 549  : 	{
; 550  : 		//m_LogFile << str << endl;
; 551  : 		_write( m_LogFile, m_ppMessage[m_Current], strlen( m_ppMessage[m_Current] ) );

  00009	8b 46 0c	 mov	 eax, DWORD PTR [esi+12]
  0000c	8b 4e 08	 mov	 ecx, DWORD PTR [esi+8]
  0000f	ff 34 81	 push	 DWORD PTR [ecx+eax*4]
  00012	e8 00 00 00 00	 call	 _strlen
  00017	8b 4e 08	 mov	 ecx, DWORD PTR [esi+8]
  0001a	50		 push	 eax
  0001b	8b 46 0c	 mov	 eax, DWORD PTR [esi+12]
  0001e	ff 34 81	 push	 DWORD PTR [ecx+eax*4]
  00021	ff 76 28	 push	 DWORD PTR [esi+40]
  00024	e8 00 00 00 00	 call	 __write

; 552  : 		_write( m_LogFile, "\n", 1 );

  00029	6a 01		 push	 1
  0002b	68 00 00 00 00	 push	 OFFSET FLAT:??_C@_01EEMJAFIK@?6?$AA@
  00030	ff 76 28	 push	 DWORD PTR [esi+40]
  00033	e8 00 00 00 00	 call	 __write
  00038	83 c4 1c	 add	 esp, 28			; 0000001cH
$L117226:

; 553  : 	}	
; 554  : 
; 555  : 	m_Current++; 

  0003b	ff 46 0c	 inc	 DWORD PTR [esi+12]
  0003e	8b 46 0c	 mov	 eax, DWORD PTR [esi+12]

; 556  : 	if (m_Current==m_Max) m_Current=0;

  00041	3b 46 04	 cmp	 eax, DWORD PTR [esi+4]
  00044	75 04		 jne	 SHORT $L117227
  00046	83 66 0c 00	 and	 DWORD PTR [esi+12], 0
$L117227:
  0004a	5e		 pop	 esi

; 557  : 
; 558  : 	__END_LOCK
; 559  : }

  0004b	c3		 ret	 0
?Next@CMessageArray@@QAEXXZ ENDP			; CMessageArray::Next
_TEXT	ENDS
PUBLIC	??_C@_00CNPNBAHC@?$AA@				; `string'
PUBLIC	??ACMessageArray@@QAEPBDH@Z			; CMessageArray::operator[]
;	COMDAT ??_C@_00CNPNBAHC@?$AA@
CONST	SEGMENT
??_C@_00CNPNBAHC@?$AA@ DB 00H				; `string'
; Function compile flags: /Ogsy
CONST	ENDS
;	COMDAT ??ACMessageArray@@QAEPBDH@Z
_TEXT	SEGMENT
_i$ = 8							; size = 4
??ACMessageArray@@QAEPBDH@Z PROC NEAR			; CMessageArray::operator[], COMDAT
; _this$ = ecx

; 571  : 	//                i   =  return  
; 572  : 	//m_Current - (3-[0]) = m_Current;
; 573  : 	//m_Current - (3-[1]) = m_Current - 2;
; 574  : 	//m_Current - (3-[2]) = m_Current - 1;
; 575  : 
; 576  : 	__BEGIN_LOCK
; 577  : 
; 578  : 	BYTE gap = m_Max - i;

  00000	8a 51 04	 mov	 dl, BYTE PTR [ecx+4]

; 579  : 
; 580  : 	if ( m_Current == -1 )

  00003	8b 41 0c	 mov	 eax, DWORD PTR [ecx+12]
  00006	2a 54 24 04	 sub	 dl, BYTE PTR _i$[esp-4]
  0000a	83 f8 ff	 cmp	 eax, -1
  0000d	75 07		 jne	 SHORT $L117235

; 581  : 		return "";

  0000f	b8 00 00 00 00	 mov	 eax, OFFSET FLAT:??_C@_00CNPNBAHC@?$AA@
  00014	eb 16		 jmp	 SHORT $L117232
$L117235:

; 582  : 
; 583  : 	if (gap > m_Current)

  00016	0f b6 d2	 movzx	 edx, dl
  00019	3b d0		 cmp	 edx, eax
  0001b	7e 07		 jle	 SHORT $L117236

; 584  : 	{
; 585  : 
; 586  : 		const char* pMessage = m_ppMessage[m_Current + m_Max - gap];
; 587  : 		__END_LOCK
; 588  : 
; 589  : 		return pMessage;

  0001d	2b c2		 sub	 eax, edx
  0001f	03 41 04	 add	 eax, DWORD PTR [ecx+4]
  00022	eb 02		 jmp	 SHORT $L118646
$L117236:

; 590  : 	}
; 591  : 	
; 592  : 	const char* pMessage = m_ppMessage[m_Current - gap];	
; 593  : 
; 594  : 	__END_LOCK
; 595  : 
; 596  : 	return pMessage;

  00024	2b c2		 sub	 eax, edx
$L118646:
  00026	8b 49 08	 mov	 ecx, DWORD PTR [ecx+8]
  00029	8b 04 81	 mov	 eax, DWORD PTR [ecx+eax*4]
$L117232:

; 597  : }

  0002c	c2 04 00	 ret	 4
??ACMessageArray@@QAEPBDH@Z ENDP			; CMessageArray::operator[]
_TEXT	ENDS
PUBLIC	?BeginUpdateTimer@CMessageArray@@QAEXH@Z	; CMessageArray::BeginUpdateTimer
; Function compile flags: /Ogsy
;	COMDAT ?BeginUpdateTimer@CMessageArray@@QAEXH@Z
_TEXT	SEGMENT
_nDelay$ = 8						; size = 4
?BeginUpdateTimer@CMessageArray@@QAEXH@Z PROC NEAR	; CMessageArray::BeginUpdateTimer, COMDAT
; _this$ = ecx

; 602  : {

  00000	56		 push	 esi

; 603  : 	m_kTimeCtrl.SetDelay( nDelay );

  00001	ff 74 24 08	 push	 DWORD PTR _nDelay$[esp]
  00005	8d 71 10	 lea	 esi, DWORD PTR [ecx+16]
  00008	8b ce		 mov	 ecx, esi
  0000a	e8 00 00 00 00	 call	 ?SetDelay@CTimeCtrl@@QAEXK@Z ; CTimeCtrl::SetDelay

; 604  : 	m_kTimeCtrl.Begin();

  0000f	8b ce		 mov	 ecx, esi
  00011	e8 00 00 00 00	 call	 ?Begin@CTimeCtrl@@QAEXXZ ; CTimeCtrl::Begin
  00016	5e		 pop	 esi

; 605  : }

  00017	c2 04 00	 ret	 4
?BeginUpdateTimer@CMessageArray@@QAEXH@Z ENDP		; CMessageArray::BeginUpdateTimer
_TEXT	ENDS
PUBLIC	?Update@CMessageArray@@QAEXXZ			; CMessageArray::Update
; Function compile flags: /Ogsy
;	COMDAT ?Update@CMessageArray@@QAEXXZ
_TEXT	SEGMENT
?Update@CMessageArray@@QAEXXZ PROC NEAR			; CMessageArray::Update, COMDAT
; _this$ = ecx

; 610  : 	return;
; 611  : 
; 612  : 	if ( m_kTimeCtrl.IsTimeAllow() && m_Current >= 0)
; 613  : 	{
; 614  : 		//if ( m_ppMessage[m_Current][0] )
; 615  : 		{
; 616  : 			m_Current--;
; 617  : 			if ( m_Current < 0 )
; 618  : 				m_Current = 0;
; 619  : 			m_ppMessage[m_Current][0] = NULL;
; 620  : 
; 621  : 		}
; 622  : 	}
; 623  : }

  00000	c3		 ret	 0
?Update@CMessageArray@@QAEXXZ ENDP			; CMessageArray::Update
_TEXT	ENDS
PUBLIC	?Clear@CMessageArray@@QAEXXZ			; CMessageArray::Clear
; Function compile flags: /Ogsy
;	COMDAT ?Clear@CMessageArray@@QAEXXZ
_TEXT	SEGMENT
?Clear@CMessageArray@@QAEXXZ PROC NEAR			; CMessageArray::Clear, COMDAT
; _this$ = ecx

; 630  : 	for (int i=0; i<m_Max; i++)

  00000	33 c0		 xor	 eax, eax
  00002	39 41 04	 cmp	 DWORD PTR [ecx+4], eax
  00005	7e 0f		 jle	 SHORT $L117256
$L117254:

; 631  : 	{
; 632  : 		m_ppMessage[i][0] = NULL;

  00007	8b 51 08	 mov	 edx, DWORD PTR [ecx+8]
  0000a	8b 14 82	 mov	 edx, DWORD PTR [edx+eax*4]
  0000d	40		 inc	 eax
  0000e	c6 02 00	 mov	 BYTE PTR [edx], 0
  00011	3b 41 04	 cmp	 eax, DWORD PTR [ecx+4]
  00014	7c f1		 jl	 SHORT $L117254
$L117256:

; 633  : 	}
; 634  : }

  00016	c3		 ret	 0
?Clear@CMessageArray@@QAEXXZ ENDP			; CMessageArray::Clear
_TEXT	ENDS
PUBLIC	?eq@?$__char_traits_base@DH@_STL@@SA_NABD0@Z	; _STL::__char_traits_base<char,int>::eq
; Function compile flags: /Ogsy
; File c:\stlport-4.6.1\stlport\stl\char_traits.h
;	COMDAT ?eq@?$__char_traits_base@DH@_STL@@SA_NABD0@Z
_TEXT	SEGMENT
___c1$ = 8						; size = 4
___c2$ = 12						; size = 4
?eq@?$__char_traits_base@DH@_STL@@SA_NABD0@Z PROC NEAR	; _STL::__char_traits_base<char,int>::eq, COMDAT

; 138  :     { return __c1 == __c2; }

  00000	8b 44 24 04	 mov	 eax, DWORD PTR ___c1$[esp-4]
  00004	8a 00		 mov	 al, BYTE PTR [eax]
  00006	8b 4c 24 08	 mov	 ecx, DWORD PTR ___c2$[esp-4]
  0000a	2a 01		 sub	 al, BYTE PTR [ecx]
  0000c	f6 d8		 neg	 al
  0000e	1b c0		 sbb	 eax, eax
  00010	40		 inc	 eax
  00011	c3		 ret	 0
?eq@?$__char_traits_base@DH@_STL@@SA_NABD0@Z ENDP	; _STL::__char_traits_base<char,int>::eq
_TEXT	ENDS
PUBLIC	?c_str@?$basic_string@DV?$char_traits@D@_STL@@V?$allocator@D@2@@_STL@@QBEPBDXZ ; _STL::basic_string<char,_STL::char_traits<char>,_STL::allocator<char> >::c_str
; Function compile flags: /Ogsy
; File c:\stlport-4.6.1\stlport\stl\_string.h
;	COMDAT ?c_str@?$basic_string@DV?$char_traits@D@_STL@@V?$allocator@D@2@@_STL@@QBEPBDXZ
_TEXT	SEGMENT
?c_str@?$basic_string@DV?$char_traits@D@_STL@@V?$allocator@D@2@@_STL@@QBEPBDXZ PROC NEAR ; _STL::basic_string<char,_STL::char_traits<char>,_STL::allocator<char> >::c_str, COMDAT
; _this$ = ecx

; 1065 :   const _CharT* c_str() const { return this->_M_start; }

  00000	8b 01		 mov	 eax, DWORD PTR [ecx]
  00002	c3		 ret	 0
?c_str@?$basic_string@DV?$char_traits@D@_STL@@V?$allocator@D@2@@_STL@@QBEPBDXZ ENDP ; _STL::basic_string<char,_STL::char_traits<char>,_STL::allocator<char> >::c_str
_TEXT	ENDS
PUBLIC	?_M_terminate_string_aux@?$basic_string@DV?$char_traits@D@_STL@@V?$allocator@D@2@@_STL@@AAEXABU__true_type@2@@Z ; _STL::basic_string<char,_STL::char_traits<char>,_STL::allocator<char> >::_M_terminate_string_aux
; Function compile flags: /Ogsy
;	COMDAT ?_M_terminate_string_aux@?$basic_string@DV?$char_traits@D@_STL@@V?$allocator@D@2@@_STL@@AAEXABU__true_type@2@@Z
_TEXT	SEGMENT
___formal$ = 8						; size = 4
?_M_terminate_string_aux@?$basic_string@DV?$char_traits@D@_STL@@V?$allocator@D@2@@_STL@@AAEXABU__true_type@2@@Z PROC NEAR ; _STL::basic_string<char,_STL::char_traits<char>,_STL::allocator<char> >::_M_terminate_string_aux, COMDAT
; _this$ = ecx

; 351  :     *(this->_M_finish)=0;

  00000	8b 41 04	 mov	 eax, DWORD PTR [ecx+4]
  00003	c6 00 00	 mov	 BYTE PTR [eax], 0

; 352  :   }

  00006	c2 04 00	 ret	 4
?_M_terminate_string_aux@?$basic_string@DV?$char_traits@D@_STL@@V?$allocator@D@2@@_STL@@AAEXABU__true_type@2@@Z ENDP ; _STL::basic_string<char,_STL::char_traits<char>,_STL::allocator<char> >::_M_terminate_string_aux
_TEXT	ENDS
PUBLIC	?size@?$basic_string@DV?$char_traits@D@_STL@@V?$allocator@D@2@@_STL@@QBEIXZ ; _STL::basic_string<char,_STL::char_traits<char>,_STL::allocator<char> >::size
; Function compile flags: /Ogsy
;	COMDAT ?size@?$basic_string@DV?$char_traits@D@_STL@@V?$allocator@D@2@@_STL@@QBEIXZ
_TEXT	SEGMENT
?size@?$basic_string@DV?$char_traits@D@_STL@@V?$allocator@D@2@@_STL@@QBEIXZ PROC NEAR ; _STL::basic_string<char,_STL::char_traits<char>,_STL::allocator<char> >::size, COMDAT
; _this$ = ecx

; 431  :   size_type size() const { return this->_M_finish - this->_M_start; }

  00000	8b 41 04	 mov	 eax, DWORD PTR [ecx+4]
  00003	2b 01		 sub	 eax, DWORD PTR [ecx]
  00005	c3		 ret	 0
?size@?$basic_string@DV?$char_traits@D@_STL@@V?$allocator@D@2@@_STL@@QBEIXZ ENDP ; _STL::basic_string<char,_STL::char_traits<char>,_STL::allocator<char> >::size
_TEXT	ENDS
PUBLIC	??0?$allocator@D@_STL@@QAE@ABV01@@Z		; _STL::allocator<char>::allocator<char>
; Function compile flags: /Ogsy
; File c:\stlport-4.6.1\stlport\stl\_alloc.h
;	COMDAT ??0?$allocator@D@_STL@@QAE@ABV01@@Z
_TEXT	SEGMENT
___formal$ = 8						; size = 4
??0?$allocator@D@_STL@@QAE@ABV01@@Z PROC NEAR		; _STL::allocator<char>::allocator<char>, COMDAT
; _this$ = ecx

; 349  :   allocator(const allocator<_Tp>&) _STLP_NOTHROW {}

  00000	8b c1		 mov	 eax, ecx
  00002	c2 04 00	 ret	 4
??0?$allocator@D@_STL@@QAE@ABV01@@Z ENDP		; _STL::allocator<char>::allocator<char>
_TEXT	ENDS
PUBLIC	?copy@?$__char_traits_base@DH@_STL@@SAPADPADPBDI@Z ; _STL::__char_traits_base<char,int>::copy
EXTRN	_memcpy:NEAR
; Function compile flags: /Ogsy
; File c:\stlport-4.6.1\stlport\stl\char_traits.h
;	COMDAT ?copy@?$__char_traits_base@DH@_STL@@SAPADPADPBDI@Z
_TEXT	SEGMENT
___s1$ = 8						; size = 4
___s2$ = 12						; size = 4
___n$ = 16						; size = 4
?copy@?$__char_traits_base@DH@_STL@@SAPADPADPBDI@Z PROC NEAR ; _STL::__char_traits_base<char,int>::copy, COMDAT

; 169  :   static _CharT* _STLP_CALL copy(_CharT* __s1, const _CharT* __s2, size_t __n) {

  00000	55		 push	 ebp
  00001	8b ec		 mov	 ebp, esp

; 170  :     return (__n == 0 ? __s1 :
; 171  : 	    (_CharT*)memcpy(__s1, __s2, __n * sizeof(_CharT)));

  00003	83 7d 10 00	 cmp	 DWORD PTR ___n$[ebp], 0
  00007	75 05		 jne	 SHORT $L118676
  00009	8b 45 08	 mov	 eax, DWORD PTR ___s1$[ebp]

; 172  :     } 

  0000c	5d		 pop	 ebp
  0000d	c3		 ret	 0
$L118676:
  0000e	5d		 pop	 ebp

; 170  :     return (__n == 0 ? __s1 :
; 171  : 	    (_CharT*)memcpy(__s1, __s2, __n * sizeof(_CharT)));

  0000f	e9 00 00 00 00	 jmp	 _memcpy
?copy@?$__char_traits_base@DH@_STL@@SAPADPADPBDI@Z ENDP	; _STL::__char_traits_base<char,int>::copy
_TEXT	ENDS
PUBLIC	?begin@?$basic_string@DV?$char_traits@D@_STL@@V?$allocator@D@2@@_STL@@QAEPADXZ ; _STL::basic_string<char,_STL::char_traits<char>,_STL::allocator<char> >::begin
; Function compile flags: /Ogsy
; File c:\stlport-4.6.1\stlport\stl\_string.h
;	COMDAT ?begin@?$basic_string@DV?$char_traits@D@_STL@@V?$allocator@D@2@@_STL@@QAEPADXZ
_TEXT	SEGMENT
?begin@?$basic_string@DV?$char_traits@D@_STL@@V?$allocator@D@2@@_STL@@QAEPADXZ PROC NEAR ; _STL::basic_string<char,_STL::char_traits<char>,_STL::allocator<char> >::begin, COMDAT
; _this$ = ecx

; 416  :   iterator begin()             { return this->_M_start; }

  00000	8b 01		 mov	 eax, DWORD PTR [ecx]
  00002	c3		 ret	 0
?begin@?$basic_string@DV?$char_traits@D@_STL@@V?$allocator@D@2@@_STL@@QAEPADXZ ENDP ; _STL::basic_string<char,_STL::char_traits<char>,_STL::allocator<char> >::begin
_TEXT	ENDS
PUBLIC	?end@?$basic_string@DV?$char_traits@D@_STL@@V?$allocator@D@2@@_STL@@QAEPADXZ ; _STL::basic_string<char,_STL::char_traits<char>,_STL::allocator<char> >::end
; Function compile flags: /Ogsy
;	COMDAT ?end@?$basic_string@DV?$char_traits@D@_STL@@V?$allocator@D@2@@_STL@@QAEPADXZ
_TEXT	SEGMENT
?end@?$basic_string@DV?$char_traits@D@_STL@@V?$allocator@D@2@@_STL@@QAEPADXZ PROC NEAR ; _STL::basic_string<char,_STL::char_traits<char>,_STL::allocator<char> >::end, COMDAT
; _this$ = ecx

; 417  :   iterator end()               { return this->_M_finish; }

  00000	8b 41 04	 mov	 eax, DWORD PTR [ecx+4]
  00003	c3		 ret	 0
?end@?$basic_string@DV?$char_traits@D@_STL@@V?$allocator@D@2@@_STL@@QAEPADXZ ENDP ; _STL::basic_string<char,_STL::char_traits<char>,_STL::allocator<char> >::end
_TEXT	ENDS
PUBLIC	?move@?$__char_traits_base@DH@_STL@@SAPADPADPBDI@Z ; _STL::__char_traits_base<char,int>::move
; Function compile flags: /Ogsy
; File c:\stlport-4.6.1\stlport\stl\char_traits.h
;	COMDAT ?move@?$__char_traits_base@DH@_STL@@SAPADPADPBDI@Z
_TEXT	SEGMENT
___s1$ = 8						; size = 4
___s2$ = 12						; size = 4
__Sz$ = 16						; size = 4
?move@?$__char_traits_base@DH@_STL@@SAPADPADPBDI@Z PROC NEAR ; _STL::__char_traits_base<char,int>::move, COMDAT

; 165  :   static _CharT* _STLP_CALL move(_CharT* __s1, const _CharT* __s2, size_t _Sz) {    

  00000	55		 push	 ebp
  00001	8b ec		 mov	 ebp, esp

; 166  :     return (_Sz == 0 ? __s1 : (_CharT*)memmove(__s1, __s2, _Sz * sizeof(_CharT)));

  00003	83 7d 10 00	 cmp	 DWORD PTR __Sz$[ebp], 0
  00007	75 05		 jne	 SHORT $L118687
  00009	8b 45 08	 mov	 eax, DWORD PTR ___s1$[ebp]

; 167  :   }

  0000c	5d		 pop	 ebp
  0000d	c3		 ret	 0
$L118687:
  0000e	5d		 pop	 ebp

; 166  :     return (_Sz == 0 ? __s1 : (_CharT*)memmove(__s1, __s2, _Sz * sizeof(_CharT)));

  0000f	e9 00 00 00 00	 jmp	 _memmove
?move@?$__char_traits_base@DH@_STL@@SAPADPADPBDI@Z ENDP	; _STL::__char_traits_base<char,int>::move
_TEXT	ENDS
PUBLIC	?_M_throw_out_of_range@?$_String_base@DV?$allocator@D@_STL@@@_STL@@QBEXXZ ; _STL::_String_base<char,_STL::allocator<char> >::_M_throw_out_of_range
PUBLIC	??_C@_0N@GOPDCEEB@basic_string?$AA@		; `string'
EXTRN	?__stl_throw_out_of_range@_STL@@YAXPBD@Z:NEAR	; _STL::__stl_throw_out_of_range
;	COMDAT ??_C@_0N@GOPDCEEB@basic_string?$AA@
; File c:\stlport-4.6.1\stlport\stl\_string.c
CONST	SEGMENT
??_C@_0N@GOPDCEEB@basic_string?$AA@ DB 'basic_string', 00H ; `string'
; Function compile flags: /Ogsy
CONST	ENDS
;	COMDAT ?_M_throw_out_of_range@?$_String_base@DV?$allocator@D@_STL@@@_STL@@QBEXXZ
_TEXT	SEGMENT
?_M_throw_out_of_range@?$_String_base@DV?$allocator@D@_STL@@@_STL@@QBEXXZ PROC NEAR ; _STL::_String_base<char,_STL::allocator<char> >::_M_throw_out_of_range, COMDAT
; _this$ = ecx

; 527  :     __stl_throw_out_of_range("basic_string");

  00000	68 00 00 00 00	 push	 OFFSET FLAT:??_C@_0N@GOPDCEEB@basic_string?$AA@
  00005	e8 00 00 00 00	 call	 ?__stl_throw_out_of_range@_STL@@YAXPBD@Z ; _STL::__stl_throw_out_of_range
  0000a	59		 pop	 ecx

; 528  : }

  0000b	c3		 ret	 0
?_M_throw_out_of_range@?$_String_base@DV?$allocator@D@_STL@@@_STL@@QBEXXZ ENDP ; _STL::_String_base<char,_STL::allocator<char> >::_M_throw_out_of_range
_TEXT	ENDS
PUBLIC	??R?$_Eq_traits@V?$char_traits@D@_STL@@@_STL@@QBE_NABD0@Z ; _STL::_Eq_traits<_STL::char_traits<char> >::operator()
; Function compile flags: /Ogsy
; File c:\stlport-4.6.1\stlport\stl\_ctraits_fns.h
;	COMDAT ??R?$_Eq_traits@V?$char_traits@D@_STL@@@_STL@@QBE_NABD0@Z
_TEXT	SEGMENT
___x$ = 8						; size = 4
___y$ = 12						; size = 4
??R?$_Eq_traits@V?$char_traits@D@_STL@@@_STL@@QBE_NABD0@Z PROC NEAR ; _STL::_Eq_traits<_STL::char_traits<char> >::operator(), COMDAT
; _this$ = ecx

; 38   :     { return _Traits::eq(__x, __y); }

  00000	8b 44 24 04	 mov	 eax, DWORD PTR ___x$[esp-4]
  00004	8a 00		 mov	 al, BYTE PTR [eax]
  00006	8b 4c 24 08	 mov	 ecx, DWORD PTR ___y$[esp-4]
  0000a	2a 01		 sub	 al, BYTE PTR [ecx]
  0000c	f6 d8		 neg	 al
  0000e	1b c0		 sbb	 eax, eax
  00010	40		 inc	 eax
  00011	c2 08 00	 ret	 8
??R?$_Eq_traits@V?$char_traits@D@_STL@@@_STL@@QBE_NABD0@Z ENDP ; _STL::_Eq_traits<_STL::char_traits<char> >::operator()
_TEXT	ENDS
PUBLIC	??$search@PBDPBDU?$_Eq_traits@V?$char_traits@D@_STL@@@_STL@@@_STL@@YAPBDPBD000U?$_Eq_traits@V?$char_traits@D@_STL@@@0@@Z ; _STL::search<char const *,char const *,_STL::_Eq_traits<_STL::char_traits<char> > >
; Function compile flags: /Ogsy
; File c:\stlport-4.6.1\stlport\stl\_algobase.c
;	COMDAT ??$search@PBDPBDU?$_Eq_traits@V?$char_traits@D@_STL@@@_STL@@@_STL@@YAPBDPBD000U?$_Eq_traits@V?$char_traits@D@_STL@@@0@@Z
_TEXT	SEGMENT
tv194 = 8						; size = 4
___first1$ = 8						; size = 4
___last1$ = 12						; size = 4
___first2$ = 16						; size = 4
___last2$ = 20						; size = 4
___predicate$ = 24					; size = 1
??$search@PBDPBDU?$_Eq_traits@V?$char_traits@D@_STL@@@_STL@@@_STL@@YAPBDPBD000U?$_Eq_traits@V?$char_traits@D@_STL@@@0@@Z PROC NEAR ; _STL::search<char const *,char const *,_STL::_Eq_traits<_STL::char_traits<char> > >, COMDAT

; 210  : {

  00000	55		 push	 ebp
  00001	8b ec		 mov	 ebp, esp

; 211  :   _STLP_DEBUG_CHECK(__check_range(__first1, __last1))
; 212  :     _STLP_DEBUG_CHECK(__check_range(__first2, __last2))
; 213  :     // Test for empty ranges
; 214  :     if (__first1 == __last1 || __first2 == __last2)

  00003	8b 45 08	 mov	 eax, DWORD PTR ___first1$[ebp]
  00006	8b 55 0c	 mov	 edx, DWORD PTR ___last1$[ebp]
  00009	3b c2		 cmp	 eax, edx
  0000b	53		 push	 ebx
  0000c	56		 push	 esi
  0000d	57		 push	 edi
  0000e	74 73		 je	 SHORT $L117801
  00010	8b 4d 10	 mov	 ecx, DWORD PTR ___first2$[ebp]
  00013	3b 4d 14	 cmp	 ecx, DWORD PTR ___last2$[ebp]
  00016	74 6b		 je	 SHORT $L117801

; 215  :       return __first1;
; 216  : 
; 217  :   // Test for a pattern of length 1.
; 218  :   _ForwardIter2 __tmp(__first2);
; 219  :   ++__tmp;

  00018	8d 79 01	 lea	 edi, DWORD PTR [ecx+1]

; 220  :   if (__tmp == __last2) {

  0001b	3b 7d 14	 cmp	 edi, DWORD PTR ___last2$[ebp]
  0001e	89 7d 08	 mov	 DWORD PTR tv194[ebp], edi
  00021	75 10		 jne	 SHORT $L117812
  00023	8a 09		 mov	 cl, BYTE PTR [ecx]
$L117807:

; 221  :     while (__first1 != __last1 && !__predicate(*__first1, *__first2))

  00025	38 08		 cmp	 BYTE PTR [eax], cl
  00027	74 5a		 je	 SHORT $L117801

; 222  :       ++__first1;

  00029	40		 inc	 eax
  0002a	3b c2		 cmp	 eax, edx
  0002c	75 f7		 jne	 SHORT $L117807

; 223  :     return __first1;    

  0002e	eb 53		 jmp	 SHORT $L117801
$L118747:

; 221  :     while (__first1 != __last1 && !__predicate(*__first1, *__first2))

  00030	8b 4d 10	 mov	 ecx, DWORD PTR ___first2$[ebp]
$L117812:

; 224  :   }
; 225  :   
; 226  :   // General case.
; 227  : 
; 228  :   _ForwardIter2 __p1, __p;
; 229  : 
; 230  :   __p1 = __first2; ++__p1;
; 231  : 
; 232  :   //  _ForwardIter1 __current = __first1;
; 233  : 
; 234  :   while (__first1 != __last1) {
; 235  :     while (__first1 != __last1) {

  00033	3b c2		 cmp	 eax, edx
  00035	74 4a		 je	 SHORT $L118740
  00037	8a 09		 mov	 cl, BYTE PTR [ecx]
$L117815:

; 236  :       if (__predicate(*__first1, *__first2))

  00039	38 08		 cmp	 BYTE PTR [eax], cl
  0003b	74 05		 je	 SHORT $L118738

; 237  :         break;
; 238  :       ++__first1;

  0003d	40		 inc	 eax
  0003e	3b c2		 cmp	 eax, edx
  00040	75 f7		 jne	 SHORT $L117815
$L118738:

; 239  :     }
; 240  :     while (__first1 != __last1 && !__predicate(*__first1, *__first2))

  00042	3b c2		 cmp	 eax, edx
  00044	74 3b		 je	 SHORT $L118740
$L117819:
  00046	38 08		 cmp	 BYTE PTR [eax], cl
  00048	74 05		 je	 SHORT $L117820

; 241  :       ++__first1;

  0004a	40		 inc	 eax
  0004b	3b c2		 cmp	 eax, edx
  0004d	75 f7		 jne	 SHORT $L117819
$L117820:

; 242  :     if (__first1 == __last1)

  0004f	3b c2		 cmp	 eax, edx
  00051	74 2e		 je	 SHORT $L118740

; 243  :       return __last1;
; 244  : 
; 245  :     __p = __p1;
; 246  :     _ForwardIter1 __current = __first1; 
; 247  :     if (++__current == __last1) return __last1;

  00053	8d 70 01	 lea	 esi, DWORD PTR [eax+1]
  00056	8b ce		 mov	 ecx, esi
  00058	3b ca		 cmp	 ecx, edx
  0005a	74 25		 je	 SHORT $L118740

; 248  : 
; 249  :     while (__predicate(*__current, *__p)) {

  0005c	8a 11		 mov	 dl, BYTE PTR [ecx]
  0005e	3a 17		 cmp	 dl, BYTE PTR [edi]
  00060	8b 55 0c	 mov	 edx, DWORD PTR ___last1$[ebp]
  00063	75 14		 jne	 SHORT $L117826
$L117825:

; 250  :       if (++__p == __last2)

  00065	47		 inc	 edi
  00066	3b 7d 14	 cmp	 edi, DWORD PTR ___last2$[ebp]
  00069	74 18		 je	 SHORT $L117801

; 251  :         return __first1;
; 252  :       if (++__current == __last1)

  0006b	41		 inc	 ecx
  0006c	3b ca		 cmp	 ecx, edx
  0006e	74 11		 je	 SHORT $L118740
  00070	8a 19		 mov	 bl, BYTE PTR [ecx]
  00072	3a 1f		 cmp	 bl, BYTE PTR [edi]
  00074	74 ef		 je	 SHORT $L117825

; 248  : 
; 249  :     while (__predicate(*__current, *__p)) {

  00076	8b 7d 08	 mov	 edi, DWORD PTR tv194[ebp]
$L117826:

; 254  :     }
; 255  : 
; 256  :     ++__first1;

  00079	8b c6		 mov	 eax, esi
  0007b	3b c2		 cmp	 eax, edx
  0007d	75 b1		 jne	 SHORT $L118747

; 243  :       return __last1;
; 244  : 
; 245  :     __p = __p1;
; 246  :     _ForwardIter1 __current = __first1; 
; 247  :     if (++__current == __last1) return __last1;

  0007f	eb 02		 jmp	 SHORT $L117801
$L118740:

; 253  :         return __last1;

  00081	8b c2		 mov	 eax, edx
$L117801:
  00083	5f		 pop	 edi
  00084	5e		 pop	 esi
  00085	5b		 pop	 ebx

; 257  :   }
; 258  :   return __first1;
; 259  : }

  00086	5d		 pop	 ebp
  00087	c3		 ret	 0
??$search@PBDPBDU?$_Eq_traits@V?$char_traits@D@_STL@@@_STL@@@_STL@@YAPBDPBD000U?$_Eq_traits@V?$char_traits@D@_STL@@@0@@Z ENDP ; _STL::search<char const *,char const *,_STL::_Eq_traits<_STL::char_traits<char> > >
_TEXT	ENDS
PUBLIC	?capacity@?$basic_string@DV?$char_traits@D@_STL@@V?$allocator@D@2@@_STL@@QBEIXZ ; _STL::basic_string<char,_STL::char_traits<char>,_STL::allocator<char> >::capacity
; Function compile flags: /Ogsy
; File c:\stlport-4.6.1\stlport\stl\_string.h
;	COMDAT ?capacity@?$basic_string@DV?$char_traits@D@_STL@@V?$allocator@D@2@@_STL@@QBEIXZ
_TEXT	SEGMENT
?capacity@?$basic_string@DV?$char_traits@D@_STL@@V?$allocator@D@2@@_STL@@QBEIXZ PROC NEAR ; _STL::basic_string<char,_STL::char_traits<char>,_STL::allocator<char> >::capacity, COMDAT
; _this$ = ecx

; 447  :   size_type capacity() const { return (this->_M_end_of_storage._M_data - this->_M_start) - 1; }

  00000	8b 41 08	 mov	 eax, DWORD PTR [ecx+8]
  00003	2b 01		 sub	 eax, DWORD PTR [ecx]
  00005	48		 dec	 eax
  00006	c3		 ret	 0
?capacity@?$basic_string@DV?$char_traits@D@_STL@@V?$allocator@D@2@@_STL@@QBEIXZ ENDP ; _STL::basic_string<char,_STL::char_traits<char>,_STL::allocator<char> >::capacity
_TEXT	ENDS
PUBLIC	?max_size@?$_String_base@DV?$allocator@D@_STL@@@_STL@@QBEIXZ ; _STL::_String_base<char,_STL::allocator<char> >::max_size
; Function compile flags: /Ogsy
;	COMDAT ?max_size@?$_String_base@DV?$allocator@D@_STL@@@_STL@@QBEIXZ
_TEXT	SEGMENT
?max_size@?$_String_base@DV?$allocator@D@_STL@@@_STL@@QBEIXZ PROC NEAR ; _STL::_String_base<char,_STL::allocator<char> >::max_size, COMDAT
; _this$ = ecx

; 126  :   size_t max_size() const { return (size_t(-1) / sizeof(_Tp)) - 1; }

  00000	6a fe		 push	 -2			; fffffffeH
  00002	58		 pop	 eax
  00003	c3		 ret	 0
?max_size@?$_String_base@DV?$allocator@D@_STL@@@_STL@@QBEIXZ ENDP ; _STL::_String_base<char,_STL::allocator<char> >::max_size
_TEXT	ENDS
PUBLIC	?_M_construct_null_aux@?$basic_string@DV?$char_traits@D@_STL@@V?$allocator@D@2@@_STL@@AAEXPADABU__true_type@2@@Z ; _STL::basic_string<char,_STL::char_traits<char>,_STL::allocator<char> >::_M_construct_null_aux
; Function compile flags: /Ogsy
;	COMDAT ?_M_construct_null_aux@?$basic_string@DV?$char_traits@D@_STL@@V?$allocator@D@2@@_STL@@AAEXPADABU__true_type@2@@Z
_TEXT	SEGMENT
___p$ = 8						; size = 4
___formal$ = 12						; size = 4
?_M_construct_null_aux@?$basic_string@DV?$char_traits@D@_STL@@V?$allocator@D@2@@_STL@@AAEXPADABU__true_type@2@@Z PROC NEAR ; _STL::basic_string<char,_STL::char_traits<char>,_STL::allocator<char> >::_M_construct_null_aux, COMDAT
; _this$ = ecx

; 332  :     *__p = 0;

  00000	8b 44 24 04	 mov	 eax, DWORD PTR ___p$[esp-4]
  00004	c6 00 00	 mov	 BYTE PTR [eax], 0

; 333  :   }

  00007	c2 08 00	 ret	 8
?_M_construct_null_aux@?$basic_string@DV?$char_traits@D@_STL@@V?$allocator@D@2@@_STL@@AAEXPADABU__true_type@2@@Z ENDP ; _STL::basic_string<char,_STL::char_traits<char>,_STL::allocator<char> >::_M_construct_null_aux
_TEXT	ENDS
PUBLIC	??$__distance@PBD@_STL@@YAHABQBD0ABUrandom_access_iterator_tag@0@@Z ; _STL::__distance<char const *>
; Function compile flags: /Ogsy
; File c:\stlport-4.6.1\stlport\stl\_iterator_base.h
;	COMDAT ??$__distance@PBD@_STL@@YAHABQBD0ABUrandom_access_iterator_tag@0@@Z
_TEXT	SEGMENT
___first$ = 8						; size = 4
___last$ = 12						; size = 4
___formal$ = 16						; size = 4
??$__distance@PBD@_STL@@YAHABQBD0ABUrandom_access_iterator_tag@0@@Z PROC NEAR ; _STL::__distance<char const *>, COMDAT

; 363  :   return __last - __first;

  00000	8b 44 24 08	 mov	 eax, DWORD PTR ___last$[esp-4]
  00004	8b 00		 mov	 eax, DWORD PTR [eax]
  00006	8b 4c 24 04	 mov	 ecx, DWORD PTR ___first$[esp-4]
  0000a	2b 01		 sub	 eax, DWORD PTR [ecx]

; 364  : }

  0000c	c3		 ret	 0
??$__distance@PBD@_STL@@YAHABQBD0ABUrandom_access_iterator_tag@0@@Z ENDP ; _STL::__distance<char const *>
_TEXT	ENDS
PUBLIC	?_M_throw_length_error@?$_String_base@DV?$allocator@D@_STL@@@_STL@@QBEXXZ ; _STL::_String_base<char,_STL::allocator<char> >::_M_throw_length_error
EXTRN	?__stl_throw_length_error@_STL@@YAXPBD@Z:NEAR	; _STL::__stl_throw_length_error
; Function compile flags: /Ogsy
; File c:\stlport-4.6.1\stlport\stl\_string.c
;	COMDAT ?_M_throw_length_error@?$_String_base@DV?$allocator@D@_STL@@@_STL@@QBEXXZ
_TEXT	SEGMENT
?_M_throw_length_error@?$_String_base@DV?$allocator@D@_STL@@@_STL@@QBEXXZ PROC NEAR ; _STL::_String_base<char,_STL::allocator<char> >::_M_throw_length_error, COMDAT
; _this$ = ecx

; 523  :     __stl_throw_length_error("basic_string");

  00000	68 00 00 00 00	 push	 OFFSET FLAT:??_C@_0N@GOPDCEEB@basic_string?$AA@
  00005	e8 00 00 00 00	 call	 ?__stl_throw_length_error@_STL@@YAXPBD@Z ; _STL::__stl_throw_length_error
  0000a	59		 pop	 ecx

; 524  : }

  0000b	c3		 ret	 0
?_M_throw_length_error@?$_String_base@DV?$allocator@D@_STL@@@_STL@@QBEXXZ ENDP ; _STL::_String_base<char,_STL::allocator<char> >::_M_throw_length_error
_TEXT	ENDS
PUBLIC	??$__distance@PAD@_STL@@YAHABQAD0ABUrandom_access_iterator_tag@0@@Z ; _STL::__distance<char *>
; Function compile flags: /Ogsy
; File c:\stlport-4.6.1\stlport\stl\_iterator_base.h
;	COMDAT ??$__distance@PAD@_STL@@YAHABQAD0ABUrandom_access_iterator_tag@0@@Z
_TEXT	SEGMENT
___first$ = 8						; size = 4
___last$ = 12						; size = 4
___formal$ = 16						; size = 4
??$__distance@PAD@_STL@@YAHABQAD0ABUrandom_access_iterator_tag@0@@Z PROC NEAR ; _STL::__distance<char *>, COMDAT

; 363  :   return __last - __first;

  00000	8b 44 24 08	 mov	 eax, DWORD PTR ___last$[esp-4]
  00004	8b 00		 mov	 eax, DWORD PTR [eax]
  00006	8b 4c 24 04	 mov	 ecx, DWORD PTR ___first$[esp-4]
  0000a	2b 01		 sub	 eax, DWORD PTR [ecx]

; 364  : }

  0000c	c3		 ret	 0
??$__distance@PAD@_STL@@YAHABQAD0ABUrandom_access_iterator_tag@0@@Z ENDP ; _STL::__distance<char *>
_TEXT	ENDS
PUBLIC	??$max@I@_STL@@YAABIABI0@Z			; _STL::max<unsigned int>
; Function compile flags: /Ogsy
; File c:\stlport-4.6.1\stlport\stl\_algobase.h
;	COMDAT ??$max@I@_STL@@YAABIABI0@Z
_TEXT	SEGMENT
___a$ = 8						; size = 4
___b$ = 12						; size = 4
??$max@I@_STL@@YAABIABI0@Z PROC NEAR			; _STL::max<unsigned int>, COMDAT

; 79   : inline const _Tp& (max)(const _Tp& __a, const _Tp& __b) {  return  __a < __b ? __b : __a; }

  00000	8b 44 24 04	 mov	 eax, DWORD PTR ___a$[esp-4]
  00004	8b 10		 mov	 edx, DWORD PTR [eax]
  00006	8b 4c 24 08	 mov	 ecx, DWORD PTR ___b$[esp-4]
  0000a	3b 11		 cmp	 edx, DWORD PTR [ecx]
  0000c	73 02		 jae	 SHORT $L118772
  0000e	8b c1		 mov	 eax, ecx
$L118772:
  00010	c3		 ret	 0
??$max@I@_STL@@YAABIABI0@Z ENDP				; _STL::max<unsigned int>
_TEXT	ENDS
PUBLIC	?_Ret@?$_BothPtrType@PADPAD@_STL@@SA?AU__true_type@2@XZ ; _STL::_BothPtrType<char *,char *>::_Ret
; Function compile flags: /Ogsy
; File c:\stlport-4.6.1\stlport\stl\type_traits.h
;	COMDAT ?_Ret@?$_BothPtrType@PADPAD@_STL@@SA?AU__true_type@2@XZ
_TEXT	SEGMENT
$T118776 = -1						; size = 1
?_Ret@?$_BothPtrType@PADPAD@_STL@@SA?AU__true_type@2@XZ PROC NEAR ; _STL::_BothPtrType<char *,char *>::_Ret, COMDAT

; 234  :   static __true_type _Ret() { return __true_type();} 

  00000	55		 push	 ebp
  00001	8b ec		 mov	 ebp, esp
  00003	51		 push	 ecx
  00004	57		 push	 edi
  00005	33 c0		 xor	 eax, eax
  00007	8d 7d ff	 lea	 edi, DWORD PTR $T118776[ebp]
  0000a	aa		 stosb
  0000b	8a 45 ff	 mov	 al, BYTE PTR $T118776[ebp]
  0000e	5f		 pop	 edi
  0000f	c9		 leave
  00010	c3		 ret	 0
?_Ret@?$_BothPtrType@PADPAD@_STL@@SA?AU__true_type@2@XZ ENDP ; _STL::_BothPtrType<char *,char *>::_Ret
_TEXT	ENDS
PUBLIC	?_Ret@?$_OKToMemCpy@DD@_STL@@SA?AU__true_type@2@XZ ; _STL::_OKToMemCpy<char,char>::_Ret
; Function compile flags: /Ogsy
;	COMDAT ?_Ret@?$_OKToMemCpy@DD@_STL@@SA?AU__true_type@2@XZ
_TEXT	SEGMENT
$T118779 = -1						; size = 1
?_Ret@?$_OKToMemCpy@DD@_STL@@SA?AU__true_type@2@XZ PROC NEAR ; _STL::_OKToMemCpy<char,char>::_Ret, COMDAT

; 361  :   static _Type _Ret() { return _Type(); }

  00000	55		 push	 ebp
  00001	8b ec		 mov	 ebp, esp
  00003	51		 push	 ecx
  00004	57		 push	 edi
  00005	33 c0		 xor	 eax, eax
  00007	8d 7d ff	 lea	 edi, DWORD PTR $T118779[ebp]
  0000a	aa		 stosb
  0000b	8a 45 ff	 mov	 al, BYTE PTR $T118779[ebp]
  0000e	5f		 pop	 edi
  0000f	c9		 leave
  00010	c3		 ret	 0
?_Ret@?$_OKToMemCpy@DD@_STL@@SA?AU__true_type@2@XZ ENDP	; _STL::_OKToMemCpy<char,char>::_Ret
_TEXT	ENDS
PUBLIC	??$_IsOKToMemCpy@DD@_STL@@YA?AU?$_OKToMemCpy@DD@0@PAD0@Z ; _STL::_IsOKToMemCpy<char,char>
; Function compile flags: /Ogsy
;	COMDAT ??$_IsOKToMemCpy@DD@_STL@@YA?AU?$_OKToMemCpy@DD@0@PAD0@Z
_TEXT	SEGMENT
$T118782 = -1						; size = 1
___formal$ = 8						; size = 4
___formal$ = 12						; size = 4
??$_IsOKToMemCpy@DD@_STL@@YA?AU?$_OKToMemCpy@DD@0@PAD0@Z PROC NEAR ; _STL::_IsOKToMemCpy<char,char>, COMDAT

; 365  : inline _OKToMemCpy<_Tp1, _Tp2> _IsOKToMemCpy(_Tp1*, _Tp2*)  {

  00000	55		 push	 ebp
  00001	8b ec		 mov	 ebp, esp
  00003	51		 push	 ecx
  00004	57		 push	 edi

; 366  :   return _OKToMemCpy<_Tp1, _Tp2>();

  00005	33 c0		 xor	 eax, eax
  00007	8d 7d ff	 lea	 edi, DWORD PTR $T118782[ebp]
  0000a	aa		 stosb
  0000b	8a 45 ff	 mov	 al, BYTE PTR $T118782[ebp]
  0000e	5f		 pop	 edi

; 367  : }

  0000f	c9		 leave
  00010	c3		 ret	 0
??$_IsOKToMemCpy@DD@_STL@@YA?AU?$_OKToMemCpy@DD@0@PAD0@Z ENDP ; _STL::_IsOKToMemCpy<char,char>
_TEXT	ENDS
PUBLIC	??$__copy_ptrs@PADPAD@_STL@@YAPADPAD00ABU__true_type@0@@Z ; _STL::__copy_ptrs<char *,char *>
; Function compile flags: /Ogsy
; File c:\stlport-4.6.1\stlport\stl\_algobase.h
;	COMDAT ??$__copy_ptrs@PADPAD@_STL@@YAPADPAD00ABU__true_type@0@@Z
_TEXT	SEGMENT
___first$ = 8						; size = 4
___last$ = 12						; size = 4
___result$ = 16						; size = 4
___formal$ = 20						; size = 4
??$__copy_ptrs@PADPAD@_STL@@YAPADPAD00ABU__true_type@0@@Z PROC NEAR ; _STL::__copy_ptrs<char *,char *>, COMDAT

; 195  : // we know they all pointers, so this cast is OK 
; 196  :   //  return (_OutputIter)__copy_trivial(&(*__first), &(*__last), &(*__result));
; 197  :   return (_OutputIter)__copy_trivial(__first, __last, __result);

  00000	ff 74 24 0c	 push	 DWORD PTR ___result$[esp-4]
  00004	ff 74 24 0c	 push	 DWORD PTR ___last$[esp]
  00008	ff 74 24 0c	 push	 DWORD PTR ___first$[esp+4]
  0000c	e8 00 00 00 00	 call	 ?__copy_trivial@_STL@@YAPAXPBX0PAX@Z ; _STL::__copy_trivial
  00011	83 c4 0c	 add	 esp, 12			; 0000000cH

; 198  : }

  00014	c3		 ret	 0
??$__copy_ptrs@PADPAD@_STL@@YAPADPAD00ABU__true_type@0@@Z ENDP ; _STL::__copy_ptrs<char *,char *>
_TEXT	ENDS
PUBLIC	??0?$allocator@D@_STL@@QAE@XZ			; _STL::allocator<char>::allocator<char>
; Function compile flags: /Ogsy
; File c:\stlport-4.6.1\stlport\stl\_alloc.h
;	COMDAT ??0?$allocator@D@_STL@@QAE@XZ
_TEXT	SEGMENT
??0?$allocator@D@_STL@@QAE@XZ PROC NEAR			; _STL::allocator<char>::allocator<char>, COMDAT
; _this$ = ecx

; 345  :   allocator() _STLP_NOTHROW {}

  00000	8b c1		 mov	 eax, ecx
  00002	c3		 ret	 0
??0?$allocator@D@_STL@@QAE@XZ ENDP			; _STL::allocator<char>::allocator<char>
_TEXT	ENDS
PUBLIC	??1?$allocator@D@_STL@@QAE@XZ			; _STL::allocator<char>::~allocator<char>
; Function compile flags: /Ogsy
;	COMDAT ??1?$allocator@D@_STL@@QAE@XZ
_TEXT	SEGMENT
??1?$allocator@D@_STL@@QAE@XZ PROC NEAR			; _STL::allocator<char>::~allocator<char>, COMDAT
; _this$ = ecx

; 350  :   ~allocator() _STLP_NOTHROW {}

  00000	c3		 ret	 0
??1?$allocator@D@_STL@@QAE@XZ ENDP			; _STL::allocator<char>::~allocator<char>
_TEXT	ENDS
PUBLIC	??1?$_STLP_alloc_proxy@PADDV?$allocator@D@_STL@@@_STL@@QAE@XZ ; _STL::_STLP_alloc_proxy<char *,char,_STL::allocator<char> >::~_STLP_alloc_proxy<char *,char,_STL::allocator<char> >
; Function compile flags: /Ogsy
;	COMDAT ??1?$_STLP_alloc_proxy@PADDV?$allocator@D@_STL@@@_STL@@QAE@XZ
_TEXT	SEGMENT
??1?$_STLP_alloc_proxy@PADDV?$allocator@D@_STL@@@_STL@@QAE@XZ PROC NEAR ; _STL::_STLP_alloc_proxy<char *,char,_STL::allocator<char> >::~_STLP_alloc_proxy<char *,char,_STL::allocator<char> >, COMDAT
; _this$ = ecx
  00000	c3		 ret	 0
??1?$_STLP_alloc_proxy@PADDV?$allocator@D@_STL@@@_STL@@QAE@XZ ENDP ; _STL::_STLP_alloc_proxy<char *,char,_STL::allocator<char> >::~_STLP_alloc_proxy<char *,char,_STL::allocator<char> >
_TEXT	ENDS
PUBLIC	?allocate@?$__node_alloc@$00$0A@@_STL@@SAPAXI@Z	; _STL::__node_alloc<1,0>::allocate
EXTRN	?_M_allocate@?$__node_alloc@$00$0A@@_STL@@CAPAXI@Z:NEAR ; _STL::__node_alloc<1,0>::_M_allocate
; Function compile flags: /Ogsy
;	COMDAT ?allocate@?$__node_alloc@$00$0A@@_STL@@SAPAXI@Z
_TEXT	SEGMENT
___n$ = 8						; size = 4
?allocate@?$__node_alloc@$00$0A@@_STL@@SAPAXI@Z PROC NEAR ; _STL::__node_alloc<1,0>::allocate, COMDAT

; 251  :   static void * _STLP_CALL allocate(size_t __n) { return (__n > (size_t)_MAX_BYTES) ?  __stl_new(__n) : _M_allocate(__n); }

  00000	8b 44 24 04	 mov	 eax, DWORD PTR ___n$[esp-4]
  00004	3d 80 00 00 00	 cmp	 eax, 128		; 00000080H
  00009	50		 push	 eax
  0000a	76 07		 jbe	 SHORT $L118800
  0000c	e8 00 00 00 00	 call	 ??2@YAPAXI@Z		; operator new
  00011	59		 pop	 ecx
  00012	c3		 ret	 0
$L118800:
  00013	e8 00 00 00 00	 call	 ?_M_allocate@?$__node_alloc@$00$0A@@_STL@@CAPAXI@Z ; _STL::__node_alloc<1,0>::_M_allocate
  00018	59		 pop	 ecx
  00019	c3		 ret	 0
?allocate@?$__node_alloc@$00$0A@@_STL@@SAPAXI@Z ENDP	; _STL::__node_alloc<1,0>::allocate
_TEXT	ENDS
PUBLIC	?deallocate@?$__node_alloc@$00$0A@@_STL@@SAXPAXI@Z ; _STL::__node_alloc<1,0>::deallocate
EXTRN	?_M_deallocate@?$__node_alloc@$00$0A@@_STL@@CAXPAXI@Z:NEAR ; _STL::__node_alloc<1,0>::_M_deallocate
; Function compile flags: /Ogsy
;	COMDAT ?deallocate@?$__node_alloc@$00$0A@@_STL@@SAXPAXI@Z
_TEXT	SEGMENT
___p$ = 8						; size = 4
___n$ = 12						; size = 4
?deallocate@?$__node_alloc@$00$0A@@_STL@@SAXPAXI@Z PROC NEAR ; _STL::__node_alloc<1,0>::deallocate, COMDAT

; 253  :   static void _STLP_CALL deallocate(void *__p, size_t __n) { if (__n > (size_t)_MAX_BYTES) __stl_delete(__p); else _M_deallocate(__p, __n); }

  00000	81 7c 24 08 80
	00 00 00	 cmp	 DWORD PTR ___n$[esp-4], 128 ; 00000080H
  00008	76 0b		 jbe	 SHORT $L98677
  0000a	ff 74 24 04	 push	 DWORD PTR ___p$[esp-4]
  0000e	e8 00 00 00 00	 call	 ??3@YAXPAX@Z		; operator delete
  00013	59		 pop	 ecx
  00014	c3		 ret	 0
$L98677:
  00015	e9 00 00 00 00	 jmp	 ?_M_deallocate@?$__node_alloc@$00$0A@@_STL@@CAXPAXI@Z ; _STL::__node_alloc<1,0>::_M_deallocate
?deallocate@?$__node_alloc@$00$0A@@_STL@@SAXPAXI@Z ENDP	; _STL::__node_alloc<1,0>::deallocate
_TEXT	ENDS
PUBLIC	??$min@I@_STL@@YAABIABI0@Z			; _STL::min<unsigned int>
; Function compile flags: /Ogsy
; File c:\stlport-4.6.1\stlport\stl\_algobase.h
;	COMDAT ??$min@I@_STL@@YAABIABI0@Z
_TEXT	SEGMENT
___a$ = 8						; size = 4
___b$ = 12						; size = 4
??$min@I@_STL@@YAABIABI0@Z PROC NEAR			; _STL::min<unsigned int>, COMDAT

; 77   : inline const _Tp& (min)(const _Tp& __a, const _Tp& __b) { return __b < __a ? __b : __a; }

  00000	8b 44 24 08	 mov	 eax, DWORD PTR ___b$[esp-4]
  00004	8b 10		 mov	 edx, DWORD PTR [eax]
  00006	8b 4c 24 04	 mov	 ecx, DWORD PTR ___a$[esp-4]
  0000a	3b 11		 cmp	 edx, DWORD PTR [ecx]
  0000c	72 02		 jb	 SHORT $L118817
  0000e	8b c1		 mov	 eax, ecx
$L118817:
  00010	c3		 ret	 0
??$min@I@_STL@@YAABIABI0@Z ENDP				; _STL::min<unsigned int>
_TEXT	ENDS
PUBLIC	??_C@_0BB@DDHHBAHM@?E?E?P?P?$LA?q?$CI?V?V?W?e?G?$LA?H?$PN?$CJ?$AA@ ; `string'
PUBLIC	??_C@_0BJ@MHCDNMAM@?$LJ?m?5?5?5?5?5?5?5?5?5?H?K?5?5?5?5?5?5?5?5?5?D?$KH?$AA@ ; `string'
PUBLIC	?ShowBord@CInfomationBord@@QAEXPAUPrintInfo@@@Z	; CInfomationBord::ShowBord
EXTRN	?gpC_base@@3PAVBase@@A:DWORD			; gpC_base
;	COMDAT ?InfoBordWidth@?3??ShowBord@CInfomationBord@@QAEXPAUPrintInfo@@@Z@4HA
; File c:\stlport-4.6.1\stlport\stl\_string.h
_BSS	SEGMENT
?InfoBordWidth@?3??ShowBord@CInfomationBord@@QAEXPAUPrintInfo@@@Z@4HA DD 01H DUP (?) ; `CInfomationBord::ShowBord'::`4'::InfoBordWidth
_BSS	ENDS
;	COMDAT ?$S79@?3??ShowBord@CInfomationBord@@QAEXPAUPrintInfo@@@Z@4IA
_BSS	SEGMENT
?$S79@?3??ShowBord@CInfomationBord@@QAEXPAUPrintInfo@@@Z@4IA DD 01H DUP (?) ; `CInfomationBord::ShowBord'::`4'::$S79
_BSS	ENDS
;	COMDAT ?InfoBordX@?3??ShowBord@CInfomationBord@@QAEXPAUPrintInfo@@@Z@4HA
_BSS	SEGMENT
?InfoBordX@?3??ShowBord@CInfomationBord@@QAEXPAUPrintInfo@@@Z@4HA DD 01H DUP (?) ; `CInfomationBord::ShowBord'::`4'::InfoBordX
_BSS	ENDS
;	COMDAT ?InfoBordY@?3??ShowBord@CInfomationBord@@QAEXPAUPrintInfo@@@Z@4HA
_BSS	SEGMENT
?InfoBordY@?3??ShowBord@CInfomationBord@@QAEXPAUPrintInfo@@@Z@4HA DD 01H DUP (?) ; `CInfomationBord::ShowBord'::`4'::InfoBordY
_BSS	ENDS
;	COMDAT ?InfoBordRt@?3??ShowBord@CInfomationBord@@QAEXPAUPrintInfo@@@Z@4UtagRECT@@A
_BSS	SEGMENT
?InfoBordRt@?3??ShowBord@CInfomationBord@@QAEXPAUPrintInfo@@@Z@4UtagRECT@@A DB 010H DUP (?) ; `CInfomationBord::ShowBord'::`4'::InfoBordRt
_BSS	ENDS
;	COMDAT ?InfoBordHeight@?3??ShowBord@CInfomationBord@@QAEXPAUPrintInfo@@@Z@4HA
_DATA	SEGMENT
?InfoBordHeight@?3??ShowBord@CInfomationBord@@QAEXPAUPrintInfo@@@Z@4HA DD 014H ; `CInfomationBord::ShowBord'::`4'::InfoBordHeight
_DATA	ENDS
;	COMDAT ??_C@_0BB@DDHHBAHM@?E?E?P?P?$LA?q?$CI?V?V?W?e?G?$LA?H?$PN?$CJ?$AA@
CONST	SEGMENT
??_C@_0BB@DDHHBAHM@?E?E?P?P?$LA?q?$CI?V?V?W?e?G?$LA?H?$PN?$CJ?$AA@ DB 0c5H
	DB	0c5H, 0d0H, 0d0H, 0b0H, 0f1H, '(', 0d6H, 0d6H, 0d7H, 0e5H, 0c7H
	DB	0b0H, 0c8H, 0fdH, ')', 00H			; `string'
CONST	ENDS
;	COMDAT ??_C@_0BJ@MHCDNMAM@?$LJ?m?5?5?5?5?5?5?5?5?5?H?K?5?5?5?5?5?5?5?5?5?D?$KH?$AA@
CONST	SEGMENT
??_C@_0BJ@MHCDNMAM@?$LJ?m?5?5?5?5?5?5?5?5?5?H?K?5?5?5?5?5?5?5?5?5?D?$KH?$AA@ DB 0b9H
	DB	0edH, '         ', 0c8H, 0cbH, '         ', 0c4H, 0a7H, 00H ; `string'
; Function compile flags: /Ogsy
; File c:\darkeden\designed_common\project\client\cmessagearray.cpp
CONST	ENDS
;	COMDAT ?ShowBord@CInfomationBord@@QAEXPAUPrintInfo@@@Z
_TEXT	SEGMENT
_p_print_info$ = 8					; size = 4
?ShowBord@CInfomationBord@@QAEXPAUPrintInfo@@@Z PROC NEAR ; CInfomationBord::ShowBord, COMDAT
; _this$ = ecx

; 179  : 	if ( !g_bShowBord )

  00000	80 3d 00 00 00
	00 00		 cmp	 BYTE PTR ?g_bShowBord@@3_NA, 0 ; g_bShowBord
  00007	56		 push	 esi
  00008	8b f1		 mov	 esi, ecx
  0000a	0f 84 c6 01 00
	00		 je	 $L117096

; 180  : 		return;
; 181  : 
; 182  : 	static int InfoBordWidth = g_pUserInformation->iResolution_x / 2;

  00010	8b 0d 00 00 00
	00		 mov	 ecx, DWORD PTR ?g_pUserInformation@@3PAVUserInformation@@A ; g_pUserInformation
  00016	53		 push	 ebx
  00017	8b 1d 00 00 00
	00		 mov	 ebx, DWORD PTR ?$S79@?3??ShowBord@CInfomationBord@@QAEXPAUPrintInfo@@@Z@4IA
  0001d	f6 c3 01	 test	 bl, 1
  00020	55		 push	 ebp
  00021	57		 push	 edi
  00022	75 1e		 jne	 SHORT $L118862
  00024	8b 81 4c 01 00
	00		 mov	 eax, DWORD PTR [ecx+332]
  0002a	99		 cdq
  0002b	2b c2		 sub	 eax, edx
  0002d	83 cb 01	 or	 ebx, 1
  00030	8b e8		 mov	 ebp, eax
  00032	d1 fd		 sar	 ebp, 1
  00034	89 1d 00 00 00
	00		 mov	 DWORD PTR ?$S79@?3??ShowBord@CInfomationBord@@QAEXPAUPrintInfo@@@Z@4IA, ebx
  0003a	89 2d 00 00 00
	00		 mov	 DWORD PTR ?InfoBordWidth@?3??ShowBord@CInfomationBord@@QAEXPAUPrintInfo@@@Z@4HA, ebp
  00040	eb 06		 jmp	 SHORT $L117102
$L118862:
  00042	8b 2d 00 00 00
	00		 mov	 ebp, DWORD PTR ?InfoBordWidth@?3??ShowBord@CInfomationBord@@QAEXPAUPrintInfo@@@Z@4HA
$L117102:

; 183  : 	static int InfoBordHeight = 20;	
; 184  : 	static int InfoBordX = (g_pUserInformation->iResolution_x-InfoBordWidth)/2 + 137;

  00048	f6 c3 02	 test	 bl, 2
  0004b	75 26		 jne	 SHORT $L118863
  0004d	8b 81 4c 01 00
	00		 mov	 eax, DWORD PTR [ecx+332]
  00053	2b c5		 sub	 eax, ebp
  00055	99		 cdq
  00056	2b c2		 sub	 eax, edx
  00058	8b f8		 mov	 edi, eax
  0005a	83 cb 02	 or	 ebx, 2
  0005d	d1 ff		 sar	 edi, 1
  0005f	81 c7 89 00 00
	00		 add	 edi, 137		; 00000089H
  00065	89 1d 00 00 00
	00		 mov	 DWORD PTR ?$S79@?3??ShowBord@CInfomationBord@@QAEXPAUPrintInfo@@@Z@4IA, ebx
  0006b	89 3d 00 00 00
	00		 mov	 DWORD PTR ?InfoBordX@?3??ShowBord@CInfomationBord@@QAEXPAUPrintInfo@@@Z@4HA, edi
  00071	eb 06		 jmp	 SHORT $L117107
$L118863:
  00073	8b 3d 00 00 00
	00		 mov	 edi, DWORD PTR ?InfoBordX@?3??ShowBord@CInfomationBord@@QAEXPAUPrintInfo@@@Z@4HA
$L117107:

; 185  : 	static int InfoBordY = g_pUserInformation->iResolution_y / 4 - 128 + 31;	

  00079	f6 c3 04	 test	 bl, 4
  0007c	75 25		 jne	 SHORT $L118864
  0007e	8b 81 50 01 00
	00		 mov	 eax, DWORD PTR [ecx+336]
  00084	99		 cdq
  00085	6a 04		 push	 4
  00087	5d		 pop	 ebp
  00088	f7 fd		 idiv	 ebp
  0008a	8b 2d 00 00 00
	00		 mov	 ebp, DWORD PTR ?InfoBordWidth@?3??ShowBord@CInfomationBord@@QAEXPAUPrintInfo@@@Z@4HA
  00090	83 cb 04	 or	 ebx, 4
  00093	89 1d 00 00 00
	00		 mov	 DWORD PTR ?$S79@?3??ShowBord@CInfomationBord@@QAEXPAUPrintInfo@@@Z@4IA, ebx
  00099	83 e8 61	 sub	 eax, 97			; 00000061H
  0009c	a3 00 00 00 00	 mov	 DWORD PTR ?InfoBordY@?3??ShowBord@CInfomationBord@@QAEXPAUPrintInfo@@@Z@4HA, eax
  000a1	eb 05		 jmp	 SHORT $L117110
$L118864:
  000a3	a1 00 00 00 00	 mov	 eax, DWORD PTR ?InfoBordY@?3??ShowBord@CInfomationBord@@QAEXPAUPrintInfo@@@Z@4HA
$L117110:

; 186  : 	static RECT InfoBordRt = {InfoBordX, InfoBordY, InfoBordX+InfoBordWidth, InfoBordY+InfoBordHeight};

  000a8	f6 c3 08	 test	 bl, 8
  000ab	75 2a		 jne	 SHORT $L117113
  000ad	8b 15 00 00 00
	00		 mov	 edx, DWORD PTR ?InfoBordHeight@?3??ShowBord@CInfomationBord@@QAEXPAUPrintInfo@@@Z@4HA
  000b3	83 cb 08	 or	 ebx, 8
  000b6	89 3d 00 00 00
	00		 mov	 DWORD PTR ?InfoBordRt@?3??ShowBord@CInfomationBord@@QAEXPAUPrintInfo@@@Z@4UtagRECT@@A, edi
  000bc	03 fd		 add	 edi, ebp
  000be	03 d0		 add	 edx, eax
  000c0	89 1d 00 00 00
	00		 mov	 DWORD PTR ?$S79@?3??ShowBord@CInfomationBord@@QAEXPAUPrintInfo@@@Z@4IA, ebx
  000c6	a3 04 00 00 00	 mov	 DWORD PTR ?InfoBordRt@?3??ShowBord@CInfomationBord@@QAEXPAUPrintInfo@@@Z@4UtagRECT@@A+4, eax
  000cb	89 3d 08 00 00
	00		 mov	 DWORD PTR ?InfoBordRt@?3??ShowBord@CInfomationBord@@QAEXPAUPrintInfo@@@Z@4UtagRECT@@A+8, edi
  000d1	89 15 0c 00 00
	00		 mov	 DWORD PTR ?InfoBordRt@?3??ShowBord@CInfomationBord@@QAEXPAUPrintInfo@@@Z@4UtagRECT@@A+12, edx
$L117113:

; 187  : 
; 188  : 	//g_DrawText (&InfoBordRt, m_strShowScore.c_str(), p_print_info);
; 189  : 
; 190  : 	int nRankingX = g_pUserInformation->iResolution_x - 100-35;
; 191  : 	int nRankingY = 200;
; 192  : 
; 193  : 	DrawText(nRankingX - 41, nRankingY - 40, "()", &gpC_base->m_info_pi);

  000d7	a1 00 00 00 00	 mov	 eax, DWORD PTR ?gpC_base@@3PAVBase@@A ; gpC_base
  000dc	8b b9 4c 01 00
	00		 mov	 edi, DWORD PTR [ecx+332]
  000e2	05 6c 01 00 00	 add	 eax, 364		; 0000016cH
  000e7	50		 push	 eax
  000e8	68 00 00 00 00	 push	 OFFSET FLAT:??_C@_0BB@DDHHBAHM@?E?E?P?P?$LA?q?$CI?V?V?W?e?G?$LA?H?$PN?$CJ?$AA@
  000ed	81 ef 87 00 00
	00		 sub	 edi, 135		; 00000087H
  000f3	8d 47 d7	 lea	 eax, DWORD PTR [edi-41]
  000f6	68 a0 00 00 00	 push	 160			; 000000a0H
  000fb	50		 push	 eax
  000fc	e8 00 00 00 00	 call	 ?DrawTextA@@YAXHHPBDPAUPrintInfo@@@Z ; DrawTextA

; 194  : 	DrawText(nRankingX - 90, nRankingY-20, "                  ", &gpC_base->m_info_pi);

  00101	a1 00 00 00 00	 mov	 eax, DWORD PTR ?gpC_base@@3PAVBase@@A ; gpC_base
  00106	05 6c 01 00 00	 add	 eax, 364		; 0000016cH
  0010b	50		 push	 eax
  0010c	68 00 00 00 00	 push	 OFFSET FLAT:??_C@_0BJ@MHCDNMAM@?$LJ?m?5?5?5?5?5?5?5?5?5?H?K?5?5?5?5?5?5?5?5?5?D?$KH?$AA@
  00111	8d 47 a6	 lea	 eax, DWORD PTR [edi-90]
  00114	68 b4 00 00 00	 push	 180			; 000000b4H
  00119	50		 push	 eax
  0011a	e8 00 00 00 00	 call	 ?DrawTextA@@YAXHHPBDPAUPrintInfo@@@Z ; DrawTextA

; 195  : 
; 196  : 	int nNO_X = nRankingX - 90 - 25;

  0011f	8d 5f 8d	 lea	 ebx, DWORD PTR [edi-115]

; 197  : 	int nNO_Y = nRankingY;
; 198  : 
; 199  : 	PrintInfo *pi = &gpC_base->m_info_pi;

  00122	8b 3d 00 00 00
	00		 mov	 edi, DWORD PTR ?gpC_base@@3PAVBase@@A ; gpC_base
  00128	81 c7 6c 01 00
	00		 add	 edi, 364		; 0000016cH

; 200  : 
; 201  : 	DrawText(nNO_X, nNO_Y , m_strV[0].c_str(), pi); DrawText(nNO_X + 87, nNO_Y, m_strS[0].c_str(), pi); DrawText(nNO_X + 87*2, nNO_Y, m_strO[0].c_str(), pi);

  0012e	57		 push	 edi
  0012f	ff 76 0c	 push	 DWORD PTR [esi+12]
  00132	bd c8 00 00 00	 mov	 ebp, 200		; 000000c8H
  00137	55		 push	 ebp
  00138	53		 push	 ebx
  00139	e8 00 00 00 00	 call	 ?DrawTextA@@YAXHHPBDPAUPrintInfo@@@Z ; DrawTextA
  0013e	57		 push	 edi
  0013f	ff 76 30	 push	 DWORD PTR [esi+48]
  00142	8d 43 57	 lea	 eax, DWORD PTR [ebx+87]
  00145	55		 push	 ebp
  00146	50		 push	 eax
  00147	e8 00 00 00 00	 call	 ?DrawTextA@@YAXHHPBDPAUPrintInfo@@@Z ; DrawTextA
  0014c	83 c4 40	 add	 esp, 64			; 00000040H
  0014f	57		 push	 edi
  00150	ff 76 54	 push	 DWORD PTR [esi+84]
  00153	8d 83 ae 00 00
	00		 lea	 eax, DWORD PTR [ebx+174]
  00159	55		 push	 ebp
  0015a	50		 push	 eax
  0015b	e8 00 00 00 00	 call	 ?DrawTextA@@YAXHHPBDPAUPrintInfo@@@Z ; DrawTextA

; 202  : 	DrawText(nNO_X, nNO_Y + 25, m_strV[1].c_str(), pi); DrawText(nNO_X + 87, nNO_Y + 25, m_strS[1].c_str(), pi); DrawText(nNO_X + 87*2, nNO_Y + 25, m_strO[1].c_str(), pi);

  00160	57		 push	 edi
  00161	ff 76 18	 push	 DWORD PTR [esi+24]
  00164	83 c5 19	 add	 ebp, 25			; 00000019H
  00167	55		 push	 ebp
  00168	53		 push	 ebx
  00169	e8 00 00 00 00	 call	 ?DrawTextA@@YAXHHPBDPAUPrintInfo@@@Z ; DrawTextA
  0016e	57		 push	 edi
  0016f	ff 76 3c	 push	 DWORD PTR [esi+60]
  00172	8d 43 57	 lea	 eax, DWORD PTR [ebx+87]
  00175	55		 push	 ebp
  00176	50		 push	 eax
  00177	e8 00 00 00 00	 call	 ?DrawTextA@@YAXHHPBDPAUPrintInfo@@@Z ; DrawTextA
  0017c	57		 push	 edi
  0017d	ff 76 60	 push	 DWORD PTR [esi+96]
  00180	8d 83 ae 00 00
	00		 lea	 eax, DWORD PTR [ebx+174]
  00186	55		 push	 ebp
  00187	50		 push	 eax
  00188	e8 00 00 00 00	 call	 ?DrawTextA@@YAXHHPBDPAUPrintInfo@@@Z ; DrawTextA
  0018d	83 c4 40	 add	 esp, 64			; 00000040H

; 203  : 	DrawText(nNO_X, nNO_Y + 25*2, m_strV[2].c_str(), pi); DrawText(nNO_X + 87, nNO_Y + 25*2, m_strS[2].c_str(), pi); DrawText(nNO_X + 87*2, nNO_Y + 25*2, m_strO[2].c_str(), pi);

  00190	57		 push	 edi
  00191	ff 76 24	 push	 DWORD PTR [esi+36]
  00194	bd fa 00 00 00	 mov	 ebp, 250		; 000000faH
  00199	55		 push	 ebp
  0019a	53		 push	 ebx
  0019b	e8 00 00 00 00	 call	 ?DrawTextA@@YAXHHPBDPAUPrintInfo@@@Z ; DrawTextA
  001a0	57		 push	 edi
  001a1	ff 76 48	 push	 DWORD PTR [esi+72]
  001a4	8d 43 57	 lea	 eax, DWORD PTR [ebx+87]
  001a7	55		 push	 ebp
  001a8	50		 push	 eax
  001a9	e8 00 00 00 00	 call	 ?DrawTextA@@YAXHHPBDPAUPrintInfo@@@Z ; DrawTextA
  001ae	57		 push	 edi
  001af	ff 76 6c	 push	 DWORD PTR [esi+108]
  001b2	8d 83 ae 00 00
	00		 lea	 eax, DWORD PTR [ebx+174]
  001b8	55		 push	 ebp
  001b9	50		 push	 eax
  001ba	e8 00 00 00 00	 call	 ?DrawTextA@@YAXHHPBDPAUPrintInfo@@@Z ; DrawTextA

; 204  : 
; 205  : 	DrawText(nNO_X, nNO_Y + 25*4 , m_strShowScore.c_str(), p_print_info);

  001bf	ff 74 24 44	 push	 DWORD PTR _p_print_info$[esp+60]
  001c3	ff 36		 push	 DWORD PTR [esi]
  001c5	68 2c 01 00 00	 push	 300			; 0000012cH
  001ca	53		 push	 ebx
  001cb	e8 00 00 00 00	 call	 ?DrawTextA@@YAXHHPBDPAUPrintInfo@@@Z ; DrawTextA
  001d0	83 c4 40	 add	 esp, 64			; 00000040H
  001d3	5f		 pop	 edi
  001d4	5d		 pop	 ebp
  001d5	5b		 pop	 ebx
$L117096:
  001d6	5e		 pop	 esi

; 206  : }

  001d7	c2 04 00	 ret	 4
?ShowBord@CInfomationBord@@QAEXPAUPrintInfo@@@Z ENDP	; CInfomationBord::ShowBord
_TEXT	ENDS
PUBLIC	??1CMessageArray@@QAE@XZ			; CMessageArray::~CMessageArray
; Function compile flags: /Ogsy
;	COMDAT ??1CMessageArray@@QAE@XZ
_TEXT	SEGMENT
??1CMessageArray@@QAE@XZ PROC NEAR			; CMessageArray::~CMessageArray, COMDAT
; _this$ = ecx

; 233  : {

  00000	56		 push	 esi
  00001	8b f1		 mov	 esi, ecx

; 234  : 	Release();

  00003	e8 00 00 00 00	 call	 ?Release@CMessageArray@@QAEXXZ ; CMessageArray::Release

; 235  : }

  00008	c7 46 10 00 00
	00 00		 mov	 DWORD PTR [esi+16], OFFSET FLAT:??_7CTimeCtrl@@6B@
  0000f	5e		 pop	 esi
  00010	c3		 ret	 0
??1CMessageArray@@QAE@XZ ENDP				; CMessageArray::~CMessageArray
_TEXT	ENDS
PUBLIC	?Init@CMessageArray@@QAEXHHPBD@Z		; CMessageArray::Init
EXTRN	__open:NEAR
EXTRN	??_U@YAPAXI@Z:NEAR				; operator new[]
; Function compile flags: /Ogsy
;	COMDAT ?Init@CMessageArray@@QAEXHHPBD@Z
_TEXT	SEGMENT
_max$ = 8						; size = 4
_length$ = 12						; size = 4
_filename$ = 16						; size = 4
?Init@CMessageArray@@QAEXHHPBD@Z PROC NEAR		; CMessageArray::Init, COMDAT
; _this$ = ecx

; 249  : {

  00000	56		 push	 esi
  00001	57		 push	 edi
  00002	8b f1		 mov	 esi, ecx

; 250  : 	//   ..
; 251  : 	Release();

  00004	e8 00 00 00 00	 call	 ?Release@CMessageArray@@QAEXXZ ; CMessageArray::Release

; 252  : 
; 253  : 	m_Max		= max;

  00009	8b 44 24 0c	 mov	 eax, DWORD PTR _max$[esp+4]

; 254  : 	m_Length	= length;

  0000d	8b 4c 24 10	 mov	 ecx, DWORD PTR _length$[esp+4]

; 255  : 	m_Current	= 0;

  00011	83 66 0c 00	 and	 DWORD PTR [esi+12], 0
  00015	89 46 04	 mov	 DWORD PTR [esi+4], eax

; 256  : 
; 257  : 	// new
; 258  : 	m_ppMessage = new char* [ m_Max ];

  00018	c1 e0 02	 shl	 eax, 2
  0001b	50		 push	 eax
  0001c	89 0e		 mov	 DWORD PTR [esi], ecx
  0001e	e8 00 00 00 00	 call	 ??_U@YAPAXI@Z		; operator new[]

; 259  : 
; 260  : 	for (int i=0; i<m_Max; i++)

  00023	33 ff		 xor	 edi, edi
  00025	39 7e 04	 cmp	 DWORD PTR [esi+4], edi
  00028	59		 pop	 ecx
  00029	89 46 08	 mov	 DWORD PTR [esi+8], eax
  0002c	7e 1f		 jle	 SHORT $L117138
$L117136:

; 261  : 	{
; 262  : 		m_ppMessage[i] = new char [ m_Length+1 ];

  0002e	8b 06		 mov	 eax, DWORD PTR [esi]
  00030	40		 inc	 eax
  00031	50		 push	 eax
  00032	e8 00 00 00 00	 call	 ??_U@YAPAXI@Z		; operator new[]
  00037	59		 pop	 ecx
  00038	8b 4e 08	 mov	 ecx, DWORD PTR [esi+8]
  0003b	89 04 b9	 mov	 DWORD PTR [ecx+edi*4], eax

; 263  : 		m_ppMessage[i][0] = NULL;

  0003e	8b 46 08	 mov	 eax, DWORD PTR [esi+8]
  00041	8b 04 b8	 mov	 eax, DWORD PTR [eax+edi*4]
  00044	47		 inc	 edi
  00045	c6 00 00	 mov	 BYTE PTR [eax], 0
  00048	3b 7e 04	 cmp	 edi, DWORD PTR [esi+4]
  0004b	7c e1		 jl	 SHORT $L117136
$L117138:

; 264  : 	}
; 265  : 
; 266  : 	// file Log
; 267  : 	if (filename!=NULL)

  0004d	8b 7c 24 14	 mov	 edi, DWORD PTR _filename$[esp+4]
  00051	85 ff		 test	 edi, edi
  00053	74 31		 je	 SHORT $L117144

; 268  : 	{
; 269  : 		// filename .
; 270  : 		m_Filename = new char [strlen(filename)+1];

  00055	57		 push	 edi
  00056	e8 00 00 00 00	 call	 _strlen
  0005b	40		 inc	 eax
  0005c	50		 push	 eax
  0005d	e8 00 00 00 00	 call	 ??_U@YAPAXI@Z		; operator new[]

; 271  : 		strcpy(m_Filename, filename);

  00062	57		 push	 edi
  00063	50		 push	 eax
  00064	89 46 2c	 mov	 DWORD PTR [esi+44], eax
  00067	e8 00 00 00 00	 call	 _strcpy

; 272  : 
; 273  : 		m_LogFile = _open(filename, _O_WRONLY | _O_TEXT | _O_CREAT | _O_TRUNC);

  0006c	68 01 43 00 00	 push	 17153			; 00004301H
  00071	57		 push	 edi
  00072	e8 00 00 00 00	 call	 __open
  00077	83 c4 18	 add	 esp, 24			; 00000018H

; 274  : 
; 275  : 		if (m_LogFile!=-1)

  0007a	83 f8 ff	 cmp	 eax, -1
  0007d	89 46 28	 mov	 DWORD PTR [esi+40], eax
  00080	74 04		 je	 SHORT $L117144

; 276  : 		{
; 277  : 			m_bLog = true;

  00082	c6 46 24 01	 mov	 BYTE PTR [esi+36], 1
$L117144:
  00086	5f		 pop	 edi
  00087	5e		 pop	 esi

; 278  : 		}
; 279  : 	}
; 280  : }

  00088	c2 0c 00	 ret	 12			; 0000000cH
?Init@CMessageArray@@QAEXHHPBD@Z ENDP			; CMessageArray::Init
_TEXT	ENDS
PUBLIC	?_M_terminate_string@?$basic_string@DV?$char_traits@D@_STL@@V?$allocator@D@2@@_STL@@AAEXXZ ; _STL::basic_string<char,_STL::char_traits<char>,_STL::allocator<char> >::_M_terminate_string
; Function compile flags: /Ogsy
; File c:\stlport-4.6.1\stlport\stl\_string.h
;	COMDAT ?_M_terminate_string@?$basic_string@DV?$char_traits@D@_STL@@V?$allocator@D@2@@_STL@@AAEXXZ
_TEXT	SEGMENT
?_M_terminate_string@?$basic_string@DV?$char_traits@D@_STL@@V?$allocator@D@2@@_STL@@AAEXXZ PROC NEAR ; _STL::basic_string<char,_STL::char_traits<char>,_STL::allocator<char> >::_M_terminate_string, COMDAT
; _this$ = ecx

; 355  :     _M_terminate_string_aux(_Char_Is_Integral());

  00000	8b 41 04	 mov	 eax, DWORD PTR [ecx+4]
  00003	c6 00 00	 mov	 BYTE PTR [eax], 0

; 356  :   }

  00006	c3		 ret	 0
?_M_terminate_string@?$basic_string@DV?$char_traits@D@_STL@@V?$allocator@D@2@@_STL@@AAEXXZ ENDP ; _STL::basic_string<char,_STL::char_traits<char>,_STL::allocator<char> >::_M_terminate_string
_TEXT	ENDS
PUBLIC	?allocate@?$allocator@D@_STL@@QAEPADIPBX@Z	; _STL::allocator<char>::allocate
; Function compile flags: /Ogsy
; File c:\stlport-4.6.1\stlport\stl\_alloc.h
;	COMDAT ?allocate@?$allocator@D@_STL@@QAEPADIPBX@Z
_TEXT	SEGMENT
___n$ = 8						; size = 4
___formal$ = 12						; size = 4
?allocate@?$allocator@D@_STL@@QAEPADIPBX@Z PROC NEAR	; _STL::allocator<char>::allocate, COMDAT
; _this$ = ecx

; 355  :     return __n != 0 ? __REINTERPRET_CAST(value_type*,__sgi_alloc::allocate(__n * sizeof(value_type))) : 0;

  00000	33 c0		 xor	 eax, eax
  00002	39 44 24 04	 cmp	 DWORD PTR ___n$[esp-4], eax
  00006	74 0a		 je	 SHORT $L118892
  00008	ff 74 24 04	 push	 DWORD PTR ___n$[esp-4]
  0000c	e8 00 00 00 00	 call	 ?allocate@?$__node_alloc@$00$0A@@_STL@@SAPAXI@Z ; _STL::__node_alloc<1,0>::allocate
  00011	59		 pop	 ecx
$L118892:

; 356  :   }

  00012	c2 08 00	 ret	 8
?allocate@?$allocator@D@_STL@@QAEPADIPBX@Z ENDP		; _STL::allocator<char>::allocate
_TEXT	ENDS
PUBLIC	??0?$_STLP_alloc_proxy@PADDV?$allocator@D@_STL@@@_STL@@QAE@ABV?$allocator@D@1@PAD@Z ; _STL::_STLP_alloc_proxy<char *,char,_STL::allocator<char> >::_STLP_alloc_proxy<char *,char,_STL::allocator<char> >
; Function compile flags: /Ogsy
;	COMDAT ??0?$_STLP_alloc_proxy@PADDV?$allocator@D@_STL@@@_STL@@QAE@ABV?$allocator@D@1@PAD@Z
_TEXT	SEGMENT
___a$ = 8						; size = 4
___p$ = 12						; size = 4
??0?$_STLP_alloc_proxy@PADDV?$allocator@D@_STL@@@_STL@@QAE@ABV?$allocator@D@1@PAD@Z PROC NEAR ; _STL::_STLP_alloc_proxy<char *,char,_STL::allocator<char> >::_STLP_alloc_proxy<char *,char,_STL::allocator<char> >, COMDAT
; _this$ = ecx

; 487  :   inline _STLP_alloc_proxy(const _MaybeReboundAlloc& __a, _Value __p) : _MaybeReboundAlloc(__a), _M_data(__p) {}

  00000	8b c1		 mov	 eax, ecx
  00002	8b 4c 24 08	 mov	 ecx, DWORD PTR ___p$[esp-4]
  00006	89 08		 mov	 DWORD PTR [eax], ecx
  00008	c2 08 00	 ret	 8
??0?$_STLP_alloc_proxy@PADDV?$allocator@D@_STL@@@_STL@@QAE@ABV?$allocator@D@1@PAD@Z ENDP ; _STL::_STLP_alloc_proxy<char *,char,_STL::allocator<char> >::_STLP_alloc_proxy<char *,char,_STL::allocator<char> >
_TEXT	ENDS
PUBLIC	?erase@?$basic_string@DV?$char_traits@D@_STL@@V?$allocator@D@2@@_STL@@QAEPADPAD0@Z ; _STL::basic_string<char,_STL::char_traits<char>,_STL::allocator<char> >::erase
; Function compile flags: /Ogsy
; File c:\stlport-4.6.1\stlport\stl\_string.h
;	COMDAT ?erase@?$basic_string@DV?$char_traits@D@_STL@@V?$allocator@D@2@@_STL@@QAEPADPAD0@Z
_TEXT	SEGMENT
___first$ = 8						; size = 4
___last$ = 12						; size = 4
?erase@?$basic_string@DV?$char_traits@D@_STL@@V?$allocator@D@2@@_STL@@QAEPADPAD0@Z PROC NEAR ; _STL::basic_string<char,_STL::char_traits<char>,_STL::allocator<char> >::erase, COMDAT
; _this$ = ecx

; 862  :   iterator erase(iterator __first, iterator __last) {

  00000	53		 push	 ebx

; 863  :     if (__first != __last) {

  00001	8b 5c 24 08	 mov	 ebx, DWORD PTR ___first$[esp]
  00005	56		 push	 esi
  00006	57		 push	 edi
  00007	8b 7c 24 14	 mov	 edi, DWORD PTR ___last$[esp+8]
  0000b	3b df		 cmp	 ebx, edi
  0000d	8b f1		 mov	 esi, ecx
  0000f	74 1a		 je	 SHORT $L117477

; 864  :                                 // The move includes the terminating _CharT().
; 865  :       traits_type::move(__first, __last, (this->_M_finish - __last) + 1);

  00011	8b 46 04	 mov	 eax, DWORD PTR [esi+4]
  00014	2b c7		 sub	 eax, edi
  00016	40		 inc	 eax
  00017	74 0b		 je	 SHORT $L118904
  00019	50		 push	 eax
  0001a	57		 push	 edi
  0001b	53		 push	 ebx
  0001c	e8 00 00 00 00	 call	 _memmove
  00021	83 c4 0c	 add	 esp, 12			; 0000000cH
$L118904:

; 866  :       pointer __new_finish = this->_M_finish - (__last - __first);

  00024	8b c3		 mov	 eax, ebx
  00026	2b c7		 sub	 eax, edi

; 867  :       _STLP_STD::_Destroy(__new_finish + 1, this->_M_finish + 1);
; 868  :       this->_M_finish = __new_finish;

  00028	01 46 04	 add	 DWORD PTR [esi+4], eax
$L117477:
  0002b	5f		 pop	 edi
  0002c	5e		 pop	 esi

; 869  :     }
; 870  :     return __first;

  0002d	8b c3		 mov	 eax, ebx
  0002f	5b		 pop	 ebx

; 871  :   }

  00030	c2 08 00	 ret	 8
?erase@?$basic_string@DV?$char_traits@D@_STL@@V?$allocator@D@2@@_STL@@QAEPADPAD0@Z ENDP ; _STL::basic_string<char,_STL::char_traits<char>,_STL::allocator<char> >::erase
_TEXT	ENDS
PUBLIC	?find@?$basic_string@DV?$char_traits@D@_STL@@V?$allocator@D@2@@_STL@@QBEIPBDII@Z ; _STL::basic_string<char,_STL::char_traits<char>,_STL::allocator<char> >::find
; Function compile flags: /Ogsy
; File c:\stlport-4.6.1\stlport\stl\_string.c
;	COMDAT ?find@?$basic_string@DV?$char_traits@D@_STL@@V?$allocator@D@2@@_STL@@QBEIPBDII@Z
_TEXT	SEGMENT
___s$ = 8						; size = 4
$T118913 = 12						; size = 1
___pos$ = 12						; size = 4
___n$ = 16						; size = 4
?find@?$basic_string@DV?$char_traits@D@_STL@@V?$allocator@D@2@@_STL@@QBEIPBDII@Z PROC NEAR ; _STL::basic_string<char,_STL::char_traits<char>,_STL::allocator<char> >::find, COMDAT
; _this$ = ecx

; 342  : {

  00000	55		 push	 ebp
  00001	8b ec		 mov	 ebp, esp

; 343  :   if (__pos + __n > size())

  00003	8b 45 0c	 mov	 eax, DWORD PTR ___pos$[ebp]
  00006	53		 push	 ebx
  00007	56		 push	 esi
  00008	8b 31		 mov	 esi, DWORD PTR [ecx]
  0000a	57		 push	 edi
  0000b	8b 79 04	 mov	 edi, DWORD PTR [ecx+4]
  0000e	8b 4d 10	 mov	 ecx, DWORD PTR ___n$[ebp]
  00011	8b d7		 mov	 edx, edi
  00013	2b d6		 sub	 edx, esi
  00015	8d 1c 08	 lea	 ebx, DWORD PTR [eax+ecx]
  00018	3b da		 cmp	 ebx, edx
  0001a	76 05		 jbe	 SHORT $L117493

; 344  :     return npos;

  0001c	83 c8 ff	 or	 eax, -1
  0001f	eb 21		 jmp	 SHORT $L117494
$L117493:

; 345  :   else {
; 346  :     const const_pointer __result =
; 347  :       _STLP_STD::search((const _CharT*)this->_M_start + __pos, (const _CharT*)this->_M_finish, 
; 348  : 			__s, __s + __n, _Eq_traits<_Traits>());

  00021	ff 75 0c	 push	 DWORD PTR $T118913[ebp]
  00024	8b 55 08	 mov	 edx, DWORD PTR ___s$[ebp]
  00027	03 ca		 add	 ecx, edx
  00029	51		 push	 ecx
  0002a	52		 push	 edx
  0002b	03 c6		 add	 eax, esi
  0002d	57		 push	 edi
  0002e	50		 push	 eax
  0002f	e8 00 00 00 00	 call	 ??$search@PBDPBDU?$_Eq_traits@V?$char_traits@D@_STL@@@_STL@@@_STL@@YAPBDPBD000U?$_Eq_traits@V?$char_traits@D@_STL@@@0@@Z ; _STL::search<char const *,char const *,_STL::_Eq_traits<_STL::char_traits<char> > >
  00034	83 c4 14	 add	 esp, 20			; 00000014H

; 349  :     return __result != this->_M_finish ? __result - this->_M_start : npos;

  00037	3b c7		 cmp	 eax, edi
  00039	74 04		 je	 SHORT $L118914
  0003b	2b c6		 sub	 eax, esi
  0003d	eb 03		 jmp	 SHORT $L117494
$L118914:
  0003f	83 c8 ff	 or	 eax, -1
$L117494:
  00042	5f		 pop	 edi
  00043	5e		 pop	 esi
  00044	5b		 pop	 ebx

; 350  :   }
; 351  : }

  00045	5d		 pop	 ebp
  00046	c2 0c 00	 ret	 12			; 0000000cH
?find@?$basic_string@DV?$char_traits@D@_STL@@V?$allocator@D@2@@_STL@@QBEIPBDII@Z ENDP ; _STL::basic_string<char,_STL::char_traits<char>,_STL::allocator<char> >::find
_TEXT	ENDS
PUBLIC	??$distance@PBD@_STL@@YAHABQBD0@Z		; _STL::distance<char const *>
; Function compile flags: /Ogsy
; File c:\stlport-4.6.1\stlport\stl\_iterator_base.h
;	COMDAT ??$distance@PBD@_STL@@YAHABQBD0@Z
_TEXT	SEGMENT
___first$ = 8						; size = 4
___last$ = 12						; size = 4
??$distance@PBD@_STL@@YAHABQBD0@Z PROC NEAR		; _STL::distance<char const *>, COMDAT

; 369  :   return __distance(__first, __last, _STLP_ITERATOR_CATEGORY(__first, _InputIterator));  

  00000	8b 44 24 08	 mov	 eax, DWORD PTR ___last$[esp-4]
  00004	8b 00		 mov	 eax, DWORD PTR [eax]
  00006	8b 4c 24 04	 mov	 ecx, DWORD PTR ___first$[esp-4]
  0000a	2b 01		 sub	 eax, DWORD PTR [ecx]

; 370  : }

  0000c	c3		 ret	 0
??$distance@PBD@_STL@@YAHABQBD0@Z ENDP			; _STL::distance<char const *>
_TEXT	ENDS
PUBLIC	?_M_allocate_block@?$_String_base@DV?$allocator@D@_STL@@@_STL@@QAEXI@Z ; _STL::_String_base<char,_STL::allocator<char> >::_M_allocate_block
; Function compile flags: /Ogsy
; File c:\stlport-4.6.1\stlport\stl\_string.c
;	COMDAT ?_M_allocate_block@?$_String_base@DV?$allocator@D@_STL@@@_STL@@QAEXI@Z
_TEXT	SEGMENT
___n$ = 8						; size = 4
?_M_allocate_block@?$_String_base@DV?$allocator@D@_STL@@@_STL@@QAEXI@Z PROC NEAR ; _STL::_String_base<char,_STL::allocator<char> >::_M_allocate_block, COMDAT
; _this$ = ecx

; 530  : template <class _Tp, class _Alloc> void _String_base<_Tp, _Alloc>::_M_allocate_block(size_t __n) {  

  00000	56		 push	 esi
  00001	57		 push	 edi

; 531  :   if ((__n <= (max_size()+1)) && (__n>0)){ 

  00002	8b 7c 24 0c	 mov	 edi, DWORD PTR ___n$[esp+4]
  00006	83 ff ff	 cmp	 edi, -1
  00009	8b f1		 mov	 esi, ecx
  0000b	77 17		 ja	 SHORT $L117944
  0000d	85 ff		 test	 edi, edi
  0000f	76 13		 jbe	 SHORT $L117944

; 532  :     _M_start  = _M_end_of_storage.allocate(__n); 

  00011	57		 push	 edi
  00012	e8 00 00 00 00	 call	 ?allocate@?$__node_alloc@$00$0A@@_STL@@SAPAXI@Z ; _STL::__node_alloc<1,0>::allocate
  00017	89 06		 mov	 DWORD PTR [esi], eax

; 533  :     _M_finish = _M_start; 

  00019	89 46 04	 mov	 DWORD PTR [esi+4], eax

; 534  :     _M_end_of_storage._M_data = _M_start + __n; 

  0001c	03 c7		 add	 eax, edi
  0001e	59		 pop	 ecx
  0001f	89 46 08	 mov	 DWORD PTR [esi+8], eax

; 535  :   } 
; 536  :     else 

  00022	eb 07		 jmp	 SHORT $L117945
$L117944:

; 537  :       _M_throw_length_error(); 

  00024	8b ce		 mov	 ecx, esi
  00026	e8 00 00 00 00	 call	 ?_M_throw_length_error@?$_String_base@DV?$allocator@D@_STL@@@_STL@@QBEXXZ ; _STL::_String_base<char,_STL::allocator<char> >::_M_throw_length_error
$L117945:
  0002b	5f		 pop	 edi
  0002c	5e		 pop	 esi

; 538  : } 

  0002d	c2 04 00	 ret	 4
?_M_allocate_block@?$_String_base@DV?$allocator@D@_STL@@@_STL@@QAEXI@Z ENDP ; _STL::_String_base<char,_STL::allocator<char> >::_M_allocate_block
_TEXT	ENDS
PUBLIC	??$distance@PAD@_STL@@YAHABQAD0@Z		; _STL::distance<char *>
; Function compile flags: /Ogsy
; File c:\stlport-4.6.1\stlport\stl\_iterator_base.h
;	COMDAT ??$distance@PAD@_STL@@YAHABQAD0@Z
_TEXT	SEGMENT
___first$ = 8						; size = 4
___last$ = 12						; size = 4
??$distance@PAD@_STL@@YAHABQAD0@Z PROC NEAR		; _STL::distance<char *>, COMDAT

; 369  :   return __distance(__first, __last, _STLP_ITERATOR_CATEGORY(__first, _InputIterator));  

  00000	8b 44 24 08	 mov	 eax, DWORD PTR ___last$[esp-4]
  00004	8b 00		 mov	 eax, DWORD PTR [eax]
  00006	8b 4c 24 04	 mov	 ecx, DWORD PTR ___first$[esp-4]
  0000a	2b 01		 sub	 eax, DWORD PTR [ecx]

; 370  : }

  0000c	c3		 ret	 0
??$distance@PAD@_STL@@YAHABQAD0@Z ENDP			; _STL::distance<char *>
_TEXT	ENDS
PUBLIC	?_M_construct_null@?$basic_string@DV?$char_traits@D@_STL@@V?$allocator@D@2@@_STL@@AAEXPAD@Z ; _STL::basic_string<char,_STL::char_traits<char>,_STL::allocator<char> >::_M_construct_null
; Function compile flags: /Ogsy
; File c:\stlport-4.6.1\stlport\stl\_string.h
;	COMDAT ?_M_construct_null@?$basic_string@DV?$char_traits@D@_STL@@V?$allocator@D@2@@_STL@@AAEXPAD@Z
_TEXT	SEGMENT
___p$ = 8						; size = 4
?_M_construct_null@?$basic_string@DV?$char_traits@D@_STL@@V?$allocator@D@2@@_STL@@AAEXPAD@Z PROC NEAR ; _STL::basic_string<char,_STL::char_traits<char>,_STL::allocator<char> >::_M_construct_null, COMDAT
; _this$ = ecx

; 336  :     _M_construct_null_aux(__p, _Char_Is_Integral());

  00000	8b 44 24 04	 mov	 eax, DWORD PTR ___p$[esp-4]
  00004	c6 00 00	 mov	 BYTE PTR [eax], 0

; 337  :   }

  00007	c2 04 00	 ret	 4
?_M_construct_null@?$basic_string@DV?$char_traits@D@_STL@@V?$allocator@D@2@@_STL@@AAEXPAD@Z ENDP ; _STL::basic_string<char,_STL::char_traits<char>,_STL::allocator<char> >::_M_construct_null
_TEXT	ENDS
PUBLIC	?max_size@?$basic_string@DV?$char_traits@D@_STL@@V?$allocator@D@2@@_STL@@QBEIXZ ; _STL::basic_string<char,_STL::char_traits<char>,_STL::allocator<char> >::max_size
; Function compile flags: /Ogsy
;	COMDAT ?max_size@?$basic_string@DV?$char_traits@D@_STL@@V?$allocator@D@2@@_STL@@QBEIXZ
_TEXT	SEGMENT
?max_size@?$basic_string@DV?$char_traits@D@_STL@@V?$allocator@D@2@@_STL@@QBEIXZ PROC NEAR ; _STL::basic_string<char,_STL::char_traits<char>,_STL::allocator<char> >::max_size, COMDAT
; _this$ = ecx

; 434  :   size_t max_size() const { return _Base::max_size(); }

  00000	6a fe		 push	 -2			; fffffffeH
  00002	58		 pop	 eax
  00003	c3		 ret	 0
?max_size@?$basic_string@DV?$char_traits@D@_STL@@V?$allocator@D@2@@_STL@@QBEIXZ ENDP ; _STL::basic_string<char,_STL::char_traits<char>,_STL::allocator<char> >::max_size
_TEXT	ENDS
PUBLIC	??$__copy_aux@PADPAD@_STL@@YAPADPAD00ABU__true_type@0@@Z ; _STL::__copy_aux<char *,char *>
; Function compile flags: /Ogsy
; File c:\stlport-4.6.1\stlport\stl\_algobase.h
;	COMDAT ??$__copy_aux@PADPAD@_STL@@YAPADPAD00ABU__true_type@0@@Z
_TEXT	SEGMENT
___first$ = 8						; size = 4
___last$ = 12						; size = 4
___result$ = 16						; size = 4
___formal$ = 20						; size = 4
??$__copy_aux@PADPAD@_STL@@YAPADPAD00ABU__true_type@0@@Z PROC NEAR ; _STL::__copy_aux<char *,char *>, COMDAT

; 202  :   return __copy_ptrs(__first, __last, __result, 
; 203  :                      _IsOKToMemCpy(_STLP_VALUE_TYPE(__first, _InputIter), 
; 204  :                                    _STLP_VALUE_TYPE(__result, _OutputIter))._Ret());

  00000	ff 74 24 0c	 push	 DWORD PTR ___result$[esp-4]
  00004	ff 74 24 0c	 push	 DWORD PTR ___last$[esp]
  00008	ff 74 24 0c	 push	 DWORD PTR ___first$[esp+4]
  0000c	e8 00 00 00 00	 call	 ?__copy_trivial@_STL@@YAPAXPBX0PAX@Z ; _STL::__copy_trivial
  00011	83 c4 0c	 add	 esp, 12			; 0000000cH

; 205  : }

  00014	c3		 ret	 0
??$__copy_aux@PADPAD@_STL@@YAPADPAD00ABU__true_type@0@@Z ENDP ; _STL::__copy_aux<char *,char *>
_TEXT	ENDS
PUBLIC	?deallocate@?$allocator@D@_STL@@QAEXPADI@Z	; _STL::allocator<char>::deallocate
; Function compile flags: /Ogsy
; File c:\stlport-4.6.1\stlport\stl\_alloc.h
;	COMDAT ?deallocate@?$allocator@D@_STL@@QAEXPADI@Z
_TEXT	SEGMENT
___p$ = 8						; size = 4
___n$ = 12						; size = 4
?deallocate@?$allocator@D@_STL@@QAEXPADI@Z PROC NEAR	; _STL::allocator<char>::deallocate, COMDAT
; _this$ = ecx

; 359  :     _STLP_ASSERT( (__p == 0) == (__n == 0) )
; 360  :       if (__p != 0) __sgi_alloc::deallocate((void*)__p, __n * sizeof(value_type));

  00000	83 7c 24 04 00	 cmp	 DWORD PTR ___p$[esp-4], 0
  00005	74 0f		 je	 SHORT $L98663
  00007	ff 74 24 08	 push	 DWORD PTR ___n$[esp-4]
  0000b	ff 74 24 08	 push	 DWORD PTR ___p$[esp]
  0000f	e8 00 00 00 00	 call	 ?deallocate@?$__node_alloc@$00$0A@@_STL@@SAXPAXI@Z ; _STL::__node_alloc<1,0>::deallocate
  00014	59		 pop	 ecx
  00015	59		 pop	 ecx
$L98663:

; 361  :   }

  00016	c2 08 00	 ret	 8
?deallocate@?$allocator@D@_STL@@QAEXPADI@Z ENDP		; _STL::allocator<char>::deallocate
_TEXT	ENDS
PUBLIC	?find@?$basic_string@DV?$char_traits@D@_STL@@V?$allocator@D@2@@_STL@@QBEIPBDI@Z ; _STL::basic_string<char,_STL::char_traits<char>,_STL::allocator<char> >::find
; Function compile flags: /Ogsy
; File c:\stlport-4.6.1\stlport\stl\_string.h
;	COMDAT ?find@?$basic_string@DV?$char_traits@D@_STL@@V?$allocator@D@2@@_STL@@QBEIPBDI@Z
_TEXT	SEGMENT
___s$ = 8						; size = 4
___pos$ = 12						; size = 4
?find@?$basic_string@DV?$char_traits@D@_STL@@V?$allocator@D@2@@_STL@@QBEIPBDI@Z PROC NEAR ; _STL::basic_string<char,_STL::char_traits<char>,_STL::allocator<char> >::find, COMDAT
; _this$ = ecx

; 1074 :     { _STLP_FIX_LITERAL_BUG(__s) return find(__s, __pos, _Traits::length(__s)); }

  00000	56		 push	 esi
  00001	ff 74 24 08	 push	 DWORD PTR ___s$[esp]
  00005	8b f1		 mov	 esi, ecx
  00007	e8 00 00 00 00	 call	 _strlen
  0000c	59		 pop	 ecx
  0000d	50		 push	 eax
  0000e	ff 74 24 10	 push	 DWORD PTR ___pos$[esp+4]
  00012	8b ce		 mov	 ecx, esi
  00014	ff 74 24 10	 push	 DWORD PTR ___s$[esp+8]
  00018	e8 00 00 00 00	 call	 ?find@?$basic_string@DV?$char_traits@D@_STL@@V?$allocator@D@2@@_STL@@QBEIPBDII@Z ; _STL::basic_string<char,_STL::char_traits<char>,_STL::allocator<char> >::find
  0001d	5e		 pop	 esi
  0001e	c2 08 00	 ret	 8
?find@?$basic_string@DV?$char_traits@D@_STL@@V?$allocator@D@2@@_STL@@QBEIPBDI@Z ENDP ; _STL::basic_string<char,_STL::char_traits<char>,_STL::allocator<char> >::find
_TEXT	ENDS
PUBLIC	??0?$_String_base@DV?$allocator@D@_STL@@@_STL@@QAE@ABV?$allocator@D@1@@Z ; _STL::_String_base<char,_STL::allocator<char> >::_String_base<char,_STL::allocator<char> >
; Function compile flags: /Ogsy
;	COMDAT ??0?$_String_base@DV?$allocator@D@_STL@@@_STL@@QAE@ABV?$allocator@D@1@@Z
_TEXT	SEGMENT
___a$ = 8						; size = 4
??0?$_String_base@DV?$allocator@D@_STL@@@_STL@@QAE@ABV?$allocator@D@1@@Z PROC NEAR ; _STL::_String_base<char,_STL::allocator<char> >::_String_base<char,_STL::allocator<char> >, COMDAT
; _this$ = ecx

; 129  :     : _M_start(0), _M_finish(0), _M_end_of_storage(__a, (_Tp*)0) {}

  00000	56		 push	 esi
  00001	33 c0		 xor	 eax, eax
  00003	8b f1		 mov	 esi, ecx
  00005	50		 push	 eax
  00006	ff 74 24 0c	 push	 DWORD PTR ___a$[esp+4]
  0000a	8d 4e 08	 lea	 ecx, DWORD PTR [esi+8]
  0000d	89 06		 mov	 DWORD PTR [esi], eax
  0000f	89 46 04	 mov	 DWORD PTR [esi+4], eax
  00012	e8 00 00 00 00	 call	 ??0?$_STLP_alloc_proxy@PADDV?$allocator@D@_STL@@@_STL@@QAE@ABV?$allocator@D@1@PAD@Z ; _STL::_STLP_alloc_proxy<char *,char,_STL::allocator<char> >::_STLP_alloc_proxy<char *,char,_STL::allocator<char> >
  00017	8b c6		 mov	 eax, esi
  00019	5e		 pop	 esi
  0001a	c2 04 00	 ret	 4
??0?$_String_base@DV?$allocator@D@_STL@@@_STL@@QAE@ABV?$allocator@D@1@@Z ENDP ; _STL::_String_base<char,_STL::allocator<char> >::_String_base<char,_STL::allocator<char> >
_TEXT	ENDS
PUBLIC	??$_M_range_initialize@PBD@?$basic_string@DV?$char_traits@D@_STL@@V?$allocator@D@2@@_STL@@AAEXPBD0ABUforward_iterator_tag@1@@Z ; _STL::basic_string<char,_STL::char_traits<char>,_STL::allocator<char> >::_M_range_initialize<char const *>
; Function compile flags: /Ogsy
;	COMDAT ??$_M_range_initialize@PBD@?$basic_string@DV?$char_traits@D@_STL@@V?$allocator@D@2@@_STL@@AAEXPBD0ABUforward_iterator_tag@1@@Z
_TEXT	SEGMENT
___f$ = 8						; size = 4
___l$ = 12						; size = 4
___formal$ = 16						; size = 4
??$_M_range_initialize@PBD@?$basic_string@DV?$char_traits@D@_STL@@V?$allocator@D@2@@_STL@@AAEXPBD0ABUforward_iterator_tag@1@@Z PROC NEAR ; _STL::basic_string<char,_STL::char_traits<char>,_STL::allocator<char> >::_M_range_initialize<char const *>, COMDAT
; _this$ = ecx

; 383  :                            const forward_iterator_tag &) {
; 384  :     difference_type __n = distance(__f, __l);
; 385  :     this->_M_allocate_block(__n + 1);

  00000	8b 44 24 08	 mov	 eax, DWORD PTR ___l$[esp-4]
  00004	2b 44 24 04	 sub	 eax, DWORD PTR ___f$[esp-4]
  00008	56		 push	 esi
  00009	40		 inc	 eax
  0000a	50		 push	 eax
  0000b	8b f1		 mov	 esi, ecx
  0000d	e8 00 00 00 00	 call	 ?_M_allocate_block@?$_String_base@DV?$allocator@D@_STL@@@_STL@@QAEXI@Z ; _STL::_String_base<char,_STL::allocator<char> >::_M_allocate_block

; 386  :     this->_M_finish = uninitialized_copy(__f, __l, this->_M_start);

  00012	ff 36		 push	 DWORD PTR [esi]
  00014	ff 74 24 10	 push	 DWORD PTR ___l$[esp+4]
  00018	ff 74 24 10	 push	 DWORD PTR ___f$[esp+8]
  0001c	e8 00 00 00 00	 call	 ?__copy_trivial@_STL@@YAPAXPBX0PAX@Z ; _STL::__copy_trivial
  00021	83 c4 0c	 add	 esp, 12			; 0000000cH
  00024	89 46 04	 mov	 DWORD PTR [esi+4], eax

; 387  :     _M_terminate_string();

  00027	c6 00 00	 mov	 BYTE PTR [eax], 0
  0002a	5e		 pop	 esi

; 388  :   }

  0002b	c2 0c 00	 ret	 12			; 0000000cH
??$_M_range_initialize@PBD@?$basic_string@DV?$char_traits@D@_STL@@V?$allocator@D@2@@_STL@@AAEXPBD0ABUforward_iterator_tag@1@@Z ENDP ; _STL::basic_string<char,_STL::char_traits<char>,_STL::allocator<char> >::_M_range_initialize<char const *>
_TEXT	ENDS
PUBLIC	??$__uninitialized_copy@PADPAD@_STL@@YAPADPAD00ABU__true_type@0@@Z ; _STL::__uninitialized_copy<char *,char *>
; Function compile flags: /Ogsy
; File c:\stlport-4.6.1\stlport\stl\_uninitialized.h
;	COMDAT ??$__uninitialized_copy@PADPAD@_STL@@YAPADPAD00ABU__true_type@0@@Z
_TEXT	SEGMENT
___first$ = 8						; size = 4
___last$ = 12						; size = 4
___result$ = 16						; size = 4
___formal$ = 20						; size = 4
??$__uninitialized_copy@PADPAD@_STL@@YAPADPAD00ABU__true_type@0@@Z PROC NEAR ; _STL::__uninitialized_copy<char *,char *>, COMDAT

; 55   :   return __copy_aux(__first, __last, __result, _BothPtrType< _InputIter, _ForwardIter> :: _Ret());

  00000	ff 74 24 0c	 push	 DWORD PTR ___result$[esp-4]
  00004	ff 74 24 0c	 push	 DWORD PTR ___last$[esp]
  00008	ff 74 24 0c	 push	 DWORD PTR ___first$[esp+4]
  0000c	e8 00 00 00 00	 call	 ?__copy_trivial@_STL@@YAPAXPBX0PAX@Z ; _STL::__copy_trivial
  00011	83 c4 0c	 add	 esp, 12			; 0000000cH

; 56   : }

  00014	c3		 ret	 0
??$__uninitialized_copy@PADPAD@_STL@@YAPADPAD00ABU__true_type@0@@Z ENDP ; _STL::__uninitialized_copy<char *,char *>
_TEXT	ENDS
PUBLIC	?_M_deallocate_block@?$_String_base@DV?$allocator@D@_STL@@@_STL@@QAEXXZ ; _STL::_String_base<char,_STL::allocator<char> >::_M_deallocate_block
; Function compile flags: /Ogsy
; File c:\stlport-4.6.1\stlport\stl\_string.h
;	COMDAT ?_M_deallocate_block@?$_String_base@DV?$allocator@D@_STL@@@_STL@@QAEXXZ
_TEXT	SEGMENT
?_M_deallocate_block@?$_String_base@DV?$allocator@D@_STL@@@_STL@@QAEXXZ PROC NEAR ; _STL::_String_base<char,_STL::allocator<char> >::_M_deallocate_block, COMDAT
; _this$ = ecx

; 124  :     { _M_end_of_storage.deallocate(_M_start, _M_end_of_storage._M_data - _M_start); }

  00000	8b c1		 mov	 eax, ecx
  00002	8d 48 08	 lea	 ecx, DWORD PTR [eax+8]
  00005	8b 00		 mov	 eax, DWORD PTR [eax]
  00007	8b 11		 mov	 edx, DWORD PTR [ecx]
  00009	2b d0		 sub	 edx, eax
  0000b	52		 push	 edx
  0000c	50		 push	 eax
  0000d	e8 00 00 00 00	 call	 ?deallocate@?$allocator@D@_STL@@QAEXPADI@Z ; _STL::allocator<char>::deallocate
  00012	c3		 ret	 0
?_M_deallocate_block@?$_String_base@DV?$allocator@D@_STL@@@_STL@@QAEXXZ ENDP ; _STL::_String_base<char,_STL::allocator<char> >::_M_deallocate_block
_TEXT	ENDS
PUBLIC	??$_M_range_initialize@PBD@?$basic_string@DV?$char_traits@D@_STL@@V?$allocator@D@2@@_STL@@AAEXPBD0@Z ; _STL::basic_string<char,_STL::char_traits<char>,_STL::allocator<char> >::_M_range_initialize<char const *>
; Function compile flags: /Ogsy
;	COMDAT ??$_M_range_initialize@PBD@?$basic_string@DV?$char_traits@D@_STL@@V?$allocator@D@2@@_STL@@AAEXPBD0@Z
_TEXT	SEGMENT
___f$ = 8						; size = 4
___l$ = 12						; size = 4
$T119060 = 15						; size = 1
??$_M_range_initialize@PBD@?$basic_string@DV?$char_traits@D@_STL@@V?$allocator@D@2@@_STL@@AAEXPBD0@Z PROC NEAR ; _STL::basic_string<char,_STL::char_traits<char>,_STL::allocator<char> >::_M_range_initialize<char const *>, COMDAT
; _this$ = ecx

; 390  :   template <class _InputIter> void _M_range_initialize(_InputIter __f, _InputIter __l) {

  00000	55		 push	 ebp
  00001	8b ec		 mov	 ebp, esp

; 391  :     _M_range_initialize(__f, __l, _STLP_ITERATOR_CATEGORY(__f, _InputIter));

  00003	8d 45 0f	 lea	 eax, DWORD PTR $T119060[ebp]
  00006	50		 push	 eax
  00007	ff 75 0c	 push	 DWORD PTR ___l$[ebp]
  0000a	ff 75 08	 push	 DWORD PTR ___f$[ebp]
  0000d	e8 00 00 00 00	 call	 ??$_M_range_initialize@PBD@?$basic_string@DV?$char_traits@D@_STL@@V?$allocator@D@2@@_STL@@AAEXPBD0ABUforward_iterator_tag@1@@Z ; _STL::basic_string<char,_STL::char_traits<char>,_STL::allocator<char> >::_M_range_initialize<char const *>

; 392  :   }

  00012	5d		 pop	 ebp
  00013	c2 08 00	 ret	 8
??$_M_range_initialize@PBD@?$basic_string@DV?$char_traits@D@_STL@@V?$allocator@D@2@@_STL@@AAEXPBD0@Z ENDP ; _STL::basic_string<char,_STL::char_traits<char>,_STL::allocator<char> >::_M_range_initialize<char const *>
_TEXT	ENDS
PUBLIC	??$uninitialized_copy@PADPAD@_STL@@YAPADPAD00@Z	; _STL::uninitialized_copy<char *,char *>
; Function compile flags: /Ogsy
; File c:\stlport-4.6.1\stlport\stl\_uninitialized.h
;	COMDAT ??$uninitialized_copy@PADPAD@_STL@@YAPADPAD00@Z
_TEXT	SEGMENT
___first$ = 8						; size = 4
___last$ = 12						; size = 4
___result$ = 16						; size = 4
??$uninitialized_copy@PADPAD@_STL@@YAPADPAD00@Z PROC NEAR ; _STL::uninitialized_copy<char *,char *>, COMDAT

; 79   :   return __uninitialized_copy(__first, __last, __result,  _IS_POD_ITER(__result, _ForwardIter));

  00000	e9 00 00 00 00	 jmp	 ?__copy_trivial@_STL@@YAPAXPBX0PAX@Z ; _STL::__copy_trivial
??$uninitialized_copy@PADPAD@_STL@@YAPADPAD00@Z ENDP	; _STL::uninitialized_copy<char *,char *>
_TEXT	ENDS
PUBLIC	??$append@PBD@?$basic_string@DV?$char_traits@D@_STL@@V?$allocator@D@2@@_STL@@AAEAAV01@PBD0ABUforward_iterator_tag@1@@Z ; _STL::basic_string<char,_STL::char_traits<char>,_STL::allocator<char> >::append<char const *>
EXTRN	__CxxThrowException@8:NEAR
; Function compile flags: /Ogsy
; File c:\stlport-4.6.1\stlport\stl\_string.h
;	COMDAT ??$append@PBD@?$basic_string@DV?$char_traits@D@_STL@@V?$allocator@D@2@@_STL@@AAEAAV01@PBD0ABUforward_iterator_tag@1@@Z
_TEXT	SEGMENT
___len$118001 = -8					; size = 4
___old_size$117994 = -8					; size = 4
$T119121 = -4						; size = 4
___first$ = 8						; size = 4
___last$ = 12						; size = 4
___formal$ = 16						; size = 4
??$append@PBD@?$basic_string@DV?$char_traits@D@_STL@@V?$allocator@D@2@@_STL@@AAEAAV01@PBD0ABUforward_iterator_tag@1@@Z PROC NEAR ; _STL::basic_string<char,_STL::char_traits<char>,_STL::allocator<char> >::append<char const *>, COMDAT
; _this$ = ecx

; 542  :   template <class _ForwardIter> _Self& append(_ForwardIter __first, _ForwardIter __last, 

  00000	55		 push	 ebp
  00001	8b ec		 mov	 ebp, esp
  00003	51		 push	 ecx
  00004	51		 push	 ecx
  00005	56		 push	 esi
  00006	57		 push	 edi

; 543  :                        const forward_iterator_tag &)  {
; 544  :     if (__first != __last) {

  00007	8b 7d 0c	 mov	 edi, DWORD PTR ___last$[ebp]
  0000a	39 7d 08	 cmp	 DWORD PTR ___first$[ebp], edi
  0000d	8b f1		 mov	 esi, ecx
  0000f	0f 84 b6 00 00
	00		 je	 $L118012

; 545  : 	    const size_type __old_size = size();
; 546  : 	    difference_type __n = distance(__first, __last);

  00015	2b 7d 08	 sub	 edi, DWORD PTR ___first$[ebp]
  00018	53		 push	 ebx
  00019	8b 5e 04	 mov	 ebx, DWORD PTR [esi+4]
  0001c	2b 1e		 sub	 ebx, DWORD PTR [esi]

; 547  : 	    if (__STATIC_CAST(size_type,__n) > max_size() || __old_size > max_size() - __STATIC_CAST(size_type,__n))

  0001e	83 ff fe	 cmp	 edi, -2			; fffffffeH
  00021	89 5d f8	 mov	 DWORD PTR ___old_size$117994[ebp], ebx
  00024	77 09		 ja	 SHORT $L117999
  00026	6a fe		 push	 -2			; fffffffeH
  00028	58		 pop	 eax
  00029	2b c7		 sub	 eax, edi
  0002b	3b d8		 cmp	 ebx, eax
  0002d	76 07		 jbe	 SHORT $L117998
$L117999:

; 548  : 	      this->_M_throw_length_error();

  0002f	8b ce		 mov	 ecx, esi
  00031	e8 00 00 00 00	 call	 ?_M_throw_length_error@?$_String_base@DV?$allocator@D@_STL@@@_STL@@QBEXXZ ; _STL::_String_base<char,_STL::allocator<char> >::_M_throw_length_error
$L117998:

; 549  : 	    if (__old_size + __n > capacity()) {

  00036	8b 46 08	 mov	 eax, DWORD PTR [esi+8]
  00039	2b 06		 sub	 eax, DWORD PTR [esi]
  0003b	8d 0c 1f	 lea	 ecx, DWORD PTR [edi+ebx]
  0003e	48		 dec	 eax
  0003f	3b c8		 cmp	 ecx, eax
  00041	76 5e		 jbe	 SHORT $L118000

; 550  : 	      const size_type __len = __old_size +
; 551  : 	                            (max)(__old_size, __STATIC_CAST(size_type,__n)) + 1;

  00043	3b df		 cmp	 ebx, edi
  00045	89 7d fc	 mov	 DWORD PTR $T119121[ebp], edi
  00048	8d 45 fc	 lea	 eax, DWORD PTR $T119121[ebp]
  0004b	72 03		 jb	 SHORT $L119167
  0004d	8d 45 f8	 lea	 eax, DWORD PTR ___old_size$117994[ebp]
$L119167:
  00050	8b 00		 mov	 eax, DWORD PTR [eax]
  00052	8d 5c 18 01	 lea	 ebx, DWORD PTR [eax+ebx+1]

; 552  : 	      pointer __new_start = this->_M_end_of_storage.allocate(__len);

  00056	85 db		 test	 ebx, ebx
  00058	89 5d f8	 mov	 DWORD PTR ___len$118001[ebp], ebx
  0005b	74 0b		 je	 SHORT $L119172
  0005d	53		 push	 ebx
  0005e	e8 00 00 00 00	 call	 ?allocate@?$__node_alloc@$00$0A@@_STL@@SAPAXI@Z ; _STL::__node_alloc<1,0>::allocate
  00063	59		 pop	 ecx
  00064	8b f8		 mov	 edi, eax
  00066	eb 02		 jmp	 SHORT $L119173
$L119172:
  00068	33 ff		 xor	 edi, edi
$L119173:

; 553  : 	      pointer __new_finish = __new_start;
; 554  : 	      _STLP_TRY {
; 555  : 	        __new_finish = uninitialized_copy(this->_M_start, this->_M_finish, __new_start);

  0006a	8b 46 04	 mov	 eax, DWORD PTR [esi+4]
  0006d	8b 0e		 mov	 ecx, DWORD PTR [esi]
  0006f	57		 push	 edi
  00070	50		 push	 eax
  00071	51		 push	 ecx
  00072	e8 00 00 00 00	 call	 ?__copy_trivial@_STL@@YAPAXPBX0PAX@Z ; _STL::__copy_trivial

; 556  : 	        __new_finish = uninitialized_copy(__first, __last, __new_finish);

  00077	50		 push	 eax
  00078	ff 75 0c	 push	 DWORD PTR ___last$[ebp]
  0007b	ff 75 08	 push	 DWORD PTR ___first$[ebp]
  0007e	e8 00 00 00 00	 call	 ?__copy_trivial@_STL@@YAPAXPBX0PAX@Z ; _STL::__copy_trivial
  00083	8b d8		 mov	 ebx, eax
  00085	83 c4 18	 add	 esp, 24			; 00000018H

; 557  : 	        _M_construct_null(__new_finish);
; 558  : 	      }
; 559  : 	      _STLP_UNWIND((_STLP_STD::_Destroy(__new_start,__new_finish),
; 560  : 	                    this->_M_end_of_storage.deallocate(__new_start,__len)));
; 561  : 	      _STLP_STD::_Destroy(this->_M_start, this->_M_finish + 1);
; 562  : 	      this->_M_deallocate_block();

  00088	8b ce		 mov	 ecx, esi
  0008a	c6 03 00	 mov	 BYTE PTR [ebx], 0
  0008d	e8 00 00 00 00	 call	 ?_M_deallocate_block@?$_String_base@DV?$allocator@D@_STL@@@_STL@@QAEXXZ ; _STL::_String_base<char,_STL::allocator<char> >::_M_deallocate_block

; 563  : 	      this->_M_start = __new_start;
; 564  : 	      this->_M_finish = __new_finish;
; 565  : 	      this->_M_end_of_storage._M_data = __new_start + __len; 

  00092	8b 45 f8	 mov	 eax, DWORD PTR ___len$118001[ebp]
  00095	89 3e		 mov	 DWORD PTR [esi], edi
  00097	03 f8		 add	 edi, eax
  00099	89 5e 04	 mov	 DWORD PTR [esi+4], ebx
  0009c	89 7e 08	 mov	 DWORD PTR [esi+8], edi

; 566  : 	    }
; 567  : 	    else {

  0009f	eb 29		 jmp	 SHORT $L119305
$L118000:

; 568  : 	      _ForwardIter __f1 = __first;
; 569  : 	      ++__f1;
; 570  : 	      uninitialized_copy(__f1, __last, this->_M_finish + 1);

  000a1	8b 46 04	 mov	 eax, DWORD PTR [esi+4]
  000a4	40		 inc	 eax
  000a5	50		 push	 eax
  000a6	8b 45 08	 mov	 eax, DWORD PTR ___first$[ebp]
  000a9	ff 75 0c	 push	 DWORD PTR ___last$[ebp]
  000ac	40		 inc	 eax
  000ad	50		 push	 eax
  000ae	e8 00 00 00 00	 call	 ?__copy_trivial@_STL@@YAPAXPBX0PAX@Z ; _STL::__copy_trivial

; 571  : 	      _STLP_TRY {
; 572  : 	        _M_construct_null(this->_M_finish + __n);

  000b3	8b 46 04	 mov	 eax, DWORD PTR [esi+4]

; 573  : 	      }
; 574  : 	      _STLP_UNWIND(_STLP_STD::_Destroy(this->_M_finish + 1, this->_M_finish + __n));
; 575  : 	      _Traits::assign(*end(), *__first);

  000b6	8b 4d 08	 mov	 ecx, DWORD PTR ___first$[ebp]
  000b9	c6 04 07 00	 mov	 BYTE PTR [edi+eax], 0
  000bd	8b 46 04	 mov	 eax, DWORD PTR [esi+4]
  000c0	8a 09		 mov	 cl, BYTE PTR [ecx]
  000c2	83 c4 0c	 add	 esp, 12			; 0000000cH
  000c5	88 08		 mov	 BYTE PTR [eax], cl

; 576  : 	      this->_M_finish += __n;

  000c7	01 7e 04	 add	 DWORD PTR [esi+4], edi
$L119305:
  000ca	5b		 pop	 ebx
$L118012:
  000cb	5f		 pop	 edi

; 577  : 	    }
; 578  : 	  }
; 579  : 	  return *this;  

  000cc	8b c6		 mov	 eax, esi
  000ce	5e		 pop	 esi

; 580  : 	}

  000cf	c9		 leave
  000d0	c2 0c 00	 ret	 12			; 0000000cH
??$append@PBD@?$basic_string@DV?$char_traits@D@_STL@@V?$allocator@D@2@@_STL@@AAEAAV01@PBD0ABUforward_iterator_tag@1@@Z ENDP ; _STL::basic_string<char,_STL::char_traits<char>,_STL::allocator<char> >::append<char const *>
_TEXT	ENDS
PUBLIC	??$append@PAD@?$basic_string@DV?$char_traits@D@_STL@@V?$allocator@D@2@@_STL@@AAEAAV01@PAD0ABUforward_iterator_tag@1@@Z ; _STL::basic_string<char,_STL::char_traits<char>,_STL::allocator<char> >::append<char *>
; Function compile flags: /Ogsy
;	COMDAT ??$append@PAD@?$basic_string@DV?$char_traits@D@_STL@@V?$allocator@D@2@@_STL@@AAEAAV01@PAD0ABUforward_iterator_tag@1@@Z
_TEXT	SEGMENT
___len$118072 = -8					; size = 4
___old_size$118065 = -8					; size = 4
$T119308 = -4						; size = 4
___first$ = 8						; size = 4
___last$ = 12						; size = 4
___formal$ = 16						; size = 4
??$append@PAD@?$basic_string@DV?$char_traits@D@_STL@@V?$allocator@D@2@@_STL@@AAEAAV01@PAD0ABUforward_iterator_tag@1@@Z PROC NEAR ; _STL::basic_string<char,_STL::char_traits<char>,_STL::allocator<char> >::append<char *>, COMDAT
; _this$ = ecx

; 542  :   template <class _ForwardIter> _Self& append(_ForwardIter __first, _ForwardIter __last, 

  00000	55		 push	 ebp
  00001	8b ec		 mov	 ebp, esp
  00003	51		 push	 ecx
  00004	51		 push	 ecx
  00005	56		 push	 esi
  00006	57		 push	 edi

; 543  :                        const forward_iterator_tag &)  {
; 544  :     if (__first != __last) {

  00007	8b 7d 0c	 mov	 edi, DWORD PTR ___last$[ebp]
  0000a	39 7d 08	 cmp	 DWORD PTR ___first$[ebp], edi
  0000d	8b f1		 mov	 esi, ecx
  0000f	0f 84 b6 00 00
	00		 je	 $L118078

; 545  : 	    const size_type __old_size = size();
; 546  : 	    difference_type __n = distance(__first, __last);

  00015	2b 7d 08	 sub	 edi, DWORD PTR ___first$[ebp]
  00018	53		 push	 ebx
  00019	8b 5e 04	 mov	 ebx, DWORD PTR [esi+4]
  0001c	2b 1e		 sub	 ebx, DWORD PTR [esi]

; 547  : 	    if (__STATIC_CAST(size_type,__n) > max_size() || __old_size > max_size() - __STATIC_CAST(size_type,__n))

  0001e	83 ff fe	 cmp	 edi, -2			; fffffffeH
  00021	89 5d f8	 mov	 DWORD PTR ___old_size$118065[ebp], ebx
  00024	77 09		 ja	 SHORT $L118070
  00026	6a fe		 push	 -2			; fffffffeH
  00028	58		 pop	 eax
  00029	2b c7		 sub	 eax, edi
  0002b	3b d8		 cmp	 ebx, eax
  0002d	76 07		 jbe	 SHORT $L118069
$L118070:

; 548  : 	      this->_M_throw_length_error();

  0002f	8b ce		 mov	 ecx, esi
  00031	e8 00 00 00 00	 call	 ?_M_throw_length_error@?$_String_base@DV?$allocator@D@_STL@@@_STL@@QBEXXZ ; _STL::_String_base<char,_STL::allocator<char> >::_M_throw_length_error
$L118069:

; 549  : 	    if (__old_size + __n > capacity()) {

  00036	8b 46 08	 mov	 eax, DWORD PTR [esi+8]
  00039	2b 06		 sub	 eax, DWORD PTR [esi]
  0003b	8d 0c 1f	 lea	 ecx, DWORD PTR [edi+ebx]
  0003e	48		 dec	 eax
  0003f	3b c8		 cmp	 ecx, eax
  00041	76 5e		 jbe	 SHORT $L118071

; 550  : 	      const size_type __len = __old_size +
; 551  : 	                            (max)(__old_size, __STATIC_CAST(size_type,__n)) + 1;

  00043	3b df		 cmp	 ebx, edi
  00045	89 7d fc	 mov	 DWORD PTR $T119308[ebp], edi
  00048	8d 45 fc	 lea	 eax, DWORD PTR $T119308[ebp]
  0004b	72 03		 jb	 SHORT $L119353
  0004d	8d 45 f8	 lea	 eax, DWORD PTR ___old_size$118065[ebp]
$L119353:
  00050	8b 00		 mov	 eax, DWORD PTR [eax]
  00052	8d 5c 18 01	 lea	 ebx, DWORD PTR [eax+ebx+1]

; 552  : 	      pointer __new_start = this->_M_end_of_storage.allocate(__len);

  00056	85 db		 test	 ebx, ebx
  00058	89 5d f8	 mov	 DWORD PTR ___len$118072[ebp], ebx
  0005b	74 0b		 je	 SHORT $L119359
  0005d	53		 push	 ebx
  0005e	e8 00 00 00 00	 call	 ?allocate@?$__node_alloc@$00$0A@@_STL@@SAPAXI@Z ; _STL::__node_alloc<1,0>::allocate
  00063	59		 pop	 ecx
  00064	8b f8		 mov	 edi, eax
  00066	eb 02		 jmp	 SHORT $L119360
$L119359:
  00068	33 ff		 xor	 edi, edi
$L119360:

; 553  : 	      pointer __new_finish = __new_start;
; 554  : 	      _STLP_TRY {
; 555  : 	        __new_finish = uninitialized_copy(this->_M_start, this->_M_finish, __new_start);

  0006a	8b 46 04	 mov	 eax, DWORD PTR [esi+4]
  0006d	8b 0e		 mov	 ecx, DWORD PTR [esi]
  0006f	57		 push	 edi
  00070	50		 push	 eax
  00071	51		 push	 ecx
  00072	e8 00 00 00 00	 call	 ?__copy_trivial@_STL@@YAPAXPBX0PAX@Z ; _STL::__copy_trivial

; 556  : 	        __new_finish = uninitialized_copy(__first, __last, __new_finish);

  00077	50		 push	 eax
  00078	ff 75 0c	 push	 DWORD PTR ___last$[ebp]
  0007b	ff 75 08	 push	 DWORD PTR ___first$[ebp]
  0007e	e8 00 00 00 00	 call	 ?__copy_trivial@_STL@@YAPAXPBX0PAX@Z ; _STL::__copy_trivial
  00083	8b d8		 mov	 ebx, eax
  00085	83 c4 18	 add	 esp, 24			; 00000018H

; 557  : 	        _M_construct_null(__new_finish);
; 558  : 	      }
; 559  : 	      _STLP_UNWIND((_STLP_STD::_Destroy(__new_start,__new_finish),
; 560  : 	                    this->_M_end_of_storage.deallocate(__new_start,__len)));
; 561  : 	      _STLP_STD::_Destroy(this->_M_start, this->_M_finish + 1);
; 562  : 	      this->_M_deallocate_block();

  00088	8b ce		 mov	 ecx, esi
  0008a	c6 03 00	 mov	 BYTE PTR [ebx], 0
  0008d	e8 00 00 00 00	 call	 ?_M_deallocate_block@?$_String_base@DV?$allocator@D@_STL@@@_STL@@QAEXXZ ; _STL::_String_base<char,_STL::allocator<char> >::_M_deallocate_block

; 563  : 	      this->_M_start = __new_start;
; 564  : 	      this->_M_finish = __new_finish;
; 565  : 	      this->_M_end_of_storage._M_data = __new_start + __len; 

  00092	8b 45 f8	 mov	 eax, DWORD PTR ___len$118072[ebp]
  00095	89 3e		 mov	 DWORD PTR [esi], edi
  00097	03 f8		 add	 edi, eax
  00099	89 5e 04	 mov	 DWORD PTR [esi+4], ebx
  0009c	89 7e 08	 mov	 DWORD PTR [esi+8], edi

; 566  : 	    }
; 567  : 	    else {

  0009f	eb 29		 jmp	 SHORT $L119635
$L118071:

; 568  : 	      _ForwardIter __f1 = __first;
; 569  : 	      ++__f1;
; 570  : 	      uninitialized_copy(__f1, __last, this->_M_finish + 1);

  000a1	8b 46 04	 mov	 eax, DWORD PTR [esi+4]
  000a4	40		 inc	 eax
  000a5	50		 push	 eax
  000a6	8b 45 08	 mov	 eax, DWORD PTR ___first$[ebp]
  000a9	ff 75 0c	 push	 DWORD PTR ___last$[ebp]
  000ac	40		 inc	 eax
  000ad	50		 push	 eax
  000ae	e8 00 00 00 00	 call	 ?__copy_trivial@_STL@@YAPAXPBX0PAX@Z ; _STL::__copy_trivial

; 571  : 	      _STLP_TRY {
; 572  : 	        _M_construct_null(this->_M_finish + __n);

  000b3	8b 46 04	 mov	 eax, DWORD PTR [esi+4]

; 573  : 	      }
; 574  : 	      _STLP_UNWIND(_STLP_STD::_Destroy(this->_M_finish + 1, this->_M_finish + __n));
; 575  : 	      _Traits::assign(*end(), *__first);

  000b6	8b 4d 08	 mov	 ecx, DWORD PTR ___first$[ebp]
  000b9	c6 04 07 00	 mov	 BYTE PTR [edi+eax], 0
  000bd	8b 46 04	 mov	 eax, DWORD PTR [esi+4]
  000c0	8a 09		 mov	 cl, BYTE PTR [ecx]
  000c2	83 c4 0c	 add	 esp, 12			; 0000000cH
  000c5	88 08		 mov	 BYTE PTR [eax], cl

; 576  : 	      this->_M_finish += __n;

  000c7	01 7e 04	 add	 DWORD PTR [esi+4], edi
$L119635:
  000ca	5b		 pop	 ebx
$L118078:
  000cb	5f		 pop	 edi

; 577  : 	    }
; 578  : 	  }
; 579  : 	  return *this;  

  000cc	8b c6		 mov	 eax, esi
  000ce	5e		 pop	 esi

; 580  : 	}

  000cf	c9		 leave
  000d0	c2 0c 00	 ret	 12			; 0000000cH
??$append@PAD@?$basic_string@DV?$char_traits@D@_STL@@V?$allocator@D@2@@_STL@@AAEAAV01@PAD0ABUforward_iterator_tag@1@@Z ENDP ; _STL::basic_string<char,_STL::char_traits<char>,_STL::allocator<char> >::append<char *>
_TEXT	ENDS
PUBLIC	??1?$_String_base@DV?$allocator@D@_STL@@@_STL@@QAE@XZ ; _STL::_String_base<char,_STL::allocator<char> >::~_String_base<char,_STL::allocator<char> >
; Function compile flags: /Ogsy
;	COMDAT ??1?$_String_base@DV?$allocator@D@_STL@@@_STL@@QAE@XZ
_TEXT	SEGMENT
??1?$_String_base@DV?$allocator@D@_STL@@@_STL@@QAE@XZ PROC NEAR ; _STL::_String_base<char,_STL::allocator<char> >::~_String_base<char,_STL::allocator<char> >, COMDAT
; _this$ = ecx

; 135  :   ~_String_base() { _M_deallocate_block(); }

  00000	e9 00 00 00 00	 jmp	 ?_M_deallocate_block@?$_String_base@DV?$allocator@D@_STL@@@_STL@@QAEXXZ ; _STL::_String_base<char,_STL::allocator<char> >::_M_deallocate_block
??1?$_String_base@DV?$allocator@D@_STL@@@_STL@@QAE@XZ ENDP ; _STL::_String_base<char,_STL::allocator<char> >::~_String_base<char,_STL::allocator<char> >
_TEXT	ENDS
PUBLIC	??0?$basic_string@DV?$char_traits@D@_STL@@V?$allocator@D@2@@_STL@@QAE@PBDABV?$allocator@D@1@@Z ; _STL::basic_string<char,_STL::char_traits<char>,_STL::allocator<char> >::basic_string<char,_STL::char_traits<char>,_STL::allocator<char> >
EXTRN	__EH_prolog:NEAR
EXTRN	__except_list:DWORD
EXTRN	___CxxFrameHandler:NEAR
;	COMDAT xdata$x
xdata$x	SEGMENT
$T119656 DD	0ffffffffH
	DD	FLAT:$L119641
$T119652 DD	019930520H
	DD	01H
	DD	FLAT:$T119656
	DD	2 DUP(00H)
	DD	2 DUP(00H)
; Function compile flags: /Ogsy
; File c:\stlport-4.6.1\stlport\stl\_string.c
xdata$x	ENDS
;	COMDAT ??0?$basic_string@DV?$char_traits@D@_STL@@V?$allocator@D@2@@_STL@@QAE@PBDABV?$allocator@D@1@@Z
_TEXT	SEGMENT
_this$ = -16						; size = 4
__$EHRec$ = -12						; size = 12
___s$ = 8						; size = 4
$T119649 = 11						; size = 1
___a$ = 12						; size = 4
??0?$basic_string@DV?$char_traits@D@_STL@@V?$allocator@D@2@@_STL@@QAE@PBDABV?$allocator@D@1@@Z PROC NEAR ; _STL::basic_string<char,_STL::char_traits<char>,_STL::allocator<char> >::basic_string<char,_STL::char_traits<char>,_STL::allocator<char> >, COMDAT
; _this$ = ecx

; 552  : { 

  00000	b8 00 00 00 00	 mov	 eax, __ehhandler$??0?$basic_string@DV?$char_traits@D@_STL@@V?$allocator@D@2@@_STL@@QAE@PBDABV?$allocator@D@1@@Z
  00005	e8 00 00 00 00	 call	 __EH_prolog
  0000a	51		 push	 ecx
  0000b	56		 push	 esi
  0000c	ff 75 0c	 push	 DWORD PTR ___a$[ebp]
  0000f	8b f1		 mov	 esi, ecx
  00011	89 75 f0	 mov	 DWORD PTR _this$[ebp], esi
  00014	e8 00 00 00 00	 call	 ??0?$_String_base@DV?$allocator@D@_STL@@@_STL@@QAE@ABV?$allocator@D@1@@Z ; _STL::_String_base<char,_STL::allocator<char> >::_String_base<char,_STL::allocator<char> >

; 553  :   _STLP_FIX_LITERAL_BUG(__s) 
; 554  :     _M_range_initialize(__s, __s + traits_type::length(__s));  

  00019	ff 75 08	 push	 DWORD PTR ___s$[ebp]
  0001c	83 65 fc 00	 and	 DWORD PTR __$EHRec$[ebp+8], 0
  00020	e8 00 00 00 00	 call	 _strlen
  00025	03 45 08	 add	 eax, DWORD PTR ___s$[ebp]
  00028	59		 pop	 ecx
  00029	8d 4d 0b	 lea	 ecx, DWORD PTR $T119649[ebp]
  0002c	51		 push	 ecx
  0002d	50		 push	 eax
  0002e	ff 75 08	 push	 DWORD PTR ___s$[ebp]
  00031	8b ce		 mov	 ecx, esi
  00033	e8 00 00 00 00	 call	 ??$_M_range_initialize@PBD@?$basic_string@DV?$char_traits@D@_STL@@V?$allocator@D@2@@_STL@@AAEXPBD0ABUforward_iterator_tag@1@@Z ; _STL::basic_string<char,_STL::char_traits<char>,_STL::allocator<char> >::_M_range_initialize<char const *>

; 555  : } 

  00038	8b 4d f4	 mov	 ecx, DWORD PTR __$EHRec$[ebp]
  0003b	8b c6		 mov	 eax, esi
  0003d	5e		 pop	 esi
  0003e	64 89 0d 00 00
	00 00		 mov	 DWORD PTR fs:__except_list, ecx
  00045	c9		 leave
  00046	c2 08 00	 ret	 8
_TEXT	ENDS
;	COMDAT text$x
text$x	SEGMENT
$L119641:
  00000	8b 4d f0	 mov	 ecx, DWORD PTR _this$[ebp]
  00003	e9 00 00 00 00	 jmp	 ??1?$_String_base@DV?$allocator@D@_STL@@@_STL@@QAE@XZ ; _STL::_String_base<char,_STL::allocator<char> >::~_String_base<char,_STL::allocator<char> >
__ehhandler$??0?$basic_string@DV?$char_traits@D@_STL@@V?$allocator@D@2@@_STL@@QAE@PBDABV?$allocator@D@1@@Z:
  00008	b8 00 00 00 00	 mov	 eax, OFFSET FLAT:$T119652
  0000d	e9 00 00 00 00	 jmp	 ___CxxFrameHandler
text$x	ENDS
??0?$basic_string@DV?$char_traits@D@_STL@@V?$allocator@D@2@@_STL@@QAE@PBDABV?$allocator@D@1@@Z ENDP ; _STL::basic_string<char,_STL::char_traits<char>,_STL::allocator<char> >::basic_string<char,_STL::char_traits<char>,_STL::allocator<char> >
PUBLIC	??0?$basic_string@DV?$char_traits@D@_STL@@V?$allocator@D@2@@_STL@@QAE@XZ ; _STL::basic_string<char,_STL::char_traits<char>,_STL::allocator<char> >::basic_string<char,_STL::char_traits<char>,_STL::allocator<char> >
;	COMDAT xdata$x
; File c:\stlport-4.6.1\stlport\stl\_string.h
xdata$x	SEGMENT
$T119708 DD	0ffffffffH
	DD	FLAT:$L119663
$T119706 DD	019930520H
	DD	01H
	DD	FLAT:$T119708
	DD	2 DUP(00H)
	DD	2 DUP(00H)
; Function compile flags: /Ogsy
; File c:\stlport-4.6.1\stlport\stl\_string.c
xdata$x	ENDS
;	COMDAT ??0?$basic_string@DV?$char_traits@D@_STL@@V?$allocator@D@2@@_STL@@QAE@XZ
_TEXT	SEGMENT
_this$ = -20						; size = 4
$T119662 = -13						; size = 1
__$EHRec$ = -12						; size = 12
??0?$basic_string@DV?$char_traits@D@_STL@@V?$allocator@D@2@@_STL@@QAE@XZ PROC NEAR ; _STL::basic_string<char,_STL::char_traits<char>,_STL::allocator<char> >::basic_string<char,_STL::char_traits<char>,_STL::allocator<char> >, COMDAT
; _this$ = ecx

; 541  :   : _String_base<_CharT,_Alloc>(allocator_type()) {  

  00000	b8 00 00 00 00	 mov	 eax, __ehhandler$??0?$basic_string@DV?$char_traits@D@_STL@@V?$allocator@D@2@@_STL@@QAE@XZ
  00005	e8 00 00 00 00	 call	 __EH_prolog
  0000a	51		 push	 ecx
  0000b	51		 push	 ecx
  0000c	56		 push	 esi
  0000d	8d 45 f3	 lea	 eax, DWORD PTR $T119662[ebp]
  00010	8b f1		 mov	 esi, ecx
  00012	50		 push	 eax
  00013	89 75 ec	 mov	 DWORD PTR _this$[ebp], esi
  00016	e8 00 00 00 00	 call	 ??0?$_String_base@DV?$allocator@D@_STL@@@_STL@@QAE@ABV?$allocator@D@1@@Z ; _STL::_String_base<char,_STL::allocator<char> >::_String_base<char,_STL::allocator<char> >
  0001b	83 65 fc 00	 and	 DWORD PTR __$EHRec$[ebp+8], 0

; 542  :   this->_M_start = this->_M_end_of_storage.allocate(8); 

  0001f	6a 08		 push	 8
  00021	e8 00 00 00 00	 call	 ?_M_allocate@?$__node_alloc@$00$0A@@_STL@@CAPAXI@Z ; _STL::__node_alloc<1,0>::_M_allocate
  00026	59		 pop	 ecx

; 543  :   this->_M_finish = this->_M_start; 
; 544  :   this->_M_end_of_storage._M_data = this->_M_start + 8; 

  00027	8d 48 08	 lea	 ecx, DWORD PTR [eax+8]
  0002a	89 06		 mov	 DWORD PTR [esi], eax
  0002c	89 46 04	 mov	 DWORD PTR [esi+4], eax
  0002f	89 4e 08	 mov	 DWORD PTR [esi+8], ecx

; 545  :   _M_terminate_string();  
; 546  : } 

  00032	8b 4d f4	 mov	 ecx, DWORD PTR __$EHRec$[ebp]
  00035	c6 00 00	 mov	 BYTE PTR [eax], 0
  00038	8b c6		 mov	 eax, esi
  0003a	5e		 pop	 esi
  0003b	64 89 0d 00 00
	00 00		 mov	 DWORD PTR fs:__except_list, ecx
  00042	c9		 leave
  00043	c3		 ret	 0
_TEXT	ENDS
;	COMDAT text$x
text$x	SEGMENT
$L119663:
  00000	8b 4d ec	 mov	 ecx, DWORD PTR _this$[ebp]
  00003	e9 00 00 00 00	 jmp	 ??1?$_String_base@DV?$allocator@D@_STL@@@_STL@@QAE@XZ ; _STL::_String_base<char,_STL::allocator<char> >::~_String_base<char,_STL::allocator<char> >
__ehhandler$??0?$basic_string@DV?$char_traits@D@_STL@@V?$allocator@D@2@@_STL@@QAE@XZ:
  00008	b8 00 00 00 00	 mov	 eax, OFFSET FLAT:$T119706
  0000d	e9 00 00 00 00	 jmp	 ___CxxFrameHandler
text$x	ENDS
??0?$basic_string@DV?$char_traits@D@_STL@@V?$allocator@D@2@@_STL@@QAE@XZ ENDP ; _STL::basic_string<char,_STL::char_traits<char>,_STL::allocator<char> >::basic_string<char,_STL::char_traits<char>,_STL::allocator<char> >
PUBLIC	??$_M_range_initialize@PAD@?$basic_string@DV?$char_traits@D@_STL@@V?$allocator@D@2@@_STL@@AAEXPAD0ABUforward_iterator_tag@1@@Z ; _STL::basic_string<char,_STL::char_traits<char>,_STL::allocator<char> >::_M_range_initialize<char *>
; Function compile flags: /Ogsy
; File c:\stlport-4.6.1\stlport\stl\_string.h
;	COMDAT ??$_M_range_initialize@PAD@?$basic_string@DV?$char_traits@D@_STL@@V?$allocator@D@2@@_STL@@AAEXPAD0ABUforward_iterator_tag@1@@Z
_TEXT	SEGMENT
___f$ = 8						; size = 4
___l$ = 12						; size = 4
___formal$ = 16						; size = 4
??$_M_range_initialize@PAD@?$basic_string@DV?$char_traits@D@_STL@@V?$allocator@D@2@@_STL@@AAEXPAD0ABUforward_iterator_tag@1@@Z PROC NEAR ; _STL::basic_string<char,_STL::char_traits<char>,_STL::allocator<char> >::_M_range_initialize<char *>, COMDAT
; _this$ = ecx

; 383  :                            const forward_iterator_tag &) {
; 384  :     difference_type __n = distance(__f, __l);
; 385  :     this->_M_allocate_block(__n + 1);

  00000	8b 44 24 08	 mov	 eax, DWORD PTR ___l$[esp-4]
  00004	2b 44 24 04	 sub	 eax, DWORD PTR ___f$[esp-4]
  00008	56		 push	 esi
  00009	40		 inc	 eax
  0000a	50		 push	 eax
  0000b	8b f1		 mov	 esi, ecx
  0000d	e8 00 00 00 00	 call	 ?_M_allocate_block@?$_String_base@DV?$allocator@D@_STL@@@_STL@@QAEXI@Z ; _STL::_String_base<char,_STL::allocator<char> >::_M_allocate_block

; 386  :     this->_M_finish = uninitialized_copy(__f, __l, this->_M_start);

  00012	ff 36		 push	 DWORD PTR [esi]
  00014	ff 74 24 10	 push	 DWORD PTR ___l$[esp+4]
  00018	ff 74 24 10	 push	 DWORD PTR ___f$[esp+8]
  0001c	e8 00 00 00 00	 call	 ?__copy_trivial@_STL@@YAPAXPBX0PAX@Z ; _STL::__copy_trivial
  00021	83 c4 0c	 add	 esp, 12			; 0000000cH
  00024	89 46 04	 mov	 DWORD PTR [esi+4], eax

; 387  :     _M_terminate_string();

  00027	c6 00 00	 mov	 BYTE PTR [eax], 0
  0002a	5e		 pop	 esi

; 388  :   }

  0002b	c2 0c 00	 ret	 12			; 0000000cH
??$_M_range_initialize@PAD@?$basic_string@DV?$char_traits@D@_STL@@V?$allocator@D@2@@_STL@@AAEXPAD0ABUforward_iterator_tag@1@@Z ENDP ; _STL::basic_string<char,_STL::char_traits<char>,_STL::allocator<char> >::_M_range_initialize<char *>
_TEXT	ENDS
PUBLIC	??$_M_append_dispatch@PBD@?$basic_string@DV?$char_traits@D@_STL@@V?$allocator@D@2@@_STL@@AAEAAV01@PBD0ABU__false_type@1@@Z ; _STL::basic_string<char,_STL::char_traits<char>,_STL::allocator<char> >::_M_append_dispatch<char const *>
; Function compile flags: /Ogsy
;	COMDAT ??$_M_append_dispatch@PBD@?$basic_string@DV?$char_traits@D@_STL@@V?$allocator@D@2@@_STL@@AAEAAV01@PBD0ABU__false_type@1@@Z
_TEXT	SEGMENT
___f$ = 8						; size = 4
___l$ = 12						; size = 4
$T119815 = 15						; size = 1
___formal$ = 16						; size = 4
??$_M_append_dispatch@PBD@?$basic_string@DV?$char_traits@D@_STL@@V?$allocator@D@2@@_STL@@AAEAAV01@PBD0ABU__false_type@1@@Z PROC NEAR ; _STL::basic_string<char,_STL::char_traits<char>,_STL::allocator<char> >::_M_append_dispatch<char const *>, COMDAT
; _this$ = ecx

; 586  :   template <class _InputIter> _Self& _M_append_dispatch(_InputIter __f, _InputIter __l,

  00000	55		 push	 ebp
  00001	8b ec		 mov	 ebp, esp

; 587  :                                    const __false_type&) {
; 588  :     return append(__f, __l, _STLP_ITERATOR_CATEGORY(__f, _InputIter));

  00003	8d 45 0f	 lea	 eax, DWORD PTR $T119815[ebp]
  00006	50		 push	 eax
  00007	ff 75 0c	 push	 DWORD PTR ___l$[ebp]
  0000a	ff 75 08	 push	 DWORD PTR ___f$[ebp]
  0000d	e8 00 00 00 00	 call	 ??$append@PBD@?$basic_string@DV?$char_traits@D@_STL@@V?$allocator@D@2@@_STL@@AAEAAV01@PBD0ABUforward_iterator_tag@1@@Z ; _STL::basic_string<char,_STL::char_traits<char>,_STL::allocator<char> >::append<char const *>

; 589  :   }

  00012	5d		 pop	 ebp
  00013	c2 0c 00	 ret	 12			; 0000000cH
??$_M_append_dispatch@PBD@?$basic_string@DV?$char_traits@D@_STL@@V?$allocator@D@2@@_STL@@AAEAAV01@PBD0ABU__false_type@1@@Z ENDP ; _STL::basic_string<char,_STL::char_traits<char>,_STL::allocator<char> >::_M_append_dispatch<char const *>
_TEXT	ENDS
PUBLIC	??$_M_append_dispatch@PAD@?$basic_string@DV?$char_traits@D@_STL@@V?$allocator@D@2@@_STL@@AAEAAV01@PAD0ABU__false_type@1@@Z ; _STL::basic_string<char,_STL::char_traits<char>,_STL::allocator<char> >::_M_append_dispatch<char *>
; Function compile flags: /Ogsy
;	COMDAT ??$_M_append_dispatch@PAD@?$basic_string@DV?$char_traits@D@_STL@@V?$allocator@D@2@@_STL@@AAEAAV01@PAD0ABU__false_type@1@@Z
_TEXT	SEGMENT
___f$ = 8						; size = 4
___l$ = 12						; size = 4
$T119818 = 15						; size = 1
___formal$ = 16						; size = 4
??$_M_append_dispatch@PAD@?$basic_string@DV?$char_traits@D@_STL@@V?$allocator@D@2@@_STL@@AAEAAV01@PAD0ABU__false_type@1@@Z PROC NEAR ; _STL::basic_string<char,_STL::char_traits<char>,_STL::allocator<char> >::_M_append_dispatch<char *>, COMDAT
; _this$ = ecx

; 586  :   template <class _InputIter> _Self& _M_append_dispatch(_InputIter __f, _InputIter __l,

  00000	55		 push	 ebp
  00001	8b ec		 mov	 ebp, esp

; 587  :                                    const __false_type&) {
; 588  :     return append(__f, __l, _STLP_ITERATOR_CATEGORY(__f, _InputIter));

  00003	8d 45 0f	 lea	 eax, DWORD PTR $T119818[ebp]
  00006	50		 push	 eax
  00007	ff 75 0c	 push	 DWORD PTR ___l$[ebp]
  0000a	ff 75 08	 push	 DWORD PTR ___f$[ebp]
  0000d	e8 00 00 00 00	 call	 ??$append@PAD@?$basic_string@DV?$char_traits@D@_STL@@V?$allocator@D@2@@_STL@@AAEAAV01@PAD0ABUforward_iterator_tag@1@@Z ; _STL::basic_string<char,_STL::char_traits<char>,_STL::allocator<char> >::append<char *>

; 589  :   }

  00012	5d		 pop	 ebp
  00013	c2 0c 00	 ret	 12			; 0000000cH
??$_M_append_dispatch@PAD@?$basic_string@DV?$char_traits@D@_STL@@V?$allocator@D@2@@_STL@@AAEAAV01@PAD0ABU__false_type@1@@Z ENDP ; _STL::basic_string<char,_STL::char_traits<char>,_STL::allocator<char> >::_M_append_dispatch<char *>
_TEXT	ENDS
PUBLIC	??1?$basic_string@DV?$char_traits@D@_STL@@V?$allocator@D@2@@_STL@@QAE@XZ ; _STL::basic_string<char,_STL::char_traits<char>,_STL::allocator<char> >::~basic_string<char,_STL::char_traits<char>,_STL::allocator<char> >
; Function compile flags: /Ogsy
;	COMDAT ??1?$basic_string@DV?$char_traits@D@_STL@@V?$allocator@D@2@@_STL@@QAE@XZ
_TEXT	SEGMENT
??1?$basic_string@DV?$char_traits@D@_STL@@V?$allocator@D@2@@_STL@@QAE@XZ PROC NEAR ; _STL::basic_string<char,_STL::char_traits<char>,_STL::allocator<char> >::~basic_string<char,_STL::char_traits<char>,_STL::allocator<char> >, COMDAT
; _this$ = ecx

; 305  :   ~basic_string() { _STLP_STD::_Destroy(this->_M_start, this->_M_finish + 1); }

  00000	e9 00 00 00 00	 jmp	 ?_M_deallocate_block@?$_String_base@DV?$allocator@D@_STL@@@_STL@@QAEXXZ ; _STL::_String_base<char,_STL::allocator<char> >::_M_deallocate_block
??1?$basic_string@DV?$char_traits@D@_STL@@V?$allocator@D@2@@_STL@@QAE@XZ ENDP ; _STL::basic_string<char,_STL::char_traits<char>,_STL::allocator<char> >::~basic_string<char,_STL::char_traits<char>,_STL::allocator<char> >
_TEXT	ENDS
PUBLIC	??0CInfomationBord@@QAE@XZ			; CInfomationBord::CInfomationBord
EXTRN	??_L@YGXPAXIHP6EX0@Z1@Z:NEAR			; `eh vector constructor iterator'
EXTRN	??_M@YGXPAXIHP6EX0@Z@Z:NEAR			; `eh vector destructor iterator'
;	COMDAT xdata$x
; File c:\darkeden\designed_common\project\client\cmessagearray.cpp
xdata$x	SEGMENT
$T119850 DD	0ffffffffH
	DD	FLAT:$L119843
	DD	00H
	DD	FLAT:$L119844
	DD	01H
	DD	FLAT:$L119845
$T119848 DD	019930520H
	DD	03H
	DD	FLAT:$T119850
	DD	2 DUP(00H)
	DD	2 DUP(00H)
; Function compile flags: /Ogsy
xdata$x	ENDS
;	COMDAT ??0CInfomationBord@@QAE@XZ
_TEXT	SEGMENT
_this$ = -16						; size = 4
__$EHRec$ = -12						; size = 12
??0CInfomationBord@@QAE@XZ PROC NEAR			; CInfomationBord::CInfomationBord, COMDAT
; _this$ = ecx

; 47   : {

  00000	b8 00 00 00 00	 mov	 eax, __ehhandler$??0CInfomationBord@@QAE@XZ
  00005	e8 00 00 00 00	 call	 __EH_prolog
  0000a	51		 push	 ecx
  0000b	53		 push	 ebx
  0000c	56		 push	 esi
  0000d	8b f1		 mov	 esi, ecx
  0000f	57		 push	 edi
  00010	89 75 f0	 mov	 DWORD PTR _this$[ebp], esi
  00013	e8 00 00 00 00	 call	 ??0?$basic_string@DV?$char_traits@D@_STL@@V?$allocator@D@2@@_STL@@QAE@XZ ; _STL::basic_string<char,_STL::char_traits<char>,_STL::allocator<char> >::basic_string<char,_STL::char_traits<char>,_STL::allocator<char> >
  00018	83 65 fc 00	 and	 DWORD PTR __$EHRec$[ebp+8], 0
  0001c	bb 00 00 00 00	 mov	 ebx, OFFSET FLAT:??1?$basic_string@DV?$char_traits@D@_STL@@V?$allocator@D@2@@_STL@@QAE@XZ ; _STL::basic_string<char,_STL::char_traits<char>,_STL::allocator<char> >::~basic_string<char,_STL::char_traits<char>,_STL::allocator<char> >
  00021	53		 push	 ebx
  00022	bf 00 00 00 00	 mov	 edi, OFFSET FLAT:??0?$basic_string@DV?$char_traits@D@_STL@@V?$allocator@D@2@@_STL@@QAE@XZ ; _STL::basic_string<char,_STL::char_traits<char>,_STL::allocator<char> >::basic_string<char,_STL::char_traits<char>,_STL::allocator<char> >
  00027	57		 push	 edi
  00028	6a 03		 push	 3
  0002a	6a 0c		 push	 12			; 0000000cH
  0002c	8d 46 0c	 lea	 eax, DWORD PTR [esi+12]
  0002f	50		 push	 eax
  00030	e8 00 00 00 00	 call	 ??_L@YGXPAXIHP6EX0@Z1@Z
  00035	53		 push	 ebx
  00036	57		 push	 edi
  00037	6a 03		 push	 3
  00039	6a 0c		 push	 12			; 0000000cH
  0003b	8d 46 30	 lea	 eax, DWORD PTR [esi+48]
  0003e	50		 push	 eax
  0003f	c6 45 fc 01	 mov	 BYTE PTR __$EHRec$[ebp+8], 1
  00043	e8 00 00 00 00	 call	 ??_L@YGXPAXIHP6EX0@Z1@Z
  00048	53		 push	 ebx
  00049	57		 push	 edi
  0004a	6a 03		 push	 3
  0004c	6a 0c		 push	 12			; 0000000cH
  0004e	8d 46 54	 lea	 eax, DWORD PTR [esi+84]
  00051	50		 push	 eax
  00052	c6 45 fc 02	 mov	 BYTE PTR __$EHRec$[ebp+8], 2
  00056	e8 00 00 00 00	 call	 ??_L@YGXPAXIHP6EX0@Z1@Z

; 48   : 
; 49   : }

  0005b	8b 4d f4	 mov	 ecx, DWORD PTR __$EHRec$[ebp]
  0005e	5f		 pop	 edi
  0005f	8b c6		 mov	 eax, esi
  00061	5e		 pop	 esi
  00062	5b		 pop	 ebx
  00063	64 89 0d 00 00
	00 00		 mov	 DWORD PTR fs:__except_list, ecx
  0006a	c9		 leave
  0006b	c3		 ret	 0
_TEXT	ENDS
;	COMDAT text$x
text$x	SEGMENT
$L119843:
  00000	8b 4d f0	 mov	 ecx, DWORD PTR _this$[ebp]
  00003	e9 00 00 00 00	 jmp	 ??1?$basic_string@DV?$char_traits@D@_STL@@V?$allocator@D@2@@_STL@@QAE@XZ ; _STL::basic_string<char,_STL::char_traits<char>,_STL::allocator<char> >::~basic_string<char,_STL::char_traits<char>,_STL::allocator<char> >
$L119844:
  00008	68 00 00 00 00	 push	 OFFSET FLAT:??1?$basic_string@DV?$char_traits@D@_STL@@V?$allocator@D@2@@_STL@@QAE@XZ ; _STL::basic_string<char,_STL::char_traits<char>,_STL::allocator<char> >::~basic_string<char,_STL::char_traits<char>,_STL::allocator<char> >
  0000d	6a 03		 push	 3
  0000f	6a 0c		 push	 12			; 0000000cH
  00011	8b 45 f0	 mov	 eax, DWORD PTR _this$[ebp]
  00014	83 c0 0c	 add	 eax, 12			; 0000000cH
  00017	50		 push	 eax
  00018	e8 00 00 00 00	 call	 ??_M@YGXPAXIHP6EX0@Z@Z
  0001d	c3		 ret	 0
$L119845:
  0001e	68 00 00 00 00	 push	 OFFSET FLAT:??1?$basic_string@DV?$char_traits@D@_STL@@V?$allocator@D@2@@_STL@@QAE@XZ ; _STL::basic_string<char,_STL::char_traits<char>,_STL::allocator<char> >::~basic_string<char,_STL::char_traits<char>,_STL::allocator<char> >
  00023	6a 03		 push	 3
  00025	6a 0c		 push	 12			; 0000000cH
  00027	8b 45 f0	 mov	 eax, DWORD PTR _this$[ebp]
  0002a	83 c0 30	 add	 eax, 48			; 00000030H
  0002d	50		 push	 eax
  0002e	e8 00 00 00 00	 call	 ??_M@YGXPAXIHP6EX0@Z@Z
  00033	c3		 ret	 0
__ehhandler$??0CInfomationBord@@QAE@XZ:
  00034	b8 00 00 00 00	 mov	 eax, OFFSET FLAT:$T119848
  00039	e9 00 00 00 00	 jmp	 ___CxxFrameHandler
text$x	ENDS
??0CInfomationBord@@QAE@XZ ENDP				; CInfomationBord::CInfomationBord
PUBLIC	??$_M_range_initialize@PAD@?$basic_string@DV?$char_traits@D@_STL@@V?$allocator@D@2@@_STL@@AAEXPAD0@Z ; _STL::basic_string<char,_STL::char_traits<char>,_STL::allocator<char> >::_M_range_initialize<char *>
; Function compile flags: /Ogsy
; File c:\stlport-4.6.1\stlport\stl\_string.h
;	COMDAT ??$_M_range_initialize@PAD@?$basic_string@DV?$char_traits@D@_STL@@V?$allocator@D@2@@_STL@@AAEXPAD0@Z
_TEXT	SEGMENT
___f$ = 8						; size = 4
___l$ = 12						; size = 4
$T119855 = 15						; size = 1
??$_M_range_initialize@PAD@?$basic_string@DV?$char_traits@D@_STL@@V?$allocator@D@2@@_STL@@AAEXPAD0@Z PROC NEAR ; _STL::basic_string<char,_STL::char_traits<char>,_STL::allocator<char> >::_M_range_initialize<char *>, COMDAT
; _this$ = ecx

; 390  :   template <class _InputIter> void _M_range_initialize(_InputIter __f, _InputIter __l) {

  00000	55		 push	 ebp
  00001	8b ec		 mov	 ebp, esp

; 391  :     _M_range_initialize(__f, __l, _STLP_ITERATOR_CATEGORY(__f, _InputIter));

  00003	8d 45 0f	 lea	 eax, DWORD PTR $T119855[ebp]
  00006	50		 push	 eax
  00007	ff 75 0c	 push	 DWORD PTR ___l$[ebp]
  0000a	ff 75 08	 push	 DWORD PTR ___f$[ebp]
  0000d	e8 00 00 00 00	 call	 ??$_M_range_initialize@PAD@?$basic_string@DV?$char_traits@D@_STL@@V?$allocator@D@2@@_STL@@AAEXPAD0ABUforward_iterator_tag@1@@Z ; _STL::basic_string<char,_STL::char_traits<char>,_STL::allocator<char> >::_M_range_initialize<char *>

; 392  :   }

  00012	5d		 pop	 ebp
  00013	c2 08 00	 ret	 8
??$_M_range_initialize@PAD@?$basic_string@DV?$char_traits@D@_STL@@V?$allocator@D@2@@_STL@@AAEXPAD0@Z ENDP ; _STL::basic_string<char,_STL::char_traits<char>,_STL::allocator<char> >::_M_range_initialize<char *>
_TEXT	ENDS
PUBLIC	??$append@PBD@?$basic_string@DV?$char_traits@D@_STL@@V?$allocator@D@2@@_STL@@QAEAAV01@PBD0@Z ; _STL::basic_string<char,_STL::char_traits<char>,_STL::allocator<char> >::append<char const *>
; Function compile flags: /Ogsy
;	COMDAT ??$append@PBD@?$basic_string@DV?$char_traits@D@_STL@@V?$allocator@D@2@@_STL@@QAEAAV01@PBD0@Z
_TEXT	SEGMENT
___first$ = 8						; size = 4
___last$ = 12						; size = 4
$T119862 = 15						; size = 1
??$append@PBD@?$basic_string@DV?$char_traits@D@_STL@@V?$allocator@D@2@@_STL@@QAEAAV01@PBD0@Z PROC NEAR ; _STL::basic_string<char,_STL::char_traits<char>,_STL::allocator<char> >::append<char const *>, COMDAT
; _this$ = ecx

; 506  :   template <class _InputIter> _Self& append(_InputIter __first, _InputIter __last) {

  00000	55		 push	 ebp
  00001	8b ec		 mov	 ebp, esp

; 507  :     typedef typename _Is_integer<_InputIter>::_Integral _Integral;
; 508  :     return _M_append_dispatch(__first, __last, _Integral());

  00003	8d 45 0f	 lea	 eax, DWORD PTR $T119862[ebp]
  00006	50		 push	 eax
  00007	ff 75 0c	 push	 DWORD PTR ___last$[ebp]
  0000a	ff 75 08	 push	 DWORD PTR ___first$[ebp]
  0000d	e8 00 00 00 00	 call	 ??$append@PBD@?$basic_string@DV?$char_traits@D@_STL@@V?$allocator@D@2@@_STL@@AAEAAV01@PBD0ABUforward_iterator_tag@1@@Z ; _STL::basic_string<char,_STL::char_traits<char>,_STL::allocator<char> >::append<char const *>

; 509  :   }

  00012	5d		 pop	 ebp
  00013	c2 08 00	 ret	 8
??$append@PBD@?$basic_string@DV?$char_traits@D@_STL@@V?$allocator@D@2@@_STL@@QAEAAV01@PBD0@Z ENDP ; _STL::basic_string<char,_STL::char_traits<char>,_STL::allocator<char> >::append<char const *>
_TEXT	ENDS
PUBLIC	??$append@PAD@?$basic_string@DV?$char_traits@D@_STL@@V?$allocator@D@2@@_STL@@QAEAAV01@PAD0@Z ; _STL::basic_string<char,_STL::char_traits<char>,_STL::allocator<char> >::append<char *>
; Function compile flags: /Ogsy
;	COMDAT ??$append@PAD@?$basic_string@DV?$char_traits@D@_STL@@V?$allocator@D@2@@_STL@@QAEAAV01@PAD0@Z
_TEXT	SEGMENT
___first$ = 8						; size = 4
___last$ = 12						; size = 4
$T119870 = 15						; size = 1
??$append@PAD@?$basic_string@DV?$char_traits@D@_STL@@V?$allocator@D@2@@_STL@@QAEAAV01@PAD0@Z PROC NEAR ; _STL::basic_string<char,_STL::char_traits<char>,_STL::allocator<char> >::append<char *>, COMDAT
; _this$ = ecx

; 506  :   template <class _InputIter> _Self& append(_InputIter __first, _InputIter __last) {

  00000	55		 push	 ebp
  00001	8b ec		 mov	 ebp, esp

; 507  :     typedef typename _Is_integer<_InputIter>::_Integral _Integral;
; 508  :     return _M_append_dispatch(__first, __last, _Integral());

  00003	8d 45 0f	 lea	 eax, DWORD PTR $T119870[ebp]
  00006	50		 push	 eax
  00007	ff 75 0c	 push	 DWORD PTR ___last$[ebp]
  0000a	ff 75 08	 push	 DWORD PTR ___first$[ebp]
  0000d	e8 00 00 00 00	 call	 ??$append@PAD@?$basic_string@DV?$char_traits@D@_STL@@V?$allocator@D@2@@_STL@@AAEAAV01@PAD0ABUforward_iterator_tag@1@@Z ; _STL::basic_string<char,_STL::char_traits<char>,_STL::allocator<char> >::append<char *>

; 509  :   }

  00012	5d		 pop	 ebp
  00013	c2 08 00	 ret	 8
??$append@PAD@?$basic_string@DV?$char_traits@D@_STL@@V?$allocator@D@2@@_STL@@QAEAAV01@PAD0@Z ENDP ; _STL::basic_string<char,_STL::char_traits<char>,_STL::allocator<char> >::append<char *>
_TEXT	ENDS
PUBLIC	??$_M_initialize_dispatch@PAD@?$basic_string@DV?$char_traits@D@_STL@@V?$allocator@D@2@@_STL@@AAEXPAD0ABU__false_type@1@@Z ; _STL::basic_string<char,_STL::char_traits<char>,_STL::allocator<char> >::_M_initialize_dispatch<char *>
; Function compile flags: /Ogsy
;	COMDAT ??$_M_initialize_dispatch@PAD@?$basic_string@DV?$char_traits@D@_STL@@V?$allocator@D@2@@_STL@@AAEXPAD0ABU__false_type@1@@Z
_TEXT	SEGMENT
___f$ = 8						; size = 4
___l$ = 12						; size = 4
$T119877 = 15						; size = 1
___formal$ = 16						; size = 4
??$_M_initialize_dispatch@PAD@?$basic_string@DV?$char_traits@D@_STL@@V?$allocator@D@2@@_STL@@AAEXPAD0ABU__false_type@1@@Z PROC NEAR ; _STL::basic_string<char,_STL::char_traits<char>,_STL::allocator<char> >::_M_initialize_dispatch<char *>, COMDAT
; _this$ = ecx

; 400  :   template <class _InputIter> void _M_initialize_dispatch(_InputIter __f, _InputIter __l, const __false_type&) {

  00000	55		 push	 ebp
  00001	8b ec		 mov	 ebp, esp

; 401  :      _M_range_initialize(__f, __l);

  00003	8d 45 0f	 lea	 eax, DWORD PTR $T119877[ebp]
  00006	50		 push	 eax
  00007	ff 75 0c	 push	 DWORD PTR ___l$[ebp]
  0000a	ff 75 08	 push	 DWORD PTR ___f$[ebp]
  0000d	e8 00 00 00 00	 call	 ??$_M_range_initialize@PAD@?$basic_string@DV?$char_traits@D@_STL@@V?$allocator@D@2@@_STL@@AAEXPAD0ABUforward_iterator_tag@1@@Z ; _STL::basic_string<char,_STL::char_traits<char>,_STL::allocator<char> >::_M_range_initialize<char *>

; 402  :   }

  00012	5d		 pop	 ebp
  00013	c2 0c 00	 ret	 12			; 0000000cH
??$_M_initialize_dispatch@PAD@?$basic_string@DV?$char_traits@D@_STL@@V?$allocator@D@2@@_STL@@AAEXPAD0ABU__false_type@1@@Z ENDP ; _STL::basic_string<char,_STL::char_traits<char>,_STL::allocator<char> >::_M_initialize_dispatch<char *>
_TEXT	ENDS
PUBLIC	?assign@?$basic_string@DV?$char_traits@D@_STL@@V?$allocator@D@2@@_STL@@QAEAAV12@PBD0@Z ; _STL::basic_string<char,_STL::char_traits<char>,_STL::allocator<char> >::assign
; Function compile flags: /Ogsy
;	COMDAT ?assign@?$basic_string@DV?$char_traits@D@_STL@@V?$allocator@D@2@@_STL@@QAEAAV12@PBD0@Z
_TEXT	SEGMENT
___f$ = 8						; size = 4
___l$ = 12						; size = 4
$T119925 = 15						; size = 1
?assign@?$basic_string@DV?$char_traits@D@_STL@@V?$allocator@D@2@@_STL@@QAEAAV12@PBD0@Z PROC NEAR ; _STL::basic_string<char,_STL::char_traits<char>,_STL::allocator<char> >::assign, COMDAT
; _this$ = ecx

; 650  :   {

  00000	55		 push	 ebp
  00001	8b ec		 mov	 ebp, esp
  00003	53		 push	 ebx

; 651  :     ptrdiff_t __n = __l - __f;

  00004	8b 5d 08	 mov	 ebx, DWORD PTR ___f$[ebp]
  00007	56		 push	 esi
  00008	8b f1		 mov	 esi, ecx

; 652  :     if (__STATIC_CAST(size_type,__n) <= size()) {

  0000a	8b 0e		 mov	 ecx, DWORD PTR [esi]
  0000c	8b 46 04	 mov	 eax, DWORD PTR [esi+4]
  0000f	57		 push	 edi
  00010	8b 7d 0c	 mov	 edi, DWORD PTR ___l$[ebp]
  00013	2b fb		 sub	 edi, ebx
  00015	2b c1		 sub	 eax, ecx
  00017	3b f8		 cmp	 edi, eax
  00019	77 20		 ja	 SHORT $L117401

; 653  :       _Traits::copy(this->_M_start, __f, __n);

  0001b	85 ff		 test	 edi, edi
  0001d	74 0b		 je	 SHORT $L119889
  0001f	57		 push	 edi
  00020	53		 push	 ebx
  00021	51		 push	 ecx
  00022	e8 00 00 00 00	 call	 _memcpy
  00027	83 c4 0c	 add	 esp, 12			; 0000000cH
$L119889:

; 654  :       erase(begin() + __n, end());

  0002a	8b 06		 mov	 eax, DWORD PTR [esi]
  0002c	ff 76 04	 push	 DWORD PTR [esi+4]
  0002f	03 c7		 add	 eax, edi
  00031	50		 push	 eax
  00032	8b ce		 mov	 ecx, esi
  00034	e8 00 00 00 00	 call	 ?erase@?$basic_string@DV?$char_traits@D@_STL@@V?$allocator@D@2@@_STL@@QAEPADPAD0@Z ; _STL::basic_string<char,_STL::char_traits<char>,_STL::allocator<char> >::erase

; 655  :     }
; 656  :     else {

  00039	eb 25		 jmp	 SHORT $L119927
$L117401:

; 657  :       _Traits::copy(this->_M_start, __f, size());

  0003b	85 c0		 test	 eax, eax
  0003d	74 0b		 je	 SHORT $L119908
  0003f	50		 push	 eax
  00040	53		 push	 ebx
  00041	51		 push	 ecx
  00042	e8 00 00 00 00	 call	 _memcpy
  00047	83 c4 0c	 add	 esp, 12			; 0000000cH
$L119908:

; 658  :       append(__f + size(), __l);

  0004a	8d 45 0f	 lea	 eax, DWORD PTR $T119925[ebp]
  0004d	50		 push	 eax
  0004e	8b 46 04	 mov	 eax, DWORD PTR [esi+4]
  00051	2b 06		 sub	 eax, DWORD PTR [esi]
  00053	ff 75 0c	 push	 DWORD PTR ___l$[ebp]
  00056	03 c3		 add	 eax, ebx
  00058	50		 push	 eax
  00059	8b ce		 mov	 ecx, esi
  0005b	e8 00 00 00 00	 call	 ??$append@PBD@?$basic_string@DV?$char_traits@D@_STL@@V?$allocator@D@2@@_STL@@AAEAAV01@PBD0ABUforward_iterator_tag@1@@Z ; _STL::basic_string<char,_STL::char_traits<char>,_STL::allocator<char> >::append<char const *>
$L119927:
  00060	5f		 pop	 edi

; 659  :     }
; 660  :     return *this;

  00061	8b c6		 mov	 eax, esi
  00063	5e		 pop	 esi
  00064	5b		 pop	 ebx

; 661  :   }

  00065	5d		 pop	 ebp
  00066	c2 08 00	 ret	 8
?assign@?$basic_string@DV?$char_traits@D@_STL@@V?$allocator@D@2@@_STL@@QAEAAV12@PBD0@Z ENDP ; _STL::basic_string<char,_STL::char_traits<char>,_STL::allocator<char> >::assign
_TEXT	ENDS
PUBLIC	??$_M_assign_dispatch@PAD@?$basic_string@DV?$char_traits@D@_STL@@V?$allocator@D@2@@_STL@@AAEAAV01@PAD0ABU__false_type@1@@Z ; _STL::basic_string<char,_STL::char_traits<char>,_STL::allocator<char> >::_M_assign_dispatch<char *>
; Function compile flags: /Ogsy
;	COMDAT ??$_M_assign_dispatch@PAD@?$basic_string@DV?$char_traits@D@_STL@@V?$allocator@D@2@@_STL@@AAEAAV01@PAD0ABU__false_type@1@@Z
_TEXT	SEGMENT
___f$ = 8						; size = 4
$T119949 = 11						; size = 1
___l$ = 12						; size = 4
___formal$ = 16						; size = 4
??$_M_assign_dispatch@PAD@?$basic_string@DV?$char_traits@D@_STL@@V?$allocator@D@2@@_STL@@AAEAAV01@PAD0ABU__false_type@1@@Z PROC NEAR ; _STL::basic_string<char,_STL::char_traits<char>,_STL::allocator<char> >::_M_assign_dispatch<char *>, COMDAT
; _this$ = ecx

; 624  :   _Self& _M_assign_dispatch(_InputIter __f, _InputIter __l,

  00000	55		 push	 ebp
  00001	8b ec		 mov	 ebp, esp
  00003	56		 push	 esi
  00004	8b f1		 mov	 esi, ecx

; 625  : 			    const __false_type&)  {
; 626  :     pointer __cur = this->_M_start;
; 627  :     while (__f != __l && __cur != this->_M_finish) {

  00006	8b 4d 08	 mov	 ecx, DWORD PTR ___f$[ebp]
  00009	8b 06		 mov	 eax, DWORD PTR [esi]
  0000b	57		 push	 edi
  0000c	8b 7d 0c	 mov	 edi, DWORD PTR ___l$[ebp]
  0000f	3b cf		 cmp	 ecx, edi
  00011	74 13		 je	 SHORT $L119953
$L117654:
  00013	3b 46 04	 cmp	 eax, DWORD PTR [esi+4]
  00016	74 0a		 je	 SHORT $L117655

; 628  :       _Traits::assign(*__cur, *__f);

  00018	8a 11		 mov	 dl, BYTE PTR [ecx]

; 629  :       ++__f;

  0001a	41		 inc	 ecx
  0001b	88 10		 mov	 BYTE PTR [eax], dl

; 630  :       ++__cur;

  0001d	40		 inc	 eax
  0001e	3b cf		 cmp	 ecx, edi
  00020	75 f1		 jne	 SHORT $L117654
$L117655:

; 631  :     }
; 632  :     if (__f == __l)

  00022	3b cf		 cmp	 ecx, edi
  00024	75 0d		 jne	 SHORT $L117656
$L119953:

; 633  :       erase(__cur, end());

  00026	ff 76 04	 push	 DWORD PTR [esi+4]
  00029	8b ce		 mov	 ecx, esi
  0002b	50		 push	 eax
  0002c	e8 00 00 00 00	 call	 ?erase@?$basic_string@DV?$char_traits@D@_STL@@V?$allocator@D@2@@_STL@@QAEPADPAD0@Z ; _STL::basic_string<char,_STL::char_traits<char>,_STL::allocator<char> >::erase

; 634  :     else

  00031	eb 0d		 jmp	 SHORT $L119945
$L117656:

; 635  :       append(__f, __l);

  00033	8d 45 0b	 lea	 eax, DWORD PTR $T119949[ebp]
  00036	50		 push	 eax
  00037	57		 push	 edi
  00038	51		 push	 ecx
  00039	8b ce		 mov	 ecx, esi
  0003b	e8 00 00 00 00	 call	 ??$append@PAD@?$basic_string@DV?$char_traits@D@_STL@@V?$allocator@D@2@@_STL@@AAEAAV01@PAD0ABUforward_iterator_tag@1@@Z ; _STL::basic_string<char,_STL::char_traits<char>,_STL::allocator<char> >::append<char *>
$L119945:
  00040	5f		 pop	 edi

; 636  :     return *this;

  00041	8b c6		 mov	 eax, esi
  00043	5e		 pop	 esi

; 637  :   }

  00044	5d		 pop	 ebp
  00045	c2 0c 00	 ret	 12			; 0000000cH
??$_M_assign_dispatch@PAD@?$basic_string@DV?$char_traits@D@_STL@@V?$allocator@D@2@@_STL@@AAEAAV01@PAD0ABU__false_type@1@@Z ENDP ; _STL::basic_string<char,_STL::char_traits<char>,_STL::allocator<char> >::_M_assign_dispatch<char *>
_TEXT	ENDS
PUBLIC	??$?0PAD@?$basic_string@DV?$char_traits@D@_STL@@V?$allocator@D@2@@_STL@@QAE@PAD0ABV?$allocator@D@1@@Z ; _STL::basic_string<char,_STL::char_traits<char>,_STL::allocator<char> >::basic_string<char,_STL::char_traits<char>,_STL::allocator<char> ><char *>
;	COMDAT xdata$x
xdata$x	SEGMENT
$T119972 DD	0ffffffffH
	DD	FLAT:$L119957
$T119970 DD	019930520H
	DD	01H
	DD	FLAT:$T119972
	DD	2 DUP(00H)
	DD	2 DUP(00H)
; Function compile flags: /Ogsy
xdata$x	ENDS
;	COMDAT ??$?0PAD@?$basic_string@DV?$char_traits@D@_STL@@V?$allocator@D@2@@_STL@@QAE@PAD0ABV?$allocator@D@1@@Z
_TEXT	SEGMENT
_this$ = -16						; size = 4
__$EHRec$ = -12						; size = 12
___f$ = 8						; size = 4
___l$ = 12						; size = 4
___a$ = 16						; size = 4
$T119967 = 19						; size = 1
??$?0PAD@?$basic_string@DV?$char_traits@D@_STL@@V?$allocator@D@2@@_STL@@QAE@PAD0ABV?$allocator@D@1@@Z PROC NEAR ; _STL::basic_string<char,_STL::char_traits<char>,_STL::allocator<char> >::basic_string<char,_STL::char_traits<char>,_STL::allocator<char> ><char *>, COMDAT
; _this$ = ecx

; 277  :   {

  00000	b8 00 00 00 00	 mov	 eax, __ehhandler$??$?0PAD@?$basic_string@DV?$char_traits@D@_STL@@V?$allocator@D@2@@_STL@@QAE@PAD0ABV?$allocator@D@1@@Z
  00005	e8 00 00 00 00	 call	 __EH_prolog
  0000a	51		 push	 ecx
  0000b	56		 push	 esi
  0000c	ff 75 10	 push	 DWORD PTR ___a$[ebp]
  0000f	8b f1		 mov	 esi, ecx
  00011	89 75 f0	 mov	 DWORD PTR _this$[ebp], esi
  00014	e8 00 00 00 00	 call	 ??0?$_String_base@DV?$allocator@D@_STL@@@_STL@@QAE@ABV?$allocator@D@1@@Z ; _STL::_String_base<char,_STL::allocator<char> >::_String_base<char,_STL::allocator<char> >
  00019	83 65 fc 00	 and	 DWORD PTR __$EHRec$[ebp+8], 0

; 278  :     typedef typename _Is_integer<_InputIterator>::_Integral _Integral;
; 279  :     _M_initialize_dispatch(__f, __l, _Integral());

  0001d	8d 45 13	 lea	 eax, DWORD PTR $T119967[ebp]
  00020	50		 push	 eax
  00021	ff 75 0c	 push	 DWORD PTR ___l$[ebp]
  00024	8b ce		 mov	 ecx, esi
  00026	ff 75 08	 push	 DWORD PTR ___f$[ebp]
  00029	e8 00 00 00 00	 call	 ??$_M_range_initialize@PAD@?$basic_string@DV?$char_traits@D@_STL@@V?$allocator@D@2@@_STL@@AAEXPAD0ABUforward_iterator_tag@1@@Z ; _STL::basic_string<char,_STL::char_traits<char>,_STL::allocator<char> >::_M_range_initialize<char *>

; 280  :   }

  0002e	8b 4d f4	 mov	 ecx, DWORD PTR __$EHRec$[ebp]
  00031	8b c6		 mov	 eax, esi
  00033	5e		 pop	 esi
  00034	64 89 0d 00 00
	00 00		 mov	 DWORD PTR fs:__except_list, ecx
  0003b	c9		 leave
  0003c	c2 0c 00	 ret	 12			; 0000000cH
_TEXT	ENDS
;	COMDAT text$x
text$x	SEGMENT
$L119957:
  00000	8b 4d f0	 mov	 ecx, DWORD PTR _this$[ebp]
  00003	e9 00 00 00 00	 jmp	 ??1?$_String_base@DV?$allocator@D@_STL@@@_STL@@QAE@XZ ; _STL::_String_base<char,_STL::allocator<char> >::~_String_base<char,_STL::allocator<char> >
__ehhandler$??$?0PAD@?$basic_string@DV?$char_traits@D@_STL@@V?$allocator@D@2@@_STL@@QAE@PAD0ABV?$allocator@D@1@@Z:
  00008	b8 00 00 00 00	 mov	 eax, OFFSET FLAT:$T119970
  0000d	e9 00 00 00 00	 jmp	 ___CxxFrameHandler
text$x	ENDS
??$?0PAD@?$basic_string@DV?$char_traits@D@_STL@@V?$allocator@D@2@@_STL@@QAE@PAD0ABV?$allocator@D@1@@Z ENDP ; _STL::basic_string<char,_STL::char_traits<char>,_STL::allocator<char> >::basic_string<char,_STL::char_traits<char>,_STL::allocator<char> ><char *>
PUBLIC	??$assign@PAD@?$basic_string@DV?$char_traits@D@_STL@@V?$allocator@D@2@@_STL@@QAEAAV01@PAD0@Z ; _STL::basic_string<char,_STL::char_traits<char>,_STL::allocator<char> >::assign<char *>
; Function compile flags: /Ogsy
;	COMDAT ??$assign@PAD@?$basic_string@DV?$char_traits@D@_STL@@V?$allocator@D@2@@_STL@@QAEAAV01@PAD0@Z
_TEXT	SEGMENT
___first$ = 8						; size = 4
___last$ = 12						; size = 4
$T119977 = 15						; size = 1
??$assign@PAD@?$basic_string@DV?$char_traits@D@_STL@@V?$allocator@D@2@@_STL@@QAEAAV01@PAD0@Z PROC NEAR ; _STL::basic_string<char,_STL::char_traits<char>,_STL::allocator<char> >::assign<char *>, COMDAT
; _this$ = ecx

; 642  :   template <class _InputIter> _Self& assign(_InputIter __first, _InputIter __last) {

  00000	55		 push	 ebp
  00001	8b ec		 mov	 ebp, esp

; 643  :     typedef typename _Is_integer<_InputIter>::_Integral _Integral;
; 644  :     return _M_assign_dispatch(__first, __last, _Integral());

  00003	8d 45 0f	 lea	 eax, DWORD PTR $T119977[ebp]
  00006	50		 push	 eax
  00007	ff 75 0c	 push	 DWORD PTR ___last$[ebp]
  0000a	ff 75 08	 push	 DWORD PTR ___first$[ebp]
  0000d	e8 00 00 00 00	 call	 ??$_M_assign_dispatch@PAD@?$basic_string@DV?$char_traits@D@_STL@@V?$allocator@D@2@@_STL@@AAEAAV01@PAD0ABU__false_type@1@@Z ; _STL::basic_string<char,_STL::char_traits<char>,_STL::allocator<char> >::_M_assign_dispatch<char *>

; 645  :   }

  00012	5d		 pop	 ebp
  00013	c2 08 00	 ret	 8
??$assign@PAD@?$basic_string@DV?$char_traits@D@_STL@@V?$allocator@D@2@@_STL@@QAEAAV01@PAD0@Z ENDP ; _STL::basic_string<char,_STL::char_traits<char>,_STL::allocator<char> >::assign<char *>
_TEXT	ENDS
PUBLIC	??4?$basic_string@DV?$char_traits@D@_STL@@V?$allocator@D@2@@_STL@@QAEAAV01@PBD@Z ; _STL::basic_string<char,_STL::char_traits<char>,_STL::allocator<char> >::operator=
; Function compile flags: /Ogsy
;	COMDAT ??4?$basic_string@DV?$char_traits@D@_STL@@V?$allocator@D@2@@_STL@@QAEAAV01@PBD@Z
_TEXT	SEGMENT
___s$ = 8						; size = 4
??4?$basic_string@DV?$char_traits@D@_STL@@V?$allocator@D@2@@_STL@@QAEAAV01@PBD@Z PROC NEAR ; _STL::basic_string<char,_STL::char_traits<char>,_STL::allocator<char> >::operator=, COMDAT
; _this$ = ecx

; 313  :   _Self& operator=(const _CharT* __s) { 

  00000	56		 push	 esi

; 314  :     _STLP_FIX_LITERAL_BUG(__s)
; 315  :     return assign(__s, __s + traits_type::length(__s)); 

  00001	8b 74 24 08	 mov	 esi, DWORD PTR ___s$[esp]
  00005	57		 push	 edi
  00006	56		 push	 esi
  00007	8b f9		 mov	 edi, ecx
  00009	e8 00 00 00 00	 call	 _strlen
  0000e	59		 pop	 ecx
  0000f	03 c6		 add	 eax, esi
  00011	50		 push	 eax
  00012	56		 push	 esi
  00013	8b cf		 mov	 ecx, edi
  00015	e8 00 00 00 00	 call	 ?assign@?$basic_string@DV?$char_traits@D@_STL@@V?$allocator@D@2@@_STL@@QAEAAV12@PBD0@Z ; _STL::basic_string<char,_STL::char_traits<char>,_STL::allocator<char> >::assign
  0001a	5f		 pop	 edi
  0001b	5e		 pop	 esi

; 316  :   }

  0001c	c2 04 00	 ret	 4
??4?$basic_string@DV?$char_traits@D@_STL@@V?$allocator@D@2@@_STL@@QAEAAV01@PBD@Z ENDP ; _STL::basic_string<char,_STL::char_traits<char>,_STL::allocator<char> >::operator=
_TEXT	ENDS
PUBLIC	?substr@?$basic_string@DV?$char_traits@D@_STL@@V?$allocator@D@2@@_STL@@QBE?AV12@II@Z ; _STL::basic_string<char,_STL::char_traits<char>,_STL::allocator<char> >::substr
; Function compile flags: /Ogsy
;	COMDAT ?substr@?$basic_string@DV?$char_traits@D@_STL@@V?$allocator@D@2@@_STL@@QBE?AV12@II@Z
_TEXT	SEGMENT
$T119989 = -4						; size = 4
___$ReturnUdt$ = 8					; size = 4
$T119987 = 12						; size = 4
___pos$ = 12						; size = 4
___n$ = 16						; size = 4
$T119986 = 19						; size = 1
?substr@?$basic_string@DV?$char_traits@D@_STL@@V?$allocator@D@2@@_STL@@QBE?AV12@II@Z PROC NEAR ; _STL::basic_string<char,_STL::char_traits<char>,_STL::allocator<char> >::substr, COMDAT
; _this$ = ecx

; 1154 :   _Self substr(size_type __pos = 0, size_type __n = npos) const {

  00000	55		 push	 ebp
  00001	8b ec		 mov	 ebp, esp
  00003	51		 push	 ecx
  00004	83 65 fc 00	 and	 DWORD PTR $T119989[ebp], 0
  00008	56		 push	 esi
  00009	8b f1		 mov	 esi, ecx

; 1155 :     if (__pos > size())

  0000b	8b 46 04	 mov	 eax, DWORD PTR [esi+4]
  0000e	2b 06		 sub	 eax, DWORD PTR [esi]
  00010	57		 push	 edi
  00011	8b 7d 0c	 mov	 edi, DWORD PTR ___pos$[ebp]
  00014	3b f8		 cmp	 edi, eax
  00016	76 05		 jbe	 SHORT $L117285

; 1156 :       this->_M_throw_out_of_range();

  00018	e8 00 00 00 00	 call	 ?_M_throw_out_of_range@?$_String_base@DV?$allocator@D@_STL@@@_STL@@QBEXXZ ; _STL::_String_base<char,_STL::allocator<char> >::_M_throw_out_of_range
$L117285:

; 1157 :     return _Self(this->_M_start + __pos, 
; 1158 :                         this->_M_start + __pos + (min) (__n, size() - __pos));

  0001d	8b 0e		 mov	 ecx, DWORD PTR [esi]
  0001f	8b 46 04	 mov	 eax, DWORD PTR [esi+4]
  00022	2b c1		 sub	 eax, ecx
  00024	2b c7		 sub	 eax, edi
  00026	3b 45 10	 cmp	 eax, DWORD PTR ___n$[ebp]
  00029	89 45 0c	 mov	 DWORD PTR $T119987[ebp], eax
  0002c	8d 45 0c	 lea	 eax, DWORD PTR $T119987[ebp]
  0002f	72 03		 jb	 SHORT $L120007
  00031	8d 45 10	 lea	 eax, DWORD PTR ___n$[ebp]
$L120007:
  00034	8b 00		 mov	 eax, DWORD PTR [eax]
  00036	03 c1		 add	 eax, ecx
  00038	8d 55 13	 lea	 edx, DWORD PTR $T119986[ebp]
  0003b	52		 push	 edx
  0003c	03 c7		 add	 eax, edi
  0003e	03 cf		 add	 ecx, edi
  00040	50		 push	 eax
  00041	51		 push	 ecx
  00042	8b 4d 08	 mov	 ecx, DWORD PTR ___$ReturnUdt$[ebp]
  00045	e8 00 00 00 00	 call	 ??$?0PAD@?$basic_string@DV?$char_traits@D@_STL@@V?$allocator@D@2@@_STL@@QAE@PAD0ABV?$allocator@D@1@@Z ; _STL::basic_string<char,_STL::char_traits<char>,_STL::allocator<char> >::basic_string<char,_STL::char_traits<char>,_STL::allocator<char> ><char *>
  0004a	8b 45 08	 mov	 eax, DWORD PTR ___$ReturnUdt$[ebp]
  0004d	5f		 pop	 edi
  0004e	5e		 pop	 esi

; 1159 :   }

  0004f	c9		 leave
  00050	c2 0c 00	 ret	 12			; 0000000cH
?substr@?$basic_string@DV?$char_traits@D@_STL@@V?$allocator@D@2@@_STL@@QBE?AV12@II@Z ENDP ; _STL::basic_string<char,_STL::char_traits<char>,_STL::allocator<char> >::substr
_TEXT	ENDS
PUBLIC	??4?$basic_string@DV?$char_traits@D@_STL@@V?$allocator@D@2@@_STL@@QAEAAV01@ABV01@@Z ; _STL::basic_string<char,_STL::char_traits<char>,_STL::allocator<char> >::operator=
; Function compile flags: /Ogsy
;	COMDAT ??4?$basic_string@DV?$char_traits@D@_STL@@V?$allocator@D@2@@_STL@@QAEAAV01@ABV01@@Z
_TEXT	SEGMENT
___s$ = 8						; size = 4
$T120017 = 11						; size = 1
??4?$basic_string@DV?$char_traits@D@_STL@@V?$allocator@D@2@@_STL@@QAEAAV01@ABV01@@Z PROC NEAR ; _STL::basic_string<char,_STL::char_traits<char>,_STL::allocator<char> >::operator=, COMDAT
; _this$ = ecx

; 307  :   _Self& operator=(const _Self& __s) {

  00000	55		 push	 ebp
  00001	8b ec		 mov	 ebp, esp

; 308  :     if (&__s != this) 

  00003	8b 45 08	 mov	 eax, DWORD PTR ___s$[ebp]
  00006	56		 push	 esi
  00007	8b f1		 mov	 esi, ecx
  00009	3b c6		 cmp	 eax, esi
  0000b	74 10		 je	 SHORT $L120018

; 309  :       assign(__s._M_start, __s._M_finish);

  0000d	8d 4d 0b	 lea	 ecx, DWORD PTR $T120017[ebp]
  00010	51		 push	 ecx
  00011	ff 70 04	 push	 DWORD PTR [eax+4]
  00014	8b ce		 mov	 ecx, esi
  00016	ff 30		 push	 DWORD PTR [eax]
  00018	e8 00 00 00 00	 call	 ??$_M_assign_dispatch@PAD@?$basic_string@DV?$char_traits@D@_STL@@V?$allocator@D@2@@_STL@@AAEAAV01@PAD0ABU__false_type@1@@Z ; _STL::basic_string<char,_STL::char_traits<char>,_STL::allocator<char> >::_M_assign_dispatch<char *>
$L120018:

; 310  :     return *this;

  0001d	8b c6		 mov	 eax, esi
  0001f	5e		 pop	 esi

; 311  :   }

  00020	5d		 pop	 ebp
  00021	c2 04 00	 ret	 4
??4?$basic_string@DV?$char_traits@D@_STL@@V?$allocator@D@2@@_STL@@QAEAAV01@ABV01@@Z ENDP ; _STL::basic_string<char,_STL::char_traits<char>,_STL::allocator<char> >::operator=
_TEXT	ENDS
PUBLIC	??1CInfomationBord@@QAE@XZ			; CInfomationBord::~CInfomationBord
;	COMDAT xdata$x
; File c:\stlport-4.6.1\stlport\stl\_alloc.h
xdata$x	SEGMENT
$T120063 DD	0ffffffffH
	DD	FLAT:$L120024
	DD	00H
	DD	FLAT:$L120025
	DD	01H
	DD	FLAT:$L120026
	DD	02H
	DD	FLAT:$L120027
$T120059 DD	019930520H
	DD	04H
	DD	FLAT:$T120063
	DD	2 DUP(00H)
	DD	2 DUP(00H)
; Function compile flags: /Ogsy
; File c:\darkeden\designed_common\project\client\cmessagearray.cpp
xdata$x	ENDS
;	COMDAT ??1CInfomationBord@@QAE@XZ
_TEXT	SEGMENT
_this$ = -20						; size = 4
tv190 = -16						; size = 4
__$EHRec$ = -12						; size = 12
??1CInfomationBord@@QAE@XZ PROC NEAR			; CInfomationBord::~CInfomationBord, COMDAT
; _this$ = ecx

; 52   : {

  00000	b8 00 00 00 00	 mov	 eax, __ehhandler$??1CInfomationBord@@QAE@XZ
  00005	e8 00 00 00 00	 call	 __EH_prolog
  0000a	51		 push	 ecx
  0000b	51		 push	 ecx
  0000c	53		 push	 ebx
  0000d	56		 push	 esi
  0000e	57		 push	 edi
  0000f	8b f9		 mov	 edi, ecx
  00011	89 7d ec	 mov	 DWORD PTR _this$[ebp], edi

; 53   : 	m_strShowScore = "";

  00014	be 00 00 00 00	 mov	 esi, OFFSET FLAT:??_C@_00CNPNBAHC@?$AA@
  00019	56		 push	 esi
  0001a	c7 45 fc 03 00
	00 00		 mov	 DWORD PTR __$EHRec$[ebp+8], 3
  00021	e8 00 00 00 00	 call	 ??4?$basic_string@DV?$char_traits@D@_STL@@V?$allocator@D@2@@_STL@@QAEAAV01@PBD@Z ; _STL::basic_string<char,_STL::char_traits<char>,_STL::allocator<char> >::operator=
  00026	8d 5f 30	 lea	 ebx, DWORD PTR [edi+48]
  00029	c7 45 f0 03 00
	00 00		 mov	 DWORD PTR tv190[ebp], 3
$L117017:

; 54   : 	
; 55   : 	for (int i=0; i<3; i++)
; 56   : 	{
; 57   : 		m_strV[i] = "";

  00030	56		 push	 esi
  00031	8d 4b dc	 lea	 ecx, DWORD PTR [ebx-36]
  00034	e8 00 00 00 00	 call	 ??4?$basic_string@DV?$char_traits@D@_STL@@V?$allocator@D@2@@_STL@@QAEAAV01@PBD@Z ; _STL::basic_string<char,_STL::char_traits<char>,_STL::allocator<char> >::operator=

; 58   : 		m_strS[i] = "";

  00039	56		 push	 esi
  0003a	8b cb		 mov	 ecx, ebx
  0003c	e8 00 00 00 00	 call	 ??4?$basic_string@DV?$char_traits@D@_STL@@V?$allocator@D@2@@_STL@@QAEAAV01@PBD@Z ; _STL::basic_string<char,_STL::char_traits<char>,_STL::allocator<char> >::operator=

; 59   : 		m_strO[i] = "";

  00041	56		 push	 esi
  00042	8d 4b 24	 lea	 ecx, DWORD PTR [ebx+36]
  00045	e8 00 00 00 00	 call	 ??4?$basic_string@DV?$char_traits@D@_STL@@V?$allocator@D@2@@_STL@@QAEAAV01@PBD@Z ; _STL::basic_string<char,_STL::char_traits<char>,_STL::allocator<char> >::operator=
  0004a	83 c3 0c	 add	 ebx, 12			; 0000000cH
  0004d	ff 4d f0	 dec	 DWORD PTR tv190[ebp]
  00050	75 de		 jne	 SHORT $L117017

; 60   : 	}
; 61   : }

  00052	be 00 00 00 00	 mov	 esi, OFFSET FLAT:??1?$basic_string@DV?$char_traits@D@_STL@@V?$allocator@D@2@@_STL@@QAE@XZ ; _STL::basic_string<char,_STL::char_traits<char>,_STL::allocator<char> >::~basic_string<char,_STL::char_traits<char>,_STL::allocator<char> >
  00057	56		 push	 esi
  00058	6a 03		 push	 3
  0005a	6a 0c		 push	 12			; 0000000cH
  0005c	8d 47 54	 lea	 eax, DWORD PTR [edi+84]
  0005f	50		 push	 eax
  00060	c6 45 fc 02	 mov	 BYTE PTR __$EHRec$[ebp+8], 2
  00064	e8 00 00 00 00	 call	 ??_M@YGXPAXIHP6EX0@Z@Z
  00069	56		 push	 esi
  0006a	6a 03		 push	 3
  0006c	6a 0c		 push	 12			; 0000000cH
  0006e	8d 47 30	 lea	 eax, DWORD PTR [edi+48]
  00071	50		 push	 eax
  00072	c6 45 fc 01	 mov	 BYTE PTR __$EHRec$[ebp+8], 1
  00076	e8 00 00 00 00	 call	 ??_M@YGXPAXIHP6EX0@Z@Z
  0007b	56		 push	 esi
  0007c	6a 03		 push	 3
  0007e	6a 0c		 push	 12			; 0000000cH
  00080	8d 47 0c	 lea	 eax, DWORD PTR [edi+12]
  00083	50		 push	 eax
  00084	c6 45 fc 00	 mov	 BYTE PTR __$EHRec$[ebp+8], 0
  00088	e8 00 00 00 00	 call	 ??_M@YGXPAXIHP6EX0@Z@Z
  0008d	83 4d fc ff	 or	 DWORD PTR __$EHRec$[ebp+8], -1
  00091	8b cf		 mov	 ecx, edi
  00093	e8 00 00 00 00	 call	 ?_M_deallocate_block@?$_String_base@DV?$allocator@D@_STL@@@_STL@@QAEXXZ ; _STL::_String_base<char,_STL::allocator<char> >::_M_deallocate_block
  00098	8b 4d f4	 mov	 ecx, DWORD PTR __$EHRec$[ebp]
  0009b	5f		 pop	 edi
  0009c	5e		 pop	 esi
  0009d	5b		 pop	 ebx
  0009e	64 89 0d 00 00
	00 00		 mov	 DWORD PTR fs:__except_list, ecx
  000a5	c9		 leave
  000a6	c3		 ret	 0
_TEXT	ENDS
;	COMDAT text$x
text$x	SEGMENT
$L120024:
  00000	8b 4d ec	 mov	 ecx, DWORD PTR _this$[ebp]
  00003	e9 00 00 00 00	 jmp	 ??1?$basic_string@DV?$char_traits@D@_STL@@V?$allocator@D@2@@_STL@@QAE@XZ ; _STL::basic_string<char,_STL::char_traits<char>,_STL::allocator<char> >::~basic_string<char,_STL::char_traits<char>,_STL::allocator<char> >
$L120025:
  00008	68 00 00 00 00	 push	 OFFSET FLAT:??1?$basic_string@DV?$char_traits@D@_STL@@V?$allocator@D@2@@_STL@@QAE@XZ ; _STL::basic_string<char,_STL::char_traits<char>,_STL::allocator<char> >::~basic_string<char,_STL::char_traits<char>,_STL::allocator<char> >
  0000d	6a 03		 push	 3
  0000f	6a 0c		 push	 12			; 0000000cH
  00011	8b 45 ec	 mov	 eax, DWORD PTR _this$[ebp]
  00014	83 c0 0c	 add	 eax, 12			; 0000000cH
  00017	50		 push	 eax
  00018	e8 00 00 00 00	 call	 ??_M@YGXPAXIHP6EX0@Z@Z
  0001d	c3		 ret	 0
$L120026:
  0001e	68 00 00 00 00	 push	 OFFSET FLAT:??1?$basic_string@DV?$char_traits@D@_STL@@V?$allocator@D@2@@_STL@@QAE@XZ ; _STL::basic_string<char,_STL::char_traits<char>,_STL::allocator<char> >::~basic_string<char,_STL::char_traits<char>,_STL::allocator<char> >
  00023	6a 03		 push	 3
  00025	6a 0c		 push	 12			; 0000000cH
  00027	8b 45 ec	 mov	 eax, DWORD PTR _this$[ebp]
  0002a	83 c0 30	 add	 eax, 48			; 00000030H
  0002d	50		 push	 eax
  0002e	e8 00 00 00 00	 call	 ??_M@YGXPAXIHP6EX0@Z@Z
  00033	c3		 ret	 0
$L120027:
  00034	68 00 00 00 00	 push	 OFFSET FLAT:??1?$basic_string@DV?$char_traits@D@_STL@@V?$allocator@D@2@@_STL@@QAE@XZ ; _STL::basic_string<char,_STL::char_traits<char>,_STL::allocator<char> >::~basic_string<char,_STL::char_traits<char>,_STL::allocator<char> >
  00039	6a 03		 push	 3
  0003b	6a 0c		 push	 12			; 0000000cH
  0003d	8b 45 ec	 mov	 eax, DWORD PTR _this$[ebp]
  00040	83 c0 54	 add	 eax, 84			; 00000054H
  00043	50		 push	 eax
  00044	e8 00 00 00 00	 call	 ??_M@YGXPAXIHP6EX0@Z@Z
  00049	c3		 ret	 0
__ehhandler$??1CInfomationBord@@QAE@XZ:
  0004a	b8 00 00 00 00	 mov	 eax, OFFSET FLAT:$T120059
  0004f	e9 00 00 00 00	 jmp	 ___CxxFrameHandler
text$x	ENDS
??1CInfomationBord@@QAE@XZ ENDP				; CInfomationBord::~CInfomationBord
PUBLIC	??_C@_07BGPHCEH@?$DMScore?$DO?$AA@		; `string'
PUBLIC	??_C@_05CFKAFMNN@Clean?$AA@			; `string'
PUBLIC	??_C@_09LGFFKJAA@?$EAShowBord?$AA@		; `string'
PUBLIC	??_C@_09BIHDICFI@?$EAHideBord?$AA@		; `string'
PUBLIC	??_C@_08POGECDCH@?$DMNO_3_V?$DO?$AA@		; `string'
PUBLIC	??_C@_08MDAEAKJH@?$DMNO_2_V?$DO?$AA@		; `string'
PUBLIC	??_C@_08IEKEHAEH@?$DMNO_1_V?$DO?$AA@		; `string'
PUBLIC	??_C@_08PIKPOBMM@?$DMNO_3_S?$DO?$AA@		; `string'
PUBLIC	??_C@_08MFMPMIHM@?$DMNO_2_S?$DO?$AA@		; `string'
PUBLIC	??_C@_08ICGPLCKM@?$DMNO_1_S?$DO?$AA@		; `string'
PUBLIC	??_C@_08ONJDLLNI@?$DMNO_3_O?$DO?$AA@		; `string'
PUBLIC	??_C@_08NAPDJCGI@?$DMNO_2_O?$DO?$AA@		; `string'
PUBLIC	??_C@_08JHFDOILI@?$DMNO_1_O?$DO?$AA@		; `string'
PUBLIC	?Parse@CInfomationBord@@QAEXPBD@Z		; CInfomationBord::Parse
;	COMDAT xdata$x
; File c:\stlport-4.6.1\stlport\stl\_alloc.h
xdata$x	SEGMENT
$T120496 DD	0ffffffffH
	DD	FLAT:$L120069
	DD	00H
	DD	FLAT:$L120070
	DD	00H
	DD	FLAT:$L120071
	DD	00H
	DD	FLAT:$L120072
	DD	00H
	DD	FLAT:$L120073
	DD	00H
	DD	FLAT:$L120074
	DD	00H
	DD	FLAT:$L120075
	DD	00H
	DD	FLAT:$L120076
	DD	00H
	DD	FLAT:$L120077
	DD	00H
	DD	FLAT:$L120078
	DD	00H
	DD	FLAT:$L120079
$T120494 DD	019930520H
	DD	0bH
	DD	FLAT:$T120496
	DD	2 DUP(00H)
	DD	2 DUP(00H)
xdata$x	ENDS
;	COMDAT ??_C@_07BGPHCEH@?$DMScore?$DO?$AA@
CONST	SEGMENT
??_C@_07BGPHCEH@?$DMScore?$DO?$AA@ DB '<Score>', 00H	; `string'
CONST	ENDS
;	COMDAT ??_C@_05CFKAFMNN@Clean?$AA@
CONST	SEGMENT
??_C@_05CFKAFMNN@Clean?$AA@ DB 'Clean', 00H		; `string'
CONST	ENDS
;	COMDAT ??_C@_09LGFFKJAA@?$EAShowBord?$AA@
CONST	SEGMENT
??_C@_09LGFFKJAA@?$EAShowBord?$AA@ DB '@ShowBord', 00H	; `string'
CONST	ENDS
;	COMDAT ??_C@_09BIHDICFI@?$EAHideBord?$AA@
CONST	SEGMENT
??_C@_09BIHDICFI@?$EAHideBord?$AA@ DB '@HideBord', 00H	; `string'
CONST	ENDS
;	COMDAT ??_C@_08POGECDCH@?$DMNO_3_V?$DO?$AA@
CONST	SEGMENT
??_C@_08POGECDCH@?$DMNO_3_V?$DO?$AA@ DB '<NO_3_V>', 00H	; `string'
CONST	ENDS
;	COMDAT ??_C@_08MDAEAKJH@?$DMNO_2_V?$DO?$AA@
CONST	SEGMENT
??_C@_08MDAEAKJH@?$DMNO_2_V?$DO?$AA@ DB '<NO_2_V>', 00H	; `string'
CONST	ENDS
;	COMDAT ??_C@_08IEKEHAEH@?$DMNO_1_V?$DO?$AA@
CONST	SEGMENT
??_C@_08IEKEHAEH@?$DMNO_1_V?$DO?$AA@ DB '<NO_1_V>', 00H	; `string'
CONST	ENDS
;	COMDAT ??_C@_08PIKPOBMM@?$DMNO_3_S?$DO?$AA@
CONST	SEGMENT
??_C@_08PIKPOBMM@?$DMNO_3_S?$DO?$AA@ DB '<NO_3_S>', 00H	; `string'
CONST	ENDS
;	COMDAT ??_C@_08MFMPMIHM@?$DMNO_2_S?$DO?$AA@
CONST	SEGMENT
??_C@_08MFMPMIHM@?$DMNO_2_S?$DO?$AA@ DB '<NO_2_S>', 00H	; `string'
CONST	ENDS
;	COMDAT ??_C@_08ICGPLCKM@?$DMNO_1_S?$DO?$AA@
CONST	SEGMENT
??_C@_08ICGPLCKM@?$DMNO_1_S?$DO?$AA@ DB '<NO_1_S>', 00H	; `string'
CONST	ENDS
;	COMDAT ??_C@_08ONJDLLNI@?$DMNO_3_O?$DO?$AA@
CONST	SEGMENT
??_C@_08ONJDLLNI@?$DMNO_3_O?$DO?$AA@ DB '<NO_3_O>', 00H	; `string'
CONST	ENDS
;	COMDAT ??_C@_08NAPDJCGI@?$DMNO_2_O?$DO?$AA@
CONST	SEGMENT
??_C@_08NAPDJCGI@?$DMNO_2_O?$DO?$AA@ DB '<NO_2_O>', 00H	; `string'
CONST	ENDS
;	COMDAT ??_C@_08JHFDOILI@?$DMNO_1_O?$DO?$AA@
CONST	SEGMENT
??_C@_08JHFDOILI@?$DMNO_1_O?$DO?$AA@ DB '<NO_1_O>', 00H	; `string'
; Function compile flags: /Ogsy
; File c:\darkeden\designed_common\project\client\cmessagearray.cpp
CONST	ENDS
;	COMDAT ?Parse@CInfomationBord@@QAEXPBD@Z
_TEXT	SEGMENT
_strTemp$117072 = -36					; size = 12
_strTemp$117068 = -36					; size = 12
_strTemp$117064 = -36					; size = 12
_strTemp$117060 = -36					; size = 12
_strTemp$117056 = -36					; size = 12
_strTemp$117052 = -36					; size = 12
_strTemp$117048 = -36					; size = 12
_strTemp$117044 = -36					; size = 12
_strTemp$117040 = -36					; size = 12
_strTemp$117030 = -36					; size = 12
_strParse$ = -24					; size = 12
__$EHRec$ = -12						; size = 12
_szString$ = 8						; size = 4
$T120068 = 11						; size = 1
?Parse@CInfomationBord@@QAEXPBD@Z PROC NEAR		; CInfomationBord::Parse, COMDAT
; _this$ = ecx

; 66   : {

  00000	b8 00 00 00 00	 mov	 eax, __ehhandler$?Parse@CInfomationBord@@QAEXPBD@Z
  00005	e8 00 00 00 00	 call	 __EH_prolog
  0000a	83 ec 18	 sub	 esp, 24			; 00000018H
  0000d	53		 push	 ebx
  0000e	56		 push	 esi
  0000f	57		 push	 edi

; 67   : 	std::string strParse = szString;

  00010	8d 45 0b	 lea	 eax, DWORD PTR $T120068[ebp]
  00013	50		 push	 eax
  00014	ff 75 08	 push	 DWORD PTR _szString$[ebp]
  00017	8b f1		 mov	 esi, ecx
  00019	8d 4d e8	 lea	 ecx, DWORD PTR _strParse$[ebp]
  0001c	e8 00 00 00 00	 call	 ??0?$basic_string@DV?$char_traits@D@_STL@@V?$allocator@D@2@@_STL@@QAE@PBDABV?$allocator@D@1@@Z ; _STL::basic_string<char,_STL::char_traits<char>,_STL::allocator<char> >::basic_string<char,_STL::char_traits<char>,_STL::allocator<char> >
  00021	33 db		 xor	 ebx, ebx

; 68   : 
; 69   : 	int nPos = strParse.find("<Score>");

  00023	53		 push	 ebx
  00024	68 00 00 00 00	 push	 OFFSET FLAT:??_C@_07BGPHCEH@?$DMScore?$DO?$AA@
  00029	8d 4d e8	 lea	 ecx, DWORD PTR _strParse$[ebp]
  0002c	89 5d fc	 mov	 DWORD PTR __$EHRec$[ebp+8], ebx
  0002f	e8 00 00 00 00	 call	 ?find@?$basic_string@DV?$char_traits@D@_STL@@V?$allocator@D@2@@_STL@@QBEIPBDI@Z ; _STL::basic_string<char,_STL::char_traits<char>,_STL::allocator<char> >::find

; 70   : 	if ( nPos != -1 )

  00034	83 cf ff	 or	 edi, -1
  00037	3b c7		 cmp	 eax, edi
  00039	74 35		 je	 SHORT $L120119

; 71   : 	{
; 72   : 		std::string strTemp = strParse.substr(nPos + 7);

  0003b	57		 push	 edi
  0003c	83 c0 07	 add	 eax, 7
  0003f	50		 push	 eax
  00040	8d 45 dc	 lea	 eax, DWORD PTR _strTemp$117030[ebp]
  00043	50		 push	 eax
  00044	8d 4d e8	 lea	 ecx, DWORD PTR _strParse$[ebp]
  00047	e8 00 00 00 00	 call	 ?substr@?$basic_string@DV?$char_traits@D@_STL@@V?$allocator@D@2@@_STL@@QBE?AV12@II@Z ; _STL::basic_string<char,_STL::char_traits<char>,_STL::allocator<char> >::substr

; 73   : 		m_strShowScore = strTemp;

  0004c	8d 45 dc	 lea	 eax, DWORD PTR _strTemp$117030[ebp]
  0004f	50		 push	 eax
  00050	8b ce		 mov	 ecx, esi
  00052	c6 45 fc 01	 mov	 BYTE PTR __$EHRec$[ebp+8], 1
  00056	e8 00 00 00 00	 call	 ??4?$basic_string@DV?$char_traits@D@_STL@@V?$allocator@D@2@@_STL@@QAEAAV01@ABV01@@Z ; _STL::basic_string<char,_STL::char_traits<char>,_STL::allocator<char> >::operator=

; 74   : 	}

  0005b	8b 45 e4	 mov	 eax, DWORD PTR _strTemp$117030[ebp+8]
  0005e	2b 45 dc	 sub	 eax, DWORD PTR _strTemp$117030[ebp]
  00061	8d 4d e4	 lea	 ecx, DWORD PTR _strTemp$117030[ebp+8]
  00064	50		 push	 eax
  00065	ff 75 dc	 push	 DWORD PTR _strTemp$117030[ebp]
  00068	88 5d fc	 mov	 BYTE PTR __$EHRec$[ebp+8], bl
  0006b	e8 00 00 00 00	 call	 ?deallocate@?$allocator@D@_STL@@QAEXPADI@Z ; _STL::allocator<char>::deallocate
$L120119:

; 75   : 
; 76   : 	nPos = strParse.find("Clean");

  00070	53		 push	 ebx
  00071	68 00 00 00 00	 push	 OFFSET FLAT:??_C@_05CFKAFMNN@Clean?$AA@
  00076	8d 4d e8	 lea	 ecx, DWORD PTR _strParse$[ebp]
  00079	e8 00 00 00 00	 call	 ?find@?$basic_string@DV?$char_traits@D@_STL@@V?$allocator@D@2@@_STL@@QBEIPBDI@Z ; _STL::basic_string<char,_STL::char_traits<char>,_STL::allocator<char> >::find

; 77   : 	if (nPos != -1)

  0007e	3b c7		 cmp	 eax, edi
  00080	74 0c		 je	 SHORT $L117033

; 78   : 		m_strShowScore = "";

  00082	68 00 00 00 00	 push	 OFFSET FLAT:??_C@_00CNPNBAHC@?$AA@
  00087	8b ce		 mov	 ecx, esi
  00089	e8 00 00 00 00	 call	 ??4?$basic_string@DV?$char_traits@D@_STL@@V?$allocator@D@2@@_STL@@QAEAAV01@PBD@Z ; _STL::basic_string<char,_STL::char_traits<char>,_STL::allocator<char> >::operator=
$L117033:

; 79   : 
; 80   : 	nPos = strParse.find("@ShowBord");

  0008e	53		 push	 ebx
  0008f	68 00 00 00 00	 push	 OFFSET FLAT:??_C@_09LGFFKJAA@?$EAShowBord?$AA@
  00094	8d 4d e8	 lea	 ecx, DWORD PTR _strParse$[ebp]
  00097	e8 00 00 00 00	 call	 ?find@?$basic_string@DV?$char_traits@D@_STL@@V?$allocator@D@2@@_STL@@QBEIPBDI@Z ; _STL::basic_string<char,_STL::char_traits<char>,_STL::allocator<char> >::find

; 81   : 	if ( nPos != -1 )

  0009c	3b c7		 cmp	 eax, edi
  0009e	74 07		 je	 SHORT $L117035

; 82   : 		g_bShowBord = true;

  000a0	c6 05 00 00 00
	00 01		 mov	 BYTE PTR ?g_bShowBord@@3_NA, 1 ; g_bShowBord
$L117035:

; 83   : 
; 84   : 	nPos = strParse.find("@HideBord");

  000a7	53		 push	 ebx
  000a8	68 00 00 00 00	 push	 OFFSET FLAT:??_C@_09BIHDICFI@?$EAHideBord?$AA@
  000ad	8d 4d e8	 lea	 ecx, DWORD PTR _strParse$[ebp]
  000b0	e8 00 00 00 00	 call	 ?find@?$basic_string@DV?$char_traits@D@_STL@@V?$allocator@D@2@@_STL@@QBEIPBDI@Z ; _STL::basic_string<char,_STL::char_traits<char>,_STL::allocator<char> >::find

; 85   : 	if ( nPos != -1 )

  000b5	3b c7		 cmp	 eax, edi
  000b7	74 06		 je	 SHORT $L117037

; 86   : 		g_bShowBord = false;

  000b9	88 1d 00 00 00
	00		 mov	 BYTE PTR ?g_bShowBord@@3_NA, bl ; g_bShowBord
$L117037:

; 87   : 
; 88   : 	//--------------------Vampire------------------------------------
; 89   : 	nPos = strParse.find("<NO_3_V>");

  000bf	53		 push	 ebx
  000c0	68 00 00 00 00	 push	 OFFSET FLAT:??_C@_08POGECDCH@?$DMNO_3_V?$DO?$AA@
  000c5	8d 4d e8	 lea	 ecx, DWORD PTR _strParse$[ebp]
  000c8	e8 00 00 00 00	 call	 ?find@?$basic_string@DV?$char_traits@D@_STL@@V?$allocator@D@2@@_STL@@QBEIPBDI@Z ; _STL::basic_string<char,_STL::char_traits<char>,_STL::allocator<char> >::find

; 90   : 	if ( nPos != -1 )

  000cd	3b c7		 cmp	 eax, edi
  000cf	74 36		 je	 SHORT $L120156

; 91   : 	{
; 92   : 		std::string strTemp = strParse.substr(nPos + 8);

  000d1	57		 push	 edi
  000d2	83 c0 08	 add	 eax, 8
  000d5	50		 push	 eax
  000d6	8d 45 dc	 lea	 eax, DWORD PTR _strTemp$117040[ebp]
  000d9	50		 push	 eax
  000da	8d 4d e8	 lea	 ecx, DWORD PTR _strParse$[ebp]
  000dd	e8 00 00 00 00	 call	 ?substr@?$basic_string@DV?$char_traits@D@_STL@@V?$allocator@D@2@@_STL@@QBE?AV12@II@Z ; _STL::basic_string<char,_STL::char_traits<char>,_STL::allocator<char> >::substr

; 93   : 		m_strV[2] = strTemp;

  000e2	8d 45 dc	 lea	 eax, DWORD PTR _strTemp$117040[ebp]
  000e5	50		 push	 eax
  000e6	8d 4e 24	 lea	 ecx, DWORD PTR [esi+36]
  000e9	c6 45 fc 02	 mov	 BYTE PTR __$EHRec$[ebp+8], 2
  000ed	e8 00 00 00 00	 call	 ??4?$basic_string@DV?$char_traits@D@_STL@@V?$allocator@D@2@@_STL@@QAEAAV01@ABV01@@Z ; _STL::basic_string<char,_STL::char_traits<char>,_STL::allocator<char> >::operator=

; 94   : 	}

  000f2	8b 45 e4	 mov	 eax, DWORD PTR _strTemp$117040[ebp+8]
  000f5	2b 45 dc	 sub	 eax, DWORD PTR _strTemp$117040[ebp]
  000f8	8d 4d e4	 lea	 ecx, DWORD PTR _strTemp$117040[ebp+8]
  000fb	50		 push	 eax
  000fc	ff 75 dc	 push	 DWORD PTR _strTemp$117040[ebp]
  000ff	88 5d fc	 mov	 BYTE PTR __$EHRec$[ebp+8], bl
  00102	e8 00 00 00 00	 call	 ?deallocate@?$allocator@D@_STL@@QAEXPADI@Z ; _STL::allocator<char>::deallocate
$L120156:

; 95   : 
; 96   : 	nPos = strParse.find("<NO_2_V>");

  00107	53		 push	 ebx
  00108	68 00 00 00 00	 push	 OFFSET FLAT:??_C@_08MDAEAKJH@?$DMNO_2_V?$DO?$AA@
  0010d	8d 4d e8	 lea	 ecx, DWORD PTR _strParse$[ebp]
  00110	e8 00 00 00 00	 call	 ?find@?$basic_string@DV?$char_traits@D@_STL@@V?$allocator@D@2@@_STL@@QBEIPBDI@Z ; _STL::basic_string<char,_STL::char_traits<char>,_STL::allocator<char> >::find

; 97   : 	if ( nPos != -1 )

  00115	3b c7		 cmp	 eax, edi
  00117	74 36		 je	 SHORT $L120193

; 98   : 	{
; 99   : 		std::string strTemp = strParse.substr(nPos + 8);

  00119	57		 push	 edi
  0011a	83 c0 08	 add	 eax, 8
  0011d	50		 push	 eax
  0011e	8d 45 dc	 lea	 eax, DWORD PTR _strTemp$117044[ebp]
  00121	50		 push	 eax
  00122	8d 4d e8	 lea	 ecx, DWORD PTR _strParse$[ebp]
  00125	e8 00 00 00 00	 call	 ?substr@?$basic_string@DV?$char_traits@D@_STL@@V?$allocator@D@2@@_STL@@QBE?AV12@II@Z ; _STL::basic_string<char,_STL::char_traits<char>,_STL::allocator<char> >::substr

; 100  : 		m_strV[1] = strTemp;

  0012a	8d 45 dc	 lea	 eax, DWORD PTR _strTemp$117044[ebp]
  0012d	50		 push	 eax
  0012e	8d 4e 18	 lea	 ecx, DWORD PTR [esi+24]
  00131	c6 45 fc 03	 mov	 BYTE PTR __$EHRec$[ebp+8], 3
  00135	e8 00 00 00 00	 call	 ??4?$basic_string@DV?$char_traits@D@_STL@@V?$allocator@D@2@@_STL@@QAEAAV01@ABV01@@Z ; _STL::basic_string<char,_STL::char_traits<char>,_STL::allocator<char> >::operator=

; 101  : 	}

  0013a	8b 45 e4	 mov	 eax, DWORD PTR _strTemp$117044[ebp+8]
  0013d	2b 45 dc	 sub	 eax, DWORD PTR _strTemp$117044[ebp]
  00140	8d 4d e4	 lea	 ecx, DWORD PTR _strTemp$117044[ebp+8]
  00143	50		 push	 eax
  00144	ff 75 dc	 push	 DWORD PTR _strTemp$117044[ebp]
  00147	88 5d fc	 mov	 BYTE PTR __$EHRec$[ebp+8], bl
  0014a	e8 00 00 00 00	 call	 ?deallocate@?$allocator@D@_STL@@QAEXPADI@Z ; _STL::allocator<char>::deallocate
$L120193:

; 102  : 
; 103  : 	nPos = strParse.find("<NO_1_V>");

  0014f	53		 push	 ebx
  00150	68 00 00 00 00	 push	 OFFSET FLAT:??_C@_08IEKEHAEH@?$DMNO_1_V?$DO?$AA@
  00155	8d 4d e8	 lea	 ecx, DWORD PTR _strParse$[ebp]
  00158	e8 00 00 00 00	 call	 ?find@?$basic_string@DV?$char_traits@D@_STL@@V?$allocator@D@2@@_STL@@QBEIPBDI@Z ; _STL::basic_string<char,_STL::char_traits<char>,_STL::allocator<char> >::find

; 104  : 	if ( nPos != -1 )

  0015d	3b c7		 cmp	 eax, edi
  0015f	74 36		 je	 SHORT $L120230

; 105  : 	{
; 106  : 		std::string strTemp = strParse.substr(nPos + 8);

  00161	57		 push	 edi
  00162	83 c0 08	 add	 eax, 8
  00165	50		 push	 eax
  00166	8d 45 dc	 lea	 eax, DWORD PTR _strTemp$117048[ebp]
  00169	50		 push	 eax
  0016a	8d 4d e8	 lea	 ecx, DWORD PTR _strParse$[ebp]
  0016d	e8 00 00 00 00	 call	 ?substr@?$basic_string@DV?$char_traits@D@_STL@@V?$allocator@D@2@@_STL@@QBE?AV12@II@Z ; _STL::basic_string<char,_STL::char_traits<char>,_STL::allocator<char> >::substr

; 107  : 		m_strV[0] = strTemp;

  00172	8d 45 dc	 lea	 eax, DWORD PTR _strTemp$117048[ebp]
  00175	50		 push	 eax
  00176	8d 4e 0c	 lea	 ecx, DWORD PTR [esi+12]
  00179	c6 45 fc 04	 mov	 BYTE PTR __$EHRec$[ebp+8], 4
  0017d	e8 00 00 00 00	 call	 ??4?$basic_string@DV?$char_traits@D@_STL@@V?$allocator@D@2@@_STL@@QAEAAV01@ABV01@@Z ; _STL::basic_string<char,_STL::char_traits<char>,_STL::allocator<char> >::operator=

; 108  : 	}

  00182	8b 45 e4	 mov	 eax, DWORD PTR _strTemp$117048[ebp+8]
  00185	2b 45 dc	 sub	 eax, DWORD PTR _strTemp$117048[ebp]
  00188	8d 4d e4	 lea	 ecx, DWORD PTR _strTemp$117048[ebp+8]
  0018b	50		 push	 eax
  0018c	ff 75 dc	 push	 DWORD PTR _strTemp$117048[ebp]
  0018f	88 5d fc	 mov	 BYTE PTR __$EHRec$[ebp+8], bl
  00192	e8 00 00 00 00	 call	 ?deallocate@?$allocator@D@_STL@@QAEXPADI@Z ; _STL::allocator<char>::deallocate
$L120230:

; 109  : 
; 110  : 	//--------------------------Slayer---------------------------------------
; 111  : 
; 112  : 	nPos = strParse.find("<NO_3_S>");

  00197	53		 push	 ebx
  00198	68 00 00 00 00	 push	 OFFSET FLAT:??_C@_08PIKPOBMM@?$DMNO_3_S?$DO?$AA@
  0019d	8d 4d e8	 lea	 ecx, DWORD PTR _strParse$[ebp]
  001a0	e8 00 00 00 00	 call	 ?find@?$basic_string@DV?$char_traits@D@_STL@@V?$allocator@D@2@@_STL@@QBEIPBDI@Z ; _STL::basic_string<char,_STL::char_traits<char>,_STL::allocator<char> >::find

; 113  : 	if ( nPos != -1 )

  001a5	3b c7		 cmp	 eax, edi
  001a7	74 36		 je	 SHORT $L120267

; 114  : 	{
; 115  : 		std::string strTemp = strParse.substr(nPos + 8);

  001a9	57		 push	 edi
  001aa	83 c0 08	 add	 eax, 8
  001ad	50		 push	 eax
  001ae	8d 45 dc	 lea	 eax, DWORD PTR _strTemp$117052[ebp]
  001b1	50		 push	 eax
  001b2	8d 4d e8	 lea	 ecx, DWORD PTR _strParse$[ebp]
  001b5	e8 00 00 00 00	 call	 ?substr@?$basic_string@DV?$char_traits@D@_STL@@V?$allocator@D@2@@_STL@@QBE?AV12@II@Z ; _STL::basic_string<char,_STL::char_traits<char>,_STL::allocator<char> >::substr

; 116  : 		m_strS[2] = strTemp;

  001ba	8d 45 dc	 lea	 eax, DWORD PTR _strTemp$117052[ebp]
  001bd	50		 push	 eax
  001be	8d 4e 48	 lea	 ecx, DWORD PTR [esi+72]
  001c1	c6 45 fc 05	 mov	 BYTE PTR __$EHRec$[ebp+8], 5
  001c5	e8 00 00 00 00	 call	 ??4?$basic_string@DV?$char_traits@D@_STL@@V?$allocator@D@2@@_STL@@QAEAAV01@ABV01@@Z ; _STL::basic_string<char,_STL::char_traits<char>,_STL::allocator<char> >::operator=

; 117  : 	}

  001ca	8b 45 e4	 mov	 eax, DWORD PTR _strTemp$117052[ebp+8]
  001cd	2b 45 dc	 sub	 eax, DWORD PTR _strTemp$117052[ebp]
  001d0	8d 4d e4	 lea	 ecx, DWORD PTR _strTemp$117052[ebp+8]
  001d3	50		 push	 eax
  001d4	ff 75 dc	 push	 DWORD PTR _strTemp$117052[ebp]
  001d7	88 5d fc	 mov	 BYTE PTR __$EHRec$[ebp+8], bl
  001da	e8 00 00 00 00	 call	 ?deallocate@?$allocator@D@_STL@@QAEXPADI@Z ; _STL::allocator<char>::deallocate
$L120267:

; 118  : 
; 119  : 	nPos = strParse.find("<NO_2_S>");

  001df	53		 push	 ebx
  001e0	68 00 00 00 00	 push	 OFFSET FLAT:??_C@_08MFMPMIHM@?$DMNO_2_S?$DO?$AA@
  001e5	8d 4d e8	 lea	 ecx, DWORD PTR _strParse$[ebp]
  001e8	e8 00 00 00 00	 call	 ?find@?$basic_string@DV?$char_traits@D@_STL@@V?$allocator@D@2@@_STL@@QBEIPBDI@Z ; _STL::basic_string<char,_STL::char_traits<char>,_STL::allocator<char> >::find

; 120  : 	if ( nPos != -1 )

  001ed	3b c7		 cmp	 eax, edi
  001ef	74 36		 je	 SHORT $L120304

; 121  : 	{
; 122  : 		std::string strTemp = strParse.substr(nPos + 8);

  001f1	57		 push	 edi
  001f2	83 c0 08	 add	 eax, 8
  001f5	50		 push	 eax
  001f6	8d 45 dc	 lea	 eax, DWORD PTR _strTemp$117056[ebp]
  001f9	50		 push	 eax
  001fa	8d 4d e8	 lea	 ecx, DWORD PTR _strParse$[ebp]
  001fd	e8 00 00 00 00	 call	 ?substr@?$basic_string@DV?$char_traits@D@_STL@@V?$allocator@D@2@@_STL@@QBE?AV12@II@Z ; _STL::basic_string<char,_STL::char_traits<char>,_STL::allocator<char> >::substr

; 123  : 		m_strS[1] = strTemp;

  00202	8d 45 dc	 lea	 eax, DWORD PTR _strTemp$117056[ebp]
  00205	50		 push	 eax
  00206	8d 4e 3c	 lea	 ecx, DWORD PTR [esi+60]
  00209	c6 45 fc 06	 mov	 BYTE PTR __$EHRec$[ebp+8], 6
  0020d	e8 00 00 00 00	 call	 ??4?$basic_string@DV?$char_traits@D@_STL@@V?$allocator@D@2@@_STL@@QAEAAV01@ABV01@@Z ; _STL::basic_string<char,_STL::char_traits<char>,_STL::allocator<char> >::operator=

; 124  : 	}

  00212	8b 45 e4	 mov	 eax, DWORD PTR _strTemp$117056[ebp+8]
  00215	2b 45 dc	 sub	 eax, DWORD PTR _strTemp$117056[ebp]
  00218	8d 4d e4	 lea	 ecx, DWORD PTR _strTemp$117056[ebp+8]
  0021b	50		 push	 eax
  0021c	ff 75 dc	 push	 DWORD PTR _strTemp$117056[ebp]
  0021f	88 5d fc	 mov	 BYTE PTR __$EHRec$[ebp+8], bl
  00222	e8 00 00 00 00	 call	 ?deallocate@?$allocator@D@_STL@@QAEXPADI@Z ; _STL::allocator<char>::deallocate
$L120304:

; 125  : 
; 126  : 	nPos = strParse.find("<NO_1_S>");

  00227	53		 push	 ebx
  00228	68 00 00 00 00	 push	 OFFSET FLAT:??_C@_08ICGPLCKM@?$DMNO_1_S?$DO?$AA@
  0022d	8d 4d e8	 lea	 ecx, DWORD PTR _strParse$[ebp]
  00230	e8 00 00 00 00	 call	 ?find@?$basic_string@DV?$char_traits@D@_STL@@V?$allocator@D@2@@_STL@@QBEIPBDI@Z ; _STL::basic_string<char,_STL::char_traits<char>,_STL::allocator<char> >::find

; 127  : 	if ( nPos != -1 )

  00235	3b c7		 cmp	 eax, edi
  00237	74 36		 je	 SHORT $L120341

; 128  : 	{
; 129  : 		std::string strTemp = strParse.substr(nPos + 8);

  00239	57		 push	 edi
  0023a	83 c0 08	 add	 eax, 8
  0023d	50		 push	 eax
  0023e	8d 45 dc	 lea	 eax, DWORD PTR _strTemp$117060[ebp]
  00241	50		 push	 eax
  00242	8d 4d e8	 lea	 ecx, DWORD PTR _strParse$[ebp]
  00245	e8 00 00 00 00	 call	 ?substr@?$basic_string@DV?$char_traits@D@_STL@@V?$allocator@D@2@@_STL@@QBE?AV12@II@Z ; _STL::basic_string<char,_STL::char_traits<char>,_STL::allocator<char> >::substr

; 130  : 		m_strS[0] = strTemp;

  0024a	8d 45 dc	 lea	 eax, DWORD PTR _strTemp$117060[ebp]
  0024d	50		 push	 eax
  0024e	8d 4e 30	 lea	 ecx, DWORD PTR [esi+48]
  00251	c6 45 fc 07	 mov	 BYTE PTR __$EHRec$[ebp+8], 7
  00255	e8 00 00 00 00	 call	 ??4?$basic_string@DV?$char_traits@D@_STL@@V?$allocator@D@2@@_STL@@QAEAAV01@ABV01@@Z ; _STL::basic_string<char,_STL::char_traits<char>,_STL::allocator<char> >::operator=

; 131  : 	}

  0025a	8b 45 e4	 mov	 eax, DWORD PTR _strTemp$117060[ebp+8]
  0025d	2b 45 dc	 sub	 eax, DWORD PTR _strTemp$117060[ebp]
  00260	8d 4d e4	 lea	 ecx, DWORD PTR _strTemp$117060[ebp+8]
  00263	50		 push	 eax
  00264	ff 75 dc	 push	 DWORD PTR _strTemp$117060[ebp]
  00267	88 5d fc	 mov	 BYTE PTR __$EHRec$[ebp+8], bl
  0026a	e8 00 00 00 00	 call	 ?deallocate@?$allocator@D@_STL@@QAEXPADI@Z ; _STL::allocator<char>::deallocate
$L120341:

; 132  : 
; 133  : 
; 134  : 	//--------------------------Ouster----------------------------------------
; 135  : 
; 136  : 	nPos = strParse.find("<NO_3_O>");

  0026f	53		 push	 ebx
  00270	68 00 00 00 00	 push	 OFFSET FLAT:??_C@_08ONJDLLNI@?$DMNO_3_O?$DO?$AA@
  00275	8d 4d e8	 lea	 ecx, DWORD PTR _strParse$[ebp]
  00278	e8 00 00 00 00	 call	 ?find@?$basic_string@DV?$char_traits@D@_STL@@V?$allocator@D@2@@_STL@@QBEIPBDI@Z ; _STL::basic_string<char,_STL::char_traits<char>,_STL::allocator<char> >::find

; 137  : 	if ( nPos != -1 )

  0027d	3b c7		 cmp	 eax, edi
  0027f	74 36		 je	 SHORT $L120378

; 138  : 	{
; 139  : 		std::string strTemp = strParse.substr(nPos + 8);

  00281	57		 push	 edi
  00282	83 c0 08	 add	 eax, 8
  00285	50		 push	 eax
  00286	8d 45 dc	 lea	 eax, DWORD PTR _strTemp$117064[ebp]
  00289	50		 push	 eax
  0028a	8d 4d e8	 lea	 ecx, DWORD PTR _strParse$[ebp]
  0028d	e8 00 00 00 00	 call	 ?substr@?$basic_string@DV?$char_traits@D@_STL@@V?$allocator@D@2@@_STL@@QBE?AV12@II@Z ; _STL::basic_string<char,_STL::char_traits<char>,_STL::allocator<char> >::substr

; 140  : 		m_strO[2] = strTemp;

  00292	8d 45 dc	 lea	 eax, DWORD PTR _strTemp$117064[ebp]
  00295	50		 push	 eax
  00296	8d 4e 6c	 lea	 ecx, DWORD PTR [esi+108]
  00299	c6 45 fc 08	 mov	 BYTE PTR __$EHRec$[ebp+8], 8
  0029d	e8 00 00 00 00	 call	 ??4?$basic_string@DV?$char_traits@D@_STL@@V?$allocator@D@2@@_STL@@QAEAAV01@ABV01@@Z ; _STL::basic_string<char,_STL::char_traits<char>,_STL::allocator<char> >::operator=

; 141  : 	}

  002a2	8b 45 e4	 mov	 eax, DWORD PTR _strTemp$117064[ebp+8]
  002a5	2b 45 dc	 sub	 eax, DWORD PTR _strTemp$117064[ebp]
  002a8	8d 4d e4	 lea	 ecx, DWORD PTR _strTemp$117064[ebp+8]
  002ab	50		 push	 eax
  002ac	ff 75 dc	 push	 DWORD PTR _strTemp$117064[ebp]
  002af	88 5d fc	 mov	 BYTE PTR __$EHRec$[ebp+8], bl
  002b2	e8 00 00 00 00	 call	 ?deallocate@?$allocator@D@_STL@@QAEXPADI@Z ; _STL::allocator<char>::deallocate
$L120378:

; 142  : 
; 143  : 	nPos = strParse.find("<NO_2_O>");

  002b7	53		 push	 ebx
  002b8	68 00 00 00 00	 push	 OFFSET FLAT:??_C@_08NAPDJCGI@?$DMNO_2_O?$DO?$AA@
  002bd	8d 4d e8	 lea	 ecx, DWORD PTR _strParse$[ebp]
  002c0	e8 00 00 00 00	 call	 ?find@?$basic_string@DV?$char_traits@D@_STL@@V?$allocator@D@2@@_STL@@QBEIPBDI@Z ; _STL::basic_string<char,_STL::char_traits<char>,_STL::allocator<char> >::find

; 144  : 	if ( nPos != -1 )

  002c5	3b c7		 cmp	 eax, edi
  002c7	74 36		 je	 SHORT $L120415

; 145  : 	{
; 146  : 		std::string strTemp = strParse.substr(nPos + 8);

  002c9	57		 push	 edi
  002ca	83 c0 08	 add	 eax, 8
  002cd	50		 push	 eax
  002ce	8d 45 dc	 lea	 eax, DWORD PTR _strTemp$117068[ebp]
  002d1	50		 push	 eax
  002d2	8d 4d e8	 lea	 ecx, DWORD PTR _strParse$[ebp]
  002d5	e8 00 00 00 00	 call	 ?substr@?$basic_string@DV?$char_traits@D@_STL@@V?$allocator@D@2@@_STL@@QBE?AV12@II@Z ; _STL::basic_string<char,_STL::char_traits<char>,_STL::allocator<char> >::substr

; 147  : 		m_strO[1] = strTemp;

  002da	8d 45 dc	 lea	 eax, DWORD PTR _strTemp$117068[ebp]
  002dd	50		 push	 eax
  002de	8d 4e 60	 lea	 ecx, DWORD PTR [esi+96]
  002e1	c6 45 fc 09	 mov	 BYTE PTR __$EHRec$[ebp+8], 9
  002e5	e8 00 00 00 00	 call	 ??4?$basic_string@DV?$char_traits@D@_STL@@V?$allocator@D@2@@_STL@@QAEAAV01@ABV01@@Z ; _STL::basic_string<char,_STL::char_traits<char>,_STL::allocator<char> >::operator=

; 148  : 	}

  002ea	8b 45 e4	 mov	 eax, DWORD PTR _strTemp$117068[ebp+8]
  002ed	2b 45 dc	 sub	 eax, DWORD PTR _strTemp$117068[ebp]
  002f0	8d 4d e4	 lea	 ecx, DWORD PTR _strTemp$117068[ebp+8]
  002f3	50		 push	 eax
  002f4	ff 75 dc	 push	 DWORD PTR _strTemp$117068[ebp]
  002f7	88 5d fc	 mov	 BYTE PTR __$EHRec$[ebp+8], bl
  002fa	e8 00 00 00 00	 call	 ?deallocate@?$allocator@D@_STL@@QAEXPADI@Z ; _STL::allocator<char>::deallocate
$L120415:

; 149  : 
; 150  : 	nPos = strParse.find("<NO_1_O>");

  002ff	53		 push	 ebx
  00300	68 00 00 00 00	 push	 OFFSET FLAT:??_C@_08JHFDOILI@?$DMNO_1_O?$DO?$AA@
  00305	8d 4d e8	 lea	 ecx, DWORD PTR _strParse$[ebp]
  00308	e8 00 00 00 00	 call	 ?find@?$basic_string@DV?$char_traits@D@_STL@@V?$allocator@D@2@@_STL@@QBEIPBDI@Z ; _STL::basic_string<char,_STL::char_traits<char>,_STL::allocator<char> >::find

; 151  : 	if ( nPos != -1 )

  0030d	3b c7		 cmp	 eax, edi
  0030f	74 36		 je	 SHORT $L120452

; 152  : 	{
; 153  : 		std::string strTemp = strParse.substr(nPos + 8);

  00311	57		 push	 edi
  00312	83 c0 08	 add	 eax, 8
  00315	50		 push	 eax
  00316	8d 45 dc	 lea	 eax, DWORD PTR _strTemp$117072[ebp]
  00319	50		 push	 eax
  0031a	8d 4d e8	 lea	 ecx, DWORD PTR _strParse$[ebp]
  0031d	e8 00 00 00 00	 call	 ?substr@?$basic_string@DV?$char_traits@D@_STL@@V?$allocator@D@2@@_STL@@QBE?AV12@II@Z ; _STL::basic_string<char,_STL::char_traits<char>,_STL::allocator<char> >::substr

; 154  : 		m_strO[0] = strTemp;

  00322	8d 45 dc	 lea	 eax, DWORD PTR _strTemp$117072[ebp]
  00325	50		 push	 eax
  00326	8d 4e 54	 lea	 ecx, DWORD PTR [esi+84]
  00329	c6 45 fc 0a	 mov	 BYTE PTR __$EHRec$[ebp+8], 10 ; 0000000aH
  0032d	e8 00 00 00 00	 call	 ??4?$basic_string@DV?$char_traits@D@_STL@@V?$allocator@D@2@@_STL@@QAEAAV01@ABV01@@Z ; _STL::basic_string<char,_STL::char_traits<char>,_STL::allocator<char> >::operator=

; 155  : 	}

  00332	8b 45 e4	 mov	 eax, DWORD PTR _strTemp$117072[ebp+8]
  00335	2b 45 dc	 sub	 eax, DWORD PTR _strTemp$117072[ebp]
  00338	8d 4d e4	 lea	 ecx, DWORD PTR _strTemp$117072[ebp+8]
  0033b	50		 push	 eax
  0033c	ff 75 dc	 push	 DWORD PTR _strTemp$117072[ebp]
  0033f	88 5d fc	 mov	 BYTE PTR __$EHRec$[ebp+8], bl
  00342	e8 00 00 00 00	 call	 ?deallocate@?$allocator@D@_STL@@QAEXPADI@Z ; _STL::allocator<char>::deallocate
$L120452:

; 156  : 
; 157  : }

  00347	8b 45 f0	 mov	 eax, DWORD PTR _strParse$[ebp+8]
  0034a	2b 45 e8	 sub	 eax, DWORD PTR _strParse$[ebp]
  0034d	8d 4d f0	 lea	 ecx, DWORD PTR _strParse$[ebp+8]
  00350	50		 push	 eax
  00351	ff 75 e8	 push	 DWORD PTR _strParse$[ebp]
  00354	89 7d fc	 mov	 DWORD PTR __$EHRec$[ebp+8], edi
  00357	e8 00 00 00 00	 call	 ?deallocate@?$allocator@D@_STL@@QAEXPADI@Z ; _STL::allocator<char>::deallocate
  0035c	8b 4d f4	 mov	 ecx, DWORD PTR __$EHRec$[ebp]
  0035f	5f		 pop	 edi
  00360	5e		 pop	 esi
  00361	5b		 pop	 ebx
  00362	64 89 0d 00 00
	00 00		 mov	 DWORD PTR fs:__except_list, ecx
  00369	c9		 leave
  0036a	c2 04 00	 ret	 4
_TEXT	ENDS
;	COMDAT text$x
text$x	SEGMENT
$L120069:
  00000	8d 4d e8	 lea	 ecx, DWORD PTR _strParse$[ebp]
  00003	e9 00 00 00 00	 jmp	 ??1?$basic_string@DV?$char_traits@D@_STL@@V?$allocator@D@2@@_STL@@QAE@XZ ; _STL::basic_string<char,_STL::char_traits<char>,_STL::allocator<char> >::~basic_string<char,_STL::char_traits<char>,_STL::allocator<char> >
$L120070:
  00008	8d 4d dc	 lea	 ecx, DWORD PTR _strTemp$117030[ebp]
  0000b	e9 00 00 00 00	 jmp	 ??1?$basic_string@DV?$char_traits@D@_STL@@V?$allocator@D@2@@_STL@@QAE@XZ ; _STL::basic_string<char,_STL::char_traits<char>,_STL::allocator<char> >::~basic_string<char,_STL::char_traits<char>,_STL::allocator<char> >
$L120071:
  00010	8d 4d dc	 lea	 ecx, DWORD PTR _strTemp$117040[ebp]
  00013	e9 00 00 00 00	 jmp	 ??1?$basic_string@DV?$char_traits@D@_STL@@V?$allocator@D@2@@_STL@@QAE@XZ ; _STL::basic_string<char,_STL::char_traits<char>,_STL::allocator<char> >::~basic_string<char,_STL::char_traits<char>,_STL::allocator<char> >
$L120072:
  00018	8d 4d dc	 lea	 ecx, DWORD PTR _strTemp$117044[ebp]
  0001b	e9 00 00 00 00	 jmp	 ??1?$basic_string@DV?$char_traits@D@_STL@@V?$allocator@D@2@@_STL@@QAE@XZ ; _STL::basic_string<char,_STL::char_traits<char>,_STL::allocator<char> >::~basic_string<char,_STL::char_traits<char>,_STL::allocator<char> >
$L120073:
  00020	8d 4d dc	 lea	 ecx, DWORD PTR _strTemp$117048[ebp]
  00023	e9 00 00 00 00	 jmp	 ??1?$basic_string@DV?$char_traits@D@_STL@@V?$allocator@D@2@@_STL@@QAE@XZ ; _STL::basic_string<char,_STL::char_traits<char>,_STL::allocator<char> >::~basic_string<char,_STL::char_traits<char>,_STL::allocator<char> >
$L120074:
  00028	8d 4d dc	 lea	 ecx, DWORD PTR _strTemp$117052[ebp]
  0002b	e9 00 00 00 00	 jmp	 ??1?$basic_string@DV?$char_traits@D@_STL@@V?$allocator@D@2@@_STL@@QAE@XZ ; _STL::basic_string<char,_STL::char_traits<char>,_STL::allocator<char> >::~basic_string<char,_STL::char_traits<char>,_STL::allocator<char> >
$L120075:
  00030	8d 4d dc	 lea	 ecx, DWORD PTR _strTemp$117056[ebp]
  00033	e9 00 00 00 00	 jmp	 ??1?$basic_string@DV?$char_traits@D@_STL@@V?$allocator@D@2@@_STL@@QAE@XZ ; _STL::basic_string<char,_STL::char_traits<char>,_STL::allocator<char> >::~basic_string<char,_STL::char_traits<char>,_STL::allocator<char> >
$L120076:
  00038	8d 4d dc	 lea	 ecx, DWORD PTR _strTemp$117060[ebp]
  0003b	e9 00 00 00 00	 jmp	 ??1?$basic_string@DV?$char_traits@D@_STL@@V?$allocator@D@2@@_STL@@QAE@XZ ; _STL::basic_string<char,_STL::char_traits<char>,_STL::allocator<char> >::~basic_string<char,_STL::char_traits<char>,_STL::allocator<char> >
$L120077:
  00040	8d 4d dc	 lea	 ecx, DWORD PTR _strTemp$117064[ebp]
  00043	e9 00 00 00 00	 jmp	 ??1?$basic_string@DV?$char_traits@D@_STL@@V?$allocator@D@2@@_STL@@QAE@XZ ; _STL::basic_string<char,_STL::char_traits<char>,_STL::allocator<char> >::~basic_string<char,_STL::char_traits<char>,_STL::allocator<char> >
$L120078:
  00048	8d 4d dc	 lea	 ecx, DWORD PTR _strTemp$117068[ebp]
  0004b	e9 00 00 00 00	 jmp	 ??1?$basic_string@DV?$char_traits@D@_STL@@V?$allocator@D@2@@_STL@@QAE@XZ ; _STL::basic_string<char,_STL::char_traits<char>,_STL::allocator<char> >::~basic_string<char,_STL::char_traits<char>,_STL::allocator<char> >
$L120079:
  00050	8d 4d dc	 lea	 ecx, DWORD PTR _strTemp$117072[ebp]
  00053	e9 00 00 00 00	 jmp	 ??1?$basic_string@DV?$char_traits@D@_STL@@V?$allocator@D@2@@_STL@@QAE@XZ ; _STL::basic_string<char,_STL::char_traits<char>,_STL::allocator<char> >::~basic_string<char,_STL::char_traits<char>,_STL::allocator<char> >
__ehhandler$?Parse@CInfomationBord@@QAEXPBD@Z:
  00058	b8 00 00 00 00	 mov	 eax, OFFSET FLAT:$T120494
  0005d	e9 00 00 00 00	 jmp	 ___CxxFrameHandler
text$x	ENDS
?Parse@CInfomationBord@@QAEXPBD@Z ENDP			; CInfomationBord::Parse
END
