; Listing generated by Microsoft (R) Optimizing Compiler Version 13.10.3077 

	TITLE	\darkeden\Designed_Common\Project\Client\CNormalSpriteTexturePartManager.cpp
	.386P
include listing.inc
if @Version gt 510
.model FLAT
else
_TEXT	SEGMENT PARA USE32 PUBLIC 'CODE'
_TEXT	ENDS
_DATA	SEGMENT DWORD USE32 PUBLIC 'DATA'
_DATA	ENDS
CONST	SEGMENT DWORD USE32 PUBLIC 'CONST'
CONST	ENDS
_BSS	SEGMENT DWORD USE32 PUBLIC 'BSS'
_BSS	ENDS
$$SYMBOLS	SEGMENT BYTE USE32 'DEBSYM'
$$SYMBOLS	ENDS
$$TYPES	SEGMENT BYTE USE32 'DEBTYP'
$$TYPES	ENDS
_TLS	SEGMENT DWORD USE32 PUBLIC 'TLS'
_TLS	ENDS
;	COMDAT ??_C@_0BN@ODLNCKCA@Data?2?2Info?2?2ClientConfig?4inf?$AA@
CONST	SEGMENT DWORD USE32 PUBLIC 'CONST'
CONST	ENDS
;	COMDAT ??_C@_0BM@DFPLPGPC@Data?2?2Info?2?2GuildMapper?4inf?$AA@
CONST	SEGMENT DWORD USE32 PUBLIC 'CONST'
CONST	ENDS
;	COMDAT ??_C@_0BN@LHODHNBK@Data?2?2Info?2?2GuildVersion?4inf?$AA@
CONST	SEGMENT DWORD USE32 PUBLIC 'CONST'
CONST	ENDS
;	COMDAT ??_C@_0BH@DDPLNCOL@Data?2?2Info?2?2Player?4inf?$AA@
CONST	SEGMENT DWORD USE32 PUBLIC 'CONST'
CONST	ENDS
;	COMDAT ??_C@_0BL@ILLNAPHB@Data?2?2Info?2?2Resolution?4inf?$AA@
CONST	SEGMENT DWORD USE32 PUBLIC 'CONST'
CONST	ENDS
;	COMDAT ??_C@_0CA@HEIGFDLG@Data?2?2Info?2?2SelectedChannel?4inf?$AA@
CONST	SEGMENT DWORD USE32 PUBLIC 'CONST'
CONST	ENDS
;	COMDAT ??_C@_0O@JKENFCBN@MinTrace?52003?$AA@
CONST	SEGMENT DWORD USE32 PUBLIC 'CONST'
CONST	ENDS
;	COMDAT ??_C@_0BE@MNEJIGLM@__MinTrace?5Window__?$AA@
CONST	SEGMENT DWORD USE32 PUBLIC 'CONST'
CONST	ENDS
;	COMDAT ??_C@_06KLPNNMEP@?$CF8d?0?$CFs?$AA@
CONST	SEGMENT DWORD USE32 PUBLIC 'CONST'
CONST	ENDS
;	COMDAT ??_C@_03KLNPHJAI@?$CFsi?$AA@
CONST	SEGMENT DWORD USE32 PUBLIC 'CONST'
CONST	ENDS
;	COMDAT ??_C@_0BJ@MIBMMHPK@real?5size?5?3?5?$CFd?5size?5?3?5?$CFd?$AA@
CONST	SEGMENT DWORD USE32 PUBLIC 'CONST'
CONST	ENDS
;	COMDAT ??_C@_09DGBJGHJB@CTypePack?$AA@
CONST	SEGMENT DWORD USE32 PUBLIC 'CONST'
CONST	ENDS
;	COMDAT ??_C@_0M@KJGOGBJN@?2header?4inf?$AA@
CONST	SEGMENT DWORD USE32 PUBLIC 'CONST'
CONST	ENDS
;	COMDAT ??_C@_0L@GKEOOOME@CTypePack2?$AA@
CONST	SEGMENT DWORD USE32 PUBLIC 'CONST'
CONST	ENDS
;	COMDAT ??_C@_09EIKOIO@?$CFs?2?$CF05d?$CFs?$AA@
CONST	SEGMENT DWORD USE32 PUBLIC 'CONST'
CONST	ENDS
;	COMDAT ??_C@_0N@GOPDCEEB@basic_string?$AA@
CONST	SEGMENT DWORD USE32 PUBLIC 'CONST'
CONST	ENDS
rdata$r	SEGMENT DWORD USE32 PUBLIC 'CONST'
rdata$r	ENDS
text$yc	SEGMENT PARA USE32 PUBLIC 'CODE'
text$yc	ENDS
CRT$XCA	SEGMENT DWORD USE32 PUBLIC 'DATA'
CRT$XCA	ENDS
CRT$XCU	SEGMENT DWORD USE32 PUBLIC 'DATA'
CRT$XCU	ENDS
CRT$XCL	SEGMENT DWORD USE32 PUBLIC 'DATA'
CRT$XCL	ENDS
CRT$XCC	SEGMENT DWORD USE32 PUBLIC 'DATA'
CRT$XCC	ENDS
CRT$XCZ	SEGMENT DWORD USE32 PUBLIC 'DATA'
CRT$XCZ	ENDS
text$yd	SEGMENT PARA USE32 PUBLIC 'CODE'
text$yd	ENDS
;	COMDAT ??0_D3DVECTOR@@QAE@XZ
_TEXT	SEGMENT PARA USE32 PUBLIC 'CODE'
_TEXT	ENDS
;	COMDAT ??0_D3DMATRIX@@QAE@XZ
_TEXT	SEGMENT PARA USE32 PUBLIC 'CODE'
_TEXT	ENDS
;	COMDAT ??R_D3DMATRIX@@QAEAAMHH@Z
_TEXT	SEGMENT PARA USE32 PUBLIC 'CODE'
_TEXT	ENDS
;	COMDAT ??R_D3DMATRIX@@QBEABMHH@Z
_TEXT	SEGMENT PARA USE32 PUBLIC 'CODE'
_TEXT	ENDS
;	COMDAT _acosl
_TEXT	SEGMENT PARA USE32 PUBLIC 'CODE'
_TEXT	ENDS
;	COMDAT _asinl
_TEXT	SEGMENT PARA USE32 PUBLIC 'CODE'
_TEXT	ENDS
;	COMDAT _atanl
_TEXT	SEGMENT PARA USE32 PUBLIC 'CODE'
_TEXT	ENDS
;	COMDAT _atan2l
_TEXT	SEGMENT PARA USE32 PUBLIC 'CODE'
_TEXT	ENDS
;	COMDAT _ceill
_TEXT	SEGMENT PARA USE32 PUBLIC 'CODE'
_TEXT	ENDS
;	COMDAT _cosl
_TEXT	SEGMENT PARA USE32 PUBLIC 'CODE'
_TEXT	ENDS
;	COMDAT _coshl
_TEXT	SEGMENT PARA USE32 PUBLIC 'CODE'
_TEXT	ENDS
;	COMDAT _expl
_TEXT	SEGMENT PARA USE32 PUBLIC 'CODE'
_TEXT	ENDS
;	COMDAT _fabsl
_TEXT	SEGMENT PARA USE32 PUBLIC 'CODE'
_TEXT	ENDS
;	COMDAT _floorl
_TEXT	SEGMENT PARA USE32 PUBLIC 'CODE'
_TEXT	ENDS
;	COMDAT _fmodl
_TEXT	SEGMENT PARA USE32 PUBLIC 'CODE'
_TEXT	ENDS
;	COMDAT _frexpl
_TEXT	SEGMENT PARA USE32 PUBLIC 'CODE'
_TEXT	ENDS
;	COMDAT _ldexpl
_TEXT	SEGMENT PARA USE32 PUBLIC 'CODE'
_TEXT	ENDS
;	COMDAT _logl
_TEXT	SEGMENT PARA USE32 PUBLIC 'CODE'
_TEXT	ENDS
;	COMDAT _log10l
_TEXT	SEGMENT PARA USE32 PUBLIC 'CODE'
_TEXT	ENDS
;	COMDAT _modfl
_TEXT	SEGMENT PARA USE32 PUBLIC 'CODE'
_TEXT	ENDS
;	COMDAT _powl
_TEXT	SEGMENT PARA USE32 PUBLIC 'CODE'
_TEXT	ENDS
;	COMDAT _sinl
_TEXT	SEGMENT PARA USE32 PUBLIC 'CODE'
_TEXT	ENDS
;	COMDAT _sinhl
_TEXT	SEGMENT PARA USE32 PUBLIC 'CODE'
_TEXT	ENDS
;	COMDAT _sqrtl
_TEXT	SEGMENT PARA USE32 PUBLIC 'CODE'
_TEXT	ENDS
;	COMDAT _tanl
_TEXT	SEGMENT PARA USE32 PUBLIC 'CODE'
_TEXT	ENDS
;	COMDAT _tanhl
_TEXT	SEGMENT PARA USE32 PUBLIC 'CODE'
_TEXT	ENDS
;	COMDAT _frexpf
_TEXT	SEGMENT PARA USE32 PUBLIC 'CODE'
_TEXT	ENDS
;	COMDAT _ldexpf
_TEXT	SEGMENT PARA USE32 PUBLIC 'CODE'
_TEXT	ENDS
;	COMDAT _acosf
_TEXT	SEGMENT PARA USE32 PUBLIC 'CODE'
_TEXT	ENDS
;	COMDAT _asinf
_TEXT	SEGMENT PARA USE32 PUBLIC 'CODE'
_TEXT	ENDS
;	COMDAT _atanf
_TEXT	SEGMENT PARA USE32 PUBLIC 'CODE'
_TEXT	ENDS
;	COMDAT _atan2f
_TEXT	SEGMENT PARA USE32 PUBLIC 'CODE'
_TEXT	ENDS
;	COMDAT _ceilf
_TEXT	SEGMENT PARA USE32 PUBLIC 'CODE'
_TEXT	ENDS
;	COMDAT _cosf
_TEXT	SEGMENT PARA USE32 PUBLIC 'CODE'
_TEXT	ENDS
;	COMDAT _coshf
_TEXT	SEGMENT PARA USE32 PUBLIC 'CODE'
_TEXT	ENDS
;	COMDAT _expf
_TEXT	SEGMENT PARA USE32 PUBLIC 'CODE'
_TEXT	ENDS
;	COMDAT _fabsf
_TEXT	SEGMENT PARA USE32 PUBLIC 'CODE'
_TEXT	ENDS
;	COMDAT _floorf
_TEXT	SEGMENT PARA USE32 PUBLIC 'CODE'
_TEXT	ENDS
;	COMDAT _fmodf
_TEXT	SEGMENT PARA USE32 PUBLIC 'CODE'
_TEXT	ENDS
;	COMDAT _logf
_TEXT	SEGMENT PARA USE32 PUBLIC 'CODE'
_TEXT	ENDS
;	COMDAT _log10f
_TEXT	SEGMENT PARA USE32 PUBLIC 'CODE'
_TEXT	ENDS
;	COMDAT _modff
_TEXT	SEGMENT PARA USE32 PUBLIC 'CODE'
_TEXT	ENDS
;	COMDAT _powf
_TEXT	SEGMENT PARA USE32 PUBLIC 'CODE'
_TEXT	ENDS
;	COMDAT _sinf
_TEXT	SEGMENT PARA USE32 PUBLIC 'CODE'
_TEXT	ENDS
;	COMDAT _sinhf
_TEXT	SEGMENT PARA USE32 PUBLIC 'CODE'
_TEXT	ENDS
;	COMDAT _sqrtf
_TEXT	SEGMENT PARA USE32 PUBLIC 'CODE'
_TEXT	ENDS
;	COMDAT _tanf
_TEXT	SEGMENT PARA USE32 PUBLIC 'CODE'
_TEXT	ENDS
;	COMDAT _tanhf
_TEXT	SEGMENT PARA USE32 PUBLIC 'CODE'
_TEXT	ENDS
;	COMDAT ?sqrt@@YAMM@Z
_TEXT	SEGMENT PARA USE32 PUBLIC 'CODE'
_TEXT	ENDS
;	COMDAT ??0_D3DVECTOR@@QAE@MMM@Z
_TEXT	SEGMENT PARA USE32 PUBLIC 'CODE'
_TEXT	ENDS
;	COMDAT ??A_D3DVECTOR@@QBEABMH@Z
_TEXT	SEGMENT PARA USE32 PUBLIC 'CODE'
_TEXT	ENDS
;	COMDAT ??A_D3DVECTOR@@QAEAAMH@Z
_TEXT	SEGMENT PARA USE32 PUBLIC 'CODE'
_TEXT	ENDS
;	COMDAT ??K@YA?AU_D3DVECTOR@@ABU0@M@Z
_TEXT	SEGMENT PARA USE32 PUBLIC 'CODE'
_TEXT	ENDS
;	COMDAT ?Magnitude@@YAMABU_D3DVECTOR@@@Z
_TEXT	SEGMENT PARA USE32 PUBLIC 'CODE'
_TEXT	ENDS
;	COMDAT ?SquareMagnitude@@YAMABU_D3DVECTOR@@@Z
_TEXT	SEGMENT PARA USE32 PUBLIC 'CODE'
_TEXT	ENDS
;	COMDAT ?Is565@CDirectDraw@@SA_NXZ
_TEXT	SEGMENT PARA USE32 PUBLIC 'CODE'
_TEXT	ENDS
;	COMDAT ?Red@CDirectDraw@@SAEABG@Z
_TEXT	SEGMENT PARA USE32 PUBLIC 'CODE'
_TEXT	ENDS
;	COMDAT ?Green@CDirectDraw@@SAEABG@Z
_TEXT	SEGMENT PARA USE32 PUBLIC 'CODE'
_TEXT	ENDS
;	COMDAT ?Blue@CDirectDraw@@SAEABG@Z
_TEXT	SEGMENT PARA USE32 PUBLIC 'CODE'
_TEXT	ENDS
;	COMDAT ?IsTexturePow2@CDirect3D@@SA_NXZ
_TEXT	SEGMENT PARA USE32 PUBLIC 'CODE'
_TEXT	ENDS
;	COMDAT ?IsTextureSquareOnly@CDirect3D@@SA_NXZ
_TEXT	SEGMENT PARA USE32 PUBLIC 'CODE'
_TEXT	ENDS
;	COMDAT ?GetPixelFormat1555@CDirect3D@@SAQAU_DDPIXELFORMAT@@XZ
_TEXT	SEGMENT PARA USE32 PUBLIC 'CODE'
_TEXT	ENDS
;	COMDAT ?GetSurfacePointer@CDirectDrawSurface@@QAEPAXXZ
_TEXT	SEGMENT PARA USE32 PUBLIC 'CODE'
_TEXT	ENDS
;	COMDAT ?GetSurfacePitch@CDirectDrawSurface@@QAEJXZ
_TEXT	SEGMENT PARA USE32 PUBLIC 'CODE'
_TEXT	ENDS
;	COMDAT ?SetClipLeftTop@CDirectDrawSurface@@QAEXHH@Z
_TEXT	SEGMENT PARA USE32 PUBLIC 'CODE'
_TEXT	ENDS
;	COMDAT ?SetClipRightBottom@CDirectDrawSurface@@QAEXHH@Z
_TEXT	SEGMENT PARA USE32 PUBLIC 'CODE'
_TEXT	ENDS
;	COMDAT ?start@CNFS@@QAE_NPADH@Z
_TEXT	SEGMENT PARA USE32 PUBLIC 'CODE'
_TEXT	ENDS
;	COMDAT ?end@CNFS@@QAEXXZ
_TEXT	SEGMENT PARA USE32 PUBLIC 'CODE'
_TEXT	ENDS
;	COMDAT ?Init@VirtualFileHeader@@QAEXXZ
_TEXT	SEGMENT PARA USE32 PUBLIC 'CODE'
_TEXT	ENDS
;	COMDAT ??1IFileIO@@UAE@XZ
_TEXT	SEGMENT PARA USE32 PUBLIC 'CODE'
_TEXT	ENDS
;	COMDAT ??_GIFileIO@@UAEPAXI@Z
_TEXT	SEGMENT PARA USE32 PUBLIC 'CODE'
_TEXT	ENDS
;	COMDAT ?get_vfs@iovfs_base@@SAPAVVirtualFileSystem@@XZ
_TEXT	SEGMENT PARA USE32 PUBLIC 'CODE'
_TEXT	ENDS
;	COMDAT ??0iovfs_base@@QAE@XZ
_TEXT	SEGMENT PARA USE32 PUBLIC 'CODE'
_TEXT	ENDS
;	COMDAT ??_Giovfs_base@@UAEPAXI@Z
_TEXT	SEGMENT PARA USE32 PUBLIC 'CODE'
_TEXT	ENDS
;	COMDAT ??1iovfs_base@@UAE@XZ
_TEXT	SEGMENT PARA USE32 PUBLIC 'CODE'
_TEXT	ENDS
;	COMDAT ?Init@iovfs_base@@QAEXXZ
_TEXT	SEGMENT PARA USE32 PUBLIC 'CODE'
_TEXT	ENDS
;	COMDAT ?is_open@iovfs_base@@QBE_NXZ
_TEXT	SEGMENT PARA USE32 PUBLIC 'CODE'
_TEXT	ENDS
;	COMDAT ??0ivfstream@@QAE@XZ
_TEXT	SEGMENT PARA USE32 PUBLIC 'CODE'
_TEXT	ENDS
;	COMDAT ??_Givfstream@@UAEPAXI@Z
_TEXT	SEGMENT PARA USE32 PUBLIC 'CODE'
_TEXT	ENDS
;	COMDAT ??0ivfstream@@QAE@PBDH@Z
_TEXT	SEGMENT PARA USE32 PUBLIC 'CODE'
_TEXT	ENDS
;	COMDAT ??1ivfstream@@UAE@XZ
_TEXT	SEGMENT PARA USE32 PUBLIC 'CODE'
_TEXT	ENDS
;	COMDAT ?open@ivfstream@@UAEXPBDH@Z
_TEXT	SEGMENT PARA USE32 PUBLIC 'CODE'
_TEXT	ENDS
;	COMDAT ?read@ivfstream@@QAEXPADI@Z
_TEXT	SEGMENT PARA USE32 PUBLIC 'CODE'
_TEXT	ENDS
;	COMDAT ?seekg@ivfstream@@QAEXJH@Z
_TEXT	SEGMENT PARA USE32 PUBLIC 'CODE'
_TEXT	ENDS
;	COMDAT ?getline@ivfstream@@QAEPAXPADHD@Z
_TEXT	SEGMENT PARA USE32 PUBLIC 'CODE'
_TEXT	ENDS
;	COMDAT ??_Govfstream@@UAEPAXI@Z
_TEXT	SEGMENT PARA USE32 PUBLIC 'CODE'
_TEXT	ENDS
;	COMDAT ??1ovfstream@@UAE@XZ
_TEXT	SEGMENT PARA USE32 PUBLIC 'CODE'
_TEXT	ENDS
;	COMDAT ?open@ovfstream@@UAEXPBDH@Z
_TEXT	SEGMENT PARA USE32 PUBLIC 'CODE'
_TEXT	ENDS
;	COMDAT ??1ITypePackBase@@UAE@XZ
_TEXT	SEGMENT PARA USE32 PUBLIC 'CODE'
_TEXT	ENDS
;	COMDAT ??_GITypePackBase@@UAEPAXI@Z
_TEXT	SEGMENT PARA USE32 PUBLIC 'CODE'
_TEXT	ENDS
;	COMDAT ?IsInit@MPalette@@QBE_NXZ
_TEXT	SEGMENT PARA USE32 PUBLIC 'CODE'
_TEXT	ENDS
;	COMDAT ?IsInit@CSpritePalBase@@QBE_NXZ
_TEXT	SEGMENT PARA USE32 PUBLIC 'CODE'
_TEXT	ENDS
;	COMDAT ?GetWidth@CSpritePalBase@@QBEGXZ
_TEXT	SEGMENT PARA USE32 PUBLIC 'CODE'
_TEXT	ENDS
;	COMDAT ?GetHeight@CSpritePalBase@@QBEGXZ
_TEXT	SEGMENT PARA USE32 PUBLIC 'CODE'
_TEXT	ENDS
;	COMDAT ?IsInit@CSprite@@QBE_NXZ
_TEXT	SEGMENT PARA USE32 PUBLIC 'CODE'
_TEXT	ENDS
;	COMDAT ?GetWidth@CSprite@@QBEGXZ
_TEXT	SEGMENT PARA USE32 PUBLIC 'CODE'
_TEXT	ENDS
;	COMDAT ?GetHeight@CSprite@@QBEGXZ
_TEXT	SEGMENT PARA USE32 PUBLIC 'CODE'
_TEXT	ENDS
;	COMDAT ?_MinTraceA@@YAXPBD@Z
_TEXT	SEGMENT PARA USE32 PUBLIC 'CODE'
_TEXT	ENDS
;	COMDAT ?_MinTraceErrA@@YAXPBD@Z
_TEXT	SEGMENT PARA USE32 PUBLIC 'CODE'
_TEXT	ENDS
;	COMDAT ?_MinTraceWarA@@YAXPBD@Z
_TEXT	SEGMENT PARA USE32 PUBLIC 'CODE'
_TEXT	ENDS
;	COMDAT ?_ClMinTraceA@@YAXKPBD@Z
_TEXT	SEGMENT PARA USE32 PUBLIC 'CODE'
_TEXT	ENDS
;	COMDAT ?_CmdMinTraceA@@YAXHPBD@Z
_TEXT	SEGMENT PARA USE32 PUBLIC 'CODE'
_TEXT	ENDS
;	COMDAT ??0CNormalSpriteTexturePartManager@@QAE@PAV?$CTypePack2@VCSprite@@VCSprite555@@VCSprite565@@@@G@Z
_TEXT	SEGMENT PARA USE32 PUBLIC 'CODE'
_TEXT	ENDS
;	COMDAT ??1CNormalSpriteTexturePartManager@@QAE@XZ
_TEXT	SEGMENT PARA USE32 PUBLIC 'CODE'
_TEXT	ENDS
;	COMDAT ?Init@CNormalSpriteTexturePartManager@@QAEXPAV?$CTypePack2@VCSprite@@VCSprite555@@VCSprite565@@@@G@Z
_TEXT	SEGMENT PARA USE32 PUBLIC 'CODE'
_TEXT	ENDS
;	COMDAT ?Release@CNormalSpriteTexturePartManager@@QAEXXZ
_TEXT	SEGMENT PARA USE32 PUBLIC 'CODE'
_TEXT	ENDS
;	COMDAT ??_GCSpriteSurface@@QAEPAXI@Z
_TEXT	SEGMENT PARA USE32 PUBLIC 'CODE'
_TEXT	ENDS
;	COMDAT ?DeleteRemoved@CNormalSpriteTexturePartManager@@QAEXXZ
_TEXT	SEGMENT PARA USE32 PUBLIC 'CODE'
_TEXT	ENDS
;	COMDAT ?Clear@CNormalSpriteTexturePartManager@@QAEXXZ
_TEXT	SEGMENT PARA USE32 PUBLIC 'CODE'
_TEXT	ENDS
;	COMDAT ?GetTexture@CNormalSpriteTexturePartManager@@QAEPAVCSpriteSurface@@G@Z
_TEXT	SEGMENT PARA USE32 PUBLIC 'CODE'
_TEXT	ENDS
;	COMDAT ?eq@?$__char_traits_base@DH@_STL@@SA_NABD0@Z
_TEXT	SEGMENT PARA USE32 PUBLIC 'CODE'
_TEXT	ENDS
;	COMDAT ?not_eof@?$__char_traits_base@DH@_STL@@SAHABH@Z
_TEXT	SEGMENT PARA USE32 PUBLIC 'CODE'
_TEXT	ENDS
;	COMDAT ?eq_int_type@?$__char_traits_base@DH@_STL@@SA_NABH0@Z
_TEXT	SEGMENT PARA USE32 PUBLIC 'CODE'
_TEXT	ENDS
;	COMDAT ?get_allocator@?$basic_string@DV?$char_traits@D@_STL@@V?$allocator@D@2@@_STL@@QBE?AV?$allocator@D@2@XZ
_TEXT	SEGMENT PARA USE32 PUBLIC 'CODE'
_TEXT	ENDS
;	COMDAT ??4?$basic_string@DV?$char_traits@D@_STL@@V?$allocator@D@2@@_STL@@QAEAAV01@PBD@Z
_TEXT	SEGMENT PARA USE32 PUBLIC 'CODE'
_TEXT	ENDS
;	COMDAT ?_M_terminate_string@?$basic_string@DV?$char_traits@D@_STL@@V?$allocator@D@2@@_STL@@AAEXXZ
_TEXT	SEGMENT PARA USE32 PUBLIC 'CODE'
_TEXT	ENDS
;	COMDAT ?compare@?$basic_string@DV?$char_traits@D@_STL@@V?$allocator@D@2@@_STL@@QBEHABV12@@Z
_TEXT	SEGMENT PARA USE32 PUBLIC 'CODE'
_TEXT	ENDS
;	COMDAT ??0?$_String_base@DV?$allocator@D@_STL@@@_STL@@QAE@ABV?$allocator@D@1@@Z
_TEXT	SEGMENT PARA USE32 PUBLIC 'CODE'
_TEXT	ENDS
;	COMDAT ?allocate@?$allocator@D@_STL@@QAEPADIPBX@Z
_TEXT	SEGMENT PARA USE32 PUBLIC 'CODE'
_TEXT	ENDS
;	COMDAT ??0?$fpos@H@_STL@@QAE@J@Z
_TEXT	SEGMENT PARA USE32 PUBLIC 'CODE'
_TEXT	ENDS
;	COMDAT ??B?$fpos@H@_STL@@QBEJXZ
_TEXT	SEGMENT PARA USE32 PUBLIC 'CODE'
_TEXT	ENDS
;	COMDAT ?state@?$fpos@H@_STL@@QBEHXZ
_TEXT	SEGMENT PARA USE32 PUBLIC 'CODE'
_TEXT	ENDS
;	COMDAT ?is_open@?$basic_filebuf@DV?$char_traits@D@_STL@@@_STL@@QBE_NXZ
_TEXT	SEGMENT PARA USE32 PUBLIC 'CODE'
_TEXT	ENDS
;	COMDAT ?_M_seek_return@?$basic_filebuf@DV?$char_traits@D@_STL@@@_STL@@AAE?AV?$fpos@H@2@JH@Z
_TEXT	SEGMENT PARA USE32 PUBLIC 'CODE'
_TEXT	ENDS
;	COMDAT ??0?$_Filebuf_Tmp_Buf@D@_STL@@QAE@H@Z
_TEXT	SEGMENT PARA USE32 PUBLIC 'CODE'
_TEXT	ENDS
;	COMDAT ??1?$_Filebuf_Tmp_Buf@D@_STL@@QAE@XZ
_TEXT	SEGMENT PARA USE32 PUBLIC 'CODE'
_TEXT	ENDS
;	COMDAT ?IsDataNotNULL@?$CPartManager@GGPAVCSpriteSurface@@@@QAE_NG@Z
_TEXT	SEGMENT PARA USE32 PUBLIC 'CODE'
_TEXT	ENDS
;	COMDAT ?GetSize@?$CTypePack@VCSpritePal@@@@UBEKXZ
_TEXT	SEGMENT PARA USE32 PUBLIC 'CODE'
_TEXT	ENDS
;	COMDAT ??0?$list@PAVCSpriteSurface@@V?$allocator@PAVCSpriteSurface@@@_STL@@@_STL@@QAE@ABV?$allocator@PAVCSpriteSurface@@@1@@Z
_TEXT	SEGMENT PARA USE32 PUBLIC 'CODE'
_TEXT	ENDS
;	COMDAT ?begin@?$list@PAVCSpriteSurface@@V?$allocator@PAVCSpriteSurface@@@_STL@@@_STL@@QAE?AU?$_List_iterator@PAVCSpriteSurface@@U?$_Nonconst_traits@PAVCSpriteSurface@@@_STL@@@2@XZ
_TEXT	SEGMENT PARA USE32 PUBLIC 'CODE'
_TEXT	ENDS
;	COMDAT ?end@?$list@PAVCSpriteSurface@@V?$allocator@PAVCSpriteSurface@@@_STL@@@_STL@@QAE?AU?$_List_iterator@PAVCSpriteSurface@@U?$_Nonconst_traits@PAVCSpriteSurface@@@_STL@@@2@XZ
_TEXT	SEGMENT PARA USE32 PUBLIC 'CODE'
_TEXT	ENDS
;	COMDAT ?push_back@?$list@PAVCSpriteSurface@@V?$allocator@PAVCSpriteSurface@@@_STL@@@_STL@@QAEXABQAVCSpriteSurface@@@Z
_TEXT	SEGMENT PARA USE32 PUBLIC 'CODE'
_TEXT	ENDS
;	COMDAT ??1?$list@PAVCSpriteSurface@@V?$allocator@PAVCSpriteSurface@@@_STL@@@_STL@@QAE@XZ
_TEXT	SEGMENT PARA USE32 PUBLIC 'CODE'
_TEXT	ENDS
;	COMDAT ??0?$allocator@PAVCSpriteSurface@@@_STL@@QAE@XZ
_TEXT	SEGMENT PARA USE32 PUBLIC 'CODE'
_TEXT	ENDS
;	COMDAT ??1?$allocator@PAVCSpriteSurface@@@_STL@@QAE@XZ
_TEXT	SEGMENT PARA USE32 PUBLIC 'CODE'
_TEXT	ENDS
;	COMDAT ?GetSize@?$CTypePack2@VMPalette@@VMPalette555@@VMPalette565@@@@UBEKXZ
_TEXT	SEGMENT PARA USE32 PUBLIC 'CODE'
_TEXT	ENDS
;	COMDAT ?Is565@?$CTypePack2@VMPalette@@VMPalette555@@VMPalette565@@@@UAE_NXZ
_TEXT	SEGMENT PARA USE32 PUBLIC 'CODE'
_TEXT	ENDS
;	COMDAT ?GetSize@?$CTypePack2@VCSprite@@VCSprite555@@VCSprite565@@@@UBEKXZ
_TEXT	SEGMENT PARA USE32 PUBLIC 'CODE'
_TEXT	ENDS
;	COMDAT ?Is565@?$CTypePack2@VCSprite@@VCSprite555@@VCSprite565@@@@UAE_NXZ
_TEXT	SEGMENT PARA USE32 PUBLIC 'CODE'
_TEXT	ENDS
;	COMDAT ??D?$_List_iterator@PAVCSpriteSurface@@U?$_Nonconst_traits@PAVCSpriteSurface@@@_STL@@@_STL@@QBEAAPAVCSpriteSurface@@XZ
_TEXT	SEGMENT PARA USE32 PUBLIC 'CODE'
_TEXT	ENDS
;	COMDAT ??E?$_List_iterator@PAVCSpriteSurface@@U?$_Nonconst_traits@PAVCSpriteSurface@@@_STL@@@_STL@@QAE?AU01@H@Z
_TEXT	SEGMENT PARA USE32 PUBLIC 'CODE'
_TEXT	ENDS
;	COMDAT ?_M_terminate_string_aux@?$basic_string@DV?$char_traits@D@_STL@@V?$allocator@D@2@@_STL@@AAEXABU__true_type@2@@Z
_TEXT	SEGMENT PARA USE32 PUBLIC 'CODE'
_TEXT	ENDS
;	COMDAT ?assign@?$basic_string@DV?$char_traits@D@_STL@@V?$allocator@D@2@@_STL@@QAEAAV12@PBD0@Z
_TEXT	SEGMENT PARA USE32 PUBLIC 'CODE'
_TEXT	ENDS
;	COMDAT ?_M_compare@?$basic_string@DV?$char_traits@D@_STL@@V?$allocator@D@2@@_STL@@SAHPBD000@Z
_TEXT	SEGMENT PARA USE32 PUBLIC 'CODE'
_TEXT	ENDS
;	COMDAT ??0?$allocator@D@_STL@@QAE@ABV01@@Z
_TEXT	SEGMENT PARA USE32 PUBLIC 'CODE'
_TEXT	ENDS
;	COMDAT ??0?$_STLP_alloc_proxy@PADDV?$allocator@D@_STL@@@_STL@@QAE@ABV?$allocator@D@1@PAD@Z
_TEXT	SEGMENT PARA USE32 PUBLIC 'CODE'
_TEXT	ENDS
;	COMDAT ?state@?$fpos@H@_STL@@QAEXH@Z
_TEXT	SEGMENT PARA USE32 PUBLIC 'CODE'
_TEXT	ENDS
;	COMDAT ?insert@?$list@PAVCSpriteSurface@@V?$allocator@PAVCSpriteSurface@@@_STL@@@_STL@@QAE?AU?$_List_iterator@PAVCSpriteSurface@@U?$_Nonconst_traits@PAVCSpriteSurface@@@_STL@@@2@U32@ABQAVCSpriteSurface@@@Z
_TEXT	SEGMENT PARA USE32 PUBLIC 'CODE'
_TEXT	ENDS
;	COMDAT ??0?$_List_base@PAVCSpriteSurface@@V?$allocator@PAVCSpriteSurface@@@_STL@@@_STL@@QAE@ABV?$allocator@PAVCSpriteSurface@@@1@@Z
_TEXT	SEGMENT PARA USE32 PUBLIC 'CODE'
_TEXT	ENDS
;	COMDAT ??1?$_List_base@PAVCSpriteSurface@@V?$allocator@PAVCSpriteSurface@@@_STL@@@_STL@@QAE@XZ
_TEXT	SEGMENT PARA USE32 PUBLIC 'CODE'
_TEXT	ENDS
;	COMDAT ??0?$_List_iterator@PAVCSpriteSurface@@U?$_Nonconst_traits@PAVCSpriteSurface@@@_STL@@@_STL@@QAE@PAU?$_List_node@PAVCSpriteSurface@@@1@@Z
_TEXT	SEGMENT PARA USE32 PUBLIC 'CODE'
_TEXT	ENDS
;	COMDAT ??0?$_List_iterator@PAVCSpriteSurface@@U?$_Nonconst_traits@PAVCSpriteSurface@@@_STL@@@_STL@@QAE@ABU01@@Z
_TEXT	SEGMENT PARA USE32 PUBLIC 'CODE'
_TEXT	ENDS
;	COMDAT ??1?$_STLP_alloc_proxy@PAU?$_List_node@PAVCSpriteSurface@@@_STL@@U12@V?$allocator@U?$_List_node@PAVCSpriteSurface@@@_STL@@@2@@_STL@@QAE@XZ
_TEXT	SEGMENT PARA USE32 PUBLIC 'CODE'
_TEXT	ENDS
;	COMDAT ?copy@?$__char_traits_base@DH@_STL@@SAPADPADPBDI@Z
_TEXT	SEGMENT PARA USE32 PUBLIC 'CODE'
_TEXT	ENDS
;	COMDAT ?begin@?$basic_string@DV?$char_traits@D@_STL@@V?$allocator@D@2@@_STL@@QAEPADXZ
_TEXT	SEGMENT PARA USE32 PUBLIC 'CODE'
_TEXT	ENDS
;	COMDAT ?end@?$basic_string@DV?$char_traits@D@_STL@@V?$allocator@D@2@@_STL@@QAEPADXZ
_TEXT	SEGMENT PARA USE32 PUBLIC 'CODE'
_TEXT	ENDS
;	COMDAT ?size@?$basic_string@DV?$char_traits@D@_STL@@V?$allocator@D@2@@_STL@@QBEIXZ
_TEXT	SEGMENT PARA USE32 PUBLIC 'CODE'
_TEXT	ENDS
;	COMDAT ?erase@?$basic_string@DV?$char_traits@D@_STL@@V?$allocator@D@2@@_STL@@QAEPADPAD0@Z
_TEXT	SEGMENT PARA USE32 PUBLIC 'CODE'
_TEXT	ENDS
;	COMDAT ?_M_create_node@?$list@PAVCSpriteSurface@@V?$allocator@PAVCSpriteSurface@@@_STL@@@_STL@@IAEPAU?$_List_node@PAVCSpriteSurface@@@2@ABQAVCSpriteSurface@@@Z
_TEXT	SEGMENT PARA USE32 PUBLIC 'CODE'
_TEXT	ENDS
;	COMDAT ??0?$_STLP_alloc_proxy@PAU?$_List_node@PAVCSpriteSurface@@@_STL@@U12@V?$allocator@U?$_List_node@PAVCSpriteSurface@@@_STL@@@2@@_STL@@QAE@ABV?$allocator@U?$_List_node@PAVCSpriteSurface@@@_STL@@@1@PAU?$_List_node@PAVCSpriteSurface@@@1@@Z
_TEXT	SEGMENT PARA USE32 PUBLIC 'CODE'
_TEXT	ENDS
;	COMDAT ??1?$allocator@U?$_List_node@PAVCSpriteSurface@@@_STL@@@_STL@@QAE@XZ
_TEXT	SEGMENT PARA USE32 PUBLIC 'CODE'
_TEXT	ENDS
;	COMDAT ?allocate@?$allocator@U?$_List_node@PAVCSpriteSurface@@@_STL@@@_STL@@QAEPAU?$_List_node@PAVCSpriteSurface@@@2@IPBX@Z
_TEXT	SEGMENT PARA USE32 PUBLIC 'CODE'
_TEXT	ENDS
;	COMDAT ?deallocate@?$allocator@U?$_List_node@PAVCSpriteSurface@@@_STL@@@_STL@@QAEXPAU?$_List_node@PAVCSpriteSurface@@@2@I@Z
_TEXT	SEGMENT PARA USE32 PUBLIC 'CODE'
_TEXT	ENDS
;	COMDAT ?move@?$__char_traits_base@DH@_STL@@SAPADPADPBDI@Z
_TEXT	SEGMENT PARA USE32 PUBLIC 'CODE'
_TEXT	ENDS
;	COMDAT ??0?$allocator@U?$_List_node@PAVCSpriteSurface@@@_STL@@@_STL@@QAE@ABV01@@Z
_TEXT	SEGMENT PARA USE32 PUBLIC 'CODE'
_TEXT	ENDS
;	COMDAT ??$_M_range_initialize@PBD@?$basic_string@DV?$char_traits@D@_STL@@V?$allocator@D@2@@_STL@@AAEXPBD0@Z
_TEXT	SEGMENT PARA USE32 PUBLIC 'CODE'
_TEXT	ENDS
;	COMDAT ??$_M_range_initialize@PAD@?$basic_string@DV?$char_traits@D@_STL@@V?$allocator@D@2@@_STL@@AAEXPAD0@Z
_TEXT	SEGMENT PARA USE32 PUBLIC 'CODE'
_TEXT	ENDS
;	COMDAT ?close@?$basic_filebuf@DV?$char_traits@D@_STL@@@_STL@@QAEPAV12@XZ
_TEXT	SEGMENT PARA USE32 PUBLIC 'CODE'
_TEXT	ENDS
;	COMDAT ?_M_exit_input_mode@?$basic_filebuf@DV?$char_traits@D@_STL@@@_STL@@AAEXXZ
_TEXT	SEGMENT PARA USE32 PUBLIC 'CODE'
_TEXT	ENDS
;	COMDAT ?_M_switch_to_output_mode@?$basic_filebuf@DV?$char_traits@D@_STL@@@_STL@@AAE_NXZ
_TEXT	SEGMENT PARA USE32 PUBLIC 'CODE'
_TEXT	ENDS
;	COMDAT ?_M_output_error@?$basic_filebuf@DV?$char_traits@D@_STL@@@_STL@@AAEHXZ
_TEXT	SEGMENT PARA USE32 PUBLIC 'CODE'
_TEXT	ENDS
;	COMDAT ?_M_allocate_buffers@?$basic_filebuf@DV?$char_traits@D@_STL@@@_STL@@AAE_NPADH@Z
_TEXT	SEGMENT PARA USE32 PUBLIC 'CODE'
_TEXT	ENDS
;	COMDAT ?_M_deallocate_buffers@?$basic_filebuf@DV?$char_traits@D@_STL@@@_STL@@AAEXXZ
_TEXT	SEGMENT PARA USE32 PUBLIC 'CODE'
_TEXT	ENDS
;	COMDAT ?_M_seek_init@?$basic_filebuf@DV?$char_traits@D@_STL@@@_STL@@AAE_N_N@Z
_TEXT	SEGMENT PARA USE32 PUBLIC 'CODE'
_TEXT	ENDS
;	COMDAT ?_M_setup_codecvt@?$basic_filebuf@DV?$char_traits@D@_STL@@@_STL@@AAEXABVlocale@2@@Z
_TEXT	SEGMENT PARA USE32 PUBLIC 'CODE'
_TEXT	ENDS
;	COMDAT ??$equal@PADPADU?$_Eq_traits@V?$char_traits@D@_STL@@@_STL@@@_STL@@YA_NPAD00U?$_Eq_traits@V?$char_traits@D@_STL@@@0@@Z
_TEXT	SEGMENT PARA USE32 PUBLIC 'CODE'
_TEXT	ENDS
;	COMDAT ??$_Destroy@V?$basic_string@DV?$char_traits@D@_STL@@V?$allocator@D@2@@_STL@@@_STL@@YAXPAV?$basic_string@DV?$char_traits@D@_STL@@V?$allocator@D@2@@0@@Z
_TEXT	SEGMENT PARA USE32 PUBLIC 'CODE'
_TEXT	ENDS
;	COMDAT ??$_M_assign_dispatch@PAD@?$basic_string@DV?$char_traits@D@_STL@@V?$allocator@D@2@@_STL@@AAEAAV01@PAD0ABU__false_type@1@@Z
_TEXT	SEGMENT PARA USE32 PUBLIC 'CODE'
_TEXT	ENDS
;	COMDAT ??$_Pow_int@N@@YANNH@Z
_TEXT	SEGMENT PARA USE32 PUBLIC 'CODE'
_TEXT	ENDS
;	COMDAT ??$_Pow_int@H@@YAHHH@Z
_TEXT	SEGMENT PARA USE32 PUBLIC 'CODE'
_TEXT	ENDS
;	COMDAT ??$_Pow_int@M@@YAMMH@Z
_TEXT	SEGMENT PARA USE32 PUBLIC 'CODE'
_TEXT	ENDS
;	COMDAT ??$_Pow_int@O@@YAOOH@Z
_TEXT	SEGMENT PARA USE32 PUBLIC 'CODE'
_TEXT	ENDS
;	COMDAT ??0?$CPartManager@GGPAVCSpriteSurface@@@@QAE@XZ
_TEXT	SEGMENT PARA USE32 PUBLIC 'CODE'
_TEXT	ENDS
;	COMDAT ??1?$CPartManager@GGPAVCSpriteSurface@@@@QAE@XZ
_TEXT	SEGMENT PARA USE32 PUBLIC 'CODE'
_TEXT	ENDS
;	COMDAT ?Init@?$CPartManager@GGPAVCSpriteSurface@@@@QAEXGG@Z
_TEXT	SEGMENT PARA USE32 PUBLIC 'CODE'
_TEXT	ENDS
;	COMDAT ?SetData@?$CPartManager@GGPAVCSpriteSurface@@@@QAEGGABQAVCSpriteSurface@@AAPAV2@@Z
_TEXT	SEGMENT PARA USE32 PUBLIC 'CODE'
_TEXT	ENDS
;	COMDAT ?GetData@?$CPartManager@GGPAVCSpriteSurface@@@@QAE_NGAAPAVCSpriteSurface@@@Z
_TEXT	SEGMENT PARA USE32 PUBLIC 'CODE'
_TEXT	ENDS
;	COMDAT ??1?$CTypePack@VCSpritePal@@@@UAE@XZ
_TEXT	SEGMENT PARA USE32 PUBLIC 'CODE'
_TEXT	ENDS
;	COMDAT ?Init@?$CTypePack@VCSpritePal@@@@UAEXG@Z
_TEXT	SEGMENT PARA USE32 PUBLIC 'CODE'
_TEXT	ENDS
;	COMDAT ?Release@?$CTypePack@VCSpritePal@@@@UAEXXZ
_TEXT	SEGMENT PARA USE32 PUBLIC 'CODE'
_TEXT	ENDS
;	COMDAT ??A?$CTypePack@VCSpritePal@@@@UAEAAVCSpritePal@@G@Z
_TEXT	SEGMENT PARA USE32 PUBLIC 'CODE'
_TEXT	ENDS
;	COMDAT ?Get@?$CTypePack@VCSpritePal@@@@UAEAAVCSpritePal@@G@Z
_TEXT	SEGMENT PARA USE32 PUBLIC 'CODE'
_TEXT	ENDS
;	COMDAT ?SaveToFile@?$CTypePack@VCSpritePal@@@@UAE_NPBD@Z
_TEXT	SEGMENT PARA USE32 PUBLIC 'CODE'
_TEXT	ENDS
;	COMDAT ?SaveToFile@?$CTypePack@VCSpritePal@@@@UAE_NAAV?$basic_ofstream@DV?$char_traits@D@_STL@@@_STL@@0@Z
_TEXT	SEGMENT PARA USE32 PUBLIC 'CODE'
_TEXT	ENDS
;	COMDAT ?LoadFromFileRunning@?$CTypePack@VCSpritePal@@@@UAE_NPBD@Z
_TEXT	SEGMENT PARA USE32 PUBLIC 'CODE'
_TEXT	ENDS
;	COMDAT ?LoadFromFile@?$CTypePack@VCSpritePal@@@@UAE_NPBD@Z
_TEXT	SEGMENT PARA USE32 PUBLIC 'CODE'
_TEXT	ENDS
;	COMDAT ?LoadFromFilePart@?$CTypePack@VCSpritePal@@@@UAE_NAAVCSpriteSetManager@@@Z
_TEXT	SEGMENT PARA USE32 PUBLIC 'CODE'
_TEXT	ENDS
;	COMDAT ?LoadFromFilePart@?$CTypePack@VCSpritePal@@@@UAE_NHH@Z
_TEXT	SEGMENT PARA USE32 PUBLIC 'CODE'
_TEXT	ENDS
;	COMDAT ?LoadFromFileData@?$CTypePack@VCSpritePal@@@@UAE_NHHPBD0@Z
_TEXT	SEGMENT PARA USE32 PUBLIC 'CODE'
_TEXT	ENDS
;	COMDAT ?ReleasePart@?$CTypePack@VCSpritePal@@@@UAE_NV?$COrderedList@G@@@Z
_TEXT	SEGMENT PARA USE32 PUBLIC 'CODE'
_TEXT	ENDS
;	COMDAT ?ReleasePart@?$CTypePack@VCSpritePal@@@@UAE_NHH@Z
_TEXT	SEGMENT PARA USE32 PUBLIC 'CODE'
_TEXT	ENDS
;	COMDAT ?FinishRunningLoad@?$CTypePack@VCSpritePal@@@@UAEXXZ
_TEXT	SEGMENT PARA USE32 PUBLIC 'CODE'
_TEXT	ENDS
;	COMDAT ?clear@?$_List_base@PAVCSpriteSurface@@V?$allocator@PAVCSpriteSurface@@@_STL@@@_STL@@QAEXXZ
_TEXT	SEGMENT PARA USE32 PUBLIC 'CODE'
_TEXT	ENDS
;	COMDAT ??1?$CTypePack2@VMPalette@@VMPalette555@@VMPalette565@@@@UAE@XZ
_TEXT	SEGMENT PARA USE32 PUBLIC 'CODE'
_TEXT	ENDS
;	COMDAT ?Init@?$CTypePack2@VMPalette@@VMPalette555@@VMPalette565@@@@UAEXG@Z
_TEXT	SEGMENT PARA USE32 PUBLIC 'CODE'
_TEXT	ENDS
;	COMDAT ?Release@?$CTypePack2@VMPalette@@VMPalette555@@VMPalette565@@@@UAEXXZ
_TEXT	SEGMENT PARA USE32 PUBLIC 'CODE'
_TEXT	ENDS
;	COMDAT ??A?$CTypePack2@VMPalette@@VMPalette555@@VMPalette565@@@@UAEAAVMPalette@@G@Z
_TEXT	SEGMENT PARA USE32 PUBLIC 'CODE'
_TEXT	ENDS
;	COMDAT ?Get@?$CTypePack2@VMPalette@@VMPalette555@@VMPalette565@@@@UAEAAVMPalette@@G@Z
_TEXT	SEGMENT PARA USE32 PUBLIC 'CODE'
_TEXT	ENDS
;	COMDAT ?SaveToFile@?$CTypePack2@VMPalette@@VMPalette555@@VMPalette565@@@@UAE_NPBD@Z
_TEXT	SEGMENT PARA USE32 PUBLIC 'CODE'
_TEXT	ENDS
;	COMDAT ?SaveToFile@?$CTypePack2@VMPalette@@VMPalette555@@VMPalette565@@@@UAE_NAAV?$basic_ofstream@DV?$char_traits@D@_STL@@@_STL@@0@Z
_TEXT	SEGMENT PARA USE32 PUBLIC 'CODE'
_TEXT	ENDS
;	COMDAT ?LoadFromFileRunning@?$CTypePack2@VMPalette@@VMPalette555@@VMPalette565@@@@UAE_NPBD@Z
_TEXT	SEGMENT PARA USE32 PUBLIC 'CODE'
_TEXT	ENDS
;	COMDAT ?LoadFromFile@?$CTypePack2@VMPalette@@VMPalette555@@VMPalette565@@@@UAE_NPBD@Z
_TEXT	SEGMENT PARA USE32 PUBLIC 'CODE'
_TEXT	ENDS
;	COMDAT ?LoadFromFilePart@?$CTypePack2@VMPalette@@VMPalette555@@VMPalette565@@@@UAE_NAAVCSpriteSetManager@@@Z
_TEXT	SEGMENT PARA USE32 PUBLIC 'CODE'
_TEXT	ENDS
;	COMDAT ?LoadFromFilePart@?$CTypePack2@VMPalette@@VMPalette555@@VMPalette565@@@@UAE_NHH@Z
_TEXT	SEGMENT PARA USE32 PUBLIC 'CODE'
_TEXT	ENDS
;	COMDAT ?LoadFromFileData@?$CTypePack2@VMPalette@@VMPalette555@@VMPalette565@@@@UAE_NHHPBD0@Z
_TEXT	SEGMENT PARA USE32 PUBLIC 'CODE'
_TEXT	ENDS
;	COMDAT ?ReleasePart@?$CTypePack2@VMPalette@@VMPalette555@@VMPalette565@@@@UAE_NV?$COrderedList@G@@@Z
_TEXT	SEGMENT PARA USE32 PUBLIC 'CODE'
_TEXT	ENDS
;	COMDAT ?ReleasePart@?$CTypePack2@VMPalette@@VMPalette555@@VMPalette565@@@@UAE_NHH@Z
_TEXT	SEGMENT PARA USE32 PUBLIC 'CODE'
_TEXT	ENDS
;	COMDAT ?FinishRunningLoad@?$CTypePack2@VMPalette@@VMPalette555@@VMPalette565@@@@UAEXXZ
_TEXT	SEGMENT PARA USE32 PUBLIC 'CODE'
_TEXT	ENDS
;	COMDAT ??1?$CTypePack2@VCSprite@@VCSprite555@@VCSprite565@@@@UAE@XZ
_TEXT	SEGMENT PARA USE32 PUBLIC 'CODE'
_TEXT	ENDS
;	COMDAT ?Init@?$CTypePack2@VCSprite@@VCSprite555@@VCSprite565@@@@UAEXG@Z
_TEXT	SEGMENT PARA USE32 PUBLIC 'CODE'
_TEXT	ENDS
;	COMDAT ?Release@?$CTypePack2@VCSprite@@VCSprite555@@VCSprite565@@@@UAEXXZ
_TEXT	SEGMENT PARA USE32 PUBLIC 'CODE'
_TEXT	ENDS
;	COMDAT ??A?$CTypePack2@VCSprite@@VCSprite555@@VCSprite565@@@@UAEAAVCSprite@@G@Z
_TEXT	SEGMENT PARA USE32 PUBLIC 'CODE'
_TEXT	ENDS
;	COMDAT ?Get@?$CTypePack2@VCSprite@@VCSprite555@@VCSprite565@@@@UAEAAVCSprite@@G@Z
_TEXT	SEGMENT PARA USE32 PUBLIC 'CODE'
_TEXT	ENDS
;	COMDAT ?SaveToFile@?$CTypePack2@VCSprite@@VCSprite555@@VCSprite565@@@@UAE_NPBD@Z
_TEXT	SEGMENT PARA USE32 PUBLIC 'CODE'
_TEXT	ENDS
;	COMDAT ?SaveToFile@?$CTypePack2@VCSprite@@VCSprite555@@VCSprite565@@@@UAE_NAAV?$basic_ofstream@DV?$char_traits@D@_STL@@@_STL@@0@Z
_TEXT	SEGMENT PARA USE32 PUBLIC 'CODE'
_TEXT	ENDS
;	COMDAT ?LoadFromFileRunning@?$CTypePack2@VCSprite@@VCSprite555@@VCSprite565@@@@UAE_NPBD@Z
_TEXT	SEGMENT PARA USE32 PUBLIC 'CODE'
_TEXT	ENDS
;	COMDAT ?LoadFromFile@?$CTypePack2@VCSprite@@VCSprite555@@VCSprite565@@@@UAE_NPBD@Z
_TEXT	SEGMENT PARA USE32 PUBLIC 'CODE'
_TEXT	ENDS
;	COMDAT ?LoadFromFilePart@?$CTypePack2@VCSprite@@VCSprite555@@VCSprite565@@@@UAE_NAAVCSpriteSetManager@@@Z
_TEXT	SEGMENT PARA USE32 PUBLIC 'CODE'
_TEXT	ENDS
;	COMDAT ?LoadFromFilePart@?$CTypePack2@VCSprite@@VCSprite555@@VCSprite565@@@@UAE_NHH@Z
_TEXT	SEGMENT PARA USE32 PUBLIC 'CODE'
_TEXT	ENDS
;	COMDAT ?LoadFromFileData@?$CTypePack2@VCSprite@@VCSprite555@@VCSprite565@@@@UAE_NHHPBD0@Z
_TEXT	SEGMENT PARA USE32 PUBLIC 'CODE'
_TEXT	ENDS
;	COMDAT ?ReleasePart@?$CTypePack2@VCSprite@@VCSprite555@@VCSprite565@@@@UAE_NV?$COrderedList@G@@@Z
_TEXT	SEGMENT PARA USE32 PUBLIC 'CODE'
_TEXT	ENDS
;	COMDAT ?ReleasePart@?$CTypePack2@VCSprite@@VCSprite555@@VCSprite565@@@@UAE_NHH@Z
_TEXT	SEGMENT PARA USE32 PUBLIC 'CODE'
_TEXT	ENDS
;	COMDAT ?FinishRunningLoad@?$CTypePack2@VCSprite@@VCSprite555@@VCSprite565@@@@UAEXXZ
_TEXT	SEGMENT PARA USE32 PUBLIC 'CODE'
_TEXT	ENDS
;	COMDAT ??$append@PBD@?$basic_string@DV?$char_traits@D@_STL@@V?$allocator@D@2@@_STL@@QAEAAV01@PBD0@Z
_TEXT	SEGMENT PARA USE32 PUBLIC 'CODE'
_TEXT	ENDS
;	COMDAT ??$?0PAVCSpriteSurface@@@?$allocator@U?$_List_node@PAVCSpriteSurface@@@_STL@@@_STL@@QAE@ABV?$allocator@PAVCSpriteSurface@@@1@@Z
_TEXT	SEGMENT PARA USE32 PUBLIC 'CODE'
_TEXT	ENDS
;	COMDAT ??$_Construct@PAVCSpriteSurface@@PAV1@@_STL@@YAXPAPAVCSpriteSurface@@ABQAV1@@Z
_TEXT	SEGMENT PARA USE32 PUBLIC 'CODE'
_TEXT	ENDS
;	COMDAT ??_G?$basic_string@DV?$char_traits@D@_STL@@V?$allocator@D@2@@_STL@@QAEPAXI@Z
_TEXT	SEGMENT PARA USE32 PUBLIC 'CODE'
_TEXT	ENDS
;	COMDAT ??_H@YGXPAXIHP6EPAX0@Z@Z
_TEXT	SEGMENT PARA USE32 PUBLIC 'CODE'
_TEXT	ENDS
;	COMDAT ??_G?$CTypePack@VCSpritePal@@@@UAEPAXI@Z
_TEXT	SEGMENT PARA USE32 PUBLIC 'CODE'
_TEXT	ENDS
;	COMDAT ??1?$map@GPAVivfstream@@U?$less@G@_STL@@V?$allocator@U?$pair@$$CBGPAVivfstream@@@_STL@@@3@@_STL@@QAE@XZ
_TEXT	SEGMENT PARA USE32 PUBLIC 'CODE'
_TEXT	ENDS
;	COMDAT ??_ECSpritePal@@UAEPAXI@Z
_TEXT	SEGMENT PARA USE32 PUBLIC 'CODE'
_TEXT	ENDS
;	COMDAT ??0CSpritePal@@QAE@XZ
_TEXT	SEGMENT PARA USE32 PUBLIC 'CODE'
_TEXT	ENDS
;	COMDAT ??1CSpritePal@@UAE@XZ
_TEXT	SEGMENT PARA USE32 PUBLIC 'CODE'
_TEXT	ENDS
;	COMDAT ??_D?$basic_ofstream@DV?$char_traits@D@_STL@@@_STL@@QAEXXZ
_TEXT	SEGMENT PARA USE32 PUBLIC 'CODE'
_TEXT	ENDS
;	COMDAT ??_G?$CTypePack2@VMPalette@@VMPalette555@@VMPalette565@@@@UAEPAXI@Z
_TEXT	SEGMENT PARA USE32 PUBLIC 'CODE'
_TEXT	ENDS
;	COMDAT ??_EMPalette565@@QAEPAXI@Z
_TEXT	SEGMENT PARA USE32 PUBLIC 'CODE'
_TEXT	ENDS
;	COMDAT ??0MPalette565@@QAE@XZ
_TEXT	SEGMENT PARA USE32 PUBLIC 'CODE'
_TEXT	ENDS
;	COMDAT ??1MPalette565@@QAE@XZ
_TEXT	SEGMENT PARA USE32 PUBLIC 'CODE'
_TEXT	ENDS
;	COMDAT ??_EMPalette555@@QAEPAXI@Z
_TEXT	SEGMENT PARA USE32 PUBLIC 'CODE'
_TEXT	ENDS
;	COMDAT ??0MPalette555@@QAE@XZ
_TEXT	SEGMENT PARA USE32 PUBLIC 'CODE'
_TEXT	ENDS
;	COMDAT ??1MPalette555@@QAE@XZ
_TEXT	SEGMENT PARA USE32 PUBLIC 'CODE'
_TEXT	ENDS
;	COMDAT ??_EMPalette@@QAEPAXI@Z
_TEXT	SEGMENT PARA USE32 PUBLIC 'CODE'
_TEXT	ENDS
;	COMDAT ??_G?$CTypePack2@VCSprite@@VCSprite555@@VCSprite565@@@@UAEPAXI@Z
_TEXT	SEGMENT PARA USE32 PUBLIC 'CODE'
_TEXT	ENDS
;	COMDAT ??_ECSprite565@@QAEPAXI@Z
_TEXT	SEGMENT PARA USE32 PUBLIC 'CODE'
_TEXT	ENDS
;	COMDAT ??0CSprite565@@QAE@XZ
_TEXT	SEGMENT PARA USE32 PUBLIC 'CODE'
_TEXT	ENDS
;	COMDAT ??1CSprite565@@QAE@XZ
_TEXT	SEGMENT PARA USE32 PUBLIC 'CODE'
_TEXT	ENDS
;	COMDAT ??_ECSprite555@@QAEPAXI@Z
_TEXT	SEGMENT PARA USE32 PUBLIC 'CODE'
_TEXT	ENDS
;	COMDAT ??0CSprite555@@QAE@XZ
_TEXT	SEGMENT PARA USE32 PUBLIC 'CODE'
_TEXT	ENDS
;	COMDAT ??1CSprite555@@QAE@XZ
_TEXT	SEGMENT PARA USE32 PUBLIC 'CODE'
_TEXT	ENDS
;	COMDAT ??_ECSprite@@QAEPAXI@Z
_TEXT	SEGMENT PARA USE32 PUBLIC 'CODE'
_TEXT	ENDS
;	COMDAT ??_GCSpritePal@@UAEPAXI@Z
_TEXT	SEGMENT PARA USE32 PUBLIC 'CODE'
_TEXT	ENDS
;	COMDAT ??Y?$basic_string@DV?$char_traits@D@_STL@@V?$allocator@D@2@@_STL@@QAEAAV01@PBD@Z
_TEXT	SEGMENT PARA USE32 PUBLIC 'CODE'
_TEXT	ENDS
;	COMDAT ??Y?$basic_string@DV?$char_traits@D@_STL@@V?$allocator@D@2@@_STL@@QAEAAV01@D@Z
_TEXT	SEGMENT PARA USE32 PUBLIC 'CODE'
_TEXT	ENDS
;	COMDAT ?c_str@?$basic_string@DV?$char_traits@D@_STL@@V?$allocator@D@2@@_STL@@QBEPBDXZ
_TEXT	SEGMENT PARA USE32 PUBLIC 'CODE'
_TEXT	ENDS
;	COMDAT ??0?$allocator@G@_STL@@QAE@XZ
_TEXT	SEGMENT PARA USE32 PUBLIC 'CODE'
_TEXT	ENDS
;	COMDAT ?tellp@?$basic_ostream@DV?$char_traits@D@_STL@@@_STL@@QAE?AV?$fpos@H@2@XZ
_TEXT	SEGMENT PARA USE32 PUBLIC 'CODE'
_TEXT	ENDS
;	COMDAT ?seekp@?$basic_ostream@DV?$char_traits@D@_STL@@@_STL@@QAEAAV12@V?$fpos@H@2@@Z
_TEXT	SEGMENT PARA USE32 PUBLIC 'CODE'
_TEXT	ENDS
;	COMDAT ?_M_exit_putback_mode@?$basic_filebuf@DV?$char_traits@D@_STL@@@_STL@@AAEXXZ
_TEXT	SEGMENT PARA USE32 PUBLIC 'CODE'
_TEXT	ENDS
;	COMDAT ??R?$_Eq_traits@V?$char_traits@D@_STL@@@_STL@@QBE_NABD0@Z
_TEXT	SEGMENT PARA USE32 PUBLIC 'CODE'
_TEXT	ENDS
;	COMDAT ?GetSize@?$CSetManager@GG@@QBEGXZ
_TEXT	SEGMENT PARA USE32 PUBLIC 'CODE'
_TEXT	ENDS
;	COMDAT ?GetIterator@?$CSetManager@GG@@QBE?AU?$_List_iterator@GU?$_Const_traits@G@_STL@@@_STL@@XZ
_TEXT	SEGMENT PARA USE32 PUBLIC 'CODE'
_TEXT	ENDS
;	COMDAT ??0?$list@GV?$allocator@G@_STL@@@_STL@@QAE@ABV?$allocator@G@1@@Z
_TEXT	SEGMENT PARA USE32 PUBLIC 'CODE'
_TEXT	ENDS
;	COMDAT ?begin@?$list@GV?$allocator@G@_STL@@@_STL@@QAE?AU?$_List_iterator@GU?$_Nonconst_traits@G@_STL@@@2@XZ
_TEXT	SEGMENT PARA USE32 PUBLIC 'CODE'
_TEXT	ENDS
;	COMDAT ?end@?$list@GV?$allocator@G@_STL@@@_STL@@QAE?AU?$_List_iterator@GU?$_Nonconst_traits@G@_STL@@@2@XZ
_TEXT	SEGMENT PARA USE32 PUBLIC 'CODE'
_TEXT	ENDS
;	COMDAT ?push_front@?$list@GV?$allocator@G@_STL@@@_STL@@QAEXABG@Z
_TEXT	SEGMENT PARA USE32 PUBLIC 'CODE'
_TEXT	ENDS
;	COMDAT ?erase@?$list@GV?$allocator@G@_STL@@@_STL@@QAE?AU?$_List_iterator@GU?$_Nonconst_traits@G@_STL@@@2@U32@@Z
_TEXT	SEGMENT PARA USE32 PUBLIC 'CODE'
_TEXT	ENDS
;	COMDAT ??1?$list@GV?$allocator@G@_STL@@@_STL@@QAE@XZ
_TEXT	SEGMENT PARA USE32 PUBLIC 'CODE'
_TEXT	ENDS
;	COMDAT ?begin@?$map@GPAVivfstream@@U?$less@G@_STL@@V?$allocator@U?$pair@$$CBGPAVivfstream@@@_STL@@@3@@_STL@@QAE?AU?$_Rb_tree_iterator@U?$pair@$$CBGPAVivfstream@@@_STL@@U?$_Nonconst_traits@U?$pair@$$CBGPAVivfstream@@@_STL@@@2@@2@XZ
_TEXT	SEGMENT PARA USE32 PUBLIC 'CODE'
_TEXT	ENDS
;	COMDAT ?end@?$map@GPAVivfstream@@U?$less@G@_STL@@V?$allocator@U?$pair@$$CBGPAVivfstream@@@_STL@@@3@@_STL@@QAE?AU?$_Rb_tree_iterator@U?$pair@$$CBGPAVivfstream@@@_STL@@U?$_Nonconst_traits@U?$pair@$$CBGPAVivfstream@@@_STL@@@2@@2@XZ
_TEXT	SEGMENT PARA USE32 PUBLIC 'CODE'
_TEXT	ENDS
;	COMDAT ?insert@?$map@GPAVivfstream@@U?$less@G@_STL@@V?$allocator@U?$pair@$$CBGPAVivfstream@@@_STL@@@3@@_STL@@QAE?AU?$pair@U?$_Rb_tree_iterator@U?$pair@$$CBGPAVivfstream@@@_STL@@U?$_Nonconst_traits@U?$pair@$$CBGPAVivfstream@@@_STL@@@2@@_STL@@_N@2@ABU?$pair@$$CBGPAVivfstream@@@2@@Z
_TEXT	SEGMENT PARA USE32 PUBLIC 'CODE'
_TEXT	ENDS
;	COMDAT ?erase@?$map@GPAVivfstream@@U?$less@G@_STL@@V?$allocator@U?$pair@$$CBGPAVivfstream@@@_STL@@@3@@_STL@@QAEXU?$_Rb_tree_iterator@U?$pair@$$CBGPAVivfstream@@@_STL@@U?$_Nonconst_traits@U?$pair@$$CBGPAVivfstream@@@_STL@@@2@@2@@Z
_TEXT	SEGMENT PARA USE32 PUBLIC 'CODE'
_TEXT	ENDS
;	COMDAT ?clear@?$map@GPAVivfstream@@U?$less@G@_STL@@V?$allocator@U?$pair@$$CBGPAVivfstream@@@_STL@@@3@@_STL@@QAEXXZ
_TEXT	SEGMENT PARA USE32 PUBLIC 'CODE'
_TEXT	ENDS
;	COMDAT ?find@?$map@GPAVivfstream@@U?$less@G@_STL@@V?$allocator@U?$pair@$$CBGPAVivfstream@@@_STL@@@3@@_STL@@QAE?AU?$_Rb_tree_iterator@U?$pair@$$CBGPAVivfstream@@@_STL@@U?$_Nonconst_traits@U?$pair@$$CBGPAVivfstream@@@_STL@@@2@@2@ABG@Z
_TEXT	SEGMENT PARA USE32 PUBLIC 'CODE'
_TEXT	ENDS
;	COMDAT ??1?$_Rb_tree@GU?$pair@$$CBGPAVivfstream@@@_STL@@U?$_Select1st@U?$pair@$$CBGPAVivfstream@@@_STL@@@2@U?$less@G@2@V?$allocator@U?$pair@$$CBGPAVivfstream@@@_STL@@@2@@_STL@@QAE@XZ
_TEXT	SEGMENT PARA USE32 PUBLIC 'CODE'
_TEXT	ENDS
;	COMDAT ??0?$_List_iterator@GU?$_Nonconst_traits@G@_STL@@@_STL@@QAE@XZ
_TEXT	SEGMENT PARA USE32 PUBLIC 'CODE'
_TEXT	ENDS
;	COMDAT ??0?$_List_iterator@GU?$_Nonconst_traits@G@_STL@@@_STL@@QAE@ABU01@@Z
_TEXT	SEGMENT PARA USE32 PUBLIC 'CODE'
_TEXT	ENDS
;	COMDAT ??0?$_Rb_tree_iterator@U?$pair@$$CBGPAVivfstream@@@_STL@@U?$_Nonconst_traits@U?$pair@$$CBGPAVivfstream@@@_STL@@@2@@_STL@@QAE@ABU01@@Z
_TEXT	SEGMENT PARA USE32 PUBLIC 'CODE'
_TEXT	ENDS
;	COMDAT ??C?$_Rb_tree_iterator@U?$pair@$$CBGPAVivfstream@@@_STL@@U?$_Nonconst_traits@U?$pair@$$CBGPAVivfstream@@@_STL@@@2@@_STL@@QBEPAU?$pair@$$CBGPAVivfstream@@@1@XZ
_TEXT	SEGMENT PARA USE32 PUBLIC 'CODE'
_TEXT	ENDS
;	COMDAT ??E?$_Rb_tree_iterator@U?$pair@$$CBGPAVivfstream@@@_STL@@U?$_Nonconst_traits@U?$pair@$$CBGPAVivfstream@@@_STL@@@2@@_STL@@QAEAAU01@XZ
_TEXT	SEGMENT PARA USE32 PUBLIC 'CODE'
_TEXT	ENDS
;	COMDAT ??0?$pair@$$CBGPAVivfstream@@@_STL@@QAE@ABGABQAVivfstream@@@Z
_TEXT	SEGMENT PARA USE32 PUBLIC 'CODE'
_TEXT	ENDS
;	COMDAT ??0?$basic_ofstream@DV?$char_traits@D@_STL@@@_STL@@QAE@PBDH@Z
_TEXT	SEGMENT PARA USE32 PUBLIC 'CODE'
_TEXT	ENDS
;	COMDAT ??1?$basic_ofstream@DV?$char_traits@D@_STL@@@_STL@@UAE@XZ
_TEXT	SEGMENT PARA USE32 PUBLIC 'CODE'
_TEXT	ENDS
;	COMDAT ?close@?$basic_ofstream@DV?$char_traits@D@_STL@@@_STL@@QAEXXZ
_TEXT	SEGMENT PARA USE32 PUBLIC 'CODE'
_TEXT	ENDS
;	COMDAT ?size@?$vector@KV?$allocator@K@_STL@@@_STL@@QBEIXZ
_TEXT	SEGMENT PARA USE32 PUBLIC 'CODE'
_TEXT	ENDS
;	COMDAT ??A?$vector@KV?$allocator@K@_STL@@@_STL@@QAEAAKI@Z
_TEXT	SEGMENT PARA USE32 PUBLIC 'CODE'
_TEXT	ENDS
;	COMDAT ??0?$vector@KV?$allocator@K@_STL@@@_STL@@QAE@ABV?$allocator@K@1@@Z
_TEXT	SEGMENT PARA USE32 PUBLIC 'CODE'
_TEXT	ENDS
;	COMDAT ??1?$vector@KV?$allocator@K@_STL@@@_STL@@QAE@XZ
_TEXT	SEGMENT PARA USE32 PUBLIC 'CODE'
_TEXT	ENDS
;	COMDAT ?push_back@?$vector@KV?$allocator@K@_STL@@@_STL@@QAEXABK@Z
_TEXT	SEGMENT PARA USE32 PUBLIC 'CODE'
_TEXT	ENDS
;	COMDAT ??0?$allocator@K@_STL@@QAE@XZ
_TEXT	SEGMENT PARA USE32 PUBLIC 'CODE'
_TEXT	ENDS
;	COMDAT ??1?$allocator@K@_STL@@QAE@XZ
_TEXT	SEGMENT PARA USE32 PUBLIC 'CODE'
_TEXT	ENDS
;	COMDAT ??D?$_List_iterator@GU?$_Const_traits@G@_STL@@@_STL@@QBEABGXZ
_TEXT	SEGMENT PARA USE32 PUBLIC 'CODE'
_TEXT	ENDS
;	COMDAT ??E?$_List_iterator@GU?$_Const_traits@G@_STL@@@_STL@@QAEAAU01@XZ
_TEXT	SEGMENT PARA USE32 PUBLIC 'CODE'
_TEXT	ENDS
;	COMDAT ?GetSize@?$COrderedList@G@@QBEHXZ
_TEXT	SEGMENT PARA USE32 PUBLIC 'CODE'
_TEXT	ENDS
;	COMDAT ?GetIterator@?$COrderedList@G@@QBE?AU?$_List_iterator@GU?$_Const_traits@G@_STL@@@_STL@@XZ
_TEXT	SEGMENT PARA USE32 PUBLIC 'CODE'
_TEXT	ENDS
;	COMDAT ??_G?$basic_ofstream@DV?$char_traits@D@_STL@@@_STL@@UAEPAXI@Z
_TEXT	SEGMENT PARA USE32 PUBLIC 'CODE'
_TEXT	ENDS
;	COMDAT ?append@?$basic_string@DV?$char_traits@D@_STL@@V?$allocator@D@2@@_STL@@QAEAAV12@PBD@Z
_TEXT	SEGMENT PARA USE32 PUBLIC 'CODE'
_TEXT	ENDS
;	COMDAT ?push_back@?$basic_string@DV?$char_traits@D@_STL@@V?$allocator@D@2@@_STL@@QAEXD@Z
_TEXT	SEGMENT PARA USE32 PUBLIC 'CODE'
_TEXT	ENDS
;	COMDAT ?rdbuf@?$basic_ios@DV?$char_traits@D@_STL@@@_STL@@QBEPAV?$basic_streambuf@DV?$char_traits@D@_STL@@@2@XZ
_TEXT	SEGMENT PARA USE32 PUBLIC 'CODE'
_TEXT	ENDS
;	COMDAT ?setstate@?$basic_ios@DV?$char_traits@D@_STL@@@_STL@@QAEXH@Z
_TEXT	SEGMENT PARA USE32 PUBLIC 'CODE'
_TEXT	ENDS
;	COMDAT ?open@?$basic_filebuf@DV?$char_traits@D@_STL@@@_STL@@QAEPAV12@PBDH@Z
_TEXT	SEGMENT PARA USE32 PUBLIC 'CODE'
_TEXT	ENDS
;	COMDAT ?begin@?$list@GV?$allocator@G@_STL@@@_STL@@QBE?AU?$_List_iterator@GU?$_Const_traits@G@_STL@@@2@XZ
_TEXT	SEGMENT PARA USE32 PUBLIC 'CODE'
_TEXT	ENDS
;	COMDAT ?size@?$list@GV?$allocator@G@_STL@@@_STL@@QBEIXZ
_TEXT	SEGMENT PARA USE32 PUBLIC 'CODE'
_TEXT	ENDS
;	COMDAT ?insert@?$list@GV?$allocator@G@_STL@@@_STL@@QAE?AU?$_List_iterator@GU?$_Nonconst_traits@G@_STL@@@2@U32@ABG@Z
_TEXT	SEGMENT PARA USE32 PUBLIC 'CODE'
_TEXT	ENDS
;	COMDAT ??0?$_List_base@GV?$allocator@G@_STL@@@_STL@@QAE@ABV?$allocator@G@1@@Z
_TEXT	SEGMENT PARA USE32 PUBLIC 'CODE'
_TEXT	ENDS
;	COMDAT ??1?$_List_base@GV?$allocator@G@_STL@@@_STL@@QAE@XZ
_TEXT	SEGMENT PARA USE32 PUBLIC 'CODE'
_TEXT	ENDS
;	COMDAT ?deallocate@?$allocator@U?$_List_node@G@_STL@@@_STL@@QAEXPAU?$_List_node@G@2@I@Z
_TEXT	SEGMENT PARA USE32 PUBLIC 'CODE'
_TEXT	ENDS
;	COMDAT ?begin@?$_Rb_tree@GU?$pair@$$CBGPAVivfstream@@@_STL@@U?$_Select1st@U?$pair@$$CBGPAVivfstream@@@_STL@@@2@U?$less@G@2@V?$allocator@U?$pair@$$CBGPAVivfstream@@@_STL@@@2@@_STL@@QAE?AU?$_Rb_tree_iterator@U?$pair@$$CBGPAVivfstream@@@_STL@@U?$_Nonconst_traits@U?$pair@$$CBGPAVivfstream@@@_STL@@@2@@2@XZ
_TEXT	SEGMENT PARA USE32 PUBLIC 'CODE'
_TEXT	ENDS
;	COMDAT ?end@?$_Rb_tree@GU?$pair@$$CBGPAVivfstream@@@_STL@@U?$_Select1st@U?$pair@$$CBGPAVivfstream@@@_STL@@@2@U?$less@G@2@V?$allocator@U?$pair@$$CBGPAVivfstream@@@_STL@@@2@@_STL@@QAE?AU?$_Rb_tree_iterator@U?$pair@$$CBGPAVivfstream@@@_STL@@U?$_Nonconst_traits@U?$pair@$$CBGPAVivfstream@@@_STL@@@2@@2@XZ
_TEXT	SEGMENT PARA USE32 PUBLIC 'CODE'
_TEXT	ENDS
;	COMDAT ?erase@?$_Rb_tree@GU?$pair@$$CBGPAVivfstream@@@_STL@@U?$_Select1st@U?$pair@$$CBGPAVivfstream@@@_STL@@@2@U?$less@G@2@V?$allocator@U?$pair@$$CBGPAVivfstream@@@_STL@@@2@@_STL@@QAEXU?$_Rb_tree_iterator@U?$pair@$$CBGPAVivfstream@@@_STL@@U?$_Nonconst_traits@U?$pair@$$CBGPAVivfstream@@@_STL@@@2@@2@@Z
_TEXT	SEGMENT PARA USE32 PUBLIC 'CODE'
_TEXT	ENDS
;	COMDAT ?clear@?$_Rb_tree@GU?$pair@$$CBGPAVivfstream@@@_STL@@U?$_Select1st@U?$pair@$$CBGPAVivfstream@@@_STL@@@2@U?$less@G@2@V?$allocator@U?$pair@$$CBGPAVivfstream@@@_STL@@@2@@_STL@@QAEXXZ
_TEXT	SEGMENT PARA USE32 PUBLIC 'CODE'
_TEXT	ENDS
;	COMDAT ??1?$_Rb_tree_base@U?$pair@$$CBGPAVivfstream@@@_STL@@V?$allocator@U?$pair@$$CBGPAVivfstream@@@_STL@@@2@@_STL@@QAE@XZ
_TEXT	SEGMENT PARA USE32 PUBLIC 'CODE'
_TEXT	ENDS
;	COMDAT ??0?$_List_iterator@GU?$_Nonconst_traits@G@_STL@@@_STL@@QAE@PAU?$_List_node@G@1@@Z
_TEXT	SEGMENT PARA USE32 PUBLIC 'CODE'
_TEXT	ENDS
;	COMDAT ??D?$_Rb_tree_iterator@U?$pair@$$CBGPAVivfstream@@@_STL@@U?$_Nonconst_traits@U?$pair@$$CBGPAVivfstream@@@_STL@@@2@@_STL@@QBEAAU?$pair@$$CBGPAVivfstream@@@1@XZ
_TEXT	SEGMENT PARA USE32 PUBLIC 'CODE'
_TEXT	ENDS
;	COMDAT ?rdbuf@?$basic_ofstream@DV?$char_traits@D@_STL@@@_STL@@QBEPAV?$basic_filebuf@DV?$char_traits@D@_STL@@@2@XZ
_TEXT	SEGMENT PARA USE32 PUBLIC 'CODE'
_TEXT	ENDS
;	COMDAT ?_M_insert_overflow@?$vector@KV?$allocator@K@_STL@@@_STL@@IAEXPAKABKABU__true_type@2@I_N@Z
_TEXT	SEGMENT PARA USE32 PUBLIC 'CODE'
_TEXT	ENDS
;	COMDAT ?begin@?$vector@KV?$allocator@K@_STL@@@_STL@@QAEPAKXZ
_TEXT	SEGMENT PARA USE32 PUBLIC 'CODE'
_TEXT	ENDS
;	COMDAT ??0?$_Vector_base@KV?$allocator@K@_STL@@@_STL@@QAE@ABV?$allocator@K@1@@Z
_TEXT	SEGMENT PARA USE32 PUBLIC 'CODE'
_TEXT	ENDS
;	COMDAT ??1?$_Vector_base@KV?$allocator@K@_STL@@@_STL@@QAE@XZ
_TEXT	SEGMENT PARA USE32 PUBLIC 'CODE'
_TEXT	ENDS
;	COMDAT ??1?$_STLP_alloc_proxy@PAU?$_List_node@G@_STL@@U12@V?$allocator@U?$_List_node@G@_STL@@@2@@_STL@@QAE@XZ
_TEXT	SEGMENT PARA USE32 PUBLIC 'CODE'
_TEXT	ENDS
;	COMDAT ??1?$_STLP_alloc_proxy@PAU?$_Rb_tree_node@U?$pair@$$CBGPAVivfstream@@@_STL@@@_STL@@U12@V?$allocator@U?$_Rb_tree_node@U?$pair@$$CBGPAVivfstream@@@_STL@@@_STL@@@2@@_STL@@QAE@XZ
_TEXT	SEGMENT PARA USE32 PUBLIC 'CODE'
_TEXT	ENDS
;	COMDAT ??1?$_STLP_alloc_proxy@PAKKV?$allocator@K@_STL@@@_STL@@QAE@XZ
_TEXT	SEGMENT PARA USE32 PUBLIC 'CODE'
_TEXT	ENDS
;	COMDAT ?_M_construct_null@?$basic_string@DV?$char_traits@D@_STL@@V?$allocator@D@2@@_STL@@AAEXPAD@Z
_TEXT	SEGMENT PARA USE32 PUBLIC 'CODE'
_TEXT	ENDS
;	COMDAT ?clear@?$basic_ios@DV?$char_traits@D@_STL@@@_STL@@QAEXH@Z
_TEXT	SEGMENT PARA USE32 PUBLIC 'CODE'
_TEXT	ENDS
;	COMDAT ?_M_create_node@?$list@GV?$allocator@G@_STL@@@_STL@@IAEPAU?$_List_node@G@2@ABG@Z
_TEXT	SEGMENT PARA USE32 PUBLIC 'CODE'
_TEXT	ENDS
;	COMDAT ?end@?$list@GV?$allocator@G@_STL@@@_STL@@QBE?AU?$_List_iterator@GU?$_Const_traits@G@_STL@@@2@XZ
_TEXT	SEGMENT PARA USE32 PUBLIC 'CODE'
_TEXT	ENDS
;	COMDAT ??0?$_STLP_alloc_proxy@PAU?$_List_node@G@_STL@@U12@V?$allocator@U?$_List_node@G@_STL@@@2@@_STL@@QAE@ABV?$allocator@U?$_List_node@G@_STL@@@1@PAU?$_List_node@G@1@@Z
_TEXT	SEGMENT PARA USE32 PUBLIC 'CODE'
_TEXT	ENDS
;	COMDAT ??1?$allocator@U?$_List_node@G@_STL@@@_STL@@QAE@XZ
_TEXT	SEGMENT PARA USE32 PUBLIC 'CODE'
_TEXT	ENDS
;	COMDAT ?allocate@?$allocator@U?$_List_node@G@_STL@@@_STL@@QAEPAU?$_List_node@G@2@IPBX@Z
_TEXT	SEGMENT PARA USE32 PUBLIC 'CODE'
_TEXT	ENDS
;	COMDAT ?_M_root@?$_Rb_tree@GU?$pair@$$CBGPAVivfstream@@@_STL@@U?$_Select1st@U?$pair@$$CBGPAVivfstream@@@_STL@@@2@U?$less@G@2@V?$allocator@U?$pair@$$CBGPAVivfstream@@@_STL@@@2@@_STL@@IBEAAPAU?$_Rb_tree_node@U?$pair@$$CBGPAVivfstream@@@_STL@@@2@XZ
_TEXT	SEGMENT PARA USE32 PUBLIC 'CODE'
_TEXT	ENDS
;	COMDAT ?_M_leftmost@?$_Rb_tree@GU?$pair@$$CBGPAVivfstream@@@_STL@@U?$_Select1st@U?$pair@$$CBGPAVivfstream@@@_STL@@@2@U?$less@G@2@V?$allocator@U?$pair@$$CBGPAVivfstream@@@_STL@@@2@@_STL@@IBEAAPAU?$_Rb_tree_node@U?$pair@$$CBGPAVivfstream@@@_STL@@@2@XZ
_TEXT	SEGMENT PARA USE32 PUBLIC 'CODE'
_TEXT	ENDS
;	COMDAT ?_M_rightmost@?$_Rb_tree@GU?$pair@$$CBGPAVivfstream@@@_STL@@U?$_Select1st@U?$pair@$$CBGPAVivfstream@@@_STL@@@2@U?$less@G@2@V?$allocator@U?$pair@$$CBGPAVivfstream@@@_STL@@@2@@_STL@@IBEAAPAU?$_Rb_tree_node@U?$pair@$$CBGPAVivfstream@@@_STL@@@2@XZ
_TEXT	SEGMENT PARA USE32 PUBLIC 'CODE'
_TEXT	ENDS
;	COMDAT ??1?$allocator@U?$_Rb_tree_node@U?$pair@$$CBGPAVivfstream@@@_STL@@@_STL@@@_STL@@QAE@XZ
_TEXT	SEGMENT PARA USE32 PUBLIC 'CODE'
_TEXT	ENDS
;	COMDAT ?deallocate@?$allocator@U?$_Rb_tree_node@U?$pair@$$CBGPAVivfstream@@@_STL@@@_STL@@@_STL@@QAEXPAU?$_Rb_tree_node@U?$pair@$$CBGPAVivfstream@@@_STL@@@2@I@Z
_TEXT	SEGMENT PARA USE32 PUBLIC 'CODE'
_TEXT	ENDS
;	COMDAT ??0?$_Rb_tree_iterator@U?$pair@$$CBGPAVivfstream@@@_STL@@U?$_Nonconst_traits@U?$pair@$$CBGPAVivfstream@@@_STL@@@2@@_STL@@QAE@PAU?$_Rb_tree_node@U?$pair@$$CBGPAVivfstream@@@_STL@@@1@@Z
_TEXT	SEGMENT PARA USE32 PUBLIC 'CODE'
_TEXT	ENDS
;	COMDAT ?_M_clear@?$vector@KV?$allocator@K@_STL@@@_STL@@IAEXXZ
_TEXT	SEGMENT PARA USE32 PUBLIC 'CODE'
_TEXT	ENDS
;	COMDAT ?_M_set@?$vector@KV?$allocator@K@_STL@@@_STL@@IAEXPAK00@Z
_TEXT	SEGMENT PARA USE32 PUBLIC 'CODE'
_TEXT	ENDS
;	COMDAT ?allocate@?$allocator@K@_STL@@QAEPAKIPBX@Z
_TEXT	SEGMENT PARA USE32 PUBLIC 'CODE'
_TEXT	ENDS
;	COMDAT ?deallocate@?$allocator@K@_STL@@QAEXPAKI@Z
_TEXT	SEGMENT PARA USE32 PUBLIC 'CODE'
_TEXT	ENDS
;	COMDAT ??0?$_STLP_alloc_proxy@PAKKV?$allocator@K@_STL@@@_STL@@QAE@ABV?$allocator@K@1@PAK@Z
_TEXT	SEGMENT PARA USE32 PUBLIC 'CODE'
_TEXT	ENDS
;	COMDAT ??0?$_List_iterator@GU?$_Const_traits@G@_STL@@@_STL@@QAE@PAU?$_List_node@G@1@@Z
_TEXT	SEGMENT PARA USE32 PUBLIC 'CODE'
_TEXT	ENDS
;	COMDAT ?_M_construct_null_aux@?$basic_string@DV?$char_traits@D@_STL@@V?$allocator@D@2@@_STL@@AAEXPADABU__true_type@2@@Z
_TEXT	SEGMENT PARA USE32 PUBLIC 'CODE'
_TEXT	ENDS
;	COMDAT ??0?$allocator@U?$_List_node@G@_STL@@@_STL@@QAE@ABV01@@Z
_TEXT	SEGMENT PARA USE32 PUBLIC 'CODE'
_TEXT	ENDS
;	COMDAT ??0?$allocator@K@_STL@@QAE@ABV01@@Z
_TEXT	SEGMENT PARA USE32 PUBLIC 'CODE'
_TEXT	ENDS
;	COMDAT ?reserve@?$basic_string@DV?$char_traits@D@_STL@@V?$allocator@D@2@@_STL@@QAEXI@Z
_TEXT	SEGMENT PARA USE32 PUBLIC 'CODE'
_TEXT	ENDS
;	COMDAT ??$_M_range_initialize@PBD@?$basic_string@DV?$char_traits@D@_STL@@V?$allocator@D@2@@_STL@@AAEXPBD0ABUforward_iterator_tag@1@@Z
_TEXT	SEGMENT PARA USE32 PUBLIC 'CODE'
_TEXT	ENDS
;	COMDAT ??$_M_range_initialize@PAD@?$basic_string@DV?$char_traits@D@_STL@@V?$allocator@D@2@@_STL@@AAEXPAD0ABUforward_iterator_tag@1@@Z
_TEXT	SEGMENT PARA USE32 PUBLIC 'CODE'
_TEXT	ENDS
;	COMDAT ??0?$basic_filebuf@DV?$char_traits@D@_STL@@@_STL@@QAE@XZ
_TEXT	SEGMENT PARA USE32 PUBLIC 'CODE'
_TEXT	ENDS
;	COMDAT ?_M_unshift@?$basic_filebuf@DV?$char_traits@D@_STL@@@_STL@@AAE_NXZ
_TEXT	SEGMENT PARA USE32 PUBLIC 'CODE'
_TEXT	ENDS
;	COMDAT ?_M_allocate_buffers@?$basic_filebuf@DV?$char_traits@D@_STL@@@_STL@@AAE_NXZ
_TEXT	SEGMENT PARA USE32 PUBLIC 'CODE'
_TEXT	ENDS
;	COMDAT ??$max@H@_STL@@YAABHABH0@Z
_TEXT	SEGMENT PARA USE32 PUBLIC 'CODE'
_TEXT	ENDS
;	COMDAT ??$use_facet@V?$codecvt@DDH@_STL@@@_STL@@YAABV?$codecvt@DDH@0@ABVlocale@0@@Z
_TEXT	SEGMENT PARA USE32 PUBLIC 'CODE'
_TEXT	ENDS
;	COMDAT ??$append@PAD@?$basic_string@DV?$char_traits@D@_STL@@V?$allocator@D@2@@_STL@@QAEAAV01@PAD0@Z
_TEXT	SEGMENT PARA USE32 PUBLIC 'CODE'
_TEXT	ENDS
;	COMDAT ?Release@?$CPartManager@GGPAVCSpriteSurface@@@@QAEXXZ
_TEXT	SEGMENT PARA USE32 PUBLIC 'CODE'
_TEXT	ENDS
;	COMDAT ?GetLRU@?$CPartManager@GGPAVCSpriteSurface@@@@IBEGXZ
_TEXT	SEGMENT PARA USE32 PUBLIC 'CODE'
_TEXT	ENDS
;	COMDAT ?clear@?$_List_base@GV?$allocator@G@_STL@@@_STL@@QAEXXZ
_TEXT	SEGMENT PARA USE32 PUBLIC 'CODE'
_TEXT	ENDS
;	COMDAT ?LogTwoMultiplier@?$CTypePack@VCSpritePal@@@@KAHH@Z
_TEXT	SEGMENT PARA USE32 PUBLIC 'CODE'
_TEXT	ENDS
;	COMDAT ?GetSplitFile@?$CTypePack@VCSpritePal@@@@IAEHHPAD@Z
_TEXT	SEGMENT PARA USE32 PUBLIC 'CODE'
_TEXT	ENDS
;	COMDAT ??0?$basic_ostream@DV?$char_traits@D@_STL@@@_STL@@QAE@PAV?$basic_streambuf@DV?$char_traits@D@_STL@@@1@@Z
_TEXT	SEGMENT PARA USE32 PUBLIC 'CODE'
_TEXT	ENDS
;	COMDAT ?write@?$basic_ostream@DV?$char_traits@D@_STL@@@_STL@@QAEAAV12@PBDH@Z
_TEXT	SEGMENT PARA USE32 PUBLIC 'CODE'
_TEXT	ENDS
;	COMDAT ??1?$COrderedList@G@@QAE@XZ
_TEXT	SEGMENT PARA USE32 PUBLIC 'CODE'
_TEXT	ENDS
;	COMDAT ??$_Destroy@PAVCSpriteSurface@@@_STL@@YAXPAPAVCSpriteSurface@@@Z
_TEXT	SEGMENT PARA USE32 PUBLIC 'CODE'
_TEXT	ENDS
;	COMDAT ?LogTwoMultiplier@?$CTypePack2@VMPalette@@VMPalette555@@VMPalette565@@@@KAHH@Z
_TEXT	SEGMENT PARA USE32 PUBLIC 'CODE'
_TEXT	ENDS
;	COMDAT ?GetSplitFile@?$CTypePack2@VMPalette@@VMPalette555@@VMPalette565@@@@IAEHHPAD@Z
_TEXT	SEGMENT PARA USE32 PUBLIC 'CODE'
_TEXT	ENDS
;	COMDAT ??$?HDV?$char_traits@D@_STL@@V?$allocator@D@1@@_STL@@YA?AV?$basic_string@DV?$char_traits@D@_STL@@V?$allocator@D@2@@0@ABV10@PBD@Z
_TEXT	SEGMENT PARA USE32 PUBLIC 'CODE'
_TEXT	ENDS
;	COMDAT ?LogTwoMultiplier@?$CTypePack2@VCSprite@@VCSprite555@@VCSprite565@@@@KAHH@Z
_TEXT	SEGMENT PARA USE32 PUBLIC 'CODE'
_TEXT	ENDS
;	COMDAT ?GetSplitFile@?$CTypePack2@VCSprite@@VCSprite555@@VCSprite565@@@@IAEHHPAD@Z
_TEXT	SEGMENT PARA USE32 PUBLIC 'CODE'
_TEXT	ENDS
;	COMDAT ??$_M_append_dispatch@PBD@?$basic_string@DV?$char_traits@D@_STL@@V?$allocator@D@2@@_STL@@AAEAAV01@PBD0ABU__false_type@1@@Z
_TEXT	SEGMENT PARA USE32 PUBLIC 'CODE'
_TEXT	ENDS
;	COMDAT ?_M_erase@?$_Rb_tree@GU?$pair@$$CBGPAVivfstream@@@_STL@@U?$_Select1st@U?$pair@$$CBGPAVivfstream@@@_STL@@@2@U?$less@G@2@V?$allocator@U?$pair@$$CBGPAVivfstream@@@_STL@@@2@@_STL@@AAEXPAU?$_Rb_tree_node@U?$pair@$$CBGPAVivfstream@@@_STL@@@2@@Z
_TEXT	SEGMENT PARA USE32 PUBLIC 'CODE'
_TEXT	ENDS
;	COMDAT ?insert_unique@?$_Rb_tree@GU?$pair@$$CBGPAVivfstream@@@_STL@@U?$_Select1st@U?$pair@$$CBGPAVivfstream@@@_STL@@@2@U?$less@G@2@V?$allocator@U?$pair@$$CBGPAVivfstream@@@_STL@@@2@@_STL@@QAE?AU?$pair@U?$_Rb_tree_iterator@U?$pair@$$CBGPAVivfstream@@@_STL@@U?$_Nonconst_traits@U?$pair@$$CBGPAVivfstream@@@_STL@@@2@@_STL@@_N@2@ABU?$pair@$$CBGPAVivfstream@@@2@@Z
_TEXT	SEGMENT PARA USE32 PUBLIC 'CODE'
_TEXT	ENDS
;	COMDAT ??0?$basic_ios@DV?$char_traits@D@_STL@@@_STL@@IAE@XZ
_TEXT	SEGMENT PARA USE32 PUBLIC 'CODE'
_TEXT	ENDS
;	COMDAT ?init@?$basic_ios@DV?$char_traits@D@_STL@@@_STL@@IAEXPAV?$basic_streambuf@DV?$char_traits@D@_STL@@@2@@Z
_TEXT	SEGMENT PARA USE32 PUBLIC 'CODE'
_TEXT	ENDS
;	COMDAT ??$_Destroy@G@_STL@@YAXPAG@Z
_TEXT	SEGMENT PARA USE32 PUBLIC 'CODE'
_TEXT	ENDS
;	COMDAT ??$find@G@?$_Rb_tree@GU?$pair@$$CBGPAVivfstream@@@_STL@@U?$_Select1st@U?$pair@$$CBGPAVivfstream@@@_STL@@@2@U?$less@G@2@V?$allocator@U?$pair@$$CBGPAVivfstream@@@_STL@@@2@@_STL@@QAE?AU?$_Rb_tree_iterator@U?$pair@$$CBGPAVivfstream@@@_STL@@U?$_Nonconst_traits@U?$pair@$$CBGPAVivfstream@@@_STL@@@2@@1@ABG@Z
_TEXT	SEGMENT PARA USE32 PUBLIC 'CODE'
_TEXT	ENDS
;	COMDAT ??$_Destroy@PAK@_STL@@YAXPAK0@Z
_TEXT	SEGMENT PARA USE32 PUBLIC 'CODE'
_TEXT	ENDS
;	COMDAT ??$_Construct@KK@_STL@@YAXPAKABK@Z
_TEXT	SEGMENT PARA USE32 PUBLIC 'CODE'
_TEXT	ENDS
;	COMDAT ??$max@I@_STL@@YAABIABI0@Z
_TEXT	SEGMENT PARA USE32 PUBLIC 'CODE'
_TEXT	ENDS
;	COMDAT ??$distance@U?$_List_iterator@GU?$_Const_traits@G@_STL@@@_STL@@@_STL@@YAHABU?$_List_iterator@GU?$_Const_traits@G@_STL@@@0@0@Z
_TEXT	SEGMENT PARA USE32 PUBLIC 'CODE'
_TEXT	ENDS
;	COMDAT ??$?0G@?$allocator@U?$_List_node@G@_STL@@@_STL@@QAE@ABV?$allocator@G@1@@Z
_TEXT	SEGMENT PARA USE32 PUBLIC 'CODE'
_TEXT	ENDS
;	COMDAT ??$_Destroy@U?$pair@$$CBGPAVivfstream@@@_STL@@@_STL@@YAXPAU?$pair@$$CBGPAVivfstream@@@0@@Z
_TEXT	SEGMENT PARA USE32 PUBLIC 'CODE'
_TEXT	ENDS
;	COMDAT ??$fill_n@PAKIK@_STL@@YAPAKPAKIABK@Z
_TEXT	SEGMENT PARA USE32 PUBLIC 'CODE'
_TEXT	ENDS
;	COMDAT ??$_Construct@GG@_STL@@YAXPAGABG@Z
_TEXT	SEGMENT PARA USE32 PUBLIC 'CODE'
_TEXT	ENDS
;	COMDAT ??0?$basic_string@DV?$char_traits@D@_STL@@V?$allocator@D@2@@_STL@@QAE@U_String_reserve_t@1@IABV?$allocator@D@1@@Z
_TEXT	SEGMENT PARA USE32 PUBLIC 'CODE'
_TEXT	ENDS
;	COMDAT ?max_size@?$basic_string@DV?$char_traits@D@_STL@@V?$allocator@D@2@@_STL@@QBEIXZ
_TEXT	SEGMENT PARA USE32 PUBLIC 'CODE'
_TEXT	ENDS
;	COMDAT ?capacity@?$basic_string@DV?$char_traits@D@_STL@@V?$allocator@D@2@@_STL@@QBEIXZ
_TEXT	SEGMENT PARA USE32 PUBLIC 'CODE'
_TEXT	ENDS
;	COMDAT ?append@?$basic_string@DV?$char_traits@D@_STL@@V?$allocator@D@2@@_STL@@QAEAAV12@ABV12@@Z
_TEXT	SEGMENT PARA USE32 PUBLIC 'CODE'
_TEXT	ENDS
;	COMDAT ?tie@?$basic_ios@DV?$char_traits@D@_STL@@@_STL@@QAEPAV?$basic_ostream@DV?$char_traits@D@_STL@@@2@PAV32@@Z
_TEXT	SEGMENT PARA USE32 PUBLIC 'CODE'
_TEXT	ENDS
;	COMDAT ?fill@?$basic_ios@DV?$char_traits@D@_STL@@@_STL@@QAEDD@Z
_TEXT	SEGMENT PARA USE32 PUBLIC 'CODE'
_TEXT	ENDS
;	COMDAT ?rbegin@?$list@GV?$allocator@G@_STL@@@_STL@@QBE?AV?$reverse_iterator@U?$_List_iterator@GU?$_Const_traits@G@_STL@@@_STL@@@2@XZ
_TEXT	SEGMENT PARA USE32 PUBLIC 'CODE'
_TEXT	ENDS
;	COMDAT ?_S_left@?$_Rb_tree@GU?$pair@$$CBGPAVivfstream@@@_STL@@U?$_Select1st@U?$pair@$$CBGPAVivfstream@@@_STL@@@2@U?$less@G@2@V?$allocator@U?$pair@$$CBGPAVivfstream@@@_STL@@@2@@_STL@@KAAAPAU?$_Rb_tree_node@U?$pair@$$CBGPAVivfstream@@@_STL@@@2@PAU32@@Z
_TEXT	SEGMENT PARA USE32 PUBLIC 'CODE'
_TEXT	ENDS
;	COMDAT ?_S_right@?$_Rb_tree@GU?$pair@$$CBGPAVivfstream@@@_STL@@U?$_Select1st@U?$pair@$$CBGPAVivfstream@@@_STL@@@2@U?$less@G@2@V?$allocator@U?$pair@$$CBGPAVivfstream@@@_STL@@@2@@_STL@@KAAAPAU?$_Rb_tree_node@U?$pair@$$CBGPAVivfstream@@@_STL@@@2@PAU32@@Z
_TEXT	SEGMENT PARA USE32 PUBLIC 'CODE'
_TEXT	ENDS
;	COMDAT ?_S_key@?$_Rb_tree@GU?$pair@$$CBGPAVivfstream@@@_STL@@U?$_Select1st@U?$pair@$$CBGPAVivfstream@@@_STL@@@2@U?$less@G@2@V?$allocator@U?$pair@$$CBGPAVivfstream@@@_STL@@@2@@_STL@@KAABGPAU?$_Rb_tree_node@U?$pair@$$CBGPAVivfstream@@@_STL@@@2@@Z
_TEXT	SEGMENT PARA USE32 PUBLIC 'CODE'
_TEXT	ENDS
;	COMDAT ?_S_key@?$_Rb_tree@GU?$pair@$$CBGPAVivfstream@@@_STL@@U?$_Select1st@U?$pair@$$CBGPAVivfstream@@@_STL@@@2@U?$less@G@2@V?$allocator@U?$pair@$$CBGPAVivfstream@@@_STL@@@2@@_STL@@KAABGPAU_Rb_tree_node_base@2@@Z
_TEXT	SEGMENT PARA USE32 PUBLIC 'CODE'
_TEXT	ENDS
;	COMDAT ??R?$less@G@_STL@@QBE_NABG0@Z
_TEXT	SEGMENT PARA USE32 PUBLIC 'CODE'
_TEXT	ENDS
;	COMDAT ??F?$_Rb_tree_iterator@U?$pair@$$CBGPAVivfstream@@@_STL@@U?$_Nonconst_traits@U?$pair@$$CBGPAVivfstream@@@_STL@@@2@@_STL@@QAEAAU01@XZ
_TEXT	SEGMENT PARA USE32 PUBLIC 'CODE'
_TEXT	ENDS
;	COMDAT ??0?$pair@U?$_Rb_tree_iterator@U?$pair@$$CBGPAVivfstream@@@_STL@@U?$_Nonconst_traits@U?$pair@$$CBGPAVivfstream@@@_STL@@@2@@_STL@@_N@_STL@@QAE@ABU?$_Rb_tree_iterator@U?$pair@$$CBGPAVivfstream@@@_STL@@U?$_Nonconst_traits@U?$pair@$$CBGPAVivfstream@@@_STL@@@2@@1@AB_N@Z
_TEXT	SEGMENT PARA USE32 PUBLIC 'CODE'
_TEXT	ENDS
;	COMDAT ??D?$reverse_iterator@U?$_List_iterator@GU?$_Const_traits@G@_STL@@@_STL@@@_STL@@QBEABGXZ
_TEXT	SEGMENT PARA USE32 PUBLIC 'CODE'
_TEXT	ENDS
;	COMDAT ??0sentry@?$basic_ostream@DV?$char_traits@D@_STL@@@_STL@@QAE@AAV12@@Z
_TEXT	SEGMENT PARA USE32 PUBLIC 'CODE'
_TEXT	ENDS
;	COMDAT ??1sentry@?$basic_ostream@DV?$char_traits@D@_STL@@@_STL@@QAE@XZ
_TEXT	SEGMENT PARA USE32 PUBLIC 'CODE'
_TEXT	ENDS
;	COMDAT ??Bsentry@?$basic_ostream@DV?$char_traits@D@_STL@@@_STL@@QBE_NXZ
_TEXT	SEGMENT PARA USE32 PUBLIC 'CODE'
_TEXT	ENDS
;	COMDAT ??R?$_Select1st@U?$pair@$$CBGPAVivfstream@@@_STL@@@_STL@@QBEABGABU?$pair@$$CBGPAVivfstream@@@1@@Z
_TEXT	SEGMENT PARA USE32 PUBLIC 'CODE'
_TEXT	ENDS
;	COMDAT ?max_size@?$_String_base@DV?$allocator@D@_STL@@@_STL@@QBEIXZ
_TEXT	SEGMENT PARA USE32 PUBLIC 'CODE'
_TEXT	ENDS
;	COMDAT ??0?$_String_base@DV?$allocator@D@_STL@@@_STL@@QAE@ABV?$allocator@D@1@I@Z
_TEXT	SEGMENT PARA USE32 PUBLIC 'CODE'
_TEXT	ENDS
;	COMDAT ?flush@?$basic_ostream@DV?$char_traits@D@_STL@@@_STL@@QAEAAV12@XZ
_TEXT	SEGMENT PARA USE32 PUBLIC 'CODE'
_TEXT	ENDS
;	COMDAT ?_S_value@?$_Rb_tree@GU?$pair@$$CBGPAVivfstream@@@_STL@@U?$_Select1st@U?$pair@$$CBGPAVivfstream@@@_STL@@@2@U?$less@G@2@V?$allocator@U?$pair@$$CBGPAVivfstream@@@_STL@@@2@@_STL@@KAAAU?$pair@$$CBGPAVivfstream@@@2@PAU?$_Rb_tree_node@U?$pair@$$CBGPAVivfstream@@@_STL@@@2@@Z
_TEXT	SEGMENT PARA USE32 PUBLIC 'CODE'
_TEXT	ENDS
;	COMDAT ??F?$_List_iterator@GU?$_Const_traits@G@_STL@@@_STL@@QAEAAU01@XZ
_TEXT	SEGMENT PARA USE32 PUBLIC 'CODE'
_TEXT	ENDS
;	COMDAT ??0?$reverse_iterator@U?$_List_iterator@GU?$_Const_traits@G@_STL@@@_STL@@@_STL@@QAE@U?$_List_iterator@GU?$_Const_traits@G@_STL@@@1@@Z
_TEXT	SEGMENT PARA USE32 PUBLIC 'CODE'
_TEXT	ENDS
;	COMDAT ?_M_allocate_block@?$_String_base@DV?$allocator@D@_STL@@@_STL@@QAEXI@Z
_TEXT	SEGMENT PARA USE32 PUBLIC 'CODE'
_TEXT	ENDS
;	COMDAT ?_M_throw_length_error@?$_String_base@DV?$allocator@D@_STL@@@_STL@@QBEXXZ
_TEXT	SEGMENT PARA USE32 PUBLIC 'CODE'
_TEXT	ENDS
;	COMDAT ??$uninitialized_copy@PADPAD@_STL@@YAPADPAD00@Z
_TEXT	SEGMENT PARA USE32 PUBLIC 'CODE'
_TEXT	ENDS
;	COMDAT ??$distance@PBD@_STL@@YAHABQBD0@Z
_TEXT	SEGMENT PARA USE32 PUBLIC 'CODE'
_TEXT	ENDS
;	COMDAT ??$distance@PAD@_STL@@YAHABQAD0@Z
_TEXT	SEGMENT PARA USE32 PUBLIC 'CODE'
_TEXT	ENDS
;	COMDAT ??$_M_append_dispatch@PAD@?$basic_string@DV?$char_traits@D@_STL@@V?$allocator@D@2@@_STL@@AAEAAV01@PAD0ABU__false_type@1@@Z
_TEXT	SEGMENT PARA USE32 PUBLIC 'CODE'
_TEXT	ENDS
;	COMDAT ?rdbuf@?$basic_ios@DV?$char_traits@D@_STL@@@_STL@@QAEPAV?$basic_streambuf@DV?$char_traits@D@_STL@@@2@PAV32@@Z
_TEXT	SEGMENT PARA USE32 PUBLIC 'CODE'
_TEXT	ENDS
;	COMDAT ?imbue@?$basic_ios@DV?$char_traits@D@_STL@@@_STL@@QAE?AVlocale@2@ABV32@@Z
_TEXT	SEGMENT PARA USE32 PUBLIC 'CODE'
_TEXT	ENDS
;	COMDAT ?widen@?$basic_ios@DV?$char_traits@D@_STL@@@_STL@@QBEDD@Z
_TEXT	SEGMENT PARA USE32 PUBLIC 'CODE'
_TEXT	ENDS
;	COMDAT ?_M_handle_exception@?$basic_ios@DV?$char_traits@D@_STL@@@_STL@@QAEXH@Z
_TEXT	SEGMENT PARA USE32 PUBLIC 'CODE'
_TEXT	ENDS
;	COMDAT ?Release@?$COrderedList@G@@QAEXXZ
_TEXT	SEGMENT PARA USE32 PUBLIC 'CODE'
_TEXT	ENDS
;	COMDAT ??$append@PBD@?$basic_string@DV?$char_traits@D@_STL@@V?$allocator@D@2@@_STL@@AAEAAV01@PBD0ABUforward_iterator_tag@1@@Z
_TEXT	SEGMENT PARA USE32 PUBLIC 'CODE'
_TEXT	ENDS
;	COMDAT ?_M_insert@?$_Rb_tree@GU?$pair@$$CBGPAVivfstream@@@_STL@@U?$_Select1st@U?$pair@$$CBGPAVivfstream@@@_STL@@@2@U?$less@G@2@V?$allocator@U?$pair@$$CBGPAVivfstream@@@_STL@@@2@@_STL@@AAE?AU?$_Rb_tree_iterator@U?$pair@$$CBGPAVivfstream@@@_STL@@U?$_Nonconst_traits@U?$pair@$$CBGPAVivfstream@@@_STL@@@2@@2@PAU_Rb_tree_node_base@2@0ABU?$pair@$$CBGPAVivfstream@@@2@0@Z
_TEXT	SEGMENT PARA USE32 PUBLIC 'CODE'
_TEXT	ENDS
;	COMDAT ??$_M_find@G@?$_Rb_tree@GU?$pair@$$CBGPAVivfstream@@@_STL@@U?$_Select1st@U?$pair@$$CBGPAVivfstream@@@_STL@@@2@U?$less@G@2@V?$allocator@U?$pair@$$CBGPAVivfstream@@@_STL@@@2@@_STL@@ABEPAU?$_Rb_tree_node@U?$pair@$$CBGPAVivfstream@@@_STL@@@1@ABG@Z
_TEXT	SEGMENT PARA USE32 PUBLIC 'CODE'
_TEXT	ENDS
;	COMDAT ??$__destroy@PAKK@_STL@@YAXPAK00@Z
_TEXT	SEGMENT PARA USE32 PUBLIC 'CODE'
_TEXT	ENDS
;	COMDAT ??$__distance@U?$_List_iterator@GU?$_Const_traits@G@_STL@@@_STL@@@_STL@@YAHABU?$_List_iterator@GU?$_Const_traits@G@_STL@@@0@0ABUinput_iterator_tag@0@@Z
_TEXT	SEGMENT PARA USE32 PUBLIC 'CODE'
_TEXT	ENDS
;	COMDAT ??$_M_init@DV?$char_traits@D@_STL@@@_STL@@YA_NAAV?$basic_ostream@DV?$char_traits@D@_STL@@@0@@Z
_TEXT	SEGMENT PARA USE32 PUBLIC 'CODE'
_TEXT	ENDS
;	COMDAT ?tie@?$basic_ios@DV?$char_traits@D@_STL@@@_STL@@QBEPAV?$basic_ostream@DV?$char_traits@D@_STL@@@2@XZ
_TEXT	SEGMENT PARA USE32 PUBLIC 'CODE'
_TEXT	ENDS
;	COMDAT ?_M_create_node@?$_Rb_tree@GU?$pair@$$CBGPAVivfstream@@@_STL@@U?$_Select1st@U?$pair@$$CBGPAVivfstream@@@_STL@@@2@U?$less@G@2@V?$allocator@U?$pair@$$CBGPAVivfstream@@@_STL@@@2@@_STL@@IAEPAU?$_Rb_tree_node@U?$pair@$$CBGPAVivfstream@@@_STL@@@2@ABU?$pair@$$CBGPAVivfstream@@@2@@Z
_TEXT	SEGMENT PARA USE32 PUBLIC 'CODE'
_TEXT	ENDS
;	COMDAT ?_S_parent@?$_Rb_tree@GU?$pair@$$CBGPAVivfstream@@@_STL@@U?$_Select1st@U?$pair@$$CBGPAVivfstream@@@_STL@@@2@U?$less@G@2@V?$allocator@U?$pair@$$CBGPAVivfstream@@@_STL@@@2@@_STL@@KAAAPAU?$_Rb_tree_node@U?$pair@$$CBGPAVivfstream@@@_STL@@@2@PAU32@@Z
_TEXT	SEGMENT PARA USE32 PUBLIC 'CODE'
_TEXT	ENDS
;	COMDAT ?allocate@?$allocator@U?$_Rb_tree_node@U?$pair@$$CBGPAVivfstream@@@_STL@@@_STL@@@_STL@@QAEPAU?$_Rb_tree_node@U?$pair@$$CBGPAVivfstream@@@_STL@@@2@IPBX@Z
_TEXT	SEGMENT PARA USE32 PUBLIC 'CODE'
_TEXT	ENDS
;	COMDAT ??$__uninitialized_copy@PADPAD@_STL@@YAPADPAD00ABU__true_type@0@@Z
_TEXT	SEGMENT PARA USE32 PUBLIC 'CODE'
_TEXT	ENDS
;	COMDAT ??$__distance@PBD@_STL@@YAHABQBD0ABUrandom_access_iterator_tag@0@@Z
_TEXT	SEGMENT PARA USE32 PUBLIC 'CODE'
_TEXT	ENDS
;	COMDAT ??$__distance@PAD@_STL@@YAHABQAD0ABUrandom_access_iterator_tag@0@@Z
_TEXT	SEGMENT PARA USE32 PUBLIC 'CODE'
_TEXT	ENDS
;	COMDAT ??$append@PAD@?$basic_string@DV?$char_traits@D@_STL@@V?$allocator@D@2@@_STL@@AAEAAV01@PAD0ABUforward_iterator_tag@1@@Z
_TEXT	SEGMENT PARA USE32 PUBLIC 'CODE'
_TEXT	ENDS
;	COMDAT ??$__destroy_aux@PAK@_STL@@YAXPAK0ABU__true_type@0@@Z
_TEXT	SEGMENT PARA USE32 PUBLIC 'CODE'
_TEXT	ENDS
;	COMDAT ??$_Construct@U?$pair@$$CBGPAVivfstream@@@_STL@@U12@@_STL@@YAXPAU?$pair@$$CBGPAVivfstream@@@0@ABU10@@Z
_TEXT	SEGMENT PARA USE32 PUBLIC 'CODE'
_TEXT	ENDS
;	COMDAT ??0?$pair@$$CBGPAVivfstream@@@_STL@@QAE@ABU01@@Z
_TEXT	SEGMENT PARA USE32 PUBLIC 'CODE'
_TEXT	ENDS
;	COMDAT ?_Ret@?$_BothPtrType@PADPAD@_STL@@SA?AU__true_type@2@XZ
_TEXT	SEGMENT PARA USE32 PUBLIC 'CODE'
_TEXT	ENDS
;	COMDAT ??$__copy_aux@PADPAD@_STL@@YAPADPAD00ABU__true_type@0@@Z
_TEXT	SEGMENT PARA USE32 PUBLIC 'CODE'
_TEXT	ENDS
;	COMDAT ?_Ret@?$_OKToMemCpy@DD@_STL@@SA?AU__true_type@2@XZ
_TEXT	SEGMENT PARA USE32 PUBLIC 'CODE'
_TEXT	ENDS
;	COMDAT ??$_IsOKToMemCpy@DD@_STL@@YA?AU?$_OKToMemCpy@DD@0@PAD0@Z
_TEXT	SEGMENT PARA USE32 PUBLIC 'CODE'
_TEXT	ENDS
;	COMDAT ??$__copy_ptrs@PADPAD@_STL@@YAPADPAD00ABU__true_type@0@@Z
_TEXT	SEGMENT PARA USE32 PUBLIC 'CODE'
_TEXT	ENDS
;	COMDAT ??_R3iovfs_base@@8
rdata$r	SEGMENT DWORD USE32 PUBLIC 'CONST'
rdata$r	ENDS
;	COMDAT ??_R3?$CTypePack@VCSpritePal@@@@8
rdata$r	SEGMENT DWORD USE32 PUBLIC 'CONST'
rdata$r	ENDS
;	COMDAT ??_R3ovfstream@@8
rdata$r	SEGMENT DWORD USE32 PUBLIC 'CONST'
rdata$r	ENDS
;	COMDAT ??_R3ivfstream@@8
rdata$r	SEGMENT DWORD USE32 PUBLIC 'CONST'
rdata$r	ENDS
;	COMDAT ??_R3CSpritePal@@8
rdata$r	SEGMENT DWORD USE32 PUBLIC 'CONST'
rdata$r	ENDS
;	COMDAT ??_R3?$basic_ofstream@DV?$char_traits@D@_STL@@@_STL@@8
rdata$r	SEGMENT DWORD USE32 PUBLIC 'CONST'
rdata$r	ENDS
;	COMDAT ??_R3IFileIO@@8
rdata$r	SEGMENT DWORD USE32 PUBLIC 'CONST'
rdata$r	ENDS
;	COMDAT ??_R3?$CTypePack2@VCSprite@@VCSprite555@@VCSprite565@@@@8
rdata$r	SEGMENT DWORD USE32 PUBLIC 'CONST'
rdata$r	ENDS
;	COMDAT ??_R3CSprite565@@8
rdata$r	SEGMENT DWORD USE32 PUBLIC 'CONST'
rdata$r	ENDS
;	COMDAT ??_R3MPalette565@@8
rdata$r	SEGMENT DWORD USE32 PUBLIC 'CONST'
rdata$r	ENDS
;	COMDAT ??_R3CSprite555@@8
rdata$r	SEGMENT DWORD USE32 PUBLIC 'CONST'
rdata$r	ENDS
;	COMDAT ??_R3MPalette555@@8
rdata$r	SEGMENT DWORD USE32 PUBLIC 'CONST'
rdata$r	ENDS
;	COMDAT ??_R3?$CTypePack2@VMPalette@@VMPalette555@@VMPalette565@@@@8
rdata$r	SEGMENT DWORD USE32 PUBLIC 'CONST'
rdata$r	ENDS
;	COMDAT ??_R3ITypePackBase@@8
rdata$r	SEGMENT DWORD USE32 PUBLIC 'CONST'
rdata$r	ENDS
;	COMDAT ??_R2iovfs_base@@8
rdata$r	SEGMENT DWORD USE32 PUBLIC 'CONST'
rdata$r	ENDS
;	COMDAT ??_R2?$CTypePack@VCSpritePal@@@@8
rdata$r	SEGMENT DWORD USE32 PUBLIC 'CONST'
rdata$r	ENDS
;	COMDAT ??_R2ovfstream@@8
rdata$r	SEGMENT DWORD USE32 PUBLIC 'CONST'
rdata$r	ENDS
;	COMDAT ??_R2ivfstream@@8
rdata$r	SEGMENT DWORD USE32 PUBLIC 'CONST'
rdata$r	ENDS
;	COMDAT ??_R2CSpritePal@@8
rdata$r	SEGMENT DWORD USE32 PUBLIC 'CONST'
rdata$r	ENDS
;	COMDAT ??_R2?$basic_ofstream@DV?$char_traits@D@_STL@@@_STL@@8
rdata$r	SEGMENT DWORD USE32 PUBLIC 'CONST'
rdata$r	ENDS
;	COMDAT ??_R2IFileIO@@8
rdata$r	SEGMENT DWORD USE32 PUBLIC 'CONST'
rdata$r	ENDS
;	COMDAT ??_R2?$CTypePack2@VCSprite@@VCSprite555@@VCSprite565@@@@8
rdata$r	SEGMENT DWORD USE32 PUBLIC 'CONST'
rdata$r	ENDS
;	COMDAT ??_R2CSprite565@@8
rdata$r	SEGMENT DWORD USE32 PUBLIC 'CONST'
rdata$r	ENDS
;	COMDAT ??_R2MPalette565@@8
rdata$r	SEGMENT DWORD USE32 PUBLIC 'CONST'
rdata$r	ENDS
;	COMDAT ??_R2CSprite555@@8
rdata$r	SEGMENT DWORD USE32 PUBLIC 'CONST'
rdata$r	ENDS
;	COMDAT ??_R2MPalette555@@8
rdata$r	SEGMENT DWORD USE32 PUBLIC 'CONST'
rdata$r	ENDS
;	COMDAT ??_R2?$CTypePack2@VMPalette@@VMPalette555@@VMPalette565@@@@8
rdata$r	SEGMENT DWORD USE32 PUBLIC 'CONST'
rdata$r	ENDS
;	COMDAT ??_R2ITypePackBase@@8
rdata$r	SEGMENT DWORD USE32 PUBLIC 'CONST'
rdata$r	ENDS
;	COMDAT ??_R1A@?0A@A@?$CTypePack@VCSpritePal@@@@8
rdata$r	SEGMENT DWORD USE32 PUBLIC 'CONST'
rdata$r	ENDS
;	COMDAT ??_R1A@?0A@A@ovfstream@@8
rdata$r	SEGMENT DWORD USE32 PUBLIC 'CONST'
rdata$r	ENDS
;	COMDAT ??_R1A@?0A@A@iovfs_base@@8
rdata$r	SEGMENT DWORD USE32 PUBLIC 'CONST'
rdata$r	ENDS
;	COMDAT ??_R1A@?0A@A@ivfstream@@8
rdata$r	SEGMENT DWORD USE32 PUBLIC 'CONST'
rdata$r	ENDS
;	COMDAT ??_R1A@?0A@A@CSpritePalBase@@8
rdata$r	SEGMENT DWORD USE32 PUBLIC 'CONST'
rdata$r	ENDS
;	COMDAT ??_R1A@?0A@A@CSpritePal@@8
rdata$r	SEGMENT DWORD USE32 PUBLIC 'CONST'
rdata$r	ENDS
;	COMDAT ??_R1A@A@3A@ios_base@_STL@@8
rdata$r	SEGMENT DWORD USE32 PUBLIC 'CONST'
rdata$r	ENDS
;	COMDAT ??_R0?AVios_base@_STL@@@8
_DATA	SEGMENT DWORD USE32 PUBLIC 'DATA'
_DATA	ENDS
;	COMDAT ??_R1A@A@3BA@?$basic_ios@DV?$char_traits@D@_STL@@@_STL@@8
rdata$r	SEGMENT DWORD USE32 PUBLIC 'CONST'
rdata$r	ENDS
;	COMDAT ??_R0?AV?$basic_ios@DV?$char_traits@D@_STL@@@_STL@@@8
_DATA	SEGMENT DWORD USE32 PUBLIC 'DATA'
_DATA	ENDS
;	COMDAT ??_R1A@?0A@A@?$basic_ostream@DV?$char_traits@D@_STL@@@_STL@@8
rdata$r	SEGMENT DWORD USE32 PUBLIC 'CONST'
rdata$r	ENDS
;	COMDAT ??_R0?AV?$basic_ostream@DV?$char_traits@D@_STL@@@_STL@@@8
_DATA	SEGMENT DWORD USE32 PUBLIC 'DATA'
_DATA	ENDS
;	COMDAT ??_R1A@?0A@A@?$basic_ofstream@DV?$char_traits@D@_STL@@@_STL@@8
rdata$r	SEGMENT DWORD USE32 PUBLIC 'CONST'
rdata$r	ENDS
;	COMDAT ??_R1A@?0A@A@IFileIO@@8
rdata$r	SEGMENT DWORD USE32 PUBLIC 'CONST'
rdata$r	ENDS
;	COMDAT ??_R1A@?0A@A@?$CTypePack2@VCSprite@@VCSprite555@@VCSprite565@@@@8
rdata$r	SEGMENT DWORD USE32 PUBLIC 'CONST'
rdata$r	ENDS
;	COMDAT ??_R1A@?0A@A@CSprite565@@8
rdata$r	SEGMENT DWORD USE32 PUBLIC 'CONST'
rdata$r	ENDS
;	COMDAT ??_R1A@?0A@A@MPalette565@@8
rdata$r	SEGMENT DWORD USE32 PUBLIC 'CONST'
rdata$r	ENDS
;	COMDAT ??_R1A@?0A@A@CSprite@@8
rdata$r	SEGMENT DWORD USE32 PUBLIC 'CONST'
rdata$r	ENDS
;	COMDAT ??_R1A@?0A@A@CSprite555@@8
rdata$r	SEGMENT DWORD USE32 PUBLIC 'CONST'
rdata$r	ENDS
;	COMDAT ??_R1A@?0A@A@MPalette@@8
rdata$r	SEGMENT DWORD USE32 PUBLIC 'CONST'
rdata$r	ENDS
;	COMDAT ??_R1A@?0A@A@MPalette555@@8
rdata$r	SEGMENT DWORD USE32 PUBLIC 'CONST'
rdata$r	ENDS
;	COMDAT ??_R1A@?0A@A@?$CTypePack2@VMPalette@@VMPalette555@@VMPalette565@@@@8
rdata$r	SEGMENT DWORD USE32 PUBLIC 'CONST'
rdata$r	ENDS
;	COMDAT ??_R1A@?0A@A@ITypePackBase@@8
rdata$r	SEGMENT DWORD USE32 PUBLIC 'CONST'
rdata$r	ENDS
;	COMDAT ??_R0?AV?$CTypePack@VCSpritePal@@@@@8
_DATA	SEGMENT DWORD USE32 PUBLIC 'DATA'
_DATA	ENDS
;	COMDAT ??_R0?AVovfstream@@@8
_DATA	SEGMENT DWORD USE32 PUBLIC 'DATA'
_DATA	ENDS
;	COMDAT ??_R0?AViovfs_base@@@8
_DATA	SEGMENT DWORD USE32 PUBLIC 'DATA'
_DATA	ENDS
;	COMDAT ??_R0?AVivfstream@@@8
_DATA	SEGMENT DWORD USE32 PUBLIC 'DATA'
_DATA	ENDS
;	COMDAT ??_R0?AVCSpritePalBase@@@8
_DATA	SEGMENT DWORD USE32 PUBLIC 'DATA'
_DATA	ENDS
;	COMDAT ??_R0?AVCSpritePal@@@8
_DATA	SEGMENT DWORD USE32 PUBLIC 'DATA'
_DATA	ENDS
;	COMDAT ??_R0?AV?$basic_ofstream@DV?$char_traits@D@_STL@@@_STL@@@8
_DATA	SEGMENT DWORD USE32 PUBLIC 'DATA'
_DATA	ENDS
;	COMDAT ??_R0?AVIFileIO@@@8
_DATA	SEGMENT DWORD USE32 PUBLIC 'DATA'
_DATA	ENDS
;	COMDAT ??_R0?AV?$CTypePack2@VCSprite@@VCSprite555@@VCSprite565@@@@@8
_DATA	SEGMENT DWORD USE32 PUBLIC 'DATA'
_DATA	ENDS
;	COMDAT ??_R0?AVCSprite565@@@8
_DATA	SEGMENT DWORD USE32 PUBLIC 'DATA'
_DATA	ENDS
;	COMDAT ??_R0?AVMPalette565@@@8
_DATA	SEGMENT DWORD USE32 PUBLIC 'DATA'
_DATA	ENDS
;	COMDAT ??_R0?AVCSprite@@@8
_DATA	SEGMENT DWORD USE32 PUBLIC 'DATA'
_DATA	ENDS
;	COMDAT ??_R0?AVCSprite555@@@8
_DATA	SEGMENT DWORD USE32 PUBLIC 'DATA'
_DATA	ENDS
;	COMDAT ??_R0?AVMPalette@@@8
_DATA	SEGMENT DWORD USE32 PUBLIC 'DATA'
_DATA	ENDS
;	COMDAT ??_R0?AVMPalette555@@@8
_DATA	SEGMENT DWORD USE32 PUBLIC 'DATA'
_DATA	ENDS
;	COMDAT ??_R0?AV?$CTypePack2@VMPalette@@VMPalette555@@VMPalette565@@@@@8
_DATA	SEGMENT DWORD USE32 PUBLIC 'DATA'
_DATA	ENDS
;	COMDAT ??_R0?AVITypePackBase@@@8
_DATA	SEGMENT DWORD USE32 PUBLIC 'DATA'
_DATA	ENDS
;	COMDAT ??_R4iovfs_base@@6B@
rdata$r	SEGMENT DWORD USE32 PUBLIC 'CONST'
rdata$r	ENDS
;	COMDAT ??_R4?$CTypePack@VCSpritePal@@@@6B@
rdata$r	SEGMENT DWORD USE32 PUBLIC 'CONST'
rdata$r	ENDS
;	COMDAT ??_R4ovfstream@@6B@
rdata$r	SEGMENT DWORD USE32 PUBLIC 'CONST'
rdata$r	ENDS
;	COMDAT ??_R4ivfstream@@6B@
rdata$r	SEGMENT DWORD USE32 PUBLIC 'CONST'
rdata$r	ENDS
;	COMDAT ??_R4CSpritePal@@6B@
rdata$r	SEGMENT DWORD USE32 PUBLIC 'CONST'
rdata$r	ENDS
;	COMDAT ??_R4?$basic_ofstream@DV?$char_traits@D@_STL@@@_STL@@6B@
rdata$r	SEGMENT DWORD USE32 PUBLIC 'CONST'
rdata$r	ENDS
;	COMDAT ??_R4IFileIO@@6B@
rdata$r	SEGMENT DWORD USE32 PUBLIC 'CONST'
rdata$r	ENDS
;	COMDAT ??_R4?$CTypePack2@VCSprite@@VCSprite555@@VCSprite565@@@@6B@
rdata$r	SEGMENT DWORD USE32 PUBLIC 'CONST'
rdata$r	ENDS
;	COMDAT ??_R4CSprite565@@6B@
rdata$r	SEGMENT DWORD USE32 PUBLIC 'CONST'
rdata$r	ENDS
;	COMDAT ??_R4MPalette565@@6B@
rdata$r	SEGMENT DWORD USE32 PUBLIC 'CONST'
rdata$r	ENDS
;	COMDAT ??_R4CSprite555@@6B@
rdata$r	SEGMENT DWORD USE32 PUBLIC 'CONST'
rdata$r	ENDS
;	COMDAT ??_R4MPalette555@@6B@
rdata$r	SEGMENT DWORD USE32 PUBLIC 'CONST'
rdata$r	ENDS
;	COMDAT ??_R4?$CTypePack2@VMPalette@@VMPalette555@@VMPalette565@@@@6B@
rdata$r	SEGMENT DWORD USE32 PUBLIC 'CONST'
rdata$r	ENDS
;	COMDAT ??_R4ITypePackBase@@6B@
rdata$r	SEGMENT DWORD USE32 PUBLIC 'CONST'
rdata$r	ENDS
;	COMDAT ??3@YAXPAX0@Z
_TEXT	SEGMENT PARA USE32 PUBLIC 'CODE'
_TEXT	ENDS
;	COMDAT ?good@ios_base@_STL@@QBE_NXZ
_TEXT	SEGMENT PARA USE32 PUBLIC 'CODE'
_TEXT	ENDS
;	COMDAT ?_M_get_exception_mask@ios_base@_STL@@IBEHXZ
_TEXT	SEGMENT PARA USE32 PUBLIC 'CODE'
_TEXT	ENDS
;	COMDAT ?_M_setstate_nothrow@ios_base@_STL@@IAEXH@Z
_TEXT	SEGMENT PARA USE32 PUBLIC 'CODE'
_TEXT	ENDS
;	COMDAT ?_M_ctype_facet@ios_base@_STL@@QBEPBVfacet@locale@2@XZ
_TEXT	SEGMENT PARA USE32 PUBLIC 'CODE'
_TEXT	ENDS
;	COMDAT ?widen@?$ctype@D@_STL@@QBEDD@Z
_TEXT	SEGMENT PARA USE32 PUBLIC 'CODE'
_TEXT	ENDS
;	COMDAT ?grouping@?$numpunct@D@_STL@@QBE?AV?$basic_string@DV?$char_traits@D@_STL@@V?$allocator@D@2@@2@XZ
_TEXT	SEGMENT PARA USE32 PUBLIC 'CODE'
_TEXT	ENDS
;	COMDAT ?_M_decr@_List_iterator_base@_STL@@QAEXXZ
_TEXT	SEGMENT PARA USE32 PUBLIC 'CODE'
_TEXT	ENDS
;	COMDAT ?pubsync@?$basic_streambuf@DV?$char_traits@D@_STL@@@_STL@@QAEHXZ
_TEXT	SEGMENT PARA USE32 PUBLIC 'CODE'
_TEXT	ENDS
;	COMDAT ?flags@ios_base@_STL@@QBEHXZ
_TEXT	SEGMENT PARA USE32 PUBLIC 'CODE'
_TEXT	ENDS
;	COMDAT ??1?$_String_base@DV?$allocator@D@_STL@@@_STL@@QAE@XZ
_TEXT	SEGMENT PARA USE32 PUBLIC 'CODE'
_TEXT	ENDS
;	COMDAT ?precision@ios_base@_STL@@QAEHH@Z
_TEXT	SEGMENT PARA USE32 PUBLIC 'CODE'
_TEXT	ENDS
;	COMDAT ?width@ios_base@_STL@@QAEHH@Z
_TEXT	SEGMENT PARA USE32 PUBLIC 'CODE'
_TEXT	ENDS
;	COMDAT ?flags@ios_base@_STL@@QAEHH@Z
_TEXT	SEGMENT PARA USE32 PUBLIC 'CODE'
_TEXT	ENDS
;	COMDAT ?_M_set_exception_mask@ios_base@_STL@@IAEXH@Z
_TEXT	SEGMENT PARA USE32 PUBLIC 'CODE'
_TEXT	ENDS
;	COMDAT ??_7?$basic_ios@DV?$char_traits@D@_STL@@@_STL@@6B@
CONST	SEGMENT DWORD USE32 PUBLIC 'CONST'
CONST	ENDS
;	COMDAT ??_R4?$basic_ios@DV?$char_traits@D@_STL@@@_STL@@6B@
rdata$r	SEGMENT DWORD USE32 PUBLIC 'CONST'
rdata$r	ENDS
;	COMDAT ??_R3?$basic_ios@DV?$char_traits@D@_STL@@@_STL@@8
rdata$r	SEGMENT DWORD USE32 PUBLIC 'CONST'
rdata$r	ENDS
;	COMDAT ??_R2?$basic_ios@DV?$char_traits@D@_STL@@@_STL@@8
rdata$r	SEGMENT DWORD USE32 PUBLIC 'CONST'
rdata$r	ENDS
;	COMDAT ??_R1A@?0A@A@?$basic_ios@DV?$char_traits@D@_STL@@@_STL@@8
rdata$r	SEGMENT DWORD USE32 PUBLIC 'CONST'
rdata$r	ENDS
;	COMDAT ??_R1A@?0A@A@ios_base@_STL@@8
rdata$r	SEGMENT DWORD USE32 PUBLIC 'CONST'
rdata$r	ENDS
;	COMDAT ??_G?$basic_ios@DV?$char_traits@D@_STL@@@_STL@@UAEPAXI@Z
_TEXT	SEGMENT PARA USE32 PUBLIC 'CODE'
_TEXT	ENDS
;	COMDAT ?sputn@?$basic_streambuf@DV?$char_traits@D@_STL@@@_STL@@QAEHPBDH@Z
_TEXT	SEGMENT PARA USE32 PUBLIC 'CODE'
_TEXT	ENDS
;	COMDAT ??_7?$basic_ostream@DV?$char_traits@D@_STL@@@_STL@@6B@
CONST	SEGMENT DWORD USE32 PUBLIC 'CONST'
CONST	ENDS
;	COMDAT ??_R4?$basic_ostream@DV?$char_traits@D@_STL@@@_STL@@6B@
rdata$r	SEGMENT DWORD USE32 PUBLIC 'CONST'
rdata$r	ENDS
;	COMDAT ??_R3?$basic_ostream@DV?$char_traits@D@_STL@@@_STL@@8
rdata$r	SEGMENT DWORD USE32 PUBLIC 'CONST'
rdata$r	ENDS
;	COMDAT ??_R2?$basic_ostream@DV?$char_traits@D@_STL@@@_STL@@8
rdata$r	SEGMENT DWORD USE32 PUBLIC 'CONST'
rdata$r	ENDS
;	COMDAT ??_G?$basic_ostream@DV?$char_traits@D@_STL@@@_STL@@UAEPAXI@Z
_TEXT	SEGMENT PARA USE32 PUBLIC 'CODE'
_TEXT	ENDS
;	COMDAT ??_D?$basic_ostream@DV?$char_traits@D@_STL@@@_STL@@QAEXXZ
_TEXT	SEGMENT PARA USE32 PUBLIC 'CODE'
_TEXT	ENDS
;	COMDAT ??_8?$basic_ostream@DV?$char_traits@D@_STL@@@_STL@@7B@
CONST	SEGMENT DWORD USE32 PUBLIC 'CONST'
CONST	ENDS
;	COMDAT ?__page_size@_Filebuf_base@_STL@@SAIXZ
_TEXT	SEGMENT PARA USE32 PUBLIC 'CODE'
_TEXT	ENDS
;	COMDAT ?_M_write@?$basic_filebuf@DV?$char_traits@D@_STL@@@_STL@@QAE_NPADH@Z
_TEXT	SEGMENT PARA USE32 PUBLIC 'CODE'
_TEXT	ENDS
;	COMDAT ?unshift@?$codecvt@DDH@_STL@@QBE?AW4result@codecvt_base@2@AAHPAD1AAPAD@Z
_TEXT	SEGMENT PARA USE32 PUBLIC 'CODE'
_TEXT	ENDS
;	COMDAT ??_7?$basic_filebuf@DV?$char_traits@D@_STL@@@_STL@@6B@
CONST	SEGMENT DWORD USE32 PUBLIC 'CONST'
CONST	ENDS
;	COMDAT ??_R4?$basic_filebuf@DV?$char_traits@D@_STL@@@_STL@@6B@
rdata$r	SEGMENT DWORD USE32 PUBLIC 'CONST'
rdata$r	ENDS
;	COMDAT ??_R0?AV?$basic_filebuf@DV?$char_traits@D@_STL@@@_STL@@@8
_DATA	SEGMENT DWORD USE32 PUBLIC 'DATA'
_DATA	ENDS
;	COMDAT ??_R3?$basic_filebuf@DV?$char_traits@D@_STL@@@_STL@@8
rdata$r	SEGMENT DWORD USE32 PUBLIC 'CONST'
rdata$r	ENDS
;	COMDAT ??_R2?$basic_filebuf@DV?$char_traits@D@_STL@@@_STL@@8
rdata$r	SEGMENT DWORD USE32 PUBLIC 'CONST'
rdata$r	ENDS
;	COMDAT ??_R1A@?0A@A@?$basic_filebuf@DV?$char_traits@D@_STL@@@_STL@@8
rdata$r	SEGMENT DWORD USE32 PUBLIC 'CONST'
rdata$r	ENDS
;	COMDAT ??_R1A@?0A@A@?$basic_streambuf@DV?$char_traits@D@_STL@@@_STL@@8
rdata$r	SEGMENT DWORD USE32 PUBLIC 'CONST'
rdata$r	ENDS
;	COMDAT ??_R0?AV?$basic_streambuf@DV?$char_traits@D@_STL@@@_STL@@@8
_DATA	SEGMENT DWORD USE32 PUBLIC 'DATA'
_DATA	ENDS
;	COMDAT ??_G?$basic_filebuf@DV?$char_traits@D@_STL@@@_STL@@UAEPAXI@Z
_TEXT	SEGMENT PARA USE32 PUBLIC 'CODE'
_TEXT	ENDS
;	COMDAT ?setbuf@?$basic_filebuf@DV?$char_traits@D@_STL@@@_STL@@MAEPAV?$basic_streambuf@DV?$char_traits@D@_STL@@@2@PADH@Z
_TEXT	SEGMENT PARA USE32 PUBLIC 'CODE'
_TEXT	ENDS
;	COMDAT ?seekoff@?$basic_filebuf@DV?$char_traits@D@_STL@@@_STL@@MAE?AV?$fpos@H@2@JHH@Z
_TEXT	SEGMENT PARA USE32 PUBLIC 'CODE'
_TEXT	ENDS
;	COMDAT ?_M_in_binary_mode@_Filebuf_base@_STL@@QBE_NXZ
_TEXT	SEGMENT PARA USE32 PUBLIC 'CODE'
_TEXT	ENDS
;	COMDAT ?length@?$codecvt@DDH@_STL@@QBEHABHPBD1I@Z
_TEXT	SEGMENT PARA USE32 PUBLIC 'CODE'
_TEXT	ENDS
;	COMDAT ?in@?$codecvt@DDH@_STL@@QBE?AW4result@codecvt_base@2@AAHPBD1AAPBDPAD3AAPAD@Z
_TEXT	SEGMENT PARA USE32 PUBLIC 'CODE'
_TEXT	ENDS
;	COMDAT ?eback@?$basic_streambuf@DV?$char_traits@D@_STL@@@_STL@@IBEPADXZ
_TEXT	SEGMENT PARA USE32 PUBLIC 'CODE'
_TEXT	ENDS
;	COMDAT ?_FILE_I_begin@_STL@@YAPADPBU_iobuf@@@Z
_TEXT	SEGMENT PARA USE32 PUBLIC 'CODE'
_TEXT	ENDS
;	COMDAT ?gptr@?$basic_streambuf@DV?$char_traits@D@_STL@@@_STL@@IBEPADXZ
_TEXT	SEGMENT PARA USE32 PUBLIC 'CODE'
_TEXT	ENDS
;	COMDAT ?_FILE_I_next@_STL@@YAPADPBU_iobuf@@@Z
_TEXT	SEGMENT PARA USE32 PUBLIC 'CODE'
_TEXT	ENDS
;	COMDAT ?_M_get_offset@_Filebuf_base@_STL@@QAEJPAD0@Z
_TEXT	SEGMENT PARA USE32 PUBLIC 'CODE'
_TEXT	ENDS
;	COMDAT ??$count@PADD@_STL@@YAHPAD0ABD@Z
_TEXT	SEGMENT PARA USE32 PUBLIC 'CODE'
_TEXT	ENDS
;	COMDAT ?seekpos@?$basic_filebuf@DV?$char_traits@D@_STL@@@_STL@@MAE?AV?$fpos@H@2@V32@H@Z
_TEXT	SEGMENT PARA USE32 PUBLIC 'CODE'
_TEXT	ENDS
;	COMDAT ?sync@?$basic_filebuf@DV?$char_traits@D@_STL@@@_STL@@MAEHXZ
_TEXT	SEGMENT PARA USE32 PUBLIC 'CODE'
_TEXT	ENDS
;	COMDAT ?showmanyc@?$basic_filebuf@DV?$char_traits@D@_STL@@@_STL@@MAEHXZ
_TEXT	SEGMENT PARA USE32 PUBLIC 'CODE'
_TEXT	ENDS
;	COMDAT ?egptr@?$basic_streambuf@DV?$char_traits@D@_STL@@@_STL@@IBEPADXZ
_TEXT	SEGMENT PARA USE32 PUBLIC 'CODE'
_TEXT	ENDS
;	COMDAT ?_FILE_I_end@_STL@@YAPADPBU_iobuf@@@Z
_TEXT	SEGMENT PARA USE32 PUBLIC 'CODE'
_TEXT	ENDS
;	COMDAT ?underflow@?$basic_filebuf@DV?$char_traits@D@_STL@@@_STL@@MAEHXZ
_TEXT	SEGMENT PARA USE32 PUBLIC 'CODE'
_TEXT	ENDS
;	COMDAT ?pbackfail@?$basic_filebuf@DV?$char_traits@D@_STL@@@_STL@@MAEHH@Z
_TEXT	SEGMENT PARA USE32 PUBLIC 'CODE'
_TEXT	ENDS
;	COMDAT ?gbump@?$basic_streambuf@DV?$char_traits@D@_STL@@@_STL@@IAEXH@Z
_TEXT	SEGMENT PARA USE32 PUBLIC 'CODE'
_TEXT	ENDS
;	COMDAT ?_FILE_I_bump@_STL@@YAXPAU_iobuf@@H@Z
_TEXT	SEGMENT PARA USE32 PUBLIC 'CODE'
_TEXT	ENDS
;	COMDAT ?to_int_type@?$char_traits@D@_STL@@SAHABD@Z
_TEXT	SEGMENT PARA USE32 PUBLIC 'CODE'
_TEXT	ENDS
;	COMDAT ?to_char_type@?$char_traits@D@_STL@@SADABH@Z
_TEXT	SEGMENT PARA USE32 PUBLIC 'CODE'
_TEXT	ENDS
;	COMDAT ?overflow@?$basic_filebuf@DV?$char_traits@D@_STL@@@_STL@@MAEHH@Z
_TEXT	SEGMENT PARA USE32 PUBLIC 'CODE'
_TEXT	ENDS
;	COMDAT ?pptr@?$basic_streambuf@DV?$char_traits@D@_STL@@@_STL@@IBEPADXZ
_TEXT	SEGMENT PARA USE32 PUBLIC 'CODE'
_TEXT	ENDS
;	COMDAT ?_FILE_O_next@_STL@@YAPADPBU_iobuf@@@Z
_TEXT	SEGMENT PARA USE32 PUBLIC 'CODE'
_TEXT	ENDS
;	COMDAT ?out@?$codecvt@DDH@_STL@@QBE?AW4result@codecvt_base@2@AAHPBD1AAPBDPAD3AAPAD@Z
_TEXT	SEGMENT PARA USE32 PUBLIC 'CODE'
_TEXT	ENDS
;	COMDAT ?_M_doit@?$_Noconv_output@V?$char_traits@D@_STL@@@_STL@@SA_NPAV?$basic_filebuf@DV?$char_traits@D@_STL@@@2@PAD1@Z
_TEXT	SEGMENT PARA USE32 PUBLIC 'CODE'
_TEXT	ENDS
;	COMDAT ?imbue@?$basic_filebuf@DV?$char_traits@D@_STL@@@_STL@@MAEXABVlocale@2@@Z
_TEXT	SEGMENT PARA USE32 PUBLIC 'CODE'
_TEXT	ENDS
;	COMDAT ??0?$basic_streambuf@DV?$char_traits@D@_STL@@@_STL@@IAE@XZ
_TEXT	SEGMENT PARA USE32 PUBLIC 'CODE'
_TEXT	ENDS
;	COMDAT ??_7?$basic_streambuf@DV?$char_traits@D@_STL@@@_STL@@6B@
CONST	SEGMENT DWORD USE32 PUBLIC 'CONST'
CONST	ENDS
;	COMDAT ??_R4?$basic_streambuf@DV?$char_traits@D@_STL@@@_STL@@6B@
rdata$r	SEGMENT DWORD USE32 PUBLIC 'CONST'
rdata$r	ENDS
;	COMDAT ??_R3?$basic_streambuf@DV?$char_traits@D@_STL@@@_STL@@8
rdata$r	SEGMENT DWORD USE32 PUBLIC 'CONST'
rdata$r	ENDS
;	COMDAT ??_R2?$basic_streambuf@DV?$char_traits@D@_STL@@@_STL@@8
rdata$r	SEGMENT DWORD USE32 PUBLIC 'CONST'
rdata$r	ENDS
;	COMDAT ??_G?$basic_streambuf@DV?$char_traits@D@_STL@@@_STL@@UAEPAXI@Z
_TEXT	SEGMENT PARA USE32 PUBLIC 'CODE'
_TEXT	ENDS
;	COMDAT ??0_STLP_mutex@_STL@@QAE@XZ
_TEXT	SEGMENT PARA USE32 PUBLIC 'CODE'
_TEXT	ENDS
;	COMDAT ?_M_initialize@_STLP_mutex_base@_STL@@QAEXXZ
_TEXT	SEGMENT PARA USE32 PUBLIC 'CODE'
_TEXT	ENDS
;	COMDAT ??1_STLP_mutex@_STL@@QAE@XZ
_TEXT	SEGMENT PARA USE32 PUBLIC 'CODE'
_TEXT	ENDS
;	COMDAT ?_M_destroy@_STLP_mutex_base@_STL@@QAEXXZ
_TEXT	SEGMENT PARA USE32 PUBLIC 'CODE'
_TEXT	ENDS
;	COMDAT ?_FILE_I_set@_STL@@YAXPAU_iobuf@@PAD11@Z
_TEXT	SEGMENT PARA USE32 PUBLIC 'CODE'
_TEXT	ENDS
;	COMDAT ?_FILE_O_set@_STL@@YAXPAU_iobuf@@PAD11@Z
_TEXT	SEGMENT PARA USE32 PUBLIC 'CODE'
_TEXT	ENDS
;	COMDAT ?uninitialized_copy@_STL@@YAPADPBD0PAD@Z
_TEXT	SEGMENT PARA USE32 PUBLIC 'CODE'
_TEXT	ENDS
;	COMDAT ?_M_deallocate_block@?$_String_base@DV?$allocator@D@_STL@@@_STL@@QAEXXZ
_TEXT	SEGMENT PARA USE32 PUBLIC 'CODE'
_TEXT	ENDS
;	COMDAT ?deallocate@?$allocator@D@_STL@@QAEXPADI@Z
_TEXT	SEGMENT PARA USE32 PUBLIC 'CODE'
_TEXT	ENDS
;	COMDAT ?_M_check_exception_mask@ios_base@_STL@@IAEXXZ
_TEXT	SEGMENT PARA USE32 PUBLIC 'CODE'
_TEXT	ENDS
;	COMDAT ?_M_clear_nothrow@ios_base@_STL@@IAEXH@Z
_TEXT	SEGMENT PARA USE32 PUBLIC 'CODE'
_TEXT	ENDS
;	COMDAT ?__copy_trivial@_STL@@YAPAXPBX0PAX@Z
_TEXT	SEGMENT PARA USE32 PUBLIC 'CODE'
_TEXT	ENDS
;	COMDAT ?rdstate@ios_base@_STL@@QBEHXZ
_TEXT	SEGMENT PARA USE32 PUBLIC 'CODE'
_TEXT	ENDS
;	COMDAT ??1?$basic_filebuf@DV?$char_traits@D@_STL@@@_STL@@UAE@XZ
_TEXT	SEGMENT PARA USE32 PUBLIC 'CODE'
_TEXT	ENDS
;	COMDAT ??_7?$basic_ofstream@DV?$char_traits@D@_STL@@@_STL@@6B@
CONST	SEGMENT DWORD USE32 PUBLIC 'CONST'
CONST	ENDS
;	COMDAT ??1?$basic_ostream@DV?$char_traits@D@_STL@@@_STL@@UAE@XZ
_TEXT	SEGMENT PARA USE32 PUBLIC 'CODE'
_TEXT	ENDS
;	COMDAT ??_8?$basic_ofstream@DV?$char_traits@D@_STL@@@_STL@@7B@
CONST	SEGMENT DWORD USE32 PUBLIC 'CONST'
CONST	ENDS
;	COMDAT ??0_List_iterator_base@_STL@@QAE@XZ
_TEXT	SEGMENT PARA USE32 PUBLIC 'CODE'
_TEXT	ENDS
;	COMDAT ?pubseekpos@?$basic_streambuf@DV?$char_traits@D@_STL@@@_STL@@QAE?AV?$fpos@H@2@V32@H@Z
_TEXT	SEGMENT PARA USE32 PUBLIC 'CODE'
_TEXT	ENDS
;	COMDAT ?pubseekoff@?$basic_streambuf@DV?$char_traits@D@_STL@@@_STL@@QAE?AV?$fpos@H@2@JHH@Z
_TEXT	SEGMENT PARA USE32 PUBLIC 'CODE'
_TEXT	ENDS
;	COMDAT ?fail@ios_base@_STL@@QBE_NXZ
_TEXT	SEGMENT PARA USE32 PUBLIC 'CODE'
_TEXT	ENDS
;	COMDAT ??_7CSprite555@@6B@
CONST	SEGMENT DWORD USE32 PUBLIC 'CONST'
CONST	ENDS
;	COMDAT ??_7CSprite565@@6B@
CONST	SEGMENT DWORD USE32 PUBLIC 'CONST'
CONST	ENDS
;	COMDAT ??_7MPalette555@@6B@
CONST	SEGMENT DWORD USE32 PUBLIC 'CONST'
CONST	ENDS
;	COMDAT ??_7MPalette565@@6B@
CONST	SEGMENT DWORD USE32 PUBLIC 'CONST'
CONST	ENDS
;	COMDAT ??1?$basic_ios@DV?$char_traits@D@_STL@@@_STL@@UAE@XZ
_TEXT	SEGMENT PARA USE32 PUBLIC 'CODE'
_TEXT	ENDS
;	COMDAT ??_7CSpritePal@@6B@
CONST	SEGMENT DWORD USE32 PUBLIC 'CONST'
CONST	ENDS
;	COMDAT ??2@YAPAXIPAX@Z
_TEXT	SEGMENT PARA USE32 PUBLIC 'CODE'
_TEXT	ENDS
;	COMDAT ??_7?$CTypePack2@VCSprite@@VCSprite555@@VCSprite565@@@@6B@
CONST	SEGMENT DWORD USE32 PUBLIC 'CONST'
CONST	ENDS
;	COMDAT ??_7?$CTypePack2@VMPalette@@VMPalette555@@VMPalette565@@@@6B@
CONST	SEGMENT DWORD USE32 PUBLIC 'CONST'
CONST	ENDS
;	COMDAT ??0?$basic_string@DV?$char_traits@D@_STL@@V?$allocator@D@2@@_STL@@QAE@ABV01@@Z
_TEXT	SEGMENT PARA USE32 PUBLIC 'CODE'
_TEXT	ENDS
;	COMDAT ??0?$allocator@D@_STL@@QAE@XZ
_TEXT	SEGMENT PARA USE32 PUBLIC 'CODE'
_TEXT	ENDS
;	COMDAT ??0?$basic_string@DV?$char_traits@D@_STL@@V?$allocator@D@2@@_STL@@QAE@PBDABV?$allocator@D@1@@Z
_TEXT	SEGMENT PARA USE32 PUBLIC 'CODE'
_TEXT	ENDS
;	COMDAT ??8_Rb_tree_base_iterator@_STL@@QBE_NABU01@@Z
_TEXT	SEGMENT PARA USE32 PUBLIC 'CODE'
_TEXT	ENDS
;	COMDAT ??9_Rb_tree_base_iterator@_STL@@QBE_NABU01@@Z
_TEXT	SEGMENT PARA USE32 PUBLIC 'CODE'
_TEXT	ENDS
;	COMDAT ??_7?$CTypePack@VCSpritePal@@@@6B@
CONST	SEGMENT DWORD USE32 PUBLIC 'CONST'
CONST	ENDS
;	COMDAT ??1?$allocator@G@_STL@@QAE@XZ
_TEXT	SEGMENT PARA USE32 PUBLIC 'CODE'
_TEXT	ENDS
;	COMDAT ?assign@?$char_traits@D@_STL@@SAXAADABD@Z
_TEXT	SEGMENT PARA USE32 PUBLIC 'CODE'
_TEXT	ENDS
;	COMDAT ?always_noconv@?$codecvt@DDH@_STL@@QBE_NXZ
_TEXT	SEGMENT PARA USE32 PUBLIC 'CODE'
_TEXT	ENDS
;	COMDAT ?encoding@?$codecvt@DDH@_STL@@QBEHXZ
_TEXT	SEGMENT PARA USE32 PUBLIC 'CODE'
_TEXT	ENDS
;	COMDAT ?max_length@?$codecvt@DDH@_STL@@QBEHXZ
_TEXT	SEGMENT PARA USE32 PUBLIC 'CODE'
_TEXT	ENDS
;	COMDAT ?__o_mode@_Filebuf_base@_STL@@QBEHXZ
_TEXT	SEGMENT PARA USE32 PUBLIC 'CODE'
_TEXT	ENDS
;	COMDAT ?deallocate@?$__node_alloc@$00$0A@@_STL@@SAXPAXI@Z
_TEXT	SEGMENT PARA USE32 PUBLIC 'CODE'
_TEXT	ENDS
;	COMDAT ?__stl_delete@_STL@@YAXPAX@Z
_TEXT	SEGMENT PARA USE32 PUBLIC 'CODE'
_TEXT	ENDS
;	COMDAT ?_Destroy@_STL@@YAXPAD0@Z
_TEXT	SEGMENT PARA USE32 PUBLIC 'CODE'
_TEXT	ENDS
;	COMDAT ??0_List_iterator_base@_STL@@QAE@PAU_List_node_base@1@@Z
_TEXT	SEGMENT PARA USE32 PUBLIC 'CODE'
_TEXT	ENDS
;	COMDAT ??$min@H@_STL@@YAABHABH0@Z
_TEXT	SEGMENT PARA USE32 PUBLIC 'CODE'
_TEXT	ENDS
;	COMDAT ?compare@?$char_traits@D@_STL@@SAHPBD0I@Z
_TEXT	SEGMENT PARA USE32 PUBLIC 'CODE'
_TEXT	ENDS
;	COMDAT ?_M_incr@_List_iterator_base@_STL@@QAEXXZ
_TEXT	SEGMENT PARA USE32 PUBLIC 'CODE'
_TEXT	ENDS
;	COMDAT ?setp@?$basic_streambuf@DV?$char_traits@D@_STL@@@_STL@@IAEXPAD0@Z
_TEXT	SEGMENT PARA USE32 PUBLIC 'CODE'
_TEXT	ENDS
;	COMDAT ?setg@?$basic_streambuf@DV?$char_traits@D@_STL@@@_STL@@IAEXPAD00@Z
_TEXT	SEGMENT PARA USE32 PUBLIC 'CODE'
_TEXT	ENDS
;	COMDAT ?__is_open@_Filebuf_base@_STL@@QBE_NXZ
_TEXT	SEGMENT PARA USE32 PUBLIC 'CODE'
_TEXT	ENDS
;	COMDAT ?allocate@?$__node_alloc@$00$0A@@_STL@@SAPAXI@Z
_TEXT	SEGMENT PARA USE32 PUBLIC 'CODE'
_TEXT	ENDS
;	COMDAT ?__stl_new@_STL@@YAPAXI@Z
_TEXT	SEGMENT PARA USE32 PUBLIC 'CODE'
_TEXT	ENDS
;	COMDAT ??1?$_STLP_alloc_proxy@PADDV?$allocator@D@_STL@@@_STL@@QAE@XZ
_TEXT	SEGMENT PARA USE32 PUBLIC 'CODE'
_TEXT	ENDS
;	COMDAT ?length@?$char_traits@D@_STL@@SAIPBD@Z
_TEXT	SEGMENT PARA USE32 PUBLIC 'CODE'
_TEXT	ENDS
;	COMDAT ??1?$allocator@D@_STL@@QAE@XZ
_TEXT	SEGMENT PARA USE32 PUBLIC 'CODE'
_TEXT	ENDS
;	COMDAT ?eof@?$__char_traits_base@DH@_STL@@SAHXZ
_TEXT	SEGMENT PARA USE32 PUBLIC 'CODE'
_TEXT	ENDS
;	COMDAT ??9_List_iterator_base@_STL@@QBE_NABU01@@Z
_TEXT	SEGMENT PARA USE32 PUBLIC 'CODE'
_TEXT	ENDS
;	COMDAT ??4?$basic_string@DV?$char_traits@D@_STL@@V?$allocator@D@2@@_STL@@QAEAAV01@ABV01@@Z
_TEXT	SEGMENT PARA USE32 PUBLIC 'CODE'
_TEXT	ENDS
;	COMDAT ??$assign@PAD@?$basic_string@DV?$char_traits@D@_STL@@V?$allocator@D@2@@_STL@@QAEAAV01@PAD0@Z
_TEXT	SEGMENT PARA USE32 PUBLIC 'CODE'
_TEXT	ENDS
;	COMDAT ??_7ITypePackBase@@6B@
CONST	SEGMENT DWORD USE32 PUBLIC 'CONST'
CONST	ENDS
;	COMDAT ??_7ovfstream@@6B@
CONST	SEGMENT DWORD USE32 PUBLIC 'CONST'
CONST	ENDS
;	COMDAT ??_7ivfstream@@6B@
CONST	SEGMENT DWORD USE32 PUBLIC 'CONST'
CONST	ENDS
;	COMDAT ??0?$basic_string@DV?$char_traits@D@_STL@@V?$allocator@D@2@@_STL@@QAE@XZ
_TEXT	SEGMENT PARA USE32 PUBLIC 'CODE'
_TEXT	ENDS
;	COMDAT ??1?$basic_string@DV?$char_traits@D@_STL@@V?$allocator@D@2@@_STL@@QAE@XZ
_TEXT	SEGMENT PARA USE32 PUBLIC 'CODE'
_TEXT	ENDS
;	COMDAT ??_7iovfs_base@@6B@
CONST	SEGMENT DWORD USE32 PUBLIC 'CONST'
CONST	ENDS
;	COMDAT ??_7IFileIO@@6B@
CONST	SEGMENT DWORD USE32 PUBLIC 'CONST'
CONST	ENDS
sxdata	SEGMENT DWORD USE32 'SXDATA'
sxdata	ENDS
FLAT	GROUP _DATA, CONST, _BSS
	ASSUME	CS: FLAT, DS: FLAT, SS: FLAT
endif

INCLUDELIB LIBCMT
INCLUDELIB OLDNAMES

PUBLIC	??_C@_0O@JKENFCBN@MinTrace?52003?$AA@		; `string'
PUBLIC	??_C@_0BE@MNEJIGLM@__MinTrace?5Window__?$AA@	; `string'
;	COMDAT ??_C@_0O@JKENFCBN@MinTrace?52003?$AA@
CONST	SEGMENT
??_C@_0O@JKENFCBN@MinTrace?52003?$AA@ DB 'MinTrace 2003', 00H ; `string'
CONST	ENDS
_DATA	SEGMENT
_g_pszMinTraceTitle DD FLAT:??_C@_0O@JKENFCBN@MinTrace?52003?$AA@
_DATA	ENDS
;	COMDAT ??_C@_0BE@MNEJIGLM@__MinTrace?5Window__?$AA@
CONST	SEGMENT
??_C@_0BE@MNEJIGLM@__MinTrace?5Window__?$AA@ DB '__MinTrace Window__', 00H ; `string'
CONST	ENDS
_DATA	SEGMENT
_g_pszMinTraceClassName DD FLAT:??_C@_0BE@MNEJIGLM@__MinTrace?5Window__?$AA@
_DATA	ENDS
PUBLIC	??2@YAPAXIPAX@Z					; operator new
; Function compile flags: /Ogsy
; File c:\program files\microsoft visual studio .net 2003\vc7\include\new
;	COMDAT ??2@YAPAXIPAX@Z
_TEXT	SEGMENT
___formal$ = 8						; size = 4
__Where$ = 12						; size = 4
??2@YAPAXIPAX@Z PROC NEAR				; operator new, COMDAT

; 64   : 	return (_Where);

  00000	8b 44 24 08	 mov	 eax, DWORD PTR __Where$[esp-4]

; 65   : 	}

  00004	c3		 ret	 0
??2@YAPAXIPAX@Z ENDP					; operator new
_TEXT	ENDS
PUBLIC	?__stl_new@_STL@@YAPAXI@Z			; _STL::__stl_new
EXTRN	??2@YAPAXI@Z:NEAR				; operator new
; Function compile flags: /Ogsy
; File c:\stlport-4.6.1\stlport\stl\_new.h
;	COMDAT ?__stl_new@_STL@@YAPAXI@Z
_TEXT	SEGMENT
___n$ = 8						; size = 4
?__stl_new@_STL@@YAPAXI@Z PROC NEAR			; _STL::__stl_new, COMDAT

; 86   : inline void*  _STLP_CALL __stl_new(size_t __n)   { _STLP_CHECK_NULL_ALLOC(::operator _STLP_NEW(__n)); }

  00000	e9 00 00 00 00	 jmp	 ??2@YAPAXI@Z		; operator new
?__stl_new@_STL@@YAPAXI@Z ENDP				; _STL::__stl_new
_TEXT	ENDS
PUBLIC	?__stl_delete@_STL@@YAXPAX@Z			; _STL::__stl_delete
EXTRN	??3@YAXPAX@Z:NEAR				; operator delete
; Function compile flags: /Ogsy
;	COMDAT ?__stl_delete@_STL@@YAXPAX@Z
_TEXT	SEGMENT
___p$ = 8						; size = 4
?__stl_delete@_STL@@YAXPAX@Z PROC NEAR			; _STL::__stl_delete, COMDAT

; 87   : inline void   _STLP_CALL __stl_delete(void* __p) { ::operator delete(__p); }

  00000	e9 00 00 00 00	 jmp	 ??3@YAXPAX@Z		; operator delete
?__stl_delete@_STL@@YAXPAX@Z ENDP			; _STL::__stl_delete
_TEXT	ENDS
PUBLIC	?IsTexturePow2@CDirect3D@@SA_NXZ		; CDirect3D::IsTexturePow2
EXTRN	?m_bTexturePow2@CDirect3D@@1_NA:BYTE		; CDirect3D::m_bTexturePow2
; Function compile flags: /Ogsy
; File c:\darkeden\designed_common\project\client\d3dlib\cdirect3d.h
;	COMDAT ?IsTexturePow2@CDirect3D@@SA_NXZ
_TEXT	SEGMENT
?IsTexturePow2@CDirect3D@@SA_NXZ PROC NEAR		; CDirect3D::IsTexturePow2, COMDAT

; 66   : 		static bool		IsTexturePow2()			{ return m_bTexturePow2; }

  00000	a0 00 00 00 00	 mov	 al, BYTE PTR ?m_bTexturePow2@CDirect3D@@1_NA ; CDirect3D::m_bTexturePow2
  00005	c3		 ret	 0
?IsTexturePow2@CDirect3D@@SA_NXZ ENDP			; CDirect3D::IsTexturePow2
_TEXT	ENDS
PUBLIC	?IsTextureSquareOnly@CDirect3D@@SA_NXZ		; CDirect3D::IsTextureSquareOnly
EXTRN	?m_bTextureSquareOnly@CDirect3D@@1_NA:BYTE	; CDirect3D::m_bTextureSquareOnly
; Function compile flags: /Ogsy
;	COMDAT ?IsTextureSquareOnly@CDirect3D@@SA_NXZ
_TEXT	SEGMENT
?IsTextureSquareOnly@CDirect3D@@SA_NXZ PROC NEAR	; CDirect3D::IsTextureSquareOnly, COMDAT

; 67   : 		static bool		IsTextureSquareOnly()	{ return m_bTextureSquareOnly; }

  00000	a0 00 00 00 00	 mov	 al, BYTE PTR ?m_bTextureSquareOnly@CDirect3D@@1_NA ; CDirect3D::m_bTextureSquareOnly
  00005	c3		 ret	 0
?IsTextureSquareOnly@CDirect3D@@SA_NXZ ENDP		; CDirect3D::IsTextureSquareOnly
_TEXT	ENDS
PUBLIC	?GetPixelFormat1555@CDirect3D@@SAQAU_DDPIXELFORMAT@@XZ ; CDirect3D::GetPixelFormat1555
EXTRN	?m_PixelFormat1555@CDirect3D@@2U_DDPIXELFORMAT@@A:BYTE ; CDirect3D::m_PixelFormat1555
; Function compile flags: /Ogsy
;	COMDAT ?GetPixelFormat1555@CDirect3D@@SAQAU_DDPIXELFORMAT@@XZ
_TEXT	SEGMENT
?GetPixelFormat1555@CDirect3D@@SAQAU_DDPIXELFORMAT@@XZ PROC NEAR ; CDirect3D::GetPixelFormat1555, COMDAT

; 70   : 		static const LPDDPIXELFORMAT	GetPixelFormat1555() { return &m_PixelFormat1555; }

  00000	b8 00 00 00 00	 mov	 eax, OFFSET FLAT:?m_PixelFormat1555@CDirect3D@@2U_DDPIXELFORMAT@@A ; CDirect3D::m_PixelFormat1555
  00005	c3		 ret	 0
?GetPixelFormat1555@CDirect3D@@SAQAU_DDPIXELFORMAT@@XZ ENDP ; CDirect3D::GetPixelFormat1555
_TEXT	ENDS
PUBLIC	?GetSurfacePointer@CDirectDrawSurface@@QAEPAXXZ	; CDirectDrawSurface::GetSurfacePointer
EXTRN	?m_ddsd@CDirectDraw@@1U_DDSURFACEDESC2@@A:BYTE	; CDirectDraw::m_ddsd
; Function compile flags: /Ogsy
; File c:\darkeden\designed_common\project\client\cdirectdrawsurface.h
;	COMDAT ?GetSurfacePointer@CDirectDrawSurface@@QAEPAXXZ
_TEXT	SEGMENT
?GetSurfacePointer@CDirectDrawSurface@@QAEPAXXZ PROC NEAR ; CDirectDrawSurface::GetSurfacePointer, COMDAT
; _this$ = ecx

; 125  : 	inline void *	GetSurfacePointer() { return m_ddsd.lpSurface; }

  00000	a1 24 00 00 00	 mov	 eax, DWORD PTR ?m_ddsd@CDirectDraw@@1U_DDSURFACEDESC2@@A+36
  00005	c3		 ret	 0
?GetSurfacePointer@CDirectDrawSurface@@QAEPAXXZ ENDP	; CDirectDrawSurface::GetSurfacePointer
_TEXT	ENDS
PUBLIC	?GetSurfacePitch@CDirectDrawSurface@@QAEJXZ	; CDirectDrawSurface::GetSurfacePitch
; Function compile flags: /Ogsy
;	COMDAT ?GetSurfacePitch@CDirectDrawSurface@@QAEJXZ
_TEXT	SEGMENT
?GetSurfacePitch@CDirectDrawSurface@@QAEJXZ PROC NEAR	; CDirectDrawSurface::GetSurfacePitch, COMDAT
; _this$ = ecx

; 126  : 	inline long		GetSurfacePitch() { return m_ddsd.lPitch; }

  00000	a1 10 00 00 00	 mov	 eax, DWORD PTR ?m_ddsd@CDirectDraw@@1U_DDSURFACEDESC2@@A+16
  00005	c3		 ret	 0
?GetSurfacePitch@CDirectDrawSurface@@QAEJXZ ENDP	; CDirectDrawSurface::GetSurfacePitch
_TEXT	ENDS
PUBLIC	?GetWidth@CSprite@@QBEGXZ			; CSprite::GetWidth
; Function compile flags: /Ogsy
; File c:\darkeden\designed_common\project\client\spritelib\csprite.h
;	COMDAT ?GetWidth@CSprite@@QBEGXZ
_TEXT	SEGMENT
?GetWidth@CSprite@@QBEGXZ PROC NEAR			; CSprite::GetWidth, COMDAT
; _this$ = ecx

; 91   : 		WORD		GetWidth()		const			{ return m_Width; }

  00000	66 8b 41 04	 mov	 ax, WORD PTR [ecx+4]
  00004	c3		 ret	 0
?GetWidth@CSprite@@QBEGXZ ENDP				; CSprite::GetWidth
_TEXT	ENDS
PUBLIC	?GetHeight@CSprite@@QBEGXZ			; CSprite::GetHeight
; Function compile flags: /Ogsy
;	COMDAT ?GetHeight@CSprite@@QBEGXZ
_TEXT	SEGMENT
?GetHeight@CSprite@@QBEGXZ PROC NEAR			; CSprite::GetHeight, COMDAT
; _this$ = ecx

; 92   : 		WORD		GetHeight()		const			{ return m_Height; }

  00000	66 8b 41 06	 mov	 ax, WORD PTR [ecx+6]
  00004	c3		 ret	 0
?GetHeight@CSprite@@QBEGXZ ENDP				; CSprite::GetHeight
_TEXT	ENDS
PUBLIC	??_GCSpriteSurface@@QAEPAXI@Z			; CSpriteSurface::`scalar deleting destructor'
EXTRN	??1CSpriteSurface@@QAE@XZ:NEAR			; CSpriteSurface::~CSpriteSurface
; Function compile flags: /Ogsy
;	COMDAT ??_GCSpriteSurface@@QAEPAXI@Z
_TEXT	SEGMENT
___flags$ = 8						; size = 4
??_GCSpriteSurface@@QAEPAXI@Z PROC NEAR			; CSpriteSurface::`scalar deleting destructor', COMDAT
; _this$ = ecx
  00000	56		 push	 esi
  00001	8b f1		 mov	 esi, ecx
  00003	e8 00 00 00 00	 call	 ??1CSpriteSurface@@QAE@XZ ; CSpriteSurface::~CSpriteSurface
  00008	f6 44 24 08 01	 test	 BYTE PTR ___flags$[esp], 1
  0000d	74 07		 je	 SHORT $L112349
  0000f	56		 push	 esi
  00010	e8 00 00 00 00	 call	 ??3@YAXPAX@Z		; operator delete
  00015	59		 pop	 ecx
$L112349:
  00016	8b c6		 mov	 eax, esi
  00018	5e		 pop	 esi
  00019	c2 04 00	 ret	 4
??_GCSpriteSurface@@QAEPAXI@Z ENDP			; CSpriteSurface::`scalar deleting destructor'
_TEXT	ENDS
PUBLIC	?IsDataNotNULL@?$CPartManager@GGPAVCSpriteSurface@@@@QAE_NG@Z ; CPartManager<unsigned short,unsigned short,CSpriteSurface *>::IsDataNotNULL
; Function compile flags: /Ogsy
; File c:\darkeden\designed_common\project\client\cpartmanager.h
;	COMDAT ?IsDataNotNULL@?$CPartManager@GGPAVCSpriteSurface@@@@QAE_NG@Z
_TEXT	SEGMENT
_index$ = 8						; size = 2
?IsDataNotNULL@?$CPartManager@GGPAVCSpriteSurface@@@@QAE_NG@Z PROC NEAR ; CPartManager<unsigned short,unsigned short,CSpriteSurface *>::IsDataNotNULL, COMDAT
; _this$ = ecx

; 97   : 		bool			IsDataNotNULL(IndexType index)	{ return m_pPartIndex[index]!=m_PartIndexNULL; }

  00000	0f b7 44 24 04	 movzx	 eax, WORD PTR _index$[esp-4]
  00005	8b 51 04	 mov	 edx, DWORD PTR [ecx+4]
  00008	66 8b 04 42	 mov	 ax, WORD PTR [edx+eax*2]
  0000c	33 d2		 xor	 edx, edx
  0000e	66 3b 41 22	 cmp	 ax, WORD PTR [ecx+34]
  00012	0f 95 c2	 setne	 dl
  00015	8a c2		 mov	 al, dl
  00017	c2 04 00	 ret	 4
?IsDataNotNULL@?$CPartManager@GGPAVCSpriteSurface@@@@QAE_NG@Z ENDP ; CPartManager<unsigned short,unsigned short,CSpriteSurface *>::IsDataNotNULL
_TEXT	ENDS
PUBLIC	??0?$allocator@PAVCSpriteSurface@@@_STL@@QAE@XZ	; _STL::allocator<CSpriteSurface *>::allocator<CSpriteSurface *>
; Function compile flags: /Ogsy
; File c:\stlport-4.6.1\stlport\stl\_alloc.h
;	COMDAT ??0?$allocator@PAVCSpriteSurface@@@_STL@@QAE@XZ
_TEXT	SEGMENT
??0?$allocator@PAVCSpriteSurface@@@_STL@@QAE@XZ PROC NEAR ; _STL::allocator<CSpriteSurface *>::allocator<CSpriteSurface *>, COMDAT
; _this$ = ecx

; 345  :   allocator() _STLP_NOTHROW {}

  00000	8b c1		 mov	 eax, ecx
  00002	c3		 ret	 0
??0?$allocator@PAVCSpriteSurface@@@_STL@@QAE@XZ ENDP	; _STL::allocator<CSpriteSurface *>::allocator<CSpriteSurface *>
_TEXT	ENDS
PUBLIC	??1?$allocator@PAVCSpriteSurface@@@_STL@@QAE@XZ	; _STL::allocator<CSpriteSurface *>::~allocator<CSpriteSurface *>
; Function compile flags: /Ogsy
;	COMDAT ??1?$allocator@PAVCSpriteSurface@@@_STL@@QAE@XZ
_TEXT	SEGMENT
??1?$allocator@PAVCSpriteSurface@@@_STL@@QAE@XZ PROC NEAR ; _STL::allocator<CSpriteSurface *>::~allocator<CSpriteSurface *>, COMDAT
; _this$ = ecx

; 350  :   ~allocator() _STLP_NOTHROW {}

  00000	c3		 ret	 0
??1?$allocator@PAVCSpriteSurface@@@_STL@@QAE@XZ ENDP	; _STL::allocator<CSpriteSurface *>::~allocator<CSpriteSurface *>
_TEXT	ENDS
PUBLIC	??D?$_List_iterator@PAVCSpriteSurface@@U?$_Nonconst_traits@PAVCSpriteSurface@@@_STL@@@_STL@@QBEAAPAVCSpriteSurface@@XZ ; _STL::_List_iterator<CSpriteSurface *,_STL::_Nonconst_traits<CSpriteSurface *> >::operator*
; Function compile flags: /Ogsy
; File c:\stlport-4.6.1\stlport\stl\_list.h
;	COMDAT ??D?$_List_iterator@PAVCSpriteSurface@@U?$_Nonconst_traits@PAVCSpriteSurface@@@_STL@@@_STL@@QBEAAPAVCSpriteSurface@@XZ
_TEXT	SEGMENT
??D?$_List_iterator@PAVCSpriteSurface@@U?$_Nonconst_traits@PAVCSpriteSurface@@@_STL@@@_STL@@QBEAAPAVCSpriteSurface@@XZ PROC NEAR ; _STL::_List_iterator<CSpriteSurface *,_STL::_Nonconst_traits<CSpriteSurface *> >::operator*, COMDAT
; _this$ = ecx

; 130  :   reference operator*() const { return ((_Node*)_M_node)->_M_data; }

  00000	8b 01		 mov	 eax, DWORD PTR [ecx]
  00002	83 c0 08	 add	 eax, 8
  00005	c3		 ret	 0
??D?$_List_iterator@PAVCSpriteSurface@@U?$_Nonconst_traits@PAVCSpriteSurface@@@_STL@@@_STL@@QBEAAPAVCSpriteSurface@@XZ ENDP ; _STL::_List_iterator<CSpriteSurface *,_STL::_Nonconst_traits<CSpriteSurface *> >::operator*
_TEXT	ENDS
PUBLIC	??1?$allocator@U?$_List_node@PAVCSpriteSurface@@@_STL@@@_STL@@QAE@XZ ; _STL::allocator<_STL::_List_node<CSpriteSurface *> >::~allocator<_STL::_List_node<CSpriteSurface *> >
; Function compile flags: /Ogsy
; File c:\stlport-4.6.1\stlport\stl\_alloc.h
;	COMDAT ??1?$allocator@U?$_List_node@PAVCSpriteSurface@@@_STL@@@_STL@@QAE@XZ
_TEXT	SEGMENT
??1?$allocator@U?$_List_node@PAVCSpriteSurface@@@_STL@@@_STL@@QAE@XZ PROC NEAR ; _STL::allocator<_STL::_List_node<CSpriteSurface *> >::~allocator<_STL::_List_node<CSpriteSurface *> >, COMDAT
; _this$ = ecx

; 350  :   ~allocator() _STLP_NOTHROW {}

  00000	c3		 ret	 0
??1?$allocator@U?$_List_node@PAVCSpriteSurface@@@_STL@@@_STL@@QAE@XZ ENDP ; _STL::allocator<_STL::_List_node<CSpriteSurface *> >::~allocator<_STL::_List_node<CSpriteSurface *> >
_TEXT	ENDS
PUBLIC	??0?$allocator@U?$_List_node@PAVCSpriteSurface@@@_STL@@@_STL@@QAE@ABV01@@Z ; _STL::allocator<_STL::_List_node<CSpriteSurface *> >::allocator<_STL::_List_node<CSpriteSurface *> >
; Function compile flags: /Ogsy
;	COMDAT ??0?$allocator@U?$_List_node@PAVCSpriteSurface@@@_STL@@@_STL@@QAE@ABV01@@Z
_TEXT	SEGMENT
___formal$ = 8						; size = 4
??0?$allocator@U?$_List_node@PAVCSpriteSurface@@@_STL@@@_STL@@QAE@ABV01@@Z PROC NEAR ; _STL::allocator<_STL::_List_node<CSpriteSurface *> >::allocator<_STL::_List_node<CSpriteSurface *> >, COMDAT
; _this$ = ecx

; 349  :   allocator(const allocator<_Tp>&) _STLP_NOTHROW {}

  00000	8b c1		 mov	 eax, ecx
  00002	c2 04 00	 ret	 4
??0?$allocator@U?$_List_node@PAVCSpriteSurface@@@_STL@@@_STL@@QAE@ABV01@@Z ENDP ; _STL::allocator<_STL::_List_node<CSpriteSurface *> >::allocator<_STL::_List_node<CSpriteSurface *> >
_TEXT	ENDS
PUBLIC	??0_List_iterator_base@_STL@@QAE@PAU_List_node_base@1@@Z ; _STL::_List_iterator_base::_List_iterator_base
; Function compile flags: /Ogsy
; File c:\stlport-4.6.1\stlport\stl\_list.h
;	COMDAT ??0_List_iterator_base@_STL@@QAE@PAU_List_node_base@1@@Z
_TEXT	SEGMENT
___x$ = 8						; size = 4
??0_List_iterator_base@_STL@@QAE@PAU_List_node_base@1@@Z PROC NEAR ; _STL::_List_iterator_base::_List_iterator_base, COMDAT
; _this$ = ecx

; 95   :   _List_iterator_base(_List_node_base* __x) : _M_node(__x) {}

  00000	8b c1		 mov	 eax, ecx
  00002	8b 4c 24 04	 mov	 ecx, DWORD PTR ___x$[esp-4]
  00006	89 08		 mov	 DWORD PTR [eax], ecx
  00008	c2 04 00	 ret	 4
??0_List_iterator_base@_STL@@QAE@PAU_List_node_base@1@@Z ENDP ; _STL::_List_iterator_base::_List_iterator_base
_TEXT	ENDS
PUBLIC	??0_List_iterator_base@_STL@@QAE@XZ		; _STL::_List_iterator_base::_List_iterator_base
; Function compile flags: /Ogsy
;	COMDAT ??0_List_iterator_base@_STL@@QAE@XZ
_TEXT	SEGMENT
??0_List_iterator_base@_STL@@QAE@XZ PROC NEAR		; _STL::_List_iterator_base::_List_iterator_base, COMDAT
; _this$ = ecx

; 96   :   _List_iterator_base() {}

  00000	8b c1		 mov	 eax, ecx
  00002	c3		 ret	 0
??0_List_iterator_base@_STL@@QAE@XZ ENDP		; _STL::_List_iterator_base::_List_iterator_base
_TEXT	ENDS
PUBLIC	?_M_incr@_List_iterator_base@_STL@@QAEXXZ	; _STL::_List_iterator_base::_M_incr
; Function compile flags: /Ogsy
;	COMDAT ?_M_incr@_List_iterator_base@_STL@@QAEXXZ
_TEXT	SEGMENT
?_M_incr@_List_iterator_base@_STL@@QAEXXZ PROC NEAR	; _STL::_List_iterator_base::_M_incr, COMDAT
; _this$ = ecx

; 98   :   void _M_incr() { _M_node = _M_node->_M_next; }

  00000	8b 01		 mov	 eax, DWORD PTR [ecx]
  00002	8b 00		 mov	 eax, DWORD PTR [eax]
  00004	89 01		 mov	 DWORD PTR [ecx], eax
  00006	c3		 ret	 0
?_M_incr@_List_iterator_base@_STL@@QAEXXZ ENDP		; _STL::_List_iterator_base::_M_incr
_TEXT	ENDS
PUBLIC	?_M_decr@_List_iterator_base@_STL@@QAEXXZ	; _STL::_List_iterator_base::_M_decr
; Function compile flags: /Ogsy
;	COMDAT ?_M_decr@_List_iterator_base@_STL@@QAEXXZ
_TEXT	SEGMENT
?_M_decr@_List_iterator_base@_STL@@QAEXXZ PROC NEAR	; _STL::_List_iterator_base::_M_decr, COMDAT
; _this$ = ecx

; 99   :   void _M_decr() { _M_node = _M_node->_M_prev; }

  00000	8b 01		 mov	 eax, DWORD PTR [ecx]
  00002	8b 40 04	 mov	 eax, DWORD PTR [eax+4]
  00005	89 01		 mov	 DWORD PTR [ecx], eax
  00007	c3		 ret	 0
?_M_decr@_List_iterator_base@_STL@@QAEXXZ ENDP		; _STL::_List_iterator_base::_M_decr
_TEXT	ENDS
PUBLIC	??9_List_iterator_base@_STL@@QBE_NABU01@@Z	; _STL::_List_iterator_base::operator!=
; Function compile flags: /Ogsy
;	COMDAT ??9_List_iterator_base@_STL@@QBE_NABU01@@Z
_TEXT	SEGMENT
___y$ = 8						; size = 4
??9_List_iterator_base@_STL@@QBE_NABU01@@Z PROC NEAR	; _STL::_List_iterator_base::operator!=, COMDAT
; _this$ = ecx

; 104  :     return _M_node != __y._M_node; 

  00000	8b 01		 mov	 eax, DWORD PTR [ecx]
  00002	8b 54 24 04	 mov	 edx, DWORD PTR ___y$[esp-4]
  00006	33 c9		 xor	 ecx, ecx
  00008	3b 02		 cmp	 eax, DWORD PTR [edx]
  0000a	0f 95 c1	 setne	 cl
  0000d	8a c1		 mov	 al, cl

; 105  :   }

  0000f	c2 04 00	 ret	 4
??9_List_iterator_base@_STL@@QBE_NABU01@@Z ENDP		; _STL::_List_iterator_base::operator!=
_TEXT	ENDS
PUBLIC	??$?0PAVCSpriteSurface@@@?$allocator@U?$_List_node@PAVCSpriteSurface@@@_STL@@@_STL@@QAE@ABV?$allocator@PAVCSpriteSurface@@@1@@Z ; _STL::allocator<_STL::_List_node<CSpriteSurface *> >::allocator<_STL::_List_node<CSpriteSurface *> ><CSpriteSurface *>
; Function compile flags: /Ogsy
; File c:\stlport-4.6.1\stlport\stl\_alloc.h
;	COMDAT ??$?0PAVCSpriteSurface@@@?$allocator@U?$_List_node@PAVCSpriteSurface@@@_STL@@@_STL@@QAE@ABV?$allocator@PAVCSpriteSurface@@@1@@Z
_TEXT	SEGMENT
___formal$ = 8						; size = 4
??$?0PAVCSpriteSurface@@@?$allocator@U?$_List_node@PAVCSpriteSurface@@@_STL@@@_STL@@QAE@ABV?$allocator@PAVCSpriteSurface@@@1@@Z PROC NEAR ; _STL::allocator<_STL::_List_node<CSpriteSurface *> >::allocator<_STL::_List_node<CSpriteSurface *> ><CSpriteSurface *>, COMDAT
; _this$ = ecx

; 347  :   template <class _Tp1> allocator(const allocator<_Tp1>&) _STLP_NOTHROW {}

  00000	8b c1		 mov	 eax, ecx
  00002	c2 04 00	 ret	 4
??$?0PAVCSpriteSurface@@@?$allocator@U?$_List_node@PAVCSpriteSurface@@@_STL@@@_STL@@QAE@ABV?$allocator@PAVCSpriteSurface@@@1@@Z ENDP ; _STL::allocator<_STL::_List_node<CSpriteSurface *> >::allocator<_STL::_List_node<CSpriteSurface *> ><CSpriteSurface *>
_TEXT	ENDS
PUBLIC	??$_Construct@PAVCSpriteSurface@@PAV1@@_STL@@YAXPAPAVCSpriteSurface@@ABQAV1@@Z ; _STL::_Construct<CSpriteSurface *,CSpriteSurface *>
; Function compile flags: /Ogsy
; File c:\stlport-4.6.1\stlport\stl\_construct.h
;	COMDAT ??$_Construct@PAVCSpriteSurface@@PAV1@@_STL@@YAXPAPAVCSpriteSurface@@ABQAV1@@Z
_TEXT	SEGMENT
___p$ = 8						; size = 4
___val$ = 12						; size = 4
??$_Construct@PAVCSpriteSurface@@PAV1@@_STL@@YAXPAPAVCSpriteSurface@@ABQAV1@@Z PROC NEAR ; _STL::_Construct<CSpriteSurface *,CSpriteSurface *>, COMDAT

; 94   : # ifdef _STLP_DEBUG_UNINITIALIZED
; 95   : 	memset((char*)__p, _STLP_SHRED_BYTE, sizeof(_T1));
; 96   : # endif
; 97   :     _STLP_PLACEMENT_NEW (__p) _T1(__val);

  00000	8b 44 24 04	 mov	 eax, DWORD PTR ___p$[esp-4]
  00004	85 c0		 test	 eax, eax
  00006	74 08		 je	 SHORT $L116835
  00008	8b 4c 24 08	 mov	 ecx, DWORD PTR ___val$[esp-4]
  0000c	8b 09		 mov	 ecx, DWORD PTR [ecx]
  0000e	89 08		 mov	 DWORD PTR [eax], ecx
$L116835:

; 98   : }

  00010	c3		 ret	 0
??$_Construct@PAVCSpriteSurface@@PAV1@@_STL@@YAXPAPAVCSpriteSurface@@ABQAV1@@Z ENDP ; _STL::_Construct<CSpriteSurface *,CSpriteSurface *>
_TEXT	ENDS
PUBLIC	??_H@YGXPAXIHP6EPAX0@Z@Z			; `vector constructor iterator'
; Function compile flags: /Ogsy
;	COMDAT ??_H@YGXPAXIHP6EPAX0@Z@Z
_TEXT	SEGMENT
___t$ = 8						; size = 4
___s$ = 12						; size = 4
___n$ = 16						; size = 4
___f$ = 20						; size = 4
??_H@YGXPAXIHP6EPAX0@Z@Z PROC NEAR			; `vector constructor iterator', COMDAT
  00000	8b 44 24 0c	 mov	 eax, DWORD PTR ___n$[esp-4]
  00004	48		 dec	 eax
  00005	78 18		 js	 SHORT $L114636
  00007	56		 push	 esi
  00008	8b 74 24 08	 mov	 esi, DWORD PTR ___t$[esp]
  0000c	57		 push	 edi
  0000d	8d 78 01	 lea	 edi, DWORD PTR [eax+1]
$L114635:
  00010	8b ce		 mov	 ecx, esi
  00012	ff 54 24 18	 call	 DWORD PTR ___f$[esp+4]
  00016	03 74 24 10	 add	 esi, DWORD PTR ___s$[esp+4]
  0001a	4f		 dec	 edi
  0001b	75 f3		 jne	 SHORT $L114635
  0001d	5f		 pop	 edi
  0001e	5e		 pop	 esi
$L114636:
  0001f	c2 10 00	 ret	 16			; 00000010H
??_H@YGXPAXIHP6EPAX0@Z@Z ENDP				; `vector constructor iterator'
_TEXT	ENDS
PUBLIC	??1CSpritePal@@UAE@XZ				; CSpritePal::~CSpritePal
EXTRN	??1CSpritePalBase@@UAE@XZ:NEAR			; CSpritePalBase::~CSpritePalBase
; Function compile flags: /Ogsy
;	COMDAT ??1CSpritePal@@UAE@XZ
_TEXT	SEGMENT
??1CSpritePal@@UAE@XZ PROC NEAR				; CSpritePal::~CSpritePal, COMDAT
; _this$ = ecx
  00000	e9 00 00 00 00	 jmp	 ??1CSpritePalBase@@UAE@XZ ; CSpritePalBase::~CSpritePalBase
??1CSpritePal@@UAE@XZ ENDP				; CSpritePal::~CSpritePal
_TEXT	ENDS
PUBLIC	??1MPalette565@@QAE@XZ				; MPalette565::~MPalette565
EXTRN	??1MPalette@@QAE@XZ:NEAR			; MPalette::~MPalette
; Function compile flags: /Ogsy
;	COMDAT ??1MPalette565@@QAE@XZ
_TEXT	SEGMENT
??1MPalette565@@QAE@XZ PROC NEAR			; MPalette565::~MPalette565, COMDAT
; _this$ = ecx
  00000	e9 00 00 00 00	 jmp	 ??1MPalette@@QAE@XZ	; MPalette::~MPalette
??1MPalette565@@QAE@XZ ENDP				; MPalette565::~MPalette565
_TEXT	ENDS
PUBLIC	??1MPalette555@@QAE@XZ				; MPalette555::~MPalette555
; Function compile flags: /Ogsy
;	COMDAT ??1MPalette555@@QAE@XZ
_TEXT	SEGMENT
??1MPalette555@@QAE@XZ PROC NEAR			; MPalette555::~MPalette555, COMDAT
; _this$ = ecx
  00000	e9 00 00 00 00	 jmp	 ??1MPalette@@QAE@XZ	; MPalette::~MPalette
??1MPalette555@@QAE@XZ ENDP				; MPalette555::~MPalette555
_TEXT	ENDS
PUBLIC	??1CSprite565@@QAE@XZ				; CSprite565::~CSprite565
EXTRN	??1CSprite@@QAE@XZ:NEAR				; CSprite::~CSprite
; Function compile flags: /Ogsy
;	COMDAT ??1CSprite565@@QAE@XZ
_TEXT	SEGMENT
??1CSprite565@@QAE@XZ PROC NEAR				; CSprite565::~CSprite565, COMDAT
; _this$ = ecx
  00000	e9 00 00 00 00	 jmp	 ??1CSprite@@QAE@XZ	; CSprite::~CSprite
??1CSprite565@@QAE@XZ ENDP				; CSprite565::~CSprite565
_TEXT	ENDS
PUBLIC	??1CSprite555@@QAE@XZ				; CSprite555::~CSprite555
; Function compile flags: /Ogsy
;	COMDAT ??1CSprite555@@QAE@XZ
_TEXT	SEGMENT
??1CSprite555@@QAE@XZ PROC NEAR				; CSprite555::~CSprite555, COMDAT
; _this$ = ecx
  00000	e9 00 00 00 00	 jmp	 ??1CSprite@@QAE@XZ	; CSprite::~CSprite
??1CSprite555@@QAE@XZ ENDP				; CSprite555::~CSprite555
_TEXT	ENDS
PUBLIC	??0?$allocator@G@_STL@@QAE@XZ			; _STL::allocator<unsigned short>::allocator<unsigned short>
; Function compile flags: /Ogsy
; File c:\stlport-4.6.1\stlport\stl\_alloc.h
;	COMDAT ??0?$allocator@G@_STL@@QAE@XZ
_TEXT	SEGMENT
??0?$allocator@G@_STL@@QAE@XZ PROC NEAR			; _STL::allocator<unsigned short>::allocator<unsigned short>, COMDAT
; _this$ = ecx

; 345  :   allocator() _STLP_NOTHROW {}

  00000	8b c1		 mov	 eax, ecx
  00002	c3		 ret	 0
??0?$allocator@G@_STL@@QAE@XZ ENDP			; _STL::allocator<unsigned short>::allocator<unsigned short>
_TEXT	ENDS
PUBLIC	??0?$_List_iterator@GU?$_Nonconst_traits@G@_STL@@@_STL@@QAE@XZ ; _STL::_List_iterator<unsigned short,_STL::_Nonconst_traits<unsigned short> >::_List_iterator<unsigned short,_STL::_Nonconst_traits<unsigned short> >
; Function compile flags: /Ogsy
; File c:\stlport-4.6.1\stlport\stl\_list.h
;	COMDAT ??0?$_List_iterator@GU?$_Nonconst_traits@G@_STL@@@_STL@@QAE@XZ
_TEXT	SEGMENT
??0?$_List_iterator@GU?$_Nonconst_traits@G@_STL@@@_STL@@QAE@XZ PROC NEAR ; _STL::_List_iterator<unsigned short,_STL::_Nonconst_traits<unsigned short> >::_List_iterator<unsigned short,_STL::_Nonconst_traits<unsigned short> >, COMDAT
; _this$ = ecx

; 127  :   _List_iterator() {}

  00000	8b c1		 mov	 eax, ecx
  00002	c3		 ret	 0
??0?$_List_iterator@GU?$_Nonconst_traits@G@_STL@@@_STL@@QAE@XZ ENDP ; _STL::_List_iterator<unsigned short,_STL::_Nonconst_traits<unsigned short> >::_List_iterator<unsigned short,_STL::_Nonconst_traits<unsigned short> >
_TEXT	ENDS
PUBLIC	??0?$_List_iterator@GU?$_Nonconst_traits@G@_STL@@@_STL@@QAE@ABU01@@Z ; _STL::_List_iterator<unsigned short,_STL::_Nonconst_traits<unsigned short> >::_List_iterator<unsigned short,_STL::_Nonconst_traits<unsigned short> >
; Function compile flags: /Ogsy
;	COMDAT ??0?$_List_iterator@GU?$_Nonconst_traits@G@_STL@@@_STL@@QAE@ABU01@@Z
_TEXT	SEGMENT
___x$ = 8						; size = 4
??0?$_List_iterator@GU?$_Nonconst_traits@G@_STL@@@_STL@@QAE@ABU01@@Z PROC NEAR ; _STL::_List_iterator<unsigned short,_STL::_Nonconst_traits<unsigned short> >::_List_iterator<unsigned short,_STL::_Nonconst_traits<unsigned short> >, COMDAT
; _this$ = ecx

; 128  :   _List_iterator(const iterator& __x) :  _List_iterator_base(__x._M_node) {}

  00000	8b c1		 mov	 eax, ecx
  00002	8b 4c 24 04	 mov	 ecx, DWORD PTR ___x$[esp-4]
  00006	8b 09		 mov	 ecx, DWORD PTR [ecx]
  00008	89 08		 mov	 DWORD PTR [eax], ecx
  0000a	c2 04 00	 ret	 4
??0?$_List_iterator@GU?$_Nonconst_traits@G@_STL@@@_STL@@QAE@ABU01@@Z ENDP ; _STL::_List_iterator<unsigned short,_STL::_Nonconst_traits<unsigned short> >::_List_iterator<unsigned short,_STL::_Nonconst_traits<unsigned short> >
_TEXT	ENDS
PUBLIC	??D?$_List_iterator@GU?$_Const_traits@G@_STL@@@_STL@@QBEABGXZ ; _STL::_List_iterator<unsigned short,_STL::_Const_traits<unsigned short> >::operator*
; Function compile flags: /Ogsy
;	COMDAT ??D?$_List_iterator@GU?$_Const_traits@G@_STL@@@_STL@@QBEABGXZ
_TEXT	SEGMENT
??D?$_List_iterator@GU?$_Const_traits@G@_STL@@@_STL@@QBEABGXZ PROC NEAR ; _STL::_List_iterator<unsigned short,_STL::_Const_traits<unsigned short> >::operator*, COMDAT
; _this$ = ecx

; 130  :   reference operator*() const { return ((_Node*)_M_node)->_M_data; }

  00000	8b 01		 mov	 eax, DWORD PTR [ecx]
  00002	83 c0 08	 add	 eax, 8
  00005	c3		 ret	 0
??D?$_List_iterator@GU?$_Const_traits@G@_STL@@@_STL@@QBEABGXZ ENDP ; _STL::_List_iterator<unsigned short,_STL::_Const_traits<unsigned short> >::operator*
_TEXT	ENDS
PUBLIC	??0?$_List_iterator@GU?$_Nonconst_traits@G@_STL@@@_STL@@QAE@PAU?$_List_node@G@1@@Z ; _STL::_List_iterator<unsigned short,_STL::_Nonconst_traits<unsigned short> >::_List_iterator<unsigned short,_STL::_Nonconst_traits<unsigned short> >
; Function compile flags: /Ogsy
;	COMDAT ??0?$_List_iterator@GU?$_Nonconst_traits@G@_STL@@@_STL@@QAE@PAU?$_List_node@G@1@@Z
_TEXT	SEGMENT
___x$ = 8						; size = 4
??0?$_List_iterator@GU?$_Nonconst_traits@G@_STL@@@_STL@@QAE@PAU?$_List_node@G@1@@Z PROC NEAR ; _STL::_List_iterator<unsigned short,_STL::_Nonconst_traits<unsigned short> >::_List_iterator<unsigned short,_STL::_Nonconst_traits<unsigned short> >, COMDAT
; _this$ = ecx

; 126  :   _List_iterator(_Node* __x) : _List_iterator_base(__x) {}

  00000	8b c1		 mov	 eax, ecx
  00002	8b 4c 24 04	 mov	 ecx, DWORD PTR ___x$[esp-4]
  00006	89 08		 mov	 DWORD PTR [eax], ecx
  00008	c2 04 00	 ret	 4
??0?$_List_iterator@GU?$_Nonconst_traits@G@_STL@@@_STL@@QAE@PAU?$_List_node@G@1@@Z ENDP ; _STL::_List_iterator<unsigned short,_STL::_Nonconst_traits<unsigned short> >::_List_iterator<unsigned short,_STL::_Nonconst_traits<unsigned short> >
_TEXT	ENDS
PUBLIC	??1?$allocator@U?$_List_node@G@_STL@@@_STL@@QAE@XZ ; _STL::allocator<_STL::_List_node<unsigned short> >::~allocator<_STL::_List_node<unsigned short> >
; Function compile flags: /Ogsy
; File c:\stlport-4.6.1\stlport\stl\_alloc.h
;	COMDAT ??1?$allocator@U?$_List_node@G@_STL@@@_STL@@QAE@XZ
_TEXT	SEGMENT
??1?$allocator@U?$_List_node@G@_STL@@@_STL@@QAE@XZ PROC NEAR ; _STL::allocator<_STL::_List_node<unsigned short> >::~allocator<_STL::_List_node<unsigned short> >, COMDAT
; _this$ = ecx

; 350  :   ~allocator() _STLP_NOTHROW {}

  00000	c3		 ret	 0
??1?$allocator@U?$_List_node@G@_STL@@@_STL@@QAE@XZ ENDP	; _STL::allocator<_STL::_List_node<unsigned short> >::~allocator<_STL::_List_node<unsigned short> >
_TEXT	ENDS
PUBLIC	??0?$_List_iterator@GU?$_Const_traits@G@_STL@@@_STL@@QAE@PAU?$_List_node@G@1@@Z ; _STL::_List_iterator<unsigned short,_STL::_Const_traits<unsigned short> >::_List_iterator<unsigned short,_STL::_Const_traits<unsigned short> >
; Function compile flags: /Ogsy
; File c:\stlport-4.6.1\stlport\stl\_list.h
;	COMDAT ??0?$_List_iterator@GU?$_Const_traits@G@_STL@@@_STL@@QAE@PAU?$_List_node@G@1@@Z
_TEXT	SEGMENT
___x$ = 8						; size = 4
??0?$_List_iterator@GU?$_Const_traits@G@_STL@@@_STL@@QAE@PAU?$_List_node@G@1@@Z PROC NEAR ; _STL::_List_iterator<unsigned short,_STL::_Const_traits<unsigned short> >::_List_iterator<unsigned short,_STL::_Const_traits<unsigned short> >, COMDAT
; _this$ = ecx

; 126  :   _List_iterator(_Node* __x) : _List_iterator_base(__x) {}

  00000	8b c1		 mov	 eax, ecx
  00002	8b 4c 24 04	 mov	 ecx, DWORD PTR ___x$[esp-4]
  00006	89 08		 mov	 DWORD PTR [eax], ecx
  00008	c2 04 00	 ret	 4
??0?$_List_iterator@GU?$_Const_traits@G@_STL@@@_STL@@QAE@PAU?$_List_node@G@1@@Z ENDP ; _STL::_List_iterator<unsigned short,_STL::_Const_traits<unsigned short> >::_List_iterator<unsigned short,_STL::_Const_traits<unsigned short> >
_TEXT	ENDS
PUBLIC	??0?$allocator@U?$_List_node@G@_STL@@@_STL@@QAE@ABV01@@Z ; _STL::allocator<_STL::_List_node<unsigned short> >::allocator<_STL::_List_node<unsigned short> >
; Function compile flags: /Ogsy
; File c:\stlport-4.6.1\stlport\stl\_alloc.h
;	COMDAT ??0?$allocator@U?$_List_node@G@_STL@@@_STL@@QAE@ABV01@@Z
_TEXT	SEGMENT
___formal$ = 8						; size = 4
??0?$allocator@U?$_List_node@G@_STL@@@_STL@@QAE@ABV01@@Z PROC NEAR ; _STL::allocator<_STL::_List_node<unsigned short> >::allocator<_STL::_List_node<unsigned short> >, COMDAT
; _this$ = ecx

; 349  :   allocator(const allocator<_Tp>&) _STLP_NOTHROW {}

  00000	8b c1		 mov	 eax, ecx
  00002	c2 04 00	 ret	 4
??0?$allocator@U?$_List_node@G@_STL@@@_STL@@QAE@ABV01@@Z ENDP ; _STL::allocator<_STL::_List_node<unsigned short> >::allocator<_STL::_List_node<unsigned short> >
_TEXT	ENDS
PUBLIC	??1?$allocator@G@_STL@@QAE@XZ			; _STL::allocator<unsigned short>::~allocator<unsigned short>
; Function compile flags: /Ogsy
;	COMDAT ??1?$allocator@G@_STL@@QAE@XZ
_TEXT	SEGMENT
??1?$allocator@G@_STL@@QAE@XZ PROC NEAR			; _STL::allocator<unsigned short>::~allocator<unsigned short>, COMDAT
; _this$ = ecx

; 350  :   ~allocator() _STLP_NOTHROW {}

  00000	c3		 ret	 0
??1?$allocator@G@_STL@@QAE@XZ ENDP			; _STL::allocator<unsigned short>::~allocator<unsigned short>
_TEXT	ENDS
PUBLIC	??$_Destroy@PAVCSpriteSurface@@@_STL@@YAXPAPAVCSpriteSurface@@@Z ; _STL::_Destroy<CSpriteSurface *>
; Function compile flags: /Ogsy
; File c:\stlport-4.6.1\stlport\stl\_construct.h
;	COMDAT ??$_Destroy@PAVCSpriteSurface@@@_STL@@YAXPAPAVCSpriteSurface@@@Z
_TEXT	SEGMENT
___pointer$ = 8						; size = 4
??$_Destroy@PAVCSpriteSurface@@@_STL@@YAXPAPAVCSpriteSurface@@@Z PROC NEAR ; _STL::_Destroy<CSpriteSurface *>, COMDAT

; 57   : # if _MSC_VER >= 1010
; 58   :   __pointer;
; 59   : # endif	// _MSC_VER >= 1000
; 60   : # ifdef _STLP_TRIVIAL_DESTRUCTOR_BUG
; 61   :   typedef typename __type_traits<_Tp>::has_trivial_destructor _Trivial_destructor;
; 62   :   __destroy_aux(__pointer, _Trivial_destructor());
; 63   : # else
; 64   : #  if ( defined (__BORLANDC__) && ( __BORLANDC__ < 0x500 ) )
; 65   :     __pointer->_Tp::~_Tp();
; 66   : #  else
; 67   :     __pointer->~_Tp();
; 68   : #  endif
; 69   : # endif
; 70   : # ifdef _STLP_DEBUG_UNINITIALIZED
; 71   : 	memset((char*)__pointer, _STLP_SHRED_BYTE, sizeof(_Tp));
; 72   : # endif
; 73   : }

  00000	c3		 ret	 0
??$_Destroy@PAVCSpriteSurface@@@_STL@@YAXPAPAVCSpriteSurface@@@Z ENDP ; _STL::_Destroy<CSpriteSurface *>
_TEXT	ENDS
PUBLIC	?allocate@?$__node_alloc@$00$0A@@_STL@@SAPAXI@Z	; _STL::__node_alloc<1,0>::allocate
EXTRN	?_M_allocate@?$__node_alloc@$00$0A@@_STL@@CAPAXI@Z:NEAR ; _STL::__node_alloc<1,0>::_M_allocate
; Function compile flags: /Ogsy
; File c:\stlport-4.6.1\stlport\stl\_alloc.h
;	COMDAT ?allocate@?$__node_alloc@$00$0A@@_STL@@SAPAXI@Z
_TEXT	SEGMENT
___n$ = 8						; size = 4
?allocate@?$__node_alloc@$00$0A@@_STL@@SAPAXI@Z PROC NEAR ; _STL::__node_alloc<1,0>::allocate, COMDAT

; 251  :   static void * _STLP_CALL allocate(size_t __n) { return (__n > (size_t)_MAX_BYTES) ?  __stl_new(__n) : _M_allocate(__n); }

  00000	8b 44 24 04	 mov	 eax, DWORD PTR ___n$[esp-4]
  00004	3d 80 00 00 00	 cmp	 eax, 128		; 00000080H
  00009	50		 push	 eax
  0000a	76 07		 jbe	 SHORT $L116911
  0000c	e8 00 00 00 00	 call	 ??2@YAPAXI@Z		; operator new
  00011	59		 pop	 ecx
  00012	c3		 ret	 0
$L116911:
  00013	e8 00 00 00 00	 call	 ?_M_allocate@?$__node_alloc@$00$0A@@_STL@@CAPAXI@Z ; _STL::__node_alloc<1,0>::_M_allocate
  00018	59		 pop	 ecx
  00019	c3		 ret	 0
?allocate@?$__node_alloc@$00$0A@@_STL@@SAPAXI@Z ENDP	; _STL::__node_alloc<1,0>::allocate
_TEXT	ENDS
PUBLIC	?deallocate@?$__node_alloc@$00$0A@@_STL@@SAXPAXI@Z ; _STL::__node_alloc<1,0>::deallocate
EXTRN	?_M_deallocate@?$__node_alloc@$00$0A@@_STL@@CAXPAXI@Z:NEAR ; _STL::__node_alloc<1,0>::_M_deallocate
; Function compile flags: /Ogsy
;	COMDAT ?deallocate@?$__node_alloc@$00$0A@@_STL@@SAXPAXI@Z
_TEXT	SEGMENT
___p$ = 8						; size = 4
___n$ = 12						; size = 4
?deallocate@?$__node_alloc@$00$0A@@_STL@@SAXPAXI@Z PROC NEAR ; _STL::__node_alloc<1,0>::deallocate, COMDAT

; 253  :   static void _STLP_CALL deallocate(void *__p, size_t __n) { if (__n > (size_t)_MAX_BYTES) __stl_delete(__p); else _M_deallocate(__p, __n); }

  00000	81 7c 24 08 80
	00 00 00	 cmp	 DWORD PTR ___n$[esp-4], 128 ; 00000080H
  00008	76 0b		 jbe	 SHORT $L98677
  0000a	ff 74 24 04	 push	 DWORD PTR ___p$[esp-4]
  0000e	e8 00 00 00 00	 call	 ??3@YAXPAX@Z		; operator delete
  00013	59		 pop	 ecx
  00014	c3		 ret	 0
$L98677:
  00015	e9 00 00 00 00	 jmp	 ?_M_deallocate@?$__node_alloc@$00$0A@@_STL@@CAXPAXI@Z ; _STL::__node_alloc<1,0>::_M_deallocate
?deallocate@?$__node_alloc@$00$0A@@_STL@@SAXPAXI@Z ENDP	; _STL::__node_alloc<1,0>::deallocate
_TEXT	ENDS
PUBLIC	??$_Destroy@G@_STL@@YAXPAG@Z			; _STL::_Destroy<unsigned short>
; Function compile flags: /Ogsy
; File c:\stlport-4.6.1\stlport\stl\_construct.h
;	COMDAT ??$_Destroy@G@_STL@@YAXPAG@Z
_TEXT	SEGMENT
___pointer$ = 8						; size = 4
??$_Destroy@G@_STL@@YAXPAG@Z PROC NEAR			; _STL::_Destroy<unsigned short>, COMDAT

; 57   : # if _MSC_VER >= 1010
; 58   :   __pointer;
; 59   : # endif	// _MSC_VER >= 1000
; 60   : # ifdef _STLP_TRIVIAL_DESTRUCTOR_BUG
; 61   :   typedef typename __type_traits<_Tp>::has_trivial_destructor _Trivial_destructor;
; 62   :   __destroy_aux(__pointer, _Trivial_destructor());
; 63   : # else
; 64   : #  if ( defined (__BORLANDC__) && ( __BORLANDC__ < 0x500 ) )
; 65   :     __pointer->_Tp::~_Tp();
; 66   : #  else
; 67   :     __pointer->~_Tp();
; 68   : #  endif
; 69   : # endif
; 70   : # ifdef _STLP_DEBUG_UNINITIALIZED
; 71   : 	memset((char*)__pointer, _STLP_SHRED_BYTE, sizeof(_Tp));
; 72   : # endif
; 73   : }

  00000	c3		 ret	 0
??$_Destroy@G@_STL@@YAXPAG@Z ENDP			; _STL::_Destroy<unsigned short>
_TEXT	ENDS
PUBLIC	??$?0G@?$allocator@U?$_List_node@G@_STL@@@_STL@@QAE@ABV?$allocator@G@1@@Z ; _STL::allocator<_STL::_List_node<unsigned short> >::allocator<_STL::_List_node<unsigned short> ><unsigned short>
; Function compile flags: /Ogsy
; File c:\stlport-4.6.1\stlport\stl\_alloc.h
;	COMDAT ??$?0G@?$allocator@U?$_List_node@G@_STL@@@_STL@@QAE@ABV?$allocator@G@1@@Z
_TEXT	SEGMENT
___formal$ = 8						; size = 4
??$?0G@?$allocator@U?$_List_node@G@_STL@@@_STL@@QAE@ABV?$allocator@G@1@@Z PROC NEAR ; _STL::allocator<_STL::_List_node<unsigned short> >::allocator<_STL::_List_node<unsigned short> ><unsigned short>, COMDAT
; _this$ = ecx

; 347  :   template <class _Tp1> allocator(const allocator<_Tp1>&) _STLP_NOTHROW {}

  00000	8b c1		 mov	 eax, ecx
  00002	c2 04 00	 ret	 4
??$?0G@?$allocator@U?$_List_node@G@_STL@@@_STL@@QAE@ABV?$allocator@G@1@@Z ENDP ; _STL::allocator<_STL::_List_node<unsigned short> >::allocator<_STL::_List_node<unsigned short> ><unsigned short>
_TEXT	ENDS
PUBLIC	??$_Construct@GG@_STL@@YAXPAGABG@Z		; _STL::_Construct<unsigned short,unsigned short>
; Function compile flags: /Ogsy
; File c:\stlport-4.6.1\stlport\stl\_construct.h
;	COMDAT ??$_Construct@GG@_STL@@YAXPAGABG@Z
_TEXT	SEGMENT
___p$ = 8						; size = 4
___val$ = 12						; size = 4
??$_Construct@GG@_STL@@YAXPAGABG@Z PROC NEAR		; _STL::_Construct<unsigned short,unsigned short>, COMDAT

; 94   : # ifdef _STLP_DEBUG_UNINITIALIZED
; 95   : 	memset((char*)__p, _STLP_SHRED_BYTE, sizeof(_T1));
; 96   : # endif
; 97   :     _STLP_PLACEMENT_NEW (__p) _T1(__val);

  00000	8b 44 24 04	 mov	 eax, DWORD PTR ___p$[esp-4]
  00004	85 c0		 test	 eax, eax
  00006	74 0a		 je	 SHORT $L116933
  00008	8b 4c 24 08	 mov	 ecx, DWORD PTR ___val$[esp-4]
  0000c	66 8b 09	 mov	 cx, WORD PTR [ecx]
  0000f	66 89 08	 mov	 WORD PTR [eax], cx
$L116933:

; 98   : }

  00012	c3		 ret	 0
??$_Construct@GG@_STL@@YAXPAGABG@Z ENDP			; _STL::_Construct<unsigned short,unsigned short>
_TEXT	ENDS
PUBLIC	??F?$_List_iterator@GU?$_Const_traits@G@_STL@@@_STL@@QAEAAU01@XZ ; _STL::_List_iterator<unsigned short,_STL::_Const_traits<unsigned short> >::operator--
; Function compile flags: /Ogsy
; File c:\stlport-4.6.1\stlport\stl\_list.h
;	COMDAT ??F?$_List_iterator@GU?$_Const_traits@G@_STL@@@_STL@@QAEAAU01@XZ
_TEXT	SEGMENT
??F?$_List_iterator@GU?$_Const_traits@G@_STL@@@_STL@@QAEAAU01@XZ PROC NEAR ; _STL::_List_iterator<unsigned short,_STL::_Const_traits<unsigned short> >::operator--, COMDAT
; _this$ = ecx

; 143  :   _Self& operator--() { 

  00000	8b c1		 mov	 eax, ecx

; 144  :     this->_M_decr();

  00002	8b 08		 mov	 ecx, DWORD PTR [eax]
  00004	8b 49 04	 mov	 ecx, DWORD PTR [ecx+4]
  00007	89 08		 mov	 DWORD PTR [eax], ecx

; 145  :     return *this;
; 146  :   }

  00009	c3		 ret	 0
??F?$_List_iterator@GU?$_Const_traits@G@_STL@@@_STL@@QAEAAU01@XZ ENDP ; _STL::_List_iterator<unsigned short,_STL::_Const_traits<unsigned short> >::operator--
_TEXT	ENDS
PUBLIC	??0?$reverse_iterator@U?$_List_iterator@GU?$_Const_traits@G@_STL@@@_STL@@@_STL@@QAE@U?$_List_iterator@GU?$_Const_traits@G@_STL@@@1@@Z ; _STL::reverse_iterator<_STL::_List_iterator<unsigned short,_STL::_Const_traits<unsigned short> > >::reverse_iterator<_STL::_List_iterator<unsigned short,_STL::_Const_traits<unsigned short> > >
; Function compile flags: /Ogsy
; File c:\stlport-4.6.1\stlport\stl\_iterator.h
;	COMDAT ??0?$reverse_iterator@U?$_List_iterator@GU?$_Const_traits@G@_STL@@@_STL@@@_STL@@QAE@U?$_List_iterator@GU?$_Const_traits@G@_STL@@@1@@Z
_TEXT	SEGMENT
___x$ = 8						; size = 4
??0?$reverse_iterator@U?$_List_iterator@GU?$_Const_traits@G@_STL@@@_STL@@@_STL@@QAE@U?$_List_iterator@GU?$_Const_traits@G@_STL@@@1@@Z PROC NEAR ; _STL::reverse_iterator<_STL::_List_iterator<unsigned short,_STL::_Const_traits<unsigned short> > >::reverse_iterator<_STL::_List_iterator<unsigned short,_STL::_Const_traits<unsigned short> > >, COMDAT
; _this$ = ecx

; 66   :   explicit reverse_iterator(iterator_type __x) : current(__x) {}

  00000	8b c1		 mov	 eax, ecx
  00002	8b 4c 24 04	 mov	 ecx, DWORD PTR ___x$[esp-4]
  00006	89 08		 mov	 DWORD PTR [eax], ecx
  00008	c2 04 00	 ret	 4
??0?$reverse_iterator@U?$_List_iterator@GU?$_Const_traits@G@_STL@@@_STL@@@_STL@@QAE@U?$_List_iterator@GU?$_Const_traits@G@_STL@@@1@@Z ENDP ; _STL::reverse_iterator<_STL::_List_iterator<unsigned short,_STL::_Const_traits<unsigned short> > >::reverse_iterator<_STL::_List_iterator<unsigned short,_STL::_Const_traits<unsigned short> > >
_TEXT	ENDS
PUBLIC	??0?$_List_iterator@PAVCSpriteSurface@@U?$_Nonconst_traits@PAVCSpriteSurface@@@_STL@@@_STL@@QAE@PAU?$_List_node@PAVCSpriteSurface@@@1@@Z ; _STL::_List_iterator<CSpriteSurface *,_STL::_Nonconst_traits<CSpriteSurface *> >::_List_iterator<CSpriteSurface *,_STL::_Nonconst_traits<CSpriteSurface *> >
; Function compile flags: /Ogsy
; File c:\stlport-4.6.1\stlport\stl\_list.h
;	COMDAT ??0?$_List_iterator@PAVCSpriteSurface@@U?$_Nonconst_traits@PAVCSpriteSurface@@@_STL@@@_STL@@QAE@PAU?$_List_node@PAVCSpriteSurface@@@1@@Z
_TEXT	SEGMENT
___x$ = 8						; size = 4
??0?$_List_iterator@PAVCSpriteSurface@@U?$_Nonconst_traits@PAVCSpriteSurface@@@_STL@@@_STL@@QAE@PAU?$_List_node@PAVCSpriteSurface@@@1@@Z PROC NEAR ; _STL::_List_iterator<CSpriteSurface *,_STL::_Nonconst_traits<CSpriteSurface *> >::_List_iterator<CSpriteSurface *,_STL::_Nonconst_traits<CSpriteSurface *> >, COMDAT
; _this$ = ecx

; 126  :   _List_iterator(_Node* __x) : _List_iterator_base(__x) {}

  00000	8b c1		 mov	 eax, ecx
  00002	8b 4c 24 04	 mov	 ecx, DWORD PTR ___x$[esp-4]
  00006	89 08		 mov	 DWORD PTR [eax], ecx
  00008	c2 04 00	 ret	 4
??0?$_List_iterator@PAVCSpriteSurface@@U?$_Nonconst_traits@PAVCSpriteSurface@@@_STL@@@_STL@@QAE@PAU?$_List_node@PAVCSpriteSurface@@@1@@Z ENDP ; _STL::_List_iterator<CSpriteSurface *,_STL::_Nonconst_traits<CSpriteSurface *> >::_List_iterator<CSpriteSurface *,_STL::_Nonconst_traits<CSpriteSurface *> >
_TEXT	ENDS
PUBLIC	??0?$_List_iterator@PAVCSpriteSurface@@U?$_Nonconst_traits@PAVCSpriteSurface@@@_STL@@@_STL@@QAE@ABU01@@Z ; _STL::_List_iterator<CSpriteSurface *,_STL::_Nonconst_traits<CSpriteSurface *> >::_List_iterator<CSpriteSurface *,_STL::_Nonconst_traits<CSpriteSurface *> >
; Function compile flags: /Ogsy
;	COMDAT ??0?$_List_iterator@PAVCSpriteSurface@@U?$_Nonconst_traits@PAVCSpriteSurface@@@_STL@@@_STL@@QAE@ABU01@@Z
_TEXT	SEGMENT
___x$ = 8						; size = 4
??0?$_List_iterator@PAVCSpriteSurface@@U?$_Nonconst_traits@PAVCSpriteSurface@@@_STL@@@_STL@@QAE@ABU01@@Z PROC NEAR ; _STL::_List_iterator<CSpriteSurface *,_STL::_Nonconst_traits<CSpriteSurface *> >::_List_iterator<CSpriteSurface *,_STL::_Nonconst_traits<CSpriteSurface *> >, COMDAT
; _this$ = ecx

; 128  :   _List_iterator(const iterator& __x) :  _List_iterator_base(__x._M_node) {}

  00000	8b c1		 mov	 eax, ecx
  00002	8b 4c 24 04	 mov	 ecx, DWORD PTR ___x$[esp-4]
  00006	8b 09		 mov	 ecx, DWORD PTR [ecx]
  00008	89 08		 mov	 DWORD PTR [eax], ecx
  0000a	c2 04 00	 ret	 4
??0?$_List_iterator@PAVCSpriteSurface@@U?$_Nonconst_traits@PAVCSpriteSurface@@@_STL@@@_STL@@QAE@ABU01@@Z ENDP ; _STL::_List_iterator<CSpriteSurface *,_STL::_Nonconst_traits<CSpriteSurface *> >::_List_iterator<CSpriteSurface *,_STL::_Nonconst_traits<CSpriteSurface *> >
_TEXT	ENDS
PUBLIC	??1?$_STLP_alloc_proxy@PAU?$_List_node@PAVCSpriteSurface@@@_STL@@U12@V?$allocator@U?$_List_node@PAVCSpriteSurface@@@_STL@@@2@@_STL@@QAE@XZ ; _STL::_STLP_alloc_proxy<_STL::_List_node<CSpriteSurface *> *,_STL::_List_node<CSpriteSurface *>,_STL::allocator<_STL::_List_node<CSpriteSurface *> > >::~_STLP_alloc_proxy<_STL::_List_node<CSpriteSurface *> *,_STL::_List_node<CSpriteSurface *>,_STL::allocator<_STL::_List_node<CSpriteSurface *> > >
; Function compile flags: /Ogsy
;	COMDAT ??1?$_STLP_alloc_proxy@PAU?$_List_node@PAVCSpriteSurface@@@_STL@@U12@V?$allocator@U?$_List_node@PAVCSpriteSurface@@@_STL@@@2@@_STL@@QAE@XZ
_TEXT	SEGMENT
??1?$_STLP_alloc_proxy@PAU?$_List_node@PAVCSpriteSurface@@@_STL@@U12@V?$allocator@U?$_List_node@PAVCSpriteSurface@@@_STL@@@2@@_STL@@QAE@XZ PROC NEAR ; _STL::_STLP_alloc_proxy<_STL::_List_node<CSpriteSurface *> *,_STL::_List_node<CSpriteSurface *>,_STL::allocator<_STL::_List_node<CSpriteSurface *> > >::~_STLP_alloc_proxy<_STL::_List_node<CSpriteSurface *> *,_STL::_List_node<CSpriteSurface *>,_STL::allocator<_STL::_List_node<CSpriteSurface *> > >, COMDAT
; _this$ = ecx
  00000	c3		 ret	 0
??1?$_STLP_alloc_proxy@PAU?$_List_node@PAVCSpriteSurface@@@_STL@@U12@V?$allocator@U?$_List_node@PAVCSpriteSurface@@@_STL@@@2@@_STL@@QAE@XZ ENDP ; _STL::_STLP_alloc_proxy<_STL::_List_node<CSpriteSurface *> *,_STL::_List_node<CSpriteSurface *>,_STL::allocator<_STL::_List_node<CSpriteSurface *> > >::~_STLP_alloc_proxy<_STL::_List_node<CSpriteSurface *> *,_STL::_List_node<CSpriteSurface *>,_STL::allocator<_STL::_List_node<CSpriteSurface *> > >
_TEXT	ENDS
PUBLIC	??0?$_STLP_alloc_proxy@PAU?$_List_node@PAVCSpriteSurface@@@_STL@@U12@V?$allocator@U?$_List_node@PAVCSpriteSurface@@@_STL@@@2@@_STL@@QAE@ABV?$allocator@U?$_List_node@PAVCSpriteSurface@@@_STL@@@1@PAU?$_List_node@PAVCSpriteSurface@@@1@@Z ; _STL::_STLP_alloc_proxy<_STL::_List_node<CSpriteSurface *> *,_STL::_List_node<CSpriteSurface *>,_STL::allocator<_STL::_List_node<CSpriteSurface *> > >::_STLP_alloc_proxy<_STL::_List_node<CSpriteSurface *> *,_STL::_List_node<CSpriteSurface *>,_STL::allocator<_STL::_List_node<CSpriteSurface *> > >
; Function compile flags: /Ogsy
; File c:\stlport-4.6.1\stlport\stl\_alloc.h
;	COMDAT ??0?$_STLP_alloc_proxy@PAU?$_List_node@PAVCSpriteSurface@@@_STL@@U12@V?$allocator@U?$_List_node@PAVCSpriteSurface@@@_STL@@@2@@_STL@@QAE@ABV?$allocator@U?$_List_node@PAVCSpriteSurface@@@_STL@@@1@PAU?$_List_node@PAVCSpriteSurface@@@1@@Z
_TEXT	SEGMENT
___a$ = 8						; size = 4
___p$ = 12						; size = 4
??0?$_STLP_alloc_proxy@PAU?$_List_node@PAVCSpriteSurface@@@_STL@@U12@V?$allocator@U?$_List_node@PAVCSpriteSurface@@@_STL@@@2@@_STL@@QAE@ABV?$allocator@U?$_List_node@PAVCSpriteSurface@@@_STL@@@1@PAU?$_List_node@PAVCSpriteSurface@@@1@@Z PROC NEAR ; _STL::_STLP_alloc_proxy<_STL::_List_node<CSpriteSurface *> *,_STL::_List_node<CSpriteSurface *>,_STL::allocator<_STL::_List_node<CSpriteSurface *> > >::_STLP_alloc_proxy<_STL::_List_node<CSpriteSurface *> *,_STL::_List_node<CSpriteSurface *>,_STL::allocator<_STL::_List_node<CSpriteSurface *> > >, COMDAT
; _this$ = ecx

; 487  :   inline _STLP_alloc_proxy(const _MaybeReboundAlloc& __a, _Value __p) : _MaybeReboundAlloc(__a), _M_data(__p) {}

  00000	8b c1		 mov	 eax, ecx
  00002	8b 4c 24 08	 mov	 ecx, DWORD PTR ___p$[esp-4]
  00006	89 08		 mov	 DWORD PTR [eax], ecx
  00008	c2 08 00	 ret	 8
??0?$_STLP_alloc_proxy@PAU?$_List_node@PAVCSpriteSurface@@@_STL@@U12@V?$allocator@U?$_List_node@PAVCSpriteSurface@@@_STL@@@2@@_STL@@QAE@ABV?$allocator@U?$_List_node@PAVCSpriteSurface@@@_STL@@@1@PAU?$_List_node@PAVCSpriteSurface@@@1@@Z ENDP ; _STL::_STLP_alloc_proxy<_STL::_List_node<CSpriteSurface *> *,_STL::_List_node<CSpriteSurface *>,_STL::allocator<_STL::_List_node<CSpriteSurface *> > >::_STLP_alloc_proxy<_STL::_List_node<CSpriteSurface *> *,_STL::_List_node<CSpriteSurface *>,_STL::allocator<_STL::_List_node<CSpriteSurface *> > >
_TEXT	ENDS
PUBLIC	?allocate@?$allocator@U?$_List_node@PAVCSpriteSurface@@@_STL@@@_STL@@QAEPAU?$_List_node@PAVCSpriteSurface@@@2@IPBX@Z ; _STL::allocator<_STL::_List_node<CSpriteSurface *> >::allocate
; Function compile flags: /Ogsy
;	COMDAT ?allocate@?$allocator@U?$_List_node@PAVCSpriteSurface@@@_STL@@@_STL@@QAEPAU?$_List_node@PAVCSpriteSurface@@@2@IPBX@Z
_TEXT	SEGMENT
___n$ = 8						; size = 4
___formal$ = 12						; size = 4
?allocate@?$allocator@U?$_List_node@PAVCSpriteSurface@@@_STL@@@_STL@@QAEPAU?$_List_node@PAVCSpriteSurface@@@2@IPBX@Z PROC NEAR ; _STL::allocator<_STL::_List_node<CSpriteSurface *> >::allocate, COMDAT
; _this$ = ecx

; 355  :     return __n != 0 ? __REINTERPRET_CAST(value_type*,__sgi_alloc::allocate(__n * sizeof(value_type))) : 0;

  00000	8b 44 24 04	 mov	 eax, DWORD PTR ___n$[esp-4]
  00004	85 c0		 test	 eax, eax
  00006	74 0f		 je	 SHORT $L116972
  00008	8d 04 40	 lea	 eax, DWORD PTR [eax+eax*2]
  0000b	c1 e0 02	 shl	 eax, 2
  0000e	50		 push	 eax
  0000f	e8 00 00 00 00	 call	 ?allocate@?$__node_alloc@$00$0A@@_STL@@SAPAXI@Z ; _STL::__node_alloc<1,0>::allocate
  00014	59		 pop	 ecx
  00015	eb 02		 jmp	 SHORT $L116973
$L116972:
  00017	33 c0		 xor	 eax, eax
$L116973:

; 356  :   }

  00019	c2 08 00	 ret	 8
?allocate@?$allocator@U?$_List_node@PAVCSpriteSurface@@@_STL@@@_STL@@QAEPAU?$_List_node@PAVCSpriteSurface@@@2@IPBX@Z ENDP ; _STL::allocator<_STL::_List_node<CSpriteSurface *> >::allocate
_TEXT	ENDS
PUBLIC	?deallocate@?$allocator@U?$_List_node@PAVCSpriteSurface@@@_STL@@@_STL@@QAEXPAU?$_List_node@PAVCSpriteSurface@@@2@I@Z ; _STL::allocator<_STL::_List_node<CSpriteSurface *> >::deallocate
; Function compile flags: /Ogsy
;	COMDAT ?deallocate@?$allocator@U?$_List_node@PAVCSpriteSurface@@@_STL@@@_STL@@QAEXPAU?$_List_node@PAVCSpriteSurface@@@2@I@Z
_TEXT	SEGMENT
___p$ = 8						; size = 4
___n$ = 12						; size = 4
?deallocate@?$allocator@U?$_List_node@PAVCSpriteSurface@@@_STL@@@_STL@@QAEXPAU?$_List_node@PAVCSpriteSurface@@@2@I@Z PROC NEAR ; _STL::allocator<_STL::_List_node<CSpriteSurface *> >::deallocate, COMDAT
; _this$ = ecx

; 359  :     _STLP_ASSERT( (__p == 0) == (__n == 0) )
; 360  :       if (__p != 0) __sgi_alloc::deallocate((void*)__p, __n * sizeof(value_type));

  00000	83 7c 24 04 00	 cmp	 DWORD PTR ___p$[esp-4], 0
  00005	74 16		 je	 SHORT $L112661
  00007	8b 44 24 08	 mov	 eax, DWORD PTR ___n$[esp-4]
  0000b	8d 04 40	 lea	 eax, DWORD PTR [eax+eax*2]
  0000e	c1 e0 02	 shl	 eax, 2
  00011	50		 push	 eax
  00012	ff 74 24 08	 push	 DWORD PTR ___p$[esp]
  00016	e8 00 00 00 00	 call	 ?deallocate@?$__node_alloc@$00$0A@@_STL@@SAXPAXI@Z ; _STL::__node_alloc<1,0>::deallocate
  0001b	59		 pop	 ecx
  0001c	59		 pop	 ecx
$L112661:

; 361  :   }

  0001d	c2 08 00	 ret	 8
?deallocate@?$allocator@U?$_List_node@PAVCSpriteSurface@@@_STL@@@_STL@@QAEXPAU?$_List_node@PAVCSpriteSurface@@@2@I@Z ENDP ; _STL::allocator<_STL::_List_node<CSpriteSurface *> >::deallocate
_TEXT	ENDS
PUBLIC	?clear@?$_List_base@PAVCSpriteSurface@@V?$allocator@PAVCSpriteSurface@@@_STL@@@_STL@@QAEXXZ ; _STL::_List_base<CSpriteSurface *,_STL::allocator<CSpriteSurface *> >::clear
; Function compile flags: /Ogsy
; File c:\stlport-4.6.1\stlport\stl\_list.c
;	COMDAT ?clear@?$_List_base@PAVCSpriteSurface@@V?$allocator@PAVCSpriteSurface@@@_STL@@@_STL@@QAEXXZ
_TEXT	SEGMENT
?clear@?$_List_base@PAVCSpriteSurface@@V?$allocator@PAVCSpriteSurface@@@_STL@@@_STL@@QAEXXZ PROC NEAR ; _STL::_List_base<CSpriteSurface *,_STL::allocator<CSpriteSurface *> >::clear, COMDAT
; _this$ = ecx

; 68   : {

  00000	56		 push	 esi
  00001	57		 push	 edi
  00002	8b f9		 mov	 edi, ecx

; 69   :   _List_node<_Tp>* __cur = (_List_node<_Tp>*) this->_M_node._M_data->_M_next;

  00004	8b 07		 mov	 eax, DWORD PTR [edi]
  00006	8b 30		 mov	 esi, DWORD PTR [eax]

; 70   :   while (__cur != this->_M_node._M_data) {

  00008	3b f0		 cmp	 esi, eax
  0000a	74 12		 je	 SHORT $L113818
$L113817:

; 71   :     _List_node<_Tp>* __tmp = __cur;

  0000c	8b c6		 mov	 eax, esi

; 72   :     __cur = (_List_node<_Tp>*) __cur->_M_next;

  0000e	8b 36		 mov	 esi, DWORD PTR [esi]

; 73   :     _STLP_STD::_Destroy(&__tmp->_M_data);
; 74   :     this->_M_node.deallocate(__tmp, 1);

  00010	6a 01		 push	 1
  00012	50		 push	 eax
  00013	8b cf		 mov	 ecx, edi
  00015	e8 00 00 00 00	 call	 ?deallocate@?$allocator@U?$_List_node@PAVCSpriteSurface@@@_STL@@@_STL@@QAEXPAU?$_List_node@PAVCSpriteSurface@@@2@I@Z ; _STL::allocator<_STL::_List_node<CSpriteSurface *> >::deallocate
  0001a	3b 37		 cmp	 esi, DWORD PTR [edi]
  0001c	75 ee		 jne	 SHORT $L113817
$L113818:

; 75   :   }
; 76   :   this->_M_node._M_data->_M_next = this->_M_node._M_data;

  0001e	8b 07		 mov	 eax, DWORD PTR [edi]
  00020	89 00		 mov	 DWORD PTR [eax], eax

; 77   :   this->_M_node._M_data->_M_prev = this->_M_node._M_data;

  00022	8b 3f		 mov	 edi, DWORD PTR [edi]
  00024	89 7f 04	 mov	 DWORD PTR [edi+4], edi
  00027	5f		 pop	 edi
  00028	5e		 pop	 esi

; 78   : }

  00029	c3		 ret	 0
?clear@?$_List_base@PAVCSpriteSurface@@V?$allocator@PAVCSpriteSurface@@@_STL@@@_STL@@QAEXXZ ENDP ; _STL::_List_base<CSpriteSurface *,_STL::allocator<CSpriteSurface *> >::clear
_TEXT	ENDS
PUBLIC	??_ECSpritePal@@UAEPAXI@Z			; CSpritePal::`vector deleting destructor'
EXTRN	??_M@YGXPAXIHP6EX0@Z@Z:NEAR			; `eh vector destructor iterator'
EXTRN	??_V@YAXPAX@Z:NEAR				; operator delete[]
; Function compile flags: /Ogsy
;	COMDAT ??_ECSpritePal@@UAEPAXI@Z
_TEXT	SEGMENT
___flags$ = 8						; size = 4
??_ECSpritePal@@UAEPAXI@Z PROC NEAR			; CSpritePal::`vector deleting destructor', COMDAT
; _this$ = ecx
  00000	53		 push	 ebx
  00001	8a 5c 24 08	 mov	 bl, BYTE PTR ___flags$[esp]
  00005	f6 c3 02	 test	 bl, 2
  00008	56		 push	 esi
  00009	8b f1		 mov	 esi, ecx
  0000b	74 24		 je	 SHORT $L114645
  0000d	57		 push	 edi
  0000e	68 00 00 00 00	 push	 OFFSET FLAT:??1CSpritePal@@UAE@XZ
  00013	8d 7e fc	 lea	 edi, DWORD PTR [esi-4]
  00016	ff 37		 push	 DWORD PTR [edi]
  00018	6a 18		 push	 24			; 00000018H
  0001a	56		 push	 esi
  0001b	e8 00 00 00 00	 call	 ??_M@YGXPAXIHP6EX0@Z@Z
  00020	f6 c3 01	 test	 bl, 1
  00023	74 07		 je	 SHORT $L114646
  00025	57		 push	 edi
  00026	e8 00 00 00 00	 call	 ??_V@YAXPAX@Z		; operator delete[]
  0002b	59		 pop	 ecx
$L114646:
  0002c	8b c7		 mov	 eax, edi
  0002e	5f		 pop	 edi
  0002f	eb 15		 jmp	 SHORT $L114644
$L114645:
  00031	8b ce		 mov	 ecx, esi
  00033	e8 00 00 00 00	 call	 ??1CSpritePal@@UAE@XZ
  00038	f6 c3 01	 test	 bl, 1
  0003b	74 07		 je	 SHORT $L114648
  0003d	56		 push	 esi
  0003e	e8 00 00 00 00	 call	 ??3@YAXPAX@Z		; operator delete
  00043	59		 pop	 ecx
$L114648:
  00044	8b c6		 mov	 eax, esi
$L114644:
  00046	5e		 pop	 esi
  00047	5b		 pop	 ebx
  00048	c2 04 00	 ret	 4
??_ECSpritePal@@UAEPAXI@Z ENDP				; CSpritePal::`vector deleting destructor'
_TEXT	ENDS
PUBLIC	??_EMPalette565@@QAEPAXI@Z			; MPalette565::`vector deleting destructor'
; Function compile flags: /Ogsy
;	COMDAT ??_EMPalette565@@QAEPAXI@Z
_TEXT	SEGMENT
___flags$ = 8						; size = 4
??_EMPalette565@@QAEPAXI@Z PROC NEAR			; MPalette565::`vector deleting destructor', COMDAT
; _this$ = ecx
  00000	53		 push	 ebx
  00001	8a 5c 24 08	 mov	 bl, BYTE PTR ___flags$[esp]
  00005	f6 c3 02	 test	 bl, 2
  00008	56		 push	 esi
  00009	8b f1		 mov	 esi, ecx
  0000b	74 24		 je	 SHORT $L114660
  0000d	57		 push	 edi
  0000e	68 00 00 00 00	 push	 OFFSET FLAT:??1MPalette565@@QAE@XZ
  00013	8d 7e fc	 lea	 edi, DWORD PTR [esi-4]
  00016	ff 37		 push	 DWORD PTR [edi]
  00018	6a 0c		 push	 12			; 0000000cH
  0001a	56		 push	 esi
  0001b	e8 00 00 00 00	 call	 ??_M@YGXPAXIHP6EX0@Z@Z
  00020	f6 c3 01	 test	 bl, 1
  00023	74 07		 je	 SHORT $L114661
  00025	57		 push	 edi
  00026	e8 00 00 00 00	 call	 ??_V@YAXPAX@Z		; operator delete[]
  0002b	59		 pop	 ecx
$L114661:
  0002c	8b c7		 mov	 eax, edi
  0002e	5f		 pop	 edi
  0002f	eb 15		 jmp	 SHORT $L114659
$L114660:
  00031	8b ce		 mov	 ecx, esi
  00033	e8 00 00 00 00	 call	 ??1MPalette565@@QAE@XZ
  00038	f6 c3 01	 test	 bl, 1
  0003b	74 07		 je	 SHORT $L114663
  0003d	56		 push	 esi
  0003e	e8 00 00 00 00	 call	 ??3@YAXPAX@Z		; operator delete
  00043	59		 pop	 ecx
$L114663:
  00044	8b c6		 mov	 eax, esi
$L114659:
  00046	5e		 pop	 esi
  00047	5b		 pop	 ebx
  00048	c2 04 00	 ret	 4
??_EMPalette565@@QAEPAXI@Z ENDP				; MPalette565::`vector deleting destructor'
_TEXT	ENDS
PUBLIC	??_EMPalette555@@QAEPAXI@Z			; MPalette555::`vector deleting destructor'
; Function compile flags: /Ogsy
;	COMDAT ??_EMPalette555@@QAEPAXI@Z
_TEXT	SEGMENT
___flags$ = 8						; size = 4
??_EMPalette555@@QAEPAXI@Z PROC NEAR			; MPalette555::`vector deleting destructor', COMDAT
; _this$ = ecx
  00000	53		 push	 ebx
  00001	8a 5c 24 08	 mov	 bl, BYTE PTR ___flags$[esp]
  00005	f6 c3 02	 test	 bl, 2
  00008	56		 push	 esi
  00009	8b f1		 mov	 esi, ecx
  0000b	74 24		 je	 SHORT $L114670
  0000d	57		 push	 edi
  0000e	68 00 00 00 00	 push	 OFFSET FLAT:??1MPalette555@@QAE@XZ
  00013	8d 7e fc	 lea	 edi, DWORD PTR [esi-4]
  00016	ff 37		 push	 DWORD PTR [edi]
  00018	6a 0c		 push	 12			; 0000000cH
  0001a	56		 push	 esi
  0001b	e8 00 00 00 00	 call	 ??_M@YGXPAXIHP6EX0@Z@Z
  00020	f6 c3 01	 test	 bl, 1
  00023	74 07		 je	 SHORT $L114671
  00025	57		 push	 edi
  00026	e8 00 00 00 00	 call	 ??_V@YAXPAX@Z		; operator delete[]
  0002b	59		 pop	 ecx
$L114671:
  0002c	8b c7		 mov	 eax, edi
  0002e	5f		 pop	 edi
  0002f	eb 15		 jmp	 SHORT $L114669
$L114670:
  00031	8b ce		 mov	 ecx, esi
  00033	e8 00 00 00 00	 call	 ??1MPalette555@@QAE@XZ
  00038	f6 c3 01	 test	 bl, 1
  0003b	74 07		 je	 SHORT $L114673
  0003d	56		 push	 esi
  0003e	e8 00 00 00 00	 call	 ??3@YAXPAX@Z		; operator delete
  00043	59		 pop	 ecx
$L114673:
  00044	8b c6		 mov	 eax, esi
$L114669:
  00046	5e		 pop	 esi
  00047	5b		 pop	 ebx
  00048	c2 04 00	 ret	 4
??_EMPalette555@@QAEPAXI@Z ENDP				; MPalette555::`vector deleting destructor'
_TEXT	ENDS
PUBLIC	??_ECSprite565@@QAEPAXI@Z			; CSprite565::`vector deleting destructor'
; Function compile flags: /Ogsy
;	COMDAT ??_ECSprite565@@QAEPAXI@Z
_TEXT	SEGMENT
___flags$ = 8						; size = 4
??_ECSprite565@@QAEPAXI@Z PROC NEAR			; CSprite565::`vector deleting destructor', COMDAT
; _this$ = ecx
  00000	53		 push	 ebx
  00001	8a 5c 24 08	 mov	 bl, BYTE PTR ___flags$[esp]
  00005	f6 c3 02	 test	 bl, 2
  00008	56		 push	 esi
  00009	8b f1		 mov	 esi, ecx
  0000b	74 24		 je	 SHORT $L114689
  0000d	57		 push	 edi
  0000e	68 00 00 00 00	 push	 OFFSET FLAT:??1CSprite565@@QAE@XZ
  00013	8d 7e fc	 lea	 edi, DWORD PTR [esi-4]
  00016	ff 37		 push	 DWORD PTR [edi]
  00018	6a 10		 push	 16			; 00000010H
  0001a	56		 push	 esi
  0001b	e8 00 00 00 00	 call	 ??_M@YGXPAXIHP6EX0@Z@Z
  00020	f6 c3 01	 test	 bl, 1
  00023	74 07		 je	 SHORT $L114690
  00025	57		 push	 edi
  00026	e8 00 00 00 00	 call	 ??_V@YAXPAX@Z		; operator delete[]
  0002b	59		 pop	 ecx
$L114690:
  0002c	8b c7		 mov	 eax, edi
  0002e	5f		 pop	 edi
  0002f	eb 15		 jmp	 SHORT $L114688
$L114689:
  00031	8b ce		 mov	 ecx, esi
  00033	e8 00 00 00 00	 call	 ??1CSprite565@@QAE@XZ
  00038	f6 c3 01	 test	 bl, 1
  0003b	74 07		 je	 SHORT $L114692
  0003d	56		 push	 esi
  0003e	e8 00 00 00 00	 call	 ??3@YAXPAX@Z		; operator delete
  00043	59		 pop	 ecx
$L114692:
  00044	8b c6		 mov	 eax, esi
$L114688:
  00046	5e		 pop	 esi
  00047	5b		 pop	 ebx
  00048	c2 04 00	 ret	 4
??_ECSprite565@@QAEPAXI@Z ENDP				; CSprite565::`vector deleting destructor'
_TEXT	ENDS
PUBLIC	??_ECSprite555@@QAEPAXI@Z			; CSprite555::`vector deleting destructor'
; Function compile flags: /Ogsy
;	COMDAT ??_ECSprite555@@QAEPAXI@Z
_TEXT	SEGMENT
___flags$ = 8						; size = 4
??_ECSprite555@@QAEPAXI@Z PROC NEAR			; CSprite555::`vector deleting destructor', COMDAT
; _this$ = ecx
  00000	53		 push	 ebx
  00001	8a 5c 24 08	 mov	 bl, BYTE PTR ___flags$[esp]
  00005	f6 c3 02	 test	 bl, 2
  00008	56		 push	 esi
  00009	8b f1		 mov	 esi, ecx
  0000b	74 24		 je	 SHORT $L114699
  0000d	57		 push	 edi
  0000e	68 00 00 00 00	 push	 OFFSET FLAT:??1CSprite555@@QAE@XZ
  00013	8d 7e fc	 lea	 edi, DWORD PTR [esi-4]
  00016	ff 37		 push	 DWORD PTR [edi]
  00018	6a 10		 push	 16			; 00000010H
  0001a	56		 push	 esi
  0001b	e8 00 00 00 00	 call	 ??_M@YGXPAXIHP6EX0@Z@Z
  00020	f6 c3 01	 test	 bl, 1
  00023	74 07		 je	 SHORT $L114700
  00025	57		 push	 edi
  00026	e8 00 00 00 00	 call	 ??_V@YAXPAX@Z		; operator delete[]
  0002b	59		 pop	 ecx
$L114700:
  0002c	8b c7		 mov	 eax, edi
  0002e	5f		 pop	 edi
  0002f	eb 15		 jmp	 SHORT $L114698
$L114699:
  00031	8b ce		 mov	 ecx, esi
  00033	e8 00 00 00 00	 call	 ??1CSprite555@@QAE@XZ
  00038	f6 c3 01	 test	 bl, 1
  0003b	74 07		 je	 SHORT $L114702
  0003d	56		 push	 esi
  0003e	e8 00 00 00 00	 call	 ??3@YAXPAX@Z		; operator delete
  00043	59		 pop	 ecx
$L114702:
  00044	8b c6		 mov	 eax, esi
$L114698:
  00046	5e		 pop	 esi
  00047	5b		 pop	 ebx
  00048	c2 04 00	 ret	 4
??_ECSprite555@@QAEPAXI@Z ENDP				; CSprite555::`vector deleting destructor'
_TEXT	ENDS
PUBLIC	?begin@?$list@GV?$allocator@G@_STL@@@_STL@@QAE?AU?$_List_iterator@GU?$_Nonconst_traits@G@_STL@@@2@XZ ; _STL::list<unsigned short,_STL::allocator<unsigned short> >::begin
; Function compile flags: /Ogsy
; File c:\stlport-4.6.1\stlport\stl\_list.h
;	COMDAT ?begin@?$list@GV?$allocator@G@_STL@@@_STL@@QAE?AU?$_List_iterator@GU?$_Nonconst_traits@G@_STL@@@2@XZ
_TEXT	SEGMENT
___$ReturnUdt$ = 8					; size = 4
?begin@?$list@GV?$allocator@G@_STL@@@_STL@@QAE?AU?$_List_iterator@GU?$_Nonconst_traits@G@_STL@@@2@XZ PROC NEAR ; _STL::list<unsigned short,_STL::allocator<unsigned short> >::begin, COMDAT
; _this$ = ecx

; 266  :   iterator begin()             { return iterator((_Node*)(this->_M_node._M_data->_M_next)); }

  00000	8b 01		 mov	 eax, DWORD PTR [ecx]
  00002	8b 08		 mov	 ecx, DWORD PTR [eax]
  00004	8b 44 24 04	 mov	 eax, DWORD PTR ___$ReturnUdt$[esp-4]
  00008	89 08		 mov	 DWORD PTR [eax], ecx
  0000a	c2 04 00	 ret	 4
?begin@?$list@GV?$allocator@G@_STL@@@_STL@@QAE?AU?$_List_iterator@GU?$_Nonconst_traits@G@_STL@@@2@XZ ENDP ; _STL::list<unsigned short,_STL::allocator<unsigned short> >::begin
_TEXT	ENDS
PUBLIC	?end@?$list@GV?$allocator@G@_STL@@@_STL@@QAE?AU?$_List_iterator@GU?$_Nonconst_traits@G@_STL@@@2@XZ ; _STL::list<unsigned short,_STL::allocator<unsigned short> >::end
; Function compile flags: /Ogsy
;	COMDAT ?end@?$list@GV?$allocator@G@_STL@@@_STL@@QAE?AU?$_List_iterator@GU?$_Nonconst_traits@G@_STL@@@2@XZ
_TEXT	SEGMENT
___$ReturnUdt$ = 8					; size = 4
?end@?$list@GV?$allocator@G@_STL@@@_STL@@QAE?AU?$_List_iterator@GU?$_Nonconst_traits@G@_STL@@@2@XZ PROC NEAR ; _STL::list<unsigned short,_STL::allocator<unsigned short> >::end, COMDAT
; _this$ = ecx

; 269  :   iterator end()             { return this->_M_node._M_data; }

  00000	8b 09		 mov	 ecx, DWORD PTR [ecx]
  00002	8b 44 24 04	 mov	 eax, DWORD PTR ___$ReturnUdt$[esp-4]
  00006	89 08		 mov	 DWORD PTR [eax], ecx
  00008	c2 04 00	 ret	 4
?end@?$list@GV?$allocator@G@_STL@@@_STL@@QAE?AU?$_List_iterator@GU?$_Nonconst_traits@G@_STL@@@2@XZ ENDP ; _STL::list<unsigned short,_STL::allocator<unsigned short> >::end
_TEXT	ENDS
PUBLIC	?deallocate@?$allocator@U?$_List_node@G@_STL@@@_STL@@QAEXPAU?$_List_node@G@2@I@Z ; _STL::allocator<_STL::_List_node<unsigned short> >::deallocate
; Function compile flags: /Ogsy
; File c:\stlport-4.6.1\stlport\stl\_alloc.h
;	COMDAT ?deallocate@?$allocator@U?$_List_node@G@_STL@@@_STL@@QAEXPAU?$_List_node@G@2@I@Z
_TEXT	SEGMENT
___p$ = 8						; size = 4
___n$ = 12						; size = 4
?deallocate@?$allocator@U?$_List_node@G@_STL@@@_STL@@QAEXPAU?$_List_node@G@2@I@Z PROC NEAR ; _STL::allocator<_STL::_List_node<unsigned short> >::deallocate, COMDAT
; _this$ = ecx

; 359  :     _STLP_ASSERT( (__p == 0) == (__n == 0) )
; 360  :       if (__p != 0) __sgi_alloc::deallocate((void*)__p, __n * sizeof(value_type));

  00000	83 7c 24 04 00	 cmp	 DWORD PTR ___p$[esp-4], 0
  00005	74 16		 je	 SHORT $L114972
  00007	8b 44 24 08	 mov	 eax, DWORD PTR ___n$[esp-4]
  0000b	8d 04 40	 lea	 eax, DWORD PTR [eax+eax*2]
  0000e	c1 e0 02	 shl	 eax, 2
  00011	50		 push	 eax
  00012	ff 74 24 08	 push	 DWORD PTR ___p$[esp]
  00016	e8 00 00 00 00	 call	 ?deallocate@?$__node_alloc@$00$0A@@_STL@@SAXPAXI@Z ; _STL::__node_alloc<1,0>::deallocate
  0001b	59		 pop	 ecx
  0001c	59		 pop	 ecx
$L114972:

; 361  :   }

  0001d	c2 08 00	 ret	 8
?deallocate@?$allocator@U?$_List_node@G@_STL@@@_STL@@QAEXPAU?$_List_node@G@2@I@Z ENDP ; _STL::allocator<_STL::_List_node<unsigned short> >::deallocate
_TEXT	ENDS
PUBLIC	??1?$_STLP_alloc_proxy@PAU?$_List_node@G@_STL@@U12@V?$allocator@U?$_List_node@G@_STL@@@2@@_STL@@QAE@XZ ; _STL::_STLP_alloc_proxy<_STL::_List_node<unsigned short> *,_STL::_List_node<unsigned short>,_STL::allocator<_STL::_List_node<unsigned short> > >::~_STLP_alloc_proxy<_STL::_List_node<unsigned short> *,_STL::_List_node<unsigned short>,_STL::allocator<_STL::_List_node<unsigned short> > >
; Function compile flags: /Ogsy
;	COMDAT ??1?$_STLP_alloc_proxy@PAU?$_List_node@G@_STL@@U12@V?$allocator@U?$_List_node@G@_STL@@@2@@_STL@@QAE@XZ
_TEXT	SEGMENT
??1?$_STLP_alloc_proxy@PAU?$_List_node@G@_STL@@U12@V?$allocator@U?$_List_node@G@_STL@@@2@@_STL@@QAE@XZ PROC NEAR ; _STL::_STLP_alloc_proxy<_STL::_List_node<unsigned short> *,_STL::_List_node<unsigned short>,_STL::allocator<_STL::_List_node<unsigned short> > >::~_STLP_alloc_proxy<_STL::_List_node<unsigned short> *,_STL::_List_node<unsigned short>,_STL::allocator<_STL::_List_node<unsigned short> > >, COMDAT
; _this$ = ecx
  00000	c3		 ret	 0
??1?$_STLP_alloc_proxy@PAU?$_List_node@G@_STL@@U12@V?$allocator@U?$_List_node@G@_STL@@@2@@_STL@@QAE@XZ ENDP ; _STL::_STLP_alloc_proxy<_STL::_List_node<unsigned short> *,_STL::_List_node<unsigned short>,_STL::allocator<_STL::_List_node<unsigned short> > >::~_STLP_alloc_proxy<_STL::_List_node<unsigned short> *,_STL::_List_node<unsigned short>,_STL::allocator<_STL::_List_node<unsigned short> > >
_TEXT	ENDS
PUBLIC	?end@?$list@GV?$allocator@G@_STL@@@_STL@@QBE?AU?$_List_iterator@GU?$_Const_traits@G@_STL@@@2@XZ ; _STL::list<unsigned short,_STL::allocator<unsigned short> >::end
; Function compile flags: /Ogsy
; File c:\stlport-4.6.1\stlport\stl\_list.h
;	COMDAT ?end@?$list@GV?$allocator@G@_STL@@@_STL@@QBE?AU?$_List_iterator@GU?$_Const_traits@G@_STL@@@2@XZ
_TEXT	SEGMENT
___$ReturnUdt$ = 8					; size = 4
?end@?$list@GV?$allocator@G@_STL@@@_STL@@QBE?AU?$_List_iterator@GU?$_Const_traits@G@_STL@@@2@XZ PROC NEAR ; _STL::list<unsigned short,_STL::allocator<unsigned short> >::end, COMDAT
; _this$ = ecx

; 270  :   const_iterator end() const { return this->_M_node._M_data; }

  00000	8b 09		 mov	 ecx, DWORD PTR [ecx]
  00002	8b 44 24 04	 mov	 eax, DWORD PTR ___$ReturnUdt$[esp-4]
  00006	89 08		 mov	 DWORD PTR [eax], ecx
  00008	c2 04 00	 ret	 4
?end@?$list@GV?$allocator@G@_STL@@@_STL@@QBE?AU?$_List_iterator@GU?$_Const_traits@G@_STL@@@2@XZ ENDP ; _STL::list<unsigned short,_STL::allocator<unsigned short> >::end
_TEXT	ENDS
PUBLIC	??0?$_STLP_alloc_proxy@PAU?$_List_node@G@_STL@@U12@V?$allocator@U?$_List_node@G@_STL@@@2@@_STL@@QAE@ABV?$allocator@U?$_List_node@G@_STL@@@1@PAU?$_List_node@G@1@@Z ; _STL::_STLP_alloc_proxy<_STL::_List_node<unsigned short> *,_STL::_List_node<unsigned short>,_STL::allocator<_STL::_List_node<unsigned short> > >::_STLP_alloc_proxy<_STL::_List_node<unsigned short> *,_STL::_List_node<unsigned short>,_STL::allocator<_STL::_List_node<unsigned short> > >
; Function compile flags: /Ogsy
; File c:\stlport-4.6.1\stlport\stl\_alloc.h
;	COMDAT ??0?$_STLP_alloc_proxy@PAU?$_List_node@G@_STL@@U12@V?$allocator@U?$_List_node@G@_STL@@@2@@_STL@@QAE@ABV?$allocator@U?$_List_node@G@_STL@@@1@PAU?$_List_node@G@1@@Z
_TEXT	SEGMENT
___a$ = 8						; size = 4
___p$ = 12						; size = 4
??0?$_STLP_alloc_proxy@PAU?$_List_node@G@_STL@@U12@V?$allocator@U?$_List_node@G@_STL@@@2@@_STL@@QAE@ABV?$allocator@U?$_List_node@G@_STL@@@1@PAU?$_List_node@G@1@@Z PROC NEAR ; _STL::_STLP_alloc_proxy<_STL::_List_node<unsigned short> *,_STL::_List_node<unsigned short>,_STL::allocator<_STL::_List_node<unsigned short> > >::_STLP_alloc_proxy<_STL::_List_node<unsigned short> *,_STL::_List_node<unsigned short>,_STL::allocator<_STL::_List_node<unsigned short> > >, COMDAT
; _this$ = ecx

; 487  :   inline _STLP_alloc_proxy(const _MaybeReboundAlloc& __a, _Value __p) : _MaybeReboundAlloc(__a), _M_data(__p) {}

  00000	8b c1		 mov	 eax, ecx
  00002	8b 4c 24 08	 mov	 ecx, DWORD PTR ___p$[esp-4]
  00006	89 08		 mov	 DWORD PTR [eax], ecx
  00008	c2 08 00	 ret	 8
??0?$_STLP_alloc_proxy@PAU?$_List_node@G@_STL@@U12@V?$allocator@U?$_List_node@G@_STL@@@2@@_STL@@QAE@ABV?$allocator@U?$_List_node@G@_STL@@@1@PAU?$_List_node@G@1@@Z ENDP ; _STL::_STLP_alloc_proxy<_STL::_List_node<unsigned short> *,_STL::_List_node<unsigned short>,_STL::allocator<_STL::_List_node<unsigned short> > >::_STLP_alloc_proxy<_STL::_List_node<unsigned short> *,_STL::_List_node<unsigned short>,_STL::allocator<_STL::_List_node<unsigned short> > >
_TEXT	ENDS
PUBLIC	?allocate@?$allocator@U?$_List_node@G@_STL@@@_STL@@QAEPAU?$_List_node@G@2@IPBX@Z ; _STL::allocator<_STL::_List_node<unsigned short> >::allocate
; Function compile flags: /Ogsy
;	COMDAT ?allocate@?$allocator@U?$_List_node@G@_STL@@@_STL@@QAEPAU?$_List_node@G@2@IPBX@Z
_TEXT	SEGMENT
___n$ = 8						; size = 4
___formal$ = 12						; size = 4
?allocate@?$allocator@U?$_List_node@G@_STL@@@_STL@@QAEPAU?$_List_node@G@2@IPBX@Z PROC NEAR ; _STL::allocator<_STL::_List_node<unsigned short> >::allocate, COMDAT
; _this$ = ecx

; 355  :     return __n != 0 ? __REINTERPRET_CAST(value_type*,__sgi_alloc::allocate(__n * sizeof(value_type))) : 0;

  00000	8b 44 24 04	 mov	 eax, DWORD PTR ___n$[esp-4]
  00004	85 c0		 test	 eax, eax
  00006	74 0f		 je	 SHORT $L117051
  00008	8d 04 40	 lea	 eax, DWORD PTR [eax+eax*2]
  0000b	c1 e0 02	 shl	 eax, 2
  0000e	50		 push	 eax
  0000f	e8 00 00 00 00	 call	 ?allocate@?$__node_alloc@$00$0A@@_STL@@SAPAXI@Z ; _STL::__node_alloc<1,0>::allocate
  00014	59		 pop	 ecx
  00015	eb 02		 jmp	 SHORT $L117052
$L117051:
  00017	33 c0		 xor	 eax, eax
$L117052:

; 356  :   }

  00019	c2 08 00	 ret	 8
?allocate@?$allocator@U?$_List_node@G@_STL@@@_STL@@QAEPAU?$_List_node@G@2@IPBX@Z ENDP ; _STL::allocator<_STL::_List_node<unsigned short> >::allocate
_TEXT	ENDS
PUBLIC	?clear@?$_List_base@GV?$allocator@G@_STL@@@_STL@@QAEXXZ ; _STL::_List_base<unsigned short,_STL::allocator<unsigned short> >::clear
; Function compile flags: /Ogsy
; File c:\stlport-4.6.1\stlport\stl\_list.c
;	COMDAT ?clear@?$_List_base@GV?$allocator@G@_STL@@@_STL@@QAEXXZ
_TEXT	SEGMENT
?clear@?$_List_base@GV?$allocator@G@_STL@@@_STL@@QAEXXZ PROC NEAR ; _STL::_List_base<unsigned short,_STL::allocator<unsigned short> >::clear, COMDAT
; _this$ = ecx

; 68   : {

  00000	56		 push	 esi
  00001	57		 push	 edi
  00002	8b f9		 mov	 edi, ecx

; 69   :   _List_node<_Tp>* __cur = (_List_node<_Tp>*) this->_M_node._M_data->_M_next;

  00004	8b 07		 mov	 eax, DWORD PTR [edi]
  00006	8b 30		 mov	 esi, DWORD PTR [eax]

; 70   :   while (__cur != this->_M_node._M_data) {

  00008	3b f0		 cmp	 esi, eax
  0000a	74 12		 je	 SHORT $L115314
$L115313:

; 71   :     _List_node<_Tp>* __tmp = __cur;

  0000c	8b c6		 mov	 eax, esi

; 72   :     __cur = (_List_node<_Tp>*) __cur->_M_next;

  0000e	8b 36		 mov	 esi, DWORD PTR [esi]

; 73   :     _STLP_STD::_Destroy(&__tmp->_M_data);
; 74   :     this->_M_node.deallocate(__tmp, 1);

  00010	6a 01		 push	 1
  00012	50		 push	 eax
  00013	8b cf		 mov	 ecx, edi
  00015	e8 00 00 00 00	 call	 ?deallocate@?$allocator@U?$_List_node@G@_STL@@@_STL@@QAEXPAU?$_List_node@G@2@I@Z ; _STL::allocator<_STL::_List_node<unsigned short> >::deallocate
  0001a	3b 37		 cmp	 esi, DWORD PTR [edi]
  0001c	75 ee		 jne	 SHORT $L115313
$L115314:

; 75   :   }
; 76   :   this->_M_node._M_data->_M_next = this->_M_node._M_data;

  0001e	8b 07		 mov	 eax, DWORD PTR [edi]
  00020	89 00		 mov	 DWORD PTR [eax], eax

; 77   :   this->_M_node._M_data->_M_prev = this->_M_node._M_data;

  00022	8b 3f		 mov	 edi, DWORD PTR [edi]
  00024	89 7f 04	 mov	 DWORD PTR [edi+4], edi
  00027	5f		 pop	 edi
  00028	5e		 pop	 esi

; 78   : }

  00029	c3		 ret	 0
?clear@?$_List_base@GV?$allocator@G@_STL@@@_STL@@QAEXXZ ENDP ; _STL::_List_base<unsigned short,_STL::allocator<unsigned short> >::clear
_TEXT	ENDS
PUBLIC	?rbegin@?$list@GV?$allocator@G@_STL@@@_STL@@QBE?AV?$reverse_iterator@U?$_List_iterator@GU?$_Const_traits@G@_STL@@@_STL@@@2@XZ ; _STL::list<unsigned short,_STL::allocator<unsigned short> >::rbegin
; Function compile flags: /Ogsy
; File c:\stlport-4.6.1\stlport\stl\_list.h
;	COMDAT ?rbegin@?$list@GV?$allocator@G@_STL@@@_STL@@QBE?AV?$reverse_iterator@U?$_List_iterator@GU?$_Const_traits@G@_STL@@@_STL@@@2@XZ
_TEXT	SEGMENT
___$ReturnUdt$ = 8					; size = 4
?rbegin@?$list@GV?$allocator@G@_STL@@@_STL@@QBE?AV?$reverse_iterator@U?$_List_iterator@GU?$_Const_traits@G@_STL@@@_STL@@@2@XZ PROC NEAR ; _STL::list<unsigned short,_STL::allocator<unsigned short> >::rbegin, COMDAT
; _this$ = ecx

; 275  :     { return const_reverse_iterator(end()); }

  00000	8b 09		 mov	 ecx, DWORD PTR [ecx]
  00002	8b 44 24 04	 mov	 eax, DWORD PTR ___$ReturnUdt$[esp-4]
  00006	89 08		 mov	 DWORD PTR [eax], ecx
  00008	c2 04 00	 ret	 4
?rbegin@?$list@GV?$allocator@G@_STL@@@_STL@@QBE?AV?$reverse_iterator@U?$_List_iterator@GU?$_Const_traits@G@_STL@@@_STL@@@2@XZ ENDP ; _STL::list<unsigned short,_STL::allocator<unsigned short> >::rbegin
_TEXT	ENDS
PUBLIC	??D?$reverse_iterator@U?$_List_iterator@GU?$_Const_traits@G@_STL@@@_STL@@@_STL@@QBEABGXZ ; _STL::reverse_iterator<_STL::_List_iterator<unsigned short,_STL::_Const_traits<unsigned short> > >::operator*
; Function compile flags: /Ogsy
; File c:\stlport-4.6.1\stlport\stl\_iterator.h
;	COMDAT ??D?$reverse_iterator@U?$_List_iterator@GU?$_Const_traits@G@_STL@@@_STL@@@_STL@@QBEABGXZ
_TEXT	SEGMENT
??D?$reverse_iterator@U?$_List_iterator@GU?$_Const_traits@G@_STL@@@_STL@@@_STL@@QBEABGXZ PROC NEAR ; _STL::reverse_iterator<_STL::_List_iterator<unsigned short,_STL::_Const_traits<unsigned short> > >::operator*, COMDAT
; _this$ = ecx

; 78   :     _Iterator __tmp = current;
; 79   :     return *--__tmp;

  00000	8b 01		 mov	 eax, DWORD PTR [ecx]
  00002	8b 40 04	 mov	 eax, DWORD PTR [eax+4]
  00005	83 c0 08	 add	 eax, 8

; 80   :   }

  00008	c3		 ret	 0
??D?$reverse_iterator@U?$_List_iterator@GU?$_Const_traits@G@_STL@@@_STL@@@_STL@@QBEABGXZ ENDP ; _STL::reverse_iterator<_STL::_List_iterator<unsigned short,_STL::_Const_traits<unsigned short> > >::operator*
_TEXT	ENDS
PUBLIC	?begin@?$list@PAVCSpriteSurface@@V?$allocator@PAVCSpriteSurface@@@_STL@@@_STL@@QAE?AU?$_List_iterator@PAVCSpriteSurface@@U?$_Nonconst_traits@PAVCSpriteSurface@@@_STL@@@2@XZ ; _STL::list<CSpriteSurface *,_STL::allocator<CSpriteSurface *> >::begin
; Function compile flags: /Ogsy
; File c:\stlport-4.6.1\stlport\stl\_list.h
;	COMDAT ?begin@?$list@PAVCSpriteSurface@@V?$allocator@PAVCSpriteSurface@@@_STL@@@_STL@@QAE?AU?$_List_iterator@PAVCSpriteSurface@@U?$_Nonconst_traits@PAVCSpriteSurface@@@_STL@@@2@XZ
_TEXT	SEGMENT
___$ReturnUdt$ = 8					; size = 4
?begin@?$list@PAVCSpriteSurface@@V?$allocator@PAVCSpriteSurface@@@_STL@@@_STL@@QAE?AU?$_List_iterator@PAVCSpriteSurface@@U?$_Nonconst_traits@PAVCSpriteSurface@@@_STL@@@2@XZ PROC NEAR ; _STL::list<CSpriteSurface *,_STL::allocator<CSpriteSurface *> >::begin, COMDAT
; _this$ = ecx

; 266  :   iterator begin()             { return iterator((_Node*)(this->_M_node._M_data->_M_next)); }

  00000	8b 01		 mov	 eax, DWORD PTR [ecx]
  00002	8b 08		 mov	 ecx, DWORD PTR [eax]
  00004	8b 44 24 04	 mov	 eax, DWORD PTR ___$ReturnUdt$[esp-4]
  00008	89 08		 mov	 DWORD PTR [eax], ecx
  0000a	c2 04 00	 ret	 4
?begin@?$list@PAVCSpriteSurface@@V?$allocator@PAVCSpriteSurface@@@_STL@@@_STL@@QAE?AU?$_List_iterator@PAVCSpriteSurface@@U?$_Nonconst_traits@PAVCSpriteSurface@@@_STL@@@2@XZ ENDP ; _STL::list<CSpriteSurface *,_STL::allocator<CSpriteSurface *> >::begin
_TEXT	ENDS
PUBLIC	?end@?$list@PAVCSpriteSurface@@V?$allocator@PAVCSpriteSurface@@@_STL@@@_STL@@QAE?AU?$_List_iterator@PAVCSpriteSurface@@U?$_Nonconst_traits@PAVCSpriteSurface@@@_STL@@@2@XZ ; _STL::list<CSpriteSurface *,_STL::allocator<CSpriteSurface *> >::end
; Function compile flags: /Ogsy
;	COMDAT ?end@?$list@PAVCSpriteSurface@@V?$allocator@PAVCSpriteSurface@@@_STL@@@_STL@@QAE?AU?$_List_iterator@PAVCSpriteSurface@@U?$_Nonconst_traits@PAVCSpriteSurface@@@_STL@@@2@XZ
_TEXT	SEGMENT
___$ReturnUdt$ = 8					; size = 4
?end@?$list@PAVCSpriteSurface@@V?$allocator@PAVCSpriteSurface@@@_STL@@@_STL@@QAE?AU?$_List_iterator@PAVCSpriteSurface@@U?$_Nonconst_traits@PAVCSpriteSurface@@@_STL@@@2@XZ PROC NEAR ; _STL::list<CSpriteSurface *,_STL::allocator<CSpriteSurface *> >::end, COMDAT
; _this$ = ecx

; 269  :   iterator end()             { return this->_M_node._M_data; }

  00000	8b 09		 mov	 ecx, DWORD PTR [ecx]
  00002	8b 44 24 04	 mov	 eax, DWORD PTR ___$ReturnUdt$[esp-4]
  00006	89 08		 mov	 DWORD PTR [eax], ecx
  00008	c2 04 00	 ret	 4
?end@?$list@PAVCSpriteSurface@@V?$allocator@PAVCSpriteSurface@@@_STL@@@_STL@@QAE?AU?$_List_iterator@PAVCSpriteSurface@@U?$_Nonconst_traits@PAVCSpriteSurface@@@_STL@@@2@XZ ENDP ; _STL::list<CSpriteSurface *,_STL::allocator<CSpriteSurface *> >::end
_TEXT	ENDS
PUBLIC	??E?$_List_iterator@PAVCSpriteSurface@@U?$_Nonconst_traits@PAVCSpriteSurface@@@_STL@@@_STL@@QAE?AU01@H@Z ; _STL::_List_iterator<CSpriteSurface *,_STL::_Nonconst_traits<CSpriteSurface *> >::operator++
; Function compile flags: /Ogsy
;	COMDAT ??E?$_List_iterator@PAVCSpriteSurface@@U?$_Nonconst_traits@PAVCSpriteSurface@@@_STL@@@_STL@@QAE?AU01@H@Z
_TEXT	SEGMENT
___$ReturnUdt$ = 8					; size = 4
___formal$ = 12						; size = 4
??E?$_List_iterator@PAVCSpriteSurface@@U?$_Nonconst_traits@PAVCSpriteSurface@@@_STL@@@_STL@@QAE?AU01@H@Z PROC NEAR ; _STL::_List_iterator<CSpriteSurface *,_STL::_Nonconst_traits<CSpriteSurface *> >::operator++, COMDAT
; _this$ = ecx

; 139  :     _Self __tmp = *this;

  00000	8b 11		 mov	 edx, DWORD PTR [ecx]

; 140  :     this->_M_incr();

  00002	8b 02		 mov	 eax, DWORD PTR [edx]
  00004	89 01		 mov	 DWORD PTR [ecx], eax

; 141  :     return __tmp;

  00006	8b 44 24 04	 mov	 eax, DWORD PTR ___$ReturnUdt$[esp-4]
  0000a	89 10		 mov	 DWORD PTR [eax], edx

; 142  :   }

  0000c	c2 08 00	 ret	 8
??E?$_List_iterator@PAVCSpriteSurface@@U?$_Nonconst_traits@PAVCSpriteSurface@@@_STL@@@_STL@@QAE?AU01@H@Z ENDP ; _STL::_List_iterator<CSpriteSurface *,_STL::_Nonconst_traits<CSpriteSurface *> >::operator++
_TEXT	ENDS
PUBLIC	??0?$_List_base@PAVCSpriteSurface@@V?$allocator@PAVCSpriteSurface@@@_STL@@@_STL@@QAE@ABV?$allocator@PAVCSpriteSurface@@@1@@Z ; _STL::_List_base<CSpriteSurface *,_STL::allocator<CSpriteSurface *> >::_List_base<CSpriteSurface *,_STL::allocator<CSpriteSurface *> >
; Function compile flags: /Ogsy
;	COMDAT ??0?$_List_base@PAVCSpriteSurface@@V?$allocator@PAVCSpriteSurface@@@_STL@@@_STL@@QAE@ABV?$allocator@PAVCSpriteSurface@@@1@@Z
_TEXT	SEGMENT
$T117150 = -1						; size = 1
___a$ = 8						; size = 4
??0?$_List_base@PAVCSpriteSurface@@V?$allocator@PAVCSpriteSurface@@@_STL@@@_STL@@QAE@ABV?$allocator@PAVCSpriteSurface@@@1@@Z PROC NEAR ; _STL::_List_base<CSpriteSurface *,_STL::allocator<CSpriteSurface *> >::_List_base<CSpriteSurface *,_STL::allocator<CSpriteSurface *> >, COMDAT
; _this$ = ecx

; 182  :   _List_base(const allocator_type& __a) : _M_node(_STLP_CONVERT_ALLOCATOR(__a, _Node), (_Node*)0) {

  00000	51		 push	 ecx
  00001	56		 push	 esi
  00002	6a 00		 push	 0
  00004	8d 44 24 0b	 lea	 eax, DWORD PTR $T117150[esp+12]
  00008	50		 push	 eax
  00009	8b f1		 mov	 esi, ecx
  0000b	e8 00 00 00 00	 call	 ??0?$_STLP_alloc_proxy@PAU?$_List_node@PAVCSpriteSurface@@@_STL@@U12@V?$allocator@U?$_List_node@PAVCSpriteSurface@@@_STL@@@2@@_STL@@QAE@ABV?$allocator@U?$_List_node@PAVCSpriteSurface@@@_STL@@@1@PAU?$_List_node@PAVCSpriteSurface@@@1@@Z ; _STL::_STLP_alloc_proxy<_STL::_List_node<CSpriteSurface *> *,_STL::_List_node<CSpriteSurface *>,_STL::allocator<_STL::_List_node<CSpriteSurface *> > >::_STLP_alloc_proxy<_STL::_List_node<CSpriteSurface *> *,_STL::_List_node<CSpriteSurface *>,_STL::allocator<_STL::_List_node<CSpriteSurface *> > >

; 183  :     _Node* __n = _M_node.allocate(1);

  00010	6a 0c		 push	 12			; 0000000cH
  00012	e8 00 00 00 00	 call	 ?allocate@?$__node_alloc@$00$0A@@_STL@@SAPAXI@Z ; _STL::__node_alloc<1,0>::allocate

; 184  :     __n->_M_next = __n;

  00017	89 00		 mov	 DWORD PTR [eax], eax

; 185  :     __n->_M_prev = __n;

  00019	89 40 04	 mov	 DWORD PTR [eax+4], eax

; 186  :     _M_node._M_data = __n;

  0001c	89 06		 mov	 DWORD PTR [esi], eax
  0001e	59		 pop	 ecx

; 187  :   }

  0001f	8b c6		 mov	 eax, esi
  00021	5e		 pop	 esi
  00022	59		 pop	 ecx
  00023	c2 04 00	 ret	 4
??0?$_List_base@PAVCSpriteSurface@@V?$allocator@PAVCSpriteSurface@@@_STL@@@_STL@@QAE@ABV?$allocator@PAVCSpriteSurface@@@1@@Z ENDP ; _STL::_List_base<CSpriteSurface *,_STL::allocator<CSpriteSurface *> >::_List_base<CSpriteSurface *,_STL::allocator<CSpriteSurface *> >
_TEXT	ENDS
PUBLIC	??1?$_List_base@PAVCSpriteSurface@@V?$allocator@PAVCSpriteSurface@@@_STL@@@_STL@@QAE@XZ ; _STL::_List_base<CSpriteSurface *,_STL::allocator<CSpriteSurface *> >::~_List_base<CSpriteSurface *,_STL::allocator<CSpriteSurface *> >
; Function compile flags: /Ogsy
;	COMDAT ??1?$_List_base@PAVCSpriteSurface@@V?$allocator@PAVCSpriteSurface@@@_STL@@@_STL@@QAE@XZ
_TEXT	SEGMENT
??1?$_List_base@PAVCSpriteSurface@@V?$allocator@PAVCSpriteSurface@@@_STL@@@_STL@@QAE@XZ PROC NEAR ; _STL::_List_base<CSpriteSurface *,_STL::allocator<CSpriteSurface *> >::~_List_base<CSpriteSurface *,_STL::allocator<CSpriteSurface *> >, COMDAT
; _this$ = ecx

; 188  :   ~_List_base() {

  00000	56		 push	 esi
  00001	8b f1		 mov	 esi, ecx

; 189  :     clear();

  00003	e8 00 00 00 00	 call	 ?clear@?$_List_base@PAVCSpriteSurface@@V?$allocator@PAVCSpriteSurface@@@_STL@@@_STL@@QAEXXZ ; _STL::_List_base<CSpriteSurface *,_STL::allocator<CSpriteSurface *> >::clear

; 190  :     _M_node.deallocate(_M_node._M_data, 1);

  00008	6a 01		 push	 1
  0000a	ff 36		 push	 DWORD PTR [esi]
  0000c	8b ce		 mov	 ecx, esi
  0000e	e8 00 00 00 00	 call	 ?deallocate@?$allocator@U?$_List_node@PAVCSpriteSurface@@@_STL@@@_STL@@QAEXPAU?$_List_node@PAVCSpriteSurface@@@2@I@Z ; _STL::allocator<_STL::_List_node<CSpriteSurface *> >::deallocate
  00013	5e		 pop	 esi

; 191  :   }

  00014	c3		 ret	 0
??1?$_List_base@PAVCSpriteSurface@@V?$allocator@PAVCSpriteSurface@@@_STL@@@_STL@@QAE@XZ ENDP ; _STL::_List_base<CSpriteSurface *,_STL::allocator<CSpriteSurface *> >::~_List_base<CSpriteSurface *,_STL::allocator<CSpriteSurface *> >
_TEXT	ENDS
PUBLIC	?_M_create_node@?$list@PAVCSpriteSurface@@V?$allocator@PAVCSpriteSurface@@@_STL@@@_STL@@IAEPAU?$_List_node@PAVCSpriteSurface@@@2@ABQAVCSpriteSurface@@@Z ; _STL::list<CSpriteSurface *,_STL::allocator<CSpriteSurface *> >::_M_create_node
EXTRN	__CxxThrowException@8:NEAR
; Function compile flags: /Ogsy
;	COMDAT ?_M_create_node@?$list@PAVCSpriteSurface@@V?$allocator@PAVCSpriteSurface@@@_STL@@@_STL@@IAEPAU?$_List_node@PAVCSpriteSurface@@@2@ABQAVCSpriteSurface@@@Z
_TEXT	SEGMENT
___x$ = 8						; size = 4
?_M_create_node@?$list@PAVCSpriteSurface@@V?$allocator@PAVCSpriteSurface@@@_STL@@@_STL@@IAEPAU?$_List_node@PAVCSpriteSurface@@@2@ABQAVCSpriteSurface@@@Z PROC NEAR ; _STL::list<CSpriteSurface *,_STL::allocator<CSpriteSurface *> >::_M_create_node, COMDAT
; _this$ = ecx

; 241  :     _Node* __p = this->_M_node.allocate(1);

  00000	6a 0c		 push	 12			; 0000000cH
  00002	e8 00 00 00 00	 call	 ?allocate@?$__node_alloc@$00$0A@@_STL@@SAPAXI@Z ; _STL::__node_alloc<1,0>::allocate
  00007	59		 pop	 ecx

; 242  :     _STLP_TRY {
; 243  :       _Construct(&__p->_M_data, __x);

  00008	8d 48 08	 lea	 ecx, DWORD PTR [eax+8]
  0000b	85 c9		 test	 ecx, ecx
  0000d	74 08		 je	 SHORT $L117186
  0000f	8b 54 24 04	 mov	 edx, DWORD PTR ___x$[esp-4]
  00013	8b 12		 mov	 edx, DWORD PTR [edx]
  00015	89 11		 mov	 DWORD PTR [ecx], edx
$L117186:

; 244  :     }
; 245  :     _STLP_UNWIND(this->_M_node.deallocate(__p, 1));
; 246  :     return __p;
; 247  :   }

  00017	c2 04 00	 ret	 4
?_M_create_node@?$list@PAVCSpriteSurface@@V?$allocator@PAVCSpriteSurface@@@_STL@@@_STL@@IAEPAU?$_List_node@PAVCSpriteSurface@@@2@ABQAVCSpriteSurface@@@Z ENDP ; _STL::list<CSpriteSurface *,_STL::allocator<CSpriteSurface *> >::_M_create_node
_TEXT	ENDS
PUBLIC	?erase@?$list@GV?$allocator@G@_STL@@@_STL@@QAE?AU?$_List_iterator@GU?$_Nonconst_traits@G@_STL@@@2@U32@@Z ; _STL::list<unsigned short,_STL::allocator<unsigned short> >::erase
; Function compile flags: /Ogsy
;	COMDAT ?erase@?$list@GV?$allocator@G@_STL@@@_STL@@QAE?AU?$_List_iterator@GU?$_Nonconst_traits@G@_STL@@@2@U32@@Z
_TEXT	SEGMENT
___$ReturnUdt$ = 8					; size = 4
___position$ = 12					; size = 4
?erase@?$list@GV?$allocator@G@_STL@@@_STL@@QAE?AU?$_List_iterator@GU?$_Nonconst_traits@G@_STL@@@2@U32@@Z PROC NEAR ; _STL::list<unsigned short,_STL::allocator<unsigned short> >::erase, COMDAT
; _this$ = ecx

; 354  :     _List_node_base* __next_node = __position._M_node->_M_next;

  00000	8b 54 24 08	 mov	 edx, DWORD PTR ___position$[esp-4]

; 355  :     _List_node_base* __prev_node = __position._M_node->_M_prev;

  00004	8b 42 04	 mov	 eax, DWORD PTR [edx+4]
  00007	56		 push	 esi
  00008	8b 32		 mov	 esi, DWORD PTR [edx]

; 356  :     _Node* __n = (_Node*) __position._M_node;
; 357  :     __prev_node->_M_next = __next_node;
; 358  :     __next_node->_M_prev = __prev_node;
; 359  :     _STLP_STD::_Destroy(&__n->_M_data);
; 360  :     this->_M_node.deallocate(__n, 1);

  0000a	6a 01		 push	 1
  0000c	89 30		 mov	 DWORD PTR [eax], esi
  0000e	52		 push	 edx
  0000f	89 46 04	 mov	 DWORD PTR [esi+4], eax
  00012	e8 00 00 00 00	 call	 ?deallocate@?$allocator@U?$_List_node@G@_STL@@@_STL@@QAEXPAU?$_List_node@G@2@I@Z ; _STL::allocator<_STL::_List_node<unsigned short> >::deallocate

; 361  :     return iterator((_Node*)__next_node);

  00017	8b 44 24 08	 mov	 eax, DWORD PTR ___$ReturnUdt$[esp]
  0001b	89 30		 mov	 DWORD PTR [eax], esi
  0001d	5e		 pop	 esi

; 362  :     }

  0001e	c2 08 00	 ret	 8
?erase@?$list@GV?$allocator@G@_STL@@@_STL@@QAE?AU?$_List_iterator@GU?$_Nonconst_traits@G@_STL@@@2@U32@@Z ENDP ; _STL::list<unsigned short,_STL::allocator<unsigned short> >::erase
_TEXT	ENDS
PUBLIC	??0?$_List_base@GV?$allocator@G@_STL@@@_STL@@QAE@ABV?$allocator@G@1@@Z ; _STL::_List_base<unsigned short,_STL::allocator<unsigned short> >::_List_base<unsigned short,_STL::allocator<unsigned short> >
; Function compile flags: /Ogsy
;	COMDAT ??0?$_List_base@GV?$allocator@G@_STL@@@_STL@@QAE@ABV?$allocator@G@1@@Z
_TEXT	SEGMENT
$T117212 = -1						; size = 1
___a$ = 8						; size = 4
??0?$_List_base@GV?$allocator@G@_STL@@@_STL@@QAE@ABV?$allocator@G@1@@Z PROC NEAR ; _STL::_List_base<unsigned short,_STL::allocator<unsigned short> >::_List_base<unsigned short,_STL::allocator<unsigned short> >, COMDAT
; _this$ = ecx

; 182  :   _List_base(const allocator_type& __a) : _M_node(_STLP_CONVERT_ALLOCATOR(__a, _Node), (_Node*)0) {

  00000	51		 push	 ecx
  00001	56		 push	 esi
  00002	6a 00		 push	 0
  00004	8d 44 24 0b	 lea	 eax, DWORD PTR $T117212[esp+12]
  00008	50		 push	 eax
  00009	8b f1		 mov	 esi, ecx
  0000b	e8 00 00 00 00	 call	 ??0?$_STLP_alloc_proxy@PAU?$_List_node@G@_STL@@U12@V?$allocator@U?$_List_node@G@_STL@@@2@@_STL@@QAE@ABV?$allocator@U?$_List_node@G@_STL@@@1@PAU?$_List_node@G@1@@Z ; _STL::_STLP_alloc_proxy<_STL::_List_node<unsigned short> *,_STL::_List_node<unsigned short>,_STL::allocator<_STL::_List_node<unsigned short> > >::_STLP_alloc_proxy<_STL::_List_node<unsigned short> *,_STL::_List_node<unsigned short>,_STL::allocator<_STL::_List_node<unsigned short> > >

; 183  :     _Node* __n = _M_node.allocate(1);

  00010	6a 0c		 push	 12			; 0000000cH
  00012	e8 00 00 00 00	 call	 ?allocate@?$__node_alloc@$00$0A@@_STL@@SAPAXI@Z ; _STL::__node_alloc<1,0>::allocate

; 184  :     __n->_M_next = __n;

  00017	89 00		 mov	 DWORD PTR [eax], eax

; 185  :     __n->_M_prev = __n;

  00019	89 40 04	 mov	 DWORD PTR [eax+4], eax

; 186  :     _M_node._M_data = __n;

  0001c	89 06		 mov	 DWORD PTR [esi], eax
  0001e	59		 pop	 ecx

; 187  :   }

  0001f	8b c6		 mov	 eax, esi
  00021	5e		 pop	 esi
  00022	59		 pop	 ecx
  00023	c2 04 00	 ret	 4
??0?$_List_base@GV?$allocator@G@_STL@@@_STL@@QAE@ABV?$allocator@G@1@@Z ENDP ; _STL::_List_base<unsigned short,_STL::allocator<unsigned short> >::_List_base<unsigned short,_STL::allocator<unsigned short> >
_TEXT	ENDS
PUBLIC	??1?$_List_base@GV?$allocator@G@_STL@@@_STL@@QAE@XZ ; _STL::_List_base<unsigned short,_STL::allocator<unsigned short> >::~_List_base<unsigned short,_STL::allocator<unsigned short> >
; Function compile flags: /Ogsy
;	COMDAT ??1?$_List_base@GV?$allocator@G@_STL@@@_STL@@QAE@XZ
_TEXT	SEGMENT
??1?$_List_base@GV?$allocator@G@_STL@@@_STL@@QAE@XZ PROC NEAR ; _STL::_List_base<unsigned short,_STL::allocator<unsigned short> >::~_List_base<unsigned short,_STL::allocator<unsigned short> >, COMDAT
; _this$ = ecx

; 188  :   ~_List_base() {

  00000	56		 push	 esi
  00001	8b f1		 mov	 esi, ecx

; 189  :     clear();

  00003	e8 00 00 00 00	 call	 ?clear@?$_List_base@GV?$allocator@G@_STL@@@_STL@@QAEXXZ ; _STL::_List_base<unsigned short,_STL::allocator<unsigned short> >::clear

; 190  :     _M_node.deallocate(_M_node._M_data, 1);

  00008	6a 01		 push	 1
  0000a	ff 36		 push	 DWORD PTR [esi]
  0000c	8b ce		 mov	 ecx, esi
  0000e	e8 00 00 00 00	 call	 ?deallocate@?$allocator@U?$_List_node@G@_STL@@@_STL@@QAEXPAU?$_List_node@G@2@I@Z ; _STL::allocator<_STL::_List_node<unsigned short> >::deallocate
  00013	5e		 pop	 esi

; 191  :   }

  00014	c3		 ret	 0
??1?$_List_base@GV?$allocator@G@_STL@@@_STL@@QAE@XZ ENDP ; _STL::_List_base<unsigned short,_STL::allocator<unsigned short> >::~_List_base<unsigned short,_STL::allocator<unsigned short> >
_TEXT	ENDS
PUBLIC	?_M_create_node@?$list@GV?$allocator@G@_STL@@@_STL@@IAEPAU?$_List_node@G@2@ABG@Z ; _STL::list<unsigned short,_STL::allocator<unsigned short> >::_M_create_node
; Function compile flags: /Ogsy
;	COMDAT ?_M_create_node@?$list@GV?$allocator@G@_STL@@@_STL@@IAEPAU?$_List_node@G@2@ABG@Z
_TEXT	SEGMENT
___x$ = 8						; size = 4
?_M_create_node@?$list@GV?$allocator@G@_STL@@@_STL@@IAEPAU?$_List_node@G@2@ABG@Z PROC NEAR ; _STL::list<unsigned short,_STL::allocator<unsigned short> >::_M_create_node, COMDAT
; _this$ = ecx

; 241  :     _Node* __p = this->_M_node.allocate(1);

  00000	6a 0c		 push	 12			; 0000000cH
  00002	e8 00 00 00 00	 call	 ?allocate@?$__node_alloc@$00$0A@@_STL@@SAPAXI@Z ; _STL::__node_alloc<1,0>::allocate
  00007	59		 pop	 ecx

; 242  :     _STLP_TRY {
; 243  :       _Construct(&__p->_M_data, __x);

  00008	8d 48 08	 lea	 ecx, DWORD PTR [eax+8]
  0000b	85 c9		 test	 ecx, ecx
  0000d	74 0a		 je	 SHORT $L117247
  0000f	8b 54 24 04	 mov	 edx, DWORD PTR ___x$[esp-4]
  00013	66 8b 12	 mov	 dx, WORD PTR [edx]
  00016	66 89 11	 mov	 WORD PTR [ecx], dx
$L117247:

; 244  :     }
; 245  :     _STLP_UNWIND(this->_M_node.deallocate(__p, 1));
; 246  :     return __p;
; 247  :   }

  00019	c2 04 00	 ret	 4
?_M_create_node@?$list@GV?$allocator@G@_STL@@@_STL@@IAEPAU?$_List_node@G@2@ABG@Z ENDP ; _STL::list<unsigned short,_STL::allocator<unsigned short> >::_M_create_node
_TEXT	ENDS
PUBLIC	?Release@?$CPartManager@GGPAVCSpriteSurface@@@@QAEXXZ ; CPartManager<unsigned short,unsigned short,CSpriteSurface *>::Release
; Function compile flags: /Ogsy
; File c:\darkeden\designed_common\project\client\cpartmanager.h
;	COMDAT ?Release@?$CPartManager@GGPAVCSpriteSurface@@@@QAEXXZ
_TEXT	SEGMENT
?Release@?$CPartManager@GGPAVCSpriteSurface@@@@QAEXXZ PROC NEAR ; CPartManager<unsigned short,unsigned short,CSpriteSurface *>::Release, COMDAT
; _this$ = ecx

; 256  : {

  00000	56		 push	 esi
  00001	8b f1		 mov	 esi, ecx

; 257  : 	if (m_pPartIndex!=NULL)

  00003	8b 46 04	 mov	 eax, DWORD PTR [esi+4]
  00006	57		 push	 edi
  00007	33 ff		 xor	 edi, edi
  00009	3b c7		 cmp	 eax, edi
  0000b	74 0d		 je	 SHORT $L115227

; 258  : 	{
; 259  : 		delete [] m_pPartIndex;

  0000d	50		 push	 eax
  0000e	e8 00 00 00 00	 call	 ??_V@YAXPAX@Z		; operator delete[]
  00013	59		 pop	 ecx

; 260  : 		m_pPartIndex = NULL;

  00014	89 7e 04	 mov	 DWORD PTR [esi+4], edi

; 261  : 		m_nIndex = 0;

  00017	66 89 3e	 mov	 WORD PTR [esi], di
$L115227:

; 262  : 	}
; 263  : 
; 264  : 	if (m_pData!=NULL)

  0001a	8b 46 0c	 mov	 eax, DWORD PTR [esi+12]
  0001d	3b c7		 cmp	 eax, edi
  0001f	74 12		 je	 SHORT $L115229

; 265  : 	{
; 266  : 		delete [] m_pData;

  00021	50		 push	 eax
  00022	e8 00 00 00 00	 call	 ??_V@YAXPAX@Z		; operator delete[]
  00027	59		 pop	 ecx

; 267  : 		m_pData = NULL;

  00028	89 7e 0c	 mov	 DWORD PTR [esi+12], edi

; 268  : 		m_nPart = 0;

  0002b	66 89 7e 08	 mov	 WORD PTR [esi+8], di

; 269  : 		m_nPartUsed = 0;

  0002f	66 89 7e 0a	 mov	 WORD PTR [esi+10], di
$L115229:

; 270  : 	}
; 271  : 
; 272  : 	if (m_pParentIndex!=NULL)

  00033	8b 46 10	 mov	 eax, DWORD PTR [esi+16]
  00036	3b c7		 cmp	 eax, edi
  00038	74 0a		 je	 SHORT $L115231

; 273  : 	{
; 274  : 		delete [] m_pParentIndex;

  0003a	50		 push	 eax
  0003b	e8 00 00 00 00	 call	 ??_V@YAXPAX@Z		; operator delete[]
  00040	59		 pop	 ecx

; 275  : 		m_pParentIndex = NULL;

  00041	89 7e 10	 mov	 DWORD PTR [esi+16], edi
$L115231:

; 276  : 	}
; 277  : 
; 278  : 	if (m_pLastTime!=NULL)

  00044	8b 46 14	 mov	 eax, DWORD PTR [esi+20]
  00047	3b c7		 cmp	 eax, edi
  00049	74 0a		 je	 SHORT $L115233

; 279  : 	{
; 280  : 		delete [] m_pLastTime;

  0004b	50		 push	 eax
  0004c	e8 00 00 00 00	 call	 ??_V@YAXPAX@Z		; operator delete[]
  00051	59		 pop	 ecx

; 281  : 		m_pLastTime = NULL;

  00052	89 7e 14	 mov	 DWORD PTR [esi+20], edi
$L115233:

; 282  : 	}
; 283  : 	
; 284  : 	if (m_pPartIterator!=NULL)

  00055	8b 46 1c	 mov	 eax, DWORD PTR [esi+28]
  00058	3b c7		 cmp	 eax, edi
  0005a	74 0a		 je	 SHORT $L115235

; 285  : 	{
; 286  : 		delete [] m_pPartIterator;

  0005c	50		 push	 eax
  0005d	e8 00 00 00 00	 call	 ??_V@YAXPAX@Z		; operator delete[]
  00062	59		 pop	 ecx

; 287  : 		m_pPartIterator = NULL;

  00063	89 7e 1c	 mov	 DWORD PTR [esi+28], edi
$L115235:
  00066	5f		 pop	 edi

; 288  : 	}
; 289  : 
; 290  : 	m_listLRU.clear();

  00067	8d 4e 18	 lea	 ecx, DWORD PTR [esi+24]
  0006a	5e		 pop	 esi
  0006b	e9 00 00 00 00	 jmp	 ?clear@?$_List_base@GV?$allocator@G@_STL@@@_STL@@QAEXXZ ; _STL::_List_base<unsigned short,_STL::allocator<unsigned short> >::clear
?Release@?$CPartManager@GGPAVCSpriteSurface@@@@QAEXXZ ENDP ; CPartManager<unsigned short,unsigned short,CSpriteSurface *>::Release
_TEXT	ENDS
PUBLIC	?GetLRU@?$CPartManager@GGPAVCSpriteSurface@@@@IBEGXZ ; CPartManager<unsigned short,unsigned short,CSpriteSurface *>::GetLRU
; Function compile flags: /Ogsy
;	COMDAT ?GetLRU@?$CPartManager@GGPAVCSpriteSurface@@@@IBEGXZ
_TEXT	SEGMENT
?GetLRU@?$CPartManager@GGPAVCSpriteSurface@@@@IBEGXZ PROC NEAR ; CPartManager<unsigned short,unsigned short,CSpriteSurface *>::GetLRU, COMDAT
; _this$ = ecx

; 533  : 	//---------------------------------------------------
; 534  : 	// m_nPart      ...
; 535  : 	//   PartIndex .
; 536  : 	//---------------------------------------------------
; 537  : 	if (m_nPartUsed < m_nPart)

  00000	66 8b 41 0a	 mov	 ax, WORD PTR [ecx+10]
  00004	66 3b 41 08	 cmp	 ax, WORD PTR [ecx+8]

; 538  : 	{	
; 539  : 		//DEBUG_ADD_FORMAT("[LRU] %d", m_nPartUsed);
; 540  : 		return m_nPartUsed;		

  00008	72 0a		 jb	 SHORT $L115242

; 541  : 	}
; 542  : 
; 543  : 	//---------------------------------------------------
; 544  : 	// LRU list tail LRU index.
; 545  : 	//---------------------------------------------------
; 546  : 	PartIndexType leastTimeIndex = *m_listLRU.rbegin();

  0000a	8b 49 18	 mov	 ecx, DWORD PTR [ecx+24]

; 547  : 
; 548  : 
; 549  : 	//---------------------------------------------------
; 550  : 	// [ TEST CODE ]
; 551  : 	/*
; 552  : 	PARTINDEX_LIST::const_iterator	iIndex = m_listLRU.begin();
; 553  : 
; 554  : 	char str[1024] = "[GetLRU] ";
; 555  : 	char str2[256];
; 556  : 	while (iIndex != m_listLRU.end())
; 557  : 	{
; 558  : 		sprintf(str2, "%d ", *iIndex);
; 559  : 		strcat(str, str2);
; 560  : 
; 561  : 		iIndex++;
; 562  : 	}
; 563  : 	DEBUG_ADD(str);
; 564  : 	*/
; 565  : 	//---------------------------------------------------
; 566  : 
; 567  : 	//---------------------------------------------------
; 568  : 	//       .
; 569  : 	//---------------------------------------------------
; 570  : 	/*
; 571  : 	PartIndexType leastTimeIndex = 0;
; 572  : 
; 573  : 	for (int i=1; i<m_nPart; i++)
; 574  : 	{
; 575  : 		//   
; 576  : 		if (m_pLastTime[i] < m_pLastTime[leastTimeIndex])
; 577  : 		{
; 578  : 			leastTimeIndex = i;
; 579  : 		}
; 580  : 	}
; 581  : 	*/
; 582  : 
; 583  : 	//---------------------------------------------------
; 584  : 	//     PartIndex
; 585  : 	//---------------------------------------------------
; 586  : 	//DEBUG_ADD_FORMAT("[LRU] %d", leastTimeIndex);
; 587  : 	return leastTimeIndex;

  0000d	8b 41 04	 mov	 eax, DWORD PTR [ecx+4]
  00010	66 8b 40 08	 mov	 ax, WORD PTR [eax+8]
$L115242:

; 588  : }

  00014	c3		 ret	 0
?GetLRU@?$CPartManager@GGPAVCSpriteSurface@@@@IBEGXZ ENDP ; CPartManager<unsigned short,unsigned short,CSpriteSurface *>::GetLRU
_TEXT	ENDS
PUBLIC	?DeleteRemoved@CNormalSpriteTexturePartManager@@QAEXXZ ; CNormalSpriteTexturePartManager::DeleteRemoved
; Function compile flags: /Ogsy
; File c:\darkeden\designed_common\project\client\cnormalspritetexturepartmanager.cpp
;	COMDAT ?DeleteRemoved@CNormalSpriteTexturePartManager@@QAEXXZ
_TEXT	SEGMENT
?DeleteRemoved@CNormalSpriteTexturePartManager@@QAEXXZ PROC NEAR ; CNormalSpriteTexturePartManager::DeleteRemoved, COMDAT
; _this$ = ecx

; 222  : {

  00000	56		 push	 esi
  00001	57		 push	 edi

; 223  : 	SPRITESURFACE_LIST::iterator iSurface = m_listRemoved.begin();

  00002	8d 79 34	 lea	 edi, DWORD PTR [ecx+52]
  00005	8b 07		 mov	 eax, DWORD PTR [edi]
  00007	8b 30		 mov	 esi, DWORD PTR [eax]

; 224  : 
; 225  : 	while (iSurface != m_listRemoved.end())

  00009	3b f0		 cmp	 esi, eax
  0000b	74 1d		 je	 SHORT $L112396
  0000d	53		 push	 ebx
$L112395:

; 226  : 	{
; 227  : 		CSpriteSurface*	pSurface = *iSurface;
; 228  : 
; 229  : 		delete pSurface;

  0000e	8b 5e 08	 mov	 ebx, DWORD PTR [esi+8]
  00011	85 db		 test	 ebx, ebx
  00013	74 0e		 je	 SHORT $L117326
  00015	8b cb		 mov	 ecx, ebx
  00017	e8 00 00 00 00	 call	 ??1CSpriteSurface@@QAE@XZ ; CSpriteSurface::~CSpriteSurface
  0001c	53		 push	 ebx
  0001d	e8 00 00 00 00	 call	 ??3@YAXPAX@Z		; operator delete
  00022	59		 pop	 ecx
$L117326:

; 230  : 		
; 231  : 		iSurface++;

  00023	8b 36		 mov	 esi, DWORD PTR [esi]
  00025	3b 37		 cmp	 esi, DWORD PTR [edi]
  00027	75 e5		 jne	 SHORT $L112395
  00029	5b		 pop	 ebx
$L112396:

; 232  : 	}
; 233  : 
; 234  : 	m_listRemoved.clear();

  0002a	8b cf		 mov	 ecx, edi
  0002c	5f		 pop	 edi
  0002d	5e		 pop	 esi
  0002e	e9 00 00 00 00	 jmp	 ?clear@?$_List_base@PAVCSpriteSurface@@V?$allocator@PAVCSpriteSurface@@@_STL@@@_STL@@QAEXXZ ; _STL::_List_base<CSpriteSurface *,_STL::allocator<CSpriteSurface *> >::clear
?DeleteRemoved@CNormalSpriteTexturePartManager@@QAEXXZ ENDP ; CNormalSpriteTexturePartManager::DeleteRemoved
_TEXT	ENDS
PUBLIC	??0?$list@PAVCSpriteSurface@@V?$allocator@PAVCSpriteSurface@@@_STL@@@_STL@@QAE@ABV?$allocator@PAVCSpriteSurface@@@1@@Z ; _STL::list<CSpriteSurface *,_STL::allocator<CSpriteSurface *> >::list<CSpriteSurface *,_STL::allocator<CSpriteSurface *> >
; Function compile flags: /Ogsy
; File c:\stlport-4.6.1\stlport\stl\_list.h
;	COMDAT ??0?$list@PAVCSpriteSurface@@V?$allocator@PAVCSpriteSurface@@@_STL@@@_STL@@QAE@ABV?$allocator@PAVCSpriteSurface@@@1@@Z
_TEXT	SEGMENT
___a$ = 8						; size = 4
??0?$list@PAVCSpriteSurface@@V?$allocator@PAVCSpriteSurface@@@_STL@@@_STL@@QAE@ABV?$allocator@PAVCSpriteSurface@@@1@@Z PROC NEAR ; _STL::list<CSpriteSurface *,_STL::allocator<CSpriteSurface *> >::list<CSpriteSurface *,_STL::allocator<CSpriteSurface *> >, COMDAT
; _this$ = ecx

; 264  :     _List_base<_Tp, _Alloc>(__a) {}

  00000	56		 push	 esi
  00001	ff 74 24 08	 push	 DWORD PTR ___a$[esp]
  00005	8b f1		 mov	 esi, ecx
  00007	e8 00 00 00 00	 call	 ??0?$_List_base@PAVCSpriteSurface@@V?$allocator@PAVCSpriteSurface@@@_STL@@@_STL@@QAE@ABV?$allocator@PAVCSpriteSurface@@@1@@Z ; _STL::_List_base<CSpriteSurface *,_STL::allocator<CSpriteSurface *> >::_List_base<CSpriteSurface *,_STL::allocator<CSpriteSurface *> >
  0000c	8b c6		 mov	 eax, esi
  0000e	5e		 pop	 esi
  0000f	c2 04 00	 ret	 4
??0?$list@PAVCSpriteSurface@@V?$allocator@PAVCSpriteSurface@@@_STL@@@_STL@@QAE@ABV?$allocator@PAVCSpriteSurface@@@1@@Z ENDP ; _STL::list<CSpriteSurface *,_STL::allocator<CSpriteSurface *> >::list<CSpriteSurface *,_STL::allocator<CSpriteSurface *> >
_TEXT	ENDS
PUBLIC	??1?$list@PAVCSpriteSurface@@V?$allocator@PAVCSpriteSurface@@@_STL@@@_STL@@QAE@XZ ; _STL::list<CSpriteSurface *,_STL::allocator<CSpriteSurface *> >::~list<CSpriteSurface *,_STL::allocator<CSpriteSurface *> >
; Function compile flags: /Ogsy
;	COMDAT ??1?$list@PAVCSpriteSurface@@V?$allocator@PAVCSpriteSurface@@@_STL@@@_STL@@QAE@XZ
_TEXT	SEGMENT
??1?$list@PAVCSpriteSurface@@V?$allocator@PAVCSpriteSurface@@@_STL@@@_STL@@QAE@XZ PROC NEAR ; _STL::list<CSpriteSurface *,_STL::allocator<CSpriteSurface *> >::~list<CSpriteSurface *,_STL::allocator<CSpriteSurface *> >, COMDAT
; _this$ = ecx

; 416  :   ~list() { }

  00000	e9 00 00 00 00	 jmp	 ??1?$_List_base@PAVCSpriteSurface@@V?$allocator@PAVCSpriteSurface@@@_STL@@@_STL@@QAE@XZ ; _STL::_List_base<CSpriteSurface *,_STL::allocator<CSpriteSurface *> >::~_List_base<CSpriteSurface *,_STL::allocator<CSpriteSurface *> >
??1?$list@PAVCSpriteSurface@@V?$allocator@PAVCSpriteSurface@@@_STL@@@_STL@@QAE@XZ ENDP ; _STL::list<CSpriteSurface *,_STL::allocator<CSpriteSurface *> >::~list<CSpriteSurface *,_STL::allocator<CSpriteSurface *> >
_TEXT	ENDS
PUBLIC	?insert@?$list@PAVCSpriteSurface@@V?$allocator@PAVCSpriteSurface@@@_STL@@@_STL@@QAE?AU?$_List_iterator@PAVCSpriteSurface@@U?$_Nonconst_traits@PAVCSpriteSurface@@@_STL@@@2@U32@ABQAVCSpriteSurface@@@Z ; _STL::list<CSpriteSurface *,_STL::allocator<CSpriteSurface *> >::insert
; Function compile flags: /Ogsy
;	COMDAT ?insert@?$list@PAVCSpriteSurface@@V?$allocator@PAVCSpriteSurface@@@_STL@@@_STL@@QAE?AU?$_List_iterator@PAVCSpriteSurface@@U?$_Nonconst_traits@PAVCSpriteSurface@@@_STL@@@2@U32@ABQAVCSpriteSurface@@@Z
_TEXT	SEGMENT
___$ReturnUdt$ = 8					; size = 4
___position$ = 12					; size = 4
___x$ = 16						; size = 4
?insert@?$list@PAVCSpriteSurface@@V?$allocator@PAVCSpriteSurface@@@_STL@@@_STL@@QAE?AU?$_List_iterator@PAVCSpriteSurface@@U?$_Nonconst_traits@PAVCSpriteSurface@@@_STL@@@2@U32@ABQAVCSpriteSurface@@@Z PROC NEAR ; _STL::list<CSpriteSurface *,_STL::allocator<CSpriteSurface *> >::insert, COMDAT
; _this$ = ecx

; 299  : 
; 300  :     _Node* __tmp = _M_create_node(__x);

  00000	ff 74 24 0c	 push	 DWORD PTR ___x$[esp-4]
  00004	e8 00 00 00 00	 call	 ?_M_create_node@?$list@PAVCSpriteSurface@@V?$allocator@PAVCSpriteSurface@@@_STL@@@_STL@@IAEPAU?$_List_node@PAVCSpriteSurface@@@2@ABQAVCSpriteSurface@@@Z ; _STL::list<CSpriteSurface *,_STL::allocator<CSpriteSurface *> >::_M_create_node

; 301  :     _List_node_base* __n = __position._M_node;
; 302  :     _List_node_base* __p = __n->_M_prev;

  00009	8b 4c 24 08	 mov	 ecx, DWORD PTR ___position$[esp-4]
  0000d	8b 51 04	 mov	 edx, DWORD PTR [ecx+4]

; 303  :     __tmp->_M_next = __n;

  00010	89 08		 mov	 DWORD PTR [eax], ecx

; 304  :     __tmp->_M_prev = __p;

  00012	89 50 04	 mov	 DWORD PTR [eax+4], edx

; 305  :     __p->_M_next = __tmp;

  00015	89 02		 mov	 DWORD PTR [edx], eax

; 306  :     __n->_M_prev = __tmp;

  00017	89 41 04	 mov	 DWORD PTR [ecx+4], eax

; 307  :     return __tmp;

  0001a	8b 4c 24 04	 mov	 ecx, DWORD PTR ___$ReturnUdt$[esp-4]
  0001e	89 01		 mov	 DWORD PTR [ecx], eax
  00020	8b c1		 mov	 eax, ecx

; 308  :   }

  00022	c2 0c 00	 ret	 12			; 0000000cH
?insert@?$list@PAVCSpriteSurface@@V?$allocator@PAVCSpriteSurface@@@_STL@@@_STL@@QAE?AU?$_List_iterator@PAVCSpriteSurface@@U?$_Nonconst_traits@PAVCSpriteSurface@@@_STL@@@2@U32@ABQAVCSpriteSurface@@@Z ENDP ; _STL::list<CSpriteSurface *,_STL::allocator<CSpriteSurface *> >::insert
_TEXT	ENDS
PUBLIC	?Init@?$CPartManager@GGPAVCSpriteSurface@@@@QAEXGG@Z ; CPartManager<unsigned short,unsigned short,CSpriteSurface *>::Init
EXTRN	??_U@YAPAXI@Z:NEAR				; operator new[]
EXTRN	__EH_prolog:NEAR
EXTRN	__except_list:DWORD
EXTRN	___CxxFrameHandler:NEAR
;	COMDAT xdata$x
xdata$x	SEGMENT
$T117464 DD	0ffffffffH
	DD	FLAT:$L117438
$T117456 DD	019930520H
	DD	01H
	DD	FLAT:$T117464
	DD	2 DUP(00H)
	DD	2 DUP(00H)
; Function compile flags: /Ogsy
; File c:\darkeden\designed_common\project\client\cpartmanager.h
xdata$x	ENDS
;	COMDAT ?Init@?$CPartManager@GGPAVCSpriteSurface@@@@QAEXGG@Z
_TEXT	SEGMENT
__$EHRec$ = -12						; size = 12
_maxIndex$ = 8						; size = 2
_maxPart$ = 12						; size = 2
$T117434 = 12						; size = 4
?Init@?$CPartManager@GGPAVCSpriteSurface@@@@QAEXGG@Z PROC NEAR ; CPartManager<unsigned short,unsigned short,CSpriteSurface *>::Init, COMDAT
; _this$ = ecx

; 201  : {

  00000	b8 00 00 00 00	 mov	 eax, __ehhandler$?Init@?$CPartManager@GGPAVCSpriteSurface@@@@QAEXGG@Z
  00005	e8 00 00 00 00	 call	 __EH_prolog
  0000a	53		 push	 ebx
  0000b	56		 push	 esi
  0000c	57		 push	 edi
  0000d	8b f1		 mov	 esi, ecx

; 202  : 	Release();

  0000f	e8 00 00 00 00	 call	 ?Release@?$CPartManager@GGPAVCSpriteSurface@@@@QAEXXZ ; CPartManager<unsigned short,unsigned short,CSpriteSurface *>::Release

; 203  : 
; 204  : 	//------------------------------------------------------
; 205  : 	//    ...
; 206  : 	//------------------------------------------------------
; 207  : 	if (maxPart > maxIndex)

  00014	8b 7d 0c	 mov	 edi, DWORD PTR _maxPart$[ebp]
  00017	8b 45 08	 mov	 eax, DWORD PTR _maxIndex$[ebp]
  0001a	66 3b f8	 cmp	 di, ax
  0001d	76 02		 jbe	 SHORT $L112880

; 208  : 	{
; 209  : 		maxPart = maxIndex;

  0001f	8b f8		 mov	 edi, eax
$L112880:

; 210  : 	}
; 211  : 
; 212  : 	//------------------------------------------------------
; 213  : 	// PartIndexType m_nIndex .
; 214  : 	//------------------------------------------------------
; 215  : 	m_nIndex = maxIndex;

  00021	66 89 06	 mov	 WORD PTR [esi], ax

; 216  : 	m_pPartIndex = new PartIndexType [m_nIndex];

  00024	0f b7 c0	 movzx	 eax, ax
  00027	d1 e0		 shl	 eax, 1
  00029	50		 push	 eax
  0002a	e8 00 00 00 00	 call	 ??_U@YAPAXI@Z		; operator new[]
  0002f	89 46 04	 mov	 DWORD PTR [esi+4], eax

; 217  : 
; 218  : 	for (int i=0; i<m_nIndex; i++)

  00032	33 c0		 xor	 eax, eax
  00034	66 39 06	 cmp	 WORD PTR [esi], ax
  00037	59		 pop	 ecx
  00038	76 13		 jbe	 SHORT $L112886
$L112884:

; 219  : 	{
; 220  : 		m_pPartIndex[i] = m_PartIndexNULL;

  0003a	8b 4e 04	 mov	 ecx, DWORD PTR [esi+4]
  0003d	66 8b 56 22	 mov	 dx, WORD PTR [esi+34]
  00041	66 89 14 41	 mov	 WORD PTR [ecx+eax*2], dx
  00045	0f b7 0e	 movzx	 ecx, WORD PTR [esi]
  00048	40		 inc	 eax
  00049	3b c1		 cmp	 eax, ecx
  0004b	7c ed		 jl	 SHORT $L112884
$L112886:

; 221  : 	}
; 222  : 
; 223  : 	//------------------------------------------------------
; 224  : 	// PartIndex  
; 225  : 	//------------------------------------------------------
; 226  : 	m_nPart			= maxPart;
; 227  : 	m_nPartUsed		= 0;

  0004d	66 83 66 0a 00	 and	 WORD PTR [esi+10], 0

; 228  : 	m_pData			= new DataType [m_nPart];

  00052	0f b7 c7	 movzx	 eax, di
  00055	c1 e0 02	 shl	 eax, 2
  00058	50		 push	 eax
  00059	66 89 7e 08	 mov	 WORD PTR [esi+8], di
  0005d	e8 00 00 00 00	 call	 ??_U@YAPAXI@Z		; operator new[]
  00062	89 46 0c	 mov	 DWORD PTR [esi+12], eax

; 229  : 	m_pParentIndex	= new IndexType [m_nPart];	//  index

  00065	0f b7 46 08	 movzx	 eax, WORD PTR [esi+8]
  00069	d1 e0		 shl	 eax, 1
  0006b	50		 push	 eax
  0006c	e8 00 00 00 00	 call	 ??_U@YAPAXI@Z		; operator new[]
  00071	89 46 10	 mov	 DWORD PTR [esi+16], eax

; 230  : 	m_pLastTime		= new DWORD [m_nPart];		//   

  00074	0f b7 46 08	 movzx	 eax, WORD PTR [esi+8]
  00078	c1 e0 02	 shl	 eax, 2
  0007b	50		 push	 eax
  0007c	e8 00 00 00 00	 call	 ??_U@YAPAXI@Z		; operator new[]

; 231  : 	
; 232  : 	//------------------------------------------------------
; 233  : 	// LRU list
; 234  : 	//------------------------------------------------------
; 235  : 	m_listLRU.clear();

  00081	8d 5e 18	 lea	 ebx, DWORD PTR [esi+24]
  00084	83 c4 0c	 add	 esp, 12			; 0000000cH
  00087	8b cb		 mov	 ecx, ebx
  00089	89 46 14	 mov	 DWORD PTR [esi+20], eax
  0008c	e8 00 00 00 00	 call	 ?clear@?$_List_base@GV?$allocator@G@_STL@@@_STL@@QAEXXZ ; _STL::_List_base<unsigned short,_STL::allocator<unsigned short> >::clear

; 236  : 	m_pPartIterator		= new PARTINDEX_LIST_ITERATOR [m_nPart];	// iterator

  00091	0f b7 7e 08	 movzx	 edi, WORD PTR [esi+8]
  00095	8b c7		 mov	 eax, edi
  00097	c1 e0 02	 shl	 eax, 2
  0009a	50		 push	 eax
  0009b	e8 00 00 00 00	 call	 ??_U@YAPAXI@Z		; operator new[]
  000a0	59		 pop	 ecx
  000a1	89 45 0c	 mov	 DWORD PTR $T117434[ebp], eax
  000a4	33 c9		 xor	 ecx, ecx
  000a6	3b c1		 cmp	 eax, ecx
  000a8	89 4d fc	 mov	 DWORD PTR __$EHRec$[ebp+8], ecx
  000ab	74 15		 je	 SHORT $L117435
  000ad	68 00 00 00 00	 push	 OFFSET FLAT:??0?$_List_iterator@GU?$_Nonconst_traits@G@_STL@@@_STL@@QAE@XZ ; _STL::_List_iterator<unsigned short,_STL::_Nonconst_traits<unsigned short> >::_List_iterator<unsigned short,_STL::_Nonconst_traits<unsigned short> >
  000b2	57		 push	 edi
  000b3	6a 04		 push	 4
  000b5	50		 push	 eax
  000b6	e8 00 00 00 00	 call	 ??_H@YGXPAXIHP6EPAX0@Z@Z
  000bb	8b 45 0c	 mov	 eax, DWORD PTR $T117434[ebp]
  000be	33 c9		 xor	 ecx, ecx
  000c0	eb 02		 jmp	 SHORT $L117436
$L117435:
  000c2	33 c0		 xor	 eax, eax
$L117436:
  000c4	89 46 1c	 mov	 DWORD PTR [esi+28], eax

; 237  : 
; 238  : 	for (i=0; i<m_nPart; i++)

  000c7	33 c0		 xor	 eax, eax
  000c9	66 39 4e 08	 cmp	 WORD PTR [esi+8], cx
  000cd	76 28		 jbe	 SHORT $L112940
$L112938:

; 239  : 	{
; 240  : 		m_pData[i] = NULL;

  000cf	8b 56 0c	 mov	 edx, DWORD PTR [esi+12]
  000d2	89 0c 82	 mov	 DWORD PTR [edx+eax*4], ecx

; 241  : 		m_pParentIndex[i] = m_IndexNULL;

  000d5	8b 56 10	 mov	 edx, DWORD PTR [esi+16]
  000d8	66 8b 7e 20	 mov	 di, WORD PTR [esi+32]
  000dc	66 89 3c 42	 mov	 WORD PTR [edx+eax*2], di

; 242  : 		m_pLastTime[i] = 0;

  000e0	8b 56 14	 mov	 edx, DWORD PTR [esi+20]
  000e3	89 0c 82	 mov	 DWORD PTR [edx+eax*4], ecx

; 243  : 
; 244  : 		m_pPartIterator[i] = m_listLRU.end();

  000e6	8b 56 1c	 mov	 edx, DWORD PTR [esi+28]
  000e9	8b 3b		 mov	 edi, DWORD PTR [ebx]
  000eb	89 3c 82	 mov	 DWORD PTR [edx+eax*4], edi
  000ee	0f b7 56 08	 movzx	 edx, WORD PTR [esi+8]
  000f2	40		 inc	 eax
  000f3	3b c2		 cmp	 eax, edx
  000f5	7c d8		 jl	 SHORT $L112938
$L112940:

; 245  : 	}
; 246  : 
; 247  : 	m_Counter = 0;

  000f7	89 4e 24	 mov	 DWORD PTR [esi+36], ecx

; 248  : }

  000fa	8b 4d f4	 mov	 ecx, DWORD PTR __$EHRec$[ebp]
  000fd	5f		 pop	 edi
  000fe	5e		 pop	 esi
  000ff	5b		 pop	 ebx
  00100	64 89 0d 00 00
	00 00		 mov	 DWORD PTR fs:__except_list, ecx
  00107	c9		 leave
  00108	c2 08 00	 ret	 8
_TEXT	ENDS
;	COMDAT text$x
text$x	SEGMENT
$L117438:
  00000	ff 75 0c	 push	 DWORD PTR $T117434[ebp]
  00003	e8 00 00 00 00	 call	 ??_V@YAXPAX@Z		; operator delete[]
  00008	59		 pop	 ecx
  00009	c3		 ret	 0
__ehhandler$?Init@?$CPartManager@GGPAVCSpriteSurface@@@@QAEXGG@Z:
  0000a	b8 00 00 00 00	 mov	 eax, OFFSET FLAT:$T117456
  0000f	e9 00 00 00 00	 jmp	 ___CxxFrameHandler
text$x	ENDS
?Init@?$CPartManager@GGPAVCSpriteSurface@@@@QAEXGG@Z ENDP ; CPartManager<unsigned short,unsigned short,CSpriteSurface *>::Init
PUBLIC	??0?$list@GV?$allocator@G@_STL@@@_STL@@QAE@ABV?$allocator@G@1@@Z ; _STL::list<unsigned short,_STL::allocator<unsigned short> >::list<unsigned short,_STL::allocator<unsigned short> >
; Function compile flags: /Ogsy
; File c:\stlport-4.6.1\stlport\stl\_list.h
;	COMDAT ??0?$list@GV?$allocator@G@_STL@@@_STL@@QAE@ABV?$allocator@G@1@@Z
_TEXT	SEGMENT
___a$ = 8						; size = 4
??0?$list@GV?$allocator@G@_STL@@@_STL@@QAE@ABV?$allocator@G@1@@Z PROC NEAR ; _STL::list<unsigned short,_STL::allocator<unsigned short> >::list<unsigned short,_STL::allocator<unsigned short> >, COMDAT
; _this$ = ecx

; 264  :     _List_base<_Tp, _Alloc>(__a) {}

  00000	56		 push	 esi
  00001	ff 74 24 08	 push	 DWORD PTR ___a$[esp]
  00005	8b f1		 mov	 esi, ecx
  00007	e8 00 00 00 00	 call	 ??0?$_List_base@GV?$allocator@G@_STL@@@_STL@@QAE@ABV?$allocator@G@1@@Z ; _STL::_List_base<unsigned short,_STL::allocator<unsigned short> >::_List_base<unsigned short,_STL::allocator<unsigned short> >
  0000c	8b c6		 mov	 eax, esi
  0000e	5e		 pop	 esi
  0000f	c2 04 00	 ret	 4
??0?$list@GV?$allocator@G@_STL@@@_STL@@QAE@ABV?$allocator@G@1@@Z ENDP ; _STL::list<unsigned short,_STL::allocator<unsigned short> >::list<unsigned short,_STL::allocator<unsigned short> >
_TEXT	ENDS
PUBLIC	??1?$list@GV?$allocator@G@_STL@@@_STL@@QAE@XZ	; _STL::list<unsigned short,_STL::allocator<unsigned short> >::~list<unsigned short,_STL::allocator<unsigned short> >
; Function compile flags: /Ogsy
;	COMDAT ??1?$list@GV?$allocator@G@_STL@@@_STL@@QAE@XZ
_TEXT	SEGMENT
??1?$list@GV?$allocator@G@_STL@@@_STL@@QAE@XZ PROC NEAR	; _STL::list<unsigned short,_STL::allocator<unsigned short> >::~list<unsigned short,_STL::allocator<unsigned short> >, COMDAT
; _this$ = ecx

; 416  :   ~list() { }

  00000	e9 00 00 00 00	 jmp	 ??1?$_List_base@GV?$allocator@G@_STL@@@_STL@@QAE@XZ ; _STL::_List_base<unsigned short,_STL::allocator<unsigned short> >::~_List_base<unsigned short,_STL::allocator<unsigned short> >
??1?$list@GV?$allocator@G@_STL@@@_STL@@QAE@XZ ENDP	; _STL::list<unsigned short,_STL::allocator<unsigned short> >::~list<unsigned short,_STL::allocator<unsigned short> >
_TEXT	ENDS
PUBLIC	?insert@?$list@GV?$allocator@G@_STL@@@_STL@@QAE?AU?$_List_iterator@GU?$_Nonconst_traits@G@_STL@@@2@U32@ABG@Z ; _STL::list<unsigned short,_STL::allocator<unsigned short> >::insert
; Function compile flags: /Ogsy
;	COMDAT ?insert@?$list@GV?$allocator@G@_STL@@@_STL@@QAE?AU?$_List_iterator@GU?$_Nonconst_traits@G@_STL@@@2@U32@ABG@Z
_TEXT	SEGMENT
___$ReturnUdt$ = 8					; size = 4
___position$ = 12					; size = 4
___x$ = 16						; size = 4
?insert@?$list@GV?$allocator@G@_STL@@@_STL@@QAE?AU?$_List_iterator@GU?$_Nonconst_traits@G@_STL@@@2@U32@ABG@Z PROC NEAR ; _STL::list<unsigned short,_STL::allocator<unsigned short> >::insert, COMDAT
; _this$ = ecx

; 299  : 
; 300  :     _Node* __tmp = _M_create_node(__x);

  00000	ff 74 24 0c	 push	 DWORD PTR ___x$[esp-4]
  00004	e8 00 00 00 00	 call	 ?_M_create_node@?$list@GV?$allocator@G@_STL@@@_STL@@IAEPAU?$_List_node@G@2@ABG@Z ; _STL::list<unsigned short,_STL::allocator<unsigned short> >::_M_create_node

; 301  :     _List_node_base* __n = __position._M_node;
; 302  :     _List_node_base* __p = __n->_M_prev;

  00009	8b 4c 24 08	 mov	 ecx, DWORD PTR ___position$[esp-4]
  0000d	8b 51 04	 mov	 edx, DWORD PTR [ecx+4]

; 303  :     __tmp->_M_next = __n;

  00010	89 08		 mov	 DWORD PTR [eax], ecx

; 304  :     __tmp->_M_prev = __p;

  00012	89 50 04	 mov	 DWORD PTR [eax+4], edx

; 305  :     __p->_M_next = __tmp;

  00015	89 02		 mov	 DWORD PTR [edx], eax

; 306  :     __n->_M_prev = __tmp;

  00017	89 41 04	 mov	 DWORD PTR [ecx+4], eax

; 307  :     return __tmp;

  0001a	8b 4c 24 04	 mov	 ecx, DWORD PTR ___$ReturnUdt$[esp-4]
  0001e	89 01		 mov	 DWORD PTR [ecx], eax
  00020	8b c1		 mov	 eax, ecx

; 308  :   }

  00022	c2 0c 00	 ret	 12			; 0000000cH
?insert@?$list@GV?$allocator@G@_STL@@@_STL@@QAE?AU?$_List_iterator@GU?$_Nonconst_traits@G@_STL@@@2@U32@ABG@Z ENDP ; _STL::list<unsigned short,_STL::allocator<unsigned short> >::insert
_TEXT	ENDS
PUBLIC	?Release@CNormalSpriteTexturePartManager@@QAEXXZ ; CNormalSpriteTexturePartManager::Release
; Function compile flags: /Ogsy
; File c:\darkeden\designed_common\project\client\cnormalspritetexturepartmanager.cpp
;	COMDAT ?Release@CNormalSpriteTexturePartManager@@QAEXXZ
_TEXT	SEGMENT
?Release@CNormalSpriteTexturePartManager@@QAEXXZ PROC NEAR ; CNormalSpriteTexturePartManager::Release, COMDAT
; _this$ = ecx

; 180  : {

  00000	55		 push	 ebp
  00001	56		 push	 esi
  00002	8b f1		 mov	 esi, ecx

; 181  : 	///*
; 182  : //	if (m_bOpen)
; 183  : //	{
; 184  : //		m_SPKFile.close();
; 185  : //		m_bOpen = false;
; 186  : //	}
; 187  : 	//*/	
; 188  : 	if (m_pData!=NULL)

  00004	33 ed		 xor	 ebp, ebp
  00006	39 6e 0c	 cmp	 DWORD PTR [esi+12], ebp
  00009	74 33		 je	 SHORT $L112338
  0000b	53		 push	 ebx

; 189  : 	{
; 190  : 		for (int i=0; i<m_nPart; i++)

  0000c	33 db		 xor	 ebx, ebx
  0000e	66 39 6e 08	 cmp	 WORD PTR [esi+8], bp
  00012	76 29		 jbe	 SHORT $L117501
  00014	57		 push	 edi
$L112336:

; 191  : 		{
; 192  : 			if (m_pData[i]!=NULL)

  00015	8b 46 0c	 mov	 eax, DWORD PTR [esi+12]
  00018	8b 3c 98	 mov	 edi, DWORD PTR [eax+ebx*4]
  0001b	3b fd		 cmp	 edi, ebp
  0001d	74 14		 je	 SHORT $L112337

; 193  : 			{
; 194  : 				delete m_pData[i];

  0001f	8b cf		 mov	 ecx, edi
  00021	e8 00 00 00 00	 call	 ??1CSpriteSurface@@QAE@XZ ; CSpriteSurface::~CSpriteSurface
  00026	57		 push	 edi
  00027	e8 00 00 00 00	 call	 ??3@YAXPAX@Z		; operator delete

; 195  : 				m_pData[i] = NULL;

  0002c	8b 46 0c	 mov	 eax, DWORD PTR [esi+12]
  0002f	59		 pop	 ecx
  00030	89 2c 98	 mov	 DWORD PTR [eax+ebx*4], ebp
$L112337:
  00033	0f b7 46 08	 movzx	 eax, WORD PTR [esi+8]
  00037	43		 inc	 ebx
  00038	3b d8		 cmp	 ebx, eax
  0003a	7c d9		 jl	 SHORT $L112336
  0003c	5f		 pop	 edi
$L117501:
  0003d	5b		 pop	 ebx
$L112338:

; 196  : 			}
; 197  : 		}
; 198  : 	}
; 199  : 
; 200  : 	if (m_pWidth != NULL)

  0003e	8b 46 2c	 mov	 eax, DWORD PTR [esi+44]
  00041	3b c5		 cmp	 eax, ebp
  00043	74 0a		 je	 SHORT $L112342

; 201  : 	{
; 202  : 		delete [] m_pWidth;

  00045	50		 push	 eax
  00046	e8 00 00 00 00	 call	 ??_V@YAXPAX@Z		; operator delete[]
  0004b	59		 pop	 ecx

; 203  : 		m_pWidth = NULL;

  0004c	89 6e 2c	 mov	 DWORD PTR [esi+44], ebp
$L112342:

; 204  : 	}
; 205  : 
; 206  : 	if (m_pHeight != NULL)

  0004f	8b 46 30	 mov	 eax, DWORD PTR [esi+48]
  00052	3b c5		 cmp	 eax, ebp
  00054	74 0a		 je	 SHORT $L112344

; 207  : 	{
; 208  : 		delete [] m_pHeight;

  00056	50		 push	 eax
  00057	e8 00 00 00 00	 call	 ??_V@YAXPAX@Z		; operator delete[]
  0005c	59		 pop	 ecx

; 209  : 		m_pHeight = NULL;

  0005d	89 6e 30	 mov	 DWORD PTR [esi+48], ebp
$L112344:

; 210  : 	}
; 211  : 
; 212  : 	DeleteRemoved();

  00060	8b ce		 mov	 ecx, esi
  00062	5e		 pop	 esi
  00063	5d		 pop	 ebp
  00064	e9 00 00 00 00	 jmp	 ?DeleteRemoved@CNormalSpriteTexturePartManager@@QAEXXZ ; CNormalSpriteTexturePartManager::DeleteRemoved
?Release@CNormalSpriteTexturePartManager@@QAEXXZ ENDP	; CNormalSpriteTexturePartManager::Release
_TEXT	ENDS
PUBLIC	?Clear@CNormalSpriteTexturePartManager@@QAEXXZ	; CNormalSpriteTexturePartManager::Clear
EXTRN	?Restore@CDirectDrawSurface@@QAE_NXZ:NEAR	; CDirectDrawSurface::Restore
; Function compile flags: /Ogsy
;	COMDAT ?Clear@CNormalSpriteTexturePartManager@@QAEXXZ
_TEXT	SEGMENT
?Clear@CNormalSpriteTexturePartManager@@QAEXXZ PROC NEAR ; CNormalSpriteTexturePartManager::Clear, COMDAT
; _this$ = ecx

; 245  : {	

  00000	53		 push	 ebx
  00001	56		 push	 esi
  00002	8b f1		 mov	 esi, ecx

; 246  : 	DeleteRemoved();

  00004	e8 00 00 00 00	 call	 ?DeleteRemoved@CNormalSpriteTexturePartManager@@QAEXXZ ; CNormalSpriteTexturePartManager::DeleteRemoved

; 247  : 
; 248  : 	// video memory ~.
; 249  : 	for (int i=0; i<m_nPart; i++)

  00009	33 db		 xor	 ebx, ebx
  0000b	66 39 5e 08	 cmp	 WORD PTR [esi+8], bx
  0000f	76 39		 jbe	 SHORT $L112408
  00011	57		 push	 edi
$L112406:

; 250  : 	{
; 251  : 		if (m_pData[i] != NULL)			

  00012	8b 46 0c	 mov	 eax, DWORD PTR [esi+12]
  00015	8b 0c 98	 mov	 ecx, DWORD PTR [eax+ebx*4]
  00018	85 c9		 test	 ecx, ecx
  0001a	74 24		 je	 SHORT $L112407

; 252  : 		{
; 253  : 			m_pData[i]->Restore();

  0001c	e8 00 00 00 00	 call	 ?Restore@CDirectDrawSurface@@QAE_NXZ ; CDirectDrawSurface::Restore

; 254  : 			delete m_pData[i];

  00021	8b 46 0c	 mov	 eax, DWORD PTR [esi+12]
  00024	8b 3c 98	 mov	 edi, DWORD PTR [eax+ebx*4]
  00027	85 ff		 test	 edi, edi
  00029	74 0e		 je	 SHORT $L117509
  0002b	8b cf		 mov	 ecx, edi
  0002d	e8 00 00 00 00	 call	 ??1CSpriteSurface@@QAE@XZ ; CSpriteSurface::~CSpriteSurface
  00032	57		 push	 edi
  00033	e8 00 00 00 00	 call	 ??3@YAXPAX@Z		; operator delete
  00038	59		 pop	 ecx
$L117509:

; 255  : 			m_pData[i] = NULL;

  00039	8b 46 0c	 mov	 eax, DWORD PTR [esi+12]
  0003c	83 24 98 00	 and	 DWORD PTR [eax+ebx*4], 0
$L112407:
  00040	0f b7 46 08	 movzx	 eax, WORD PTR [esi+8]
  00044	43		 inc	 ebx
  00045	3b d8		 cmp	 ebx, eax
  00047	7c c9		 jl	 SHORT $L112406
  00049	5f		 pop	 edi
$L112408:

; 256  : 		}
; 257  : 	}
; 258  : 
; 259  : 	// Base class Init ..
; 260  : 	// (  ,    ) 
; 261  : 	CPartManager<WORD, WORD, CSpriteSurface*>::Init( m_nIndex, m_nPart );

  0004a	33 c0		 xor	 eax, eax
  0004c	66 8b 46 08	 mov	 ax, WORD PTR [esi+8]
  00050	8b ce		 mov	 ecx, esi
  00052	50		 push	 eax
  00053	33 c0		 xor	 eax, eax
  00055	66 8b 06	 mov	 ax, WORD PTR [esi]
  00058	50		 push	 eax
  00059	e8 00 00 00 00	 call	 ?Init@?$CPartManager@GGPAVCSpriteSurface@@@@QAEXGG@Z ; CPartManager<unsigned short,unsigned short,CSpriteSurface *>::Init

; 262  : 
; 263  : 	// NULL 
; 264  : 	for (i=0; i<m_nPart; i++)

  0005e	33 c0		 xor	 eax, eax
  00060	66 39 46 08	 cmp	 WORD PTR [esi+8], ax
  00064	76 10		 jbe	 SHORT $L112414
$L112412:

; 265  : 	{
; 266  : 		m_pData[i] = NULL;

  00066	8b 4e 0c	 mov	 ecx, DWORD PTR [esi+12]
  00069	83 24 81 00	 and	 DWORD PTR [ecx+eax*4], 0
  0006d	0f b7 4e 08	 movzx	 ecx, WORD PTR [esi+8]
  00071	40		 inc	 eax
  00072	3b c1		 cmp	 eax, ecx
  00074	7c f0		 jl	 SHORT $L112412
$L112414:
  00076	5e		 pop	 esi
  00077	5b		 pop	 ebx

; 267  : 	}
; 268  : 
; 269  : }

  00078	c3		 ret	 0
?Clear@CNormalSpriteTexturePartManager@@QAEXXZ ENDP	; CNormalSpriteTexturePartManager::Clear
_TEXT	ENDS
PUBLIC	?push_back@?$list@PAVCSpriteSurface@@V?$allocator@PAVCSpriteSurface@@@_STL@@@_STL@@QAEXABQAVCSpriteSurface@@@Z ; _STL::list<CSpriteSurface *,_STL::allocator<CSpriteSurface *> >::push_back
; Function compile flags: /Ogsy
; File c:\stlport-4.6.1\stlport\stl\_list.h
;	COMDAT ?push_back@?$list@PAVCSpriteSurface@@V?$allocator@PAVCSpriteSurface@@@_STL@@@_STL@@QAEXABQAVCSpriteSurface@@@Z
_TEXT	SEGMENT
$T117523 = 8						; size = 4
___x$ = 8						; size = 4
?push_back@?$list@PAVCSpriteSurface@@V?$allocator@PAVCSpriteSurface@@@_STL@@@_STL@@QAEXABQAVCSpriteSurface@@@Z PROC NEAR ; _STL::list<CSpriteSurface *,_STL::allocator<CSpriteSurface *> >::push_back, COMDAT
; _this$ = ecx

; 345  :   void push_back(const _Tp& __x) { insert(end(), __x); }

  00000	55		 push	 ebp
  00001	8b ec		 mov	 ebp, esp
  00003	ff 75 08	 push	 DWORD PTR ___x$[ebp]
  00006	8b 11		 mov	 edx, DWORD PTR [ecx]
  00008	51		 push	 ecx
  00009	8b c4		 mov	 eax, esp
  0000b	89 10		 mov	 DWORD PTR [eax], edx
  0000d	8d 45 08	 lea	 eax, DWORD PTR $T117523[ebp]
  00010	50		 push	 eax
  00011	e8 00 00 00 00	 call	 ?insert@?$list@PAVCSpriteSurface@@V?$allocator@PAVCSpriteSurface@@@_STL@@@_STL@@QAE?AU?$_List_iterator@PAVCSpriteSurface@@U?$_Nonconst_traits@PAVCSpriteSurface@@@_STL@@@2@U32@ABQAVCSpriteSurface@@@Z ; _STL::list<CSpriteSurface *,_STL::allocator<CSpriteSurface *> >::insert
  00016	5d		 pop	 ebp
  00017	c2 04 00	 ret	 4
?push_back@?$list@PAVCSpriteSurface@@V?$allocator@PAVCSpriteSurface@@@_STL@@@_STL@@QAEXABQAVCSpriteSurface@@@Z ENDP ; _STL::list<CSpriteSurface *,_STL::allocator<CSpriteSurface *> >::push_back
_TEXT	ENDS
PUBLIC	??0?$CPartManager@GGPAVCSpriteSurface@@@@QAE@XZ	; CPartManager<unsigned short,unsigned short,CSpriteSurface *>::CPartManager<unsigned short,unsigned short,CSpriteSurface *>
; Function compile flags: /Ogsy
; File c:\darkeden\designed_common\project\client\cpartmanager.h
;	COMDAT ??0?$CPartManager@GGPAVCSpriteSurface@@@@QAE@XZ
_TEXT	SEGMENT
$T117543 = -1						; size = 1
??0?$CPartManager@GGPAVCSpriteSurface@@@@QAE@XZ PROC NEAR ; CPartManager<unsigned short,unsigned short,CSpriteSurface *>::CPartManager<unsigned short,unsigned short,CSpriteSurface *>, COMDAT
; _this$ = ecx

; 162  : {

  00000	51		 push	 ecx
  00001	56		 push	 esi
  00002	8b f1		 mov	 esi, ecx
  00004	8d 44 24 07	 lea	 eax, DWORD PTR $T117543[esp+8]
  00008	50		 push	 eax
  00009	8d 4e 18	 lea	 ecx, DWORD PTR [esi+24]
  0000c	e8 00 00 00 00	 call	 ??0?$_List_base@GV?$allocator@G@_STL@@@_STL@@QAE@ABV?$allocator@G@1@@Z ; _STL::_List_base<unsigned short,_STL::allocator<unsigned short> >::_List_base<unsigned short,_STL::allocator<unsigned short> >

; 163  : 	m_nIndex = 0;
; 164  : 	m_pPartIndex = NULL;
; 165  : 
; 166  : 	m_nPart = 0;
; 167  : 	m_nPartUsed = 0;
; 168  : 	m_pData = NULL;
; 169  : 	m_pParentIndex = NULL;
; 170  : 	m_pLastTime = NULL;
; 171  : 
; 172  : 	// LRU
; 173  : 	m_pPartIterator = NULL;
; 174  : 
; 175  : 	// Null
; 176  : 	m_IndexNULL	= (IndexType)0xFFFFFFFF;

  00011	66 81 4e 20 ff
	ff		 or	 WORD PTR [esi+32], 65535 ; 0000ffffH
  00017	33 c0		 xor	 eax, eax

; 177  : 	m_PartIndexNULL = (PartIndexType)0xFFFFFFFF;

  00019	66 81 4e 22 ff
	ff		 or	 WORD PTR [esi+34], 65535 ; 0000ffffH
  0001f	66 89 06	 mov	 WORD PTR [esi], ax
  00022	89 46 04	 mov	 DWORD PTR [esi+4], eax
  00025	66 89 46 08	 mov	 WORD PTR [esi+8], ax
  00029	66 89 46 0a	 mov	 WORD PTR [esi+10], ax
  0002d	89 46 0c	 mov	 DWORD PTR [esi+12], eax
  00030	89 46 10	 mov	 DWORD PTR [esi+16], eax
  00033	89 46 14	 mov	 DWORD PTR [esi+20], eax
  00036	89 46 1c	 mov	 DWORD PTR [esi+28], eax

; 178  : 
; 179  : 	// timer
; 180  : 	m_Counter = 0;

  00039	89 46 24	 mov	 DWORD PTR [esi+36], eax

; 181  : }

  0003c	8b c6		 mov	 eax, esi
  0003e	5e		 pop	 esi
  0003f	59		 pop	 ecx
  00040	c3		 ret	 0
??0?$CPartManager@GGPAVCSpriteSurface@@@@QAE@XZ ENDP	; CPartManager<unsigned short,unsigned short,CSpriteSurface *>::CPartManager<unsigned short,unsigned short,CSpriteSurface *>
_TEXT	ENDS
PUBLIC	??1?$CPartManager@GGPAVCSpriteSurface@@@@QAE@XZ	; CPartManager<unsigned short,unsigned short,CSpriteSurface *>::~CPartManager<unsigned short,unsigned short,CSpriteSurface *>
;	COMDAT xdata$x
; File c:\stlport-4.6.1\stlport\stl\_list.h
xdata$x	SEGMENT
$T117568 DD	0ffffffffH
	DD	FLAT:$L117559
$T117566 DD	019930520H
	DD	01H
	DD	FLAT:$T117568
	DD	2 DUP(00H)
	DD	2 DUP(00H)
; Function compile flags: /Ogsy
; File c:\darkeden\designed_common\project\client\cpartmanager.h
xdata$x	ENDS
;	COMDAT ??1?$CPartManager@GGPAVCSpriteSurface@@@@QAE@XZ
_TEXT	SEGMENT
_this$ = -16						; size = 4
__$EHRec$ = -12						; size = 12
??1?$CPartManager@GGPAVCSpriteSurface@@@@QAE@XZ PROC NEAR ; CPartManager<unsigned short,unsigned short,CSpriteSurface *>::~CPartManager<unsigned short,unsigned short,CSpriteSurface *>, COMDAT
; _this$ = ecx

; 185  : {

  00000	b8 00 00 00 00	 mov	 eax, __ehhandler$??1?$CPartManager@GGPAVCSpriteSurface@@@@QAE@XZ
  00005	e8 00 00 00 00	 call	 __EH_prolog
  0000a	51		 push	 ecx
  0000b	56		 push	 esi
  0000c	8b f1		 mov	 esi, ecx
  0000e	89 75 f0	 mov	 DWORD PTR _this$[ebp], esi
  00011	83 65 fc 00	 and	 DWORD PTR __$EHRec$[ebp+8], 0

; 186  : 	Release();

  00015	e8 00 00 00 00	 call	 ?Release@?$CPartManager@GGPAVCSpriteSurface@@@@QAEXXZ ; CPartManager<unsigned short,unsigned short,CSpriteSurface *>::Release

; 187  : }

  0001a	83 4d fc ff	 or	 DWORD PTR __$EHRec$[ebp+8], -1
  0001e	8d 4e 18	 lea	 ecx, DWORD PTR [esi+24]
  00021	e8 00 00 00 00	 call	 ??1?$_List_base@GV?$allocator@G@_STL@@@_STL@@QAE@XZ ; _STL::_List_base<unsigned short,_STL::allocator<unsigned short> >::~_List_base<unsigned short,_STL::allocator<unsigned short> >
  00026	8b 4d f4	 mov	 ecx, DWORD PTR __$EHRec$[ebp]
  00029	5e		 pop	 esi
  0002a	64 89 0d 00 00
	00 00		 mov	 DWORD PTR fs:__except_list, ecx
  00031	c9		 leave
  00032	c3		 ret	 0
_TEXT	ENDS
;	COMDAT text$x
text$x	SEGMENT
$L117559:
  00000	8b 4d f0	 mov	 ecx, DWORD PTR _this$[ebp]
  00003	83 c1 18	 add	 ecx, 24			; 00000018H
  00006	e9 00 00 00 00	 jmp	 ??1?$list@GV?$allocator@G@_STL@@@_STL@@QAE@XZ ; _STL::list<unsigned short,_STL::allocator<unsigned short> >::~list<unsigned short,_STL::allocator<unsigned short> >
__ehhandler$??1?$CPartManager@GGPAVCSpriteSurface@@@@QAE@XZ:
  0000b	b8 00 00 00 00	 mov	 eax, OFFSET FLAT:$T117566
  00010	e9 00 00 00 00	 jmp	 ___CxxFrameHandler
text$x	ENDS
??1?$CPartManager@GGPAVCSpriteSurface@@@@QAE@XZ ENDP	; CPartManager<unsigned short,unsigned short,CSpriteSurface *>::~CPartManager<unsigned short,unsigned short,CSpriteSurface *>
PUBLIC	?push_front@?$list@GV?$allocator@G@_STL@@@_STL@@QAEXABG@Z ; _STL::list<unsigned short,_STL::allocator<unsigned short> >::push_front
; Function compile flags: /Ogsy
; File c:\stlport-4.6.1\stlport\stl\_list.h
;	COMDAT ?push_front@?$list@GV?$allocator@G@_STL@@@_STL@@QAEXABG@Z
_TEXT	SEGMENT
$T117574 = 8						; size = 4
___x$ = 8						; size = 4
?push_front@?$list@GV?$allocator@G@_STL@@@_STL@@QAEXABG@Z PROC NEAR ; _STL::list<unsigned short,_STL::allocator<unsigned short> >::push_front, COMDAT
; _this$ = ecx

; 344  :   void push_front(const _Tp& __x) { insert(begin(), __x); }

  00000	55		 push	 ebp
  00001	8b ec		 mov	 ebp, esp
  00003	ff 75 08	 push	 DWORD PTR ___x$[ebp]
  00006	8b 11		 mov	 edx, DWORD PTR [ecx]
  00008	8b 12		 mov	 edx, DWORD PTR [edx]
  0000a	51		 push	 ecx
  0000b	8b c4		 mov	 eax, esp
  0000d	89 10		 mov	 DWORD PTR [eax], edx
  0000f	8d 45 08	 lea	 eax, DWORD PTR $T117574[ebp]
  00012	50		 push	 eax
  00013	e8 00 00 00 00	 call	 ?insert@?$list@GV?$allocator@G@_STL@@@_STL@@QAE?AU?$_List_iterator@GU?$_Nonconst_traits@G@_STL@@@2@U32@ABG@Z ; _STL::list<unsigned short,_STL::allocator<unsigned short> >::insert
  00018	5d		 pop	 ebp
  00019	c2 04 00	 ret	 4
?push_front@?$list@GV?$allocator@G@_STL@@@_STL@@QAEXABG@Z ENDP ; _STL::list<unsigned short,_STL::allocator<unsigned short> >::push_front
_TEXT	ENDS
PUBLIC	??1CNormalSpriteTexturePartManager@@QAE@XZ	; CNormalSpriteTexturePartManager::~CNormalSpriteTexturePartManager
;	COMDAT xdata$x
xdata$x	SEGMENT
$T117604 DD	0ffffffffH
	DD	FLAT:$L117594
	DD	00H
	DD	FLAT:$L117595
$T117602 DD	019930520H
	DD	02H
	DD	FLAT:$T117604
	DD	2 DUP(00H)
	DD	2 DUP(00H)
; Function compile flags: /Ogsy
; File c:\darkeden\designed_common\project\client\cnormalspritetexturepartmanager.cpp
xdata$x	ENDS
;	COMDAT ??1CNormalSpriteTexturePartManager@@QAE@XZ
_TEXT	SEGMENT
_this$ = -16						; size = 4
__$EHRec$ = -12						; size = 12
??1CNormalSpriteTexturePartManager@@QAE@XZ PROC NEAR	; CNormalSpriteTexturePartManager::~CNormalSpriteTexturePartManager, COMDAT
; _this$ = ecx

; 32   : {

  00000	b8 00 00 00 00	 mov	 eax, __ehhandler$??1CNormalSpriteTexturePartManager@@QAE@XZ
  00005	e8 00 00 00 00	 call	 __EH_prolog
  0000a	51		 push	 ecx
  0000b	56		 push	 esi
  0000c	8b f1		 mov	 esi, ecx
  0000e	89 75 f0	 mov	 DWORD PTR _this$[ebp], esi
  00011	c7 45 fc 01 00
	00 00		 mov	 DWORD PTR __$EHRec$[ebp+8], 1

; 33   : 	Release();

  00018	e8 00 00 00 00	 call	 ?Release@CNormalSpriteTexturePartManager@@QAEXXZ ; CNormalSpriteTexturePartManager::Release

; 34   : }

  0001d	8d 4e 34	 lea	 ecx, DWORD PTR [esi+52]
  00020	c6 45 fc 00	 mov	 BYTE PTR __$EHRec$[ebp+8], 0
  00024	e8 00 00 00 00	 call	 ??1?$_List_base@PAVCSpriteSurface@@V?$allocator@PAVCSpriteSurface@@@_STL@@@_STL@@QAE@XZ ; _STL::_List_base<CSpriteSurface *,_STL::allocator<CSpriteSurface *> >::~_List_base<CSpriteSurface *,_STL::allocator<CSpriteSurface *> >
  00029	83 4d fc ff	 or	 DWORD PTR __$EHRec$[ebp+8], -1
  0002d	8b ce		 mov	 ecx, esi
  0002f	e8 00 00 00 00	 call	 ??1?$CPartManager@GGPAVCSpriteSurface@@@@QAE@XZ ; CPartManager<unsigned short,unsigned short,CSpriteSurface *>::~CPartManager<unsigned short,unsigned short,CSpriteSurface *>
  00034	8b 4d f4	 mov	 ecx, DWORD PTR __$EHRec$[ebp]
  00037	5e		 pop	 esi
  00038	64 89 0d 00 00
	00 00		 mov	 DWORD PTR fs:__except_list, ecx
  0003f	c9		 leave
  00040	c3		 ret	 0
_TEXT	ENDS
;	COMDAT text$x
text$x	SEGMENT
$L117594:
  00000	8b 4d f0	 mov	 ecx, DWORD PTR _this$[ebp]
  00003	e9 00 00 00 00	 jmp	 ??1?$CPartManager@GGPAVCSpriteSurface@@@@QAE@XZ ; CPartManager<unsigned short,unsigned short,CSpriteSurface *>::~CPartManager<unsigned short,unsigned short,CSpriteSurface *>
$L117595:
  00008	8b 4d f0	 mov	 ecx, DWORD PTR _this$[ebp]
  0000b	83 c1 34	 add	 ecx, 52			; 00000034H
  0000e	e9 00 00 00 00	 jmp	 ??1?$list@PAVCSpriteSurface@@V?$allocator@PAVCSpriteSurface@@@_STL@@@_STL@@QAE@XZ ; _STL::list<CSpriteSurface *,_STL::allocator<CSpriteSurface *> >::~list<CSpriteSurface *,_STL::allocator<CSpriteSurface *> >
__ehhandler$??1CNormalSpriteTexturePartManager@@QAE@XZ:
  00013	b8 00 00 00 00	 mov	 eax, OFFSET FLAT:$T117602
  00018	e9 00 00 00 00	 jmp	 ___CxxFrameHandler
text$x	ENDS
??1CNormalSpriteTexturePartManager@@QAE@XZ ENDP		; CNormalSpriteTexturePartManager::~CNormalSpriteTexturePartManager
PUBLIC	?Init@CNormalSpriteTexturePartManager@@QAEXPAV?$CTypePack2@VCSprite@@VCSprite555@@VCSprite565@@@@G@Z ; CNormalSpriteTexturePartManager::Init
; Function compile flags: /Ogsy
;	COMDAT ?Init@CNormalSpriteTexturePartManager@@QAEXPAV?$CTypePack2@VCSprite@@VCSprite555@@VCSprite565@@@@G@Z
_TEXT	SEGMENT
_pSPK$ = 8						; size = 4
_partSize$ = 12						; size = 2
?Init@CNormalSpriteTexturePartManager@@QAEXPAV?$CTypePack2@VCSprite@@VCSprite555@@VCSprite565@@@@G@Z PROC NEAR ; CNormalSpriteTexturePartManager::Init, COMDAT
; _this$ = ecx

; 53   : {

  00000	56		 push	 esi
  00001	57		 push	 edi
  00002	8b f1		 mov	 esi, ecx

; 54   : 	Release();

  00004	e8 00 00 00 00	 call	 ?Release@CNormalSpriteTexturePartManager@@QAEXXZ ; CNormalSpriteTexturePartManager::Release

; 55   : 
; 56   : 	///*
; 57   : 	// Index File Load.
; 58   : //	std::ifstream indexFile(indexFilename, ios::binary);
; 59   : //	m_SPKIndex.LoadFromFile( indexFile );
; 60   : //	indexFile.close();
; 61   : //
; 62   : //	// SPK  . (..)
; 63   : //	m_SPK.Init( m_SPKIndex.GetSize());//, CDirectDraw::Is565() );
; 64   : //
; 65   : //	// SPK File .
; 66   : //	m_SPKFile.open(spkFilename, ios::binary);
; 67   : //	
; 68   : //	TYPE_SPRITEID size;
; 69   : //	m_SPKFile.read((char*)&size, SIZE_SPRITEID);
; 70   : //
; 71   : //	m_SPK.LoadFromFileRunning(spkFilename);
; 72   : 	m_pSPK = pSPK;

  00009	8b 4c 24 0c	 mov	 ecx, DWORD PTR _pSPK$[esp+4]
  0000d	89 4e 28	 mov	 DWORD PTR [esi+40], ecx

; 73   : 	int allSize = m_pSPK->GetSize(); 

  00010	8b 01		 mov	 eax, DWORD PTR [ecx]
  00012	ff 50 0c	 call	 DWORD PTR [eax+12]

; 74   : 	//*/
; 75   : 
; 76   : 
; 77   : 	//m_pSPK = pSPK;
; 78   : 
; 79   : 	//int allSize = pSPK->GetSize();
; 80   : 
; 81   : 	// Base class Init ..
; 82   : 	// (  ,    ) 
; 83   : 	CPartManager<WORD, WORD, CSpriteSurface*>::Init( allSize, partSize );

  00015	ff 74 24 10	 push	 DWORD PTR _partSize$[esp+4]
  00019	8b f8		 mov	 edi, eax
  0001b	57		 push	 edi
  0001c	8b ce		 mov	 ecx, esi
  0001e	e8 00 00 00 00	 call	 ?Init@?$CPartManager@GGPAVCSpriteSurface@@@@QAEXGG@Z ; CPartManager<unsigned short,unsigned short,CSpriteSurface *>::Init

; 84   : 	
; 85   : 	// NULL 
; 86   : 	for (int i=0; i<m_nPart; i++)

  00023	33 c0		 xor	 eax, eax
  00025	66 39 46 08	 cmp	 WORD PTR [esi+8], ax
  00029	76 10		 jbe	 SHORT $L112323
$L112321:

; 87   : 	{
; 88   : 		m_pData[i] = NULL;

  0002b	8b 4e 0c	 mov	 ecx, DWORD PTR [esi+12]
  0002e	83 24 81 00	 and	 DWORD PTR [ecx+eax*4], 0
  00032	0f b7 4e 08	 movzx	 ecx, WORD PTR [esi+8]
  00036	40		 inc	 eax
  00037	3b c1		 cmp	 eax, ecx
  00039	7c f0		 jl	 SHORT $L112321
$L112323:
  0003b	53		 push	 ebx

; 89   : 	}
; 90   : 
; 91   : 	
; 92   : 	m_pWidth = new int [allSize];

  0003c	8b df		 mov	 ebx, edi
  0003e	c1 e3 02	 shl	 ebx, 2
  00041	53		 push	 ebx
  00042	e8 00 00 00 00	 call	 ??_U@YAPAXI@Z		; operator new[]

; 93   : 	m_pHeight = new int [allSize];

  00047	53		 push	 ebx
  00048	89 46 2c	 mov	 DWORD PTR [esi+44], eax
  0004b	e8 00 00 00 00	 call	 ??_U@YAPAXI@Z		; operator new[]
  00050	59		 pop	 ecx
  00051	89 46 30	 mov	 DWORD PTR [esi+48], eax
  00054	59		 pop	 ecx

; 94   : 
; 95   : 	for (i=0; i<allSize; i++)

  00055	33 c0		 xor	 eax, eax
  00057	85 ff		 test	 edi, edi
  00059	5b		 pop	 ebx
  0005a	7e 13		 jle	 SHORT $L112330
$L112328:

; 96   : 	{
; 97   : 		m_pWidth[i] = 0;

  0005c	8b 4e 2c	 mov	 ecx, DWORD PTR [esi+44]
  0005f	83 24 81 00	 and	 DWORD PTR [ecx+eax*4], 0

; 98   : 		m_pHeight[i] = 0;

  00063	8b 4e 30	 mov	 ecx, DWORD PTR [esi+48]
  00066	83 24 81 00	 and	 DWORD PTR [ecx+eax*4], 0
  0006a	40		 inc	 eax
  0006b	3b c7		 cmp	 eax, edi
  0006d	7c ed		 jl	 SHORT $L112328
$L112330:
  0006f	5f		 pop	 edi
  00070	5e		 pop	 esi

; 99   : 	}
; 100  : 
; 101  : 	/*
; 102  : 	int spWidth, spHeight;
; 103  : 	int width, height;
; 104  : 
; 105  : 	if (CDirect3D::IsTexturePow2())
; 106  : 	{
; 107  : 		for (i=0; i<allSize; i++)
; 108  : 		{
; 109  : 			if ((*pSPK)[i].IsInit())
; 110  : 			{
; 111  : 				spWidth = (*pSPK)[i].GetWidth();
; 112  : 				spHeight = (*pSPK)[i].GetHeight();
; 113  : 				width = 1;
; 114  : 				height = 1;
; 115  : 
; 116  : 				// width height spWidth spHeight  .
; 117  : 				// square .
; 118  : 				while (width < spWidth || height < spHeight)
; 119  : 				{
; 120  : 					width <<= 1;
; 121  : 					height <<= 1;
; 122  : 				}
; 123  : 
; 124  : 				m_pWidth[i] = width;
; 125  : 				m_pHeight[i] = height;
; 126  : 			}
; 127  : 			else
; 128  : 			{
; 129  : 				m_pWidth[i] = 0;
; 130  : 				m_pHeight[i] = 0;
; 131  : 			}
; 132  : 		}
; 133  : 	}
; 134  : 	else
; 135  : 	{
; 136  : 		for (i=0; i<allSize; i++)
; 137  : 		{
; 138  : 			if ((*pSPK)[i].IsInit())
; 139  : 			{
; 140  : 				spWidth = (*pSPK)[i].GetWidth();
; 141  : 				spHeight = (*pSPK)[i].GetHeight();
; 142  : 				width = spWidth;
; 143  : 				height = spHeight;
; 144  : 
; 145  : 				//    Square .
; 146  : 				if (CDirect3D::IsTextureSquareOnly())
; 147  : 				{				
; 148  : 					if (width > height)
; 149  : 					{
; 150  : 						height = width;				
; 151  : 					}
; 152  : 					else if (width < height)
; 153  : 					{
; 154  : 						width = height;				
; 155  : 					}	
; 156  : 				}
; 157  : 
; 158  : 				m_pWidth[i] = width;
; 159  : 				m_pHeight[i] = height;
; 160  : 			}
; 161  : 			else
; 162  : 			{
; 163  : 				m_pWidth[i] = 0;
; 164  : 				m_pHeight[i] = 0;
; 165  : 			}
; 166  : 		}
; 167  : 	}
; 168  : 	*/
; 169  : 
; 170  : // 	m_bOpen = true;
; 171  : }

  00071	c2 08 00	 ret	 8
?Init@CNormalSpriteTexturePartManager@@QAEXPAV?$CTypePack2@VCSprite@@VCSprite555@@VCSprite565@@@@G@Z ENDP ; CNormalSpriteTexturePartManager::Init
_TEXT	ENDS
PUBLIC	?SetData@?$CPartManager@GGPAVCSpriteSurface@@@@QAEGGABQAVCSpriteSurface@@AAPAV2@@Z ; CPartManager<unsigned short,unsigned short,CSpriteSurface *>::SetData
; Function compile flags: /Ogsy
; File c:\darkeden\designed_common\project\client\cpartmanager.h
;	COMDAT ?SetData@?$CPartManager@GGPAVCSpriteSurface@@@@QAEGGABQAVCSpriteSurface@@AAPAV2@@Z
_TEXT	SEGMENT
_oldIndex$ = -8						; size = 2
_newPartIndex$ = -4					; size = 2
$T117620 = 8						; size = 4
_index$ = 8						; size = 2
_data$ = 12						; size = 4
_oldData$ = 16						; size = 4
?SetData@?$CPartManager@GGPAVCSpriteSurface@@@@QAEGGABQAVCSpriteSurface@@AAPAV2@@Z PROC NEAR ; CPartManager<unsigned short,unsigned short,CSpriteSurface *>::SetData, COMDAT
; _this$ = ecx

; 355  : {

  00000	55		 push	 ebp
  00001	8b ec		 mov	 ebp, esp
  00003	51		 push	 ecx
  00004	51		 push	 ecx
  00005	53		 push	 ebx
  00006	56		 push	 esi
  00007	57		 push	 edi
  00008	8b f1		 mov	 esi, ecx

; 356  : 	//  
; 357  : 	PartIndexType	newPartIndex = GetLRU();

  0000a	e8 00 00 00 00	 call	 ?GetLRU@?$CPartManager@GGPAVCSpriteSurface@@@@IBEGXZ ; CPartManager<unsigned short,unsigned short,CSpriteSurface *>::GetLRU

; 358  : 
; 359  : 	//bool bReplace = false;
; 360  : 	//------------------------------------------------------------
; 361  : 	//   
; 362  : 	//------------------------------------------------------------	
; 363  : 	IndexType oldIndex = m_pParentIndex[newPartIndex];

  0000f	8b 56 10	 mov	 edx, DWORD PTR [esi+16]
  00012	0f b7 c8	 movzx	 ecx, ax
  00015	0f b7 14 4a	 movzx	 edx, WORD PTR [edx+ecx*2]

; 364  : 	if (oldIndex != m_IndexNULL)

  00019	66 3b 56 20	 cmp	 dx, WORD PTR [esi+32]
  0001d	89 45 fc	 mov	 DWORD PTR _newPartIndex$[ebp], eax
  00020	89 55 f8	 mov	 DWORD PTR _oldIndex$[ebp], edx
  00023	74 24		 je	 SHORT $L112953

; 365  : 	{
; 366  : 		//  PartIndex  index null .		
; 367  : 		m_pPartIndex[oldIndex] = m_PartIndexNULL;

  00025	8b 7e 04	 mov	 edi, DWORD PTR [esi+4]
  00028	66 8b 5e 22	 mov	 bx, WORD PTR [esi+34]
  0002c	0f b7 d2	 movzx	 edx, dx
  0002f	66 89 1c 57	 mov	 WORD PTR [edi+edx*2], bx

; 368  : 		m_pParentIndex[newPartIndex] = m_IndexNULL;

  00033	8b 56 10	 mov	 edx, DWORD PTR [esi+16]
  00036	66 8b 7e 20	 mov	 di, WORD PTR [esi+32]
  0003a	66 89 3c 4a	 mov	 WORD PTR [edx+ecx*2], di

; 369  : 
; 370  : 		//   .
; 371  : 		oldData = m_pData[newPartIndex];

  0003e	8b 56 0c	 mov	 edx, DWORD PTR [esi+12]
  00041	8b 14 8a	 mov	 edx, DWORD PTR [edx+ecx*4]
  00044	8b 7d 10	 mov	 edi, DWORD PTR _oldData$[ebp]
  00047	89 17		 mov	 DWORD PTR [edi], edx
$L112953:

; 372  : 
; 373  : 		//bReplace = true;
; 374  : 	}
; 375  : 
; 376  : 	//------------------------------------------------------------
; 377  : 	//  
; 378  : 	//------------------------------------------------------------
; 379  : 	// link 
; 380  : 	m_pPartIndex[index] = newPartIndex;

  00049	66 8b 55 08	 mov	 dx, WORD PTR _index$[ebp]
  0004d	8b 5e 04	 mov	 ebx, DWORD PTR [esi+4]
  00050	0f b7 fa	 movzx	 edi, dx
  00053	66 89 04 7b	 mov	 WORD PTR [ebx+edi*2], ax

; 381  : 	m_pParentIndex[newPartIndex] = index;

  00057	8b 46 10	 mov	 eax, DWORD PTR [esi+16]
  0005a	66 89 14 48	 mov	 WORD PTR [eax+ecx*2], dx

; 382  : 
; 383  : 	// data 
; 384  : 	m_pData[newPartIndex] = data;

  0005e	8b 55 0c	 mov	 edx, DWORD PTR _data$[ebp]
  00061	8b 12		 mov	 edx, DWORD PTR [edx]
  00063	8b c1		 mov	 eax, ecx
  00065	8b 4e 0c	 mov	 ecx, DWORD PTR [esi+12]
  00068	c1 e0 02	 shl	 eax, 2
  0006b	89 14 08	 mov	 DWORD PTR [eax+ecx], edx

; 385  : 
; 386  : 	//    
; 387  : 	m_pLastTime[newPartIndex] = m_Counter++;

  0006e	8b 4e 14	 mov	 ecx, DWORD PTR [esi+20]
  00071	8b 56 24	 mov	 edx, DWORD PTR [esi+36]
  00074	89 14 08	 mov	 DWORD PTR [eax+ecx], edx
  00077	ff 46 24	 inc	 DWORD PTR [esi+36]

; 388  : 
; 389  : 	//------------------------------------------------------------
; 390  : 	// LRU list
; 391  : 	//------------------------------------------------------------
; 392  : 	// front    .
; 393  : 	// m_pPartIterator[]  partIndex iterator .
; 394  : 	if (m_pPartIterator[newPartIndex]!=m_listLRU.end())

  0007a	8b 4e 1c	 mov	 ecx, DWORD PTR [esi+28]
  0007d	8b 04 08	 mov	 eax, DWORD PTR [eax+ecx]
  00080	8d 7e 18	 lea	 edi, DWORD PTR [esi+24]
  00083	3b 07		 cmp	 eax, DWORD PTR [edi]
  00085	74 10		 je	 SHORT $L112955

; 395  : 	{
; 396  : 		m_listLRU.erase( m_pPartIterator[newPartIndex] );		// 

  00087	51		 push	 ecx
  00088	8b cc		 mov	 ecx, esp
  0008a	89 01		 mov	 DWORD PTR [ecx], eax
  0008c	8d 45 08	 lea	 eax, DWORD PTR $T117620[ebp]
  0008f	50		 push	 eax
  00090	8b cf		 mov	 ecx, edi
  00092	e8 00 00 00 00	 call	 ?erase@?$list@GV?$allocator@G@_STL@@@_STL@@QAE?AU?$_List_iterator@GU?$_Nonconst_traits@G@_STL@@@2@U32@@Z ; _STL::list<unsigned short,_STL::allocator<unsigned short> >::erase
$L112955:

; 397  : 	}
; 398  : 	m_listLRU.push_front( newPartIndex );

  00097	8d 45 fc	 lea	 eax, DWORD PTR _newPartIndex$[ebp]
  0009a	50		 push	 eax
  0009b	8b cf		 mov	 ecx, edi
  0009d	e8 00 00 00 00	 call	 ?push_front@?$list@GV?$allocator@G@_STL@@@_STL@@QAEXABG@Z ; _STL::list<unsigned short,_STL::allocator<unsigned short> >::push_front

; 399  : 	m_pPartIterator[newPartIndex] = m_listLRU.begin();

  000a2	8b 07		 mov	 eax, DWORD PTR [edi]
  000a4	0f b7 4d fc	 movzx	 ecx, WORD PTR _newPartIndex$[ebp]
  000a8	8b 00		 mov	 eax, DWORD PTR [eax]
  000aa	8b 56 1c	 mov	 edx, DWORD PTR [esi+28]
  000ad	89 04 8a	 mov	 DWORD PTR [edx+ecx*4], eax

; 400  : 	
; 401  : 	//---------------------------------------------------
; 402  : 	// [ TEST CODE ]
; 403  : 	/*
; 404  : 	PARTINDEX_LIST_ITERATOR	iIndex = m_listLRU.begin();
; 405  : 
; 406  : 	char str[1024] = "[SetData] ";
; 407  : 	char str2[256];
; 408  : 	while (iIndex != m_listLRU.end())
; 409  : 	{
; 410  : 		sprintf(str2, "%d ", *iIndex);
; 411  : 		strcat(str, str2);
; 412  : 
; 413  : 		iIndex++;
; 414  : 	}
; 415  : 	DEBUG_ADD(str);
; 416  : 	*/
; 417  : 	//---------------------------------------------------
; 418  : 	
; 419  : 	//   
; 420  : 	if (m_nPartUsed < m_nPart) 
; 421  : 		m_nPartUsed++;

  000b0	33 c0		 xor	 eax, eax
  000b2	66 8b 46 0a	 mov	 ax, WORD PTR [esi+10]
  000b6	66 3b 46 08	 cmp	 ax, WORD PTR [esi+8]
  000ba	73 05		 jae	 SHORT $L112959
  000bc	40		 inc	 eax
  000bd	66 89 46 0a	 mov	 WORD PTR [esi+10], ax
$L112959:

; 422  : 
; 423  : 	//return bReplace;
; 424  : 
; 425  : 	return oldIndex;

  000c1	66 8b 45 f8	 mov	 ax, WORD PTR _oldIndex$[ebp]

; 426  : }

  000c5	5f		 pop	 edi
  000c6	5e		 pop	 esi
  000c7	5b		 pop	 ebx
  000c8	c9		 leave
  000c9	c2 0c 00	 ret	 12			; 0000000cH
?SetData@?$CPartManager@GGPAVCSpriteSurface@@@@QAEGGABQAVCSpriteSurface@@AAPAV2@@Z ENDP ; CPartManager<unsigned short,unsigned short,CSpriteSurface *>::SetData
_TEXT	ENDS
PUBLIC	?GetData@?$CPartManager@GGPAVCSpriteSurface@@@@QAE_NGAAPAVCSpriteSurface@@@Z ; CPartManager<unsigned short,unsigned short,CSpriteSurface *>::GetData
; Function compile flags: /Ogsy
;	COMDAT ?GetData@?$CPartManager@GGPAVCSpriteSurface@@@@QAE_NGAAPAVCSpriteSurface@@@Z
_TEXT	SEGMENT
tv270 = -16						; size = 4
$T117672 = -16						; size = 4
_maxTimeIndex$112977 = -12				; size = 4
_leastTimeIndex$112976 = -8				; size = 4
tv362 = -4						; size = 4
_partIndex$ = 8						; size = 2
_i$112978 = 8						; size = 4
_index$ = 8						; size = 2
_data$ = 12						; size = 4
?GetData@?$CPartManager@GGPAVCSpriteSurface@@@@QAE_NGAAPAVCSpriteSurface@@@Z PROC NEAR ; CPartManager<unsigned short,unsigned short,CSpriteSurface *>::GetData, COMDAT
; _this$ = ecx

; 438  : {

  00000	55		 push	 ebp
  00001	8b ec		 mov	 ebp, esp
  00003	83 ec 10	 sub	 esp, 16			; 00000010H

; 439  : 	PartIndexType partIndex = m_pPartIndex[index];

  00006	0f b7 45 08	 movzx	 eax, WORD PTR _index$[ebp]
  0000a	53		 push	 ebx
  0000b	56		 push	 esi
  0000c	8b f1		 mov	 esi, ecx
  0000e	8b 4e 04	 mov	 ecx, DWORD PTR [esi+4]
  00011	0f b7 04 41	 movzx	 eax, WORD PTR [ecx+eax*2]

; 440  : 
; 441  : 	//------------------------------------------------------
; 442  : 	//  Data   return.
; 443  : 	//------------------------------------------------------
; 444  : 	if (partIndex==m_PartIndexNULL)

  00015	66 3b 46 22	 cmp	 ax, WORD PTR [esi+34]
  00019	57		 push	 edi
  0001a	89 45 08	 mov	 DWORD PTR _partIndex$[ebp], eax
  0001d	75 07		 jne	 SHORT $L112969

; 445  : 	{
; 446  : 		return false;

  0001f	32 c0		 xor	 al, al
  00021	e9 e7 00 00 00	 jmp	 $L112967
$L112969:

; 447  : 	}
; 448  : 
; 449  : 	//   check
; 450  : 	m_pLastTime[partIndex] = m_Counter++;

  00026	8b 4e 14	 mov	 ecx, DWORD PTR [esi+20]
  00029	8b 56 24	 mov	 edx, DWORD PTR [esi+36]
  0002c	0f b7 c0	 movzx	 eax, ax
  0002f	c1 e0 02	 shl	 eax, 2
  00032	89 14 08	 mov	 DWORD PTR [eax+ecx], edx
  00035	ff 46 24	 inc	 DWORD PTR [esi+36]

; 451  : 
; 452  : 	//------------------------------------------------------
; 453  : 	// LRU list  partIndex 
; 454  : 	//     .
; 455  : 	//------------------------------------------------------
; 456  : 	// iterator   .
; 457  : 	if (m_pPartIterator[partIndex]!=m_listLRU.end())

  00038	8b 4e 1c	 mov	 ecx, DWORD PTR [esi+28]
  0003b	8b 04 08	 mov	 eax, DWORD PTR [eax+ecx]
  0003e	8d 7e 18	 lea	 edi, DWORD PTR [esi+24]
  00041	3b 07		 cmp	 eax, DWORD PTR [edi]
  00043	74 10		 je	 SHORT $L112971

; 458  : 	{
; 459  : 		m_listLRU.erase( m_pPartIterator[partIndex] );		// 

  00045	51		 push	 ecx
  00046	8b cc		 mov	 ecx, esp
  00048	89 01		 mov	 DWORD PTR [ecx], eax
  0004a	8d 45 f0	 lea	 eax, DWORD PTR $T117672[ebp]
  0004d	50		 push	 eax
  0004e	8b cf		 mov	 ecx, edi
  00050	e8 00 00 00 00	 call	 ?erase@?$list@GV?$allocator@G@_STL@@@_STL@@QAE?AU?$_List_iterator@GU?$_Nonconst_traits@G@_STL@@@2@U32@@Z ; _STL::list<unsigned short,_STL::allocator<unsigned short> >::erase
$L112971:

; 460  : 	}
; 461  : 	m_listLRU.push_front( partIndex );				// 

  00055	8d 45 08	 lea	 eax, DWORD PTR _partIndex$[ebp]
  00058	50		 push	 eax
  00059	8b cf		 mov	 ecx, edi
  0005b	e8 00 00 00 00	 call	 ?push_front@?$list@GV?$allocator@G@_STL@@@_STL@@QAEXABG@Z ; _STL::list<unsigned short,_STL::allocator<unsigned short> >::push_front

; 462  : 	m_pPartIterator[partIndex] = m_listLRU.begin();		// iterator  

  00060	0f b7 5d 08	 movzx	 ebx, WORD PTR _partIndex$[ebp]
  00064	8b 07		 mov	 eax, DWORD PTR [edi]
  00066	8b 4e 1c	 mov	 ecx, DWORD PTR [esi+28]
  00069	8b 00		 mov	 eax, DWORD PTR [eax]
  0006b	c1 e3 02	 shl	 ebx, 2
  0006e	89 04 0b	 mov	 DWORD PTR [ebx+ecx], eax

; 463  : 
; 464  : 	//---------------------------------------------------
; 465  : 	// [ TEST CODE ]
; 466  : 	/*
; 467  : 	PARTINDEX_LIST_ITERATOR	iIndex = m_listLRU.begin();
; 468  : 
; 469  : 	char str[1024] = "[GetData] ";
; 470  : 	char str2[256];
; 471  : 	while (iIndex != m_listLRU.end())
; 472  : 	{
; 473  : 		sprintf(str2, "%d ", *iIndex);
; 474  : 		strcat(str, str2);
; 475  : 
; 476  : 		iIndex++;
; 477  : 	}
; 478  : 	DEBUG_ADD(str);
; 479  : 	*/
; 480  : 	//---------------------------------------------------
; 481  : 
; 482  : 
; 483  : 	//------------------------------------------------------
; 484  : 	// counter .. ~~
; 485  : 	//------------------------------------------------------
; 486  : 	if (m_Counter==0xFFFFFFFF)

  00071	83 7e 24 ff	 cmp	 DWORD PTR [esi+36], -1
  00075	89 5d f0	 mov	 DWORD PTR tv270[ebp], ebx
  00078	0f 85 82 00 00
	00		 jne	 $L112975

; 487  : 	{
; 488  : 		//    ...
; 489  : 		//   0 . -->    .
; 490  : 		int leastTimeIndex = 0;
; 491  : 		int maxTimeIndex = 0;
; 492  : 		for (int i=1; i<m_nPart; i++)

  0007e	0f b7 46 08	 movzx	 eax, WORD PTR [esi+8]
  00082	33 c9		 xor	 ecx, ecx
  00084	33 ff		 xor	 edi, edi
  00086	41		 inc	 ecx
  00087	3b c1		 cmp	 eax, ecx
  00089	89 7d f8	 mov	 DWORD PTR _leastTimeIndex$112976[ebp], edi
  0008c	89 7d f4	 mov	 DWORD PTR _maxTimeIndex$112977[ebp], edi
  0008f	89 4d 08	 mov	 DWORD PTR _i$112978[ebp], ecx
  00092	7e 3c		 jle	 SHORT $L112981
  00094	8b 46 14	 mov	 eax, DWORD PTR [esi+20]
  00097	6a 04		 push	 4
  00099	89 7d fc	 mov	 DWORD PTR tv362[ebp], edi
  0009c	59		 pop	 ecx
$L117724:

; 493  : 		{
; 494  : 			//   
; 495  : 			if (m_pLastTime[i] < m_pLastTime[leastTimeIndex])

  0009d	8b 14 01	 mov	 edx, DWORD PTR [ecx+eax]
  000a0	3b 14 07	 cmp	 edx, DWORD PTR [edi+eax]
  000a3	73 08		 jae	 SHORT $L112982

; 496  : 			{
; 497  : 				leastTimeIndex = i;

  000a5	8b 7d 08	 mov	 edi, DWORD PTR _i$112978[ebp]
  000a8	89 7d f8	 mov	 DWORD PTR _leastTimeIndex$112976[ebp], edi
  000ab	8b f9		 mov	 edi, ecx
$L112982:

; 498  : 			}
; 499  : 
; 500  : 			//   
; 501  : 			if (m_pLastTime[i] > m_pLastTime[maxTimeIndex])

  000ad	8b 5d fc	 mov	 ebx, DWORD PTR tv362[ebp]
  000b0	3b 14 03	 cmp	 edx, DWORD PTR [ebx+eax]
  000b3	76 09		 jbe	 SHORT $L112980

; 502  : 			{
; 503  : 				maxTimeIndex = i;

  000b5	8b 55 08	 mov	 edx, DWORD PTR _i$112978[ebp]
  000b8	89 55 f4	 mov	 DWORD PTR _maxTimeIndex$112977[ebp], edx
  000bb	89 4d fc	 mov	 DWORD PTR tv362[ebp], ecx
$L112980:
  000be	0f b7 56 08	 movzx	 edx, WORD PTR [esi+8]
  000c2	ff 45 08	 inc	 DWORD PTR _i$112978[ebp]
  000c5	83 c1 04	 add	 ecx, 4
  000c8	39 55 08	 cmp	 DWORD PTR _i$112978[ebp], edx
  000cb	7c d0		 jl	 SHORT $L117724

; 487  : 	{
; 488  : 		//    ...
; 489  : 		//   0 . -->    .
; 490  : 		int leastTimeIndex = 0;
; 491  : 		int maxTimeIndex = 0;
; 492  : 		for (int i=1; i<m_nPart; i++)

  000cd	8b 5d f0	 mov	 ebx, DWORD PTR tv270[ebp]
$L112981:

; 504  : 			}
; 505  : 		}
; 506  : 
; 507  : 		//     .
; 508  : 		int leastTime = m_pLastTime[leastTimeIndex];
; 509  : 		for (i=0; i<m_nPart; i++)

  000d0	0f b7 46 08	 movzx	 eax, WORD PTR [esi+8]
  000d4	33 d2		 xor	 edx, edx
  000d6	85 c0		 test	 eax, eax
  000d8	7e 1a		 jle	 SHORT $L112987
  000da	8b 7d f8	 mov	 edi, DWORD PTR _leastTimeIndex$112976[ebp]
  000dd	c1 e7 02	 shl	 edi, 2
$L112985:

; 510  : 		{
; 511  : 			m_pLastTime[i] -= m_pLastTime[leastTimeIndex];

  000e0	8b 46 14	 mov	 eax, DWORD PTR [esi+20]
  000e3	8d 0c 90	 lea	 ecx, DWORD PTR [eax+edx*4]
  000e6	8b 04 07	 mov	 eax, DWORD PTR [edi+eax]
  000e9	29 01		 sub	 DWORD PTR [ecx], eax
  000eb	0f b7 46 08	 movzx	 eax, WORD PTR [esi+8]
  000ef	42		 inc	 edx
  000f0	3b d0		 cmp	 edx, eax
  000f2	7c ec		 jl	 SHORT $L112985
$L112987:

; 512  : 		}
; 513  : 
; 514  : 		// Counter      .
; 515  : 		m_Counter = m_pLastTime[maxTimeIndex];

  000f4	8b 46 14	 mov	 eax, DWORD PTR [esi+20]
  000f7	8b 4d f4	 mov	 ecx, DWORD PTR _maxTimeIndex$112977[ebp]
  000fa	8b 04 88	 mov	 eax, DWORD PTR [eax+ecx*4]
  000fd	89 46 24	 mov	 DWORD PTR [esi+36], eax
$L112975:

; 516  : 	}
; 517  : 
; 518  : 	//  data
; 519  : 	data = m_pData[partIndex];

  00100	8b 46 0c	 mov	 eax, DWORD PTR [esi+12]
  00103	8b 04 03	 mov	 eax, DWORD PTR [ebx+eax]
  00106	8b 4d 0c	 mov	 ecx, DWORD PTR _data$[ebp]
  00109	89 01		 mov	 DWORD PTR [ecx], eax

; 520  : 
; 521  : 	return true;

  0010b	b0 01		 mov	 al, 1
$L112967:

; 522  : }

  0010d	5f		 pop	 edi
  0010e	5e		 pop	 esi
  0010f	5b		 pop	 ebx
  00110	c9		 leave
  00111	c2 08 00	 ret	 8
?GetData@?$CPartManager@GGPAVCSpriteSurface@@@@QAE_NGAAPAVCSpriteSurface@@@Z ENDP ; CPartManager<unsigned short,unsigned short,CSpriteSurface *>::GetData
_TEXT	ENDS
PUBLIC	??0CNormalSpriteTexturePartManager@@QAE@PAV?$CTypePack2@VCSprite@@VCSprite555@@VCSprite565@@@@G@Z ; CNormalSpriteTexturePartManager::CNormalSpriteTexturePartManager
;	COMDAT xdata$x
; File c:\stlport-4.6.1\stlport\stl\_alloc.h
xdata$x	SEGMENT
$T117745 DD	0ffffffffH
	DD	FLAT:$L117729
	DD	00H
	DD	FLAT:$L117730
$T117743 DD	019930520H
	DD	02H
	DD	FLAT:$T117745
	DD	2 DUP(00H)
	DD	2 DUP(00H)
; Function compile flags: /Ogsy
; File c:\darkeden\designed_common\project\client\cnormalspritetexturepartmanager.cpp
xdata$x	ENDS
;	COMDAT ??0CNormalSpriteTexturePartManager@@QAE@PAV?$CTypePack2@VCSprite@@VCSprite555@@VCSprite565@@@@G@Z
_TEXT	SEGMENT
_this$ = -16						; size = 4
__$EHRec$ = -12						; size = 12
_pSPK$ = 8						; size = 4
_partSize$ = 12						; size = 2
$T117728 = 15						; size = 1
??0CNormalSpriteTexturePartManager@@QAE@PAV?$CTypePack2@VCSprite@@VCSprite555@@VCSprite565@@@@G@Z PROC NEAR ; CNormalSpriteTexturePartManager::CNormalSpriteTexturePartManager, COMDAT
; _this$ = ecx

; 20   : {

  00000	b8 00 00 00 00	 mov	 eax, __ehhandler$??0CNormalSpriteTexturePartManager@@QAE@PAV?$CTypePack2@VCSprite@@VCSprite555@@VCSprite565@@@@G@Z
  00005	e8 00 00 00 00	 call	 __EH_prolog
  0000a	51		 push	 ecx
  0000b	56		 push	 esi
  0000c	8b f1		 mov	 esi, ecx
  0000e	89 75 f0	 mov	 DWORD PTR _this$[ebp], esi
  00011	e8 00 00 00 00	 call	 ??0?$CPartManager@GGPAVCSpriteSurface@@@@QAE@XZ ; CPartManager<unsigned short,unsigned short,CSpriteSurface *>::CPartManager<unsigned short,unsigned short,CSpriteSurface *>
  00016	83 65 fc 00	 and	 DWORD PTR __$EHRec$[ebp+8], 0
  0001a	8d 45 0f	 lea	 eax, DWORD PTR $T117728[ebp]
  0001d	8d 4e 34	 lea	 ecx, DWORD PTR [esi+52]
  00020	50		 push	 eax
  00021	e8 00 00 00 00	 call	 ??0?$_List_base@PAVCSpriteSurface@@V?$allocator@PAVCSpriteSurface@@@_STL@@@_STL@@QAE@ABV?$allocator@PAVCSpriteSurface@@@1@@Z ; _STL::_List_base<CSpriteSurface *,_STL::allocator<CSpriteSurface *> >::_List_base<CSpriteSurface *,_STL::allocator<CSpriteSurface *> >

; 21   : 	m_pSPK = NULL;
; 22   : 	m_pWidth = NULL;
; 23   : 	m_pHeight = NULL;
; 24   : 
; 25   : //	m_bOpen = false;
; 26   : 	Init(pSPK, partSize);	

  00026	ff 75 0c	 push	 DWORD PTR _partSize$[ebp]
  00029	83 66 28 00	 and	 DWORD PTR [esi+40], 0
  0002d	ff 75 08	 push	 DWORD PTR _pSPK$[ebp]
  00030	83 66 2c 00	 and	 DWORD PTR [esi+44], 0
  00034	83 66 30 00	 and	 DWORD PTR [esi+48], 0
  00038	8b ce		 mov	 ecx, esi
  0003a	c6 45 fc 01	 mov	 BYTE PTR __$EHRec$[ebp+8], 1
  0003e	e8 00 00 00 00	 call	 ?Init@CNormalSpriteTexturePartManager@@QAEXPAV?$CTypePack2@VCSprite@@VCSprite555@@VCSprite565@@@@G@Z ; CNormalSpriteTexturePartManager::Init

; 27   : 
; 28   : 	//Init(pSPK, partSize);	
; 29   : }

  00043	8b 4d f4	 mov	 ecx, DWORD PTR __$EHRec$[ebp]
  00046	8b c6		 mov	 eax, esi
  00048	5e		 pop	 esi
  00049	64 89 0d 00 00
	00 00		 mov	 DWORD PTR fs:__except_list, ecx
  00050	c9		 leave
  00051	c2 08 00	 ret	 8
_TEXT	ENDS
;	COMDAT text$x
text$x	SEGMENT
$L117729:
  00000	8b 4d f0	 mov	 ecx, DWORD PTR _this$[ebp]
  00003	e9 00 00 00 00	 jmp	 ??1?$CPartManager@GGPAVCSpriteSurface@@@@QAE@XZ ; CPartManager<unsigned short,unsigned short,CSpriteSurface *>::~CPartManager<unsigned short,unsigned short,CSpriteSurface *>
$L117730:
  00008	8b 4d f0	 mov	 ecx, DWORD PTR _this$[ebp]
  0000b	83 c1 34	 add	 ecx, 52			; 00000034H
  0000e	e9 00 00 00 00	 jmp	 ??1?$list@PAVCSpriteSurface@@V?$allocator@PAVCSpriteSurface@@@_STL@@@_STL@@QAE@XZ ; _STL::list<CSpriteSurface *,_STL::allocator<CSpriteSurface *> >::~list<CSpriteSurface *,_STL::allocator<CSpriteSurface *> >
__ehhandler$??0CNormalSpriteTexturePartManager@@QAE@PAV?$CTypePack2@VCSprite@@VCSprite555@@VCSprite565@@@@G@Z:
  00013	b8 00 00 00 00	 mov	 eax, OFFSET FLAT:$T117743
  00018	e9 00 00 00 00	 jmp	 ___CxxFrameHandler
text$x	ENDS
??0CNormalSpriteTexturePartManager@@QAE@PAV?$CTypePack2@VCSprite@@VCSprite555@@VCSprite565@@@@G@Z ENDP ; CNormalSpriteTexturePartManager::CNormalSpriteTexturePartManager
PUBLIC	?GetTexture@CNormalSpriteTexturePartManager@@QAEPAVCSpriteSurface@@G@Z ; CNormalSpriteTexturePartManager::GetTexture
EXTRN	?InitTextureSurface@CDirectDrawSurface@@QAE_NHHKQAU_DDPIXELFORMAT@@@Z:NEAR ; CDirectDrawSurface::InitTextureSurface
EXTRN	?Lock@CDirectDrawSurface@@QAE_NXZ:NEAR		; CDirectDrawSurface::Lock
EXTRN	?Unlock@CDirectDrawSurface@@QAE_NXZ:NEAR	; CDirectDrawSurface::Unlock
EXTRN	?GetTextureSize@CDirect3D@@SAXAAH0@Z:NEAR	; CDirect3D::GetTextureSize
EXTRN	??0CSpriteSurface@@QAE@XZ:NEAR			; CSpriteSurface::CSpriteSurface
EXTRN	?BltSprite1555SmallNotTrans@CSpriteSurface@@QAEXPAUtagPOINT@@PAVCSprite@@E@Z:NEAR ; CSpriteSurface::BltSprite1555SmallNotTrans
EXTRN	?BltSprite1555NotTrans@CSpriteSurface@@QAEXPAUtagPOINT@@PAVCSprite@@@Z:NEAR ; CSpriteSurface::BltSprite1555NotTrans
EXTRN	_memset:NEAR
;	COMDAT xdata$x
; File c:\darkeden\designed_common\project\client\d3dlib\cdirect3d.h
xdata$x	SEGMENT
$T117838 DD	0ffffffffH
	DD	FLAT:$L117758
$T117812 DD	019930520H
	DD	01H
	DD	FLAT:$T117838
	DD	2 DUP(00H)
	DD	2 DUP(00H)
; Function compile flags: /Ogsy
; File c:\darkeden\designed_common\project\client\cnormalspritetexturepartmanager.cpp
xdata$x	ENDS
;	COMDAT ?GetTexture@CNormalSpriteTexturePartManager@@QAEPAVCSpriteSurface@@G@Z
_TEXT	SEGMENT
_point$112450 = -52					; size = 8
$T117751 = -44						; size = 4
_pTextureSurface$112431 = -44				; size = 4
tv373 = -40						; size = 4
_this$ = -40						; size = 4
_pitch$112457 = -36					; size = 4
_pOld$112478 = -32					; size = 4
_width2$112458 = -32					; size = 4
_spWidth$112424 = -32					; size = 4
_smallShift$112428 = -28				; size = 1
tv196 = -28						; size = 4
$T117750 = -24						; size = 4
_width$112426 = -20					; size = 4
_height$112427 = -16					; size = 4
__$EHRec$ = -12						; size = 12
_id$ = 8						; size = 2
_pTextureSurface$112420 = 8				; size = 4
?GetTexture@CNormalSpriteTexturePartManager@@QAEPAVCSpriteSurface@@G@Z PROC NEAR ; CNormalSpriteTexturePartManager::GetTexture, COMDAT
; _this$ = ecx

; 285  : {

  00000	b8 00 00 00 00	 mov	 eax, __ehhandler$?GetTexture@CNormalSpriteTexturePartManager@@QAEPAVCSpriteSurface@@G@Z
  00005	e8 00 00 00 00	 call	 __EH_prolog
  0000a	83 ec 28	 sub	 esp, 40			; 00000028H

; 286  : 	//static int reload	= 0;
; 287  : 	//static int reuse	= 0;
; 288  : 
; 289  : 	//-----------------------------------------------------------
; 290  : 	//  --> Load & return
; 291  : 	//-----------------------------------------------------------
; 292  : 	if (IsDataNotNULL(id))

  0000d	0f b7 45 08	 movzx	 eax, WORD PTR _id$[ebp]
  00011	8b 51 04	 mov	 edx, DWORD PTR [ecx+4]
  00014	66 8b 04 42	 mov	 ax, WORD PTR [edx+eax*2]
  00018	66 3b 41 22	 cmp	 ax, WORD PTR [ecx+34]
  0001c	89 4d d8	 mov	 DWORD PTR _this$[ebp], ecx
  0001f	74 18		 je	 SHORT $L112419

; 293  : 	{
; 294  : #ifdef OUTPUT_DEBUG
; 295  : 		if (g_pDebugMessage)
; 296  : 		{
; 297  : 			DEBUG_ADD_FORMAT("CNormalSpriteTexturePartManager::GetTexture(%d)", id);
; 298  : 		}
; 299  : #endif
; 300  : 		
; 301  : 		CSpriteSurface* pTextureSurface;
; 302  : 		if (GetData(id, pTextureSurface))

  00021	8d 45 08	 lea	 eax, DWORD PTR _pTextureSurface$112420[ebp]
  00024	50		 push	 eax
  00025	ff 75 08	 push	 DWORD PTR _id$[ebp]
  00028	e8 00 00 00 00	 call	 ?GetData@?$CPartManager@GGPAVCSpriteSurface@@@@QAE_NGAAPAVCSpriteSurface@@@Z ; CPartManager<unsigned short,unsigned short,CSpriteSurface *>::GetData
  0002d	f6 d8		 neg	 al
  0002f	1b c0		 sbb	 eax, eax
  00031	23 45 08	 and	 eax, DWORD PTR _pTextureSurface$112420[ebp]

; 607  : 
; 608  : 		//reload++;
; 609  : 	}
; 610  : 	
; 611  : 	return NULL;

  00034	e9 fa 00 00 00	 jmp	 $L112418
$L112419:

; 303  : 		{
; 304  : 			return pTextureSurface;
; 305  : 		}
; 306  : 		
; 307  : #ifdef OUTPUT_DEBUG
; 308  : 		if (g_pDebugMessage)
; 309  : 		{
; 310  : 			DEBUG_ADD("No Exist!");
; 311  : 		}
; 312  : #endif
; 313  : 		
; 314  : 		//reuse ++;
; 315  : 	}
; 316  : 	else
; 317  : 	{
; 318  : 		#ifdef OUTPUT_DEBUG
; 319  : 			if (g_pDebugMessage)
; 320  : 			{
; 321  : 				DEBUG_ADD_FORMAT("CNormalSpriteTexturePartManager::GetTexture New(%d)", id);
; 322  : 			}
; 323  : 		#endif
; 324  : 
; 325  : 		CSprite* pSprite = &(*m_pSPK)[id];

  00039	8b 49 28	 mov	 ecx, DWORD PTR [ecx+40]
  0003c	8b 01		 mov	 eax, DWORD PTR [ecx]
  0003e	53		 push	 ebx
  0003f	56		 push	 esi
  00040	57		 push	 edi
  00041	ff 75 08	 push	 DWORD PTR _id$[ebp]
  00044	ff 50 38	 call	 DWORD PTR [eax+56]
  00047	8b f0		 mov	 esi, eax

; 326  : 		//CAlphaSprite* pSprite = &(*m_pSPK)[id];
; 327  : 
; 328  : 		////  Load  ..
; 329  : 		///*
; 330  : 		//----------------------------------------
; 331  : 		//  Load ..
; 332  : 		//----------------------------------------
; 333  : //		if (pSprite->IsInit())
; 334  : //		{
; 335  : //		}
; 336  : //		//----------------------------------------
; 337  : //		// Load  
; 338  : //		//----------------------------------------
; 339  : //		else
; 340  : //		{
; 341  : //			//-----------------------------------------------------------
; 342  : //			// AlphaSprite Load.
; 343  : //			//-----------------------------------------------------------
; 344  : //			// id   FilePointer 
; 345  : //			int temp = m_SPKIndex[id];
; 346  : //			m_SPKFile.seekg(m_SPKIndex[id], ios::beg);
; 347  : //			pSprite->LoadFromFile( m_SPKFile );
; 348  : //		}
; 349  : 		//*/
; 350  : 		// Texture Size .
; 351  : 		int spWidth, spHeight;
; 352  : 		int width, height;
; 353  : 		BYTE smallShift = 0;
; 354  : 
; 355  : 		spWidth = pSprite->GetWidth();

  00049	0f b7 7e 04	 movzx	 edi, WORD PTR [esi+4]

; 356  : 		spHeight = pSprite->GetHeight();
; 357  : 
; 358  : 		//-----------------------------------------------------
; 359  : 		//  0 ..
; 360  : 		//-----------------------------------------------------
; 361  : 		if (spWidth==0 || spHeight==0)

  0004d	85 ff		 test	 edi, edi
  0004f	0f b7 5e 06	 movzx	 ebx, WORD PTR [esi+6]
  00053	c6 45 e4 00	 mov	 BYTE PTR _smallShift$112428[ebp], 0
  00057	0f 84 d1 00 00
	00		 je	 $L112430
  0005d	85 db		 test	 ebx, ebx
  0005f	0f 84 c9 00 00
	00		 je	 $L112430

; 364  : 		}
; 365  : 
; 366  : 		//-----------------------------------------------------------
; 367  : 		// () .
; 368  : 		//-----------------------------------------------------------
; 369  : 		CSpriteSurface* pTextureSurface = new CSpriteSurface;

  00065	6a 20		 push	 32			; 00000020H
  00067	e8 00 00 00 00	 call	 ??2@YAPAXI@Z		; operator new
  0006c	59		 pop	 ecx
  0006d	89 45 d4	 mov	 DWORD PTR $T117751[ebp], eax
  00070	83 65 fc 00	 and	 DWORD PTR __$EHRec$[ebp+8], 0
  00074	85 c0		 test	 eax, eax
  00076	74 0c		 je	 SHORT $L117752
  00078	8b c8		 mov	 ecx, eax
  0007a	e8 00 00 00 00	 call	 ??0CSpriteSurface@@QAE@XZ ; CSpriteSurface::CSpriteSurface
  0007f	89 45 e8	 mov	 DWORD PTR $T117750[ebp], eax
  00082	eb 04		 jmp	 SHORT $L117753
$L117752:
  00084	83 65 e8 00	 and	 DWORD PTR $T117750[ebp], 0
$L117753:
  00088	8b 45 e8	 mov	 eax, DWORD PTR $T117750[ebp]
  0008b	83 4d fc ff	 or	 DWORD PTR __$EHRec$[ebp+8], -1
  0008f	89 45 d4	 mov	 DWORD PTR _pTextureSurface$112431[ebp], eax

; 370  : 	
; 371  : 
; 372  : 		width = spWidth;
; 373  : 		height = spHeight;
; 374  : 		CDirect3D::GetTextureSize(width, height);		

  00092	8d 45 f0	 lea	 eax, DWORD PTR _height$112427[ebp]
  00095	50		 push	 eax
  00096	8d 45 ec	 lea	 eax, DWORD PTR _width$112426[ebp]
  00099	50		 push	 eax
  0009a	89 7d ec	 mov	 DWORD PTR _width$112426[ebp], edi
  0009d	89 5d f0	 mov	 DWORD PTR _height$112427[ebp], ebx
  000a0	e8 00 00 00 00	 call	 ?GetTextureSize@CDirect3D@@SAXAAH0@Z ; CDirect3D::GetTextureSize

; 375  : 
; 376  : 		//-----------------------------------------------------------
; 377  : 		// 2   ..
; 378  : 		//-----------------------------------------------------------
; 379  : 		bool bDifferentSize;	// sprite texture  ?
; 380  : 		if (CDirect3D::IsTexturePow2())

  000a5	80 3d 00 00 00
	00 00		 cmp	 BYTE PTR ?m_bTexturePow2@CDirect3D@@1_NA, 0 ; CDirect3D::m_bTexturePow2
  000ac	59		 pop	 ecx
  000ad	59		 pop	 ecx
  000ae	74 26		 je	 SHORT $L112437

; 381  : 		{
; 382  : 			bDifferentSize = true;
; 383  : 
; 384  : 			// width height  ...
; 385  : 			//     .
; 386  : 			// Square ..   .. ..
; 387  : 			
; 388  : 			//   ... detail .. 
; 389  : 			//     (-_-;)
; 390  : 			//   ... - -;;;
; 391  : 			//    detail .
; 392  : 			//     .			
; 393  : 			if (width > height)

  000b0	8b 45 ec	 mov	 eax, DWORD PTR _width$112426[ebp]
  000b3	3b 45 f0	 cmp	 eax, DWORD PTR _height$112427[ebp]
  000b6	7e 05		 jle	 SHORT $L112438

; 394  : 			{
; 395  : 				height = width;

  000b8	89 45 f0	 mov	 DWORD PTR _height$112427[ebp], eax

; 396  : 			}
; 397  : 			else //if (width < height)

  000bb	eb 06		 jmp	 SHORT $L112441
$L112438:

; 398  : 			{
; 399  : 				width = height;

  000bd	8b 45 f0	 mov	 eax, DWORD PTR _height$112427[ebp]
  000c0	89 45 ec	 mov	 DWORD PTR _width$112426[ebp], eax
$L112441:

; 400  : 			}
; 401  : 
; 402  : 			//-----------------------------------------------------------
; 403  : 			// Texture Sprite    ..
; 404  : 			//-----------------------------------------------------------
; 405  : 			// ,  Sprite Texture   .		
; 406  : 			// shift   .
; 407  : 			while (spWidth > width || spHeight > height)

  000c3	3b 7d ec	 cmp	 edi, DWORD PTR _width$112426[ebp]
  000c6	7f 05		 jg	 SHORT $L112443
  000c8	3b 5d f0	 cmp	 ebx, DWORD PTR _height$112427[ebp]
  000cb	7e 26		 jle	 SHORT $L117827
$L112443:

; 408  : 			{
; 409  : 				smallShift ++;

  000cd	fe 45 e4	 inc	 BYTE PTR _smallShift$112428[ebp]

; 410  : 
; 411  : 				spWidth >>= 1;

  000d0	d1 ff		 sar	 edi, 1

; 412  : 				spHeight >>= 1;

  000d2	d1 fb		 sar	 ebx, 1

; 413  : 			}

  000d4	eb ed		 jmp	 SHORT $L112441
$L112437:

; 414  : 		}
; 415  : 		//-----------------------------------------------------------
; 416  : 		//  size   
; 417  : 		//-----------------------------------------------------------
; 418  : 		else
; 419  : 		{
; 420  : 			if (CDirect3D::IsTextureSquareOnly())

  000d6	80 3d 00 00 00
	00 00		 cmp	 BYTE PTR ?m_bTextureSquareOnly@CDirect3D@@1_NA, 0 ; CDirect3D::m_bTextureSquareOnly
  000dd	74 14		 je	 SHORT $L117827

; 421  : 			{
; 422  : 				// width height  ...
; 423  : 				//     .
; 424  : 				// Square ..   .. ..
; 425  : 				if (width > height)

  000df	8b 45 ec	 mov	 eax, DWORD PTR _width$112426[ebp]
  000e2	8b 4d f0	 mov	 ecx, DWORD PTR _height$112427[ebp]
  000e5	3b c1		 cmp	 eax, ecx
  000e7	7e 05		 jle	 SHORT $L117836

; 426  : 				{
; 427  : 					height = width;

  000e9	89 45 f0	 mov	 DWORD PTR _height$112427[ebp], eax

; 428  : 					bDifferentSize = true;
; 429  : 				}
; 430  : 				else if (width < height)

  000ec	eb 05		 jmp	 SHORT $L117827
$L117836:
  000ee	7d 03		 jge	 SHORT $L117827

; 431  : 				{
; 432  : 					width = height;

  000f0	89 4d ec	 mov	 DWORD PTR _width$112426[ebp], ecx
$L117827:

; 433  : 					bDifferentSize = true;
; 434  : 				}				
; 435  : 			}
; 436  : 			else
; 437  : 			{
; 438  : 				bDifferentSize = false;
; 439  : 			}			
