; Listing generated by Microsoft (R) Optimizing Compiler Version 13.10.3077 

	TITLE	\darkeden\Designed_Common\Project\Client\Packet\Gpackets\GCChangeInventoryItemNum.cpp
	.386P
include listing.inc
if @Version gt 510
.model FLAT
else
_TEXT	SEGMENT PARA USE32 PUBLIC 'CODE'
_TEXT	ENDS
_DATA	SEGMENT DWORD USE32 PUBLIC 'DATA'
_DATA	ENDS
CONST	SEGMENT DWORD USE32 PUBLIC 'CONST'
CONST	ENDS
_BSS	SEGMENT DWORD USE32 PUBLIC 'BSS'
_BSS	ENDS
$$SYMBOLS	SEGMENT BYTE USE32 'DEBSYM'
$$SYMBOLS	ENDS
$$TYPES	SEGMENT BYTE USE32 'DEBTYP'
$$TYPES	ENDS
_TLS	SEGMENT DWORD USE32 PUBLIC 'TLS'
_TLS	ENDS
;	COMDAT ??_C@_0CA@NDINADEE@SocketOutputStream?$CIm_BufferLen?3?$AA@
CONST	SEGMENT DWORD USE32 PUBLIC 'CONST'
CONST	ENDS
;	COMDAT ??_C@_08LIHEOLAN@?0m_Head?3?$AA@
CONST	SEGMENT DWORD USE32 PUBLIC 'CONST'
CONST	ENDS
;	COMDAT ??_C@_08PCEHPGHK@?0m_Tail?3?$AA@
CONST	SEGMENT DWORD USE32 PUBLIC 'CONST'
CONST	ENDS
;	COMDAT ??_C@_01PKGAHCOL@?$CJ?$AA@
CONST	SEGMENT DWORD USE32 PUBLIC 'CONST'
CONST	ENDS
;	COMDAT ??_C@_0N@GOPDCEEB@basic_string?$AA@
CONST	SEGMENT DWORD USE32 PUBLIC 'CONST'
CONST	ENDS
xdata$x	SEGMENT DWORD USE32 PUBLIC 'CONST'
xdata$x	ENDS
rdata$r	SEGMENT DWORD USE32 PUBLIC 'CONST'
rdata$r	ENDS
text$yc	SEGMENT PARA USE32 PUBLIC 'CODE'
text$yc	ENDS
CRT$XCA	SEGMENT DWORD USE32 PUBLIC 'DATA'
CRT$XCA	ENDS
CRT$XCU	SEGMENT DWORD USE32 PUBLIC 'DATA'
CRT$XCU	ENDS
CRT$XCL	SEGMENT DWORD USE32 PUBLIC 'DATA'
CRT$XCL	ENDS
CRT$XCC	SEGMENT DWORD USE32 PUBLIC 'DATA'
CRT$XCC	ENDS
CRT$XCZ	SEGMENT DWORD USE32 PUBLIC 'DATA'
CRT$XCZ	ENDS
text$yd	SEGMENT PARA USE32 PUBLIC 'CODE'
text$yd	ENDS
;	COMDAT ?getHost@SocketImpl@@QBE?AV?$basic_string@DV?$char_traits@D@_STL@@V?$allocator@D@2@@_STL@@XZ
_TEXT	SEGMENT PARA USE32 PUBLIC 'CODE'
_TEXT	ENDS
;	COMDAT ?getPort@SocketImpl@@QBEIXZ
_TEXT	SEGMENT PARA USE32 PUBLIC 'CODE'
_TEXT	ENDS
;	COMDAT ?isValid@SocketImpl@@QBE_NXZ
_TEXT	SEGMENT PARA USE32 PUBLIC 'CODE'
_TEXT	ENDS
;	COMDAT ?getSOCKET@SocketImpl@@QBEIXZ
_TEXT	SEGMENT PARA USE32 PUBLIC 'CODE'
_TEXT	ENDS
;	COMDAT ?read@SocketInputStream@@QAEIAAE@Z
_TEXT	SEGMENT PARA USE32 PUBLIC 'CODE'
_TEXT	ENDS
;	COMDAT ?read@SocketInputStream@@QAEIAAK@Z
_TEXT	SEGMENT PARA USE32 PUBLIC 'CODE'
_TEXT	ENDS
;	COMDAT ?write@SocketOutputStream@@QAEIE@Z
_TEXT	SEGMENT PARA USE32 PUBLIC 'CODE'
_TEXT	ENDS
;	COMDAT ?write@SocketOutputStream@@QAEIG@Z
_TEXT	SEGMENT PARA USE32 PUBLIC 'CODE'
_TEXT	ENDS
;	COMDAT ?write@SocketOutputStream@@QAEII@Z
_TEXT	SEGMENT PARA USE32 PUBLIC 'CODE'
_TEXT	ENDS
;	COMDAT ?write@SocketOutputStream@@QAEIK@Z
_TEXT	SEGMENT PARA USE32 PUBLIC 'CODE'
_TEXT	ENDS
;	COMDAT ??1Packet@@UAE@XZ
_TEXT	SEGMENT PARA USE32 PUBLIC 'CODE'
_TEXT	ENDS
;	COMDAT ?read@Packet@@UAEXPAVSocket@@@Z
_TEXT	SEGMENT PARA USE32 PUBLIC 'CODE'
_TEXT	ENDS
;	COMDAT ?write@Packet@@UBEXPAVSocket@@@Z
_TEXT	SEGMENT PARA USE32 PUBLIC 'CODE'
_TEXT	ENDS
;	COMDAT ??_GPacket@@UAEPAXI@Z
_TEXT	SEGMENT PARA USE32 PUBLIC 'CODE'
_TEXT	ENDS
;	COMDAT ??0UnsupportedError@@QAE@ABV0@@Z
_TEXT	SEGMENT PARA USE32 PUBLIC 'CODE'
_TEXT	ENDS
;	COMDAT ??0Error@@QAE@ABV0@@Z
_TEXT	SEGMENT PARA USE32 PUBLIC 'CODE'
_TEXT	ENDS
;	COMDAT ??0Throwable@@QAE@ABV0@@Z
_TEXT	SEGMENT PARA USE32 PUBLIC 'CODE'
_TEXT	ENDS
;	COMDAT ??1PacketFactory@@UAE@XZ
_TEXT	SEGMENT PARA USE32 PUBLIC 'CODE'
_TEXT	ENDS
;	COMDAT ??_GPacketFactory@@UAEPAXI@Z
_TEXT	SEGMENT PARA USE32 PUBLIC 'CODE'
_TEXT	ENDS
;	COMDAT ??0GCChangeInventoryItemNum@@QAE@XZ
_TEXT	SEGMENT PARA USE32 PUBLIC 'CODE'
_TEXT	ENDS
;	COMDAT ??1GCChangeInventoryItemNum@@QAE@XZ
_TEXT	SEGMENT PARA USE32 PUBLIC 'CODE'
_TEXT	ENDS
;	COMDAT ?read@GCChangeInventoryItemNum@@QAEXAAVSocketInputStream@@@Z
_TEXT	SEGMENT PARA USE32 PUBLIC 'CODE'
_TEXT	ENDS
;	COMDAT ?write@GCChangeInventoryItemNum@@QBEXAAVSocketOutputStream@@@Z
_TEXT	SEGMENT PARA USE32 PUBLIC 'CODE'
_TEXT	ENDS
;	COMDAT ?addChangedItemListElement@GCChangeInventoryItemNum@@QAEXKE@Z
_TEXT	SEGMENT PARA USE32 PUBLIC 'CODE'
_TEXT	ENDS
;	COMDAT ?eq@?$__char_traits_base@DH@_STL@@SA_NABD0@Z
_TEXT	SEGMENT PARA USE32 PUBLIC 'CODE'
_TEXT	ENDS
;	COMDAT ?not_eof@?$__char_traits_base@DH@_STL@@SAHABH@Z
_TEXT	SEGMENT PARA USE32 PUBLIC 'CODE'
_TEXT	ENDS
;	COMDAT ?eq_int_type@?$__char_traits_base@DH@_STL@@SA_NABH0@Z
_TEXT	SEGMENT PARA USE32 PUBLIC 'CODE'
_TEXT	ENDS
;	COMDAT ?get_allocator@?$basic_string@DV?$char_traits@D@_STL@@V?$allocator@D@2@@_STL@@QBE?AV?$allocator@D@2@XZ
_TEXT	SEGMENT PARA USE32 PUBLIC 'CODE'
_TEXT	ENDS
;	COMDAT ?_M_terminate_string@?$basic_string@DV?$char_traits@D@_STL@@V?$allocator@D@2@@_STL@@AAEXXZ
_TEXT	SEGMENT PARA USE32 PUBLIC 'CODE'
_TEXT	ENDS
;	COMDAT ?size@?$basic_string@DV?$char_traits@D@_STL@@V?$allocator@D@2@@_STL@@QBEIXZ
_TEXT	SEGMENT PARA USE32 PUBLIC 'CODE'
_TEXT	ENDS
;	COMDAT ?c_str@?$basic_string@DV?$char_traits@D@_STL@@V?$allocator@D@2@@_STL@@QBEPBDXZ
_TEXT	SEGMENT PARA USE32 PUBLIC 'CODE'
_TEXT	ENDS
;	COMDAT ??0?$_String_base@DV?$allocator@D@_STL@@@_STL@@QAE@ABV?$allocator@D@1@@Z
_TEXT	SEGMENT PARA USE32 PUBLIC 'CODE'
_TEXT	ENDS
;	COMDAT ?allocate@?$allocator@D@_STL@@QAEPADIPBX@Z
_TEXT	SEGMENT PARA USE32 PUBLIC 'CODE'
_TEXT	ENDS
;	COMDAT ??0?$fpos@H@_STL@@QAE@J@Z
_TEXT	SEGMENT PARA USE32 PUBLIC 'CODE'
_TEXT	ENDS
;	COMDAT ??B?$fpos@H@_STL@@QBEJXZ
_TEXT	SEGMENT PARA USE32 PUBLIC 'CODE'
_TEXT	ENDS
;	COMDAT ?state@?$fpos@H@_STL@@QBEHXZ
_TEXT	SEGMENT PARA USE32 PUBLIC 'CODE'
_TEXT	ENDS
;	COMDAT ?is_open@?$basic_filebuf@DV?$char_traits@D@_STL@@@_STL@@QBE_NXZ
_TEXT	SEGMENT PARA USE32 PUBLIC 'CODE'
_TEXT	ENDS
;	COMDAT ?_M_seek_return@?$basic_filebuf@DV?$char_traits@D@_STL@@@_STL@@AAE?AV?$fpos@H@2@JH@Z
_TEXT	SEGMENT PARA USE32 PUBLIC 'CODE'
_TEXT	ENDS
;	COMDAT ??0?$list@V?$basic_string@DV?$char_traits@D@_STL@@V?$allocator@D@2@@_STL@@V?$allocator@V?$basic_string@DV?$char_traits@D@_STL@@V?$allocator@D@2@@_STL@@@2@@_STL@@QAE@ABV01@@Z
_TEXT	SEGMENT PARA USE32 PUBLIC 'CODE'
_TEXT	ENDS
;	COMDAT ??0?$_Filebuf_Tmp_Buf@D@_STL@@QAE@H@Z
_TEXT	SEGMENT PARA USE32 PUBLIC 'CODE'
_TEXT	ENDS
;	COMDAT ??1?$_Filebuf_Tmp_Buf@D@_STL@@QAE@XZ
_TEXT	SEGMENT PARA USE32 PUBLIC 'CODE'
_TEXT	ENDS
;	COMDAT ??0?$list@KV?$allocator@K@_STL@@@_STL@@QAE@ABV?$allocator@K@1@@Z
_TEXT	SEGMENT PARA USE32 PUBLIC 'CODE'
_TEXT	ENDS
;	COMDAT ?begin@?$list@KV?$allocator@K@_STL@@@_STL@@QBE?AU?$_List_iterator@KU?$_Const_traits@K@_STL@@@2@XZ
_TEXT	SEGMENT PARA USE32 PUBLIC 'CODE'
_TEXT	ENDS
;	COMDAT ?end@?$list@KV?$allocator@K@_STL@@@_STL@@QBE?AU?$_List_iterator@KU?$_Const_traits@K@_STL@@@2@XZ
_TEXT	SEGMENT PARA USE32 PUBLIC 'CODE'
_TEXT	ENDS
;	COMDAT ?front@?$list@KV?$allocator@K@_STL@@@_STL@@QAEAAKXZ
_TEXT	SEGMENT PARA USE32 PUBLIC 'CODE'
_TEXT	ENDS
;	COMDAT ?push_back@?$list@KV?$allocator@K@_STL@@@_STL@@QAEXABK@Z
_TEXT	SEGMENT PARA USE32 PUBLIC 'CODE'
_TEXT	ENDS
;	COMDAT ?pop_front@?$list@KV?$allocator@K@_STL@@@_STL@@QAEXXZ
_TEXT	SEGMENT PARA USE32 PUBLIC 'CODE'
_TEXT	ENDS
;	COMDAT ??1?$list@KV?$allocator@K@_STL@@@_STL@@QAE@XZ
_TEXT	SEGMENT PARA USE32 PUBLIC 'CODE'
_TEXT	ENDS
;	COMDAT ??0?$allocator@K@_STL@@QAE@XZ
_TEXT	SEGMENT PARA USE32 PUBLIC 'CODE'
_TEXT	ENDS
;	COMDAT ??1?$allocator@K@_STL@@QAE@XZ
_TEXT	SEGMENT PARA USE32 PUBLIC 'CODE'
_TEXT	ENDS
;	COMDAT ??0?$list@EV?$allocator@E@_STL@@@_STL@@QAE@ABV?$allocator@E@1@@Z
_TEXT	SEGMENT PARA USE32 PUBLIC 'CODE'
_TEXT	ENDS
;	COMDAT ?begin@?$list@EV?$allocator@E@_STL@@@_STL@@QBE?AU?$_List_iterator@EU?$_Const_traits@E@_STL@@@2@XZ
_TEXT	SEGMENT PARA USE32 PUBLIC 'CODE'
_TEXT	ENDS
;	COMDAT ?end@?$list@EV?$allocator@E@_STL@@@_STL@@QBE?AU?$_List_iterator@EU?$_Const_traits@E@_STL@@@2@XZ
_TEXT	SEGMENT PARA USE32 PUBLIC 'CODE'
_TEXT	ENDS
;	COMDAT ?front@?$list@EV?$allocator@E@_STL@@@_STL@@QAEAAEXZ
_TEXT	SEGMENT PARA USE32 PUBLIC 'CODE'
_TEXT	ENDS
;	COMDAT ?push_back@?$list@EV?$allocator@E@_STL@@@_STL@@QAEXABE@Z
_TEXT	SEGMENT PARA USE32 PUBLIC 'CODE'
_TEXT	ENDS
;	COMDAT ?pop_front@?$list@EV?$allocator@E@_STL@@@_STL@@QAEXXZ
_TEXT	SEGMENT PARA USE32 PUBLIC 'CODE'
_TEXT	ENDS
;	COMDAT ??1?$list@EV?$allocator@E@_STL@@@_STL@@QAE@XZ
_TEXT	SEGMENT PARA USE32 PUBLIC 'CODE'
_TEXT	ENDS
;	COMDAT ??0?$allocator@E@_STL@@QAE@XZ
_TEXT	SEGMENT PARA USE32 PUBLIC 'CODE'
_TEXT	ENDS
;	COMDAT ??1?$allocator@E@_STL@@QAE@XZ
_TEXT	SEGMENT PARA USE32 PUBLIC 'CODE'
_TEXT	ENDS
;	COMDAT ??D?$_List_iterator@KU?$_Const_traits@K@_STL@@@_STL@@QBEABKXZ
_TEXT	SEGMENT PARA USE32 PUBLIC 'CODE'
_TEXT	ENDS
;	COMDAT ??E?$_List_iterator@KU?$_Const_traits@K@_STL@@@_STL@@QAE?AU01@H@Z
_TEXT	SEGMENT PARA USE32 PUBLIC 'CODE'
_TEXT	ENDS
;	COMDAT ??D?$_List_iterator@EU?$_Const_traits@E@_STL@@@_STL@@QBEABEXZ
_TEXT	SEGMENT PARA USE32 PUBLIC 'CODE'
_TEXT	ENDS
;	COMDAT ??E?$_List_iterator@EU?$_Const_traits@E@_STL@@@_STL@@QAE?AU01@H@Z
_TEXT	SEGMENT PARA USE32 PUBLIC 'CODE'
_TEXT	ENDS
;	COMDAT ?_M_terminate_string_aux@?$basic_string@DV?$char_traits@D@_STL@@V?$allocator@D@2@@_STL@@AAEXABU__true_type@2@@Z
_TEXT	SEGMENT PARA USE32 PUBLIC 'CODE'
_TEXT	ENDS
;	COMDAT ??0?$allocator@D@_STL@@QAE@ABV01@@Z
_TEXT	SEGMENT PARA USE32 PUBLIC 'CODE'
_TEXT	ENDS
;	COMDAT ??0?$_STLP_alloc_proxy@PADDV?$allocator@D@_STL@@@_STL@@QAE@ABV?$allocator@D@1@PAD@Z
_TEXT	SEGMENT PARA USE32 PUBLIC 'CODE'
_TEXT	ENDS
;	COMDAT ?state@?$fpos@H@_STL@@QAEXH@Z
_TEXT	SEGMENT PARA USE32 PUBLIC 'CODE'
_TEXT	ENDS
;	COMDAT ?get_allocator@?$_List_base@V?$basic_string@DV?$char_traits@D@_STL@@V?$allocator@D@2@@_STL@@V?$allocator@V?$basic_string@DV?$char_traits@D@_STL@@V?$allocator@D@2@@_STL@@@2@@_STL@@QBE?AV?$allocator@V?$basic_string@DV?$char_traits@D@_STL@@V?$allocator@D@2@@_STL@@@2@XZ
_TEXT	SEGMENT PARA USE32 PUBLIC 'CODE'
_TEXT	ENDS
;	COMDAT ?begin@?$list@KV?$allocator@K@_STL@@@_STL@@QAE?AU?$_List_iterator@KU?$_Nonconst_traits@K@_STL@@@2@XZ
_TEXT	SEGMENT PARA USE32 PUBLIC 'CODE'
_TEXT	ENDS
;	COMDAT ?end@?$list@KV?$allocator@K@_STL@@@_STL@@QAE?AU?$_List_iterator@KU?$_Nonconst_traits@K@_STL@@@2@XZ
_TEXT	SEGMENT PARA USE32 PUBLIC 'CODE'
_TEXT	ENDS
;	COMDAT ?insert@?$list@KV?$allocator@K@_STL@@@_STL@@QAE?AU?$_List_iterator@KU?$_Nonconst_traits@K@_STL@@@2@U32@ABK@Z
_TEXT	SEGMENT PARA USE32 PUBLIC 'CODE'
_TEXT	ENDS
;	COMDAT ?erase@?$list@KV?$allocator@K@_STL@@@_STL@@QAE?AU?$_List_iterator@KU?$_Nonconst_traits@K@_STL@@@2@U32@@Z
_TEXT	SEGMENT PARA USE32 PUBLIC 'CODE'
_TEXT	ENDS
;	COMDAT ??0?$_List_base@KV?$allocator@K@_STL@@@_STL@@QAE@ABV?$allocator@K@1@@Z
_TEXT	SEGMENT PARA USE32 PUBLIC 'CODE'
_TEXT	ENDS
;	COMDAT ??1?$_List_base@KV?$allocator@K@_STL@@@_STL@@QAE@XZ
_TEXT	SEGMENT PARA USE32 PUBLIC 'CODE'
_TEXT	ENDS
;	COMDAT ?begin@?$list@EV?$allocator@E@_STL@@@_STL@@QAE?AU?$_List_iterator@EU?$_Nonconst_traits@E@_STL@@@2@XZ
_TEXT	SEGMENT PARA USE32 PUBLIC 'CODE'
_TEXT	ENDS
;	COMDAT ?end@?$list@EV?$allocator@E@_STL@@@_STL@@QAE?AU?$_List_iterator@EU?$_Nonconst_traits@E@_STL@@@2@XZ
_TEXT	SEGMENT PARA USE32 PUBLIC 'CODE'
_TEXT	ENDS
;	COMDAT ?insert@?$list@EV?$allocator@E@_STL@@@_STL@@QAE?AU?$_List_iterator@EU?$_Nonconst_traits@E@_STL@@@2@U32@ABE@Z
_TEXT	SEGMENT PARA USE32 PUBLIC 'CODE'
_TEXT	ENDS
;	COMDAT ?erase@?$list@EV?$allocator@E@_STL@@@_STL@@QAE?AU?$_List_iterator@EU?$_Nonconst_traits@E@_STL@@@2@U32@@Z
_TEXT	SEGMENT PARA USE32 PUBLIC 'CODE'
_TEXT	ENDS
;	COMDAT ??0?$_List_base@EV?$allocator@E@_STL@@@_STL@@QAE@ABV?$allocator@E@1@@Z
_TEXT	SEGMENT PARA USE32 PUBLIC 'CODE'
_TEXT	ENDS
;	COMDAT ??1?$_List_base@EV?$allocator@E@_STL@@@_STL@@QAE@XZ
_TEXT	SEGMENT PARA USE32 PUBLIC 'CODE'
_TEXT	ENDS
;	COMDAT ??0?$_List_iterator@KU?$_Const_traits@K@_STL@@@_STL@@QAE@PAU?$_List_node@K@1@@Z
_TEXT	SEGMENT PARA USE32 PUBLIC 'CODE'
_TEXT	ENDS
;	COMDAT ??D?$_List_iterator@KU?$_Nonconst_traits@K@_STL@@@_STL@@QBEAAKXZ
_TEXT	SEGMENT PARA USE32 PUBLIC 'CODE'
_TEXT	ENDS
;	COMDAT ??0?$_List_iterator@EU?$_Const_traits@E@_STL@@@_STL@@QAE@PAU?$_List_node@E@1@@Z
_TEXT	SEGMENT PARA USE32 PUBLIC 'CODE'
_TEXT	ENDS
;	COMDAT ??D?$_List_iterator@EU?$_Nonconst_traits@E@_STL@@@_STL@@QBEAAEXZ
_TEXT	SEGMENT PARA USE32 PUBLIC 'CODE'
_TEXT	ENDS
;	COMDAT ??1?$_STLP_alloc_proxy@PAU?$_List_node@K@_STL@@U12@V?$allocator@U?$_List_node@K@_STL@@@2@@_STL@@QAE@XZ
_TEXT	SEGMENT PARA USE32 PUBLIC 'CODE'
_TEXT	ENDS
;	COMDAT ??1?$_STLP_alloc_proxy@PAU?$_List_node@E@_STL@@U12@V?$allocator@U?$_List_node@E@_STL@@@2@@_STL@@QAE@XZ
_TEXT	SEGMENT PARA USE32 PUBLIC 'CODE'
_TEXT	ENDS
;	COMDAT ?_M_create_node@?$list@KV?$allocator@K@_STL@@@_STL@@IAEPAU?$_List_node@K@2@ABK@Z
_TEXT	SEGMENT PARA USE32 PUBLIC 'CODE'
_TEXT	ENDS
;	COMDAT ??0?$_STLP_alloc_proxy@PAU?$_List_node@K@_STL@@U12@V?$allocator@U?$_List_node@K@_STL@@@2@@_STL@@QAE@ABV?$allocator@U?$_List_node@K@_STL@@@1@PAU?$_List_node@K@1@@Z
_TEXT	SEGMENT PARA USE32 PUBLIC 'CODE'
_TEXT	ENDS
;	COMDAT ??1?$allocator@U?$_List_node@K@_STL@@@_STL@@QAE@XZ
_TEXT	SEGMENT PARA USE32 PUBLIC 'CODE'
_TEXT	ENDS
;	COMDAT ?allocate@?$allocator@U?$_List_node@K@_STL@@@_STL@@QAEPAU?$_List_node@K@2@IPBX@Z
_TEXT	SEGMENT PARA USE32 PUBLIC 'CODE'
_TEXT	ENDS
;	COMDAT ?deallocate@?$allocator@U?$_List_node@K@_STL@@@_STL@@QAEXPAU?$_List_node@K@2@I@Z
_TEXT	SEGMENT PARA USE32 PUBLIC 'CODE'
_TEXT	ENDS
;	COMDAT ?_M_create_node@?$list@EV?$allocator@E@_STL@@@_STL@@IAEPAU?$_List_node@E@2@ABE@Z
_TEXT	SEGMENT PARA USE32 PUBLIC 'CODE'
_TEXT	ENDS
;	COMDAT ??0?$_STLP_alloc_proxy@PAU?$_List_node@E@_STL@@U12@V?$allocator@U?$_List_node@E@_STL@@@2@@_STL@@QAE@ABV?$allocator@U?$_List_node@E@_STL@@@1@PAU?$_List_node@E@1@@Z
_TEXT	SEGMENT PARA USE32 PUBLIC 'CODE'
_TEXT	ENDS
;	COMDAT ??1?$allocator@U?$_List_node@E@_STL@@@_STL@@QAE@XZ
_TEXT	SEGMENT PARA USE32 PUBLIC 'CODE'
_TEXT	ENDS
;	COMDAT ?allocate@?$allocator@U?$_List_node@E@_STL@@@_STL@@QAEPAU?$_List_node@E@2@IPBX@Z
_TEXT	SEGMENT PARA USE32 PUBLIC 'CODE'
_TEXT	ENDS
;	COMDAT ?deallocate@?$allocator@U?$_List_node@E@_STL@@@_STL@@QAEXPAU?$_List_node@E@2@I@Z
_TEXT	SEGMENT PARA USE32 PUBLIC 'CODE'
_TEXT	ENDS
;	COMDAT ??0?$_List_iterator@KU?$_Nonconst_traits@K@_STL@@@_STL@@QAE@PAU?$_List_node@K@1@@Z
_TEXT	SEGMENT PARA USE32 PUBLIC 'CODE'
_TEXT	ENDS
;	COMDAT ??0?$_List_iterator@EU?$_Nonconst_traits@E@_STL@@@_STL@@QAE@PAU?$_List_node@E@1@@Z
_TEXT	SEGMENT PARA USE32 PUBLIC 'CODE'
_TEXT	ENDS
;	COMDAT ??0?$allocator@U?$_List_node@K@_STL@@@_STL@@QAE@ABV01@@Z
_TEXT	SEGMENT PARA USE32 PUBLIC 'CODE'
_TEXT	ENDS
;	COMDAT ??0?$allocator@U?$_List_node@E@_STL@@@_STL@@QAE@ABV01@@Z
_TEXT	SEGMENT PARA USE32 PUBLIC 'CODE'
_TEXT	ENDS
;	COMDAT ??$_M_range_initialize@PBD@?$basic_string@DV?$char_traits@D@_STL@@V?$allocator@D@2@@_STL@@AAEXPBD0@Z
_TEXT	SEGMENT PARA USE32 PUBLIC 'CODE'
_TEXT	ENDS
;	COMDAT ??$_M_range_initialize@PAD@?$basic_string@DV?$char_traits@D@_STL@@V?$allocator@D@2@@_STL@@AAEXPAD0@Z
_TEXT	SEGMENT PARA USE32 PUBLIC 'CODE'
_TEXT	ENDS
;	COMDAT ?close@?$basic_filebuf@DV?$char_traits@D@_STL@@@_STL@@QAEPAV12@XZ
_TEXT	SEGMENT PARA USE32 PUBLIC 'CODE'
_TEXT	ENDS
;	COMDAT ?_M_exit_input_mode@?$basic_filebuf@DV?$char_traits@D@_STL@@@_STL@@AAEXXZ
_TEXT	SEGMENT PARA USE32 PUBLIC 'CODE'
_TEXT	ENDS
;	COMDAT ?_M_switch_to_output_mode@?$basic_filebuf@DV?$char_traits@D@_STL@@@_STL@@AAE_NXZ
_TEXT	SEGMENT PARA USE32 PUBLIC 'CODE'
_TEXT	ENDS
;	COMDAT ?_M_output_error@?$basic_filebuf@DV?$char_traits@D@_STL@@@_STL@@AAEHXZ
_TEXT	SEGMENT PARA USE32 PUBLIC 'CODE'
_TEXT	ENDS
;	COMDAT ?_M_allocate_buffers@?$basic_filebuf@DV?$char_traits@D@_STL@@@_STL@@AAE_NPADH@Z
_TEXT	SEGMENT PARA USE32 PUBLIC 'CODE'
_TEXT	ENDS
;	COMDAT ?_M_deallocate_buffers@?$basic_filebuf@DV?$char_traits@D@_STL@@@_STL@@AAEXXZ
_TEXT	SEGMENT PARA USE32 PUBLIC 'CODE'
_TEXT	ENDS
;	COMDAT ?_M_seek_init@?$basic_filebuf@DV?$char_traits@D@_STL@@@_STL@@AAE_N_N@Z
_TEXT	SEGMENT PARA USE32 PUBLIC 'CODE'
_TEXT	ENDS
;	COMDAT ?_M_setup_codecvt@?$basic_filebuf@DV?$char_traits@D@_STL@@@_STL@@AAEXABVlocale@2@@Z
_TEXT	SEGMENT PARA USE32 PUBLIC 'CODE'
_TEXT	ENDS
;	COMDAT ??$equal@PADPADU?$_Eq_traits@V?$char_traits@D@_STL@@@_STL@@@_STL@@YA_NPAD00U?$_Eq_traits@V?$char_traits@D@_STL@@@0@@Z
_TEXT	SEGMENT PARA USE32 PUBLIC 'CODE'
_TEXT	ENDS
;	COMDAT ??$_Destroy@V?$basic_string@DV?$char_traits@D@_STL@@V?$allocator@D@2@@_STL@@@_STL@@YAXPAV?$basic_string@DV?$char_traits@D@_STL@@V?$allocator@D@2@@0@@Z
_TEXT	SEGMENT PARA USE32 PUBLIC 'CODE'
_TEXT	ENDS
;	COMDAT ??$_M_assign_dispatch@PAD@?$basic_string@DV?$char_traits@D@_STL@@V?$allocator@D@2@@_STL@@AAEAAV01@PAD0ABU__false_type@1@@Z
_TEXT	SEGMENT PARA USE32 PUBLIC 'CODE'
_TEXT	ENDS
;	COMDAT ?clear@?$_List_base@KV?$allocator@K@_STL@@@_STL@@QAEXXZ
_TEXT	SEGMENT PARA USE32 PUBLIC 'CODE'
_TEXT	ENDS
;	COMDAT ?clear@?$_List_base@EV?$allocator@E@_STL@@@_STL@@QAEXXZ
_TEXT	SEGMENT PARA USE32 PUBLIC 'CODE'
_TEXT	ENDS
;	COMDAT ??$insert@U?$_List_iterator@V?$basic_string@DV?$char_traits@D@_STL@@V?$allocator@D@2@@_STL@@U?$_Const_traits@V?$basic_string@DV?$char_traits@D@_STL@@V?$allocator@D@2@@_STL@@@2@@_STL@@@?$list@V?$basic_string@DV?$char_traits@D@_STL@@V?$allocator@D@2@@_STL@@V?$allocator@V?$basic_string@DV?$char_traits@D@_STL@@V?$allocator@D@2@@_STL@@@2@@_STL@@QAEXU?$_List_iterator@V?$basic_string@DV?$char_traits@D@_STL@@V?$allocator@D@2@@_STL@@U?$_Nonconst_traits@V?$basic_string@DV?$char_traits@D@_STL@@V?$allocator@D@2@@_STL@@@2@@1@U?$_List_iterator@V?$basic_string@DV?$char_traits@D@_STL@@V?$allocator@D@2@@_STL@@U?$_Const_traits@V?$basic_string@DV?$char_traits@D@_STL@@V?$allocator@D@2@@_STL@@@2@@1@1@Z
_TEXT	SEGMENT PARA USE32 PUBLIC 'CODE'
_TEXT	ENDS
;	COMDAT ??$?0U?$_List_node@V?$basic_string@DV?$char_traits@D@_STL@@V?$allocator@D@2@@_STL@@@_STL@@@?$allocator@V?$basic_string@DV?$char_traits@D@_STL@@V?$allocator@D@2@@_STL@@@_STL@@QAE@ABV?$allocator@U?$_List_node@V?$basic_string@DV?$char_traits@D@_STL@@V?$allocator@D@2@@_STL@@@_STL@@@1@@Z
_TEXT	SEGMENT PARA USE32 PUBLIC 'CODE'
_TEXT	ENDS
;	COMDAT ??$_Destroy@K@_STL@@YAXPAK@Z
_TEXT	SEGMENT PARA USE32 PUBLIC 'CODE'
_TEXT	ENDS
;	COMDAT ??$?0K@?$allocator@U?$_List_node@K@_STL@@@_STL@@QAE@ABV?$allocator@K@1@@Z
_TEXT	SEGMENT PARA USE32 PUBLIC 'CODE'
_TEXT	ENDS
;	COMDAT ??$_Destroy@E@_STL@@YAXPAE@Z
_TEXT	SEGMENT PARA USE32 PUBLIC 'CODE'
_TEXT	ENDS
;	COMDAT ??$?0E@?$allocator@U?$_List_node@E@_STL@@@_STL@@QAE@ABV?$allocator@E@1@@Z
_TEXT	SEGMENT PARA USE32 PUBLIC 'CODE'
_TEXT	ENDS
;	COMDAT ??$_Construct@KK@_STL@@YAXPAKABK@Z
_TEXT	SEGMENT PARA USE32 PUBLIC 'CODE'
_TEXT	ENDS
;	COMDAT ??$_Construct@EE@_STL@@YAXPAEABE@Z
_TEXT	SEGMENT PARA USE32 PUBLIC 'CODE'
_TEXT	ENDS
;	COMDAT ??_G?$basic_string@DV?$char_traits@D@_STL@@V?$allocator@D@2@@_STL@@QAEPAXI@Z
_TEXT	SEGMENT PARA USE32 PUBLIC 'CODE'
_TEXT	ENDS
;	COMDAT ?end@?$basic_string@DV?$char_traits@D@_STL@@V?$allocator@D@2@@_STL@@QAEPADXZ
_TEXT	SEGMENT PARA USE32 PUBLIC 'CODE'
_TEXT	ENDS
;	COMDAT ?erase@?$basic_string@DV?$char_traits@D@_STL@@V?$allocator@D@2@@_STL@@QAEPADPAD0@Z
_TEXT	SEGMENT PARA USE32 PUBLIC 'CODE'
_TEXT	ENDS
;	COMDAT ?_M_exit_putback_mode@?$basic_filebuf@DV?$char_traits@D@_STL@@@_STL@@AAEXXZ
_TEXT	SEGMENT PARA USE32 PUBLIC 'CODE'
_TEXT	ENDS
;	COMDAT ??0?$_List_iterator@V?$basic_string@DV?$char_traits@D@_STL@@V?$allocator@D@2@@_STL@@U?$_Nonconst_traits@V?$basic_string@DV?$char_traits@D@_STL@@V?$allocator@D@2@@_STL@@@2@@_STL@@QAE@ABU01@@Z
_TEXT	SEGMENT PARA USE32 PUBLIC 'CODE'
_TEXT	ENDS
;	COMDAT ??R?$_Eq_traits@V?$char_traits@D@_STL@@@_STL@@QBE_NABD0@Z
_TEXT	SEGMENT PARA USE32 PUBLIC 'CODE'
_TEXT	ENDS
;	COMDAT ?move@?$__char_traits_base@DH@_STL@@SAPADPADPBDI@Z
_TEXT	SEGMENT PARA USE32 PUBLIC 'CODE'
_TEXT	ENDS
;	COMDAT ??$_M_range_initialize@PBD@?$basic_string@DV?$char_traits@D@_STL@@V?$allocator@D@2@@_STL@@AAEXPBD0ABUforward_iterator_tag@1@@Z
_TEXT	SEGMENT PARA USE32 PUBLIC 'CODE'
_TEXT	ENDS
;	COMDAT ??$_M_range_initialize@PAD@?$basic_string@DV?$char_traits@D@_STL@@V?$allocator@D@2@@_STL@@AAEXPAD0ABUforward_iterator_tag@1@@Z
_TEXT	SEGMENT PARA USE32 PUBLIC 'CODE'
_TEXT	ENDS
;	COMDAT ?_M_unshift@?$basic_filebuf@DV?$char_traits@D@_STL@@@_STL@@AAE_NXZ
_TEXT	SEGMENT PARA USE32 PUBLIC 'CODE'
_TEXT	ENDS
;	COMDAT ?_M_allocate_buffers@?$basic_filebuf@DV?$char_traits@D@_STL@@@_STL@@AAE_NXZ
_TEXT	SEGMENT PARA USE32 PUBLIC 'CODE'
_TEXT	ENDS
;	COMDAT ??$max@H@_STL@@YAABHABH0@Z
_TEXT	SEGMENT PARA USE32 PUBLIC 'CODE'
_TEXT	ENDS
;	COMDAT ??$use_facet@V?$codecvt@DDH@_STL@@@_STL@@YAABV?$codecvt@DDH@0@ABVlocale@0@@Z
_TEXT	SEGMENT PARA USE32 PUBLIC 'CODE'
_TEXT	ENDS
;	COMDAT ??$append@PAD@?$basic_string@DV?$char_traits@D@_STL@@V?$allocator@D@2@@_STL@@QAEAAV01@PAD0@Z
_TEXT	SEGMENT PARA USE32 PUBLIC 'CODE'
_TEXT	ENDS
;	COMDAT ??$_M_insert_dispatch@U?$_List_iterator@V?$basic_string@DV?$char_traits@D@_STL@@V?$allocator@D@2@@_STL@@U?$_Const_traits@V?$basic_string@DV?$char_traits@D@_STL@@V?$allocator@D@2@@_STL@@@2@@_STL@@@?$list@V?$basic_string@DV?$char_traits@D@_STL@@V?$allocator@D@2@@_STL@@V?$allocator@V?$basic_string@DV?$char_traits@D@_STL@@V?$allocator@D@2@@_STL@@@2@@_STL@@QAEXU?$_List_iterator@V?$basic_string@DV?$char_traits@D@_STL@@V?$allocator@D@2@@_STL@@U?$_Nonconst_traits@V?$basic_string@DV?$char_traits@D@_STL@@V?$allocator@D@2@@_STL@@@2@@1@U?$_List_iterator@V?$basic_string@DV?$char_traits@D@_STL@@V?$allocator@D@2@@_STL@@U?$_Const_traits@V?$basic_string@DV?$char_traits@D@_STL@@V?$allocator@D@2@@_STL@@@2@@1@1ABU__false_type@1@@Z
_TEXT	SEGMENT PARA USE32 PUBLIC 'CODE'
_TEXT	ENDS
;	COMDAT ??E?$_List_iterator@V?$basic_string@DV?$char_traits@D@_STL@@V?$allocator@D@2@@_STL@@U?$_Const_traits@V?$basic_string@DV?$char_traits@D@_STL@@V?$allocator@D@2@@_STL@@@2@@_STL@@QAEAAU01@XZ
_TEXT	SEGMENT PARA USE32 PUBLIC 'CODE'
_TEXT	ENDS
;	COMDAT ??$distance@PBD@_STL@@YAHABQBD0@Z
_TEXT	SEGMENT PARA USE32 PUBLIC 'CODE'
_TEXT	ENDS
;	COMDAT ?_M_allocate_block@?$_String_base@DV?$allocator@D@_STL@@@_STL@@QAEXI@Z
_TEXT	SEGMENT PARA USE32 PUBLIC 'CODE'
_TEXT	ENDS
;	COMDAT ??$distance@PAD@_STL@@YAHABQAD0@Z
_TEXT	SEGMENT PARA USE32 PUBLIC 'CODE'
_TEXT	ENDS
;	COMDAT ??$uninitialized_copy@PADPAD@_STL@@YAPADPAD00@Z
_TEXT	SEGMENT PARA USE32 PUBLIC 'CODE'
_TEXT	ENDS
;	COMDAT ??$_M_append_dispatch@PAD@?$basic_string@DV?$char_traits@D@_STL@@V?$allocator@D@2@@_STL@@AAEAAV01@PAD0ABU__false_type@1@@Z
_TEXT	SEGMENT PARA USE32 PUBLIC 'CODE'
_TEXT	ENDS
;	COMDAT ?max_size@?$_String_base@DV?$allocator@D@_STL@@@_STL@@QBEIXZ
_TEXT	SEGMENT PARA USE32 PUBLIC 'CODE'
_TEXT	ENDS
;	COMDAT ??$__distance@PBD@_STL@@YAHABQBD0ABUrandom_access_iterator_tag@0@@Z
_TEXT	SEGMENT PARA USE32 PUBLIC 'CODE'
_TEXT	ENDS
;	COMDAT ?_M_throw_length_error@?$_String_base@DV?$allocator@D@_STL@@@_STL@@QBEXXZ
_TEXT	SEGMENT PARA USE32 PUBLIC 'CODE'
_TEXT	ENDS
;	COMDAT ??$__distance@PAD@_STL@@YAHABQAD0ABUrandom_access_iterator_tag@0@@Z
_TEXT	SEGMENT PARA USE32 PUBLIC 'CODE'
_TEXT	ENDS
;	COMDAT ??$__uninitialized_copy@PADPAD@_STL@@YAPADPAD00ABU__true_type@0@@Z
_TEXT	SEGMENT PARA USE32 PUBLIC 'CODE'
_TEXT	ENDS
;	COMDAT ??$append@PAD@?$basic_string@DV?$char_traits@D@_STL@@V?$allocator@D@2@@_STL@@AAEAAV01@PAD0ABUforward_iterator_tag@1@@Z
_TEXT	SEGMENT PARA USE32 PUBLIC 'CODE'
_TEXT	ENDS
;	COMDAT ?_M_construct_null@?$basic_string@DV?$char_traits@D@_STL@@V?$allocator@D@2@@_STL@@AAEXPAD@Z
_TEXT	SEGMENT PARA USE32 PUBLIC 'CODE'
_TEXT	ENDS
;	COMDAT ?max_size@?$basic_string@DV?$char_traits@D@_STL@@V?$allocator@D@2@@_STL@@QBEIXZ
_TEXT	SEGMENT PARA USE32 PUBLIC 'CODE'
_TEXT	ENDS
;	COMDAT ?capacity@?$basic_string@DV?$char_traits@D@_STL@@V?$allocator@D@2@@_STL@@QBEIXZ
_TEXT	SEGMENT PARA USE32 PUBLIC 'CODE'
_TEXT	ENDS
;	COMDAT ?_Ret@?$_BothPtrType@PADPAD@_STL@@SA?AU__true_type@2@XZ
_TEXT	SEGMENT PARA USE32 PUBLIC 'CODE'
_TEXT	ENDS
;	COMDAT ?_M_construct_null_aux@?$basic_string@DV?$char_traits@D@_STL@@V?$allocator@D@2@@_STL@@AAEXPADABU__true_type@2@@Z
_TEXT	SEGMENT PARA USE32 PUBLIC 'CODE'
_TEXT	ENDS
;	COMDAT ??$__copy_aux@PADPAD@_STL@@YAPADPAD00ABU__true_type@0@@Z
_TEXT	SEGMENT PARA USE32 PUBLIC 'CODE'
_TEXT	ENDS
;	COMDAT ??$max@I@_STL@@YAABIABI0@Z
_TEXT	SEGMENT PARA USE32 PUBLIC 'CODE'
_TEXT	ENDS
;	COMDAT ?_Ret@?$_OKToMemCpy@DD@_STL@@SA?AU__true_type@2@XZ
_TEXT	SEGMENT PARA USE32 PUBLIC 'CODE'
_TEXT	ENDS
;	COMDAT ??$_IsOKToMemCpy@DD@_STL@@YA?AU?$_OKToMemCpy@DD@0@PAD0@Z
_TEXT	SEGMENT PARA USE32 PUBLIC 'CODE'
_TEXT	ENDS
;	COMDAT ??$__copy_ptrs@PADPAD@_STL@@YAPADPAD00ABU__true_type@0@@Z
_TEXT	SEGMENT PARA USE32 PUBLIC 'CODE'
_TEXT	ENDS
;	COMDAT ??_R3Packet@@8
rdata$r	SEGMENT DWORD USE32 PUBLIC 'CONST'
rdata$r	ENDS
;	COMDAT ??_R3PacketFactory@@8
rdata$r	SEGMENT DWORD USE32 PUBLIC 'CONST'
rdata$r	ENDS
;	COMDAT ??_R2Packet@@8
rdata$r	SEGMENT DWORD USE32 PUBLIC 'CONST'
rdata$r	ENDS
;	COMDAT ??_R2PacketFactory@@8
rdata$r	SEGMENT DWORD USE32 PUBLIC 'CONST'
rdata$r	ENDS
;	COMDAT ??_R1A@?0A@A@Packet@@8
rdata$r	SEGMENT DWORD USE32 PUBLIC 'CONST'
rdata$r	ENDS
;	COMDAT ??_R1A@?0A@A@PacketFactory@@8
rdata$r	SEGMENT DWORD USE32 PUBLIC 'CONST'
rdata$r	ENDS
;	COMDAT ??_R0?AVPacket@@@8
_DATA	SEGMENT DWORD USE32 PUBLIC 'DATA'
_DATA	ENDS
;	COMDAT ??_R0?AVPacketFactory@@@8
_DATA	SEGMENT DWORD USE32 PUBLIC 'DATA'
_DATA	ENDS
;	COMDAT ??_R4Packet@@6B@
rdata$r	SEGMENT DWORD USE32 PUBLIC 'CONST'
rdata$r	ENDS
;	COMDAT ??_R4PacketFactory@@6B@
rdata$r	SEGMENT DWORD USE32 PUBLIC 'CONST'
rdata$r	ENDS
;	COMDAT ?__copy_trivial@_STL@@YAPAXPBX0PAX@Z
_TEXT	SEGMENT PARA USE32 PUBLIC 'CODE'
_TEXT	ENDS
;	COMDAT ?_M_deallocate_block@?$_String_base@DV?$allocator@D@_STL@@@_STL@@QAEXXZ
_TEXT	SEGMENT PARA USE32 PUBLIC 'CODE'
_TEXT	ENDS
;	COMDAT ?deallocate@?$allocator@D@_STL@@QAEXPADI@Z
_TEXT	SEGMENT PARA USE32 PUBLIC 'CODE'
_TEXT	ENDS
;	COMDAT ??D?$_List_iterator@V?$basic_string@DV?$char_traits@D@_STL@@V?$allocator@D@2@@_STL@@U?$_Const_traits@V?$basic_string@DV?$char_traits@D@_STL@@V?$allocator@D@2@@_STL@@@2@@_STL@@QBEABV?$basic_string@DV?$char_traits@D@_STL@@V?$allocator@D@2@@1@XZ
_TEXT	SEGMENT PARA USE32 PUBLIC 'CODE'
_TEXT	ENDS
;	COMDAT ?insert@?$list@V?$basic_string@DV?$char_traits@D@_STL@@V?$allocator@D@2@@_STL@@V?$allocator@V?$basic_string@DV?$char_traits@D@_STL@@V?$allocator@D@2@@_STL@@@2@@_STL@@QAE?AU?$_List_iterator@V?$basic_string@DV?$char_traits@D@_STL@@V?$allocator@D@2@@_STL@@U?$_Nonconst_traits@V?$basic_string@DV?$char_traits@D@_STL@@V?$allocator@D@2@@_STL@@@2@@2@U32@ABV?$basic_string@DV?$char_traits@D@_STL@@V?$allocator@D@2@@2@@Z
_TEXT	SEGMENT PARA USE32 PUBLIC 'CODE'
_TEXT	ENDS
;	COMDAT ?_M_create_node@?$list@V?$basic_string@DV?$char_traits@D@_STL@@V?$allocator@D@2@@_STL@@V?$allocator@V?$basic_string@DV?$char_traits@D@_STL@@V?$allocator@D@2@@_STL@@@2@@_STL@@IAEPAU?$_List_node@V?$basic_string@DV?$char_traits@D@_STL@@V?$allocator@D@2@@_STL@@@2@ABV?$basic_string@DV?$char_traits@D@_STL@@V?$allocator@D@2@@2@@Z
_TEXT	SEGMENT PARA USE32 PUBLIC 'CODE'
_TEXT	ENDS
;	COMDAT ?allocate@?$allocator@U?$_List_node@V?$basic_string@DV?$char_traits@D@_STL@@V?$allocator@D@2@@_STL@@@_STL@@@_STL@@QAEPAU?$_List_node@V?$basic_string@DV?$char_traits@D@_STL@@V?$allocator@D@2@@_STL@@@2@IPBX@Z
_TEXT	SEGMENT PARA USE32 PUBLIC 'CODE'
_TEXT	ENDS
;	COMDAT ??$_Construct@V?$basic_string@DV?$char_traits@D@_STL@@V?$allocator@D@2@@_STL@@V12@@_STL@@YAXPAV?$basic_string@DV?$char_traits@D@_STL@@V?$allocator@D@2@@0@ABV10@@Z
_TEXT	SEGMENT PARA USE32 PUBLIC 'CODE'
_TEXT	ENDS
;	COMDAT ??3@YAXPAX0@Z
_TEXT	SEGMENT PARA USE32 PUBLIC 'CODE'
_TEXT	ENDS
;	COMDAT ?deallocate@?$allocator@U?$_List_node@V?$basic_string@DV?$char_traits@D@_STL@@V?$allocator@D@2@@_STL@@@_STL@@@_STL@@QAEXPAU?$_List_node@V?$basic_string@DV?$char_traits@D@_STL@@V?$allocator@D@2@@_STL@@@2@I@Z
_TEXT	SEGMENT PARA USE32 PUBLIC 'CODE'
_TEXT	ENDS
;	COMDAT ??0?$_List_iterator@V?$basic_string@DV?$char_traits@D@_STL@@V?$allocator@D@2@@_STL@@U?$_Nonconst_traits@V?$basic_string@DV?$char_traits@D@_STL@@V?$allocator@D@2@@_STL@@@2@@_STL@@QAE@PAU?$_List_node@V?$basic_string@DV?$char_traits@D@_STL@@V?$allocator@D@2@@_STL@@@1@@Z
_TEXT	SEGMENT PARA USE32 PUBLIC 'CODE'
_TEXT	ENDS
;	COMDAT ?__page_size@_Filebuf_base@_STL@@SAIXZ
_TEXT	SEGMENT PARA USE32 PUBLIC 'CODE'
_TEXT	ENDS
;	COMDAT ?_M_write@?$basic_filebuf@DV?$char_traits@D@_STL@@@_STL@@QAE_NPADH@Z
_TEXT	SEGMENT PARA USE32 PUBLIC 'CODE'
_TEXT	ENDS
;	COMDAT ?unshift@?$codecvt@DDH@_STL@@QBE?AW4result@codecvt_base@2@AAHPAD1AAPAD@Z
_TEXT	SEGMENT PARA USE32 PUBLIC 'CODE'
_TEXT	ENDS
;	COMDAT ?uninitialized_copy@_STL@@YAPADPBD0PAD@Z
_TEXT	SEGMENT PARA USE32 PUBLIC 'CODE'
_TEXT	ENDS
;	COMDAT ?_Destroy@_STL@@YAXPAD0@Z
_TEXT	SEGMENT PARA USE32 PUBLIC 'CODE'
_TEXT	ENDS
;	COMDAT ??2@YAPAXIPAX@Z
_TEXT	SEGMENT PARA USE32 PUBLIC 'CODE'
_TEXT	ENDS
;	COMDAT ?assign@?$char_traits@D@_STL@@SAXAADABD@Z
_TEXT	SEGMENT PARA USE32 PUBLIC 'CODE'
_TEXT	ENDS
;	COMDAT ?always_noconv@?$codecvt@DDH@_STL@@QBE_NXZ
_TEXT	SEGMENT PARA USE32 PUBLIC 'CODE'
_TEXT	ENDS
;	COMDAT ?encoding@?$codecvt@DDH@_STL@@QBEHXZ
_TEXT	SEGMENT PARA USE32 PUBLIC 'CODE'
_TEXT	ENDS
;	COMDAT ?max_length@?$codecvt@DDH@_STL@@QBEHXZ
_TEXT	SEGMENT PARA USE32 PUBLIC 'CODE'
_TEXT	ENDS
;	COMDAT ?__o_mode@_Filebuf_base@_STL@@QBEHXZ
_TEXT	SEGMENT PARA USE32 PUBLIC 'CODE'
_TEXT	ENDS
;	COMDAT ?deallocate@?$__node_alloc@$00$0A@@_STL@@SAXPAXI@Z
_TEXT	SEGMENT PARA USE32 PUBLIC 'CODE'
_TEXT	ENDS
;	COMDAT ?__stl_delete@_STL@@YAXPAX@Z
_TEXT	SEGMENT PARA USE32 PUBLIC 'CODE'
_TEXT	ENDS
;	COMDAT ??0_List_iterator_base@_STL@@QAE@PAU_List_node_base@1@@Z
_TEXT	SEGMENT PARA USE32 PUBLIC 'CODE'
_TEXT	ENDS
;	COMDAT ?_M_incr@_List_iterator_base@_STL@@QAEXXZ
_TEXT	SEGMENT PARA USE32 PUBLIC 'CODE'
_TEXT	ENDS
;	COMDAT ?begin@?$list@V?$basic_string@DV?$char_traits@D@_STL@@V?$allocator@D@2@@_STL@@V?$allocator@V?$basic_string@DV?$char_traits@D@_STL@@V?$allocator@D@2@@_STL@@@2@@_STL@@QAE?AU?$_List_iterator@V?$basic_string@DV?$char_traits@D@_STL@@V?$allocator@D@2@@_STL@@U?$_Nonconst_traits@V?$basic_string@DV?$char_traits@D@_STL@@V?$allocator@D@2@@_STL@@@2@@2@XZ
_TEXT	SEGMENT PARA USE32 PUBLIC 'CODE'
_TEXT	ENDS
;	COMDAT ?begin@?$list@V?$basic_string@DV?$char_traits@D@_STL@@V?$allocator@D@2@@_STL@@V?$allocator@V?$basic_string@DV?$char_traits@D@_STL@@V?$allocator@D@2@@_STL@@@2@@_STL@@QBE?AU?$_List_iterator@V?$basic_string@DV?$char_traits@D@_STL@@V?$allocator@D@2@@_STL@@U?$_Const_traits@V?$basic_string@DV?$char_traits@D@_STL@@V?$allocator@D@2@@_STL@@@2@@2@XZ
_TEXT	SEGMENT PARA USE32 PUBLIC 'CODE'
_TEXT	ENDS
;	COMDAT ??0?$_List_iterator@V?$basic_string@DV?$char_traits@D@_STL@@V?$allocator@D@2@@_STL@@U?$_Const_traits@V?$basic_string@DV?$char_traits@D@_STL@@V?$allocator@D@2@@_STL@@@2@@_STL@@QAE@PAU?$_List_node@V?$basic_string@DV?$char_traits@D@_STL@@V?$allocator@D@2@@_STL@@@1@@Z
_TEXT	SEGMENT PARA USE32 PUBLIC 'CODE'
_TEXT	ENDS
;	COMDAT ?end@?$list@V?$basic_string@DV?$char_traits@D@_STL@@V?$allocator@D@2@@_STL@@V?$allocator@V?$basic_string@DV?$char_traits@D@_STL@@V?$allocator@D@2@@_STL@@@2@@_STL@@QBE?AU?$_List_iterator@V?$basic_string@DV?$char_traits@D@_STL@@V?$allocator@D@2@@_STL@@U?$_Const_traits@V?$basic_string@DV?$char_traits@D@_STL@@V?$allocator@D@2@@_STL@@@2@@2@XZ
_TEXT	SEGMENT PARA USE32 PUBLIC 'CODE'
_TEXT	ENDS
;	COMDAT ??1?$_List_base@V?$basic_string@DV?$char_traits@D@_STL@@V?$allocator@D@2@@_STL@@V?$allocator@V?$basic_string@DV?$char_traits@D@_STL@@V?$allocator@D@2@@_STL@@@2@@_STL@@QAE@XZ
_TEXT	SEGMENT PARA USE32 PUBLIC 'CODE'
_TEXT	ENDS
;	COMDAT ??1?$_STLP_alloc_proxy@PAU?$_List_node@V?$basic_string@DV?$char_traits@D@_STL@@V?$allocator@D@2@@_STL@@@_STL@@U12@V?$allocator@U?$_List_node@V?$basic_string@DV?$char_traits@D@_STL@@V?$allocator@D@2@@_STL@@@_STL@@@2@@_STL@@QAE@XZ
_TEXT	SEGMENT PARA USE32 PUBLIC 'CODE'
_TEXT	ENDS
;	COMDAT ??1?$allocator@U?$_List_node@V?$basic_string@DV?$char_traits@D@_STL@@V?$allocator@D@2@@_STL@@@_STL@@@_STL@@QAE@XZ
_TEXT	SEGMENT PARA USE32 PUBLIC 'CODE'
_TEXT	ENDS
;	COMDAT ?clear@?$_List_base@V?$basic_string@DV?$char_traits@D@_STL@@V?$allocator@D@2@@_STL@@V?$allocator@V?$basic_string@DV?$char_traits@D@_STL@@V?$allocator@D@2@@_STL@@@2@@_STL@@QAEXXZ
_TEXT	SEGMENT PARA USE32 PUBLIC 'CODE'
_TEXT	ENDS
;	COMDAT ??1?$allocator@V?$basic_string@DV?$char_traits@D@_STL@@V?$allocator@D@2@@_STL@@@_STL@@QAE@XZ
_TEXT	SEGMENT PARA USE32 PUBLIC 'CODE'
_TEXT	ENDS
;	COMDAT ??0?$_List_base@V?$basic_string@DV?$char_traits@D@_STL@@V?$allocator@D@2@@_STL@@V?$allocator@V?$basic_string@DV?$char_traits@D@_STL@@V?$allocator@D@2@@_STL@@@2@@_STL@@QAE@ABV?$allocator@V?$basic_string@DV?$char_traits@D@_STL@@V?$allocator@D@2@@_STL@@@1@@Z
_TEXT	SEGMENT PARA USE32 PUBLIC 'CODE'
_TEXT	ENDS
;	COMDAT ??0?$_STLP_alloc_proxy@PAU?$_List_node@V?$basic_string@DV?$char_traits@D@_STL@@V?$allocator@D@2@@_STL@@@_STL@@U12@V?$allocator@U?$_List_node@V?$basic_string@DV?$char_traits@D@_STL@@V?$allocator@D@2@@_STL@@@_STL@@@2@@_STL@@QAE@ABV?$allocator@U?$_List_node@V?$basic_string@DV?$char_traits@D@_STL@@V?$allocator@D@2@@_STL@@@_STL@@@1@PAU?$_List_node@V?$basic_string@DV?$char_traits@D@_STL@@V?$allocator@D@2@@_STL@@@1@@Z
_TEXT	SEGMENT PARA USE32 PUBLIC 'CODE'
_TEXT	ENDS
;	COMDAT ??0?$allocator@U?$_List_node@V?$basic_string@DV?$char_traits@D@_STL@@V?$allocator@D@2@@_STL@@@_STL@@@_STL@@QAE@ABV01@@Z
_TEXT	SEGMENT PARA USE32 PUBLIC 'CODE'
_TEXT	ENDS
;	COMDAT ??$?0V?$basic_string@DV?$char_traits@D@_STL@@V?$allocator@D@2@@_STL@@@?$allocator@U?$_List_node@V?$basic_string@DV?$char_traits@D@_STL@@V?$allocator@D@2@@_STL@@@_STL@@@_STL@@QAE@ABV?$allocator@V?$basic_string@DV?$char_traits@D@_STL@@V?$allocator@D@2@@_STL@@@1@@Z
_TEXT	SEGMENT PARA USE32 PUBLIC 'CODE'
_TEXT	ENDS
;	COMDAT ?setp@?$basic_streambuf@DV?$char_traits@D@_STL@@@_STL@@IAEXPAD0@Z
_TEXT	SEGMENT PARA USE32 PUBLIC 'CODE'
_TEXT	ENDS
;	COMDAT ?_FILE_O_set@_STL@@YAXPAU_iobuf@@PAD11@Z
_TEXT	SEGMENT PARA USE32 PUBLIC 'CODE'
_TEXT	ENDS
;	COMDAT ?_FILE_I_set@_STL@@YAXPAU_iobuf@@PAD11@Z
_TEXT	SEGMENT PARA USE32 PUBLIC 'CODE'
_TEXT	ENDS
;	COMDAT ?setg@?$basic_streambuf@DV?$char_traits@D@_STL@@@_STL@@IAEXPAD00@Z
_TEXT	SEGMENT PARA USE32 PUBLIC 'CODE'
_TEXT	ENDS
;	COMDAT ?__is_open@_Filebuf_base@_STL@@QBE_NXZ
_TEXT	SEGMENT PARA USE32 PUBLIC 'CODE'
_TEXT	ENDS
;	COMDAT ?allocate@?$__node_alloc@$00$0A@@_STL@@SAPAXI@Z
_TEXT	SEGMENT PARA USE32 PUBLIC 'CODE'
_TEXT	ENDS
;	COMDAT ?__stl_new@_STL@@YAPAXI@Z
_TEXT	SEGMENT PARA USE32 PUBLIC 'CODE'
_TEXT	ENDS
;	COMDAT ??1?$_STLP_alloc_proxy@PADDV?$allocator@D@_STL@@@_STL@@QAE@XZ
_TEXT	SEGMENT PARA USE32 PUBLIC 'CODE'
_TEXT	ENDS
;	COMDAT ??1?$allocator@D@_STL@@QAE@XZ
_TEXT	SEGMENT PARA USE32 PUBLIC 'CODE'
_TEXT	ENDS
;	COMDAT ?eof@?$__char_traits_base@DH@_STL@@SAHXZ
_TEXT	SEGMENT PARA USE32 PUBLIC 'CODE'
_TEXT	ENDS
;	COMDAT ??9_List_iterator_base@_STL@@QBE_NABU01@@Z
_TEXT	SEGMENT PARA USE32 PUBLIC 'CODE'
_TEXT	ENDS
;	COMDAT ??_7PacketFactory@@6B@
CONST	SEGMENT DWORD USE32 PUBLIC 'CONST'
CONST	ENDS
;	COMDAT ??1?$list@V?$basic_string@DV?$char_traits@D@_STL@@V?$allocator@D@2@@_STL@@V?$allocator@V?$basic_string@DV?$char_traits@D@_STL@@V?$allocator@D@2@@_STL@@@2@@_STL@@QAE@XZ
_TEXT	SEGMENT PARA USE32 PUBLIC 'CODE'
_TEXT	ENDS
;	COMDAT ??_7Throwable@@6B@
CONST	SEGMENT DWORD USE32 PUBLIC 'CONST'
CONST	ENDS
;	COMDAT ??_R4Throwable@@6B@
rdata$r	SEGMENT DWORD USE32 PUBLIC 'CONST'
rdata$r	ENDS
;	COMDAT ??_R3Throwable@@8
rdata$r	SEGMENT DWORD USE32 PUBLIC 'CONST'
rdata$r	ENDS
;	COMDAT ??_R2Throwable@@8
rdata$r	SEGMENT DWORD USE32 PUBLIC 'CONST'
rdata$r	ENDS
;	COMDAT ??_R1A@?0A@A@Throwable@@8
rdata$r	SEGMENT DWORD USE32 PUBLIC 'CONST'
rdata$r	ENDS
;	COMDAT ??_GThrowable@@UAEPAXI@Z
_TEXT	SEGMENT PARA USE32 PUBLIC 'CODE'
_TEXT	ENDS
;	COMDAT ?getName@Throwable@@UBE?AV?$basic_string@DV?$char_traits@D@_STL@@V?$allocator@D@2@@_STL@@XZ
_TEXT	SEGMENT PARA USE32 PUBLIC 'CODE'
_TEXT	ENDS
;	COMDAT ??0?$basic_string@DV?$char_traits@D@_STL@@V?$allocator@D@2@@_STL@@QAE@PBDABV?$allocator@D@1@@Z
_TEXT	SEGMENT PARA USE32 PUBLIC 'CODE'
_TEXT	ENDS
;	COMDAT ??1?$_String_base@DV?$allocator@D@_STL@@@_STL@@QAE@XZ
_TEXT	SEGMENT PARA USE32 PUBLIC 'CODE'
_TEXT	ENDS
;	COMDAT ?length@?$char_traits@D@_STL@@SAIPBD@Z
_TEXT	SEGMENT PARA USE32 PUBLIC 'CODE'
_TEXT	ENDS
;	COMDAT ??0?$allocator@D@_STL@@QAE@XZ
_TEXT	SEGMENT PARA USE32 PUBLIC 'CODE'
_TEXT	ENDS
;	COMDAT ??_C@_09KCKHMJEM@Throwable?$AA@
CONST	SEGMENT DWORD USE32 PUBLIC 'CONST'
CONST	ENDS
;	COMDAT ?toString@Throwable@@UBE?AV?$basic_string@DV?$char_traits@D@_STL@@V?$allocator@D@2@@_STL@@XZ
_TEXT	SEGMENT PARA USE32 PUBLIC 'CODE'
_TEXT	ENDS
;	COMDAT ??_C@_03MCPBMLDJ@?5?3?5?$AA@
CONST	SEGMENT DWORD USE32 PUBLIC 'CONST'
CONST	ENDS
;	COMDAT ?getStackTrace@Throwable@@QBE?AV?$basic_string@DV?$char_traits@D@_STL@@V?$allocator@D@2@@_STL@@XZ
_TEXT	SEGMENT PARA USE32 PUBLIC 'CODE'
_TEXT	ENDS
;	COMDAT ??E?$_List_iterator@V?$basic_string@DV?$char_traits@D@_STL@@V?$allocator@D@2@@_STL@@U?$_Const_traits@V?$basic_string@DV?$char_traits@D@_STL@@V?$allocator@D@2@@_STL@@@2@@_STL@@QAE?AU01@H@Z
_TEXT	SEGMENT PARA USE32 PUBLIC 'CODE'
_TEXT	ENDS
;	COMDAT ??_C@_01CLKCMJKC@?5?$AA@
CONST	SEGMENT DWORD USE32 PUBLIC 'CONST'
CONST	ENDS
;	COMDAT ??_7Error@@6B@
CONST	SEGMENT DWORD USE32 PUBLIC 'CONST'
CONST	ENDS
;	COMDAT ??_R4Error@@6B@
rdata$r	SEGMENT DWORD USE32 PUBLIC 'CONST'
rdata$r	ENDS
;	COMDAT ??_R3Error@@8
rdata$r	SEGMENT DWORD USE32 PUBLIC 'CONST'
rdata$r	ENDS
;	COMDAT ??_R2Error@@8
rdata$r	SEGMENT DWORD USE32 PUBLIC 'CONST'
rdata$r	ENDS
;	COMDAT ??_R1A@?0A@A@Error@@8
rdata$r	SEGMENT DWORD USE32 PUBLIC 'CONST'
rdata$r	ENDS
;	COMDAT ??_GError@@UAEPAXI@Z
_TEXT	SEGMENT PARA USE32 PUBLIC 'CODE'
_TEXT	ENDS
;	COMDAT ?getName@Error@@UBE?AV?$basic_string@DV?$char_traits@D@_STL@@V?$allocator@D@2@@_STL@@XZ
_TEXT	SEGMENT PARA USE32 PUBLIC 'CODE'
_TEXT	ENDS
;	COMDAT ??_C@_05NAOIJFC@Error?$AA@
CONST	SEGMENT DWORD USE32 PUBLIC 'CONST'
CONST	ENDS
;	COMDAT ??1Throwable@@UAE@XZ
_TEXT	SEGMENT PARA USE32 PUBLIC 'CODE'
_TEXT	ENDS
;	COMDAT ??_7UnsupportedError@@6B@
CONST	SEGMENT DWORD USE32 PUBLIC 'CONST'
CONST	ENDS
;	COMDAT ??_R4UnsupportedError@@6B@
rdata$r	SEGMENT DWORD USE32 PUBLIC 'CONST'
rdata$r	ENDS
;	COMDAT ??_R3UnsupportedError@@8
rdata$r	SEGMENT DWORD USE32 PUBLIC 'CONST'
rdata$r	ENDS
;	COMDAT ??_R2UnsupportedError@@8
rdata$r	SEGMENT DWORD USE32 PUBLIC 'CONST'
rdata$r	ENDS
;	COMDAT ??_R1A@?0A@A@UnsupportedError@@8
rdata$r	SEGMENT DWORD USE32 PUBLIC 'CONST'
rdata$r	ENDS
;	COMDAT ??_GUnsupportedError@@UAEPAXI@Z
_TEXT	SEGMENT PARA USE32 PUBLIC 'CODE'
_TEXT	ENDS
;	COMDAT ?getName@UnsupportedError@@UBE?AV?$basic_string@DV?$char_traits@D@_STL@@V?$allocator@D@2@@_STL@@XZ
_TEXT	SEGMENT PARA USE32 PUBLIC 'CODE'
_TEXT	ENDS
;	COMDAT ??_C@_0BB@EOCHEBED@UnsupportedError?$AA@
CONST	SEGMENT DWORD USE32 PUBLIC 'CONST'
CONST	ENDS
;	COMDAT ??1Error@@UAE@XZ
_TEXT	SEGMENT PARA USE32 PUBLIC 'CODE'
_TEXT	ENDS
;	COMDAT __CTA3?AVUnsupportedError@@
xdata$x	SEGMENT DWORD USE32 PUBLIC 'CONST'
xdata$x	ENDS
;	COMDAT ??1UnsupportedError@@UAE@XZ
_TEXT	SEGMENT PARA USE32 PUBLIC 'CODE'
_TEXT	ENDS
;	COMDAT __CT??_R0?AVThrowable@@@8??0Throwable@@QAE@ABV0@@Z20
xdata$x	SEGMENT DWORD USE32 PUBLIC 'CONST'
xdata$x	ENDS
;	COMDAT __CT??_R0?AVError@@@8??0Error@@QAE@ABV0@@Z20
xdata$x	SEGMENT DWORD USE32 PUBLIC 'CONST'
xdata$x	ENDS
;	COMDAT __CT??_R0?AVUnsupportedError@@@8??0UnsupportedError@@QAE@ABV0@@Z20
xdata$x	SEGMENT DWORD USE32 PUBLIC 'CONST'
xdata$x	ENDS
;	COMDAT ??_R0?AVThrowable@@@8
_DATA	SEGMENT DWORD USE32 PUBLIC 'DATA'
_DATA	ENDS
;	COMDAT ??_R0?AVError@@@8
_DATA	SEGMENT DWORD USE32 PUBLIC 'DATA'
_DATA	ENDS
;	COMDAT ??_R0?AVUnsupportedError@@@8
_DATA	SEGMENT DWORD USE32 PUBLIC 'DATA'
_DATA	ENDS
;	COMDAT __TI3?AVUnsupportedError@@
xdata$x	SEGMENT DWORD USE32 PUBLIC 'CONST'
xdata$x	ENDS
;	COMDAT ??0UnsupportedError@@QAE@XZ
_TEXT	SEGMENT PARA USE32 PUBLIC 'CODE'
_TEXT	ENDS
;	COMDAT ??0Error@@QAE@XZ
_TEXT	SEGMENT PARA USE32 PUBLIC 'CODE'
_TEXT	ENDS
;	COMDAT ??0Throwable@@QAE@XZ
_TEXT	SEGMENT PARA USE32 PUBLIC 'CODE'
_TEXT	ENDS
;	COMDAT ??0?$basic_string@DV?$char_traits@D@_STL@@V?$allocator@D@2@@_STL@@QAE@XZ
_TEXT	SEGMENT PARA USE32 PUBLIC 'CODE'
_TEXT	ENDS
;	COMDAT ??0?$list@V?$basic_string@DV?$char_traits@D@_STL@@V?$allocator@D@2@@_STL@@V?$allocator@V?$basic_string@DV?$char_traits@D@_STL@@V?$allocator@D@2@@_STL@@@2@@_STL@@QAE@ABV?$allocator@V?$basic_string@DV?$char_traits@D@_STL@@V?$allocator@D@2@@_STL@@@1@@Z
_TEXT	SEGMENT PARA USE32 PUBLIC 'CODE'
_TEXT	ENDS
;	COMDAT ??0?$allocator@V?$basic_string@DV?$char_traits@D@_STL@@V?$allocator@D@2@@_STL@@@_STL@@QAE@XZ
_TEXT	SEGMENT PARA USE32 PUBLIC 'CODE'
_TEXT	ENDS
;	COMDAT ??_7Packet@@6B@
CONST	SEGMENT DWORD USE32 PUBLIC 'CONST'
CONST	ENDS
;	COMDAT ??1?$basic_string@DV?$char_traits@D@_STL@@V?$allocator@D@2@@_STL@@QAE@XZ
_TEXT	SEGMENT PARA USE32 PUBLIC 'CODE'
_TEXT	ENDS
;	COMDAT ??0?$basic_string@DV?$char_traits@D@_STL@@V?$allocator@D@2@@_STL@@QAE@ABV01@@Z
_TEXT	SEGMENT PARA USE32 PUBLIC 'CODE'
_TEXT	ENDS
sxdata	SEGMENT DWORD USE32 'SXDATA'
sxdata	ENDS
FLAT	GROUP _DATA, CONST, _BSS
	ASSUME	CS: FLAT, DS: FLAT, SS: FLAT
endif

INCLUDELIB LIBCMT
INCLUDELIB OLDNAMES

PUBLIC	??2@YAPAXIPAX@Z					; operator new
; Function compile flags: /Ogsy
; File c:\program files\microsoft visual studio .net 2003\vc7\include\new
;	COMDAT ??2@YAPAXIPAX@Z
_TEXT	SEGMENT
___formal$ = 8						; size = 4
__Where$ = 12						; size = 4
??2@YAPAXIPAX@Z PROC NEAR				; operator new, COMDAT

; 64   : 	return (_Where);

  00000	8b 44 24 08	 mov	 eax, DWORD PTR __Where$[esp-4]

; 65   : 	}

  00004	c3		 ret	 0
??2@YAPAXIPAX@Z ENDP					; operator new
_TEXT	ENDS
PUBLIC	?__stl_new@_STL@@YAPAXI@Z			; _STL::__stl_new
EXTRN	??2@YAPAXI@Z:NEAR				; operator new
; Function compile flags: /Ogsy
; File c:\stlport-4.6.1\stlport\stl\_new.h
;	COMDAT ?__stl_new@_STL@@YAPAXI@Z
_TEXT	SEGMENT
___n$ = 8						; size = 4
?__stl_new@_STL@@YAPAXI@Z PROC NEAR			; _STL::__stl_new, COMDAT

; 86   : inline void*  _STLP_CALL __stl_new(size_t __n)   { _STLP_CHECK_NULL_ALLOC(::operator _STLP_NEW(__n)); }

  00000	e9 00 00 00 00	 jmp	 ??2@YAPAXI@Z		; operator new
?__stl_new@_STL@@YAPAXI@Z ENDP				; _STL::__stl_new
_TEXT	ENDS
PUBLIC	?__stl_delete@_STL@@YAXPAX@Z			; _STL::__stl_delete
EXTRN	??3@YAXPAX@Z:NEAR				; operator delete
; Function compile flags: /Ogsy
;	COMDAT ?__stl_delete@_STL@@YAXPAX@Z
_TEXT	SEGMENT
___p$ = 8						; size = 4
?__stl_delete@_STL@@YAXPAX@Z PROC NEAR			; _STL::__stl_delete, COMDAT

; 87   : inline void   _STLP_CALL __stl_delete(void* __p) { ::operator delete(__p); }

  00000	e9 00 00 00 00	 jmp	 ??3@YAXPAX@Z		; operator delete
?__stl_delete@_STL@@YAXPAX@Z ENDP			; _STL::__stl_delete
_TEXT	ENDS
PUBLIC	?read@SocketInputStream@@QAEIAAE@Z		; SocketInputStream::read
EXTRN	?read@SocketInputStream@@QAEIPADI@Z:NEAR	; SocketInputStream::read
; Function compile flags: /Ogsy
; File c:\darkeden\designed_common\project\client\packet\socketinputstream.h
;	COMDAT ?read@SocketInputStream@@QAEIAAE@Z
_TEXT	SEGMENT
_buf$ = 8						; size = 4
?read@SocketInputStream@@QAEIAAE@Z PROC NEAR		; SocketInputStream::read, COMDAT
; _this$ = ecx

; 69   : 	uint read ( uchar  & buf ) throw ( ProtocolException , Error ) { return read( (char*)&buf, szuchar  ); }

  00000	6a 01		 push	 1
  00002	ff 74 24 08	 push	 DWORD PTR _buf$[esp]
  00006	e8 00 00 00 00	 call	 ?read@SocketInputStream@@QAEIPADI@Z ; SocketInputStream::read
  0000b	c2 04 00	 ret	 4
?read@SocketInputStream@@QAEIAAE@Z ENDP			; SocketInputStream::read
_TEXT	ENDS
PUBLIC	?read@SocketInputStream@@QAEIAAK@Z		; SocketInputStream::read
; Function compile flags: /Ogsy
;	COMDAT ?read@SocketInputStream@@QAEIAAK@Z
_TEXT	SEGMENT
_buf$ = 8						; size = 4
?read@SocketInputStream@@QAEIAAK@Z PROC NEAR		; SocketInputStream::read, COMDAT
; _this$ = ecx

; 75   : 	uint read ( ulong  & buf ) throw ( ProtocolException , Error ) { return read( (char*)&buf, szulong  ); }

  00000	6a 04		 push	 4
  00002	ff 74 24 08	 push	 DWORD PTR _buf$[esp]
  00006	e8 00 00 00 00	 call	 ?read@SocketInputStream@@QAEIPADI@Z ; SocketInputStream::read
  0000b	c2 04 00	 ret	 4
?read@SocketInputStream@@QAEIAAK@Z ENDP			; SocketInputStream::read
_TEXT	ENDS
PUBLIC	?write@SocketOutputStream@@QAEIE@Z		; SocketOutputStream::write
EXTRN	?write@SocketOutputStream@@QAEIPBDI@Z:NEAR	; SocketOutputStream::write
; Function compile flags: /Ogsy
; File c:\darkeden\designed_common\project\client\packet\socketoutputstream.h
;	COMDAT ?write@SocketOutputStream@@QAEIE@Z
_TEXT	SEGMENT
_buf$ = 8						; size = 1
?write@SocketOutputStream@@QAEIE@Z PROC NEAR		; SocketOutputStream::write, COMDAT
; _this$ = ecx

; 62   :     uint write ( uchar  buf ) throw ( ProtocolException , Error ) { return write( (const char*)&buf, szuchar  ); }

  00000	6a 01		 push	 1
  00002	8d 44 24 08	 lea	 eax, DWORD PTR _buf$[esp]
  00006	50		 push	 eax
  00007	e8 00 00 00 00	 call	 ?write@SocketOutputStream@@QAEIPBDI@Z ; SocketOutputStream::write
  0000c	c2 04 00	 ret	 4
?write@SocketOutputStream@@QAEIE@Z ENDP			; SocketOutputStream::write
_TEXT	ENDS
PUBLIC	?write@SocketOutputStream@@QAEIK@Z		; SocketOutputStream::write
; Function compile flags: /Ogsy
;	COMDAT ?write@SocketOutputStream@@QAEIK@Z
_TEXT	SEGMENT
_buf$ = 8						; size = 4
?write@SocketOutputStream@@QAEIK@Z PROC NEAR		; SocketOutputStream::write, COMDAT
; _this$ = ecx

; 68   :     uint write ( ulong  buf ) throw ( ProtocolException , Error ) { return write( (const char*)&buf, szulong  ); }

  00000	6a 04		 push	 4
  00002	8d 44 24 08	 lea	 eax, DWORD PTR _buf$[esp]
  00006	50		 push	 eax
  00007	e8 00 00 00 00	 call	 ?write@SocketOutputStream@@QAEIPBDI@Z ; SocketOutputStream::write
  0000c	c2 04 00	 ret	 4
?write@SocketOutputStream@@QAEIK@Z ENDP			; SocketOutputStream::write
_TEXT	ENDS
PUBLIC	??0?$allocator@K@_STL@@QAE@XZ			; _STL::allocator<unsigned long>::allocator<unsigned long>
; Function compile flags: /Ogsy
; File c:\stlport-4.6.1\stlport\stl\_alloc.h
;	COMDAT ??0?$allocator@K@_STL@@QAE@XZ
_TEXT	SEGMENT
??0?$allocator@K@_STL@@QAE@XZ PROC NEAR			; _STL::allocator<unsigned long>::allocator<unsigned long>, COMDAT
; _this$ = ecx

; 345  :   allocator() _STLP_NOTHROW {}

  00000	8b c1		 mov	 eax, ecx
  00002	c3		 ret	 0
??0?$allocator@K@_STL@@QAE@XZ ENDP			; _STL::allocator<unsigned long>::allocator<unsigned long>
_TEXT	ENDS
PUBLIC	??1?$allocator@K@_STL@@QAE@XZ			; _STL::allocator<unsigned long>::~allocator<unsigned long>
; Function compile flags: /Ogsy
;	COMDAT ??1?$allocator@K@_STL@@QAE@XZ
_TEXT	SEGMENT
??1?$allocator@K@_STL@@QAE@XZ PROC NEAR			; _STL::allocator<unsigned long>::~allocator<unsigned long>, COMDAT
; _this$ = ecx

; 350  :   ~allocator() _STLP_NOTHROW {}

  00000	c3		 ret	 0
??1?$allocator@K@_STL@@QAE@XZ ENDP			; _STL::allocator<unsigned long>::~allocator<unsigned long>
_TEXT	ENDS
PUBLIC	??0?$allocator@E@_STL@@QAE@XZ			; _STL::allocator<unsigned char>::allocator<unsigned char>
; Function compile flags: /Ogsy
;	COMDAT ??0?$allocator@E@_STL@@QAE@XZ
_TEXT	SEGMENT
??0?$allocator@E@_STL@@QAE@XZ PROC NEAR			; _STL::allocator<unsigned char>::allocator<unsigned char>, COMDAT
; _this$ = ecx

; 345  :   allocator() _STLP_NOTHROW {}

  00000	8b c1		 mov	 eax, ecx
  00002	c3		 ret	 0
??0?$allocator@E@_STL@@QAE@XZ ENDP			; _STL::allocator<unsigned char>::allocator<unsigned char>
_TEXT	ENDS
PUBLIC	??1?$allocator@E@_STL@@QAE@XZ			; _STL::allocator<unsigned char>::~allocator<unsigned char>
; Function compile flags: /Ogsy
;	COMDAT ??1?$allocator@E@_STL@@QAE@XZ
_TEXT	SEGMENT
??1?$allocator@E@_STL@@QAE@XZ PROC NEAR			; _STL::allocator<unsigned char>::~allocator<unsigned char>, COMDAT
; _this$ = ecx

; 350  :   ~allocator() _STLP_NOTHROW {}

  00000	c3		 ret	 0
??1?$allocator@E@_STL@@QAE@XZ ENDP			; _STL::allocator<unsigned char>::~allocator<unsigned char>
_TEXT	ENDS
PUBLIC	??D?$_List_iterator@KU?$_Const_traits@K@_STL@@@_STL@@QBEABKXZ ; _STL::_List_iterator<unsigned long,_STL::_Const_traits<unsigned long> >::operator*
; Function compile flags: /Ogsy
; File c:\stlport-4.6.1\stlport\stl\_list.h
;	COMDAT ??D?$_List_iterator@KU?$_Const_traits@K@_STL@@@_STL@@QBEABKXZ
_TEXT	SEGMENT
??D?$_List_iterator@KU?$_Const_traits@K@_STL@@@_STL@@QBEABKXZ PROC NEAR ; _STL::_List_iterator<unsigned long,_STL::_Const_traits<unsigned long> >::operator*, COMDAT
; _this$ = ecx

; 130  :   reference operator*() const { return ((_Node*)_M_node)->_M_data; }

  00000	8b 01		 mov	 eax, DWORD PTR [ecx]
  00002	83 c0 08	 add	 eax, 8
  00005	c3		 ret	 0
??D?$_List_iterator@KU?$_Const_traits@K@_STL@@@_STL@@QBEABKXZ ENDP ; _STL::_List_iterator<unsigned long,_STL::_Const_traits<unsigned long> >::operator*
_TEXT	ENDS
PUBLIC	??D?$_List_iterator@EU?$_Const_traits@E@_STL@@@_STL@@QBEABEXZ ; _STL::_List_iterator<unsigned char,_STL::_Const_traits<unsigned char> >::operator*
; Function compile flags: /Ogsy
;	COMDAT ??D?$_List_iterator@EU?$_Const_traits@E@_STL@@@_STL@@QBEABEXZ
_TEXT	SEGMENT
??D?$_List_iterator@EU?$_Const_traits@E@_STL@@@_STL@@QBEABEXZ PROC NEAR ; _STL::_List_iterator<unsigned char,_STL::_Const_traits<unsigned char> >::operator*, COMDAT
; _this$ = ecx

; 130  :   reference operator*() const { return ((_Node*)_M_node)->_M_data; }

  00000	8b 01		 mov	 eax, DWORD PTR [ecx]
  00002	83 c0 08	 add	 eax, 8
  00005	c3		 ret	 0
??D?$_List_iterator@EU?$_Const_traits@E@_STL@@@_STL@@QBEABEXZ ENDP ; _STL::_List_iterator<unsigned char,_STL::_Const_traits<unsigned char> >::operator*
_TEXT	ENDS
PUBLIC	??1?$allocator@U?$_List_node@K@_STL@@@_STL@@QAE@XZ ; _STL::allocator<_STL::_List_node<unsigned long> >::~allocator<_STL::_List_node<unsigned long> >
; Function compile flags: /Ogsy
; File c:\stlport-4.6.1\stlport\stl\_alloc.h
;	COMDAT ??1?$allocator@U?$_List_node@K@_STL@@@_STL@@QAE@XZ
_TEXT	SEGMENT
??1?$allocator@U?$_List_node@K@_STL@@@_STL@@QAE@XZ PROC NEAR ; _STL::allocator<_STL::_List_node<unsigned long> >::~allocator<_STL::_List_node<unsigned long> >, COMDAT
; _this$ = ecx

; 350  :   ~allocator() _STLP_NOTHROW {}

  00000	c3		 ret	 0
??1?$allocator@U?$_List_node@K@_STL@@@_STL@@QAE@XZ ENDP	; _STL::allocator<_STL::_List_node<unsigned long> >::~allocator<_STL::_List_node<unsigned long> >
_TEXT	ENDS
PUBLIC	??1?$allocator@U?$_List_node@E@_STL@@@_STL@@QAE@XZ ; _STL::allocator<_STL::_List_node<unsigned char> >::~allocator<_STL::_List_node<unsigned char> >
; Function compile flags: /Ogsy
;	COMDAT ??1?$allocator@U?$_List_node@E@_STL@@@_STL@@QAE@XZ
_TEXT	SEGMENT
??1?$allocator@U?$_List_node@E@_STL@@@_STL@@QAE@XZ PROC NEAR ; _STL::allocator<_STL::_List_node<unsigned char> >::~allocator<_STL::_List_node<unsigned char> >, COMDAT
; _this$ = ecx

; 350  :   ~allocator() _STLP_NOTHROW {}

  00000	c3		 ret	 0
??1?$allocator@U?$_List_node@E@_STL@@@_STL@@QAE@XZ ENDP	; _STL::allocator<_STL::_List_node<unsigned char> >::~allocator<_STL::_List_node<unsigned char> >
_TEXT	ENDS
PUBLIC	??0?$allocator@U?$_List_node@K@_STL@@@_STL@@QAE@ABV01@@Z ; _STL::allocator<_STL::_List_node<unsigned long> >::allocator<_STL::_List_node<unsigned long> >
; Function compile flags: /Ogsy
;	COMDAT ??0?$allocator@U?$_List_node@K@_STL@@@_STL@@QAE@ABV01@@Z
_TEXT	SEGMENT
___formal$ = 8						; size = 4
??0?$allocator@U?$_List_node@K@_STL@@@_STL@@QAE@ABV01@@Z PROC NEAR ; _STL::allocator<_STL::_List_node<unsigned long> >::allocator<_STL::_List_node<unsigned long> >, COMDAT
; _this$ = ecx

; 349  :   allocator(const allocator<_Tp>&) _STLP_NOTHROW {}

  00000	8b c1		 mov	 eax, ecx
  00002	c2 04 00	 ret	 4
??0?$allocator@U?$_List_node@K@_STL@@@_STL@@QAE@ABV01@@Z ENDP ; _STL::allocator<_STL::_List_node<unsigned long> >::allocator<_STL::_List_node<unsigned long> >
_TEXT	ENDS
PUBLIC	??0?$allocator@U?$_List_node@E@_STL@@@_STL@@QAE@ABV01@@Z ; _STL::allocator<_STL::_List_node<unsigned char> >::allocator<_STL::_List_node<unsigned char> >
; Function compile flags: /Ogsy
;	COMDAT ??0?$allocator@U?$_List_node@E@_STL@@@_STL@@QAE@ABV01@@Z
_TEXT	SEGMENT
___formal$ = 8						; size = 4
??0?$allocator@U?$_List_node@E@_STL@@@_STL@@QAE@ABV01@@Z PROC NEAR ; _STL::allocator<_STL::_List_node<unsigned char> >::allocator<_STL::_List_node<unsigned char> >, COMDAT
; _this$ = ecx

; 349  :   allocator(const allocator<_Tp>&) _STLP_NOTHROW {}

  00000	8b c1		 mov	 eax, ecx
  00002	c2 04 00	 ret	 4
??0?$allocator@U?$_List_node@E@_STL@@@_STL@@QAE@ABV01@@Z ENDP ; _STL::allocator<_STL::_List_node<unsigned char> >::allocator<_STL::_List_node<unsigned char> >
_TEXT	ENDS
PUBLIC	??$_Destroy@K@_STL@@YAXPAK@Z			; _STL::_Destroy<unsigned long>
; Function compile flags: /Ogsy
; File c:\stlport-4.6.1\stlport\stl\_construct.h
;	COMDAT ??$_Destroy@K@_STL@@YAXPAK@Z
_TEXT	SEGMENT
___pointer$ = 8						; size = 4
??$_Destroy@K@_STL@@YAXPAK@Z PROC NEAR			; _STL::_Destroy<unsigned long>, COMDAT

; 57   : # if _MSC_VER >= 1010
; 58   :   __pointer;
; 59   : # endif	// _MSC_VER >= 1000
; 60   : # ifdef _STLP_TRIVIAL_DESTRUCTOR_BUG
; 61   :   typedef typename __type_traits<_Tp>::has_trivial_destructor _Trivial_destructor;
; 62   :   __destroy_aux(__pointer, _Trivial_destructor());
; 63   : # else
; 64   : #  if ( defined (__BORLANDC__) && ( __BORLANDC__ < 0x500 ) )
; 65   :     __pointer->_Tp::~_Tp();
; 66   : #  else
; 67   :     __pointer->~_Tp();
; 68   : #  endif
; 69   : # endif
; 70   : # ifdef _STLP_DEBUG_UNINITIALIZED
; 71   : 	memset((char*)__pointer, _STLP_SHRED_BYTE, sizeof(_Tp));
; 72   : # endif
; 73   : }

  00000	c3		 ret	 0
??$_Destroy@K@_STL@@YAXPAK@Z ENDP			; _STL::_Destroy<unsigned long>
_TEXT	ENDS
PUBLIC	??$?0K@?$allocator@U?$_List_node@K@_STL@@@_STL@@QAE@ABV?$allocator@K@1@@Z ; _STL::allocator<_STL::_List_node<unsigned long> >::allocator<_STL::_List_node<unsigned long> ><unsigned long>
; Function compile flags: /Ogsy
; File c:\stlport-4.6.1\stlport\stl\_alloc.h
;	COMDAT ??$?0K@?$allocator@U?$_List_node@K@_STL@@@_STL@@QAE@ABV?$allocator@K@1@@Z
_TEXT	SEGMENT
___formal$ = 8						; size = 4
??$?0K@?$allocator@U?$_List_node@K@_STL@@@_STL@@QAE@ABV?$allocator@K@1@@Z PROC NEAR ; _STL::allocator<_STL::_List_node<unsigned long> >::allocator<_STL::_List_node<unsigned long> ><unsigned long>, COMDAT
; _this$ = ecx

; 347  :   template <class _Tp1> allocator(const allocator<_Tp1>&) _STLP_NOTHROW {}

  00000	8b c1		 mov	 eax, ecx
  00002	c2 04 00	 ret	 4
??$?0K@?$allocator@U?$_List_node@K@_STL@@@_STL@@QAE@ABV?$allocator@K@1@@Z ENDP ; _STL::allocator<_STL::_List_node<unsigned long> >::allocator<_STL::_List_node<unsigned long> ><unsigned long>
_TEXT	ENDS
PUBLIC	??$_Destroy@E@_STL@@YAXPAE@Z			; _STL::_Destroy<unsigned char>
; Function compile flags: /Ogsy
; File c:\stlport-4.6.1\stlport\stl\_construct.h
;	COMDAT ??$_Destroy@E@_STL@@YAXPAE@Z
_TEXT	SEGMENT
___pointer$ = 8						; size = 4
??$_Destroy@E@_STL@@YAXPAE@Z PROC NEAR			; _STL::_Destroy<unsigned char>, COMDAT

; 57   : # if _MSC_VER >= 1010
; 58   :   __pointer;
; 59   : # endif	// _MSC_VER >= 1000
; 60   : # ifdef _STLP_TRIVIAL_DESTRUCTOR_BUG
; 61   :   typedef typename __type_traits<_Tp>::has_trivial_destructor _Trivial_destructor;
; 62   :   __destroy_aux(__pointer, _Trivial_destructor());
; 63   : # else
; 64   : #  if ( defined (__BORLANDC__) && ( __BORLANDC__ < 0x500 ) )
; 65   :     __pointer->_Tp::~_Tp();
; 66   : #  else
; 67   :     __pointer->~_Tp();
; 68   : #  endif
; 69   : # endif
; 70   : # ifdef _STLP_DEBUG_UNINITIALIZED
; 71   : 	memset((char*)__pointer, _STLP_SHRED_BYTE, sizeof(_Tp));
; 72   : # endif
; 73   : }

  00000	c3		 ret	 0
??$_Destroy@E@_STL@@YAXPAE@Z ENDP			; _STL::_Destroy<unsigned char>
_TEXT	ENDS
PUBLIC	??$?0E@?$allocator@U?$_List_node@E@_STL@@@_STL@@QAE@ABV?$allocator@E@1@@Z ; _STL::allocator<_STL::_List_node<unsigned char> >::allocator<_STL::_List_node<unsigned char> ><unsigned char>
; Function compile flags: /Ogsy
; File c:\stlport-4.6.1\stlport\stl\_alloc.h
;	COMDAT ??$?0E@?$allocator@U?$_List_node@E@_STL@@@_STL@@QAE@ABV?$allocator@E@1@@Z
_TEXT	SEGMENT
___formal$ = 8						; size = 4
??$?0E@?$allocator@U?$_List_node@E@_STL@@@_STL@@QAE@ABV?$allocator@E@1@@Z PROC NEAR ; _STL::allocator<_STL::_List_node<unsigned char> >::allocator<_STL::_List_node<unsigned char> ><unsigned char>, COMDAT
; _this$ = ecx

; 347  :   template <class _Tp1> allocator(const allocator<_Tp1>&) _STLP_NOTHROW {}

  00000	8b c1		 mov	 eax, ecx
  00002	c2 04 00	 ret	 4
??$?0E@?$allocator@U?$_List_node@E@_STL@@@_STL@@QAE@ABV?$allocator@E@1@@Z ENDP ; _STL::allocator<_STL::_List_node<unsigned char> >::allocator<_STL::_List_node<unsigned char> ><unsigned char>
_TEXT	ENDS
PUBLIC	??$_Construct@KK@_STL@@YAXPAKABK@Z		; _STL::_Construct<unsigned long,unsigned long>
; Function compile flags: /Ogsy
; File c:\stlport-4.6.1\stlport\stl\_construct.h
;	COMDAT ??$_Construct@KK@_STL@@YAXPAKABK@Z
_TEXT	SEGMENT
___p$ = 8						; size = 4
___val$ = 12						; size = 4
??$_Construct@KK@_STL@@YAXPAKABK@Z PROC NEAR		; _STL::_Construct<unsigned long,unsigned long>, COMDAT

; 94   : # ifdef _STLP_DEBUG_UNINITIALIZED
; 95   : 	memset((char*)__p, _STLP_SHRED_BYTE, sizeof(_T1));
; 96   : # endif
; 97   :     _STLP_PLACEMENT_NEW (__p) _T1(__val);

  00000	8b 44 24 04	 mov	 eax, DWORD PTR ___p$[esp-4]
  00004	85 c0		 test	 eax, eax
  00006	74 08		 je	 SHORT $L102611
  00008	8b 4c 24 08	 mov	 ecx, DWORD PTR ___val$[esp-4]
  0000c	8b 09		 mov	 ecx, DWORD PTR [ecx]
  0000e	89 08		 mov	 DWORD PTR [eax], ecx
$L102611:

; 98   : }

  00010	c3		 ret	 0
??$_Construct@KK@_STL@@YAXPAKABK@Z ENDP			; _STL::_Construct<unsigned long,unsigned long>
_TEXT	ENDS
PUBLIC	??$_Construct@EE@_STL@@YAXPAEABE@Z		; _STL::_Construct<unsigned char,unsigned char>
; Function compile flags: /Ogsy
;	COMDAT ??$_Construct@EE@_STL@@YAXPAEABE@Z
_TEXT	SEGMENT
___p$ = 8						; size = 4
___val$ = 12						; size = 4
??$_Construct@EE@_STL@@YAXPAEABE@Z PROC NEAR		; _STL::_Construct<unsigned char,unsigned char>, COMDAT

; 94   : # ifdef _STLP_DEBUG_UNINITIALIZED
; 95   : 	memset((char*)__p, _STLP_SHRED_BYTE, sizeof(_T1));
; 96   : # endif
; 97   :     _STLP_PLACEMENT_NEW (__p) _T1(__val);

  00000	8b 44 24 04	 mov	 eax, DWORD PTR ___p$[esp-4]
  00004	85 c0		 test	 eax, eax
  00006	74 08		 je	 SHORT $L102620
  00008	8b 4c 24 08	 mov	 ecx, DWORD PTR ___val$[esp-4]
  0000c	8a 09		 mov	 cl, BYTE PTR [ecx]
  0000e	88 08		 mov	 BYTE PTR [eax], cl
$L102620:

; 98   : }

  00010	c3		 ret	 0
??$_Construct@EE@_STL@@YAXPAEABE@Z ENDP			; _STL::_Construct<unsigned char,unsigned char>
_TEXT	ENDS
PUBLIC	??0_List_iterator_base@_STL@@QAE@PAU_List_node_base@1@@Z ; _STL::_List_iterator_base::_List_iterator_base
; Function compile flags: /Ogsy
; File c:\stlport-4.6.1\stlport\stl\_list.h
;	COMDAT ??0_List_iterator_base@_STL@@QAE@PAU_List_node_base@1@@Z
_TEXT	SEGMENT
___x$ = 8						; size = 4
??0_List_iterator_base@_STL@@QAE@PAU_List_node_base@1@@Z PROC NEAR ; _STL::_List_iterator_base::_List_iterator_base, COMDAT
; _this$ = ecx

; 95   :   _List_iterator_base(_List_node_base* __x) : _M_node(__x) {}

  00000	8b c1		 mov	 eax, ecx
  00002	8b 4c 24 04	 mov	 ecx, DWORD PTR ___x$[esp-4]
  00006	89 08		 mov	 DWORD PTR [eax], ecx
  00008	c2 04 00	 ret	 4
??0_List_iterator_base@_STL@@QAE@PAU_List_node_base@1@@Z ENDP ; _STL::_List_iterator_base::_List_iterator_base
_TEXT	ENDS
PUBLIC	?_M_incr@_List_iterator_base@_STL@@QAEXXZ	; _STL::_List_iterator_base::_M_incr
; Function compile flags: /Ogsy
;	COMDAT ?_M_incr@_List_iterator_base@_STL@@QAEXXZ
_TEXT	SEGMENT
?_M_incr@_List_iterator_base@_STL@@QAEXXZ PROC NEAR	; _STL::_List_iterator_base::_M_incr, COMDAT
; _this$ = ecx

; 98   :   void _M_incr() { _M_node = _M_node->_M_next; }

  00000	8b 01		 mov	 eax, DWORD PTR [ecx]
  00002	8b 00		 mov	 eax, DWORD PTR [eax]
  00004	89 01		 mov	 DWORD PTR [ecx], eax
  00006	c3		 ret	 0
?_M_incr@_List_iterator_base@_STL@@QAEXXZ ENDP		; _STL::_List_iterator_base::_M_incr
_TEXT	ENDS
PUBLIC	??9_List_iterator_base@_STL@@QBE_NABU01@@Z	; _STL::_List_iterator_base::operator!=
; Function compile flags: /Ogsy
;	COMDAT ??9_List_iterator_base@_STL@@QBE_NABU01@@Z
_TEXT	SEGMENT
___y$ = 8						; size = 4
??9_List_iterator_base@_STL@@QBE_NABU01@@Z PROC NEAR	; _STL::_List_iterator_base::operator!=, COMDAT
; _this$ = ecx

; 104  :     return _M_node != __y._M_node; 

  00000	8b 01		 mov	 eax, DWORD PTR [ecx]
  00002	8b 54 24 04	 mov	 edx, DWORD PTR ___y$[esp-4]
  00006	33 c9		 xor	 ecx, ecx
  00008	3b 02		 cmp	 eax, DWORD PTR [edx]
  0000a	0f 95 c1	 setne	 cl
  0000d	8a c1		 mov	 al, cl

; 105  :   }

  0000f	c2 04 00	 ret	 4
??9_List_iterator_base@_STL@@QBE_NABU01@@Z ENDP		; _STL::_List_iterator_base::operator!=
_TEXT	ENDS
PUBLIC	?allocate@?$__node_alloc@$00$0A@@_STL@@SAPAXI@Z	; _STL::__node_alloc<1,0>::allocate
EXTRN	?_M_allocate@?$__node_alloc@$00$0A@@_STL@@CAPAXI@Z:NEAR ; _STL::__node_alloc<1,0>::_M_allocate
; Function compile flags: /Ogsy
; File c:\stlport-4.6.1\stlport\stl\_alloc.h
;	COMDAT ?allocate@?$__node_alloc@$00$0A@@_STL@@SAPAXI@Z
_TEXT	SEGMENT
___n$ = 8						; size = 4
?allocate@?$__node_alloc@$00$0A@@_STL@@SAPAXI@Z PROC NEAR ; _STL::__node_alloc<1,0>::allocate, COMDAT

; 251  :   static void * _STLP_CALL allocate(size_t __n) { return (__n > (size_t)_MAX_BYTES) ?  __stl_new(__n) : _M_allocate(__n); }

  00000	8b 44 24 04	 mov	 eax, DWORD PTR ___n$[esp-4]
  00004	3d 80 00 00 00	 cmp	 eax, 128		; 00000080H
  00009	50		 push	 eax
  0000a	76 07		 jbe	 SHORT $L102637
  0000c	e8 00 00 00 00	 call	 ??2@YAPAXI@Z		; operator new
  00011	59		 pop	 ecx
  00012	c3		 ret	 0
$L102637:
  00013	e8 00 00 00 00	 call	 ?_M_allocate@?$__node_alloc@$00$0A@@_STL@@CAPAXI@Z ; _STL::__node_alloc<1,0>::_M_allocate
  00018	59		 pop	 ecx
  00019	c3		 ret	 0
?allocate@?$__node_alloc@$00$0A@@_STL@@SAPAXI@Z ENDP	; _STL::__node_alloc<1,0>::allocate
_TEXT	ENDS
PUBLIC	?deallocate@?$__node_alloc@$00$0A@@_STL@@SAXPAXI@Z ; _STL::__node_alloc<1,0>::deallocate
EXTRN	?_M_deallocate@?$__node_alloc@$00$0A@@_STL@@CAXPAXI@Z:NEAR ; _STL::__node_alloc<1,0>::_M_deallocate
; Function compile flags: /Ogsy
;	COMDAT ?deallocate@?$__node_alloc@$00$0A@@_STL@@SAXPAXI@Z
_TEXT	SEGMENT
___p$ = 8						; size = 4
___n$ = 12						; size = 4
?deallocate@?$__node_alloc@$00$0A@@_STL@@SAXPAXI@Z PROC NEAR ; _STL::__node_alloc<1,0>::deallocate, COMDAT

; 253  :   static void _STLP_CALL deallocate(void *__p, size_t __n) { if (__n > (size_t)_MAX_BYTES) __stl_delete(__p); else _M_deallocate(__p, __n); }

  00000	81 7c 24 08 80
	00 00 00	 cmp	 DWORD PTR ___n$[esp-4], 128 ; 00000080H
  00008	76 0b		 jbe	 SHORT $L98677
  0000a	ff 74 24 04	 push	 DWORD PTR ___p$[esp-4]
  0000e	e8 00 00 00 00	 call	 ??3@YAXPAX@Z		; operator delete
  00013	59		 pop	 ecx
  00014	c3		 ret	 0
$L98677:
  00015	e9 00 00 00 00	 jmp	 ?_M_deallocate@?$__node_alloc@$00$0A@@_STL@@CAXPAXI@Z ; _STL::__node_alloc<1,0>::_M_deallocate
?deallocate@?$__node_alloc@$00$0A@@_STL@@SAXPAXI@Z ENDP	; _STL::__node_alloc<1,0>::deallocate
_TEXT	ENDS
PUBLIC	??E?$_List_iterator@KU?$_Const_traits@K@_STL@@@_STL@@QAE?AU01@H@Z ; _STL::_List_iterator<unsigned long,_STL::_Const_traits<unsigned long> >::operator++
; Function compile flags: /Ogsy
; File c:\stlport-4.6.1\stlport\stl\_list.h
;	COMDAT ??E?$_List_iterator@KU?$_Const_traits@K@_STL@@@_STL@@QAE?AU01@H@Z
_TEXT	SEGMENT
___$ReturnUdt$ = 8					; size = 4
___formal$ = 12						; size = 4
??E?$_List_iterator@KU?$_Const_traits@K@_STL@@@_STL@@QAE?AU01@H@Z PROC NEAR ; _STL::_List_iterator<unsigned long,_STL::_Const_traits<unsigned long> >::operator++, COMDAT
; _this$ = ecx

; 139  :     _Self __tmp = *this;

  00000	8b 11		 mov	 edx, DWORD PTR [ecx]

; 140  :     this->_M_incr();

  00002	8b 02		 mov	 eax, DWORD PTR [edx]
  00004	89 01		 mov	 DWORD PTR [ecx], eax

; 141  :     return __tmp;

  00006	8b 44 24 04	 mov	 eax, DWORD PTR ___$ReturnUdt$[esp-4]
  0000a	89 10		 mov	 DWORD PTR [eax], edx

; 142  :   }

  0000c	c2 08 00	 ret	 8
??E?$_List_iterator@KU?$_Const_traits@K@_STL@@@_STL@@QAE?AU01@H@Z ENDP ; _STL::_List_iterator<unsigned long,_STL::_Const_traits<unsigned long> >::operator++
_TEXT	ENDS
PUBLIC	??E?$_List_iterator@EU?$_Const_traits@E@_STL@@@_STL@@QAE?AU01@H@Z ; _STL::_List_iterator<unsigned char,_STL::_Const_traits<unsigned char> >::operator++
; Function compile flags: /Ogsy
;	COMDAT ??E?$_List_iterator@EU?$_Const_traits@E@_STL@@@_STL@@QAE?AU01@H@Z
_TEXT	SEGMENT
___$ReturnUdt$ = 8					; size = 4
___formal$ = 12						; size = 4
??E?$_List_iterator@EU?$_Const_traits@E@_STL@@@_STL@@QAE?AU01@H@Z PROC NEAR ; _STL::_List_iterator<unsigned char,_STL::_Const_traits<unsigned char> >::operator++, COMDAT
; _this$ = ecx

; 139  :     _Self __tmp = *this;

  00000	8b 11		 mov	 edx, DWORD PTR [ecx]

; 140  :     this->_M_incr();

  00002	8b 02		 mov	 eax, DWORD PTR [edx]
  00004	89 01		 mov	 DWORD PTR [ecx], eax

; 141  :     return __tmp;

  00006	8b 44 24 04	 mov	 eax, DWORD PTR ___$ReturnUdt$[esp-4]
  0000a	89 10		 mov	 DWORD PTR [eax], edx

; 142  :   }

  0000c	c2 08 00	 ret	 8
??E?$_List_iterator@EU?$_Const_traits@E@_STL@@@_STL@@QAE?AU01@H@Z ENDP ; _STL::_List_iterator<unsigned char,_STL::_Const_traits<unsigned char> >::operator++
_TEXT	ENDS
PUBLIC	??0?$_List_iterator@KU?$_Const_traits@K@_STL@@@_STL@@QAE@PAU?$_List_node@K@1@@Z ; _STL::_List_iterator<unsigned long,_STL::_Const_traits<unsigned long> >::_List_iterator<unsigned long,_STL::_Const_traits<unsigned long> >
; Function compile flags: /Ogsy
;	COMDAT ??0?$_List_iterator@KU?$_Const_traits@K@_STL@@@_STL@@QAE@PAU?$_List_node@K@1@@Z
_TEXT	SEGMENT
___x$ = 8						; size = 4
??0?$_List_iterator@KU?$_Const_traits@K@_STL@@@_STL@@QAE@PAU?$_List_node@K@1@@Z PROC NEAR ; _STL::_List_iterator<unsigned long,_STL::_Const_traits<unsigned long> >::_List_iterator<unsigned long,_STL::_Const_traits<unsigned long> >, COMDAT
; _this$ = ecx

; 126  :   _List_iterator(_Node* __x) : _List_iterator_base(__x) {}

  00000	8b c1		 mov	 eax, ecx
  00002	8b 4c 24 04	 mov	 ecx, DWORD PTR ___x$[esp-4]
  00006	89 08		 mov	 DWORD PTR [eax], ecx
  00008	c2 04 00	 ret	 4
??0?$_List_iterator@KU?$_Const_traits@K@_STL@@@_STL@@QAE@PAU?$_List_node@K@1@@Z ENDP ; _STL::_List_iterator<unsigned long,_STL::_Const_traits<unsigned long> >::_List_iterator<unsigned long,_STL::_Const_traits<unsigned long> >
_TEXT	ENDS
PUBLIC	??0?$_List_iterator@EU?$_Const_traits@E@_STL@@@_STL@@QAE@PAU?$_List_node@E@1@@Z ; _STL::_List_iterator<unsigned char,_STL::_Const_traits<unsigned char> >::_List_iterator<unsigned char,_STL::_Const_traits<unsigned char> >
; Function compile flags: /Ogsy
;	COMDAT ??0?$_List_iterator@EU?$_Const_traits@E@_STL@@@_STL@@QAE@PAU?$_List_node@E@1@@Z
_TEXT	SEGMENT
___x$ = 8						; size = 4
??0?$_List_iterator@EU?$_Const_traits@E@_STL@@@_STL@@QAE@PAU?$_List_node@E@1@@Z PROC NEAR ; _STL::_List_iterator<unsigned char,_STL::_Const_traits<unsigned char> >::_List_iterator<unsigned char,_STL::_Const_traits<unsigned char> >, COMDAT
; _this$ = ecx

; 126  :   _List_iterator(_Node* __x) : _List_iterator_base(__x) {}

  00000	8b c1		 mov	 eax, ecx
  00002	8b 4c 24 04	 mov	 ecx, DWORD PTR ___x$[esp-4]
  00006	89 08		 mov	 DWORD PTR [eax], ecx
  00008	c2 04 00	 ret	 4
??0?$_List_iterator@EU?$_Const_traits@E@_STL@@@_STL@@QAE@PAU?$_List_node@E@1@@Z ENDP ; _STL::_List_iterator<unsigned char,_STL::_Const_traits<unsigned char> >::_List_iterator<unsigned char,_STL::_Const_traits<unsigned char> >
_TEXT	ENDS
PUBLIC	??1?$_STLP_alloc_proxy@PAU?$_List_node@K@_STL@@U12@V?$allocator@U?$_List_node@K@_STL@@@2@@_STL@@QAE@XZ ; _STL::_STLP_alloc_proxy<_STL::_List_node<unsigned long> *,_STL::_List_node<unsigned long>,_STL::allocator<_STL::_List_node<unsigned long> > >::~_STLP_alloc_proxy<_STL::_List_node<unsigned long> *,_STL::_List_node<unsigned long>,_STL::allocator<_STL::_List_node<unsigned long> > >
; Function compile flags: /Ogsy
;	COMDAT ??1?$_STLP_alloc_proxy@PAU?$_List_node@K@_STL@@U12@V?$allocator@U?$_List_node@K@_STL@@@2@@_STL@@QAE@XZ
_TEXT	SEGMENT
??1?$_STLP_alloc_proxy@PAU?$_List_node@K@_STL@@U12@V?$allocator@U?$_List_node@K@_STL@@@2@@_STL@@QAE@XZ PROC NEAR ; _STL::_STLP_alloc_proxy<_STL::_List_node<unsigned long> *,_STL::_List_node<unsigned long>,_STL::allocator<_STL::_List_node<unsigned long> > >::~_STLP_alloc_proxy<_STL::_List_node<unsigned long> *,_STL::_List_node<unsigned long>,_STL::allocator<_STL::_List_node<unsigned long> > >, COMDAT
; _this$ = ecx
  00000	c3		 ret	 0
??1?$_STLP_alloc_proxy@PAU?$_List_node@K@_STL@@U12@V?$allocator@U?$_List_node@K@_STL@@@2@@_STL@@QAE@XZ ENDP ; _STL::_STLP_alloc_proxy<_STL::_List_node<unsigned long> *,_STL::_List_node<unsigned long>,_STL::allocator<_STL::_List_node<unsigned long> > >::~_STLP_alloc_proxy<_STL::_List_node<unsigned long> *,_STL::_List_node<unsigned long>,_STL::allocator<_STL::_List_node<unsigned long> > >
_TEXT	ENDS
PUBLIC	??1?$_STLP_alloc_proxy@PAU?$_List_node@E@_STL@@U12@V?$allocator@U?$_List_node@E@_STL@@@2@@_STL@@QAE@XZ ; _STL::_STLP_alloc_proxy<_STL::_List_node<unsigned char> *,_STL::_List_node<unsigned char>,_STL::allocator<_STL::_List_node<unsigned char> > >::~_STLP_alloc_proxy<_STL::_List_node<unsigned char> *,_STL::_List_node<unsigned char>,_STL::allocator<_STL::_List_node<unsigned char> > >
; Function compile flags: /Ogsy
;	COMDAT ??1?$_STLP_alloc_proxy@PAU?$_List_node@E@_STL@@U12@V?$allocator@U?$_List_node@E@_STL@@@2@@_STL@@QAE@XZ
_TEXT	SEGMENT
??1?$_STLP_alloc_proxy@PAU?$_List_node@E@_STL@@U12@V?$allocator@U?$_List_node@E@_STL@@@2@@_STL@@QAE@XZ PROC NEAR ; _STL::_STLP_alloc_proxy<_STL::_List_node<unsigned char> *,_STL::_List_node<unsigned char>,_STL::allocator<_STL::_List_node<unsigned char> > >::~_STLP_alloc_proxy<_STL::_List_node<unsigned char> *,_STL::_List_node<unsigned char>,_STL::allocator<_STL::_List_node<unsigned char> > >, COMDAT
; _this$ = ecx
  00000	c3		 ret	 0
??1?$_STLP_alloc_proxy@PAU?$_List_node@E@_STL@@U12@V?$allocator@U?$_List_node@E@_STL@@@2@@_STL@@QAE@XZ ENDP ; _STL::_STLP_alloc_proxy<_STL::_List_node<unsigned char> *,_STL::_List_node<unsigned char>,_STL::allocator<_STL::_List_node<unsigned char> > >::~_STLP_alloc_proxy<_STL::_List_node<unsigned char> *,_STL::_List_node<unsigned char>,_STL::allocator<_STL::_List_node<unsigned char> > >
_TEXT	ENDS
PUBLIC	??0?$_STLP_alloc_proxy@PAU?$_List_node@K@_STL@@U12@V?$allocator@U?$_List_node@K@_STL@@@2@@_STL@@QAE@ABV?$allocator@U?$_List_node@K@_STL@@@1@PAU?$_List_node@K@1@@Z ; _STL::_STLP_alloc_proxy<_STL::_List_node<unsigned long> *,_STL::_List_node<unsigned long>,_STL::allocator<_STL::_List_node<unsigned long> > >::_STLP_alloc_proxy<_STL::_List_node<unsigned long> *,_STL::_List_node<unsigned long>,_STL::allocator<_STL::_List_node<unsigned long> > >
; Function compile flags: /Ogsy
; File c:\stlport-4.6.1\stlport\stl\_alloc.h
;	COMDAT ??0?$_STLP_alloc_proxy@PAU?$_List_node@K@_STL@@U12@V?$allocator@U?$_List_node@K@_STL@@@2@@_STL@@QAE@ABV?$allocator@U?$_List_node@K@_STL@@@1@PAU?$_List_node@K@1@@Z
_TEXT	SEGMENT
___a$ = 8						; size = 4
___p$ = 12						; size = 4
??0?$_STLP_alloc_proxy@PAU?$_List_node@K@_STL@@U12@V?$allocator@U?$_List_node@K@_STL@@@2@@_STL@@QAE@ABV?$allocator@U?$_List_node@K@_STL@@@1@PAU?$_List_node@K@1@@Z PROC NEAR ; _STL::_STLP_alloc_proxy<_STL::_List_node<unsigned long> *,_STL::_List_node<unsigned long>,_STL::allocator<_STL::_List_node<unsigned long> > >::_STLP_alloc_proxy<_STL::_List_node<unsigned long> *,_STL::_List_node<unsigned long>,_STL::allocator<_STL::_List_node<unsigned long> > >, COMDAT
; _this$ = ecx

; 487  :   inline _STLP_alloc_proxy(const _MaybeReboundAlloc& __a, _Value __p) : _MaybeReboundAlloc(__a), _M_data(__p) {}

  00000	8b c1		 mov	 eax, ecx
  00002	8b 4c 24 08	 mov	 ecx, DWORD PTR ___p$[esp-4]
  00006	89 08		 mov	 DWORD PTR [eax], ecx
  00008	c2 08 00	 ret	 8
??0?$_STLP_alloc_proxy@PAU?$_List_node@K@_STL@@U12@V?$allocator@U?$_List_node@K@_STL@@@2@@_STL@@QAE@ABV?$allocator@U?$_List_node@K@_STL@@@1@PAU?$_List_node@K@1@@Z ENDP ; _STL::_STLP_alloc_proxy<_STL::_List_node<unsigned long> *,_STL::_List_node<unsigned long>,_STL::allocator<_STL::_List_node<unsigned long> > >::_STLP_alloc_proxy<_STL::_List_node<unsigned long> *,_STL::_List_node<unsigned long>,_STL::allocator<_STL::_List_node<unsigned long> > >
_TEXT	ENDS
PUBLIC	?allocate@?$allocator@U?$_List_node@K@_STL@@@_STL@@QAEPAU?$_List_node@K@2@IPBX@Z ; _STL::allocator<_STL::_List_node<unsigned long> >::allocate
; Function compile flags: /Ogsy
;	COMDAT ?allocate@?$allocator@U?$_List_node@K@_STL@@@_STL@@QAEPAU?$_List_node@K@2@IPBX@Z
_TEXT	SEGMENT
___n$ = 8						; size = 4
___formal$ = 12						; size = 4
?allocate@?$allocator@U?$_List_node@K@_STL@@@_STL@@QAEPAU?$_List_node@K@2@IPBX@Z PROC NEAR ; _STL::allocator<_STL::_List_node<unsigned long> >::allocate, COMDAT
; _this$ = ecx

; 355  :     return __n != 0 ? __REINTERPRET_CAST(value_type*,__sgi_alloc::allocate(__n * sizeof(value_type))) : 0;

  00000	8b 44 24 04	 mov	 eax, DWORD PTR ___n$[esp-4]
  00004	85 c0		 test	 eax, eax
  00006	74 0f		 je	 SHORT $L102691
  00008	8d 04 40	 lea	 eax, DWORD PTR [eax+eax*2]
  0000b	c1 e0 02	 shl	 eax, 2
  0000e	50		 push	 eax
  0000f	e8 00 00 00 00	 call	 ?allocate@?$__node_alloc@$00$0A@@_STL@@SAPAXI@Z ; _STL::__node_alloc<1,0>::allocate
  00014	59		 pop	 ecx
  00015	eb 02		 jmp	 SHORT $L102692
$L102691:
  00017	33 c0		 xor	 eax, eax
$L102692:

; 356  :   }

  00019	c2 08 00	 ret	 8
?allocate@?$allocator@U?$_List_node@K@_STL@@@_STL@@QAEPAU?$_List_node@K@2@IPBX@Z ENDP ; _STL::allocator<_STL::_List_node<unsigned long> >::allocate
_TEXT	ENDS
PUBLIC	?deallocate@?$allocator@U?$_List_node@K@_STL@@@_STL@@QAEXPAU?$_List_node@K@2@I@Z ; _STL::allocator<_STL::_List_node<unsigned long> >::deallocate
; Function compile flags: /Ogsy
;	COMDAT ?deallocate@?$allocator@U?$_List_node@K@_STL@@@_STL@@QAEXPAU?$_List_node@K@2@I@Z
_TEXT	SEGMENT
___p$ = 8						; size = 4
___n$ = 12						; size = 4
?deallocate@?$allocator@U?$_List_node@K@_STL@@@_STL@@QAEXPAU?$_List_node@K@2@I@Z PROC NEAR ; _STL::allocator<_STL::_List_node<unsigned long> >::deallocate, COMDAT
; _this$ = ecx

; 359  :     _STLP_ASSERT( (__p == 0) == (__n == 0) )
; 360  :       if (__p != 0) __sgi_alloc::deallocate((void*)__p, __n * sizeof(value_type));

  00000	83 7c 24 04 00	 cmp	 DWORD PTR ___p$[esp-4], 0
  00005	74 16		 je	 SHORT $L101697
  00007	8b 44 24 08	 mov	 eax, DWORD PTR ___n$[esp-4]
  0000b	8d 04 40	 lea	 eax, DWORD PTR [eax+eax*2]
  0000e	c1 e0 02	 shl	 eax, 2
  00011	50		 push	 eax
  00012	ff 74 24 08	 push	 DWORD PTR ___p$[esp]
  00016	e8 00 00 00 00	 call	 ?deallocate@?$__node_alloc@$00$0A@@_STL@@SAXPAXI@Z ; _STL::__node_alloc<1,0>::deallocate
  0001b	59		 pop	 ecx
  0001c	59		 pop	 ecx
$L101697:

; 361  :   }

  0001d	c2 08 00	 ret	 8
?deallocate@?$allocator@U?$_List_node@K@_STL@@@_STL@@QAEXPAU?$_List_node@K@2@I@Z ENDP ; _STL::allocator<_STL::_List_node<unsigned long> >::deallocate
_TEXT	ENDS
PUBLIC	??0?$_STLP_alloc_proxy@PAU?$_List_node@E@_STL@@U12@V?$allocator@U?$_List_node@E@_STL@@@2@@_STL@@QAE@ABV?$allocator@U?$_List_node@E@_STL@@@1@PAU?$_List_node@E@1@@Z ; _STL::_STLP_alloc_proxy<_STL::_List_node<unsigned char> *,_STL::_List_node<unsigned char>,_STL::allocator<_STL::_List_node<unsigned char> > >::_STLP_alloc_proxy<_STL::_List_node<unsigned char> *,_STL::_List_node<unsigned char>,_STL::allocator<_STL::_List_node<unsigned char> > >
; Function compile flags: /Ogsy
;	COMDAT ??0?$_STLP_alloc_proxy@PAU?$_List_node@E@_STL@@U12@V?$allocator@U?$_List_node@E@_STL@@@2@@_STL@@QAE@ABV?$allocator@U?$_List_node@E@_STL@@@1@PAU?$_List_node@E@1@@Z
_TEXT	SEGMENT
___a$ = 8						; size = 4
___p$ = 12						; size = 4
??0?$_STLP_alloc_proxy@PAU?$_List_node@E@_STL@@U12@V?$allocator@U?$_List_node@E@_STL@@@2@@_STL@@QAE@ABV?$allocator@U?$_List_node@E@_STL@@@1@PAU?$_List_node@E@1@@Z PROC NEAR ; _STL::_STLP_alloc_proxy<_STL::_List_node<unsigned char> *,_STL::_List_node<unsigned char>,_STL::allocator<_STL::_List_node<unsigned char> > >::_STLP_alloc_proxy<_STL::_List_node<unsigned char> *,_STL::_List_node<unsigned char>,_STL::allocator<_STL::_List_node<unsigned char> > >, COMDAT
; _this$ = ecx

; 487  :   inline _STLP_alloc_proxy(const _MaybeReboundAlloc& __a, _Value __p) : _MaybeReboundAlloc(__a), _M_data(__p) {}

  00000	8b c1		 mov	 eax, ecx
  00002	8b 4c 24 08	 mov	 ecx, DWORD PTR ___p$[esp-4]
  00006	89 08		 mov	 DWORD PTR [eax], ecx
  00008	c2 08 00	 ret	 8
??0?$_STLP_alloc_proxy@PAU?$_List_node@E@_STL@@U12@V?$allocator@U?$_List_node@E@_STL@@@2@@_STL@@QAE@ABV?$allocator@U?$_List_node@E@_STL@@@1@PAU?$_List_node@E@1@@Z ENDP ; _STL::_STLP_alloc_proxy<_STL::_List_node<unsigned char> *,_STL::_List_node<unsigned char>,_STL::allocator<_STL::_List_node<unsigned char> > >::_STLP_alloc_proxy<_STL::_List_node<unsigned char> *,_STL::_List_node<unsigned char>,_STL::allocator<_STL::_List_node<unsigned char> > >
_TEXT	ENDS
PUBLIC	?allocate@?$allocator@U?$_List_node@E@_STL@@@_STL@@QAEPAU?$_List_node@E@2@IPBX@Z ; _STL::allocator<_STL::_List_node<unsigned char> >::allocate
; Function compile flags: /Ogsy
;	COMDAT ?allocate@?$allocator@U?$_List_node@E@_STL@@@_STL@@QAEPAU?$_List_node@E@2@IPBX@Z
_TEXT	SEGMENT
___n$ = 8						; size = 4
___formal$ = 12						; size = 4
?allocate@?$allocator@U?$_List_node@E@_STL@@@_STL@@QAEPAU?$_List_node@E@2@IPBX@Z PROC NEAR ; _STL::allocator<_STL::_List_node<unsigned char> >::allocate, COMDAT
; _this$ = ecx

; 355  :     return __n != 0 ? __REINTERPRET_CAST(value_type*,__sgi_alloc::allocate(__n * sizeof(value_type))) : 0;

  00000	8b 44 24 04	 mov	 eax, DWORD PTR ___n$[esp-4]
  00004	85 c0		 test	 eax, eax
  00006	74 0f		 je	 SHORT $L102702
  00008	8d 04 40	 lea	 eax, DWORD PTR [eax+eax*2]
  0000b	c1 e0 02	 shl	 eax, 2
  0000e	50		 push	 eax
  0000f	e8 00 00 00 00	 call	 ?allocate@?$__node_alloc@$00$0A@@_STL@@SAPAXI@Z ; _STL::__node_alloc<1,0>::allocate
  00014	59		 pop	 ecx
  00015	eb 02		 jmp	 SHORT $L102703
$L102702:
  00017	33 c0		 xor	 eax, eax
$L102703:

; 356  :   }

  00019	c2 08 00	 ret	 8
?allocate@?$allocator@U?$_List_node@E@_STL@@@_STL@@QAEPAU?$_List_node@E@2@IPBX@Z ENDP ; _STL::allocator<_STL::_List_node<unsigned char> >::allocate
_TEXT	ENDS
PUBLIC	?deallocate@?$allocator@U?$_List_node@E@_STL@@@_STL@@QAEXPAU?$_List_node@E@2@I@Z ; _STL::allocator<_STL::_List_node<unsigned char> >::deallocate
; Function compile flags: /Ogsy
;	COMDAT ?deallocate@?$allocator@U?$_List_node@E@_STL@@@_STL@@QAEXPAU?$_List_node@E@2@I@Z
_TEXT	SEGMENT
___p$ = 8						; size = 4
___n$ = 12						; size = 4
?deallocate@?$allocator@U?$_List_node@E@_STL@@@_STL@@QAEXPAU?$_List_node@E@2@I@Z PROC NEAR ; _STL::allocator<_STL::_List_node<unsigned char> >::deallocate, COMDAT
; _this$ = ecx

; 359  :     _STLP_ASSERT( (__p == 0) == (__n == 0) )
; 360  :       if (__p != 0) __sgi_alloc::deallocate((void*)__p, __n * sizeof(value_type));

  00000	83 7c 24 04 00	 cmp	 DWORD PTR ___p$[esp-4], 0
  00005	74 16		 je	 SHORT $L101723
  00007	8b 44 24 08	 mov	 eax, DWORD PTR ___n$[esp-4]
  0000b	8d 04 40	 lea	 eax, DWORD PTR [eax+eax*2]
  0000e	c1 e0 02	 shl	 eax, 2
  00011	50		 push	 eax
  00012	ff 74 24 08	 push	 DWORD PTR ___p$[esp]
  00016	e8 00 00 00 00	 call	 ?deallocate@?$__node_alloc@$00$0A@@_STL@@SAXPAXI@Z ; _STL::__node_alloc<1,0>::deallocate
  0001b	59		 pop	 ecx
  0001c	59		 pop	 ecx
$L101723:

; 361  :   }

  0001d	c2 08 00	 ret	 8
?deallocate@?$allocator@U?$_List_node@E@_STL@@@_STL@@QAEXPAU?$_List_node@E@2@I@Z ENDP ; _STL::allocator<_STL::_List_node<unsigned char> >::deallocate
_TEXT	ENDS
PUBLIC	??0?$_List_iterator@KU?$_Nonconst_traits@K@_STL@@@_STL@@QAE@PAU?$_List_node@K@1@@Z ; _STL::_List_iterator<unsigned long,_STL::_Nonconst_traits<unsigned long> >::_List_iterator<unsigned long,_STL::_Nonconst_traits<unsigned long> >
; Function compile flags: /Ogsy
; File c:\stlport-4.6.1\stlport\stl\_list.h
;	COMDAT ??0?$_List_iterator@KU?$_Nonconst_traits@K@_STL@@@_STL@@QAE@PAU?$_List_node@K@1@@Z
_TEXT	SEGMENT
___x$ = 8						; size = 4
??0?$_List_iterator@KU?$_Nonconst_traits@K@_STL@@@_STL@@QAE@PAU?$_List_node@K@1@@Z PROC NEAR ; _STL::_List_iterator<unsigned long,_STL::_Nonconst_traits<unsigned long> >::_List_iterator<unsigned long,_STL::_Nonconst_traits<unsigned long> >, COMDAT
; _this$ = ecx

; 126  :   _List_iterator(_Node* __x) : _List_iterator_base(__x) {}

  00000	8b c1		 mov	 eax, ecx
  00002	8b 4c 24 04	 mov	 ecx, DWORD PTR ___x$[esp-4]
  00006	89 08		 mov	 DWORD PTR [eax], ecx
  00008	c2 04 00	 ret	 4
??0?$_List_iterator@KU?$_Nonconst_traits@K@_STL@@@_STL@@QAE@PAU?$_List_node@K@1@@Z ENDP ; _STL::_List_iterator<unsigned long,_STL::_Nonconst_traits<unsigned long> >::_List_iterator<unsigned long,_STL::_Nonconst_traits<unsigned long> >
_TEXT	ENDS
PUBLIC	??0?$_List_iterator@EU?$_Nonconst_traits@E@_STL@@@_STL@@QAE@PAU?$_List_node@E@1@@Z ; _STL::_List_iterator<unsigned char,_STL::_Nonconst_traits<unsigned char> >::_List_iterator<unsigned char,_STL::_Nonconst_traits<unsigned char> >
; Function compile flags: /Ogsy
;	COMDAT ??0?$_List_iterator@EU?$_Nonconst_traits@E@_STL@@@_STL@@QAE@PAU?$_List_node@E@1@@Z
_TEXT	SEGMENT
___x$ = 8						; size = 4
??0?$_List_iterator@EU?$_Nonconst_traits@E@_STL@@@_STL@@QAE@PAU?$_List_node@E@1@@Z PROC NEAR ; _STL::_List_iterator<unsigned char,_STL::_Nonconst_traits<unsigned char> >::_List_iterator<unsigned char,_STL::_Nonconst_traits<unsigned char> >, COMDAT
; _this$ = ecx

; 126  :   _List_iterator(_Node* __x) : _List_iterator_base(__x) {}

  00000	8b c1		 mov	 eax, ecx
  00002	8b 4c 24 04	 mov	 ecx, DWORD PTR ___x$[esp-4]
  00006	89 08		 mov	 DWORD PTR [eax], ecx
  00008	c2 04 00	 ret	 4
??0?$_List_iterator@EU?$_Nonconst_traits@E@_STL@@@_STL@@QAE@PAU?$_List_node@E@1@@Z ENDP ; _STL::_List_iterator<unsigned char,_STL::_Nonconst_traits<unsigned char> >::_List_iterator<unsigned char,_STL::_Nonconst_traits<unsigned char> >
_TEXT	ENDS
PUBLIC	?clear@?$_List_base@KV?$allocator@K@_STL@@@_STL@@QAEXXZ ; _STL::_List_base<unsigned long,_STL::allocator<unsigned long> >::clear
; Function compile flags: /Ogsy
; File c:\stlport-4.6.1\stlport\stl\_list.c
;	COMDAT ?clear@?$_List_base@KV?$allocator@K@_STL@@@_STL@@QAEXXZ
_TEXT	SEGMENT
?clear@?$_List_base@KV?$allocator@K@_STL@@@_STL@@QAEXXZ PROC NEAR ; _STL::_List_base<unsigned long,_STL::allocator<unsigned long> >::clear, COMDAT
; _this$ = ecx

; 68   : {

  00000	56		 push	 esi
  00001	57		 push	 edi
  00002	8b f9		 mov	 edi, ecx

; 69   :   _List_node<_Tp>* __cur = (_List_node<_Tp>*) this->_M_node._M_data->_M_next;

  00004	8b 07		 mov	 eax, DWORD PTR [edi]
  00006	8b 30		 mov	 esi, DWORD PTR [eax]

; 70   :   while (__cur != this->_M_node._M_data) {

  00008	3b f0		 cmp	 esi, eax
  0000a	74 12		 je	 SHORT $L101890
$L101889:

; 71   :     _List_node<_Tp>* __tmp = __cur;

  0000c	8b c6		 mov	 eax, esi

; 72   :     __cur = (_List_node<_Tp>*) __cur->_M_next;

  0000e	8b 36		 mov	 esi, DWORD PTR [esi]

; 73   :     _STLP_STD::_Destroy(&__tmp->_M_data);
; 74   :     this->_M_node.deallocate(__tmp, 1);

  00010	6a 01		 push	 1
  00012	50		 push	 eax
  00013	8b cf		 mov	 ecx, edi
  00015	e8 00 00 00 00	 call	 ?deallocate@?$allocator@U?$_List_node@K@_STL@@@_STL@@QAEXPAU?$_List_node@K@2@I@Z ; _STL::allocator<_STL::_List_node<unsigned long> >::deallocate
  0001a	3b 37		 cmp	 esi, DWORD PTR [edi]
  0001c	75 ee		 jne	 SHORT $L101889
$L101890:

; 75   :   }
; 76   :   this->_M_node._M_data->_M_next = this->_M_node._M_data;

  0001e	8b 07		 mov	 eax, DWORD PTR [edi]
  00020	89 00		 mov	 DWORD PTR [eax], eax

; 77   :   this->_M_node._M_data->_M_prev = this->_M_node._M_data;

  00022	8b 3f		 mov	 edi, DWORD PTR [edi]
  00024	89 7f 04	 mov	 DWORD PTR [edi+4], edi
  00027	5f		 pop	 edi
  00028	5e		 pop	 esi

; 78   : }

  00029	c3		 ret	 0
?clear@?$_List_base@KV?$allocator@K@_STL@@@_STL@@QAEXXZ ENDP ; _STL::_List_base<unsigned long,_STL::allocator<unsigned long> >::clear
_TEXT	ENDS
PUBLIC	?clear@?$_List_base@EV?$allocator@E@_STL@@@_STL@@QAEXXZ ; _STL::_List_base<unsigned char,_STL::allocator<unsigned char> >::clear
; Function compile flags: /Ogsy
;	COMDAT ?clear@?$_List_base@EV?$allocator@E@_STL@@@_STL@@QAEXXZ
_TEXT	SEGMENT
?clear@?$_List_base@EV?$allocator@E@_STL@@@_STL@@QAEXXZ PROC NEAR ; _STL::_List_base<unsigned char,_STL::allocator<unsigned char> >::clear, COMDAT
; _this$ = ecx

; 68   : {

  00000	56		 push	 esi
  00001	57		 push	 edi
  00002	8b f9		 mov	 edi, ecx

; 69   :   _List_node<_Tp>* __cur = (_List_node<_Tp>*) this->_M_node._M_data->_M_next;

  00004	8b 07		 mov	 eax, DWORD PTR [edi]
  00006	8b 30		 mov	 esi, DWORD PTR [eax]

; 70   :   while (__cur != this->_M_node._M_data) {

  00008	3b f0		 cmp	 esi, eax
  0000a	74 12		 je	 SHORT $L101902
$L101901:

; 71   :     _List_node<_Tp>* __tmp = __cur;

  0000c	8b c6		 mov	 eax, esi

; 72   :     __cur = (_List_node<_Tp>*) __cur->_M_next;

  0000e	8b 36		 mov	 esi, DWORD PTR [esi]

; 73   :     _STLP_STD::_Destroy(&__tmp->_M_data);
; 74   :     this->_M_node.deallocate(__tmp, 1);

  00010	6a 01		 push	 1
  00012	50		 push	 eax
  00013	8b cf		 mov	 ecx, edi
  00015	e8 00 00 00 00	 call	 ?deallocate@?$allocator@U?$_List_node@E@_STL@@@_STL@@QAEXPAU?$_List_node@E@2@I@Z ; _STL::allocator<_STL::_List_node<unsigned char> >::deallocate
  0001a	3b 37		 cmp	 esi, DWORD PTR [edi]
  0001c	75 ee		 jne	 SHORT $L101901
$L101902:

; 75   :   }
; 76   :   this->_M_node._M_data->_M_next = this->_M_node._M_data;

  0001e	8b 07		 mov	 eax, DWORD PTR [edi]
  00020	89 00		 mov	 DWORD PTR [eax], eax

; 77   :   this->_M_node._M_data->_M_prev = this->_M_node._M_data;

  00022	8b 3f		 mov	 edi, DWORD PTR [edi]
  00024	89 7f 04	 mov	 DWORD PTR [edi+4], edi
  00027	5f		 pop	 edi
  00028	5e		 pop	 esi

; 78   : }

  00029	c3		 ret	 0
?clear@?$_List_base@EV?$allocator@E@_STL@@@_STL@@QAEXXZ ENDP ; _STL::_List_base<unsigned char,_STL::allocator<unsigned char> >::clear
_TEXT	ENDS
PUBLIC	?begin@?$list@KV?$allocator@K@_STL@@@_STL@@QBE?AU?$_List_iterator@KU?$_Const_traits@K@_STL@@@2@XZ ; _STL::list<unsigned long,_STL::allocator<unsigned long> >::begin
; Function compile flags: /Ogsy
; File c:\stlport-4.6.1\stlport\stl\_list.h
;	COMDAT ?begin@?$list@KV?$allocator@K@_STL@@@_STL@@QBE?AU?$_List_iterator@KU?$_Const_traits@K@_STL@@@2@XZ
_TEXT	SEGMENT
___$ReturnUdt$ = 8					; size = 4
?begin@?$list@KV?$allocator@K@_STL@@@_STL@@QBE?AU?$_List_iterator@KU?$_Const_traits@K@_STL@@@2@XZ PROC NEAR ; _STL::list<unsigned long,_STL::allocator<unsigned long> >::begin, COMDAT
; _this$ = ecx

; 267  :   const_iterator begin() const { return const_iterator((_Node*)(this->_M_node._M_data->_M_next)); }

  00000	8b 01		 mov	 eax, DWORD PTR [ecx]
  00002	8b 08		 mov	 ecx, DWORD PTR [eax]
  00004	8b 44 24 04	 mov	 eax, DWORD PTR ___$ReturnUdt$[esp-4]
  00008	89 08		 mov	 DWORD PTR [eax], ecx
  0000a	c2 04 00	 ret	 4
?begin@?$list@KV?$allocator@K@_STL@@@_STL@@QBE?AU?$_List_iterator@KU?$_Const_traits@K@_STL@@@2@XZ ENDP ; _STL::list<unsigned long,_STL::allocator<unsigned long> >::begin
_TEXT	ENDS
PUBLIC	?end@?$list@KV?$allocator@K@_STL@@@_STL@@QBE?AU?$_List_iterator@KU?$_Const_traits@K@_STL@@@2@XZ ; _STL::list<unsigned long,_STL::allocator<unsigned long> >::end
; Function compile flags: /Ogsy
;	COMDAT ?end@?$list@KV?$allocator@K@_STL@@@_STL@@QBE?AU?$_List_iterator@KU?$_Const_traits@K@_STL@@@2@XZ
_TEXT	SEGMENT
___$ReturnUdt$ = 8					; size = 4
?end@?$list@KV?$allocator@K@_STL@@@_STL@@QBE?AU?$_List_iterator@KU?$_Const_traits@K@_STL@@@2@XZ PROC NEAR ; _STL::list<unsigned long,_STL::allocator<unsigned long> >::end, COMDAT
; _this$ = ecx

; 270  :   const_iterator end() const { return this->_M_node._M_data; }

  00000	8b 09		 mov	 ecx, DWORD PTR [ecx]
  00002	8b 44 24 04	 mov	 eax, DWORD PTR ___$ReturnUdt$[esp-4]
  00006	89 08		 mov	 DWORD PTR [eax], ecx
  00008	c2 04 00	 ret	 4
?end@?$list@KV?$allocator@K@_STL@@@_STL@@QBE?AU?$_List_iterator@KU?$_Const_traits@K@_STL@@@2@XZ ENDP ; _STL::list<unsigned long,_STL::allocator<unsigned long> >::end
_TEXT	ENDS
PUBLIC	?begin@?$list@EV?$allocator@E@_STL@@@_STL@@QBE?AU?$_List_iterator@EU?$_Const_traits@E@_STL@@@2@XZ ; _STL::list<unsigned char,_STL::allocator<unsigned char> >::begin
; Function compile flags: /Ogsy
;	COMDAT ?begin@?$list@EV?$allocator@E@_STL@@@_STL@@QBE?AU?$_List_iterator@EU?$_Const_traits@E@_STL@@@2@XZ
_TEXT	SEGMENT
___$ReturnUdt$ = 8					; size = 4
?begin@?$list@EV?$allocator@E@_STL@@@_STL@@QBE?AU?$_List_iterator@EU?$_Const_traits@E@_STL@@@2@XZ PROC NEAR ; _STL::list<unsigned char,_STL::allocator<unsigned char> >::begin, COMDAT
; _this$ = ecx

; 267  :   const_iterator begin() const { return const_iterator((_Node*)(this->_M_node._M_data->_M_next)); }

  00000	8b 01		 mov	 eax, DWORD PTR [ecx]
  00002	8b 08		 mov	 ecx, DWORD PTR [eax]
  00004	8b 44 24 04	 mov	 eax, DWORD PTR ___$ReturnUdt$[esp-4]
  00008	89 08		 mov	 DWORD PTR [eax], ecx
  0000a	c2 04 00	 ret	 4
?begin@?$list@EV?$allocator@E@_STL@@@_STL@@QBE?AU?$_List_iterator@EU?$_Const_traits@E@_STL@@@2@XZ ENDP ; _STL::list<unsigned char,_STL::allocator<unsigned char> >::begin
_TEXT	ENDS
PUBLIC	?end@?$list@EV?$allocator@E@_STL@@@_STL@@QBE?AU?$_List_iterator@EU?$_Const_traits@E@_STL@@@2@XZ ; _STL::list<unsigned char,_STL::allocator<unsigned char> >::end
; Function compile flags: /Ogsy
;	COMDAT ?end@?$list@EV?$allocator@E@_STL@@@_STL@@QBE?AU?$_List_iterator@EU?$_Const_traits@E@_STL@@@2@XZ
_TEXT	SEGMENT
___$ReturnUdt$ = 8					; size = 4
?end@?$list@EV?$allocator@E@_STL@@@_STL@@QBE?AU?$_List_iterator@EU?$_Const_traits@E@_STL@@@2@XZ PROC NEAR ; _STL::list<unsigned char,_STL::allocator<unsigned char> >::end, COMDAT
; _this$ = ecx

; 270  :   const_iterator end() const { return this->_M_node._M_data; }

  00000	8b 09		 mov	 ecx, DWORD PTR [ecx]
  00002	8b 44 24 04	 mov	 eax, DWORD PTR ___$ReturnUdt$[esp-4]
  00006	89 08		 mov	 DWORD PTR [eax], ecx
  00008	c2 04 00	 ret	 4
?end@?$list@EV?$allocator@E@_STL@@@_STL@@QBE?AU?$_List_iterator@EU?$_Const_traits@E@_STL@@@2@XZ ENDP ; _STL::list<unsigned char,_STL::allocator<unsigned char> >::end
_TEXT	ENDS
PUBLIC	?end@?$list@KV?$allocator@K@_STL@@@_STL@@QAE?AU?$_List_iterator@KU?$_Nonconst_traits@K@_STL@@@2@XZ ; _STL::list<unsigned long,_STL::allocator<unsigned long> >::end
; Function compile flags: /Ogsy
;	COMDAT ?end@?$list@KV?$allocator@K@_STL@@@_STL@@QAE?AU?$_List_iterator@KU?$_Nonconst_traits@K@_STL@@@2@XZ
_TEXT	SEGMENT
___$ReturnUdt$ = 8					; size = 4
?end@?$list@KV?$allocator@K@_STL@@@_STL@@QAE?AU?$_List_iterator@KU?$_Nonconst_traits@K@_STL@@@2@XZ PROC NEAR ; _STL::list<unsigned long,_STL::allocator<unsigned long> >::end, COMDAT
; _this$ = ecx

; 269  :   iterator end()             { return this->_M_node._M_data; }

  00000	8b 09		 mov	 ecx, DWORD PTR [ecx]
  00002	8b 44 24 04	 mov	 eax, DWORD PTR ___$ReturnUdt$[esp-4]
  00006	89 08		 mov	 DWORD PTR [eax], ecx
  00008	c2 04 00	 ret	 4
?end@?$list@KV?$allocator@K@_STL@@@_STL@@QAE?AU?$_List_iterator@KU?$_Nonconst_traits@K@_STL@@@2@XZ ENDP ; _STL::list<unsigned long,_STL::allocator<unsigned long> >::end
_TEXT	ENDS
PUBLIC	??0?$_List_base@KV?$allocator@K@_STL@@@_STL@@QAE@ABV?$allocator@K@1@@Z ; _STL::_List_base<unsigned long,_STL::allocator<unsigned long> >::_List_base<unsigned long,_STL::allocator<unsigned long> >
; Function compile flags: /Ogsy
;	COMDAT ??0?$_List_base@KV?$allocator@K@_STL@@@_STL@@QAE@ABV?$allocator@K@1@@Z
_TEXT	SEGMENT
$T102798 = -1						; size = 1
___a$ = 8						; size = 4
??0?$_List_base@KV?$allocator@K@_STL@@@_STL@@QAE@ABV?$allocator@K@1@@Z PROC NEAR ; _STL::_List_base<unsigned long,_STL::allocator<unsigned long> >::_List_base<unsigned long,_STL::allocator<unsigned long> >, COMDAT
; _this$ = ecx

; 182  :   _List_base(const allocator_type& __a) : _M_node(_STLP_CONVERT_ALLOCATOR(__a, _Node), (_Node*)0) {

  00000	51		 push	 ecx
  00001	56		 push	 esi
  00002	6a 00		 push	 0
  00004	8d 44 24 0b	 lea	 eax, DWORD PTR $T102798[esp+12]
  00008	50		 push	 eax
  00009	8b f1		 mov	 esi, ecx
  0000b	e8 00 00 00 00	 call	 ??0?$_STLP_alloc_proxy@PAU?$_List_node@K@_STL@@U12@V?$allocator@U?$_List_node@K@_STL@@@2@@_STL@@QAE@ABV?$allocator@U?$_List_node@K@_STL@@@1@PAU?$_List_node@K@1@@Z ; _STL::_STLP_alloc_proxy<_STL::_List_node<unsigned long> *,_STL::_List_node<unsigned long>,_STL::allocator<_STL::_List_node<unsigned long> > >::_STLP_alloc_proxy<_STL::_List_node<unsigned long> *,_STL::_List_node<unsigned long>,_STL::allocator<_STL::_List_node<unsigned long> > >

; 183  :     _Node* __n = _M_node.allocate(1);

  00010	6a 0c		 push	 12			; 0000000cH
  00012	e8 00 00 00 00	 call	 ?allocate@?$__node_alloc@$00$0A@@_STL@@SAPAXI@Z ; _STL::__node_alloc<1,0>::allocate

; 184  :     __n->_M_next = __n;

  00017	89 00		 mov	 DWORD PTR [eax], eax

; 185  :     __n->_M_prev = __n;

  00019	89 40 04	 mov	 DWORD PTR [eax+4], eax

; 186  :     _M_node._M_data = __n;

  0001c	89 06		 mov	 DWORD PTR [esi], eax
  0001e	59		 pop	 ecx

; 187  :   }

  0001f	8b c6		 mov	 eax, esi
  00021	5e		 pop	 esi
  00022	59		 pop	 ecx
  00023	c2 04 00	 ret	 4
??0?$_List_base@KV?$allocator@K@_STL@@@_STL@@QAE@ABV?$allocator@K@1@@Z ENDP ; _STL::_List_base<unsigned long,_STL::allocator<unsigned long> >::_List_base<unsigned long,_STL::allocator<unsigned long> >
_TEXT	ENDS
PUBLIC	??1?$_List_base@KV?$allocator@K@_STL@@@_STL@@QAE@XZ ; _STL::_List_base<unsigned long,_STL::allocator<unsigned long> >::~_List_base<unsigned long,_STL::allocator<unsigned long> >
; Function compile flags: /Ogsy
;	COMDAT ??1?$_List_base@KV?$allocator@K@_STL@@@_STL@@QAE@XZ
_TEXT	SEGMENT
??1?$_List_base@KV?$allocator@K@_STL@@@_STL@@QAE@XZ PROC NEAR ; _STL::_List_base<unsigned long,_STL::allocator<unsigned long> >::~_List_base<unsigned long,_STL::allocator<unsigned long> >, COMDAT
; _this$ = ecx

; 188  :   ~_List_base() {

  00000	56		 push	 esi
  00001	8b f1		 mov	 esi, ecx

; 189  :     clear();

  00003	e8 00 00 00 00	 call	 ?clear@?$_List_base@KV?$allocator@K@_STL@@@_STL@@QAEXXZ ; _STL::_List_base<unsigned long,_STL::allocator<unsigned long> >::clear

; 190  :     _M_node.deallocate(_M_node._M_data, 1);

  00008	6a 01		 push	 1
  0000a	ff 36		 push	 DWORD PTR [esi]
  0000c	8b ce		 mov	 ecx, esi
  0000e	e8 00 00 00 00	 call	 ?deallocate@?$allocator@U?$_List_node@K@_STL@@@_STL@@QAEXPAU?$_List_node@K@2@I@Z ; _STL::allocator<_STL::_List_node<unsigned long> >::deallocate
  00013	5e		 pop	 esi

; 191  :   }

  00014	c3		 ret	 0
??1?$_List_base@KV?$allocator@K@_STL@@@_STL@@QAE@XZ ENDP ; _STL::_List_base<unsigned long,_STL::allocator<unsigned long> >::~_List_base<unsigned long,_STL::allocator<unsigned long> >
_TEXT	ENDS
PUBLIC	?end@?$list@EV?$allocator@E@_STL@@@_STL@@QAE?AU?$_List_iterator@EU?$_Nonconst_traits@E@_STL@@@2@XZ ; _STL::list<unsigned char,_STL::allocator<unsigned char> >::end
; Function compile flags: /Ogsy
;	COMDAT ?end@?$list@EV?$allocator@E@_STL@@@_STL@@QAE?AU?$_List_iterator@EU?$_Nonconst_traits@E@_STL@@@2@XZ
_TEXT	SEGMENT
___$ReturnUdt$ = 8					; size = 4
?end@?$list@EV?$allocator@E@_STL@@@_STL@@QAE?AU?$_List_iterator@EU?$_Nonconst_traits@E@_STL@@@2@XZ PROC NEAR ; _STL::list<unsigned char,_STL::allocator<unsigned char> >::end, COMDAT
; _this$ = ecx

; 269  :   iterator end()             { return this->_M_node._M_data; }

  00000	8b 09		 mov	 ecx, DWORD PTR [ecx]
  00002	8b 44 24 04	 mov	 eax, DWORD PTR ___$ReturnUdt$[esp-4]
  00006	89 08		 mov	 DWORD PTR [eax], ecx
  00008	c2 04 00	 ret	 4
?end@?$list@EV?$allocator@E@_STL@@@_STL@@QAE?AU?$_List_iterator@EU?$_Nonconst_traits@E@_STL@@@2@XZ ENDP ; _STL::list<unsigned char,_STL::allocator<unsigned char> >::end
_TEXT	ENDS
PUBLIC	??0?$_List_base@EV?$allocator@E@_STL@@@_STL@@QAE@ABV?$allocator@E@1@@Z ; _STL::_List_base<unsigned char,_STL::allocator<unsigned char> >::_List_base<unsigned char,_STL::allocator<unsigned char> >
; Function compile flags: /Ogsy
;	COMDAT ??0?$_List_base@EV?$allocator@E@_STL@@@_STL@@QAE@ABV?$allocator@E@1@@Z
_TEXT	SEGMENT
$T102827 = -1						; size = 1
___a$ = 8						; size = 4
??0?$_List_base@EV?$allocator@E@_STL@@@_STL@@QAE@ABV?$allocator@E@1@@Z PROC NEAR ; _STL::_List_base<unsigned char,_STL::allocator<unsigned char> >::_List_base<unsigned char,_STL::allocator<unsigned char> >, COMDAT
; _this$ = ecx

; 182  :   _List_base(const allocator_type& __a) : _M_node(_STLP_CONVERT_ALLOCATOR(__a, _Node), (_Node*)0) {

  00000	51		 push	 ecx
  00001	56		 push	 esi
  00002	6a 00		 push	 0
  00004	8d 44 24 0b	 lea	 eax, DWORD PTR $T102827[esp+12]
  00008	50		 push	 eax
  00009	8b f1		 mov	 esi, ecx
  0000b	e8 00 00 00 00	 call	 ??0?$_STLP_alloc_proxy@PAU?$_List_node@E@_STL@@U12@V?$allocator@U?$_List_node@E@_STL@@@2@@_STL@@QAE@ABV?$allocator@U?$_List_node@E@_STL@@@1@PAU?$_List_node@E@1@@Z ; _STL::_STLP_alloc_proxy<_STL::_List_node<unsigned char> *,_STL::_List_node<unsigned char>,_STL::allocator<_STL::_List_node<unsigned char> > >::_STLP_alloc_proxy<_STL::_List_node<unsigned char> *,_STL::_List_node<unsigned char>,_STL::allocator<_STL::_List_node<unsigned char> > >

; 183  :     _Node* __n = _M_node.allocate(1);

  00010	6a 0c		 push	 12			; 0000000cH
  00012	e8 00 00 00 00	 call	 ?allocate@?$__node_alloc@$00$0A@@_STL@@SAPAXI@Z ; _STL::__node_alloc<1,0>::allocate

; 184  :     __n->_M_next = __n;

  00017	89 00		 mov	 DWORD PTR [eax], eax

; 185  :     __n->_M_prev = __n;

  00019	89 40 04	 mov	 DWORD PTR [eax+4], eax

; 186  :     _M_node._M_data = __n;

  0001c	89 06		 mov	 DWORD PTR [esi], eax
  0001e	59		 pop	 ecx

; 187  :   }

  0001f	8b c6		 mov	 eax, esi
  00021	5e		 pop	 esi
  00022	59		 pop	 ecx
  00023	c2 04 00	 ret	 4
??0?$_List_base@EV?$allocator@E@_STL@@@_STL@@QAE@ABV?$allocator@E@1@@Z ENDP ; _STL::_List_base<unsigned char,_STL::allocator<unsigned char> >::_List_base<unsigned char,_STL::allocator<unsigned char> >
_TEXT	ENDS
PUBLIC	??1?$_List_base@EV?$allocator@E@_STL@@@_STL@@QAE@XZ ; _STL::_List_base<unsigned char,_STL::allocator<unsigned char> >::~_List_base<unsigned char,_STL::allocator<unsigned char> >
; Function compile flags: /Ogsy
;	COMDAT ??1?$_List_base@EV?$allocator@E@_STL@@@_STL@@QAE@XZ
_TEXT	SEGMENT
??1?$_List_base@EV?$allocator@E@_STL@@@_STL@@QAE@XZ PROC NEAR ; _STL::_List_base<unsigned char,_STL::allocator<unsigned char> >::~_List_base<unsigned char,_STL::allocator<unsigned char> >, COMDAT
; _this$ = ecx

; 188  :   ~_List_base() {

  00000	56		 push	 esi
  00001	8b f1		 mov	 esi, ecx

; 189  :     clear();

  00003	e8 00 00 00 00	 call	 ?clear@?$_List_base@EV?$allocator@E@_STL@@@_STL@@QAEXXZ ; _STL::_List_base<unsigned char,_STL::allocator<unsigned char> >::clear

; 190  :     _M_node.deallocate(_M_node._M_data, 1);

  00008	6a 01		 push	 1
  0000a	ff 36		 push	 DWORD PTR [esi]
  0000c	8b ce		 mov	 ecx, esi
  0000e	e8 00 00 00 00	 call	 ?deallocate@?$allocator@U?$_List_node@E@_STL@@@_STL@@QAEXPAU?$_List_node@E@2@I@Z ; _STL::allocator<_STL::_List_node<unsigned char> >::deallocate
  00013	5e		 pop	 esi

; 191  :   }

  00014	c3		 ret	 0
??1?$_List_base@EV?$allocator@E@_STL@@@_STL@@QAE@XZ ENDP ; _STL::_List_base<unsigned char,_STL::allocator<unsigned char> >::~_List_base<unsigned char,_STL::allocator<unsigned char> >
_TEXT	ENDS
PUBLIC	?_M_create_node@?$list@KV?$allocator@K@_STL@@@_STL@@IAEPAU?$_List_node@K@2@ABK@Z ; _STL::list<unsigned long,_STL::allocator<unsigned long> >::_M_create_node
EXTRN	__CxxThrowException@8:NEAR
; Function compile flags: /Ogsy
;	COMDAT ?_M_create_node@?$list@KV?$allocator@K@_STL@@@_STL@@IAEPAU?$_List_node@K@2@ABK@Z
_TEXT	SEGMENT
___x$ = 8						; size = 4
?_M_create_node@?$list@KV?$allocator@K@_STL@@@_STL@@IAEPAU?$_List_node@K@2@ABK@Z PROC NEAR ; _STL::list<unsigned long,_STL::allocator<unsigned long> >::_M_create_node, COMDAT
; _this$ = ecx

; 241  :     _Node* __p = this->_M_node.allocate(1);

  00000	6a 0c		 push	 12			; 0000000cH
  00002	e8 00 00 00 00	 call	 ?allocate@?$__node_alloc@$00$0A@@_STL@@SAPAXI@Z ; _STL::__node_alloc<1,0>::allocate
  00007	59		 pop	 ecx

; 242  :     _STLP_TRY {
; 243  :       _Construct(&__p->_M_data, __x);

  00008	8d 48 08	 lea	 ecx, DWORD PTR [eax+8]
  0000b	85 c9		 test	 ecx, ecx
  0000d	74 08		 je	 SHORT $L102863
  0000f	8b 54 24 04	 mov	 edx, DWORD PTR ___x$[esp-4]
  00013	8b 12		 mov	 edx, DWORD PTR [edx]
  00015	89 11		 mov	 DWORD PTR [ecx], edx
$L102863:

; 244  :     }
; 245  :     _STLP_UNWIND(this->_M_node.deallocate(__p, 1));
; 246  :     return __p;
; 247  :   }

  00017	c2 04 00	 ret	 4
?_M_create_node@?$list@KV?$allocator@K@_STL@@@_STL@@IAEPAU?$_List_node@K@2@ABK@Z ENDP ; _STL::list<unsigned long,_STL::allocator<unsigned long> >::_M_create_node
_TEXT	ENDS
PUBLIC	?_M_create_node@?$list@EV?$allocator@E@_STL@@@_STL@@IAEPAU?$_List_node@E@2@ABE@Z ; _STL::list<unsigned char,_STL::allocator<unsigned char> >::_M_create_node
; Function compile flags: /Ogsy
;	COMDAT ?_M_create_node@?$list@EV?$allocator@E@_STL@@@_STL@@IAEPAU?$_List_node@E@2@ABE@Z
_TEXT	SEGMENT
___x$ = 8						; size = 4
?_M_create_node@?$list@EV?$allocator@E@_STL@@@_STL@@IAEPAU?$_List_node@E@2@ABE@Z PROC NEAR ; _STL::list<unsigned char,_STL::allocator<unsigned char> >::_M_create_node, COMDAT
; _this$ = ecx

; 241  :     _Node* __p = this->_M_node.allocate(1);

  00000	6a 0c		 push	 12			; 0000000cH
  00002	e8 00 00 00 00	 call	 ?allocate@?$__node_alloc@$00$0A@@_STL@@SAPAXI@Z ; _STL::__node_alloc<1,0>::allocate
  00007	59		 pop	 ecx

; 242  :     _STLP_TRY {
; 243  :       _Construct(&__p->_M_data, __x);

  00008	8d 48 08	 lea	 ecx, DWORD PTR [eax+8]
  0000b	85 c9		 test	 ecx, ecx
  0000d	74 08		 je	 SHORT $L102893
  0000f	8b 54 24 04	 mov	 edx, DWORD PTR ___x$[esp-4]
  00013	8a 12		 mov	 dl, BYTE PTR [edx]
  00015	88 11		 mov	 BYTE PTR [ecx], dl
$L102893:

; 244  :     }
; 245  :     _STLP_UNWIND(this->_M_node.deallocate(__p, 1));
; 246  :     return __p;
; 247  :   }

  00017	c2 04 00	 ret	 4
?_M_create_node@?$list@EV?$allocator@E@_STL@@@_STL@@IAEPAU?$_List_node@E@2@ABE@Z ENDP ; _STL::list<unsigned char,_STL::allocator<unsigned char> >::_M_create_node
_TEXT	ENDS
PUBLIC	?write@GCChangeInventoryItemNum@@QBEXAAVSocketOutputStream@@@Z ; GCChangeInventoryItemNum::write
; Function compile flags: /Ogsy
; File c:\darkeden\designed_common\project\client\packet\gpackets\gcchangeinventoryitemnum.cpp
;	COMDAT ?write@GCChangeInventoryItemNum@@QBEXAAVSocketOutputStream@@@Z
_TEXT	SEGMENT
$T102961 = -8						; size = 4
$T103012 = -4						; size = 1
$T102910 = -4						; size = 1
_oStream$ = 8						; size = 4
?write@GCChangeInventoryItemNum@@QBEXAAVSocketOutputStream@@@Z PROC NEAR ; GCChangeInventoryItemNum::write, COMDAT
; _this$ = ecx

; 74   : {

  00000	55		 push	 ebp
  00001	8b ec		 mov	 ebp, esp
  00003	51		 push	 ecx
  00004	51		 push	 ecx
  00005	56		 push	 esi
  00006	8b f1		 mov	 esi, ecx

; 75   : 	__BEGIN_TRY
; 76   : 		
; 77   : 	//      .
; 78   : 	oStream.write( m_ChangedItemListNum );

  00008	8a 06		 mov	 al, BYTE PTR [esi]
  0000a	8b 4d 08	 mov	 ecx, DWORD PTR _oStream$[ebp]
  0000d	57		 push	 edi
  0000e	88 45 fc	 mov	 BYTE PTR $T102910[ebp], al
  00011	6a 01		 push	 1
  00013	8d 45 fc	 lea	 eax, DWORD PTR $T102910[ebp]
  00016	50		 push	 eax
  00017	e8 00 00 00 00	 call	 ?write@SocketOutputStream@@QAEIPBDI@Z ; SocketOutputStream::write

; 79   : 
; 80   :     for ( std::list<ObjectID_t>:: const_iterator itr = m_ChangedItemList.begin(); itr!= m_ChangedItemList.end(); itr++) {

  0001c	8b 46 04	 mov	 eax, DWORD PTR [esi+4]
  0001f	8b 38		 mov	 edi, DWORD PTR [eax]
  00021	3b f8		 cmp	 edi, eax
  00023	74 1b		 je	 SHORT $L101327
$L102931:

; 81   : 		oStream.write(*itr);

  00025	8b 47 08	 mov	 eax, DWORD PTR [edi+8]
  00028	8b 4d 08	 mov	 ecx, DWORD PTR _oStream$[ebp]
  0002b	89 45 f8	 mov	 DWORD PTR $T102961[ebp], eax
  0002e	6a 04		 push	 4
  00030	8d 45 f8	 lea	 eax, DWORD PTR $T102961[ebp]
  00033	50		 push	 eax
  00034	e8 00 00 00 00	 call	 ?write@SocketOutputStream@@QAEIPBDI@Z ; SocketOutputStream::write
  00039	8b 3f		 mov	 edi, DWORD PTR [edi]
  0003b	3b 7e 04	 cmp	 edi, DWORD PTR [esi+4]
  0003e	75 e5		 jne	 SHORT $L102931
$L101327:

; 82   : 	}
; 83   :     for ( std::list<ItemNum_t>:: const_iterator itr2 = m_ChangedItemNumList.begin(); itr2!= m_ChangedItemNumList.end(); itr2++) {

  00040	8b 46 08	 mov	 eax, DWORD PTR [esi+8]
  00043	8b 38		 mov	 edi, DWORD PTR [eax]
  00045	3b f8		 cmp	 edi, eax
  00047	74 1b		 je	 SHORT $L101415
$L102982:

; 84   : 		oStream.write(*itr2);

  00049	8a 47 08	 mov	 al, BYTE PTR [edi+8]
  0004c	8b 4d 08	 mov	 ecx, DWORD PTR _oStream$[ebp]
  0004f	88 45 fc	 mov	 BYTE PTR $T103012[ebp], al
  00052	6a 01		 push	 1
  00054	8d 45 fc	 lea	 eax, DWORD PTR $T103012[ebp]
  00057	50		 push	 eax
  00058	e8 00 00 00 00	 call	 ?write@SocketOutputStream@@QAEIPBDI@Z ; SocketOutputStream::write
  0005d	8b 3f		 mov	 edi, DWORD PTR [edi]
  0005f	3b 7e 08	 cmp	 edi, DWORD PTR [esi+8]
  00062	75 e5		 jne	 SHORT $L102982
$L101415:
  00064	5f		 pop	 edi
  00065	5e		 pop	 esi

; 85   : 	}
; 86   : 
; 87   : 	__END_CATCH
; 88   : }

  00066	c9		 leave
  00067	c2 04 00	 ret	 4
?write@GCChangeInventoryItemNum@@QBEXAAVSocketOutputStream@@@Z ENDP ; GCChangeInventoryItemNum::write
_TEXT	ENDS
PUBLIC	??0?$list@KV?$allocator@K@_STL@@@_STL@@QAE@ABV?$allocator@K@1@@Z ; _STL::list<unsigned long,_STL::allocator<unsigned long> >::list<unsigned long,_STL::allocator<unsigned long> >
; Function compile flags: /Ogsy
; File c:\stlport-4.6.1\stlport\stl\_list.h
;	COMDAT ??0?$list@KV?$allocator@K@_STL@@@_STL@@QAE@ABV?$allocator@K@1@@Z
_TEXT	SEGMENT
___a$ = 8						; size = 4
??0?$list@KV?$allocator@K@_STL@@@_STL@@QAE@ABV?$allocator@K@1@@Z PROC NEAR ; _STL::list<unsigned long,_STL::allocator<unsigned long> >::list<unsigned long,_STL::allocator<unsigned long> >, COMDAT
; _this$ = ecx

; 264  :     _List_base<_Tp, _Alloc>(__a) {}

  00000	56		 push	 esi
  00001	ff 74 24 08	 push	 DWORD PTR ___a$[esp]
  00005	8b f1		 mov	 esi, ecx
  00007	e8 00 00 00 00	 call	 ??0?$_List_base@KV?$allocator@K@_STL@@@_STL@@QAE@ABV?$allocator@K@1@@Z ; _STL::_List_base<unsigned long,_STL::allocator<unsigned long> >::_List_base<unsigned long,_STL::allocator<unsigned long> >
  0000c	8b c6		 mov	 eax, esi
  0000e	5e		 pop	 esi
  0000f	c2 04 00	 ret	 4
??0?$list@KV?$allocator@K@_STL@@@_STL@@QAE@ABV?$allocator@K@1@@Z ENDP ; _STL::list<unsigned long,_STL::allocator<unsigned long> >::list<unsigned long,_STL::allocator<unsigned long> >
_TEXT	ENDS
PUBLIC	??1?$list@KV?$allocator@K@_STL@@@_STL@@QAE@XZ	; _STL::list<unsigned long,_STL::allocator<unsigned long> >::~list<unsigned long,_STL::allocator<unsigned long> >
; Function compile flags: /Ogsy
;	COMDAT ??1?$list@KV?$allocator@K@_STL@@@_STL@@QAE@XZ
_TEXT	SEGMENT
??1?$list@KV?$allocator@K@_STL@@@_STL@@QAE@XZ PROC NEAR	; _STL::list<unsigned long,_STL::allocator<unsigned long> >::~list<unsigned long,_STL::allocator<unsigned long> >, COMDAT
; _this$ = ecx

; 416  :   ~list() { }

  00000	e9 00 00 00 00	 jmp	 ??1?$_List_base@KV?$allocator@K@_STL@@@_STL@@QAE@XZ ; _STL::_List_base<unsigned long,_STL::allocator<unsigned long> >::~_List_base<unsigned long,_STL::allocator<unsigned long> >
??1?$list@KV?$allocator@K@_STL@@@_STL@@QAE@XZ ENDP	; _STL::list<unsigned long,_STL::allocator<unsigned long> >::~list<unsigned long,_STL::allocator<unsigned long> >
_TEXT	ENDS
PUBLIC	??0?$list@EV?$allocator@E@_STL@@@_STL@@QAE@ABV?$allocator@E@1@@Z ; _STL::list<unsigned char,_STL::allocator<unsigned char> >::list<unsigned char,_STL::allocator<unsigned char> >
; Function compile flags: /Ogsy
;	COMDAT ??0?$list@EV?$allocator@E@_STL@@@_STL@@QAE@ABV?$allocator@E@1@@Z
_TEXT	SEGMENT
___a$ = 8						; size = 4
??0?$list@EV?$allocator@E@_STL@@@_STL@@QAE@ABV?$allocator@E@1@@Z PROC NEAR ; _STL::list<unsigned char,_STL::allocator<unsigned char> >::list<unsigned char,_STL::allocator<unsigned char> >, COMDAT
; _this$ = ecx

; 264  :     _List_base<_Tp, _Alloc>(__a) {}

  00000	56		 push	 esi
  00001	ff 74 24 08	 push	 DWORD PTR ___a$[esp]
  00005	8b f1		 mov	 esi, ecx
  00007	e8 00 00 00 00	 call	 ??0?$_List_base@EV?$allocator@E@_STL@@@_STL@@QAE@ABV?$allocator@E@1@@Z ; _STL::_List_base<unsigned char,_STL::allocator<unsigned char> >::_List_base<unsigned char,_STL::allocator<unsigned char> >
  0000c	8b c6		 mov	 eax, esi
  0000e	5e		 pop	 esi
  0000f	c2 04 00	 ret	 4
??0?$list@EV?$allocator@E@_STL@@@_STL@@QAE@ABV?$allocator@E@1@@Z ENDP ; _STL::list<unsigned char,_STL::allocator<unsigned char> >::list<unsigned char,_STL::allocator<unsigned char> >
_TEXT	ENDS
PUBLIC	??1?$list@EV?$allocator@E@_STL@@@_STL@@QAE@XZ	; _STL::list<unsigned char,_STL::allocator<unsigned char> >::~list<unsigned char,_STL::allocator<unsigned char> >
; Function compile flags: /Ogsy
;	COMDAT ??1?$list@EV?$allocator@E@_STL@@@_STL@@QAE@XZ
_TEXT	SEGMENT
??1?$list@EV?$allocator@E@_STL@@@_STL@@QAE@XZ PROC NEAR	; _STL::list<unsigned char,_STL::allocator<unsigned char> >::~list<unsigned char,_STL::allocator<unsigned char> >, COMDAT
; _this$ = ecx

; 416  :   ~list() { }

  00000	e9 00 00 00 00	 jmp	 ??1?$_List_base@EV?$allocator@E@_STL@@@_STL@@QAE@XZ ; _STL::_List_base<unsigned char,_STL::allocator<unsigned char> >::~_List_base<unsigned char,_STL::allocator<unsigned char> >
??1?$list@EV?$allocator@E@_STL@@@_STL@@QAE@XZ ENDP	; _STL::list<unsigned char,_STL::allocator<unsigned char> >::~list<unsigned char,_STL::allocator<unsigned char> >
_TEXT	ENDS
PUBLIC	?insert@?$list@KV?$allocator@K@_STL@@@_STL@@QAE?AU?$_List_iterator@KU?$_Nonconst_traits@K@_STL@@@2@U32@ABK@Z ; _STL::list<unsigned long,_STL::allocator<unsigned long> >::insert
; Function compile flags: /Ogsy
;	COMDAT ?insert@?$list@KV?$allocator@K@_STL@@@_STL@@QAE?AU?$_List_iterator@KU?$_Nonconst_traits@K@_STL@@@2@U32@ABK@Z
_TEXT	SEGMENT
___$ReturnUdt$ = 8					; size = 4
___position$ = 12					; size = 4
___x$ = 16						; size = 4
?insert@?$list@KV?$allocator@K@_STL@@@_STL@@QAE?AU?$_List_iterator@KU?$_Nonconst_traits@K@_STL@@@2@U32@ABK@Z PROC NEAR ; _STL::list<unsigned long,_STL::allocator<unsigned long> >::insert, COMDAT
; _this$ = ecx

; 299  : 
; 300  :     _Node* __tmp = _M_create_node(__x);

  00000	ff 74 24 0c	 push	 DWORD PTR ___x$[esp-4]
  00004	e8 00 00 00 00	 call	 ?_M_create_node@?$list@KV?$allocator@K@_STL@@@_STL@@IAEPAU?$_List_node@K@2@ABK@Z ; _STL::list<unsigned long,_STL::allocator<unsigned long> >::_M_create_node

; 301  :     _List_node_base* __n = __position._M_node;
; 302  :     _List_node_base* __p = __n->_M_prev;

  00009	8b 4c 24 08	 mov	 ecx, DWORD PTR ___position$[esp-4]
  0000d	8b 51 04	 mov	 edx, DWORD PTR [ecx+4]

; 303  :     __tmp->_M_next = __n;

  00010	89 08		 mov	 DWORD PTR [eax], ecx

; 304  :     __tmp->_M_prev = __p;

  00012	89 50 04	 mov	 DWORD PTR [eax+4], edx

; 305  :     __p->_M_next = __tmp;

  00015	89 02		 mov	 DWORD PTR [edx], eax

; 306  :     __n->_M_prev = __tmp;

  00017	89 41 04	 mov	 DWORD PTR [ecx+4], eax

; 307  :     return __tmp;

  0001a	8b 4c 24 04	 mov	 ecx, DWORD PTR ___$ReturnUdt$[esp-4]
  0001e	89 01		 mov	 DWORD PTR [ecx], eax
  00020	8b c1		 mov	 eax, ecx

; 308  :   }

  00022	c2 0c 00	 ret	 12			; 0000000cH
?insert@?$list@KV?$allocator@K@_STL@@@_STL@@QAE?AU?$_List_iterator@KU?$_Nonconst_traits@K@_STL@@@2@U32@ABK@Z ENDP ; _STL::list<unsigned long,_STL::allocator<unsigned long> >::insert
_TEXT	ENDS
PUBLIC	?insert@?$list@EV?$allocator@E@_STL@@@_STL@@QAE?AU?$_List_iterator@EU?$_Nonconst_traits@E@_STL@@@2@U32@ABE@Z ; _STL::list<unsigned char,_STL::allocator<unsigned char> >::insert
; Function compile flags: /Ogsy
;	COMDAT ?insert@?$list@EV?$allocator@E@_STL@@@_STL@@QAE?AU?$_List_iterator@EU?$_Nonconst_traits@E@_STL@@@2@U32@ABE@Z
_TEXT	SEGMENT
___$ReturnUdt$ = 8					; size = 4
___position$ = 12					; size = 4
___x$ = 16						; size = 4
?insert@?$list@EV?$allocator@E@_STL@@@_STL@@QAE?AU?$_List_iterator@EU?$_Nonconst_traits@E@_STL@@@2@U32@ABE@Z PROC NEAR ; _STL::list<unsigned char,_STL::allocator<unsigned char> >::insert, COMDAT
; _this$ = ecx

; 299  : 
; 300  :     _Node* __tmp = _M_create_node(__x);

  00000	ff 74 24 0c	 push	 DWORD PTR ___x$[esp-4]
  00004	e8 00 00 00 00	 call	 ?_M_create_node@?$list@EV?$allocator@E@_STL@@@_STL@@IAEPAU?$_List_node@E@2@ABE@Z ; _STL::list<unsigned char,_STL::allocator<unsigned char> >::_M_create_node

; 301  :     _List_node_base* __n = __position._M_node;
; 302  :     _List_node_base* __p = __n->_M_prev;

  00009	8b 4c 24 08	 mov	 ecx, DWORD PTR ___position$[esp-4]
  0000d	8b 51 04	 mov	 edx, DWORD PTR [ecx+4]

; 303  :     __tmp->_M_next = __n;

  00010	89 08		 mov	 DWORD PTR [eax], ecx

; 304  :     __tmp->_M_prev = __p;

  00012	89 50 04	 mov	 DWORD PTR [eax+4], edx

; 305  :     __p->_M_next = __tmp;

  00015	89 02		 mov	 DWORD PTR [edx], eax

; 306  :     __n->_M_prev = __tmp;

  00017	89 41 04	 mov	 DWORD PTR [ecx+4], eax

; 307  :     return __tmp;

  0001a	8b 4c 24 04	 mov	 ecx, DWORD PTR ___$ReturnUdt$[esp-4]
  0001e	89 01		 mov	 DWORD PTR [ecx], eax
  00020	8b c1		 mov	 eax, ecx

; 308  :   }

  00022	c2 0c 00	 ret	 12			; 0000000cH
?insert@?$list@EV?$allocator@E@_STL@@@_STL@@QAE?AU?$_List_iterator@EU?$_Nonconst_traits@E@_STL@@@2@U32@ABE@Z ENDP ; _STL::list<unsigned char,_STL::allocator<unsigned char> >::insert
_TEXT	ENDS
PUBLIC	??0GCChangeInventoryItemNum@@QAE@XZ		; GCChangeInventoryItemNum::GCChangeInventoryItemNum
; Function compile flags: /Ogsy
; File c:\darkeden\designed_common\project\client\packet\gpackets\gcchangeinventoryitemnum.cpp
;	COMDAT ??0GCChangeInventoryItemNum@@QAE@XZ
_TEXT	SEGMENT
$T103058 = -1						; size = 1
$T103057 = -1						; size = 1
??0GCChangeInventoryItemNum@@QAE@XZ PROC NEAR		; GCChangeInventoryItemNum::GCChangeInventoryItemNum, COMDAT
; _this$ = ecx

; 23   : {

  00000	55		 push	 ebp
  00001	8b ec		 mov	 ebp, esp
  00003	51		 push	 ecx
  00004	56		 push	 esi
  00005	8b f1		 mov	 esi, ecx
  00007	8d 45 ff	 lea	 eax, DWORD PTR $T103057[ebp]
  0000a	50		 push	 eax
  0000b	8d 4e 04	 lea	 ecx, DWORD PTR [esi+4]
  0000e	e8 00 00 00 00	 call	 ??0?$list@KV?$allocator@K@_STL@@@_STL@@QAE@ABV?$allocator@K@1@@Z ; _STL::list<unsigned long,_STL::allocator<unsigned long> >::list<unsigned long,_STL::allocator<unsigned long> >
  00013	8d 45 ff	 lea	 eax, DWORD PTR $T103058[ebp]
  00016	50		 push	 eax
  00017	8d 4e 08	 lea	 ecx, DWORD PTR [esi+8]
  0001a	e8 00 00 00 00	 call	 ??0?$list@EV?$allocator@E@_STL@@@_STL@@QAE@ABV?$allocator@E@1@@Z ; _STL::list<unsigned char,_STL::allocator<unsigned char> >::list<unsigned char,_STL::allocator<unsigned char> >

; 24   : 	__BEGIN_TRY
; 25   : 	m_ChangedItemListNum = 0;

  0001f	c6 06 00	 mov	 BYTE PTR [esi], 0

; 26   : 	__END_CATCH
; 27   : }

  00022	8b c6		 mov	 eax, esi
  00024	5e		 pop	 esi
  00025	c9		 leave
  00026	c3		 ret	 0
??0GCChangeInventoryItemNum@@QAE@XZ ENDP		; GCChangeInventoryItemNum::GCChangeInventoryItemNum
_TEXT	ENDS
PUBLIC	??1GCChangeInventoryItemNum@@QAE@XZ		; GCChangeInventoryItemNum::~GCChangeInventoryItemNum
; Function compile flags: /Ogsy
;	COMDAT ??1GCChangeInventoryItemNum@@QAE@XZ
_TEXT	SEGMENT
??1GCChangeInventoryItemNum@@QAE@XZ PROC NEAR		; GCChangeInventoryItemNum::~GCChangeInventoryItemNum, COMDAT
; _this$ = ecx

; 35   : {

  00000	56		 push	 esi
  00001	8b f1		 mov	 esi, ecx

; 36   : 	__BEGIN_TRY
; 37   : 	__END_CATCH
; 38   : }

  00003	8d 4e 08	 lea	 ecx, DWORD PTR [esi+8]
  00006	e8 00 00 00 00	 call	 ??1?$list@EV?$allocator@E@_STL@@@_STL@@QAE@XZ ; _STL::list<unsigned char,_STL::allocator<unsigned char> >::~list<unsigned char,_STL::allocator<unsigned char> >
  0000b	8d 4e 04	 lea	 ecx, DWORD PTR [esi+4]
  0000e	5e		 pop	 esi
  0000f	e9 00 00 00 00	 jmp	 ??1?$list@KV?$allocator@K@_STL@@@_STL@@QAE@XZ ; _STL::list<unsigned long,_STL::allocator<unsigned long> >::~list<unsigned long,_STL::allocator<unsigned long> >
??1GCChangeInventoryItemNum@@QAE@XZ ENDP		; GCChangeInventoryItemNum::~GCChangeInventoryItemNum
_TEXT	ENDS
PUBLIC	?push_back@?$list@KV?$allocator@K@_STL@@@_STL@@QAEXABK@Z ; _STL::list<unsigned long,_STL::allocator<unsigned long> >::push_back
; Function compile flags: /Ogsy
; File c:\stlport-4.6.1\stlport\stl\_list.h
;	COMDAT ?push_back@?$list@KV?$allocator@K@_STL@@@_STL@@QAEXABK@Z
_TEXT	SEGMENT
$T103078 = 8						; size = 4
___x$ = 8						; size = 4
?push_back@?$list@KV?$allocator@K@_STL@@@_STL@@QAEXABK@Z PROC NEAR ; _STL::list<unsigned long,_STL::allocator<unsigned long> >::push_back, COMDAT
; _this$ = ecx

; 345  :   void push_back(const _Tp& __x) { insert(end(), __x); }

  00000	55		 push	 ebp
  00001	8b ec		 mov	 ebp, esp
  00003	ff 75 08	 push	 DWORD PTR ___x$[ebp]
  00006	8b 11		 mov	 edx, DWORD PTR [ecx]
  00008	51		 push	 ecx
  00009	8b c4		 mov	 eax, esp
  0000b	89 10		 mov	 DWORD PTR [eax], edx
  0000d	8d 45 08	 lea	 eax, DWORD PTR $T103078[ebp]
  00010	50		 push	 eax
  00011	e8 00 00 00 00	 call	 ?insert@?$list@KV?$allocator@K@_STL@@@_STL@@QAE?AU?$_List_iterator@KU?$_Nonconst_traits@K@_STL@@@2@U32@ABK@Z ; _STL::list<unsigned long,_STL::allocator<unsigned long> >::insert
  00016	5d		 pop	 ebp
  00017	c2 04 00	 ret	 4
?push_back@?$list@KV?$allocator@K@_STL@@@_STL@@QAEXABK@Z ENDP ; _STL::list<unsigned long,_STL::allocator<unsigned long> >::push_back
_TEXT	ENDS
PUBLIC	?push_back@?$list@EV?$allocator@E@_STL@@@_STL@@QAEXABE@Z ; _STL::list<unsigned char,_STL::allocator<unsigned char> >::push_back
; Function compile flags: /Ogsy
;	COMDAT ?push_back@?$list@EV?$allocator@E@_STL@@@_STL@@QAEXABE@Z
_TEXT	SEGMENT
$T103099 = 8						; size = 4
___x$ = 8						; size = 4
?push_back@?$list@EV?$allocator@E@_STL@@@_STL@@QAEXABE@Z PROC NEAR ; _STL::list<unsigned char,_STL::allocator<unsigned char> >::push_back, COMDAT
; _this$ = ecx

; 345  :   void push_back(const _Tp& __x) { insert(end(), __x); }

  00000	55		 push	 ebp
  00001	8b ec		 mov	 ebp, esp
  00003	ff 75 08	 push	 DWORD PTR ___x$[ebp]
  00006	8b 11		 mov	 edx, DWORD PTR [ecx]
  00008	51		 push	 ecx
  00009	8b c4		 mov	 eax, esp
  0000b	89 10		 mov	 DWORD PTR [eax], edx
  0000d	8d 45 08	 lea	 eax, DWORD PTR $T103099[ebp]
  00010	50		 push	 eax
  00011	e8 00 00 00 00	 call	 ?insert@?$list@EV?$allocator@E@_STL@@@_STL@@QAE?AU?$_List_iterator@EU?$_Nonconst_traits@E@_STL@@@2@U32@ABE@Z ; _STL::list<unsigned char,_STL::allocator<unsigned char> >::insert
  00016	5d		 pop	 ebp
  00017	c2 04 00	 ret	 4
?push_back@?$list@EV?$allocator@E@_STL@@@_STL@@QAEXABE@Z ENDP ; _STL::list<unsigned char,_STL::allocator<unsigned char> >::push_back
_TEXT	ENDS
PUBLIC	?read@GCChangeInventoryItemNum@@QAEXAAVSocketInputStream@@@Z ; GCChangeInventoryItemNum::read
; Function compile flags: /Ogsy
; File c:\darkeden\designed_common\project\client\packet\gpackets\gcchangeinventoryitemnum.cpp
;	COMDAT ?read@GCChangeInventoryItemNum@@QAEXAAVSocketInputStream@@@Z
_TEXT	SEGMENT
_item$ = -8						; size = 4
_num$ = -1						; size = 1
_iStream$ = 8						; size = 4
?read@GCChangeInventoryItemNum@@QAEXAAVSocketInputStream@@@Z PROC NEAR ; GCChangeInventoryItemNum::read, COMDAT
; _this$ = ecx

; 46   : {

  00000	55		 push	 ebp
  00001	8b ec		 mov	 ebp, esp
  00003	51		 push	 ecx
  00004	51		 push	 ecx
  00005	53		 push	 ebx
  00006	56		 push	 esi
  00007	57		 push	 edi
  00008	8b f1		 mov	 esi, ecx

; 47   : 	__BEGIN_TRY
; 48   : 		
; 49   : 	//      .
; 50   : 	iStream.read( m_ChangedItemListNum );

  0000a	8b 4d 08	 mov	 ecx, DWORD PTR _iStream$[ebp]
  0000d	6a 01		 push	 1
  0000f	56		 push	 esi
  00010	e8 00 00 00 00	 call	 ?read@SocketInputStream@@QAEIPADI@Z ; SocketInputStream::read

; 51   : 
; 52   : 	int i;
; 53   : 	ObjectID_t item;
; 54   : 	ItemNum_t num;
; 55   : 	
; 56   : 	for( i = 0; i < m_ChangedItemListNum; i++ ) {

  00015	33 ff		 xor	 edi, edi
  00017	80 3e 00	 cmp	 BYTE PTR [esi], 0
  0001a	76 24		 jbe	 SHORT $L101230
  0001c	8d 5e 04	 lea	 ebx, DWORD PTR [esi+4]
$L101228:

; 57   : 		iStream.read( item);

  0001f	8b 4d 08	 mov	 ecx, DWORD PTR _iStream$[ebp]
  00022	6a 04		 push	 4
  00024	8d 45 f8	 lea	 eax, DWORD PTR _item$[ebp]
  00027	50		 push	 eax
  00028	e8 00 00 00 00	 call	 ?read@SocketInputStream@@QAEIPADI@Z ; SocketInputStream::read

; 58   : 		m_ChangedItemList.push_back( item);

  0002d	8d 45 f8	 lea	 eax, DWORD PTR _item$[ebp]
  00030	50		 push	 eax
  00031	8b cb		 mov	 ecx, ebx
  00033	e8 00 00 00 00	 call	 ?push_back@?$list@KV?$allocator@K@_STL@@@_STL@@QAEXABK@Z ; _STL::list<unsigned long,_STL::allocator<unsigned long> >::push_back
  00038	0f b6 06	 movzx	 eax, BYTE PTR [esi]
  0003b	47		 inc	 edi
  0003c	3b f8		 cmp	 edi, eax
  0003e	7c df		 jl	 SHORT $L101228
$L101230:

; 59   : 	}
; 60   : 	for( i = 0; i < m_ChangedItemListNum; i++ ) {

  00040	33 ff		 xor	 edi, edi
  00042	80 3e 00	 cmp	 BYTE PTR [esi], 0
  00045	76 24		 jbe	 SHORT $L101233
  00047	8d 5e 08	 lea	 ebx, DWORD PTR [esi+8]
$L101231:

; 61   : 		iStream.read( num);

  0004a	8b 4d 08	 mov	 ecx, DWORD PTR _iStream$[ebp]
  0004d	6a 01		 push	 1
  0004f	8d 45 ff	 lea	 eax, DWORD PTR _num$[ebp]
  00052	50		 push	 eax
  00053	e8 00 00 00 00	 call	 ?read@SocketInputStream@@QAEIPADI@Z ; SocketInputStream::read

; 62   : 		m_ChangedItemNumList.push_back( num);

  00058	8d 45 ff	 lea	 eax, DWORD PTR _num$[ebp]
  0005b	50		 push	 eax
  0005c	8b cb		 mov	 ecx, ebx
  0005e	e8 00 00 00 00	 call	 ?push_back@?$list@EV?$allocator@E@_STL@@@_STL@@QAEXABE@Z ; _STL::list<unsigned char,_STL::allocator<unsigned char> >::push_back
  00063	0f b6 06	 movzx	 eax, BYTE PTR [esi]
  00066	47		 inc	 edi
  00067	3b f8		 cmp	 edi, eax
  00069	7c df		 jl	 SHORT $L101231
$L101233:
  0006b	5f		 pop	 edi
  0006c	5e		 pop	 esi
  0006d	5b		 pop	 ebx

; 63   : 	}
; 64   : 
; 65   : 	__END_CATCH
; 66   : }

  0006e	c9		 leave
  0006f	c2 04 00	 ret	 4
?read@GCChangeInventoryItemNum@@QAEXAAVSocketInputStream@@@Z ENDP ; GCChangeInventoryItemNum::read
_TEXT	ENDS
PUBLIC	?addChangedItemListElement@GCChangeInventoryItemNum@@QAEXKE@Z ; GCChangeInventoryItemNum::addChangedItemListElement
; Function compile flags: /Ogsy
;	COMDAT ?addChangedItemListElement@GCChangeInventoryItemNum@@QAEXKE@Z
_TEXT	SEGMENT
_id$ = 8						; size = 4
_num$ = 12						; size = 1
?addChangedItemListElement@GCChangeInventoryItemNum@@QAEXKE@Z PROC NEAR ; GCChangeInventoryItemNum::addChangedItemListElement, COMDAT
; _this$ = ecx

; 99   : {

  00000	56		 push	 esi
  00001	8b f1		 mov	 esi, ecx

; 100  : 	__BEGIN_TRY
; 101  : 
; 102  : 	//    List .
; 103  : 	m_ChangedItemList.push_back( id);

  00003	8d 44 24 08	 lea	 eax, DWORD PTR _id$[esp]
  00007	50		 push	 eax
  00008	8d 4e 04	 lea	 ecx, DWORD PTR [esi+4]
  0000b	e8 00 00 00 00	 call	 ?push_back@?$list@KV?$allocator@K@_STL@@@_STL@@QAEXABK@Z ; _STL::list<unsigned long,_STL::allocator<unsigned long> >::push_back

; 104  : 	m_ChangedItemNumList.push_back( num);

  00010	8d 44 24 0c	 lea	 eax, DWORD PTR _num$[esp]
  00014	50		 push	 eax
  00015	8d 4e 08	 lea	 ecx, DWORD PTR [esi+8]
  00018	e8 00 00 00 00	 call	 ?push_back@?$list@EV?$allocator@E@_STL@@@_STL@@QAEXABE@Z ; _STL::list<unsigned char,_STL::allocator<unsigned char> >::push_back

; 105  : 
; 106  : 	//      .
; 107  : 	m_ChangedItemListNum++;

  0001d	fe 06		 inc	 BYTE PTR [esi]
  0001f	5e		 pop	 esi

; 108  : 
; 109  : 	__END_CATCH
; 110  : }

  00020	c2 08 00	 ret	 8
?addChangedItemListElement@GCChangeInventoryItemNum@@QAEXKE@Z ENDP ; GCChangeInventoryItemNum::addChangedItemListElement
_TEXT	ENDS
END
