; Listing generated by Microsoft (R) Optimizing Compiler Version 13.10.3077 

	TITLE	\darkeden\Designed_Common\Project\Client\Packet\Gpackets\GCSkillToTileOK1.cpp
	.386P
include listing.inc
if @Version gt 510
.model FLAT
else
_TEXT	SEGMENT PARA USE32 PUBLIC 'CODE'
_TEXT	ENDS
_DATA	SEGMENT DWORD USE32 PUBLIC 'DATA'
_DATA	ENDS
CONST	SEGMENT DWORD USE32 PUBLIC 'CONST'
CONST	ENDS
_BSS	SEGMENT DWORD USE32 PUBLIC 'BSS'
_BSS	ENDS
$$SYMBOLS	SEGMENT BYTE USE32 'DEBSYM'
$$SYMBOLS	ENDS
$$TYPES	SEGMENT BYTE USE32 'DEBTYP'
$$TYPES	ENDS
_TLS	SEGMENT DWORD USE32 PUBLIC 'TLS'
_TLS	ENDS
;	COMDAT ??_C@_0CA@NDINADEE@SocketOutputStream?$CIm_BufferLen?3?$AA@
CONST	SEGMENT DWORD USE32 PUBLIC 'CONST'
CONST	ENDS
;	COMDAT ??_C@_08LIHEOLAN@?0m_Head?3?$AA@
CONST	SEGMENT DWORD USE32 PUBLIC 'CONST'
CONST	ENDS
;	COMDAT ??_C@_08PCEHPGHK@?0m_Tail?3?$AA@
CONST	SEGMENT DWORD USE32 PUBLIC 'CONST'
CONST	ENDS
;	COMDAT ??_C@_01PKGAHCOL@?$CJ?$AA@
CONST	SEGMENT DWORD USE32 PUBLIC 'CONST'
CONST	ENDS
;	COMDAT ??_C@_09EMOGKKPB@BASIC_STR?$AA@
CONST	SEGMENT DWORD USE32 PUBLIC 'CONST'
CONST	ENDS
;	COMDAT ??_C@_0M@EJOONLND@CURRENT_STR?$AA@
CONST	SEGMENT DWORD USE32 PUBLIC 'CONST'
CONST	ENDS
;	COMDAT ??_C@_07KKCHECBB@MAX_STR?$AA@
CONST	SEGMENT DWORD USE32 PUBLIC 'CONST'
CONST	ENDS
;	COMDAT ??_C@_0P@CEHLLGLK@STR_EXP_REMAIN?$AA@
CONST	SEGMENT DWORD USE32 PUBLIC 'CONST'
CONST	ENDS
;	COMDAT ??_C@_09GGCDOEBK@BASIC_DEX?$AA@
CONST	SEGMENT DWORD USE32 PUBLIC 'CONST'
CONST	ENDS
;	COMDAT ??_C@_0M@GDCLJFDI@CURRENT_DEX?$AA@
CONST	SEGMENT DWORD USE32 PUBLIC 'CONST'
CONST	ENDS
;	COMDAT ??_C@_07IAOCAMPK@MAX_DEX?$AA@
CONST	SEGMENT DWORD USE32 PUBLIC 'CONST'
CONST	ENDS
;	COMDAT ??_C@_0P@DKPKJNND@DEX_EXP_REMAIN?$AA@
CONST	SEGMENT DWORD USE32 PUBLIC 'CONST'
CONST	ENDS
;	COMDAT ??_C@_09DEKJJMCK@BASIC_INT?$AA@
CONST	SEGMENT DWORD USE32 PUBLIC 'CONST'
CONST	ENDS
;	COMDAT ??_C@_0M@DBKBONAI@CURRENT_INT?$AA@
CONST	SEGMENT DWORD USE32 PUBLIC 'CONST'
CONST	ENDS
;	COMDAT ??_C@_07NCGIHEMK@MAX_INT?$AA@
CONST	SEGMENT DWORD USE32 PUBLIC 'CONST'
CONST	ENDS
;	COMDAT ??_C@_0P@BDHGGNMJ@INT_EXP_REMAIN?$AA@
CONST	SEGMENT DWORD USE32 PUBLIC 'CONST'
CONST	ENDS
;	COMDAT ??_C@_0L@HGOGCHKL@CURRENT_HP?$AA@
CONST	SEGMENT DWORD USE32 PUBLIC 'CONST'
CONST	ENDS
;	COMDAT ??_C@_06NMHEPHCD@MAX_HP?$AA@
CONST	SEGMENT DWORD USE32 PUBLIC 'CONST'
CONST	ENDS
;	COMDAT ??_C@_0L@HACNOFEA@CURRENT_MP?$AA@
CONST	SEGMENT DWORD USE32 PUBLIC 'CONST'
CONST	ENDS
;	COMDAT ??_C@_06NKLPDFMI@MAX_MP?$AA@
CONST	SEGMENT DWORD USE32 PUBLIC 'CONST'
CONST	ENDS
;	COMDAT ??_C@_0L@HOANAEGI@MIN_DAMAGE?$AA@
CONST	SEGMENT DWORD USE32 PUBLIC 'CONST'
CONST	ENDS
;	COMDAT ??_C@_0L@LCAAHPGH@MAX_DAMAGE?$AA@
CONST	SEGMENT DWORD USE32 PUBLIC 'CONST'
CONST	ENDS
;	COMDAT ??_C@_07PABEIMLA@DEFENSE?$AA@
CONST	SEGMENT DWORD USE32 PUBLIC 'CONST'
CONST	ENDS
;	COMDAT ??_C@_0L@CACMAAHO@PROTECTION?$AA@
CONST	SEGMENT DWORD USE32 PUBLIC 'CONST'
CONST	ENDS
;	COMDAT ??_C@_05PMLNIFOI@TOHIT?$AA@
CONST	SEGMENT DWORD USE32 PUBLIC 'CONST'
CONST	ENDS
;	COMDAT ??_C@_06IGFCKNHC@VISION?$AA@
CONST	SEGMENT DWORD USE32 PUBLIC 'CONST'
CONST	ENDS
;	COMDAT ??_C@_04DIIKDPIA@FAME?$AA@
CONST	SEGMENT DWORD USE32 PUBLIC 'CONST'
CONST	ENDS
;	COMDAT ??_C@_04PNOMDKHF@GOLD?$AA@
CONST	SEGMENT DWORD USE32 PUBLIC 'CONST'
CONST	ENDS
;	COMDAT ??_C@_0BD@KMGAIODB@SWORD_DOMAIN_LEVEL?$AA@
CONST	SEGMENT DWORD USE32 PUBLIC 'CONST'
CONST	ENDS
;	COMDAT ??_C@_0BI@BGNAADGH@SWORD_DOMAIN_EXP_REMAIN?$AA@
CONST	SEGMENT DWORD USE32 PUBLIC 'CONST'
CONST	ENDS
;	COMDAT ??_C@_0BG@IGGENAK@SWORD_DOMAIN_GOAL_EXP?$AA@
CONST	SEGMENT DWORD USE32 PUBLIC 'CONST'
CONST	ENDS
;	COMDAT ??_C@_0BD@PGNNGOBB@BLADE_DOMAIN_LEVEL?$AA@
CONST	SEGMENT DWORD USE32 PUBLIC 'CONST'
CONST	ENDS
;	COMDAT ??_C@_0BI@IMLMLFMG@BLADE_DOMAIN_EXP_REMAIN?$AA@
CONST	SEGMENT DWORD USE32 PUBLIC 'CONST'
CONST	ENDS
;	COMDAT ??_C@_0BG@NLIFDHGN@BLADE_DOMAIN_GOAL_EXP?$AA@
CONST	SEGMENT DWORD USE32 PUBLIC 'CONST'
CONST	ENDS
;	COMDAT ??_C@_0BC@GPJLIFK@HEAL_DOMAIN_LEVEL?$AA@
CONST	SEGMENT DWORD USE32 PUBLIC 'CONST'
CONST	ENDS
;	COMDAT ??_C@_0BH@ILFIDFFK@HEAL_DOMAIN_EXP_REMAIN?$AA@
CONST	SEGMENT DWORD USE32 PUBLIC 'CONST'
CONST	ENDS
;	COMDAT ??_C@_0BF@EMCLNDPE@HEAL_DOMAIN_GOAL_EXP?$AA@
CONST	SEGMENT DWORD USE32 PUBLIC 'CONST'
CONST	ENDS
;	COMDAT ??_C@_0BF@ONHDOKIF@ENCHANT_DOMAIN_LEVEL?$AA@
CONST	SEGMENT DWORD USE32 PUBLIC 'CONST'
CONST	ENDS
;	COMDAT ??_C@_0BK@LANBKOIK@ENCHANT_DOMAIN_EXP_REMAIN?$AA@
CONST	SEGMENT DWORD USE32 PUBLIC 'CONST'
CONST	ENDS
;	COMDAT ??_C@_0BI@EPBOPEPK@ENCHANT_DOMAIN_GOAL_EXP?$AA@
CONST	SEGMENT DWORD USE32 PUBLIC 'CONST'
CONST	ENDS
;	COMDAT ??_C@_0BB@ELHNALIJ@GUN_DOMAIN_LEVEL?$AA@
CONST	SEGMENT DWORD USE32 PUBLIC 'CONST'
CONST	ENDS
;	COMDAT ??_C@_0BG@OJCBFDLD@GUN_DOMAIN_EXP_REMAIN?$AA@
CONST	SEGMENT DWORD USE32 PUBLIC 'CONST'
CONST	ENDS
;	COMDAT ??_C@_0BE@OGNJOCJC@GUN_DOMAIN_GOAL_EXP?$AA@
CONST	SEGMENT DWORD USE32 PUBLIC 'CONST'
CONST	ENDS
;	COMDAT ??_C@_0BB@MNCHHIND@ETC_DOMAIN_LEVEL?$AA@
CONST	SEGMENT DWORD USE32 PUBLIC 'CONST'
CONST	ENDS
;	COMDAT ??_C@_0BG@OOPKBPAA@ETC_DOMAIN_EXP_REMAIN?$AA@
CONST	SEGMENT DWORD USE32 PUBLIC 'CONST'
CONST	ENDS
;	COMDAT ??_C@_0BE@IFONLKN@ETC_DOMAIN_GOAL_EXP?$AA@
CONST	SEGMENT DWORD USE32 PUBLIC 'CONST'
CONST	ENDS
;	COMDAT ??_C@_0M@OHHCLPDA@SKILL_LEVEL?$AA@
CONST	SEGMENT DWORD USE32 PUBLIC 'CONST'
CONST	ENDS
;	COMDAT ??_C@_05GCEPFMCO@LEVEL?$AA@
CONST	SEGMENT DWORD USE32 PUBLIC 'CONST'
CONST	ENDS
;	COMDAT ??_C@_0M@MLFPLLC@EFFECT_STAT?$AA@
CONST	SEGMENT DWORD USE32 PUBLIC 'CONST'
CONST	ENDS
;	COMDAT ??_C@_08MJLDLDGF@DURATION?$AA@
CONST	SEGMENT DWORD USE32 PUBLIC 'CONST'
CONST	ENDS
;	COMDAT ??_C@_06JADFICD@BULLET?$AA@
CONST	SEGMENT DWORD USE32 PUBLIC 'CONST'
CONST	ENDS
;	COMDAT ??_C@_0M@DPKCELMF@BONUS_POINT?$AA@
CONST	SEGMENT DWORD USE32 PUBLIC 'CONST'
CONST	ENDS
;	COMDAT ??_C@_0L@JEFHDPIL@DURABILITY?$AA@
CONST	SEGMENT DWORD USE32 PUBLIC 'CONST'
CONST	ENDS
;	COMDAT ??_C@_09EGKBMPFK@NOTORIETY?$AA@
CONST	SEGMENT DWORD USE32 PUBLIC 'CONST'
CONST	ENDS
;	COMDAT ??_C@_0BA@MAIHAHDB@VAMP_EXP_REMAIN?$AA@
CONST	SEGMENT DWORD USE32 PUBLIC 'CONST'
CONST	ENDS
;	COMDAT ??_C@_0O@ENDFFBFD@SILVER_DAMAGE?$AA@
CONST	SEGMENT DWORD USE32 PUBLIC 'CONST'
CONST	ENDS
;	COMDAT ??_C@_0N@KMAAPCII@ATTACK_SPEED?$AA@
CONST	SEGMENT DWORD USE32 PUBLIC 'CONST'
CONST	ENDS
;	COMDAT ??_C@_09HPPNPOEE@ALIGNMENT?$AA@
CONST	SEGMENT DWORD USE32 PUBLIC 'CONST'
CONST	ENDS
;	COMDAT ??_C@_0BC@BNIPJKDA@SILVER_DURABILITY?$AA@
CONST	SEGMENT DWORD USE32 PUBLIC 'CONST'
CONST	ENDS
;	COMDAT ??_C@_0L@HJJLGOIM@REGEN_RATE?$AA@
CONST	SEGMENT DWORD USE32 PUBLIC 'CONST'
CONST	ENDS
;	COMDAT ??_C@_07ICBEDALK@GUILDID?$AA@
CONST	SEGMENT DWORD USE32 PUBLIC 'CONST'
CONST	ENDS
;	COMDAT ??_C@_04DBCPJNBF@RANK?$AA@
CONST	SEGMENT DWORD USE32 PUBLIC 'CONST'
CONST	ENDS
;	COMDAT ??_C@_0BA@DLBJHHBE@RANK_EXP_REMAIN?$AA@
CONST	SEGMENT DWORD USE32 PUBLIC 'CONST'
CONST	ENDS
;	COMDAT ??_C@_0BD@BBMKLBCL@OUSTERS_EXP_REMAIN?$AA@
CONST	SEGMENT DWORD USE32 PUBLIC 'CONST'
CONST	ENDS
;	COMDAT ??_C@_0BC@IMLFGMDG@SKILL_BONUS_POINT?$AA@
CONST	SEGMENT DWORD USE32 PUBLIC 'CONST'
CONST	ENDS
;	COMDAT ??_C@_0P@PEHNMFMM@ELEMENTAL_FIRE?$AA@
CONST	SEGMENT DWORD USE32 PUBLIC 'CONST'
CONST	ENDS
;	COMDAT ??_C@_0BA@MHDKAJKL@ELEMENTAL_WATER?$AA@
CONST	SEGMENT DWORD USE32 PUBLIC 'CONST'
CONST	ENDS
;	COMDAT ??_C@_0BA@BIGMGHL@ELEMENTAL_EARTH?$AA@
CONST	SEGMENT DWORD USE32 PUBLIC 'CONST'
CONST	ENDS
;	COMDAT ??_C@_0P@KFNKBAKL@ELEMENTAL_WIND?$AA@
CONST	SEGMENT DWORD USE32 PUBLIC 'CONST'
CONST	ENDS
;	COMDAT ??_C@_09BBOPOJIN@SKILL_EXP?$AA@
CONST	SEGMENT DWORD USE32 PUBLIC 'CONST'
CONST	ENDS
;	COMDAT ??_C@_06IEBMKFDK@PET_HP?$AA@
CONST	SEGMENT DWORD USE32 PUBLIC 'CONST'
CONST	ENDS
;	COMDAT ??_C@_0P@GOFONOAE@PET_EXP_REMAIN?$AA@
CONST	SEGMENT DWORD USE32 PUBLIC 'CONST'
CONST	ENDS
;	COMDAT ??_C@_0M@KIBGPGKM@LAST_TARGET?$AA@
CONST	SEGMENT DWORD USE32 PUBLIC 'CONST'
CONST	ENDS
;	COMDAT ??_C@_07PBEOFEGM@UNIONID?$AA@
CONST	SEGMENT DWORD USE32 PUBLIC 'CONST'
CONST	ENDS
;	COMDAT ??_C@_0L@COBGECE@UNIONGRADE?$AA@
CONST	SEGMENT DWORD USE32 PUBLIC 'CONST'
CONST	ENDS
;	COMDAT ??_C@_0BI@LHEPMHDM@ADVANCEMENT_CLASS_LEVEL?$AA@
CONST	SEGMENT DWORD USE32 PUBLIC 'CONST'
CONST	ENDS
;	COMDAT ??_C@_0BL@IKNEBHFH@ADVANCEMENT_CLASS_GOAL_EXP?$AA@
CONST	SEGMENT DWORD USE32 PUBLIC 'CONST'
CONST	ENDS
;	COMDAT ??_C@_0BJ@PIJGHHAP@ATTACK_BLOOD_BURST_POINT?$AA@
CONST	SEGMENT DWORD USE32 PUBLIC 'CONST'
CONST	ENDS
;	COMDAT ??_C@_0BK@BJJBOCNF@DEFENSE_BLOOD_BURST_POINT?$AA@
CONST	SEGMENT DWORD USE32 PUBLIC 'CONST'
CONST	ENDS
;	COMDAT ??_C@_0BI@MHOBEFBP@PARTY_BLOOD_BURST_POINT?$AA@
CONST	SEGMENT DWORD USE32 PUBLIC 'CONST'
CONST	ENDS
;	COMDAT ??_C@_0BD@BPOFFKFG@ADVANCED_SLAYERSTR?$AA@
CONST	SEGMENT DWORD USE32 PUBLIC 'CONST'
CONST	ENDS
;	COMDAT ??_C@_0BD@DFCABELN@ADVANCED_SLAYERDEX?$AA@
CONST	SEGMENT DWORD USE32 PUBLIC 'CONST'
CONST	ENDS
;	COMDAT ??_C@_0BD@GHKKGMIN@ADVANCED_SLAYERINT?$AA@
CONST	SEGMENT DWORD USE32 PUBLIC 'CONST'
CONST	ENDS
;	COMDAT ??_C@_0BB@JLMOMJOK@CONTRIBUTE_POINT?$AA@
CONST	SEGMENT DWORD USE32 PUBLIC 'CONST'
CONST	ENDS
;	COMDAT ??_C@_08IKEGEPEJ@DIANJUAN?$AA@
CONST	SEGMENT DWORD USE32 PUBLIC 'CONST'
CONST	ENDS
;	COMDAT ??_C@_03LEPPJAKI@MAX?$AA@
CONST	SEGMENT DWORD USE32 PUBLIC 'CONST'
CONST	ENDS
;	COMDAT ??_C@_0N@GOPDCEEB@basic_string?$AA@
CONST	SEGMENT DWORD USE32 PUBLIC 'CONST'
CONST	ENDS
xdata$x	SEGMENT DWORD USE32 PUBLIC 'CONST'
xdata$x	ENDS
rdata$r	SEGMENT DWORD USE32 PUBLIC 'CONST'
rdata$r	ENDS
text$yc	SEGMENT PARA USE32 PUBLIC 'CODE'
text$yc	ENDS
CRT$XCA	SEGMENT DWORD USE32 PUBLIC 'DATA'
CRT$XCA	ENDS
CRT$XCU	SEGMENT DWORD USE32 PUBLIC 'DATA'
CRT$XCU	ENDS
CRT$XCL	SEGMENT DWORD USE32 PUBLIC 'DATA'
CRT$XCL	ENDS
CRT$XCC	SEGMENT DWORD USE32 PUBLIC 'DATA'
CRT$XCC	ENDS
CRT$XCZ	SEGMENT DWORD USE32 PUBLIC 'DATA'
CRT$XCZ	ENDS
text$yd	SEGMENT PARA USE32 PUBLIC 'CODE'
text$yd	ENDS
;	COMDAT ?getHost@SocketImpl@@QBE?AV?$basic_string@DV?$char_traits@D@_STL@@V?$allocator@D@2@@_STL@@XZ
_TEXT	SEGMENT PARA USE32 PUBLIC 'CODE'
_TEXT	ENDS
;	COMDAT ?getPort@SocketImpl@@QBEIXZ
_TEXT	SEGMENT PARA USE32 PUBLIC 'CODE'
_TEXT	ENDS
;	COMDAT ?isValid@SocketImpl@@QBE_NXZ
_TEXT	SEGMENT PARA USE32 PUBLIC 'CODE'
_TEXT	ENDS
;	COMDAT ?getSOCKET@SocketImpl@@QBEIXZ
_TEXT	SEGMENT PARA USE32 PUBLIC 'CODE'
_TEXT	ENDS
;	COMDAT ?read@SocketInputStream@@QAEIAAE@Z
_TEXT	SEGMENT PARA USE32 PUBLIC 'CODE'
_TEXT	ENDS
;	COMDAT ?read@SocketInputStream@@QAEIAAG@Z
_TEXT	SEGMENT PARA USE32 PUBLIC 'CODE'
_TEXT	ENDS
;	COMDAT ?read@SocketInputStream@@QAEIAAK@Z
_TEXT	SEGMENT PARA USE32 PUBLIC 'CODE'
_TEXT	ENDS
;	COMDAT ?write@SocketOutputStream@@QAEIE@Z
_TEXT	SEGMENT PARA USE32 PUBLIC 'CODE'
_TEXT	ENDS
;	COMDAT ?write@SocketOutputStream@@QAEIG@Z
_TEXT	SEGMENT PARA USE32 PUBLIC 'CODE'
_TEXT	ENDS
;	COMDAT ?write@SocketOutputStream@@QAEII@Z
_TEXT	SEGMENT PARA USE32 PUBLIC 'CODE'
_TEXT	ENDS
;	COMDAT ?write@SocketOutputStream@@QAEIK@Z
_TEXT	SEGMENT PARA USE32 PUBLIC 'CODE'
_TEXT	ENDS
;	COMDAT ??1Packet@@UAE@XZ
_TEXT	SEGMENT PARA USE32 PUBLIC 'CODE'
_TEXT	ENDS
;	COMDAT ?read@Packet@@UAEXPAVSocket@@@Z
_TEXT	SEGMENT PARA USE32 PUBLIC 'CODE'
_TEXT	ENDS
;	COMDAT ?write@Packet@@UBEXPAVSocket@@@Z
_TEXT	SEGMENT PARA USE32 PUBLIC 'CODE'
_TEXT	ENDS
;	COMDAT ??_GPacket@@UAEPAXI@Z
_TEXT	SEGMENT PARA USE32 PUBLIC 'CODE'
_TEXT	ENDS
;	COMDAT ??0UnsupportedError@@QAE@ABV0@@Z
_TEXT	SEGMENT PARA USE32 PUBLIC 'CODE'
_TEXT	ENDS
;	COMDAT ??0Error@@QAE@ABV0@@Z
_TEXT	SEGMENT PARA USE32 PUBLIC 'CODE'
_TEXT	ENDS
;	COMDAT ??0Throwable@@QAE@ABV0@@Z
_TEXT	SEGMENT PARA USE32 PUBLIC 'CODE'
_TEXT	ENDS
;	COMDAT _$E79
text$yc	SEGMENT PARA USE32 PUBLIC 'CODE'
text$yc	ENDS
;	COMDAT _$E80
text$yd	SEGMENT PARA USE32 PUBLIC 'CODE'
text$yd	ENDS
;	COMDAT ?getPacketSize@ModifyInfo@@UBEIXZ
_TEXT	SEGMENT PARA USE32 PUBLIC 'CODE'
_TEXT	ENDS
;	COMDAT ?getPacketMaxSize@ModifyInfo@@SAIXZ
_TEXT	SEGMENT PARA USE32 PUBLIC 'CODE'
_TEXT	ENDS
;	COMDAT ??1PacketFactory@@UAE@XZ
_TEXT	SEGMENT PARA USE32 PUBLIC 'CODE'
_TEXT	ENDS
;	COMDAT ??_GPacketFactory@@UAEPAXI@Z
_TEXT	SEGMENT PARA USE32 PUBLIC 'CODE'
_TEXT	ENDS
;	COMDAT ?getPacketID@GCSkillToTileOK1@@UBEGXZ
_TEXT	SEGMENT PARA USE32 PUBLIC 'CODE'
_TEXT	ENDS
;	COMDAT ?getPacketSize@GCSkillToTileOK1@@UBEIXZ
_TEXT	SEGMENT PARA USE32 PUBLIC 'CODE'
_TEXT	ENDS
;	COMDAT ??1GCSkillToTileOK1Factory@@UAE@XZ
_TEXT	SEGMENT PARA USE32 PUBLIC 'CODE'
_TEXT	ENDS
;	COMDAT ?createPacket@GCSkillToTileOK1Factory@@UAEPAVPacket@@XZ
_TEXT	SEGMENT PARA USE32 PUBLIC 'CODE'
_TEXT	ENDS
;	COMDAT ?getPacketID@GCSkillToTileOK1Factory@@UBEGXZ
_TEXT	SEGMENT PARA USE32 PUBLIC 'CODE'
_TEXT	ENDS
;	COMDAT ?getPacketMaxSize@GCSkillToTileOK1Factory@@UBEIXZ
_TEXT	SEGMENT PARA USE32 PUBLIC 'CODE'
_TEXT	ENDS
;	COMDAT ??_GGCSkillToTileOK1Factory@@UAEPAXI@Z
_TEXT	SEGMENT PARA USE32 PUBLIC 'CODE'
_TEXT	ENDS
;	COMDAT ??0PacketFactory@@QAE@XZ
_TEXT	SEGMENT PARA USE32 PUBLIC 'CODE'
_TEXT	ENDS
;	COMDAT ??0GCSkillToTileOK1@@QAE@XZ
_TEXT	SEGMENT PARA USE32 PUBLIC 'CODE'
_TEXT	ENDS
;	COMDAT ??_GGCSkillToTileOK1@@UAEPAXI@Z
_TEXT	SEGMENT PARA USE32 PUBLIC 'CODE'
_TEXT	ENDS
;	COMDAT ??1GCSkillToTileOK1@@UAE@XZ
_TEXT	SEGMENT PARA USE32 PUBLIC 'CODE'
_TEXT	ENDS
;	COMDAT ?read@GCSkillToTileOK1@@UAEXAAVSocketInputStream@@@Z
_TEXT	SEGMENT PARA USE32 PUBLIC 'CODE'
_TEXT	ENDS
;	COMDAT ?write@GCSkillToTileOK1@@UBEXAAVSocketOutputStream@@@Z
_TEXT	SEGMENT PARA USE32 PUBLIC 'CODE'
_TEXT	ENDS
;	COMDAT ?addCListElement@GCSkillToTileOK1@@QAEXK@Z
_TEXT	SEGMENT PARA USE32 PUBLIC 'CODE'
_TEXT	ENDS
;	COMDAT ?execute@GCSkillToTileOK1@@UAEXPAVPlayer@@@Z
_TEXT	SEGMENT PARA USE32 PUBLIC 'CODE'
_TEXT	ENDS
;	COMDAT ?eq@?$__char_traits_base@DH@_STL@@SA_NABD0@Z
_TEXT	SEGMENT PARA USE32 PUBLIC 'CODE'
_TEXT	ENDS
;	COMDAT ?not_eof@?$__char_traits_base@DH@_STL@@SAHABH@Z
_TEXT	SEGMENT PARA USE32 PUBLIC 'CODE'
_TEXT	ENDS
;	COMDAT ?eq_int_type@?$__char_traits_base@DH@_STL@@SA_NABH0@Z
_TEXT	SEGMENT PARA USE32 PUBLIC 'CODE'
_TEXT	ENDS
;	COMDAT ?get_allocator@?$basic_string@DV?$char_traits@D@_STL@@V?$allocator@D@2@@_STL@@QBE?AV?$allocator@D@2@XZ
_TEXT	SEGMENT PARA USE32 PUBLIC 'CODE'
_TEXT	ENDS
;	COMDAT ?_M_terminate_string@?$basic_string@DV?$char_traits@D@_STL@@V?$allocator@D@2@@_STL@@AAEXXZ
_TEXT	SEGMENT PARA USE32 PUBLIC 'CODE'
_TEXT	ENDS
;	COMDAT ?size@?$basic_string@DV?$char_traits@D@_STL@@V?$allocator@D@2@@_STL@@QBEIXZ
_TEXT	SEGMENT PARA USE32 PUBLIC 'CODE'
_TEXT	ENDS
;	COMDAT ?c_str@?$basic_string@DV?$char_traits@D@_STL@@V?$allocator@D@2@@_STL@@QBEPBDXZ
_TEXT	SEGMENT PARA USE32 PUBLIC 'CODE'
_TEXT	ENDS
;	COMDAT ??0?$_String_base@DV?$allocator@D@_STL@@@_STL@@QAE@ABV?$allocator@D@1@@Z
_TEXT	SEGMENT PARA USE32 PUBLIC 'CODE'
_TEXT	ENDS
;	COMDAT ?allocate@?$allocator@D@_STL@@QAEPADIPBX@Z
_TEXT	SEGMENT PARA USE32 PUBLIC 'CODE'
_TEXT	ENDS
;	COMDAT ??0?$fpos@H@_STL@@QAE@J@Z
_TEXT	SEGMENT PARA USE32 PUBLIC 'CODE'
_TEXT	ENDS
;	COMDAT ??B?$fpos@H@_STL@@QBEJXZ
_TEXT	SEGMENT PARA USE32 PUBLIC 'CODE'
_TEXT	ENDS
;	COMDAT ?state@?$fpos@H@_STL@@QBEHXZ
_TEXT	SEGMENT PARA USE32 PUBLIC 'CODE'
_TEXT	ENDS
;	COMDAT ?is_open@?$basic_filebuf@DV?$char_traits@D@_STL@@@_STL@@QBE_NXZ
_TEXT	SEGMENT PARA USE32 PUBLIC 'CODE'
_TEXT	ENDS
;	COMDAT ?_M_seek_return@?$basic_filebuf@DV?$char_traits@D@_STL@@@_STL@@AAE?AV?$fpos@H@2@JH@Z
_TEXT	SEGMENT PARA USE32 PUBLIC 'CODE'
_TEXT	ENDS
;	COMDAT ??0?$list@V?$basic_string@DV?$char_traits@D@_STL@@V?$allocator@D@2@@_STL@@V?$allocator@V?$basic_string@DV?$char_traits@D@_STL@@V?$allocator@D@2@@_STL@@@2@@_STL@@QAE@ABV01@@Z
_TEXT	SEGMENT PARA USE32 PUBLIC 'CODE'
_TEXT	ENDS
;	COMDAT ??0?$_Filebuf_Tmp_Buf@D@_STL@@QAE@H@Z
_TEXT	SEGMENT PARA USE32 PUBLIC 'CODE'
_TEXT	ENDS
;	COMDAT ??1?$_Filebuf_Tmp_Buf@D@_STL@@QAE@XZ
_TEXT	SEGMENT PARA USE32 PUBLIC 'CODE'
_TEXT	ENDS
;	COMDAT ??0?$list@KV?$allocator@K@_STL@@@_STL@@QAE@ABV?$allocator@K@1@@Z
_TEXT	SEGMENT PARA USE32 PUBLIC 'CODE'
_TEXT	ENDS
;	COMDAT ?begin@?$list@KV?$allocator@K@_STL@@@_STL@@QBE?AU?$_List_iterator@KU?$_Const_traits@K@_STL@@@2@XZ
_TEXT	SEGMENT PARA USE32 PUBLIC 'CODE'
_TEXT	ENDS
;	COMDAT ?end@?$list@KV?$allocator@K@_STL@@@_STL@@QBE?AU?$_List_iterator@KU?$_Const_traits@K@_STL@@@2@XZ
_TEXT	SEGMENT PARA USE32 PUBLIC 'CODE'
_TEXT	ENDS
;	COMDAT ?front@?$list@KV?$allocator@K@_STL@@@_STL@@QAEAAKXZ
_TEXT	SEGMENT PARA USE32 PUBLIC 'CODE'
_TEXT	ENDS
;	COMDAT ?push_back@?$list@KV?$allocator@K@_STL@@@_STL@@QAEXABK@Z
_TEXT	SEGMENT PARA USE32 PUBLIC 'CODE'
_TEXT	ENDS
;	COMDAT ?pop_front@?$list@KV?$allocator@K@_STL@@@_STL@@QAEXXZ
_TEXT	SEGMENT PARA USE32 PUBLIC 'CODE'
_TEXT	ENDS
;	COMDAT ??1?$list@KV?$allocator@K@_STL@@@_STL@@QAE@XZ
_TEXT	SEGMENT PARA USE32 PUBLIC 'CODE'
_TEXT	ENDS
;	COMDAT ??0?$allocator@K@_STL@@QAE@XZ
_TEXT	SEGMENT PARA USE32 PUBLIC 'CODE'
_TEXT	ENDS
;	COMDAT ??1?$allocator@K@_STL@@QAE@XZ
_TEXT	SEGMENT PARA USE32 PUBLIC 'CODE'
_TEXT	ENDS
;	COMDAT ??D?$_List_iterator@KU?$_Const_traits@K@_STL@@@_STL@@QBEABKXZ
_TEXT	SEGMENT PARA USE32 PUBLIC 'CODE'
_TEXT	ENDS
;	COMDAT ??E?$_List_iterator@KU?$_Const_traits@K@_STL@@@_STL@@QAE?AU01@H@Z
_TEXT	SEGMENT PARA USE32 PUBLIC 'CODE'
_TEXT	ENDS
;	COMDAT ?_M_terminate_string_aux@?$basic_string@DV?$char_traits@D@_STL@@V?$allocator@D@2@@_STL@@AAEXABU__true_type@2@@Z
_TEXT	SEGMENT PARA USE32 PUBLIC 'CODE'
_TEXT	ENDS
;	COMDAT ??0?$allocator@D@_STL@@QAE@ABV01@@Z
_TEXT	SEGMENT PARA USE32 PUBLIC 'CODE'
_TEXT	ENDS
;	COMDAT ??0?$_STLP_alloc_proxy@PADDV?$allocator@D@_STL@@@_STL@@QAE@ABV?$allocator@D@1@PAD@Z
_TEXT	SEGMENT PARA USE32 PUBLIC 'CODE'
_TEXT	ENDS
;	COMDAT ?state@?$fpos@H@_STL@@QAEXH@Z
_TEXT	SEGMENT PARA USE32 PUBLIC 'CODE'
_TEXT	ENDS
;	COMDAT ?get_allocator@?$_List_base@V?$basic_string@DV?$char_traits@D@_STL@@V?$allocator@D@2@@_STL@@V?$allocator@V?$basic_string@DV?$char_traits@D@_STL@@V?$allocator@D@2@@_STL@@@2@@_STL@@QBE?AV?$allocator@V?$basic_string@DV?$char_traits@D@_STL@@V?$allocator@D@2@@_STL@@@2@XZ
_TEXT	SEGMENT PARA USE32 PUBLIC 'CODE'
_TEXT	ENDS
;	COMDAT ?begin@?$list@KV?$allocator@K@_STL@@@_STL@@QAE?AU?$_List_iterator@KU?$_Nonconst_traits@K@_STL@@@2@XZ
_TEXT	SEGMENT PARA USE32 PUBLIC 'CODE'
_TEXT	ENDS
;	COMDAT ?end@?$list@KV?$allocator@K@_STL@@@_STL@@QAE?AU?$_List_iterator@KU?$_Nonconst_traits@K@_STL@@@2@XZ
_TEXT	SEGMENT PARA USE32 PUBLIC 'CODE'
_TEXT	ENDS
;	COMDAT ?insert@?$list@KV?$allocator@K@_STL@@@_STL@@QAE?AU?$_List_iterator@KU?$_Nonconst_traits@K@_STL@@@2@U32@ABK@Z
_TEXT	SEGMENT PARA USE32 PUBLIC 'CODE'
_TEXT	ENDS
;	COMDAT ?erase@?$list@KV?$allocator@K@_STL@@@_STL@@QAE?AU?$_List_iterator@KU?$_Nonconst_traits@K@_STL@@@2@U32@@Z
_TEXT	SEGMENT PARA USE32 PUBLIC 'CODE'
_TEXT	ENDS
;	COMDAT ??0?$_List_base@KV?$allocator@K@_STL@@@_STL@@QAE@ABV?$allocator@K@1@@Z
_TEXT	SEGMENT PARA USE32 PUBLIC 'CODE'
_TEXT	ENDS
;	COMDAT ??1?$_List_base@KV?$allocator@K@_STL@@@_STL@@QAE@XZ
_TEXT	SEGMENT PARA USE32 PUBLIC 'CODE'
_TEXT	ENDS
;	COMDAT ??0?$_List_iterator@KU?$_Const_traits@K@_STL@@@_STL@@QAE@PAU?$_List_node@K@1@@Z
_TEXT	SEGMENT PARA USE32 PUBLIC 'CODE'
_TEXT	ENDS
;	COMDAT ??D?$_List_iterator@KU?$_Nonconst_traits@K@_STL@@@_STL@@QBEAAKXZ
_TEXT	SEGMENT PARA USE32 PUBLIC 'CODE'
_TEXT	ENDS
;	COMDAT ??1?$_STLP_alloc_proxy@PAU?$_List_node@K@_STL@@U12@V?$allocator@U?$_List_node@K@_STL@@@2@@_STL@@QAE@XZ
_TEXT	SEGMENT PARA USE32 PUBLIC 'CODE'
_TEXT	ENDS
;	COMDAT ?_M_create_node@?$list@KV?$allocator@K@_STL@@@_STL@@IAEPAU?$_List_node@K@2@ABK@Z
_TEXT	SEGMENT PARA USE32 PUBLIC 'CODE'
_TEXT	ENDS
;	COMDAT ??0?$_STLP_alloc_proxy@PAU?$_List_node@K@_STL@@U12@V?$allocator@U?$_List_node@K@_STL@@@2@@_STL@@QAE@ABV?$allocator@U?$_List_node@K@_STL@@@1@PAU?$_List_node@K@1@@Z
_TEXT	SEGMENT PARA USE32 PUBLIC 'CODE'
_TEXT	ENDS
;	COMDAT ??1?$allocator@U?$_List_node@K@_STL@@@_STL@@QAE@XZ
_TEXT	SEGMENT PARA USE32 PUBLIC 'CODE'
_TEXT	ENDS
;	COMDAT ?allocate@?$allocator@U?$_List_node@K@_STL@@@_STL@@QAEPAU?$_List_node@K@2@IPBX@Z
_TEXT	SEGMENT PARA USE32 PUBLIC 'CODE'
_TEXT	ENDS
;	COMDAT ?deallocate@?$allocator@U?$_List_node@K@_STL@@@_STL@@QAEXPAU?$_List_node@K@2@I@Z
_TEXT	SEGMENT PARA USE32 PUBLIC 'CODE'
_TEXT	ENDS
;	COMDAT ??0?$_List_iterator@KU?$_Nonconst_traits@K@_STL@@@_STL@@QAE@PAU?$_List_node@K@1@@Z
_TEXT	SEGMENT PARA USE32 PUBLIC 'CODE'
_TEXT	ENDS
;	COMDAT ??0?$allocator@U?$_List_node@K@_STL@@@_STL@@QAE@ABV01@@Z
_TEXT	SEGMENT PARA USE32 PUBLIC 'CODE'
_TEXT	ENDS
;	COMDAT ??$_M_range_initialize@PBD@?$basic_string@DV?$char_traits@D@_STL@@V?$allocator@D@2@@_STL@@AAEXPBD0@Z
_TEXT	SEGMENT PARA USE32 PUBLIC 'CODE'
_TEXT	ENDS
;	COMDAT ??$_M_range_initialize@PAD@?$basic_string@DV?$char_traits@D@_STL@@V?$allocator@D@2@@_STL@@AAEXPAD0@Z
_TEXT	SEGMENT PARA USE32 PUBLIC 'CODE'
_TEXT	ENDS
;	COMDAT ?close@?$basic_filebuf@DV?$char_traits@D@_STL@@@_STL@@QAEPAV12@XZ
_TEXT	SEGMENT PARA USE32 PUBLIC 'CODE'
_TEXT	ENDS
;	COMDAT ?_M_exit_input_mode@?$basic_filebuf@DV?$char_traits@D@_STL@@@_STL@@AAEXXZ
_TEXT	SEGMENT PARA USE32 PUBLIC 'CODE'
_TEXT	ENDS
;	COMDAT ?_M_switch_to_output_mode@?$basic_filebuf@DV?$char_traits@D@_STL@@@_STL@@AAE_NXZ
_TEXT	SEGMENT PARA USE32 PUBLIC 'CODE'
_TEXT	ENDS
;	COMDAT ?_M_output_error@?$basic_filebuf@DV?$char_traits@D@_STL@@@_STL@@AAEHXZ
_TEXT	SEGMENT PARA USE32 PUBLIC 'CODE'
_TEXT	ENDS
;	COMDAT ?_M_allocate_buffers@?$basic_filebuf@DV?$char_traits@D@_STL@@@_STL@@AAE_NPADH@Z
_TEXT	SEGMENT PARA USE32 PUBLIC 'CODE'
_TEXT	ENDS
;	COMDAT ?_M_deallocate_buffers@?$basic_filebuf@DV?$char_traits@D@_STL@@@_STL@@AAEXXZ
_TEXT	SEGMENT PARA USE32 PUBLIC 'CODE'
_TEXT	ENDS
;	COMDAT ?_M_seek_init@?$basic_filebuf@DV?$char_traits@D@_STL@@@_STL@@AAE_N_N@Z
_TEXT	SEGMENT PARA USE32 PUBLIC 'CODE'
_TEXT	ENDS
;	COMDAT ?_M_setup_codecvt@?$basic_filebuf@DV?$char_traits@D@_STL@@@_STL@@AAEXABVlocale@2@@Z
_TEXT	SEGMENT PARA USE32 PUBLIC 'CODE'
_TEXT	ENDS
;	COMDAT ??$equal@PADPADU?$_Eq_traits@V?$char_traits@D@_STL@@@_STL@@@_STL@@YA_NPAD00U?$_Eq_traits@V?$char_traits@D@_STL@@@0@@Z
_TEXT	SEGMENT PARA USE32 PUBLIC 'CODE'
_TEXT	ENDS
;	COMDAT ??$_Destroy@V?$basic_string@DV?$char_traits@D@_STL@@V?$allocator@D@2@@_STL@@@_STL@@YAXPAV?$basic_string@DV?$char_traits@D@_STL@@V?$allocator@D@2@@0@@Z
_TEXT	SEGMENT PARA USE32 PUBLIC 'CODE'
_TEXT	ENDS
;	COMDAT ??$_M_assign_dispatch@PAD@?$basic_string@DV?$char_traits@D@_STL@@V?$allocator@D@2@@_STL@@AAEAAV01@PAD0ABU__false_type@1@@Z
_TEXT	SEGMENT PARA USE32 PUBLIC 'CODE'
_TEXT	ENDS
;	COMDAT ?clear@?$_List_base@U_SHORTDATA@@V?$allocator@U_SHORTDATA@@@_STL@@@_STL@@QAEXXZ
_TEXT	SEGMENT PARA USE32 PUBLIC 'CODE'
_TEXT	ENDS
;	COMDAT ?clear@?$_List_base@U_LONGDATA@@V?$allocator@U_LONGDATA@@@_STL@@@_STL@@QAEXXZ
_TEXT	SEGMENT PARA USE32 PUBLIC 'CODE'
_TEXT	ENDS
;	COMDAT ?clear@?$_List_base@KV?$allocator@K@_STL@@@_STL@@QAEXXZ
_TEXT	SEGMENT PARA USE32 PUBLIC 'CODE'
_TEXT	ENDS
;	COMDAT ??$insert@U?$_List_iterator@V?$basic_string@DV?$char_traits@D@_STL@@V?$allocator@D@2@@_STL@@U?$_Const_traits@V?$basic_string@DV?$char_traits@D@_STL@@V?$allocator@D@2@@_STL@@@2@@_STL@@@?$list@V?$basic_string@DV?$char_traits@D@_STL@@V?$allocator@D@2@@_STL@@V?$allocator@V?$basic_string@DV?$char_traits@D@_STL@@V?$allocator@D@2@@_STL@@@2@@_STL@@QAEXU?$_List_iterator@V?$basic_string@DV?$char_traits@D@_STL@@V?$allocator@D@2@@_STL@@U?$_Nonconst_traits@V?$basic_string@DV?$char_traits@D@_STL@@V?$allocator@D@2@@_STL@@@2@@1@U?$_List_iterator@V?$basic_string@DV?$char_traits@D@_STL@@V?$allocator@D@2@@_STL@@U?$_Const_traits@V?$basic_string@DV?$char_traits@D@_STL@@V?$allocator@D@2@@_STL@@@2@@1@1@Z
_TEXT	SEGMENT PARA USE32 PUBLIC 'CODE'
_TEXT	ENDS
;	COMDAT ??$?0U?$_List_node@V?$basic_string@DV?$char_traits@D@_STL@@V?$allocator@D@2@@_STL@@@_STL@@@?$allocator@V?$basic_string@DV?$char_traits@D@_STL@@V?$allocator@D@2@@_STL@@@_STL@@QAE@ABV?$allocator@U?$_List_node@V?$basic_string@DV?$char_traits@D@_STL@@V?$allocator@D@2@@_STL@@@_STL@@@1@@Z
_TEXT	SEGMENT PARA USE32 PUBLIC 'CODE'
_TEXT	ENDS
;	COMDAT ??$_Destroy@K@_STL@@YAXPAK@Z
_TEXT	SEGMENT PARA USE32 PUBLIC 'CODE'
_TEXT	ENDS
;	COMDAT ??$?0K@?$allocator@U?$_List_node@K@_STL@@@_STL@@QAE@ABV?$allocator@K@1@@Z
_TEXT	SEGMENT PARA USE32 PUBLIC 'CODE'
_TEXT	ENDS
;	COMDAT ??$_Construct@KK@_STL@@YAXPAKABK@Z
_TEXT	SEGMENT PARA USE32 PUBLIC 'CODE'
_TEXT	ENDS
;	COMDAT ??_G?$basic_string@DV?$char_traits@D@_STL@@V?$allocator@D@2@@_STL@@QAEPAXI@Z
_TEXT	SEGMENT PARA USE32 PUBLIC 'CODE'
_TEXT	ENDS
;	COMDAT ?end@?$basic_string@DV?$char_traits@D@_STL@@V?$allocator@D@2@@_STL@@QAEPADXZ
_TEXT	SEGMENT PARA USE32 PUBLIC 'CODE'
_TEXT	ENDS
;	COMDAT ?erase@?$basic_string@DV?$char_traits@D@_STL@@V?$allocator@D@2@@_STL@@QAEPADPAD0@Z
_TEXT	SEGMENT PARA USE32 PUBLIC 'CODE'
_TEXT	ENDS
;	COMDAT ?_M_exit_putback_mode@?$basic_filebuf@DV?$char_traits@D@_STL@@@_STL@@AAEXXZ
_TEXT	SEGMENT PARA USE32 PUBLIC 'CODE'
_TEXT	ENDS
;	COMDAT ??0?$_List_iterator@V?$basic_string@DV?$char_traits@D@_STL@@V?$allocator@D@2@@_STL@@U?$_Nonconst_traits@V?$basic_string@DV?$char_traits@D@_STL@@V?$allocator@D@2@@_STL@@@2@@_STL@@QAE@ABU01@@Z
_TEXT	SEGMENT PARA USE32 PUBLIC 'CODE'
_TEXT	ENDS
;	COMDAT ??R?$_Eq_traits@V?$char_traits@D@_STL@@@_STL@@QBE_NABD0@Z
_TEXT	SEGMENT PARA USE32 PUBLIC 'CODE'
_TEXT	ENDS
;	COMDAT ?deallocate@?$allocator@U?$_List_node@U_SHORTDATA@@@_STL@@@_STL@@QAEXPAU?$_List_node@U_SHORTDATA@@@2@I@Z
_TEXT	SEGMENT PARA USE32 PUBLIC 'CODE'
_TEXT	ENDS
;	COMDAT ?deallocate@?$allocator@U?$_List_node@U_LONGDATA@@@_STL@@@_STL@@QAEXPAU?$_List_node@U_LONGDATA@@@2@I@Z
_TEXT	SEGMENT PARA USE32 PUBLIC 'CODE'
_TEXT	ENDS
;	COMDAT ?move@?$__char_traits_base@DH@_STL@@SAPADPADPBDI@Z
_TEXT	SEGMENT PARA USE32 PUBLIC 'CODE'
_TEXT	ENDS
;	COMDAT ??$_M_range_initialize@PBD@?$basic_string@DV?$char_traits@D@_STL@@V?$allocator@D@2@@_STL@@AAEXPBD0ABUforward_iterator_tag@1@@Z
_TEXT	SEGMENT PARA USE32 PUBLIC 'CODE'
_TEXT	ENDS
;	COMDAT ??$_M_range_initialize@PAD@?$basic_string@DV?$char_traits@D@_STL@@V?$allocator@D@2@@_STL@@AAEXPAD0ABUforward_iterator_tag@1@@Z
_TEXT	SEGMENT PARA USE32 PUBLIC 'CODE'
_TEXT	ENDS
;	COMDAT ?_M_unshift@?$basic_filebuf@DV?$char_traits@D@_STL@@@_STL@@AAE_NXZ
_TEXT	SEGMENT PARA USE32 PUBLIC 'CODE'
_TEXT	ENDS
;	COMDAT ?_M_allocate_buffers@?$basic_filebuf@DV?$char_traits@D@_STL@@@_STL@@AAE_NXZ
_TEXT	SEGMENT PARA USE32 PUBLIC 'CODE'
_TEXT	ENDS
;	COMDAT ??$max@H@_STL@@YAABHABH0@Z
_TEXT	SEGMENT PARA USE32 PUBLIC 'CODE'
_TEXT	ENDS
;	COMDAT ??$use_facet@V?$codecvt@DDH@_STL@@@_STL@@YAABV?$codecvt@DDH@0@ABVlocale@0@@Z
_TEXT	SEGMENT PARA USE32 PUBLIC 'CODE'
_TEXT	ENDS
;	COMDAT ??$append@PAD@?$basic_string@DV?$char_traits@D@_STL@@V?$allocator@D@2@@_STL@@QAEAAV01@PAD0@Z
_TEXT	SEGMENT PARA USE32 PUBLIC 'CODE'
_TEXT	ENDS
;	COMDAT ??$_Destroy@U_SHORTDATA@@@_STL@@YAXPAU_SHORTDATA@@@Z
_TEXT	SEGMENT PARA USE32 PUBLIC 'CODE'
_TEXT	ENDS
;	COMDAT ??$_Destroy@U_LONGDATA@@@_STL@@YAXPAU_LONGDATA@@@Z
_TEXT	SEGMENT PARA USE32 PUBLIC 'CODE'
_TEXT	ENDS
;	COMDAT ??$_M_insert_dispatch@U?$_List_iterator@V?$basic_string@DV?$char_traits@D@_STL@@V?$allocator@D@2@@_STL@@U?$_Const_traits@V?$basic_string@DV?$char_traits@D@_STL@@V?$allocator@D@2@@_STL@@@2@@_STL@@@?$list@V?$basic_string@DV?$char_traits@D@_STL@@V?$allocator@D@2@@_STL@@V?$allocator@V?$basic_string@DV?$char_traits@D@_STL@@V?$allocator@D@2@@_STL@@@2@@_STL@@QAEXU?$_List_iterator@V?$basic_string@DV?$char_traits@D@_STL@@V?$allocator@D@2@@_STL@@U?$_Nonconst_traits@V?$basic_string@DV?$char_traits@D@_STL@@V?$allocator@D@2@@_STL@@@2@@1@U?$_List_iterator@V?$basic_string@DV?$char_traits@D@_STL@@V?$allocator@D@2@@_STL@@U?$_Const_traits@V?$basic_string@DV?$char_traits@D@_STL@@V?$allocator@D@2@@_STL@@@2@@1@1ABU__false_type@1@@Z
_TEXT	SEGMENT PARA USE32 PUBLIC 'CODE'
_TEXT	ENDS
;	COMDAT ??E?$_List_iterator@V?$basic_string@DV?$char_traits@D@_STL@@V?$allocator@D@2@@_STL@@U?$_Const_traits@V?$basic_string@DV?$char_traits@D@_STL@@V?$allocator@D@2@@_STL@@@2@@_STL@@QAEAAU01@XZ
_TEXT	SEGMENT PARA USE32 PUBLIC 'CODE'
_TEXT	ENDS
;	COMDAT ??$distance@PBD@_STL@@YAHABQBD0@Z
_TEXT	SEGMENT PARA USE32 PUBLIC 'CODE'
_TEXT	ENDS
;	COMDAT ?_M_allocate_block@?$_String_base@DV?$allocator@D@_STL@@@_STL@@QAEXI@Z
_TEXT	SEGMENT PARA USE32 PUBLIC 'CODE'
_TEXT	ENDS
;	COMDAT ??$distance@PAD@_STL@@YAHABQAD0@Z
_TEXT	SEGMENT PARA USE32 PUBLIC 'CODE'
_TEXT	ENDS
;	COMDAT ??$uninitialized_copy@PADPAD@_STL@@YAPADPAD00@Z
_TEXT	SEGMENT PARA USE32 PUBLIC 'CODE'
_TEXT	ENDS
;	COMDAT ??$_M_append_dispatch@PAD@?$basic_string@DV?$char_traits@D@_STL@@V?$allocator@D@2@@_STL@@AAEAAV01@PAD0ABU__false_type@1@@Z
_TEXT	SEGMENT PARA USE32 PUBLIC 'CODE'
_TEXT	ENDS
;	COMDAT ?max_size@?$_String_base@DV?$allocator@D@_STL@@@_STL@@QBEIXZ
_TEXT	SEGMENT PARA USE32 PUBLIC 'CODE'
_TEXT	ENDS
;	COMDAT ??$__distance@PBD@_STL@@YAHABQBD0ABUrandom_access_iterator_tag@0@@Z
_TEXT	SEGMENT PARA USE32 PUBLIC 'CODE'
_TEXT	ENDS
;	COMDAT ?_M_throw_length_error@?$_String_base@DV?$allocator@D@_STL@@@_STL@@QBEXXZ
_TEXT	SEGMENT PARA USE32 PUBLIC 'CODE'
_TEXT	ENDS
;	COMDAT ??$__distance@PAD@_STL@@YAHABQAD0ABUrandom_access_iterator_tag@0@@Z
_TEXT	SEGMENT PARA USE32 PUBLIC 'CODE'
_TEXT	ENDS
;	COMDAT ??$__uninitialized_copy@PADPAD@_STL@@YAPADPAD00ABU__true_type@0@@Z
_TEXT	SEGMENT PARA USE32 PUBLIC 'CODE'
_TEXT	ENDS
;	COMDAT ??$append@PAD@?$basic_string@DV?$char_traits@D@_STL@@V?$allocator@D@2@@_STL@@AAEAAV01@PAD0ABUforward_iterator_tag@1@@Z
_TEXT	SEGMENT PARA USE32 PUBLIC 'CODE'
_TEXT	ENDS
;	COMDAT ?_M_construct_null@?$basic_string@DV?$char_traits@D@_STL@@V?$allocator@D@2@@_STL@@AAEXPAD@Z
_TEXT	SEGMENT PARA USE32 PUBLIC 'CODE'
_TEXT	ENDS
;	COMDAT ?max_size@?$basic_string@DV?$char_traits@D@_STL@@V?$allocator@D@2@@_STL@@QBEIXZ
_TEXT	SEGMENT PARA USE32 PUBLIC 'CODE'
_TEXT	ENDS
;	COMDAT ?capacity@?$basic_string@DV?$char_traits@D@_STL@@V?$allocator@D@2@@_STL@@QBEIXZ
_TEXT	SEGMENT PARA USE32 PUBLIC 'CODE'
_TEXT	ENDS
;	COMDAT ?_Ret@?$_BothPtrType@PADPAD@_STL@@SA?AU__true_type@2@XZ
_TEXT	SEGMENT PARA USE32 PUBLIC 'CODE'
_TEXT	ENDS
;	COMDAT ?_M_construct_null_aux@?$basic_string@DV?$char_traits@D@_STL@@V?$allocator@D@2@@_STL@@AAEXPADABU__true_type@2@@Z
_TEXT	SEGMENT PARA USE32 PUBLIC 'CODE'
_TEXT	ENDS
;	COMDAT ??$__copy_aux@PADPAD@_STL@@YAPADPAD00ABU__true_type@0@@Z
_TEXT	SEGMENT PARA USE32 PUBLIC 'CODE'
_TEXT	ENDS
;	COMDAT ??$max@I@_STL@@YAABIABI0@Z
_TEXT	SEGMENT PARA USE32 PUBLIC 'CODE'
_TEXT	ENDS
;	COMDAT ?_Ret@?$_OKToMemCpy@DD@_STL@@SA?AU__true_type@2@XZ
_TEXT	SEGMENT PARA USE32 PUBLIC 'CODE'
_TEXT	ENDS
;	COMDAT ??$_IsOKToMemCpy@DD@_STL@@YA?AU?$_OKToMemCpy@DD@0@PAD0@Z
_TEXT	SEGMENT PARA USE32 PUBLIC 'CODE'
_TEXT	ENDS
;	COMDAT ??$__copy_ptrs@PADPAD@_STL@@YAPADPAD00ABU__true_type@0@@Z
_TEXT	SEGMENT PARA USE32 PUBLIC 'CODE'
_TEXT	ENDS
;	COMDAT ??_R3GCSkillToTileOK1Factory@@8
rdata$r	SEGMENT DWORD USE32 PUBLIC 'CONST'
rdata$r	ENDS
;	COMDAT ??_R3Packet@@8
rdata$r	SEGMENT DWORD USE32 PUBLIC 'CONST'
rdata$r	ENDS
;	COMDAT ??_R3GCSkillToTileOK1@@8
rdata$r	SEGMENT DWORD USE32 PUBLIC 'CONST'
rdata$r	ENDS
;	COMDAT ??_R3PacketFactory@@8
rdata$r	SEGMENT DWORD USE32 PUBLIC 'CONST'
rdata$r	ENDS
;	COMDAT ??_R2GCSkillToTileOK1Factory@@8
rdata$r	SEGMENT DWORD USE32 PUBLIC 'CONST'
rdata$r	ENDS
;	COMDAT ??_R2Packet@@8
rdata$r	SEGMENT DWORD USE32 PUBLIC 'CONST'
rdata$r	ENDS
;	COMDAT ??_R2GCSkillToTileOK1@@8
rdata$r	SEGMENT DWORD USE32 PUBLIC 'CONST'
rdata$r	ENDS
;	COMDAT ??_R2PacketFactory@@8
rdata$r	SEGMENT DWORD USE32 PUBLIC 'CONST'
rdata$r	ENDS
;	COMDAT ??_R1A@?0A@A@GCSkillToTileOK1Factory@@8
rdata$r	SEGMENT DWORD USE32 PUBLIC 'CONST'
rdata$r	ENDS
;	COMDAT ??_R1A@?0A@A@Packet@@8
rdata$r	SEGMENT DWORD USE32 PUBLIC 'CONST'
rdata$r	ENDS
;	COMDAT ??_R1A@?0A@A@ModifyInfo@@8
rdata$r	SEGMENT DWORD USE32 PUBLIC 'CONST'
rdata$r	ENDS
;	COMDAT ??_R1A@?0A@A@GCSkillToTileOK1@@8
rdata$r	SEGMENT DWORD USE32 PUBLIC 'CONST'
rdata$r	ENDS
;	COMDAT ??_R1A@?0A@A@PacketFactory@@8
rdata$r	SEGMENT DWORD USE32 PUBLIC 'CONST'
rdata$r	ENDS
;	COMDAT ??_R0?AVGCSkillToTileOK1Factory@@@8
_DATA	SEGMENT DWORD USE32 PUBLIC 'DATA'
_DATA	ENDS
;	COMDAT ??_R0?AVPacket@@@8
_DATA	SEGMENT DWORD USE32 PUBLIC 'DATA'
_DATA	ENDS
;	COMDAT ??_R0?AVModifyInfo@@@8
_DATA	SEGMENT DWORD USE32 PUBLIC 'DATA'
_DATA	ENDS
;	COMDAT ??_R0?AVGCSkillToTileOK1@@@8
_DATA	SEGMENT DWORD USE32 PUBLIC 'DATA'
_DATA	ENDS
;	COMDAT ??_R0?AVPacketFactory@@@8
_DATA	SEGMENT DWORD USE32 PUBLIC 'DATA'
_DATA	ENDS
;	COMDAT ??_R4GCSkillToTileOK1Factory@@6B@
rdata$r	SEGMENT DWORD USE32 PUBLIC 'CONST'
rdata$r	ENDS
;	COMDAT ??_R4Packet@@6B@
rdata$r	SEGMENT DWORD USE32 PUBLIC 'CONST'
rdata$r	ENDS
;	COMDAT ??_R4GCSkillToTileOK1@@6B@
rdata$r	SEGMENT DWORD USE32 PUBLIC 'CONST'
rdata$r	ENDS
;	COMDAT ??_R4PacketFactory@@6B@
rdata$r	SEGMENT DWORD USE32 PUBLIC 'CONST'
rdata$r	ENDS
;	COMDAT ?__copy_trivial@_STL@@YAPAXPBX0PAX@Z
_TEXT	SEGMENT PARA USE32 PUBLIC 'CODE'
_TEXT	ENDS
;	COMDAT ?_M_deallocate_block@?$_String_base@DV?$allocator@D@_STL@@@_STL@@QAEXXZ
_TEXT	SEGMENT PARA USE32 PUBLIC 'CODE'
_TEXT	ENDS
;	COMDAT ?deallocate@?$allocator@D@_STL@@QAEXPADI@Z
_TEXT	SEGMENT PARA USE32 PUBLIC 'CODE'
_TEXT	ENDS
;	COMDAT ??D?$_List_iterator@V?$basic_string@DV?$char_traits@D@_STL@@V?$allocator@D@2@@_STL@@U?$_Const_traits@V?$basic_string@DV?$char_traits@D@_STL@@V?$allocator@D@2@@_STL@@@2@@_STL@@QBEABV?$basic_string@DV?$char_traits@D@_STL@@V?$allocator@D@2@@1@XZ
_TEXT	SEGMENT PARA USE32 PUBLIC 'CODE'
_TEXT	ENDS
;	COMDAT ?insert@?$list@V?$basic_string@DV?$char_traits@D@_STL@@V?$allocator@D@2@@_STL@@V?$allocator@V?$basic_string@DV?$char_traits@D@_STL@@V?$allocator@D@2@@_STL@@@2@@_STL@@QAE?AU?$_List_iterator@V?$basic_string@DV?$char_traits@D@_STL@@V?$allocator@D@2@@_STL@@U?$_Nonconst_traits@V?$basic_string@DV?$char_traits@D@_STL@@V?$allocator@D@2@@_STL@@@2@@2@U32@ABV?$basic_string@DV?$char_traits@D@_STL@@V?$allocator@D@2@@2@@Z
_TEXT	SEGMENT PARA USE32 PUBLIC 'CODE'
_TEXT	ENDS
;	COMDAT ?_M_create_node@?$list@V?$basic_string@DV?$char_traits@D@_STL@@V?$allocator@D@2@@_STL@@V?$allocator@V?$basic_string@DV?$char_traits@D@_STL@@V?$allocator@D@2@@_STL@@@2@@_STL@@IAEPAU?$_List_node@V?$basic_string@DV?$char_traits@D@_STL@@V?$allocator@D@2@@_STL@@@2@ABV?$basic_string@DV?$char_traits@D@_STL@@V?$allocator@D@2@@2@@Z
_TEXT	SEGMENT PARA USE32 PUBLIC 'CODE'
_TEXT	ENDS
;	COMDAT ?allocate@?$allocator@U?$_List_node@V?$basic_string@DV?$char_traits@D@_STL@@V?$allocator@D@2@@_STL@@@_STL@@@_STL@@QAEPAU?$_List_node@V?$basic_string@DV?$char_traits@D@_STL@@V?$allocator@D@2@@_STL@@@2@IPBX@Z
_TEXT	SEGMENT PARA USE32 PUBLIC 'CODE'
_TEXT	ENDS
;	COMDAT ??$_Construct@V?$basic_string@DV?$char_traits@D@_STL@@V?$allocator@D@2@@_STL@@V12@@_STL@@YAXPAV?$basic_string@DV?$char_traits@D@_STL@@V?$allocator@D@2@@0@ABV10@@Z
_TEXT	SEGMENT PARA USE32 PUBLIC 'CODE'
_TEXT	ENDS
;	COMDAT ??3@YAXPAX0@Z
_TEXT	SEGMENT PARA USE32 PUBLIC 'CODE'
_TEXT	ENDS
;	COMDAT ?deallocate@?$allocator@U?$_List_node@V?$basic_string@DV?$char_traits@D@_STL@@V?$allocator@D@2@@_STL@@@_STL@@@_STL@@QAEXPAU?$_List_node@V?$basic_string@DV?$char_traits@D@_STL@@V?$allocator@D@2@@_STL@@@2@I@Z
_TEXT	SEGMENT PARA USE32 PUBLIC 'CODE'
_TEXT	ENDS
;	COMDAT ??0?$_List_iterator@V?$basic_string@DV?$char_traits@D@_STL@@V?$allocator@D@2@@_STL@@U?$_Nonconst_traits@V?$basic_string@DV?$char_traits@D@_STL@@V?$allocator@D@2@@_STL@@@2@@_STL@@QAE@PAU?$_List_node@V?$basic_string@DV?$char_traits@D@_STL@@V?$allocator@D@2@@_STL@@@1@@Z
_TEXT	SEGMENT PARA USE32 PUBLIC 'CODE'
_TEXT	ENDS
;	COMDAT ?__page_size@_Filebuf_base@_STL@@SAIXZ
_TEXT	SEGMENT PARA USE32 PUBLIC 'CODE'
_TEXT	ENDS
;	COMDAT ?_M_write@?$basic_filebuf@DV?$char_traits@D@_STL@@@_STL@@QAE_NPADH@Z
_TEXT	SEGMENT PARA USE32 PUBLIC 'CODE'
_TEXT	ENDS
;	COMDAT ?unshift@?$codecvt@DDH@_STL@@QBE?AW4result@codecvt_base@2@AAHPAD1AAPAD@Z
_TEXT	SEGMENT PARA USE32 PUBLIC 'CODE'
_TEXT	ENDS
;	COMDAT ?uninitialized_copy@_STL@@YAPADPBD0PAD@Z
_TEXT	SEGMENT PARA USE32 PUBLIC 'CODE'
_TEXT	ENDS
;	COMDAT ?_Destroy@_STL@@YAXPAD0@Z
_TEXT	SEGMENT PARA USE32 PUBLIC 'CODE'
_TEXT	ENDS
;	COMDAT ??2@YAPAXIPAX@Z
_TEXT	SEGMENT PARA USE32 PUBLIC 'CODE'
_TEXT	ENDS
;	COMDAT ?assign@?$char_traits@D@_STL@@SAXAADABD@Z
_TEXT	SEGMENT PARA USE32 PUBLIC 'CODE'
_TEXT	ENDS
;	COMDAT ?always_noconv@?$codecvt@DDH@_STL@@QBE_NXZ
_TEXT	SEGMENT PARA USE32 PUBLIC 'CODE'
_TEXT	ENDS
;	COMDAT ?encoding@?$codecvt@DDH@_STL@@QBEHXZ
_TEXT	SEGMENT PARA USE32 PUBLIC 'CODE'
_TEXT	ENDS
;	COMDAT ?max_length@?$codecvt@DDH@_STL@@QBEHXZ
_TEXT	SEGMENT PARA USE32 PUBLIC 'CODE'
_TEXT	ENDS
;	COMDAT ?__o_mode@_Filebuf_base@_STL@@QBEHXZ
_TEXT	SEGMENT PARA USE32 PUBLIC 'CODE'
_TEXT	ENDS
;	COMDAT ?deallocate@?$__node_alloc@$00$0A@@_STL@@SAXPAXI@Z
_TEXT	SEGMENT PARA USE32 PUBLIC 'CODE'
_TEXT	ENDS
;	COMDAT ?__stl_delete@_STL@@YAXPAX@Z
_TEXT	SEGMENT PARA USE32 PUBLIC 'CODE'
_TEXT	ENDS
;	COMDAT ??0_List_iterator_base@_STL@@QAE@PAU_List_node_base@1@@Z
_TEXT	SEGMENT PARA USE32 PUBLIC 'CODE'
_TEXT	ENDS
;	COMDAT ?_M_incr@_List_iterator_base@_STL@@QAEXXZ
_TEXT	SEGMENT PARA USE32 PUBLIC 'CODE'
_TEXT	ENDS
;	COMDAT ?begin@?$list@V?$basic_string@DV?$char_traits@D@_STL@@V?$allocator@D@2@@_STL@@V?$allocator@V?$basic_string@DV?$char_traits@D@_STL@@V?$allocator@D@2@@_STL@@@2@@_STL@@QAE?AU?$_List_iterator@V?$basic_string@DV?$char_traits@D@_STL@@V?$allocator@D@2@@_STL@@U?$_Nonconst_traits@V?$basic_string@DV?$char_traits@D@_STL@@V?$allocator@D@2@@_STL@@@2@@2@XZ
_TEXT	SEGMENT PARA USE32 PUBLIC 'CODE'
_TEXT	ENDS
;	COMDAT ?begin@?$list@V?$basic_string@DV?$char_traits@D@_STL@@V?$allocator@D@2@@_STL@@V?$allocator@V?$basic_string@DV?$char_traits@D@_STL@@V?$allocator@D@2@@_STL@@@2@@_STL@@QBE?AU?$_List_iterator@V?$basic_string@DV?$char_traits@D@_STL@@V?$allocator@D@2@@_STL@@U?$_Const_traits@V?$basic_string@DV?$char_traits@D@_STL@@V?$allocator@D@2@@_STL@@@2@@2@XZ
_TEXT	SEGMENT PARA USE32 PUBLIC 'CODE'
_TEXT	ENDS
;	COMDAT ??0?$_List_iterator@V?$basic_string@DV?$char_traits@D@_STL@@V?$allocator@D@2@@_STL@@U?$_Const_traits@V?$basic_string@DV?$char_traits@D@_STL@@V?$allocator@D@2@@_STL@@@2@@_STL@@QAE@PAU?$_List_node@V?$basic_string@DV?$char_traits@D@_STL@@V?$allocator@D@2@@_STL@@@1@@Z
_TEXT	SEGMENT PARA USE32 PUBLIC 'CODE'
_TEXT	ENDS
;	COMDAT ?end@?$list@V?$basic_string@DV?$char_traits@D@_STL@@V?$allocator@D@2@@_STL@@V?$allocator@V?$basic_string@DV?$char_traits@D@_STL@@V?$allocator@D@2@@_STL@@@2@@_STL@@QBE?AU?$_List_iterator@V?$basic_string@DV?$char_traits@D@_STL@@V?$allocator@D@2@@_STL@@U?$_Const_traits@V?$basic_string@DV?$char_traits@D@_STL@@V?$allocator@D@2@@_STL@@@2@@2@XZ
_TEXT	SEGMENT PARA USE32 PUBLIC 'CODE'
_TEXT	ENDS
;	COMDAT ??1?$_List_base@V?$basic_string@DV?$char_traits@D@_STL@@V?$allocator@D@2@@_STL@@V?$allocator@V?$basic_string@DV?$char_traits@D@_STL@@V?$allocator@D@2@@_STL@@@2@@_STL@@QAE@XZ
_TEXT	SEGMENT PARA USE32 PUBLIC 'CODE'
_TEXT	ENDS
;	COMDAT ??1?$_STLP_alloc_proxy@PAU?$_List_node@V?$basic_string@DV?$char_traits@D@_STL@@V?$allocator@D@2@@_STL@@@_STL@@U12@V?$allocator@U?$_List_node@V?$basic_string@DV?$char_traits@D@_STL@@V?$allocator@D@2@@_STL@@@_STL@@@2@@_STL@@QAE@XZ
_TEXT	SEGMENT PARA USE32 PUBLIC 'CODE'
_TEXT	ENDS
;	COMDAT ??1?$allocator@U?$_List_node@V?$basic_string@DV?$char_traits@D@_STL@@V?$allocator@D@2@@_STL@@@_STL@@@_STL@@QAE@XZ
_TEXT	SEGMENT PARA USE32 PUBLIC 'CODE'
_TEXT	ENDS
;	COMDAT ?clear@?$_List_base@V?$basic_string@DV?$char_traits@D@_STL@@V?$allocator@D@2@@_STL@@V?$allocator@V?$basic_string@DV?$char_traits@D@_STL@@V?$allocator@D@2@@_STL@@@2@@_STL@@QAEXXZ
_TEXT	SEGMENT PARA USE32 PUBLIC 'CODE'
_TEXT	ENDS
;	COMDAT ??1?$allocator@V?$basic_string@DV?$char_traits@D@_STL@@V?$allocator@D@2@@_STL@@@_STL@@QAE@XZ
_TEXT	SEGMENT PARA USE32 PUBLIC 'CODE'
_TEXT	ENDS
;	COMDAT ??0?$_List_base@V?$basic_string@DV?$char_traits@D@_STL@@V?$allocator@D@2@@_STL@@V?$allocator@V?$basic_string@DV?$char_traits@D@_STL@@V?$allocator@D@2@@_STL@@@2@@_STL@@QAE@ABV?$allocator@V?$basic_string@DV?$char_traits@D@_STL@@V?$allocator@D@2@@_STL@@@1@@Z
_TEXT	SEGMENT PARA USE32 PUBLIC 'CODE'
_TEXT	ENDS
;	COMDAT ??0?$_STLP_alloc_proxy@PAU?$_List_node@V?$basic_string@DV?$char_traits@D@_STL@@V?$allocator@D@2@@_STL@@@_STL@@U12@V?$allocator@U?$_List_node@V?$basic_string@DV?$char_traits@D@_STL@@V?$allocator@D@2@@_STL@@@_STL@@@2@@_STL@@QAE@ABV?$allocator@U?$_List_node@V?$basic_string@DV?$char_traits@D@_STL@@V?$allocator@D@2@@_STL@@@_STL@@@1@PAU?$_List_node@V?$basic_string@DV?$char_traits@D@_STL@@V?$allocator@D@2@@_STL@@@1@@Z
_TEXT	SEGMENT PARA USE32 PUBLIC 'CODE'
_TEXT	ENDS
;	COMDAT ??0?$allocator@U?$_List_node@V?$basic_string@DV?$char_traits@D@_STL@@V?$allocator@D@2@@_STL@@@_STL@@@_STL@@QAE@ABV01@@Z
_TEXT	SEGMENT PARA USE32 PUBLIC 'CODE'
_TEXT	ENDS
;	COMDAT ??$?0V?$basic_string@DV?$char_traits@D@_STL@@V?$allocator@D@2@@_STL@@@?$allocator@U?$_List_node@V?$basic_string@DV?$char_traits@D@_STL@@V?$allocator@D@2@@_STL@@@_STL@@@_STL@@QAE@ABV?$allocator@V?$basic_string@DV?$char_traits@D@_STL@@V?$allocator@D@2@@_STL@@@1@@Z
_TEXT	SEGMENT PARA USE32 PUBLIC 'CODE'
_TEXT	ENDS
;	COMDAT ?setp@?$basic_streambuf@DV?$char_traits@D@_STL@@@_STL@@IAEXPAD0@Z
_TEXT	SEGMENT PARA USE32 PUBLIC 'CODE'
_TEXT	ENDS
;	COMDAT ?_FILE_O_set@_STL@@YAXPAU_iobuf@@PAD11@Z
_TEXT	SEGMENT PARA USE32 PUBLIC 'CODE'
_TEXT	ENDS
;	COMDAT ?_FILE_I_set@_STL@@YAXPAU_iobuf@@PAD11@Z
_TEXT	SEGMENT PARA USE32 PUBLIC 'CODE'
_TEXT	ENDS
;	COMDAT ?setg@?$basic_streambuf@DV?$char_traits@D@_STL@@@_STL@@IAEXPAD00@Z
_TEXT	SEGMENT PARA USE32 PUBLIC 'CODE'
_TEXT	ENDS
;	COMDAT ?__is_open@_Filebuf_base@_STL@@QBE_NXZ
_TEXT	SEGMENT PARA USE32 PUBLIC 'CODE'
_TEXT	ENDS
;	COMDAT ?allocate@?$__node_alloc@$00$0A@@_STL@@SAPAXI@Z
_TEXT	SEGMENT PARA USE32 PUBLIC 'CODE'
_TEXT	ENDS
;	COMDAT ?__stl_new@_STL@@YAPAXI@Z
_TEXT	SEGMENT PARA USE32 PUBLIC 'CODE'
_TEXT	ENDS
;	COMDAT ??1?$_STLP_alloc_proxy@PADDV?$allocator@D@_STL@@@_STL@@QAE@XZ
_TEXT	SEGMENT PARA USE32 PUBLIC 'CODE'
_TEXT	ENDS
;	COMDAT ?eof@?$__char_traits_base@DH@_STL@@SAHXZ
_TEXT	SEGMENT PARA USE32 PUBLIC 'CODE'
_TEXT	ENDS
;	COMDAT ??9_List_iterator_base@_STL@@QBE_NABU01@@Z
_TEXT	SEGMENT PARA USE32 PUBLIC 'CODE'
_TEXT	ENDS
;	COMDAT ??_7GCSkillToTileOK1@@6B@
CONST	SEGMENT DWORD USE32 PUBLIC 'CONST'
CONST	ENDS
;	COMDAT ??_7GCSkillToTileOK1Factory@@6B@
CONST	SEGMENT DWORD USE32 PUBLIC 'CONST'
CONST	ENDS
;	COMDAT ??_7PacketFactory@@6B@
CONST	SEGMENT DWORD USE32 PUBLIC 'CONST'
CONST	ENDS
;	COMDAT ??1?$allocator@D@_STL@@QAE@XZ
_TEXT	SEGMENT PARA USE32 PUBLIC 'CODE'
_TEXT	ENDS
;	COMDAT ??0?$allocator@D@_STL@@QAE@XZ
_TEXT	SEGMENT PARA USE32 PUBLIC 'CODE'
_TEXT	ENDS
;	COMDAT ??0?$basic_string@DV?$char_traits@D@_STL@@V?$allocator@D@2@@_STL@@QAE@PBDABV?$allocator@D@1@@Z
_TEXT	SEGMENT PARA USE32 PUBLIC 'CODE'
_TEXT	ENDS
;	COMDAT ??1?$_String_base@DV?$allocator@D@_STL@@@_STL@@QAE@XZ
_TEXT	SEGMENT PARA USE32 PUBLIC 'CODE'
_TEXT	ENDS
;	COMDAT ?length@?$char_traits@D@_STL@@SAIPBD@Z
_TEXT	SEGMENT PARA USE32 PUBLIC 'CODE'
_TEXT	ENDS
;	COMDAT ??1?$list@V?$basic_string@DV?$char_traits@D@_STL@@V?$allocator@D@2@@_STL@@V?$allocator@V?$basic_string@DV?$char_traits@D@_STL@@V?$allocator@D@2@@_STL@@@2@@_STL@@QAE@XZ
_TEXT	SEGMENT PARA USE32 PUBLIC 'CODE'
_TEXT	ENDS
;	COMDAT ??_7Throwable@@6B@
CONST	SEGMENT DWORD USE32 PUBLIC 'CONST'
CONST	ENDS
;	COMDAT ??_R4Throwable@@6B@
rdata$r	SEGMENT DWORD USE32 PUBLIC 'CONST'
rdata$r	ENDS
;	COMDAT ??_R3Throwable@@8
rdata$r	SEGMENT DWORD USE32 PUBLIC 'CONST'
rdata$r	ENDS
;	COMDAT ??_R2Throwable@@8
rdata$r	SEGMENT DWORD USE32 PUBLIC 'CONST'
rdata$r	ENDS
;	COMDAT ??_R1A@?0A@A@Throwable@@8
rdata$r	SEGMENT DWORD USE32 PUBLIC 'CONST'
rdata$r	ENDS
;	COMDAT ??_GThrowable@@UAEPAXI@Z
_TEXT	SEGMENT PARA USE32 PUBLIC 'CODE'
_TEXT	ENDS
;	COMDAT ?getName@Throwable@@UBE?AV?$basic_string@DV?$char_traits@D@_STL@@V?$allocator@D@2@@_STL@@XZ
_TEXT	SEGMENT PARA USE32 PUBLIC 'CODE'
_TEXT	ENDS
;	COMDAT ??_C@_09KCKHMJEM@Throwable?$AA@
CONST	SEGMENT DWORD USE32 PUBLIC 'CONST'
CONST	ENDS
;	COMDAT ?toString@Throwable@@UBE?AV?$basic_string@DV?$char_traits@D@_STL@@V?$allocator@D@2@@_STL@@XZ
_TEXT	SEGMENT PARA USE32 PUBLIC 'CODE'
_TEXT	ENDS
;	COMDAT ??_C@_03MCPBMLDJ@?5?3?5?$AA@
CONST	SEGMENT DWORD USE32 PUBLIC 'CONST'
CONST	ENDS
;	COMDAT ?getStackTrace@Throwable@@QBE?AV?$basic_string@DV?$char_traits@D@_STL@@V?$allocator@D@2@@_STL@@XZ
_TEXT	SEGMENT PARA USE32 PUBLIC 'CODE'
_TEXT	ENDS
;	COMDAT ??E?$_List_iterator@V?$basic_string@DV?$char_traits@D@_STL@@V?$allocator@D@2@@_STL@@U?$_Const_traits@V?$basic_string@DV?$char_traits@D@_STL@@V?$allocator@D@2@@_STL@@@2@@_STL@@QAE?AU01@H@Z
_TEXT	SEGMENT PARA USE32 PUBLIC 'CODE'
_TEXT	ENDS
;	COMDAT ??_C@_01CLKCMJKC@?5?$AA@
CONST	SEGMENT DWORD USE32 PUBLIC 'CONST'
CONST	ENDS
;	COMDAT ??_7Error@@6B@
CONST	SEGMENT DWORD USE32 PUBLIC 'CONST'
CONST	ENDS
;	COMDAT ??_R4Error@@6B@
rdata$r	SEGMENT DWORD USE32 PUBLIC 'CONST'
rdata$r	ENDS
;	COMDAT ??_R3Error@@8
rdata$r	SEGMENT DWORD USE32 PUBLIC 'CONST'
rdata$r	ENDS
;	COMDAT ??_R2Error@@8
rdata$r	SEGMENT DWORD USE32 PUBLIC 'CONST'
rdata$r	ENDS
;	COMDAT ??_R1A@?0A@A@Error@@8
rdata$r	SEGMENT DWORD USE32 PUBLIC 'CONST'
rdata$r	ENDS
;	COMDAT ??_GError@@UAEPAXI@Z
_TEXT	SEGMENT PARA USE32 PUBLIC 'CODE'
_TEXT	ENDS
;	COMDAT ?getName@Error@@UBE?AV?$basic_string@DV?$char_traits@D@_STL@@V?$allocator@D@2@@_STL@@XZ
_TEXT	SEGMENT PARA USE32 PUBLIC 'CODE'
_TEXT	ENDS
;	COMDAT ??_C@_05NAOIJFC@Error?$AA@
CONST	SEGMENT DWORD USE32 PUBLIC 'CONST'
CONST	ENDS
;	COMDAT ??1Throwable@@UAE@XZ
_TEXT	SEGMENT PARA USE32 PUBLIC 'CODE'
_TEXT	ENDS
;	COMDAT ??_7UnsupportedError@@6B@
CONST	SEGMENT DWORD USE32 PUBLIC 'CONST'
CONST	ENDS
;	COMDAT ??_R4UnsupportedError@@6B@
rdata$r	SEGMENT DWORD USE32 PUBLIC 'CONST'
rdata$r	ENDS
;	COMDAT ??_R3UnsupportedError@@8
rdata$r	SEGMENT DWORD USE32 PUBLIC 'CONST'
rdata$r	ENDS
;	COMDAT ??_R2UnsupportedError@@8
rdata$r	SEGMENT DWORD USE32 PUBLIC 'CONST'
rdata$r	ENDS
;	COMDAT ??_R1A@?0A@A@UnsupportedError@@8
rdata$r	SEGMENT DWORD USE32 PUBLIC 'CONST'
rdata$r	ENDS
;	COMDAT ??_GUnsupportedError@@UAEPAXI@Z
_TEXT	SEGMENT PARA USE32 PUBLIC 'CODE'
_TEXT	ENDS
;	COMDAT ?getName@UnsupportedError@@UBE?AV?$basic_string@DV?$char_traits@D@_STL@@V?$allocator@D@2@@_STL@@XZ
_TEXT	SEGMENT PARA USE32 PUBLIC 'CODE'
_TEXT	ENDS
;	COMDAT ??_C@_0BB@EOCHEBED@UnsupportedError?$AA@
CONST	SEGMENT DWORD USE32 PUBLIC 'CONST'
CONST	ENDS
;	COMDAT ??1Error@@UAE@XZ
_TEXT	SEGMENT PARA USE32 PUBLIC 'CODE'
_TEXT	ENDS
;	COMDAT __CTA3?AVUnsupportedError@@
xdata$x	SEGMENT DWORD USE32 PUBLIC 'CONST'
xdata$x	ENDS
;	COMDAT ??1UnsupportedError@@UAE@XZ
_TEXT	SEGMENT PARA USE32 PUBLIC 'CODE'
_TEXT	ENDS
;	COMDAT __CT??_R0?AVThrowable@@@8??0Throwable@@QAE@ABV0@@Z20
xdata$x	SEGMENT DWORD USE32 PUBLIC 'CONST'
xdata$x	ENDS
;	COMDAT __CT??_R0?AVError@@@8??0Error@@QAE@ABV0@@Z20
xdata$x	SEGMENT DWORD USE32 PUBLIC 'CONST'
xdata$x	ENDS
;	COMDAT __CT??_R0?AVUnsupportedError@@@8??0UnsupportedError@@QAE@ABV0@@Z20
xdata$x	SEGMENT DWORD USE32 PUBLIC 'CONST'
xdata$x	ENDS
;	COMDAT ??_R0?AVThrowable@@@8
_DATA	SEGMENT DWORD USE32 PUBLIC 'DATA'
_DATA	ENDS
;	COMDAT ??_R0?AVError@@@8
_DATA	SEGMENT DWORD USE32 PUBLIC 'DATA'
_DATA	ENDS
;	COMDAT ??_R0?AVUnsupportedError@@@8
_DATA	SEGMENT DWORD USE32 PUBLIC 'DATA'
_DATA	ENDS
;	COMDAT __TI3?AVUnsupportedError@@
xdata$x	SEGMENT DWORD USE32 PUBLIC 'CONST'
xdata$x	ENDS
;	COMDAT ??0UnsupportedError@@QAE@XZ
_TEXT	SEGMENT PARA USE32 PUBLIC 'CODE'
_TEXT	ENDS
;	COMDAT ??0Error@@QAE@XZ
_TEXT	SEGMENT PARA USE32 PUBLIC 'CODE'
_TEXT	ENDS
;	COMDAT ??0Throwable@@QAE@XZ
_TEXT	SEGMENT PARA USE32 PUBLIC 'CODE'
_TEXT	ENDS
;	COMDAT ??0?$basic_string@DV?$char_traits@D@_STL@@V?$allocator@D@2@@_STL@@QAE@XZ
_TEXT	SEGMENT PARA USE32 PUBLIC 'CODE'
_TEXT	ENDS
;	COMDAT ??0?$list@V?$basic_string@DV?$char_traits@D@_STL@@V?$allocator@D@2@@_STL@@V?$allocator@V?$basic_string@DV?$char_traits@D@_STL@@V?$allocator@D@2@@_STL@@@2@@_STL@@QAE@ABV?$allocator@V?$basic_string@DV?$char_traits@D@_STL@@V?$allocator@D@2@@_STL@@@1@@Z
_TEXT	SEGMENT PARA USE32 PUBLIC 'CODE'
_TEXT	ENDS
;	COMDAT ??0?$allocator@V?$basic_string@DV?$char_traits@D@_STL@@V?$allocator@D@2@@_STL@@@_STL@@QAE@XZ
_TEXT	SEGMENT PARA USE32 PUBLIC 'CODE'
_TEXT	ENDS
;	COMDAT ??_7Packet@@6B@
CONST	SEGMENT DWORD USE32 PUBLIC 'CONST'
CONST	ENDS
;	COMDAT ??1?$basic_string@DV?$char_traits@D@_STL@@V?$allocator@D@2@@_STL@@QAE@XZ
_TEXT	SEGMENT PARA USE32 PUBLIC 'CODE'
_TEXT	ENDS
;	COMDAT ??0?$basic_string@DV?$char_traits@D@_STL@@V?$allocator@D@2@@_STL@@QAE@ABV01@@Z
_TEXT	SEGMENT PARA USE32 PUBLIC 'CODE'
_TEXT	ENDS
sxdata	SEGMENT DWORD USE32 'SXDATA'
sxdata	ENDS
FLAT	GROUP _DATA, CONST, _BSS
	ASSUME	CS: FLAT, DS: FLAT, SS: FLAT
endif

INCLUDELIB LIBCMT
INCLUDELIB OLDNAMES

PUBLIC	??2@YAPAXIPAX@Z					; operator new
; Function compile flags: /Ogsy
; File c:\program files\microsoft visual studio .net 2003\vc7\include\new
;	COMDAT ??2@YAPAXIPAX@Z
_TEXT	SEGMENT
___formal$ = 8						; size = 4
__Where$ = 12						; size = 4
??2@YAPAXIPAX@Z PROC NEAR				; operator new, COMDAT

; 64   : 	return (_Where);

  00000	8b 44 24 08	 mov	 eax, DWORD PTR __Where$[esp-4]

; 65   : 	}

  00004	c3		 ret	 0
??2@YAPAXIPAX@Z ENDP					; operator new
_TEXT	ENDS
PUBLIC	?__stl_new@_STL@@YAPAXI@Z			; _STL::__stl_new
EXTRN	??2@YAPAXI@Z:NEAR				; operator new
; Function compile flags: /Ogsy
; File c:\stlport-4.6.1\stlport\stl\_new.h
;	COMDAT ?__stl_new@_STL@@YAPAXI@Z
_TEXT	SEGMENT
___n$ = 8						; size = 4
?__stl_new@_STL@@YAPAXI@Z PROC NEAR			; _STL::__stl_new, COMDAT

; 86   : inline void*  _STLP_CALL __stl_new(size_t __n)   { _STLP_CHECK_NULL_ALLOC(::operator _STLP_NEW(__n)); }

  00000	e9 00 00 00 00	 jmp	 ??2@YAPAXI@Z		; operator new
?__stl_new@_STL@@YAPAXI@Z ENDP				; _STL::__stl_new
_TEXT	ENDS
PUBLIC	?__stl_delete@_STL@@YAXPAX@Z			; _STL::__stl_delete
EXTRN	??3@YAXPAX@Z:NEAR				; operator delete
; Function compile flags: /Ogsy
;	COMDAT ?__stl_delete@_STL@@YAXPAX@Z
_TEXT	SEGMENT
___p$ = 8						; size = 4
?__stl_delete@_STL@@YAXPAX@Z PROC NEAR			; _STL::__stl_delete, COMDAT

; 87   : inline void   _STLP_CALL __stl_delete(void* __p) { ::operator delete(__p); }

  00000	e9 00 00 00 00	 jmp	 ??3@YAXPAX@Z		; operator delete
?__stl_delete@_STL@@YAXPAX@Z ENDP			; _STL::__stl_delete
_TEXT	ENDS
PUBLIC	?read@SocketInputStream@@QAEIAAE@Z		; SocketInputStream::read
EXTRN	?read@SocketInputStream@@QAEIPADI@Z:NEAR	; SocketInputStream::read
; Function compile flags: /Ogsy
; File c:\darkeden\designed_common\project\client\packet\socketinputstream.h
;	COMDAT ?read@SocketInputStream@@QAEIAAE@Z
_TEXT	SEGMENT
_buf$ = 8						; size = 4
?read@SocketInputStream@@QAEIAAE@Z PROC NEAR		; SocketInputStream::read, COMDAT
; _this$ = ecx

; 69   : 	uint read ( uchar  & buf ) throw ( ProtocolException , Error ) { return read( (char*)&buf, szuchar  ); }

  00000	6a 01		 push	 1
  00002	ff 74 24 08	 push	 DWORD PTR _buf$[esp]
  00006	e8 00 00 00 00	 call	 ?read@SocketInputStream@@QAEIPADI@Z ; SocketInputStream::read
  0000b	c2 04 00	 ret	 4
?read@SocketInputStream@@QAEIAAE@Z ENDP			; SocketInputStream::read
_TEXT	ENDS
PUBLIC	?read@SocketInputStream@@QAEIAAG@Z		; SocketInputStream::read
; Function compile flags: /Ogsy
;	COMDAT ?read@SocketInputStream@@QAEIAAG@Z
_TEXT	SEGMENT
_buf$ = 8						; size = 4
?read@SocketInputStream@@QAEIAAG@Z PROC NEAR		; SocketInputStream::read, COMDAT
; _this$ = ecx

; 71   : 	uint read ( ushort & buf ) throw ( ProtocolException , Error ) { return read( (char*)&buf, szushort ); }

  00000	6a 02		 push	 2
  00002	ff 74 24 08	 push	 DWORD PTR _buf$[esp]
  00006	e8 00 00 00 00	 call	 ?read@SocketInputStream@@QAEIPADI@Z ; SocketInputStream::read
  0000b	c2 04 00	 ret	 4
?read@SocketInputStream@@QAEIAAG@Z ENDP			; SocketInputStream::read
_TEXT	ENDS
PUBLIC	?read@SocketInputStream@@QAEIAAK@Z		; SocketInputStream::read
; Function compile flags: /Ogsy
;	COMDAT ?read@SocketInputStream@@QAEIAAK@Z
_TEXT	SEGMENT
_buf$ = 8						; size = 4
?read@SocketInputStream@@QAEIAAK@Z PROC NEAR		; SocketInputStream::read, COMDAT
; _this$ = ecx

; 75   : 	uint read ( ulong  & buf ) throw ( ProtocolException , Error ) { return read( (char*)&buf, szulong  ); }

  00000	6a 04		 push	 4
  00002	ff 74 24 08	 push	 DWORD PTR _buf$[esp]
  00006	e8 00 00 00 00	 call	 ?read@SocketInputStream@@QAEIPADI@Z ; SocketInputStream::read
  0000b	c2 04 00	 ret	 4
?read@SocketInputStream@@QAEIAAK@Z ENDP			; SocketInputStream::read
_TEXT	ENDS
PUBLIC	?_Destroy@_STL@@YAXPAD0@Z			; _STL::_Destroy
; Function compile flags: /Ogsy
; File c:\stlport-4.6.1\stlport\stl\_construct.h
;	COMDAT ?_Destroy@_STL@@YAXPAD0@Z
_TEXT	SEGMENT
___formal$ = 8						; size = 4
___formal$ = 12						; size = 4
?_Destroy@_STL@@YAXPAD0@Z PROC NEAR			; _STL::_Destroy, COMDAT

; 142  : inline void _Destroy(char*, char*) {}

  00000	c3		 ret	 0
?_Destroy@_STL@@YAXPAD0@Z ENDP				; _STL::_Destroy
_TEXT	ENDS
PUBLIC	?__copy_trivial@_STL@@YAPAXPBX0PAX@Z		; _STL::__copy_trivial
EXTRN	_memmove:NEAR
; Function compile flags: /Ogsy
; File c:\stlport-4.6.1\stlport\stl\_algobase.h
;	COMDAT ?__copy_trivial@_STL@@YAPAXPBX0PAX@Z
_TEXT	SEGMENT
___first$ = 8						; size = 4
___last$ = 12						; size = 4
___result$ = 16						; size = 4
?__copy_trivial@_STL@@YAPAXPBX0PAX@Z PROC NEAR		; _STL::__copy_trivial, COMDAT

; 147  : __copy_trivial(const void* __first, const void* __last, void* __result) {

  00000	55		 push	 ebp
  00001	8b ec		 mov	 ebp, esp
  00003	56		 push	 esi

; 148  :   return (__last == __first) ? __result : 
; 149  :     ((char*)memmove(__result, __first, ((const char*)__last - (const char*)__first))) + 
; 150  :     ((const char*)__last - (const char*)__first);

  00004	8b 75 0c	 mov	 esi, DWORD PTR ___last$[ebp]
  00007	3b 75 08	 cmp	 esi, DWORD PTR ___first$[ebp]
  0000a	75 05		 jne	 SHORT $L103189
  0000c	8b 45 10	 mov	 eax, DWORD PTR ___result$[ebp]
  0000f	eb 14		 jmp	 SHORT $L103190
$L103189:
  00011	2b 75 08	 sub	 esi, DWORD PTR ___first$[ebp]
  00014	56		 push	 esi
  00015	ff 75 08	 push	 DWORD PTR ___first$[ebp]
  00018	ff 75 10	 push	 DWORD PTR ___result$[ebp]
  0001b	e8 00 00 00 00	 call	 _memmove
  00020	83 c4 0c	 add	 esp, 12			; 0000000cH
  00023	03 c6		 add	 eax, esi
$L103190:
  00025	5e		 pop	 esi

; 151  : }

  00026	5d		 pop	 ebp
  00027	c3		 ret	 0
?__copy_trivial@_STL@@YAPAXPBX0PAX@Z ENDP		; _STL::__copy_trivial
_TEXT	ENDS
PUBLIC	?write@SocketOutputStream@@QAEIE@Z		; SocketOutputStream::write
EXTRN	?write@SocketOutputStream@@QAEIPBDI@Z:NEAR	; SocketOutputStream::write
; Function compile flags: /Ogsy
; File c:\darkeden\designed_common\project\client\packet\socketoutputstream.h
;	COMDAT ?write@SocketOutputStream@@QAEIE@Z
_TEXT	SEGMENT
_buf$ = 8						; size = 1
?write@SocketOutputStream@@QAEIE@Z PROC NEAR		; SocketOutputStream::write, COMDAT
; _this$ = ecx

; 62   :     uint write ( uchar  buf ) throw ( ProtocolException , Error ) { return write( (const char*)&buf, szuchar  ); }

  00000	6a 01		 push	 1
  00002	8d 44 24 08	 lea	 eax, DWORD PTR _buf$[esp]
  00006	50		 push	 eax
  00007	e8 00 00 00 00	 call	 ?write@SocketOutputStream@@QAEIPBDI@Z ; SocketOutputStream::write
  0000c	c2 04 00	 ret	 4
?write@SocketOutputStream@@QAEIE@Z ENDP			; SocketOutputStream::write
_TEXT	ENDS
PUBLIC	?write@SocketOutputStream@@QAEIG@Z		; SocketOutputStream::write
; Function compile flags: /Ogsy
;	COMDAT ?write@SocketOutputStream@@QAEIG@Z
_TEXT	SEGMENT
_buf$ = 8						; size = 2
?write@SocketOutputStream@@QAEIG@Z PROC NEAR		; SocketOutputStream::write, COMDAT
; _this$ = ecx

; 64   :     uint write ( ushort buf ) throw ( ProtocolException , Error ) { return write( (const char*)&buf, szushort ); }

  00000	6a 02		 push	 2
  00002	8d 44 24 08	 lea	 eax, DWORD PTR _buf$[esp]
  00006	50		 push	 eax
  00007	e8 00 00 00 00	 call	 ?write@SocketOutputStream@@QAEIPBDI@Z ; SocketOutputStream::write
  0000c	c2 04 00	 ret	 4
?write@SocketOutputStream@@QAEIG@Z ENDP			; SocketOutputStream::write
_TEXT	ENDS
PUBLIC	?write@SocketOutputStream@@QAEIK@Z		; SocketOutputStream::write
; Function compile flags: /Ogsy
;	COMDAT ?write@SocketOutputStream@@QAEIK@Z
_TEXT	SEGMENT
_buf$ = 8						; size = 4
?write@SocketOutputStream@@QAEIK@Z PROC NEAR		; SocketOutputStream::write, COMDAT
; _this$ = ecx

; 68   :     uint write ( ulong  buf ) throw ( ProtocolException , Error ) { return write( (const char*)&buf, szulong  ); }

  00000	6a 04		 push	 4
  00002	8d 44 24 08	 lea	 eax, DWORD PTR _buf$[esp]
  00006	50		 push	 eax
  00007	e8 00 00 00 00	 call	 ?write@SocketOutputStream@@QAEIPBDI@Z ; SocketOutputStream::write
  0000c	c2 04 00	 ret	 4
?write@SocketOutputStream@@QAEIK@Z ENDP			; SocketOutputStream::write
_TEXT	ENDS
PUBLIC	?uninitialized_copy@_STL@@YAPADPBD0PAD@Z	; _STL::uninitialized_copy
; Function compile flags: /Ogsy
; File c:\stlport-4.6.1\stlport\stl\_uninitialized.h
;	COMDAT ?uninitialized_copy@_STL@@YAPADPBD0PAD@Z
_TEXT	SEGMENT
___first$ = 8						; size = 4
___last$ = 12						; size = 4
___result$ = 16						; size = 4
?uninitialized_copy@_STL@@YAPADPBD0PAD@Z PROC NEAR	; _STL::uninitialized_copy, COMDAT

; 84   :   return  (char*)__copy_trivial (__first, __last, __result);

  00000	e9 00 00 00 00	 jmp	 ?__copy_trivial@_STL@@YAPAXPBX0PAX@Z ; _STL::__copy_trivial
?uninitialized_copy@_STL@@YAPADPBD0PAD@Z ENDP		; _STL::uninitialized_copy
_TEXT	ENDS
PUBLIC	?length@?$char_traits@D@_STL@@SAIPBD@Z		; _STL::char_traits<char>::length
EXTRN	_strlen:NEAR
; Function compile flags: /Ogsy
; File c:\stlport-4.6.1\stlport\stl\char_traits.h
;	COMDAT ?length@?$char_traits@D@_STL@@SAIPBD@Z
_TEXT	SEGMENT
___s$ = 8						; size = 4
?length@?$char_traits@D@_STL@@SAIPBD@Z PROC NEAR	; _STL::char_traits<char>::length, COMDAT

; 238  :   static size_t _STLP_CALL length(const char* __s) { return strlen(__s); }

  00000	e9 00 00 00 00	 jmp	 _strlen
?length@?$char_traits@D@_STL@@SAIPBD@Z ENDP		; _STL::char_traits<char>::length
_TEXT	ENDS
PUBLIC	?execute@GCSkillToTileOK1@@UAEXPAVPlayer@@@Z	; GCSkillToTileOK1::execute
EXTRN	?execute@GCSkillToTileOK1Handler@@SAXPAVGCSkillToTileOK1@@PAVPlayer@@@Z:NEAR ; GCSkillToTileOK1Handler::execute
; Function compile flags: /Ogsy
; File c:\darkeden\designed_common\project\client\packet\gpackets\gcskilltotileok1.cpp
;	COMDAT ?execute@GCSkillToTileOK1@@UAEXPAVPlayer@@@Z
_TEXT	SEGMENT
_pPlayer$ = 8						; size = 4
?execute@GCSkillToTileOK1@@UAEXPAVPlayer@@@Z PROC NEAR	; GCSkillToTileOK1::execute, COMDAT
; _this$ = ecx

; 158  : 	__BEGIN_TRY
; 159  : 		
; 160  : 	GCSkillToTileOK1Handler::execute( this , pPlayer );

  00000	ff 74 24 04	 push	 DWORD PTR _pPlayer$[esp-4]
  00004	51		 push	 ecx
  00005	e8 00 00 00 00	 call	 ?execute@GCSkillToTileOK1Handler@@SAXPAVGCSkillToTileOK1@@PAVPlayer@@@Z ; GCSkillToTileOK1Handler::execute
  0000a	59		 pop	 ecx
  0000b	59		 pop	 ecx

; 161  : 		
; 162  : 	__END_CATCH
; 163  : }

  0000c	c2 04 00	 ret	 4
?execute@GCSkillToTileOK1@@UAEXPAVPlayer@@@Z ENDP	; GCSkillToTileOK1::execute
_TEXT	ENDS
PUBLIC	??0?$allocator@K@_STL@@QAE@XZ			; _STL::allocator<unsigned long>::allocator<unsigned long>
; Function compile flags: /Ogsy
; File c:\stlport-4.6.1\stlport\stl\_alloc.h
;	COMDAT ??0?$allocator@K@_STL@@QAE@XZ
_TEXT	SEGMENT
??0?$allocator@K@_STL@@QAE@XZ PROC NEAR			; _STL::allocator<unsigned long>::allocator<unsigned long>, COMDAT
; _this$ = ecx

; 345  :   allocator() _STLP_NOTHROW {}

  00000	8b c1		 mov	 eax, ecx
  00002	c3		 ret	 0
??0?$allocator@K@_STL@@QAE@XZ ENDP			; _STL::allocator<unsigned long>::allocator<unsigned long>
_TEXT	ENDS
PUBLIC	??1?$allocator@K@_STL@@QAE@XZ			; _STL::allocator<unsigned long>::~allocator<unsigned long>
; Function compile flags: /Ogsy
;	COMDAT ??1?$allocator@K@_STL@@QAE@XZ
_TEXT	SEGMENT
??1?$allocator@K@_STL@@QAE@XZ PROC NEAR			; _STL::allocator<unsigned long>::~allocator<unsigned long>, COMDAT
; _this$ = ecx

; 350  :   ~allocator() _STLP_NOTHROW {}

  00000	c3		 ret	 0
??1?$allocator@K@_STL@@QAE@XZ ENDP			; _STL::allocator<unsigned long>::~allocator<unsigned long>
_TEXT	ENDS
PUBLIC	??D?$_List_iterator@KU?$_Const_traits@K@_STL@@@_STL@@QBEABKXZ ; _STL::_List_iterator<unsigned long,_STL::_Const_traits<unsigned long> >::operator*
; Function compile flags: /Ogsy
; File c:\stlport-4.6.1\stlport\stl\_list.h
;	COMDAT ??D?$_List_iterator@KU?$_Const_traits@K@_STL@@@_STL@@QBEABKXZ
_TEXT	SEGMENT
??D?$_List_iterator@KU?$_Const_traits@K@_STL@@@_STL@@QBEABKXZ PROC NEAR ; _STL::_List_iterator<unsigned long,_STL::_Const_traits<unsigned long> >::operator*, COMDAT
; _this$ = ecx

; 130  :   reference operator*() const { return ((_Node*)_M_node)->_M_data; }

  00000	8b 01		 mov	 eax, DWORD PTR [ecx]
  00002	83 c0 08	 add	 eax, 8
  00005	c3		 ret	 0
??D?$_List_iterator@KU?$_Const_traits@K@_STL@@@_STL@@QBEABKXZ ENDP ; _STL::_List_iterator<unsigned long,_STL::_Const_traits<unsigned long> >::operator*
_TEXT	ENDS
PUBLIC	?_M_terminate_string_aux@?$basic_string@DV?$char_traits@D@_STL@@V?$allocator@D@2@@_STL@@AAEXABU__true_type@2@@Z ; _STL::basic_string<char,_STL::char_traits<char>,_STL::allocator<char> >::_M_terminate_string_aux
; Function compile flags: /Ogsy
; File c:\stlport-4.6.1\stlport\stl\_string.h
;	COMDAT ?_M_terminate_string_aux@?$basic_string@DV?$char_traits@D@_STL@@V?$allocator@D@2@@_STL@@AAEXABU__true_type@2@@Z
_TEXT	SEGMENT
___formal$ = 8						; size = 4
?_M_terminate_string_aux@?$basic_string@DV?$char_traits@D@_STL@@V?$allocator@D@2@@_STL@@AAEXABU__true_type@2@@Z PROC NEAR ; _STL::basic_string<char,_STL::char_traits<char>,_STL::allocator<char> >::_M_terminate_string_aux, COMDAT
; _this$ = ecx

; 351  :     *(this->_M_finish)=0;

  00000	8b 41 04	 mov	 eax, DWORD PTR [ecx+4]
  00003	c6 00 00	 mov	 BYTE PTR [eax], 0

; 352  :   }

  00006	c2 04 00	 ret	 4
?_M_terminate_string_aux@?$basic_string@DV?$char_traits@D@_STL@@V?$allocator@D@2@@_STL@@AAEXABU__true_type@2@@Z ENDP ; _STL::basic_string<char,_STL::char_traits<char>,_STL::allocator<char> >::_M_terminate_string_aux
_TEXT	ENDS
PUBLIC	??0?$allocator@D@_STL@@QAE@ABV01@@Z		; _STL::allocator<char>::allocator<char>
; Function compile flags: /Ogsy
; File c:\stlport-4.6.1\stlport\stl\_alloc.h
;	COMDAT ??0?$allocator@D@_STL@@QAE@ABV01@@Z
_TEXT	SEGMENT
___formal$ = 8						; size = 4
??0?$allocator@D@_STL@@QAE@ABV01@@Z PROC NEAR		; _STL::allocator<char>::allocator<char>, COMDAT
; _this$ = ecx

; 349  :   allocator(const allocator<_Tp>&) _STLP_NOTHROW {}

  00000	8b c1		 mov	 eax, ecx
  00002	c2 04 00	 ret	 4
??0?$allocator@D@_STL@@QAE@ABV01@@Z ENDP		; _STL::allocator<char>::allocator<char>
_TEXT	ENDS
PUBLIC	??1?$allocator@U?$_List_node@K@_STL@@@_STL@@QAE@XZ ; _STL::allocator<_STL::_List_node<unsigned long> >::~allocator<_STL::_List_node<unsigned long> >
; Function compile flags: /Ogsy
;	COMDAT ??1?$allocator@U?$_List_node@K@_STL@@@_STL@@QAE@XZ
_TEXT	SEGMENT
??1?$allocator@U?$_List_node@K@_STL@@@_STL@@QAE@XZ PROC NEAR ; _STL::allocator<_STL::_List_node<unsigned long> >::~allocator<_STL::_List_node<unsigned long> >, COMDAT
; _this$ = ecx

; 350  :   ~allocator() _STLP_NOTHROW {}

  00000	c3		 ret	 0
??1?$allocator@U?$_List_node@K@_STL@@@_STL@@QAE@XZ ENDP	; _STL::allocator<_STL::_List_node<unsigned long> >::~allocator<_STL::_List_node<unsigned long> >
_TEXT	ENDS
PUBLIC	??0?$allocator@U?$_List_node@K@_STL@@@_STL@@QAE@ABV01@@Z ; _STL::allocator<_STL::_List_node<unsigned long> >::allocator<_STL::_List_node<unsigned long> >
; Function compile flags: /Ogsy
;	COMDAT ??0?$allocator@U?$_List_node@K@_STL@@@_STL@@QAE@ABV01@@Z
_TEXT	SEGMENT
___formal$ = 8						; size = 4
??0?$allocator@U?$_List_node@K@_STL@@@_STL@@QAE@ABV01@@Z PROC NEAR ; _STL::allocator<_STL::_List_node<unsigned long> >::allocator<_STL::_List_node<unsigned long> >, COMDAT
; _this$ = ecx

; 349  :   allocator(const allocator<_Tp>&) _STLP_NOTHROW {}

  00000	8b c1		 mov	 eax, ecx
  00002	c2 04 00	 ret	 4
??0?$allocator@U?$_List_node@K@_STL@@@_STL@@QAE@ABV01@@Z ENDP ; _STL::allocator<_STL::_List_node<unsigned long> >::allocator<_STL::_List_node<unsigned long> >
_TEXT	ENDS
PUBLIC	??$_Destroy@K@_STL@@YAXPAK@Z			; _STL::_Destroy<unsigned long>
; Function compile flags: /Ogsy
; File c:\stlport-4.6.1\stlport\stl\_construct.h
;	COMDAT ??$_Destroy@K@_STL@@YAXPAK@Z
_TEXT	SEGMENT
___pointer$ = 8						; size = 4
??$_Destroy@K@_STL@@YAXPAK@Z PROC NEAR			; _STL::_Destroy<unsigned long>, COMDAT

; 57   : # if _MSC_VER >= 1010
; 58   :   __pointer;
; 59   : # endif	// _MSC_VER >= 1000
; 60   : # ifdef _STLP_TRIVIAL_DESTRUCTOR_BUG
; 61   :   typedef typename __type_traits<_Tp>::has_trivial_destructor _Trivial_destructor;
; 62   :   __destroy_aux(__pointer, _Trivial_destructor());
; 63   : # else
; 64   : #  if ( defined (__BORLANDC__) && ( __BORLANDC__ < 0x500 ) )
; 65   :     __pointer->_Tp::~_Tp();
; 66   : #  else
; 67   :     __pointer->~_Tp();
; 68   : #  endif
; 69   : # endif
; 70   : # ifdef _STLP_DEBUG_UNINITIALIZED
; 71   : 	memset((char*)__pointer, _STLP_SHRED_BYTE, sizeof(_Tp));
; 72   : # endif
; 73   : }

  00000	c3		 ret	 0
??$_Destroy@K@_STL@@YAXPAK@Z ENDP			; _STL::_Destroy<unsigned long>
_TEXT	ENDS
PUBLIC	??$?0K@?$allocator@U?$_List_node@K@_STL@@@_STL@@QAE@ABV?$allocator@K@1@@Z ; _STL::allocator<_STL::_List_node<unsigned long> >::allocator<_STL::_List_node<unsigned long> ><unsigned long>
; Function compile flags: /Ogsy
; File c:\stlport-4.6.1\stlport\stl\_alloc.h
;	COMDAT ??$?0K@?$allocator@U?$_List_node@K@_STL@@@_STL@@QAE@ABV?$allocator@K@1@@Z
_TEXT	SEGMENT
___formal$ = 8						; size = 4
??$?0K@?$allocator@U?$_List_node@K@_STL@@@_STL@@QAE@ABV?$allocator@K@1@@Z PROC NEAR ; _STL::allocator<_STL::_List_node<unsigned long> >::allocator<_STL::_List_node<unsigned long> ><unsigned long>, COMDAT
; _this$ = ecx

; 347  :   template <class _Tp1> allocator(const allocator<_Tp1>&) _STLP_NOTHROW {}

  00000	8b c1		 mov	 eax, ecx
  00002	c2 04 00	 ret	 4
??$?0K@?$allocator@U?$_List_node@K@_STL@@@_STL@@QAE@ABV?$allocator@K@1@@Z ENDP ; _STL::allocator<_STL::_List_node<unsigned long> >::allocator<_STL::_List_node<unsigned long> ><unsigned long>
_TEXT	ENDS
PUBLIC	??$_Construct@KK@_STL@@YAXPAKABK@Z		; _STL::_Construct<unsigned long,unsigned long>
; Function compile flags: /Ogsy
; File c:\stlport-4.6.1\stlport\stl\_construct.h
;	COMDAT ??$_Construct@KK@_STL@@YAXPAKABK@Z
_TEXT	SEGMENT
___p$ = 8						; size = 4
___val$ = 12						; size = 4
??$_Construct@KK@_STL@@YAXPAKABK@Z PROC NEAR		; _STL::_Construct<unsigned long,unsigned long>, COMDAT

; 94   : # ifdef _STLP_DEBUG_UNINITIALIZED
; 95   : 	memset((char*)__p, _STLP_SHRED_BYTE, sizeof(_T1));
; 96   : # endif
; 97   :     _STLP_PLACEMENT_NEW (__p) _T1(__val);

  00000	8b 44 24 04	 mov	 eax, DWORD PTR ___p$[esp-4]
  00004	85 c0		 test	 eax, eax
  00006	74 08		 je	 SHORT $L103241
  00008	8b 4c 24 08	 mov	 ecx, DWORD PTR ___val$[esp-4]
  0000c	8b 09		 mov	 ecx, DWORD PTR [ecx]
  0000e	89 08		 mov	 DWORD PTR [eax], ecx
$L103241:

; 98   : }

  00010	c3		 ret	 0
??$_Construct@KK@_STL@@YAXPAKABK@Z ENDP			; _STL::_Construct<unsigned long,unsigned long>
_TEXT	ENDS
PUBLIC	?max_size@?$_String_base@DV?$allocator@D@_STL@@@_STL@@QBEIXZ ; _STL::_String_base<char,_STL::allocator<char> >::max_size
; Function compile flags: /Ogsy
; File c:\stlport-4.6.1\stlport\stl\_string.h
;	COMDAT ?max_size@?$_String_base@DV?$allocator@D@_STL@@@_STL@@QBEIXZ
_TEXT	SEGMENT
?max_size@?$_String_base@DV?$allocator@D@_STL@@@_STL@@QBEIXZ PROC NEAR ; _STL::_String_base<char,_STL::allocator<char> >::max_size, COMDAT
; _this$ = ecx

; 126  :   size_t max_size() const { return (size_t(-1) / sizeof(_Tp)) - 1; }

  00000	6a fe		 push	 -2			; fffffffeH
  00002	58		 pop	 eax
  00003	c3		 ret	 0
?max_size@?$_String_base@DV?$allocator@D@_STL@@@_STL@@QBEIXZ ENDP ; _STL::_String_base<char,_STL::allocator<char> >::max_size
_TEXT	ENDS
PUBLIC	??$__distance@PBD@_STL@@YAHABQBD0ABUrandom_access_iterator_tag@0@@Z ; _STL::__distance<char const *>
; Function compile flags: /Ogsy
; File c:\stlport-4.6.1\stlport\stl\_iterator_base.h
;	COMDAT ??$__distance@PBD@_STL@@YAHABQBD0ABUrandom_access_iterator_tag@0@@Z
_TEXT	SEGMENT
___first$ = 8						; size = 4
___last$ = 12						; size = 4
___formal$ = 16						; size = 4
??$__distance@PBD@_STL@@YAHABQBD0ABUrandom_access_iterator_tag@0@@Z PROC NEAR ; _STL::__distance<char const *>, COMDAT

; 363  :   return __last - __first;

  00000	8b 44 24 08	 mov	 eax, DWORD PTR ___last$[esp-4]
  00004	8b 00		 mov	 eax, DWORD PTR [eax]
  00006	8b 4c 24 04	 mov	 ecx, DWORD PTR ___first$[esp-4]
  0000a	2b 01		 sub	 eax, DWORD PTR [ecx]

; 364  : }

  0000c	c3		 ret	 0
??$__distance@PBD@_STL@@YAHABQBD0ABUrandom_access_iterator_tag@0@@Z ENDP ; _STL::__distance<char const *>
_TEXT	ENDS
PUBLIC	??_C@_0N@GOPDCEEB@basic_string?$AA@		; `string'
PUBLIC	?_M_throw_length_error@?$_String_base@DV?$allocator@D@_STL@@@_STL@@QBEXXZ ; _STL::_String_base<char,_STL::allocator<char> >::_M_throw_length_error
EXTRN	?__stl_throw_length_error@_STL@@YAXPBD@Z:NEAR	; _STL::__stl_throw_length_error
;	COMDAT ??_C@_0N@GOPDCEEB@basic_string?$AA@
; File c:\stlport-4.6.1\stlport\stl\_string.c
CONST	SEGMENT
??_C@_0N@GOPDCEEB@basic_string?$AA@ DB 'basic_string', 00H ; `string'
; Function compile flags: /Ogsy
CONST	ENDS
;	COMDAT ?_M_throw_length_error@?$_String_base@DV?$allocator@D@_STL@@@_STL@@QBEXXZ
_TEXT	SEGMENT
?_M_throw_length_error@?$_String_base@DV?$allocator@D@_STL@@@_STL@@QBEXXZ PROC NEAR ; _STL::_String_base<char,_STL::allocator<char> >::_M_throw_length_error, COMDAT
; _this$ = ecx

; 523  :     __stl_throw_length_error("basic_string");

  00000	68 00 00 00 00	 push	 OFFSET FLAT:??_C@_0N@GOPDCEEB@basic_string?$AA@
  00005	e8 00 00 00 00	 call	 ?__stl_throw_length_error@_STL@@YAXPBD@Z ; _STL::__stl_throw_length_error
  0000a	59		 pop	 ecx

; 524  : }

  0000b	c3		 ret	 0
?_M_throw_length_error@?$_String_base@DV?$allocator@D@_STL@@@_STL@@QBEXXZ ENDP ; _STL::_String_base<char,_STL::allocator<char> >::_M_throw_length_error
_TEXT	ENDS
PUBLIC	??0_List_iterator_base@_STL@@QAE@PAU_List_node_base@1@@Z ; _STL::_List_iterator_base::_List_iterator_base
; Function compile flags: /Ogsy
; File c:\stlport-4.6.1\stlport\stl\_list.h
;	COMDAT ??0_List_iterator_base@_STL@@QAE@PAU_List_node_base@1@@Z
_TEXT	SEGMENT
___x$ = 8						; size = 4
??0_List_iterator_base@_STL@@QAE@PAU_List_node_base@1@@Z PROC NEAR ; _STL::_List_iterator_base::_List_iterator_base, COMDAT
; _this$ = ecx

; 95   :   _List_iterator_base(_List_node_base* __x) : _M_node(__x) {}

  00000	8b c1		 mov	 eax, ecx
  00002	8b 4c 24 04	 mov	 ecx, DWORD PTR ___x$[esp-4]
  00006	89 08		 mov	 DWORD PTR [eax], ecx
  00008	c2 04 00	 ret	 4
??0_List_iterator_base@_STL@@QAE@PAU_List_node_base@1@@Z ENDP ; _STL::_List_iterator_base::_List_iterator_base
_TEXT	ENDS
PUBLIC	?_M_incr@_List_iterator_base@_STL@@QAEXXZ	; _STL::_List_iterator_base::_M_incr
; Function compile flags: /Ogsy
;	COMDAT ?_M_incr@_List_iterator_base@_STL@@QAEXXZ
_TEXT	SEGMENT
?_M_incr@_List_iterator_base@_STL@@QAEXXZ PROC NEAR	; _STL::_List_iterator_base::_M_incr, COMDAT
; _this$ = ecx

; 98   :   void _M_incr() { _M_node = _M_node->_M_next; }

  00000	8b 01		 mov	 eax, DWORD PTR [ecx]
  00002	8b 00		 mov	 eax, DWORD PTR [eax]
  00004	89 01		 mov	 DWORD PTR [ecx], eax
  00006	c3		 ret	 0
?_M_incr@_List_iterator_base@_STL@@QAEXXZ ENDP		; _STL::_List_iterator_base::_M_incr
_TEXT	ENDS
PUBLIC	??9_List_iterator_base@_STL@@QBE_NABU01@@Z	; _STL::_List_iterator_base::operator!=
; Function compile flags: /Ogsy
;	COMDAT ??9_List_iterator_base@_STL@@QBE_NABU01@@Z
_TEXT	SEGMENT
___y$ = 8						; size = 4
??9_List_iterator_base@_STL@@QBE_NABU01@@Z PROC NEAR	; _STL::_List_iterator_base::operator!=, COMDAT
; _this$ = ecx

; 104  :     return _M_node != __y._M_node; 

  00000	8b 01		 mov	 eax, DWORD PTR [ecx]
  00002	8b 54 24 04	 mov	 edx, DWORD PTR ___y$[esp-4]
  00006	33 c9		 xor	 ecx, ecx
  00008	3b 02		 cmp	 eax, DWORD PTR [edx]
  0000a	0f 95 c1	 setne	 cl
  0000d	8a c1		 mov	 al, cl

; 105  :   }

  0000f	c2 04 00	 ret	 4
??9_List_iterator_base@_STL@@QBE_NABU01@@Z ENDP		; _STL::_List_iterator_base::operator!=
_TEXT	ENDS
PUBLIC	??0?$allocator@D@_STL@@QAE@XZ			; _STL::allocator<char>::allocator<char>
; Function compile flags: /Ogsy
; File c:\stlport-4.6.1\stlport\stl\_alloc.h
;	COMDAT ??0?$allocator@D@_STL@@QAE@XZ
_TEXT	SEGMENT
??0?$allocator@D@_STL@@QAE@XZ PROC NEAR			; _STL::allocator<char>::allocator<char>, COMDAT
; _this$ = ecx

; 345  :   allocator() _STLP_NOTHROW {}

  00000	8b c1		 mov	 eax, ecx
  00002	c3		 ret	 0
??0?$allocator@D@_STL@@QAE@XZ ENDP			; _STL::allocator<char>::allocator<char>
_TEXT	ENDS
PUBLIC	??1?$allocator@D@_STL@@QAE@XZ			; _STL::allocator<char>::~allocator<char>
; Function compile flags: /Ogsy
;	COMDAT ??1?$allocator@D@_STL@@QAE@XZ
_TEXT	SEGMENT
??1?$allocator@D@_STL@@QAE@XZ PROC NEAR			; _STL::allocator<char>::~allocator<char>, COMDAT
; _this$ = ecx

; 350  :   ~allocator() _STLP_NOTHROW {}

  00000	c3		 ret	 0
??1?$allocator@D@_STL@@QAE@XZ ENDP			; _STL::allocator<char>::~allocator<char>
_TEXT	ENDS
PUBLIC	??1?$_STLP_alloc_proxy@PADDV?$allocator@D@_STL@@@_STL@@QAE@XZ ; _STL::_STLP_alloc_proxy<char *,char,_STL::allocator<char> >::~_STLP_alloc_proxy<char *,char,_STL::allocator<char> >
; Function compile flags: /Ogsy
;	COMDAT ??1?$_STLP_alloc_proxy@PADDV?$allocator@D@_STL@@@_STL@@QAE@XZ
_TEXT	SEGMENT
??1?$_STLP_alloc_proxy@PADDV?$allocator@D@_STL@@@_STL@@QAE@XZ PROC NEAR ; _STL::_STLP_alloc_proxy<char *,char,_STL::allocator<char> >::~_STLP_alloc_proxy<char *,char,_STL::allocator<char> >, COMDAT
; _this$ = ecx
  00000	c3		 ret	 0
??1?$_STLP_alloc_proxy@PADDV?$allocator@D@_STL@@@_STL@@QAE@XZ ENDP ; _STL::_STLP_alloc_proxy<char *,char,_STL::allocator<char> >::~_STLP_alloc_proxy<char *,char,_STL::allocator<char> >
_TEXT	ENDS
PUBLIC	?allocate@?$__node_alloc@$00$0A@@_STL@@SAPAXI@Z	; _STL::__node_alloc<1,0>::allocate
EXTRN	?_M_allocate@?$__node_alloc@$00$0A@@_STL@@CAPAXI@Z:NEAR ; _STL::__node_alloc<1,0>::_M_allocate
; Function compile flags: /Ogsy
;	COMDAT ?allocate@?$__node_alloc@$00$0A@@_STL@@SAPAXI@Z
_TEXT	SEGMENT
___n$ = 8						; size = 4
?allocate@?$__node_alloc@$00$0A@@_STL@@SAPAXI@Z PROC NEAR ; _STL::__node_alloc<1,0>::allocate, COMDAT

; 251  :   static void * _STLP_CALL allocate(size_t __n) { return (__n > (size_t)_MAX_BYTES) ?  __stl_new(__n) : _M_allocate(__n); }

  00000	8b 44 24 04	 mov	 eax, DWORD PTR ___n$[esp-4]
  00004	3d 80 00 00 00	 cmp	 eax, 128		; 00000080H
  00009	50		 push	 eax
  0000a	76 07		 jbe	 SHORT $L103279
  0000c	e8 00 00 00 00	 call	 ??2@YAPAXI@Z		; operator new
  00011	59		 pop	 ecx
  00012	c3		 ret	 0
$L103279:
  00013	e8 00 00 00 00	 call	 ?_M_allocate@?$__node_alloc@$00$0A@@_STL@@CAPAXI@Z ; _STL::__node_alloc<1,0>::_M_allocate
  00018	59		 pop	 ecx
  00019	c3		 ret	 0
?allocate@?$__node_alloc@$00$0A@@_STL@@SAPAXI@Z ENDP	; _STL::__node_alloc<1,0>::allocate
_TEXT	ENDS
PUBLIC	?deallocate@?$__node_alloc@$00$0A@@_STL@@SAXPAXI@Z ; _STL::__node_alloc<1,0>::deallocate
EXTRN	?_M_deallocate@?$__node_alloc@$00$0A@@_STL@@CAXPAXI@Z:NEAR ; _STL::__node_alloc<1,0>::_M_deallocate
; Function compile flags: /Ogsy
;	COMDAT ?deallocate@?$__node_alloc@$00$0A@@_STL@@SAXPAXI@Z
_TEXT	SEGMENT
___p$ = 8						; size = 4
___n$ = 12						; size = 4
?deallocate@?$__node_alloc@$00$0A@@_STL@@SAXPAXI@Z PROC NEAR ; _STL::__node_alloc<1,0>::deallocate, COMDAT

; 253  :   static void _STLP_CALL deallocate(void *__p, size_t __n) { if (__n > (size_t)_MAX_BYTES) __stl_delete(__p); else _M_deallocate(__p, __n); }

  00000	81 7c 24 08 80
	00 00 00	 cmp	 DWORD PTR ___n$[esp-4], 128 ; 00000080H
  00008	76 0b		 jbe	 SHORT $L98677
  0000a	ff 74 24 04	 push	 DWORD PTR ___p$[esp-4]
  0000e	e8 00 00 00 00	 call	 ??3@YAXPAX@Z		; operator delete
  00013	59		 pop	 ecx
  00014	c3		 ret	 0
$L98677:
  00015	e9 00 00 00 00	 jmp	 ?_M_deallocate@?$__node_alloc@$00$0A@@_STL@@CAXPAXI@Z ; _STL::__node_alloc<1,0>::_M_deallocate
?deallocate@?$__node_alloc@$00$0A@@_STL@@SAXPAXI@Z ENDP	; _STL::__node_alloc<1,0>::deallocate
_TEXT	ENDS
PUBLIC	?_M_terminate_string@?$basic_string@DV?$char_traits@D@_STL@@V?$allocator@D@2@@_STL@@AAEXXZ ; _STL::basic_string<char,_STL::char_traits<char>,_STL::allocator<char> >::_M_terminate_string
; Function compile flags: /Ogsy
; File c:\stlport-4.6.1\stlport\stl\_string.h
;	COMDAT ?_M_terminate_string@?$basic_string@DV?$char_traits@D@_STL@@V?$allocator@D@2@@_STL@@AAEXXZ
_TEXT	SEGMENT
?_M_terminate_string@?$basic_string@DV?$char_traits@D@_STL@@V?$allocator@D@2@@_STL@@AAEXXZ PROC NEAR ; _STL::basic_string<char,_STL::char_traits<char>,_STL::allocator<char> >::_M_terminate_string, COMDAT
; _this$ = ecx

; 355  :     _M_terminate_string_aux(_Char_Is_Integral());

  00000	8b 41 04	 mov	 eax, DWORD PTR [ecx+4]
  00003	c6 00 00	 mov	 BYTE PTR [eax], 0

; 356  :   }

  00006	c3		 ret	 0
?_M_terminate_string@?$basic_string@DV?$char_traits@D@_STL@@V?$allocator@D@2@@_STL@@AAEXXZ ENDP ; _STL::basic_string<char,_STL::char_traits<char>,_STL::allocator<char> >::_M_terminate_string
_TEXT	ENDS
PUBLIC	?allocate@?$allocator@D@_STL@@QAEPADIPBX@Z	; _STL::allocator<char>::allocate
; Function compile flags: /Ogsy
; File c:\stlport-4.6.1\stlport\stl\_alloc.h
;	COMDAT ?allocate@?$allocator@D@_STL@@QAEPADIPBX@Z
_TEXT	SEGMENT
___n$ = 8						; size = 4
___formal$ = 12						; size = 4
?allocate@?$allocator@D@_STL@@QAEPADIPBX@Z PROC NEAR	; _STL::allocator<char>::allocate, COMDAT
; _this$ = ecx

; 355  :     return __n != 0 ? __REINTERPRET_CAST(value_type*,__sgi_alloc::allocate(__n * sizeof(value_type))) : 0;

  00000	33 c0		 xor	 eax, eax
  00002	39 44 24 04	 cmp	 DWORD PTR ___n$[esp-4], eax
  00006	74 0a		 je	 SHORT $L103302
  00008	ff 74 24 04	 push	 DWORD PTR ___n$[esp-4]
  0000c	e8 00 00 00 00	 call	 ?allocate@?$__node_alloc@$00$0A@@_STL@@SAPAXI@Z ; _STL::__node_alloc<1,0>::allocate
  00011	59		 pop	 ecx
$L103302:

; 356  :   }

  00012	c2 08 00	 ret	 8
?allocate@?$allocator@D@_STL@@QAEPADIPBX@Z ENDP		; _STL::allocator<char>::allocate
_TEXT	ENDS
PUBLIC	??E?$_List_iterator@KU?$_Const_traits@K@_STL@@@_STL@@QAE?AU01@H@Z ; _STL::_List_iterator<unsigned long,_STL::_Const_traits<unsigned long> >::operator++
; Function compile flags: /Ogsy
; File c:\stlport-4.6.1\stlport\stl\_list.h
;	COMDAT ??E?$_List_iterator@KU?$_Const_traits@K@_STL@@@_STL@@QAE?AU01@H@Z
_TEXT	SEGMENT
___$ReturnUdt$ = 8					; size = 4
___formal$ = 12						; size = 4
??E?$_List_iterator@KU?$_Const_traits@K@_STL@@@_STL@@QAE?AU01@H@Z PROC NEAR ; _STL::_List_iterator<unsigned long,_STL::_Const_traits<unsigned long> >::operator++, COMDAT
; _this$ = ecx

; 139  :     _Self __tmp = *this;

  00000	8b 11		 mov	 edx, DWORD PTR [ecx]

; 140  :     this->_M_incr();

  00002	8b 02		 mov	 eax, DWORD PTR [edx]
  00004	89 01		 mov	 DWORD PTR [ecx], eax

; 141  :     return __tmp;

  00006	8b 44 24 04	 mov	 eax, DWORD PTR ___$ReturnUdt$[esp-4]
  0000a	89 10		 mov	 DWORD PTR [eax], edx

; 142  :   }

  0000c	c2 08 00	 ret	 8
??E?$_List_iterator@KU?$_Const_traits@K@_STL@@@_STL@@QAE?AU01@H@Z ENDP ; _STL::_List_iterator<unsigned long,_STL::_Const_traits<unsigned long> >::operator++
_TEXT	ENDS
PUBLIC	??0?$_STLP_alloc_proxy@PADDV?$allocator@D@_STL@@@_STL@@QAE@ABV?$allocator@D@1@PAD@Z ; _STL::_STLP_alloc_proxy<char *,char,_STL::allocator<char> >::_STLP_alloc_proxy<char *,char,_STL::allocator<char> >
; Function compile flags: /Ogsy
; File c:\stlport-4.6.1\stlport\stl\_alloc.h
;	COMDAT ??0?$_STLP_alloc_proxy@PADDV?$allocator@D@_STL@@@_STL@@QAE@ABV?$allocator@D@1@PAD@Z
_TEXT	SEGMENT
___a$ = 8						; size = 4
___p$ = 12						; size = 4
??0?$_STLP_alloc_proxy@PADDV?$allocator@D@_STL@@@_STL@@QAE@ABV?$allocator@D@1@PAD@Z PROC NEAR ; _STL::_STLP_alloc_proxy<char *,char,_STL::allocator<char> >::_STLP_alloc_proxy<char *,char,_STL::allocator<char> >, COMDAT
; _this$ = ecx

; 487  :   inline _STLP_alloc_proxy(const _MaybeReboundAlloc& __a, _Value __p) : _MaybeReboundAlloc(__a), _M_data(__p) {}

  00000	8b c1		 mov	 eax, ecx
  00002	8b 4c 24 08	 mov	 ecx, DWORD PTR ___p$[esp-4]
  00006	89 08		 mov	 DWORD PTR [eax], ecx
  00008	c2 08 00	 ret	 8
??0?$_STLP_alloc_proxy@PADDV?$allocator@D@_STL@@@_STL@@QAE@ABV?$allocator@D@1@PAD@Z ENDP ; _STL::_STLP_alloc_proxy<char *,char,_STL::allocator<char> >::_STLP_alloc_proxy<char *,char,_STL::allocator<char> >
_TEXT	ENDS
PUBLIC	??0?$_List_iterator@KU?$_Const_traits@K@_STL@@@_STL@@QAE@PAU?$_List_node@K@1@@Z ; _STL::_List_iterator<unsigned long,_STL::_Const_traits<unsigned long> >::_List_iterator<unsigned long,_STL::_Const_traits<unsigned long> >
; Function compile flags: /Ogsy
; File c:\stlport-4.6.1\stlport\stl\_list.h
;	COMDAT ??0?$_List_iterator@KU?$_Const_traits@K@_STL@@@_STL@@QAE@PAU?$_List_node@K@1@@Z
_TEXT	SEGMENT
___x$ = 8						; size = 4
??0?$_List_iterator@KU?$_Const_traits@K@_STL@@@_STL@@QAE@PAU?$_List_node@K@1@@Z PROC NEAR ; _STL::_List_iterator<unsigned long,_STL::_Const_traits<unsigned long> >::_List_iterator<unsigned long,_STL::_Const_traits<unsigned long> >, COMDAT
; _this$ = ecx

; 126  :   _List_iterator(_Node* __x) : _List_iterator_base(__x) {}

  00000	8b c1		 mov	 eax, ecx
  00002	8b 4c 24 04	 mov	 ecx, DWORD PTR ___x$[esp-4]
  00006	89 08		 mov	 DWORD PTR [eax], ecx
  00008	c2 04 00	 ret	 4
??0?$_List_iterator@KU?$_Const_traits@K@_STL@@@_STL@@QAE@PAU?$_List_node@K@1@@Z ENDP ; _STL::_List_iterator<unsigned long,_STL::_Const_traits<unsigned long> >::_List_iterator<unsigned long,_STL::_Const_traits<unsigned long> >
_TEXT	ENDS
PUBLIC	??1?$_STLP_alloc_proxy@PAU?$_List_node@K@_STL@@U12@V?$allocator@U?$_List_node@K@_STL@@@2@@_STL@@QAE@XZ ; _STL::_STLP_alloc_proxy<_STL::_List_node<unsigned long> *,_STL::_List_node<unsigned long>,_STL::allocator<_STL::_List_node<unsigned long> > >::~_STLP_alloc_proxy<_STL::_List_node<unsigned long> *,_STL::_List_node<unsigned long>,_STL::allocator<_STL::_List_node<unsigned long> > >
; Function compile flags: /Ogsy
;	COMDAT ??1?$_STLP_alloc_proxy@PAU?$_List_node@K@_STL@@U12@V?$allocator@U?$_List_node@K@_STL@@@2@@_STL@@QAE@XZ
_TEXT	SEGMENT
??1?$_STLP_alloc_proxy@PAU?$_List_node@K@_STL@@U12@V?$allocator@U?$_List_node@K@_STL@@@2@@_STL@@QAE@XZ PROC NEAR ; _STL::_STLP_alloc_proxy<_STL::_List_node<unsigned long> *,_STL::_List_node<unsigned long>,_STL::allocator<_STL::_List_node<unsigned long> > >::~_STLP_alloc_proxy<_STL::_List_node<unsigned long> *,_STL::_List_node<unsigned long>,_STL::allocator<_STL::_List_node<unsigned long> > >, COMDAT
; _this$ = ecx
  00000	c3		 ret	 0
??1?$_STLP_alloc_proxy@PAU?$_List_node@K@_STL@@U12@V?$allocator@U?$_List_node@K@_STL@@@2@@_STL@@QAE@XZ ENDP ; _STL::_STLP_alloc_proxy<_STL::_List_node<unsigned long> *,_STL::_List_node<unsigned long>,_STL::allocator<_STL::_List_node<unsigned long> > >::~_STLP_alloc_proxy<_STL::_List_node<unsigned long> *,_STL::_List_node<unsigned long>,_STL::allocator<_STL::_List_node<unsigned long> > >
_TEXT	ENDS
PUBLIC	??0?$_STLP_alloc_proxy@PAU?$_List_node@K@_STL@@U12@V?$allocator@U?$_List_node@K@_STL@@@2@@_STL@@QAE@ABV?$allocator@U?$_List_node@K@_STL@@@1@PAU?$_List_node@K@1@@Z ; _STL::_STLP_alloc_proxy<_STL::_List_node<unsigned long> *,_STL::_List_node<unsigned long>,_STL::allocator<_STL::_List_node<unsigned long> > >::_STLP_alloc_proxy<_STL::_List_node<unsigned long> *,_STL::_List_node<unsigned long>,_STL::allocator<_STL::_List_node<unsigned long> > >
; Function compile flags: /Ogsy
; File c:\stlport-4.6.1\stlport\stl\_alloc.h
;	COMDAT ??0?$_STLP_alloc_proxy@PAU?$_List_node@K@_STL@@U12@V?$allocator@U?$_List_node@K@_STL@@@2@@_STL@@QAE@ABV?$allocator@U?$_List_node@K@_STL@@@1@PAU?$_List_node@K@1@@Z
_TEXT	SEGMENT
___a$ = 8						; size = 4
___p$ = 12						; size = 4
??0?$_STLP_alloc_proxy@PAU?$_List_node@K@_STL@@U12@V?$allocator@U?$_List_node@K@_STL@@@2@@_STL@@QAE@ABV?$allocator@U?$_List_node@K@_STL@@@1@PAU?$_List_node@K@1@@Z PROC NEAR ; _STL::_STLP_alloc_proxy<_STL::_List_node<unsigned long> *,_STL::_List_node<unsigned long>,_STL::allocator<_STL::_List_node<unsigned long> > >::_STLP_alloc_proxy<_STL::_List_node<unsigned long> *,_STL::_List_node<unsigned long>,_STL::allocator<_STL::_List_node<unsigned long> > >, COMDAT
; _this$ = ecx

; 487  :   inline _STLP_alloc_proxy(const _MaybeReboundAlloc& __a, _Value __p) : _MaybeReboundAlloc(__a), _M_data(__p) {}

  00000	8b c1		 mov	 eax, ecx
  00002	8b 4c 24 08	 mov	 ecx, DWORD PTR ___p$[esp-4]
  00006	89 08		 mov	 DWORD PTR [eax], ecx
  00008	c2 08 00	 ret	 8
??0?$_STLP_alloc_proxy@PAU?$_List_node@K@_STL@@U12@V?$allocator@U?$_List_node@K@_STL@@@2@@_STL@@QAE@ABV?$allocator@U?$_List_node@K@_STL@@@1@PAU?$_List_node@K@1@@Z ENDP ; _STL::_STLP_alloc_proxy<_STL::_List_node<unsigned long> *,_STL::_List_node<unsigned long>,_STL::allocator<_STL::_List_node<unsigned long> > >::_STLP_alloc_proxy<_STL::_List_node<unsigned long> *,_STL::_List_node<unsigned long>,_STL::allocator<_STL::_List_node<unsigned long> > >
_TEXT	ENDS
PUBLIC	?allocate@?$allocator@U?$_List_node@K@_STL@@@_STL@@QAEPAU?$_List_node@K@2@IPBX@Z ; _STL::allocator<_STL::_List_node<unsigned long> >::allocate
; Function compile flags: /Ogsy
;	COMDAT ?allocate@?$allocator@U?$_List_node@K@_STL@@@_STL@@QAEPAU?$_List_node@K@2@IPBX@Z
_TEXT	SEGMENT
___n$ = 8						; size = 4
___formal$ = 12						; size = 4
?allocate@?$allocator@U?$_List_node@K@_STL@@@_STL@@QAEPAU?$_List_node@K@2@IPBX@Z PROC NEAR ; _STL::allocator<_STL::_List_node<unsigned long> >::allocate, COMDAT
; _this$ = ecx

; 355  :     return __n != 0 ? __REINTERPRET_CAST(value_type*,__sgi_alloc::allocate(__n * sizeof(value_type))) : 0;

  00000	8b 44 24 04	 mov	 eax, DWORD PTR ___n$[esp-4]
  00004	85 c0		 test	 eax, eax
  00006	74 0f		 je	 SHORT $L103330
  00008	8d 04 40	 lea	 eax, DWORD PTR [eax+eax*2]
  0000b	c1 e0 02	 shl	 eax, 2
  0000e	50		 push	 eax
  0000f	e8 00 00 00 00	 call	 ?allocate@?$__node_alloc@$00$0A@@_STL@@SAPAXI@Z ; _STL::__node_alloc<1,0>::allocate
  00014	59		 pop	 ecx
  00015	eb 02		 jmp	 SHORT $L103331
$L103330:
  00017	33 c0		 xor	 eax, eax
$L103331:

; 356  :   }

  00019	c2 08 00	 ret	 8
?allocate@?$allocator@U?$_List_node@K@_STL@@@_STL@@QAEPAU?$_List_node@K@2@IPBX@Z ENDP ; _STL::allocator<_STL::_List_node<unsigned long> >::allocate
_TEXT	ENDS
PUBLIC	?deallocate@?$allocator@U?$_List_node@K@_STL@@@_STL@@QAEXPAU?$_List_node@K@2@I@Z ; _STL::allocator<_STL::_List_node<unsigned long> >::deallocate
; Function compile flags: /Ogsy
;	COMDAT ?deallocate@?$allocator@U?$_List_node@K@_STL@@@_STL@@QAEXPAU?$_List_node@K@2@I@Z
_TEXT	SEGMENT
___p$ = 8						; size = 4
___n$ = 12						; size = 4
?deallocate@?$allocator@U?$_List_node@K@_STL@@@_STL@@QAEXPAU?$_List_node@K@2@I@Z PROC NEAR ; _STL::allocator<_STL::_List_node<unsigned long> >::deallocate, COMDAT
; _this$ = ecx

; 359  :     _STLP_ASSERT( (__p == 0) == (__n == 0) )
; 360  :       if (__p != 0) __sgi_alloc::deallocate((void*)__p, __n * sizeof(value_type));

  00000	83 7c 24 04 00	 cmp	 DWORD PTR ___p$[esp-4], 0
  00005	74 16		 je	 SHORT $L102208
  00007	8b 44 24 08	 mov	 eax, DWORD PTR ___n$[esp-4]
  0000b	8d 04 40	 lea	 eax, DWORD PTR [eax+eax*2]
  0000e	c1 e0 02	 shl	 eax, 2
  00011	50		 push	 eax
  00012	ff 74 24 08	 push	 DWORD PTR ___p$[esp]
  00016	e8 00 00 00 00	 call	 ?deallocate@?$__node_alloc@$00$0A@@_STL@@SAXPAXI@Z ; _STL::__node_alloc<1,0>::deallocate
  0001b	59		 pop	 ecx
  0001c	59		 pop	 ecx
$L102208:

; 361  :   }

  0001d	c2 08 00	 ret	 8
?deallocate@?$allocator@U?$_List_node@K@_STL@@@_STL@@QAEXPAU?$_List_node@K@2@I@Z ENDP ; _STL::allocator<_STL::_List_node<unsigned long> >::deallocate
_TEXT	ENDS
PUBLIC	??0?$_List_iterator@KU?$_Nonconst_traits@K@_STL@@@_STL@@QAE@PAU?$_List_node@K@1@@Z ; _STL::_List_iterator<unsigned long,_STL::_Nonconst_traits<unsigned long> >::_List_iterator<unsigned long,_STL::_Nonconst_traits<unsigned long> >
; Function compile flags: /Ogsy
; File c:\stlport-4.6.1\stlport\stl\_list.h
;	COMDAT ??0?$_List_iterator@KU?$_Nonconst_traits@K@_STL@@@_STL@@QAE@PAU?$_List_node@K@1@@Z
_TEXT	SEGMENT
___x$ = 8						; size = 4
??0?$_List_iterator@KU?$_Nonconst_traits@K@_STL@@@_STL@@QAE@PAU?$_List_node@K@1@@Z PROC NEAR ; _STL::_List_iterator<unsigned long,_STL::_Nonconst_traits<unsigned long> >::_List_iterator<unsigned long,_STL::_Nonconst_traits<unsigned long> >, COMDAT
; _this$ = ecx

; 126  :   _List_iterator(_Node* __x) : _List_iterator_base(__x) {}

  00000	8b c1		 mov	 eax, ecx
  00002	8b 4c 24 04	 mov	 ecx, DWORD PTR ___x$[esp-4]
  00006	89 08		 mov	 DWORD PTR [eax], ecx
  00008	c2 04 00	 ret	 4
??0?$_List_iterator@KU?$_Nonconst_traits@K@_STL@@@_STL@@QAE@PAU?$_List_node@K@1@@Z ENDP ; _STL::_List_iterator<unsigned long,_STL::_Nonconst_traits<unsigned long> >::_List_iterator<unsigned long,_STL::_Nonconst_traits<unsigned long> >
_TEXT	ENDS
PUBLIC	?clear@?$_List_base@KV?$allocator@K@_STL@@@_STL@@QAEXXZ ; _STL::_List_base<unsigned long,_STL::allocator<unsigned long> >::clear
; Function compile flags: /Ogsy
; File c:\stlport-4.6.1\stlport\stl\_list.c
;	COMDAT ?clear@?$_List_base@KV?$allocator@K@_STL@@@_STL@@QAEXXZ
_TEXT	SEGMENT
?clear@?$_List_base@KV?$allocator@K@_STL@@@_STL@@QAEXXZ PROC NEAR ; _STL::_List_base<unsigned long,_STL::allocator<unsigned long> >::clear, COMDAT
; _this$ = ecx

; 68   : {

  00000	56		 push	 esi
  00001	57		 push	 edi
  00002	8b f9		 mov	 edi, ecx

; 69   :   _List_node<_Tp>* __cur = (_List_node<_Tp>*) this->_M_node._M_data->_M_next;

  00004	8b 07		 mov	 eax, DWORD PTR [edi]
  00006	8b 30		 mov	 esi, DWORD PTR [eax]

; 70   :   while (__cur != this->_M_node._M_data) {

  00008	3b f0		 cmp	 esi, eax
  0000a	74 12		 je	 SHORT $L102419
$L102418:

; 71   :     _List_node<_Tp>* __tmp = __cur;

  0000c	8b c6		 mov	 eax, esi

; 72   :     __cur = (_List_node<_Tp>*) __cur->_M_next;

  0000e	8b 36		 mov	 esi, DWORD PTR [esi]

; 73   :     _STLP_STD::_Destroy(&__tmp->_M_data);
; 74   :     this->_M_node.deallocate(__tmp, 1);

  00010	6a 01		 push	 1
  00012	50		 push	 eax
  00013	8b cf		 mov	 ecx, edi
  00015	e8 00 00 00 00	 call	 ?deallocate@?$allocator@U?$_List_node@K@_STL@@@_STL@@QAEXPAU?$_List_node@K@2@I@Z ; _STL::allocator<_STL::_List_node<unsigned long> >::deallocate
  0001a	3b 37		 cmp	 esi, DWORD PTR [edi]
  0001c	75 ee		 jne	 SHORT $L102418
$L102419:

; 75   :   }
; 76   :   this->_M_node._M_data->_M_next = this->_M_node._M_data;

  0001e	8b 07		 mov	 eax, DWORD PTR [edi]
  00020	89 00		 mov	 DWORD PTR [eax], eax

; 77   :   this->_M_node._M_data->_M_prev = this->_M_node._M_data;

  00022	8b 3f		 mov	 edi, DWORD PTR [edi]
  00024	89 7f 04	 mov	 DWORD PTR [edi+4], edi
  00027	5f		 pop	 edi
  00028	5e		 pop	 esi

; 78   : }

  00029	c3		 ret	 0
?clear@?$_List_base@KV?$allocator@K@_STL@@@_STL@@QAEXXZ ENDP ; _STL::_List_base<unsigned long,_STL::allocator<unsigned long> >::clear
_TEXT	ENDS
PUBLIC	??$distance@PBD@_STL@@YAHABQBD0@Z		; _STL::distance<char const *>
; Function compile flags: /Ogsy
; File c:\stlport-4.6.1\stlport\stl\_iterator_base.h
;	COMDAT ??$distance@PBD@_STL@@YAHABQBD0@Z
_TEXT	SEGMENT
___first$ = 8						; size = 4
___last$ = 12						; size = 4
??$distance@PBD@_STL@@YAHABQBD0@Z PROC NEAR		; _STL::distance<char const *>, COMDAT

; 369  :   return __distance(__first, __last, _STLP_ITERATOR_CATEGORY(__first, _InputIterator));  

  00000	8b 44 24 08	 mov	 eax, DWORD PTR ___last$[esp-4]
  00004	8b 00		 mov	 eax, DWORD PTR [eax]
  00006	8b 4c 24 04	 mov	 ecx, DWORD PTR ___first$[esp-4]
  0000a	2b 01		 sub	 eax, DWORD PTR [ecx]

; 370  : }

  0000c	c3		 ret	 0
??$distance@PBD@_STL@@YAHABQBD0@Z ENDP			; _STL::distance<char const *>
_TEXT	ENDS
PUBLIC	?_M_allocate_block@?$_String_base@DV?$allocator@D@_STL@@@_STL@@QAEXI@Z ; _STL::_String_base<char,_STL::allocator<char> >::_M_allocate_block
; Function compile flags: /Ogsy
; File c:\stlport-4.6.1\stlport\stl\_string.c
;	COMDAT ?_M_allocate_block@?$_String_base@DV?$allocator@D@_STL@@@_STL@@QAEXI@Z
_TEXT	SEGMENT
___n$ = 8						; size = 4
?_M_allocate_block@?$_String_base@DV?$allocator@D@_STL@@@_STL@@QAEXI@Z PROC NEAR ; _STL::_String_base<char,_STL::allocator<char> >::_M_allocate_block, COMDAT
; _this$ = ecx

; 530  : template <class _Tp, class _Alloc> void _String_base<_Tp, _Alloc>::_M_allocate_block(size_t __n) {  

  00000	56		 push	 esi
  00001	57		 push	 edi

; 531  :   if ((__n <= (max_size()+1)) && (__n>0)){ 

  00002	8b 7c 24 0c	 mov	 edi, DWORD PTR ___n$[esp+4]
  00006	83 ff ff	 cmp	 edi, -1
  00009	8b f1		 mov	 esi, ecx
  0000b	77 17		 ja	 SHORT $L102588
  0000d	85 ff		 test	 edi, edi
  0000f	76 13		 jbe	 SHORT $L102588

; 532  :     _M_start  = _M_end_of_storage.allocate(__n); 

  00011	57		 push	 edi
  00012	e8 00 00 00 00	 call	 ?allocate@?$__node_alloc@$00$0A@@_STL@@SAPAXI@Z ; _STL::__node_alloc<1,0>::allocate
  00017	89 06		 mov	 DWORD PTR [esi], eax

; 533  :     _M_finish = _M_start; 

  00019	89 46 04	 mov	 DWORD PTR [esi+4], eax

; 534  :     _M_end_of_storage._M_data = _M_start + __n; 

  0001c	03 c7		 add	 eax, edi
  0001e	59		 pop	 ecx
  0001f	89 46 08	 mov	 DWORD PTR [esi+8], eax

; 535  :   } 
; 536  :     else 

  00022	eb 07		 jmp	 SHORT $L102589
$L102588:

; 537  :       _M_throw_length_error(); 

  00024	8b ce		 mov	 ecx, esi
  00026	e8 00 00 00 00	 call	 ?_M_throw_length_error@?$_String_base@DV?$allocator@D@_STL@@@_STL@@QBEXXZ ; _STL::_String_base<char,_STL::allocator<char> >::_M_throw_length_error
$L102589:
  0002b	5f		 pop	 edi
  0002c	5e		 pop	 esi

; 538  : } 

  0002d	c2 04 00	 ret	 4
?_M_allocate_block@?$_String_base@DV?$allocator@D@_STL@@@_STL@@QAEXI@Z ENDP ; _STL::_String_base<char,_STL::allocator<char> >::_M_allocate_block
_TEXT	ENDS
PUBLIC	?deallocate@?$allocator@D@_STL@@QAEXPADI@Z	; _STL::allocator<char>::deallocate
; Function compile flags: /Ogsy
; File c:\stlport-4.6.1\stlport\stl\_alloc.h
;	COMDAT ?deallocate@?$allocator@D@_STL@@QAEXPADI@Z
_TEXT	SEGMENT
___p$ = 8						; size = 4
___n$ = 12						; size = 4
?deallocate@?$allocator@D@_STL@@QAEXPADI@Z PROC NEAR	; _STL::allocator<char>::deallocate, COMDAT
; _this$ = ecx

; 359  :     _STLP_ASSERT( (__p == 0) == (__n == 0) )
; 360  :       if (__p != 0) __sgi_alloc::deallocate((void*)__p, __n * sizeof(value_type));

  00000	83 7c 24 04 00	 cmp	 DWORD PTR ___p$[esp-4], 0
  00005	74 0f		 je	 SHORT $L98663
  00007	ff 74 24 08	 push	 DWORD PTR ___n$[esp-4]
  0000b	ff 74 24 08	 push	 DWORD PTR ___p$[esp]
  0000f	e8 00 00 00 00	 call	 ?deallocate@?$__node_alloc@$00$0A@@_STL@@SAXPAXI@Z ; _STL::__node_alloc<1,0>::deallocate
  00014	59		 pop	 ecx
  00015	59		 pop	 ecx
$L98663:

; 361  :   }

  00016	c2 08 00	 ret	 8
?deallocate@?$allocator@D@_STL@@QAEXPADI@Z ENDP		; _STL::allocator<char>::deallocate
_TEXT	ENDS
PUBLIC	??0?$_String_base@DV?$allocator@D@_STL@@@_STL@@QAE@ABV?$allocator@D@1@@Z ; _STL::_String_base<char,_STL::allocator<char> >::_String_base<char,_STL::allocator<char> >
; Function compile flags: /Ogsy
; File c:\stlport-4.6.1\stlport\stl\_string.h
;	COMDAT ??0?$_String_base@DV?$allocator@D@_STL@@@_STL@@QAE@ABV?$allocator@D@1@@Z
_TEXT	SEGMENT
___a$ = 8						; size = 4
??0?$_String_base@DV?$allocator@D@_STL@@@_STL@@QAE@ABV?$allocator@D@1@@Z PROC NEAR ; _STL::_String_base<char,_STL::allocator<char> >::_String_base<char,_STL::allocator<char> >, COMDAT
; _this$ = ecx

; 129  :     : _M_start(0), _M_finish(0), _M_end_of_storage(__a, (_Tp*)0) {}

  00000	56		 push	 esi
  00001	33 c0		 xor	 eax, eax
  00003	8b f1		 mov	 esi, ecx
  00005	50		 push	 eax
  00006	ff 74 24 0c	 push	 DWORD PTR ___a$[esp+4]
  0000a	8d 4e 08	 lea	 ecx, DWORD PTR [esi+8]
  0000d	89 06		 mov	 DWORD PTR [esi], eax
  0000f	89 46 04	 mov	 DWORD PTR [esi+4], eax
  00012	e8 00 00 00 00	 call	 ??0?$_STLP_alloc_proxy@PADDV?$allocator@D@_STL@@@_STL@@QAE@ABV?$allocator@D@1@PAD@Z ; _STL::_STLP_alloc_proxy<char *,char,_STL::allocator<char> >::_STLP_alloc_proxy<char *,char,_STL::allocator<char> >
  00017	8b c6		 mov	 eax, esi
  00019	5e		 pop	 esi
  0001a	c2 04 00	 ret	 4
??0?$_String_base@DV?$allocator@D@_STL@@@_STL@@QAE@ABV?$allocator@D@1@@Z ENDP ; _STL::_String_base<char,_STL::allocator<char> >::_String_base<char,_STL::allocator<char> >
_TEXT	ENDS
PUBLIC	?begin@?$list@KV?$allocator@K@_STL@@@_STL@@QBE?AU?$_List_iterator@KU?$_Const_traits@K@_STL@@@2@XZ ; _STL::list<unsigned long,_STL::allocator<unsigned long> >::begin
; Function compile flags: /Ogsy
; File c:\stlport-4.6.1\stlport\stl\_list.h
;	COMDAT ?begin@?$list@KV?$allocator@K@_STL@@@_STL@@QBE?AU?$_List_iterator@KU?$_Const_traits@K@_STL@@@2@XZ
_TEXT	SEGMENT
___$ReturnUdt$ = 8					; size = 4
?begin@?$list@KV?$allocator@K@_STL@@@_STL@@QBE?AU?$_List_iterator@KU?$_Const_traits@K@_STL@@@2@XZ PROC NEAR ; _STL::list<unsigned long,_STL::allocator<unsigned long> >::begin, COMDAT
; _this$ = ecx

; 267  :   const_iterator begin() const { return const_iterator((_Node*)(this->_M_node._M_data->_M_next)); }

  00000	8b 01		 mov	 eax, DWORD PTR [ecx]
  00002	8b 08		 mov	 ecx, DWORD PTR [eax]
  00004	8b 44 24 04	 mov	 eax, DWORD PTR ___$ReturnUdt$[esp-4]
  00008	89 08		 mov	 DWORD PTR [eax], ecx
  0000a	c2 04 00	 ret	 4
?begin@?$list@KV?$allocator@K@_STL@@@_STL@@QBE?AU?$_List_iterator@KU?$_Const_traits@K@_STL@@@2@XZ ENDP ; _STL::list<unsigned long,_STL::allocator<unsigned long> >::begin
_TEXT	ENDS
PUBLIC	?end@?$list@KV?$allocator@K@_STL@@@_STL@@QBE?AU?$_List_iterator@KU?$_Const_traits@K@_STL@@@2@XZ ; _STL::list<unsigned long,_STL::allocator<unsigned long> >::end
; Function compile flags: /Ogsy
;	COMDAT ?end@?$list@KV?$allocator@K@_STL@@@_STL@@QBE?AU?$_List_iterator@KU?$_Const_traits@K@_STL@@@2@XZ
_TEXT	SEGMENT
___$ReturnUdt$ = 8					; size = 4
?end@?$list@KV?$allocator@K@_STL@@@_STL@@QBE?AU?$_List_iterator@KU?$_Const_traits@K@_STL@@@2@XZ PROC NEAR ; _STL::list<unsigned long,_STL::allocator<unsigned long> >::end, COMDAT
; _this$ = ecx

; 270  :   const_iterator end() const { return this->_M_node._M_data; }

  00000	8b 09		 mov	 ecx, DWORD PTR [ecx]
  00002	8b 44 24 04	 mov	 eax, DWORD PTR ___$ReturnUdt$[esp-4]
  00006	89 08		 mov	 DWORD PTR [eax], ecx
  00008	c2 04 00	 ret	 4
?end@?$list@KV?$allocator@K@_STL@@@_STL@@QBE?AU?$_List_iterator@KU?$_Const_traits@K@_STL@@@2@XZ ENDP ; _STL::list<unsigned long,_STL::allocator<unsigned long> >::end
_TEXT	ENDS
PUBLIC	?end@?$list@KV?$allocator@K@_STL@@@_STL@@QAE?AU?$_List_iterator@KU?$_Nonconst_traits@K@_STL@@@2@XZ ; _STL::list<unsigned long,_STL::allocator<unsigned long> >::end
; Function compile flags: /Ogsy
;	COMDAT ?end@?$list@KV?$allocator@K@_STL@@@_STL@@QAE?AU?$_List_iterator@KU?$_Nonconst_traits@K@_STL@@@2@XZ
_TEXT	SEGMENT
___$ReturnUdt$ = 8					; size = 4
?end@?$list@KV?$allocator@K@_STL@@@_STL@@QAE?AU?$_List_iterator@KU?$_Nonconst_traits@K@_STL@@@2@XZ PROC NEAR ; _STL::list<unsigned long,_STL::allocator<unsigned long> >::end, COMDAT
; _this$ = ecx

; 269  :   iterator end()             { return this->_M_node._M_data; }

  00000	8b 09		 mov	 ecx, DWORD PTR [ecx]
  00002	8b 44 24 04	 mov	 eax, DWORD PTR ___$ReturnUdt$[esp-4]
  00006	89 08		 mov	 DWORD PTR [eax], ecx
  00008	c2 04 00	 ret	 4
?end@?$list@KV?$allocator@K@_STL@@@_STL@@QAE?AU?$_List_iterator@KU?$_Nonconst_traits@K@_STL@@@2@XZ ENDP ; _STL::list<unsigned long,_STL::allocator<unsigned long> >::end
_TEXT	ENDS
PUBLIC	??0?$_List_base@KV?$allocator@K@_STL@@@_STL@@QAE@ABV?$allocator@K@1@@Z ; _STL::_List_base<unsigned long,_STL::allocator<unsigned long> >::_List_base<unsigned long,_STL::allocator<unsigned long> >
; Function compile flags: /Ogsy
;	COMDAT ??0?$_List_base@KV?$allocator@K@_STL@@@_STL@@QAE@ABV?$allocator@K@1@@Z
_TEXT	SEGMENT
$T103414 = -1						; size = 1
___a$ = 8						; size = 4
??0?$_List_base@KV?$allocator@K@_STL@@@_STL@@QAE@ABV?$allocator@K@1@@Z PROC NEAR ; _STL::_List_base<unsigned long,_STL::allocator<unsigned long> >::_List_base<unsigned long,_STL::allocator<unsigned long> >, COMDAT
; _this$ = ecx

; 182  :   _List_base(const allocator_type& __a) : _M_node(_STLP_CONVERT_ALLOCATOR(__a, _Node), (_Node*)0) {

  00000	51		 push	 ecx
  00001	56		 push	 esi
  00002	6a 00		 push	 0
  00004	8d 44 24 0b	 lea	 eax, DWORD PTR $T103414[esp+12]
  00008	50		 push	 eax
  00009	8b f1		 mov	 esi, ecx
  0000b	e8 00 00 00 00	 call	 ??0?$_STLP_alloc_proxy@PAU?$_List_node@K@_STL@@U12@V?$allocator@U?$_List_node@K@_STL@@@2@@_STL@@QAE@ABV?$allocator@U?$_List_node@K@_STL@@@1@PAU?$_List_node@K@1@@Z ; _STL::_STLP_alloc_proxy<_STL::_List_node<unsigned long> *,_STL::_List_node<unsigned long>,_STL::allocator<_STL::_List_node<unsigned long> > >::_STLP_alloc_proxy<_STL::_List_node<unsigned long> *,_STL::_List_node<unsigned long>,_STL::allocator<_STL::_List_node<unsigned long> > >

; 183  :     _Node* __n = _M_node.allocate(1);

  00010	6a 0c		 push	 12			; 0000000cH
  00012	e8 00 00 00 00	 call	 ?allocate@?$__node_alloc@$00$0A@@_STL@@SAPAXI@Z ; _STL::__node_alloc<1,0>::allocate

; 184  :     __n->_M_next = __n;

  00017	89 00		 mov	 DWORD PTR [eax], eax

; 185  :     __n->_M_prev = __n;

  00019	89 40 04	 mov	 DWORD PTR [eax+4], eax

; 186  :     _M_node._M_data = __n;

  0001c	89 06		 mov	 DWORD PTR [esi], eax
  0001e	59		 pop	 ecx

; 187  :   }

  0001f	8b c6		 mov	 eax, esi
  00021	5e		 pop	 esi
  00022	59		 pop	 ecx
  00023	c2 04 00	 ret	 4
??0?$_List_base@KV?$allocator@K@_STL@@@_STL@@QAE@ABV?$allocator@K@1@@Z ENDP ; _STL::_List_base<unsigned long,_STL::allocator<unsigned long> >::_List_base<unsigned long,_STL::allocator<unsigned long> >
_TEXT	ENDS
PUBLIC	??1?$_List_base@KV?$allocator@K@_STL@@@_STL@@QAE@XZ ; _STL::_List_base<unsigned long,_STL::allocator<unsigned long> >::~_List_base<unsigned long,_STL::allocator<unsigned long> >
; Function compile flags: /Ogsy
;	COMDAT ??1?$_List_base@KV?$allocator@K@_STL@@@_STL@@QAE@XZ
_TEXT	SEGMENT
??1?$_List_base@KV?$allocator@K@_STL@@@_STL@@QAE@XZ PROC NEAR ; _STL::_List_base<unsigned long,_STL::allocator<unsigned long> >::~_List_base<unsigned long,_STL::allocator<unsigned long> >, COMDAT
; _this$ = ecx

; 188  :   ~_List_base() {

  00000	56		 push	 esi
  00001	8b f1		 mov	 esi, ecx

; 189  :     clear();

  00003	e8 00 00 00 00	 call	 ?clear@?$_List_base@KV?$allocator@K@_STL@@@_STL@@QAEXXZ ; _STL::_List_base<unsigned long,_STL::allocator<unsigned long> >::clear

; 190  :     _M_node.deallocate(_M_node._M_data, 1);

  00008	6a 01		 push	 1
  0000a	ff 36		 push	 DWORD PTR [esi]
  0000c	8b ce		 mov	 ecx, esi
  0000e	e8 00 00 00 00	 call	 ?deallocate@?$allocator@U?$_List_node@K@_STL@@@_STL@@QAEXPAU?$_List_node@K@2@I@Z ; _STL::allocator<_STL::_List_node<unsigned long> >::deallocate
  00013	5e		 pop	 esi

; 191  :   }

  00014	c3		 ret	 0
??1?$_List_base@KV?$allocator@K@_STL@@@_STL@@QAE@XZ ENDP ; _STL::_List_base<unsigned long,_STL::allocator<unsigned long> >::~_List_base<unsigned long,_STL::allocator<unsigned long> >
_TEXT	ENDS
PUBLIC	?_M_create_node@?$list@KV?$allocator@K@_STL@@@_STL@@IAEPAU?$_List_node@K@2@ABK@Z ; _STL::list<unsigned long,_STL::allocator<unsigned long> >::_M_create_node
EXTRN	__CxxThrowException@8:NEAR
; Function compile flags: /Ogsy
;	COMDAT ?_M_create_node@?$list@KV?$allocator@K@_STL@@@_STL@@IAEPAU?$_List_node@K@2@ABK@Z
_TEXT	SEGMENT
___x$ = 8						; size = 4
?_M_create_node@?$list@KV?$allocator@K@_STL@@@_STL@@IAEPAU?$_List_node@K@2@ABK@Z PROC NEAR ; _STL::list<unsigned long,_STL::allocator<unsigned long> >::_M_create_node, COMDAT
; _this$ = ecx

; 241  :     _Node* __p = this->_M_node.allocate(1);

  00000	6a 0c		 push	 12			; 0000000cH
  00002	e8 00 00 00 00	 call	 ?allocate@?$__node_alloc@$00$0A@@_STL@@SAPAXI@Z ; _STL::__node_alloc<1,0>::allocate
  00007	59		 pop	 ecx

; 242  :     _STLP_TRY {
; 243  :       _Construct(&__p->_M_data, __x);

  00008	8d 48 08	 lea	 ecx, DWORD PTR [eax+8]
  0000b	85 c9		 test	 ecx, ecx
  0000d	74 08		 je	 SHORT $L103450
  0000f	8b 54 24 04	 mov	 edx, DWORD PTR ___x$[esp-4]
  00013	8b 12		 mov	 edx, DWORD PTR [edx]
  00015	89 11		 mov	 DWORD PTR [ecx], edx
$L103450:

; 244  :     }
; 245  :     _STLP_UNWIND(this->_M_node.deallocate(__p, 1));
; 246  :     return __p;
; 247  :   }

  00017	c2 04 00	 ret	 4
?_M_create_node@?$list@KV?$allocator@K@_STL@@@_STL@@IAEPAU?$_List_node@K@2@ABK@Z ENDP ; _STL::list<unsigned long,_STL::allocator<unsigned long> >::_M_create_node
_TEXT	ENDS
PUBLIC	??$_M_range_initialize@PBD@?$basic_string@DV?$char_traits@D@_STL@@V?$allocator@D@2@@_STL@@AAEXPBD0ABUforward_iterator_tag@1@@Z ; _STL::basic_string<char,_STL::char_traits<char>,_STL::allocator<char> >::_M_range_initialize<char const *>
; Function compile flags: /Ogsy
; File c:\stlport-4.6.1\stlport\stl\_string.h
;	COMDAT ??$_M_range_initialize@PBD@?$basic_string@DV?$char_traits@D@_STL@@V?$allocator@D@2@@_STL@@AAEXPBD0ABUforward_iterator_tag@1@@Z
_TEXT	SEGMENT
___f$ = 8						; size = 4
___l$ = 12						; size = 4
___formal$ = 16						; size = 4
??$_M_range_initialize@PBD@?$basic_string@DV?$char_traits@D@_STL@@V?$allocator@D@2@@_STL@@AAEXPBD0ABUforward_iterator_tag@1@@Z PROC NEAR ; _STL::basic_string<char,_STL::char_traits<char>,_STL::allocator<char> >::_M_range_initialize<char const *>, COMDAT
; _this$ = ecx

; 383  :                            const forward_iterator_tag &) {
; 384  :     difference_type __n = distance(__f, __l);
; 385  :     this->_M_allocate_block(__n + 1);

  00000	8b 44 24 08	 mov	 eax, DWORD PTR ___l$[esp-4]
  00004	2b 44 24 04	 sub	 eax, DWORD PTR ___f$[esp-4]
  00008	56		 push	 esi
  00009	40		 inc	 eax
  0000a	50		 push	 eax
  0000b	8b f1		 mov	 esi, ecx
  0000d	e8 00 00 00 00	 call	 ?_M_allocate_block@?$_String_base@DV?$allocator@D@_STL@@@_STL@@QAEXI@Z ; _STL::_String_base<char,_STL::allocator<char> >::_M_allocate_block

; 386  :     this->_M_finish = uninitialized_copy(__f, __l, this->_M_start);

  00012	ff 36		 push	 DWORD PTR [esi]
  00014	ff 74 24 10	 push	 DWORD PTR ___l$[esp+4]
  00018	ff 74 24 10	 push	 DWORD PTR ___f$[esp+8]
  0001c	e8 00 00 00 00	 call	 ?__copy_trivial@_STL@@YAPAXPBX0PAX@Z ; _STL::__copy_trivial
  00021	83 c4 0c	 add	 esp, 12			; 0000000cH
  00024	89 46 04	 mov	 DWORD PTR [esi+4], eax

; 387  :     _M_terminate_string();

  00027	c6 00 00	 mov	 BYTE PTR [eax], 0
  0002a	5e		 pop	 esi

; 388  :   }

  0002b	c2 0c 00	 ret	 12			; 0000000cH
??$_M_range_initialize@PBD@?$basic_string@DV?$char_traits@D@_STL@@V?$allocator@D@2@@_STL@@AAEXPBD0ABUforward_iterator_tag@1@@Z ENDP ; _STL::basic_string<char,_STL::char_traits<char>,_STL::allocator<char> >::_M_range_initialize<char const *>
_TEXT	ENDS
PUBLIC	?_M_deallocate_block@?$_String_base@DV?$allocator@D@_STL@@@_STL@@QAEXXZ ; _STL::_String_base<char,_STL::allocator<char> >::_M_deallocate_block
; Function compile flags: /Ogsy
;	COMDAT ?_M_deallocate_block@?$_String_base@DV?$allocator@D@_STL@@@_STL@@QAEXXZ
_TEXT	SEGMENT
?_M_deallocate_block@?$_String_base@DV?$allocator@D@_STL@@@_STL@@QAEXXZ PROC NEAR ; _STL::_String_base<char,_STL::allocator<char> >::_M_deallocate_block, COMDAT
; _this$ = ecx

; 124  :     { _M_end_of_storage.deallocate(_M_start, _M_end_of_storage._M_data - _M_start); }

  00000	8b c1		 mov	 eax, ecx
  00002	8d 48 08	 lea	 ecx, DWORD PTR [eax+8]
  00005	8b 00		 mov	 eax, DWORD PTR [eax]
  00007	8b 11		 mov	 edx, DWORD PTR [ecx]
  00009	2b d0		 sub	 edx, eax
  0000b	52		 push	 edx
  0000c	50		 push	 eax
  0000d	e8 00 00 00 00	 call	 ?deallocate@?$allocator@D@_STL@@QAEXPADI@Z ; _STL::allocator<char>::deallocate
  00012	c3		 ret	 0
?_M_deallocate_block@?$_String_base@DV?$allocator@D@_STL@@@_STL@@QAEXXZ ENDP ; _STL::_String_base<char,_STL::allocator<char> >::_M_deallocate_block
_TEXT	ENDS
PUBLIC	?write@GCSkillToTileOK1@@UBEXAAVSocketOutputStream@@@Z ; GCSkillToTileOK1::write
EXTRN	?write@ModifyInfo@@UBEXAAVSocketOutputStream@@@Z:NEAR ; ModifyInfo::write
; Function compile flags: /Ogsy
; File c:\darkeden\designed_common\project\client\packet\gpackets\gcskilltotileok1.cpp
;	COMDAT ?write@GCSkillToTileOK1@@UBEXAAVSocketOutputStream@@@Z
_TEXT	SEGMENT
$T103499 = -4						; size = 2
$T103578 = 8						; size = 4
$T103503 = 8						; size = 2
$T103515 = 8						; size = 2
_oStream$ = 8						; size = 4
$T103527 = 11						; size = 1
$T103523 = 11						; size = 1
$T103519 = 11						; size = 1
$T103511 = 11						; size = 1
$T103507 = 11						; size = 1
?write@GCSkillToTileOK1@@UBEXAAVSocketOutputStream@@@Z PROC NEAR ; GCSkillToTileOK1::write, COMDAT
; _this$ = ecx

; 84   : {

  00000	55		 push	 ebp
  00001	8b ec		 mov	 ebp, esp
  00003	51		 push	 ecx
  00004	53		 push	 ebx

; 85   : 	__BEGIN_TRY
; 86   : 		
; 87   : 	//      .
; 88   : 	oStream.write( m_SkillType );

  00005	8b 5d 08	 mov	 ebx, DWORD PTR _oStream$[ebp]
  00008	56		 push	 esi
  00009	8b f1		 mov	 esi, ecx
  0000b	33 c0		 xor	 eax, eax
  0000d	66 8b 46 14	 mov	 ax, WORD PTR [esi+20]
  00011	57		 push	 edi
  00012	6a 02		 push	 2
  00014	8b cb		 mov	 ecx, ebx
  00016	89 45 fc	 mov	 DWORD PTR $T103499[ebp], eax
  00019	8d 45 fc	 lea	 eax, DWORD PTR $T103499[ebp]
  0001c	50		 push	 eax
  0001d	e8 00 00 00 00	 call	 ?write@SocketOutputStream@@QAEIPBDI@Z ; SocketOutputStream::write

; 89   : 	oStream.write( m_CEffectID );

  00022	33 c0		 xor	 eax, eax
  00024	66 8b 46 16	 mov	 ax, WORD PTR [esi+22]
  00028	6a 02		 push	 2
  0002a	8b cb		 mov	 ecx, ebx
  0002c	89 45 08	 mov	 DWORD PTR $T103503[ebp], eax
  0002f	8d 45 08	 lea	 eax, DWORD PTR $T103503[ebp]
  00032	50		 push	 eax
  00033	e8 00 00 00 00	 call	 ?write@SocketOutputStream@@QAEIPBDI@Z ; SocketOutputStream::write

; 90   : 	oStream.write( m_X );

  00038	8a 46 1b	 mov	 al, BYTE PTR [esi+27]
  0003b	33 ff		 xor	 edi, edi
  0003d	88 45 0b	 mov	 BYTE PTR $T103507[ebp], al
  00040	47		 inc	 edi
  00041	57		 push	 edi
  00042	8d 45 0b	 lea	 eax, DWORD PTR $T103507[ebp]
  00045	50		 push	 eax
  00046	8b cb		 mov	 ecx, ebx
  00048	e8 00 00 00 00	 call	 ?write@SocketOutputStream@@QAEIPBDI@Z ; SocketOutputStream::write

; 91   : 	oStream.write( m_Y );

  0004d	8a 46 1c	 mov	 al, BYTE PTR [esi+28]
  00050	88 45 0b	 mov	 BYTE PTR $T103511[ebp], al
  00053	57		 push	 edi
  00054	8d 45 0b	 lea	 eax, DWORD PTR $T103511[ebp]
  00057	50		 push	 eax
  00058	8b cb		 mov	 ecx, ebx
  0005a	e8 00 00 00 00	 call	 ?write@SocketOutputStream@@QAEIPBDI@Z ; SocketOutputStream::write

; 92   : 	oStream.write( m_Duration );

  0005f	33 c0		 xor	 eax, eax
  00061	66 8b 46 18	 mov	 ax, WORD PTR [esi+24]
  00065	6a 02		 push	 2
  00067	8b cb		 mov	 ecx, ebx
  00069	89 45 08	 mov	 DWORD PTR $T103515[ebp], eax
  0006c	8d 45 08	 lea	 eax, DWORD PTR $T103515[ebp]
  0006f	50		 push	 eax
  00070	e8 00 00 00 00	 call	 ?write@SocketOutputStream@@QAEIPBDI@Z ; SocketOutputStream::write

; 93   : 	oStream.write( m_Range);

  00075	8a 46 1a	 mov	 al, BYTE PTR [esi+26]
  00078	88 45 0b	 mov	 BYTE PTR $T103519[ebp], al
  0007b	57		 push	 edi
  0007c	8d 45 0b	 lea	 eax, DWORD PTR $T103519[ebp]
  0007f	50		 push	 eax
  00080	8b cb		 mov	 ecx, ebx
  00082	e8 00 00 00 00	 call	 ?write@SocketOutputStream@@QAEIPBDI@Z ; SocketOutputStream::write

; 94   : 	oStream.write( m_Grade );

  00087	8a 46 24	 mov	 al, BYTE PTR [esi+36]
  0008a	88 45 0b	 mov	 BYTE PTR $T103523[ebp], al
  0008d	57		 push	 edi
  0008e	8d 45 0b	 lea	 eax, DWORD PTR $T103523[ebp]
  00091	50		 push	 eax
  00092	8b cb		 mov	 ecx, ebx
  00094	e8 00 00 00 00	 call	 ?write@SocketOutputStream@@QAEIPBDI@Z ; SocketOutputStream::write

; 95   : 	
; 96   : 	oStream.write( m_CListNum );

  00099	8a 46 1d	 mov	 al, BYTE PTR [esi+29]
  0009c	88 45 0b	 mov	 BYTE PTR $T103527[ebp], al
  0009f	57		 push	 edi
  000a0	8d 45 0b	 lea	 eax, DWORD PTR $T103527[ebp]
  000a3	50		 push	 eax
  000a4	8b cb		 mov	 ecx, ebx
  000a6	e8 00 00 00 00	 call	 ?write@SocketOutputStream@@QAEIPBDI@Z ; SocketOutputStream::write

; 97   : 	for ( std::list<ObjectID_t>::const_iterator itr = m_CList.begin(); itr!= m_CList.end() ; itr++ ) {

  000ab	8b 46 20	 mov	 eax, DWORD PTR [esi+32]
  000ae	8b 38		 mov	 edi, DWORD PTR [eax]
  000b0	3b f8		 cmp	 edi, eax
  000b2	74 1a		 je	 SHORT $L102009
$L103551:

; 98   : 		oStream.write( *itr );

  000b4	8b 47 08	 mov	 eax, DWORD PTR [edi+8]
  000b7	89 45 08	 mov	 DWORD PTR $T103578[ebp], eax
  000ba	6a 04		 push	 4
  000bc	8d 45 08	 lea	 eax, DWORD PTR $T103578[ebp]
  000bf	50		 push	 eax
  000c0	8b cb		 mov	 ecx, ebx
  000c2	e8 00 00 00 00	 call	 ?write@SocketOutputStream@@QAEIPBDI@Z ; SocketOutputStream::write
  000c7	8b 3f		 mov	 edi, DWORD PTR [edi]
  000c9	3b 7e 20	 cmp	 edi, DWORD PTR [esi+32]
  000cc	75 e6		 jne	 SHORT $L103551
$L102009:

; 99   : 	}
; 100  : 
; 101  : 	ModifyInfo::write( oStream);

  000ce	53		 push	 ebx
  000cf	8b ce		 mov	 ecx, esi
  000d1	e8 00 00 00 00	 call	 ?write@ModifyInfo@@UBEXAAVSocketOutputStream@@@Z ; ModifyInfo::write
  000d6	5f		 pop	 edi
  000d7	5e		 pop	 esi
  000d8	5b		 pop	 ebx

; 102  : 	__END_CATCH
; 103  : }

  000d9	c9		 leave
  000da	c2 04 00	 ret	 4
?write@GCSkillToTileOK1@@UBEXAAVSocketOutputStream@@@Z ENDP ; GCSkillToTileOK1::write
_TEXT	ENDS
PUBLIC	??0?$list@KV?$allocator@K@_STL@@@_STL@@QAE@ABV?$allocator@K@1@@Z ; _STL::list<unsigned long,_STL::allocator<unsigned long> >::list<unsigned long,_STL::allocator<unsigned long> >
; Function compile flags: /Ogsy
; File c:\stlport-4.6.1\stlport\stl\_list.h
;	COMDAT ??0?$list@KV?$allocator@K@_STL@@@_STL@@QAE@ABV?$allocator@K@1@@Z
_TEXT	SEGMENT
___a$ = 8						; size = 4
??0?$list@KV?$allocator@K@_STL@@@_STL@@QAE@ABV?$allocator@K@1@@Z PROC NEAR ; _STL::list<unsigned long,_STL::allocator<unsigned long> >::list<unsigned long,_STL::allocator<unsigned long> >, COMDAT
; _this$ = ecx

; 264  :     _List_base<_Tp, _Alloc>(__a) {}

  00000	56		 push	 esi
  00001	ff 74 24 08	 push	 DWORD PTR ___a$[esp]
  00005	8b f1		 mov	 esi, ecx
  00007	e8 00 00 00 00	 call	 ??0?$_List_base@KV?$allocator@K@_STL@@@_STL@@QAE@ABV?$allocator@K@1@@Z ; _STL::_List_base<unsigned long,_STL::allocator<unsigned long> >::_List_base<unsigned long,_STL::allocator<unsigned long> >
  0000c	8b c6		 mov	 eax, esi
  0000e	5e		 pop	 esi
  0000f	c2 04 00	 ret	 4
??0?$list@KV?$allocator@K@_STL@@@_STL@@QAE@ABV?$allocator@K@1@@Z ENDP ; _STL::list<unsigned long,_STL::allocator<unsigned long> >::list<unsigned long,_STL::allocator<unsigned long> >
_TEXT	ENDS
PUBLIC	??1?$list@KV?$allocator@K@_STL@@@_STL@@QAE@XZ	; _STL::list<unsigned long,_STL::allocator<unsigned long> >::~list<unsigned long,_STL::allocator<unsigned long> >
; Function compile flags: /Ogsy
;	COMDAT ??1?$list@KV?$allocator@K@_STL@@@_STL@@QAE@XZ
_TEXT	SEGMENT
??1?$list@KV?$allocator@K@_STL@@@_STL@@QAE@XZ PROC NEAR	; _STL::list<unsigned long,_STL::allocator<unsigned long> >::~list<unsigned long,_STL::allocator<unsigned long> >, COMDAT
; _this$ = ecx

; 416  :   ~list() { }

  00000	e9 00 00 00 00	 jmp	 ??1?$_List_base@KV?$allocator@K@_STL@@@_STL@@QAE@XZ ; _STL::_List_base<unsigned long,_STL::allocator<unsigned long> >::~_List_base<unsigned long,_STL::allocator<unsigned long> >
??1?$list@KV?$allocator@K@_STL@@@_STL@@QAE@XZ ENDP	; _STL::list<unsigned long,_STL::allocator<unsigned long> >::~list<unsigned long,_STL::allocator<unsigned long> >
_TEXT	ENDS
PUBLIC	?insert@?$list@KV?$allocator@K@_STL@@@_STL@@QAE?AU?$_List_iterator@KU?$_Nonconst_traits@K@_STL@@@2@U32@ABK@Z ; _STL::list<unsigned long,_STL::allocator<unsigned long> >::insert
; Function compile flags: /Ogsy
;	COMDAT ?insert@?$list@KV?$allocator@K@_STL@@@_STL@@QAE?AU?$_List_iterator@KU?$_Nonconst_traits@K@_STL@@@2@U32@ABK@Z
_TEXT	SEGMENT
___$ReturnUdt$ = 8					; size = 4
___position$ = 12					; size = 4
___x$ = 16						; size = 4
?insert@?$list@KV?$allocator@K@_STL@@@_STL@@QAE?AU?$_List_iterator@KU?$_Nonconst_traits@K@_STL@@@2@U32@ABK@Z PROC NEAR ; _STL::list<unsigned long,_STL::allocator<unsigned long> >::insert, COMDAT
; _this$ = ecx

; 299  : 
; 300  :     _Node* __tmp = _M_create_node(__x);

  00000	ff 74 24 0c	 push	 DWORD PTR ___x$[esp-4]
  00004	e8 00 00 00 00	 call	 ?_M_create_node@?$list@KV?$allocator@K@_STL@@@_STL@@IAEPAU?$_List_node@K@2@ABK@Z ; _STL::list<unsigned long,_STL::allocator<unsigned long> >::_M_create_node

; 301  :     _List_node_base* __n = __position._M_node;
; 302  :     _List_node_base* __p = __n->_M_prev;

  00009	8b 4c 24 08	 mov	 ecx, DWORD PTR ___position$[esp-4]
  0000d	8b 51 04	 mov	 edx, DWORD PTR [ecx+4]

; 303  :     __tmp->_M_next = __n;

  00010	89 08		 mov	 DWORD PTR [eax], ecx

; 304  :     __tmp->_M_prev = __p;

  00012	89 50 04	 mov	 DWORD PTR [eax+4], edx

; 305  :     __p->_M_next = __tmp;

  00015	89 02		 mov	 DWORD PTR [edx], eax

; 306  :     __n->_M_prev = __tmp;

  00017	89 41 04	 mov	 DWORD PTR [ecx+4], eax

; 307  :     return __tmp;

  0001a	8b 4c 24 04	 mov	 ecx, DWORD PTR ___$ReturnUdt$[esp-4]
  0001e	89 01		 mov	 DWORD PTR [ecx], eax
  00020	8b c1		 mov	 eax, ecx

; 308  :   }

  00022	c2 0c 00	 ret	 12			; 0000000cH
?insert@?$list@KV?$allocator@K@_STL@@@_STL@@QAE?AU?$_List_iterator@KU?$_Nonconst_traits@K@_STL@@@2@U32@ABK@Z ENDP ; _STL::list<unsigned long,_STL::allocator<unsigned long> >::insert
_TEXT	ENDS
PUBLIC	??$_M_range_initialize@PBD@?$basic_string@DV?$char_traits@D@_STL@@V?$allocator@D@2@@_STL@@AAEXPBD0@Z ; _STL::basic_string<char,_STL::char_traits<char>,_STL::allocator<char> >::_M_range_initialize<char const *>
; Function compile flags: /Ogsy
; File c:\stlport-4.6.1\stlport\stl\_string.h
;	COMDAT ??$_M_range_initialize@PBD@?$basic_string@DV?$char_traits@D@_STL@@V?$allocator@D@2@@_STL@@AAEXPBD0@Z
_TEXT	SEGMENT
___f$ = 8						; size = 4
___l$ = 12						; size = 4
$T103602 = 15						; size = 1
??$_M_range_initialize@PBD@?$basic_string@DV?$char_traits@D@_STL@@V?$allocator@D@2@@_STL@@AAEXPBD0@Z PROC NEAR ; _STL::basic_string<char,_STL::char_traits<char>,_STL::allocator<char> >::_M_range_initialize<char const *>, COMDAT
; _this$ = ecx

; 390  :   template <class _InputIter> void _M_range_initialize(_InputIter __f, _InputIter __l) {

  00000	55		 push	 ebp
  00001	8b ec		 mov	 ebp, esp

; 391  :     _M_range_initialize(__f, __l, _STLP_ITERATOR_CATEGORY(__f, _InputIter));

  00003	8d 45 0f	 lea	 eax, DWORD PTR $T103602[ebp]
  00006	50		 push	 eax
  00007	ff 75 0c	 push	 DWORD PTR ___l$[ebp]
  0000a	ff 75 08	 push	 DWORD PTR ___f$[ebp]
  0000d	e8 00 00 00 00	 call	 ??$_M_range_initialize@PBD@?$basic_string@DV?$char_traits@D@_STL@@V?$allocator@D@2@@_STL@@AAEXPBD0ABUforward_iterator_tag@1@@Z ; _STL::basic_string<char,_STL::char_traits<char>,_STL::allocator<char> >::_M_range_initialize<char const *>

; 392  :   }

  00012	5d		 pop	 ebp
  00013	c2 08 00	 ret	 8
??$_M_range_initialize@PBD@?$basic_string@DV?$char_traits@D@_STL@@V?$allocator@D@2@@_STL@@AAEXPBD0@Z ENDP ; _STL::basic_string<char,_STL::char_traits<char>,_STL::allocator<char> >::_M_range_initialize<char const *>
_TEXT	ENDS
PUBLIC	??1?$_String_base@DV?$allocator@D@_STL@@@_STL@@QAE@XZ ; _STL::_String_base<char,_STL::allocator<char> >::~_String_base<char,_STL::allocator<char> >
; Function compile flags: /Ogsy
;	COMDAT ??1?$_String_base@DV?$allocator@D@_STL@@@_STL@@QAE@XZ
_TEXT	SEGMENT
??1?$_String_base@DV?$allocator@D@_STL@@@_STL@@QAE@XZ PROC NEAR ; _STL::_String_base<char,_STL::allocator<char> >::~_String_base<char,_STL::allocator<char> >, COMDAT
; _this$ = ecx

; 135  :   ~_String_base() { _M_deallocate_block(); }

  00000	e9 00 00 00 00	 jmp	 ?_M_deallocate_block@?$_String_base@DV?$allocator@D@_STL@@@_STL@@QAEXXZ ; _STL::_String_base<char,_STL::allocator<char> >::_M_deallocate_block
??1?$_String_base@DV?$allocator@D@_STL@@@_STL@@QAE@XZ ENDP ; _STL::_String_base<char,_STL::allocator<char> >::~_String_base<char,_STL::allocator<char> >
_TEXT	ENDS
PUBLIC	??0?$basic_string@DV?$char_traits@D@_STL@@V?$allocator@D@2@@_STL@@QAE@PBDABV?$allocator@D@1@@Z ; _STL::basic_string<char,_STL::char_traits<char>,_STL::allocator<char> >::basic_string<char,_STL::char_traits<char>,_STL::allocator<char> >
EXTRN	__EH_prolog:NEAR
EXTRN	__except_list:DWORD
EXTRN	___CxxFrameHandler:NEAR
;	COMDAT xdata$x
xdata$x	SEGMENT
$T103623 DD	0ffffffffH
	DD	FLAT:$L103608
$T103619 DD	019930520H
	DD	01H
	DD	FLAT:$T103623
	DD	2 DUP(00H)
	DD	2 DUP(00H)
; Function compile flags: /Ogsy
; File c:\stlport-4.6.1\stlport\stl\_string.c
xdata$x	ENDS
;	COMDAT ??0?$basic_string@DV?$char_traits@D@_STL@@V?$allocator@D@2@@_STL@@QAE@PBDABV?$allocator@D@1@@Z
_TEXT	SEGMENT
_this$ = -16						; size = 4
__$EHRec$ = -12						; size = 12
___s$ = 8						; size = 4
$T103615 = 11						; size = 1
___a$ = 12						; size = 4
??0?$basic_string@DV?$char_traits@D@_STL@@V?$allocator@D@2@@_STL@@QAE@PBDABV?$allocator@D@1@@Z PROC NEAR ; _STL::basic_string<char,_STL::char_traits<char>,_STL::allocator<char> >::basic_string<char,_STL::char_traits<char>,_STL::allocator<char> >, COMDAT
; _this$ = ecx

; 552  : { 

  00000	b8 00 00 00 00	 mov	 eax, __ehhandler$??0?$basic_string@DV?$char_traits@D@_STL@@V?$allocator@D@2@@_STL@@QAE@PBDABV?$allocator@D@1@@Z
  00005	e8 00 00 00 00	 call	 __EH_prolog
  0000a	51		 push	 ecx
  0000b	56		 push	 esi
  0000c	ff 75 0c	 push	 DWORD PTR ___a$[ebp]
  0000f	8b f1		 mov	 esi, ecx
  00011	89 75 f0	 mov	 DWORD PTR _this$[ebp], esi
  00014	e8 00 00 00 00	 call	 ??0?$_String_base@DV?$allocator@D@_STL@@@_STL@@QAE@ABV?$allocator@D@1@@Z ; _STL::_String_base<char,_STL::allocator<char> >::_String_base<char,_STL::allocator<char> >

; 553  :   _STLP_FIX_LITERAL_BUG(__s) 
; 554  :     _M_range_initialize(__s, __s + traits_type::length(__s));  

  00019	ff 75 08	 push	 DWORD PTR ___s$[ebp]
  0001c	83 65 fc 00	 and	 DWORD PTR __$EHRec$[ebp+8], 0
  00020	e8 00 00 00 00	 call	 _strlen
  00025	03 45 08	 add	 eax, DWORD PTR ___s$[ebp]
  00028	59		 pop	 ecx
  00029	8d 4d 0b	 lea	 ecx, DWORD PTR $T103615[ebp]
  0002c	51		 push	 ecx
  0002d	50		 push	 eax
  0002e	ff 75 08	 push	 DWORD PTR ___s$[ebp]
  00031	8b ce		 mov	 ecx, esi
  00033	e8 00 00 00 00	 call	 ??$_M_range_initialize@PBD@?$basic_string@DV?$char_traits@D@_STL@@V?$allocator@D@2@@_STL@@AAEXPBD0ABUforward_iterator_tag@1@@Z ; _STL::basic_string<char,_STL::char_traits<char>,_STL::allocator<char> >::_M_range_initialize<char const *>

; 555  : } 

  00038	8b 4d f4	 mov	 ecx, DWORD PTR __$EHRec$[ebp]
  0003b	8b c6		 mov	 eax, esi
  0003d	5e		 pop	 esi
  0003e	64 89 0d 00 00
	00 00		 mov	 DWORD PTR fs:__except_list, ecx
  00045	c9		 leave
  00046	c2 08 00	 ret	 8
_TEXT	ENDS
;	COMDAT text$x
text$x	SEGMENT
$L103608:
  00000	8b 4d f0	 mov	 ecx, DWORD PTR _this$[ebp]
  00003	e9 00 00 00 00	 jmp	 ??1?$_String_base@DV?$allocator@D@_STL@@@_STL@@QAE@XZ ; _STL::_String_base<char,_STL::allocator<char> >::~_String_base<char,_STL::allocator<char> >
__ehhandler$??0?$basic_string@DV?$char_traits@D@_STL@@V?$allocator@D@2@@_STL@@QAE@PBDABV?$allocator@D@1@@Z:
  00008	b8 00 00 00 00	 mov	 eax, OFFSET FLAT:$T103619
  0000d	e9 00 00 00 00	 jmp	 ___CxxFrameHandler
text$x	ENDS
??0?$basic_string@DV?$char_traits@D@_STL@@V?$allocator@D@2@@_STL@@QAE@PBDABV?$allocator@D@1@@Z ENDP ; _STL::basic_string<char,_STL::char_traits<char>,_STL::allocator<char> >::basic_string<char,_STL::char_traits<char>,_STL::allocator<char> >
PUBLIC	??0GCSkillToTileOK1@@QAE@XZ			; GCSkillToTileOK1::GCSkillToTileOK1
PUBLIC	?read@GCSkillToTileOK1@@UAEXAAVSocketInputStream@@@Z ; GCSkillToTileOK1::read
PUBLIC	?getPacketID@GCSkillToTileOK1@@UBEGXZ		; GCSkillToTileOK1::getPacketID
PUBLIC	?getPacketSize@GCSkillToTileOK1@@UBEIXZ		; GCSkillToTileOK1::getPacketSize
PUBLIC	?read@Packet@@UAEXPAVSocket@@@Z			; Packet::read
PUBLIC	?write@Packet@@UBEXPAVSocket@@@Z		; Packet::write
PUBLIC	??_R4GCSkillToTileOK1@@6B@			; GCSkillToTileOK1::`RTTI Complete Object Locator'
PUBLIC	??_R0?AVGCSkillToTileOK1@@@8			; GCSkillToTileOK1 `RTTI Type Descriptor'
PUBLIC	??_R3GCSkillToTileOK1@@8			; GCSkillToTileOK1::`RTTI Class Hierarchy Descriptor'
PUBLIC	??_R2GCSkillToTileOK1@@8			; GCSkillToTileOK1::`RTTI Base Class Array'
PUBLIC	??_R1A@?0A@A@GCSkillToTileOK1@@8		; GCSkillToTileOK1::`RTTI Base Class Descriptor at (0,-1,0,0)'
PUBLIC	??_R1A@?0A@A@ModifyInfo@@8			; ModifyInfo::`RTTI Base Class Descriptor at (0,-1,0,0)'
PUBLIC	??_R0?AVModifyInfo@@@8				; ModifyInfo `RTTI Type Descriptor'
PUBLIC	??_R1A@?0A@A@Packet@@8				; Packet::`RTTI Base Class Descriptor at (0,-1,0,0)'
PUBLIC	??_R0?AVPacket@@@8				; Packet `RTTI Type Descriptor'
PUBLIC	??_7GCSkillToTileOK1@@6B@			; GCSkillToTileOK1::`vftable'
PUBLIC	??_GGCSkillToTileOK1@@UAEPAXI@Z			; GCSkillToTileOK1::`scalar deleting destructor'
EXTRN	??_7type_info@@6B@:QWORD			; type_info::`vftable'
EXTRN	??0ModifyInfo@@QAE@XZ:NEAR			; ModifyInfo::ModifyInfo
EXTRN	??_EGCSkillToTileOK1@@UAEPAXI@Z:NEAR		; GCSkillToTileOK1::`vector deleting destructor'
;	COMDAT ??_7GCSkillToTileOK1@@6B@
; File c:\stlport-4.6.1\stlport\stl\_alloc.h
CONST	SEGMENT
??_7GCSkillToTileOK1@@6B@ DD FLAT:??_R4GCSkillToTileOK1@@6B@ ; GCSkillToTileOK1::`vftable'
	DD	FLAT:??_EGCSkillToTileOK1@@UAEPAXI@Z
	DD	FLAT:?read@Packet@@UAEXPAVSocket@@@Z
	DD	FLAT:?read@GCSkillToTileOK1@@UAEXAAVSocketInputStream@@@Z
	DD	FLAT:?write@Packet@@UBEXPAVSocket@@@Z
	DD	FLAT:?write@GCSkillToTileOK1@@UBEXAAVSocketOutputStream@@@Z
	DD	FLAT:?execute@GCSkillToTileOK1@@UAEXPAVPlayer@@@Z
	DD	FLAT:?getPacketID@GCSkillToTileOK1@@UBEGXZ
	DD	FLAT:?getPacketSize@GCSkillToTileOK1@@UBEIXZ
CONST	ENDS
;	COMDAT ??_R4GCSkillToTileOK1@@6B@
rdata$r	SEGMENT
??_R4GCSkillToTileOK1@@6B@ DD 00H			; GCSkillToTileOK1::`RTTI Complete Object Locator'
	DD	00H
	DD	00H
	DD	FLAT:??_R0?AVGCSkillToTileOK1@@@8
	DD	FLAT:??_R3GCSkillToTileOK1@@8
rdata$r	ENDS
;	COMDAT ??_R0?AVGCSkillToTileOK1@@@8
_DATA	SEGMENT
??_R0?AVGCSkillToTileOK1@@@8 DD FLAT:??_7type_info@@6B@	; GCSkillToTileOK1 `RTTI Type Descriptor'
	DD	00H
	DB	'.?AVGCSkillToTileOK1@@', 00H
_DATA	ENDS
;	COMDAT ??_R3GCSkillToTileOK1@@8
rdata$r	SEGMENT
??_R3GCSkillToTileOK1@@8 DD 00H				; GCSkillToTileOK1::`RTTI Class Hierarchy Descriptor'
	DD	00H
	DD	03H
	DD	FLAT:??_R2GCSkillToTileOK1@@8
rdata$r	ENDS
;	COMDAT ??_R2GCSkillToTileOK1@@8
rdata$r	SEGMENT
??_R2GCSkillToTileOK1@@8 DD FLAT:??_R1A@?0A@A@GCSkillToTileOK1@@8 ; GCSkillToTileOK1::`RTTI Base Class Array'
	DD	FLAT:??_R1A@?0A@A@ModifyInfo@@8
	DD	FLAT:??_R1A@?0A@A@Packet@@8
rdata$r	ENDS
;	COMDAT ??_R1A@?0A@A@GCSkillToTileOK1@@8
rdata$r	SEGMENT
??_R1A@?0A@A@GCSkillToTileOK1@@8 DD FLAT:??_R0?AVGCSkillToTileOK1@@@8 ; GCSkillToTileOK1::`RTTI Base Class Descriptor at (0,-1,0,0)'
	DD	02H
	DD	00H
	DD	0ffffffffH
	DD	00H
	DD	00H
rdata$r	ENDS
;	COMDAT ??_R1A@?0A@A@ModifyInfo@@8
rdata$r	SEGMENT
??_R1A@?0A@A@ModifyInfo@@8 DD FLAT:??_R0?AVModifyInfo@@@8 ; ModifyInfo::`RTTI Base Class Descriptor at (0,-1,0,0)'
	DD	01H
	DD	00H
	DD	0ffffffffH
	DD	00H
	DD	00H
rdata$r	ENDS
;	COMDAT ??_R0?AVModifyInfo@@@8
_DATA	SEGMENT
??_R0?AVModifyInfo@@@8 DD FLAT:??_7type_info@@6B@	; ModifyInfo `RTTI Type Descriptor'
	DD	00H
	DB	'.?AVModifyInfo@@', 00H
_DATA	ENDS
;	COMDAT ??_R1A@?0A@A@Packet@@8
rdata$r	SEGMENT
??_R1A@?0A@A@Packet@@8 DD FLAT:??_R0?AVPacket@@@8	; Packet::`RTTI Base Class Descriptor at (0,-1,0,0)'
	DD	00H
	DD	00H
	DD	0ffffffffH
	DD	00H
	DD	00H
rdata$r	ENDS
;	COMDAT ??_R0?AVPacket@@@8
_DATA	SEGMENT
??_R0?AVPacket@@@8 DD FLAT:??_7type_info@@6B@		; Packet `RTTI Type Descriptor'
	DD	00H
	DB	'.?AVPacket@@', 00H
; Function compile flags: /Ogsy
; File c:\darkeden\designed_common\project\client\packet\gpackets\gcskilltotileok1.cpp
_DATA	ENDS
;	COMDAT ??0GCSkillToTileOK1@@QAE@XZ
_TEXT	SEGMENT
$T103629 = -1						; size = 1
??0GCSkillToTileOK1@@QAE@XZ PROC NEAR			; GCSkillToTileOK1::GCSkillToTileOK1, COMDAT
; _this$ = ecx

; 24   : {

  00000	51		 push	 ecx
  00001	56		 push	 esi
  00002	8b f1		 mov	 esi, ecx
  00004	e8 00 00 00 00	 call	 ??0ModifyInfo@@QAE@XZ	; ModifyInfo::ModifyInfo
  00009	8d 44 24 07	 lea	 eax, DWORD PTR $T103629[esp+8]
  0000d	50		 push	 eax
  0000e	8d 4e 20	 lea	 ecx, DWORD PTR [esi+32]
  00011	c7 06 00 00 00
	00		 mov	 DWORD PTR [esi], OFFSET FLAT:??_7GCSkillToTileOK1@@6B@
  00017	e8 00 00 00 00	 call	 ??0?$list@KV?$allocator@K@_STL@@@_STL@@QAE@ABV?$allocator@K@1@@Z ; _STL::list<unsigned long,_STL::allocator<unsigned long> >::list<unsigned long,_STL::allocator<unsigned long> >

; 25   : 	__BEGIN_TRY
; 26   : 
; 27   : 	m_CListNum = 0;

  0001c	c6 46 1d 00	 mov	 BYTE PTR [esi+29], 0

; 28   : 
; 29   : 
; 30   : 	__END_CATCH
; 31   : }

  00020	8b c6		 mov	 eax, esi
  00022	5e		 pop	 esi
  00023	59		 pop	 ecx
  00024	c3		 ret	 0
??0GCSkillToTileOK1@@QAE@XZ ENDP			; GCSkillToTileOK1::GCSkillToTileOK1
; Function compile flags: /Ogsy
; File c:\darkeden\designed_common\project\client\packet\gpackets\gcskilltotileok1.h
_TEXT	ENDS
;	COMDAT ?getPacketID@GCSkillToTileOK1@@UBEGXZ
_TEXT	SEGMENT
?getPacketID@GCSkillToTileOK1@@UBEGXZ PROC NEAR		; GCSkillToTileOK1::getPacketID, COMDAT
; _this$ = ecx

; 52   : 	PacketID_t getPacketID() const throw() { return PACKET_GC_SKILL_TO_TILE_OK_1; }

  00000	66 b8 66 00	 mov	 ax, 102			; 00000066H
  00004	c3		 ret	 0
?getPacketID@GCSkillToTileOK1@@UBEGXZ ENDP		; GCSkillToTileOK1::getPacketID
; Function compile flags: /Ogsy
_TEXT	ENDS
;	COMDAT ?getPacketSize@GCSkillToTileOK1@@UBEIXZ
_TEXT	SEGMENT
?getPacketSize@GCSkillToTileOK1@@UBEIXZ PROC NEAR	; GCSkillToTileOK1::getPacketSize, COMDAT
; _this$ = ecx

; 57   : 			+ szDuration + szBYTE + szRange + szObjectID* m_CListNum + szBYTE + ModifyInfo::getPacketSize(); }

  00000	0f b6 41 0c	 movzx	 eax, BYTE PTR [ecx+12]
  00004	0f b6 51 1d	 movzx	 edx, BYTE PTR [ecx+29]
  00008	8d 04 80	 lea	 eax, DWORD PTR [eax+eax*4]
  0000b	8d 14 90	 lea	 edx, DWORD PTR [eax+edx*4]
  0000e	0f b6 41 04	 movzx	 eax, BYTE PTR [ecx+4]
  00012	8d 04 40	 lea	 eax, DWORD PTR [eax+eax*2]
  00015	8d 44 02 0d	 lea	 eax, DWORD PTR [edx+eax+13]
  00019	c3		 ret	 0
?getPacketSize@GCSkillToTileOK1@@UBEIXZ ENDP		; GCSkillToTileOK1::getPacketSize
_TEXT	ENDS
PUBLIC	??1GCSkillToTileOK1@@UAE@XZ			; GCSkillToTileOK1::~GCSkillToTileOK1
EXTRN	??1ModifyInfo@@UAE@XZ:NEAR			; ModifyInfo::~ModifyInfo
; Function compile flags: /Ogsy
; File c:\darkeden\designed_common\project\client\packet\gpackets\gcskilltotileok1.cpp
;	COMDAT ??1GCSkillToTileOK1@@UAE@XZ
_TEXT	SEGMENT
??1GCSkillToTileOK1@@UAE@XZ PROC NEAR			; GCSkillToTileOK1::~GCSkillToTileOK1, COMDAT
; _this$ = ecx

; 40   : {

  00000	56		 push	 esi
  00001	8b f1		 mov	 esi, ecx

; 41   : 	__BEGIN_TRY
; 42   : 	__END_CATCH
; 43   : }

  00003	8d 4e 20	 lea	 ecx, DWORD PTR [esi+32]
  00006	c7 06 00 00 00
	00		 mov	 DWORD PTR [esi], OFFSET FLAT:??_7GCSkillToTileOK1@@6B@
  0000c	e8 00 00 00 00	 call	 ??1?$list@KV?$allocator@K@_STL@@@_STL@@QAE@XZ ; _STL::list<unsigned long,_STL::allocator<unsigned long> >::~list<unsigned long,_STL::allocator<unsigned long> >
  00011	8b ce		 mov	 ecx, esi
  00013	5e		 pop	 esi
  00014	e9 00 00 00 00	 jmp	 ??1ModifyInfo@@UAE@XZ	; ModifyInfo::~ModifyInfo
??1GCSkillToTileOK1@@UAE@XZ ENDP			; GCSkillToTileOK1::~GCSkillToTileOK1
_TEXT	ENDS
PUBLIC	?push_back@?$list@KV?$allocator@K@_STL@@@_STL@@QAEXABK@Z ; _STL::list<unsigned long,_STL::allocator<unsigned long> >::push_back
; Function compile flags: /Ogsy
; File c:\stlport-4.6.1\stlport\stl\_list.h
;	COMDAT ?push_back@?$list@KV?$allocator@K@_STL@@@_STL@@QAEXABK@Z
_TEXT	SEGMENT
$T103653 = 8						; size = 4
___x$ = 8						; size = 4
?push_back@?$list@KV?$allocator@K@_STL@@@_STL@@QAEXABK@Z PROC NEAR ; _STL::list<unsigned long,_STL::allocator<unsigned long> >::push_back, COMDAT
; _this$ = ecx

; 345  :   void push_back(const _Tp& __x) { insert(end(), __x); }

  00000	55		 push	 ebp
  00001	8b ec		 mov	 ebp, esp
  00003	ff 75 08	 push	 DWORD PTR ___x$[ebp]
  00006	8b 11		 mov	 edx, DWORD PTR [ecx]
  00008	51		 push	 ecx
  00009	8b c4		 mov	 eax, esp
  0000b	89 10		 mov	 DWORD PTR [eax], edx
  0000d	8d 45 08	 lea	 eax, DWORD PTR $T103653[ebp]
  00010	50		 push	 eax
  00011	e8 00 00 00 00	 call	 ?insert@?$list@KV?$allocator@K@_STL@@@_STL@@QAE?AU?$_List_iterator@KU?$_Nonconst_traits@K@_STL@@@2@U32@ABK@Z ; _STL::list<unsigned long,_STL::allocator<unsigned long> >::insert
  00016	5d		 pop	 ebp
  00017	c2 04 00	 ret	 4
?push_back@?$list@KV?$allocator@K@_STL@@@_STL@@QAEXABK@Z ENDP ; _STL::list<unsigned long,_STL::allocator<unsigned long> >::push_back
_TEXT	ENDS
PUBLIC	??1?$basic_string@DV?$char_traits@D@_STL@@V?$allocator@D@2@@_STL@@QAE@XZ ; _STL::basic_string<char,_STL::char_traits<char>,_STL::allocator<char> >::~basic_string<char,_STL::char_traits<char>,_STL::allocator<char> >
; Function compile flags: /Ogsy
; File c:\stlport-4.6.1\stlport\stl\_string.h
;	COMDAT ??1?$basic_string@DV?$char_traits@D@_STL@@V?$allocator@D@2@@_STL@@QAE@XZ
_TEXT	SEGMENT
??1?$basic_string@DV?$char_traits@D@_STL@@V?$allocator@D@2@@_STL@@QAE@XZ PROC NEAR ; _STL::basic_string<char,_STL::char_traits<char>,_STL::allocator<char> >::~basic_string<char,_STL::char_traits<char>,_STL::allocator<char> >, COMDAT
; _this$ = ecx

; 305  :   ~basic_string() { _STLP_STD::_Destroy(this->_M_start, this->_M_finish + 1); }

  00000	e9 00 00 00 00	 jmp	 ?_M_deallocate_block@?$_String_base@DV?$allocator@D@_STL@@@_STL@@QAEXXZ ; _STL::_String_base<char,_STL::allocator<char> >::_M_deallocate_block
??1?$basic_string@DV?$char_traits@D@_STL@@V?$allocator@D@2@@_STL@@QAE@XZ ENDP ; _STL::basic_string<char,_STL::char_traits<char>,_STL::allocator<char> >::~basic_string<char,_STL::char_traits<char>,_STL::allocator<char> >
; Function compile flags: /Ogsy
_TEXT	ENDS
;	COMDAT ??_GGCSkillToTileOK1@@UAEPAXI@Z
_TEXT	SEGMENT
___flags$ = 8						; size = 4
??_GGCSkillToTileOK1@@UAEPAXI@Z PROC NEAR		; GCSkillToTileOK1::`scalar deleting destructor', COMDAT
; _this$ = ecx
  00000	56		 push	 esi
  00001	8b f1		 mov	 esi, ecx
  00003	e8 00 00 00 00	 call	 ??1GCSkillToTileOK1@@UAE@XZ ; GCSkillToTileOK1::~GCSkillToTileOK1
  00008	f6 44 24 08 01	 test	 BYTE PTR ___flags$[esp], 1
  0000d	74 07		 je	 SHORT $L101900
  0000f	56		 push	 esi
  00010	e8 00 00 00 00	 call	 ??3@YAXPAX@Z		; operator delete
  00015	59		 pop	 ecx
$L101900:
  00016	8b c6		 mov	 eax, esi
  00018	5e		 pop	 esi
  00019	c2 04 00	 ret	 4
??_GGCSkillToTileOK1@@UAEPAXI@Z ENDP			; GCSkillToTileOK1::`scalar deleting destructor'
_TEXT	ENDS
EXTRN	?read@ModifyInfo@@UAEXAAVSocketInputStream@@@Z:NEAR ; ModifyInfo::read
; Function compile flags: /Ogsy
; File c:\darkeden\designed_common\project\client\packet\gpackets\gcskilltotileok1.cpp
;	COMDAT ?read@GCSkillToTileOK1@@UAEXAAVSocketInputStream@@@Z
_TEXT	SEGMENT
_m_Value$ = -4						; size = 4
_i$ = 8							; size = 4
_iStream$ = 8						; size = 4
?read@GCSkillToTileOK1@@UAEXAAVSocketInputStream@@@Z PROC NEAR ; GCSkillToTileOK1::read, COMDAT
; _this$ = ecx

; 51   : {

  00000	55		 push	 ebp
  00001	8b ec		 mov	 ebp, esp
  00003	51		 push	 ecx
  00004	53		 push	 ebx
  00005	56		 push	 esi
  00006	57		 push	 edi

; 52   : 	__BEGIN_TRY
; 53   : 		
; 54   : 	//      .
; 55   : 	iStream.read( m_SkillType );

  00007	8b 7d 08	 mov	 edi, DWORD PTR _iStream$[ebp]
  0000a	8b f1		 mov	 esi, ecx
  0000c	6a 02		 push	 2
  0000e	8d 46 14	 lea	 eax, DWORD PTR [esi+20]
  00011	50		 push	 eax
  00012	8b cf		 mov	 ecx, edi
  00014	e8 00 00 00 00	 call	 ?read@SocketInputStream@@QAEIPADI@Z ; SocketInputStream::read

; 56   : 	iStream.read( m_CEffectID );

  00019	6a 02		 push	 2
  0001b	8d 46 16	 lea	 eax, DWORD PTR [esi+22]
  0001e	50		 push	 eax
  0001f	8b cf		 mov	 ecx, edi
  00021	e8 00 00 00 00	 call	 ?read@SocketInputStream@@QAEIPADI@Z ; SocketInputStream::read

; 57   : 	iStream.read( m_X );

  00026	33 db		 xor	 ebx, ebx
  00028	43		 inc	 ebx
  00029	53		 push	 ebx
  0002a	8d 46 1b	 lea	 eax, DWORD PTR [esi+27]
  0002d	50		 push	 eax
  0002e	8b cf		 mov	 ecx, edi
  00030	e8 00 00 00 00	 call	 ?read@SocketInputStream@@QAEIPADI@Z ; SocketInputStream::read

; 58   : 	iStream.read( m_Y );

  00035	53		 push	 ebx
  00036	8d 46 1c	 lea	 eax, DWORD PTR [esi+28]
  00039	50		 push	 eax
  0003a	8b cf		 mov	 ecx, edi
  0003c	e8 00 00 00 00	 call	 ?read@SocketInputStream@@QAEIPADI@Z ; SocketInputStream::read

; 59   : 	iStream.read( m_Duration );

  00041	6a 02		 push	 2
  00043	8d 46 18	 lea	 eax, DWORD PTR [esi+24]
  00046	50		 push	 eax
  00047	8b cf		 mov	 ecx, edi
  00049	e8 00 00 00 00	 call	 ?read@SocketInputStream@@QAEIPADI@Z ; SocketInputStream::read

; 60   : 	iStream.read( m_Range);

  0004e	53		 push	 ebx
  0004f	8d 46 1a	 lea	 eax, DWORD PTR [esi+26]
  00052	50		 push	 eax
  00053	8b cf		 mov	 ecx, edi
  00055	e8 00 00 00 00	 call	 ?read@SocketInputStream@@QAEIPADI@Z ; SocketInputStream::read

; 61   : 	iStream.read( m_Grade );

  0005a	53		 push	 ebx
  0005b	8d 46 24	 lea	 eax, DWORD PTR [esi+36]
  0005e	50		 push	 eax
  0005f	8b cf		 mov	 ecx, edi
  00061	e8 00 00 00 00	 call	 ?read@SocketInputStream@@QAEIPADI@Z ; SocketInputStream::read

; 62   : 	
; 63   : 	iStream.read( m_CListNum );

  00066	6a 01		 push	 1
  00068	8d 5e 1d	 lea	 ebx, DWORD PTR [esi+29]
  0006b	53		 push	 ebx
  0006c	8b cf		 mov	 ecx, edi
  0006e	e8 00 00 00 00	 call	 ?read@SocketInputStream@@QAEIPADI@Z ; SocketInputStream::read

; 64   : 
; 65   : 	ObjectID_t m_Value;
; 66   : 	int i;
; 67   : 
; 68   : 	for( i = 0; i < m_CListNum; i++ ) {

  00073	83 65 08 00	 and	 DWORD PTR _i$[ebp], 0
  00077	80 3b 00	 cmp	 BYTE PTR [ebx], 0
  0007a	76 24		 jbe	 SHORT $L101915
$L101913:

; 69   : 		iStream.read( m_Value );

  0007c	6a 04		 push	 4
  0007e	8d 45 fc	 lea	 eax, DWORD PTR _m_Value$[ebp]
  00081	50		 push	 eax
  00082	8b cf		 mov	 ecx, edi
  00084	e8 00 00 00 00	 call	 ?read@SocketInputStream@@QAEIPADI@Z ; SocketInputStream::read

; 70   : 		m_CList.push_back( m_Value );

  00089	8d 45 fc	 lea	 eax, DWORD PTR _m_Value$[ebp]
  0008c	50		 push	 eax
  0008d	8d 4e 20	 lea	 ecx, DWORD PTR [esi+32]
  00090	e8 00 00 00 00	 call	 ?push_back@?$list@KV?$allocator@K@_STL@@@_STL@@QAEXABK@Z ; _STL::list<unsigned long,_STL::allocator<unsigned long> >::push_back
  00095	0f b6 03	 movzx	 eax, BYTE PTR [ebx]
  00098	ff 45 08	 inc	 DWORD PTR _i$[ebp]
  0009b	39 45 08	 cmp	 DWORD PTR _i$[ebp], eax
  0009e	7c dc		 jl	 SHORT $L101913
$L101915:

; 71   : 	}
; 72   : 
; 73   : 	ModifyInfo::read( iStream);

  000a0	57		 push	 edi
  000a1	8b ce		 mov	 ecx, esi
  000a3	e8 00 00 00 00	 call	 ?read@ModifyInfo@@UAEXAAVSocketInputStream@@@Z ; ModifyInfo::read
  000a8	5f		 pop	 edi
  000a9	5e		 pop	 esi
  000aa	5b		 pop	 ebx

; 74   : 
; 75   : 	__END_CATCH
; 76   : }

  000ab	c9		 leave
  000ac	c2 04 00	 ret	 4
?read@GCSkillToTileOK1@@UAEXAAVSocketInputStream@@@Z ENDP ; GCSkillToTileOK1::read
_TEXT	ENDS
PUBLIC	?addCListElement@GCSkillToTileOK1@@QAEXK@Z	; GCSkillToTileOK1::addCListElement
; Function compile flags: /Ogsy
;	COMDAT ?addCListElement@GCSkillToTileOK1@@QAEXK@Z
_TEXT	SEGMENT
_ObjectID$ = 8						; size = 4
?addCListElement@GCSkillToTileOK1@@QAEXK@Z PROC NEAR	; GCSkillToTileOK1::addCListElement, COMDAT
; _this$ = ecx

; 114  : {

  00000	56		 push	 esi
  00001	8b f1		 mov	 esi, ecx

; 115  : 	__BEGIN_TRY
; 116  : 
; 117  : 	// Creature ID .
; 118  : 	m_CList.push_back( ObjectID );

  00003	8d 44 24 08	 lea	 eax, DWORD PTR _ObjectID$[esp]
  00007	50		 push	 eax
  00008	8d 4e 20	 lea	 ecx, DWORD PTR [esi+32]
  0000b	e8 00 00 00 00	 call	 ?push_back@?$list@KV?$allocator@K@_STL@@@_STL@@QAEXABK@Z ; _STL::list<unsigned long,_STL::allocator<unsigned long> >::push_back

; 119  : 
; 120  : 	//  ID count .
; 121  : 	m_CListNum++;

  00010	fe 46 1d	 inc	 BYTE PTR [esi+29]
  00013	5e		 pop	 esi

; 122  : 
; 123  : 	__END_CATCH
; 124  : 
; 125  : }

  00014	c2 04 00	 ret	 4
?addCListElement@GCSkillToTileOK1@@QAEXK@Z ENDP		; GCSkillToTileOK1::addCListElement
_TEXT	ENDS
PUBLIC	__TI3?AVUnsupportedError@@
PUBLIC	__CTA3?AVUnsupportedError@@
PUBLIC	__CT??_R0?AVUnsupportedError@@@8??0UnsupportedError@@QAE@ABV0@@Z20
PUBLIC	__CT??_R0?AVError@@@8??0Error@@QAE@ABV0@@Z20
PUBLIC	__CT??_R0?AVThrowable@@@8??0Throwable@@QAE@ABV0@@Z20
PUBLIC	??0Error@@QAE@ABV0@@Z				; Error::Error
PUBLIC	??0UnsupportedError@@QAE@XZ			; UnsupportedError::UnsupportedError
PUBLIC	??1UnsupportedError@@UAE@XZ			; UnsupportedError::~UnsupportedError
PUBLIC	??0UnsupportedError@@QAE@ABV0@@Z		; UnsupportedError::UnsupportedError
PUBLIC	??_R0?AVError@@@8				; Error `RTTI Type Descriptor'
PUBLIC	??_R0?AVThrowable@@@8				; Throwable `RTTI Type Descriptor'
PUBLIC	??0Throwable@@QAE@ABV0@@Z			; Throwable::Throwable
PUBLIC	??_R0?AVUnsupportedError@@@8			; UnsupportedError `RTTI Type Descriptor'
;	COMDAT __TI3?AVUnsupportedError@@
; File c:\darkeden\designed_common\project\client\packet\packet.h
xdata$x	SEGMENT
__TI3?AVUnsupportedError@@ DD 00H
	DD	FLAT:??1UnsupportedError@@UAE@XZ
	DD	00H
	DD	FLAT:__CTA3?AVUnsupportedError@@
xdata$x	ENDS
;	COMDAT __CTA3?AVUnsupportedError@@
xdata$x	SEGMENT
__CTA3?AVUnsupportedError@@ DD 03H
	DD	FLAT:__CT??_R0?AVUnsupportedError@@@8??0UnsupportedError@@QAE@ABV0@@Z20
	DD	FLAT:__CT??_R0?AVError@@@8??0Error@@QAE@ABV0@@Z20
	DD	FLAT:__CT??_R0?AVThrowable@@@8??0Throwable@@QAE@ABV0@@Z20
xdata$x	ENDS
;	COMDAT __CT??_R0?AVUnsupportedError@@@8??0UnsupportedError@@QAE@ABV0@@Z20
xdata$x	SEGMENT
__CT??_R0?AVUnsupportedError@@@8??0UnsupportedError@@QAE@ABV0@@Z20 DD 00H
	DD	FLAT:??_R0?AVUnsupportedError@@@8
	DD	00H
	DD	0ffffffffH
	ORG $+4
	DD	014H
	DD	FLAT:??0UnsupportedError@@QAE@ABV0@@Z
xdata$x	ENDS
;	COMDAT ??_R0?AVUnsupportedError@@@8
_DATA	SEGMENT
??_R0?AVUnsupportedError@@@8 DD FLAT:??_7type_info@@6B@	; UnsupportedError `RTTI Type Descriptor'
	DD	00H
	DB	'.?AVUnsupportedError@@', 00H
	ORG $-31
	DD	FLAT:??_7type_info@@6B@
	DD	00H
	DB	'.?AVUnsupportedError@@', 00H
_DATA	ENDS
;	COMDAT __CT??_R0?AVError@@@8??0Error@@QAE@ABV0@@Z20
xdata$x	SEGMENT
__CT??_R0?AVError@@@8??0Error@@QAE@ABV0@@Z20 DD 00H
	DD	FLAT:??_R0?AVError@@@8
	DD	00H
	DD	0ffffffffH
	ORG $+4
	DD	014H
	DD	FLAT:??0Error@@QAE@ABV0@@Z
xdata$x	ENDS
;	COMDAT ??_R0?AVError@@@8
_DATA	SEGMENT
??_R0?AVError@@@8 DD FLAT:??_7type_info@@6B@		; Error `RTTI Type Descriptor'
	DD	00H
	DB	'.?AVError@@', 00H
	ORG $-20
	DD	FLAT:??_7type_info@@6B@
	DD	00H
	DB	'.?AVError@@', 00H
_DATA	ENDS
;	COMDAT __CT??_R0?AVThrowable@@@8??0Throwable@@QAE@ABV0@@Z20
xdata$x	SEGMENT
__CT??_R0?AVThrowable@@@8??0Throwable@@QAE@ABV0@@Z20 DD 00H
	DD	FLAT:??_R0?AVThrowable@@@8
	DD	00H
	DD	0ffffffffH
	ORG $+4
	DD	014H
	DD	FLAT:??0Throwable@@QAE@ABV0@@Z
xdata$x	ENDS
;	COMDAT ??_R0?AVThrowable@@@8
_DATA	SEGMENT
??_R0?AVThrowable@@@8 DD FLAT:??_7type_info@@6B@	; Throwable `RTTI Type Descriptor'
	DD	00H
	DB	'.?AVThrowable@@', 00H
	ORG $-24
	DD	FLAT:??_7type_info@@6B@
	DD	00H
	DB	'.?AVThrowable@@', 00H
; Function compile flags: /Ogsy
_DATA	ENDS
;	COMDAT ?read@Packet@@UAEXPAVSocket@@@Z
_TEXT	SEGMENT
$T103732 = -20						; size = 20
_pSocket$ = 8						; size = 4
?read@Packet@@UAEXPAVSocket@@@Z PROC NEAR		; Packet::read, COMDAT
; _this$ = ecx

; 732  : 	virtual void read (Socket* pSocket) throw (ProtocolException, Error) { throw UnsupportedError(); }	

  00000	55		 push	 ebp
  00001	8b ec		 mov	 ebp, esp
  00003	83 ec 14	 sub	 esp, 20			; 00000014H
  00006	8d 4d ec	 lea	 ecx, DWORD PTR $T103732[ebp]
  00009	e8 00 00 00 00	 call	 ??0UnsupportedError@@QAE@XZ ; UnsupportedError::UnsupportedError
  0000e	68 00 00 00 00	 push	 OFFSET FLAT:__TI3?AVUnsupportedError@@
  00013	8d 45 ec	 lea	 eax, DWORD PTR $T103732[ebp]
  00016	50		 push	 eax
  00017	e8 00 00 00 00	 call	 __CxxThrowException@8
$L103734:
$L103733:
  0001c	cc		 int	 3
?read@Packet@@UAEXPAVSocket@@@Z ENDP			; Packet::read
_TEXT	ENDS
PUBLIC	??0Error@@QAE@XZ				; Error::Error
PUBLIC	?getName@UnsupportedError@@UBE?AV?$basic_string@DV?$char_traits@D@_STL@@V?$allocator@D@2@@_STL@@XZ ; UnsupportedError::getName
PUBLIC	??_7UnsupportedError@@6B@			; UnsupportedError::`vftable'
PUBLIC	??_GUnsupportedError@@UAEPAXI@Z			; UnsupportedError::`scalar deleting destructor'
PUBLIC	??_R1A@?0A@A@Error@@8				; Error::`RTTI Base Class Descriptor at (0,-1,0,0)'
PUBLIC	??_R1A@?0A@A@Throwable@@8			; Throwable::`RTTI Base Class Descriptor at (0,-1,0,0)'
PUBLIC	?toString@Throwable@@UBE?AV?$basic_string@DV?$char_traits@D@_STL@@V?$allocator@D@2@@_STL@@XZ ; Throwable::toString
PUBLIC	??_R4UnsupportedError@@6B@			; UnsupportedError::`RTTI Complete Object Locator'
PUBLIC	??_R3UnsupportedError@@8			; UnsupportedError::`RTTI Class Hierarchy Descriptor'
PUBLIC	??_R2UnsupportedError@@8			; UnsupportedError::`RTTI Base Class Array'
PUBLIC	??_R1A@?0A@A@UnsupportedError@@8		; UnsupportedError::`RTTI Base Class Descriptor at (0,-1,0,0)'
EXTRN	??_EUnsupportedError@@UAEPAXI@Z:NEAR		; UnsupportedError::`vector deleting destructor'
;	COMDAT ??_7UnsupportedError@@6B@
; File c:\darkeden\designed_common\project\client\packet\exception.h
CONST	SEGMENT
??_7UnsupportedError@@6B@ DD FLAT:??_R4UnsupportedError@@6B@ ; UnsupportedError::`vftable'
	DD	FLAT:??_EUnsupportedError@@UAEPAXI@Z
	DD	FLAT:?getName@UnsupportedError@@UBE?AV?$basic_string@DV?$char_traits@D@_STL@@V?$allocator@D@2@@_STL@@XZ
	DD	FLAT:?toString@Throwable@@UBE?AV?$basic_string@DV?$char_traits@D@_STL@@V?$allocator@D@2@@_STL@@XZ
CONST	ENDS
;	COMDAT ??_R4UnsupportedError@@6B@
rdata$r	SEGMENT
??_R4UnsupportedError@@6B@ DD 00H			; UnsupportedError::`RTTI Complete Object Locator'
	DD	00H
	DD	00H
	DD	FLAT:??_R0?AVUnsupportedError@@@8
	DD	FLAT:??_R3UnsupportedError@@8
rdata$r	ENDS
;	COMDAT ??_R3UnsupportedError@@8
rdata$r	SEGMENT
??_R3UnsupportedError@@8 DD 00H				; UnsupportedError::`RTTI Class Hierarchy Descriptor'
	DD	00H
	DD	03H
	DD	FLAT:??_R2UnsupportedError@@8
rdata$r	ENDS
;	COMDAT ??_R2UnsupportedError@@8
rdata$r	SEGMENT
??_R2UnsupportedError@@8 DD FLAT:??_R1A@?0A@A@UnsupportedError@@8 ; UnsupportedError::`RTTI Base Class Array'
	DD	FLAT:??_R1A@?0A@A@Error@@8
	DD	FLAT:??_R1A@?0A@A@Throwable@@8
rdata$r	ENDS
;	COMDAT ??_R1A@?0A@A@UnsupportedError@@8
rdata$r	SEGMENT
??_R1A@?0A@A@UnsupportedError@@8 DD FLAT:??_R0?AVUnsupportedError@@@8 ; UnsupportedError::`RTTI Base Class Descriptor at (0,-1,0,0)'
	DD	02H
	DD	00H
	DD	0ffffffffH
	DD	00H
	DD	00H
rdata$r	ENDS
;	COMDAT ??_R1A@?0A@A@Error@@8
rdata$r	SEGMENT
??_R1A@?0A@A@Error@@8 DD FLAT:??_R0?AVError@@@8		; Error::`RTTI Base Class Descriptor at (0,-1,0,0)'
	DD	01H
	DD	00H
	DD	0ffffffffH
	DD	00H
	DD	00H
rdata$r	ENDS
;	COMDAT ??_R1A@?0A@A@Throwable@@8
rdata$r	SEGMENT
??_R1A@?0A@A@Throwable@@8 DD FLAT:??_R0?AVThrowable@@@8	; Throwable::`RTTI Base Class Descriptor at (0,-1,0,0)'
	DD	00H
	DD	00H
	DD	0ffffffffH
	DD	00H
	DD	00H
; Function compile flags: /Ogsy
rdata$r	ENDS
;	COMDAT ??0UnsupportedError@@QAE@XZ
_TEXT	SEGMENT
??0UnsupportedError@@QAE@XZ PROC NEAR			; UnsupportedError::UnsupportedError, COMDAT
; _this$ = ecx

; 711  : 		UnsupportedError () throw () : Error () {}

  00000	56		 push	 esi
  00001	8b f1		 mov	 esi, ecx
  00003	e8 00 00 00 00	 call	 ??0Error@@QAE@XZ	; Error::Error
  00008	c7 06 00 00 00
	00		 mov	 DWORD PTR [esi], OFFSET FLAT:??_7UnsupportedError@@6B@
  0000e	8b c6		 mov	 eax, esi
  00010	5e		 pop	 esi
  00011	c3		 ret	 0
??0UnsupportedError@@QAE@XZ ENDP			; UnsupportedError::UnsupportedError
_TEXT	ENDS
PUBLIC	??_C@_0BB@EOCHEBED@UnsupportedError?$AA@	; `string'
;	COMDAT ??_C@_0BB@EOCHEBED@UnsupportedError?$AA@
; File c:\stlport-4.6.1\stlport\stl\_alloc.h
CONST	SEGMENT
??_C@_0BB@EOCHEBED@UnsupportedError?$AA@ DB 'UnsupportedError', 00H ; `string'
; Function compile flags: /Ogsy
; File c:\darkeden\designed_common\project\client\packet\exception.h
CONST	ENDS
;	COMDAT ?getName@UnsupportedError@@UBE?AV?$basic_string@DV?$char_traits@D@_STL@@V?$allocator@D@2@@_STL@@XZ
_TEXT	SEGMENT
___$ReturnUdt$ = 8					; size = 4
$T103740 = 11						; size = 1
?getName@UnsupportedError@@UBE?AV?$basic_string@DV?$char_traits@D@_STL@@V?$allocator@D@2@@_STL@@XZ PROC NEAR ; UnsupportedError::getName, COMDAT
; _this$ = ecx

; 713  : 		std::string getName () const throw () { return "UnsupportedError"; }

  00000	55		 push	 ebp
  00001	8b ec		 mov	 ebp, esp
  00003	8b 4d 08	 mov	 ecx, DWORD PTR ___$ReturnUdt$[ebp]
  00006	8d 45 0b	 lea	 eax, DWORD PTR $T103740[ebp]
  00009	50		 push	 eax
  0000a	68 00 00 00 00	 push	 OFFSET FLAT:??_C@_0BB@EOCHEBED@UnsupportedError?$AA@
  0000f	e8 00 00 00 00	 call	 ??0?$basic_string@DV?$char_traits@D@_STL@@V?$allocator@D@2@@_STL@@QAE@PBDABV?$allocator@D@1@@Z ; _STL::basic_string<char,_STL::char_traits<char>,_STL::allocator<char> >::basic_string<char,_STL::char_traits<char>,_STL::allocator<char> >
  00014	8b 45 08	 mov	 eax, DWORD PTR ___$ReturnUdt$[ebp]
  00017	5d		 pop	 ebp
  00018	c2 04 00	 ret	 4
?getName@UnsupportedError@@UBE?AV?$basic_string@DV?$char_traits@D@_STL@@V?$allocator@D@2@@_STL@@XZ ENDP ; UnsupportedError::getName
_TEXT	ENDS
PUBLIC	??0?$basic_string@DV?$char_traits@D@_STL@@V?$allocator@D@2@@_STL@@QAE@ABV01@@Z ; _STL::basic_string<char,_STL::char_traits<char>,_STL::allocator<char> >::basic_string<char,_STL::char_traits<char>,_STL::allocator<char> >
PUBLIC	?getStackTrace@Throwable@@QBE?AV?$basic_string@DV?$char_traits@D@_STL@@V?$allocator@D@2@@_STL@@XZ ; Throwable::getStackTrace
PUBLIC	??_C@_03MCPBMLDJ@?5?3?5?$AA@			; `string'
EXTRN	??0StringStream@@QAE@XZ:NEAR			; StringStream::StringStream
EXTRN	??1StringStream@@QAE@XZ:NEAR			; StringStream::~StringStream
EXTRN	??6StringStream@@QAEAAV0@D@Z:NEAR		; StringStream::operator<<
EXTRN	??6StringStream@@QAEAAV0@PBD@Z:NEAR		; StringStream::operator<<
EXTRN	??6StringStream@@QAEAAV0@ABV?$basic_string@DV?$char_traits@D@_STL@@V?$allocator@D@2@@_STL@@@Z:NEAR ; StringStream::operator<<
EXTRN	?toString@StringStream@@QBE?AV?$basic_string@DV?$char_traits@D@_STL@@V?$allocator@D@2@@_STL@@XZ:NEAR ; StringStream::toString
;	COMDAT ??_C@_03MCPBMLDJ@?5?3?5?$AA@
CONST	SEGMENT
??_C@_03MCPBMLDJ@?5?3?5?$AA@ DB ' : ', 00H		; `string'
; Function compile flags: /Ogsy
CONST	ENDS
;	COMDAT ?toString@Throwable@@UBE?AV?$basic_string@DV?$char_traits@D@_STL@@V?$allocator@D@2@@_STL@@XZ
_TEXT	SEGMENT
_buf$ = -44						; size = 20
$T103751 = -24						; size = 12
$T103750 = -24						; size = 12
$T103749 = -12						; size = 12
___$ReturnUdt$ = 8					; size = 4
?toString@Throwable@@UBE?AV?$basic_string@DV?$char_traits@D@_STL@@V?$allocator@D@2@@_STL@@XZ PROC NEAR ; Throwable::toString, COMDAT
; _this$ = ecx

; 79   : 	{

  00000	55		 push	 ebp
  00001	8b ec		 mov	 ebp, esp
  00003	83 ec 2c	 sub	 esp, 44			; 0000002cH
  00006	56		 push	 esi
  00007	8b f1		 mov	 esi, ecx

; 80   : 		StringStream buf;

  00009	8d 4d d4	 lea	 ecx, DWORD PTR _buf$[ebp]
  0000c	e8 00 00 00 00	 call	 ??0StringStream@@QAE@XZ	; StringStream::StringStream

; 81   : 		buf << getName() << " : " << m_Message << '\n'
; 82   : 			<< getStackTrace () ;

  00011	8d 45 e8	 lea	 eax, DWORD PTR $T103750[ebp]
  00014	50		 push	 eax
  00015	8b ce		 mov	 ecx, esi
  00017	e8 00 00 00 00	 call	 ?getStackTrace@Throwable@@QBE?AV?$basic_string@DV?$char_traits@D@_STL@@V?$allocator@D@2@@_STL@@XZ ; Throwable::getStackTrace
  0001c	50		 push	 eax
  0001d	6a 0a		 push	 10			; 0000000aH
  0001f	8d 46 04	 lea	 eax, DWORD PTR [esi+4]
  00022	50		 push	 eax
  00023	8b 06		 mov	 eax, DWORD PTR [esi]
  00025	68 00 00 00 00	 push	 OFFSET FLAT:??_C@_03MCPBMLDJ@?5?3?5?$AA@
  0002a	8d 4d f4	 lea	 ecx, DWORD PTR $T103749[ebp]
  0002d	51		 push	 ecx
  0002e	8b ce		 mov	 ecx, esi
  00030	ff 50 04	 call	 DWORD PTR [eax+4]
  00033	50		 push	 eax
  00034	8d 4d d4	 lea	 ecx, DWORD PTR _buf$[ebp]
  00037	e8 00 00 00 00	 call	 ??6StringStream@@QAEAAV0@ABV?$basic_string@DV?$char_traits@D@_STL@@V?$allocator@D@2@@_STL@@@Z ; StringStream::operator<<
  0003c	8b c8		 mov	 ecx, eax
  0003e	e8 00 00 00 00	 call	 ??6StringStream@@QAEAAV0@PBD@Z ; StringStream::operator<<
  00043	8b c8		 mov	 ecx, eax
  00045	e8 00 00 00 00	 call	 ??6StringStream@@QAEAAV0@ABV?$basic_string@DV?$char_traits@D@_STL@@V?$allocator@D@2@@_STL@@@Z ; StringStream::operator<<
  0004a	8b c8		 mov	 ecx, eax
  0004c	e8 00 00 00 00	 call	 ??6StringStream@@QAEAAV0@D@Z ; StringStream::operator<<
  00051	8b c8		 mov	 ecx, eax
  00053	e8 00 00 00 00	 call	 ??6StringStream@@QAEAAV0@ABV?$basic_string@DV?$char_traits@D@_STL@@V?$allocator@D@2@@_STL@@@Z ; StringStream::operator<<
  00058	8d 4d f4	 lea	 ecx, DWORD PTR $T103749[ebp]
  0005b	e8 00 00 00 00	 call	 ??1?$basic_string@DV?$char_traits@D@_STL@@V?$allocator@D@2@@_STL@@QAE@XZ ; _STL::basic_string<char,_STL::char_traits<char>,_STL::allocator<char> >::~basic_string<char,_STL::char_traits<char>,_STL::allocator<char> >
  00060	8d 4d e8	 lea	 ecx, DWORD PTR $T103750[ebp]
  00063	e8 00 00 00 00	 call	 ??1?$basic_string@DV?$char_traits@D@_STL@@V?$allocator@D@2@@_STL@@QAE@XZ ; _STL::basic_string<char,_STL::char_traits<char>,_STL::allocator<char> >::~basic_string<char,_STL::char_traits<char>,_STL::allocator<char> >

; 83   : 		
; 84   : 		return std::string( buf.toString() );

  00068	8d 45 e8	 lea	 eax, DWORD PTR $T103751[ebp]
  0006b	50		 push	 eax
  0006c	8d 4d d4	 lea	 ecx, DWORD PTR _buf$[ebp]
  0006f	e8 00 00 00 00	 call	 ?toString@StringStream@@QBE?AV?$basic_string@DV?$char_traits@D@_STL@@V?$allocator@D@2@@_STL@@XZ ; StringStream::toString
  00074	8b 4d 08	 mov	 ecx, DWORD PTR ___$ReturnUdt$[ebp]
  00077	50		 push	 eax
  00078	e8 00 00 00 00	 call	 ??0?$basic_string@DV?$char_traits@D@_STL@@V?$allocator@D@2@@_STL@@QAE@ABV01@@Z ; _STL::basic_string<char,_STL::char_traits<char>,_STL::allocator<char> >::basic_string<char,_STL::char_traits<char>,_STL::allocator<char> >
  0007d	8d 4d e8	 lea	 ecx, DWORD PTR $T103751[ebp]
  00080	e8 00 00 00 00	 call	 ??1?$basic_string@DV?$char_traits@D@_STL@@V?$allocator@D@2@@_STL@@QAE@XZ ; _STL::basic_string<char,_STL::char_traits<char>,_STL::allocator<char> >::~basic_string<char,_STL::char_traits<char>,_STL::allocator<char> >
  00085	8d 4d d4	 lea	 ecx, DWORD PTR _buf$[ebp]
  00088	e8 00 00 00 00	 call	 ??1StringStream@@QAE@XZ	; StringStream::~StringStream
  0008d	8b 45 08	 mov	 eax, DWORD PTR ___$ReturnUdt$[ebp]
  00090	5e		 pop	 esi

; 85   : 	}

  00091	c9		 leave
  00092	c2 04 00	 ret	 4
?toString@Throwable@@UBE?AV?$basic_string@DV?$char_traits@D@_STL@@V?$allocator@D@2@@_STL@@XZ ENDP ; Throwable::toString
_TEXT	ENDS
PUBLIC	?get_allocator@?$basic_string@DV?$char_traits@D@_STL@@V?$allocator@D@2@@_STL@@QBE?AV?$allocator@D@2@XZ ; _STL::basic_string<char,_STL::char_traits<char>,_STL::allocator<char> >::get_allocator
PUBLIC	??$_M_range_initialize@PAD@?$basic_string@DV?$char_traits@D@_STL@@V?$allocator@D@2@@_STL@@AAEXPAD0ABUforward_iterator_tag@1@@Z ; _STL::basic_string<char,_STL::char_traits<char>,_STL::allocator<char> >::_M_range_initialize<char *>
;	COMDAT xdata$x
; File c:\stlport-4.6.1\stlport\stl\_string.h
xdata$x	SEGMENT
$T103833 DD	0ffffffffH
	DD	FLAT:$L103755
$T103831 DD	019930520H
	DD	01H
	DD	FLAT:$T103833
	DD	2 DUP(00H)
	DD	2 DUP(00H)
; Function compile flags: /Ogsy
; File c:\stlport-4.6.1\stlport\stl\_string.c
xdata$x	ENDS
;	COMDAT ??0?$basic_string@DV?$char_traits@D@_STL@@V?$allocator@D@2@@_STL@@QAE@ABV01@@Z
_TEXT	SEGMENT
_this$ = -20						; size = 4
$T103826 = -13						; size = 1
__$EHRec$ = -12						; size = 12
___s$ = 8						; size = 4
$T103754 = 11						; size = 1
??0?$basic_string@DV?$char_traits@D@_STL@@V?$allocator@D@2@@_STL@@QAE@ABV01@@Z PROC NEAR ; _STL::basic_string<char,_STL::char_traits<char>,_STL::allocator<char> >::basic_string<char,_STL::char_traits<char>,_STL::allocator<char> >, COMDAT
; _this$ = ecx

; 560  : {  

  00000	b8 00 00 00 00	 mov	 eax, __ehhandler$??0?$basic_string@DV?$char_traits@D@_STL@@V?$allocator@D@2@@_STL@@QAE@ABV01@@Z
  00005	e8 00 00 00 00	 call	 __EH_prolog
  0000a	51		 push	 ecx
  0000b	51		 push	 ecx
  0000c	56		 push	 esi
  0000d	8b 75 08	 mov	 esi, DWORD PTR ___s$[ebp]
  00010	57		 push	 edi
  00011	8b f9		 mov	 edi, ecx
  00013	8d 45 0b	 lea	 eax, DWORD PTR $T103754[ebp]
  00016	50		 push	 eax
  00017	8b ce		 mov	 ecx, esi
  00019	89 7d ec	 mov	 DWORD PTR _this$[ebp], edi
  0001c	e8 00 00 00 00	 call	 ?get_allocator@?$basic_string@DV?$char_traits@D@_STL@@V?$allocator@D@2@@_STL@@QBE?AV?$allocator@D@2@XZ ; _STL::basic_string<char,_STL::char_traits<char>,_STL::allocator<char> >::get_allocator
  00021	50		 push	 eax
  00022	8b cf		 mov	 ecx, edi
  00024	e8 00 00 00 00	 call	 ??0?$_String_base@DV?$allocator@D@_STL@@@_STL@@QAE@ABV?$allocator@D@1@@Z ; _STL::_String_base<char,_STL::allocator<char> >::_String_base<char,_STL::allocator<char> >
  00029	83 65 fc 00	 and	 DWORD PTR __$EHRec$[ebp+8], 0

; 561  :   _M_range_initialize(__s._M_start, __s._M_finish);  

  0002d	8d 45 f3	 lea	 eax, DWORD PTR $T103826[ebp]
  00030	50		 push	 eax
  00031	ff 76 04	 push	 DWORD PTR [esi+4]
  00034	8b cf		 mov	 ecx, edi
  00036	ff 36		 push	 DWORD PTR [esi]
  00038	e8 00 00 00 00	 call	 ??$_M_range_initialize@PAD@?$basic_string@DV?$char_traits@D@_STL@@V?$allocator@D@2@@_STL@@AAEXPAD0ABUforward_iterator_tag@1@@Z ; _STL::basic_string<char,_STL::char_traits<char>,_STL::allocator<char> >::_M_range_initialize<char *>

; 562  : } 

  0003d	8b 4d f4	 mov	 ecx, DWORD PTR __$EHRec$[ebp]
  00040	8b c7		 mov	 eax, edi
  00042	5f		 pop	 edi
  00043	5e		 pop	 esi
  00044	64 89 0d 00 00
	00 00		 mov	 DWORD PTR fs:__except_list, ecx
  0004b	c9		 leave
  0004c	c2 04 00	 ret	 4
_TEXT	ENDS
;	COMDAT text$x
text$x	SEGMENT
$L103755:
  00000	8b 4d ec	 mov	 ecx, DWORD PTR _this$[ebp]
  00003	e9 00 00 00 00	 jmp	 ??1?$_String_base@DV?$allocator@D@_STL@@@_STL@@QAE@XZ ; _STL::_String_base<char,_STL::allocator<char> >::~_String_base<char,_STL::allocator<char> >
__ehhandler$??0?$basic_string@DV?$char_traits@D@_STL@@V?$allocator@D@2@@_STL@@QAE@ABV01@@Z:
  00008	b8 00 00 00 00	 mov	 eax, OFFSET FLAT:$T103831
  0000d	e9 00 00 00 00	 jmp	 ___CxxFrameHandler
text$x	ENDS
??0?$basic_string@DV?$char_traits@D@_STL@@V?$allocator@D@2@@_STL@@QAE@ABV01@@Z ENDP ; _STL::basic_string<char,_STL::char_traits<char>,_STL::allocator<char> >::basic_string<char,_STL::char_traits<char>,_STL::allocator<char> >
; Function compile flags: /Ogsy
; File c:\stlport-4.6.1\stlport\stl\_string.h
;	COMDAT ?get_allocator@?$basic_string@DV?$char_traits@D@_STL@@V?$allocator@D@2@@_STL@@QBE?AV?$allocator@D@2@XZ
_TEXT	SEGMENT
___$ReturnUdt$ = 8					; size = 4
?get_allocator@?$basic_string@DV?$char_traits@D@_STL@@V?$allocator@D@2@@_STL@@QBE?AV?$allocator@D@2@XZ PROC NEAR ; _STL::basic_string<char,_STL::char_traits<char>,_STL::allocator<char> >::get_allocator, COMDAT
; _this$ = ecx

; 216  :     return _STLP_CONVERT_ALLOCATOR((const allocator_type&)this->_M_end_of_storage, _CharT);

  00000	8b 44 24 04	 mov	 eax, DWORD PTR ___$ReturnUdt$[esp-4]

; 217  :   }

  00004	c2 04 00	 ret	 4
?get_allocator@?$basic_string@DV?$char_traits@D@_STL@@V?$allocator@D@2@@_STL@@QBE?AV?$allocator@D@2@XZ ENDP ; _STL::basic_string<char,_STL::char_traits<char>,_STL::allocator<char> >::get_allocator
_TEXT	ENDS
PUBLIC	??$__uninitialized_copy@PADPAD@_STL@@YAPADPAD00ABU__true_type@0@@Z ; _STL::__uninitialized_copy<char *,char *>
; Function compile flags: /Ogsy
;	COMDAT ??$_M_range_initialize@PAD@?$basic_string@DV?$char_traits@D@_STL@@V?$allocator@D@2@@_STL@@AAEXPAD0ABUforward_iterator_tag@1@@Z
_TEXT	SEGMENT
$T103890 = -1						; size = 1
___f$ = 8						; size = 4
___l$ = 12						; size = 4
___formal$ = 16						; size = 4
??$_M_range_initialize@PAD@?$basic_string@DV?$char_traits@D@_STL@@V?$allocator@D@2@@_STL@@AAEXPAD0ABUforward_iterator_tag@1@@Z PROC NEAR ; _STL::basic_string<char,_STL::char_traits<char>,_STL::allocator<char> >::_M_range_initialize<char *>, COMDAT
; _this$ = ecx

; 382  :   template <class _ForwardIter> void _M_range_initialize(_ForwardIter __f, _ForwardIter __l, 

  00000	55		 push	 ebp
  00001	8b ec		 mov	 ebp, esp
  00003	51		 push	 ecx

; 383  :                            const forward_iterator_tag &) {
; 384  :     difference_type __n = distance(__f, __l);
; 385  :     this->_M_allocate_block(__n + 1);

  00004	8b 45 0c	 mov	 eax, DWORD PTR ___l$[ebp]
  00007	2b 45 08	 sub	 eax, DWORD PTR ___f$[ebp]
  0000a	56		 push	 esi
  0000b	57		 push	 edi
  0000c	40		 inc	 eax
  0000d	50		 push	 eax
  0000e	8b f1		 mov	 esi, ecx
  00010	e8 00 00 00 00	 call	 ?_M_allocate_block@?$_String_base@DV?$allocator@D@_STL@@@_STL@@QAEXI@Z ; _STL::_String_base<char,_STL::allocator<char> >::_M_allocate_block

; 386  :     this->_M_finish = uninitialized_copy(__f, __l, this->_M_start);

  00015	8b 0e		 mov	 ecx, DWORD PTR [esi]
  00017	33 c0		 xor	 eax, eax
  00019	8d 7d ff	 lea	 edi, DWORD PTR $T103890[ebp]
  0001c	aa		 stosb
  0001d	8d 45 ff	 lea	 eax, DWORD PTR $T103890[ebp]
  00020	50		 push	 eax
  00021	51		 push	 ecx
  00022	ff 75 0c	 push	 DWORD PTR ___l$[ebp]
  00025	ff 75 08	 push	 DWORD PTR ___f$[ebp]
  00028	e8 00 00 00 00	 call	 ??$__uninitialized_copy@PADPAD@_STL@@YAPADPAD00ABU__true_type@0@@Z ; _STL::__uninitialized_copy<char *,char *>
  0002d	83 c4 10	 add	 esp, 16			; 00000010H
  00030	89 46 04	 mov	 DWORD PTR [esi+4], eax
  00033	5f		 pop	 edi

; 387  :     _M_terminate_string();

  00034	c6 00 00	 mov	 BYTE PTR [eax], 0
  00037	5e		 pop	 esi

; 388  :   }

  00038	c9		 leave
  00039	c2 0c 00	 ret	 12			; 0000000cH
??$_M_range_initialize@PAD@?$basic_string@DV?$char_traits@D@_STL@@V?$allocator@D@2@@_STL@@AAEXPAD0ABUforward_iterator_tag@1@@Z ENDP ; _STL::basic_string<char,_STL::char_traits<char>,_STL::allocator<char> >::_M_range_initialize<char *>
; Function compile flags: /Ogsy
; File c:\stlport-4.6.1\stlport\stl\_uninitialized.h
_TEXT	ENDS
;	COMDAT ??$__uninitialized_copy@PADPAD@_STL@@YAPADPAD00ABU__true_type@0@@Z
_TEXT	SEGMENT
___first$ = 8						; size = 4
___last$ = 12						; size = 4
___result$ = 16						; size = 4
___formal$ = 20						; size = 4
??$__uninitialized_copy@PADPAD@_STL@@YAPADPAD00ABU__true_type@0@@Z PROC NEAR ; _STL::__uninitialized_copy<char *,char *>, COMDAT

; 55   :   return __copy_aux(__first, __last, __result, _BothPtrType< _InputIter, _ForwardIter> :: _Ret());

  00000	ff 74 24 0c	 push	 DWORD PTR ___result$[esp-4]
  00004	ff 74 24 0c	 push	 DWORD PTR ___last$[esp]
  00008	ff 74 24 0c	 push	 DWORD PTR ___first$[esp+4]
  0000c	e8 00 00 00 00	 call	 ?__copy_trivial@_STL@@YAPAXPBX0PAX@Z ; _STL::__copy_trivial
  00011	83 c4 0c	 add	 esp, 12			; 0000000cH

; 56   : }

  00014	c3		 ret	 0
??$__uninitialized_copy@PADPAD@_STL@@YAPADPAD00ABU__true_type@0@@Z ENDP ; _STL::__uninitialized_copy<char *,char *>
_TEXT	ENDS
PUBLIC	??_C@_01CLKCMJKC@?5?$AA@			; `string'
;	COMDAT ??_C@_01CLKCMJKC@?5?$AA@
; File c:\stlport-4.6.1\stlport\stl\_list.h
CONST	SEGMENT
??_C@_01CLKCMJKC@?5?$AA@ DB ' ', 00H			; `string'
; Function compile flags: /Ogsy
; File c:\darkeden\designed_common\project\client\packet\exception.h
CONST	ENDS
;	COMDAT ?getStackTrace@Throwable@@QBE?AV?$basic_string@DV?$char_traits@D@_STL@@V?$allocator@D@2@@_STL@@XZ
_TEXT	SEGMENT
_buf$ = -36						; size = 20
$T103945 = -16						; size = 12
tv90 = -4						; size = 4
___$ReturnUdt$ = 8					; size = 4
?getStackTrace@Throwable@@QBE?AV?$basic_string@DV?$char_traits@D@_STL@@V?$allocator@D@2@@_STL@@XZ PROC NEAR ; Throwable::getStackTrace, COMDAT
; _this$ = ecx

; 56   : 	{

  00000	55		 push	 ebp
  00001	8b ec		 mov	 ebp, esp
  00003	83 ec 24	 sub	 esp, 36			; 00000024H
  00006	53		 push	 ebx
  00007	56		 push	 esi
  00008	57		 push	 edi
  00009	8b f9		 mov	 edi, ecx

; 57   : 		StringStream buf;

  0000b	8d 4d dc	 lea	 ecx, DWORD PTR _buf$[ebp]
  0000e	e8 00 00 00 00	 call	 ??0StringStream@@QAE@XZ	; StringStream::StringStream

; 58   : 		int i = 1;
; 59   : 
; 60   : 		for ( std::list<std::string>::const_iterator itr = m_Stacks.begin() ;

  00013	8b 47 10	 mov	 eax, DWORD PTR [edi+16]
  00016	8b 30		 mov	 esi, DWORD PTR [eax]
  00018	33 db		 xor	 ebx, ebx
  0001a	43		 inc	 ebx

; 61   : 			  itr != m_Stacks.end() ;
; 62   : 			  itr ++ , i ++ ) {

  0001b	3b f0		 cmp	 esi, eax
  0001d	74 36		 je	 SHORT $L88001
$L87999:

; 63   : 			for ( int j = 0 ; j < i ; j ++ )

  0001f	85 db		 test	 ebx, ebx
  00021	7e 15		 jle	 SHORT $L88005
  00023	89 5d fc	 mov	 DWORD PTR tv90[ebp], ebx
$L88003:

; 64   : 				buf << " ";

  00026	68 00 00 00 00	 push	 OFFSET FLAT:??_C@_01CLKCMJKC@?5?$AA@
  0002b	8d 4d dc	 lea	 ecx, DWORD PTR _buf$[ebp]
  0002e	e8 00 00 00 00	 call	 ??6StringStream@@QAEAAV0@PBD@Z ; StringStream::operator<<
  00033	ff 4d fc	 dec	 DWORD PTR tv90[ebp]
  00036	75 ee		 jne	 SHORT $L88003
$L88005:

; 65   : 			buf << *itr << '\n' ;

  00038	6a 0a		 push	 10			; 0000000aH
  0003a	8d 46 08	 lea	 eax, DWORD PTR [esi+8]
  0003d	50		 push	 eax
  0003e	8d 4d dc	 lea	 ecx, DWORD PTR _buf$[ebp]
  00041	e8 00 00 00 00	 call	 ??6StringStream@@QAEAAV0@ABV?$basic_string@DV?$char_traits@D@_STL@@V?$allocator@D@2@@_STL@@@Z ; StringStream::operator<<
  00046	8b c8		 mov	 ecx, eax
  00048	e8 00 00 00 00	 call	 ??6StringStream@@QAEAAV0@D@Z ; StringStream::operator<<
  0004d	8b 36		 mov	 esi, DWORD PTR [esi]
  0004f	43		 inc	 ebx
  00050	3b 77 10	 cmp	 esi, DWORD PTR [edi+16]
  00053	75 ca		 jne	 SHORT $L87999
$L88001:

; 66   : 		}
; 67   : 		
; 68   : 		return std::string( buf.toString() );

  00055	8d 45 f0	 lea	 eax, DWORD PTR $T103945[ebp]
  00058	50		 push	 eax
  00059	8d 4d dc	 lea	 ecx, DWORD PTR _buf$[ebp]
  0005c	e8 00 00 00 00	 call	 ?toString@StringStream@@QBE?AV?$basic_string@DV?$char_traits@D@_STL@@V?$allocator@D@2@@_STL@@XZ ; StringStream::toString
  00061	8b 4d 08	 mov	 ecx, DWORD PTR ___$ReturnUdt$[ebp]
  00064	50		 push	 eax
  00065	e8 00 00 00 00	 call	 ??0?$basic_string@DV?$char_traits@D@_STL@@V?$allocator@D@2@@_STL@@QAE@ABV01@@Z ; _STL::basic_string<char,_STL::char_traits<char>,_STL::allocator<char> >::basic_string<char,_STL::char_traits<char>,_STL::allocator<char> >
  0006a	8d 4d f0	 lea	 ecx, DWORD PTR $T103945[ebp]
  0006d	e8 00 00 00 00	 call	 ??1?$basic_string@DV?$char_traits@D@_STL@@V?$allocator@D@2@@_STL@@QAE@XZ ; _STL::basic_string<char,_STL::char_traits<char>,_STL::allocator<char> >::~basic_string<char,_STL::char_traits<char>,_STL::allocator<char> >
  00072	8d 4d dc	 lea	 ecx, DWORD PTR _buf$[ebp]
  00075	e8 00 00 00 00	 call	 ??1StringStream@@QAE@XZ	; StringStream::~StringStream
  0007a	8b 45 08	 mov	 eax, DWORD PTR ___$ReturnUdt$[ebp]
  0007d	5f		 pop	 edi
  0007e	5e		 pop	 esi
  0007f	5b		 pop	 ebx

; 69   : 	}

  00080	c9		 leave
  00081	c2 04 00	 ret	 4
?getStackTrace@Throwable@@QBE?AV?$basic_string@DV?$char_traits@D@_STL@@V?$allocator@D@2@@_STL@@XZ ENDP ; Throwable::getStackTrace
_TEXT	ENDS
PUBLIC	?getName@Error@@UBE?AV?$basic_string@DV?$char_traits@D@_STL@@V?$allocator@D@2@@_STL@@XZ ; Error::getName
PUBLIC	??_7Error@@6B@					; Error::`vftable'
PUBLIC	??_GError@@UAEPAXI@Z				; Error::`scalar deleting destructor'
PUBLIC	??_R4Error@@6B@					; Error::`RTTI Complete Object Locator'
PUBLIC	??_R3Error@@8					; Error::`RTTI Class Hierarchy Descriptor'
PUBLIC	??_R2Error@@8					; Error::`RTTI Base Class Array'
PUBLIC	??0Throwable@@QAE@XZ				; Throwable::Throwable
EXTRN	??_EError@@UAEPAXI@Z:NEAR			; Error::`vector deleting destructor'
;	COMDAT ??_7Error@@6B@
CONST	SEGMENT
??_7Error@@6B@ DD FLAT:??_R4Error@@6B@			; Error::`vftable'
	DD	FLAT:??_EError@@UAEPAXI@Z
	DD	FLAT:?getName@Error@@UBE?AV?$basic_string@DV?$char_traits@D@_STL@@V?$allocator@D@2@@_STL@@XZ
	DD	FLAT:?toString@Throwable@@UBE?AV?$basic_string@DV?$char_traits@D@_STL@@V?$allocator@D@2@@_STL@@XZ
CONST	ENDS
;	COMDAT ??_R4Error@@6B@
rdata$r	SEGMENT
??_R4Error@@6B@ DD 00H					; Error::`RTTI Complete Object Locator'
	DD	00H
	DD	00H
	DD	FLAT:??_R0?AVError@@@8
	DD	FLAT:??_R3Error@@8
rdata$r	ENDS
;	COMDAT ??_R3Error@@8
rdata$r	SEGMENT
??_R3Error@@8 DD 00H					; Error::`RTTI Class Hierarchy Descriptor'
	DD	00H
	DD	02H
	DD	FLAT:??_R2Error@@8
rdata$r	ENDS
;	COMDAT ??_R2Error@@8
rdata$r	SEGMENT
??_R2Error@@8 DD FLAT:??_R1A@?0A@A@Error@@8		; Error::`RTTI Base Class Array'
	DD	FLAT:??_R1A@?0A@A@Throwable@@8
; Function compile flags: /Ogsy
rdata$r	ENDS
;	COMDAT ??0Error@@QAE@XZ
_TEXT	SEGMENT
??0Error@@QAE@XZ PROC NEAR				; Error::Error, COMDAT
; _this$ = ecx

; 675  : 	Error () throw () : Throwable() {}

  00000	56		 push	 esi
  00001	8b f1		 mov	 esi, ecx
  00003	e8 00 00 00 00	 call	 ??0Throwable@@QAE@XZ	; Throwable::Throwable
  00008	c7 06 00 00 00
	00		 mov	 DWORD PTR [esi], OFFSET FLAT:??_7Error@@6B@
  0000e	8b c6		 mov	 eax, esi
  00010	5e		 pop	 esi
  00011	c3		 ret	 0
??0Error@@QAE@XZ ENDP					; Error::Error
_TEXT	ENDS
PUBLIC	??_C@_05NAOIJFC@Error?$AA@			; `string'
;	COMDAT ??_C@_05NAOIJFC@Error?$AA@
; File c:\stlport-4.6.1\stlport\stl\_alloc.h
CONST	SEGMENT
??_C@_05NAOIJFC@Error?$AA@ DB 'Error', 00H		; `string'
; Function compile flags: /Ogsy
; File c:\darkeden\designed_common\project\client\packet\exception.h
CONST	ENDS
;	COMDAT ?getName@Error@@UBE?AV?$basic_string@DV?$char_traits@D@_STL@@V?$allocator@D@2@@_STL@@XZ
_TEXT	SEGMENT
___$ReturnUdt$ = 8					; size = 4
$T104002 = 11						; size = 1
?getName@Error@@UBE?AV?$basic_string@DV?$char_traits@D@_STL@@V?$allocator@D@2@@_STL@@XZ PROC NEAR ; Error::getName, COMDAT
; _this$ = ecx

; 677  : 	std::string getName () const throw () { return "Error"; }

  00000	55		 push	 ebp
  00001	8b ec		 mov	 ebp, esp
  00003	8b 4d 08	 mov	 ecx, DWORD PTR ___$ReturnUdt$[ebp]
  00006	8d 45 0b	 lea	 eax, DWORD PTR $T104002[ebp]
  00009	50		 push	 eax
  0000a	68 00 00 00 00	 push	 OFFSET FLAT:??_C@_05NAOIJFC@Error?$AA@
  0000f	e8 00 00 00 00	 call	 ??0?$basic_string@DV?$char_traits@D@_STL@@V?$allocator@D@2@@_STL@@QAE@PBDABV?$allocator@D@1@@Z ; _STL::basic_string<char,_STL::char_traits<char>,_STL::allocator<char> >::basic_string<char,_STL::char_traits<char>,_STL::allocator<char> >
  00014	8b 45 08	 mov	 eax, DWORD PTR ___$ReturnUdt$[ebp]
  00017	5d		 pop	 ebp
  00018	c2 04 00	 ret	 4
?getName@Error@@UBE?AV?$basic_string@DV?$char_traits@D@_STL@@V?$allocator@D@2@@_STL@@XZ ENDP ; Error::getName
_TEXT	ENDS
PUBLIC	??0?$list@V?$basic_string@DV?$char_traits@D@_STL@@V?$allocator@D@2@@_STL@@V?$allocator@V?$basic_string@DV?$char_traits@D@_STL@@V?$allocator@D@2@@_STL@@@2@@_STL@@QAE@ABV?$allocator@V?$basic_string@DV?$char_traits@D@_STL@@V?$allocator@D@2@@_STL@@@1@@Z ; _STL::list<_STL::basic_string<char,_STL::char_traits<char>,_STL::allocator<char> >,_STL::allocator<_STL::basic_string<char,_STL::char_traits<char>,_STL::allocator<char> > > >::list<_STL::basic_string<char,_STL::char_traits<char>,_STL::allocator<char> >,_STL::allocator<_STL::basic_string<char,_STL::char_traits<char>,_STL::allocator<char> > > >
PUBLIC	??0?$basic_string@DV?$char_traits@D@_STL@@V?$allocator@D@2@@_STL@@QAE@XZ ; _STL::basic_string<char,_STL::char_traits<char>,_STL::allocator<char> >::basic_string<char,_STL::char_traits<char>,_STL::allocator<char> >
PUBLIC	?getName@Throwable@@UBE?AV?$basic_string@DV?$char_traits@D@_STL@@V?$allocator@D@2@@_STL@@XZ ; Throwable::getName
PUBLIC	??_R4Throwable@@6B@				; Throwable::`RTTI Complete Object Locator'
PUBLIC	??_R3Throwable@@8				; Throwable::`RTTI Class Hierarchy Descriptor'
PUBLIC	??_R2Throwable@@8				; Throwable::`RTTI Base Class Array'
PUBLIC	??_7Throwable@@6B@				; Throwable::`vftable'
PUBLIC	??_GThrowable@@UAEPAXI@Z			; Throwable::`scalar deleting destructor'
EXTRN	??_EThrowable@@UAEPAXI@Z:NEAR			; Throwable::`vector deleting destructor'
;	COMDAT ??_7Throwable@@6B@
; File c:\stlport-4.6.1\stlport\stl\_alloc.h
CONST	SEGMENT
??_7Throwable@@6B@ DD FLAT:??_R4Throwable@@6B@		; Throwable::`vftable'
	DD	FLAT:??_EThrowable@@UAEPAXI@Z
	DD	FLAT:?getName@Throwable@@UBE?AV?$basic_string@DV?$char_traits@D@_STL@@V?$allocator@D@2@@_STL@@XZ
	DD	FLAT:?toString@Throwable@@UBE?AV?$basic_string@DV?$char_traits@D@_STL@@V?$allocator@D@2@@_STL@@XZ
CONST	ENDS
;	COMDAT ??_R4Throwable@@6B@
rdata$r	SEGMENT
??_R4Throwable@@6B@ DD 00H				; Throwable::`RTTI Complete Object Locator'
	DD	00H
	DD	00H
	DD	FLAT:??_R0?AVThrowable@@@8
	DD	FLAT:??_R3Throwable@@8
rdata$r	ENDS
;	COMDAT ??_R3Throwable@@8
rdata$r	SEGMENT
??_R3Throwable@@8 DD 00H				; Throwable::`RTTI Class Hierarchy Descriptor'
	DD	00H
	DD	01H
	DD	FLAT:??_R2Throwable@@8
rdata$r	ENDS
;	COMDAT ??_R2Throwable@@8
rdata$r	SEGMENT
??_R2Throwable@@8 DD FLAT:??_R1A@?0A@A@Throwable@@8	; Throwable::`RTTI Base Class Array'
; Function compile flags: /Ogsy
; File c:\darkeden\designed_common\project\client\packet\exception.h
rdata$r	ENDS
;	COMDAT ??0Throwable@@QAE@XZ
_TEXT	SEGMENT
$T104011 = -1						; size = 1
??0Throwable@@QAE@XZ PROC NEAR				; Throwable::Throwable, COMDAT
; _this$ = ecx

; 37   : 	Throwable () throw () {}

  00000	51		 push	 ecx
  00001	56		 push	 esi
  00002	8b f1		 mov	 esi, ecx
  00004	8d 4e 04	 lea	 ecx, DWORD PTR [esi+4]
  00007	c7 06 00 00 00
	00		 mov	 DWORD PTR [esi], OFFSET FLAT:??_7Throwable@@6B@
  0000d	e8 00 00 00 00	 call	 ??0?$basic_string@DV?$char_traits@D@_STL@@V?$allocator@D@2@@_STL@@QAE@XZ ; _STL::basic_string<char,_STL::char_traits<char>,_STL::allocator<char> >::basic_string<char,_STL::char_traits<char>,_STL::allocator<char> >
  00012	8d 44 24 07	 lea	 eax, DWORD PTR $T104011[esp+8]
  00016	50		 push	 eax
  00017	8d 4e 10	 lea	 ecx, DWORD PTR [esi+16]
  0001a	e8 00 00 00 00	 call	 ??0?$list@V?$basic_string@DV?$char_traits@D@_STL@@V?$allocator@D@2@@_STL@@V?$allocator@V?$basic_string@DV?$char_traits@D@_STL@@V?$allocator@D@2@@_STL@@@2@@_STL@@QAE@ABV?$allocator@V?$basic_string@DV?$char_traits@D@_STL@@V?$allocator@D@2@@_STL@@@1@@Z ; _STL::list<_STL::basic_string<char,_STL::char_traits<char>,_STL::allocator<char> >,_STL::allocator<_STL::basic_string<char,_STL::char_traits<char>,_STL::allocator<char> > > >::list<_STL::basic_string<char,_STL::char_traits<char>,_STL::allocator<char> >,_STL::allocator<_STL::basic_string<char,_STL::char_traits<char>,_STL::allocator<char> > > >
  0001f	8b c6		 mov	 eax, esi
  00021	5e		 pop	 esi
  00022	59		 pop	 ecx
  00023	c3		 ret	 0
??0Throwable@@QAE@XZ ENDP				; Throwable::Throwable
_TEXT	ENDS
;	COMDAT xdata$x
; File c:\stlport-4.6.1\stlport\stl\_string.h
xdata$x	SEGMENT
$T104067 DD	0ffffffffH
	DD	FLAT:$L104022
$T104065 DD	019930520H
	DD	01H
	DD	FLAT:$T104067
	DD	2 DUP(00H)
	DD	2 DUP(00H)
; Function compile flags: /Ogsy
; File c:\stlport-4.6.1\stlport\stl\_string.c
xdata$x	ENDS
;	COMDAT ??0?$basic_string@DV?$char_traits@D@_STL@@V?$allocator@D@2@@_STL@@QAE@XZ
_TEXT	SEGMENT
_this$ = -20						; size = 4
$T104021 = -13						; size = 1
__$EHRec$ = -12						; size = 12
??0?$basic_string@DV?$char_traits@D@_STL@@V?$allocator@D@2@@_STL@@QAE@XZ PROC NEAR ; _STL::basic_string<char,_STL::char_traits<char>,_STL::allocator<char> >::basic_string<char,_STL::char_traits<char>,_STL::allocator<char> >, COMDAT
; _this$ = ecx

; 541  :   : _String_base<_CharT,_Alloc>(allocator_type()) {  

  00000	b8 00 00 00 00	 mov	 eax, __ehhandler$??0?$basic_string@DV?$char_traits@D@_STL@@V?$allocator@D@2@@_STL@@QAE@XZ
  00005	e8 00 00 00 00	 call	 __EH_prolog
  0000a	51		 push	 ecx
  0000b	51		 push	 ecx
  0000c	56		 push	 esi
  0000d	8d 45 f3	 lea	 eax, DWORD PTR $T104021[ebp]
  00010	8b f1		 mov	 esi, ecx
  00012	50		 push	 eax
  00013	89 75 ec	 mov	 DWORD PTR _this$[ebp], esi
  00016	e8 00 00 00 00	 call	 ??0?$_String_base@DV?$allocator@D@_STL@@@_STL@@QAE@ABV?$allocator@D@1@@Z ; _STL::_String_base<char,_STL::allocator<char> >::_String_base<char,_STL::allocator<char> >
  0001b	83 65 fc 00	 and	 DWORD PTR __$EHRec$[ebp+8], 0

; 542  :   this->_M_start = this->_M_end_of_storage.allocate(8); 

  0001f	6a 08		 push	 8
  00021	e8 00 00 00 00	 call	 ?_M_allocate@?$__node_alloc@$00$0A@@_STL@@CAPAXI@Z ; _STL::__node_alloc<1,0>::_M_allocate
  00026	59		 pop	 ecx

; 543  :   this->_M_finish = this->_M_start; 
; 544  :   this->_M_end_of_storage._M_data = this->_M_start + 8; 

  00027	8d 48 08	 lea	 ecx, DWORD PTR [eax+8]
  0002a	89 06		 mov	 DWORD PTR [esi], eax
  0002c	89 46 04	 mov	 DWORD PTR [esi+4], eax
  0002f	89 4e 08	 mov	 DWORD PTR [esi+8], ecx

; 545  :   _M_terminate_string();  
; 546  : } 

  00032	8b 4d f4	 mov	 ecx, DWORD PTR __$EHRec$[ebp]
  00035	c6 00 00	 mov	 BYTE PTR [eax], 0
  00038	8b c6		 mov	 eax, esi
  0003a	5e		 pop	 esi
  0003b	64 89 0d 00 00
	00 00		 mov	 DWORD PTR fs:__except_list, ecx
  00042	c9		 leave
  00043	c3		 ret	 0
_TEXT	ENDS
;	COMDAT text$x
text$x	SEGMENT
$L104022:
  00000	8b 4d ec	 mov	 ecx, DWORD PTR _this$[ebp]
  00003	e9 00 00 00 00	 jmp	 ??1?$_String_base@DV?$allocator@D@_STL@@@_STL@@QAE@XZ ; _STL::_String_base<char,_STL::allocator<char> >::~_String_base<char,_STL::allocator<char> >
__ehhandler$??0?$basic_string@DV?$char_traits@D@_STL@@V?$allocator@D@2@@_STL@@QAE@XZ:
  00008	b8 00 00 00 00	 mov	 eax, OFFSET FLAT:$T104065
  0000d	e9 00 00 00 00	 jmp	 ___CxxFrameHandler
text$x	ENDS
??0?$basic_string@DV?$char_traits@D@_STL@@V?$allocator@D@2@@_STL@@QAE@XZ ENDP ; _STL::basic_string<char,_STL::char_traits<char>,_STL::allocator<char> >::basic_string<char,_STL::char_traits<char>,_STL::allocator<char> >
PUBLIC	??_C@_09KCKHMJEM@Throwable?$AA@			; `string'
;	COMDAT ??_C@_09KCKHMJEM@Throwable?$AA@
; File c:\stlport-4.6.1\stlport\stl\_alloc.h
CONST	SEGMENT
??_C@_09KCKHMJEM@Throwable?$AA@ DB 'Throwable', 00H	; `string'
; Function compile flags: /Ogsy
; File c:\darkeden\designed_common\project\client\packet\exception.h
CONST	ENDS
;	COMDAT ?getName@Throwable@@UBE?AV?$basic_string@DV?$char_traits@D@_STL@@V?$allocator@D@2@@_STL@@XZ
_TEXT	SEGMENT
___$ReturnUdt$ = 8					; size = 4
$T104072 = 11						; size = 1
?getName@Throwable@@UBE?AV?$basic_string@DV?$char_traits@D@_STL@@V?$allocator@D@2@@_STL@@XZ PROC NEAR ; Throwable::getName, COMDAT
; _this$ = ecx

; 46   : 	virtual std::string getName () const throw () { return "Throwable"; }

  00000	55		 push	 ebp
  00001	8b ec		 mov	 ebp, esp
  00003	8b 4d 08	 mov	 ecx, DWORD PTR ___$ReturnUdt$[ebp]
  00006	8d 45 0b	 lea	 eax, DWORD PTR $T104072[ebp]
  00009	50		 push	 eax
  0000a	68 00 00 00 00	 push	 OFFSET FLAT:??_C@_09KCKHMJEM@Throwable?$AA@
  0000f	e8 00 00 00 00	 call	 ??0?$basic_string@DV?$char_traits@D@_STL@@V?$allocator@D@2@@_STL@@QAE@PBDABV?$allocator@D@1@@Z ; _STL::basic_string<char,_STL::char_traits<char>,_STL::allocator<char> >::basic_string<char,_STL::char_traits<char>,_STL::allocator<char> >
  00014	8b 45 08	 mov	 eax, DWORD PTR ___$ReturnUdt$[ebp]
  00017	5d		 pop	 ebp
  00018	c2 04 00	 ret	 4
?getName@Throwable@@UBE?AV?$basic_string@DV?$char_traits@D@_STL@@V?$allocator@D@2@@_STL@@XZ ENDP ; Throwable::getName
_TEXT	ENDS
PUBLIC	??0?$_List_base@V?$basic_string@DV?$char_traits@D@_STL@@V?$allocator@D@2@@_STL@@V?$allocator@V?$basic_string@DV?$char_traits@D@_STL@@V?$allocator@D@2@@_STL@@@2@@_STL@@QAE@ABV?$allocator@V?$basic_string@DV?$char_traits@D@_STL@@V?$allocator@D@2@@_STL@@@1@@Z ; _STL::_List_base<_STL::basic_string<char,_STL::char_traits<char>,_STL::allocator<char> >,_STL::allocator<_STL::basic_string<char,_STL::char_traits<char>,_STL::allocator<char> > > >::_List_base<_STL::basic_string<char,_STL::char_traits<char>,_STL::allocator<char> >,_STL::allocator<_STL::basic_string<char,_STL::char_traits<char>,_STL::allocator<char> > > >
; Function compile flags: /Ogsy
; File c:\stlport-4.6.1\stlport\stl\_list.h
;	COMDAT ??0?$list@V?$basic_string@DV?$char_traits@D@_STL@@V?$allocator@D@2@@_STL@@V?$allocator@V?$basic_string@DV?$char_traits@D@_STL@@V?$allocator@D@2@@_STL@@@2@@_STL@@QAE@ABV?$allocator@V?$basic_string@DV?$char_traits@D@_STL@@V?$allocator@D@2@@_STL@@@1@@Z
_TEXT	SEGMENT
___a$ = 8						; size = 4
??0?$list@V?$basic_string@DV?$char_traits@D@_STL@@V?$allocator@D@2@@_STL@@V?$allocator@V?$basic_string@DV?$char_traits@D@_STL@@V?$allocator@D@2@@_STL@@@2@@_STL@@QAE@ABV?$allocator@V?$basic_string@DV?$char_traits@D@_STL@@V?$allocator@D@2@@_STL@@@1@@Z PROC NEAR ; _STL::list<_STL::basic_string<char,_STL::char_traits<char>,_STL::allocator<char> >,_STL::allocator<_STL::basic_string<char,_STL::char_traits<char>,_STL::allocator<char> > > >::list<_STL::basic_string<char,_STL::char_traits<char>,_STL::allocator<char> >,_STL::allocator<_STL::basic_string<char,_STL::char_traits<char>,_STL::allocator<char> > > >, COMDAT
; _this$ = ecx

; 264  :     _List_base<_Tp, _Alloc>(__a) {}

  00000	56		 push	 esi
  00001	ff 74 24 08	 push	 DWORD PTR ___a$[esp]
  00005	8b f1		 mov	 esi, ecx
  00007	e8 00 00 00 00	 call	 ??0?$_List_base@V?$basic_string@DV?$char_traits@D@_STL@@V?$allocator@D@2@@_STL@@V?$allocator@V?$basic_string@DV?$char_traits@D@_STL@@V?$allocator@D@2@@_STL@@@2@@_STL@@QAE@ABV?$allocator@V?$basic_string@DV?$char_traits@D@_STL@@V?$allocator@D@2@@_STL@@@1@@Z ; _STL::_List_base<_STL::basic_string<char,_STL::char_traits<char>,_STL::allocator<char> >,_STL::allocator<_STL::basic_string<char,_STL::char_traits<char>,_STL::allocator<char> > > >::_List_base<_STL::basic_string<char,_STL::char_traits<char>,_STL::allocator<char> >,_STL::allocator<_STL::basic_string<char,_STL::char_traits<char>,_STL::allocator<char> > > >
  0000c	8b c6		 mov	 eax, esi
  0000e	5e		 pop	 esi
  0000f	c2 04 00	 ret	 4
??0?$list@V?$basic_string@DV?$char_traits@D@_STL@@V?$allocator@D@2@@_STL@@V?$allocator@V?$basic_string@DV?$char_traits@D@_STL@@V?$allocator@D@2@@_STL@@@2@@_STL@@QAE@ABV?$allocator@V?$basic_string@DV?$char_traits@D@_STL@@V?$allocator@D@2@@_STL@@@1@@Z ENDP ; _STL::list<_STL::basic_string<char,_STL::char_traits<char>,_STL::allocator<char> >,_STL::allocator<_STL::basic_string<char,_STL::char_traits<char>,_STL::allocator<char> > > >::list<_STL::basic_string<char,_STL::char_traits<char>,_STL::allocator<char> >,_STL::allocator<_STL::basic_string<char,_STL::char_traits<char>,_STL::allocator<char> > > >
_TEXT	ENDS
PUBLIC	??1?$_STLP_alloc_proxy@PAU?$_List_node@V?$basic_string@DV?$char_traits@D@_STL@@V?$allocator@D@2@@_STL@@@_STL@@U12@V?$allocator@U?$_List_node@V?$basic_string@DV?$char_traits@D@_STL@@V?$allocator@D@2@@_STL@@@_STL@@@2@@_STL@@QAE@XZ ; _STL::_STLP_alloc_proxy<_STL::_List_node<_STL::basic_string<char,_STL::char_traits<char>,_STL::allocator<char> > > *,_STL::_List_node<_STL::basic_string<char,_STL::char_traits<char>,_STL::allocator<char> > >,_STL::allocator<_STL::_List_node<_STL::basic_string<char,_STL::char_traits<char>,_STL::allocator<char> > > > >::~_STLP_alloc_proxy<_STL::_List_node<_STL::basic_string<char,_STL::char_traits<char>,_STL::allocator<char> > > *,_STL::_List_node<_STL::basic_string<char,_STL::char_traits<char>,_STL::allocator<char> > >,_STL::allocator<_STL::_List_node<_STL::basic_string<char,_STL::char_traits<char>,_STL::allocator<char> > > > >
;	COMDAT xdata$x
; File c:\stlport-4.6.1\stlport\stl\_alloc.h
xdata$x	SEGMENT
$T104139 DD	0ffffffffH
	DD	FLAT:$L104113
$T104137 DD	019930520H
	DD	01H
	DD	FLAT:$T104139
	DD	2 DUP(00H)
	DD	2 DUP(00H)
; Function compile flags: /Ogsy
; File c:\stlport-4.6.1\stlport\stl\_list.h
xdata$x	ENDS
;	COMDAT ??0?$_List_base@V?$basic_string@DV?$char_traits@D@_STL@@V?$allocator@D@2@@_STL@@V?$allocator@V?$basic_string@DV?$char_traits@D@_STL@@V?$allocator@D@2@@_STL@@@2@@_STL@@QAE@ABV?$allocator@V?$basic_string@DV?$char_traits@D@_STL@@V?$allocator@D@2@@_STL@@@1@@Z
_TEXT	SEGMENT
_this$ = -16						; size = 4
__$EHRec$ = -12						; size = 12
___a$ = 8						; size = 4
??0?$_List_base@V?$basic_string@DV?$char_traits@D@_STL@@V?$allocator@D@2@@_STL@@V?$allocator@V?$basic_string@DV?$char_traits@D@_STL@@V?$allocator@D@2@@_STL@@@2@@_STL@@QAE@ABV?$allocator@V?$basic_string@DV?$char_traits@D@_STL@@V?$allocator@D@2@@_STL@@@1@@Z PROC NEAR ; _STL::_List_base<_STL::basic_string<char,_STL::char_traits<char>,_STL::allocator<char> >,_STL::allocator<_STL::basic_string<char,_STL::char_traits<char>,_STL::allocator<char> > > >::_List_base<_STL::basic_string<char,_STL::char_traits<char>,_STL::allocator<char> >,_STL::allocator<_STL::basic_string<char,_STL::char_traits<char>,_STL::allocator<char> > > >, COMDAT
; _this$ = ecx

; 182  :   _List_base(const allocator_type& __a) : _M_node(_STLP_CONVERT_ALLOCATOR(__a, _Node), (_Node*)0) {

  00000	b8 00 00 00 00	 mov	 eax, __ehhandler$??0?$_List_base@V?$basic_string@DV?$char_traits@D@_STL@@V?$allocator@D@2@@_STL@@V?$allocator@V?$basic_string@DV?$char_traits@D@_STL@@V?$allocator@D@2@@_STL@@@2@@_STL@@QAE@ABV?$allocator@V?$basic_string@DV?$char_traits@D@_STL@@V?$allocator@D@2@@_STL@@@1@@Z
  00005	e8 00 00 00 00	 call	 __EH_prolog
  0000a	51		 push	 ecx
  0000b	56		 push	 esi
  0000c	8b f1		 mov	 esi, ecx
  0000e	83 26 00	 and	 DWORD PTR [esi], 0
  00011	89 75 f0	 mov	 DWORD PTR _this$[ebp], esi
  00014	83 65 fc 00	 and	 DWORD PTR __$EHRec$[ebp+8], 0

; 183  :     _Node* __n = _M_node.allocate(1);

  00018	6a 14		 push	 20			; 00000014H
  0001a	e8 00 00 00 00	 call	 ?allocate@?$__node_alloc@$00$0A@@_STL@@SAPAXI@Z ; _STL::__node_alloc<1,0>::allocate

; 184  :     __n->_M_next = __n;

  0001f	89 00		 mov	 DWORD PTR [eax], eax

; 185  :     __n->_M_prev = __n;

  00021	89 40 04	 mov	 DWORD PTR [eax+4], eax
  00024	59		 pop	 ecx

; 186  :     _M_node._M_data = __n;
; 187  :   }

  00025	8b 4d f4	 mov	 ecx, DWORD PTR __$EHRec$[ebp]
  00028	89 06		 mov	 DWORD PTR [esi], eax
  0002a	8b c6		 mov	 eax, esi
  0002c	5e		 pop	 esi
  0002d	64 89 0d 00 00
	00 00		 mov	 DWORD PTR fs:__except_list, ecx
  00034	c9		 leave
  00035	c2 04 00	 ret	 4
_TEXT	ENDS
;	COMDAT text$x
text$x	SEGMENT
$L104113:
  00000	8b 4d f0	 mov	 ecx, DWORD PTR _this$[ebp]
  00003	e9 00 00 00 00	 jmp	 ??1?$_STLP_alloc_proxy@PAU?$_List_node@V?$basic_string@DV?$char_traits@D@_STL@@V?$allocator@D@2@@_STL@@@_STL@@U12@V?$allocator@U?$_List_node@V?$basic_string@DV?$char_traits@D@_STL@@V?$allocator@D@2@@_STL@@@_STL@@@2@@_STL@@QAE@XZ
__ehhandler$??0?$_List_base@V?$basic_string@DV?$char_traits@D@_STL@@V?$allocator@D@2@@_STL@@V?$allocator@V?$basic_string@DV?$char_traits@D@_STL@@V?$allocator@D@2@@_STL@@@2@@_STL@@QAE@ABV?$allocator@V?$basic_string@DV?$char_traits@D@_STL@@V?$allocator@D@2@@_STL@@@1@@Z:
  00008	b8 00 00 00 00	 mov	 eax, OFFSET FLAT:$T104137
  0000d	e9 00 00 00 00	 jmp	 ___CxxFrameHandler
text$x	ENDS
??0?$_List_base@V?$basic_string@DV?$char_traits@D@_STL@@V?$allocator@D@2@@_STL@@V?$allocator@V?$basic_string@DV?$char_traits@D@_STL@@V?$allocator@D@2@@_STL@@@2@@_STL@@QAE@ABV?$allocator@V?$basic_string@DV?$char_traits@D@_STL@@V?$allocator@D@2@@_STL@@@1@@Z ENDP ; _STL::_List_base<_STL::basic_string<char,_STL::char_traits<char>,_STL::allocator<char> >,_STL::allocator<_STL::basic_string<char,_STL::char_traits<char>,_STL::allocator<char> > > >::_List_base<_STL::basic_string<char,_STL::char_traits<char>,_STL::allocator<char> >,_STL::allocator<_STL::basic_string<char,_STL::char_traits<char>,_STL::allocator<char> > > >
; Function compile flags: /Ogsy
;	COMDAT ??1?$_STLP_alloc_proxy@PAU?$_List_node@V?$basic_string@DV?$char_traits@D@_STL@@V?$allocator@D@2@@_STL@@@_STL@@U12@V?$allocator@U?$_List_node@V?$basic_string@DV?$char_traits@D@_STL@@V?$allocator@D@2@@_STL@@@_STL@@@2@@_STL@@QAE@XZ
_TEXT	SEGMENT
??1?$_STLP_alloc_proxy@PAU?$_List_node@V?$basic_string@DV?$char_traits@D@_STL@@V?$allocator@D@2@@_STL@@@_STL@@U12@V?$allocator@U?$_List_node@V?$basic_string@DV?$char_traits@D@_STL@@V?$allocator@D@2@@_STL@@@_STL@@@2@@_STL@@QAE@XZ PROC NEAR ; _STL::_STLP_alloc_proxy<_STL::_List_node<_STL::basic_string<char,_STL::char_traits<char>,_STL::allocator<char> > > *,_STL::_List_node<_STL::basic_string<char,_STL::char_traits<char>,_STL::allocator<char> > >,_STL::allocator<_STL::_List_node<_STL::basic_string<char,_STL::char_traits<char>,_STL::allocator<char> > > > >::~_STLP_alloc_proxy<_STL::_List_node<_STL::basic_string<char,_STL::char_traits<char>,_STL::allocator<char> > > *,_STL::_List_node<_STL::basic_string<char,_STL::char_traits<char>,_STL::allocator<char> > >,_STL::allocator<_STL::_List_node<_STL::basic_string<char,_STL::char_traits<char>,_STL::allocator<char> > > > >, COMDAT
; _this$ = ecx
  00000	c3		 ret	 0
??1?$_STLP_alloc_proxy@PAU?$_List_node@V?$basic_string@DV?$char_traits@D@_STL@@V?$allocator@D@2@@_STL@@@_STL@@U12@V?$allocator@U?$_List_node@V?$basic_string@DV?$char_traits@D@_STL@@V?$allocator@D@2@@_STL@@@_STL@@@2@@_STL@@QAE@XZ ENDP ; _STL::_STLP_alloc_proxy<_STL::_List_node<_STL::basic_string<char,_STL::char_traits<char>,_STL::allocator<char> > > *,_STL::_List_node<_STL::basic_string<char,_STL::char_traits<char>,_STL::allocator<char> > >,_STL::allocator<_STL::_List_node<_STL::basic_string<char,_STL::char_traits<char>,_STL::allocator<char> > > > >::~_STLP_alloc_proxy<_STL::_List_node<_STL::basic_string<char,_STL::char_traits<char>,_STL::allocator<char> > > *,_STL::_List_node<_STL::basic_string<char,_STL::char_traits<char>,_STL::allocator<char> > >,_STL::allocator<_STL::_List_node<_STL::basic_string<char,_STL::char_traits<char>,_STL::allocator<char> > > > >
_TEXT	ENDS
PUBLIC	??1Throwable@@UAE@XZ				; Throwable::~Throwable
; Function compile flags: /Ogsy
;	COMDAT ??_GThrowable@@UAEPAXI@Z
_TEXT	SEGMENT
___flags$ = 8						; size = 4
??_GThrowable@@UAEPAXI@Z PROC NEAR			; Throwable::`scalar deleting destructor', COMDAT
; _this$ = ecx
  00000	56		 push	 esi
  00001	8b f1		 mov	 esi, ecx
  00003	e8 00 00 00 00	 call	 ??1Throwable@@UAE@XZ	; Throwable::~Throwable
  00008	f6 44 24 08 01	 test	 BYTE PTR ___flags$[esp], 1
  0000d	74 07		 je	 SHORT $L88026
  0000f	56		 push	 esi
  00010	e8 00 00 00 00	 call	 ??3@YAXPAX@Z		; operator delete
  00015	59		 pop	 ecx
$L88026:
  00016	8b c6		 mov	 eax, esi
  00018	5e		 pop	 esi
  00019	c2 04 00	 ret	 4
??_GThrowable@@UAEPAXI@Z ENDP				; Throwable::`scalar deleting destructor'
_TEXT	ENDS
PUBLIC	??1?$list@V?$basic_string@DV?$char_traits@D@_STL@@V?$allocator@D@2@@_STL@@V?$allocator@V?$basic_string@DV?$char_traits@D@_STL@@V?$allocator@D@2@@_STL@@@2@@_STL@@QAE@XZ ; _STL::list<_STL::basic_string<char,_STL::char_traits<char>,_STL::allocator<char> >,_STL::allocator<_STL::basic_string<char,_STL::char_traits<char>,_STL::allocator<char> > > >::~list<_STL::basic_string<char,_STL::char_traits<char>,_STL::allocator<char> >,_STL::allocator<_STL::basic_string<char,_STL::char_traits<char>,_STL::allocator<char> > > >
; Function compile flags: /Ogsy
; File c:\darkeden\designed_common\project\client\packet\exception.h
;	COMDAT ??1Throwable@@UAE@XZ
_TEXT	SEGMENT
??1Throwable@@UAE@XZ PROC NEAR				; Throwable::~Throwable, COMDAT
; _this$ = ecx

; 43   : 	virtual ~Throwable () throw () {}

  00000	56		 push	 esi
  00001	8b f1		 mov	 esi, ecx
  00003	8d 4e 10	 lea	 ecx, DWORD PTR [esi+16]
  00006	c7 06 00 00 00
	00		 mov	 DWORD PTR [esi], OFFSET FLAT:??_7Throwable@@6B@
  0000c	e8 00 00 00 00	 call	 ??1?$list@V?$basic_string@DV?$char_traits@D@_STL@@V?$allocator@D@2@@_STL@@V?$allocator@V?$basic_string@DV?$char_traits@D@_STL@@V?$allocator@D@2@@_STL@@@2@@_STL@@QAE@XZ ; _STL::list<_STL::basic_string<char,_STL::char_traits<char>,_STL::allocator<char> >,_STL::allocator<_STL::basic_string<char,_STL::char_traits<char>,_STL::allocator<char> > > >::~list<_STL::basic_string<char,_STL::char_traits<char>,_STL::allocator<char> >,_STL::allocator<_STL::basic_string<char,_STL::char_traits<char>,_STL::allocator<char> > > >
  00011	8d 4e 04	 lea	 ecx, DWORD PTR [esi+4]
  00014	5e		 pop	 esi
  00015	e9 00 00 00 00	 jmp	 ??1?$basic_string@DV?$char_traits@D@_STL@@V?$allocator@D@2@@_STL@@QAE@XZ ; _STL::basic_string<char,_STL::char_traits<char>,_STL::allocator<char> >::~basic_string<char,_STL::char_traits<char>,_STL::allocator<char> >
??1Throwable@@UAE@XZ ENDP				; Throwable::~Throwable
_TEXT	ENDS
PUBLIC	??1?$_List_base@V?$basic_string@DV?$char_traits@D@_STL@@V?$allocator@D@2@@_STL@@V?$allocator@V?$basic_string@DV?$char_traits@D@_STL@@V?$allocator@D@2@@_STL@@@2@@_STL@@QAE@XZ ; _STL::_List_base<_STL::basic_string<char,_STL::char_traits<char>,_STL::allocator<char> >,_STL::allocator<_STL::basic_string<char,_STL::char_traits<char>,_STL::allocator<char> > > >::~_List_base<_STL::basic_string<char,_STL::char_traits<char>,_STL::allocator<char> >,_STL::allocator<_STL::basic_string<char,_STL::char_traits<char>,_STL::allocator<char> > > >
; Function compile flags: /Ogsy
; File c:\stlport-4.6.1\stlport\stl\_list.h
;	COMDAT ??1?$list@V?$basic_string@DV?$char_traits@D@_STL@@V?$allocator@D@2@@_STL@@V?$allocator@V?$basic_string@DV?$char_traits@D@_STL@@V?$allocator@D@2@@_STL@@@2@@_STL@@QAE@XZ
_TEXT	SEGMENT
??1?$list@V?$basic_string@DV?$char_traits@D@_STL@@V?$allocator@D@2@@_STL@@V?$allocator@V?$basic_string@DV?$char_traits@D@_STL@@V?$allocator@D@2@@_STL@@@2@@_STL@@QAE@XZ PROC NEAR ; _STL::list<_STL::basic_string<char,_STL::char_traits<char>,_STL::allocator<char> >,_STL::allocator<_STL::basic_string<char,_STL::char_traits<char>,_STL::allocator<char> > > >::~list<_STL::basic_string<char,_STL::char_traits<char>,_STL::allocator<char> >,_STL::allocator<_STL::basic_string<char,_STL::char_traits<char>,_STL::allocator<char> > > >, COMDAT
; _this$ = ecx

; 416  :   ~list() { }

  00000	e9 00 00 00 00	 jmp	 ??1?$_List_base@V?$basic_string@DV?$char_traits@D@_STL@@V?$allocator@D@2@@_STL@@V?$allocator@V?$basic_string@DV?$char_traits@D@_STL@@V?$allocator@D@2@@_STL@@@2@@_STL@@QAE@XZ ; _STL::_List_base<_STL::basic_string<char,_STL::char_traits<char>,_STL::allocator<char> >,_STL::allocator<_STL::basic_string<char,_STL::char_traits<char>,_STL::allocator<char> > > >::~_List_base<_STL::basic_string<char,_STL::char_traits<char>,_STL::allocator<char> >,_STL::allocator<_STL::basic_string<char,_STL::char_traits<char>,_STL::allocator<char> > > >
??1?$list@V?$basic_string@DV?$char_traits@D@_STL@@V?$allocator@D@2@@_STL@@V?$allocator@V?$basic_string@DV?$char_traits@D@_STL@@V?$allocator@D@2@@_STL@@@2@@_STL@@QAE@XZ ENDP ; _STL::list<_STL::basic_string<char,_STL::char_traits<char>,_STL::allocator<char> >,_STL::allocator<_STL::basic_string<char,_STL::char_traits<char>,_STL::allocator<char> > > >::~list<_STL::basic_string<char,_STL::char_traits<char>,_STL::allocator<char> >,_STL::allocator<_STL::basic_string<char,_STL::char_traits<char>,_STL::allocator<char> > > >
_TEXT	ENDS
PUBLIC	?clear@?$_List_base@V?$basic_string@DV?$char_traits@D@_STL@@V?$allocator@D@2@@_STL@@V?$allocator@V?$basic_string@DV?$char_traits@D@_STL@@V?$allocator@D@2@@_STL@@@2@@_STL@@QAEXXZ ; _STL::_List_base<_STL::basic_string<char,_STL::char_traits<char>,_STL::allocator<char> >,_STL::allocator<_STL::basic_string<char,_STL::char_traits<char>,_STL::allocator<char> > > >::clear
; Function compile flags: /Ogsy
;	COMDAT ??1?$_List_base@V?$basic_string@DV?$char_traits@D@_STL@@V?$allocator@D@2@@_STL@@V?$allocator@V?$basic_string@DV?$char_traits@D@_STL@@V?$allocator@D@2@@_STL@@@2@@_STL@@QAE@XZ
_TEXT	SEGMENT
??1?$_List_base@V?$basic_string@DV?$char_traits@D@_STL@@V?$allocator@D@2@@_STL@@V?$allocator@V?$basic_string@DV?$char_traits@D@_STL@@V?$allocator@D@2@@_STL@@@2@@_STL@@QAE@XZ PROC NEAR ; _STL::_List_base<_STL::basic_string<char,_STL::char_traits<char>,_STL::allocator<char> >,_STL::allocator<_STL::basic_string<char,_STL::char_traits<char>,_STL::allocator<char> > > >::~_List_base<_STL::basic_string<char,_STL::char_traits<char>,_STL::allocator<char> >,_STL::allocator<_STL::basic_string<char,_STL::char_traits<char>,_STL::allocator<char> > > >, COMDAT
; _this$ = ecx

; 188  :   ~_List_base() {

  00000	56		 push	 esi
  00001	8b f1		 mov	 esi, ecx

; 189  :     clear();

  00003	e8 00 00 00 00	 call	 ?clear@?$_List_base@V?$basic_string@DV?$char_traits@D@_STL@@V?$allocator@D@2@@_STL@@V?$allocator@V?$basic_string@DV?$char_traits@D@_STL@@V?$allocator@D@2@@_STL@@@2@@_STL@@QAEXXZ ; _STL::_List_base<_STL::basic_string<char,_STL::char_traits<char>,_STL::allocator<char> >,_STL::allocator<_STL::basic_string<char,_STL::char_traits<char>,_STL::allocator<char> > > >::clear

; 190  :     _M_node.deallocate(_M_node._M_data, 1);

  00008	8b 36		 mov	 esi, DWORD PTR [esi]
  0000a	85 f6		 test	 esi, esi
  0000c	74 0a		 je	 SHORT $L104260
  0000e	6a 14		 push	 20			; 00000014H
  00010	56		 push	 esi
  00011	e8 00 00 00 00	 call	 ?deallocate@?$__node_alloc@$00$0A@@_STL@@SAXPAXI@Z ; _STL::__node_alloc<1,0>::deallocate
  00016	59		 pop	 ecx
  00017	59		 pop	 ecx
$L104260:
  00018	5e		 pop	 esi

; 191  :   }

  00019	c3		 ret	 0
??1?$_List_base@V?$basic_string@DV?$char_traits@D@_STL@@V?$allocator@D@2@@_STL@@V?$allocator@V?$basic_string@DV?$char_traits@D@_STL@@V?$allocator@D@2@@_STL@@@2@@_STL@@QAE@XZ ENDP ; _STL::_List_base<_STL::basic_string<char,_STL::char_traits<char>,_STL::allocator<char> >,_STL::allocator<_STL::basic_string<char,_STL::char_traits<char>,_STL::allocator<char> > > >::~_List_base<_STL::basic_string<char,_STL::char_traits<char>,_STL::allocator<char> >,_STL::allocator<_STL::basic_string<char,_STL::char_traits<char>,_STL::allocator<char> > > >
; Function compile flags: /Ogsy
; File c:\stlport-4.6.1\stlport\stl\_list.c
_TEXT	ENDS
;	COMDAT ?clear@?$_List_base@V?$basic_string@DV?$char_traits@D@_STL@@V?$allocator@D@2@@_STL@@V?$allocator@V?$basic_string@DV?$char_traits@D@_STL@@V?$allocator@D@2@@_STL@@@2@@_STL@@QAEXXZ
_TEXT	SEGMENT
?clear@?$_List_base@V?$basic_string@DV?$char_traits@D@_STL@@V?$allocator@D@2@@_STL@@V?$allocator@V?$basic_string@DV?$char_traits@D@_STL@@V?$allocator@D@2@@_STL@@@2@@_STL@@QAEXXZ PROC NEAR ; _STL::_List_base<_STL::basic_string<char,_STL::char_traits<char>,_STL::allocator<char> >,_STL::allocator<_STL::basic_string<char,_STL::char_traits<char>,_STL::allocator<char> > > >::clear, COMDAT
; _this$ = ecx

; 68   : {

  00000	56		 push	 esi
  00001	57		 push	 edi
  00002	8b f9		 mov	 edi, ecx

; 69   :   _List_node<_Tp>* __cur = (_List_node<_Tp>*) this->_M_node._M_data->_M_next;

  00004	8b 07		 mov	 eax, DWORD PTR [edi]
  00006	8b 30		 mov	 esi, DWORD PTR [eax]

; 70   :   while (__cur != this->_M_node._M_data) {

  00008	3b f0		 cmp	 esi, eax
  0000a	74 1c		 je	 SHORT $L98971
  0000c	53		 push	 ebx
$L98970:

; 71   :     _List_node<_Tp>* __tmp = __cur;

  0000d	8b de		 mov	 ebx, esi

; 72   :     __cur = (_List_node<_Tp>*) __cur->_M_next;

  0000f	8b 36		 mov	 esi, DWORD PTR [esi]

; 73   :     _STLP_STD::_Destroy(&__tmp->_M_data);

  00011	8d 4b 08	 lea	 ecx, DWORD PTR [ebx+8]
  00014	e8 00 00 00 00	 call	 ??1?$basic_string@DV?$char_traits@D@_STL@@V?$allocator@D@2@@_STL@@QAE@XZ ; _STL::basic_string<char,_STL::char_traits<char>,_STL::allocator<char> >::~basic_string<char,_STL::char_traits<char>,_STL::allocator<char> >

; 74   :     this->_M_node.deallocate(__tmp, 1);

  00019	6a 14		 push	 20			; 00000014H
  0001b	53		 push	 ebx
  0001c	e8 00 00 00 00	 call	 ?deallocate@?$__node_alloc@$00$0A@@_STL@@SAXPAXI@Z ; _STL::__node_alloc<1,0>::deallocate
  00021	3b 37		 cmp	 esi, DWORD PTR [edi]
  00023	59		 pop	 ecx
  00024	59		 pop	 ecx
  00025	75 e6		 jne	 SHORT $L98970
  00027	5b		 pop	 ebx
$L98971:

; 75   :   }
; 76   :   this->_M_node._M_data->_M_next = this->_M_node._M_data;

  00028	8b 07		 mov	 eax, DWORD PTR [edi]
  0002a	89 00		 mov	 DWORD PTR [eax], eax

; 77   :   this->_M_node._M_data->_M_prev = this->_M_node._M_data;

  0002c	8b 3f		 mov	 edi, DWORD PTR [edi]
  0002e	89 7f 04	 mov	 DWORD PTR [edi+4], edi
  00031	5f		 pop	 edi
  00032	5e		 pop	 esi

; 78   : }

  00033	c3		 ret	 0
?clear@?$_List_base@V?$basic_string@DV?$char_traits@D@_STL@@V?$allocator@D@2@@_STL@@V?$allocator@V?$basic_string@DV?$char_traits@D@_STL@@V?$allocator@D@2@@_STL@@@2@@_STL@@QAEXXZ ENDP ; _STL::_List_base<_STL::basic_string<char,_STL::char_traits<char>,_STL::allocator<char> >,_STL::allocator<_STL::basic_string<char,_STL::char_traits<char>,_STL::allocator<char> > > >::clear
_TEXT	ENDS
PUBLIC	??1Error@@UAE@XZ				; Error::~Error
; Function compile flags: /Ogsy
;	COMDAT ??1UnsupportedError@@UAE@XZ
_TEXT	SEGMENT
??1UnsupportedError@@UAE@XZ PROC NEAR			; UnsupportedError::~UnsupportedError, COMDAT
; _this$ = ecx
  00000	e9 00 00 00 00	 jmp	 ??1Error@@UAE@XZ
??1UnsupportedError@@UAE@XZ ENDP			; UnsupportedError::~UnsupportedError
; Function compile flags: /Ogsy
_TEXT	ENDS
;	COMDAT ??1Error@@UAE@XZ
_TEXT	SEGMENT
??1Error@@UAE@XZ PROC NEAR				; Error::~Error, COMDAT
; _this$ = ecx
  00000	e9 00 00 00 00	 jmp	 ??1Throwable@@UAE@XZ	; Throwable::~Throwable
??1Error@@UAE@XZ ENDP					; Error::~Error
; Function compile flags: /Ogsy
; File c:\darkeden\designed_common\project\client\packet\packet.h
_TEXT	ENDS
;	COMDAT ?write@Packet@@UBEXPAVSocket@@@Z
_TEXT	SEGMENT
$T104291 = -20						; size = 20
_pSocket$ = 8						; size = 4
?write@Packet@@UBEXPAVSocket@@@Z PROC NEAR		; Packet::write, COMDAT
; _this$ = ecx

; 738  : 	virtual void write (Socket* pSocket) const throw (ProtocolException, Error) { throw UnsupportedError(); }	

  00000	55		 push	 ebp
  00001	8b ec		 mov	 ebp, esp
  00003	83 ec 14	 sub	 esp, 20			; 00000014H
  00006	8d 4d ec	 lea	 ecx, DWORD PTR $T104291[ebp]
  00009	e8 00 00 00 00	 call	 ??0UnsupportedError@@QAE@XZ ; UnsupportedError::UnsupportedError
  0000e	68 00 00 00 00	 push	 OFFSET FLAT:__TI3?AVUnsupportedError@@
  00013	8d 45 ec	 lea	 eax, DWORD PTR $T104291[ebp]
  00016	50		 push	 eax
  00017	e8 00 00 00 00	 call	 __CxxThrowException@8
$L104293:
$L104292:
  0001c	cc		 int	 3
?write@Packet@@UBEXPAVSocket@@@Z ENDP			; Packet::write
; Function compile flags: /Ogsy
_TEXT	ENDS
;	COMDAT ??_GError@@UAEPAXI@Z
_TEXT	SEGMENT
___flags$ = 8						; size = 4
??_GError@@UAEPAXI@Z PROC NEAR				; Error::`scalar deleting destructor', COMDAT
; _this$ = ecx
  00000	56		 push	 esi
  00001	8b f1		 mov	 esi, ecx
  00003	e8 00 00 00 00	 call	 ??1Error@@UAE@XZ
  00008	f6 44 24 08 01	 test	 BYTE PTR ___flags$[esp], 1
  0000d	74 07		 je	 SHORT $L89237
  0000f	56		 push	 esi
  00010	e8 00 00 00 00	 call	 ??3@YAXPAX@Z		; operator delete
  00015	59		 pop	 ecx
$L89237:
  00016	8b c6		 mov	 eax, esi
  00018	5e		 pop	 esi
  00019	c2 04 00	 ret	 4
??_GError@@UAEPAXI@Z ENDP				; Error::`scalar deleting destructor'
; Function compile flags: /Ogsy
_TEXT	ENDS
;	COMDAT ??_GUnsupportedError@@UAEPAXI@Z
_TEXT	SEGMENT
___flags$ = 8						; size = 4
??_GUnsupportedError@@UAEPAXI@Z PROC NEAR		; UnsupportedError::`scalar deleting destructor', COMDAT
; _this$ = ecx
  00000	56		 push	 esi
  00001	8b f1		 mov	 esi, ecx
  00003	e8 00 00 00 00	 call	 ??1UnsupportedError@@UAE@XZ
  00008	f6 44 24 08 01	 test	 BYTE PTR ___flags$[esp], 1
  0000d	74 07		 je	 SHORT $L89333
  0000f	56		 push	 esi
  00010	e8 00 00 00 00	 call	 ??3@YAXPAX@Z		; operator delete
  00015	59		 pop	 ecx
$L89333:
  00016	8b c6		 mov	 eax, esi
  00018	5e		 pop	 esi
  00019	c2 04 00	 ret	 4
??_GUnsupportedError@@UAEPAXI@Z ENDP			; UnsupportedError::`scalar deleting destructor'
_TEXT	ENDS
PUBLIC	??0?$list@V?$basic_string@DV?$char_traits@D@_STL@@V?$allocator@D@2@@_STL@@V?$allocator@V?$basic_string@DV?$char_traits@D@_STL@@V?$allocator@D@2@@_STL@@@2@@_STL@@QAE@ABV01@@Z ; _STL::list<_STL::basic_string<char,_STL::char_traits<char>,_STL::allocator<char> >,_STL::allocator<_STL::basic_string<char,_STL::char_traits<char>,_STL::allocator<char> > > >::list<_STL::basic_string<char,_STL::char_traits<char>,_STL::allocator<char> >,_STL::allocator<_STL::basic_string<char,_STL::char_traits<char>,_STL::allocator<char> > > >
;	COMDAT xdata$x
xdata$x	SEGMENT
$T104307 DD	0ffffffffH
	DD	FLAT:$L104302
$T104305 DD	019930520H
	DD	01H
	DD	FLAT:$T104307
	DD	2 DUP(00H)
	DD	2 DUP(00H)
; Function compile flags: /Ogsy
xdata$x	ENDS
;	COMDAT ??0Throwable@@QAE@ABV0@@Z
_TEXT	SEGMENT
_this$ = -16						; size = 4
__$EHRec$ = -12						; size = 12
___that$ = 8						; size = 4
??0Throwable@@QAE@ABV0@@Z PROC NEAR			; Throwable::Throwable, COMDAT
; _this$ = ecx
  00000	b8 00 00 00 00	 mov	 eax, __ehhandler$??0Throwable@@QAE@ABV0@@Z
  00005	e8 00 00 00 00	 call	 __EH_prolog
  0000a	51		 push	 ecx
  0000b	56		 push	 esi
  0000c	57		 push	 edi
  0000d	8b 7d 08	 mov	 edi, DWORD PTR ___that$[ebp]
  00010	8b f1		 mov	 esi, ecx
  00012	8d 47 04	 lea	 eax, DWORD PTR [edi+4]
  00015	50		 push	 eax
  00016	8d 4e 04	 lea	 ecx, DWORD PTR [esi+4]
  00019	89 75 f0	 mov	 DWORD PTR _this$[ebp], esi
  0001c	c7 06 00 00 00
	00		 mov	 DWORD PTR [esi], OFFSET FLAT:??_7Throwable@@6B@
  00022	e8 00 00 00 00	 call	 ??0?$basic_string@DV?$char_traits@D@_STL@@V?$allocator@D@2@@_STL@@QAE@ABV01@@Z ; _STL::basic_string<char,_STL::char_traits<char>,_STL::allocator<char> >::basic_string<char,_STL::char_traits<char>,_STL::allocator<char> >
  00027	83 65 fc 00	 and	 DWORD PTR __$EHRec$[ebp+8], 0
  0002b	83 c7 10	 add	 edi, 16			; 00000010H
  0002e	57		 push	 edi
  0002f	8d 4e 10	 lea	 ecx, DWORD PTR [esi+16]
  00032	e8 00 00 00 00	 call	 ??0?$list@V?$basic_string@DV?$char_traits@D@_STL@@V?$allocator@D@2@@_STL@@V?$allocator@V?$basic_string@DV?$char_traits@D@_STL@@V?$allocator@D@2@@_STL@@@2@@_STL@@QAE@ABV01@@Z ; _STL::list<_STL::basic_string<char,_STL::char_traits<char>,_STL::allocator<char> >,_STL::allocator<_STL::basic_string<char,_STL::char_traits<char>,_STL::allocator<char> > > >::list<_STL::basic_string<char,_STL::char_traits<char>,_STL::allocator<char> >,_STL::allocator<_STL::basic_string<char,_STL::char_traits<char>,_STL::allocator<char> > > >
  00037	8b 4d f4	 mov	 ecx, DWORD PTR __$EHRec$[ebp]
  0003a	5f		 pop	 edi
  0003b	8b c6		 mov	 eax, esi
  0003d	5e		 pop	 esi
  0003e	64 89 0d 00 00
	00 00		 mov	 DWORD PTR fs:__except_list, ecx
  00045	c9		 leave
  00046	c2 04 00	 ret	 4
_TEXT	ENDS
;	COMDAT text$x
text$x	SEGMENT
$L104302:
  00000	8b 4d f0	 mov	 ecx, DWORD PTR _this$[ebp]
  00003	83 c1 04	 add	 ecx, 4
  00006	e9 00 00 00 00	 jmp	 ??1?$basic_string@DV?$char_traits@D@_STL@@V?$allocator@D@2@@_STL@@QAE@XZ ; _STL::basic_string<char,_STL::char_traits<char>,_STL::allocator<char> >::~basic_string<char,_STL::char_traits<char>,_STL::allocator<char> >
__ehhandler$??0Throwable@@QAE@ABV0@@Z:
  0000b	b8 00 00 00 00	 mov	 eax, OFFSET FLAT:$T104305
  00010	e9 00 00 00 00	 jmp	 ___CxxFrameHandler
text$x	ENDS
??0Throwable@@QAE@ABV0@@Z ENDP				; Throwable::Throwable
PUBLIC	??1?$allocator@V?$basic_string@DV?$char_traits@D@_STL@@V?$allocator@D@2@@_STL@@@_STL@@QAE@XZ ; _STL::allocator<_STL::basic_string<char,_STL::char_traits<char>,_STL::allocator<char> > >::~allocator<_STL::basic_string<char,_STL::char_traits<char>,_STL::allocator<char> > >
PUBLIC	?get_allocator@?$_List_base@V?$basic_string@DV?$char_traits@D@_STL@@V?$allocator@D@2@@_STL@@V?$allocator@V?$basic_string@DV?$char_traits@D@_STL@@V?$allocator@D@2@@_STL@@@2@@_STL@@QBE?AV?$allocator@V?$basic_string@DV?$char_traits@D@_STL@@V?$allocator@D@2@@_STL@@@2@XZ ; _STL::_List_base<_STL::basic_string<char,_STL::char_traits<char>,_STL::allocator<char> >,_STL::allocator<_STL::basic_string<char,_STL::char_traits<char>,_STL::allocator<char> > > >::get_allocator
PUBLIC	??$insert@U?$_List_iterator@V?$basic_string@DV?$char_traits@D@_STL@@V?$allocator@D@2@@_STL@@U?$_Const_traits@V?$basic_string@DV?$char_traits@D@_STL@@V?$allocator@D@2@@_STL@@@2@@_STL@@@?$list@V?$basic_string@DV?$char_traits@D@_STL@@V?$allocator@D@2@@_STL@@V?$allocator@V?$basic_string@DV?$char_traits@D@_STL@@V?$allocator@D@2@@_STL@@@2@@_STL@@QAEXU?$_List_iterator@V?$basic_string@DV?$char_traits@D@_STL@@V?$allocator@D@2@@_STL@@U?$_Nonconst_traits@V?$basic_string@DV?$char_traits@D@_STL@@V?$allocator@D@2@@_STL@@@2@@1@U?$_List_iterator@V?$basic_string@DV?$char_traits@D@_STL@@V?$allocator@D@2@@_STL@@U?$_Const_traits@V?$basic_string@DV?$char_traits@D@_STL@@V?$allocator@D@2@@_STL@@@2@@1@1@Z ; _STL::list<_STL::basic_string<char,_STL::char_traits<char>,_STL::allocator<char> >,_STL::allocator<_STL::basic_string<char,_STL::char_traits<char>,_STL::allocator<char> > > >::insert<_STL::_List_iterator<_STL::basic_string<char,_STL::char_traits<char>,_STL::allocator<char> >,_STL::_Const_traits<_STL::basic_string<char,_STL::char_traits<char>,_STL::allocator<char> > > > >
;	COMDAT xdata$x
; File c:\stlport-4.6.1\stlport\stl\_list.h
xdata$x	SEGMENT
$T104433 DD	0ffffffffH
	DD	FLAT:$L104316
	DD	00H
	DD	FLAT:$L104317
	DD	0ffffffffH
	DD	FLAT:$L104317
$T104431 DD	019930520H
	DD	03H
	DD	FLAT:$T104433
	DD	2 DUP(00H)
	DD	2 DUP(00H)
; Function compile flags: /Ogsy
xdata$x	ENDS
;	COMDAT ??0?$list@V?$basic_string@DV?$char_traits@D@_STL@@V?$allocator@D@2@@_STL@@V?$allocator@V?$basic_string@DV?$char_traits@D@_STL@@V?$allocator@D@2@@_STL@@@2@@_STL@@QAE@ABV01@@Z
_TEXT	SEGMENT
$T104315 = -20						; size = 4
_this$ = -16						; size = 4
__$EHRec$ = -12						; size = 12
___x$ = 8						; size = 4
$T104312 = 11						; size = 1
??0?$list@V?$basic_string@DV?$char_traits@D@_STL@@V?$allocator@D@2@@_STL@@V?$allocator@V?$basic_string@DV?$char_traits@D@_STL@@V?$allocator@D@2@@_STL@@@2@@_STL@@QAE@ABV01@@Z PROC NEAR ; _STL::list<_STL::basic_string<char,_STL::char_traits<char>,_STL::allocator<char> >,_STL::allocator<_STL::basic_string<char,_STL::char_traits<char>,_STL::allocator<char> > > >::list<_STL::basic_string<char,_STL::char_traits<char>,_STL::allocator<char> >,_STL::allocator<_STL::basic_string<char,_STL::char_traits<char>,_STL::allocator<char> > > >, COMDAT
; _this$ = ecx

; 414  :     { insert(begin(), __x.begin(), __x.end()); }

  00000	b8 00 00 00 00	 mov	 eax, __ehhandler$??0?$list@V?$basic_string@DV?$char_traits@D@_STL@@V?$allocator@D@2@@_STL@@V?$allocator@V?$basic_string@DV?$char_traits@D@_STL@@V?$allocator@D@2@@_STL@@@2@@_STL@@QAE@ABV01@@Z
  00005	e8 00 00 00 00	 call	 __EH_prolog
  0000a	51		 push	 ecx
  0000b	51		 push	 ecx
  0000c	56		 push	 esi
  0000d	57		 push	 edi
  0000e	8b 7d 08	 mov	 edi, DWORD PTR ___x$[ebp]
  00011	8b f1		 mov	 esi, ecx
  00013	8d 45 0b	 lea	 eax, DWORD PTR $T104312[ebp]
  00016	50		 push	 eax
  00017	8b cf		 mov	 ecx, edi
  00019	89 75 f0	 mov	 DWORD PTR _this$[ebp], esi
  0001c	e8 00 00 00 00	 call	 ?get_allocator@?$_List_base@V?$basic_string@DV?$char_traits@D@_STL@@V?$allocator@D@2@@_STL@@V?$allocator@V?$basic_string@DV?$char_traits@D@_STL@@V?$allocator@D@2@@_STL@@@2@@_STL@@QBE?AV?$allocator@V?$basic_string@DV?$char_traits@D@_STL@@V?$allocator@D@2@@_STL@@@2@XZ ; _STL::_List_base<_STL::basic_string<char,_STL::char_traits<char>,_STL::allocator<char> >,_STL::allocator<_STL::basic_string<char,_STL::char_traits<char>,_STL::allocator<char> > > >::get_allocator
  00021	83 65 fc 00	 and	 DWORD PTR __$EHRec$[ebp+8], 0
  00025	50		 push	 eax
  00026	8b ce		 mov	 ecx, esi
  00028	e8 00 00 00 00	 call	 ??0?$_List_base@V?$basic_string@DV?$char_traits@D@_STL@@V?$allocator@D@2@@_STL@@V?$allocator@V?$basic_string@DV?$char_traits@D@_STL@@V?$allocator@D@2@@_STL@@@2@@_STL@@QAE@ABV?$allocator@V?$basic_string@DV?$char_traits@D@_STL@@V?$allocator@D@2@@_STL@@@1@@Z ; _STL::_List_base<_STL::basic_string<char,_STL::char_traits<char>,_STL::allocator<char> >,_STL::allocator<_STL::basic_string<char,_STL::char_traits<char>,_STL::allocator<char> > > >::_List_base<_STL::basic_string<char,_STL::char_traits<char>,_STL::allocator<char> >,_STL::allocator<_STL::basic_string<char,_STL::char_traits<char>,_STL::allocator<char> > > >
  0002d	8b 07		 mov	 eax, DWORD PTR [edi]
  0002f	8b 08		 mov	 ecx, DWORD PTR [eax]
  00031	50		 push	 eax
  00032	51		 push	 ecx
  00033	51		 push	 ecx
  00034	8b 0e		 mov	 ecx, DWORD PTR [esi]
  00036	8b 09		 mov	 ecx, DWORD PTR [ecx]
  00038	8b c4		 mov	 eax, esp
  0003a	89 08		 mov	 DWORD PTR [eax], ecx
  0003c	8b ce		 mov	 ecx, esi
  0003e	c6 45 fc 02	 mov	 BYTE PTR __$EHRec$[ebp+8], 2
  00042	89 65 ec	 mov	 DWORD PTR $T104315[ebp], esp
  00045	e8 00 00 00 00	 call	 ??$insert@U?$_List_iterator@V?$basic_string@DV?$char_traits@D@_STL@@V?$allocator@D@2@@_STL@@U?$_Const_traits@V?$basic_string@DV?$char_traits@D@_STL@@V?$allocator@D@2@@_STL@@@2@@_STL@@@?$list@V?$basic_string@DV?$char_traits@D@_STL@@V?$allocator@D@2@@_STL@@V?$allocator@V?$basic_string@DV?$char_traits@D@_STL@@V?$allocator@D@2@@_STL@@@2@@_STL@@QAEXU?$_List_iterator@V?$basic_string@DV?$char_traits@D@_STL@@V?$allocator@D@2@@_STL@@U?$_Nonconst_traits@V?$basic_string@DV?$char_traits@D@_STL@@V?$allocator@D@2@@_STL@@@2@@1@U?$_List_iterator@V?$basic_string@DV?$char_traits@D@_STL@@V?$allocator@D@2@@_STL@@U?$_Const_traits@V?$basic_string@DV?$char_traits@D@_STL@@V?$allocator@D@2@@_STL@@@2@@1@1@Z ; _STL::list<_STL::basic_string<char,_STL::char_traits<char>,_STL::allocator<char> >,_STL::allocator<_STL::basic_string<char,_STL::char_traits<char>,_STL::allocator<char> > > >::insert<_STL::_List_iterator<_STL::basic_string<char,_STL::char_traits<char>,_STL::allocator<char> >,_STL::_Const_traits<_STL::basic_string<char,_STL::char_traits<char>,_STL::allocator<char> > > > >
  0004a	8b 4d f4	 mov	 ecx, DWORD PTR __$EHRec$[ebp]
  0004d	5f		 pop	 edi
  0004e	8b c6		 mov	 eax, esi
  00050	64 89 0d 00 00
	00 00		 mov	 DWORD PTR fs:__except_list, ecx
  00057	5e		 pop	 esi
  00058	c9		 leave
  00059	c2 04 00	 ret	 4
_TEXT	ENDS
;	COMDAT text$x
text$x	SEGMENT
$L104316:
  00000	8d 4d 0b	 lea	 ecx, DWORD PTR $T104312[ebp]
  00003	e9 00 00 00 00	 jmp	 ??1?$allocator@V?$basic_string@DV?$char_traits@D@_STL@@V?$allocator@D@2@@_STL@@@_STL@@QAE@XZ ; _STL::allocator<_STL::basic_string<char,_STL::char_traits<char>,_STL::allocator<char> > >::~allocator<_STL::basic_string<char,_STL::char_traits<char>,_STL::allocator<char> > >
$L104317:
  00008	8b 4d f0	 mov	 ecx, DWORD PTR _this$[ebp]
  0000b	e9 00 00 00 00	 jmp	 ??1?$_List_base@V?$basic_string@DV?$char_traits@D@_STL@@V?$allocator@D@2@@_STL@@V?$allocator@V?$basic_string@DV?$char_traits@D@_STL@@V?$allocator@D@2@@_STL@@@2@@_STL@@QAE@XZ ; _STL::_List_base<_STL::basic_string<char,_STL::char_traits<char>,_STL::allocator<char> >,_STL::allocator<_STL::basic_string<char,_STL::char_traits<char>,_STL::allocator<char> > > >::~_List_base<_STL::basic_string<char,_STL::char_traits<char>,_STL::allocator<char> >,_STL::allocator<_STL::basic_string<char,_STL::char_traits<char>,_STL::allocator<char> > > >
__ehhandler$??0?$list@V?$basic_string@DV?$char_traits@D@_STL@@V?$allocator@D@2@@_STL@@V?$allocator@V?$basic_string@DV?$char_traits@D@_STL@@V?$allocator@D@2@@_STL@@@2@@_STL@@QAE@ABV01@@Z:
  00010	b8 00 00 00 00	 mov	 eax, OFFSET FLAT:$T104431
  00015	e9 00 00 00 00	 jmp	 ___CxxFrameHandler
text$x	ENDS
??0?$list@V?$basic_string@DV?$char_traits@D@_STL@@V?$allocator@D@2@@_STL@@V?$allocator@V?$basic_string@DV?$char_traits@D@_STL@@V?$allocator@D@2@@_STL@@@2@@_STL@@QAE@ABV01@@Z ENDP ; _STL::list<_STL::basic_string<char,_STL::char_traits<char>,_STL::allocator<char> >,_STL::allocator<_STL::basic_string<char,_STL::char_traits<char>,_STL::allocator<char> > > >::list<_STL::basic_string<char,_STL::char_traits<char>,_STL::allocator<char> >,_STL::allocator<_STL::basic_string<char,_STL::char_traits<char>,_STL::allocator<char> > > >
; Function compile flags: /Ogsy
; File c:\stlport-4.6.1\stlport\stl\_alloc.h
;	COMDAT ??1?$allocator@V?$basic_string@DV?$char_traits@D@_STL@@V?$allocator@D@2@@_STL@@@_STL@@QAE@XZ
_TEXT	SEGMENT
??1?$allocator@V?$basic_string@DV?$char_traits@D@_STL@@V?$allocator@D@2@@_STL@@@_STL@@QAE@XZ PROC NEAR ; _STL::allocator<_STL::basic_string<char,_STL::char_traits<char>,_STL::allocator<char> > >::~allocator<_STL::basic_string<char,_STL::char_traits<char>,_STL::allocator<char> > >, COMDAT
; _this$ = ecx

; 350  :   ~allocator() _STLP_NOTHROW {}

  00000	c3		 ret	 0
??1?$allocator@V?$basic_string@DV?$char_traits@D@_STL@@V?$allocator@D@2@@_STL@@@_STL@@QAE@XZ ENDP ; _STL::allocator<_STL::basic_string<char,_STL::char_traits<char>,_STL::allocator<char> > >::~allocator<_STL::basic_string<char,_STL::char_traits<char>,_STL::allocator<char> > >
; Function compile flags: /Ogsy
; File c:\stlport-4.6.1\stlport\stl\_list.h
_TEXT	ENDS
;	COMDAT ?get_allocator@?$_List_base@V?$basic_string@DV?$char_traits@D@_STL@@V?$allocator@D@2@@_STL@@V?$allocator@V?$basic_string@DV?$char_traits@D@_STL@@V?$allocator@D@2@@_STL@@@2@@_STL@@QBE?AV?$allocator@V?$basic_string@DV?$char_traits@D@_STL@@V?$allocator@D@2@@_STL@@@2@XZ
_TEXT	SEGMENT
___$ReturnUdt$ = 8					; size = 4
?get_allocator@?$_List_base@V?$basic_string@DV?$char_traits@D@_STL@@V?$allocator@D@2@@_STL@@V?$allocator@V?$basic_string@DV?$char_traits@D@_STL@@V?$allocator@D@2@@_STL@@@2@@_STL@@QBE?AV?$allocator@V?$basic_string@DV?$char_traits@D@_STL@@V?$allocator@D@2@@_STL@@@2@XZ PROC NEAR ; _STL::_List_base<_STL::basic_string<char,_STL::char_traits<char>,_STL::allocator<char> >,_STL::allocator<_STL::basic_string<char,_STL::char_traits<char>,_STL::allocator<char> > > >::get_allocator, COMDAT
; _this$ = ecx

; 179  :     return _STLP_CONVERT_ALLOCATOR((const _Node_allocator_type&)_M_node, _Tp);

  00000	8b 44 24 04	 mov	 eax, DWORD PTR ___$ReturnUdt$[esp-4]

; 180  :   }

  00004	c2 04 00	 ret	 4
?get_allocator@?$_List_base@V?$basic_string@DV?$char_traits@D@_STL@@V?$allocator@D@2@@_STL@@V?$allocator@V?$basic_string@DV?$char_traits@D@_STL@@V?$allocator@D@2@@_STL@@@2@@_STL@@QBE?AV?$allocator@V?$basic_string@DV?$char_traits@D@_STL@@V?$allocator@D@2@@_STL@@@2@XZ ENDP ; _STL::_List_base<_STL::basic_string<char,_STL::char_traits<char>,_STL::allocator<char> >,_STL::allocator<_STL::basic_string<char,_STL::char_traits<char>,_STL::allocator<char> > > >::get_allocator
_TEXT	ENDS
PUBLIC	??$_M_insert_dispatch@U?$_List_iterator@V?$basic_string@DV?$char_traits@D@_STL@@V?$allocator@D@2@@_STL@@U?$_Const_traits@V?$basic_string@DV?$char_traits@D@_STL@@V?$allocator@D@2@@_STL@@@2@@_STL@@@?$list@V?$basic_string@DV?$char_traits@D@_STL@@V?$allocator@D@2@@_STL@@V?$allocator@V?$basic_string@DV?$char_traits@D@_STL@@V?$allocator@D@2@@_STL@@@2@@_STL@@QAEXU?$_List_iterator@V?$basic_string@DV?$char_traits@D@_STL@@V?$allocator@D@2@@_STL@@U?$_Nonconst_traits@V?$basic_string@DV?$char_traits@D@_STL@@V?$allocator@D@2@@_STL@@@2@@1@U?$_List_iterator@V?$basic_string@DV?$char_traits@D@_STL@@V?$allocator@D@2@@_STL@@U?$_Const_traits@V?$basic_string@DV?$char_traits@D@_STL@@V?$allocator@D@2@@_STL@@@2@@1@1ABU__false_type@1@@Z ; _STL::list<_STL::basic_string<char,_STL::char_traits<char>,_STL::allocator<char> >,_STL::allocator<_STL::basic_string<char,_STL::char_traits<char>,_STL::allocator<char> > > >::_M_insert_dispatch<_STL::_List_iterator<_STL::basic_string<char,_STL::char_traits<char>,_STL::allocator<char> >,_STL::_Const_traits<_STL::basic_string<char,_STL::char_traits<char>,_STL::allocator<char> > > > >
; Function compile flags: /Ogsy
;	COMDAT ??$insert@U?$_List_iterator@V?$basic_string@DV?$char_traits@D@_STL@@V?$allocator@D@2@@_STL@@U?$_Const_traits@V?$basic_string@DV?$char_traits@D@_STL@@V?$allocator@D@2@@_STL@@@2@@_STL@@@?$list@V?$basic_string@DV?$char_traits@D@_STL@@V?$allocator@D@2@@_STL@@V?$allocator@V?$basic_string@DV?$char_traits@D@_STL@@V?$allocator@D@2@@_STL@@@2@@_STL@@QAEXU?$_List_iterator@V?$basic_string@DV?$char_traits@D@_STL@@V?$allocator@D@2@@_STL@@U?$_Nonconst_traits@V?$basic_string@DV?$char_traits@D@_STL@@V?$allocator@D@2@@_STL@@@2@@1@U?$_List_iterator@V?$basic_string@DV?$char_traits@D@_STL@@V?$allocator@D@2@@_STL@@U?$_Const_traits@V?$basic_string@DV?$char_traits@D@_STL@@V?$allocator@D@2@@_STL@@@2@@1@1@Z
_TEXT	SEGMENT
$T104447 = -1						; size = 1
___pos$ = 8						; size = 4
___first$ = 12						; size = 4
___last$ = 16						; size = 4
??$insert@U?$_List_iterator@V?$basic_string@DV?$char_traits@D@_STL@@V?$allocator@D@2@@_STL@@U?$_Const_traits@V?$basic_string@DV?$char_traits@D@_STL@@V?$allocator@D@2@@_STL@@@2@@_STL@@@?$list@V?$basic_string@DV?$char_traits@D@_STL@@V?$allocator@D@2@@_STL@@V?$allocator@V?$basic_string@DV?$char_traits@D@_STL@@V?$allocator@D@2@@_STL@@@2@@_STL@@QAEXU?$_List_iterator@V?$basic_string@DV?$char_traits@D@_STL@@V?$allocator@D@2@@_STL@@U?$_Nonconst_traits@V?$basic_string@DV?$char_traits@D@_STL@@V?$allocator@D@2@@_STL@@@2@@1@U?$_List_iterator@V?$basic_string@DV?$char_traits@D@_STL@@V?$allocator@D@2@@_STL@@U?$_Const_traits@V?$basic_string@DV?$char_traits@D@_STL@@V?$allocator@D@2@@_STL@@@2@@1@1@Z PROC NEAR ; _STL::list<_STL::basic_string<char,_STL::char_traits<char>,_STL::allocator<char> >,_STL::allocator<_STL::basic_string<char,_STL::char_traits<char>,_STL::allocator<char> > > >::insert<_STL::_List_iterator<_STL::basic_string<char,_STL::char_traits<char>,_STL::allocator<char> >,_STL::_Const_traits<_STL::basic_string<char,_STL::char_traits<char>,_STL::allocator<char> > > > >, COMDAT
; _this$ = ecx

; 312  :   void insert(iterator __pos, _InputIterator __first, _InputIterator __last) {

  00000	55		 push	 ebp
  00001	8b ec		 mov	 ebp, esp
  00003	51		 push	 ecx

; 313  :     typedef typename _Is_integer<_InputIterator>::_Integral _Integral;
; 314  :     _M_insert_dispatch(__pos, __first, __last, _Integral());

  00004	8b 55 08	 mov	 edx, DWORD PTR ___pos$[ebp]
  00007	57		 push	 edi
  00008	33 c0		 xor	 eax, eax
  0000a	8d 7d ff	 lea	 edi, DWORD PTR $T104447[ebp]
  0000d	aa		 stosb
  0000e	8d 45 ff	 lea	 eax, DWORD PTR $T104447[ebp]
  00011	50		 push	 eax
  00012	ff 75 10	 push	 DWORD PTR ___last$[ebp]
  00015	ff 75 0c	 push	 DWORD PTR ___first$[ebp]
  00018	51		 push	 ecx
  00019	8b c4		 mov	 eax, esp
  0001b	89 10		 mov	 DWORD PTR [eax], edx
  0001d	e8 00 00 00 00	 call	 ??$_M_insert_dispatch@U?$_List_iterator@V?$basic_string@DV?$char_traits@D@_STL@@V?$allocator@D@2@@_STL@@U?$_Const_traits@V?$basic_string@DV?$char_traits@D@_STL@@V?$allocator@D@2@@_STL@@@2@@_STL@@@?$list@V?$basic_string@DV?$char_traits@D@_STL@@V?$allocator@D@2@@_STL@@V?$allocator@V?$basic_string@DV?$char_traits@D@_STL@@V?$allocator@D@2@@_STL@@@2@@_STL@@QAEXU?$_List_iterator@V?$basic_string@DV?$char_traits@D@_STL@@V?$allocator@D@2@@_STL@@U?$_Nonconst_traits@V?$basic_string@DV?$char_traits@D@_STL@@V?$allocator@D@2@@_STL@@@2@@1@U?$_List_iterator@V?$basic_string@DV?$char_traits@D@_STL@@V?$allocator@D@2@@_STL@@U?$_Const_traits@V?$basic_string@DV?$char_traits@D@_STL@@V?$allocator@D@2@@_STL@@@2@@1@1ABU__false_type@1@@Z ; _STL::list<_STL::basic_string<char,_STL::char_traits<char>,_STL::allocator<char> >,_STL::allocator<_STL::basic_string<char,_STL::char_traits<char>,_STL::allocator<char> > > >::_M_insert_dispatch<_STL::_List_iterator<_STL::basic_string<char,_STL::char_traits<char>,_STL::allocator<char> >,_STL::_Const_traits<_STL::basic_string<char,_STL::char_traits<char>,_STL::allocator<char> > > > >

; 315  :   }

  00022	5f		 pop	 edi
  00023	c9		 leave
  00024	c2 0c 00	 ret	 12			; 0000000cH
??$insert@U?$_List_iterator@V?$basic_string@DV?$char_traits@D@_STL@@V?$allocator@D@2@@_STL@@U?$_Const_traits@V?$basic_string@DV?$char_traits@D@_STL@@V?$allocator@D@2@@_STL@@@2@@_STL@@@?$list@V?$basic_string@DV?$char_traits@D@_STL@@V?$allocator@D@2@@_STL@@V?$allocator@V?$basic_string@DV?$char_traits@D@_STL@@V?$allocator@D@2@@_STL@@@2@@_STL@@QAEXU?$_List_iterator@V?$basic_string@DV?$char_traits@D@_STL@@V?$allocator@D@2@@_STL@@U?$_Nonconst_traits@V?$basic_string@DV?$char_traits@D@_STL@@V?$allocator@D@2@@_STL@@@2@@1@U?$_List_iterator@V?$basic_string@DV?$char_traits@D@_STL@@V?$allocator@D@2@@_STL@@U?$_Const_traits@V?$basic_string@DV?$char_traits@D@_STL@@V?$allocator@D@2@@_STL@@@2@@1@1@Z ENDP ; _STL::list<_STL::basic_string<char,_STL::char_traits<char>,_STL::allocator<char> >,_STL::allocator<_STL::basic_string<char,_STL::char_traits<char>,_STL::allocator<char> > > >::insert<_STL::_List_iterator<_STL::basic_string<char,_STL::char_traits<char>,_STL::allocator<char> >,_STL::_Const_traits<_STL::basic_string<char,_STL::char_traits<char>,_STL::allocator<char> > > > >
_TEXT	ENDS
PUBLIC	?_M_create_node@?$list@V?$basic_string@DV?$char_traits@D@_STL@@V?$allocator@D@2@@_STL@@V?$allocator@V?$basic_string@DV?$char_traits@D@_STL@@V?$allocator@D@2@@_STL@@@2@@_STL@@IAEPAU?$_List_node@V?$basic_string@DV?$char_traits@D@_STL@@V?$allocator@D@2@@_STL@@@2@ABV?$basic_string@DV?$char_traits@D@_STL@@V?$allocator@D@2@@2@@Z ; _STL::list<_STL::basic_string<char,_STL::char_traits<char>,_STL::allocator<char> >,_STL::allocator<_STL::basic_string<char,_STL::char_traits<char>,_STL::allocator<char> > > >::_M_create_node
; Function compile flags: /Ogsy
;	COMDAT ??$_M_insert_dispatch@U?$_List_iterator@V?$basic_string@DV?$char_traits@D@_STL@@V?$allocator@D@2@@_STL@@U?$_Const_traits@V?$basic_string@DV?$char_traits@D@_STL@@V?$allocator@D@2@@_STL@@@2@@_STL@@@?$list@V?$basic_string@DV?$char_traits@D@_STL@@V?$allocator@D@2@@_STL@@V?$allocator@V?$basic_string@DV?$char_traits@D@_STL@@V?$allocator@D@2@@_STL@@@2@@_STL@@QAEXU?$_List_iterator@V?$basic_string@DV?$char_traits@D@_STL@@V?$allocator@D@2@@_STL@@U?$_Nonconst_traits@V?$basic_string@DV?$char_traits@D@_STL@@V?$allocator@D@2@@_STL@@@2@@1@U?$_List_iterator@V?$basic_string@DV?$char_traits@D@_STL@@V?$allocator@D@2@@_STL@@U?$_Const_traits@V?$basic_string@DV?$char_traits@D@_STL@@V?$allocator@D@2@@_STL@@@2@@1@1ABU__false_type@1@@Z
_TEXT	SEGMENT
___position$ = 8					; size = 4
___first$ = 12						; size = 4
___last$ = 16						; size = 4
___formal$ = 20						; size = 4
??$_M_insert_dispatch@U?$_List_iterator@V?$basic_string@DV?$char_traits@D@_STL@@V?$allocator@D@2@@_STL@@U?$_Const_traits@V?$basic_string@DV?$char_traits@D@_STL@@V?$allocator@D@2@@_STL@@@2@@_STL@@@?$list@V?$basic_string@DV?$char_traits@D@_STL@@V?$allocator@D@2@@_STL@@V?$allocator@V?$basic_string@DV?$char_traits@D@_STL@@V?$allocator@D@2@@_STL@@@2@@_STL@@QAEXU?$_List_iterator@V?$basic_string@DV?$char_traits@D@_STL@@V?$allocator@D@2@@_STL@@U?$_Nonconst_traits@V?$basic_string@DV?$char_traits@D@_STL@@V?$allocator@D@2@@_STL@@@2@@1@U?$_List_iterator@V?$basic_string@DV?$char_traits@D@_STL@@V?$allocator@D@2@@_STL@@U?$_Const_traits@V?$basic_string@DV?$char_traits@D@_STL@@V?$allocator@D@2@@_STL@@@2@@1@1ABU__false_type@1@@Z PROC NEAR ; _STL::list<_STL::basic_string<char,_STL::char_traits<char>,_STL::allocator<char> >,_STL::allocator<_STL::basic_string<char,_STL::char_traits<char>,_STL::allocator<char> > > >::_M_insert_dispatch<_STL::_List_iterator<_STL::basic_string<char,_STL::char_traits<char>,_STL::allocator<char> >,_STL::_Const_traits<_STL::basic_string<char,_STL::char_traits<char>,_STL::allocator<char> > > > >, COMDAT
; _this$ = ecx

; 323  :   void 

  00000	53		 push	 ebx
  00001	56		 push	 esi

; 324  :   _M_insert_dispatch(iterator __position,
; 325  : 		     _InputIter __first, _InputIter __last,
; 326  : 		     const __false_type&) 
; 327  : #else /* _STLP_MEMBER_TEMPLATES */
; 328  :   void insert(iterator __position, const _Tp* __first, const _Tp* __last) {
; 329  :     for ( ; __first != __last; ++__first)
; 330  :       insert(__position, *__first);
; 331  :   }
; 332  :   void insert(iterator __position, const_iterator __first, const_iterator __last)
; 333  : #endif /* _STLP_MEMBER_TEMPLATES */
; 334  :   {
; 335  :     for ( ; __first != __last; ++__first)

  00002	8b 74 24 10	 mov	 esi, DWORD PTR ___first$[esp+4]
  00006	3b 74 24 14	 cmp	 esi, DWORD PTR ___last$[esp+4]
  0000a	57		 push	 edi
  0000b	8b d9		 mov	 ebx, ecx
  0000d	74 24		 je	 SHORT $L102563
  0000f	8b 7c 24 10	 mov	 edi, DWORD PTR ___position$[esp+8]
$L104517:

; 336  :       insert(__position, *__first);

  00013	8d 46 08	 lea	 eax, DWORD PTR [esi+8]
  00016	50		 push	 eax
  00017	8b cb		 mov	 ecx, ebx
  00019	e8 00 00 00 00	 call	 ?_M_create_node@?$list@V?$basic_string@DV?$char_traits@D@_STL@@V?$allocator@D@2@@_STL@@V?$allocator@V?$basic_string@DV?$char_traits@D@_STL@@V?$allocator@D@2@@_STL@@@2@@_STL@@IAEPAU?$_List_node@V?$basic_string@DV?$char_traits@D@_STL@@V?$allocator@D@2@@_STL@@@2@ABV?$basic_string@DV?$char_traits@D@_STL@@V?$allocator@D@2@@2@@Z ; _STL::list<_STL::basic_string<char,_STL::char_traits<char>,_STL::allocator<char> >,_STL::allocator<_STL::basic_string<char,_STL::char_traits<char>,_STL::allocator<char> > > >::_M_create_node
  0001e	8b 4f 04	 mov	 ecx, DWORD PTR [edi+4]
  00021	89 38		 mov	 DWORD PTR [eax], edi
  00023	89 48 04	 mov	 DWORD PTR [eax+4], ecx
  00026	89 01		 mov	 DWORD PTR [ecx], eax
  00028	89 47 04	 mov	 DWORD PTR [edi+4], eax
  0002b	8b 36		 mov	 esi, DWORD PTR [esi]
  0002d	3b 74 24 18	 cmp	 esi, DWORD PTR ___last$[esp+8]
  00031	75 e0		 jne	 SHORT $L104517
$L102563:

; 337  :   }

  00033	5f		 pop	 edi
  00034	5e		 pop	 esi
  00035	5b		 pop	 ebx
  00036	c2 10 00	 ret	 16			; 00000010H
??$_M_insert_dispatch@U?$_List_iterator@V?$basic_string@DV?$char_traits@D@_STL@@V?$allocator@D@2@@_STL@@U?$_Const_traits@V?$basic_string@DV?$char_traits@D@_STL@@V?$allocator@D@2@@_STL@@@2@@_STL@@@?$list@V?$basic_string@DV?$char_traits@D@_STL@@V?$allocator@D@2@@_STL@@V?$allocator@V?$basic_string@DV?$char_traits@D@_STL@@V?$allocator@D@2@@_STL@@@2@@_STL@@QAEXU?$_List_iterator@V?$basic_string@DV?$char_traits@D@_STL@@V?$allocator@D@2@@_STL@@U?$_Nonconst_traits@V?$basic_string@DV?$char_traits@D@_STL@@V?$allocator@D@2@@_STL@@@2@@1@U?$_List_iterator@V?$basic_string@DV?$char_traits@D@_STL@@V?$allocator@D@2@@_STL@@U?$_Const_traits@V?$basic_string@DV?$char_traits@D@_STL@@V?$allocator@D@2@@_STL@@@2@@1@1ABU__false_type@1@@Z ENDP ; _STL::list<_STL::basic_string<char,_STL::char_traits<char>,_STL::allocator<char> >,_STL::allocator<_STL::basic_string<char,_STL::char_traits<char>,_STL::allocator<char> > > >::_M_insert_dispatch<_STL::_List_iterator<_STL::basic_string<char,_STL::char_traits<char>,_STL::allocator<char> >,_STL::_Const_traits<_STL::basic_string<char,_STL::char_traits<char>,_STL::allocator<char> > > > >
_TEXT	ENDS
PUBLIC	??3@YAXPAX0@Z					; operator delete
;	COMDAT xdata$x
; File c:\stlport-4.6.1\stlport\stl\_alloc.h
xdata$x	SEGMENT
$T104593 DD	0ffffffffH
	DD	00H
	DD	00H
	DD	FLAT:$L104572
	DD	0ffffffffH
	DD	00H
$T104595 DD	00H
	DD	00H
	DD	00H
	DD	FLAT:$L104559
$T104594 DD	00H
	DD	01H
	DD	02H
	DD	01H
	DD	FLAT:$T104595
$T104590 DD	019930520H
	DD	03H
	DD	FLAT:$T104593
	DD	01H
	DD	FLAT:$T104594
	DD	2 DUP(00H)
; Function compile flags: /Ogsy
; File c:\stlport-4.6.1\stlport\stl\_list.h
xdata$x	ENDS
;	COMDAT ?_M_create_node@?$list@V?$basic_string@DV?$char_traits@D@_STL@@V?$allocator@D@2@@_STL@@V?$allocator@V?$basic_string@DV?$char_traits@D@_STL@@V?$allocator@D@2@@_STL@@@2@@_STL@@IAEPAU?$_List_node@V?$basic_string@DV?$char_traits@D@_STL@@V?$allocator@D@2@@_STL@@@2@ABV?$basic_string@DV?$char_traits@D@_STL@@V?$allocator@D@2@@2@@Z
_TEXT	SEGMENT
$T104578 = -28						; size = 4
$T104584 = -24						; size = 4
___p$ = -20						; size = 4
__$EHRec$ = -16						; size = 16
___x$ = 8						; size = 4
?_M_create_node@?$list@V?$basic_string@DV?$char_traits@D@_STL@@V?$allocator@D@2@@_STL@@V?$allocator@V?$basic_string@DV?$char_traits@D@_STL@@V?$allocator@D@2@@_STL@@@2@@_STL@@IAEPAU?$_List_node@V?$basic_string@DV?$char_traits@D@_STL@@V?$allocator@D@2@@_STL@@@2@ABV?$basic_string@DV?$char_traits@D@_STL@@V?$allocator@D@2@@2@@Z PROC NEAR ; _STL::list<_STL::basic_string<char,_STL::char_traits<char>,_STL::allocator<char> >,_STL::allocator<_STL::basic_string<char,_STL::char_traits<char>,_STL::allocator<char> > > >::_M_create_node, COMDAT
; _this$ = ecx

; 240  :   {

  00000	b8 00 00 00 00	 mov	 eax, __ehhandler$?_M_create_node@?$list@V?$basic_string@DV?$char_traits@D@_STL@@V?$allocator@D@2@@_STL@@V?$allocator@V?$basic_string@DV?$char_traits@D@_STL@@V?$allocator@D@2@@_STL@@@2@@_STL@@IAEPAU?$_List_node@V?$basic_string@DV?$char_traits@D@_STL@@V?$allocator@D@2@@_STL@@@2@ABV?$basic_string@DV?$char_traits@D@_STL@@V?$allocator@D@2@@2@@Z
  00005	e8 00 00 00 00	 call	 __EH_prolog
  0000a	83 ec 10	 sub	 esp, 16			; 00000010H
  0000d	53		 push	 ebx
  0000e	56		 push	 esi
  0000f	57		 push	 edi
  00010	89 65 f0	 mov	 DWORD PTR __$EHRec$[ebp], esp

; 241  :     _Node* __p = this->_M_node.allocate(1);

  00013	6a 14		 push	 20			; 00000014H
  00015	e8 00 00 00 00	 call	 ?allocate@?$__node_alloc@$00$0A@@_STL@@SAPAXI@Z ; _STL::__node_alloc<1,0>::allocate

; 242  :     _STLP_TRY {

  0001a	83 65 fc 00	 and	 DWORD PTR __$EHRec$[ebp+12], 0
  0001e	8b f0		 mov	 esi, eax
  00020	59		 pop	 ecx

; 243  :       _Construct(&__p->_M_data, __x);

  00021	8d 4e 08	 lea	 ecx, DWORD PTR [esi+8]
  00024	89 75 ec	 mov	 DWORD PTR ___p$[ebp], esi
  00027	89 4d e8	 mov	 DWORD PTR $T104584[ebp], ecx
  0002a	89 4d e4	 mov	 DWORD PTR $T104578[ebp], ecx
  0002d	85 c9		 test	 ecx, ecx
  0002f	c6 45 fc 01	 mov	 BYTE PTR __$EHRec$[ebp+12], 1
  00033	74 08		 je	 SHORT $L104579
  00035	ff 75 08	 push	 DWORD PTR ___x$[ebp]
  00038	e8 00 00 00 00	 call	 ??0?$basic_string@DV?$char_traits@D@_STL@@V?$allocator@D@2@@_STL@@QAE@ABV01@@Z ; _STL::basic_string<char,_STL::char_traits<char>,_STL::allocator<char> >::basic_string<char,_STL::char_traits<char>,_STL::allocator<char> >
$L104579:

; 246  :     return __p;
; 247  :   }

  0003d	8b 4d f4	 mov	 ecx, DWORD PTR __$EHRec$[ebp+4]
  00040	5f		 pop	 edi
  00041	8b c6		 mov	 eax, esi
  00043	5e		 pop	 esi
  00044	64 89 0d 00 00
	00 00		 mov	 DWORD PTR fs:__except_list, ecx
  0004b	5b		 pop	 ebx
  0004c	c9		 leave
  0004d	c2 04 00	 ret	 4
$L104559:

; 244  :     }
; 245  :     _STLP_UNWIND(this->_M_node.deallocate(__p, 1));

  00050	83 7d ec 00	 cmp	 DWORD PTR ___p$[ebp], 0
  00054	74 0c		 je	 SHORT $L104588
  00056	6a 14		 push	 20			; 00000014H
  00058	ff 75 ec	 push	 DWORD PTR ___p$[ebp]
  0005b	e8 00 00 00 00	 call	 ?deallocate@?$__node_alloc@$00$0A@@_STL@@SAXPAXI@Z ; _STL::__node_alloc<1,0>::deallocate
  00060	59		 pop	 ecx
  00061	59		 pop	 ecx
$L104588:
  00062	6a 00		 push	 0
  00064	6a 00		 push	 0
  00066	e8 00 00 00 00	 call	 __CxxThrowException@8
$L104596:
$L104592:
  0006b	cc		 int	 3
_TEXT	ENDS
;	COMDAT text$x
text$x	SEGMENT
$L104572:
  00000	ff 75 e8	 push	 DWORD PTR $T104584[ebp]
  00003	ff 75 e4	 push	 DWORD PTR $T104578[ebp]
  00006	e8 00 00 00 00	 call	 ??3@YAXPAX0@Z		; operator delete
  0000b	59		 pop	 ecx
  0000c	59		 pop	 ecx
  0000d	c3		 ret	 0
__ehhandler$?_M_create_node@?$list@V?$basic_string@DV?$char_traits@D@_STL@@V?$allocator@D@2@@_STL@@V?$allocator@V?$basic_string@DV?$char_traits@D@_STL@@V?$allocator@D@2@@_STL@@@2@@_STL@@IAEPAU?$_List_node@V?$basic_string@DV?$char_traits@D@_STL@@V?$allocator@D@2@@_STL@@@2@ABV?$basic_string@DV?$char_traits@D@_STL@@V?$allocator@D@2@@2@@Z:
  0000e	b8 00 00 00 00	 mov	 eax, OFFSET FLAT:$T104590
  00013	e9 00 00 00 00	 jmp	 ___CxxFrameHandler
text$x	ENDS
?_M_create_node@?$list@V?$basic_string@DV?$char_traits@D@_STL@@V?$allocator@D@2@@_STL@@V?$allocator@V?$basic_string@DV?$char_traits@D@_STL@@V?$allocator@D@2@@_STL@@@2@@_STL@@IAEPAU?$_List_node@V?$basic_string@DV?$char_traits@D@_STL@@V?$allocator@D@2@@_STL@@@2@ABV?$basic_string@DV?$char_traits@D@_STL@@V?$allocator@D@2@@2@@Z ENDP ; _STL::list<_STL::basic_string<char,_STL::char_traits<char>,_STL::allocator<char> >,_STL::allocator<_STL::basic_string<char,_STL::char_traits<char>,_STL::allocator<char> > > >::_M_create_node
; Function compile flags: /Ogsy
; File c:\program files\microsoft visual studio .net 2003\vc7\include\new
;	COMDAT ??3@YAXPAX0@Z
_TEXT	SEGMENT
___formal$ = 8						; size = 4
___formal$ = 12						; size = 4
??3@YAXPAX0@Z PROC NEAR					; operator delete, COMDAT

; 69   : 	}

  00000	c3		 ret	 0
??3@YAXPAX0@Z ENDP					; operator delete
; Function compile flags: /Ogsy
_TEXT	ENDS
;	COMDAT ??0Error@@QAE@ABV0@@Z
_TEXT	SEGMENT
___that$ = 8						; size = 4
??0Error@@QAE@ABV0@@Z PROC NEAR				; Error::Error, COMDAT
; _this$ = ecx
  00000	56		 push	 esi
  00001	ff 74 24 08	 push	 DWORD PTR ___that$[esp]
  00005	8b f1		 mov	 esi, ecx
  00007	e8 00 00 00 00	 call	 ??0Throwable@@QAE@ABV0@@Z
  0000c	c7 06 00 00 00
	00		 mov	 DWORD PTR [esi], OFFSET FLAT:??_7Error@@6B@
  00012	8b c6		 mov	 eax, esi
  00014	5e		 pop	 esi
  00015	c2 04 00	 ret	 4
??0Error@@QAE@ABV0@@Z ENDP				; Error::Error
; Function compile flags: /Ogsy
_TEXT	ENDS
;	COMDAT ??0UnsupportedError@@QAE@ABV0@@Z
_TEXT	SEGMENT
___that$ = 8						; size = 4
??0UnsupportedError@@QAE@ABV0@@Z PROC NEAR		; UnsupportedError::UnsupportedError, COMDAT
; _this$ = ecx
  00000	56		 push	 esi
  00001	ff 74 24 08	 push	 DWORD PTR ___that$[esp]
  00005	8b f1		 mov	 esi, ecx
  00007	e8 00 00 00 00	 call	 ??0Error@@QAE@ABV0@@Z
  0000c	c7 06 00 00 00
	00		 mov	 DWORD PTR [esi], OFFSET FLAT:??_7UnsupportedError@@6B@
  00012	8b c6		 mov	 eax, esi
  00014	5e		 pop	 esi
  00015	c2 04 00	 ret	 4
??0UnsupportedError@@QAE@ABV0@@Z ENDP			; UnsupportedError::UnsupportedError
_TEXT	ENDS
PUBLIC	??_C@_09EMOGKKPB@BASIC_STR?$AA@			; `string'
PUBLIC	??_C@_0M@EJOONLND@CURRENT_STR?$AA@		; `string'
PUBLIC	??_C@_07KKCHECBB@MAX_STR?$AA@			; `string'
PUBLIC	??_C@_0P@CEHLLGLK@STR_EXP_REMAIN?$AA@		; `string'
PUBLIC	??_C@_09GGCDOEBK@BASIC_DEX?$AA@			; `string'
PUBLIC	??_C@_0M@GDCLJFDI@CURRENT_DEX?$AA@		; `string'
PUBLIC	??_C@_07IAOCAMPK@MAX_DEX?$AA@			; `string'
PUBLIC	??_C@_0P@DKPKJNND@DEX_EXP_REMAIN?$AA@		; `string'
PUBLIC	??_C@_09DEKJJMCK@BASIC_INT?$AA@			; `string'
PUBLIC	??_C@_0M@DBKBONAI@CURRENT_INT?$AA@		; `string'
PUBLIC	??_C@_07NCGIHEMK@MAX_INT?$AA@			; `string'
PUBLIC	??_C@_0P@BDHGGNMJ@INT_EXP_REMAIN?$AA@		; `string'
PUBLIC	??_C@_0L@HGOGCHKL@CURRENT_HP?$AA@		; `string'
PUBLIC	??_C@_06NMHEPHCD@MAX_HP?$AA@			; `string'
PUBLIC	??_C@_0L@HACNOFEA@CURRENT_MP?$AA@		; `string'
PUBLIC	??_C@_06NKLPDFMI@MAX_MP?$AA@			; `string'
PUBLIC	??_C@_0L@HOANAEGI@MIN_DAMAGE?$AA@		; `string'
PUBLIC	??_C@_0L@LCAAHPGH@MAX_DAMAGE?$AA@		; `string'
PUBLIC	??_C@_07PABEIMLA@DEFENSE?$AA@			; `string'
PUBLIC	??_C@_0L@CACMAAHO@PROTECTION?$AA@		; `string'
PUBLIC	??_C@_05PMLNIFOI@TOHIT?$AA@			; `string'
PUBLIC	??_C@_06IGFCKNHC@VISION?$AA@			; `string'
PUBLIC	??_C@_04DIIKDPIA@FAME?$AA@			; `string'
PUBLIC	??_C@_04PNOMDKHF@GOLD?$AA@			; `string'
PUBLIC	??_C@_0BD@KMGAIODB@SWORD_DOMAIN_LEVEL?$AA@	; `string'
PUBLIC	??_C@_0BI@BGNAADGH@SWORD_DOMAIN_EXP_REMAIN?$AA@	; `string'
PUBLIC	??_C@_0BG@IGGENAK@SWORD_DOMAIN_GOAL_EXP?$AA@	; `string'
PUBLIC	??_C@_0BD@PGNNGOBB@BLADE_DOMAIN_LEVEL?$AA@	; `string'
PUBLIC	??_C@_0BI@IMLMLFMG@BLADE_DOMAIN_EXP_REMAIN?$AA@	; `string'
PUBLIC	??_C@_0BG@NLIFDHGN@BLADE_DOMAIN_GOAL_EXP?$AA@	; `string'
PUBLIC	??_C@_0BC@GPJLIFK@HEAL_DOMAIN_LEVEL?$AA@	; `string'
PUBLIC	??_C@_0BH@ILFIDFFK@HEAL_DOMAIN_EXP_REMAIN?$AA@	; `string'
PUBLIC	??_C@_0BF@EMCLNDPE@HEAL_DOMAIN_GOAL_EXP?$AA@	; `string'
PUBLIC	??_C@_0BF@ONHDOKIF@ENCHANT_DOMAIN_LEVEL?$AA@	; `string'
PUBLIC	??_C@_0BK@LANBKOIK@ENCHANT_DOMAIN_EXP_REMAIN?$AA@ ; `string'
PUBLIC	??_C@_0BI@EPBOPEPK@ENCHANT_DOMAIN_GOAL_EXP?$AA@	; `string'
PUBLIC	??_C@_0BB@ELHNALIJ@GUN_DOMAIN_LEVEL?$AA@	; `string'
PUBLIC	??_C@_0BG@OJCBFDLD@GUN_DOMAIN_EXP_REMAIN?$AA@	; `string'
PUBLIC	??_C@_0BE@OGNJOCJC@GUN_DOMAIN_GOAL_EXP?$AA@	; `string'
PUBLIC	??_C@_0BB@MNCHHIND@ETC_DOMAIN_LEVEL?$AA@	; `string'
PUBLIC	??_C@_0BG@OOPKBPAA@ETC_DOMAIN_EXP_REMAIN?$AA@	; `string'
PUBLIC	??_C@_0BE@IFONLKN@ETC_DOMAIN_GOAL_EXP?$AA@	; `string'
PUBLIC	??_C@_0M@OHHCLPDA@SKILL_LEVEL?$AA@		; `string'
PUBLIC	??_C@_05GCEPFMCO@LEVEL?$AA@			; `string'
PUBLIC	??_C@_0M@MLFPLLC@EFFECT_STAT?$AA@		; `string'
PUBLIC	??_C@_08MJLDLDGF@DURATION?$AA@			; `string'
PUBLIC	??_C@_06JADFICD@BULLET?$AA@			; `string'
PUBLIC	??_C@_0M@DPKCELMF@BONUS_POINT?$AA@		; `string'
PUBLIC	??_C@_0L@JEFHDPIL@DURABILITY?$AA@		; `string'
PUBLIC	??_C@_09EGKBMPFK@NOTORIETY?$AA@			; `string'
PUBLIC	??_C@_0BA@MAIHAHDB@VAMP_EXP_REMAIN?$AA@		; `string'
PUBLIC	??_C@_0O@ENDFFBFD@SILVER_DAMAGE?$AA@		; `string'
PUBLIC	??_C@_0N@KMAAPCII@ATTACK_SPEED?$AA@		; `string'
PUBLIC	??_C@_09HPPNPOEE@ALIGNMENT?$AA@			; `string'
PUBLIC	??_C@_0BC@BNIPJKDA@SILVER_DURABILITY?$AA@	; `string'
PUBLIC	??_C@_0L@HJJLGOIM@REGEN_RATE?$AA@		; `string'
PUBLIC	??_C@_07ICBEDALK@GUILDID?$AA@			; `string'
PUBLIC	??_C@_04DBCPJNBF@RANK?$AA@			; `string'
PUBLIC	??_C@_0BA@DLBJHHBE@RANK_EXP_REMAIN?$AA@		; `string'
PUBLIC	??_C@_0BD@BBMKLBCL@OUSTERS_EXP_REMAIN?$AA@	; `string'
PUBLIC	??_C@_0BC@IMLFGMDG@SKILL_BONUS_POINT?$AA@	; `string'
PUBLIC	??_C@_0P@PEHNMFMM@ELEMENTAL_FIRE?$AA@		; `string'
PUBLIC	??_C@_0BA@MHDKAJKL@ELEMENTAL_WATER?$AA@		; `string'
PUBLIC	??_C@_0BA@BIGMGHL@ELEMENTAL_EARTH?$AA@		; `string'
PUBLIC	??_C@_0P@KFNKBAKL@ELEMENTAL_WIND?$AA@		; `string'
PUBLIC	??_C@_09BBOPOJIN@SKILL_EXP?$AA@			; `string'
PUBLIC	??_C@_06IEBMKFDK@PET_HP?$AA@			; `string'
PUBLIC	??_C@_0P@GOFONOAE@PET_EXP_REMAIN?$AA@		; `string'
PUBLIC	??_C@_0M@KIBGPGKM@LAST_TARGET?$AA@		; `string'
PUBLIC	??_C@_07PBEOFEGM@UNIONID?$AA@			; `string'
PUBLIC	??_C@_0L@COBGECE@UNIONGRADE?$AA@		; `string'
PUBLIC	??_C@_0BI@LHEPMHDM@ADVANCEMENT_CLASS_LEVEL?$AA@	; `string'
PUBLIC	??_C@_0BL@IKNEBHFH@ADVANCEMENT_CLASS_GOAL_EXP?$AA@ ; `string'
PUBLIC	??_C@_0BJ@PIJGHHAP@ATTACK_BLOOD_BURST_POINT?$AA@ ; `string'
PUBLIC	??_C@_0BK@BJJBOCNF@DEFENSE_BLOOD_BURST_POINT?$AA@ ; `string'
PUBLIC	??_C@_0BI@MHOBEFBP@PARTY_BLOOD_BURST_POINT?$AA@	; `string'
PUBLIC	??_C@_0BD@BPOFFKFG@ADVANCED_SLAYERSTR?$AA@	; `string'
PUBLIC	??_C@_0BD@DFCABELN@ADVANCED_SLAYERDEX?$AA@	; `string'
PUBLIC	??_C@_0BD@GHKKGMIN@ADVANCED_SLAYERINT?$AA@	; `string'
PUBLIC	??_C@_0BB@JLMOMJOK@CONTRIBUTE_POINT?$AA@	; `string'
PUBLIC	??_C@_08IKEGEPEJ@DIANJUAN?$AA@			; `string'
PUBLIC	??_C@_03LEPPJAKI@MAX?$AA@			; `string'
EXTRN	_atexit:NEAR
CRT$XCU	SEGMENT
_$S81	DD	FLAT:_$E79
CRT$XCU	ENDS
;	COMDAT xdata$x
; File c:\stlport-4.6.1\stlport\stl\_alloc.h
xdata$x	SEGMENT
$T105271 DD	0ffffffffH
	DD	FLAT:$L104694
	DD	00H
	DD	FLAT:$L104695
	DD	01H
	DD	FLAT:$L104696
	DD	02H
	DD	FLAT:$L104697
	DD	03H
	DD	FLAT:$L104698
	DD	04H
	DD	FLAT:$L104699
	DD	05H
	DD	FLAT:$L104700
	DD	06H
	DD	FLAT:$L104701
	DD	07H
	DD	FLAT:$L104702
	DD	08H
	DD	FLAT:$L104703
	DD	09H
	DD	FLAT:$L104704
	DD	0aH
	DD	FLAT:$L104705
	DD	0bH
	DD	FLAT:$L104706
	DD	0cH
	DD	FLAT:$L104707
	DD	0dH
	DD	FLAT:$L104708
	DD	0eH
	DD	FLAT:$L104709
	DD	0fH
	DD	FLAT:$L104710
	DD	010H
	DD	FLAT:$L104711
	DD	011H
	DD	FLAT:$L104712
	DD	012H
	DD	FLAT:$L104713
	DD	013H
	DD	FLAT:$L104714
	DD	014H
	DD	FLAT:$L104715
	DD	015H
	DD	FLAT:$L104716
	DD	016H
	DD	FLAT:$L104717
	DD	017H
	DD	FLAT:$L104718
	DD	018H
	DD	FLAT:$L104719
	DD	019H
	DD	FLAT:$L104720
	DD	01aH
	DD	FLAT:$L104721
	DD	01bH
	DD	FLAT:$L104722
	DD	01cH
	DD	FLAT:$L104723
	DD	01dH
	DD	FLAT:$L104724
	DD	01eH
	DD	FLAT:$L104725
	DD	01fH
	DD	FLAT:$L104726
	DD	020H
	DD	FLAT:$L104727
	DD	021H
	DD	FLAT:$L104728
	DD	022H
	DD	FLAT:$L104729
	DD	023H
	DD	FLAT:$L104730
	DD	024H
	DD	FLAT:$L104731
	DD	025H
	DD	FLAT:$L104732
	DD	026H
	DD	FLAT:$L104733
	DD	027H
	DD	FLAT:$L104734
	DD	028H
	DD	FLAT:$L104735
	DD	029H
	DD	FLAT:$L104736
	DD	02aH
	DD	FLAT:$L104737
	DD	02bH
	DD	FLAT:$L104738
	DD	02cH
	DD	FLAT:$L104739
	DD	02dH
	DD	FLAT:$L104740
	DD	02eH
	DD	FLAT:$L104741
	DD	02fH
	DD	FLAT:$L104742
	DD	030H
	DD	FLAT:$L104743
	DD	031H
	DD	FLAT:$L104744
	DD	032H
	DD	FLAT:$L104745
	DD	033H
	DD	FLAT:$L104746
	DD	034H
	DD	FLAT:$L104747
	DD	035H
	DD	FLAT:$L104748
	DD	036H
	DD	FLAT:$L104749
	DD	037H
	DD	FLAT:$L104750
	DD	038H
	DD	FLAT:$L104751
	DD	039H
	DD	FLAT:$L104752
	DD	03aH
	DD	FLAT:$L104753
	DD	03bH
	DD	FLAT:$L104754
	DD	03cH
	DD	FLAT:$L104755
	DD	03dH
	DD	FLAT:$L104756
	DD	03eH
	DD	FLAT:$L104757
	DD	03fH
	DD	FLAT:$L104758
	DD	040H
	DD	FLAT:$L104759
	DD	041H
	DD	FLAT:$L104760
	DD	042H
	DD	FLAT:$L104761
	DD	043H
	DD	FLAT:$L104762
	DD	044H
	DD	FLAT:$L104763
	DD	045H
	DD	FLAT:$L104764
	DD	046H
	DD	FLAT:$L104765
	DD	047H
	DD	FLAT:$L104766
	DD	048H
	DD	FLAT:$L104767
	DD	049H
	DD	FLAT:$L104768
	DD	04aH
	DD	FLAT:$L104769
	DD	04bH
	DD	FLAT:$L104770
	DD	04cH
	DD	FLAT:$L104771
	DD	04dH
	DD	FLAT:$L104772
	DD	04eH
	DD	FLAT:$L104773
	DD	04fH
	DD	FLAT:$L104774
$T105269 DD	019930520H
	DD	051H
	DD	FLAT:$T105271
	DD	2 DUP(00H)
	DD	2 DUP(00H)
xdata$x	ENDS
;	COMDAT ??_C@_09EMOGKKPB@BASIC_STR?$AA@
CONST	SEGMENT
??_C@_09EMOGKKPB@BASIC_STR?$AA@ DB 'BASIC_STR', 00H	; `string'
CONST	ENDS
;	COMDAT ??_C@_0M@EJOONLND@CURRENT_STR?$AA@
CONST	SEGMENT
??_C@_0M@EJOONLND@CURRENT_STR?$AA@ DB 'CURRENT_STR', 00H ; `string'
CONST	ENDS
;	COMDAT ??_C@_07KKCHECBB@MAX_STR?$AA@
CONST	SEGMENT
??_C@_07KKCHECBB@MAX_STR?$AA@ DB 'MAX_STR', 00H		; `string'
CONST	ENDS
;	COMDAT ??_C@_0P@CEHLLGLK@STR_EXP_REMAIN?$AA@
CONST	SEGMENT
??_C@_0P@CEHLLGLK@STR_EXP_REMAIN?$AA@ DB 'STR_EXP_REMAIN', 00H ; `string'
CONST	ENDS
;	COMDAT ??_C@_09GGCDOEBK@BASIC_DEX?$AA@
CONST	SEGMENT
??_C@_09GGCDOEBK@BASIC_DEX?$AA@ DB 'BASIC_DEX', 00H	; `string'
CONST	ENDS
;	COMDAT ??_C@_0M@GDCLJFDI@CURRENT_DEX?$AA@
CONST	SEGMENT
??_C@_0M@GDCLJFDI@CURRENT_DEX?$AA@ DB 'CURRENT_DEX', 00H ; `string'
CONST	ENDS
;	COMDAT ??_C@_07IAOCAMPK@MAX_DEX?$AA@
CONST	SEGMENT
??_C@_07IAOCAMPK@MAX_DEX?$AA@ DB 'MAX_DEX', 00H		; `string'
CONST	ENDS
;	COMDAT ??_C@_0P@DKPKJNND@DEX_EXP_REMAIN?$AA@
CONST	SEGMENT
??_C@_0P@DKPKJNND@DEX_EXP_REMAIN?$AA@ DB 'DEX_EXP_REMAIN', 00H ; `string'
CONST	ENDS
;	COMDAT ??_C@_09DEKJJMCK@BASIC_INT?$AA@
CONST	SEGMENT
??_C@_09DEKJJMCK@BASIC_INT?$AA@ DB 'BASIC_INT', 00H	; `string'
CONST	ENDS
;	COMDAT ??_C@_0M@DBKBONAI@CURRENT_INT?$AA@
CONST	SEGMENT
??_C@_0M@DBKBONAI@CURRENT_INT?$AA@ DB 'CURRENT_INT', 00H ; `string'
CONST	ENDS
;	COMDAT ??_C@_07NCGIHEMK@MAX_INT?$AA@
CONST	SEGMENT
??_C@_07NCGIHEMK@MAX_INT?$AA@ DB 'MAX_INT', 00H		; `string'
CONST	ENDS
;	COMDAT ??_C@_0P@BDHGGNMJ@INT_EXP_REMAIN?$AA@
CONST	SEGMENT
??_C@_0P@BDHGGNMJ@INT_EXP_REMAIN?$AA@ DB 'INT_EXP_REMAIN', 00H ; `string'
CONST	ENDS
;	COMDAT ??_C@_0L@HGOGCHKL@CURRENT_HP?$AA@
CONST	SEGMENT
??_C@_0L@HGOGCHKL@CURRENT_HP?$AA@ DB 'CURRENT_HP', 00H	; `string'
CONST	ENDS
;	COMDAT ??_C@_06NMHEPHCD@MAX_HP?$AA@
CONST	SEGMENT
??_C@_06NMHEPHCD@MAX_HP?$AA@ DB 'MAX_HP', 00H		; `string'
CONST	ENDS
;	COMDAT ??_C@_0L@HACNOFEA@CURRENT_MP?$AA@
CONST	SEGMENT
??_C@_0L@HACNOFEA@CURRENT_MP?$AA@ DB 'CURRENT_MP', 00H	; `string'
CONST	ENDS
;	COMDAT ??_C@_06NKLPDFMI@MAX_MP?$AA@
CONST	SEGMENT
??_C@_06NKLPDFMI@MAX_MP?$AA@ DB 'MAX_MP', 00H		; `string'
CONST	ENDS
;	COMDAT ??_C@_0L@HOANAEGI@MIN_DAMAGE?$AA@
CONST	SEGMENT
??_C@_0L@HOANAEGI@MIN_DAMAGE?$AA@ DB 'MIN_DAMAGE', 00H	; `string'
CONST	ENDS
;	COMDAT ??_C@_0L@LCAAHPGH@MAX_DAMAGE?$AA@
CONST	SEGMENT
??_C@_0L@LCAAHPGH@MAX_DAMAGE?$AA@ DB 'MAX_DAMAGE', 00H	; `string'
CONST	ENDS
;	COMDAT ??_C@_07PABEIMLA@DEFENSE?$AA@
CONST	SEGMENT
??_C@_07PABEIMLA@DEFENSE?$AA@ DB 'DEFENSE', 00H		; `string'
CONST	ENDS
;	COMDAT ??_C@_0L@CACMAAHO@PROTECTION?$AA@
CONST	SEGMENT
??_C@_0L@CACMAAHO@PROTECTION?$AA@ DB 'PROTECTION', 00H	; `string'
CONST	ENDS
;	COMDAT ??_C@_05PMLNIFOI@TOHIT?$AA@
CONST	SEGMENT
??_C@_05PMLNIFOI@TOHIT?$AA@ DB 'TOHIT', 00H		; `string'
CONST	ENDS
;	COMDAT ??_C@_06IGFCKNHC@VISION?$AA@
CONST	SEGMENT
??_C@_06IGFCKNHC@VISION?$AA@ DB 'VISION', 00H		; `string'
CONST	ENDS
;	COMDAT ??_C@_04DIIKDPIA@FAME?$AA@
CONST	SEGMENT
??_C@_04DIIKDPIA@FAME?$AA@ DB 'FAME', 00H		; `string'
CONST	ENDS
;	COMDAT ??_C@_04PNOMDKHF@GOLD?$AA@
CONST	SEGMENT
??_C@_04PNOMDKHF@GOLD?$AA@ DB 'GOLD', 00H		; `string'
CONST	ENDS
;	COMDAT ??_C@_0BD@KMGAIODB@SWORD_DOMAIN_LEVEL?$AA@
CONST	SEGMENT
??_C@_0BD@KMGAIODB@SWORD_DOMAIN_LEVEL?$AA@ DB 'SWORD_DOMAIN_LEVEL', 00H ; `string'
CONST	ENDS
;	COMDAT ??_C@_0BI@BGNAADGH@SWORD_DOMAIN_EXP_REMAIN?$AA@
CONST	SEGMENT
??_C@_0BI@BGNAADGH@SWORD_DOMAIN_EXP_REMAIN?$AA@ DB 'SWORD_DOMAIN_EXP_REMA'
	DB	'IN', 00H					; `string'
CONST	ENDS
;	COMDAT ??_C@_0BG@IGGENAK@SWORD_DOMAIN_GOAL_EXP?$AA@
CONST	SEGMENT
??_C@_0BG@IGGENAK@SWORD_DOMAIN_GOAL_EXP?$AA@ DB 'SWORD_DOMAIN_GOAL_EXP', 00H ; `string'
CONST	ENDS
;	COMDAT ??_C@_0BD@PGNNGOBB@BLADE_DOMAIN_LEVEL?$AA@
CONST	SEGMENT
??_C@_0BD@PGNNGOBB@BLADE_DOMAIN_LEVEL?$AA@ DB 'BLADE_DOMAIN_LEVEL', 00H ; `string'
CONST	ENDS
;	COMDAT ??_C@_0BI@IMLMLFMG@BLADE_DOMAIN_EXP_REMAIN?$AA@
CONST	SEGMENT
??_C@_0BI@IMLMLFMG@BLADE_DOMAIN_EXP_REMAIN?$AA@ DB 'BLADE_DOMAIN_EXP_REMA'
	DB	'IN', 00H					; `string'
CONST	ENDS
;	COMDAT ??_C@_0BG@NLIFDHGN@BLADE_DOMAIN_GOAL_EXP?$AA@
CONST	SEGMENT
??_C@_0BG@NLIFDHGN@BLADE_DOMAIN_GOAL_EXP?$AA@ DB 'BLADE_DOMAIN_GOAL_EXP', 00H ; `string'
CONST	ENDS
;	COMDAT ??_C@_0BC@GPJLIFK@HEAL_DOMAIN_LEVEL?$AA@
CONST	SEGMENT
??_C@_0BC@GPJLIFK@HEAL_DOMAIN_LEVEL?$AA@ DB 'HEAL_DOMAIN_LEVEL', 00H ; `string'
CONST	ENDS
;	COMDAT ??_C@_0BH@ILFIDFFK@HEAL_DOMAIN_EXP_REMAIN?$AA@
CONST	SEGMENT
??_C@_0BH@ILFIDFFK@HEAL_DOMAIN_EXP_REMAIN?$AA@ DB 'HEAL_DOMAIN_EXP_REMAIN'
	DB	00H						; `string'
CONST	ENDS
;	COMDAT ??_C@_0BF@EMCLNDPE@HEAL_DOMAIN_GOAL_EXP?$AA@
CONST	SEGMENT
??_C@_0BF@EMCLNDPE@HEAL_DOMAIN_GOAL_EXP?$AA@ DB 'HEAL_DOMAIN_GOAL_EXP', 00H ; `string'
CONST	ENDS
;	COMDAT ??_C@_0BF@ONHDOKIF@ENCHANT_DOMAIN_LEVEL?$AA@
CONST	SEGMENT
??_C@_0BF@ONHDOKIF@ENCHANT_DOMAIN_LEVEL?$AA@ DB 'ENCHANT_DOMAIN_LEVEL', 00H ; `string'
CONST	ENDS
;	COMDAT ??_C@_0BK@LANBKOIK@ENCHANT_DOMAIN_EXP_REMAIN?$AA@
CONST	SEGMENT
??_C@_0BK@LANBKOIK@ENCHANT_DOMAIN_EXP_REMAIN?$AA@ DB 'ENCHANT_DOMAIN_EXP_'
	DB	'REMAIN', 00H				; `string'
CONST	ENDS
;	COMDAT ??_C@_0BI@EPBOPEPK@ENCHANT_DOMAIN_GOAL_EXP?$AA@
CONST	SEGMENT
??_C@_0BI@EPBOPEPK@ENCHANT_DOMAIN_GOAL_EXP?$AA@ DB 'ENCHANT_DOMAIN_GOAL_E'
	DB	'XP', 00H					; `string'
CONST	ENDS
;	COMDAT ??_C@_0BB@ELHNALIJ@GUN_DOMAIN_LEVEL?$AA@
CONST	SEGMENT
??_C@_0BB@ELHNALIJ@GUN_DOMAIN_LEVEL?$AA@ DB 'GUN_DOMAIN_LEVEL', 00H ; `string'
CONST	ENDS
;	COMDAT ??_C@_0BG@OJCBFDLD@GUN_DOMAIN_EXP_REMAIN?$AA@
CONST	SEGMENT
??_C@_0BG@OJCBFDLD@GUN_DOMAIN_EXP_REMAIN?$AA@ DB 'GUN_DOMAIN_EXP_REMAIN', 00H ; `string'
CONST	ENDS
;	COMDAT ??_C@_0BE@OGNJOCJC@GUN_DOMAIN_GOAL_EXP?$AA@
CONST	SEGMENT
??_C@_0BE@OGNJOCJC@GUN_DOMAIN_GOAL_EXP?$AA@ DB 'GUN_DOMAIN_GOAL_EXP', 00H ; `string'
CONST	ENDS
;	COMDAT ??_C@_0BB@MNCHHIND@ETC_DOMAIN_LEVEL?$AA@
CONST	SEGMENT
??_C@_0BB@MNCHHIND@ETC_DOMAIN_LEVEL?$AA@ DB 'ETC_DOMAIN_LEVEL', 00H ; `string'
CONST	ENDS
;	COMDAT ??_C@_0BG@OOPKBPAA@ETC_DOMAIN_EXP_REMAIN?$AA@
CONST	SEGMENT
??_C@_0BG@OOPKBPAA@ETC_DOMAIN_EXP_REMAIN?$AA@ DB 'ETC_DOMAIN_EXP_REMAIN', 00H ; `string'
CONST	ENDS
;	COMDAT ??_C@_0BE@IFONLKN@ETC_DOMAIN_GOAL_EXP?$AA@
CONST	SEGMENT
??_C@_0BE@IFONLKN@ETC_DOMAIN_GOAL_EXP?$AA@ DB 'ETC_DOMAIN_GOAL_EXP', 00H ; `string'
CONST	ENDS
;	COMDAT ??_C@_0M@OHHCLPDA@SKILL_LEVEL?$AA@
CONST	SEGMENT
??_C@_0M@OHHCLPDA@SKILL_LEVEL?$AA@ DB 'SKILL_LEVEL', 00H ; `string'
CONST	ENDS
;	COMDAT ??_C@_05GCEPFMCO@LEVEL?$AA@
CONST	SEGMENT
??_C@_05GCEPFMCO@LEVEL?$AA@ DB 'LEVEL', 00H		; `string'
CONST	ENDS
;	COMDAT ??_C@_0M@MLFPLLC@EFFECT_STAT?$AA@
CONST	SEGMENT
??_C@_0M@MLFPLLC@EFFECT_STAT?$AA@ DB 'EFFECT_STAT', 00H	; `string'
CONST	ENDS
;	COMDAT ??_C@_08MJLDLDGF@DURATION?$AA@
CONST	SEGMENT
??_C@_08MJLDLDGF@DURATION?$AA@ DB 'DURATION', 00H	; `string'
CONST	ENDS
;	COMDAT ??_C@_06JADFICD@BULLET?$AA@
CONST	SEGMENT
??_C@_06JADFICD@BULLET?$AA@ DB 'BULLET', 00H		; `string'
CONST	ENDS
;	COMDAT ??_C@_0M@DPKCELMF@BONUS_POINT?$AA@
CONST	SEGMENT
??_C@_0M@DPKCELMF@BONUS_POINT?$AA@ DB 'BONUS_POINT', 00H ; `string'
CONST	ENDS
;	COMDAT ??_C@_0L@JEFHDPIL@DURABILITY?$AA@
CONST	SEGMENT
??_C@_0L@JEFHDPIL@DURABILITY?$AA@ DB 'DURABILITY', 00H	; `string'
CONST	ENDS
;	COMDAT ??_C@_09EGKBMPFK@NOTORIETY?$AA@
CONST	SEGMENT
??_C@_09EGKBMPFK@NOTORIETY?$AA@ DB 'NOTORIETY', 00H	; `string'
CONST	ENDS
;	COMDAT ??_C@_0BA@MAIHAHDB@VAMP_EXP_REMAIN?$AA@
CONST	SEGMENT
??_C@_0BA@MAIHAHDB@VAMP_EXP_REMAIN?$AA@ DB 'VAMP_EXP_REMAIN', 00H ; `string'
CONST	ENDS
;	COMDAT ??_C@_0O@ENDFFBFD@SILVER_DAMAGE?$AA@
CONST	SEGMENT
??_C@_0O@ENDFFBFD@SILVER_DAMAGE?$AA@ DB 'SILVER_DAMAGE', 00H ; `string'
CONST	ENDS
;	COMDAT ??_C@_0N@KMAAPCII@ATTACK_SPEED?$AA@
CONST	SEGMENT
??_C@_0N@KMAAPCII@ATTACK_SPEED?$AA@ DB 'ATTACK_SPEED', 00H ; `string'
CONST	ENDS
;	COMDAT ??_C@_09HPPNPOEE@ALIGNMENT?$AA@
CONST	SEGMENT
??_C@_09HPPNPOEE@ALIGNMENT?$AA@ DB 'ALIGNMENT', 00H	; `string'
CONST	ENDS
;	COMDAT ??_C@_0BC@BNIPJKDA@SILVER_DURABILITY?$AA@
CONST	SEGMENT
??_C@_0BC@BNIPJKDA@SILVER_DURABILITY?$AA@ DB 'SILVER_DURABILITY', 00H ; `string'
CONST	ENDS
;	COMDAT ??_C@_0L@HJJLGOIM@REGEN_RATE?$AA@
CONST	SEGMENT
??_C@_0L@HJJLGOIM@REGEN_RATE?$AA@ DB 'REGEN_RATE', 00H	; `string'
CONST	ENDS
;	COMDAT ??_C@_07ICBEDALK@GUILDID?$AA@
CONST	SEGMENT
??_C@_07ICBEDALK@GUILDID?$AA@ DB 'GUILDID', 00H		; `string'
CONST	ENDS
;	COMDAT ??_C@_04DBCPJNBF@RANK?$AA@
CONST	SEGMENT
??_C@_04DBCPJNBF@RANK?$AA@ DB 'RANK', 00H		; `string'
CONST	ENDS
;	COMDAT ??_C@_0BA@DLBJHHBE@RANK_EXP_REMAIN?$AA@
CONST	SEGMENT
??_C@_0BA@DLBJHHBE@RANK_EXP_REMAIN?$AA@ DB 'RANK_EXP_REMAIN', 00H ; `string'
CONST	ENDS
;	COMDAT ??_C@_0BD@BBMKLBCL@OUSTERS_EXP_REMAIN?$AA@
CONST	SEGMENT
??_C@_0BD@BBMKLBCL@OUSTERS_EXP_REMAIN?$AA@ DB 'OUSTERS_EXP_REMAIN', 00H ; `string'
CONST	ENDS
;	COMDAT ??_C@_0BC@IMLFGMDG@SKILL_BONUS_POINT?$AA@
CONST	SEGMENT
??_C@_0BC@IMLFGMDG@SKILL_BONUS_POINT?$AA@ DB 'SKILL_BONUS_POINT', 00H ; `string'
CONST	ENDS
;	COMDAT ??_C@_0P@PEHNMFMM@ELEMENTAL_FIRE?$AA@
CONST	SEGMENT
??_C@_0P@PEHNMFMM@ELEMENTAL_FIRE?$AA@ DB 'ELEMENTAL_FIRE', 00H ; `string'
CONST	ENDS
;	COMDAT ??_C@_0BA@MHDKAJKL@ELEMENTAL_WATER?$AA@
CONST	SEGMENT
??_C@_0BA@MHDKAJKL@ELEMENTAL_WATER?$AA@ DB 'ELEMENTAL_WATER', 00H ; `string'
CONST	ENDS
;	COMDAT ??_C@_0BA@BIGMGHL@ELEMENTAL_EARTH?$AA@
CONST	SEGMENT
??_C@_0BA@BIGMGHL@ELEMENTAL_EARTH?$AA@ DB 'ELEMENTAL_EARTH', 00H ; `string'
CONST	ENDS
;	COMDAT ??_C@_0P@KFNKBAKL@ELEMENTAL_WIND?$AA@
CONST	SEGMENT
??_C@_0P@KFNKBAKL@ELEMENTAL_WIND?$AA@ DB 'ELEMENTAL_WIND', 00H ; `string'
CONST	ENDS
;	COMDAT ??_C@_09BBOPOJIN@SKILL_EXP?$AA@
CONST	SEGMENT
??_C@_09BBOPOJIN@SKILL_EXP?$AA@ DB 'SKILL_EXP', 00H	; `string'
CONST	ENDS
;	COMDAT ??_C@_06IEBMKFDK@PET_HP?$AA@
CONST	SEGMENT
??_C@_06IEBMKFDK@PET_HP?$AA@ DB 'PET_HP', 00H		; `string'
CONST	ENDS
;	COMDAT ??_C@_0P@GOFONOAE@PET_EXP_REMAIN?$AA@
CONST	SEGMENT
??_C@_0P@GOFONOAE@PET_EXP_REMAIN?$AA@ DB 'PET_EXP_REMAIN', 00H ; `string'
CONST	ENDS
;	COMDAT ??_C@_0M@KIBGPGKM@LAST_TARGET?$AA@
CONST	SEGMENT
??_C@_0M@KIBGPGKM@LAST_TARGET?$AA@ DB 'LAST_TARGET', 00H ; `string'
CONST	ENDS
;	COMDAT ??_C@_07PBEOFEGM@UNIONID?$AA@
CONST	SEGMENT
??_C@_07PBEOFEGM@UNIONID?$AA@ DB 'UNIONID', 00H		; `string'
CONST	ENDS
;	COMDAT ??_C@_0L@COBGECE@UNIONGRADE?$AA@
CONST	SEGMENT
??_C@_0L@COBGECE@UNIONGRADE?$AA@ DB 'UNIONGRADE', 00H	; `string'
CONST	ENDS
;	COMDAT ??_C@_0BI@LHEPMHDM@ADVANCEMENT_CLASS_LEVEL?$AA@
CONST	SEGMENT
??_C@_0BI@LHEPMHDM@ADVANCEMENT_CLASS_LEVEL?$AA@ DB 'ADVANCEMENT_CLASS_LEV'
	DB	'EL', 00H					; `string'
CONST	ENDS
;	COMDAT ??_C@_0BL@IKNEBHFH@ADVANCEMENT_CLASS_GOAL_EXP?$AA@
CONST	SEGMENT
??_C@_0BL@IKNEBHFH@ADVANCEMENT_CLASS_GOAL_EXP?$AA@ DB 'ADVANCEMENT_CLASS_'
	DB	'GOAL_EXP', 00H				; `string'
CONST	ENDS
;	COMDAT ??_C@_0BJ@PIJGHHAP@ATTACK_BLOOD_BURST_POINT?$AA@
CONST	SEGMENT
??_C@_0BJ@PIJGHHAP@ATTACK_BLOOD_BURST_POINT?$AA@ DB 'ATTACK_BLOOD_BURST_P'
	DB	'OINT', 00H					; `string'
CONST	ENDS
;	COMDAT ??_C@_0BK@BJJBOCNF@DEFENSE_BLOOD_BURST_POINT?$AA@
CONST	SEGMENT
??_C@_0BK@BJJBOCNF@DEFENSE_BLOOD_BURST_POINT?$AA@ DB 'DEFENSE_BLOOD_BURST'
	DB	'_POINT', 00H				; `string'
CONST	ENDS
;	COMDAT ??_C@_0BI@MHOBEFBP@PARTY_BLOOD_BURST_POINT?$AA@
CONST	SEGMENT
??_C@_0BI@MHOBEFBP@PARTY_BLOOD_BURST_POINT?$AA@ DB 'PARTY_BLOOD_BURST_POI'
	DB	'NT', 00H					; `string'
CONST	ENDS
;	COMDAT ??_C@_0BD@BPOFFKFG@ADVANCED_SLAYERSTR?$AA@
CONST	SEGMENT
