; Listing generated by Microsoft (R) Optimizing Compiler Version 13.10.3077 

	TITLE	\darkeden\Designed_Common\Project\Client\Packet\Gpackets\GCTimeLimitItemInfo.cpp
	.386P
include listing.inc
if @Version gt 510
.model FLAT
else
_TEXT	SEGMENT PARA USE32 PUBLIC 'CODE'
_TEXT	ENDS
_DATA	SEGMENT DWORD USE32 PUBLIC 'DATA'
_DATA	ENDS
CONST	SEGMENT DWORD USE32 PUBLIC 'CONST'
CONST	ENDS
_BSS	SEGMENT DWORD USE32 PUBLIC 'BSS'
_BSS	ENDS
$$SYMBOLS	SEGMENT BYTE USE32 'DEBSYM'
$$SYMBOLS	ENDS
$$TYPES	SEGMENT BYTE USE32 'DEBTYP'
$$TYPES	ENDS
_TLS	SEGMENT DWORD USE32 PUBLIC 'TLS'
_TLS	ENDS
;	COMDAT ??_C@_0CA@NDINADEE@SocketOutputStream?$CIm_BufferLen?3?$AA@
CONST	SEGMENT DWORD USE32 PUBLIC 'CONST'
CONST	ENDS
;	COMDAT ??_C@_08LIHEOLAN@?0m_Head?3?$AA@
CONST	SEGMENT DWORD USE32 PUBLIC 'CONST'
CONST	ENDS
;	COMDAT ??_C@_08PCEHPGHK@?0m_Tail?3?$AA@
CONST	SEGMENT DWORD USE32 PUBLIC 'CONST'
CONST	ENDS
;	COMDAT ??_C@_01PKGAHCOL@?$CJ?$AA@
CONST	SEGMENT DWORD USE32 PUBLIC 'CONST'
CONST	ENDS
;	COMDAT ??_C@_0CD@MMKFOLPF@?$LO?F?$MA?L?E?$NL?5?$LP?$MA?$LK?j?A?$KH?F?$KO?5?$LO?F?$MA?L?$LF?p?$LA?$KB?5?$LA?c?D?$KB?$LD?W?$LP@
CONST	SEGMENT DWORD USE32 PUBLIC 'CONST'
CONST	ENDS
;	COMDAT ??_C@_0N@GOPDCEEB@basic_string?$AA@
CONST	SEGMENT DWORD USE32 PUBLIC 'CONST'
CONST	ENDS
xdata$x	SEGMENT DWORD USE32 PUBLIC 'CONST'
xdata$x	ENDS
rdata$r	SEGMENT DWORD USE32 PUBLIC 'CONST'
rdata$r	ENDS
text$yc	SEGMENT PARA USE32 PUBLIC 'CODE'
text$yc	ENDS
CRT$XCA	SEGMENT DWORD USE32 PUBLIC 'DATA'
CRT$XCA	ENDS
CRT$XCU	SEGMENT DWORD USE32 PUBLIC 'DATA'
CRT$XCU	ENDS
CRT$XCL	SEGMENT DWORD USE32 PUBLIC 'DATA'
CRT$XCL	ENDS
CRT$XCC	SEGMENT DWORD USE32 PUBLIC 'DATA'
CRT$XCC	ENDS
CRT$XCZ	SEGMENT DWORD USE32 PUBLIC 'DATA'
CRT$XCZ	ENDS
text$yd	SEGMENT PARA USE32 PUBLIC 'CODE'
text$yd	ENDS
;	COMDAT ?getHost@SocketImpl@@QBE?AV?$basic_string@DV?$char_traits@D@_STL@@V?$allocator@D@2@@_STL@@XZ
_TEXT	SEGMENT PARA USE32 PUBLIC 'CODE'
_TEXT	ENDS
;	COMDAT ?getPort@SocketImpl@@QBEIXZ
_TEXT	SEGMENT PARA USE32 PUBLIC 'CODE'
_TEXT	ENDS
;	COMDAT ?isValid@SocketImpl@@QBE_NXZ
_TEXT	SEGMENT PARA USE32 PUBLIC 'CODE'
_TEXT	ENDS
;	COMDAT ?getSOCKET@SocketImpl@@QBEIXZ
_TEXT	SEGMENT PARA USE32 PUBLIC 'CODE'
_TEXT	ENDS
;	COMDAT ?read@SocketInputStream@@QAEIAAE@Z
_TEXT	SEGMENT PARA USE32 PUBLIC 'CODE'
_TEXT	ENDS
;	COMDAT ?read@SocketInputStream@@QAEIAAK@Z
_TEXT	SEGMENT PARA USE32 PUBLIC 'CODE'
_TEXT	ENDS
;	COMDAT ?write@SocketOutputStream@@QAEIE@Z
_TEXT	SEGMENT PARA USE32 PUBLIC 'CODE'
_TEXT	ENDS
;	COMDAT ?write@SocketOutputStream@@QAEIG@Z
_TEXT	SEGMENT PARA USE32 PUBLIC 'CODE'
_TEXT	ENDS
;	COMDAT ?write@SocketOutputStream@@QAEII@Z
_TEXT	SEGMENT PARA USE32 PUBLIC 'CODE'
_TEXT	ENDS
;	COMDAT ?write@SocketOutputStream@@QAEIK@Z
_TEXT	SEGMENT PARA USE32 PUBLIC 'CODE'
_TEXT	ENDS
;	COMDAT ??1Packet@@UAE@XZ
_TEXT	SEGMENT PARA USE32 PUBLIC 'CODE'
_TEXT	ENDS
;	COMDAT ?read@Packet@@UAEXPAVSocket@@@Z
_TEXT	SEGMENT PARA USE32 PUBLIC 'CODE'
_TEXT	ENDS
;	COMDAT ?write@Packet@@UBEXPAVSocket@@@Z
_TEXT	SEGMENT PARA USE32 PUBLIC 'CODE'
_TEXT	ENDS
;	COMDAT ??_GPacket@@UAEPAXI@Z
_TEXT	SEGMENT PARA USE32 PUBLIC 'CODE'
_TEXT	ENDS
;	COMDAT ??0UnsupportedError@@QAE@ABV0@@Z
_TEXT	SEGMENT PARA USE32 PUBLIC 'CODE'
_TEXT	ENDS
;	COMDAT ??0Error@@QAE@ABV0@@Z
_TEXT	SEGMENT PARA USE32 PUBLIC 'CODE'
_TEXT	ENDS
;	COMDAT ??0Throwable@@QAE@ABV0@@Z
_TEXT	SEGMENT PARA USE32 PUBLIC 'CODE'
_TEXT	ENDS
;	COMDAT ??1PacketFactory@@UAE@XZ
_TEXT	SEGMENT PARA USE32 PUBLIC 'CODE'
_TEXT	ENDS
;	COMDAT ??_GPacketFactory@@UAEPAXI@Z
_TEXT	SEGMENT PARA USE32 PUBLIC 'CODE'
_TEXT	ENDS
;	COMDAT ?getPacketID@GCTimeLimitItemInfo@@UBEGXZ
_TEXT	SEGMENT PARA USE32 PUBLIC 'CODE'
_TEXT	ENDS
;	COMDAT ??0GCTimeLimitItemInfo@@QAE@XZ
_TEXT	SEGMENT PARA USE32 PUBLIC 'CODE'
_TEXT	ENDS
;	COMDAT ??_GGCTimeLimitItemInfo@@UAEPAXI@Z
_TEXT	SEGMENT PARA USE32 PUBLIC 'CODE'
_TEXT	ENDS
;	COMDAT ??0Packet@@QAE@XZ
_TEXT	SEGMENT PARA USE32 PUBLIC 'CODE'
_TEXT	ENDS
;	COMDAT ??1?$map@KKU?$less@K@_STL@@V?$allocator@U?$pair@$$CBKK@_STL@@@2@@_STL@@QAE@XZ
_TEXT	SEGMENT PARA USE32 PUBLIC 'CODE'
_TEXT	ENDS
;	COMDAT ??1GCTimeLimitItemInfo@@UAE@XZ
_TEXT	SEGMENT PARA USE32 PUBLIC 'CODE'
_TEXT	ENDS
;	COMDAT ?read@GCTimeLimitItemInfo@@UAEXAAVSocketInputStream@@@Z
_TEXT	SEGMENT PARA USE32 PUBLIC 'CODE'
_TEXT	ENDS
;	COMDAT ?write@GCTimeLimitItemInfo@@UBEXAAVSocketOutputStream@@@Z
_TEXT	SEGMENT PARA USE32 PUBLIC 'CODE'
_TEXT	ENDS
;	COMDAT ?execute@GCTimeLimitItemInfo@@UAEXPAVPlayer@@@Z
_TEXT	SEGMENT PARA USE32 PUBLIC 'CODE'
_TEXT	ENDS
;	COMDAT ?getPacketSize@GCTimeLimitItemInfo@@UBEIXZ
_TEXT	SEGMENT PARA USE32 PUBLIC 'CODE'
_TEXT	ENDS
;	COMDAT ?getTimeLimit@GCTimeLimitItemInfo@@QBEKK@Z
_TEXT	SEGMENT PARA USE32 PUBLIC 'CODE'
_TEXT	ENDS
;	COMDAT ?addTimeLimit@GCTimeLimitItemInfo@@QAEXKK@Z
_TEXT	SEGMENT PARA USE32 PUBLIC 'CODE'
_TEXT	ENDS
;	COMDAT ?eq@?$__char_traits_base@DH@_STL@@SA_NABD0@Z
_TEXT	SEGMENT PARA USE32 PUBLIC 'CODE'
_TEXT	ENDS
;	COMDAT ?not_eof@?$__char_traits_base@DH@_STL@@SAHABH@Z
_TEXT	SEGMENT PARA USE32 PUBLIC 'CODE'
_TEXT	ENDS
;	COMDAT ?eq_int_type@?$__char_traits_base@DH@_STL@@SA_NABH0@Z
_TEXT	SEGMENT PARA USE32 PUBLIC 'CODE'
_TEXT	ENDS
;	COMDAT ?get_allocator@?$basic_string@DV?$char_traits@D@_STL@@V?$allocator@D@2@@_STL@@QBE?AV?$allocator@D@2@XZ
_TEXT	SEGMENT PARA USE32 PUBLIC 'CODE'
_TEXT	ENDS
;	COMDAT ?_M_terminate_string@?$basic_string@DV?$char_traits@D@_STL@@V?$allocator@D@2@@_STL@@AAEXXZ
_TEXT	SEGMENT PARA USE32 PUBLIC 'CODE'
_TEXT	ENDS
;	COMDAT ?size@?$basic_string@DV?$char_traits@D@_STL@@V?$allocator@D@2@@_STL@@QBEIXZ
_TEXT	SEGMENT PARA USE32 PUBLIC 'CODE'
_TEXT	ENDS
;	COMDAT ?c_str@?$basic_string@DV?$char_traits@D@_STL@@V?$allocator@D@2@@_STL@@QBEPBDXZ
_TEXT	SEGMENT PARA USE32 PUBLIC 'CODE'
_TEXT	ENDS
;	COMDAT ??0?$_String_base@DV?$allocator@D@_STL@@@_STL@@QAE@ABV?$allocator@D@1@@Z
_TEXT	SEGMENT PARA USE32 PUBLIC 'CODE'
_TEXT	ENDS
;	COMDAT ?allocate@?$allocator@D@_STL@@QAEPADIPBX@Z
_TEXT	SEGMENT PARA USE32 PUBLIC 'CODE'
_TEXT	ENDS
;	COMDAT ??0?$fpos@H@_STL@@QAE@J@Z
_TEXT	SEGMENT PARA USE32 PUBLIC 'CODE'
_TEXT	ENDS
;	COMDAT ??B?$fpos@H@_STL@@QBEJXZ
_TEXT	SEGMENT PARA USE32 PUBLIC 'CODE'
_TEXT	ENDS
;	COMDAT ?state@?$fpos@H@_STL@@QBEHXZ
_TEXT	SEGMENT PARA USE32 PUBLIC 'CODE'
_TEXT	ENDS
;	COMDAT ?is_open@?$basic_filebuf@DV?$char_traits@D@_STL@@@_STL@@QBE_NXZ
_TEXT	SEGMENT PARA USE32 PUBLIC 'CODE'
_TEXT	ENDS
;	COMDAT ?_M_seek_return@?$basic_filebuf@DV?$char_traits@D@_STL@@@_STL@@AAE?AV?$fpos@H@2@JH@Z
_TEXT	SEGMENT PARA USE32 PUBLIC 'CODE'
_TEXT	ENDS
;	COMDAT ??0?$list@V?$basic_string@DV?$char_traits@D@_STL@@V?$allocator@D@2@@_STL@@V?$allocator@V?$basic_string@DV?$char_traits@D@_STL@@V?$allocator@D@2@@_STL@@@2@@_STL@@QAE@ABV01@@Z
_TEXT	SEGMENT PARA USE32 PUBLIC 'CODE'
_TEXT	ENDS
;	COMDAT ??0?$_Filebuf_Tmp_Buf@D@_STL@@QAE@H@Z
_TEXT	SEGMENT PARA USE32 PUBLIC 'CODE'
_TEXT	ENDS
;	COMDAT ??1?$_Filebuf_Tmp_Buf@D@_STL@@QAE@XZ
_TEXT	SEGMENT PARA USE32 PUBLIC 'CODE'
_TEXT	ENDS
;	COMDAT ??0?$map@KKU?$less@K@_STL@@V?$allocator@U?$pair@$$CBKK@_STL@@@2@@_STL@@QAE@XZ
_TEXT	SEGMENT PARA USE32 PUBLIC 'CODE'
_TEXT	ENDS
;	COMDAT ?begin@?$map@KKU?$less@K@_STL@@V?$allocator@U?$pair@$$CBKK@_STL@@@2@@_STL@@QBE?AU?$_Rb_tree_iterator@U?$pair@$$CBKK@_STL@@U?$_Const_traits@U?$pair@$$CBKK@_STL@@@2@@2@XZ
_TEXT	SEGMENT PARA USE32 PUBLIC 'CODE'
_TEXT	ENDS
;	COMDAT ?end@?$map@KKU?$less@K@_STL@@V?$allocator@U?$pair@$$CBKK@_STL@@@2@@_STL@@QAE?AU?$_Rb_tree_iterator@U?$pair@$$CBKK@_STL@@U?$_Nonconst_traits@U?$pair@$$CBKK@_STL@@@2@@2@XZ
_TEXT	SEGMENT PARA USE32 PUBLIC 'CODE'
_TEXT	ENDS
;	COMDAT ?end@?$map@KKU?$less@K@_STL@@V?$allocator@U?$pair@$$CBKK@_STL@@@2@@_STL@@QBE?AU?$_Rb_tree_iterator@U?$pair@$$CBKK@_STL@@U?$_Const_traits@U?$pair@$$CBKK@_STL@@@2@@2@XZ
_TEXT	SEGMENT PARA USE32 PUBLIC 'CODE'
_TEXT	ENDS
;	COMDAT ?size@?$map@KKU?$less@K@_STL@@V?$allocator@U?$pair@$$CBKK@_STL@@@2@@_STL@@QBEIXZ
_TEXT	SEGMENT PARA USE32 PUBLIC 'CODE'
_TEXT	ENDS
;	COMDAT ??A?$map@KKU?$less@K@_STL@@V?$allocator@U?$pair@$$CBKK@_STL@@@2@@_STL@@QAEAAKABK@Z
_TEXT	SEGMENT PARA USE32 PUBLIC 'CODE'
_TEXT	ENDS
;	COMDAT ?clear@?$map@KKU?$less@K@_STL@@V?$allocator@U?$pair@$$CBKK@_STL@@@2@@_STL@@QAEXXZ
_TEXT	SEGMENT PARA USE32 PUBLIC 'CODE'
_TEXT	ENDS
;	COMDAT ?find@?$map@KKU?$less@K@_STL@@V?$allocator@U?$pair@$$CBKK@_STL@@@2@@_STL@@QAE?AU?$_Rb_tree_iterator@U?$pair@$$CBKK@_STL@@U?$_Nonconst_traits@U?$pair@$$CBKK@_STL@@@2@@2@ABK@Z
_TEXT	SEGMENT PARA USE32 PUBLIC 'CODE'
_TEXT	ENDS
;	COMDAT ?find@?$map@KKU?$less@K@_STL@@V?$allocator@U?$pair@$$CBKK@_STL@@@2@@_STL@@QBE?AU?$_Rb_tree_iterator@U?$pair@$$CBKK@_STL@@U?$_Const_traits@U?$pair@$$CBKK@_STL@@@2@@2@ABK@Z
_TEXT	SEGMENT PARA USE32 PUBLIC 'CODE'
_TEXT	ENDS
;	COMDAT ??1?$_Rb_tree@KU?$pair@$$CBKK@_STL@@U?$_Select1st@U?$pair@$$CBKK@_STL@@@2@U?$less@K@2@V?$allocator@U?$pair@$$CBKK@_STL@@@2@@_STL@@QAE@XZ
_TEXT	SEGMENT PARA USE32 PUBLIC 'CODE'
_TEXT	ENDS
;	COMDAT ??0?$_Rb_tree_iterator@U?$pair@$$CBKK@_STL@@U?$_Const_traits@U?$pair@$$CBKK@_STL@@@2@@_STL@@QAE@ABU?$_Rb_tree_iterator@U?$pair@$$CBKK@_STL@@U?$_Nonconst_traits@U?$pair@$$CBKK@_STL@@@2@@1@@Z
_TEXT	SEGMENT PARA USE32 PUBLIC 'CODE'
_TEXT	ENDS
;	COMDAT ??C?$_Rb_tree_iterator@U?$pair@$$CBKK@_STL@@U?$_Const_traits@U?$pair@$$CBKK@_STL@@@2@@_STL@@QBEPBU?$pair@$$CBKK@1@XZ
_TEXT	SEGMENT PARA USE32 PUBLIC 'CODE'
_TEXT	ENDS
;	COMDAT ??E?$_Rb_tree_iterator@U?$pair@$$CBKK@_STL@@U?$_Const_traits@U?$pair@$$CBKK@_STL@@@2@@_STL@@QAEAAU01@XZ
_TEXT	SEGMENT PARA USE32 PUBLIC 'CODE'
_TEXT	ENDS
;	COMDAT ?_M_terminate_string_aux@?$basic_string@DV?$char_traits@D@_STL@@V?$allocator@D@2@@_STL@@AAEXABU__true_type@2@@Z
_TEXT	SEGMENT PARA USE32 PUBLIC 'CODE'
_TEXT	ENDS
;	COMDAT ??0?$allocator@D@_STL@@QAE@ABV01@@Z
_TEXT	SEGMENT PARA USE32 PUBLIC 'CODE'
_TEXT	ENDS
;	COMDAT ??0?$_STLP_alloc_proxy@PADDV?$allocator@D@_STL@@@_STL@@QAE@ABV?$allocator@D@1@PAD@Z
_TEXT	SEGMENT PARA USE32 PUBLIC 'CODE'
_TEXT	ENDS
;	COMDAT ?state@?$fpos@H@_STL@@QAEXH@Z
_TEXT	SEGMENT PARA USE32 PUBLIC 'CODE'
_TEXT	ENDS
;	COMDAT ?get_allocator@?$_List_base@V?$basic_string@DV?$char_traits@D@_STL@@V?$allocator@D@2@@_STL@@V?$allocator@V?$basic_string@DV?$char_traits@D@_STL@@V?$allocator@D@2@@_STL@@@2@@_STL@@QBE?AV?$allocator@V?$basic_string@DV?$char_traits@D@_STL@@V?$allocator@D@2@@_STL@@@2@XZ
_TEXT	SEGMENT PARA USE32 PUBLIC 'CODE'
_TEXT	ENDS
;	COMDAT ?key_comp@?$map@KKU?$less@K@_STL@@V?$allocator@U?$pair@$$CBKK@_STL@@@2@@_STL@@QBE?AU?$less@K@2@XZ
_TEXT	SEGMENT PARA USE32 PUBLIC 'CODE'
_TEXT	ENDS
;	COMDAT ?insert@?$map@KKU?$less@K@_STL@@V?$allocator@U?$pair@$$CBKK@_STL@@@2@@_STL@@QAE?AU?$_Rb_tree_iterator@U?$pair@$$CBKK@_STL@@U?$_Nonconst_traits@U?$pair@$$CBKK@_STL@@@2@@2@U32@ABU?$pair@$$CBKK@2@@Z
_TEXT	SEGMENT PARA USE32 PUBLIC 'CODE'
_TEXT	ENDS
;	COMDAT ?lower_bound@?$map@KKU?$less@K@_STL@@V?$allocator@U?$pair@$$CBKK@_STL@@@2@@_STL@@QAE?AU?$_Rb_tree_iterator@U?$pair@$$CBKK@_STL@@U?$_Nonconst_traits@U?$pair@$$CBKK@_STL@@@2@@2@ABK@Z
_TEXT	SEGMENT PARA USE32 PUBLIC 'CODE'
_TEXT	ENDS
;	COMDAT ??0?$_Rb_tree@KU?$pair@$$CBKK@_STL@@U?$_Select1st@U?$pair@$$CBKK@_STL@@@2@U?$less@K@2@V?$allocator@U?$pair@$$CBKK@_STL@@@2@@_STL@@QAE@ABU?$less@K@1@ABV?$allocator@U?$pair@$$CBKK@_STL@@@1@@Z
_TEXT	SEGMENT PARA USE32 PUBLIC 'CODE'
_TEXT	ENDS
;	COMDAT ?begin@?$_Rb_tree@KU?$pair@$$CBKK@_STL@@U?$_Select1st@U?$pair@$$CBKK@_STL@@@2@U?$less@K@2@V?$allocator@U?$pair@$$CBKK@_STL@@@2@@_STL@@QBE?AU?$_Rb_tree_iterator@U?$pair@$$CBKK@_STL@@U?$_Const_traits@U?$pair@$$CBKK@_STL@@@2@@2@XZ
_TEXT	SEGMENT PARA USE32 PUBLIC 'CODE'
_TEXT	ENDS
;	COMDAT ?end@?$_Rb_tree@KU?$pair@$$CBKK@_STL@@U?$_Select1st@U?$pair@$$CBKK@_STL@@@2@U?$less@K@2@V?$allocator@U?$pair@$$CBKK@_STL@@@2@@_STL@@QAE?AU?$_Rb_tree_iterator@U?$pair@$$CBKK@_STL@@U?$_Nonconst_traits@U?$pair@$$CBKK@_STL@@@2@@2@XZ
_TEXT	SEGMENT PARA USE32 PUBLIC 'CODE'
_TEXT	ENDS
;	COMDAT ?end@?$_Rb_tree@KU?$pair@$$CBKK@_STL@@U?$_Select1st@U?$pair@$$CBKK@_STL@@@2@U?$less@K@2@V?$allocator@U?$pair@$$CBKK@_STL@@@2@@_STL@@QBE?AU?$_Rb_tree_iterator@U?$pair@$$CBKK@_STL@@U?$_Const_traits@U?$pair@$$CBKK@_STL@@@2@@2@XZ
_TEXT	SEGMENT PARA USE32 PUBLIC 'CODE'
_TEXT	ENDS
;	COMDAT ?size@?$_Rb_tree@KU?$pair@$$CBKK@_STL@@U?$_Select1st@U?$pair@$$CBKK@_STL@@@2@U?$less@K@2@V?$allocator@U?$pair@$$CBKK@_STL@@@2@@_STL@@QBEIXZ
_TEXT	SEGMENT PARA USE32 PUBLIC 'CODE'
_TEXT	ENDS
;	COMDAT ?clear@?$_Rb_tree@KU?$pair@$$CBKK@_STL@@U?$_Select1st@U?$pair@$$CBKK@_STL@@@2@U?$less@K@2@V?$allocator@U?$pair@$$CBKK@_STL@@@2@@_STL@@QAEXXZ
_TEXT	SEGMENT PARA USE32 PUBLIC 'CODE'
_TEXT	ENDS
;	COMDAT ??1?$_Rb_tree_base@U?$pair@$$CBKK@_STL@@V?$allocator@U?$pair@$$CBKK@_STL@@@2@@_STL@@QAE@XZ
_TEXT	SEGMENT PARA USE32 PUBLIC 'CODE'
_TEXT	ENDS
;	COMDAT ??0?$allocator@U?$pair@$$CBKK@_STL@@@_STL@@QAE@XZ
_TEXT	SEGMENT PARA USE32 PUBLIC 'CODE'
_TEXT	ENDS
;	COMDAT ??1?$allocator@U?$pair@$$CBKK@_STL@@@_STL@@QAE@XZ
_TEXT	SEGMENT PARA USE32 PUBLIC 'CODE'
_TEXT	ENDS
;	COMDAT ??R?$less@K@_STL@@QBE_NABK0@Z
_TEXT	SEGMENT PARA USE32 PUBLIC 'CODE'
_TEXT	ENDS
;	COMDAT ??0?$_Rb_tree_iterator@U?$pair@$$CBKK@_STL@@U?$_Nonconst_traits@U?$pair@$$CBKK@_STL@@@2@@_STL@@QAE@ABU01@@Z
_TEXT	SEGMENT PARA USE32 PUBLIC 'CODE'
_TEXT	ENDS
;	COMDAT ??D?$_Rb_tree_iterator@U?$pair@$$CBKK@_STL@@U?$_Nonconst_traits@U?$pair@$$CBKK@_STL@@@2@@_STL@@QBEAAU?$pair@$$CBKK@1@XZ
_TEXT	SEGMENT PARA USE32 PUBLIC 'CODE'
_TEXT	ENDS
;	COMDAT ??D?$_Rb_tree_iterator@U?$pair@$$CBKK@_STL@@U?$_Const_traits@U?$pair@$$CBKK@_STL@@@2@@_STL@@QBEABU?$pair@$$CBKK@1@XZ
_TEXT	SEGMENT PARA USE32 PUBLIC 'CODE'
_TEXT	ENDS
;	COMDAT ??0?$pair@$$CBKK@_STL@@QAE@ABK0@Z
_TEXT	SEGMENT PARA USE32 PUBLIC 'CODE'
_TEXT	ENDS
;	COMDAT ??1?$_STLP_alloc_proxy@PAU?$_Rb_tree_node@U?$pair@$$CBKK@_STL@@@_STL@@U12@V?$allocator@U?$_Rb_tree_node@U?$pair@$$CBKK@_STL@@@_STL@@@2@@_STL@@QAE@XZ
_TEXT	SEGMENT PARA USE32 PUBLIC 'CODE'
_TEXT	ENDS
;	COMDAT ?_M_root@?$_Rb_tree@KU?$pair@$$CBKK@_STL@@U?$_Select1st@U?$pair@$$CBKK@_STL@@@2@U?$less@K@2@V?$allocator@U?$pair@$$CBKK@_STL@@@2@@_STL@@IBEAAPAU?$_Rb_tree_node@U?$pair@$$CBKK@_STL@@@2@XZ
_TEXT	SEGMENT PARA USE32 PUBLIC 'CODE'
_TEXT	ENDS
;	COMDAT ?_M_leftmost@?$_Rb_tree@KU?$pair@$$CBKK@_STL@@U?$_Select1st@U?$pair@$$CBKK@_STL@@@2@U?$less@K@2@V?$allocator@U?$pair@$$CBKK@_STL@@@2@@_STL@@IBEAAPAU?$_Rb_tree_node@U?$pair@$$CBKK@_STL@@@2@XZ
_TEXT	SEGMENT PARA USE32 PUBLIC 'CODE'
_TEXT	ENDS
;	COMDAT ?_M_rightmost@?$_Rb_tree@KU?$pair@$$CBKK@_STL@@U?$_Select1st@U?$pair@$$CBKK@_STL@@@2@U?$less@K@2@V?$allocator@U?$pair@$$CBKK@_STL@@@2@@_STL@@IBEAAPAU?$_Rb_tree_node@U?$pair@$$CBKK@_STL@@@2@XZ
_TEXT	SEGMENT PARA USE32 PUBLIC 'CODE'
_TEXT	ENDS
;	COMDAT ?_M_empty_initialize@?$_Rb_tree@KU?$pair@$$CBKK@_STL@@U?$_Select1st@U?$pair@$$CBKK@_STL@@@2@U?$less@K@2@V?$allocator@U?$pair@$$CBKK@_STL@@@2@@_STL@@AAEXXZ
_TEXT	SEGMENT PARA USE32 PUBLIC 'CODE'
_TEXT	ENDS
;	COMDAT ?key_comp@?$_Rb_tree@KU?$pair@$$CBKK@_STL@@U?$_Select1st@U?$pair@$$CBKK@_STL@@@2@U?$less@K@2@V?$allocator@U?$pair@$$CBKK@_STL@@@2@@_STL@@QBE?AU?$less@K@2@XZ
_TEXT	SEGMENT PARA USE32 PUBLIC 'CODE'
_TEXT	ENDS
;	COMDAT ?lower_bound@?$_Rb_tree@KU?$pair@$$CBKK@_STL@@U?$_Select1st@U?$pair@$$CBKK@_STL@@@2@U?$less@K@2@V?$allocator@U?$pair@$$CBKK@_STL@@@2@@_STL@@QAE?AU?$_Rb_tree_iterator@U?$pair@$$CBKK@_STL@@U?$_Nonconst_traits@U?$pair@$$CBKK@_STL@@@2@@2@ABK@Z
_TEXT	SEGMENT PARA USE32 PUBLIC 'CODE'
_TEXT	ENDS
;	COMDAT ??0?$_Rb_tree_base@U?$pair@$$CBKK@_STL@@V?$allocator@U?$pair@$$CBKK@_STL@@@2@@_STL@@QAE@ABV?$allocator@U?$pair@$$CBKK@_STL@@@1@@Z
_TEXT	SEGMENT PARA USE32 PUBLIC 'CODE'
_TEXT	ENDS
;	COMDAT ??1?$allocator@U?$_Rb_tree_node@U?$pair@$$CBKK@_STL@@@_STL@@@_STL@@QAE@XZ
_TEXT	SEGMENT PARA USE32 PUBLIC 'CODE'
_TEXT	ENDS
;	COMDAT ?deallocate@?$allocator@U?$_Rb_tree_node@U?$pair@$$CBKK@_STL@@@_STL@@@_STL@@QAEXPAU?$_Rb_tree_node@U?$pair@$$CBKK@_STL@@@2@I@Z
_TEXT	SEGMENT PARA USE32 PUBLIC 'CODE'
_TEXT	ENDS
;	COMDAT ??0?$_Rb_tree_iterator@U?$pair@$$CBKK@_STL@@U?$_Nonconst_traits@U?$pair@$$CBKK@_STL@@@2@@_STL@@QAE@PAU?$_Rb_tree_node@U?$pair@$$CBKK@_STL@@@1@@Z
_TEXT	SEGMENT PARA USE32 PUBLIC 'CODE'
_TEXT	ENDS
;	COMDAT ??0?$_Rb_tree_iterator@U?$pair@$$CBKK@_STL@@U?$_Const_traits@U?$pair@$$CBKK@_STL@@@2@@_STL@@QAE@PAU?$_Rb_tree_node@U?$pair@$$CBKK@_STL@@@1@@Z
_TEXT	SEGMENT PARA USE32 PUBLIC 'CODE'
_TEXT	ENDS
;	COMDAT ?_S_color@?$_Rb_tree@KU?$pair@$$CBKK@_STL@@U?$_Select1st@U?$pair@$$CBKK@_STL@@@2@U?$less@K@2@V?$allocator@U?$pair@$$CBKK@_STL@@@2@@_STL@@KAAA_NPAU?$_Rb_tree_node@U?$pair@$$CBKK@_STL@@@2@@Z
_TEXT	SEGMENT PARA USE32 PUBLIC 'CODE'
_TEXT	ENDS
;	COMDAT ?_M_lower_bound@?$_Rb_tree@KU?$pair@$$CBKK@_STL@@U?$_Select1st@U?$pair@$$CBKK@_STL@@@2@U?$less@K@2@V?$allocator@U?$pair@$$CBKK@_STL@@@2@@_STL@@ABEPAU?$_Rb_tree_node@U?$pair@$$CBKK@_STL@@@2@ABK@Z
_TEXT	SEGMENT PARA USE32 PUBLIC 'CODE'
_TEXT	ENDS
;	COMDAT ??0?$_STLP_alloc_proxy@PAU?$_Rb_tree_node@U?$pair@$$CBKK@_STL@@@_STL@@U12@V?$allocator@U?$_Rb_tree_node@U?$pair@$$CBKK@_STL@@@_STL@@@2@@_STL@@QAE@ABV?$allocator@U?$_Rb_tree_node@U?$pair@$$CBKK@_STL@@@_STL@@@1@PAU?$_Rb_tree_node@U?$pair@$$CBKK@_STL@@@1@@Z
_TEXT	SEGMENT PARA USE32 PUBLIC 'CODE'
_TEXT	ENDS
;	COMDAT ?allocate@?$allocator@U?$_Rb_tree_node@U?$pair@$$CBKK@_STL@@@_STL@@@_STL@@QAEPAU?$_Rb_tree_node@U?$pair@$$CBKK@_STL@@@2@IPBX@Z
_TEXT	SEGMENT PARA USE32 PUBLIC 'CODE'
_TEXT	ENDS
;	COMDAT ?_S_left@?$_Rb_tree@KU?$pair@$$CBKK@_STL@@U?$_Select1st@U?$pair@$$CBKK@_STL@@@2@U?$less@K@2@V?$allocator@U?$pair@$$CBKK@_STL@@@2@@_STL@@KAAAPAU?$_Rb_tree_node@U?$pair@$$CBKK@_STL@@@2@PAU32@@Z
_TEXT	SEGMENT PARA USE32 PUBLIC 'CODE'
_TEXT	ENDS
;	COMDAT ?_S_right@?$_Rb_tree@KU?$pair@$$CBKK@_STL@@U?$_Select1st@U?$pair@$$CBKK@_STL@@@2@U?$less@K@2@V?$allocator@U?$pair@$$CBKK@_STL@@@2@@_STL@@KAAAPAU?$_Rb_tree_node@U?$pair@$$CBKK@_STL@@@2@PAU32@@Z
_TEXT	SEGMENT PARA USE32 PUBLIC 'CODE'
_TEXT	ENDS
;	COMDAT ?_S_key@?$_Rb_tree@KU?$pair@$$CBKK@_STL@@U?$_Select1st@U?$pair@$$CBKK@_STL@@@2@U?$less@K@2@V?$allocator@U?$pair@$$CBKK@_STL@@@2@@_STL@@KAABKPAU?$_Rb_tree_node@U?$pair@$$CBKK@_STL@@@2@@Z
_TEXT	SEGMENT PARA USE32 PUBLIC 'CODE'
_TEXT	ENDS
;	COMDAT ??0?$allocator@U?$_Rb_tree_node@U?$pair@$$CBKK@_STL@@@_STL@@@_STL@@QAE@ABV01@@Z
_TEXT	SEGMENT PARA USE32 PUBLIC 'CODE'
_TEXT	ENDS
;	COMDAT ?_S_value@?$_Rb_tree@KU?$pair@$$CBKK@_STL@@U?$_Select1st@U?$pair@$$CBKK@_STL@@@2@U?$less@K@2@V?$allocator@U?$pair@$$CBKK@_STL@@@2@@_STL@@KAAAU?$pair@$$CBKK@2@PAU?$_Rb_tree_node@U?$pair@$$CBKK@_STL@@@2@@Z
_TEXT	SEGMENT PARA USE32 PUBLIC 'CODE'
_TEXT	ENDS
;	COMDAT ??R?$_Select1st@U?$pair@$$CBKK@_STL@@@_STL@@QBEABKABU?$pair@$$CBKK@1@@Z
_TEXT	SEGMENT PARA USE32 PUBLIC 'CODE'
_TEXT	ENDS
;	COMDAT ??$_M_range_initialize@PBD@?$basic_string@DV?$char_traits@D@_STL@@V?$allocator@D@2@@_STL@@AAEXPBD0@Z
_TEXT	SEGMENT PARA USE32 PUBLIC 'CODE'
_TEXT	ENDS
;	COMDAT ??$_M_range_initialize@PAD@?$basic_string@DV?$char_traits@D@_STL@@V?$allocator@D@2@@_STL@@AAEXPAD0@Z
_TEXT	SEGMENT PARA USE32 PUBLIC 'CODE'
_TEXT	ENDS
;	COMDAT ?close@?$basic_filebuf@DV?$char_traits@D@_STL@@@_STL@@QAEPAV12@XZ
_TEXT	SEGMENT PARA USE32 PUBLIC 'CODE'
_TEXT	ENDS
;	COMDAT ?_M_exit_input_mode@?$basic_filebuf@DV?$char_traits@D@_STL@@@_STL@@AAEXXZ
_TEXT	SEGMENT PARA USE32 PUBLIC 'CODE'
_TEXT	ENDS
;	COMDAT ?_M_switch_to_output_mode@?$basic_filebuf@DV?$char_traits@D@_STL@@@_STL@@AAE_NXZ
_TEXT	SEGMENT PARA USE32 PUBLIC 'CODE'
_TEXT	ENDS
;	COMDAT ?_M_output_error@?$basic_filebuf@DV?$char_traits@D@_STL@@@_STL@@AAEHXZ
_TEXT	SEGMENT PARA USE32 PUBLIC 'CODE'
_TEXT	ENDS
;	COMDAT ?_M_allocate_buffers@?$basic_filebuf@DV?$char_traits@D@_STL@@@_STL@@AAE_NPADH@Z
_TEXT	SEGMENT PARA USE32 PUBLIC 'CODE'
_TEXT	ENDS
;	COMDAT ?_M_deallocate_buffers@?$basic_filebuf@DV?$char_traits@D@_STL@@@_STL@@AAEXXZ
_TEXT	SEGMENT PARA USE32 PUBLIC 'CODE'
_TEXT	ENDS
;	COMDAT ?_M_seek_init@?$basic_filebuf@DV?$char_traits@D@_STL@@@_STL@@AAE_N_N@Z
_TEXT	SEGMENT PARA USE32 PUBLIC 'CODE'
_TEXT	ENDS
;	COMDAT ?_M_setup_codecvt@?$basic_filebuf@DV?$char_traits@D@_STL@@@_STL@@AAEXABVlocale@2@@Z
_TEXT	SEGMENT PARA USE32 PUBLIC 'CODE'
_TEXT	ENDS
;	COMDAT ??$equal@PADPADU?$_Eq_traits@V?$char_traits@D@_STL@@@_STL@@@_STL@@YA_NPAD00U?$_Eq_traits@V?$char_traits@D@_STL@@@0@@Z
_TEXT	SEGMENT PARA USE32 PUBLIC 'CODE'
_TEXT	ENDS
;	COMDAT ??$_Destroy@V?$basic_string@DV?$char_traits@D@_STL@@V?$allocator@D@2@@_STL@@@_STL@@YAXPAV?$basic_string@DV?$char_traits@D@_STL@@V?$allocator@D@2@@0@@Z
_TEXT	SEGMENT PARA USE32 PUBLIC 'CODE'
_TEXT	ENDS
;	COMDAT ??$_M_assign_dispatch@PAD@?$basic_string@DV?$char_traits@D@_STL@@V?$allocator@D@2@@_STL@@AAEAAV01@PAD0ABU__false_type@1@@Z
_TEXT	SEGMENT PARA USE32 PUBLIC 'CODE'
_TEXT	ENDS
;	COMDAT ?_M_erase@?$_Rb_tree@KU?$pair@$$CBKK@_STL@@U?$_Select1st@U?$pair@$$CBKK@_STL@@@2@U?$less@K@2@V?$allocator@U?$pair@$$CBKK@_STL@@@2@@_STL@@AAEXPAU?$_Rb_tree_node@U?$pair@$$CBKK@_STL@@@2@@Z
_TEXT	SEGMENT PARA USE32 PUBLIC 'CODE'
_TEXT	ENDS
;	COMDAT ?insert_unique@?$_Rb_tree@KU?$pair@$$CBKK@_STL@@U?$_Select1st@U?$pair@$$CBKK@_STL@@@2@U?$less@K@2@V?$allocator@U?$pair@$$CBKK@_STL@@@2@@_STL@@QAE?AU?$_Rb_tree_iterator@U?$pair@$$CBKK@_STL@@U?$_Nonconst_traits@U?$pair@$$CBKK@_STL@@@2@@2@U32@ABU?$pair@$$CBKK@2@@Z
_TEXT	SEGMENT PARA USE32 PUBLIC 'CODE'
_TEXT	ENDS
;	COMDAT ??$insert@U?$_List_iterator@V?$basic_string@DV?$char_traits@D@_STL@@V?$allocator@D@2@@_STL@@U?$_Const_traits@V?$basic_string@DV?$char_traits@D@_STL@@V?$allocator@D@2@@_STL@@@2@@_STL@@@?$list@V?$basic_string@DV?$char_traits@D@_STL@@V?$allocator@D@2@@_STL@@V?$allocator@V?$basic_string@DV?$char_traits@D@_STL@@V?$allocator@D@2@@_STL@@@2@@_STL@@QAEXU?$_List_iterator@V?$basic_string@DV?$char_traits@D@_STL@@V?$allocator@D@2@@_STL@@U?$_Nonconst_traits@V?$basic_string@DV?$char_traits@D@_STL@@V?$allocator@D@2@@_STL@@@2@@1@U?$_List_iterator@V?$basic_string@DV?$char_traits@D@_STL@@V?$allocator@D@2@@_STL@@U?$_Const_traits@V?$basic_string@DV?$char_traits@D@_STL@@V?$allocator@D@2@@_STL@@@2@@1@1@Z
_TEXT	SEGMENT PARA USE32 PUBLIC 'CODE'
_TEXT	ENDS
;	COMDAT ??$find@K@?$_Rb_tree@KU?$pair@$$CBKK@_STL@@U?$_Select1st@U?$pair@$$CBKK@_STL@@@2@U?$less@K@2@V?$allocator@U?$pair@$$CBKK@_STL@@@2@@_STL@@QAE?AU?$_Rb_tree_iterator@U?$pair@$$CBKK@_STL@@U?$_Nonconst_traits@U?$pair@$$CBKK@_STL@@@2@@1@ABK@Z
_TEXT	SEGMENT PARA USE32 PUBLIC 'CODE'
_TEXT	ENDS
;	COMDAT ??$find@K@?$_Rb_tree@KU?$pair@$$CBKK@_STL@@U?$_Select1st@U?$pair@$$CBKK@_STL@@@2@U?$less@K@2@V?$allocator@U?$pair@$$CBKK@_STL@@@2@@_STL@@QBE?AU?$_Rb_tree_iterator@U?$pair@$$CBKK@_STL@@U?$_Const_traits@U?$pair@$$CBKK@_STL@@@2@@1@ABK@Z
_TEXT	SEGMENT PARA USE32 PUBLIC 'CODE'
_TEXT	ENDS
;	COMDAT ??$?0U?$_List_node@V?$basic_string@DV?$char_traits@D@_STL@@V?$allocator@D@2@@_STL@@@_STL@@@?$allocator@V?$basic_string@DV?$char_traits@D@_STL@@V?$allocator@D@2@@_STL@@@_STL@@QAE@ABV?$allocator@U?$_List_node@V?$basic_string@DV?$char_traits@D@_STL@@V?$allocator@D@2@@_STL@@@_STL@@@1@@Z
_TEXT	SEGMENT PARA USE32 PUBLIC 'CODE'
_TEXT	ENDS
;	COMDAT ??$?0U?$pair@$$CBKK@_STL@@@?$allocator@U?$_Rb_tree_node@U?$pair@$$CBKK@_STL@@@_STL@@@_STL@@QAE@ABV?$allocator@U?$pair@$$CBKK@_STL@@@1@@Z
_TEXT	SEGMENT PARA USE32 PUBLIC 'CODE'
_TEXT	ENDS
;	COMDAT ??_G?$basic_string@DV?$char_traits@D@_STL@@V?$allocator@D@2@@_STL@@QAEPAXI@Z
_TEXT	SEGMENT PARA USE32 PUBLIC 'CODE'
_TEXT	ENDS
;	COMDAT ?end@?$basic_string@DV?$char_traits@D@_STL@@V?$allocator@D@2@@_STL@@QAEPADXZ
_TEXT	SEGMENT PARA USE32 PUBLIC 'CODE'
_TEXT	ENDS
;	COMDAT ?erase@?$basic_string@DV?$char_traits@D@_STL@@V?$allocator@D@2@@_STL@@QAEPADPAD0@Z
_TEXT	SEGMENT PARA USE32 PUBLIC 'CODE'
_TEXT	ENDS
;	COMDAT ?_M_exit_putback_mode@?$basic_filebuf@DV?$char_traits@D@_STL@@@_STL@@AAEXXZ
_TEXT	SEGMENT PARA USE32 PUBLIC 'CODE'
_TEXT	ENDS
;	COMDAT ??0?$_List_iterator@V?$basic_string@DV?$char_traits@D@_STL@@V?$allocator@D@2@@_STL@@U?$_Nonconst_traits@V?$basic_string@DV?$char_traits@D@_STL@@V?$allocator@D@2@@_STL@@@2@@_STL@@QAE@ABU01@@Z
_TEXT	SEGMENT PARA USE32 PUBLIC 'CODE'
_TEXT	ENDS
;	COMDAT ??R?$_Eq_traits@V?$char_traits@D@_STL@@@_STL@@QBE_NABD0@Z
_TEXT	SEGMENT PARA USE32 PUBLIC 'CODE'
_TEXT	ENDS
;	COMDAT ?_S_right@?$_Rb_tree@KU?$pair@$$CBKK@_STL@@U?$_Select1st@U?$pair@$$CBKK@_STL@@@2@U?$less@K@2@V?$allocator@U?$pair@$$CBKK@_STL@@@2@@_STL@@KAAAPAU?$_Rb_tree_node@U?$pair@$$CBKK@_STL@@@2@PAU_Rb_tree_node_base@2@@Z
_TEXT	SEGMENT PARA USE32 PUBLIC 'CODE'
_TEXT	ENDS
;	COMDAT ?_S_key@?$_Rb_tree@KU?$pair@$$CBKK@_STL@@U?$_Select1st@U?$pair@$$CBKK@_STL@@@2@U?$less@K@2@V?$allocator@U?$pair@$$CBKK@_STL@@@2@@_STL@@KAABKPAU_Rb_tree_node_base@2@@Z
_TEXT	SEGMENT PARA USE32 PUBLIC 'CODE'
_TEXT	ENDS
;	COMDAT ??E?$_Rb_tree_iterator@U?$pair@$$CBKK@_STL@@U?$_Nonconst_traits@U?$pair@$$CBKK@_STL@@@2@@_STL@@QAEAAU01@XZ
_TEXT	SEGMENT PARA USE32 PUBLIC 'CODE'
_TEXT	ENDS
;	COMDAT ??F?$_Rb_tree_iterator@U?$pair@$$CBKK@_STL@@U?$_Nonconst_traits@U?$pair@$$CBKK@_STL@@@2@@_STL@@QAEAAU01@XZ
_TEXT	SEGMENT PARA USE32 PUBLIC 'CODE'
_TEXT	ENDS
;	COMDAT ?move@?$__char_traits_base@DH@_STL@@SAPADPADPBDI@Z
_TEXT	SEGMENT PARA USE32 PUBLIC 'CODE'
_TEXT	ENDS
;	COMDAT ??$_M_range_initialize@PBD@?$basic_string@DV?$char_traits@D@_STL@@V?$allocator@D@2@@_STL@@AAEXPBD0ABUforward_iterator_tag@1@@Z
_TEXT	SEGMENT PARA USE32 PUBLIC 'CODE'
_TEXT	ENDS
;	COMDAT ??$_M_range_initialize@PAD@?$basic_string@DV?$char_traits@D@_STL@@V?$allocator@D@2@@_STL@@AAEXPAD0ABUforward_iterator_tag@1@@Z
_TEXT	SEGMENT PARA USE32 PUBLIC 'CODE'
_TEXT	ENDS
;	COMDAT ?_M_unshift@?$basic_filebuf@DV?$char_traits@D@_STL@@@_STL@@AAE_NXZ
_TEXT	SEGMENT PARA USE32 PUBLIC 'CODE'
_TEXT	ENDS
;	COMDAT ?_M_allocate_buffers@?$basic_filebuf@DV?$char_traits@D@_STL@@@_STL@@AAE_NXZ
_TEXT	SEGMENT PARA USE32 PUBLIC 'CODE'
_TEXT	ENDS
;	COMDAT ??$max@H@_STL@@YAABHABH0@Z
_TEXT	SEGMENT PARA USE32 PUBLIC 'CODE'
_TEXT	ENDS
;	COMDAT ??$use_facet@V?$codecvt@DDH@_STL@@@_STL@@YAABV?$codecvt@DDH@0@ABVlocale@0@@Z
_TEXT	SEGMENT PARA USE32 PUBLIC 'CODE'
_TEXT	ENDS
;	COMDAT ??$append@PAD@?$basic_string@DV?$char_traits@D@_STL@@V?$allocator@D@2@@_STL@@QAEAAV01@PAD0@Z
_TEXT	SEGMENT PARA USE32 PUBLIC 'CODE'
_TEXT	ENDS
;	COMDAT ?_M_insert@?$_Rb_tree@KU?$pair@$$CBKK@_STL@@U?$_Select1st@U?$pair@$$CBKK@_STL@@@2@U?$less@K@2@V?$allocator@U?$pair@$$CBKK@_STL@@@2@@_STL@@AAE?AU?$_Rb_tree_iterator@U?$pair@$$CBKK@_STL@@U?$_Nonconst_traits@U?$pair@$$CBKK@_STL@@@2@@2@PAU_Rb_tree_node_base@2@0ABU?$pair@$$CBKK@2@0@Z
_TEXT	SEGMENT PARA USE32 PUBLIC 'CODE'
_TEXT	ENDS
;	COMDAT ?insert_unique@?$_Rb_tree@KU?$pair@$$CBKK@_STL@@U?$_Select1st@U?$pair@$$CBKK@_STL@@@2@U?$less@K@2@V?$allocator@U?$pair@$$CBKK@_STL@@@2@@_STL@@QAE?AU?$pair@U?$_Rb_tree_iterator@U?$pair@$$CBKK@_STL@@U?$_Nonconst_traits@U?$pair@$$CBKK@_STL@@@2@@_STL@@_N@2@ABU?$pair@$$CBKK@2@@Z
_TEXT	SEGMENT PARA USE32 PUBLIC 'CODE'
_TEXT	ENDS
;	COMDAT ??$_Destroy@U?$pair@$$CBKK@_STL@@@_STL@@YAXPAU?$pair@$$CBKK@0@@Z
_TEXT	SEGMENT PARA USE32 PUBLIC 'CODE'
_TEXT	ENDS
;	COMDAT ??$_M_insert_dispatch@U?$_List_iterator@V?$basic_string@DV?$char_traits@D@_STL@@V?$allocator@D@2@@_STL@@U?$_Const_traits@V?$basic_string@DV?$char_traits@D@_STL@@V?$allocator@D@2@@_STL@@@2@@_STL@@@?$list@V?$basic_string@DV?$char_traits@D@_STL@@V?$allocator@D@2@@_STL@@V?$allocator@V?$basic_string@DV?$char_traits@D@_STL@@V?$allocator@D@2@@_STL@@@2@@_STL@@QAEXU?$_List_iterator@V?$basic_string@DV?$char_traits@D@_STL@@V?$allocator@D@2@@_STL@@U?$_Nonconst_traits@V?$basic_string@DV?$char_traits@D@_STL@@V?$allocator@D@2@@_STL@@@2@@1@U?$_List_iterator@V?$basic_string@DV?$char_traits@D@_STL@@V?$allocator@D@2@@_STL@@U?$_Const_traits@V?$basic_string@DV?$char_traits@D@_STL@@V?$allocator@D@2@@_STL@@@2@@1@1ABU__false_type@1@@Z
_TEXT	SEGMENT PARA USE32 PUBLIC 'CODE'
_TEXT	ENDS
;	COMDAT ??$_M_find@K@?$_Rb_tree@KU?$pair@$$CBKK@_STL@@U?$_Select1st@U?$pair@$$CBKK@_STL@@@2@U?$less@K@2@V?$allocator@U?$pair@$$CBKK@_STL@@@2@@_STL@@ABEPAU?$_Rb_tree_node@U?$pair@$$CBKK@_STL@@@1@ABK@Z
_TEXT	SEGMENT PARA USE32 PUBLIC 'CODE'
_TEXT	ENDS
;	COMDAT ??E?$_List_iterator@V?$basic_string@DV?$char_traits@D@_STL@@V?$allocator@D@2@@_STL@@U?$_Const_traits@V?$basic_string@DV?$char_traits@D@_STL@@V?$allocator@D@2@@_STL@@@2@@_STL@@QAEAAU01@XZ
_TEXT	SEGMENT PARA USE32 PUBLIC 'CODE'
_TEXT	ENDS
;	COMDAT ?_M_create_node@?$_Rb_tree@KU?$pair@$$CBKK@_STL@@U?$_Select1st@U?$pair@$$CBKK@_STL@@@2@U?$less@K@2@V?$allocator@U?$pair@$$CBKK@_STL@@@2@@_STL@@IAEPAU?$_Rb_tree_node@U?$pair@$$CBKK@_STL@@@2@ABU?$pair@$$CBKK@2@@Z
_TEXT	SEGMENT PARA USE32 PUBLIC 'CODE'
_TEXT	ENDS
;	COMDAT ?_S_parent@?$_Rb_tree@KU?$pair@$$CBKK@_STL@@U?$_Select1st@U?$pair@$$CBKK@_STL@@@2@U?$less@K@2@V?$allocator@U?$pair@$$CBKK@_STL@@@2@@_STL@@KAAAPAU?$_Rb_tree_node@U?$pair@$$CBKK@_STL@@@2@PAU32@@Z
_TEXT	SEGMENT PARA USE32 PUBLIC 'CODE'
_TEXT	ENDS
;	COMDAT ?begin@?$_Rb_tree@KU?$pair@$$CBKK@_STL@@U?$_Select1st@U?$pair@$$CBKK@_STL@@@2@U?$less@K@2@V?$allocator@U?$pair@$$CBKK@_STL@@@2@@_STL@@QAE?AU?$_Rb_tree_iterator@U?$pair@$$CBKK@_STL@@U?$_Nonconst_traits@U?$pair@$$CBKK@_STL@@@2@@2@XZ
_TEXT	SEGMENT PARA USE32 PUBLIC 'CODE'
_TEXT	ENDS
;	COMDAT ??0?$pair@U?$_Rb_tree_iterator@U?$pair@$$CBKK@_STL@@U?$_Nonconst_traits@U?$pair@$$CBKK@_STL@@@2@@_STL@@_N@_STL@@QAE@ABU?$_Rb_tree_iterator@U?$pair@$$CBKK@_STL@@U?$_Nonconst_traits@U?$pair@$$CBKK@_STL@@@2@@1@AB_N@Z
_TEXT	SEGMENT PARA USE32 PUBLIC 'CODE'
_TEXT	ENDS
;	COMDAT ??$distance@PBD@_STL@@YAHABQBD0@Z
_TEXT	SEGMENT PARA USE32 PUBLIC 'CODE'
_TEXT	ENDS
;	COMDAT ?_M_allocate_block@?$_String_base@DV?$allocator@D@_STL@@@_STL@@QAEXI@Z
_TEXT	SEGMENT PARA USE32 PUBLIC 'CODE'
_TEXT	ENDS
;	COMDAT ??$distance@PAD@_STL@@YAHABQAD0@Z
_TEXT	SEGMENT PARA USE32 PUBLIC 'CODE'
_TEXT	ENDS
;	COMDAT ??$uninitialized_copy@PADPAD@_STL@@YAPADPAD00@Z
_TEXT	SEGMENT PARA USE32 PUBLIC 'CODE'
_TEXT	ENDS
;	COMDAT ??$_M_append_dispatch@PAD@?$basic_string@DV?$char_traits@D@_STL@@V?$allocator@D@2@@_STL@@AAEAAV01@PAD0ABU__false_type@1@@Z
_TEXT	SEGMENT PARA USE32 PUBLIC 'CODE'
_TEXT	ENDS
;	COMDAT ??$_Construct@U?$pair@$$CBKK@_STL@@U12@@_STL@@YAXPAU?$pair@$$CBKK@0@ABU10@@Z
_TEXT	SEGMENT PARA USE32 PUBLIC 'CODE'
_TEXT	ENDS
;	COMDAT ?max_size@?$_String_base@DV?$allocator@D@_STL@@@_STL@@QBEIXZ
_TEXT	SEGMENT PARA USE32 PUBLIC 'CODE'
_TEXT	ENDS
;	COMDAT ??0?$pair@$$CBKK@_STL@@QAE@ABU01@@Z
_TEXT	SEGMENT PARA USE32 PUBLIC 'CODE'
_TEXT	ENDS
;	COMDAT ??$__distance@PBD@_STL@@YAHABQBD0ABUrandom_access_iterator_tag@0@@Z
_TEXT	SEGMENT PARA USE32 PUBLIC 'CODE'
_TEXT	ENDS
;	COMDAT ?_M_throw_length_error@?$_String_base@DV?$allocator@D@_STL@@@_STL@@QBEXXZ
_TEXT	SEGMENT PARA USE32 PUBLIC 'CODE'
_TEXT	ENDS
;	COMDAT ??$__distance@PAD@_STL@@YAHABQAD0ABUrandom_access_iterator_tag@0@@Z
_TEXT	SEGMENT PARA USE32 PUBLIC 'CODE'
_TEXT	ENDS
;	COMDAT ??$__uninitialized_copy@PADPAD@_STL@@YAPADPAD00ABU__true_type@0@@Z
_TEXT	SEGMENT PARA USE32 PUBLIC 'CODE'
_TEXT	ENDS
;	COMDAT ??$append@PAD@?$basic_string@DV?$char_traits@D@_STL@@V?$allocator@D@2@@_STL@@AAEAAV01@PAD0ABUforward_iterator_tag@1@@Z
_TEXT	SEGMENT PARA USE32 PUBLIC 'CODE'
_TEXT	ENDS
;	COMDAT ?_M_construct_null@?$basic_string@DV?$char_traits@D@_STL@@V?$allocator@D@2@@_STL@@AAEXPAD@Z
_TEXT	SEGMENT PARA USE32 PUBLIC 'CODE'
_TEXT	ENDS
;	COMDAT ?max_size@?$basic_string@DV?$char_traits@D@_STL@@V?$allocator@D@2@@_STL@@QBEIXZ
_TEXT	SEGMENT PARA USE32 PUBLIC 'CODE'
_TEXT	ENDS
;	COMDAT ?capacity@?$basic_string@DV?$char_traits@D@_STL@@V?$allocator@D@2@@_STL@@QBEIXZ
_TEXT	SEGMENT PARA USE32 PUBLIC 'CODE'
_TEXT	ENDS
;	COMDAT ?_Ret@?$_BothPtrType@PADPAD@_STL@@SA?AU__true_type@2@XZ
_TEXT	SEGMENT PARA USE32 PUBLIC 'CODE'
_TEXT	ENDS
;	COMDAT ?_M_construct_null_aux@?$basic_string@DV?$char_traits@D@_STL@@V?$allocator@D@2@@_STL@@AAEXPADABU__true_type@2@@Z
_TEXT	SEGMENT PARA USE32 PUBLIC 'CODE'
_TEXT	ENDS
;	COMDAT ??$__copy_aux@PADPAD@_STL@@YAPADPAD00ABU__true_type@0@@Z
_TEXT	SEGMENT PARA USE32 PUBLIC 'CODE'
_TEXT	ENDS
;	COMDAT ??$max@I@_STL@@YAABIABI0@Z
_TEXT	SEGMENT PARA USE32 PUBLIC 'CODE'
_TEXT	ENDS
;	COMDAT ?_Ret@?$_OKToMemCpy@DD@_STL@@SA?AU__true_type@2@XZ
_TEXT	SEGMENT PARA USE32 PUBLIC 'CODE'
_TEXT	ENDS
;	COMDAT ??$_IsOKToMemCpy@DD@_STL@@YA?AU?$_OKToMemCpy@DD@0@PAD0@Z
_TEXT	SEGMENT PARA USE32 PUBLIC 'CODE'
_TEXT	ENDS
;	COMDAT ??$__copy_ptrs@PADPAD@_STL@@YAPADPAD00ABU__true_type@0@@Z
_TEXT	SEGMENT PARA USE32 PUBLIC 'CODE'
_TEXT	ENDS
;	COMDAT ??_R3Packet@@8
rdata$r	SEGMENT DWORD USE32 PUBLIC 'CONST'
rdata$r	ENDS
;	COMDAT ??_R3GCTimeLimitItemInfo@@8
rdata$r	SEGMENT DWORD USE32 PUBLIC 'CONST'
rdata$r	ENDS
;	COMDAT ??_R3PacketFactory@@8
rdata$r	SEGMENT DWORD USE32 PUBLIC 'CONST'
rdata$r	ENDS
;	COMDAT ??_R2Packet@@8
rdata$r	SEGMENT DWORD USE32 PUBLIC 'CONST'
rdata$r	ENDS
;	COMDAT ??_R2GCTimeLimitItemInfo@@8
rdata$r	SEGMENT DWORD USE32 PUBLIC 'CONST'
rdata$r	ENDS
;	COMDAT ??_R2PacketFactory@@8
rdata$r	SEGMENT DWORD USE32 PUBLIC 'CONST'
rdata$r	ENDS
;	COMDAT ??_R1A@?0A@A@Packet@@8
rdata$r	SEGMENT DWORD USE32 PUBLIC 'CONST'
rdata$r	ENDS
;	COMDAT ??_R1A@?0A@A@GCTimeLimitItemInfo@@8
rdata$r	SEGMENT DWORD USE32 PUBLIC 'CONST'
rdata$r	ENDS
;	COMDAT ??_R1A@?0A@A@PacketFactory@@8
rdata$r	SEGMENT DWORD USE32 PUBLIC 'CONST'
rdata$r	ENDS
;	COMDAT ??_R0?AVPacket@@@8
_DATA	SEGMENT DWORD USE32 PUBLIC 'DATA'
_DATA	ENDS
;	COMDAT ??_R0?AVGCTimeLimitItemInfo@@@8
_DATA	SEGMENT DWORD USE32 PUBLIC 'DATA'
_DATA	ENDS
;	COMDAT ??_R0?AVPacketFactory@@@8
_DATA	SEGMENT DWORD USE32 PUBLIC 'DATA'
_DATA	ENDS
;	COMDAT ??_R4Packet@@6B@
rdata$r	SEGMENT DWORD USE32 PUBLIC 'CONST'
rdata$r	ENDS
;	COMDAT ??_R4GCTimeLimitItemInfo@@6B@
rdata$r	SEGMENT DWORD USE32 PUBLIC 'CONST'
rdata$r	ENDS
;	COMDAT ??_R4PacketFactory@@6B@
rdata$r	SEGMENT DWORD USE32 PUBLIC 'CONST'
rdata$r	ENDS
;	COMDAT ?__copy_trivial@_STL@@YAPAXPBX0PAX@Z
_TEXT	SEGMENT PARA USE32 PUBLIC 'CODE'
_TEXT	ENDS
;	COMDAT ?_M_deallocate_block@?$_String_base@DV?$allocator@D@_STL@@@_STL@@QAEXXZ
_TEXT	SEGMENT PARA USE32 PUBLIC 'CODE'
_TEXT	ENDS
;	COMDAT ?deallocate@?$allocator@D@_STL@@QAEXPADI@Z
_TEXT	SEGMENT PARA USE32 PUBLIC 'CODE'
_TEXT	ENDS
;	COMDAT ??3@YAXPAX0@Z
_TEXT	SEGMENT PARA USE32 PUBLIC 'CODE'
_TEXT	ENDS
;	COMDAT ??2@YAPAXIPAX@Z
_TEXT	SEGMENT PARA USE32 PUBLIC 'CODE'
_TEXT	ENDS
;	COMDAT ?_M_incr@_List_iterator_base@_STL@@QAEXXZ
_TEXT	SEGMENT PARA USE32 PUBLIC 'CODE'
_TEXT	ENDS
;	COMDAT ??D?$_List_iterator@V?$basic_string@DV?$char_traits@D@_STL@@V?$allocator@D@2@@_STL@@U?$_Const_traits@V?$basic_string@DV?$char_traits@D@_STL@@V?$allocator@D@2@@_STL@@@2@@_STL@@QBEABV?$basic_string@DV?$char_traits@D@_STL@@V?$allocator@D@2@@1@XZ
_TEXT	SEGMENT PARA USE32 PUBLIC 'CODE'
_TEXT	ENDS
;	COMDAT ?insert@?$list@V?$basic_string@DV?$char_traits@D@_STL@@V?$allocator@D@2@@_STL@@V?$allocator@V?$basic_string@DV?$char_traits@D@_STL@@V?$allocator@D@2@@_STL@@@2@@_STL@@QAE?AU?$_List_iterator@V?$basic_string@DV?$char_traits@D@_STL@@V?$allocator@D@2@@_STL@@U?$_Nonconst_traits@V?$basic_string@DV?$char_traits@D@_STL@@V?$allocator@D@2@@_STL@@@2@@2@U32@ABV?$basic_string@DV?$char_traits@D@_STL@@V?$allocator@D@2@@2@@Z
_TEXT	SEGMENT PARA USE32 PUBLIC 'CODE'
_TEXT	ENDS
;	COMDAT ?_M_create_node@?$list@V?$basic_string@DV?$char_traits@D@_STL@@V?$allocator@D@2@@_STL@@V?$allocator@V?$basic_string@DV?$char_traits@D@_STL@@V?$allocator@D@2@@_STL@@@2@@_STL@@IAEPAU?$_List_node@V?$basic_string@DV?$char_traits@D@_STL@@V?$allocator@D@2@@_STL@@@2@ABV?$basic_string@DV?$char_traits@D@_STL@@V?$allocator@D@2@@2@@Z
_TEXT	SEGMENT PARA USE32 PUBLIC 'CODE'
_TEXT	ENDS
;	COMDAT ?allocate@?$allocator@U?$_List_node@V?$basic_string@DV?$char_traits@D@_STL@@V?$allocator@D@2@@_STL@@@_STL@@@_STL@@QAEPAU?$_List_node@V?$basic_string@DV?$char_traits@D@_STL@@V?$allocator@D@2@@_STL@@@2@IPBX@Z
_TEXT	SEGMENT PARA USE32 PUBLIC 'CODE'
_TEXT	ENDS
;	COMDAT ??$_Construct@V?$basic_string@DV?$char_traits@D@_STL@@V?$allocator@D@2@@_STL@@V12@@_STL@@YAXPAV?$basic_string@DV?$char_traits@D@_STL@@V?$allocator@D@2@@0@ABV10@@Z
_TEXT	SEGMENT PARA USE32 PUBLIC 'CODE'
_TEXT	ENDS
;	COMDAT ?deallocate@?$allocator@U?$_List_node@V?$basic_string@DV?$char_traits@D@_STL@@V?$allocator@D@2@@_STL@@@_STL@@@_STL@@QAEXPAU?$_List_node@V?$basic_string@DV?$char_traits@D@_STL@@V?$allocator@D@2@@_STL@@@2@I@Z
_TEXT	SEGMENT PARA USE32 PUBLIC 'CODE'
_TEXT	ENDS
;	COMDAT ??0?$_List_iterator@V?$basic_string@DV?$char_traits@D@_STL@@V?$allocator@D@2@@_STL@@U?$_Nonconst_traits@V?$basic_string@DV?$char_traits@D@_STL@@V?$allocator@D@2@@_STL@@@2@@_STL@@QAE@PAU?$_List_node@V?$basic_string@DV?$char_traits@D@_STL@@V?$allocator@D@2@@_STL@@@1@@Z
_TEXT	SEGMENT PARA USE32 PUBLIC 'CODE'
_TEXT	ENDS
;	COMDAT ??9_List_iterator_base@_STL@@QBE_NABU01@@Z
_TEXT	SEGMENT PARA USE32 PUBLIC 'CODE'
_TEXT	ENDS
;	COMDAT ?__page_size@_Filebuf_base@_STL@@SAIXZ
_TEXT	SEGMENT PARA USE32 PUBLIC 'CODE'
_TEXT	ENDS
;	COMDAT ?_M_write@?$basic_filebuf@DV?$char_traits@D@_STL@@@_STL@@QAE_NPADH@Z
_TEXT	SEGMENT PARA USE32 PUBLIC 'CODE'
_TEXT	ENDS
;	COMDAT ?unshift@?$codecvt@DDH@_STL@@QBE?AW4result@codecvt_base@2@AAHPAD1AAPAD@Z
_TEXT	SEGMENT PARA USE32 PUBLIC 'CODE'
_TEXT	ENDS
;	COMDAT ?uninitialized_copy@_STL@@YAPADPBD0PAD@Z
_TEXT	SEGMENT PARA USE32 PUBLIC 'CODE'
_TEXT	ENDS
;	COMDAT ??0_List_iterator_base@_STL@@QAE@PAU_List_node_base@1@@Z
_TEXT	SEGMENT PARA USE32 PUBLIC 'CODE'
_TEXT	ENDS
;	COMDAT ?_Destroy@_STL@@YAXPAD0@Z
_TEXT	SEGMENT PARA USE32 PUBLIC 'CODE'
_TEXT	ENDS
;	COMDAT ?assign@?$char_traits@D@_STL@@SAXAADABD@Z
_TEXT	SEGMENT PARA USE32 PUBLIC 'CODE'
_TEXT	ENDS
;	COMDAT ?always_noconv@?$codecvt@DDH@_STL@@QBE_NXZ
_TEXT	SEGMENT PARA USE32 PUBLIC 'CODE'
_TEXT	ENDS
;	COMDAT ?encoding@?$codecvt@DDH@_STL@@QBEHXZ
_TEXT	SEGMENT PARA USE32 PUBLIC 'CODE'
_TEXT	ENDS
;	COMDAT ?max_length@?$codecvt@DDH@_STL@@QBEHXZ
_TEXT	SEGMENT PARA USE32 PUBLIC 'CODE'
_TEXT	ENDS
;	COMDAT ?__o_mode@_Filebuf_base@_STL@@QBEHXZ
_TEXT	SEGMENT PARA USE32 PUBLIC 'CODE'
_TEXT	ENDS
;	COMDAT ?deallocate@?$__node_alloc@$00$0A@@_STL@@SAXPAXI@Z
_TEXT	SEGMENT PARA USE32 PUBLIC 'CODE'
_TEXT	ENDS
;	COMDAT ?__stl_delete@_STL@@YAXPAX@Z
_TEXT	SEGMENT PARA USE32 PUBLIC 'CODE'
_TEXT	ENDS
;	COMDAT ?begin@?$list@V?$basic_string@DV?$char_traits@D@_STL@@V?$allocator@D@2@@_STL@@V?$allocator@V?$basic_string@DV?$char_traits@D@_STL@@V?$allocator@D@2@@_STL@@@2@@_STL@@QAE?AU?$_List_iterator@V?$basic_string@DV?$char_traits@D@_STL@@V?$allocator@D@2@@_STL@@U?$_Nonconst_traits@V?$basic_string@DV?$char_traits@D@_STL@@V?$allocator@D@2@@_STL@@@2@@2@XZ
_TEXT	SEGMENT PARA USE32 PUBLIC 'CODE'
_TEXT	ENDS
;	COMDAT ?begin@?$list@V?$basic_string@DV?$char_traits@D@_STL@@V?$allocator@D@2@@_STL@@V?$allocator@V?$basic_string@DV?$char_traits@D@_STL@@V?$allocator@D@2@@_STL@@@2@@_STL@@QBE?AU?$_List_iterator@V?$basic_string@DV?$char_traits@D@_STL@@V?$allocator@D@2@@_STL@@U?$_Const_traits@V?$basic_string@DV?$char_traits@D@_STL@@V?$allocator@D@2@@_STL@@@2@@2@XZ
_TEXT	SEGMENT PARA USE32 PUBLIC 'CODE'
_TEXT	ENDS
;	COMDAT ??0?$_List_iterator@V?$basic_string@DV?$char_traits@D@_STL@@V?$allocator@D@2@@_STL@@U?$_Const_traits@V?$basic_string@DV?$char_traits@D@_STL@@V?$allocator@D@2@@_STL@@@2@@_STL@@QAE@PAU?$_List_node@V?$basic_string@DV?$char_traits@D@_STL@@V?$allocator@D@2@@_STL@@@1@@Z
_TEXT	SEGMENT PARA USE32 PUBLIC 'CODE'
_TEXT	ENDS
;	COMDAT ?end@?$list@V?$basic_string@DV?$char_traits@D@_STL@@V?$allocator@D@2@@_STL@@V?$allocator@V?$basic_string@DV?$char_traits@D@_STL@@V?$allocator@D@2@@_STL@@@2@@_STL@@QBE?AU?$_List_iterator@V?$basic_string@DV?$char_traits@D@_STL@@V?$allocator@D@2@@_STL@@U?$_Const_traits@V?$basic_string@DV?$char_traits@D@_STL@@V?$allocator@D@2@@_STL@@@2@@2@XZ
_TEXT	SEGMENT PARA USE32 PUBLIC 'CODE'
_TEXT	ENDS
;	COMDAT ??1?$_List_base@V?$basic_string@DV?$char_traits@D@_STL@@V?$allocator@D@2@@_STL@@V?$allocator@V?$basic_string@DV?$char_traits@D@_STL@@V?$allocator@D@2@@_STL@@@2@@_STL@@QAE@XZ
_TEXT	SEGMENT PARA USE32 PUBLIC 'CODE'
_TEXT	ENDS
;	COMDAT ??1?$_STLP_alloc_proxy@PAU?$_List_node@V?$basic_string@DV?$char_traits@D@_STL@@V?$allocator@D@2@@_STL@@@_STL@@U12@V?$allocator@U?$_List_node@V?$basic_string@DV?$char_traits@D@_STL@@V?$allocator@D@2@@_STL@@@_STL@@@2@@_STL@@QAE@XZ
_TEXT	SEGMENT PARA USE32 PUBLIC 'CODE'
_TEXT	ENDS
;	COMDAT ??1?$allocator@U?$_List_node@V?$basic_string@DV?$char_traits@D@_STL@@V?$allocator@D@2@@_STL@@@_STL@@@_STL@@QAE@XZ
_TEXT	SEGMENT PARA USE32 PUBLIC 'CODE'
_TEXT	ENDS
;	COMDAT ?clear@?$_List_base@V?$basic_string@DV?$char_traits@D@_STL@@V?$allocator@D@2@@_STL@@V?$allocator@V?$basic_string@DV?$char_traits@D@_STL@@V?$allocator@D@2@@_STL@@@2@@_STL@@QAEXXZ
_TEXT	SEGMENT PARA USE32 PUBLIC 'CODE'
_TEXT	ENDS
;	COMDAT ??1?$allocator@V?$basic_string@DV?$char_traits@D@_STL@@V?$allocator@D@2@@_STL@@@_STL@@QAE@XZ
_TEXT	SEGMENT PARA USE32 PUBLIC 'CODE'
_TEXT	ENDS
;	COMDAT ??0?$_List_base@V?$basic_string@DV?$char_traits@D@_STL@@V?$allocator@D@2@@_STL@@V?$allocator@V?$basic_string@DV?$char_traits@D@_STL@@V?$allocator@D@2@@_STL@@@2@@_STL@@QAE@ABV?$allocator@V?$basic_string@DV?$char_traits@D@_STL@@V?$allocator@D@2@@_STL@@@1@@Z
_TEXT	SEGMENT PARA USE32 PUBLIC 'CODE'
_TEXT	ENDS
;	COMDAT ??0?$_STLP_alloc_proxy@PAU?$_List_node@V?$basic_string@DV?$char_traits@D@_STL@@V?$allocator@D@2@@_STL@@@_STL@@U12@V?$allocator@U?$_List_node@V?$basic_string@DV?$char_traits@D@_STL@@V?$allocator@D@2@@_STL@@@_STL@@@2@@_STL@@QAE@ABV?$allocator@U?$_List_node@V?$basic_string@DV?$char_traits@D@_STL@@V?$allocator@D@2@@_STL@@@_STL@@@1@PAU?$_List_node@V?$basic_string@DV?$char_traits@D@_STL@@V?$allocator@D@2@@_STL@@@1@@Z
_TEXT	SEGMENT PARA USE32 PUBLIC 'CODE'
_TEXT	ENDS
;	COMDAT ??0?$allocator@U?$_List_node@V?$basic_string@DV?$char_traits@D@_STL@@V?$allocator@D@2@@_STL@@@_STL@@@_STL@@QAE@ABV01@@Z
_TEXT	SEGMENT PARA USE32 PUBLIC 'CODE'
_TEXT	ENDS
;	COMDAT ??$?0V?$basic_string@DV?$char_traits@D@_STL@@V?$allocator@D@2@@_STL@@@?$allocator@U?$_List_node@V?$basic_string@DV?$char_traits@D@_STL@@V?$allocator@D@2@@_STL@@@_STL@@@_STL@@QAE@ABV?$allocator@V?$basic_string@DV?$char_traits@D@_STL@@V?$allocator@D@2@@_STL@@@1@@Z
_TEXT	SEGMENT PARA USE32 PUBLIC 'CODE'
_TEXT	ENDS
;	COMDAT ?setp@?$basic_streambuf@DV?$char_traits@D@_STL@@@_STL@@IAEXPAD0@Z
_TEXT	SEGMENT PARA USE32 PUBLIC 'CODE'
_TEXT	ENDS
;	COMDAT ?_FILE_O_set@_STL@@YAXPAU_iobuf@@PAD11@Z
_TEXT	SEGMENT PARA USE32 PUBLIC 'CODE'
_TEXT	ENDS
;	COMDAT ?_FILE_I_set@_STL@@YAXPAU_iobuf@@PAD11@Z
_TEXT	SEGMENT PARA USE32 PUBLIC 'CODE'
_TEXT	ENDS
;	COMDAT ?setg@?$basic_streambuf@DV?$char_traits@D@_STL@@@_STL@@IAEXPAD00@Z
_TEXT	SEGMENT PARA USE32 PUBLIC 'CODE'
_TEXT	ENDS
;	COMDAT ?__is_open@_Filebuf_base@_STL@@QBE_NXZ
_TEXT	SEGMENT PARA USE32 PUBLIC 'CODE'
_TEXT	ENDS
;	COMDAT ?allocate@?$__node_alloc@$00$0A@@_STL@@SAPAXI@Z
_TEXT	SEGMENT PARA USE32 PUBLIC 'CODE'
_TEXT	ENDS
;	COMDAT ?__stl_new@_STL@@YAPAXI@Z
_TEXT	SEGMENT PARA USE32 PUBLIC 'CODE'
_TEXT	ENDS
;	COMDAT ??1?$_STLP_alloc_proxy@PADDV?$allocator@D@_STL@@@_STL@@QAE@XZ
_TEXT	SEGMENT PARA USE32 PUBLIC 'CODE'
_TEXT	ENDS
;	COMDAT ?eof@?$__char_traits_base@DH@_STL@@SAHXZ
_TEXT	SEGMENT PARA USE32 PUBLIC 'CODE'
_TEXT	ENDS
;	COMDAT __CTA2?AVError@@
xdata$x	SEGMENT DWORD USE32 PUBLIC 'CONST'
xdata$x	ENDS
;	COMDAT __TI2?AVError@@
xdata$x	SEGMENT DWORD USE32 PUBLIC 'CONST'
xdata$x	ENDS
;	COMDAT ??1?$allocator@D@_STL@@QAE@XZ
_TEXT	SEGMENT PARA USE32 PUBLIC 'CODE'
_TEXT	ENDS
;	COMDAT ??0?$allocator@D@_STL@@QAE@XZ
_TEXT	SEGMENT PARA USE32 PUBLIC 'CODE'
_TEXT	ENDS
;	COMDAT ??0?$basic_string@DV?$char_traits@D@_STL@@V?$allocator@D@2@@_STL@@QAE@PBDABV?$allocator@D@1@@Z
_TEXT	SEGMENT PARA USE32 PUBLIC 'CODE'
_TEXT	ENDS
;	COMDAT ??1?$_String_base@DV?$allocator@D@_STL@@@_STL@@QAE@XZ
_TEXT	SEGMENT PARA USE32 PUBLIC 'CODE'
_TEXT	ENDS
;	COMDAT ?length@?$char_traits@D@_STL@@SAIPBD@Z
_TEXT	SEGMENT PARA USE32 PUBLIC 'CODE'
_TEXT	ENDS
;	COMDAT ??0Error@@QAE@ABV?$basic_string@DV?$char_traits@D@_STL@@V?$allocator@D@2@@_STL@@@Z
_TEXT	SEGMENT PARA USE32 PUBLIC 'CODE'
_TEXT	ENDS
;	COMDAT ??0Throwable@@QAE@V?$basic_string@DV?$char_traits@D@_STL@@V?$allocator@D@2@@_STL@@@Z
_TEXT	SEGMENT PARA USE32 PUBLIC 'CODE'
_TEXT	ENDS
;	COMDAT ??0?$list@V?$basic_string@DV?$char_traits@D@_STL@@V?$allocator@D@2@@_STL@@V?$allocator@V?$basic_string@DV?$char_traits@D@_STL@@V?$allocator@D@2@@_STL@@@2@@_STL@@QAE@ABV?$allocator@V?$basic_string@DV?$char_traits@D@_STL@@V?$allocator@D@2@@_STL@@@1@@Z
_TEXT	SEGMENT PARA USE32 PUBLIC 'CODE'
_TEXT	ENDS
;	COMDAT ??0?$allocator@V?$basic_string@DV?$char_traits@D@_STL@@V?$allocator@D@2@@_STL@@@_STL@@QAE@XZ
_TEXT	SEGMENT PARA USE32 PUBLIC 'CODE'
_TEXT	ENDS
;	COMDAT ??9_Rb_tree_base_iterator@_STL@@QBE_NABU01@@Z
_TEXT	SEGMENT PARA USE32 PUBLIC 'CODE'
_TEXT	ENDS
;	COMDAT ??8_Rb_tree_base_iterator@_STL@@QBE_NABU01@@Z
_TEXT	SEGMENT PARA USE32 PUBLIC 'CODE'
_TEXT	ENDS
;	COMDAT ??_7GCTimeLimitItemInfo@@6B@
CONST	SEGMENT DWORD USE32 PUBLIC 'CONST'
CONST	ENDS
;	COMDAT ??_7PacketFactory@@6B@
CONST	SEGMENT DWORD USE32 PUBLIC 'CONST'
CONST	ENDS
;	COMDAT ??1?$list@V?$basic_string@DV?$char_traits@D@_STL@@V?$allocator@D@2@@_STL@@V?$allocator@V?$basic_string@DV?$char_traits@D@_STL@@V?$allocator@D@2@@_STL@@@2@@_STL@@QAE@XZ
_TEXT	SEGMENT PARA USE32 PUBLIC 'CODE'
_TEXT	ENDS
;	COMDAT ??_7Throwable@@6B@
CONST	SEGMENT DWORD USE32 PUBLIC 'CONST'
CONST	ENDS
;	COMDAT ??_R4Throwable@@6B@
rdata$r	SEGMENT DWORD USE32 PUBLIC 'CONST'
rdata$r	ENDS
;	COMDAT ??_R3Throwable@@8
rdata$r	SEGMENT DWORD USE32 PUBLIC 'CONST'
rdata$r	ENDS
;	COMDAT ??_R2Throwable@@8
rdata$r	SEGMENT DWORD USE32 PUBLIC 'CONST'
rdata$r	ENDS
;	COMDAT ??_R1A@?0A@A@Throwable@@8
rdata$r	SEGMENT DWORD USE32 PUBLIC 'CONST'
rdata$r	ENDS
;	COMDAT ??_GThrowable@@UAEPAXI@Z
_TEXT	SEGMENT PARA USE32 PUBLIC 'CODE'
_TEXT	ENDS
;	COMDAT ?getName@Throwable@@UBE?AV?$basic_string@DV?$char_traits@D@_STL@@V?$allocator@D@2@@_STL@@XZ
_TEXT	SEGMENT PARA USE32 PUBLIC 'CODE'
_TEXT	ENDS
;	COMDAT ??_C@_09KCKHMJEM@Throwable?$AA@
CONST	SEGMENT DWORD USE32 PUBLIC 'CONST'
CONST	ENDS
;	COMDAT ?toString@Throwable@@UBE?AV?$basic_string@DV?$char_traits@D@_STL@@V?$allocator@D@2@@_STL@@XZ
_TEXT	SEGMENT PARA USE32 PUBLIC 'CODE'
_TEXT	ENDS
;	COMDAT ??_C@_03MCPBMLDJ@?5?3?5?$AA@
CONST	SEGMENT DWORD USE32 PUBLIC 'CONST'
CONST	ENDS
;	COMDAT ?getStackTrace@Throwable@@QBE?AV?$basic_string@DV?$char_traits@D@_STL@@V?$allocator@D@2@@_STL@@XZ
_TEXT	SEGMENT PARA USE32 PUBLIC 'CODE'
_TEXT	ENDS
;	COMDAT ??E?$_List_iterator@V?$basic_string@DV?$char_traits@D@_STL@@V?$allocator@D@2@@_STL@@U?$_Const_traits@V?$basic_string@DV?$char_traits@D@_STL@@V?$allocator@D@2@@_STL@@@2@@_STL@@QAE?AU01@H@Z
_TEXT	SEGMENT PARA USE32 PUBLIC 'CODE'
_TEXT	ENDS
;	COMDAT ??_C@_01CLKCMJKC@?5?$AA@
CONST	SEGMENT DWORD USE32 PUBLIC 'CONST'
CONST	ENDS
;	COMDAT ??_7Error@@6B@
CONST	SEGMENT DWORD USE32 PUBLIC 'CONST'
CONST	ENDS
;	COMDAT ??_R4Error@@6B@
rdata$r	SEGMENT DWORD USE32 PUBLIC 'CONST'
rdata$r	ENDS
;	COMDAT ??_R3Error@@8
rdata$r	SEGMENT DWORD USE32 PUBLIC 'CONST'
rdata$r	ENDS
;	COMDAT ??_R2Error@@8
rdata$r	SEGMENT DWORD USE32 PUBLIC 'CONST'
rdata$r	ENDS
;	COMDAT ??_R1A@?0A@A@Error@@8
rdata$r	SEGMENT DWORD USE32 PUBLIC 'CONST'
rdata$r	ENDS
;	COMDAT ??_GError@@UAEPAXI@Z
_TEXT	SEGMENT PARA USE32 PUBLIC 'CODE'
_TEXT	ENDS
;	COMDAT ?getName@Error@@UBE?AV?$basic_string@DV?$char_traits@D@_STL@@V?$allocator@D@2@@_STL@@XZ
_TEXT	SEGMENT PARA USE32 PUBLIC 'CODE'
_TEXT	ENDS
;	COMDAT ??_C@_05NAOIJFC@Error?$AA@
CONST	SEGMENT DWORD USE32 PUBLIC 'CONST'
CONST	ENDS
;	COMDAT ??1Throwable@@UAE@XZ
_TEXT	SEGMENT PARA USE32 PUBLIC 'CODE'
_TEXT	ENDS
;	COMDAT ??_7UnsupportedError@@6B@
CONST	SEGMENT DWORD USE32 PUBLIC 'CONST'
CONST	ENDS
;	COMDAT ??_R4UnsupportedError@@6B@
rdata$r	SEGMENT DWORD USE32 PUBLIC 'CONST'
rdata$r	ENDS
;	COMDAT ??_R3UnsupportedError@@8
rdata$r	SEGMENT DWORD USE32 PUBLIC 'CONST'
rdata$r	ENDS
;	COMDAT ??_R2UnsupportedError@@8
rdata$r	SEGMENT DWORD USE32 PUBLIC 'CONST'
rdata$r	ENDS
;	COMDAT ??_R1A@?0A@A@UnsupportedError@@8
rdata$r	SEGMENT DWORD USE32 PUBLIC 'CONST'
rdata$r	ENDS
;	COMDAT ??_GUnsupportedError@@UAEPAXI@Z
_TEXT	SEGMENT PARA USE32 PUBLIC 'CODE'
_TEXT	ENDS
;	COMDAT ?getName@UnsupportedError@@UBE?AV?$basic_string@DV?$char_traits@D@_STL@@V?$allocator@D@2@@_STL@@XZ
_TEXT	SEGMENT PARA USE32 PUBLIC 'CODE'
_TEXT	ENDS
;	COMDAT ??_C@_0BB@EOCHEBED@UnsupportedError?$AA@
CONST	SEGMENT DWORD USE32 PUBLIC 'CONST'
CONST	ENDS
;	COMDAT ??1Error@@UAE@XZ
_TEXT	SEGMENT PARA USE32 PUBLIC 'CODE'
_TEXT	ENDS
;	COMDAT __CTA3?AVUnsupportedError@@
xdata$x	SEGMENT DWORD USE32 PUBLIC 'CONST'
xdata$x	ENDS
;	COMDAT ??1UnsupportedError@@UAE@XZ
_TEXT	SEGMENT PARA USE32 PUBLIC 'CODE'
_TEXT	ENDS
;	COMDAT __CT??_R0?AVThrowable@@@8??0Throwable@@QAE@ABV0@@Z20
xdata$x	SEGMENT DWORD USE32 PUBLIC 'CONST'
xdata$x	ENDS
;	COMDAT __CT??_R0?AVError@@@8??0Error@@QAE@ABV0@@Z20
xdata$x	SEGMENT DWORD USE32 PUBLIC 'CONST'
xdata$x	ENDS
;	COMDAT __CT??_R0?AVUnsupportedError@@@8??0UnsupportedError@@QAE@ABV0@@Z20
xdata$x	SEGMENT DWORD USE32 PUBLIC 'CONST'
xdata$x	ENDS
;	COMDAT ??_R0?AVThrowable@@@8
_DATA	SEGMENT DWORD USE32 PUBLIC 'DATA'
_DATA	ENDS
;	COMDAT ??_R0?AVError@@@8
_DATA	SEGMENT DWORD USE32 PUBLIC 'DATA'
_DATA	ENDS
;	COMDAT ??_R0?AVUnsupportedError@@@8
_DATA	SEGMENT DWORD USE32 PUBLIC 'DATA'
_DATA	ENDS
;	COMDAT __TI3?AVUnsupportedError@@
xdata$x	SEGMENT DWORD USE32 PUBLIC 'CONST'
xdata$x	ENDS
;	COMDAT ??0UnsupportedError@@QAE@XZ
_TEXT	SEGMENT PARA USE32 PUBLIC 'CODE'
_TEXT	ENDS
;	COMDAT ??0Error@@QAE@XZ
_TEXT	SEGMENT PARA USE32 PUBLIC 'CODE'
_TEXT	ENDS
;	COMDAT ??0Throwable@@QAE@XZ
_TEXT	SEGMENT PARA USE32 PUBLIC 'CODE'
_TEXT	ENDS
;	COMDAT ??0?$basic_string@DV?$char_traits@D@_STL@@V?$allocator@D@2@@_STL@@QAE@XZ
_TEXT	SEGMENT PARA USE32 PUBLIC 'CODE'
_TEXT	ENDS
;	COMDAT ??_7Packet@@6B@
CONST	SEGMENT DWORD USE32 PUBLIC 'CONST'
CONST	ENDS
;	COMDAT ??1?$basic_string@DV?$char_traits@D@_STL@@V?$allocator@D@2@@_STL@@QAE@XZ
_TEXT	SEGMENT PARA USE32 PUBLIC 'CODE'
_TEXT	ENDS
;	COMDAT ??0?$basic_string@DV?$char_traits@D@_STL@@V?$allocator@D@2@@_STL@@QAE@ABV01@@Z
_TEXT	SEGMENT PARA USE32 PUBLIC 'CODE'
_TEXT	ENDS
sxdata	SEGMENT DWORD USE32 'SXDATA'
sxdata	ENDS
FLAT	GROUP _DATA, CONST, _BSS
	ASSUME	CS: FLAT, DS: FLAT, SS: FLAT
endif

INCLUDELIB LIBCMT
INCLUDELIB OLDNAMES

PUBLIC	??2@YAPAXIPAX@Z					; operator new
; Function compile flags: /Ogsy
; File c:\program files\microsoft visual studio .net 2003\vc7\include\new
;	COMDAT ??2@YAPAXIPAX@Z
_TEXT	SEGMENT
___formal$ = 8						; size = 4
__Where$ = 12						; size = 4
??2@YAPAXIPAX@Z PROC NEAR				; operator new, COMDAT

; 64   : 	return (_Where);

  00000	8b 44 24 08	 mov	 eax, DWORD PTR __Where$[esp-4]

; 65   : 	}

  00004	c3		 ret	 0
??2@YAPAXIPAX@Z ENDP					; operator new
_TEXT	ENDS
PUBLIC	??3@YAXPAX0@Z					; operator delete
; Function compile flags: /Ogsy
;	COMDAT ??3@YAXPAX0@Z
_TEXT	SEGMENT
___formal$ = 8						; size = 4
___formal$ = 12						; size = 4
??3@YAXPAX0@Z PROC NEAR					; operator delete, COMDAT

; 69   : 	}

  00000	c3		 ret	 0
??3@YAXPAX0@Z ENDP					; operator delete
_TEXT	ENDS
PUBLIC	?__stl_new@_STL@@YAPAXI@Z			; _STL::__stl_new
EXTRN	??2@YAPAXI@Z:NEAR				; operator new
; Function compile flags: /Ogsy
; File c:\stlport-4.6.1\stlport\stl\_new.h
;	COMDAT ?__stl_new@_STL@@YAPAXI@Z
_TEXT	SEGMENT
___n$ = 8						; size = 4
?__stl_new@_STL@@YAPAXI@Z PROC NEAR			; _STL::__stl_new, COMDAT

; 86   : inline void*  _STLP_CALL __stl_new(size_t __n)   { _STLP_CHECK_NULL_ALLOC(::operator _STLP_NEW(__n)); }

  00000	e9 00 00 00 00	 jmp	 ??2@YAPAXI@Z		; operator new
?__stl_new@_STL@@YAPAXI@Z ENDP				; _STL::__stl_new
_TEXT	ENDS
PUBLIC	?__stl_delete@_STL@@YAXPAX@Z			; _STL::__stl_delete
EXTRN	??3@YAXPAX@Z:NEAR				; operator delete
; Function compile flags: /Ogsy
;	COMDAT ?__stl_delete@_STL@@YAXPAX@Z
_TEXT	SEGMENT
___p$ = 8						; size = 4
?__stl_delete@_STL@@YAXPAX@Z PROC NEAR			; _STL::__stl_delete, COMDAT

; 87   : inline void   _STLP_CALL __stl_delete(void* __p) { ::operator delete(__p); }

  00000	e9 00 00 00 00	 jmp	 ??3@YAXPAX@Z		; operator delete
?__stl_delete@_STL@@YAXPAX@Z ENDP			; _STL::__stl_delete
_TEXT	ENDS
PUBLIC	?read@SocketInputStream@@QAEIAAE@Z		; SocketInputStream::read
EXTRN	?read@SocketInputStream@@QAEIPADI@Z:NEAR	; SocketInputStream::read
; Function compile flags: /Ogsy
; File c:\darkeden\designed_common\project\client\packet\socketinputstream.h
;	COMDAT ?read@SocketInputStream@@QAEIAAE@Z
_TEXT	SEGMENT
_buf$ = 8						; size = 4
?read@SocketInputStream@@QAEIAAE@Z PROC NEAR		; SocketInputStream::read, COMDAT
; _this$ = ecx

; 69   : 	uint read ( uchar  & buf ) throw ( ProtocolException , Error ) { return read( (char*)&buf, szuchar  ); }

  00000	6a 01		 push	 1
  00002	ff 74 24 08	 push	 DWORD PTR _buf$[esp]
  00006	e8 00 00 00 00	 call	 ?read@SocketInputStream@@QAEIPADI@Z ; SocketInputStream::read
  0000b	c2 04 00	 ret	 4
?read@SocketInputStream@@QAEIAAE@Z ENDP			; SocketInputStream::read
_TEXT	ENDS
PUBLIC	?read@SocketInputStream@@QAEIAAK@Z		; SocketInputStream::read
; Function compile flags: /Ogsy
;	COMDAT ?read@SocketInputStream@@QAEIAAK@Z
_TEXT	SEGMENT
_buf$ = 8						; size = 4
?read@SocketInputStream@@QAEIAAK@Z PROC NEAR		; SocketInputStream::read, COMDAT
; _this$ = ecx

; 75   : 	uint read ( ulong  & buf ) throw ( ProtocolException , Error ) { return read( (char*)&buf, szulong  ); }

  00000	6a 04		 push	 4
  00002	ff 74 24 08	 push	 DWORD PTR _buf$[esp]
  00006	e8 00 00 00 00	 call	 ?read@SocketInputStream@@QAEIPADI@Z ; SocketInputStream::read
  0000b	c2 04 00	 ret	 4
?read@SocketInputStream@@QAEIAAK@Z ENDP			; SocketInputStream::read
_TEXT	ENDS
PUBLIC	?_Destroy@_STL@@YAXPAD0@Z			; _STL::_Destroy
; Function compile flags: /Ogsy
; File c:\stlport-4.6.1\stlport\stl\_construct.h
;	COMDAT ?_Destroy@_STL@@YAXPAD0@Z
_TEXT	SEGMENT
___formal$ = 8						; size = 4
___formal$ = 12						; size = 4
?_Destroy@_STL@@YAXPAD0@Z PROC NEAR			; _STL::_Destroy, COMDAT

; 142  : inline void _Destroy(char*, char*) {}

  00000	c3		 ret	 0
?_Destroy@_STL@@YAXPAD0@Z ENDP				; _STL::_Destroy
_TEXT	ENDS
PUBLIC	?__copy_trivial@_STL@@YAPAXPBX0PAX@Z		; _STL::__copy_trivial
EXTRN	_memmove:NEAR
; Function compile flags: /Ogsy
; File c:\stlport-4.6.1\stlport\stl\_algobase.h
;	COMDAT ?__copy_trivial@_STL@@YAPAXPBX0PAX@Z
_TEXT	SEGMENT
___first$ = 8						; size = 4
___last$ = 12						; size = 4
___result$ = 16						; size = 4
?__copy_trivial@_STL@@YAPAXPBX0PAX@Z PROC NEAR		; _STL::__copy_trivial, COMDAT

; 147  : __copy_trivial(const void* __first, const void* __last, void* __result) {

  00000	55		 push	 ebp
  00001	8b ec		 mov	 ebp, esp
  00003	56		 push	 esi

; 148  :   return (__last == __first) ? __result : 
; 149  :     ((char*)memmove(__result, __first, ((const char*)__last - (const char*)__first))) + 
; 150  :     ((const char*)__last - (const char*)__first);

  00004	8b 75 0c	 mov	 esi, DWORD PTR ___last$[ebp]
  00007	3b 75 08	 cmp	 esi, DWORD PTR ___first$[ebp]
  0000a	75 05		 jne	 SHORT $L102555
  0000c	8b 45 10	 mov	 eax, DWORD PTR ___result$[ebp]
  0000f	eb 14		 jmp	 SHORT $L102556
$L102555:
  00011	2b 75 08	 sub	 esi, DWORD PTR ___first$[ebp]
  00014	56		 push	 esi
  00015	ff 75 08	 push	 DWORD PTR ___first$[ebp]
  00018	ff 75 10	 push	 DWORD PTR ___result$[ebp]
  0001b	e8 00 00 00 00	 call	 _memmove
  00020	83 c4 0c	 add	 esp, 12			; 0000000cH
  00023	03 c6		 add	 eax, esi
$L102556:
  00025	5e		 pop	 esi

; 151  : }

  00026	5d		 pop	 ebp
  00027	c3		 ret	 0
?__copy_trivial@_STL@@YAPAXPBX0PAX@Z ENDP		; _STL::__copy_trivial
_TEXT	ENDS
PUBLIC	?write@SocketOutputStream@@QAEIE@Z		; SocketOutputStream::write
EXTRN	?write@SocketOutputStream@@QAEIPBDI@Z:NEAR	; SocketOutputStream::write
; Function compile flags: /Ogsy
; File c:\darkeden\designed_common\project\client\packet\socketoutputstream.h
;	COMDAT ?write@SocketOutputStream@@QAEIE@Z
_TEXT	SEGMENT
_buf$ = 8						; size = 1
?write@SocketOutputStream@@QAEIE@Z PROC NEAR		; SocketOutputStream::write, COMDAT
; _this$ = ecx

; 62   :     uint write ( uchar  buf ) throw ( ProtocolException , Error ) { return write( (const char*)&buf, szuchar  ); }

  00000	6a 01		 push	 1
  00002	8d 44 24 08	 lea	 eax, DWORD PTR _buf$[esp]
  00006	50		 push	 eax
  00007	e8 00 00 00 00	 call	 ?write@SocketOutputStream@@QAEIPBDI@Z ; SocketOutputStream::write
  0000c	c2 04 00	 ret	 4
?write@SocketOutputStream@@QAEIE@Z ENDP			; SocketOutputStream::write
_TEXT	ENDS
PUBLIC	?write@SocketOutputStream@@QAEIK@Z		; SocketOutputStream::write
; Function compile flags: /Ogsy
;	COMDAT ?write@SocketOutputStream@@QAEIK@Z
_TEXT	SEGMENT
_buf$ = 8						; size = 4
?write@SocketOutputStream@@QAEIK@Z PROC NEAR		; SocketOutputStream::write, COMDAT
; _this$ = ecx

; 68   :     uint write ( ulong  buf ) throw ( ProtocolException , Error ) { return write( (const char*)&buf, szulong  ); }

  00000	6a 04		 push	 4
  00002	8d 44 24 08	 lea	 eax, DWORD PTR _buf$[esp]
  00006	50		 push	 eax
  00007	e8 00 00 00 00	 call	 ?write@SocketOutputStream@@QAEIPBDI@Z ; SocketOutputStream::write
  0000c	c2 04 00	 ret	 4
?write@SocketOutputStream@@QAEIK@Z ENDP			; SocketOutputStream::write
_TEXT	ENDS
PUBLIC	?uninitialized_copy@_STL@@YAPADPBD0PAD@Z	; _STL::uninitialized_copy
; Function compile flags: /Ogsy
; File c:\stlport-4.6.1\stlport\stl\_uninitialized.h
;	COMDAT ?uninitialized_copy@_STL@@YAPADPBD0PAD@Z
_TEXT	SEGMENT
___first$ = 8						; size = 4
___last$ = 12						; size = 4
___result$ = 16						; size = 4
?uninitialized_copy@_STL@@YAPADPBD0PAD@Z PROC NEAR	; _STL::uninitialized_copy, COMDAT

; 84   :   return  (char*)__copy_trivial (__first, __last, __result);

  00000	e9 00 00 00 00	 jmp	 ?__copy_trivial@_STL@@YAPAXPBX0PAX@Z ; _STL::__copy_trivial
?uninitialized_copy@_STL@@YAPADPBD0PAD@Z ENDP		; _STL::uninitialized_copy
_TEXT	ENDS
PUBLIC	??1Packet@@UAE@XZ				; Packet::~Packet
PUBLIC	?read@Packet@@UAEXPAVSocket@@@Z			; Packet::read
PUBLIC	?write@Packet@@UBEXPAVSocket@@@Z		; Packet::write
PUBLIC	??_7Packet@@6B@					; Packet::`vftable'
PUBLIC	??_GPacket@@UAEPAXI@Z				; Packet::`scalar deleting destructor'
PUBLIC	??_R1A@?0A@A@Packet@@8				; Packet::`RTTI Base Class Descriptor at (0,-1,0,0)'
PUBLIC	??_R0?AVPacket@@@8				; Packet `RTTI Type Descriptor'
PUBLIC	??_R4Packet@@6B@				; Packet::`RTTI Complete Object Locator'
PUBLIC	??_R3Packet@@8					; Packet::`RTTI Class Hierarchy Descriptor'
PUBLIC	??_R2Packet@@8					; Packet::`RTTI Base Class Array'
EXTRN	??_7type_info@@6B@:QWORD			; type_info::`vftable'
EXTRN	??_EPacket@@UAEPAXI@Z:NEAR			; Packet::`vector deleting destructor'
EXTRN	__purecall:NEAR
;	COMDAT ??_7Packet@@6B@
; File c:\darkeden\designed_common\project\client\packet\packet.h
CONST	SEGMENT
??_7Packet@@6B@ DD FLAT:??_R4Packet@@6B@		; Packet::`vftable'
	DD	FLAT:??_EPacket@@UAEPAXI@Z
	DD	FLAT:?read@Packet@@UAEXPAVSocket@@@Z
	DD	FLAT:__purecall
	DD	FLAT:?write@Packet@@UBEXPAVSocket@@@Z
	DD	FLAT:__purecall
	DD	FLAT:__purecall
	DD	FLAT:__purecall
	DD	FLAT:__purecall
CONST	ENDS
;	COMDAT ??_R4Packet@@6B@
rdata$r	SEGMENT
??_R4Packet@@6B@ DD 00H					; Packet::`RTTI Complete Object Locator'
	DD	00H
	DD	00H
	DD	FLAT:??_R0?AVPacket@@@8
	DD	FLAT:??_R3Packet@@8
rdata$r	ENDS
;	COMDAT ??_R0?AVPacket@@@8
_DATA	SEGMENT
??_R0?AVPacket@@@8 DD FLAT:??_7type_info@@6B@		; Packet `RTTI Type Descriptor'
	DD	00H
	DB	'.?AVPacket@@', 00H
_DATA	ENDS
;	COMDAT ??_R3Packet@@8
rdata$r	SEGMENT
??_R3Packet@@8 DD 00H					; Packet::`RTTI Class Hierarchy Descriptor'
	DD	00H
	DD	01H
	DD	FLAT:??_R2Packet@@8
rdata$r	ENDS
;	COMDAT ??_R2Packet@@8
rdata$r	SEGMENT
??_R2Packet@@8 DD FLAT:??_R1A@?0A@A@Packet@@8		; Packet::`RTTI Base Class Array'
rdata$r	ENDS
;	COMDAT ??_R1A@?0A@A@Packet@@8
rdata$r	SEGMENT
??_R1A@?0A@A@Packet@@8 DD FLAT:??_R0?AVPacket@@@8	; Packet::`RTTI Base Class Descriptor at (0,-1,0,0)'
	DD	00H
	DD	00H
	DD	0ffffffffH
	DD	00H
	DD	00H
; Function compile flags: /Ogsy
rdata$r	ENDS
;	COMDAT ??1Packet@@UAE@XZ
_TEXT	SEGMENT
??1Packet@@UAE@XZ PROC NEAR				; Packet::~Packet, COMDAT
; _this$ = ecx

; 726  : 	virtual ~Packet () throw () {}

  00000	c7 01 00 00 00
	00		 mov	 DWORD PTR [ecx], OFFSET FLAT:??_7Packet@@6B@
  00006	c3		 ret	 0
??1Packet@@UAE@XZ ENDP					; Packet::~Packet
; Function compile flags: /Ogsy
_TEXT	ENDS
;	COMDAT ??_GPacket@@UAEPAXI@Z
_TEXT	SEGMENT
___flags$ = 8						; size = 4
??_GPacket@@UAEPAXI@Z PROC NEAR				; Packet::`scalar deleting destructor', COMDAT
; _this$ = ecx
  00000	f6 44 24 04 01	 test	 BYTE PTR ___flags$[esp-4], 1
  00005	56		 push	 esi
  00006	8b f1		 mov	 esi, ecx
  00008	c7 06 00 00 00
	00		 mov	 DWORD PTR [esi], OFFSET FLAT:??_7Packet@@6B@
  0000e	74 07		 je	 SHORT $L100453
  00010	56		 push	 esi
  00011	e8 00 00 00 00	 call	 ??3@YAXPAX@Z		; operator delete
  00016	59		 pop	 ecx
$L100453:
  00017	8b c6		 mov	 eax, esi
  00019	5e		 pop	 esi
  0001a	c2 04 00	 ret	 4
??_GPacket@@UAEPAXI@Z ENDP				; Packet::`scalar deleting destructor'
_TEXT	ENDS
PUBLIC	?length@?$char_traits@D@_STL@@SAIPBD@Z		; _STL::char_traits<char>::length
EXTRN	_strlen:NEAR
; Function compile flags: /Ogsy
; File c:\stlport-4.6.1\stlport\stl\char_traits.h
;	COMDAT ?length@?$char_traits@D@_STL@@SAIPBD@Z
_TEXT	SEGMENT
___s$ = 8						; size = 4
?length@?$char_traits@D@_STL@@SAIPBD@Z PROC NEAR	; _STL::char_traits<char>::length, COMDAT

; 238  :   static size_t _STLP_CALL length(const char* __s) { return strlen(__s); }

  00000	e9 00 00 00 00	 jmp	 _strlen
?length@?$char_traits@D@_STL@@SAIPBD@Z ENDP		; _STL::char_traits<char>::length
_TEXT	ENDS
PUBLIC	??0Packet@@QAE@XZ				; Packet::Packet
; Function compile flags: /Ogsy
;	COMDAT ??0Packet@@QAE@XZ
_TEXT	SEGMENT
??0Packet@@QAE@XZ PROC NEAR				; Packet::Packet, COMDAT
; _this$ = ecx
  00000	8b c1		 mov	 eax, ecx
  00002	c7 00 00 00 00
	00		 mov	 DWORD PTR [eax], OFFSET FLAT:??_7Packet@@6B@
  00008	c3		 ret	 0
??0Packet@@QAE@XZ ENDP					; Packet::Packet
_TEXT	ENDS
PUBLIC	?execute@GCTimeLimitItemInfo@@UAEXPAVPlayer@@@Z	; GCTimeLimitItemInfo::execute
EXTRN	?execute@GCTimeLimitItemInfoHandler@@SAXPAVGCTimeLimitItemInfo@@PAVPlayer@@@Z:NEAR ; GCTimeLimitItemInfoHandler::execute
; Function compile flags: /Ogsy
; File c:\darkeden\designed_common\project\client\packet\gpackets\gctimelimititeminfo.cpp
;	COMDAT ?execute@GCTimeLimitItemInfo@@UAEXPAVPlayer@@@Z
_TEXT	SEGMENT
_pPlayer$ = 8						; size = 4
?execute@GCTimeLimitItemInfo@@UAEXPAVPlayer@@@Z PROC NEAR ; GCTimeLimitItemInfo::execute, COMDAT
; _this$ = ecx

; 71   : 	__BEGIN_TRY
; 72   : 
; 73   : 	GCTimeLimitItemInfoHandler::execute( this, pPlayer );

  00000	ff 74 24 04	 push	 DWORD PTR _pPlayer$[esp-4]
  00004	51		 push	 ecx
  00005	e8 00 00 00 00	 call	 ?execute@GCTimeLimitItemInfoHandler@@SAXPAVGCTimeLimitItemInfo@@PAVPlayer@@@Z ; GCTimeLimitItemInfoHandler::execute
  0000a	59		 pop	 ecx
  0000b	59		 pop	 ecx

; 74   : 
; 75   : 	__END_CATCH
; 76   : }

  0000c	c2 04 00	 ret	 4
?execute@GCTimeLimitItemInfo@@UAEXPAVPlayer@@@Z ENDP	; GCTimeLimitItemInfo::execute
_TEXT	ENDS
PUBLIC	??0?$_Rb_tree_iterator@U?$pair@$$CBKK@_STL@@U?$_Const_traits@U?$pair@$$CBKK@_STL@@@2@@_STL@@QAE@ABU?$_Rb_tree_iterator@U?$pair@$$CBKK@_STL@@U?$_Nonconst_traits@U?$pair@$$CBKK@_STL@@@2@@1@@Z ; _STL::_Rb_tree_iterator<_STL::pair<unsigned long const ,unsigned long>,_STL::_Const_traits<_STL::pair<unsigned long const ,unsigned long> > >::_Rb_tree_iterator<_STL::pair<unsigned long const ,unsigned long>,_STL::_Const_traits<_STL::pair<unsigned long const ,unsigned long> > >
; Function compile flags: /Ogsy
; File c:\stlport-4.6.1\stlport\stl\_tree.h
;	COMDAT ??0?$_Rb_tree_iterator@U?$pair@$$CBKK@_STL@@U?$_Const_traits@U?$pair@$$CBKK@_STL@@@2@@_STL@@QAE@ABU?$_Rb_tree_iterator@U?$pair@$$CBKK@_STL@@U?$_Nonconst_traits@U?$pair@$$CBKK@_STL@@@2@@1@@Z
_TEXT	SEGMENT
___it$ = 8						; size = 4
??0?$_Rb_tree_iterator@U?$pair@$$CBKK@_STL@@U?$_Const_traits@U?$pair@$$CBKK@_STL@@@2@@_STL@@QAE@ABU?$_Rb_tree_iterator@U?$pair@$$CBKK@_STL@@U?$_Nonconst_traits@U?$pair@$$CBKK@_STL@@@2@@1@@Z PROC NEAR ; _STL::_Rb_tree_iterator<_STL::pair<unsigned long const ,unsigned long>,_STL::_Const_traits<_STL::pair<unsigned long const ,unsigned long> > >::_Rb_tree_iterator<_STL::pair<unsigned long const ,unsigned long>,_STL::_Const_traits<_STL::pair<unsigned long const ,unsigned long> > >, COMDAT
; _this$ = ecx

; 165  :   _Rb_tree_iterator(const _Rb_tree_iterator<_Value, 

  00000	8b c1		 mov	 eax, ecx
  00002	8b 4c 24 04	 mov	 ecx, DWORD PTR ___it$[esp-4]
  00006	8b 09		 mov	 ecx, DWORD PTR [ecx]
  00008	89 08		 mov	 DWORD PTR [eax], ecx

; 166  :                     _Nonconst_traits<_Value> >& __it) { _M_node = __it._M_node; }

  0000a	c2 04 00	 ret	 4
??0?$_Rb_tree_iterator@U?$pair@$$CBKK@_STL@@U?$_Const_traits@U?$pair@$$CBKK@_STL@@@2@@_STL@@QAE@ABU?$_Rb_tree_iterator@U?$pair@$$CBKK@_STL@@U?$_Nonconst_traits@U?$pair@$$CBKK@_STL@@@2@@1@@Z ENDP ; _STL::_Rb_tree_iterator<_STL::pair<unsigned long const ,unsigned long>,_STL::_Const_traits<_STL::pair<unsigned long const ,unsigned long> > >::_Rb_tree_iterator<_STL::pair<unsigned long const ,unsigned long>,_STL::_Const_traits<_STL::pair<unsigned long const ,unsigned long> > >
_TEXT	ENDS
PUBLIC	??E?$_Rb_tree_iterator@U?$pair@$$CBKK@_STL@@U?$_Const_traits@U?$pair@$$CBKK@_STL@@@2@@_STL@@QAEAAU01@XZ ; _STL::_Rb_tree_iterator<_STL::pair<unsigned long const ,unsigned long>,_STL::_Const_traits<_STL::pair<unsigned long const ,unsigned long> > >::operator++
EXTRN	?_M_increment@?$_Rb_global@_N@_STL@@SAPAU_Rb_tree_node_base@2@PAU32@@Z:NEAR ; _STL::_Rb_global<bool>::_M_increment
; Function compile flags: /Ogsy
;	COMDAT ??E?$_Rb_tree_iterator@U?$pair@$$CBKK@_STL@@U?$_Const_traits@U?$pair@$$CBKK@_STL@@@2@@_STL@@QAEAAU01@XZ
_TEXT	SEGMENT
??E?$_Rb_tree_iterator@U?$pair@$$CBKK@_STL@@U?$_Const_traits@U?$pair@$$CBKK@_STL@@@2@@_STL@@QAEAAU01@XZ PROC NEAR ; _STL::_Rb_tree_iterator<_STL::pair<unsigned long const ,unsigned long>,_STL::_Const_traits<_STL::pair<unsigned long const ,unsigned long> > >::operator++, COMDAT
; _this$ = ecx

; 174  :   _Self& operator++() { _M_node = _Rb_global_inst::_M_increment(_M_node); return *this; }

  00000	56		 push	 esi
  00001	8b f1		 mov	 esi, ecx
  00003	ff 36		 push	 DWORD PTR [esi]
  00005	e8 00 00 00 00	 call	 ?_M_increment@?$_Rb_global@_N@_STL@@SAPAU_Rb_tree_node_base@2@PAU32@@Z ; _STL::_Rb_global<bool>::_M_increment
  0000a	89 06		 mov	 DWORD PTR [esi], eax
  0000c	59		 pop	 ecx
  0000d	8b c6		 mov	 eax, esi
  0000f	5e		 pop	 esi
  00010	c3		 ret	 0
??E?$_Rb_tree_iterator@U?$pair@$$CBKK@_STL@@U?$_Const_traits@U?$pair@$$CBKK@_STL@@@2@@_STL@@QAEAAU01@XZ ENDP ; _STL::_Rb_tree_iterator<_STL::pair<unsigned long const ,unsigned long>,_STL::_Const_traits<_STL::pair<unsigned long const ,unsigned long> > >::operator++
_TEXT	ENDS
PUBLIC	?_M_terminate_string_aux@?$basic_string@DV?$char_traits@D@_STL@@V?$allocator@D@2@@_STL@@AAEXABU__true_type@2@@Z ; _STL::basic_string<char,_STL::char_traits<char>,_STL::allocator<char> >::_M_terminate_string_aux
; Function compile flags: /Ogsy
; File c:\stlport-4.6.1\stlport\stl\_string.h
;	COMDAT ?_M_terminate_string_aux@?$basic_string@DV?$char_traits@D@_STL@@V?$allocator@D@2@@_STL@@AAEXABU__true_type@2@@Z
_TEXT	SEGMENT
___formal$ = 8						; size = 4
?_M_terminate_string_aux@?$basic_string@DV?$char_traits@D@_STL@@V?$allocator@D@2@@_STL@@AAEXABU__true_type@2@@Z PROC NEAR ; _STL::basic_string<char,_STL::char_traits<char>,_STL::allocator<char> >::_M_terminate_string_aux, COMDAT
; _this$ = ecx

; 351  :     *(this->_M_finish)=0;

  00000	8b 41 04	 mov	 eax, DWORD PTR [ecx+4]
  00003	c6 00 00	 mov	 BYTE PTR [eax], 0

; 352  :   }

  00006	c2 04 00	 ret	 4
?_M_terminate_string_aux@?$basic_string@DV?$char_traits@D@_STL@@V?$allocator@D@2@@_STL@@AAEXABU__true_type@2@@Z ENDP ; _STL::basic_string<char,_STL::char_traits<char>,_STL::allocator<char> >::_M_terminate_string_aux
_TEXT	ENDS
PUBLIC	??0?$allocator@D@_STL@@QAE@ABV01@@Z		; _STL::allocator<char>::allocator<char>
; Function compile flags: /Ogsy
; File c:\stlport-4.6.1\stlport\stl\_alloc.h
;	COMDAT ??0?$allocator@D@_STL@@QAE@ABV01@@Z
_TEXT	SEGMENT
___formal$ = 8						; size = 4
??0?$allocator@D@_STL@@QAE@ABV01@@Z PROC NEAR		; _STL::allocator<char>::allocator<char>, COMDAT
; _this$ = ecx

; 349  :   allocator(const allocator<_Tp>&) _STLP_NOTHROW {}

  00000	8b c1		 mov	 eax, ecx
  00002	c2 04 00	 ret	 4
??0?$allocator@D@_STL@@QAE@ABV01@@Z ENDP		; _STL::allocator<char>::allocator<char>
_TEXT	ENDS
PUBLIC	?size@?$_Rb_tree@KU?$pair@$$CBKK@_STL@@U?$_Select1st@U?$pair@$$CBKK@_STL@@@2@U?$less@K@2@V?$allocator@U?$pair@$$CBKK@_STL@@@2@@_STL@@QBEIXZ ; _STL::_Rb_tree<unsigned long,_STL::pair<unsigned long const ,unsigned long>,_STL::_Select1st<_STL::pair<unsigned long const ,unsigned long> >,_STL::less<unsigned long>,_STL::allocator<_STL::pair<unsigned long const ,unsigned long> > >::size
; Function compile flags: /Ogsy
; File c:\stlport-4.6.1\stlport\stl\_tree.h
;	COMDAT ?size@?$_Rb_tree@KU?$pair@$$CBKK@_STL@@U?$_Select1st@U?$pair@$$CBKK@_STL@@@2@U?$less@K@2@V?$allocator@U?$pair@$$CBKK@_STL@@@2@@_STL@@QBEIXZ
_TEXT	SEGMENT
?size@?$_Rb_tree@KU?$pair@$$CBKK@_STL@@U?$_Select1st@U?$pair@$$CBKK@_STL@@@2@U?$less@K@2@V?$allocator@U?$pair@$$CBKK@_STL@@@2@@_STL@@QBEIXZ PROC NEAR ; _STL::_Rb_tree<unsigned long,_STL::pair<unsigned long const ,unsigned long>,_STL::_Select1st<_STL::pair<unsigned long const ,unsigned long> >,_STL::less<unsigned long>,_STL::allocator<_STL::pair<unsigned long const ,unsigned long> > >::size, COMDAT
; _this$ = ecx

; 371  :   size_type size() const { return _M_node_count; }

  00000	8b 41 04	 mov	 eax, DWORD PTR [ecx+4]
  00003	c3		 ret	 0
?size@?$_Rb_tree@KU?$pair@$$CBKK@_STL@@U?$_Select1st@U?$pair@$$CBKK@_STL@@@2@U?$less@K@2@V?$allocator@U?$pair@$$CBKK@_STL@@@2@@_STL@@QBEIXZ ENDP ; _STL::_Rb_tree<unsigned long,_STL::pair<unsigned long const ,unsigned long>,_STL::_Select1st<_STL::pair<unsigned long const ,unsigned long> >,_STL::less<unsigned long>,_STL::allocator<_STL::pair<unsigned long const ,unsigned long> > >::size
_TEXT	ENDS
PUBLIC	??0?$allocator@U?$pair@$$CBKK@_STL@@@_STL@@QAE@XZ ; _STL::allocator<_STL::pair<unsigned long const ,unsigned long> >::allocator<_STL::pair<unsigned long const ,unsigned long> >
; Function compile flags: /Ogsy
; File c:\stlport-4.6.1\stlport\stl\_alloc.h
;	COMDAT ??0?$allocator@U?$pair@$$CBKK@_STL@@@_STL@@QAE@XZ
_TEXT	SEGMENT
??0?$allocator@U?$pair@$$CBKK@_STL@@@_STL@@QAE@XZ PROC NEAR ; _STL::allocator<_STL::pair<unsigned long const ,unsigned long> >::allocator<_STL::pair<unsigned long const ,unsigned long> >, COMDAT
; _this$ = ecx

; 345  :   allocator() _STLP_NOTHROW {}

  00000	8b c1		 mov	 eax, ecx
  00002	c3		 ret	 0
??0?$allocator@U?$pair@$$CBKK@_STL@@@_STL@@QAE@XZ ENDP	; _STL::allocator<_STL::pair<unsigned long const ,unsigned long> >::allocator<_STL::pair<unsigned long const ,unsigned long> >
_TEXT	ENDS
PUBLIC	??1?$allocator@U?$pair@$$CBKK@_STL@@@_STL@@QAE@XZ ; _STL::allocator<_STL::pair<unsigned long const ,unsigned long> >::~allocator<_STL::pair<unsigned long const ,unsigned long> >
; Function compile flags: /Ogsy
;	COMDAT ??1?$allocator@U?$pair@$$CBKK@_STL@@@_STL@@QAE@XZ
_TEXT	SEGMENT
??1?$allocator@U?$pair@$$CBKK@_STL@@@_STL@@QAE@XZ PROC NEAR ; _STL::allocator<_STL::pair<unsigned long const ,unsigned long> >::~allocator<_STL::pair<unsigned long const ,unsigned long> >, COMDAT
; _this$ = ecx

; 350  :   ~allocator() _STLP_NOTHROW {}

  00000	c3		 ret	 0
??1?$allocator@U?$pair@$$CBKK@_STL@@@_STL@@QAE@XZ ENDP	; _STL::allocator<_STL::pair<unsigned long const ,unsigned long> >::~allocator<_STL::pair<unsigned long const ,unsigned long> >
_TEXT	ENDS
PUBLIC	??R?$less@K@_STL@@QBE_NABK0@Z			; _STL::less<unsigned long>::operator()
; Function compile flags: /Ogsy
; File c:\stlport-4.6.1\stlport\stl\_function_base.h
;	COMDAT ??R?$less@K@_STL@@QBE_NABK0@Z
_TEXT	SEGMENT
___x$ = 8						; size = 4
___y$ = 12						; size = 4
??R?$less@K@_STL@@QBE_NABK0@Z PROC NEAR			; _STL::less<unsigned long>::operator(), COMDAT
; _this$ = ecx

; 73   :   bool operator()(const _Tp& __x, const _Tp& __y) const { return __x < __y; }

  00000	8b 44 24 04	 mov	 eax, DWORD PTR ___x$[esp-4]
  00004	8b 00		 mov	 eax, DWORD PTR [eax]
  00006	8b 4c 24 08	 mov	 ecx, DWORD PTR ___y$[esp-4]
  0000a	3b 01		 cmp	 eax, DWORD PTR [ecx]
  0000c	1b c0		 sbb	 eax, eax
  0000e	f7 d8		 neg	 eax
  00010	c2 08 00	 ret	 8
??R?$less@K@_STL@@QBE_NABK0@Z ENDP			; _STL::less<unsigned long>::operator()
_TEXT	ENDS
PUBLIC	??0?$_Rb_tree_iterator@U?$pair@$$CBKK@_STL@@U?$_Nonconst_traits@U?$pair@$$CBKK@_STL@@@2@@_STL@@QAE@ABU01@@Z ; _STL::_Rb_tree_iterator<_STL::pair<unsigned long const ,unsigned long>,_STL::_Nonconst_traits<_STL::pair<unsigned long const ,unsigned long> > >::_Rb_tree_iterator<_STL::pair<unsigned long const ,unsigned long>,_STL::_Nonconst_traits<_STL::pair<unsigned long const ,unsigned long> > >
; Function compile flags: /Ogsy
; File c:\stlport-4.6.1\stlport\stl\_tree.h
;	COMDAT ??0?$_Rb_tree_iterator@U?$pair@$$CBKK@_STL@@U?$_Nonconst_traits@U?$pair@$$CBKK@_STL@@@2@@_STL@@QAE@ABU01@@Z
_TEXT	SEGMENT
___it$ = 8						; size = 4
??0?$_Rb_tree_iterator@U?$pair@$$CBKK@_STL@@U?$_Nonconst_traits@U?$pair@$$CBKK@_STL@@@2@@_STL@@QAE@ABU01@@Z PROC NEAR ; _STL::_Rb_tree_iterator<_STL::pair<unsigned long const ,unsigned long>,_STL::_Nonconst_traits<_STL::pair<unsigned long const ,unsigned long> > >::_Rb_tree_iterator<_STL::pair<unsigned long const ,unsigned long>,_STL::_Nonconst_traits<_STL::pair<unsigned long const ,unsigned long> > >, COMDAT
; _this$ = ecx

; 165  :   _Rb_tree_iterator(const _Rb_tree_iterator<_Value, 

  00000	8b c1		 mov	 eax, ecx
  00002	8b 4c 24 04	 mov	 ecx, DWORD PTR ___it$[esp-4]
  00006	8b 09		 mov	 ecx, DWORD PTR [ecx]
  00008	89 08		 mov	 DWORD PTR [eax], ecx

; 166  :                     _Nonconst_traits<_Value> >& __it) { _M_node = __it._M_node; }

  0000a	c2 04 00	 ret	 4
??0?$_Rb_tree_iterator@U?$pair@$$CBKK@_STL@@U?$_Nonconst_traits@U?$pair@$$CBKK@_STL@@@2@@_STL@@QAE@ABU01@@Z ENDP ; _STL::_Rb_tree_iterator<_STL::pair<unsigned long const ,unsigned long>,_STL::_Nonconst_traits<_STL::pair<unsigned long const ,unsigned long> > >::_Rb_tree_iterator<_STL::pair<unsigned long const ,unsigned long>,_STL::_Nonconst_traits<_STL::pair<unsigned long const ,unsigned long> > >
_TEXT	ENDS
PUBLIC	??D?$_Rb_tree_iterator@U?$pair@$$CBKK@_STL@@U?$_Nonconst_traits@U?$pair@$$CBKK@_STL@@@2@@_STL@@QBEAAU?$pair@$$CBKK@1@XZ ; _STL::_Rb_tree_iterator<_STL::pair<unsigned long const ,unsigned long>,_STL::_Nonconst_traits<_STL::pair<unsigned long const ,unsigned long> > >::operator*
; Function compile flags: /Ogsy
;	COMDAT ??D?$_Rb_tree_iterator@U?$pair@$$CBKK@_STL@@U?$_Nonconst_traits@U?$pair@$$CBKK@_STL@@@2@@_STL@@QBEAAU?$pair@$$CBKK@1@XZ
_TEXT	SEGMENT
??D?$_Rb_tree_iterator@U?$pair@$$CBKK@_STL@@U?$_Nonconst_traits@U?$pair@$$CBKK@_STL@@@2@@_STL@@QBEAAU?$pair@$$CBKK@1@XZ PROC NEAR ; _STL::_Rb_tree_iterator<_STL::pair<unsigned long const ,unsigned long>,_STL::_Nonconst_traits<_STL::pair<unsigned long const ,unsigned long> > >::operator*, COMDAT
; _this$ = ecx

; 169  :     return _Link_type(_M_node)->_M_value_field; 

  00000	8b 01		 mov	 eax, DWORD PTR [ecx]
  00002	83 c0 10	 add	 eax, 16			; 00000010H

; 170  :   }

  00005	c3		 ret	 0
??D?$_Rb_tree_iterator@U?$pair@$$CBKK@_STL@@U?$_Nonconst_traits@U?$pair@$$CBKK@_STL@@@2@@_STL@@QBEAAU?$pair@$$CBKK@1@XZ ENDP ; _STL::_Rb_tree_iterator<_STL::pair<unsigned long const ,unsigned long>,_STL::_Nonconst_traits<_STL::pair<unsigned long const ,unsigned long> > >::operator*
_TEXT	ENDS
PUBLIC	??D?$_Rb_tree_iterator@U?$pair@$$CBKK@_STL@@U?$_Const_traits@U?$pair@$$CBKK@_STL@@@2@@_STL@@QBEABU?$pair@$$CBKK@1@XZ ; _STL::_Rb_tree_iterator<_STL::pair<unsigned long const ,unsigned long>,_STL::_Const_traits<_STL::pair<unsigned long const ,unsigned long> > >::operator*
; Function compile flags: /Ogsy
;	COMDAT ??D?$_Rb_tree_iterator@U?$pair@$$CBKK@_STL@@U?$_Const_traits@U?$pair@$$CBKK@_STL@@@2@@_STL@@QBEABU?$pair@$$CBKK@1@XZ
_TEXT	SEGMENT
??D?$_Rb_tree_iterator@U?$pair@$$CBKK@_STL@@U?$_Const_traits@U?$pair@$$CBKK@_STL@@@2@@_STL@@QBEABU?$pair@$$CBKK@1@XZ PROC NEAR ; _STL::_Rb_tree_iterator<_STL::pair<unsigned long const ,unsigned long>,_STL::_Const_traits<_STL::pair<unsigned long const ,unsigned long> > >::operator*, COMDAT
; _this$ = ecx

; 169  :     return _Link_type(_M_node)->_M_value_field; 

  00000	8b 01		 mov	 eax, DWORD PTR [ecx]
  00002	83 c0 10	 add	 eax, 16			; 00000010H

; 170  :   }

  00005	c3		 ret	 0
??D?$_Rb_tree_iterator@U?$pair@$$CBKK@_STL@@U?$_Const_traits@U?$pair@$$CBKK@_STL@@@2@@_STL@@QBEABU?$pair@$$CBKK@1@XZ ENDP ; _STL::_Rb_tree_iterator<_STL::pair<unsigned long const ,unsigned long>,_STL::_Const_traits<_STL::pair<unsigned long const ,unsigned long> > >::operator*
_TEXT	ENDS
PUBLIC	??0?$pair@$$CBKK@_STL@@QAE@ABK0@Z		; _STL::pair<unsigned long const ,unsigned long>::pair<unsigned long const ,unsigned long>
; Function compile flags: /Ogsy
; File c:\stlport-4.6.1\stlport\stl\_pair.h
;	COMDAT ??0?$pair@$$CBKK@_STL@@QAE@ABK0@Z
_TEXT	SEGMENT
___a$ = 8						; size = 4
___b$ = 12						; size = 4
??0?$pair@$$CBKK@_STL@@QAE@ABK0@Z PROC NEAR		; _STL::pair<unsigned long const ,unsigned long>::pair<unsigned long const ,unsigned long>, COMDAT
; _this$ = ecx

; 48   :   pair(const _T1& __a, const _T2& __b) : first(__a), second(__b) {}

  00000	8b c1		 mov	 eax, ecx
  00002	8b 4c 24 04	 mov	 ecx, DWORD PTR ___a$[esp-4]
  00006	8b 09		 mov	 ecx, DWORD PTR [ecx]
  00008	89 08		 mov	 DWORD PTR [eax], ecx
  0000a	8b 4c 24 08	 mov	 ecx, DWORD PTR ___b$[esp-4]
  0000e	8b 09		 mov	 ecx, DWORD PTR [ecx]
  00010	89 48 04	 mov	 DWORD PTR [eax+4], ecx
  00013	c2 08 00	 ret	 8
??0?$pair@$$CBKK@_STL@@QAE@ABK0@Z ENDP			; _STL::pair<unsigned long const ,unsigned long>::pair<unsigned long const ,unsigned long>
_TEXT	ENDS
PUBLIC	?_M_root@?$_Rb_tree@KU?$pair@$$CBKK@_STL@@U?$_Select1st@U?$pair@$$CBKK@_STL@@@2@U?$less@K@2@V?$allocator@U?$pair@$$CBKK@_STL@@@2@@_STL@@IBEAAPAU?$_Rb_tree_node@U?$pair@$$CBKK@_STL@@@2@XZ ; _STL::_Rb_tree<unsigned long,_STL::pair<unsigned long const ,unsigned long>,_STL::_Select1st<_STL::pair<unsigned long const ,unsigned long> >,_STL::less<unsigned long>,_STL::allocator<_STL::pair<unsigned long const ,unsigned long> > >::_M_root
; Function compile flags: /Ogsy
; File c:\stlport-4.6.1\stlport\stl\_tree.h
;	COMDAT ?_M_root@?$_Rb_tree@KU?$pair@$$CBKK@_STL@@U?$_Select1st@U?$pair@$$CBKK@_STL@@@2@U?$less@K@2@V?$allocator@U?$pair@$$CBKK@_STL@@@2@@_STL@@IBEAAPAU?$_Rb_tree_node@U?$pair@$$CBKK@_STL@@@2@XZ
_TEXT	SEGMENT
?_M_root@?$_Rb_tree@KU?$pair@$$CBKK@_STL@@U?$_Select1st@U?$pair@$$CBKK@_STL@@@2@U?$less@K@2@V?$allocator@U?$pair@$$CBKK@_STL@@@2@@_STL@@IBEAAPAU?$_Rb_tree_node@U?$pair@$$CBKK@_STL@@@2@XZ PROC NEAR ; _STL::_Rb_tree<unsigned long,_STL::pair<unsigned long const ,unsigned long>,_STL::_Select1st<_STL::pair<unsigned long const ,unsigned long> >,_STL::less<unsigned long>,_STL::allocator<_STL::pair<unsigned long const ,unsigned long> > >::_M_root, COMDAT
; _this$ = ecx

; 265  :     { return (_Link_type&) this->_M_header._M_data->_M_parent; }

  00000	8b 01		 mov	 eax, DWORD PTR [ecx]
  00002	83 c0 04	 add	 eax, 4
  00005	c3		 ret	 0
?_M_root@?$_Rb_tree@KU?$pair@$$CBKK@_STL@@U?$_Select1st@U?$pair@$$CBKK@_STL@@@2@U?$less@K@2@V?$allocator@U?$pair@$$CBKK@_STL@@@2@@_STL@@IBEAAPAU?$_Rb_tree_node@U?$pair@$$CBKK@_STL@@@2@XZ ENDP ; _STL::_Rb_tree<unsigned long,_STL::pair<unsigned long const ,unsigned long>,_STL::_Select1st<_STL::pair<unsigned long const ,unsigned long> >,_STL::less<unsigned long>,_STL::allocator<_STL::pair<unsigned long const ,unsigned long> > >::_M_root
_TEXT	ENDS
PUBLIC	?_M_leftmost@?$_Rb_tree@KU?$pair@$$CBKK@_STL@@U?$_Select1st@U?$pair@$$CBKK@_STL@@@2@U?$less@K@2@V?$allocator@U?$pair@$$CBKK@_STL@@@2@@_STL@@IBEAAPAU?$_Rb_tree_node@U?$pair@$$CBKK@_STL@@@2@XZ ; _STL::_Rb_tree<unsigned long,_STL::pair<unsigned long const ,unsigned long>,_STL::_Select1st<_STL::pair<unsigned long const ,unsigned long> >,_STL::less<unsigned long>,_STL::allocator<_STL::pair<unsigned long const ,unsigned long> > >::_M_leftmost
; Function compile flags: /Ogsy
;	COMDAT ?_M_leftmost@?$_Rb_tree@KU?$pair@$$CBKK@_STL@@U?$_Select1st@U?$pair@$$CBKK@_STL@@@2@U?$less@K@2@V?$allocator@U?$pair@$$CBKK@_STL@@@2@@_STL@@IBEAAPAU?$_Rb_tree_node@U?$pair@$$CBKK@_STL@@@2@XZ
_TEXT	SEGMENT
?_M_leftmost@?$_Rb_tree@KU?$pair@$$CBKK@_STL@@U?$_Select1st@U?$pair@$$CBKK@_STL@@@2@U?$less@K@2@V?$allocator@U?$pair@$$CBKK@_STL@@@2@@_STL@@IBEAAPAU?$_Rb_tree_node@U?$pair@$$CBKK@_STL@@@2@XZ PROC NEAR ; _STL::_Rb_tree<unsigned long,_STL::pair<unsigned long const ,unsigned long>,_STL::_Select1st<_STL::pair<unsigned long const ,unsigned long> >,_STL::less<unsigned long>,_STL::allocator<_STL::pair<unsigned long const ,unsigned long> > >::_M_leftmost, COMDAT
; _this$ = ecx

; 267  :     { return (_Link_type&) this->_M_header._M_data->_M_left; }

  00000	8b 01		 mov	 eax, DWORD PTR [ecx]
  00002	83 c0 08	 add	 eax, 8
  00005	c3		 ret	 0
?_M_leftmost@?$_Rb_tree@KU?$pair@$$CBKK@_STL@@U?$_Select1st@U?$pair@$$CBKK@_STL@@@2@U?$less@K@2@V?$allocator@U?$pair@$$CBKK@_STL@@@2@@_STL@@IBEAAPAU?$_Rb_tree_node@U?$pair@$$CBKK@_STL@@@2@XZ ENDP ; _STL::_Rb_tree<unsigned long,_STL::pair<unsigned long const ,unsigned long>,_STL::_Select1st<_STL::pair<unsigned long const ,unsigned long> >,_STL::less<unsigned long>,_STL::allocator<_STL::pair<unsigned long const ,unsigned long> > >::_M_leftmost
_TEXT	ENDS
PUBLIC	?_M_rightmost@?$_Rb_tree@KU?$pair@$$CBKK@_STL@@U?$_Select1st@U?$pair@$$CBKK@_STL@@@2@U?$less@K@2@V?$allocator@U?$pair@$$CBKK@_STL@@@2@@_STL@@IBEAAPAU?$_Rb_tree_node@U?$pair@$$CBKK@_STL@@@2@XZ ; _STL::_Rb_tree<unsigned long,_STL::pair<unsigned long const ,unsigned long>,_STL::_Select1st<_STL::pair<unsigned long const ,unsigned long> >,_STL::less<unsigned long>,_STL::allocator<_STL::pair<unsigned long const ,unsigned long> > >::_M_rightmost
; Function compile flags: /Ogsy
;	COMDAT ?_M_rightmost@?$_Rb_tree@KU?$pair@$$CBKK@_STL@@U?$_Select1st@U?$pair@$$CBKK@_STL@@@2@U?$less@K@2@V?$allocator@U?$pair@$$CBKK@_STL@@@2@@_STL@@IBEAAPAU?$_Rb_tree_node@U?$pair@$$CBKK@_STL@@@2@XZ
_TEXT	SEGMENT
?_M_rightmost@?$_Rb_tree@KU?$pair@$$CBKK@_STL@@U?$_Select1st@U?$pair@$$CBKK@_STL@@@2@U?$less@K@2@V?$allocator@U?$pair@$$CBKK@_STL@@@2@@_STL@@IBEAAPAU?$_Rb_tree_node@U?$pair@$$CBKK@_STL@@@2@XZ PROC NEAR ; _STL::_Rb_tree<unsigned long,_STL::pair<unsigned long const ,unsigned long>,_STL::_Select1st<_STL::pair<unsigned long const ,unsigned long> >,_STL::less<unsigned long>,_STL::allocator<_STL::pair<unsigned long const ,unsigned long> > >::_M_rightmost, COMDAT
; _this$ = ecx

; 269  :     { return (_Link_type&) this->_M_header._M_data->_M_right; }

  00000	8b 01		 mov	 eax, DWORD PTR [ecx]
  00002	83 c0 0c	 add	 eax, 12			; 0000000cH
  00005	c3		 ret	 0
?_M_rightmost@?$_Rb_tree@KU?$pair@$$CBKK@_STL@@U?$_Select1st@U?$pair@$$CBKK@_STL@@@2@U?$less@K@2@V?$allocator@U?$pair@$$CBKK@_STL@@@2@@_STL@@IBEAAPAU?$_Rb_tree_node@U?$pair@$$CBKK@_STL@@@2@XZ ENDP ; _STL::_Rb_tree<unsigned long,_STL::pair<unsigned long const ,unsigned long>,_STL::_Select1st<_STL::pair<unsigned long const ,unsigned long> >,_STL::less<unsigned long>,_STL::allocator<_STL::pair<unsigned long const ,unsigned long> > >::_M_rightmost
_TEXT	ENDS
PUBLIC	?key_comp@?$_Rb_tree@KU?$pair@$$CBKK@_STL@@U?$_Select1st@U?$pair@$$CBKK@_STL@@@2@U?$less@K@2@V?$allocator@U?$pair@$$CBKK@_STL@@@2@@_STL@@QBE?AU?$less@K@2@XZ ; _STL::_Rb_tree<unsigned long,_STL::pair<unsigned long const ,unsigned long>,_STL::_Select1st<_STL::pair<unsigned long const ,unsigned long> >,_STL::less<unsigned long>,_STL::allocator<_STL::pair<unsigned long const ,unsigned long> > >::key_comp
; Function compile flags: /Ogsy
;	COMDAT ?key_comp@?$_Rb_tree@KU?$pair@$$CBKK@_STL@@U?$_Select1st@U?$pair@$$CBKK@_STL@@@2@U?$less@K@2@V?$allocator@U?$pair@$$CBKK@_STL@@@2@@_STL@@QBE?AU?$less@K@2@XZ
_TEXT	SEGMENT
___$ReturnUdt$ = 8					; size = 4
?key_comp@?$_Rb_tree@KU?$pair@$$CBKK@_STL@@U?$_Select1st@U?$pair@$$CBKK@_STL@@@2@U?$less@K@2@V?$allocator@U?$pair@$$CBKK@_STL@@@2@@_STL@@QBE?AU?$less@K@2@XZ PROC NEAR ; _STL::_Rb_tree<unsigned long,_STL::pair<unsigned long const ,unsigned long>,_STL::_Select1st<_STL::pair<unsigned long const ,unsigned long> >,_STL::less<unsigned long>,_STL::allocator<_STL::pair<unsigned long const ,unsigned long> > >::key_comp, COMDAT
; _this$ = ecx

; 355  :   _Compare key_comp() const { return _M_key_compare; }

  00000	8b 44 24 04	 mov	 eax, DWORD PTR ___$ReturnUdt$[esp-4]
  00004	c2 04 00	 ret	 4
?key_comp@?$_Rb_tree@KU?$pair@$$CBKK@_STL@@U?$_Select1st@U?$pair@$$CBKK@_STL@@@2@U?$less@K@2@V?$allocator@U?$pair@$$CBKK@_STL@@@2@@_STL@@QBE?AU?$less@K@2@XZ ENDP ; _STL::_Rb_tree<unsigned long,_STL::pair<unsigned long const ,unsigned long>,_STL::_Select1st<_STL::pair<unsigned long const ,unsigned long> >,_STL::less<unsigned long>,_STL::allocator<_STL::pair<unsigned long const ,unsigned long> > >::key_comp
_TEXT	ENDS
PUBLIC	??1?$allocator@U?$_Rb_tree_node@U?$pair@$$CBKK@_STL@@@_STL@@@_STL@@QAE@XZ ; _STL::allocator<_STL::_Rb_tree_node<_STL::pair<unsigned long const ,unsigned long> > >::~allocator<_STL::_Rb_tree_node<_STL::pair<unsigned long const ,unsigned long> > >
; Function compile flags: /Ogsy
; File c:\stlport-4.6.1\stlport\stl\_alloc.h
;	COMDAT ??1?$allocator@U?$_Rb_tree_node@U?$pair@$$CBKK@_STL@@@_STL@@@_STL@@QAE@XZ
_TEXT	SEGMENT
??1?$allocator@U?$_Rb_tree_node@U?$pair@$$CBKK@_STL@@@_STL@@@_STL@@QAE@XZ PROC NEAR ; _STL::allocator<_STL::_Rb_tree_node<_STL::pair<unsigned long const ,unsigned long> > >::~allocator<_STL::_Rb_tree_node<_STL::pair<unsigned long const ,unsigned long> > >, COMDAT
; _this$ = ecx

; 350  :   ~allocator() _STLP_NOTHROW {}

  00000	c3		 ret	 0
??1?$allocator@U?$_Rb_tree_node@U?$pair@$$CBKK@_STL@@@_STL@@@_STL@@QAE@XZ ENDP ; _STL::allocator<_STL::_Rb_tree_node<_STL::pair<unsigned long const ,unsigned long> > >::~allocator<_STL::_Rb_tree_node<_STL::pair<unsigned long const ,unsigned long> > >
_TEXT	ENDS
PUBLIC	??0?$_Rb_tree_iterator@U?$pair@$$CBKK@_STL@@U?$_Nonconst_traits@U?$pair@$$CBKK@_STL@@@2@@_STL@@QAE@PAU?$_Rb_tree_node@U?$pair@$$CBKK@_STL@@@1@@Z ; _STL::_Rb_tree_iterator<_STL::pair<unsigned long const ,unsigned long>,_STL::_Nonconst_traits<_STL::pair<unsigned long const ,unsigned long> > >::_Rb_tree_iterator<_STL::pair<unsigned long const ,unsigned long>,_STL::_Nonconst_traits<_STL::pair<unsigned long const ,unsigned long> > >
; Function compile flags: /Ogsy
; File c:\stlport-4.6.1\stlport\stl\_tree.h
;	COMDAT ??0?$_Rb_tree_iterator@U?$pair@$$CBKK@_STL@@U?$_Nonconst_traits@U?$pair@$$CBKK@_STL@@@2@@_STL@@QAE@PAU?$_Rb_tree_node@U?$pair@$$CBKK@_STL@@@1@@Z
_TEXT	SEGMENT
___x$ = 8						; size = 4
??0?$_Rb_tree_iterator@U?$pair@$$CBKK@_STL@@U?$_Nonconst_traits@U?$pair@$$CBKK@_STL@@@2@@_STL@@QAE@PAU?$_Rb_tree_node@U?$pair@$$CBKK@_STL@@@1@@Z PROC NEAR ; _STL::_Rb_tree_iterator<_STL::pair<unsigned long const ,unsigned long>,_STL::_Nonconst_traits<_STL::pair<unsigned long const ,unsigned long> > >::_Rb_tree_iterator<_STL::pair<unsigned long const ,unsigned long>,_STL::_Nonconst_traits<_STL::pair<unsigned long const ,unsigned long> > >, COMDAT
; _this$ = ecx

; 164  :   _Rb_tree_iterator(_Link_type __x) { _M_node = __x; }

  00000	8b c1		 mov	 eax, ecx
  00002	8b 4c 24 04	 mov	 ecx, DWORD PTR ___x$[esp-4]
  00006	89 08		 mov	 DWORD PTR [eax], ecx
  00008	c2 04 00	 ret	 4
??0?$_Rb_tree_iterator@U?$pair@$$CBKK@_STL@@U?$_Nonconst_traits@U?$pair@$$CBKK@_STL@@@2@@_STL@@QAE@PAU?$_Rb_tree_node@U?$pair@$$CBKK@_STL@@@1@@Z ENDP ; _STL::_Rb_tree_iterator<_STL::pair<unsigned long const ,unsigned long>,_STL::_Nonconst_traits<_STL::pair<unsigned long const ,unsigned long> > >::_Rb_tree_iterator<_STL::pair<unsigned long const ,unsigned long>,_STL::_Nonconst_traits<_STL::pair<unsigned long const ,unsigned long> > >
_TEXT	ENDS
PUBLIC	??0?$_Rb_tree_iterator@U?$pair@$$CBKK@_STL@@U?$_Const_traits@U?$pair@$$CBKK@_STL@@@2@@_STL@@QAE@PAU?$_Rb_tree_node@U?$pair@$$CBKK@_STL@@@1@@Z ; _STL::_Rb_tree_iterator<_STL::pair<unsigned long const ,unsigned long>,_STL::_Const_traits<_STL::pair<unsigned long const ,unsigned long> > >::_Rb_tree_iterator<_STL::pair<unsigned long const ,unsigned long>,_STL::_Const_traits<_STL::pair<unsigned long const ,unsigned long> > >
; Function compile flags: /Ogsy
;	COMDAT ??0?$_Rb_tree_iterator@U?$pair@$$CBKK@_STL@@U?$_Const_traits@U?$pair@$$CBKK@_STL@@@2@@_STL@@QAE@PAU?$_Rb_tree_node@U?$pair@$$CBKK@_STL@@@1@@Z
_TEXT	SEGMENT
___x$ = 8						; size = 4
??0?$_Rb_tree_iterator@U?$pair@$$CBKK@_STL@@U?$_Const_traits@U?$pair@$$CBKK@_STL@@@2@@_STL@@QAE@PAU?$_Rb_tree_node@U?$pair@$$CBKK@_STL@@@1@@Z PROC NEAR ; _STL::_Rb_tree_iterator<_STL::pair<unsigned long const ,unsigned long>,_STL::_Const_traits<_STL::pair<unsigned long const ,unsigned long> > >::_Rb_tree_iterator<_STL::pair<unsigned long const ,unsigned long>,_STL::_Const_traits<_STL::pair<unsigned long const ,unsigned long> > >, COMDAT
; _this$ = ecx

; 164  :   _Rb_tree_iterator(_Link_type __x) { _M_node = __x; }

  00000	8b c1		 mov	 eax, ecx
  00002	8b 4c 24 04	 mov	 ecx, DWORD PTR ___x$[esp-4]
  00006	89 08		 mov	 DWORD PTR [eax], ecx
  00008	c2 04 00	 ret	 4
??0?$_Rb_tree_iterator@U?$pair@$$CBKK@_STL@@U?$_Const_traits@U?$pair@$$CBKK@_STL@@@2@@_STL@@QAE@PAU?$_Rb_tree_node@U?$pair@$$CBKK@_STL@@@1@@Z ENDP ; _STL::_Rb_tree_iterator<_STL::pair<unsigned long const ,unsigned long>,_STL::_Const_traits<_STL::pair<unsigned long const ,unsigned long> > >::_Rb_tree_iterator<_STL::pair<unsigned long const ,unsigned long>,_STL::_Const_traits<_STL::pair<unsigned long const ,unsigned long> > >
_TEXT	ENDS
PUBLIC	?_S_color@?$_Rb_tree@KU?$pair@$$CBKK@_STL@@U?$_Select1st@U?$pair@$$CBKK@_STL@@@2@U?$less@K@2@V?$allocator@U?$pair@$$CBKK@_STL@@@2@@_STL@@KAAA_NPAU?$_Rb_tree_node@U?$pair@$$CBKK@_STL@@@2@@Z ; _STL::_Rb_tree<unsigned long,_STL::pair<unsigned long const ,unsigned long>,_STL::_Select1st<_STL::pair<unsigned long const ,unsigned long> >,_STL::less<unsigned long>,_STL::allocator<_STL::pair<unsigned long const ,unsigned long> > >::_S_color
; Function compile flags: /Ogsy
;	COMDAT ?_S_color@?$_Rb_tree@KU?$pair@$$CBKK@_STL@@U?$_Select1st@U?$pair@$$CBKK@_STL@@@2@U?$less@K@2@V?$allocator@U?$pair@$$CBKK@_STL@@@2@@_STL@@KAAA_NPAU?$_Rb_tree_node@U?$pair@$$CBKK@_STL@@@2@@Z
_TEXT	SEGMENT
___x$ = 8						; size = 4
?_S_color@?$_Rb_tree@KU?$pair@$$CBKK@_STL@@U?$_Select1st@U?$pair@$$CBKK@_STL@@@2@U?$less@K@2@V?$allocator@U?$pair@$$CBKK@_STL@@@2@@_STL@@KAAA_NPAU?$_Rb_tree_node@U?$pair@$$CBKK@_STL@@@2@@Z PROC NEAR ; _STL::_Rb_tree<unsigned long,_STL::pair<unsigned long const ,unsigned long>,_STL::_Select1st<_STL::pair<unsigned long const ,unsigned long> >,_STL::less<unsigned long>,_STL::allocator<_STL::pair<unsigned long const ,unsigned long> > >::_S_color, COMDAT

; 282  :     { return (_Color_type&)(__x->_M_color); }

  00000	8b 44 24 04	 mov	 eax, DWORD PTR ___x$[esp-4]
  00004	c3		 ret	 0
?_S_color@?$_Rb_tree@KU?$pair@$$CBKK@_STL@@U?$_Select1st@U?$pair@$$CBKK@_STL@@@2@U?$less@K@2@V?$allocator@U?$pair@$$CBKK@_STL@@@2@@_STL@@KAAA_NPAU?$_Rb_tree_node@U?$pair@$$CBKK@_STL@@@2@@Z ENDP ; _STL::_Rb_tree<unsigned long,_STL::pair<unsigned long const ,unsigned long>,_STL::_Select1st<_STL::pair<unsigned long const ,unsigned long> >,_STL::less<unsigned long>,_STL::allocator<_STL::pair<unsigned long const ,unsigned long> > >::_S_color
_TEXT	ENDS
PUBLIC	?_S_left@?$_Rb_tree@KU?$pair@$$CBKK@_STL@@U?$_Select1st@U?$pair@$$CBKK@_STL@@@2@U?$less@K@2@V?$allocator@U?$pair@$$CBKK@_STL@@@2@@_STL@@KAAAPAU?$_Rb_tree_node@U?$pair@$$CBKK@_STL@@@2@PAU32@@Z ; _STL::_Rb_tree<unsigned long,_STL::pair<unsigned long const ,unsigned long>,_STL::_Select1st<_STL::pair<unsigned long const ,unsigned long> >,_STL::less<unsigned long>,_STL::allocator<_STL::pair<unsigned long const ,unsigned long> > >::_S_left
; Function compile flags: /Ogsy
;	COMDAT ?_S_left@?$_Rb_tree@KU?$pair@$$CBKK@_STL@@U?$_Select1st@U?$pair@$$CBKK@_STL@@@2@U?$less@K@2@V?$allocator@U?$pair@$$CBKK@_STL@@@2@@_STL@@KAAAPAU?$_Rb_tree_node@U?$pair@$$CBKK@_STL@@@2@PAU32@@Z
_TEXT	SEGMENT
___x$ = 8						; size = 4
?_S_left@?$_Rb_tree@KU?$pair@$$CBKK@_STL@@U?$_Select1st@U?$pair@$$CBKK@_STL@@@2@U?$less@K@2@V?$allocator@U?$pair@$$CBKK@_STL@@@2@@_STL@@KAAAPAU?$_Rb_tree_node@U?$pair@$$CBKK@_STL@@@2@PAU32@@Z PROC NEAR ; _STL::_Rb_tree<unsigned long,_STL::pair<unsigned long const ,unsigned long>,_STL::_Select1st<_STL::pair<unsigned long const ,unsigned long> >,_STL::less<unsigned long>,_STL::allocator<_STL::pair<unsigned long const ,unsigned long> > >::_S_left, COMDAT

; 272  :     { return (_Link_type&)(__x->_M_left); }

  00000	8b 44 24 04	 mov	 eax, DWORD PTR ___x$[esp-4]
  00004	83 c0 08	 add	 eax, 8
  00007	c3		 ret	 0
?_S_left@?$_Rb_tree@KU?$pair@$$CBKK@_STL@@U?$_Select1st@U?$pair@$$CBKK@_STL@@@2@U?$less@K@2@V?$allocator@U?$pair@$$CBKK@_STL@@@2@@_STL@@KAAAPAU?$_Rb_tree_node@U?$pair@$$CBKK@_STL@@@2@PAU32@@Z ENDP ; _STL::_Rb_tree<unsigned long,_STL::pair<unsigned long const ,unsigned long>,_STL::_Select1st<_STL::pair<unsigned long const ,unsigned long> >,_STL::less<unsigned long>,_STL::allocator<_STL::pair<unsigned long const ,unsigned long> > >::_S_left
_TEXT	ENDS
PUBLIC	?_S_right@?$_Rb_tree@KU?$pair@$$CBKK@_STL@@U?$_Select1st@U?$pair@$$CBKK@_STL@@@2@U?$less@K@2@V?$allocator@U?$pair@$$CBKK@_STL@@@2@@_STL@@KAAAPAU?$_Rb_tree_node@U?$pair@$$CBKK@_STL@@@2@PAU32@@Z ; _STL::_Rb_tree<unsigned long,_STL::pair<unsigned long const ,unsigned long>,_STL::_Select1st<_STL::pair<unsigned long const ,unsigned long> >,_STL::less<unsigned long>,_STL::allocator<_STL::pair<unsigned long const ,unsigned long> > >::_S_right
; Function compile flags: /Ogsy
;	COMDAT ?_S_right@?$_Rb_tree@KU?$pair@$$CBKK@_STL@@U?$_Select1st@U?$pair@$$CBKK@_STL@@@2@U?$less@K@2@V?$allocator@U?$pair@$$CBKK@_STL@@@2@@_STL@@KAAAPAU?$_Rb_tree_node@U?$pair@$$CBKK@_STL@@@2@PAU32@@Z
_TEXT	SEGMENT
___x$ = 8						; size = 4
?_S_right@?$_Rb_tree@KU?$pair@$$CBKK@_STL@@U?$_Select1st@U?$pair@$$CBKK@_STL@@@2@U?$less@K@2@V?$allocator@U?$pair@$$CBKK@_STL@@@2@@_STL@@KAAAPAU?$_Rb_tree_node@U?$pair@$$CBKK@_STL@@@2@PAU32@@Z PROC NEAR ; _STL::_Rb_tree<unsigned long,_STL::pair<unsigned long const ,unsigned long>,_STL::_Select1st<_STL::pair<unsigned long const ,unsigned long> >,_STL::less<unsigned long>,_STL::allocator<_STL::pair<unsigned long const ,unsigned long> > >::_S_right, COMDAT

; 274  :     { return (_Link_type&)(__x->_M_right); }

  00000	8b 44 24 04	 mov	 eax, DWORD PTR ___x$[esp-4]
  00004	83 c0 0c	 add	 eax, 12			; 0000000cH
  00007	c3		 ret	 0
?_S_right@?$_Rb_tree@KU?$pair@$$CBKK@_STL@@U?$_Select1st@U?$pair@$$CBKK@_STL@@@2@U?$less@K@2@V?$allocator@U?$pair@$$CBKK@_STL@@@2@@_STL@@KAAAPAU?$_Rb_tree_node@U?$pair@$$CBKK@_STL@@@2@PAU32@@Z ENDP ; _STL::_Rb_tree<unsigned long,_STL::pair<unsigned long const ,unsigned long>,_STL::_Select1st<_STL::pair<unsigned long const ,unsigned long> >,_STL::less<unsigned long>,_STL::allocator<_STL::pair<unsigned long const ,unsigned long> > >::_S_right
_TEXT	ENDS
PUBLIC	??0?$allocator@U?$_Rb_tree_node@U?$pair@$$CBKK@_STL@@@_STL@@@_STL@@QAE@ABV01@@Z ; _STL::allocator<_STL::_Rb_tree_node<_STL::pair<unsigned long const ,unsigned long> > >::allocator<_STL::_Rb_tree_node<_STL::pair<unsigned long const ,unsigned long> > >
; Function compile flags: /Ogsy
; File c:\stlport-4.6.1\stlport\stl\_alloc.h
;	COMDAT ??0?$allocator@U?$_Rb_tree_node@U?$pair@$$CBKK@_STL@@@_STL@@@_STL@@QAE@ABV01@@Z
_TEXT	SEGMENT
___formal$ = 8						; size = 4
??0?$allocator@U?$_Rb_tree_node@U?$pair@$$CBKK@_STL@@@_STL@@@_STL@@QAE@ABV01@@Z PROC NEAR ; _STL::allocator<_STL::_Rb_tree_node<_STL::pair<unsigned long const ,unsigned long> > >::allocator<_STL::_Rb_tree_node<_STL::pair<unsigned long const ,unsigned long> > >, COMDAT
; _this$ = ecx

; 349  :   allocator(const allocator<_Tp>&) _STLP_NOTHROW {}

  00000	8b c1		 mov	 eax, ecx
  00002	c2 04 00	 ret	 4
??0?$allocator@U?$_Rb_tree_node@U?$pair@$$CBKK@_STL@@@_STL@@@_STL@@QAE@ABV01@@Z ENDP ; _STL::allocator<_STL::_Rb_tree_node<_STL::pair<unsigned long const ,unsigned long> > >::allocator<_STL::_Rb_tree_node<_STL::pair<unsigned long const ,unsigned long> > >
_TEXT	ENDS
PUBLIC	?_S_value@?$_Rb_tree@KU?$pair@$$CBKK@_STL@@U?$_Select1st@U?$pair@$$CBKK@_STL@@@2@U?$less@K@2@V?$allocator@U?$pair@$$CBKK@_STL@@@2@@_STL@@KAAAU?$pair@$$CBKK@2@PAU?$_Rb_tree_node@U?$pair@$$CBKK@_STL@@@2@@Z ; _STL::_Rb_tree<unsigned long,_STL::pair<unsigned long const ,unsigned long>,_STL::_Select1st<_STL::pair<unsigned long const ,unsigned long> >,_STL::less<unsigned long>,_STL::allocator<_STL::pair<unsigned long const ,unsigned long> > >::_S_value
; Function compile flags: /Ogsy
; File c:\stlport-4.6.1\stlport\stl\_tree.h
;	COMDAT ?_S_value@?$_Rb_tree@KU?$pair@$$CBKK@_STL@@U?$_Select1st@U?$pair@$$CBKK@_STL@@@2@U?$less@K@2@V?$allocator@U?$pair@$$CBKK@_STL@@@2@@_STL@@KAAAU?$pair@$$CBKK@2@PAU?$_Rb_tree_node@U?$pair@$$CBKK@_STL@@@2@@Z
_TEXT	SEGMENT
___x$ = 8						; size = 4
?_S_value@?$_Rb_tree@KU?$pair@$$CBKK@_STL@@U?$_Select1st@U?$pair@$$CBKK@_STL@@@2@U?$less@K@2@V?$allocator@U?$pair@$$CBKK@_STL@@@2@@_STL@@KAAAU?$pair@$$CBKK@2@PAU?$_Rb_tree_node@U?$pair@$$CBKK@_STL@@@2@@Z PROC NEAR ; _STL::_Rb_tree<unsigned long,_STL::pair<unsigned long const ,unsigned long>,_STL::_Select1st<_STL::pair<unsigned long const ,unsigned long> >,_STL::less<unsigned long>,_STL::allocator<_STL::pair<unsigned long const ,unsigned long> > >::_S_value, COMDAT

; 278  :     { return __x->_M_value_field; }

  00000	8b 44 24 04	 mov	 eax, DWORD PTR ___x$[esp-4]
  00004	83 c0 10	 add	 eax, 16			; 00000010H
  00007	c3		 ret	 0
?_S_value@?$_Rb_tree@KU?$pair@$$CBKK@_STL@@U?$_Select1st@U?$pair@$$CBKK@_STL@@@2@U?$less@K@2@V?$allocator@U?$pair@$$CBKK@_STL@@@2@@_STL@@KAAAU?$pair@$$CBKK@2@PAU?$_Rb_tree_node@U?$pair@$$CBKK@_STL@@@2@@Z ENDP ; _STL::_Rb_tree<unsigned long,_STL::pair<unsigned long const ,unsigned long>,_STL::_Select1st<_STL::pair<unsigned long const ,unsigned long> >,_STL::less<unsigned long>,_STL::allocator<_STL::pair<unsigned long const ,unsigned long> > >::_S_value
_TEXT	ENDS
PUBLIC	??R?$_Select1st@U?$pair@$$CBKK@_STL@@@_STL@@QBEABKABU?$pair@$$CBKK@1@@Z ; _STL::_Select1st<_STL::pair<unsigned long const ,unsigned long> >::operator()
; Function compile flags: /Ogsy
; File c:\stlport-4.6.1\stlport\stl\_function_base.h
;	COMDAT ??R?$_Select1st@U?$pair@$$CBKK@_STL@@@_STL@@QBEABKABU?$pair@$$CBKK@1@@Z
_TEXT	SEGMENT
___x$ = 8						; size = 4
??R?$_Select1st@U?$pair@$$CBKK@_STL@@@_STL@@QBEABKABU?$pair@$$CBKK@1@@Z PROC NEAR ; _STL::_Select1st<_STL::pair<unsigned long const ,unsigned long> >::operator(), COMDAT
; _this$ = ecx

; 153  :     return __x.first;

  00000	8b 44 24 04	 mov	 eax, DWORD PTR ___x$[esp-4]

; 154  :   }

  00004	c2 04 00	 ret	 4
??R?$_Select1st@U?$pair@$$CBKK@_STL@@@_STL@@QBEABKABU?$pair@$$CBKK@1@@Z ENDP ; _STL::_Select1st<_STL::pair<unsigned long const ,unsigned long> >::operator()
_TEXT	ENDS
PUBLIC	??$?0U?$pair@$$CBKK@_STL@@@?$allocator@U?$_Rb_tree_node@U?$pair@$$CBKK@_STL@@@_STL@@@_STL@@QAE@ABV?$allocator@U?$pair@$$CBKK@_STL@@@1@@Z ; _STL::allocator<_STL::_Rb_tree_node<_STL::pair<unsigned long const ,unsigned long> > >::allocator<_STL::_Rb_tree_node<_STL::pair<unsigned long const ,unsigned long> > ><_STL::pair<unsigned long const ,unsigned long> >
; Function compile flags: /Ogsy
; File c:\stlport-4.6.1\stlport\stl\_alloc.h
;	COMDAT ??$?0U?$pair@$$CBKK@_STL@@@?$allocator@U?$_Rb_tree_node@U?$pair@$$CBKK@_STL@@@_STL@@@_STL@@QAE@ABV?$allocator@U?$pair@$$CBKK@_STL@@@1@@Z
_TEXT	SEGMENT
___formal$ = 8						; size = 4
??$?0U?$pair@$$CBKK@_STL@@@?$allocator@U?$_Rb_tree_node@U?$pair@$$CBKK@_STL@@@_STL@@@_STL@@QAE@ABV?$allocator@U?$pair@$$CBKK@_STL@@@1@@Z PROC NEAR ; _STL::allocator<_STL::_Rb_tree_node<_STL::pair<unsigned long const ,unsigned long> > >::allocator<_STL::_Rb_tree_node<_STL::pair<unsigned long const ,unsigned long> > ><_STL::pair<unsigned long const ,unsigned long> >, COMDAT
; _this$ = ecx

; 347  :   template <class _Tp1> allocator(const allocator<_Tp1>&) _STLP_NOTHROW {}

  00000	8b c1		 mov	 eax, ecx
  00002	c2 04 00	 ret	 4
??$?0U?$pair@$$CBKK@_STL@@@?$allocator@U?$_Rb_tree_node@U?$pair@$$CBKK@_STL@@@_STL@@@_STL@@QAE@ABV?$allocator@U?$pair@$$CBKK@_STL@@@1@@Z ENDP ; _STL::allocator<_STL::_Rb_tree_node<_STL::pair<unsigned long const ,unsigned long> > >::allocator<_STL::_Rb_tree_node<_STL::pair<unsigned long const ,unsigned long> > ><_STL::pair<unsigned long const ,unsigned long> >
_TEXT	ENDS
PUBLIC	?_S_right@?$_Rb_tree@KU?$pair@$$CBKK@_STL@@U?$_Select1st@U?$pair@$$CBKK@_STL@@@2@U?$less@K@2@V?$allocator@U?$pair@$$CBKK@_STL@@@2@@_STL@@KAAAPAU?$_Rb_tree_node@U?$pair@$$CBKK@_STL@@@2@PAU_Rb_tree_node_base@2@@Z ; _STL::_Rb_tree<unsigned long,_STL::pair<unsigned long const ,unsigned long>,_STL::_Select1st<_STL::pair<unsigned long const ,unsigned long> >,_STL::less<unsigned long>,_STL::allocator<_STL::pair<unsigned long const ,unsigned long> > >::_S_right
; Function compile flags: /Ogsy
; File c:\stlport-4.6.1\stlport\stl\_tree.h
;	COMDAT ?_S_right@?$_Rb_tree@KU?$pair@$$CBKK@_STL@@U?$_Select1st@U?$pair@$$CBKK@_STL@@@2@U?$less@K@2@V?$allocator@U?$pair@$$CBKK@_STL@@@2@@_STL@@KAAAPAU?$_Rb_tree_node@U?$pair@$$CBKK@_STL@@@2@PAU_Rb_tree_node_base@2@@Z
_TEXT	SEGMENT
___x$ = 8						; size = 4
?_S_right@?$_Rb_tree@KU?$pair@$$CBKK@_STL@@U?$_Select1st@U?$pair@$$CBKK@_STL@@@2@U?$less@K@2@V?$allocator@U?$pair@$$CBKK@_STL@@@2@@_STL@@KAAAPAU?$_Rb_tree_node@U?$pair@$$CBKK@_STL@@@2@PAU_Rb_tree_node_base@2@@Z PROC NEAR ; _STL::_Rb_tree<unsigned long,_STL::pair<unsigned long const ,unsigned long>,_STL::_Select1st<_STL::pair<unsigned long const ,unsigned long> >,_STL::less<unsigned long>,_STL::allocator<_STL::pair<unsigned long const ,unsigned long> > >::_S_right, COMDAT

; 287  :     { return (_Link_type&)(__x->_M_right); }

  00000	8b 44 24 04	 mov	 eax, DWORD PTR ___x$[esp-4]
  00004	83 c0 0c	 add	 eax, 12			; 0000000cH
  00007	c3		 ret	 0
?_S_right@?$_Rb_tree@KU?$pair@$$CBKK@_STL@@U?$_Select1st@U?$pair@$$CBKK@_STL@@@2@U?$less@K@2@V?$allocator@U?$pair@$$CBKK@_STL@@@2@@_STL@@KAAAPAU?$_Rb_tree_node@U?$pair@$$CBKK@_STL@@@2@PAU_Rb_tree_node_base@2@@Z ENDP ; _STL::_Rb_tree<unsigned long,_STL::pair<unsigned long const ,unsigned long>,_STL::_Select1st<_STL::pair<unsigned long const ,unsigned long> >,_STL::less<unsigned long>,_STL::allocator<_STL::pair<unsigned long const ,unsigned long> > >::_S_right
_TEXT	ENDS
PUBLIC	?_S_key@?$_Rb_tree@KU?$pair@$$CBKK@_STL@@U?$_Select1st@U?$pair@$$CBKK@_STL@@@2@U?$less@K@2@V?$allocator@U?$pair@$$CBKK@_STL@@@2@@_STL@@KAABKPAU_Rb_tree_node_base@2@@Z ; _STL::_Rb_tree<unsigned long,_STL::pair<unsigned long const ,unsigned long>,_STL::_Select1st<_STL::pair<unsigned long const ,unsigned long> >,_STL::less<unsigned long>,_STL::allocator<_STL::pair<unsigned long const ,unsigned long> > >::_S_key
; Function compile flags: /Ogsy
;	COMDAT ?_S_key@?$_Rb_tree@KU?$pair@$$CBKK@_STL@@U?$_Select1st@U?$pair@$$CBKK@_STL@@@2@U?$less@K@2@V?$allocator@U?$pair@$$CBKK@_STL@@@2@@_STL@@KAABKPAU_Rb_tree_node_base@2@@Z
_TEXT	SEGMENT
___x$ = 8						; size = 4
?_S_key@?$_Rb_tree@KU?$pair@$$CBKK@_STL@@U?$_Select1st@U?$pair@$$CBKK@_STL@@@2@U?$less@K@2@V?$allocator@U?$pair@$$CBKK@_STL@@@2@@_STL@@KAABKPAU_Rb_tree_node_base@2@@Z PROC NEAR ; _STL::_Rb_tree<unsigned long,_STL::pair<unsigned long const ,unsigned long>,_STL::_Select1st<_STL::pair<unsigned long const ,unsigned long> >,_STL::less<unsigned long>,_STL::allocator<_STL::pair<unsigned long const ,unsigned long> > >::_S_key, COMDAT

; 293  :     { return _KeyOfValue()(_S_value(_Link_type(__x)));} 

  00000	8b 44 24 04	 mov	 eax, DWORD PTR ___x$[esp-4]
  00004	83 c0 10	 add	 eax, 16			; 00000010H
  00007	c3		 ret	 0
?_S_key@?$_Rb_tree@KU?$pair@$$CBKK@_STL@@U?$_Select1st@U?$pair@$$CBKK@_STL@@@2@U?$less@K@2@V?$allocator@U?$pair@$$CBKK@_STL@@@2@@_STL@@KAABKPAU_Rb_tree_node_base@2@@Z ENDP ; _STL::_Rb_tree<unsigned long,_STL::pair<unsigned long const ,unsigned long>,_STL::_Select1st<_STL::pair<unsigned long const ,unsigned long> >,_STL::less<unsigned long>,_STL::allocator<_STL::pair<unsigned long const ,unsigned long> > >::_S_key
_TEXT	ENDS
PUBLIC	??E?$_Rb_tree_iterator@U?$pair@$$CBKK@_STL@@U?$_Nonconst_traits@U?$pair@$$CBKK@_STL@@@2@@_STL@@QAEAAU01@XZ ; _STL::_Rb_tree_iterator<_STL::pair<unsigned long const ,unsigned long>,_STL::_Nonconst_traits<_STL::pair<unsigned long const ,unsigned long> > >::operator++
; Function compile flags: /Ogsy
;	COMDAT ??E?$_Rb_tree_iterator@U?$pair@$$CBKK@_STL@@U?$_Nonconst_traits@U?$pair@$$CBKK@_STL@@@2@@_STL@@QAEAAU01@XZ
_TEXT	SEGMENT
??E?$_Rb_tree_iterator@U?$pair@$$CBKK@_STL@@U?$_Nonconst_traits@U?$pair@$$CBKK@_STL@@@2@@_STL@@QAEAAU01@XZ PROC NEAR ; _STL::_Rb_tree_iterator<_STL::pair<unsigned long const ,unsigned long>,_STL::_Nonconst_traits<_STL::pair<unsigned long const ,unsigned long> > >::operator++, COMDAT
; _this$ = ecx

; 174  :   _Self& operator++() { _M_node = _Rb_global_inst::_M_increment(_M_node); return *this; }

  00000	56		 push	 esi
  00001	8b f1		 mov	 esi, ecx
  00003	ff 36		 push	 DWORD PTR [esi]
  00005	e8 00 00 00 00	 call	 ?_M_increment@?$_Rb_global@_N@_STL@@SAPAU_Rb_tree_node_base@2@PAU32@@Z ; _STL::_Rb_global<bool>::_M_increment
  0000a	89 06		 mov	 DWORD PTR [esi], eax
  0000c	59		 pop	 ecx
  0000d	8b c6		 mov	 eax, esi
  0000f	5e		 pop	 esi
  00010	c3		 ret	 0
??E?$_Rb_tree_iterator@U?$pair@$$CBKK@_STL@@U?$_Nonconst_traits@U?$pair@$$CBKK@_STL@@@2@@_STL@@QAEAAU01@XZ ENDP ; _STL::_Rb_tree_iterator<_STL::pair<unsigned long const ,unsigned long>,_STL::_Nonconst_traits<_STL::pair<unsigned long const ,unsigned long> > >::operator++
_TEXT	ENDS
PUBLIC	??F?$_Rb_tree_iterator@U?$pair@$$CBKK@_STL@@U?$_Nonconst_traits@U?$pair@$$CBKK@_STL@@@2@@_STL@@QAEAAU01@XZ ; _STL::_Rb_tree_iterator<_STL::pair<unsigned long const ,unsigned long>,_STL::_Nonconst_traits<_STL::pair<unsigned long const ,unsigned long> > >::operator--
EXTRN	?_M_decrement@?$_Rb_global@_N@_STL@@SAPAU_Rb_tree_node_base@2@PAU32@@Z:NEAR ; _STL::_Rb_global<bool>::_M_decrement
; Function compile flags: /Ogsy
;	COMDAT ??F?$_Rb_tree_iterator@U?$pair@$$CBKK@_STL@@U?$_Nonconst_traits@U?$pair@$$CBKK@_STL@@@2@@_STL@@QAEAAU01@XZ
_TEXT	SEGMENT
??F?$_Rb_tree_iterator@U?$pair@$$CBKK@_STL@@U?$_Nonconst_traits@U?$pair@$$CBKK@_STL@@@2@@_STL@@QAEAAU01@XZ PROC NEAR ; _STL::_Rb_tree_iterator<_STL::pair<unsigned long const ,unsigned long>,_STL::_Nonconst_traits<_STL::pair<unsigned long const ,unsigned long> > >::operator--, COMDAT
; _this$ = ecx

; 181  :   _Self& operator--() { _M_node = _Rb_global_inst::_M_decrement(_M_node); return *this; }

  00000	56		 push	 esi
  00001	8b f1		 mov	 esi, ecx
  00003	ff 36		 push	 DWORD PTR [esi]
  00005	e8 00 00 00 00	 call	 ?_M_decrement@?$_Rb_global@_N@_STL@@SAPAU_Rb_tree_node_base@2@PAU32@@Z ; _STL::_Rb_global<bool>::_M_decrement
  0000a	89 06		 mov	 DWORD PTR [esi], eax
  0000c	59		 pop	 ecx
  0000d	8b c6		 mov	 eax, esi
  0000f	5e		 pop	 esi
  00010	c3		 ret	 0
??F?$_Rb_tree_iterator@U?$pair@$$CBKK@_STL@@U?$_Nonconst_traits@U?$pair@$$CBKK@_STL@@@2@@_STL@@QAEAAU01@XZ ENDP ; _STL::_Rb_tree_iterator<_STL::pair<unsigned long const ,unsigned long>,_STL::_Nonconst_traits<_STL::pair<unsigned long const ,unsigned long> > >::operator--
_TEXT	ENDS
PUBLIC	??$_Destroy@U?$pair@$$CBKK@_STL@@@_STL@@YAXPAU?$pair@$$CBKK@0@@Z ; _STL::_Destroy<_STL::pair<unsigned long const ,unsigned long> >
; Function compile flags: /Ogsy
; File c:\stlport-4.6.1\stlport\stl\_construct.h
;	COMDAT ??$_Destroy@U?$pair@$$CBKK@_STL@@@_STL@@YAXPAU?$pair@$$CBKK@0@@Z
_TEXT	SEGMENT
___pointer$ = 8						; size = 4
??$_Destroy@U?$pair@$$CBKK@_STL@@@_STL@@YAXPAU?$pair@$$CBKK@0@@Z PROC NEAR ; _STL::_Destroy<_STL::pair<unsigned long const ,unsigned long> >, COMDAT

; 57   : # if _MSC_VER >= 1010
; 58   :   __pointer;
; 59   : # endif	// _MSC_VER >= 1000
; 60   : # ifdef _STLP_TRIVIAL_DESTRUCTOR_BUG
; 61   :   typedef typename __type_traits<_Tp>::has_trivial_destructor _Trivial_destructor;
; 62   :   __destroy_aux(__pointer, _Trivial_destructor());
; 63   : # else
; 64   : #  if ( defined (__BORLANDC__) && ( __BORLANDC__ < 0x500 ) )
; 65   :     __pointer->_Tp::~_Tp();
; 66   : #  else
; 67   :     __pointer->~_Tp();
; 68   : #  endif
; 69   : # endif
; 70   : # ifdef _STLP_DEBUG_UNINITIALIZED
; 71   : 	memset((char*)__pointer, _STLP_SHRED_BYTE, sizeof(_Tp));
; 72   : # endif
; 73   : }

  00000	c3		 ret	 0
??$_Destroy@U?$pair@$$CBKK@_STL@@@_STL@@YAXPAU?$pair@$$CBKK@0@@Z ENDP ; _STL::_Destroy<_STL::pair<unsigned long const ,unsigned long> >
_TEXT	ENDS
PUBLIC	?_S_parent@?$_Rb_tree@KU?$pair@$$CBKK@_STL@@U?$_Select1st@U?$pair@$$CBKK@_STL@@@2@U?$less@K@2@V?$allocator@U?$pair@$$CBKK@_STL@@@2@@_STL@@KAAAPAU?$_Rb_tree_node@U?$pair@$$CBKK@_STL@@@2@PAU32@@Z ; _STL::_Rb_tree<unsigned long,_STL::pair<unsigned long const ,unsigned long>,_STL::_Select1st<_STL::pair<unsigned long const ,unsigned long> >,_STL::less<unsigned long>,_STL::allocator<_STL::pair<unsigned long const ,unsigned long> > >::_S_parent
; Function compile flags: /Ogsy
; File c:\stlport-4.6.1\stlport\stl\_tree.h
;	COMDAT ?_S_parent@?$_Rb_tree@KU?$pair@$$CBKK@_STL@@U?$_Select1st@U?$pair@$$CBKK@_STL@@@2@U?$less@K@2@V?$allocator@U?$pair@$$CBKK@_STL@@@2@@_STL@@KAAAPAU?$_Rb_tree_node@U?$pair@$$CBKK@_STL@@@2@PAU32@@Z
_TEXT	SEGMENT
___x$ = 8						; size = 4
?_S_parent@?$_Rb_tree@KU?$pair@$$CBKK@_STL@@U?$_Select1st@U?$pair@$$CBKK@_STL@@@2@U?$less@K@2@V?$allocator@U?$pair@$$CBKK@_STL@@@2@@_STL@@KAAAPAU?$_Rb_tree_node@U?$pair@$$CBKK@_STL@@@2@PAU32@@Z PROC NEAR ; _STL::_Rb_tree<unsigned long,_STL::pair<unsigned long const ,unsigned long>,_STL::_Select1st<_STL::pair<unsigned long const ,unsigned long> >,_STL::less<unsigned long>,_STL::allocator<_STL::pair<unsigned long const ,unsigned long> > >::_S_parent, COMDAT

; 276  :     { return (_Link_type&)(__x->_M_parent); }

  00000	8b 44 24 04	 mov	 eax, DWORD PTR ___x$[esp-4]
  00004	83 c0 04	 add	 eax, 4
  00007	c3		 ret	 0
?_S_parent@?$_Rb_tree@KU?$pair@$$CBKK@_STL@@U?$_Select1st@U?$pair@$$CBKK@_STL@@@2@U?$less@K@2@V?$allocator@U?$pair@$$CBKK@_STL@@@2@@_STL@@KAAAPAU?$_Rb_tree_node@U?$pair@$$CBKK@_STL@@@2@PAU32@@Z ENDP ; _STL::_Rb_tree<unsigned long,_STL::pair<unsigned long const ,unsigned long>,_STL::_Select1st<_STL::pair<unsigned long const ,unsigned long> >,_STL::less<unsigned long>,_STL::allocator<_STL::pair<unsigned long const ,unsigned long> > >::_S_parent
_TEXT	ENDS
PUBLIC	?begin@?$_Rb_tree@KU?$pair@$$CBKK@_STL@@U?$_Select1st@U?$pair@$$CBKK@_STL@@@2@U?$less@K@2@V?$allocator@U?$pair@$$CBKK@_STL@@@2@@_STL@@QAE?AU?$_Rb_tree_iterator@U?$pair@$$CBKK@_STL@@U?$_Nonconst_traits@U?$pair@$$CBKK@_STL@@@2@@2@XZ ; _STL::_Rb_tree<unsigned long,_STL::pair<unsigned long const ,unsigned long>,_STL::_Select1st<_STL::pair<unsigned long const ,unsigned long> >,_STL::less<unsigned long>,_STL::allocator<_STL::pair<unsigned long const ,unsigned long> > >::begin
; Function compile flags: /Ogsy
;	COMDAT ?begin@?$_Rb_tree@KU?$pair@$$CBKK@_STL@@U?$_Select1st@U?$pair@$$CBKK@_STL@@@2@U?$less@K@2@V?$allocator@U?$pair@$$CBKK@_STL@@@2@@_STL@@QAE?AU?$_Rb_tree_iterator@U?$pair@$$CBKK@_STL@@U?$_Nonconst_traits@U?$pair@$$CBKK@_STL@@@2@@2@XZ
_TEXT	SEGMENT
___$ReturnUdt$ = 8					; size = 4
?begin@?$_Rb_tree@KU?$pair@$$CBKK@_STL@@U?$_Select1st@U?$pair@$$CBKK@_STL@@@2@U?$less@K@2@V?$allocator@U?$pair@$$CBKK@_STL@@@2@@_STL@@QAE?AU?$_Rb_tree_iterator@U?$pair@$$CBKK@_STL@@U?$_Nonconst_traits@U?$pair@$$CBKK@_STL@@@2@@2@XZ PROC NEAR ; _STL::_Rb_tree<unsigned long,_STL::pair<unsigned long const ,unsigned long>,_STL::_Select1st<_STL::pair<unsigned long const ,unsigned long> >,_STL::less<unsigned long>,_STL::allocator<_STL::pair<unsigned long const ,unsigned long> > >::begin, COMDAT
; _this$ = ecx

; 357  :   iterator begin() { return iterator(_M_leftmost()); }

  00000	8b 01		 mov	 eax, DWORD PTR [ecx]
  00002	8b 48 08	 mov	 ecx, DWORD PTR [eax+8]
  00005	8b 44 24 04	 mov	 eax, DWORD PTR ___$ReturnUdt$[esp-4]
  00009	89 08		 mov	 DWORD PTR [eax], ecx
  0000b	c2 04 00	 ret	 4
?begin@?$_Rb_tree@KU?$pair@$$CBKK@_STL@@U?$_Select1st@U?$pair@$$CBKK@_STL@@@2@U?$less@K@2@V?$allocator@U?$pair@$$CBKK@_STL@@@2@@_STL@@QAE?AU?$_Rb_tree_iterator@U?$pair@$$CBKK@_STL@@U?$_Nonconst_traits@U?$pair@$$CBKK@_STL@@@2@@2@XZ ENDP ; _STL::_Rb_tree<unsigned long,_STL::pair<unsigned long const ,unsigned long>,_STL::_Select1st<_STL::pair<unsigned long const ,unsigned long> >,_STL::less<unsigned long>,_STL::allocator<_STL::pair<unsigned long const ,unsigned long> > >::begin
_TEXT	ENDS
PUBLIC	??0?$pair@U?$_Rb_tree_iterator@U?$pair@$$CBKK@_STL@@U?$_Nonconst_traits@U?$pair@$$CBKK@_STL@@@2@@_STL@@_N@_STL@@QAE@ABU?$_Rb_tree_iterator@U?$pair@$$CBKK@_STL@@U?$_Nonconst_traits@U?$pair@$$CBKK@_STL@@@2@@1@AB_N@Z ; _STL::pair<_STL::_Rb_tree_iterator<_STL::pair<unsigned long const ,unsigned long>,_STL::_Nonconst_traits<_STL::pair<unsigned long const ,unsigned long> > >,bool>::pair<_STL::_Rb_tree_iterator<_STL::pair<unsigned long const ,unsigned long>,_STL::_Nonconst_traits<_STL::pair<unsigned long const ,unsigned long> > >,bool>
; Function compile flags: /Ogsy
; File c:\stlport-4.6.1\stlport\stl\_pair.h
;	COMDAT ??0?$pair@U?$_Rb_tree_iterator@U?$pair@$$CBKK@_STL@@U?$_Nonconst_traits@U?$pair@$$CBKK@_STL@@@2@@_STL@@_N@_STL@@QAE@ABU?$_Rb_tree_iterator@U?$pair@$$CBKK@_STL@@U?$_Nonconst_traits@U?$pair@$$CBKK@_STL@@@2@@1@AB_N@Z
_TEXT	SEGMENT
___a$ = 8						; size = 4
___b$ = 12						; size = 4
??0?$pair@U?$_Rb_tree_iterator@U?$pair@$$CBKK@_STL@@U?$_Nonconst_traits@U?$pair@$$CBKK@_STL@@@2@@_STL@@_N@_STL@@QAE@ABU?$_Rb_tree_iterator@U?$pair@$$CBKK@_STL@@U?$_Nonconst_traits@U?$pair@$$CBKK@_STL@@@2@@1@AB_N@Z PROC NEAR ; _STL::pair<_STL::_Rb_tree_iterator<_STL::pair<unsigned long const ,unsigned long>,_STL::_Nonconst_traits<_STL::pair<unsigned long const ,unsigned long> > >,bool>::pair<_STL::_Rb_tree_iterator<_STL::pair<unsigned long const ,unsigned long>,_STL::_Nonconst_traits<_STL::pair<unsigned long const ,unsigned long> > >,bool>, COMDAT
; _this$ = ecx

; 48   :   pair(const _T1& __a, const _T2& __b) : first(__a), second(__b) {}

  00000	8b c1		 mov	 eax, ecx
  00002	8b 4c 24 04	 mov	 ecx, DWORD PTR ___a$[esp-4]
  00006	8b 09		 mov	 ecx, DWORD PTR [ecx]
  00008	89 08		 mov	 DWORD PTR [eax], ecx
  0000a	8b 4c 24 08	 mov	 ecx, DWORD PTR ___b$[esp-4]
  0000e	8a 09		 mov	 cl, BYTE PTR [ecx]
  00010	88 48 04	 mov	 BYTE PTR [eax+4], cl
  00013	c2 08 00	 ret	 8
??0?$pair@U?$_Rb_tree_iterator@U?$pair@$$CBKK@_STL@@U?$_Nonconst_traits@U?$pair@$$CBKK@_STL@@@2@@_STL@@_N@_STL@@QAE@ABU?$_Rb_tree_iterator@U?$pair@$$CBKK@_STL@@U?$_Nonconst_traits@U?$pair@$$CBKK@_STL@@@2@@1@AB_N@Z ENDP ; _STL::pair<_STL::_Rb_tree_iterator<_STL::pair<unsigned long const ,unsigned long>,_STL::_Nonconst_traits<_STL::pair<unsigned long const ,unsigned long> > >,bool>::pair<_STL::_Rb_tree_iterator<_STL::pair<unsigned long const ,unsigned long>,_STL::_Nonconst_traits<_STL::pair<unsigned long const ,unsigned long> > >,bool>
_TEXT	ENDS
PUBLIC	?max_size@?$_String_base@DV?$allocator@D@_STL@@@_STL@@QBEIXZ ; _STL::_String_base<char,_STL::allocator<char> >::max_size
; Function compile flags: /Ogsy
; File c:\stlport-4.6.1\stlport\stl\_string.h
;	COMDAT ?max_size@?$_String_base@DV?$allocator@D@_STL@@@_STL@@QBEIXZ
_TEXT	SEGMENT
?max_size@?$_String_base@DV?$allocator@D@_STL@@@_STL@@QBEIXZ PROC NEAR ; _STL::_String_base<char,_STL::allocator<char> >::max_size, COMDAT
; _this$ = ecx

; 126  :   size_t max_size() const { return (size_t(-1) / sizeof(_Tp)) - 1; }

  00000	6a fe		 push	 -2			; fffffffeH
  00002	58		 pop	 eax
  00003	c3		 ret	 0
?max_size@?$_String_base@DV?$allocator@D@_STL@@@_STL@@QBEIXZ ENDP ; _STL::_String_base<char,_STL::allocator<char> >::max_size
_TEXT	ENDS
PUBLIC	??0?$pair@$$CBKK@_STL@@QAE@ABU01@@Z		; _STL::pair<unsigned long const ,unsigned long>::pair<unsigned long const ,unsigned long>
; Function compile flags: /Ogsy
; File c:\stlport-4.6.1\stlport\stl\_pair.h
;	COMDAT ??0?$pair@$$CBKK@_STL@@QAE@ABU01@@Z
_TEXT	SEGMENT
___o$ = 8						; size = 4
??0?$pair@$$CBKK@_STL@@QAE@ABU01@@Z PROC NEAR		; _STL::pair<unsigned long const ,unsigned long>::pair<unsigned long const ,unsigned long>, COMDAT
; _this$ = ecx

; 54   :   pair(const pair<_T1,_T2>& __o) : first(__o.first), second(__o.second) {}

  00000	8b c1		 mov	 eax, ecx
  00002	8b 4c 24 04	 mov	 ecx, DWORD PTR ___o$[esp-4]
  00006	8b 11		 mov	 edx, DWORD PTR [ecx]
  00008	89 10		 mov	 DWORD PTR [eax], edx
  0000a	8b 49 04	 mov	 ecx, DWORD PTR [ecx+4]
  0000d	89 48 04	 mov	 DWORD PTR [eax+4], ecx
  00010	c2 04 00	 ret	 4
??0?$pair@$$CBKK@_STL@@QAE@ABU01@@Z ENDP		; _STL::pair<unsigned long const ,unsigned long>::pair<unsigned long const ,unsigned long>
_TEXT	ENDS
PUBLIC	??$__distance@PBD@_STL@@YAHABQBD0ABUrandom_access_iterator_tag@0@@Z ; _STL::__distance<char const *>
; Function compile flags: /Ogsy
; File c:\stlport-4.6.1\stlport\stl\_iterator_base.h
;	COMDAT ??$__distance@PBD@_STL@@YAHABQBD0ABUrandom_access_iterator_tag@0@@Z
_TEXT	SEGMENT
___first$ = 8						; size = 4
___last$ = 12						; size = 4
___formal$ = 16						; size = 4
??$__distance@PBD@_STL@@YAHABQBD0ABUrandom_access_iterator_tag@0@@Z PROC NEAR ; _STL::__distance<char const *>, COMDAT

; 363  :   return __last - __first;

  00000	8b 44 24 08	 mov	 eax, DWORD PTR ___last$[esp-4]
  00004	8b 00		 mov	 eax, DWORD PTR [eax]
  00006	8b 4c 24 04	 mov	 ecx, DWORD PTR ___first$[esp-4]
  0000a	2b 01		 sub	 eax, DWORD PTR [ecx]

; 364  : }

  0000c	c3		 ret	 0
??$__distance@PBD@_STL@@YAHABQBD0ABUrandom_access_iterator_tag@0@@Z ENDP ; _STL::__distance<char const *>
_TEXT	ENDS
PUBLIC	??_C@_0N@GOPDCEEB@basic_string?$AA@		; `string'
PUBLIC	?_M_throw_length_error@?$_String_base@DV?$allocator@D@_STL@@@_STL@@QBEXXZ ; _STL::_String_base<char,_STL::allocator<char> >::_M_throw_length_error
EXTRN	?__stl_throw_length_error@_STL@@YAXPBD@Z:NEAR	; _STL::__stl_throw_length_error
;	COMDAT ??_C@_0N@GOPDCEEB@basic_string?$AA@
; File c:\stlport-4.6.1\stlport\stl\_string.c
CONST	SEGMENT
??_C@_0N@GOPDCEEB@basic_string?$AA@ DB 'basic_string', 00H ; `string'
; Function compile flags: /Ogsy
CONST	ENDS
;	COMDAT ?_M_throw_length_error@?$_String_base@DV?$allocator@D@_STL@@@_STL@@QBEXXZ
_TEXT	SEGMENT
?_M_throw_length_error@?$_String_base@DV?$allocator@D@_STL@@@_STL@@QBEXXZ PROC NEAR ; _STL::_String_base<char,_STL::allocator<char> >::_M_throw_length_error, COMDAT
; _this$ = ecx

; 523  :     __stl_throw_length_error("basic_string");

  00000	68 00 00 00 00	 push	 OFFSET FLAT:??_C@_0N@GOPDCEEB@basic_string?$AA@
  00005	e8 00 00 00 00	 call	 ?__stl_throw_length_error@_STL@@YAXPBD@Z ; _STL::__stl_throw_length_error
  0000a	59		 pop	 ecx

; 524  : }

  0000b	c3		 ret	 0
?_M_throw_length_error@?$_String_base@DV?$allocator@D@_STL@@@_STL@@QBEXXZ ENDP ; _STL::_String_base<char,_STL::allocator<char> >::_M_throw_length_error
_TEXT	ENDS
PUBLIC	??$__distance@PAD@_STL@@YAHABQAD0ABUrandom_access_iterator_tag@0@@Z ; _STL::__distance<char *>
; Function compile flags: /Ogsy
; File c:\stlport-4.6.1\stlport\stl\_iterator_base.h
;	COMDAT ??$__distance@PAD@_STL@@YAHABQAD0ABUrandom_access_iterator_tag@0@@Z
_TEXT	SEGMENT
___first$ = 8						; size = 4
___last$ = 12						; size = 4
___formal$ = 16						; size = 4
??$__distance@PAD@_STL@@YAHABQAD0ABUrandom_access_iterator_tag@0@@Z PROC NEAR ; _STL::__distance<char *>, COMDAT

; 363  :   return __last - __first;

  00000	8b 44 24 08	 mov	 eax, DWORD PTR ___last$[esp-4]
  00004	8b 00		 mov	 eax, DWORD PTR [eax]
  00006	8b 4c 24 04	 mov	 ecx, DWORD PTR ___first$[esp-4]
  0000a	2b 01		 sub	 eax, DWORD PTR [ecx]

; 364  : }

  0000c	c3		 ret	 0
??$__distance@PAD@_STL@@YAHABQAD0ABUrandom_access_iterator_tag@0@@Z ENDP ; _STL::__distance<char *>
_TEXT	ENDS
PUBLIC	?_Ret@?$_BothPtrType@PADPAD@_STL@@SA?AU__true_type@2@XZ ; _STL::_BothPtrType<char *,char *>::_Ret
; Function compile flags: /Ogsy
; File c:\stlport-4.6.1\stlport\stl\type_traits.h
;	COMDAT ?_Ret@?$_BothPtrType@PADPAD@_STL@@SA?AU__true_type@2@XZ
_TEXT	SEGMENT
$T102722 = -1						; size = 1
?_Ret@?$_BothPtrType@PADPAD@_STL@@SA?AU__true_type@2@XZ PROC NEAR ; _STL::_BothPtrType<char *,char *>::_Ret, COMDAT

; 234  :   static __true_type _Ret() { return __true_type();} 

  00000	55		 push	 ebp
  00001	8b ec		 mov	 ebp, esp
  00003	51		 push	 ecx
  00004	57		 push	 edi
  00005	33 c0		 xor	 eax, eax
  00007	8d 7d ff	 lea	 edi, DWORD PTR $T102722[ebp]
  0000a	aa		 stosb
  0000b	8a 45 ff	 mov	 al, BYTE PTR $T102722[ebp]
  0000e	5f		 pop	 edi
  0000f	c9		 leave
  00010	c3		 ret	 0
?_Ret@?$_BothPtrType@PADPAD@_STL@@SA?AU__true_type@2@XZ ENDP ; _STL::_BothPtrType<char *,char *>::_Ret
_TEXT	ENDS
PUBLIC	?_Ret@?$_OKToMemCpy@DD@_STL@@SA?AU__true_type@2@XZ ; _STL::_OKToMemCpy<char,char>::_Ret
; Function compile flags: /Ogsy
;	COMDAT ?_Ret@?$_OKToMemCpy@DD@_STL@@SA?AU__true_type@2@XZ
_TEXT	SEGMENT
$T102725 = -1						; size = 1
?_Ret@?$_OKToMemCpy@DD@_STL@@SA?AU__true_type@2@XZ PROC NEAR ; _STL::_OKToMemCpy<char,char>::_Ret, COMDAT

; 361  :   static _Type _Ret() { return _Type(); }

  00000	55		 push	 ebp
  00001	8b ec		 mov	 ebp, esp
  00003	51		 push	 ecx
  00004	57		 push	 edi
  00005	33 c0		 xor	 eax, eax
  00007	8d 7d ff	 lea	 edi, DWORD PTR $T102725[ebp]
  0000a	aa		 stosb
  0000b	8a 45 ff	 mov	 al, BYTE PTR $T102725[ebp]
  0000e	5f		 pop	 edi
  0000f	c9		 leave
  00010	c3		 ret	 0
?_Ret@?$_OKToMemCpy@DD@_STL@@SA?AU__true_type@2@XZ ENDP	; _STL::_OKToMemCpy<char,char>::_Ret
_TEXT	ENDS
PUBLIC	??$_IsOKToMemCpy@DD@_STL@@YA?AU?$_OKToMemCpy@DD@0@PAD0@Z ; _STL::_IsOKToMemCpy<char,char>
; Function compile flags: /Ogsy
;	COMDAT ??$_IsOKToMemCpy@DD@_STL@@YA?AU?$_OKToMemCpy@DD@0@PAD0@Z
_TEXT	SEGMENT
$T102728 = -1						; size = 1
___formal$ = 8						; size = 4
___formal$ = 12						; size = 4
??$_IsOKToMemCpy@DD@_STL@@YA?AU?$_OKToMemCpy@DD@0@PAD0@Z PROC NEAR ; _STL::_IsOKToMemCpy<char,char>, COMDAT

; 365  : inline _OKToMemCpy<_Tp1, _Tp2> _IsOKToMemCpy(_Tp1*, _Tp2*)  {

  00000	55		 push	 ebp
  00001	8b ec		 mov	 ebp, esp
  00003	51		 push	 ecx
  00004	57		 push	 edi

; 366  :   return _OKToMemCpy<_Tp1, _Tp2>();

  00005	33 c0		 xor	 eax, eax
  00007	8d 7d ff	 lea	 edi, DWORD PTR $T102728[ebp]
  0000a	aa		 stosb
  0000b	8a 45 ff	 mov	 al, BYTE PTR $T102728[ebp]
  0000e	5f		 pop	 edi

; 367  : }

  0000f	c9		 leave
  00010	c3		 ret	 0
??$_IsOKToMemCpy@DD@_STL@@YA?AU?$_OKToMemCpy@DD@0@PAD0@Z ENDP ; _STL::_IsOKToMemCpy<char,char>
_TEXT	ENDS
PUBLIC	??$__copy_ptrs@PADPAD@_STL@@YAPADPAD00ABU__true_type@0@@Z ; _STL::__copy_ptrs<char *,char *>
; Function compile flags: /Ogsy
; File c:\stlport-4.6.1\stlport\stl\_algobase.h
;	COMDAT ??$__copy_ptrs@PADPAD@_STL@@YAPADPAD00ABU__true_type@0@@Z
_TEXT	SEGMENT
___first$ = 8						; size = 4
___last$ = 12						; size = 4
___result$ = 16						; size = 4
___formal$ = 20						; size = 4
??$__copy_ptrs@PADPAD@_STL@@YAPADPAD00ABU__true_type@0@@Z PROC NEAR ; _STL::__copy_ptrs<char *,char *>, COMDAT

; 195  : // we know they all pointers, so this cast is OK 
; 196  :   //  return (_OutputIter)__copy_trivial(&(*__first), &(*__last), &(*__result));
; 197  :   return (_OutputIter)__copy_trivial(__first, __last, __result);

  00000	ff 74 24 0c	 push	 DWORD PTR ___result$[esp-4]
  00004	ff 74 24 0c	 push	 DWORD PTR ___last$[esp]
  00008	ff 74 24 0c	 push	 DWORD PTR ___first$[esp+4]
  0000c	e8 00 00 00 00	 call	 ?__copy_trivial@_STL@@YAPAXPBX0PAX@Z ; _STL::__copy_trivial
  00011	83 c4 0c	 add	 esp, 12			; 0000000cH

; 198  : }

  00014	c3		 ret	 0
??$__copy_ptrs@PADPAD@_STL@@YAPADPAD00ABU__true_type@0@@Z ENDP ; _STL::__copy_ptrs<char *,char *>
_TEXT	ENDS
PUBLIC	??8_Rb_tree_base_iterator@_STL@@QBE_NABU01@@Z	; _STL::_Rb_tree_base_iterator::operator==
; Function compile flags: /Ogsy
; File c:\stlport-4.6.1\stlport\stl\_tree.h
;	COMDAT ??8_Rb_tree_base_iterator@_STL@@QBE_NABU01@@Z
_TEXT	SEGMENT
___y$ = 8						; size = 4
??8_Rb_tree_base_iterator@_STL@@QBE_NABU01@@Z PROC NEAR	; _STL::_Rb_tree_base_iterator::operator==, COMDAT
; _this$ = ecx

; 147  :     return _M_node == __y._M_node;

  00000	8b 01		 mov	 eax, DWORD PTR [ecx]
  00002	8b 4c 24 04	 mov	 ecx, DWORD PTR ___y$[esp-4]
  00006	2b 01		 sub	 eax, DWORD PTR [ecx]
  00008	f7 d8		 neg	 eax
  0000a	1b c0		 sbb	 eax, eax
  0000c	40		 inc	 eax

; 148  :   }

  0000d	c2 04 00	 ret	 4
??8_Rb_tree_base_iterator@_STL@@QBE_NABU01@@Z ENDP	; _STL::_Rb_tree_base_iterator::operator==
_TEXT	ENDS
PUBLIC	??9_Rb_tree_base_iterator@_STL@@QBE_NABU01@@Z	; _STL::_Rb_tree_base_iterator::operator!=
; Function compile flags: /Ogsy
;	COMDAT ??9_Rb_tree_base_iterator@_STL@@QBE_NABU01@@Z
_TEXT	SEGMENT
___y$ = 8						; size = 4
??9_Rb_tree_base_iterator@_STL@@QBE_NABU01@@Z PROC NEAR	; _STL::_Rb_tree_base_iterator::operator!=, COMDAT
; _this$ = ecx

; 150  :     return _M_node != __y._M_node;

  00000	8b 01		 mov	 eax, DWORD PTR [ecx]
  00002	8b 54 24 04	 mov	 edx, DWORD PTR ___y$[esp-4]
  00006	33 c9		 xor	 ecx, ecx
  00008	3b 02		 cmp	 eax, DWORD PTR [edx]
  0000a	0f 95 c1	 setne	 cl
  0000d	8a c1		 mov	 al, cl

; 151  :   }

  0000f	c2 04 00	 ret	 4
??9_Rb_tree_base_iterator@_STL@@QBE_NABU01@@Z ENDP	; _STL::_Rb_tree_base_iterator::operator!=
_TEXT	ENDS
PUBLIC	??0?$allocator@D@_STL@@QAE@XZ			; _STL::allocator<char>::allocator<char>
; Function compile flags: /Ogsy
; File c:\stlport-4.6.1\stlport\stl\_alloc.h
;	COMDAT ??0?$allocator@D@_STL@@QAE@XZ
_TEXT	SEGMENT
??0?$allocator@D@_STL@@QAE@XZ PROC NEAR			; _STL::allocator<char>::allocator<char>, COMDAT
; _this$ = ecx

; 345  :   allocator() _STLP_NOTHROW {}

  00000	8b c1		 mov	 eax, ecx
  00002	c3		 ret	 0
??0?$allocator@D@_STL@@QAE@XZ ENDP			; _STL::allocator<char>::allocator<char>
_TEXT	ENDS
PUBLIC	??1?$allocator@D@_STL@@QAE@XZ			; _STL::allocator<char>::~allocator<char>
; Function compile flags: /Ogsy
;	COMDAT ??1?$allocator@D@_STL@@QAE@XZ
_TEXT	SEGMENT
??1?$allocator@D@_STL@@QAE@XZ PROC NEAR			; _STL::allocator<char>::~allocator<char>, COMDAT
; _this$ = ecx

; 350  :   ~allocator() _STLP_NOTHROW {}

  00000	c3		 ret	 0
??1?$allocator@D@_STL@@QAE@XZ ENDP			; _STL::allocator<char>::~allocator<char>
_TEXT	ENDS
PUBLIC	??0?$allocator@V?$basic_string@DV?$char_traits@D@_STL@@V?$allocator@D@2@@_STL@@@_STL@@QAE@XZ ; _STL::allocator<_STL::basic_string<char,_STL::char_traits<char>,_STL::allocator<char> > >::allocator<_STL::basic_string<char,_STL::char_traits<char>,_STL::allocator<char> > >
; Function compile flags: /Ogsy
;	COMDAT ??0?$allocator@V?$basic_string@DV?$char_traits@D@_STL@@V?$allocator@D@2@@_STL@@@_STL@@QAE@XZ
_TEXT	SEGMENT
??0?$allocator@V?$basic_string@DV?$char_traits@D@_STL@@V?$allocator@D@2@@_STL@@@_STL@@QAE@XZ PROC NEAR ; _STL::allocator<_STL::basic_string<char,_STL::char_traits<char>,_STL::allocator<char> > >::allocator<_STL::basic_string<char,_STL::char_traits<char>,_STL::allocator<char> > >, COMDAT
; _this$ = ecx

; 345  :   allocator() _STLP_NOTHROW {}

  00000	8b c1		 mov	 eax, ecx
  00002	c3		 ret	 0
??0?$allocator@V?$basic_string@DV?$char_traits@D@_STL@@V?$allocator@D@2@@_STL@@@_STL@@QAE@XZ ENDP ; _STL::allocator<_STL::basic_string<char,_STL::char_traits<char>,_STL::allocator<char> > >::allocator<_STL::basic_string<char,_STL::char_traits<char>,_STL::allocator<char> > >
_TEXT	ENDS
PUBLIC	??1?$allocator@V?$basic_string@DV?$char_traits@D@_STL@@V?$allocator@D@2@@_STL@@@_STL@@QAE@XZ ; _STL::allocator<_STL::basic_string<char,_STL::char_traits<char>,_STL::allocator<char> > >::~allocator<_STL::basic_string<char,_STL::char_traits<char>,_STL::allocator<char> > >
; Function compile flags: /Ogsy
;	COMDAT ??1?$allocator@V?$basic_string@DV?$char_traits@D@_STL@@V?$allocator@D@2@@_STL@@@_STL@@QAE@XZ
_TEXT	SEGMENT
??1?$allocator@V?$basic_string@DV?$char_traits@D@_STL@@V?$allocator@D@2@@_STL@@@_STL@@QAE@XZ PROC NEAR ; _STL::allocator<_STL::basic_string<char,_STL::char_traits<char>,_STL::allocator<char> > >::~allocator<_STL::basic_string<char,_STL::char_traits<char>,_STL::allocator<char> > >, COMDAT
; _this$ = ecx

; 350  :   ~allocator() _STLP_NOTHROW {}

  00000	c3		 ret	 0
??1?$allocator@V?$basic_string@DV?$char_traits@D@_STL@@V?$allocator@D@2@@_STL@@@_STL@@QAE@XZ ENDP ; _STL::allocator<_STL::basic_string<char,_STL::char_traits<char>,_STL::allocator<char> > >::~allocator<_STL::basic_string<char,_STL::char_traits<char>,_STL::allocator<char> > >
_TEXT	ENDS
PUBLIC	??1?$_STLP_alloc_proxy@PADDV?$allocator@D@_STL@@@_STL@@QAE@XZ ; _STL::_STLP_alloc_proxy<char *,char,_STL::allocator<char> >::~_STLP_alloc_proxy<char *,char,_STL::allocator<char> >
; Function compile flags: /Ogsy
;	COMDAT ??1?$_STLP_alloc_proxy@PADDV?$allocator@D@_STL@@@_STL@@QAE@XZ
_TEXT	SEGMENT
??1?$_STLP_alloc_proxy@PADDV?$allocator@D@_STL@@@_STL@@QAE@XZ PROC NEAR ; _STL::_STLP_alloc_proxy<char *,char,_STL::allocator<char> >::~_STLP_alloc_proxy<char *,char,_STL::allocator<char> >, COMDAT
; _this$ = ecx
  00000	c3		 ret	 0
??1?$_STLP_alloc_proxy@PADDV?$allocator@D@_STL@@@_STL@@QAE@XZ ENDP ; _STL::_STLP_alloc_proxy<char *,char,_STL::allocator<char> >::~_STLP_alloc_proxy<char *,char,_STL::allocator<char> >
_TEXT	ENDS
PUBLIC	??1?$allocator@U?$_List_node@V?$basic_string@DV?$char_traits@D@_STL@@V?$allocator@D@2@@_STL@@@_STL@@@_STL@@QAE@XZ ; _STL::allocator<_STL::_List_node<_STL::basic_string<char,_STL::char_traits<char>,_STL::allocator<char> > > >::~allocator<_STL::_List_node<_STL::basic_string<char,_STL::char_traits<char>,_STL::allocator<char> > > >
; Function compile flags: /Ogsy
;	COMDAT ??1?$allocator@U?$_List_node@V?$basic_string@DV?$char_traits@D@_STL@@V?$allocator@D@2@@_STL@@@_STL@@@_STL@@QAE@XZ
_TEXT	SEGMENT
??1?$allocator@U?$_List_node@V?$basic_string@DV?$char_traits@D@_STL@@V?$allocator@D@2@@_STL@@@_STL@@@_STL@@QAE@XZ PROC NEAR ; _STL::allocator<_STL::_List_node<_STL::basic_string<char,_STL::char_traits<char>,_STL::allocator<char> > > >::~allocator<_STL::_List_node<_STL::basic_string<char,_STL::char_traits<char>,_STL::allocator<char> > > >, COMDAT
; _this$ = ecx

; 350  :   ~allocator() _STLP_NOTHROW {}

  00000	c3		 ret	 0
??1?$allocator@U?$_List_node@V?$basic_string@DV?$char_traits@D@_STL@@V?$allocator@D@2@@_STL@@@_STL@@@_STL@@QAE@XZ ENDP ; _STL::allocator<_STL::_List_node<_STL::basic_string<char,_STL::char_traits<char>,_STL::allocator<char> > > >::~allocator<_STL::_List_node<_STL::basic_string<char,_STL::char_traits<char>,_STL::allocator<char> > > >
_TEXT	ENDS
PUBLIC	??0?$allocator@U?$_List_node@V?$basic_string@DV?$char_traits@D@_STL@@V?$allocator@D@2@@_STL@@@_STL@@@_STL@@QAE@ABV01@@Z ; _STL::allocator<_STL::_List_node<_STL::basic_string<char,_STL::char_traits<char>,_STL::allocator<char> > > >::allocator<_STL::_List_node<_STL::basic_string<char,_STL::char_traits<char>,_STL::allocator<char> > > >
; Function compile flags: /Ogsy
;	COMDAT ??0?$allocator@U?$_List_node@V?$basic_string@DV?$char_traits@D@_STL@@V?$allocator@D@2@@_STL@@@_STL@@@_STL@@QAE@ABV01@@Z
_TEXT	SEGMENT
___formal$ = 8						; size = 4
??0?$allocator@U?$_List_node@V?$basic_string@DV?$char_traits@D@_STL@@V?$allocator@D@2@@_STL@@@_STL@@@_STL@@QAE@ABV01@@Z PROC NEAR ; _STL::allocator<_STL::_List_node<_STL::basic_string<char,_STL::char_traits<char>,_STL::allocator<char> > > >::allocator<_STL::_List_node<_STL::basic_string<char,_STL::char_traits<char>,_STL::allocator<char> > > >, COMDAT
; _this$ = ecx

; 349  :   allocator(const allocator<_Tp>&) _STLP_NOTHROW {}

  00000	8b c1		 mov	 eax, ecx
  00002	c2 04 00	 ret	 4
??0?$allocator@U?$_List_node@V?$basic_string@DV?$char_traits@D@_STL@@V?$allocator@D@2@@_STL@@@_STL@@@_STL@@QAE@ABV01@@Z ENDP ; _STL::allocator<_STL::_List_node<_STL::basic_string<char,_STL::char_traits<char>,_STL::allocator<char> > > >::allocator<_STL::_List_node<_STL::basic_string<char,_STL::char_traits<char>,_STL::allocator<char> > > >
_TEXT	ENDS
PUBLIC	?allocate@?$__node_alloc@$00$0A@@_STL@@SAPAXI@Z	; _STL::__node_alloc<1,0>::allocate
EXTRN	?_M_allocate@?$__node_alloc@$00$0A@@_STL@@CAPAXI@Z:NEAR ; _STL::__node_alloc<1,0>::_M_allocate
; Function compile flags: /Ogsy
;	COMDAT ?allocate@?$__node_alloc@$00$0A@@_STL@@SAPAXI@Z
_TEXT	SEGMENT
___n$ = 8						; size = 4
?allocate@?$__node_alloc@$00$0A@@_STL@@SAPAXI@Z PROC NEAR ; _STL::__node_alloc<1,0>::allocate, COMDAT

; 251  :   static void * _STLP_CALL allocate(size_t __n) { return (__n > (size_t)_MAX_BYTES) ?  __stl_new(__n) : _M_allocate(__n); }

  00000	8b 44 24 04	 mov	 eax, DWORD PTR ___n$[esp-4]
  00004	3d 80 00 00 00	 cmp	 eax, 128		; 00000080H
  00009	50		 push	 eax
  0000a	76 07		 jbe	 SHORT $L102764
  0000c	e8 00 00 00 00	 call	 ??2@YAPAXI@Z		; operator new
  00011	59		 pop	 ecx
  00012	c3		 ret	 0
$L102764:
  00013	e8 00 00 00 00	 call	 ?_M_allocate@?$__node_alloc@$00$0A@@_STL@@CAPAXI@Z ; _STL::__node_alloc<1,0>::_M_allocate
  00018	59		 pop	 ecx
  00019	c3		 ret	 0
?allocate@?$__node_alloc@$00$0A@@_STL@@SAPAXI@Z ENDP	; _STL::__node_alloc<1,0>::allocate
_TEXT	ENDS
PUBLIC	?deallocate@?$__node_alloc@$00$0A@@_STL@@SAXPAXI@Z ; _STL::__node_alloc<1,0>::deallocate
EXTRN	?_M_deallocate@?$__node_alloc@$00$0A@@_STL@@CAXPAXI@Z:NEAR ; _STL::__node_alloc<1,0>::_M_deallocate
; Function compile flags: /Ogsy
;	COMDAT ?deallocate@?$__node_alloc@$00$0A@@_STL@@SAXPAXI@Z
_TEXT	SEGMENT
___p$ = 8						; size = 4
___n$ = 12						; size = 4
?deallocate@?$__node_alloc@$00$0A@@_STL@@SAXPAXI@Z PROC NEAR ; _STL::__node_alloc<1,0>::deallocate, COMDAT

; 253  :   static void _STLP_CALL deallocate(void *__p, size_t __n) { if (__n > (size_t)_MAX_BYTES) __stl_delete(__p); else _M_deallocate(__p, __n); }

  00000	81 7c 24 08 80
	00 00 00	 cmp	 DWORD PTR ___n$[esp-4], 128 ; 00000080H
  00008	76 0b		 jbe	 SHORT $L98677
  0000a	ff 74 24 04	 push	 DWORD PTR ___p$[esp-4]
  0000e	e8 00 00 00 00	 call	 ??3@YAXPAX@Z		; operator delete
  00013	59		 pop	 ecx
  00014	c3		 ret	 0
$L98677:
  00015	e9 00 00 00 00	 jmp	 ?_M_deallocate@?$__node_alloc@$00$0A@@_STL@@CAXPAXI@Z ; _STL::__node_alloc<1,0>::_M_deallocate
?deallocate@?$__node_alloc@$00$0A@@_STL@@SAXPAXI@Z ENDP	; _STL::__node_alloc<1,0>::deallocate
_TEXT	ENDS
PUBLIC	??$?0V?$basic_string@DV?$char_traits@D@_STL@@V?$allocator@D@2@@_STL@@@?$allocator@U?$_List_node@V?$basic_string@DV?$char_traits@D@_STL@@V?$allocator@D@2@@_STL@@@_STL@@@_STL@@QAE@ABV?$allocator@V?$basic_string@DV?$char_traits@D@_STL@@V?$allocator@D@2@@_STL@@@1@@Z ; _STL::allocator<_STL::_List_node<_STL::basic_string<char,_STL::char_traits<char>,_STL::allocator<char> > > >::allocator<_STL::_List_node<_STL::basic_string<char,_STL::char_traits<char>,_STL::allocator<char> > > ><_STL::basic_string<char,_STL::char_traits<char>,_STL::allocator<char> > >
; Function compile flags: /Ogsy
;	COMDAT ??$?0V?$basic_string@DV?$char_traits@D@_STL@@V?$allocator@D@2@@_STL@@@?$allocator@U?$_List_node@V?$basic_string@DV?$char_traits@D@_STL@@V?$allocator@D@2@@_STL@@@_STL@@@_STL@@QAE@ABV?$allocator@V?$basic_string@DV?$char_traits@D@_STL@@V?$allocator@D@2@@_STL@@@1@@Z
_TEXT	SEGMENT
___formal$ = 8						; size = 4
??$?0V?$basic_string@DV?$char_traits@D@_STL@@V?$allocator@D@2@@_STL@@@?$allocator@U?$_List_node@V?$basic_string@DV?$char_traits@D@_STL@@V?$allocator@D@2@@_STL@@@_STL@@@_STL@@QAE@ABV?$allocator@V?$basic_string@DV?$char_traits@D@_STL@@V?$allocator@D@2@@_STL@@@1@@Z PROC NEAR ; _STL::allocator<_STL::_List_node<_STL::basic_string<char,_STL::char_traits<char>,_STL::allocator<char> > > >::allocator<_STL::_List_node<_STL::basic_string<char,_STL::char_traits<char>,_STL::allocator<char> > > ><_STL::basic_string<char,_STL::char_traits<char>,_STL::allocator<char> > >, COMDAT
; _this$ = ecx

; 347  :   template <class _Tp1> allocator(const allocator<_Tp1>&) _STLP_NOTHROW {}

  00000	8b c1		 mov	 eax, ecx
  00002	c2 04 00	 ret	 4
??$?0V?$basic_string@DV?$char_traits@D@_STL@@V?$allocator@D@2@@_STL@@@?$allocator@U?$_List_node@V?$basic_string@DV?$char_traits@D@_STL@@V?$allocator@D@2@@_STL@@@_STL@@@_STL@@QAE@ABV?$allocator@V?$basic_string@DV?$char_traits@D@_STL@@V?$allocator@D@2@@_STL@@@1@@Z ENDP ; _STL::allocator<_STL::_List_node<_STL::basic_string<char,_STL::char_traits<char>,_STL::allocator<char> > > >::allocator<_STL::_List_node<_STL::basic_string<char,_STL::char_traits<char>,_STL::allocator<char> > > ><_STL::basic_string<char,_STL::char_traits<char>,_STL::allocator<char> > >
_TEXT	ENDS
PUBLIC	?get_allocator@?$basic_string@DV?$char_traits@D@_STL@@V?$allocator@D@2@@_STL@@QBE?AV?$allocator@D@2@XZ ; _STL::basic_string<char,_STL::char_traits<char>,_STL::allocator<char> >::get_allocator
; Function compile flags: /Ogsy
; File c:\stlport-4.6.1\stlport\stl\_string.h
;	COMDAT ?get_allocator@?$basic_string@DV?$char_traits@D@_STL@@V?$allocator@D@2@@_STL@@QBE?AV?$allocator@D@2@XZ
_TEXT	SEGMENT
___$ReturnUdt$ = 8					; size = 4
?get_allocator@?$basic_string@DV?$char_traits@D@_STL@@V?$allocator@D@2@@_STL@@QBE?AV?$allocator@D@2@XZ PROC NEAR ; _STL::basic_string<char,_STL::char_traits<char>,_STL::allocator<char> >::get_allocator, COMDAT
; _this$ = ecx

; 216  :     return _STLP_CONVERT_ALLOCATOR((const allocator_type&)this->_M_end_of_storage, _CharT);

  00000	8b 44 24 04	 mov	 eax, DWORD PTR ___$ReturnUdt$[esp-4]

; 217  :   }

  00004	c2 04 00	 ret	 4
?get_allocator@?$basic_string@DV?$char_traits@D@_STL@@V?$allocator@D@2@@_STL@@QBE?AV?$allocator@D@2@XZ ENDP ; _STL::basic_string<char,_STL::char_traits<char>,_STL::allocator<char> >::get_allocator
_TEXT	ENDS
PUBLIC	?_M_terminate_string@?$basic_string@DV?$char_traits@D@_STL@@V?$allocator@D@2@@_STL@@AAEXXZ ; _STL::basic_string<char,_STL::char_traits<char>,_STL::allocator<char> >::_M_terminate_string
; Function compile flags: /Ogsy
;	COMDAT ?_M_terminate_string@?$basic_string@DV?$char_traits@D@_STL@@V?$allocator@D@2@@_STL@@AAEXXZ
_TEXT	SEGMENT
?_M_terminate_string@?$basic_string@DV?$char_traits@D@_STL@@V?$allocator@D@2@@_STL@@AAEXXZ PROC NEAR ; _STL::basic_string<char,_STL::char_traits<char>,_STL::allocator<char> >::_M_terminate_string, COMDAT
; _this$ = ecx

; 355  :     _M_terminate_string_aux(_Char_Is_Integral());

  00000	8b 41 04	 mov	 eax, DWORD PTR [ecx+4]
  00003	c6 00 00	 mov	 BYTE PTR [eax], 0

; 356  :   }

  00006	c3		 ret	 0
?_M_terminate_string@?$basic_string@DV?$char_traits@D@_STL@@V?$allocator@D@2@@_STL@@AAEXXZ ENDP ; _STL::basic_string<char,_STL::char_traits<char>,_STL::allocator<char> >::_M_terminate_string
_TEXT	ENDS
PUBLIC	?allocate@?$allocator@D@_STL@@QAEPADIPBX@Z	; _STL::allocator<char>::allocate
; Function compile flags: /Ogsy
; File c:\stlport-4.6.1\stlport\stl\_alloc.h
;	COMDAT ?allocate@?$allocator@D@_STL@@QAEPADIPBX@Z
_TEXT	SEGMENT
___n$ = 8						; size = 4
___formal$ = 12						; size = 4
?allocate@?$allocator@D@_STL@@QAEPADIPBX@Z PROC NEAR	; _STL::allocator<char>::allocate, COMDAT
; _this$ = ecx

; 355  :     return __n != 0 ? __REINTERPRET_CAST(value_type*,__sgi_alloc::allocate(__n * sizeof(value_type))) : 0;

  00000	33 c0		 xor	 eax, eax
  00002	39 44 24 04	 cmp	 DWORD PTR ___n$[esp-4], eax
  00006	74 0a		 je	 SHORT $L102793
  00008	ff 74 24 04	 push	 DWORD PTR ___n$[esp-4]
  0000c	e8 00 00 00 00	 call	 ?allocate@?$__node_alloc@$00$0A@@_STL@@SAPAXI@Z ; _STL::__node_alloc<1,0>::allocate
  00011	59		 pop	 ecx
$L102793:

; 356  :   }

  00012	c2 08 00	 ret	 8
?allocate@?$allocator@D@_STL@@QAEPADIPBX@Z ENDP		; _STL::allocator<char>::allocate
_TEXT	ENDS
PUBLIC	?size@?$map@KKU?$less@K@_STL@@V?$allocator@U?$pair@$$CBKK@_STL@@@2@@_STL@@QBEIXZ ; _STL::map<unsigned long,unsigned long,_STL::less<unsigned long>,_STL::allocator<_STL::pair<unsigned long const ,unsigned long> > >::size
; Function compile flags: /Ogsy
; File c:\stlport-4.6.1\stlport\stl\_map.h
;	COMDAT ?size@?$map@KKU?$less@K@_STL@@V?$allocator@U?$pair@$$CBKK@_STL@@@2@@_STL@@QBEIXZ
_TEXT	SEGMENT
?size@?$map@KKU?$less@K@_STL@@V?$allocator@U?$pair@$$CBKK@_STL@@@2@@_STL@@QBEIXZ PROC NEAR ; _STL::map<unsigned long,unsigned long,_STL::less<unsigned long>,_STL::allocator<_STL::pair<unsigned long const ,unsigned long> > >::size, COMDAT
; _this$ = ecx

; 156  :   size_type size() const { return _M_t.size(); }

  00000	8b 41 04	 mov	 eax, DWORD PTR [ecx+4]
  00003	c3		 ret	 0
?size@?$map@KKU?$less@K@_STL@@V?$allocator@U?$pair@$$CBKK@_STL@@@2@@_STL@@QBEIXZ ENDP ; _STL::map<unsigned long,unsigned long,_STL::less<unsigned long>,_STL::allocator<_STL::pair<unsigned long const ,unsigned long> > >::size
_TEXT	ENDS
PUBLIC	??C?$_Rb_tree_iterator@U?$pair@$$CBKK@_STL@@U?$_Const_traits@U?$pair@$$CBKK@_STL@@@2@@_STL@@QBEPBU?$pair@$$CBKK@1@XZ ; _STL::_Rb_tree_iterator<_STL::pair<unsigned long const ,unsigned long>,_STL::_Const_traits<_STL::pair<unsigned long const ,unsigned long> > >::operator->
; Function compile flags: /Ogsy
; File c:\stlport-4.6.1\stlport\stl\_tree.h
;	COMDAT ??C?$_Rb_tree_iterator@U?$pair@$$CBKK@_STL@@U?$_Const_traits@U?$pair@$$CBKK@_STL@@@2@@_STL@@QBEPBU?$pair@$$CBKK@1@XZ
_TEXT	SEGMENT
??C?$_Rb_tree_iterator@U?$pair@$$CBKK@_STL@@U?$_Const_traits@U?$pair@$$CBKK@_STL@@@2@@_STL@@QBEPBU?$pair@$$CBKK@1@XZ PROC NEAR ; _STL::_Rb_tree_iterator<_STL::pair<unsigned long const ,unsigned long>,_STL::_Const_traits<_STL::pair<unsigned long const ,unsigned long> > >::operator->, COMDAT
; _this$ = ecx

; 172  :   _STLP_DEFINE_ARROW_OPERATOR

  00000	8b 01		 mov	 eax, DWORD PTR [ecx]
  00002	83 c0 10	 add	 eax, 16			; 00000010H
  00005	c3		 ret	 0
??C?$_Rb_tree_iterator@U?$pair@$$CBKK@_STL@@U?$_Const_traits@U?$pair@$$CBKK@_STL@@@2@@_STL@@QBEPBU?$pair@$$CBKK@1@XZ ENDP ; _STL::_Rb_tree_iterator<_STL::pair<unsigned long const ,unsigned long>,_STL::_Const_traits<_STL::pair<unsigned long const ,unsigned long> > >::operator->
_TEXT	ENDS
PUBLIC	??0?$_STLP_alloc_proxy@PADDV?$allocator@D@_STL@@@_STL@@QAE@ABV?$allocator@D@1@PAD@Z ; _STL::_STLP_alloc_proxy<char *,char,_STL::allocator<char> >::_STLP_alloc_proxy<char *,char,_STL::allocator<char> >
; Function compile flags: /Ogsy
; File c:\stlport-4.6.1\stlport\stl\_alloc.h
;	COMDAT ??0?$_STLP_alloc_proxy@PADDV?$allocator@D@_STL@@@_STL@@QAE@ABV?$allocator@D@1@PAD@Z
_TEXT	SEGMENT
___a$ = 8						; size = 4
___p$ = 12						; size = 4
??0?$_STLP_alloc_proxy@PADDV?$allocator@D@_STL@@@_STL@@QAE@ABV?$allocator@D@1@PAD@Z PROC NEAR ; _STL::_STLP_alloc_proxy<char *,char,_STL::allocator<char> >::_STLP_alloc_proxy<char *,char,_STL::allocator<char> >, COMDAT
; _this$ = ecx

; 487  :   inline _STLP_alloc_proxy(const _MaybeReboundAlloc& __a, _Value __p) : _MaybeReboundAlloc(__a), _M_data(__p) {}

  00000	8b c1		 mov	 eax, ecx
  00002	8b 4c 24 08	 mov	 ecx, DWORD PTR ___p$[esp-4]
  00006	89 08		 mov	 DWORD PTR [eax], ecx
  00008	c2 08 00	 ret	 8
??0?$_STLP_alloc_proxy@PADDV?$allocator@D@_STL@@@_STL@@QAE@ABV?$allocator@D@1@PAD@Z ENDP ; _STL::_STLP_alloc_proxy<char *,char,_STL::allocator<char> >::_STLP_alloc_proxy<char *,char,_STL::allocator<char> >
_TEXT	ENDS
PUBLIC	?key_comp@?$map@KKU?$less@K@_STL@@V?$allocator@U?$pair@$$CBKK@_STL@@@2@@_STL@@QBE?AU?$less@K@2@XZ ; _STL::map<unsigned long,unsigned long,_STL::less<unsigned long>,_STL::allocator<_STL::pair<unsigned long const ,unsigned long> > >::key_comp
; Function compile flags: /Ogsy
; File c:\stlport-4.6.1\stlport\stl\_map.h
;	COMDAT ?key_comp@?$map@KKU?$less@K@_STL@@V?$allocator@U?$pair@$$CBKK@_STL@@@2@@_STL@@QBE?AU?$less@K@2@XZ
_TEXT	SEGMENT
___$ReturnUdt$ = 8					; size = 4
?key_comp@?$map@KKU?$less@K@_STL@@V?$allocator@U?$pair@$$CBKK@_STL@@@2@@_STL@@QBE?AU?$less@K@2@XZ PROC NEAR ; _STL::map<unsigned long,unsigned long,_STL::less<unsigned long>,_STL::allocator<_STL::pair<unsigned long const ,unsigned long> > >::key_comp, COMDAT
; _this$ = ecx

; 143  :   key_compare key_comp() const { return _M_t.key_comp(); }

  00000	8b 44 24 04	 mov	 eax, DWORD PTR ___$ReturnUdt$[esp-4]
  00004	c2 04 00	 ret	 4
?key_comp@?$map@KKU?$less@K@_STL@@V?$allocator@U?$pair@$$CBKK@_STL@@@2@@_STL@@QBE?AU?$less@K@2@XZ ENDP ; _STL::map<unsigned long,unsigned long,_STL::less<unsigned long>,_STL::allocator<_STL::pair<unsigned long const ,unsigned long> > >::key_comp
_TEXT	ENDS
PUBLIC	?begin@?$_Rb_tree@KU?$pair@$$CBKK@_STL@@U?$_Select1st@U?$pair@$$CBKK@_STL@@@2@U?$less@K@2@V?$allocator@U?$pair@$$CBKK@_STL@@@2@@_STL@@QBE?AU?$_Rb_tree_iterator@U?$pair@$$CBKK@_STL@@U?$_Const_traits@U?$pair@$$CBKK@_STL@@@2@@2@XZ ; _STL::_Rb_tree<unsigned long,_STL::pair<unsigned long const ,unsigned long>,_STL::_Select1st<_STL::pair<unsigned long const ,unsigned long> >,_STL::less<unsigned long>,_STL::allocator<_STL::pair<unsigned long const ,unsigned long> > >::begin
; Function compile flags: /Ogsy
; File c:\stlport-4.6.1\stlport\stl\_tree.h
;	COMDAT ?begin@?$_Rb_tree@KU?$pair@$$CBKK@_STL@@U?$_Select1st@U?$pair@$$CBKK@_STL@@@2@U?$less@K@2@V?$allocator@U?$pair@$$CBKK@_STL@@@2@@_STL@@QBE?AU?$_Rb_tree_iterator@U?$pair@$$CBKK@_STL@@U?$_Const_traits@U?$pair@$$CBKK@_STL@@@2@@2@XZ
_TEXT	SEGMENT
___$ReturnUdt$ = 8					; size = 4
?begin@?$_Rb_tree@KU?$pair@$$CBKK@_STL@@U?$_Select1st@U?$pair@$$CBKK@_STL@@@2@U?$less@K@2@V?$allocator@U?$pair@$$CBKK@_STL@@@2@@_STL@@QBE?AU?$_Rb_tree_iterator@U?$pair@$$CBKK@_STL@@U?$_Const_traits@U?$pair@$$CBKK@_STL@@@2@@2@XZ PROC NEAR ; _STL::_Rb_tree<unsigned long,_STL::pair<unsigned long const ,unsigned long>,_STL::_Select1st<_STL::pair<unsigned long const ,unsigned long> >,_STL::less<unsigned long>,_STL::allocator<_STL::pair<unsigned long const ,unsigned long> > >::begin, COMDAT
; _this$ = ecx

; 358  :   const_iterator begin() const { return const_iterator(_M_leftmost()); }

  00000	8b 01		 mov	 eax, DWORD PTR [ecx]
  00002	8b 48 08	 mov	 ecx, DWORD PTR [eax+8]
  00005	8b 44 24 04	 mov	 eax, DWORD PTR ___$ReturnUdt$[esp-4]
  00009	89 08		 mov	 DWORD PTR [eax], ecx
  0000b	c2 04 00	 ret	 4
?begin@?$_Rb_tree@KU?$pair@$$CBKK@_STL@@U?$_Select1st@U?$pair@$$CBKK@_STL@@@2@U?$less@K@2@V?$allocator@U?$pair@$$CBKK@_STL@@@2@@_STL@@QBE?AU?$_Rb_tree_iterator@U?$pair@$$CBKK@_STL@@U?$_Const_traits@U?$pair@$$CBKK@_STL@@@2@@2@XZ ENDP ; _STL::_Rb_tree<unsigned long,_STL::pair<unsigned long const ,unsigned long>,_STL::_Select1st<_STL::pair<unsigned long const ,unsigned long> >,_STL::less<unsigned long>,_STL::allocator<_STL::pair<unsigned long const ,unsigned long> > >::begin
_TEXT	ENDS
PUBLIC	?end@?$_Rb_tree@KU?$pair@$$CBKK@_STL@@U?$_Select1st@U?$pair@$$CBKK@_STL@@@2@U?$less@K@2@V?$allocator@U?$pair@$$CBKK@_STL@@@2@@_STL@@QAE?AU?$_Rb_tree_iterator@U?$pair@$$CBKK@_STL@@U?$_Nonconst_traits@U?$pair@$$CBKK@_STL@@@2@@2@XZ ; _STL::_Rb_tree<unsigned long,_STL::pair<unsigned long const ,unsigned long>,_STL::_Select1st<_STL::pair<unsigned long const ,unsigned long> >,_STL::less<unsigned long>,_STL::allocator<_STL::pair<unsigned long const ,unsigned long> > >::end
; Function compile flags: /Ogsy
;	COMDAT ?end@?$_Rb_tree@KU?$pair@$$CBKK@_STL@@U?$_Select1st@U?$pair@$$CBKK@_STL@@@2@U?$less@K@2@V?$allocator@U?$pair@$$CBKK@_STL@@@2@@_STL@@QAE?AU?$_Rb_tree_iterator@U?$pair@$$CBKK@_STL@@U?$_Nonconst_traits@U?$pair@$$CBKK@_STL@@@2@@2@XZ
_TEXT	SEGMENT
___$ReturnUdt$ = 8					; size = 4
?end@?$_Rb_tree@KU?$pair@$$CBKK@_STL@@U?$_Select1st@U?$pair@$$CBKK@_STL@@@2@U?$less@K@2@V?$allocator@U?$pair@$$CBKK@_STL@@@2@@_STL@@QAE?AU?$_Rb_tree_iterator@U?$pair@$$CBKK@_STL@@U?$_Nonconst_traits@U?$pair@$$CBKK@_STL@@@2@@2@XZ PROC NEAR ; _STL::_Rb_tree<unsigned long,_STL::pair<unsigned long const ,unsigned long>,_STL::_Select1st<_STL::pair<unsigned long const ,unsigned long> >,_STL::less<unsigned long>,_STL::allocator<_STL::pair<unsigned long const ,unsigned long> > >::end, COMDAT
; _this$ = ecx

; 359  :   iterator end() { return iterator(this->_M_header._M_data); }

  00000	8b 09		 mov	 ecx, DWORD PTR [ecx]
  00002	8b 44 24 04	 mov	 eax, DWORD PTR ___$ReturnUdt$[esp-4]
  00006	89 08		 mov	 DWORD PTR [eax], ecx
  00008	c2 04 00	 ret	 4
?end@?$_Rb_tree@KU?$pair@$$CBKK@_STL@@U?$_Select1st@U?$pair@$$CBKK@_STL@@@2@U?$less@K@2@V?$allocator@U?$pair@$$CBKK@_STL@@@2@@_STL@@QAE?AU?$_Rb_tree_iterator@U?$pair@$$CBKK@_STL@@U?$_Nonconst_traits@U?$pair@$$CBKK@_STL@@@2@@2@XZ ENDP ; _STL::_Rb_tree<unsigned long,_STL::pair<unsigned long const ,unsigned long>,_STL::_Select1st<_STL::pair<unsigned long const ,unsigned long> >,_STL::less<unsigned long>,_STL::allocator<_STL::pair<unsigned long const ,unsigned long> > >::end
_TEXT	ENDS
PUBLIC	?end@?$_Rb_tree@KU?$pair@$$CBKK@_STL@@U?$_Select1st@U?$pair@$$CBKK@_STL@@@2@U?$less@K@2@V?$allocator@U?$pair@$$CBKK@_STL@@@2@@_STL@@QBE?AU?$_Rb_tree_iterator@U?$pair@$$CBKK@_STL@@U?$_Const_traits@U?$pair@$$CBKK@_STL@@@2@@2@XZ ; _STL::_Rb_tree<unsigned long,_STL::pair<unsigned long const ,unsigned long>,_STL::_Select1st<_STL::pair<unsigned long const ,unsigned long> >,_STL::less<unsigned long>,_STL::allocator<_STL::pair<unsigned long const ,unsigned long> > >::end
; Function compile flags: /Ogsy
;	COMDAT ?end@?$_Rb_tree@KU?$pair@$$CBKK@_STL@@U?$_Select1st@U?$pair@$$CBKK@_STL@@@2@U?$less@K@2@V?$allocator@U?$pair@$$CBKK@_STL@@@2@@_STL@@QBE?AU?$_Rb_tree_iterator@U?$pair@$$CBKK@_STL@@U?$_Const_traits@U?$pair@$$CBKK@_STL@@@2@@2@XZ
_TEXT	SEGMENT
___$ReturnUdt$ = 8					; size = 4
?end@?$_Rb_tree@KU?$pair@$$CBKK@_STL@@U?$_Select1st@U?$pair@$$CBKK@_STL@@@2@U?$less@K@2@V?$allocator@U?$pair@$$CBKK@_STL@@@2@@_STL@@QBE?AU?$_Rb_tree_iterator@U?$pair@$$CBKK@_STL@@U?$_Const_traits@U?$pair@$$CBKK@_STL@@@2@@2@XZ PROC NEAR ; _STL::_Rb_tree<unsigned long,_STL::pair<unsigned long const ,unsigned long>,_STL::_Select1st<_STL::pair<unsigned long const ,unsigned long> >,_STL::less<unsigned long>,_STL::allocator<_STL::pair<unsigned long const ,unsigned long> > >::end, COMDAT
; _this$ = ecx

; 360  :   const_iterator end() const { return const_iterator(this->_M_header._M_data); }

  00000	8b 09		 mov	 ecx, DWORD PTR [ecx]
  00002	8b 44 24 04	 mov	 eax, DWORD PTR ___$ReturnUdt$[esp-4]
  00006	89 08		 mov	 DWORD PTR [eax], ecx
  00008	c2 04 00	 ret	 4
?end@?$_Rb_tree@KU?$pair@$$CBKK@_STL@@U?$_Select1st@U?$pair@$$CBKK@_STL@@@2@U?$less@K@2@V?$allocator@U?$pair@$$CBKK@_STL@@@2@@_STL@@QBE?AU?$_Rb_tree_iterator@U?$pair@$$CBKK@_STL@@U?$_Const_traits@U?$pair@$$CBKK@_STL@@@2@@2@XZ ENDP ; _STL::_Rb_tree<unsigned long,_STL::pair<unsigned long const ,unsigned long>,_STL::_Select1st<_STL::pair<unsigned long const ,unsigned long> >,_STL::less<unsigned long>,_STL::allocator<_STL::pair<unsigned long const ,unsigned long> > >::end
_TEXT	ENDS
PUBLIC	??1?$_STLP_alloc_proxy@PAU?$_Rb_tree_node@U?$pair@$$CBKK@_STL@@@_STL@@U12@V?$allocator@U?$_Rb_tree_node@U?$pair@$$CBKK@_STL@@@_STL@@@2@@_STL@@QAE@XZ ; _STL::_STLP_alloc_proxy<_STL::_Rb_tree_node<_STL::pair<unsigned long const ,unsigned long> > *,_STL::_Rb_tree_node<_STL::pair<unsigned long const ,unsigned long> >,_STL::allocator<_STL::_Rb_tree_node<_STL::pair<unsigned long const ,unsigned long> > > >::~_STLP_alloc_proxy<_STL::_Rb_tree_node<_STL::pair<unsigned long const ,unsigned long> > *,_STL::_Rb_tree_node<_STL::pair<unsigned long const ,unsigned long> >,_STL::allocator<_STL::_Rb_tree_node<_STL::pair<unsigned long const ,unsigned long> > > >
; Function compile flags: /Ogsy
;	COMDAT ??1?$_STLP_alloc_proxy@PAU?$_Rb_tree_node@U?$pair@$$CBKK@_STL@@@_STL@@U12@V?$allocator@U?$_Rb_tree_node@U?$pair@$$CBKK@_STL@@@_STL@@@2@@_STL@@QAE@XZ
_TEXT	SEGMENT
??1?$_STLP_alloc_proxy@PAU?$_Rb_tree_node@U?$pair@$$CBKK@_STL@@@_STL@@U12@V?$allocator@U?$_Rb_tree_node@U?$pair@$$CBKK@_STL@@@_STL@@@2@@_STL@@QAE@XZ PROC NEAR ; _STL::_STLP_alloc_proxy<_STL::_Rb_tree_node<_STL::pair<unsigned long const ,unsigned long> > *,_STL::_Rb_tree_node<_STL::pair<unsigned long const ,unsigned long> >,_STL::allocator<_STL::_Rb_tree_node<_STL::pair<unsigned long const ,unsigned long> > > >::~_STLP_alloc_proxy<_STL::_Rb_tree_node<_STL::pair<unsigned long const ,unsigned long> > *,_STL::_Rb_tree_node<_STL::pair<unsigned long const ,unsigned long> >,_STL::allocator<_STL::_Rb_tree_node<_STL::pair<unsigned long const ,unsigned long> > > >, COMDAT
; _this$ = ecx
  00000	c3		 ret	 0
??1?$_STLP_alloc_proxy@PAU?$_Rb_tree_node@U?$pair@$$CBKK@_STL@@@_STL@@U12@V?$allocator@U?$_Rb_tree_node@U?$pair@$$CBKK@_STL@@@_STL@@@2@@_STL@@QAE@XZ ENDP ; _STL::_STLP_alloc_proxy<_STL::_Rb_tree_node<_STL::pair<unsigned long const ,unsigned long> > *,_STL::_Rb_tree_node<_STL::pair<unsigned long const ,unsigned long> >,_STL::allocator<_STL::_Rb_tree_node<_STL::pair<unsigned long const ,unsigned long> > > >::~_STLP_alloc_proxy<_STL::_Rb_tree_node<_STL::pair<unsigned long const ,unsigned long> > *,_STL::_Rb_tree_node<_STL::pair<unsigned long const ,unsigned long> >,_STL::allocator<_STL::_Rb_tree_node<_STL::pair<unsigned long const ,unsigned long> > > >
_TEXT	ENDS
PUBLIC	?_M_empty_initialize@?$_Rb_tree@KU?$pair@$$CBKK@_STL@@U?$_Select1st@U?$pair@$$CBKK@_STL@@@2@U?$less@K@2@V?$allocator@U?$pair@$$CBKK@_STL@@@2@@_STL@@AAEXXZ ; _STL::_Rb_tree<unsigned long,_STL::pair<unsigned long const ,unsigned long>,_STL::_Select1st<_STL::pair<unsigned long const ,unsigned long> >,_STL::less<unsigned long>,_STL::allocator<_STL::pair<unsigned long const ,unsigned long> > >::_M_empty_initialize
; Function compile flags: /Ogsy
;	COMDAT ?_M_empty_initialize@?$_Rb_tree@KU?$pair@$$CBKK@_STL@@U?$_Select1st@U?$pair@$$CBKK@_STL@@@2@U?$less@K@2@V?$allocator@U?$pair@$$CBKK@_STL@@@2@@_STL@@AAEXXZ
_TEXT	SEGMENT
?_M_empty_initialize@?$_Rb_tree@KU?$pair@$$CBKK@_STL@@U?$_Select1st@U?$pair@$$CBKK@_STL@@@2@U?$less@K@2@V?$allocator@U?$pair@$$CBKK@_STL@@@2@@_STL@@AAEXXZ PROC NEAR ; _STL::_Rb_tree<unsigned long,_STL::pair<unsigned long const ,unsigned long>,_STL::_Select1st<_STL::pair<unsigned long const ,unsigned long> >,_STL::less<unsigned long>,_STL::allocator<_STL::pair<unsigned long const ,unsigned long> > >::_M_empty_initialize, COMDAT
; _this$ = ecx

; 346  :     _S_color(this->_M_header._M_data) = _S_rb_tree_red; // used to distinguish header from 

  00000	8b 01		 mov	 eax, DWORD PTR [ecx]
  00002	c6 00 00	 mov	 BYTE PTR [eax], 0

; 347  :                                           // __root, in iterator.operator++
; 348  :     _M_root() = 0;

  00005	8b 01		 mov	 eax, DWORD PTR [ecx]
  00007	83 60 04 00	 and	 DWORD PTR [eax+4], 0

; 349  :     _M_leftmost() = this->_M_header._M_data;

  0000b	8b 01		 mov	 eax, DWORD PTR [ecx]
  0000d	89 40 08	 mov	 DWORD PTR [eax+8], eax

; 350  :     _M_rightmost() = this->_M_header._M_data;

  00010	8b 09		 mov	 ecx, DWORD PTR [ecx]
  00012	89 49 0c	 mov	 DWORD PTR [ecx+12], ecx

; 351  :   }

  00015	c3		 ret	 0
?_M_empty_initialize@?$_Rb_tree@KU?$pair@$$CBKK@_STL@@U?$_Select1st@U?$pair@$$CBKK@_STL@@@2@U?$less@K@2@V?$allocator@U?$pair@$$CBKK@_STL@@@2@@_STL@@AAEXXZ ENDP ; _STL::_Rb_tree<unsigned long,_STL::pair<unsigned long const ,unsigned long>,_STL::_Select1st<_STL::pair<unsigned long const ,unsigned long> >,_STL::less<unsigned long>,_STL::allocator<_STL::pair<unsigned long const ,unsigned long> > >::_M_empty_initialize
_TEXT	ENDS
PUBLIC	?deallocate@?$allocator@U?$_Rb_tree_node@U?$pair@$$CBKK@_STL@@@_STL@@@_STL@@QAEXPAU?$_Rb_tree_node@U?$pair@$$CBKK@_STL@@@2@I@Z ; _STL::allocator<_STL::_Rb_tree_node<_STL::pair<unsigned long const ,unsigned long> > >::deallocate
; Function compile flags: /Ogsy
; File c:\stlport-4.6.1\stlport\stl\_alloc.h
;	COMDAT ?deallocate@?$allocator@U?$_Rb_tree_node@U?$pair@$$CBKK@_STL@@@_STL@@@_STL@@QAEXPAU?$_Rb_tree_node@U?$pair@$$CBKK@_STL@@@2@I@Z
_TEXT	SEGMENT
___p$ = 8						; size = 4
___n$ = 12						; size = 4
?deallocate@?$allocator@U?$_Rb_tree_node@U?$pair@$$CBKK@_STL@@@_STL@@@_STL@@QAEXPAU?$_Rb_tree_node@U?$pair@$$CBKK@_STL@@@2@I@Z PROC NEAR ; _STL::allocator<_STL::_Rb_tree_node<_STL::pair<unsigned long const ,unsigned long> > >::deallocate, COMDAT
; _this$ = ecx

; 359  :     _STLP_ASSERT( (__p == 0) == (__n == 0) )
; 360  :       if (__p != 0) __sgi_alloc::deallocate((void*)__p, __n * sizeof(value_type));

  00000	83 7c 24 04 00	 cmp	 DWORD PTR ___p$[esp-4], 0
  00005	74 16		 je	 SHORT $L101433
  00007	8b 44 24 08	 mov	 eax, DWORD PTR ___n$[esp-4]
  0000b	8d 04 40	 lea	 eax, DWORD PTR [eax+eax*2]
  0000e	c1 e0 03	 shl	 eax, 3
  00011	50		 push	 eax
  00012	ff 74 24 08	 push	 DWORD PTR ___p$[esp]
  00016	e8 00 00 00 00	 call	 ?deallocate@?$__node_alloc@$00$0A@@_STL@@SAXPAXI@Z ; _STL::__node_alloc<1,0>::deallocate
  0001b	59		 pop	 ecx
  0001c	59		 pop	 ecx
$L101433:

; 361  :   }

  0001d	c2 08 00	 ret	 8
?deallocate@?$allocator@U?$_Rb_tree_node@U?$pair@$$CBKK@_STL@@@_STL@@@_STL@@QAEXPAU?$_Rb_tree_node@U?$pair@$$CBKK@_STL@@@2@I@Z ENDP ; _STL::allocator<_STL::_Rb_tree_node<_STL::pair<unsigned long const ,unsigned long> > >::deallocate
_TEXT	ENDS
PUBLIC	??0?$_STLP_alloc_proxy@PAU?$_Rb_tree_node@U?$pair@$$CBKK@_STL@@@_STL@@U12@V?$allocator@U?$_Rb_tree_node@U?$pair@$$CBKK@_STL@@@_STL@@@2@@_STL@@QAE@ABV?$allocator@U?$_Rb_tree_node@U?$pair@$$CBKK@_STL@@@_STL@@@1@PAU?$_Rb_tree_node@U?$pair@$$CBKK@_STL@@@1@@Z ; _STL::_STLP_alloc_proxy<_STL::_Rb_tree_node<_STL::pair<unsigned long const ,unsigned long> > *,_STL::_Rb_tree_node<_STL::pair<unsigned long const ,unsigned long> >,_STL::allocator<_STL::_Rb_tree_node<_STL::pair<unsigned long const ,unsigned long> > > >::_STLP_alloc_proxy<_STL::_Rb_tree_node<_STL::pair<unsigned long const ,unsigned long> > *,_STL::_Rb_tree_node<_STL::pair<unsigned long const ,unsigned long> >,_STL::allocator<_STL::_Rb_tree_node<_STL::pair<unsigned long const ,unsigned long> > > >
; Function compile flags: /Ogsy
;	COMDAT ??0?$_STLP_alloc_proxy@PAU?$_Rb_tree_node@U?$pair@$$CBKK@_STL@@@_STL@@U12@V?$allocator@U?$_Rb_tree_node@U?$pair@$$CBKK@_STL@@@_STL@@@2@@_STL@@QAE@ABV?$allocator@U?$_Rb_tree_node@U?$pair@$$CBKK@_STL@@@_STL@@@1@PAU?$_Rb_tree_node@U?$pair@$$CBKK@_STL@@@1@@Z
_TEXT	SEGMENT
___a$ = 8						; size = 4
___p$ = 12						; size = 4
??0?$_STLP_alloc_proxy@PAU?$_Rb_tree_node@U?$pair@$$CBKK@_STL@@@_STL@@U12@V?$allocator@U?$_Rb_tree_node@U?$pair@$$CBKK@_STL@@@_STL@@@2@@_STL@@QAE@ABV?$allocator@U?$_Rb_tree_node@U?$pair@$$CBKK@_STL@@@_STL@@@1@PAU?$_Rb_tree_node@U?$pair@$$CBKK@_STL@@@1@@Z PROC NEAR ; _STL::_STLP_alloc_proxy<_STL::_Rb_tree_node<_STL::pair<unsigned long const ,unsigned long> > *,_STL::_Rb_tree_node<_STL::pair<unsigned long const ,unsigned long> >,_STL::allocator<_STL::_Rb_tree_node<_STL::pair<unsigned long const ,unsigned long> > > >::_STLP_alloc_proxy<_STL::_Rb_tree_node<_STL::pair<unsigned long const ,unsigned long> > *,_STL::_Rb_tree_node<_STL::pair<unsigned long const ,unsigned long> >,_STL::allocator<_STL::_Rb_tree_node<_STL::pair<unsigned long const ,unsigned long> > > >, COMDAT
; _this$ = ecx

; 487  :   inline _STLP_alloc_proxy(const _MaybeReboundAlloc& __a, _Value __p) : _MaybeReboundAlloc(__a), _M_data(__p) {}

  00000	8b c1		 mov	 eax, ecx
  00002	8b 4c 24 08	 mov	 ecx, DWORD PTR ___p$[esp-4]
  00006	89 08		 mov	 DWORD PTR [eax], ecx
  00008	c2 08 00	 ret	 8
??0?$_STLP_alloc_proxy@PAU?$_Rb_tree_node@U?$pair@$$CBKK@_STL@@@_STL@@U12@V?$allocator@U?$_Rb_tree_node@U?$pair@$$CBKK@_STL@@@_STL@@@2@@_STL@@QAE@ABV?$allocator@U?$_Rb_tree_node@U?$pair@$$CBKK@_STL@@@_STL@@@1@PAU?$_Rb_tree_node@U?$pair@$$CBKK@_STL@@@1@@Z ENDP ; _STL::_STLP_alloc_proxy<_STL::_Rb_tree_node<_STL::pair<unsigned long const ,unsigned long> > *,_STL::_Rb_tree_node<_STL::pair<unsigned long const ,unsigned long> >,_STL::allocator<_STL::_Rb_tree_node<_STL::pair<unsigned long const ,unsigned long> > > >::_STLP_alloc_proxy<_STL::_Rb_tree_node<_STL::pair<unsigned long const ,unsigned long> > *,_STL::_Rb_tree_node<_STL::pair<unsigned long const ,unsigned long> >,_STL::allocator<_STL::_Rb_tree_node<_STL::pair<unsigned long const ,unsigned long> > > >
_TEXT	ENDS
PUBLIC	?allocate@?$allocator@U?$_Rb_tree_node@U?$pair@$$CBKK@_STL@@@_STL@@@_STL@@QAEPAU?$_Rb_tree_node@U?$pair@$$CBKK@_STL@@@2@IPBX@Z ; _STL::allocator<_STL::_Rb_tree_node<_STL::pair<unsigned long const ,unsigned long> > >::allocate
; Function compile flags: /Ogsy
;	COMDAT ?allocate@?$allocator@U?$_Rb_tree_node@U?$pair@$$CBKK@_STL@@@_STL@@@_STL@@QAEPAU?$_Rb_tree_node@U?$pair@$$CBKK@_STL@@@2@IPBX@Z
_TEXT	SEGMENT
___n$ = 8						; size = 4
___formal$ = 12						; size = 4
?allocate@?$allocator@U?$_Rb_tree_node@U?$pair@$$CBKK@_STL@@@_STL@@@_STL@@QAEPAU?$_Rb_tree_node@U?$pair@$$CBKK@_STL@@@2@IPBX@Z PROC NEAR ; _STL::allocator<_STL::_Rb_tree_node<_STL::pair<unsigned long const ,unsigned long> > >::allocate, COMDAT
; _this$ = ecx

; 355  :     return __n != 0 ? __REINTERPRET_CAST(value_type*,__sgi_alloc::allocate(__n * sizeof(value_type))) : 0;

  00000	8b 44 24 04	 mov	 eax, DWORD PTR ___n$[esp-4]
  00004	85 c0		 test	 eax, eax
  00006	74 0f		 je	 SHORT $L102871
  00008	8d 04 40	 lea	 eax, DWORD PTR [eax+eax*2]
  0000b	c1 e0 03	 shl	 eax, 3
  0000e	50		 push	 eax
  0000f	e8 00 00 00 00	 call	 ?allocate@?$__node_alloc@$00$0A@@_STL@@SAPAXI@Z ; _STL::__node_alloc<1,0>::allocate
  00014	59		 pop	 ecx
  00015	eb 02		 jmp	 SHORT $L102872
$L102871:
  00017	33 c0		 xor	 eax, eax
$L102872:

; 356  :   }

  00019	c2 08 00	 ret	 8
?allocate@?$allocator@U?$_Rb_tree_node@U?$pair@$$CBKK@_STL@@@_STL@@@_STL@@QAEPAU?$_Rb_tree_node@U?$pair@$$CBKK@_STL@@@2@IPBX@Z ENDP ; _STL::allocator<_STL::_Rb_tree_node<_STL::pair<unsigned long const ,unsigned long> > >::allocate
_TEXT	ENDS
PUBLIC	?_S_key@?$_Rb_tree@KU?$pair@$$CBKK@_STL@@U?$_Select1st@U?$pair@$$CBKK@_STL@@@2@U?$less@K@2@V?$allocator@U?$pair@$$CBKK@_STL@@@2@@_STL@@KAABKPAU?$_Rb_tree_node@U?$pair@$$CBKK@_STL@@@2@@Z ; _STL::_Rb_tree<unsigned long,_STL::pair<unsigned long const ,unsigned long>,_STL::_Select1st<_STL::pair<unsigned long const ,unsigned long> >,_STL::less<unsigned long>,_STL::allocator<_STL::pair<unsigned long const ,unsigned long> > >::_S_key
; Function compile flags: /Ogsy
; File c:\stlport-4.6.1\stlport\stl\_tree.h
;	COMDAT ?_S_key@?$_Rb_tree@KU?$pair@$$CBKK@_STL@@U?$_Select1st@U?$pair@$$CBKK@_STL@@@2@U?$less@K@2@V?$allocator@U?$pair@$$CBKK@_STL@@@2@@_STL@@KAABKPAU?$_Rb_tree_node@U?$pair@$$CBKK@_STL@@@2@@Z
_TEXT	SEGMENT
___x$ = 8						; size = 4
?_S_key@?$_Rb_tree@KU?$pair@$$CBKK@_STL@@U?$_Select1st@U?$pair@$$CBKK@_STL@@@2@U?$less@K@2@V?$allocator@U?$pair@$$CBKK@_STL@@@2@@_STL@@KAABKPAU?$_Rb_tree_node@U?$pair@$$CBKK@_STL@@@2@@Z PROC NEAR ; _STL::_Rb_tree<unsigned long,_STL::pair<unsigned long const ,unsigned long>,_STL::_Select1st<_STL::pair<unsigned long const ,unsigned long> >,_STL::less<unsigned long>,_STL::allocator<_STL::pair<unsigned long const ,unsigned long> > >::_S_key, COMDAT

; 280  :     { return _KeyOfValue()(_S_value(__x)); }

  00000	8b 44 24 04	 mov	 eax, DWORD PTR ___x$[esp-4]
  00004	83 c0 10	 add	 eax, 16			; 00000010H
  00007	c3		 ret	 0
?_S_key@?$_Rb_tree@KU?$pair@$$CBKK@_STL@@U?$_Select1st@U?$pair@$$CBKK@_STL@@@2@U?$less@K@2@V?$allocator@U?$pair@$$CBKK@_STL@@@2@@_STL@@KAABKPAU?$_Rb_tree_node@U?$pair@$$CBKK@_STL@@@2@@Z ENDP ; _STL::_Rb_tree<unsigned long,_STL::pair<unsigned long const ,unsigned long>,_STL::_Select1st<_STL::pair<unsigned long const ,unsigned long> >,_STL::less<unsigned long>,_STL::allocator<_STL::pair<unsigned long const ,unsigned long> > >::_S_key
_TEXT	ENDS
PUBLIC	?_M_erase@?$_Rb_tree@KU?$pair@$$CBKK@_STL@@U?$_Select1st@U?$pair@$$CBKK@_STL@@@2@U?$less@K@2@V?$allocator@U?$pair@$$CBKK@_STL@@@2@@_STL@@AAEXPAU?$_Rb_tree_node@U?$pair@$$CBKK@_STL@@@2@@Z ; _STL::_Rb_tree<unsigned long,_STL::pair<unsigned long const ,unsigned long>,_STL::_Select1st<_STL::pair<unsigned long const ,unsigned long> >,_STL::less<unsigned long>,_STL::allocator<_STL::pair<unsigned long const ,unsigned long> > >::_M_erase
; Function compile flags: /Ogsy
; File c:\stlport-4.6.1\stlport\stl\_tree.c
;	COMDAT ?_M_erase@?$_Rb_tree@KU?$pair@$$CBKK@_STL@@U?$_Select1st@U?$pair@$$CBKK@_STL@@@2@U?$less@K@2@V?$allocator@U?$pair@$$CBKK@_STL@@@2@@_STL@@AAEXPAU?$_Rb_tree_node@U?$pair@$$CBKK@_STL@@@2@@Z
_TEXT	SEGMENT
___x$ = 8						; size = 4
?_M_erase@?$_Rb_tree@KU?$pair@$$CBKK@_STL@@U?$_Select1st@U?$pair@$$CBKK@_STL@@@2@U?$less@K@2@V?$allocator@U?$pair@$$CBKK@_STL@@@2@@_STL@@AAEXPAU?$_Rb_tree_node@U?$pair@$$CBKK@_STL@@@2@@Z PROC NEAR ; _STL::_Rb_tree<unsigned long,_STL::pair<unsigned long const ,unsigned long>,_STL::_Select1st<_STL::pair<unsigned long const ,unsigned long> >,_STL::less<unsigned long>,_STL::allocator<_STL::pair<unsigned long const ,unsigned long> > >::_M_erase, COMDAT
; _this$ = ecx

; 637  : {

  00000	53		 push	 ebx
  00001	56		 push	 esi

; 638  :                                 // erase without rebalancing
; 639  :   while (__x != 0) {

  00002	8b 74 24 0c	 mov	 esi, DWORD PTR ___x$[esp+4]
  00006	85 f6		 test	 esi, esi
  00008	8b d9		 mov	 ebx, ecx
  0000a	74 1f		 je	 SHORT $L101650
  0000c	57		 push	 edi
$L101649:

; 640  :     _M_erase(_S_right(__x));

  0000d	ff 76 0c	 push	 DWORD PTR [esi+12]
  00010	8b cb		 mov	 ecx, ebx
  00012	e8 00 00 00 00	 call	 ?_M_erase@?$_Rb_tree@KU?$pair@$$CBKK@_STL@@U?$_Select1st@U?$pair@$$CBKK@_STL@@@2@U?$less@K@2@V?$allocator@U?$pair@$$CBKK@_STL@@@2@@_STL@@AAEXPAU?$_Rb_tree_node@U?$pair@$$CBKK@_STL@@@2@@Z ; _STL::_Rb_tree<unsigned long,_STL::pair<unsigned long const ,unsigned long>,_STL::_Select1st<_STL::pair<unsigned long const ,unsigned long> >,_STL::less<unsigned long>,_STL::allocator<_STL::pair<unsigned long const ,unsigned long> > >::_M_erase

; 641  :     _Link_type __y = _S_left(__x);

  00017	8b 7e 08	 mov	 edi, DWORD PTR [esi+8]

; 642  :     _STLP_STD::_Destroy(&__x->_M_value_field);
; 643  :     this->_M_header.deallocate(__x,1);

  0001a	6a 01		 push	 1
  0001c	56		 push	 esi
  0001d	8b cb		 mov	 ecx, ebx
  0001f	e8 00 00 00 00	 call	 ?deallocate@?$allocator@U?$_Rb_tree_node@U?$pair@$$CBKK@_STL@@@_STL@@@_STL@@QAEXPAU?$_Rb_tree_node@U?$pair@$$CBKK@_STL@@@2@I@Z ; _STL::allocator<_STL::_Rb_tree_node<_STL::pair<unsigned long const ,unsigned long> > >::deallocate
  00024	85 ff		 test	 edi, edi

; 644  :     __x = __y;

  00026	8b f7		 mov	 esi, edi
  00028	75 e3		 jne	 SHORT $L101649
  0002a	5f		 pop	 edi
$L101650:
  0002b	5e		 pop	 esi
  0002c	5b		 pop	 ebx

; 645  :   }
; 646  : }

  0002d	c2 04 00	 ret	 4
?_M_erase@?$_Rb_tree@KU?$pair@$$CBKK@_STL@@U?$_Select1st@U?$pair@$$CBKK@_STL@@@2@U?$less@K@2@V?$allocator@U?$pair@$$CBKK@_STL@@@2@@_STL@@AAEXPAU?$_Rb_tree_node@U?$pair@$$CBKK@_STL@@@2@@Z ENDP ; _STL::_Rb_tree<unsigned long,_STL::pair<unsigned long const ,unsigned long>,_STL::_Select1st<_STL::pair<unsigned long const ,unsigned long> >,_STL::less<unsigned long>,_STL::allocator<_STL::pair<unsigned long const ,unsigned long> > >::_M_erase
_TEXT	ENDS
PUBLIC	??$_M_find@K@?$_Rb_tree@KU?$pair@$$CBKK@_STL@@U?$_Select1st@U?$pair@$$CBKK@_STL@@@2@U?$less@K@2@V?$allocator@U?$pair@$$CBKK@_STL@@@2@@_STL@@ABEPAU?$_Rb_tree_node@U?$pair@$$CBKK@_STL@@@1@ABK@Z ; _STL::_Rb_tree<unsigned long,_STL::pair<unsigned long const ,unsigned long>,_STL::_Select1st<_STL::pair<unsigned long const ,unsigned long> >,_STL::less<unsigned long>,_STL::allocator<_STL::pair<unsigned long const ,unsigned long> > >::_M_find<unsigned long>
; Function compile flags: /Ogsy
; File c:\stlport-4.6.1\stlport\stl\_tree.h
;	COMDAT ??$_M_find@K@?$_Rb_tree@KU?$pair@$$CBKK@_STL@@U?$_Select1st@U?$pair@$$CBKK@_STL@@@2@U?$less@K@2@V?$allocator@U?$pair@$$CBKK@_STL@@@2@@_STL@@ABEPAU?$_Rb_tree_node@U?$pair@$$CBKK@_STL@@@1@ABK@Z
_TEXT	SEGMENT
___k$ = 8						; size = 4
??$_M_find@K@?$_Rb_tree@KU?$pair@$$CBKK@_STL@@U?$_Select1st@U?$pair@$$CBKK@_STL@@@2@U?$less@K@2@V?$allocator@U?$pair@$$CBKK@_STL@@@2@@_STL@@ABEPAU?$_Rb_tree_node@U?$pair@$$CBKK@_STL@@@1@ABK@Z PROC NEAR ; _STL::_Rb_tree<unsigned long,_STL::pair<unsigned long const ,unsigned long>,_STL::_Select1st<_STL::pair<unsigned long const ,unsigned long> >,_STL::less<unsigned long>,_STL::allocator<_STL::pair<unsigned long const ,unsigned long> > >::_M_find<unsigned long>, COMDAT
; _this$ = ecx

; 462  : # else
; 463  :   iterator find(const key_type& __x) { return iterator(_M_find(__x)); }
; 464  :   const_iterator find(const key_type& __x) const { return const_iterator(_M_find(__x)); }
; 465  : private:
; 466  :   _Rb_tree_node<_Value>* _M_find(const key_type& __k) const
; 467  : # endif
; 468  :   {
; 469  :     _Link_type __y = this->_M_header._M_data;      // Last node which is not less than __k. 

  00000	8b 11		 mov	 edx, DWORD PTR [ecx]

; 470  :     _Link_type __x = _M_root();      // Current node. 

  00002	8b 4a 04	 mov	 ecx, DWORD PTR [edx+4]

; 471  :     
; 472  :     while (__x != 0) 

  00005	85 c9		 test	 ecx, ecx
  00007	57		 push	 edi
  00008	8b 7c 24 08	 mov	 edi, DWORD PTR ___k$[esp]
  0000c	8b c2		 mov	 eax, edx
  0000e	74 17		 je	 SHORT $L101961
  00010	56		 push	 esi
  00011	8b 37		 mov	 esi, DWORD PTR [edi]
$L101960:

; 473  :       if (!_M_key_compare(_S_key(__x), __k))

  00013	39 71 10	 cmp	 DWORD PTR [ecx+16], esi
  00016	72 07		 jb	 SHORT $L101962

; 474  : 	__y = __x, __x = _S_left(__x);

  00018	8b c1		 mov	 eax, ecx
  0001a	8b 49 08	 mov	 ecx, DWORD PTR [ecx+8]

; 475  :       else

  0001d	eb 03		 jmp	 SHORT $L101963
$L101962:

; 476  : 	__x = _S_right(__x);

  0001f	8b 49 0c	 mov	 ecx, DWORD PTR [ecx+12]
$L101963:

; 471  :     
; 472  :     while (__x != 0) 

  00022	85 c9		 test	 ecx, ecx
  00024	75 ed		 jne	 SHORT $L101960
  00026	5e		 pop	 esi
$L101961:

; 477  :     if (__y == this->_M_header._M_data || _M_key_compare(__k, _S_key(__y)))

  00027	3b c2		 cmp	 eax, edx
  00029	74 07		 je	 SHORT $L101965
  0002b	8b 0f		 mov	 ecx, DWORD PTR [edi]
  0002d	3b 48 10	 cmp	 ecx, DWORD PTR [eax+16]
  00030	73 02		 jae	 SHORT $L101964
$L101965:

; 478  :       __y = this->_M_header._M_data;

  00032	8b c2		 mov	 eax, edx
$L101964:
  00034	5f		 pop	 edi

; 479  :     return __y;
; 480  :   }

  00035	c2 04 00	 ret	 4
??$_M_find@K@?$_Rb_tree@KU?$pair@$$CBKK@_STL@@U?$_Select1st@U?$pair@$$CBKK@_STL@@@2@U?$less@K@2@V?$allocator@U?$pair@$$CBKK@_STL@@@2@@_STL@@ABEPAU?$_Rb_tree_node@U?$pair@$$CBKK@_STL@@@1@ABK@Z ENDP ; _STL::_Rb_tree<unsigned long,_STL::pair<unsigned long const ,unsigned long>,_STL::_Select1st<_STL::pair<unsigned long const ,unsigned long> >,_STL::less<unsigned long>,_STL::allocator<_STL::pair<unsigned long const ,unsigned long> > >::_M_find<unsigned long>
_TEXT	ENDS
PUBLIC	??$distance@PBD@_STL@@YAHABQBD0@Z		; _STL::distance<char const *>
; Function compile flags: /Ogsy
; File c:\stlport-4.6.1\stlport\stl\_iterator_base.h
;	COMDAT ??$distance@PBD@_STL@@YAHABQBD0@Z
_TEXT	SEGMENT
___first$ = 8						; size = 4
___last$ = 12						; size = 4
??$distance@PBD@_STL@@YAHABQBD0@Z PROC NEAR		; _STL::distance<char const *>, COMDAT

; 369  :   return __distance(__first, __last, _STLP_ITERATOR_CATEGORY(__first, _InputIterator));  

  00000	8b 44 24 08	 mov	 eax, DWORD PTR ___last$[esp-4]
  00004	8b 00		 mov	 eax, DWORD PTR [eax]
  00006	8b 4c 24 04	 mov	 ecx, DWORD PTR ___first$[esp-4]
  0000a	2b 01		 sub	 eax, DWORD PTR [ecx]

; 370  : }

  0000c	c3		 ret	 0
??$distance@PBD@_STL@@YAHABQBD0@Z ENDP			; _STL::distance<char const *>
_TEXT	ENDS
PUBLIC	?_M_allocate_block@?$_String_base@DV?$allocator@D@_STL@@@_STL@@QAEXI@Z ; _STL::_String_base<char,_STL::allocator<char> >::_M_allocate_block
; Function compile flags: /Ogsy
; File c:\stlport-4.6.1\stlport\stl\_string.c
;	COMDAT ?_M_allocate_block@?$_String_base@DV?$allocator@D@_STL@@@_STL@@QAEXI@Z
_TEXT	SEGMENT
___n$ = 8						; size = 4
?_M_allocate_block@?$_String_base@DV?$allocator@D@_STL@@@_STL@@QAEXI@Z PROC NEAR ; _STL::_String_base<char,_STL::allocator<char> >::_M_allocate_block, COMDAT
; _this$ = ecx

; 530  : template <class _Tp, class _Alloc> void _String_base<_Tp, _Alloc>::_M_allocate_block(size_t __n) {  

  00000	56		 push	 esi
  00001	57		 push	 edi

; 531  :   if ((__n <= (max_size()+1)) && (__n>0)){ 

  00002	8b 7c 24 0c	 mov	 edi, DWORD PTR ___n$[esp+4]
  00006	83 ff ff	 cmp	 edi, -1
  00009	8b f1		 mov	 esi, ecx
  0000b	77 17		 ja	 SHORT $L102006
  0000d	85 ff		 test	 edi, edi
  0000f	76 13		 jbe	 SHORT $L102006

; 532  :     _M_start  = _M_end_of_storage.allocate(__n); 

  00011	57		 push	 edi
  00012	e8 00 00 00 00	 call	 ?allocate@?$__node_alloc@$00$0A@@_STL@@SAPAXI@Z ; _STL::__node_alloc<1,0>::allocate
  00017	89 06		 mov	 DWORD PTR [esi], eax

; 533  :     _M_finish = _M_start; 

  00019	89 46 04	 mov	 DWORD PTR [esi+4], eax

; 534  :     _M_end_of_storage._M_data = _M_start + __n; 

  0001c	03 c7		 add	 eax, edi
  0001e	59		 pop	 ecx
  0001f	89 46 08	 mov	 DWORD PTR [esi+8], eax

; 535  :   } 
; 536  :     else 

  00022	eb 07		 jmp	 SHORT $L102007
$L102006:

; 537  :       _M_throw_length_error(); 

  00024	8b ce		 mov	 ecx, esi
  00026	e8 00 00 00 00	 call	 ?_M_throw_length_error@?$_String_base@DV?$allocator@D@_STL@@@_STL@@QBEXXZ ; _STL::_String_base<char,_STL::allocator<char> >::_M_throw_length_error
$L102007:
  0002b	5f		 pop	 edi
  0002c	5e		 pop	 esi

; 538  : } 

  0002d	c2 04 00	 ret	 4
?_M_allocate_block@?$_String_base@DV?$allocator@D@_STL@@@_STL@@QAEXI@Z ENDP ; _STL::_String_base<char,_STL::allocator<char> >::_M_allocate_block
_TEXT	ENDS
PUBLIC	??$distance@PAD@_STL@@YAHABQAD0@Z		; _STL::distance<char *>
; Function compile flags: /Ogsy
; File c:\stlport-4.6.1\stlport\stl\_iterator_base.h
;	COMDAT ??$distance@PAD@_STL@@YAHABQAD0@Z
_TEXT	SEGMENT
___first$ = 8						; size = 4
___last$ = 12						; size = 4
??$distance@PAD@_STL@@YAHABQAD0@Z PROC NEAR		; _STL::distance<char *>, COMDAT

; 369  :   return __distance(__first, __last, _STLP_ITERATOR_CATEGORY(__first, _InputIterator));  

  00000	8b 44 24 08	 mov	 eax, DWORD PTR ___last$[esp-4]
  00004	8b 00		 mov	 eax, DWORD PTR [eax]
  00006	8b 4c 24 04	 mov	 ecx, DWORD PTR ___first$[esp-4]
  0000a	2b 01		 sub	 eax, DWORD PTR [ecx]

; 370  : }

  0000c	c3		 ret	 0
??$distance@PAD@_STL@@YAHABQAD0@Z ENDP			; _STL::distance<char *>
_TEXT	ENDS
PUBLIC	??$_Construct@U?$pair@$$CBKK@_STL@@U12@@_STL@@YAXPAU?$pair@$$CBKK@0@ABU10@@Z ; _STL::_Construct<_STL::pair<unsigned long const ,unsigned long>,_STL::pair<unsigned long const ,unsigned long> >
; Function compile flags: /Ogsy
; File c:\stlport-4.6.1\stlport\stl\_construct.h
;	COMDAT ??$_Construct@U?$pair@$$CBKK@_STL@@U12@@_STL@@YAXPAU?$pair@$$CBKK@0@ABU10@@Z
_TEXT	SEGMENT
___p$ = 8						; size = 4
___val$ = 12						; size = 4
??$_Construct@U?$pair@$$CBKK@_STL@@U12@@_STL@@YAXPAU?$pair@$$CBKK@0@ABU10@@Z PROC NEAR ; _STL::_Construct<_STL::pair<unsigned long const ,unsigned long>,_STL::pair<unsigned long const ,unsigned long> >, COMDAT

; 94   : # ifdef _STLP_DEBUG_UNINITIALIZED
; 95   : 	memset((char*)__p, _STLP_SHRED_BYTE, sizeof(_T1));
; 96   : # endif
; 97   :     _STLP_PLACEMENT_NEW (__p) _T1(__val);

  00000	8b 44 24 04	 mov	 eax, DWORD PTR ___p$[esp-4]
  00004	85 c0		 test	 eax, eax
  00006	74 0e		 je	 SHORT $L102978
  00008	8b 4c 24 08	 mov	 ecx, DWORD PTR ___val$[esp-4]
  0000c	8b 11		 mov	 edx, DWORD PTR [ecx]
  0000e	89 10		 mov	 DWORD PTR [eax], edx
  00010	8b 49 04	 mov	 ecx, DWORD PTR [ecx+4]
  00013	89 48 04	 mov	 DWORD PTR [eax+4], ecx
$L102978:

; 98   : }

  00016	c3		 ret	 0
??$_Construct@U?$pair@$$CBKK@_STL@@U12@@_STL@@YAXPAU?$pair@$$CBKK@0@ABU10@@Z ENDP ; _STL::_Construct<_STL::pair<unsigned long const ,unsigned long>,_STL::pair<unsigned long const ,unsigned long> >
_TEXT	ENDS
PUBLIC	??$__copy_aux@PADPAD@_STL@@YAPADPAD00ABU__true_type@0@@Z ; _STL::__copy_aux<char *,char *>
; Function compile flags: /Ogsy
; File c:\stlport-4.6.1\stlport\stl\_algobase.h
;	COMDAT ??$__copy_aux@PADPAD@_STL@@YAPADPAD00ABU__true_type@0@@Z
_TEXT	SEGMENT
___first$ = 8						; size = 4
___last$ = 12						; size = 4
___result$ = 16						; size = 4
___formal$ = 20						; size = 4
??$__copy_aux@PADPAD@_STL@@YAPADPAD00ABU__true_type@0@@Z PROC NEAR ; _STL::__copy_aux<char *,char *>, COMDAT

; 202  :   return __copy_ptrs(__first, __last, __result, 
; 203  :                      _IsOKToMemCpy(_STLP_VALUE_TYPE(__first, _InputIter), 
; 204  :                                    _STLP_VALUE_TYPE(__result, _OutputIter))._Ret());

  00000	ff 74 24 0c	 push	 DWORD PTR ___result$[esp-4]
  00004	ff 74 24 0c	 push	 DWORD PTR ___last$[esp]
  00008	ff 74 24 0c	 push	 DWORD PTR ___first$[esp+4]
  0000c	e8 00 00 00 00	 call	 ?__copy_trivial@_STL@@YAPAXPBX0PAX@Z ; _STL::__copy_trivial
  00011	83 c4 0c	 add	 esp, 12			; 0000000cH

; 205  : }

  00014	c3		 ret	 0
??$__copy_aux@PADPAD@_STL@@YAPADPAD00ABU__true_type@0@@Z ENDP ; _STL::__copy_aux<char *,char *>
_TEXT	ENDS
PUBLIC	??1?$_STLP_alloc_proxy@PAU?$_List_node@V?$basic_string@DV?$char_traits@D@_STL@@V?$allocator@D@2@@_STL@@@_STL@@U12@V?$allocator@U?$_List_node@V?$basic_string@DV?$char_traits@D@_STL@@V?$allocator@D@2@@_STL@@@_STL@@@2@@_STL@@QAE@XZ ; _STL::_STLP_alloc_proxy<_STL::_List_node<_STL::basic_string<char,_STL::char_traits<char>,_STL::allocator<char> > > *,_STL::_List_node<_STL::basic_string<char,_STL::char_traits<char>,_STL::allocator<char> > >,_STL::allocator<_STL::_List_node<_STL::basic_string<char,_STL::char_traits<char>,_STL::allocator<char> > > > >::~_STLP_alloc_proxy<_STL::_List_node<_STL::basic_string<char,_STL::char_traits<char>,_STL::allocator<char> > > *,_STL::_List_node<_STL::basic_string<char,_STL::char_traits<char>,_STL::allocator<char> > >,_STL::allocator<_STL::_List_node<_STL::basic_string<char,_STL::char_traits<char>,_STL::allocator<char> > > > >
; Function compile flags: /Ogsy
;	COMDAT ??1?$_STLP_alloc_proxy@PAU?$_List_node@V?$basic_string@DV?$char_traits@D@_STL@@V?$allocator@D@2@@_STL@@@_STL@@U12@V?$allocator@U?$_List_node@V?$basic_string@DV?$char_traits@D@_STL@@V?$allocator@D@2@@_STL@@@_STL@@@2@@_STL@@QAE@XZ
_TEXT	SEGMENT
??1?$_STLP_alloc_proxy@PAU?$_List_node@V?$basic_string@DV?$char_traits@D@_STL@@V?$allocator@D@2@@_STL@@@_STL@@U12@V?$allocator@U?$_List_node@V?$basic_string@DV?$char_traits@D@_STL@@V?$allocator@D@2@@_STL@@@_STL@@@2@@_STL@@QAE@XZ PROC NEAR ; _STL::_STLP_alloc_proxy<_STL::_List_node<_STL::basic_string<char,_STL::char_traits<char>,_STL::allocator<char> > > *,_STL::_List_node<_STL::basic_string<char,_STL::char_traits<char>,_STL::allocator<char> > >,_STL::allocator<_STL::_List_node<_STL::basic_string<char,_STL::char_traits<char>,_STL::allocator<char> > > > >::~_STLP_alloc_proxy<_STL::_List_node<_STL::basic_string<char,_STL::char_traits<char>,_STL::allocator<char> > > *,_STL::_List_node<_STL::basic_string<char,_STL::char_traits<char>,_STL::allocator<char> > >,_STL::allocator<_STL::_List_node<_STL::basic_string<char,_STL::char_traits<char>,_STL::allocator<char> > > > >, COMDAT
; _this$ = ecx
  00000	c3		 ret	 0
??1?$_STLP_alloc_proxy@PAU?$_List_node@V?$basic_string@DV?$char_traits@D@_STL@@V?$allocator@D@2@@_STL@@@_STL@@U12@V?$allocator@U?$_List_node@V?$basic_string@DV?$char_traits@D@_STL@@V?$allocator@D@2@@_STL@@@_STL@@@2@@_STL@@QAE@XZ ENDP ; _STL::_STLP_alloc_proxy<_STL::_List_node<_STL::basic_string<char,_STL::char_traits<char>,_STL::allocator<char> > > *,_STL::_List_node<_STL::basic_string<char,_STL::char_traits<char>,_STL::allocator<char> > >,_STL::allocator<_STL::_List_node<_STL::basic_string<char,_STL::char_traits<char>,_STL::allocator<char> > > > >::~_STLP_alloc_proxy<_STL::_List_node<_STL::basic_string<char,_STL::char_traits<char>,_STL::allocator<char> > > *,_STL::_List_node<_STL::basic_string<char,_STL::char_traits<char>,_STL::allocator<char> > >,_STL::allocator<_STL::_List_node<_STL::basic_string<char,_STL::char_traits<char>,_STL::allocator<char> > > > >
_TEXT	ENDS
PUBLIC	??0?$_STLP_alloc_proxy@PAU?$_List_node@V?$basic_string@DV?$char_traits@D@_STL@@V?$allocator@D@2@@_STL@@@_STL@@U12@V?$allocator@U?$_List_node@V?$basic_string@DV?$char_traits@D@_STL@@V?$allocator@D@2@@_STL@@@_STL@@@2@@_STL@@QAE@ABV?$allocator@U?$_List_node@V?$basic_string@DV?$char_traits@D@_STL@@V?$allocator@D@2@@_STL@@@_STL@@@1@PAU?$_List_node@V?$basic_string@DV?$char_traits@D@_STL@@V?$allocator@D@2@@_STL@@@1@@Z ; _STL::_STLP_alloc_proxy<_STL::_List_node<_STL::basic_string<char,_STL::char_traits<char>,_STL::allocator<char> > > *,_STL::_List_node<_STL::basic_string<char,_STL::char_traits<char>,_STL::allocator<char> > >,_STL::allocator<_STL::_List_node<_STL::basic_string<char,_STL::char_traits<char>,_STL::allocator<char> > > > >::_STLP_alloc_proxy<_STL::_List_node<_STL::basic_string<char,_STL::char_traits<char>,_STL::allocator<char> > > *,_STL::_List_node<_STL::basic_string<char,_STL::char_traits<char>,_STL::allocator<char> > >,_STL::allocator<_STL::_List_node<_STL::basic_string<char,_STL::char_traits<char>,_STL::allocator<char> > > > >
; Function compile flags: /Ogsy
; File c:\stlport-4.6.1\stlport\stl\_alloc.h
;	COMDAT ??0?$_STLP_alloc_proxy@PAU?$_List_node@V?$basic_string@DV?$char_traits@D@_STL@@V?$allocator@D@2@@_STL@@@_STL@@U12@V?$allocator@U?$_List_node@V?$basic_string@DV?$char_traits@D@_STL@@V?$allocator@D@2@@_STL@@@_STL@@@2@@_STL@@QAE@ABV?$allocator@U?$_List_node@V?$basic_string@DV?$char_traits@D@_STL@@V?$allocator@D@2@@_STL@@@_STL@@@1@PAU?$_List_node@V?$basic_string@DV?$char_traits@D@_STL@@V?$allocator@D@2@@_STL@@@1@@Z
_TEXT	SEGMENT
___a$ = 8						; size = 4
___p$ = 12						; size = 4
??0?$_STLP_alloc_proxy@PAU?$_List_node@V?$basic_string@DV?$char_traits@D@_STL@@V?$allocator@D@2@@_STL@@@_STL@@U12@V?$allocator@U?$_List_node@V?$basic_string@DV?$char_traits@D@_STL@@V?$allocator@D@2@@_STL@@@_STL@@@2@@_STL@@QAE@ABV?$allocator@U?$_List_node@V?$basic_string@DV?$char_traits@D@_STL@@V?$allocator@D@2@@_STL@@@_STL@@@1@PAU?$_List_node@V?$basic_string@DV?$char_traits@D@_STL@@V?$allocator@D@2@@_STL@@@1@@Z PROC NEAR ; _STL::_STLP_alloc_proxy<_STL::_List_node<_STL::basic_string<char,_STL::char_traits<char>,_STL::allocator<char> > > *,_STL::_List_node<_STL::basic_string<char,_STL::char_traits<char>,_STL::allocator<char> > >,_STL::allocator<_STL::_List_node<_STL::basic_string<char,_STL::char_traits<char>,_STL::allocator<char> > > > >::_STLP_alloc_proxy<_STL::_List_node<_STL::basic_string<char,_STL::char_traits<char>,_STL::allocator<char> > > *,_STL::_List_node<_STL::basic_string<char,_STL::char_traits<char>,_STL::allocator<char> > >,_STL::allocator<_STL::_List_node<_STL::basic_string<char,_STL::char_traits<char>,_STL::allocator<char> > > > >, COMDAT
; _this$ = ecx

; 487  :   inline _STLP_alloc_proxy(const _MaybeReboundAlloc& __a, _Value __p) : _MaybeReboundAlloc(__a), _M_data(__p) {}

  00000	8b c1		 mov	 eax, ecx
  00002	8b 4c 24 08	 mov	 ecx, DWORD PTR ___p$[esp-4]
  00006	89 08		 mov	 DWORD PTR [eax], ecx
  00008	c2 08 00	 ret	 8
??0?$_STLP_alloc_proxy@PAU?$_List_node@V?$basic_string@DV?$char_traits@D@_STL@@V?$allocator@D@2@@_STL@@@_STL@@U12@V?$allocator@U?$_List_node@V?$basic_string@DV?$char_traits@D@_STL@@V?$allocator@D@2@@_STL@@@_STL@@@2@@_STL@@QAE@ABV?$allocator@U?$_List_node@V?$basic_string@DV?$char_traits@D@_STL@@V?$allocator@D@2@@_STL@@@_STL@@@1@PAU?$_List_node@V?$basic_string@DV?$char_traits@D@_STL@@V?$allocator@D@2@@_STL@@@1@@Z ENDP ; _STL::_STLP_alloc_proxy<_STL::_List_node<_STL::basic_string<char,_STL::char_traits<char>,_STL::allocator<char> > > *,_STL::_List_node<_STL::basic_string<char,_STL::char_traits<char>,_STL::allocator<char> > >,_STL::allocator<_STL::_List_node<_STL::basic_string<char,_STL::char_traits<char>,_STL::allocator<char> > > > >::_STLP_alloc_proxy<_STL::_List_node<_STL::basic_string<char,_STL::char_traits<char>,_STL::allocator<char> > > *,_STL::_List_node<_STL::basic_string<char,_STL::char_traits<char>,_STL::allocator<char> > >,_STL::allocator<_STL::_List_node<_STL::basic_string<char,_STL::char_traits<char>,_STL::allocator<char> > > > >
_TEXT	ENDS
PUBLIC	?allocate@?$allocator@U?$_List_node@V?$basic_string@DV?$char_traits@D@_STL@@V?$allocator@D@2@@_STL@@@_STL@@@_STL@@QAEPAU?$_List_node@V?$basic_string@DV?$char_traits@D@_STL@@V?$allocator@D@2@@_STL@@@2@IPBX@Z ; _STL::allocator<_STL::_List_node<_STL::basic_string<char,_STL::char_traits<char>,_STL::allocator<char> > > >::allocate
; Function compile flags: /Ogsy
;	COMDAT ?allocate@?$allocator@U?$_List_node@V?$basic_string@DV?$char_traits@D@_STL@@V?$allocator@D@2@@_STL@@@_STL@@@_STL@@QAEPAU?$_List_node@V?$basic_string@DV?$char_traits@D@_STL@@V?$allocator@D@2@@_STL@@@2@IPBX@Z
_TEXT	SEGMENT
___n$ = 8						; size = 4
___formal$ = 12						; size = 4
?allocate@?$allocator@U?$_List_node@V?$basic_string@DV?$char_traits@D@_STL@@V?$allocator@D@2@@_STL@@@_STL@@@_STL@@QAEPAU?$_List_node@V?$basic_string@DV?$char_traits@D@_STL@@V?$allocator@D@2@@_STL@@@2@IPBX@Z PROC NEAR ; _STL::allocator<_STL::_List_node<_STL::basic_string<char,_STL::char_traits<char>,_STL::allocator<char> > > >::allocate, COMDAT
; _this$ = ecx

; 355  :     return __n != 0 ? __REINTERPRET_CAST(value_type*,__sgi_alloc::allocate(__n * sizeof(value_type))) : 0;

  00000	8b 44 24 04	 mov	 eax, DWORD PTR ___n$[esp-4]
  00004	85 c0		 test	 eax, eax
  00006	74 0f		 je	 SHORT $L103017
  00008	8d 04 80	 lea	 eax, DWORD PTR [eax+eax*4]
  0000b	c1 e0 02	 shl	 eax, 2
  0000e	50		 push	 eax
  0000f	e8 00 00 00 00	 call	 ?allocate@?$__node_alloc@$00$0A@@_STL@@SAPAXI@Z ; _STL::__node_alloc<1,0>::allocate
  00014	59		 pop	 ecx
  00015	eb 02		 jmp	 SHORT $L103018
$L103017:
  00017	33 c0		 xor	 eax, eax
$L103018:

; 356  :   }

  00019	c2 08 00	 ret	 8
?allocate@?$allocator@U?$_List_node@V?$basic_string@DV?$char_traits@D@_STL@@V?$allocator@D@2@@_STL@@@_STL@@@_STL@@QAEPAU?$_List_node@V?$basic_string@DV?$char_traits@D@_STL@@V?$allocator@D@2@@_STL@@@2@IPBX@Z ENDP ; _STL::allocator<_STL::_List_node<_STL::basic_string<char,_STL::char_traits<char>,_STL::allocator<char> > > >::allocate
_TEXT	ENDS
PUBLIC	?deallocate@?$allocator@U?$_List_node@V?$basic_string@DV?$char_traits@D@_STL@@V?$allocator@D@2@@_STL@@@_STL@@@_STL@@QAEXPAU?$_List_node@V?$basic_string@DV?$char_traits@D@_STL@@V?$allocator@D@2@@_STL@@@2@I@Z ; _STL::allocator<_STL::_List_node<_STL::basic_string<char,_STL::char_traits<char>,_STL::allocator<char> > > >::deallocate
; Function compile flags: /Ogsy
;	COMDAT ?deallocate@?$allocator@U?$_List_node@V?$basic_string@DV?$char_traits@D@_STL@@V?$allocator@D@2@@_STL@@@_STL@@@_STL@@QAEXPAU?$_List_node@V?$basic_string@DV?$char_traits@D@_STL@@V?$allocator@D@2@@_STL@@@2@I@Z
_TEXT	SEGMENT
___p$ = 8						; size = 4
___n$ = 12						; size = 4
?deallocate@?$allocator@U?$_List_node@V?$basic_string@DV?$char_traits@D@_STL@@V?$allocator@D@2@@_STL@@@_STL@@@_STL@@QAEXPAU?$_List_node@V?$basic_string@DV?$char_traits@D@_STL@@V?$allocator@D@2@@_STL@@@2@I@Z PROC NEAR ; _STL::allocator<_STL::_List_node<_STL::basic_string<char,_STL::char_traits<char>,_STL::allocator<char> > > >::deallocate, COMDAT
; _this$ = ecx

; 359  :     _STLP_ASSERT( (__p == 0) == (__n == 0) )
; 360  :       if (__p != 0) __sgi_alloc::deallocate((void*)__p, __n * sizeof(value_type));

  00000	83 7c 24 04 00	 cmp	 DWORD PTR ___p$[esp-4], 0
  00005	74 16		 je	 SHORT $L98656
  00007	8b 44 24 08	 mov	 eax, DWORD PTR ___n$[esp-4]
  0000b	8d 04 80	 lea	 eax, DWORD PTR [eax+eax*4]
  0000e	c1 e0 02	 shl	 eax, 2
  00011	50		 push	 eax
  00012	ff 74 24 08	 push	 DWORD PTR ___p$[esp]
  00016	e8 00 00 00 00	 call	 ?deallocate@?$__node_alloc@$00$0A@@_STL@@SAXPAXI@Z ; _STL::__node_alloc<1,0>::deallocate
  0001b	59		 pop	 ecx
  0001c	59		 pop	 ecx
$L98656:

; 361  :   }

  0001d	c2 08 00	 ret	 8
?deallocate@?$allocator@U?$_List_node@V?$basic_string@DV?$char_traits@D@_STL@@V?$allocator@D@2@@_STL@@@_STL@@@_STL@@QAEXPAU?$_List_node@V?$basic_string@DV?$char_traits@D@_STL@@V?$allocator@D@2@@_STL@@@2@I@Z ENDP ; _STL::allocator<_STL::_List_node<_STL::basic_string<char,_STL::char_traits<char>,_STL::allocator<char> > > >::deallocate
_TEXT	ENDS
PUBLIC	?deallocate@?$allocator@D@_STL@@QAEXPADI@Z	; _STL::allocator<char>::deallocate
; Function compile flags: /Ogsy
;	COMDAT ?deallocate@?$allocator@D@_STL@@QAEXPADI@Z
_TEXT	SEGMENT
___p$ = 8						; size = 4
___n$ = 12						; size = 4
?deallocate@?$allocator@D@_STL@@QAEXPADI@Z PROC NEAR	; _STL::allocator<char>::deallocate, COMDAT
; _this$ = ecx

; 359  :     _STLP_ASSERT( (__p == 0) == (__n == 0) )
; 360  :       if (__p != 0) __sgi_alloc::deallocate((void*)__p, __n * sizeof(value_type));

  00000	83 7c 24 04 00	 cmp	 DWORD PTR ___p$[esp-4], 0
  00005	74 0f		 je	 SHORT $L98663
  00007	ff 74 24 08	 push	 DWORD PTR ___n$[esp-4]
  0000b	ff 74 24 08	 push	 DWORD PTR ___p$[esp]
  0000f	e8 00 00 00 00	 call	 ?deallocate@?$__node_alloc@$00$0A@@_STL@@SAXPAXI@Z ; _STL::__node_alloc<1,0>::deallocate
  00014	59		 pop	 ecx
  00015	59		 pop	 ecx
$L98663:

; 361  :   }

  00016	c2 08 00	 ret	 8
?deallocate@?$allocator@D@_STL@@QAEXPADI@Z ENDP		; _STL::allocator<char>::deallocate
_TEXT	ENDS
PUBLIC	?getPacketSize@GCTimeLimitItemInfo@@UBEIXZ	; GCTimeLimitItemInfo::getPacketSize
; Function compile flags: /Ogsy
; File c:\darkeden\designed_common\project\client\packet\gpackets\gctimelimititeminfo.cpp
;	COMDAT ?getPacketSize@GCTimeLimitItemInfo@@UBEIXZ
_TEXT	SEGMENT
?getPacketSize@GCTimeLimitItemInfo@@UBEIXZ PROC NEAR	; GCTimeLimitItemInfo::getPacketSize, COMDAT
; _this$ = ecx

; 81   : 	__BEGIN_TRY
; 82   : 
; 83   : 	return szBYTE + m_TimeLimitItemInfos.size() * ( szObjectID + szDWORD );

  00000	8b 41 08	 mov	 eax, DWORD PTR [ecx+8]
  00003	8d 04 c5 01 00
	00 00		 lea	 eax, DWORD PTR [eax*8+1]

; 84   : 
; 85   : 	__END_CATCH
; 86   : }

  0000a	c3		 ret	 0
?getPacketSize@GCTimeLimitItemInfo@@UBEIXZ ENDP		; GCTimeLimitItemInfo::getPacketSize
_TEXT	ENDS
PUBLIC	??0?$_String_base@DV?$allocator@D@_STL@@@_STL@@QAE@ABV?$allocator@D@1@@Z ; _STL::_String_base<char,_STL::allocator<char> >::_String_base<char,_STL::allocator<char> >
; Function compile flags: /Ogsy
; File c:\stlport-4.6.1\stlport\stl\_string.h
;	COMDAT ??0?$_String_base@DV?$allocator@D@_STL@@@_STL@@QAE@ABV?$allocator@D@1@@Z
_TEXT	SEGMENT
___a$ = 8						; size = 4
??0?$_String_base@DV?$allocator@D@_STL@@@_STL@@QAE@ABV?$allocator@D@1@@Z PROC NEAR ; _STL::_String_base<char,_STL::allocator<char> >::_String_base<char,_STL::allocator<char> >, COMDAT
; _this$ = ecx

; 129  :     : _M_start(0), _M_finish(0), _M_end_of_storage(__a, (_Tp*)0) {}

  00000	56		 push	 esi
  00001	33 c0		 xor	 eax, eax
  00003	8b f1		 mov	 esi, ecx
  00005	50		 push	 eax
  00006	ff 74 24 0c	 push	 DWORD PTR ___a$[esp+4]
  0000a	8d 4e 08	 lea	 ecx, DWORD PTR [esi+8]
  0000d	89 06		 mov	 DWORD PTR [esi], eax
  0000f	89 46 04	 mov	 DWORD PTR [esi+4], eax
  00012	e8 00 00 00 00	 call	 ??0?$_STLP_alloc_proxy@PADDV?$allocator@D@_STL@@@_STL@@QAE@ABV?$allocator@D@1@PAD@Z ; _STL::_STLP_alloc_proxy<char *,char,_STL::allocator<char> >::_STLP_alloc_proxy<char *,char,_STL::allocator<char> >
  00017	8b c6		 mov	 eax, esi
  00019	5e		 pop	 esi
  0001a	c2 04 00	 ret	 4
??0?$_String_base@DV?$allocator@D@_STL@@@_STL@@QAE@ABV?$allocator@D@1@@Z ENDP ; _STL::_String_base<char,_STL::allocator<char> >::_String_base<char,_STL::allocator<char> >
_TEXT	ENDS
PUBLIC	?begin@?$map@KKU?$less@K@_STL@@V?$allocator@U?$pair@$$CBKK@_STL@@@2@@_STL@@QBE?AU?$_Rb_tree_iterator@U?$pair@$$CBKK@_STL@@U?$_Const_traits@U?$pair@$$CBKK@_STL@@@2@@2@XZ ; _STL::map<unsigned long,unsigned long,_STL::less<unsigned long>,_STL::allocator<_STL::pair<unsigned long const ,unsigned long> > >::begin
; Function compile flags: /Ogsy
; File c:\stlport-4.6.1\stlport\stl\_map.h
;	COMDAT ?begin@?$map@KKU?$less@K@_STL@@V?$allocator@U?$pair@$$CBKK@_STL@@@2@@_STL@@QBE?AU?$_Rb_tree_iterator@U?$pair@$$CBKK@_STL@@U?$_Const_traits@U?$pair@$$CBKK@_STL@@@2@@2@XZ
_TEXT	SEGMENT
___$ReturnUdt$ = 8					; size = 4
?begin@?$map@KKU?$less@K@_STL@@V?$allocator@U?$pair@$$CBKK@_STL@@@2@@_STL@@QBE?AU?$_Rb_tree_iterator@U?$pair@$$CBKK@_STL@@U?$_Const_traits@U?$pair@$$CBKK@_STL@@@2@@2@XZ PROC NEAR ; _STL::map<unsigned long,unsigned long,_STL::less<unsigned long>,_STL::allocator<_STL::pair<unsigned long const ,unsigned long> > >::begin, COMDAT
; _this$ = ecx

; 148  :   const_iterator begin() const { return _M_t.begin(); }

  00000	8b 01		 mov	 eax, DWORD PTR [ecx]
  00002	8b 48 08	 mov	 ecx, DWORD PTR [eax+8]
  00005	8b 44 24 04	 mov	 eax, DWORD PTR ___$ReturnUdt$[esp-4]
  00009	89 08		 mov	 DWORD PTR [eax], ecx
  0000b	c2 04 00	 ret	 4
?begin@?$map@KKU?$less@K@_STL@@V?$allocator@U?$pair@$$CBKK@_STL@@@2@@_STL@@QBE?AU?$_Rb_tree_iterator@U?$pair@$$CBKK@_STL@@U?$_Const_traits@U?$pair@$$CBKK@_STL@@@2@@2@XZ ENDP ; _STL::map<unsigned long,unsigned long,_STL::less<unsigned long>,_STL::allocator<_STL::pair<unsigned long const ,unsigned long> > >::begin
_TEXT	ENDS
PUBLIC	?end@?$map@KKU?$less@K@_STL@@V?$allocator@U?$pair@$$CBKK@_STL@@@2@@_STL@@QAE?AU?$_Rb_tree_iterator@U?$pair@$$CBKK@_STL@@U?$_Nonconst_traits@U?$pair@$$CBKK@_STL@@@2@@2@XZ ; _STL::map<unsigned long,unsigned long,_STL::less<unsigned long>,_STL::allocator<_STL::pair<unsigned long const ,unsigned long> > >::end
; Function compile flags: /Ogsy
;	COMDAT ?end@?$map@KKU?$less@K@_STL@@V?$allocator@U?$pair@$$CBKK@_STL@@@2@@_STL@@QAE?AU?$_Rb_tree_iterator@U?$pair@$$CBKK@_STL@@U?$_Nonconst_traits@U?$pair@$$CBKK@_STL@@@2@@2@XZ
_TEXT	SEGMENT
___$ReturnUdt$ = 8					; size = 4
?end@?$map@KKU?$less@K@_STL@@V?$allocator@U?$pair@$$CBKK@_STL@@@2@@_STL@@QAE?AU?$_Rb_tree_iterator@U?$pair@$$CBKK@_STL@@U?$_Nonconst_traits@U?$pair@$$CBKK@_STL@@@2@@2@XZ PROC NEAR ; _STL::map<unsigned long,unsigned long,_STL::less<unsigned long>,_STL::allocator<_STL::pair<unsigned long const ,unsigned long> > >::end, COMDAT
; _this$ = ecx

; 149  :   iterator end() { return _M_t.end(); }

  00000	8b 09		 mov	 ecx, DWORD PTR [ecx]
  00002	8b 44 24 04	 mov	 eax, DWORD PTR ___$ReturnUdt$[esp-4]
  00006	89 08		 mov	 DWORD PTR [eax], ecx
  00008	c2 04 00	 ret	 4
?end@?$map@KKU?$less@K@_STL@@V?$allocator@U?$pair@$$CBKK@_STL@@@2@@_STL@@QAE?AU?$_Rb_tree_iterator@U?$pair@$$CBKK@_STL@@U?$_Nonconst_traits@U?$pair@$$CBKK@_STL@@@2@@2@XZ ENDP ; _STL::map<unsigned long,unsigned long,_STL::less<unsigned long>,_STL::allocator<_STL::pair<unsigned long const ,unsigned long> > >::end
_TEXT	ENDS
PUBLIC	?end@?$map@KKU?$less@K@_STL@@V?$allocator@U?$pair@$$CBKK@_STL@@@2@@_STL@@QBE?AU?$_Rb_tree_iterator@U?$pair@$$CBKK@_STL@@U?$_Const_traits@U?$pair@$$CBKK@_STL@@@2@@2@XZ ; _STL::map<unsigned long,unsigned long,_STL::less<unsigned long>,_STL::allocator<_STL::pair<unsigned long const ,unsigned long> > >::end
; Function compile flags: /Ogsy
;	COMDAT ?end@?$map@KKU?$less@K@_STL@@V?$allocator@U?$pair@$$CBKK@_STL@@@2@@_STL@@QBE?AU?$_Rb_tree_iterator@U?$pair@$$CBKK@_STL@@U?$_Const_traits@U?$pair@$$CBKK@_STL@@@2@@2@XZ
_TEXT	SEGMENT
___$ReturnUdt$ = 8					; size = 4
?end@?$map@KKU?$less@K@_STL@@V?$allocator@U?$pair@$$CBKK@_STL@@@2@@_STL@@QBE?AU?$_Rb_tree_iterator@U?$pair@$$CBKK@_STL@@U?$_Const_traits@U?$pair@$$CBKK@_STL@@@2@@2@XZ PROC NEAR ; _STL::map<unsigned long,unsigned long,_STL::less<unsigned long>,_STL::allocator<_STL::pair<unsigned long const ,unsigned long> > >::end, COMDAT
; _this$ = ecx

; 150  :   const_iterator end() const { return _M_t.end(); }

  00000	8b 09		 mov	 ecx, DWORD PTR [ecx]
  00002	8b 44 24 04	 mov	 eax, DWORD PTR ___$ReturnUdt$[esp-4]
  00006	89 08		 mov	 DWORD PTR [eax], ecx
  00008	c2 04 00	 ret	 4
?end@?$map@KKU?$less@K@_STL@@V?$allocator@U?$pair@$$CBKK@_STL@@@2@@_STL@@QBE?AU?$_Rb_tree_iterator@U?$pair@$$CBKK@_STL@@U?$_Const_traits@U?$pair@$$CBKK@_STL@@@2@@2@XZ ENDP ; _STL::map<unsigned long,unsigned long,_STL::less<unsigned long>,_STL::allocator<_STL::pair<unsigned long const ,unsigned long> > >::end
_TEXT	ENDS
PUBLIC	?clear@?$_Rb_tree@KU?$pair@$$CBKK@_STL@@U?$_Select1st@U?$pair@$$CBKK@_STL@@@2@U?$less@K@2@V?$allocator@U?$pair@$$CBKK@_STL@@@2@@_STL@@QAEXXZ ; _STL::_Rb_tree<unsigned long,_STL::pair<unsigned long const ,unsigned long>,_STL::_Select1st<_STL::pair<unsigned long const ,unsigned long> >,_STL::less<unsigned long>,_STL::allocator<_STL::pair<unsigned long const ,unsigned long> > >::clear
; Function compile flags: /Ogsy
; File c:\stlport-4.6.1\stlport\stl\_tree.h
;	COMDAT ?clear@?$_Rb_tree@KU?$pair@$$CBKK@_STL@@U?$_Select1st@U?$pair@$$CBKK@_STL@@@2@U?$less@K@2@V?$allocator@U?$pair@$$CBKK@_STL@@@2@@_STL@@QAEXXZ
_TEXT	SEGMENT
?clear@?$_Rb_tree@KU?$pair@$$CBKK@_STL@@U?$_Select1st@U?$pair@$$CBKK@_STL@@@2@U?$less@K@2@V?$allocator@U?$pair@$$CBKK@_STL@@@2@@_STL@@QAEXXZ PROC NEAR ; _STL::_Rb_tree<unsigned long,_STL::pair<unsigned long const ,unsigned long>,_STL::_Select1st<_STL::pair<unsigned long const ,unsigned long> >,_STL::less<unsigned long>,_STL::allocator<_STL::pair<unsigned long const ,unsigned long> > >::clear, COMDAT
; _this$ = ecx

; 445  :   void clear() {

  00000	56		 push	 esi
  00001	8b f1		 mov	 esi, ecx

; 446  :     if (_M_node_count != 0) {

  00003	83 7e 04 00	 cmp	 DWORD PTR [esi+4], 0
  00007	74 1e		 je	 SHORT $L101379

; 447  :       _M_erase(_M_root());

  00009	8b 06		 mov	 eax, DWORD PTR [esi]
  0000b	ff 70 04	 push	 DWORD PTR [eax+4]
  0000e	e8 00 00 00 00	 call	 ?_M_erase@?$_Rb_tree@KU?$pair@$$CBKK@_STL@@U?$_Select1st@U?$pair@$$CBKK@_STL@@@2@U?$less@K@2@V?$allocator@U?$pair@$$CBKK@_STL@@@2@@_STL@@AAEXPAU?$_Rb_tree_node@U?$pair@$$CBKK@_STL@@@2@@Z ; _STL::_Rb_tree<unsigned long,_STL::pair<unsigned long const ,unsigned long>,_STL::_Select1st<_STL::pair<unsigned long const ,unsigned long> >,_STL::less<unsigned long>,_STL::allocator<_STL::pair<unsigned long const ,unsigned long> > >::_M_erase

; 448  :       _M_leftmost() = this->_M_header._M_data;

  00013	8b 06		 mov	 eax, DWORD PTR [esi]
  00015	89 40 08	 mov	 DWORD PTR [eax+8], eax

; 449  :       _M_root() = 0;

  00018	8b 06		 mov	 eax, DWORD PTR [esi]
  0001a	83 60 04 00	 and	 DWORD PTR [eax+4], 0

; 450  :       _M_rightmost() = this->_M_header._M_data;

  0001e	8b 06		 mov	 eax, DWORD PTR [esi]
  00020	89 40 0c	 mov	 DWORD PTR [eax+12], eax

; 451  :       _M_node_count = 0;

  00023	83 66 04 00	 and	 DWORD PTR [esi+4], 0
$L101379:
  00027	5e		 pop	 esi

; 452  :     }
; 453  :   }      

  00028	c3		 ret	 0
?clear@?$_Rb_tree@KU?$pair@$$CBKK@_STL@@U?$_Select1st@U?$pair@$$CBKK@_STL@@@2@U?$less@K@2@V?$allocator@U?$pair@$$CBKK@_STL@@@2@@_STL@@QAEXXZ ENDP ; _STL::_Rb_tree<unsigned long,_STL::pair<unsigned long const ,unsigned long>,_STL::_Select1st<_STL::pair<unsigned long const ,unsigned long> >,_STL::less<unsigned long>,_STL::allocator<_STL::pair<unsigned long const ,unsigned long> > >::clear
_TEXT	ENDS
PUBLIC	??1?$_Rb_tree_base@U?$pair@$$CBKK@_STL@@V?$allocator@U?$pair@$$CBKK@_STL@@@2@@_STL@@QAE@XZ ; _STL::_Rb_tree_base<_STL::pair<unsigned long const ,unsigned long>,_STL::allocator<_STL::pair<unsigned long const ,unsigned long> > >::~_Rb_tree_base<_STL::pair<unsigned long const ,unsigned long>,_STL::allocator<_STL::pair<unsigned long const ,unsigned long> > >
; Function compile flags: /Ogsy
;	COMDAT ??1?$_Rb_tree_base@U?$pair@$$CBKK@_STL@@V?$allocator@U?$pair@$$CBKK@_STL@@@2@@_STL@@QAE@XZ
_TEXT	SEGMENT
??1?$_Rb_tree_base@U?$pair@$$CBKK@_STL@@V?$allocator@U?$pair@$$CBKK@_STL@@@2@@_STL@@QAE@XZ PROC NEAR ; _STL::_Rb_tree_base<_STL::pair<unsigned long const ,unsigned long>,_STL::allocator<_STL::pair<unsigned long const ,unsigned long> > >::~_Rb_tree_base<_STL::pair<unsigned long const ,unsigned long>,_STL::allocator<_STL::pair<unsigned long const ,unsigned long> > >, COMDAT
; _this$ = ecx

; 208  :     _M_header.deallocate(_M_header._M_data,1); 

  00000	6a 01		 push	 1
  00002	ff 31		 push	 DWORD PTR [ecx]
  00004	e8 00 00 00 00	 call	 ?deallocate@?$allocator@U?$_Rb_tree_node@U?$pair@$$CBKK@_STL@@@_STL@@@_STL@@QAEXPAU?$_Rb_tree_node@U?$pair@$$CBKK@_STL@@@2@I@Z ; _STL::allocator<_STL::_Rb_tree_node<_STL::pair<unsigned long const ,unsigned long> > >::deallocate

; 209  :   }

  00009	c3		 ret	 0
??1?$_Rb_tree_base@U?$pair@$$CBKK@_STL@@V?$allocator@U?$pair@$$CBKK@_STL@@@2@@_STL@@QAE@XZ ENDP ; _STL::_Rb_tree_base<_STL::pair<unsigned long const ,unsigned long>,_STL::allocator<_STL::pair<unsigned long const ,unsigned long> > >::~_Rb_tree_base<_STL::pair<unsigned long const ,unsigned long>,_STL::allocator<_STL::pair<unsigned long const ,unsigned long> > >
_TEXT	ENDS
PUBLIC	??0?$_Rb_tree_base@U?$pair@$$CBKK@_STL@@V?$allocator@U?$pair@$$CBKK@_STL@@@2@@_STL@@QAE@ABV?$allocator@U?$pair@$$CBKK@_STL@@@1@@Z ; _STL::_Rb_tree_base<_STL::pair<unsigned long const ,unsigned long>,_STL::allocator<_STL::pair<unsigned long const ,unsigned long> > >::_Rb_tree_base<_STL::pair<unsigned long const ,unsigned long>,_STL::allocator<_STL::pair<unsigned long const ,unsigned long> > >
; Function compile flags: /Ogsy
;	COMDAT ??0?$_Rb_tree_base@U?$pair@$$CBKK@_STL@@V?$allocator@U?$pair@$$CBKK@_STL@@@2@@_STL@@QAE@ABV?$allocator@U?$pair@$$CBKK@_STL@@@1@@Z
_TEXT	SEGMENT
$T103102 = -1						; size = 1
___a$ = 8						; size = 4
??0?$_Rb_tree_base@U?$pair@$$CBKK@_STL@@V?$allocator@U?$pair@$$CBKK@_STL@@@2@@_STL@@QAE@ABV?$allocator@U?$pair@$$CBKK@_STL@@@1@@Z PROC NEAR ; _STL::_Rb_tree_base<_STL::pair<unsigned long const ,unsigned long>,_STL::allocator<_STL::pair<unsigned long const ,unsigned long> > >::_Rb_tree_base<_STL::pair<unsigned long const ,unsigned long>,_STL::allocator<_STL::pair<unsigned long const ,unsigned long> > >, COMDAT
; _this$ = ecx

; 204  :     _M_header(_STLP_CONVERT_ALLOCATOR(__a, _Node), (_Node*)0) { 

  00000	51		 push	 ecx
  00001	56		 push	 esi
  00002	6a 00		 push	 0
  00004	8d 44 24 0b	 lea	 eax, DWORD PTR $T103102[esp+12]
  00008	50		 push	 eax
  00009	8b f1		 mov	 esi, ecx
  0000b	e8 00 00 00 00	 call	 ??0?$_STLP_alloc_proxy@PAU?$_Rb_tree_node@U?$pair@$$CBKK@_STL@@@_STL@@U12@V?$allocator@U?$_Rb_tree_node@U?$pair@$$CBKK@_STL@@@_STL@@@2@@_STL@@QAE@ABV?$allocator@U?$_Rb_tree_node@U?$pair@$$CBKK@_STL@@@_STL@@@1@PAU?$_Rb_tree_node@U?$pair@$$CBKK@_STL@@@1@@Z ; _STL::_STLP_alloc_proxy<_STL::_Rb_tree_node<_STL::pair<unsigned long const ,unsigned long> > *,_STL::_Rb_tree_node<_STL::pair<unsigned long const ,unsigned long> >,_STL::allocator<_STL::_Rb_tree_node<_STL::pair<unsigned long const ,unsigned long> > > >::_STLP_alloc_proxy<_STL::_Rb_tree_node<_STL::pair<unsigned long const ,unsigned long> > *,_STL::_Rb_tree_node<_STL::pair<unsigned long const ,unsigned long> >,_STL::allocator<_STL::_Rb_tree_node<_STL::pair<unsigned long const ,unsigned long> > > >

; 205  :       _M_header._M_data = _M_header.allocate(1); 

  00010	6a 18		 push	 24			; 00000018H
  00012	e8 00 00 00 00	 call	 ?allocate@?$__node_alloc@$00$0A@@_STL@@SAPAXI@Z ; _STL::__node_alloc<1,0>::allocate
  00017	89 06		 mov	 DWORD PTR [esi], eax
  00019	59		 pop	 ecx

; 206  :   }

  0001a	8b c6		 mov	 eax, esi
  0001c	5e		 pop	 esi
  0001d	59		 pop	 ecx
  0001e	c2 04 00	 ret	 4
??0?$_Rb_tree_base@U?$pair@$$CBKK@_STL@@V?$allocator@U?$pair@$$CBKK@_STL@@@2@@_STL@@QAE@ABV?$allocator@U?$pair@$$CBKK@_STL@@@1@@Z ENDP ; _STL::_Rb_tree_base<_STL::pair<unsigned long const ,unsigned long>,_STL::allocator<_STL::pair<unsigned long const ,unsigned long> > >::_Rb_tree_base<_STL::pair<unsigned long const ,unsigned long>,_STL::allocator<_STL::pair<unsigned long const ,unsigned long> > >
_TEXT	ENDS
PUBLIC	?_M_lower_bound@?$_Rb_tree@KU?$pair@$$CBKK@_STL@@U?$_Select1st@U?$pair@$$CBKK@_STL@@@2@U?$less@K@2@V?$allocator@U?$pair@$$CBKK@_STL@@@2@@_STL@@ABEPAU?$_Rb_tree_node@U?$pair@$$CBKK@_STL@@@2@ABK@Z ; _STL::_Rb_tree<unsigned long,_STL::pair<unsigned long const ,unsigned long>,_STL::_Select1st<_STL::pair<unsigned long const ,unsigned long> >,_STL::less<unsigned long>,_STL::allocator<_STL::pair<unsigned long const ,unsigned long> > >::_M_lower_bound
; Function compile flags: /Ogsy
;	COMDAT ?_M_lower_bound@?$_Rb_tree@KU?$pair@$$CBKK@_STL@@U?$_Select1st@U?$pair@$$CBKK@_STL@@@2@U?$less@K@2@V?$allocator@U?$pair@$$CBKK@_STL@@@2@@_STL@@ABEPAU?$_Rb_tree_node@U?$pair@$$CBKK@_STL@@@2@ABK@Z
_TEXT	SEGMENT
___k$ = 8						; size = 4
?_M_lower_bound@?$_Rb_tree@KU?$pair@$$CBKK@_STL@@U?$_Select1st@U?$pair@$$CBKK@_STL@@@2@U?$less@K@2@V?$allocator@U?$pair@$$CBKK@_STL@@@2@@_STL@@ABEPAU?$_Rb_tree_node@U?$pair@$$CBKK@_STL@@@2@ABK@Z PROC NEAR ; _STL::_Rb_tree<unsigned long,_STL::pair<unsigned long const ,unsigned long>,_STL::_Select1st<_STL::pair<unsigned long const ,unsigned long> >,_STL::less<unsigned long>,_STL::allocator<_STL::pair<unsigned long const ,unsigned long> > >::_M_lower_bound, COMDAT
; _this$ = ecx

; 483  :     _Link_type __y = this->_M_header._M_data; /* Last node which is not less than __k. */

  00000	8b 01		 mov	 eax, DWORD PTR [ecx]

; 484  :     _Link_type __x = _M_root(); /* Current node. */

  00002	8b 48 04	 mov	 ecx, DWORD PTR [eax+4]

; 485  :     
; 486  :     while (__x != 0) 

  00005	85 c9		 test	 ecx, ecx
  00007	74 19		 je	 SHORT $L101448
  00009	8b 54 24 04	 mov	 edx, DWORD PTR ___k$[esp-4]
  0000d	8b 12		 mov	 edx, DWORD PTR [edx]
$L101447:

; 487  :       if (!_M_key_compare(_S_key(__x), __k))

  0000f	39 51 10	 cmp	 DWORD PTR [ecx+16], edx
  00012	72 07		 jb	 SHORT $L101449

; 488  : 	__y = __x, __x = _S_left(__x);

  00014	8b c1		 mov	 eax, ecx
  00016	8b 49 08	 mov	 ecx, DWORD PTR [ecx+8]

; 489  :       else

  00019	eb 03		 jmp	 SHORT $L101450
$L101449:

; 490  : 	__x = _S_right(__x);

  0001b	8b 49 0c	 mov	 ecx, DWORD PTR [ecx+12]
$L101450:

; 485  :     
; 486  :     while (__x != 0) 

  0001e	85 c9		 test	 ecx, ecx
  00020	75 ed		 jne	 SHORT $L101447
$L101448:

; 491  :     
; 492  :     return __y;
; 493  :   }

  00022	c2 04 00	 ret	 4
?_M_lower_bound@?$_Rb_tree@KU?$pair@$$CBKK@_STL@@U?$_Select1st@U?$pair@$$CBKK@_STL@@@2@U?$less@K@2@V?$allocator@U?$pair@$$CBKK@_STL@@@2@@_STL@@ABEPAU?$_Rb_tree_node@U?$pair@$$CBKK@_STL@@@2@ABK@Z ENDP ; _STL::_Rb_tree<unsigned long,_STL::pair<unsigned long const ,unsigned long>,_STL::_Select1st<_STL::pair<unsigned long const ,unsigned long> >,_STL::less<unsigned long>,_STL::allocator<_STL::pair<unsigned long const ,unsigned long> > >::_M_lower_bound
_TEXT	ENDS
PUBLIC	??$find@K@?$_Rb_tree@KU?$pair@$$CBKK@_STL@@U?$_Select1st@U?$pair@$$CBKK@_STL@@@2@U?$less@K@2@V?$allocator@U?$pair@$$CBKK@_STL@@@2@@_STL@@QAE?AU?$_Rb_tree_iterator@U?$pair@$$CBKK@_STL@@U?$_Nonconst_traits@U?$pair@$$CBKK@_STL@@@2@@1@ABK@Z ; _STL::_Rb_tree<unsigned long,_STL::pair<unsigned long const ,unsigned long>,_STL::_Select1st<_STL::pair<unsigned long const ,unsigned long> >,_STL::less<unsigned long>,_STL::allocator<_STL::pair<unsigned long const ,unsigned long> > >::find<unsigned long>
; Function compile flags: /Ogsy
;	COMDAT ??$find@K@?$_Rb_tree@KU?$pair@$$CBKK@_STL@@U?$_Select1st@U?$pair@$$CBKK@_STL@@@2@U?$less@K@2@V?$allocator@U?$pair@$$CBKK@_STL@@@2@@_STL@@QAE?AU?$_Rb_tree_iterator@U?$pair@$$CBKK@_STL@@U?$_Nonconst_traits@U?$pair@$$CBKK@_STL@@@2@@1@ABK@Z
_TEXT	SEGMENT
___$ReturnUdt$ = 8					; size = 4
___x$ = 12						; size = 4
??$find@K@?$_Rb_tree@KU?$pair@$$CBKK@_STL@@U?$_Select1st@U?$pair@$$CBKK@_STL@@@2@U?$less@K@2@V?$allocator@U?$pair@$$CBKK@_STL@@@2@@_STL@@QAE?AU?$_Rb_tree_iterator@U?$pair@$$CBKK@_STL@@U?$_Nonconst_traits@U?$pair@$$CBKK@_STL@@@2@@1@ABK@Z PROC NEAR ; _STL::_Rb_tree<unsigned long,_STL::pair<unsigned long const ,unsigned long>,_STL::_Select1st<_STL::pair<unsigned long const ,unsigned long> >,_STL::less<unsigned long>,_STL::allocator<_STL::pair<unsigned long const ,unsigned long> > >::find<unsigned long>, COMDAT
; _this$ = ecx

; 458  :   template <class _KT> iterator find(const _KT& __x) { return iterator(_M_find(__x)); }

  00000	ff 74 24 08	 push	 DWORD PTR ___x$[esp-4]
  00004	e8 00 00 00 00	 call	 ??$_M_find@K@?$_Rb_tree@KU?$pair@$$CBKK@_STL@@U?$_Select1st@U?$pair@$$CBKK@_STL@@@2@U?$less@K@2@V?$allocator@U?$pair@$$CBKK@_STL@@@2@@_STL@@ABEPAU?$_Rb_tree_node@U?$pair@$$CBKK@_STL@@@1@ABK@Z ; _STL::_Rb_tree<unsigned long,_STL::pair<unsigned long const ,unsigned long>,_STL::_Select1st<_STL::pair<unsigned long const ,unsigned long> >,_STL::less<unsigned long>,_STL::allocator<_STL::pair<unsigned long const ,unsigned long> > >::_M_find<unsigned long>
  00009	8b 4c 24 04	 mov	 ecx, DWORD PTR ___$ReturnUdt$[esp-4]
  0000d	89 01		 mov	 DWORD PTR [ecx], eax
  0000f	8b c1		 mov	 eax, ecx
  00011	c2 08 00	 ret	 8
??$find@K@?$_Rb_tree@KU?$pair@$$CBKK@_STL@@U?$_Select1st@U?$pair@$$CBKK@_STL@@@2@U?$less@K@2@V?$allocator@U?$pair@$$CBKK@_STL@@@2@@_STL@@QAE?AU?$_Rb_tree_iterator@U?$pair@$$CBKK@_STL@@U?$_Nonconst_traits@U?$pair@$$CBKK@_STL@@@2@@1@ABK@Z ENDP ; _STL::_Rb_tree<unsigned long,_STL::pair<unsigned long const ,unsigned long>,_STL::_Select1st<_STL::pair<unsigned long const ,unsigned long> >,_STL::less<unsigned long>,_STL::allocator<_STL::pair<unsigned long const ,unsigned long> > >::find<unsigned long>
_TEXT	ENDS
PUBLIC	??$find@K@?$_Rb_tree@KU?$pair@$$CBKK@_STL@@U?$_Select1st@U?$pair@$$CBKK@_STL@@@2@U?$less@K@2@V?$allocator@U?$pair@$$CBKK@_STL@@@2@@_STL@@QBE?AU?$_Rb_tree_iterator@U?$pair@$$CBKK@_STL@@U?$_Const_traits@U?$pair@$$CBKK@_STL@@@2@@1@ABK@Z ; _STL::_Rb_tree<unsigned long,_STL::pair<unsigned long const ,unsigned long>,_STL::_Select1st<_STL::pair<unsigned long const ,unsigned long> >,_STL::less<unsigned long>,_STL::allocator<_STL::pair<unsigned long const ,unsigned long> > >::find<unsigned long>
; Function compile flags: /Ogsy
;	COMDAT ??$find@K@?$_Rb_tree@KU?$pair@$$CBKK@_STL@@U?$_Select1st@U?$pair@$$CBKK@_STL@@@2@U?$less@K@2@V?$allocator@U?$pair@$$CBKK@_STL@@@2@@_STL@@QBE?AU?$_Rb_tree_iterator@U?$pair@$$CBKK@_STL@@U?$_Const_traits@U?$pair@$$CBKK@_STL@@@2@@1@ABK@Z
_TEXT	SEGMENT
___$ReturnUdt$ = 8					; size = 4
___x$ = 12						; size = 4
??$find@K@?$_Rb_tree@KU?$pair@$$CBKK@_STL@@U?$_Select1st@U?$pair@$$CBKK@_STL@@@2@U?$less@K@2@V?$allocator@U?$pair@$$CBKK@_STL@@@2@@_STL@@QBE?AU?$_Rb_tree_iterator@U?$pair@$$CBKK@_STL@@U?$_Const_traits@U?$pair@$$CBKK@_STL@@@2@@1@ABK@Z PROC NEAR ; _STL::_Rb_tree<unsigned long,_STL::pair<unsigned long const ,unsigned long>,_STL::_Select1st<_STL::pair<unsigned long const ,unsigned long> >,_STL::less<unsigned long>,_STL::allocator<_STL::pair<unsigned long const ,unsigned long> > >::find<unsigned long>, COMDAT
; _this$ = ecx

; 459  :   template <class _KT> const_iterator find(const _KT& __x) const { return const_iterator(_M_find(__x)); }

  00000	ff 74 24 08	 push	 DWORD PTR ___x$[esp-4]
  00004	e8 00 00 00 00	 call	 ??$_M_find@K@?$_Rb_tree@KU?$pair@$$CBKK@_STL@@U?$_Select1st@U?$pair@$$CBKK@_STL@@@2@U?$less@K@2@V?$allocator@U?$pair@$$CBKK@_STL@@@2@@_STL@@ABEPAU?$_Rb_tree_node@U?$pair@$$CBKK@_STL@@@1@ABK@Z ; _STL::_Rb_tree<unsigned long,_STL::pair<unsigned long const ,unsigned long>,_STL::_Select1st<_STL::pair<unsigned long const ,unsigned long> >,_STL::less<unsigned long>,_STL::allocator<_STL::pair<unsigned long const ,unsigned long> > >::_M_find<unsigned long>
  00009	8b 4c 24 04	 mov	 ecx, DWORD PTR ___$ReturnUdt$[esp-4]
  0000d	89 01		 mov	 DWORD PTR [ecx], eax
  0000f	8b c1		 mov	 eax, ecx
  00011	c2 08 00	 ret	 8
??$find@K@?$_Rb_tree@KU?$pair@$$CBKK@_STL@@U?$_Select1st@U?$pair@$$CBKK@_STL@@@2@U?$less@K@2@V?$allocator@U?$pair@$$CBKK@_STL@@@2@@_STL@@QBE?AU?$_Rb_tree_iterator@U?$pair@$$CBKK@_STL@@U?$_Const_traits@U?$pair@$$CBKK@_STL@@@2@@1@ABK@Z ENDP ; _STL::_Rb_tree<unsigned long,_STL::pair<unsigned long const ,unsigned long>,_STL::_Select1st<_STL::pair<unsigned long const ,unsigned long> >,_STL::less<unsigned long>,_STL::allocator<_STL::pair<unsigned long const ,unsigned long> > >::find<unsigned long>
_TEXT	ENDS
PUBLIC	??$_M_range_initialize@PBD@?$basic_string@DV?$char_traits@D@_STL@@V?$allocator@D@2@@_STL@@AAEXPBD0ABUforward_iterator_tag@1@@Z ; _STL::basic_string<char,_STL::char_traits<char>,_STL::allocator<char> >::_M_range_initialize<char const *>
; Function compile flags: /Ogsy
; File c:\stlport-4.6.1\stlport\stl\_string.h
;	COMDAT ??$_M_range_initialize@PBD@?$basic_string@DV?$char_traits@D@_STL@@V?$allocator@D@2@@_STL@@AAEXPBD0ABUforward_iterator_tag@1@@Z
_TEXT	SEGMENT
___f$ = 8						; size = 4
___l$ = 12						; size = 4
___formal$ = 16						; size = 4
??$_M_range_initialize@PBD@?$basic_string@DV?$char_traits@D@_STL@@V?$allocator@D@2@@_STL@@AAEXPBD0ABUforward_iterator_tag@1@@Z PROC NEAR ; _STL::basic_string<char,_STL::char_traits<char>,_STL::allocator<char> >::_M_range_initialize<char const *>, COMDAT
; _this$ = ecx

; 383  :                            const forward_iterator_tag &) {
; 384  :     difference_type __n = distance(__f, __l);
; 385  :     this->_M_allocate_block(__n + 1);

  00000	8b 44 24 08	 mov	 eax, DWORD PTR ___l$[esp-4]
  00004	2b 44 24 04	 sub	 eax, DWORD PTR ___f$[esp-4]
  00008	56		 push	 esi
  00009	40		 inc	 eax
  0000a	50		 push	 eax
  0000b	8b f1		 mov	 esi, ecx
  0000d	e8 00 00 00 00	 call	 ?_M_allocate_block@?$_String_base@DV?$allocator@D@_STL@@@_STL@@QAEXI@Z ; _STL::_String_base<char,_STL::allocator<char> >::_M_allocate_block

; 386  :     this->_M_finish = uninitialized_copy(__f, __l, this->_M_start);

  00012	ff 36		 push	 DWORD PTR [esi]
  00014	ff 74 24 10	 push	 DWORD PTR ___l$[esp+4]
  00018	ff 74 24 10	 push	 DWORD PTR ___f$[esp+8]
  0001c	e8 00 00 00 00	 call	 ?__copy_trivial@_STL@@YAPAXPBX0PAX@Z ; _STL::__copy_trivial
  00021	83 c4 0c	 add	 esp, 12			; 0000000cH
  00024	89 46 04	 mov	 DWORD PTR [esi+4], eax

; 387  :     _M_terminate_string();

  00027	c6 00 00	 mov	 BYTE PTR [eax], 0
  0002a	5e		 pop	 esi

; 388  :   }

  0002b	c2 0c 00	 ret	 12			; 0000000cH
??$_M_range_initialize@PBD@?$basic_string@DV?$char_traits@D@_STL@@V?$allocator@D@2@@_STL@@AAEXPBD0ABUforward_iterator_tag@1@@Z ENDP ; _STL::basic_string<char,_STL::char_traits<char>,_STL::allocator<char> >::_M_range_initialize<char const *>
_TEXT	ENDS
PUBLIC	?_M_create_node@?$_Rb_tree@KU?$pair@$$CBKK@_STL@@U?$_Select1st@U?$pair@$$CBKK@_STL@@@2@U?$less@K@2@V?$allocator@U?$pair@$$CBKK@_STL@@@2@@_STL@@IAEPAU?$_Rb_tree_node@U?$pair@$$CBKK@_STL@@@2@ABU?$pair@$$CBKK@2@@Z ; _STL::_Rb_tree<unsigned long,_STL::pair<unsigned long const ,unsigned long>,_STL::_Select1st<_STL::pair<unsigned long const ,unsigned long> >,_STL::less<unsigned long>,_STL::allocator<_STL::pair<unsigned long const ,unsigned long> > >::_M_create_node
EXTRN	__CxxThrowException@8:NEAR
; Function compile flags: /Ogsy
; File c:\stlport-4.6.1\stlport\stl\_tree.h
;	COMDAT ?_M_create_node@?$_Rb_tree@KU?$pair@$$CBKK@_STL@@U?$_Select1st@U?$pair@$$CBKK@_STL@@@2@U?$less@K@2@V?$allocator@U?$pair@$$CBKK@_STL@@@2@@_STL@@IAEPAU?$_Rb_tree_node@U?$pair@$$CBKK@_STL@@@2@ABU?$pair@$$CBKK@2@@Z
_TEXT	SEGMENT
___x$ = 8						; size = 4
?_M_create_node@?$_Rb_tree@KU?$pair@$$CBKK@_STL@@U?$_Select1st@U?$pair@$$CBKK@_STL@@@2@U?$less@K@2@V?$allocator@U?$pair@$$CBKK@_STL@@@2@@_STL@@IAEPAU?$_Rb_tree_node@U?$pair@$$CBKK@_STL@@@2@ABU?$pair@$$CBKK@2@@Z PROC NEAR ; _STL::_Rb_tree<unsigned long,_STL::pair<unsigned long const ,unsigned long>,_STL::_Select1st<_STL::pair<unsigned long const ,unsigned long> >,_STL::less<unsigned long>,_STL::allocator<_STL::pair<unsigned long const ,unsigned long> > >::_M_create_node, COMDAT
; _this$ = ecx

; 242  :   {

  00000	56		 push	 esi

; 243  :     _Link_type __tmp = this->_M_header.allocate(1);

  00001	6a 18		 push	 24			; 00000018H
  00003	e8 00 00 00 00	 call	 ?allocate@?$__node_alloc@$00$0A@@_STL@@SAPAXI@Z ; _STL::__node_alloc<1,0>::allocate

; 244  :     _STLP_TRY {
; 245  :       _Construct(&__tmp->_M_value_field, __x);

  00008	ff 74 24 0c	 push	 DWORD PTR ___x$[esp+4]
  0000c	8b f0		 mov	 esi, eax
  0000e	8d 46 10	 lea	 eax, DWORD PTR [esi+16]
  00011	50		 push	 eax
  00012	e8 00 00 00 00	 call	 ??$_Construct@U?$pair@$$CBKK@_STL@@U12@@_STL@@YAXPAU?$pair@$$CBKK@0@ABU10@@Z ; _STL::_Construct<_STL::pair<unsigned long const ,unsigned long>,_STL::pair<unsigned long const ,unsigned long> >
  00017	83 c4 0c	 add	 esp, 12			; 0000000cH

; 246  :     }
; 247  :     _STLP_UNWIND(this->_M_header.deallocate(__tmp,1));
; 248  :     return __tmp;

  0001a	8b c6		 mov	 eax, esi
  0001c	5e		 pop	 esi

; 249  :   }

  0001d	c2 04 00	 ret	 4
?_M_create_node@?$_Rb_tree@KU?$pair@$$CBKK@_STL@@U?$_Select1st@U?$pair@$$CBKK@_STL@@@2@U?$less@K@2@V?$allocator@U?$pair@$$CBKK@_STL@@@2@@_STL@@IAEPAU?$_Rb_tree_node@U?$pair@$$CBKK@_STL@@@2@ABU?$pair@$$CBKK@2@@Z ENDP ; _STL::_Rb_tree<unsigned long,_STL::pair<unsigned long const ,unsigned long>,_STL::_Select1st<_STL::pair<unsigned long const ,unsigned long> >,_STL::less<unsigned long>,_STL::allocator<_STL::pair<unsigned long const ,unsigned long> > >::_M_create_node
_TEXT	ENDS
PUBLIC	??$__uninitialized_copy@PADPAD@_STL@@YAPADPAD00ABU__true_type@0@@Z ; _STL::__uninitialized_copy<char *,char *>
; Function compile flags: /Ogsy
; File c:\stlport-4.6.1\stlport\stl\_uninitialized.h
;	COMDAT ??$__uninitialized_copy@PADPAD@_STL@@YAPADPAD00ABU__true_type@0@@Z
_TEXT	SEGMENT
___first$ = 8						; size = 4
___last$ = 12						; size = 4
___result$ = 16						; size = 4
___formal$ = 20						; size = 4
??$__uninitialized_copy@PADPAD@_STL@@YAPADPAD00ABU__true_type@0@@Z PROC NEAR ; _STL::__uninitialized_copy<char *,char *>, COMDAT

; 55   :   return __copy_aux(__first, __last, __result, _BothPtrType< _InputIter, _ForwardIter> :: _Ret());

  00000	ff 74 24 0c	 push	 DWORD PTR ___result$[esp-4]
  00004	ff 74 24 0c	 push	 DWORD PTR ___last$[esp]
  00008	ff 74 24 0c	 push	 DWORD PTR ___first$[esp+4]
  0000c	e8 00 00 00 00	 call	 ?__copy_trivial@_STL@@YAPAXPBX0PAX@Z ; _STL::__copy_trivial
  00011	83 c4 0c	 add	 esp, 12			; 0000000cH

; 56   : }

  00014	c3		 ret	 0
??$__uninitialized_copy@PADPAD@_STL@@YAPADPAD00ABU__true_type@0@@Z ENDP ; _STL::__uninitialized_copy<char *,char *>
_TEXT	ENDS
PUBLIC	??0?$_List_base@V?$basic_string@DV?$char_traits@D@_STL@@V?$allocator@D@2@@_STL@@V?$allocator@V?$basic_string@DV?$char_traits@D@_STL@@V?$allocator@D@2@@_STL@@@2@@_STL@@QAE@ABV?$allocator@V?$basic_string@DV?$char_traits@D@_STL@@V?$allocator@D@2@@_STL@@@1@@Z ; _STL::_List_base<_STL::basic_string<char,_STL::char_traits<char>,_STL::allocator<char> >,_STL::allocator<_STL::basic_string<char,_STL::char_traits<char>,_STL::allocator<char> > > >::_List_base<_STL::basic_string<char,_STL::char_traits<char>,_STL::allocator<char> >,_STL::allocator<_STL::basic_string<char,_STL::char_traits<char>,_STL::allocator<char> > > >
; Function compile flags: /Ogsy
; File c:\stlport-4.6.1\stlport\stl\_list.h
;	COMDAT ??0?$_List_base@V?$basic_string@DV?$char_traits@D@_STL@@V?$allocator@D@2@@_STL@@V?$allocator@V?$basic_string@DV?$char_traits@D@_STL@@V?$allocator@D@2@@_STL@@@2@@_STL@@QAE@ABV?$allocator@V?$basic_string@DV?$char_traits@D@_STL@@V?$allocator@D@2@@_STL@@@1@@Z
_TEXT	SEGMENT
$T103244 = -1						; size = 1
___a$ = 8						; size = 4
??0?$_List_base@V?$basic_string@DV?$char_traits@D@_STL@@V?$allocator@D@2@@_STL@@V?$allocator@V?$basic_string@DV?$char_traits@D@_STL@@V?$allocator@D@2@@_STL@@@2@@_STL@@QAE@ABV?$allocator@V?$basic_string@DV?$char_traits@D@_STL@@V?$allocator@D@2@@_STL@@@1@@Z PROC NEAR ; _STL::_List_base<_STL::basic_string<char,_STL::char_traits<char>,_STL::allocator<char> >,_STL::allocator<_STL::basic_string<char,_STL::char_traits<char>,_STL::allocator<char> > > >::_List_base<_STL::basic_string<char,_STL::char_traits<char>,_STL::allocator<char> >,_STL::allocator<_STL::basic_string<char,_STL::char_traits<char>,_STL::allocator<char> > > >, COMDAT
; _this$ = ecx

; 182  :   _List_base(const allocator_type& __a) : _M_node(_STLP_CONVERT_ALLOCATOR(__a, _Node), (_Node*)0) {

  00000	51		 push	 ecx
  00001	56		 push	 esi
  00002	6a 00		 push	 0
  00004	8d 44 24 0b	 lea	 eax, DWORD PTR $T103244[esp+12]
  00008	50		 push	 eax
  00009	8b f1		 mov	 esi, ecx
  0000b	e8 00 00 00 00	 call	 ??0?$_STLP_alloc_proxy@PAU?$_List_node@V?$basic_string@DV?$char_traits@D@_STL@@V?$allocator@D@2@@_STL@@@_STL@@U12@V?$allocator@U?$_List_node@V?$basic_string@DV?$char_traits@D@_STL@@V?$allocator@D@2@@_STL@@@_STL@@@2@@_STL@@QAE@ABV?$allocator@U?$_List_node@V?$basic_string@DV?$char_traits@D@_STL@@V?$allocator@D@2@@_STL@@@_STL@@@1@PAU?$_List_node@V?$basic_string@DV?$char_traits@D@_STL@@V?$allocator@D@2@@_STL@@@1@@Z ; _STL::_STLP_alloc_proxy<_STL::_List_node<_STL::basic_string<char,_STL::char_traits<char>,_STL::allocator<char> > > *,_STL::_List_node<_STL::basic_string<char,_STL::char_traits<char>,_STL::allocator<char> > >,_STL::allocator<_STL::_List_node<_STL::basic_string<char,_STL::char_traits<char>,_STL::allocator<char> > > > >::_STLP_alloc_proxy<_STL::_List_node<_STL::basic_string<char,_STL::char_traits<char>,_STL::allocator<char> > > *,_STL::_List_node<_STL::basic_string<char,_STL::char_traits<char>,_STL::allocator<char> > >,_STL::allocator<_STL::_List_node<_STL::basic_string<char,_STL::char_traits<char>,_STL::allocator<char> > > > >

; 183  :     _Node* __n = _M_node.allocate(1);

  00010	6a 14		 push	 20			; 00000014H
  00012	e8 00 00 00 00	 call	 ?allocate@?$__node_alloc@$00$0A@@_STL@@SAPAXI@Z ; _STL::__node_alloc<1,0>::allocate

; 184  :     __n->_M_next = __n;

  00017	89 00		 mov	 DWORD PTR [eax], eax

; 185  :     __n->_M_prev = __n;

  00019	89 40 04	 mov	 DWORD PTR [eax+4], eax

; 186  :     _M_node._M_data = __n;

  0001c	89 06		 mov	 DWORD PTR [esi], eax
  0001e	59		 pop	 ecx

; 187  :   }

  0001f	8b c6		 mov	 eax, esi
  00021	5e		 pop	 esi
  00022	59		 pop	 ecx
  00023	c2 04 00	 ret	 4
??0?$_List_base@V?$basic_string@DV?$char_traits@D@_STL@@V?$allocator@D@2@@_STL@@V?$allocator@V?$basic_string@DV?$char_traits@D@_STL@@V?$allocator@D@2@@_STL@@@2@@_STL@@QAE@ABV?$allocator@V?$basic_string@DV?$char_traits@D@_STL@@V?$allocator@D@2@@_STL@@@1@@Z ENDP ; _STL::_List_base<_STL::basic_string<char,_STL::char_traits<char>,_STL::allocator<char> >,_STL::allocator<_STL::basic_string<char,_STL::char_traits<char>,_STL::allocator<char> > > >::_List_base<_STL::basic_string<char,_STL::char_traits<char>,_STL::allocator<char> >,_STL::allocator<_STL::basic_string<char,_STL::char_traits<char>,_STL::allocator<char> > > >
_TEXT	ENDS
PUBLIC	?_M_deallocate_block@?$_String_base@DV?$allocator@D@_STL@@@_STL@@QAEXXZ ; _STL::_String_base<char,_STL::allocator<char> >::_M_deallocate_block
; Function compile flags: /Ogsy
; File c:\stlport-4.6.1\stlport\stl\_string.h
;	COMDAT ?_M_deallocate_block@?$_String_base@DV?$allocator@D@_STL@@@_STL@@QAEXXZ
_TEXT	SEGMENT
?_M_deallocate_block@?$_String_base@DV?$allocator@D@_STL@@@_STL@@QAEXXZ PROC NEAR ; _STL::_String_base<char,_STL::allocator<char> >::_M_deallocate_block, COMDAT
; _this$ = ecx

; 124  :     { _M_end_of_storage.deallocate(_M_start, _M_end_of_storage._M_data - _M_start); }

  00000	8b c1		 mov	 eax, ecx
  00002	8d 48 08	 lea	 ecx, DWORD PTR [eax+8]
  00005	8b 00		 mov	 eax, DWORD PTR [eax]
  00007	8b 11		 mov	 edx, DWORD PTR [ecx]
  00009	2b d0		 sub	 edx, eax
  0000b	52		 push	 edx
  0000c	50		 push	 eax
  0000d	e8 00 00 00 00	 call	 ?deallocate@?$allocator@D@_STL@@QAEXPADI@Z ; _STL::allocator<char>::deallocate
  00012	c3		 ret	 0
?_M_deallocate_block@?$_String_base@DV?$allocator@D@_STL@@@_STL@@QAEXXZ ENDP ; _STL::_String_base<char,_STL::allocator<char> >::_M_deallocate_block
_TEXT	ENDS
PUBLIC	?write@GCTimeLimitItemInfo@@UBEXAAVSocketOutputStream@@@Z ; GCTimeLimitItemInfo::write
; Function compile flags: /Ogsy
; File c:\darkeden\designed_common\project\client\packet\gpackets\gctimelimititeminfo.cpp
;	COMDAT ?write@GCTimeLimitItemInfo@@UBEXAAVSocketOutputStream@@@Z
_TEXT	SEGMENT
$T103342 = -8						; size = 4
$T103330 = -8						; size = 4
$T103273 = -4						; size = 1
_oStream$ = 8						; size = 4
?write@GCTimeLimitItemInfo@@UBEXAAVSocketOutputStream@@@Z PROC NEAR ; GCTimeLimitItemInfo::write, COMDAT
; _this$ = ecx

; 47   : {

  00000	55		 push	 ebp
  00001	8b ec		 mov	 ebp, esp
  00003	51		 push	 ecx
  00004	51		 push	 ecx
  00005	56		 push	 esi
  00006	8b f1		 mov	 esi, ecx

; 48   : 	__BEGIN_TRY
; 49   : 
; 50   : 	BYTE szInfo = m_TimeLimitItemInfos.size();
; 51   : 
; 52   : 	Assert( szInfo <= MAX_TIME_LIMIT_ITEM_INFO );
; 53   : 
; 54   : 	oStream.write( szInfo );

  00008	8a 46 08	 mov	 al, BYTE PTR [esi+8]
  0000b	8b 4d 08	 mov	 ecx, DWORD PTR _oStream$[ebp]
  0000e	57		 push	 edi
  0000f	88 45 fc	 mov	 BYTE PTR $T103273[ebp], al
  00012	6a 01		 push	 1
  00014	8d 45 fc	 lea	 eax, DWORD PTR $T103273[ebp]
  00017	50		 push	 eax
  00018	e8 00 00 00 00	 call	 ?write@SocketOutputStream@@QAEIPBDI@Z ; SocketOutputStream::write

; 55   : 
; 56   : 	ItemTimeLimitMap::const_iterator	itr = m_TimeLimitItemInfos.begin();

  0001d	8b 7e 04	 mov	 edi, DWORD PTR [esi+4]
  00020	8b 77 08	 mov	 esi, DWORD PTR [edi+8]
  00023	eb 31		 jmp	 SHORT $L103345

; 57   : 	ItemTimeLimitMap::const_iterator	endItr = m_TimeLimitItemInfos.end();
; 58   : 
; 59   : 	for( ; itr != endItr ; ++itr )

$L103315:

; 60   : 	{
; 61   : 		oStream.write( itr->first );

  00025	8b 46 10	 mov	 eax, DWORD PTR [esi+16]
  00028	8b 4d 08	 mov	 ecx, DWORD PTR _oStream$[ebp]
  0002b	89 45 f8	 mov	 DWORD PTR $T103330[ebp], eax
  0002e	6a 04		 push	 4
  00030	8d 45 f8	 lea	 eax, DWORD PTR $T103330[ebp]
  00033	50		 push	 eax
  00034	e8 00 00 00 00	 call	 ?write@SocketOutputStream@@QAEIPBDI@Z ; SocketOutputStream::write

; 62   : 		oStream.write( itr->second );

  00039	8b 46 14	 mov	 eax, DWORD PTR [esi+20]
  0003c	8b 4d 08	 mov	 ecx, DWORD PTR _oStream$[ebp]
  0003f	89 45 f8	 mov	 DWORD PTR $T103342[ebp], eax
  00042	6a 04		 push	 4
  00044	8d 45 f8	 lea	 eax, DWORD PTR $T103342[ebp]
  00047	50		 push	 eax
  00048	e8 00 00 00 00	 call	 ?write@SocketOutputStream@@QAEIPBDI@Z ; SocketOutputStream::write
  0004d	56		 push	 esi
  0004e	e8 00 00 00 00	 call	 ?_M_increment@?$_Rb_global@_N@_STL@@SAPAU_Rb_tree_node_base@2@PAU32@@Z ; _STL::_Rb_global<bool>::_M_increment
  00053	59		 pop	 ecx
  00054	8b f0		 mov	 esi, eax
$L103345:

; 57   : 	ItemTimeLimitMap::const_iterator	endItr = m_TimeLimitItemInfos.end();
; 58   : 
; 59   : 	for( ; itr != endItr ; ++itr )

  00056	3b f7		 cmp	 esi, edi
  00058	75 cb		 jne	 SHORT $L103315
  0005a	5f		 pop	 edi
  0005b	5e		 pop	 esi

; 63   : 	}
; 64   : 
; 65   : 	__END_CATCH
; 66   : }

  0005c	c9		 leave
  0005d	c2 04 00	 ret	 4
?write@GCTimeLimitItemInfo@@UBEXAAVSocketOutputStream@@@Z ENDP ; GCTimeLimitItemInfo::write
_TEXT	ENDS
PUBLIC	?clear@?$map@KKU?$less@K@_STL@@V?$allocator@U?$pair@$$CBKK@_STL@@@2@@_STL@@QAEXXZ ; _STL::map<unsigned long,unsigned long,_STL::less<unsigned long>,_STL::allocator<_STL::pair<unsigned long const ,unsigned long> > >::clear
; Function compile flags: /Ogsy
; File c:\stlport-4.6.1\stlport\stl\_map.h
;	COMDAT ?clear@?$map@KKU?$less@K@_STL@@V?$allocator@U?$pair@$$CBKK@_STL@@@2@@_STL@@QAEXXZ
_TEXT	SEGMENT
?clear@?$map@KKU?$less@K@_STL@@V?$allocator@U?$pair@$$CBKK@_STL@@@2@@_STL@@QAEXXZ PROC NEAR ; _STL::map<unsigned long,unsigned long,_STL::less<unsigned long>,_STL::allocator<_STL::pair<unsigned long const ,unsigned long> > >::clear, COMDAT
; _this$ = ecx

; 191  :   void clear() { _M_t.clear(); }

  00000	e9 00 00 00 00	 jmp	 ?clear@?$_Rb_tree@KU?$pair@$$CBKK@_STL@@U?$_Select1st@U?$pair@$$CBKK@_STL@@@2@U?$less@K@2@V?$allocator@U?$pair@$$CBKK@_STL@@@2@@_STL@@QAEXXZ ; _STL::_Rb_tree<unsigned long,_STL::pair<unsigned long const ,unsigned long>,_STL::_Select1st<_STL::pair<unsigned long const ,unsigned long> >,_STL::less<unsigned long>,_STL::allocator<_STL::pair<unsigned long const ,unsigned long> > >::clear
?clear@?$map@KKU?$less@K@_STL@@V?$allocator@U?$pair@$$CBKK@_STL@@@2@@_STL@@QAEXXZ ENDP ; _STL::map<unsigned long,unsigned long,_STL::less<unsigned long>,_STL::allocator<_STL::pair<unsigned long const ,unsigned long> > >::clear
_TEXT	ENDS
PUBLIC	?find@?$map@KKU?$less@K@_STL@@V?$allocator@U?$pair@$$CBKK@_STL@@@2@@_STL@@QAE?AU?$_Rb_tree_iterator@U?$pair@$$CBKK@_STL@@U?$_Nonconst_traits@U?$pair@$$CBKK@_STL@@@2@@2@ABK@Z ; _STL::map<unsigned long,unsigned long,_STL::less<unsigned long>,_STL::allocator<_STL::pair<unsigned long const ,unsigned long> > >::find
; Function compile flags: /Ogsy
;	COMDAT ?find@?$map@KKU?$less@K@_STL@@V?$allocator@U?$pair@$$CBKK@_STL@@@2@@_STL@@QAE?AU?$_Rb_tree_iterator@U?$pair@$$CBKK@_STL@@U?$_Nonconst_traits@U?$pair@$$CBKK@_STL@@@2@@2@ABK@Z
_TEXT	SEGMENT
___$ReturnUdt$ = 8					; size = 4
___x$ = 12						; size = 4
?find@?$map@KKU?$less@K@_STL@@V?$allocator@U?$pair@$$CBKK@_STL@@@2@@_STL@@QAE?AU?$_Rb_tree_iterator@U?$pair@$$CBKK@_STL@@U?$_Nonconst_traits@U?$pair@$$CBKK@_STL@@@2@@2@ABK@Z PROC NEAR ; _STL::map<unsigned long,unsigned long,_STL::less<unsigned long>,_STL::allocator<_STL::pair<unsigned long const ,unsigned long> > >::find, COMDAT
; _this$ = ecx

; 195  :   iterator find(const key_type& __x) { return _M_t.find(__x); }

  00000	ff 74 24 08	 push	 DWORD PTR ___x$[esp-4]
  00004	e8 00 00 00 00	 call	 ??$_M_find@K@?$_Rb_tree@KU?$pair@$$CBKK@_STL@@U?$_Select1st@U?$pair@$$CBKK@_STL@@@2@U?$less@K@2@V?$allocator@U?$pair@$$CBKK@_STL@@@2@@_STL@@ABEPAU?$_Rb_tree_node@U?$pair@$$CBKK@_STL@@@1@ABK@Z ; _STL::_Rb_tree<unsigned long,_STL::pair<unsigned long const ,unsigned long>,_STL::_Select1st<_STL::pair<unsigned long const ,unsigned long> >,_STL::less<unsigned long>,_STL::allocator<_STL::pair<unsigned long const ,unsigned long> > >::_M_find<unsigned long>
  00009	8b 4c 24 04	 mov	 ecx, DWORD PTR ___$ReturnUdt$[esp-4]
  0000d	89 01		 mov	 DWORD PTR [ecx], eax
  0000f	8b c1		 mov	 eax, ecx
  00011	c2 08 00	 ret	 8
?find@?$map@KKU?$less@K@_STL@@V?$allocator@U?$pair@$$CBKK@_STL@@@2@@_STL@@QAE?AU?$_Rb_tree_iterator@U?$pair@$$CBKK@_STL@@U?$_Nonconst_traits@U?$pair@$$CBKK@_STL@@@2@@2@ABK@Z ENDP ; _STL::map<unsigned long,unsigned long,_STL::less<unsigned long>,_STL::allocator<_STL::pair<unsigned long const ,unsigned long> > >::find
_TEXT	ENDS
PUBLIC	?find@?$map@KKU?$less@K@_STL@@V?$allocator@U?$pair@$$CBKK@_STL@@@2@@_STL@@QBE?AU?$_Rb_tree_iterator@U?$pair@$$CBKK@_STL@@U?$_Const_traits@U?$pair@$$CBKK@_STL@@@2@@2@ABK@Z ; _STL::map<unsigned long,unsigned long,_STL::less<unsigned long>,_STL::allocator<_STL::pair<unsigned long const ,unsigned long> > >::find
; Function compile flags: /Ogsy
;	COMDAT ?find@?$map@KKU?$less@K@_STL@@V?$allocator@U?$pair@$$CBKK@_STL@@@2@@_STL@@QBE?AU?$_Rb_tree_iterator@U?$pair@$$CBKK@_STL@@U?$_Const_traits@U?$pair@$$CBKK@_STL@@@2@@2@ABK@Z
_TEXT	SEGMENT
___$ReturnUdt$ = 8					; size = 4
___x$ = 12						; size = 4
?find@?$map@KKU?$less@K@_STL@@V?$allocator@U?$pair@$$CBKK@_STL@@@2@@_STL@@QBE?AU?$_Rb_tree_iterator@U?$pair@$$CBKK@_STL@@U?$_Const_traits@U?$pair@$$CBKK@_STL@@@2@@2@ABK@Z PROC NEAR ; _STL::map<unsigned long,unsigned long,_STL::less<unsigned long>,_STL::allocator<_STL::pair<unsigned long const ,unsigned long> > >::find, COMDAT
; _this$ = ecx

; 196  :   const_iterator find(const key_type& __x) const { return _M_t.find(__x); }

  00000	ff 74 24 08	 push	 DWORD PTR ___x$[esp-4]
  00004	e8 00 00 00 00	 call	 ??$_M_find@K@?$_Rb_tree@KU?$pair@$$CBKK@_STL@@U?$_Select1st@U?$pair@$$CBKK@_STL@@@2@U?$less@K@2@V?$allocator@U?$pair@$$CBKK@_STL@@@2@@_STL@@ABEPAU?$_Rb_tree_node@U?$pair@$$CBKK@_STL@@@1@ABK@Z ; _STL::_Rb_tree<unsigned long,_STL::pair<unsigned long const ,unsigned long>,_STL::_Select1st<_STL::pair<unsigned long const ,unsigned long> >,_STL::less<unsigned long>,_STL::allocator<_STL::pair<unsigned long const ,unsigned long> > >::_M_find<unsigned long>
  00009	8b 4c 24 04	 mov	 ecx, DWORD PTR ___$ReturnUdt$[esp-4]
  0000d	89 01		 mov	 DWORD PTR [ecx], eax
  0000f	8b c1		 mov	 eax, ecx
  00011	c2 08 00	 ret	 8
?find@?$map@KKU?$less@K@_STL@@V?$allocator@U?$pair@$$CBKK@_STL@@@2@@_STL@@QBE?AU?$_Rb_tree_iterator@U?$pair@$$CBKK@_STL@@U?$_Const_traits@U?$pair@$$CBKK@_STL@@@2@@2@ABK@Z ENDP ; _STL::map<unsigned long,unsigned long,_STL::less<unsigned long>,_STL::allocator<_STL::pair<unsigned long const ,unsigned long> > >::find
_TEXT	ENDS
PUBLIC	??1?$_Rb_tree@KU?$pair@$$CBKK@_STL@@U?$_Select1st@U?$pair@$$CBKK@_STL@@@2@U?$less@K@2@V?$allocator@U?$pair@$$CBKK@_STL@@@2@@_STL@@QAE@XZ ; _STL::_Rb_tree<unsigned long,_STL::pair<unsigned long const ,unsigned long>,_STL::_Select1st<_STL::pair<unsigned long const ,unsigned long> >,_STL::less<unsigned long>,_STL::allocator<_STL::pair<unsigned long const ,unsigned long> > >::~_Rb_tree<unsigned long,_STL::pair<unsigned long const ,unsigned long>,_STL::_Select1st<_STL::pair<unsigned long const ,unsigned long> >,_STL::less<unsigned long>,_STL::allocator<_STL::pair<unsigned long const ,unsigned long> > >
EXTRN	__EH_prolog:NEAR
EXTRN	__except_list:DWORD
EXTRN	___CxxFrameHandler:NEAR
;	COMDAT xdata$x
; File c:\stlport-4.6.1\stlport\stl\_alloc.h
xdata$x	SEGMENT
$T103396 DD	0ffffffffH
	DD	FLAT:$L103375
$T103392 DD	019930520H
	DD	01H
	DD	FLAT:$T103396
	DD	2 DUP(00H)
	DD	2 DUP(00H)
; Function compile flags: /Ogsy
; File c:\stlport-4.6.1\stlport\stl\_tree.h
xdata$x	ENDS
;	COMDAT ??1?$_Rb_tree@KU?$pair@$$CBKK@_STL@@U?$_Select1st@U?$pair@$$CBKK@_STL@@@2@U?$less@K@2@V?$allocator@U?$pair@$$CBKK@_STL@@@2@@_STL@@QAE@XZ
_TEXT	SEGMENT
_this$ = -16						; size = 4
__$EHRec$ = -12						; size = 12
??1?$_Rb_tree@KU?$pair@$$CBKK@_STL@@U?$_Select1st@U?$pair@$$CBKK@_STL@@@2@U?$less@K@2@V?$allocator@U?$pair@$$CBKK@_STL@@@2@@_STL@@QAE@XZ PROC NEAR ; _STL::_Rb_tree<unsigned long,_STL::pair<unsigned long const ,unsigned long>,_STL::_Select1st<_STL::pair<unsigned long const ,unsigned long> >,_STL::less<unsigned long>,_STL::allocator<_STL::pair<unsigned long const ,unsigned long> > >::~_Rb_tree<unsigned long,_STL::pair<unsigned long const ,unsigned long>,_STL::_Select1st<_STL::pair<unsigned long const ,unsigned long> >,_STL::less<unsigned long>,_STL::allocator<_STL::pair<unsigned long const ,unsigned long> > >, COMDAT
; _this$ = ecx

; 341  :   ~_Rb_tree() { clear(); }

  00000	b8 00 00 00 00	 mov	 eax, __ehhandler$??1?$_Rb_tree@KU?$pair@$$CBKK@_STL@@U?$_Select1st@U?$pair@$$CBKK@_STL@@@2@U?$less@K@2@V?$allocator@U?$pair@$$CBKK@_STL@@@2@@_STL@@QAE@XZ
  00005	e8 00 00 00 00	 call	 __EH_prolog
  0000a	51		 push	 ecx
  0000b	56		 push	 esi
  0000c	8b f1		 mov	 esi, ecx
  0000e	89 75 f0	 mov	 DWORD PTR _this$[ebp], esi
  00011	83 65 fc 00	 and	 DWORD PTR __$EHRec$[ebp+8], 0
  00015	e8 00 00 00 00	 call	 ?clear@?$_Rb_tree@KU?$pair@$$CBKK@_STL@@U?$_Select1st@U?$pair@$$CBKK@_STL@@@2@U?$less@K@2@V?$allocator@U?$pair@$$CBKK@_STL@@@2@@_STL@@QAEXXZ ; _STL::_Rb_tree<unsigned long,_STL::pair<unsigned long const ,unsigned long>,_STL::_Select1st<_STL::pair<unsigned long const ,unsigned long> >,_STL::less<unsigned long>,_STL::allocator<_STL::pair<unsigned long const ,unsigned long> > >::clear
  0001a	83 4d fc ff	 or	 DWORD PTR __$EHRec$[ebp+8], -1
  0001e	6a 01		 push	 1
  00020	ff 36		 push	 DWORD PTR [esi]
  00022	8b ce		 mov	 ecx, esi
  00024	e8 00 00 00 00	 call	 ?deallocate@?$allocator@U?$_Rb_tree_node@U?$pair@$$CBKK@_STL@@@_STL@@@_STL@@QAEXPAU?$_Rb_tree_node@U?$pair@$$CBKK@_STL@@@2@I@Z ; _STL::allocator<_STL::_Rb_tree_node<_STL::pair<unsigned long const ,unsigned long> > >::deallocate
  00029	8b 4d f4	 mov	 ecx, DWORD PTR __$EHRec$[ebp]
  0002c	5e		 pop	 esi
  0002d	64 89 0d 00 00
	00 00		 mov	 DWORD PTR fs:__except_list, ecx
  00034	c9		 leave
  00035	c3		 ret	 0
_TEXT	ENDS
;	COMDAT text$x
text$x	SEGMENT
$L103375:
  00000	8b 4d f0	 mov	 ecx, DWORD PTR _this$[ebp]
  00003	e9 00 00 00 00	 jmp	 ??1?$_Rb_tree_base@U?$pair@$$CBKK@_STL@@V?$allocator@U?$pair@$$CBKK@_STL@@@2@@_STL@@QAE@XZ ; _STL::_Rb_tree_base<_STL::pair<unsigned long const ,unsigned long>,_STL::allocator<_STL::pair<unsigned long const ,unsigned long> > >::~_Rb_tree_base<_STL::pair<unsigned long const ,unsigned long>,_STL::allocator<_STL::pair<unsigned long const ,unsigned long> > >
__ehhandler$??1?$_Rb_tree@KU?$pair@$$CBKK@_STL@@U?$_Select1st@U?$pair@$$CBKK@_STL@@@2@U?$less@K@2@V?$allocator@U?$pair@$$CBKK@_STL@@@2@@_STL@@QAE@XZ:
  00008	b8 00 00 00 00	 mov	 eax, OFFSET FLAT:$T103392
  0000d	e9 00 00 00 00	 jmp	 ___CxxFrameHandler
text$x	ENDS
??1?$_Rb_tree@KU?$pair@$$CBKK@_STL@@U?$_Select1st@U?$pair@$$CBKK@_STL@@@2@U?$less@K@2@V?$allocator@U?$pair@$$CBKK@_STL@@@2@@_STL@@QAE@XZ ENDP ; _STL::_Rb_tree<unsigned long,_STL::pair<unsigned long const ,unsigned long>,_STL::_Select1st<_STL::pair<unsigned long const ,unsigned long> >,_STL::less<unsigned long>,_STL::allocator<_STL::pair<unsigned long const ,unsigned long> > >::~_Rb_tree<unsigned long,_STL::pair<unsigned long const ,unsigned long>,_STL::_Select1st<_STL::pair<unsigned long const ,unsigned long> >,_STL::less<unsigned long>,_STL::allocator<_STL::pair<unsigned long const ,unsigned long> > >
PUBLIC	??0?$_Rb_tree@KU?$pair@$$CBKK@_STL@@U?$_Select1st@U?$pair@$$CBKK@_STL@@@2@U?$less@K@2@V?$allocator@U?$pair@$$CBKK@_STL@@@2@@_STL@@QAE@ABU?$less@K@1@ABV?$allocator@U?$pair@$$CBKK@_STL@@@1@@Z ; _STL::_Rb_tree<unsigned long,_STL::pair<unsigned long const ,unsigned long>,_STL::_Select1st<_STL::pair<unsigned long const ,unsigned long> >,_STL::less<unsigned long>,_STL::allocator<_STL::pair<unsigned long const ,unsigned long> > >::_Rb_tree<unsigned long,_STL::pair<unsigned long const ,unsigned long>,_STL::_Select1st<_STL::pair<unsigned long const ,unsigned long> >,_STL::less<unsigned long>,_STL::allocator<_STL::pair<unsigned long const ,unsigned long> > >
; Function compile flags: /Ogsy
;	COMDAT ??0?$_Rb_tree@KU?$pair@$$CBKK@_STL@@U?$_Select1st@U?$pair@$$CBKK@_STL@@@2@U?$less@K@2@V?$allocator@U?$pair@$$CBKK@_STL@@@2@@_STL@@QAE@ABU?$less@K@1@ABV?$allocator@U?$pair@$$CBKK@_STL@@@1@@Z
_TEXT	SEGMENT
___comp$ = 8						; size = 4
___a$ = 12						; size = 4
??0?$_Rb_tree@KU?$pair@$$CBKK@_STL@@U?$_Select1st@U?$pair@$$CBKK@_STL@@@2@U?$less@K@2@V?$allocator@U?$pair@$$CBKK@_STL@@@2@@_STL@@QAE@ABU?$less@K@1@ABV?$allocator@U?$pair@$$CBKK@_STL@@@1@@Z PROC NEAR ; _STL::_Rb_tree<unsigned long,_STL::pair<unsigned long const ,unsigned long>,_STL::_Select1st<_STL::pair<unsigned long const ,unsigned long> >,_STL::less<unsigned long>,_STL::allocator<_STL::pair<unsigned long const ,unsigned long> > >::_Rb_tree<unsigned long,_STL::pair<unsigned long const ,unsigned long>,_STL::_Select1st<_STL::pair<unsigned long const ,unsigned long> >,_STL::less<unsigned long>,_STL::allocator<_STL::pair<unsigned long const ,unsigned long> > >, COMDAT
; _this$ = ecx

; 325  :     { _M_empty_initialize(); }

  00000	56		 push	 esi
  00001	ff 74 24 0c	 push	 DWORD PTR ___a$[esp]
  00005	8b f1		 mov	 esi, ecx
  00007	e8 00 00 00 00	 call	 ??0?$_Rb_tree_base@U?$pair@$$CBKK@_STL@@V?$allocator@U?$pair@$$CBKK@_STL@@@2@@_STL@@QAE@ABV?$allocator@U?$pair@$$CBKK@_STL@@@1@@Z ; _STL::_Rb_tree_base<_STL::pair<unsigned long const ,unsigned long>,_STL::allocator<_STL::pair<unsigned long const ,unsigned long> > >::_Rb_tree_base<_STL::pair<unsigned long const ,unsigned long>,_STL::allocator<_STL::pair<unsigned long const ,unsigned long> > >
  0000c	8b 0e		 mov	 ecx, DWORD PTR [esi]
  0000e	33 c0		 xor	 eax, eax
  00010	89 46 04	 mov	 DWORD PTR [esi+4], eax
  00013	88 01		 mov	 BYTE PTR [ecx], al
  00015	8b 0e		 mov	 ecx, DWORD PTR [esi]
  00017	89 41 04	 mov	 DWORD PTR [ecx+4], eax
  0001a	8b 06		 mov	 eax, DWORD PTR [esi]
  0001c	89 40 08	 mov	 DWORD PTR [eax+8], eax
  0001f	8b 06		 mov	 eax, DWORD PTR [esi]
  00021	89 40 0c	 mov	 DWORD PTR [eax+12], eax
  00024	8b c6		 mov	 eax, esi
  00026	5e		 pop	 esi
  00027	c2 08 00	 ret	 8
??0?$_Rb_tree@KU?$pair@$$CBKK@_STL@@U?$_Select1st@U?$pair@$$CBKK@_STL@@@2@U?$less@K@2@V?$allocator@U?$pair@$$CBKK@_STL@@@2@@_STL@@QAE@ABU?$less@K@1@ABV?$allocator@U?$pair@$$CBKK@_STL@@@1@@Z ENDP ; _STL::_Rb_tree<unsigned long,_STL::pair<unsigned long const ,unsigned long>,_STL::_Select1st<_STL::pair<unsigned long const ,unsigned long> >,_STL::less<unsigned long>,_STL::allocator<_STL::pair<unsigned long const ,unsigned long> > >::_Rb_tree<unsigned long,_STL::pair<unsigned long const ,unsigned long>,_STL::_Select1st<_STL::pair<unsigned long const ,unsigned long> >,_STL::less<unsigned long>,_STL::allocator<_STL::pair<unsigned long const ,unsigned long> > >
_TEXT	ENDS
PUBLIC	?lower_bound@?$_Rb_tree@KU?$pair@$$CBKK@_STL@@U?$_Select1st@U?$pair@$$CBKK@_STL@@@2@U?$less@K@2@V?$allocator@U?$pair@$$CBKK@_STL@@@2@@_STL@@QAE?AU?$_Rb_tree_iterator@U?$pair@$$CBKK@_STL@@U?$_Nonconst_traits@U?$pair@$$CBKK@_STL@@@2@@2@ABK@Z ; _STL::_Rb_tree<unsigned long,_STL::pair<unsigned long const ,unsigned long>,_STL::_Select1st<_STL::pair<unsigned long const ,unsigned long> >,_STL::less<unsigned long>,_STL::allocator<_STL::pair<unsigned long const ,unsigned long> > >::lower_bound
; Function compile flags: /Ogsy
;	COMDAT ?lower_bound@?$_Rb_tree@KU?$pair@$$CBKK@_STL@@U?$_Select1st@U?$pair@$$CBKK@_STL@@@2@U?$less@K@2@V?$allocator@U?$pair@$$CBKK@_STL@@@2@@_STL@@QAE?AU?$_Rb_tree_iterator@U?$pair@$$CBKK@_STL@@U?$_Nonconst_traits@U?$pair@$$CBKK@_STL@@@2@@2@ABK@Z
_TEXT	SEGMENT
___$ReturnUdt$ = 8					; size = 4
___x$ = 12						; size = 4
?lower_bound@?$_Rb_tree@KU?$pair@$$CBKK@_STL@@U?$_Select1st@U?$pair@$$CBKK@_STL@@@2@U?$less@K@2@V?$allocator@U?$pair@$$CBKK@_STL@@@2@@_STL@@QAE?AU?$_Rb_tree_iterator@U?$pair@$$CBKK@_STL@@U?$_Nonconst_traits@U?$pair@$$CBKK@_STL@@@2@@2@ABK@Z PROC NEAR ; _STL::_Rb_tree<unsigned long,_STL::pair<unsigned long const ,unsigned long>,_STL::_Select1st<_STL::pair<unsigned long const ,unsigned long> >,_STL::less<unsigned long>,_STL::allocator<_STL::pair<unsigned long const ,unsigned long> > >::lower_bound, COMDAT
; _this$ = ecx

; 510  :   iterator lower_bound(const key_type& __x) { return iterator(_M_lower_bound(__x)); }

  00000	ff 74 24 08	 push	 DWORD PTR ___x$[esp-4]
  00004	e8 00 00 00 00	 call	 ?_M_lower_bound@?$_Rb_tree@KU?$pair@$$CBKK@_STL@@U?$_Select1st@U?$pair@$$CBKK@_STL@@@2@U?$less@K@2@V?$allocator@U?$pair@$$CBKK@_STL@@@2@@_STL@@ABEPAU?$_Rb_tree_node@U?$pair@$$CBKK@_STL@@@2@ABK@Z ; _STL::_Rb_tree<unsigned long,_STL::pair<unsigned long const ,unsigned long>,_STL::_Select1st<_STL::pair<unsigned long const ,unsigned long> >,_STL::less<unsigned long>,_STL::allocator<_STL::pair<unsigned long const ,unsigned long> > >::_M_lower_bound
  00009	8b 4c 24 04	 mov	 ecx, DWORD PTR ___$ReturnUdt$[esp-4]
  0000d	89 01		 mov	 DWORD PTR [ecx], eax
  0000f	8b c1		 mov	 eax, ecx
  00011	c2 08 00	 ret	 8
?lower_bound@?$_Rb_tree@KU?$pair@$$CBKK@_STL@@U?$_Select1st@U?$pair@$$CBKK@_STL@@@2@U?$less@K@2@V?$allocator@U?$pair@$$CBKK@_STL@@@2@@_STL@@QAE?AU?$_Rb_tree_iterator@U?$pair@$$CBKK@_STL@@U?$_Nonconst_traits@U?$pair@$$CBKK@_STL@@@2@@2@ABK@Z ENDP ; _STL::_Rb_tree<unsigned long,_STL::pair<unsigned long const ,unsigned long>,_STL::_Select1st<_STL::pair<unsigned long const ,unsigned long> >,_STL::less<unsigned long>,_STL::allocator<_STL::pair<unsigned long const ,unsigned long> > >::lower_bound
_TEXT	ENDS
PUBLIC	??$_M_range_initialize@PBD@?$basic_string@DV?$char_traits@D@_STL@@V?$allocator@D@2@@_STL@@AAEXPBD0@Z ; _STL::basic_string<char,_STL::char_traits<char>,_STL::allocator<char> >::_M_range_initialize<char const *>
; Function compile flags: /Ogsy
; File c:\stlport-4.6.1\stlport\stl\_string.h
;	COMDAT ??$_M_range_initialize@PBD@?$basic_string@DV?$char_traits@D@_STL@@V?$allocator@D@2@@_STL@@AAEXPBD0@Z
_TEXT	SEGMENT
___f$ = 8						; size = 4
___l$ = 12						; size = 4
$T103437 = 15						; size = 1
??$_M_range_initialize@PBD@?$basic_string@DV?$char_traits@D@_STL@@V?$allocator@D@2@@_STL@@AAEXPBD0@Z PROC NEAR ; _STL::basic_string<char,_STL::char_traits<char>,_STL::allocator<char> >::_M_range_initialize<char const *>, COMDAT
; _this$ = ecx

; 390  :   template <class _InputIter> void _M_range_initialize(_InputIter __f, _InputIter __l) {

  00000	55		 push	 ebp
  00001	8b ec		 mov	 ebp, esp

; 391  :     _M_range_initialize(__f, __l, _STLP_ITERATOR_CATEGORY(__f, _InputIter));

  00003	8d 45 0f	 lea	 eax, DWORD PTR $T103437[ebp]
  00006	50		 push	 eax
  00007	ff 75 0c	 push	 DWORD PTR ___l$[ebp]
  0000a	ff 75 08	 push	 DWORD PTR ___f$[ebp]
  0000d	e8 00 00 00 00	 call	 ??$_M_range_initialize@PBD@?$basic_string@DV?$char_traits@D@_STL@@V?$allocator@D@2@@_STL@@AAEXPBD0ABUforward_iterator_tag@1@@Z ; _STL::basic_string<char,_STL::char_traits<char>,_STL::allocator<char> >::_M_range_initialize<char const *>

; 392  :   }

  00012	5d		 pop	 ebp
  00013	c2 08 00	 ret	 8
??$_M_range_initialize@PBD@?$basic_string@DV?$char_traits@D@_STL@@V?$allocator@D@2@@_STL@@AAEXPBD0@Z ENDP ; _STL::basic_string<char,_STL::char_traits<char>,_STL::allocator<char> >::_M_range_initialize<char const *>
_TEXT	ENDS
PUBLIC	?_M_insert@?$_Rb_tree@KU?$pair@$$CBKK@_STL@@U?$_Select1st@U?$pair@$$CBKK@_STL@@@2@U?$less@K@2@V?$allocator@U?$pair@$$CBKK@_STL@@@2@@_STL@@AAE?AU?$_Rb_tree_iterator@U?$pair@$$CBKK@_STL@@U?$_Nonconst_traits@U?$pair@$$CBKK@_STL@@@2@@2@PAU_Rb_tree_node_base@2@0ABU?$pair@$$CBKK@2@0@Z ; _STL::_Rb_tree<unsigned long,_STL::pair<unsigned long const ,unsigned long>,_STL::_Select1st<_STL::pair<unsigned long const ,unsigned long> >,_STL::less<unsigned long>,_STL::allocator<_STL::pair<unsigned long const ,unsigned long> > >::_M_insert
EXTRN	?_Rebalance@?$_Rb_global@_N@_STL@@SAXPAU_Rb_tree_node_base@2@AAPAU32@@Z:NEAR ; _STL::_Rb_global<bool>::_Rebalance
; Function compile flags: /Ogsy
; File c:\stlport-4.6.1\stlport\stl\_tree.c
;	COMDAT ?_M_insert@?$_Rb_tree@KU?$pair@$$CBKK@_STL@@U?$_Select1st@U?$pair@$$CBKK@_STL@@@2@U?$less@K@2@V?$allocator@U?$pair@$$CBKK@_STL@@@2@@_STL@@AAE?AU?$_Rb_tree_iterator@U?$pair@$$CBKK@_STL@@U?$_Nonconst_traits@U?$pair@$$CBKK@_STL@@@2@@2@PAU_Rb_tree_node_base@2@0ABU?$pair@$$CBKK@2@0@Z
_TEXT	SEGMENT
___$ReturnUdt$ = 8					; size = 4
___x_$ = 12						; size = 4
___y_$ = 16						; size = 4
___v$ = 20						; size = 4
___w_$ = 24						; size = 4
?_M_insert@?$_Rb_tree@KU?$pair@$$CBKK@_STL@@U?$_Select1st@U?$pair@$$CBKK@_STL@@@2@U?$less@K@2@V?$allocator@U?$pair@$$CBKK@_STL@@@2@@_STL@@AAE?AU?$_Rb_tree_iterator@U?$pair@$$CBKK@_STL@@U?$_Nonconst_traits@U?$pair@$$CBKK@_STL@@@2@@2@PAU_Rb_tree_node_base@2@0ABU?$pair@$$CBKK@2@0@Z PROC NEAR ; _STL::_Rb_tree<unsigned long,_STL::pair<unsigned long const ,unsigned long>,_STL::_Select1st<_STL::pair<unsigned long const ,unsigned long> >,_STL::less<unsigned long>,_STL::allocator<_STL::pair<unsigned long const ,unsigned long> > >::_M_insert, COMDAT
; _this$ = ecx

; 347  : {

  00000	55		 push	 ebp
  00001	8b ec		 mov	 ebp, esp

; 348  :   _Link_type __w = (_Link_type) __w_;
; 349  :   _Link_type __x = (_Link_type) __x_;
; 350  :   _Link_type __y = (_Link_type) __y_;
; 351  :   _Link_type __z;
; 352  : 
; 353  :   if ( __y == this->_M_header._M_data ||
; 354  :        ( __w == 0 && // If w != 0, the remainder fails to false
; 355  :          ( __x != 0 ||     // If x != 0, the remainder succeeds to true
; 356  :            _M_key_compare( _KeyOfValue()(__v), _S_key(__y) ) )
; 357  : 	 )
; 358  :        ) {

  00003	8b 45 14	 mov	 eax, DWORD PTR ___v$[ebp]
  00006	53		 push	 ebx
  00007	8b 5d 10	 mov	 ebx, DWORD PTR ___y_$[ebp]
  0000a	56		 push	 esi
  0000b	57		 push	 edi
  0000c	8b f9		 mov	 edi, ecx
  0000e	3b 1f		 cmp	 ebx, DWORD PTR [edi]
  00010	74 2c		 je	 SHORT $L101903
  00012	83 7d 18 00	 cmp	 DWORD PTR ___w_$[ebp], 0
  00016	75 0d		 jne	 SHORT $L101901
  00018	83 7d 0c 00	 cmp	 DWORD PTR ___x_$[ebp], 0
  0001c	75 20		 jne	 SHORT $L101903
  0001e	8b 08		 mov	 ecx, DWORD PTR [eax]
  00020	3b 4b 10	 cmp	 ecx, DWORD PTR [ebx+16]
  00023	72 19		 jb	 SHORT $L101903
$L101901:

; 369  :   }
; 370  :   else {
; 371  :     __z = _M_create_node(__v);

  00025	50		 push	 eax
  00026	8b cf		 mov	 ecx, edi
  00028	e8 00 00 00 00	 call	 ?_M_create_node@?$_Rb_tree@KU?$pair@$$CBKK@_STL@@U?$_Select1st@U?$pair@$$CBKK@_STL@@@2@U?$less@K@2@V?$allocator@U?$pair@$$CBKK@_STL@@@2@@_STL@@IAEPAU?$_Rb_tree_node@U?$pair@$$CBKK@_STL@@@2@ABU?$pair@$$CBKK@2@@Z ; _STL::_Rb_tree<unsigned long,_STL::pair<unsigned long const ,unsigned long>,_STL::_Select1st<_STL::pair<unsigned long const ,unsigned long> >,_STL::less<unsigned long>,_STL::allocator<_STL::pair<unsigned long const ,unsigned long> > >::_M_create_node
  0002d	8b f0		 mov	 esi, eax

; 372  :     _S_right(__y) = __z;

  0002f	89 73 0c	 mov	 DWORD PTR [ebx+12], esi

; 373  :     if (__y == _M_rightmost())

  00032	8b 07		 mov	 eax, DWORD PTR [edi]
  00034	3b 58 0c	 cmp	 ebx, DWORD PTR [eax+12]
  00037	75 27		 jne	 SHORT $L101906
$L103498:

; 374  :       _M_rightmost() = __z;  // maintain _M_rightmost() pointing to max node

  00039	89 70 0c	 mov	 DWORD PTR [eax+12], esi
  0003c	eb 22		 jmp	 SHORT $L101906
$L101903:

; 359  :     
; 360  :     __z = _M_create_node(__v);

  0003e	50		 push	 eax
  0003f	8b cf		 mov	 ecx, edi
  00041	e8 00 00 00 00	 call	 ?_M_create_node@?$_Rb_tree@KU?$pair@$$CBKK@_STL@@U?$_Select1st@U?$pair@$$CBKK@_STL@@@2@U?$less@K@2@V?$allocator@U?$pair@$$CBKK@_STL@@@2@@_STL@@IAEPAU?$_Rb_tree_node@U?$pair@$$CBKK@_STL@@@2@ABU?$pair@$$CBKK@2@@Z ; _STL::_Rb_tree<unsigned long,_STL::pair<unsigned long const ,unsigned long>,_STL::_Select1st<_STL::pair<unsigned long const ,unsigned long> >,_STL::less<unsigned long>,_STL::allocator<_STL::pair<unsigned long const ,unsigned long> > >::_M_create_node
  00046	8b f0		 mov	 esi, eax

; 361  :     _S_left(__y) = __z;               // also makes _M_leftmost() = __z 

  00048	89 73 08	 mov	 DWORD PTR [ebx+8], esi

; 362  :                                       //    when __y == _M_header
; 363  :     if (__y == this->_M_header._M_data) {

  0004b	8b 07		 mov	 eax, DWORD PTR [edi]
  0004d	3b d8		 cmp	 ebx, eax
  0004f	75 07		 jne	 SHORT $L101904

; 364  :       _M_root() = __z;

  00051	89 70 04	 mov	 DWORD PTR [eax+4], esi

; 365  :       _M_rightmost() = __z;

  00054	8b 07		 mov	 eax, DWORD PTR [edi]

; 366  :     }
; 367  :     else if (__y == _M_leftmost())

  00056	eb e1		 jmp	 SHORT $L103498
$L101904:
  00058	3b 58 08	 cmp	 ebx, DWORD PTR [eax+8]
  0005b	75 03		 jne	 SHORT $L101906

; 368  :       _M_leftmost() = __z;   // maintain _M_leftmost() pointing to min node

  0005d	89 70 08	 mov	 DWORD PTR [eax+8], esi
$L101906:

; 375  :   }
; 376  :   _S_parent(__z) = __y;
; 377  :   _S_left(__z) = 0;

  00060	83 66 08 00	 and	 DWORD PTR [esi+8], 0

; 378  :   _S_right(__z) = 0;

  00064	83 66 0c 00	 and	 DWORD PTR [esi+12], 0
  00068	89 5e 04	 mov	 DWORD PTR [esi+4], ebx

; 379  :   _Rb_global_inst::_Rebalance(__z, this->_M_header._M_data->_M_parent);

  0006b	8b 07		 mov	 eax, DWORD PTR [edi]
  0006d	83 c0 04	 add	 eax, 4
  00070	50		 push	 eax
  00071	56		 push	 esi
  00072	e8 00 00 00 00	 call	 ?_Rebalance@?$_Rb_global@_N@_STL@@SAXPAU_Rb_tree_node_base@2@AAPAU32@@Z ; _STL::_Rb_global<bool>::_Rebalance

; 380  :   ++_M_node_count;

  00077	ff 47 04	 inc	 DWORD PTR [edi+4]

; 381  :   return iterator(__z);

  0007a	8b 45 08	 mov	 eax, DWORD PTR ___$ReturnUdt$[ebp]
  0007d	59		 pop	 ecx
  0007e	59		 pop	 ecx
  0007f	5f		 pop	 edi
  00080	89 30		 mov	 DWORD PTR [eax], esi
  00082	5e		 pop	 esi
  00083	5b		 pop	 ebx

; 382  : }

  00084	5d		 pop	 ebp
  00085	c2 14 00	 ret	 20			; 00000014H
?_M_insert@?$_Rb_tree@KU?$pair@$$CBKK@_STL@@U?$_Select1st@U?$pair@$$CBKK@_STL@@@2@U?$less@K@2@V?$allocator@U?$pair@$$CBKK@_STL@@@2@@_STL@@AAE?AU?$_Rb_tree_iterator@U?$pair@$$CBKK@_STL@@U?$_Nonconst_traits@U?$pair@$$CBKK@_STL@@@2@@2@PAU_Rb_tree_node_base@2@0ABU?$pair@$$CBKK@2@0@Z ENDP ; _STL::_Rb_tree<unsigned long,_STL::pair<unsigned long const ,unsigned long>,_STL::_Select1st<_STL::pair<unsigned long const ,unsigned long> >,_STL::less<unsigned long>,_STL::allocator<_STL::pair<unsigned long const ,unsigned long> > >::_M_insert
_TEXT	ENDS
PUBLIC	?insert_unique@?$_Rb_tree@KU?$pair@$$CBKK@_STL@@U?$_Select1st@U?$pair@$$CBKK@_STL@@@2@U?$less@K@2@V?$allocator@U?$pair@$$CBKK@_STL@@@2@@_STL@@QAE?AU?$pair@U?$_Rb_tree_iterator@U?$pair@$$CBKK@_STL@@U?$_Nonconst_traits@U?$pair@$$CBKK@_STL@@@2@@_STL@@_N@2@ABU?$pair@$$CBKK@2@@Z ; _STL::_Rb_tree<unsigned long,_STL::pair<unsigned long const ,unsigned long>,_STL::_Select1st<_STL::pair<unsigned long const ,unsigned long> >,_STL::less<unsigned long>,_STL::allocator<_STL::pair<unsigned long const ,unsigned long> > >::insert_unique
; Function compile flags: /Ogsy
;	COMDAT ?insert_unique@?$_Rb_tree@KU?$pair@$$CBKK@_STL@@U?$_Select1st@U?$pair@$$CBKK@_STL@@@2@U?$less@K@2@V?$allocator@U?$pair@$$CBKK@_STL@@@2@@_STL@@QAE?AU?$pair@U?$_Rb_tree_iterator@U?$pair@$$CBKK@_STL@@U?$_Nonconst_traits@U?$pair@$$CBKK@_STL@@@2@@_STL@@_N@2@ABU?$pair@$$CBKK@2@@Z
_TEXT	SEGMENT
___$ReturnUdt$ = 8					; size = 4
$T103509 = 12						; size = 4
___v$ = 12						; size = 4
?insert_unique@?$_Rb_tree@KU?$pair@$$CBKK@_STL@@U?$_Select1st@U?$pair@$$CBKK@_STL@@@2@U?$less@K@2@V?$allocator@U?$pair@$$CBKK@_STL@@@2@@_STL@@QAE?AU?$pair@U?$_Rb_tree_iterator@U?$pair@$$CBKK@_STL@@U?$_Nonconst_traits@U?$pair@$$CBKK@_STL@@@2@@_STL@@_N@2@ABU?$pair@$$CBKK@2@@Z PROC NEAR ; _STL::_Rb_tree<unsigned long,_STL::pair<unsigned long const ,unsigned long>,_STL::_Select1st<_STL::pair<unsigned long const ,unsigned long> >,_STL::less<unsigned long>,_STL::allocator<_STL::pair<unsigned long const ,unsigned long> > >::insert_unique, COMDAT
; _this$ = ecx

; 401  : {

  00000	55		 push	 ebp
  00001	8b ec		 mov	 ebp, esp
  00003	53		 push	 ebx
  00004	8b d9		 mov	 ebx, ecx

; 402  :   _Link_type __y = this->_M_header._M_data;

  00006	8b 0b		 mov	 ecx, DWORD PTR [ebx]
  00008	56		 push	 esi

; 403  :   _Link_type __x = _M_root();

  00009	8b 71 04	 mov	 esi, DWORD PTR [ecx+4]

; 404  :   bool __comp = true;
; 405  :   while (__x != 0) {

  0000c	85 f6		 test	 esi, esi
  0000e	57		 push	 edi
  0000f	8b f9		 mov	 edi, ecx
  00011	b2 01		 mov	 dl, 1
  00013	74 1d		 je	 SHORT $L103613

; 417  :     return pair<iterator,bool>(_M_insert(__x, __y, __v), true);

  00015	8b 45 0c	 mov	 eax, DWORD PTR ___v$[ebp]
  00018	8b 00		 mov	 eax, DWORD PTR [eax]
$L101924:
  0001a	3b 46 10	 cmp	 eax, DWORD PTR [esi+16]
  0001d	8b fe		 mov	 edi, esi
  0001f	0f 92 c2	 setb	 dl
  00022	84 d2		 test	 dl, dl
  00024	74 05		 je	 SHORT $L103502

; 406  :     __y = __x;
; 407  :     __comp = _M_key_compare(_KeyOfValue()(__v), _S_key(__x));
; 408  :     __x = __comp ? _S_left(__x) : _S_right(__x);

  00026	8b 76 08	 mov	 esi, DWORD PTR [esi+8]
  00029	eb 03		 jmp	 SHORT $L103503
$L103502:
  0002b	8b 76 0c	 mov	 esi, DWORD PTR [esi+12]
$L103503:

; 404  :   bool __comp = true;
; 405  :   while (__x != 0) {

