; Listing generated by Microsoft (R) Optimizing Compiler Version 13.10.3077 

	TITLE	\darkeden\Designed_Common\Project\Client\Packet\Gpackets\GCUpdateWeekItemList.cpp
	.386P
include listing.inc
if @Version gt 510
.model FLAT
else
_TEXT	SEGMENT PARA USE32 PUBLIC 'CODE'
_TEXT	ENDS
_DATA	SEGMENT DWORD USE32 PUBLIC 'DATA'
_DATA	ENDS
CONST	SEGMENT DWORD USE32 PUBLIC 'CONST'
CONST	ENDS
_BSS	SEGMENT DWORD USE32 PUBLIC 'BSS'
_BSS	ENDS
$$SYMBOLS	SEGMENT BYTE USE32 'DEBSYM'
$$SYMBOLS	ENDS
$$TYPES	SEGMENT BYTE USE32 'DEBTYP'
$$TYPES	ENDS
_TLS	SEGMENT DWORD USE32 PUBLIC 'TLS'
_TLS	ENDS
;	COMDAT ??_C@_0CA@NDINADEE@SocketOutputStream?$CIm_BufferLen?3?$AA@
CONST	SEGMENT DWORD USE32 PUBLIC 'CONST'
CONST	ENDS
;	COMDAT ??_C@_08LIHEOLAN@?0m_Head?3?$AA@
CONST	SEGMENT DWORD USE32 PUBLIC 'CONST'
CONST	ENDS
;	COMDAT ??_C@_08PCEHPGHK@?0m_Tail?3?$AA@
CONST	SEGMENT DWORD USE32 PUBLIC 'CONST'
CONST	ENDS
;	COMDAT ??_C@_01PKGAHCOL@?$CJ?$AA@
CONST	SEGMENT DWORD USE32 PUBLIC 'CONST'
CONST	ENDS
;	COMDAT ??_C@_0L@BDCCKKOC@WeekItem?$CI?5?$AA@
CONST	SEGMENT DWORD USE32 PUBLIC 'CONST'
CONST	ENDS
;	COMDAT ??_C@_05NHFDBAKL@ID?5?3?5?$AA@
CONST	SEGMENT DWORD USE32 PUBLIC 'CONST'
CONST	ENDS
;	COMDAT ??_C@_0P@FCKCEEAF@?0?5ItemClass?5?3?5?$AA@
CONST	SEGMENT DWORD USE32 PUBLIC 'CONST'
CONST	ENDS
;	COMDAT ??_C@_0O@ONFOFHAN@?0?5ItemType?5?3?5?$AA@
CONST	SEGMENT DWORD USE32 PUBLIC 'CONST'
CONST	ENDS
;	COMDAT ??_C@_0L@PABJLBAK@?0?5Grade?5?3?5?$AA@
CONST	SEGMENT DWORD USE32 PUBLIC 'CONST'
CONST	ENDS
;	COMDAT ??_C@_0O@KNKPGJBM@?0?5Options?5?3?5?$CI?$AA@
CONST	SEGMENT DWORD USE32 PUBLIC 'CONST'
CONST	ENDS
;	COMDAT ??_C@_02KEGNLNML@?0?5?$AA@
CONST	SEGMENT DWORD USE32 PUBLIC 'CONST'
CONST	ENDS
;	COMDAT ??_C@_09LNGGAC@?$CJ?0?5Num?5?3?5?$AA@
CONST	SEGMENT DWORD USE32 PUBLIC 'CONST'
CONST	ENDS
;	COMDAT ??_C@_0P@NKLOJJCO@?0?5TimeLimit?5?3?5?$AA@
CONST	SEGMENT DWORD USE32 PUBLIC 'CONST'
CONST	ENDS
;	COMDAT ??_C@_0BA@EJPKLKKM@?0?5Durability?5?3?5?$AA@
CONST	SEGMENT DWORD USE32 PUBLIC 'CONST'
CONST	ENDS
;	COMDAT ??_C@_0BF@DOBEDNIL@GCUpdateWeekItemList?$AA@
CONST	SEGMENT DWORD USE32 PUBLIC 'CONST'
CONST	ENDS
;	COMDAT ??_C@_0DI@LMIPDBKN@GCUpdateWeekItemList?5?3?5?$LJ?$LA?$LA?G?5?$LA?$LD?$LM?v@
CONST	SEGMENT DWORD USE32 PUBLIC 'CONST'
CONST	ENDS
;	COMDAT ??_C@_0N@GOPDCEEB@basic_string?$AA@
CONST	SEGMENT DWORD USE32 PUBLIC 'CONST'
CONST	ENDS
xdata$x	SEGMENT DWORD USE32 PUBLIC 'CONST'
xdata$x	ENDS
rdata$r	SEGMENT DWORD USE32 PUBLIC 'CONST'
rdata$r	ENDS
text$yc	SEGMENT PARA USE32 PUBLIC 'CODE'
text$yc	ENDS
CRT$XCA	SEGMENT DWORD USE32 PUBLIC 'DATA'
CRT$XCA	ENDS
CRT$XCU	SEGMENT DWORD USE32 PUBLIC 'DATA'
CRT$XCU	ENDS
CRT$XCL	SEGMENT DWORD USE32 PUBLIC 'DATA'
CRT$XCL	ENDS
CRT$XCC	SEGMENT DWORD USE32 PUBLIC 'DATA'
CRT$XCC	ENDS
CRT$XCZ	SEGMENT DWORD USE32 PUBLIC 'DATA'
CRT$XCZ	ENDS
text$yd	SEGMENT PARA USE32 PUBLIC 'CODE'
text$yd	ENDS
;	COMDAT ?getHost@SocketImpl@@QBE?AV?$basic_string@DV?$char_traits@D@_STL@@V?$allocator@D@2@@_STL@@XZ
_TEXT	SEGMENT PARA USE32 PUBLIC 'CODE'
_TEXT	ENDS
;	COMDAT ?getPort@SocketImpl@@QBEIXZ
_TEXT	SEGMENT PARA USE32 PUBLIC 'CODE'
_TEXT	ENDS
;	COMDAT ?isValid@SocketImpl@@QBE_NXZ
_TEXT	SEGMENT PARA USE32 PUBLIC 'CODE'
_TEXT	ENDS
;	COMDAT ?getSOCKET@SocketImpl@@QBEIXZ
_TEXT	SEGMENT PARA USE32 PUBLIC 'CODE'
_TEXT	ENDS
;	COMDAT ?read@SocketInputStream@@QAEIAAE@Z
_TEXT	SEGMENT PARA USE32 PUBLIC 'CODE'
_TEXT	ENDS
;	COMDAT ?read@SocketInputStream@@QAEIAAG@Z
_TEXT	SEGMENT PARA USE32 PUBLIC 'CODE'
_TEXT	ENDS
;	COMDAT ?read@SocketInputStream@@QAEIAAH@Z
_TEXT	SEGMENT PARA USE32 PUBLIC 'CODE'
_TEXT	ENDS
;	COMDAT ?read@SocketInputStream@@QAEIAAK@Z
_TEXT	SEGMENT PARA USE32 PUBLIC 'CODE'
_TEXT	ENDS
;	COMDAT ?write@SocketOutputStream@@QAEIE@Z
_TEXT	SEGMENT PARA USE32 PUBLIC 'CODE'
_TEXT	ENDS
;	COMDAT ?write@SocketOutputStream@@QAEIG@Z
_TEXT	SEGMENT PARA USE32 PUBLIC 'CODE'
_TEXT	ENDS
;	COMDAT ?write@SocketOutputStream@@QAEIH@Z
_TEXT	SEGMENT PARA USE32 PUBLIC 'CODE'
_TEXT	ENDS
;	COMDAT ?write@SocketOutputStream@@QAEII@Z
_TEXT	SEGMENT PARA USE32 PUBLIC 'CODE'
_TEXT	ENDS
;	COMDAT ?write@SocketOutputStream@@QAEIK@Z
_TEXT	SEGMENT PARA USE32 PUBLIC 'CODE'
_TEXT	ENDS
;	COMDAT ??1Packet@@UAE@XZ
_TEXT	SEGMENT PARA USE32 PUBLIC 'CODE'
_TEXT	ENDS
;	COMDAT ?read@Packet@@UAEXPAVSocket@@@Z
_TEXT	SEGMENT PARA USE32 PUBLIC 'CODE'
_TEXT	ENDS
;	COMDAT ?write@Packet@@UBEXPAVSocket@@@Z
_TEXT	SEGMENT PARA USE32 PUBLIC 'CODE'
_TEXT	ENDS
;	COMDAT ??_GPacket@@UAEPAXI@Z
_TEXT	SEGMENT PARA USE32 PUBLIC 'CODE'
_TEXT	ENDS
;	COMDAT ??0UnsupportedError@@QAE@ABV0@@Z
_TEXT	SEGMENT PARA USE32 PUBLIC 'CODE'
_TEXT	ENDS
;	COMDAT ??0Error@@QAE@ABV0@@Z
_TEXT	SEGMENT PARA USE32 PUBLIC 'CODE'
_TEXT	ENDS
;	COMDAT ??0Throwable@@QAE@ABV0@@Z
_TEXT	SEGMENT PARA USE32 PUBLIC 'CODE'
_TEXT	ENDS
;	COMDAT ??1PacketFactory@@UAE@XZ
_TEXT	SEGMENT PARA USE32 PUBLIC 'CODE'
_TEXT	ENDS
;	COMDAT ??_GPacketFactory@@UAEPAXI@Z
_TEXT	SEGMENT PARA USE32 PUBLIC 'CODE'
_TEXT	ENDS
;	COMDAT ?getPacketSize@_WeekItemInfo@@QBEHXZ
_TEXT	SEGMENT PARA USE32 PUBLIC 'CODE'
_TEXT	ENDS
;	COMDAT ?getPacketMaxSize@_WeekItemInfo@@SAHXZ
_TEXT	SEGMENT PARA USE32 PUBLIC 'CODE'
_TEXT	ENDS
;	COMDAT ?getPacketID@GCUpdateWeekItemList@@UBEGXZ
_TEXT	SEGMENT PARA USE32 PUBLIC 'CODE'
_TEXT	ENDS
;	COMDAT ?addWeekItemInfo@GCUpdateWeekItemList@@QAEXPAU_WeekItemInfo@@@Z
_TEXT	SEGMENT PARA USE32 PUBLIC 'CODE'
_TEXT	ENDS
;	COMDAT ??0GCUpdateWeekItemList@@QAE@XZ
_TEXT	SEGMENT PARA USE32 PUBLIC 'CODE'
_TEXT	ENDS
;	COMDAT ??_GGCUpdateWeekItemList@@UAEPAXI@Z
_TEXT	SEGMENT PARA USE32 PUBLIC 'CODE'
_TEXT	ENDS
;	COMDAT ??0Packet@@QAE@XZ
_TEXT	SEGMENT PARA USE32 PUBLIC 'CODE'
_TEXT	ENDS
;	COMDAT ??1GCUpdateWeekItemList@@UAE@XZ
_TEXT	SEGMENT PARA USE32 PUBLIC 'CODE'
_TEXT	ENDS
;	COMDAT ??_G_WeekItemInfo@@QAEPAXI@Z
_TEXT	SEGMENT PARA USE32 PUBLIC 'CODE'
_TEXT	ENDS
;	COMDAT ??1_WeekItemInfo@@QAE@XZ
_TEXT	SEGMENT PARA USE32 PUBLIC 'CODE'
_TEXT	ENDS
;	COMDAT ?read@GCUpdateWeekItemList@@UAEXAAVSocketInputStream@@@Z
_TEXT	SEGMENT PARA USE32 PUBLIC 'CODE'
_TEXT	ENDS
;	COMDAT ??0DisconnectException@@QAE@ABV0@@Z
_TEXT	SEGMENT PARA USE32 PUBLIC 'CODE'
_TEXT	ENDS
;	COMDAT ??0_WeekItemInfo@@QAE@XZ
_TEXT	SEGMENT PARA USE32 PUBLIC 'CODE'
_TEXT	ENDS
;	COMDAT ??0ProtocolException@@QAE@ABV0@@Z
_TEXT	SEGMENT PARA USE32 PUBLIC 'CODE'
_TEXT	ENDS
;	COMDAT ??0IOException@@QAE@ABV0@@Z
_TEXT	SEGMENT PARA USE32 PUBLIC 'CODE'
_TEXT	ENDS
;	COMDAT ??0Exception@@QAE@ABV0@@Z
_TEXT	SEGMENT PARA USE32 PUBLIC 'CODE'
_TEXT	ENDS
;	COMDAT ?write@GCUpdateWeekItemList@@UBEXAAVSocketOutputStream@@@Z
_TEXT	SEGMENT PARA USE32 PUBLIC 'CODE'
_TEXT	ENDS
;	COMDAT ?execute@GCUpdateWeekItemList@@UAEXPAVPlayer@@@Z
_TEXT	SEGMENT PARA USE32 PUBLIC 'CODE'
_TEXT	ENDS
;	COMDAT ?getPacketSize@GCUpdateWeekItemList@@UBEIXZ
_TEXT	SEGMENT PARA USE32 PUBLIC 'CODE'
_TEXT	ENDS
;	COMDAT ?eq@?$__char_traits_base@DH@_STL@@SA_NABD0@Z
_TEXT	SEGMENT PARA USE32 PUBLIC 'CODE'
_TEXT	ENDS
;	COMDAT ?not_eof@?$__char_traits_base@DH@_STL@@SAHABH@Z
_TEXT	SEGMENT PARA USE32 PUBLIC 'CODE'
_TEXT	ENDS
;	COMDAT ?eq_int_type@?$__char_traits_base@DH@_STL@@SA_NABH0@Z
_TEXT	SEGMENT PARA USE32 PUBLIC 'CODE'
_TEXT	ENDS
;	COMDAT ?get_allocator@?$basic_string@DV?$char_traits@D@_STL@@V?$allocator@D@2@@_STL@@QBE?AV?$allocator@D@2@XZ
_TEXT	SEGMENT PARA USE32 PUBLIC 'CODE'
_TEXT	ENDS
;	COMDAT ?_M_terminate_string@?$basic_string@DV?$char_traits@D@_STL@@V?$allocator@D@2@@_STL@@AAEXXZ
_TEXT	SEGMENT PARA USE32 PUBLIC 'CODE'
_TEXT	ENDS
;	COMDAT ?size@?$basic_string@DV?$char_traits@D@_STL@@V?$allocator@D@2@@_STL@@QBEIXZ
_TEXT	SEGMENT PARA USE32 PUBLIC 'CODE'
_TEXT	ENDS
;	COMDAT ?c_str@?$basic_string@DV?$char_traits@D@_STL@@V?$allocator@D@2@@_STL@@QBEPBDXZ
_TEXT	SEGMENT PARA USE32 PUBLIC 'CODE'
_TEXT	ENDS
;	COMDAT ??0?$_String_base@DV?$allocator@D@_STL@@@_STL@@QAE@ABV?$allocator@D@1@@Z
_TEXT	SEGMENT PARA USE32 PUBLIC 'CODE'
_TEXT	ENDS
;	COMDAT ?allocate@?$allocator@D@_STL@@QAEPADIPBX@Z
_TEXT	SEGMENT PARA USE32 PUBLIC 'CODE'
_TEXT	ENDS
;	COMDAT ??0?$allocator@G@_STL@@QAE@XZ
_TEXT	SEGMENT PARA USE32 PUBLIC 'CODE'
_TEXT	ENDS
;	COMDAT ??0?$fpos@H@_STL@@QAE@J@Z
_TEXT	SEGMENT PARA USE32 PUBLIC 'CODE'
_TEXT	ENDS
;	COMDAT ??B?$fpos@H@_STL@@QBEJXZ
_TEXT	SEGMENT PARA USE32 PUBLIC 'CODE'
_TEXT	ENDS
;	COMDAT ?state@?$fpos@H@_STL@@QBEHXZ
_TEXT	SEGMENT PARA USE32 PUBLIC 'CODE'
_TEXT	ENDS
;	COMDAT ?is_open@?$basic_filebuf@DV?$char_traits@D@_STL@@@_STL@@QBE_NXZ
_TEXT	SEGMENT PARA USE32 PUBLIC 'CODE'
_TEXT	ENDS
;	COMDAT ?_M_seek_return@?$basic_filebuf@DV?$char_traits@D@_STL@@@_STL@@AAE?AV?$fpos@H@2@JH@Z
_TEXT	SEGMENT PARA USE32 PUBLIC 'CODE'
_TEXT	ENDS
;	COMDAT ??0?$list@V?$basic_string@DV?$char_traits@D@_STL@@V?$allocator@D@2@@_STL@@V?$allocator@V?$basic_string@DV?$char_traits@D@_STL@@V?$allocator@D@2@@_STL@@@2@@_STL@@QAE@ABV01@@Z
_TEXT	SEGMENT PARA USE32 PUBLIC 'CODE'
_TEXT	ENDS
;	COMDAT ??0?$_Filebuf_Tmp_Buf@D@_STL@@QAE@H@Z
_TEXT	SEGMENT PARA USE32 PUBLIC 'CODE'
_TEXT	ENDS
;	COMDAT ??1?$_Filebuf_Tmp_Buf@D@_STL@@QAE@XZ
_TEXT	SEGMENT PARA USE32 PUBLIC 'CODE'
_TEXT	ENDS
;	COMDAT ??0?$list@GV?$allocator@G@_STL@@@_STL@@QAE@ABV?$allocator@G@1@@Z
_TEXT	SEGMENT PARA USE32 PUBLIC 'CODE'
_TEXT	ENDS
;	COMDAT ?begin@?$list@GV?$allocator@G@_STL@@@_STL@@QAE?AU?$_List_iterator@GU?$_Nonconst_traits@G@_STL@@@2@XZ
_TEXT	SEGMENT PARA USE32 PUBLIC 'CODE'
_TEXT	ENDS
;	COMDAT ?begin@?$list@GV?$allocator@G@_STL@@@_STL@@QBE?AU?$_List_iterator@GU?$_Const_traits@G@_STL@@@2@XZ
_TEXT	SEGMENT PARA USE32 PUBLIC 'CODE'
_TEXT	ENDS
;	COMDAT ?end@?$list@GV?$allocator@G@_STL@@@_STL@@QAE?AU?$_List_iterator@GU?$_Nonconst_traits@G@_STL@@@2@XZ
_TEXT	SEGMENT PARA USE32 PUBLIC 'CODE'
_TEXT	ENDS
;	COMDAT ?end@?$list@GV?$allocator@G@_STL@@@_STL@@QBE?AU?$_List_iterator@GU?$_Const_traits@G@_STL@@@2@XZ
_TEXT	SEGMENT PARA USE32 PUBLIC 'CODE'
_TEXT	ENDS
;	COMDAT ?size@?$list@GV?$allocator@G@_STL@@@_STL@@QBEIXZ
_TEXT	SEGMENT PARA USE32 PUBLIC 'CODE'
_TEXT	ENDS
;	COMDAT ?push_back@?$list@GV?$allocator@G@_STL@@@_STL@@QAEXABG@Z
_TEXT	SEGMENT PARA USE32 PUBLIC 'CODE'
_TEXT	ENDS
;	COMDAT ??1?$list@GV?$allocator@G@_STL@@@_STL@@QAE@XZ
_TEXT	SEGMENT PARA USE32 PUBLIC 'CODE'
_TEXT	ENDS
;	COMDAT ??0?$_List_iterator@GU?$_Const_traits@G@_STL@@@_STL@@QAE@ABU?$_List_iterator@GU?$_Nonconst_traits@G@_STL@@@1@@Z
_TEXT	SEGMENT PARA USE32 PUBLIC 'CODE'
_TEXT	ENDS
;	COMDAT ??D?$_List_iterator@GU?$_Const_traits@G@_STL@@@_STL@@QBEABGXZ
_TEXT	SEGMENT PARA USE32 PUBLIC 'CODE'
_TEXT	ENDS
;	COMDAT ??E?$_List_iterator@GU?$_Const_traits@G@_STL@@@_STL@@QAEAAU01@XZ
_TEXT	SEGMENT PARA USE32 PUBLIC 'CODE'
_TEXT	ENDS
;	COMDAT ??0?$list@PAU_WeekItemInfo@@V?$allocator@PAU_WeekItemInfo@@@_STL@@@_STL@@QAE@ABV?$allocator@PAU_WeekItemInfo@@@1@@Z
_TEXT	SEGMENT PARA USE32 PUBLIC 'CODE'
_TEXT	ENDS
;	COMDAT ?begin@?$list@PAU_WeekItemInfo@@V?$allocator@PAU_WeekItemInfo@@@_STL@@@_STL@@QAE?AU?$_List_iterator@PAU_WeekItemInfo@@U?$_Nonconst_traits@PAU_WeekItemInfo@@@_STL@@@2@XZ
_TEXT	SEGMENT PARA USE32 PUBLIC 'CODE'
_TEXT	ENDS
;	COMDAT ?begin@?$list@PAU_WeekItemInfo@@V?$allocator@PAU_WeekItemInfo@@@_STL@@@_STL@@QBE?AU?$_List_iterator@PAU_WeekItemInfo@@U?$_Const_traits@PAU_WeekItemInfo@@@_STL@@@2@XZ
_TEXT	SEGMENT PARA USE32 PUBLIC 'CODE'
_TEXT	ENDS
;	COMDAT ?end@?$list@PAU_WeekItemInfo@@V?$allocator@PAU_WeekItemInfo@@@_STL@@@_STL@@QAE?AU?$_List_iterator@PAU_WeekItemInfo@@U?$_Nonconst_traits@PAU_WeekItemInfo@@@_STL@@@2@XZ
_TEXT	SEGMENT PARA USE32 PUBLIC 'CODE'
_TEXT	ENDS
;	COMDAT ?end@?$list@PAU_WeekItemInfo@@V?$allocator@PAU_WeekItemInfo@@@_STL@@@_STL@@QBE?AU?$_List_iterator@PAU_WeekItemInfo@@U?$_Const_traits@PAU_WeekItemInfo@@@_STL@@@2@XZ
_TEXT	SEGMENT PARA USE32 PUBLIC 'CODE'
_TEXT	ENDS
;	COMDAT ?size@?$list@PAU_WeekItemInfo@@V?$allocator@PAU_WeekItemInfo@@@_STL@@@_STL@@QBEIXZ
_TEXT	SEGMENT PARA USE32 PUBLIC 'CODE'
_TEXT	ENDS
;	COMDAT ?front@?$list@PAU_WeekItemInfo@@V?$allocator@PAU_WeekItemInfo@@@_STL@@@_STL@@QAEAAPAU_WeekItemInfo@@XZ
_TEXT	SEGMENT PARA USE32 PUBLIC 'CODE'
_TEXT	ENDS
;	COMDAT ?push_back@?$list@PAU_WeekItemInfo@@V?$allocator@PAU_WeekItemInfo@@@_STL@@@_STL@@QAEXABQAU_WeekItemInfo@@@Z
_TEXT	SEGMENT PARA USE32 PUBLIC 'CODE'
_TEXT	ENDS
;	COMDAT ?pop_front@?$list@PAU_WeekItemInfo@@V?$allocator@PAU_WeekItemInfo@@@_STL@@@_STL@@QAEXXZ
_TEXT	SEGMENT PARA USE32 PUBLIC 'CODE'
_TEXT	ENDS
;	COMDAT ??1?$list@PAU_WeekItemInfo@@V?$allocator@PAU_WeekItemInfo@@@_STL@@@_STL@@QAE@XZ
_TEXT	SEGMENT PARA USE32 PUBLIC 'CODE'
_TEXT	ENDS
;	COMDAT ??0?$allocator@PAU_WeekItemInfo@@@_STL@@QAE@XZ
_TEXT	SEGMENT PARA USE32 PUBLIC 'CODE'
_TEXT	ENDS
;	COMDAT ??1?$allocator@PAU_WeekItemInfo@@@_STL@@QAE@XZ
_TEXT	SEGMENT PARA USE32 PUBLIC 'CODE'
_TEXT	ENDS
;	COMDAT ??D?$_List_iterator@PAU_WeekItemInfo@@U?$_Nonconst_traits@PAU_WeekItemInfo@@@_STL@@@_STL@@QBEAAPAU_WeekItemInfo@@XZ
_TEXT	SEGMENT PARA USE32 PUBLIC 'CODE'
_TEXT	ENDS
;	COMDAT ??E?$_List_iterator@PAU_WeekItemInfo@@U?$_Nonconst_traits@PAU_WeekItemInfo@@@_STL@@@_STL@@QAEAAU01@XZ
_TEXT	SEGMENT PARA USE32 PUBLIC 'CODE'
_TEXT	ENDS
;	COMDAT ??D?$_List_iterator@PAU_WeekItemInfo@@U?$_Const_traits@PAU_WeekItemInfo@@@_STL@@@_STL@@QBEABQAU_WeekItemInfo@@XZ
_TEXT	SEGMENT PARA USE32 PUBLIC 'CODE'
_TEXT	ENDS
;	COMDAT ??E?$_List_iterator@PAU_WeekItemInfo@@U?$_Const_traits@PAU_WeekItemInfo@@@_STL@@@_STL@@QAEAAU01@XZ
_TEXT	SEGMENT PARA USE32 PUBLIC 'CODE'
_TEXT	ENDS
;	COMDAT ?_M_terminate_string_aux@?$basic_string@DV?$char_traits@D@_STL@@V?$allocator@D@2@@_STL@@AAEXABU__true_type@2@@Z
_TEXT	SEGMENT PARA USE32 PUBLIC 'CODE'
_TEXT	ENDS
;	COMDAT ??0?$allocator@D@_STL@@QAE@ABV01@@Z
_TEXT	SEGMENT PARA USE32 PUBLIC 'CODE'
_TEXT	ENDS
;	COMDAT ??0?$_STLP_alloc_proxy@PADDV?$allocator@D@_STL@@@_STL@@QAE@ABV?$allocator@D@1@PAD@Z
_TEXT	SEGMENT PARA USE32 PUBLIC 'CODE'
_TEXT	ENDS
;	COMDAT ?state@?$fpos@H@_STL@@QAEXH@Z
_TEXT	SEGMENT PARA USE32 PUBLIC 'CODE'
_TEXT	ENDS
;	COMDAT ?get_allocator@?$_List_base@V?$basic_string@DV?$char_traits@D@_STL@@V?$allocator@D@2@@_STL@@V?$allocator@V?$basic_string@DV?$char_traits@D@_STL@@V?$allocator@D@2@@_STL@@@2@@_STL@@QBE?AV?$allocator@V?$basic_string@DV?$char_traits@D@_STL@@V?$allocator@D@2@@_STL@@@2@XZ
_TEXT	SEGMENT PARA USE32 PUBLIC 'CODE'
_TEXT	ENDS
;	COMDAT ?insert@?$list@GV?$allocator@G@_STL@@@_STL@@QAE?AU?$_List_iterator@GU?$_Nonconst_traits@G@_STL@@@2@U32@ABG@Z
_TEXT	SEGMENT PARA USE32 PUBLIC 'CODE'
_TEXT	ENDS
;	COMDAT ??0?$_List_base@GV?$allocator@G@_STL@@@_STL@@QAE@ABV?$allocator@G@1@@Z
_TEXT	SEGMENT PARA USE32 PUBLIC 'CODE'
_TEXT	ENDS
;	COMDAT ??1?$_List_base@GV?$allocator@G@_STL@@@_STL@@QAE@XZ
_TEXT	SEGMENT PARA USE32 PUBLIC 'CODE'
_TEXT	ENDS
;	COMDAT ??0?$_List_iterator@GU?$_Const_traits@G@_STL@@@_STL@@QAE@PAU?$_List_node@G@1@@Z
_TEXT	SEGMENT PARA USE32 PUBLIC 'CODE'
_TEXT	ENDS
;	COMDAT ??0?$_List_iterator@GU?$_Nonconst_traits@G@_STL@@@_STL@@QAE@PAU?$_List_node@G@1@@Z
_TEXT	SEGMENT PARA USE32 PUBLIC 'CODE'
_TEXT	ENDS
;	COMDAT ?insert@?$list@PAU_WeekItemInfo@@V?$allocator@PAU_WeekItemInfo@@@_STL@@@_STL@@QAE?AU?$_List_iterator@PAU_WeekItemInfo@@U?$_Nonconst_traits@PAU_WeekItemInfo@@@_STL@@@2@U32@ABQAU_WeekItemInfo@@@Z
_TEXT	SEGMENT PARA USE32 PUBLIC 'CODE'
_TEXT	ENDS
;	COMDAT ?erase@?$list@PAU_WeekItemInfo@@V?$allocator@PAU_WeekItemInfo@@@_STL@@@_STL@@QAE?AU?$_List_iterator@PAU_WeekItemInfo@@U?$_Nonconst_traits@PAU_WeekItemInfo@@@_STL@@@2@U32@@Z
_TEXT	SEGMENT PARA USE32 PUBLIC 'CODE'
_TEXT	ENDS
;	COMDAT ??0?$_List_base@PAU_WeekItemInfo@@V?$allocator@PAU_WeekItemInfo@@@_STL@@@_STL@@QAE@ABV?$allocator@PAU_WeekItemInfo@@@1@@Z
_TEXT	SEGMENT PARA USE32 PUBLIC 'CODE'
_TEXT	ENDS
;	COMDAT ??1?$_List_base@PAU_WeekItemInfo@@V?$allocator@PAU_WeekItemInfo@@@_STL@@@_STL@@QAE@XZ
_TEXT	SEGMENT PARA USE32 PUBLIC 'CODE'
_TEXT	ENDS
;	COMDAT ??0?$_List_iterator@PAU_WeekItemInfo@@U?$_Nonconst_traits@PAU_WeekItemInfo@@@_STL@@@_STL@@QAE@PAU?$_List_node@PAU_WeekItemInfo@@@1@@Z
_TEXT	SEGMENT PARA USE32 PUBLIC 'CODE'
_TEXT	ENDS
;	COMDAT ??0?$_List_iterator@PAU_WeekItemInfo@@U?$_Const_traits@PAU_WeekItemInfo@@@_STL@@@_STL@@QAE@PAU?$_List_node@PAU_WeekItemInfo@@@1@@Z
_TEXT	SEGMENT PARA USE32 PUBLIC 'CODE'
_TEXT	ENDS
;	COMDAT ??1?$_STLP_alloc_proxy@PAU?$_List_node@G@_STL@@U12@V?$allocator@U?$_List_node@G@_STL@@@2@@_STL@@QAE@XZ
_TEXT	SEGMENT PARA USE32 PUBLIC 'CODE'
_TEXT	ENDS
;	COMDAT ??1?$_STLP_alloc_proxy@PAU?$_List_node@PAU_WeekItemInfo@@@_STL@@U12@V?$allocator@U?$_List_node@PAU_WeekItemInfo@@@_STL@@@2@@_STL@@QAE@XZ
_TEXT	SEGMENT PARA USE32 PUBLIC 'CODE'
_TEXT	ENDS
;	COMDAT ?_M_create_node@?$list@GV?$allocator@G@_STL@@@_STL@@IAEPAU?$_List_node@G@2@ABG@Z
_TEXT	SEGMENT PARA USE32 PUBLIC 'CODE'
_TEXT	ENDS
;	COMDAT ??0?$_STLP_alloc_proxy@PAU?$_List_node@G@_STL@@U12@V?$allocator@U?$_List_node@G@_STL@@@2@@_STL@@QAE@ABV?$allocator@U?$_List_node@G@_STL@@@1@PAU?$_List_node@G@1@@Z
_TEXT	SEGMENT PARA USE32 PUBLIC 'CODE'
_TEXT	ENDS
;	COMDAT ??1?$allocator@U?$_List_node@G@_STL@@@_STL@@QAE@XZ
_TEXT	SEGMENT PARA USE32 PUBLIC 'CODE'
_TEXT	ENDS
;	COMDAT ?allocate@?$allocator@U?$_List_node@G@_STL@@@_STL@@QAEPAU?$_List_node@G@2@IPBX@Z
_TEXT	SEGMENT PARA USE32 PUBLIC 'CODE'
_TEXT	ENDS
;	COMDAT ?deallocate@?$allocator@U?$_List_node@G@_STL@@@_STL@@QAEXPAU?$_List_node@G@2@I@Z
_TEXT	SEGMENT PARA USE32 PUBLIC 'CODE'
_TEXT	ENDS
;	COMDAT ?_M_create_node@?$list@PAU_WeekItemInfo@@V?$allocator@PAU_WeekItemInfo@@@_STL@@@_STL@@IAEPAU?$_List_node@PAU_WeekItemInfo@@@2@ABQAU_WeekItemInfo@@@Z
_TEXT	SEGMENT PARA USE32 PUBLIC 'CODE'
_TEXT	ENDS
;	COMDAT ??0?$_STLP_alloc_proxy@PAU?$_List_node@PAU_WeekItemInfo@@@_STL@@U12@V?$allocator@U?$_List_node@PAU_WeekItemInfo@@@_STL@@@2@@_STL@@QAE@ABV?$allocator@U?$_List_node@PAU_WeekItemInfo@@@_STL@@@1@PAU?$_List_node@PAU_WeekItemInfo@@@1@@Z
_TEXT	SEGMENT PARA USE32 PUBLIC 'CODE'
_TEXT	ENDS
;	COMDAT ??1?$allocator@U?$_List_node@PAU_WeekItemInfo@@@_STL@@@_STL@@QAE@XZ
_TEXT	SEGMENT PARA USE32 PUBLIC 'CODE'
_TEXT	ENDS
;	COMDAT ?allocate@?$allocator@U?$_List_node@PAU_WeekItemInfo@@@_STL@@@_STL@@QAEPAU?$_List_node@PAU_WeekItemInfo@@@2@IPBX@Z
_TEXT	SEGMENT PARA USE32 PUBLIC 'CODE'
_TEXT	ENDS
;	COMDAT ?deallocate@?$allocator@U?$_List_node@PAU_WeekItemInfo@@@_STL@@@_STL@@QAEXPAU?$_List_node@PAU_WeekItemInfo@@@2@I@Z
_TEXT	SEGMENT PARA USE32 PUBLIC 'CODE'
_TEXT	ENDS
;	COMDAT ??0?$allocator@U?$_List_node@G@_STL@@@_STL@@QAE@ABV01@@Z
_TEXT	SEGMENT PARA USE32 PUBLIC 'CODE'
_TEXT	ENDS
;	COMDAT ??0?$allocator@U?$_List_node@PAU_WeekItemInfo@@@_STL@@@_STL@@QAE@ABV01@@Z
_TEXT	SEGMENT PARA USE32 PUBLIC 'CODE'
_TEXT	ENDS
;	COMDAT ??$_M_range_initialize@PBD@?$basic_string@DV?$char_traits@D@_STL@@V?$allocator@D@2@@_STL@@AAEXPBD0@Z
_TEXT	SEGMENT PARA USE32 PUBLIC 'CODE'
_TEXT	ENDS
;	COMDAT ??$_M_range_initialize@PAD@?$basic_string@DV?$char_traits@D@_STL@@V?$allocator@D@2@@_STL@@AAEXPAD0@Z
_TEXT	SEGMENT PARA USE32 PUBLIC 'CODE'
_TEXT	ENDS
;	COMDAT ?close@?$basic_filebuf@DV?$char_traits@D@_STL@@@_STL@@QAEPAV12@XZ
_TEXT	SEGMENT PARA USE32 PUBLIC 'CODE'
_TEXT	ENDS
;	COMDAT ?_M_exit_input_mode@?$basic_filebuf@DV?$char_traits@D@_STL@@@_STL@@AAEXXZ
_TEXT	SEGMENT PARA USE32 PUBLIC 'CODE'
_TEXT	ENDS
;	COMDAT ?_M_switch_to_output_mode@?$basic_filebuf@DV?$char_traits@D@_STL@@@_STL@@AAE_NXZ
_TEXT	SEGMENT PARA USE32 PUBLIC 'CODE'
_TEXT	ENDS
;	COMDAT ?_M_output_error@?$basic_filebuf@DV?$char_traits@D@_STL@@@_STL@@AAEHXZ
_TEXT	SEGMENT PARA USE32 PUBLIC 'CODE'
_TEXT	ENDS
;	COMDAT ?_M_allocate_buffers@?$basic_filebuf@DV?$char_traits@D@_STL@@@_STL@@AAE_NPADH@Z
_TEXT	SEGMENT PARA USE32 PUBLIC 'CODE'
_TEXT	ENDS
;	COMDAT ?_M_deallocate_buffers@?$basic_filebuf@DV?$char_traits@D@_STL@@@_STL@@AAEXXZ
_TEXT	SEGMENT PARA USE32 PUBLIC 'CODE'
_TEXT	ENDS
;	COMDAT ?_M_seek_init@?$basic_filebuf@DV?$char_traits@D@_STL@@@_STL@@AAE_N_N@Z
_TEXT	SEGMENT PARA USE32 PUBLIC 'CODE'
_TEXT	ENDS
;	COMDAT ?_M_setup_codecvt@?$basic_filebuf@DV?$char_traits@D@_STL@@@_STL@@AAEXABVlocale@2@@Z
_TEXT	SEGMENT PARA USE32 PUBLIC 'CODE'
_TEXT	ENDS
;	COMDAT ??$equal@PADPADU?$_Eq_traits@V?$char_traits@D@_STL@@@_STL@@@_STL@@YA_NPAD00U?$_Eq_traits@V?$char_traits@D@_STL@@@0@@Z
_TEXT	SEGMENT PARA USE32 PUBLIC 'CODE'
_TEXT	ENDS
;	COMDAT ??$_Destroy@V?$basic_string@DV?$char_traits@D@_STL@@V?$allocator@D@2@@_STL@@@_STL@@YAXPAV?$basic_string@DV?$char_traits@D@_STL@@V?$allocator@D@2@@0@@Z
_TEXT	SEGMENT PARA USE32 PUBLIC 'CODE'
_TEXT	ENDS
;	COMDAT ??$_M_assign_dispatch@PAD@?$basic_string@DV?$char_traits@D@_STL@@V?$allocator@D@2@@_STL@@AAEAAV01@PAD0ABU__false_type@1@@Z
_TEXT	SEGMENT PARA USE32 PUBLIC 'CODE'
_TEXT	ENDS
;	COMDAT ?clear@?$_List_base@GV?$allocator@G@_STL@@@_STL@@QAEXXZ
_TEXT	SEGMENT PARA USE32 PUBLIC 'CODE'
_TEXT	ENDS
;	COMDAT ?clear@?$_List_base@PAU_WeekItemInfo@@V?$allocator@PAU_WeekItemInfo@@@_STL@@@_STL@@QAEXXZ
_TEXT	SEGMENT PARA USE32 PUBLIC 'CODE'
_TEXT	ENDS
;	COMDAT ??$insert@U?$_List_iterator@V?$basic_string@DV?$char_traits@D@_STL@@V?$allocator@D@2@@_STL@@U?$_Const_traits@V?$basic_string@DV?$char_traits@D@_STL@@V?$allocator@D@2@@_STL@@@2@@_STL@@@?$list@V?$basic_string@DV?$char_traits@D@_STL@@V?$allocator@D@2@@_STL@@V?$allocator@V?$basic_string@DV?$char_traits@D@_STL@@V?$allocator@D@2@@_STL@@@2@@_STL@@QAEXU?$_List_iterator@V?$basic_string@DV?$char_traits@D@_STL@@V?$allocator@D@2@@_STL@@U?$_Nonconst_traits@V?$basic_string@DV?$char_traits@D@_STL@@V?$allocator@D@2@@_STL@@@2@@1@U?$_List_iterator@V?$basic_string@DV?$char_traits@D@_STL@@V?$allocator@D@2@@_STL@@U?$_Const_traits@V?$basic_string@DV?$char_traits@D@_STL@@V?$allocator@D@2@@_STL@@@2@@1@1@Z
_TEXT	SEGMENT PARA USE32 PUBLIC 'CODE'
_TEXT	ENDS
;	COMDAT ??$distance@U?$_List_iterator@GU?$_Const_traits@G@_STL@@@_STL@@@_STL@@YAHABU?$_List_iterator@GU?$_Const_traits@G@_STL@@@0@0@Z
_TEXT	SEGMENT PARA USE32 PUBLIC 'CODE'
_TEXT	ENDS
;	COMDAT ??$distance@U?$_List_iterator@PAU_WeekItemInfo@@U?$_Const_traits@PAU_WeekItemInfo@@@_STL@@@_STL@@@_STL@@YAHABU?$_List_iterator@PAU_WeekItemInfo@@U?$_Const_traits@PAU_WeekItemInfo@@@_STL@@@0@0@Z
_TEXT	SEGMENT PARA USE32 PUBLIC 'CODE'
_TEXT	ENDS
;	COMDAT ??$?0U?$_List_node@V?$basic_string@DV?$char_traits@D@_STL@@V?$allocator@D@2@@_STL@@@_STL@@@?$allocator@V?$basic_string@DV?$char_traits@D@_STL@@V?$allocator@D@2@@_STL@@@_STL@@QAE@ABV?$allocator@U?$_List_node@V?$basic_string@DV?$char_traits@D@_STL@@V?$allocator@D@2@@_STL@@@_STL@@@1@@Z
_TEXT	SEGMENT PARA USE32 PUBLIC 'CODE'
_TEXT	ENDS
;	COMDAT ??$?0G@?$allocator@U?$_List_node@G@_STL@@@_STL@@QAE@ABV?$allocator@G@1@@Z
_TEXT	SEGMENT PARA USE32 PUBLIC 'CODE'
_TEXT	ENDS
;	COMDAT ??$_Destroy@PAU_WeekItemInfo@@@_STL@@YAXPAPAU_WeekItemInfo@@@Z
_TEXT	SEGMENT PARA USE32 PUBLIC 'CODE'
_TEXT	ENDS
;	COMDAT ??$?0PAU_WeekItemInfo@@@?$allocator@U?$_List_node@PAU_WeekItemInfo@@@_STL@@@_STL@@QAE@ABV?$allocator@PAU_WeekItemInfo@@@1@@Z
_TEXT	SEGMENT PARA USE32 PUBLIC 'CODE'
_TEXT	ENDS
;	COMDAT ??$_Construct@GG@_STL@@YAXPAGABG@Z
_TEXT	SEGMENT PARA USE32 PUBLIC 'CODE'
_TEXT	ENDS
;	COMDAT ??$_Construct@PAU_WeekItemInfo@@PAU1@@_STL@@YAXPAPAU_WeekItemInfo@@ABQAU1@@Z
_TEXT	SEGMENT PARA USE32 PUBLIC 'CODE'
_TEXT	ENDS
;	COMDAT ??_G?$basic_string@DV?$char_traits@D@_STL@@V?$allocator@D@2@@_STL@@QAEPAXI@Z
_TEXT	SEGMENT PARA USE32 PUBLIC 'CODE'
_TEXT	ENDS
;	COMDAT ?end@?$basic_string@DV?$char_traits@D@_STL@@V?$allocator@D@2@@_STL@@QAEPADXZ
_TEXT	SEGMENT PARA USE32 PUBLIC 'CODE'
_TEXT	ENDS
;	COMDAT ?erase@?$basic_string@DV?$char_traits@D@_STL@@V?$allocator@D@2@@_STL@@QAEPADPAD0@Z
_TEXT	SEGMENT PARA USE32 PUBLIC 'CODE'
_TEXT	ENDS
;	COMDAT ?_M_exit_putback_mode@?$basic_filebuf@DV?$char_traits@D@_STL@@@_STL@@AAEXXZ
_TEXT	SEGMENT PARA USE32 PUBLIC 'CODE'
_TEXT	ENDS
;	COMDAT ??0?$_List_iterator@V?$basic_string@DV?$char_traits@D@_STL@@V?$allocator@D@2@@_STL@@U?$_Nonconst_traits@V?$basic_string@DV?$char_traits@D@_STL@@V?$allocator@D@2@@_STL@@@2@@_STL@@QAE@ABU01@@Z
_TEXT	SEGMENT PARA USE32 PUBLIC 'CODE'
_TEXT	ENDS
;	COMDAT ??R?$_Eq_traits@V?$char_traits@D@_STL@@@_STL@@QBE_NABD0@Z
_TEXT	SEGMENT PARA USE32 PUBLIC 'CODE'
_TEXT	ENDS
;	COMDAT ?move@?$__char_traits_base@DH@_STL@@SAPADPADPBDI@Z
_TEXT	SEGMENT PARA USE32 PUBLIC 'CODE'
_TEXT	ENDS
;	COMDAT ??$_M_range_initialize@PBD@?$basic_string@DV?$char_traits@D@_STL@@V?$allocator@D@2@@_STL@@AAEXPBD0ABUforward_iterator_tag@1@@Z
_TEXT	SEGMENT PARA USE32 PUBLIC 'CODE'
_TEXT	ENDS
;	COMDAT ??$_M_range_initialize@PAD@?$basic_string@DV?$char_traits@D@_STL@@V?$allocator@D@2@@_STL@@AAEXPAD0ABUforward_iterator_tag@1@@Z
_TEXT	SEGMENT PARA USE32 PUBLIC 'CODE'
_TEXT	ENDS
;	COMDAT ?_M_unshift@?$basic_filebuf@DV?$char_traits@D@_STL@@@_STL@@AAE_NXZ
_TEXT	SEGMENT PARA USE32 PUBLIC 'CODE'
_TEXT	ENDS
;	COMDAT ?_M_allocate_buffers@?$basic_filebuf@DV?$char_traits@D@_STL@@@_STL@@AAE_NXZ
_TEXT	SEGMENT PARA USE32 PUBLIC 'CODE'
_TEXT	ENDS
;	COMDAT ??$max@H@_STL@@YAABHABH0@Z
_TEXT	SEGMENT PARA USE32 PUBLIC 'CODE'
_TEXT	ENDS
;	COMDAT ??$use_facet@V?$codecvt@DDH@_STL@@@_STL@@YAABV?$codecvt@DDH@0@ABVlocale@0@@Z
_TEXT	SEGMENT PARA USE32 PUBLIC 'CODE'
_TEXT	ENDS
;	COMDAT ??$append@PAD@?$basic_string@DV?$char_traits@D@_STL@@V?$allocator@D@2@@_STL@@QAEAAV01@PAD0@Z
_TEXT	SEGMENT PARA USE32 PUBLIC 'CODE'
_TEXT	ENDS
;	COMDAT ??$_Destroy@G@_STL@@YAXPAG@Z
_TEXT	SEGMENT PARA USE32 PUBLIC 'CODE'
_TEXT	ENDS
;	COMDAT ??$_M_insert_dispatch@U?$_List_iterator@V?$basic_string@DV?$char_traits@D@_STL@@V?$allocator@D@2@@_STL@@U?$_Const_traits@V?$basic_string@DV?$char_traits@D@_STL@@V?$allocator@D@2@@_STL@@@2@@_STL@@@?$list@V?$basic_string@DV?$char_traits@D@_STL@@V?$allocator@D@2@@_STL@@V?$allocator@V?$basic_string@DV?$char_traits@D@_STL@@V?$allocator@D@2@@_STL@@@2@@_STL@@QAEXU?$_List_iterator@V?$basic_string@DV?$char_traits@D@_STL@@V?$allocator@D@2@@_STL@@U?$_Nonconst_traits@V?$basic_string@DV?$char_traits@D@_STL@@V?$allocator@D@2@@_STL@@@2@@1@U?$_List_iterator@V?$basic_string@DV?$char_traits@D@_STL@@V?$allocator@D@2@@_STL@@U?$_Const_traits@V?$basic_string@DV?$char_traits@D@_STL@@V?$allocator@D@2@@_STL@@@2@@1@1ABU__false_type@1@@Z
_TEXT	SEGMENT PARA USE32 PUBLIC 'CODE'
_TEXT	ENDS
;	COMDAT ??$__distance@U?$_List_iterator@GU?$_Const_traits@G@_STL@@@_STL@@@_STL@@YAHABU?$_List_iterator@GU?$_Const_traits@G@_STL@@@0@0ABUinput_iterator_tag@0@@Z
_TEXT	SEGMENT PARA USE32 PUBLIC 'CODE'
_TEXT	ENDS
;	COMDAT ??$__distance@U?$_List_iterator@PAU_WeekItemInfo@@U?$_Const_traits@PAU_WeekItemInfo@@@_STL@@@_STL@@@_STL@@YAHABU?$_List_iterator@PAU_WeekItemInfo@@U?$_Const_traits@PAU_WeekItemInfo@@@_STL@@@0@0ABUinput_iterator_tag@0@@Z
_TEXT	SEGMENT PARA USE32 PUBLIC 'CODE'
_TEXT	ENDS
;	COMDAT ??E?$_List_iterator@V?$basic_string@DV?$char_traits@D@_STL@@V?$allocator@D@2@@_STL@@U?$_Const_traits@V?$basic_string@DV?$char_traits@D@_STL@@V?$allocator@D@2@@_STL@@@2@@_STL@@QAEAAU01@XZ
_TEXT	SEGMENT PARA USE32 PUBLIC 'CODE'
_TEXT	ENDS
;	COMDAT ??$distance@PBD@_STL@@YAHABQBD0@Z
_TEXT	SEGMENT PARA USE32 PUBLIC 'CODE'
_TEXT	ENDS
;	COMDAT ?_M_allocate_block@?$_String_base@DV?$allocator@D@_STL@@@_STL@@QAEXI@Z
_TEXT	SEGMENT PARA USE32 PUBLIC 'CODE'
_TEXT	ENDS
;	COMDAT ??$distance@PAD@_STL@@YAHABQAD0@Z
_TEXT	SEGMENT PARA USE32 PUBLIC 'CODE'
_TEXT	ENDS
;	COMDAT ??$uninitialized_copy@PADPAD@_STL@@YAPADPAD00@Z
_TEXT	SEGMENT PARA USE32 PUBLIC 'CODE'
_TEXT	ENDS
;	COMDAT ??$_M_append_dispatch@PAD@?$basic_string@DV?$char_traits@D@_STL@@V?$allocator@D@2@@_STL@@AAEAAV01@PAD0ABU__false_type@1@@Z
_TEXT	SEGMENT PARA USE32 PUBLIC 'CODE'
_TEXT	ENDS
;	COMDAT ?max_size@?$_String_base@DV?$allocator@D@_STL@@@_STL@@QBEIXZ
_TEXT	SEGMENT PARA USE32 PUBLIC 'CODE'
_TEXT	ENDS
;	COMDAT ??$__distance@PBD@_STL@@YAHABQBD0ABUrandom_access_iterator_tag@0@@Z
_TEXT	SEGMENT PARA USE32 PUBLIC 'CODE'
_TEXT	ENDS
;	COMDAT ?_M_throw_length_error@?$_String_base@DV?$allocator@D@_STL@@@_STL@@QBEXXZ
_TEXT	SEGMENT PARA USE32 PUBLIC 'CODE'
_TEXT	ENDS
;	COMDAT ??$__distance@PAD@_STL@@YAHABQAD0ABUrandom_access_iterator_tag@0@@Z
_TEXT	SEGMENT PARA USE32 PUBLIC 'CODE'
_TEXT	ENDS
;	COMDAT ??$__uninitialized_copy@PADPAD@_STL@@YAPADPAD00ABU__true_type@0@@Z
_TEXT	SEGMENT PARA USE32 PUBLIC 'CODE'
_TEXT	ENDS
;	COMDAT ??$append@PAD@?$basic_string@DV?$char_traits@D@_STL@@V?$allocator@D@2@@_STL@@AAEAAV01@PAD0ABUforward_iterator_tag@1@@Z
_TEXT	SEGMENT PARA USE32 PUBLIC 'CODE'
_TEXT	ENDS
;	COMDAT ?_M_construct_null@?$basic_string@DV?$char_traits@D@_STL@@V?$allocator@D@2@@_STL@@AAEXPAD@Z
_TEXT	SEGMENT PARA USE32 PUBLIC 'CODE'
_TEXT	ENDS
;	COMDAT ?max_size@?$basic_string@DV?$char_traits@D@_STL@@V?$allocator@D@2@@_STL@@QBEIXZ
_TEXT	SEGMENT PARA USE32 PUBLIC 'CODE'
_TEXT	ENDS
;	COMDAT ?capacity@?$basic_string@DV?$char_traits@D@_STL@@V?$allocator@D@2@@_STL@@QBEIXZ
_TEXT	SEGMENT PARA USE32 PUBLIC 'CODE'
_TEXT	ENDS
;	COMDAT ?_Ret@?$_BothPtrType@PADPAD@_STL@@SA?AU__true_type@2@XZ
_TEXT	SEGMENT PARA USE32 PUBLIC 'CODE'
_TEXT	ENDS
;	COMDAT ?_M_construct_null_aux@?$basic_string@DV?$char_traits@D@_STL@@V?$allocator@D@2@@_STL@@AAEXPADABU__true_type@2@@Z
_TEXT	SEGMENT PARA USE32 PUBLIC 'CODE'
_TEXT	ENDS
;	COMDAT ??$__copy_aux@PADPAD@_STL@@YAPADPAD00ABU__true_type@0@@Z
_TEXT	SEGMENT PARA USE32 PUBLIC 'CODE'
_TEXT	ENDS
;	COMDAT ??$max@I@_STL@@YAABIABI0@Z
_TEXT	SEGMENT PARA USE32 PUBLIC 'CODE'
_TEXT	ENDS
;	COMDAT ?_Ret@?$_OKToMemCpy@DD@_STL@@SA?AU__true_type@2@XZ
_TEXT	SEGMENT PARA USE32 PUBLIC 'CODE'
_TEXT	ENDS
;	COMDAT ??$_IsOKToMemCpy@DD@_STL@@YA?AU?$_OKToMemCpy@DD@0@PAD0@Z
_TEXT	SEGMENT PARA USE32 PUBLIC 'CODE'
_TEXT	ENDS
;	COMDAT ??$__copy_ptrs@PADPAD@_STL@@YAPADPAD00ABU__true_type@0@@Z
_TEXT	SEGMENT PARA USE32 PUBLIC 'CODE'
_TEXT	ENDS
;	COMDAT ??_R3Packet@@8
rdata$r	SEGMENT DWORD USE32 PUBLIC 'CONST'
rdata$r	ENDS
;	COMDAT ??_R3GCUpdateWeekItemList@@8
rdata$r	SEGMENT DWORD USE32 PUBLIC 'CONST'
rdata$r	ENDS
;	COMDAT ??_R3PacketFactory@@8
rdata$r	SEGMENT DWORD USE32 PUBLIC 'CONST'
rdata$r	ENDS
;	COMDAT ??_R2Packet@@8
rdata$r	SEGMENT DWORD USE32 PUBLIC 'CONST'
rdata$r	ENDS
;	COMDAT ??_R2GCUpdateWeekItemList@@8
rdata$r	SEGMENT DWORD USE32 PUBLIC 'CONST'
rdata$r	ENDS
;	COMDAT ??_R2PacketFactory@@8
rdata$r	SEGMENT DWORD USE32 PUBLIC 'CONST'
rdata$r	ENDS
;	COMDAT ??_R1A@?0A@A@Packet@@8
rdata$r	SEGMENT DWORD USE32 PUBLIC 'CONST'
rdata$r	ENDS
;	COMDAT ??_R1A@?0A@A@GCUpdateWeekItemList@@8
rdata$r	SEGMENT DWORD USE32 PUBLIC 'CONST'
rdata$r	ENDS
;	COMDAT ??_R1A@?0A@A@PacketFactory@@8
rdata$r	SEGMENT DWORD USE32 PUBLIC 'CONST'
rdata$r	ENDS
;	COMDAT ??_R0?AVPacket@@@8
_DATA	SEGMENT DWORD USE32 PUBLIC 'DATA'
_DATA	ENDS
;	COMDAT ??_R0?AVGCUpdateWeekItemList@@@8
_DATA	SEGMENT DWORD USE32 PUBLIC 'DATA'
_DATA	ENDS
;	COMDAT ??_R0?AVPacketFactory@@@8
_DATA	SEGMENT DWORD USE32 PUBLIC 'DATA'
_DATA	ENDS
;	COMDAT ??_R4Packet@@6B@
rdata$r	SEGMENT DWORD USE32 PUBLIC 'CONST'
rdata$r	ENDS
;	COMDAT ??_R4GCUpdateWeekItemList@@6B@
rdata$r	SEGMENT DWORD USE32 PUBLIC 'CONST'
rdata$r	ENDS
;	COMDAT ??_R4PacketFactory@@6B@
rdata$r	SEGMENT DWORD USE32 PUBLIC 'CONST'
rdata$r	ENDS
;	COMDAT ?__copy_trivial@_STL@@YAPAXPBX0PAX@Z
_TEXT	SEGMENT PARA USE32 PUBLIC 'CODE'
_TEXT	ENDS
;	COMDAT ?_M_deallocate_block@?$_String_base@DV?$allocator@D@_STL@@@_STL@@QAEXXZ
_TEXT	SEGMENT PARA USE32 PUBLIC 'CODE'
_TEXT	ENDS
;	COMDAT ?deallocate@?$allocator@D@_STL@@QAEXPADI@Z
_TEXT	SEGMENT PARA USE32 PUBLIC 'CODE'
_TEXT	ENDS
;	COMDAT ??D?$_List_iterator@V?$basic_string@DV?$char_traits@D@_STL@@V?$allocator@D@2@@_STL@@U?$_Const_traits@V?$basic_string@DV?$char_traits@D@_STL@@V?$allocator@D@2@@_STL@@@2@@_STL@@QBEABV?$basic_string@DV?$char_traits@D@_STL@@V?$allocator@D@2@@1@XZ
_TEXT	SEGMENT PARA USE32 PUBLIC 'CODE'
_TEXT	ENDS
;	COMDAT ?insert@?$list@V?$basic_string@DV?$char_traits@D@_STL@@V?$allocator@D@2@@_STL@@V?$allocator@V?$basic_string@DV?$char_traits@D@_STL@@V?$allocator@D@2@@_STL@@@2@@_STL@@QAE?AU?$_List_iterator@V?$basic_string@DV?$char_traits@D@_STL@@V?$allocator@D@2@@_STL@@U?$_Nonconst_traits@V?$basic_string@DV?$char_traits@D@_STL@@V?$allocator@D@2@@_STL@@@2@@2@U32@ABV?$basic_string@DV?$char_traits@D@_STL@@V?$allocator@D@2@@2@@Z
_TEXT	SEGMENT PARA USE32 PUBLIC 'CODE'
_TEXT	ENDS
;	COMDAT ?_M_create_node@?$list@V?$basic_string@DV?$char_traits@D@_STL@@V?$allocator@D@2@@_STL@@V?$allocator@V?$basic_string@DV?$char_traits@D@_STL@@V?$allocator@D@2@@_STL@@@2@@_STL@@IAEPAU?$_List_node@V?$basic_string@DV?$char_traits@D@_STL@@V?$allocator@D@2@@_STL@@@2@ABV?$basic_string@DV?$char_traits@D@_STL@@V?$allocator@D@2@@2@@Z
_TEXT	SEGMENT PARA USE32 PUBLIC 'CODE'
_TEXT	ENDS
;	COMDAT ?allocate@?$allocator@U?$_List_node@V?$basic_string@DV?$char_traits@D@_STL@@V?$allocator@D@2@@_STL@@@_STL@@@_STL@@QAEPAU?$_List_node@V?$basic_string@DV?$char_traits@D@_STL@@V?$allocator@D@2@@_STL@@@2@IPBX@Z
_TEXT	SEGMENT PARA USE32 PUBLIC 'CODE'
_TEXT	ENDS
;	COMDAT ??$_Construct@V?$basic_string@DV?$char_traits@D@_STL@@V?$allocator@D@2@@_STL@@V12@@_STL@@YAXPAV?$basic_string@DV?$char_traits@D@_STL@@V?$allocator@D@2@@0@ABV10@@Z
_TEXT	SEGMENT PARA USE32 PUBLIC 'CODE'
_TEXT	ENDS
;	COMDAT ??3@YAXPAX0@Z
_TEXT	SEGMENT PARA USE32 PUBLIC 'CODE'
_TEXT	ENDS
;	COMDAT ?deallocate@?$allocator@U?$_List_node@V?$basic_string@DV?$char_traits@D@_STL@@V?$allocator@D@2@@_STL@@@_STL@@@_STL@@QAEXPAU?$_List_node@V?$basic_string@DV?$char_traits@D@_STL@@V?$allocator@D@2@@_STL@@@2@I@Z
_TEXT	SEGMENT PARA USE32 PUBLIC 'CODE'
_TEXT	ENDS
;	COMDAT ??0?$_List_iterator@V?$basic_string@DV?$char_traits@D@_STL@@V?$allocator@D@2@@_STL@@U?$_Nonconst_traits@V?$basic_string@DV?$char_traits@D@_STL@@V?$allocator@D@2@@_STL@@@2@@_STL@@QAE@PAU?$_List_node@V?$basic_string@DV?$char_traits@D@_STL@@V?$allocator@D@2@@_STL@@@1@@Z
_TEXT	SEGMENT PARA USE32 PUBLIC 'CODE'
_TEXT	ENDS
;	COMDAT ?__page_size@_Filebuf_base@_STL@@SAIXZ
_TEXT	SEGMENT PARA USE32 PUBLIC 'CODE'
_TEXT	ENDS
;	COMDAT ?_M_write@?$basic_filebuf@DV?$char_traits@D@_STL@@@_STL@@QAE_NPADH@Z
_TEXT	SEGMENT PARA USE32 PUBLIC 'CODE'
_TEXT	ENDS
;	COMDAT ?unshift@?$codecvt@DDH@_STL@@QBE?AW4result@codecvt_base@2@AAHPAD1AAPAD@Z
_TEXT	SEGMENT PARA USE32 PUBLIC 'CODE'
_TEXT	ENDS
;	COMDAT ?uninitialized_copy@_STL@@YAPADPBD0PAD@Z
_TEXT	SEGMENT PARA USE32 PUBLIC 'CODE'
_TEXT	ENDS
;	COMDAT ?_Destroy@_STL@@YAXPAD0@Z
_TEXT	SEGMENT PARA USE32 PUBLIC 'CODE'
_TEXT	ENDS
;	COMDAT ??2@YAPAXIPAX@Z
_TEXT	SEGMENT PARA USE32 PUBLIC 'CODE'
_TEXT	ENDS
;	COMDAT ?assign@?$char_traits@D@_STL@@SAXAADABD@Z
_TEXT	SEGMENT PARA USE32 PUBLIC 'CODE'
_TEXT	ENDS
;	COMDAT ?always_noconv@?$codecvt@DDH@_STL@@QBE_NXZ
_TEXT	SEGMENT PARA USE32 PUBLIC 'CODE'
_TEXT	ENDS
;	COMDAT ?encoding@?$codecvt@DDH@_STL@@QBEHXZ
_TEXT	SEGMENT PARA USE32 PUBLIC 'CODE'
_TEXT	ENDS
;	COMDAT ?max_length@?$codecvt@DDH@_STL@@QBEHXZ
_TEXT	SEGMENT PARA USE32 PUBLIC 'CODE'
_TEXT	ENDS
;	COMDAT ?__o_mode@_Filebuf_base@_STL@@QBEHXZ
_TEXT	SEGMENT PARA USE32 PUBLIC 'CODE'
_TEXT	ENDS
;	COMDAT ?deallocate@?$__node_alloc@$00$0A@@_STL@@SAXPAXI@Z
_TEXT	SEGMENT PARA USE32 PUBLIC 'CODE'
_TEXT	ENDS
;	COMDAT ?__stl_delete@_STL@@YAXPAX@Z
_TEXT	SEGMENT PARA USE32 PUBLIC 'CODE'
_TEXT	ENDS
;	COMDAT ?_M_incr@_List_iterator_base@_STL@@QAEXXZ
_TEXT	SEGMENT PARA USE32 PUBLIC 'CODE'
_TEXT	ENDS
;	COMDAT ??0_List_iterator_base@_STL@@QAE@PAU_List_node_base@1@@Z
_TEXT	SEGMENT PARA USE32 PUBLIC 'CODE'
_TEXT	ENDS
;	COMDAT ?begin@?$list@V?$basic_string@DV?$char_traits@D@_STL@@V?$allocator@D@2@@_STL@@V?$allocator@V?$basic_string@DV?$char_traits@D@_STL@@V?$allocator@D@2@@_STL@@@2@@_STL@@QAE?AU?$_List_iterator@V?$basic_string@DV?$char_traits@D@_STL@@V?$allocator@D@2@@_STL@@U?$_Nonconst_traits@V?$basic_string@DV?$char_traits@D@_STL@@V?$allocator@D@2@@_STL@@@2@@2@XZ
_TEXT	SEGMENT PARA USE32 PUBLIC 'CODE'
_TEXT	ENDS
;	COMDAT ?begin@?$list@V?$basic_string@DV?$char_traits@D@_STL@@V?$allocator@D@2@@_STL@@V?$allocator@V?$basic_string@DV?$char_traits@D@_STL@@V?$allocator@D@2@@_STL@@@2@@_STL@@QBE?AU?$_List_iterator@V?$basic_string@DV?$char_traits@D@_STL@@V?$allocator@D@2@@_STL@@U?$_Const_traits@V?$basic_string@DV?$char_traits@D@_STL@@V?$allocator@D@2@@_STL@@@2@@2@XZ
_TEXT	SEGMENT PARA USE32 PUBLIC 'CODE'
_TEXT	ENDS
;	COMDAT ??0?$_List_iterator@V?$basic_string@DV?$char_traits@D@_STL@@V?$allocator@D@2@@_STL@@U?$_Const_traits@V?$basic_string@DV?$char_traits@D@_STL@@V?$allocator@D@2@@_STL@@@2@@_STL@@QAE@PAU?$_List_node@V?$basic_string@DV?$char_traits@D@_STL@@V?$allocator@D@2@@_STL@@@1@@Z
_TEXT	SEGMENT PARA USE32 PUBLIC 'CODE'
_TEXT	ENDS
;	COMDAT ?end@?$list@V?$basic_string@DV?$char_traits@D@_STL@@V?$allocator@D@2@@_STL@@V?$allocator@V?$basic_string@DV?$char_traits@D@_STL@@V?$allocator@D@2@@_STL@@@2@@_STL@@QBE?AU?$_List_iterator@V?$basic_string@DV?$char_traits@D@_STL@@V?$allocator@D@2@@_STL@@U?$_Const_traits@V?$basic_string@DV?$char_traits@D@_STL@@V?$allocator@D@2@@_STL@@@2@@2@XZ
_TEXT	SEGMENT PARA USE32 PUBLIC 'CODE'
_TEXT	ENDS
;	COMDAT ??1?$_List_base@V?$basic_string@DV?$char_traits@D@_STL@@V?$allocator@D@2@@_STL@@V?$allocator@V?$basic_string@DV?$char_traits@D@_STL@@V?$allocator@D@2@@_STL@@@2@@_STL@@QAE@XZ
_TEXT	SEGMENT PARA USE32 PUBLIC 'CODE'
_TEXT	ENDS
;	COMDAT ??1?$_STLP_alloc_proxy@PAU?$_List_node@V?$basic_string@DV?$char_traits@D@_STL@@V?$allocator@D@2@@_STL@@@_STL@@U12@V?$allocator@U?$_List_node@V?$basic_string@DV?$char_traits@D@_STL@@V?$allocator@D@2@@_STL@@@_STL@@@2@@_STL@@QAE@XZ
_TEXT	SEGMENT PARA USE32 PUBLIC 'CODE'
_TEXT	ENDS
;	COMDAT ??1?$allocator@U?$_List_node@V?$basic_string@DV?$char_traits@D@_STL@@V?$allocator@D@2@@_STL@@@_STL@@@_STL@@QAE@XZ
_TEXT	SEGMENT PARA USE32 PUBLIC 'CODE'
_TEXT	ENDS
;	COMDAT ?clear@?$_List_base@V?$basic_string@DV?$char_traits@D@_STL@@V?$allocator@D@2@@_STL@@V?$allocator@V?$basic_string@DV?$char_traits@D@_STL@@V?$allocator@D@2@@_STL@@@2@@_STL@@QAEXXZ
_TEXT	SEGMENT PARA USE32 PUBLIC 'CODE'
_TEXT	ENDS
;	COMDAT ??1?$allocator@V?$basic_string@DV?$char_traits@D@_STL@@V?$allocator@D@2@@_STL@@@_STL@@QAE@XZ
_TEXT	SEGMENT PARA USE32 PUBLIC 'CODE'
_TEXT	ENDS
;	COMDAT ??0?$_List_base@V?$basic_string@DV?$char_traits@D@_STL@@V?$allocator@D@2@@_STL@@V?$allocator@V?$basic_string@DV?$char_traits@D@_STL@@V?$allocator@D@2@@_STL@@@2@@_STL@@QAE@ABV?$allocator@V?$basic_string@DV?$char_traits@D@_STL@@V?$allocator@D@2@@_STL@@@1@@Z
_TEXT	SEGMENT PARA USE32 PUBLIC 'CODE'
_TEXT	ENDS
;	COMDAT ??0?$_STLP_alloc_proxy@PAU?$_List_node@V?$basic_string@DV?$char_traits@D@_STL@@V?$allocator@D@2@@_STL@@@_STL@@U12@V?$allocator@U?$_List_node@V?$basic_string@DV?$char_traits@D@_STL@@V?$allocator@D@2@@_STL@@@_STL@@@2@@_STL@@QAE@ABV?$allocator@U?$_List_node@V?$basic_string@DV?$char_traits@D@_STL@@V?$allocator@D@2@@_STL@@@_STL@@@1@PAU?$_List_node@V?$basic_string@DV?$char_traits@D@_STL@@V?$allocator@D@2@@_STL@@@1@@Z
_TEXT	SEGMENT PARA USE32 PUBLIC 'CODE'
_TEXT	ENDS
;	COMDAT ??0?$allocator@U?$_List_node@V?$basic_string@DV?$char_traits@D@_STL@@V?$allocator@D@2@@_STL@@@_STL@@@_STL@@QAE@ABV01@@Z
_TEXT	SEGMENT PARA USE32 PUBLIC 'CODE'
_TEXT	ENDS
;	COMDAT ??$?0V?$basic_string@DV?$char_traits@D@_STL@@V?$allocator@D@2@@_STL@@@?$allocator@U?$_List_node@V?$basic_string@DV?$char_traits@D@_STL@@V?$allocator@D@2@@_STL@@@_STL@@@_STL@@QAE@ABV?$allocator@V?$basic_string@DV?$char_traits@D@_STL@@V?$allocator@D@2@@_STL@@@1@@Z
_TEXT	SEGMENT PARA USE32 PUBLIC 'CODE'
_TEXT	ENDS
;	COMDAT ?setp@?$basic_streambuf@DV?$char_traits@D@_STL@@@_STL@@IAEXPAD0@Z
_TEXT	SEGMENT PARA USE32 PUBLIC 'CODE'
_TEXT	ENDS
;	COMDAT ?_FILE_O_set@_STL@@YAXPAU_iobuf@@PAD11@Z
_TEXT	SEGMENT PARA USE32 PUBLIC 'CODE'
_TEXT	ENDS
;	COMDAT ?_FILE_I_set@_STL@@YAXPAU_iobuf@@PAD11@Z
_TEXT	SEGMENT PARA USE32 PUBLIC 'CODE'
_TEXT	ENDS
;	COMDAT ?setg@?$basic_streambuf@DV?$char_traits@D@_STL@@@_STL@@IAEXPAD00@Z
_TEXT	SEGMENT PARA USE32 PUBLIC 'CODE'
_TEXT	ENDS
;	COMDAT ?__is_open@_Filebuf_base@_STL@@QBE_NXZ
_TEXT	SEGMENT PARA USE32 PUBLIC 'CODE'
_TEXT	ENDS
;	COMDAT ?allocate@?$__node_alloc@$00$0A@@_STL@@SAPAXI@Z
_TEXT	SEGMENT PARA USE32 PUBLIC 'CODE'
_TEXT	ENDS
;	COMDAT ?__stl_new@_STL@@YAPAXI@Z
_TEXT	SEGMENT PARA USE32 PUBLIC 'CODE'
_TEXT	ENDS
;	COMDAT ??1?$_STLP_alloc_proxy@PADDV?$allocator@D@_STL@@@_STL@@QAE@XZ
_TEXT	SEGMENT PARA USE32 PUBLIC 'CODE'
_TEXT	ENDS
;	COMDAT ?eof@?$__char_traits_base@DH@_STL@@SAHXZ
_TEXT	SEGMENT PARA USE32 PUBLIC 'CODE'
_TEXT	ENDS
;	COMDAT ??_7Exception@@6B@
CONST	SEGMENT DWORD USE32 PUBLIC 'CONST'
CONST	ENDS
;	COMDAT ??_R4Exception@@6B@
rdata$r	SEGMENT DWORD USE32 PUBLIC 'CONST'
rdata$r	ENDS
;	COMDAT ??_R3Exception@@8
rdata$r	SEGMENT DWORD USE32 PUBLIC 'CONST'
rdata$r	ENDS
;	COMDAT ??_R2Exception@@8
rdata$r	SEGMENT DWORD USE32 PUBLIC 'CONST'
rdata$r	ENDS
;	COMDAT ??_R1A@?0A@A@Exception@@8
rdata$r	SEGMENT DWORD USE32 PUBLIC 'CONST'
rdata$r	ENDS
;	COMDAT ??_R1A@?0A@A@Throwable@@8
rdata$r	SEGMENT DWORD USE32 PUBLIC 'CONST'
rdata$r	ENDS
;	COMDAT ??_GException@@UAEPAXI@Z
_TEXT	SEGMENT PARA USE32 PUBLIC 'CODE'
_TEXT	ENDS
;	COMDAT ?getName@Exception@@UBE?AV?$basic_string@DV?$char_traits@D@_STL@@V?$allocator@D@2@@_STL@@XZ
_TEXT	SEGMENT PARA USE32 PUBLIC 'CODE'
_TEXT	ENDS
;	COMDAT ??_C@_09FBNMMHMJ@Exception?$AA@
CONST	SEGMENT DWORD USE32 PUBLIC 'CONST'
CONST	ENDS
;	COMDAT ?toString@Throwable@@UBE?AV?$basic_string@DV?$char_traits@D@_STL@@V?$allocator@D@2@@_STL@@XZ
_TEXT	SEGMENT PARA USE32 PUBLIC 'CODE'
_TEXT	ENDS
;	COMDAT ??_C@_03MCPBMLDJ@?5?3?5?$AA@
CONST	SEGMENT DWORD USE32 PUBLIC 'CONST'
CONST	ENDS
;	COMDAT ?getStackTrace@Throwable@@QBE?AV?$basic_string@DV?$char_traits@D@_STL@@V?$allocator@D@2@@_STL@@XZ
_TEXT	SEGMENT PARA USE32 PUBLIC 'CODE'
_TEXT	ENDS
;	COMDAT ??E?$_List_iterator@V?$basic_string@DV?$char_traits@D@_STL@@V?$allocator@D@2@@_STL@@U?$_Const_traits@V?$basic_string@DV?$char_traits@D@_STL@@V?$allocator@D@2@@_STL@@@2@@_STL@@QAE?AU01@H@Z
_TEXT	SEGMENT PARA USE32 PUBLIC 'CODE'
_TEXT	ENDS
;	COMDAT ??_C@_01CLKCMJKC@?5?$AA@
CONST	SEGMENT DWORD USE32 PUBLIC 'CONST'
CONST	ENDS
;	COMDAT ??_7IOException@@6B@
CONST	SEGMENT DWORD USE32 PUBLIC 'CONST'
CONST	ENDS
;	COMDAT ??_R4IOException@@6B@
rdata$r	SEGMENT DWORD USE32 PUBLIC 'CONST'
rdata$r	ENDS
;	COMDAT ??_R3IOException@@8
rdata$r	SEGMENT DWORD USE32 PUBLIC 'CONST'
rdata$r	ENDS
;	COMDAT ??_R2IOException@@8
rdata$r	SEGMENT DWORD USE32 PUBLIC 'CONST'
rdata$r	ENDS
;	COMDAT ??_R1A@?0A@A@IOException@@8
rdata$r	SEGMENT DWORD USE32 PUBLIC 'CONST'
rdata$r	ENDS
;	COMDAT ??_GIOException@@UAEPAXI@Z
_TEXT	SEGMENT PARA USE32 PUBLIC 'CODE'
_TEXT	ENDS
;	COMDAT ?getName@IOException@@UBE?AV?$basic_string@DV?$char_traits@D@_STL@@V?$allocator@D@2@@_STL@@XZ
_TEXT	SEGMENT PARA USE32 PUBLIC 'CODE'
_TEXT	ENDS
;	COMDAT ??_C@_0M@CBPJAJJI@IOException?$AA@
CONST	SEGMENT DWORD USE32 PUBLIC 'CONST'
CONST	ENDS
;	COMDAT ??1Exception@@UAE@XZ
_TEXT	SEGMENT PARA USE32 PUBLIC 'CODE'
_TEXT	ENDS
;	COMDAT ??_7ProtocolException@@6B@
CONST	SEGMENT DWORD USE32 PUBLIC 'CONST'
CONST	ENDS
;	COMDAT ??_R4ProtocolException@@6B@
rdata$r	SEGMENT DWORD USE32 PUBLIC 'CONST'
rdata$r	ENDS
;	COMDAT ??_R3ProtocolException@@8
rdata$r	SEGMENT DWORD USE32 PUBLIC 'CONST'
rdata$r	ENDS
;	COMDAT ??_R2ProtocolException@@8
rdata$r	SEGMENT DWORD USE32 PUBLIC 'CONST'
rdata$r	ENDS
;	COMDAT ??_R1A@?0A@A@ProtocolException@@8
rdata$r	SEGMENT DWORD USE32 PUBLIC 'CONST'
rdata$r	ENDS
;	COMDAT ??_GProtocolException@@UAEPAXI@Z
_TEXT	SEGMENT PARA USE32 PUBLIC 'CODE'
_TEXT	ENDS
;	COMDAT ?getName@ProtocolException@@UBE?AV?$basic_string@DV?$char_traits@D@_STL@@V?$allocator@D@2@@_STL@@XZ
_TEXT	SEGMENT PARA USE32 PUBLIC 'CODE'
_TEXT	ENDS
;	COMDAT ??_C@_0BC@KDBIDNIF@ProtocolException?$AA@
CONST	SEGMENT DWORD USE32 PUBLIC 'CONST'
CONST	ENDS
;	COMDAT ??1IOException@@UAE@XZ
_TEXT	SEGMENT PARA USE32 PUBLIC 'CODE'
_TEXT	ENDS
;	COMDAT ??1?$allocator@G@_STL@@QAE@XZ
_TEXT	SEGMENT PARA USE32 PUBLIC 'CODE'
_TEXT	ENDS
;	COMDAT ??_7DisconnectException@@6B@
CONST	SEGMENT DWORD USE32 PUBLIC 'CONST'
CONST	ENDS
;	COMDAT ??_R4DisconnectException@@6B@
rdata$r	SEGMENT DWORD USE32 PUBLIC 'CONST'
rdata$r	ENDS
;	COMDAT ??_R3DisconnectException@@8
rdata$r	SEGMENT DWORD USE32 PUBLIC 'CONST'
rdata$r	ENDS
;	COMDAT ??_R2DisconnectException@@8
rdata$r	SEGMENT DWORD USE32 PUBLIC 'CONST'
rdata$r	ENDS
;	COMDAT ??_R1A@?0A@A@DisconnectException@@8
rdata$r	SEGMENT DWORD USE32 PUBLIC 'CONST'
rdata$r	ENDS
;	COMDAT ??_GDisconnectException@@UAEPAXI@Z
_TEXT	SEGMENT PARA USE32 PUBLIC 'CODE'
_TEXT	ENDS
;	COMDAT ?getName@DisconnectException@@UBE?AV?$basic_string@DV?$char_traits@D@_STL@@V?$allocator@D@2@@_STL@@XZ
_TEXT	SEGMENT PARA USE32 PUBLIC 'CODE'
_TEXT	ENDS
;	COMDAT ??_C@_0BE@CNIDKGHK@DisconnectException?$AA@
CONST	SEGMENT DWORD USE32 PUBLIC 'CONST'
CONST	ENDS
;	COMDAT ??1ProtocolException@@UAE@XZ
_TEXT	SEGMENT PARA USE32 PUBLIC 'CODE'
_TEXT	ENDS
;	COMDAT __CTA5?AVDisconnectException@@
xdata$x	SEGMENT DWORD USE32 PUBLIC 'CONST'
xdata$x	ENDS
;	COMDAT __CT??_R0?AVException@@@8??0Exception@@QAE@ABV0@@Z20
xdata$x	SEGMENT DWORD USE32 PUBLIC 'CONST'
xdata$x	ENDS
;	COMDAT __CT??_R0?AVIOException@@@8??0IOException@@QAE@ABV0@@Z20
xdata$x	SEGMENT DWORD USE32 PUBLIC 'CONST'
xdata$x	ENDS
;	COMDAT __CT??_R0?AVProtocolException@@@8??0ProtocolException@@QAE@ABV0@@Z20
xdata$x	SEGMENT DWORD USE32 PUBLIC 'CONST'
xdata$x	ENDS
;	COMDAT __CT??_R0?AVDisconnectException@@@8??0DisconnectException@@QAE@ABV0@@Z20
xdata$x	SEGMENT DWORD USE32 PUBLIC 'CONST'
xdata$x	ENDS
;	COMDAT ??_R0?AVException@@@8
_DATA	SEGMENT DWORD USE32 PUBLIC 'DATA'
_DATA	ENDS
;	COMDAT ??_R0?AVIOException@@@8
_DATA	SEGMENT DWORD USE32 PUBLIC 'DATA'
_DATA	ENDS
;	COMDAT ??_R0?AVProtocolException@@@8
_DATA	SEGMENT DWORD USE32 PUBLIC 'DATA'
_DATA	ENDS
;	COMDAT ??_R0?AVDisconnectException@@@8
_DATA	SEGMENT DWORD USE32 PUBLIC 'DATA'
_DATA	ENDS
;	COMDAT __TI5?AVDisconnectException@@
xdata$x	SEGMENT DWORD USE32 PUBLIC 'CONST'
xdata$x	ENDS
;	COMDAT ??1DisconnectException@@UAE@XZ
_TEXT	SEGMENT PARA USE32 PUBLIC 'CODE'
_TEXT	ENDS
;	COMDAT ??0DisconnectException@@QAE@V?$basic_string@DV?$char_traits@D@_STL@@V?$allocator@D@2@@_STL@@@Z
_TEXT	SEGMENT PARA USE32 PUBLIC 'CODE'
_TEXT	ENDS
;	COMDAT ??0ProtocolException@@QAE@V?$basic_string@DV?$char_traits@D@_STL@@V?$allocator@D@2@@_STL@@@Z
_TEXT	SEGMENT PARA USE32 PUBLIC 'CODE'
_TEXT	ENDS
;	COMDAT ??0IOException@@QAE@V?$basic_string@DV?$char_traits@D@_STL@@V?$allocator@D@2@@_STL@@@Z
_TEXT	SEGMENT PARA USE32 PUBLIC 'CODE'
_TEXT	ENDS
;	COMDAT ??0Exception@@QAE@V?$basic_string@DV?$char_traits@D@_STL@@V?$allocator@D@2@@_STL@@@Z
_TEXT	SEGMENT PARA USE32 PUBLIC 'CODE'
_TEXT	ENDS
;	COMDAT ??0Throwable@@QAE@V?$basic_string@DV?$char_traits@D@_STL@@V?$allocator@D@2@@_STL@@@Z
_TEXT	SEGMENT PARA USE32 PUBLIC 'CODE'
_TEXT	ENDS
;	COMDAT ??0?$list@V?$basic_string@DV?$char_traits@D@_STL@@V?$allocator@D@2@@_STL@@V?$allocator@V?$basic_string@DV?$char_traits@D@_STL@@V?$allocator@D@2@@_STL@@@2@@_STL@@QAE@ABV?$allocator@V?$basic_string@DV?$char_traits@D@_STL@@V?$allocator@D@2@@_STL@@@1@@Z
_TEXT	SEGMENT PARA USE32 PUBLIC 'CODE'
_TEXT	ENDS
;	COMDAT ??0?$allocator@V?$basic_string@DV?$char_traits@D@_STL@@V?$allocator@D@2@@_STL@@@_STL@@QAE@XZ
_TEXT	SEGMENT PARA USE32 PUBLIC 'CODE'
_TEXT	ENDS
;	COMDAT ??_7GCUpdateWeekItemList@@6B@
CONST	SEGMENT DWORD USE32 PUBLIC 'CONST'
CONST	ENDS
;	COMDAT ??1?$allocator@D@_STL@@QAE@XZ
_TEXT	SEGMENT PARA USE32 PUBLIC 'CODE'
_TEXT	ENDS
;	COMDAT ??0?$allocator@D@_STL@@QAE@XZ
_TEXT	SEGMENT PARA USE32 PUBLIC 'CODE'
_TEXT	ENDS
;	COMDAT ??0?$basic_string@DV?$char_traits@D@_STL@@V?$allocator@D@2@@_STL@@QAE@PBDABV?$allocator@D@1@@Z
_TEXT	SEGMENT PARA USE32 PUBLIC 'CODE'
_TEXT	ENDS
;	COMDAT ??1?$_String_base@DV?$allocator@D@_STL@@@_STL@@QAE@XZ
_TEXT	SEGMENT PARA USE32 PUBLIC 'CODE'
_TEXT	ENDS
;	COMDAT ?length@?$char_traits@D@_STL@@SAIPBD@Z
_TEXT	SEGMENT PARA USE32 PUBLIC 'CODE'
_TEXT	ENDS
;	COMDAT ??9_List_iterator_base@_STL@@QBE_NABU01@@Z
_TEXT	SEGMENT PARA USE32 PUBLIC 'CODE'
_TEXT	ENDS
;	COMDAT ??_7PacketFactory@@6B@
CONST	SEGMENT DWORD USE32 PUBLIC 'CONST'
CONST	ENDS
;	COMDAT ??1?$list@V?$basic_string@DV?$char_traits@D@_STL@@V?$allocator@D@2@@_STL@@V?$allocator@V?$basic_string@DV?$char_traits@D@_STL@@V?$allocator@D@2@@_STL@@@2@@_STL@@QAE@XZ
_TEXT	SEGMENT PARA USE32 PUBLIC 'CODE'
_TEXT	ENDS
;	COMDAT ??_7Throwable@@6B@
CONST	SEGMENT DWORD USE32 PUBLIC 'CONST'
CONST	ENDS
;	COMDAT ??_R4Throwable@@6B@
rdata$r	SEGMENT DWORD USE32 PUBLIC 'CONST'
rdata$r	ENDS
;	COMDAT ??_R3Throwable@@8
rdata$r	SEGMENT DWORD USE32 PUBLIC 'CONST'
rdata$r	ENDS
;	COMDAT ??_R2Throwable@@8
rdata$r	SEGMENT DWORD USE32 PUBLIC 'CONST'
rdata$r	ENDS
;	COMDAT ??_GThrowable@@UAEPAXI@Z
_TEXT	SEGMENT PARA USE32 PUBLIC 'CODE'
_TEXT	ENDS
;	COMDAT ?getName@Throwable@@UBE?AV?$basic_string@DV?$char_traits@D@_STL@@V?$allocator@D@2@@_STL@@XZ
_TEXT	SEGMENT PARA USE32 PUBLIC 'CODE'
_TEXT	ENDS
;	COMDAT ??_C@_09KCKHMJEM@Throwable?$AA@
CONST	SEGMENT DWORD USE32 PUBLIC 'CONST'
CONST	ENDS
;	COMDAT ??_7Error@@6B@
CONST	SEGMENT DWORD USE32 PUBLIC 'CONST'
CONST	ENDS
;	COMDAT ??_R4Error@@6B@
rdata$r	SEGMENT DWORD USE32 PUBLIC 'CONST'
rdata$r	ENDS
;	COMDAT ??_R3Error@@8
rdata$r	SEGMENT DWORD USE32 PUBLIC 'CONST'
rdata$r	ENDS
;	COMDAT ??_R2Error@@8
rdata$r	SEGMENT DWORD USE32 PUBLIC 'CONST'
rdata$r	ENDS
;	COMDAT ??_R1A@?0A@A@Error@@8
rdata$r	SEGMENT DWORD USE32 PUBLIC 'CONST'
rdata$r	ENDS
;	COMDAT ??_GError@@UAEPAXI@Z
_TEXT	SEGMENT PARA USE32 PUBLIC 'CODE'
_TEXT	ENDS
;	COMDAT ?getName@Error@@UBE?AV?$basic_string@DV?$char_traits@D@_STL@@V?$allocator@D@2@@_STL@@XZ
_TEXT	SEGMENT PARA USE32 PUBLIC 'CODE'
_TEXT	ENDS
;	COMDAT ??_C@_05NAOIJFC@Error?$AA@
CONST	SEGMENT DWORD USE32 PUBLIC 'CONST'
CONST	ENDS
;	COMDAT ??1Throwable@@UAE@XZ
_TEXT	SEGMENT PARA USE32 PUBLIC 'CODE'
_TEXT	ENDS
;	COMDAT ??_7UnsupportedError@@6B@
CONST	SEGMENT DWORD USE32 PUBLIC 'CONST'
CONST	ENDS
;	COMDAT ??_R4UnsupportedError@@6B@
rdata$r	SEGMENT DWORD USE32 PUBLIC 'CONST'
rdata$r	ENDS
;	COMDAT ??_R3UnsupportedError@@8
rdata$r	SEGMENT DWORD USE32 PUBLIC 'CONST'
rdata$r	ENDS
;	COMDAT ??_R2UnsupportedError@@8
rdata$r	SEGMENT DWORD USE32 PUBLIC 'CONST'
rdata$r	ENDS
;	COMDAT ??_R1A@?0A@A@UnsupportedError@@8
rdata$r	SEGMENT DWORD USE32 PUBLIC 'CONST'
rdata$r	ENDS
;	COMDAT ??_GUnsupportedError@@UAEPAXI@Z
_TEXT	SEGMENT PARA USE32 PUBLIC 'CODE'
_TEXT	ENDS
;	COMDAT ?getName@UnsupportedError@@UBE?AV?$basic_string@DV?$char_traits@D@_STL@@V?$allocator@D@2@@_STL@@XZ
_TEXT	SEGMENT PARA USE32 PUBLIC 'CODE'
_TEXT	ENDS
;	COMDAT ??_C@_0BB@EOCHEBED@UnsupportedError?$AA@
CONST	SEGMENT DWORD USE32 PUBLIC 'CONST'
CONST	ENDS
;	COMDAT ??1Error@@UAE@XZ
_TEXT	SEGMENT PARA USE32 PUBLIC 'CODE'
_TEXT	ENDS
;	COMDAT __CTA3?AVUnsupportedError@@
xdata$x	SEGMENT DWORD USE32 PUBLIC 'CONST'
xdata$x	ENDS
;	COMDAT ??1UnsupportedError@@UAE@XZ
_TEXT	SEGMENT PARA USE32 PUBLIC 'CODE'
_TEXT	ENDS
;	COMDAT __CT??_R0?AVThrowable@@@8??0Throwable@@QAE@ABV0@@Z20
xdata$x	SEGMENT DWORD USE32 PUBLIC 'CONST'
xdata$x	ENDS
;	COMDAT __CT??_R0?AVError@@@8??0Error@@QAE@ABV0@@Z20
xdata$x	SEGMENT DWORD USE32 PUBLIC 'CONST'
xdata$x	ENDS
;	COMDAT __CT??_R0?AVUnsupportedError@@@8??0UnsupportedError@@QAE@ABV0@@Z20
xdata$x	SEGMENT DWORD USE32 PUBLIC 'CONST'
xdata$x	ENDS
;	COMDAT ??_R0?AVThrowable@@@8
_DATA	SEGMENT DWORD USE32 PUBLIC 'DATA'
_DATA	ENDS
;	COMDAT ??_R0?AVError@@@8
_DATA	SEGMENT DWORD USE32 PUBLIC 'DATA'
_DATA	ENDS
;	COMDAT ??_R0?AVUnsupportedError@@@8
_DATA	SEGMENT DWORD USE32 PUBLIC 'DATA'
_DATA	ENDS
;	COMDAT __TI3?AVUnsupportedError@@
xdata$x	SEGMENT DWORD USE32 PUBLIC 'CONST'
xdata$x	ENDS
;	COMDAT ??0UnsupportedError@@QAE@XZ
_TEXT	SEGMENT PARA USE32 PUBLIC 'CODE'
_TEXT	ENDS
;	COMDAT ??0Error@@QAE@XZ
_TEXT	SEGMENT PARA USE32 PUBLIC 'CODE'
_TEXT	ENDS
;	COMDAT ??0Throwable@@QAE@XZ
_TEXT	SEGMENT PARA USE32 PUBLIC 'CODE'
_TEXT	ENDS
;	COMDAT ??0?$basic_string@DV?$char_traits@D@_STL@@V?$allocator@D@2@@_STL@@QAE@XZ
_TEXT	SEGMENT PARA USE32 PUBLIC 'CODE'
_TEXT	ENDS
;	COMDAT ??_7Packet@@6B@
CONST	SEGMENT DWORD USE32 PUBLIC 'CONST'
CONST	ENDS
;	COMDAT ??1?$basic_string@DV?$char_traits@D@_STL@@V?$allocator@D@2@@_STL@@QAE@XZ
_TEXT	SEGMENT PARA USE32 PUBLIC 'CODE'
_TEXT	ENDS
;	COMDAT ??0?$basic_string@DV?$char_traits@D@_STL@@V?$allocator@D@2@@_STL@@QAE@ABV01@@Z
_TEXT	SEGMENT PARA USE32 PUBLIC 'CODE'
_TEXT	ENDS
sxdata	SEGMENT DWORD USE32 'SXDATA'
sxdata	ENDS
FLAT	GROUP _DATA, CONST, _BSS
	ASSUME	CS: FLAT, DS: FLAT, SS: FLAT
endif

INCLUDELIB LIBCMT
INCLUDELIB OLDNAMES

PUBLIC	??2@YAPAXIPAX@Z					; operator new
; Function compile flags: /Ogsy
; File c:\program files\microsoft visual studio .net 2003\vc7\include\new
;	COMDAT ??2@YAPAXIPAX@Z
_TEXT	SEGMENT
___formal$ = 8						; size = 4
__Where$ = 12						; size = 4
??2@YAPAXIPAX@Z PROC NEAR				; operator new, COMDAT

; 64   : 	return (_Where);

  00000	8b 44 24 08	 mov	 eax, DWORD PTR __Where$[esp-4]

; 65   : 	}

  00004	c3		 ret	 0
??2@YAPAXIPAX@Z ENDP					; operator new
_TEXT	ENDS
PUBLIC	??3@YAXPAX0@Z					; operator delete
; Function compile flags: /Ogsy
;	COMDAT ??3@YAXPAX0@Z
_TEXT	SEGMENT
___formal$ = 8						; size = 4
___formal$ = 12						; size = 4
??3@YAXPAX0@Z PROC NEAR					; operator delete, COMDAT

; 69   : 	}

  00000	c3		 ret	 0
??3@YAXPAX0@Z ENDP					; operator delete
_TEXT	ENDS
PUBLIC	?__stl_new@_STL@@YAPAXI@Z			; _STL::__stl_new
EXTRN	??2@YAPAXI@Z:NEAR				; operator new
; Function compile flags: /Ogsy
; File c:\stlport-4.6.1\stlport\stl\_new.h
;	COMDAT ?__stl_new@_STL@@YAPAXI@Z
_TEXT	SEGMENT
___n$ = 8						; size = 4
?__stl_new@_STL@@YAPAXI@Z PROC NEAR			; _STL::__stl_new, COMDAT

; 86   : inline void*  _STLP_CALL __stl_new(size_t __n)   { _STLP_CHECK_NULL_ALLOC(::operator _STLP_NEW(__n)); }

  00000	e9 00 00 00 00	 jmp	 ??2@YAPAXI@Z		; operator new
?__stl_new@_STL@@YAPAXI@Z ENDP				; _STL::__stl_new
_TEXT	ENDS
PUBLIC	?__stl_delete@_STL@@YAXPAX@Z			; _STL::__stl_delete
EXTRN	??3@YAXPAX@Z:NEAR				; operator delete
; Function compile flags: /Ogsy
;	COMDAT ?__stl_delete@_STL@@YAXPAX@Z
_TEXT	SEGMENT
___p$ = 8						; size = 4
?__stl_delete@_STL@@YAXPAX@Z PROC NEAR			; _STL::__stl_delete, COMDAT

; 87   : inline void   _STLP_CALL __stl_delete(void* __p) { ::operator delete(__p); }

  00000	e9 00 00 00 00	 jmp	 ??3@YAXPAX@Z		; operator delete
?__stl_delete@_STL@@YAXPAX@Z ENDP			; _STL::__stl_delete
_TEXT	ENDS
PUBLIC	?read@SocketInputStream@@QAEIAAE@Z		; SocketInputStream::read
EXTRN	?read@SocketInputStream@@QAEIPADI@Z:NEAR	; SocketInputStream::read
; Function compile flags: /Ogsy
; File c:\darkeden\designed_common\project\client\packet\socketinputstream.h
;	COMDAT ?read@SocketInputStream@@QAEIAAE@Z
_TEXT	SEGMENT
_buf$ = 8						; size = 4
?read@SocketInputStream@@QAEIAAE@Z PROC NEAR		; SocketInputStream::read, COMDAT
; _this$ = ecx

; 69   : 	uint read ( uchar  & buf ) throw ( ProtocolException , Error ) { return read( (char*)&buf, szuchar  ); }

  00000	6a 01		 push	 1
  00002	ff 74 24 08	 push	 DWORD PTR _buf$[esp]
  00006	e8 00 00 00 00	 call	 ?read@SocketInputStream@@QAEIPADI@Z ; SocketInputStream::read
  0000b	c2 04 00	 ret	 4
?read@SocketInputStream@@QAEIAAE@Z ENDP			; SocketInputStream::read
_TEXT	ENDS
PUBLIC	?read@SocketInputStream@@QAEIAAG@Z		; SocketInputStream::read
; Function compile flags: /Ogsy
;	COMDAT ?read@SocketInputStream@@QAEIAAG@Z
_TEXT	SEGMENT
_buf$ = 8						; size = 4
?read@SocketInputStream@@QAEIAAG@Z PROC NEAR		; SocketInputStream::read, COMDAT
; _this$ = ecx

; 71   : 	uint read ( ushort & buf ) throw ( ProtocolException , Error ) { return read( (char*)&buf, szushort ); }

  00000	6a 02		 push	 2
  00002	ff 74 24 08	 push	 DWORD PTR _buf$[esp]
  00006	e8 00 00 00 00	 call	 ?read@SocketInputStream@@QAEIPADI@Z ; SocketInputStream::read
  0000b	c2 04 00	 ret	 4
?read@SocketInputStream@@QAEIAAG@Z ENDP			; SocketInputStream::read
_TEXT	ENDS
PUBLIC	?read@SocketInputStream@@QAEIAAH@Z		; SocketInputStream::read
; Function compile flags: /Ogsy
;	COMDAT ?read@SocketInputStream@@QAEIAAH@Z
_TEXT	SEGMENT
_buf$ = 8						; size = 4
?read@SocketInputStream@@QAEIAAH@Z PROC NEAR		; SocketInputStream::read, COMDAT
; _this$ = ecx

; 72   : 	uint read ( int    & buf ) throw ( ProtocolException , Error ) { return read( (char*)&buf, szint    ); }

  00000	6a 04		 push	 4
  00002	ff 74 24 08	 push	 DWORD PTR _buf$[esp]
  00006	e8 00 00 00 00	 call	 ?read@SocketInputStream@@QAEIPADI@Z ; SocketInputStream::read
  0000b	c2 04 00	 ret	 4
?read@SocketInputStream@@QAEIAAH@Z ENDP			; SocketInputStream::read
_TEXT	ENDS
PUBLIC	?read@SocketInputStream@@QAEIAAK@Z		; SocketInputStream::read
; Function compile flags: /Ogsy
;	COMDAT ?read@SocketInputStream@@QAEIAAK@Z
_TEXT	SEGMENT
_buf$ = 8						; size = 4
?read@SocketInputStream@@QAEIAAK@Z PROC NEAR		; SocketInputStream::read, COMDAT
; _this$ = ecx

; 75   : 	uint read ( ulong  & buf ) throw ( ProtocolException , Error ) { return read( (char*)&buf, szulong  ); }

  00000	6a 04		 push	 4
  00002	ff 74 24 08	 push	 DWORD PTR _buf$[esp]
  00006	e8 00 00 00 00	 call	 ?read@SocketInputStream@@QAEIPADI@Z ; SocketInputStream::read
  0000b	c2 04 00	 ret	 4
?read@SocketInputStream@@QAEIAAK@Z ENDP			; SocketInputStream::read
_TEXT	ENDS
PUBLIC	?_Destroy@_STL@@YAXPAD0@Z			; _STL::_Destroy
; Function compile flags: /Ogsy
; File c:\stlport-4.6.1\stlport\stl\_construct.h
;	COMDAT ?_Destroy@_STL@@YAXPAD0@Z
_TEXT	SEGMENT
___formal$ = 8						; size = 4
___formal$ = 12						; size = 4
?_Destroy@_STL@@YAXPAD0@Z PROC NEAR			; _STL::_Destroy, COMDAT

; 142  : inline void _Destroy(char*, char*) {}

  00000	c3		 ret	 0
?_Destroy@_STL@@YAXPAD0@Z ENDP				; _STL::_Destroy
_TEXT	ENDS
PUBLIC	?__copy_trivial@_STL@@YAPAXPBX0PAX@Z		; _STL::__copy_trivial
EXTRN	_memmove:NEAR
; Function compile flags: /Ogsy
; File c:\stlport-4.6.1\stlport\stl\_algobase.h
;	COMDAT ?__copy_trivial@_STL@@YAPAXPBX0PAX@Z
_TEXT	SEGMENT
___first$ = 8						; size = 4
___last$ = 12						; size = 4
___result$ = 16						; size = 4
?__copy_trivial@_STL@@YAPAXPBX0PAX@Z PROC NEAR		; _STL::__copy_trivial, COMDAT

; 147  : __copy_trivial(const void* __first, const void* __last, void* __result) {

  00000	55		 push	 ebp
  00001	8b ec		 mov	 ebp, esp
  00003	56		 push	 esi

; 148  :   return (__last == __first) ? __result : 
; 149  :     ((char*)memmove(__result, __first, ((const char*)__last - (const char*)__first))) + 
; 150  :     ((const char*)__last - (const char*)__first);

  00004	8b 75 0c	 mov	 esi, DWORD PTR ___last$[ebp]
  00007	3b 75 08	 cmp	 esi, DWORD PTR ___first$[ebp]
  0000a	75 05		 jne	 SHORT $L102839
  0000c	8b 45 10	 mov	 eax, DWORD PTR ___result$[ebp]
  0000f	eb 14		 jmp	 SHORT $L102840
$L102839:
  00011	2b 75 08	 sub	 esi, DWORD PTR ___first$[ebp]
  00014	56		 push	 esi
  00015	ff 75 08	 push	 DWORD PTR ___first$[ebp]
  00018	ff 75 10	 push	 DWORD PTR ___result$[ebp]
  0001b	e8 00 00 00 00	 call	 _memmove
  00020	83 c4 0c	 add	 esp, 12			; 0000000cH
  00023	03 c6		 add	 eax, esi
$L102840:
  00025	5e		 pop	 esi

; 151  : }

  00026	5d		 pop	 ebp
  00027	c3		 ret	 0
?__copy_trivial@_STL@@YAPAXPBX0PAX@Z ENDP		; _STL::__copy_trivial
_TEXT	ENDS
PUBLIC	?write@SocketOutputStream@@QAEIE@Z		; SocketOutputStream::write
EXTRN	?write@SocketOutputStream@@QAEIPBDI@Z:NEAR	; SocketOutputStream::write
; Function compile flags: /Ogsy
; File c:\darkeden\designed_common\project\client\packet\socketoutputstream.h
;	COMDAT ?write@SocketOutputStream@@QAEIE@Z
_TEXT	SEGMENT
_buf$ = 8						; size = 1
?write@SocketOutputStream@@QAEIE@Z PROC NEAR		; SocketOutputStream::write, COMDAT
; _this$ = ecx

; 62   :     uint write ( uchar  buf ) throw ( ProtocolException , Error ) { return write( (const char*)&buf, szuchar  ); }

  00000	6a 01		 push	 1
  00002	8d 44 24 08	 lea	 eax, DWORD PTR _buf$[esp]
  00006	50		 push	 eax
  00007	e8 00 00 00 00	 call	 ?write@SocketOutputStream@@QAEIPBDI@Z ; SocketOutputStream::write
  0000c	c2 04 00	 ret	 4
?write@SocketOutputStream@@QAEIE@Z ENDP			; SocketOutputStream::write
_TEXT	ENDS
PUBLIC	?write@SocketOutputStream@@QAEIG@Z		; SocketOutputStream::write
; Function compile flags: /Ogsy
;	COMDAT ?write@SocketOutputStream@@QAEIG@Z
_TEXT	SEGMENT
_buf$ = 8						; size = 2
?write@SocketOutputStream@@QAEIG@Z PROC NEAR		; SocketOutputStream::write, COMDAT
; _this$ = ecx

; 64   :     uint write ( ushort buf ) throw ( ProtocolException , Error ) { return write( (const char*)&buf, szushort ); }

  00000	6a 02		 push	 2
  00002	8d 44 24 08	 lea	 eax, DWORD PTR _buf$[esp]
  00006	50		 push	 eax
  00007	e8 00 00 00 00	 call	 ?write@SocketOutputStream@@QAEIPBDI@Z ; SocketOutputStream::write
  0000c	c2 04 00	 ret	 4
?write@SocketOutputStream@@QAEIG@Z ENDP			; SocketOutputStream::write
_TEXT	ENDS
PUBLIC	?write@SocketOutputStream@@QAEIH@Z		; SocketOutputStream::write
; Function compile flags: /Ogsy
;	COMDAT ?write@SocketOutputStream@@QAEIH@Z
_TEXT	SEGMENT
_buf$ = 8						; size = 4
?write@SocketOutputStream@@QAEIH@Z PROC NEAR		; SocketOutputStream::write, COMDAT
; _this$ = ecx

; 65   :     uint write ( int    buf ) throw ( ProtocolException , Error ) { return write( (const char*)&buf, szint    ); }

  00000	6a 04		 push	 4
  00002	8d 44 24 08	 lea	 eax, DWORD PTR _buf$[esp]
  00006	50		 push	 eax
  00007	e8 00 00 00 00	 call	 ?write@SocketOutputStream@@QAEIPBDI@Z ; SocketOutputStream::write
  0000c	c2 04 00	 ret	 4
?write@SocketOutputStream@@QAEIH@Z ENDP			; SocketOutputStream::write
_TEXT	ENDS
PUBLIC	?write@SocketOutputStream@@QAEIK@Z		; SocketOutputStream::write
; Function compile flags: /Ogsy
;	COMDAT ?write@SocketOutputStream@@QAEIK@Z
_TEXT	SEGMENT
_buf$ = 8						; size = 4
?write@SocketOutputStream@@QAEIK@Z PROC NEAR		; SocketOutputStream::write, COMDAT
; _this$ = ecx

; 68   :     uint write ( ulong  buf ) throw ( ProtocolException , Error ) { return write( (const char*)&buf, szulong  ); }

  00000	6a 04		 push	 4
  00002	8d 44 24 08	 lea	 eax, DWORD PTR _buf$[esp]
  00006	50		 push	 eax
  00007	e8 00 00 00 00	 call	 ?write@SocketOutputStream@@QAEIPBDI@Z ; SocketOutputStream::write
  0000c	c2 04 00	 ret	 4
?write@SocketOutputStream@@QAEIK@Z ENDP			; SocketOutputStream::write
_TEXT	ENDS
PUBLIC	?uninitialized_copy@_STL@@YAPADPBD0PAD@Z	; _STL::uninitialized_copy
; Function compile flags: /Ogsy
; File c:\stlport-4.6.1\stlport\stl\_uninitialized.h
;	COMDAT ?uninitialized_copy@_STL@@YAPADPBD0PAD@Z
_TEXT	SEGMENT
___first$ = 8						; size = 4
___last$ = 12						; size = 4
___result$ = 16						; size = 4
?uninitialized_copy@_STL@@YAPADPBD0PAD@Z PROC NEAR	; _STL::uninitialized_copy, COMDAT

; 84   :   return  (char*)__copy_trivial (__first, __last, __result);

  00000	e9 00 00 00 00	 jmp	 ?__copy_trivial@_STL@@YAPAXPBX0PAX@Z ; _STL::__copy_trivial
?uninitialized_copy@_STL@@YAPADPBD0PAD@Z ENDP		; _STL::uninitialized_copy
_TEXT	ENDS
PUBLIC	??_R1A@?0A@A@Packet@@8				; Packet::`RTTI Base Class Descriptor at (0,-1,0,0)'
PUBLIC	??_R0?AVPacket@@@8				; Packet `RTTI Type Descriptor'
PUBLIC	??_R4Packet@@6B@				; Packet::`RTTI Complete Object Locator'
PUBLIC	??_R3Packet@@8					; Packet::`RTTI Class Hierarchy Descriptor'
PUBLIC	??_R2Packet@@8					; Packet::`RTTI Base Class Array'
PUBLIC	??1Packet@@UAE@XZ				; Packet::~Packet
PUBLIC	?read@Packet@@UAEXPAVSocket@@@Z			; Packet::read
PUBLIC	?write@Packet@@UBEXPAVSocket@@@Z		; Packet::write
PUBLIC	??_7Packet@@6B@					; Packet::`vftable'
PUBLIC	??_GPacket@@UAEPAXI@Z				; Packet::`scalar deleting destructor'
EXTRN	??_7type_info@@6B@:QWORD			; type_info::`vftable'
EXTRN	??_EPacket@@UAEPAXI@Z:NEAR			; Packet::`vector deleting destructor'
EXTRN	__purecall:NEAR
;	COMDAT ??_7Packet@@6B@
; File c:\darkeden\designed_common\project\client\packet\packet.h
CONST	SEGMENT
??_7Packet@@6B@ DD FLAT:??_R4Packet@@6B@		; Packet::`vftable'
	DD	FLAT:??_EPacket@@UAEPAXI@Z
	DD	FLAT:?read@Packet@@UAEXPAVSocket@@@Z
	DD	FLAT:__purecall
	DD	FLAT:?write@Packet@@UBEXPAVSocket@@@Z
	DD	FLAT:__purecall
	DD	FLAT:__purecall
	DD	FLAT:__purecall
	DD	FLAT:__purecall
CONST	ENDS
;	COMDAT ??_R4Packet@@6B@
rdata$r	SEGMENT
??_R4Packet@@6B@ DD 00H					; Packet::`RTTI Complete Object Locator'
	DD	00H
	DD	00H
	DD	FLAT:??_R0?AVPacket@@@8
	DD	FLAT:??_R3Packet@@8
rdata$r	ENDS
;	COMDAT ??_R0?AVPacket@@@8
_DATA	SEGMENT
??_R0?AVPacket@@@8 DD FLAT:??_7type_info@@6B@		; Packet `RTTI Type Descriptor'
	DD	00H
	DB	'.?AVPacket@@', 00H
_DATA	ENDS
;	COMDAT ??_R3Packet@@8
rdata$r	SEGMENT
??_R3Packet@@8 DD 00H					; Packet::`RTTI Class Hierarchy Descriptor'
	DD	00H
	DD	01H
	DD	FLAT:??_R2Packet@@8
rdata$r	ENDS
;	COMDAT ??_R2Packet@@8
rdata$r	SEGMENT
??_R2Packet@@8 DD FLAT:??_R1A@?0A@A@Packet@@8		; Packet::`RTTI Base Class Array'
rdata$r	ENDS
;	COMDAT ??_R1A@?0A@A@Packet@@8
rdata$r	SEGMENT
??_R1A@?0A@A@Packet@@8 DD FLAT:??_R0?AVPacket@@@8	; Packet::`RTTI Base Class Descriptor at (0,-1,0,0)'
	DD	00H
	DD	00H
	DD	0ffffffffH
	DD	00H
	DD	00H
; Function compile flags: /Ogsy
rdata$r	ENDS
;	COMDAT ??1Packet@@UAE@XZ
_TEXT	SEGMENT
??1Packet@@UAE@XZ PROC NEAR				; Packet::~Packet, COMDAT
; _this$ = ecx

; 726  : 	virtual ~Packet () throw () {}

  00000	c7 01 00 00 00
	00		 mov	 DWORD PTR [ecx], OFFSET FLAT:??_7Packet@@6B@
  00006	c3		 ret	 0
??1Packet@@UAE@XZ ENDP					; Packet::~Packet
; Function compile flags: /Ogsy
_TEXT	ENDS
;	COMDAT ??_GPacket@@UAEPAXI@Z
_TEXT	SEGMENT
___flags$ = 8						; size = 4
??_GPacket@@UAEPAXI@Z PROC NEAR				; Packet::`scalar deleting destructor', COMDAT
; _this$ = ecx
  00000	f6 44 24 04 01	 test	 BYTE PTR ___flags$[esp-4], 1
  00005	56		 push	 esi
  00006	8b f1		 mov	 esi, ecx
  00008	c7 06 00 00 00
	00		 mov	 DWORD PTR [esi], OFFSET FLAT:??_7Packet@@6B@
  0000e	74 07		 je	 SHORT $L100453
  00010	56		 push	 esi
  00011	e8 00 00 00 00	 call	 ??3@YAXPAX@Z		; operator delete
  00016	59		 pop	 ecx
$L100453:
  00017	8b c6		 mov	 eax, esi
  00019	5e		 pop	 esi
  0001a	c2 04 00	 ret	 4
??_GPacket@@UAEPAXI@Z ENDP				; Packet::`scalar deleting destructor'
_TEXT	ENDS
PUBLIC	?length@?$char_traits@D@_STL@@SAIPBD@Z		; _STL::char_traits<char>::length
EXTRN	_strlen:NEAR
; Function compile flags: /Ogsy
; File c:\stlport-4.6.1\stlport\stl\char_traits.h
;	COMDAT ?length@?$char_traits@D@_STL@@SAIPBD@Z
_TEXT	SEGMENT
___s$ = 8						; size = 4
?length@?$char_traits@D@_STL@@SAIPBD@Z PROC NEAR	; _STL::char_traits<char>::length, COMDAT

; 238  :   static size_t _STLP_CALL length(const char* __s) { return strlen(__s); }

  00000	e9 00 00 00 00	 jmp	 _strlen
?length@?$char_traits@D@_STL@@SAIPBD@Z ENDP		; _STL::char_traits<char>::length
_TEXT	ENDS
PUBLIC	??0Packet@@QAE@XZ				; Packet::Packet
; Function compile flags: /Ogsy
;	COMDAT ??0Packet@@QAE@XZ
_TEXT	SEGMENT
??0Packet@@QAE@XZ PROC NEAR				; Packet::Packet, COMDAT
; _this$ = ecx
  00000	8b c1		 mov	 eax, ecx
  00002	c7 00 00 00 00
	00		 mov	 DWORD PTR [eax], OFFSET FLAT:??_7Packet@@6B@
  00008	c3		 ret	 0
??0Packet@@QAE@XZ ENDP					; Packet::Packet
_TEXT	ENDS
PUBLIC	?execute@GCUpdateWeekItemList@@UAEXPAVPlayer@@@Z ; GCUpdateWeekItemList::execute
EXTRN	?execute@GCUpdateWeekItemListHandler@@SAXPAVGCUpdateWeekItemList@@PAVPlayer@@@Z:NEAR ; GCUpdateWeekItemListHandler::execute
; Function compile flags: /Ogsy
; File c:\darkeden\designed_common\project\client\packet\gpackets\gcupdateweekitemlist.cpp
;	COMDAT ?execute@GCUpdateWeekItemList@@UAEXPAVPlayer@@@Z
_TEXT	SEGMENT
_pPlayer$ = 8						; size = 4
?execute@GCUpdateWeekItemList@@UAEXPAVPlayer@@@Z PROC NEAR ; GCUpdateWeekItemList::execute, COMDAT
; _this$ = ecx

; 159  : 	__BEGIN_TRY
; 160  : 	__BEGIN_DEBUG
; 161  : 		
; 162  : 	GCUpdateWeekItemListHandler::execute( this , pPlayer );

  00000	ff 74 24 04	 push	 DWORD PTR _pPlayer$[esp-4]
  00004	51		 push	 ecx
  00005	e8 00 00 00 00	 call	 ?execute@GCUpdateWeekItemListHandler@@SAXPAVGCUpdateWeekItemList@@PAVPlayer@@@Z ; GCUpdateWeekItemListHandler::execute
  0000a	59		 pop	 ecx
  0000b	59		 pop	 ecx

; 163  : 
; 164  : 	__END_DEBUG
; 165  : 	__END_CATCH
; 166  : }

  0000c	c2 04 00	 ret	 4
?execute@GCUpdateWeekItemList@@UAEXPAVPlayer@@@Z ENDP	; GCUpdateWeekItemList::execute
_TEXT	ENDS
PUBLIC	??0?$allocator@G@_STL@@QAE@XZ			; _STL::allocator<unsigned short>::allocator<unsigned short>
; Function compile flags: /Ogsy
; File c:\stlport-4.6.1\stlport\stl\_alloc.h
;	COMDAT ??0?$allocator@G@_STL@@QAE@XZ
_TEXT	SEGMENT
??0?$allocator@G@_STL@@QAE@XZ PROC NEAR			; _STL::allocator<unsigned short>::allocator<unsigned short>, COMDAT
; _this$ = ecx

; 345  :   allocator() _STLP_NOTHROW {}

  00000	8b c1		 mov	 eax, ecx
  00002	c3		 ret	 0
??0?$allocator@G@_STL@@QAE@XZ ENDP			; _STL::allocator<unsigned short>::allocator<unsigned short>
_TEXT	ENDS
PUBLIC	??D?$_List_iterator@GU?$_Const_traits@G@_STL@@@_STL@@QBEABGXZ ; _STL::_List_iterator<unsigned short,_STL::_Const_traits<unsigned short> >::operator*
; Function compile flags: /Ogsy
; File c:\stlport-4.6.1\stlport\stl\_list.h
;	COMDAT ??D?$_List_iterator@GU?$_Const_traits@G@_STL@@@_STL@@QBEABGXZ
_TEXT	SEGMENT
??D?$_List_iterator@GU?$_Const_traits@G@_STL@@@_STL@@QBEABGXZ PROC NEAR ; _STL::_List_iterator<unsigned short,_STL::_Const_traits<unsigned short> >::operator*, COMDAT
; _this$ = ecx

; 130  :   reference operator*() const { return ((_Node*)_M_node)->_M_data; }

  00000	8b 01		 mov	 eax, DWORD PTR [ecx]
  00002	83 c0 08	 add	 eax, 8
  00005	c3		 ret	 0
??D?$_List_iterator@GU?$_Const_traits@G@_STL@@@_STL@@QBEABGXZ ENDP ; _STL::_List_iterator<unsigned short,_STL::_Const_traits<unsigned short> >::operator*
_TEXT	ENDS
PUBLIC	??0?$allocator@PAU_WeekItemInfo@@@_STL@@QAE@XZ	; _STL::allocator<_WeekItemInfo *>::allocator<_WeekItemInfo *>
; Function compile flags: /Ogsy
; File c:\stlport-4.6.1\stlport\stl\_alloc.h
;	COMDAT ??0?$allocator@PAU_WeekItemInfo@@@_STL@@QAE@XZ
_TEXT	SEGMENT
??0?$allocator@PAU_WeekItemInfo@@@_STL@@QAE@XZ PROC NEAR ; _STL::allocator<_WeekItemInfo *>::allocator<_WeekItemInfo *>, COMDAT
; _this$ = ecx

; 345  :   allocator() _STLP_NOTHROW {}

  00000	8b c1		 mov	 eax, ecx
  00002	c3		 ret	 0
??0?$allocator@PAU_WeekItemInfo@@@_STL@@QAE@XZ ENDP	; _STL::allocator<_WeekItemInfo *>::allocator<_WeekItemInfo *>
_TEXT	ENDS
PUBLIC	??1?$allocator@PAU_WeekItemInfo@@@_STL@@QAE@XZ	; _STL::allocator<_WeekItemInfo *>::~allocator<_WeekItemInfo *>
; Function compile flags: /Ogsy
;	COMDAT ??1?$allocator@PAU_WeekItemInfo@@@_STL@@QAE@XZ
_TEXT	SEGMENT
??1?$allocator@PAU_WeekItemInfo@@@_STL@@QAE@XZ PROC NEAR ; _STL::allocator<_WeekItemInfo *>::~allocator<_WeekItemInfo *>, COMDAT
; _this$ = ecx

; 350  :   ~allocator() _STLP_NOTHROW {}

  00000	c3		 ret	 0
??1?$allocator@PAU_WeekItemInfo@@@_STL@@QAE@XZ ENDP	; _STL::allocator<_WeekItemInfo *>::~allocator<_WeekItemInfo *>
_TEXT	ENDS
PUBLIC	??D?$_List_iterator@PAU_WeekItemInfo@@U?$_Nonconst_traits@PAU_WeekItemInfo@@@_STL@@@_STL@@QBEAAPAU_WeekItemInfo@@XZ ; _STL::_List_iterator<_WeekItemInfo *,_STL::_Nonconst_traits<_WeekItemInfo *> >::operator*
; Function compile flags: /Ogsy
; File c:\stlport-4.6.1\stlport\stl\_list.h
;	COMDAT ??D?$_List_iterator@PAU_WeekItemInfo@@U?$_Nonconst_traits@PAU_WeekItemInfo@@@_STL@@@_STL@@QBEAAPAU_WeekItemInfo@@XZ
_TEXT	SEGMENT
??D?$_List_iterator@PAU_WeekItemInfo@@U?$_Nonconst_traits@PAU_WeekItemInfo@@@_STL@@@_STL@@QBEAAPAU_WeekItemInfo@@XZ PROC NEAR ; _STL::_List_iterator<_WeekItemInfo *,_STL::_Nonconst_traits<_WeekItemInfo *> >::operator*, COMDAT
; _this$ = ecx

; 130  :   reference operator*() const { return ((_Node*)_M_node)->_M_data; }

  00000	8b 01		 mov	 eax, DWORD PTR [ecx]
  00002	83 c0 08	 add	 eax, 8
  00005	c3		 ret	 0
??D?$_List_iterator@PAU_WeekItemInfo@@U?$_Nonconst_traits@PAU_WeekItemInfo@@@_STL@@@_STL@@QBEAAPAU_WeekItemInfo@@XZ ENDP ; _STL::_List_iterator<_WeekItemInfo *,_STL::_Nonconst_traits<_WeekItemInfo *> >::operator*
_TEXT	ENDS
PUBLIC	??D?$_List_iterator@PAU_WeekItemInfo@@U?$_Const_traits@PAU_WeekItemInfo@@@_STL@@@_STL@@QBEABQAU_WeekItemInfo@@XZ ; _STL::_List_iterator<_WeekItemInfo *,_STL::_Const_traits<_WeekItemInfo *> >::operator*
; Function compile flags: /Ogsy
;	COMDAT ??D?$_List_iterator@PAU_WeekItemInfo@@U?$_Const_traits@PAU_WeekItemInfo@@@_STL@@@_STL@@QBEABQAU_WeekItemInfo@@XZ
_TEXT	SEGMENT
??D?$_List_iterator@PAU_WeekItemInfo@@U?$_Const_traits@PAU_WeekItemInfo@@@_STL@@@_STL@@QBEABQAU_WeekItemInfo@@XZ PROC NEAR ; _STL::_List_iterator<_WeekItemInfo *,_STL::_Const_traits<_WeekItemInfo *> >::operator*, COMDAT
; _this$ = ecx

; 130  :   reference operator*() const { return ((_Node*)_M_node)->_M_data; }

  00000	8b 01		 mov	 eax, DWORD PTR [ecx]
  00002	83 c0 08	 add	 eax, 8
  00005	c3		 ret	 0
??D?$_List_iterator@PAU_WeekItemInfo@@U?$_Const_traits@PAU_WeekItemInfo@@@_STL@@@_STL@@QBEABQAU_WeekItemInfo@@XZ ENDP ; _STL::_List_iterator<_WeekItemInfo *,_STL::_Const_traits<_WeekItemInfo *> >::operator*
_TEXT	ENDS
PUBLIC	?_M_terminate_string_aux@?$basic_string@DV?$char_traits@D@_STL@@V?$allocator@D@2@@_STL@@AAEXABU__true_type@2@@Z ; _STL::basic_string<char,_STL::char_traits<char>,_STL::allocator<char> >::_M_terminate_string_aux
; Function compile flags: /Ogsy
; File c:\stlport-4.6.1\stlport\stl\_string.h
;	COMDAT ?_M_terminate_string_aux@?$basic_string@DV?$char_traits@D@_STL@@V?$allocator@D@2@@_STL@@AAEXABU__true_type@2@@Z
_TEXT	SEGMENT
___formal$ = 8						; size = 4
?_M_terminate_string_aux@?$basic_string@DV?$char_traits@D@_STL@@V?$allocator@D@2@@_STL@@AAEXABU__true_type@2@@Z PROC NEAR ; _STL::basic_string<char,_STL::char_traits<char>,_STL::allocator<char> >::_M_terminate_string_aux, COMDAT
; _this$ = ecx

; 351  :     *(this->_M_finish)=0;

  00000	8b 41 04	 mov	 eax, DWORD PTR [ecx+4]
  00003	c6 00 00	 mov	 BYTE PTR [eax], 0

; 352  :   }

  00006	c2 04 00	 ret	 4
?_M_terminate_string_aux@?$basic_string@DV?$char_traits@D@_STL@@V?$allocator@D@2@@_STL@@AAEXABU__true_type@2@@Z ENDP ; _STL::basic_string<char,_STL::char_traits<char>,_STL::allocator<char> >::_M_terminate_string_aux
_TEXT	ENDS
PUBLIC	??0?$allocator@D@_STL@@QAE@ABV01@@Z		; _STL::allocator<char>::allocator<char>
; Function compile flags: /Ogsy
; File c:\stlport-4.6.1\stlport\stl\_alloc.h
;	COMDAT ??0?$allocator@D@_STL@@QAE@ABV01@@Z
_TEXT	SEGMENT
___formal$ = 8						; size = 4
??0?$allocator@D@_STL@@QAE@ABV01@@Z PROC NEAR		; _STL::allocator<char>::allocator<char>, COMDAT
; _this$ = ecx

; 349  :   allocator(const allocator<_Tp>&) _STLP_NOTHROW {}

  00000	8b c1		 mov	 eax, ecx
  00002	c2 04 00	 ret	 4
??0?$allocator@D@_STL@@QAE@ABV01@@Z ENDP		; _STL::allocator<char>::allocator<char>
_TEXT	ENDS
PUBLIC	??1?$allocator@U?$_List_node@G@_STL@@@_STL@@QAE@XZ ; _STL::allocator<_STL::_List_node<unsigned short> >::~allocator<_STL::_List_node<unsigned short> >
; Function compile flags: /Ogsy
;	COMDAT ??1?$allocator@U?$_List_node@G@_STL@@@_STL@@QAE@XZ
_TEXT	SEGMENT
??1?$allocator@U?$_List_node@G@_STL@@@_STL@@QAE@XZ PROC NEAR ; _STL::allocator<_STL::_List_node<unsigned short> >::~allocator<_STL::_List_node<unsigned short> >, COMDAT
; _this$ = ecx

; 350  :   ~allocator() _STLP_NOTHROW {}

  00000	c3		 ret	 0
??1?$allocator@U?$_List_node@G@_STL@@@_STL@@QAE@XZ ENDP	; _STL::allocator<_STL::_List_node<unsigned short> >::~allocator<_STL::_List_node<unsigned short> >
_TEXT	ENDS
PUBLIC	??1?$allocator@U?$_List_node@PAU_WeekItemInfo@@@_STL@@@_STL@@QAE@XZ ; _STL::allocator<_STL::_List_node<_WeekItemInfo *> >::~allocator<_STL::_List_node<_WeekItemInfo *> >
; Function compile flags: /Ogsy
;	COMDAT ??1?$allocator@U?$_List_node@PAU_WeekItemInfo@@@_STL@@@_STL@@QAE@XZ
_TEXT	SEGMENT
??1?$allocator@U?$_List_node@PAU_WeekItemInfo@@@_STL@@@_STL@@QAE@XZ PROC NEAR ; _STL::allocator<_STL::_List_node<_WeekItemInfo *> >::~allocator<_STL::_List_node<_WeekItemInfo *> >, COMDAT
; _this$ = ecx

; 350  :   ~allocator() _STLP_NOTHROW {}

  00000	c3		 ret	 0
??1?$allocator@U?$_List_node@PAU_WeekItemInfo@@@_STL@@@_STL@@QAE@XZ ENDP ; _STL::allocator<_STL::_List_node<_WeekItemInfo *> >::~allocator<_STL::_List_node<_WeekItemInfo *> >
_TEXT	ENDS
PUBLIC	??0?$allocator@U?$_List_node@G@_STL@@@_STL@@QAE@ABV01@@Z ; _STL::allocator<_STL::_List_node<unsigned short> >::allocator<_STL::_List_node<unsigned short> >
; Function compile flags: /Ogsy
;	COMDAT ??0?$allocator@U?$_List_node@G@_STL@@@_STL@@QAE@ABV01@@Z
_TEXT	SEGMENT
___formal$ = 8						; size = 4
??0?$allocator@U?$_List_node@G@_STL@@@_STL@@QAE@ABV01@@Z PROC NEAR ; _STL::allocator<_STL::_List_node<unsigned short> >::allocator<_STL::_List_node<unsigned short> >, COMDAT
; _this$ = ecx

; 349  :   allocator(const allocator<_Tp>&) _STLP_NOTHROW {}

  00000	8b c1		 mov	 eax, ecx
  00002	c2 04 00	 ret	 4
??0?$allocator@U?$_List_node@G@_STL@@@_STL@@QAE@ABV01@@Z ENDP ; _STL::allocator<_STL::_List_node<unsigned short> >::allocator<_STL::_List_node<unsigned short> >
_TEXT	ENDS
PUBLIC	??0?$allocator@U?$_List_node@PAU_WeekItemInfo@@@_STL@@@_STL@@QAE@ABV01@@Z ; _STL::allocator<_STL::_List_node<_WeekItemInfo *> >::allocator<_STL::_List_node<_WeekItemInfo *> >
; Function compile flags: /Ogsy
;	COMDAT ??0?$allocator@U?$_List_node@PAU_WeekItemInfo@@@_STL@@@_STL@@QAE@ABV01@@Z
_TEXT	SEGMENT
___formal$ = 8						; size = 4
??0?$allocator@U?$_List_node@PAU_WeekItemInfo@@@_STL@@@_STL@@QAE@ABV01@@Z PROC NEAR ; _STL::allocator<_STL::_List_node<_WeekItemInfo *> >::allocator<_STL::_List_node<_WeekItemInfo *> >, COMDAT
; _this$ = ecx

; 349  :   allocator(const allocator<_Tp>&) _STLP_NOTHROW {}

  00000	8b c1		 mov	 eax, ecx
  00002	c2 04 00	 ret	 4
??0?$allocator@U?$_List_node@PAU_WeekItemInfo@@@_STL@@@_STL@@QAE@ABV01@@Z ENDP ; _STL::allocator<_STL::_List_node<_WeekItemInfo *> >::allocator<_STL::_List_node<_WeekItemInfo *> >
_TEXT	ENDS
PUBLIC	??$?0U?$_List_node@V?$basic_string@DV?$char_traits@D@_STL@@V?$allocator@D@2@@_STL@@@_STL@@@?$allocator@V?$basic_string@DV?$char_traits@D@_STL@@V?$allocator@D@2@@_STL@@@_STL@@QAE@ABV?$allocator@U?$_List_node@V?$basic_string@DV?$char_traits@D@_STL@@V?$allocator@D@2@@_STL@@@_STL@@@1@@Z ; _STL::allocator<_STL::basic_string<char,_STL::char_traits<char>,_STL::allocator<char> > >::allocator<_STL::basic_string<char,_STL::char_traits<char>,_STL::allocator<char> > ><_STL::_List_node<_STL::basic_string<char,_STL::char_traits<char>,_STL::allocator<char> > > >
; Function compile flags: /Ogsy
;	COMDAT ??$?0U?$_List_node@V?$basic_string@DV?$char_traits@D@_STL@@V?$allocator@D@2@@_STL@@@_STL@@@?$allocator@V?$basic_string@DV?$char_traits@D@_STL@@V?$allocator@D@2@@_STL@@@_STL@@QAE@ABV?$allocator@U?$_List_node@V?$basic_string@DV?$char_traits@D@_STL@@V?$allocator@D@2@@_STL@@@_STL@@@1@@Z
_TEXT	SEGMENT
___formal$ = 8						; size = 4
??$?0U?$_List_node@V?$basic_string@DV?$char_traits@D@_STL@@V?$allocator@D@2@@_STL@@@_STL@@@?$allocator@V?$basic_string@DV?$char_traits@D@_STL@@V?$allocator@D@2@@_STL@@@_STL@@QAE@ABV?$allocator@U?$_List_node@V?$basic_string@DV?$char_traits@D@_STL@@V?$allocator@D@2@@_STL@@@_STL@@@1@@Z PROC NEAR ; _STL::allocator<_STL::basic_string<char,_STL::char_traits<char>,_STL::allocator<char> > >::allocator<_STL::basic_string<char,_STL::char_traits<char>,_STL::allocator<char> > ><_STL::_List_node<_STL::basic_string<char,_STL::char_traits<char>,_STL::allocator<char> > > >, COMDAT
; _this$ = ecx

; 347  :   template <class _Tp1> allocator(const allocator<_Tp1>&) _STLP_NOTHROW {}

  00000	8b c1		 mov	 eax, ecx
  00002	c2 04 00	 ret	 4
??$?0U?$_List_node@V?$basic_string@DV?$char_traits@D@_STL@@V?$allocator@D@2@@_STL@@@_STL@@@?$allocator@V?$basic_string@DV?$char_traits@D@_STL@@V?$allocator@D@2@@_STL@@@_STL@@QAE@ABV?$allocator@U?$_List_node@V?$basic_string@DV?$char_traits@D@_STL@@V?$allocator@D@2@@_STL@@@_STL@@@1@@Z ENDP ; _STL::allocator<_STL::basic_string<char,_STL::char_traits<char>,_STL::allocator<char> > >::allocator<_STL::basic_string<char,_STL::char_traits<char>,_STL::allocator<char> > ><_STL::_List_node<_STL::basic_string<char,_STL::char_traits<char>,_STL::allocator<char> > > >
_TEXT	ENDS
PUBLIC	??$?0G@?$allocator@U?$_List_node@G@_STL@@@_STL@@QAE@ABV?$allocator@G@1@@Z ; _STL::allocator<_STL::_List_node<unsigned short> >::allocator<_STL::_List_node<unsigned short> ><unsigned short>
; Function compile flags: /Ogsy
;	COMDAT ??$?0G@?$allocator@U?$_List_node@G@_STL@@@_STL@@QAE@ABV?$allocator@G@1@@Z
_TEXT	SEGMENT
___formal$ = 8						; size = 4
??$?0G@?$allocator@U?$_List_node@G@_STL@@@_STL@@QAE@ABV?$allocator@G@1@@Z PROC NEAR ; _STL::allocator<_STL::_List_node<unsigned short> >::allocator<_STL::_List_node<unsigned short> ><unsigned short>, COMDAT
; _this$ = ecx

; 347  :   template <class _Tp1> allocator(const allocator<_Tp1>&) _STLP_NOTHROW {}

  00000	8b c1		 mov	 eax, ecx
  00002	c2 04 00	 ret	 4
??$?0G@?$allocator@U?$_List_node@G@_STL@@@_STL@@QAE@ABV?$allocator@G@1@@Z ENDP ; _STL::allocator<_STL::_List_node<unsigned short> >::allocator<_STL::_List_node<unsigned short> ><unsigned short>
_TEXT	ENDS
PUBLIC	??$_Destroy@PAU_WeekItemInfo@@@_STL@@YAXPAPAU_WeekItemInfo@@@Z ; _STL::_Destroy<_WeekItemInfo *>
; Function compile flags: /Ogsy
; File c:\stlport-4.6.1\stlport\stl\_construct.h
;	COMDAT ??$_Destroy@PAU_WeekItemInfo@@@_STL@@YAXPAPAU_WeekItemInfo@@@Z
_TEXT	SEGMENT
___pointer$ = 8						; size = 4
??$_Destroy@PAU_WeekItemInfo@@@_STL@@YAXPAPAU_WeekItemInfo@@@Z PROC NEAR ; _STL::_Destroy<_WeekItemInfo *>, COMDAT

; 57   : # if _MSC_VER >= 1010
; 58   :   __pointer;
; 59   : # endif	// _MSC_VER >= 1000
; 60   : # ifdef _STLP_TRIVIAL_DESTRUCTOR_BUG
; 61   :   typedef typename __type_traits<_Tp>::has_trivial_destructor _Trivial_destructor;
; 62   :   __destroy_aux(__pointer, _Trivial_destructor());
; 63   : # else
; 64   : #  if ( defined (__BORLANDC__) && ( __BORLANDC__ < 0x500 ) )
; 65   :     __pointer->_Tp::~_Tp();
; 66   : #  else
; 67   :     __pointer->~_Tp();
; 68   : #  endif
; 69   : # endif
; 70   : # ifdef _STLP_DEBUG_UNINITIALIZED
; 71   : 	memset((char*)__pointer, _STLP_SHRED_BYTE, sizeof(_Tp));
; 72   : # endif
; 73   : }

  00000	c3		 ret	 0
??$_Destroy@PAU_WeekItemInfo@@@_STL@@YAXPAPAU_WeekItemInfo@@@Z ENDP ; _STL::_Destroy<_WeekItemInfo *>
_TEXT	ENDS
PUBLIC	??$?0PAU_WeekItemInfo@@@?$allocator@U?$_List_node@PAU_WeekItemInfo@@@_STL@@@_STL@@QAE@ABV?$allocator@PAU_WeekItemInfo@@@1@@Z ; _STL::allocator<_STL::_List_node<_WeekItemInfo *> >::allocator<_STL::_List_node<_WeekItemInfo *> ><_WeekItemInfo *>
; Function compile flags: /Ogsy
; File c:\stlport-4.6.1\stlport\stl\_alloc.h
;	COMDAT ??$?0PAU_WeekItemInfo@@@?$allocator@U?$_List_node@PAU_WeekItemInfo@@@_STL@@@_STL@@QAE@ABV?$allocator@PAU_WeekItemInfo@@@1@@Z
_TEXT	SEGMENT
___formal$ = 8						; size = 4
??$?0PAU_WeekItemInfo@@@?$allocator@U?$_List_node@PAU_WeekItemInfo@@@_STL@@@_STL@@QAE@ABV?$allocator@PAU_WeekItemInfo@@@1@@Z PROC NEAR ; _STL::allocator<_STL::_List_node<_WeekItemInfo *> >::allocator<_STL::_List_node<_WeekItemInfo *> ><_WeekItemInfo *>, COMDAT
; _this$ = ecx

; 347  :   template <class _Tp1> allocator(const allocator<_Tp1>&) _STLP_NOTHROW {}

  00000	8b c1		 mov	 eax, ecx
  00002	c2 04 00	 ret	 4
??$?0PAU_WeekItemInfo@@@?$allocator@U?$_List_node@PAU_WeekItemInfo@@@_STL@@@_STL@@QAE@ABV?$allocator@PAU_WeekItemInfo@@@1@@Z ENDP ; _STL::allocator<_STL::_List_node<_WeekItemInfo *> >::allocator<_STL::_List_node<_WeekItemInfo *> ><_WeekItemInfo *>
_TEXT	ENDS
PUBLIC	??$_Construct@GG@_STL@@YAXPAGABG@Z		; _STL::_Construct<unsigned short,unsigned short>
; Function compile flags: /Ogsy
; File c:\stlport-4.6.1\stlport\stl\_construct.h
;	COMDAT ??$_Construct@GG@_STL@@YAXPAGABG@Z
_TEXT	SEGMENT
___p$ = 8						; size = 4
___val$ = 12						; size = 4
??$_Construct@GG@_STL@@YAXPAGABG@Z PROC NEAR		; _STL::_Construct<unsigned short,unsigned short>, COMDAT

; 94   : # ifdef _STLP_DEBUG_UNINITIALIZED
; 95   : 	memset((char*)__p, _STLP_SHRED_BYTE, sizeof(_T1));
; 96   : # endif
; 97   :     _STLP_PLACEMENT_NEW (__p) _T1(__val);

  00000	8b 44 24 04	 mov	 eax, DWORD PTR ___p$[esp-4]
  00004	85 c0		 test	 eax, eax
  00006	74 0a		 je	 SHORT $L102927
  00008	8b 4c 24 08	 mov	 ecx, DWORD PTR ___val$[esp-4]
  0000c	66 8b 09	 mov	 cx, WORD PTR [ecx]
  0000f	66 89 08	 mov	 WORD PTR [eax], cx
$L102927:

; 98   : }

  00012	c3		 ret	 0
??$_Construct@GG@_STL@@YAXPAGABG@Z ENDP			; _STL::_Construct<unsigned short,unsigned short>
_TEXT	ENDS
PUBLIC	??$_Construct@PAU_WeekItemInfo@@PAU1@@_STL@@YAXPAPAU_WeekItemInfo@@ABQAU1@@Z ; _STL::_Construct<_WeekItemInfo *,_WeekItemInfo *>
; Function compile flags: /Ogsy
;	COMDAT ??$_Construct@PAU_WeekItemInfo@@PAU1@@_STL@@YAXPAPAU_WeekItemInfo@@ABQAU1@@Z
_TEXT	SEGMENT
___p$ = 8						; size = 4
___val$ = 12						; size = 4
??$_Construct@PAU_WeekItemInfo@@PAU1@@_STL@@YAXPAPAU_WeekItemInfo@@ABQAU1@@Z PROC NEAR ; _STL::_Construct<_WeekItemInfo *,_WeekItemInfo *>, COMDAT

; 94   : # ifdef _STLP_DEBUG_UNINITIALIZED
; 95   : 	memset((char*)__p, _STLP_SHRED_BYTE, sizeof(_T1));
; 96   : # endif
; 97   :     _STLP_PLACEMENT_NEW (__p) _T1(__val);

  00000	8b 44 24 04	 mov	 eax, DWORD PTR ___p$[esp-4]
  00004	85 c0		 test	 eax, eax
  00006	74 08		 je	 SHORT $L102936
  00008	8b 4c 24 08	 mov	 ecx, DWORD PTR ___val$[esp-4]
  0000c	8b 09		 mov	 ecx, DWORD PTR [ecx]
  0000e	89 08		 mov	 DWORD PTR [eax], ecx
$L102936:

; 98   : }

  00010	c3		 ret	 0
??$_Construct@PAU_WeekItemInfo@@PAU1@@_STL@@YAXPAPAU_WeekItemInfo@@ABQAU1@@Z ENDP ; _STL::_Construct<_WeekItemInfo *,_WeekItemInfo *>
_TEXT	ENDS
PUBLIC	??$_Destroy@G@_STL@@YAXPAG@Z			; _STL::_Destroy<unsigned short>
; Function compile flags: /Ogsy
;	COMDAT ??$_Destroy@G@_STL@@YAXPAG@Z
_TEXT	SEGMENT
___pointer$ = 8						; size = 4
??$_Destroy@G@_STL@@YAXPAG@Z PROC NEAR			; _STL::_Destroy<unsigned short>, COMDAT

; 57   : # if _MSC_VER >= 1010
; 58   :   __pointer;
; 59   : # endif	// _MSC_VER >= 1000
; 60   : # ifdef _STLP_TRIVIAL_DESTRUCTOR_BUG
; 61   :   typedef typename __type_traits<_Tp>::has_trivial_destructor _Trivial_destructor;
; 62   :   __destroy_aux(__pointer, _Trivial_destructor());
; 63   : # else
; 64   : #  if ( defined (__BORLANDC__) && ( __BORLANDC__ < 0x500 ) )
; 65   :     __pointer->_Tp::~_Tp();
; 66   : #  else
; 67   :     __pointer->~_Tp();
; 68   : #  endif
; 69   : # endif
; 70   : # ifdef _STLP_DEBUG_UNINITIALIZED
; 71   : 	memset((char*)__pointer, _STLP_SHRED_BYTE, sizeof(_Tp));
; 72   : # endif
; 73   : }

  00000	c3		 ret	 0
??$_Destroy@G@_STL@@YAXPAG@Z ENDP			; _STL::_Destroy<unsigned short>
_TEXT	ENDS
PUBLIC	?max_size@?$_String_base@DV?$allocator@D@_STL@@@_STL@@QBEIXZ ; _STL::_String_base<char,_STL::allocator<char> >::max_size
; Function compile flags: /Ogsy
; File c:\stlport-4.6.1\stlport\stl\_string.h
;	COMDAT ?max_size@?$_String_base@DV?$allocator@D@_STL@@@_STL@@QBEIXZ
_TEXT	SEGMENT
?max_size@?$_String_base@DV?$allocator@D@_STL@@@_STL@@QBEIXZ PROC NEAR ; _STL::_String_base<char,_STL::allocator<char> >::max_size, COMDAT
; _this$ = ecx

; 126  :   size_t max_size() const { return (size_t(-1) / sizeof(_Tp)) - 1; }

  00000	6a fe		 push	 -2			; fffffffeH
  00002	58		 pop	 eax
  00003	c3		 ret	 0
?max_size@?$_String_base@DV?$allocator@D@_STL@@@_STL@@QBEIXZ ENDP ; _STL::_String_base<char,_STL::allocator<char> >::max_size
_TEXT	ENDS
PUBLIC	??$__distance@PBD@_STL@@YAHABQBD0ABUrandom_access_iterator_tag@0@@Z ; _STL::__distance<char const *>
; Function compile flags: /Ogsy
; File c:\stlport-4.6.1\stlport\stl\_iterator_base.h
;	COMDAT ??$__distance@PBD@_STL@@YAHABQBD0ABUrandom_access_iterator_tag@0@@Z
_TEXT	SEGMENT
___first$ = 8						; size = 4
___last$ = 12						; size = 4
___formal$ = 16						; size = 4
??$__distance@PBD@_STL@@YAHABQBD0ABUrandom_access_iterator_tag@0@@Z PROC NEAR ; _STL::__distance<char const *>, COMDAT

; 363  :   return __last - __first;

  00000	8b 44 24 08	 mov	 eax, DWORD PTR ___last$[esp-4]
  00004	8b 00		 mov	 eax, DWORD PTR [eax]
  00006	8b 4c 24 04	 mov	 ecx, DWORD PTR ___first$[esp-4]
  0000a	2b 01		 sub	 eax, DWORD PTR [ecx]

; 364  : }

  0000c	c3		 ret	 0
??$__distance@PBD@_STL@@YAHABQBD0ABUrandom_access_iterator_tag@0@@Z ENDP ; _STL::__distance<char const *>
_TEXT	ENDS
PUBLIC	?_M_throw_length_error@?$_String_base@DV?$allocator@D@_STL@@@_STL@@QBEXXZ ; _STL::_String_base<char,_STL::allocator<char> >::_M_throw_length_error
PUBLIC	??_C@_0N@GOPDCEEB@basic_string?$AA@		; `string'
EXTRN	?__stl_throw_length_error@_STL@@YAXPBD@Z:NEAR	; _STL::__stl_throw_length_error
;	COMDAT ??_C@_0N@GOPDCEEB@basic_string?$AA@
; File c:\stlport-4.6.1\stlport\stl\_string.c
CONST	SEGMENT
??_C@_0N@GOPDCEEB@basic_string?$AA@ DB 'basic_string', 00H ; `string'
; Function compile flags: /Ogsy
CONST	ENDS
;	COMDAT ?_M_throw_length_error@?$_String_base@DV?$allocator@D@_STL@@@_STL@@QBEXXZ
_TEXT	SEGMENT
?_M_throw_length_error@?$_String_base@DV?$allocator@D@_STL@@@_STL@@QBEXXZ PROC NEAR ; _STL::_String_base<char,_STL::allocator<char> >::_M_throw_length_error, COMDAT
; _this$ = ecx

; 523  :     __stl_throw_length_error("basic_string");

  00000	68 00 00 00 00	 push	 OFFSET FLAT:??_C@_0N@GOPDCEEB@basic_string?$AA@
  00005	e8 00 00 00 00	 call	 ?__stl_throw_length_error@_STL@@YAXPBD@Z ; _STL::__stl_throw_length_error
  0000a	59		 pop	 ecx

; 524  : }

  0000b	c3		 ret	 0
?_M_throw_length_error@?$_String_base@DV?$allocator@D@_STL@@@_STL@@QBEXXZ ENDP ; _STL::_String_base<char,_STL::allocator<char> >::_M_throw_length_error
_TEXT	ENDS
PUBLIC	??$__distance@PAD@_STL@@YAHABQAD0ABUrandom_access_iterator_tag@0@@Z ; _STL::__distance<char *>
; Function compile flags: /Ogsy
; File c:\stlport-4.6.1\stlport\stl\_iterator_base.h
;	COMDAT ??$__distance@PAD@_STL@@YAHABQAD0ABUrandom_access_iterator_tag@0@@Z
_TEXT	SEGMENT
___first$ = 8						; size = 4
___last$ = 12						; size = 4
___formal$ = 16						; size = 4
??$__distance@PAD@_STL@@YAHABQAD0ABUrandom_access_iterator_tag@0@@Z PROC NEAR ; _STL::__distance<char *>, COMDAT

; 363  :   return __last - __first;

  00000	8b 44 24 08	 mov	 eax, DWORD PTR ___last$[esp-4]
  00004	8b 00		 mov	 eax, DWORD PTR [eax]
  00006	8b 4c 24 04	 mov	 ecx, DWORD PTR ___first$[esp-4]
  0000a	2b 01		 sub	 eax, DWORD PTR [ecx]

; 364  : }

  0000c	c3		 ret	 0
??$__distance@PAD@_STL@@YAHABQAD0ABUrandom_access_iterator_tag@0@@Z ENDP ; _STL::__distance<char *>
_TEXT	ENDS
PUBLIC	?_Ret@?$_BothPtrType@PADPAD@_STL@@SA?AU__true_type@2@XZ ; _STL::_BothPtrType<char *,char *>::_Ret
; Function compile flags: /Ogsy
; File c:\stlport-4.6.1\stlport\stl\type_traits.h
;	COMDAT ?_Ret@?$_BothPtrType@PADPAD@_STL@@SA?AU__true_type@2@XZ
_TEXT	SEGMENT
$T102959 = -1						; size = 1
?_Ret@?$_BothPtrType@PADPAD@_STL@@SA?AU__true_type@2@XZ PROC NEAR ; _STL::_BothPtrType<char *,char *>::_Ret, COMDAT

; 234  :   static __true_type _Ret() { return __true_type();} 

  00000	55		 push	 ebp
  00001	8b ec		 mov	 ebp, esp
  00003	51		 push	 ecx
  00004	57		 push	 edi
  00005	33 c0		 xor	 eax, eax
  00007	8d 7d ff	 lea	 edi, DWORD PTR $T102959[ebp]
  0000a	aa		 stosb
  0000b	8a 45 ff	 mov	 al, BYTE PTR $T102959[ebp]
  0000e	5f		 pop	 edi
  0000f	c9		 leave
  00010	c3		 ret	 0
?_Ret@?$_BothPtrType@PADPAD@_STL@@SA?AU__true_type@2@XZ ENDP ; _STL::_BothPtrType<char *,char *>::_Ret
_TEXT	ENDS
PUBLIC	?_Ret@?$_OKToMemCpy@DD@_STL@@SA?AU__true_type@2@XZ ; _STL::_OKToMemCpy<char,char>::_Ret
; Function compile flags: /Ogsy
;	COMDAT ?_Ret@?$_OKToMemCpy@DD@_STL@@SA?AU__true_type@2@XZ
_TEXT	SEGMENT
$T102962 = -1						; size = 1
?_Ret@?$_OKToMemCpy@DD@_STL@@SA?AU__true_type@2@XZ PROC NEAR ; _STL::_OKToMemCpy<char,char>::_Ret, COMDAT

; 361  :   static _Type _Ret() { return _Type(); }

  00000	55		 push	 ebp
  00001	8b ec		 mov	 ebp, esp
  00003	51		 push	 ecx
  00004	57		 push	 edi
  00005	33 c0		 xor	 eax, eax
  00007	8d 7d ff	 lea	 edi, DWORD PTR $T102962[ebp]
  0000a	aa		 stosb
  0000b	8a 45 ff	 mov	 al, BYTE PTR $T102962[ebp]
  0000e	5f		 pop	 edi
  0000f	c9		 leave
  00010	c3		 ret	 0
?_Ret@?$_OKToMemCpy@DD@_STL@@SA?AU__true_type@2@XZ ENDP	; _STL::_OKToMemCpy<char,char>::_Ret
_TEXT	ENDS
PUBLIC	??$_IsOKToMemCpy@DD@_STL@@YA?AU?$_OKToMemCpy@DD@0@PAD0@Z ; _STL::_IsOKToMemCpy<char,char>
; Function compile flags: /Ogsy
;	COMDAT ??$_IsOKToMemCpy@DD@_STL@@YA?AU?$_OKToMemCpy@DD@0@PAD0@Z
_TEXT	SEGMENT
$T102965 = -1						; size = 1
___formal$ = 8						; size = 4
___formal$ = 12						; size = 4
??$_IsOKToMemCpy@DD@_STL@@YA?AU?$_OKToMemCpy@DD@0@PAD0@Z PROC NEAR ; _STL::_IsOKToMemCpy<char,char>, COMDAT

; 365  : inline _OKToMemCpy<_Tp1, _Tp2> _IsOKToMemCpy(_Tp1*, _Tp2*)  {

  00000	55		 push	 ebp
  00001	8b ec		 mov	 ebp, esp
  00003	51		 push	 ecx
  00004	57		 push	 edi

; 366  :   return _OKToMemCpy<_Tp1, _Tp2>();

  00005	33 c0		 xor	 eax, eax
  00007	8d 7d ff	 lea	 edi, DWORD PTR $T102965[ebp]
  0000a	aa		 stosb
  0000b	8a 45 ff	 mov	 al, BYTE PTR $T102965[ebp]
  0000e	5f		 pop	 edi

; 367  : }

  0000f	c9		 leave
  00010	c3		 ret	 0
??$_IsOKToMemCpy@DD@_STL@@YA?AU?$_OKToMemCpy@DD@0@PAD0@Z ENDP ; _STL::_IsOKToMemCpy<char,char>
_TEXT	ENDS
PUBLIC	??$__copy_ptrs@PADPAD@_STL@@YAPADPAD00ABU__true_type@0@@Z ; _STL::__copy_ptrs<char *,char *>
; Function compile flags: /Ogsy
; File c:\stlport-4.6.1\stlport\stl\_algobase.h
;	COMDAT ??$__copy_ptrs@PADPAD@_STL@@YAPADPAD00ABU__true_type@0@@Z
_TEXT	SEGMENT
___first$ = 8						; size = 4
___last$ = 12						; size = 4
___result$ = 16						; size = 4
___formal$ = 20						; size = 4
??$__copy_ptrs@PADPAD@_STL@@YAPADPAD00ABU__true_type@0@@Z PROC NEAR ; _STL::__copy_ptrs<char *,char *>, COMDAT

; 195  : // we know they all pointers, so this cast is OK 
; 196  :   //  return (_OutputIter)__copy_trivial(&(*__first), &(*__last), &(*__result));
; 197  :   return (_OutputIter)__copy_trivial(__first, __last, __result);

  00000	ff 74 24 0c	 push	 DWORD PTR ___result$[esp-4]
  00004	ff 74 24 0c	 push	 DWORD PTR ___last$[esp]
  00008	ff 74 24 0c	 push	 DWORD PTR ___first$[esp+4]
  0000c	e8 00 00 00 00	 call	 ?__copy_trivial@_STL@@YAPAXPBX0PAX@Z ; _STL::__copy_trivial
  00011	83 c4 0c	 add	 esp, 12			; 0000000cH

; 198  : }

  00014	c3		 ret	 0
??$__copy_ptrs@PADPAD@_STL@@YAPADPAD00ABU__true_type@0@@Z ENDP ; _STL::__copy_ptrs<char *,char *>
_TEXT	ENDS
PUBLIC	??0_List_iterator_base@_STL@@QAE@PAU_List_node_base@1@@Z ; _STL::_List_iterator_base::_List_iterator_base
; Function compile flags: /Ogsy
; File c:\stlport-4.6.1\stlport\stl\_list.h
;	COMDAT ??0_List_iterator_base@_STL@@QAE@PAU_List_node_base@1@@Z
_TEXT	SEGMENT
___x$ = 8						; size = 4
??0_List_iterator_base@_STL@@QAE@PAU_List_node_base@1@@Z PROC NEAR ; _STL::_List_iterator_base::_List_iterator_base, COMDAT
; _this$ = ecx

; 95   :   _List_iterator_base(_List_node_base* __x) : _M_node(__x) {}

  00000	8b c1		 mov	 eax, ecx
  00002	8b 4c 24 04	 mov	 ecx, DWORD PTR ___x$[esp-4]
  00006	89 08		 mov	 DWORD PTR [eax], ecx
  00008	c2 04 00	 ret	 4
??0_List_iterator_base@_STL@@QAE@PAU_List_node_base@1@@Z ENDP ; _STL::_List_iterator_base::_List_iterator_base
_TEXT	ENDS
PUBLIC	?_M_incr@_List_iterator_base@_STL@@QAEXXZ	; _STL::_List_iterator_base::_M_incr
; Function compile flags: /Ogsy
;	COMDAT ?_M_incr@_List_iterator_base@_STL@@QAEXXZ
_TEXT	SEGMENT
?_M_incr@_List_iterator_base@_STL@@QAEXXZ PROC NEAR	; _STL::_List_iterator_base::_M_incr, COMDAT
; _this$ = ecx

; 98   :   void _M_incr() { _M_node = _M_node->_M_next; }

  00000	8b 01		 mov	 eax, DWORD PTR [ecx]
  00002	8b 00		 mov	 eax, DWORD PTR [eax]
  00004	89 01		 mov	 DWORD PTR [ecx], eax
  00006	c3		 ret	 0
?_M_incr@_List_iterator_base@_STL@@QAEXXZ ENDP		; _STL::_List_iterator_base::_M_incr
_TEXT	ENDS
PUBLIC	??9_List_iterator_base@_STL@@QBE_NABU01@@Z	; _STL::_List_iterator_base::operator!=
; Function compile flags: /Ogsy
;	COMDAT ??9_List_iterator_base@_STL@@QBE_NABU01@@Z
_TEXT	SEGMENT
___y$ = 8						; size = 4
??9_List_iterator_base@_STL@@QBE_NABU01@@Z PROC NEAR	; _STL::_List_iterator_base::operator!=, COMDAT
; _this$ = ecx

; 104  :     return _M_node != __y._M_node; 

  00000	8b 01		 mov	 eax, DWORD PTR [ecx]
  00002	8b 54 24 04	 mov	 edx, DWORD PTR ___y$[esp-4]
  00006	33 c9		 xor	 ecx, ecx
  00008	3b 02		 cmp	 eax, DWORD PTR [edx]
  0000a	0f 95 c1	 setne	 cl
  0000d	8a c1		 mov	 al, cl

; 105  :   }

  0000f	c2 04 00	 ret	 4
??9_List_iterator_base@_STL@@QBE_NABU01@@Z ENDP		; _STL::_List_iterator_base::operator!=
_TEXT	ENDS
PUBLIC	??0?$allocator@D@_STL@@QAE@XZ			; _STL::allocator<char>::allocator<char>
; Function compile flags: /Ogsy
; File c:\stlport-4.6.1\stlport\stl\_alloc.h
;	COMDAT ??0?$allocator@D@_STL@@QAE@XZ
_TEXT	SEGMENT
??0?$allocator@D@_STL@@QAE@XZ PROC NEAR			; _STL::allocator<char>::allocator<char>, COMDAT
; _this$ = ecx

; 345  :   allocator() _STLP_NOTHROW {}

  00000	8b c1		 mov	 eax, ecx
  00002	c3		 ret	 0
??0?$allocator@D@_STL@@QAE@XZ ENDP			; _STL::allocator<char>::allocator<char>
_TEXT	ENDS
PUBLIC	??1?$allocator@D@_STL@@QAE@XZ			; _STL::allocator<char>::~allocator<char>
; Function compile flags: /Ogsy
;	COMDAT ??1?$allocator@D@_STL@@QAE@XZ
_TEXT	SEGMENT
??1?$allocator@D@_STL@@QAE@XZ PROC NEAR			; _STL::allocator<char>::~allocator<char>, COMDAT
; _this$ = ecx

; 350  :   ~allocator() _STLP_NOTHROW {}

  00000	c3		 ret	 0
??1?$allocator@D@_STL@@QAE@XZ ENDP			; _STL::allocator<char>::~allocator<char>
_TEXT	ENDS
PUBLIC	??0?$allocator@V?$basic_string@DV?$char_traits@D@_STL@@V?$allocator@D@2@@_STL@@@_STL@@QAE@XZ ; _STL::allocator<_STL::basic_string<char,_STL::char_traits<char>,_STL::allocator<char> > >::allocator<_STL::basic_string<char,_STL::char_traits<char>,_STL::allocator<char> > >
; Function compile flags: /Ogsy
;	COMDAT ??0?$allocator@V?$basic_string@DV?$char_traits@D@_STL@@V?$allocator@D@2@@_STL@@@_STL@@QAE@XZ
_TEXT	SEGMENT
??0?$allocator@V?$basic_string@DV?$char_traits@D@_STL@@V?$allocator@D@2@@_STL@@@_STL@@QAE@XZ PROC NEAR ; _STL::allocator<_STL::basic_string<char,_STL::char_traits<char>,_STL::allocator<char> > >::allocator<_STL::basic_string<char,_STL::char_traits<char>,_STL::allocator<char> > >, COMDAT
; _this$ = ecx

; 345  :   allocator() _STLP_NOTHROW {}

  00000	8b c1		 mov	 eax, ecx
  00002	c3		 ret	 0
??0?$allocator@V?$basic_string@DV?$char_traits@D@_STL@@V?$allocator@D@2@@_STL@@@_STL@@QAE@XZ ENDP ; _STL::allocator<_STL::basic_string<char,_STL::char_traits<char>,_STL::allocator<char> > >::allocator<_STL::basic_string<char,_STL::char_traits<char>,_STL::allocator<char> > >
_TEXT	ENDS
PUBLIC	??1?$allocator@V?$basic_string@DV?$char_traits@D@_STL@@V?$allocator@D@2@@_STL@@@_STL@@QAE@XZ ; _STL::allocator<_STL::basic_string<char,_STL::char_traits<char>,_STL::allocator<char> > >::~allocator<_STL::basic_string<char,_STL::char_traits<char>,_STL::allocator<char> > >
; Function compile flags: /Ogsy
;	COMDAT ??1?$allocator@V?$basic_string@DV?$char_traits@D@_STL@@V?$allocator@D@2@@_STL@@@_STL@@QAE@XZ
_TEXT	SEGMENT
??1?$allocator@V?$basic_string@DV?$char_traits@D@_STL@@V?$allocator@D@2@@_STL@@@_STL@@QAE@XZ PROC NEAR ; _STL::allocator<_STL::basic_string<char,_STL::char_traits<char>,_STL::allocator<char> > >::~allocator<_STL::basic_string<char,_STL::char_traits<char>,_STL::allocator<char> > >, COMDAT
; _this$ = ecx

; 350  :   ~allocator() _STLP_NOTHROW {}

  00000	c3		 ret	 0
??1?$allocator@V?$basic_string@DV?$char_traits@D@_STL@@V?$allocator@D@2@@_STL@@@_STL@@QAE@XZ ENDP ; _STL::allocator<_STL::basic_string<char,_STL::char_traits<char>,_STL::allocator<char> > >::~allocator<_STL::basic_string<char,_STL::char_traits<char>,_STL::allocator<char> > >
_TEXT	ENDS
PUBLIC	??D?$_List_iterator@V?$basic_string@DV?$char_traits@D@_STL@@V?$allocator@D@2@@_STL@@U?$_Const_traits@V?$basic_string@DV?$char_traits@D@_STL@@V?$allocator@D@2@@_STL@@@2@@_STL@@QBEABV?$basic_string@DV?$char_traits@D@_STL@@V?$allocator@D@2@@1@XZ ; _STL::_List_iterator<_STL::basic_string<char,_STL::char_traits<char>,_STL::allocator<char> >,_STL::_Const_traits<_STL::basic_string<char,_STL::char_traits<char>,_STL::allocator<char> > > >::operator*
; Function compile flags: /Ogsy
; File c:\stlport-4.6.1\stlport\stl\_list.h
;	COMDAT ??D?$_List_iterator@V?$basic_string@DV?$char_traits@D@_STL@@V?$allocator@D@2@@_STL@@U?$_Const_traits@V?$basic_string@DV?$char_traits@D@_STL@@V?$allocator@D@2@@_STL@@@2@@_STL@@QBEABV?$basic_string@DV?$char_traits@D@_STL@@V?$allocator@D@2@@1@XZ
_TEXT	SEGMENT
??D?$_List_iterator@V?$basic_string@DV?$char_traits@D@_STL@@V?$allocator@D@2@@_STL@@U?$_Const_traits@V?$basic_string@DV?$char_traits@D@_STL@@V?$allocator@D@2@@_STL@@@2@@_STL@@QBEABV?$basic_string@DV?$char_traits@D@_STL@@V?$allocator@D@2@@1@XZ PROC NEAR ; _STL::_List_iterator<_STL::basic_string<char,_STL::char_traits<char>,_STL::allocator<char> >,_STL::_Const_traits<_STL::basic_string<char,_STL::char_traits<char>,_STL::allocator<char> > > >::operator*, COMDAT
; _this$ = ecx

; 130  :   reference operator*() const { return ((_Node*)_M_node)->_M_data; }

  00000	8b 01		 mov	 eax, DWORD PTR [ecx]
  00002	83 c0 08	 add	 eax, 8
  00005	c3		 ret	 0
??D?$_List_iterator@V?$basic_string@DV?$char_traits@D@_STL@@V?$allocator@D@2@@_STL@@U?$_Const_traits@V?$basic_string@DV?$char_traits@D@_STL@@V?$allocator@D@2@@_STL@@@2@@_STL@@QBEABV?$basic_string@DV?$char_traits@D@_STL@@V?$allocator@D@2@@1@XZ ENDP ; _STL::_List_iterator<_STL::basic_string<char,_STL::char_traits<char>,_STL::allocator<char> >,_STL::_Const_traits<_STL::basic_string<char,_STL::char_traits<char>,_STL::allocator<char> > > >::operator*
_TEXT	ENDS
PUBLIC	??0?$_List_iterator@V?$basic_string@DV?$char_traits@D@_STL@@V?$allocator@D@2@@_STL@@U?$_Const_traits@V?$basic_string@DV?$char_traits@D@_STL@@V?$allocator@D@2@@_STL@@@2@@_STL@@QAE@PAU?$_List_node@V?$basic_string@DV?$char_traits@D@_STL@@V?$allocator@D@2@@_STL@@@1@@Z ; _STL::_List_iterator<_STL::basic_string<char,_STL::char_traits<char>,_STL::allocator<char> >,_STL::_Const_traits<_STL::basic_string<char,_STL::char_traits<char>,_STL::allocator<char> > > >::_List_iterator<_STL::basic_string<char,_STL::char_traits<char>,_STL::allocator<char> >,_STL::_Const_traits<_STL::basic_string<char,_STL::char_traits<char>,_STL::allocator<char> > > >
; Function compile flags: /Ogsy
;	COMDAT ??0?$_List_iterator@V?$basic_string@DV?$char_traits@D@_STL@@V?$allocator@D@2@@_STL@@U?$_Const_traits@V?$basic_string@DV?$char_traits@D@_STL@@V?$allocator@D@2@@_STL@@@2@@_STL@@QAE@PAU?$_List_node@V?$basic_string@DV?$char_traits@D@_STL@@V?$allocator@D@2@@_STL@@@1@@Z
_TEXT	SEGMENT
___x$ = 8						; size = 4
??0?$_List_iterator@V?$basic_string@DV?$char_traits@D@_STL@@V?$allocator@D@2@@_STL@@U?$_Const_traits@V?$basic_string@DV?$char_traits@D@_STL@@V?$allocator@D@2@@_STL@@@2@@_STL@@QAE@PAU?$_List_node@V?$basic_string@DV?$char_traits@D@_STL@@V?$allocator@D@2@@_STL@@@1@@Z PROC NEAR ; _STL::_List_iterator<_STL::basic_string<char,_STL::char_traits<char>,_STL::allocator<char> >,_STL::_Const_traits<_STL::basic_string<char,_STL::char_traits<char>,_STL::allocator<char> > > >::_List_iterator<_STL::basic_string<char,_STL::char_traits<char>,_STL::allocator<char> >,_STL::_Const_traits<_STL::basic_string<char,_STL::char_traits<char>,_STL::allocator<char> > > >, COMDAT
; _this$ = ecx

; 126  :   _List_iterator(_Node* __x) : _List_iterator_base(__x) {}

  00000	8b c1		 mov	 eax, ecx
  00002	8b 4c 24 04	 mov	 ecx, DWORD PTR ___x$[esp-4]
  00006	89 08		 mov	 DWORD PTR [eax], ecx
  00008	c2 04 00	 ret	 4
??0?$_List_iterator@V?$basic_string@DV?$char_traits@D@_STL@@V?$allocator@D@2@@_STL@@U?$_Const_traits@V?$basic_string@DV?$char_traits@D@_STL@@V?$allocator@D@2@@_STL@@@2@@_STL@@QAE@PAU?$_List_node@V?$basic_string@DV?$char_traits@D@_STL@@V?$allocator@D@2@@_STL@@@1@@Z ENDP ; _STL::_List_iterator<_STL::basic_string<char,_STL::char_traits<char>,_STL::allocator<char> >,_STL::_Const_traits<_STL::basic_string<char,_STL::char_traits<char>,_STL::allocator<char> > > >::_List_iterator<_STL::basic_string<char,_STL::char_traits<char>,_STL::allocator<char> >,_STL::_Const_traits<_STL::basic_string<char,_STL::char_traits<char>,_STL::allocator<char> > > >
_TEXT	ENDS
PUBLIC	??1?$_STLP_alloc_proxy@PADDV?$allocator@D@_STL@@@_STL@@QAE@XZ ; _STL::_STLP_alloc_proxy<char *,char,_STL::allocator<char> >::~_STLP_alloc_proxy<char *,char,_STL::allocator<char> >
; Function compile flags: /Ogsy
;	COMDAT ??1?$_STLP_alloc_proxy@PADDV?$allocator@D@_STL@@@_STL@@QAE@XZ
_TEXT	SEGMENT
??1?$_STLP_alloc_proxy@PADDV?$allocator@D@_STL@@@_STL@@QAE@XZ PROC NEAR ; _STL::_STLP_alloc_proxy<char *,char,_STL::allocator<char> >::~_STLP_alloc_proxy<char *,char,_STL::allocator<char> >, COMDAT
; _this$ = ecx
  00000	c3		 ret	 0
??1?$_STLP_alloc_proxy@PADDV?$allocator@D@_STL@@@_STL@@QAE@XZ ENDP ; _STL::_STLP_alloc_proxy<char *,char,_STL::allocator<char> >::~_STLP_alloc_proxy<char *,char,_STL::allocator<char> >
_TEXT	ENDS
PUBLIC	??1?$allocator@G@_STL@@QAE@XZ			; _STL::allocator<unsigned short>::~allocator<unsigned short>
; Function compile flags: /Ogsy
; File c:\stlport-4.6.1\stlport\stl\_alloc.h
;	COMDAT ??1?$allocator@G@_STL@@QAE@XZ
_TEXT	SEGMENT
??1?$allocator@G@_STL@@QAE@XZ PROC NEAR			; _STL::allocator<unsigned short>::~allocator<unsigned short>, COMDAT
; _this$ = ecx

; 350  :   ~allocator() _STLP_NOTHROW {}

  00000	c3		 ret	 0
??1?$allocator@G@_STL@@QAE@XZ ENDP			; _STL::allocator<unsigned short>::~allocator<unsigned short>
_TEXT	ENDS
PUBLIC	??1?$allocator@U?$_List_node@V?$basic_string@DV?$char_traits@D@_STL@@V?$allocator@D@2@@_STL@@@_STL@@@_STL@@QAE@XZ ; _STL::allocator<_STL::_List_node<_STL::basic_string<char,_STL::char_traits<char>,_STL::allocator<char> > > >::~allocator<_STL::_List_node<_STL::basic_string<char,_STL::char_traits<char>,_STL::allocator<char> > > >
; Function compile flags: /Ogsy
;	COMDAT ??1?$allocator@U?$_List_node@V?$basic_string@DV?$char_traits@D@_STL@@V?$allocator@D@2@@_STL@@@_STL@@@_STL@@QAE@XZ
_TEXT	SEGMENT
??1?$allocator@U?$_List_node@V?$basic_string@DV?$char_traits@D@_STL@@V?$allocator@D@2@@_STL@@@_STL@@@_STL@@QAE@XZ PROC NEAR ; _STL::allocator<_STL::_List_node<_STL::basic_string<char,_STL::char_traits<char>,_STL::allocator<char> > > >::~allocator<_STL::_List_node<_STL::basic_string<char,_STL::char_traits<char>,_STL::allocator<char> > > >, COMDAT
; _this$ = ecx

; 350  :   ~allocator() _STLP_NOTHROW {}

  00000	c3		 ret	 0
??1?$allocator@U?$_List_node@V?$basic_string@DV?$char_traits@D@_STL@@V?$allocator@D@2@@_STL@@@_STL@@@_STL@@QAE@XZ ENDP ; _STL::allocator<_STL::_List_node<_STL::basic_string<char,_STL::char_traits<char>,_STL::allocator<char> > > >::~allocator<_STL::_List_node<_STL::basic_string<char,_STL::char_traits<char>,_STL::allocator<char> > > >
_TEXT	ENDS
PUBLIC	??0?$_List_iterator@V?$basic_string@DV?$char_traits@D@_STL@@V?$allocator@D@2@@_STL@@U?$_Nonconst_traits@V?$basic_string@DV?$char_traits@D@_STL@@V?$allocator@D@2@@_STL@@@2@@_STL@@QAE@PAU?$_List_node@V?$basic_string@DV?$char_traits@D@_STL@@V?$allocator@D@2@@_STL@@@1@@Z ; _STL::_List_iterator<_STL::basic_string<char,_STL::char_traits<char>,_STL::allocator<char> >,_STL::_Nonconst_traits<_STL::basic_string<char,_STL::char_traits<char>,_STL::allocator<char> > > >::_List_iterator<_STL::basic_string<char,_STL::char_traits<char>,_STL::allocator<char> >,_STL::_Nonconst_traits<_STL::basic_string<char,_STL::char_traits<char>,_STL::allocator<char> > > >
; Function compile flags: /Ogsy
; File c:\stlport-4.6.1\stlport\stl\_list.h
;	COMDAT ??0?$_List_iterator@V?$basic_string@DV?$char_traits@D@_STL@@V?$allocator@D@2@@_STL@@U?$_Nonconst_traits@V?$basic_string@DV?$char_traits@D@_STL@@V?$allocator@D@2@@_STL@@@2@@_STL@@QAE@PAU?$_List_node@V?$basic_string@DV?$char_traits@D@_STL@@V?$allocator@D@2@@_STL@@@1@@Z
_TEXT	SEGMENT
___x$ = 8						; size = 4
??0?$_List_iterator@V?$basic_string@DV?$char_traits@D@_STL@@V?$allocator@D@2@@_STL@@U?$_Nonconst_traits@V?$basic_string@DV?$char_traits@D@_STL@@V?$allocator@D@2@@_STL@@@2@@_STL@@QAE@PAU?$_List_node@V?$basic_string@DV?$char_traits@D@_STL@@V?$allocator@D@2@@_STL@@@1@@Z PROC NEAR ; _STL::_List_iterator<_STL::basic_string<char,_STL::char_traits<char>,_STL::allocator<char> >,_STL::_Nonconst_traits<_STL::basic_string<char,_STL::char_traits<char>,_STL::allocator<char> > > >::_List_iterator<_STL::basic_string<char,_STL::char_traits<char>,_STL::allocator<char> >,_STL::_Nonconst_traits<_STL::basic_string<char,_STL::char_traits<char>,_STL::allocator<char> > > >, COMDAT
; _this$ = ecx

; 126  :   _List_iterator(_Node* __x) : _List_iterator_base(__x) {}

  00000	8b c1		 mov	 eax, ecx
  00002	8b 4c 24 04	 mov	 ecx, DWORD PTR ___x$[esp-4]
  00006	89 08		 mov	 DWORD PTR [eax], ecx
  00008	c2 04 00	 ret	 4
??0?$_List_iterator@V?$basic_string@DV?$char_traits@D@_STL@@V?$allocator@D@2@@_STL@@U?$_Nonconst_traits@V?$basic_string@DV?$char_traits@D@_STL@@V?$allocator@D@2@@_STL@@@2@@_STL@@QAE@PAU?$_List_node@V?$basic_string@DV?$char_traits@D@_STL@@V?$allocator@D@2@@_STL@@@1@@Z ENDP ; _STL::_List_iterator<_STL::basic_string<char,_STL::char_traits<char>,_STL::allocator<char> >,_STL::_Nonconst_traits<_STL::basic_string<char,_STL::char_traits<char>,_STL::allocator<char> > > >::_List_iterator<_STL::basic_string<char,_STL::char_traits<char>,_STL::allocator<char> >,_STL::_Nonconst_traits<_STL::basic_string<char,_STL::char_traits<char>,_STL::allocator<char> > > >
_TEXT	ENDS
PUBLIC	??0?$allocator@U?$_List_node@V?$basic_string@DV?$char_traits@D@_STL@@V?$allocator@D@2@@_STL@@@_STL@@@_STL@@QAE@ABV01@@Z ; _STL::allocator<_STL::_List_node<_STL::basic_string<char,_STL::char_traits<char>,_STL::allocator<char> > > >::allocator<_STL::_List_node<_STL::basic_string<char,_STL::char_traits<char>,_STL::allocator<char> > > >
; Function compile flags: /Ogsy
; File c:\stlport-4.6.1\stlport\stl\_alloc.h
;	COMDAT ??0?$allocator@U?$_List_node@V?$basic_string@DV?$char_traits@D@_STL@@V?$allocator@D@2@@_STL@@@_STL@@@_STL@@QAE@ABV01@@Z
_TEXT	SEGMENT
___formal$ = 8						; size = 4
??0?$allocator@U?$_List_node@V?$basic_string@DV?$char_traits@D@_STL@@V?$allocator@D@2@@_STL@@@_STL@@@_STL@@QAE@ABV01@@Z PROC NEAR ; _STL::allocator<_STL::_List_node<_STL::basic_string<char,_STL::char_traits<char>,_STL::allocator<char> > > >::allocator<_STL::_List_node<_STL::basic_string<char,_STL::char_traits<char>,_STL::allocator<char> > > >, COMDAT
; _this$ = ecx

; 349  :   allocator(const allocator<_Tp>&) _STLP_NOTHROW {}

  00000	8b c1		 mov	 eax, ecx
  00002	c2 04 00	 ret	 4
??0?$allocator@U?$_List_node@V?$basic_string@DV?$char_traits@D@_STL@@V?$allocator@D@2@@_STL@@@_STL@@@_STL@@QAE@ABV01@@Z ENDP ; _STL::allocator<_STL::_List_node<_STL::basic_string<char,_STL::char_traits<char>,_STL::allocator<char> > > >::allocator<_STL::_List_node<_STL::basic_string<char,_STL::char_traits<char>,_STL::allocator<char> > > >
_TEXT	ENDS
PUBLIC	?allocate@?$__node_alloc@$00$0A@@_STL@@SAPAXI@Z	; _STL::__node_alloc<1,0>::allocate
EXTRN	?_M_allocate@?$__node_alloc@$00$0A@@_STL@@CAPAXI@Z:NEAR ; _STL::__node_alloc<1,0>::_M_allocate
; Function compile flags: /Ogsy
;	COMDAT ?allocate@?$__node_alloc@$00$0A@@_STL@@SAPAXI@Z
_TEXT	SEGMENT
___n$ = 8						; size = 4
?allocate@?$__node_alloc@$00$0A@@_STL@@SAPAXI@Z PROC NEAR ; _STL::__node_alloc<1,0>::allocate, COMDAT

; 251  :   static void * _STLP_CALL allocate(size_t __n) { return (__n > (size_t)_MAX_BYTES) ?  __stl_new(__n) : _M_allocate(__n); }

  00000	8b 44 24 04	 mov	 eax, DWORD PTR ___n$[esp-4]
  00004	3d 80 00 00 00	 cmp	 eax, 128		; 00000080H
  00009	50		 push	 eax
  0000a	76 07		 jbe	 SHORT $L103022
  0000c	e8 00 00 00 00	 call	 ??2@YAPAXI@Z		; operator new
  00011	59		 pop	 ecx
  00012	c3		 ret	 0
$L103022:
  00013	e8 00 00 00 00	 call	 ?_M_allocate@?$__node_alloc@$00$0A@@_STL@@CAPAXI@Z ; _STL::__node_alloc<1,0>::_M_allocate
  00018	59		 pop	 ecx
  00019	c3		 ret	 0
?allocate@?$__node_alloc@$00$0A@@_STL@@SAPAXI@Z ENDP	; _STL::__node_alloc<1,0>::allocate
_TEXT	ENDS
PUBLIC	?deallocate@?$__node_alloc@$00$0A@@_STL@@SAXPAXI@Z ; _STL::__node_alloc<1,0>::deallocate
EXTRN	?_M_deallocate@?$__node_alloc@$00$0A@@_STL@@CAXPAXI@Z:NEAR ; _STL::__node_alloc<1,0>::_M_deallocate
; Function compile flags: /Ogsy
;	COMDAT ?deallocate@?$__node_alloc@$00$0A@@_STL@@SAXPAXI@Z
_TEXT	SEGMENT
___p$ = 8						; size = 4
___n$ = 12						; size = 4
?deallocate@?$__node_alloc@$00$0A@@_STL@@SAXPAXI@Z PROC NEAR ; _STL::__node_alloc<1,0>::deallocate, COMDAT

; 253  :   static void _STLP_CALL deallocate(void *__p, size_t __n) { if (__n > (size_t)_MAX_BYTES) __stl_delete(__p); else _M_deallocate(__p, __n); }

  00000	81 7c 24 08 80
	00 00 00	 cmp	 DWORD PTR ___n$[esp-4], 128 ; 00000080H
  00008	76 0b		 jbe	 SHORT $L98677
  0000a	ff 74 24 04	 push	 DWORD PTR ___p$[esp-4]
  0000e	e8 00 00 00 00	 call	 ??3@YAXPAX@Z		; operator delete
  00013	59		 pop	 ecx
  00014	c3		 ret	 0
$L98677:
  00015	e9 00 00 00 00	 jmp	 ?_M_deallocate@?$__node_alloc@$00$0A@@_STL@@CAXPAXI@Z ; _STL::__node_alloc<1,0>::_M_deallocate
?deallocate@?$__node_alloc@$00$0A@@_STL@@SAXPAXI@Z ENDP	; _STL::__node_alloc<1,0>::deallocate
_TEXT	ENDS
PUBLIC	??$?0V?$basic_string@DV?$char_traits@D@_STL@@V?$allocator@D@2@@_STL@@@?$allocator@U?$_List_node@V?$basic_string@DV?$char_traits@D@_STL@@V?$allocator@D@2@@_STL@@@_STL@@@_STL@@QAE@ABV?$allocator@V?$basic_string@DV?$char_traits@D@_STL@@V?$allocator@D@2@@_STL@@@1@@Z ; _STL::allocator<_STL::_List_node<_STL::basic_string<char,_STL::char_traits<char>,_STL::allocator<char> > > >::allocator<_STL::_List_node<_STL::basic_string<char,_STL::char_traits<char>,_STL::allocator<char> > > ><_STL::basic_string<char,_STL::char_traits<char>,_STL::allocator<char> > >
; Function compile flags: /Ogsy
;	COMDAT ??$?0V?$basic_string@DV?$char_traits@D@_STL@@V?$allocator@D@2@@_STL@@@?$allocator@U?$_List_node@V?$basic_string@DV?$char_traits@D@_STL@@V?$allocator@D@2@@_STL@@@_STL@@@_STL@@QAE@ABV?$allocator@V?$basic_string@DV?$char_traits@D@_STL@@V?$allocator@D@2@@_STL@@@1@@Z
_TEXT	SEGMENT
___formal$ = 8						; size = 4
??$?0V?$basic_string@DV?$char_traits@D@_STL@@V?$allocator@D@2@@_STL@@@?$allocator@U?$_List_node@V?$basic_string@DV?$char_traits@D@_STL@@V?$allocator@D@2@@_STL@@@_STL@@@_STL@@QAE@ABV?$allocator@V?$basic_string@DV?$char_traits@D@_STL@@V?$allocator@D@2@@_STL@@@1@@Z PROC NEAR ; _STL::allocator<_STL::_List_node<_STL::basic_string<char,_STL::char_traits<char>,_STL::allocator<char> > > >::allocator<_STL::_List_node<_STL::basic_string<char,_STL::char_traits<char>,_STL::allocator<char> > > ><_STL::basic_string<char,_STL::char_traits<char>,_STL::allocator<char> > >, COMDAT
; _this$ = ecx

; 347  :   template <class _Tp1> allocator(const allocator<_Tp1>&) _STLP_NOTHROW {}

  00000	8b c1		 mov	 eax, ecx
  00002	c2 04 00	 ret	 4
??$?0V?$basic_string@DV?$char_traits@D@_STL@@V?$allocator@D@2@@_STL@@@?$allocator@U?$_List_node@V?$basic_string@DV?$char_traits@D@_STL@@V?$allocator@D@2@@_STL@@@_STL@@@_STL@@QAE@ABV?$allocator@V?$basic_string@DV?$char_traits@D@_STL@@V?$allocator@D@2@@_STL@@@1@@Z ENDP ; _STL::allocator<_STL::_List_node<_STL::basic_string<char,_STL::char_traits<char>,_STL::allocator<char> > > >::allocator<_STL::_List_node<_STL::basic_string<char,_STL::char_traits<char>,_STL::allocator<char> > > ><_STL::basic_string<char,_STL::char_traits<char>,_STL::allocator<char> > >
_TEXT	ENDS
PUBLIC	?get_allocator@?$basic_string@DV?$char_traits@D@_STL@@V?$allocator@D@2@@_STL@@QBE?AV?$allocator@D@2@XZ ; _STL::basic_string<char,_STL::char_traits<char>,_STL::allocator<char> >::get_allocator
; Function compile flags: /Ogsy
; File c:\stlport-4.6.1\stlport\stl\_string.h
;	COMDAT ?get_allocator@?$basic_string@DV?$char_traits@D@_STL@@V?$allocator@D@2@@_STL@@QBE?AV?$allocator@D@2@XZ
_TEXT	SEGMENT
___$ReturnUdt$ = 8					; size = 4
?get_allocator@?$basic_string@DV?$char_traits@D@_STL@@V?$allocator@D@2@@_STL@@QBE?AV?$allocator@D@2@XZ PROC NEAR ; _STL::basic_string<char,_STL::char_traits<char>,_STL::allocator<char> >::get_allocator, COMDAT
; _this$ = ecx

; 216  :     return _STLP_CONVERT_ALLOCATOR((const allocator_type&)this->_M_end_of_storage, _CharT);

  00000	8b 44 24 04	 mov	 eax, DWORD PTR ___$ReturnUdt$[esp-4]

; 217  :   }

  00004	c2 04 00	 ret	 4
?get_allocator@?$basic_string@DV?$char_traits@D@_STL@@V?$allocator@D@2@@_STL@@QBE?AV?$allocator@D@2@XZ ENDP ; _STL::basic_string<char,_STL::char_traits<char>,_STL::allocator<char> >::get_allocator
_TEXT	ENDS
PUBLIC	?_M_terminate_string@?$basic_string@DV?$char_traits@D@_STL@@V?$allocator@D@2@@_STL@@AAEXXZ ; _STL::basic_string<char,_STL::char_traits<char>,_STL::allocator<char> >::_M_terminate_string
; Function compile flags: /Ogsy
;	COMDAT ?_M_terminate_string@?$basic_string@DV?$char_traits@D@_STL@@V?$allocator@D@2@@_STL@@AAEXXZ
_TEXT	SEGMENT
?_M_terminate_string@?$basic_string@DV?$char_traits@D@_STL@@V?$allocator@D@2@@_STL@@AAEXXZ PROC NEAR ; _STL::basic_string<char,_STL::char_traits<char>,_STL::allocator<char> >::_M_terminate_string, COMDAT
; _this$ = ecx

; 355  :     _M_terminate_string_aux(_Char_Is_Integral());

  00000	8b 41 04	 mov	 eax, DWORD PTR [ecx+4]
  00003	c6 00 00	 mov	 BYTE PTR [eax], 0

; 356  :   }

  00006	c3		 ret	 0
?_M_terminate_string@?$basic_string@DV?$char_traits@D@_STL@@V?$allocator@D@2@@_STL@@AAEXXZ ENDP ; _STL::basic_string<char,_STL::char_traits<char>,_STL::allocator<char> >::_M_terminate_string
_TEXT	ENDS
PUBLIC	?allocate@?$allocator@D@_STL@@QAEPADIPBX@Z	; _STL::allocator<char>::allocate
; Function compile flags: /Ogsy
; File c:\stlport-4.6.1\stlport\stl\_alloc.h
;	COMDAT ?allocate@?$allocator@D@_STL@@QAEPADIPBX@Z
_TEXT	SEGMENT
___n$ = 8						; size = 4
___formal$ = 12						; size = 4
?allocate@?$allocator@D@_STL@@QAEPADIPBX@Z PROC NEAR	; _STL::allocator<char>::allocate, COMDAT
; _this$ = ecx

; 355  :     return __n != 0 ? __REINTERPRET_CAST(value_type*,__sgi_alloc::allocate(__n * sizeof(value_type))) : 0;

  00000	33 c0		 xor	 eax, eax
  00002	39 44 24 04	 cmp	 DWORD PTR ___n$[esp-4], eax
  00006	74 0a		 je	 SHORT $L103051
  00008	ff 74 24 04	 push	 DWORD PTR ___n$[esp-4]
  0000c	e8 00 00 00 00	 call	 ?allocate@?$__node_alloc@$00$0A@@_STL@@SAPAXI@Z ; _STL::__node_alloc<1,0>::allocate
  00011	59		 pop	 ecx
$L103051:

; 356  :   }

  00012	c2 08 00	 ret	 8
?allocate@?$allocator@D@_STL@@QAEPADIPBX@Z ENDP		; _STL::allocator<char>::allocate
_TEXT	ENDS
PUBLIC	??0?$_List_iterator@GU?$_Const_traits@G@_STL@@@_STL@@QAE@ABU?$_List_iterator@GU?$_Nonconst_traits@G@_STL@@@1@@Z ; _STL::_List_iterator<unsigned short,_STL::_Const_traits<unsigned short> >::_List_iterator<unsigned short,_STL::_Const_traits<unsigned short> >
; Function compile flags: /Ogsy
; File c:\stlport-4.6.1\stlport\stl\_list.h
;	COMDAT ??0?$_List_iterator@GU?$_Const_traits@G@_STL@@@_STL@@QAE@ABU?$_List_iterator@GU?$_Nonconst_traits@G@_STL@@@1@@Z
_TEXT	SEGMENT
___x$ = 8						; size = 4
??0?$_List_iterator@GU?$_Const_traits@G@_STL@@@_STL@@QAE@ABU?$_List_iterator@GU?$_Nonconst_traits@G@_STL@@@1@@Z PROC NEAR ; _STL::_List_iterator<unsigned short,_STL::_Const_traits<unsigned short> >::_List_iterator<unsigned short,_STL::_Const_traits<unsigned short> >, COMDAT
; _this$ = ecx

; 128  :   _List_iterator(const iterator& __x) :  _List_iterator_base(__x._M_node) {}

  00000	8b c1		 mov	 eax, ecx
  00002	8b 4c 24 04	 mov	 ecx, DWORD PTR ___x$[esp-4]
  00006	8b 09		 mov	 ecx, DWORD PTR [ecx]
  00008	89 08		 mov	 DWORD PTR [eax], ecx
  0000a	c2 04 00	 ret	 4
??0?$_List_iterator@GU?$_Const_traits@G@_STL@@@_STL@@QAE@ABU?$_List_iterator@GU?$_Nonconst_traits@G@_STL@@@1@@Z ENDP ; _STL::_List_iterator<unsigned short,_STL::_Const_traits<unsigned short> >::_List_iterator<unsigned short,_STL::_Const_traits<unsigned short> >
_TEXT	ENDS
PUBLIC	??E?$_List_iterator@GU?$_Const_traits@G@_STL@@@_STL@@QAEAAU01@XZ ; _STL::_List_iterator<unsigned short,_STL::_Const_traits<unsigned short> >::operator++
; Function compile flags: /Ogsy
;	COMDAT ??E?$_List_iterator@GU?$_Const_traits@G@_STL@@@_STL@@QAEAAU01@XZ
_TEXT	SEGMENT
??E?$_List_iterator@GU?$_Const_traits@G@_STL@@@_STL@@QAEAAU01@XZ PROC NEAR ; _STL::_List_iterator<unsigned short,_STL::_Const_traits<unsigned short> >::operator++, COMDAT
; _this$ = ecx

; 134  :   _Self& operator++() { 

  00000	8b c1		 mov	 eax, ecx

; 135  :     this->_M_incr();

  00002	8b 08		 mov	 ecx, DWORD PTR [eax]
  00004	8b 09		 mov	 ecx, DWORD PTR [ecx]
  00006	89 08		 mov	 DWORD PTR [eax], ecx

; 136  :     return *this;
; 137  :   }

  00008	c3		 ret	 0
??E?$_List_iterator@GU?$_Const_traits@G@_STL@@@_STL@@QAEAAU01@XZ ENDP ; _STL::_List_iterator<unsigned short,_STL::_Const_traits<unsigned short> >::operator++
_TEXT	ENDS
PUBLIC	??E?$_List_iterator@PAU_WeekItemInfo@@U?$_Nonconst_traits@PAU_WeekItemInfo@@@_STL@@@_STL@@QAEAAU01@XZ ; _STL::_List_iterator<_WeekItemInfo *,_STL::_Nonconst_traits<_WeekItemInfo *> >::operator++
; Function compile flags: /Ogsy
;	COMDAT ??E?$_List_iterator@PAU_WeekItemInfo@@U?$_Nonconst_traits@PAU_WeekItemInfo@@@_STL@@@_STL@@QAEAAU01@XZ
_TEXT	SEGMENT
??E?$_List_iterator@PAU_WeekItemInfo@@U?$_Nonconst_traits@PAU_WeekItemInfo@@@_STL@@@_STL@@QAEAAU01@XZ PROC NEAR ; _STL::_List_iterator<_WeekItemInfo *,_STL::_Nonconst_traits<_WeekItemInfo *> >::operator++, COMDAT
; _this$ = ecx

; 134  :   _Self& operator++() { 

  00000	8b c1		 mov	 eax, ecx

; 135  :     this->_M_incr();

  00002	8b 08		 mov	 ecx, DWORD PTR [eax]
  00004	8b 09		 mov	 ecx, DWORD PTR [ecx]
  00006	89 08		 mov	 DWORD PTR [eax], ecx

; 136  :     return *this;
; 137  :   }

  00008	c3		 ret	 0
??E?$_List_iterator@PAU_WeekItemInfo@@U?$_Nonconst_traits@PAU_WeekItemInfo@@@_STL@@@_STL@@QAEAAU01@XZ ENDP ; _STL::_List_iterator<_WeekItemInfo *,_STL::_Nonconst_traits<_WeekItemInfo *> >::operator++
_TEXT	ENDS
PUBLIC	??E?$_List_iterator@PAU_WeekItemInfo@@U?$_Const_traits@PAU_WeekItemInfo@@@_STL@@@_STL@@QAEAAU01@XZ ; _STL::_List_iterator<_WeekItemInfo *,_STL::_Const_traits<_WeekItemInfo *> >::operator++
; Function compile flags: /Ogsy
;	COMDAT ??E?$_List_iterator@PAU_WeekItemInfo@@U?$_Const_traits@PAU_WeekItemInfo@@@_STL@@@_STL@@QAEAAU01@XZ
_TEXT	SEGMENT
??E?$_List_iterator@PAU_WeekItemInfo@@U?$_Const_traits@PAU_WeekItemInfo@@@_STL@@@_STL@@QAEAAU01@XZ PROC NEAR ; _STL::_List_iterator<_WeekItemInfo *,_STL::_Const_traits<_WeekItemInfo *> >::operator++, COMDAT
; _this$ = ecx

; 134  :   _Self& operator++() { 

  00000	8b c1		 mov	 eax, ecx

; 135  :     this->_M_incr();

  00002	8b 08		 mov	 ecx, DWORD PTR [eax]
  00004	8b 09		 mov	 ecx, DWORD PTR [ecx]
  00006	89 08		 mov	 DWORD PTR [eax], ecx

; 136  :     return *this;
; 137  :   }

  00008	c3		 ret	 0
??E?$_List_iterator@PAU_WeekItemInfo@@U?$_Const_traits@PAU_WeekItemInfo@@@_STL@@@_STL@@QAEAAU01@XZ ENDP ; _STL::_List_iterator<_WeekItemInfo *,_STL::_Const_traits<_WeekItemInfo *> >::operator++
_TEXT	ENDS
PUBLIC	??0?$_STLP_alloc_proxy@PADDV?$allocator@D@_STL@@@_STL@@QAE@ABV?$allocator@D@1@PAD@Z ; _STL::_STLP_alloc_proxy<char *,char,_STL::allocator<char> >::_STLP_alloc_proxy<char *,char,_STL::allocator<char> >
; Function compile flags: /Ogsy
; File c:\stlport-4.6.1\stlport\stl\_alloc.h
;	COMDAT ??0?$_STLP_alloc_proxy@PADDV?$allocator@D@_STL@@@_STL@@QAE@ABV?$allocator@D@1@PAD@Z
_TEXT	SEGMENT
___a$ = 8						; size = 4
___p$ = 12						; size = 4
??0?$_STLP_alloc_proxy@PADDV?$allocator@D@_STL@@@_STL@@QAE@ABV?$allocator@D@1@PAD@Z PROC NEAR ; _STL::_STLP_alloc_proxy<char *,char,_STL::allocator<char> >::_STLP_alloc_proxy<char *,char,_STL::allocator<char> >, COMDAT
; _this$ = ecx

; 487  :   inline _STLP_alloc_proxy(const _MaybeReboundAlloc& __a, _Value __p) : _MaybeReboundAlloc(__a), _M_data(__p) {}

  00000	8b c1		 mov	 eax, ecx
  00002	8b 4c 24 08	 mov	 ecx, DWORD PTR ___p$[esp-4]
  00006	89 08		 mov	 DWORD PTR [eax], ecx
  00008	c2 08 00	 ret	 8
??0?$_STLP_alloc_proxy@PADDV?$allocator@D@_STL@@@_STL@@QAE@ABV?$allocator@D@1@PAD@Z ENDP ; _STL::_STLP_alloc_proxy<char *,char,_STL::allocator<char> >::_STLP_alloc_proxy<char *,char,_STL::allocator<char> >
_TEXT	ENDS
PUBLIC	?get_allocator@?$_List_base@V?$basic_string@DV?$char_traits@D@_STL@@V?$allocator@D@2@@_STL@@V?$allocator@V?$basic_string@DV?$char_traits@D@_STL@@V?$allocator@D@2@@_STL@@@2@@_STL@@QBE?AV?$allocator@V?$basic_string@DV?$char_traits@D@_STL@@V?$allocator@D@2@@_STL@@@2@XZ ; _STL::_List_base<_STL::basic_string<char,_STL::char_traits<char>,_STL::allocator<char> >,_STL::allocator<_STL::basic_string<char,_STL::char_traits<char>,_STL::allocator<char> > > >::get_allocator
; Function compile flags: /Ogsy
; File c:\stlport-4.6.1\stlport\stl\_list.h
;	COMDAT ?get_allocator@?$_List_base@V?$basic_string@DV?$char_traits@D@_STL@@V?$allocator@D@2@@_STL@@V?$allocator@V?$basic_string@DV?$char_traits@D@_STL@@V?$allocator@D@2@@_STL@@@2@@_STL@@QBE?AV?$allocator@V?$basic_string@DV?$char_traits@D@_STL@@V?$allocator@D@2@@_STL@@@2@XZ
_TEXT	SEGMENT
___$ReturnUdt$ = 8					; size = 4
?get_allocator@?$_List_base@V?$basic_string@DV?$char_traits@D@_STL@@V?$allocator@D@2@@_STL@@V?$allocator@V?$basic_string@DV?$char_traits@D@_STL@@V?$allocator@D@2@@_STL@@@2@@_STL@@QBE?AV?$allocator@V?$basic_string@DV?$char_traits@D@_STL@@V?$allocator@D@2@@_STL@@@2@XZ PROC NEAR ; _STL::_List_base<_STL::basic_string<char,_STL::char_traits<char>,_STL::allocator<char> >,_STL::allocator<_STL::basic_string<char,_STL::char_traits<char>,_STL::allocator<char> > > >::get_allocator, COMDAT
; _this$ = ecx

; 179  :     return _STLP_CONVERT_ALLOCATOR((const _Node_allocator_type&)_M_node, _Tp);

  00000	8b 44 24 04	 mov	 eax, DWORD PTR ___$ReturnUdt$[esp-4]

; 180  :   }

  00004	c2 04 00	 ret	 4
?get_allocator@?$_List_base@V?$basic_string@DV?$char_traits@D@_STL@@V?$allocator@D@2@@_STL@@V?$allocator@V?$basic_string@DV?$char_traits@D@_STL@@V?$allocator@D@2@@_STL@@@2@@_STL@@QBE?AV?$allocator@V?$basic_string@DV?$char_traits@D@_STL@@V?$allocator@D@2@@_STL@@@2@XZ ENDP ; _STL::_List_base<_STL::basic_string<char,_STL::char_traits<char>,_STL::allocator<char> >,_STL::allocator<_STL::basic_string<char,_STL::char_traits<char>,_STL::allocator<char> > > >::get_allocator
_TEXT	ENDS
PUBLIC	??0?$_List_iterator@GU?$_Const_traits@G@_STL@@@_STL@@QAE@PAU?$_List_node@G@1@@Z ; _STL::_List_iterator<unsigned short,_STL::_Const_traits<unsigned short> >::_List_iterator<unsigned short,_STL::_Const_traits<unsigned short> >
; Function compile flags: /Ogsy
;	COMDAT ??0?$_List_iterator@GU?$_Const_traits@G@_STL@@@_STL@@QAE@PAU?$_List_node@G@1@@Z
_TEXT	SEGMENT
___x$ = 8						; size = 4
??0?$_List_iterator@GU?$_Const_traits@G@_STL@@@_STL@@QAE@PAU?$_List_node@G@1@@Z PROC NEAR ; _STL::_List_iterator<unsigned short,_STL::_Const_traits<unsigned short> >::_List_iterator<unsigned short,_STL::_Const_traits<unsigned short> >, COMDAT
; _this$ = ecx

; 126  :   _List_iterator(_Node* __x) : _List_iterator_base(__x) {}

  00000	8b c1		 mov	 eax, ecx
  00002	8b 4c 24 04	 mov	 ecx, DWORD PTR ___x$[esp-4]
  00006	89 08		 mov	 DWORD PTR [eax], ecx
  00008	c2 04 00	 ret	 4
??0?$_List_iterator@GU?$_Const_traits@G@_STL@@@_STL@@QAE@PAU?$_List_node@G@1@@Z ENDP ; _STL::_List_iterator<unsigned short,_STL::_Const_traits<unsigned short> >::_List_iterator<unsigned short,_STL::_Const_traits<unsigned short> >
_TEXT	ENDS
PUBLIC	??0?$_List_iterator@GU?$_Nonconst_traits@G@_STL@@@_STL@@QAE@PAU?$_List_node@G@1@@Z ; _STL::_List_iterator<unsigned short,_STL::_Nonconst_traits<unsigned short> >::_List_iterator<unsigned short,_STL::_Nonconst_traits<unsigned short> >
; Function compile flags: /Ogsy
;	COMDAT ??0?$_List_iterator@GU?$_Nonconst_traits@G@_STL@@@_STL@@QAE@PAU?$_List_node@G@1@@Z
_TEXT	SEGMENT
___x$ = 8						; size = 4
??0?$_List_iterator@GU?$_Nonconst_traits@G@_STL@@@_STL@@QAE@PAU?$_List_node@G@1@@Z PROC NEAR ; _STL::_List_iterator<unsigned short,_STL::_Nonconst_traits<unsigned short> >::_List_iterator<unsigned short,_STL::_Nonconst_traits<unsigned short> >, COMDAT
; _this$ = ecx

; 126  :   _List_iterator(_Node* __x) : _List_iterator_base(__x) {}

  00000	8b c1		 mov	 eax, ecx
  00002	8b 4c 24 04	 mov	 ecx, DWORD PTR ___x$[esp-4]
  00006	89 08		 mov	 DWORD PTR [eax], ecx
  00008	c2 04 00	 ret	 4
??0?$_List_iterator@GU?$_Nonconst_traits@G@_STL@@@_STL@@QAE@PAU?$_List_node@G@1@@Z ENDP ; _STL::_List_iterator<unsigned short,_STL::_Nonconst_traits<unsigned short> >::_List_iterator<unsigned short,_STL::_Nonconst_traits<unsigned short> >
_TEXT	ENDS
PUBLIC	??0?$_List_iterator@PAU_WeekItemInfo@@U?$_Nonconst_traits@PAU_WeekItemInfo@@@_STL@@@_STL@@QAE@PAU?$_List_node@PAU_WeekItemInfo@@@1@@Z ; _STL::_List_iterator<_WeekItemInfo *,_STL::_Nonconst_traits<_WeekItemInfo *> >::_List_iterator<_WeekItemInfo *,_STL::_Nonconst_traits<_WeekItemInfo *> >
; Function compile flags: /Ogsy
;	COMDAT ??0?$_List_iterator@PAU_WeekItemInfo@@U?$_Nonconst_traits@PAU_WeekItemInfo@@@_STL@@@_STL@@QAE@PAU?$_List_node@PAU_WeekItemInfo@@@1@@Z
_TEXT	SEGMENT
___x$ = 8						; size = 4
??0?$_List_iterator@PAU_WeekItemInfo@@U?$_Nonconst_traits@PAU_WeekItemInfo@@@_STL@@@_STL@@QAE@PAU?$_List_node@PAU_WeekItemInfo@@@1@@Z PROC NEAR ; _STL::_List_iterator<_WeekItemInfo *,_STL::_Nonconst_traits<_WeekItemInfo *> >::_List_iterator<_WeekItemInfo *,_STL::_Nonconst_traits<_WeekItemInfo *> >, COMDAT
; _this$ = ecx

; 126  :   _List_iterator(_Node* __x) : _List_iterator_base(__x) {}

  00000	8b c1		 mov	 eax, ecx
  00002	8b 4c 24 04	 mov	 ecx, DWORD PTR ___x$[esp-4]
  00006	89 08		 mov	 DWORD PTR [eax], ecx
  00008	c2 04 00	 ret	 4
??0?$_List_iterator@PAU_WeekItemInfo@@U?$_Nonconst_traits@PAU_WeekItemInfo@@@_STL@@@_STL@@QAE@PAU?$_List_node@PAU_WeekItemInfo@@@1@@Z ENDP ; _STL::_List_iterator<_WeekItemInfo *,_STL::_Nonconst_traits<_WeekItemInfo *> >::_List_iterator<_WeekItemInfo *,_STL::_Nonconst_traits<_WeekItemInfo *> >
_TEXT	ENDS
PUBLIC	??0?$_List_iterator@PAU_WeekItemInfo@@U?$_Const_traits@PAU_WeekItemInfo@@@_STL@@@_STL@@QAE@PAU?$_List_node@PAU_WeekItemInfo@@@1@@Z ; _STL::_List_iterator<_WeekItemInfo *,_STL::_Const_traits<_WeekItemInfo *> >::_List_iterator<_WeekItemInfo *,_STL::_Const_traits<_WeekItemInfo *> >
; Function compile flags: /Ogsy
;	COMDAT ??0?$_List_iterator@PAU_WeekItemInfo@@U?$_Const_traits@PAU_WeekItemInfo@@@_STL@@@_STL@@QAE@PAU?$_List_node@PAU_WeekItemInfo@@@1@@Z
_TEXT	SEGMENT
___x$ = 8						; size = 4
??0?$_List_iterator@PAU_WeekItemInfo@@U?$_Const_traits@PAU_WeekItemInfo@@@_STL@@@_STL@@QAE@PAU?$_List_node@PAU_WeekItemInfo@@@1@@Z PROC NEAR ; _STL::_List_iterator<_WeekItemInfo *,_STL::_Const_traits<_WeekItemInfo *> >::_List_iterator<_WeekItemInfo *,_STL::_Const_traits<_WeekItemInfo *> >, COMDAT
; _this$ = ecx

; 126  :   _List_iterator(_Node* __x) : _List_iterator_base(__x) {}

  00000	8b c1		 mov	 eax, ecx
  00002	8b 4c 24 04	 mov	 ecx, DWORD PTR ___x$[esp-4]
  00006	89 08		 mov	 DWORD PTR [eax], ecx
  00008	c2 04 00	 ret	 4
??0?$_List_iterator@PAU_WeekItemInfo@@U?$_Const_traits@PAU_WeekItemInfo@@@_STL@@@_STL@@QAE@PAU?$_List_node@PAU_WeekItemInfo@@@1@@Z ENDP ; _STL::_List_iterator<_WeekItemInfo *,_STL::_Const_traits<_WeekItemInfo *> >::_List_iterator<_WeekItemInfo *,_STL::_Const_traits<_WeekItemInfo *> >
_TEXT	ENDS
PUBLIC	??1?$_STLP_alloc_proxy@PAU?$_List_node@G@_STL@@U12@V?$allocator@U?$_List_node@G@_STL@@@2@@_STL@@QAE@XZ ; _STL::_STLP_alloc_proxy<_STL::_List_node<unsigned short> *,_STL::_List_node<unsigned short>,_STL::allocator<_STL::_List_node<unsigned short> > >::~_STLP_alloc_proxy<_STL::_List_node<unsigned short> *,_STL::_List_node<unsigned short>,_STL::allocator<_STL::_List_node<unsigned short> > >
; Function compile flags: /Ogsy
;	COMDAT ??1?$_STLP_alloc_proxy@PAU?$_List_node@G@_STL@@U12@V?$allocator@U?$_List_node@G@_STL@@@2@@_STL@@QAE@XZ
_TEXT	SEGMENT
??1?$_STLP_alloc_proxy@PAU?$_List_node@G@_STL@@U12@V?$allocator@U?$_List_node@G@_STL@@@2@@_STL@@QAE@XZ PROC NEAR ; _STL::_STLP_alloc_proxy<_STL::_List_node<unsigned short> *,_STL::_List_node<unsigned short>,_STL::allocator<_STL::_List_node<unsigned short> > >::~_STLP_alloc_proxy<_STL::_List_node<unsigned short> *,_STL::_List_node<unsigned short>,_STL::allocator<_STL::_List_node<unsigned short> > >, COMDAT
; _this$ = ecx
  00000	c3		 ret	 0
??1?$_STLP_alloc_proxy@PAU?$_List_node@G@_STL@@U12@V?$allocator@U?$_List_node@G@_STL@@@2@@_STL@@QAE@XZ ENDP ; _STL::_STLP_alloc_proxy<_STL::_List_node<unsigned short> *,_STL::_List_node<unsigned short>,_STL::allocator<_STL::_List_node<unsigned short> > >::~_STLP_alloc_proxy<_STL::_List_node<unsigned short> *,_STL::_List_node<unsigned short>,_STL::allocator<_STL::_List_node<unsigned short> > >
_TEXT	ENDS
PUBLIC	??1?$_STLP_alloc_proxy@PAU?$_List_node@PAU_WeekItemInfo@@@_STL@@U12@V?$allocator@U?$_List_node@PAU_WeekItemInfo@@@_STL@@@2@@_STL@@QAE@XZ ; _STL::_STLP_alloc_proxy<_STL::_List_node<_WeekItemInfo *> *,_STL::_List_node<_WeekItemInfo *>,_STL::allocator<_STL::_List_node<_WeekItemInfo *> > >::~_STLP_alloc_proxy<_STL::_List_node<_WeekItemInfo *> *,_STL::_List_node<_WeekItemInfo *>,_STL::allocator<_STL::_List_node<_WeekItemInfo *> > >
; Function compile flags: /Ogsy
;	COMDAT ??1?$_STLP_alloc_proxy@PAU?$_List_node@PAU_WeekItemInfo@@@_STL@@U12@V?$allocator@U?$_List_node@PAU_WeekItemInfo@@@_STL@@@2@@_STL@@QAE@XZ
_TEXT	SEGMENT
??1?$_STLP_alloc_proxy@PAU?$_List_node@PAU_WeekItemInfo@@@_STL@@U12@V?$allocator@U?$_List_node@PAU_WeekItemInfo@@@_STL@@@2@@_STL@@QAE@XZ PROC NEAR ; _STL::_STLP_alloc_proxy<_STL::_List_node<_WeekItemInfo *> *,_STL::_List_node<_WeekItemInfo *>,_STL::allocator<_STL::_List_node<_WeekItemInfo *> > >::~_STLP_alloc_proxy<_STL::_List_node<_WeekItemInfo *> *,_STL::_List_node<_WeekItemInfo *>,_STL::allocator<_STL::_List_node<_WeekItemInfo *> > >, COMDAT
; _this$ = ecx
  00000	c3		 ret	 0
??1?$_STLP_alloc_proxy@PAU?$_List_node@PAU_WeekItemInfo@@@_STL@@U12@V?$allocator@U?$_List_node@PAU_WeekItemInfo@@@_STL@@@2@@_STL@@QAE@XZ ENDP ; _STL::_STLP_alloc_proxy<_STL::_List_node<_WeekItemInfo *> *,_STL::_List_node<_WeekItemInfo *>,_STL::allocator<_STL::_List_node<_WeekItemInfo *> > >::~_STLP_alloc_proxy<_STL::_List_node<_WeekItemInfo *> *,_STL::_List_node<_WeekItemInfo *>,_STL::allocator<_STL::_List_node<_WeekItemInfo *> > >
_TEXT	ENDS
PUBLIC	??0?$_STLP_alloc_proxy@PAU?$_List_node@G@_STL@@U12@V?$allocator@U?$_List_node@G@_STL@@@2@@_STL@@QAE@ABV?$allocator@U?$_List_node@G@_STL@@@1@PAU?$_List_node@G@1@@Z ; _STL::_STLP_alloc_proxy<_STL::_List_node<unsigned short> *,_STL::_List_node<unsigned short>,_STL::allocator<_STL::_List_node<unsigned short> > >::_STLP_alloc_proxy<_STL::_List_node<unsigned short> *,_STL::_List_node<unsigned short>,_STL::allocator<_STL::_List_node<unsigned short> > >
; Function compile flags: /Ogsy
; File c:\stlport-4.6.1\stlport\stl\_alloc.h
;	COMDAT ??0?$_STLP_alloc_proxy@PAU?$_List_node@G@_STL@@U12@V?$allocator@U?$_List_node@G@_STL@@@2@@_STL@@QAE@ABV?$allocator@U?$_List_node@G@_STL@@@1@PAU?$_List_node@G@1@@Z
_TEXT	SEGMENT
___a$ = 8						; size = 4
___p$ = 12						; size = 4
??0?$_STLP_alloc_proxy@PAU?$_List_node@G@_STL@@U12@V?$allocator@U?$_List_node@G@_STL@@@2@@_STL@@QAE@ABV?$allocator@U?$_List_node@G@_STL@@@1@PAU?$_List_node@G@1@@Z PROC NEAR ; _STL::_STLP_alloc_proxy<_STL::_List_node<unsigned short> *,_STL::_List_node<unsigned short>,_STL::allocator<_STL::_List_node<unsigned short> > >::_STLP_alloc_proxy<_STL::_List_node<unsigned short> *,_STL::_List_node<unsigned short>,_STL::allocator<_STL::_List_node<unsigned short> > >, COMDAT
; _this$ = ecx

; 487  :   inline _STLP_alloc_proxy(const _MaybeReboundAlloc& __a, _Value __p) : _MaybeReboundAlloc(__a), _M_data(__p) {}

  00000	8b c1		 mov	 eax, ecx
  00002	8b 4c 24 08	 mov	 ecx, DWORD PTR ___p$[esp-4]
  00006	89 08		 mov	 DWORD PTR [eax], ecx
  00008	c2 08 00	 ret	 8
??0?$_STLP_alloc_proxy@PAU?$_List_node@G@_STL@@U12@V?$allocator@U?$_List_node@G@_STL@@@2@@_STL@@QAE@ABV?$allocator@U?$_List_node@G@_STL@@@1@PAU?$_List_node@G@1@@Z ENDP ; _STL::_STLP_alloc_proxy<_STL::_List_node<unsigned short> *,_STL::_List_node<unsigned short>,_STL::allocator<_STL::_List_node<unsigned short> > >::_STLP_alloc_proxy<_STL::_List_node<unsigned short> *,_STL::_List_node<unsigned short>,_STL::allocator<_STL::_List_node<unsigned short> > >
_TEXT	ENDS
PUBLIC	?allocate@?$allocator@U?$_List_node@G@_STL@@@_STL@@QAEPAU?$_List_node@G@2@IPBX@Z ; _STL::allocator<_STL::_List_node<unsigned short> >::allocate
; Function compile flags: /Ogsy
;	COMDAT ?allocate@?$allocator@U?$_List_node@G@_STL@@@_STL@@QAEPAU?$_List_node@G@2@IPBX@Z
_TEXT	SEGMENT
___n$ = 8						; size = 4
___formal$ = 12						; size = 4
?allocate@?$allocator@U?$_List_node@G@_STL@@@_STL@@QAEPAU?$_List_node@G@2@IPBX@Z PROC NEAR ; _STL::allocator<_STL::_List_node<unsigned short> >::allocate, COMDAT
; _this$ = ecx

; 355  :     return __n != 0 ? __REINTERPRET_CAST(value_type*,__sgi_alloc::allocate(__n * sizeof(value_type))) : 0;

  00000	8b 44 24 04	 mov	 eax, DWORD PTR ___n$[esp-4]
  00004	85 c0		 test	 eax, eax
  00006	74 0f		 je	 SHORT $L103125
  00008	8d 04 40	 lea	 eax, DWORD PTR [eax+eax*2]
  0000b	c1 e0 02	 shl	 eax, 2
  0000e	50		 push	 eax
  0000f	e8 00 00 00 00	 call	 ?allocate@?$__node_alloc@$00$0A@@_STL@@SAPAXI@Z ; _STL::__node_alloc<1,0>::allocate
  00014	59		 pop	 ecx
  00015	eb 02		 jmp	 SHORT $L103126
$L103125:
  00017	33 c0		 xor	 eax, eax
$L103126:

; 356  :   }

  00019	c2 08 00	 ret	 8
?allocate@?$allocator@U?$_List_node@G@_STL@@@_STL@@QAEPAU?$_List_node@G@2@IPBX@Z ENDP ; _STL::allocator<_STL::_List_node<unsigned short> >::allocate
_TEXT	ENDS
PUBLIC	?deallocate@?$allocator@U?$_List_node@G@_STL@@@_STL@@QAEXPAU?$_List_node@G@2@I@Z ; _STL::allocator<_STL::_List_node<unsigned short> >::deallocate
; Function compile flags: /Ogsy
;	COMDAT ?deallocate@?$allocator@U?$_List_node@G@_STL@@@_STL@@QAEXPAU?$_List_node@G@2@I@Z
_TEXT	SEGMENT
___p$ = 8						; size = 4
___n$ = 12						; size = 4
?deallocate@?$allocator@U?$_List_node@G@_STL@@@_STL@@QAEXPAU?$_List_node@G@2@I@Z PROC NEAR ; _STL::allocator<_STL::_List_node<unsigned short> >::deallocate, COMDAT
; _this$ = ecx

; 359  :     _STLP_ASSERT( (__p == 0) == (__n == 0) )
; 360  :       if (__p != 0) __sgi_alloc::deallocate((void*)__p, __n * sizeof(value_type));

  00000	83 7c 24 04 00	 cmp	 DWORD PTR ___p$[esp-4], 0
  00005	74 16		 je	 SHORT $L101827
  00007	8b 44 24 08	 mov	 eax, DWORD PTR ___n$[esp-4]
  0000b	8d 04 40	 lea	 eax, DWORD PTR [eax+eax*2]
  0000e	c1 e0 02	 shl	 eax, 2
  00011	50		 push	 eax
  00012	ff 74 24 08	 push	 DWORD PTR ___p$[esp]
  00016	e8 00 00 00 00	 call	 ?deallocate@?$__node_alloc@$00$0A@@_STL@@SAXPAXI@Z ; _STL::__node_alloc<1,0>::deallocate
  0001b	59		 pop	 ecx
  0001c	59		 pop	 ecx
$L101827:

; 361  :   }

  0001d	c2 08 00	 ret	 8
?deallocate@?$allocator@U?$_List_node@G@_STL@@@_STL@@QAEXPAU?$_List_node@G@2@I@Z ENDP ; _STL::allocator<_STL::_List_node<unsigned short> >::deallocate
_TEXT	ENDS
PUBLIC	??0?$_STLP_alloc_proxy@PAU?$_List_node@PAU_WeekItemInfo@@@_STL@@U12@V?$allocator@U?$_List_node@PAU_WeekItemInfo@@@_STL@@@2@@_STL@@QAE@ABV?$allocator@U?$_List_node@PAU_WeekItemInfo@@@_STL@@@1@PAU?$_List_node@PAU_WeekItemInfo@@@1@@Z ; _STL::_STLP_alloc_proxy<_STL::_List_node<_WeekItemInfo *> *,_STL::_List_node<_WeekItemInfo *>,_STL::allocator<_STL::_List_node<_WeekItemInfo *> > >::_STLP_alloc_proxy<_STL::_List_node<_WeekItemInfo *> *,_STL::_List_node<_WeekItemInfo *>,_STL::allocator<_STL::_List_node<_WeekItemInfo *> > >
; Function compile flags: /Ogsy
;	COMDAT ??0?$_STLP_alloc_proxy@PAU?$_List_node@PAU_WeekItemInfo@@@_STL@@U12@V?$allocator@U?$_List_node@PAU_WeekItemInfo@@@_STL@@@2@@_STL@@QAE@ABV?$allocator@U?$_List_node@PAU_WeekItemInfo@@@_STL@@@1@PAU?$_List_node@PAU_WeekItemInfo@@@1@@Z
_TEXT	SEGMENT
___a$ = 8						; size = 4
___p$ = 12						; size = 4
??0?$_STLP_alloc_proxy@PAU?$_List_node@PAU_WeekItemInfo@@@_STL@@U12@V?$allocator@U?$_List_node@PAU_WeekItemInfo@@@_STL@@@2@@_STL@@QAE@ABV?$allocator@U?$_List_node@PAU_WeekItemInfo@@@_STL@@@1@PAU?$_List_node@PAU_WeekItemInfo@@@1@@Z PROC NEAR ; _STL::_STLP_alloc_proxy<_STL::_List_node<_WeekItemInfo *> *,_STL::_List_node<_WeekItemInfo *>,_STL::allocator<_STL::_List_node<_WeekItemInfo *> > >::_STLP_alloc_proxy<_STL::_List_node<_WeekItemInfo *> *,_STL::_List_node<_WeekItemInfo *>,_STL::allocator<_STL::_List_node<_WeekItemInfo *> > >, COMDAT
; _this$ = ecx

; 487  :   inline _STLP_alloc_proxy(const _MaybeReboundAlloc& __a, _Value __p) : _MaybeReboundAlloc(__a), _M_data(__p) {}

  00000	8b c1		 mov	 eax, ecx
  00002	8b 4c 24 08	 mov	 ecx, DWORD PTR ___p$[esp-4]
  00006	89 08		 mov	 DWORD PTR [eax], ecx
  00008	c2 08 00	 ret	 8
??0?$_STLP_alloc_proxy@PAU?$_List_node@PAU_WeekItemInfo@@@_STL@@U12@V?$allocator@U?$_List_node@PAU_WeekItemInfo@@@_STL@@@2@@_STL@@QAE@ABV?$allocator@U?$_List_node@PAU_WeekItemInfo@@@_STL@@@1@PAU?$_List_node@PAU_WeekItemInfo@@@1@@Z ENDP ; _STL::_STLP_alloc_proxy<_STL::_List_node<_WeekItemInfo *> *,_STL::_List_node<_WeekItemInfo *>,_STL::allocator<_STL::_List_node<_WeekItemInfo *> > >::_STLP_alloc_proxy<_STL::_List_node<_WeekItemInfo *> *,_STL::_List_node<_WeekItemInfo *>,_STL::allocator<_STL::_List_node<_WeekItemInfo *> > >
_TEXT	ENDS
PUBLIC	?allocate@?$allocator@U?$_List_node@PAU_WeekItemInfo@@@_STL@@@_STL@@QAEPAU?$_List_node@PAU_WeekItemInfo@@@2@IPBX@Z ; _STL::allocator<_STL::_List_node<_WeekItemInfo *> >::allocate
; Function compile flags: /Ogsy
;	COMDAT ?allocate@?$allocator@U?$_List_node@PAU_WeekItemInfo@@@_STL@@@_STL@@QAEPAU?$_List_node@PAU_WeekItemInfo@@@2@IPBX@Z
_TEXT	SEGMENT
___n$ = 8						; size = 4
___formal$ = 12						; size = 4
?allocate@?$allocator@U?$_List_node@PAU_WeekItemInfo@@@_STL@@@_STL@@QAEPAU?$_List_node@PAU_WeekItemInfo@@@2@IPBX@Z PROC NEAR ; _STL::allocator<_STL::_List_node<_WeekItemInfo *> >::allocate, COMDAT
; _this$ = ecx

; 355  :     return __n != 0 ? __REINTERPRET_CAST(value_type*,__sgi_alloc::allocate(__n * sizeof(value_type))) : 0;

  00000	8b 44 24 04	 mov	 eax, DWORD PTR ___n$[esp-4]
  00004	85 c0		 test	 eax, eax
  00006	74 0f		 je	 SHORT $L103136
  00008	8d 04 40	 lea	 eax, DWORD PTR [eax+eax*2]
  0000b	c1 e0 02	 shl	 eax, 2
  0000e	50		 push	 eax
  0000f	e8 00 00 00 00	 call	 ?allocate@?$__node_alloc@$00$0A@@_STL@@SAPAXI@Z ; _STL::__node_alloc<1,0>::allocate
  00014	59		 pop	 ecx
  00015	eb 02		 jmp	 SHORT $L103137
$L103136:
  00017	33 c0		 xor	 eax, eax
$L103137:

; 356  :   }

  00019	c2 08 00	 ret	 8
?allocate@?$allocator@U?$_List_node@PAU_WeekItemInfo@@@_STL@@@_STL@@QAEPAU?$_List_node@PAU_WeekItemInfo@@@2@IPBX@Z ENDP ; _STL::allocator<_STL::_List_node<_WeekItemInfo *> >::allocate
_TEXT	ENDS
PUBLIC	?deallocate@?$allocator@U?$_List_node@PAU_WeekItemInfo@@@_STL@@@_STL@@QAEXPAU?$_List_node@PAU_WeekItemInfo@@@2@I@Z ; _STL::allocator<_STL::_List_node<_WeekItemInfo *> >::deallocate
; Function compile flags: /Ogsy
;	COMDAT ?deallocate@?$allocator@U?$_List_node@PAU_WeekItemInfo@@@_STL@@@_STL@@QAEXPAU?$_List_node@PAU_WeekItemInfo@@@2@I@Z
_TEXT	SEGMENT
___p$ = 8						; size = 4
___n$ = 12						; size = 4
?deallocate@?$allocator@U?$_List_node@PAU_WeekItemInfo@@@_STL@@@_STL@@QAEXPAU?$_List_node@PAU_WeekItemInfo@@@2@I@Z PROC NEAR ; _STL::allocator<_STL::_List_node<_WeekItemInfo *> >::deallocate, COMDAT
; _this$ = ecx

; 359  :     _STLP_ASSERT( (__p == 0) == (__n == 0) )
; 360  :       if (__p != 0) __sgi_alloc::deallocate((void*)__p, __n * sizeof(value_type));

  00000	83 7c 24 04 00	 cmp	 DWORD PTR ___p$[esp-4], 0
  00005	74 16		 je	 SHORT $L101853
  00007	8b 44 24 08	 mov	 eax, DWORD PTR ___n$[esp-4]
  0000b	8d 04 40	 lea	 eax, DWORD PTR [eax+eax*2]
  0000e	c1 e0 02	 shl	 eax, 2
  00011	50		 push	 eax
  00012	ff 74 24 08	 push	 DWORD PTR ___p$[esp]
  00016	e8 00 00 00 00	 call	 ?deallocate@?$__node_alloc@$00$0A@@_STL@@SAXPAXI@Z ; _STL::__node_alloc<1,0>::deallocate
  0001b	59		 pop	 ecx
  0001c	59		 pop	 ecx
$L101853:

; 361  :   }

  0001d	c2 08 00	 ret	 8
?deallocate@?$allocator@U?$_List_node@PAU_WeekItemInfo@@@_STL@@@_STL@@QAEXPAU?$_List_node@PAU_WeekItemInfo@@@2@I@Z ENDP ; _STL::allocator<_STL::_List_node<_WeekItemInfo *> >::deallocate
_TEXT	ENDS
PUBLIC	?clear@?$_List_base@GV?$allocator@G@_STL@@@_STL@@QAEXXZ ; _STL::_List_base<unsigned short,_STL::allocator<unsigned short> >::clear
; Function compile flags: /Ogsy
; File c:\stlport-4.6.1\stlport\stl\_list.c
;	COMDAT ?clear@?$_List_base@GV?$allocator@G@_STL@@@_STL@@QAEXXZ
_TEXT	SEGMENT
?clear@?$_List_base@GV?$allocator@G@_STL@@@_STL@@QAEXXZ PROC NEAR ; _STL::_List_base<unsigned short,_STL::allocator<unsigned short> >::clear, COMDAT
; _this$ = ecx

; 68   : {

  00000	56		 push	 esi
  00001	57		 push	 edi
  00002	8b f9		 mov	 edi, ecx

; 69   :   _List_node<_Tp>* __cur = (_List_node<_Tp>*) this->_M_node._M_data->_M_next;

  00004	8b 07		 mov	 eax, DWORD PTR [edi]
  00006	8b 30		 mov	 esi, DWORD PTR [eax]

; 70   :   while (__cur != this->_M_node._M_data) {

  00008	3b f0		 cmp	 esi, eax
  0000a	74 12		 je	 SHORT $L102016
$L102015:

; 71   :     _List_node<_Tp>* __tmp = __cur;

  0000c	8b c6		 mov	 eax, esi

; 72   :     __cur = (_List_node<_Tp>*) __cur->_M_next;

  0000e	8b 36		 mov	 esi, DWORD PTR [esi]

; 73   :     _STLP_STD::_Destroy(&__tmp->_M_data);
; 74   :     this->_M_node.deallocate(__tmp, 1);

  00010	6a 01		 push	 1
  00012	50		 push	 eax
  00013	8b cf		 mov	 ecx, edi
  00015	e8 00 00 00 00	 call	 ?deallocate@?$allocator@U?$_List_node@G@_STL@@@_STL@@QAEXPAU?$_List_node@G@2@I@Z ; _STL::allocator<_STL::_List_node<unsigned short> >::deallocate
  0001a	3b 37		 cmp	 esi, DWORD PTR [edi]
  0001c	75 ee		 jne	 SHORT $L102015
$L102016:

; 75   :   }
; 76   :   this->_M_node._M_data->_M_next = this->_M_node._M_data;

  0001e	8b 07		 mov	 eax, DWORD PTR [edi]
  00020	89 00		 mov	 DWORD PTR [eax], eax

; 77   :   this->_M_node._M_data->_M_prev = this->_M_node._M_data;

  00022	8b 3f		 mov	 edi, DWORD PTR [edi]
  00024	89 7f 04	 mov	 DWORD PTR [edi+4], edi
  00027	5f		 pop	 edi
  00028	5e		 pop	 esi

; 78   : }

  00029	c3		 ret	 0
?clear@?$_List_base@GV?$allocator@G@_STL@@@_STL@@QAEXXZ ENDP ; _STL::_List_base<unsigned short,_STL::allocator<unsigned short> >::clear
_TEXT	ENDS
PUBLIC	?clear@?$_List_base@PAU_WeekItemInfo@@V?$allocator@PAU_WeekItemInfo@@@_STL@@@_STL@@QAEXXZ ; _STL::_List_base<_WeekItemInfo *,_STL::allocator<_WeekItemInfo *> >::clear
; Function compile flags: /Ogsy
;	COMDAT ?clear@?$_List_base@PAU_WeekItemInfo@@V?$allocator@PAU_WeekItemInfo@@@_STL@@@_STL@@QAEXXZ
_TEXT	SEGMENT
?clear@?$_List_base@PAU_WeekItemInfo@@V?$allocator@PAU_WeekItemInfo@@@_STL@@@_STL@@QAEXXZ PROC NEAR ; _STL::_List_base<_WeekItemInfo *,_STL::allocator<_WeekItemInfo *> >::clear, COMDAT
; _this$ = ecx

; 68   : {

  00000	56		 push	 esi
  00001	57		 push	 edi
  00002	8b f9		 mov	 edi, ecx

; 69   :   _List_node<_Tp>* __cur = (_List_node<_Tp>*) this->_M_node._M_data->_M_next;

  00004	8b 07		 mov	 eax, DWORD PTR [edi]
  00006	8b 30		 mov	 esi, DWORD PTR [eax]

; 70   :   while (__cur != this->_M_node._M_data) {

  00008	3b f0		 cmp	 esi, eax
  0000a	74 12		 je	 SHORT $L102032
$L102031:

; 71   :     _List_node<_Tp>* __tmp = __cur;

  0000c	8b c6		 mov	 eax, esi

; 72   :     __cur = (_List_node<_Tp>*) __cur->_M_next;

  0000e	8b 36		 mov	 esi, DWORD PTR [esi]

; 73   :     _STLP_STD::_Destroy(&__tmp->_M_data);
; 74   :     this->_M_node.deallocate(__tmp, 1);

  00010	6a 01		 push	 1
  00012	50		 push	 eax
  00013	8b cf		 mov	 ecx, edi
  00015	e8 00 00 00 00	 call	 ?deallocate@?$allocator@U?$_List_node@PAU_WeekItemInfo@@@_STL@@@_STL@@QAEXPAU?$_List_node@PAU_WeekItemInfo@@@2@I@Z ; _STL::allocator<_STL::_List_node<_WeekItemInfo *> >::deallocate
  0001a	3b 37		 cmp	 esi, DWORD PTR [edi]
  0001c	75 ee		 jne	 SHORT $L102031
$L102032:

; 75   :   }
; 76   :   this->_M_node._M_data->_M_next = this->_M_node._M_data;

  0001e	8b 07		 mov	 eax, DWORD PTR [edi]
  00020	89 00		 mov	 DWORD PTR [eax], eax

; 77   :   this->_M_node._M_data->_M_prev = this->_M_node._M_data;

  00022	8b 3f		 mov	 edi, DWORD PTR [edi]
  00024	89 7f 04	 mov	 DWORD PTR [edi+4], edi
  00027	5f		 pop	 edi
  00028	5e		 pop	 esi

; 78   : }

  00029	c3		 ret	 0
?clear@?$_List_base@PAU_WeekItemInfo@@V?$allocator@PAU_WeekItemInfo@@@_STL@@@_STL@@QAEXXZ ENDP ; _STL::_List_base<_WeekItemInfo *,_STL::allocator<_WeekItemInfo *> >::clear
_TEXT	ENDS
PUBLIC	??0?$_List_iterator@V?$basic_string@DV?$char_traits@D@_STL@@V?$allocator@D@2@@_STL@@U?$_Nonconst_traits@V?$basic_string@DV?$char_traits@D@_STL@@V?$allocator@D@2@@_STL@@@2@@_STL@@QAE@ABU01@@Z ; _STL::_List_iterator<_STL::basic_string<char,_STL::char_traits<char>,_STL::allocator<char> >,_STL::_Nonconst_traits<_STL::basic_string<char,_STL::char_traits<char>,_STL::allocator<char> > > >::_List_iterator<_STL::basic_string<char,_STL::char_traits<char>,_STL::allocator<char> >,_STL::_Nonconst_traits<_STL::basic_string<char,_STL::char_traits<char>,_STL::allocator<char> > > >
; Function compile flags: /Ogsy
; File c:\stlport-4.6.1\stlport\stl\_list.h
;	COMDAT ??0?$_List_iterator@V?$basic_string@DV?$char_traits@D@_STL@@V?$allocator@D@2@@_STL@@U?$_Nonconst_traits@V?$basic_string@DV?$char_traits@D@_STL@@V?$allocator@D@2@@_STL@@@2@@_STL@@QAE@ABU01@@Z
_TEXT	SEGMENT
___x$ = 8						; size = 4
??0?$_List_iterator@V?$basic_string@DV?$char_traits@D@_STL@@V?$allocator@D@2@@_STL@@U?$_Nonconst_traits@V?$basic_string@DV?$char_traits@D@_STL@@V?$allocator@D@2@@_STL@@@2@@_STL@@QAE@ABU01@@Z PROC NEAR ; _STL::_List_iterator<_STL::basic_string<char,_STL::char_traits<char>,_STL::allocator<char> >,_STL::_Nonconst_traits<_STL::basic_string<char,_STL::char_traits<char>,_STL::allocator<char> > > >::_List_iterator<_STL::basic_string<char,_STL::char_traits<char>,_STL::allocator<char> >,_STL::_Nonconst_traits<_STL::basic_string<char,_STL::char_traits<char>,_STL::allocator<char> > > >, COMDAT
; _this$ = ecx

; 128  :   _List_iterator(const iterator& __x) :  _List_iterator_base(__x._M_node) {}

  00000	8b c1		 mov	 eax, ecx
  00002	8b 4c 24 04	 mov	 ecx, DWORD PTR ___x$[esp-4]
  00006	8b 09		 mov	 ecx, DWORD PTR [ecx]
  00008	89 08		 mov	 DWORD PTR [eax], ecx
  0000a	c2 04 00	 ret	 4
??0?$_List_iterator@V?$basic_string@DV?$char_traits@D@_STL@@V?$allocator@D@2@@_STL@@U?$_Nonconst_traits@V?$basic_string@DV?$char_traits@D@_STL@@V?$allocator@D@2@@_STL@@@2@@_STL@@QAE@ABU01@@Z ENDP ; _STL::_List_iterator<_STL::basic_string<char,_STL::char_traits<char>,_STL::allocator<char> >,_STL::_Nonconst_traits<_STL::basic_string<char,_STL::char_traits<char>,_STL::allocator<char> > > >::_List_iterator<_STL::basic_string<char,_STL::char_traits<char>,_STL::allocator<char> >,_STL::_Nonconst_traits<_STL::basic_string<char,_STL::char_traits<char>,_STL::allocator<char> > > >
_TEXT	ENDS
PUBLIC	??$__distance@U?$_List_iterator@GU?$_Const_traits@G@_STL@@@_STL@@@_STL@@YAHABU?$_List_iterator@GU?$_Const_traits@G@_STL@@@0@0ABUinput_iterator_tag@0@@Z ; _STL::__distance<_STL::_List_iterator<unsigned short,_STL::_Const_traits<unsigned short> > >
; Function compile flags: /Ogsy
; File c:\stlport-4.6.1\stlport\stl\_iterator_base.h
;	COMDAT ??$__distance@U?$_List_iterator@GU?$_Const_traits@G@_STL@@@_STL@@@_STL@@YAHABU?$_List_iterator@GU?$_Const_traits@G@_STL@@@0@0ABUinput_iterator_tag@0@@Z
_TEXT	SEGMENT
___first$ = 8						; size = 4
___last$ = 12						; size = 4
___formal$ = 16						; size = 4
??$__distance@U?$_List_iterator@GU?$_Const_traits@G@_STL@@@_STL@@@_STL@@YAHABU?$_List_iterator@GU?$_Const_traits@G@_STL@@@0@0ABUinput_iterator_tag@0@@Z PROC NEAR ; _STL::__distance<_STL::_List_iterator<unsigned short,_STL::_Const_traits<unsigned short> > >, COMDAT

; 323  :   _STLP_DIFFERENCE_TYPE(_InputIterator) __n = 0;
; 324  :   _InputIterator __it(__first);  
; 325  :   while (__it != __last) {

  00000	8b 54 24 08	 mov	 edx, DWORD PTR ___last$[esp-4]
  00004	8b 4c 24 04	 mov	 ecx, DWORD PTR ___first$[esp-4]
  00008	8b 12		 mov	 edx, DWORD PTR [edx]
  0000a	33 c0		 xor	 eax, eax
  0000c	eb 01		 jmp	 SHORT $L103181
$L102205:

; 326  :     ++__it; ++__n;

  0000e	40		 inc	 eax
$L103181:
  0000f	8b 09		 mov	 ecx, DWORD PTR [ecx]
  00011	3b ca		 cmp	 ecx, edx
  00013	75 f9		 jne	 SHORT $L102205

; 327  :   }
; 328  :   return __n;
; 329  : }

  00015	c3		 ret	 0
??$__distance@U?$_List_iterator@GU?$_Const_traits@G@_STL@@@_STL@@@_STL@@YAHABU?$_List_iterator@GU?$_Const_traits@G@_STL@@@0@0ABUinput_iterator_tag@0@@Z ENDP ; _STL::__distance<_STL::_List_iterator<unsigned short,_STL::_Const_traits<unsigned short> > >
_TEXT	ENDS
PUBLIC	??$__distance@U?$_List_iterator@PAU_WeekItemInfo@@U?$_Const_traits@PAU_WeekItemInfo@@@_STL@@@_STL@@@_STL@@YAHABU?$_List_iterator@PAU_WeekItemInfo@@U?$_Const_traits@PAU_WeekItemInfo@@@_STL@@@0@0ABUinput_iterator_tag@0@@Z ; _STL::__distance<_STL::_List_iterator<_WeekItemInfo *,_STL::_Const_traits<_WeekItemInfo *> > >
; Function compile flags: /Ogsy
;	COMDAT ??$__distance@U?$_List_iterator@PAU_WeekItemInfo@@U?$_Const_traits@PAU_WeekItemInfo@@@_STL@@@_STL@@@_STL@@YAHABU?$_List_iterator@PAU_WeekItemInfo@@U?$_Const_traits@PAU_WeekItemInfo@@@_STL@@@0@0ABUinput_iterator_tag@0@@Z
_TEXT	SEGMENT
___first$ = 8						; size = 4
___last$ = 12						; size = 4
___formal$ = 16						; size = 4
??$__distance@U?$_List_iterator@PAU_WeekItemInfo@@U?$_Const_traits@PAU_WeekItemInfo@@@_STL@@@_STL@@@_STL@@YAHABU?$_List_iterator@PAU_WeekItemInfo@@U?$_Const_traits@PAU_WeekItemInfo@@@_STL@@@0@0ABUinput_iterator_tag@0@@Z PROC NEAR ; _STL::__distance<_STL::_List_iterator<_WeekItemInfo *,_STL::_Const_traits<_WeekItemInfo *> > >, COMDAT

; 323  :   _STLP_DIFFERENCE_TYPE(_InputIterator) __n = 0;
; 324  :   _InputIterator __it(__first);  
; 325  :   while (__it != __last) {

  00000	8b 54 24 08	 mov	 edx, DWORD PTR ___last$[esp-4]
  00004	8b 4c 24 04	 mov	 ecx, DWORD PTR ___first$[esp-4]
  00008	8b 12		 mov	 edx, DWORD PTR [edx]
  0000a	33 c0		 xor	 eax, eax
  0000c	eb 01		 jmp	 SHORT $L103199
$L102211:

; 326  :     ++__it; ++__n;

  0000e	40		 inc	 eax
$L103199:
  0000f	8b 09		 mov	 ecx, DWORD PTR [ecx]
  00011	3b ca		 cmp	 ecx, edx
  00013	75 f9		 jne	 SHORT $L102211

; 327  :   }
; 328  :   return __n;
; 329  : }

  00015	c3		 ret	 0
??$__distance@U?$_List_iterator@PAU_WeekItemInfo@@U?$_Const_traits@PAU_WeekItemInfo@@@_STL@@@_STL@@@_STL@@YAHABU?$_List_iterator@PAU_WeekItemInfo@@U?$_Const_traits@PAU_WeekItemInfo@@@_STL@@@0@0ABUinput_iterator_tag@0@@Z ENDP ; _STL::__distance<_STL::_List_iterator<_WeekItemInfo *,_STL::_Const_traits<_WeekItemInfo *> > >
_TEXT	ENDS
PUBLIC	??E?$_List_iterator@V?$basic_string@DV?$char_traits@D@_STL@@V?$allocator@D@2@@_STL@@U?$_Const_traits@V?$basic_string@DV?$char_traits@D@_STL@@V?$allocator@D@2@@_STL@@@2@@_STL@@QAEAAU01@XZ ; _STL::_List_iterator<_STL::basic_string<char,_STL::char_traits<char>,_STL::allocator<char> >,_STL::_Const_traits<_STL::basic_string<char,_STL::char_traits<char>,_STL::allocator<char> > > >::operator++
; Function compile flags: /Ogsy
; File c:\stlport-4.6.1\stlport\stl\_list.h
;	COMDAT ??E?$_List_iterator@V?$basic_string@DV?$char_traits@D@_STL@@V?$allocator@D@2@@_STL@@U?$_Const_traits@V?$basic_string@DV?$char_traits@D@_STL@@V?$allocator@D@2@@_STL@@@2@@_STL@@QAEAAU01@XZ
_TEXT	SEGMENT
??E?$_List_iterator@V?$basic_string@DV?$char_traits@D@_STL@@V?$allocator@D@2@@_STL@@U?$_Const_traits@V?$basic_string@DV?$char_traits@D@_STL@@V?$allocator@D@2@@_STL@@@2@@_STL@@QAEAAU01@XZ PROC NEAR ; _STL::_List_iterator<_STL::basic_string<char,_STL::char_traits<char>,_STL::allocator<char> >,_STL::_Const_traits<_STL::basic_string<char,_STL::char_traits<char>,_STL::allocator<char> > > >::operator++, COMDAT
; _this$ = ecx

; 134  :   _Self& operator++() { 

  00000	8b c1		 mov	 eax, ecx

; 135  :     this->_M_incr();

  00002	8b 08		 mov	 ecx, DWORD PTR [eax]
  00004	8b 09		 mov	 ecx, DWORD PTR [ecx]
  00006	89 08		 mov	 DWORD PTR [eax], ecx

; 136  :     return *this;
; 137  :   }

  00008	c3		 ret	 0
??E?$_List_iterator@V?$basic_string@DV?$char_traits@D@_STL@@V?$allocator@D@2@@_STL@@U?$_Const_traits@V?$basic_string@DV?$char_traits@D@_STL@@V?$allocator@D@2@@_STL@@@2@@_STL@@QAEAAU01@XZ ENDP ; _STL::_List_iterator<_STL::basic_string<char,_STL::char_traits<char>,_STL::allocator<char> >,_STL::_Const_traits<_STL::basic_string<char,_STL::char_traits<char>,_STL::allocator<char> > > >::operator++
_TEXT	ENDS
PUBLIC	??$distance@PBD@_STL@@YAHABQBD0@Z		; _STL::distance<char const *>
; Function compile flags: /Ogsy
; File c:\stlport-4.6.1\stlport\stl\_iterator_base.h
;	COMDAT ??$distance@PBD@_STL@@YAHABQBD0@Z
_TEXT	SEGMENT
___first$ = 8						; size = 4
___last$ = 12						; size = 4
??$distance@PBD@_STL@@YAHABQBD0@Z PROC NEAR		; _STL::distance<char const *>, COMDAT

; 369  :   return __distance(__first, __last, _STLP_ITERATOR_CATEGORY(__first, _InputIterator));  

  00000	8b 44 24 08	 mov	 eax, DWORD PTR ___last$[esp-4]
  00004	8b 00		 mov	 eax, DWORD PTR [eax]
  00006	8b 4c 24 04	 mov	 ecx, DWORD PTR ___first$[esp-4]
  0000a	2b 01		 sub	 eax, DWORD PTR [ecx]

; 370  : }

  0000c	c3		 ret	 0
??$distance@PBD@_STL@@YAHABQBD0@Z ENDP			; _STL::distance<char const *>
_TEXT	ENDS
PUBLIC	?_M_allocate_block@?$_String_base@DV?$allocator@D@_STL@@@_STL@@QAEXI@Z ; _STL::_String_base<char,_STL::allocator<char> >::_M_allocate_block
; Function compile flags: /Ogsy
; File c:\stlport-4.6.1\stlport\stl\_string.c
;	COMDAT ?_M_allocate_block@?$_String_base@DV?$allocator@D@_STL@@@_STL@@QAEXI@Z
_TEXT	SEGMENT
___n$ = 8						; size = 4
?_M_allocate_block@?$_String_base@DV?$allocator@D@_STL@@@_STL@@QAEXI@Z PROC NEAR ; _STL::_String_base<char,_STL::allocator<char> >::_M_allocate_block, COMDAT
; _this$ = ecx

; 530  : template <class _Tp, class _Alloc> void _String_base<_Tp, _Alloc>::_M_allocate_block(size_t __n) {  

  00000	56		 push	 esi
  00001	57		 push	 edi

; 531  :   if ((__n <= (max_size()+1)) && (__n>0)){ 

  00002	8b 7c 24 0c	 mov	 edi, DWORD PTR ___n$[esp+4]
  00006	83 ff ff	 cmp	 edi, -1
  00009	8b f1		 mov	 esi, ecx
  0000b	77 17		 ja	 SHORT $L102235
  0000d	85 ff		 test	 edi, edi
  0000f	76 13		 jbe	 SHORT $L102235

; 532  :     _M_start  = _M_end_of_storage.allocate(__n); 

  00011	57		 push	 edi
  00012	e8 00 00 00 00	 call	 ?allocate@?$__node_alloc@$00$0A@@_STL@@SAPAXI@Z ; _STL::__node_alloc<1,0>::allocate
  00017	89 06		 mov	 DWORD PTR [esi], eax

; 533  :     _M_finish = _M_start; 

  00019	89 46 04	 mov	 DWORD PTR [esi+4], eax

; 534  :     _M_end_of_storage._M_data = _M_start + __n; 

  0001c	03 c7		 add	 eax, edi
  0001e	59		 pop	 ecx
  0001f	89 46 08	 mov	 DWORD PTR [esi+8], eax

; 535  :   } 
; 536  :     else 

  00022	eb 07		 jmp	 SHORT $L102236
$L102235:

; 537  :       _M_throw_length_error(); 

  00024	8b ce		 mov	 ecx, esi
  00026	e8 00 00 00 00	 call	 ?_M_throw_length_error@?$_String_base@DV?$allocator@D@_STL@@@_STL@@QBEXXZ ; _STL::_String_base<char,_STL::allocator<char> >::_M_throw_length_error
$L102236:
  0002b	5f		 pop	 edi
  0002c	5e		 pop	 esi

; 538  : } 

  0002d	c2 04 00	 ret	 4
?_M_allocate_block@?$_String_base@DV?$allocator@D@_STL@@@_STL@@QAEXI@Z ENDP ; _STL::_String_base<char,_STL::allocator<char> >::_M_allocate_block
_TEXT	ENDS
PUBLIC	??$distance@PAD@_STL@@YAHABQAD0@Z		; _STL::distance<char *>
; Function compile flags: /Ogsy
; File c:\stlport-4.6.1\stlport\stl\_iterator_base.h
;	COMDAT ??$distance@PAD@_STL@@YAHABQAD0@Z
_TEXT	SEGMENT
___first$ = 8						; size = 4
___last$ = 12						; size = 4
??$distance@PAD@_STL@@YAHABQAD0@Z PROC NEAR		; _STL::distance<char *>, COMDAT

; 369  :   return __distance(__first, __last, _STLP_ITERATOR_CATEGORY(__first, _InputIterator));  

  00000	8b 44 24 08	 mov	 eax, DWORD PTR ___last$[esp-4]
  00004	8b 00		 mov	 eax, DWORD PTR [eax]
  00006	8b 4c 24 04	 mov	 ecx, DWORD PTR ___first$[esp-4]
  0000a	2b 01		 sub	 eax, DWORD PTR [ecx]

; 370  : }

  0000c	c3		 ret	 0
??$distance@PAD@_STL@@YAHABQAD0@Z ENDP			; _STL::distance<char *>
_TEXT	ENDS
PUBLIC	??$__copy_aux@PADPAD@_STL@@YAPADPAD00ABU__true_type@0@@Z ; _STL::__copy_aux<char *,char *>
; Function compile flags: /Ogsy
; File c:\stlport-4.6.1\stlport\stl\_algobase.h
;	COMDAT ??$__copy_aux@PADPAD@_STL@@YAPADPAD00ABU__true_type@0@@Z
_TEXT	SEGMENT
___first$ = 8						; size = 4
___last$ = 12						; size = 4
___result$ = 16						; size = 4
___formal$ = 20						; size = 4
??$__copy_aux@PADPAD@_STL@@YAPADPAD00ABU__true_type@0@@Z PROC NEAR ; _STL::__copy_aux<char *,char *>, COMDAT

; 202  :   return __copy_ptrs(__first, __last, __result, 
; 203  :                      _IsOKToMemCpy(_STLP_VALUE_TYPE(__first, _InputIter), 
; 204  :                                    _STLP_VALUE_TYPE(__result, _OutputIter))._Ret());

  00000	ff 74 24 0c	 push	 DWORD PTR ___result$[esp-4]
  00004	ff 74 24 0c	 push	 DWORD PTR ___last$[esp]
  00008	ff 74 24 0c	 push	 DWORD PTR ___first$[esp+4]
  0000c	e8 00 00 00 00	 call	 ?__copy_trivial@_STL@@YAPAXPBX0PAX@Z ; _STL::__copy_trivial
  00011	83 c4 0c	 add	 esp, 12			; 0000000cH

; 205  : }

  00014	c3		 ret	 0
??$__copy_aux@PADPAD@_STL@@YAPADPAD00ABU__true_type@0@@Z ENDP ; _STL::__copy_aux<char *,char *>
_TEXT	ENDS
PUBLIC	?begin@?$list@V?$basic_string@DV?$char_traits@D@_STL@@V?$allocator@D@2@@_STL@@V?$allocator@V?$basic_string@DV?$char_traits@D@_STL@@V?$allocator@D@2@@_STL@@@2@@_STL@@QBE?AU?$_List_iterator@V?$basic_string@DV?$char_traits@D@_STL@@V?$allocator@D@2@@_STL@@U?$_Const_traits@V?$basic_string@DV?$char_traits@D@_STL@@V?$allocator@D@2@@_STL@@@2@@2@XZ ; _STL::list<_STL::basic_string<char,_STL::char_traits<char>,_STL::allocator<char> >,_STL::allocator<_STL::basic_string<char,_STL::char_traits<char>,_STL::allocator<char> > > >::begin
; Function compile flags: /Ogsy
; File c:\stlport-4.6.1\stlport\stl\_list.h
;	COMDAT ?begin@?$list@V?$basic_string@DV?$char_traits@D@_STL@@V?$allocator@D@2@@_STL@@V?$allocator@V?$basic_string@DV?$char_traits@D@_STL@@V?$allocator@D@2@@_STL@@@2@@_STL@@QBE?AU?$_List_iterator@V?$basic_string@DV?$char_traits@D@_STL@@V?$allocator@D@2@@_STL@@U?$_Const_traits@V?$basic_string@DV?$char_traits@D@_STL@@V?$allocator@D@2@@_STL@@@2@@2@XZ
_TEXT	SEGMENT
___$ReturnUdt$ = 8					; size = 4
?begin@?$list@V?$basic_string@DV?$char_traits@D@_STL@@V?$allocator@D@2@@_STL@@V?$allocator@V?$basic_string@DV?$char_traits@D@_STL@@V?$allocator@D@2@@_STL@@@2@@_STL@@QBE?AU?$_List_iterator@V?$basic_string@DV?$char_traits@D@_STL@@V?$allocator@D@2@@_STL@@U?$_Const_traits@V?$basic_string@DV?$char_traits@D@_STL@@V?$allocator@D@2@@_STL@@@2@@2@XZ PROC NEAR ; _STL::list<_STL::basic_string<char,_STL::char_traits<char>,_STL::allocator<char> >,_STL::allocator<_STL::basic_string<char,_STL::char_traits<char>,_STL::allocator<char> > > >::begin, COMDAT
; _this$ = ecx

; 267  :   const_iterator begin() const { return const_iterator((_Node*)(this->_M_node._M_data->_M_next)); }

  00000	8b 01		 mov	 eax, DWORD PTR [ecx]
  00002	8b 08		 mov	 ecx, DWORD PTR [eax]
  00004	8b 44 24 04	 mov	 eax, DWORD PTR ___$ReturnUdt$[esp-4]
  00008	89 08		 mov	 DWORD PTR [eax], ecx
  0000a	c2 04 00	 ret	 4
?begin@?$list@V?$basic_string@DV?$char_traits@D@_STL@@V?$allocator@D@2@@_STL@@V?$allocator@V?$basic_string@DV?$char_traits@D@_STL@@V?$allocator@D@2@@_STL@@@2@@_STL@@QBE?AU?$_List_iterator@V?$basic_string@DV?$char_traits@D@_STL@@V?$allocator@D@2@@_STL@@U?$_Const_traits@V?$basic_string@DV?$char_traits@D@_STL@@V?$allocator@D@2@@_STL@@@2@@2@XZ ENDP ; _STL::list<_STL::basic_string<char,_STL::char_traits<char>,_STL::allocator<char> >,_STL::allocator<_STL::basic_string<char,_STL::char_traits<char>,_STL::allocator<char> > > >::begin
_TEXT	ENDS
PUBLIC	?end@?$list@V?$basic_string@DV?$char_traits@D@_STL@@V?$allocator@D@2@@_STL@@V?$allocator@V?$basic_string@DV?$char_traits@D@_STL@@V?$allocator@D@2@@_STL@@@2@@_STL@@QBE?AU?$_List_iterator@V?$basic_string@DV?$char_traits@D@_STL@@V?$allocator@D@2@@_STL@@U?$_Const_traits@V?$basic_string@DV?$char_traits@D@_STL@@V?$allocator@D@2@@_STL@@@2@@2@XZ ; _STL::list<_STL::basic_string<char,_STL::char_traits<char>,_STL::allocator<char> >,_STL::allocator<_STL::basic_string<char,_STL::char_traits<char>,_STL::allocator<char> > > >::end
; Function compile flags: /Ogsy
;	COMDAT ?end@?$list@V?$basic_string@DV?$char_traits@D@_STL@@V?$allocator@D@2@@_STL@@V?$allocator@V?$basic_string@DV?$char_traits@D@_STL@@V?$allocator@D@2@@_STL@@@2@@_STL@@QBE?AU?$_List_iterator@V?$basic_string@DV?$char_traits@D@_STL@@V?$allocator@D@2@@_STL@@U?$_Const_traits@V?$basic_string@DV?$char_traits@D@_STL@@V?$allocator@D@2@@_STL@@@2@@2@XZ
_TEXT	SEGMENT
___$ReturnUdt$ = 8					; size = 4
?end@?$list@V?$basic_string@DV?$char_traits@D@_STL@@V?$allocator@D@2@@_STL@@V?$allocator@V?$basic_string@DV?$char_traits@D@_STL@@V?$allocator@D@2@@_STL@@@2@@_STL@@QBE?AU?$_List_iterator@V?$basic_string@DV?$char_traits@D@_STL@@V?$allocator@D@2@@_STL@@U?$_Const_traits@V?$basic_string@DV?$char_traits@D@_STL@@V?$allocator@D@2@@_STL@@@2@@2@XZ PROC NEAR ; _STL::list<_STL::basic_string<char,_STL::char_traits<char>,_STL::allocator<char> >,_STL::allocator<_STL::basic_string<char,_STL::char_traits<char>,_STL::allocator<char> > > >::end, COMDAT
; _this$ = ecx

; 270  :   const_iterator end() const { return this->_M_node._M_data; }

  00000	8b 09		 mov	 ecx, DWORD PTR [ecx]
  00002	8b 44 24 04	 mov	 eax, DWORD PTR ___$ReturnUdt$[esp-4]
  00006	89 08		 mov	 DWORD PTR [eax], ecx
  00008	c2 04 00	 ret	 4
?end@?$list@V?$basic_string@DV?$char_traits@D@_STL@@V?$allocator@D@2@@_STL@@V?$allocator@V?$basic_string@DV?$char_traits@D@_STL@@V?$allocator@D@2@@_STL@@@2@@_STL@@QBE?AU?$_List_iterator@V?$basic_string@DV?$char_traits@D@_STL@@V?$allocator@D@2@@_STL@@U?$_Const_traits@V?$basic_string@DV?$char_traits@D@_STL@@V?$allocator@D@2@@_STL@@@2@@2@XZ ENDP ; _STL::list<_STL::basic_string<char,_STL::char_traits<char>,_STL::allocator<char> >,_STL::allocator<_STL::basic_string<char,_STL::char_traits<char>,_STL::allocator<char> > > >::end
_TEXT	ENDS
PUBLIC	?begin@?$list@V?$basic_string@DV?$char_traits@D@_STL@@V?$allocator@D@2@@_STL@@V?$allocator@V?$basic_string@DV?$char_traits@D@_STL@@V?$allocator@D@2@@_STL@@@2@@_STL@@QAE?AU?$_List_iterator@V?$basic_string@DV?$char_traits@D@_STL@@V?$allocator@D@2@@_STL@@U?$_Nonconst_traits@V?$basic_string@DV?$char_traits@D@_STL@@V?$allocator@D@2@@_STL@@@2@@2@XZ ; _STL::list<_STL::basic_string<char,_STL::char_traits<char>,_STL::allocator<char> >,_STL::allocator<_STL::basic_string<char,_STL::char_traits<char>,_STL::allocator<char> > > >::begin
; Function compile flags: /Ogsy
;	COMDAT ?begin@?$list@V?$basic_string@DV?$char_traits@D@_STL@@V?$allocator@D@2@@_STL@@V?$allocator@V?$basic_string@DV?$char_traits@D@_STL@@V?$allocator@D@2@@_STL@@@2@@_STL@@QAE?AU?$_List_iterator@V?$basic_string@DV?$char_traits@D@_STL@@V?$allocator@D@2@@_STL@@U?$_Nonconst_traits@V?$basic_string@DV?$char_traits@D@_STL@@V?$allocator@D@2@@_STL@@@2@@2@XZ
_TEXT	SEGMENT
___$ReturnUdt$ = 8					; size = 4
?begin@?$list@V?$basic_string@DV?$char_traits@D@_STL@@V?$allocator@D@2@@_STL@@V?$allocator@V?$basic_string@DV?$char_traits@D@_STL@@V?$allocator@D@2@@_STL@@@2@@_STL@@QAE?AU?$_List_iterator@V?$basic_string@DV?$char_traits@D@_STL@@V?$allocator@D@2@@_STL@@U?$_Nonconst_traits@V?$basic_string@DV?$char_traits@D@_STL@@V?$allocator@D@2@@_STL@@@2@@2@XZ PROC NEAR ; _STL::list<_STL::basic_string<char,_STL::char_traits<char>,_STL::allocator<char> >,_STL::allocator<_STL::basic_string<char,_STL::char_traits<char>,_STL::allocator<char> > > >::begin, COMDAT
; _this$ = ecx

; 266  :   iterator begin()             { return iterator((_Node*)(this->_M_node._M_data->_M_next)); }

  00000	8b 01		 mov	 eax, DWORD PTR [ecx]
  00002	8b 08		 mov	 ecx, DWORD PTR [eax]
  00004	8b 44 24 04	 mov	 eax, DWORD PTR ___$ReturnUdt$[esp-4]
  00008	89 08		 mov	 DWORD PTR [eax], ecx
  0000a	c2 04 00	 ret	 4
?begin@?$list@V?$basic_string@DV?$char_traits@D@_STL@@V?$allocator@D@2@@_STL@@V?$allocator@V?$basic_string@DV?$char_traits@D@_STL@@V?$allocator@D@2@@_STL@@@2@@_STL@@QAE?AU?$_List_iterator@V?$basic_string@DV?$char_traits@D@_STL@@V?$allocator@D@2@@_STL@@U?$_Nonconst_traits@V?$basic_string@DV?$char_traits@D@_STL@@V?$allocator@D@2@@_STL@@@2@@2@XZ ENDP ; _STL::list<_STL::basic_string<char,_STL::char_traits<char>,_STL::allocator<char> >,_STL::allocator<_STL::basic_string<char,_STL::char_traits<char>,_STL::allocator<char> > > >::begin
_TEXT	ENDS
PUBLIC	??1?$_STLP_alloc_proxy@PAU?$_List_node@V?$basic_string@DV?$char_traits@D@_STL@@V?$allocator@D@2@@_STL@@@_STL@@U12@V?$allocator@U?$_List_node@V?$basic_string@DV?$char_traits@D@_STL@@V?$allocator@D@2@@_STL@@@_STL@@@2@@_STL@@QAE@XZ ; _STL::_STLP_alloc_proxy<_STL::_List_node<_STL::basic_string<char,_STL::char_traits<char>,_STL::allocator<char> > > *,_STL::_List_node<_STL::basic_string<char,_STL::char_traits<char>,_STL::allocator<char> > >,_STL::allocator<_STL::_List_node<_STL::basic_string<char,_STL::char_traits<char>,_STL::allocator<char> > > > >::~_STLP_alloc_proxy<_STL::_List_node<_STL::basic_string<char,_STL::char_traits<char>,_STL::allocator<char> > > *,_STL::_List_node<_STL::basic_string<char,_STL::char_traits<char>,_STL::allocator<char> > >,_STL::allocator<_STL::_List_node<_STL::basic_string<char,_STL::char_traits<char>,_STL::allocator<char> > > > >
; Function compile flags: /Ogsy
;	COMDAT ??1?$_STLP_alloc_proxy@PAU?$_List_node@V?$basic_string@DV?$char_traits@D@_STL@@V?$allocator@D@2@@_STL@@@_STL@@U12@V?$allocator@U?$_List_node@V?$basic_string@DV?$char_traits@D@_STL@@V?$allocator@D@2@@_STL@@@_STL@@@2@@_STL@@QAE@XZ
_TEXT	SEGMENT
??1?$_STLP_alloc_proxy@PAU?$_List_node@V?$basic_string@DV?$char_traits@D@_STL@@V?$allocator@D@2@@_STL@@@_STL@@U12@V?$allocator@U?$_List_node@V?$basic_string@DV?$char_traits@D@_STL@@V?$allocator@D@2@@_STL@@@_STL@@@2@@_STL@@QAE@XZ PROC NEAR ; _STL::_STLP_alloc_proxy<_STL::_List_node<_STL::basic_string<char,_STL::char_traits<char>,_STL::allocator<char> > > *,_STL::_List_node<_STL::basic_string<char,_STL::char_traits<char>,_STL::allocator<char> > >,_STL::allocator<_STL::_List_node<_STL::basic_string<char,_STL::char_traits<char>,_STL::allocator<char> > > > >::~_STLP_alloc_proxy<_STL::_List_node<_STL::basic_string<char,_STL::char_traits<char>,_STL::allocator<char> > > *,_STL::_List_node<_STL::basic_string<char,_STL::char_traits<char>,_STL::allocator<char> > >,_STL::allocator<_STL::_List_node<_STL::basic_string<char,_STL::char_traits<char>,_STL::allocator<char> > > > >, COMDAT
; _this$ = ecx
  00000	c3		 ret	 0
??1?$_STLP_alloc_proxy@PAU?$_List_node@V?$basic_string@DV?$char_traits@D@_STL@@V?$allocator@D@2@@_STL@@@_STL@@U12@V?$allocator@U?$_List_node@V?$basic_string@DV?$char_traits@D@_STL@@V?$allocator@D@2@@_STL@@@_STL@@@2@@_STL@@QAE@XZ ENDP ; _STL::_STLP_alloc_proxy<_STL::_List_node<_STL::basic_string<char,_STL::char_traits<char>,_STL::allocator<char> > > *,_STL::_List_node<_STL::basic_string<char,_STL::char_traits<char>,_STL::allocator<char> > >,_STL::allocator<_STL::_List_node<_STL::basic_string<char,_STL::char_traits<char>,_STL::allocator<char> > > > >::~_STLP_alloc_proxy<_STL::_List_node<_STL::basic_string<char,_STL::char_traits<char>,_STL::allocator<char> > > *,_STL::_List_node<_STL::basic_string<char,_STL::char_traits<char>,_STL::allocator<char> > >,_STL::allocator<_STL::_List_node<_STL::basic_string<char,_STL::char_traits<char>,_STL::allocator<char> > > > >
_TEXT	ENDS
PUBLIC	??0?$_STLP_alloc_proxy@PAU?$_List_node@V?$basic_string@DV?$char_traits@D@_STL@@V?$allocator@D@2@@_STL@@@_STL@@U12@V?$allocator@U?$_List_node@V?$basic_string@DV?$char_traits@D@_STL@@V?$allocator@D@2@@_STL@@@_STL@@@2@@_STL@@QAE@ABV?$allocator@U?$_List_node@V?$basic_string@DV?$char_traits@D@_STL@@V?$allocator@D@2@@_STL@@@_STL@@@1@PAU?$_List_node@V?$basic_string@DV?$char_traits@D@_STL@@V?$allocator@D@2@@_STL@@@1@@Z ; _STL::_STLP_alloc_proxy<_STL::_List_node<_STL::basic_string<char,_STL::char_traits<char>,_STL::allocator<char> > > *,_STL::_List_node<_STL::basic_string<char,_STL::char_traits<char>,_STL::allocator<char> > >,_STL::allocator<_STL::_List_node<_STL::basic_string<char,_STL::char_traits<char>,_STL::allocator<char> > > > >::_STLP_alloc_proxy<_STL::_List_node<_STL::basic_string<char,_STL::char_traits<char>,_STL::allocator<char> > > *,_STL::_List_node<_STL::basic_string<char,_STL::char_traits<char>,_STL::allocator<char> > >,_STL::allocator<_STL::_List_node<_STL::basic_string<char,_STL::char_traits<char>,_STL::allocator<char> > > > >
; Function compile flags: /Ogsy
; File c:\stlport-4.6.1\stlport\stl\_alloc.h
;	COMDAT ??0?$_STLP_alloc_proxy@PAU?$_List_node@V?$basic_string@DV?$char_traits@D@_STL@@V?$allocator@D@2@@_STL@@@_STL@@U12@V?$allocator@U?$_List_node@V?$basic_string@DV?$char_traits@D@_STL@@V?$allocator@D@2@@_STL@@@_STL@@@2@@_STL@@QAE@ABV?$allocator@U?$_List_node@V?$basic_string@DV?$char_traits@D@_STL@@V?$allocator@D@2@@_STL@@@_STL@@@1@PAU?$_List_node@V?$basic_string@DV?$char_traits@D@_STL@@V?$allocator@D@2@@_STL@@@1@@Z
_TEXT	SEGMENT
___a$ = 8						; size = 4
___p$ = 12						; size = 4
??0?$_STLP_alloc_proxy@PAU?$_List_node@V?$basic_string@DV?$char_traits@D@_STL@@V?$allocator@D@2@@_STL@@@_STL@@U12@V?$allocator@U?$_List_node@V?$basic_string@DV?$char_traits@D@_STL@@V?$allocator@D@2@@_STL@@@_STL@@@2@@_STL@@QAE@ABV?$allocator@U?$_List_node@V?$basic_string@DV?$char_traits@D@_STL@@V?$allocator@D@2@@_STL@@@_STL@@@1@PAU?$_List_node@V?$basic_string@DV?$char_traits@D@_STL@@V?$allocator@D@2@@_STL@@@1@@Z PROC NEAR ; _STL::_STLP_alloc_proxy<_STL::_List_node<_STL::basic_string<char,_STL::char_traits<char>,_STL::allocator<char> > > *,_STL::_List_node<_STL::basic_string<char,_STL::char_traits<char>,_STL::allocator<char> > >,_STL::allocator<_STL::_List_node<_STL::basic_string<char,_STL::char_traits<char>,_STL::allocator<char> > > > >::_STLP_alloc_proxy<_STL::_List_node<_STL::basic_string<char,_STL::char_traits<char>,_STL::allocator<char> > > *,_STL::_List_node<_STL::basic_string<char,_STL::char_traits<char>,_STL::allocator<char> > >,_STL::allocator<_STL::_List_node<_STL::basic_string<char,_STL::char_traits<char>,_STL::allocator<char> > > > >, COMDAT
; _this$ = ecx

; 487  :   inline _STLP_alloc_proxy(const _MaybeReboundAlloc& __a, _Value __p) : _MaybeReboundAlloc(__a), _M_data(__p) {}

  00000	8b c1		 mov	 eax, ecx
  00002	8b 4c 24 08	 mov	 ecx, DWORD PTR ___p$[esp-4]
  00006	89 08		 mov	 DWORD PTR [eax], ecx
  00008	c2 08 00	 ret	 8
??0?$_STLP_alloc_proxy@PAU?$_List_node@V?$basic_string@DV?$char_traits@D@_STL@@V?$allocator@D@2@@_STL@@@_STL@@U12@V?$allocator@U?$_List_node@V?$basic_string@DV?$char_traits@D@_STL@@V?$allocator@D@2@@_STL@@@_STL@@@2@@_STL@@QAE@ABV?$allocator@U?$_List_node@V?$basic_string@DV?$char_traits@D@_STL@@V?$allocator@D@2@@_STL@@@_STL@@@1@PAU?$_List_node@V?$basic_string@DV?$char_traits@D@_STL@@V?$allocator@D@2@@_STL@@@1@@Z ENDP ; _STL::_STLP_alloc_proxy<_STL::_List_node<_STL::basic_string<char,_STL::char_traits<char>,_STL::allocator<char> > > *,_STL::_List_node<_STL::basic_string<char,_STL::char_traits<char>,_STL::allocator<char> > >,_STL::allocator<_STL::_List_node<_STL::basic_string<char,_STL::char_traits<char>,_STL::allocator<char> > > > >::_STLP_alloc_proxy<_STL::_List_node<_STL::basic_string<char,_STL::char_traits<char>,_STL::allocator<char> > > *,_STL::_List_node<_STL::basic_string<char,_STL::char_traits<char>,_STL::allocator<char> > >,_STL::allocator<_STL::_List_node<_STL::basic_string<char,_STL::char_traits<char>,_STL::allocator<char> > > > >
_TEXT	ENDS
PUBLIC	?allocate@?$allocator@U?$_List_node@V?$basic_string@DV?$char_traits@D@_STL@@V?$allocator@D@2@@_STL@@@_STL@@@_STL@@QAEPAU?$_List_node@V?$basic_string@DV?$char_traits@D@_STL@@V?$allocator@D@2@@_STL@@@2@IPBX@Z ; _STL::allocator<_STL::_List_node<_STL::basic_string<char,_STL::char_traits<char>,_STL::allocator<char> > > >::allocate
; Function compile flags: /Ogsy
;	COMDAT ?allocate@?$allocator@U?$_List_node@V?$basic_string@DV?$char_traits@D@_STL@@V?$allocator@D@2@@_STL@@@_STL@@@_STL@@QAEPAU?$_List_node@V?$basic_string@DV?$char_traits@D@_STL@@V?$allocator@D@2@@_STL@@@2@IPBX@Z
_TEXT	SEGMENT
___n$ = 8						; size = 4
___formal$ = 12						; size = 4
?allocate@?$allocator@U?$_List_node@V?$basic_string@DV?$char_traits@D@_STL@@V?$allocator@D@2@@_STL@@@_STL@@@_STL@@QAEPAU?$_List_node@V?$basic_string@DV?$char_traits@D@_STL@@V?$allocator@D@2@@_STL@@@2@IPBX@Z PROC NEAR ; _STL::allocator<_STL::_List_node<_STL::basic_string<char,_STL::char_traits<char>,_STL::allocator<char> > > >::allocate, COMDAT
; _this$ = ecx

; 355  :     return __n != 0 ? __REINTERPRET_CAST(value_type*,__sgi_alloc::allocate(__n * sizeof(value_type))) : 0;

  00000	8b 44 24 04	 mov	 eax, DWORD PTR ___n$[esp-4]
  00004	85 c0		 test	 eax, eax
  00006	74 0f		 je	 SHORT $L103299
  00008	8d 04 80	 lea	 eax, DWORD PTR [eax+eax*4]
  0000b	c1 e0 02	 shl	 eax, 2
  0000e	50		 push	 eax
  0000f	e8 00 00 00 00	 call	 ?allocate@?$__node_alloc@$00$0A@@_STL@@SAPAXI@Z ; _STL::__node_alloc<1,0>::allocate
  00014	59		 pop	 ecx
  00015	eb 02		 jmp	 SHORT $L103300
$L103299:
  00017	33 c0		 xor	 eax, eax
$L103300:

; 356  :   }

  00019	c2 08 00	 ret	 8
?allocate@?$allocator@U?$_List_node@V?$basic_string@DV?$char_traits@D@_STL@@V?$allocator@D@2@@_STL@@@_STL@@@_STL@@QAEPAU?$_List_node@V?$basic_string@DV?$char_traits@D@_STL@@V?$allocator@D@2@@_STL@@@2@IPBX@Z ENDP ; _STL::allocator<_STL::_List_node<_STL::basic_string<char,_STL::char_traits<char>,_STL::allocator<char> > > >::allocate
_TEXT	ENDS
PUBLIC	?deallocate@?$allocator@U?$_List_node@V?$basic_string@DV?$char_traits@D@_STL@@V?$allocator@D@2@@_STL@@@_STL@@@_STL@@QAEXPAU?$_List_node@V?$basic_string@DV?$char_traits@D@_STL@@V?$allocator@D@2@@_STL@@@2@I@Z ; _STL::allocator<_STL::_List_node<_STL::basic_string<char,_STL::char_traits<char>,_STL::allocator<char> > > >::deallocate
; Function compile flags: /Ogsy
;	COMDAT ?deallocate@?$allocator@U?$_List_node@V?$basic_string@DV?$char_traits@D@_STL@@V?$allocator@D@2@@_STL@@@_STL@@@_STL@@QAEXPAU?$_List_node@V?$basic_string@DV?$char_traits@D@_STL@@V?$allocator@D@2@@_STL@@@2@I@Z
_TEXT	SEGMENT
___p$ = 8						; size = 4
___n$ = 12						; size = 4
?deallocate@?$allocator@U?$_List_node@V?$basic_string@DV?$char_traits@D@_STL@@V?$allocator@D@2@@_STL@@@_STL@@@_STL@@QAEXPAU?$_List_node@V?$basic_string@DV?$char_traits@D@_STL@@V?$allocator@D@2@@_STL@@@2@I@Z PROC NEAR ; _STL::allocator<_STL::_List_node<_STL::basic_string<char,_STL::char_traits<char>,_STL::allocator<char> > > >::deallocate, COMDAT
; _this$ = ecx

; 359  :     _STLP_ASSERT( (__p == 0) == (__n == 0) )
; 360  :       if (__p != 0) __sgi_alloc::deallocate((void*)__p, __n * sizeof(value_type));

  00000	83 7c 24 04 00	 cmp	 DWORD PTR ___p$[esp-4], 0
  00005	74 16		 je	 SHORT $L98656
  00007	8b 44 24 08	 mov	 eax, DWORD PTR ___n$[esp-4]
  0000b	8d 04 80	 lea	 eax, DWORD PTR [eax+eax*4]
  0000e	c1 e0 02	 shl	 eax, 2
  00011	50		 push	 eax
  00012	ff 74 24 08	 push	 DWORD PTR ___p$[esp]
  00016	e8 00 00 00 00	 call	 ?deallocate@?$__node_alloc@$00$0A@@_STL@@SAXPAXI@Z ; _STL::__node_alloc<1,0>::deallocate
  0001b	59		 pop	 ecx
  0001c	59		 pop	 ecx
$L98656:

; 361  :   }

  0001d	c2 08 00	 ret	 8
?deallocate@?$allocator@U?$_List_node@V?$basic_string@DV?$char_traits@D@_STL@@V?$allocator@D@2@@_STL@@@_STL@@@_STL@@QAEXPAU?$_List_node@V?$basic_string@DV?$char_traits@D@_STL@@V?$allocator@D@2@@_STL@@@2@I@Z ENDP ; _STL::allocator<_STL::_List_node<_STL::basic_string<char,_STL::char_traits<char>,_STL::allocator<char> > > >::deallocate
_TEXT	ENDS
PUBLIC	?deallocate@?$allocator@D@_STL@@QAEXPADI@Z	; _STL::allocator<char>::deallocate
; Function compile flags: /Ogsy
;	COMDAT ?deallocate@?$allocator@D@_STL@@QAEXPADI@Z
_TEXT	SEGMENT
___p$ = 8						; size = 4
___n$ = 12						; size = 4
?deallocate@?$allocator@D@_STL@@QAEXPADI@Z PROC NEAR	; _STL::allocator<char>::deallocate, COMDAT
; _this$ = ecx

; 359  :     _STLP_ASSERT( (__p == 0) == (__n == 0) )
; 360  :       if (__p != 0) __sgi_alloc::deallocate((void*)__p, __n * sizeof(value_type));

  00000	83 7c 24 04 00	 cmp	 DWORD PTR ___p$[esp-4], 0
  00005	74 0f		 je	 SHORT $L98663
  00007	ff 74 24 08	 push	 DWORD PTR ___n$[esp-4]
  0000b	ff 74 24 08	 push	 DWORD PTR ___p$[esp]
  0000f	e8 00 00 00 00	 call	 ?deallocate@?$__node_alloc@$00$0A@@_STL@@SAXPAXI@Z ; _STL::__node_alloc<1,0>::deallocate
  00014	59		 pop	 ecx
  00015	59		 pop	 ecx
$L98663:

; 361  :   }

  00016	c2 08 00	 ret	 8
?deallocate@?$allocator@D@_STL@@QAEXPADI@Z ENDP		; _STL::allocator<char>::deallocate
_TEXT	ENDS
PUBLIC	??0?$_String_base@DV?$allocator@D@_STL@@@_STL@@QAE@ABV?$allocator@D@1@@Z ; _STL::_String_base<char,_STL::allocator<char> >::_String_base<char,_STL::allocator<char> >
; Function compile flags: /Ogsy
; File c:\stlport-4.6.1\stlport\stl\_string.h
;	COMDAT ??0?$_String_base@DV?$allocator@D@_STL@@@_STL@@QAE@ABV?$allocator@D@1@@Z
_TEXT	SEGMENT
___a$ = 8						; size = 4
??0?$_String_base@DV?$allocator@D@_STL@@@_STL@@QAE@ABV?$allocator@D@1@@Z PROC NEAR ; _STL::_String_base<char,_STL::allocator<char> >::_String_base<char,_STL::allocator<char> >, COMDAT
; _this$ = ecx

; 129  :     : _M_start(0), _M_finish(0), _M_end_of_storage(__a, (_Tp*)0) {}

  00000	56		 push	 esi
  00001	33 c0		 xor	 eax, eax
  00003	8b f1		 mov	 esi, ecx
  00005	50		 push	 eax
  00006	ff 74 24 0c	 push	 DWORD PTR ___a$[esp+4]
  0000a	8d 4e 08	 lea	 ecx, DWORD PTR [esi+8]
  0000d	89 06		 mov	 DWORD PTR [esi], eax
  0000f	89 46 04	 mov	 DWORD PTR [esi+4], eax
  00012	e8 00 00 00 00	 call	 ??0?$_STLP_alloc_proxy@PADDV?$allocator@D@_STL@@@_STL@@QAE@ABV?$allocator@D@1@PAD@Z ; _STL::_STLP_alloc_proxy<char *,char,_STL::allocator<char> >::_STLP_alloc_proxy<char *,char,_STL::allocator<char> >
  00017	8b c6		 mov	 eax, esi
  00019	5e		 pop	 esi
  0001a	c2 04 00	 ret	 4
??0?$_String_base@DV?$allocator@D@_STL@@@_STL@@QAE@ABV?$allocator@D@1@@Z ENDP ; _STL::_String_base<char,_STL::allocator<char> >::_String_base<char,_STL::allocator<char> >
_TEXT	ENDS
PUBLIC	?begin@?$list@GV?$allocator@G@_STL@@@_STL@@QAE?AU?$_List_iterator@GU?$_Nonconst_traits@G@_STL@@@2@XZ ; _STL::list<unsigned short,_STL::allocator<unsigned short> >::begin
; Function compile flags: /Ogsy
; File c:\stlport-4.6.1\stlport\stl\_list.h
;	COMDAT ?begin@?$list@GV?$allocator@G@_STL@@@_STL@@QAE?AU?$_List_iterator@GU?$_Nonconst_traits@G@_STL@@@2@XZ
_TEXT	SEGMENT
___$ReturnUdt$ = 8					; size = 4
?begin@?$list@GV?$allocator@G@_STL@@@_STL@@QAE?AU?$_List_iterator@GU?$_Nonconst_traits@G@_STL@@@2@XZ PROC NEAR ; _STL::list<unsigned short,_STL::allocator<unsigned short> >::begin, COMDAT
; _this$ = ecx

; 266  :   iterator begin()             { return iterator((_Node*)(this->_M_node._M_data->_M_next)); }

  00000	8b 01		 mov	 eax, DWORD PTR [ecx]
  00002	8b 08		 mov	 ecx, DWORD PTR [eax]
  00004	8b 44 24 04	 mov	 eax, DWORD PTR ___$ReturnUdt$[esp-4]
  00008	89 08		 mov	 DWORD PTR [eax], ecx
  0000a	c2 04 00	 ret	 4
?begin@?$list@GV?$allocator@G@_STL@@@_STL@@QAE?AU?$_List_iterator@GU?$_Nonconst_traits@G@_STL@@@2@XZ ENDP ; _STL::list<unsigned short,_STL::allocator<unsigned short> >::begin
_TEXT	ENDS
PUBLIC	?begin@?$list@GV?$allocator@G@_STL@@@_STL@@QBE?AU?$_List_iterator@GU?$_Const_traits@G@_STL@@@2@XZ ; _STL::list<unsigned short,_STL::allocator<unsigned short> >::begin
; Function compile flags: /Ogsy
;	COMDAT ?begin@?$list@GV?$allocator@G@_STL@@@_STL@@QBE?AU?$_List_iterator@GU?$_Const_traits@G@_STL@@@2@XZ
_TEXT	SEGMENT
___$ReturnUdt$ = 8					; size = 4
?begin@?$list@GV?$allocator@G@_STL@@@_STL@@QBE?AU?$_List_iterator@GU?$_Const_traits@G@_STL@@@2@XZ PROC NEAR ; _STL::list<unsigned short,_STL::allocator<unsigned short> >::begin, COMDAT
; _this$ = ecx

; 267  :   const_iterator begin() const { return const_iterator((_Node*)(this->_M_node._M_data->_M_next)); }

  00000	8b 01		 mov	 eax, DWORD PTR [ecx]
  00002	8b 08		 mov	 ecx, DWORD PTR [eax]
  00004	8b 44 24 04	 mov	 eax, DWORD PTR ___$ReturnUdt$[esp-4]
  00008	89 08		 mov	 DWORD PTR [eax], ecx
  0000a	c2 04 00	 ret	 4
?begin@?$list@GV?$allocator@G@_STL@@@_STL@@QBE?AU?$_List_iterator@GU?$_Const_traits@G@_STL@@@2@XZ ENDP ; _STL::list<unsigned short,_STL::allocator<unsigned short> >::begin
_TEXT	ENDS
PUBLIC	?end@?$list@GV?$allocator@G@_STL@@@_STL@@QAE?AU?$_List_iterator@GU?$_Nonconst_traits@G@_STL@@@2@XZ ; _STL::list<unsigned short,_STL::allocator<unsigned short> >::end
; Function compile flags: /Ogsy
;	COMDAT ?end@?$list@GV?$allocator@G@_STL@@@_STL@@QAE?AU?$_List_iterator@GU?$_Nonconst_traits@G@_STL@@@2@XZ
_TEXT	SEGMENT
___$ReturnUdt$ = 8					; size = 4
?end@?$list@GV?$allocator@G@_STL@@@_STL@@QAE?AU?$_List_iterator@GU?$_Nonconst_traits@G@_STL@@@2@XZ PROC NEAR ; _STL::list<unsigned short,_STL::allocator<unsigned short> >::end, COMDAT
; _this$ = ecx

; 269  :   iterator end()             { return this->_M_node._M_data; }

  00000	8b 09		 mov	 ecx, DWORD PTR [ecx]
  00002	8b 44 24 04	 mov	 eax, DWORD PTR ___$ReturnUdt$[esp-4]
  00006	89 08		 mov	 DWORD PTR [eax], ecx
  00008	c2 04 00	 ret	 4
?end@?$list@GV?$allocator@G@_STL@@@_STL@@QAE?AU?$_List_iterator@GU?$_Nonconst_traits@G@_STL@@@2@XZ ENDP ; _STL::list<unsigned short,_STL::allocator<unsigned short> >::end
_TEXT	ENDS
PUBLIC	?end@?$list@GV?$allocator@G@_STL@@@_STL@@QBE?AU?$_List_iterator@GU?$_Const_traits@G@_STL@@@2@XZ ; _STL::list<unsigned short,_STL::allocator<unsigned short> >::end
; Function compile flags: /Ogsy
;	COMDAT ?end@?$list@GV?$allocator@G@_STL@@@_STL@@QBE?AU?$_List_iterator@GU?$_Const_traits@G@_STL@@@2@XZ
_TEXT	SEGMENT
___$ReturnUdt$ = 8					; size = 4
?end@?$list@GV?$allocator@G@_STL@@@_STL@@QBE?AU?$_List_iterator@GU?$_Const_traits@G@_STL@@@2@XZ PROC NEAR ; _STL::list<unsigned short,_STL::allocator<unsigned short> >::end, COMDAT
; _this$ = ecx

; 270  :   const_iterator end() const { return this->_M_node._M_data; }

  00000	8b 09		 mov	 ecx, DWORD PTR [ecx]
  00002	8b 44 24 04	 mov	 eax, DWORD PTR ___$ReturnUdt$[esp-4]
  00006	89 08		 mov	 DWORD PTR [eax], ecx
  00008	c2 04 00	 ret	 4
?end@?$list@GV?$allocator@G@_STL@@@_STL@@QBE?AU?$_List_iterator@GU?$_Const_traits@G@_STL@@@2@XZ ENDP ; _STL::list<unsigned short,_STL::allocator<unsigned short> >::end
_TEXT	ENDS
PUBLIC	?begin@?$list@PAU_WeekItemInfo@@V?$allocator@PAU_WeekItemInfo@@@_STL@@@_STL@@QAE?AU?$_List_iterator@PAU_WeekItemInfo@@U?$_Nonconst_traits@PAU_WeekItemInfo@@@_STL@@@2@XZ ; _STL::list<_WeekItemInfo *,_STL::allocator<_WeekItemInfo *> >::begin
; Function compile flags: /Ogsy
;	COMDAT ?begin@?$list@PAU_WeekItemInfo@@V?$allocator@PAU_WeekItemInfo@@@_STL@@@_STL@@QAE?AU?$_List_iterator@PAU_WeekItemInfo@@U?$_Nonconst_traits@PAU_WeekItemInfo@@@_STL@@@2@XZ
_TEXT	SEGMENT
___$ReturnUdt$ = 8					; size = 4
?begin@?$list@PAU_WeekItemInfo@@V?$allocator@PAU_WeekItemInfo@@@_STL@@@_STL@@QAE?AU?$_List_iterator@PAU_WeekItemInfo@@U?$_Nonconst_traits@PAU_WeekItemInfo@@@_STL@@@2@XZ PROC NEAR ; _STL::list<_WeekItemInfo *,_STL::allocator<_WeekItemInfo *> >::begin, COMDAT
; _this$ = ecx

; 266  :   iterator begin()             { return iterator((_Node*)(this->_M_node._M_data->_M_next)); }

  00000	8b 01		 mov	 eax, DWORD PTR [ecx]
  00002	8b 08		 mov	 ecx, DWORD PTR [eax]
  00004	8b 44 24 04	 mov	 eax, DWORD PTR ___$ReturnUdt$[esp-4]
  00008	89 08		 mov	 DWORD PTR [eax], ecx
  0000a	c2 04 00	 ret	 4
?begin@?$list@PAU_WeekItemInfo@@V?$allocator@PAU_WeekItemInfo@@@_STL@@@_STL@@QAE?AU?$_List_iterator@PAU_WeekItemInfo@@U?$_Nonconst_traits@PAU_WeekItemInfo@@@_STL@@@2@XZ ENDP ; _STL::list<_WeekItemInfo *,_STL::allocator<_WeekItemInfo *> >::begin
_TEXT	ENDS
PUBLIC	?begin@?$list@PAU_WeekItemInfo@@V?$allocator@PAU_WeekItemInfo@@@_STL@@@_STL@@QBE?AU?$_List_iterator@PAU_WeekItemInfo@@U?$_Const_traits@PAU_WeekItemInfo@@@_STL@@@2@XZ ; _STL::list<_WeekItemInfo *,_STL::allocator<_WeekItemInfo *> >::begin
; Function compile flags: /Ogsy
;	COMDAT ?begin@?$list@PAU_WeekItemInfo@@V?$allocator@PAU_WeekItemInfo@@@_STL@@@_STL@@QBE?AU?$_List_iterator@PAU_WeekItemInfo@@U?$_Const_traits@PAU_WeekItemInfo@@@_STL@@@2@XZ
_TEXT	SEGMENT
___$ReturnUdt$ = 8					; size = 4
?begin@?$list@PAU_WeekItemInfo@@V?$allocator@PAU_WeekItemInfo@@@_STL@@@_STL@@QBE?AU?$_List_iterator@PAU_WeekItemInfo@@U?$_Const_traits@PAU_WeekItemInfo@@@_STL@@@2@XZ PROC NEAR ; _STL::list<_WeekItemInfo *,_STL::allocator<_WeekItemInfo *> >::begin, COMDAT
; _this$ = ecx

; 267  :   const_iterator begin() const { return const_iterator((_Node*)(this->_M_node._M_data->_M_next)); }

  00000	8b 01		 mov	 eax, DWORD PTR [ecx]
  00002	8b 08		 mov	 ecx, DWORD PTR [eax]
  00004	8b 44 24 04	 mov	 eax, DWORD PTR ___$ReturnUdt$[esp-4]
  00008	89 08		 mov	 DWORD PTR [eax], ecx
  0000a	c2 04 00	 ret	 4
?begin@?$list@PAU_WeekItemInfo@@V?$allocator@PAU_WeekItemInfo@@@_STL@@@_STL@@QBE?AU?$_List_iterator@PAU_WeekItemInfo@@U?$_Const_traits@PAU_WeekItemInfo@@@_STL@@@2@XZ ENDP ; _STL::list<_WeekItemInfo *,_STL::allocator<_WeekItemInfo *> >::begin
_TEXT	ENDS
PUBLIC	?end@?$list@PAU_WeekItemInfo@@V?$allocator@PAU_WeekItemInfo@@@_STL@@@_STL@@QAE?AU?$_List_iterator@PAU_WeekItemInfo@@U?$_Nonconst_traits@PAU_WeekItemInfo@@@_STL@@@2@XZ ; _STL::list<_WeekItemInfo *,_STL::allocator<_WeekItemInfo *> >::end
; Function compile flags: /Ogsy
;	COMDAT ?end@?$list@PAU_WeekItemInfo@@V?$allocator@PAU_WeekItemInfo@@@_STL@@@_STL@@QAE?AU?$_List_iterator@PAU_WeekItemInfo@@U?$_Nonconst_traits@PAU_WeekItemInfo@@@_STL@@@2@XZ
_TEXT	SEGMENT
___$ReturnUdt$ = 8					; size = 4
?end@?$list@PAU_WeekItemInfo@@V?$allocator@PAU_WeekItemInfo@@@_STL@@@_STL@@QAE?AU?$_List_iterator@PAU_WeekItemInfo@@U?$_Nonconst_traits@PAU_WeekItemInfo@@@_STL@@@2@XZ PROC NEAR ; _STL::list<_WeekItemInfo *,_STL::allocator<_WeekItemInfo *> >::end, COMDAT
; _this$ = ecx

; 269  :   iterator end()             { return this->_M_node._M_data; }

  00000	8b 09		 mov	 ecx, DWORD PTR [ecx]
  00002	8b 44 24 04	 mov	 eax, DWORD PTR ___$ReturnUdt$[esp-4]
  00006	89 08		 mov	 DWORD PTR [eax], ecx
  00008	c2 04 00	 ret	 4
?end@?$list@PAU_WeekItemInfo@@V?$allocator@PAU_WeekItemInfo@@@_STL@@@_STL@@QAE?AU?$_List_iterator@PAU_WeekItemInfo@@U?$_Nonconst_traits@PAU_WeekItemInfo@@@_STL@@@2@XZ ENDP ; _STL::list<_WeekItemInfo *,_STL::allocator<_WeekItemInfo *> >::end
_TEXT	ENDS
PUBLIC	?end@?$list@PAU_WeekItemInfo@@V?$allocator@PAU_WeekItemInfo@@@_STL@@@_STL@@QBE?AU?$_List_iterator@PAU_WeekItemInfo@@U?$_Const_traits@PAU_WeekItemInfo@@@_STL@@@2@XZ ; _STL::list<_WeekItemInfo *,_STL::allocator<_WeekItemInfo *> >::end
; Function compile flags: /Ogsy
;	COMDAT ?end@?$list@PAU_WeekItemInfo@@V?$allocator@PAU_WeekItemInfo@@@_STL@@@_STL@@QBE?AU?$_List_iterator@PAU_WeekItemInfo@@U?$_Const_traits@PAU_WeekItemInfo@@@_STL@@@2@XZ
_TEXT	SEGMENT
___$ReturnUdt$ = 8					; size = 4
?end@?$list@PAU_WeekItemInfo@@V?$allocator@PAU_WeekItemInfo@@@_STL@@@_STL@@QBE?AU?$_List_iterator@PAU_WeekItemInfo@@U?$_Const_traits@PAU_WeekItemInfo@@@_STL@@@2@XZ PROC NEAR ; _STL::list<_WeekItemInfo *,_STL::allocator<_WeekItemInfo *> >::end, COMDAT
; _this$ = ecx

; 270  :   const_iterator end() const { return this->_M_node._M_data; }

  00000	8b 09		 mov	 ecx, DWORD PTR [ecx]
  00002	8b 44 24 04	 mov	 eax, DWORD PTR ___$ReturnUdt$[esp-4]
  00006	89 08		 mov	 DWORD PTR [eax], ecx
  00008	c2 04 00	 ret	 4
?end@?$list@PAU_WeekItemInfo@@V?$allocator@PAU_WeekItemInfo@@@_STL@@@_STL@@QBE?AU?$_List_iterator@PAU_WeekItemInfo@@U?$_Const_traits@PAU_WeekItemInfo@@@_STL@@@2@XZ ENDP ; _STL::list<_WeekItemInfo *,_STL::allocator<_WeekItemInfo *> >::end
_TEXT	ENDS
PUBLIC	??0?$_List_base@GV?$allocator@G@_STL@@@_STL@@QAE@ABV?$allocator@G@1@@Z ; _STL::_List_base<unsigned short,_STL::allocator<unsigned short> >::_List_base<unsigned short,_STL::allocator<unsigned short> >
; Function compile flags: /Ogsy
;	COMDAT ??0?$_List_base@GV?$allocator@G@_STL@@@_STL@@QAE@ABV?$allocator@G@1@@Z
_TEXT	SEGMENT
$T103409 = -1						; size = 1
___a$ = 8						; size = 4
??0?$_List_base@GV?$allocator@G@_STL@@@_STL@@QAE@ABV?$allocator@G@1@@Z PROC NEAR ; _STL::_List_base<unsigned short,_STL::allocator<unsigned short> >::_List_base<unsigned short,_STL::allocator<unsigned short> >, COMDAT
; _this$ = ecx

; 182  :   _List_base(const allocator_type& __a) : _M_node(_STLP_CONVERT_ALLOCATOR(__a, _Node), (_Node*)0) {

  00000	51		 push	 ecx
  00001	56		 push	 esi
  00002	6a 00		 push	 0
  00004	8d 44 24 0b	 lea	 eax, DWORD PTR $T103409[esp+12]
  00008	50		 push	 eax
  00009	8b f1		 mov	 esi, ecx
  0000b	e8 00 00 00 00	 call	 ??0?$_STLP_alloc_proxy@PAU?$_List_node@G@_STL@@U12@V?$allocator@U?$_List_node@G@_STL@@@2@@_STL@@QAE@ABV?$allocator@U?$_List_node@G@_STL@@@1@PAU?$_List_node@G@1@@Z ; _STL::_STLP_alloc_proxy<_STL::_List_node<unsigned short> *,_STL::_List_node<unsigned short>,_STL::allocator<_STL::_List_node<unsigned short> > >::_STLP_alloc_proxy<_STL::_List_node<unsigned short> *,_STL::_List_node<unsigned short>,_STL::allocator<_STL::_List_node<unsigned short> > >

; 183  :     _Node* __n = _M_node.allocate(1);

  00010	6a 0c		 push	 12			; 0000000cH
  00012	e8 00 00 00 00	 call	 ?allocate@?$__node_alloc@$00$0A@@_STL@@SAPAXI@Z ; _STL::__node_alloc<1,0>::allocate

; 184  :     __n->_M_next = __n;

  00017	89 00		 mov	 DWORD PTR [eax], eax

; 185  :     __n->_M_prev = __n;

  00019	89 40 04	 mov	 DWORD PTR [eax+4], eax

; 186  :     _M_node._M_data = __n;

  0001c	89 06		 mov	 DWORD PTR [esi], eax
  0001e	59		 pop	 ecx

; 187  :   }

  0001f	8b c6		 mov	 eax, esi
  00021	5e		 pop	 esi
  00022	59		 pop	 ecx
  00023	c2 04 00	 ret	 4
??0?$_List_base@GV?$allocator@G@_STL@@@_STL@@QAE@ABV?$allocator@G@1@@Z ENDP ; _STL::_List_base<unsigned short,_STL::allocator<unsigned short> >::_List_base<unsigned short,_STL::allocator<unsigned short> >
_TEXT	ENDS
PUBLIC	??1?$_List_base@GV?$allocator@G@_STL@@@_STL@@QAE@XZ ; _STL::_List_base<unsigned short,_STL::allocator<unsigned short> >::~_List_base<unsigned short,_STL::allocator<unsigned short> >
; Function compile flags: /Ogsy
;	COMDAT ??1?$_List_base@GV?$allocator@G@_STL@@@_STL@@QAE@XZ
_TEXT	SEGMENT
??1?$_List_base@GV?$allocator@G@_STL@@@_STL@@QAE@XZ PROC NEAR ; _STL::_List_base<unsigned short,_STL::allocator<unsigned short> >::~_List_base<unsigned short,_STL::allocator<unsigned short> >, COMDAT
; _this$ = ecx

; 188  :   ~_List_base() {

  00000	56		 push	 esi
  00001	8b f1		 mov	 esi, ecx

; 189  :     clear();

  00003	e8 00 00 00 00	 call	 ?clear@?$_List_base@GV?$allocator@G@_STL@@@_STL@@QAEXXZ ; _STL::_List_base<unsigned short,_STL::allocator<unsigned short> >::clear

; 190  :     _M_node.deallocate(_M_node._M_data, 1);

  00008	6a 01		 push	 1
  0000a	ff 36		 push	 DWORD PTR [esi]
  0000c	8b ce		 mov	 ecx, esi
  0000e	e8 00 00 00 00	 call	 ?deallocate@?$allocator@U?$_List_node@G@_STL@@@_STL@@QAEXPAU?$_List_node@G@2@I@Z ; _STL::allocator<_STL::_List_node<unsigned short> >::deallocate
  00013	5e		 pop	 esi

; 191  :   }

  00014	c3		 ret	 0
??1?$_List_base@GV?$allocator@G@_STL@@@_STL@@QAE@XZ ENDP ; _STL::_List_base<unsigned short,_STL::allocator<unsigned short> >::~_List_base<unsigned short,_STL::allocator<unsigned short> >
_TEXT	ENDS
PUBLIC	??0?$_List_base@PAU_WeekItemInfo@@V?$allocator@PAU_WeekItemInfo@@@_STL@@@_STL@@QAE@ABV?$allocator@PAU_WeekItemInfo@@@1@@Z ; _STL::_List_base<_WeekItemInfo *,_STL::allocator<_WeekItemInfo *> >::_List_base<_WeekItemInfo *,_STL::allocator<_WeekItemInfo *> >
; Function compile flags: /Ogsy
;	COMDAT ??0?$_List_base@PAU_WeekItemInfo@@V?$allocator@PAU_WeekItemInfo@@@_STL@@@_STL@@QAE@ABV?$allocator@PAU_WeekItemInfo@@@1@@Z
_TEXT	SEGMENT
$T103426 = -1						; size = 1
___a$ = 8						; size = 4
??0?$_List_base@PAU_WeekItemInfo@@V?$allocator@PAU_WeekItemInfo@@@_STL@@@_STL@@QAE@ABV?$allocator@PAU_WeekItemInfo@@@1@@Z PROC NEAR ; _STL::_List_base<_WeekItemInfo *,_STL::allocator<_WeekItemInfo *> >::_List_base<_WeekItemInfo *,_STL::allocator<_WeekItemInfo *> >, COMDAT
; _this$ = ecx

; 182  :   _List_base(const allocator_type& __a) : _M_node(_STLP_CONVERT_ALLOCATOR(__a, _Node), (_Node*)0) {

  00000	51		 push	 ecx
  00001	56		 push	 esi
  00002	6a 00		 push	 0
  00004	8d 44 24 0b	 lea	 eax, DWORD PTR $T103426[esp+12]
  00008	50		 push	 eax
  00009	8b f1		 mov	 esi, ecx
  0000b	e8 00 00 00 00	 call	 ??0?$_STLP_alloc_proxy@PAU?$_List_node@PAU_WeekItemInfo@@@_STL@@U12@V?$allocator@U?$_List_node@PAU_WeekItemInfo@@@_STL@@@2@@_STL@@QAE@ABV?$allocator@U?$_List_node@PAU_WeekItemInfo@@@_STL@@@1@PAU?$_List_node@PAU_WeekItemInfo@@@1@@Z ; _STL::_STLP_alloc_proxy<_STL::_List_node<_WeekItemInfo *> *,_STL::_List_node<_WeekItemInfo *>,_STL::allocator<_STL::_List_node<_WeekItemInfo *> > >::_STLP_alloc_proxy<_STL::_List_node<_WeekItemInfo *> *,_STL::_List_node<_WeekItemInfo *>,_STL::allocator<_STL::_List_node<_WeekItemInfo *> > >

; 183  :     _Node* __n = _M_node.allocate(1);

  00010	6a 0c		 push	 12			; 0000000cH
  00012	e8 00 00 00 00	 call	 ?allocate@?$__node_alloc@$00$0A@@_STL@@SAPAXI@Z ; _STL::__node_alloc<1,0>::allocate

; 184  :     __n->_M_next = __n;

  00017	89 00		 mov	 DWORD PTR [eax], eax

; 185  :     __n->_M_prev = __n;

  00019	89 40 04	 mov	 DWORD PTR [eax+4], eax

; 186  :     _M_node._M_data = __n;

  0001c	89 06		 mov	 DWORD PTR [esi], eax
  0001e	59		 pop	 ecx

; 187  :   }

  0001f	8b c6		 mov	 eax, esi
  00021	5e		 pop	 esi
  00022	59		 pop	 ecx
  00023	c2 04 00	 ret	 4
??0?$_List_base@PAU_WeekItemInfo@@V?$allocator@PAU_WeekItemInfo@@@_STL@@@_STL@@QAE@ABV?$allocator@PAU_WeekItemInfo@@@1@@Z ENDP ; _STL::_List_base<_WeekItemInfo *,_STL::allocator<_WeekItemInfo *> >::_List_base<_WeekItemInfo *,_STL::allocator<_WeekItemInfo *> >
_TEXT	ENDS
PUBLIC	??1?$_List_base@PAU_WeekItemInfo@@V?$allocator@PAU_WeekItemInfo@@@_STL@@@_STL@@QAE@XZ ; _STL::_List_base<_WeekItemInfo *,_STL::allocator<_WeekItemInfo *> >::~_List_base<_WeekItemInfo *,_STL::allocator<_WeekItemInfo *> >
; Function compile flags: /Ogsy
;	COMDAT ??1?$_List_base@PAU_WeekItemInfo@@V?$allocator@PAU_WeekItemInfo@@@_STL@@@_STL@@QAE@XZ
_TEXT	SEGMENT
??1?$_List_base@PAU_WeekItemInfo@@V?$allocator@PAU_WeekItemInfo@@@_STL@@@_STL@@QAE@XZ PROC NEAR ; _STL::_List_base<_WeekItemInfo *,_STL::allocator<_WeekItemInfo *> >::~_List_base<_WeekItemInfo *,_STL::allocator<_WeekItemInfo *> >, COMDAT
; _this$ = ecx

; 188  :   ~_List_base() {

  00000	56		 push	 esi
  00001	8b f1		 mov	 esi, ecx

; 189  :     clear();

  00003	e8 00 00 00 00	 call	 ?clear@?$_List_base@PAU_WeekItemInfo@@V?$allocator@PAU_WeekItemInfo@@@_STL@@@_STL@@QAEXXZ ; _STL::_List_base<_WeekItemInfo *,_STL::allocator<_WeekItemInfo *> >::clear

; 190  :     _M_node.deallocate(_M_node._M_data, 1);

  00008	6a 01		 push	 1
  0000a	ff 36		 push	 DWORD PTR [esi]
  0000c	8b ce		 mov	 ecx, esi
  0000e	e8 00 00 00 00	 call	 ?deallocate@?$allocator@U?$_List_node@PAU_WeekItemInfo@@@_STL@@@_STL@@QAEXPAU?$_List_node@PAU_WeekItemInfo@@@2@I@Z ; _STL::allocator<_STL::_List_node<_WeekItemInfo *> >::deallocate
  00013	5e		 pop	 esi

; 191  :   }

  00014	c3		 ret	 0
??1?$_List_base@PAU_WeekItemInfo@@V?$allocator@PAU_WeekItemInfo@@@_STL@@@_STL@@QAE@XZ ENDP ; _STL::_List_base<_WeekItemInfo *,_STL::allocator<_WeekItemInfo *> >::~_List_base<_WeekItemInfo *,_STL::allocator<_WeekItemInfo *> >
_TEXT	ENDS
PUBLIC	?_M_create_node@?$list@GV?$allocator@G@_STL@@@_STL@@IAEPAU?$_List_node@G@2@ABG@Z ; _STL::list<unsigned short,_STL::allocator<unsigned short> >::_M_create_node
EXTRN	__CxxThrowException@8:NEAR
; Function compile flags: /Ogsy
;	COMDAT ?_M_create_node@?$list@GV?$allocator@G@_STL@@@_STL@@IAEPAU?$_List_node@G@2@ABG@Z
_TEXT	SEGMENT
___x$ = 8						; size = 4
?_M_create_node@?$list@GV?$allocator@G@_STL@@@_STL@@IAEPAU?$_List_node@G@2@ABG@Z PROC NEAR ; _STL::list<unsigned short,_STL::allocator<unsigned short> >::_M_create_node, COMDAT
; _this$ = ecx

; 241  :     _Node* __p = this->_M_node.allocate(1);

  00000	6a 0c		 push	 12			; 0000000cH
  00002	e8 00 00 00 00	 call	 ?allocate@?$__node_alloc@$00$0A@@_STL@@SAPAXI@Z ; _STL::__node_alloc<1,0>::allocate
  00007	59		 pop	 ecx

; 242  :     _STLP_TRY {
; 243  :       _Construct(&__p->_M_data, __x);

  00008	8d 48 08	 lea	 ecx, DWORD PTR [eax+8]
  0000b	85 c9		 test	 ecx, ecx
  0000d	74 0a		 je	 SHORT $L103462
  0000f	8b 54 24 04	 mov	 edx, DWORD PTR ___x$[esp-4]
  00013	66 8b 12	 mov	 dx, WORD PTR [edx]
  00016	66 89 11	 mov	 WORD PTR [ecx], dx
$L103462:

; 244  :     }
; 245  :     _STLP_UNWIND(this->_M_node.deallocate(__p, 1));
; 246  :     return __p;
; 247  :   }

  00019	c2 04 00	 ret	 4
?_M_create_node@?$list@GV?$allocator@G@_STL@@@_STL@@IAEPAU?$_List_node@G@2@ABG@Z ENDP ; _STL::list<unsigned short,_STL::allocator<unsigned short> >::_M_create_node
_TEXT	ENDS
PUBLIC	?_M_create_node@?$list@PAU_WeekItemInfo@@V?$allocator@PAU_WeekItemInfo@@@_STL@@@_STL@@IAEPAU?$_List_node@PAU_WeekItemInfo@@@2@ABQAU_WeekItemInfo@@@Z ; _STL::list<_WeekItemInfo *,_STL::allocator<_WeekItemInfo *> >::_M_create_node
; Function compile flags: /Ogsy
;	COMDAT ?_M_create_node@?$list@PAU_WeekItemInfo@@V?$allocator@PAU_WeekItemInfo@@@_STL@@@_STL@@IAEPAU?$_List_node@PAU_WeekItemInfo@@@2@ABQAU_WeekItemInfo@@@Z
_TEXT	SEGMENT
___x$ = 8						; size = 4
?_M_create_node@?$list@PAU_WeekItemInfo@@V?$allocator@PAU_WeekItemInfo@@@_STL@@@_STL@@IAEPAU?$_List_node@PAU_WeekItemInfo@@@2@ABQAU_WeekItemInfo@@@Z PROC NEAR ; _STL::list<_WeekItemInfo *,_STL::allocator<_WeekItemInfo *> >::_M_create_node, COMDAT
; _this$ = ecx

; 241  :     _Node* __p = this->_M_node.allocate(1);

  00000	6a 0c		 push	 12			; 0000000cH
  00002	e8 00 00 00 00	 call	 ?allocate@?$__node_alloc@$00$0A@@_STL@@SAPAXI@Z ; _STL::__node_alloc<1,0>::allocate
  00007	59		 pop	 ecx

; 242  :     _STLP_TRY {
; 243  :       _Construct(&__p->_M_data, __x);

  00008	8d 48 08	 lea	 ecx, DWORD PTR [eax+8]
  0000b	85 c9		 test	 ecx, ecx
  0000d	74 08		 je	 SHORT $L103492
  0000f	8b 54 24 04	 mov	 edx, DWORD PTR ___x$[esp-4]
  00013	8b 12		 mov	 edx, DWORD PTR [edx]
  00015	89 11		 mov	 DWORD PTR [ecx], edx
$L103492:

; 244  :     }
; 245  :     _STLP_UNWIND(this->_M_node.deallocate(__p, 1));
; 246  :     return __p;
; 247  :   }

  00017	c2 04 00	 ret	 4
?_M_create_node@?$list@PAU_WeekItemInfo@@V?$allocator@PAU_WeekItemInfo@@@_STL@@@_STL@@IAEPAU?$_List_node@PAU_WeekItemInfo@@@2@ABQAU_WeekItemInfo@@@Z ENDP ; _STL::list<_WeekItemInfo *,_STL::allocator<_WeekItemInfo *> >::_M_create_node
_TEXT	ENDS
PUBLIC	??$distance@U?$_List_iterator@GU?$_Const_traits@G@_STL@@@_STL@@@_STL@@YAHABU?$_List_iterator@GU?$_Const_traits@G@_STL@@@0@0@Z ; _STL::distance<_STL::_List_iterator<unsigned short,_STL::_Const_traits<unsigned short> > >
; Function compile flags: /Ogsy
; File c:\stlport-4.6.1\stlport\stl\_iterator_base.h
;	COMDAT ??$distance@U?$_List_iterator@GU?$_Const_traits@G@_STL@@@_STL@@@_STL@@YAHABU?$_List_iterator@GU?$_Const_traits@G@_STL@@@0@0@Z
_TEXT	SEGMENT
___first$ = 8						; size = 4
___last$ = 12						; size = 4
??$distance@U?$_List_iterator@GU?$_Const_traits@G@_STL@@@_STL@@@_STL@@YAHABU?$_List_iterator@GU?$_Const_traits@G@_STL@@@0@0@Z PROC NEAR ; _STL::distance<_STL::_List_iterator<unsigned short,_STL::_Const_traits<unsigned short> > >, COMDAT

; 369  :   return __distance(__first, __last, _STLP_ITERATOR_CATEGORY(__first, _InputIterator));  

  00000	8b 54 24 08	 mov	 edx, DWORD PTR ___last$[esp-4]
  00004	8b 4c 24 04	 mov	 ecx, DWORD PTR ___first$[esp-4]
  00008	8b 12		 mov	 edx, DWORD PTR [edx]
  0000a	33 c0		 xor	 eax, eax
  0000c	eb 01		 jmp	 SHORT $L103530
$L103525:
  0000e	40		 inc	 eax
$L103530:
  0000f	8b 09		 mov	 ecx, DWORD PTR [ecx]
  00011	3b ca		 cmp	 ecx, edx
  00013	75 f9		 jne	 SHORT $L103525

; 370  : }

  00015	c3		 ret	 0
??$distance@U?$_List_iterator@GU?$_Const_traits@G@_STL@@@_STL@@@_STL@@YAHABU?$_List_iterator@GU?$_Const_traits@G@_STL@@@0@0@Z ENDP ; _STL::distance<_STL::_List_iterator<unsigned short,_STL::_Const_traits<unsigned short> > >
_TEXT	ENDS
PUBLIC	??$distance@U?$_List_iterator@PAU_WeekItemInfo@@U?$_Const_traits@PAU_WeekItemInfo@@@_STL@@@_STL@@@_STL@@YAHABU?$_List_iterator@PAU_WeekItemInfo@@U?$_Const_traits@PAU_WeekItemInfo@@@_STL@@@0@0@Z ; _STL::distance<_STL::_List_iterator<_WeekItemInfo *,_STL::_Const_traits<_WeekItemInfo *> > >
; Function compile flags: /Ogsy
;	COMDAT ??$distance@U?$_List_iterator@PAU_WeekItemInfo@@U?$_Const_traits@PAU_WeekItemInfo@@@_STL@@@_STL@@@_STL@@YAHABU?$_List_iterator@PAU_WeekItemInfo@@U?$_Const_traits@PAU_WeekItemInfo@@@_STL@@@0@0@Z
_TEXT	SEGMENT
___first$ = 8						; size = 4
___last$ = 12						; size = 4
??$distance@U?$_List_iterator@PAU_WeekItemInfo@@U?$_Const_traits@PAU_WeekItemInfo@@@_STL@@@_STL@@@_STL@@YAHABU?$_List_iterator@PAU_WeekItemInfo@@U?$_Const_traits@PAU_WeekItemInfo@@@_STL@@@0@0@Z PROC NEAR ; _STL::distance<_STL::_List_iterator<_WeekItemInfo *,_STL::_Const_traits<_WeekItemInfo *> > >, COMDAT

; 369  :   return __distance(__first, __last, _STLP_ITERATOR_CATEGORY(__first, _InputIterator));  

  00000	8b 54 24 08	 mov	 edx, DWORD PTR ___last$[esp-4]
  00004	8b 4c 24 04	 mov	 ecx, DWORD PTR ___first$[esp-4]
  00008	8b 12		 mov	 edx, DWORD PTR [edx]
  0000a	33 c0		 xor	 eax, eax
  0000c	eb 01		 jmp	 SHORT $L103562
$L103557:
  0000e	40		 inc	 eax
$L103562:
  0000f	8b 09		 mov	 ecx, DWORD PTR [ecx]
  00011	3b ca		 cmp	 ecx, edx
  00013	75 f9		 jne	 SHORT $L103557

; 370  : }

  00015	c3		 ret	 0
??$distance@U?$_List_iterator@PAU_WeekItemInfo@@U?$_Const_traits@PAU_WeekItemInfo@@@_STL@@@_STL@@@_STL@@YAHABU?$_List_iterator@PAU_WeekItemInfo@@U?$_Const_traits@PAU_WeekItemInfo@@@_STL@@@0@0@Z ENDP ; _STL::distance<_STL::_List_iterator<_WeekItemInfo *,_STL::_Const_traits<_WeekItemInfo *> > >
_TEXT	ENDS
PUBLIC	??$_M_range_initialize@PBD@?$basic_string@DV?$char_traits@D@_STL@@V?$allocator@D@2@@_STL@@AAEXPBD0ABUforward_iterator_tag@1@@Z ; _STL::basic_string<char,_STL::char_traits<char>,_STL::allocator<char> >::_M_range_initialize<char const *>
; Function compile flags: /Ogsy
; File c:\stlport-4.6.1\stlport\stl\_string.h
;	COMDAT ??$_M_range_initialize@PBD@?$basic_string@DV?$char_traits@D@_STL@@V?$allocator@D@2@@_STL@@AAEXPBD0ABUforward_iterator_tag@1@@Z
_TEXT	SEGMENT
___f$ = 8						; size = 4
___l$ = 12						; size = 4
___formal$ = 16						; size = 4
??$_M_range_initialize@PBD@?$basic_string@DV?$char_traits@D@_STL@@V?$allocator@D@2@@_STL@@AAEXPBD0ABUforward_iterator_tag@1@@Z PROC NEAR ; _STL::basic_string<char,_STL::char_traits<char>,_STL::allocator<char> >::_M_range_initialize<char const *>, COMDAT
; _this$ = ecx

; 383  :                            const forward_iterator_tag &) {
; 384  :     difference_type __n = distance(__f, __l);
; 385  :     this->_M_allocate_block(__n + 1);

  00000	8b 44 24 08	 mov	 eax, DWORD PTR ___l$[esp-4]
  00004	2b 44 24 04	 sub	 eax, DWORD PTR ___f$[esp-4]
  00008	56		 push	 esi
  00009	40		 inc	 eax
  0000a	50		 push	 eax
  0000b	8b f1		 mov	 esi, ecx
  0000d	e8 00 00 00 00	 call	 ?_M_allocate_block@?$_String_base@DV?$allocator@D@_STL@@@_STL@@QAEXI@Z ; _STL::_String_base<char,_STL::allocator<char> >::_M_allocate_block

; 386  :     this->_M_finish = uninitialized_copy(__f, __l, this->_M_start);

  00012	ff 36		 push	 DWORD PTR [esi]
  00014	ff 74 24 10	 push	 DWORD PTR ___l$[esp+4]
  00018	ff 74 24 10	 push	 DWORD PTR ___f$[esp+8]
  0001c	e8 00 00 00 00	 call	 ?__copy_trivial@_STL@@YAPAXPBX0PAX@Z ; _STL::__copy_trivial
  00021	83 c4 0c	 add	 esp, 12			; 0000000cH
  00024	89 46 04	 mov	 DWORD PTR [esi+4], eax

; 387  :     _M_terminate_string();

  00027	c6 00 00	 mov	 BYTE PTR [eax], 0
  0002a	5e		 pop	 esi

; 388  :   }

  0002b	c2 0c 00	 ret	 12			; 0000000cH
??$_M_range_initialize@PBD@?$basic_string@DV?$char_traits@D@_STL@@V?$allocator@D@2@@_STL@@AAEXPBD0ABUforward_iterator_tag@1@@Z ENDP ; _STL::basic_string<char,_STL::char_traits<char>,_STL::allocator<char> >::_M_range_initialize<char const *>
_TEXT	ENDS
PUBLIC	??$__uninitialized_copy@PADPAD@_STL@@YAPADPAD00ABU__true_type@0@@Z ; _STL::__uninitialized_copy<char *,char *>
; Function compile flags: /Ogsy
; File c:\stlport-4.6.1\stlport\stl\_uninitialized.h
;	COMDAT ??$__uninitialized_copy@PADPAD@_STL@@YAPADPAD00ABU__true_type@0@@Z
_TEXT	SEGMENT
___first$ = 8						; size = 4
___last$ = 12						; size = 4
___result$ = 16						; size = 4
___formal$ = 20						; size = 4
??$__uninitialized_copy@PADPAD@_STL@@YAPADPAD00ABU__true_type@0@@Z PROC NEAR ; _STL::__uninitialized_copy<char *,char *>, COMDAT

; 55   :   return __copy_aux(__first, __last, __result, _BothPtrType< _InputIter, _ForwardIter> :: _Ret());

  00000	ff 74 24 0c	 push	 DWORD PTR ___result$[esp-4]
  00004	ff 74 24 0c	 push	 DWORD PTR ___last$[esp]
  00008	ff 74 24 0c	 push	 DWORD PTR ___first$[esp+4]
  0000c	e8 00 00 00 00	 call	 ?__copy_trivial@_STL@@YAPAXPBX0PAX@Z ; _STL::__copy_trivial
  00011	83 c4 0c	 add	 esp, 12			; 0000000cH

; 56   : }

  00014	c3		 ret	 0
??$__uninitialized_copy@PADPAD@_STL@@YAPADPAD00ABU__true_type@0@@Z ENDP ; _STL::__uninitialized_copy<char *,char *>
_TEXT	ENDS
PUBLIC	??0?$_List_base@V?$basic_string@DV?$char_traits@D@_STL@@V?$allocator@D@2@@_STL@@V?$allocator@V?$basic_string@DV?$char_traits@D@_STL@@V?$allocator@D@2@@_STL@@@2@@_STL@@QAE@ABV?$allocator@V?$basic_string@DV?$char_traits@D@_STL@@V?$allocator@D@2@@_STL@@@1@@Z ; _STL::_List_base<_STL::basic_string<char,_STL::char_traits<char>,_STL::allocator<char> >,_STL::allocator<_STL::basic_string<char,_STL::char_traits<char>,_STL::allocator<char> > > >::_List_base<_STL::basic_string<char,_STL::char_traits<char>,_STL::allocator<char> >,_STL::allocator<_STL::basic_string<char,_STL::char_traits<char>,_STL::allocator<char> > > >
; Function compile flags: /Ogsy
; File c:\stlport-4.6.1\stlport\stl\_list.h
;	COMDAT ??0?$_List_base@V?$basic_string@DV?$char_traits@D@_STL@@V?$allocator@D@2@@_STL@@V?$allocator@V?$basic_string@DV?$char_traits@D@_STL@@V?$allocator@D@2@@_STL@@@2@@_STL@@QAE@ABV?$allocator@V?$basic_string@DV?$char_traits@D@_STL@@V?$allocator@D@2@@_STL@@@1@@Z
_TEXT	SEGMENT
$T103632 = -1						; size = 1
___a$ = 8						; size = 4
??0?$_List_base@V?$basic_string@DV?$char_traits@D@_STL@@V?$allocator@D@2@@_STL@@V?$allocator@V?$basic_string@DV?$char_traits@D@_STL@@V?$allocator@D@2@@_STL@@@2@@_STL@@QAE@ABV?$allocator@V?$basic_string@DV?$char_traits@D@_STL@@V?$allocator@D@2@@_STL@@@1@@Z PROC NEAR ; _STL::_List_base<_STL::basic_string<char,_STL::char_traits<char>,_STL::allocator<char> >,_STL::allocator<_STL::basic_string<char,_STL::char_traits<char>,_STL::allocator<char> > > >::_List_base<_STL::basic_string<char,_STL::char_traits<char>,_STL::allocator<char> >,_STL::allocator<_STL::basic_string<char,_STL::char_traits<char>,_STL::allocator<char> > > >, COMDAT
; _this$ = ecx

; 182  :   _List_base(const allocator_type& __a) : _M_node(_STLP_CONVERT_ALLOCATOR(__a, _Node), (_Node*)0) {

  00000	51		 push	 ecx
  00001	56		 push	 esi
  00002	6a 00		 push	 0
  00004	8d 44 24 0b	 lea	 eax, DWORD PTR $T103632[esp+12]
  00008	50		 push	 eax
  00009	8b f1		 mov	 esi, ecx
  0000b	e8 00 00 00 00	 call	 ??0?$_STLP_alloc_proxy@PAU?$_List_node@V?$basic_string@DV?$char_traits@D@_STL@@V?$allocator@D@2@@_STL@@@_STL@@U12@V?$allocator@U?$_List_node@V?$basic_string@DV?$char_traits@D@_STL@@V?$allocator@D@2@@_STL@@@_STL@@@2@@_STL@@QAE@ABV?$allocator@U?$_List_node@V?$basic_string@DV?$char_traits@D@_STL@@V?$allocator@D@2@@_STL@@@_STL@@@1@PAU?$_List_node@V?$basic_string@DV?$char_traits@D@_STL@@V?$allocator@D@2@@_STL@@@1@@Z ; _STL::_STLP_alloc_proxy<_STL::_List_node<_STL::basic_string<char,_STL::char_traits<char>,_STL::allocator<char> > > *,_STL::_List_node<_STL::basic_string<char,_STL::char_traits<char>,_STL::allocator<char> > >,_STL::allocator<_STL::_List_node<_STL::basic_string<char,_STL::char_traits<char>,_STL::allocator<char> > > > >::_STLP_alloc_proxy<_STL::_List_node<_STL::basic_string<char,_STL::char_traits<char>,_STL::allocator<char> > > *,_STL::_List_node<_STL::basic_string<char,_STL::char_traits<char>,_STL::allocator<char> > >,_STL::allocator<_STL::_List_node<_STL::basic_string<char,_STL::char_traits<char>,_STL::allocator<char> > > > >

; 183  :     _Node* __n = _M_node.allocate(1);

  00010	6a 14		 push	 20			; 00000014H
  00012	e8 00 00 00 00	 call	 ?allocate@?$__node_alloc@$00$0A@@_STL@@SAPAXI@Z ; _STL::__node_alloc<1,0>::allocate

; 184  :     __n->_M_next = __n;

  00017	89 00		 mov	 DWORD PTR [eax], eax

; 185  :     __n->_M_prev = __n;

  00019	89 40 04	 mov	 DWORD PTR [eax+4], eax

; 186  :     _M_node._M_data = __n;

  0001c	89 06		 mov	 DWORD PTR [esi], eax
  0001e	59		 pop	 ecx

; 187  :   }

  0001f	8b c6		 mov	 eax, esi
  00021	5e		 pop	 esi
  00022	59		 pop	 ecx
  00023	c2 04 00	 ret	 4
??0?$_List_base@V?$basic_string@DV?$char_traits@D@_STL@@V?$allocator@D@2@@_STL@@V?$allocator@V?$basic_string@DV?$char_traits@D@_STL@@V?$allocator@D@2@@_STL@@@2@@_STL@@QAE@ABV?$allocator@V?$basic_string@DV?$char_traits@D@_STL@@V?$allocator@D@2@@_STL@@@1@@Z ENDP ; _STL::_List_base<_STL::basic_string<char,_STL::char_traits<char>,_STL::allocator<char> >,_STL::allocator<_STL::basic_string<char,_STL::char_traits<char>,_STL::allocator<char> > > >::_List_base<_STL::basic_string<char,_STL::char_traits<char>,_STL::allocator<char> >,_STL::allocator<_STL::basic_string<char,_STL::char_traits<char>,_STL::allocator<char> > > >
_TEXT	ENDS
PUBLIC	?_M_deallocate_block@?$_String_base@DV?$allocator@D@_STL@@@_STL@@QAEXXZ ; _STL::_String_base<char,_STL::allocator<char> >::_M_deallocate_block
; Function compile flags: /Ogsy
; File c:\stlport-4.6.1\stlport\stl\_string.h
;	COMDAT ?_M_deallocate_block@?$_String_base@DV?$allocator@D@_STL@@@_STL@@QAEXXZ
_TEXT	SEGMENT
?_M_deallocate_block@?$_String_base@DV?$allocator@D@_STL@@@_STL@@QAEXXZ PROC NEAR ; _STL::_String_base<char,_STL::allocator<char> >::_M_deallocate_block, COMDAT
; _this$ = ecx

; 124  :     { _M_end_of_storage.deallocate(_M_start, _M_end_of_storage._M_data - _M_start); }

  00000	8b c1		 mov	 eax, ecx
  00002	8d 48 08	 lea	 ecx, DWORD PTR [eax+8]
  00005	8b 00		 mov	 eax, DWORD PTR [eax]
  00007	8b 11		 mov	 edx, DWORD PTR [ecx]
  00009	2b d0		 sub	 edx, eax
  0000b	52		 push	 edx
  0000c	50		 push	 eax
  0000d	e8 00 00 00 00	 call	 ?deallocate@?$allocator@D@_STL@@QAEXPADI@Z ; _STL::allocator<char>::deallocate
  00012	c3		 ret	 0
?_M_deallocate_block@?$_String_base@DV?$allocator@D@_STL@@@_STL@@QAEXXZ ENDP ; _STL::_String_base<char,_STL::allocator<char> >::_M_deallocate_block
_TEXT	ENDS
PUBLIC	??0?$list@GV?$allocator@G@_STL@@@_STL@@QAE@ABV?$allocator@G@1@@Z ; _STL::list<unsigned short,_STL::allocator<unsigned short> >::list<unsigned short,_STL::allocator<unsigned short> >
; Function compile flags: /Ogsy
; File c:\stlport-4.6.1\stlport\stl\_list.h
;	COMDAT ??0?$list@GV?$allocator@G@_STL@@@_STL@@QAE@ABV?$allocator@G@1@@Z
_TEXT	SEGMENT
___a$ = 8						; size = 4
??0?$list@GV?$allocator@G@_STL@@@_STL@@QAE@ABV?$allocator@G@1@@Z PROC NEAR ; _STL::list<unsigned short,_STL::allocator<unsigned short> >::list<unsigned short,_STL::allocator<unsigned short> >, COMDAT
; _this$ = ecx

; 264  :     _List_base<_Tp, _Alloc>(__a) {}

  00000	56		 push	 esi
  00001	ff 74 24 08	 push	 DWORD PTR ___a$[esp]
  00005	8b f1		 mov	 esi, ecx
  00007	e8 00 00 00 00	 call	 ??0?$_List_base@GV?$allocator@G@_STL@@@_STL@@QAE@ABV?$allocator@G@1@@Z ; _STL::_List_base<unsigned short,_STL::allocator<unsigned short> >::_List_base<unsigned short,_STL::allocator<unsigned short> >
  0000c	8b c6		 mov	 eax, esi
  0000e	5e		 pop	 esi
  0000f	c2 04 00	 ret	 4
??0?$list@GV?$allocator@G@_STL@@@_STL@@QAE@ABV?$allocator@G@1@@Z ENDP ; _STL::list<unsigned short,_STL::allocator<unsigned short> >::list<unsigned short,_STL::allocator<unsigned short> >
_TEXT	ENDS
PUBLIC	?size@?$list@GV?$allocator@G@_STL@@@_STL@@QBEIXZ ; _STL::list<unsigned short,_STL::allocator<unsigned short> >::size
; Function compile flags: /Ogsy
;	COMDAT ?size@?$list@GV?$allocator@G@_STL@@@_STL@@QBEIXZ
_TEXT	SEGMENT
?size@?$list@GV?$allocator@G@_STL@@@_STL@@QBEIXZ PROC NEAR ; _STL::list<unsigned short,_STL::allocator<unsigned short> >::size, COMDAT
; _this$ = ecx

; 284  :     size_type __result = distance(begin(), end());

  00000	8b 11		 mov	 edx, DWORD PTR [ecx]
  00002	8b 0a		 mov	 ecx, DWORD PTR [edx]
  00004	33 c0		 xor	 eax, eax
  00006	eb 03		 jmp	 SHORT $L103730
$L103725:
  00008	8b 09		 mov	 ecx, DWORD PTR [ecx]
  0000a	40		 inc	 eax
$L103730:
  0000b	3b ca		 cmp	 ecx, edx
  0000d	75 f9		 jne	 SHORT $L103725

; 285  :     return __result;
; 286  :   }

  0000f	c3		 ret	 0
?size@?$list@GV?$allocator@G@_STL@@@_STL@@QBEIXZ ENDP	; _STL::list<unsigned short,_STL::allocator<unsigned short> >::size
_TEXT	ENDS
PUBLIC	??1?$list@GV?$allocator@G@_STL@@@_STL@@QAE@XZ	; _STL::list<unsigned short,_STL::allocator<unsigned short> >::~list<unsigned short,_STL::allocator<unsigned short> >
; Function compile flags: /Ogsy
;	COMDAT ??1?$list@GV?$allocator@G@_STL@@@_STL@@QAE@XZ
_TEXT	SEGMENT
??1?$list@GV?$allocator@G@_STL@@@_STL@@QAE@XZ PROC NEAR	; _STL::list<unsigned short,_STL::allocator<unsigned short> >::~list<unsigned short,_STL::allocator<unsigned short> >, COMDAT
; _this$ = ecx

; 416  :   ~list() { }

  00000	e9 00 00 00 00	 jmp	 ??1?$_List_base@GV?$allocator@G@_STL@@@_STL@@QAE@XZ ; _STL::_List_base<unsigned short,_STL::allocator<unsigned short> >::~_List_base<unsigned short,_STL::allocator<unsigned short> >
??1?$list@GV?$allocator@G@_STL@@@_STL@@QAE@XZ ENDP	; _STL::list<unsigned short,_STL::allocator<unsigned short> >::~list<unsigned short,_STL::allocator<unsigned short> >
_TEXT	ENDS
PUBLIC	??0?$list@PAU_WeekItemInfo@@V?$allocator@PAU_WeekItemInfo@@@_STL@@@_STL@@QAE@ABV?$allocator@PAU_WeekItemInfo@@@1@@Z ; _STL::list<_WeekItemInfo *,_STL::allocator<_WeekItemInfo *> >::list<_WeekItemInfo *,_STL::allocator<_WeekItemInfo *> >
; Function compile flags: /Ogsy
;	COMDAT ??0?$list@PAU_WeekItemInfo@@V?$allocator@PAU_WeekItemInfo@@@_STL@@@_STL@@QAE@ABV?$allocator@PAU_WeekItemInfo@@@1@@Z
_TEXT	SEGMENT
___a$ = 8						; size = 4
??0?$list@PAU_WeekItemInfo@@V?$allocator@PAU_WeekItemInfo@@@_STL@@@_STL@@QAE@ABV?$allocator@PAU_WeekItemInfo@@@1@@Z PROC NEAR ; _STL::list<_WeekItemInfo *,_STL::allocator<_WeekItemInfo *> >::list<_WeekItemInfo *,_STL::allocator<_WeekItemInfo *> >, COMDAT
; _this$ = ecx

; 264  :     _List_base<_Tp, _Alloc>(__a) {}

  00000	56		 push	 esi
  00001	ff 74 24 08	 push	 DWORD PTR ___a$[esp]
  00005	8b f1		 mov	 esi, ecx
  00007	e8 00 00 00 00	 call	 ??0?$_List_base@PAU_WeekItemInfo@@V?$allocator@PAU_WeekItemInfo@@@_STL@@@_STL@@QAE@ABV?$allocator@PAU_WeekItemInfo@@@1@@Z ; _STL::_List_base<_WeekItemInfo *,_STL::allocator<_WeekItemInfo *> >::_List_base<_WeekItemInfo *,_STL::allocator<_WeekItemInfo *> >
  0000c	8b c6		 mov	 eax, esi
  0000e	5e		 pop	 esi
  0000f	c2 04 00	 ret	 4
??0?$list@PAU_WeekItemInfo@@V?$allocator@PAU_WeekItemInfo@@@_STL@@@_STL@@QAE@ABV?$allocator@PAU_WeekItemInfo@@@1@@Z ENDP ; _STL::list<_WeekItemInfo *,_STL::allocator<_WeekItemInfo *> >::list<_WeekItemInfo *,_STL::allocator<_WeekItemInfo *> >
_TEXT	ENDS
PUBLIC	?size@?$list@PAU_WeekItemInfo@@V?$allocator@PAU_WeekItemInfo@@@_STL@@@_STL@@QBEIXZ ; _STL::list<_WeekItemInfo *,_STL::allocator<_WeekItemInfo *> >::size
; Function compile flags: /Ogsy
;	COMDAT ?size@?$list@PAU_WeekItemInfo@@V?$allocator@PAU_WeekItemInfo@@@_STL@@@_STL@@QBEIXZ
_TEXT	SEGMENT
?size@?$list@PAU_WeekItemInfo@@V?$allocator@PAU_WeekItemInfo@@@_STL@@@_STL@@QBEIXZ PROC NEAR ; _STL::list<_WeekItemInfo *,_STL::allocator<_WeekItemInfo *> >::size, COMDAT
; _this$ = ecx

; 284  :     size_type __result = distance(begin(), end());

  00000	8b 11		 mov	 edx, DWORD PTR [ecx]
  00002	8b 0a		 mov	 ecx, DWORD PTR [edx]
  00004	33 c0		 xor	 eax, eax
  00006	eb 03		 jmp	 SHORT $L103819
$L103814:
  00008	8b 09		 mov	 ecx, DWORD PTR [ecx]
  0000a	40		 inc	 eax
$L103819:
  0000b	3b ca		 cmp	 ecx, edx
  0000d	75 f9		 jne	 SHORT $L103814

; 285  :     return __result;
; 286  :   }

  0000f	c3		 ret	 0
?size@?$list@PAU_WeekItemInfo@@V?$allocator@PAU_WeekItemInfo@@@_STL@@@_STL@@QBEIXZ ENDP ; _STL::list<_WeekItemInfo *,_STL::allocator<_WeekItemInfo *> >::size
_TEXT	ENDS
PUBLIC	??1?$list@PAU_WeekItemInfo@@V?$allocator@PAU_WeekItemInfo@@@_STL@@@_STL@@QAE@XZ ; _STL::list<_WeekItemInfo *,_STL::allocator<_WeekItemInfo *> >::~list<_WeekItemInfo *,_STL::allocator<_WeekItemInfo *> >
; Function compile flags: /Ogsy
;	COMDAT ??1?$list@PAU_WeekItemInfo@@V?$allocator@PAU_WeekItemInfo@@@_STL@@@_STL@@QAE@XZ
_TEXT	SEGMENT
??1?$list@PAU_WeekItemInfo@@V?$allocator@PAU_WeekItemInfo@@@_STL@@@_STL@@QAE@XZ PROC NEAR ; _STL::list<_WeekItemInfo *,_STL::allocator<_WeekItemInfo *> >::~list<_WeekItemInfo *,_STL::allocator<_WeekItemInfo *> >, COMDAT
; _this$ = ecx

; 416  :   ~list() { }

  00000	e9 00 00 00 00	 jmp	 ??1?$_List_base@PAU_WeekItemInfo@@V?$allocator@PAU_WeekItemInfo@@@_STL@@@_STL@@QAE@XZ ; _STL::_List_base<_WeekItemInfo *,_STL::allocator<_WeekItemInfo *> >::~_List_base<_WeekItemInfo *,_STL::allocator<_WeekItemInfo *> >
??1?$list@PAU_WeekItemInfo@@V?$allocator@PAU_WeekItemInfo@@@_STL@@@_STL@@QAE@XZ ENDP ; _STL::list<_WeekItemInfo *,_STL::allocator<_WeekItemInfo *> >::~list<_WeekItemInfo *,_STL::allocator<_WeekItemInfo *> >
_TEXT	ENDS
PUBLIC	?insert@?$list@GV?$allocator@G@_STL@@@_STL@@QAE?AU?$_List_iterator@GU?$_Nonconst_traits@G@_STL@@@2@U32@ABG@Z ; _STL::list<unsigned short,_STL::allocator<unsigned short> >::insert
; Function compile flags: /Ogsy
;	COMDAT ?insert@?$list@GV?$allocator@G@_STL@@@_STL@@QAE?AU?$_List_iterator@GU?$_Nonconst_traits@G@_STL@@@2@U32@ABG@Z
_TEXT	SEGMENT
___$ReturnUdt$ = 8					; size = 4
___position$ = 12					; size = 4
___x$ = 16						; size = 4
?insert@?$list@GV?$allocator@G@_STL@@@_STL@@QAE?AU?$_List_iterator@GU?$_Nonconst_traits@G@_STL@@@2@U32@ABG@Z PROC NEAR ; _STL::list<unsigned short,_STL::allocator<unsigned short> >::insert, COMDAT
; _this$ = ecx

; 299  : 
; 300  :     _Node* __tmp = _M_create_node(__x);

  00000	ff 74 24 0c	 push	 DWORD PTR ___x$[esp-4]
  00004	e8 00 00 00 00	 call	 ?_M_create_node@?$list@GV?$allocator@G@_STL@@@_STL@@IAEPAU?$_List_node@G@2@ABG@Z ; _STL::list<unsigned short,_STL::allocator<unsigned short> >::_M_create_node

; 301  :     _List_node_base* __n = __position._M_node;
; 302  :     _List_node_base* __p = __n->_M_prev;

  00009	8b 4c 24 08	 mov	 ecx, DWORD PTR ___position$[esp-4]
  0000d	8b 51 04	 mov	 edx, DWORD PTR [ecx+4]

; 303  :     __tmp->_M_next = __n;

  00010	89 08		 mov	 DWORD PTR [eax], ecx

; 304  :     __tmp->_M_prev = __p;

  00012	89 50 04	 mov	 DWORD PTR [eax+4], edx

; 305  :     __p->_M_next = __tmp;

  00015	89 02		 mov	 DWORD PTR [edx], eax

; 306  :     __n->_M_prev = __tmp;

  00017	89 41 04	 mov	 DWORD PTR [ecx+4], eax

; 307  :     return __tmp;

  0001a	8b 4c 24 04	 mov	 ecx, DWORD PTR ___$ReturnUdt$[esp-4]
  0001e	89 01		 mov	 DWORD PTR [ecx], eax
  00020	8b c1		 mov	 eax, ecx

; 308  :   }

  00022	c2 0c 00	 ret	 12			; 0000000cH
?insert@?$list@GV?$allocator@G@_STL@@@_STL@@QAE?AU?$_List_iterator@GU?$_Nonconst_traits@G@_STL@@@2@U32@ABG@Z ENDP ; _STL::list<unsigned short,_STL::allocator<unsigned short> >::insert
_TEXT	ENDS
PUBLIC	?insert@?$list@PAU_WeekItemInfo@@V?$allocator@PAU_WeekItemInfo@@@_STL@@@_STL@@QAE?AU?$_List_iterator@PAU_WeekItemInfo@@U?$_Nonconst_traits@PAU_WeekItemInfo@@@_STL@@@2@U32@ABQAU_WeekItemInfo@@@Z ; _STL::list<_WeekItemInfo *,_STL::allocator<_WeekItemInfo *> >::insert
; Function compile flags: /Ogsy
;	COMDAT ?insert@?$list@PAU_WeekItemInfo@@V?$allocator@PAU_WeekItemInfo@@@_STL@@@_STL@@QAE?AU?$_List_iterator@PAU_WeekItemInfo@@U?$_Nonconst_traits@PAU_WeekItemInfo@@@_STL@@@2@U32@ABQAU_WeekItemInfo@@@Z
_TEXT	SEGMENT
___$ReturnUdt$ = 8					; size = 4
___position$ = 12					; size = 4
___x$ = 16						; size = 4
?insert@?$list@PAU_WeekItemInfo@@V?$allocator@PAU_WeekItemInfo@@@_STL@@@_STL@@QAE?AU?$_List_iterator@PAU_WeekItemInfo@@U?$_Nonconst_traits@PAU_WeekItemInfo@@@_STL@@@2@U32@ABQAU_WeekItemInfo@@@Z PROC NEAR ; _STL::list<_WeekItemInfo *,_STL::allocator<_WeekItemInfo *> >::insert, COMDAT
; _this$ = ecx

; 299  : 
; 300  :     _Node* __tmp = _M_create_node(__x);

  00000	ff 74 24 0c	 push	 DWORD PTR ___x$[esp-4]
  00004	e8 00 00 00 00	 call	 ?_M_create_node@?$list@PAU_WeekItemInfo@@V?$allocator@PAU_WeekItemInfo@@@_STL@@@_STL@@IAEPAU?$_List_node@PAU_WeekItemInfo@@@2@ABQAU_WeekItemInfo@@@Z ; _STL::list<_WeekItemInfo *,_STL::allocator<_WeekItemInfo *> >::_M_create_node

; 301  :     _List_node_base* __n = __position._M_node;
; 302  :     _List_node_base* __p = __n->_M_prev;

  00009	8b 4c 24 08	 mov	 ecx, DWORD PTR ___position$[esp-4]
  0000d	8b 51 04	 mov	 edx, DWORD PTR [ecx+4]

; 303  :     __tmp->_M_next = __n;

  00010	89 08		 mov	 DWORD PTR [eax], ecx

; 304  :     __tmp->_M_prev = __p;

  00012	89 50 04	 mov	 DWORD PTR [eax+4], edx

; 305  :     __p->_M_next = __tmp;

  00015	89 02		 mov	 DWORD PTR [edx], eax

; 306  :     __n->_M_prev = __tmp;

  00017	89 41 04	 mov	 DWORD PTR [ecx+4], eax

; 307  :     return __tmp;

  0001a	8b 4c 24 04	 mov	 ecx, DWORD PTR ___$ReturnUdt$[esp-4]
  0001e	89 01		 mov	 DWORD PTR [ecx], eax
  00020	8b c1		 mov	 eax, ecx

; 308  :   }

  00022	c2 0c 00	 ret	 12			; 0000000cH
?insert@?$list@PAU_WeekItemInfo@@V?$allocator@PAU_WeekItemInfo@@@_STL@@@_STL@@QAE?AU?$_List_iterator@PAU_WeekItemInfo@@U?$_Nonconst_traits@PAU_WeekItemInfo@@@_STL@@@2@U32@ABQAU_WeekItemInfo@@@Z ENDP ; _STL::list<_WeekItemInfo *,_STL::allocator<_WeekItemInfo *> >::insert
_TEXT	ENDS
PUBLIC	??$_M_range_initialize@PBD@?$basic_string@DV?$char_traits@D@_STL@@V?$allocator@D@2@@_STL@@AAEXPBD0@Z ; _STL::basic_string<char,_STL::char_traits<char>,_STL::allocator<char> >::_M_range_initialize<char const *>
; Function compile flags: /Ogsy
; File c:\stlport-4.6.1\stlport\stl\_string.h
;	COMDAT ??$_M_range_initialize@PBD@?$basic_string@DV?$char_traits@D@_STL@@V?$allocator@D@2@@_STL@@AAEXPBD0@Z
_TEXT	SEGMENT
___f$ = 8						; size = 4
___l$ = 12						; size = 4
$T103849 = 15						; size = 1
??$_M_range_initialize@PBD@?$basic_string@DV?$char_traits@D@_STL@@V?$allocator@D@2@@_STL@@AAEXPBD0@Z PROC NEAR ; _STL::basic_string<char,_STL::char_traits<char>,_STL::allocator<char> >::_M_range_initialize<char const *>, COMDAT
; _this$ = ecx

; 390  :   template <class _InputIter> void _M_range_initialize(_InputIter __f, _InputIter __l) {

  00000	55		 push	 ebp
  00001	8b ec		 mov	 ebp, esp

; 391  :     _M_range_initialize(__f, __l, _STLP_ITERATOR_CATEGORY(__f, _InputIter));

  00003	8d 45 0f	 lea	 eax, DWORD PTR $T103849[ebp]
  00006	50		 push	 eax
  00007	ff 75 0c	 push	 DWORD PTR ___l$[ebp]
  0000a	ff 75 08	 push	 DWORD PTR ___f$[ebp]
  0000d	e8 00 00 00 00	 call	 ??$_M_range_initialize@PBD@?$basic_string@DV?$char_traits@D@_STL@@V?$allocator@D@2@@_STL@@AAEXPBD0ABUforward_iterator_tag@1@@Z ; _STL::basic_string<char,_STL::char_traits<char>,_STL::allocator<char> >::_M_range_initialize<char const *>

; 392  :   }

  00012	5d		 pop	 ebp
  00013	c2 08 00	 ret	 8
??$_M_range_initialize@PBD@?$basic_string@DV?$char_traits@D@_STL@@V?$allocator@D@2@@_STL@@AAEXPBD0@Z ENDP ; _STL::basic_string<char,_STL::char_traits<char>,_STL::allocator<char> >::_M_range_initialize<char const *>
_TEXT	ENDS
PUBLIC	??$uninitialized_copy@PADPAD@_STL@@YAPADPAD00@Z	; _STL::uninitialized_copy<char *,char *>
; Function compile flags: /Ogsy
; File c:\stlport-4.6.1\stlport\stl\_uninitialized.h
;	COMDAT ??$uninitialized_copy@PADPAD@_STL@@YAPADPAD00@Z
_TEXT	SEGMENT
___first$ = 8						; size = 4
___last$ = 12						; size = 4
___result$ = 16						; size = 4
??$uninitialized_copy@PADPAD@_STL@@YAPADPAD00@Z PROC NEAR ; _STL::uninitialized_copy<char *,char *>, COMDAT

; 79   :   return __uninitialized_copy(__first, __last, __result,  _IS_POD_ITER(__result, _ForwardIter));

  00000	e9 00 00 00 00	 jmp	 ?__copy_trivial@_STL@@YAPAXPBX0PAX@Z ; _STL::__copy_trivial
??$uninitialized_copy@PADPAD@_STL@@YAPADPAD00@Z ENDP	; _STL::uninitialized_copy<char *,char *>
_TEXT	ENDS
PUBLIC	??1?$_String_base@DV?$allocator@D@_STL@@@_STL@@QAE@XZ ; _STL::_String_base<char,_STL::allocator<char> >::~_String_base<char,_STL::allocator<char> >
; Function compile flags: /Ogsy
; File c:\stlport-4.6.1\stlport\stl\_string.h
;	COMDAT ??1?$_String_base@DV?$allocator@D@_STL@@@_STL@@QAE@XZ
_TEXT	SEGMENT
??1?$_String_base@DV?$allocator@D@_STL@@@_STL@@QAE@XZ PROC NEAR ; _STL::_String_base<char,_STL::allocator<char> >::~_String_base<char,_STL::allocator<char> >, COMDAT
; _this$ = ecx

; 135  :   ~_String_base() { _M_deallocate_block(); }

  00000	e9 00 00 00 00	 jmp	 ?_M_deallocate_block@?$_String_base@DV?$allocator@D@_STL@@@_STL@@QAEXXZ ; _STL::_String_base<char,_STL::allocator<char> >::_M_deallocate_block
??1?$_String_base@DV?$allocator@D@_STL@@@_STL@@QAE@XZ ENDP ; _STL::_String_base<char,_STL::allocator<char> >::~_String_base<char,_STL::allocator<char> >
_TEXT	ENDS
PUBLIC	??0?$basic_string@DV?$char_traits@D@_STL@@V?$allocator@D@2@@_STL@@QAE@PBDABV?$allocator@D@1@@Z ; _STL::basic_string<char,_STL::char_traits<char>,_STL::allocator<char> >::basic_string<char,_STL::char_traits<char>,_STL::allocator<char> >
EXTRN	__EH_prolog:NEAR
EXTRN	__except_list:DWORD
EXTRN	___CxxFrameHandler:NEAR
;	COMDAT xdata$x
xdata$x	SEGMENT
$T103928 DD	0ffffffffH
	DD	FLAT:$L103913
$T103924 DD	019930520H
	DD	01H
	DD	FLAT:$T103928
	DD	2 DUP(00H)
	DD	2 DUP(00H)
; Function compile flags: /Ogsy
; File c:\stlport-4.6.1\stlport\stl\_string.c
xdata$x	ENDS
;	COMDAT ??0?$basic_string@DV?$char_traits@D@_STL@@V?$allocator@D@2@@_STL@@QAE@PBDABV?$allocator@D@1@@Z
_TEXT	SEGMENT
_this$ = -16						; size = 4
__$EHRec$ = -12						; size = 12
___s$ = 8						; size = 4
$T103921 = 11						; size = 1
___a$ = 12						; size = 4
??0?$basic_string@DV?$char_traits@D@_STL@@V?$allocator@D@2@@_STL@@QAE@PBDABV?$allocator@D@1@@Z PROC NEAR ; _STL::basic_string<char,_STL::char_traits<char>,_STL::allocator<char> >::basic_string<char,_STL::char_traits<char>,_STL::allocator<char> >, COMDAT
; _this$ = ecx

; 552  : { 

  00000	b8 00 00 00 00	 mov	 eax, __ehhandler$??0?$basic_string@DV?$char_traits@D@_STL@@V?$allocator@D@2@@_STL@@QAE@PBDABV?$allocator@D@1@@Z
  00005	e8 00 00 00 00	 call	 __EH_prolog
  0000a	51		 push	 ecx
  0000b	56		 push	 esi
  0000c	ff 75 0c	 push	 DWORD PTR ___a$[ebp]
  0000f	8b f1		 mov	 esi, ecx
  00011	89 75 f0	 mov	 DWORD PTR _this$[ebp], esi
  00014	e8 00 00 00 00	 call	 ??0?$_String_base@DV?$allocator@D@_STL@@@_STL@@QAE@ABV?$allocator@D@1@@Z ; _STL::_String_base<char,_STL::allocator<char> >::_String_base<char,_STL::allocator<char> >

; 553  :   _STLP_FIX_LITERAL_BUG(__s) 
; 554  :     _M_range_initialize(__s, __s + traits_type::length(__s));  

  00019	ff 75 08	 push	 DWORD PTR ___s$[ebp]
  0001c	83 65 fc 00	 and	 DWORD PTR __$EHRec$[ebp+8], 0
  00020	e8 00 00 00 00	 call	 _strlen
  00025	03 45 08	 add	 eax, DWORD PTR ___s$[ebp]
  00028	59		 pop	 ecx
  00029	8d 4d 0b	 lea	 ecx, DWORD PTR $T103921[ebp]
  0002c	51		 push	 ecx
  0002d	50		 push	 eax
  0002e	ff 75 08	 push	 DWORD PTR ___s$[ebp]
  00031	8b ce		 mov	 ecx, esi
  00033	e8 00 00 00 00	 call	 ??$_M_range_initialize@PBD@?$basic_string@DV?$char_traits@D@_STL@@V?$allocator@D@2@@_STL@@AAEXPBD0ABUforward_iterator_tag@1@@Z ; _STL::basic_string<char,_STL::char_traits<char>,_STL::allocator<char> >::_M_range_initialize<char const *>

; 555  : } 

  00038	8b 4d f4	 mov	 ecx, DWORD PTR __$EHRec$[ebp]
  0003b	8b c6		 mov	 eax, esi
  0003d	5e		 pop	 esi
  0003e	64 89 0d 00 00
	00 00		 mov	 DWORD PTR fs:__except_list, ecx
  00045	c9		 leave
  00046	c2 08 00	 ret	 8
_TEXT	ENDS
;	COMDAT text$x
text$x	SEGMENT
$L103913:
  00000	8b 4d f0	 mov	 ecx, DWORD PTR _this$[ebp]
  00003	e9 00 00 00 00	 jmp	 ??1?$_String_base@DV?$allocator@D@_STL@@@_STL@@QAE@XZ ; _STL::_String_base<char,_STL::allocator<char> >::~_String_base<char,_STL::allocator<char> >
__ehhandler$??0?$basic_string@DV?$char_traits@D@_STL@@V?$allocator@D@2@@_STL@@QAE@PBDABV?$allocator@D@1@@Z:
  00008	b8 00 00 00 00	 mov	 eax, OFFSET FLAT:$T103924
  0000d	e9 00 00 00 00	 jmp	 ___CxxFrameHandler
text$x	ENDS
??0?$basic_string@DV?$char_traits@D@_STL@@V?$allocator@D@2@@_STL@@QAE@PBDABV?$allocator@D@1@@Z ENDP ; _STL::basic_string<char,_STL::char_traits<char>,_STL::allocator<char> >::basic_string<char,_STL::char_traits<char>,_STL::allocator<char> >
PUBLIC	?getPacketSize@_WeekItemInfo@@QBEHXZ		; _WeekItemInfo::getPacketSize
; Function compile flags: /Ogsy
; File c:\darkeden\designed_common\project\client\packet\gpackets\gcupdateweekitemlist.h
;	COMDAT ?getPacketSize@_WeekItemInfo@@QBEHXZ
_TEXT	SEGMENT
?getPacketSize@_WeekItemInfo@@QBEHXZ PROC NEAR		; _WeekItemInfo::getPacketSize, COMDAT
; _this$ = ecx

; 23   : 		return szObjectID + 
; 24   : 				szBYTE + 
; 25   : 				szItemType + 
; 26   : 				szGrade +
; 27   : 				szBYTE + optionType.size() +
; 28   : 				szItemNum +
; 29   : 				szDWORD +
; 30   : 				szDurability;

  00000	8b 49 0c	 mov	 ecx, DWORD PTR [ecx+12]
  00003	8b 01		 mov	 eax, DWORD PTR [ecx]
  00005	33 d2		 xor	 edx, edx
  00007	eb 03		 jmp	 SHORT $L104045
$L104039:
  00009	8b 00		 mov	 eax, DWORD PTR [eax]
  0000b	42		 inc	 edx
$L104045:
  0000c	3b c1		 cmp	 eax, ecx
  0000e	75 f9		 jne	 SHORT $L104039
  00010	8d 42 15	 lea	 eax, DWORD PTR [edx+21]

; 31   : 	}

  00013	c3		 ret	 0
?getPacketSize@_WeekItemInfo@@QBEHXZ ENDP		; _WeekItemInfo::getPacketSize
_TEXT	ENDS
PUBLIC	??_R4GCUpdateWeekItemList@@6B@			; GCUpdateWeekItemList::`RTTI Complete Object Locator'
PUBLIC	??_R0?AVGCUpdateWeekItemList@@@8		; GCUpdateWeekItemList `RTTI Type Descriptor'
PUBLIC	??_R3GCUpdateWeekItemList@@8			; GCUpdateWeekItemList::`RTTI Class Hierarchy Descriptor'
PUBLIC	??_R2GCUpdateWeekItemList@@8			; GCUpdateWeekItemList::`RTTI Base Class Array'
PUBLIC	??_R1A@?0A@A@GCUpdateWeekItemList@@8		; GCUpdateWeekItemList::`RTTI Base Class Descriptor at (0,-1,0,0)'
PUBLIC	??0GCUpdateWeekItemList@@QAE@XZ			; GCUpdateWeekItemList::GCUpdateWeekItemList
PUBLIC	?read@GCUpdateWeekItemList@@UAEXAAVSocketInputStream@@@Z ; GCUpdateWeekItemList::read
PUBLIC	?write@GCUpdateWeekItemList@@UBEXAAVSocketOutputStream@@@Z ; GCUpdateWeekItemList::write
PUBLIC	?getPacketID@GCUpdateWeekItemList@@UBEGXZ	; GCUpdateWeekItemList::getPacketID
PUBLIC	?getPacketSize@GCUpdateWeekItemList@@UBEIXZ	; GCUpdateWeekItemList::getPacketSize
PUBLIC	??_7GCUpdateWeekItemList@@6B@			; GCUpdateWeekItemList::`vftable'
PUBLIC	??_GGCUpdateWeekItemList@@UAEPAXI@Z		; GCUpdateWeekItemList::`scalar deleting destructor'
EXTRN	??_EGCUpdateWeekItemList@@UAEPAXI@Z:NEAR	; GCUpdateWeekItemList::`vector deleting destructor'
;	COMDAT ??_7GCUpdateWeekItemList@@6B@
; File c:\stlport-4.6.1\stlport\stl\_alloc.h
CONST	SEGMENT
??_7GCUpdateWeekItemList@@6B@ DD FLAT:??_R4GCUpdateWeekItemList@@6B@ ; GCUpdateWeekItemList::`vftable'
	DD	FLAT:??_EGCUpdateWeekItemList@@UAEPAXI@Z
	DD	FLAT:?read@Packet@@UAEXPAVSocket@@@Z
	DD	FLAT:?read@GCUpdateWeekItemList@@UAEXAAVSocketInputStream@@@Z
	DD	FLAT:?write@Packet@@UBEXPAVSocket@@@Z
	DD	FLAT:?write@GCUpdateWeekItemList@@UBEXAAVSocketOutputStream@@@Z
	DD	FLAT:?execute@GCUpdateWeekItemList@@UAEXPAVPlayer@@@Z
	DD	FLAT:?getPacketID@GCUpdateWeekItemList@@UBEGXZ
	DD	FLAT:?getPacketSize@GCUpdateWeekItemList@@UBEIXZ
CONST	ENDS
;	COMDAT ??_R4GCUpdateWeekItemList@@6B@
rdata$r	SEGMENT
??_R4GCUpdateWeekItemList@@6B@ DD 00H			; GCUpdateWeekItemList::`RTTI Complete Object Locator'
	DD	00H
	DD	00H
	DD	FLAT:??_R0?AVGCUpdateWeekItemList@@@8
	DD	FLAT:??_R3GCUpdateWeekItemList@@8
rdata$r	ENDS
;	COMDAT ??_R0?AVGCUpdateWeekItemList@@@8
_DATA	SEGMENT
??_R0?AVGCUpdateWeekItemList@@@8 DD FLAT:??_7type_info@@6B@ ; GCUpdateWeekItemList `RTTI Type Descriptor'
	DD	00H
	DB	'.?AVGCUpdateWeekItemList@@', 00H
_DATA	ENDS
;	COMDAT ??_R3GCUpdateWeekItemList@@8
rdata$r	SEGMENT
??_R3GCUpdateWeekItemList@@8 DD 00H			; GCUpdateWeekItemList::`RTTI Class Hierarchy Descriptor'
	DD	00H
	DD	02H
	DD	FLAT:??_R2GCUpdateWeekItemList@@8
rdata$r	ENDS
;	COMDAT ??_R2GCUpdateWeekItemList@@8
rdata$r	SEGMENT
??_R2GCUpdateWeekItemList@@8 DD FLAT:??_R1A@?0A@A@GCUpdateWeekItemList@@8 ; GCUpdateWeekItemList::`RTTI Base Class Array'
	DD	FLAT:??_R1A@?0A@A@Packet@@8
rdata$r	ENDS
;	COMDAT ??_R1A@?0A@A@GCUpdateWeekItemList@@8
rdata$r	SEGMENT
??_R1A@?0A@A@GCUpdateWeekItemList@@8 DD FLAT:??_R0?AVGCUpdateWeekItemList@@@8 ; GCUpdateWeekItemList::`RTTI Base Class Descriptor at (0,-1,0,0)'
	DD	01H
	DD	00H
	DD	0ffffffffH
	DD	00H
	DD	00H
; Function compile flags: /Ogsy
; File c:\darkeden\designed_common\project\client\packet\gpackets\gcupdateweekitemlist.cpp
rdata$r	ENDS
;	COMDAT ??0GCUpdateWeekItemList@@QAE@XZ
_TEXT	SEGMENT
$T104049 = -1						; size = 1
??0GCUpdateWeekItemList@@QAE@XZ PROC NEAR		; GCUpdateWeekItemList::GCUpdateWeekItemList, COMDAT
; _this$ = ecx

; 22   : {

  00000	51		 push	 ecx
  00001	56		 push	 esi
  00002	8b f1		 mov	 esi, ecx
  00004	57		 push	 edi
  00005	8d 44 24 0b	 lea	 eax, DWORD PTR $T104049[esp+12]
  00009	8d 7e 04	 lea	 edi, DWORD PTR [esi+4]
  0000c	50		 push	 eax
  0000d	8b cf		 mov	 ecx, edi
  0000f	c7 06 00 00 00
	00		 mov	 DWORD PTR [esi], OFFSET FLAT:??_7GCUpdateWeekItemList@@6B@
  00015	e8 00 00 00 00	 call	 ??0?$list@PAU_WeekItemInfo@@V?$allocator@PAU_WeekItemInfo@@@_STL@@@_STL@@QAE@ABV?$allocator@PAU_WeekItemInfo@@@1@@Z ; _STL::list<_WeekItemInfo *,_STL::allocator<_WeekItemInfo *> >::list<_WeekItemInfo *,_STL::allocator<_WeekItemInfo *> >

; 23   : 	__BEGIN_TRY
; 24   : 
; 25   : 	m_WeekItemList.clear();

  0001a	8b cf		 mov	 ecx, edi
  0001c	e8 00 00 00 00	 call	 ?clear@?$_List_base@PAU_WeekItemInfo@@V?$allocator@PAU_WeekItemInfo@@@_STL@@@_STL@@QAEXXZ ; _STL::_List_base<_WeekItemInfo *,_STL::allocator<_WeekItemInfo *> >::clear
  00021	5f		 pop	 edi

; 26   :  
; 27   : 	__END_CATCH
; 28   : }

  00022	8b c6		 mov	 eax, esi
  00024	5e		 pop	 esi
  00025	59		 pop	 ecx
  00026	c3		 ret	 0
??0GCUpdateWeekItemList@@QAE@XZ ENDP			; GCUpdateWeekItemList::GCUpdateWeekItemList
; Function compile flags: /Ogsy
; File c:\darkeden\designed_common\project\client\packet\gpackets\gcupdateweekitemlist.h
_TEXT	ENDS
;	COMDAT ?getPacketID@GCUpdateWeekItemList@@UBEGXZ
_TEXT	SEGMENT
?getPacketID@GCUpdateWeekItemList@@UBEGXZ PROC NEAR	; GCUpdateWeekItemList::getPacketID, COMDAT
; _this$ = ecx

; 93   : 	PacketID_t getPacketID() const throw() { return PACKET_GC_UPDATE_WEEKITEM_LIST; }

  00000	66 b8 ef 01	 mov	 ax, 495			; 000001efH
  00004	c3		 ret	 0
?getPacketID@GCUpdateWeekItemList@@UBEGXZ ENDP		; GCUpdateWeekItemList::getPacketID
_TEXT	ENDS
PUBLIC	??1_WeekItemInfo@@QAE@XZ			; _WeekItemInfo::~_WeekItemInfo
; Function compile flags: /Ogsy
;	COMDAT ??1_WeekItemInfo@@QAE@XZ
_TEXT	SEGMENT
??1_WeekItemInfo@@QAE@XZ PROC NEAR			; _WeekItemInfo::~_WeekItemInfo, COMDAT
; _this$ = ecx
  00000	83 c1 0c	 add	 ecx, 12			; 0000000cH
  00003	e9 00 00 00 00	 jmp	 ??1?$_List_base@GV?$allocator@G@_STL@@@_STL@@QAE@XZ ; _STL::_List_base<unsigned short,_STL::allocator<unsigned short> >::~_List_base<unsigned short,_STL::allocator<unsigned short> >
??1_WeekItemInfo@@QAE@XZ ENDP				; _WeekItemInfo::~_WeekItemInfo
_TEXT	ENDS
PUBLIC	??0_WeekItemInfo@@QAE@XZ			; _WeekItemInfo::_WeekItemInfo
; Function compile flags: /Ogsy
;	COMDAT ??0_WeekItemInfo@@QAE@XZ
_TEXT	SEGMENT
$T104074 = -1						; size = 1
??0_WeekItemInfo@@QAE@XZ PROC NEAR			; _WeekItemInfo::_WeekItemInfo, COMDAT
; _this$ = ecx
  00000	51		 push	 ecx
  00001	56		 push	 esi
  00002	8b f1		 mov	 esi, ecx
  00004	8d 44 24 07	 lea	 eax, DWORD PTR $T104074[esp+8]
  00008	50		 push	 eax
  00009	8d 4e 0c	 lea	 ecx, DWORD PTR [esi+12]
  0000c	e8 00 00 00 00	 call	 ??0?$_List_base@GV?$allocator@G@_STL@@@_STL@@QAE@ABV?$allocator@G@1@@Z ; _STL::_List_base<unsigned short,_STL::allocator<unsigned short> >::_List_base<unsigned short,_STL::allocator<unsigned short> >
  00011	8b c6		 mov	 eax, esi
  00013	5e		 pop	 esi
  00014	59		 pop	 ecx
  00015	c3		 ret	 0
??0_WeekItemInfo@@QAE@XZ ENDP				; _WeekItemInfo::_WeekItemInfo
; Function compile flags: /Ogsy
; File c:\darkeden\designed_common\project\client\packet\gpackets\gcupdateweekitemlist.cpp
_TEXT	ENDS
;	COMDAT ?write@GCUpdateWeekItemList@@UBEXAAVSocketOutputStream@@@Z
_TEXT	SEGMENT
tv330 = -16						; size = 4
$T104445 = -12						; size = 2
$T104204 = -8						; size = 1
_currentNum$ = -2					; size = 1
_totalNum$ = -1						; size = 1
$T104262 = 8						; size = 2
$T104457 = 8						; size = 4
$T104453 = 8						; size = 4
$T104266 = 8						; size = 4
$T104254 = 8						; size = 4
_oitr$101495 = 8					; size = 4
_oStream$ = 8						; size = 4
$T104379 = 11						; size = 1
$T104449 = 11						; size = 1
$T104258 = 11						; size = 1
?write@GCUpdateWeekItemList@@UBEXAAVSocketOutputStream@@@Z PROC NEAR ; GCUpdateWeekItemList::write, COMDAT
; _this$ = ecx

; 104  : {

  00000	55		 push	 ebp
  00001	8b ec		 mov	 ebp, esp
  00003	83 ec 10	 sub	 esp, 16			; 00000010H
  00006	53		 push	 ebx
  00007	56		 push	 esi
  00008	8b f1		 mov	 esi, ecx

; 105  : 	__BEGIN_TRY
; 106  : 	__BEGIN_DEBUG
; 107  : 		
; 108  : 	BYTE totalNum = m_WeekItemList.size();

  0000a	8b 4e 04	 mov	 ecx, DWORD PTR [esi+4]
  0000d	8b 01		 mov	 eax, DWORD PTR [ecx]
  0000f	57		 push	 edi
  00010	33 d2		 xor	 edx, edx
  00012	eb 03		 jmp	 SHORT $L104465
$L104198:
  00014	8b 00		 mov	 eax, DWORD PTR [eax]
  00016	42		 inc	 edx
$L104465:
  00017	3b c1		 cmp	 eax, ecx
  00019	75 f9		 jne	 SHORT $L104198

; 109  : 	BYTE currentNum = 0;
; 110  : 	
; 111  : 	if ( totalNum > MAX_WEEKITEM_LIST ) 

  0001b	0f b6 c2	 movzx	 eax, dl
  0001e	3d f4 01 00 00	 cmp	 eax, 500		; 000001f4H
  00023	88 55 ff	 mov	 BYTE PTR _totalNum$[ebp], dl
  00026	c6 45 fe 00	 mov	 BYTE PTR _currentNum$[ebp], 0
  0002a	7e 04		 jle	 SHORT $L101440

; 112  : 	{
; 113  : 		totalNum = MAX_WEEKITEM_LIST;

  0002c	c6 45 ff f4	 mov	 BYTE PTR _totalNum$[ebp], 244 ; 000000f4H
$L101440:

; 114  : 	}
; 115  : 
; 116  : 	oStream.write( totalNum );

  00030	8a 45 ff	 mov	 al, BYTE PTR _totalNum$[ebp]
  00033	8b 7d 08	 mov	 edi, DWORD PTR _oStream$[ebp]
  00036	88 45 f8	 mov	 BYTE PTR $T104204[ebp], al
  00039	6a 01		 push	 1
  0003b	8d 45 f8	 lea	 eax, DWORD PTR $T104204[ebp]
  0003e	50		 push	 eax
  0003f	8b cf		 mov	 ecx, edi
  00041	e8 00 00 00 00	 call	 ?write@SocketOutputStream@@QAEIPBDI@Z ; SocketOutputStream::write

; 117  : 	
; 118  : 	list<WeekItemInfo*>::const_iterator itr = m_WeekItemList.begin();

  00046	8b 46 04	 mov	 eax, DWORD PTR [esi+4]
  00049	8b 18		 mov	 ebx, DWORD PTR [eax]

; 119  : 	list<WeekItemInfo*>::const_iterator endItr = m_WeekItemList.end();
; 120  : 
; 121  : 	for ( ; itr != endItr, currentNum < totalNum ; ++itr )

$L104241:
  0004b	8a 45 ff	 mov	 al, BYTE PTR _totalNum$[ebp]
  0004e	38 45 fe	 cmp	 BYTE PTR _currentNum$[ebp], al
  00051	0f 83 eb 00 00
	00		 jae	 $L101490

; 122  : 	{
; 123  : 		WeekItemInfo* pSI = *itr;

  00057	8b 73 08	 mov	 esi, DWORD PTR [ebx+8]

; 124  : 		Assert( pSI != NULL );
; 125  : 
; 126  : 		oStream.write( pSI->ID );

  0005a	8b 06		 mov	 eax, DWORD PTR [esi]
  0005c	89 45 08	 mov	 DWORD PTR $T104254[ebp], eax
  0005f	6a 04		 push	 4
  00061	8d 45 08	 lea	 eax, DWORD PTR $T104254[ebp]
  00064	50		 push	 eax
  00065	8b cf		 mov	 ecx, edi
  00067	e8 00 00 00 00	 call	 ?write@SocketOutputStream@@QAEIPBDI@Z ; SocketOutputStream::write

; 127  : 		oStream.write( pSI->itemClass );

  0006c	8a 46 04	 mov	 al, BYTE PTR [esi+4]
  0006f	88 45 0b	 mov	 BYTE PTR $T104258[ebp], al
  00072	6a 01		 push	 1
  00074	8d 45 0b	 lea	 eax, DWORD PTR $T104258[ebp]
  00077	50		 push	 eax
  00078	8b cf		 mov	 ecx, edi
  0007a	e8 00 00 00 00	 call	 ?write@SocketOutputStream@@QAEIPBDI@Z ; SocketOutputStream::write

; 128  : 		oStream.write( pSI->itemType );

  0007f	33 c0		 xor	 eax, eax
  00081	66 8b 46 06	 mov	 ax, WORD PTR [esi+6]
  00085	6a 02		 push	 2
  00087	8b cf		 mov	 ecx, edi
  00089	89 45 08	 mov	 DWORD PTR $T104262[ebp], eax
  0008c	8d 45 08	 lea	 eax, DWORD PTR $T104262[ebp]
  0008f	50		 push	 eax
  00090	e8 00 00 00 00	 call	 ?write@SocketOutputStream@@QAEIPBDI@Z ; SocketOutputStream::write

; 129  : 		oStream.write( pSI->grade );

  00095	8b 46 08	 mov	 eax, DWORD PTR [esi+8]
  00098	89 45 08	 mov	 DWORD PTR $T104266[ebp], eax
  0009b	6a 04		 push	 4
  0009d	8d 45 08	 lea	 eax, DWORD PTR $T104266[ebp]
  000a0	50		 push	 eax
  000a1	8b cf		 mov	 ecx, edi
  000a3	e8 00 00 00 00	 call	 ?write@SocketOutputStream@@QAEIPBDI@Z ; SocketOutputStream::write

; 130  : 		
; 131  : 		BYTE optionNum = pSI->optionType.size();

  000a8	8b 46 0c	 mov	 eax, DWORD PTR [esi+12]
  000ab	8b 08		 mov	 ecx, DWORD PTR [eax]
  000ad	33 d2		 xor	 edx, edx
  000af	eb 03		 jmp	 SHORT $L104466
$L104366:
  000b1	8b 09		 mov	 ecx, DWORD PTR [ecx]
  000b3	42		 inc	 edx
$L104466:
  000b4	3b c8		 cmp	 ecx, eax
  000b6	75 f9		 jne	 SHORT $L104366

; 132  : 		oStream.write( optionNum );

  000b8	6a 01		 push	 1
  000ba	8d 45 0b	 lea	 eax, DWORD PTR $T104379[ebp]
  000bd	50		 push	 eax
  000be	8b cf		 mov	 ecx, edi
  000c0	88 55 0b	 mov	 BYTE PTR $T104379[ebp], dl
  000c3	e8 00 00 00 00	 call	 ?write@SocketOutputStream@@QAEIPBDI@Z ; SocketOutputStream::write

; 133  : 
; 134  : 		list<OptionType_t>::const_iterator oitr = pSI->optionType.begin();

  000c8	8b 46 0c	 mov	 eax, DWORD PTR [esi+12]
  000cb	8b 08		 mov	 ecx, DWORD PTR [eax]

; 135  : 		list<OptionType_t>::const_iterator endoItr = pSI->optionType.end();
; 136  : 
; 137  : 		for ( ; oitr != endoItr ; ++oitr )

  000cd	3b c8		 cmp	 ecx, eax
  000cf	89 45 f0	 mov	 DWORD PTR tv330[ebp], eax
  000d2	89 4d 08	 mov	 DWORD PTR _oitr$101495[ebp], ecx
  000d5	74 28		 je	 SHORT $L101502
  000d7	eb 03		 jmp	 SHORT $L104432
$L104464:
  000d9	8b 4d 08	 mov	 ecx, DWORD PTR _oitr$101495[ebp]
$L104432:

; 138  : 		{
; 139  : 			oStream.write( *oitr );

  000dc	33 c0		 xor	 eax, eax
  000de	66 8b 41 08	 mov	 ax, WORD PTR [ecx+8]
  000e2	6a 02		 push	 2
  000e4	8b cf		 mov	 ecx, edi
  000e6	89 45 f4	 mov	 DWORD PTR $T104445[ebp], eax
  000e9	8d 45 f4	 lea	 eax, DWORD PTR $T104445[ebp]
  000ec	50		 push	 eax
  000ed	e8 00 00 00 00	 call	 ?write@SocketOutputStream@@QAEIPBDI@Z ; SocketOutputStream::write
  000f2	8b 45 08	 mov	 eax, DWORD PTR _oitr$101495[ebp]
  000f5	8b 00		 mov	 eax, DWORD PTR [eax]
  000f7	3b 45 f0	 cmp	 eax, DWORD PTR tv330[ebp]
  000fa	89 45 08	 mov	 DWORD PTR _oitr$101495[ebp], eax
  000fd	75 da		 jne	 SHORT $L104464
$L101502:

; 140  : 		}
; 141  : 
; 142  : 		oStream.write( pSI->num );

  000ff	8a 46 10	 mov	 al, BYTE PTR [esi+16]
  00102	88 45 0b	 mov	 BYTE PTR $T104449[ebp], al
  00105	6a 01		 push	 1
  00107	8d 45 0b	 lea	 eax, DWORD PTR $T104449[ebp]
  0010a	50		 push	 eax
  0010b	8b cf		 mov	 ecx, edi
  0010d	e8 00 00 00 00	 call	 ?write@SocketOutputStream@@QAEIPBDI@Z ; SocketOutputStream::write

; 143  : 		oStream.write( pSI->timeLimit );

  00112	8b 46 14	 mov	 eax, DWORD PTR [esi+20]
  00115	89 45 08	 mov	 DWORD PTR $T104453[ebp], eax
  00118	6a 04		 push	 4
  0011a	8d 45 08	 lea	 eax, DWORD PTR $T104453[ebp]
  0011d	50		 push	 eax
  0011e	8b cf		 mov	 ecx, edi
  00120	e8 00 00 00 00	 call	 ?write@SocketOutputStream@@QAEIPBDI@Z ; SocketOutputStream::write

; 144  : 		oStream.write( pSI->Durability );

  00125	8b 46 18	 mov	 eax, DWORD PTR [esi+24]
  00128	89 45 08	 mov	 DWORD PTR $T104457[ebp], eax
  0012b	6a 04		 push	 4
  0012d	8d 45 08	 lea	 eax, DWORD PTR $T104457[ebp]
  00130	50		 push	 eax
  00131	8b cf		 mov	 ecx, edi
  00133	e8 00 00 00 00	 call	 ?write@SocketOutputStream@@QAEIPBDI@Z ; SocketOutputStream::write

; 145  : 
; 146  : 		++currentNum;

  00138	fe 45 fe	 inc	 BYTE PTR _currentNum$[ebp]
  0013b	8b 1b		 mov	 ebx, DWORD PTR [ebx]
  0013d	e9 09 ff ff ff	 jmp	 $L104241
$L101490:
  00142	5f		 pop	 edi
  00143	5e		 pop	 esi
  00144	5b		 pop	 ebx

; 147  : 	}
; 148  : 
; 149  : 	__END_DEBUG
; 150  : 	__END_CATCH
; 151  : }

  00145	c9		 leave
  00146	c2 04 00	 ret	 4
?write@GCUpdateWeekItemList@@UBEXAAVSocketOutputStream@@@Z ENDP ; GCUpdateWeekItemList::write
; Function compile flags: /Ogsy
_TEXT	ENDS
;	COMDAT ?getPacketSize@GCUpdateWeekItemList@@UBEIXZ
_TEXT	SEGMENT
?getPacketSize@GCUpdateWeekItemList@@UBEIXZ PROC NEAR	; GCUpdateWeekItemList::getPacketSize, COMDAT
; _this$ = ecx

; 172  : { 

  00000	53		 push	 ebx
  00001	56		 push	 esi
  00002	57		 push	 edi

; 173  : 	__BEGIN_TRY
; 174  : 	__BEGIN_DEBUG
; 175  : 
; 176  : 	PacketSize_t size = szBYTE;
; 177  : 
; 178  : 	list<WeekItemInfo*>::const_iterator itr = m_WeekItemList.begin();

  00003	8b 79 04	 mov	 edi, DWORD PTR [ecx+4]
  00006	8b 37		 mov	 esi, DWORD PTR [edi]
  00008	33 db		 xor	 ebx, ebx
  0000a	43		 inc	 ebx
  0000b	eb 0c		 jmp	 SHORT $L104516

; 179  : 	list<WeekItemInfo*>::const_iterator endItr = m_WeekItemList.end();
; 180  : 
; 181  : 	for ( ; itr != endItr ; ++itr )

$L104508:

; 182  : 	{
; 183  : 		size += (*itr)->getPacketSize();

  0000d	8b 4e 08	 mov	 ecx, DWORD PTR [esi+8]
  00010	e8 00 00 00 00	 call	 ?getPacketSize@_WeekItemInfo@@QBEHXZ ; _WeekItemInfo::getPacketSize
  00015	8b 36		 mov	 esi, DWORD PTR [esi]
  00017	03 d8		 add	 ebx, eax
$L104516:

; 179  : 	list<WeekItemInfo*>::const_iterator endItr = m_WeekItemList.end();
; 180  : 
; 181  : 	for ( ; itr != endItr ; ++itr )

  00019	3b f7		 cmp	 esi, edi
  0001b	75 f0		 jne	 SHORT $L104508
  0001d	5f		 pop	 edi
  0001e	5e		 pop	 esi

; 184  : 	}
; 185  : 
; 186  : 	return size;

  0001f	8b c3		 mov	 eax, ebx
  00021	5b		 pop	 ebx

; 187  : 
; 188  : 	__END_DEBUG
; 189  : 	__END_CATCH
; 190  : }

  00022	c3		 ret	 0
?getPacketSize@GCUpdateWeekItemList@@UBEIXZ ENDP	; GCUpdateWeekItemList::getPacketSize
_TEXT	ENDS
PUBLIC	?push_back@?$list@GV?$allocator@G@_STL@@@_STL@@QAEXABG@Z ; _STL::list<unsigned short,_STL::allocator<unsigned short> >::push_back
; Function compile flags: /Ogsy
; File c:\stlport-4.6.1\stlport\stl\_list.h
;	COMDAT ?push_back@?$list@GV?$allocator@G@_STL@@@_STL@@QAEXABG@Z
_TEXT	SEGMENT
$T104521 = 8						; size = 4
___x$ = 8						; size = 4
?push_back@?$list@GV?$allocator@G@_STL@@@_STL@@QAEXABG@Z PROC NEAR ; _STL::list<unsigned short,_STL::allocator<unsigned short> >::push_back, COMDAT
; _this$ = ecx

; 345  :   void push_back(const _Tp& __x) { insert(end(), __x); }

  00000	55		 push	 ebp
  00001	8b ec		 mov	 ebp, esp
  00003	ff 75 08	 push	 DWORD PTR ___x$[ebp]
  00006	8b 11		 mov	 edx, DWORD PTR [ecx]
  00008	51		 push	 ecx
  00009	8b c4		 mov	 eax, esp
  0000b	89 10		 mov	 DWORD PTR [eax], edx
  0000d	8d 45 08	 lea	 eax, DWORD PTR $T104521[ebp]
  00010	50		 push	 eax
  00011	e8 00 00 00 00	 call	 ?insert@?$list@GV?$allocator@G@_STL@@@_STL@@QAE?AU?$_List_iterator@GU?$_Nonconst_traits@G@_STL@@@2@U32@ABG@Z ; _STL::list<unsigned short,_STL::allocator<unsigned short> >::insert
  00016	5d		 pop	 ebp
  00017	c2 04 00	 ret	 4
?push_back@?$list@GV?$allocator@G@_STL@@@_STL@@QAEXABG@Z ENDP ; _STL::list<unsigned short,_STL::allocator<unsigned short> >::push_back
_TEXT	ENDS
PUBLIC	?push_back@?$list@PAU_WeekItemInfo@@V?$allocator@PAU_WeekItemInfo@@@_STL@@@_STL@@QAEXABQAU_WeekItemInfo@@@Z ; _STL::list<_WeekItemInfo *,_STL::allocator<_WeekItemInfo *> >::push_back
; Function compile flags: /Ogsy
;	COMDAT ?push_back@?$list@PAU_WeekItemInfo@@V?$allocator@PAU_WeekItemInfo@@@_STL@@@_STL@@QAEXABQAU_WeekItemInfo@@@Z
_TEXT	SEGMENT
$T104542 = 8						; size = 4
___x$ = 8						; size = 4
?push_back@?$list@PAU_WeekItemInfo@@V?$allocator@PAU_WeekItemInfo@@@_STL@@@_STL@@QAEXABQAU_WeekItemInfo@@@Z PROC NEAR ; _STL::list<_WeekItemInfo *,_STL::allocator<_WeekItemInfo *> >::push_back, COMDAT
; _this$ = ecx

; 345  :   void push_back(const _Tp& __x) { insert(end(), __x); }

  00000	55		 push	 ebp
  00001	8b ec		 mov	 ebp, esp
  00003	ff 75 08	 push	 DWORD PTR ___x$[ebp]
  00006	8b 11		 mov	 edx, DWORD PTR [ecx]
  00008	51		 push	 ecx
  00009	8b c4		 mov	 eax, esp
  0000b	89 10		 mov	 DWORD PTR [eax], edx
  0000d	8d 45 08	 lea	 eax, DWORD PTR $T104542[ebp]
  00010	50		 push	 eax
  00011	e8 00 00 00 00	 call	 ?insert@?$list@PAU_WeekItemInfo@@V?$allocator@PAU_WeekItemInfo@@@_STL@@@_STL@@QAE?AU?$_List_iterator@PAU_WeekItemInfo@@U?$_Nonconst_traits@PAU_WeekItemInfo@@@_STL@@@2@U32@ABQAU_WeekItemInfo@@@Z ; _STL::list<_WeekItemInfo *,_STL::allocator<_WeekItemInfo *> >::insert
  00016	5d		 pop	 ebp
  00017	c2 04 00	 ret	 4
?push_back@?$list@PAU_WeekItemInfo@@V?$allocator@PAU_WeekItemInfo@@@_STL@@@_STL@@QAEXABQAU_WeekItemInfo@@@Z ENDP ; _STL::list<_WeekItemInfo *,_STL::allocator<_WeekItemInfo *> >::push_back
_TEXT	ENDS
PUBLIC	??$_M_range_initialize@PAD@?$basic_string@DV?$char_traits@D@_STL@@V?$allocator@D@2@@_STL@@AAEXPAD0ABUforward_iterator_tag@1@@Z ; _STL::basic_string<char,_STL::char_traits<char>,_STL::allocator<char> >::_M_range_initialize<char *>
; Function compile flags: /Ogsy
; File c:\stlport-4.6.1\stlport\stl\_string.h
;	COMDAT ??$_M_range_initialize@PAD@?$basic_string@DV?$char_traits@D@_STL@@V?$allocator@D@2@@_STL@@AAEXPAD0ABUforward_iterator_tag@1@@Z
_TEXT	SEGMENT
___f$ = 8						; size = 4
___l$ = 12						; size = 4
___formal$ = 16						; size = 4
??$_M_range_initialize@PAD@?$basic_string@DV?$char_traits@D@_STL@@V?$allocator@D@2@@_STL@@AAEXPAD0ABUforward_iterator_tag@1@@Z PROC NEAR ; _STL::basic_string<char,_STL::char_traits<char>,_STL::allocator<char> >::_M_range_initialize<char *>, COMDAT
; _this$ = ecx

; 383  :                            const forward_iterator_tag &) {
; 384  :     difference_type __n = distance(__f, __l);
; 385  :     this->_M_allocate_block(__n + 1);

  00000	8b 44 24 08	 mov	 eax, DWORD PTR ___l$[esp-4]
  00004	2b 44 24 04	 sub	 eax, DWORD PTR ___f$[esp-4]
  00008	56		 push	 esi
  00009	40		 inc	 eax
  0000a	50		 push	 eax
  0000b	8b f1		 mov	 esi, ecx
  0000d	e8 00 00 00 00	 call	 ?_M_allocate_block@?$_String_base@DV?$allocator@D@_STL@@@_STL@@QAEXI@Z ; _STL::_String_base<char,_STL::allocator<char> >::_M_allocate_block

; 386  :     this->_M_finish = uninitialized_copy(__f, __l, this->_M_start);

  00012	ff 36		 push	 DWORD PTR [esi]
  00014	ff 74 24 10	 push	 DWORD PTR ___l$[esp+4]
  00018	ff 74 24 10	 push	 DWORD PTR ___f$[esp+8]
  0001c	e8 00 00 00 00	 call	 ?__copy_trivial@_STL@@YAPAXPBX0PAX@Z ; _STL::__copy_trivial
  00021	83 c4 0c	 add	 esp, 12			; 0000000cH
  00024	89 46 04	 mov	 DWORD PTR [esi+4], eax

; 387  :     _M_terminate_string();

  00027	c6 00 00	 mov	 BYTE PTR [eax], 0
  0002a	5e		 pop	 esi

; 388  :   }

  0002b	c2 0c 00	 ret	 12			; 0000000cH
??$_M_range_initialize@PAD@?$basic_string@DV?$char_traits@D@_STL@@V?$allocator@D@2@@_STL@@AAEXPAD0ABUforward_iterator_tag@1@@Z ENDP ; _STL::basic_string<char,_STL::char_traits<char>,_STL::allocator<char> >::_M_range_initialize<char *>
_TEXT	ENDS
PUBLIC	??1?$basic_string@DV?$char_traits@D@_STL@@V?$allocator@D@2@@_STL@@QAE@XZ ; _STL::basic_string<char,_STL::char_traits<char>,_STL::allocator<char> >::~basic_string<char,_STL::char_traits<char>,_STL::allocator<char> >
; Function compile flags: /Ogsy
;	COMDAT ??1?$basic_string@DV?$char_traits@D@_STL@@V?$allocator@D@2@@_STL@@QAE@XZ
_TEXT	SEGMENT
??1?$basic_string@DV?$char_traits@D@_STL@@V?$allocator@D@2@@_STL@@QAE@XZ PROC NEAR ; _STL::basic_string<char,_STL::char_traits<char>,_STL::allocator<char> >::~basic_string<char,_STL::char_traits<char>,_STL::allocator<char> >, COMDAT
; _this$ = ecx

; 305  :   ~basic_string() { _STLP_STD::_Destroy(this->_M_start, this->_M_finish + 1); }

  00000	e9 00 00 00 00	 jmp	 ?_M_deallocate_block@?$_String_base@DV?$allocator@D@_STL@@@_STL@@QAEXXZ ; _STL::_String_base<char,_STL::allocator<char> >::_M_deallocate_block
??1?$basic_string@DV?$char_traits@D@_STL@@V?$allocator@D@2@@_STL@@QAE@XZ ENDP ; _STL::basic_string<char,_STL::char_traits<char>,_STL::allocator<char> >::~basic_string<char,_STL::char_traits<char>,_STL::allocator<char> >
_TEXT	ENDS
PUBLIC	?addWeekItemInfo@GCUpdateWeekItemList@@QAEXPAU_WeekItemInfo@@@Z ; GCUpdateWeekItemList::addWeekItemInfo
; Function compile flags: /Ogsy
; File c:\darkeden\designed_common\project\client\packet\gpackets\gcupdateweekitemlist.h
;	COMDAT ?addWeekItemInfo@GCUpdateWeekItemList@@QAEXPAU_WeekItemInfo@@@Z
_TEXT	SEGMENT
_pSI$ = 8						; size = 4
?addWeekItemInfo@GCUpdateWeekItemList@@QAEXPAU_WeekItemInfo@@@Z PROC NEAR ; GCUpdateWeekItemList::addWeekItemInfo, COMDAT
; _this$ = ecx

; 101  : 	void		addWeekItemInfo( WeekItemInfo* pSI ) { m_WeekItemList.push_back( pSI ); }

  00000	8d 44 24 04	 lea	 eax, DWORD PTR _pSI$[esp-4]
  00004	50		 push	 eax
  00005	83 c1 04	 add	 ecx, 4
  00008	e8 00 00 00 00	 call	 ?push_back@?$list@PAU_WeekItemInfo@@V?$allocator@PAU_WeekItemInfo@@@_STL@@@_STL@@QAEXABQAU_WeekItemInfo@@@Z ; _STL::list<_WeekItemInfo *,_STL::allocator<_WeekItemInfo *> >::push_back
  0000d	c2 04 00	 ret	 4
?addWeekItemInfo@GCUpdateWeekItemList@@QAEXPAU_WeekItemInfo@@@Z ENDP ; GCUpdateWeekItemList::addWeekItemInfo
_TEXT	ENDS
PUBLIC	??_G_WeekItemInfo@@QAEPAXI@Z			; _WeekItemInfo::`scalar deleting destructor'
; Function compile flags: /Ogsy
;	COMDAT ??_G_WeekItemInfo@@QAEPAXI@Z
_TEXT	SEGMENT
___flags$ = 8						; size = 4
??_G_WeekItemInfo@@QAEPAXI@Z PROC NEAR			; _WeekItemInfo::`scalar deleting destructor', COMDAT
; _this$ = ecx
  00000	56		 push	 esi
  00001	8b f1		 mov	 esi, ecx
  00003	e8 00 00 00 00	 call	 ??1_WeekItemInfo@@QAE@XZ
  00008	f6 44 24 08 01	 test	 BYTE PTR ___flags$[esp], 1
  0000d	74 07		 je	 SHORT $L101379
  0000f	56		 push	 esi
  00010	e8 00 00 00 00	 call	 ??3@YAXPAX@Z		; operator delete
  00015	59		 pop	 ecx
$L101379:
  00016	8b c6		 mov	 eax, esi
  00018	5e		 pop	 esi
  00019	c2 04 00	 ret	 4
??_G_WeekItemInfo@@QAEPAXI@Z ENDP			; _WeekItemInfo::`scalar deleting destructor'
_TEXT	ENDS
PUBLIC	??$_M_range_initialize@PAD@?$basic_string@DV?$char_traits@D@_STL@@V?$allocator@D@2@@_STL@@AAEXPAD0@Z ; _STL::basic_string<char,_STL::char_traits<char>,_STL::allocator<char> >::_M_range_initialize<char *>
; Function compile flags: /Ogsy
; File c:\stlport-4.6.1\stlport\stl\_string.h
;	COMDAT ??$_M_range_initialize@PAD@?$basic_string@DV?$char_traits@D@_STL@@V?$allocator@D@2@@_STL@@AAEXPAD0@Z
_TEXT	SEGMENT
___f$ = 8						; size = 4
___l$ = 12						; size = 4
$T104692 = 15						; size = 1
??$_M_range_initialize@PAD@?$basic_string@DV?$char_traits@D@_STL@@V?$allocator@D@2@@_STL@@AAEXPAD0@Z PROC NEAR ; _STL::basic_string<char,_STL::char_traits<char>,_STL::allocator<char> >::_M_range_initialize<char *>, COMDAT
; _this$ = ecx

; 390  :   template <class _InputIter> void _M_range_initialize(_InputIter __f, _InputIter __l) {

  00000	55		 push	 ebp
  00001	8b ec		 mov	 ebp, esp

; 391  :     _M_range_initialize(__f, __l, _STLP_ITERATOR_CATEGORY(__f, _InputIter));

  00003	8d 45 0f	 lea	 eax, DWORD PTR $T104692[ebp]
  00006	50		 push	 eax
  00007	ff 75 0c	 push	 DWORD PTR ___l$[ebp]
  0000a	ff 75 08	 push	 DWORD PTR ___f$[ebp]
  0000d	e8 00 00 00 00	 call	 ??$_M_range_initialize@PAD@?$basic_string@DV?$char_traits@D@_STL@@V?$allocator@D@2@@_STL@@AAEXPAD0ABUforward_iterator_tag@1@@Z ; _STL::basic_string<char,_STL::char_traits<char>,_STL::allocator<char> >::_M_range_initialize<char *>

; 392  :   }

  00012	5d		 pop	 ebp
  00013	c2 08 00	 ret	 8
??$_M_range_initialize@PAD@?$basic_string@DV?$char_traits@D@_STL@@V?$allocator@D@2@@_STL@@AAEXPAD0@Z ENDP ; _STL::basic_string<char,_STL::char_traits<char>,_STL::allocator<char> >::_M_range_initialize<char *>
_TEXT	ENDS
PUBLIC	??_G?$basic_string@DV?$char_traits@D@_STL@@V?$allocator@D@2@@_STL@@QAEPAXI@Z ; _STL::basic_string<char,_STL::char_traits<char>,_STL::allocator<char> >::`scalar deleting destructor'
; Function compile flags: /Ogsy
;	COMDAT ??_G?$basic_string@DV?$char_traits@D@_STL@@V?$allocator@D@2@@_STL@@QAEPAXI@Z
_TEXT	SEGMENT
___flags$ = 8						; size = 4
??_G?$basic_string@DV?$char_traits@D@_STL@@V?$allocator@D@2@@_STL@@QAEPAXI@Z PROC NEAR ; _STL::basic_string<char,_STL::char_traits<char>,_STL::allocator<char> >::`scalar deleting destructor', COMDAT
; _this$ = ecx
  00000	56		 push	 esi
  00001	8b f1		 mov	 esi, ecx
  00003	e8 00 00 00 00	 call	 ??1?$basic_string@DV?$char_traits@D@_STL@@V?$allocator@D@2@@_STL@@QAE@XZ ; _STL::basic_string<char,_STL::char_traits<char>,_STL::allocator<char> >::~basic_string<char,_STL::char_traits<char>,_STL::allocator<char> >
  00008	f6 44 24 08 01	 test	 BYTE PTR ___flags$[esp], 1
  0000d	74 07		 je	 SHORT $L102105
  0000f	56		 push	 esi
  00010	e8 00 00 00 00	 call	 ??3@YAXPAX@Z		; operator delete
  00015	59		 pop	 ecx
$L102105:
  00016	8b c6		 mov	 eax, esi
  00018	5e		 pop	 esi
  00019	c2 04 00	 ret	 4
??_G?$basic_string@DV?$char_traits@D@_STL@@V?$allocator@D@2@@_STL@@QAEPAXI@Z ENDP ; _STL::basic_string<char,_STL::char_traits<char>,_STL::allocator<char> >::`scalar deleting destructor'
_TEXT	ENDS
PUBLIC	??0?$basic_string@DV?$char_traits@D@_STL@@V?$allocator@D@2@@_STL@@QAE@ABV01@@Z ; _STL::basic_string<char,_STL::char_traits<char>,_STL::allocator<char> >::basic_string<char,_STL::char_traits<char>,_STL::allocator<char> >
;	COMDAT xdata$x
xdata$x	SEGMENT
$T104713 DD	0ffffffffH
	DD	FLAT:$L104699
$T104711 DD	019930520H
	DD	01H
	DD	FLAT:$T104713
	DD	2 DUP(00H)
	DD	2 DUP(00H)
; Function compile flags: /Ogsy
; File c:\stlport-4.6.1\stlport\stl\_string.c
xdata$x	ENDS
;	COMDAT ??0?$basic_string@DV?$char_traits@D@_STL@@V?$allocator@D@2@@_STL@@QAE@ABV01@@Z
_TEXT	SEGMENT
_this$ = -16						; size = 4
__$EHRec$ = -12						; size = 12
___s$ = 8						; size = 4
$T104706 = 11						; size = 1
$T104698 = 11						; size = 1
??0?$basic_string@DV?$char_traits@D@_STL@@V?$allocator@D@2@@_STL@@QAE@ABV01@@Z PROC NEAR ; _STL::basic_string<char,_STL::char_traits<char>,_STL::allocator<char> >::basic_string<char,_STL::char_traits<char>,_STL::allocator<char> >, COMDAT
; _this$ = ecx

; 560  : {  

  00000	b8 00 00 00 00	 mov	 eax, __ehhandler$??0?$basic_string@DV?$char_traits@D@_STL@@V?$allocator@D@2@@_STL@@QAE@ABV01@@Z
  00005	e8 00 00 00 00	 call	 __EH_prolog
  0000a	51		 push	 ecx
  0000b	56		 push	 esi
  0000c	8b 75 08	 mov	 esi, DWORD PTR ___s$[ebp]
  0000f	57		 push	 edi
  00010	8b f9		 mov	 edi, ecx
  00012	8d 45 0b	 lea	 eax, DWORD PTR $T104698[ebp]
  00015	50		 push	 eax
  00016	8b ce		 mov	 ecx, esi
  00018	89 7d f0	 mov	 DWORD PTR _this$[ebp], edi
  0001b	e8 00 00 00 00	 call	 ?get_allocator@?$basic_string@DV?$char_traits@D@_STL@@V?$allocator@D@2@@_STL@@QBE?AV?$allocator@D@2@XZ ; _STL::basic_string<char,_STL::char_traits<char>,_STL::allocator<char> >::get_allocator
  00020	50		 push	 eax
  00021	8b cf		 mov	 ecx, edi
  00023	e8 00 00 00 00	 call	 ??0?$_String_base@DV?$allocator@D@_STL@@@_STL@@QAE@ABV?$allocator@D@1@@Z ; _STL::_String_base<char,_STL::allocator<char> >::_String_base<char,_STL::allocator<char> >
  00028	83 65 fc 00	 and	 DWORD PTR __$EHRec$[ebp+8], 0

; 561  :   _M_range_initialize(__s._M_start, __s._M_finish);  

  0002c	8d 45 0b	 lea	 eax, DWORD PTR $T104706[ebp]
  0002f	50		 push	 eax
  00030	ff 76 04	 push	 DWORD PTR [esi+4]
  00033	8b cf		 mov	 ecx, edi
  00035	ff 36		 push	 DWORD PTR [esi]
  00037	e8 00 00 00 00	 call	 ??$_M_range_initialize@PAD@?$basic_string@DV?$char_traits@D@_STL@@V?$allocator@D@2@@_STL@@AAEXPAD0ABUforward_iterator_tag@1@@Z ; _STL::basic_string<char,_STL::char_traits<char>,_STL::allocator<char> >::_M_range_initialize<char *>

; 562  : } 

  0003c	8b 4d f4	 mov	 ecx, DWORD PTR __$EHRec$[ebp]
  0003f	8b c7		 mov	 eax, edi
  00041	5f		 pop	 edi
  00042	5e		 pop	 esi
  00043	64 89 0d 00 00
	00 00		 mov	 DWORD PTR fs:__except_list, ecx
  0004a	c9		 leave
  0004b	c2 04 00	 ret	 4
_TEXT	ENDS
;	COMDAT text$x
text$x	SEGMENT
$L104699:
  00000	8b 4d f0	 mov	 ecx, DWORD PTR _this$[ebp]
  00003	e9 00 00 00 00	 jmp	 ??1?$_String_base@DV?$allocator@D@_STL@@@_STL@@QAE@XZ ; _STL::_String_base<char,_STL::allocator<char> >::~_String_base<char,_STL::allocator<char> >
__ehhandler$??0?$basic_string@DV?$char_traits@D@_STL@@V?$allocator@D@2@@_STL@@QAE@ABV01@@Z:
  00008	b8 00 00 00 00	 mov	 eax, OFFSET FLAT:$T104711
  0000d	e9 00 00 00 00	 jmp	 ___CxxFrameHandler
text$x	ENDS
??0?$basic_string@DV?$char_traits@D@_STL@@V?$allocator@D@2@@_STL@@QAE@ABV01@@Z ENDP ; _STL::basic_string<char,_STL::char_traits<char>,_STL::allocator<char> >::basic_string<char,_STL::char_traits<char>,_STL::allocator<char> >
PUBLIC	??$_Construct@V?$basic_string@DV?$char_traits@D@_STL@@V?$allocator@D@2@@_STL@@V12@@_STL@@YAXPAV?$basic_string@DV?$char_traits@D@_STL@@V?$allocator@D@2@@0@ABV10@@Z ; _STL::_Construct<_STL::basic_string<char,_STL::char_traits<char>,_STL::allocator<char> >,_STL::basic_string<char,_STL::char_traits<char>,_STL::allocator<char> > >
;	COMDAT xdata$x
; File c:\program files\microsoft visual studio .net 2003\vc7\include\new
xdata$x	SEGMENT
$T104729 DD	0ffffffffH
	DD	FLAT:$L104722
$T104727 DD	019930520H
	DD	01H
	DD	FLAT:$T104729
	DD	2 DUP(00H)
	DD	2 DUP(00H)
; Function compile flags: /Ogsy
; File c:\stlport-4.6.1\stlport\stl\_construct.h
xdata$x	ENDS
;	COMDAT ??$_Construct@V?$basic_string@DV?$char_traits@D@_STL@@V?$allocator@D@2@@_STL@@V12@@_STL@@YAXPAV?$basic_string@DV?$char_traits@D@_STL@@V?$allocator@D@2@@0@ABV10@@Z
_TEXT	SEGMENT
$T104719 = -16						; size = 4
__$EHRec$ = -12						; size = 12
___p$ = 8						; size = 4
___val$ = 12						; size = 4
??$_Construct@V?$basic_string@DV?$char_traits@D@_STL@@V?$allocator@D@2@@_STL@@V12@@_STL@@YAXPAV?$basic_string@DV?$char_traits@D@_STL@@V?$allocator@D@2@@0@ABV10@@Z PROC NEAR ; _STL::_Construct<_STL::basic_string<char,_STL::char_traits<char>,_STL::allocator<char> >,_STL::basic_string<char,_STL::char_traits<char>,_STL::allocator<char> > >, COMDAT

; 93   : inline void _Construct(_T1* __p, const _T2& __val) {

  00000	b8 00 00 00 00	 mov	 eax, __ehhandler$??$_Construct@V?$basic_string@DV?$char_traits@D@_STL@@V?$allocator@D@2@@_STL@@V12@@_STL@@YAXPAV?$basic_string@DV?$char_traits@D@_STL@@V?$allocator@D@2@@0@ABV10@@Z
  00005	e8 00 00 00 00	 call	 __EH_prolog
  0000a	51		 push	 ecx

; 94   : # ifdef _STLP_DEBUG_UNINITIALIZED
; 95   : 	memset((char*)__p, _STLP_SHRED_BYTE, sizeof(_T1));
; 96   : # endif
; 97   :     _STLP_PLACEMENT_NEW (__p) _T1(__val);

  0000b	8b 4d 08	 mov	 ecx, DWORD PTR ___p$[ebp]
  0000e	89 4d f0	 mov	 DWORD PTR $T104719[ebp], ecx
  00011	83 65 fc 00	 and	 DWORD PTR __$EHRec$[ebp+8], 0
  00015	85 c9		 test	 ecx, ecx
  00017	74 08		 je	 SHORT $L104720
  00019	ff 75 0c	 push	 DWORD PTR ___val$[ebp]
  0001c	e8 00 00 00 00	 call	 ??0?$basic_string@DV?$char_traits@D@_STL@@V?$allocator@D@2@@_STL@@QAE@ABV01@@Z ; _STL::basic_string<char,_STL::char_traits<char>,_STL::allocator<char> >::basic_string<char,_STL::char_traits<char>,_STL::allocator<char> >
$L104720:

; 98   : }

  00021	8b 4d f4	 mov	 ecx, DWORD PTR __$EHRec$[ebp]
  00024	64 89 0d 00 00
	00 00		 mov	 DWORD PTR fs:__except_list, ecx
  0002b	c9		 leave
  0002c	c3		 ret	 0
_TEXT	ENDS
;	COMDAT text$x
text$x	SEGMENT
$L104722:
  00000	ff 75 08	 push	 DWORD PTR ___p$[ebp]
  00003	ff 75 f0	 push	 DWORD PTR $T104719[ebp]
  00006	e8 00 00 00 00	 call	 ??3@YAXPAX0@Z		; operator delete
  0000b	59		 pop	 ecx
  0000c	59		 pop	 ecx
  0000d	c3		 ret	 0
__ehhandler$??$_Construct@V?$basic_string@DV?$char_traits@D@_STL@@V?$allocator@D@2@@_STL@@V12@@_STL@@YAXPAV?$basic_string@DV?$char_traits@D@_STL@@V?$allocator@D@2@@0@ABV10@@Z:
  0000e	b8 00 00 00 00	 mov	 eax, OFFSET FLAT:$T104727
  00013	e9 00 00 00 00	 jmp	 ___CxxFrameHandler
text$x	ENDS
??$_Construct@V?$basic_string@DV?$char_traits@D@_STL@@V?$allocator@D@2@@_STL@@V12@@_STL@@YAXPAV?$basic_string@DV?$char_traits@D@_STL@@V?$allocator@D@2@@0@ABV10@@Z ENDP ; _STL::_Construct<_STL::basic_string<char,_STL::char_traits<char>,_STL::allocator<char> >,_STL::basic_string<char,_STL::char_traits<char>,_STL::allocator<char> > >
PUBLIC	??1GCUpdateWeekItemList@@UAE@XZ			; GCUpdateWeekItemList::~GCUpdateWeekItemList
; Function compile flags: /Ogsy
; File c:\darkeden\designed_common\project\client\packet\gpackets\gcupdateweekitemlist.cpp
;	COMDAT ??1GCUpdateWeekItemList@@UAE@XZ
_TEXT	SEGMENT
tv169 = -4						; size = 4
??1GCUpdateWeekItemList@@UAE@XZ PROC NEAR		; GCUpdateWeekItemList::~GCUpdateWeekItemList, COMDAT
; _this$ = ecx

; 35   : {

  00000	51		 push	 ecx
  00001	53		 push	 ebx
  00002	55		 push	 ebp
  00003	56		 push	 esi
  00004	57		 push	 edi
  00005	8b f9		 mov	 edi, ecx

; 36   : 	__BEGIN_TRY
; 37   : 
; 38   : 	list<WeekItemInfo*>::iterator itr = m_WeekItemList.begin();

  00007	8d 6f 04	 lea	 ebp, DWORD PTR [edi+4]
  0000a	8b 5d 00	 mov	 ebx, DWORD PTR [ebp]
  0000d	c7 07 00 00 00
	00		 mov	 DWORD PTR [edi], OFFSET FLAT:??_7GCUpdateWeekItemList@@6B@
  00013	8b 33		 mov	 esi, DWORD PTR [ebx]
  00015	eb 20		 jmp	 SHORT $L104798

; 39   : 	list<WeekItemInfo*>::iterator endItr = m_WeekItemList.end();
; 40   : 
; 41   : 	for ( ; itr != endItr ; ++itr )

$L104777:

; 42   : 	{
; 43   : 		if ( *itr != NULL )

  00017	8b 4e 08	 mov	 ecx, DWORD PTR [esi+8]
  0001a	85 c9		 test	 ecx, ecx
  0001c	89 4c 24 10	 mov	 DWORD PTR tv169[esp+20], ecx
  00020	74 13		 je	 SHORT $L101370

; 44   : 		{
; 45   : 			delete *itr; 

  00022	e8 00 00 00 00	 call	 ??1_WeekItemInfo@@QAE@XZ
  00027	ff 74 24 10	 push	 DWORD PTR tv169[esp+20]
  0002b	e8 00 00 00 00	 call	 ??3@YAXPAX@Z		; operator delete

; 46   : 			*itr = NULL;

  00030	83 66 08 00	 and	 DWORD PTR [esi+8], 0
  00034	59		 pop	 ecx
$L101370:

; 39   : 	list<WeekItemInfo*>::iterator endItr = m_WeekItemList.end();
; 40   : 
; 41   : 	for ( ; itr != endItr ; ++itr )

  00035	8b 36		 mov	 esi, DWORD PTR [esi]
$L104798:
  00037	3b f3		 cmp	 esi, ebx
  00039	75 dc		 jne	 SHORT $L104777

; 47   : 		}
; 48   : 	}
; 49   : 
; 50   : 	m_WeekItemList.clear();

  0003b	8b cd		 mov	 ecx, ebp
  0003d	e8 00 00 00 00	 call	 ?clear@?$_List_base@PAU_WeekItemInfo@@V?$allocator@PAU_WeekItemInfo@@@_STL@@@_STL@@QAEXXZ ; _STL::_List_base<_WeekItemInfo *,_STL::allocator<_WeekItemInfo *> >::clear

; 51   : 	
; 52   : 	__END_CATCH
; 53   : }

  00042	8b cd		 mov	 ecx, ebp
  00044	e8 00 00 00 00	 call	 ??1?$list@PAU_WeekItemInfo@@V?$allocator@PAU_WeekItemInfo@@@_STL@@@_STL@@QAE@XZ ; _STL::list<_WeekItemInfo *,_STL::allocator<_WeekItemInfo *> >::~list<_WeekItemInfo *,_STL::allocator<_WeekItemInfo *> >
  00049	c7 07 00 00 00
	00		 mov	 DWORD PTR [edi], OFFSET FLAT:??_7Packet@@6B@
  0004f	5f		 pop	 edi
  00050	5e		 pop	 esi
  00051	5d		 pop	 ebp
  00052	5b		 pop	 ebx
  00053	59		 pop	 ecx
  00054	c3		 ret	 0
??1GCUpdateWeekItemList@@UAE@XZ ENDP			; GCUpdateWeekItemList::~GCUpdateWeekItemList
_TEXT	ENDS
PUBLIC	??$_Destroy@V?$basic_string@DV?$char_traits@D@_STL@@V?$allocator@D@2@@_STL@@@_STL@@YAXPAV?$basic_string@DV?$char_traits@D@_STL@@V?$allocator@D@2@@0@@Z ; _STL::_Destroy<_STL::basic_string<char,_STL::char_traits<char>,_STL::allocator<char> > >
; Function compile flags: /Ogsy
; File c:\stlport-4.6.1\stlport\stl\_construct.h
;	COMDAT ??$_Destroy@V?$basic_string@DV?$char_traits@D@_STL@@V?$allocator@D@2@@_STL@@@_STL@@YAXPAV?$basic_string@DV?$char_traits@D@_STL@@V?$allocator@D@2@@0@@Z
_TEXT	SEGMENT
___pointer$ = 8						; size = 4
??$_Destroy@V?$basic_string@DV?$char_traits@D@_STL@@V?$allocator@D@2@@_STL@@@_STL@@YAXPAV?$basic_string@DV?$char_traits@D@_STL@@V?$allocator@D@2@@0@@Z PROC NEAR ; _STL::_Destroy<_STL::basic_string<char,_STL::char_traits<char>,_STL::allocator<char> > >, COMDAT

; 57   : # if _MSC_VER >= 1010
; 58   :   __pointer;
; 59   : # endif	// _MSC_VER >= 1000
; 60   : # ifdef _STLP_TRIVIAL_DESTRUCTOR_BUG
; 61   :   typedef typename __type_traits<_Tp>::has_trivial_destructor _Trivial_destructor;
; 62   :   __destroy_aux(__pointer, _Trivial_destructor());
; 63   : # else
; 64   : #  if ( defined (__BORLANDC__) && ( __BORLANDC__ < 0x500 ) )
; 65   :     __pointer->_Tp::~_Tp();
; 66   : #  else
; 67   :     __pointer->~_Tp();

  00000	8b 4c 24 04	 mov	 ecx, DWORD PTR ___pointer$[esp-4]
  00004	e9 00 00 00 00	 jmp	 ??1?$basic_string@DV?$char_traits@D@_STL@@V?$allocator@D@2@@_STL@@QAE@XZ ; _STL::basic_string<char,_STL::char_traits<char>,_STL::allocator<char> >::~basic_string<char,_STL::char_traits<char>,_STL::allocator<char> >
??$_Destroy@V?$basic_string@DV?$char_traits@D@_STL@@V?$allocator@D@2@@_STL@@@_STL@@YAXPAV?$basic_string@DV?$char_traits@D@_STL@@V?$allocator@D@2@@0@@Z ENDP ; _STL::_Destroy<_STL::basic_string<char,_STL::char_traits<char>,_STL::allocator<char> > >
_TEXT	ENDS
PUBLIC	?_M_create_node@?$list@V?$basic_string@DV?$char_traits@D@_STL@@V?$allocator@D@2@@_STL@@V?$allocator@V?$basic_string@DV?$char_traits@D@_STL@@V?$allocator@D@2@@_STL@@@2@@_STL@@IAEPAU?$_List_node@V?$basic_string@DV?$char_traits@D@_STL@@V?$allocator@D@2@@_STL@@@2@ABV?$basic_string@DV?$char_traits@D@_STL@@V?$allocator@D@2@@2@@Z ; _STL::list<_STL::basic_string<char,_STL::char_traits<char>,_STL::allocator<char> >,_STL::allocator<_STL::basic_string<char,_STL::char_traits<char>,_STL::allocator<char> > > >::_M_create_node
;	COMDAT xdata$x
; File c:\stlport-4.6.1\stlport\stl\_alloc.h
xdata$x	SEGMENT
$T104822 DD	0ffffffffH
	DD	00H
	DD	0ffffffffH
	DD	00H
$T104824 DD	00H
	DD	00H
	DD	00H
	DD	FLAT:$L104810
$T104823 DD	00H
	DD	00H
	DD	01H
	DD	01H
	DD	FLAT:$T104824
$T104819 DD	019930520H
	DD	02H
	DD	FLAT:$T104822
	DD	01H
	DD	FLAT:$T104823
	DD	2 DUP(00H)
; Function compile flags: /Ogsy
; File c:\stlport-4.6.1\stlport\stl\_list.h
xdata$x	ENDS
;	COMDAT ?_M_create_node@?$list@V?$basic_string@DV?$char_traits@D@_STL@@V?$allocator@D@2@@_STL@@V?$allocator@V?$basic_string@DV?$char_traits@D@_STL@@V?$allocator@D@2@@_STL@@@2@@_STL@@IAEPAU?$_List_node@V?$basic_string@DV?$char_traits@D@_STL@@V?$allocator@D@2@@_STL@@@2@ABV?$basic_string@DV?$char_traits@D@_STL@@V?$allocator@D@2@@2@@Z
_TEXT	SEGMENT
_this$ = -24						; size = 4
___p$ = -20						; size = 4
__$EHRec$ = -16						; size = 16
___x$ = 8						; size = 4
?_M_create_node@?$list@V?$basic_string@DV?$char_traits@D@_STL@@V?$allocator@D@2@@_STL@@V?$allocator@V?$basic_string@DV?$char_traits@D@_STL@@V?$allocator@D@2@@_STL@@@2@@_STL@@IAEPAU?$_List_node@V?$basic_string@DV?$char_traits@D@_STL@@V?$allocator@D@2@@_STL@@@2@ABV?$basic_string@DV?$char_traits@D@_STL@@V?$allocator@D@2@@2@@Z PROC NEAR ; _STL::list<_STL::basic_string<char,_STL::char_traits<char>,_STL::allocator<char> >,_STL::allocator<_STL::basic_string<char,_STL::char_traits<char>,_STL::allocator<char> > > >::_M_create_node, COMDAT
; _this$ = ecx

; 240  :   {

  00000	b8 00 00 00 00	 mov	 eax, __ehhandler$?_M_create_node@?$list@V?$basic_string@DV?$char_traits@D@_STL@@V?$allocator@D@2@@_STL@@V?$allocator@V?$basic_string@DV?$char_traits@D@_STL@@V?$allocator@D@2@@_STL@@@2@@_STL@@IAEPAU?$_List_node@V?$basic_string@DV?$char_traits@D@_STL@@V?$allocator@D@2@@_STL@@@2@ABV?$basic_string@DV?$char_traits@D@_STL@@V?$allocator@D@2@@2@@Z
  00005	e8 00 00 00 00	 call	 __EH_prolog
  0000a	83 ec 0c	 sub	 esp, 12			; 0000000cH
  0000d	53		 push	 ebx
  0000e	56		 push	 esi
  0000f	57		 push	 edi
  00010	89 65 f0	 mov	 DWORD PTR __$EHRec$[ebp], esp

; 241  :     _Node* __p = this->_M_node.allocate(1);

  00013	6a 14		 push	 20			; 00000014H
  00015	89 4d e8	 mov	 DWORD PTR _this$[ebp], ecx
  00018	e8 00 00 00 00	 call	 ?allocate@?$__node_alloc@$00$0A@@_STL@@SAPAXI@Z ; _STL::__node_alloc<1,0>::allocate

; 242  :     _STLP_TRY {
; 243  :       _Construct(&__p->_M_data, __x);

  0001d	ff 75 08	 push	 DWORD PTR ___x$[ebp]
  00020	83 65 fc 00	 and	 DWORD PTR __$EHRec$[ebp+12], 0
  00024	8b f0		 mov	 esi, eax
  00026	8d 46 08	 lea	 eax, DWORD PTR [esi+8]
  00029	50		 push	 eax
  0002a	89 75 ec	 mov	 DWORD PTR ___p$[ebp], esi
  0002d	e8 00 00 00 00	 call	 ??$_Construct@V?$basic_string@DV?$char_traits@D@_STL@@V?$allocator@D@2@@_STL@@V12@@_STL@@YAXPAV?$basic_string@DV?$char_traits@D@_STL@@V?$allocator@D@2@@0@ABV10@@Z ; _STL::_Construct<_STL::basic_string<char,_STL::char_traits<char>,_STL::allocator<char> >,_STL::basic_string<char,_STL::char_traits<char>,_STL::allocator<char> > >

; 246  :     return __p;
; 247  :   }

  00032	8b 4d f4	 mov	 ecx, DWORD PTR __$EHRec$[ebp+4]
  00035	83 c4 0c	 add	 esp, 12			; 0000000cH
  00038	5f		 pop	 edi
  00039	8b c6		 mov	 eax, esi
  0003b	5e		 pop	 esi
  0003c	64 89 0d 00 00
	00 00		 mov	 DWORD PTR fs:__except_list, ecx
  00043	5b		 pop	 ebx
  00044	c9		 leave
  00045	c2 04 00	 ret	 4
$L104810:

; 244  :     }
; 245  :     _STLP_UNWIND(this->_M_node.deallocate(__p, 1));

  00048	8b 4d e8	 mov	 ecx, DWORD PTR _this$[ebp]
  0004b	6a 01		 push	 1
  0004d	ff 75 ec	 push	 DWORD PTR ___p$[ebp]
  00050	e8 00 00 00 00	 call	 ?deallocate@?$allocator@U?$_List_node@V?$basic_string@DV?$char_traits@D@_STL@@V?$allocator@D@2@@_STL@@@_STL@@@_STL@@QAEXPAU?$_List_node@V?$basic_string@DV?$char_traits@D@_STL@@V?$allocator@D@2@@_STL@@@2@I@Z ; _STL::allocator<_STL::_List_node<_STL::basic_string<char,_STL::char_traits<char>,_STL::allocator<char> > > >::deallocate
  00055	6a 00		 push	 0
  00057	6a 00		 push	 0
  00059	e8 00 00 00 00	 call	 __CxxThrowException@8
$L104825:
$L104821:
  0005e	cc		 int	 3
_TEXT	ENDS
;	COMDAT text$x
text$x	SEGMENT
__ehhandler$?_M_create_node@?$list@V?$basic_string@DV?$char_traits@D@_STL@@V?$allocator@D@2@@_STL@@V?$allocator@V?$basic_string@DV?$char_traits@D@_STL@@V?$allocator@D@2@@_STL@@@2@@_STL@@IAEPAU?$_List_node@V?$basic_string@DV?$char_traits@D@_STL@@V?$allocator@D@2@@_STL@@@2@ABV?$basic_string@DV?$char_traits@D@_STL@@V?$allocator@D@2@@2@@Z:
  00000	b8 00 00 00 00	 mov	 eax, OFFSET FLAT:$T104819
  00005	e9 00 00 00 00	 jmp	 ___CxxFrameHandler
text$x	ENDS
?_M_create_node@?$list@V?$basic_string@DV?$char_traits@D@_STL@@V?$allocator@D@2@@_STL@@V?$allocator@V?$basic_string@DV?$char_traits@D@_STL@@V?$allocator@D@2@@_STL@@@2@@_STL@@IAEPAU?$_List_node@V?$basic_string@DV?$char_traits@D@_STL@@V?$allocator@D@2@@_STL@@@2@ABV?$basic_string@DV?$char_traits@D@_STL@@V?$allocator@D@2@@2@@Z ENDP ; _STL::list<_STL::basic_string<char,_STL::char_traits<char>,_STL::allocator<char> >,_STL::allocator<_STL::basic_string<char,_STL::char_traits<char>,_STL::allocator<char> > > >::_M_create_node
PUBLIC	?clear@?$_List_base@V?$basic_string@DV?$char_traits@D@_STL@@V?$allocator@D@2@@_STL@@V?$allocator@V?$basic_string@DV?$char_traits@D@_STL@@V?$allocator@D@2@@_STL@@@2@@_STL@@QAEXXZ ; _STL::_List_base<_STL::basic_string<char,_STL::char_traits<char>,_STL::allocator<char> >,_STL::allocator<_STL::basic_string<char,_STL::char_traits<char>,_STL::allocator<char> > > >::clear
; Function compile flags: /Ogsy
; File c:\stlport-4.6.1\stlport\stl\_list.c
;	COMDAT ?clear@?$_List_base@V?$basic_string@DV?$char_traits@D@_STL@@V?$allocator@D@2@@_STL@@V?$allocator@V?$basic_string@DV?$char_traits@D@_STL@@V?$allocator@D@2@@_STL@@@2@@_STL@@QAEXXZ
_TEXT	SEGMENT
?clear@?$_List_base@V?$basic_string@DV?$char_traits@D@_STL@@V?$allocator@D@2@@_STL@@V?$allocator@V?$basic_string@DV?$char_traits@D@_STL@@V?$allocator@D@2@@_STL@@@2@@_STL@@QAEXXZ PROC NEAR ; _STL::_List_base<_STL::basic_string<char,_STL::char_traits<char>,_STL::allocator<char> >,_STL::allocator<_STL::basic_string<char,_STL::char_traits<char>,_STL::allocator<char> > > >::clear, COMDAT
; _this$ = ecx

; 68   : {

  00000	56		 push	 esi
  00001	57		 push	 edi
  00002	8b f9		 mov	 edi, ecx

; 69   :   _List_node<_Tp>* __cur = (_List_node<_Tp>*) this->_M_node._M_data->_M_next;

  00004	8b 07		 mov	 eax, DWORD PTR [edi]
  00006	8b 30		 mov	 esi, DWORD PTR [eax]

; 70   :   while (__cur != this->_M_node._M_data) {

  00008	3b f0		 cmp	 esi, eax
  0000a	74 1c		 je	 SHORT $L98971
  0000c	53		 push	 ebx
$L98970:

; 71   :     _List_node<_Tp>* __tmp = __cur;

  0000d	8b de		 mov	 ebx, esi

; 72   :     __cur = (_List_node<_Tp>*) __cur->_M_next;

  0000f	8b 36		 mov	 esi, DWORD PTR [esi]

; 73   :     _STLP_STD::_Destroy(&__tmp->_M_data);

  00011	8d 4b 08	 lea	 ecx, DWORD PTR [ebx+8]
  00014	e8 00 00 00 00	 call	 ??1?$basic_string@DV?$char_traits@D@_STL@@V?$allocator@D@2@@_STL@@QAE@XZ ; _STL::basic_string<char,_STL::char_traits<char>,_STL::allocator<char> >::~basic_string<char,_STL::char_traits<char>,_STL::allocator<char> >

; 74   :     this->_M_node.deallocate(__tmp, 1);

  00019	6a 01		 push	 1
  0001b	53		 push	 ebx
  0001c	8b cf		 mov	 ecx, edi
  0001e	e8 00 00 00 00	 call	 ?deallocate@?$allocator@U?$_List_node@V?$basic_string@DV?$char_traits@D@_STL@@V?$allocator@D@2@@_STL@@@_STL@@@_STL@@QAEXPAU?$_List_node@V?$basic_string@DV?$char_traits@D@_STL@@V?$allocator@D@2@@_STL@@@2@I@Z ; _STL::allocator<_STL::_List_node<_STL::basic_string<char,_STL::char_traits<char>,_STL::allocator<char> > > >::deallocate
  00023	3b 37		 cmp	 esi, DWORD PTR [edi]
  00025	75 e6		 jne	 SHORT $L98970
  00027	5b		 pop	 ebx
$L98971:

; 75   :   }
; 76   :   this->_M_node._M_data->_M_next = this->_M_node._M_data;

  00028	8b 07		 mov	 eax, DWORD PTR [edi]
  0002a	89 00		 mov	 DWORD PTR [eax], eax

; 77   :   this->_M_node._M_data->_M_prev = this->_M_node._M_data;

  0002c	8b 3f		 mov	 edi, DWORD PTR [edi]
  0002e	89 7f 04	 mov	 DWORD PTR [edi+4], edi
  00031	5f		 pop	 edi
  00032	5e		 pop	 esi

; 78   : }

  00033	c3		 ret	 0
?clear@?$_List_base@V?$basic_string@DV?$char_traits@D@_STL@@V?$allocator@D@2@@_STL@@V?$allocator@V?$basic_string@DV?$char_traits@D@_STL@@V?$allocator@D@2@@_STL@@@2@@_STL@@QAEXXZ ENDP ; _STL::_List_base<_STL::basic_string<char,_STL::char_traits<char>,_STL::allocator<char> >,_STL::allocator<_STL::basic_string<char,_STL::char_traits<char>,_STL::allocator<char> > > >::clear
; Function compile flags: /Ogsy
_TEXT	ENDS
;	COMDAT ??_GGCUpdateWeekItemList@@UAEPAXI@Z
_TEXT	SEGMENT
___flags$ = 8						; size = 4
??_GGCUpdateWeekItemList@@UAEPAXI@Z PROC NEAR		; GCUpdateWeekItemList::`scalar deleting destructor', COMDAT
; _this$ = ecx
  00000	56		 push	 esi
  00001	8b f1		 mov	 esi, ecx
  00003	e8 00 00 00 00	 call	 ??1GCUpdateWeekItemList@@UAE@XZ ; GCUpdateWeekItemList::~GCUpdateWeekItemList
  00008	f6 44 24 08 01	 test	 BYTE PTR ___flags$[esp], 1
  0000d	74 07		 je	 SHORT $L101317
  0000f	56		 push	 esi
  00010	e8 00 00 00 00	 call	 ??3@YAXPAX@Z		; operator delete
  00015	59		 pop	 ecx
$L101317:
  00016	8b c6		 mov	 eax, esi
  00018	5e		 pop	 esi
  00019	c2 04 00	 ret	 4
??_GGCUpdateWeekItemList@@UAEPAXI@Z ENDP		; GCUpdateWeekItemList::`scalar deleting destructor'
_TEXT	ENDS
PUBLIC	?insert@?$list@V?$basic_string@DV?$char_traits@D@_STL@@V?$allocator@D@2@@_STL@@V?$allocator@V?$basic_string@DV?$char_traits@D@_STL@@V?$allocator@D@2@@_STL@@@2@@_STL@@QAE?AU?$_List_iterator@V?$basic_string@DV?$char_traits@D@_STL@@V?$allocator@D@2@@_STL@@U?$_Nonconst_traits@V?$basic_string@DV?$char_traits@D@_STL@@V?$allocator@D@2@@_STL@@@2@@2@U32@ABV?$basic_string@DV?$char_traits@D@_STL@@V?$allocator@D@2@@2@@Z ; _STL::list<_STL::basic_string<char,_STL::char_traits<char>,_STL::allocator<char> >,_STL::allocator<_STL::basic_string<char,_STL::char_traits<char>,_STL::allocator<char> > > >::insert
; Function compile flags: /Ogsy
; File c:\stlport-4.6.1\stlport\stl\_list.h
;	COMDAT ?insert@?$list@V?$basic_string@DV?$char_traits@D@_STL@@V?$allocator@D@2@@_STL@@V?$allocator@V?$basic_string@DV?$char_traits@D@_STL@@V?$allocator@D@2@@_STL@@@2@@_STL@@QAE?AU?$_List_iterator@V?$basic_string@DV?$char_traits@D@_STL@@V?$allocator@D@2@@_STL@@U?$_Nonconst_traits@V?$basic_string@DV?$char_traits@D@_STL@@V?$allocator@D@2@@_STL@@@2@@2@U32@ABV?$basic_string@DV?$char_traits@D@_STL@@V?$allocator@D@2@@2@@Z
_TEXT	SEGMENT
___$ReturnUdt$ = 8					; size = 4
___position$ = 12					; size = 4
___x$ = 16						; size = 4
?insert@?$list@V?$basic_string@DV?$char_traits@D@_STL@@V?$allocator@D@2@@_STL@@V?$allocator@V?$basic_string@DV?$char_traits@D@_STL@@V?$allocator@D@2@@_STL@@@2@@_STL@@QAE?AU?$_List_iterator@V?$basic_string@DV?$char_traits@D@_STL@@V?$allocator@D@2@@_STL@@U?$_Nonconst_traits@V?$basic_string@DV?$char_traits@D@_STL@@V?$allocator@D@2@@_STL@@@2@@2@U32@ABV?$basic_string@DV?$char_traits@D@_STL@@V?$allocator@D@2@@2@@Z PROC NEAR ; _STL::list<_STL::basic_string<char,_STL::char_traits<char>,_STL::allocator<char> >,_STL::allocator<_STL::basic_string<char,_STL::char_traits<char>,_STL::allocator<char> > > >::insert, COMDAT
; _this$ = ecx

; 299  : 
; 300  :     _Node* __tmp = _M_create_node(__x);

  00000	ff 74 24 0c	 push	 DWORD PTR ___x$[esp-4]
  00004	e8 00 00 00 00	 call	 ?_M_create_node@?$list@V?$basic_string@DV?$char_traits@D@_STL@@V?$allocator@D@2@@_STL@@V?$allocator@V?$basic_string@DV?$char_traits@D@_STL@@V?$allocator@D@2@@_STL@@@2@@_STL@@IAEPAU?$_List_node@V?$basic_string@DV?$char_traits@D@_STL@@V?$allocator@D@2@@_STL@@@2@ABV?$basic_string@DV?$char_traits@D@_STL@@V?$allocator@D@2@@2@@Z ; _STL::list<_STL::basic_string<char,_STL::char_traits<char>,_STL::allocator<char> >,_STL::allocator<_STL::basic_string<char,_STL::char_traits<char>,_STL::allocator<char> > > >::_M_create_node

; 301  :     _List_node_base* __n = __position._M_node;
; 302  :     _List_node_base* __p = __n->_M_prev;

  00009	8b 4c 24 08	 mov	 ecx, DWORD PTR ___position$[esp-4]
  0000d	8b 51 04	 mov	 edx, DWORD PTR [ecx+4]

; 303  :     __tmp->_M_next = __n;

  00010	89 08		 mov	 DWORD PTR [eax], ecx

; 304  :     __tmp->_M_prev = __p;

  00012	89 50 04	 mov	 DWORD PTR [eax+4], edx

; 305  :     __p->_M_next = __tmp;

  00015	89 02		 mov	 DWORD PTR [edx], eax

; 306  :     __n->_M_prev = __tmp;

  00017	89 41 04	 mov	 DWORD PTR [ecx+4], eax

; 307  :     return __tmp;

  0001a	8b 4c 24 04	 mov	 ecx, DWORD PTR ___$ReturnUdt$[esp-4]
  0001e	89 01		 mov	 DWORD PTR [ecx], eax
  00020	8b c1		 mov	 eax, ecx

; 308  :   }

  00022	c2 0c 00	 ret	 12			; 0000000cH
?insert@?$list@V?$basic_string@DV?$char_traits@D@_STL@@V?$allocator@D@2@@_STL@@V?$allocator@V?$basic_string@DV?$char_traits@D@_STL@@V?$allocator@D@2@@_STL@@@2@@_STL@@QAE?AU?$_List_iterator@V?$basic_string@DV?$char_traits@D@_STL@@V?$allocator@D@2@@_STL@@U?$_Nonconst_traits@V?$basic_string@DV?$char_traits@D@_STL@@V?$allocator@D@2@@_STL@@@2@@2@U32@ABV?$basic_string@DV?$char_traits@D@_STL@@V?$allocator@D@2@@2@@Z ENDP ; _STL::list<_STL::basic_string<char,_STL::char_traits<char>,_STL::allocator<char> >,_STL::allocator<_STL::basic_string<char,_STL::char_traits<char>,_STL::allocator<char> > > >::insert
_TEXT	ENDS
PUBLIC	??1?$_List_base@V?$basic_string@DV?$char_traits@D@_STL@@V?$allocator@D@2@@_STL@@V?$allocator@V?$basic_string@DV?$char_traits@D@_STL@@V?$allocator@D@2@@_STL@@@2@@_STL@@QAE@XZ ; _STL::_List_base<_STL::basic_string<char,_STL::char_traits<char>,_STL::allocator<char> >,_STL::allocator<_STL::basic_string<char,_STL::char_traits<char>,_STL::allocator<char> > > >::~_List_base<_STL::basic_string<char,_STL::char_traits<char>,_STL::allocator<char> >,_STL::allocator<_STL::basic_string<char,_STL::char_traits<char>,_STL::allocator<char> > > >
; Function compile flags: /Ogsy
;	COMDAT ??1?$_List_base@V?$basic_string@DV?$char_traits@D@_STL@@V?$allocator@D@2@@_STL@@V?$allocator@V?$basic_string@DV?$char_traits@D@_STL@@V?$allocator@D@2@@_STL@@@2@@_STL@@QAE@XZ
_TEXT	SEGMENT
??1?$_List_base@V?$basic_string@DV?$char_traits@D@_STL@@V?$allocator@D@2@@_STL@@V?$allocator@V?$basic_string@DV?$char_traits@D@_STL@@V?$allocator@D@2@@_STL@@@2@@_STL@@QAE@XZ PROC NEAR ; _STL::_List_base<_STL::basic_string<char,_STL::char_traits<char>,_STL::allocator<char> >,_STL::allocator<_STL::basic_string<char,_STL::char_traits<char>,_STL::allocator<char> > > >::~_List_base<_STL::basic_string<char,_STL::char_traits<char>,_STL::allocator<char> >,_STL::allocator<_STL::basic_string<char,_STL::char_traits<char>,_STL::allocator<char> > > >, COMDAT
; _this$ = ecx

; 188  :   ~_List_base() {

  00000	56		 push	 esi
  00001	8b f1		 mov	 esi, ecx

; 189  :     clear();

  00003	e8 00 00 00 00	 call	 ?clear@?$_List_base@V?$basic_string@DV?$char_traits@D@_STL@@V?$allocator@D@2@@_STL@@V?$allocator@V?$basic_string@DV?$char_traits@D@_STL@@V?$allocator@D@2@@_STL@@@2@@_STL@@QAEXXZ ; _STL::_List_base<_STL::basic_string<char,_STL::char_traits<char>,_STL::allocator<char> >,_STL::allocator<_STL::basic_string<char,_STL::char_traits<char>,_STL::allocator<char> > > >::clear

; 190  :     _M_node.deallocate(_M_node._M_data, 1);

  00008	6a 01		 push	 1
  0000a	ff 36		 push	 DWORD PTR [esi]
  0000c	8b ce		 mov	 ecx, esi
  0000e	e8 00 00 00 00	 call	 ?deallocate@?$allocator@U?$_List_node@V?$basic_string@DV?$char_traits@D@_STL@@V?$allocator@D@2@@_STL@@@_STL@@@_STL@@QAEXPAU?$_List_node@V?$basic_string@DV?$char_traits@D@_STL@@V?$allocator@D@2@@_STL@@@2@I@Z ; _STL::allocator<_STL::_List_node<_STL::basic_string<char,_STL::char_traits<char>,_STL::allocator<char> > > >::deallocate
  00013	5e		 pop	 esi

; 191  :   }

  00014	c3		 ret	 0
??1?$_List_base@V?$basic_string@DV?$char_traits@D@_STL@@V?$allocator@D@2@@_STL@@V?$allocator@V?$basic_string@DV?$char_traits@D@_STL@@V?$allocator@D@2@@_STL@@@2@@_STL@@QAE@XZ ENDP ; _STL::_List_base<_STL::basic_string<char,_STL::char_traits<char>,_STL::allocator<char> >,_STL::allocator<_STL::basic_string<char,_STL::char_traits<char>,_STL::allocator<char> > > >::~_List_base<_STL::basic_string<char,_STL::char_traits<char>,_STL::allocator<char> >,_STL::allocator<_STL::basic_string<char,_STL::char_traits<char>,_STL::allocator<char> > > >
_TEXT	ENDS
PUBLIC	??$_M_insert_dispatch@U?$_List_iterator@V?$basic_string@DV?$char_traits@D@_STL@@V?$allocator@D@2@@_STL@@U?$_Const_traits@V?$basic_string@DV?$char_traits@D@_STL@@V?$allocator@D@2@@_STL@@@2@@_STL@@@?$list@V?$basic_string@DV?$char_traits@D@_STL@@V?$allocator@D@2@@_STL@@V?$allocator@V?$basic_string@DV?$char_traits@D@_STL@@V?$allocator@D@2@@_STL@@@2@@_STL@@QAEXU?$_List_iterator@V?$basic_string@DV?$char_traits@D@_STL@@V?$allocator@D@2@@_STL@@U?$_Nonconst_traits@V?$basic_string@DV?$char_traits@D@_STL@@V?$allocator@D@2@@_STL@@@2@@1@U?$_List_iterator@V?$basic_string@DV?$char_traits@D@_STL@@V?$allocator@D@2@@_STL@@U?$_Const_traits@V?$basic_string@DV?$char_traits@D@_STL@@V?$allocator@D@2@@_STL@@@2@@1@1ABU__false_type@1@@Z ; _STL::list<_STL::basic_string<char,_STL::char_traits<char>,_STL::allocator<char> >,_STL::allocator<_STL::basic_string<char,_STL::char_traits<char>,_STL::allocator<char> > > >::_M_insert_dispatch<_STL::_List_iterator<_STL::basic_string<char,_STL::char_traits<char>,_STL::allocator<char> >,_STL::_Const_traits<_STL::basic_string<char,_STL::char_traits<char>,_STL::allocator<char> > > > >
; Function compile flags: /Ogsy
;	COMDAT ??$_M_insert_dispatch@U?$_List_iterator@V?$basic_string@DV?$char_traits@D@_STL@@V?$allocator@D@2@@_STL@@U?$_Const_traits@V?$basic_string@DV?$char_traits@D@_STL@@V?$allocator@D@2@@_STL@@@2@@_STL@@@?$list@V?$basic_string@DV?$char_traits@D@_STL@@V?$allocator@D@2@@_STL@@V?$allocator@V?$basic_string@DV?$char_traits@D@_STL@@V?$allocator@D@2@@_STL@@@2@@_STL@@QAEXU?$_List_iterator@V?$basic_string@DV?$char_traits@D@_STL@@V?$allocator@D@2@@_STL@@U?$_Nonconst_traits@V?$basic_string@DV?$char_traits@D@_STL@@V?$allocator@D@2@@_STL@@@2@@1@U?$_List_iterator@V?$basic_string@DV?$char_traits@D@_STL@@V?$allocator@D@2@@_STL@@U?$_Const_traits@V?$basic_string@DV?$char_traits@D@_STL@@V?$allocator@D@2@@_STL@@@2@@1@1ABU__false_type@1@@Z
_TEXT	SEGMENT
___position$ = 8					; size = 4
$T104864 = 12						; size = 4
___first$ = 12						; size = 4
___last$ = 16						; size = 4
___formal$ = 20						; size = 4
??$_M_insert_dispatch@U?$_List_iterator@V?$basic_string@DV?$char_traits@D@_STL@@V?$allocator@D@2@@_STL@@U?$_Const_traits@V?$basic_string@DV?$char_traits@D@_STL@@V?$allocator@D@2@@_STL@@@2@@_STL@@@?$list@V?$basic_string@DV?$char_traits@D@_STL@@V?$allocator@D@2@@_STL@@V?$allocator@V?$basic_string@DV?$char_traits@D@_STL@@V?$allocator@D@2@@_STL@@@2@@_STL@@QAEXU?$_List_iterator@V?$basic_string@DV?$char_traits@D@_STL@@V?$allocator@D@2@@_STL@@U?$_Nonconst_traits@V?$basic_string@DV?$char_traits@D@_STL@@V?$allocator@D@2@@_STL@@@2@@1@U?$_List_iterator@V?$basic_string@DV?$char_traits@D@_STL@@V?$allocator@D@2@@_STL@@U?$_Const_traits@V?$basic_string@DV?$char_traits@D@_STL@@V?$allocator@D@2@@_STL@@@2@@1@1ABU__false_type@1@@Z PROC NEAR ; _STL::list<_STL::basic_string<char,_STL::char_traits<char>,_STL::allocator<char> >,_STL::allocator<_STL::basic_string<char,_STL::char_traits<char>,_STL::allocator<char> > > >::_M_insert_dispatch<_STL::_List_iterator<_STL::basic_string<char,_STL::char_traits<char>,_STL::allocator<char> >,_STL::_Const_traits<_STL::basic_string<char,_STL::char_traits<char>,_STL::allocator<char> > > > >, COMDAT
; _this$ = ecx

; 323  :   void 

  00000	55		 push	 ebp
  00001	8b ec		 mov	 ebp, esp
  00003	56		 push	 esi

; 324  :   _M_insert_dispatch(iterator __position,
; 325  : 		     _InputIter __first, _InputIter __last,
; 326  : 		     const __false_type&) 
; 327  : #else /* _STLP_MEMBER_TEMPLATES */
; 328  :   void insert(iterator __position, const _Tp* __first, const _Tp* __last) {
; 329  :     for ( ; __first != __last; ++__first)
; 330  :       insert(__position, *__first);
; 331  :   }
; 332  :   void insert(iterator __position, const_iterator __first, const_iterator __last)
; 333  : #endif /* _STLP_MEMBER_TEMPLATES */
; 334  :   {
; 335  :     for ( ; __first != __last; ++__first)

  00004	8b 75 0c	 mov	 esi, DWORD PTR ___first$[ebp]
  00007	57		 push	 edi
  00008	8b f9		 mov	 edi, ecx
  0000a	eb 19		 jmp	 SHORT $L104890
$L104872:

; 336  :       insert(__position, *__first);

  0000c	8d 46 08	 lea	 eax, DWORD PTR [esi+8]
  0000f	50		 push	 eax
  00010	51		 push	 ecx
  00011	8b 4d 08	 mov	 ecx, DWORD PTR ___position$[ebp]
  00014	8b c4		 mov	 eax, esp
  00016	89 08		 mov	 DWORD PTR [eax], ecx
  00018	8d 45 0c	 lea	 eax, DWORD PTR $T104864[ebp]
  0001b	50		 push	 eax
  0001c	8b cf		 mov	 ecx, edi
  0001e	e8 00 00 00 00	 call	 ?insert@?$list@V?$basic_string@DV?$char_traits@D@_STL@@V?$allocator@D@2@@_STL@@V?$allocator@V?$basic_string@DV?$char_traits@D@_STL@@V?$allocator@D@2@@_STL@@@2@@_STL@@QAE?AU?$_List_iterator@V?$basic_string@DV?$char_traits@D@_STL@@V?$allocator@D@2@@_STL@@U?$_Nonconst_traits@V?$basic_string@DV?$char_traits@D@_STL@@V?$allocator@D@2@@_STL@@@2@@2@U32@ABV?$basic_string@DV?$char_traits@D@_STL@@V?$allocator@D@2@@2@@Z ; _STL::list<_STL::basic_string<char,_STL::char_traits<char>,_STL::allocator<char> >,_STL::allocator<_STL::basic_string<char,_STL::char_traits<char>,_STL::allocator<char> > > >::insert
  00023	8b 36		 mov	 esi, DWORD PTR [esi]
$L104890:

; 324  :   _M_insert_dispatch(iterator __position,
; 325  : 		     _InputIter __first, _InputIter __last,
; 326  : 		     const __false_type&) 
; 327  : #else /* _STLP_MEMBER_TEMPLATES */
; 328  :   void insert(iterator __position, const _Tp* __first, const _Tp* __last) {
; 329  :     for ( ; __first != __last; ++__first)
; 330  :       insert(__position, *__first);
; 331  :   }
; 332  :   void insert(iterator __position, const_iterator __first, const_iterator __last)
; 333  : #endif /* _STLP_MEMBER_TEMPLATES */
; 334  :   {
; 335  :     for ( ; __first != __last; ++__first)

  00025	3b 75 10	 cmp	 esi, DWORD PTR ___last$[ebp]
  00028	75 e2		 jne	 SHORT $L104872

; 337  :   }

  0002a	5f		 pop	 edi
  0002b	5e		 pop	 esi
  0002c	5d		 pop	 ebp
  0002d	c2 10 00	 ret	 16			; 00000010H
??$_M_insert_dispatch@U?$_List_iterator@V?$basic_string@DV?$char_traits@D@_STL@@V?$allocator@D@2@@_STL@@U?$_Const_traits@V?$basic_string@DV?$char_traits@D@_STL@@V?$allocator@D@2@@_STL@@@2@@_STL@@@?$list@V?$basic_string@DV?$char_traits@D@_STL@@V?$allocator@D@2@@_STL@@V?$allocator@V?$basic_string@DV?$char_traits@D@_STL@@V?$allocator@D@2@@_STL@@@2@@_STL@@QAEXU?$_List_iterator@V?$basic_string@DV?$char_traits@D@_STL@@V?$allocator@D@2@@_STL@@U?$_Nonconst_traits@V?$basic_string@DV?$char_traits@D@_STL@@V?$allocator@D@2@@_STL@@@2@@1@U?$_List_iterator@V?$basic_string@DV?$char_traits@D@_STL@@V?$allocator@D@2@@_STL@@U?$_Const_traits@V?$basic_string@DV?$char_traits@D@_STL@@V?$allocator@D@2@@_STL@@@2@@1@1ABU__false_type@1@@Z ENDP ; _STL::list<_STL::basic_string<char,_STL::char_traits<char>,_STL::allocator<char> >,_STL::allocator<_STL::basic_string<char,_STL::char_traits<char>,_STL::allocator<char> > > >::_M_insert_dispatch<_STL::_List_iterator<_STL::basic_string<char,_STL::char_traits<char>,_STL::allocator<char> >,_STL::_Const_traits<_STL::basic_string<char,_STL::char_traits<char>,_STL::allocator<char> > > > >
_TEXT	ENDS
PUBLIC	??0?$list@V?$basic_string@DV?$char_traits@D@_STL@@V?$allocator@D@2@@_STL@@V?$allocator@V?$basic_string@DV?$char_traits@D@_STL@@V?$allocator@D@2@@_STL@@@2@@_STL@@QAE@ABV?$allocator@V?$basic_string@DV?$char_traits@D@_STL@@V?$allocator@D@2@@_STL@@@1@@Z ; _STL::list<_STL::basic_string<char,_STL::char_traits<char>,_STL::allocator<char> >,_STL::allocator<_STL::basic_string<char,_STL::char_traits<char>,_STL::allocator<char> > > >::list<_STL::basic_string<char,_STL::char_traits<char>,_STL::allocator<char> >,_STL::allocator<_STL::basic_string<char,_STL::char_traits<char>,_STL::allocator<char> > > >
; Function compile flags: /Ogsy
;	COMDAT ??0?$list@V?$basic_string@DV?$char_traits@D@_STL@@V?$allocator@D@2@@_STL@@V?$allocator@V?$basic_string@DV?$char_traits@D@_STL@@V?$allocator@D@2@@_STL@@@2@@_STL@@QAE@ABV?$allocator@V?$basic_string@DV?$char_traits@D@_STL@@V?$allocator@D@2@@_STL@@@1@@Z
_TEXT	SEGMENT
___a$ = 8						; size = 4
??0?$list@V?$basic_string@DV?$char_traits@D@_STL@@V?$allocator@D@2@@_STL@@V?$allocator@V?$basic_string@DV?$char_traits@D@_STL@@V?$allocator@D@2@@_STL@@@2@@_STL@@QAE@ABV?$allocator@V?$basic_string@DV?$char_traits@D@_STL@@V?$allocator@D@2@@_STL@@@1@@Z PROC NEAR ; _STL::list<_STL::basic_string<char,_STL::char_traits<char>,_STL::allocator<char> >,_STL::allocator<_STL::basic_string<char,_STL::char_traits<char>,_STL::allocator<char> > > >::list<_STL::basic_string<char,_STL::char_traits<char>,_STL::allocator<char> >,_STL::allocator<_STL::basic_string<char,_STL::char_traits<char>,_STL::allocator<char> > > >, COMDAT
; _this$ = ecx

; 264  :     _List_base<_Tp, _Alloc>(__a) {}

  00000	56		 push	 esi
  00001	ff 74 24 08	 push	 DWORD PTR ___a$[esp]
  00005	8b f1		 mov	 esi, ecx
  00007	e8 00 00 00 00	 call	 ??0?$_List_base@V?$basic_string@DV?$char_traits@D@_STL@@V?$allocator@D@2@@_STL@@V?$allocator@V?$basic_string@DV?$char_traits@D@_STL@@V?$allocator@D@2@@_STL@@@2@@_STL@@QAE@ABV?$allocator@V?$basic_string@DV?$char_traits@D@_STL@@V?$allocator@D@2@@_STL@@@1@@Z ; _STL::_List_base<_STL::basic_string<char,_STL::char_traits<char>,_STL::allocator<char> >,_STL::allocator<_STL::basic_string<char,_STL::char_traits<char>,_STL::allocator<char> > > >::_List_base<_STL::basic_string<char,_STL::char_traits<char>,_STL::allocator<char> >,_STL::allocator<_STL::basic_string<char,_STL::char_traits<char>,_STL::allocator<char> > > >
  0000c	8b c6		 mov	 eax, esi
  0000e	5e		 pop	 esi
  0000f	c2 04 00	 ret	 4
??0?$list@V?$basic_string@DV?$char_traits@D@_STL@@V?$allocator@D@2@@_STL@@V?$allocator@V?$basic_string@DV?$char_traits@D@_STL@@V?$allocator@D@2@@_STL@@@2@@_STL@@QAE@ABV?$allocator@V?$basic_string@DV?$char_traits@D@_STL@@V?$allocator@D@2@@_STL@@@1@@Z ENDP ; _STL::list<_STL::basic_string<char,_STL::char_traits<char>,_STL::allocator<char> >,_STL::allocator<_STL::basic_string<char,_STL::char_traits<char>,_STL::allocator<char> > > >::list<_STL::basic_string<char,_STL::char_traits<char>,_STL::allocator<char> >,_STL::allocator<_STL::basic_string<char,_STL::char_traits<char>,_STL::allocator<char> > > >
_TEXT	ENDS
PUBLIC	??1?$list@V?$basic_string@DV?$char_traits@D@_STL@@V?$allocator@D@2@@_STL@@V?$allocator@V?$basic_string@DV?$char_traits@D@_STL@@V?$allocator@D@2@@_STL@@@2@@_STL@@QAE@XZ ; _STL::list<_STL::basic_string<char,_STL::char_traits<char>,_STL::allocator<char> >,_STL::allocator<_STL::basic_string<char,_STL::char_traits<char>,_STL::allocator<char> > > >::~list<_STL::basic_string<char,_STL::char_traits<char>,_STL::allocator<char> >,_STL::allocator<_STL::basic_string<char,_STL::char_traits<char>,_STL::allocator<char> > > >
; Function compile flags: /Ogsy
;	COMDAT ??1?$list@V?$basic_string@DV?$char_traits@D@_STL@@V?$allocator@D@2@@_STL@@V?$allocator@V?$basic_string@DV?$char_traits@D@_STL@@V?$allocator@D@2@@_STL@@@2@@_STL@@QAE@XZ
_TEXT	SEGMENT
??1?$list@V?$basic_string@DV?$char_traits@D@_STL@@V?$allocator@D@2@@_STL@@V?$allocator@V?$basic_string@DV?$char_traits@D@_STL@@V?$allocator@D@2@@_STL@@@2@@_STL@@QAE@XZ PROC NEAR ; _STL::list<_STL::basic_string<char,_STL::char_traits<char>,_STL::allocator<char> >,_STL::allocator<_STL::basic_string<char,_STL::char_traits<char>,_STL::allocator<char> > > >::~list<_STL::basic_string<char,_STL::char_traits<char>,_STL::allocator<char> >,_STL::allocator<_STL::basic_string<char,_STL::char_traits<char>,_STL::allocator<char> > > >, COMDAT
; _this$ = ecx

; 416  :   ~list() { }

  00000	e9 00 00 00 00	 jmp	 ??1?$_List_base@V?$basic_string@DV?$char_traits@D@_STL@@V?$allocator@D@2@@_STL@@V?$allocator@V?$basic_string@DV?$char_traits@D@_STL@@V?$allocator@D@2@@_STL@@@2@@_STL@@QAE@XZ ; _STL::_List_base<_STL::basic_string<char,_STL::char_traits<char>,_STL::allocator<char> >,_STL::allocator<_STL::basic_string<char,_STL::char_traits<char>,_STL::allocator<char> > > >::~_List_base<_STL::basic_string<char,_STL::char_traits<char>,_STL::allocator<char> >,_STL::allocator<_STL::basic_string<char,_STL::char_traits<char>,_STL::allocator<char> > > >
??1?$list@V?$basic_string@DV?$char_traits@D@_STL@@V?$allocator@D@2@@_STL@@V?$allocator@V?$basic_string@DV?$char_traits@D@_STL@@V?$allocator@D@2@@_STL@@@2@@_STL@@QAE@XZ ENDP ; _STL::list<_STL::basic_string<char,_STL::char_traits<char>,_STL::allocator<char> >,_STL::allocator<_STL::basic_string<char,_STL::char_traits<char>,_STL::allocator<char> > > >::~list<_STL::basic_string<char,_STL::char_traits<char>,_STL::allocator<char> >,_STL::allocator<_STL::basic_string<char,_STL::char_traits<char>,_STL::allocator<char> > > >
_TEXT	ENDS
PUBLIC	??$insert@U?$_List_iterator@V?$basic_string@DV?$char_traits@D@_STL@@V?$allocator@D@2@@_STL@@U?$_Const_traits@V?$basic_string@DV?$char_traits@D@_STL@@V?$allocator@D@2@@_STL@@@2@@_STL@@@?$list@V?$basic_string@DV?$char_traits@D@_STL@@V?$allocator@D@2@@_STL@@V?$allocator@V?$basic_string@DV?$char_traits@D@_STL@@V?$allocator@D@2@@_STL@@@2@@_STL@@QAEXU?$_List_iterator@V?$basic_string@DV?$char_traits@D@_STL@@V?$allocator@D@2@@_STL@@U?$_Nonconst_traits@V?$basic_string@DV?$char_traits@D@_STL@@V?$allocator@D@2@@_STL@@@2@@1@U?$_List_iterator@V?$basic_string@DV?$char_traits@D@_STL@@V?$allocator@D@2@@_STL@@U?$_Const_traits@V?$basic_string@DV?$char_traits@D@_STL@@V?$allocator@D@2@@_STL@@@2@@1@1@Z ; _STL::list<_STL::basic_string<char,_STL::char_traits<char>,_STL::allocator<char> >,_STL::allocator<_STL::basic_string<char,_STL::char_traits<char>,_STL::allocator<char> > > >::insert<_STL::_List_iterator<_STL::basic_string<char,_STL::char_traits<char>,_STL::allocator<char> >,_STL::_Const_traits<_STL::basic_string<char,_STL::char_traits<char>,_STL::allocator<char> > > > >
; Function compile flags: /Ogsy
;	COMDAT ??$insert@U?$_List_iterator@V?$basic_string@DV?$char_traits@D@_STL@@V?$allocator@D@2@@_STL@@U?$_Const_traits@V?$basic_string@DV?$char_traits@D@_STL@@V?$allocator@D@2@@_STL@@@2@@_STL@@@?$list@V?$basic_string@DV?$char_traits@D@_STL@@V?$allocator@D@2@@_STL@@V?$allocator@V?$basic_string@DV?$char_traits@D@_STL@@V?$allocator@D@2@@_STL@@@2@@_STL@@QAEXU?$_List_iterator@V?$basic_string@DV?$char_traits@D@_STL@@V?$allocator@D@2@@_STL@@U?$_Nonconst_traits@V?$basic_string@DV?$char_traits@D@_STL@@V?$allocator@D@2@@_STL@@@2@@1@U?$_List_iterator@V?$basic_string@DV?$char_traits@D@_STL@@V?$allocator@D@2@@_STL@@U?$_Const_traits@V?$basic_string@DV?$char_traits@D@_STL@@V?$allocator@D@2@@_STL@@@2@@1@1@Z
_TEXT	SEGMENT
___pos$ = 8						; size = 4
___first$ = 12						; size = 4
___last$ = 16						; size = 4
$T104901 = 19						; size = 1
??$insert@U?$_List_iterator@V?$basic_string@DV?$char_traits@D@_STL@@V?$allocator@D@2@@_STL@@U?$_Const_traits@V?$basic_string@DV?$char_traits@D@_STL@@V?$allocator@D@2@@_STL@@@2@@_STL@@@?$list@V?$basic_string@DV?$char_traits@D@_STL@@V?$allocator@D@2@@_STL@@V?$allocator@V?$basic_string@DV?$char_traits@D@_STL@@V?$allocator@D@2@@_STL@@@2@@_STL@@QAEXU?$_List_iterator@V?$basic_string@DV?$char_traits@D@_STL@@V?$allocator@D@2@@_STL@@U?$_Nonconst_traits@V?$basic_string@DV?$char_traits@D@_STL@@V?$allocator@D@2@@_STL@@@2@@1@U?$_List_iterator@V?$basic_string@DV?$char_traits@D@_STL@@V?$allocator@D@2@@_STL@@U?$_Const_traits@V?$basic_string@DV?$char_traits@D@_STL@@V?$allocator@D@2@@_STL@@@2@@1@1@Z PROC NEAR ; _STL::list<_STL::basic_string<char,_STL::char_traits<char>,_STL::allocator<char> >,_STL::allocator<_STL::basic_string<char,_STL::char_traits<char>,_STL::allocator<char> > > >::insert<_STL::_List_iterator<_STL::basic_string<char,_STL::char_traits<char>,_STL::allocator<char> >,_STL::_Const_traits<_STL::basic_string<char,_STL::char_traits<char>,_STL::allocator<char> > > > >, COMDAT
; _this$ = ecx

; 312  :   void insert(iterator __pos, _InputIterator __first, _InputIterator __last) {

  00000	55		 push	 ebp
  00001	8b ec		 mov	 ebp, esp

; 313  :     typedef typename _Is_integer<_InputIterator>::_Integral _Integral;
; 314  :     _M_insert_dispatch(__pos, __first, __last, _Integral());

  00003	8b 55 08	 mov	 edx, DWORD PTR ___pos$[ebp]
  00006	8d 45 13	 lea	 eax, DWORD PTR $T104901[ebp]
  00009	50		 push	 eax
  0000a	ff 75 10	 push	 DWORD PTR ___last$[ebp]
  0000d	ff 75 0c	 push	 DWORD PTR ___first$[ebp]
  00010	51		 push	 ecx
  00011	8b c4		 mov	 eax, esp
  00013	89 10		 mov	 DWORD PTR [eax], edx
  00015	e8 00 00 00 00	 call	 ??$_M_insert_dispatch@U?$_List_iterator@V?$basic_string@DV?$char_traits@D@_STL@@V?$allocator@D@2@@_STL@@U?$_Const_traits@V?$basic_string@DV?$char_traits@D@_STL@@V?$allocator@D@2@@_STL@@@2@@_STL@@@?$list@V?$basic_string@DV?$char_traits@D@_STL@@V?$allocator@D@2@@_STL@@V?$allocator@V?$basic_string@DV?$char_traits@D@_STL@@V?$allocator@D@2@@_STL@@@2@@_STL@@QAEXU?$_List_iterator@V?$basic_string@DV?$char_traits@D@_STL@@V?$allocator@D@2@@_STL@@U?$_Nonconst_traits@V?$basic_string@DV?$char_traits@D@_STL@@V?$allocator@D@2@@_STL@@@2@@1@U?$_List_iterator@V?$basic_string@DV?$char_traits@D@_STL@@V?$allocator@D@2@@_STL@@U?$_Const_traits@V?$basic_string@DV?$char_traits@D@_STL@@V?$allocator@D@2@@_STL@@@2@@1@1ABU__false_type@1@@Z ; _STL::list<_STL::basic_string<char,_STL::char_traits<char>,_STL::allocator<char> >,_STL::allocator<_STL::basic_string<char,_STL::char_traits<char>,_STL::allocator<char> > > >::_M_insert_dispatch<_STL::_List_iterator<_STL::basic_string<char,_STL::char_traits<char>,_STL::allocator<char> >,_STL::_Const_traits<_STL::basic_string<char,_STL::char_traits<char>,_STL::allocator<char> > > > >

; 315  :   }

  0001a	5d		 pop	 ebp
  0001b	c2 0c 00	 ret	 12			; 0000000cH
??$insert@U?$_List_iterator@V?$basic_string@DV?$char_traits@D@_STL@@V?$allocator@D@2@@_STL@@U?$_Const_traits@V?$basic_string@DV?$char_traits@D@_STL@@V?$allocator@D@2@@_STL@@@2@@_STL@@@?$list@V?$basic_string@DV?$char_traits@D@_STL@@V?$allocator@D@2@@_STL@@V?$allocator@V?$basic_string@DV?$char_traits@D@_STL@@V?$allocator@D@2@@_STL@@@2@@_STL@@QAEXU?$_List_iterator@V?$basic_string@DV?$char_traits@D@_STL@@V?$allocator@D@2@@_STL@@U?$_Nonconst_traits@V?$basic_string@DV?$char_traits@D@_STL@@V?$allocator@D@2@@_STL@@@2@@1@U?$_List_iterator@V?$basic_string@DV?$char_traits@D@_STL@@V?$allocator@D@2@@_STL@@U?$_Const_traits@V?$basic_string@DV?$char_traits@D@_STL@@V?$allocator@D@2@@_STL@@@2@@1@1@Z ENDP ; _STL::list<_STL::basic_string<char,_STL::char_traits<char>,_STL::allocator<char> >,_STL::allocator<_STL::basic_string<char,_STL::char_traits<char>,_STL::allocator<char> > > >::insert<_STL::_List_iterator<_STL::basic_string<char,_STL::char_traits<char>,_STL::allocator<char> >,_STL::_Const_traits<_STL::basic_string<char,_STL::char_traits<char>,_STL::allocator<char> > > > >
_TEXT	ENDS
PUBLIC	??_R1A@?0A@A@Throwable@@8			; Throwable::`RTTI Base Class Descriptor at (0,-1,0,0)'
PUBLIC	??_R0?AVThrowable@@@8				; Throwable `RTTI Type Descriptor'
PUBLIC	??0Throwable@@QAE@V?$basic_string@DV?$char_traits@D@_STL@@V?$allocator@D@2@@_STL@@@Z ; Throwable::Throwable
PUBLIC	?getName@Throwable@@UBE?AV?$basic_string@DV?$char_traits@D@_STL@@V?$allocator@D@2@@_STL@@XZ ; Throwable::getName
PUBLIC	?toString@Throwable@@UBE?AV?$basic_string@DV?$char_traits@D@_STL@@V?$allocator@D@2@@_STL@@XZ ; Throwable::toString
PUBLIC	??_R4Throwable@@6B@				; Throwable::`RTTI Complete Object Locator'
PUBLIC	??_R3Throwable@@8				; Throwable::`RTTI Class Hierarchy Descriptor'
PUBLIC	??_R2Throwable@@8				; Throwable::`RTTI Base Class Array'
PUBLIC	??_7Throwable@@6B@				; Throwable::`vftable'
PUBLIC	??_GThrowable@@UAEPAXI@Z			; Throwable::`scalar deleting destructor'
EXTRN	??_EThrowable@@UAEPAXI@Z:NEAR			; Throwable::`vector deleting destructor'
;	COMDAT ??_7Throwable@@6B@
; File c:\stlport-4.6.1\stlport\stl\_alloc.h
CONST	SEGMENT
??_7Throwable@@6B@ DD FLAT:??_R4Throwable@@6B@		; Throwable::`vftable'
	DD	FLAT:??_EThrowable@@UAEPAXI@Z
	DD	FLAT:?getName@Throwable@@UBE?AV?$basic_string@DV?$char_traits@D@_STL@@V?$allocator@D@2@@_STL@@XZ
	DD	FLAT:?toString@Throwable@@UBE?AV?$basic_string@DV?$char_traits@D@_STL@@V?$allocator@D@2@@_STL@@XZ
CONST	ENDS
;	COMDAT ??_R4Throwable@@6B@
rdata$r	SEGMENT
??_R4Throwable@@6B@ DD 00H				; Throwable::`RTTI Complete Object Locator'
	DD	00H
	DD	00H
	DD	FLAT:??_R0?AVThrowable@@@8
	DD	FLAT:??_R3Throwable@@8
rdata$r	ENDS
;	COMDAT ??_R0?AVThrowable@@@8
_DATA	SEGMENT
??_R0?AVThrowable@@@8 DD FLAT:??_7type_info@@6B@	; Throwable `RTTI Type Descriptor'
	DD	00H
	DB	'.?AVThrowable@@', 00H
	ORG $-24
	DD	FLAT:??_7type_info@@6B@
	DD	00H
	DB	'.?AVThrowable@@', 00H
_DATA	ENDS
;	COMDAT ??_R3Throwable@@8
rdata$r	SEGMENT
??_R3Throwable@@8 DD 00H				; Throwable::`RTTI Class Hierarchy Descriptor'
	DD	00H
	DD	01H
	DD	FLAT:??_R2Throwable@@8
rdata$r	ENDS
;	COMDAT ??_R2Throwable@@8
rdata$r	SEGMENT
??_R2Throwable@@8 DD FLAT:??_R1A@?0A@A@Throwable@@8	; Throwable::`RTTI Base Class Array'
rdata$r	ENDS
;	COMDAT ??_R1A@?0A@A@Throwable@@8
rdata$r	SEGMENT
??_R1A@?0A@A@Throwable@@8 DD FLAT:??_R0?AVThrowable@@@8	; Throwable::`RTTI Base Class Descriptor at (0,-1,0,0)'
	DD	00H
	DD	00H
	DD	0ffffffffH
	DD	00H
	DD	00H
; Function compile flags: /Ogsy
; File c:\darkeden\designed_common\project\client\packet\exception.h
rdata$r	ENDS
;	COMDAT ??0Throwable@@QAE@V?$basic_string@DV?$char_traits@D@_STL@@V?$allocator@D@2@@_STL@@@Z
_TEXT	SEGMENT
_message$ = 8						; size = 12
$T104915 = 19						; size = 1
??0Throwable@@QAE@V?$basic_string@DV?$char_traits@D@_STL@@V?$allocator@D@2@@_STL@@@Z PROC NEAR ; Throwable::Throwable, COMDAT
; _this$ = ecx

; 40   : 	Throwable ( std::string message ) throw () : m_Message(message) {}

  00000	55		 push	 ebp
  00001	8b ec		 mov	 ebp, esp
  00003	56		 push	 esi
  00004	8b f1		 mov	 esi, ecx
  00006	8d 45 08	 lea	 eax, DWORD PTR _message$[ebp]
  00009	50		 push	 eax
  0000a	8d 4e 04	 lea	 ecx, DWORD PTR [esi+4]
  0000d	c7 06 00 00 00
	00		 mov	 DWORD PTR [esi], OFFSET FLAT:??_7Throwable@@6B@
  00013	e8 00 00 00 00	 call	 ??0?$basic_string@DV?$char_traits@D@_STL@@V?$allocator@D@2@@_STL@@QAE@ABV01@@Z ; _STL::basic_string<char,_STL::char_traits<char>,_STL::allocator<char> >::basic_string<char,_STL::char_traits<char>,_STL::allocator<char> >
  00018	8d 45 13	 lea	 eax, DWORD PTR $T104915[ebp]
  0001b	50		 push	 eax
  0001c	8d 4e 10	 lea	 ecx, DWORD PTR [esi+16]
  0001f	e8 00 00 00 00	 call	 ??0?$list@V?$basic_string@DV?$char_traits@D@_STL@@V?$allocator@D@2@@_STL@@V?$allocator@V?$basic_string@DV?$char_traits@D@_STL@@V?$allocator@D@2@@_STL@@@2@@_STL@@QAE@ABV?$allocator@V?$basic_string@DV?$char_traits@D@_STL@@V?$allocator@D@2@@_STL@@@1@@Z ; _STL::list<_STL::basic_string<char,_STL::char_traits<char>,_STL::allocator<char> >,_STL::allocator<_STL::basic_string<char,_STL::char_traits<char>,_STL::allocator<char> > > >::list<_STL::basic_string<char,_STL::char_traits<char>,_STL::allocator<char> >,_STL::allocator<_STL::basic_string<char,_STL::char_traits<char>,_STL::allocator<char> > > >
  00024	8d 4d 08	 lea	 ecx, DWORD PTR _message$[ebp]
  00027	e8 00 00 00 00	 call	 ??1?$basic_string@DV?$char_traits@D@_STL@@V?$allocator@D@2@@_STL@@QAE@XZ ; _STL::basic_string<char,_STL::char_traits<char>,_STL::allocator<char> >::~basic_string<char,_STL::char_traits<char>,_STL::allocator<char> >
  0002c	8b c6		 mov	 eax, esi
  0002e	5e		 pop	 esi
  0002f	5d		 pop	 ebp
  00030	c2 0c 00	 ret	 12			; 0000000cH
??0Throwable@@QAE@V?$basic_string@DV?$char_traits@D@_STL@@V?$allocator@D@2@@_STL@@@Z ENDP ; Throwable::Throwable
_TEXT	ENDS
PUBLIC	??_C@_09KCKHMJEM@Throwable?$AA@			; `string'
;	COMDAT ??_C@_09KCKHMJEM@Throwable?$AA@
; File c:\stlport-4.6.1\stlport\stl\_alloc.h
CONST	SEGMENT
??_C@_09KCKHMJEM@Throwable?$AA@ DB 'Throwable', 00H	; `string'
; Function compile flags: /Ogsy
; File c:\darkeden\designed_common\project\client\packet\exception.h
CONST	ENDS
;	COMDAT ?getName@Throwable@@UBE?AV?$basic_string@DV?$char_traits@D@_STL@@V?$allocator@D@2@@_STL@@XZ
_TEXT	SEGMENT
___$ReturnUdt$ = 8					; size = 4
$T104924 = 11						; size = 1
?getName@Throwable@@UBE?AV?$basic_string@DV?$char_traits@D@_STL@@V?$allocator@D@2@@_STL@@XZ PROC NEAR ; Throwable::getName, COMDAT
; _this$ = ecx

; 46   : 	virtual std::string getName () const throw () { return "Throwable"; }

  00000	55		 push	 ebp
  00001	8b ec		 mov	 ebp, esp
  00003	8b 4d 08	 mov	 ecx, DWORD PTR ___$ReturnUdt$[ebp]
  00006	8d 45 0b	 lea	 eax, DWORD PTR $T104924[ebp]
  00009	50		 push	 eax
  0000a	68 00 00 00 00	 push	 OFFSET FLAT:??_C@_09KCKHMJEM@Throwable?$AA@
  0000f	e8 00 00 00 00	 call	 ??0?$basic_string@DV?$char_traits@D@_STL@@V?$allocator@D@2@@_STL@@QAE@PBDABV?$allocator@D@1@@Z ; _STL::basic_string<char,_STL::char_traits<char>,_STL::allocator<char> >::basic_string<char,_STL::char_traits<char>,_STL::allocator<char> >
  00014	8b 45 08	 mov	 eax, DWORD PTR ___$ReturnUdt$[ebp]
  00017	5d		 pop	 ebp
  00018	c2 04 00	 ret	 4
?getName@Throwable@@UBE?AV?$basic_string@DV?$char_traits@D@_STL@@V?$allocator@D@2@@_STL@@XZ ENDP ; Throwable::getName
_TEXT	ENDS
PUBLIC	?getStackTrace@Throwable@@QBE?AV?$basic_string@DV?$char_traits@D@_STL@@V?$allocator@D@2@@_STL@@XZ ; Throwable::getStackTrace
PUBLIC	??_C@_03MCPBMLDJ@?5?3?5?$AA@			; `string'
EXTRN	??0StringStream@@QAE@XZ:NEAR			; StringStream::StringStream
EXTRN	??1StringStream@@QAE@XZ:NEAR			; StringStream::~StringStream
EXTRN	??6StringStream@@QAEAAV0@D@Z:NEAR		; StringStream::operator<<
EXTRN	??6StringStream@@QAEAAV0@PBD@Z:NEAR		; StringStream::operator<<
EXTRN	??6StringStream@@QAEAAV0@ABV?$basic_string@DV?$char_traits@D@_STL@@V?$allocator@D@2@@_STL@@@Z:NEAR ; StringStream::operator<<
EXTRN	?toString@StringStream@@QBE?AV?$basic_string@DV?$char_traits@D@_STL@@V?$allocator@D@2@@_STL@@XZ:NEAR ; StringStream::toString
;	COMDAT ??_C@_03MCPBMLDJ@?5?3?5?$AA@
CONST	SEGMENT
??_C@_03MCPBMLDJ@?5?3?5?$AA@ DB ' : ', 00H		; `string'
; Function compile flags: /Ogsy
CONST	ENDS
;	COMDAT ?toString@Throwable@@UBE?AV?$basic_string@DV?$char_traits@D@_STL@@V?$allocator@D@2@@_STL@@XZ
_TEXT	SEGMENT
_buf$ = -44						; size = 20
$T104935 = -24						; size = 12
$T104934 = -24						; size = 12
$T104933 = -12						; size = 12
___$ReturnUdt$ = 8					; size = 4
?toString@Throwable@@UBE?AV?$basic_string@DV?$char_traits@D@_STL@@V?$allocator@D@2@@_STL@@XZ PROC NEAR ; Throwable::toString, COMDAT
; _this$ = ecx

; 79   : 	{

  00000	55		 push	 ebp
  00001	8b ec		 mov	 ebp, esp
  00003	83 ec 2c	 sub	 esp, 44			; 0000002cH
  00006	56		 push	 esi
  00007	8b f1		 mov	 esi, ecx

; 80   : 		StringStream buf;

  00009	8d 4d d4	 lea	 ecx, DWORD PTR _buf$[ebp]
  0000c	e8 00 00 00 00	 call	 ??0StringStream@@QAE@XZ	; StringStream::StringStream

; 81   : 		buf << getName() << " : " << m_Message << '\n'
; 82   : 			<< getStackTrace () ;

  00011	8d 45 e8	 lea	 eax, DWORD PTR $T104934[ebp]
  00014	50		 push	 eax
  00015	8b ce		 mov	 ecx, esi
  00017	e8 00 00 00 00	 call	 ?getStackTrace@Throwable@@QBE?AV?$basic_string@DV?$char_traits@D@_STL@@V?$allocator@D@2@@_STL@@XZ ; Throwable::getStackTrace
  0001c	50		 push	 eax
  0001d	6a 0a		 push	 10			; 0000000aH
  0001f	8d 46 04	 lea	 eax, DWORD PTR [esi+4]
  00022	50		 push	 eax
  00023	8b 06		 mov	 eax, DWORD PTR [esi]
  00025	68 00 00 00 00	 push	 OFFSET FLAT:??_C@_03MCPBMLDJ@?5?3?5?$AA@
  0002a	8d 4d f4	 lea	 ecx, DWORD PTR $T104933[ebp]
  0002d	51		 push	 ecx
  0002e	8b ce		 mov	 ecx, esi
  00030	ff 50 04	 call	 DWORD PTR [eax+4]
  00033	50		 push	 eax
  00034	8d 4d d4	 lea	 ecx, DWORD PTR _buf$[ebp]
  00037	e8 00 00 00 00	 call	 ??6StringStream@@QAEAAV0@ABV?$basic_string@DV?$char_traits@D@_STL@@V?$allocator@D@2@@_STL@@@Z ; StringStream::operator<<
  0003c	8b c8		 mov	 ecx, eax
  0003e	e8 00 00 00 00	 call	 ??6StringStream@@QAEAAV0@PBD@Z ; StringStream::operator<<
  00043	8b c8		 mov	 ecx, eax
  00045	e8 00 00 00 00	 call	 ??6StringStream@@QAEAAV0@ABV?$basic_string@DV?$char_traits@D@_STL@@V?$allocator@D@2@@_STL@@@Z ; StringStream::operator<<
  0004a	8b c8		 mov	 ecx, eax
  0004c	e8 00 00 00 00	 call	 ??6StringStream@@QAEAAV0@D@Z ; StringStream::operator<<
  00051	8b c8		 mov	 ecx, eax
  00053	e8 00 00 00 00	 call	 ??6StringStream@@QAEAAV0@ABV?$basic_string@DV?$char_traits@D@_STL@@V?$allocator@D@2@@_STL@@@Z ; StringStream::operator<<
  00058	8d 4d f4	 lea	 ecx, DWORD PTR $T104933[ebp]
  0005b	e8 00 00 00 00	 call	 ??1?$basic_string@DV?$char_traits@D@_STL@@V?$allocator@D@2@@_STL@@QAE@XZ ; _STL::basic_string<char,_STL::char_traits<char>,_STL::allocator<char> >::~basic_string<char,_STL::char_traits<char>,_STL::allocator<char> >
  00060	8d 4d e8	 lea	 ecx, DWORD PTR $T104934[ebp]
  00063	e8 00 00 00 00	 call	 ??1?$basic_string@DV?$char_traits@D@_STL@@V?$allocator@D@2@@_STL@@QAE@XZ ; _STL::basic_string<char,_STL::char_traits<char>,_STL::allocator<char> >::~basic_string<char,_STL::char_traits<char>,_STL::allocator<char> >

; 83   : 		
; 84   : 		return std::string( buf.toString() );

  00068	8d 45 e8	 lea	 eax, DWORD PTR $T104935[ebp]
  0006b	50		 push	 eax
  0006c	8d 4d d4	 lea	 ecx, DWORD PTR _buf$[ebp]
  0006f	e8 00 00 00 00	 call	 ?toString@StringStream@@QBE?AV?$basic_string@DV?$char_traits@D@_STL@@V?$allocator@D@2@@_STL@@XZ ; StringStream::toString
  00074	8b 4d 08	 mov	 ecx, DWORD PTR ___$ReturnUdt$[ebp]
  00077	50		 push	 eax
  00078	e8 00 00 00 00	 call	 ??0?$basic_string@DV?$char_traits@D@_STL@@V?$allocator@D@2@@_STL@@QAE@ABV01@@Z ; _STL::basic_string<char,_STL::char_traits<char>,_STL::allocator<char> >::basic_string<char,_STL::char_traits<char>,_STL::allocator<char> >
  0007d	8d 4d e8	 lea	 ecx, DWORD PTR $T104935[ebp]
  00080	e8 00 00 00 00	 call	 ??1?$basic_string@DV?$char_traits@D@_STL@@V?$allocator@D@2@@_STL@@QAE@XZ ; _STL::basic_string<char,_STL::char_traits<char>,_STL::allocator<char> >::~basic_string<char,_STL::char_traits<char>,_STL::allocator<char> >
  00085	8d 4d d4	 lea	 ecx, DWORD PTR _buf$[ebp]
  00088	e8 00 00 00 00	 call	 ??1StringStream@@QAE@XZ	; StringStream::~StringStream
  0008d	8b 45 08	 mov	 eax, DWORD PTR ___$ReturnUdt$[ebp]
  00090	5e		 pop	 esi

; 85   : 	}

  00091	c9		 leave
  00092	c2 04 00	 ret	 4
?toString@Throwable@@UBE?AV?$basic_string@DV?$char_traits@D@_STL@@V?$allocator@D@2@@_STL@@XZ ENDP ; Throwable::toString
_TEXT	ENDS
PUBLIC	??_C@_01CLKCMJKC@?5?$AA@			; `string'
;	COMDAT ??_C@_01CLKCMJKC@?5?$AA@
; File c:\stlport-4.6.1\stlport\stl\_list.h
CONST	SEGMENT
??_C@_01CLKCMJKC@?5?$AA@ DB ' ', 00H			; `string'
; Function compile flags: /Ogsy
; File c:\darkeden\designed_common\project\client\packet\exception.h
CONST	ENDS
;	COMDAT ?getStackTrace@Throwable@@QBE?AV?$basic_string@DV?$char_traits@D@_STL@@V?$allocator@D@2@@_STL@@XZ
_TEXT	SEGMENT
_buf$ = -36						; size = 20
$T104940 = -16						; size = 12
tv90 = -4						; size = 4
___$ReturnUdt$ = 8					; size = 4
?getStackTrace@Throwable@@QBE?AV?$basic_string@DV?$char_traits@D@_STL@@V?$allocator@D@2@@_STL@@XZ PROC NEAR ; Throwable::getStackTrace, COMDAT
; _this$ = ecx

; 56   : 	{

  00000	55		 push	 ebp
  00001	8b ec		 mov	 ebp, esp
  00003	83 ec 24	 sub	 esp, 36			; 00000024H
  00006	53		 push	 ebx
  00007	56		 push	 esi
  00008	57		 push	 edi
  00009	8b f9		 mov	 edi, ecx

; 57   : 		StringStream buf;

  0000b	8d 4d dc	 lea	 ecx, DWORD PTR _buf$[ebp]
  0000e	e8 00 00 00 00	 call	 ??0StringStream@@QAE@XZ	; StringStream::StringStream

; 58   : 		int i = 1;
; 59   : 
; 60   : 		for ( std::list<std::string>::const_iterator itr = m_Stacks.begin() ;

  00013	8b 47 10	 mov	 eax, DWORD PTR [edi+16]
  00016	8b 30		 mov	 esi, DWORD PTR [eax]
  00018	33 db		 xor	 ebx, ebx
  0001a	43		 inc	 ebx

; 61   : 			  itr != m_Stacks.end() ;
; 62   : 			  itr ++ , i ++ ) {

  0001b	3b f0		 cmp	 esi, eax
  0001d	74 36		 je	 SHORT $L88001
$L87999:

; 63   : 			for ( int j = 0 ; j < i ; j ++ )

  0001f	85 db		 test	 ebx, ebx
  00021	7e 15		 jle	 SHORT $L88005
  00023	89 5d fc	 mov	 DWORD PTR tv90[ebp], ebx
$L88003:

; 64   : 				buf << " ";

  00026	68 00 00 00 00	 push	 OFFSET FLAT:??_C@_01CLKCMJKC@?5?$AA@
  0002b	8d 4d dc	 lea	 ecx, DWORD PTR _buf$[ebp]
  0002e	e8 00 00 00 00	 call	 ??6StringStream@@QAEAAV0@PBD@Z ; StringStream::operator<<
  00033	ff 4d fc	 dec	 DWORD PTR tv90[ebp]
  00036	75 ee		 jne	 SHORT $L88003
$L88005:

; 65   : 			buf << *itr << '\n' ;

  00038	6a 0a		 push	 10			; 0000000aH
  0003a	8d 46 08	 lea	 eax, DWORD PTR [esi+8]
  0003d	50		 push	 eax
  0003e	8d 4d dc	 lea	 ecx, DWORD PTR _buf$[ebp]
  00041	e8 00 00 00 00	 call	 ??6StringStream@@QAEAAV0@ABV?$basic_string@DV?$char_traits@D@_STL@@V?$allocator@D@2@@_STL@@@Z ; StringStream::operator<<
  00046	8b c8		 mov	 ecx, eax
  00048	e8 00 00 00 00	 call	 ??6StringStream@@QAEAAV0@D@Z ; StringStream::operator<<
  0004d	8b 36		 mov	 esi, DWORD PTR [esi]
  0004f	43		 inc	 ebx
  00050	3b 77 10	 cmp	 esi, DWORD PTR [edi+16]
  00053	75 ca		 jne	 SHORT $L87999
$L88001:

; 66   : 		}
; 67   : 		
; 68   : 		return std::string( buf.toString() );

  00055	8d 45 f0	 lea	 eax, DWORD PTR $T104940[ebp]
  00058	50		 push	 eax
  00059	8d 4d dc	 lea	 ecx, DWORD PTR _buf$[ebp]
  0005c	e8 00 00 00 00	 call	 ?toString@StringStream@@QBE?AV?$basic_string@DV?$char_traits@D@_STL@@V?$allocator@D@2@@_STL@@XZ ; StringStream::toString
  00061	8b 4d 08	 mov	 ecx, DWORD PTR ___$ReturnUdt$[ebp]
  00064	50		 push	 eax
  00065	e8 00 00 00 00	 call	 ??0?$basic_string@DV?$char_traits@D@_STL@@V?$allocator@D@2@@_STL@@QAE@ABV01@@Z ; _STL::basic_string<char,_STL::char_traits<char>,_STL::allocator<char> >::basic_string<char,_STL::char_traits<char>,_STL::allocator<char> >
  0006a	8d 4d f0	 lea	 ecx, DWORD PTR $T104940[ebp]
  0006d	e8 00 00 00 00	 call	 ??1?$basic_string@DV?$char_traits@D@_STL@@V?$allocator@D@2@@_STL@@QAE@XZ ; _STL::basic_string<char,_STL::char_traits<char>,_STL::allocator<char> >::~basic_string<char,_STL::char_traits<char>,_STL::allocator<char> >
  00072	8d 4d dc	 lea	 ecx, DWORD PTR _buf$[ebp]
  00075	e8 00 00 00 00	 call	 ??1StringStream@@QAE@XZ	; StringStream::~StringStream
  0007a	8b 45 08	 mov	 eax, DWORD PTR ___$ReturnUdt$[ebp]
  0007d	5f		 pop	 edi
  0007e	5e		 pop	 esi
  0007f	5b		 pop	 ebx

; 69   : 	}

  00080	c9		 leave
  00081	c2 04 00	 ret	 4
?getStackTrace@Throwable@@QBE?AV?$basic_string@DV?$char_traits@D@_STL@@V?$allocator@D@2@@_STL@@XZ ENDP ; Throwable::getStackTrace
_TEXT	ENDS
PUBLIC	??1Throwable@@UAE@XZ				; Throwable::~Throwable
; Function compile flags: /Ogsy
;	COMDAT ??1Throwable@@UAE@XZ
_TEXT	SEGMENT
??1Throwable@@UAE@XZ PROC NEAR				; Throwable::~Throwable, COMDAT
; _this$ = ecx

; 43   : 	virtual ~Throwable () throw () {}

  00000	56		 push	 esi
  00001	8b f1		 mov	 esi, ecx
  00003	8d 4e 10	 lea	 ecx, DWORD PTR [esi+16]
  00006	c7 06 00 00 00
	00		 mov	 DWORD PTR [esi], OFFSET FLAT:??_7Throwable@@6B@
  0000c	e8 00 00 00 00	 call	 ??1?$list@V?$basic_string@DV?$char_traits@D@_STL@@V?$allocator@D@2@@_STL@@V?$allocator@V?$basic_string@DV?$char_traits@D@_STL@@V?$allocator@D@2@@_STL@@@2@@_STL@@QAE@XZ ; _STL::list<_STL::basic_string<char,_STL::char_traits<char>,_STL::allocator<char> >,_STL::allocator<_STL::basic_string<char,_STL::char_traits<char>,_STL::allocator<char> > > >::~list<_STL::basic_string<char,_STL::char_traits<char>,_STL::allocator<char> >,_STL::allocator<_STL::basic_string<char,_STL::char_traits<char>,_STL::allocator<char> > > >
  00011	8d 4e 04	 lea	 ecx, DWORD PTR [esi+4]
  00014	5e		 pop	 esi
  00015	e9 00 00 00 00	 jmp	 ??1?$basic_string@DV?$char_traits@D@_STL@@V?$allocator@D@2@@_STL@@QAE@XZ ; _STL::basic_string<char,_STL::char_traits<char>,_STL::allocator<char> >::~basic_string<char,_STL::char_traits<char>,_STL::allocator<char> >
??1Throwable@@UAE@XZ ENDP				; Throwable::~Throwable
; Function compile flags: /Ogsy
_TEXT	ENDS
;	COMDAT ??_GThrowable@@UAEPAXI@Z
_TEXT	SEGMENT
___flags$ = 8						; size = 4
??_GThrowable@@UAEPAXI@Z PROC NEAR			; Throwable::`scalar deleting destructor', COMDAT
; _this$ = ecx
  00000	56		 push	 esi
  00001	8b f1		 mov	 esi, ecx
  00003	e8 00 00 00 00	 call	 ??1Throwable@@UAE@XZ	; Throwable::~Throwable
  00008	f6 44 24 08 01	 test	 BYTE PTR ___flags$[esp], 1
  0000d	74 07		 je	 SHORT $L88026
  0000f	56		 push	 esi
  00010	e8 00 00 00 00	 call	 ??3@YAXPAX@Z		; operator delete
  00015	59		 pop	 ecx
$L88026:
  00016	8b c6		 mov	 eax, esi
  00018	5e		 pop	 esi
  00019	c2 04 00	 ret	 4
??_GThrowable@@UAEPAXI@Z ENDP				; Throwable::`scalar deleting destructor'
_TEXT	ENDS
PUBLIC	??_R1A@?0A@A@Exception@@8			; Exception::`RTTI Base Class Descriptor at (0,-1,0,0)'
PUBLIC	??_R0?AVException@@@8				; Exception `RTTI Type Descriptor'
PUBLIC	??_R4Exception@@6B@				; Exception::`RTTI Complete Object Locator'
PUBLIC	??_R3Exception@@8				; Exception::`RTTI Class Hierarchy Descriptor'
PUBLIC	??_R2Exception@@8				; Exception::`RTTI Base Class Array'
PUBLIC	??0Exception@@QAE@V?$basic_string@DV?$char_traits@D@_STL@@V?$allocator@D@2@@_STL@@@Z ; Exception::Exception
PUBLIC	?getName@Exception@@UBE?AV?$basic_string@DV?$char_traits@D@_STL@@V?$allocator@D@2@@_STL@@XZ ; Exception::getName
PUBLIC	??_7Exception@@6B@				; Exception::`vftable'
PUBLIC	??_GException@@UAEPAXI@Z			; Exception::`scalar deleting destructor'
EXTRN	??_EException@@UAEPAXI@Z:NEAR			; Exception::`vector deleting destructor'
;	COMDAT ??_7Exception@@6B@
CONST	SEGMENT
??_7Exception@@6B@ DD FLAT:??_R4Exception@@6B@		; Exception::`vftable'
	DD	FLAT:??_EException@@UAEPAXI@Z
	DD	FLAT:?getName@Exception@@UBE?AV?$basic_string@DV?$char_traits@D@_STL@@V?$allocator@D@2@@_STL@@XZ
	DD	FLAT:?toString@Throwable@@UBE?AV?$basic_string@DV?$char_traits@D@_STL@@V?$allocator@D@2@@_STL@@XZ
CONST	ENDS
;	COMDAT ??_R4Exception@@6B@
rdata$r	SEGMENT
??_R4Exception@@6B@ DD 00H				; Exception::`RTTI Complete Object Locator'
	DD	00H
	DD	00H
	DD	FLAT:??_R0?AVException@@@8
	DD	FLAT:??_R3Exception@@8
rdata$r	ENDS
;	COMDAT ??_R0?AVException@@@8
_DATA	SEGMENT
??_R0?AVException@@@8 DD FLAT:??_7type_info@@6B@	; Exception `RTTI Type Descriptor'
	DD	00H
	DB	'.?AVException@@', 00H
	ORG $-24
	DD	FLAT:??_7type_info@@6B@
	DD	00H
	DB	'.?AVException@@', 00H
_DATA	ENDS
;	COMDAT ??_R3Exception@@8
rdata$r	SEGMENT
??_R3Exception@@8 DD 00H				; Exception::`RTTI Class Hierarchy Descriptor'
	DD	00H
	DD	02H
	DD	FLAT:??_R2Exception@@8
rdata$r	ENDS
;	COMDAT ??_R2Exception@@8
rdata$r	SEGMENT
??_R2Exception@@8 DD FLAT:??_R1A@?0A@A@Exception@@8	; Exception::`RTTI Base Class Array'
	DD	FLAT:??_R1A@?0A@A@Throwable@@8
rdata$r	ENDS
;	COMDAT ??_R1A@?0A@A@Exception@@8
rdata$r	SEGMENT
??_R1A@?0A@A@Exception@@8 DD FLAT:??_R0?AVException@@@8	; Exception::`RTTI Base Class Descriptor at (0,-1,0,0)'
	DD	01H
	DD	00H
	DD	0ffffffffH
	DD	00H
	DD	00H
; Function compile flags: /Ogsy
rdata$r	ENDS
;	COMDAT ??0Exception@@QAE@V?$basic_string@DV?$char_traits@D@_STL@@V?$allocator@D@2@@_STL@@@Z
_TEXT	SEGMENT
$T105001 = -4						; size = 4
_msg$ = 8						; size = 12
??0Exception@@QAE@V?$basic_string@DV?$char_traits@D@_STL@@V?$allocator@D@2@@_STL@@@Z PROC NEAR ; Exception::Exception, COMDAT
; _this$ = ecx

; 175  : 	Exception ( std::string msg ) throw () : Throwable(msg) {}

  00000	55		 push	 ebp
  00001	8b ec		 mov	 ebp, esp
  00003	51		 push	 ecx
  00004	56		 push	 esi
  00005	83 ec 0c	 sub	 esp, 12			; 0000000cH
  00008	8b f1		 mov	 esi, ecx
  0000a	8d 45 08	 lea	 eax, DWORD PTR _msg$[ebp]
  0000d	8b cc		 mov	 ecx, esp
  0000f	89 65 fc	 mov	 DWORD PTR $T105001[ebp], esp
  00012	50		 push	 eax
  00013	e8 00 00 00 00	 call	 ??0?$basic_string@DV?$char_traits@D@_STL@@V?$allocator@D@2@@_STL@@QAE@ABV01@@Z ; _STL::basic_string<char,_STL::char_traits<char>,_STL::allocator<char> >::basic_string<char,_STL::char_traits<char>,_STL::allocator<char> >
  00018	8b ce		 mov	 ecx, esi
  0001a	e8 00 00 00 00	 call	 ??0Throwable@@QAE@V?$basic_string@DV?$char_traits@D@_STL@@V?$allocator@D@2@@_STL@@@Z ; Throwable::Throwable
  0001f	8d 4d 08	 lea	 ecx, DWORD PTR _msg$[ebp]
  00022	c7 06 00 00 00
	00		 mov	 DWORD PTR [esi], OFFSET FLAT:??_7Exception@@6B@
  00028	e8 00 00 00 00	 call	 ??1?$basic_string@DV?$char_traits@D@_STL@@V?$allocator@D@2@@_STL@@QAE@XZ ; _STL::basic_string<char,_STL::char_traits<char>,_STL::allocator<char> >::~basic_string<char,_STL::char_traits<char>,_STL::allocator<char> >
  0002d	8b c6		 mov	 eax, esi
  0002f	5e		 pop	 esi
  00030	c9		 leave
  00031	c2 0c 00	 ret	 12			; 0000000cH
??0Exception@@QAE@V?$basic_string@DV?$char_traits@D@_STL@@V?$allocator@D@2@@_STL@@@Z ENDP ; Exception::Exception
_TEXT	ENDS
PUBLIC	??_C@_09FBNMMHMJ@Exception?$AA@			; `string'
;	COMDAT ??_C@_09FBNMMHMJ@Exception?$AA@
; File c:\stlport-4.6.1\stlport\stl\_alloc.h
CONST	SEGMENT
??_C@_09FBNMMHMJ@Exception?$AA@ DB 'Exception', 00H	; `string'
; Function compile flags: /Ogsy
; File c:\darkeden\designed_common\project\client\packet\exception.h
CONST	ENDS
;	COMDAT ?getName@Exception@@UBE?AV?$basic_string@DV?$char_traits@D@_STL@@V?$allocator@D@2@@_STL@@XZ
_TEXT	SEGMENT
___$ReturnUdt$ = 8					; size = 4
$T105004 = 11						; size = 1
?getName@Exception@@UBE?AV?$basic_string@DV?$char_traits@D@_STL@@V?$allocator@D@2@@_STL@@XZ PROC NEAR ; Exception::getName, COMDAT
; _this$ = ecx

; 176  : 	std::string getName () const throw () { return "Exception"; }

  00000	55		 push	 ebp
  00001	8b ec		 mov	 ebp, esp
  00003	8b 4d 08	 mov	 ecx, DWORD PTR ___$ReturnUdt$[ebp]
  00006	8d 45 0b	 lea	 eax, DWORD PTR $T105004[ebp]
  00009	50		 push	 eax
  0000a	68 00 00 00 00	 push	 OFFSET FLAT:??_C@_09FBNMMHMJ@Exception?$AA@
  0000f	e8 00 00 00 00	 call	 ??0?$basic_string@DV?$char_traits@D@_STL@@V?$allocator@D@2@@_STL@@QAE@PBDABV?$allocator@D@1@@Z ; _STL::basic_string<char,_STL::char_traits<char>,_STL::allocator<char> >::basic_string<char,_STL::char_traits<char>,_STL::allocator<char> >
  00014	8b 45 08	 mov	 eax, DWORD PTR ___$ReturnUdt$[ebp]
  00017	5d		 pop	 ebp
  00018	c2 04 00	 ret	 4
?getName@Exception@@UBE?AV?$basic_string@DV?$char_traits@D@_STL@@V?$allocator@D@2@@_STL@@XZ ENDP ; Exception::getName
_TEXT	ENDS
PUBLIC	??1Exception@@UAE@XZ				; Exception::~Exception
; Function compile flags: /Ogsy
;	COMDAT ??1Exception@@UAE@XZ
_TEXT	SEGMENT
??1Exception@@UAE@XZ PROC NEAR				; Exception::~Exception, COMDAT
; _this$ = ecx
  00000	e9 00 00 00 00	 jmp	 ??1Throwable@@UAE@XZ	; Throwable::~Throwable
??1Exception@@UAE@XZ ENDP				; Exception::~Exception
_TEXT	ENDS
PUBLIC	??0IOException@@QAE@V?$basic_string@DV?$char_traits@D@_STL@@V?$allocator@D@2@@_STL@@@Z ; IOException::IOException
PUBLIC	?getName@IOException@@UBE?AV?$basic_string@DV?$char_traits@D@_STL@@V?$allocator@D@2@@_STL@@XZ ; IOException::getName
PUBLIC	??_R4IOException@@6B@				; IOException::`RTTI Complete Object Locator'
PUBLIC	??_R3IOException@@8				; IOException::`RTTI Class Hierarchy Descriptor'
PUBLIC	??_R2IOException@@8				; IOException::`RTTI Base Class Array'
PUBLIC	??_7IOException@@6B@				; IOException::`vftable'
PUBLIC	??_GIOException@@UAEPAXI@Z			; IOException::`scalar deleting destructor'
PUBLIC	??_R1A@?0A@A@IOException@@8			; IOException::`RTTI Base Class Descriptor at (0,-1,0,0)'
PUBLIC	??_R0?AVIOException@@@8				; IOException `RTTI Type Descriptor'
EXTRN	??_EIOException@@UAEPAXI@Z:NEAR			; IOException::`vector deleting destructor'
;	COMDAT ??_7IOException@@6B@
CONST	SEGMENT
??_7IOException@@6B@ DD FLAT:??_R4IOException@@6B@	; IOException::`vftable'
	DD	FLAT:??_EIOException@@UAEPAXI@Z
	DD	FLAT:?getName@IOException@@UBE?AV?$basic_string@DV?$char_traits@D@_STL@@V?$allocator@D@2@@_STL@@XZ
	DD	FLAT:?toString@Throwable@@UBE?AV?$basic_string@DV?$char_traits@D@_STL@@V?$allocator@D@2@@_STL@@XZ
CONST	ENDS
;	COMDAT ??_R4IOException@@6B@
rdata$r	SEGMENT
??_R4IOException@@6B@ DD 00H				; IOException::`RTTI Complete Object Locator'
	DD	00H
	DD	00H
	DD	FLAT:??_R0?AVIOException@@@8
	DD	FLAT:??_R3IOException@@8
rdata$r	ENDS
;	COMDAT ??_R0?AVIOException@@@8
_DATA	SEGMENT
??_R0?AVIOException@@@8 DD FLAT:??_7type_info@@6B@	; IOException `RTTI Type Descriptor'
	DD	00H
	DB	'.?AVIOException@@', 00H
	ORG $-26
	DD	FLAT:??_7type_info@@6B@
	DD	00H
	DB	'.?AVIOException@@', 00H
_DATA	ENDS
;	COMDAT ??_R3IOException@@8
rdata$r	SEGMENT
??_R3IOException@@8 DD 00H				; IOException::`RTTI Class Hierarchy Descriptor'
	DD	00H
	DD	03H
	DD	FLAT:??_R2IOException@@8
rdata$r	ENDS
;	COMDAT ??_R2IOException@@8
rdata$r	SEGMENT
??_R2IOException@@8 DD FLAT:??_R1A@?0A@A@IOException@@8	; IOException::`RTTI Base Class Array'
	DD	FLAT:??_R1A@?0A@A@Exception@@8
	DD	FLAT:??_R1A@?0A@A@Throwable@@8
rdata$r	ENDS
;	COMDAT ??_R1A@?0A@A@IOException@@8
rdata$r	SEGMENT
??_R1A@?0A@A@IOException@@8 DD FLAT:??_R0?AVIOException@@@8 ; IOException::`RTTI Base Class Descriptor at (0,-1,0,0)'
	DD	02H
	DD	00H
	DD	0ffffffffH
	DD	00H
	DD	00H
; Function compile flags: /Ogsy
rdata$r	ENDS
;	COMDAT ??0IOException@@QAE@V?$basic_string@DV?$char_traits@D@_STL@@V?$allocator@D@2@@_STL@@@Z
_TEXT	SEGMENT
$T105016 = -4						; size = 4
_msg$ = 8						; size = 12
??0IOException@@QAE@V?$basic_string@DV?$char_traits@D@_STL@@V?$allocator@D@2@@_STL@@@Z PROC NEAR ; IOException::IOException, COMDAT
; _this$ = ecx

; 190  : 		IOException ( std::string msg ) throw () : Exception (msg) {}

  00000	55		 push	 ebp
  00001	8b ec		 mov	 ebp, esp
  00003	51		 push	 ecx
  00004	56		 push	 esi
  00005	83 ec 0c	 sub	 esp, 12			; 0000000cH
  00008	8b f1		 mov	 esi, ecx
  0000a	8d 45 08	 lea	 eax, DWORD PTR _msg$[ebp]
  0000d	8b cc		 mov	 ecx, esp
  0000f	89 65 fc	 mov	 DWORD PTR $T105016[ebp], esp
  00012	50		 push	 eax
  00013	e8 00 00 00 00	 call	 ??0?$basic_string@DV?$char_traits@D@_STL@@V?$allocator@D@2@@_STL@@QAE@ABV01@@Z ; _STL::basic_string<char,_STL::char_traits<char>,_STL::allocator<char> >::basic_string<char,_STL::char_traits<char>,_STL::allocator<char> >
  00018	8b ce		 mov	 ecx, esi
  0001a	e8 00 00 00 00	 call	 ??0Exception@@QAE@V?$basic_string@DV?$char_traits@D@_STL@@V?$allocator@D@2@@_STL@@@Z ; Exception::Exception
  0001f	8d 4d 08	 lea	 ecx, DWORD PTR _msg$[ebp]
  00022	c7 06 00 00 00
	00		 mov	 DWORD PTR [esi], OFFSET FLAT:??_7IOException@@6B@
  00028	e8 00 00 00 00	 call	 ??1?$basic_string@DV?$char_traits@D@_STL@@V?$allocator@D@2@@_STL@@QAE@XZ ; _STL::basic_string<char,_STL::char_traits<char>,_STL::allocator<char> >::~basic_string<char,_STL::char_traits<char>,_STL::allocator<char> >
  0002d	8b c6		 mov	 eax, esi
  0002f	5e		 pop	 esi
  00030	c9		 leave
  00031	c2 0c 00	 ret	 12			; 0000000cH
??0IOException@@QAE@V?$basic_string@DV?$char_traits@D@_STL@@V?$allocator@D@2@@_STL@@@Z ENDP ; IOException::IOException
_TEXT	ENDS
PUBLIC	??_C@_0M@CBPJAJJI@IOException?$AA@		; `string'
;	COMDAT ??_C@_0M@CBPJAJJI@IOException?$AA@
; File c:\stlport-4.6.1\stlport\stl\_alloc.h
CONST	SEGMENT
??_C@_0M@CBPJAJJI@IOException?$AA@ DB 'IOException', 00H ; `string'
; Function compile flags: /Ogsy
; File c:\darkeden\designed_common\project\client\packet\exception.h
CONST	ENDS
;	COMDAT ?getName@IOException@@UBE?AV?$basic_string@DV?$char_traits@D@_STL@@V?$allocator@D@2@@_STL@@XZ
_TEXT	SEGMENT
___$ReturnUdt$ = 8					; size = 4
$T105019 = 11						; size = 1
?getName@IOException@@UBE?AV?$basic_string@DV?$char_traits@D@_STL@@V?$allocator@D@2@@_STL@@XZ PROC NEAR ; IOException::getName, COMDAT
; _this$ = ecx

; 191  : 		std::string getName () const throw () { return "IOException"; }

  00000	55		 push	 ebp
  00001	8b ec		 mov	 ebp, esp
  00003	8b 4d 08	 mov	 ecx, DWORD PTR ___$ReturnUdt$[ebp]
  00006	8d 45 0b	 lea	 eax, DWORD PTR $T105019[ebp]
  00009	50		 push	 eax
  0000a	68 00 00 00 00	 push	 OFFSET FLAT:??_C@_0M@CBPJAJJI@IOException?$AA@
  0000f	e8 00 00 00 00	 call	 ??0?$basic_string@DV?$char_traits@D@_STL@@V?$allocator@D@2@@_STL@@QAE@PBDABV?$allocator@D@1@@Z ; _STL::basic_string<char,_STL::char_traits<char>,_STL::allocator<char> >::basic_string<char,_STL::char_traits<char>,_STL::allocator<char> >
  00014	8b 45 08	 mov	 eax, DWORD PTR ___$ReturnUdt$[ebp]
  00017	5d		 pop	 ebp
  00018	c2 04 00	 ret	 4
?getName@IOException@@UBE?AV?$basic_string@DV?$char_traits@D@_STL@@V?$allocator@D@2@@_STL@@XZ ENDP ; IOException::getName
_TEXT	ENDS
PUBLIC	??1IOException@@UAE@XZ				; IOException::~IOException
; Function compile flags: /Ogsy
;	COMDAT ??1IOException@@UAE@XZ
_TEXT	SEGMENT
??1IOException@@UAE@XZ PROC NEAR			; IOException::~IOException, COMDAT
; _this$ = ecx
  00000	e9 00 00 00 00	 jmp	 ??1Exception@@UAE@XZ
??1IOException@@UAE@XZ ENDP				; IOException::~IOException
_TEXT	ENDS
PUBLIC	??0ProtocolException@@QAE@V?$basic_string@DV?$char_traits@D@_STL@@V?$allocator@D@2@@_STL@@@Z ; ProtocolException::ProtocolException
PUBLIC	?getName@ProtocolException@@UBE?AV?$basic_string@DV?$char_traits@D@_STL@@V?$allocator@D@2@@_STL@@XZ ; ProtocolException::getName
PUBLIC	??_7ProtocolException@@6B@			; ProtocolException::`vftable'
PUBLIC	??_GProtocolException@@UAEPAXI@Z		; ProtocolException::`scalar deleting destructor'
PUBLIC	??_R1A@?0A@A@ProtocolException@@8		; ProtocolException::`RTTI Base Class Descriptor at (0,-1,0,0)'
PUBLIC	??_R0?AVProtocolException@@@8			; ProtocolException `RTTI Type Descriptor'
PUBLIC	??_R4ProtocolException@@6B@			; ProtocolException::`RTTI Complete Object Locator'
PUBLIC	??_R3ProtocolException@@8			; ProtocolException::`RTTI Class Hierarchy Descriptor'
PUBLIC	??_R2ProtocolException@@8			; ProtocolException::`RTTI Base Class Array'
EXTRN	??_EProtocolException@@UAEPAXI@Z:NEAR		; ProtocolException::`vector deleting destructor'
;	COMDAT ??_7ProtocolException@@6B@
CONST	SEGMENT
??_7ProtocolException@@6B@ DD FLAT:??_R4ProtocolException@@6B@ ; ProtocolException::`vftable'
	DD	FLAT:??_EProtocolException@@UAEPAXI@Z
	DD	FLAT:?getName@ProtocolException@@UBE?AV?$basic_string@DV?$char_traits@D@_STL@@V?$allocator@D@2@@_STL@@XZ
	DD	FLAT:?toString@Throwable@@UBE?AV?$basic_string@DV?$char_traits@D@_STL@@V?$allocator@D@2@@_STL@@XZ
CONST	ENDS
;	COMDAT ??_R4ProtocolException@@6B@
rdata$r	SEGMENT
??_R4ProtocolException@@6B@ DD 00H			; ProtocolException::`RTTI Complete Object Locator'
	DD	00H
	DD	00H
	DD	FLAT:??_R0?AVProtocolException@@@8
	DD	FLAT:??_R3ProtocolException@@8
rdata$r	ENDS
;	COMDAT ??_R0?AVProtocolException@@@8
_DATA	SEGMENT
??_R0?AVProtocolException@@@8 DD FLAT:??_7type_info@@6B@ ; ProtocolException `RTTI Type Descriptor'
	DD	00H
	DB	'.?AVProtocolException@@', 00H
	ORG $-32
	DD	FLAT:??_7type_info@@6B@
	DD	00H
	DB	'.?AVProtocolException@@', 00H
_DATA	ENDS
;	COMDAT ??_R3ProtocolException@@8
rdata$r	SEGMENT
??_R3ProtocolException@@8 DD 00H			; ProtocolException::`RTTI Class Hierarchy Descriptor'
	DD	00H
	DD	04H
	DD	FLAT:??_R2ProtocolException@@8
rdata$r	ENDS
;	COMDAT ??_R2ProtocolException@@8
rdata$r	SEGMENT
??_R2ProtocolException@@8 DD FLAT:??_R1A@?0A@A@ProtocolException@@8 ; ProtocolException::`RTTI Base Class Array'
	DD	FLAT:??_R1A@?0A@A@IOException@@8
	DD	FLAT:??_R1A@?0A@A@Exception@@8
	DD	FLAT:??_R1A@?0A@A@Throwable@@8
rdata$r	ENDS
;	COMDAT ??_R1A@?0A@A@ProtocolException@@8
rdata$r	SEGMENT
??_R1A@?0A@A@ProtocolException@@8 DD FLAT:??_R0?AVProtocolException@@@8 ; ProtocolException::`RTTI Base Class Descriptor at (0,-1,0,0)'
	DD	03H
	DD	00H
	DD	0ffffffffH
	DD	00H
	DD	00H
; Function compile flags: /Ogsy
rdata$r	ENDS
;	COMDAT ??0ProtocolException@@QAE@V?$basic_string@DV?$char_traits@D@_STL@@V?$allocator@D@2@@_STL@@@Z
_TEXT	SEGMENT
$T105031 = -4						; size = 4
_msg$ = 8						; size = 12
??0ProtocolException@@QAE@V?$basic_string@DV?$char_traits@D@_STL@@V?$allocator@D@2@@_STL@@@Z PROC NEAR ; ProtocolException::ProtocolException, COMDAT
; _this$ = ecx

; 338  : 			ProtocolException ( std::string msg ) throw () : IOException (msg) {}

  00000	55		 push	 ebp
  00001	8b ec		 mov	 ebp, esp
  00003	51		 push	 ecx
  00004	56		 push	 esi
  00005	83 ec 0c	 sub	 esp, 12			; 0000000cH
  00008	8b f1		 mov	 esi, ecx
  0000a	8d 45 08	 lea	 eax, DWORD PTR _msg$[ebp]
  0000d	8b cc		 mov	 ecx, esp
  0000f	89 65 fc	 mov	 DWORD PTR $T105031[ebp], esp
  00012	50		 push	 eax
  00013	e8 00 00 00 00	 call	 ??0?$basic_string@DV?$char_traits@D@_STL@@V?$allocator@D@2@@_STL@@QAE@ABV01@@Z ; _STL::basic_string<char,_STL::char_traits<char>,_STL::allocator<char> >::basic_string<char,_STL::char_traits<char>,_STL::allocator<char> >
  00018	8b ce		 mov	 ecx, esi
  0001a	e8 00 00 00 00	 call	 ??0IOException@@QAE@V?$basic_string@DV?$char_traits@D@_STL@@V?$allocator@D@2@@_STL@@@Z ; IOException::IOException
  0001f	8d 4d 08	 lea	 ecx, DWORD PTR _msg$[ebp]
  00022	c7 06 00 00 00
	00		 mov	 DWORD PTR [esi], OFFSET FLAT:??_7ProtocolException@@6B@
  00028	e8 00 00 00 00	 call	 ??1?$basic_string@DV?$char_traits@D@_STL@@V?$allocator@D@2@@_STL@@QAE@XZ ; _STL::basic_string<char,_STL::char_traits<char>,_STL::allocator<char> >::~basic_string<char,_STL::char_traits<char>,_STL::allocator<char> >
  0002d	8b c6		 mov	 eax, esi
  0002f	5e		 pop	 esi
  00030	c9		 leave
  00031	c2 0c 00	 ret	 12			; 0000000cH
??0ProtocolException@@QAE@V?$basic_string@DV?$char_traits@D@_STL@@V?$allocator@D@2@@_STL@@@Z ENDP ; ProtocolException::ProtocolException
_TEXT	ENDS
PUBLIC	??_C@_0BC@KDBIDNIF@ProtocolException?$AA@	; `string'
;	COMDAT ??_C@_0BC@KDBIDNIF@ProtocolException?$AA@
; File c:\stlport-4.6.1\stlport\stl\_alloc.h
CONST	SEGMENT
??_C@_0BC@KDBIDNIF@ProtocolException?$AA@ DB 'ProtocolException', 00H ; `string'
; Function compile flags: /Ogsy
; File c:\darkeden\designed_common\project\client\packet\exception.h
CONST	ENDS
;	COMDAT ?getName@ProtocolException@@UBE?AV?$basic_string@DV?$char_traits@D@_STL@@V?$allocator@D@2@@_STL@@XZ
_TEXT	SEGMENT
___$ReturnUdt$ = 8					; size = 4
$T105034 = 11						; size = 1
?getName@ProtocolException@@UBE?AV?$basic_string@DV?$char_traits@D@_STL@@V?$allocator@D@2@@_STL@@XZ PROC NEAR ; ProtocolException::getName, COMDAT
; _this$ = ecx

; 339  : 			std::string getName () const throw () { return "ProtocolException"; }

  00000	55		 push	 ebp
  00001	8b ec		 mov	 ebp, esp
  00003	8b 4d 08	 mov	 ecx, DWORD PTR ___$ReturnUdt$[ebp]
  00006	8d 45 0b	 lea	 eax, DWORD PTR $T105034[ebp]
  00009	50		 push	 eax
  0000a	68 00 00 00 00	 push	 OFFSET FLAT:??_C@_0BC@KDBIDNIF@ProtocolException?$AA@
  0000f	e8 00 00 00 00	 call	 ??0?$basic_string@DV?$char_traits@D@_STL@@V?$allocator@D@2@@_STL@@QAE@PBDABV?$allocator@D@1@@Z ; _STL::basic_string<char,_STL::char_traits<char>,_STL::allocator<char> >::basic_string<char,_STL::char_traits<char>,_STL::allocator<char> >
  00014	8b 45 08	 mov	 eax, DWORD PTR ___$ReturnUdt$[ebp]
  00017	5d		 pop	 ebp
  00018	c2 04 00	 ret	 4
?getName@ProtocolException@@UBE?AV?$basic_string@DV?$char_traits@D@_STL@@V?$allocator@D@2@@_STL@@XZ ENDP ; ProtocolException::getName
_TEXT	ENDS
PUBLIC	??1ProtocolException@@UAE@XZ			; ProtocolException::~ProtocolException
; Function compile flags: /Ogsy
;	COMDAT ??1ProtocolException@@UAE@XZ
_TEXT	SEGMENT
??1ProtocolException@@UAE@XZ PROC NEAR			; ProtocolException::~ProtocolException, COMDAT
; _this$ = ecx
  00000	e9 00 00 00 00	 jmp	 ??1IOException@@UAE@XZ
??1ProtocolException@@UAE@XZ ENDP			; ProtocolException::~ProtocolException
_TEXT	ENDS
PUBLIC	??0DisconnectException@@QAE@V?$basic_string@DV?$char_traits@D@_STL@@V?$allocator@D@2@@_STL@@@Z ; DisconnectException::DisconnectException
PUBLIC	?getName@DisconnectException@@UBE?AV?$basic_string@DV?$char_traits@D@_STL@@V?$allocator@D@2@@_STL@@XZ ; DisconnectException::getName
PUBLIC	??_7DisconnectException@@6B@			; DisconnectException::`vftable'
PUBLIC	??_GDisconnectException@@UAEPAXI@Z		; DisconnectException::`scalar deleting destructor'
PUBLIC	??_R4DisconnectException@@6B@			; DisconnectException::`RTTI Complete Object Locator'
PUBLIC	??_R0?AVDisconnectException@@@8			; DisconnectException `RTTI Type Descriptor'
PUBLIC	??_R3DisconnectException@@8			; DisconnectException::`RTTI Class Hierarchy Descriptor'
PUBLIC	??_R2DisconnectException@@8			; DisconnectException::`RTTI Base Class Array'
PUBLIC	??_R1A@?0A@A@DisconnectException@@8		; DisconnectException::`RTTI Base Class Descriptor at (0,-1,0,0)'
EXTRN	??_EDisconnectException@@UAEPAXI@Z:NEAR		; DisconnectException::`vector deleting destructor'
;	COMDAT ??_7DisconnectException@@6B@
CONST	SEGMENT
??_7DisconnectException@@6B@ DD FLAT:??_R4DisconnectException@@6B@ ; DisconnectException::`vftable'
	DD	FLAT:??_EDisconnectException@@UAEPAXI@Z
	DD	FLAT:?getName@DisconnectException@@UBE?AV?$basic_string@DV?$char_traits@D@_STL@@V?$allocator@D@2@@_STL@@XZ
	DD	FLAT:?toString@Throwable@@UBE?AV?$basic_string@DV?$char_traits@D@_STL@@V?$allocator@D@2@@_STL@@XZ
CONST	ENDS
;	COMDAT ??_R4DisconnectException@@6B@
rdata$r	SEGMENT
??_R4DisconnectException@@6B@ DD 00H			; DisconnectException::`RTTI Complete Object Locator'
	DD	00H
	DD	00H
	DD	FLAT:??_R0?AVDisconnectException@@@8
	DD	FLAT:??_R3DisconnectException@@8
rdata$r	ENDS
;	COMDAT ??_R0?AVDisconnectException@@@8
_DATA	SEGMENT
??_R0?AVDisconnectException@@@8 DD FLAT:??_7type_info@@6B@ ; DisconnectException `RTTI Type Descriptor'
	DD	00H
	DB	'.?AVDisconnectException@@', 00H
	ORG $-34
	DD	FLAT:??_7type_info@@6B@
	DD	00H
	DB	'.?AVDisconnectException@@', 00H
_DATA	ENDS
;	COMDAT ??_R3DisconnectException@@8
rdata$r	SEGMENT
??_R3DisconnectException@@8 DD 00H			; DisconnectException::`RTTI Class Hierarchy Descriptor'
	DD	00H
	DD	05H
	DD	FLAT:??_R2DisconnectException@@8
rdata$r	ENDS
;	COMDAT ??_R2DisconnectException@@8
rdata$r	SEGMENT
??_R2DisconnectException@@8 DD FLAT:??_R1A@?0A@A@DisconnectException@@8 ; DisconnectException::`RTTI Base Class Array'
	DD	FLAT:??_R1A@?0A@A@ProtocolException@@8
	DD	FLAT:??_R1A@?0A@A@IOException@@8
	DD	FLAT:??_R1A@?0A@A@Exception@@8
	DD	FLAT:??_R1A@?0A@A@Throwable@@8
rdata$r	ENDS
;	COMDAT ??_R1A@?0A@A@DisconnectException@@8
rdata$r	SEGMENT
??_R1A@?0A@A@DisconnectException@@8 DD FLAT:??_R0?AVDisconnectException@@@8 ; DisconnectException::`RTTI Base Class Descriptor at (0,-1,0,0)'
	DD	04H
	DD	00H
	DD	0ffffffffH
	DD	00H
	DD	00H
; Function compile flags: /Ogsy
rdata$r	ENDS
;	COMDAT ??0DisconnectException@@QAE@V?$basic_string@DV?$char_traits@D@_STL@@V?$allocator@D@2@@_STL@@@Z
_TEXT	SEGMENT
$T105046 = -4						; size = 4
_msg$ = 8						; size = 12
??0DisconnectException@@QAE@V?$basic_string@DV?$char_traits@D@_STL@@V?$allocator@D@2@@_STL@@@Z PROC NEAR ; DisconnectException::DisconnectException, COMDAT
; _this$ = ecx

; 409  : 				DisconnectException ( std::string msg ) throw () : ProtocolException (msg) {}

  00000	55		 push	 ebp
  00001	8b ec		 mov	 ebp, esp
  00003	51		 push	 ecx
  00004	56		 push	 esi
  00005	83 ec 0c	 sub	 esp, 12			; 0000000cH
  00008	8b f1		 mov	 esi, ecx
  0000a	8d 45 08	 lea	 eax, DWORD PTR _msg$[ebp]
  0000d	8b cc		 mov	 ecx, esp
  0000f	89 65 fc	 mov	 DWORD PTR $T105046[ebp], esp
  00012	50		 push	 eax
  00013	e8 00 00 00 00	 call	 ??0?$basic_string@DV?$char_traits@D@_STL@@V?$allocator@D@2@@_STL@@QAE@ABV01@@Z ; _STL::basic_string<char,_STL::char_traits<char>,_STL::allocator<char> >::basic_string<char,_STL::char_traits<char>,_STL::allocator<char> >
  00018	8b ce		 mov	 ecx, esi
  0001a	e8 00 00 00 00	 call	 ??0ProtocolException@@QAE@V?$basic_string@DV?$char_traits@D@_STL@@V?$allocator@D@2@@_STL@@@Z ; ProtocolException::ProtocolException
  0001f	8d 4d 08	 lea	 ecx, DWORD PTR _msg$[ebp]
  00022	c7 06 00 00 00
	00		 mov	 DWORD PTR [esi], OFFSET FLAT:??_7DisconnectException@@6B@
  00028	e8 00 00 00 00	 call	 ??1?$basic_string@DV?$char_traits@D@_STL@@V?$allocator@D@2@@_STL@@QAE@XZ ; _STL::basic_string<char,_STL::char_traits<char>,_STL::allocator<char> >::~basic_string<char,_STL::char_traits<char>,_STL::allocator<char> >
  0002d	8b c6		 mov	 eax, esi
  0002f	5e		 pop	 esi
  00030	c9		 leave
  00031	c2 0c 00	 ret	 12			; 0000000cH
??0DisconnectException@@QAE@V?$basic_string@DV?$char_traits@D@_STL@@V?$allocator@D@2@@_STL@@@Z ENDP ; DisconnectException::DisconnectException
_TEXT	ENDS
PUBLIC	??_C@_0BE@CNIDKGHK@DisconnectException?$AA@	; `string'
;	COMDAT ??_C@_0BE@CNIDKGHK@DisconnectException?$AA@
; File c:\stlport-4.6.1\stlport\stl\_alloc.h
CONST	SEGMENT
??_C@_0BE@CNIDKGHK@DisconnectException?$AA@ DB 'DisconnectException', 00H ; `string'
; Function compile flags: /Ogsy
; File c:\darkeden\designed_common\project\client\packet\exception.h
CONST	ENDS
;	COMDAT ?getName@DisconnectException@@UBE?AV?$basic_string@DV?$char_traits@D@_STL@@V?$allocator@D@2@@_STL@@XZ
_TEXT	SEGMENT
___$ReturnUdt$ = 8					; size = 4
$T105049 = 11						; size = 1
?getName@DisconnectException@@UBE?AV?$basic_string@DV?$char_traits@D@_STL@@V?$allocator@D@2@@_STL@@XZ PROC NEAR ; DisconnectException::getName, COMDAT
; _this$ = ecx

; 410  : 				std::string getName () const throw () { return "DisconnectException"; }

  00000	55		 push	 ebp
  00001	8b ec		 mov	 ebp, esp
  00003	8b 4d 08	 mov	 ecx, DWORD PTR ___$ReturnUdt$[ebp]
  00006	8d 45 0b	 lea	 eax, DWORD PTR $T105049[ebp]
  00009	50		 push	 eax
  0000a	68 00 00 00 00	 push	 OFFSET FLAT:??_C@_0BE@CNIDKGHK@DisconnectException?$AA@
  0000f	e8 00 00 00 00	 call	 ??0?$basic_string@DV?$char_traits@D@_STL@@V?$allocator@D@2@@_STL@@QAE@PBDABV?$allocator@D@1@@Z ; _STL::basic_string<char,_STL::char_traits<char>,_STL::allocator<char> >::basic_string<char,_STL::char_traits<char>,_STL::allocator<char> >
  00014	8b 45 08	 mov	 eax, DWORD PTR ___$ReturnUdt$[ebp]
  00017	5d		 pop	 ebp
  00018	c2 04 00	 ret	 4
?getName@DisconnectException@@UBE?AV?$basic_string@DV?$char_traits@D@_STL@@V?$allocator@D@2@@_STL@@XZ ENDP ; DisconnectException::getName
_TEXT	ENDS
PUBLIC	??1DisconnectException@@UAE@XZ			; DisconnectException::~DisconnectException
; Function compile flags: /Ogsy
;	COMDAT ??1DisconnectException@@UAE@XZ
_TEXT	SEGMENT
??1DisconnectException@@UAE@XZ PROC NEAR		; DisconnectException::~DisconnectException, COMDAT
; _this$ = ecx
  00000	e9 00 00 00 00	 jmp	 ??1ProtocolException@@UAE@XZ
??1DisconnectException@@UAE@XZ ENDP			; DisconnectException::~DisconnectException
_TEXT	ENDS
PUBLIC	__TI3?AVUnsupportedError@@
PUBLIC	__CTA3?AVUnsupportedError@@
PUBLIC	__CT??_R0?AVUnsupportedError@@@8??0UnsupportedError@@QAE@ABV0@@Z20
PUBLIC	__CT??_R0?AVError@@@8??0Error@@QAE@ABV0@@Z20
PUBLIC	__CT??_R0?AVThrowable@@@8??0Throwable@@QAE@ABV0@@Z20
PUBLIC	??0Error@@QAE@ABV0@@Z				; Error::Error
PUBLIC	??0UnsupportedError@@QAE@XZ			; UnsupportedError::UnsupportedError
PUBLIC	??1UnsupportedError@@UAE@XZ			; UnsupportedError::~UnsupportedError
PUBLIC	??0UnsupportedError@@QAE@ABV0@@Z		; UnsupportedError::UnsupportedError
PUBLIC	??_R0?AVError@@@8				; Error `RTTI Type Descriptor'
PUBLIC	??0Throwable@@QAE@ABV0@@Z			; Throwable::Throwable
PUBLIC	??_R0?AVUnsupportedError@@@8			; UnsupportedError `RTTI Type Descriptor'
;	COMDAT __TI3?AVUnsupportedError@@
; File c:\darkeden\designed_common\project\client\packet\packet.h
xdata$x	SEGMENT
__TI3?AVUnsupportedError@@ DD 00H
	DD	FLAT:??1UnsupportedError@@UAE@XZ
	DD	00H
	DD	FLAT:__CTA3?AVUnsupportedError@@
xdata$x	ENDS
;	COMDAT __CTA3?AVUnsupportedError@@
xdata$x	SEGMENT
__CTA3?AVUnsupportedError@@ DD 03H
	DD	FLAT:__CT??_R0?AVUnsupportedError@@@8??0UnsupportedError@@QAE@ABV0@@Z20
	DD	FLAT:__CT??_R0?AVError@@@8??0Error@@QAE@ABV0@@Z20
	DD	FLAT:__CT??_R0?AVThrowable@@@8??0Throwable@@QAE@ABV0@@Z20
xdata$x	ENDS
;	COMDAT __CT??_R0?AVUnsupportedError@@@8??0UnsupportedError@@QAE@ABV0@@Z20
xdata$x	SEGMENT
__CT??_R0?AVUnsupportedError@@@8??0UnsupportedError@@QAE@ABV0@@Z20 DD 00H
	DD	FLAT:??_R0?AVUnsupportedError@@@8
	DD	00H
	DD	0ffffffffH
	ORG $+4
	DD	014H
	DD	FLAT:??0UnsupportedError@@QAE@ABV0@@Z
xdata$x	ENDS
;	COMDAT ??_R0?AVUnsupportedError@@@8
_DATA	SEGMENT
??_R0?AVUnsupportedError@@@8 DD FLAT:??_7type_info@@6B@	; UnsupportedError `RTTI Type Descriptor'
	DD	00H
	DB	'.?AVUnsupportedError@@', 00H
	ORG $-31
	DD	FLAT:??_7type_info@@6B@
	DD	00H
	DB	'.?AVUnsupportedError@@', 00H
_DATA	ENDS
;	COMDAT __CT??_R0?AVError@@@8??0Error@@QAE@ABV0@@Z20
xdata$x	SEGMENT
__CT??_R0?AVError@@@8??0Error@@QAE@ABV0@@Z20 DD 00H
	DD	FLAT:??_R0?AVError@@@8
	DD	00H
	DD	0ffffffffH
	ORG $+4
	DD	014H
	DD	FLAT:??0Error@@QAE@ABV0@@Z
xdata$x	ENDS
;	COMDAT ??_R0?AVError@@@8
_DATA	SEGMENT
??_R0?AVError@@@8 DD FLAT:??_7type_info@@6B@		; Error `RTTI Type Descriptor'
	DD	00H
	DB	'.?AVError@@', 00H
	ORG $-20
	DD	FLAT:??_7type_info@@6B@
	DD	00H
	DB	'.?AVError@@', 00H
_DATA	ENDS
;	COMDAT __CT??_R0?AVThrowable@@@8??0Throwable@@QAE@ABV0@@Z20
xdata$x	SEGMENT
__CT??_R0?AVThrowable@@@8??0Throwable@@QAE@ABV0@@Z20 DD 00H
	DD	FLAT:??_R0?AVThrowable@@@8
	DD	00H
	DD	0ffffffffH
	ORG $+4
	DD	014H
	DD	FLAT:??0Throwable@@QAE@ABV0@@Z
; Function compile flags: /Ogsy
xdata$x	ENDS
;	COMDAT ?read@Packet@@UAEXPAVSocket@@@Z
_TEXT	SEGMENT
$T105061 = -20						; size = 20
_pSocket$ = 8						; size = 4
?read@Packet@@UAEXPAVSocket@@@Z PROC NEAR		; Packet::read, COMDAT
; _this$ = ecx

; 732  : 	virtual void read (Socket* pSocket) throw (ProtocolException, Error) { throw UnsupportedError(); }	

  00000	55		 push	 ebp
  00001	8b ec		 mov	 ebp, esp
  00003	83 ec 14	 sub	 esp, 20			; 00000014H
  00006	8d 4d ec	 lea	 ecx, DWORD PTR $T105061[ebp]
  00009	e8 00 00 00 00	 call	 ??0UnsupportedError@@QAE@XZ ; UnsupportedError::UnsupportedError
  0000e	68 00 00 00 00	 push	 OFFSET FLAT:__TI3?AVUnsupportedError@@
  00013	8d 45 ec	 lea	 eax, DWORD PTR $T105061[ebp]
  00016	50		 push	 eax
  00017	e8 00 00 00 00	 call	 __CxxThrowException@8
$L105063:
$L105062:
  0001c	cc		 int	 3
?read@Packet@@UAEXPAVSocket@@@Z ENDP			; Packet::read
_TEXT	ENDS
PUBLIC	??0Error@@QAE@XZ				; Error::Error
PUBLIC	?getName@UnsupportedError@@UBE?AV?$basic_string@DV?$char_traits@D@_STL@@V?$allocator@D@2@@_STL@@XZ ; UnsupportedError::getName
PUBLIC	??_7UnsupportedError@@6B@			; UnsupportedError::`vftable'
PUBLIC	??_GUnsupportedError@@UAEPAXI@Z			; UnsupportedError::`scalar deleting destructor'
PUBLIC	??_R1A@?0A@A@Error@@8				; Error::`RTTI Base Class Descriptor at (0,-1,0,0)'
PUBLIC	??_R4UnsupportedError@@6B@			; UnsupportedError::`RTTI Complete Object Locator'
PUBLIC	??_R3UnsupportedError@@8			; UnsupportedError::`RTTI Class Hierarchy Descriptor'
PUBLIC	??_R2UnsupportedError@@8			; UnsupportedError::`RTTI Base Class Array'
PUBLIC	??_R1A@?0A@A@UnsupportedError@@8		; UnsupportedError::`RTTI Base Class Descriptor at (0,-1,0,0)'
EXTRN	??_EUnsupportedError@@UAEPAXI@Z:NEAR		; UnsupportedError::`vector deleting destructor'
;	COMDAT ??_7UnsupportedError@@6B@
; File c:\darkeden\designed_common\project\client\packet\exception.h
CONST	SEGMENT
??_7UnsupportedError@@6B@ DD FLAT:??_R4UnsupportedError@@6B@ ; UnsupportedError::`vftable'
	DD	FLAT:??_EUnsupportedError@@UAEPAXI@Z
	DD	FLAT:?getName@UnsupportedError@@UBE?AV?$basic_string@DV?$char_traits@D@_STL@@V?$allocator@D@2@@_STL@@XZ
	DD	FLAT:?toString@Throwable@@UBE?AV?$basic_string@DV?$char_traits@D@_STL@@V?$allocator@D@2@@_STL@@XZ
CONST	ENDS
;	COMDAT ??_R4UnsupportedError@@6B@
rdata$r	SEGMENT
??_R4UnsupportedError@@6B@ DD 00H			; UnsupportedError::`RTTI Complete Object Locator'
	DD	00H
	DD	00H
	DD	FLAT:??_R0?AVUnsupportedError@@@8
	DD	FLAT:??_R3UnsupportedError@@8
rdata$r	ENDS
;	COMDAT ??_R3UnsupportedError@@8
rdata$r	SEGMENT
??_R3UnsupportedError@@8 DD 00H				; UnsupportedError::`RTTI Class Hierarchy Descriptor'
	DD	00H
	DD	03H
	DD	FLAT:??_R2UnsupportedError@@8
rdata$r	ENDS
;	COMDAT ??_R2UnsupportedError@@8
rdata$r	SEGMENT
??_R2UnsupportedError@@8 DD FLAT:??_R1A@?0A@A@UnsupportedError@@8 ; UnsupportedError::`RTTI Base Class Array'
	DD	FLAT:??_R1A@?0A@A@Error@@8
	DD	FLAT:??_R1A@?0A@A@Throwable@@8
rdata$r	ENDS
;	COMDAT ??_R1A@?0A@A@UnsupportedError@@8
rdata$r	SEGMENT
??_R1A@?0A@A@UnsupportedError@@8 DD FLAT:??_R0?AVUnsupportedError@@@8 ; UnsupportedError::`RTTI Base Class Descriptor at (0,-1,0,0)'
	DD	02H
	DD	00H
	DD	0ffffffffH
	DD	00H
	DD	00H
rdata$r	ENDS
;	COMDAT ??_R1A@?0A@A@Error@@8
rdata$r	SEGMENT
??_R1A@?0A@A@Error@@8 DD FLAT:??_R0?AVError@@@8		; Error::`RTTI Base Class Descriptor at (0,-1,0,0)'
	DD	01H
	DD	00H
	DD	0ffffffffH
	DD	00H
	DD	00H
; Function compile flags: /Ogsy
rdata$r	ENDS
;	COMDAT ??0UnsupportedError@@QAE@XZ
_TEXT	SEGMENT
??0UnsupportedError@@QAE@XZ PROC NEAR			; UnsupportedError::UnsupportedError, COMDAT
; _this$ = ecx

; 711  : 		UnsupportedError () throw () : Error () {}

  00000	56		 push	 esi
  00001	8b f1		 mov	 esi, ecx
  00003	e8 00 00 00 00	 call	 ??0Error@@QAE@XZ	; Error::Error
  00008	c7 06 00 00 00
	00		 mov	 DWORD PTR [esi], OFFSET FLAT:??_7UnsupportedError@@6B@
  0000e	8b c6		 mov	 eax, esi
  00010	5e		 pop	 esi
  00011	c3		 ret	 0
??0UnsupportedError@@QAE@XZ ENDP			; UnsupportedError::UnsupportedError
_TEXT	ENDS
PUBLIC	??_C@_0BB@EOCHEBED@UnsupportedError?$AA@	; `string'
;	COMDAT ??_C@_0BB@EOCHEBED@UnsupportedError?$AA@
; File c:\stlport-4.6.1\stlport\stl\_alloc.h
CONST	SEGMENT
??_C@_0BB@EOCHEBED@UnsupportedError?$AA@ DB 'UnsupportedError', 00H ; `string'
; Function compile flags: /Ogsy
; File c:\darkeden\designed_common\project\client\packet\exception.h
CONST	ENDS
;	COMDAT ?getName@UnsupportedError@@UBE?AV?$basic_string@DV?$char_traits@D@_STL@@V?$allocator@D@2@@_STL@@XZ
_TEXT	SEGMENT
___$ReturnUdt$ = 8					; size = 4
$T105069 = 11						; size = 1
?getName@UnsupportedError@@UBE?AV?$basic_string@DV?$char_traits@D@_STL@@V?$allocator@D@2@@_STL@@XZ PROC NEAR ; UnsupportedError::getName, COMDAT
; _this$ = ecx

; 713  : 		std::string getName () const throw () { return "UnsupportedError"; }

  00000	55		 push	 ebp
  00001	8b ec		 mov	 ebp, esp
  00003	8b 4d 08	 mov	 ecx, DWORD PTR ___$ReturnUdt$[ebp]
  00006	8d 45 0b	 lea	 eax, DWORD PTR $T105069[ebp]
  00009	50		 push	 eax
  0000a	68 00 00 00 00	 push	 OFFSET FLAT:??_C@_0BB@EOCHEBED@UnsupportedError?$AA@
  0000f	e8 00 00 00 00	 call	 ??0?$basic_string@DV?$char_traits@D@_STL@@V?$allocator@D@2@@_STL@@QAE@PBDABV?$allocator@D@1@@Z ; _STL::basic_string<char,_STL::char_traits<char>,_STL::allocator<char> >::basic_string<char,_STL::char_traits<char>,_STL::allocator<char> >
  00014	8b 45 08	 mov	 eax, DWORD PTR ___$ReturnUdt$[ebp]
  00017	5d		 pop	 ebp
  00018	c2 04 00	 ret	 4
?getName@UnsupportedError@@UBE?AV?$basic_string@DV?$char_traits@D@_STL@@V?$allocator@D@2@@_STL@@XZ ENDP ; UnsupportedError::getName
_TEXT	ENDS
PUBLIC	?getName@Error@@UBE?AV?$basic_string@DV?$char_traits@D@_STL@@V?$allocator@D@2@@_STL@@XZ ; Error::getName
PUBLIC	??_7Error@@6B@					; Error::`vftable'
PUBLIC	??_GError@@UAEPAXI@Z				; Error::`scalar deleting destructor'
PUBLIC	??_R4Error@@6B@					; Error::`RTTI Complete Object Locator'
PUBLIC	??_R3Error@@8					; Error::`RTTI Class Hierarchy Descriptor'
PUBLIC	??_R2Error@@8					; Error::`RTTI Base Class Array'
PUBLIC	??0Throwable@@QAE@XZ				; Throwable::Throwable
EXTRN	??_EError@@UAEPAXI@Z:NEAR			; Error::`vector deleting destructor'
;	COMDAT ??_7Error@@6B@
CONST	SEGMENT
??_7Error@@6B@ DD FLAT:??_R4Error@@6B@			; Error::`vftable'
	DD	FLAT:??_EError@@UAEPAXI@Z
	DD	FLAT:?getName@Error@@UBE?AV?$basic_string@DV?$char_traits@D@_STL@@V?$allocator@D@2@@_STL@@XZ
	DD	FLAT:?toString@Throwable@@UBE?AV?$basic_string@DV?$char_traits@D@_STL@@V?$allocator@D@2@@_STL@@XZ
CONST	ENDS
;	COMDAT ??_R4Error@@6B@
rdata$r	SEGMENT
??_R4Error@@6B@ DD 00H					; Error::`RTTI Complete Object Locator'
	DD	00H
	DD	00H
	DD	FLAT:??_R0?AVError@@@8
	DD	FLAT:??_R3Error@@8
rdata$r	ENDS
;	COMDAT ??_R3Error@@8
rdata$r	SEGMENT
??_R3Error@@8 DD 00H					; Error::`RTTI Class Hierarchy Descriptor'
	DD	00H
	DD	02H
	DD	FLAT:??_R2Error@@8
rdata$r	ENDS
;	COMDAT ??_R2Error@@8
rdata$r	SEGMENT
??_R2Error@@8 DD FLAT:??_R1A@?0A@A@Error@@8		; Error::`RTTI Base Class Array'
	DD	FLAT:??_R1A@?0A@A@Throwable@@8
; Function compile flags: /Ogsy
rdata$r	ENDS
;	COMDAT ??0Error@@QAE@XZ
_TEXT	SEGMENT
??0Error@@QAE@XZ PROC NEAR				; Error::Error, COMDAT
; _this$ = ecx

; 675  : 	Error () throw () : Throwable() {}

  00000	56		 push	 esi
  00001	8b f1		 mov	 esi, ecx
  00003	e8 00 00 00 00	 call	 ??0Throwable@@QAE@XZ	; Throwable::Throwable
  00008	c7 06 00 00 00
	00		 mov	 DWORD PTR [esi], OFFSET FLAT:??_7Error@@6B@
  0000e	8b c6		 mov	 eax, esi
  00010	5e		 pop	 esi
  00011	c3		 ret	 0
??0Error@@QAE@XZ ENDP					; Error::Error
_TEXT	ENDS
PUBLIC	??_C@_05NAOIJFC@Error?$AA@			; `string'
;	COMDAT ??_C@_05NAOIJFC@Error?$AA@
; File c:\stlport-4.6.1\stlport\stl\_alloc.h
CONST	SEGMENT
??_C@_05NAOIJFC@Error?$AA@ DB 'Error', 00H		; `string'
; Function compile flags: /Ogsy
; File c:\darkeden\designed_common\project\client\packet\exception.h
CONST	ENDS
;	COMDAT ?getName@Error@@UBE?AV?$basic_string@DV?$char_traits@D@_STL@@V?$allocator@D@2@@_STL@@XZ
_TEXT	SEGMENT
___$ReturnUdt$ = 8					; size = 4
$T105081 = 11						; size = 1
?getName@Error@@UBE?AV?$basic_string@DV?$char_traits@D@_STL@@V?$allocator@D@2@@_STL@@XZ PROC NEAR ; Error::getName, COMDAT
; _this$ = ecx

; 677  : 	std::string getName () const throw () { return "Error"; }

  00000	55		 push	 ebp
  00001	8b ec		 mov	 ebp, esp
  00003	8b 4d 08	 mov	 ecx, DWORD PTR ___$ReturnUdt$[ebp]
  00006	8d 45 0b	 lea	 eax, DWORD PTR $T105081[ebp]
  00009	50		 push	 eax
  0000a	68 00 00 00 00	 push	 OFFSET FLAT:??_C@_05NAOIJFC@Error?$AA@
  0000f	e8 00 00 00 00	 call	 ??0?$basic_string@DV?$char_traits@D@_STL@@V?$allocator@D@2@@_STL@@QAE@PBDABV?$allocator@D@1@@Z ; _STL::basic_string<char,_STL::char_traits<char>,_STL::allocator<char> >::basic_string<char,_STL::char_traits<char>,_STL::allocator<char> >
  00014	8b 45 08	 mov	 eax, DWORD PTR ___$ReturnUdt$[ebp]
  00017	5d		 pop	 ebp
  00018	c2 04 00	 ret	 4
?getName@Error@@UBE?AV?$basic_string@DV?$char_traits@D@_STL@@V?$allocator@D@2@@_STL@@XZ ENDP ; Error::getName
_TEXT	ENDS
PUBLIC	??0?$basic_string@DV?$char_traits@D@_STL@@V?$allocator@D@2@@_STL@@QAE@XZ ; _STL::basic_string<char,_STL::char_traits<char>,_STL::allocator<char> >::basic_string<char,_STL::char_traits<char>,_STL::allocator<char> >
; Function compile flags: /Ogsy
;	COMDAT ??0Throwable@@QAE@XZ
_TEXT	SEGMENT
$T105090 = -1						; size = 1
??0Throwable@@QAE@XZ PROC NEAR				; Throwable::Throwable, COMDAT
; _this$ = ecx

; 37   : 	Throwable () throw () {}

  00000	51		 push	 ecx
  00001	56		 push	 esi
  00002	8b f1		 mov	 esi, ecx
  00004	8d 4e 04	 lea	 ecx, DWORD PTR [esi+4]
  00007	c7 06 00 00 00
	00		 mov	 DWORD PTR [esi], OFFSET FLAT:??_7Throwable@@6B@
  0000d	e8 00 00 00 00	 call	 ??0?$basic_string@DV?$char_traits@D@_STL@@V?$allocator@D@2@@_STL@@QAE@XZ ; _STL::basic_string<char,_STL::char_traits<char>,_STL::allocator<char> >::basic_string<char,_STL::char_traits<char>,_STL::allocator<char> >
  00012	8d 44 24 07	 lea	 eax, DWORD PTR $T105090[esp+8]
  00016	50		 push	 eax
  00017	8d 4e 10	 lea	 ecx, DWORD PTR [esi+16]
  0001a	e8 00 00 00 00	 call	 ??0?$list@V?$basic_string@DV?$char_traits@D@_STL@@V?$allocator@D@2@@_STL@@V?$allocator@V?$basic_string@DV?$char_traits@D@_STL@@V?$allocator@D@2@@_STL@@@2@@_STL@@QAE@ABV?$allocator@V?$basic_string@DV?$char_traits@D@_STL@@V?$allocator@D@2@@_STL@@@1@@Z ; _STL::list<_STL::basic_string<char,_STL::char_traits<char>,_STL::allocator<char> >,_STL::allocator<_STL::basic_string<char,_STL::char_traits<char>,_STL::allocator<char> > > >::list<_STL::basic_string<char,_STL::char_traits<char>,_STL::allocator<char> >,_STL::allocator<_STL::basic_string<char,_STL::char_traits<char>,_STL::allocator<char> > > >
  0001f	8b c6		 mov	 eax, esi
  00021	5e		 pop	 esi
  00022	59		 pop	 ecx
  00023	c3		 ret	 0
??0Throwable@@QAE@XZ ENDP				; Throwable::Throwable
_TEXT	ENDS
;	COMDAT xdata$x
; File c:\stlport-4.6.1\stlport\stl\_string.h
xdata$x	SEGMENT
$T105146 DD	0ffffffffH
	DD	FLAT:$L105101
$T105144 DD	019930520H
	DD	01H
	DD	FLAT:$T105146
	DD	2 DUP(00H)
	DD	2 DUP(00H)
; Function compile flags: /Ogsy
; File c:\stlport-4.6.1\stlport\stl\_string.c
xdata$x	ENDS
;	COMDAT ??0?$basic_string@DV?$char_traits@D@_STL@@V?$allocator@D@2@@_STL@@QAE@XZ
_TEXT	SEGMENT
_this$ = -20						; size = 4
$T105100 = -13						; size = 1
__$EHRec$ = -12						; size = 12
??0?$basic_string@DV?$char_traits@D@_STL@@V?$allocator@D@2@@_STL@@QAE@XZ PROC NEAR ; _STL::basic_string<char,_STL::char_traits<char>,_STL::allocator<char> >::basic_string<char,_STL::char_traits<char>,_STL::allocator<char> >, COMDAT
; _this$ = ecx

; 541  :   : _String_base<_CharT,_Alloc>(allocator_type()) {  

  00000	b8 00 00 00 00	 mov	 eax, __ehhandler$??0?$basic_string@DV?$char_traits@D@_STL@@V?$allocator@D@2@@_STL@@QAE@XZ
  00005	e8 00 00 00 00	 call	 __EH_prolog
  0000a	51		 push	 ecx
  0000b	51		 push	 ecx
  0000c	56		 push	 esi
  0000d	8d 45 f3	 lea	 eax, DWORD PTR $T105100[ebp]
  00010	8b f1		 mov	 esi, ecx
  00012	50		 push	 eax
  00013	89 75 ec	 mov	 DWORD PTR _this$[ebp], esi
  00016	e8 00 00 00 00	 call	 ??0?$_String_base@DV?$allocator@D@_STL@@@_STL@@QAE@ABV?$allocator@D@1@@Z ; _STL::_String_base<char,_STL::allocator<char> >::_String_base<char,_STL::allocator<char> >
  0001b	83 65 fc 00	 and	 DWORD PTR __$EHRec$[ebp+8], 0

; 542  :   this->_M_start = this->_M_end_of_storage.allocate(8); 

  0001f	6a 08		 push	 8
  00021	e8 00 00 00 00	 call	 ?_M_allocate@?$__node_alloc@$00$0A@@_STL@@CAPAXI@Z ; _STL::__node_alloc<1,0>::_M_allocate
  00026	59		 pop	 ecx

; 543  :   this->_M_finish = this->_M_start; 
; 544  :   this->_M_end_of_storage._M_data = this->_M_start + 8; 

  00027	8d 48 08	 lea	 ecx, DWORD PTR [eax+8]
  0002a	89 06		 mov	 DWORD PTR [esi], eax
  0002c	89 46 04	 mov	 DWORD PTR [esi+4], eax
  0002f	89 4e 08	 mov	 DWORD PTR [esi+8], ecx

; 545  :   _M_terminate_string();  
; 546  : } 

  00032	8b 4d f4	 mov	 ecx, DWORD PTR __$EHRec$[ebp]
  00035	c6 00 00	 mov	 BYTE PTR [eax], 0
  00038	8b c6		 mov	 eax, esi
  0003a	5e		 pop	 esi
  0003b	64 89 0d 00 00
	00 00		 mov	 DWORD PTR fs:__except_list, ecx
  00042	c9		 leave
  00043	c3		 ret	 0
_TEXT	ENDS
;	COMDAT text$x
text$x	SEGMENT
$L105101:
  00000	8b 4d ec	 mov	 ecx, DWORD PTR _this$[ebp]
  00003	e9 00 00 00 00	 jmp	 ??1?$_String_base@DV?$allocator@D@_STL@@@_STL@@QAE@XZ ; _STL::_String_base<char,_STL::allocator<char> >::~_String_base<char,_STL::allocator<char> >
__ehhandler$??0?$basic_string@DV?$char_traits@D@_STL@@V?$allocator@D@2@@_STL@@QAE@XZ:
  00008	b8 00 00 00 00	 mov	 eax, OFFSET FLAT:$T105144
  0000d	e9 00 00 00 00	 jmp	 ___CxxFrameHandler
text$x	ENDS
??0?$basic_string@DV?$char_traits@D@_STL@@V?$allocator@D@2@@_STL@@QAE@XZ ENDP ; _STL::basic_string<char,_STL::char_traits<char>,_STL::allocator<char> >::basic_string<char,_STL::char_traits<char>,_STL::allocator<char> >
PUBLIC	??1Error@@UAE@XZ				; Error::~Error
; Function compile flags: /Ogsy
;	COMDAT ??1UnsupportedError@@UAE@XZ
_TEXT	SEGMENT
??1UnsupportedError@@UAE@XZ PROC NEAR			; UnsupportedError::~UnsupportedError, COMDAT
; _this$ = ecx
  00000	e9 00 00 00 00	 jmp	 ??1Error@@UAE@XZ
??1UnsupportedError@@UAE@XZ ENDP			; UnsupportedError::~UnsupportedError
; Function compile flags: /Ogsy
_TEXT	ENDS
;	COMDAT ??1Error@@UAE@XZ
_TEXT	SEGMENT
??1Error@@UAE@XZ PROC NEAR				; Error::~Error, COMDAT
; _this$ = ecx
  00000	e9 00 00 00 00	 jmp	 ??1Throwable@@UAE@XZ	; Throwable::~Throwable
??1Error@@UAE@XZ ENDP					; Error::~Error
; Function compile flags: /Ogsy
; File c:\darkeden\designed_common\project\client\packet\packet.h
_TEXT	ENDS
;	COMDAT ?write@Packet@@UBEXPAVSocket@@@Z
_TEXT	SEGMENT
$T105157 = -20						; size = 20
_pSocket$ = 8						; size = 4
?write@Packet@@UBEXPAVSocket@@@Z PROC NEAR		; Packet::write, COMDAT
; _this$ = ecx

; 738  : 	virtual void write (Socket* pSocket) const throw (ProtocolException, Error) { throw UnsupportedError(); }	

  00000	55		 push	 ebp
  00001	8b ec		 mov	 ebp, esp
  00003	83 ec 14	 sub	 esp, 20			; 00000014H
  00006	8d 4d ec	 lea	 ecx, DWORD PTR $T105157[ebp]
  00009	e8 00 00 00 00	 call	 ??0UnsupportedError@@QAE@XZ ; UnsupportedError::UnsupportedError
  0000e	68 00 00 00 00	 push	 OFFSET FLAT:__TI3?AVUnsupportedError@@
  00013	8d 45 ec	 lea	 eax, DWORD PTR $T105157[ebp]
  00016	50		 push	 eax
  00017	e8 00 00 00 00	 call	 __CxxThrowException@8
$L105159:
$L105158:
  0001c	cc		 int	 3
?write@Packet@@UBEXPAVSocket@@@Z ENDP			; Packet::write
_TEXT	ENDS
PUBLIC	??0?$list@V?$basic_string@DV?$char_traits@D@_STL@@V?$allocator@D@2@@_STL@@V?$allocator@V?$basic_string@DV?$char_traits@D@_STL@@V?$allocator@D@2@@_STL@@@2@@_STL@@QAE@ABV01@@Z ; _STL::list<_STL::basic_string<char,_STL::char_traits<char>,_STL::allocator<char> >,_STL::allocator<_STL::basic_string<char,_STL::char_traits<char>,_STL::allocator<char> > > >::list<_STL::basic_string<char,_STL::char_traits<char>,_STL::allocator<char> >,_STL::allocator<_STL::basic_string<char,_STL::char_traits<char>,_STL::allocator<char> > > >
;	COMDAT xdata$x
; File c:\stlport-4.6.1\stlport\stl\_list.h
xdata$x	SEGMENT
$T105222 DD	0ffffffffH
	DD	FLAT:$L105166
$T105220 DD	019930520H
	DD	01H
	DD	FLAT:$T105222
	DD	2 DUP(00H)
	DD	2 DUP(00H)
; Function compile flags: /Ogsy
xdata$x	ENDS
;	COMDAT ??0?$list@V?$basic_string@DV?$char_traits@D@_STL@@V?$allocator@D@2@@_STL@@V?$allocator@V?$basic_string@DV?$char_traits@D@_STL@@V?$allocator@D@2@@_STL@@@2@@_STL@@QAE@ABV01@@Z
_TEXT	SEGMENT
$T105165 = -20						; size = 4
_this$ = -16						; size = 4
__$EHRec$ = -12						; size = 12
___x$ = 8						; size = 4
$T105162 = 11						; size = 1
??0?$list@V?$basic_string@DV?$char_traits@D@_STL@@V?$allocator@D@2@@_STL@@V?$allocator@V?$basic_string@DV?$char_traits@D@_STL@@V?$allocator@D@2@@_STL@@@2@@_STL@@QAE@ABV01@@Z PROC NEAR ; _STL::list<_STL::basic_string<char,_STL::char_traits<char>,_STL::allocator<char> >,_STL::allocator<_STL::basic_string<char,_STL::char_traits<char>,_STL::allocator<char> > > >::list<_STL::basic_string<char,_STL::char_traits<char>,_STL::allocator<char> >,_STL::allocator<_STL::basic_string<char,_STL::char_traits<char>,_STL::allocator<char> > > >, COMDAT
; _this$ = ecx

; 414  :     { insert(begin(), __x.begin(), __x.end()); }

  00000	b8 00 00 00 00	 mov	 eax, __ehhandler$??0?$list@V?$basic_string@DV?$char_traits@D@_STL@@V?$allocator@D@2@@_STL@@V?$allocator@V?$basic_string@DV?$char_traits@D@_STL@@V?$allocator@D@2@@_STL@@@2@@_STL@@QAE@ABV01@@Z
  00005	e8 00 00 00 00	 call	 __EH_prolog
  0000a	51		 push	 ecx
  0000b	51		 push	 ecx
  0000c	56		 push	 esi
  0000d	57		 push	 edi
  0000e	8b 7d 08	 mov	 edi, DWORD PTR ___x$[ebp]
  00011	8b f1		 mov	 esi, ecx
  00013	8d 45 0b	 lea	 eax, DWORD PTR $T105162[ebp]
  00016	50		 push	 eax
  00017	8b cf		 mov	 ecx, edi
  00019	89 75 f0	 mov	 DWORD PTR _this$[ebp], esi
  0001c	e8 00 00 00 00	 call	 ?get_allocator@?$_List_base@V?$basic_string@DV?$char_traits@D@_STL@@V?$allocator@D@2@@_STL@@V?$allocator@V?$basic_string@DV?$char_traits@D@_STL@@V?$allocator@D@2@@_STL@@@2@@_STL@@QBE?AV?$allocator@V?$basic_string@DV?$char_traits@D@_STL@@V?$allocator@D@2@@_STL@@@2@XZ ; _STL::_List_base<_STL::basic_string<char,_STL::char_traits<char>,_STL::allocator<char> >,_STL::allocator<_STL::basic_string<char,_STL::char_traits<char>,_STL::allocator<char> > > >::get_allocator
  00021	50		 push	 eax
  00022	8b ce		 mov	 ecx, esi
  00024	e8 00 00 00 00	 call	 ??0?$_List_base@V?$basic_string@DV?$char_traits@D@_STL@@V?$allocator@D@2@@_STL@@V?$allocator@V?$basic_string@DV?$char_traits@D@_STL@@V?$allocator@D@2@@_STL@@@2@@_STL@@QAE@ABV?$allocator@V?$basic_string@DV?$char_traits@D@_STL@@V?$allocator@D@2@@_STL@@@1@@Z ; _STL::_List_base<_STL::basic_string<char,_STL::char_traits<char>,_STL::allocator<char> >,_STL::allocator<_STL::basic_string<char,_STL::char_traits<char>,_STL::allocator<char> > > >::_List_base<_STL::basic_string<char,_STL::char_traits<char>,_STL::allocator<char> >,_STL::allocator<_STL::basic_string<char,_STL::char_traits<char>,_STL::allocator<char> > > >
  00029	8b 07		 mov	 eax, DWORD PTR [edi]
  0002b	8b 08		 mov	 ecx, DWORD PTR [eax]
  0002d	83 65 fc 00	 and	 DWORD PTR __$EHRec$[ebp+8], 0
  00031	50		 push	 eax
  00032	51		 push	 ecx
  00033	51		 push	 ecx
  00034	8b 0e		 mov	 ecx, DWORD PTR [esi]
  00036	8b 09		 mov	 ecx, DWORD PTR [ecx]
  00038	8b c4		 mov	 eax, esp
  0003a	89 08		 mov	 DWORD PTR [eax], ecx
  0003c	8b ce		 mov	 ecx, esi
  0003e	89 65 ec	 mov	 DWORD PTR $T105165[ebp], esp
  00041	e8 00 00 00 00	 call	 ??$insert@U?$_List_iterator@V?$basic_string@DV?$char_traits@D@_STL@@V?$allocator@D@2@@_STL@@U?$_Const_traits@V?$basic_string@DV?$char_traits@D@_STL@@V?$allocator@D@2@@_STL@@@2@@_STL@@@?$list@V?$basic_string@DV?$char_traits@D@_STL@@V?$allocator@D@2@@_STL@@V?$allocator@V?$basic_string@DV?$char_traits@D@_STL@@V?$allocator@D@2@@_STL@@@2@@_STL@@QAEXU?$_List_iterator@V?$basic_string@DV?$char_traits@D@_STL@@V?$allocator@D@2@@_STL@@U?$_Nonconst_traits@V?$basic_string@DV?$char_traits@D@_STL@@V?$allocator@D@2@@_STL@@@2@@1@U?$_List_iterator@V?$basic_string@DV?$char_traits@D@_STL@@V?$allocator@D@2@@_STL@@U?$_Const_traits@V?$basic_string@DV?$char_traits@D@_STL@@V?$allocator@D@2@@_STL@@@2@@1@1@Z ; _STL::list<_STL::basic_string<char,_STL::char_traits<char>,_STL::allocator<char> >,_STL::allocator<_STL::basic_string<char,_STL::char_traits<char>,_STL::allocator<char> > > >::insert<_STL::_List_iterator<_STL::basic_string<char,_STL::char_traits<char>,_STL::allocator<char> >,_STL::_Const_traits<_STL::basic_string<char,_STL::char_traits<char>,_STL::allocator<char> > > > >
  00046	8b 4d f4	 mov	 ecx, DWORD PTR __$EHRec$[ebp]
  00049	5f		 pop	 edi
  0004a	8b c6		 mov	 eax, esi
  0004c	64 89 0d 00 00
	00 00		 mov	 DWORD PTR fs:__except_list, ecx
  00053	5e		 pop	 esi
  00054	c9		 leave
  00055	c2 04 00	 ret	 4
_TEXT	ENDS
;	COMDAT text$x
text$x	SEGMENT
$L105166:
  00000	8b 4d f0	 mov	 ecx, DWORD PTR _this$[ebp]
  00003	e9 00 00 00 00	 jmp	 ??1?$_List_base@V?$basic_string@DV?$char_traits@D@_STL@@V?$allocator@D@2@@_STL@@V?$allocator@V?$basic_string@DV?$char_traits@D@_STL@@V?$allocator@D@2@@_STL@@@2@@_STL@@QAE@XZ ; _STL::_List_base<_STL::basic_string<char,_STL::char_traits<char>,_STL::allocator<char> >,_STL::allocator<_STL::basic_string<char,_STL::char_traits<char>,_STL::allocator<char> > > >::~_List_base<_STL::basic_string<char,_STL::char_traits<char>,_STL::allocator<char> >,_STL::allocator<_STL::basic_string<char,_STL::char_traits<char>,_STL::allocator<char> > > >
__ehhandler$??0?$list@V?$basic_string@DV?$char_traits@D@_STL@@V?$allocator@D@2@@_STL@@V?$allocator@V?$basic_string@DV?$char_traits@D@_STL@@V?$allocator@D@2@@_STL@@@2@@_STL@@QAE@ABV01@@Z:
  00008	b8 00 00 00 00	 mov	 eax, OFFSET FLAT:$T105220
  0000d	e9 00 00 00 00	 jmp	 ___CxxFrameHandler
text$x	ENDS
??0?$list@V?$basic_string@DV?$char_traits@D@_STL@@V?$allocator@D@2@@_STL@@V?$allocator@V?$basic_string@DV?$char_traits@D@_STL@@V?$allocator@D@2@@_STL@@@2@@_STL@@QAE@ABV01@@Z ENDP ; _STL::list<_STL::basic_string<char,_STL::char_traits<char>,_STL::allocator<char> >,_STL::allocator<_STL::basic_string<char,_STL::char_traits<char>,_STL::allocator<char> > > >::list<_STL::basic_string<char,_STL::char_traits<char>,_STL::allocator<char> >,_STL::allocator<_STL::basic_string<char,_STL::char_traits<char>,_STL::allocator<char> > > >
; Function compile flags: /Ogsy
;	COMDAT ??_GException@@UAEPAXI@Z
_TEXT	SEGMENT
___flags$ = 8						; size = 4
??_GException@@UAEPAXI@Z PROC NEAR			; Exception::`scalar deleting destructor', COMDAT
; _this$ = ecx
  00000	56		 push	 esi
  00001	8b f1		 mov	 esi, ecx
  00003	e8 00 00 00 00	 call	 ??1Exception@@UAE@XZ
  00008	f6 44 24 08 01	 test	 BYTE PTR ___flags$[esp], 1
  0000d	74 07		 je	 SHORT $L88063
  0000f	56		 push	 esi
  00010	e8 00 00 00 00	 call	 ??3@YAXPAX@Z		; operator delete
  00015	59		 pop	 ecx
$L88063:
  00016	8b c6		 mov	 eax, esi
  00018	5e		 pop	 esi
  00019	c2 04 00	 ret	 4
??_GException@@UAEPAXI@Z ENDP				; Exception::`scalar deleting destructor'
; Function compile flags: /Ogsy
_TEXT	ENDS
;	COMDAT ??_GIOException@@UAEPAXI@Z
_TEXT	SEGMENT
___flags$ = 8						; size = 4
??_GIOException@@UAEPAXI@Z PROC NEAR			; IOException::`scalar deleting destructor', COMDAT
; _this$ = ecx
  00000	56		 push	 esi
  00001	8b f1		 mov	 esi, ecx
  00003	e8 00 00 00 00	 call	 ??1IOException@@UAE@XZ
  00008	f6 44 24 08 01	 test	 BYTE PTR ___flags$[esp], 1
  0000d	74 07		 je	 SHORT $L88096
  0000f	56		 push	 esi
  00010	e8 00 00 00 00	 call	 ??3@YAXPAX@Z		; operator delete
  00015	59		 pop	 ecx
$L88096:
  00016	8b c6		 mov	 eax, esi
  00018	5e		 pop	 esi
  00019	c2 04 00	 ret	 4
??_GIOException@@UAEPAXI@Z ENDP				; IOException::`scalar deleting destructor'
; Function compile flags: /Ogsy
_TEXT	ENDS
;	COMDAT ??_GProtocolException@@UAEPAXI@Z
_TEXT	SEGMENT
___flags$ = 8						; size = 4
??_GProtocolException@@UAEPAXI@Z PROC NEAR		; ProtocolException::`scalar deleting destructor', COMDAT
; _this$ = ecx
  00000	56		 push	 esi
  00001	8b f1		 mov	 esi, ecx
  00003	e8 00 00 00 00	 call	 ??1ProtocolException@@UAE@XZ
  00008	f6 44 24 08 01	 test	 BYTE PTR ___flags$[esp], 1
  0000d	74 07		 je	 SHORT $L88459
  0000f	56		 push	 esi
  00010	e8 00 00 00 00	 call	 ??3@YAXPAX@Z		; operator delete
  00015	59		 pop	 ecx
$L88459:
  00016	8b c6		 mov	 eax, esi
  00018	5e		 pop	 esi
  00019	c2 04 00	 ret	 4
??_GProtocolException@@UAEPAXI@Z ENDP			; ProtocolException::`scalar deleting destructor'
; Function compile flags: /Ogsy
_TEXT	ENDS
;	COMDAT ??_GDisconnectException@@UAEPAXI@Z
_TEXT	SEGMENT
___flags$ = 8						; size = 4
??_GDisconnectException@@UAEPAXI@Z PROC NEAR		; DisconnectException::`scalar deleting destructor', COMDAT
; _this$ = ecx
  00000	56		 push	 esi
  00001	8b f1		 mov	 esi, ecx
  00003	e8 00 00 00 00	 call	 ??1DisconnectException@@UAE@XZ
  00008	f6 44 24 08 01	 test	 BYTE PTR ___flags$[esp], 1
  0000d	74 07		 je	 SHORT $L88610
  0000f	56		 push	 esi
  00010	e8 00 00 00 00	 call	 ??3@YAXPAX@Z		; operator delete
  00015	59		 pop	 ecx
$L88610:
  00016	8b c6		 mov	 eax, esi
  00018	5e		 pop	 esi
  00019	c2 04 00	 ret	 4
??_GDisconnectException@@UAEPAXI@Z ENDP			; DisconnectException::`scalar deleting destructor'
; Function compile flags: /Ogsy
_TEXT	ENDS
;	COMDAT ??_GError@@UAEPAXI@Z
_TEXT	SEGMENT
___flags$ = 8						; size = 4
??_GError@@UAEPAXI@Z PROC NEAR				; Error::`scalar deleting destructor', COMDAT
; _this$ = ecx
  00000	56		 push	 esi
  00001	8b f1		 mov	 esi, ecx
  00003	e8 00 00 00 00	 call	 ??1Error@@UAE@XZ
  00008	f6 44 24 08 01	 test	 BYTE PTR ___flags$[esp], 1
  0000d	74 07		 je	 SHORT $L89237
  0000f	56		 push	 esi
  00010	e8 00 00 00 00	 call	 ??3@YAXPAX@Z		; operator delete
  00015	59		 pop	 ecx
$L89237:
  00016	8b c6		 mov	 eax, esi
  00018	5e		 pop	 esi
  00019	c2 04 00	 ret	 4
??_GError@@UAEPAXI@Z ENDP				; Error::`scalar deleting destructor'
; Function compile flags: /Ogsy
_TEXT	ENDS
;	COMDAT ??_GUnsupportedError@@UAEPAXI@Z
_TEXT	SEGMENT
___flags$ = 8						; size = 4
??_GUnsupportedError@@UAEPAXI@Z PROC NEAR		; UnsupportedError::`scalar deleting destructor', COMDAT
; _this$ = ecx
  00000	56		 push	 esi
  00001	8b f1		 mov	 esi, ecx
  00003	e8 00 00 00 00	 call	 ??1UnsupportedError@@UAE@XZ
  00008	f6 44 24 08 01	 test	 BYTE PTR ___flags$[esp], 1
  0000d	74 07		 je	 SHORT $L89333
  0000f	56		 push	 esi
  00010	e8 00 00 00 00	 call	 ??3@YAXPAX@Z		; operator delete
  00015	59		 pop	 ecx
$L89333:
  00016	8b c6		 mov	 eax, esi
  00018	5e		 pop	 esi
  00019	c2 04 00	 ret	 4
??_GUnsupportedError@@UAEPAXI@Z ENDP			; UnsupportedError::`scalar deleting destructor'
_TEXT	ENDS
;	COMDAT xdata$x
xdata$x	SEGMENT
$T105250 DD	0ffffffffH
	DD	FLAT:$L105245
$T105248 DD	019930520H
	DD	01H
	DD	FLAT:$T105250
	DD	2 DUP(00H)
	DD	2 DUP(00H)
; Function compile flags: /Ogsy
xdata$x	ENDS
;	COMDAT ??0Throwable@@QAE@ABV0@@Z
_TEXT	SEGMENT
_this$ = -16						; size = 4
__$EHRec$ = -12						; size = 12
___that$ = 8						; size = 4
??0Throwable@@QAE@ABV0@@Z PROC NEAR			; Throwable::Throwable, COMDAT
; _this$ = ecx
  00000	b8 00 00 00 00	 mov	 eax, __ehhandler$??0Throwable@@QAE@ABV0@@Z
  00005	e8 00 00 00 00	 call	 __EH_prolog
  0000a	51		 push	 ecx
  0000b	56		 push	 esi
  0000c	57		 push	 edi
  0000d	8b 7d 08	 mov	 edi, DWORD PTR ___that$[ebp]
  00010	8b f1		 mov	 esi, ecx
  00012	8d 47 04	 lea	 eax, DWORD PTR [edi+4]
  00015	50		 push	 eax
  00016	8d 4e 04	 lea	 ecx, DWORD PTR [esi+4]
  00019	89 75 f0	 mov	 DWORD PTR _this$[ebp], esi
  0001c	c7 06 00 00 00
	00		 mov	 DWORD PTR [esi], OFFSET FLAT:??_7Throwable@@6B@
  00022	e8 00 00 00 00	 call	 ??0?$basic_string@DV?$char_traits@D@_STL@@V?$allocator@D@2@@_STL@@QAE@ABV01@@Z ; _STL::basic_string<char,_STL::char_traits<char>,_STL::allocator<char> >::basic_string<char,_STL::char_traits<char>,_STL::allocator<char> >
  00027	83 65 fc 00	 and	 DWORD PTR __$EHRec$[ebp+8], 0
  0002b	83 c7 10	 add	 edi, 16			; 00000010H
  0002e	57		 push	 edi
  0002f	8d 4e 10	 lea	 ecx, DWORD PTR [esi+16]
  00032	e8 00 00 00 00	 call	 ??0?$list@V?$basic_string@DV?$char_traits@D@_STL@@V?$allocator@D@2@@_STL@@V?$allocator@V?$basic_string@DV?$char_traits@D@_STL@@V?$allocator@D@2@@_STL@@@2@@_STL@@QAE@ABV01@@Z ; _STL::list<_STL::basic_string<char,_STL::char_traits<char>,_STL::allocator<char> >,_STL::allocator<_STL::basic_string<char,_STL::char_traits<char>,_STL::allocator<char> > > >::list<_STL::basic_string<char,_STL::char_traits<char>,_STL::allocator<char> >,_STL::allocator<_STL::basic_string<char,_STL::char_traits<char>,_STL::allocator<char> > > >
  00037	8b 4d f4	 mov	 ecx, DWORD PTR __$EHRec$[ebp]
  0003a	5f		 pop	 edi
  0003b	8b c6		 mov	 eax, esi
  0003d	5e		 pop	 esi
  0003e	64 89 0d 00 00
	00 00		 mov	 DWORD PTR fs:__except_list, ecx
  00045	c9		 leave
  00046	c2 04 00	 ret	 4
_TEXT	ENDS
;	COMDAT text$x
text$x	SEGMENT
$L105245:
  00000	8b 4d f0	 mov	 ecx, DWORD PTR _this$[ebp]
  00003	83 c1 04	 add	 ecx, 4
  00006	e9 00 00 00 00	 jmp	 ??1?$basic_string@DV?$char_traits@D@_STL@@V?$allocator@D@2@@_STL@@QAE@XZ ; _STL::basic_string<char,_STL::char_traits<char>,_STL::allocator<char> >::~basic_string<char,_STL::char_traits<char>,_STL::allocator<char> >
__ehhandler$??0Throwable@@QAE@ABV0@@Z:
  0000b	b8 00 00 00 00	 mov	 eax, OFFSET FLAT:$T105248
  00010	e9 00 00 00 00	 jmp	 ___CxxFrameHandler
text$x	ENDS
??0Throwable@@QAE@ABV0@@Z ENDP				; Throwable::Throwable
PUBLIC	??0Exception@@QAE@ABV0@@Z			; Exception::Exception
; Function compile flags: /Ogsy
;	COMDAT ??0Exception@@QAE@ABV0@@Z
_TEXT	SEGMENT
___that$ = 8						; size = 4
??0Exception@@QAE@ABV0@@Z PROC NEAR			; Exception::Exception, COMDAT
; _this$ = ecx
  00000	56		 push	 esi
  00001	ff 74 24 08	 push	 DWORD PTR ___that$[esp]
  00005	8b f1		 mov	 esi, ecx
  00007	e8 00 00 00 00	 call	 ??0Throwable@@QAE@ABV0@@Z
  0000c	c7 06 00 00 00
	00		 mov	 DWORD PTR [esi], OFFSET FLAT:??_7Exception@@6B@
  00012	8b c6		 mov	 eax, esi
  00014	5e		 pop	 esi
  00015	c2 04 00	 ret	 4
??0Exception@@QAE@ABV0@@Z ENDP				; Exception::Exception
; Function compile flags: /Ogsy
_TEXT	ENDS
;	COMDAT ??0Error@@QAE@ABV0@@Z
_TEXT	SEGMENT
___that$ = 8						; size = 4
??0Error@@QAE@ABV0@@Z PROC NEAR				; Error::Error, COMDAT
; _this$ = ecx
  00000	56		 push	 esi
  00001	ff 74 24 08	 push	 DWORD PTR ___that$[esp]
  00005	8b f1		 mov	 esi, ecx
  00007	e8 00 00 00 00	 call	 ??0Throwable@@QAE@ABV0@@Z
  0000c	c7 06 00 00 00
	00		 mov	 DWORD PTR [esi], OFFSET FLAT:??_7Error@@6B@
  00012	8b c6		 mov	 eax, esi
  00014	5e		 pop	 esi
  00015	c2 04 00	 ret	 4
??0Error@@QAE@ABV0@@Z ENDP				; Error::Error
_TEXT	ENDS
PUBLIC	??0IOException@@QAE@ABV0@@Z			; IOException::IOException
; Function compile flags: /Ogsy
;	COMDAT ??0IOException@@QAE@ABV0@@Z
_TEXT	SEGMENT
___that$ = 8						; size = 4
??0IOException@@QAE@ABV0@@Z PROC NEAR			; IOException::IOException, COMDAT
; _this$ = ecx
  00000	56		 push	 esi
  00001	ff 74 24 08	 push	 DWORD PTR ___that$[esp]
  00005	8b f1		 mov	 esi, ecx
  00007	e8 00 00 00 00	 call	 ??0Exception@@QAE@ABV0@@Z
  0000c	c7 06 00 00 00
	00		 mov	 DWORD PTR [esi], OFFSET FLAT:??_7IOException@@6B@
  00012	8b c6		 mov	 eax, esi
  00014	5e		 pop	 esi
  00015	c2 04 00	 ret	 4
??0IOException@@QAE@ABV0@@Z ENDP			; IOException::IOException
; Function compile flags: /Ogsy
_TEXT	ENDS
;	COMDAT ??0UnsupportedError@@QAE@ABV0@@Z
_TEXT	SEGMENT
___that$ = 8						; size = 4
??0UnsupportedError@@QAE@ABV0@@Z PROC NEAR		; UnsupportedError::UnsupportedError, COMDAT
; _this$ = ecx
  00000	56		 push	 esi
  00001	ff 74 24 08	 push	 DWORD PTR ___that$[esp]
  00005	8b f1		 mov	 esi, ecx
  00007	e8 00 00 00 00	 call	 ??0Error@@QAE@ABV0@@Z
  0000c	c7 06 00 00 00
	00		 mov	 DWORD PTR [esi], OFFSET FLAT:??_7UnsupportedError@@6B@
  00012	8b c6		 mov	 eax, esi
  00014	5e		 pop	 esi
  00015	c2 04 00	 ret	 4
??0UnsupportedError@@QAE@ABV0@@Z ENDP			; UnsupportedError::UnsupportedError
_TEXT	ENDS
PUBLIC	??0ProtocolException@@QAE@ABV0@@Z		; ProtocolException::ProtocolException
; Function compile flags: /Ogsy
;	COMDAT ??0ProtocolException@@QAE@ABV0@@Z
_TEXT	SEGMENT
___that$ = 8						; size = 4
??0ProtocolException@@QAE@ABV0@@Z PROC NEAR		; ProtocolException::ProtocolException, COMDAT
; _this$ = ecx
  00000	56		 push	 esi
  00001	ff 74 24 08	 push	 DWORD PTR ___that$[esp]
  00005	8b f1		 mov	 esi, ecx
  00007	e8 00 00 00 00	 call	 ??0IOException@@QAE@ABV0@@Z
  0000c	c7 06 00 00 00
	00		 mov	 DWORD PTR [esi], OFFSET FLAT:??_7ProtocolException@@6B@
  00012	8b c6		 mov	 eax, esi
  00014	5e		 pop	 esi
  00015	c2 04 00	 ret	 4
??0ProtocolException@@QAE@ABV0@@Z ENDP			; ProtocolException::ProtocolException
_TEXT	ENDS
PUBLIC	??0DisconnectException@@QAE@ABV0@@Z		; DisconnectException::DisconnectException
; Function compile flags: /Ogsy
;	COMDAT ??0DisconnectException@@QAE@ABV0@@Z
_TEXT	SEGMENT
___that$ = 8						; size = 4
??0DisconnectException@@QAE@ABV0@@Z PROC NEAR		; DisconnectException::DisconnectException, COMDAT
; _this$ = ecx
  00000	56		 push	 esi
  00001	ff 74 24 08	 push	 DWORD PTR ___that$[esp]
  00005	8b f1		 mov	 esi, ecx
  00007	e8 00 00 00 00	 call	 ??0ProtocolException@@QAE@ABV0@@Z
  0000c	c7 06 00 00 00
	00		 mov	 DWORD PTR [esi], OFFSET FLAT:??_7DisconnectException@@6B@
  00012	8b c6		 mov	 eax, esi
  00014	5e		 pop	 esi
  00015	c2 04 00	 ret	 4
??0DisconnectException@@QAE@ABV0@@Z ENDP		; DisconnectException::DisconnectException
_TEXT	ENDS
PUBLIC	__TI5?AVDisconnectException@@
PUBLIC	__CTA5?AVDisconnectException@@
PUBLIC	__CT??_R0?AVDisconnectException@@@8??0DisconnectException@@QAE@ABV0@@Z20
PUBLIC	__CT??_R0?AVProtocolException@@@8??0ProtocolException@@QAE@ABV0@@Z20
PUBLIC	__CT??_R0?AVIOException@@@8??0IOException@@QAE@ABV0@@Z20
PUBLIC	__CT??_R0?AVException@@@8??0Exception@@QAE@ABV0@@Z20
PUBLIC	??_C@_0DI@LMIPDBKN@GCUpdateWeekItemList?5?3?5?$LJ?$LA?$LA?G?5?$LA?$LD?$LM?v@ ; `string'
;	COMDAT xdata$x
; File c:\darkeden\designed_common\project\client\packet\gpackets\gcupdateweekitemlist.h
xdata$x	SEGMENT
$T105363 DD	0ffffffffH
	DD	FLAT:$L105288
	DD	0ffffffffH
	DD	FLAT:$L105289
$T105355 DD	019930520H
	DD	02H
	DD	FLAT:$T105363
	DD	2 DUP(00H)
	DD	2 DUP(00H)
xdata$x	ENDS
;	COMDAT ??_C@_0DI@LMIPDBKN@GCUpdateWeekItemList?5?3?5?$LJ?$LA?$LA?G?5?$LA?$LD?$LM?v@
CONST	SEGMENT
??_C@_0DI@LMIPDBKN@GCUpdateWeekItemList?5?3?5?$LJ?$LA?$LA?G?5?$LA?$LD?$LM?v@ DB 'G'
	DB	'CUpdateWeekItemList : ', 0b9H, 0b0H, 0b0H, 0c7H, ' ', 0b0H, 0b3H
	DB	0bcH, 0f6H, 0b0H, 0a1H, ' ', 0c1H, 0a6H, 0c7H, 0d1H, 0c0H, 0bbH
	DB	' ', 0c3H, 0caH, 0b0H, 0faH, 0c7H, 0dfH, 0bdH, 0c0H, 0b4H, 0cfH
	DB	0b4H, 0d9H, '.', 00H				; `string'
CONST	ENDS
;	COMDAT __TI5?AVDisconnectException@@
xdata$x	SEGMENT
__TI5?AVDisconnectException@@ DD 00H
	DD	FLAT:??1DisconnectException@@UAE@XZ
	DD	00H
	DD	FLAT:__CTA5?AVDisconnectException@@
xdata$x	ENDS
;	COMDAT __CTA5?AVDisconnectException@@
xdata$x	SEGMENT
__CTA5?AVDisconnectException@@ DD 05H
	DD	FLAT:__CT??_R0?AVDisconnectException@@@8??0DisconnectException@@QAE@ABV0@@Z20
	DD	FLAT:__CT??_R0?AVProtocolException@@@8??0ProtocolException@@QAE@ABV0@@Z20
	DD	FLAT:__CT??_R0?AVIOException@@@8??0IOException@@QAE@ABV0@@Z20
	DD	FLAT:__CT??_R0?AVException@@@8??0Exception@@QAE@ABV0@@Z20
	DD	FLAT:__CT??_R0?AVThrowable@@@8??0Throwable@@QAE@ABV0@@Z20
xdata$x	ENDS
;	COMDAT __CT??_R0?AVDisconnectException@@@8??0DisconnectException@@QAE@ABV0@@Z20
xdata$x	SEGMENT
__CT??_R0?AVDisconnectException@@@8??0DisconnectException@@QAE@ABV0@@Z20 DD 00H
	DD	FLAT:??_R0?AVDisconnectException@@@8
	DD	00H
	DD	0ffffffffH
	ORG $+4
	DD	014H
	DD	FLAT:??0DisconnectException@@QAE@ABV0@@Z
xdata$x	ENDS
;	COMDAT __CT??_R0?AVProtocolException@@@8??0ProtocolException@@QAE@ABV0@@Z20
xdata$x	SEGMENT
__CT??_R0?AVProtocolException@@@8??0ProtocolException@@QAE@ABV0@@Z20 DD 00H
	DD	FLAT:??_R0?AVProtocolException@@@8
	DD	00H
	DD	0ffffffffH
	ORG $+4
	DD	014H
	DD	FLAT:??0ProtocolException@@QAE@ABV0@@Z
xdata$x	ENDS
;	COMDAT __CT??_R0?AVIOException@@@8??0IOException@@QAE@ABV0@@Z20
xdata$x	SEGMENT
__CT??_R0?AVIOException@@@8??0IOException@@QAE@ABV0@@Z20 DD 00H
	DD	FLAT:??_R0?AVIOException@@@8
	DD	00H
	DD	0ffffffffH
	ORG $+4
	DD	014H
	DD	FLAT:??0IOException@@QAE@ABV0@@Z
xdata$x	ENDS
;	COMDAT __CT??_R0?AVException@@@8??0Exception@@QAE@ABV0@@Z20
xdata$x	SEGMENT
__CT??_R0?AVException@@@8??0Exception@@QAE@ABV0@@Z20 DD 00H
	DD	FLAT:??_R0?AVException@@@8
	DD	00H
	DD	0ffffffffH
	ORG $+4
	DD	014H
	DD	FLAT:??0Exception@@QAE@ABV0@@Z
; Function compile flags: /Ogsy
; File c:\darkeden\designed_common\project\client\packet\gpackets\gcupdateweekitemlist.cpp
xdata$x	ENDS
;	COMDAT ?read@GCUpdateWeekItemList@@UAEXAAVSocketInputStream@@@Z
_TEXT	SEGMENT
$T105280 = -72						; size = 20
$T105279 = -52						; size = 20
tv239 = -32						; size = 4
$T105281 = -32						; size = 4
_i$101400 = -28						; size = 4
$T105353 = -24						; size = 4
_j$101410 = -24						; size = 4
$T105284 = -24						; size = 4
_optionType$101414 = -20				; size = 2
_totalNum$ = -13					; size = 1
__$EHRec$ = -12						; size = 12
_iStream$ = 8						; size = 4
_optionNum$101409 = 11					; size = 1
$T105282 = 11						; size = 1
?read@GCUpdateWeekItemList@@UAEXAAVSocketInputStream@@@Z PROC NEAR ; GCUpdateWeekItemList::read, COMDAT
; _this$ = ecx

; 60   : {

  00000	b8 00 00 00 00	 mov	 eax, __ehhandler$?read@GCUpdateWeekItemList@@UAEXAAVSocketInputStream@@@Z
  00005	e8 00 00 00 00	 call	 __EH_prolog
  0000a	83 ec 3c	 sub	 esp, 60			; 0000003cH
  0000d	53		 push	 ebx
  0000e	56		 push	 esi
  0000f	57		 push	 edi

; 61   : 	__BEGIN_TRY
; 62   : 
; 63   : 	BYTE totalNum;
; 64   : 	iStream.read( totalNum );

  00010	8b 7d 08	 mov	 edi, DWORD PTR _iStream$[ebp]
  00013	6a 01		 push	 1
  00015	8d 45 f3	 lea	 eax, DWORD PTR _totalNum$[ebp]
  00018	8b f1		 mov	 esi, ecx
  0001a	50		 push	 eax
  0001b	8b cf		 mov	 ecx, edi
  0001d	e8 00 00 00 00	 call	 ?read@SocketInputStream@@QAEIPADI@Z ; SocketInputStream::read

; 65   : 	if ( totalNum > MAX_WEEKITEM_LIST ) throw DisconnectException("GCUpdateWeekItemList :    .");

  00022	0f b6 45 f3	 movzx	 eax, BYTE PTR _totalNum$[ebp]
  00026	3d f4 01 00 00	 cmp	 eax, 500		; 000001f4H
  0002b	7e 39		 jle	 SHORT $L105321
  0002d	83 ec 0c	 sub	 esp, 12			; 0000000cH
  00030	8b cc		 mov	 ecx, esp
  00032	89 65 e0	 mov	 DWORD PTR $T105281[ebp], esp
  00035	8d 45 0b	 lea	 eax, DWORD PTR $T105282[ebp]
  00038	50		 push	 eax
  00039	68 00 00 00 00	 push	 OFFSET FLAT:??_C@_0DI@LMIPDBKN@GCUpdateWeekItemList?5?3?5?$LJ?$LA?$LA?G?5?$LA?$LD?$LM?v@
  0003e	e8 00 00 00 00	 call	 ??0?$basic_string@DV?$char_traits@D@_STL@@V?$allocator@D@2@@_STL@@QAE@PBDABV?$allocator@D@1@@Z ; _STL::basic_string<char,_STL::char_traits<char>,_STL::allocator<char> >::basic_string<char,_STL::char_traits<char>,_STL::allocator<char> >
  00043	8d 4d b8	 lea	 ecx, DWORD PTR $T105280[ebp]
  00046	e8 00 00 00 00	 call	 ??0DisconnectException@@QAE@V?$basic_string@DV?$char_traits@D@_STL@@V?$allocator@D@2@@_STL@@@Z ; DisconnectException::DisconnectException
  0004b	83 65 fc 00	 and	 DWORD PTR __$EHRec$[ebp+8], 0
  0004f	50		 push	 eax
  00050	8d 4d cc	 lea	 ecx, DWORD PTR $T105279[ebp]
  00053	e8 00 00 00 00	 call	 ??0DisconnectException@@QAE@ABV0@@Z
  00058	68 00 00 00 00	 push	 OFFSET FLAT:__TI5?AVDisconnectException@@
  0005d	8d 45 cc	 lea	 eax, DWORD PTR $T105279[ebp]
  00060	50		 push	 eax
  00061	e8 00 00 00 00	 call	 __CxxThrowException@8
$L105364:
$L105321:

; 66   : 
; 67   : 	for ( int i=0; i < totalNum ; ++i )

  00066	83 65 e4 00	 and	 DWORD PTR _i$101400[ebp], 0
  0006a	85 c0		 test	 eax, eax
  0006c	0f 8e e6 00 00
	00		 jle	 $L101403
  00072	83 c6 04	 add	 esi, 4
  00075	89 75 e0	 mov	 DWORD PTR tv239[ebp], esi
$L105360:

; 68   : 	{
; 69   : 		WeekItemInfo* pSI = new WeekItemInfo;

  00078	6a 1c		 push	 28			; 0000001cH
  0007a	e8 00 00 00 00	 call	 ??2@YAPAXI@Z		; operator new
  0007f	59		 pop	 ecx
  00080	89 45 e8	 mov	 DWORD PTR $T105284[ebp], eax
  00083	33 db		 xor	 ebx, ebx
  00085	43		 inc	 ebx
  00086	85 c0		 test	 eax, eax
  00088	89 5d fc	 mov	 DWORD PTR __$EHRec$[ebp+8], ebx
  0008b	74 0b		 je	 SHORT $L105285
  0008d	8b c8		 mov	 ecx, eax
  0008f	e8 00 00 00 00	 call	 ??0_WeekItemInfo@@QAE@XZ
  00094	8b f0		 mov	 esi, eax
  00096	eb 02		 jmp	 SHORT $L105286
$L105285:
  00098	33 f6		 xor	 esi, esi
$L105286:
  0009a	83 4d fc ff	 or	 DWORD PTR __$EHRec$[ebp+8], -1

; 70   : 
; 71   : 		iStream.read( pSI->ID );

  0009e	6a 04		 push	 4
  000a0	56		 push	 esi
  000a1	8b cf		 mov	 ecx, edi
  000a3	e8 00 00 00 00	 call	 ?read@SocketInputStream@@QAEIPADI@Z ; SocketInputStream::read

; 72   : 		iStream.read( pSI->itemClass );

  000a8	53		 push	 ebx
  000a9	8d 46 04	 lea	 eax, DWORD PTR [esi+4]
  000ac	50		 push	 eax
  000ad	8b cf		 mov	 ecx, edi
  000af	e8 00 00 00 00	 call	 ?read@SocketInputStream@@QAEIPADI@Z ; SocketInputStream::read

; 73   : 		iStream.read( pSI->itemType );

  000b4	6a 02		 push	 2
  000b6	8d 46 06	 lea	 eax, DWORD PTR [esi+6]
  000b9	50		 push	 eax
  000ba	8b cf		 mov	 ecx, edi
  000bc	e8 00 00 00 00	 call	 ?read@SocketInputStream@@QAEIPADI@Z ; SocketInputStream::read

; 74   : 		iStream.read( pSI->grade );

  000c1	6a 04		 push	 4
  000c3	8d 46 08	 lea	 eax, DWORD PTR [esi+8]
  000c6	50		 push	 eax
  000c7	8b cf		 mov	 ecx, edi
  000c9	e8 00 00 00 00	 call	 ?read@SocketInputStream@@QAEIPADI@Z ; SocketInputStream::read

; 75   : 
; 76   : 		BYTE optionNum;
; 77   : 		iStream.read( optionNum );

  000ce	53		 push	 ebx
  000cf	8d 45 0b	 lea	 eax, DWORD PTR _optionNum$101409[ebp]
  000d2	50		 push	 eax
  000d3	8b cf		 mov	 ecx, edi
  000d5	e8 00 00 00 00	 call	 ?read@SocketInputStream@@QAEIPADI@Z ; SocketInputStream::read

; 78   : 
; 79   : 		pSI->optionType.clear();

  000da	8d 5e 0c	 lea	 ebx, DWORD PTR [esi+12]
  000dd	8b cb		 mov	 ecx, ebx
  000df	e8 00 00 00 00	 call	 ?clear@?$_List_base@GV?$allocator@G@_STL@@@_STL@@QAEXXZ ; _STL::_List_base<unsigned short,_STL::allocator<unsigned short> >::clear

; 80   : 
; 81   : 		for ( int j=0; j < optionNum ; ++j )

  000e4	83 65 e8 00	 and	 DWORD PTR _j$101410[ebp], 0
  000e8	80 7d 0b 00	 cmp	 BYTE PTR _optionNum$101409[ebp], 0
  000ec	76 24		 jbe	 SHORT $L101413
$L101411:

; 82   : 		{
; 83   : 			OptionType_t optionType;
; 84   : 			iStream.read( optionType );

  000ee	6a 02		 push	 2
  000f0	8d 45 ec	 lea	 eax, DWORD PTR _optionType$101414[ebp]
  000f3	50		 push	 eax
  000f4	8b cf		 mov	 ecx, edi
  000f6	e8 00 00 00 00	 call	 ?read@SocketInputStream@@QAEIPADI@Z ; SocketInputStream::read

; 85   : 			pSI->optionType.push_back( optionType );

  000fb	8d 45 ec	 lea	 eax, DWORD PTR _optionType$101414[ebp]
  000fe	50		 push	 eax
  000ff	8b cb		 mov	 ecx, ebx
  00101	e8 00 00 00 00	 call	 ?push_back@?$list@GV?$allocator@G@_STL@@@_STL@@QAEXABG@Z ; _STL::list<unsigned short,_STL::allocator<unsigned short> >::push_back
  00106	0f b6 45 0b	 movzx	 eax, BYTE PTR _optionNum$101409[ebp]
  0010a	ff 45 e8	 inc	 DWORD PTR _j$101410[ebp]
  0010d	39 45 e8	 cmp	 DWORD PTR _j$101410[ebp], eax
  00110	7c dc		 jl	 SHORT $L101411
$L101413:

; 86   : 		}
; 87   : 		
; 88   : 		iStream.read( pSI->num );

  00112	6a 01		 push	 1
  00114	8d 46 10	 lea	 eax, DWORD PTR [esi+16]
  00117	50		 push	 eax
  00118	8b cf		 mov	 ecx, edi
  0011a	e8 00 00 00 00	 call	 ?read@SocketInputStream@@QAEIPADI@Z ; SocketInputStream::read

; 89   : 		iStream.read( pSI->timeLimit );

  0011f	6a 04		 push	 4
  00121	8d 46 14	 lea	 eax, DWORD PTR [esi+20]
  00124	50		 push	 eax
  00125	8b cf		 mov	 ecx, edi
  00127	e8 00 00 00 00	 call	 ?read@SocketInputStream@@QAEIPADI@Z ; SocketInputStream::read

; 90   : 		iStream.read( pSI->Durability );

  0012c	6a 04		 push	 4
  0012e	8d 46 18	 lea	 eax, DWORD PTR [esi+24]
  00131	50		 push	 eax
  00132	8b cf		 mov	 ecx, edi
  00134	e8 00 00 00 00	 call	 ?read@SocketInputStream@@QAEIPADI@Z ; SocketInputStream::read

; 91   : 
; 92   : 		addWeekItemInfo( pSI );

  00139	8b 4d e0	 mov	 ecx, DWORD PTR tv239[ebp]
  0013c	8d 45 e8	 lea	 eax, DWORD PTR $T105353[ebp]
  0013f	50		 push	 eax
  00140	89 75 e8	 mov	 DWORD PTR $T105353[ebp], esi
  00143	e8 00 00 00 00	 call	 ?push_back@?$list@PAU_WeekItemInfo@@V?$allocator@PAU_WeekItemInfo@@@_STL@@@_STL@@QAEXABQAU_WeekItemInfo@@@Z ; _STL::list<_WeekItemInfo *,_STL::allocator<_WeekItemInfo *> >::push_back
  00148	0f b6 45 f3	 movzx	 eax, BYTE PTR _totalNum$[ebp]
  0014c	ff 45 e4	 inc	 DWORD PTR _i$101400[ebp]
  0014f	39 45 e4	 cmp	 DWORD PTR _i$101400[ebp], eax
  00152	0f 8c 20 ff ff
	ff		 jl	 $L105360
$L101403:

; 93   : 	}
; 94   : 
; 95   : 	__END_CATCH
; 96   : }

  00158	8b 4d f4	 mov	 ecx, DWORD PTR __$EHRec$[ebp]
  0015b	5f		 pop	 edi
  0015c	5e		 pop	 esi
  0015d	64 89 0d 00 00
	00 00		 mov	 DWORD PTR fs:__except_list, ecx
  00164	5b		 pop	 ebx
  00165	c9		 leave
  00166	c2 04 00	 ret	 4
$L105362:
_TEXT	ENDS
;	COMDAT text$x
text$x	SEGMENT
$L105288:
  00000	8d 4d b8	 lea	 ecx, DWORD PTR $T105280[ebp]
  00003	e9 00 00 00 00	 jmp	 ??1DisconnectException@@UAE@XZ
$L105289:
  00008	ff 75 e8	 push	 DWORD PTR $T105284[ebp]
  0000b	e8 00 00 00 00	 call	 ??3@YAXPAX@Z		; operator delete
  00010	59		 pop	 ecx
  00011	c3		 ret	 0
__ehhandler$?read@GCUpdateWeekItemList@@UAEXAAVSocketInputStream@@@Z:
  00012	b8 00 00 00 00	 mov	 eax, OFFSET FLAT:$T105355
  00017	e9 00 00 00 00	 jmp	 ___CxxFrameHandler
text$x	ENDS
?read@GCUpdateWeekItemList@@UAEXAAVSocketInputStream@@@Z ENDP ; GCUpdateWeekItemList::read
END
