; Listing generated by Microsoft (R) Optimizing Compiler Version 13.10.3077 

	TITLE	\darkeden\Designed_Common\Project\Client\MathTable.cpp
	.386P
include listing.inc
if @Version gt 510
.model FLAT
else
_TEXT	SEGMENT PARA USE32 PUBLIC 'CODE'
_TEXT	ENDS
_DATA	SEGMENT DWORD USE32 PUBLIC 'DATA'
_DATA	ENDS
CONST	SEGMENT DWORD USE32 PUBLIC 'CONST'
CONST	ENDS
_BSS	SEGMENT PARA USE32 PUBLIC 'BSS'
_BSS	ENDS
$$SYMBOLS	SEGMENT BYTE USE32 'DEBSYM'
$$SYMBOLS	ENDS
$$TYPES	SEGMENT BYTE USE32 'DEBTYP'
$$TYPES	ENDS
_TLS	SEGMENT DWORD USE32 PUBLIC 'TLS'
_TLS	ENDS
;	COMDAT ??_C@_0N@GOPDCEEB@basic_string?$AA@
CONST	SEGMENT DWORD USE32 PUBLIC 'CONST'
CONST	ENDS
rdata$r	SEGMENT DWORD USE32 PUBLIC 'CONST'
rdata$r	ENDS
text$yc	SEGMENT PARA USE32 PUBLIC 'CODE'
text$yc	ENDS
CRT$XCA	SEGMENT DWORD USE32 PUBLIC 'DATA'
CRT$XCA	ENDS
CRT$XCU	SEGMENT DWORD USE32 PUBLIC 'DATA'
CRT$XCU	ENDS
CRT$XCL	SEGMENT DWORD USE32 PUBLIC 'DATA'
CRT$XCL	ENDS
CRT$XCC	SEGMENT DWORD USE32 PUBLIC 'DATA'
CRT$XCC	ENDS
CRT$XCZ	SEGMENT DWORD USE32 PUBLIC 'DATA'
CRT$XCZ	ENDS
text$yd	SEGMENT PARA USE32 PUBLIC 'CODE'
text$yd	ENDS
;	COMDAT _acosl
_TEXT	SEGMENT PARA USE32 PUBLIC 'CODE'
_TEXT	ENDS
;	COMDAT _asinl
_TEXT	SEGMENT PARA USE32 PUBLIC 'CODE'
_TEXT	ENDS
;	COMDAT _atanl
_TEXT	SEGMENT PARA USE32 PUBLIC 'CODE'
_TEXT	ENDS
;	COMDAT _atan2l
_TEXT	SEGMENT PARA USE32 PUBLIC 'CODE'
_TEXT	ENDS
;	COMDAT _ceill
_TEXT	SEGMENT PARA USE32 PUBLIC 'CODE'
_TEXT	ENDS
;	COMDAT _cosl
_TEXT	SEGMENT PARA USE32 PUBLIC 'CODE'
_TEXT	ENDS
;	COMDAT _coshl
_TEXT	SEGMENT PARA USE32 PUBLIC 'CODE'
_TEXT	ENDS
;	COMDAT _expl
_TEXT	SEGMENT PARA USE32 PUBLIC 'CODE'
_TEXT	ENDS
;	COMDAT _fabsl
_TEXT	SEGMENT PARA USE32 PUBLIC 'CODE'
_TEXT	ENDS
;	COMDAT _floorl
_TEXT	SEGMENT PARA USE32 PUBLIC 'CODE'
_TEXT	ENDS
;	COMDAT _fmodl
_TEXT	SEGMENT PARA USE32 PUBLIC 'CODE'
_TEXT	ENDS
;	COMDAT _frexpl
_TEXT	SEGMENT PARA USE32 PUBLIC 'CODE'
_TEXT	ENDS
;	COMDAT _ldexpl
_TEXT	SEGMENT PARA USE32 PUBLIC 'CODE'
_TEXT	ENDS
;	COMDAT _logl
_TEXT	SEGMENT PARA USE32 PUBLIC 'CODE'
_TEXT	ENDS
;	COMDAT _log10l
_TEXT	SEGMENT PARA USE32 PUBLIC 'CODE'
_TEXT	ENDS
;	COMDAT _modfl
_TEXT	SEGMENT PARA USE32 PUBLIC 'CODE'
_TEXT	ENDS
;	COMDAT _powl
_TEXT	SEGMENT PARA USE32 PUBLIC 'CODE'
_TEXT	ENDS
;	COMDAT _sinl
_TEXT	SEGMENT PARA USE32 PUBLIC 'CODE'
_TEXT	ENDS
;	COMDAT _sinhl
_TEXT	SEGMENT PARA USE32 PUBLIC 'CODE'
_TEXT	ENDS
;	COMDAT _sqrtl
_TEXT	SEGMENT PARA USE32 PUBLIC 'CODE'
_TEXT	ENDS
;	COMDAT _tanl
_TEXT	SEGMENT PARA USE32 PUBLIC 'CODE'
_TEXT	ENDS
;	COMDAT _tanhl
_TEXT	SEGMENT PARA USE32 PUBLIC 'CODE'
_TEXT	ENDS
;	COMDAT _frexpf
_TEXT	SEGMENT PARA USE32 PUBLIC 'CODE'
_TEXT	ENDS
;	COMDAT _ldexpf
_TEXT	SEGMENT PARA USE32 PUBLIC 'CODE'
_TEXT	ENDS
;	COMDAT _acosf
_TEXT	SEGMENT PARA USE32 PUBLIC 'CODE'
_TEXT	ENDS
;	COMDAT _asinf
_TEXT	SEGMENT PARA USE32 PUBLIC 'CODE'
_TEXT	ENDS
;	COMDAT _atanf
_TEXT	SEGMENT PARA USE32 PUBLIC 'CODE'
_TEXT	ENDS
;	COMDAT _atan2f
_TEXT	SEGMENT PARA USE32 PUBLIC 'CODE'
_TEXT	ENDS
;	COMDAT _ceilf
_TEXT	SEGMENT PARA USE32 PUBLIC 'CODE'
_TEXT	ENDS
;	COMDAT _cosf
_TEXT	SEGMENT PARA USE32 PUBLIC 'CODE'
_TEXT	ENDS
;	COMDAT _coshf
_TEXT	SEGMENT PARA USE32 PUBLIC 'CODE'
_TEXT	ENDS
;	COMDAT _expf
_TEXT	SEGMENT PARA USE32 PUBLIC 'CODE'
_TEXT	ENDS
;	COMDAT _fabsf
_TEXT	SEGMENT PARA USE32 PUBLIC 'CODE'
_TEXT	ENDS
;	COMDAT _floorf
_TEXT	SEGMENT PARA USE32 PUBLIC 'CODE'
_TEXT	ENDS
;	COMDAT _fmodf
_TEXT	SEGMENT PARA USE32 PUBLIC 'CODE'
_TEXT	ENDS
;	COMDAT _logf
_TEXT	SEGMENT PARA USE32 PUBLIC 'CODE'
_TEXT	ENDS
;	COMDAT _log10f
_TEXT	SEGMENT PARA USE32 PUBLIC 'CODE'
_TEXT	ENDS
;	COMDAT _modff
_TEXT	SEGMENT PARA USE32 PUBLIC 'CODE'
_TEXT	ENDS
;	COMDAT _powf
_TEXT	SEGMENT PARA USE32 PUBLIC 'CODE'
_TEXT	ENDS
;	COMDAT _sinf
_TEXT	SEGMENT PARA USE32 PUBLIC 'CODE'
_TEXT	ENDS
;	COMDAT _sinhf
_TEXT	SEGMENT PARA USE32 PUBLIC 'CODE'
_TEXT	ENDS
;	COMDAT _sqrtf
_TEXT	SEGMENT PARA USE32 PUBLIC 'CODE'
_TEXT	ENDS
;	COMDAT _tanf
_TEXT	SEGMENT PARA USE32 PUBLIC 'CODE'
_TEXT	ENDS
;	COMDAT _tanhf
_TEXT	SEGMENT PARA USE32 PUBLIC 'CODE'
_TEXT	ENDS
;	COMDAT ?GetAngle360@MathTable@@YAHH@Z
_TEXT	SEGMENT PARA USE32 PUBLIC 'CODE'
_TEXT	ENDS
;	COMDAT ?FSin@MathTable@@YAHH@Z
_TEXT	SEGMENT PARA USE32 PUBLIC 'CODE'
_TEXT	ENDS
;	COMDAT ?FCos@MathTable@@YAHH@Z
_TEXT	SEGMENT PARA USE32 PUBLIC 'CODE'
_TEXT	ENDS
;	COMDAT ?FArcTan@MathTable@@YAHH@Z
_TEXT	SEGMENT PARA USE32 PUBLIC 'CODE'
_TEXT	ENDS
;	COMDAT ?FCreateSines@MathTable@@YAXXZ
_TEXT	SEGMENT PARA USE32 PUBLIC 'CODE'
_TEXT	ENDS
;	COMDAT ?GetAngleToTarget@MathTable@@YAHHHHH@Z
_TEXT	SEGMENT PARA USE32 PUBLIC 'CODE'
_TEXT	ENDS
;	COMDAT ?GetAngleDir@MathTable@@YAHHH@Z
_TEXT	SEGMENT PARA USE32 PUBLIC 'CODE'
_TEXT	ENDS
;	COMDAT ?ClipAngle@MathTable@@YAHH@Z
_TEXT	SEGMENT PARA USE32 PUBLIC 'CODE'
_TEXT	ENDS
;	COMDAT ?eq@?$__char_traits_base@DH@_STL@@SA_NABD0@Z
_TEXT	SEGMENT PARA USE32 PUBLIC 'CODE'
_TEXT	ENDS
;	COMDAT ?not_eof@?$__char_traits_base@DH@_STL@@SAHABH@Z
_TEXT	SEGMENT PARA USE32 PUBLIC 'CODE'
_TEXT	ENDS
;	COMDAT ?eq_int_type@?$__char_traits_base@DH@_STL@@SA_NABH0@Z
_TEXT	SEGMENT PARA USE32 PUBLIC 'CODE'
_TEXT	ENDS
;	COMDAT ?get_allocator@?$basic_string@DV?$char_traits@D@_STL@@V?$allocator@D@2@@_STL@@QBE?AV?$allocator@D@2@XZ
_TEXT	SEGMENT PARA USE32 PUBLIC 'CODE'
_TEXT	ENDS
;	COMDAT ?_M_terminate_string@?$basic_string@DV?$char_traits@D@_STL@@V?$allocator@D@2@@_STL@@AAEXXZ
_TEXT	SEGMENT PARA USE32 PUBLIC 'CODE'
_TEXT	ENDS
;	COMDAT ??0?$_String_base@DV?$allocator@D@_STL@@@_STL@@QAE@ABV?$allocator@D@1@@Z
_TEXT	SEGMENT PARA USE32 PUBLIC 'CODE'
_TEXT	ENDS
;	COMDAT ?allocate@?$allocator@D@_STL@@QAEPADIPBX@Z
_TEXT	SEGMENT PARA USE32 PUBLIC 'CODE'
_TEXT	ENDS
;	COMDAT ??0?$fpos@H@_STL@@QAE@J@Z
_TEXT	SEGMENT PARA USE32 PUBLIC 'CODE'
_TEXT	ENDS
;	COMDAT ??B?$fpos@H@_STL@@QBEJXZ
_TEXT	SEGMENT PARA USE32 PUBLIC 'CODE'
_TEXT	ENDS
;	COMDAT ?state@?$fpos@H@_STL@@QBEHXZ
_TEXT	SEGMENT PARA USE32 PUBLIC 'CODE'
_TEXT	ENDS
;	COMDAT ?is_open@?$basic_filebuf@DV?$char_traits@D@_STL@@@_STL@@QBE_NXZ
_TEXT	SEGMENT PARA USE32 PUBLIC 'CODE'
_TEXT	ENDS
;	COMDAT ?_M_seek_return@?$basic_filebuf@DV?$char_traits@D@_STL@@@_STL@@AAE?AV?$fpos@H@2@JH@Z
_TEXT	SEGMENT PARA USE32 PUBLIC 'CODE'
_TEXT	ENDS
;	COMDAT ??0?$_Filebuf_Tmp_Buf@D@_STL@@QAE@H@Z
_TEXT	SEGMENT PARA USE32 PUBLIC 'CODE'
_TEXT	ENDS
;	COMDAT ??1?$_Filebuf_Tmp_Buf@D@_STL@@QAE@XZ
_TEXT	SEGMENT PARA USE32 PUBLIC 'CODE'
_TEXT	ENDS
;	COMDAT ?_M_terminate_string_aux@?$basic_string@DV?$char_traits@D@_STL@@V?$allocator@D@2@@_STL@@AAEXABU__true_type@2@@Z
_TEXT	SEGMENT PARA USE32 PUBLIC 'CODE'
_TEXT	ENDS
;	COMDAT ??0?$allocator@D@_STL@@QAE@ABV01@@Z
_TEXT	SEGMENT PARA USE32 PUBLIC 'CODE'
_TEXT	ENDS
;	COMDAT ??0?$_STLP_alloc_proxy@PADDV?$allocator@D@_STL@@@_STL@@QAE@ABV?$allocator@D@1@PAD@Z
_TEXT	SEGMENT PARA USE32 PUBLIC 'CODE'
_TEXT	ENDS
;	COMDAT ?state@?$fpos@H@_STL@@QAEXH@Z
_TEXT	SEGMENT PARA USE32 PUBLIC 'CODE'
_TEXT	ENDS
;	COMDAT ??$_M_range_initialize@PBD@?$basic_string@DV?$char_traits@D@_STL@@V?$allocator@D@2@@_STL@@AAEXPBD0@Z
_TEXT	SEGMENT PARA USE32 PUBLIC 'CODE'
_TEXT	ENDS
;	COMDAT ??$_M_range_initialize@PAD@?$basic_string@DV?$char_traits@D@_STL@@V?$allocator@D@2@@_STL@@AAEXPAD0@Z
_TEXT	SEGMENT PARA USE32 PUBLIC 'CODE'
_TEXT	ENDS
;	COMDAT ?close@?$basic_filebuf@DV?$char_traits@D@_STL@@@_STL@@QAEPAV12@XZ
_TEXT	SEGMENT PARA USE32 PUBLIC 'CODE'
_TEXT	ENDS
;	COMDAT ?_M_exit_input_mode@?$basic_filebuf@DV?$char_traits@D@_STL@@@_STL@@AAEXXZ
_TEXT	SEGMENT PARA USE32 PUBLIC 'CODE'
_TEXT	ENDS
;	COMDAT ?_M_switch_to_output_mode@?$basic_filebuf@DV?$char_traits@D@_STL@@@_STL@@AAE_NXZ
_TEXT	SEGMENT PARA USE32 PUBLIC 'CODE'
_TEXT	ENDS
;	COMDAT ?_M_output_error@?$basic_filebuf@DV?$char_traits@D@_STL@@@_STL@@AAEHXZ
_TEXT	SEGMENT PARA USE32 PUBLIC 'CODE'
_TEXT	ENDS
;	COMDAT ?_M_allocate_buffers@?$basic_filebuf@DV?$char_traits@D@_STL@@@_STL@@AAE_NPADH@Z
_TEXT	SEGMENT PARA USE32 PUBLIC 'CODE'
_TEXT	ENDS
;	COMDAT ?_M_deallocate_buffers@?$basic_filebuf@DV?$char_traits@D@_STL@@@_STL@@AAEXXZ
_TEXT	SEGMENT PARA USE32 PUBLIC 'CODE'
_TEXT	ENDS
;	COMDAT ?_M_seek_init@?$basic_filebuf@DV?$char_traits@D@_STL@@@_STL@@AAE_N_N@Z
_TEXT	SEGMENT PARA USE32 PUBLIC 'CODE'
_TEXT	ENDS
;	COMDAT ?_M_setup_codecvt@?$basic_filebuf@DV?$char_traits@D@_STL@@@_STL@@AAEXABVlocale@2@@Z
_TEXT	SEGMENT PARA USE32 PUBLIC 'CODE'
_TEXT	ENDS
;	COMDAT ??$equal@PADPADU?$_Eq_traits@V?$char_traits@D@_STL@@@_STL@@@_STL@@YA_NPAD00U?$_Eq_traits@V?$char_traits@D@_STL@@@0@@Z
_TEXT	SEGMENT PARA USE32 PUBLIC 'CODE'
_TEXT	ENDS
;	COMDAT ??$_Destroy@V?$basic_string@DV?$char_traits@D@_STL@@V?$allocator@D@2@@_STL@@@_STL@@YAXPAV?$basic_string@DV?$char_traits@D@_STL@@V?$allocator@D@2@@0@@Z
_TEXT	SEGMENT PARA USE32 PUBLIC 'CODE'
_TEXT	ENDS
;	COMDAT ??$_M_assign_dispatch@PAD@?$basic_string@DV?$char_traits@D@_STL@@V?$allocator@D@2@@_STL@@AAEAAV01@PAD0ABU__false_type@1@@Z
_TEXT	SEGMENT PARA USE32 PUBLIC 'CODE'
_TEXT	ENDS
;	COMDAT ??$_Pow_int@N@@YANNH@Z
_TEXT	SEGMENT PARA USE32 PUBLIC 'CODE'
_TEXT	ENDS
;	COMDAT ??$_Pow_int@H@@YAHHH@Z
_TEXT	SEGMENT PARA USE32 PUBLIC 'CODE'
_TEXT	ENDS
;	COMDAT ??$_Pow_int@M@@YAMMH@Z
_TEXT	SEGMENT PARA USE32 PUBLIC 'CODE'
_TEXT	ENDS
;	COMDAT ??$_Pow_int@O@@YAOOH@Z
_TEXT	SEGMENT PARA USE32 PUBLIC 'CODE'
_TEXT	ENDS
;	COMDAT ??_G?$basic_string@DV?$char_traits@D@_STL@@V?$allocator@D@2@@_STL@@QAEPAXI@Z
_TEXT	SEGMENT PARA USE32 PUBLIC 'CODE'
_TEXT	ENDS
;	COMDAT ?end@?$basic_string@DV?$char_traits@D@_STL@@V?$allocator@D@2@@_STL@@QAEPADXZ
_TEXT	SEGMENT PARA USE32 PUBLIC 'CODE'
_TEXT	ENDS
;	COMDAT ?erase@?$basic_string@DV?$char_traits@D@_STL@@V?$allocator@D@2@@_STL@@QAEPADPAD0@Z
_TEXT	SEGMENT PARA USE32 PUBLIC 'CODE'
_TEXT	ENDS
;	COMDAT ?_M_exit_putback_mode@?$basic_filebuf@DV?$char_traits@D@_STL@@@_STL@@AAEXXZ
_TEXT	SEGMENT PARA USE32 PUBLIC 'CODE'
_TEXT	ENDS
;	COMDAT ??R?$_Eq_traits@V?$char_traits@D@_STL@@@_STL@@QBE_NABD0@Z
_TEXT	SEGMENT PARA USE32 PUBLIC 'CODE'
_TEXT	ENDS
;	COMDAT ?move@?$__char_traits_base@DH@_STL@@SAPADPADPBDI@Z
_TEXT	SEGMENT PARA USE32 PUBLIC 'CODE'
_TEXT	ENDS
;	COMDAT ??$_M_range_initialize@PBD@?$basic_string@DV?$char_traits@D@_STL@@V?$allocator@D@2@@_STL@@AAEXPBD0ABUforward_iterator_tag@1@@Z
_TEXT	SEGMENT PARA USE32 PUBLIC 'CODE'
_TEXT	ENDS
;	COMDAT ??$_M_range_initialize@PAD@?$basic_string@DV?$char_traits@D@_STL@@V?$allocator@D@2@@_STL@@AAEXPAD0ABUforward_iterator_tag@1@@Z
_TEXT	SEGMENT PARA USE32 PUBLIC 'CODE'
_TEXT	ENDS
;	COMDAT ?_M_unshift@?$basic_filebuf@DV?$char_traits@D@_STL@@@_STL@@AAE_NXZ
_TEXT	SEGMENT PARA USE32 PUBLIC 'CODE'
_TEXT	ENDS
;	COMDAT ?_M_allocate_buffers@?$basic_filebuf@DV?$char_traits@D@_STL@@@_STL@@AAE_NXZ
_TEXT	SEGMENT PARA USE32 PUBLIC 'CODE'
_TEXT	ENDS
;	COMDAT ??$max@H@_STL@@YAABHABH0@Z
_TEXT	SEGMENT PARA USE32 PUBLIC 'CODE'
_TEXT	ENDS
;	COMDAT ??$use_facet@V?$codecvt@DDH@_STL@@@_STL@@YAABV?$codecvt@DDH@0@ABVlocale@0@@Z
_TEXT	SEGMENT PARA USE32 PUBLIC 'CODE'
_TEXT	ENDS
;	COMDAT ??$append@PAD@?$basic_string@DV?$char_traits@D@_STL@@V?$allocator@D@2@@_STL@@QAEAAV01@PAD0@Z
_TEXT	SEGMENT PARA USE32 PUBLIC 'CODE'
_TEXT	ENDS
;	COMDAT ??$distance@PBD@_STL@@YAHABQBD0@Z
_TEXT	SEGMENT PARA USE32 PUBLIC 'CODE'
_TEXT	ENDS
;	COMDAT ?_M_allocate_block@?$_String_base@DV?$allocator@D@_STL@@@_STL@@QAEXI@Z
_TEXT	SEGMENT PARA USE32 PUBLIC 'CODE'
_TEXT	ENDS
;	COMDAT ??$distance@PAD@_STL@@YAHABQAD0@Z
_TEXT	SEGMENT PARA USE32 PUBLIC 'CODE'
_TEXT	ENDS
;	COMDAT ??$uninitialized_copy@PADPAD@_STL@@YAPADPAD00@Z
_TEXT	SEGMENT PARA USE32 PUBLIC 'CODE'
_TEXT	ENDS
;	COMDAT ??$_M_append_dispatch@PAD@?$basic_string@DV?$char_traits@D@_STL@@V?$allocator@D@2@@_STL@@AAEAAV01@PAD0ABU__false_type@1@@Z
_TEXT	SEGMENT PARA USE32 PUBLIC 'CODE'
_TEXT	ENDS
;	COMDAT ?max_size@?$_String_base@DV?$allocator@D@_STL@@@_STL@@QBEIXZ
_TEXT	SEGMENT PARA USE32 PUBLIC 'CODE'
_TEXT	ENDS
;	COMDAT ??$__distance@PBD@_STL@@YAHABQBD0ABUrandom_access_iterator_tag@0@@Z
_TEXT	SEGMENT PARA USE32 PUBLIC 'CODE'
_TEXT	ENDS
;	COMDAT ?_M_throw_length_error@?$_String_base@DV?$allocator@D@_STL@@@_STL@@QBEXXZ
_TEXT	SEGMENT PARA USE32 PUBLIC 'CODE'
_TEXT	ENDS
;	COMDAT ??$__distance@PAD@_STL@@YAHABQAD0ABUrandom_access_iterator_tag@0@@Z
_TEXT	SEGMENT PARA USE32 PUBLIC 'CODE'
_TEXT	ENDS
;	COMDAT ??$__uninitialized_copy@PADPAD@_STL@@YAPADPAD00ABU__true_type@0@@Z
_TEXT	SEGMENT PARA USE32 PUBLIC 'CODE'
_TEXT	ENDS
;	COMDAT ??$append@PAD@?$basic_string@DV?$char_traits@D@_STL@@V?$allocator@D@2@@_STL@@AAEAAV01@PAD0ABUforward_iterator_tag@1@@Z
_TEXT	SEGMENT PARA USE32 PUBLIC 'CODE'
_TEXT	ENDS
;	COMDAT ?_M_construct_null@?$basic_string@DV?$char_traits@D@_STL@@V?$allocator@D@2@@_STL@@AAEXPAD@Z
_TEXT	SEGMENT PARA USE32 PUBLIC 'CODE'
_TEXT	ENDS
;	COMDAT ?size@?$basic_string@DV?$char_traits@D@_STL@@V?$allocator@D@2@@_STL@@QBEIXZ
_TEXT	SEGMENT PARA USE32 PUBLIC 'CODE'
_TEXT	ENDS
;	COMDAT ?max_size@?$basic_string@DV?$char_traits@D@_STL@@V?$allocator@D@2@@_STL@@QBEIXZ
_TEXT	SEGMENT PARA USE32 PUBLIC 'CODE'
_TEXT	ENDS
;	COMDAT ?capacity@?$basic_string@DV?$char_traits@D@_STL@@V?$allocator@D@2@@_STL@@QBEIXZ
_TEXT	SEGMENT PARA USE32 PUBLIC 'CODE'
_TEXT	ENDS
;	COMDAT ?_Ret@?$_BothPtrType@PADPAD@_STL@@SA?AU__true_type@2@XZ
_TEXT	SEGMENT PARA USE32 PUBLIC 'CODE'
_TEXT	ENDS
;	COMDAT ?_M_construct_null_aux@?$basic_string@DV?$char_traits@D@_STL@@V?$allocator@D@2@@_STL@@AAEXPADABU__true_type@2@@Z
_TEXT	SEGMENT PARA USE32 PUBLIC 'CODE'
_TEXT	ENDS
;	COMDAT ??$__copy_aux@PADPAD@_STL@@YAPADPAD00ABU__true_type@0@@Z
_TEXT	SEGMENT PARA USE32 PUBLIC 'CODE'
_TEXT	ENDS
;	COMDAT ??$max@I@_STL@@YAABIABI0@Z
_TEXT	SEGMENT PARA USE32 PUBLIC 'CODE'
_TEXT	ENDS
;	COMDAT ?_Ret@?$_OKToMemCpy@DD@_STL@@SA?AU__true_type@2@XZ
_TEXT	SEGMENT PARA USE32 PUBLIC 'CODE'
_TEXT	ENDS
;	COMDAT ??$_IsOKToMemCpy@DD@_STL@@YA?AU?$_OKToMemCpy@DD@0@PAD0@Z
_TEXT	SEGMENT PARA USE32 PUBLIC 'CODE'
_TEXT	ENDS
;	COMDAT ??$__copy_ptrs@PADPAD@_STL@@YAPADPAD00ABU__true_type@0@@Z
_TEXT	SEGMENT PARA USE32 PUBLIC 'CODE'
_TEXT	ENDS
;	COMDAT ?__copy_trivial@_STL@@YAPAXPBX0PAX@Z
_TEXT	SEGMENT PARA USE32 PUBLIC 'CODE'
_TEXT	ENDS
;	COMDAT ?_M_deallocate_block@?$_String_base@DV?$allocator@D@_STL@@@_STL@@QAEXXZ
_TEXT	SEGMENT PARA USE32 PUBLIC 'CODE'
_TEXT	ENDS
;	COMDAT ?deallocate@?$allocator@D@_STL@@QAEXPADI@Z
_TEXT	SEGMENT PARA USE32 PUBLIC 'CODE'
_TEXT	ENDS
;	COMDAT ?deallocate@?$__node_alloc@$00$0A@@_STL@@SAXPAXI@Z
_TEXT	SEGMENT PARA USE32 PUBLIC 'CODE'
_TEXT	ENDS
;	COMDAT ?__stl_delete@_STL@@YAXPAX@Z
_TEXT	SEGMENT PARA USE32 PUBLIC 'CODE'
_TEXT	ENDS
;	COMDAT ?__page_size@_Filebuf_base@_STL@@SAIXZ
_TEXT	SEGMENT PARA USE32 PUBLIC 'CODE'
_TEXT	ENDS
;	COMDAT ?_M_write@?$basic_filebuf@DV?$char_traits@D@_STL@@@_STL@@QAE_NPADH@Z
_TEXT	SEGMENT PARA USE32 PUBLIC 'CODE'
_TEXT	ENDS
;	COMDAT ?unshift@?$codecvt@DDH@_STL@@QBE?AW4result@codecvt_base@2@AAHPAD1AAPAD@Z
_TEXT	SEGMENT PARA USE32 PUBLIC 'CODE'
_TEXT	ENDS
;	COMDAT ?uninitialized_copy@_STL@@YAPADPBD0PAD@Z
_TEXT	SEGMENT PARA USE32 PUBLIC 'CODE'
_TEXT	ENDS
;	COMDAT ?_Destroy@_STL@@YAXPAD0@Z
_TEXT	SEGMENT PARA USE32 PUBLIC 'CODE'
_TEXT	ENDS
;	COMDAT ??1?$basic_string@DV?$char_traits@D@_STL@@V?$allocator@D@2@@_STL@@QAE@XZ
_TEXT	SEGMENT PARA USE32 PUBLIC 'CODE'
_TEXT	ENDS
;	COMDAT ??1?$_String_base@DV?$allocator@D@_STL@@@_STL@@QAE@XZ
_TEXT	SEGMENT PARA USE32 PUBLIC 'CODE'
_TEXT	ENDS
;	COMDAT ?assign@?$char_traits@D@_STL@@SAXAADABD@Z
_TEXT	SEGMENT PARA USE32 PUBLIC 'CODE'
_TEXT	ENDS
;	COMDAT ?always_noconv@?$codecvt@DDH@_STL@@QBE_NXZ
_TEXT	SEGMENT PARA USE32 PUBLIC 'CODE'
_TEXT	ENDS
;	COMDAT ?encoding@?$codecvt@DDH@_STL@@QBEHXZ
_TEXT	SEGMENT PARA USE32 PUBLIC 'CODE'
_TEXT	ENDS
;	COMDAT ?max_length@?$codecvt@DDH@_STL@@QBEHXZ
_TEXT	SEGMENT PARA USE32 PUBLIC 'CODE'
_TEXT	ENDS
;	COMDAT ?__o_mode@_Filebuf_base@_STL@@QBEHXZ
_TEXT	SEGMENT PARA USE32 PUBLIC 'CODE'
_TEXT	ENDS
;	COMDAT ?setp@?$basic_streambuf@DV?$char_traits@D@_STL@@@_STL@@IAEXPAD0@Z
_TEXT	SEGMENT PARA USE32 PUBLIC 'CODE'
_TEXT	ENDS
;	COMDAT ?_FILE_O_set@_STL@@YAXPAU_iobuf@@PAD11@Z
_TEXT	SEGMENT PARA USE32 PUBLIC 'CODE'
_TEXT	ENDS
;	COMDAT ?_FILE_I_set@_STL@@YAXPAU_iobuf@@PAD11@Z
_TEXT	SEGMENT PARA USE32 PUBLIC 'CODE'
_TEXT	ENDS
;	COMDAT ?setg@?$basic_streambuf@DV?$char_traits@D@_STL@@@_STL@@IAEXPAD00@Z
_TEXT	SEGMENT PARA USE32 PUBLIC 'CODE'
_TEXT	ENDS
;	COMDAT ?__is_open@_Filebuf_base@_STL@@QBE_NXZ
_TEXT	SEGMENT PARA USE32 PUBLIC 'CODE'
_TEXT	ENDS
;	COMDAT ?allocate@?$__node_alloc@$00$0A@@_STL@@SAPAXI@Z
_TEXT	SEGMENT PARA USE32 PUBLIC 'CODE'
_TEXT	ENDS
;	COMDAT ?__stl_new@_STL@@YAPAXI@Z
_TEXT	SEGMENT PARA USE32 PUBLIC 'CODE'
_TEXT	ENDS
;	COMDAT ??1?$_STLP_alloc_proxy@PADDV?$allocator@D@_STL@@@_STL@@QAE@XZ
_TEXT	SEGMENT PARA USE32 PUBLIC 'CODE'
_TEXT	ENDS
;	COMDAT ??1?$allocator@D@_STL@@QAE@XZ
_TEXT	SEGMENT PARA USE32 PUBLIC 'CODE'
_TEXT	ENDS
;	COMDAT ?eof@?$__char_traits_base@DH@_STL@@SAHXZ
_TEXT	SEGMENT PARA USE32 PUBLIC 'CODE'
_TEXT	ENDS
sxdata	SEGMENT DWORD USE32 'SXDATA'
sxdata	ENDS
FLAT	GROUP _DATA, CONST, _BSS
	ASSUME	CS: FLAT, DS: FLAT, SS: FLAT
endif

INCLUDELIB LIBCMT
INCLUDELIB OLDNAMES

PUBLIC	?FSinTab@MathTable@@3PAHA			; MathTable::FSinTab
PUBLIC	?FCosTab@MathTable@@3PAHA			; MathTable::FCosTab
PUBLIC	?FArcTanTab@MathTable@@3PAHA			; MathTable::FArcTanTab
_BSS	SEGMENT
?FSinTab@MathTable@@3PAHA DD 0800H DUP (?)		; MathTable::FSinTab
?FCosTab@MathTable@@3PAHA DD 0808H DUP (?)		; MathTable::FCosTab
_BSS	ENDS
_DATA	SEGMENT
?FArcTanTab@MathTable@@3PAHA DD 0ffffff80H		; MathTable::FArcTanTab
	DD	0ffffff80H
	DD	0ffffff80H
	DD	0ffffff80H
	DD	0ffffff80H
	DD	0ffffff80H
	DD	0ffffff80H
	DD	0ffffff80H
	DD	0ffffff80H
	DD	0ffffff80H
	DD	0ffffff80H
	DD	0ffffff81H
	DD	0ffffff81H
	DD	0ffffff81H
	DD	0ffffff81H
	DD	0ffffff81H
	DD	0ffffff81H
	DD	0ffffff81H
	DD	0ffffff81H
	DD	0ffffff81H
	DD	0ffffff81H
	DD	0ffffff81H
	DD	0ffffff81H
	DD	0ffffff82H
	DD	0ffffff82H
	DD	0ffffff82H
	DD	0ffffff82H
	DD	0ffffff82H
	DD	0ffffff82H
	DD	0ffffff82H
	DD	0ffffff82H
	DD	0ffffff82H
	DD	0ffffff82H
	DD	0ffffff82H
	DD	0ffffff82H
	DD	0ffffff83H
	DD	0ffffff83H
	DD	0ffffff83H
	DD	0ffffff83H
	DD	0ffffff83H
	DD	0ffffff83H
	DD	0ffffff83H
	DD	0ffffff83H
	DD	0ffffff83H
	DD	0ffffff83H
	DD	0ffffff83H
	DD	0ffffff83H
	DD	0ffffff84H
	DD	0ffffff84H
	DD	0ffffff84H
	DD	0ffffff84H
	DD	0ffffff84H
	DD	0ffffff84H
	DD	0ffffff84H
	DD	0ffffff84H
	DD	0ffffff84H
	DD	0ffffff84H
	DD	0ffffff84H
	DD	0ffffff84H
	DD	0ffffff85H
	DD	0ffffff85H
	DD	0ffffff85H
	DD	0ffffff85H
	DD	0ffffff85H
	DD	0ffffff85H
	DD	0ffffff85H
	DD	0ffffff85H
	DD	0ffffff85H
	DD	0ffffff85H
	DD	0ffffff85H
	DD	0ffffff85H
	DD	0ffffff86H
	DD	0ffffff86H
	DD	0ffffff86H
	DD	0ffffff86H
	DD	0ffffff86H
	DD	0ffffff86H
	DD	0ffffff86H
	DD	0ffffff86H
	DD	0ffffff86H
	DD	0ffffff86H
	DD	0ffffff86H
	DD	0ffffff87H
	DD	0ffffff87H
	DD	0ffffff87H
	DD	0ffffff87H
	DD	0ffffff87H
	DD	0ffffff87H
	DD	0ffffff87H
	DD	0ffffff87H
	DD	0ffffff87H
	DD	0ffffff87H
	DD	0ffffff87H
	DD	0ffffff87H
	DD	0ffffff88H
	DD	0ffffff88H
	DD	0ffffff88H
	DD	0ffffff88H
	DD	0ffffff88H
	DD	0ffffff88H
	DD	0ffffff88H
	DD	0ffffff88H
	DD	0ffffff88H
	DD	0ffffff88H
	DD	0ffffff88H
	DD	0ffffff89H
	DD	0ffffff89H
	DD	0ffffff89H
	DD	0ffffff89H
	DD	0ffffff89H
	DD	0ffffff89H
	DD	0ffffff89H
	DD	0ffffff89H
	DD	0ffffff89H
	DD	0ffffff89H
	DD	0ffffff89H
	DD	0ffffff8aH
	DD	0ffffff8aH
	DD	0ffffff8aH
	DD	0ffffff8aH
	DD	0ffffff8aH
	DD	0ffffff8aH
	DD	0ffffff8aH
	DD	0ffffff8aH
	DD	0ffffff8aH
	DD	0ffffff8aH
	DD	0ffffff8aH
	DD	0ffffff8bH
	DD	0ffffff8bH
	DD	0ffffff8bH
	DD	0ffffff8bH
	DD	0ffffff8bH
	DD	0ffffff8bH
	DD	0ffffff8bH
	DD	0ffffff8bH
	DD	0ffffff8bH
	DD	0ffffff8bH
	DD	0ffffff8bH
	DD	0ffffff8cH
	DD	0ffffff8cH
	DD	0ffffff8cH
	DD	0ffffff8cH
	DD	0ffffff8cH
	DD	0ffffff8cH
	DD	0ffffff8cH
	DD	0ffffff8cH
	DD	0ffffff8cH
	DD	0ffffff8cH
	DD	0ffffff8cH
	DD	0ffffff8dH
	DD	0ffffff8dH
	DD	0ffffff8dH
	DD	0ffffff8dH
	DD	0ffffff8dH
	DD	0ffffff8dH
	DD	0ffffff8dH
	DD	0ffffff8dH
	DD	0ffffff8dH
	DD	0ffffff8dH
	DD	0ffffff8dH
	DD	0ffffff8eH
	DD	0ffffff8eH
	DD	0ffffff8eH
	DD	0ffffff8eH
	DD	0ffffff8eH
	DD	0ffffff8eH
	DD	0ffffff8eH
	DD	0ffffff8eH
	DD	0ffffff8eH
	DD	0ffffff8eH
	DD	0ffffff8eH
	DD	0ffffff8fH
	DD	0ffffff8fH
	DD	0ffffff8fH
	DD	0ffffff8fH
	DD	0ffffff8fH
	DD	0ffffff8fH
	DD	0ffffff8fH
	DD	0ffffff8fH
	DD	0ffffff8fH
	DD	0ffffff8fH
	DD	0ffffff90H
	DD	0ffffff90H
	DD	0ffffff90H
	DD	0ffffff90H
	DD	0ffffff90H
	DD	0ffffff90H
	DD	0ffffff90H
	DD	0ffffff90H
	DD	0ffffff90H
	DD	0ffffff90H
	DD	0ffffff91H
	DD	0ffffff91H
	DD	0ffffff91H
	DD	0ffffff91H
	DD	0ffffff91H
	DD	0ffffff91H
	DD	0ffffff91H
	DD	0ffffff91H
	DD	0ffffff91H
	DD	0ffffff91H
	DD	0ffffff91H
	DD	0ffffff92H
	DD	0ffffff92H
	DD	0ffffff92H
	DD	0ffffff92H
	DD	0ffffff92H
	DD	0ffffff92H
	DD	0ffffff92H
	DD	0ffffff92H
	DD	0ffffff92H
	DD	0ffffff92H
	DD	0ffffff93H
	DD	0ffffff93H
	DD	0ffffff93H
	DD	0ffffff93H
	DD	0ffffff93H
	DD	0ffffff93H
	DD	0ffffff93H
	DD	0ffffff93H
	DD	0ffffff93H
	DD	0ffffff93H
	DD	0ffffff94H
	DD	0ffffff94H
	DD	0ffffff94H
	DD	0ffffff94H
	DD	0ffffff94H
	DD	0ffffff94H
	DD	0ffffff94H
	DD	0ffffff94H
	DD	0ffffff94H
	DD	0ffffff94H
	DD	0ffffff95H
	DD	0ffffff95H
	DD	0ffffff95H
	DD	0ffffff95H
	DD	0ffffff95H
	DD	0ffffff95H
	DD	0ffffff95H
	DD	0ffffff95H
	DD	0ffffff95H
	DD	0ffffff95H
	DD	0ffffff96H
	DD	0ffffff96H
	DD	0ffffff96H
	DD	0ffffff96H
	DD	0ffffff96H
	DD	0ffffff96H
	DD	0ffffff96H
	DD	0ffffff96H
	DD	0ffffff96H
	DD	0ffffff96H
	DD	0ffffff97H
	DD	0ffffff97H
	DD	0ffffff97H
	DD	0ffffff97H
	DD	0ffffff97H
	DD	0ffffff97H
	DD	0ffffff97H
	DD	0ffffff97H
	DD	0ffffff97H
	DD	0ffffff97H
	DD	0ffffff98H
	DD	0ffffff98H
	DD	0ffffff98H
	DD	0ffffff98H
	DD	0ffffff98H
	DD	0ffffff98H
	DD	0ffffff98H
	DD	0ffffff98H
	DD	0ffffff98H
	DD	0ffffff99H
	DD	0ffffff99H
	DD	0ffffff99H
	DD	0ffffff99H
	DD	0ffffff99H
	DD	0ffffff99H
	DD	0ffffff99H
	DD	0ffffff99H
	DD	0ffffff99H
	DD	0ffffff99H
	DD	0ffffff9aH
	DD	0ffffff9aH
	DD	0ffffff9aH
	DD	0ffffff9aH
	DD	0ffffff9aH
	DD	0ffffff9aH
	DD	0ffffff9aH
	DD	0ffffff9aH
	DD	0ffffff9aH
	DD	0ffffff9bH
	DD	0ffffff9bH
	DD	0ffffff9bH
	DD	0ffffff9bH
	DD	0ffffff9bH
	DD	0ffffff9bH
	DD	0ffffff9bH
	DD	0ffffff9bH
	DD	0ffffff9bH
	DD	0ffffff9bH
	DD	0ffffff9cH
	DD	0ffffff9cH
	DD	0ffffff9cH
	DD	0ffffff9cH
	DD	0ffffff9cH
	DD	0ffffff9cH
	DD	0ffffff9cH
	DD	0ffffff9cH
	DD	0ffffff9cH
	DD	0ffffff9dH
	DD	0ffffff9dH
	DD	0ffffff9dH
	DD	0ffffff9dH
	DD	0ffffff9dH
	DD	0ffffff9dH
	DD	0ffffff9dH
	DD	0ffffff9dH
	DD	0ffffff9dH
	DD	0ffffff9eH
	DD	0ffffff9eH
	DD	0ffffff9eH
	DD	0ffffff9eH
	DD	0ffffff9eH
	DD	0ffffff9eH
	DD	0ffffff9eH
	DD	0ffffff9eH
	DD	0ffffff9eH
	DD	0ffffff9eH
	DD	0ffffff9fH
	DD	0ffffff9fH
	DD	0ffffff9fH
	DD	0ffffff9fH
	DD	0ffffff9fH
	DD	0ffffff9fH
	DD	0ffffff9fH
	DD	0ffffff9fH
	DD	0ffffff9fH
	DD	0ffffffa0H
	DD	0ffffffa0H
	DD	0ffffffa0H
	DD	0ffffffa0H
	DD	0ffffffa0H
	DD	0ffffffa0H
	DD	0ffffffa0H
	DD	0ffffffa0H
	DD	0ffffffa0H
	DD	0ffffffa1H
	DD	0ffffffa1H
	DD	0ffffffa1H
	DD	0ffffffa1H
	DD	0ffffffa1H
	DD	0ffffffa1H
	DD	0ffffffa1H
	DD	0ffffffa1H
	DD	0ffffffa1H
	DD	0ffffffa2H
	DD	0ffffffa2H
	DD	0ffffffa2H
	DD	0ffffffa2H
	DD	0ffffffa2H
	DD	0ffffffa2H
	DD	0ffffffa2H
	DD	0ffffffa2H
	DD	0ffffffa2H
	DD	0ffffffa3H
	DD	0ffffffa3H
	DD	0ffffffa3H
	DD	0ffffffa3H
	DD	0ffffffa3H
	DD	0ffffffa3H
	DD	0ffffffa3H
	DD	0ffffffa3H
	DD	0ffffffa4H
	DD	0ffffffa4H
	DD	0ffffffa4H
	DD	0ffffffa4H
	DD	0ffffffa4H
	DD	0ffffffa4H
	DD	0ffffffa4H
	DD	0ffffffa4H
	DD	0ffffffa4H
	DD	0ffffffa5H
	DD	0ffffffa5H
	DD	0ffffffa5H
	DD	0ffffffa5H
	DD	0ffffffa5H
	DD	0ffffffa5H
	DD	0ffffffa5H
	DD	0ffffffa5H
	DD	0ffffffa5H
	DD	0ffffffa6H
	DD	0ffffffa6H
	DD	0ffffffa6H
	DD	0ffffffa6H
	DD	0ffffffa6H
	DD	0ffffffa6H
	DD	0ffffffa6H
	DD	0ffffffa6H
	DD	0ffffffa7H
	DD	0ffffffa7H
	DD	0ffffffa7H
	DD	0ffffffa7H
	DD	0ffffffa7H
	DD	0ffffffa7H
	DD	0ffffffa7H
	DD	0ffffffa7H
	DD	0ffffffa7H
	DD	0ffffffa8H
	DD	0ffffffa8H
	DD	0ffffffa8H
	DD	0ffffffa8H
	DD	0ffffffa8H
	DD	0ffffffa8H
	DD	0ffffffa8H
	DD	0ffffffa8H
	DD	0ffffffa9H
	DD	0ffffffa9H
	DD	0ffffffa9H
	DD	0ffffffa9H
	DD	0ffffffa9H
	DD	0ffffffa9H
	DD	0ffffffa9H
	DD	0ffffffa9H
	DD	0ffffffa9H
	DD	0ffffffaaH
	DD	0ffffffaaH
	DD	0ffffffaaH
	DD	0ffffffaaH
	DD	0ffffffaaH
	DD	0ffffffaaH
	DD	0ffffffaaH
	DD	0ffffffaaH
	DD	0ffffffabH
	DD	0ffffffabH
	DD	0ffffffabH
	DD	0ffffffabH
	DD	0ffffffabH
	DD	0ffffffabH
	DD	0ffffffabH
	DD	0ffffffabH
	DD	0ffffffabH
	DD	0ffffffacH
	DD	0ffffffacH
	DD	0ffffffacH
	DD	0ffffffacH
	DD	0ffffffacH
	DD	0ffffffacH
	DD	0ffffffacH
	DD	0ffffffacH
	DD	0ffffffadH
	DD	0ffffffadH
	DD	0ffffffadH
	DD	0ffffffadH
	DD	0ffffffadH
	DD	0ffffffadH
	DD	0ffffffadH
	DD	0ffffffadH
	DD	0ffffffaeH
	DD	0ffffffaeH
	DD	0ffffffaeH
	DD	0ffffffaeH
	DD	0ffffffaeH
	DD	0ffffffaeH
	DD	0ffffffaeH
	DD	0ffffffaeH
	DD	0ffffffafH
	DD	0ffffffafH
	DD	0ffffffafH
	DD	0ffffffafH
	DD	0ffffffafH
	DD	0ffffffafH
	DD	0ffffffafH
	DD	0ffffffafH
	DD	0ffffffb0H
	DD	0ffffffb0H
	DD	0ffffffb0H
	DD	0ffffffb0H
	DD	0ffffffb0H
	DD	0ffffffb0H
	DD	0ffffffb0H
	DD	0ffffffb0H
	DD	0ffffffb1H
	DD	0ffffffb1H
	DD	0ffffffb1H
	DD	0ffffffb1H
	DD	0ffffffb1H
	DD	0ffffffb1H
	DD	0ffffffb1H
	DD	0ffffffb1H
	DD	0ffffffb2H
	DD	0ffffffb2H
	DD	0ffffffb2H
	DD	0ffffffb2H
	DD	0ffffffb2H
	DD	0ffffffb2H
	DD	0ffffffb2H
	DD	0ffffffb2H
	DD	0ffffffb3H
	DD	0ffffffb3H
	DD	0ffffffb3H
	DD	0ffffffb3H
	DD	0ffffffb3H
	DD	0ffffffb3H
	DD	0ffffffb3H
	DD	0ffffffb3H
	DD	0ffffffb4H
	DD	0ffffffb4H
	DD	0ffffffb4H
	DD	0ffffffb4H
	DD	0ffffffb4H
	DD	0ffffffb4H
	DD	0ffffffb4H
	DD	0ffffffb4H
	DD	0ffffffb5H
	DD	0ffffffb5H
	DD	0ffffffb5H
	DD	0ffffffb5H
	DD	0ffffffb5H
	DD	0ffffffb5H
	DD	0ffffffb5H
	DD	0ffffffb5H
	DD	0ffffffb6H
	DD	0ffffffb6H
	DD	0ffffffb6H
	DD	0ffffffb6H
	DD	0ffffffb6H
	DD	0ffffffb6H
	DD	0ffffffb6H
	DD	0ffffffb7H
	DD	0ffffffb7H
	DD	0ffffffb7H
	DD	0ffffffb7H
	DD	0ffffffb7H
	DD	0ffffffb7H
	DD	0ffffffb7H
	DD	0ffffffb7H
	DD	0ffffffb8H
	DD	0ffffffb8H
	DD	0ffffffb8H
	DD	0ffffffb8H
	DD	0ffffffb8H
	DD	0ffffffb8H
	DD	0ffffffb8H
	DD	0ffffffb8H
	DD	0ffffffb9H
	DD	0ffffffb9H
	DD	0ffffffb9H
	DD	0ffffffb9H
	DD	0ffffffb9H
	DD	0ffffffb9H
	DD	0ffffffb9H
	DD	0ffffffbaH
	DD	0ffffffbaH
	DD	0ffffffbaH
	DD	0ffffffbaH
	DD	0ffffffbaH
	DD	0ffffffbaH
	DD	0ffffffbaH
	DD	0ffffffbaH
	DD	0ffffffbbH
	DD	0ffffffbbH
	DD	0ffffffbbH
	DD	0ffffffbbH
	DD	0ffffffbbH
	DD	0ffffffbbH
	DD	0ffffffbbH
	DD	0ffffffbcH
	DD	0ffffffbcH
	DD	0ffffffbcH
	DD	0ffffffbcH
	DD	0ffffffbcH
	DD	0ffffffbcH
	DD	0ffffffbcH
	DD	0ffffffbcH
	DD	0ffffffbdH
	DD	0ffffffbdH
	DD	0ffffffbdH
	DD	0ffffffbdH
	DD	0ffffffbdH
	DD	0ffffffbdH
	DD	0ffffffbdH
	DD	0ffffffbeH
	DD	0ffffffbeH
	DD	0ffffffbeH
	DD	0ffffffbeH
	DD	0ffffffbeH
	DD	0ffffffbeH
	DD	0ffffffbeH
	DD	0ffffffbeH
	DD	0ffffffbfH
	DD	0ffffffbfH
	DD	0ffffffbfH
	DD	0ffffffbfH
	DD	0ffffffbfH
	DD	0ffffffbfH
	DD	0ffffffbfH
	DD	0ffffffc0H
	DD	0ffffffc0H
	DD	0ffffffc0H
	DD	0ffffffc0H
	DD	0ffffffc0H
	DD	0ffffffc0H
	DD	0ffffffc0H
	DD	0ffffffc1H
	DD	0ffffffc1H
	DD	0ffffffc1H
	DD	0ffffffc1H
	DD	0ffffffc1H
	DD	0ffffffc1H
	DD	0ffffffc1H
	DD	0ffffffc1H
	DD	0ffffffc2H
	DD	0ffffffc2H
	DD	0ffffffc2H
	DD	0ffffffc2H
	DD	0ffffffc2H
	DD	0ffffffc2H
	DD	0ffffffc2H
	DD	0ffffffc3H
	DD	0ffffffc3H
	DD	0ffffffc3H
	DD	0ffffffc3H
	DD	0ffffffc3H
	DD	0ffffffc3H
	DD	0ffffffc3H
	DD	0ffffffc4H
	DD	0ffffffc4H
	DD	0ffffffc4H
	DD	0ffffffc4H
	DD	0ffffffc4H
	DD	0ffffffc4H
	DD	0ffffffc4H
	DD	0ffffffc5H
	DD	0ffffffc5H
	DD	0ffffffc5H
	DD	0ffffffc5H
	DD	0ffffffc5H
	DD	0ffffffc5H
	DD	0ffffffc5H
	DD	0ffffffc6H
	DD	0ffffffc6H
	DD	0ffffffc6H
	DD	0ffffffc6H
	DD	0ffffffc6H
	DD	0ffffffc6H
	DD	0ffffffc6H
	DD	0ffffffc7H
	DD	0ffffffc7H
	DD	0ffffffc7H
	DD	0ffffffc7H
	DD	0ffffffc7H
	DD	0ffffffc7H
	DD	0ffffffc7H
	DD	0ffffffc7H
	DD	0ffffffc8H
	DD	0ffffffc8H
	DD	0ffffffc8H
	DD	0ffffffc8H
	DD	0ffffffc8H
	DD	0ffffffc8H
	DD	0ffffffc8H
	DD	0ffffffc9H
	DD	0ffffffc9H
	DD	0ffffffc9H
	DD	0ffffffc9H
	DD	0ffffffc9H
	DD	0ffffffc9H
	DD	0ffffffc9H
	DD	0ffffffcaH
	DD	0ffffffcaH
	DD	0ffffffcaH
	DD	0ffffffcaH
	DD	0ffffffcaH
	DD	0ffffffcaH
	DD	0ffffffcaH
	DD	0ffffffcbH
	DD	0ffffffcbH
	DD	0ffffffcbH
	DD	0ffffffcbH
	DD	0ffffffcbH
	DD	0ffffffcbH
	DD	0ffffffcbH
	DD	0ffffffccH
	DD	0ffffffccH
	DD	0ffffffccH
	DD	0ffffffccH
	DD	0ffffffccH
	DD	0ffffffccH
	DD	0ffffffcdH
	DD	0ffffffcdH
	DD	0ffffffcdH
	DD	0ffffffcdH
	DD	0ffffffcdH
	DD	0ffffffcdH
	DD	0ffffffcdH
	DD	0ffffffceH
	DD	0ffffffceH
	DD	0ffffffceH
	DD	0ffffffceH
	DD	0ffffffceH
	DD	0ffffffceH
	DD	0ffffffceH
	DD	0ffffffcfH
	DD	0ffffffcfH
	DD	0ffffffcfH
	DD	0ffffffcfH
	DD	0ffffffcfH
	DD	0ffffffcfH
	DD	0ffffffcfH
	DD	0ffffffd0H
	DD	0ffffffd0H
	DD	0ffffffd0H
	DD	0ffffffd0H
	DD	0ffffffd0H
	DD	0ffffffd0H
	DD	0ffffffd0H
	DD	0ffffffd1H
	DD	0ffffffd1H
	DD	0ffffffd1H
	DD	0ffffffd1H
	DD	0ffffffd1H
	DD	0ffffffd1H
	DD	0ffffffd1H
	DD	0ffffffd2H
	DD	0ffffffd2H
	DD	0ffffffd2H
	DD	0ffffffd2H
	DD	0ffffffd2H
	DD	0ffffffd2H
	DD	0ffffffd2H
	DD	0ffffffd3H
	DD	0ffffffd3H
	DD	0ffffffd3H
	DD	0ffffffd3H
	DD	0ffffffd3H
	DD	0ffffffd3H
	DD	0ffffffd4H
	DD	0ffffffd4H
	DD	0ffffffd4H
	DD	0ffffffd4H
	DD	0ffffffd4H
	DD	0ffffffd4H
	DD	0ffffffd4H
	DD	0ffffffd5H
	DD	0ffffffd5H
	DD	0ffffffd5H
	DD	0ffffffd5H
	DD	0ffffffd5H
	DD	0ffffffd5H
	DD	0ffffffd5H
	DD	0ffffffd6H
	DD	0ffffffd6H
	DD	0ffffffd6H
	DD	0ffffffd6H
	DD	0ffffffd6H
	DD	0ffffffd6H
	DD	0ffffffd7H
	DD	0ffffffd7H
	DD	0ffffffd7H
	DD	0ffffffd7H
	DD	0ffffffd7H
	DD	0ffffffd7H
	DD	0ffffffd7H
	DD	0ffffffd8H
	DD	0ffffffd8H
	DD	0ffffffd8H
	DD	0ffffffd8H
	DD	0ffffffd8H
	DD	0ffffffd8H
	DD	0ffffffd8H
	DD	0ffffffd9H
	DD	0ffffffd9H
	DD	0ffffffd9H
	DD	0ffffffd9H
	DD	0ffffffd9H
	DD	0ffffffd9H
	DD	0ffffffdaH
	DD	0ffffffdaH
	DD	0ffffffdaH
	DD	0ffffffdaH
	DD	0ffffffdaH
	DD	0ffffffdaH
	DD	0ffffffdaH
	DD	0ffffffdbH
	DD	0ffffffdbH
	DD	0ffffffdbH
	DD	0ffffffdbH
	DD	0ffffffdbH
	DD	0ffffffdbH
	DD	0ffffffdcH
	DD	0ffffffdcH
	DD	0ffffffdcH
	DD	0ffffffdcH
	DD	0ffffffdcH
	DD	0ffffffdcH
	DD	0ffffffdcH
	DD	0ffffffddH
	DD	0ffffffddH
	DD	0ffffffddH
	DD	0ffffffddH
	DD	0ffffffddH
	DD	0ffffffddH
	DD	0ffffffddH
	DD	0ffffffdeH
	DD	0ffffffdeH
	DD	0ffffffdeH
	DD	0ffffffdeH
	DD	0ffffffdeH
	DD	0ffffffdeH
	DD	0ffffffdfH
	DD	0ffffffdfH
	DD	0ffffffdfH
	DD	0ffffffdfH
	DD	0ffffffdfH
	DD	0ffffffdfH
	DD	0ffffffdfH
	DD	0ffffffe0H
	DD	0ffffffe0H
	DD	0ffffffe0H
	DD	0ffffffe0H
	DD	0ffffffe0H
	DD	0ffffffe0H
	DD	0ffffffe1H
	DD	0ffffffe1H
	DD	0ffffffe1H
	DD	0ffffffe1H
	DD	0ffffffe1H
	DD	0ffffffe1H
	DD	0ffffffe1H
	DD	0ffffffe2H
	DD	0ffffffe2H
	DD	0ffffffe2H
	DD	0ffffffe2H
	DD	0ffffffe2H
	DD	0ffffffe2H
	DD	0ffffffe3H
	DD	0ffffffe3H
	DD	0ffffffe3H
	DD	0ffffffe3H
	DD	0ffffffe3H
	DD	0ffffffe3H
	DD	0ffffffe3H
	DD	0ffffffe4H
	DD	0ffffffe4H
	DD	0ffffffe4H
	DD	0ffffffe4H
	DD	0ffffffe4H
	DD	0ffffffe4H
	DD	0ffffffe5H
	DD	0ffffffe5H
	DD	0ffffffe5H
	DD	0ffffffe5H
	DD	0ffffffe5H
	DD	0ffffffe5H
	DD	0ffffffe6H
	DD	0ffffffe6H
	DD	0ffffffe6H
	DD	0ffffffe6H
	DD	0ffffffe6H
	DD	0ffffffe6H
	DD	0ffffffe6H
	DD	0ffffffe7H
	DD	0ffffffe7H
	DD	0ffffffe7H
	DD	0ffffffe7H
	DD	0ffffffe7H
	DD	0ffffffe7H
	DD	0ffffffe8H
	DD	0ffffffe8H
	DD	0ffffffe8H
	DD	0ffffffe8H
	DD	0ffffffe8H
	DD	0ffffffe8H
	DD	0ffffffe8H
	DD	0ffffffe9H
	DD	0ffffffe9H
	DD	0ffffffe9H
	DD	0ffffffe9H
	DD	0ffffffe9H
	DD	0ffffffe9H
	DD	0ffffffeaH
	DD	0ffffffeaH
	DD	0ffffffeaH
	DD	0ffffffeaH
	DD	0ffffffeaH
	DD	0ffffffeaH
	DD	0ffffffebH
	DD	0ffffffebH
	DD	0ffffffebH
	DD	0ffffffebH
	DD	0ffffffebH
	DD	0ffffffebH
	DD	0ffffffebH
	DD	0ffffffecH
	DD	0ffffffecH
	DD	0ffffffecH
	DD	0ffffffecH
	DD	0ffffffecH
	DD	0ffffffecH
	DD	0ffffffedH
	DD	0ffffffedH
	DD	0ffffffedH
	DD	0ffffffedH
	DD	0ffffffedH
	DD	0ffffffedH
	DD	0ffffffeeH
	DD	0ffffffeeH
	DD	0ffffffeeH
	DD	0ffffffeeH
	DD	0ffffffeeH
	DD	0ffffffeeH
	DD	0ffffffeeH
	DD	0ffffffefH
	DD	0ffffffefH
	DD	0ffffffefH
	DD	0ffffffefH
	DD	0ffffffefH
	DD	0ffffffefH
	DD	0fffffff0H
	DD	0fffffff0H
	DD	0fffffff0H
	DD	0fffffff0H
	DD	0fffffff0H
	DD	0fffffff0H
	DD	0fffffff1H
	DD	0fffffff1H
	DD	0fffffff1H
	DD	0fffffff1H
	DD	0fffffff1H
	DD	0fffffff1H
	DD	0fffffff1H
	DD	0fffffff2H
	DD	0fffffff2H
	DD	0fffffff2H
	DD	0fffffff2H
	DD	0fffffff2H
	DD	0fffffff2H
	DD	0fffffff3H
	DD	0fffffff3H
	DD	0fffffff3H
	DD	0fffffff3H
	DD	0fffffff3H
	DD	0fffffff3H
	DD	0fffffff4H
	DD	0fffffff4H
	DD	0fffffff4H
	DD	0fffffff4H
	DD	0fffffff4H
	DD	0fffffff4H
	DD	0fffffff5H
	DD	0fffffff5H
	DD	0fffffff5H
	DD	0fffffff5H
	DD	0fffffff5H
	DD	0fffffff5H
	DD	0fffffff5H
	DD	0fffffff6H
	DD	0fffffff6H
	DD	0fffffff6H
	DD	0fffffff6H
	DD	0fffffff6H
	DD	0fffffff6H
	DD	0fffffff7H
	DD	0fffffff7H
	DD	0fffffff7H
	DD	0fffffff7H
	DD	0fffffff7H
	DD	0fffffff7H
	DD	0fffffff8H
	DD	0fffffff8H
	DD	0fffffff8H
	DD	0fffffff8H
	DD	0fffffff8H
	DD	0fffffff8H
	DD	0fffffff8H
	DD	0fffffff9H
	DD	0fffffff9H
	DD	0fffffff9H
	DD	0fffffff9H
	DD	0fffffff9H
	DD	0fffffff9H
	DD	0fffffffaH
	DD	0fffffffaH
	DD	0fffffffaH
	DD	0fffffffaH
	DD	0fffffffaH
	DD	0fffffffaH
	DD	0fffffffbH
	DD	0fffffffbH
	DD	0fffffffbH
	DD	0fffffffbH
	DD	0fffffffbH
	DD	0fffffffbH
	DD	0fffffffcH
	DD	0fffffffcH
	DD	0fffffffcH
	DD	0fffffffcH
	DD	0fffffffcH
	DD	0fffffffcH
	DD	0fffffffcH
	DD	0fffffffdH
	DD	0fffffffdH
	DD	0fffffffdH
	DD	0fffffffdH
	DD	0fffffffdH
	DD	0fffffffdH
	DD	0fffffffeH
	DD	0fffffffeH
	DD	0fffffffeH
	DD	0fffffffeH
	DD	0fffffffeH
	DD	0fffffffeH
	DD	0ffffffffH
	DD	0ffffffffH
	DD	0ffffffffH
	DD	0ffffffffH
	DD	0ffffffffH
	DD	0ffffffffH
	DD	00H
	DD	00H
	DD	00H
	DD	00H
	DD	00H
	DD	00H
	DD	00H
	DD	00H
	DD	00H
	DD	00H
	DD	00H
	DD	00H
	DD	00H
	DD	01H
	DD	01H
	DD	01H
	DD	01H
	DD	01H
	DD	01H
	DD	02H
	DD	02H
	DD	02H
	DD	02H
	DD	02H
	DD	02H
	DD	03H
	DD	03H
	DD	03H
	DD	03H
	DD	03H
	DD	03H
	DD	04H
	DD	04H
	DD	04H
	DD	04H
	DD	04H
	DD	04H
	DD	04H
	DD	05H
	DD	05H
	DD	05H
	DD	05H
	DD	05H
	DD	05H
	DD	06H
	DD	06H
	DD	06H
	DD	06H
	DD	06H
	DD	06H
	DD	07H
	DD	07H
	DD	07H
	DD	07H
	DD	07H
	DD	07H
	DD	08H
	DD	08H
	DD	08H
	DD	08H
	DD	08H
	DD	08H
	DD	08H
	DD	09H
	DD	09H
	DD	09H
	DD	09H
	DD	09H
	DD	09H
	DD	0aH
	DD	0aH
	DD	0aH
	DD	0aH
	DD	0aH
	DD	0aH
	DD	0bH
	DD	0bH
	DD	0bH
	DD	0bH
	DD	0bH
	DD	0bH
	DD	0bH
	DD	0cH
	DD	0cH
	DD	0cH
	DD	0cH
	DD	0cH
	DD	0cH
	DD	0dH
	DD	0dH
	DD	0dH
	DD	0dH
	DD	0dH
	DD	0dH
	DD	0eH
	DD	0eH
	DD	0eH
	DD	0eH
	DD	0eH
	DD	0eH
	DD	0fH
	DD	0fH
	DD	0fH
	DD	0fH
	DD	0fH
	DD	0fH
	DD	0fH
	DD	010H
	DD	010H
	DD	010H
	DD	010H
	DD	010H
	DD	010H
	DD	011H
	DD	011H
	DD	011H
	DD	011H
	DD	011H
	DD	011H
	DD	012H
	DD	012H
	DD	012H
	DD	012H
	DD	012H
	DD	012H
	DD	012H
	DD	013H
	DD	013H
	DD	013H
	DD	013H
	DD	013H
	DD	013H
	DD	014H
	DD	014H
	DD	014H
	DD	014H
	DD	014H
	DD	014H
	DD	015H
	DD	015H
	DD	015H
	DD	015H
	DD	015H
	DD	015H
	DD	015H
	DD	016H
	DD	016H
	DD	016H
	DD	016H
	DD	016H
	DD	016H
	DD	017H
	DD	017H
	DD	017H
	DD	017H
	DD	017H
	DD	017H
	DD	018H
	DD	018H
	DD	018H
	DD	018H
	DD	018H
	DD	018H
	DD	018H
	DD	019H
	DD	019H
	DD	019H
	DD	019H
	DD	019H
	DD	019H
	DD	01aH
	DD	01aH
	DD	01aH
	DD	01aH
	DD	01aH
	DD	01aH
	DD	01aH
	DD	01bH
	DD	01bH
	DD	01bH
	DD	01bH
	DD	01bH
	DD	01bH
	DD	01cH
	DD	01cH
	DD	01cH
	DD	01cH
	DD	01cH
	DD	01cH
	DD	01dH
	DD	01dH
	DD	01dH
	DD	01dH
	DD	01dH
	DD	01dH
	DD	01dH
	DD	01eH
	DD	01eH
	DD	01eH
	DD	01eH
	DD	01eH
	DD	01eH
	DD	01fH
	DD	01fH
	DD	01fH
	DD	01fH
	DD	01fH
	DD	01fH
	DD	01fH
	DD	020H
	DD	020H
	DD	020H
	DD	020H
	DD	020H
	DD	020H
	DD	021H
	DD	021H
	DD	021H
	DD	021H
	DD	021H
	DD	021H
	DD	021H
	DD	022H
	DD	022H
	DD	022H
	DD	022H
	DD	022H
	DD	022H
	DD	023H
	DD	023H
	DD	023H
	DD	023H
	DD	023H
	DD	023H
	DD	023H
	DD	024H
	DD	024H
	DD	024H
	DD	024H
	DD	024H
	DD	024H
	DD	024H
	DD	025H
	DD	025H
	DD	025H
	DD	025H
	DD	025H
	DD	025H
	DD	026H
	DD	026H
	DD	026H
	DD	026H
	DD	026H
	DD	026H
	DD	026H
	DD	027H
	DD	027H
	DD	027H
	DD	027H
	DD	027H
	DD	027H
	DD	028H
	DD	028H
	DD	028H
	DD	028H
	DD	028H
	DD	028H
	DD	028H
	DD	029H
	DD	029H
	DD	029H
	DD	029H
	DD	029H
	DD	029H
	DD	029H
	DD	02aH
	DD	02aH
	DD	02aH
	DD	02aH
	DD	02aH
	DD	02aH
	DD	02bH
	DD	02bH
	DD	02bH
	DD	02bH
	DD	02bH
	DD	02bH
	DD	02bH
	DD	02cH
	DD	02cH
	DD	02cH
	DD	02cH
	DD	02cH
	DD	02cH
	DD	02cH
	DD	02dH
	DD	02dH
	DD	02dH
	DD	02dH
	DD	02dH
	DD	02dH
	DD	02eH
	DD	02eH
	DD	02eH
	DD	02eH
	DD	02eH
	DD	02eH
	DD	02eH
	DD	02fH
	DD	02fH
	DD	02fH
	DD	02fH
	DD	02fH
	DD	02fH
	DD	02fH
	DD	030H
	DD	030H
	DD	030H
	DD	030H
	DD	030H
	DD	030H
	DD	030H
	DD	031H
	DD	031H
	DD	031H
	DD	031H
	DD	031H
	DD	031H
	DD	031H
	DD	032H
	DD	032H
	DD	032H
	DD	032H
	DD	032H
	DD	032H
	DD	032H
	DD	033H
	DD	033H
	DD	033H
	DD	033H
	DD	033H
	DD	033H
	DD	033H
	DD	034H
	DD	034H
	DD	034H
	DD	034H
	DD	034H
	DD	034H
	DD	035H
	DD	035H
	DD	035H
	DD	035H
	DD	035H
	DD	035H
	DD	035H
	DD	036H
	DD	036H
	DD	036H
	DD	036H
	DD	036H
	DD	036H
	DD	036H
	DD	037H
	DD	037H
	DD	037H
	DD	037H
	DD	037H
	DD	037H
	DD	037H
	DD	038H
	DD	038H
	DD	038H
	DD	038H
	DD	038H
	DD	038H
	DD	038H
	DD	039H
	DD	039H
	DD	039H
	DD	039H
	DD	039H
	DD	039H
	DD	039H
	DD	039H
	DD	03aH
	DD	03aH
	DD	03aH
	DD	03aH
	DD	03aH
	DD	03aH
	DD	03aH
	DD	03bH
	DD	03bH
	DD	03bH
	DD	03bH
	DD	03bH
	DD	03bH
	DD	03bH
	DD	03cH
	DD	03cH
	DD	03cH
	DD	03cH
	DD	03cH
	DD	03cH
	DD	03cH
	DD	03dH
	DD	03dH
	DD	03dH
	DD	03dH
	DD	03dH
	DD	03dH
	DD	03dH
	DD	03eH
	DD	03eH
	DD	03eH
	DD	03eH
	DD	03eH
	DD	03eH
	DD	03eH
	DD	03fH
	DD	03fH
	DD	03fH
	DD	03fH
	DD	03fH
	DD	03fH
	DD	03fH
	DD	03fH
	DD	040H
	DD	040H
	DD	040H
	DD	040H
	DD	040H
	DD	040H
	DD	040H
	DD	041H
	DD	041H
	DD	041H
	DD	041H
	DD	041H
	DD	041H
	DD	041H
	DD	042H
	DD	042H
	DD	042H
	DD	042H
	DD	042H
	DD	042H
	DD	042H
	DD	042H
	DD	043H
	DD	043H
	DD	043H
	DD	043H
	DD	043H
	DD	043H
	DD	043H
	DD	044H
	DD	044H
	DD	044H
	DD	044H
	DD	044H
	DD	044H
	DD	044H
	DD	044H
	DD	045H
	DD	045H
	DD	045H
	DD	045H
	DD	045H
	DD	045H
	DD	045H
	DD	046H
	DD	046H
	DD	046H
	DD	046H
	DD	046H
	DD	046H
	DD	046H
	DD	046H
	DD	047H
	DD	047H
	DD	047H
	DD	047H
	DD	047H
	DD	047H
	DD	047H
	DD	048H
	DD	048H
	DD	048H
	DD	048H
	DD	048H
	DD	048H
	DD	048H
	DD	048H
	DD	049H
	DD	049H
	DD	049H
	DD	049H
	DD	049H
	DD	049H
	DD	049H
	DD	049H
	DD	04aH
	DD	04aH
	DD	04aH
	DD	04aH
	DD	04aH
	DD	04aH
	DD	04aH
	DD	04bH
	DD	04bH
	DD	04bH
	DD	04bH
	DD	04bH
	DD	04bH
	DD	04bH
	DD	04bH
	DD	04cH
	DD	04cH
	DD	04cH
	DD	04cH
	DD	04cH
	DD	04cH
	DD	04cH
	DD	04cH
	DD	04dH
	DD	04dH
	DD	04dH
	DD	04dH
	DD	04dH
	DD	04dH
	DD	04dH
	DD	04dH
	DD	04eH
	DD	04eH
	DD	04eH
	DD	04eH
	DD	04eH
	DD	04eH
	DD	04eH
	DD	04eH
	DD	04fH
	DD	04fH
	DD	04fH
	DD	04fH
	DD	04fH
	DD	04fH
	DD	04fH
	DD	04fH
	DD	050H
	DD	050H
	DD	050H
	DD	050H
	DD	050H
	DD	050H
	DD	050H
	DD	050H
	DD	051H
	DD	051H
	DD	051H
	DD	051H
	DD	051H
	DD	051H
	DD	051H
	DD	051H
	DD	052H
	DD	052H
	DD	052H
	DD	052H
	DD	052H
	DD	052H
	DD	052H
	DD	052H
	DD	053H
	DD	053H
	DD	053H
	DD	053H
	DD	053H
	DD	053H
	DD	053H
	DD	053H
	DD	054H
	DD	054H
	DD	054H
	DD	054H
	DD	054H
	DD	054H
	DD	054H
	DD	054H
	DD	055H
	DD	055H
	DD	055H
	DD	055H
	DD	055H
	DD	055H
	DD	055H
	DD	055H
	DD	055H
	DD	056H
	DD	056H
	DD	056H
	DD	056H
	DD	056H
	DD	056H
	DD	056H
	DD	056H
	DD	057H
	DD	057H
	DD	057H
	DD	057H
	DD	057H
	DD	057H
	DD	057H
	DD	057H
	DD	057H
	DD	058H
	DD	058H
	DD	058H
	DD	058H
	DD	058H
	DD	058H
	DD	058H
	DD	058H
	DD	059H
	DD	059H
	DD	059H
	DD	059H
	DD	059H
	DD	059H
	DD	059H
	DD	059H
	DD	059H
	DD	05aH
	DD	05aH
	DD	05aH
	DD	05aH
	DD	05aH
	DD	05aH
	DD	05aH
	DD	05aH
	DD	05bH
	DD	05bH
	DD	05bH
	DD	05bH
	DD	05bH
	DD	05bH
	DD	05bH
	DD	05bH
	DD	05bH
	DD	05cH
	DD	05cH
	DD	05cH
	DD	05cH
	DD	05cH
	DD	05cH
	DD	05cH
	DD	05cH
	DD	05cH
	DD	05dH
	DD	05dH
	DD	05dH
	DD	05dH
	DD	05dH
	DD	05dH
	DD	05dH
	DD	05dH
	DD	05eH
	DD	05eH
	DD	05eH
	DD	05eH
	DD	05eH
	DD	05eH
	DD	05eH
	DD	05eH
	DD	05eH
	DD	05fH
	DD	05fH
	DD	05fH
	DD	05fH
	DD	05fH
	DD	05fH
	DD	05fH
	DD	05fH
	DD	05fH
	DD	060H
	DD	060H
	DD	060H
	DD	060H
	DD	060H
	DD	060H
	DD	060H
	DD	060H
	DD	060H
	DD	061H
	DD	061H
	DD	061H
	DD	061H
	DD	061H
	DD	061H
	DD	061H
	DD	061H
	DD	061H
	DD	062H
	DD	062H
	DD	062H
	DD	062H
	DD	062H
	DD	062H
	DD	062H
	DD	062H
	DD	062H
	DD	062H
	DD	063H
	DD	063H
	DD	063H
	DD	063H
	DD	063H
	DD	063H
	DD	063H
	DD	063H
	DD	063H
	DD	064H
	DD	064H
	DD	064H
	DD	064H
	DD	064H
	DD	064H
	DD	064H
	DD	064H
	DD	064H
	DD	065H
	DD	065H
	DD	065H
	DD	065H
	DD	065H
	DD	065H
	DD	065H
	DD	065H
	DD	065H
	DD	065H
	DD	066H
	DD	066H
	DD	066H
	DD	066H
	DD	066H
	DD	066H
	DD	066H
	DD	066H
	DD	066H
	DD	067H
	DD	067H
	DD	067H
	DD	067H
	DD	067H
	DD	067H
	DD	067H
	DD	067H
	DD	067H
	DD	067H
	DD	068H
	DD	068H
	DD	068H
	DD	068H
	DD	068H
	DD	068H
	DD	068H
	DD	068H
	DD	068H
	DD	069H
	DD	069H
	DD	069H
	DD	069H
	DD	069H
	DD	069H
	DD	069H
	DD	069H
	DD	069H
	DD	069H
	DD	06aH
	DD	06aH
	DD	06aH
	DD	06aH
	DD	06aH
	DD	06aH
	DD	06aH
	DD	06aH
	DD	06aH
	DD	06aH
	DD	06bH
	DD	06bH
	DD	06bH
	DD	06bH
	DD	06bH
	DD	06bH
	DD	06bH
	DD	06bH
	DD	06bH
	DD	06bH
	DD	06cH
	DD	06cH
	DD	06cH
	DD	06cH
	DD	06cH
	DD	06cH
	DD	06cH
	DD	06cH
	DD	06cH
	DD	06cH
	DD	06dH
	DD	06dH
	DD	06dH
	DD	06dH
	DD	06dH
	DD	06dH
	DD	06dH
	DD	06dH
	DD	06dH
	DD	06dH
	DD	06eH
	DD	06eH
	DD	06eH
	DD	06eH
	DD	06eH
	DD	06eH
	DD	06eH
	DD	06eH
	DD	06eH
	DD	06eH
	DD	06fH
	DD	06fH
	DD	06fH
	DD	06fH
	DD	06fH
	DD	06fH
	DD	06fH
	DD	06fH
	DD	06fH
	DD	06fH
	DD	06fH
	DD	070H
	DD	070H
	DD	070H
	DD	070H
	DD	070H
	DD	070H
	DD	070H
	DD	070H
	DD	070H
	DD	070H
	DD	071H
	DD	071H
	DD	071H
	DD	071H
	DD	071H
	DD	071H
	DD	071H
	DD	071H
	DD	071H
	DD	071H
	DD	072H
	DD	072H
	DD	072H
	DD	072H
	DD	072H
	DD	072H
	DD	072H
	DD	072H
	DD	072H
	DD	072H
	DD	072H
	DD	073H
	DD	073H
	DD	073H
	DD	073H
	DD	073H
	DD	073H
	DD	073H
	DD	073H
	DD	073H
	DD	073H
	DD	073H
	DD	074H
	DD	074H
	DD	074H
	DD	074H
	DD	074H
	DD	074H
	DD	074H
	DD	074H
	DD	074H
	DD	074H
	DD	074H
	DD	075H
	DD	075H
	DD	075H
	DD	075H
	DD	075H
	DD	075H
	DD	075H
	DD	075H
	DD	075H
	DD	075H
	DD	075H
	DD	076H
	DD	076H
	DD	076H
	DD	076H
	DD	076H
	DD	076H
	DD	076H
	DD	076H
	DD	076H
	DD	076H
	DD	076H
	DD	077H
	DD	077H
	DD	077H
	DD	077H
	DD	077H
	DD	077H
	DD	077H
	DD	077H
	DD	077H
	DD	077H
	DD	077H
	DD	078H
	DD	078H
	DD	078H
	DD	078H
	DD	078H
	DD	078H
	DD	078H
	DD	078H
	DD	078H
	DD	078H
	DD	078H
	DD	079H
	DD	079H
	DD	079H
	DD	079H
	DD	079H
	DD	079H
	DD	079H
	DD	079H
	DD	079H
	DD	079H
	DD	079H
	DD	079H
	DD	07aH
	DD	07aH
	DD	07aH
	DD	07aH
	DD	07aH
	DD	07aH
	DD	07aH
	DD	07aH
	DD	07aH
	DD	07aH
	DD	07aH
	DD	07bH
	DD	07bH
	DD	07bH
	DD	07bH
	DD	07bH
	DD	07bH
	DD	07bH
	DD	07bH
	DD	07bH
	DD	07bH
	DD	07bH
	DD	07bH
	DD	07cH
	DD	07cH
	DD	07cH
	DD	07cH
	DD	07cH
	DD	07cH
	DD	07cH
	DD	07cH
	DD	07cH
	DD	07cH
	DD	07cH
	DD	07cH
	DD	07dH
	DD	07dH
	DD	07dH
	DD	07dH
	DD	07dH
	DD	07dH
	DD	07dH
	DD	07dH
	DD	07dH
	DD	07dH
	DD	07dH
	DD	07dH
	DD	07eH
	DD	07eH
	DD	07eH
	DD	07eH
	DD	07eH
	DD	07eH
	DD	07eH
	DD	07eH
	DD	07eH
	DD	07eH
	DD	07eH
	DD	07eH
	DD	07fH
	DD	07fH
	DD	07fH
	DD	07fH
	DD	07fH
	DD	07fH
	DD	07fH
	DD	07fH
	DD	07fH
	DD	07fH
	DD	07fH
	DD	07fH
	DD	080H
	DD	080H
	DD	080H
	DD	080H
	DD	080H
	DD	080H
	DD	080H
	DD	080H
	DD	080H
	DD	080H
	DD	080H
_DATA	ENDS
PUBLIC	?GetAngle360@MathTable@@YAHH@Z			; MathTable::GetAngle360
; Function compile flags: /Ogsy
; File c:\darkeden\designed_common\project\client\mathtable.cpp
;	COMDAT ?GetAngle360@MathTable@@YAHH@Z
_TEXT	SEGMENT
_angle$ = 8						; size = 4
?GetAngle360@MathTable@@YAHH@Z PROC NEAR		; MathTable::GetAngle360, COMDAT

; 844  : 	return FPI * angle / 180;

  00000	8b 44 24 04	 mov	 eax, DWORD PTR _angle$[esp-4]
  00004	c1 e0 0a	 shl	 eax, 10			; 0000000aH
  00007	99		 cdq
  00008	b9 b4 00 00 00	 mov	 ecx, 180		; 000000b4H
  0000d	f7 f9		 idiv	 ecx

; 845  : }

  0000f	c3		 ret	 0
?GetAngle360@MathTable@@YAHH@Z ENDP			; MathTable::GetAngle360
_TEXT	ENDS
PUBLIC	?FSin@MathTable@@YAHH@Z				; MathTable::FSin
; Function compile flags: /Ogsy
;	COMDAT ?FSin@MathTable@@YAHH@Z
_TEXT	SEGMENT
_angle$ = 8						; size = 4
?FSin@MathTable@@YAHH@Z PROC NEAR			; MathTable::FSin, COMDAT

; 852  : 	return FSinTab[angle & MAX_ANGLE_1];

  00000	8b 44 24 04	 mov	 eax, DWORD PTR _angle$[esp-4]
  00004	25 ff 07 00 00	 and	 eax, 2047		; 000007ffH
  00009	8b 04 85 00 00
	00 00		 mov	 eax, DWORD PTR ?FSinTab@MathTable@@3PAHA[eax*4]

; 853  : }

  00010	c3		 ret	 0
?FSin@MathTable@@YAHH@Z ENDP				; MathTable::FSin
_TEXT	ENDS
PUBLIC	?FCos@MathTable@@YAHH@Z				; MathTable::FCos
; Function compile flags: /Ogsy
;	COMDAT ?FCos@MathTable@@YAHH@Z
_TEXT	SEGMENT
_angle$ = 8						; size = 4
?FCos@MathTable@@YAHH@Z PROC NEAR			; MathTable::FCos, COMDAT

; 860  : 	return FCosTab[angle & MAX_ANGLE_1];

  00000	8b 44 24 04	 mov	 eax, DWORD PTR _angle$[esp-4]
  00004	25 ff 07 00 00	 and	 eax, 2047		; 000007ffH
  00009	8b 04 85 00 00
	00 00		 mov	 eax, DWORD PTR ?FCosTab@MathTable@@3PAHA[eax*4]

; 861  : }

  00010	c3		 ret	 0
?FCos@MathTable@@YAHH@Z ENDP				; MathTable::FCos
_TEXT	ENDS
PUBLIC	?FArcTan@MathTable@@YAHH@Z			; MathTable::FArcTan
; Function compile flags: /Ogsy
;	COMDAT ?FArcTan@MathTable@@YAHH@Z
_TEXT	SEGMENT
_angle$ = 8						; size = 4
?FArcTan@MathTable@@YAHH@Z PROC NEAR			; MathTable::FArcTan, COMDAT

; 868  : 	return FArcTanTab[angle & MAX_ANGLE2_1];

  00000	8b 44 24 04	 mov	 eax, DWORD PTR _angle$[esp-4]
  00004	25 ff 0f 00 00	 and	 eax, 4095		; 00000fffH
  00009	8b 04 85 00 00
	00 00		 mov	 eax, DWORD PTR ?FArcTanTab@MathTable@@3PAHA[eax*4]

; 869  : }

  00010	c3		 ret	 0
?FArcTan@MathTable@@YAHH@Z ENDP				; MathTable::FArcTan
_TEXT	ENDS
PUBLIC	__real@3b490fdb
PUBLIC	__real@40f0000000000000
PUBLIC	?FCreateSines@MathTable@@YAXXZ			; MathTable::FCreateSines
EXTRN	_cos:NEAR
EXTRN	_sin:NEAR
EXTRN	__ftol2:NEAR
EXTRN	__fltused:NEAR
;	COMDAT __real@3b490fdb
CONST	SEGMENT
__real@3b490fdb DD 03b490fdbr			; 0.00306796
CONST	ENDS
;	COMDAT __real@40f0000000000000
CONST	SEGMENT
__real@40f0000000000000 DQ 040f0000000000000r	; 65536
; Function compile flags: /Ogsy
CONST	ENDS
;	COMDAT ?FCreateSines@MathTable@@YAXXZ
_TEXT	SEGMENT
_angle$ = -12						; size = 8
_i$ = -4						; size = 4
?FCreateSines@MathTable@@YAXXZ PROC NEAR		; MathTable::FCreateSines, COMDAT

; 875  : {

  00000	55		 push	 ebp
  00001	8b ec		 mov	 ebp, esp
  00003	83 ec 0c	 sub	 esp, 12			; 0000000cH

; 876  : 	int i;
; 877  : 	double angle;
; 878  : 
; 879  : 	for (i=0; i<MAX_ANGLE; i++)

  00006	83 65 fc 00	 and	 DWORD PTR _i$[ebp], 0
  0000a	56		 push	 esi
$L100818:

; 880  : 	{
; 881  : 		angle = (float)i * 3.14159265358979323846f / 1024.0f;

  0000b	db 45 fc	 fild	 DWORD PTR _i$[ebp]
  0000e	8b 75 fc	 mov	 esi, DWORD PTR _i$[ebp]

; 882  : 
; 883  : 		FSinTab[i] = (int)(sin(angle) * (float)0x10000);

  00011	51		 push	 ecx
  00012	51		 push	 ecx
  00013	d8 0d 00 00 00
	00		 fmul	 DWORD PTR __real@3b490fdb
  00019	c1 e6 02	 shl	 esi, 2
  0001c	dd 5d f4	 fstp	 QWORD PTR _angle$[ebp]
  0001f	dd 45 f4	 fld	 QWORD PTR _angle$[ebp]
  00022	dd 1c 24	 fstp	 QWORD PTR [esp]
  00025	e8 00 00 00 00	 call	 _sin
  0002a	dc 0d 00 00 00
	00		 fmul	 QWORD PTR __real@40f0000000000000
  00030	e8 00 00 00 00	 call	 __ftol2

; 884  : 		FCosTab[i] = (int)(cos(angle) * (float)0x10000);		

  00035	dd 45 f4	 fld	 QWORD PTR _angle$[ebp]
  00038	dd 1c 24	 fstp	 QWORD PTR [esp]
  0003b	89 86 00 00 00
	00		 mov	 DWORD PTR ?FSinTab@MathTable@@3PAHA[esi], eax
  00041	e8 00 00 00 00	 call	 _cos
  00046	dc 0d 00 00 00
	00		 fmul	 QWORD PTR __real@40f0000000000000
  0004c	59		 pop	 ecx
  0004d	59		 pop	 ecx
  0004e	e8 00 00 00 00	 call	 __ftol2
  00053	ff 45 fc	 inc	 DWORD PTR _i$[ebp]
  00056	81 7d fc 00 08
	00 00		 cmp	 DWORD PTR _i$[ebp], 2048 ; 00000800H
  0005d	89 86 00 00 00
	00		 mov	 DWORD PTR ?FCosTab@MathTable@@3PAHA[esi], eax
  00063	7c a6		 jl	 SHORT $L100818

; 885  : 	}
; 886  : 	
; 887  : 	/*
; 888  : 	for (i=0; i<=ANGLE_90; i++)
; 889  : 	{
; 890  : 		angle =  (float)i * 3.14159265358979323846f / 1024.0f;
; 891  : 
; 892  : 		//int value = (int)(atan(angle) * (float)0x10000);
; 893  : 		int value1 = (int)(tan(angle) * (float)0x10000);
; 894  : 		//int value2 = (int)(tanh(angle) * (float)0x10000);
; 895  : 		//int value3 = (int)(atan2(FSin(angle), FCos(angle)) * (float)0x10000);
; 896  : 
; 897  : 		FArcTanTab[i] = value1;
; 898  : 	}
; 899  : 	*/
; 900  : 
; 901  : 	for (i=0; i<MAX_ANGLE; i++)

  00065	b8 00 00 00 00	 mov	 eax, OFFSET FLAT:?FArcTanTab@MathTable@@3PAHA ; MathTable::FArcTanTab
  0006a	5e		 pop	 esi
$L100070:

; 902  : 	{
; 903  : 		FArcTanTab[i] = FArcTanTab[i] << 1;

  0006b	d1 20		 shl	 DWORD PTR [eax], 1
  0006d	83 c0 04	 add	 eax, 4
  00070	3d 00 20 00 00	 cmp	 eax, OFFSET FLAT:?FArcTanTab@MathTable@@3PAHA+8192
  00075	7c f4		 jl	 SHORT $L100070

; 904  : 	}
; 905  : }

  00077	c9		 leave
  00078	c3		 ret	 0
?FCreateSines@MathTable@@YAXXZ ENDP			; MathTable::FCreateSines
_TEXT	ENDS
PUBLIC	?GetAngleDir@MathTable@@YAHHH@Z			; MathTable::GetAngleDir
EXTRN	_abs:NEAR
; Function compile flags: /Ogsy
;	COMDAT ?GetAngleDir@MathTable@@YAHHH@Z
_TEXT	SEGMENT
_nAngle$ = 8						; size = 4
_nTargetAngle$ = 12					; size = 4
?GetAngleDir@MathTable@@YAHHH@Z PROC NEAR		; MathTable::GetAngleDir, COMDAT

; 958  : 	if ( nAngle == nTargetAngle ) return 0;

  00000	8b 44 24 04	 mov	 eax, DWORD PTR _nAngle$[esp-4]
  00004	3b 44 24 08	 cmp	 eax, DWORD PTR _nTargetAngle$[esp-4]
  00008	75 03		 jne	 SHORT $L100099
  0000a	33 c0		 xor	 eax, eax

; 963  : }

  0000c	c3		 ret	 0
$L100099:

; 959  : 
; 960  : 	int nDir = ( nAngle > nTargetAngle ) ? -1 : 1;

  0000d	33 c9		 xor	 ecx, ecx
  0000f	3b 44 24 08	 cmp	 eax, DWORD PTR _nTargetAngle$[esp-4]
  00013	56		 push	 esi
  00014	0f 9e c1	 setle	 cl

; 961  : 	nDir = ( abs ( nAngle - nTargetAngle ) >= ANGLE_180 ) ? -nDir : nDir;

  00017	2b 44 24 0c	 sub	 eax, DWORD PTR _nTargetAngle$[esp]
  0001b	50		 push	 eax
  0001c	8d 4c 09 ff	 lea	 ecx, DWORD PTR [ecx+ecx-1]
  00020	8b f1		 mov	 esi, ecx
  00022	e8 00 00 00 00	 call	 _abs
  00027	3d 00 04 00 00	 cmp	 eax, 1024		; 00000400H
  0002c	59		 pop	 ecx
  0002d	7c 02		 jl	 SHORT $L100822
  0002f	f7 de		 neg	 esi
$L100822:

; 962  : 	return nDir;

  00031	8b c6		 mov	 eax, esi
  00033	5e		 pop	 esi

; 963  : }

  00034	c3		 ret	 0
?GetAngleDir@MathTable@@YAHHH@Z ENDP			; MathTable::GetAngleDir
_TEXT	ENDS
PUBLIC	?ClipAngle@MathTable@@YAHH@Z			; MathTable::ClipAngle
; Function compile flags: /Ogsy
;	COMDAT ?ClipAngle@MathTable@@YAHH@Z
_TEXT	SEGMENT
_nAngle$ = 8						; size = 4
?ClipAngle@MathTable@@YAHH@Z PROC NEAR			; MathTable::ClipAngle, COMDAT

; 970  : 	if ( nAngle < 0 ) 

  00000	8b 44 24 04	 mov	 eax, DWORD PTR _nAngle$[esp-4]
  00004	85 c0		 test	 eax, eax
  00006	7d 06		 jge	 SHORT $L100104

; 971  : 		nAngle += MAX_ANGLE;

  00008	05 00 08 00 00	 add	 eax, 2048		; 00000800H

; 974  : 	return nAngle;
; 975  : }

  0000d	c3		 ret	 0
$L100104:

; 972  : 	else if ( nAngle >= MAX_ANGLE )

  0000e	b9 00 08 00 00	 mov	 ecx, 2048		; 00000800H
  00013	3b c1		 cmp	 eax, ecx
  00015	7c 02		 jl	 SHORT $L100106

; 973  : 		nAngle -= MAX_ANGLE;

  00017	2b c1		 sub	 eax, ecx
$L100106:

; 974  : 	return nAngle;
; 975  : }

  00019	c3		 ret	 0
?ClipAngle@MathTable@@YAHH@Z ENDP			; MathTable::ClipAngle
_TEXT	ENDS
PUBLIC	?GetAngleToTarget@MathTable@@YAHHHHH@Z		; MathTable::GetAngleToTarget
; Function compile flags: /Ogsy
;	COMDAT ?GetAngleToTarget@MathTable@@YAHHHHH@Z
_TEXT	SEGMENT
_nX$ = 8						; size = 4
_nY$ = 12						; size = 4
_nTargetX$ = 16						; size = 4
_nTargetY$ = 20						; size = 4
?GetAngleToTarget@MathTable@@YAHHHHH@Z PROC NEAR	; MathTable::GetAngleToTarget, COMDAT

; 912  : 	int nAngle;
; 913  : 	int cx = nTargetX - nX;
; 914  : 	int cy = nTargetY - nY;

  00000	8b 4c 24 10	 mov	 ecx, DWORD PTR _nTargetY$[esp-4]
  00004	2b 4c 24 08	 sub	 ecx, DWORD PTR _nY$[esp-4]
  00008	56		 push	 esi
  00009	8b 74 24 10	 mov	 esi, DWORD PTR _nTargetX$[esp]
  0000d	2b 74 24 08	 sub	 esi, DWORD PTR _nX$[esp]

; 915  : 
; 916  : 	if ( cx == 0 ) {

  00011	85 f6		 test	 esi, esi
  00013	75 14		 jne	 SHORT $L100084

; 917  : 		if ( cy > 0 ) return ANGLE_270;

  00015	85 c9		 test	 ecx, ecx
  00017	7e 07		 jle	 SHORT $L100830
  00019	b8 00 06 00 00	 mov	 eax, 1536		; 00000600H
  0001e	5e		 pop	 esi

; 946  : 
; 947  :     return nAngle;
; 948  : }

  0001f	c3		 ret	 0
$L100830:

; 918  : 		if ( cy < 0 ) return ANGLE_90;

  00020	7d 07		 jge	 SHORT $L100084
  00022	b8 00 02 00 00	 mov	 eax, 512		; 00000200H
  00027	5e		 pop	 esi

; 946  : 
; 947  :     return nAngle;
; 948  : }

  00028	c3		 ret	 0
$L100084:

; 919  : 	}
; 920  : 
; 921  : 	if ( cy == 0 ) {

  00029	85 c9		 test	 ecx, ecx
  0002b	75 0d		 jne	 SHORT $L100087

; 922  : 		if ( cx > 0 ) return ANGLE_0;

  0002d	85 f6		 test	 esi, esi
  0002f	7f 11		 jg	 SHORT $L100833

; 923  : 		if ( cx < 0 ) return ANGLE_180;

  00031	7d 07		 jge	 SHORT $L100087
  00033	b8 00 04 00 00	 mov	 eax, 1024		; 00000400H
  00038	5e		 pop	 esi

; 946  : 
; 947  :     return nAngle;
; 948  : }

  00039	c3		 ret	 0
$L100087:

; 924  : 	}
; 925  : 
; 926  : 	if ( cx == 0 && cy == 0 )

  0003a	85 f6		 test	 esi, esi
  0003c	75 08		 jne	 SHORT $L100088
  0003e	85 c9		 test	 ecx, ecx
  00040	75 04		 jne	 SHORT $L100088
$L100833:

; 927  : 		return ANGLE_0;

  00042	33 c0		 xor	 eax, eax
  00044	5e		 pop	 esi

; 946  : 
; 947  :     return nAngle;
; 948  : }

  00045	c3		 ret	 0
$L100088:

; 928  : 
; 929  : 	if ( cy < cx ) {
; 930  : 		if ( -cy < cx )

  00046	8b c1		 mov	 eax, ecx
  00048	f7 d8		 neg	 eax
  0004a	3b ce		 cmp	 ecx, esi
  0004c	7d 2b		 jge	 SHORT $L100089
  0004e	3b c6		 cmp	 eax, esi
  00050	7d 11		 jge	 SHORT $L100090

; 931  : 			nAngle = ANGLE_0 + FArcTanTab[MAX_ANGLE_HALF + ( MAX_ANGLE_HALF * cy / cx )];

  00052	8b c1		 mov	 eax, ecx
  00054	c1 e0 0a	 shl	 eax, 10			; 0000000aH
  00057	99		 cdq
  00058	f7 fe		 idiv	 esi
  0005a	8b 0c 85 00 10
	00 00		 mov	 ecx, DWORD PTR ?FArcTanTab@MathTable@@3PAHA[eax*4+4096]

; 932  : 		else

  00061	eb 3e		 jmp	 SHORT $L100094
$L100090:

; 933  : 			nAngle = ANGLE_270 - FArcTanTab[MAX_ANGLE_HALF + ( MAX_ANGLE_HALF * cx / cy )];

  00063	8b c6		 mov	 eax, esi
  00065	c1 e0 0a	 shl	 eax, 10			; 0000000aH
  00068	99		 cdq
  00069	f7 f9		 idiv	 ecx
  0006b	b9 00 06 00 00	 mov	 ecx, 1536		; 00000600H
$L100832:
  00070	2b 0c 85 00 10
	00 00		 sub	 ecx, DWORD PTR ?FArcTanTab@MathTable@@3PAHA[eax*4+4096]

; 934  : 	} else {

  00077	eb 28		 jmp	 SHORT $L100094
$L100089:

; 935  : 		if ( -cy < cx )

  00079	3b c6		 cmp	 eax, esi
  0007b	7d 0f		 jge	 SHORT $L100093

; 936  : 			nAngle = ANGLE_90 - FArcTanTab[MAX_ANGLE_HALF + ( MAX_ANGLE_HALF * cx / cy )];

  0007d	8b c6		 mov	 eax, esi
  0007f	c1 e0 0a	 shl	 eax, 10			; 0000000aH
  00082	99		 cdq
  00083	f7 f9		 idiv	 ecx
  00085	b9 00 02 00 00	 mov	 ecx, 512		; 00000200H

; 937  : 		else

  0008a	eb e4		 jmp	 SHORT $L100832
$L100093:

; 938  : 			nAngle = ANGLE_180 + FArcTanTab[MAX_ANGLE_HALF + ( MAX_ANGLE_HALF * cy / cx )];

  0008c	8b c1		 mov	 eax, ecx
  0008e	c1 e0 0a	 shl	 eax, 10			; 0000000aH
  00091	99		 cdq
  00092	f7 fe		 idiv	 esi
  00094	8b 0c 85 00 10
	00 00		 mov	 ecx, DWORD PTR ?FArcTanTab@MathTable@@3PAHA[eax*4+4096]
  0009b	81 c1 00 04 00
	00		 add	 ecx, 1024		; 00000400H
$L100094:

; 939  : 	}
; 940  : 
; 941  : 	// INVERT angle...
; 942  : 	nAngle = MAX_ANGLE - nAngle;  // ? - -;

  000a1	b8 00 08 00 00	 mov	 eax, 2048		; 00000800H
  000a6	2b c1		 sub	 eax, ecx

; 943  : 
; 944  : 	// CLIP angle...
; 945  : 	nAngle = ClipAngle ( nAngle );

  000a8	50		 push	 eax
  000a9	e8 00 00 00 00	 call	 ?ClipAngle@MathTable@@YAHH@Z ; MathTable::ClipAngle
  000ae	59		 pop	 ecx
  000af	5e		 pop	 esi

; 946  : 
; 947  :     return nAngle;
; 948  : }

  000b0	c3		 ret	 0
?GetAngleToTarget@MathTable@@YAHHHHH@Z ENDP		; MathTable::GetAngleToTarget
_TEXT	ENDS
END
