; Listing generated by Microsoft (R) Optimizing Compiler Version 13.10.3077 

	TITLE	\darkeden\Designed_Common\Project\Client\MEffectSpriteTypeTable.cpp
	.386P
include listing.inc
if @Version gt 510
.model FLAT
else
_TEXT	SEGMENT PARA USE32 PUBLIC 'CODE'
_TEXT	ENDS
_DATA	SEGMENT DWORD USE32 PUBLIC 'DATA'
_DATA	ENDS
CONST	SEGMENT DWORD USE32 PUBLIC 'CONST'
CONST	ENDS
_BSS	SEGMENT DWORD USE32 PUBLIC 'BSS'
_BSS	ENDS
$$SYMBOLS	SEGMENT BYTE USE32 'DEBSYM'
$$SYMBOLS	ENDS
$$TYPES	SEGMENT BYTE USE32 'DEBTYP'
$$TYPES	ENDS
_TLS	SEGMENT DWORD USE32 PUBLIC 'TLS'
_TLS	ENDS
;	COMDAT ??_C@_0BN@ODLNCKCA@Data?2?2Info?2?2ClientConfig?4inf?$AA@
CONST	SEGMENT DWORD USE32 PUBLIC 'CONST'
CONST	ENDS
;	COMDAT ??_C@_0BM@DFPLPGPC@Data?2?2Info?2?2GuildMapper?4inf?$AA@
CONST	SEGMENT DWORD USE32 PUBLIC 'CONST'
CONST	ENDS
;	COMDAT ??_C@_0BN@LHODHNBK@Data?2?2Info?2?2GuildVersion?4inf?$AA@
CONST	SEGMENT DWORD USE32 PUBLIC 'CONST'
CONST	ENDS
;	COMDAT ??_C@_0BH@DDPLNCOL@Data?2?2Info?2?2Player?4inf?$AA@
CONST	SEGMENT DWORD USE32 PUBLIC 'CONST'
CONST	ENDS
;	COMDAT ??_C@_0BL@ILLNAPHB@Data?2?2Info?2?2Resolution?4inf?$AA@
CONST	SEGMENT DWORD USE32 PUBLIC 'CONST'
CONST	ENDS
;	COMDAT ??_C@_0CA@HEIGFDLG@Data?2?2Info?2?2SelectedChannel?4inf?$AA@
CONST	SEGMENT DWORD USE32 PUBLIC 'CONST'
CONST	ENDS
;	COMDAT ??_C@_0N@GOPDCEEB@basic_string?$AA@
CONST	SEGMENT DWORD USE32 PUBLIC 'CONST'
CONST	ENDS
rdata$r	SEGMENT DWORD USE32 PUBLIC 'CONST'
rdata$r	ENDS
text$yc	SEGMENT PARA USE32 PUBLIC 'CODE'
text$yc	ENDS
CRT$XCA	SEGMENT DWORD USE32 PUBLIC 'DATA'
CRT$XCA	ENDS
CRT$XCU	SEGMENT DWORD USE32 PUBLIC 'DATA'
CRT$XCU	ENDS
CRT$XCL	SEGMENT DWORD USE32 PUBLIC 'DATA'
CRT$XCL	ENDS
CRT$XCC	SEGMENT DWORD USE32 PUBLIC 'DATA'
CRT$XCC	ENDS
CRT$XCZ	SEGMENT DWORD USE32 PUBLIC 'DATA'
CRT$XCZ	ENDS
text$yd	SEGMENT PARA USE32 PUBLIC 'CODE'
text$yd	ENDS
;	COMDAT ?start@CNFS@@QAE_NPADH@Z
_TEXT	SEGMENT PARA USE32 PUBLIC 'CODE'
_TEXT	ENDS
;	COMDAT ?end@CNFS@@QAEXXZ
_TEXT	SEGMENT PARA USE32 PUBLIC 'CODE'
_TEXT	ENDS
;	COMDAT ?Init@VirtualFileHeader@@QAEXXZ
_TEXT	SEGMENT PARA USE32 PUBLIC 'CODE'
_TEXT	ENDS
;	COMDAT ??1IFileIO@@UAE@XZ
_TEXT	SEGMENT PARA USE32 PUBLIC 'CODE'
_TEXT	ENDS
;	COMDAT ??_GIFileIO@@UAEPAXI@Z
_TEXT	SEGMENT PARA USE32 PUBLIC 'CODE'
_TEXT	ENDS
;	COMDAT ??0iovfs_base@@QAE@XZ
_TEXT	SEGMENT PARA USE32 PUBLIC 'CODE'
_TEXT	ENDS
;	COMDAT ??_Giovfs_base@@UAEPAXI@Z
_TEXT	SEGMENT PARA USE32 PUBLIC 'CODE'
_TEXT	ENDS
;	COMDAT ??1iovfs_base@@UAE@XZ
_TEXT	SEGMENT PARA USE32 PUBLIC 'CODE'
_TEXT	ENDS
;	COMDAT ?Init@iovfs_base@@QAEXXZ
_TEXT	SEGMENT PARA USE32 PUBLIC 'CODE'
_TEXT	ENDS
;	COMDAT ??_Givfstream@@UAEPAXI@Z
_TEXT	SEGMENT PARA USE32 PUBLIC 'CODE'
_TEXT	ENDS
;	COMDAT ??1ivfstream@@UAE@XZ
_TEXT	SEGMENT PARA USE32 PUBLIC 'CODE'
_TEXT	ENDS
;	COMDAT ?open@ivfstream@@UAEXPBDH@Z
_TEXT	SEGMENT PARA USE32 PUBLIC 'CODE'
_TEXT	ENDS
;	COMDAT ?read@ivfstream@@QAEXPADI@Z
_TEXT	SEGMENT PARA USE32 PUBLIC 'CODE'
_TEXT	ENDS
;	COMDAT ??_Govfstream@@UAEPAXI@Z
_TEXT	SEGMENT PARA USE32 PUBLIC 'CODE'
_TEXT	ENDS
;	COMDAT ??1ovfstream@@UAE@XZ
_TEXT	SEGMENT PARA USE32 PUBLIC 'CODE'
_TEXT	ENDS
;	COMDAT ?open@ovfstream@@UAEXPBDH@Z
_TEXT	SEGMENT PARA USE32 PUBLIC 'CODE'
_TEXT	ENDS
;	COMDAT ?SaveToFile@FRAME_TYPE@@QAEXAAV?$basic_ofstream@DV?$char_traits@D@_STL@@@_STL@@@Z
_TEXT	SEGMENT PARA USE32 PUBLIC 'CODE'
_TEXT	ENDS
;	COMDAT ?LoadFromFile@FRAME_TYPE@@QAEXAAVivfstream@@@Z
_TEXT	SEGMENT PARA USE32 PUBLIC 'CODE'
_TEXT	ENDS
;	COMDAT ??0ACTION_FRAMEID_ARRAY@@QAE@XZ
_TEXT	SEGMENT PARA USE32 PUBLIC 'CODE'
_TEXT	ENDS
;	COMDAT ??1ACTION_FRAMEID_ARRAY@@QAE@XZ
_TEXT	SEGMENT PARA USE32 PUBLIC 'CODE'
_TEXT	ENDS
;	COMDAT ??0MActionEffectSpriteTypeTable@@QAE@XZ
_TEXT	SEGMENT PARA USE32 PUBLIC 'CODE'
_TEXT	ENDS
;	COMDAT ??1MActionEffectSpriteTypeTable@@QAE@XZ
_TEXT	SEGMENT PARA USE32 PUBLIC 'CODE'
_TEXT	ENDS
;	COMDAT ??0EFFECTSPRITETYPETABLE_INFO@@QAE@XZ
_TEXT	SEGMENT PARA USE32 PUBLIC 'CODE'
_TEXT	ENDS
;	COMDAT ??1?$map@GGU?$less@G@_STL@@V?$allocator@U?$pair@$$CBGG@_STL@@@2@@_STL@@QAE@XZ
_TEXT	SEGMENT PARA USE32 PUBLIC 'CODE'
_TEXT	ENDS
;	COMDAT ?SaveToFile@EFFECTSPRITETYPETABLE_INFO@@QAEXAAV?$basic_ofstream@DV?$char_traits@D@_STL@@@_STL@@@Z
_TEXT	SEGMENT PARA USE32 PUBLIC 'CODE'
_TEXT	ENDS
;	COMDAT ?LoadFromFile@EFFECTSPRITETYPETABLE_INFO@@QAEXAAVivfstream@@@Z
_TEXT	SEGMENT PARA USE32 PUBLIC 'CODE'
_TEXT	ENDS
;	COMDAT ?eq@?$__char_traits_base@DH@_STL@@SA_NABD0@Z
_TEXT	SEGMENT PARA USE32 PUBLIC 'CODE'
_TEXT	ENDS
;	COMDAT ?not_eof@?$__char_traits_base@DH@_STL@@SAHABH@Z
_TEXT	SEGMENT PARA USE32 PUBLIC 'CODE'
_TEXT	ENDS
;	COMDAT ?eq_int_type@?$__char_traits_base@DH@_STL@@SA_NABH0@Z
_TEXT	SEGMENT PARA USE32 PUBLIC 'CODE'
_TEXT	ENDS
;	COMDAT ?get_allocator@?$basic_string@DV?$char_traits@D@_STL@@V?$allocator@D@2@@_STL@@QBE?AV?$allocator@D@2@XZ
_TEXT	SEGMENT PARA USE32 PUBLIC 'CODE'
_TEXT	ENDS
;	COMDAT ??4?$basic_string@DV?$char_traits@D@_STL@@V?$allocator@D@2@@_STL@@QAEAAV01@PBD@Z
_TEXT	SEGMENT PARA USE32 PUBLIC 'CODE'
_TEXT	ENDS
;	COMDAT ?_M_terminate_string@?$basic_string@DV?$char_traits@D@_STL@@V?$allocator@D@2@@_STL@@AAEXXZ
_TEXT	SEGMENT PARA USE32 PUBLIC 'CODE'
_TEXT	ENDS
;	COMDAT ??0?$_String_base@DV?$allocator@D@_STL@@@_STL@@QAE@ABV?$allocator@D@1@@Z
_TEXT	SEGMENT PARA USE32 PUBLIC 'CODE'
_TEXT	ENDS
;	COMDAT ?allocate@?$allocator@D@_STL@@QAEPADIPBX@Z
_TEXT	SEGMENT PARA USE32 PUBLIC 'CODE'
_TEXT	ENDS
;	COMDAT ??0?$allocator@G@_STL@@QAE@XZ
_TEXT	SEGMENT PARA USE32 PUBLIC 'CODE'
_TEXT	ENDS
;	COMDAT ??0?$fpos@H@_STL@@QAE@J@Z
_TEXT	SEGMENT PARA USE32 PUBLIC 'CODE'
_TEXT	ENDS
;	COMDAT ??B?$fpos@H@_STL@@QBEJXZ
_TEXT	SEGMENT PARA USE32 PUBLIC 'CODE'
_TEXT	ENDS
;	COMDAT ?state@?$fpos@H@_STL@@QBEHXZ
_TEXT	SEGMENT PARA USE32 PUBLIC 'CODE'
_TEXT	ENDS
;	COMDAT ?is_open@?$basic_filebuf@DV?$char_traits@D@_STL@@@_STL@@QBE_NXZ
_TEXT	SEGMENT PARA USE32 PUBLIC 'CODE'
_TEXT	ENDS
;	COMDAT ?_M_seek_return@?$basic_filebuf@DV?$char_traits@D@_STL@@@_STL@@AAE?AV?$fpos@H@2@JH@Z
_TEXT	SEGMENT PARA USE32 PUBLIC 'CODE'
_TEXT	ENDS
;	COMDAT ??0?$_Filebuf_Tmp_Buf@D@_STL@@QAE@H@Z
_TEXT	SEGMENT PARA USE32 PUBLIC 'CODE'
_TEXT	ENDS
;	COMDAT ??1?$_Filebuf_Tmp_Buf@D@_STL@@QAE@XZ
_TEXT	SEGMENT PARA USE32 PUBLIC 'CODE'
_TEXT	ENDS
;	COMDAT ??0?$list@GV?$allocator@G@_STL@@@_STL@@QAE@ABV?$allocator@G@1@@Z
_TEXT	SEGMENT PARA USE32 PUBLIC 'CODE'
_TEXT	ENDS
;	COMDAT ?begin@?$list@GV?$allocator@G@_STL@@@_STL@@QAE?AU?$_List_iterator@GU?$_Nonconst_traits@G@_STL@@@2@XZ
_TEXT	SEGMENT PARA USE32 PUBLIC 'CODE'
_TEXT	ENDS
;	COMDAT ?end@?$list@GV?$allocator@G@_STL@@@_STL@@QAE?AU?$_List_iterator@GU?$_Nonconst_traits@G@_STL@@@2@XZ
_TEXT	SEGMENT PARA USE32 PUBLIC 'CODE'
_TEXT	ENDS
;	COMDAT ?size@?$list@GV?$allocator@G@_STL@@@_STL@@QBEIXZ
_TEXT	SEGMENT PARA USE32 PUBLIC 'CODE'
_TEXT	ENDS
;	COMDAT ?push_back@?$list@GV?$allocator@G@_STL@@@_STL@@QAEXABG@Z
_TEXT	SEGMENT PARA USE32 PUBLIC 'CODE'
_TEXT	ENDS
;	COMDAT ??1?$list@GV?$allocator@G@_STL@@@_STL@@QAE@XZ
_TEXT	SEGMENT PARA USE32 PUBLIC 'CODE'
_TEXT	ENDS
;	COMDAT ??0?$map@GGU?$less@G@_STL@@V?$allocator@U?$pair@$$CBGG@_STL@@@2@@_STL@@QAE@XZ
_TEXT	SEGMENT PARA USE32 PUBLIC 'CODE'
_TEXT	ENDS
;	COMDAT ?begin@?$map@GGU?$less@G@_STL@@V?$allocator@U?$pair@$$CBGG@_STL@@@2@@_STL@@QAE?AU?$_Rb_tree_iterator@U?$pair@$$CBGG@_STL@@U?$_Nonconst_traits@U?$pair@$$CBGG@_STL@@@2@@2@XZ
_TEXT	SEGMENT PARA USE32 PUBLIC 'CODE'
_TEXT	ENDS
;	COMDAT ?end@?$map@GGU?$less@G@_STL@@V?$allocator@U?$pair@$$CBGG@_STL@@@2@@_STL@@QAE?AU?$_Rb_tree_iterator@U?$pair@$$CBGG@_STL@@U?$_Nonconst_traits@U?$pair@$$CBGG@_STL@@@2@@2@XZ
_TEXT	SEGMENT PARA USE32 PUBLIC 'CODE'
_TEXT	ENDS
;	COMDAT ?size@?$map@GGU?$less@G@_STL@@V?$allocator@U?$pair@$$CBGG@_STL@@@2@@_STL@@QBEIXZ
_TEXT	SEGMENT PARA USE32 PUBLIC 'CODE'
_TEXT	ENDS
;	COMDAT ?insert@?$map@GGU?$less@G@_STL@@V?$allocator@U?$pair@$$CBGG@_STL@@@2@@_STL@@QAE?AU?$pair@U?$_Rb_tree_iterator@U?$pair@$$CBGG@_STL@@U?$_Nonconst_traits@U?$pair@$$CBGG@_STL@@@2@@_STL@@_N@2@ABU?$pair@$$CBGG@2@@Z
_TEXT	SEGMENT PARA USE32 PUBLIC 'CODE'
_TEXT	ENDS
;	COMDAT ?clear@?$map@GGU?$less@G@_STL@@V?$allocator@U?$pair@$$CBGG@_STL@@@2@@_STL@@QAEXXZ
_TEXT	SEGMENT PARA USE32 PUBLIC 'CODE'
_TEXT	ENDS
;	COMDAT ??1?$_Rb_tree@GU?$pair@$$CBGG@_STL@@U?$_Select1st@U?$pair@$$CBGG@_STL@@@2@U?$less@G@2@V?$allocator@U?$pair@$$CBGG@_STL@@@2@@_STL@@QAE@XZ
_TEXT	SEGMENT PARA USE32 PUBLIC 'CODE'
_TEXT	ENDS
;	COMDAT ??1?$basic_ofstream@DV?$char_traits@D@_STL@@@_STL@@UAE@XZ
_TEXT	SEGMENT PARA USE32 PUBLIC 'CODE'
_TEXT	ENDS
;	COMDAT ??0?$_List_iterator@GU?$_Const_traits@G@_STL@@@_STL@@QAE@ABU?$_List_iterator@GU?$_Nonconst_traits@G@_STL@@@1@@Z
_TEXT	SEGMENT PARA USE32 PUBLIC 'CODE'
_TEXT	ENDS
;	COMDAT ??D?$_List_iterator@GU?$_Const_traits@G@_STL@@@_STL@@QBEABGXZ
_TEXT	SEGMENT PARA USE32 PUBLIC 'CODE'
_TEXT	ENDS
;	COMDAT ??E?$_List_iterator@GU?$_Const_traits@G@_STL@@@_STL@@QAEAAU01@XZ
_TEXT	SEGMENT PARA USE32 PUBLIC 'CODE'
_TEXT	ENDS
;	COMDAT ??0?$_Rb_tree_iterator@U?$pair@$$CBGG@_STL@@U?$_Const_traits@U?$pair@$$CBGG@_STL@@@2@@_STL@@QAE@ABU?$_Rb_tree_iterator@U?$pair@$$CBGG@_STL@@U?$_Nonconst_traits@U?$pair@$$CBGG@_STL@@@2@@1@@Z
_TEXT	SEGMENT PARA USE32 PUBLIC 'CODE'
_TEXT	ENDS
;	COMDAT ??C?$_Rb_tree_iterator@U?$pair@$$CBGG@_STL@@U?$_Const_traits@U?$pair@$$CBGG@_STL@@@2@@_STL@@QBEPBU?$pair@$$CBGG@1@XZ
_TEXT	SEGMENT PARA USE32 PUBLIC 'CODE'
_TEXT	ENDS
;	COMDAT ??E?$_Rb_tree_iterator@U?$pair@$$CBGG@_STL@@U?$_Const_traits@U?$pair@$$CBGG@_STL@@@2@@_STL@@QAEAAU01@XZ
_TEXT	SEGMENT PARA USE32 PUBLIC 'CODE'
_TEXT	ENDS
;	COMDAT ??0?$pair@$$CBGG@_STL@@QAE@ABG0@Z
_TEXT	SEGMENT PARA USE32 PUBLIC 'CODE'
_TEXT	ENDS
;	COMDAT ??_G?$basic_ofstream@DV?$char_traits@D@_STL@@@_STL@@UAEPAXI@Z
_TEXT	SEGMENT PARA USE32 PUBLIC 'CODE'
_TEXT	ENDS
;	COMDAT ??_D?$basic_ofstream@DV?$char_traits@D@_STL@@@_STL@@QAEXXZ
_TEXT	SEGMENT PARA USE32 PUBLIC 'CODE'
_TEXT	ENDS
;	COMDAT ?_M_terminate_string_aux@?$basic_string@DV?$char_traits@D@_STL@@V?$allocator@D@2@@_STL@@AAEXABU__true_type@2@@Z
_TEXT	SEGMENT PARA USE32 PUBLIC 'CODE'
_TEXT	ENDS
;	COMDAT ?assign@?$basic_string@DV?$char_traits@D@_STL@@V?$allocator@D@2@@_STL@@QAEAAV12@PBD0@Z
_TEXT	SEGMENT PARA USE32 PUBLIC 'CODE'
_TEXT	ENDS
;	COMDAT ??0?$allocator@D@_STL@@QAE@ABV01@@Z
_TEXT	SEGMENT PARA USE32 PUBLIC 'CODE'
_TEXT	ENDS
;	COMDAT ??0?$_STLP_alloc_proxy@PADDV?$allocator@D@_STL@@@_STL@@QAE@ABV?$allocator@D@1@PAD@Z
_TEXT	SEGMENT PARA USE32 PUBLIC 'CODE'
_TEXT	ENDS
;	COMDAT ?state@?$fpos@H@_STL@@QAEXH@Z
_TEXT	SEGMENT PARA USE32 PUBLIC 'CODE'
_TEXT	ENDS
;	COMDAT ?begin@?$list@GV?$allocator@G@_STL@@@_STL@@QBE?AU?$_List_iterator@GU?$_Const_traits@G@_STL@@@2@XZ
_TEXT	SEGMENT PARA USE32 PUBLIC 'CODE'
_TEXT	ENDS
;	COMDAT ?end@?$list@GV?$allocator@G@_STL@@@_STL@@QBE?AU?$_List_iterator@GU?$_Const_traits@G@_STL@@@2@XZ
_TEXT	SEGMENT PARA USE32 PUBLIC 'CODE'
_TEXT	ENDS
;	COMDAT ?insert@?$list@GV?$allocator@G@_STL@@@_STL@@QAE?AU?$_List_iterator@GU?$_Nonconst_traits@G@_STL@@@2@U32@ABG@Z
_TEXT	SEGMENT PARA USE32 PUBLIC 'CODE'
_TEXT	ENDS
;	COMDAT ??0?$_List_base@GV?$allocator@G@_STL@@@_STL@@QAE@ABV?$allocator@G@1@@Z
_TEXT	SEGMENT PARA USE32 PUBLIC 'CODE'
_TEXT	ENDS
;	COMDAT ??1?$_List_base@GV?$allocator@G@_STL@@@_STL@@QAE@XZ
_TEXT	SEGMENT PARA USE32 PUBLIC 'CODE'
_TEXT	ENDS
;	COMDAT ??0?$_Rb_tree@GU?$pair@$$CBGG@_STL@@U?$_Select1st@U?$pair@$$CBGG@_STL@@@2@U?$less@G@2@V?$allocator@U?$pair@$$CBGG@_STL@@@2@@_STL@@QAE@ABU?$less@G@1@ABV?$allocator@U?$pair@$$CBGG@_STL@@@1@@Z
_TEXT	SEGMENT PARA USE32 PUBLIC 'CODE'
_TEXT	ENDS
;	COMDAT ?begin@?$_Rb_tree@GU?$pair@$$CBGG@_STL@@U?$_Select1st@U?$pair@$$CBGG@_STL@@@2@U?$less@G@2@V?$allocator@U?$pair@$$CBGG@_STL@@@2@@_STL@@QAE?AU?$_Rb_tree_iterator@U?$pair@$$CBGG@_STL@@U?$_Nonconst_traits@U?$pair@$$CBGG@_STL@@@2@@2@XZ
_TEXT	SEGMENT PARA USE32 PUBLIC 'CODE'
_TEXT	ENDS
;	COMDAT ?end@?$_Rb_tree@GU?$pair@$$CBGG@_STL@@U?$_Select1st@U?$pair@$$CBGG@_STL@@@2@U?$less@G@2@V?$allocator@U?$pair@$$CBGG@_STL@@@2@@_STL@@QAE?AU?$_Rb_tree_iterator@U?$pair@$$CBGG@_STL@@U?$_Nonconst_traits@U?$pair@$$CBGG@_STL@@@2@@2@XZ
_TEXT	SEGMENT PARA USE32 PUBLIC 'CODE'
_TEXT	ENDS
;	COMDAT ?size@?$_Rb_tree@GU?$pair@$$CBGG@_STL@@U?$_Select1st@U?$pair@$$CBGG@_STL@@@2@U?$less@G@2@V?$allocator@U?$pair@$$CBGG@_STL@@@2@@_STL@@QBEIXZ
_TEXT	SEGMENT PARA USE32 PUBLIC 'CODE'
_TEXT	ENDS
;	COMDAT ?clear@?$_Rb_tree@GU?$pair@$$CBGG@_STL@@U?$_Select1st@U?$pair@$$CBGG@_STL@@@2@U?$less@G@2@V?$allocator@U?$pair@$$CBGG@_STL@@@2@@_STL@@QAEXXZ
_TEXT	SEGMENT PARA USE32 PUBLIC 'CODE'
_TEXT	ENDS
;	COMDAT ??1?$_Rb_tree_base@U?$pair@$$CBGG@_STL@@V?$allocator@U?$pair@$$CBGG@_STL@@@2@@_STL@@QAE@XZ
_TEXT	SEGMENT PARA USE32 PUBLIC 'CODE'
_TEXT	ENDS
;	COMDAT ??0?$allocator@U?$pair@$$CBGG@_STL@@@_STL@@QAE@XZ
_TEXT	SEGMENT PARA USE32 PUBLIC 'CODE'
_TEXT	ENDS
;	COMDAT ??1?$allocator@U?$pair@$$CBGG@_STL@@@_STL@@QAE@XZ
_TEXT	SEGMENT PARA USE32 PUBLIC 'CODE'
_TEXT	ENDS
;	COMDAT ??0?$_List_iterator@GU?$_Nonconst_traits@G@_STL@@@_STL@@QAE@PAU?$_List_node@G@1@@Z
_TEXT	SEGMENT PARA USE32 PUBLIC 'CODE'
_TEXT	ENDS
;	COMDAT ??D?$_Rb_tree_iterator@U?$pair@$$CBGG@_STL@@U?$_Const_traits@U?$pair@$$CBGG@_STL@@@2@@_STL@@QBEABU?$pair@$$CBGG@1@XZ
_TEXT	SEGMENT PARA USE32 PUBLIC 'CODE'
_TEXT	ENDS
;	COMDAT ??1?$_STLP_alloc_proxy@PAU?$_List_node@G@_STL@@U12@V?$allocator@U?$_List_node@G@_STL@@@2@@_STL@@QAE@XZ
_TEXT	SEGMENT PARA USE32 PUBLIC 'CODE'
_TEXT	ENDS
;	COMDAT ??1?$_STLP_alloc_proxy@PAU?$_Rb_tree_node@U?$pair@$$CBGG@_STL@@@_STL@@U12@V?$allocator@U?$_Rb_tree_node@U?$pair@$$CBGG@_STL@@@_STL@@@2@@_STL@@QAE@XZ
_TEXT	SEGMENT PARA USE32 PUBLIC 'CODE'
_TEXT	ENDS
;	COMDAT ?copy@?$__char_traits_base@DH@_STL@@SAPADPADPBDI@Z
_TEXT	SEGMENT PARA USE32 PUBLIC 'CODE'
_TEXT	ENDS
;	COMDAT ?begin@?$basic_string@DV?$char_traits@D@_STL@@V?$allocator@D@2@@_STL@@QAEPADXZ
_TEXT	SEGMENT PARA USE32 PUBLIC 'CODE'
_TEXT	ENDS
;	COMDAT ?end@?$basic_string@DV?$char_traits@D@_STL@@V?$allocator@D@2@@_STL@@QAEPADXZ
_TEXT	SEGMENT PARA USE32 PUBLIC 'CODE'
_TEXT	ENDS
;	COMDAT ?size@?$basic_string@DV?$char_traits@D@_STL@@V?$allocator@D@2@@_STL@@QBEIXZ
_TEXT	SEGMENT PARA USE32 PUBLIC 'CODE'
_TEXT	ENDS
;	COMDAT ?erase@?$basic_string@DV?$char_traits@D@_STL@@V?$allocator@D@2@@_STL@@QAEPADPAD0@Z
_TEXT	SEGMENT PARA USE32 PUBLIC 'CODE'
_TEXT	ENDS
;	COMDAT ?_M_create_node@?$list@GV?$allocator@G@_STL@@@_STL@@IAEPAU?$_List_node@G@2@ABG@Z
_TEXT	SEGMENT PARA USE32 PUBLIC 'CODE'
_TEXT	ENDS
;	COMDAT ??0?$_STLP_alloc_proxy@PAU?$_List_node@G@_STL@@U12@V?$allocator@U?$_List_node@G@_STL@@@2@@_STL@@QAE@ABV?$allocator@U?$_List_node@G@_STL@@@1@PAU?$_List_node@G@1@@Z
_TEXT	SEGMENT PARA USE32 PUBLIC 'CODE'
_TEXT	ENDS
;	COMDAT ??1?$allocator@U?$_List_node@G@_STL@@@_STL@@QAE@XZ
_TEXT	SEGMENT PARA USE32 PUBLIC 'CODE'
_TEXT	ENDS
;	COMDAT ?allocate@?$allocator@U?$_List_node@G@_STL@@@_STL@@QAEPAU?$_List_node@G@2@IPBX@Z
_TEXT	SEGMENT PARA USE32 PUBLIC 'CODE'
_TEXT	ENDS
;	COMDAT ?deallocate@?$allocator@U?$_List_node@G@_STL@@@_STL@@QAEXPAU?$_List_node@G@2@I@Z
_TEXT	SEGMENT PARA USE32 PUBLIC 'CODE'
_TEXT	ENDS
;	COMDAT ?_M_root@?$_Rb_tree@GU?$pair@$$CBGG@_STL@@U?$_Select1st@U?$pair@$$CBGG@_STL@@@2@U?$less@G@2@V?$allocator@U?$pair@$$CBGG@_STL@@@2@@_STL@@IBEAAPAU?$_Rb_tree_node@U?$pair@$$CBGG@_STL@@@2@XZ
_TEXT	SEGMENT PARA USE32 PUBLIC 'CODE'
_TEXT	ENDS
;	COMDAT ?_M_leftmost@?$_Rb_tree@GU?$pair@$$CBGG@_STL@@U?$_Select1st@U?$pair@$$CBGG@_STL@@@2@U?$less@G@2@V?$allocator@U?$pair@$$CBGG@_STL@@@2@@_STL@@IBEAAPAU?$_Rb_tree_node@U?$pair@$$CBGG@_STL@@@2@XZ
_TEXT	SEGMENT PARA USE32 PUBLIC 'CODE'
_TEXT	ENDS
;	COMDAT ?_M_rightmost@?$_Rb_tree@GU?$pair@$$CBGG@_STL@@U?$_Select1st@U?$pair@$$CBGG@_STL@@@2@U?$less@G@2@V?$allocator@U?$pair@$$CBGG@_STL@@@2@@_STL@@IBEAAPAU?$_Rb_tree_node@U?$pair@$$CBGG@_STL@@@2@XZ
_TEXT	SEGMENT PARA USE32 PUBLIC 'CODE'
_TEXT	ENDS
;	COMDAT ?_M_empty_initialize@?$_Rb_tree@GU?$pair@$$CBGG@_STL@@U?$_Select1st@U?$pair@$$CBGG@_STL@@@2@U?$less@G@2@V?$allocator@U?$pair@$$CBGG@_STL@@@2@@_STL@@AAEXXZ
_TEXT	SEGMENT PARA USE32 PUBLIC 'CODE'
_TEXT	ENDS
;	COMDAT ??0?$_Rb_tree_base@U?$pair@$$CBGG@_STL@@V?$allocator@U?$pair@$$CBGG@_STL@@@2@@_STL@@QAE@ABV?$allocator@U?$pair@$$CBGG@_STL@@@1@@Z
_TEXT	SEGMENT PARA USE32 PUBLIC 'CODE'
_TEXT	ENDS
;	COMDAT ??1?$allocator@U?$_Rb_tree_node@U?$pair@$$CBGG@_STL@@@_STL@@@_STL@@QAE@XZ
_TEXT	SEGMENT PARA USE32 PUBLIC 'CODE'
_TEXT	ENDS
;	COMDAT ?deallocate@?$allocator@U?$_Rb_tree_node@U?$pair@$$CBGG@_STL@@@_STL@@@_STL@@QAEXPAU?$_Rb_tree_node@U?$pair@$$CBGG@_STL@@@2@I@Z
_TEXT	SEGMENT PARA USE32 PUBLIC 'CODE'
_TEXT	ENDS
;	COMDAT ??0?$_List_iterator@GU?$_Const_traits@G@_STL@@@_STL@@QAE@PAU?$_List_node@G@1@@Z
_TEXT	SEGMENT PARA USE32 PUBLIC 'CODE'
_TEXT	ENDS
;	COMDAT ??0?$_Rb_tree_iterator@U?$pair@$$CBGG@_STL@@U?$_Nonconst_traits@U?$pair@$$CBGG@_STL@@@2@@_STL@@QAE@PAU?$_Rb_tree_node@U?$pair@$$CBGG@_STL@@@1@@Z
_TEXT	SEGMENT PARA USE32 PUBLIC 'CODE'
_TEXT	ENDS
;	COMDAT ?move@?$__char_traits_base@DH@_STL@@SAPADPADPBDI@Z
_TEXT	SEGMENT PARA USE32 PUBLIC 'CODE'
_TEXT	ENDS
;	COMDAT ??0?$allocator@U?$_List_node@G@_STL@@@_STL@@QAE@ABV01@@Z
_TEXT	SEGMENT PARA USE32 PUBLIC 'CODE'
_TEXT	ENDS
;	COMDAT ?_S_color@?$_Rb_tree@GU?$pair@$$CBGG@_STL@@U?$_Select1st@U?$pair@$$CBGG@_STL@@@2@U?$less@G@2@V?$allocator@U?$pair@$$CBGG@_STL@@@2@@_STL@@KAAA_NPAU?$_Rb_tree_node@U?$pair@$$CBGG@_STL@@@2@@Z
_TEXT	SEGMENT PARA USE32 PUBLIC 'CODE'
_TEXT	ENDS
;	COMDAT ??0?$_STLP_alloc_proxy@PAU?$_Rb_tree_node@U?$pair@$$CBGG@_STL@@@_STL@@U12@V?$allocator@U?$_Rb_tree_node@U?$pair@$$CBGG@_STL@@@_STL@@@2@@_STL@@QAE@ABV?$allocator@U?$_Rb_tree_node@U?$pair@$$CBGG@_STL@@@_STL@@@1@PAU?$_Rb_tree_node@U?$pair@$$CBGG@_STL@@@1@@Z
_TEXT	SEGMENT PARA USE32 PUBLIC 'CODE'
_TEXT	ENDS
;	COMDAT ?allocate@?$allocator@U?$_Rb_tree_node@U?$pair@$$CBGG@_STL@@@_STL@@@_STL@@QAEPAU?$_Rb_tree_node@U?$pair@$$CBGG@_STL@@@2@IPBX@Z
_TEXT	SEGMENT PARA USE32 PUBLIC 'CODE'
_TEXT	ENDS
;	COMDAT ??0?$allocator@U?$_Rb_tree_node@U?$pair@$$CBGG@_STL@@@_STL@@@_STL@@QAE@ABV01@@Z
_TEXT	SEGMENT PARA USE32 PUBLIC 'CODE'
_TEXT	ENDS
;	COMDAT ??$_M_range_initialize@PBD@?$basic_string@DV?$char_traits@D@_STL@@V?$allocator@D@2@@_STL@@AAEXPBD0@Z
_TEXT	SEGMENT PARA USE32 PUBLIC 'CODE'
_TEXT	ENDS
;	COMDAT ??$_M_range_initialize@PAD@?$basic_string@DV?$char_traits@D@_STL@@V?$allocator@D@2@@_STL@@AAEXPAD0@Z
_TEXT	SEGMENT PARA USE32 PUBLIC 'CODE'
_TEXT	ENDS
;	COMDAT ?write@?$basic_ostream@DV?$char_traits@D@_STL@@@_STL@@QAEAAV12@PBDH@Z
_TEXT	SEGMENT PARA USE32 PUBLIC 'CODE'
_TEXT	ENDS
;	COMDAT ?close@?$basic_filebuf@DV?$char_traits@D@_STL@@@_STL@@QAEPAV12@XZ
_TEXT	SEGMENT PARA USE32 PUBLIC 'CODE'
_TEXT	ENDS
;	COMDAT ?_M_exit_input_mode@?$basic_filebuf@DV?$char_traits@D@_STL@@@_STL@@AAEXXZ
_TEXT	SEGMENT PARA USE32 PUBLIC 'CODE'
_TEXT	ENDS
;	COMDAT ?_M_switch_to_output_mode@?$basic_filebuf@DV?$char_traits@D@_STL@@@_STL@@AAE_NXZ
_TEXT	SEGMENT PARA USE32 PUBLIC 'CODE'
_TEXT	ENDS
;	COMDAT ?_M_output_error@?$basic_filebuf@DV?$char_traits@D@_STL@@@_STL@@AAEHXZ
_TEXT	SEGMENT PARA USE32 PUBLIC 'CODE'
_TEXT	ENDS
;	COMDAT ?_M_allocate_buffers@?$basic_filebuf@DV?$char_traits@D@_STL@@@_STL@@AAE_NPADH@Z
_TEXT	SEGMENT PARA USE32 PUBLIC 'CODE'
_TEXT	ENDS
;	COMDAT ?_M_deallocate_buffers@?$basic_filebuf@DV?$char_traits@D@_STL@@@_STL@@AAEXXZ
_TEXT	SEGMENT PARA USE32 PUBLIC 'CODE'
_TEXT	ENDS
;	COMDAT ?_M_seek_init@?$basic_filebuf@DV?$char_traits@D@_STL@@@_STL@@AAE_N_N@Z
_TEXT	SEGMENT PARA USE32 PUBLIC 'CODE'
_TEXT	ENDS
;	COMDAT ?_M_setup_codecvt@?$basic_filebuf@DV?$char_traits@D@_STL@@@_STL@@AAEXABVlocale@2@@Z
_TEXT	SEGMENT PARA USE32 PUBLIC 'CODE'
_TEXT	ENDS
;	COMDAT ??$equal@PADPADU?$_Eq_traits@V?$char_traits@D@_STL@@@_STL@@@_STL@@YA_NPAD00U?$_Eq_traits@V?$char_traits@D@_STL@@@0@@Z
_TEXT	SEGMENT PARA USE32 PUBLIC 'CODE'
_TEXT	ENDS
;	COMDAT ??$_Destroy@V?$basic_string@DV?$char_traits@D@_STL@@V?$allocator@D@2@@_STL@@@_STL@@YAXPAV?$basic_string@DV?$char_traits@D@_STL@@V?$allocator@D@2@@0@@Z
_TEXT	SEGMENT PARA USE32 PUBLIC 'CODE'
_TEXT	ENDS
;	COMDAT ??$_M_assign_dispatch@PAD@?$basic_string@DV?$char_traits@D@_STL@@V?$allocator@D@2@@_STL@@AAEAAV01@PAD0ABU__false_type@1@@Z
_TEXT	SEGMENT PARA USE32 PUBLIC 'CODE'
_TEXT	ENDS
;	COMDAT ?clear@?$_List_base@GV?$allocator@G@_STL@@@_STL@@QAEXXZ
_TEXT	SEGMENT PARA USE32 PUBLIC 'CODE'
_TEXT	ENDS
;	COMDAT ?_M_erase@?$_Rb_tree@GU?$pair@$$CBGG@_STL@@U?$_Select1st@U?$pair@$$CBGG@_STL@@@2@U?$less@G@2@V?$allocator@U?$pair@$$CBGG@_STL@@@2@@_STL@@AAEXPAU?$_Rb_tree_node@U?$pair@$$CBGG@_STL@@@2@@Z
_TEXT	SEGMENT PARA USE32 PUBLIC 'CODE'
_TEXT	ENDS
;	COMDAT ?insert_unique@?$_Rb_tree@GU?$pair@$$CBGG@_STL@@U?$_Select1st@U?$pair@$$CBGG@_STL@@@2@U?$less@G@2@V?$allocator@U?$pair@$$CBGG@_STL@@@2@@_STL@@QAE?AU?$pair@U?$_Rb_tree_iterator@U?$pair@$$CBGG@_STL@@U?$_Nonconst_traits@U?$pair@$$CBGG@_STL@@@2@@_STL@@_N@2@ABU?$pair@$$CBGG@2@@Z
_TEXT	SEGMENT PARA USE32 PUBLIC 'CODE'
_TEXT	ENDS
;	COMDAT ??0?$CTypeTable@VFRAME_TYPE@@@@QAE@XZ
_TEXT	SEGMENT PARA USE32 PUBLIC 'CODE'
_TEXT	ENDS
;	COMDAT ??1?$CTypeTable@VFRAME_TYPE@@@@QAE@XZ
_TEXT	SEGMENT PARA USE32 PUBLIC 'CODE'
_TEXT	ENDS
;	COMDAT ?Init@?$CTypeTable@VFRAME_TYPE@@@@QAEXH@Z
_TEXT	SEGMENT PARA USE32 PUBLIC 'CODE'
_TEXT	ENDS
;	COMDAT ??0?$CTypeTable@VACTION_FRAMEID_ARRAY@@@@QAE@XZ
_TEXT	SEGMENT PARA USE32 PUBLIC 'CODE'
_TEXT	ENDS
;	COMDAT ??1?$CTypeTable@VACTION_FRAMEID_ARRAY@@@@QAE@XZ
_TEXT	SEGMENT PARA USE32 PUBLIC 'CODE'
_TEXT	ENDS
;	COMDAT ??$distance@U?$_List_iterator@GU?$_Const_traits@G@_STL@@@_STL@@@_STL@@YAHABU?$_List_iterator@GU?$_Const_traits@G@_STL@@@0@0@Z
_TEXT	SEGMENT PARA USE32 PUBLIC 'CODE'
_TEXT	ENDS
;	COMDAT ??$append@PBD@?$basic_string@DV?$char_traits@D@_STL@@V?$allocator@D@2@@_STL@@QAEAAV01@PBD0@Z
_TEXT	SEGMENT PARA USE32 PUBLIC 'CODE'
_TEXT	ENDS
;	COMDAT ??$?0G@?$allocator@U?$_List_node@G@_STL@@@_STL@@QAE@ABV?$allocator@G@1@@Z
_TEXT	SEGMENT PARA USE32 PUBLIC 'CODE'
_TEXT	ENDS
;	COMDAT ??$_Construct@GG@_STL@@YAXPAGABG@Z
_TEXT	SEGMENT PARA USE32 PUBLIC 'CODE'
_TEXT	ENDS
;	COMDAT ??$?0U?$pair@$$CBGG@_STL@@@?$allocator@U?$_Rb_tree_node@U?$pair@$$CBGG@_STL@@@_STL@@@_STL@@QAE@ABV?$allocator@U?$pair@$$CBGG@_STL@@@1@@Z
_TEXT	SEGMENT PARA USE32 PUBLIC 'CODE'
_TEXT	ENDS
;	COMDAT ??_G?$basic_string@DV?$char_traits@D@_STL@@V?$allocator@D@2@@_STL@@QAEPAXI@Z
_TEXT	SEGMENT PARA USE32 PUBLIC 'CODE'
_TEXT	ENDS
;	COMDAT ?rdbuf@?$basic_ios@DV?$char_traits@D@_STL@@@_STL@@QBEPAV?$basic_streambuf@DV?$char_traits@D@_STL@@@2@XZ
_TEXT	SEGMENT PARA USE32 PUBLIC 'CODE'
_TEXT	ENDS
;	COMDAT ?setstate@?$basic_ios@DV?$char_traits@D@_STL@@@_STL@@QAEXH@Z
_TEXT	SEGMENT PARA USE32 PUBLIC 'CODE'
_TEXT	ENDS
;	COMDAT ?_M_exit_putback_mode@?$basic_filebuf@DV?$char_traits@D@_STL@@@_STL@@AAEXXZ
_TEXT	SEGMENT PARA USE32 PUBLIC 'CODE'
_TEXT	ENDS
;	COMDAT ??R?$_Eq_traits@V?$char_traits@D@_STL@@@_STL@@QBE_NABD0@Z
_TEXT	SEGMENT PARA USE32 PUBLIC 'CODE'
_TEXT	ENDS
;	COMDAT ?_S_left@?$_Rb_tree@GU?$pair@$$CBGG@_STL@@U?$_Select1st@U?$pair@$$CBGG@_STL@@@2@U?$less@G@2@V?$allocator@U?$pair@$$CBGG@_STL@@@2@@_STL@@KAAAPAU?$_Rb_tree_node@U?$pair@$$CBGG@_STL@@@2@PAU32@@Z
_TEXT	SEGMENT PARA USE32 PUBLIC 'CODE'
_TEXT	ENDS
;	COMDAT ?_S_right@?$_Rb_tree@GU?$pair@$$CBGG@_STL@@U?$_Select1st@U?$pair@$$CBGG@_STL@@@2@U?$less@G@2@V?$allocator@U?$pair@$$CBGG@_STL@@@2@@_STL@@KAAAPAU?$_Rb_tree_node@U?$pair@$$CBGG@_STL@@@2@PAU32@@Z
_TEXT	SEGMENT PARA USE32 PUBLIC 'CODE'
_TEXT	ENDS
;	COMDAT ?_S_key@?$_Rb_tree@GU?$pair@$$CBGG@_STL@@U?$_Select1st@U?$pair@$$CBGG@_STL@@@2@U?$less@G@2@V?$allocator@U?$pair@$$CBGG@_STL@@@2@@_STL@@KAABGPAU?$_Rb_tree_node@U?$pair@$$CBGG@_STL@@@2@@Z
_TEXT	SEGMENT PARA USE32 PUBLIC 'CODE'
_TEXT	ENDS
;	COMDAT ?_S_key@?$_Rb_tree@GU?$pair@$$CBGG@_STL@@U?$_Select1st@U?$pair@$$CBGG@_STL@@@2@U?$less@G@2@V?$allocator@U?$pair@$$CBGG@_STL@@@2@@_STL@@KAABGPAU_Rb_tree_node_base@2@@Z
_TEXT	SEGMENT PARA USE32 PUBLIC 'CODE'
_TEXT	ENDS
;	COMDAT ??R?$less@G@_STL@@QBE_NABG0@Z
_TEXT	SEGMENT PARA USE32 PUBLIC 'CODE'
_TEXT	ENDS
;	COMDAT ??F?$_Rb_tree_iterator@U?$pair@$$CBGG@_STL@@U?$_Nonconst_traits@U?$pair@$$CBGG@_STL@@@2@@_STL@@QAEAAU01@XZ
_TEXT	SEGMENT PARA USE32 PUBLIC 'CODE'
_TEXT	ENDS
;	COMDAT ??0?$pair@U?$_Rb_tree_iterator@U?$pair@$$CBGG@_STL@@U?$_Nonconst_traits@U?$pair@$$CBGG@_STL@@@2@@_STL@@_N@_STL@@QAE@ABU?$_Rb_tree_iterator@U?$pair@$$CBGG@_STL@@U?$_Nonconst_traits@U?$pair@$$CBGG@_STL@@@2@@1@AB_N@Z
_TEXT	SEGMENT PARA USE32 PUBLIC 'CODE'
_TEXT	ENDS
;	COMDAT ??0sentry@?$basic_ostream@DV?$char_traits@D@_STL@@@_STL@@QAE@AAV12@@Z
_TEXT	SEGMENT PARA USE32 PUBLIC 'CODE'
_TEXT	ENDS
;	COMDAT ??1sentry@?$basic_ostream@DV?$char_traits@D@_STL@@@_STL@@QAE@XZ
_TEXT	SEGMENT PARA USE32 PUBLIC 'CODE'
_TEXT	ENDS
;	COMDAT ??Bsentry@?$basic_ostream@DV?$char_traits@D@_STL@@@_STL@@QBE_NXZ
_TEXT	SEGMENT PARA USE32 PUBLIC 'CODE'
_TEXT	ENDS
;	COMDAT ??R?$_Select1st@U?$pair@$$CBGG@_STL@@@_STL@@QBEABGABU?$pair@$$CBGG@1@@Z
_TEXT	SEGMENT PARA USE32 PUBLIC 'CODE'
_TEXT	ENDS
;	COMDAT ?clear@?$basic_ios@DV?$char_traits@D@_STL@@@_STL@@QAEXH@Z
_TEXT	SEGMENT PARA USE32 PUBLIC 'CODE'
_TEXT	ENDS
;	COMDAT ?flush@?$basic_ostream@DV?$char_traits@D@_STL@@@_STL@@QAEAAV12@XZ
_TEXT	SEGMENT PARA USE32 PUBLIC 'CODE'
_TEXT	ENDS
;	COMDAT ?_S_value@?$_Rb_tree@GU?$pair@$$CBGG@_STL@@U?$_Select1st@U?$pair@$$CBGG@_STL@@@2@U?$less@G@2@V?$allocator@U?$pair@$$CBGG@_STL@@@2@@_STL@@KAAAU?$pair@$$CBGG@2@PAU?$_Rb_tree_node@U?$pair@$$CBGG@_STL@@@2@@Z
_TEXT	SEGMENT PARA USE32 PUBLIC 'CODE'
_TEXT	ENDS
;	COMDAT ??0?$_Rb_tree_iterator@U?$pair@$$CBGG@_STL@@U?$_Nonconst_traits@U?$pair@$$CBGG@_STL@@@2@@_STL@@QAE@ABU01@@Z
_TEXT	SEGMENT PARA USE32 PUBLIC 'CODE'
_TEXT	ENDS
;	COMDAT ??$_M_range_initialize@PBD@?$basic_string@DV?$char_traits@D@_STL@@V?$allocator@D@2@@_STL@@AAEXPBD0ABUforward_iterator_tag@1@@Z
_TEXT	SEGMENT PARA USE32 PUBLIC 'CODE'
_TEXT	ENDS
;	COMDAT ??$_M_range_initialize@PAD@?$basic_string@DV?$char_traits@D@_STL@@V?$allocator@D@2@@_STL@@AAEXPAD0ABUforward_iterator_tag@1@@Z
_TEXT	SEGMENT PARA USE32 PUBLIC 'CODE'
_TEXT	ENDS
;	COMDAT ?_M_handle_exception@?$basic_ios@DV?$char_traits@D@_STL@@@_STL@@QAEXH@Z
_TEXT	SEGMENT PARA USE32 PUBLIC 'CODE'
_TEXT	ENDS
;	COMDAT ?_M_unshift@?$basic_filebuf@DV?$char_traits@D@_STL@@@_STL@@AAE_NXZ
_TEXT	SEGMENT PARA USE32 PUBLIC 'CODE'
_TEXT	ENDS
;	COMDAT ?_M_allocate_buffers@?$basic_filebuf@DV?$char_traits@D@_STL@@@_STL@@AAE_NXZ
_TEXT	SEGMENT PARA USE32 PUBLIC 'CODE'
_TEXT	ENDS
;	COMDAT ??$max@H@_STL@@YAABHABH0@Z
_TEXT	SEGMENT PARA USE32 PUBLIC 'CODE'
_TEXT	ENDS
;	COMDAT ??$use_facet@V?$codecvt@DDH@_STL@@@_STL@@YAABV?$codecvt@DDH@0@ABVlocale@0@@Z
_TEXT	SEGMENT PARA USE32 PUBLIC 'CODE'
_TEXT	ENDS
;	COMDAT ??$append@PAD@?$basic_string@DV?$char_traits@D@_STL@@V?$allocator@D@2@@_STL@@QAEAAV01@PAD0@Z
_TEXT	SEGMENT PARA USE32 PUBLIC 'CODE'
_TEXT	ENDS
;	COMDAT ??$_Destroy@G@_STL@@YAXPAG@Z
_TEXT	SEGMENT PARA USE32 PUBLIC 'CODE'
_TEXT	ENDS
;	COMDAT ?_M_insert@?$_Rb_tree@GU?$pair@$$CBGG@_STL@@U?$_Select1st@U?$pair@$$CBGG@_STL@@@2@U?$less@G@2@V?$allocator@U?$pair@$$CBGG@_STL@@@2@@_STL@@AAE?AU?$_Rb_tree_iterator@U?$pair@$$CBGG@_STL@@U?$_Nonconst_traits@U?$pair@$$CBGG@_STL@@@2@@2@PAU_Rb_tree_node_base@2@0ABU?$pair@$$CBGG@2@0@Z
_TEXT	SEGMENT PARA USE32 PUBLIC 'CODE'
_TEXT	ENDS
;	COMDAT ??$_Destroy@U?$pair@$$CBGG@_STL@@@_STL@@YAXPAU?$pair@$$CBGG@0@@Z
_TEXT	SEGMENT PARA USE32 PUBLIC 'CODE'
_TEXT	ENDS
;	COMDAT ?Release@?$CTypeTable@VFRAME_TYPE@@@@QAEXXZ
_TEXT	SEGMENT PARA USE32 PUBLIC 'CODE'
_TEXT	ENDS
;	COMDAT ?Release@?$CTypeTable@VACTION_FRAMEID_ARRAY@@@@QAEXXZ
_TEXT	SEGMENT PARA USE32 PUBLIC 'CODE'
_TEXT	ENDS
;	COMDAT ??$__distance@U?$_List_iterator@GU?$_Const_traits@G@_STL@@@_STL@@@_STL@@YAHABU?$_List_iterator@GU?$_Const_traits@G@_STL@@@0@0ABUinput_iterator_tag@0@@Z
_TEXT	SEGMENT PARA USE32 PUBLIC 'CODE'
_TEXT	ENDS
;	COMDAT ??$_M_append_dispatch@PBD@?$basic_string@DV?$char_traits@D@_STL@@V?$allocator@D@2@@_STL@@AAEAAV01@PBD0ABU__false_type@1@@Z
_TEXT	SEGMENT PARA USE32 PUBLIC 'CODE'
_TEXT	ENDS
;	COMDAT ??$_M_init@DV?$char_traits@D@_STL@@@_STL@@YA_NAAV?$basic_ostream@DV?$char_traits@D@_STL@@@0@@Z
_TEXT	SEGMENT PARA USE32 PUBLIC 'CODE'
_TEXT	ENDS
;	COMDAT ??_EACTION_FRAMEID_ARRAY@@QAEPAXI@Z
_TEXT	SEGMENT PARA USE32 PUBLIC 'CODE'
_TEXT	ENDS
;	COMDAT ?tie@?$basic_ios@DV?$char_traits@D@_STL@@@_STL@@QBEPAV?$basic_ostream@DV?$char_traits@D@_STL@@@2@XZ
_TEXT	SEGMENT PARA USE32 PUBLIC 'CODE'
_TEXT	ENDS
;	COMDAT ?_M_create_node@?$_Rb_tree@GU?$pair@$$CBGG@_STL@@U?$_Select1st@U?$pair@$$CBGG@_STL@@@2@U?$less@G@2@V?$allocator@U?$pair@$$CBGG@_STL@@@2@@_STL@@IAEPAU?$_Rb_tree_node@U?$pair@$$CBGG@_STL@@@2@ABU?$pair@$$CBGG@2@@Z
_TEXT	SEGMENT PARA USE32 PUBLIC 'CODE'
_TEXT	ENDS
;	COMDAT ?_S_parent@?$_Rb_tree@GU?$pair@$$CBGG@_STL@@U?$_Select1st@U?$pair@$$CBGG@_STL@@@2@U?$less@G@2@V?$allocator@U?$pair@$$CBGG@_STL@@@2@@_STL@@KAAAPAU?$_Rb_tree_node@U?$pair@$$CBGG@_STL@@@2@PAU32@@Z
_TEXT	SEGMENT PARA USE32 PUBLIC 'CODE'
_TEXT	ENDS
;	COMDAT ??$distance@PBD@_STL@@YAHABQBD0@Z
_TEXT	SEGMENT PARA USE32 PUBLIC 'CODE'
_TEXT	ENDS
;	COMDAT ?_M_allocate_block@?$_String_base@DV?$allocator@D@_STL@@@_STL@@QAEXI@Z
_TEXT	SEGMENT PARA USE32 PUBLIC 'CODE'
_TEXT	ENDS
;	COMDAT ??$distance@PAD@_STL@@YAHABQAD0@Z
_TEXT	SEGMENT PARA USE32 PUBLIC 'CODE'
_TEXT	ENDS
;	COMDAT ??$uninitialized_copy@PADPAD@_STL@@YAPADPAD00@Z
_TEXT	SEGMENT PARA USE32 PUBLIC 'CODE'
_TEXT	ENDS
;	COMDAT ??$_M_append_dispatch@PAD@?$basic_string@DV?$char_traits@D@_STL@@V?$allocator@D@2@@_STL@@AAEAAV01@PAD0ABU__false_type@1@@Z
_TEXT	SEGMENT PARA USE32 PUBLIC 'CODE'
_TEXT	ENDS
;	COMDAT ??$append@PBD@?$basic_string@DV?$char_traits@D@_STL@@V?$allocator@D@2@@_STL@@AAEAAV01@PBD0ABUforward_iterator_tag@1@@Z
_TEXT	SEGMENT PARA USE32 PUBLIC 'CODE'
_TEXT	ENDS
;	COMDAT ??$_Construct@U?$pair@$$CBGG@_STL@@U12@@_STL@@YAXPAU?$pair@$$CBGG@0@ABU10@@Z
_TEXT	SEGMENT PARA USE32 PUBLIC 'CODE'
_TEXT	ENDS
;	COMDAT ?_M_construct_null@?$basic_string@DV?$char_traits@D@_STL@@V?$allocator@D@2@@_STL@@AAEXPAD@Z
_TEXT	SEGMENT PARA USE32 PUBLIC 'CODE'
_TEXT	ENDS
;	COMDAT ?max_size@?$basic_string@DV?$char_traits@D@_STL@@V?$allocator@D@2@@_STL@@QBEIXZ
_TEXT	SEGMENT PARA USE32 PUBLIC 'CODE'
_TEXT	ENDS
;	COMDAT ?capacity@?$basic_string@DV?$char_traits@D@_STL@@V?$allocator@D@2@@_STL@@QBEIXZ
_TEXT	SEGMENT PARA USE32 PUBLIC 'CODE'
_TEXT	ENDS
;	COMDAT ?max_size@?$_String_base@DV?$allocator@D@_STL@@@_STL@@QBEIXZ
_TEXT	SEGMENT PARA USE32 PUBLIC 'CODE'
_TEXT	ENDS
;	COMDAT ??0?$pair@$$CBGG@_STL@@QAE@ABU01@@Z
_TEXT	SEGMENT PARA USE32 PUBLIC 'CODE'
_TEXT	ENDS
;	COMDAT ?_M_construct_null_aux@?$basic_string@DV?$char_traits@D@_STL@@V?$allocator@D@2@@_STL@@AAEXPADABU__true_type@2@@Z
_TEXT	SEGMENT PARA USE32 PUBLIC 'CODE'
_TEXT	ENDS
;	COMDAT ??$__distance@PBD@_STL@@YAHABQBD0ABUrandom_access_iterator_tag@0@@Z
_TEXT	SEGMENT PARA USE32 PUBLIC 'CODE'
_TEXT	ENDS
;	COMDAT ?_M_throw_length_error@?$_String_base@DV?$allocator@D@_STL@@@_STL@@QBEXXZ
_TEXT	SEGMENT PARA USE32 PUBLIC 'CODE'
_TEXT	ENDS
;	COMDAT ??$__distance@PAD@_STL@@YAHABQAD0ABUrandom_access_iterator_tag@0@@Z
_TEXT	SEGMENT PARA USE32 PUBLIC 'CODE'
_TEXT	ENDS
;	COMDAT ??$__uninitialized_copy@PADPAD@_STL@@YAPADPAD00ABU__true_type@0@@Z
_TEXT	SEGMENT PARA USE32 PUBLIC 'CODE'
_TEXT	ENDS
;	COMDAT ??$append@PAD@?$basic_string@DV?$char_traits@D@_STL@@V?$allocator@D@2@@_STL@@AAEAAV01@PAD0ABUforward_iterator_tag@1@@Z
_TEXT	SEGMENT PARA USE32 PUBLIC 'CODE'
_TEXT	ENDS
;	COMDAT ??$max@I@_STL@@YAABIABI0@Z
_TEXT	SEGMENT PARA USE32 PUBLIC 'CODE'
_TEXT	ENDS
;	COMDAT ?_Ret@?$_BothPtrType@PADPAD@_STL@@SA?AU__true_type@2@XZ
_TEXT	SEGMENT PARA USE32 PUBLIC 'CODE'
_TEXT	ENDS
;	COMDAT ??$__copy_aux@PADPAD@_STL@@YAPADPAD00ABU__true_type@0@@Z
_TEXT	SEGMENT PARA USE32 PUBLIC 'CODE'
_TEXT	ENDS
;	COMDAT ?_Ret@?$_OKToMemCpy@DD@_STL@@SA?AU__true_type@2@XZ
_TEXT	SEGMENT PARA USE32 PUBLIC 'CODE'
_TEXT	ENDS
;	COMDAT ??$_IsOKToMemCpy@DD@_STL@@YA?AU?$_OKToMemCpy@DD@0@PAD0@Z
_TEXT	SEGMENT PARA USE32 PUBLIC 'CODE'
_TEXT	ENDS
;	COMDAT ??$__copy_ptrs@PADPAD@_STL@@YAPADPAD00ABU__true_type@0@@Z
_TEXT	SEGMENT PARA USE32 PUBLIC 'CODE'
_TEXT	ENDS
;	COMDAT ??_R3IFileIO@@8
rdata$r	SEGMENT DWORD USE32 PUBLIC 'CONST'
rdata$r	ENDS
;	COMDAT ??_R3ovfstream@@8
rdata$r	SEGMENT DWORD USE32 PUBLIC 'CONST'
rdata$r	ENDS
;	COMDAT ??_R3?$basic_ofstream@DV?$char_traits@D@_STL@@@_STL@@8
rdata$r	SEGMENT DWORD USE32 PUBLIC 'CONST'
rdata$r	ENDS
;	COMDAT ??_R3ivfstream@@8
rdata$r	SEGMENT DWORD USE32 PUBLIC 'CONST'
rdata$r	ENDS
;	COMDAT ??_R3iovfs_base@@8
rdata$r	SEGMENT DWORD USE32 PUBLIC 'CONST'
rdata$r	ENDS
;	COMDAT ??_R2IFileIO@@8
rdata$r	SEGMENT DWORD USE32 PUBLIC 'CONST'
rdata$r	ENDS
;	COMDAT ??_R2ovfstream@@8
rdata$r	SEGMENT DWORD USE32 PUBLIC 'CONST'
rdata$r	ENDS
;	COMDAT ??_R2?$basic_ofstream@DV?$char_traits@D@_STL@@@_STL@@8
rdata$r	SEGMENT DWORD USE32 PUBLIC 'CONST'
rdata$r	ENDS
;	COMDAT ??_R2ivfstream@@8
rdata$r	SEGMENT DWORD USE32 PUBLIC 'CONST'
rdata$r	ENDS
;	COMDAT ??_R2iovfs_base@@8
rdata$r	SEGMENT DWORD USE32 PUBLIC 'CONST'
rdata$r	ENDS
;	COMDAT ??_R1A@?0A@A@IFileIO@@8
rdata$r	SEGMENT DWORD USE32 PUBLIC 'CONST'
rdata$r	ENDS
;	COMDAT ??_R1A@?0A@A@ovfstream@@8
rdata$r	SEGMENT DWORD USE32 PUBLIC 'CONST'
rdata$r	ENDS
;	COMDAT ??_R1A@A@3A@ios_base@_STL@@8
rdata$r	SEGMENT DWORD USE32 PUBLIC 'CONST'
rdata$r	ENDS
;	COMDAT ??_R0?AVios_base@_STL@@@8
_DATA	SEGMENT DWORD USE32 PUBLIC 'DATA'
_DATA	ENDS
;	COMDAT ??_R1A@A@3BA@?$basic_ios@DV?$char_traits@D@_STL@@@_STL@@8
rdata$r	SEGMENT DWORD USE32 PUBLIC 'CONST'
rdata$r	ENDS
;	COMDAT ??_R0?AV?$basic_ios@DV?$char_traits@D@_STL@@@_STL@@@8
_DATA	SEGMENT DWORD USE32 PUBLIC 'DATA'
_DATA	ENDS
;	COMDAT ??_R1A@?0A@A@?$basic_ostream@DV?$char_traits@D@_STL@@@_STL@@8
rdata$r	SEGMENT DWORD USE32 PUBLIC 'CONST'
rdata$r	ENDS
;	COMDAT ??_R0?AV?$basic_ostream@DV?$char_traits@D@_STL@@@_STL@@@8
_DATA	SEGMENT DWORD USE32 PUBLIC 'DATA'
_DATA	ENDS
;	COMDAT ??_R1A@?0A@A@?$basic_ofstream@DV?$char_traits@D@_STL@@@_STL@@8
rdata$r	SEGMENT DWORD USE32 PUBLIC 'CONST'
rdata$r	ENDS
;	COMDAT ??_R1A@?0A@A@ivfstream@@8
rdata$r	SEGMENT DWORD USE32 PUBLIC 'CONST'
rdata$r	ENDS
;	COMDAT ??_R1A@?0A@A@iovfs_base@@8
rdata$r	SEGMENT DWORD USE32 PUBLIC 'CONST'
rdata$r	ENDS
;	COMDAT ??_R0?AVIFileIO@@@8
_DATA	SEGMENT DWORD USE32 PUBLIC 'DATA'
_DATA	ENDS
;	COMDAT ??_R0?AVovfstream@@@8
_DATA	SEGMENT DWORD USE32 PUBLIC 'DATA'
_DATA	ENDS
;	COMDAT ??_R0?AV?$basic_ofstream@DV?$char_traits@D@_STL@@@_STL@@@8
_DATA	SEGMENT DWORD USE32 PUBLIC 'DATA'
_DATA	ENDS
;	COMDAT ??_R0?AVivfstream@@@8
_DATA	SEGMENT DWORD USE32 PUBLIC 'DATA'
_DATA	ENDS
;	COMDAT ??_R0?AViovfs_base@@@8
_DATA	SEGMENT DWORD USE32 PUBLIC 'DATA'
_DATA	ENDS
;	COMDAT ??_R4IFileIO@@6B@
rdata$r	SEGMENT DWORD USE32 PUBLIC 'CONST'
rdata$r	ENDS
;	COMDAT ??_R4ovfstream@@6B@
rdata$r	SEGMENT DWORD USE32 PUBLIC 'CONST'
rdata$r	ENDS
;	COMDAT ??_R4?$basic_ofstream@DV?$char_traits@D@_STL@@@_STL@@6B@
rdata$r	SEGMENT DWORD USE32 PUBLIC 'CONST'
rdata$r	ENDS
;	COMDAT ??_R4ivfstream@@6B@
rdata$r	SEGMENT DWORD USE32 PUBLIC 'CONST'
rdata$r	ENDS
;	COMDAT ??_R4iovfs_base@@6B@
rdata$r	SEGMENT DWORD USE32 PUBLIC 'CONST'
rdata$r	ENDS
;	COMDAT ?__copy_trivial@_STL@@YAPAXPBX0PAX@Z
_TEXT	SEGMENT PARA USE32 PUBLIC 'CODE'
_TEXT	ENDS
;	COMDAT ??3@YAXPAX0@Z
_TEXT	SEGMENT PARA USE32 PUBLIC 'CODE'
_TEXT	ENDS
;	COMDAT ?_M_deallocate_block@?$_String_base@DV?$allocator@D@_STL@@@_STL@@QAEXXZ
_TEXT	SEGMENT PARA USE32 PUBLIC 'CODE'
_TEXT	ENDS
;	COMDAT ?deallocate@?$allocator@D@_STL@@QAEXPADI@Z
_TEXT	SEGMENT PARA USE32 PUBLIC 'CODE'
_TEXT	ENDS
;	COMDAT ?good@ios_base@_STL@@QBE_NXZ
_TEXT	SEGMENT PARA USE32 PUBLIC 'CODE'
_TEXT	ENDS
;	COMDAT ?__page_size@_Filebuf_base@_STL@@SAIXZ
_TEXT	SEGMENT PARA USE32 PUBLIC 'CODE'
_TEXT	ENDS
;	COMDAT ?_M_write@?$basic_filebuf@DV?$char_traits@D@_STL@@@_STL@@QAE_NPADH@Z
_TEXT	SEGMENT PARA USE32 PUBLIC 'CODE'
_TEXT	ENDS
;	COMDAT ?unshift@?$codecvt@DDH@_STL@@QBE?AW4result@codecvt_base@2@AAHPAD1AAPAD@Z
_TEXT	SEGMENT PARA USE32 PUBLIC 'CODE'
_TEXT	ENDS
;	COMDAT ?_M_get_exception_mask@ios_base@_STL@@IBEHXZ
_TEXT	SEGMENT PARA USE32 PUBLIC 'CODE'
_TEXT	ENDS
;	COMDAT ?_M_setstate_nothrow@ios_base@_STL@@IAEXH@Z
_TEXT	SEGMENT PARA USE32 PUBLIC 'CODE'
_TEXT	ENDS
;	COMDAT ?uninitialized_copy@_STL@@YAPADPBD0PAD@Z
_TEXT	SEGMENT PARA USE32 PUBLIC 'CODE'
_TEXT	ENDS
;	COMDAT ?pubsync@?$basic_streambuf@DV?$char_traits@D@_STL@@@_STL@@QAEHXZ
_TEXT	SEGMENT PARA USE32 PUBLIC 'CODE'
_TEXT	ENDS
;	COMDAT ?_M_check_exception_mask@ios_base@_STL@@IAEXXZ
_TEXT	SEGMENT PARA USE32 PUBLIC 'CODE'
_TEXT	ENDS
;	COMDAT ?_M_clear_nothrow@ios_base@_STL@@IAEXH@Z
_TEXT	SEGMENT PARA USE32 PUBLIC 'CODE'
_TEXT	ENDS
;	COMDAT ?flags@ios_base@_STL@@QBEHXZ
_TEXT	SEGMENT PARA USE32 PUBLIC 'CODE'
_TEXT	ENDS
;	COMDAT ?rdstate@ios_base@_STL@@QBEHXZ
_TEXT	SEGMENT PARA USE32 PUBLIC 'CODE'
_TEXT	ENDS
;	COMDAT ??2@YAPAXIPAX@Z
_TEXT	SEGMENT PARA USE32 PUBLIC 'CODE'
_TEXT	ENDS
;	COMDAT ??8_Rb_tree_base_iterator@_STL@@QBE_NABU01@@Z
_TEXT	SEGMENT PARA USE32 PUBLIC 'CODE'
_TEXT	ENDS
;	COMDAT ?assign@?$char_traits@D@_STL@@SAXAADABD@Z
_TEXT	SEGMENT PARA USE32 PUBLIC 'CODE'
_TEXT	ENDS
;	COMDAT ?always_noconv@?$codecvt@DDH@_STL@@QBE_NXZ
_TEXT	SEGMENT PARA USE32 PUBLIC 'CODE'
_TEXT	ENDS
;	COMDAT ?encoding@?$codecvt@DDH@_STL@@QBEHXZ
_TEXT	SEGMENT PARA USE32 PUBLIC 'CODE'
_TEXT	ENDS
;	COMDAT ?max_length@?$codecvt@DDH@_STL@@QBEHXZ
_TEXT	SEGMENT PARA USE32 PUBLIC 'CODE'
_TEXT	ENDS
;	COMDAT ?__o_mode@_Filebuf_base@_STL@@QBEHXZ
_TEXT	SEGMENT PARA USE32 PUBLIC 'CODE'
_TEXT	ENDS
;	COMDAT ?sputn@?$basic_streambuf@DV?$char_traits@D@_STL@@@_STL@@QAEHPBDH@Z
_TEXT	SEGMENT PARA USE32 PUBLIC 'CODE'
_TEXT	ENDS
;	COMDAT ?deallocate@?$__node_alloc@$00$0A@@_STL@@SAXPAXI@Z
_TEXT	SEGMENT PARA USE32 PUBLIC 'CODE'
_TEXT	ENDS
;	COMDAT ?__stl_delete@_STL@@YAXPAX@Z
_TEXT	SEGMENT PARA USE32 PUBLIC 'CODE'
_TEXT	ENDS
;	COMDAT ?_Destroy@_STL@@YAXPAD0@Z
_TEXT	SEGMENT PARA USE32 PUBLIC 'CODE'
_TEXT	ENDS
;	COMDAT ??1?$basic_ios@DV?$char_traits@D@_STL@@@_STL@@UAE@XZ
_TEXT	SEGMENT PARA USE32 PUBLIC 'CODE'
_TEXT	ENDS
;	COMDAT ??_7?$basic_ios@DV?$char_traits@D@_STL@@@_STL@@6B@
CONST	SEGMENT DWORD USE32 PUBLIC 'CONST'
CONST	ENDS
;	COMDAT ??_R4?$basic_ios@DV?$char_traits@D@_STL@@@_STL@@6B@
rdata$r	SEGMENT DWORD USE32 PUBLIC 'CONST'
rdata$r	ENDS
;	COMDAT ??_R3?$basic_ios@DV?$char_traits@D@_STL@@@_STL@@8
rdata$r	SEGMENT DWORD USE32 PUBLIC 'CONST'
rdata$r	ENDS
;	COMDAT ??_R2?$basic_ios@DV?$char_traits@D@_STL@@@_STL@@8
rdata$r	SEGMENT DWORD USE32 PUBLIC 'CONST'
rdata$r	ENDS
;	COMDAT ??_R1A@?0A@A@?$basic_ios@DV?$char_traits@D@_STL@@@_STL@@8
rdata$r	SEGMENT DWORD USE32 PUBLIC 'CONST'
rdata$r	ENDS
;	COMDAT ??_R1A@?0A@A@ios_base@_STL@@8
rdata$r	SEGMENT DWORD USE32 PUBLIC 'CONST'
rdata$r	ENDS
;	COMDAT ??_G?$basic_ios@DV?$char_traits@D@_STL@@@_STL@@UAEPAXI@Z
_TEXT	SEGMENT PARA USE32 PUBLIC 'CODE'
_TEXT	ENDS
;	COMDAT ?_M_incr@_List_iterator_base@_STL@@QAEXXZ
_TEXT	SEGMENT PARA USE32 PUBLIC 'CODE'
_TEXT	ENDS
;	COMDAT ??0_List_iterator_base@_STL@@QAE@PAU_List_node_base@1@@Z
_TEXT	SEGMENT PARA USE32 PUBLIC 'CODE'
_TEXT	ENDS
;	COMDAT ??1?$basic_filebuf@DV?$char_traits@D@_STL@@@_STL@@UAE@XZ
_TEXT	SEGMENT PARA USE32 PUBLIC 'CODE'
_TEXT	ENDS
;	COMDAT ??_7?$basic_filebuf@DV?$char_traits@D@_STL@@@_STL@@6B@
CONST	SEGMENT DWORD USE32 PUBLIC 'CONST'
CONST	ENDS
;	COMDAT ??_R4?$basic_filebuf@DV?$char_traits@D@_STL@@@_STL@@6B@
rdata$r	SEGMENT DWORD USE32 PUBLIC 'CONST'
rdata$r	ENDS
;	COMDAT ??_R0?AV?$basic_filebuf@DV?$char_traits@D@_STL@@@_STL@@@8
_DATA	SEGMENT DWORD USE32 PUBLIC 'DATA'
_DATA	ENDS
;	COMDAT ??_R3?$basic_filebuf@DV?$char_traits@D@_STL@@@_STL@@8
rdata$r	SEGMENT DWORD USE32 PUBLIC 'CONST'
rdata$r	ENDS
;	COMDAT ??_R2?$basic_filebuf@DV?$char_traits@D@_STL@@@_STL@@8
rdata$r	SEGMENT DWORD USE32 PUBLIC 'CONST'
rdata$r	ENDS
;	COMDAT ??_R1A@?0A@A@?$basic_filebuf@DV?$char_traits@D@_STL@@@_STL@@8
rdata$r	SEGMENT DWORD USE32 PUBLIC 'CONST'
rdata$r	ENDS
;	COMDAT ??_R1A@?0A@A@?$basic_streambuf@DV?$char_traits@D@_STL@@@_STL@@8
rdata$r	SEGMENT DWORD USE32 PUBLIC 'CONST'
rdata$r	ENDS
;	COMDAT ??_R0?AV?$basic_streambuf@DV?$char_traits@D@_STL@@@_STL@@@8
_DATA	SEGMENT DWORD USE32 PUBLIC 'DATA'
_DATA	ENDS
;	COMDAT ??_G?$basic_filebuf@DV?$char_traits@D@_STL@@@_STL@@UAEPAXI@Z
_TEXT	SEGMENT PARA USE32 PUBLIC 'CODE'
_TEXT	ENDS
;	COMDAT ?setbuf@?$basic_filebuf@DV?$char_traits@D@_STL@@@_STL@@MAEPAV?$basic_streambuf@DV?$char_traits@D@_STL@@@2@PADH@Z
_TEXT	SEGMENT PARA USE32 PUBLIC 'CODE'
_TEXT	ENDS
;	COMDAT ?seekoff@?$basic_filebuf@DV?$char_traits@D@_STL@@@_STL@@MAE?AV?$fpos@H@2@JHH@Z
_TEXT	SEGMENT PARA USE32 PUBLIC 'CODE'
_TEXT	ENDS
;	COMDAT ?_M_in_binary_mode@_Filebuf_base@_STL@@QBE_NXZ
_TEXT	SEGMENT PARA USE32 PUBLIC 'CODE'
_TEXT	ENDS
;	COMDAT ?length@?$codecvt@DDH@_STL@@QBEHABHPBD1I@Z
_TEXT	SEGMENT PARA USE32 PUBLIC 'CODE'
_TEXT	ENDS
;	COMDAT ?in@?$codecvt@DDH@_STL@@QBE?AW4result@codecvt_base@2@AAHPBD1AAPBDPAD3AAPAD@Z
_TEXT	SEGMENT PARA USE32 PUBLIC 'CODE'
_TEXT	ENDS
;	COMDAT ?eback@?$basic_streambuf@DV?$char_traits@D@_STL@@@_STL@@IBEPADXZ
_TEXT	SEGMENT PARA USE32 PUBLIC 'CODE'
_TEXT	ENDS
;	COMDAT ?_FILE_I_begin@_STL@@YAPADPBU_iobuf@@@Z
_TEXT	SEGMENT PARA USE32 PUBLIC 'CODE'
_TEXT	ENDS
;	COMDAT ?gptr@?$basic_streambuf@DV?$char_traits@D@_STL@@@_STL@@IBEPADXZ
_TEXT	SEGMENT PARA USE32 PUBLIC 'CODE'
_TEXT	ENDS
;	COMDAT ?_FILE_I_next@_STL@@YAPADPBU_iobuf@@@Z
_TEXT	SEGMENT PARA USE32 PUBLIC 'CODE'
_TEXT	ENDS
;	COMDAT ?_M_get_offset@_Filebuf_base@_STL@@QAEJPAD0@Z
_TEXT	SEGMENT PARA USE32 PUBLIC 'CODE'
_TEXT	ENDS
;	COMDAT ??$count@PADD@_STL@@YAHPAD0ABD@Z
_TEXT	SEGMENT PARA USE32 PUBLIC 'CODE'
_TEXT	ENDS
;	COMDAT ?seekpos@?$basic_filebuf@DV?$char_traits@D@_STL@@@_STL@@MAE?AV?$fpos@H@2@V32@H@Z
_TEXT	SEGMENT PARA USE32 PUBLIC 'CODE'
_TEXT	ENDS
;	COMDAT ?sync@?$basic_filebuf@DV?$char_traits@D@_STL@@@_STL@@MAEHXZ
_TEXT	SEGMENT PARA USE32 PUBLIC 'CODE'
_TEXT	ENDS
;	COMDAT ?showmanyc@?$basic_filebuf@DV?$char_traits@D@_STL@@@_STL@@MAEHXZ
_TEXT	SEGMENT PARA USE32 PUBLIC 'CODE'
_TEXT	ENDS
;	COMDAT ?egptr@?$basic_streambuf@DV?$char_traits@D@_STL@@@_STL@@IBEPADXZ
_TEXT	SEGMENT PARA USE32 PUBLIC 'CODE'
_TEXT	ENDS
;	COMDAT ?_FILE_I_end@_STL@@YAPADPBU_iobuf@@@Z
_TEXT	SEGMENT PARA USE32 PUBLIC 'CODE'
_TEXT	ENDS
;	COMDAT ?underflow@?$basic_filebuf@DV?$char_traits@D@_STL@@@_STL@@MAEHXZ
_TEXT	SEGMENT PARA USE32 PUBLIC 'CODE'
_TEXT	ENDS
;	COMDAT ?pbackfail@?$basic_filebuf@DV?$char_traits@D@_STL@@@_STL@@MAEHH@Z
_TEXT	SEGMENT PARA USE32 PUBLIC 'CODE'
_TEXT	ENDS
;	COMDAT ?gbump@?$basic_streambuf@DV?$char_traits@D@_STL@@@_STL@@IAEXH@Z
_TEXT	SEGMENT PARA USE32 PUBLIC 'CODE'
_TEXT	ENDS
;	COMDAT ?_FILE_I_bump@_STL@@YAXPAU_iobuf@@H@Z
_TEXT	SEGMENT PARA USE32 PUBLIC 'CODE'
_TEXT	ENDS
;	COMDAT ?to_int_type@?$char_traits@D@_STL@@SAHABD@Z
_TEXT	SEGMENT PARA USE32 PUBLIC 'CODE'
_TEXT	ENDS
;	COMDAT ?to_char_type@?$char_traits@D@_STL@@SADABH@Z
_TEXT	SEGMENT PARA USE32 PUBLIC 'CODE'
_TEXT	ENDS
;	COMDAT ?overflow@?$basic_filebuf@DV?$char_traits@D@_STL@@@_STL@@MAEHH@Z
_TEXT	SEGMENT PARA USE32 PUBLIC 'CODE'
_TEXT	ENDS
;	COMDAT ?pptr@?$basic_streambuf@DV?$char_traits@D@_STL@@@_STL@@IBEPADXZ
_TEXT	SEGMENT PARA USE32 PUBLIC 'CODE'
_TEXT	ENDS
;	COMDAT ?_FILE_O_next@_STL@@YAPADPBU_iobuf@@@Z
_TEXT	SEGMENT PARA USE32 PUBLIC 'CODE'
_TEXT	ENDS
;	COMDAT ?out@?$codecvt@DDH@_STL@@QBE?AW4result@codecvt_base@2@AAHPBD1AAPBDPAD3AAPAD@Z
_TEXT	SEGMENT PARA USE32 PUBLIC 'CODE'
_TEXT	ENDS
;	COMDAT ?_M_doit@?$_Noconv_output@V?$char_traits@D@_STL@@@_STL@@SA_NPAV?$basic_filebuf@DV?$char_traits@D@_STL@@@2@PAD1@Z
_TEXT	SEGMENT PARA USE32 PUBLIC 'CODE'
_TEXT	ENDS
;	COMDAT ?imbue@?$basic_filebuf@DV?$char_traits@D@_STL@@@_STL@@MAEXABVlocale@2@@Z
_TEXT	SEGMENT PARA USE32 PUBLIC 'CODE'
_TEXT	ENDS
;	COMDAT ??1?$basic_ostream@DV?$char_traits@D@_STL@@@_STL@@UAE@XZ
_TEXT	SEGMENT PARA USE32 PUBLIC 'CODE'
_TEXT	ENDS
;	COMDAT ??_7?$basic_ostream@DV?$char_traits@D@_STL@@@_STL@@6B@
CONST	SEGMENT DWORD USE32 PUBLIC 'CONST'
CONST	ENDS
;	COMDAT ??_R4?$basic_ostream@DV?$char_traits@D@_STL@@@_STL@@6B@
rdata$r	SEGMENT DWORD USE32 PUBLIC 'CONST'
rdata$r	ENDS
;	COMDAT ??_R3?$basic_ostream@DV?$char_traits@D@_STL@@@_STL@@8
rdata$r	SEGMENT DWORD USE32 PUBLIC 'CONST'
rdata$r	ENDS
;	COMDAT ??_R2?$basic_ostream@DV?$char_traits@D@_STL@@@_STL@@8
rdata$r	SEGMENT DWORD USE32 PUBLIC 'CONST'
rdata$r	ENDS
;	COMDAT ??_G?$basic_ostream@DV?$char_traits@D@_STL@@@_STL@@UAEPAXI@Z
_TEXT	SEGMENT PARA USE32 PUBLIC 'CODE'
_TEXT	ENDS
;	COMDAT ??_D?$basic_ostream@DV?$char_traits@D@_STL@@@_STL@@QAEXXZ
_TEXT	SEGMENT PARA USE32 PUBLIC 'CODE'
_TEXT	ENDS
;	COMDAT ??_7?$basic_ofstream@DV?$char_traits@D@_STL@@@_STL@@6B@
CONST	SEGMENT DWORD USE32 PUBLIC 'CONST'
CONST	ENDS
;	COMDAT ?setp@?$basic_streambuf@DV?$char_traits@D@_STL@@@_STL@@IAEXPAD0@Z
_TEXT	SEGMENT PARA USE32 PUBLIC 'CODE'
_TEXT	ENDS
;	COMDAT ?_FILE_O_set@_STL@@YAXPAU_iobuf@@PAD11@Z
_TEXT	SEGMENT PARA USE32 PUBLIC 'CODE'
_TEXT	ENDS
;	COMDAT ?_FILE_I_set@_STL@@YAXPAU_iobuf@@PAD11@Z
_TEXT	SEGMENT PARA USE32 PUBLIC 'CODE'
_TEXT	ENDS
;	COMDAT ?setg@?$basic_streambuf@DV?$char_traits@D@_STL@@@_STL@@IAEXPAD00@Z
_TEXT	SEGMENT PARA USE32 PUBLIC 'CODE'
_TEXT	ENDS
;	COMDAT ?__is_open@_Filebuf_base@_STL@@QBE_NXZ
_TEXT	SEGMENT PARA USE32 PUBLIC 'CODE'
_TEXT	ENDS
;	COMDAT ?allocate@?$__node_alloc@$00$0A@@_STL@@SAPAXI@Z
_TEXT	SEGMENT PARA USE32 PUBLIC 'CODE'
_TEXT	ENDS
;	COMDAT ?__stl_new@_STL@@YAPAXI@Z
_TEXT	SEGMENT PARA USE32 PUBLIC 'CODE'
_TEXT	ENDS
;	COMDAT ??1?$_STLP_alloc_proxy@PADDV?$allocator@D@_STL@@@_STL@@QAE@XZ
_TEXT	SEGMENT PARA USE32 PUBLIC 'CODE'
_TEXT	ENDS
;	COMDAT ?length@?$char_traits@D@_STL@@SAIPBD@Z
_TEXT	SEGMENT PARA USE32 PUBLIC 'CODE'
_TEXT	ENDS
;	COMDAT ??1?$allocator@D@_STL@@QAE@XZ
_TEXT	SEGMENT PARA USE32 PUBLIC 'CODE'
_TEXT	ENDS
;	COMDAT ?eof@?$__char_traits_base@DH@_STL@@SAHXZ
_TEXT	SEGMENT PARA USE32 PUBLIC 'CODE'
_TEXT	ENDS
;	COMDAT ??9_Rb_tree_base_iterator@_STL@@QBE_NABU01@@Z
_TEXT	SEGMENT PARA USE32 PUBLIC 'CODE'
_TEXT	ENDS
;	COMDAT ??9_List_iterator_base@_STL@@QBE_NABU01@@Z
_TEXT	SEGMENT PARA USE32 PUBLIC 'CODE'
_TEXT	ENDS
;	COMDAT ??1?$allocator@G@_STL@@QAE@XZ
_TEXT	SEGMENT PARA USE32 PUBLIC 'CODE'
_TEXT	ENDS
;	COMDAT ??_7ovfstream@@6B@
CONST	SEGMENT DWORD USE32 PUBLIC 'CONST'
CONST	ENDS
;	COMDAT ??_7ivfstream@@6B@
CONST	SEGMENT DWORD USE32 PUBLIC 'CONST'
CONST	ENDS
;	COMDAT ??0?$basic_string@DV?$char_traits@D@_STL@@V?$allocator@D@2@@_STL@@QAE@XZ
_TEXT	SEGMENT PARA USE32 PUBLIC 'CODE'
_TEXT	ENDS
;	COMDAT ??0?$allocator@D@_STL@@QAE@XZ
_TEXT	SEGMENT PARA USE32 PUBLIC 'CODE'
_TEXT	ENDS
;	COMDAT ??1?$_String_base@DV?$allocator@D@_STL@@@_STL@@QAE@XZ
_TEXT	SEGMENT PARA USE32 PUBLIC 'CODE'
_TEXT	ENDS
;	COMDAT ??1?$basic_string@DV?$char_traits@D@_STL@@V?$allocator@D@2@@_STL@@QAE@XZ
_TEXT	SEGMENT PARA USE32 PUBLIC 'CODE'
_TEXT	ENDS
;	COMDAT ??_7iovfs_base@@6B@
CONST	SEGMENT DWORD USE32 PUBLIC 'CONST'
CONST	ENDS
;	COMDAT ??_7IFileIO@@6B@
CONST	SEGMENT DWORD USE32 PUBLIC 'CONST'
CONST	ENDS
sxdata	SEGMENT DWORD USE32 'SXDATA'
sxdata	ENDS
FLAT	GROUP _DATA, CONST, _BSS
	ASSUME	CS: FLAT, DS: FLAT, SS: FLAT
endif

INCLUDELIB LIBCMT
INCLUDELIB OLDNAMES

PUBLIC	?g_pEffectSpriteTypeTable@@3PAV?$CTypeTable@VEFFECTSPRITETYPETABLE_INFO@@@@A ; g_pEffectSpriteTypeTable
PUBLIC	?g_pActionEffectSpriteTypeTable@@3PAVMActionEffectSpriteTypeTable@@A ; g_pActionEffectSpriteTypeTable
_BSS	SEGMENT
?g_pEffectSpriteTypeTable@@3PAV?$CTypeTable@VEFFECTSPRITETYPETABLE_INFO@@@@A DD 01H DUP (?) ; g_pEffectSpriteTypeTable
?g_pActionEffectSpriteTypeTable@@3PAVMActionEffectSpriteTypeTable@@A DD 01H DUP (?) ; g_pActionEffectSpriteTypeTable
_BSS	ENDS
PUBLIC	??2@YAPAXIPAX@Z					; operator new
; Function compile flags: /Ogsy
; File c:\program files\microsoft visual studio .net 2003\vc7\include\new
;	COMDAT ??2@YAPAXIPAX@Z
_TEXT	SEGMENT
___formal$ = 8						; size = 4
__Where$ = 12						; size = 4
??2@YAPAXIPAX@Z PROC NEAR				; operator new, COMDAT

; 64   : 	return (_Where);

  00000	8b 44 24 08	 mov	 eax, DWORD PTR __Where$[esp-4]

; 65   : 	}

  00004	c3		 ret	 0
??2@YAPAXIPAX@Z ENDP					; operator new
_TEXT	ENDS
PUBLIC	??3@YAXPAX0@Z					; operator delete
; Function compile flags: /Ogsy
;	COMDAT ??3@YAXPAX0@Z
_TEXT	SEGMENT
___formal$ = 8						; size = 4
___formal$ = 12						; size = 4
??3@YAXPAX0@Z PROC NEAR					; operator delete, COMDAT

; 69   : 	}

  00000	c3		 ret	 0
??3@YAXPAX0@Z ENDP					; operator delete
_TEXT	ENDS
PUBLIC	?__stl_new@_STL@@YAPAXI@Z			; _STL::__stl_new
EXTRN	??2@YAPAXI@Z:NEAR				; operator new
; Function compile flags: /Ogsy
; File c:\stlport-4.6.1\stlport\stl\_new.h
;	COMDAT ?__stl_new@_STL@@YAPAXI@Z
_TEXT	SEGMENT
___n$ = 8						; size = 4
?__stl_new@_STL@@YAPAXI@Z PROC NEAR			; _STL::__stl_new, COMDAT

; 86   : inline void*  _STLP_CALL __stl_new(size_t __n)   { _STLP_CHECK_NULL_ALLOC(::operator _STLP_NEW(__n)); }

  00000	e9 00 00 00 00	 jmp	 ??2@YAPAXI@Z		; operator new
?__stl_new@_STL@@YAPAXI@Z ENDP				; _STL::__stl_new
_TEXT	ENDS
PUBLIC	?__stl_delete@_STL@@YAXPAX@Z			; _STL::__stl_delete
EXTRN	??3@YAXPAX@Z:NEAR				; operator delete
; Function compile flags: /Ogsy
;	COMDAT ?__stl_delete@_STL@@YAXPAX@Z
_TEXT	SEGMENT
___p$ = 8						; size = 4
?__stl_delete@_STL@@YAXPAX@Z PROC NEAR			; _STL::__stl_delete, COMDAT

; 87   : inline void   _STLP_CALL __stl_delete(void* __p) { ::operator delete(__p); }

  00000	e9 00 00 00 00	 jmp	 ??3@YAXPAX@Z		; operator delete
?__stl_delete@_STL@@YAXPAX@Z ENDP			; _STL::__stl_delete
_TEXT	ENDS
PUBLIC	?read@ivfstream@@QAEXPADI@Z			; ivfstream::read
; Function compile flags: /Ogsy
; File c:\darkeden\designed_common\project\client\virtualfilesystem\vfstream.inl
;	COMDAT ?read@ivfstream@@QAEXPADI@Z
_TEXT	SEGMENT
_buf$ = 8						; size = 4
_len$ = 12						; size = 4
?read@ivfstream@@QAEXPADI@Z PROC NEAR			; ivfstream::read, COMDAT
; _this$ = ecx

; 81   : 	if(m_pFileIO) m_pFileIO->read(buf, len);

  00000	83 79 04 00	 cmp	 DWORD PTR [ecx+4], 0
  00004	74 08		 je	 SHORT $L100700
  00006	8b 49 04	 mov	 ecx, DWORD PTR [ecx+4]
  00009	8b 01		 mov	 eax, DWORD PTR [ecx]
  0000b	ff 60 10	 jmp	 DWORD PTR [eax+16]
$L100700:

; 82   : }

  0000e	c2 08 00	 ret	 8
?read@ivfstream@@QAEXPADI@Z ENDP			; ivfstream::read
_TEXT	ENDS
PUBLIC	?LoadFromFile@FRAME_TYPE@@QAEXAAVivfstream@@@Z	; FRAME_TYPE::LoadFromFile
; Function compile flags: /Ogsy
; File c:\darkeden\designed_common\project\client\meffectspritetypetable.cpp
;	COMDAT ?LoadFromFile@FRAME_TYPE@@QAEXAAVivfstream@@@Z
_TEXT	SEGMENT
_file$ = 8						; size = 4
?LoadFromFile@FRAME_TYPE@@QAEXAAVivfstream@@@Z PROC NEAR ; FRAME_TYPE::LoadFromFile, COMDAT
; _this$ = ecx

; 28   : 	file.read((char*)&FrameID, SIZE_FRAMEID);

  00000	8b 44 24 04	 mov	 eax, DWORD PTR _file$[esp-4]
  00004	83 78 04 00	 cmp	 DWORD PTR [eax+4], 0
  00008	74 0d		 je	 SHORT $L103517
  0000a	8b 40 04	 mov	 eax, DWORD PTR [eax+4]
  0000d	8b 10		 mov	 edx, DWORD PTR [eax]
  0000f	6a 02		 push	 2
  00011	51		 push	 ecx
  00012	8b c8		 mov	 ecx, eax
  00014	ff 52 10	 call	 DWORD PTR [edx+16]
$L103517:

; 29   : }

  00017	c2 04 00	 ret	 4
?LoadFromFile@FRAME_TYPE@@QAEXAAVivfstream@@@Z ENDP	; FRAME_TYPE::LoadFromFile
_TEXT	ENDS
PUBLIC	??0?$allocator@G@_STL@@QAE@XZ			; _STL::allocator<unsigned short>::allocator<unsigned short>
; Function compile flags: /Ogsy
; File c:\stlport-4.6.1\stlport\stl\_alloc.h
;	COMDAT ??0?$allocator@G@_STL@@QAE@XZ
_TEXT	SEGMENT
??0?$allocator@G@_STL@@QAE@XZ PROC NEAR			; _STL::allocator<unsigned short>::allocator<unsigned short>, COMDAT
; _this$ = ecx

; 345  :   allocator() _STLP_NOTHROW {}

  00000	8b c1		 mov	 eax, ecx
  00002	c3		 ret	 0
??0?$allocator@G@_STL@@QAE@XZ ENDP			; _STL::allocator<unsigned short>::allocator<unsigned short>
_TEXT	ENDS
PUBLIC	??D?$_List_iterator@GU?$_Const_traits@G@_STL@@@_STL@@QBEABGXZ ; _STL::_List_iterator<unsigned short,_STL::_Const_traits<unsigned short> >::operator*
; Function compile flags: /Ogsy
; File c:\stlport-4.6.1\stlport\stl\_list.h
;	COMDAT ??D?$_List_iterator@GU?$_Const_traits@G@_STL@@@_STL@@QBEABGXZ
_TEXT	SEGMENT
??D?$_List_iterator@GU?$_Const_traits@G@_STL@@@_STL@@QBEABGXZ PROC NEAR ; _STL::_List_iterator<unsigned short,_STL::_Const_traits<unsigned short> >::operator*, COMDAT
; _this$ = ecx

; 130  :   reference operator*() const { return ((_Node*)_M_node)->_M_data; }

  00000	8b 01		 mov	 eax, DWORD PTR [ecx]
  00002	83 c0 08	 add	 eax, 8
  00005	c3		 ret	 0
??D?$_List_iterator@GU?$_Const_traits@G@_STL@@@_STL@@QBEABGXZ ENDP ; _STL::_List_iterator<unsigned short,_STL::_Const_traits<unsigned short> >::operator*
_TEXT	ENDS
PUBLIC	??0?$_Rb_tree_iterator@U?$pair@$$CBGG@_STL@@U?$_Const_traits@U?$pair@$$CBGG@_STL@@@2@@_STL@@QAE@ABU?$_Rb_tree_iterator@U?$pair@$$CBGG@_STL@@U?$_Nonconst_traits@U?$pair@$$CBGG@_STL@@@2@@1@@Z ; _STL::_Rb_tree_iterator<_STL::pair<unsigned short const ,unsigned short>,_STL::_Const_traits<_STL::pair<unsigned short const ,unsigned short> > >::_Rb_tree_iterator<_STL::pair<unsigned short const ,unsigned short>,_STL::_Const_traits<_STL::pair<unsigned short const ,unsigned short> > >
; Function compile flags: /Ogsy
; File c:\stlport-4.6.1\stlport\stl\_tree.h
;	COMDAT ??0?$_Rb_tree_iterator@U?$pair@$$CBGG@_STL@@U?$_Const_traits@U?$pair@$$CBGG@_STL@@@2@@_STL@@QAE@ABU?$_Rb_tree_iterator@U?$pair@$$CBGG@_STL@@U?$_Nonconst_traits@U?$pair@$$CBGG@_STL@@@2@@1@@Z
_TEXT	SEGMENT
___it$ = 8						; size = 4
??0?$_Rb_tree_iterator@U?$pair@$$CBGG@_STL@@U?$_Const_traits@U?$pair@$$CBGG@_STL@@@2@@_STL@@QAE@ABU?$_Rb_tree_iterator@U?$pair@$$CBGG@_STL@@U?$_Nonconst_traits@U?$pair@$$CBGG@_STL@@@2@@1@@Z PROC NEAR ; _STL::_Rb_tree_iterator<_STL::pair<unsigned short const ,unsigned short>,_STL::_Const_traits<_STL::pair<unsigned short const ,unsigned short> > >::_Rb_tree_iterator<_STL::pair<unsigned short const ,unsigned short>,_STL::_Const_traits<_STL::pair<unsigned short const ,unsigned short> > >, COMDAT
; _this$ = ecx

; 165  :   _Rb_tree_iterator(const _Rb_tree_iterator<_Value, 

  00000	8b c1		 mov	 eax, ecx
  00002	8b 4c 24 04	 mov	 ecx, DWORD PTR ___it$[esp-4]
  00006	8b 09		 mov	 ecx, DWORD PTR [ecx]
  00008	89 08		 mov	 DWORD PTR [eax], ecx

; 166  :                     _Nonconst_traits<_Value> >& __it) { _M_node = __it._M_node; }

  0000a	c2 04 00	 ret	 4
??0?$_Rb_tree_iterator@U?$pair@$$CBGG@_STL@@U?$_Const_traits@U?$pair@$$CBGG@_STL@@@2@@_STL@@QAE@ABU?$_Rb_tree_iterator@U?$pair@$$CBGG@_STL@@U?$_Nonconst_traits@U?$pair@$$CBGG@_STL@@@2@@1@@Z ENDP ; _STL::_Rb_tree_iterator<_STL::pair<unsigned short const ,unsigned short>,_STL::_Const_traits<_STL::pair<unsigned short const ,unsigned short> > >::_Rb_tree_iterator<_STL::pair<unsigned short const ,unsigned short>,_STL::_Const_traits<_STL::pair<unsigned short const ,unsigned short> > >
_TEXT	ENDS
PUBLIC	??E?$_Rb_tree_iterator@U?$pair@$$CBGG@_STL@@U?$_Const_traits@U?$pair@$$CBGG@_STL@@@2@@_STL@@QAEAAU01@XZ ; _STL::_Rb_tree_iterator<_STL::pair<unsigned short const ,unsigned short>,_STL::_Const_traits<_STL::pair<unsigned short const ,unsigned short> > >::operator++
EXTRN	?_M_increment@?$_Rb_global@_N@_STL@@SAPAU_Rb_tree_node_base@2@PAU32@@Z:NEAR ; _STL::_Rb_global<bool>::_M_increment
; Function compile flags: /Ogsy
;	COMDAT ??E?$_Rb_tree_iterator@U?$pair@$$CBGG@_STL@@U?$_Const_traits@U?$pair@$$CBGG@_STL@@@2@@_STL@@QAEAAU01@XZ
_TEXT	SEGMENT
??E?$_Rb_tree_iterator@U?$pair@$$CBGG@_STL@@U?$_Const_traits@U?$pair@$$CBGG@_STL@@@2@@_STL@@QAEAAU01@XZ PROC NEAR ; _STL::_Rb_tree_iterator<_STL::pair<unsigned short const ,unsigned short>,_STL::_Const_traits<_STL::pair<unsigned short const ,unsigned short> > >::operator++, COMDAT
; _this$ = ecx

; 174  :   _Self& operator++() { _M_node = _Rb_global_inst::_M_increment(_M_node); return *this; }

  00000	56		 push	 esi
  00001	8b f1		 mov	 esi, ecx
  00003	ff 36		 push	 DWORD PTR [esi]
  00005	e8 00 00 00 00	 call	 ?_M_increment@?$_Rb_global@_N@_STL@@SAPAU_Rb_tree_node_base@2@PAU32@@Z ; _STL::_Rb_global<bool>::_M_increment
  0000a	89 06		 mov	 DWORD PTR [esi], eax
  0000c	59		 pop	 ecx
  0000d	8b c6		 mov	 eax, esi
  0000f	5e		 pop	 esi
  00010	c3		 ret	 0
??E?$_Rb_tree_iterator@U?$pair@$$CBGG@_STL@@U?$_Const_traits@U?$pair@$$CBGG@_STL@@@2@@_STL@@QAEAAU01@XZ ENDP ; _STL::_Rb_tree_iterator<_STL::pair<unsigned short const ,unsigned short>,_STL::_Const_traits<_STL::pair<unsigned short const ,unsigned short> > >::operator++
_TEXT	ENDS
PUBLIC	??0?$pair@$$CBGG@_STL@@QAE@ABG0@Z		; _STL::pair<unsigned short const ,unsigned short>::pair<unsigned short const ,unsigned short>
; Function compile flags: /Ogsy
; File c:\stlport-4.6.1\stlport\stl\_pair.h
;	COMDAT ??0?$pair@$$CBGG@_STL@@QAE@ABG0@Z
_TEXT	SEGMENT
___a$ = 8						; size = 4
___b$ = 12						; size = 4
??0?$pair@$$CBGG@_STL@@QAE@ABG0@Z PROC NEAR		; _STL::pair<unsigned short const ,unsigned short>::pair<unsigned short const ,unsigned short>, COMDAT
; _this$ = ecx

; 48   :   pair(const _T1& __a, const _T2& __b) : first(__a), second(__b) {}

  00000	8b c1		 mov	 eax, ecx
  00002	8b 4c 24 04	 mov	 ecx, DWORD PTR ___a$[esp-4]
  00006	66 8b 09	 mov	 cx, WORD PTR [ecx]
  00009	66 89 08	 mov	 WORD PTR [eax], cx
  0000c	8b 4c 24 08	 mov	 ecx, DWORD PTR ___b$[esp-4]
  00010	66 8b 09	 mov	 cx, WORD PTR [ecx]
  00013	66 89 48 02	 mov	 WORD PTR [eax+2], cx
  00017	c2 08 00	 ret	 8
??0?$pair@$$CBGG@_STL@@QAE@ABG0@Z ENDP			; _STL::pair<unsigned short const ,unsigned short>::pair<unsigned short const ,unsigned short>
_TEXT	ENDS
PUBLIC	?size@?$_Rb_tree@GU?$pair@$$CBGG@_STL@@U?$_Select1st@U?$pair@$$CBGG@_STL@@@2@U?$less@G@2@V?$allocator@U?$pair@$$CBGG@_STL@@@2@@_STL@@QBEIXZ ; _STL::_Rb_tree<unsigned short,_STL::pair<unsigned short const ,unsigned short>,_STL::_Select1st<_STL::pair<unsigned short const ,unsigned short> >,_STL::less<unsigned short>,_STL::allocator<_STL::pair<unsigned short const ,unsigned short> > >::size
; Function compile flags: /Ogsy
; File c:\stlport-4.6.1\stlport\stl\_tree.h
;	COMDAT ?size@?$_Rb_tree@GU?$pair@$$CBGG@_STL@@U?$_Select1st@U?$pair@$$CBGG@_STL@@@2@U?$less@G@2@V?$allocator@U?$pair@$$CBGG@_STL@@@2@@_STL@@QBEIXZ
_TEXT	SEGMENT
?size@?$_Rb_tree@GU?$pair@$$CBGG@_STL@@U?$_Select1st@U?$pair@$$CBGG@_STL@@@2@U?$less@G@2@V?$allocator@U?$pair@$$CBGG@_STL@@@2@@_STL@@QBEIXZ PROC NEAR ; _STL::_Rb_tree<unsigned short,_STL::pair<unsigned short const ,unsigned short>,_STL::_Select1st<_STL::pair<unsigned short const ,unsigned short> >,_STL::less<unsigned short>,_STL::allocator<_STL::pair<unsigned short const ,unsigned short> > >::size, COMDAT
; _this$ = ecx

; 371  :   size_type size() const { return _M_node_count; }

  00000	8b 41 04	 mov	 eax, DWORD PTR [ecx+4]
  00003	c3		 ret	 0
?size@?$_Rb_tree@GU?$pair@$$CBGG@_STL@@U?$_Select1st@U?$pair@$$CBGG@_STL@@@2@U?$less@G@2@V?$allocator@U?$pair@$$CBGG@_STL@@@2@@_STL@@QBEIXZ ENDP ; _STL::_Rb_tree<unsigned short,_STL::pair<unsigned short const ,unsigned short>,_STL::_Select1st<_STL::pair<unsigned short const ,unsigned short> >,_STL::less<unsigned short>,_STL::allocator<_STL::pair<unsigned short const ,unsigned short> > >::size
_TEXT	ENDS
PUBLIC	??0?$allocator@U?$pair@$$CBGG@_STL@@@_STL@@QAE@XZ ; _STL::allocator<_STL::pair<unsigned short const ,unsigned short> >::allocator<_STL::pair<unsigned short const ,unsigned short> >
; Function compile flags: /Ogsy
; File c:\stlport-4.6.1\stlport\stl\_alloc.h
;	COMDAT ??0?$allocator@U?$pair@$$CBGG@_STL@@@_STL@@QAE@XZ
_TEXT	SEGMENT
??0?$allocator@U?$pair@$$CBGG@_STL@@@_STL@@QAE@XZ PROC NEAR ; _STL::allocator<_STL::pair<unsigned short const ,unsigned short> >::allocator<_STL::pair<unsigned short const ,unsigned short> >, COMDAT
; _this$ = ecx

; 345  :   allocator() _STLP_NOTHROW {}

  00000	8b c1		 mov	 eax, ecx
  00002	c3		 ret	 0
??0?$allocator@U?$pair@$$CBGG@_STL@@@_STL@@QAE@XZ ENDP	; _STL::allocator<_STL::pair<unsigned short const ,unsigned short> >::allocator<_STL::pair<unsigned short const ,unsigned short> >
_TEXT	ENDS
PUBLIC	??1?$allocator@U?$pair@$$CBGG@_STL@@@_STL@@QAE@XZ ; _STL::allocator<_STL::pair<unsigned short const ,unsigned short> >::~allocator<_STL::pair<unsigned short const ,unsigned short> >
; Function compile flags: /Ogsy
;	COMDAT ??1?$allocator@U?$pair@$$CBGG@_STL@@@_STL@@QAE@XZ
_TEXT	SEGMENT
??1?$allocator@U?$pair@$$CBGG@_STL@@@_STL@@QAE@XZ PROC NEAR ; _STL::allocator<_STL::pair<unsigned short const ,unsigned short> >::~allocator<_STL::pair<unsigned short const ,unsigned short> >, COMDAT
; _this$ = ecx

; 350  :   ~allocator() _STLP_NOTHROW {}

  00000	c3		 ret	 0
??1?$allocator@U?$pair@$$CBGG@_STL@@@_STL@@QAE@XZ ENDP	; _STL::allocator<_STL::pair<unsigned short const ,unsigned short> >::~allocator<_STL::pair<unsigned short const ,unsigned short> >
_TEXT	ENDS
PUBLIC	??D?$_Rb_tree_iterator@U?$pair@$$CBGG@_STL@@U?$_Const_traits@U?$pair@$$CBGG@_STL@@@2@@_STL@@QBEABU?$pair@$$CBGG@1@XZ ; _STL::_Rb_tree_iterator<_STL::pair<unsigned short const ,unsigned short>,_STL::_Const_traits<_STL::pair<unsigned short const ,unsigned short> > >::operator*
; Function compile flags: /Ogsy
; File c:\stlport-4.6.1\stlport\stl\_tree.h
;	COMDAT ??D?$_Rb_tree_iterator@U?$pair@$$CBGG@_STL@@U?$_Const_traits@U?$pair@$$CBGG@_STL@@@2@@_STL@@QBEABU?$pair@$$CBGG@1@XZ
_TEXT	SEGMENT
??D?$_Rb_tree_iterator@U?$pair@$$CBGG@_STL@@U?$_Const_traits@U?$pair@$$CBGG@_STL@@@2@@_STL@@QBEABU?$pair@$$CBGG@1@XZ PROC NEAR ; _STL::_Rb_tree_iterator<_STL::pair<unsigned short const ,unsigned short>,_STL::_Const_traits<_STL::pair<unsigned short const ,unsigned short> > >::operator*, COMDAT
; _this$ = ecx

; 169  :     return _Link_type(_M_node)->_M_value_field; 

  00000	8b 01		 mov	 eax, DWORD PTR [ecx]
  00002	83 c0 10	 add	 eax, 16			; 00000010H

; 170  :   }

  00005	c3		 ret	 0
??D?$_Rb_tree_iterator@U?$pair@$$CBGG@_STL@@U?$_Const_traits@U?$pair@$$CBGG@_STL@@@2@@_STL@@QBEABU?$pair@$$CBGG@1@XZ ENDP ; _STL::_Rb_tree_iterator<_STL::pair<unsigned short const ,unsigned short>,_STL::_Const_traits<_STL::pair<unsigned short const ,unsigned short> > >::operator*
_TEXT	ENDS
PUBLIC	?flags@ios_base@_STL@@QBEHXZ			; _STL::ios_base::flags
; Function compile flags: /Ogsy
; File c:\stlport-4.6.1\stlport\stl\_ios_base.h
;	COMDAT ?flags@ios_base@_STL@@QBEHXZ
_TEXT	SEGMENT
?flags@ios_base@_STL@@QBEHXZ PROC NEAR			; _STL::ios_base::flags, COMDAT
; _this$ = ecx

; 115  :   fmtflags flags() const { return _M_fmtflags; }

  00000	8b 41 04	 mov	 eax, DWORD PTR [ecx+4]
  00003	c3		 ret	 0
?flags@ios_base@_STL@@QBEHXZ ENDP			; _STL::ios_base::flags
_TEXT	ENDS
PUBLIC	??1?$allocator@U?$_List_node@G@_STL@@@_STL@@QAE@XZ ; _STL::allocator<_STL::_List_node<unsigned short> >::~allocator<_STL::_List_node<unsigned short> >
; Function compile flags: /Ogsy
; File c:\stlport-4.6.1\stlport\stl\_alloc.h
;	COMDAT ??1?$allocator@U?$_List_node@G@_STL@@@_STL@@QAE@XZ
_TEXT	SEGMENT
??1?$allocator@U?$_List_node@G@_STL@@@_STL@@QAE@XZ PROC NEAR ; _STL::allocator<_STL::_List_node<unsigned short> >::~allocator<_STL::_List_node<unsigned short> >, COMDAT
; _this$ = ecx

; 350  :   ~allocator() _STLP_NOTHROW {}

  00000	c3		 ret	 0
??1?$allocator@U?$_List_node@G@_STL@@@_STL@@QAE@XZ ENDP	; _STL::allocator<_STL::_List_node<unsigned short> >::~allocator<_STL::_List_node<unsigned short> >
_TEXT	ENDS
PUBLIC	?_M_root@?$_Rb_tree@GU?$pair@$$CBGG@_STL@@U?$_Select1st@U?$pair@$$CBGG@_STL@@@2@U?$less@G@2@V?$allocator@U?$pair@$$CBGG@_STL@@@2@@_STL@@IBEAAPAU?$_Rb_tree_node@U?$pair@$$CBGG@_STL@@@2@XZ ; _STL::_Rb_tree<unsigned short,_STL::pair<unsigned short const ,unsigned short>,_STL::_Select1st<_STL::pair<unsigned short const ,unsigned short> >,_STL::less<unsigned short>,_STL::allocator<_STL::pair<unsigned short const ,unsigned short> > >::_M_root
; Function compile flags: /Ogsy
; File c:\stlport-4.6.1\stlport\stl\_tree.h
;	COMDAT ?_M_root@?$_Rb_tree@GU?$pair@$$CBGG@_STL@@U?$_Select1st@U?$pair@$$CBGG@_STL@@@2@U?$less@G@2@V?$allocator@U?$pair@$$CBGG@_STL@@@2@@_STL@@IBEAAPAU?$_Rb_tree_node@U?$pair@$$CBGG@_STL@@@2@XZ
_TEXT	SEGMENT
?_M_root@?$_Rb_tree@GU?$pair@$$CBGG@_STL@@U?$_Select1st@U?$pair@$$CBGG@_STL@@@2@U?$less@G@2@V?$allocator@U?$pair@$$CBGG@_STL@@@2@@_STL@@IBEAAPAU?$_Rb_tree_node@U?$pair@$$CBGG@_STL@@@2@XZ PROC NEAR ; _STL::_Rb_tree<unsigned short,_STL::pair<unsigned short const ,unsigned short>,_STL::_Select1st<_STL::pair<unsigned short const ,unsigned short> >,_STL::less<unsigned short>,_STL::allocator<_STL::pair<unsigned short const ,unsigned short> > >::_M_root, COMDAT
; _this$ = ecx

; 265  :     { return (_Link_type&) this->_M_header._M_data->_M_parent; }

  00000	8b 01		 mov	 eax, DWORD PTR [ecx]
  00002	83 c0 04	 add	 eax, 4
  00005	c3		 ret	 0
?_M_root@?$_Rb_tree@GU?$pair@$$CBGG@_STL@@U?$_Select1st@U?$pair@$$CBGG@_STL@@@2@U?$less@G@2@V?$allocator@U?$pair@$$CBGG@_STL@@@2@@_STL@@IBEAAPAU?$_Rb_tree_node@U?$pair@$$CBGG@_STL@@@2@XZ ENDP ; _STL::_Rb_tree<unsigned short,_STL::pair<unsigned short const ,unsigned short>,_STL::_Select1st<_STL::pair<unsigned short const ,unsigned short> >,_STL::less<unsigned short>,_STL::allocator<_STL::pair<unsigned short const ,unsigned short> > >::_M_root
_TEXT	ENDS
PUBLIC	?_M_leftmost@?$_Rb_tree@GU?$pair@$$CBGG@_STL@@U?$_Select1st@U?$pair@$$CBGG@_STL@@@2@U?$less@G@2@V?$allocator@U?$pair@$$CBGG@_STL@@@2@@_STL@@IBEAAPAU?$_Rb_tree_node@U?$pair@$$CBGG@_STL@@@2@XZ ; _STL::_Rb_tree<unsigned short,_STL::pair<unsigned short const ,unsigned short>,_STL::_Select1st<_STL::pair<unsigned short const ,unsigned short> >,_STL::less<unsigned short>,_STL::allocator<_STL::pair<unsigned short const ,unsigned short> > >::_M_leftmost
; Function compile flags: /Ogsy
;	COMDAT ?_M_leftmost@?$_Rb_tree@GU?$pair@$$CBGG@_STL@@U?$_Select1st@U?$pair@$$CBGG@_STL@@@2@U?$less@G@2@V?$allocator@U?$pair@$$CBGG@_STL@@@2@@_STL@@IBEAAPAU?$_Rb_tree_node@U?$pair@$$CBGG@_STL@@@2@XZ
_TEXT	SEGMENT
?_M_leftmost@?$_Rb_tree@GU?$pair@$$CBGG@_STL@@U?$_Select1st@U?$pair@$$CBGG@_STL@@@2@U?$less@G@2@V?$allocator@U?$pair@$$CBGG@_STL@@@2@@_STL@@IBEAAPAU?$_Rb_tree_node@U?$pair@$$CBGG@_STL@@@2@XZ PROC NEAR ; _STL::_Rb_tree<unsigned short,_STL::pair<unsigned short const ,unsigned short>,_STL::_Select1st<_STL::pair<unsigned short const ,unsigned short> >,_STL::less<unsigned short>,_STL::allocator<_STL::pair<unsigned short const ,unsigned short> > >::_M_leftmost, COMDAT
; _this$ = ecx

; 267  :     { return (_Link_type&) this->_M_header._M_data->_M_left; }

  00000	8b 01		 mov	 eax, DWORD PTR [ecx]
  00002	83 c0 08	 add	 eax, 8
  00005	c3		 ret	 0
?_M_leftmost@?$_Rb_tree@GU?$pair@$$CBGG@_STL@@U?$_Select1st@U?$pair@$$CBGG@_STL@@@2@U?$less@G@2@V?$allocator@U?$pair@$$CBGG@_STL@@@2@@_STL@@IBEAAPAU?$_Rb_tree_node@U?$pair@$$CBGG@_STL@@@2@XZ ENDP ; _STL::_Rb_tree<unsigned short,_STL::pair<unsigned short const ,unsigned short>,_STL::_Select1st<_STL::pair<unsigned short const ,unsigned short> >,_STL::less<unsigned short>,_STL::allocator<_STL::pair<unsigned short const ,unsigned short> > >::_M_leftmost
_TEXT	ENDS
PUBLIC	?_M_rightmost@?$_Rb_tree@GU?$pair@$$CBGG@_STL@@U?$_Select1st@U?$pair@$$CBGG@_STL@@@2@U?$less@G@2@V?$allocator@U?$pair@$$CBGG@_STL@@@2@@_STL@@IBEAAPAU?$_Rb_tree_node@U?$pair@$$CBGG@_STL@@@2@XZ ; _STL::_Rb_tree<unsigned short,_STL::pair<unsigned short const ,unsigned short>,_STL::_Select1st<_STL::pair<unsigned short const ,unsigned short> >,_STL::less<unsigned short>,_STL::allocator<_STL::pair<unsigned short const ,unsigned short> > >::_M_rightmost
; Function compile flags: /Ogsy
;	COMDAT ?_M_rightmost@?$_Rb_tree@GU?$pair@$$CBGG@_STL@@U?$_Select1st@U?$pair@$$CBGG@_STL@@@2@U?$less@G@2@V?$allocator@U?$pair@$$CBGG@_STL@@@2@@_STL@@IBEAAPAU?$_Rb_tree_node@U?$pair@$$CBGG@_STL@@@2@XZ
_TEXT	SEGMENT
?_M_rightmost@?$_Rb_tree@GU?$pair@$$CBGG@_STL@@U?$_Select1st@U?$pair@$$CBGG@_STL@@@2@U?$less@G@2@V?$allocator@U?$pair@$$CBGG@_STL@@@2@@_STL@@IBEAAPAU?$_Rb_tree_node@U?$pair@$$CBGG@_STL@@@2@XZ PROC NEAR ; _STL::_Rb_tree<unsigned short,_STL::pair<unsigned short const ,unsigned short>,_STL::_Select1st<_STL::pair<unsigned short const ,unsigned short> >,_STL::less<unsigned short>,_STL::allocator<_STL::pair<unsigned short const ,unsigned short> > >::_M_rightmost, COMDAT
; _this$ = ecx

; 269  :     { return (_Link_type&) this->_M_header._M_data->_M_right; }

  00000	8b 01		 mov	 eax, DWORD PTR [ecx]
  00002	83 c0 0c	 add	 eax, 12			; 0000000cH
  00005	c3		 ret	 0
?_M_rightmost@?$_Rb_tree@GU?$pair@$$CBGG@_STL@@U?$_Select1st@U?$pair@$$CBGG@_STL@@@2@U?$less@G@2@V?$allocator@U?$pair@$$CBGG@_STL@@@2@@_STL@@IBEAAPAU?$_Rb_tree_node@U?$pair@$$CBGG@_STL@@@2@XZ ENDP ; _STL::_Rb_tree<unsigned short,_STL::pair<unsigned short const ,unsigned short>,_STL::_Select1st<_STL::pair<unsigned short const ,unsigned short> >,_STL::less<unsigned short>,_STL::allocator<_STL::pair<unsigned short const ,unsigned short> > >::_M_rightmost
_TEXT	ENDS
PUBLIC	?rdstate@ios_base@_STL@@QBEHXZ			; _STL::ios_base::rdstate
; Function compile flags: /Ogsy
; File c:\stlport-4.6.1\stlport\stl\_ios_base.h
;	COMDAT ?rdstate@ios_base@_STL@@QBEHXZ
_TEXT	SEGMENT
?rdstate@ios_base@_STL@@QBEHXZ PROC NEAR		; _STL::ios_base::rdstate, COMDAT
; _this$ = ecx

; 178  :   iostate rdstate() const { return _M_iostate; }

  00000	8b 41 08	 mov	 eax, DWORD PTR [ecx+8]
  00003	c3		 ret	 0
?rdstate@ios_base@_STL@@QBEHXZ ENDP			; _STL::ios_base::rdstate
_TEXT	ENDS
PUBLIC	?good@ios_base@_STL@@QBE_NXZ			; _STL::ios_base::good
; Function compile flags: /Ogsy
;	COMDAT ?good@ios_base@_STL@@QBE_NXZ
_TEXT	SEGMENT
?good@ios_base@_STL@@QBE_NXZ PROC NEAR			; _STL::ios_base::good, COMDAT
; _this$ = ecx

; 180  :   bool good() const { return _M_iostate == 0; }

  00000	33 c0		 xor	 eax, eax
  00002	39 41 08	 cmp	 DWORD PTR [ecx+8], eax
  00005	0f 94 c0	 sete	 al
  00008	c3		 ret	 0
?good@ios_base@_STL@@QBE_NXZ ENDP			; _STL::ios_base::good
_TEXT	ENDS
PUBLIC	??1?$allocator@U?$_Rb_tree_node@U?$pair@$$CBGG@_STL@@@_STL@@@_STL@@QAE@XZ ; _STL::allocator<_STL::_Rb_tree_node<_STL::pair<unsigned short const ,unsigned short> > >::~allocator<_STL::_Rb_tree_node<_STL::pair<unsigned short const ,unsigned short> > >
; Function compile flags: /Ogsy
; File c:\stlport-4.6.1\stlport\stl\_alloc.h
;	COMDAT ??1?$allocator@U?$_Rb_tree_node@U?$pair@$$CBGG@_STL@@@_STL@@@_STL@@QAE@XZ
_TEXT	SEGMENT
??1?$allocator@U?$_Rb_tree_node@U?$pair@$$CBGG@_STL@@@_STL@@@_STL@@QAE@XZ PROC NEAR ; _STL::allocator<_STL::_Rb_tree_node<_STL::pair<unsigned short const ,unsigned short> > >::~allocator<_STL::_Rb_tree_node<_STL::pair<unsigned short const ,unsigned short> > >, COMDAT
; _this$ = ecx

; 350  :   ~allocator() _STLP_NOTHROW {}

  00000	c3		 ret	 0
??1?$allocator@U?$_Rb_tree_node@U?$pair@$$CBGG@_STL@@@_STL@@@_STL@@QAE@XZ ENDP ; _STL::allocator<_STL::_Rb_tree_node<_STL::pair<unsigned short const ,unsigned short> > >::~allocator<_STL::_Rb_tree_node<_STL::pair<unsigned short const ,unsigned short> > >
_TEXT	ENDS
PUBLIC	?_M_setstate_nothrow@ios_base@_STL@@IAEXH@Z	; _STL::ios_base::_M_setstate_nothrow
; Function compile flags: /Ogsy
; File c:\stlport-4.6.1\stlport\stl\_ios_base.h
;	COMDAT ?_M_setstate_nothrow@ios_base@_STL@@IAEXH@Z
_TEXT	SEGMENT
___state$ = 8						; size = 4
?_M_setstate_nothrow@ios_base@_STL@@IAEXH@Z PROC NEAR	; _STL::ios_base::_M_setstate_nothrow, COMDAT
; _this$ = ecx

; 193  :   void _M_setstate_nothrow(iostate __state) { _M_iostate |= __state; }

  00000	8b 44 24 04	 mov	 eax, DWORD PTR ___state$[esp-4]
  00004	09 41 08	 or	 DWORD PTR [ecx+8], eax
  00007	c2 04 00	 ret	 4
?_M_setstate_nothrow@ios_base@_STL@@IAEXH@Z ENDP	; _STL::ios_base::_M_setstate_nothrow
_TEXT	ENDS
PUBLIC	??0?$_Rb_tree_iterator@U?$pair@$$CBGG@_STL@@U?$_Nonconst_traits@U?$pair@$$CBGG@_STL@@@2@@_STL@@QAE@PAU?$_Rb_tree_node@U?$pair@$$CBGG@_STL@@@1@@Z ; _STL::_Rb_tree_iterator<_STL::pair<unsigned short const ,unsigned short>,_STL::_Nonconst_traits<_STL::pair<unsigned short const ,unsigned short> > >::_Rb_tree_iterator<_STL::pair<unsigned short const ,unsigned short>,_STL::_Nonconst_traits<_STL::pair<unsigned short const ,unsigned short> > >
; Function compile flags: /Ogsy
; File c:\stlport-4.6.1\stlport\stl\_tree.h
;	COMDAT ??0?$_Rb_tree_iterator@U?$pair@$$CBGG@_STL@@U?$_Nonconst_traits@U?$pair@$$CBGG@_STL@@@2@@_STL@@QAE@PAU?$_Rb_tree_node@U?$pair@$$CBGG@_STL@@@1@@Z
_TEXT	SEGMENT
___x$ = 8						; size = 4
??0?$_Rb_tree_iterator@U?$pair@$$CBGG@_STL@@U?$_Nonconst_traits@U?$pair@$$CBGG@_STL@@@2@@_STL@@QAE@PAU?$_Rb_tree_node@U?$pair@$$CBGG@_STL@@@1@@Z PROC NEAR ; _STL::_Rb_tree_iterator<_STL::pair<unsigned short const ,unsigned short>,_STL::_Nonconst_traits<_STL::pair<unsigned short const ,unsigned short> > >::_Rb_tree_iterator<_STL::pair<unsigned short const ,unsigned short>,_STL::_Nonconst_traits<_STL::pair<unsigned short const ,unsigned short> > >, COMDAT
; _this$ = ecx

; 164  :   _Rb_tree_iterator(_Link_type __x) { _M_node = __x; }

  00000	8b c1		 mov	 eax, ecx
  00002	8b 4c 24 04	 mov	 ecx, DWORD PTR ___x$[esp-4]
  00006	89 08		 mov	 DWORD PTR [eax], ecx
  00008	c2 04 00	 ret	 4
??0?$_Rb_tree_iterator@U?$pair@$$CBGG@_STL@@U?$_Nonconst_traits@U?$pair@$$CBGG@_STL@@@2@@_STL@@QAE@PAU?$_Rb_tree_node@U?$pair@$$CBGG@_STL@@@1@@Z ENDP ; _STL::_Rb_tree_iterator<_STL::pair<unsigned short const ,unsigned short>,_STL::_Nonconst_traits<_STL::pair<unsigned short const ,unsigned short> > >::_Rb_tree_iterator<_STL::pair<unsigned short const ,unsigned short>,_STL::_Nonconst_traits<_STL::pair<unsigned short const ,unsigned short> > >
_TEXT	ENDS
PUBLIC	?_M_clear_nothrow@ios_base@_STL@@IAEXH@Z	; _STL::ios_base::_M_clear_nothrow
; Function compile flags: /Ogsy
; File c:\stlport-4.6.1\stlport\stl\_ios_base.h
;	COMDAT ?_M_clear_nothrow@ios_base@_STL@@IAEXH@Z
_TEXT	SEGMENT
___state$ = 8						; size = 4
?_M_clear_nothrow@ios_base@_STL@@IAEXH@Z PROC NEAR	; _STL::ios_base::_M_clear_nothrow, COMDAT
; _this$ = ecx

; 194  :   void _M_clear_nothrow(iostate __state) { _M_iostate = __state; }

  00000	8b 44 24 04	 mov	 eax, DWORD PTR ___state$[esp-4]
  00004	89 41 08	 mov	 DWORD PTR [ecx+8], eax
  00007	c2 04 00	 ret	 4
?_M_clear_nothrow@ios_base@_STL@@IAEXH@Z ENDP		; _STL::ios_base::_M_clear_nothrow
_TEXT	ENDS
PUBLIC	?_M_get_exception_mask@ios_base@_STL@@IBEHXZ	; _STL::ios_base::_M_get_exception_mask
; Function compile flags: /Ogsy
;	COMDAT ?_M_get_exception_mask@ios_base@_STL@@IBEHXZ
_TEXT	SEGMENT
?_M_get_exception_mask@ios_base@_STL@@IBEHXZ PROC NEAR	; _STL::ios_base::_M_get_exception_mask, COMDAT
; _this$ = ecx

; 195  :   iostate _M_get_exception_mask() const { return _M_exception_mask; }

  00000	8b 41 14	 mov	 eax, DWORD PTR [ecx+20]
  00003	c3		 ret	 0
?_M_get_exception_mask@ios_base@_STL@@IBEHXZ ENDP	; _STL::ios_base::_M_get_exception_mask
_TEXT	ENDS
PUBLIC	??0?$allocator@U?$_List_node@G@_STL@@@_STL@@QAE@ABV01@@Z ; _STL::allocator<_STL::_List_node<unsigned short> >::allocator<_STL::_List_node<unsigned short> >
; Function compile flags: /Ogsy
; File c:\stlport-4.6.1\stlport\stl\_alloc.h
;	COMDAT ??0?$allocator@U?$_List_node@G@_STL@@@_STL@@QAE@ABV01@@Z
_TEXT	SEGMENT
___formal$ = 8						; size = 4
??0?$allocator@U?$_List_node@G@_STL@@@_STL@@QAE@ABV01@@Z PROC NEAR ; _STL::allocator<_STL::_List_node<unsigned short> >::allocator<_STL::_List_node<unsigned short> >, COMDAT
; _this$ = ecx

; 349  :   allocator(const allocator<_Tp>&) _STLP_NOTHROW {}

  00000	8b c1		 mov	 eax, ecx
  00002	c2 04 00	 ret	 4
??0?$allocator@U?$_List_node@G@_STL@@@_STL@@QAE@ABV01@@Z ENDP ; _STL::allocator<_STL::_List_node<unsigned short> >::allocator<_STL::_List_node<unsigned short> >
_TEXT	ENDS
PUBLIC	?_S_color@?$_Rb_tree@GU?$pair@$$CBGG@_STL@@U?$_Select1st@U?$pair@$$CBGG@_STL@@@2@U?$less@G@2@V?$allocator@U?$pair@$$CBGG@_STL@@@2@@_STL@@KAAA_NPAU?$_Rb_tree_node@U?$pair@$$CBGG@_STL@@@2@@Z ; _STL::_Rb_tree<unsigned short,_STL::pair<unsigned short const ,unsigned short>,_STL::_Select1st<_STL::pair<unsigned short const ,unsigned short> >,_STL::less<unsigned short>,_STL::allocator<_STL::pair<unsigned short const ,unsigned short> > >::_S_color
; Function compile flags: /Ogsy
; File c:\stlport-4.6.1\stlport\stl\_tree.h
;	COMDAT ?_S_color@?$_Rb_tree@GU?$pair@$$CBGG@_STL@@U?$_Select1st@U?$pair@$$CBGG@_STL@@@2@U?$less@G@2@V?$allocator@U?$pair@$$CBGG@_STL@@@2@@_STL@@KAAA_NPAU?$_Rb_tree_node@U?$pair@$$CBGG@_STL@@@2@@Z
_TEXT	SEGMENT
___x$ = 8						; size = 4
?_S_color@?$_Rb_tree@GU?$pair@$$CBGG@_STL@@U?$_Select1st@U?$pair@$$CBGG@_STL@@@2@U?$less@G@2@V?$allocator@U?$pair@$$CBGG@_STL@@@2@@_STL@@KAAA_NPAU?$_Rb_tree_node@U?$pair@$$CBGG@_STL@@@2@@Z PROC NEAR ; _STL::_Rb_tree<unsigned short,_STL::pair<unsigned short const ,unsigned short>,_STL::_Select1st<_STL::pair<unsigned short const ,unsigned short> >,_STL::less<unsigned short>,_STL::allocator<_STL::pair<unsigned short const ,unsigned short> > >::_S_color, COMDAT

; 282  :     { return (_Color_type&)(__x->_M_color); }

  00000	8b 44 24 04	 mov	 eax, DWORD PTR ___x$[esp-4]
  00004	c3		 ret	 0
?_S_color@?$_Rb_tree@GU?$pair@$$CBGG@_STL@@U?$_Select1st@U?$pair@$$CBGG@_STL@@@2@U?$less@G@2@V?$allocator@U?$pair@$$CBGG@_STL@@@2@@_STL@@KAAA_NPAU?$_Rb_tree_node@U?$pair@$$CBGG@_STL@@@2@@Z ENDP ; _STL::_Rb_tree<unsigned short,_STL::pair<unsigned short const ,unsigned short>,_STL::_Select1st<_STL::pair<unsigned short const ,unsigned short> >,_STL::less<unsigned short>,_STL::allocator<_STL::pair<unsigned short const ,unsigned short> > >::_S_color
_TEXT	ENDS
PUBLIC	?_M_check_exception_mask@ios_base@_STL@@IAEXXZ	; _STL::ios_base::_M_check_exception_mask
EXTRN	?_M_throw_failure@ios_base@_STL@@IAEXXZ:NEAR	; _STL::ios_base::_M_throw_failure
; Function compile flags: /Ogsy
; File c:\stlport-4.6.1\stlport\stl\_ios_base.h
;	COMDAT ?_M_check_exception_mask@ios_base@_STL@@IAEXXZ
_TEXT	SEGMENT
?_M_check_exception_mask@ios_base@_STL@@IAEXXZ PROC NEAR ; _STL::ios_base::_M_check_exception_mask, COMDAT
; _this$ = ecx

; 198  :     if (_M_iostate & _M_exception_mask)

  00000	8b 41 14	 mov	 eax, DWORD PTR [ecx+20]
  00003	85 41 08	 test	 eax, DWORD PTR [ecx+8]
  00006	74 05		 je	 SHORT $L79498

; 199  :       _M_throw_failure(); 

  00008	e9 00 00 00 00	 jmp	 ?_M_throw_failure@ios_base@_STL@@IAEXXZ ; _STL::ios_base::_M_throw_failure
$L79498:

; 200  :   }

  0000d	c3		 ret	 0
?_M_check_exception_mask@ios_base@_STL@@IAEXXZ ENDP	; _STL::ios_base::_M_check_exception_mask
_TEXT	ENDS
PUBLIC	??0?$allocator@U?$_Rb_tree_node@U?$pair@$$CBGG@_STL@@@_STL@@@_STL@@QAE@ABV01@@Z ; _STL::allocator<_STL::_Rb_tree_node<_STL::pair<unsigned short const ,unsigned short> > >::allocator<_STL::_Rb_tree_node<_STL::pair<unsigned short const ,unsigned short> > >
; Function compile flags: /Ogsy
; File c:\stlport-4.6.1\stlport\stl\_alloc.h
;	COMDAT ??0?$allocator@U?$_Rb_tree_node@U?$pair@$$CBGG@_STL@@@_STL@@@_STL@@QAE@ABV01@@Z
_TEXT	SEGMENT
___formal$ = 8						; size = 4
??0?$allocator@U?$_Rb_tree_node@U?$pair@$$CBGG@_STL@@@_STL@@@_STL@@QAE@ABV01@@Z PROC NEAR ; _STL::allocator<_STL::_Rb_tree_node<_STL::pair<unsigned short const ,unsigned short> > >::allocator<_STL::_Rb_tree_node<_STL::pair<unsigned short const ,unsigned short> > >, COMDAT
; _this$ = ecx

; 349  :   allocator(const allocator<_Tp>&) _STLP_NOTHROW {}

  00000	8b c1		 mov	 eax, ecx
  00002	c2 04 00	 ret	 4
??0?$allocator@U?$_Rb_tree_node@U?$pair@$$CBGG@_STL@@@_STL@@@_STL@@QAE@ABV01@@Z ENDP ; _STL::allocator<_STL::_Rb_tree_node<_STL::pair<unsigned short const ,unsigned short> > >::allocator<_STL::_Rb_tree_node<_STL::pair<unsigned short const ,unsigned short> > >
_TEXT	ENDS
PUBLIC	??0?$CTypeTable@VFRAME_TYPE@@@@QAE@XZ		; CTypeTable<FRAME_TYPE>::CTypeTable<FRAME_TYPE>
; Function compile flags: /Ogsy
; File c:\darkeden\designed_common\project\client\ctypetable.h
;	COMDAT ??0?$CTypeTable@VFRAME_TYPE@@@@QAE@XZ
_TEXT	SEGMENT
??0?$CTypeTable@VFRAME_TYPE@@@@QAE@XZ PROC NEAR		; CTypeTable<FRAME_TYPE>::CTypeTable<FRAME_TYPE>, COMDAT
; _this$ = ecx

; 64   : {

  00000	8b c1		 mov	 eax, ecx

; 65   : 	m_pTypeInfo	= NULL;

  00002	83 60 04 00	 and	 DWORD PTR [eax+4], 0

; 66   : 	m_Size		= 0;

  00006	83 20 00	 and	 DWORD PTR [eax], 0

; 67   : }

  00009	c3		 ret	 0
??0?$CTypeTable@VFRAME_TYPE@@@@QAE@XZ ENDP		; CTypeTable<FRAME_TYPE>::CTypeTable<FRAME_TYPE>
_TEXT	ENDS
PUBLIC	??0?$CTypeTable@VACTION_FRAMEID_ARRAY@@@@QAE@XZ	; CTypeTable<ACTION_FRAMEID_ARRAY>::CTypeTable<ACTION_FRAMEID_ARRAY>
; Function compile flags: /Ogsy
;	COMDAT ??0?$CTypeTable@VACTION_FRAMEID_ARRAY@@@@QAE@XZ
_TEXT	SEGMENT
??0?$CTypeTable@VACTION_FRAMEID_ARRAY@@@@QAE@XZ PROC NEAR ; CTypeTable<ACTION_FRAMEID_ARRAY>::CTypeTable<ACTION_FRAMEID_ARRAY>, COMDAT
; _this$ = ecx

; 64   : {

  00000	8b c1		 mov	 eax, ecx

; 65   : 	m_pTypeInfo	= NULL;

  00002	83 60 04 00	 and	 DWORD PTR [eax+4], 0

; 66   : 	m_Size		= 0;

  00006	83 20 00	 and	 DWORD PTR [eax], 0

; 67   : }

  00009	c3		 ret	 0
??0?$CTypeTable@VACTION_FRAMEID_ARRAY@@@@QAE@XZ ENDP	; CTypeTable<ACTION_FRAMEID_ARRAY>::CTypeTable<ACTION_FRAMEID_ARRAY>
_TEXT	ENDS
PUBLIC	??$?0G@?$allocator@U?$_List_node@G@_STL@@@_STL@@QAE@ABV?$allocator@G@1@@Z ; _STL::allocator<_STL::_List_node<unsigned short> >::allocator<_STL::_List_node<unsigned short> ><unsigned short>
; Function compile flags: /Ogsy
; File c:\stlport-4.6.1\stlport\stl\_alloc.h
;	COMDAT ??$?0G@?$allocator@U?$_List_node@G@_STL@@@_STL@@QAE@ABV?$allocator@G@1@@Z
_TEXT	SEGMENT
___formal$ = 8						; size = 4
??$?0G@?$allocator@U?$_List_node@G@_STL@@@_STL@@QAE@ABV?$allocator@G@1@@Z PROC NEAR ; _STL::allocator<_STL::_List_node<unsigned short> >::allocator<_STL::_List_node<unsigned short> ><unsigned short>, COMDAT
; _this$ = ecx

; 347  :   template <class _Tp1> allocator(const allocator<_Tp1>&) _STLP_NOTHROW {}

  00000	8b c1		 mov	 eax, ecx
  00002	c2 04 00	 ret	 4
??$?0G@?$allocator@U?$_List_node@G@_STL@@@_STL@@QAE@ABV?$allocator@G@1@@Z ENDP ; _STL::allocator<_STL::_List_node<unsigned short> >::allocator<_STL::_List_node<unsigned short> ><unsigned short>
_TEXT	ENDS
PUBLIC	??$_Construct@GG@_STL@@YAXPAGABG@Z		; _STL::_Construct<unsigned short,unsigned short>
; Function compile flags: /Ogsy
; File c:\stlport-4.6.1\stlport\stl\_construct.h
;	COMDAT ??$_Construct@GG@_STL@@YAXPAGABG@Z
_TEXT	SEGMENT
___p$ = 8						; size = 4
___val$ = 12						; size = 4
??$_Construct@GG@_STL@@YAXPAGABG@Z PROC NEAR		; _STL::_Construct<unsigned short,unsigned short>, COMDAT

; 94   : # ifdef _STLP_DEBUG_UNINITIALIZED
; 95   : 	memset((char*)__p, _STLP_SHRED_BYTE, sizeof(_T1));
; 96   : # endif
; 97   :     _STLP_PLACEMENT_NEW (__p) _T1(__val);

  00000	8b 44 24 04	 mov	 eax, DWORD PTR ___p$[esp-4]
  00004	85 c0		 test	 eax, eax
  00006	74 0a		 je	 SHORT $L103607
  00008	8b 4c 24 08	 mov	 ecx, DWORD PTR ___val$[esp-4]
  0000c	66 8b 09	 mov	 cx, WORD PTR [ecx]
  0000f	66 89 08	 mov	 WORD PTR [eax], cx
$L103607:

; 98   : }

  00012	c3		 ret	 0
??$_Construct@GG@_STL@@YAXPAGABG@Z ENDP			; _STL::_Construct<unsigned short,unsigned short>
_TEXT	ENDS
PUBLIC	??$?0U?$pair@$$CBGG@_STL@@@?$allocator@U?$_Rb_tree_node@U?$pair@$$CBGG@_STL@@@_STL@@@_STL@@QAE@ABV?$allocator@U?$pair@$$CBGG@_STL@@@1@@Z ; _STL::allocator<_STL::_Rb_tree_node<_STL::pair<unsigned short const ,unsigned short> > >::allocator<_STL::_Rb_tree_node<_STL::pair<unsigned short const ,unsigned short> > ><_STL::pair<unsigned short const ,unsigned short> >
; Function compile flags: /Ogsy
; File c:\stlport-4.6.1\stlport\stl\_alloc.h
;	COMDAT ??$?0U?$pair@$$CBGG@_STL@@@?$allocator@U?$_Rb_tree_node@U?$pair@$$CBGG@_STL@@@_STL@@@_STL@@QAE@ABV?$allocator@U?$pair@$$CBGG@_STL@@@1@@Z
_TEXT	SEGMENT
___formal$ = 8						; size = 4
??$?0U?$pair@$$CBGG@_STL@@@?$allocator@U?$_Rb_tree_node@U?$pair@$$CBGG@_STL@@@_STL@@@_STL@@QAE@ABV?$allocator@U?$pair@$$CBGG@_STL@@@1@@Z PROC NEAR ; _STL::allocator<_STL::_Rb_tree_node<_STL::pair<unsigned short const ,unsigned short> > >::allocator<_STL::_Rb_tree_node<_STL::pair<unsigned short const ,unsigned short> > ><_STL::pair<unsigned short const ,unsigned short> >, COMDAT
; _this$ = ecx

; 347  :   template <class _Tp1> allocator(const allocator<_Tp1>&) _STLP_NOTHROW {}

  00000	8b c1		 mov	 eax, ecx
  00002	c2 04 00	 ret	 4
??$?0U?$pair@$$CBGG@_STL@@@?$allocator@U?$_Rb_tree_node@U?$pair@$$CBGG@_STL@@@_STL@@@_STL@@QAE@ABV?$allocator@U?$pair@$$CBGG@_STL@@@1@@Z ENDP ; _STL::allocator<_STL::_Rb_tree_node<_STL::pair<unsigned short const ,unsigned short> > >::allocator<_STL::_Rb_tree_node<_STL::pair<unsigned short const ,unsigned short> > ><_STL::pair<unsigned short const ,unsigned short> >
_TEXT	ENDS
PUBLIC	?rdbuf@?$basic_ios@DV?$char_traits@D@_STL@@@_STL@@QBEPAV?$basic_streambuf@DV?$char_traits@D@_STL@@@2@XZ ; _STL::basic_ios<char,_STL::char_traits<char> >::rdbuf
; Function compile flags: /Ogsy
; File c:\stlport-4.6.1\stlport\stl\_ios.h
;	COMDAT ?rdbuf@?$basic_ios@DV?$char_traits@D@_STL@@@_STL@@QBEPAV?$basic_streambuf@DV?$char_traits@D@_STL@@@2@XZ
_TEXT	SEGMENT
?rdbuf@?$basic_ios@DV?$char_traits@D@_STL@@@_STL@@QBEPAV?$basic_streambuf@DV?$char_traits@D@_STL@@@2@XZ PROC NEAR ; _STL::basic_ios<char,_STL::char_traits<char> >::rdbuf, COMDAT
; _this$ = ecx

; 72   :     { return _M_streambuf; }

  00000	8b 41 58	 mov	 eax, DWORD PTR [ecx+88]
  00003	c3		 ret	 0
?rdbuf@?$basic_ios@DV?$char_traits@D@_STL@@@_STL@@QBEPAV?$basic_streambuf@DV?$char_traits@D@_STL@@@2@XZ ENDP ; _STL::basic_ios<char,_STL::char_traits<char> >::rdbuf
_TEXT	ENDS
PUBLIC	?_S_left@?$_Rb_tree@GU?$pair@$$CBGG@_STL@@U?$_Select1st@U?$pair@$$CBGG@_STL@@@2@U?$less@G@2@V?$allocator@U?$pair@$$CBGG@_STL@@@2@@_STL@@KAAAPAU?$_Rb_tree_node@U?$pair@$$CBGG@_STL@@@2@PAU32@@Z ; _STL::_Rb_tree<unsigned short,_STL::pair<unsigned short const ,unsigned short>,_STL::_Select1st<_STL::pair<unsigned short const ,unsigned short> >,_STL::less<unsigned short>,_STL::allocator<_STL::pair<unsigned short const ,unsigned short> > >::_S_left
; Function compile flags: /Ogsy
; File c:\stlport-4.6.1\stlport\stl\_tree.h
;	COMDAT ?_S_left@?$_Rb_tree@GU?$pair@$$CBGG@_STL@@U?$_Select1st@U?$pair@$$CBGG@_STL@@@2@U?$less@G@2@V?$allocator@U?$pair@$$CBGG@_STL@@@2@@_STL@@KAAAPAU?$_Rb_tree_node@U?$pair@$$CBGG@_STL@@@2@PAU32@@Z
_TEXT	SEGMENT
___x$ = 8						; size = 4
?_S_left@?$_Rb_tree@GU?$pair@$$CBGG@_STL@@U?$_Select1st@U?$pair@$$CBGG@_STL@@@2@U?$less@G@2@V?$allocator@U?$pair@$$CBGG@_STL@@@2@@_STL@@KAAAPAU?$_Rb_tree_node@U?$pair@$$CBGG@_STL@@@2@PAU32@@Z PROC NEAR ; _STL::_Rb_tree<unsigned short,_STL::pair<unsigned short const ,unsigned short>,_STL::_Select1st<_STL::pair<unsigned short const ,unsigned short> >,_STL::less<unsigned short>,_STL::allocator<_STL::pair<unsigned short const ,unsigned short> > >::_S_left, COMDAT

; 272  :     { return (_Link_type&)(__x->_M_left); }

  00000	8b 44 24 04	 mov	 eax, DWORD PTR ___x$[esp-4]
  00004	83 c0 08	 add	 eax, 8
  00007	c3		 ret	 0
?_S_left@?$_Rb_tree@GU?$pair@$$CBGG@_STL@@U?$_Select1st@U?$pair@$$CBGG@_STL@@@2@U?$less@G@2@V?$allocator@U?$pair@$$CBGG@_STL@@@2@@_STL@@KAAAPAU?$_Rb_tree_node@U?$pair@$$CBGG@_STL@@@2@PAU32@@Z ENDP ; _STL::_Rb_tree<unsigned short,_STL::pair<unsigned short const ,unsigned short>,_STL::_Select1st<_STL::pair<unsigned short const ,unsigned short> >,_STL::less<unsigned short>,_STL::allocator<_STL::pair<unsigned short const ,unsigned short> > >::_S_left
_TEXT	ENDS
PUBLIC	?_S_right@?$_Rb_tree@GU?$pair@$$CBGG@_STL@@U?$_Select1st@U?$pair@$$CBGG@_STL@@@2@U?$less@G@2@V?$allocator@U?$pair@$$CBGG@_STL@@@2@@_STL@@KAAAPAU?$_Rb_tree_node@U?$pair@$$CBGG@_STL@@@2@PAU32@@Z ; _STL::_Rb_tree<unsigned short,_STL::pair<unsigned short const ,unsigned short>,_STL::_Select1st<_STL::pair<unsigned short const ,unsigned short> >,_STL::less<unsigned short>,_STL::allocator<_STL::pair<unsigned short const ,unsigned short> > >::_S_right
; Function compile flags: /Ogsy
;	COMDAT ?_S_right@?$_Rb_tree@GU?$pair@$$CBGG@_STL@@U?$_Select1st@U?$pair@$$CBGG@_STL@@@2@U?$less@G@2@V?$allocator@U?$pair@$$CBGG@_STL@@@2@@_STL@@KAAAPAU?$_Rb_tree_node@U?$pair@$$CBGG@_STL@@@2@PAU32@@Z
_TEXT	SEGMENT
___x$ = 8						; size = 4
?_S_right@?$_Rb_tree@GU?$pair@$$CBGG@_STL@@U?$_Select1st@U?$pair@$$CBGG@_STL@@@2@U?$less@G@2@V?$allocator@U?$pair@$$CBGG@_STL@@@2@@_STL@@KAAAPAU?$_Rb_tree_node@U?$pair@$$CBGG@_STL@@@2@PAU32@@Z PROC NEAR ; _STL::_Rb_tree<unsigned short,_STL::pair<unsigned short const ,unsigned short>,_STL::_Select1st<_STL::pair<unsigned short const ,unsigned short> >,_STL::less<unsigned short>,_STL::allocator<_STL::pair<unsigned short const ,unsigned short> > >::_S_right, COMDAT

; 274  :     { return (_Link_type&)(__x->_M_right); }

  00000	8b 44 24 04	 mov	 eax, DWORD PTR ___x$[esp-4]
  00004	83 c0 0c	 add	 eax, 12			; 0000000cH
  00007	c3		 ret	 0
?_S_right@?$_Rb_tree@GU?$pair@$$CBGG@_STL@@U?$_Select1st@U?$pair@$$CBGG@_STL@@@2@U?$less@G@2@V?$allocator@U?$pair@$$CBGG@_STL@@@2@@_STL@@KAAAPAU?$_Rb_tree_node@U?$pair@$$CBGG@_STL@@@2@PAU32@@Z ENDP ; _STL::_Rb_tree<unsigned short,_STL::pair<unsigned short const ,unsigned short>,_STL::_Select1st<_STL::pair<unsigned short const ,unsigned short> >,_STL::less<unsigned short>,_STL::allocator<_STL::pair<unsigned short const ,unsigned short> > >::_S_right
_TEXT	ENDS
PUBLIC	??R?$less@G@_STL@@QBE_NABG0@Z			; _STL::less<unsigned short>::operator()
; Function compile flags: /Ogsy
; File c:\stlport-4.6.1\stlport\stl\_function_base.h
;	COMDAT ??R?$less@G@_STL@@QBE_NABG0@Z
_TEXT	SEGMENT
___x$ = 8						; size = 4
___y$ = 12						; size = 4
??R?$less@G@_STL@@QBE_NABG0@Z PROC NEAR			; _STL::less<unsigned short>::operator(), COMDAT
; _this$ = ecx

; 73   :   bool operator()(const _Tp& __x, const _Tp& __y) const { return __x < __y; }

  00000	8b 44 24 04	 mov	 eax, DWORD PTR ___x$[esp-4]
  00004	0f b7 00	 movzx	 eax, WORD PTR [eax]
  00007	8b 4c 24 08	 mov	 ecx, DWORD PTR ___y$[esp-4]
  0000b	66 3b 01	 cmp	 ax, WORD PTR [ecx]
  0000e	1b c0		 sbb	 eax, eax
  00010	f7 d8		 neg	 eax
  00012	c2 08 00	 ret	 8
??R?$less@G@_STL@@QBE_NABG0@Z ENDP			; _STL::less<unsigned short>::operator()
_TEXT	ENDS
PUBLIC	??F?$_Rb_tree_iterator@U?$pair@$$CBGG@_STL@@U?$_Nonconst_traits@U?$pair@$$CBGG@_STL@@@2@@_STL@@QAEAAU01@XZ ; _STL::_Rb_tree_iterator<_STL::pair<unsigned short const ,unsigned short>,_STL::_Nonconst_traits<_STL::pair<unsigned short const ,unsigned short> > >::operator--
EXTRN	?_M_decrement@?$_Rb_global@_N@_STL@@SAPAU_Rb_tree_node_base@2@PAU32@@Z:NEAR ; _STL::_Rb_global<bool>::_M_decrement
; Function compile flags: /Ogsy
; File c:\stlport-4.6.1\stlport\stl\_tree.h
;	COMDAT ??F?$_Rb_tree_iterator@U?$pair@$$CBGG@_STL@@U?$_Nonconst_traits@U?$pair@$$CBGG@_STL@@@2@@_STL@@QAEAAU01@XZ
_TEXT	SEGMENT
??F?$_Rb_tree_iterator@U?$pair@$$CBGG@_STL@@U?$_Nonconst_traits@U?$pair@$$CBGG@_STL@@@2@@_STL@@QAEAAU01@XZ PROC NEAR ; _STL::_Rb_tree_iterator<_STL::pair<unsigned short const ,unsigned short>,_STL::_Nonconst_traits<_STL::pair<unsigned short const ,unsigned short> > >::operator--, COMDAT
; _this$ = ecx

; 181  :   _Self& operator--() { _M_node = _Rb_global_inst::_M_decrement(_M_node); return *this; }

  00000	56		 push	 esi
  00001	8b f1		 mov	 esi, ecx
  00003	ff 36		 push	 DWORD PTR [esi]
  00005	e8 00 00 00 00	 call	 ?_M_decrement@?$_Rb_global@_N@_STL@@SAPAU_Rb_tree_node_base@2@PAU32@@Z ; _STL::_Rb_global<bool>::_M_decrement
  0000a	89 06		 mov	 DWORD PTR [esi], eax
  0000c	59		 pop	 ecx
  0000d	8b c6		 mov	 eax, esi
  0000f	5e		 pop	 esi
  00010	c3		 ret	 0
??F?$_Rb_tree_iterator@U?$pair@$$CBGG@_STL@@U?$_Nonconst_traits@U?$pair@$$CBGG@_STL@@@2@@_STL@@QAEAAU01@XZ ENDP ; _STL::_Rb_tree_iterator<_STL::pair<unsigned short const ,unsigned short>,_STL::_Nonconst_traits<_STL::pair<unsigned short const ,unsigned short> > >::operator--
_TEXT	ENDS
PUBLIC	?pubsync@?$basic_streambuf@DV?$char_traits@D@_STL@@@_STL@@QAEHXZ ; _STL::basic_streambuf<char,_STL::char_traits<char> >::pubsync
; Function compile flags: /Ogsy
; File c:\stlport-4.6.1\stlport\stl\_streambuf.h
;	COMDAT ?pubsync@?$basic_streambuf@DV?$char_traits@D@_STL@@@_STL@@QAEHXZ
_TEXT	SEGMENT
?pubsync@?$basic_streambuf@DV?$char_traits@D@_STL@@@_STL@@QAEHXZ PROC NEAR ; _STL::basic_streambuf<char,_STL::char_traits<char> >::pubsync, COMDAT
; _this$ = ecx

; 411  :   int pubsync() { return this->sync(); }

  00000	8b 01		 mov	 eax, DWORD PTR [ecx]
  00002	ff 60 10	 jmp	 DWORD PTR [eax+16]
?pubsync@?$basic_streambuf@DV?$char_traits@D@_STL@@@_STL@@QAEHXZ ENDP ; _STL::basic_streambuf<char,_STL::char_traits<char> >::pubsync
_TEXT	ENDS
PUBLIC	??Bsentry@?$basic_ostream@DV?$char_traits@D@_STL@@@_STL@@QBE_NXZ ; _STL::basic_ostream<char,_STL::char_traits<char> >::sentry::operator bool
; Function compile flags: /Ogsy
; File c:\stlport-4.6.1\stlport\stl\_ostream.h
;	COMDAT ??Bsentry@?$basic_ostream@DV?$char_traits@D@_STL@@@_STL@@QBE_NXZ
_TEXT	SEGMENT
??Bsentry@?$basic_ostream@DV?$char_traits@D@_STL@@@_STL@@QBE_NXZ PROC NEAR ; _STL::basic_ostream<char,_STL::char_traits<char> >::sentry::operator bool, COMDAT
; _this$ = ecx

; 176  :       operator bool() const { return _M_ok; }

  00000	8a 41 04	 mov	 al, BYTE PTR [ecx+4]
  00003	c3		 ret	 0
??Bsentry@?$basic_ostream@DV?$char_traits@D@_STL@@@_STL@@QBE_NXZ ENDP ; _STL::basic_ostream<char,_STL::char_traits<char> >::sentry::operator bool
_TEXT	ENDS
PUBLIC	?sputn@?$basic_streambuf@DV?$char_traits@D@_STL@@@_STL@@QAEHPBDH@Z ; _STL::basic_streambuf<char,_STL::char_traits<char> >::sputn
; Function compile flags: /Ogsy
; File c:\stlport-4.6.1\stlport\stl\_streambuf.h
;	COMDAT ?sputn@?$basic_streambuf@DV?$char_traits@D@_STL@@@_STL@@QAEHPBDH@Z
_TEXT	SEGMENT
___s$ = 8						; size = 4
___n$ = 12						; size = 4
?sputn@?$basic_streambuf@DV?$char_traits@D@_STL@@@_STL@@QAEHPBDH@Z PROC NEAR ; _STL::basic_streambuf<char,_STL::char_traits<char> >::sputn, COMDAT
; _this$ = ecx

; 441  :     { return this->xsputn(__s, __n); }

  00000	8b 01		 mov	 eax, DWORD PTR [ecx]
  00002	ff 60 28	 jmp	 DWORD PTR [eax+40]
?sputn@?$basic_streambuf@DV?$char_traits@D@_STL@@@_STL@@QAEHPBDH@Z ENDP ; _STL::basic_streambuf<char,_STL::char_traits<char> >::sputn
_TEXT	ENDS
PUBLIC	??R?$_Select1st@U?$pair@$$CBGG@_STL@@@_STL@@QBEABGABU?$pair@$$CBGG@1@@Z ; _STL::_Select1st<_STL::pair<unsigned short const ,unsigned short> >::operator()
; Function compile flags: /Ogsy
; File c:\stlport-4.6.1\stlport\stl\_function_base.h
;	COMDAT ??R?$_Select1st@U?$pair@$$CBGG@_STL@@@_STL@@QBEABGABU?$pair@$$CBGG@1@@Z
_TEXT	SEGMENT
___x$ = 8						; size = 4
??R?$_Select1st@U?$pair@$$CBGG@_STL@@@_STL@@QBEABGABU?$pair@$$CBGG@1@@Z PROC NEAR ; _STL::_Select1st<_STL::pair<unsigned short const ,unsigned short> >::operator(), COMDAT
; _this$ = ecx

; 153  :     return __x.first;

  00000	8b 44 24 04	 mov	 eax, DWORD PTR ___x$[esp-4]

; 154  :   }

  00004	c2 04 00	 ret	 4
??R?$_Select1st@U?$pair@$$CBGG@_STL@@@_STL@@QBEABGABU?$pair@$$CBGG@1@@Z ENDP ; _STL::_Select1st<_STL::pair<unsigned short const ,unsigned short> >::operator()
_TEXT	ENDS
PUBLIC	?clear@?$basic_ios@DV?$char_traits@D@_STL@@@_STL@@QAEXH@Z ; _STL::basic_ios<char,_STL::char_traits<char> >::clear
; Function compile flags: /Ogsy
; File c:\stlport-4.6.1\stlport\stl\_ios.h
;	COMDAT ?clear@?$basic_ios@DV?$char_traits@D@_STL@@@_STL@@QAEXH@Z
_TEXT	SEGMENT
___state$ = 8						; size = 4
?clear@?$basic_ios@DV?$char_traits@D@_STL@@@_STL@@QAEXH@Z PROC NEAR ; _STL::basic_ios<char,_STL::char_traits<char> >::clear, COMDAT
; _this$ = ecx

; 91   :     _M_clear_nothrow(this->rdbuf() ? __state : iostate(__state|ios_base::badbit));

  00000	83 79 58 00	 cmp	 DWORD PTR [ecx+88], 0
  00004	8b 44 24 04	 mov	 eax, DWORD PTR ___state$[esp-4]
  00008	75 03		 jne	 SHORT $L103648
  0000a	83 c8 01	 or	 eax, 1
$L103648:

; 92   :     _M_check_exception_mask();

  0000d	85 41 14	 test	 DWORD PTR [ecx+20], eax
  00010	89 41 08	 mov	 DWORD PTR [ecx+8], eax
  00013	74 05		 je	 SHORT $L103660
  00015	e8 00 00 00 00	 call	 ?_M_throw_failure@ios_base@_STL@@IAEXXZ ; _STL::ios_base::_M_throw_failure
$L103660:

; 93   :   }

  0001a	c2 04 00	 ret	 4
?clear@?$basic_ios@DV?$char_traits@D@_STL@@@_STL@@QAEXH@Z ENDP ; _STL::basic_ios<char,_STL::char_traits<char> >::clear
_TEXT	ENDS
PUBLIC	?_S_value@?$_Rb_tree@GU?$pair@$$CBGG@_STL@@U?$_Select1st@U?$pair@$$CBGG@_STL@@@2@U?$less@G@2@V?$allocator@U?$pair@$$CBGG@_STL@@@2@@_STL@@KAAAU?$pair@$$CBGG@2@PAU?$_Rb_tree_node@U?$pair@$$CBGG@_STL@@@2@@Z ; _STL::_Rb_tree<unsigned short,_STL::pair<unsigned short const ,unsigned short>,_STL::_Select1st<_STL::pair<unsigned short const ,unsigned short> >,_STL::less<unsigned short>,_STL::allocator<_STL::pair<unsigned short const ,unsigned short> > >::_S_value
; Function compile flags: /Ogsy
; File c:\stlport-4.6.1\stlport\stl\_tree.h
;	COMDAT ?_S_value@?$_Rb_tree@GU?$pair@$$CBGG@_STL@@U?$_Select1st@U?$pair@$$CBGG@_STL@@@2@U?$less@G@2@V?$allocator@U?$pair@$$CBGG@_STL@@@2@@_STL@@KAAAU?$pair@$$CBGG@2@PAU?$_Rb_tree_node@U?$pair@$$CBGG@_STL@@@2@@Z
_TEXT	SEGMENT
___x$ = 8						; size = 4
?_S_value@?$_Rb_tree@GU?$pair@$$CBGG@_STL@@U?$_Select1st@U?$pair@$$CBGG@_STL@@@2@U?$less@G@2@V?$allocator@U?$pair@$$CBGG@_STL@@@2@@_STL@@KAAAU?$pair@$$CBGG@2@PAU?$_Rb_tree_node@U?$pair@$$CBGG@_STL@@@2@@Z PROC NEAR ; _STL::_Rb_tree<unsigned short,_STL::pair<unsigned short const ,unsigned short>,_STL::_Select1st<_STL::pair<unsigned short const ,unsigned short> >,_STL::less<unsigned short>,_STL::allocator<_STL::pair<unsigned short const ,unsigned short> > >::_S_value, COMDAT

; 278  :     { return __x->_M_value_field; }

  00000	8b 44 24 04	 mov	 eax, DWORD PTR ___x$[esp-4]
  00004	83 c0 10	 add	 eax, 16			; 00000010H
  00007	c3		 ret	 0
?_S_value@?$_Rb_tree@GU?$pair@$$CBGG@_STL@@U?$_Select1st@U?$pair@$$CBGG@_STL@@@2@U?$less@G@2@V?$allocator@U?$pair@$$CBGG@_STL@@@2@@_STL@@KAAAU?$pair@$$CBGG@2@PAU?$_Rb_tree_node@U?$pair@$$CBGG@_STL@@@2@@Z ENDP ; _STL::_Rb_tree<unsigned short,_STL::pair<unsigned short const ,unsigned short>,_STL::_Select1st<_STL::pair<unsigned short const ,unsigned short> >,_STL::less<unsigned short>,_STL::allocator<_STL::pair<unsigned short const ,unsigned short> > >::_S_value
_TEXT	ENDS
PUBLIC	??0?$_Rb_tree_iterator@U?$pair@$$CBGG@_STL@@U?$_Nonconst_traits@U?$pair@$$CBGG@_STL@@@2@@_STL@@QAE@ABU01@@Z ; _STL::_Rb_tree_iterator<_STL::pair<unsigned short const ,unsigned short>,_STL::_Nonconst_traits<_STL::pair<unsigned short const ,unsigned short> > >::_Rb_tree_iterator<_STL::pair<unsigned short const ,unsigned short>,_STL::_Nonconst_traits<_STL::pair<unsigned short const ,unsigned short> > >
; Function compile flags: /Ogsy
;	COMDAT ??0?$_Rb_tree_iterator@U?$pair@$$CBGG@_STL@@U?$_Nonconst_traits@U?$pair@$$CBGG@_STL@@@2@@_STL@@QAE@ABU01@@Z
_TEXT	SEGMENT
___it$ = 8						; size = 4
??0?$_Rb_tree_iterator@U?$pair@$$CBGG@_STL@@U?$_Nonconst_traits@U?$pair@$$CBGG@_STL@@@2@@_STL@@QAE@ABU01@@Z PROC NEAR ; _STL::_Rb_tree_iterator<_STL::pair<unsigned short const ,unsigned short>,_STL::_Nonconst_traits<_STL::pair<unsigned short const ,unsigned short> > >::_Rb_tree_iterator<_STL::pair<unsigned short const ,unsigned short>,_STL::_Nonconst_traits<_STL::pair<unsigned short const ,unsigned short> > >, COMDAT
; _this$ = ecx

; 165  :   _Rb_tree_iterator(const _Rb_tree_iterator<_Value, 

  00000	8b c1		 mov	 eax, ecx
  00002	8b 4c 24 04	 mov	 ecx, DWORD PTR ___it$[esp-4]
  00006	8b 09		 mov	 ecx, DWORD PTR [ecx]
  00008	89 08		 mov	 DWORD PTR [eax], ecx

; 166  :                     _Nonconst_traits<_Value> >& __it) { _M_node = __it._M_node; }

  0000a	c2 04 00	 ret	 4
??0?$_Rb_tree_iterator@U?$pair@$$CBGG@_STL@@U?$_Nonconst_traits@U?$pair@$$CBGG@_STL@@@2@@_STL@@QAE@ABU01@@Z ENDP ; _STL::_Rb_tree_iterator<_STL::pair<unsigned short const ,unsigned short>,_STL::_Nonconst_traits<_STL::pair<unsigned short const ,unsigned short> > >::_Rb_tree_iterator<_STL::pair<unsigned short const ,unsigned short>,_STL::_Nonconst_traits<_STL::pair<unsigned short const ,unsigned short> > >
_TEXT	ENDS
PUBLIC	?_M_handle_exception@?$basic_ios@DV?$char_traits@D@_STL@@@_STL@@QAEXH@Z ; _STL::basic_ios<char,_STL::char_traits<char> >::_M_handle_exception
EXTRN	__CxxThrowException@8:NEAR
; Function compile flags: /Ogsy
; File c:\stlport-4.6.1\stlport\stl\_ios.c
;	COMDAT ?_M_handle_exception@?$basic_ios@DV?$char_traits@D@_STL@@@_STL@@QAEXH@Z
_TEXT	SEGMENT
___flag$ = 8						; size = 4
?_M_handle_exception@?$basic_ios@DV?$char_traits@D@_STL@@@_STL@@QAEXH@Z PROC NEAR ; _STL::basic_ios<char,_STL::char_traits<char> >::_M_handle_exception, COMDAT
; _this$ = ecx

; 118  :   this->_M_setstate_nothrow(__flag);

  00000	8b 44 24 04	 mov	 eax, DWORD PTR ___flag$[esp-4]
  00004	09 41 08	 or	 DWORD PTR [ecx+8], eax

; 119  :   if (this->_M_get_exception_mask() & __flag)

  00007	85 41 14	 test	 DWORD PTR [ecx+20], eax
  0000a	74 09		 je	 SHORT $L102752

; 120  :     _STLP_RETHROW;

  0000c	6a 00		 push	 0
  0000e	6a 00		 push	 0
  00010	e8 00 00 00 00	 call	 __CxxThrowException@8
$L103679:
$L102752:

; 121  : }

  00015	c2 04 00	 ret	 4
$L103678:
?_M_handle_exception@?$basic_ios@DV?$char_traits@D@_STL@@@_STL@@QAEXH@Z ENDP ; _STL::basic_ios<char,_STL::char_traits<char> >::_M_handle_exception
_TEXT	ENDS
PUBLIC	??$_Destroy@G@_STL@@YAXPAG@Z			; _STL::_Destroy<unsigned short>
; Function compile flags: /Ogsy
; File c:\stlport-4.6.1\stlport\stl\_construct.h
;	COMDAT ??$_Destroy@G@_STL@@YAXPAG@Z
_TEXT	SEGMENT
___pointer$ = 8						; size = 4
??$_Destroy@G@_STL@@YAXPAG@Z PROC NEAR			; _STL::_Destroy<unsigned short>, COMDAT

; 57   : # if _MSC_VER >= 1010
; 58   :   __pointer;
; 59   : # endif	// _MSC_VER >= 1000
; 60   : # ifdef _STLP_TRIVIAL_DESTRUCTOR_BUG
; 61   :   typedef typename __type_traits<_Tp>::has_trivial_destructor _Trivial_destructor;
; 62   :   __destroy_aux(__pointer, _Trivial_destructor());
; 63   : # else
; 64   : #  if ( defined (__BORLANDC__) && ( __BORLANDC__ < 0x500 ) )
; 65   :     __pointer->_Tp::~_Tp();
; 66   : #  else
; 67   :     __pointer->~_Tp();
; 68   : #  endif
; 69   : # endif
; 70   : # ifdef _STLP_DEBUG_UNINITIALIZED
; 71   : 	memset((char*)__pointer, _STLP_SHRED_BYTE, sizeof(_Tp));
; 72   : # endif
; 73   : }

  00000	c3		 ret	 0
??$_Destroy@G@_STL@@YAXPAG@Z ENDP			; _STL::_Destroy<unsigned short>
_TEXT	ENDS
PUBLIC	??$_Destroy@U?$pair@$$CBGG@_STL@@@_STL@@YAXPAU?$pair@$$CBGG@0@@Z ; _STL::_Destroy<_STL::pair<unsigned short const ,unsigned short> >
; Function compile flags: /Ogsy
;	COMDAT ??$_Destroy@U?$pair@$$CBGG@_STL@@@_STL@@YAXPAU?$pair@$$CBGG@0@@Z
_TEXT	SEGMENT
___pointer$ = 8						; size = 4
??$_Destroy@U?$pair@$$CBGG@_STL@@@_STL@@YAXPAU?$pair@$$CBGG@0@@Z PROC NEAR ; _STL::_Destroy<_STL::pair<unsigned short const ,unsigned short> >, COMDAT

; 57   : # if _MSC_VER >= 1010
; 58   :   __pointer;
; 59   : # endif	// _MSC_VER >= 1000
; 60   : # ifdef _STLP_TRIVIAL_DESTRUCTOR_BUG
; 61   :   typedef typename __type_traits<_Tp>::has_trivial_destructor _Trivial_destructor;
; 62   :   __destroy_aux(__pointer, _Trivial_destructor());
; 63   : # else
; 64   : #  if ( defined (__BORLANDC__) && ( __BORLANDC__ < 0x500 ) )
; 65   :     __pointer->_Tp::~_Tp();
; 66   : #  else
; 67   :     __pointer->~_Tp();
; 68   : #  endif
; 69   : # endif
; 70   : # ifdef _STLP_DEBUG_UNINITIALIZED
; 71   : 	memset((char*)__pointer, _STLP_SHRED_BYTE, sizeof(_Tp));
; 72   : # endif
; 73   : }

  00000	c3		 ret	 0
??$_Destroy@U?$pair@$$CBGG@_STL@@@_STL@@YAXPAU?$pair@$$CBGG@0@@Z ENDP ; _STL::_Destroy<_STL::pair<unsigned short const ,unsigned short> >
_TEXT	ENDS
PUBLIC	?Release@?$CTypeTable@VFRAME_TYPE@@@@QAEXXZ	; CTypeTable<FRAME_TYPE>::Release
EXTRN	??_V@YAXPAX@Z:NEAR				; operator delete[]
; Function compile flags: /Ogsy
; File c:\darkeden\designed_common\project\client\ctypetable.h
;	COMDAT ?Release@?$CTypeTable@VFRAME_TYPE@@@@QAEXXZ
_TEXT	SEGMENT
?Release@?$CTypeTable@VFRAME_TYPE@@@@QAEXXZ PROC NEAR	; CTypeTable<FRAME_TYPE>::Release, COMDAT
; _this$ = ecx

; 108  : {

  00000	56		 push	 esi
  00001	8b f1		 mov	 esi, ecx

; 109  : 	if (m_pTypeInfo != NULL)

  00003	8b 46 04	 mov	 eax, DWORD PTR [esi+4]
  00006	85 c0		 test	 eax, eax
  00008	74 0e		 je	 SHORT $L102831

; 110  : 	{
; 111  : 		//  CSprite .
; 112  : 		delete [] m_pTypeInfo;

  0000a	50		 push	 eax
  0000b	e8 00 00 00 00	 call	 ??_V@YAXPAX@Z		; operator delete[]

; 113  : 		m_pTypeInfo = NULL;

  00010	83 66 04 00	 and	 DWORD PTR [esi+4], 0

; 114  : 		
; 115  : 		m_Size = 0;

  00014	83 26 00	 and	 DWORD PTR [esi], 0
  00017	59		 pop	 ecx
$L102831:
  00018	5e		 pop	 esi

; 116  : 	}
; 117  : }

  00019	c3		 ret	 0
?Release@?$CTypeTable@VFRAME_TYPE@@@@QAEXXZ ENDP	; CTypeTable<FRAME_TYPE>::Release
_TEXT	ENDS
PUBLIC	?tie@?$basic_ios@DV?$char_traits@D@_STL@@@_STL@@QBEPAV?$basic_ostream@DV?$char_traits@D@_STL@@@2@XZ ; _STL::basic_ios<char,_STL::char_traits<char> >::tie
; Function compile flags: /Ogsy
; File c:\stlport-4.6.1\stlport\stl\_ios.h
;	COMDAT ?tie@?$basic_ios@DV?$char_traits@D@_STL@@@_STL@@QBEPAV?$basic_ostream@DV?$char_traits@D@_STL@@@2@XZ
_TEXT	SEGMENT
?tie@?$basic_ios@DV?$char_traits@D@_STL@@@_STL@@QBEPAV?$basic_ostream@DV?$char_traits@D@_STL@@@2@XZ PROC NEAR ; _STL::basic_ios<char,_STL::char_traits<char> >::tie, COMDAT
; _this$ = ecx

; 62   :     return _M_tied_ostream;

  00000	8b 41 5c	 mov	 eax, DWORD PTR [ecx+92]

; 63   :   }

  00003	c3		 ret	 0
?tie@?$basic_ios@DV?$char_traits@D@_STL@@@_STL@@QBEPAV?$basic_ostream@DV?$char_traits@D@_STL@@@2@XZ ENDP ; _STL::basic_ios<char,_STL::char_traits<char> >::tie
_TEXT	ENDS
PUBLIC	?_S_parent@?$_Rb_tree@GU?$pair@$$CBGG@_STL@@U?$_Select1st@U?$pair@$$CBGG@_STL@@@2@U?$less@G@2@V?$allocator@U?$pair@$$CBGG@_STL@@@2@@_STL@@KAAAPAU?$_Rb_tree_node@U?$pair@$$CBGG@_STL@@@2@PAU32@@Z ; _STL::_Rb_tree<unsigned short,_STL::pair<unsigned short const ,unsigned short>,_STL::_Select1st<_STL::pair<unsigned short const ,unsigned short> >,_STL::less<unsigned short>,_STL::allocator<_STL::pair<unsigned short const ,unsigned short> > >::_S_parent
; Function compile flags: /Ogsy
; File c:\stlport-4.6.1\stlport\stl\_tree.h
;	COMDAT ?_S_parent@?$_Rb_tree@GU?$pair@$$CBGG@_STL@@U?$_Select1st@U?$pair@$$CBGG@_STL@@@2@U?$less@G@2@V?$allocator@U?$pair@$$CBGG@_STL@@@2@@_STL@@KAAAPAU?$_Rb_tree_node@U?$pair@$$CBGG@_STL@@@2@PAU32@@Z
_TEXT	SEGMENT
___x$ = 8						; size = 4
?_S_parent@?$_Rb_tree@GU?$pair@$$CBGG@_STL@@U?$_Select1st@U?$pair@$$CBGG@_STL@@@2@U?$less@G@2@V?$allocator@U?$pair@$$CBGG@_STL@@@2@@_STL@@KAAAPAU?$_Rb_tree_node@U?$pair@$$CBGG@_STL@@@2@PAU32@@Z PROC NEAR ; _STL::_Rb_tree<unsigned short,_STL::pair<unsigned short const ,unsigned short>,_STL::_Select1st<_STL::pair<unsigned short const ,unsigned short> >,_STL::less<unsigned short>,_STL::allocator<_STL::pair<unsigned short const ,unsigned short> > >::_S_parent, COMDAT

; 276  :     { return (_Link_type&)(__x->_M_parent); }

  00000	8b 44 24 04	 mov	 eax, DWORD PTR ___x$[esp-4]
  00004	83 c0 04	 add	 eax, 4
  00007	c3		 ret	 0
?_S_parent@?$_Rb_tree@GU?$pair@$$CBGG@_STL@@U?$_Select1st@U?$pair@$$CBGG@_STL@@@2@U?$less@G@2@V?$allocator@U?$pair@$$CBGG@_STL@@@2@@_STL@@KAAAPAU?$_Rb_tree_node@U?$pair@$$CBGG@_STL@@@2@PAU32@@Z ENDP ; _STL::_Rb_tree<unsigned short,_STL::pair<unsigned short const ,unsigned short>,_STL::_Select1st<_STL::pair<unsigned short const ,unsigned short> >,_STL::less<unsigned short>,_STL::allocator<_STL::pair<unsigned short const ,unsigned short> > >::_S_parent
_TEXT	ENDS
PUBLIC	??0?$pair@$$CBGG@_STL@@QAE@ABU01@@Z		; _STL::pair<unsigned short const ,unsigned short>::pair<unsigned short const ,unsigned short>
; Function compile flags: /Ogsy
; File c:\stlport-4.6.1\stlport\stl\_pair.h
;	COMDAT ??0?$pair@$$CBGG@_STL@@QAE@ABU01@@Z
_TEXT	SEGMENT
___o$ = 8						; size = 4
??0?$pair@$$CBGG@_STL@@QAE@ABU01@@Z PROC NEAR		; _STL::pair<unsigned short const ,unsigned short>::pair<unsigned short const ,unsigned short>, COMDAT
; _this$ = ecx

; 54   :   pair(const pair<_T1,_T2>& __o) : first(__o.first), second(__o.second) {}

  00000	8b c1		 mov	 eax, ecx
  00002	8b 4c 24 04	 mov	 ecx, DWORD PTR ___o$[esp-4]
  00006	66 8b 11	 mov	 dx, WORD PTR [ecx]
  00009	66 89 10	 mov	 WORD PTR [eax], dx
  0000c	66 8b 49 02	 mov	 cx, WORD PTR [ecx+2]
  00010	66 89 48 02	 mov	 WORD PTR [eax+2], cx
  00014	c2 04 00	 ret	 4
??0?$pair@$$CBGG@_STL@@QAE@ABU01@@Z ENDP		; _STL::pair<unsigned short const ,unsigned short>::pair<unsigned short const ,unsigned short>
_TEXT	ENDS
PUBLIC	??0_List_iterator_base@_STL@@QAE@PAU_List_node_base@1@@Z ; _STL::_List_iterator_base::_List_iterator_base
; Function compile flags: /Ogsy
; File c:\stlport-4.6.1\stlport\stl\_list.h
;	COMDAT ??0_List_iterator_base@_STL@@QAE@PAU_List_node_base@1@@Z
_TEXT	SEGMENT
___x$ = 8						; size = 4
??0_List_iterator_base@_STL@@QAE@PAU_List_node_base@1@@Z PROC NEAR ; _STL::_List_iterator_base::_List_iterator_base, COMDAT
; _this$ = ecx

; 95   :   _List_iterator_base(_List_node_base* __x) : _M_node(__x) {}

  00000	8b c1		 mov	 eax, ecx
  00002	8b 4c 24 04	 mov	 ecx, DWORD PTR ___x$[esp-4]
  00006	89 08		 mov	 DWORD PTR [eax], ecx
  00008	c2 04 00	 ret	 4
??0_List_iterator_base@_STL@@QAE@PAU_List_node_base@1@@Z ENDP ; _STL::_List_iterator_base::_List_iterator_base
_TEXT	ENDS
PUBLIC	?_M_incr@_List_iterator_base@_STL@@QAEXXZ	; _STL::_List_iterator_base::_M_incr
; Function compile flags: /Ogsy
;	COMDAT ?_M_incr@_List_iterator_base@_STL@@QAEXXZ
_TEXT	SEGMENT
?_M_incr@_List_iterator_base@_STL@@QAEXXZ PROC NEAR	; _STL::_List_iterator_base::_M_incr, COMDAT
; _this$ = ecx

; 98   :   void _M_incr() { _M_node = _M_node->_M_next; }

  00000	8b 01		 mov	 eax, DWORD PTR [ecx]
  00002	8b 00		 mov	 eax, DWORD PTR [eax]
  00004	89 01		 mov	 DWORD PTR [ecx], eax
  00006	c3		 ret	 0
?_M_incr@_List_iterator_base@_STL@@QAEXXZ ENDP		; _STL::_List_iterator_base::_M_incr
_TEXT	ENDS
PUBLIC	??9_List_iterator_base@_STL@@QBE_NABU01@@Z	; _STL::_List_iterator_base::operator!=
; Function compile flags: /Ogsy
;	COMDAT ??9_List_iterator_base@_STL@@QBE_NABU01@@Z
_TEXT	SEGMENT
___y$ = 8						; size = 4
??9_List_iterator_base@_STL@@QBE_NABU01@@Z PROC NEAR	; _STL::_List_iterator_base::operator!=, COMDAT
; _this$ = ecx

; 104  :     return _M_node != __y._M_node; 

  00000	8b 01		 mov	 eax, DWORD PTR [ecx]
  00002	8b 54 24 04	 mov	 edx, DWORD PTR ___y$[esp-4]
  00006	33 c9		 xor	 ecx, ecx
  00008	3b 02		 cmp	 eax, DWORD PTR [edx]
  0000a	0f 95 c1	 setne	 cl
  0000d	8a c1		 mov	 al, cl

; 105  :   }

  0000f	c2 04 00	 ret	 4
??9_List_iterator_base@_STL@@QBE_NABU01@@Z ENDP		; _STL::_List_iterator_base::operator!=
_TEXT	ENDS
PUBLIC	??8_Rb_tree_base_iterator@_STL@@QBE_NABU01@@Z	; _STL::_Rb_tree_base_iterator::operator==
; Function compile flags: /Ogsy
; File c:\stlport-4.6.1\stlport\stl\_tree.h
;	COMDAT ??8_Rb_tree_base_iterator@_STL@@QBE_NABU01@@Z
_TEXT	SEGMENT
___y$ = 8						; size = 4
??8_Rb_tree_base_iterator@_STL@@QBE_NABU01@@Z PROC NEAR	; _STL::_Rb_tree_base_iterator::operator==, COMDAT
; _this$ = ecx

; 147  :     return _M_node == __y._M_node;

  00000	8b 01		 mov	 eax, DWORD PTR [ecx]
  00002	8b 4c 24 04	 mov	 ecx, DWORD PTR ___y$[esp-4]
  00006	2b 01		 sub	 eax, DWORD PTR [ecx]
  00008	f7 d8		 neg	 eax
  0000a	1b c0		 sbb	 eax, eax
  0000c	40		 inc	 eax

; 148  :   }

  0000d	c2 04 00	 ret	 4
??8_Rb_tree_base_iterator@_STL@@QBE_NABU01@@Z ENDP	; _STL::_Rb_tree_base_iterator::operator==
_TEXT	ENDS
PUBLIC	??9_Rb_tree_base_iterator@_STL@@QBE_NABU01@@Z	; _STL::_Rb_tree_base_iterator::operator!=
; Function compile flags: /Ogsy
;	COMDAT ??9_Rb_tree_base_iterator@_STL@@QBE_NABU01@@Z
_TEXT	SEGMENT
___y$ = 8						; size = 4
??9_Rb_tree_base_iterator@_STL@@QBE_NABU01@@Z PROC NEAR	; _STL::_Rb_tree_base_iterator::operator!=, COMDAT
; _this$ = ecx

; 150  :     return _M_node != __y._M_node;

  00000	8b 01		 mov	 eax, DWORD PTR [ecx]
  00002	8b 54 24 04	 mov	 edx, DWORD PTR ___y$[esp-4]
  00006	33 c9		 xor	 ecx, ecx
  00008	3b 02		 cmp	 eax, DWORD PTR [edx]
  0000a	0f 95 c1	 setne	 cl
  0000d	8a c1		 mov	 al, cl

; 151  :   }

  0000f	c2 04 00	 ret	 4
??9_Rb_tree_base_iterator@_STL@@QBE_NABU01@@Z ENDP	; _STL::_Rb_tree_base_iterator::operator!=
_TEXT	ENDS
PUBLIC	??1?$allocator@G@_STL@@QAE@XZ			; _STL::allocator<unsigned short>::~allocator<unsigned short>
; Function compile flags: /Ogsy
; File c:\stlport-4.6.1\stlport\stl\_alloc.h
;	COMDAT ??1?$allocator@G@_STL@@QAE@XZ
_TEXT	SEGMENT
??1?$allocator@G@_STL@@QAE@XZ PROC NEAR			; _STL::allocator<unsigned short>::~allocator<unsigned short>, COMDAT
; _this$ = ecx

; 350  :   ~allocator() _STLP_NOTHROW {}

  00000	c3		 ret	 0
??1?$allocator@G@_STL@@QAE@XZ ENDP			; _STL::allocator<unsigned short>::~allocator<unsigned short>
_TEXT	ENDS
PUBLIC	?allocate@?$__node_alloc@$00$0A@@_STL@@SAPAXI@Z	; _STL::__node_alloc<1,0>::allocate
EXTRN	?_M_allocate@?$__node_alloc@$00$0A@@_STL@@CAPAXI@Z:NEAR ; _STL::__node_alloc<1,0>::_M_allocate
; Function compile flags: /Ogsy
;	COMDAT ?allocate@?$__node_alloc@$00$0A@@_STL@@SAPAXI@Z
_TEXT	SEGMENT
___n$ = 8						; size = 4
?allocate@?$__node_alloc@$00$0A@@_STL@@SAPAXI@Z PROC NEAR ; _STL::__node_alloc<1,0>::allocate, COMDAT

; 251  :   static void * _STLP_CALL allocate(size_t __n) { return (__n > (size_t)_MAX_BYTES) ?  __stl_new(__n) : _M_allocate(__n); }

  00000	8b 44 24 04	 mov	 eax, DWORD PTR ___n$[esp-4]
  00004	3d 80 00 00 00	 cmp	 eax, 128		; 00000080H
  00009	50		 push	 eax
  0000a	76 07		 jbe	 SHORT $L103720
  0000c	e8 00 00 00 00	 call	 ??2@YAPAXI@Z		; operator new
  00011	59		 pop	 ecx
  00012	c3		 ret	 0
$L103720:
  00013	e8 00 00 00 00	 call	 ?_M_allocate@?$__node_alloc@$00$0A@@_STL@@CAPAXI@Z ; _STL::__node_alloc<1,0>::_M_allocate
  00018	59		 pop	 ecx
  00019	c3		 ret	 0
?allocate@?$__node_alloc@$00$0A@@_STL@@SAPAXI@Z ENDP	; _STL::__node_alloc<1,0>::allocate
_TEXT	ENDS
PUBLIC	?deallocate@?$__node_alloc@$00$0A@@_STL@@SAXPAXI@Z ; _STL::__node_alloc<1,0>::deallocate
EXTRN	?_M_deallocate@?$__node_alloc@$00$0A@@_STL@@CAXPAXI@Z:NEAR ; _STL::__node_alloc<1,0>::_M_deallocate
; Function compile flags: /Ogsy
;	COMDAT ?deallocate@?$__node_alloc@$00$0A@@_STL@@SAXPAXI@Z
_TEXT	SEGMENT
___p$ = 8						; size = 4
___n$ = 12						; size = 4
?deallocate@?$__node_alloc@$00$0A@@_STL@@SAXPAXI@Z PROC NEAR ; _STL::__node_alloc<1,0>::deallocate, COMDAT

; 253  :   static void _STLP_CALL deallocate(void *__p, size_t __n) { if (__n > (size_t)_MAX_BYTES) __stl_delete(__p); else _M_deallocate(__p, __n); }

  00000	81 7c 24 08 80
	00 00 00	 cmp	 DWORD PTR ___n$[esp-4], 128 ; 00000080H
  00008	76 0b		 jbe	 SHORT $L98677
  0000a	ff 74 24 04	 push	 DWORD PTR ___p$[esp-4]
  0000e	e8 00 00 00 00	 call	 ??3@YAXPAX@Z		; operator delete
  00013	59		 pop	 ecx
  00014	c3		 ret	 0
$L98677:
  00015	e9 00 00 00 00	 jmp	 ?_M_deallocate@?$__node_alloc@$00$0A@@_STL@@CAXPAXI@Z ; _STL::__node_alloc<1,0>::_M_deallocate
?deallocate@?$__node_alloc@$00$0A@@_STL@@SAXPAXI@Z ENDP	; _STL::__node_alloc<1,0>::deallocate
_TEXT	ENDS
PUBLIC	?size@?$map@GGU?$less@G@_STL@@V?$allocator@U?$pair@$$CBGG@_STL@@@2@@_STL@@QBEIXZ ; _STL::map<unsigned short,unsigned short,_STL::less<unsigned short>,_STL::allocator<_STL::pair<unsigned short const ,unsigned short> > >::size
; Function compile flags: /Ogsy
; File c:\stlport-4.6.1\stlport\stl\_map.h
;	COMDAT ?size@?$map@GGU?$less@G@_STL@@V?$allocator@U?$pair@$$CBGG@_STL@@@2@@_STL@@QBEIXZ
_TEXT	SEGMENT
?size@?$map@GGU?$less@G@_STL@@V?$allocator@U?$pair@$$CBGG@_STL@@@2@@_STL@@QBEIXZ PROC NEAR ; _STL::map<unsigned short,unsigned short,_STL::less<unsigned short>,_STL::allocator<_STL::pair<unsigned short const ,unsigned short> > >::size, COMDAT
; _this$ = ecx

; 156  :   size_type size() const { return _M_t.size(); }

  00000	8b 41 04	 mov	 eax, DWORD PTR [ecx+4]
  00003	c3		 ret	 0
?size@?$map@GGU?$less@G@_STL@@V?$allocator@U?$pair@$$CBGG@_STL@@@2@@_STL@@QBEIXZ ENDP ; _STL::map<unsigned short,unsigned short,_STL::less<unsigned short>,_STL::allocator<_STL::pair<unsigned short const ,unsigned short> > >::size
_TEXT	ENDS
PUBLIC	??0?$_List_iterator@GU?$_Const_traits@G@_STL@@@_STL@@QAE@ABU?$_List_iterator@GU?$_Nonconst_traits@G@_STL@@@1@@Z ; _STL::_List_iterator<unsigned short,_STL::_Const_traits<unsigned short> >::_List_iterator<unsigned short,_STL::_Const_traits<unsigned short> >
; Function compile flags: /Ogsy
; File c:\stlport-4.6.1\stlport\stl\_list.h
;	COMDAT ??0?$_List_iterator@GU?$_Const_traits@G@_STL@@@_STL@@QAE@ABU?$_List_iterator@GU?$_Nonconst_traits@G@_STL@@@1@@Z
_TEXT	SEGMENT
___x$ = 8						; size = 4
??0?$_List_iterator@GU?$_Const_traits@G@_STL@@@_STL@@QAE@ABU?$_List_iterator@GU?$_Nonconst_traits@G@_STL@@@1@@Z PROC NEAR ; _STL::_List_iterator<unsigned short,_STL::_Const_traits<unsigned short> >::_List_iterator<unsigned short,_STL::_Const_traits<unsigned short> >, COMDAT
; _this$ = ecx

; 128  :   _List_iterator(const iterator& __x) :  _List_iterator_base(__x._M_node) {}

  00000	8b c1		 mov	 eax, ecx
  00002	8b 4c 24 04	 mov	 ecx, DWORD PTR ___x$[esp-4]
  00006	8b 09		 mov	 ecx, DWORD PTR [ecx]
  00008	89 08		 mov	 DWORD PTR [eax], ecx
  0000a	c2 04 00	 ret	 4
??0?$_List_iterator@GU?$_Const_traits@G@_STL@@@_STL@@QAE@ABU?$_List_iterator@GU?$_Nonconst_traits@G@_STL@@@1@@Z ENDP ; _STL::_List_iterator<unsigned short,_STL::_Const_traits<unsigned short> >::_List_iterator<unsigned short,_STL::_Const_traits<unsigned short> >
_TEXT	ENDS
PUBLIC	??E?$_List_iterator@GU?$_Const_traits@G@_STL@@@_STL@@QAEAAU01@XZ ; _STL::_List_iterator<unsigned short,_STL::_Const_traits<unsigned short> >::operator++
; Function compile flags: /Ogsy
;	COMDAT ??E?$_List_iterator@GU?$_Const_traits@G@_STL@@@_STL@@QAEAAU01@XZ
_TEXT	SEGMENT
??E?$_List_iterator@GU?$_Const_traits@G@_STL@@@_STL@@QAEAAU01@XZ PROC NEAR ; _STL::_List_iterator<unsigned short,_STL::_Const_traits<unsigned short> >::operator++, COMDAT
; _this$ = ecx

; 134  :   _Self& operator++() { 

  00000	8b c1		 mov	 eax, ecx

; 135  :     this->_M_incr();

  00002	8b 08		 mov	 ecx, DWORD PTR [eax]
  00004	8b 09		 mov	 ecx, DWORD PTR [ecx]
  00006	89 08		 mov	 DWORD PTR [eax], ecx

; 136  :     return *this;
; 137  :   }

  00008	c3		 ret	 0
??E?$_List_iterator@GU?$_Const_traits@G@_STL@@@_STL@@QAEAAU01@XZ ENDP ; _STL::_List_iterator<unsigned short,_STL::_Const_traits<unsigned short> >::operator++
_TEXT	ENDS
PUBLIC	??C?$_Rb_tree_iterator@U?$pair@$$CBGG@_STL@@U?$_Const_traits@U?$pair@$$CBGG@_STL@@@2@@_STL@@QBEPBU?$pair@$$CBGG@1@XZ ; _STL::_Rb_tree_iterator<_STL::pair<unsigned short const ,unsigned short>,_STL::_Const_traits<_STL::pair<unsigned short const ,unsigned short> > >::operator->
; Function compile flags: /Ogsy
; File c:\stlport-4.6.1\stlport\stl\_tree.h
;	COMDAT ??C?$_Rb_tree_iterator@U?$pair@$$CBGG@_STL@@U?$_Const_traits@U?$pair@$$CBGG@_STL@@@2@@_STL@@QBEPBU?$pair@$$CBGG@1@XZ
_TEXT	SEGMENT
??C?$_Rb_tree_iterator@U?$pair@$$CBGG@_STL@@U?$_Const_traits@U?$pair@$$CBGG@_STL@@@2@@_STL@@QBEPBU?$pair@$$CBGG@1@XZ PROC NEAR ; _STL::_Rb_tree_iterator<_STL::pair<unsigned short const ,unsigned short>,_STL::_Const_traits<_STL::pair<unsigned short const ,unsigned short> > >::operator->, COMDAT
; _this$ = ecx

; 172  :   _STLP_DEFINE_ARROW_OPERATOR

  00000	8b 01		 mov	 eax, DWORD PTR [ecx]
  00002	83 c0 10	 add	 eax, 16			; 00000010H
  00005	c3		 ret	 0
??C?$_Rb_tree_iterator@U?$pair@$$CBGG@_STL@@U?$_Const_traits@U?$pair@$$CBGG@_STL@@@2@@_STL@@QBEPBU?$pair@$$CBGG@1@XZ ENDP ; _STL::_Rb_tree_iterator<_STL::pair<unsigned short const ,unsigned short>,_STL::_Const_traits<_STL::pair<unsigned short const ,unsigned short> > >::operator->
_TEXT	ENDS
PUBLIC	?begin@?$_Rb_tree@GU?$pair@$$CBGG@_STL@@U?$_Select1st@U?$pair@$$CBGG@_STL@@@2@U?$less@G@2@V?$allocator@U?$pair@$$CBGG@_STL@@@2@@_STL@@QAE?AU?$_Rb_tree_iterator@U?$pair@$$CBGG@_STL@@U?$_Nonconst_traits@U?$pair@$$CBGG@_STL@@@2@@2@XZ ; _STL::_Rb_tree<unsigned short,_STL::pair<unsigned short const ,unsigned short>,_STL::_Select1st<_STL::pair<unsigned short const ,unsigned short> >,_STL::less<unsigned short>,_STL::allocator<_STL::pair<unsigned short const ,unsigned short> > >::begin
; Function compile flags: /Ogsy
;	COMDAT ?begin@?$_Rb_tree@GU?$pair@$$CBGG@_STL@@U?$_Select1st@U?$pair@$$CBGG@_STL@@@2@U?$less@G@2@V?$allocator@U?$pair@$$CBGG@_STL@@@2@@_STL@@QAE?AU?$_Rb_tree_iterator@U?$pair@$$CBGG@_STL@@U?$_Nonconst_traits@U?$pair@$$CBGG@_STL@@@2@@2@XZ
_TEXT	SEGMENT
___$ReturnUdt$ = 8					; size = 4
?begin@?$_Rb_tree@GU?$pair@$$CBGG@_STL@@U?$_Select1st@U?$pair@$$CBGG@_STL@@@2@U?$less@G@2@V?$allocator@U?$pair@$$CBGG@_STL@@@2@@_STL@@QAE?AU?$_Rb_tree_iterator@U?$pair@$$CBGG@_STL@@U?$_Nonconst_traits@U?$pair@$$CBGG@_STL@@@2@@2@XZ PROC NEAR ; _STL::_Rb_tree<unsigned short,_STL::pair<unsigned short const ,unsigned short>,_STL::_Select1st<_STL::pair<unsigned short const ,unsigned short> >,_STL::less<unsigned short>,_STL::allocator<_STL::pair<unsigned short const ,unsigned short> > >::begin, COMDAT
; _this$ = ecx

; 357  :   iterator begin() { return iterator(_M_leftmost()); }

  00000	8b 01		 mov	 eax, DWORD PTR [ecx]
  00002	8b 48 08	 mov	 ecx, DWORD PTR [eax+8]
  00005	8b 44 24 04	 mov	 eax, DWORD PTR ___$ReturnUdt$[esp-4]
  00009	89 08		 mov	 DWORD PTR [eax], ecx
  0000b	c2 04 00	 ret	 4
?begin@?$_Rb_tree@GU?$pair@$$CBGG@_STL@@U?$_Select1st@U?$pair@$$CBGG@_STL@@@2@U?$less@G@2@V?$allocator@U?$pair@$$CBGG@_STL@@@2@@_STL@@QAE?AU?$_Rb_tree_iterator@U?$pair@$$CBGG@_STL@@U?$_Nonconst_traits@U?$pair@$$CBGG@_STL@@@2@@2@XZ ENDP ; _STL::_Rb_tree<unsigned short,_STL::pair<unsigned short const ,unsigned short>,_STL::_Select1st<_STL::pair<unsigned short const ,unsigned short> >,_STL::less<unsigned short>,_STL::allocator<_STL::pair<unsigned short const ,unsigned short> > >::begin
_TEXT	ENDS
PUBLIC	?end@?$_Rb_tree@GU?$pair@$$CBGG@_STL@@U?$_Select1st@U?$pair@$$CBGG@_STL@@@2@U?$less@G@2@V?$allocator@U?$pair@$$CBGG@_STL@@@2@@_STL@@QAE?AU?$_Rb_tree_iterator@U?$pair@$$CBGG@_STL@@U?$_Nonconst_traits@U?$pair@$$CBGG@_STL@@@2@@2@XZ ; _STL::_Rb_tree<unsigned short,_STL::pair<unsigned short const ,unsigned short>,_STL::_Select1st<_STL::pair<unsigned short const ,unsigned short> >,_STL::less<unsigned short>,_STL::allocator<_STL::pair<unsigned short const ,unsigned short> > >::end
; Function compile flags: /Ogsy
;	COMDAT ?end@?$_Rb_tree@GU?$pair@$$CBGG@_STL@@U?$_Select1st@U?$pair@$$CBGG@_STL@@@2@U?$less@G@2@V?$allocator@U?$pair@$$CBGG@_STL@@@2@@_STL@@QAE?AU?$_Rb_tree_iterator@U?$pair@$$CBGG@_STL@@U?$_Nonconst_traits@U?$pair@$$CBGG@_STL@@@2@@2@XZ
_TEXT	SEGMENT
___$ReturnUdt$ = 8					; size = 4
?end@?$_Rb_tree@GU?$pair@$$CBGG@_STL@@U?$_Select1st@U?$pair@$$CBGG@_STL@@@2@U?$less@G@2@V?$allocator@U?$pair@$$CBGG@_STL@@@2@@_STL@@QAE?AU?$_Rb_tree_iterator@U?$pair@$$CBGG@_STL@@U?$_Nonconst_traits@U?$pair@$$CBGG@_STL@@@2@@2@XZ PROC NEAR ; _STL::_Rb_tree<unsigned short,_STL::pair<unsigned short const ,unsigned short>,_STL::_Select1st<_STL::pair<unsigned short const ,unsigned short> >,_STL::less<unsigned short>,_STL::allocator<_STL::pair<unsigned short const ,unsigned short> > >::end, COMDAT
; _this$ = ecx

; 359  :   iterator end() { return iterator(this->_M_header._M_data); }

  00000	8b 09		 mov	 ecx, DWORD PTR [ecx]
  00002	8b 44 24 04	 mov	 eax, DWORD PTR ___$ReturnUdt$[esp-4]
  00006	89 08		 mov	 DWORD PTR [eax], ecx
  00008	c2 04 00	 ret	 4
?end@?$_Rb_tree@GU?$pair@$$CBGG@_STL@@U?$_Select1st@U?$pair@$$CBGG@_STL@@@2@U?$less@G@2@V?$allocator@U?$pair@$$CBGG@_STL@@@2@@_STL@@QAE?AU?$_Rb_tree_iterator@U?$pair@$$CBGG@_STL@@U?$_Nonconst_traits@U?$pair@$$CBGG@_STL@@@2@@2@XZ ENDP ; _STL::_Rb_tree<unsigned short,_STL::pair<unsigned short const ,unsigned short>,_STL::_Select1st<_STL::pair<unsigned short const ,unsigned short> >,_STL::less<unsigned short>,_STL::allocator<_STL::pair<unsigned short const ,unsigned short> > >::end
_TEXT	ENDS
PUBLIC	??0?$_List_iterator@GU?$_Nonconst_traits@G@_STL@@@_STL@@QAE@PAU?$_List_node@G@1@@Z ; _STL::_List_iterator<unsigned short,_STL::_Nonconst_traits<unsigned short> >::_List_iterator<unsigned short,_STL::_Nonconst_traits<unsigned short> >
; Function compile flags: /Ogsy
; File c:\stlport-4.6.1\stlport\stl\_list.h
;	COMDAT ??0?$_List_iterator@GU?$_Nonconst_traits@G@_STL@@@_STL@@QAE@PAU?$_List_node@G@1@@Z
_TEXT	SEGMENT
___x$ = 8						; size = 4
??0?$_List_iterator@GU?$_Nonconst_traits@G@_STL@@@_STL@@QAE@PAU?$_List_node@G@1@@Z PROC NEAR ; _STL::_List_iterator<unsigned short,_STL::_Nonconst_traits<unsigned short> >::_List_iterator<unsigned short,_STL::_Nonconst_traits<unsigned short> >, COMDAT
; _this$ = ecx

; 126  :   _List_iterator(_Node* __x) : _List_iterator_base(__x) {}

  00000	8b c1		 mov	 eax, ecx
  00002	8b 4c 24 04	 mov	 ecx, DWORD PTR ___x$[esp-4]
  00006	89 08		 mov	 DWORD PTR [eax], ecx
  00008	c2 04 00	 ret	 4
??0?$_List_iterator@GU?$_Nonconst_traits@G@_STL@@@_STL@@QAE@PAU?$_List_node@G@1@@Z ENDP ; _STL::_List_iterator<unsigned short,_STL::_Nonconst_traits<unsigned short> >::_List_iterator<unsigned short,_STL::_Nonconst_traits<unsigned short> >
_TEXT	ENDS
PUBLIC	??1?$_STLP_alloc_proxy@PAU?$_List_node@G@_STL@@U12@V?$allocator@U?$_List_node@G@_STL@@@2@@_STL@@QAE@XZ ; _STL::_STLP_alloc_proxy<_STL::_List_node<unsigned short> *,_STL::_List_node<unsigned short>,_STL::allocator<_STL::_List_node<unsigned short> > >::~_STLP_alloc_proxy<_STL::_List_node<unsigned short> *,_STL::_List_node<unsigned short>,_STL::allocator<_STL::_List_node<unsigned short> > >
; Function compile flags: /Ogsy
;	COMDAT ??1?$_STLP_alloc_proxy@PAU?$_List_node@G@_STL@@U12@V?$allocator@U?$_List_node@G@_STL@@@2@@_STL@@QAE@XZ
_TEXT	SEGMENT
??1?$_STLP_alloc_proxy@PAU?$_List_node@G@_STL@@U12@V?$allocator@U?$_List_node@G@_STL@@@2@@_STL@@QAE@XZ PROC NEAR ; _STL::_STLP_alloc_proxy<_STL::_List_node<unsigned short> *,_STL::_List_node<unsigned short>,_STL::allocator<_STL::_List_node<unsigned short> > >::~_STLP_alloc_proxy<_STL::_List_node<unsigned short> *,_STL::_List_node<unsigned short>,_STL::allocator<_STL::_List_node<unsigned short> > >, COMDAT
; _this$ = ecx
  00000	c3		 ret	 0
??1?$_STLP_alloc_proxy@PAU?$_List_node@G@_STL@@U12@V?$allocator@U?$_List_node@G@_STL@@@2@@_STL@@QAE@XZ ENDP ; _STL::_STLP_alloc_proxy<_STL::_List_node<unsigned short> *,_STL::_List_node<unsigned short>,_STL::allocator<_STL::_List_node<unsigned short> > >::~_STLP_alloc_proxy<_STL::_List_node<unsigned short> *,_STL::_List_node<unsigned short>,_STL::allocator<_STL::_List_node<unsigned short> > >
_TEXT	ENDS
PUBLIC	??1?$_STLP_alloc_proxy@PAU?$_Rb_tree_node@U?$pair@$$CBGG@_STL@@@_STL@@U12@V?$allocator@U?$_Rb_tree_node@U?$pair@$$CBGG@_STL@@@_STL@@@2@@_STL@@QAE@XZ ; _STL::_STLP_alloc_proxy<_STL::_Rb_tree_node<_STL::pair<unsigned short const ,unsigned short> > *,_STL::_Rb_tree_node<_STL::pair<unsigned short const ,unsigned short> >,_STL::allocator<_STL::_Rb_tree_node<_STL::pair<unsigned short const ,unsigned short> > > >::~_STLP_alloc_proxy<_STL::_Rb_tree_node<_STL::pair<unsigned short const ,unsigned short> > *,_STL::_Rb_tree_node<_STL::pair<unsigned short const ,unsigned short> >,_STL::allocator<_STL::_Rb_tree_node<_STL::pair<unsigned short const ,unsigned short> > > >
; Function compile flags: /Ogsy
;	COMDAT ??1?$_STLP_alloc_proxy@PAU?$_Rb_tree_node@U?$pair@$$CBGG@_STL@@@_STL@@U12@V?$allocator@U?$_Rb_tree_node@U?$pair@$$CBGG@_STL@@@_STL@@@2@@_STL@@QAE@XZ
_TEXT	SEGMENT
??1?$_STLP_alloc_proxy@PAU?$_Rb_tree_node@U?$pair@$$CBGG@_STL@@@_STL@@U12@V?$allocator@U?$_Rb_tree_node@U?$pair@$$CBGG@_STL@@@_STL@@@2@@_STL@@QAE@XZ PROC NEAR ; _STL::_STLP_alloc_proxy<_STL::_Rb_tree_node<_STL::pair<unsigned short const ,unsigned short> > *,_STL::_Rb_tree_node<_STL::pair<unsigned short const ,unsigned short> >,_STL::allocator<_STL::_Rb_tree_node<_STL::pair<unsigned short const ,unsigned short> > > >::~_STLP_alloc_proxy<_STL::_Rb_tree_node<_STL::pair<unsigned short const ,unsigned short> > *,_STL::_Rb_tree_node<_STL::pair<unsigned short const ,unsigned short> >,_STL::allocator<_STL::_Rb_tree_node<_STL::pair<unsigned short const ,unsigned short> > > >, COMDAT
; _this$ = ecx
  00000	c3		 ret	 0
??1?$_STLP_alloc_proxy@PAU?$_Rb_tree_node@U?$pair@$$CBGG@_STL@@@_STL@@U12@V?$allocator@U?$_Rb_tree_node@U?$pair@$$CBGG@_STL@@@_STL@@@2@@_STL@@QAE@XZ ENDP ; _STL::_STLP_alloc_proxy<_STL::_Rb_tree_node<_STL::pair<unsigned short const ,unsigned short> > *,_STL::_Rb_tree_node<_STL::pair<unsigned short const ,unsigned short> >,_STL::allocator<_STL::_Rb_tree_node<_STL::pair<unsigned short const ,unsigned short> > > >::~_STLP_alloc_proxy<_STL::_Rb_tree_node<_STL::pair<unsigned short const ,unsigned short> > *,_STL::_Rb_tree_node<_STL::pair<unsigned short const ,unsigned short> >,_STL::allocator<_STL::_Rb_tree_node<_STL::pair<unsigned short const ,unsigned short> > > >
_TEXT	ENDS
PUBLIC	??0?$_STLP_alloc_proxy@PAU?$_List_node@G@_STL@@U12@V?$allocator@U?$_List_node@G@_STL@@@2@@_STL@@QAE@ABV?$allocator@U?$_List_node@G@_STL@@@1@PAU?$_List_node@G@1@@Z ; _STL::_STLP_alloc_proxy<_STL::_List_node<unsigned short> *,_STL::_List_node<unsigned short>,_STL::allocator<_STL::_List_node<unsigned short> > >::_STLP_alloc_proxy<_STL::_List_node<unsigned short> *,_STL::_List_node<unsigned short>,_STL::allocator<_STL::_List_node<unsigned short> > >
; Function compile flags: /Ogsy
; File c:\stlport-4.6.1\stlport\stl\_alloc.h
;	COMDAT ??0?$_STLP_alloc_proxy@PAU?$_List_node@G@_STL@@U12@V?$allocator@U?$_List_node@G@_STL@@@2@@_STL@@QAE@ABV?$allocator@U?$_List_node@G@_STL@@@1@PAU?$_List_node@G@1@@Z
_TEXT	SEGMENT
___a$ = 8						; size = 4
___p$ = 12						; size = 4
??0?$_STLP_alloc_proxy@PAU?$_List_node@G@_STL@@U12@V?$allocator@U?$_List_node@G@_STL@@@2@@_STL@@QAE@ABV?$allocator@U?$_List_node@G@_STL@@@1@PAU?$_List_node@G@1@@Z PROC NEAR ; _STL::_STLP_alloc_proxy<_STL::_List_node<unsigned short> *,_STL::_List_node<unsigned short>,_STL::allocator<_STL::_List_node<unsigned short> > >::_STLP_alloc_proxy<_STL::_List_node<unsigned short> *,_STL::_List_node<unsigned short>,_STL::allocator<_STL::_List_node<unsigned short> > >, COMDAT
; _this$ = ecx

; 487  :   inline _STLP_alloc_proxy(const _MaybeReboundAlloc& __a, _Value __p) : _MaybeReboundAlloc(__a), _M_data(__p) {}

  00000	8b c1		 mov	 eax, ecx
  00002	8b 4c 24 08	 mov	 ecx, DWORD PTR ___p$[esp-4]
  00006	89 08		 mov	 DWORD PTR [eax], ecx
  00008	c2 08 00	 ret	 8
??0?$_STLP_alloc_proxy@PAU?$_List_node@G@_STL@@U12@V?$allocator@U?$_List_node@G@_STL@@@2@@_STL@@QAE@ABV?$allocator@U?$_List_node@G@_STL@@@1@PAU?$_List_node@G@1@@Z ENDP ; _STL::_STLP_alloc_proxy<_STL::_List_node<unsigned short> *,_STL::_List_node<unsigned short>,_STL::allocator<_STL::_List_node<unsigned short> > >::_STLP_alloc_proxy<_STL::_List_node<unsigned short> *,_STL::_List_node<unsigned short>,_STL::allocator<_STL::_List_node<unsigned short> > >
_TEXT	ENDS
PUBLIC	?allocate@?$allocator@U?$_List_node@G@_STL@@@_STL@@QAEPAU?$_List_node@G@2@IPBX@Z ; _STL::allocator<_STL::_List_node<unsigned short> >::allocate
; Function compile flags: /Ogsy
;	COMDAT ?allocate@?$allocator@U?$_List_node@G@_STL@@@_STL@@QAEPAU?$_List_node@G@2@IPBX@Z
_TEXT	SEGMENT
___n$ = 8						; size = 4
___formal$ = 12						; size = 4
?allocate@?$allocator@U?$_List_node@G@_STL@@@_STL@@QAEPAU?$_List_node@G@2@IPBX@Z PROC NEAR ; _STL::allocator<_STL::_List_node<unsigned short> >::allocate, COMDAT
; _this$ = ecx

; 355  :     return __n != 0 ? __REINTERPRET_CAST(value_type*,__sgi_alloc::allocate(__n * sizeof(value_type))) : 0;

  00000	8b 44 24 04	 mov	 eax, DWORD PTR ___n$[esp-4]
  00004	85 c0		 test	 eax, eax
  00006	74 0f		 je	 SHORT $L103799
  00008	8d 04 40	 lea	 eax, DWORD PTR [eax+eax*2]
  0000b	c1 e0 02	 shl	 eax, 2
  0000e	50		 push	 eax
  0000f	e8 00 00 00 00	 call	 ?allocate@?$__node_alloc@$00$0A@@_STL@@SAPAXI@Z ; _STL::__node_alloc<1,0>::allocate
  00014	59		 pop	 ecx
  00015	eb 02		 jmp	 SHORT $L103800
$L103799:
  00017	33 c0		 xor	 eax, eax
$L103800:

; 356  :   }

  00019	c2 08 00	 ret	 8
?allocate@?$allocator@U?$_List_node@G@_STL@@@_STL@@QAEPAU?$_List_node@G@2@IPBX@Z ENDP ; _STL::allocator<_STL::_List_node<unsigned short> >::allocate
_TEXT	ENDS
PUBLIC	?deallocate@?$allocator@U?$_List_node@G@_STL@@@_STL@@QAEXPAU?$_List_node@G@2@I@Z ; _STL::allocator<_STL::_List_node<unsigned short> >::deallocate
; Function compile flags: /Ogsy
;	COMDAT ?deallocate@?$allocator@U?$_List_node@G@_STL@@@_STL@@QAEXPAU?$_List_node@G@2@I@Z
_TEXT	SEGMENT
___p$ = 8						; size = 4
___n$ = 12						; size = 4
?deallocate@?$allocator@U?$_List_node@G@_STL@@@_STL@@QAEXPAU?$_List_node@G@2@I@Z PROC NEAR ; _STL::allocator<_STL::_List_node<unsigned short> >::deallocate, COMDAT
; _this$ = ecx

; 359  :     _STLP_ASSERT( (__p == 0) == (__n == 0) )
; 360  :       if (__p != 0) __sgi_alloc::deallocate((void*)__p, __n * sizeof(value_type));

  00000	83 7c 24 04 00	 cmp	 DWORD PTR ___p$[esp-4], 0
  00005	74 16		 je	 SHORT $L102286
  00007	8b 44 24 08	 mov	 eax, DWORD PTR ___n$[esp-4]
  0000b	8d 04 40	 lea	 eax, DWORD PTR [eax+eax*2]
  0000e	c1 e0 02	 shl	 eax, 2
  00011	50		 push	 eax
  00012	ff 74 24 08	 push	 DWORD PTR ___p$[esp]
  00016	e8 00 00 00 00	 call	 ?deallocate@?$__node_alloc@$00$0A@@_STL@@SAXPAXI@Z ; _STL::__node_alloc<1,0>::deallocate
  0001b	59		 pop	 ecx
  0001c	59		 pop	 ecx
$L102286:

; 361  :   }

  0001d	c2 08 00	 ret	 8
?deallocate@?$allocator@U?$_List_node@G@_STL@@@_STL@@QAEXPAU?$_List_node@G@2@I@Z ENDP ; _STL::allocator<_STL::_List_node<unsigned short> >::deallocate
_TEXT	ENDS
PUBLIC	?_M_empty_initialize@?$_Rb_tree@GU?$pair@$$CBGG@_STL@@U?$_Select1st@U?$pair@$$CBGG@_STL@@@2@U?$less@G@2@V?$allocator@U?$pair@$$CBGG@_STL@@@2@@_STL@@AAEXXZ ; _STL::_Rb_tree<unsigned short,_STL::pair<unsigned short const ,unsigned short>,_STL::_Select1st<_STL::pair<unsigned short const ,unsigned short> >,_STL::less<unsigned short>,_STL::allocator<_STL::pair<unsigned short const ,unsigned short> > >::_M_empty_initialize
; Function compile flags: /Ogsy
; File c:\stlport-4.6.1\stlport\stl\_tree.h
;	COMDAT ?_M_empty_initialize@?$_Rb_tree@GU?$pair@$$CBGG@_STL@@U?$_Select1st@U?$pair@$$CBGG@_STL@@@2@U?$less@G@2@V?$allocator@U?$pair@$$CBGG@_STL@@@2@@_STL@@AAEXXZ
_TEXT	SEGMENT
?_M_empty_initialize@?$_Rb_tree@GU?$pair@$$CBGG@_STL@@U?$_Select1st@U?$pair@$$CBGG@_STL@@@2@U?$less@G@2@V?$allocator@U?$pair@$$CBGG@_STL@@@2@@_STL@@AAEXXZ PROC NEAR ; _STL::_Rb_tree<unsigned short,_STL::pair<unsigned short const ,unsigned short>,_STL::_Select1st<_STL::pair<unsigned short const ,unsigned short> >,_STL::less<unsigned short>,_STL::allocator<_STL::pair<unsigned short const ,unsigned short> > >::_M_empty_initialize, COMDAT
; _this$ = ecx

; 346  :     _S_color(this->_M_header._M_data) = _S_rb_tree_red; // used to distinguish header from 

  00000	8b 01		 mov	 eax, DWORD PTR [ecx]
  00002	c6 00 00	 mov	 BYTE PTR [eax], 0

; 347  :                                           // __root, in iterator.operator++
; 348  :     _M_root() = 0;

  00005	8b 01		 mov	 eax, DWORD PTR [ecx]
  00007	83 60 04 00	 and	 DWORD PTR [eax+4], 0

; 349  :     _M_leftmost() = this->_M_header._M_data;

  0000b	8b 01		 mov	 eax, DWORD PTR [ecx]
  0000d	89 40 08	 mov	 DWORD PTR [eax+8], eax

; 350  :     _M_rightmost() = this->_M_header._M_data;

  00010	8b 09		 mov	 ecx, DWORD PTR [ecx]
  00012	89 49 0c	 mov	 DWORD PTR [ecx+12], ecx

; 351  :   }

  00015	c3		 ret	 0
?_M_empty_initialize@?$_Rb_tree@GU?$pair@$$CBGG@_STL@@U?$_Select1st@U?$pair@$$CBGG@_STL@@@2@U?$less@G@2@V?$allocator@U?$pair@$$CBGG@_STL@@@2@@_STL@@AAEXXZ ENDP ; _STL::_Rb_tree<unsigned short,_STL::pair<unsigned short const ,unsigned short>,_STL::_Select1st<_STL::pair<unsigned short const ,unsigned short> >,_STL::less<unsigned short>,_STL::allocator<_STL::pair<unsigned short const ,unsigned short> > >::_M_empty_initialize
_TEXT	ENDS
PUBLIC	?deallocate@?$allocator@U?$_Rb_tree_node@U?$pair@$$CBGG@_STL@@@_STL@@@_STL@@QAEXPAU?$_Rb_tree_node@U?$pair@$$CBGG@_STL@@@2@I@Z ; _STL::allocator<_STL::_Rb_tree_node<_STL::pair<unsigned short const ,unsigned short> > >::deallocate
; Function compile flags: /Ogsy
; File c:\stlport-4.6.1\stlport\stl\_alloc.h
;	COMDAT ?deallocate@?$allocator@U?$_Rb_tree_node@U?$pair@$$CBGG@_STL@@@_STL@@@_STL@@QAEXPAU?$_Rb_tree_node@U?$pair@$$CBGG@_STL@@@2@I@Z
_TEXT	SEGMENT
___p$ = 8						; size = 4
___n$ = 12						; size = 4
?deallocate@?$allocator@U?$_Rb_tree_node@U?$pair@$$CBGG@_STL@@@_STL@@@_STL@@QAEXPAU?$_Rb_tree_node@U?$pair@$$CBGG@_STL@@@2@I@Z PROC NEAR ; _STL::allocator<_STL::_Rb_tree_node<_STL::pair<unsigned short const ,unsigned short> > >::deallocate, COMDAT
; _this$ = ecx

; 359  :     _STLP_ASSERT( (__p == 0) == (__n == 0) )
; 360  :       if (__p != 0) __sgi_alloc::deallocate((void*)__p, __n * sizeof(value_type));

  00000	83 7c 24 04 00	 cmp	 DWORD PTR ___p$[esp-4], 0
  00005	74 16		 je	 SHORT $L102311
  00007	8b 44 24 08	 mov	 eax, DWORD PTR ___n$[esp-4]
  0000b	8d 04 80	 lea	 eax, DWORD PTR [eax+eax*4]
  0000e	c1 e0 02	 shl	 eax, 2
  00011	50		 push	 eax
  00012	ff 74 24 08	 push	 DWORD PTR ___p$[esp]
  00016	e8 00 00 00 00	 call	 ?deallocate@?$__node_alloc@$00$0A@@_STL@@SAXPAXI@Z ; _STL::__node_alloc<1,0>::deallocate
  0001b	59		 pop	 ecx
  0001c	59		 pop	 ecx
$L102311:

; 361  :   }

  0001d	c2 08 00	 ret	 8
?deallocate@?$allocator@U?$_Rb_tree_node@U?$pair@$$CBGG@_STL@@@_STL@@@_STL@@QAEXPAU?$_Rb_tree_node@U?$pair@$$CBGG@_STL@@@2@I@Z ENDP ; _STL::allocator<_STL::_Rb_tree_node<_STL::pair<unsigned short const ,unsigned short> > >::deallocate
_TEXT	ENDS
PUBLIC	??0?$_List_iterator@GU?$_Const_traits@G@_STL@@@_STL@@QAE@PAU?$_List_node@G@1@@Z ; _STL::_List_iterator<unsigned short,_STL::_Const_traits<unsigned short> >::_List_iterator<unsigned short,_STL::_Const_traits<unsigned short> >
; Function compile flags: /Ogsy
; File c:\stlport-4.6.1\stlport\stl\_list.h
;	COMDAT ??0?$_List_iterator@GU?$_Const_traits@G@_STL@@@_STL@@QAE@PAU?$_List_node@G@1@@Z
_TEXT	SEGMENT
___x$ = 8						; size = 4
??0?$_List_iterator@GU?$_Const_traits@G@_STL@@@_STL@@QAE@PAU?$_List_node@G@1@@Z PROC NEAR ; _STL::_List_iterator<unsigned short,_STL::_Const_traits<unsigned short> >::_List_iterator<unsigned short,_STL::_Const_traits<unsigned short> >, COMDAT
; _this$ = ecx

; 126  :   _List_iterator(_Node* __x) : _List_iterator_base(__x) {}

  00000	8b c1		 mov	 eax, ecx
  00002	8b 4c 24 04	 mov	 ecx, DWORD PTR ___x$[esp-4]
  00006	89 08		 mov	 DWORD PTR [eax], ecx
  00008	c2 04 00	 ret	 4
??0?$_List_iterator@GU?$_Const_traits@G@_STL@@@_STL@@QAE@PAU?$_List_node@G@1@@Z ENDP ; _STL::_List_iterator<unsigned short,_STL::_Const_traits<unsigned short> >::_List_iterator<unsigned short,_STL::_Const_traits<unsigned short> >
_TEXT	ENDS
PUBLIC	??0?$_STLP_alloc_proxy@PAU?$_Rb_tree_node@U?$pair@$$CBGG@_STL@@@_STL@@U12@V?$allocator@U?$_Rb_tree_node@U?$pair@$$CBGG@_STL@@@_STL@@@2@@_STL@@QAE@ABV?$allocator@U?$_Rb_tree_node@U?$pair@$$CBGG@_STL@@@_STL@@@1@PAU?$_Rb_tree_node@U?$pair@$$CBGG@_STL@@@1@@Z ; _STL::_STLP_alloc_proxy<_STL::_Rb_tree_node<_STL::pair<unsigned short const ,unsigned short> > *,_STL::_Rb_tree_node<_STL::pair<unsigned short const ,unsigned short> >,_STL::allocator<_STL::_Rb_tree_node<_STL::pair<unsigned short const ,unsigned short> > > >::_STLP_alloc_proxy<_STL::_Rb_tree_node<_STL::pair<unsigned short const ,unsigned short> > *,_STL::_Rb_tree_node<_STL::pair<unsigned short const ,unsigned short> >,_STL::allocator<_STL::_Rb_tree_node<_STL::pair<unsigned short const ,unsigned short> > > >
; Function compile flags: /Ogsy
; File c:\stlport-4.6.1\stlport\stl\_alloc.h
;	COMDAT ??0?$_STLP_alloc_proxy@PAU?$_Rb_tree_node@U?$pair@$$CBGG@_STL@@@_STL@@U12@V?$allocator@U?$_Rb_tree_node@U?$pair@$$CBGG@_STL@@@_STL@@@2@@_STL@@QAE@ABV?$allocator@U?$_Rb_tree_node@U?$pair@$$CBGG@_STL@@@_STL@@@1@PAU?$_Rb_tree_node@U?$pair@$$CBGG@_STL@@@1@@Z
_TEXT	SEGMENT
___a$ = 8						; size = 4
___p$ = 12						; size = 4
??0?$_STLP_alloc_proxy@PAU?$_Rb_tree_node@U?$pair@$$CBGG@_STL@@@_STL@@U12@V?$allocator@U?$_Rb_tree_node@U?$pair@$$CBGG@_STL@@@_STL@@@2@@_STL@@QAE@ABV?$allocator@U?$_Rb_tree_node@U?$pair@$$CBGG@_STL@@@_STL@@@1@PAU?$_Rb_tree_node@U?$pair@$$CBGG@_STL@@@1@@Z PROC NEAR ; _STL::_STLP_alloc_proxy<_STL::_Rb_tree_node<_STL::pair<unsigned short const ,unsigned short> > *,_STL::_Rb_tree_node<_STL::pair<unsigned short const ,unsigned short> >,_STL::allocator<_STL::_Rb_tree_node<_STL::pair<unsigned short const ,unsigned short> > > >::_STLP_alloc_proxy<_STL::_Rb_tree_node<_STL::pair<unsigned short const ,unsigned short> > *,_STL::_Rb_tree_node<_STL::pair<unsigned short const ,unsigned short> >,_STL::allocator<_STL::_Rb_tree_node<_STL::pair<unsigned short const ,unsigned short> > > >, COMDAT
; _this$ = ecx

; 487  :   inline _STLP_alloc_proxy(const _MaybeReboundAlloc& __a, _Value __p) : _MaybeReboundAlloc(__a), _M_data(__p) {}

  00000	8b c1		 mov	 eax, ecx
  00002	8b 4c 24 08	 mov	 ecx, DWORD PTR ___p$[esp-4]
  00006	89 08		 mov	 DWORD PTR [eax], ecx
  00008	c2 08 00	 ret	 8
??0?$_STLP_alloc_proxy@PAU?$_Rb_tree_node@U?$pair@$$CBGG@_STL@@@_STL@@U12@V?$allocator@U?$_Rb_tree_node@U?$pair@$$CBGG@_STL@@@_STL@@@2@@_STL@@QAE@ABV?$allocator@U?$_Rb_tree_node@U?$pair@$$CBGG@_STL@@@_STL@@@1@PAU?$_Rb_tree_node@U?$pair@$$CBGG@_STL@@@1@@Z ENDP ; _STL::_STLP_alloc_proxy<_STL::_Rb_tree_node<_STL::pair<unsigned short const ,unsigned short> > *,_STL::_Rb_tree_node<_STL::pair<unsigned short const ,unsigned short> >,_STL::allocator<_STL::_Rb_tree_node<_STL::pair<unsigned short const ,unsigned short> > > >::_STLP_alloc_proxy<_STL::_Rb_tree_node<_STL::pair<unsigned short const ,unsigned short> > *,_STL::_Rb_tree_node<_STL::pair<unsigned short const ,unsigned short> >,_STL::allocator<_STL::_Rb_tree_node<_STL::pair<unsigned short const ,unsigned short> > > >
_TEXT	ENDS
PUBLIC	?allocate@?$allocator@U?$_Rb_tree_node@U?$pair@$$CBGG@_STL@@@_STL@@@_STL@@QAEPAU?$_Rb_tree_node@U?$pair@$$CBGG@_STL@@@2@IPBX@Z ; _STL::allocator<_STL::_Rb_tree_node<_STL::pair<unsigned short const ,unsigned short> > >::allocate
; Function compile flags: /Ogsy
;	COMDAT ?allocate@?$allocator@U?$_Rb_tree_node@U?$pair@$$CBGG@_STL@@@_STL@@@_STL@@QAEPAU?$_Rb_tree_node@U?$pair@$$CBGG@_STL@@@2@IPBX@Z
_TEXT	SEGMENT
___n$ = 8						; size = 4
___formal$ = 12						; size = 4
?allocate@?$allocator@U?$_Rb_tree_node@U?$pair@$$CBGG@_STL@@@_STL@@@_STL@@QAEPAU?$_Rb_tree_node@U?$pair@$$CBGG@_STL@@@2@IPBX@Z PROC NEAR ; _STL::allocator<_STL::_Rb_tree_node<_STL::pair<unsigned short const ,unsigned short> > >::allocate, COMDAT
; _this$ = ecx

; 355  :     return __n != 0 ? __REINTERPRET_CAST(value_type*,__sgi_alloc::allocate(__n * sizeof(value_type))) : 0;

  00000	8b 44 24 04	 mov	 eax, DWORD PTR ___n$[esp-4]
  00004	85 c0		 test	 eax, eax
  00006	74 0f		 je	 SHORT $L103835
  00008	8d 04 80	 lea	 eax, DWORD PTR [eax+eax*4]
  0000b	c1 e0 02	 shl	 eax, 2
  0000e	50		 push	 eax
  0000f	e8 00 00 00 00	 call	 ?allocate@?$__node_alloc@$00$0A@@_STL@@SAPAXI@Z ; _STL::__node_alloc<1,0>::allocate
  00014	59		 pop	 ecx
  00015	eb 02		 jmp	 SHORT $L103836
$L103835:
  00017	33 c0		 xor	 eax, eax
$L103836:

; 356  :   }

  00019	c2 08 00	 ret	 8
?allocate@?$allocator@U?$_Rb_tree_node@U?$pair@$$CBGG@_STL@@@_STL@@@_STL@@QAEPAU?$_Rb_tree_node@U?$pair@$$CBGG@_STL@@@2@IPBX@Z ENDP ; _STL::allocator<_STL::_Rb_tree_node<_STL::pair<unsigned short const ,unsigned short> > >::allocate
_TEXT	ENDS
PUBLIC	?clear@?$_List_base@GV?$allocator@G@_STL@@@_STL@@QAEXXZ ; _STL::_List_base<unsigned short,_STL::allocator<unsigned short> >::clear
; Function compile flags: /Ogsy
; File c:\stlport-4.6.1\stlport\stl\_list.c
;	COMDAT ?clear@?$_List_base@GV?$allocator@G@_STL@@@_STL@@QAEXXZ
_TEXT	SEGMENT
?clear@?$_List_base@GV?$allocator@G@_STL@@@_STL@@QAEXXZ PROC NEAR ; _STL::_List_base<unsigned short,_STL::allocator<unsigned short> >::clear, COMDAT
; _this$ = ecx

; 68   : {

  00000	56		 push	 esi
  00001	57		 push	 edi
  00002	8b f9		 mov	 edi, ecx

; 69   :   _List_node<_Tp>* __cur = (_List_node<_Tp>*) this->_M_node._M_data->_M_next;

  00004	8b 07		 mov	 eax, DWORD PTR [edi]
  00006	8b 30		 mov	 esi, DWORD PTR [eax]

; 70   :   while (__cur != this->_M_node._M_data) {

  00008	3b f0		 cmp	 esi, eax
  0000a	74 12		 je	 SHORT $L102520
$L102519:

; 71   :     _List_node<_Tp>* __tmp = __cur;

  0000c	8b c6		 mov	 eax, esi

; 72   :     __cur = (_List_node<_Tp>*) __cur->_M_next;

  0000e	8b 36		 mov	 esi, DWORD PTR [esi]

; 73   :     _STLP_STD::_Destroy(&__tmp->_M_data);
; 74   :     this->_M_node.deallocate(__tmp, 1);

  00010	6a 01		 push	 1
  00012	50		 push	 eax
  00013	8b cf		 mov	 ecx, edi
  00015	e8 00 00 00 00	 call	 ?deallocate@?$allocator@U?$_List_node@G@_STL@@@_STL@@QAEXPAU?$_List_node@G@2@I@Z ; _STL::allocator<_STL::_List_node<unsigned short> >::deallocate
  0001a	3b 37		 cmp	 esi, DWORD PTR [edi]
  0001c	75 ee		 jne	 SHORT $L102519
$L102520:

; 75   :   }
; 76   :   this->_M_node._M_data->_M_next = this->_M_node._M_data;

  0001e	8b 07		 mov	 eax, DWORD PTR [edi]
  00020	89 00		 mov	 DWORD PTR [eax], eax

; 77   :   this->_M_node._M_data->_M_prev = this->_M_node._M_data;

  00022	8b 3f		 mov	 edi, DWORD PTR [edi]
  00024	89 7f 04	 mov	 DWORD PTR [edi+4], edi
  00027	5f		 pop	 edi
  00028	5e		 pop	 esi

; 78   : }

  00029	c3		 ret	 0
?clear@?$_List_base@GV?$allocator@G@_STL@@@_STL@@QAEXXZ ENDP ; _STL::_List_base<unsigned short,_STL::allocator<unsigned short> >::clear
_TEXT	ENDS
PUBLIC	?_M_erase@?$_Rb_tree@GU?$pair@$$CBGG@_STL@@U?$_Select1st@U?$pair@$$CBGG@_STL@@@2@U?$less@G@2@V?$allocator@U?$pair@$$CBGG@_STL@@@2@@_STL@@AAEXPAU?$_Rb_tree_node@U?$pair@$$CBGG@_STL@@@2@@Z ; _STL::_Rb_tree<unsigned short,_STL::pair<unsigned short const ,unsigned short>,_STL::_Select1st<_STL::pair<unsigned short const ,unsigned short> >,_STL::less<unsigned short>,_STL::allocator<_STL::pair<unsigned short const ,unsigned short> > >::_M_erase
; Function compile flags: /Ogsy
; File c:\stlport-4.6.1\stlport\stl\_tree.c
;	COMDAT ?_M_erase@?$_Rb_tree@GU?$pair@$$CBGG@_STL@@U?$_Select1st@U?$pair@$$CBGG@_STL@@@2@U?$less@G@2@V?$allocator@U?$pair@$$CBGG@_STL@@@2@@_STL@@AAEXPAU?$_Rb_tree_node@U?$pair@$$CBGG@_STL@@@2@@Z
_TEXT	SEGMENT
___x$ = 8						; size = 4
?_M_erase@?$_Rb_tree@GU?$pair@$$CBGG@_STL@@U?$_Select1st@U?$pair@$$CBGG@_STL@@@2@U?$less@G@2@V?$allocator@U?$pair@$$CBGG@_STL@@@2@@_STL@@AAEXPAU?$_Rb_tree_node@U?$pair@$$CBGG@_STL@@@2@@Z PROC NEAR ; _STL::_Rb_tree<unsigned short,_STL::pair<unsigned short const ,unsigned short>,_STL::_Select1st<_STL::pair<unsigned short const ,unsigned short> >,_STL::less<unsigned short>,_STL::allocator<_STL::pair<unsigned short const ,unsigned short> > >::_M_erase, COMDAT
; _this$ = ecx

; 637  : {

  00000	53		 push	 ebx
  00001	56		 push	 esi

; 638  :                                 // erase without rebalancing
; 639  :   while (__x != 0) {

  00002	8b 74 24 0c	 mov	 esi, DWORD PTR ___x$[esp+4]
  00006	85 f6		 test	 esi, esi
  00008	8b d9		 mov	 ebx, ecx
  0000a	74 1f		 je	 SHORT $L102538
  0000c	57		 push	 edi
$L102537:

; 640  :     _M_erase(_S_right(__x));

  0000d	ff 76 0c	 push	 DWORD PTR [esi+12]
  00010	8b cb		 mov	 ecx, ebx
  00012	e8 00 00 00 00	 call	 ?_M_erase@?$_Rb_tree@GU?$pair@$$CBGG@_STL@@U?$_Select1st@U?$pair@$$CBGG@_STL@@@2@U?$less@G@2@V?$allocator@U?$pair@$$CBGG@_STL@@@2@@_STL@@AAEXPAU?$_Rb_tree_node@U?$pair@$$CBGG@_STL@@@2@@Z ; _STL::_Rb_tree<unsigned short,_STL::pair<unsigned short const ,unsigned short>,_STL::_Select1st<_STL::pair<unsigned short const ,unsigned short> >,_STL::less<unsigned short>,_STL::allocator<_STL::pair<unsigned short const ,unsigned short> > >::_M_erase

; 641  :     _Link_type __y = _S_left(__x);

  00017	8b 7e 08	 mov	 edi, DWORD PTR [esi+8]

; 642  :     _STLP_STD::_Destroy(&__x->_M_value_field);
; 643  :     this->_M_header.deallocate(__x,1);

  0001a	6a 01		 push	 1
  0001c	56		 push	 esi
  0001d	8b cb		 mov	 ecx, ebx
  0001f	e8 00 00 00 00	 call	 ?deallocate@?$allocator@U?$_Rb_tree_node@U?$pair@$$CBGG@_STL@@@_STL@@@_STL@@QAEXPAU?$_Rb_tree_node@U?$pair@$$CBGG@_STL@@@2@I@Z ; _STL::allocator<_STL::_Rb_tree_node<_STL::pair<unsigned short const ,unsigned short> > >::deallocate
  00024	85 ff		 test	 edi, edi

; 644  :     __x = __y;

  00026	8b f7		 mov	 esi, edi
  00028	75 e3		 jne	 SHORT $L102537
  0002a	5f		 pop	 edi
$L102538:
  0002b	5e		 pop	 esi
  0002c	5b		 pop	 ebx

; 645  :   }
; 646  : }

  0002d	c2 04 00	 ret	 4
?_M_erase@?$_Rb_tree@GU?$pair@$$CBGG@_STL@@U?$_Select1st@U?$pair@$$CBGG@_STL@@@2@U?$less@G@2@V?$allocator@U?$pair@$$CBGG@_STL@@@2@@_STL@@AAEXPAU?$_Rb_tree_node@U?$pair@$$CBGG@_STL@@@2@@Z ENDP ; _STL::_Rb_tree<unsigned short,_STL::pair<unsigned short const ,unsigned short>,_STL::_Select1st<_STL::pair<unsigned short const ,unsigned short> >,_STL::less<unsigned short>,_STL::allocator<_STL::pair<unsigned short const ,unsigned short> > >::_M_erase
_TEXT	ENDS
PUBLIC	??1?$CTypeTable@VFRAME_TYPE@@@@QAE@XZ		; CTypeTable<FRAME_TYPE>::~CTypeTable<FRAME_TYPE>
; Function compile flags: /Ogsy
; File c:\darkeden\designed_common\project\client\ctypetable.h
;	COMDAT ??1?$CTypeTable@VFRAME_TYPE@@@@QAE@XZ
_TEXT	SEGMENT
??1?$CTypeTable@VFRAME_TYPE@@@@QAE@XZ PROC NEAR		; CTypeTable<FRAME_TYPE>::~CTypeTable<FRAME_TYPE>, COMDAT
; _this$ = ecx

; 72   : 	Release();

  00000	e9 00 00 00 00	 jmp	 ?Release@?$CTypeTable@VFRAME_TYPE@@@@QAEXXZ ; CTypeTable<FRAME_TYPE>::Release
??1?$CTypeTable@VFRAME_TYPE@@@@QAE@XZ ENDP		; CTypeTable<FRAME_TYPE>::~CTypeTable<FRAME_TYPE>
_TEXT	ENDS
PUBLIC	?Init@?$CTypeTable@VFRAME_TYPE@@@@QAEXH@Z	; CTypeTable<FRAME_TYPE>::Init
EXTRN	??_U@YAPAXI@Z:NEAR				; operator new[]
; Function compile flags: /Ogsy
;	COMDAT ?Init@?$CTypeTable@VFRAME_TYPE@@@@QAEXH@Z
_TEXT	SEGMENT
_size$ = 8						; size = 4
?Init@?$CTypeTable@VFRAME_TYPE@@@@QAEXH@Z PROC NEAR	; CTypeTable<FRAME_TYPE>::Init, COMDAT
; _this$ = ecx

; 87   : {

  00000	56		 push	 esi
  00001	57		 push	 edi

; 88   : 	//    
; 89   : 	if (size==0) 

  00002	8b 7c 24 0c	 mov	 edi, DWORD PTR _size$[esp+4]
  00006	85 ff		 test	 edi, edi
  00008	8b f1		 mov	 esi, ecx
  0000a	74 14		 je	 SHORT $L102611

; 90   : 		return;
; 91   : 
; 92   : 	//  
; 93   : 	Release();

  0000c	e8 00 00 00 00	 call	 ?Release@?$CTypeTable@VFRAME_TYPE@@@@QAEXXZ ; CTypeTable<FRAME_TYPE>::Release

; 94   : 
; 95   : 	//  
; 96   : 	m_Size = size;
; 97   : 	
; 98   : 	m_pTypeInfo = new Type [m_Size];	

  00011	8d 04 3f	 lea	 eax, DWORD PTR [edi+edi]
  00014	50		 push	 eax
  00015	89 3e		 mov	 DWORD PTR [esi], edi
  00017	e8 00 00 00 00	 call	 ??_U@YAPAXI@Z		; operator new[]
  0001c	59		 pop	 ecx
  0001d	89 46 04	 mov	 DWORD PTR [esi+4], eax
$L102611:
  00020	5f		 pop	 edi
  00021	5e		 pop	 esi

; 99   : }

  00022	c2 04 00	 ret	 4
?Init@?$CTypeTable@VFRAME_TYPE@@@@QAEXH@Z ENDP		; CTypeTable<FRAME_TYPE>::Init
_TEXT	ENDS
PUBLIC	?setstate@?$basic_ios@DV?$char_traits@D@_STL@@@_STL@@QAEXH@Z ; _STL::basic_ios<char,_STL::char_traits<char> >::setstate
; Function compile flags: /Ogsy
; File c:\stlport-4.6.1\stlport\stl\_ios.h
;	COMDAT ?setstate@?$basic_ios@DV?$char_traits@D@_STL@@@_STL@@QAEXH@Z
_TEXT	SEGMENT
___state$ = 8						; size = 4
?setstate@?$basic_ios@DV?$char_traits@D@_STL@@@_STL@@QAEXH@Z PROC NEAR ; _STL::basic_ios<char,_STL::char_traits<char> >::setstate, COMDAT
; _this$ = ecx

; 94   :   void setstate(iostate __state) { this->clear(rdstate() | __state); }

  00000	8b 41 08	 mov	 eax, DWORD PTR [ecx+8]
  00003	0b 44 24 04	 or	 eax, DWORD PTR ___state$[esp-4]
  00007	50		 push	 eax
  00008	e8 00 00 00 00	 call	 ?clear@?$basic_ios@DV?$char_traits@D@_STL@@@_STL@@QAEXH@Z ; _STL::basic_ios<char,_STL::char_traits<char> >::clear
  0000d	c2 04 00	 ret	 4
?setstate@?$basic_ios@DV?$char_traits@D@_STL@@@_STL@@QAEXH@Z ENDP ; _STL::basic_ios<char,_STL::char_traits<char> >::setstate
_TEXT	ENDS
PUBLIC	?_S_key@?$_Rb_tree@GU?$pair@$$CBGG@_STL@@U?$_Select1st@U?$pair@$$CBGG@_STL@@@2@U?$less@G@2@V?$allocator@U?$pair@$$CBGG@_STL@@@2@@_STL@@KAABGPAU?$_Rb_tree_node@U?$pair@$$CBGG@_STL@@@2@@Z ; _STL::_Rb_tree<unsigned short,_STL::pair<unsigned short const ,unsigned short>,_STL::_Select1st<_STL::pair<unsigned short const ,unsigned short> >,_STL::less<unsigned short>,_STL::allocator<_STL::pair<unsigned short const ,unsigned short> > >::_S_key
; Function compile flags: /Ogsy
; File c:\stlport-4.6.1\stlport\stl\_tree.h
;	COMDAT ?_S_key@?$_Rb_tree@GU?$pair@$$CBGG@_STL@@U?$_Select1st@U?$pair@$$CBGG@_STL@@@2@U?$less@G@2@V?$allocator@U?$pair@$$CBGG@_STL@@@2@@_STL@@KAABGPAU?$_Rb_tree_node@U?$pair@$$CBGG@_STL@@@2@@Z
_TEXT	SEGMENT
___x$ = 8						; size = 4
?_S_key@?$_Rb_tree@GU?$pair@$$CBGG@_STL@@U?$_Select1st@U?$pair@$$CBGG@_STL@@@2@U?$less@G@2@V?$allocator@U?$pair@$$CBGG@_STL@@@2@@_STL@@KAABGPAU?$_Rb_tree_node@U?$pair@$$CBGG@_STL@@@2@@Z PROC NEAR ; _STL::_Rb_tree<unsigned short,_STL::pair<unsigned short const ,unsigned short>,_STL::_Select1st<_STL::pair<unsigned short const ,unsigned short> >,_STL::less<unsigned short>,_STL::allocator<_STL::pair<unsigned short const ,unsigned short> > >::_S_key, COMDAT

; 280  :     { return _KeyOfValue()(_S_value(__x)); }

  00000	8b 44 24 04	 mov	 eax, DWORD PTR ___x$[esp-4]
  00004	83 c0 10	 add	 eax, 16			; 00000010H
  00007	c3		 ret	 0
?_S_key@?$_Rb_tree@GU?$pair@$$CBGG@_STL@@U?$_Select1st@U?$pair@$$CBGG@_STL@@@2@U?$less@G@2@V?$allocator@U?$pair@$$CBGG@_STL@@@2@@_STL@@KAABGPAU?$_Rb_tree_node@U?$pair@$$CBGG@_STL@@@2@@Z ENDP ; _STL::_Rb_tree<unsigned short,_STL::pair<unsigned short const ,unsigned short>,_STL::_Select1st<_STL::pair<unsigned short const ,unsigned short> >,_STL::less<unsigned short>,_STL::allocator<_STL::pair<unsigned short const ,unsigned short> > >::_S_key
_TEXT	ENDS
PUBLIC	?_S_key@?$_Rb_tree@GU?$pair@$$CBGG@_STL@@U?$_Select1st@U?$pair@$$CBGG@_STL@@@2@U?$less@G@2@V?$allocator@U?$pair@$$CBGG@_STL@@@2@@_STL@@KAABGPAU_Rb_tree_node_base@2@@Z ; _STL::_Rb_tree<unsigned short,_STL::pair<unsigned short const ,unsigned short>,_STL::_Select1st<_STL::pair<unsigned short const ,unsigned short> >,_STL::less<unsigned short>,_STL::allocator<_STL::pair<unsigned short const ,unsigned short> > >::_S_key
; Function compile flags: /Ogsy
;	COMDAT ?_S_key@?$_Rb_tree@GU?$pair@$$CBGG@_STL@@U?$_Select1st@U?$pair@$$CBGG@_STL@@@2@U?$less@G@2@V?$allocator@U?$pair@$$CBGG@_STL@@@2@@_STL@@KAABGPAU_Rb_tree_node_base@2@@Z
_TEXT	SEGMENT
___x$ = 8						; size = 4
?_S_key@?$_Rb_tree@GU?$pair@$$CBGG@_STL@@U?$_Select1st@U?$pair@$$CBGG@_STL@@@2@U?$less@G@2@V?$allocator@U?$pair@$$CBGG@_STL@@@2@@_STL@@KAABGPAU_Rb_tree_node_base@2@@Z PROC NEAR ; _STL::_Rb_tree<unsigned short,_STL::pair<unsigned short const ,unsigned short>,_STL::_Select1st<_STL::pair<unsigned short const ,unsigned short> >,_STL::less<unsigned short>,_STL::allocator<_STL::pair<unsigned short const ,unsigned short> > >::_S_key, COMDAT

; 293  :     { return _KeyOfValue()(_S_value(_Link_type(__x)));} 

  00000	8b 44 24 04	 mov	 eax, DWORD PTR ___x$[esp-4]
  00004	83 c0 10	 add	 eax, 16			; 00000010H
  00007	c3		 ret	 0
?_S_key@?$_Rb_tree@GU?$pair@$$CBGG@_STL@@U?$_Select1st@U?$pair@$$CBGG@_STL@@@2@U?$less@G@2@V?$allocator@U?$pair@$$CBGG@_STL@@@2@@_STL@@KAABGPAU_Rb_tree_node_base@2@@Z ENDP ; _STL::_Rb_tree<unsigned short,_STL::pair<unsigned short const ,unsigned short>,_STL::_Select1st<_STL::pair<unsigned short const ,unsigned short> >,_STL::less<unsigned short>,_STL::allocator<_STL::pair<unsigned short const ,unsigned short> > >::_S_key
_TEXT	ENDS
PUBLIC	??0?$pair@U?$_Rb_tree_iterator@U?$pair@$$CBGG@_STL@@U?$_Nonconst_traits@U?$pair@$$CBGG@_STL@@@2@@_STL@@_N@_STL@@QAE@ABU?$_Rb_tree_iterator@U?$pair@$$CBGG@_STL@@U?$_Nonconst_traits@U?$pair@$$CBGG@_STL@@@2@@1@AB_N@Z ; _STL::pair<_STL::_Rb_tree_iterator<_STL::pair<unsigned short const ,unsigned short>,_STL::_Nonconst_traits<_STL::pair<unsigned short const ,unsigned short> > >,bool>::pair<_STL::_Rb_tree_iterator<_STL::pair<unsigned short const ,unsigned short>,_STL::_Nonconst_traits<_STL::pair<unsigned short const ,unsigned short> > >,bool>
; Function compile flags: /Ogsy
; File c:\stlport-4.6.1\stlport\stl\_pair.h
;	COMDAT ??0?$pair@U?$_Rb_tree_iterator@U?$pair@$$CBGG@_STL@@U?$_Nonconst_traits@U?$pair@$$CBGG@_STL@@@2@@_STL@@_N@_STL@@QAE@ABU?$_Rb_tree_iterator@U?$pair@$$CBGG@_STL@@U?$_Nonconst_traits@U?$pair@$$CBGG@_STL@@@2@@1@AB_N@Z
_TEXT	SEGMENT
___a$ = 8						; size = 4
___b$ = 12						; size = 4
??0?$pair@U?$_Rb_tree_iterator@U?$pair@$$CBGG@_STL@@U?$_Nonconst_traits@U?$pair@$$CBGG@_STL@@@2@@_STL@@_N@_STL@@QAE@ABU?$_Rb_tree_iterator@U?$pair@$$CBGG@_STL@@U?$_Nonconst_traits@U?$pair@$$CBGG@_STL@@@2@@1@AB_N@Z PROC NEAR ; _STL::pair<_STL::_Rb_tree_iterator<_STL::pair<unsigned short const ,unsigned short>,_STL::_Nonconst_traits<_STL::pair<unsigned short const ,unsigned short> > >,bool>::pair<_STL::_Rb_tree_iterator<_STL::pair<unsigned short const ,unsigned short>,_STL::_Nonconst_traits<_STL::pair<unsigned short const ,unsigned short> > >,bool>, COMDAT
; _this$ = ecx

; 48   :   pair(const _T1& __a, const _T2& __b) : first(__a), second(__b) {}

  00000	8b c1		 mov	 eax, ecx
  00002	8b 4c 24 04	 mov	 ecx, DWORD PTR ___a$[esp-4]
  00006	8b 09		 mov	 ecx, DWORD PTR [ecx]
  00008	89 08		 mov	 DWORD PTR [eax], ecx
  0000a	8b 4c 24 08	 mov	 ecx, DWORD PTR ___b$[esp-4]
  0000e	8a 09		 mov	 cl, BYTE PTR [ecx]
  00010	88 48 04	 mov	 BYTE PTR [eax+4], cl
  00013	c2 08 00	 ret	 8
??0?$pair@U?$_Rb_tree_iterator@U?$pair@$$CBGG@_STL@@U?$_Nonconst_traits@U?$pair@$$CBGG@_STL@@@2@@_STL@@_N@_STL@@QAE@ABU?$_Rb_tree_iterator@U?$pair@$$CBGG@_STL@@U?$_Nonconst_traits@U?$pair@$$CBGG@_STL@@@2@@1@AB_N@Z ENDP ; _STL::pair<_STL::_Rb_tree_iterator<_STL::pair<unsigned short const ,unsigned short>,_STL::_Nonconst_traits<_STL::pair<unsigned short const ,unsigned short> > >,bool>::pair<_STL::_Rb_tree_iterator<_STL::pair<unsigned short const ,unsigned short>,_STL::_Nonconst_traits<_STL::pair<unsigned short const ,unsigned short> > >,bool>
_TEXT	ENDS
PUBLIC	?flush@?$basic_ostream@DV?$char_traits@D@_STL@@@_STL@@QAEAAV12@XZ ; _STL::basic_ostream<char,_STL::char_traits<char> >::flush
; Function compile flags: /Ogsy
; File c:\stlport-4.6.1\stlport\stl\_ostream.h
;	COMDAT ?flush@?$basic_ostream@DV?$char_traits@D@_STL@@@_STL@@QAEAAV12@XZ
_TEXT	SEGMENT
?flush@?$basic_ostream@DV?$char_traits@D@_STL@@@_STL@@QAEAAV12@XZ PROC NEAR ; _STL::basic_ostream<char,_STL::char_traits<char> >::flush, COMDAT
; _this$ = ecx

; 120  :   _Self& flush() {

  00000	56		 push	 esi
  00001	8b f1		 mov	 esi, ecx

; 121  :     if (this->rdbuf())

  00003	8b 06		 mov	 eax, DWORD PTR [esi]
  00005	8b 40 04	 mov	 eax, DWORD PTR [eax+4]
  00008	8b 4c 30 58	 mov	 ecx, DWORD PTR [eax+esi+88]
  0000c	85 c9		 test	 ecx, ecx
  0000e	74 1d		 je	 SHORT $L103918

; 122  :       if (this->rdbuf()->pubsync() == -1)

  00010	8b 01		 mov	 eax, DWORD PTR [ecx]
  00012	ff 50 10	 call	 DWORD PTR [eax+16]
  00015	83 f8 ff	 cmp	 eax, -1
  00018	75 13		 jne	 SHORT $L103918

; 123  :         this->setstate(ios_base::badbit);

  0001a	8b 06		 mov	 eax, DWORD PTR [esi]
  0001c	8b 48 04	 mov	 ecx, DWORD PTR [eax+4]
  0001f	03 ce		 add	 ecx, esi
  00021	8b 41 08	 mov	 eax, DWORD PTR [ecx+8]
  00024	83 c8 01	 or	 eax, 1
  00027	50		 push	 eax
  00028	e8 00 00 00 00	 call	 ?clear@?$basic_ios@DV?$char_traits@D@_STL@@@_STL@@QAEXH@Z ; _STL::basic_ios<char,_STL::char_traits<char> >::clear
$L103918:

; 124  :     return *this;

  0002d	8b c6		 mov	 eax, esi
  0002f	5e		 pop	 esi

; 125  :   }

  00030	c3		 ret	 0
?flush@?$basic_ostream@DV?$char_traits@D@_STL@@@_STL@@QAEAAV12@XZ ENDP ; _STL::basic_ostream<char,_STL::char_traits<char> >::flush
_TEXT	ENDS
PUBLIC	??$__distance@U?$_List_iterator@GU?$_Const_traits@G@_STL@@@_STL@@@_STL@@YAHABU?$_List_iterator@GU?$_Const_traits@G@_STL@@@0@0ABUinput_iterator_tag@0@@Z ; _STL::__distance<_STL::_List_iterator<unsigned short,_STL::_Const_traits<unsigned short> > >
; Function compile flags: /Ogsy
; File c:\stlport-4.6.1\stlport\stl\_iterator_base.h
;	COMDAT ??$__distance@U?$_List_iterator@GU?$_Const_traits@G@_STL@@@_STL@@@_STL@@YAHABU?$_List_iterator@GU?$_Const_traits@G@_STL@@@0@0ABUinput_iterator_tag@0@@Z
_TEXT	SEGMENT
___first$ = 8						; size = 4
___last$ = 12						; size = 4
___formal$ = 16						; size = 4
??$__distance@U?$_List_iterator@GU?$_Const_traits@G@_STL@@@_STL@@@_STL@@YAHABU?$_List_iterator@GU?$_Const_traits@G@_STL@@@0@0ABUinput_iterator_tag@0@@Z PROC NEAR ; _STL::__distance<_STL::_List_iterator<unsigned short,_STL::_Const_traits<unsigned short> > >, COMDAT

; 323  :   _STLP_DIFFERENCE_TYPE(_InputIterator) __n = 0;
; 324  :   _InputIterator __it(__first);  
; 325  :   while (__it != __last) {

  00000	8b 54 24 08	 mov	 edx, DWORD PTR ___last$[esp-4]
  00004	8b 4c 24 04	 mov	 ecx, DWORD PTR ___first$[esp-4]
  00008	8b 12		 mov	 edx, DWORD PTR [edx]
  0000a	33 c0		 xor	 eax, eax
  0000c	eb 01		 jmp	 SHORT $L103940
$L102844:

; 326  :     ++__it; ++__n;

  0000e	40		 inc	 eax
$L103940:
  0000f	8b 09		 mov	 ecx, DWORD PTR [ecx]
  00011	3b ca		 cmp	 ecx, edx
  00013	75 f9		 jne	 SHORT $L102844

; 327  :   }
; 328  :   return __n;
; 329  : }

  00015	c3		 ret	 0
??$__distance@U?$_List_iterator@GU?$_Const_traits@G@_STL@@@_STL@@@_STL@@YAHABU?$_List_iterator@GU?$_Const_traits@G@_STL@@@0@0ABUinput_iterator_tag@0@@Z ENDP ; _STL::__distance<_STL::_List_iterator<unsigned short,_STL::_Const_traits<unsigned short> > >
_TEXT	ENDS
PUBLIC	??$_M_init@DV?$char_traits@D@_STL@@@_STL@@YA_NAAV?$basic_ostream@DV?$char_traits@D@_STL@@@0@@Z ; _STL::_M_init<char,_STL::char_traits<char> >
; Function compile flags: /Ogsy
; File c:\stlport-4.6.1\stlport\stl\_ostream.c
;	COMDAT ??$_M_init@DV?$char_traits@D@_STL@@@_STL@@YA_NAAV?$basic_ostream@DV?$char_traits@D@_STL@@@0@@Z
_TEXT	SEGMENT
___str$ = 8						; size = 4
??$_M_init@DV?$char_traits@D@_STL@@@_STL@@YA_NAAV?$basic_ostream@DV?$char_traits@D@_STL@@@0@@Z PROC NEAR ; _STL::_M_init<char,_STL::char_traits<char> >, COMDAT

; 37   : _M_init(basic_ostream<_CharT, _Traits>& __str) {

  00000	56		 push	 esi

; 38   :   if (__str.good()) {

  00001	8b 74 24 08	 mov	 esi, DWORD PTR ___str$[esp]
  00005	8b 06		 mov	 eax, DWORD PTR [esi]
  00007	8b 40 04	 mov	 eax, DWORD PTR [eax+4]
  0000a	8d 0c 30	 lea	 ecx, DWORD PTR [eax+esi]
  0000d	83 79 08 00	 cmp	 DWORD PTR [ecx+8], 0
  00011	75 36		 jne	 SHORT $L102860

; 39   :     // boris : check if this is needed !
; 40   :     if (!__str.rdbuf())

  00013	83 79 58 00	 cmp	 DWORD PTR [ecx+88], 0
  00017	75 0c		 jne	 SHORT $L103956

; 41   :       __str.setstate(ios_base::badbit);

  00019	8b 41 08	 mov	 eax, DWORD PTR [ecx+8]
  0001c	83 c8 01	 or	 eax, 1
  0001f	50		 push	 eax
  00020	e8 00 00 00 00	 call	 ?clear@?$basic_ios@DV?$char_traits@D@_STL@@@_STL@@QAEXH@Z ; _STL::basic_ios<char,_STL::char_traits<char> >::clear
$L103956:

; 42   :     if (__str.tie())

  00025	8b 06		 mov	 eax, DWORD PTR [esi]
  00027	8b 40 04	 mov	 eax, DWORD PTR [eax+4]
  0002a	8b 4c 30 5c	 mov	 ecx, DWORD PTR [eax+esi+92]
  0002e	85 c9		 test	 ecx, ecx
  00030	74 05		 je	 SHORT $L102862

; 43   :       __str.tie()->flush();

  00032	e8 00 00 00 00	 call	 ?flush@?$basic_ostream@DV?$char_traits@D@_STL@@@_STL@@QAEAAV12@XZ ; _STL::basic_ostream<char,_STL::char_traits<char> >::flush
$L102862:

; 44   :     return __str.good();

  00037	8b 06		 mov	 eax, DWORD PTR [esi]
  00039	8b 40 04	 mov	 eax, DWORD PTR [eax+4]
  0003c	33 c9		 xor	 ecx, ecx
  0003e	39 4c 30 08	 cmp	 DWORD PTR [eax+esi+8], ecx
  00042	5e		 pop	 esi
  00043	0f 94 c1	 sete	 cl
  00046	8a c1		 mov	 al, cl

; 47   : }

  00048	c3		 ret	 0
$L102860:

; 45   :   } else
; 46   :     return false;

  00049	32 c0		 xor	 al, al
  0004b	5e		 pop	 esi

; 47   : }

  0004c	c3		 ret	 0
??$_M_init@DV?$char_traits@D@_STL@@@_STL@@YA_NAAV?$basic_ostream@DV?$char_traits@D@_STL@@@0@@Z ENDP ; _STL::_M_init<char,_STL::char_traits<char> >
_TEXT	ENDS
PUBLIC	??$_Construct@U?$pair@$$CBGG@_STL@@U12@@_STL@@YAXPAU?$pair@$$CBGG@0@ABU10@@Z ; _STL::_Construct<_STL::pair<unsigned short const ,unsigned short>,_STL::pair<unsigned short const ,unsigned short> >
; Function compile flags: /Ogsy
; File c:\stlport-4.6.1\stlport\stl\_construct.h
;	COMDAT ??$_Construct@U?$pair@$$CBGG@_STL@@U12@@_STL@@YAXPAU?$pair@$$CBGG@0@ABU10@@Z
_TEXT	SEGMENT
___p$ = 8						; size = 4
___val$ = 12						; size = 4
??$_Construct@U?$pair@$$CBGG@_STL@@U12@@_STL@@YAXPAU?$pair@$$CBGG@0@ABU10@@Z PROC NEAR ; _STL::_Construct<_STL::pair<unsigned short const ,unsigned short>,_STL::pair<unsigned short const ,unsigned short> >, COMDAT

; 94   : # ifdef _STLP_DEBUG_UNINITIALIZED
; 95   : 	memset((char*)__p, _STLP_SHRED_BYTE, sizeof(_T1));
; 96   : # endif
; 97   :     _STLP_PLACEMENT_NEW (__p) _T1(__val);

  00000	8b 44 24 04	 mov	 eax, DWORD PTR ___p$[esp-4]
  00004	85 c0		 test	 eax, eax
  00006	74 12		 je	 SHORT $L103977
  00008	8b 4c 24 08	 mov	 ecx, DWORD PTR ___val$[esp-4]
  0000c	66 8b 11	 mov	 dx, WORD PTR [ecx]
  0000f	66 89 10	 mov	 WORD PTR [eax], dx
  00012	66 8b 49 02	 mov	 cx, WORD PTR [ecx+2]
  00016	66 89 48 02	 mov	 WORD PTR [eax+2], cx
$L103977:

; 98   : }

  0001a	c3		 ret	 0
??$_Construct@U?$pair@$$CBGG@_STL@@U12@@_STL@@YAXPAU?$pair@$$CBGG@0@ABU10@@Z ENDP ; _STL::_Construct<_STL::pair<unsigned short const ,unsigned short>,_STL::pair<unsigned short const ,unsigned short> >
_TEXT	ENDS
PUBLIC	??0ACTION_FRAMEID_ARRAY@@QAE@XZ			; ACTION_FRAMEID_ARRAY::ACTION_FRAMEID_ARRAY
EXTRN	__EH_prolog:NEAR
EXTRN	__except_list:DWORD
EXTRN	___CxxFrameHandler:NEAR
;	COMDAT xdata$x
; File c:\darkeden\designed_common\project\client\ctypetable.h
xdata$x	SEGMENT
$T104000 DD	0ffffffffH
	DD	FLAT:$L103989
$T103996 DD	019930520H
	DD	01H
	DD	FLAT:$T104000
	DD	2 DUP(00H)
	DD	2 DUP(00H)
; Function compile flags: /Ogsy
; File c:\darkeden\designed_common\project\client\meffectspritetypetable.cpp
xdata$x	ENDS
;	COMDAT ??0ACTION_FRAMEID_ARRAY@@QAE@XZ
_TEXT	SEGMENT
_this$ = -16						; size = 4
__$EHRec$ = -12						; size = 12
??0ACTION_FRAMEID_ARRAY@@QAE@XZ PROC NEAR		; ACTION_FRAMEID_ARRAY::ACTION_FRAMEID_ARRAY, COMDAT
; _this$ = ecx

; 37   : {

  00000	b8 00 00 00 00	 mov	 eax, __ehhandler$??0ACTION_FRAMEID_ARRAY@@QAE@XZ
  00005	e8 00 00 00 00	 call	 __EH_prolog
  0000a	51		 push	 ecx
  0000b	56		 push	 esi
  0000c	8b f1		 mov	 esi, ecx
  0000e	33 c0		 xor	 eax, eax
  00010	89 75 f0	 mov	 DWORD PTR _this$[ebp], esi
  00013	89 46 04	 mov	 DWORD PTR [esi+4], eax
  00016	89 06		 mov	 DWORD PTR [esi], eax

; 38   : 	Init( ACTION_MAX_SLAYER );

  00018	6a 28		 push	 40			; 00000028H
  0001a	89 45 fc	 mov	 DWORD PTR __$EHRec$[ebp+8], eax
  0001d	e8 00 00 00 00	 call	 ?Init@?$CTypeTable@VFRAME_TYPE@@@@QAEXH@Z ; CTypeTable<FRAME_TYPE>::Init

; 39   : }

  00022	8b 4d f4	 mov	 ecx, DWORD PTR __$EHRec$[ebp]
  00025	8b c6		 mov	 eax, esi
  00027	5e		 pop	 esi
  00028	64 89 0d 00 00
	00 00		 mov	 DWORD PTR fs:__except_list, ecx
  0002f	c9		 leave
  00030	c3		 ret	 0
_TEXT	ENDS
;	COMDAT text$x
text$x	SEGMENT
$L103989:
  00000	8b 4d f0	 mov	 ecx, DWORD PTR _this$[ebp]
  00003	e9 00 00 00 00	 jmp	 ??1?$CTypeTable@VFRAME_TYPE@@@@QAE@XZ ; CTypeTable<FRAME_TYPE>::~CTypeTable<FRAME_TYPE>
__ehhandler$??0ACTION_FRAMEID_ARRAY@@QAE@XZ:
  00008	b8 00 00 00 00	 mov	 eax, OFFSET FLAT:$T103996
  0000d	e9 00 00 00 00	 jmp	 ___CxxFrameHandler
text$x	ENDS
??0ACTION_FRAMEID_ARRAY@@QAE@XZ ENDP			; ACTION_FRAMEID_ARRAY::ACTION_FRAMEID_ARRAY
PUBLIC	??1ACTION_FRAMEID_ARRAY@@QAE@XZ			; ACTION_FRAMEID_ARRAY::~ACTION_FRAMEID_ARRAY
; Function compile flags: /Ogsy
;	COMDAT ??1ACTION_FRAMEID_ARRAY@@QAE@XZ
_TEXT	SEGMENT
??1ACTION_FRAMEID_ARRAY@@QAE@XZ PROC NEAR		; ACTION_FRAMEID_ARRAY::~ACTION_FRAMEID_ARRAY, COMDAT
; _this$ = ecx

; 43   : }

  00000	e9 00 00 00 00	 jmp	 ?Release@?$CTypeTable@VFRAME_TYPE@@@@QAEXXZ ; CTypeTable<FRAME_TYPE>::Release
??1ACTION_FRAMEID_ARRAY@@QAE@XZ ENDP			; ACTION_FRAMEID_ARRAY::~ACTION_FRAMEID_ARRAY
_TEXT	ENDS
PUBLIC	?begin@?$list@GV?$allocator@G@_STL@@@_STL@@QAE?AU?$_List_iterator@GU?$_Nonconst_traits@G@_STL@@@2@XZ ; _STL::list<unsigned short,_STL::allocator<unsigned short> >::begin
; Function compile flags: /Ogsy
; File c:\stlport-4.6.1\stlport\stl\_list.h
;	COMDAT ?begin@?$list@GV?$allocator@G@_STL@@@_STL@@QAE?AU?$_List_iterator@GU?$_Nonconst_traits@G@_STL@@@2@XZ
_TEXT	SEGMENT
___$ReturnUdt$ = 8					; size = 4
?begin@?$list@GV?$allocator@G@_STL@@@_STL@@QAE?AU?$_List_iterator@GU?$_Nonconst_traits@G@_STL@@@2@XZ PROC NEAR ; _STL::list<unsigned short,_STL::allocator<unsigned short> >::begin, COMDAT
; _this$ = ecx

; 266  :   iterator begin()             { return iterator((_Node*)(this->_M_node._M_data->_M_next)); }

  00000	8b 01		 mov	 eax, DWORD PTR [ecx]
  00002	8b 08		 mov	 ecx, DWORD PTR [eax]
  00004	8b 44 24 04	 mov	 eax, DWORD PTR ___$ReturnUdt$[esp-4]
  00008	89 08		 mov	 DWORD PTR [eax], ecx
  0000a	c2 04 00	 ret	 4
?begin@?$list@GV?$allocator@G@_STL@@@_STL@@QAE?AU?$_List_iterator@GU?$_Nonconst_traits@G@_STL@@@2@XZ ENDP ; _STL::list<unsigned short,_STL::allocator<unsigned short> >::begin
_TEXT	ENDS
PUBLIC	?end@?$list@GV?$allocator@G@_STL@@@_STL@@QAE?AU?$_List_iterator@GU?$_Nonconst_traits@G@_STL@@@2@XZ ; _STL::list<unsigned short,_STL::allocator<unsigned short> >::end
; Function compile flags: /Ogsy
;	COMDAT ?end@?$list@GV?$allocator@G@_STL@@@_STL@@QAE?AU?$_List_iterator@GU?$_Nonconst_traits@G@_STL@@@2@XZ
_TEXT	SEGMENT
___$ReturnUdt$ = 8					; size = 4
?end@?$list@GV?$allocator@G@_STL@@@_STL@@QAE?AU?$_List_iterator@GU?$_Nonconst_traits@G@_STL@@@2@XZ PROC NEAR ; _STL::list<unsigned short,_STL::allocator<unsigned short> >::end, COMDAT
; _this$ = ecx

; 269  :   iterator end()             { return this->_M_node._M_data; }

  00000	8b 09		 mov	 ecx, DWORD PTR [ecx]
  00002	8b 44 24 04	 mov	 eax, DWORD PTR ___$ReturnUdt$[esp-4]
  00006	89 08		 mov	 DWORD PTR [eax], ecx
  00008	c2 04 00	 ret	 4
?end@?$list@GV?$allocator@G@_STL@@@_STL@@QAE?AU?$_List_iterator@GU?$_Nonconst_traits@G@_STL@@@2@XZ ENDP ; _STL::list<unsigned short,_STL::allocator<unsigned short> >::end
_TEXT	ENDS
PUBLIC	?begin@?$map@GGU?$less@G@_STL@@V?$allocator@U?$pair@$$CBGG@_STL@@@2@@_STL@@QAE?AU?$_Rb_tree_iterator@U?$pair@$$CBGG@_STL@@U?$_Nonconst_traits@U?$pair@$$CBGG@_STL@@@2@@2@XZ ; _STL::map<unsigned short,unsigned short,_STL::less<unsigned short>,_STL::allocator<_STL::pair<unsigned short const ,unsigned short> > >::begin
; Function compile flags: /Ogsy
; File c:\stlport-4.6.1\stlport\stl\_map.h
;	COMDAT ?begin@?$map@GGU?$less@G@_STL@@V?$allocator@U?$pair@$$CBGG@_STL@@@2@@_STL@@QAE?AU?$_Rb_tree_iterator@U?$pair@$$CBGG@_STL@@U?$_Nonconst_traits@U?$pair@$$CBGG@_STL@@@2@@2@XZ
_TEXT	SEGMENT
___$ReturnUdt$ = 8					; size = 4
?begin@?$map@GGU?$less@G@_STL@@V?$allocator@U?$pair@$$CBGG@_STL@@@2@@_STL@@QAE?AU?$_Rb_tree_iterator@U?$pair@$$CBGG@_STL@@U?$_Nonconst_traits@U?$pair@$$CBGG@_STL@@@2@@2@XZ PROC NEAR ; _STL::map<unsigned short,unsigned short,_STL::less<unsigned short>,_STL::allocator<_STL::pair<unsigned short const ,unsigned short> > >::begin, COMDAT
; _this$ = ecx

; 147  :   iterator begin() { return _M_t.begin(); }

  00000	8b 01		 mov	 eax, DWORD PTR [ecx]
  00002	8b 48 08	 mov	 ecx, DWORD PTR [eax+8]
  00005	8b 44 24 04	 mov	 eax, DWORD PTR ___$ReturnUdt$[esp-4]
  00009	89 08		 mov	 DWORD PTR [eax], ecx
  0000b	c2 04 00	 ret	 4
?begin@?$map@GGU?$less@G@_STL@@V?$allocator@U?$pair@$$CBGG@_STL@@@2@@_STL@@QAE?AU?$_Rb_tree_iterator@U?$pair@$$CBGG@_STL@@U?$_Nonconst_traits@U?$pair@$$CBGG@_STL@@@2@@2@XZ ENDP ; _STL::map<unsigned short,unsigned short,_STL::less<unsigned short>,_STL::allocator<_STL::pair<unsigned short const ,unsigned short> > >::begin
_TEXT	ENDS
PUBLIC	?end@?$map@GGU?$less@G@_STL@@V?$allocator@U?$pair@$$CBGG@_STL@@@2@@_STL@@QAE?AU?$_Rb_tree_iterator@U?$pair@$$CBGG@_STL@@U?$_Nonconst_traits@U?$pair@$$CBGG@_STL@@@2@@2@XZ ; _STL::map<unsigned short,unsigned short,_STL::less<unsigned short>,_STL::allocator<_STL::pair<unsigned short const ,unsigned short> > >::end
; Function compile flags: /Ogsy
;	COMDAT ?end@?$map@GGU?$less@G@_STL@@V?$allocator@U?$pair@$$CBGG@_STL@@@2@@_STL@@QAE?AU?$_Rb_tree_iterator@U?$pair@$$CBGG@_STL@@U?$_Nonconst_traits@U?$pair@$$CBGG@_STL@@@2@@2@XZ
_TEXT	SEGMENT
___$ReturnUdt$ = 8					; size = 4
?end@?$map@GGU?$less@G@_STL@@V?$allocator@U?$pair@$$CBGG@_STL@@@2@@_STL@@QAE?AU?$_Rb_tree_iterator@U?$pair@$$CBGG@_STL@@U?$_Nonconst_traits@U?$pair@$$CBGG@_STL@@@2@@2@XZ PROC NEAR ; _STL::map<unsigned short,unsigned short,_STL::less<unsigned short>,_STL::allocator<_STL::pair<unsigned short const ,unsigned short> > >::end, COMDAT
; _this$ = ecx

; 149  :   iterator end() { return _M_t.end(); }

  00000	8b 09		 mov	 ecx, DWORD PTR [ecx]
  00002	8b 44 24 04	 mov	 eax, DWORD PTR ___$ReturnUdt$[esp-4]
  00006	89 08		 mov	 DWORD PTR [eax], ecx
  00008	c2 04 00	 ret	 4
?end@?$map@GGU?$less@G@_STL@@V?$allocator@U?$pair@$$CBGG@_STL@@@2@@_STL@@QAE?AU?$_Rb_tree_iterator@U?$pair@$$CBGG@_STL@@U?$_Nonconst_traits@U?$pair@$$CBGG@_STL@@@2@@2@XZ ENDP ; _STL::map<unsigned short,unsigned short,_STL::less<unsigned short>,_STL::allocator<_STL::pair<unsigned short const ,unsigned short> > >::end
_TEXT	ENDS
PUBLIC	?begin@?$list@GV?$allocator@G@_STL@@@_STL@@QBE?AU?$_List_iterator@GU?$_Const_traits@G@_STL@@@2@XZ ; _STL::list<unsigned short,_STL::allocator<unsigned short> >::begin
; Function compile flags: /Ogsy
; File c:\stlport-4.6.1\stlport\stl\_list.h
;	COMDAT ?begin@?$list@GV?$allocator@G@_STL@@@_STL@@QBE?AU?$_List_iterator@GU?$_Const_traits@G@_STL@@@2@XZ
_TEXT	SEGMENT
___$ReturnUdt$ = 8					; size = 4
?begin@?$list@GV?$allocator@G@_STL@@@_STL@@QBE?AU?$_List_iterator@GU?$_Const_traits@G@_STL@@@2@XZ PROC NEAR ; _STL::list<unsigned short,_STL::allocator<unsigned short> >::begin, COMDAT
; _this$ = ecx

; 267  :   const_iterator begin() const { return const_iterator((_Node*)(this->_M_node._M_data->_M_next)); }

  00000	8b 01		 mov	 eax, DWORD PTR [ecx]
  00002	8b 08		 mov	 ecx, DWORD PTR [eax]
  00004	8b 44 24 04	 mov	 eax, DWORD PTR ___$ReturnUdt$[esp-4]
  00008	89 08		 mov	 DWORD PTR [eax], ecx
  0000a	c2 04 00	 ret	 4
?begin@?$list@GV?$allocator@G@_STL@@@_STL@@QBE?AU?$_List_iterator@GU?$_Const_traits@G@_STL@@@2@XZ ENDP ; _STL::list<unsigned short,_STL::allocator<unsigned short> >::begin
_TEXT	ENDS
PUBLIC	?end@?$list@GV?$allocator@G@_STL@@@_STL@@QBE?AU?$_List_iterator@GU?$_Const_traits@G@_STL@@@2@XZ ; _STL::list<unsigned short,_STL::allocator<unsigned short> >::end
; Function compile flags: /Ogsy
;	COMDAT ?end@?$list@GV?$allocator@G@_STL@@@_STL@@QBE?AU?$_List_iterator@GU?$_Const_traits@G@_STL@@@2@XZ
_TEXT	SEGMENT
___$ReturnUdt$ = 8					; size = 4
?end@?$list@GV?$allocator@G@_STL@@@_STL@@QBE?AU?$_List_iterator@GU?$_Const_traits@G@_STL@@@2@XZ PROC NEAR ; _STL::list<unsigned short,_STL::allocator<unsigned short> >::end, COMDAT
; _this$ = ecx

; 270  :   const_iterator end() const { return this->_M_node._M_data; }

  00000	8b 09		 mov	 ecx, DWORD PTR [ecx]
  00002	8b 44 24 04	 mov	 eax, DWORD PTR ___$ReturnUdt$[esp-4]
  00006	89 08		 mov	 DWORD PTR [eax], ecx
  00008	c2 04 00	 ret	 4
?end@?$list@GV?$allocator@G@_STL@@@_STL@@QBE?AU?$_List_iterator@GU?$_Const_traits@G@_STL@@@2@XZ ENDP ; _STL::list<unsigned short,_STL::allocator<unsigned short> >::end
_TEXT	ENDS
PUBLIC	??0?$_List_base@GV?$allocator@G@_STL@@@_STL@@QAE@ABV?$allocator@G@1@@Z ; _STL::_List_base<unsigned short,_STL::allocator<unsigned short> >::_List_base<unsigned short,_STL::allocator<unsigned short> >
; Function compile flags: /Ogsy
;	COMDAT ??0?$_List_base@GV?$allocator@G@_STL@@@_STL@@QAE@ABV?$allocator@G@1@@Z
_TEXT	SEGMENT
$T104090 = -1						; size = 1
___a$ = 8						; size = 4
??0?$_List_base@GV?$allocator@G@_STL@@@_STL@@QAE@ABV?$allocator@G@1@@Z PROC NEAR ; _STL::_List_base<unsigned short,_STL::allocator<unsigned short> >::_List_base<unsigned short,_STL::allocator<unsigned short> >, COMDAT
; _this$ = ecx

; 182  :   _List_base(const allocator_type& __a) : _M_node(_STLP_CONVERT_ALLOCATOR(__a, _Node), (_Node*)0) {

  00000	51		 push	 ecx
  00001	56		 push	 esi
  00002	6a 00		 push	 0
  00004	8d 44 24 0b	 lea	 eax, DWORD PTR $T104090[esp+12]
  00008	50		 push	 eax
  00009	8b f1		 mov	 esi, ecx
  0000b	e8 00 00 00 00	 call	 ??0?$_STLP_alloc_proxy@PAU?$_List_node@G@_STL@@U12@V?$allocator@U?$_List_node@G@_STL@@@2@@_STL@@QAE@ABV?$allocator@U?$_List_node@G@_STL@@@1@PAU?$_List_node@G@1@@Z ; _STL::_STLP_alloc_proxy<_STL::_List_node<unsigned short> *,_STL::_List_node<unsigned short>,_STL::allocator<_STL::_List_node<unsigned short> > >::_STLP_alloc_proxy<_STL::_List_node<unsigned short> *,_STL::_List_node<unsigned short>,_STL::allocator<_STL::_List_node<unsigned short> > >

; 183  :     _Node* __n = _M_node.allocate(1);

  00010	6a 0c		 push	 12			; 0000000cH
  00012	e8 00 00 00 00	 call	 ?allocate@?$__node_alloc@$00$0A@@_STL@@SAPAXI@Z ; _STL::__node_alloc<1,0>::allocate

; 184  :     __n->_M_next = __n;

  00017	89 00		 mov	 DWORD PTR [eax], eax

; 185  :     __n->_M_prev = __n;

  00019	89 40 04	 mov	 DWORD PTR [eax+4], eax

; 186  :     _M_node._M_data = __n;

  0001c	89 06		 mov	 DWORD PTR [esi], eax
  0001e	59		 pop	 ecx

; 187  :   }

  0001f	8b c6		 mov	 eax, esi
  00021	5e		 pop	 esi
  00022	59		 pop	 ecx
  00023	c2 04 00	 ret	 4
??0?$_List_base@GV?$allocator@G@_STL@@@_STL@@QAE@ABV?$allocator@G@1@@Z ENDP ; _STL::_List_base<unsigned short,_STL::allocator<unsigned short> >::_List_base<unsigned short,_STL::allocator<unsigned short> >
_TEXT	ENDS
PUBLIC	??1?$_List_base@GV?$allocator@G@_STL@@@_STL@@QAE@XZ ; _STL::_List_base<unsigned short,_STL::allocator<unsigned short> >::~_List_base<unsigned short,_STL::allocator<unsigned short> >
; Function compile flags: /Ogsy
;	COMDAT ??1?$_List_base@GV?$allocator@G@_STL@@@_STL@@QAE@XZ
_TEXT	SEGMENT
??1?$_List_base@GV?$allocator@G@_STL@@@_STL@@QAE@XZ PROC NEAR ; _STL::_List_base<unsigned short,_STL::allocator<unsigned short> >::~_List_base<unsigned short,_STL::allocator<unsigned short> >, COMDAT
; _this$ = ecx

; 188  :   ~_List_base() {

  00000	56		 push	 esi
  00001	8b f1		 mov	 esi, ecx

; 189  :     clear();

  00003	e8 00 00 00 00	 call	 ?clear@?$_List_base@GV?$allocator@G@_STL@@@_STL@@QAEXXZ ; _STL::_List_base<unsigned short,_STL::allocator<unsigned short> >::clear

; 190  :     _M_node.deallocate(_M_node._M_data, 1);

  00008	6a 01		 push	 1
  0000a	ff 36		 push	 DWORD PTR [esi]
  0000c	8b ce		 mov	 ecx, esi
  0000e	e8 00 00 00 00	 call	 ?deallocate@?$allocator@U?$_List_node@G@_STL@@@_STL@@QAEXPAU?$_List_node@G@2@I@Z ; _STL::allocator<_STL::_List_node<unsigned short> >::deallocate
  00013	5e		 pop	 esi

; 191  :   }

  00014	c3		 ret	 0
??1?$_List_base@GV?$allocator@G@_STL@@@_STL@@QAE@XZ ENDP ; _STL::_List_base<unsigned short,_STL::allocator<unsigned short> >::~_List_base<unsigned short,_STL::allocator<unsigned short> >
_TEXT	ENDS
PUBLIC	?clear@?$_Rb_tree@GU?$pair@$$CBGG@_STL@@U?$_Select1st@U?$pair@$$CBGG@_STL@@@2@U?$less@G@2@V?$allocator@U?$pair@$$CBGG@_STL@@@2@@_STL@@QAEXXZ ; _STL::_Rb_tree<unsigned short,_STL::pair<unsigned short const ,unsigned short>,_STL::_Select1st<_STL::pair<unsigned short const ,unsigned short> >,_STL::less<unsigned short>,_STL::allocator<_STL::pair<unsigned short const ,unsigned short> > >::clear
; Function compile flags: /Ogsy
; File c:\stlport-4.6.1\stlport\stl\_tree.h
;	COMDAT ?clear@?$_Rb_tree@GU?$pair@$$CBGG@_STL@@U?$_Select1st@U?$pair@$$CBGG@_STL@@@2@U?$less@G@2@V?$allocator@U?$pair@$$CBGG@_STL@@@2@@_STL@@QAEXXZ
_TEXT	SEGMENT
?clear@?$_Rb_tree@GU?$pair@$$CBGG@_STL@@U?$_Select1st@U?$pair@$$CBGG@_STL@@@2@U?$less@G@2@V?$allocator@U?$pair@$$CBGG@_STL@@@2@@_STL@@QAEXXZ PROC NEAR ; _STL::_Rb_tree<unsigned short,_STL::pair<unsigned short const ,unsigned short>,_STL::_Select1st<_STL::pair<unsigned short const ,unsigned short> >,_STL::less<unsigned short>,_STL::allocator<_STL::pair<unsigned short const ,unsigned short> > >::clear, COMDAT
; _this$ = ecx

; 445  :   void clear() {

  00000	56		 push	 esi
  00001	8b f1		 mov	 esi, ecx

; 446  :     if (_M_node_count != 0) {

  00003	83 7e 04 00	 cmp	 DWORD PTR [esi+4], 0
  00007	74 1e		 je	 SHORT $L102229

; 447  :       _M_erase(_M_root());

  00009	8b 06		 mov	 eax, DWORD PTR [esi]
  0000b	ff 70 04	 push	 DWORD PTR [eax+4]
  0000e	e8 00 00 00 00	 call	 ?_M_erase@?$_Rb_tree@GU?$pair@$$CBGG@_STL@@U?$_Select1st@U?$pair@$$CBGG@_STL@@@2@U?$less@G@2@V?$allocator@U?$pair@$$CBGG@_STL@@@2@@_STL@@AAEXPAU?$_Rb_tree_node@U?$pair@$$CBGG@_STL@@@2@@Z ; _STL::_Rb_tree<unsigned short,_STL::pair<unsigned short const ,unsigned short>,_STL::_Select1st<_STL::pair<unsigned short const ,unsigned short> >,_STL::less<unsigned short>,_STL::allocator<_STL::pair<unsigned short const ,unsigned short> > >::_M_erase

; 448  :       _M_leftmost() = this->_M_header._M_data;

  00013	8b 06		 mov	 eax, DWORD PTR [esi]
  00015	89 40 08	 mov	 DWORD PTR [eax+8], eax

; 449  :       _M_root() = 0;

  00018	8b 06		 mov	 eax, DWORD PTR [esi]
  0001a	83 60 04 00	 and	 DWORD PTR [eax+4], 0

; 450  :       _M_rightmost() = this->_M_header._M_data;

  0001e	8b 06		 mov	 eax, DWORD PTR [esi]
  00020	89 40 0c	 mov	 DWORD PTR [eax+12], eax

; 451  :       _M_node_count = 0;

  00023	83 66 04 00	 and	 DWORD PTR [esi+4], 0
$L102229:
  00027	5e		 pop	 esi

; 452  :     }
; 453  :   }      

  00028	c3		 ret	 0
?clear@?$_Rb_tree@GU?$pair@$$CBGG@_STL@@U?$_Select1st@U?$pair@$$CBGG@_STL@@@2@U?$less@G@2@V?$allocator@U?$pair@$$CBGG@_STL@@@2@@_STL@@QAEXXZ ENDP ; _STL::_Rb_tree<unsigned short,_STL::pair<unsigned short const ,unsigned short>,_STL::_Select1st<_STL::pair<unsigned short const ,unsigned short> >,_STL::less<unsigned short>,_STL::allocator<_STL::pair<unsigned short const ,unsigned short> > >::clear
_TEXT	ENDS
PUBLIC	??1?$_Rb_tree_base@U?$pair@$$CBGG@_STL@@V?$allocator@U?$pair@$$CBGG@_STL@@@2@@_STL@@QAE@XZ ; _STL::_Rb_tree_base<_STL::pair<unsigned short const ,unsigned short>,_STL::allocator<_STL::pair<unsigned short const ,unsigned short> > >::~_Rb_tree_base<_STL::pair<unsigned short const ,unsigned short>,_STL::allocator<_STL::pair<unsigned short const ,unsigned short> > >
; Function compile flags: /Ogsy
;	COMDAT ??1?$_Rb_tree_base@U?$pair@$$CBGG@_STL@@V?$allocator@U?$pair@$$CBGG@_STL@@@2@@_STL@@QAE@XZ
_TEXT	SEGMENT
??1?$_Rb_tree_base@U?$pair@$$CBGG@_STL@@V?$allocator@U?$pair@$$CBGG@_STL@@@2@@_STL@@QAE@XZ PROC NEAR ; _STL::_Rb_tree_base<_STL::pair<unsigned short const ,unsigned short>,_STL::allocator<_STL::pair<unsigned short const ,unsigned short> > >::~_Rb_tree_base<_STL::pair<unsigned short const ,unsigned short>,_STL::allocator<_STL::pair<unsigned short const ,unsigned short> > >, COMDAT
; _this$ = ecx

; 208  :     _M_header.deallocate(_M_header._M_data,1); 

  00000	6a 01		 push	 1
  00002	ff 31		 push	 DWORD PTR [ecx]
  00004	e8 00 00 00 00	 call	 ?deallocate@?$allocator@U?$_Rb_tree_node@U?$pair@$$CBGG@_STL@@@_STL@@@_STL@@QAEXPAU?$_Rb_tree_node@U?$pair@$$CBGG@_STL@@@2@I@Z ; _STL::allocator<_STL::_Rb_tree_node<_STL::pair<unsigned short const ,unsigned short> > >::deallocate

; 209  :   }

  00009	c3		 ret	 0
??1?$_Rb_tree_base@U?$pair@$$CBGG@_STL@@V?$allocator@U?$pair@$$CBGG@_STL@@@2@@_STL@@QAE@XZ ENDP ; _STL::_Rb_tree_base<_STL::pair<unsigned short const ,unsigned short>,_STL::allocator<_STL::pair<unsigned short const ,unsigned short> > >::~_Rb_tree_base<_STL::pair<unsigned short const ,unsigned short>,_STL::allocator<_STL::pair<unsigned short const ,unsigned short> > >
_TEXT	ENDS
PUBLIC	?_M_create_node@?$list@GV?$allocator@G@_STL@@@_STL@@IAEPAU?$_List_node@G@2@ABG@Z ; _STL::list<unsigned short,_STL::allocator<unsigned short> >::_M_create_node
; Function compile flags: /Ogsy
; File c:\stlport-4.6.1\stlport\stl\_list.h
;	COMDAT ?_M_create_node@?$list@GV?$allocator@G@_STL@@@_STL@@IAEPAU?$_List_node@G@2@ABG@Z
_TEXT	SEGMENT
___x$ = 8						; size = 4
?_M_create_node@?$list@GV?$allocator@G@_STL@@@_STL@@IAEPAU?$_List_node@G@2@ABG@Z PROC NEAR ; _STL::list<unsigned short,_STL::allocator<unsigned short> >::_M_create_node, COMDAT
; _this$ = ecx

; 241  :     _Node* __p = this->_M_node.allocate(1);

  00000	6a 0c		 push	 12			; 0000000cH
  00002	e8 00 00 00 00	 call	 ?allocate@?$__node_alloc@$00$0A@@_STL@@SAPAXI@Z ; _STL::__node_alloc<1,0>::allocate
  00007	59		 pop	 ecx

; 242  :     _STLP_TRY {
; 243  :       _Construct(&__p->_M_data, __x);

  00008	8d 48 08	 lea	 ecx, DWORD PTR [eax+8]
  0000b	85 c9		 test	 ecx, ecx
  0000d	74 0a		 je	 SHORT $L104144
  0000f	8b 54 24 04	 mov	 edx, DWORD PTR ___x$[esp-4]
  00013	66 8b 12	 mov	 dx, WORD PTR [edx]
  00016	66 89 11	 mov	 WORD PTR [ecx], dx
$L104144:

; 244  :     }
; 245  :     _STLP_UNWIND(this->_M_node.deallocate(__p, 1));
; 246  :     return __p;
; 247  :   }

  00019	c2 04 00	 ret	 4
?_M_create_node@?$list@GV?$allocator@G@_STL@@@_STL@@IAEPAU?$_List_node@G@2@ABG@Z ENDP ; _STL::list<unsigned short,_STL::allocator<unsigned short> >::_M_create_node
_TEXT	ENDS
PUBLIC	??0?$_Rb_tree_base@U?$pair@$$CBGG@_STL@@V?$allocator@U?$pair@$$CBGG@_STL@@@2@@_STL@@QAE@ABV?$allocator@U?$pair@$$CBGG@_STL@@@1@@Z ; _STL::_Rb_tree_base<_STL::pair<unsigned short const ,unsigned short>,_STL::allocator<_STL::pair<unsigned short const ,unsigned short> > >::_Rb_tree_base<_STL::pair<unsigned short const ,unsigned short>,_STL::allocator<_STL::pair<unsigned short const ,unsigned short> > >
; Function compile flags: /Ogsy
; File c:\stlport-4.6.1\stlport\stl\_tree.h
;	COMDAT ??0?$_Rb_tree_base@U?$pair@$$CBGG@_STL@@V?$allocator@U?$pair@$$CBGG@_STL@@@2@@_STL@@QAE@ABV?$allocator@U?$pair@$$CBGG@_STL@@@1@@Z
_TEXT	SEGMENT
$T104153 = -1						; size = 1
___a$ = 8						; size = 4
??0?$_Rb_tree_base@U?$pair@$$CBGG@_STL@@V?$allocator@U?$pair@$$CBGG@_STL@@@2@@_STL@@QAE@ABV?$allocator@U?$pair@$$CBGG@_STL@@@1@@Z PROC NEAR ; _STL::_Rb_tree_base<_STL::pair<unsigned short const ,unsigned short>,_STL::allocator<_STL::pair<unsigned short const ,unsigned short> > >::_Rb_tree_base<_STL::pair<unsigned short const ,unsigned short>,_STL::allocator<_STL::pair<unsigned short const ,unsigned short> > >, COMDAT
; _this$ = ecx

; 204  :     _M_header(_STLP_CONVERT_ALLOCATOR(__a, _Node), (_Node*)0) { 

  00000	51		 push	 ecx
  00001	56		 push	 esi
  00002	6a 00		 push	 0
  00004	8d 44 24 0b	 lea	 eax, DWORD PTR $T104153[esp+12]
  00008	50		 push	 eax
  00009	8b f1		 mov	 esi, ecx
  0000b	e8 00 00 00 00	 call	 ??0?$_STLP_alloc_proxy@PAU?$_Rb_tree_node@U?$pair@$$CBGG@_STL@@@_STL@@U12@V?$allocator@U?$_Rb_tree_node@U?$pair@$$CBGG@_STL@@@_STL@@@2@@_STL@@QAE@ABV?$allocator@U?$_Rb_tree_node@U?$pair@$$CBGG@_STL@@@_STL@@@1@PAU?$_Rb_tree_node@U?$pair@$$CBGG@_STL@@@1@@Z ; _STL::_STLP_alloc_proxy<_STL::_Rb_tree_node<_STL::pair<unsigned short const ,unsigned short> > *,_STL::_Rb_tree_node<_STL::pair<unsigned short const ,unsigned short> >,_STL::allocator<_STL::_Rb_tree_node<_STL::pair<unsigned short const ,unsigned short> > > >::_STLP_alloc_proxy<_STL::_Rb_tree_node<_STL::pair<unsigned short const ,unsigned short> > *,_STL::_Rb_tree_node<_STL::pair<unsigned short const ,unsigned short> >,_STL::allocator<_STL::_Rb_tree_node<_STL::pair<unsigned short const ,unsigned short> > > >

; 205  :       _M_header._M_data = _M_header.allocate(1); 

  00010	6a 14		 push	 20			; 00000014H
  00012	e8 00 00 00 00	 call	 ?allocate@?$__node_alloc@$00$0A@@_STL@@SAPAXI@Z ; _STL::__node_alloc<1,0>::allocate
  00017	89 06		 mov	 DWORD PTR [esi], eax
  00019	59		 pop	 ecx

; 206  :   }

  0001a	8b c6		 mov	 eax, esi
  0001c	5e		 pop	 esi
  0001d	59		 pop	 ecx
  0001e	c2 04 00	 ret	 4
??0?$_Rb_tree_base@U?$pair@$$CBGG@_STL@@V?$allocator@U?$pair@$$CBGG@_STL@@@2@@_STL@@QAE@ABV?$allocator@U?$pair@$$CBGG@_STL@@@1@@Z ENDP ; _STL::_Rb_tree_base<_STL::pair<unsigned short const ,unsigned short>,_STL::allocator<_STL::pair<unsigned short const ,unsigned short> > >::_Rb_tree_base<_STL::pair<unsigned short const ,unsigned short>,_STL::allocator<_STL::pair<unsigned short const ,unsigned short> > >
_TEXT	ENDS
PUBLIC	??$distance@U?$_List_iterator@GU?$_Const_traits@G@_STL@@@_STL@@@_STL@@YAHABU?$_List_iterator@GU?$_Const_traits@G@_STL@@@0@0@Z ; _STL::distance<_STL::_List_iterator<unsigned short,_STL::_Const_traits<unsigned short> > >
; Function compile flags: /Ogsy
; File c:\stlport-4.6.1\stlport\stl\_iterator_base.h
;	COMDAT ??$distance@U?$_List_iterator@GU?$_Const_traits@G@_STL@@@_STL@@@_STL@@YAHABU?$_List_iterator@GU?$_Const_traits@G@_STL@@@0@0@Z
_TEXT	SEGMENT
___first$ = 8						; size = 4
___last$ = 12						; size = 4
??$distance@U?$_List_iterator@GU?$_Const_traits@G@_STL@@@_STL@@@_STL@@YAHABU?$_List_iterator@GU?$_Const_traits@G@_STL@@@0@0@Z PROC NEAR ; _STL::distance<_STL::_List_iterator<unsigned short,_STL::_Const_traits<unsigned short> > >, COMDAT

; 369  :   return __distance(__first, __last, _STLP_ITERATOR_CATEGORY(__first, _InputIterator));  

  00000	8b 54 24 08	 mov	 edx, DWORD PTR ___last$[esp-4]
  00004	8b 4c 24 04	 mov	 ecx, DWORD PTR ___first$[esp-4]
  00008	8b 12		 mov	 edx, DWORD PTR [edx]
  0000a	33 c0		 xor	 eax, eax
  0000c	eb 01		 jmp	 SHORT $L104195
$L104183:
  0000e	40		 inc	 eax
$L104195:
  0000f	8b 09		 mov	 ecx, DWORD PTR [ecx]
  00011	3b ca		 cmp	 ecx, edx
  00013	75 f9		 jne	 SHORT $L104183

; 370  : }

  00015	c3		 ret	 0
??$distance@U?$_List_iterator@GU?$_Const_traits@G@_STL@@@_STL@@@_STL@@YAHABU?$_List_iterator@GU?$_Const_traits@G@_STL@@@0@0@Z ENDP ; _STL::distance<_STL::_List_iterator<unsigned short,_STL::_Const_traits<unsigned short> > >
_TEXT	ENDS
PUBLIC	??0sentry@?$basic_ostream@DV?$char_traits@D@_STL@@@_STL@@QAE@AAV12@@Z ; _STL::basic_ostream<char,_STL::char_traits<char> >::sentry::sentry
; Function compile flags: /Ogsy
; File c:\stlport-4.6.1\stlport\stl\_ostream.h
;	COMDAT ??0sentry@?$basic_ostream@DV?$char_traits@D@_STL@@@_STL@@QAE@AAV12@@Z
_TEXT	SEGMENT
___str$ = 8						; size = 4
??0sentry@?$basic_ostream@DV?$char_traits@D@_STL@@@_STL@@QAE@AAV12@@Z PROC NEAR ; _STL::basic_ostream<char,_STL::char_traits<char> >::sentry::sentry, COMDAT
; _this$ = ecx

; 165  :       {

  00000	8b 44 24 04	 mov	 eax, DWORD PTR ___str$[esp-4]
  00004	56		 push	 esi
  00005	8b f1		 mov	 esi, ecx
  00007	50		 push	 eax
  00008	89 06		 mov	 DWORD PTR [esi], eax
  0000a	e8 00 00 00 00	 call	 ??$_M_init@DV?$char_traits@D@_STL@@@_STL@@YA_NAAV?$basic_ostream@DV?$char_traits@D@_STL@@@0@@Z ; _STL::_M_init<char,_STL::char_traits<char> >
  0000f	88 46 04	 mov	 BYTE PTR [esi+4], al
  00012	59		 pop	 ecx

; 166  :       }

  00013	8b c6		 mov	 eax, esi
  00015	5e		 pop	 esi
  00016	c2 04 00	 ret	 4
??0sentry@?$basic_ostream@DV?$char_traits@D@_STL@@@_STL@@QAE@AAV12@@Z ENDP ; _STL::basic_ostream<char,_STL::char_traits<char> >::sentry::sentry
_TEXT	ENDS
PUBLIC	??1sentry@?$basic_ostream@DV?$char_traits@D@_STL@@@_STL@@QAE@XZ ; _STL::basic_ostream<char,_STL::char_traits<char> >::sentry::~sentry
; Function compile flags: /Ogsy
;	COMDAT ??1sentry@?$basic_ostream@DV?$char_traits@D@_STL@@@_STL@@QAE@XZ
_TEXT	SEGMENT
??1sentry@?$basic_ostream@DV?$char_traits@D@_STL@@@_STL@@QAE@XZ PROC NEAR ; _STL::basic_ostream<char,_STL::char_traits<char> >::sentry::~sentry, COMDAT
; _this$ = ecx

; 169  :         if (_M_str.flags() & ios_base::unitbuf)

  00000	8b 09		 mov	 ecx, DWORD PTR [ecx]
  00002	8b 01		 mov	 eax, DWORD PTR [ecx]
  00004	8b 40 04	 mov	 eax, DWORD PTR [eax+4]
  00007	f6 44 08 05 20	 test	 BYTE PTR [eax+ecx+5], 32 ; 00000020H
  0000c	74 05		 je	 SHORT $L102702

; 170  : # ifndef _STLP_INCOMPLETE_EXCEPTION_HEADER 
; 171  :           if (!_STLP_VENDOR_EXCEPT_STD::uncaught_exception())
; 172  : # endif
; 173  :             _M_str.flush();

  0000e	e9 00 00 00 00	 jmp	 ?flush@?$basic_ostream@DV?$char_traits@D@_STL@@@_STL@@QAEAAV12@XZ ; _STL::basic_ostream<char,_STL::char_traits<char> >::flush
$L102702:

; 174  :       }

  00013	c3		 ret	 0
??1sentry@?$basic_ostream@DV?$char_traits@D@_STL@@@_STL@@QAE@XZ ENDP ; _STL::basic_ostream<char,_STL::char_traits<char> >::sentry::~sentry
_TEXT	ENDS
PUBLIC	??_EACTION_FRAMEID_ARRAY@@QAEPAXI@Z		; ACTION_FRAMEID_ARRAY::`vector deleting destructor'
EXTRN	??_M@YGXPAXIHP6EX0@Z@Z:NEAR			; `eh vector destructor iterator'
; Function compile flags: /Ogsy
;	COMDAT ??_EACTION_FRAMEID_ARRAY@@QAEPAXI@Z
_TEXT	SEGMENT
___flags$ = 8						; size = 4
??_EACTION_FRAMEID_ARRAY@@QAEPAXI@Z PROC NEAR		; ACTION_FRAMEID_ARRAY::`vector deleting destructor', COMDAT
; _this$ = ecx
  00000	53		 push	 ebx
  00001	8a 5c 24 08	 mov	 bl, BYTE PTR ___flags$[esp]
  00005	f6 c3 02	 test	 bl, 2
  00008	56		 push	 esi
  00009	8b f1		 mov	 esi, ecx
  0000b	74 24		 je	 SHORT $L102867
  0000d	57		 push	 edi
  0000e	68 00 00 00 00	 push	 OFFSET FLAT:??1ACTION_FRAMEID_ARRAY@@QAE@XZ ; ACTION_FRAMEID_ARRAY::~ACTION_FRAMEID_ARRAY
  00013	8d 7e fc	 lea	 edi, DWORD PTR [esi-4]
  00016	ff 37		 push	 DWORD PTR [edi]
  00018	6a 08		 push	 8
  0001a	56		 push	 esi
  0001b	e8 00 00 00 00	 call	 ??_M@YGXPAXIHP6EX0@Z@Z
  00020	f6 c3 01	 test	 bl, 1
  00023	74 07		 je	 SHORT $L102868
  00025	57		 push	 edi
  00026	e8 00 00 00 00	 call	 ??_V@YAXPAX@Z		; operator delete[]
  0002b	59		 pop	 ecx
$L102868:
  0002c	8b c7		 mov	 eax, edi
  0002e	5f		 pop	 edi
  0002f	eb 15		 jmp	 SHORT $L102866
$L102867:
  00031	8b ce		 mov	 ecx, esi
  00033	e8 00 00 00 00	 call	 ??1ACTION_FRAMEID_ARRAY@@QAE@XZ ; ACTION_FRAMEID_ARRAY::~ACTION_FRAMEID_ARRAY
  00038	f6 c3 01	 test	 bl, 1
  0003b	74 07		 je	 SHORT $L102870
  0003d	56		 push	 esi
  0003e	e8 00 00 00 00	 call	 ??3@YAXPAX@Z		; operator delete
  00043	59		 pop	 ecx
$L102870:
  00044	8b c6		 mov	 eax, esi
$L102866:
  00046	5e		 pop	 esi
  00047	5b		 pop	 ebx
  00048	c2 04 00	 ret	 4
??_EACTION_FRAMEID_ARRAY@@QAEPAXI@Z ENDP		; ACTION_FRAMEID_ARRAY::`vector deleting destructor'
_TEXT	ENDS
PUBLIC	?_M_create_node@?$_Rb_tree@GU?$pair@$$CBGG@_STL@@U?$_Select1st@U?$pair@$$CBGG@_STL@@@2@U?$less@G@2@V?$allocator@U?$pair@$$CBGG@_STL@@@2@@_STL@@IAEPAU?$_Rb_tree_node@U?$pair@$$CBGG@_STL@@@2@ABU?$pair@$$CBGG@2@@Z ; _STL::_Rb_tree<unsigned short,_STL::pair<unsigned short const ,unsigned short>,_STL::_Select1st<_STL::pair<unsigned short const ,unsigned short> >,_STL::less<unsigned short>,_STL::allocator<_STL::pair<unsigned short const ,unsigned short> > >::_M_create_node
; Function compile flags: /Ogsy
; File c:\stlport-4.6.1\stlport\stl\_tree.h
;	COMDAT ?_M_create_node@?$_Rb_tree@GU?$pair@$$CBGG@_STL@@U?$_Select1st@U?$pair@$$CBGG@_STL@@@2@U?$less@G@2@V?$allocator@U?$pair@$$CBGG@_STL@@@2@@_STL@@IAEPAU?$_Rb_tree_node@U?$pair@$$CBGG@_STL@@@2@ABU?$pair@$$CBGG@2@@Z
_TEXT	SEGMENT
___x$ = 8						; size = 4
?_M_create_node@?$_Rb_tree@GU?$pair@$$CBGG@_STL@@U?$_Select1st@U?$pair@$$CBGG@_STL@@@2@U?$less@G@2@V?$allocator@U?$pair@$$CBGG@_STL@@@2@@_STL@@IAEPAU?$_Rb_tree_node@U?$pair@$$CBGG@_STL@@@2@ABU?$pair@$$CBGG@2@@Z PROC NEAR ; _STL::_Rb_tree<unsigned short,_STL::pair<unsigned short const ,unsigned short>,_STL::_Select1st<_STL::pair<unsigned short const ,unsigned short> >,_STL::less<unsigned short>,_STL::allocator<_STL::pair<unsigned short const ,unsigned short> > >::_M_create_node, COMDAT
; _this$ = ecx

; 242  :   {

  00000	56		 push	 esi

; 243  :     _Link_type __tmp = this->_M_header.allocate(1);

  00001	6a 14		 push	 20			; 00000014H
  00003	e8 00 00 00 00	 call	 ?allocate@?$__node_alloc@$00$0A@@_STL@@SAPAXI@Z ; _STL::__node_alloc<1,0>::allocate

; 244  :     _STLP_TRY {
; 245  :       _Construct(&__tmp->_M_value_field, __x);

  00008	ff 74 24 0c	 push	 DWORD PTR ___x$[esp+4]
  0000c	8b f0		 mov	 esi, eax
  0000e	8d 46 10	 lea	 eax, DWORD PTR [esi+16]
  00011	50		 push	 eax
  00012	e8 00 00 00 00	 call	 ??$_Construct@U?$pair@$$CBGG@_STL@@U12@@_STL@@YAXPAU?$pair@$$CBGG@0@ABU10@@Z ; _STL::_Construct<_STL::pair<unsigned short const ,unsigned short>,_STL::pair<unsigned short const ,unsigned short> >
  00017	83 c4 0c	 add	 esp, 12			; 0000000cH

; 246  :     }
; 247  :     _STLP_UNWIND(this->_M_header.deallocate(__tmp,1));
; 248  :     return __tmp;

  0001a	8b c6		 mov	 eax, esi
  0001c	5e		 pop	 esi

; 249  :   }

  0001d	c2 04 00	 ret	 4
?_M_create_node@?$_Rb_tree@GU?$pair@$$CBGG@_STL@@U?$_Select1st@U?$pair@$$CBGG@_STL@@@2@U?$less@G@2@V?$allocator@U?$pair@$$CBGG@_STL@@@2@@_STL@@IAEPAU?$_Rb_tree_node@U?$pair@$$CBGG@_STL@@@2@ABU?$pair@$$CBGG@2@@Z ENDP ; _STL::_Rb_tree<unsigned short,_STL::pair<unsigned short const ,unsigned short>,_STL::_Select1st<_STL::pair<unsigned short const ,unsigned short> >,_STL::less<unsigned short>,_STL::allocator<_STL::pair<unsigned short const ,unsigned short> > >::_M_create_node
_TEXT	ENDS
PUBLIC	??0?$list@GV?$allocator@G@_STL@@@_STL@@QAE@ABV?$allocator@G@1@@Z ; _STL::list<unsigned short,_STL::allocator<unsigned short> >::list<unsigned short,_STL::allocator<unsigned short> >
; Function compile flags: /Ogsy
; File c:\stlport-4.6.1\stlport\stl\_list.h
;	COMDAT ??0?$list@GV?$allocator@G@_STL@@@_STL@@QAE@ABV?$allocator@G@1@@Z
_TEXT	SEGMENT
___a$ = 8						; size = 4
??0?$list@GV?$allocator@G@_STL@@@_STL@@QAE@ABV?$allocator@G@1@@Z PROC NEAR ; _STL::list<unsigned short,_STL::allocator<unsigned short> >::list<unsigned short,_STL::allocator<unsigned short> >, COMDAT
; _this$ = ecx

; 264  :     _List_base<_Tp, _Alloc>(__a) {}

  00000	56		 push	 esi
  00001	ff 74 24 08	 push	 DWORD PTR ___a$[esp]
  00005	8b f1		 mov	 esi, ecx
  00007	e8 00 00 00 00	 call	 ??0?$_List_base@GV?$allocator@G@_STL@@@_STL@@QAE@ABV?$allocator@G@1@@Z ; _STL::_List_base<unsigned short,_STL::allocator<unsigned short> >::_List_base<unsigned short,_STL::allocator<unsigned short> >
  0000c	8b c6		 mov	 eax, esi
  0000e	5e		 pop	 esi
  0000f	c2 04 00	 ret	 4
??0?$list@GV?$allocator@G@_STL@@@_STL@@QAE@ABV?$allocator@G@1@@Z ENDP ; _STL::list<unsigned short,_STL::allocator<unsigned short> >::list<unsigned short,_STL::allocator<unsigned short> >
_TEXT	ENDS
PUBLIC	?size@?$list@GV?$allocator@G@_STL@@@_STL@@QBEIXZ ; _STL::list<unsigned short,_STL::allocator<unsigned short> >::size
; Function compile flags: /Ogsy
;	COMDAT ?size@?$list@GV?$allocator@G@_STL@@@_STL@@QBEIXZ
_TEXT	SEGMENT
?size@?$list@GV?$allocator@G@_STL@@@_STL@@QBEIXZ PROC NEAR ; _STL::list<unsigned short,_STL::allocator<unsigned short> >::size, COMDAT
; _this$ = ecx

; 284  :     size_type __result = distance(begin(), end());

  00000	8b 11		 mov	 edx, DWORD PTR [ecx]
  00002	8b 0a		 mov	 ecx, DWORD PTR [edx]
  00004	33 c0		 xor	 eax, eax
  00006	eb 03		 jmp	 SHORT $L104307
$L104296:
  00008	8b 09		 mov	 ecx, DWORD PTR [ecx]
  0000a	40		 inc	 eax
$L104307:
  0000b	3b ca		 cmp	 ecx, edx
  0000d	75 f9		 jne	 SHORT $L104296

; 285  :     return __result;
; 286  :   }

  0000f	c3		 ret	 0
?size@?$list@GV?$allocator@G@_STL@@@_STL@@QBEIXZ ENDP	; _STL::list<unsigned short,_STL::allocator<unsigned short> >::size
_TEXT	ENDS
PUBLIC	??1?$list@GV?$allocator@G@_STL@@@_STL@@QAE@XZ	; _STL::list<unsigned short,_STL::allocator<unsigned short> >::~list<unsigned short,_STL::allocator<unsigned short> >
; Function compile flags: /Ogsy
;	COMDAT ??1?$list@GV?$allocator@G@_STL@@@_STL@@QAE@XZ
_TEXT	SEGMENT
??1?$list@GV?$allocator@G@_STL@@@_STL@@QAE@XZ PROC NEAR	; _STL::list<unsigned short,_STL::allocator<unsigned short> >::~list<unsigned short,_STL::allocator<unsigned short> >, COMDAT
; _this$ = ecx

; 416  :   ~list() { }

  00000	e9 00 00 00 00	 jmp	 ??1?$_List_base@GV?$allocator@G@_STL@@@_STL@@QAE@XZ ; _STL::_List_base<unsigned short,_STL::allocator<unsigned short> >::~_List_base<unsigned short,_STL::allocator<unsigned short> >
??1?$list@GV?$allocator@G@_STL@@@_STL@@QAE@XZ ENDP	; _STL::list<unsigned short,_STL::allocator<unsigned short> >::~list<unsigned short,_STL::allocator<unsigned short> >
_TEXT	ENDS
PUBLIC	?clear@?$map@GGU?$less@G@_STL@@V?$allocator@U?$pair@$$CBGG@_STL@@@2@@_STL@@QAEXXZ ; _STL::map<unsigned short,unsigned short,_STL::less<unsigned short>,_STL::allocator<_STL::pair<unsigned short const ,unsigned short> > >::clear
; Function compile flags: /Ogsy
; File c:\stlport-4.6.1\stlport\stl\_map.h
;	COMDAT ?clear@?$map@GGU?$less@G@_STL@@V?$allocator@U?$pair@$$CBGG@_STL@@@2@@_STL@@QAEXXZ
_TEXT	SEGMENT
?clear@?$map@GGU?$less@G@_STL@@V?$allocator@U?$pair@$$CBGG@_STL@@@2@@_STL@@QAEXXZ PROC NEAR ; _STL::map<unsigned short,unsigned short,_STL::less<unsigned short>,_STL::allocator<_STL::pair<unsigned short const ,unsigned short> > >::clear, COMDAT
; _this$ = ecx

; 191  :   void clear() { _M_t.clear(); }

  00000	e9 00 00 00 00	 jmp	 ?clear@?$_Rb_tree@GU?$pair@$$CBGG@_STL@@U?$_Select1st@U?$pair@$$CBGG@_STL@@@2@U?$less@G@2@V?$allocator@U?$pair@$$CBGG@_STL@@@2@@_STL@@QAEXXZ ; _STL::_Rb_tree<unsigned short,_STL::pair<unsigned short const ,unsigned short>,_STL::_Select1st<_STL::pair<unsigned short const ,unsigned short> >,_STL::less<unsigned short>,_STL::allocator<_STL::pair<unsigned short const ,unsigned short> > >::clear
?clear@?$map@GGU?$less@G@_STL@@V?$allocator@U?$pair@$$CBGG@_STL@@@2@@_STL@@QAEXXZ ENDP ; _STL::map<unsigned short,unsigned short,_STL::less<unsigned short>,_STL::allocator<_STL::pair<unsigned short const ,unsigned short> > >::clear
_TEXT	ENDS
PUBLIC	??1?$_Rb_tree@GU?$pair@$$CBGG@_STL@@U?$_Select1st@U?$pair@$$CBGG@_STL@@@2@U?$less@G@2@V?$allocator@U?$pair@$$CBGG@_STL@@@2@@_STL@@QAE@XZ ; _STL::_Rb_tree<unsigned short,_STL::pair<unsigned short const ,unsigned short>,_STL::_Select1st<_STL::pair<unsigned short const ,unsigned short> >,_STL::less<unsigned short>,_STL::allocator<_STL::pair<unsigned short const ,unsigned short> > >::~_Rb_tree<unsigned short,_STL::pair<unsigned short const ,unsigned short>,_STL::_Select1st<_STL::pair<unsigned short const ,unsigned short> >,_STL::less<unsigned short>,_STL::allocator<_STL::pair<unsigned short const ,unsigned short> > >
;	COMDAT xdata$x
; File c:\stlport-4.6.1\stlport\stl\_alloc.h
xdata$x	SEGMENT
$T104337 DD	0ffffffffH
	DD	FLAT:$L104318
$T104335 DD	019930520H
	DD	01H
	DD	FLAT:$T104337
	DD	2 DUP(00H)
	DD	2 DUP(00H)
; Function compile flags: /Ogsy
; File c:\stlport-4.6.1\stlport\stl\_tree.h
xdata$x	ENDS
;	COMDAT ??1?$_Rb_tree@GU?$pair@$$CBGG@_STL@@U?$_Select1st@U?$pair@$$CBGG@_STL@@@2@U?$less@G@2@V?$allocator@U?$pair@$$CBGG@_STL@@@2@@_STL@@QAE@XZ
_TEXT	SEGMENT
_this$ = -16						; size = 4
__$EHRec$ = -12						; size = 12
??1?$_Rb_tree@GU?$pair@$$CBGG@_STL@@U?$_Select1st@U?$pair@$$CBGG@_STL@@@2@U?$less@G@2@V?$allocator@U?$pair@$$CBGG@_STL@@@2@@_STL@@QAE@XZ PROC NEAR ; _STL::_Rb_tree<unsigned short,_STL::pair<unsigned short const ,unsigned short>,_STL::_Select1st<_STL::pair<unsigned short const ,unsigned short> >,_STL::less<unsigned short>,_STL::allocator<_STL::pair<unsigned short const ,unsigned short> > >::~_Rb_tree<unsigned short,_STL::pair<unsigned short const ,unsigned short>,_STL::_Select1st<_STL::pair<unsigned short const ,unsigned short> >,_STL::less<unsigned short>,_STL::allocator<_STL::pair<unsigned short const ,unsigned short> > >, COMDAT
; _this$ = ecx

; 341  :   ~_Rb_tree() { clear(); }

  00000	b8 00 00 00 00	 mov	 eax, __ehhandler$??1?$_Rb_tree@GU?$pair@$$CBGG@_STL@@U?$_Select1st@U?$pair@$$CBGG@_STL@@@2@U?$less@G@2@V?$allocator@U?$pair@$$CBGG@_STL@@@2@@_STL@@QAE@XZ
  00005	e8 00 00 00 00	 call	 __EH_prolog
  0000a	51		 push	 ecx
  0000b	56		 push	 esi
  0000c	8b f1		 mov	 esi, ecx
  0000e	89 75 f0	 mov	 DWORD PTR _this$[ebp], esi
  00011	83 65 fc 00	 and	 DWORD PTR __$EHRec$[ebp+8], 0
  00015	e8 00 00 00 00	 call	 ?clear@?$_Rb_tree@GU?$pair@$$CBGG@_STL@@U?$_Select1st@U?$pair@$$CBGG@_STL@@@2@U?$less@G@2@V?$allocator@U?$pair@$$CBGG@_STL@@@2@@_STL@@QAEXXZ ; _STL::_Rb_tree<unsigned short,_STL::pair<unsigned short const ,unsigned short>,_STL::_Select1st<_STL::pair<unsigned short const ,unsigned short> >,_STL::less<unsigned short>,_STL::allocator<_STL::pair<unsigned short const ,unsigned short> > >::clear
  0001a	83 4d fc ff	 or	 DWORD PTR __$EHRec$[ebp+8], -1
  0001e	6a 01		 push	 1
  00020	ff 36		 push	 DWORD PTR [esi]
  00022	8b ce		 mov	 ecx, esi
  00024	e8 00 00 00 00	 call	 ?deallocate@?$allocator@U?$_Rb_tree_node@U?$pair@$$CBGG@_STL@@@_STL@@@_STL@@QAEXPAU?$_Rb_tree_node@U?$pair@$$CBGG@_STL@@@2@I@Z ; _STL::allocator<_STL::_Rb_tree_node<_STL::pair<unsigned short const ,unsigned short> > >::deallocate
  00029	8b 4d f4	 mov	 ecx, DWORD PTR __$EHRec$[ebp]
  0002c	5e		 pop	 esi
  0002d	64 89 0d 00 00
	00 00		 mov	 DWORD PTR fs:__except_list, ecx
  00034	c9		 leave
  00035	c3		 ret	 0
_TEXT	ENDS
;	COMDAT text$x
text$x	SEGMENT
$L104318:
  00000	8b 4d f0	 mov	 ecx, DWORD PTR _this$[ebp]
  00003	e9 00 00 00 00	 jmp	 ??1?$_Rb_tree_base@U?$pair@$$CBGG@_STL@@V?$allocator@U?$pair@$$CBGG@_STL@@@2@@_STL@@QAE@XZ ; _STL::_Rb_tree_base<_STL::pair<unsigned short const ,unsigned short>,_STL::allocator<_STL::pair<unsigned short const ,unsigned short> > >::~_Rb_tree_base<_STL::pair<unsigned short const ,unsigned short>,_STL::allocator<_STL::pair<unsigned short const ,unsigned short> > >
__ehhandler$??1?$_Rb_tree@GU?$pair@$$CBGG@_STL@@U?$_Select1st@U?$pair@$$CBGG@_STL@@@2@U?$less@G@2@V?$allocator@U?$pair@$$CBGG@_STL@@@2@@_STL@@QAE@XZ:
  00008	b8 00 00 00 00	 mov	 eax, OFFSET FLAT:$T104335
  0000d	e9 00 00 00 00	 jmp	 ___CxxFrameHandler
text$x	ENDS
??1?$_Rb_tree@GU?$pair@$$CBGG@_STL@@U?$_Select1st@U?$pair@$$CBGG@_STL@@@2@U?$less@G@2@V?$allocator@U?$pair@$$CBGG@_STL@@@2@@_STL@@QAE@XZ ENDP ; _STL::_Rb_tree<unsigned short,_STL::pair<unsigned short const ,unsigned short>,_STL::_Select1st<_STL::pair<unsigned short const ,unsigned short> >,_STL::less<unsigned short>,_STL::allocator<_STL::pair<unsigned short const ,unsigned short> > >::~_Rb_tree<unsigned short,_STL::pair<unsigned short const ,unsigned short>,_STL::_Select1st<_STL::pair<unsigned short const ,unsigned short> >,_STL::less<unsigned short>,_STL::allocator<_STL::pair<unsigned short const ,unsigned short> > >
PUBLIC	?insert@?$list@GV?$allocator@G@_STL@@@_STL@@QAE?AU?$_List_iterator@GU?$_Nonconst_traits@G@_STL@@@2@U32@ABG@Z ; _STL::list<unsigned short,_STL::allocator<unsigned short> >::insert
; Function compile flags: /Ogsy
; File c:\stlport-4.6.1\stlport\stl\_list.h
;	COMDAT ?insert@?$list@GV?$allocator@G@_STL@@@_STL@@QAE?AU?$_List_iterator@GU?$_Nonconst_traits@G@_STL@@@2@U32@ABG@Z
_TEXT	SEGMENT
___$ReturnUdt$ = 8					; size = 4
___position$ = 12					; size = 4
___x$ = 16						; size = 4
?insert@?$list@GV?$allocator@G@_STL@@@_STL@@QAE?AU?$_List_iterator@GU?$_Nonconst_traits@G@_STL@@@2@U32@ABG@Z PROC NEAR ; _STL::list<unsigned short,_STL::allocator<unsigned short> >::insert, COMDAT
; _this$ = ecx

; 299  : 
; 300  :     _Node* __tmp = _M_create_node(__x);

  00000	ff 74 24 0c	 push	 DWORD PTR ___x$[esp-4]
  00004	e8 00 00 00 00	 call	 ?_M_create_node@?$list@GV?$allocator@G@_STL@@@_STL@@IAEPAU?$_List_node@G@2@ABG@Z ; _STL::list<unsigned short,_STL::allocator<unsigned short> >::_M_create_node

; 301  :     _List_node_base* __n = __position._M_node;
; 302  :     _List_node_base* __p = __n->_M_prev;

  00009	8b 4c 24 08	 mov	 ecx, DWORD PTR ___position$[esp-4]
  0000d	8b 51 04	 mov	 edx, DWORD PTR [ecx+4]

; 303  :     __tmp->_M_next = __n;

  00010	89 08		 mov	 DWORD PTR [eax], ecx

; 304  :     __tmp->_M_prev = __p;

  00012	89 50 04	 mov	 DWORD PTR [eax+4], edx

; 305  :     __p->_M_next = __tmp;

  00015	89 02		 mov	 DWORD PTR [edx], eax

; 306  :     __n->_M_prev = __tmp;

  00017	89 41 04	 mov	 DWORD PTR [ecx+4], eax

; 307  :     return __tmp;

  0001a	8b 4c 24 04	 mov	 ecx, DWORD PTR ___$ReturnUdt$[esp-4]
  0001e	89 01		 mov	 DWORD PTR [ecx], eax
  00020	8b c1		 mov	 eax, ecx

; 308  :   }

  00022	c2 0c 00	 ret	 12			; 0000000cH
?insert@?$list@GV?$allocator@G@_STL@@@_STL@@QAE?AU?$_List_iterator@GU?$_Nonconst_traits@G@_STL@@@2@U32@ABG@Z ENDP ; _STL::list<unsigned short,_STL::allocator<unsigned short> >::insert
_TEXT	ENDS
PUBLIC	??0?$_Rb_tree@GU?$pair@$$CBGG@_STL@@U?$_Select1st@U?$pair@$$CBGG@_STL@@@2@U?$less@G@2@V?$allocator@U?$pair@$$CBGG@_STL@@@2@@_STL@@QAE@ABU?$less@G@1@ABV?$allocator@U?$pair@$$CBGG@_STL@@@1@@Z ; _STL::_Rb_tree<unsigned short,_STL::pair<unsigned short const ,unsigned short>,_STL::_Select1st<_STL::pair<unsigned short const ,unsigned short> >,_STL::less<unsigned short>,_STL::allocator<_STL::pair<unsigned short const ,unsigned short> > >::_Rb_tree<unsigned short,_STL::pair<unsigned short const ,unsigned short>,_STL::_Select1st<_STL::pair<unsigned short const ,unsigned short> >,_STL::less<unsigned short>,_STL::allocator<_STL::pair<unsigned short const ,unsigned short> > >
; Function compile flags: /Ogsy
; File c:\stlport-4.6.1\stlport\stl\_tree.h
;	COMDAT ??0?$_Rb_tree@GU?$pair@$$CBGG@_STL@@U?$_Select1st@U?$pair@$$CBGG@_STL@@@2@U?$less@G@2@V?$allocator@U?$pair@$$CBGG@_STL@@@2@@_STL@@QAE@ABU?$less@G@1@ABV?$allocator@U?$pair@$$CBGG@_STL@@@1@@Z
_TEXT	SEGMENT
___comp$ = 8						; size = 4
___a$ = 12						; size = 4
??0?$_Rb_tree@GU?$pair@$$CBGG@_STL@@U?$_Select1st@U?$pair@$$CBGG@_STL@@@2@U?$less@G@2@V?$allocator@U?$pair@$$CBGG@_STL@@@2@@_STL@@QAE@ABU?$less@G@1@ABV?$allocator@U?$pair@$$CBGG@_STL@@@1@@Z PROC NEAR ; _STL::_Rb_tree<unsigned short,_STL::pair<unsigned short const ,unsigned short>,_STL::_Select1st<_STL::pair<unsigned short const ,unsigned short> >,_STL::less<unsigned short>,_STL::allocator<_STL::pair<unsigned short const ,unsigned short> > >::_Rb_tree<unsigned short,_STL::pair<unsigned short const ,unsigned short>,_STL::_Select1st<_STL::pair<unsigned short const ,unsigned short> >,_STL::less<unsigned short>,_STL::allocator<_STL::pair<unsigned short const ,unsigned short> > >, COMDAT
; _this$ = ecx

; 325  :     { _M_empty_initialize(); }

  00000	56		 push	 esi
  00001	ff 74 24 0c	 push	 DWORD PTR ___a$[esp]
  00005	8b f1		 mov	 esi, ecx
  00007	e8 00 00 00 00	 call	 ??0?$_Rb_tree_base@U?$pair@$$CBGG@_STL@@V?$allocator@U?$pair@$$CBGG@_STL@@@2@@_STL@@QAE@ABV?$allocator@U?$pair@$$CBGG@_STL@@@1@@Z ; _STL::_Rb_tree_base<_STL::pair<unsigned short const ,unsigned short>,_STL::allocator<_STL::pair<unsigned short const ,unsigned short> > >::_Rb_tree_base<_STL::pair<unsigned short const ,unsigned short>,_STL::allocator<_STL::pair<unsigned short const ,unsigned short> > >
  0000c	8b 0e		 mov	 ecx, DWORD PTR [esi]
  0000e	33 c0		 xor	 eax, eax
  00010	89 46 04	 mov	 DWORD PTR [esi+4], eax
  00013	88 01		 mov	 BYTE PTR [ecx], al
  00015	8b 0e		 mov	 ecx, DWORD PTR [esi]
  00017	89 41 04	 mov	 DWORD PTR [ecx+4], eax
  0001a	8b 06		 mov	 eax, DWORD PTR [esi]
  0001c	89 40 08	 mov	 DWORD PTR [eax+8], eax
  0001f	8b 06		 mov	 eax, DWORD PTR [esi]
  00021	89 40 0c	 mov	 DWORD PTR [eax+12], eax
  00024	8b c6		 mov	 eax, esi
  00026	5e		 pop	 esi
  00027	c2 08 00	 ret	 8
??0?$_Rb_tree@GU?$pair@$$CBGG@_STL@@U?$_Select1st@U?$pair@$$CBGG@_STL@@@2@U?$less@G@2@V?$allocator@U?$pair@$$CBGG@_STL@@@2@@_STL@@QAE@ABU?$less@G@1@ABV?$allocator@U?$pair@$$CBGG@_STL@@@1@@Z ENDP ; _STL::_Rb_tree<unsigned short,_STL::pair<unsigned short const ,unsigned short>,_STL::_Select1st<_STL::pair<unsigned short const ,unsigned short> >,_STL::less<unsigned short>,_STL::allocator<_STL::pair<unsigned short const ,unsigned short> > >::_Rb_tree<unsigned short,_STL::pair<unsigned short const ,unsigned short>,_STL::_Select1st<_STL::pair<unsigned short const ,unsigned short> >,_STL::less<unsigned short>,_STL::allocator<_STL::pair<unsigned short const ,unsigned short> > >
_TEXT	ENDS
PUBLIC	?write@?$basic_ostream@DV?$char_traits@D@_STL@@@_STL@@QAEAAV12@PBDH@Z ; _STL::basic_ostream<char,_STL::char_traits<char> >::write
;	COMDAT xdata$x
; File c:\stlport-4.6.1\stlport\stl\_ios_base.h
xdata$x	SEGMENT
$T104420 DD	0ffffffffH
	DD	FLAT:$L104384
	DD	00H
	DD	00H
	DD	00H
	DD	00H
$T104422 DD	00H
	DD	00H
	DD	00H
	DD	FLAT:$L104383
$T104421 DD	01H
	DD	01H
	DD	02H
	DD	01H
	DD	FLAT:$T104422
$T104417 DD	019930520H
	DD	03H
	DD	FLAT:$T104420
	DD	01H
	DD	FLAT:$T104421
	DD	2 DUP(00H)
; Function compile flags: /Ogsy
; File c:\stlport-4.6.1\stlport\stl\_ostream.c
xdata$x	ENDS
;	COMDAT ?write@?$basic_ostream@DV?$char_traits@D@_STL@@@_STL@@QAEAAV12@PBDH@Z
_TEXT	SEGMENT
___sentry$ = -32					; size = 8
_this$ = -24						; size = 4
___failed$ = -17					; size = 1
__$EHRec$ = -16						; size = 16
___s$ = 8						; size = 4
___n$ = 12						; size = 4
?write@?$basic_ostream@DV?$char_traits@D@_STL@@@_STL@@QAEAAV12@PBDH@Z PROC NEAR ; _STL::basic_ostream<char,_STL::char_traits<char> >::write, COMDAT
; _this$ = ecx

; 359  : {

  00000	b8 00 00 00 00	 mov	 eax, __ehhandler$?write@?$basic_ostream@DV?$char_traits@D@_STL@@@_STL@@QAEAAV12@PBDH@Z
  00005	e8 00 00 00 00	 call	 __EH_prolog
  0000a	83 ec 14	 sub	 esp, 20			; 00000014H
  0000d	53		 push	 ebx
  0000e	56		 push	 esi
  0000f	57		 push	 edi
  00010	8b f1		 mov	 esi, ecx
  00012	89 65 f0	 mov	 DWORD PTR __$EHRec$[ebp], esp

; 360  :   sentry __sentry(*this);

  00015	56		 push	 esi
  00016	8d 4d e0	 lea	 ecx, DWORD PTR ___sentry$[ebp]
  00019	89 75 e8	 mov	 DWORD PTR _this$[ebp], esi
  0001c	e8 00 00 00 00	 call	 ??0sentry@?$basic_ostream@DV?$char_traits@D@_STL@@@_STL@@QAE@AAV12@@Z ; _STL::basic_ostream<char,_STL::char_traits<char> >::sentry::sentry
  00021	83 65 fc 00	 and	 DWORD PTR __$EHRec$[ebp+12], 0

; 361  :   bool __failed = true;
; 362  : 
; 363  :   if (__sentry) {

  00025	80 7d e4 00	 cmp	 BYTE PTR ___sentry$[ebp+4], 0
  00029	c6 45 ef 01	 mov	 BYTE PTR ___failed$[ebp], 1
  0002d	74 3b		 je	 SHORT $L102402

; 364  :     _STLP_TRY {
; 365  :       __failed = this->rdbuf()->sputn(__s, __n) != __n;

  0002f	8b 06		 mov	 eax, DWORD PTR [esi]
  00031	8b 40 04	 mov	 eax, DWORD PTR [eax+4]
  00034	ff 75 0c	 push	 DWORD PTR ___n$[ebp]
  00037	8b 4c 30 58	 mov	 ecx, DWORD PTR [eax+esi+88]
  0003b	ff 75 08	 push	 DWORD PTR ___s$[ebp]
  0003e	8b 01		 mov	 eax, DWORD PTR [ecx]
  00040	c6 45 fc 01	 mov	 BYTE PTR __$EHRec$[ebp+12], 1
  00044	ff 50 28	 call	 DWORD PTR [eax+40]
  00047	3b 45 0c	 cmp	 eax, DWORD PTR ___n$[ebp]
  0004a	0f 95 45 ef	 setne	 BYTE PTR ___failed$[ebp]
  0004e	eb 1a		 jmp	 SHORT $L102402
$L104383:

; 366  :     }
; 367  :     _STLP_CATCH_ALL {
; 368  :       this->_M_handle_exception(ios_base::badbit);

  00050	8b 45 e8	 mov	 eax, DWORD PTR _this$[ebp]
  00053	8b 08		 mov	 ecx, DWORD PTR [eax]
  00055	8b 49 04	 mov	 ecx, DWORD PTR [ecx+4]
  00058	6a 01		 push	 1
  0005a	03 c8		 add	 ecx, eax
  0005c	e8 00 00 00 00	 call	 ?_M_handle_exception@?$basic_ios@DV?$char_traits@D@_STL@@@_STL@@QAEXH@Z ; _STL::basic_ios<char,_STL::char_traits<char> >::_M_handle_exception

; 369  :     }

  00061	b8 00 00 00 00	 mov	 eax, $L104418
  00066	c3		 ret	 0
$L104418:
  00067	8b 75 e8	 mov	 esi, DWORD PTR _this$[ebp]
$L102402:
  0006a	83 65 fc 00	 and	 DWORD PTR __$EHRec$[ebp+12], 0

; 370  :   }
; 371  : 
; 372  :   if (__failed)

  0006e	80 7d ef 00	 cmp	 BYTE PTR ___failed$[ebp], 0
  00072	74 13		 je	 SHORT $L104401

; 373  :     this->setstate(ios_base::badbit);

  00074	8b 06		 mov	 eax, DWORD PTR [esi]
  00076	8b 48 04	 mov	 ecx, DWORD PTR [eax+4]
  00079	03 ce		 add	 ecx, esi
  0007b	8b 41 08	 mov	 eax, DWORD PTR [ecx+8]
  0007e	83 c8 01	 or	 eax, 1
  00081	50		 push	 eax
  00082	e8 00 00 00 00	 call	 ?clear@?$basic_ios@DV?$char_traits@D@_STL@@@_STL@@QAEXH@Z ; _STL::basic_ios<char,_STL::char_traits<char> >::clear
$L104401:

; 374  : 
; 375  :   return *this;

  00087	8b 4d e0	 mov	 ecx, DWORD PTR ___sentry$[ebp]
  0008a	8b 01		 mov	 eax, DWORD PTR [ecx]
  0008c	8b 40 04	 mov	 eax, DWORD PTR [eax+4]
  0008f	83 4d fc ff	 or	 DWORD PTR __$EHRec$[ebp+12], -1
  00093	f6 44 08 05 20	 test	 BYTE PTR [eax+ecx+5], 32 ; 00000020H
  00098	74 05		 je	 SHORT $L104412
  0009a	e8 00 00 00 00	 call	 ?flush@?$basic_ostream@DV?$char_traits@D@_STL@@@_STL@@QAEAAV12@XZ ; _STL::basic_ostream<char,_STL::char_traits<char> >::flush
$L104412:

; 376  : }

  0009f	8b 4d f4	 mov	 ecx, DWORD PTR __$EHRec$[ebp+4]
  000a2	5f		 pop	 edi
  000a3	8b c6		 mov	 eax, esi
  000a5	5e		 pop	 esi
  000a6	64 89 0d 00 00
	00 00		 mov	 DWORD PTR fs:__except_list, ecx
  000ad	5b		 pop	 ebx
  000ae	c9		 leave
  000af	c2 08 00	 ret	 8
_TEXT	ENDS
;	COMDAT text$x
text$x	SEGMENT
$L104384:
  00000	8d 4d e0	 lea	 ecx, DWORD PTR ___sentry$[ebp]
  00003	e9 00 00 00 00	 jmp	 ??1sentry@?$basic_ostream@DV?$char_traits@D@_STL@@@_STL@@QAE@XZ ; _STL::basic_ostream<char,_STL::char_traits<char> >::sentry::~sentry
__ehhandler$?write@?$basic_ostream@DV?$char_traits@D@_STL@@@_STL@@QAEAAV12@PBDH@Z:
  00008	b8 00 00 00 00	 mov	 eax, OFFSET FLAT:$T104417
  0000d	e9 00 00 00 00	 jmp	 ___CxxFrameHandler
text$x	ENDS
?write@?$basic_ostream@DV?$char_traits@D@_STL@@@_STL@@QAEAAV12@PBDH@Z ENDP ; _STL::basic_ostream<char,_STL::char_traits<char> >::write
PUBLIC	?_M_insert@?$_Rb_tree@GU?$pair@$$CBGG@_STL@@U?$_Select1st@U?$pair@$$CBGG@_STL@@@2@U?$less@G@2@V?$allocator@U?$pair@$$CBGG@_STL@@@2@@_STL@@AAE?AU?$_Rb_tree_iterator@U?$pair@$$CBGG@_STL@@U?$_Nonconst_traits@U?$pair@$$CBGG@_STL@@@2@@2@PAU_Rb_tree_node_base@2@0ABU?$pair@$$CBGG@2@0@Z ; _STL::_Rb_tree<unsigned short,_STL::pair<unsigned short const ,unsigned short>,_STL::_Select1st<_STL::pair<unsigned short const ,unsigned short> >,_STL::less<unsigned short>,_STL::allocator<_STL::pair<unsigned short const ,unsigned short> > >::_M_insert
EXTRN	?_Rebalance@?$_Rb_global@_N@_STL@@SAXPAU_Rb_tree_node_base@2@AAPAU32@@Z:NEAR ; _STL::_Rb_global<bool>::_Rebalance
; Function compile flags: /Ogsy
; File c:\stlport-4.6.1\stlport\stl\_tree.c
;	COMDAT ?_M_insert@?$_Rb_tree@GU?$pair@$$CBGG@_STL@@U?$_Select1st@U?$pair@$$CBGG@_STL@@@2@U?$less@G@2@V?$allocator@U?$pair@$$CBGG@_STL@@@2@@_STL@@AAE?AU?$_Rb_tree_iterator@U?$pair@$$CBGG@_STL@@U?$_Nonconst_traits@U?$pair@$$CBGG@_STL@@@2@@2@PAU_Rb_tree_node_base@2@0ABU?$pair@$$CBGG@2@0@Z
_TEXT	SEGMENT
___$ReturnUdt$ = 8					; size = 4
___x_$ = 12						; size = 4
___y_$ = 16						; size = 4
___v$ = 20						; size = 4
___w_$ = 24						; size = 4
?_M_insert@?$_Rb_tree@GU?$pair@$$CBGG@_STL@@U?$_Select1st@U?$pair@$$CBGG@_STL@@@2@U?$less@G@2@V?$allocator@U?$pair@$$CBGG@_STL@@@2@@_STL@@AAE?AU?$_Rb_tree_iterator@U?$pair@$$CBGG@_STL@@U?$_Nonconst_traits@U?$pair@$$CBGG@_STL@@@2@@2@PAU_Rb_tree_node_base@2@0ABU?$pair@$$CBGG@2@0@Z PROC NEAR ; _STL::_Rb_tree<unsigned short,_STL::pair<unsigned short const ,unsigned short>,_STL::_Select1st<_STL::pair<unsigned short const ,unsigned short> >,_STL::less<unsigned short>,_STL::allocator<_STL::pair<unsigned short const ,unsigned short> > >::_M_insert, COMDAT
; _this$ = ecx

; 347  : {

  00000	55		 push	 ebp
  00001	8b ec		 mov	 ebp, esp

; 348  :   _Link_type __w = (_Link_type) __w_;
; 349  :   _Link_type __x = (_Link_type) __x_;
; 350  :   _Link_type __y = (_Link_type) __y_;
; 351  :   _Link_type __z;
; 352  : 
; 353  :   if ( __y == this->_M_header._M_data ||
; 354  :        ( __w == 0 && // If w != 0, the remainder fails to false
; 355  :          ( __x != 0 ||     // If x != 0, the remainder succeeds to true
; 356  :            _M_key_compare( _KeyOfValue()(__v), _S_key(__y) ) )
; 357  : 	 )
; 358  :        ) {

  00003	8b 45 14	 mov	 eax, DWORD PTR ___v$[ebp]
  00006	53		 push	 ebx
  00007	8b 5d 10	 mov	 ebx, DWORD PTR ___y_$[ebp]
  0000a	56		 push	 esi
  0000b	57		 push	 edi
  0000c	8b f9		 mov	 edi, ecx
  0000e	3b 1f		 cmp	 ebx, DWORD PTR [edi]
  00010	74 2e		 je	 SHORT $L102819
  00012	83 7d 18 00	 cmp	 DWORD PTR ___w_$[ebp], 0
  00016	75 0f		 jne	 SHORT $L102817
  00018	83 7d 0c 00	 cmp	 DWORD PTR ___x_$[ebp], 0
  0001c	75 22		 jne	 SHORT $L102819
  0001e	66 8b 08	 mov	 cx, WORD PTR [eax]
  00021	66 3b 4b 10	 cmp	 cx, WORD PTR [ebx+16]
  00025	72 19		 jb	 SHORT $L102819
$L102817:

; 369  :   }
; 370  :   else {
; 371  :     __z = _M_create_node(__v);

  00027	50		 push	 eax
  00028	8b cf		 mov	 ecx, edi
  0002a	e8 00 00 00 00	 call	 ?_M_create_node@?$_Rb_tree@GU?$pair@$$CBGG@_STL@@U?$_Select1st@U?$pair@$$CBGG@_STL@@@2@U?$less@G@2@V?$allocator@U?$pair@$$CBGG@_STL@@@2@@_STL@@IAEPAU?$_Rb_tree_node@U?$pair@$$CBGG@_STL@@@2@ABU?$pair@$$CBGG@2@@Z ; _STL::_Rb_tree<unsigned short,_STL::pair<unsigned short const ,unsigned short>,_STL::_Select1st<_STL::pair<unsigned short const ,unsigned short> >,_STL::less<unsigned short>,_STL::allocator<_STL::pair<unsigned short const ,unsigned short> > >::_M_create_node
  0002f	8b f0		 mov	 esi, eax

; 372  :     _S_right(__y) = __z;

  00031	89 73 0c	 mov	 DWORD PTR [ebx+12], esi

; 373  :     if (__y == _M_rightmost())

  00034	8b 07		 mov	 eax, DWORD PTR [edi]
  00036	3b 58 0c	 cmp	 ebx, DWORD PTR [eax+12]
  00039	75 27		 jne	 SHORT $L102822
$L104485:

; 374  :       _M_rightmost() = __z;  // maintain _M_rightmost() pointing to max node

  0003b	89 70 0c	 mov	 DWORD PTR [eax+12], esi
  0003e	eb 22		 jmp	 SHORT $L102822
$L102819:

; 359  :     
; 360  :     __z = _M_create_node(__v);

  00040	50		 push	 eax
  00041	8b cf		 mov	 ecx, edi
  00043	e8 00 00 00 00	 call	 ?_M_create_node@?$_Rb_tree@GU?$pair@$$CBGG@_STL@@U?$_Select1st@U?$pair@$$CBGG@_STL@@@2@U?$less@G@2@V?$allocator@U?$pair@$$CBGG@_STL@@@2@@_STL@@IAEPAU?$_Rb_tree_node@U?$pair@$$CBGG@_STL@@@2@ABU?$pair@$$CBGG@2@@Z ; _STL::_Rb_tree<unsigned short,_STL::pair<unsigned short const ,unsigned short>,_STL::_Select1st<_STL::pair<unsigned short const ,unsigned short> >,_STL::less<unsigned short>,_STL::allocator<_STL::pair<unsigned short const ,unsigned short> > >::_M_create_node
  00048	8b f0		 mov	 esi, eax

; 361  :     _S_left(__y) = __z;               // also makes _M_leftmost() = __z 

  0004a	89 73 08	 mov	 DWORD PTR [ebx+8], esi

; 362  :                                       //    when __y == _M_header
; 363  :     if (__y == this->_M_header._M_data) {

  0004d	8b 07		 mov	 eax, DWORD PTR [edi]
  0004f	3b d8		 cmp	 ebx, eax
  00051	75 07		 jne	 SHORT $L102820

; 364  :       _M_root() = __z;

  00053	89 70 04	 mov	 DWORD PTR [eax+4], esi

; 365  :       _M_rightmost() = __z;

  00056	8b 07		 mov	 eax, DWORD PTR [edi]

; 366  :     }
; 367  :     else if (__y == _M_leftmost())

  00058	eb e1		 jmp	 SHORT $L104485
$L102820:
  0005a	3b 58 08	 cmp	 ebx, DWORD PTR [eax+8]
  0005d	75 03		 jne	 SHORT $L102822

; 368  :       _M_leftmost() = __z;   // maintain _M_leftmost() pointing to min node

  0005f	89 70 08	 mov	 DWORD PTR [eax+8], esi
$L102822:

; 375  :   }
; 376  :   _S_parent(__z) = __y;
; 377  :   _S_left(__z) = 0;

  00062	83 66 08 00	 and	 DWORD PTR [esi+8], 0

; 378  :   _S_right(__z) = 0;

  00066	83 66 0c 00	 and	 DWORD PTR [esi+12], 0
  0006a	89 5e 04	 mov	 DWORD PTR [esi+4], ebx

; 379  :   _Rb_global_inst::_Rebalance(__z, this->_M_header._M_data->_M_parent);

  0006d	8b 07		 mov	 eax, DWORD PTR [edi]
  0006f	83 c0 04	 add	 eax, 4
  00072	50		 push	 eax
  00073	56		 push	 esi
  00074	e8 00 00 00 00	 call	 ?_Rebalance@?$_Rb_global@_N@_STL@@SAXPAU_Rb_tree_node_base@2@AAPAU32@@Z ; _STL::_Rb_global<bool>::_Rebalance

; 380  :   ++_M_node_count;

  00079	ff 47 04	 inc	 DWORD PTR [edi+4]

; 381  :   return iterator(__z);

  0007c	8b 45 08	 mov	 eax, DWORD PTR ___$ReturnUdt$[ebp]
  0007f	59		 pop	 ecx
  00080	59		 pop	 ecx
  00081	5f		 pop	 edi
  00082	89 30		 mov	 DWORD PTR [eax], esi
  00084	5e		 pop	 esi
  00085	5b		 pop	 ebx

; 382  : }

  00086	5d		 pop	 ebp
  00087	c2 14 00	 ret	 20			; 00000014H
?_M_insert@?$_Rb_tree@GU?$pair@$$CBGG@_STL@@U?$_Select1st@U?$pair@$$CBGG@_STL@@@2@U?$less@G@2@V?$allocator@U?$pair@$$CBGG@_STL@@@2@@_STL@@AAE?AU?$_Rb_tree_iterator@U?$pair@$$CBGG@_STL@@U?$_Nonconst_traits@U?$pair@$$CBGG@_STL@@@2@@2@PAU_Rb_tree_node_base@2@0ABU?$pair@$$CBGG@2@0@Z ENDP ; _STL::_Rb_tree<unsigned short,_STL::pair<unsigned short const ,unsigned short>,_STL::_Select1st<_STL::pair<unsigned short const ,unsigned short> >,_STL::less<unsigned short>,_STL::allocator<_STL::pair<unsigned short const ,unsigned short> > >::_M_insert
_TEXT	ENDS
PUBLIC	?Release@?$CTypeTable@VACTION_FRAMEID_ARRAY@@@@QAEXXZ ; CTypeTable<ACTION_FRAMEID_ARRAY>::Release
; Function compile flags: /Ogsy
; File c:\darkeden\designed_common\project\client\ctypetable.h
;	COMDAT ?Release@?$CTypeTable@VACTION_FRAMEID_ARRAY@@@@QAEXXZ
_TEXT	SEGMENT
?Release@?$CTypeTable@VACTION_FRAMEID_ARRAY@@@@QAEXXZ PROC NEAR ; CTypeTable<ACTION_FRAMEID_ARRAY>::Release, COMDAT
; _this$ = ecx

; 108  : {

  00000	56		 push	 esi
  00001	8b f1		 mov	 esi, ecx

; 109  : 	if (m_pTypeInfo != NULL)

  00003	8b 4e 04	 mov	 ecx, DWORD PTR [esi+4]
  00006	85 c9		 test	 ecx, ecx
  00008	74 0e		 je	 SHORT $L102837

; 110  : 	{
; 111  : 		//  CSprite .
; 112  : 		delete [] m_pTypeInfo;

  0000a	6a 03		 push	 3
  0000c	e8 00 00 00 00	 call	 ??_EACTION_FRAMEID_ARRAY@@QAEPAXI@Z

; 113  : 		m_pTypeInfo = NULL;

  00011	83 66 04 00	 and	 DWORD PTR [esi+4], 0

; 114  : 		
; 115  : 		m_Size = 0;

  00015	83 26 00	 and	 DWORD PTR [esi], 0
$L102837:
  00018	5e		 pop	 esi

; 116  : 	}
; 117  : }

  00019	c3		 ret	 0
?Release@?$CTypeTable@VACTION_FRAMEID_ARRAY@@@@QAEXXZ ENDP ; CTypeTable<ACTION_FRAMEID_ARRAY>::Release
_TEXT	ENDS
PUBLIC	?SaveToFile@FRAME_TYPE@@QAEXAAV?$basic_ofstream@DV?$char_traits@D@_STL@@@_STL@@@Z ; FRAME_TYPE::SaveToFile
; Function compile flags: /Ogsy
; File c:\darkeden\designed_common\project\client\meffectspritetypetable.cpp
;	COMDAT ?SaveToFile@FRAME_TYPE@@QAEXAAV?$basic_ofstream@DV?$char_traits@D@_STL@@@_STL@@@Z
_TEXT	SEGMENT
_file$ = 8						; size = 4
?SaveToFile@FRAME_TYPE@@QAEXAAV?$basic_ofstream@DV?$char_traits@D@_STL@@@_STL@@@Z PROC NEAR ; FRAME_TYPE::SaveToFile, COMDAT
; _this$ = ecx

; 22   : 	file.write((const char*)&FrameID, SIZE_FRAMEID);

  00000	6a 02		 push	 2
  00002	51		 push	 ecx
  00003	8b 4c 24 0c	 mov	 ecx, DWORD PTR _file$[esp+4]
  00007	e8 00 00 00 00	 call	 ?write@?$basic_ostream@DV?$char_traits@D@_STL@@@_STL@@QAEAAV12@PBDH@Z ; _STL::basic_ostream<char,_STL::char_traits<char> >::write

; 23   : }

  0000c	c2 04 00	 ret	 4
?SaveToFile@FRAME_TYPE@@QAEXAAV?$basic_ofstream@DV?$char_traits@D@_STL@@@_STL@@@Z ENDP ; FRAME_TYPE::SaveToFile
_TEXT	ENDS
PUBLIC	??1?$map@GGU?$less@G@_STL@@V?$allocator@U?$pair@$$CBGG@_STL@@@2@@_STL@@QAE@XZ ; _STL::map<unsigned short,unsigned short,_STL::less<unsigned short>,_STL::allocator<_STL::pair<unsigned short const ,unsigned short> > >::~map<unsigned short,unsigned short,_STL::less<unsigned short>,_STL::allocator<_STL::pair<unsigned short const ,unsigned short> > >
; Function compile flags: /Ogsy
;	COMDAT ??1?$map@GGU?$less@G@_STL@@V?$allocator@U?$pair@$$CBGG@_STL@@@2@@_STL@@QAE@XZ
_TEXT	SEGMENT
??1?$map@GGU?$less@G@_STL@@V?$allocator@U?$pair@$$CBGG@_STL@@@2@@_STL@@QAE@XZ PROC NEAR ; _STL::map<unsigned short,unsigned short,_STL::less<unsigned short>,_STL::allocator<_STL::pair<unsigned short const ,unsigned short> > >::~map<unsigned short,unsigned short,_STL::less<unsigned short>,_STL::allocator<_STL::pair<unsigned short const ,unsigned short> > >, COMDAT
; _this$ = ecx
  00000	e9 00 00 00 00	 jmp	 ??1?$_Rb_tree@GU?$pair@$$CBGG@_STL@@U?$_Select1st@U?$pair@$$CBGG@_STL@@@2@U?$less@G@2@V?$allocator@U?$pair@$$CBGG@_STL@@@2@@_STL@@QAE@XZ ; _STL::_Rb_tree<unsigned short,_STL::pair<unsigned short const ,unsigned short>,_STL::_Select1st<_STL::pair<unsigned short const ,unsigned short> >,_STL::less<unsigned short>,_STL::allocator<_STL::pair<unsigned short const ,unsigned short> > >::~_Rb_tree<unsigned short,_STL::pair<unsigned short const ,unsigned short>,_STL::_Select1st<_STL::pair<unsigned short const ,unsigned short> >,_STL::less<unsigned short>,_STL::allocator<_STL::pair<unsigned short const ,unsigned short> > >
??1?$map@GGU?$less@G@_STL@@V?$allocator@U?$pair@$$CBGG@_STL@@@2@@_STL@@QAE@XZ ENDP ; _STL::map<unsigned short,unsigned short,_STL::less<unsigned short>,_STL::allocator<_STL::pair<unsigned short const ,unsigned short> > >::~map<unsigned short,unsigned short,_STL::less<unsigned short>,_STL::allocator<_STL::pair<unsigned short const ,unsigned short> > >
_TEXT	ENDS
PUBLIC	?SaveToFile@EFFECTSPRITETYPETABLE_INFO@@QAEXAAV?$basic_ofstream@DV?$char_traits@D@_STL@@@_STL@@@Z ; EFFECTSPRITETYPETABLE_INFO::SaveToFile
; Function compile flags: /Ogsy
;	COMDAT ?SaveToFile@EFFECTSPRITETYPETABLE_INFO@@QAEXAAV?$basic_ofstream@DV?$char_traits@D@_STL@@@_STL@@@Z
_TEXT	SEGMENT
_effectSpriteType$101944 = -12				; size = 2
_color$101926 = -8					; size = 2
_frameID$101846 = -8					; size = 2
_numColorGroup$ = -3					; size = 1
_numPair$ = -2						; size = 1
_bt$ = -1						; size = 1
_file$ = 8						; size = 4
_flag$ = 11						; size = 1
?SaveToFile@EFFECTSPRITETYPETABLE_INFO@@QAEXAAV?$basic_ofstream@DV?$char_traits@D@_STL@@@_STL@@@Z PROC NEAR ; EFFECTSPRITETYPETABLE_INFO::SaveToFile, COMDAT
; _this$ = ecx

; 73   : {

  00000	55		 push	 ebp
  00001	8b ec		 mov	 ebp, esp
  00003	83 ec 0c	 sub	 esp, 12			; 0000000cH
  00006	53		 push	 ebx

; 74   : 	BYTE bt = (BYTE)BltType;
; 75   : 	file.write((const char*)&bt, 1);

  00007	8b 5d 08	 mov	 ebx, DWORD PTR _file$[ebp]
  0000a	56		 push	 esi
  0000b	8b f1		 mov	 esi, ecx
  0000d	8a 06		 mov	 al, BYTE PTR [esi]
  0000f	57		 push	 edi
  00010	88 45 ff	 mov	 BYTE PTR _bt$[ebp], al
  00013	6a 01		 push	 1
  00015	8d 45 ff	 lea	 eax, DWORD PTR _bt$[ebp]
  00018	50		 push	 eax
  00019	8b cb		 mov	 ecx, ebx
  0001b	e8 00 00 00 00	 call	 ?write@?$basic_ostream@DV?$char_traits@D@_STL@@@_STL@@QAEAAV12@PBDH@Z ; _STL::basic_ostream<char,_STL::char_traits<char> >::write

; 76   : 	file.write((const char*)&FrameID, SIZE_FRAMEID);			

  00020	6a 02		 push	 2
  00022	8d 46 04	 lea	 eax, DWORD PTR [esi+4]
  00025	50		 push	 eax
  00026	8b cb		 mov	 ecx, ebx
  00028	e8 00 00 00 00	 call	 ?write@?$basic_ostream@DV?$char_traits@D@_STL@@@_STL@@QAEAAV12@PBDH@Z ; _STL::basic_ostream<char,_STL::char_traits<char> >::write

; 77   : 
; 78   : 	BYTE flag=0;
; 79   : 	
; 80   : 	flag = ( (RepeatFrame==true)<<1 ) | ( bPairFrameBack == true );

  0002d	80 7e 06 01	 cmp	 BYTE PTR [esi+6], 1

; 81   : 
; 82   : 	file.write((const char*)&flag, 1);

  00031	6a 01		 push	 1
  00033	0f 94 c0	 sete	 al
  00036	d0 e0		 shl	 al, 1
  00038	80 7e 10 01	 cmp	 BYTE PTR [esi+16], 1
  0003c	0f 94 c1	 sete	 cl
  0003f	0a c1		 or	 al, cl
  00041	88 45 0b	 mov	 BYTE PTR _flag$[ebp], al
  00044	8d 45 0b	 lea	 eax, DWORD PTR _flag$[ebp]
  00047	50		 push	 eax
  00048	8b cb		 mov	 ecx, ebx
  0004a	e8 00 00 00 00	 call	 ?write@?$basic_ostream@DV?$char_traits@D@_STL@@@_STL@@QAEAAV12@PBDH@Z ; _STL::basic_ostream<char,_STL::char_traits<char> >::write

; 83   : 
; 84   : 	file.write((const char*)&ActionEffectFrameID, SIZE_FRAMEID);

  0004f	6a 02		 push	 2
  00051	8d 46 08	 lea	 eax, DWORD PTR [esi+8]
  00054	50		 push	 eax
  00055	8b cb		 mov	 ecx, ebx
  00057	e8 00 00 00 00	 call	 ?write@?$basic_ostream@DV?$char_traits@D@_STL@@@_STL@@QAEAAV12@PBDH@Z ; _STL::basic_ostream<char,_STL::char_traits<char> >::write

; 85   : 	//if(ActionEffectFrameID == 50 || ActionEffectFrameID == 54)
; 86   : 	//{
; 87   : 	//	ActionEffectFrameID =65535;
; 88   : 	//}
; 89   : 	//file.write((const char*)&PairFrameID, SIZE_FRAMEID);	
; 90   : 	file.write((const char*)&FemaleEffectSpriteType, SIZE_EFFECTSPRITETYPE);		

  0005c	6a 02		 push	 2
  0005e	8d 46 12	 lea	 eax, DWORD PTR [esi+18]
  00061	50		 push	 eax
  00062	8b cb		 mov	 ecx, ebx
  00064	e8 00 00 00 00	 call	 ?write@?$basic_ostream@DV?$char_traits@D@_STL@@@_STL@@QAEAAV12@PBDH@Z ; _STL::basic_ostream<char,_STL::char_traits<char> >::write

; 91   : 
; 92   : 	//----------------------------------------------------------
; 93   : 	// Pair FrameID List
; 94   : 	//----------------------------------------------------------
; 95   : 	BYTE numPair = PairFrameIDList.size();

  00069	8b 46 0c	 mov	 eax, DWORD PTR [esi+12]
  0006c	8b 38		 mov	 edi, DWORD PTR [eax]
  0006e	33 c9		 xor	 ecx, ecx
  00070	eb 03		 jmp	 SHORT $L104746
$L104609:
  00072	8b 3f		 mov	 edi, DWORD PTR [edi]
  00074	41		 inc	 ecx
$L104746:
  00075	3b f8		 cmp	 edi, eax
  00077	75 f9		 jne	 SHORT $L104609

; 96   : 	file.write((const char*)&numPair, 1);

  00079	6a 01		 push	 1
  0007b	8d 45 fe	 lea	 eax, DWORD PTR _numPair$[ebp]
  0007e	88 4d fe	 mov	 BYTE PTR _numPair$[ebp], cl
  00081	50		 push	 eax
  00082	8b cb		 mov	 ecx, ebx
  00084	e8 00 00 00 00	 call	 ?write@?$basic_ostream@DV?$char_traits@D@_STL@@@_STL@@QAEAAV12@PBDH@Z ; _STL::basic_ostream<char,_STL::char_traits<char> >::write

; 97   : 
; 98   : 	FRAMEID_LIST::const_iterator iFrame = PairFrameIDList.begin();

  00089	8b 46 0c	 mov	 eax, DWORD PTR [esi+12]
  0008c	8b 38		 mov	 edi, DWORD PTR [eax]

; 99   : 
; 100  : 	while (iFrame != PairFrameIDList.end())

  0008e	3b f8		 cmp	 edi, eax
  00090	74 1d		 je	 SHORT $L101844
$L101843:

; 101  : 	{
; 102  : 		TYPE_FRAMEID frameID = *iFrame;

  00092	33 c0		 xor	 eax, eax
  00094	66 8b 47 08	 mov	 ax, WORD PTR [edi+8]

; 103  : 
; 104  : 		file.write((const char*)&frameID, SIZE_FRAMEID);

  00098	6a 02		 push	 2
  0009a	8b cb		 mov	 ecx, ebx
  0009c	89 45 f8	 mov	 DWORD PTR _frameID$101846[ebp], eax
  0009f	8d 45 f8	 lea	 eax, DWORD PTR _frameID$101846[ebp]
  000a2	50		 push	 eax
  000a3	e8 00 00 00 00	 call	 ?write@?$basic_ostream@DV?$char_traits@D@_STL@@@_STL@@QAEAAV12@PBDH@Z ; _STL::basic_ostream<char,_STL::char_traits<char> >::write

; 105  : 
; 106  : 		++iFrame;

  000a8	8b 3f		 mov	 edi, DWORD PTR [edi]
  000aa	3b 7e 0c	 cmp	 edi, DWORD PTR [esi+12]
  000ad	75 e3		 jne	 SHORT $L101843
$L101844:

; 107  : 	}
; 108  : 
; 109  : 	//----------------------------------------------------------
; 110  : 	// Color Group Map
; 111  : 	//----------------------------------------------------------
; 112  : 	BYTE numColorGroup = ColorGroupMap.size();

  000af	8a 46 18	 mov	 al, BYTE PTR [esi+24]
  000b2	88 45 fd	 mov	 BYTE PTR _numColorGroup$[ebp], al

; 113  : 	file.write((const char*)&numColorGroup, 1);

  000b5	6a 01		 push	 1
  000b7	8d 45 fd	 lea	 eax, DWORD PTR _numColorGroup$[ebp]
  000ba	50		 push	 eax
  000bb	8b cb		 mov	 ecx, ebx
  000bd	e8 00 00 00 00	 call	 ?write@?$basic_ostream@DV?$char_traits@D@_STL@@@_STL@@QAEAAV12@PBDH@Z ; _STL::basic_ostream<char,_STL::char_traits<char> >::write

; 114  : 
; 115  : 	COLORGROUP_MAP::const_iterator iColorGroup = ColorGroupMap.begin();

  000c2	8b 46 14	 mov	 eax, DWORD PTR [esi+20]
  000c5	8b 78 08	 mov	 edi, DWORD PTR [eax+8]

; 116  : 
; 117  : 	while (iColorGroup != ColorGroupMap.end())

  000c8	3b f8		 cmp	 edi, eax
  000ca	74 3a		 je	 SHORT $L101924
$L101923:

; 118  : 	{
; 119  : 		Color_t color							= iColorGroup->first;

  000cc	33 c0		 xor	 eax, eax
  000ce	66 8b 47 10	 mov	 ax, WORD PTR [edi+16]

; 120  : 		TYPE_EFFECTSPRITETYPE effectSpriteType	= iColorGroup->second;
; 121  : 
; 122  : 		file.write((const char*)&color, szColor);

  000d2	6a 02		 push	 2
  000d4	8b cb		 mov	 ecx, ebx
  000d6	89 45 f8	 mov	 DWORD PTR _color$101926[ebp], eax
  000d9	33 c0		 xor	 eax, eax
  000db	66 8b 47 12	 mov	 ax, WORD PTR [edi+18]
  000df	89 45 f4	 mov	 DWORD PTR _effectSpriteType$101944[ebp], eax
  000e2	8d 45 f8	 lea	 eax, DWORD PTR _color$101926[ebp]
  000e5	50		 push	 eax
  000e6	e8 00 00 00 00	 call	 ?write@?$basic_ostream@DV?$char_traits@D@_STL@@@_STL@@QAEAAV12@PBDH@Z ; _STL::basic_ostream<char,_STL::char_traits<char> >::write

; 123  : 		file.write((const char*)&effectSpriteType, SIZE_EFFECTSPRITETYPE);

  000eb	6a 02		 push	 2
  000ed	8d 45 f4	 lea	 eax, DWORD PTR _effectSpriteType$101944[ebp]
  000f0	50		 push	 eax
  000f1	8b cb		 mov	 ecx, ebx
  000f3	e8 00 00 00 00	 call	 ?write@?$basic_ostream@DV?$char_traits@D@_STL@@@_STL@@QAEAAV12@PBDH@Z ; _STL::basic_ostream<char,_STL::char_traits<char> >::write

; 124  : 
; 125  : 		++iColorGroup;

  000f8	57		 push	 edi
  000f9	e8 00 00 00 00	 call	 ?_M_increment@?$_Rb_global@_N@_STL@@SAPAU_Rb_tree_node_base@2@PAU32@@Z ; _STL::_Rb_global<bool>::_M_increment
  000fe	8b f8		 mov	 edi, eax
  00100	3b 7e 14	 cmp	 edi, DWORD PTR [esi+20]
  00103	59		 pop	 ecx
  00104	75 c6		 jne	 SHORT $L101923
$L101924:
  00106	5f		 pop	 edi
  00107	5e		 pop	 esi
  00108	5b		 pop	 ebx

; 126  : 	}
; 127  : }

  00109	c9		 leave
  0010a	c2 04 00	 ret	 4
?SaveToFile@EFFECTSPRITETYPETABLE_INFO@@QAEXAAV?$basic_ofstream@DV?$char_traits@D@_STL@@@_STL@@@Z ENDP ; EFFECTSPRITETYPETABLE_INFO::SaveToFile
_TEXT	ENDS
PUBLIC	?push_back@?$list@GV?$allocator@G@_STL@@@_STL@@QAEXABG@Z ; _STL::list<unsigned short,_STL::allocator<unsigned short> >::push_back
; Function compile flags: /Ogsy
; File c:\stlport-4.6.1\stlport\stl\_list.h
;	COMDAT ?push_back@?$list@GV?$allocator@G@_STL@@@_STL@@QAEXABG@Z
_TEXT	SEGMENT
$T104750 = 8						; size = 4
___x$ = 8						; size = 4
?push_back@?$list@GV?$allocator@G@_STL@@@_STL@@QAEXABG@Z PROC NEAR ; _STL::list<unsigned short,_STL::allocator<unsigned short> >::push_back, COMDAT
; _this$ = ecx

; 345  :   void push_back(const _Tp& __x) { insert(end(), __x); }

  00000	55		 push	 ebp
  00001	8b ec		 mov	 ebp, esp
  00003	ff 75 08	 push	 DWORD PTR ___x$[ebp]
  00006	8b 11		 mov	 edx, DWORD PTR [ecx]
  00008	51		 push	 ecx
  00009	8b c4		 mov	 eax, esp
  0000b	89 10		 mov	 DWORD PTR [eax], edx
  0000d	8d 45 08	 lea	 eax, DWORD PTR $T104750[ebp]
  00010	50		 push	 eax
  00011	e8 00 00 00 00	 call	 ?insert@?$list@GV?$allocator@G@_STL@@@_STL@@QAE?AU?$_List_iterator@GU?$_Nonconst_traits@G@_STL@@@2@U32@ABG@Z ; _STL::list<unsigned short,_STL::allocator<unsigned short> >::insert
  00016	5d		 pop	 ebp
  00017	c2 04 00	 ret	 4
?push_back@?$list@GV?$allocator@G@_STL@@@_STL@@QAEXABG@Z ENDP ; _STL::list<unsigned short,_STL::allocator<unsigned short> >::push_back
_TEXT	ENDS
PUBLIC	??0?$map@GGU?$less@G@_STL@@V?$allocator@U?$pair@$$CBGG@_STL@@@2@@_STL@@QAE@XZ ; _STL::map<unsigned short,unsigned short,_STL::less<unsigned short>,_STL::allocator<_STL::pair<unsigned short const ,unsigned short> > >::map<unsigned short,unsigned short,_STL::less<unsigned short>,_STL::allocator<_STL::pair<unsigned short const ,unsigned short> > >
; Function compile flags: /Ogsy
; File c:\stlport-4.6.1\stlport\stl\_map.h
;	COMDAT ??0?$map@GGU?$less@G@_STL@@V?$allocator@U?$pair@$$CBGG@_STL@@@2@@_STL@@QAE@XZ
_TEXT	SEGMENT
$T104771 = -1						; size = 1
$T104770 = -1						; size = 1
??0?$map@GGU?$less@G@_STL@@V?$allocator@U?$pair@$$CBGG@_STL@@@2@@_STL@@QAE@XZ PROC NEAR ; _STL::map<unsigned short,unsigned short,_STL::less<unsigned short>,_STL::allocator<_STL::pair<unsigned short const ,unsigned short> > >::map<unsigned short,unsigned short,_STL::less<unsigned short>,_STL::allocator<_STL::pair<unsigned short const ,unsigned short> > >, COMDAT
; _this$ = ecx

; 91   :   map() : _M_t(_Compare(), allocator_type()) {}

  00000	55		 push	 ebp
  00001	8b ec		 mov	 ebp, esp
  00003	51		 push	 ecx
  00004	56		 push	 esi
  00005	8d 45 ff	 lea	 eax, DWORD PTR $T104770[ebp]
  00008	50		 push	 eax
  00009	8d 45 ff	 lea	 eax, DWORD PTR $T104771[ebp]
  0000c	50		 push	 eax
  0000d	8b f1		 mov	 esi, ecx
  0000f	e8 00 00 00 00	 call	 ??0?$_Rb_tree@GU?$pair@$$CBGG@_STL@@U?$_Select1st@U?$pair@$$CBGG@_STL@@@2@U?$less@G@2@V?$allocator@U?$pair@$$CBGG@_STL@@@2@@_STL@@QAE@ABU?$less@G@1@ABV?$allocator@U?$pair@$$CBGG@_STL@@@1@@Z ; _STL::_Rb_tree<unsigned short,_STL::pair<unsigned short const ,unsigned short>,_STL::_Select1st<_STL::pair<unsigned short const ,unsigned short> >,_STL::less<unsigned short>,_STL::allocator<_STL::pair<unsigned short const ,unsigned short> > >::_Rb_tree<unsigned short,_STL::pair<unsigned short const ,unsigned short>,_STL::_Select1st<_STL::pair<unsigned short const ,unsigned short> >,_STL::less<unsigned short>,_STL::allocator<_STL::pair<unsigned short const ,unsigned short> > >
  00014	8b c6		 mov	 eax, esi
  00016	5e		 pop	 esi
  00017	c9		 leave
  00018	c3		 ret	 0
??0?$map@GGU?$less@G@_STL@@V?$allocator@U?$pair@$$CBGG@_STL@@@2@@_STL@@QAE@XZ ENDP ; _STL::map<unsigned short,unsigned short,_STL::less<unsigned short>,_STL::allocator<_STL::pair<unsigned short const ,unsigned short> > >::map<unsigned short,unsigned short,_STL::less<unsigned short>,_STL::allocator<_STL::pair<unsigned short const ,unsigned short> > >
_TEXT	ENDS
PUBLIC	?insert_unique@?$_Rb_tree@GU?$pair@$$CBGG@_STL@@U?$_Select1st@U?$pair@$$CBGG@_STL@@@2@U?$less@G@2@V?$allocator@U?$pair@$$CBGG@_STL@@@2@@_STL@@QAE?AU?$pair@U?$_Rb_tree_iterator@U?$pair@$$CBGG@_STL@@U?$_Nonconst_traits@U?$pair@$$CBGG@_STL@@@2@@_STL@@_N@2@ABU?$pair@$$CBGG@2@@Z ; _STL::_Rb_tree<unsigned short,_STL::pair<unsigned short const ,unsigned short>,_STL::_Select1st<_STL::pair<unsigned short const ,unsigned short> >,_STL::less<unsigned short>,_STL::allocator<_STL::pair<unsigned short const ,unsigned short> > >::insert_unique
; Function compile flags: /Ogsy
; File c:\stlport-4.6.1\stlport\stl\_tree.c
;	COMDAT ?insert_unique@?$_Rb_tree@GU?$pair@$$CBGG@_STL@@U?$_Select1st@U?$pair@$$CBGG@_STL@@@2@U?$less@G@2@V?$allocator@U?$pair@$$CBGG@_STL@@@2@@_STL@@QAE?AU?$pair@U?$_Rb_tree_iterator@U?$pair@$$CBGG@_STL@@U?$_Nonconst_traits@U?$pair@$$CBGG@_STL@@@2@@_STL@@_N@2@ABU?$pair@$$CBGG@2@@Z
_TEXT	SEGMENT
___$ReturnUdt$ = 8					; size = 4
$T104789 = 12						; size = 4
___v$ = 12						; size = 4
?insert_unique@?$_Rb_tree@GU?$pair@$$CBGG@_STL@@U?$_Select1st@U?$pair@$$CBGG@_STL@@@2@U?$less@G@2@V?$allocator@U?$pair@$$CBGG@_STL@@@2@@_STL@@QAE?AU?$pair@U?$_Rb_tree_iterator@U?$pair@$$CBGG@_STL@@U?$_Nonconst_traits@U?$pair@$$CBGG@_STL@@@2@@_STL@@_N@2@ABU?$pair@$$CBGG@2@@Z PROC NEAR ; _STL::_Rb_tree<unsigned short,_STL::pair<unsigned short const ,unsigned short>,_STL::_Select1st<_STL::pair<unsigned short const ,unsigned short> >,_STL::less<unsigned short>,_STL::allocator<_STL::pair<unsigned short const ,unsigned short> > >::insert_unique, COMDAT
; _this$ = ecx

; 401  : {

  00000	55		 push	 ebp
  00001	8b ec		 mov	 ebp, esp
  00003	53		 push	 ebx
  00004	8b d9		 mov	 ebx, ecx

; 402  :   _Link_type __y = this->_M_header._M_data;

  00006	8b 0b		 mov	 ecx, DWORD PTR [ebx]
  00008	56		 push	 esi

; 403  :   _Link_type __x = _M_root();

  00009	8b 71 04	 mov	 esi, DWORD PTR [ecx+4]

; 404  :   bool __comp = true;
; 405  :   while (__x != 0) {

  0000c	85 f6		 test	 esi, esi
  0000e	57		 push	 edi
  0000f	8b f9		 mov	 edi, ecx
  00011	b2 01		 mov	 dl, 1
  00013	74 1f		 je	 SHORT $L104893
  00015	8b 45 0c	 mov	 eax, DWORD PTR ___v$[ebp]
  00018	66 8b 00	 mov	 ax, WORD PTR [eax]
$L102558:

; 406  :     __y = __x;
; 407  :     __comp = _M_key_compare(_KeyOfValue()(__v), _S_key(__x));

  0001b	66 3b 46 10	 cmp	 ax, WORD PTR [esi+16]
  0001f	8b fe		 mov	 edi, esi
  00021	0f 92 c2	 setb	 dl

; 408  :     __x = __comp ? _S_left(__x) : _S_right(__x);

  00024	84 d2		 test	 dl, dl
  00026	74 05		 je	 SHORT $L104782
  00028	8b 76 08	 mov	 esi, DWORD PTR [esi+8]
  0002b	eb 03		 jmp	 SHORT $L104783
$L104782:
  0002d	8b 76 0c	 mov	 esi, DWORD PTR [esi+12]
$L104783:

; 404  :   bool __comp = true;
; 405  :   while (__x != 0) {

  00030	85 f6		 test	 esi, esi
  00032	75 e7		 jne	 SHORT $L102558
$L104893:

; 409  :   }
; 410  :   iterator __j = iterator(__y);   
; 411  :   if (__comp)

  00034	84 d2		 test	 dl, dl
  00036	8b c7		 mov	 eax, edi
  00038	74 15		 je	 SHORT $L104894

; 412  :     if (__j == begin())     

  0003a	3b 79 08	 cmp	 edi, DWORD PTR [ecx+8]
  0003d	75 09		 jne	 SHORT $L102587

; 413  :       return pair<iterator,bool>(_M_insert(/* __x*/ __y, __y, __v), true);

  0003f	6a 00		 push	 0
  00041	ff 75 0c	 push	 DWORD PTR ___v$[ebp]
  00044	57		 push	 edi
  00045	57		 push	 edi
  00046	eb 18		 jmp	 SHORT $L104895
$L102587:

; 414  :     else
; 415  :       --__j;

  00048	57		 push	 edi
  00049	e8 00 00 00 00	 call	 ?_M_decrement@?$_Rb_global@_N@_STL@@SAPAU_Rb_tree_node_base@2@PAU32@@Z ; _STL::_Rb_global<bool>::_M_decrement
  0004e	59		 pop	 ecx
$L104894:

; 416  :   if (_M_key_compare(_S_key(__j._M_node), _KeyOfValue()(__v)))

  0004f	66 8b 50 10	 mov	 dx, WORD PTR [eax+16]
  00053	8b 4d 0c	 mov	 ecx, DWORD PTR ___v$[ebp]
  00056	66 3b 11	 cmp	 dx, WORD PTR [ecx]
  00059	73 1d		 jae	 SHORT $L102593

; 417  :     return pair<iterator,bool>(_M_insert(__x, __y, __v), true);

  0005b	6a 00		 push	 0
  0005d	51		 push	 ecx
  0005e	57		 push	 edi
  0005f	56		 push	 esi
$L104895:
  00060	8d 45 0c	 lea	 eax, DWORD PTR $T104789[ebp]
  00063	50		 push	 eax
  00064	8b cb		 mov	 ecx, ebx
  00066	e8 00 00 00 00	 call	 ?_M_insert@?$_Rb_tree@GU?$pair@$$CBGG@_STL@@U?$_Select1st@U?$pair@$$CBGG@_STL@@@2@U?$less@G@2@V?$allocator@U?$pair@$$CBGG@_STL@@@2@@_STL@@AAE?AU?$_Rb_tree_iterator@U?$pair@$$CBGG@_STL@@U?$_Nonconst_traits@U?$pair@$$CBGG@_STL@@@2@@2@PAU_Rb_tree_node_base@2@0ABU?$pair@$$CBGG@2@0@Z ; _STL::_Rb_tree<unsigned short,_STL::pair<unsigned short const ,unsigned short>,_STL::_Select1st<_STL::pair<unsigned short const ,unsigned short> >,_STL::less<unsigned short>,_STL::allocator<_STL::pair<unsigned short const ,unsigned short> > >::_M_insert
  0006b	8b 08		 mov	 ecx, DWORD PTR [eax]
  0006d	8b 45 08	 mov	 eax, DWORD PTR ___$ReturnUdt$[ebp]
  00070	89 08		 mov	 DWORD PTR [eax], ecx
  00072	c6 40 04 01	 mov	 BYTE PTR [eax+4], 1
  00076	eb 0b		 jmp	 SHORT $L102553
$L102593:

; 418  :   return pair<iterator,bool>(__j, false);

  00078	8b 4d 08	 mov	 ecx, DWORD PTR ___$ReturnUdt$[ebp]
  0007b	89 01		 mov	 DWORD PTR [ecx], eax
  0007d	c6 41 04 00	 mov	 BYTE PTR [ecx+4], 0
  00081	8b c1		 mov	 eax, ecx
$L102553:
  00083	5f		 pop	 edi
  00084	5e		 pop	 esi
  00085	5b		 pop	 ebx

; 419  : }

  00086	5d		 pop	 ebp
  00087	c2 08 00	 ret	 8
?insert_unique@?$_Rb_tree@GU?$pair@$$CBGG@_STL@@U?$_Select1st@U?$pair@$$CBGG@_STL@@@2@U?$less@G@2@V?$allocator@U?$pair@$$CBGG@_STL@@@2@@_STL@@QAE?AU?$pair@U?$_Rb_tree_iterator@U?$pair@$$CBGG@_STL@@U?$_Nonconst_traits@U?$pair@$$CBGG@_STL@@@2@@_STL@@_N@2@ABU?$pair@$$CBGG@2@@Z ENDP ; _STL::_Rb_tree<unsigned short,_STL::pair<unsigned short const ,unsigned short>,_STL::_Select1st<_STL::pair<unsigned short const ,unsigned short> >,_STL::less<unsigned short>,_STL::allocator<_STL::pair<unsigned short const ,unsigned short> > >::insert_unique
_TEXT	ENDS
PUBLIC	??1?$CTypeTable@VACTION_FRAMEID_ARRAY@@@@QAE@XZ	; CTypeTable<ACTION_FRAMEID_ARRAY>::~CTypeTable<ACTION_FRAMEID_ARRAY>
; Function compile flags: /Ogsy
; File c:\darkeden\designed_common\project\client\ctypetable.h
;	COMDAT ??1?$CTypeTable@VACTION_FRAMEID_ARRAY@@@@QAE@XZ
_TEXT	SEGMENT
??1?$CTypeTable@VACTION_FRAMEID_ARRAY@@@@QAE@XZ PROC NEAR ; CTypeTable<ACTION_FRAMEID_ARRAY>::~CTypeTable<ACTION_FRAMEID_ARRAY>, COMDAT
; _this$ = ecx

; 72   : 	Release();

  00000	e9 00 00 00 00	 jmp	 ?Release@?$CTypeTable@VACTION_FRAMEID_ARRAY@@@@QAEXXZ ; CTypeTable<ACTION_FRAMEID_ARRAY>::Release
??1?$CTypeTable@VACTION_FRAMEID_ARRAY@@@@QAE@XZ ENDP	; CTypeTable<ACTION_FRAMEID_ARRAY>::~CTypeTable<ACTION_FRAMEID_ARRAY>
_TEXT	ENDS
PUBLIC	??0MActionEffectSpriteTypeTable@@QAE@XZ		; MActionEffectSpriteTypeTable::MActionEffectSpriteTypeTable
; Function compile flags: /Ogsy
; File c:\darkeden\designed_common\project\client\meffectspritetypetable.cpp
;	COMDAT ??0MActionEffectSpriteTypeTable@@QAE@XZ
_TEXT	SEGMENT
??0MActionEffectSpriteTypeTable@@QAE@XZ PROC NEAR	; MActionEffectSpriteTypeTable::MActionEffectSpriteTypeTable, COMDAT
; _this$ = ecx

; 51   : {

  00000	8b c1		 mov	 eax, ecx
  00002	83 60 04 00	 and	 DWORD PTR [eax+4], 0
  00006	83 20 00	 and	 DWORD PTR [eax], 0

; 52   : }

  00009	c3		 ret	 0
??0MActionEffectSpriteTypeTable@@QAE@XZ ENDP		; MActionEffectSpriteTypeTable::MActionEffectSpriteTypeTable
_TEXT	ENDS
PUBLIC	??1MActionEffectSpriteTypeTable@@QAE@XZ		; MActionEffectSpriteTypeTable::~MActionEffectSpriteTypeTable
; Function compile flags: /Ogsy
;	COMDAT ??1MActionEffectSpriteTypeTable@@QAE@XZ
_TEXT	SEGMENT
??1MActionEffectSpriteTypeTable@@QAE@XZ PROC NEAR	; MActionEffectSpriteTypeTable::~MActionEffectSpriteTypeTable, COMDAT
; _this$ = ecx

; 56   : }

  00000	e9 00 00 00 00	 jmp	 ?Release@?$CTypeTable@VACTION_FRAMEID_ARRAY@@@@QAEXXZ ; CTypeTable<ACTION_FRAMEID_ARRAY>::Release
??1MActionEffectSpriteTypeTable@@QAE@XZ ENDP		; MActionEffectSpriteTypeTable::~MActionEffectSpriteTypeTable
_TEXT	ENDS
PUBLIC	??0EFFECTSPRITETYPETABLE_INFO@@QAE@XZ		; EFFECTSPRITETYPETABLE_INFO::EFFECTSPRITETYPETABLE_INFO
;	COMDAT xdata$x
; File c:\stlport-4.6.1\stlport\stl\_alloc.h
xdata$x	SEGMENT
$T104932 DD	0ffffffffH
	DD	FLAT:$L104916
$T104930 DD	019930520H
	DD	01H
	DD	FLAT:$T104932
	DD	2 DUP(00H)
	DD	2 DUP(00H)
; Function compile flags: /Ogsy
; File c:\darkeden\designed_common\project\client\meffectspritetypetable.cpp
xdata$x	ENDS
;	COMDAT ??0EFFECTSPRITETYPETABLE_INFO@@QAE@XZ
_TEXT	SEGMENT
_this$ = -20						; size = 4
$T104915 = -13						; size = 1
__$EHRec$ = -12						; size = 12
??0EFFECTSPRITETYPETABLE_INFO@@QAE@XZ PROC NEAR		; EFFECTSPRITETYPETABLE_INFO::EFFECTSPRITETYPETABLE_INFO, COMDAT
; _this$ = ecx

; 67   : {

  00000	b8 00 00 00 00	 mov	 eax, __ehhandler$??0EFFECTSPRITETYPETABLE_INFO@@QAE@XZ
  00005	e8 00 00 00 00	 call	 __EH_prolog
  0000a	51		 push	 ecx
  0000b	51		 push	 ecx
  0000c	56		 push	 esi
  0000d	8b f1		 mov	 esi, ecx
  0000f	8d 45 f3	 lea	 eax, DWORD PTR $T104915[ebp]
  00012	8d 4e 0c	 lea	 ecx, DWORD PTR [esi+12]
  00015	50		 push	 eax
  00016	89 75 ec	 mov	 DWORD PTR _this$[ebp], esi
  00019	e8 00 00 00 00	 call	 ??0?$_List_base@GV?$allocator@G@_STL@@@_STL@@QAE@ABV?$allocator@G@1@@Z ; _STL::_List_base<unsigned short,_STL::allocator<unsigned short> >::_List_base<unsigned short,_STL::allocator<unsigned short> >
  0001e	83 65 fc 00	 and	 DWORD PTR __$EHRec$[ebp+8], 0
  00022	8d 4e 14	 lea	 ecx, DWORD PTR [esi+20]
  00025	e8 00 00 00 00	 call	 ??0?$map@GGU?$less@G@_STL@@V?$allocator@U?$pair@$$CBGG@_STL@@@2@@_STL@@QAE@XZ ; _STL::map<unsigned short,unsigned short,_STL::less<unsigned short>,_STL::allocator<_STL::pair<unsigned short const ,unsigned short> > >::map<unsigned short,unsigned short,_STL::less<unsigned short>,_STL::allocator<_STL::pair<unsigned short const ,unsigned short> > >

; 68   : 	bPairFrameBack = false;
; 69   : }

  0002a	8b 4d f4	 mov	 ecx, DWORD PTR __$EHRec$[ebp]
  0002d	c6 46 10 00	 mov	 BYTE PTR [esi+16], 0
  00031	8b c6		 mov	 eax, esi
  00033	5e		 pop	 esi
  00034	64 89 0d 00 00
	00 00		 mov	 DWORD PTR fs:__except_list, ecx
  0003b	c9		 leave
  0003c	c3		 ret	 0
_TEXT	ENDS
;	COMDAT text$x
text$x	SEGMENT
$L104916:
  00000	8b 4d ec	 mov	 ecx, DWORD PTR _this$[ebp]
  00003	83 c1 0c	 add	 ecx, 12			; 0000000cH
  00006	e9 00 00 00 00	 jmp	 ??1?$list@GV?$allocator@G@_STL@@@_STL@@QAE@XZ ; _STL::list<unsigned short,_STL::allocator<unsigned short> >::~list<unsigned short,_STL::allocator<unsigned short> >
__ehhandler$??0EFFECTSPRITETYPETABLE_INFO@@QAE@XZ:
  0000b	b8 00 00 00 00	 mov	 eax, OFFSET FLAT:$T104930
  00010	e9 00 00 00 00	 jmp	 ___CxxFrameHandler
text$x	ENDS
??0EFFECTSPRITETYPETABLE_INFO@@QAE@XZ ENDP		; EFFECTSPRITETYPETABLE_INFO::EFFECTSPRITETYPETABLE_INFO
PUBLIC	?insert@?$map@GGU?$less@G@_STL@@V?$allocator@U?$pair@$$CBGG@_STL@@@2@@_STL@@QAE?AU?$pair@U?$_Rb_tree_iterator@U?$pair@$$CBGG@_STL@@U?$_Nonconst_traits@U?$pair@$$CBGG@_STL@@@2@@_STL@@_N@2@ABU?$pair@$$CBGG@2@@Z ; _STL::map<unsigned short,unsigned short,_STL::less<unsigned short>,_STL::allocator<_STL::pair<unsigned short const ,unsigned short> > >::insert
; Function compile flags: /Ogsy
; File c:\stlport-4.6.1\stlport\stl\_map.h
;	COMDAT ?insert@?$map@GGU?$less@G@_STL@@V?$allocator@U?$pair@$$CBGG@_STL@@@2@@_STL@@QAE?AU?$pair@U?$_Rb_tree_iterator@U?$pair@$$CBGG@_STL@@U?$_Nonconst_traits@U?$pair@$$CBGG@_STL@@@2@@_STL@@_N@2@ABU?$pair@$$CBGG@2@@Z
_TEXT	SEGMENT
___$ReturnUdt$ = 8					; size = 4
___x$ = 12						; size = 4
?insert@?$map@GGU?$less@G@_STL@@V?$allocator@U?$pair@$$CBGG@_STL@@@2@@_STL@@QAE?AU?$pair@U?$_Rb_tree_iterator@U?$pair@$$CBGG@_STL@@U?$_Nonconst_traits@U?$pair@$$CBGG@_STL@@@2@@_STL@@_N@2@ABU?$pair@$$CBGG@2@@Z PROC NEAR ; _STL::map<unsigned short,unsigned short,_STL::less<unsigned short>,_STL::allocator<_STL::pair<unsigned short const ,unsigned short> > >::insert, COMDAT
; _this$ = ecx

; 170  :     { return _M_t.insert_unique(__x); }

  00000	ff 74 24 08	 push	 DWORD PTR ___x$[esp-4]
  00004	ff 74 24 08	 push	 DWORD PTR ___$ReturnUdt$[esp]
  00008	e8 00 00 00 00	 call	 ?insert_unique@?$_Rb_tree@GU?$pair@$$CBGG@_STL@@U?$_Select1st@U?$pair@$$CBGG@_STL@@@2@U?$less@G@2@V?$allocator@U?$pair@$$CBGG@_STL@@@2@@_STL@@QAE?AU?$pair@U?$_Rb_tree_iterator@U?$pair@$$CBGG@_STL@@U?$_Nonconst_traits@U?$pair@$$CBGG@_STL@@@2@@_STL@@_N@2@ABU?$pair@$$CBGG@2@@Z ; _STL::_Rb_tree<unsigned short,_STL::pair<unsigned short const ,unsigned short>,_STL::_Select1st<_STL::pair<unsigned short const ,unsigned short> >,_STL::less<unsigned short>,_STL::allocator<_STL::pair<unsigned short const ,unsigned short> > >::insert_unique
  0000d	8b 44 24 04	 mov	 eax, DWORD PTR ___$ReturnUdt$[esp-4]
  00011	c2 08 00	 ret	 8
?insert@?$map@GGU?$less@G@_STL@@V?$allocator@U?$pair@$$CBGG@_STL@@@2@@_STL@@QAE?AU?$pair@U?$_Rb_tree_iterator@U?$pair@$$CBGG@_STL@@U?$_Nonconst_traits@U?$pair@$$CBGG@_STL@@@2@@_STL@@_N@2@ABU?$pair@$$CBGG@2@@Z ENDP ; _STL::map<unsigned short,unsigned short,_STL::less<unsigned short>,_STL::allocator<_STL::pair<unsigned short const ,unsigned short> > >::insert
_TEXT	ENDS
PUBLIC	?LoadFromFile@EFFECTSPRITETYPETABLE_INFO@@QAEXAAVivfstream@@@Z ; EFFECTSPRITETYPETABLE_INFO::LoadFromFile
; Function compile flags: /Ogsy
; File c:\darkeden\designed_common\project\client\meffectspritetypetable.cpp
;	COMDAT ?LoadFromFile@EFFECTSPRITETYPETABLE_INFO@@QAEXAAVivfstream@@@Z
_TEXT	SEGMENT
$T104941 = -32						; size = 8
$T104940 = -24						; size = 4
tv250 = -20						; size = 4
_i$101963 = -20						; size = 4
_effectSpriteType$ = -16				; size = 2
_color$ = -12						; size = 2
_frameID$ = -8						; size = 2
_numPair$ = -3						; size = 1
_flag$ = -2						; size = 1
_bt$ = -1						; size = 1
_file$ = 8						; size = 4
_numColorGroup$ = 11					; size = 1
?LoadFromFile@EFFECTSPRITETYPETABLE_INFO@@QAEXAAVivfstream@@@Z PROC NEAR ; EFFECTSPRITETYPETABLE_INFO::LoadFromFile, COMDAT
; _this$ = ecx

; 134  : {

  00000	55		 push	 ebp
  00001	8b ec		 mov	 ebp, esp
  00003	83 ec 20	 sub	 esp, 32			; 00000020H
  00006	53		 push	 ebx
  00007	56		 push	 esi

; 135  : 	BYTE bt;
; 136  : 	file.read((char*)&bt, 1);

  00008	8b 75 08	 mov	 esi, DWORD PTR _file$[ebp]
  0000b	33 db		 xor	 ebx, ebx
  0000d	39 5e 04	 cmp	 DWORD PTR [esi+4], ebx
  00010	57		 push	 edi
  00011	8b f9		 mov	 edi, ecx
  00013	74 0e		 je	 SHORT $L105005
  00015	8b 4e 04	 mov	 ecx, DWORD PTR [esi+4]
  00018	8b 01		 mov	 eax, DWORD PTR [ecx]
  0001a	6a 01		 push	 1
  0001c	8d 55 ff	 lea	 edx, DWORD PTR _bt$[ebp]
  0001f	52		 push	 edx
  00020	ff 50 10	 call	 DWORD PTR [eax+16]
$L105005:

; 137  : 	BltType = (BLT_TYPE)bt;

  00023	0f b6 45 ff	 movzx	 eax, BYTE PTR _bt$[ebp]
  00027	89 07		 mov	 DWORD PTR [edi], eax

; 138  : 	file.read((char*)&FrameID, SIZE_FRAMEID);	

  00029	39 5e 04	 cmp	 DWORD PTR [esi+4], ebx
  0002c	74 21		 je	 SHORT $L104954
  0002e	8b 4e 04	 mov	 ecx, DWORD PTR [esi+4]
  00031	8b 01		 mov	 eax, DWORD PTR [ecx]
  00033	6a 02		 push	 2
  00035	8d 57 04	 lea	 edx, DWORD PTR [edi+4]
  00038	52		 push	 edx
  00039	ff 50 10	 call	 DWORD PTR [eax+16]

; 139  : 	BYTE flag;
; 140  : 	
; 141  : 	file.read((char*)&flag, 1);

  0003c	39 5e 04	 cmp	 DWORD PTR [esi+4], ebx
  0003f	74 0e		 je	 SHORT $L104954
  00041	8b 4e 04	 mov	 ecx, DWORD PTR [esi+4]
  00044	8b 01		 mov	 eax, DWORD PTR [ecx]
  00046	6a 01		 push	 1
  00048	8d 55 fe	 lea	 edx, DWORD PTR _flag$[ebp]
  0004b	52		 push	 edx
  0004c	ff 50 10	 call	 DWORD PTR [eax+16]
$L104954:

; 142  : 	
; 143  : 	RepeatFrame = (flag>>1)&0x1;

  0004f	8a 45 fe	 mov	 al, BYTE PTR _flag$[ebp]
  00052	8a c8		 mov	 cl, al
  00054	d0 e9		 shr	 cl, 1
  00056	80 e1 01	 and	 cl, 1

; 144  : 	bPairFrameBack = (flag)&0x1;

  00059	24 01		 and	 al, 1
  0005b	88 4f 06	 mov	 BYTE PTR [edi+6], cl
  0005e	88 47 10	 mov	 BYTE PTR [edi+16], al

; 145  : 
; 146  : 	file.read((char*)&ActionEffectFrameID, SIZE_FRAMEID);

  00061	39 5e 04	 cmp	 DWORD PTR [esi+4], ebx
  00064	74 21		 je	 SHORT $L104964
  00066	8b 4e 04	 mov	 ecx, DWORD PTR [esi+4]
  00069	8b 01		 mov	 eax, DWORD PTR [ecx]
  0006b	6a 02		 push	 2
  0006d	8d 57 08	 lea	 edx, DWORD PTR [edi+8]
  00070	52		 push	 edx
  00071	ff 50 10	 call	 DWORD PTR [eax+16]

; 147  : 	//if(ActionEffectFrameID == 50 || ActionEffectFrameID == 54)
; 148  : 	//{
; 149  : 	//	ActionEffectFrameID =65535;
; 150  : 	//}
; 151  : 	//file.read((char*)&PairFrameID, SIZE_FRAMEID);	
; 152  : 	file.read((char*)&FemaleEffectSpriteType, SIZE_EFFECTSPRITETYPE);	

  00074	39 5e 04	 cmp	 DWORD PTR [esi+4], ebx
  00077	74 0e		 je	 SHORT $L104964
  00079	8b 4e 04	 mov	 ecx, DWORD PTR [esi+4]
  0007c	8b 01		 mov	 eax, DWORD PTR [ecx]
  0007e	6a 02		 push	 2
  00080	8d 57 12	 lea	 edx, DWORD PTR [edi+18]
  00083	52		 push	 edx
  00084	ff 50 10	 call	 DWORD PTR [eax+16]
$L104964:

; 153  : 
; 154  : 	//----------------------------------------------------------
; 155  : 	// Pair FrameID List
; 156  : 	//----------------------------------------------------------
; 157  : 	PairFrameIDList.clear();

  00087	8d 5f 0c	 lea	 ebx, DWORD PTR [edi+12]
  0008a	8b cb		 mov	 ecx, ebx
  0008c	e8 00 00 00 00	 call	 ?clear@?$_List_base@GV?$allocator@G@_STL@@@_STL@@QAEXXZ ; _STL::_List_base<unsigned short,_STL::allocator<unsigned short> >::clear

; 158  : 
; 159  : 	BYTE numPair;	
; 160  : 	file.read((char*)&numPair, 1);

  00091	83 7e 04 00	 cmp	 DWORD PTR [esi+4], 0
  00095	74 0e		 je	 SHORT $L104969
  00097	8b 4e 04	 mov	 ecx, DWORD PTR [esi+4]
  0009a	8b 01		 mov	 eax, DWORD PTR [ecx]
  0009c	6a 01		 push	 1
  0009e	8d 55 fd	 lea	 edx, DWORD PTR _numPair$[ebp]
  000a1	52		 push	 edx
  000a2	ff 50 10	 call	 DWORD PTR [eax+16]
$L104969:

; 161  : 
; 162  : 	TYPE_FRAMEID frameID;
; 163  : 	int intNumPair = numPair;

  000a5	0f b6 45 fd	 movzx	 eax, BYTE PTR _numPair$[ebp]

; 164  : 	for (int i=0; i<intNumPair; i++)

  000a9	85 c0		 test	 eax, eax
  000ab	7e 27		 jle	 SHORT $L101966

; 161  : 
; 162  : 	TYPE_FRAMEID frameID;
; 163  : 	int intNumPair = numPair;

  000ad	89 45 ec	 mov	 DWORD PTR tv250[ebp], eax
$L105007:

; 165  : 	{	
; 166  : 		file.read((char*)&frameID, SIZE_FRAMEID);

  000b0	83 7e 04 00	 cmp	 DWORD PTR [esi+4], 0
  000b4	74 0e		 je	 SHORT $L104974
  000b6	8b 4e 04	 mov	 ecx, DWORD PTR [esi+4]
  000b9	8b 01		 mov	 eax, DWORD PTR [ecx]
  000bb	6a 02		 push	 2
  000bd	8d 55 f8	 lea	 edx, DWORD PTR _frameID$[ebp]
  000c0	52		 push	 edx
  000c1	ff 50 10	 call	 DWORD PTR [eax+16]
$L104974:

; 167  : 
; 168  : 		PairFrameIDList.push_back( frameID );

  000c4	8d 45 f8	 lea	 eax, DWORD PTR _frameID$[ebp]
  000c7	50		 push	 eax
  000c8	8b cb		 mov	 ecx, ebx
  000ca	e8 00 00 00 00	 call	 ?push_back@?$list@GV?$allocator@G@_STL@@@_STL@@QAEXABG@Z ; _STL::list<unsigned short,_STL::allocator<unsigned short> >::push_back
  000cf	ff 4d ec	 dec	 DWORD PTR tv250[ebp]
  000d2	75 dc		 jne	 SHORT $L105007
$L101966:

; 169  : 	}
; 170  : 
; 171  : 
; 172  : 	//----------------------------------------------------------
; 173  : 	// Color Group Map
; 174  : 	//----------------------------------------------------------
; 175  : 	ColorGroupMap.clear();

  000d4	83 c7 14	 add	 edi, 20			; 00000014H
  000d7	8b cf		 mov	 ecx, edi
  000d9	e8 00 00 00 00	 call	 ?clear@?$_Rb_tree@GU?$pair@$$CBGG@_STL@@U?$_Select1st@U?$pair@$$CBGG@_STL@@@2@U?$less@G@2@V?$allocator@U?$pair@$$CBGG@_STL@@@2@@_STL@@QAEXXZ ; _STL::_Rb_tree<unsigned short,_STL::pair<unsigned short const ,unsigned short>,_STL::_Select1st<_STL::pair<unsigned short const ,unsigned short> >,_STL::less<unsigned short>,_STL::allocator<_STL::pair<unsigned short const ,unsigned short> > >::clear

; 176  : 
; 177  : 	BYTE numColorGroup;	
; 178  : 	file.read((char*)&numColorGroup, 1);

  000de	33 db		 xor	 ebx, ebx
  000e0	39 5e 04	 cmp	 DWORD PTR [esi+4], ebx
  000e3	74 0e		 je	 SHORT $L104982
  000e5	8b 4e 04	 mov	 ecx, DWORD PTR [esi+4]
  000e8	8b 01		 mov	 eax, DWORD PTR [ecx]
  000ea	6a 01		 push	 1
  000ec	8d 55 0b	 lea	 edx, DWORD PTR _numColorGroup$[ebp]
  000ef	52		 push	 edx
  000f0	ff 50 10	 call	 DWORD PTR [eax+16]
$L104982:

; 179  : 
; 180  : 	Color_t color;
; 181  : 	TYPE_EFFECTSPRITETYPE effectSpriteType;
; 182  : 
; 183  : 	int intColorGroup = numColorGroup;
; 184  : 
; 185  : 	for(i = 0; i < numColorGroup; i++)

  000f3	80 7d 0b 00	 cmp	 BYTE PTR _numColorGroup$[ebp], 0
  000f7	89 5d ec	 mov	 DWORD PTR _i$101963[ebp], ebx
  000fa	76 51		 jbe	 SHORT $L101975
$L101973:

; 186  : 	{	
; 187  : 		file.read((char*)&color, szColor);

  000fc	39 5e 04	 cmp	 DWORD PTR [esi+4], ebx
  000ff	74 21		 je	 SHORT $L104992
  00101	8b 4e 04	 mov	 ecx, DWORD PTR [esi+4]
  00104	8b 01		 mov	 eax, DWORD PTR [ecx]
  00106	6a 02		 push	 2
  00108	8d 55 f4	 lea	 edx, DWORD PTR _color$[ebp]
  0010b	52		 push	 edx
  0010c	ff 50 10	 call	 DWORD PTR [eax+16]

; 188  : 		file.read((char*)&effectSpriteType, SIZE_EFFECTSPRITETYPE);

  0010f	39 5e 04	 cmp	 DWORD PTR [esi+4], ebx
  00112	74 0e		 je	 SHORT $L104992
  00114	8b 4e 04	 mov	 ecx, DWORD PTR [esi+4]
  00117	8b 01		 mov	 eax, DWORD PTR [ecx]
  00119	6a 02		 push	 2
  0011b	8d 55 f0	 lea	 edx, DWORD PTR _effectSpriteType$[ebp]
  0011e	52		 push	 edx
  0011f	ff 50 10	 call	 DWORD PTR [eax+16]
$L104992:

; 189  : 
; 190  : 		ColorGroupMap.insert( COLORGROUP_MAP::value_type(color, effectSpriteType) );

  00122	66 8b 45 f4	 mov	 ax, WORD PTR _color$[ebp]
  00126	66 89 45 e8	 mov	 WORD PTR $T104940[ebp], ax
  0012a	66 8b 45 f0	 mov	 ax, WORD PTR _effectSpriteType$[ebp]
  0012e	66 89 45 ea	 mov	 WORD PTR $T104940[ebp+2], ax
  00132	8d 45 e8	 lea	 eax, DWORD PTR $T104940[ebp]
  00135	50		 push	 eax
  00136	8d 45 e0	 lea	 eax, DWORD PTR $T104941[ebp]
  00139	50		 push	 eax
  0013a	8b cf		 mov	 ecx, edi
  0013c	e8 00 00 00 00	 call	 ?insert_unique@?$_Rb_tree@GU?$pair@$$CBGG@_STL@@U?$_Select1st@U?$pair@$$CBGG@_STL@@@2@U?$less@G@2@V?$allocator@U?$pair@$$CBGG@_STL@@@2@@_STL@@QAE?AU?$pair@U?$_Rb_tree_iterator@U?$pair@$$CBGG@_STL@@U?$_Nonconst_traits@U?$pair@$$CBGG@_STL@@@2@@_STL@@_N@2@ABU?$pair@$$CBGG@2@@Z ; _STL::_Rb_tree<unsigned short,_STL::pair<unsigned short const ,unsigned short>,_STL::_Select1st<_STL::pair<unsigned short const ,unsigned short> >,_STL::less<unsigned short>,_STL::allocator<_STL::pair<unsigned short const ,unsigned short> > >::insert_unique
  00141	0f b6 45 0b	 movzx	 eax, BYTE PTR _numColorGroup$[ebp]
  00145	ff 45 ec	 inc	 DWORD PTR _i$101963[ebp]
  00148	39 45 ec	 cmp	 DWORD PTR _i$101963[ebp], eax
  0014b	7c af		 jl	 SHORT $L101973
$L101975:
  0014d	5f		 pop	 edi
  0014e	5e		 pop	 esi
  0014f	5b		 pop	 ebx

; 191  : 	}
; 192  : }

  00150	c9		 leave
  00151	c2 04 00	 ret	 4
?LoadFromFile@EFFECTSPRITETYPETABLE_INFO@@QAEXAAVivfstream@@@Z ENDP ; EFFECTSPRITETYPETABLE_INFO::LoadFromFile
_TEXT	ENDS
END
