; Listing generated by Microsoft (R) Optimizing Compiler Version 13.10.3077 

	TITLE	\darkeden\Designed_Common\Project\Client\MGuildMarkManager.cpp
	.386P
include listing.inc
if @Version gt 510
.model FLAT
else
_TEXT	SEGMENT PARA USE32 PUBLIC 'CODE'
_TEXT	ENDS
_DATA	SEGMENT DWORD USE32 PUBLIC 'DATA'
_DATA	ENDS
CONST	SEGMENT DWORD USE32 PUBLIC 'CONST'
CONST	ENDS
_BSS	SEGMENT DWORD USE32 PUBLIC 'BSS'
_BSS	ENDS
$$SYMBOLS	SEGMENT BYTE USE32 'DEBSYM'
$$SYMBOLS	ENDS
$$TYPES	SEGMENT BYTE USE32 'DEBTYP'
$$TYPES	ENDS
_TLS	SEGMENT DWORD USE32 PUBLIC 'TLS'
_TLS	ENDS
;	COMDAT ??_C@_0BN@ODLNCKCA@Data?2?2Info?2?2ClientConfig?4inf?$AA@
CONST	SEGMENT DWORD USE32 PUBLIC 'CONST'
CONST	ENDS
;	COMDAT ??_C@_0BM@DFPLPGPC@Data?2?2Info?2?2GuildMapper?4inf?$AA@
CONST	SEGMENT DWORD USE32 PUBLIC 'CONST'
CONST	ENDS
;	COMDAT ??_C@_0BN@LHODHNBK@Data?2?2Info?2?2GuildVersion?4inf?$AA@
CONST	SEGMENT DWORD USE32 PUBLIC 'CONST'
CONST	ENDS
;	COMDAT ??_C@_0BH@DDPLNCOL@Data?2?2Info?2?2Player?4inf?$AA@
CONST	SEGMENT DWORD USE32 PUBLIC 'CONST'
CONST	ENDS
;	COMDAT ??_C@_0BL@ILLNAPHB@Data?2?2Info?2?2Resolution?4inf?$AA@
CONST	SEGMENT DWORD USE32 PUBLIC 'CONST'
CONST	ENDS
;	COMDAT ??_C@_0CA@HEIGFDLG@Data?2?2Info?2?2SelectedChannel?4inf?$AA@
CONST	SEGMENT DWORD USE32 PUBLIC 'CONST'
CONST	ENDS
;	COMDAT ??_C@_0O@JKENFCBN@MinTrace?52003?$AA@
CONST	SEGMENT DWORD USE32 PUBLIC 'CONST'
CONST	ENDS
;	COMDAT ??_C@_0BE@MNEJIGLM@__MinTrace?5Window__?$AA@
CONST	SEGMENT DWORD USE32 PUBLIC 'CONST'
CONST	ENDS
;	COMDAT ??_C@_06KLPNNMEP@?$CF8d?0?$CFs?$AA@
CONST	SEGMENT DWORD USE32 PUBLIC 'CONST'
CONST	ENDS
;	COMDAT ??_C@_03KLNPHJAI@?$CFsi?$AA@
CONST	SEGMENT DWORD USE32 PUBLIC 'CONST'
CONST	ENDS
;	COMDAT ??_C@_0BJ@MIBMMHPK@real?5size?5?3?5?$CFd?5size?5?3?5?$CFd?$AA@
CONST	SEGMENT DWORD USE32 PUBLIC 'CONST'
CONST	ENDS
;	COMDAT ??_C@_0L@GKEOOOME@CTypePack2?$AA@
CONST	SEGMENT DWORD USE32 PUBLIC 'CONST'
CONST	ENDS
;	COMDAT ??_C@_0M@KJGOGBJN@?2header?4inf?$AA@
CONST	SEGMENT DWORD USE32 PUBLIC 'CONST'
CONST	ENDS
;	COMDAT ??_C@_09EIKOIO@?$CFs?2?$CF05d?$CFs?$AA@
CONST	SEGMENT DWORD USE32 PUBLIC 'CONST'
CONST	ENDS
;	COMDAT ??_C@_0N@GOPDCEEB@basic_string?$AA@
CONST	SEGMENT DWORD USE32 PUBLIC 'CONST'
CONST	ENDS
rdata$r	SEGMENT DWORD USE32 PUBLIC 'CONST'
rdata$r	ENDS
text$yc	SEGMENT PARA USE32 PUBLIC 'CODE'
text$yc	ENDS
CRT$XCA	SEGMENT DWORD USE32 PUBLIC 'DATA'
CRT$XCA	ENDS
CRT$XCU	SEGMENT DWORD USE32 PUBLIC 'DATA'
CRT$XCU	ENDS
CRT$XCL	SEGMENT DWORD USE32 PUBLIC 'DATA'
CRT$XCL	ENDS
CRT$XCC	SEGMENT DWORD USE32 PUBLIC 'DATA'
CRT$XCC	ENDS
CRT$XCZ	SEGMENT DWORD USE32 PUBLIC 'DATA'
CRT$XCZ	ENDS
text$yd	SEGMENT PARA USE32 PUBLIC 'CODE'
text$yd	ENDS
;	COMDAT ?Is565@CDirectDraw@@SA_NXZ
_TEXT	SEGMENT PARA USE32 PUBLIC 'CODE'
_TEXT	ENDS
;	COMDAT ?Red@CDirectDraw@@SAEABG@Z
_TEXT	SEGMENT PARA USE32 PUBLIC 'CODE'
_TEXT	ENDS
;	COMDAT ?Green@CDirectDraw@@SAEABG@Z
_TEXT	SEGMENT PARA USE32 PUBLIC 'CODE'
_TEXT	ENDS
;	COMDAT ?Blue@CDirectDraw@@SAEABG@Z
_TEXT	SEGMENT PARA USE32 PUBLIC 'CODE'
_TEXT	ENDS
;	COMDAT ?GetWidth@CDirectDrawSurface@@QBEHXZ
_TEXT	SEGMENT PARA USE32 PUBLIC 'CODE'
_TEXT	ENDS
;	COMDAT ?GetHeight@CDirectDrawSurface@@QBEHXZ
_TEXT	SEGMENT PARA USE32 PUBLIC 'CODE'
_TEXT	ENDS
;	COMDAT ?SetClipLeftTop@CDirectDrawSurface@@QAEXHH@Z
_TEXT	SEGMENT PARA USE32 PUBLIC 'CODE'
_TEXT	ENDS
;	COMDAT ?SetClipRightBottom@CDirectDrawSurface@@QAEXHH@Z
_TEXT	SEGMENT PARA USE32 PUBLIC 'CODE'
_TEXT	ENDS
;	COMDAT ?start@CNFS@@QAE_NPADH@Z
_TEXT	SEGMENT PARA USE32 PUBLIC 'CODE'
_TEXT	ENDS
;	COMDAT ?end@CNFS@@QAEXXZ
_TEXT	SEGMENT PARA USE32 PUBLIC 'CODE'
_TEXT	ENDS
;	COMDAT ?Init@VirtualFileHeader@@QAEXXZ
_TEXT	SEGMENT PARA USE32 PUBLIC 'CODE'
_TEXT	ENDS
;	COMDAT ??1IFileIO@@UAE@XZ
_TEXT	SEGMENT PARA USE32 PUBLIC 'CODE'
_TEXT	ENDS
;	COMDAT ??_GIFileIO@@UAEPAXI@Z
_TEXT	SEGMENT PARA USE32 PUBLIC 'CODE'
_TEXT	ENDS
;	COMDAT ?get_vfs@iovfs_base@@SAPAVVirtualFileSystem@@XZ
_TEXT	SEGMENT PARA USE32 PUBLIC 'CODE'
_TEXT	ENDS
;	COMDAT ??0iovfs_base@@QAE@XZ
_TEXT	SEGMENT PARA USE32 PUBLIC 'CODE'
_TEXT	ENDS
;	COMDAT ??_Giovfs_base@@UAEPAXI@Z
_TEXT	SEGMENT PARA USE32 PUBLIC 'CODE'
_TEXT	ENDS
;	COMDAT ??1iovfs_base@@UAE@XZ
_TEXT	SEGMENT PARA USE32 PUBLIC 'CODE'
_TEXT	ENDS
;	COMDAT ?Init@iovfs_base@@QAEXXZ
_TEXT	SEGMENT PARA USE32 PUBLIC 'CODE'
_TEXT	ENDS
;	COMDAT ?is_open@iovfs_base@@QBE_NXZ
_TEXT	SEGMENT PARA USE32 PUBLIC 'CODE'
_TEXT	ENDS
;	COMDAT ??0ivfstream@@QAE@XZ
_TEXT	SEGMENT PARA USE32 PUBLIC 'CODE'
_TEXT	ENDS
;	COMDAT ??_Givfstream@@UAEPAXI@Z
_TEXT	SEGMENT PARA USE32 PUBLIC 'CODE'
_TEXT	ENDS
;	COMDAT ??0ivfstream@@QAE@PBDH@Z
_TEXT	SEGMENT PARA USE32 PUBLIC 'CODE'
_TEXT	ENDS
;	COMDAT ??1ivfstream@@UAE@XZ
_TEXT	SEGMENT PARA USE32 PUBLIC 'CODE'
_TEXT	ENDS
;	COMDAT ?open@ivfstream@@UAEXPBDH@Z
_TEXT	SEGMENT PARA USE32 PUBLIC 'CODE'
_TEXT	ENDS
;	COMDAT ?read@ivfstream@@QAEXPADI@Z
_TEXT	SEGMENT PARA USE32 PUBLIC 'CODE'
_TEXT	ENDS
;	COMDAT ?seekg@ivfstream@@QAEXJH@Z
_TEXT	SEGMENT PARA USE32 PUBLIC 'CODE'
_TEXT	ENDS
;	COMDAT ?getline@ivfstream@@QAEPAXPADHD@Z
_TEXT	SEGMENT PARA USE32 PUBLIC 'CODE'
_TEXT	ENDS
;	COMDAT ??_Govfstream@@UAEPAXI@Z
_TEXT	SEGMENT PARA USE32 PUBLIC 'CODE'
_TEXT	ENDS
;	COMDAT ??1ovfstream@@UAE@XZ
_TEXT	SEGMENT PARA USE32 PUBLIC 'CODE'
_TEXT	ENDS
;	COMDAT ?open@ovfstream@@UAEXPBDH@Z
_TEXT	SEGMENT PARA USE32 PUBLIC 'CODE'
_TEXT	ENDS
;	COMDAT ??0ITypePackBase@@QAE@XZ
_TEXT	SEGMENT PARA USE32 PUBLIC 'CODE'
_TEXT	ENDS
;	COMDAT ??1ITypePackBase@@UAE@XZ
_TEXT	SEGMENT PARA USE32 PUBLIC 'CODE'
_TEXT	ENDS
;	COMDAT ??_GITypePackBase@@UAEPAXI@Z
_TEXT	SEGMENT PARA USE32 PUBLIC 'CODE'
_TEXT	ENDS
;	COMDAT ?IsInit@CSpritePalBase@@QBE_NXZ
_TEXT	SEGMENT PARA USE32 PUBLIC 'CODE'
_TEXT	ENDS
;	COMDAT ?IsInit@CSprite@@QBE_NXZ
_TEXT	SEGMENT PARA USE32 PUBLIC 'CODE'
_TEXT	ENDS
;	COMDAT ?SetColorkey@CSprite@@SAXG@Z
_TEXT	SEGMENT PARA USE32 PUBLIC 'CODE'
_TEXT	ENDS
;	COMDAT ?GetString@MString@@QBEPADXZ
_TEXT	SEGMENT PARA USE32 PUBLIC 'CODE'
_TEXT	ENDS
;	COMDAT ??0GUILD_SPRITES@MGuildMarkManager@@QAE@PAVCSprite@@0@Z
_TEXT	SEGMENT PARA USE32 PUBLIC 'CODE'
_TEXT	ENDS
;	COMDAT ?GetSpriteID@GUILD_INFO@@QBEGXZ
_TEXT	SEGMENT PARA USE32 PUBLIC 'CODE'
_TEXT	ENDS
;	COMDAT ?_MinTraceA@@YAXPBD@Z
_TEXT	SEGMENT PARA USE32 PUBLIC 'CODE'
_TEXT	ENDS
;	COMDAT ?_MinTraceErrA@@YAXPBD@Z
_TEXT	SEGMENT PARA USE32 PUBLIC 'CODE'
_TEXT	ENDS
;	COMDAT ?_MinTraceWarA@@YAXPBD@Z
_TEXT	SEGMENT PARA USE32 PUBLIC 'CODE'
_TEXT	ENDS
;	COMDAT ?_ClMinTraceA@@YAXKPBD@Z
_TEXT	SEGMENT PARA USE32 PUBLIC 'CODE'
_TEXT	ENDS
;	COMDAT ?_CmdMinTraceA@@YAXHPBD@Z
_TEXT	SEGMENT PARA USE32 PUBLIC 'CODE'
_TEXT	ENDS
;	COMDAT ??0MGuildMarkManager@@QAE@PBD0000000@Z
_TEXT	SEGMENT PARA USE32 PUBLIC 'CODE'
_TEXT	ENDS
;	COMDAT ??1?$map@GUGUILD_SPRITES@MGuildMarkManager@@U?$less@G@_STL@@V?$allocator@U?$pair@$$CBGUGUILD_SPRITES@MGuildMarkManager@@@_STL@@@4@@_STL@@QAE@XZ
_TEXT	SEGMENT PARA USE32 PUBLIC 'CODE'
_TEXT	ENDS
;	COMDAT ??1MGuildMarkManager@@QAE@XZ
_TEXT	SEGMENT PARA USE32 PUBLIC 'CODE'
_TEXT	ENDS
;	COMDAT ?Release@MGuildMarkManager@@QAEXXZ
_TEXT	SEGMENT PARA USE32 PUBLIC 'CODE'
_TEXT	ENDS
;	COMDAT ?GetGuildMark@MGuildMarkManager@@QAEPAVCSprite@@G@Z
_TEXT	SEGMENT PARA USE32 PUBLIC 'CODE'
_TEXT	ENDS
;	COMDAT ?GetGuildMarkSmall@MGuildMarkManager@@QAEPAVCSprite@@G@Z
_TEXT	SEGMENT PARA USE32 PUBLIC 'CODE'
_TEXT	ENDS
;	COMDAT ?HasGuildMark@MGuildMarkManager@@QBE_NG@Z
_TEXT	SEGMENT PARA USE32 PUBLIC 'CODE'
_TEXT	ENDS
;	COMDAT ?LoadGuildMark@MGuildMarkManager@@QAE_NG@Z
_TEXT	SEGMENT PARA USE32 PUBLIC 'CODE'
_TEXT	ENDS
;	COMDAT ?GetGradeMark@MGuildMarkManager@@QAEPAVCSprite@@GW4Race@@@Z
_TEXT	SEGMENT PARA USE32 PUBLIC 'CODE'
_TEXT	ENDS
;	COMDAT ?GetGradeMarkSmall@MGuildMarkManager@@QAEPAVCSprite@@GW4Race@@@Z
_TEXT	SEGMENT PARA USE32 PUBLIC 'CODE'
_TEXT	ENDS
;	COMDAT ?GetOriginMark@MGuildMarkManager@@QAEPAVCSprite@@G@Z
_TEXT	SEGMENT PARA USE32 PUBLIC 'CODE'
_TEXT	ENDS
;	COMDAT ?GetLevelMark@MGuildMarkManager@@QAEPAVCSprite@@G@Z
_TEXT	SEGMENT PARA USE32 PUBLIC 'CODE'
_TEXT	ENDS
;	COMDAT ?GetLevelMarkSmall@MGuildMarkManager@@QAEPAVCSprite@@G@Z
_TEXT	SEGMENT PARA USE32 PUBLIC 'CODE'
_TEXT	ENDS
;	COMDAT ?SetMonsterLevelMarkGreen@MGuildMarkManager@@QAEPAVCSprite@@XZ
_TEXT	SEGMENT PARA USE32 PUBLIC 'CODE'
_TEXT	ENDS
;	COMDAT ?SetMonsterLevelMarkRed@MGuildMarkManager@@QAEPAVCSprite@@XZ
_TEXT	SEGMENT PARA USE32 PUBLIC 'CODE'
_TEXT	ENDS
;	COMDAT ?CreateGuildMark@MGuildMarkManager@@SA_NPBDAAPAVCSprite@@1@Z
_TEXT	SEGMENT PARA USE32 PUBLIC 'CODE'
_TEXT	ENDS
;	COMDAT ??0CSprite565@@QAE@XZ
_TEXT	SEGMENT PARA USE32 PUBLIC 'CODE'
_TEXT	ENDS
;	COMDAT ??0CSprite555@@QAE@XZ
_TEXT	SEGMENT PARA USE32 PUBLIC 'CODE'
_TEXT	ENDS
;	COMDAT ?eq@?$__char_traits_base@DH@_STL@@SA_NABD0@Z
_TEXT	SEGMENT PARA USE32 PUBLIC 'CODE'
_TEXT	ENDS
;	COMDAT ?not_eof@?$__char_traits_base@DH@_STL@@SAHABH@Z
_TEXT	SEGMENT PARA USE32 PUBLIC 'CODE'
_TEXT	ENDS
;	COMDAT ?eq_int_type@?$__char_traits_base@DH@_STL@@SA_NABH0@Z
_TEXT	SEGMENT PARA USE32 PUBLIC 'CODE'
_TEXT	ENDS
;	COMDAT ?get_allocator@?$basic_string@DV?$char_traits@D@_STL@@V?$allocator@D@2@@_STL@@QBE?AV?$allocator@D@2@XZ
_TEXT	SEGMENT PARA USE32 PUBLIC 'CODE'
_TEXT	ENDS
;	COMDAT ??4?$basic_string@DV?$char_traits@D@_STL@@V?$allocator@D@2@@_STL@@QAEAAV01@PBD@Z
_TEXT	SEGMENT PARA USE32 PUBLIC 'CODE'
_TEXT	ENDS
;	COMDAT ?_M_terminate_string@?$basic_string@DV?$char_traits@D@_STL@@V?$allocator@D@2@@_STL@@AAEXXZ
_TEXT	SEGMENT PARA USE32 PUBLIC 'CODE'
_TEXT	ENDS
;	COMDAT ?c_str@?$basic_string@DV?$char_traits@D@_STL@@V?$allocator@D@2@@_STL@@QBEPBDXZ
_TEXT	SEGMENT PARA USE32 PUBLIC 'CODE'
_TEXT	ENDS
;	COMDAT ??0?$_String_base@DV?$allocator@D@_STL@@@_STL@@QAE@ABV?$allocator@D@1@@Z
_TEXT	SEGMENT PARA USE32 PUBLIC 'CODE'
_TEXT	ENDS
;	COMDAT ?allocate@?$allocator@D@_STL@@QAEPADIPBX@Z
_TEXT	SEGMENT PARA USE32 PUBLIC 'CODE'
_TEXT	ENDS
;	COMDAT ??0?$fpos@H@_STL@@QAE@J@Z
_TEXT	SEGMENT PARA USE32 PUBLIC 'CODE'
_TEXT	ENDS
;	COMDAT ??B?$fpos@H@_STL@@QBEJXZ
_TEXT	SEGMENT PARA USE32 PUBLIC 'CODE'
_TEXT	ENDS
;	COMDAT ?state@?$fpos@H@_STL@@QBEHXZ
_TEXT	SEGMENT PARA USE32 PUBLIC 'CODE'
_TEXT	ENDS
;	COMDAT ?is_open@?$basic_filebuf@DV?$char_traits@D@_STL@@@_STL@@QBE_NXZ
_TEXT	SEGMENT PARA USE32 PUBLIC 'CODE'
_TEXT	ENDS
;	COMDAT ?_M_seek_return@?$basic_filebuf@DV?$char_traits@D@_STL@@@_STL@@AAE?AV?$fpos@H@2@JH@Z
_TEXT	SEGMENT PARA USE32 PUBLIC 'CODE'
_TEXT	ENDS
;	COMDAT ??0?$_Filebuf_Tmp_Buf@D@_STL@@QAE@H@Z
_TEXT	SEGMENT PARA USE32 PUBLIC 'CODE'
_TEXT	ENDS
;	COMDAT ??1?$_Filebuf_Tmp_Buf@D@_STL@@QAE@XZ
_TEXT	SEGMENT PARA USE32 PUBLIC 'CODE'
_TEXT	ENDS
;	COMDAT ??0?$map@GUGUILD_SPRITES@MGuildMarkManager@@U?$less@G@_STL@@V?$allocator@U?$pair@$$CBGUGUILD_SPRITES@MGuildMarkManager@@@_STL@@@4@@_STL@@QAE@XZ
_TEXT	SEGMENT PARA USE32 PUBLIC 'CODE'
_TEXT	ENDS
;	COMDAT ?end@?$map@GUGUILD_SPRITES@MGuildMarkManager@@U?$less@G@_STL@@V?$allocator@U?$pair@$$CBGUGUILD_SPRITES@MGuildMarkManager@@@_STL@@@4@@_STL@@QAE?AU?$_Rb_tree_iterator@U?$pair@$$CBGUGUILD_SPRITES@MGuildMarkManager@@@_STL@@U?$_Nonconst_traits@U?$pair@$$CBGUGUILD_SPRITES@MGuildMarkManager@@@_STL@@@2@@2@XZ
_TEXT	SEGMENT PARA USE32 PUBLIC 'CODE'
_TEXT	ENDS
;	COMDAT ?end@?$map@GUGUILD_SPRITES@MGuildMarkManager@@U?$less@G@_STL@@V?$allocator@U?$pair@$$CBGUGUILD_SPRITES@MGuildMarkManager@@@_STL@@@4@@_STL@@QBE?AU?$_Rb_tree_iterator@U?$pair@$$CBGUGUILD_SPRITES@MGuildMarkManager@@@_STL@@U?$_Const_traits@U?$pair@$$CBGUGUILD_SPRITES@MGuildMarkManager@@@_STL@@@2@@2@XZ
_TEXT	SEGMENT PARA USE32 PUBLIC 'CODE'
_TEXT	ENDS
;	COMDAT ??A?$map@GUGUILD_SPRITES@MGuildMarkManager@@U?$less@G@_STL@@V?$allocator@U?$pair@$$CBGUGUILD_SPRITES@MGuildMarkManager@@@_STL@@@4@@_STL@@QAEAAUGUILD_SPRITES@MGuildMarkManager@@ABG@Z
_TEXT	SEGMENT PARA USE32 PUBLIC 'CODE'
_TEXT	ENDS
;	COMDAT ?clear@?$map@GUGUILD_SPRITES@MGuildMarkManager@@U?$less@G@_STL@@V?$allocator@U?$pair@$$CBGUGUILD_SPRITES@MGuildMarkManager@@@_STL@@@4@@_STL@@QAEXXZ
_TEXT	SEGMENT PARA USE32 PUBLIC 'CODE'
_TEXT	ENDS
;	COMDAT ?find@?$map@GUGUILD_SPRITES@MGuildMarkManager@@U?$less@G@_STL@@V?$allocator@U?$pair@$$CBGUGUILD_SPRITES@MGuildMarkManager@@@_STL@@@4@@_STL@@QAE?AU?$_Rb_tree_iterator@U?$pair@$$CBGUGUILD_SPRITES@MGuildMarkManager@@@_STL@@U?$_Nonconst_traits@U?$pair@$$CBGUGUILD_SPRITES@MGuildMarkManager@@@_STL@@@2@@2@ABG@Z
_TEXT	SEGMENT PARA USE32 PUBLIC 'CODE'
_TEXT	ENDS
;	COMDAT ?find@?$map@GUGUILD_SPRITES@MGuildMarkManager@@U?$less@G@_STL@@V?$allocator@U?$pair@$$CBGUGUILD_SPRITES@MGuildMarkManager@@@_STL@@@4@@_STL@@QBE?AU?$_Rb_tree_iterator@U?$pair@$$CBGUGUILD_SPRITES@MGuildMarkManager@@@_STL@@U?$_Const_traits@U?$pair@$$CBGUGUILD_SPRITES@MGuildMarkManager@@@_STL@@@2@@2@ABG@Z
_TEXT	SEGMENT PARA USE32 PUBLIC 'CODE'
_TEXT	ENDS
;	COMDAT ??1?$_Rb_tree@GU?$pair@$$CBGUGUILD_SPRITES@MGuildMarkManager@@@_STL@@U?$_Select1st@U?$pair@$$CBGUGUILD_SPRITES@MGuildMarkManager@@@_STL@@@2@U?$less@G@2@V?$allocator@U?$pair@$$CBGUGUILD_SPRITES@MGuildMarkManager@@@_STL@@@2@@_STL@@QAE@XZ
_TEXT	SEGMENT PARA USE32 PUBLIC 'CODE'
_TEXT	ENDS
;	COMDAT ?GetSize@?$CTypePack2@VCSprite@@VCSprite555@@VCSprite565@@@@UBEKXZ
_TEXT	SEGMENT PARA USE32 PUBLIC 'CODE'
_TEXT	ENDS
;	COMDAT ?Is565@?$CTypePack2@VCSprite@@VCSprite555@@VCSprite565@@@@UAE_NXZ
_TEXT	SEGMENT PARA USE32 PUBLIC 'CODE'
_TEXT	ENDS
;	COMDAT ?end@?$map@GPAVGUILD_INFO@@U?$less@G@_STL@@V?$allocator@U?$pair@$$CBGPAVGUILD_INFO@@@_STL@@@3@@_STL@@QAE?AU?$_Rb_tree_iterator@U?$pair@$$CBGPAVGUILD_INFO@@@_STL@@U?$_Nonconst_traits@U?$pair@$$CBGPAVGUILD_INFO@@@_STL@@@2@@2@XZ
_TEXT	SEGMENT PARA USE32 PUBLIC 'CODE'
_TEXT	ENDS
;	COMDAT ?find@?$map@GPAVGUILD_INFO@@U?$less@G@_STL@@V?$allocator@U?$pair@$$CBGPAVGUILD_INFO@@@_STL@@@3@@_STL@@QAE?AU?$_Rb_tree_iterator@U?$pair@$$CBGPAVGUILD_INFO@@@_STL@@U?$_Nonconst_traits@U?$pair@$$CBGPAVGUILD_INFO@@@_STL@@@2@@2@ABG@Z
_TEXT	SEGMENT PARA USE32 PUBLIC 'CODE'
_TEXT	ENDS
;	COMDAT ?end@?$map@GV?$basic_string@DV?$char_traits@D@_STL@@V?$allocator@D@2@@_STL@@U?$less@G@2@V?$allocator@U?$pair@$$CBGV?$basic_string@DV?$char_traits@D@_STL@@V?$allocator@D@2@@_STL@@@_STL@@@2@@_STL@@QAE?AU?$_Rb_tree_iterator@U?$pair@$$CBGV?$basic_string@DV?$char_traits@D@_STL@@V?$allocator@D@2@@_STL@@@_STL@@U?$_Nonconst_traits@U?$pair@$$CBGV?$basic_string@DV?$char_traits@D@_STL@@V?$allocator@D@2@@_STL@@@_STL@@@2@@2@XZ
_TEXT	SEGMENT PARA USE32 PUBLIC 'CODE'
_TEXT	ENDS
;	COMDAT ??A?$map@GV?$basic_string@DV?$char_traits@D@_STL@@V?$allocator@D@2@@_STL@@U?$less@G@2@V?$allocator@U?$pair@$$CBGV?$basic_string@DV?$char_traits@D@_STL@@V?$allocator@D@2@@_STL@@@_STL@@@2@@_STL@@QAEAAV?$basic_string@DV?$char_traits@D@_STL@@V?$allocator@D@2@@1@ABG@Z
_TEXT	SEGMENT PARA USE32 PUBLIC 'CODE'
_TEXT	ENDS
;	COMDAT ?clear@?$map@GV?$basic_string@DV?$char_traits@D@_STL@@V?$allocator@D@2@@_STL@@U?$less@G@2@V?$allocator@U?$pair@$$CBGV?$basic_string@DV?$char_traits@D@_STL@@V?$allocator@D@2@@_STL@@@_STL@@@2@@_STL@@QAEXXZ
_TEXT	SEGMENT PARA USE32 PUBLIC 'CODE'
_TEXT	ENDS
;	COMDAT ?find@?$map@GV?$basic_string@DV?$char_traits@D@_STL@@V?$allocator@D@2@@_STL@@U?$less@G@2@V?$allocator@U?$pair@$$CBGV?$basic_string@DV?$char_traits@D@_STL@@V?$allocator@D@2@@_STL@@@_STL@@@2@@_STL@@QAE?AU?$_Rb_tree_iterator@U?$pair@$$CBGV?$basic_string@DV?$char_traits@D@_STL@@V?$allocator@D@2@@_STL@@@_STL@@U?$_Nonconst_traits@U?$pair@$$CBGV?$basic_string@DV?$char_traits@D@_STL@@V?$allocator@D@2@@_STL@@@_STL@@@2@@2@ABG@Z
_TEXT	SEGMENT PARA USE32 PUBLIC 'CODE'
_TEXT	ENDS
;	COMDAT ?size@?$vector@PAVAPPEND_PATCH_NODE@@V?$allocator@PAVAPPEND_PATCH_NODE@@@_STL@@@_STL@@QBEIXZ
_TEXT	SEGMENT PARA USE32 PUBLIC 'CODE'
_TEXT	ENDS
;	COMDAT ??0?$vector@PAVAPPEND_PATCH_NODE@@V?$allocator@PAVAPPEND_PATCH_NODE@@@_STL@@@_STL@@QAE@ABV01@@Z
_TEXT	SEGMENT PARA USE32 PUBLIC 'CODE'
_TEXT	ENDS
;	COMDAT ??1?$vector@PAVAPPEND_PATCH_NODE@@V?$allocator@PAVAPPEND_PATCH_NODE@@@_STL@@@_STL@@QAE@XZ
_TEXT	SEGMENT PARA USE32 PUBLIC 'CODE'
_TEXT	ENDS
;	COMDAT ??0?$_Rb_tree_iterator@U?$pair@$$CBGPAVGUILD_INFO@@@_STL@@U?$_Const_traits@U?$pair@$$CBGPAVGUILD_INFO@@@_STL@@@2@@_STL@@QAE@ABU?$_Rb_tree_iterator@U?$pair@$$CBGPAVGUILD_INFO@@@_STL@@U?$_Nonconst_traits@U?$pair@$$CBGPAVGUILD_INFO@@@_STL@@@2@@1@@Z
_TEXT	SEGMENT PARA USE32 PUBLIC 'CODE'
_TEXT	ENDS
;	COMDAT ??C?$_Rb_tree_iterator@U?$pair@$$CBGPAVGUILD_INFO@@@_STL@@U?$_Const_traits@U?$pair@$$CBGPAVGUILD_INFO@@@_STL@@@2@@_STL@@QBEPBU?$pair@$$CBGPAVGUILD_INFO@@@1@XZ
_TEXT	SEGMENT PARA USE32 PUBLIC 'CODE'
_TEXT	ENDS
;	COMDAT ??1?$pair@$$CBGV?$basic_string@DV?$char_traits@D@_STL@@V?$allocator@D@2@@_STL@@@_STL@@QAE@XZ
_TEXT	SEGMENT PARA USE32 PUBLIC 'CODE'
_TEXT	ENDS
;	COMDAT ?_M_terminate_string_aux@?$basic_string@DV?$char_traits@D@_STL@@V?$allocator@D@2@@_STL@@AAEXABU__true_type@2@@Z
_TEXT	SEGMENT PARA USE32 PUBLIC 'CODE'
_TEXT	ENDS
;	COMDAT ?assign@?$basic_string@DV?$char_traits@D@_STL@@V?$allocator@D@2@@_STL@@QAEAAV12@PBD0@Z
_TEXT	SEGMENT PARA USE32 PUBLIC 'CODE'
_TEXT	ENDS
;	COMDAT ??0?$allocator@D@_STL@@QAE@ABV01@@Z
_TEXT	SEGMENT PARA USE32 PUBLIC 'CODE'
_TEXT	ENDS
;	COMDAT ??0?$_STLP_alloc_proxy@PADDV?$allocator@D@_STL@@@_STL@@QAE@ABV?$allocator@D@1@PAD@Z
_TEXT	SEGMENT PARA USE32 PUBLIC 'CODE'
_TEXT	ENDS
;	COMDAT ?state@?$fpos@H@_STL@@QAEXH@Z
_TEXT	SEGMENT PARA USE32 PUBLIC 'CODE'
_TEXT	ENDS
;	COMDAT ??R?$less@G@_STL@@QBE_NABG0@Z
_TEXT	SEGMENT PARA USE32 PUBLIC 'CODE'
_TEXT	ENDS
;	COMDAT ?key_comp@?$map@GUGUILD_SPRITES@MGuildMarkManager@@U?$less@G@_STL@@V?$allocator@U?$pair@$$CBGUGUILD_SPRITES@MGuildMarkManager@@@_STL@@@4@@_STL@@QBE?AU?$less@G@2@XZ
_TEXT	SEGMENT PARA USE32 PUBLIC 'CODE'
_TEXT	ENDS
;	COMDAT ?insert@?$map@GUGUILD_SPRITES@MGuildMarkManager@@U?$less@G@_STL@@V?$allocator@U?$pair@$$CBGUGUILD_SPRITES@MGuildMarkManager@@@_STL@@@4@@_STL@@QAE?AU?$_Rb_tree_iterator@U?$pair@$$CBGUGUILD_SPRITES@MGuildMarkManager@@@_STL@@U?$_Nonconst_traits@U?$pair@$$CBGUGUILD_SPRITES@MGuildMarkManager@@@_STL@@@2@@2@U32@ABU?$pair@$$CBGUGUILD_SPRITES@MGuildMarkManager@@@2@@Z
_TEXT	SEGMENT PARA USE32 PUBLIC 'CODE'
_TEXT	ENDS
;	COMDAT ?lower_bound@?$map@GUGUILD_SPRITES@MGuildMarkManager@@U?$less@G@_STL@@V?$allocator@U?$pair@$$CBGUGUILD_SPRITES@MGuildMarkManager@@@_STL@@@4@@_STL@@QAE?AU?$_Rb_tree_iterator@U?$pair@$$CBGUGUILD_SPRITES@MGuildMarkManager@@@_STL@@U?$_Nonconst_traits@U?$pair@$$CBGUGUILD_SPRITES@MGuildMarkManager@@@_STL@@@2@@2@ABG@Z
_TEXT	SEGMENT PARA USE32 PUBLIC 'CODE'
_TEXT	ENDS
;	COMDAT ??0?$_Rb_tree@GU?$pair@$$CBGUGUILD_SPRITES@MGuildMarkManager@@@_STL@@U?$_Select1st@U?$pair@$$CBGUGUILD_SPRITES@MGuildMarkManager@@@_STL@@@2@U?$less@G@2@V?$allocator@U?$pair@$$CBGUGUILD_SPRITES@MGuildMarkManager@@@_STL@@@2@@_STL@@QAE@ABU?$less@G@1@ABV?$allocator@U?$pair@$$CBGUGUILD_SPRITES@MGuildMarkManager@@@_STL@@@1@@Z
_TEXT	SEGMENT PARA USE32 PUBLIC 'CODE'
_TEXT	ENDS
;	COMDAT ?end@?$_Rb_tree@GU?$pair@$$CBGUGUILD_SPRITES@MGuildMarkManager@@@_STL@@U?$_Select1st@U?$pair@$$CBGUGUILD_SPRITES@MGuildMarkManager@@@_STL@@@2@U?$less@G@2@V?$allocator@U?$pair@$$CBGUGUILD_SPRITES@MGuildMarkManager@@@_STL@@@2@@_STL@@QAE?AU?$_Rb_tree_iterator@U?$pair@$$CBGUGUILD_SPRITES@MGuildMarkManager@@@_STL@@U?$_Nonconst_traits@U?$pair@$$CBGUGUILD_SPRITES@MGuildMarkManager@@@_STL@@@2@@2@XZ
_TEXT	SEGMENT PARA USE32 PUBLIC 'CODE'
_TEXT	ENDS
;	COMDAT ?end@?$_Rb_tree@GU?$pair@$$CBGUGUILD_SPRITES@MGuildMarkManager@@@_STL@@U?$_Select1st@U?$pair@$$CBGUGUILD_SPRITES@MGuildMarkManager@@@_STL@@@2@U?$less@G@2@V?$allocator@U?$pair@$$CBGUGUILD_SPRITES@MGuildMarkManager@@@_STL@@@2@@_STL@@QBE?AU?$_Rb_tree_iterator@U?$pair@$$CBGUGUILD_SPRITES@MGuildMarkManager@@@_STL@@U?$_Const_traits@U?$pair@$$CBGUGUILD_SPRITES@MGuildMarkManager@@@_STL@@@2@@2@XZ
_TEXT	SEGMENT PARA USE32 PUBLIC 'CODE'
_TEXT	ENDS
;	COMDAT ?clear@?$_Rb_tree@GU?$pair@$$CBGUGUILD_SPRITES@MGuildMarkManager@@@_STL@@U?$_Select1st@U?$pair@$$CBGUGUILD_SPRITES@MGuildMarkManager@@@_STL@@@2@U?$less@G@2@V?$allocator@U?$pair@$$CBGUGUILD_SPRITES@MGuildMarkManager@@@_STL@@@2@@_STL@@QAEXXZ
_TEXT	SEGMENT PARA USE32 PUBLIC 'CODE'
_TEXT	ENDS
;	COMDAT ??1?$_Rb_tree_base@U?$pair@$$CBGUGUILD_SPRITES@MGuildMarkManager@@@_STL@@V?$allocator@U?$pair@$$CBGUGUILD_SPRITES@MGuildMarkManager@@@_STL@@@2@@_STL@@QAE@XZ
_TEXT	SEGMENT PARA USE32 PUBLIC 'CODE'
_TEXT	ENDS
;	COMDAT ??0?$allocator@U?$pair@$$CBGUGUILD_SPRITES@MGuildMarkManager@@@_STL@@@_STL@@QAE@XZ
_TEXT	SEGMENT PARA USE32 PUBLIC 'CODE'
_TEXT	ENDS
;	COMDAT ??1?$allocator@U?$pair@$$CBGUGUILD_SPRITES@MGuildMarkManager@@@_STL@@@_STL@@QAE@XZ
_TEXT	SEGMENT PARA USE32 PUBLIC 'CODE'
_TEXT	ENDS
;	COMDAT ?end@?$_Rb_tree@GU?$pair@$$CBGPAVGUILD_INFO@@@_STL@@U?$_Select1st@U?$pair@$$CBGPAVGUILD_INFO@@@_STL@@@2@U?$less@G@2@V?$allocator@U?$pair@$$CBGPAVGUILD_INFO@@@_STL@@@2@@_STL@@QAE?AU?$_Rb_tree_iterator@U?$pair@$$CBGPAVGUILD_INFO@@@_STL@@U?$_Nonconst_traits@U?$pair@$$CBGPAVGUILD_INFO@@@_STL@@@2@@2@XZ
_TEXT	SEGMENT PARA USE32 PUBLIC 'CODE'
_TEXT	ENDS
;	COMDAT ?key_comp@?$map@GV?$basic_string@DV?$char_traits@D@_STL@@V?$allocator@D@2@@_STL@@U?$less@G@2@V?$allocator@U?$pair@$$CBGV?$basic_string@DV?$char_traits@D@_STL@@V?$allocator@D@2@@_STL@@@_STL@@@2@@_STL@@QBE?AU?$less@G@2@XZ
_TEXT	SEGMENT PARA USE32 PUBLIC 'CODE'
_TEXT	ENDS
;	COMDAT ?insert@?$map@GV?$basic_string@DV?$char_traits@D@_STL@@V?$allocator@D@2@@_STL@@U?$less@G@2@V?$allocator@U?$pair@$$CBGV?$basic_string@DV?$char_traits@D@_STL@@V?$allocator@D@2@@_STL@@@_STL@@@2@@_STL@@QAE?AU?$_Rb_tree_iterator@U?$pair@$$CBGV?$basic_string@DV?$char_traits@D@_STL@@V?$allocator@D@2@@_STL@@@_STL@@U?$_Nonconst_traits@U?$pair@$$CBGV?$basic_string@DV?$char_traits@D@_STL@@V?$allocator@D@2@@_STL@@@_STL@@@2@@2@U32@ABU?$pair@$$CBGV?$basic_string@DV?$char_traits@D@_STL@@V?$allocator@D@2@@_STL@@@2@@Z
_TEXT	SEGMENT PARA USE32 PUBLIC 'CODE'
_TEXT	ENDS
;	COMDAT ?lower_bound@?$map@GV?$basic_string@DV?$char_traits@D@_STL@@V?$allocator@D@2@@_STL@@U?$less@G@2@V?$allocator@U?$pair@$$CBGV?$basic_string@DV?$char_traits@D@_STL@@V?$allocator@D@2@@_STL@@@_STL@@@2@@_STL@@QAE?AU?$_Rb_tree_iterator@U?$pair@$$CBGV?$basic_string@DV?$char_traits@D@_STL@@V?$allocator@D@2@@_STL@@@_STL@@U?$_Nonconst_traits@U?$pair@$$CBGV?$basic_string@DV?$char_traits@D@_STL@@V?$allocator@D@2@@_STL@@@_STL@@@2@@2@ABG@Z
_TEXT	SEGMENT PARA USE32 PUBLIC 'CODE'
_TEXT	ENDS
;	COMDAT ?end@?$_Rb_tree@GU?$pair@$$CBGV?$basic_string@DV?$char_traits@D@_STL@@V?$allocator@D@2@@_STL@@@_STL@@U?$_Select1st@U?$pair@$$CBGV?$basic_string@DV?$char_traits@D@_STL@@V?$allocator@D@2@@_STL@@@_STL@@@2@U?$less@G@2@V?$allocator@U?$pair@$$CBGV?$basic_string@DV?$char_traits@D@_STL@@V?$allocator@D@2@@_STL@@@_STL@@@2@@_STL@@QAE?AU?$_Rb_tree_iterator@U?$pair@$$CBGV?$basic_string@DV?$char_traits@D@_STL@@V?$allocator@D@2@@_STL@@@_STL@@U?$_Nonconst_traits@U?$pair@$$CBGV?$basic_string@DV?$char_traits@D@_STL@@V?$allocator@D@2@@_STL@@@_STL@@@2@@2@XZ
_TEXT	SEGMENT PARA USE32 PUBLIC 'CODE'
_TEXT	ENDS
;	COMDAT ?clear@?$_Rb_tree@GU?$pair@$$CBGV?$basic_string@DV?$char_traits@D@_STL@@V?$allocator@D@2@@_STL@@@_STL@@U?$_Select1st@U?$pair@$$CBGV?$basic_string@DV?$char_traits@D@_STL@@V?$allocator@D@2@@_STL@@@_STL@@@2@U?$less@G@2@V?$allocator@U?$pair@$$CBGV?$basic_string@DV?$char_traits@D@_STL@@V?$allocator@D@2@@_STL@@@_STL@@@2@@_STL@@QAEXXZ
_TEXT	SEGMENT PARA USE32 PUBLIC 'CODE'
_TEXT	ENDS
;	COMDAT ??0?$_Rb_tree_iterator@U?$pair@$$CBGV?$basic_string@DV?$char_traits@D@_STL@@V?$allocator@D@2@@_STL@@@_STL@@U?$_Nonconst_traits@U?$pair@$$CBGV?$basic_string@DV?$char_traits@D@_STL@@V?$allocator@D@2@@_STL@@@_STL@@@2@@_STL@@QAE@ABU01@@Z
_TEXT	SEGMENT PARA USE32 PUBLIC 'CODE'
_TEXT	ENDS
;	COMDAT ??D?$_Rb_tree_iterator@U?$pair@$$CBGV?$basic_string@DV?$char_traits@D@_STL@@V?$allocator@D@2@@_STL@@@_STL@@U?$_Nonconst_traits@U?$pair@$$CBGV?$basic_string@DV?$char_traits@D@_STL@@V?$allocator@D@2@@_STL@@@_STL@@@2@@_STL@@QBEAAU?$pair@$$CBGV?$basic_string@DV?$char_traits@D@_STL@@V?$allocator@D@2@@_STL@@@1@XZ
_TEXT	SEGMENT PARA USE32 PUBLIC 'CODE'
_TEXT	ENDS
;	COMDAT ?get_allocator@?$vector@PAVAPPEND_PATCH_NODE@@V?$allocator@PAVAPPEND_PATCH_NODE@@@_STL@@@_STL@@QBE?AV?$allocator@PAVAPPEND_PATCH_NODE@@@2@XZ
_TEXT	SEGMENT PARA USE32 PUBLIC 'CODE'
_TEXT	ENDS
;	COMDAT ??0?$_Vector_base@PAVAPPEND_PATCH_NODE@@V?$allocator@PAVAPPEND_PATCH_NODE@@@_STL@@@_STL@@QAE@IABV?$allocator@PAVAPPEND_PATCH_NODE@@@1@@Z
_TEXT	SEGMENT PARA USE32 PUBLIC 'CODE'
_TEXT	ENDS
;	COMDAT ??1?$_Vector_base@PAVAPPEND_PATCH_NODE@@V?$allocator@PAVAPPEND_PATCH_NODE@@@_STL@@@_STL@@QAE@XZ
_TEXT	SEGMENT PARA USE32 PUBLIC 'CODE'
_TEXT	ENDS
;	COMDAT ??1?$allocator@PAVAPPEND_PATCH_NODE@@@_STL@@QAE@XZ
_TEXT	SEGMENT PARA USE32 PUBLIC 'CODE'
_TEXT	ENDS
;	COMDAT ??0?$_Rb_tree_iterator@U?$pair@$$CBGUGUILD_SPRITES@MGuildMarkManager@@@_STL@@U?$_Nonconst_traits@U?$pair@$$CBGUGUILD_SPRITES@MGuildMarkManager@@@_STL@@@2@@_STL@@QAE@ABU01@@Z
_TEXT	SEGMENT PARA USE32 PUBLIC 'CODE'
_TEXT	ENDS
;	COMDAT ??D?$_Rb_tree_iterator@U?$pair@$$CBGUGUILD_SPRITES@MGuildMarkManager@@@_STL@@U?$_Nonconst_traits@U?$pair@$$CBGUGUILD_SPRITES@MGuildMarkManager@@@_STL@@@2@@_STL@@QBEAAU?$pair@$$CBGUGUILD_SPRITES@MGuildMarkManager@@@1@XZ
_TEXT	SEGMENT PARA USE32 PUBLIC 'CODE'
_TEXT	ENDS
;	COMDAT ??D?$_Rb_tree_iterator@U?$pair@$$CBGPAVGUILD_INFO@@@_STL@@U?$_Const_traits@U?$pair@$$CBGPAVGUILD_INFO@@@_STL@@@2@@_STL@@QBEABU?$pair@$$CBGPAVGUILD_INFO@@@1@XZ
_TEXT	SEGMENT PARA USE32 PUBLIC 'CODE'
_TEXT	ENDS
;	COMDAT ??0?$pair@$$CBGUGUILD_SPRITES@MGuildMarkManager@@@_STL@@QAE@ABGABUGUILD_SPRITES@MGuildMarkManager@@@Z
_TEXT	SEGMENT PARA USE32 PUBLIC 'CODE'
_TEXT	ENDS
;	COMDAT ??0?$pair@$$CBGV?$basic_string@DV?$char_traits@D@_STL@@V?$allocator@D@2@@_STL@@@_STL@@QAE@ABGABV?$basic_string@DV?$char_traits@D@_STL@@V?$allocator@D@2@@1@@Z
_TEXT	SEGMENT PARA USE32 PUBLIC 'CODE'
_TEXT	ENDS
;	COMDAT ??1?$_STLP_alloc_proxy@PAU?$_Rb_tree_node@U?$pair@$$CBGUGUILD_SPRITES@MGuildMarkManager@@@_STL@@@_STL@@U12@V?$allocator@U?$_Rb_tree_node@U?$pair@$$CBGUGUILD_SPRITES@MGuildMarkManager@@@_STL@@@_STL@@@2@@_STL@@QAE@XZ
_TEXT	SEGMENT PARA USE32 PUBLIC 'CODE'
_TEXT	ENDS
;	COMDAT ??1?$_STLP_alloc_proxy@PAPAVAPPEND_PATCH_NODE@@PAV1@V?$allocator@PAVAPPEND_PATCH_NODE@@@_STL@@@_STL@@QAE@XZ
_TEXT	SEGMENT PARA USE32 PUBLIC 'CODE'
_TEXT	ENDS
;	COMDAT ?copy@?$__char_traits_base@DH@_STL@@SAPADPADPBDI@Z
_TEXT	SEGMENT PARA USE32 PUBLIC 'CODE'
_TEXT	ENDS
;	COMDAT ?begin@?$basic_string@DV?$char_traits@D@_STL@@V?$allocator@D@2@@_STL@@QAEPADXZ
_TEXT	SEGMENT PARA USE32 PUBLIC 'CODE'
_TEXT	ENDS
;	COMDAT ?end@?$basic_string@DV?$char_traits@D@_STL@@V?$allocator@D@2@@_STL@@QAEPADXZ
_TEXT	SEGMENT PARA USE32 PUBLIC 'CODE'
_TEXT	ENDS
;	COMDAT ?size@?$basic_string@DV?$char_traits@D@_STL@@V?$allocator@D@2@@_STL@@QBEIXZ
_TEXT	SEGMENT PARA USE32 PUBLIC 'CODE'
_TEXT	ENDS
;	COMDAT ?erase@?$basic_string@DV?$char_traits@D@_STL@@V?$allocator@D@2@@_STL@@QAEPADPAD0@Z
_TEXT	SEGMENT PARA USE32 PUBLIC 'CODE'
_TEXT	ENDS
;	COMDAT ?_M_root@?$_Rb_tree@GU?$pair@$$CBGUGUILD_SPRITES@MGuildMarkManager@@@_STL@@U?$_Select1st@U?$pair@$$CBGUGUILD_SPRITES@MGuildMarkManager@@@_STL@@@2@U?$less@G@2@V?$allocator@U?$pair@$$CBGUGUILD_SPRITES@MGuildMarkManager@@@_STL@@@2@@_STL@@IBEAAPAU?$_Rb_tree_node@U?$pair@$$CBGUGUILD_SPRITES@MGuildMarkManager@@@_STL@@@2@XZ
_TEXT	SEGMENT PARA USE32 PUBLIC 'CODE'
_TEXT	ENDS
;	COMDAT ?_M_leftmost@?$_Rb_tree@GU?$pair@$$CBGUGUILD_SPRITES@MGuildMarkManager@@@_STL@@U?$_Select1st@U?$pair@$$CBGUGUILD_SPRITES@MGuildMarkManager@@@_STL@@@2@U?$less@G@2@V?$allocator@U?$pair@$$CBGUGUILD_SPRITES@MGuildMarkManager@@@_STL@@@2@@_STL@@IBEAAPAU?$_Rb_tree_node@U?$pair@$$CBGUGUILD_SPRITES@MGuildMarkManager@@@_STL@@@2@XZ
_TEXT	SEGMENT PARA USE32 PUBLIC 'CODE'
_TEXT	ENDS
;	COMDAT ?_M_rightmost@?$_Rb_tree@GU?$pair@$$CBGUGUILD_SPRITES@MGuildMarkManager@@@_STL@@U?$_Select1st@U?$pair@$$CBGUGUILD_SPRITES@MGuildMarkManager@@@_STL@@@2@U?$less@G@2@V?$allocator@U?$pair@$$CBGUGUILD_SPRITES@MGuildMarkManager@@@_STL@@@2@@_STL@@IBEAAPAU?$_Rb_tree_node@U?$pair@$$CBGUGUILD_SPRITES@MGuildMarkManager@@@_STL@@@2@XZ
_TEXT	SEGMENT PARA USE32 PUBLIC 'CODE'
_TEXT	ENDS
;	COMDAT ?_M_empty_initialize@?$_Rb_tree@GU?$pair@$$CBGUGUILD_SPRITES@MGuildMarkManager@@@_STL@@U?$_Select1st@U?$pair@$$CBGUGUILD_SPRITES@MGuildMarkManager@@@_STL@@@2@U?$less@G@2@V?$allocator@U?$pair@$$CBGUGUILD_SPRITES@MGuildMarkManager@@@_STL@@@2@@_STL@@AAEXXZ
_TEXT	SEGMENT PARA USE32 PUBLIC 'CODE'
_TEXT	ENDS
;	COMDAT ?key_comp@?$_Rb_tree@GU?$pair@$$CBGUGUILD_SPRITES@MGuildMarkManager@@@_STL@@U?$_Select1st@U?$pair@$$CBGUGUILD_SPRITES@MGuildMarkManager@@@_STL@@@2@U?$less@G@2@V?$allocator@U?$pair@$$CBGUGUILD_SPRITES@MGuildMarkManager@@@_STL@@@2@@_STL@@QBE?AU?$less@G@2@XZ
_TEXT	SEGMENT PARA USE32 PUBLIC 'CODE'
_TEXT	ENDS
;	COMDAT ?lower_bound@?$_Rb_tree@GU?$pair@$$CBGUGUILD_SPRITES@MGuildMarkManager@@@_STL@@U?$_Select1st@U?$pair@$$CBGUGUILD_SPRITES@MGuildMarkManager@@@_STL@@@2@U?$less@G@2@V?$allocator@U?$pair@$$CBGUGUILD_SPRITES@MGuildMarkManager@@@_STL@@@2@@_STL@@QAE?AU?$_Rb_tree_iterator@U?$pair@$$CBGUGUILD_SPRITES@MGuildMarkManager@@@_STL@@U?$_Nonconst_traits@U?$pair@$$CBGUGUILD_SPRITES@MGuildMarkManager@@@_STL@@@2@@2@ABG@Z
_TEXT	SEGMENT PARA USE32 PUBLIC 'CODE'
_TEXT	ENDS
;	COMDAT ??0?$_Rb_tree_base@U?$pair@$$CBGUGUILD_SPRITES@MGuildMarkManager@@@_STL@@V?$allocator@U?$pair@$$CBGUGUILD_SPRITES@MGuildMarkManager@@@_STL@@@2@@_STL@@QAE@ABV?$allocator@U?$pair@$$CBGUGUILD_SPRITES@MGuildMarkManager@@@_STL@@@1@@Z
_TEXT	SEGMENT PARA USE32 PUBLIC 'CODE'
_TEXT	ENDS
;	COMDAT ??1?$allocator@U?$_Rb_tree_node@U?$pair@$$CBGUGUILD_SPRITES@MGuildMarkManager@@@_STL@@@_STL@@@_STL@@QAE@XZ
_TEXT	SEGMENT PARA USE32 PUBLIC 'CODE'
_TEXT	ENDS
;	COMDAT ?deallocate@?$allocator@U?$_Rb_tree_node@U?$pair@$$CBGUGUILD_SPRITES@MGuildMarkManager@@@_STL@@@_STL@@@_STL@@QAEXPAU?$_Rb_tree_node@U?$pair@$$CBGUGUILD_SPRITES@MGuildMarkManager@@@_STL@@@2@I@Z
_TEXT	SEGMENT PARA USE32 PUBLIC 'CODE'
_TEXT	ENDS
;	COMDAT ?_M_root@?$_Rb_tree@GU?$pair@$$CBGV?$basic_string@DV?$char_traits@D@_STL@@V?$allocator@D@2@@_STL@@@_STL@@U?$_Select1st@U?$pair@$$CBGV?$basic_string@DV?$char_traits@D@_STL@@V?$allocator@D@2@@_STL@@@_STL@@@2@U?$less@G@2@V?$allocator@U?$pair@$$CBGV?$basic_string@DV?$char_traits@D@_STL@@V?$allocator@D@2@@_STL@@@_STL@@@2@@_STL@@IBEAAPAU?$_Rb_tree_node@U?$pair@$$CBGV?$basic_string@DV?$char_traits@D@_STL@@V?$allocator@D@2@@_STL@@@_STL@@@2@XZ
_TEXT	SEGMENT PARA USE32 PUBLIC 'CODE'
_TEXT	ENDS
;	COMDAT ?_M_leftmost@?$_Rb_tree@GU?$pair@$$CBGV?$basic_string@DV?$char_traits@D@_STL@@V?$allocator@D@2@@_STL@@@_STL@@U?$_Select1st@U?$pair@$$CBGV?$basic_string@DV?$char_traits@D@_STL@@V?$allocator@D@2@@_STL@@@_STL@@@2@U?$less@G@2@V?$allocator@U?$pair@$$CBGV?$basic_string@DV?$char_traits@D@_STL@@V?$allocator@D@2@@_STL@@@_STL@@@2@@_STL@@IBEAAPAU?$_Rb_tree_node@U?$pair@$$CBGV?$basic_string@DV?$char_traits@D@_STL@@V?$allocator@D@2@@_STL@@@_STL@@@2@XZ
_TEXT	SEGMENT PARA USE32 PUBLIC 'CODE'
_TEXT	ENDS
;	COMDAT ?_M_rightmost@?$_Rb_tree@GU?$pair@$$CBGV?$basic_string@DV?$char_traits@D@_STL@@V?$allocator@D@2@@_STL@@@_STL@@U?$_Select1st@U?$pair@$$CBGV?$basic_string@DV?$char_traits@D@_STL@@V?$allocator@D@2@@_STL@@@_STL@@@2@U?$less@G@2@V?$allocator@U?$pair@$$CBGV?$basic_string@DV?$char_traits@D@_STL@@V?$allocator@D@2@@_STL@@@_STL@@@2@@_STL@@IBEAAPAU?$_Rb_tree_node@U?$pair@$$CBGV?$basic_string@DV?$char_traits@D@_STL@@V?$allocator@D@2@@_STL@@@_STL@@@2@XZ
_TEXT	SEGMENT PARA USE32 PUBLIC 'CODE'
_TEXT	ENDS
;	COMDAT ?key_comp@?$_Rb_tree@GU?$pair@$$CBGV?$basic_string@DV?$char_traits@D@_STL@@V?$allocator@D@2@@_STL@@@_STL@@U?$_Select1st@U?$pair@$$CBGV?$basic_string@DV?$char_traits@D@_STL@@V?$allocator@D@2@@_STL@@@_STL@@@2@U?$less@G@2@V?$allocator@U?$pair@$$CBGV?$basic_string@DV?$char_traits@D@_STL@@V?$allocator@D@2@@_STL@@@_STL@@@2@@_STL@@QBE?AU?$less@G@2@XZ
_TEXT	SEGMENT PARA USE32 PUBLIC 'CODE'
_TEXT	ENDS
;	COMDAT ?lower_bound@?$_Rb_tree@GU?$pair@$$CBGV?$basic_string@DV?$char_traits@D@_STL@@V?$allocator@D@2@@_STL@@@_STL@@U?$_Select1st@U?$pair@$$CBGV?$basic_string@DV?$char_traits@D@_STL@@V?$allocator@D@2@@_STL@@@_STL@@@2@U?$less@G@2@V?$allocator@U?$pair@$$CBGV?$basic_string@DV?$char_traits@D@_STL@@V?$allocator@D@2@@_STL@@@_STL@@@2@@_STL@@QAE?AU?$_Rb_tree_iterator@U?$pair@$$CBGV?$basic_string@DV?$char_traits@D@_STL@@V?$allocator@D@2@@_STL@@@_STL@@U?$_Nonconst_traits@U?$pair@$$CBGV?$basic_string@DV?$char_traits@D@_STL@@V?$allocator@D@2@@_STL@@@_STL@@@2@@2@ABG@Z
_TEXT	SEGMENT PARA USE32 PUBLIC 'CODE'
_TEXT	ENDS
;	COMDAT ??0?$_Rb_tree_iterator@U?$pair@$$CBGV?$basic_string@DV?$char_traits@D@_STL@@V?$allocator@D@2@@_STL@@@_STL@@U?$_Nonconst_traits@U?$pair@$$CBGV?$basic_string@DV?$char_traits@D@_STL@@V?$allocator@D@2@@_STL@@@_STL@@@2@@_STL@@QAE@PAU?$_Rb_tree_node@U?$pair@$$CBGV?$basic_string@DV?$char_traits@D@_STL@@V?$allocator@D@2@@_STL@@@_STL@@@1@@Z
_TEXT	SEGMENT PARA USE32 PUBLIC 'CODE'
_TEXT	ENDS
;	COMDAT ??0?$allocator@PAVAPPEND_PATCH_NODE@@@_STL@@QAE@ABV01@@Z
_TEXT	SEGMENT PARA USE32 PUBLIC 'CODE'
_TEXT	ENDS
;	COMDAT ?allocate@?$allocator@PAVAPPEND_PATCH_NODE@@@_STL@@QAEPAPAVAPPEND_PATCH_NODE@@IPBX@Z
_TEXT	SEGMENT PARA USE32 PUBLIC 'CODE'
_TEXT	ENDS
;	COMDAT ?deallocate@?$allocator@PAVAPPEND_PATCH_NODE@@@_STL@@QAEXPAPAVAPPEND_PATCH_NODE@@I@Z
_TEXT	SEGMENT PARA USE32 PUBLIC 'CODE'
_TEXT	ENDS
;	COMDAT ??0?$_STLP_alloc_proxy@PAPAVAPPEND_PATCH_NODE@@PAV1@V?$allocator@PAVAPPEND_PATCH_NODE@@@_STL@@@_STL@@QAE@ABV?$allocator@PAVAPPEND_PATCH_NODE@@@1@PAPAVAPPEND_PATCH_NODE@@@Z
_TEXT	SEGMENT PARA USE32 PUBLIC 'CODE'
_TEXT	ENDS
;	COMDAT ??0?$_Rb_tree_iterator@U?$pair@$$CBGUGUILD_SPRITES@MGuildMarkManager@@@_STL@@U?$_Nonconst_traits@U?$pair@$$CBGUGUILD_SPRITES@MGuildMarkManager@@@_STL@@@2@@_STL@@QAE@PAU?$_Rb_tree_node@U?$pair@$$CBGUGUILD_SPRITES@MGuildMarkManager@@@_STL@@@1@@Z
_TEXT	SEGMENT PARA USE32 PUBLIC 'CODE'
_TEXT	ENDS
;	COMDAT ??0?$_Rb_tree_iterator@U?$pair@$$CBGUGUILD_SPRITES@MGuildMarkManager@@@_STL@@U?$_Const_traits@U?$pair@$$CBGUGUILD_SPRITES@MGuildMarkManager@@@_STL@@@2@@_STL@@QAE@PAU?$_Rb_tree_node@U?$pair@$$CBGUGUILD_SPRITES@MGuildMarkManager@@@_STL@@@1@@Z
_TEXT	SEGMENT PARA USE32 PUBLIC 'CODE'
_TEXT	ENDS
;	COMDAT ??0?$_Rb_tree_iterator@U?$pair@$$CBGPAVGUILD_INFO@@@_STL@@U?$_Nonconst_traits@U?$pair@$$CBGPAVGUILD_INFO@@@_STL@@@2@@_STL@@QAE@PAU?$_Rb_tree_node@U?$pair@$$CBGPAVGUILD_INFO@@@_STL@@@1@@Z
_TEXT	SEGMENT PARA USE32 PUBLIC 'CODE'
_TEXT	ENDS
;	COMDAT ?move@?$__char_traits_base@DH@_STL@@SAPADPADPBDI@Z
_TEXT	SEGMENT PARA USE32 PUBLIC 'CODE'
_TEXT	ENDS
;	COMDAT ?_S_color@?$_Rb_tree@GU?$pair@$$CBGUGUILD_SPRITES@MGuildMarkManager@@@_STL@@U?$_Select1st@U?$pair@$$CBGUGUILD_SPRITES@MGuildMarkManager@@@_STL@@@2@U?$less@G@2@V?$allocator@U?$pair@$$CBGUGUILD_SPRITES@MGuildMarkManager@@@_STL@@@2@@_STL@@KAAA_NPAU?$_Rb_tree_node@U?$pair@$$CBGUGUILD_SPRITES@MGuildMarkManager@@@_STL@@@2@@Z
_TEXT	SEGMENT PARA USE32 PUBLIC 'CODE'
_TEXT	ENDS
;	COMDAT ?_M_lower_bound@?$_Rb_tree@GU?$pair@$$CBGUGUILD_SPRITES@MGuildMarkManager@@@_STL@@U?$_Select1st@U?$pair@$$CBGUGUILD_SPRITES@MGuildMarkManager@@@_STL@@@2@U?$less@G@2@V?$allocator@U?$pair@$$CBGUGUILD_SPRITES@MGuildMarkManager@@@_STL@@@2@@_STL@@ABEPAU?$_Rb_tree_node@U?$pair@$$CBGUGUILD_SPRITES@MGuildMarkManager@@@_STL@@@2@ABG@Z
_TEXT	SEGMENT PARA USE32 PUBLIC 'CODE'
_TEXT	ENDS
;	COMDAT ??0?$_STLP_alloc_proxy@PAU?$_Rb_tree_node@U?$pair@$$CBGUGUILD_SPRITES@MGuildMarkManager@@@_STL@@@_STL@@U12@V?$allocator@U?$_Rb_tree_node@U?$pair@$$CBGUGUILD_SPRITES@MGuildMarkManager@@@_STL@@@_STL@@@2@@_STL@@QAE@ABV?$allocator@U?$_Rb_tree_node@U?$pair@$$CBGUGUILD_SPRITES@MGuildMarkManager@@@_STL@@@_STL@@@1@PAU?$_Rb_tree_node@U?$pair@$$CBGUGUILD_SPRITES@MGuildMarkManager@@@_STL@@@1@@Z
_TEXT	SEGMENT PARA USE32 PUBLIC 'CODE'
_TEXT	ENDS
;	COMDAT ?allocate@?$allocator@U?$_Rb_tree_node@U?$pair@$$CBGUGUILD_SPRITES@MGuildMarkManager@@@_STL@@@_STL@@@_STL@@QAEPAU?$_Rb_tree_node@U?$pair@$$CBGUGUILD_SPRITES@MGuildMarkManager@@@_STL@@@2@IPBX@Z
_TEXT	SEGMENT PARA USE32 PUBLIC 'CODE'
_TEXT	ENDS
;	COMDAT ?_M_lower_bound@?$_Rb_tree@GU?$pair@$$CBGV?$basic_string@DV?$char_traits@D@_STL@@V?$allocator@D@2@@_STL@@@_STL@@U?$_Select1st@U?$pair@$$CBGV?$basic_string@DV?$char_traits@D@_STL@@V?$allocator@D@2@@_STL@@@_STL@@@2@U?$less@G@2@V?$allocator@U?$pair@$$CBGV?$basic_string@DV?$char_traits@D@_STL@@V?$allocator@D@2@@_STL@@@_STL@@@2@@_STL@@ABEPAU?$_Rb_tree_node@U?$pair@$$CBGV?$basic_string@DV?$char_traits@D@_STL@@V?$allocator@D@2@@_STL@@@_STL@@@2@ABG@Z
_TEXT	SEGMENT PARA USE32 PUBLIC 'CODE'
_TEXT	ENDS
;	COMDAT ?_S_left@?$_Rb_tree@GU?$pair@$$CBGUGUILD_SPRITES@MGuildMarkManager@@@_STL@@U?$_Select1st@U?$pair@$$CBGUGUILD_SPRITES@MGuildMarkManager@@@_STL@@@2@U?$less@G@2@V?$allocator@U?$pair@$$CBGUGUILD_SPRITES@MGuildMarkManager@@@_STL@@@2@@_STL@@KAAAPAU?$_Rb_tree_node@U?$pair@$$CBGUGUILD_SPRITES@MGuildMarkManager@@@_STL@@@2@PAU32@@Z
_TEXT	SEGMENT PARA USE32 PUBLIC 'CODE'
_TEXT	ENDS
;	COMDAT ?_S_right@?$_Rb_tree@GU?$pair@$$CBGUGUILD_SPRITES@MGuildMarkManager@@@_STL@@U?$_Select1st@U?$pair@$$CBGUGUILD_SPRITES@MGuildMarkManager@@@_STL@@@2@U?$less@G@2@V?$allocator@U?$pair@$$CBGUGUILD_SPRITES@MGuildMarkManager@@@_STL@@@2@@_STL@@KAAAPAU?$_Rb_tree_node@U?$pair@$$CBGUGUILD_SPRITES@MGuildMarkManager@@@_STL@@@2@PAU32@@Z
_TEXT	SEGMENT PARA USE32 PUBLIC 'CODE'
_TEXT	ENDS
;	COMDAT ?_S_key@?$_Rb_tree@GU?$pair@$$CBGUGUILD_SPRITES@MGuildMarkManager@@@_STL@@U?$_Select1st@U?$pair@$$CBGUGUILD_SPRITES@MGuildMarkManager@@@_STL@@@2@U?$less@G@2@V?$allocator@U?$pair@$$CBGUGUILD_SPRITES@MGuildMarkManager@@@_STL@@@2@@_STL@@KAABGPAU?$_Rb_tree_node@U?$pair@$$CBGUGUILD_SPRITES@MGuildMarkManager@@@_STL@@@2@@Z
_TEXT	SEGMENT PARA USE32 PUBLIC 'CODE'
_TEXT	ENDS
;	COMDAT ??0?$allocator@U?$_Rb_tree_node@U?$pair@$$CBGUGUILD_SPRITES@MGuildMarkManager@@@_STL@@@_STL@@@_STL@@QAE@ABV01@@Z
_TEXT	SEGMENT PARA USE32 PUBLIC 'CODE'
_TEXT	ENDS
;	COMDAT ?_S_left@?$_Rb_tree@GU?$pair@$$CBGV?$basic_string@DV?$char_traits@D@_STL@@V?$allocator@D@2@@_STL@@@_STL@@U?$_Select1st@U?$pair@$$CBGV?$basic_string@DV?$char_traits@D@_STL@@V?$allocator@D@2@@_STL@@@_STL@@@2@U?$less@G@2@V?$allocator@U?$pair@$$CBGV?$basic_string@DV?$char_traits@D@_STL@@V?$allocator@D@2@@_STL@@@_STL@@@2@@_STL@@KAAAPAU?$_Rb_tree_node@U?$pair@$$CBGV?$basic_string@DV?$char_traits@D@_STL@@V?$allocator@D@2@@_STL@@@_STL@@@2@PAU32@@Z
_TEXT	SEGMENT PARA USE32 PUBLIC 'CODE'
_TEXT	ENDS
;	COMDAT ?_S_right@?$_Rb_tree@GU?$pair@$$CBGV?$basic_string@DV?$char_traits@D@_STL@@V?$allocator@D@2@@_STL@@@_STL@@U?$_Select1st@U?$pair@$$CBGV?$basic_string@DV?$char_traits@D@_STL@@V?$allocator@D@2@@_STL@@@_STL@@@2@U?$less@G@2@V?$allocator@U?$pair@$$CBGV?$basic_string@DV?$char_traits@D@_STL@@V?$allocator@D@2@@_STL@@@_STL@@@2@@_STL@@KAAAPAU?$_Rb_tree_node@U?$pair@$$CBGV?$basic_string@DV?$char_traits@D@_STL@@V?$allocator@D@2@@_STL@@@_STL@@@2@PAU32@@Z
_TEXT	SEGMENT PARA USE32 PUBLIC 'CODE'
_TEXT	ENDS
;	COMDAT ?_S_key@?$_Rb_tree@GU?$pair@$$CBGV?$basic_string@DV?$char_traits@D@_STL@@V?$allocator@D@2@@_STL@@@_STL@@U?$_Select1st@U?$pair@$$CBGV?$basic_string@DV?$char_traits@D@_STL@@V?$allocator@D@2@@_STL@@@_STL@@@2@U?$less@G@2@V?$allocator@U?$pair@$$CBGV?$basic_string@DV?$char_traits@D@_STL@@V?$allocator@D@2@@_STL@@@_STL@@@2@@_STL@@KAABGPAU?$_Rb_tree_node@U?$pair@$$CBGV?$basic_string@DV?$char_traits@D@_STL@@V?$allocator@D@2@@_STL@@@_STL@@@2@@Z
_TEXT	SEGMENT PARA USE32 PUBLIC 'CODE'
_TEXT	ENDS
;	COMDAT ?_S_value@?$_Rb_tree@GU?$pair@$$CBGUGUILD_SPRITES@MGuildMarkManager@@@_STL@@U?$_Select1st@U?$pair@$$CBGUGUILD_SPRITES@MGuildMarkManager@@@_STL@@@2@U?$less@G@2@V?$allocator@U?$pair@$$CBGUGUILD_SPRITES@MGuildMarkManager@@@_STL@@@2@@_STL@@KAAAU?$pair@$$CBGUGUILD_SPRITES@MGuildMarkManager@@@2@PAU?$_Rb_tree_node@U?$pair@$$CBGUGUILD_SPRITES@MGuildMarkManager@@@_STL@@@2@@Z
_TEXT	SEGMENT PARA USE32 PUBLIC 'CODE'
_TEXT	ENDS
;	COMDAT ?_S_value@?$_Rb_tree@GU?$pair@$$CBGV?$basic_string@DV?$char_traits@D@_STL@@V?$allocator@D@2@@_STL@@@_STL@@U?$_Select1st@U?$pair@$$CBGV?$basic_string@DV?$char_traits@D@_STL@@V?$allocator@D@2@@_STL@@@_STL@@@2@U?$less@G@2@V?$allocator@U?$pair@$$CBGV?$basic_string@DV?$char_traits@D@_STL@@V?$allocator@D@2@@_STL@@@_STL@@@2@@_STL@@KAAAU?$pair@$$CBGV?$basic_string@DV?$char_traits@D@_STL@@V?$allocator@D@2@@_STL@@@2@PAU?$_Rb_tree_node@U?$pair@$$CBGV?$basic_string@DV?$char_traits@D@_STL@@V?$allocator@D@2@@_STL@@@_STL@@@2@@Z
_TEXT	SEGMENT PARA USE32 PUBLIC 'CODE'
_TEXT	ENDS
;	COMDAT ??R?$_Select1st@U?$pair@$$CBGUGUILD_SPRITES@MGuildMarkManager@@@_STL@@@_STL@@QBEABGABU?$pair@$$CBGUGUILD_SPRITES@MGuildMarkManager@@@1@@Z
_TEXT	SEGMENT PARA USE32 PUBLIC 'CODE'
_TEXT	ENDS
;	COMDAT ??R?$_Select1st@U?$pair@$$CBGV?$basic_string@DV?$char_traits@D@_STL@@V?$allocator@D@2@@_STL@@@_STL@@@_STL@@QBEABGABU?$pair@$$CBGV?$basic_string@DV?$char_traits@D@_STL@@V?$allocator@D@2@@_STL@@@1@@Z
_TEXT	SEGMENT PARA USE32 PUBLIC 'CODE'
_TEXT	ENDS
;	COMDAT ??$_M_range_initialize@PBD@?$basic_string@DV?$char_traits@D@_STL@@V?$allocator@D@2@@_STL@@AAEXPBD0@Z
_TEXT	SEGMENT PARA USE32 PUBLIC 'CODE'
_TEXT	ENDS
;	COMDAT ??$_M_range_initialize@PAD@?$basic_string@DV?$char_traits@D@_STL@@V?$allocator@D@2@@_STL@@AAEXPAD0@Z
_TEXT	SEGMENT PARA USE32 PUBLIC 'CODE'
_TEXT	ENDS
;	COMDAT ?close@?$basic_filebuf@DV?$char_traits@D@_STL@@@_STL@@QAEPAV12@XZ
_TEXT	SEGMENT PARA USE32 PUBLIC 'CODE'
_TEXT	ENDS
;	COMDAT ?_M_exit_input_mode@?$basic_filebuf@DV?$char_traits@D@_STL@@@_STL@@AAEXXZ
_TEXT	SEGMENT PARA USE32 PUBLIC 'CODE'
_TEXT	ENDS
;	COMDAT ?_M_switch_to_output_mode@?$basic_filebuf@DV?$char_traits@D@_STL@@@_STL@@AAE_NXZ
_TEXT	SEGMENT PARA USE32 PUBLIC 'CODE'
_TEXT	ENDS
;	COMDAT ?_M_output_error@?$basic_filebuf@DV?$char_traits@D@_STL@@@_STL@@AAEHXZ
_TEXT	SEGMENT PARA USE32 PUBLIC 'CODE'
_TEXT	ENDS
;	COMDAT ?_M_allocate_buffers@?$basic_filebuf@DV?$char_traits@D@_STL@@@_STL@@AAE_NPADH@Z
_TEXT	SEGMENT PARA USE32 PUBLIC 'CODE'
_TEXT	ENDS
;	COMDAT ?_M_deallocate_buffers@?$basic_filebuf@DV?$char_traits@D@_STL@@@_STL@@AAEXXZ
_TEXT	SEGMENT PARA USE32 PUBLIC 'CODE'
_TEXT	ENDS
;	COMDAT ?_M_seek_init@?$basic_filebuf@DV?$char_traits@D@_STL@@@_STL@@AAE_N_N@Z
_TEXT	SEGMENT PARA USE32 PUBLIC 'CODE'
_TEXT	ENDS
;	COMDAT ?_M_setup_codecvt@?$basic_filebuf@DV?$char_traits@D@_STL@@@_STL@@AAEXABVlocale@2@@Z
_TEXT	SEGMENT PARA USE32 PUBLIC 'CODE'
_TEXT	ENDS
;	COMDAT ??$equal@PADPADU?$_Eq_traits@V?$char_traits@D@_STL@@@_STL@@@_STL@@YA_NPAD00U?$_Eq_traits@V?$char_traits@D@_STL@@@0@@Z
_TEXT	SEGMENT PARA USE32 PUBLIC 'CODE'
_TEXT	ENDS
;	COMDAT ??$_Destroy@V?$basic_string@DV?$char_traits@D@_STL@@V?$allocator@D@2@@_STL@@@_STL@@YAXPAV?$basic_string@DV?$char_traits@D@_STL@@V?$allocator@D@2@@0@@Z
_TEXT	SEGMENT PARA USE32 PUBLIC 'CODE'
_TEXT	ENDS
;	COMDAT ??$_M_assign_dispatch@PAD@?$basic_string@DV?$char_traits@D@_STL@@V?$allocator@D@2@@_STL@@AAEAAV01@PAD0ABU__false_type@1@@Z
_TEXT	SEGMENT PARA USE32 PUBLIC 'CODE'
_TEXT	ENDS
;	COMDAT ?_M_erase@?$_Rb_tree@GU?$pair@$$CBGUGUILD_SPRITES@MGuildMarkManager@@@_STL@@U?$_Select1st@U?$pair@$$CBGUGUILD_SPRITES@MGuildMarkManager@@@_STL@@@2@U?$less@G@2@V?$allocator@U?$pair@$$CBGUGUILD_SPRITES@MGuildMarkManager@@@_STL@@@2@@_STL@@AAEXPAU?$_Rb_tree_node@U?$pair@$$CBGUGUILD_SPRITES@MGuildMarkManager@@@_STL@@@2@@Z
_TEXT	SEGMENT PARA USE32 PUBLIC 'CODE'
_TEXT	ENDS
;	COMDAT ?insert_unique@?$_Rb_tree@GU?$pair@$$CBGUGUILD_SPRITES@MGuildMarkManager@@@_STL@@U?$_Select1st@U?$pair@$$CBGUGUILD_SPRITES@MGuildMarkManager@@@_STL@@@2@U?$less@G@2@V?$allocator@U?$pair@$$CBGUGUILD_SPRITES@MGuildMarkManager@@@_STL@@@2@@_STL@@QAE?AU?$_Rb_tree_iterator@U?$pair@$$CBGUGUILD_SPRITES@MGuildMarkManager@@@_STL@@U?$_Nonconst_traits@U?$pair@$$CBGUGUILD_SPRITES@MGuildMarkManager@@@_STL@@@2@@2@U32@ABU?$pair@$$CBGUGUILD_SPRITES@MGuildMarkManager@@@2@@Z
_TEXT	SEGMENT PARA USE32 PUBLIC 'CODE'
_TEXT	ENDS
;	COMDAT ??0?$CTypePack2@VCSprite@@VCSprite555@@VCSprite565@@@@QAE@XZ
_TEXT	SEGMENT PARA USE32 PUBLIC 'CODE'
_TEXT	ENDS
;	COMDAT ??1?$CTypePack2@VCSprite@@VCSprite555@@VCSprite565@@@@UAE@XZ
_TEXT	SEGMENT PARA USE32 PUBLIC 'CODE'
_TEXT	ENDS
;	COMDAT ?Init@?$CTypePack2@VCSprite@@VCSprite555@@VCSprite565@@@@UAEXG@Z
_TEXT	SEGMENT PARA USE32 PUBLIC 'CODE'
_TEXT	ENDS
;	COMDAT ?Release@?$CTypePack2@VCSprite@@VCSprite555@@VCSprite565@@@@UAEXXZ
_TEXT	SEGMENT PARA USE32 PUBLIC 'CODE'
_TEXT	ENDS
;	COMDAT ??A?$CTypePack2@VCSprite@@VCSprite555@@VCSprite565@@@@UAEAAVCSprite@@G@Z
_TEXT	SEGMENT PARA USE32 PUBLIC 'CODE'
_TEXT	ENDS
;	COMDAT ?Get@?$CTypePack2@VCSprite@@VCSprite555@@VCSprite565@@@@UAEAAVCSprite@@G@Z
_TEXT	SEGMENT PARA USE32 PUBLIC 'CODE'
_TEXT	ENDS
;	COMDAT ?SaveToFile@?$CTypePack2@VCSprite@@VCSprite555@@VCSprite565@@@@UAE_NPBD@Z
_TEXT	SEGMENT PARA USE32 PUBLIC 'CODE'
_TEXT	ENDS
;	COMDAT ?SaveToFile@?$CTypePack2@VCSprite@@VCSprite555@@VCSprite565@@@@UAE_NAAV?$basic_ofstream@DV?$char_traits@D@_STL@@@_STL@@0@Z
_TEXT	SEGMENT PARA USE32 PUBLIC 'CODE'
_TEXT	ENDS
;	COMDAT ?LoadFromFileRunning@?$CTypePack2@VCSprite@@VCSprite555@@VCSprite565@@@@UAE_NPBD@Z
_TEXT	SEGMENT PARA USE32 PUBLIC 'CODE'
_TEXT	ENDS
;	COMDAT ?LoadFromFile@?$CTypePack2@VCSprite@@VCSprite555@@VCSprite565@@@@UAE_NPBD@Z
_TEXT	SEGMENT PARA USE32 PUBLIC 'CODE'
_TEXT	ENDS
;	COMDAT ?LoadFromFilePart@?$CTypePack2@VCSprite@@VCSprite555@@VCSprite565@@@@UAE_NAAVCSpriteSetManager@@@Z
_TEXT	SEGMENT PARA USE32 PUBLIC 'CODE'
_TEXT	ENDS
;	COMDAT ?LoadFromFilePart@?$CTypePack2@VCSprite@@VCSprite555@@VCSprite565@@@@UAE_NHH@Z
_TEXT	SEGMENT PARA USE32 PUBLIC 'CODE'
_TEXT	ENDS
;	COMDAT ?LoadFromFileData@?$CTypePack2@VCSprite@@VCSprite555@@VCSprite565@@@@UAE_NHHPBD0@Z
_TEXT	SEGMENT PARA USE32 PUBLIC 'CODE'
_TEXT	ENDS
;	COMDAT ?ReleasePart@?$CTypePack2@VCSprite@@VCSprite555@@VCSprite565@@@@UAE_NV?$COrderedList@G@@@Z
_TEXT	SEGMENT PARA USE32 PUBLIC 'CODE'
_TEXT	ENDS
;	COMDAT ?ReleasePart@?$CTypePack2@VCSprite@@VCSprite555@@VCSprite565@@@@UAE_NHH@Z
_TEXT	SEGMENT PARA USE32 PUBLIC 'CODE'
_TEXT	ENDS
;	COMDAT ?FinishRunningLoad@?$CTypePack2@VCSprite@@VCSprite555@@VCSprite565@@@@UAEXXZ
_TEXT	SEGMENT PARA USE32 PUBLIC 'CODE'
_TEXT	ENDS
;	COMDAT ?_M_erase@?$_Rb_tree@GU?$pair@$$CBGV?$basic_string@DV?$char_traits@D@_STL@@V?$allocator@D@2@@_STL@@@_STL@@U?$_Select1st@U?$pair@$$CBGV?$basic_string@DV?$char_traits@D@_STL@@V?$allocator@D@2@@_STL@@@_STL@@@2@U?$less@G@2@V?$allocator@U?$pair@$$CBGV?$basic_string@DV?$char_traits@D@_STL@@V?$allocator@D@2@@_STL@@@_STL@@@2@@_STL@@AAEXPAU?$_Rb_tree_node@U?$pair@$$CBGV?$basic_string@DV?$char_traits@D@_STL@@V?$allocator@D@2@@_STL@@@_STL@@@2@@Z
_TEXT	SEGMENT PARA USE32 PUBLIC 'CODE'
_TEXT	ENDS
;	COMDAT ?insert_unique@?$_Rb_tree@GU?$pair@$$CBGV?$basic_string@DV?$char_traits@D@_STL@@V?$allocator@D@2@@_STL@@@_STL@@U?$_Select1st@U?$pair@$$CBGV?$basic_string@DV?$char_traits@D@_STL@@V?$allocator@D@2@@_STL@@@_STL@@@2@U?$less@G@2@V?$allocator@U?$pair@$$CBGV?$basic_string@DV?$char_traits@D@_STL@@V?$allocator@D@2@@_STL@@@_STL@@@2@@_STL@@QAE?AU?$_Rb_tree_iterator@U?$pair@$$CBGV?$basic_string@DV?$char_traits@D@_STL@@V?$allocator@D@2@@_STL@@@_STL@@U?$_Nonconst_traits@U?$pair@$$CBGV?$basic_string@DV?$char_traits@D@_STL@@V?$allocator@D@2@@_STL@@@_STL@@@2@@2@U32@ABU?$pair@$$CBGV?$basic_string@DV?$char_traits@D@_STL@@V?$allocator@D@2@@_STL@@@2@@Z
_TEXT	SEGMENT PARA USE32 PUBLIC 'CODE'
_TEXT	ENDS
;	COMDAT ??0?$CTypeTable@VAppendPatch@@@@QAE@XZ
_TEXT	SEGMENT PARA USE32 PUBLIC 'CODE'
_TEXT	ENDS
;	COMDAT ??1?$CTypeTable@VAppendPatch@@@@QAE@XZ
_TEXT	SEGMENT PARA USE32 PUBLIC 'CODE'
_TEXT	ENDS
;	COMDAT ??$find@G@?$_Rb_tree@GU?$pair@$$CBGUGUILD_SPRITES@MGuildMarkManager@@@_STL@@U?$_Select1st@U?$pair@$$CBGUGUILD_SPRITES@MGuildMarkManager@@@_STL@@@2@U?$less@G@2@V?$allocator@U?$pair@$$CBGUGUILD_SPRITES@MGuildMarkManager@@@_STL@@@2@@_STL@@QAE?AU?$_Rb_tree_iterator@U?$pair@$$CBGUGUILD_SPRITES@MGuildMarkManager@@@_STL@@U?$_Nonconst_traits@U?$pair@$$CBGUGUILD_SPRITES@MGuildMarkManager@@@_STL@@@2@@1@ABG@Z
_TEXT	SEGMENT PARA USE32 PUBLIC 'CODE'
_TEXT	ENDS
;	COMDAT ??$find@G@?$_Rb_tree@GU?$pair@$$CBGUGUILD_SPRITES@MGuildMarkManager@@@_STL@@U?$_Select1st@U?$pair@$$CBGUGUILD_SPRITES@MGuildMarkManager@@@_STL@@@2@U?$less@G@2@V?$allocator@U?$pair@$$CBGUGUILD_SPRITES@MGuildMarkManager@@@_STL@@@2@@_STL@@QBE?AU?$_Rb_tree_iterator@U?$pair@$$CBGUGUILD_SPRITES@MGuildMarkManager@@@_STL@@U?$_Const_traits@U?$pair@$$CBGUGUILD_SPRITES@MGuildMarkManager@@@_STL@@@2@@1@ABG@Z
_TEXT	SEGMENT PARA USE32 PUBLIC 'CODE'
_TEXT	ENDS
;	COMDAT ??$find@G@?$_Rb_tree@GU?$pair@$$CBGPAVGUILD_INFO@@@_STL@@U?$_Select1st@U?$pair@$$CBGPAVGUILD_INFO@@@_STL@@@2@U?$less@G@2@V?$allocator@U?$pair@$$CBGPAVGUILD_INFO@@@_STL@@@2@@_STL@@QAE?AU?$_Rb_tree_iterator@U?$pair@$$CBGPAVGUILD_INFO@@@_STL@@U?$_Nonconst_traits@U?$pair@$$CBGPAVGUILD_INFO@@@_STL@@@2@@1@ABG@Z
_TEXT	SEGMENT PARA USE32 PUBLIC 'CODE'
_TEXT	ENDS
;	COMDAT ??$find@G@?$_Rb_tree@GU?$pair@$$CBGV?$basic_string@DV?$char_traits@D@_STL@@V?$allocator@D@2@@_STL@@@_STL@@U?$_Select1st@U?$pair@$$CBGV?$basic_string@DV?$char_traits@D@_STL@@V?$allocator@D@2@@_STL@@@_STL@@@2@U?$less@G@2@V?$allocator@U?$pair@$$CBGV?$basic_string@DV?$char_traits@D@_STL@@V?$allocator@D@2@@_STL@@@_STL@@@2@@_STL@@QAE?AU?$_Rb_tree_iterator@U?$pair@$$CBGV?$basic_string@DV?$char_traits@D@_STL@@V?$allocator@D@2@@_STL@@@_STL@@U?$_Nonconst_traits@U?$pair@$$CBGV?$basic_string@DV?$char_traits@D@_STL@@V?$allocator@D@2@@_STL@@@_STL@@@2@@1@ABG@Z
_TEXT	SEGMENT PARA USE32 PUBLIC 'CODE'
_TEXT	ENDS
;	COMDAT ??$__uninitialized_copy@PBQAVAPPEND_PATCH_NODE@@PAPAV1@@_STL@@YAPAPAVAPPEND_PATCH_NODE@@PBQAV1@0PAPAV1@ABU__true_type@0@@Z
_TEXT	SEGMENT PARA USE32 PUBLIC 'CODE'
_TEXT	ENDS
;	COMDAT ??$_Destroy@PAPAVAPPEND_PATCH_NODE@@@_STL@@YAXPAPAVAPPEND_PATCH_NODE@@0@Z
_TEXT	SEGMENT PARA USE32 PUBLIC 'CODE'
_TEXT	ENDS
;	COMDAT ??$append@PBD@?$basic_string@DV?$char_traits@D@_STL@@V?$allocator@D@2@@_STL@@QAEAAV01@PBD0@Z
_TEXT	SEGMENT PARA USE32 PUBLIC 'CODE'
_TEXT	ENDS
;	COMDAT ??$?0U?$pair@$$CBGUGUILD_SPRITES@MGuildMarkManager@@@_STL@@@?$allocator@U?$_Rb_tree_node@U?$pair@$$CBGUGUILD_SPRITES@MGuildMarkManager@@@_STL@@@_STL@@@_STL@@QAE@ABV?$allocator@U?$pair@$$CBGUGUILD_SPRITES@MGuildMarkManager@@@_STL@@@1@@Z
_TEXT	SEGMENT PARA USE32 PUBLIC 'CODE'
_TEXT	ENDS
;	COMDAT ??_G?$basic_string@DV?$char_traits@D@_STL@@V?$allocator@D@2@@_STL@@QAEPAXI@Z
_TEXT	SEGMENT PARA USE32 PUBLIC 'CODE'
_TEXT	ENDS
;	COMDAT ??_G?$CTypePack2@VCSprite@@VCSprite555@@VCSprite565@@@@UAEPAXI@Z
_TEXT	SEGMENT PARA USE32 PUBLIC 'CODE'
_TEXT	ENDS
;	COMDAT ??1?$map@GPAVivfstream@@U?$less@G@_STL@@V?$allocator@U?$pair@$$CBGPAVivfstream@@@_STL@@@3@@_STL@@QAE@XZ
_TEXT	SEGMENT PARA USE32 PUBLIC 'CODE'
_TEXT	ENDS
;	COMDAT ??_ECSprite565@@QAEPAXI@Z
_TEXT	SEGMENT PARA USE32 PUBLIC 'CODE'
_TEXT	ENDS
;	COMDAT ??1CSprite565@@QAE@XZ
_TEXT	SEGMENT PARA USE32 PUBLIC 'CODE'
_TEXT	ENDS
;	COMDAT ??_ECSprite555@@QAEPAXI@Z
_TEXT	SEGMENT PARA USE32 PUBLIC 'CODE'
_TEXT	ENDS
;	COMDAT ??1CSprite555@@QAE@XZ
_TEXT	SEGMENT PARA USE32 PUBLIC 'CODE'
_TEXT	ENDS
;	COMDAT ??_ECSprite@@QAEPAXI@Z
_TEXT	SEGMENT PARA USE32 PUBLIC 'CODE'
_TEXT	ENDS
;	COMDAT ??_D?$basic_ofstream@DV?$char_traits@D@_STL@@@_STL@@QAEXXZ
_TEXT	SEGMENT PARA USE32 PUBLIC 'CODE'
_TEXT	ENDS
;	COMDAT ??Y?$basic_string@DV?$char_traits@D@_STL@@V?$allocator@D@2@@_STL@@QAEAAV01@D@Z
_TEXT	SEGMENT PARA USE32 PUBLIC 'CODE'
_TEXT	ENDS
;	COMDAT ?tellp@?$basic_ostream@DV?$char_traits@D@_STL@@@_STL@@QAE?AV?$fpos@H@2@XZ
_TEXT	SEGMENT PARA USE32 PUBLIC 'CODE'
_TEXT	ENDS
;	COMDAT ?seekp@?$basic_ostream@DV?$char_traits@D@_STL@@@_STL@@QAEAAV12@V?$fpos@H@2@@Z
_TEXT	SEGMENT PARA USE32 PUBLIC 'CODE'
_TEXT	ENDS
;	COMDAT ?_M_exit_putback_mode@?$basic_filebuf@DV?$char_traits@D@_STL@@@_STL@@AAEXXZ
_TEXT	SEGMENT PARA USE32 PUBLIC 'CODE'
_TEXT	ENDS
;	COMDAT ??R?$_Eq_traits@V?$char_traits@D@_STL@@@_STL@@QBE_NABD0@Z
_TEXT	SEGMENT PARA USE32 PUBLIC 'CODE'
_TEXT	ENDS
;	COMDAT ?GetSize@?$CSetManager@GG@@QBEGXZ
_TEXT	SEGMENT PARA USE32 PUBLIC 'CODE'
_TEXT	ENDS
;	COMDAT ?GetIterator@?$CSetManager@GG@@QBE?AU?$_List_iterator@GU?$_Const_traits@G@_STL@@@_STL@@XZ
_TEXT	SEGMENT PARA USE32 PUBLIC 'CODE'
_TEXT	ENDS
;	COMDAT ??0?$map@GPAVivfstream@@U?$less@G@_STL@@V?$allocator@U?$pair@$$CBGPAVivfstream@@@_STL@@@3@@_STL@@QAE@XZ
_TEXT	SEGMENT PARA USE32 PUBLIC 'CODE'
_TEXT	ENDS
;	COMDAT ?begin@?$map@GPAVivfstream@@U?$less@G@_STL@@V?$allocator@U?$pair@$$CBGPAVivfstream@@@_STL@@@3@@_STL@@QAE?AU?$_Rb_tree_iterator@U?$pair@$$CBGPAVivfstream@@@_STL@@U?$_Nonconst_traits@U?$pair@$$CBGPAVivfstream@@@_STL@@@2@@2@XZ
_TEXT	SEGMENT PARA USE32 PUBLIC 'CODE'
_TEXT	ENDS
;	COMDAT ?end@?$map@GPAVivfstream@@U?$less@G@_STL@@V?$allocator@U?$pair@$$CBGPAVivfstream@@@_STL@@@3@@_STL@@QAE?AU?$_Rb_tree_iterator@U?$pair@$$CBGPAVivfstream@@@_STL@@U?$_Nonconst_traits@U?$pair@$$CBGPAVivfstream@@@_STL@@@2@@2@XZ
_TEXT	SEGMENT PARA USE32 PUBLIC 'CODE'
_TEXT	ENDS
;	COMDAT ?insert@?$map@GPAVivfstream@@U?$less@G@_STL@@V?$allocator@U?$pair@$$CBGPAVivfstream@@@_STL@@@3@@_STL@@QAE?AU?$pair@U?$_Rb_tree_iterator@U?$pair@$$CBGPAVivfstream@@@_STL@@U?$_Nonconst_traits@U?$pair@$$CBGPAVivfstream@@@_STL@@@2@@_STL@@_N@2@ABU?$pair@$$CBGPAVivfstream@@@2@@Z
_TEXT	SEGMENT PARA USE32 PUBLIC 'CODE'
_TEXT	ENDS
;	COMDAT ?erase@?$map@GPAVivfstream@@U?$less@G@_STL@@V?$allocator@U?$pair@$$CBGPAVivfstream@@@_STL@@@3@@_STL@@QAEXU?$_Rb_tree_iterator@U?$pair@$$CBGPAVivfstream@@@_STL@@U?$_Nonconst_traits@U?$pair@$$CBGPAVivfstream@@@_STL@@@2@@2@@Z
_TEXT	SEGMENT PARA USE32 PUBLIC 'CODE'
_TEXT	ENDS
;	COMDAT ?clear@?$map@GPAVivfstream@@U?$less@G@_STL@@V?$allocator@U?$pair@$$CBGPAVivfstream@@@_STL@@@3@@_STL@@QAEXXZ
_TEXT	SEGMENT PARA USE32 PUBLIC 'CODE'
_TEXT	ENDS
;	COMDAT ?find@?$map@GPAVivfstream@@U?$less@G@_STL@@V?$allocator@U?$pair@$$CBGPAVivfstream@@@_STL@@@3@@_STL@@QAE?AU?$_Rb_tree_iterator@U?$pair@$$CBGPAVivfstream@@@_STL@@U?$_Nonconst_traits@U?$pair@$$CBGPAVivfstream@@@_STL@@@2@@2@ABG@Z
_TEXT	SEGMENT PARA USE32 PUBLIC 'CODE'
_TEXT	ENDS
;	COMDAT ??1?$_Rb_tree@GU?$pair@$$CBGPAVivfstream@@@_STL@@U?$_Select1st@U?$pair@$$CBGPAVivfstream@@@_STL@@@2@U?$less@G@2@V?$allocator@U?$pair@$$CBGPAVivfstream@@@_STL@@@2@@_STL@@QAE@XZ
_TEXT	SEGMENT PARA USE32 PUBLIC 'CODE'
_TEXT	ENDS
;	COMDAT ?_S_right@?$_Rb_tree@GU?$pair@$$CBGUGUILD_SPRITES@MGuildMarkManager@@@_STL@@U?$_Select1st@U?$pair@$$CBGUGUILD_SPRITES@MGuildMarkManager@@@_STL@@@2@U?$less@G@2@V?$allocator@U?$pair@$$CBGUGUILD_SPRITES@MGuildMarkManager@@@_STL@@@2@@_STL@@KAAAPAU?$_Rb_tree_node@U?$pair@$$CBGUGUILD_SPRITES@MGuildMarkManager@@@_STL@@@2@PAU_Rb_tree_node_base@2@@Z
_TEXT	SEGMENT PARA USE32 PUBLIC 'CODE'
_TEXT	ENDS
;	COMDAT ?_S_key@?$_Rb_tree@GU?$pair@$$CBGUGUILD_SPRITES@MGuildMarkManager@@@_STL@@U?$_Select1st@U?$pair@$$CBGUGUILD_SPRITES@MGuildMarkManager@@@_STL@@@2@U?$less@G@2@V?$allocator@U?$pair@$$CBGUGUILD_SPRITES@MGuildMarkManager@@@_STL@@@2@@_STL@@KAABGPAU_Rb_tree_node_base@2@@Z
_TEXT	SEGMENT PARA USE32 PUBLIC 'CODE'
_TEXT	ENDS
;	COMDAT ?size@?$_Rb_tree@GU?$pair@$$CBGUGUILD_SPRITES@MGuildMarkManager@@@_STL@@U?$_Select1st@U?$pair@$$CBGUGUILD_SPRITES@MGuildMarkManager@@@_STL@@@2@U?$less@G@2@V?$allocator@U?$pair@$$CBGUGUILD_SPRITES@MGuildMarkManager@@@_STL@@@2@@_STL@@QBEIXZ
_TEXT	SEGMENT PARA USE32 PUBLIC 'CODE'
_TEXT	ENDS
;	COMDAT ?_S_right@?$_Rb_tree@GU?$pair@$$CBGV?$basic_string@DV?$char_traits@D@_STL@@V?$allocator@D@2@@_STL@@@_STL@@U?$_Select1st@U?$pair@$$CBGV?$basic_string@DV?$char_traits@D@_STL@@V?$allocator@D@2@@_STL@@@_STL@@@2@U?$less@G@2@V?$allocator@U?$pair@$$CBGV?$basic_string@DV?$char_traits@D@_STL@@V?$allocator@D@2@@_STL@@@_STL@@@2@@_STL@@KAAAPAU?$_Rb_tree_node@U?$pair@$$CBGV?$basic_string@DV?$char_traits@D@_STL@@V?$allocator@D@2@@_STL@@@_STL@@@2@PAU_Rb_tree_node_base@2@@Z
_TEXT	SEGMENT PARA USE32 PUBLIC 'CODE'
_TEXT	ENDS
;	COMDAT ?_S_key@?$_Rb_tree@GU?$pair@$$CBGV?$basic_string@DV?$char_traits@D@_STL@@V?$allocator@D@2@@_STL@@@_STL@@U?$_Select1st@U?$pair@$$CBGV?$basic_string@DV?$char_traits@D@_STL@@V?$allocator@D@2@@_STL@@@_STL@@@2@U?$less@G@2@V?$allocator@U?$pair@$$CBGV?$basic_string@DV?$char_traits@D@_STL@@V?$allocator@D@2@@_STL@@@_STL@@@2@@_STL@@KAABGPAU_Rb_tree_node_base@2@@Z
_TEXT	SEGMENT PARA USE32 PUBLIC 'CODE'
_TEXT	ENDS
;	COMDAT ?size@?$_Rb_tree@GU?$pair@$$CBGV?$basic_string@DV?$char_traits@D@_STL@@V?$allocator@D@2@@_STL@@@_STL@@U?$_Select1st@U?$pair@$$CBGV?$basic_string@DV?$char_traits@D@_STL@@V?$allocator@D@2@@_STL@@@_STL@@@2@U?$less@G@2@V?$allocator@U?$pair@$$CBGV?$basic_string@DV?$char_traits@D@_STL@@V?$allocator@D@2@@_STL@@@_STL@@@2@@_STL@@QBEIXZ
_TEXT	SEGMENT PARA USE32 PUBLIC 'CODE'
_TEXT	ENDS
;	COMDAT ?deallocate@?$allocator@U?$_Rb_tree_node@U?$pair@$$CBGV?$basic_string@DV?$char_traits@D@_STL@@V?$allocator@D@2@@_STL@@@_STL@@@_STL@@@_STL@@QAEXPAU?$_Rb_tree_node@U?$pair@$$CBGV?$basic_string@DV?$char_traits@D@_STL@@V?$allocator@D@2@@_STL@@@_STL@@@2@I@Z
_TEXT	SEGMENT PARA USE32 PUBLIC 'CODE'
_TEXT	ENDS
;	COMDAT ??E?$_Rb_tree_iterator@U?$pair@$$CBGV?$basic_string@DV?$char_traits@D@_STL@@V?$allocator@D@2@@_STL@@@_STL@@U?$_Nonconst_traits@U?$pair@$$CBGV?$basic_string@DV?$char_traits@D@_STL@@V?$allocator@D@2@@_STL@@@_STL@@@2@@_STL@@QAEAAU01@XZ
_TEXT	SEGMENT PARA USE32 PUBLIC 'CODE'
_TEXT	ENDS
;	COMDAT ??F?$_Rb_tree_iterator@U?$pair@$$CBGV?$basic_string@DV?$char_traits@D@_STL@@V?$allocator@D@2@@_STL@@@_STL@@U?$_Nonconst_traits@U?$pair@$$CBGV?$basic_string@DV?$char_traits@D@_STL@@V?$allocator@D@2@@_STL@@@_STL@@@2@@_STL@@QAEAAU01@XZ
_TEXT	SEGMENT PARA USE32 PUBLIC 'CODE'
_TEXT	ENDS
;	COMDAT ??E?$_Rb_tree_iterator@U?$pair@$$CBGUGUILD_SPRITES@MGuildMarkManager@@@_STL@@U?$_Nonconst_traits@U?$pair@$$CBGUGUILD_SPRITES@MGuildMarkManager@@@_STL@@@2@@_STL@@QAEAAU01@XZ
_TEXT	SEGMENT PARA USE32 PUBLIC 'CODE'
_TEXT	ENDS
;	COMDAT ??F?$_Rb_tree_iterator@U?$pair@$$CBGUGUILD_SPRITES@MGuildMarkManager@@@_STL@@U?$_Nonconst_traits@U?$pair@$$CBGUGUILD_SPRITES@MGuildMarkManager@@@_STL@@@2@@_STL@@QAEAAU01@XZ
_TEXT	SEGMENT PARA USE32 PUBLIC 'CODE'
_TEXT	ENDS
;	COMDAT ??0?$_Rb_tree_iterator@U?$pair@$$CBGPAVivfstream@@@_STL@@U?$_Nonconst_traits@U?$pair@$$CBGPAVivfstream@@@_STL@@@2@@_STL@@QAE@ABU01@@Z
_TEXT	SEGMENT PARA USE32 PUBLIC 'CODE'
_TEXT	ENDS
;	COMDAT ??C?$_Rb_tree_iterator@U?$pair@$$CBGPAVivfstream@@@_STL@@U?$_Nonconst_traits@U?$pair@$$CBGPAVivfstream@@@_STL@@@2@@_STL@@QBEPAU?$pair@$$CBGPAVivfstream@@@1@XZ
_TEXT	SEGMENT PARA USE32 PUBLIC 'CODE'
_TEXT	ENDS
;	COMDAT ??E?$_Rb_tree_iterator@U?$pair@$$CBGPAVivfstream@@@_STL@@U?$_Nonconst_traits@U?$pair@$$CBGPAVivfstream@@@_STL@@@2@@_STL@@QAEAAU01@XZ
_TEXT	SEGMENT PARA USE32 PUBLIC 'CODE'
_TEXT	ENDS
;	COMDAT ??0?$pair@$$CBGPAVivfstream@@@_STL@@QAE@ABGABQAVivfstream@@@Z
_TEXT	SEGMENT PARA USE32 PUBLIC 'CODE'
_TEXT	ENDS
;	COMDAT ??0?$basic_ofstream@DV?$char_traits@D@_STL@@@_STL@@QAE@PBDH@Z
_TEXT	SEGMENT PARA USE32 PUBLIC 'CODE'
_TEXT	ENDS
;	COMDAT ??1?$basic_ofstream@DV?$char_traits@D@_STL@@@_STL@@UAE@XZ
_TEXT	SEGMENT PARA USE32 PUBLIC 'CODE'
_TEXT	ENDS
;	COMDAT ?close@?$basic_ofstream@DV?$char_traits@D@_STL@@@_STL@@QAEXXZ
_TEXT	SEGMENT PARA USE32 PUBLIC 'CODE'
_TEXT	ENDS
;	COMDAT ?size@?$vector@KV?$allocator@K@_STL@@@_STL@@QBEIXZ
_TEXT	SEGMENT PARA USE32 PUBLIC 'CODE'
_TEXT	ENDS
;	COMDAT ??A?$vector@KV?$allocator@K@_STL@@@_STL@@QAEAAKI@Z
_TEXT	SEGMENT PARA USE32 PUBLIC 'CODE'
_TEXT	ENDS
;	COMDAT ??0?$vector@KV?$allocator@K@_STL@@@_STL@@QAE@ABV?$allocator@K@1@@Z
_TEXT	SEGMENT PARA USE32 PUBLIC 'CODE'
_TEXT	ENDS
;	COMDAT ??1?$vector@KV?$allocator@K@_STL@@@_STL@@QAE@XZ
_TEXT	SEGMENT PARA USE32 PUBLIC 'CODE'
_TEXT	ENDS
;	COMDAT ?push_back@?$vector@KV?$allocator@K@_STL@@@_STL@@QAEXABK@Z
_TEXT	SEGMENT PARA USE32 PUBLIC 'CODE'
_TEXT	ENDS
;	COMDAT ??0?$allocator@K@_STL@@QAE@XZ
_TEXT	SEGMENT PARA USE32 PUBLIC 'CODE'
_TEXT	ENDS
;	COMDAT ??1?$allocator@K@_STL@@QAE@XZ
_TEXT	SEGMENT PARA USE32 PUBLIC 'CODE'
_TEXT	ENDS
;	COMDAT ??D?$_List_iterator@GU?$_Const_traits@G@_STL@@@_STL@@QBEABGXZ
_TEXT	SEGMENT PARA USE32 PUBLIC 'CODE'
_TEXT	ENDS
;	COMDAT ??E?$_List_iterator@GU?$_Const_traits@G@_STL@@@_STL@@QAEAAU01@XZ
_TEXT	SEGMENT PARA USE32 PUBLIC 'CODE'
_TEXT	ENDS
;	COMDAT ?GetSize@?$COrderedList@G@@QBEHXZ
_TEXT	SEGMENT PARA USE32 PUBLIC 'CODE'
_TEXT	ENDS
;	COMDAT ?GetIterator@?$COrderedList@G@@QBE?AU?$_List_iterator@GU?$_Const_traits@G@_STL@@@_STL@@XZ
_TEXT	SEGMENT PARA USE32 PUBLIC 'CODE'
_TEXT	ENDS
;	COMDAT ?_Ret@?$_BothPtrType@PBQAVAPPEND_PATCH_NODE@@PAPAV1@@_STL@@SA?AU__true_type@2@XZ
_TEXT	SEGMENT PARA USE32 PUBLIC 'CODE'
_TEXT	ENDS
;	COMDAT ??_G?$basic_ofstream@DV?$char_traits@D@_STL@@@_STL@@UAEPAXI@Z
_TEXT	SEGMENT PARA USE32 PUBLIC 'CODE'
_TEXT	ENDS
;	COMDAT ?push_back@?$basic_string@DV?$char_traits@D@_STL@@V?$allocator@D@2@@_STL@@QAEXD@Z
_TEXT	SEGMENT PARA USE32 PUBLIC 'CODE'
_TEXT	ENDS
;	COMDAT ?rdbuf@?$basic_ios@DV?$char_traits@D@_STL@@@_STL@@QBEPAV?$basic_streambuf@DV?$char_traits@D@_STL@@@2@XZ
_TEXT	SEGMENT PARA USE32 PUBLIC 'CODE'
_TEXT	ENDS
;	COMDAT ?setstate@?$basic_ios@DV?$char_traits@D@_STL@@@_STL@@QAEXH@Z
_TEXT	SEGMENT PARA USE32 PUBLIC 'CODE'
_TEXT	ENDS
;	COMDAT ?open@?$basic_filebuf@DV?$char_traits@D@_STL@@@_STL@@QAEPAV12@PBDH@Z
_TEXT	SEGMENT PARA USE32 PUBLIC 'CODE'
_TEXT	ENDS
;	COMDAT ?begin@?$list@GV?$allocator@G@_STL@@@_STL@@QBE?AU?$_List_iterator@GU?$_Const_traits@G@_STL@@@2@XZ
_TEXT	SEGMENT PARA USE32 PUBLIC 'CODE'
_TEXT	ENDS
;	COMDAT ?size@?$list@GV?$allocator@G@_STL@@@_STL@@QBEIXZ
_TEXT	SEGMENT PARA USE32 PUBLIC 'CODE'
_TEXT	ENDS
;	COMDAT ??0?$_Rb_tree@GU?$pair@$$CBGPAVivfstream@@@_STL@@U?$_Select1st@U?$pair@$$CBGPAVivfstream@@@_STL@@@2@U?$less@G@2@V?$allocator@U?$pair@$$CBGPAVivfstream@@@_STL@@@2@@_STL@@QAE@ABU?$less@G@1@ABV?$allocator@U?$pair@$$CBGPAVivfstream@@@_STL@@@1@@Z
_TEXT	SEGMENT PARA USE32 PUBLIC 'CODE'
_TEXT	ENDS
;	COMDAT ?begin@?$_Rb_tree@GU?$pair@$$CBGPAVivfstream@@@_STL@@U?$_Select1st@U?$pair@$$CBGPAVivfstream@@@_STL@@@2@U?$less@G@2@V?$allocator@U?$pair@$$CBGPAVivfstream@@@_STL@@@2@@_STL@@QAE?AU?$_Rb_tree_iterator@U?$pair@$$CBGPAVivfstream@@@_STL@@U?$_Nonconst_traits@U?$pair@$$CBGPAVivfstream@@@_STL@@@2@@2@XZ
_TEXT	SEGMENT PARA USE32 PUBLIC 'CODE'
_TEXT	ENDS
;	COMDAT ?end@?$_Rb_tree@GU?$pair@$$CBGPAVivfstream@@@_STL@@U?$_Select1st@U?$pair@$$CBGPAVivfstream@@@_STL@@@2@U?$less@G@2@V?$allocator@U?$pair@$$CBGPAVivfstream@@@_STL@@@2@@_STL@@QAE?AU?$_Rb_tree_iterator@U?$pair@$$CBGPAVivfstream@@@_STL@@U?$_Nonconst_traits@U?$pair@$$CBGPAVivfstream@@@_STL@@@2@@2@XZ
_TEXT	SEGMENT PARA USE32 PUBLIC 'CODE'
_TEXT	ENDS
;	COMDAT ?erase@?$_Rb_tree@GU?$pair@$$CBGPAVivfstream@@@_STL@@U?$_Select1st@U?$pair@$$CBGPAVivfstream@@@_STL@@@2@U?$less@G@2@V?$allocator@U?$pair@$$CBGPAVivfstream@@@_STL@@@2@@_STL@@QAEXU?$_Rb_tree_iterator@U?$pair@$$CBGPAVivfstream@@@_STL@@U?$_Nonconst_traits@U?$pair@$$CBGPAVivfstream@@@_STL@@@2@@2@@Z
_TEXT	SEGMENT PARA USE32 PUBLIC 'CODE'
_TEXT	ENDS
;	COMDAT ?clear@?$_Rb_tree@GU?$pair@$$CBGPAVivfstream@@@_STL@@U?$_Select1st@U?$pair@$$CBGPAVivfstream@@@_STL@@@2@U?$less@G@2@V?$allocator@U?$pair@$$CBGPAVivfstream@@@_STL@@@2@@_STL@@QAEXXZ
_TEXT	SEGMENT PARA USE32 PUBLIC 'CODE'
_TEXT	ENDS
;	COMDAT ??1?$_Rb_tree_base@U?$pair@$$CBGPAVivfstream@@@_STL@@V?$allocator@U?$pair@$$CBGPAVivfstream@@@_STL@@@2@@_STL@@QAE@XZ
_TEXT	SEGMENT PARA USE32 PUBLIC 'CODE'
_TEXT	ENDS
;	COMDAT ??0?$allocator@U?$pair@$$CBGPAVivfstream@@@_STL@@@_STL@@QAE@XZ
_TEXT	SEGMENT PARA USE32 PUBLIC 'CODE'
_TEXT	ENDS
;	COMDAT ??1?$allocator@U?$pair@$$CBGPAVivfstream@@@_STL@@@_STL@@QAE@XZ
_TEXT	SEGMENT PARA USE32 PUBLIC 'CODE'
_TEXT	ENDS
;	COMDAT ??D?$_Rb_tree_iterator@U?$pair@$$CBGPAVivfstream@@@_STL@@U?$_Nonconst_traits@U?$pair@$$CBGPAVivfstream@@@_STL@@@2@@_STL@@QBEAAU?$pair@$$CBGPAVivfstream@@@1@XZ
_TEXT	SEGMENT PARA USE32 PUBLIC 'CODE'
_TEXT	ENDS
;	COMDAT ?rdbuf@?$basic_ofstream@DV?$char_traits@D@_STL@@@_STL@@QBEPAV?$basic_filebuf@DV?$char_traits@D@_STL@@@2@XZ
_TEXT	SEGMENT PARA USE32 PUBLIC 'CODE'
_TEXT	ENDS
;	COMDAT ?_M_insert_overflow@?$vector@KV?$allocator@K@_STL@@@_STL@@IAEXPAKABKABU__true_type@2@I_N@Z
_TEXT	SEGMENT PARA USE32 PUBLIC 'CODE'
_TEXT	ENDS
;	COMDAT ?begin@?$vector@KV?$allocator@K@_STL@@@_STL@@QAEPAKXZ
_TEXT	SEGMENT PARA USE32 PUBLIC 'CODE'
_TEXT	ENDS
;	COMDAT ??0?$_Vector_base@KV?$allocator@K@_STL@@@_STL@@QAE@ABV?$allocator@K@1@@Z
_TEXT	SEGMENT PARA USE32 PUBLIC 'CODE'
_TEXT	ENDS
;	COMDAT ??1?$_Vector_base@KV?$allocator@K@_STL@@@_STL@@QAE@XZ
_TEXT	SEGMENT PARA USE32 PUBLIC 'CODE'
_TEXT	ENDS
;	COMDAT ??1?$_STLP_alloc_proxy@PAU?$_Rb_tree_node@U?$pair@$$CBGPAVivfstream@@@_STL@@@_STL@@U12@V?$allocator@U?$_Rb_tree_node@U?$pair@$$CBGPAVivfstream@@@_STL@@@_STL@@@2@@_STL@@QAE@XZ
_TEXT	SEGMENT PARA USE32 PUBLIC 'CODE'
_TEXT	ENDS
;	COMDAT ??1?$_STLP_alloc_proxy@PAKKV?$allocator@K@_STL@@@_STL@@QAE@XZ
_TEXT	SEGMENT PARA USE32 PUBLIC 'CODE'
_TEXT	ENDS
;	COMDAT ?_M_construct_null@?$basic_string@DV?$char_traits@D@_STL@@V?$allocator@D@2@@_STL@@AAEXPAD@Z
_TEXT	SEGMENT PARA USE32 PUBLIC 'CODE'
_TEXT	ENDS
;	COMDAT ?clear@?$basic_ios@DV?$char_traits@D@_STL@@@_STL@@QAEXH@Z
_TEXT	SEGMENT PARA USE32 PUBLIC 'CODE'
_TEXT	ENDS
;	COMDAT ?end@?$list@GV?$allocator@G@_STL@@@_STL@@QBE?AU?$_List_iterator@GU?$_Const_traits@G@_STL@@@2@XZ
_TEXT	SEGMENT PARA USE32 PUBLIC 'CODE'
_TEXT	ENDS
;	COMDAT ?_M_root@?$_Rb_tree@GU?$pair@$$CBGPAVivfstream@@@_STL@@U?$_Select1st@U?$pair@$$CBGPAVivfstream@@@_STL@@@2@U?$less@G@2@V?$allocator@U?$pair@$$CBGPAVivfstream@@@_STL@@@2@@_STL@@IBEAAPAU?$_Rb_tree_node@U?$pair@$$CBGPAVivfstream@@@_STL@@@2@XZ
_TEXT	SEGMENT PARA USE32 PUBLIC 'CODE'
_TEXT	ENDS
;	COMDAT ?_M_leftmost@?$_Rb_tree@GU?$pair@$$CBGPAVivfstream@@@_STL@@U?$_Select1st@U?$pair@$$CBGPAVivfstream@@@_STL@@@2@U?$less@G@2@V?$allocator@U?$pair@$$CBGPAVivfstream@@@_STL@@@2@@_STL@@IBEAAPAU?$_Rb_tree_node@U?$pair@$$CBGPAVivfstream@@@_STL@@@2@XZ
_TEXT	SEGMENT PARA USE32 PUBLIC 'CODE'
_TEXT	ENDS
;	COMDAT ?_M_rightmost@?$_Rb_tree@GU?$pair@$$CBGPAVivfstream@@@_STL@@U?$_Select1st@U?$pair@$$CBGPAVivfstream@@@_STL@@@2@U?$less@G@2@V?$allocator@U?$pair@$$CBGPAVivfstream@@@_STL@@@2@@_STL@@IBEAAPAU?$_Rb_tree_node@U?$pair@$$CBGPAVivfstream@@@_STL@@@2@XZ
_TEXT	SEGMENT PARA USE32 PUBLIC 'CODE'
_TEXT	ENDS
;	COMDAT ?_M_empty_initialize@?$_Rb_tree@GU?$pair@$$CBGPAVivfstream@@@_STL@@U?$_Select1st@U?$pair@$$CBGPAVivfstream@@@_STL@@@2@U?$less@G@2@V?$allocator@U?$pair@$$CBGPAVivfstream@@@_STL@@@2@@_STL@@AAEXXZ
_TEXT	SEGMENT PARA USE32 PUBLIC 'CODE'
_TEXT	ENDS
;	COMDAT ??0?$_Rb_tree_base@U?$pair@$$CBGPAVivfstream@@@_STL@@V?$allocator@U?$pair@$$CBGPAVivfstream@@@_STL@@@2@@_STL@@QAE@ABV?$allocator@U?$pair@$$CBGPAVivfstream@@@_STL@@@1@@Z
_TEXT	SEGMENT PARA USE32 PUBLIC 'CODE'
_TEXT	ENDS
;	COMDAT ??1?$allocator@U?$_Rb_tree_node@U?$pair@$$CBGPAVivfstream@@@_STL@@@_STL@@@_STL@@QAE@XZ
_TEXT	SEGMENT PARA USE32 PUBLIC 'CODE'
_TEXT	ENDS
;	COMDAT ?deallocate@?$allocator@U?$_Rb_tree_node@U?$pair@$$CBGPAVivfstream@@@_STL@@@_STL@@@_STL@@QAEXPAU?$_Rb_tree_node@U?$pair@$$CBGPAVivfstream@@@_STL@@@2@I@Z
_TEXT	SEGMENT PARA USE32 PUBLIC 'CODE'
_TEXT	ENDS
;	COMDAT ??0?$_Rb_tree_iterator@U?$pair@$$CBGPAVivfstream@@@_STL@@U?$_Nonconst_traits@U?$pair@$$CBGPAVivfstream@@@_STL@@@2@@_STL@@QAE@PAU?$_Rb_tree_node@U?$pair@$$CBGPAVivfstream@@@_STL@@@1@@Z
_TEXT	SEGMENT PARA USE32 PUBLIC 'CODE'
_TEXT	ENDS
;	COMDAT ?_M_clear@?$vector@KV?$allocator@K@_STL@@@_STL@@IAEXXZ
_TEXT	SEGMENT PARA USE32 PUBLIC 'CODE'
_TEXT	ENDS
;	COMDAT ?_M_set@?$vector@KV?$allocator@K@_STL@@@_STL@@IAEXPAK00@Z
_TEXT	SEGMENT PARA USE32 PUBLIC 'CODE'
_TEXT	ENDS
;	COMDAT ?allocate@?$allocator@K@_STL@@QAEPAKIPBX@Z
_TEXT	SEGMENT PARA USE32 PUBLIC 'CODE'
_TEXT	ENDS
;	COMDAT ?deallocate@?$allocator@K@_STL@@QAEXPAKI@Z
_TEXT	SEGMENT PARA USE32 PUBLIC 'CODE'
_TEXT	ENDS
;	COMDAT ??0?$_STLP_alloc_proxy@PAKKV?$allocator@K@_STL@@@_STL@@QAE@ABV?$allocator@K@1@PAK@Z
_TEXT	SEGMENT PARA USE32 PUBLIC 'CODE'
_TEXT	ENDS
;	COMDAT ??0?$_List_iterator@GU?$_Const_traits@G@_STL@@@_STL@@QAE@PAU?$_List_node@G@1@@Z
_TEXT	SEGMENT PARA USE32 PUBLIC 'CODE'
_TEXT	ENDS
;	COMDAT ?_M_construct_null_aux@?$basic_string@DV?$char_traits@D@_STL@@V?$allocator@D@2@@_STL@@AAEXPADABU__true_type@2@@Z
_TEXT	SEGMENT PARA USE32 PUBLIC 'CODE'
_TEXT	ENDS
;	COMDAT ?_S_color@?$_Rb_tree@GU?$pair@$$CBGPAVivfstream@@@_STL@@U?$_Select1st@U?$pair@$$CBGPAVivfstream@@@_STL@@@2@U?$less@G@2@V?$allocator@U?$pair@$$CBGPAVivfstream@@@_STL@@@2@@_STL@@KAAA_NPAU?$_Rb_tree_node@U?$pair@$$CBGPAVivfstream@@@_STL@@@2@@Z
_TEXT	SEGMENT PARA USE32 PUBLIC 'CODE'
_TEXT	ENDS
;	COMDAT ??0?$_STLP_alloc_proxy@PAU?$_Rb_tree_node@U?$pair@$$CBGPAVivfstream@@@_STL@@@_STL@@U12@V?$allocator@U?$_Rb_tree_node@U?$pair@$$CBGPAVivfstream@@@_STL@@@_STL@@@2@@_STL@@QAE@ABV?$allocator@U?$_Rb_tree_node@U?$pair@$$CBGPAVivfstream@@@_STL@@@_STL@@@1@PAU?$_Rb_tree_node@U?$pair@$$CBGPAVivfstream@@@_STL@@@1@@Z
_TEXT	SEGMENT PARA USE32 PUBLIC 'CODE'
_TEXT	ENDS
;	COMDAT ?allocate@?$allocator@U?$_Rb_tree_node@U?$pair@$$CBGPAVivfstream@@@_STL@@@_STL@@@_STL@@QAEPAU?$_Rb_tree_node@U?$pair@$$CBGPAVivfstream@@@_STL@@@2@IPBX@Z
_TEXT	SEGMENT PARA USE32 PUBLIC 'CODE'
_TEXT	ENDS
;	COMDAT ??0?$allocator@K@_STL@@QAE@ABV01@@Z
_TEXT	SEGMENT PARA USE32 PUBLIC 'CODE'
_TEXT	ENDS
;	COMDAT ??0?$allocator@U?$_Rb_tree_node@U?$pair@$$CBGPAVivfstream@@@_STL@@@_STL@@@_STL@@QAE@ABV01@@Z
_TEXT	SEGMENT PARA USE32 PUBLIC 'CODE'
_TEXT	ENDS
;	COMDAT ?reserve@?$basic_string@DV?$char_traits@D@_STL@@V?$allocator@D@2@@_STL@@QAEXI@Z
_TEXT	SEGMENT PARA USE32 PUBLIC 'CODE'
_TEXT	ENDS
;	COMDAT ??$_M_range_initialize@PBD@?$basic_string@DV?$char_traits@D@_STL@@V?$allocator@D@2@@_STL@@AAEXPBD0ABUforward_iterator_tag@1@@Z
_TEXT	SEGMENT PARA USE32 PUBLIC 'CODE'
_TEXT	ENDS
;	COMDAT ??$_M_range_initialize@PAD@?$basic_string@DV?$char_traits@D@_STL@@V?$allocator@D@2@@_STL@@AAEXPAD0ABUforward_iterator_tag@1@@Z
_TEXT	SEGMENT PARA USE32 PUBLIC 'CODE'
_TEXT	ENDS
;	COMDAT ??0?$basic_filebuf@DV?$char_traits@D@_STL@@@_STL@@QAE@XZ
_TEXT	SEGMENT PARA USE32 PUBLIC 'CODE'
_TEXT	ENDS
;	COMDAT ?_M_unshift@?$basic_filebuf@DV?$char_traits@D@_STL@@@_STL@@AAE_NXZ
_TEXT	SEGMENT PARA USE32 PUBLIC 'CODE'
_TEXT	ENDS
;	COMDAT ?_M_allocate_buffers@?$basic_filebuf@DV?$char_traits@D@_STL@@@_STL@@AAE_NXZ
_TEXT	SEGMENT PARA USE32 PUBLIC 'CODE'
_TEXT	ENDS
;	COMDAT ??$max@H@_STL@@YAABHABH0@Z
_TEXT	SEGMENT PARA USE32 PUBLIC 'CODE'
_TEXT	ENDS
;	COMDAT ??$use_facet@V?$codecvt@DDH@_STL@@@_STL@@YAABV?$codecvt@DDH@0@ABVlocale@0@@Z
_TEXT	SEGMENT PARA USE32 PUBLIC 'CODE'
_TEXT	ENDS
;	COMDAT ??$append@PAD@?$basic_string@DV?$char_traits@D@_STL@@V?$allocator@D@2@@_STL@@QAEAAV01@PAD0@Z
_TEXT	SEGMENT PARA USE32 PUBLIC 'CODE'
_TEXT	ENDS
;	COMDAT ?_M_insert@?$_Rb_tree@GU?$pair@$$CBGUGUILD_SPRITES@MGuildMarkManager@@@_STL@@U?$_Select1st@U?$pair@$$CBGUGUILD_SPRITES@MGuildMarkManager@@@_STL@@@2@U?$less@G@2@V?$allocator@U?$pair@$$CBGUGUILD_SPRITES@MGuildMarkManager@@@_STL@@@2@@_STL@@AAE?AU?$_Rb_tree_iterator@U?$pair@$$CBGUGUILD_SPRITES@MGuildMarkManager@@@_STL@@U?$_Nonconst_traits@U?$pair@$$CBGUGUILD_SPRITES@MGuildMarkManager@@@_STL@@@2@@2@PAU_Rb_tree_node_base@2@0ABU?$pair@$$CBGUGUILD_SPRITES@MGuildMarkManager@@@2@0@Z
_TEXT	SEGMENT PARA USE32 PUBLIC 'CODE'
_TEXT	ENDS
;	COMDAT ?insert_unique@?$_Rb_tree@GU?$pair@$$CBGUGUILD_SPRITES@MGuildMarkManager@@@_STL@@U?$_Select1st@U?$pair@$$CBGUGUILD_SPRITES@MGuildMarkManager@@@_STL@@@2@U?$less@G@2@V?$allocator@U?$pair@$$CBGUGUILD_SPRITES@MGuildMarkManager@@@_STL@@@2@@_STL@@QAE?AU?$pair@U?$_Rb_tree_iterator@U?$pair@$$CBGUGUILD_SPRITES@MGuildMarkManager@@@_STL@@U?$_Nonconst_traits@U?$pair@$$CBGUGUILD_SPRITES@MGuildMarkManager@@@_STL@@@2@@_STL@@_N@2@ABU?$pair@$$CBGUGUILD_SPRITES@MGuildMarkManager@@@2@@Z
_TEXT	SEGMENT PARA USE32 PUBLIC 'CODE'
_TEXT	ENDS
;	COMDAT ??$_Destroy@U?$pair@$$CBGUGUILD_SPRITES@MGuildMarkManager@@@_STL@@@_STL@@YAXPAU?$pair@$$CBGUGUILD_SPRITES@MGuildMarkManager@@@0@@Z
_TEXT	SEGMENT PARA USE32 PUBLIC 'CODE'
_TEXT	ENDS
;	COMDAT ?LogTwoMultiplier@?$CTypePack2@VCSprite@@VCSprite555@@VCSprite565@@@@KAHH@Z
_TEXT	SEGMENT PARA USE32 PUBLIC 'CODE'
_TEXT	ENDS
;	COMDAT ?GetSplitFile@?$CTypePack2@VCSprite@@VCSprite555@@VCSprite565@@@@IAEHHPAD@Z
_TEXT	SEGMENT PARA USE32 PUBLIC 'CODE'
_TEXT	ENDS
;	COMDAT ??0?$basic_ostream@DV?$char_traits@D@_STL@@@_STL@@QAE@PAV?$basic_streambuf@DV?$char_traits@D@_STL@@@1@@Z
_TEXT	SEGMENT PARA USE32 PUBLIC 'CODE'
_TEXT	ENDS
;	COMDAT ?write@?$basic_ostream@DV?$char_traits@D@_STL@@@_STL@@QAEAAV12@PBDH@Z
_TEXT	SEGMENT PARA USE32 PUBLIC 'CODE'
_TEXT	ENDS
;	COMDAT ??$?HDV?$char_traits@D@_STL@@V?$allocator@D@1@@_STL@@YA?AV?$basic_string@DV?$char_traits@D@_STL@@V?$allocator@D@2@@0@ABV10@PBD@Z
_TEXT	SEGMENT PARA USE32 PUBLIC 'CODE'
_TEXT	ENDS
;	COMDAT ??1?$COrderedList@G@@QAE@XZ
_TEXT	SEGMENT PARA USE32 PUBLIC 'CODE'
_TEXT	ENDS
;	COMDAT ?_M_insert@?$_Rb_tree@GU?$pair@$$CBGV?$basic_string@DV?$char_traits@D@_STL@@V?$allocator@D@2@@_STL@@@_STL@@U?$_Select1st@U?$pair@$$CBGV?$basic_string@DV?$char_traits@D@_STL@@V?$allocator@D@2@@_STL@@@_STL@@@2@U?$less@G@2@V?$allocator@U?$pair@$$CBGV?$basic_string@DV?$char_traits@D@_STL@@V?$allocator@D@2@@_STL@@@_STL@@@2@@_STL@@AAE?AU?$_Rb_tree_iterator@U?$pair@$$CBGV?$basic_string@DV?$char_traits@D@_STL@@V?$allocator@D@2@@_STL@@@_STL@@U?$_Nonconst_traits@U?$pair@$$CBGV?$basic_string@DV?$char_traits@D@_STL@@V?$allocator@D@2@@_STL@@@_STL@@@2@@2@PAU_Rb_tree_node_base@2@0ABU?$pair@$$CBGV?$basic_string@DV?$char_traits@D@_STL@@V?$allocator@D@2@@_STL@@@2@0@Z
_TEXT	SEGMENT PARA USE32 PUBLIC 'CODE'
_TEXT	ENDS
;	COMDAT ?insert_unique@?$_Rb_tree@GU?$pair@$$CBGV?$basic_string@DV?$char_traits@D@_STL@@V?$allocator@D@2@@_STL@@@_STL@@U?$_Select1st@U?$pair@$$CBGV?$basic_string@DV?$char_traits@D@_STL@@V?$allocator@D@2@@_STL@@@_STL@@@2@U?$less@G@2@V?$allocator@U?$pair@$$CBGV?$basic_string@DV?$char_traits@D@_STL@@V?$allocator@D@2@@_STL@@@_STL@@@2@@_STL@@QAE?AU?$pair@U?$_Rb_tree_iterator@U?$pair@$$CBGV?$basic_string@DV?$char_traits@D@_STL@@V?$allocator@D@2@@_STL@@@_STL@@U?$_Nonconst_traits@U?$pair@$$CBGV?$basic_string@DV?$char_traits@D@_STL@@V?$allocator@D@2@@_STL@@@_STL@@@2@@_STL@@_N@2@ABU?$pair@$$CBGV?$basic_string@DV?$char_traits@D@_STL@@V?$allocator@D@2@@_STL@@@2@@Z
_TEXT	SEGMENT PARA USE32 PUBLIC 'CODE'
_TEXT	ENDS
;	COMDAT ??$_Destroy@U?$pair@$$CBGV?$basic_string@DV?$char_traits@D@_STL@@V?$allocator@D@2@@_STL@@@_STL@@@_STL@@YAXPAU?$pair@$$CBGV?$basic_string@DV?$char_traits@D@_STL@@V?$allocator@D@2@@_STL@@@0@@Z
_TEXT	SEGMENT PARA USE32 PUBLIC 'CODE'
_TEXT	ENDS
;	COMDAT ?Release@?$CTypeTable@VAppendPatch@@@@QAEXXZ
_TEXT	SEGMENT PARA USE32 PUBLIC 'CODE'
_TEXT	ENDS
;	COMDAT ??$_M_find@G@?$_Rb_tree@GU?$pair@$$CBGUGUILD_SPRITES@MGuildMarkManager@@@_STL@@U?$_Select1st@U?$pair@$$CBGUGUILD_SPRITES@MGuildMarkManager@@@_STL@@@2@U?$less@G@2@V?$allocator@U?$pair@$$CBGUGUILD_SPRITES@MGuildMarkManager@@@_STL@@@2@@_STL@@ABEPAU?$_Rb_tree_node@U?$pair@$$CBGUGUILD_SPRITES@MGuildMarkManager@@@_STL@@@1@ABG@Z
_TEXT	SEGMENT PARA USE32 PUBLIC 'CODE'
_TEXT	ENDS
;	COMDAT ??$_M_find@G@?$_Rb_tree@GU?$pair@$$CBGPAVGUILD_INFO@@@_STL@@U?$_Select1st@U?$pair@$$CBGPAVGUILD_INFO@@@_STL@@@2@U?$less@G@2@V?$allocator@U?$pair@$$CBGPAVGUILD_INFO@@@_STL@@@2@@_STL@@ABEPAU?$_Rb_tree_node@U?$pair@$$CBGPAVGUILD_INFO@@@_STL@@@1@ABG@Z
_TEXT	SEGMENT PARA USE32 PUBLIC 'CODE'
_TEXT	ENDS
;	COMDAT ??$_M_find@G@?$_Rb_tree@GU?$pair@$$CBGV?$basic_string@DV?$char_traits@D@_STL@@V?$allocator@D@2@@_STL@@@_STL@@U?$_Select1st@U?$pair@$$CBGV?$basic_string@DV?$char_traits@D@_STL@@V?$allocator@D@2@@_STL@@@_STL@@@2@U?$less@G@2@V?$allocator@U?$pair@$$CBGV?$basic_string@DV?$char_traits@D@_STL@@V?$allocator@D@2@@_STL@@@_STL@@@2@@_STL@@ABEPAU?$_Rb_tree_node@U?$pair@$$CBGV?$basic_string@DV?$char_traits@D@_STL@@V?$allocator@D@2@@_STL@@@_STL@@@1@ABG@Z
_TEXT	SEGMENT PARA USE32 PUBLIC 'CODE'
_TEXT	ENDS
;	COMDAT ??$__copy_aux@PBQAVAPPEND_PATCH_NODE@@PAPAV1@@_STL@@YAPAPAVAPPEND_PATCH_NODE@@PBQAV1@0PAPAV1@ABU__true_type@0@@Z
_TEXT	SEGMENT PARA USE32 PUBLIC 'CODE'
_TEXT	ENDS
;	COMDAT ??$__destroy@PAPAVAPPEND_PATCH_NODE@@PAV1@@_STL@@YAXPAPAVAPPEND_PATCH_NODE@@00@Z
_TEXT	SEGMENT PARA USE32 PUBLIC 'CODE'
_TEXT	ENDS
;	COMDAT ??$_M_append_dispatch@PBD@?$basic_string@DV?$char_traits@D@_STL@@V?$allocator@D@2@@_STL@@AAEAAV01@PBD0ABU__false_type@1@@Z
_TEXT	SEGMENT PARA USE32 PUBLIC 'CODE'
_TEXT	ENDS
;	COMDAT ?_M_erase@?$_Rb_tree@GU?$pair@$$CBGPAVivfstream@@@_STL@@U?$_Select1st@U?$pair@$$CBGPAVivfstream@@@_STL@@@2@U?$less@G@2@V?$allocator@U?$pair@$$CBGPAVivfstream@@@_STL@@@2@@_STL@@AAEXPAU?$_Rb_tree_node@U?$pair@$$CBGPAVivfstream@@@_STL@@@2@@Z
_TEXT	SEGMENT PARA USE32 PUBLIC 'CODE'
_TEXT	ENDS
;	COMDAT ?insert_unique@?$_Rb_tree@GU?$pair@$$CBGPAVivfstream@@@_STL@@U?$_Select1st@U?$pair@$$CBGPAVivfstream@@@_STL@@@2@U?$less@G@2@V?$allocator@U?$pair@$$CBGPAVivfstream@@@_STL@@@2@@_STL@@QAE?AU?$pair@U?$_Rb_tree_iterator@U?$pair@$$CBGPAVivfstream@@@_STL@@U?$_Nonconst_traits@U?$pair@$$CBGPAVivfstream@@@_STL@@@2@@_STL@@_N@2@ABU?$pair@$$CBGPAVivfstream@@@2@@Z
_TEXT	SEGMENT PARA USE32 PUBLIC 'CODE'
_TEXT	ENDS
;	COMDAT ??0?$basic_ios@DV?$char_traits@D@_STL@@@_STL@@IAE@XZ
_TEXT	SEGMENT PARA USE32 PUBLIC 'CODE'
_TEXT	ENDS
;	COMDAT ?init@?$basic_ios@DV?$char_traits@D@_STL@@@_STL@@IAEXPAV?$basic_streambuf@DV?$char_traits@D@_STL@@@2@@Z
_TEXT	SEGMENT PARA USE32 PUBLIC 'CODE'
_TEXT	ENDS
;	COMDAT ??$find@G@?$_Rb_tree@GU?$pair@$$CBGPAVivfstream@@@_STL@@U?$_Select1st@U?$pair@$$CBGPAVivfstream@@@_STL@@@2@U?$less@G@2@V?$allocator@U?$pair@$$CBGPAVivfstream@@@_STL@@@2@@_STL@@QAE?AU?$_Rb_tree_iterator@U?$pair@$$CBGPAVivfstream@@@_STL@@U?$_Nonconst_traits@U?$pair@$$CBGPAVivfstream@@@_STL@@@2@@1@ABG@Z
_TEXT	SEGMENT PARA USE32 PUBLIC 'CODE'
_TEXT	ENDS
;	COMDAT ??$_Destroy@PAK@_STL@@YAXPAK0@Z
_TEXT	SEGMENT PARA USE32 PUBLIC 'CODE'
_TEXT	ENDS
;	COMDAT ??$_Construct@KK@_STL@@YAXPAKABK@Z
_TEXT	SEGMENT PARA USE32 PUBLIC 'CODE'
_TEXT	ENDS
;	COMDAT ??$max@I@_STL@@YAABIABI0@Z
_TEXT	SEGMENT PARA USE32 PUBLIC 'CODE'
_TEXT	ENDS
;	COMDAT ??$distance@U?$_List_iterator@GU?$_Const_traits@G@_STL@@@_STL@@@_STL@@YAHABU?$_List_iterator@GU?$_Const_traits@G@_STL@@@0@0@Z
_TEXT	SEGMENT PARA USE32 PUBLIC 'CODE'
_TEXT	ENDS
;	COMDAT ??$_Destroy@U?$pair@$$CBGPAVivfstream@@@_STL@@@_STL@@YAXPAU?$pair@$$CBGPAVivfstream@@@0@@Z
_TEXT	SEGMENT PARA USE32 PUBLIC 'CODE'
_TEXT	ENDS
;	COMDAT ??$fill_n@PAKIK@_STL@@YAPAKPAKIABK@Z
_TEXT	SEGMENT PARA USE32 PUBLIC 'CODE'
_TEXT	ENDS
;	COMDAT ??$?0U?$pair@$$CBGPAVivfstream@@@_STL@@@?$allocator@U?$_Rb_tree_node@U?$pair@$$CBGPAVivfstream@@@_STL@@@_STL@@@_STL@@QAE@ABV?$allocator@U?$pair@$$CBGPAVivfstream@@@_STL@@@1@@Z
_TEXT	SEGMENT PARA USE32 PUBLIC 'CODE'
_TEXT	ENDS
;	COMDAT ??_G?$pair@$$CBGV?$basic_string@DV?$char_traits@D@_STL@@V?$allocator@D@2@@_STL@@@_STL@@QAEPAXI@Z
_TEXT	SEGMENT PARA USE32 PUBLIC 'CODE'
_TEXT	ENDS
;	COMDAT ??_EAppendPatch@@QAEPAXI@Z
_TEXT	SEGMENT PARA USE32 PUBLIC 'CODE'
_TEXT	ENDS
;	COMDAT ??0?$basic_string@DV?$char_traits@D@_STL@@V?$allocator@D@2@@_STL@@QAE@U_String_reserve_t@1@IABV?$allocator@D@1@@Z
_TEXT	SEGMENT PARA USE32 PUBLIC 'CODE'
_TEXT	ENDS
;	COMDAT ?max_size@?$basic_string@DV?$char_traits@D@_STL@@V?$allocator@D@2@@_STL@@QBEIXZ
_TEXT	SEGMENT PARA USE32 PUBLIC 'CODE'
_TEXT	ENDS
;	COMDAT ?capacity@?$basic_string@DV?$char_traits@D@_STL@@V?$allocator@D@2@@_STL@@QBEIXZ
_TEXT	SEGMENT PARA USE32 PUBLIC 'CODE'
_TEXT	ENDS
;	COMDAT ?append@?$basic_string@DV?$char_traits@D@_STL@@V?$allocator@D@2@@_STL@@QAEAAV12@ABV12@@Z
_TEXT	SEGMENT PARA USE32 PUBLIC 'CODE'
_TEXT	ENDS
;	COMDAT ?tie@?$basic_ios@DV?$char_traits@D@_STL@@@_STL@@QAEPAV?$basic_ostream@DV?$char_traits@D@_STL@@@2@PAV32@@Z
_TEXT	SEGMENT PARA USE32 PUBLIC 'CODE'
_TEXT	ENDS
;	COMDAT ?fill@?$basic_ios@DV?$char_traits@D@_STL@@@_STL@@QAEDD@Z
_TEXT	SEGMENT PARA USE32 PUBLIC 'CODE'
_TEXT	ENDS
;	COMDAT ??1?$list@GV?$allocator@G@_STL@@@_STL@@QAE@XZ
_TEXT	SEGMENT PARA USE32 PUBLIC 'CODE'
_TEXT	ENDS
;	COMDAT ?_S_left@?$_Rb_tree@GU?$pair@$$CBGPAVivfstream@@@_STL@@U?$_Select1st@U?$pair@$$CBGPAVivfstream@@@_STL@@@2@U?$less@G@2@V?$allocator@U?$pair@$$CBGPAVivfstream@@@_STL@@@2@@_STL@@KAAAPAU?$_Rb_tree_node@U?$pair@$$CBGPAVivfstream@@@_STL@@@2@PAU32@@Z
_TEXT	SEGMENT PARA USE32 PUBLIC 'CODE'
_TEXT	ENDS
;	COMDAT ?_S_right@?$_Rb_tree@GU?$pair@$$CBGPAVivfstream@@@_STL@@U?$_Select1st@U?$pair@$$CBGPAVivfstream@@@_STL@@@2@U?$less@G@2@V?$allocator@U?$pair@$$CBGPAVivfstream@@@_STL@@@2@@_STL@@KAAAPAU?$_Rb_tree_node@U?$pair@$$CBGPAVivfstream@@@_STL@@@2@PAU32@@Z
_TEXT	SEGMENT PARA USE32 PUBLIC 'CODE'
_TEXT	ENDS
;	COMDAT ?_S_key@?$_Rb_tree@GU?$pair@$$CBGPAVivfstream@@@_STL@@U?$_Select1st@U?$pair@$$CBGPAVivfstream@@@_STL@@@2@U?$less@G@2@V?$allocator@U?$pair@$$CBGPAVivfstream@@@_STL@@@2@@_STL@@KAABGPAU?$_Rb_tree_node@U?$pair@$$CBGPAVivfstream@@@_STL@@@2@@Z
_TEXT	SEGMENT PARA USE32 PUBLIC 'CODE'
_TEXT	ENDS
;	COMDAT ?_S_key@?$_Rb_tree@GU?$pair@$$CBGPAVivfstream@@@_STL@@U?$_Select1st@U?$pair@$$CBGPAVivfstream@@@_STL@@@2@U?$less@G@2@V?$allocator@U?$pair@$$CBGPAVivfstream@@@_STL@@@2@@_STL@@KAABGPAU_Rb_tree_node_base@2@@Z
_TEXT	SEGMENT PARA USE32 PUBLIC 'CODE'
_TEXT	ENDS
;	COMDAT ?_M_create_node@?$_Rb_tree@GU?$pair@$$CBGUGUILD_SPRITES@MGuildMarkManager@@@_STL@@U?$_Select1st@U?$pair@$$CBGUGUILD_SPRITES@MGuildMarkManager@@@_STL@@@2@U?$less@G@2@V?$allocator@U?$pair@$$CBGUGUILD_SPRITES@MGuildMarkManager@@@_STL@@@2@@_STL@@IAEPAU?$_Rb_tree_node@U?$pair@$$CBGUGUILD_SPRITES@MGuildMarkManager@@@_STL@@@2@ABU?$pair@$$CBGUGUILD_SPRITES@MGuildMarkManager@@@2@@Z
_TEXT	SEGMENT PARA USE32 PUBLIC 'CODE'
_TEXT	ENDS
;	COMDAT ?_S_parent@?$_Rb_tree@GU?$pair@$$CBGUGUILD_SPRITES@MGuildMarkManager@@@_STL@@U?$_Select1st@U?$pair@$$CBGUGUILD_SPRITES@MGuildMarkManager@@@_STL@@@2@U?$less@G@2@V?$allocator@U?$pair@$$CBGUGUILD_SPRITES@MGuildMarkManager@@@_STL@@@2@@_STL@@KAAAPAU?$_Rb_tree_node@U?$pair@$$CBGUGUILD_SPRITES@MGuildMarkManager@@@_STL@@@2@PAU32@@Z
_TEXT	SEGMENT PARA USE32 PUBLIC 'CODE'
_TEXT	ENDS
;	COMDAT ?begin@?$_Rb_tree@GU?$pair@$$CBGUGUILD_SPRITES@MGuildMarkManager@@@_STL@@U?$_Select1st@U?$pair@$$CBGUGUILD_SPRITES@MGuildMarkManager@@@_STL@@@2@U?$less@G@2@V?$allocator@U?$pair@$$CBGUGUILD_SPRITES@MGuildMarkManager@@@_STL@@@2@@_STL@@QAE?AU?$_Rb_tree_iterator@U?$pair@$$CBGUGUILD_SPRITES@MGuildMarkManager@@@_STL@@U?$_Nonconst_traits@U?$pair@$$CBGUGUILD_SPRITES@MGuildMarkManager@@@_STL@@@2@@2@XZ
_TEXT	SEGMENT PARA USE32 PUBLIC 'CODE'
_TEXT	ENDS
;	COMDAT ?_M_root@?$_Rb_tree@GU?$pair@$$CBGPAVGUILD_INFO@@@_STL@@U?$_Select1st@U?$pair@$$CBGPAVGUILD_INFO@@@_STL@@@2@U?$less@G@2@V?$allocator@U?$pair@$$CBGPAVGUILD_INFO@@@_STL@@@2@@_STL@@IBEAAPAU?$_Rb_tree_node@U?$pair@$$CBGPAVGUILD_INFO@@@_STL@@@2@XZ
_TEXT	SEGMENT PARA USE32 PUBLIC 'CODE'
_TEXT	ENDS
;	COMDAT ?_S_left@?$_Rb_tree@GU?$pair@$$CBGPAVGUILD_INFO@@@_STL@@U?$_Select1st@U?$pair@$$CBGPAVGUILD_INFO@@@_STL@@@2@U?$less@G@2@V?$allocator@U?$pair@$$CBGPAVGUILD_INFO@@@_STL@@@2@@_STL@@KAAAPAU?$_Rb_tree_node@U?$pair@$$CBGPAVGUILD_INFO@@@_STL@@@2@PAU32@@Z
_TEXT	SEGMENT PARA USE32 PUBLIC 'CODE'
_TEXT	ENDS
;	COMDAT ?_S_right@?$_Rb_tree@GU?$pair@$$CBGPAVGUILD_INFO@@@_STL@@U?$_Select1st@U?$pair@$$CBGPAVGUILD_INFO@@@_STL@@@2@U?$less@G@2@V?$allocator@U?$pair@$$CBGPAVGUILD_INFO@@@_STL@@@2@@_STL@@KAAAPAU?$_Rb_tree_node@U?$pair@$$CBGPAVGUILD_INFO@@@_STL@@@2@PAU32@@Z
_TEXT	SEGMENT PARA USE32 PUBLIC 'CODE'
_TEXT	ENDS
;	COMDAT ?_S_key@?$_Rb_tree@GU?$pair@$$CBGPAVGUILD_INFO@@@_STL@@U?$_Select1st@U?$pair@$$CBGPAVGUILD_INFO@@@_STL@@@2@U?$less@G@2@V?$allocator@U?$pair@$$CBGPAVGUILD_INFO@@@_STL@@@2@@_STL@@KAABGPAU?$_Rb_tree_node@U?$pair@$$CBGPAVGUILD_INFO@@@_STL@@@2@@Z
_TEXT	SEGMENT PARA USE32 PUBLIC 'CODE'
_TEXT	ENDS
;	COMDAT ?_M_create_node@?$_Rb_tree@GU?$pair@$$CBGV?$basic_string@DV?$char_traits@D@_STL@@V?$allocator@D@2@@_STL@@@_STL@@U?$_Select1st@U?$pair@$$CBGV?$basic_string@DV?$char_traits@D@_STL@@V?$allocator@D@2@@_STL@@@_STL@@@2@U?$less@G@2@V?$allocator@U?$pair@$$CBGV?$basic_string@DV?$char_traits@D@_STL@@V?$allocator@D@2@@_STL@@@_STL@@@2@@_STL@@IAEPAU?$_Rb_tree_node@U?$pair@$$CBGV?$basic_string@DV?$char_traits@D@_STL@@V?$allocator@D@2@@_STL@@@_STL@@@2@ABU?$pair@$$CBGV?$basic_string@DV?$char_traits@D@_STL@@V?$allocator@D@2@@_STL@@@2@@Z
_TEXT	SEGMENT PARA USE32 PUBLIC 'CODE'
_TEXT	ENDS
;	COMDAT ?_S_parent@?$_Rb_tree@GU?$pair@$$CBGV?$basic_string@DV?$char_traits@D@_STL@@V?$allocator@D@2@@_STL@@@_STL@@U?$_Select1st@U?$pair@$$CBGV?$basic_string@DV?$char_traits@D@_STL@@V?$allocator@D@2@@_STL@@@_STL@@@2@U?$less@G@2@V?$allocator@U?$pair@$$CBGV?$basic_string@DV?$char_traits@D@_STL@@V?$allocator@D@2@@_STL@@@_STL@@@2@@_STL@@KAAAPAU?$_Rb_tree_node@U?$pair@$$CBGV?$basic_string@DV?$char_traits@D@_STL@@V?$allocator@D@2@@_STL@@@_STL@@@2@PAU32@@Z
_TEXT	SEGMENT PARA USE32 PUBLIC 'CODE'
_TEXT	ENDS
;	COMDAT ?begin@?$_Rb_tree@GU?$pair@$$CBGV?$basic_string@DV?$char_traits@D@_STL@@V?$allocator@D@2@@_STL@@@_STL@@U?$_Select1st@U?$pair@$$CBGV?$basic_string@DV?$char_traits@D@_STL@@V?$allocator@D@2@@_STL@@@_STL@@@2@U?$less@G@2@V?$allocator@U?$pair@$$CBGV?$basic_string@DV?$char_traits@D@_STL@@V?$allocator@D@2@@_STL@@@_STL@@@2@@_STL@@QAE?AU?$_Rb_tree_iterator@U?$pair@$$CBGV?$basic_string@DV?$char_traits@D@_STL@@V?$allocator@D@2@@_STL@@@_STL@@U?$_Nonconst_traits@U?$pair@$$CBGV?$basic_string@DV?$char_traits@D@_STL@@V?$allocator@D@2@@_STL@@@_STL@@@2@@2@XZ
_TEXT	SEGMENT PARA USE32 PUBLIC 'CODE'
_TEXT	ENDS
;	COMDAT ??0?$pair@U?$_Rb_tree_iterator@U?$pair@$$CBGUGUILD_SPRITES@MGuildMarkManager@@@_STL@@U?$_Nonconst_traits@U?$pair@$$CBGUGUILD_SPRITES@MGuildMarkManager@@@_STL@@@2@@_STL@@_N@_STL@@QAE@ABU?$_Rb_tree_iterator@U?$pair@$$CBGUGUILD_SPRITES@MGuildMarkManager@@@_STL@@U?$_Nonconst_traits@U?$pair@$$CBGUGUILD_SPRITES@MGuildMarkManager@@@_STL@@@2@@1@AB_N@Z
_TEXT	SEGMENT PARA USE32 PUBLIC 'CODE'
_TEXT	ENDS
;	COMDAT ??F?$_Rb_tree_iterator@U?$pair@$$CBGPAVivfstream@@@_STL@@U?$_Nonconst_traits@U?$pair@$$CBGPAVivfstream@@@_STL@@@2@@_STL@@QAEAAU01@XZ
_TEXT	SEGMENT PARA USE32 PUBLIC 'CODE'
_TEXT	ENDS
;	COMDAT ??0?$pair@U?$_Rb_tree_iterator@U?$pair@$$CBGPAVivfstream@@@_STL@@U?$_Nonconst_traits@U?$pair@$$CBGPAVivfstream@@@_STL@@@2@@_STL@@_N@_STL@@QAE@ABU?$_Rb_tree_iterator@U?$pair@$$CBGPAVivfstream@@@_STL@@U?$_Nonconst_traits@U?$pair@$$CBGPAVivfstream@@@_STL@@@2@@1@AB_N@Z
_TEXT	SEGMENT PARA USE32 PUBLIC 'CODE'
_TEXT	ENDS
;	COMDAT ??0?$pair@U?$_Rb_tree_iterator@U?$pair@$$CBGV?$basic_string@DV?$char_traits@D@_STL@@V?$allocator@D@2@@_STL@@@_STL@@U?$_Nonconst_traits@U?$pair@$$CBGV?$basic_string@DV?$char_traits@D@_STL@@V?$allocator@D@2@@_STL@@@_STL@@@2@@_STL@@_N@_STL@@QAE@ABU?$_Rb_tree_iterator@U?$pair@$$CBGV?$basic_string@DV?$char_traits@D@_STL@@V?$allocator@D@2@@_STL@@@_STL@@U?$_Nonconst_traits@U?$pair@$$CBGV?$basic_string@DV?$char_traits@D@_STL@@V?$allocator@D@2@@_STL@@@_STL@@@2@@1@AB_N@Z
_TEXT	SEGMENT PARA USE32 PUBLIC 'CODE'
_TEXT	ENDS
;	COMDAT ??0sentry@?$basic_ostream@DV?$char_traits@D@_STL@@@_STL@@QAE@AAV12@@Z
_TEXT	SEGMENT PARA USE32 PUBLIC 'CODE'
_TEXT	ENDS
;	COMDAT ??1sentry@?$basic_ostream@DV?$char_traits@D@_STL@@@_STL@@QAE@XZ
_TEXT	SEGMENT PARA USE32 PUBLIC 'CODE'
_TEXT	ENDS
;	COMDAT ??Bsentry@?$basic_ostream@DV?$char_traits@D@_STL@@@_STL@@QBE_NXZ
_TEXT	SEGMENT PARA USE32 PUBLIC 'CODE'
_TEXT	ENDS
;	COMDAT ?_Ret@?$_OKToMemCpy@PAVAPPEND_PATCH_NODE@@PAV1@@_STL@@SA?AU__true_type@2@XZ
_TEXT	SEGMENT PARA USE32 PUBLIC 'CODE'
_TEXT	ENDS
;	COMDAT ??R?$_Select1st@U?$pair@$$CBGPAVivfstream@@@_STL@@@_STL@@QBEABGABU?$pair@$$CBGPAVivfstream@@@1@@Z
_TEXT	SEGMENT PARA USE32 PUBLIC 'CODE'
_TEXT	ENDS
;	COMDAT ?max_size@?$_String_base@DV?$allocator@D@_STL@@@_STL@@QBEIXZ
_TEXT	SEGMENT PARA USE32 PUBLIC 'CODE'
_TEXT	ENDS
;	COMDAT ??0?$_String_base@DV?$allocator@D@_STL@@@_STL@@QAE@ABV?$allocator@D@1@I@Z
_TEXT	SEGMENT PARA USE32 PUBLIC 'CODE'
_TEXT	ENDS
;	COMDAT ?flush@?$basic_ostream@DV?$char_traits@D@_STL@@@_STL@@QAEAAV12@XZ
_TEXT	SEGMENT PARA USE32 PUBLIC 'CODE'
_TEXT	ENDS
;	COMDAT ??1?$_List_base@GV?$allocator@G@_STL@@@_STL@@QAE@XZ
_TEXT	SEGMENT PARA USE32 PUBLIC 'CODE'
_TEXT	ENDS
;	COMDAT ?_S_value@?$_Rb_tree@GU?$pair@$$CBGPAVivfstream@@@_STL@@U?$_Select1st@U?$pair@$$CBGPAVivfstream@@@_STL@@@2@U?$less@G@2@V?$allocator@U?$pair@$$CBGPAVivfstream@@@_STL@@@2@@_STL@@KAAAU?$pair@$$CBGPAVivfstream@@@2@PAU?$_Rb_tree_node@U?$pair@$$CBGPAVivfstream@@@_STL@@@2@@Z
_TEXT	SEGMENT PARA USE32 PUBLIC 'CODE'
_TEXT	ENDS
;	COMDAT ?_S_value@?$_Rb_tree@GU?$pair@$$CBGPAVGUILD_INFO@@@_STL@@U?$_Select1st@U?$pair@$$CBGPAVGUILD_INFO@@@_STL@@@2@U?$less@G@2@V?$allocator@U?$pair@$$CBGPAVGUILD_INFO@@@_STL@@@2@@_STL@@KAAAU?$pair@$$CBGPAVGUILD_INFO@@@2@PAU?$_Rb_tree_node@U?$pair@$$CBGPAVGUILD_INFO@@@_STL@@@2@@Z
_TEXT	SEGMENT PARA USE32 PUBLIC 'CODE'
_TEXT	ENDS
;	COMDAT ?allocate@?$allocator@U?$_Rb_tree_node@U?$pair@$$CBGV?$basic_string@DV?$char_traits@D@_STL@@V?$allocator@D@2@@_STL@@@_STL@@@_STL@@@_STL@@QAEPAU?$_Rb_tree_node@U?$pair@$$CBGV?$basic_string@DV?$char_traits@D@_STL@@V?$allocator@D@2@@_STL@@@_STL@@@2@IPBX@Z
_TEXT	SEGMENT PARA USE32 PUBLIC 'CODE'
_TEXT	ENDS
;	COMDAT ??R?$_Select1st@U?$pair@$$CBGPAVGUILD_INFO@@@_STL@@@_STL@@QBEABGABU?$pair@$$CBGPAVGUILD_INFO@@@1@@Z
_TEXT	SEGMENT PARA USE32 PUBLIC 'CODE'
_TEXT	ENDS
;	COMDAT ??1?$_STLP_alloc_proxy@PAU?$_List_node@G@_STL@@U12@V?$allocator@U?$_List_node@G@_STL@@@2@@_STL@@QAE@XZ
_TEXT	SEGMENT PARA USE32 PUBLIC 'CODE'
_TEXT	ENDS
;	COMDAT ??1?$allocator@U?$_List_node@G@_STL@@@_STL@@QAE@XZ
_TEXT	SEGMENT PARA USE32 PUBLIC 'CODE'
_TEXT	ENDS
;	COMDAT ?deallocate@?$allocator@U?$_List_node@G@_STL@@@_STL@@QAEXPAU?$_List_node@G@2@I@Z
_TEXT	SEGMENT PARA USE32 PUBLIC 'CODE'
_TEXT	ENDS
;	COMDAT ?_M_allocate_block@?$_String_base@DV?$allocator@D@_STL@@@_STL@@QAEXI@Z
_TEXT	SEGMENT PARA USE32 PUBLIC 'CODE'
_TEXT	ENDS
;	COMDAT ?_M_throw_length_error@?$_String_base@DV?$allocator@D@_STL@@@_STL@@QBEXXZ
_TEXT	SEGMENT PARA USE32 PUBLIC 'CODE'
_TEXT	ENDS
;	COMDAT ??$uninitialized_copy@PADPAD@_STL@@YAPADPAD00@Z
_TEXT	SEGMENT PARA USE32 PUBLIC 'CODE'
_TEXT	ENDS
;	COMDAT ??$distance@PBD@_STL@@YAHABQBD0@Z
_TEXT	SEGMENT PARA USE32 PUBLIC 'CODE'
_TEXT	ENDS
;	COMDAT ??$distance@PAD@_STL@@YAHABQAD0@Z
_TEXT	SEGMENT PARA USE32 PUBLIC 'CODE'
_TEXT	ENDS
;	COMDAT ??$_M_append_dispatch@PAD@?$basic_string@DV?$char_traits@D@_STL@@V?$allocator@D@2@@_STL@@AAEAAV01@PAD0ABU__false_type@1@@Z
_TEXT	SEGMENT PARA USE32 PUBLIC 'CODE'
_TEXT	ENDS
;	COMDAT ?rdbuf@?$basic_ios@DV?$char_traits@D@_STL@@@_STL@@QAEPAV?$basic_streambuf@DV?$char_traits@D@_STL@@@2@PAV32@@Z
_TEXT	SEGMENT PARA USE32 PUBLIC 'CODE'
_TEXT	ENDS
;	COMDAT ?imbue@?$basic_ios@DV?$char_traits@D@_STL@@@_STL@@QAE?AVlocale@2@ABV32@@Z
_TEXT	SEGMENT PARA USE32 PUBLIC 'CODE'
_TEXT	ENDS
;	COMDAT ?widen@?$basic_ios@DV?$char_traits@D@_STL@@@_STL@@QBEDD@Z
_TEXT	SEGMENT PARA USE32 PUBLIC 'CODE'
_TEXT	ENDS
;	COMDAT ?_M_handle_exception@?$basic_ios@DV?$char_traits@D@_STL@@@_STL@@QAEXH@Z
_TEXT	SEGMENT PARA USE32 PUBLIC 'CODE'
_TEXT	ENDS
;	COMDAT ?Release@?$COrderedList@G@@QAEXXZ
_TEXT	SEGMENT PARA USE32 PUBLIC 'CODE'
_TEXT	ENDS
;	COMDAT ??$_IsOKToMemCpy@PAVAPPEND_PATCH_NODE@@PAV1@@_STL@@YA?AU?$_OKToMemCpy@PAVAPPEND_PATCH_NODE@@PAV1@@0@PAPAVAPPEND_PATCH_NODE@@0@Z
_TEXT	SEGMENT PARA USE32 PUBLIC 'CODE'
_TEXT	ENDS
;	COMDAT ??$__copy_ptrs@PBQAVAPPEND_PATCH_NODE@@PAPAV1@@_STL@@YAPAPAVAPPEND_PATCH_NODE@@PBQAV1@0PAPAV1@ABU__true_type@0@@Z
_TEXT	SEGMENT PARA USE32 PUBLIC 'CODE'
_TEXT	ENDS
;	COMDAT ??$__destroy_aux@PAPAVAPPEND_PATCH_NODE@@@_STL@@YAXPAPAVAPPEND_PATCH_NODE@@0ABU__true_type@0@@Z
_TEXT	SEGMENT PARA USE32 PUBLIC 'CODE'
_TEXT	ENDS
;	COMDAT ??$append@PBD@?$basic_string@DV?$char_traits@D@_STL@@V?$allocator@D@2@@_STL@@AAEAAV01@PBD0ABUforward_iterator_tag@1@@Z
_TEXT	SEGMENT PARA USE32 PUBLIC 'CODE'
_TEXT	ENDS
;	COMDAT ?_M_insert@?$_Rb_tree@GU?$pair@$$CBGPAVivfstream@@@_STL@@U?$_Select1st@U?$pair@$$CBGPAVivfstream@@@_STL@@@2@U?$less@G@2@V?$allocator@U?$pair@$$CBGPAVivfstream@@@_STL@@@2@@_STL@@AAE?AU?$_Rb_tree_iterator@U?$pair@$$CBGPAVivfstream@@@_STL@@U?$_Nonconst_traits@U?$pair@$$CBGPAVivfstream@@@_STL@@@2@@2@PAU_Rb_tree_node_base@2@0ABU?$pair@$$CBGPAVivfstream@@@2@0@Z
_TEXT	SEGMENT PARA USE32 PUBLIC 'CODE'
_TEXT	ENDS
;	COMDAT ??$_M_find@G@?$_Rb_tree@GU?$pair@$$CBGPAVivfstream@@@_STL@@U?$_Select1st@U?$pair@$$CBGPAVivfstream@@@_STL@@@2@U?$less@G@2@V?$allocator@U?$pair@$$CBGPAVivfstream@@@_STL@@@2@@_STL@@ABEPAU?$_Rb_tree_node@U?$pair@$$CBGPAVivfstream@@@_STL@@@1@ABG@Z
_TEXT	SEGMENT PARA USE32 PUBLIC 'CODE'
_TEXT	ENDS
;	COMDAT ??$__destroy@PAKK@_STL@@YAXPAK00@Z
_TEXT	SEGMENT PARA USE32 PUBLIC 'CODE'
_TEXT	ENDS
;	COMDAT ??$__distance@U?$_List_iterator@GU?$_Const_traits@G@_STL@@@_STL@@@_STL@@YAHABU?$_List_iterator@GU?$_Const_traits@G@_STL@@@0@0ABUinput_iterator_tag@0@@Z
_TEXT	SEGMENT PARA USE32 PUBLIC 'CODE'
_TEXT	ENDS
;	COMDAT ?clear@?$_List_base@GV?$allocator@G@_STL@@@_STL@@QAEXXZ
_TEXT	SEGMENT PARA USE32 PUBLIC 'CODE'
_TEXT	ENDS
;	COMDAT ??$_Construct@U?$pair@$$CBGUGUILD_SPRITES@MGuildMarkManager@@@_STL@@U12@@_STL@@YAXPAU?$pair@$$CBGUGUILD_SPRITES@MGuildMarkManager@@@0@ABU10@@Z
_TEXT	SEGMENT PARA USE32 PUBLIC 'CODE'
_TEXT	ENDS
;	COMDAT ??$_Construct@U?$pair@$$CBGV?$basic_string@DV?$char_traits@D@_STL@@V?$allocator@D@2@@_STL@@@_STL@@U12@@_STL@@YAXPAU?$pair@$$CBGV?$basic_string@DV?$char_traits@D@_STL@@V?$allocator@D@2@@_STL@@@0@ABU10@@Z
_TEXT	SEGMENT PARA USE32 PUBLIC 'CODE'
_TEXT	ENDS
;	COMDAT ??$_M_init@DV?$char_traits@D@_STL@@@_STL@@YA_NAAV?$basic_ostream@DV?$char_traits@D@_STL@@@0@@Z
_TEXT	SEGMENT PARA USE32 PUBLIC 'CODE'
_TEXT	ENDS
;	COMDAT ?tie@?$basic_ios@DV?$char_traits@D@_STL@@@_STL@@QBEPAV?$basic_ostream@DV?$char_traits@D@_STL@@@2@XZ
_TEXT	SEGMENT PARA USE32 PUBLIC 'CODE'
_TEXT	ENDS
;	COMDAT ?_M_create_node@?$_Rb_tree@GU?$pair@$$CBGPAVivfstream@@@_STL@@U?$_Select1st@U?$pair@$$CBGPAVivfstream@@@_STL@@@2@U?$less@G@2@V?$allocator@U?$pair@$$CBGPAVivfstream@@@_STL@@@2@@_STL@@IAEPAU?$_Rb_tree_node@U?$pair@$$CBGPAVivfstream@@@_STL@@@2@ABU?$pair@$$CBGPAVivfstream@@@2@@Z
_TEXT	SEGMENT PARA USE32 PUBLIC 'CODE'
_TEXT	ENDS
;	COMDAT ?_S_parent@?$_Rb_tree@GU?$pair@$$CBGPAVivfstream@@@_STL@@U?$_Select1st@U?$pair@$$CBGPAVivfstream@@@_STL@@@2@U?$less@G@2@V?$allocator@U?$pair@$$CBGPAVivfstream@@@_STL@@@2@@_STL@@KAAAPAU?$_Rb_tree_node@U?$pair@$$CBGPAVivfstream@@@_STL@@@2@PAU32@@Z
_TEXT	SEGMENT PARA USE32 PUBLIC 'CODE'
_TEXT	ENDS
;	COMDAT ??0?$pair@$$CBGUGUILD_SPRITES@MGuildMarkManager@@@_STL@@QAE@ABU01@@Z
_TEXT	SEGMENT PARA USE32 PUBLIC 'CODE'
_TEXT	ENDS
;	COMDAT ??0?$pair@$$CBGV?$basic_string@DV?$char_traits@D@_STL@@V?$allocator@D@2@@_STL@@@_STL@@QAE@ABU01@@Z
_TEXT	SEGMENT PARA USE32 PUBLIC 'CODE'
_TEXT	ENDS
;	COMDAT ??$__uninitialized_copy@PADPAD@_STL@@YAPADPAD00ABU__true_type@0@@Z
_TEXT	SEGMENT PARA USE32 PUBLIC 'CODE'
_TEXT	ENDS
;	COMDAT ??$__distance@PBD@_STL@@YAHABQBD0ABUrandom_access_iterator_tag@0@@Z
_TEXT	SEGMENT PARA USE32 PUBLIC 'CODE'
_TEXT	ENDS
;	COMDAT ??$__distance@PAD@_STL@@YAHABQAD0ABUrandom_access_iterator_tag@0@@Z
_TEXT	SEGMENT PARA USE32 PUBLIC 'CODE'
_TEXT	ENDS
;	COMDAT ??$append@PAD@?$basic_string@DV?$char_traits@D@_STL@@V?$allocator@D@2@@_STL@@AAEAAV01@PAD0ABUforward_iterator_tag@1@@Z
_TEXT	SEGMENT PARA USE32 PUBLIC 'CODE'
_TEXT	ENDS
;	COMDAT ??$__destroy_aux@PAK@_STL@@YAXPAK0ABU__true_type@0@@Z
_TEXT	SEGMENT PARA USE32 PUBLIC 'CODE'
_TEXT	ENDS
;	COMDAT ??$_Destroy@G@_STL@@YAXPAG@Z
_TEXT	SEGMENT PARA USE32 PUBLIC 'CODE'
_TEXT	ENDS
;	COMDAT ??$_Construct@U?$pair@$$CBGPAVivfstream@@@_STL@@U12@@_STL@@YAXPAU?$pair@$$CBGPAVivfstream@@@0@ABU10@@Z
_TEXT	SEGMENT PARA USE32 PUBLIC 'CODE'
_TEXT	ENDS
;	COMDAT ??0?$pair@$$CBGPAVivfstream@@@_STL@@QAE@ABU01@@Z
_TEXT	SEGMENT PARA USE32 PUBLIC 'CODE'
_TEXT	ENDS
;	COMDAT ?_Ret@?$_BothPtrType@PADPAD@_STL@@SA?AU__true_type@2@XZ
_TEXT	SEGMENT PARA USE32 PUBLIC 'CODE'
_TEXT	ENDS
;	COMDAT ??$__copy_aux@PADPAD@_STL@@YAPADPAD00ABU__true_type@0@@Z
_TEXT	SEGMENT PARA USE32 PUBLIC 'CODE'
_TEXT	ENDS
;	COMDAT ?_Ret@?$_OKToMemCpy@DD@_STL@@SA?AU__true_type@2@XZ
_TEXT	SEGMENT PARA USE32 PUBLIC 'CODE'
_TEXT	ENDS
;	COMDAT ??$_IsOKToMemCpy@DD@_STL@@YA?AU?$_OKToMemCpy@DD@0@PAD0@Z
_TEXT	SEGMENT PARA USE32 PUBLIC 'CODE'
_TEXT	ENDS
;	COMDAT ??$__copy_ptrs@PADPAD@_STL@@YAPADPAD00ABU__true_type@0@@Z
_TEXT	SEGMENT PARA USE32 PUBLIC 'CODE'
_TEXT	ENDS
;	COMDAT ??_R3IFileIO@@8
rdata$r	SEGMENT DWORD USE32 PUBLIC 'CONST'
rdata$r	ENDS
;	COMDAT ??_R3ivfstream@@8
rdata$r	SEGMENT DWORD USE32 PUBLIC 'CONST'
rdata$r	ENDS
;	COMDAT ??_R3CSprite565@@8
rdata$r	SEGMENT DWORD USE32 PUBLIC 'CONST'
rdata$r	ENDS
;	COMDAT ??_R3CSprite555@@8
rdata$r	SEGMENT DWORD USE32 PUBLIC 'CONST'
rdata$r	ENDS
;	COMDAT ??_R3iovfs_base@@8
rdata$r	SEGMENT DWORD USE32 PUBLIC 'CONST'
rdata$r	ENDS
;	COMDAT ??_R3?$basic_ofstream@DV?$char_traits@D@_STL@@@_STL@@8
rdata$r	SEGMENT DWORD USE32 PUBLIC 'CONST'
rdata$r	ENDS
;	COMDAT ??_R3ovfstream@@8
rdata$r	SEGMENT DWORD USE32 PUBLIC 'CONST'
rdata$r	ENDS
;	COMDAT ??_R3ITypePackBase@@8
rdata$r	SEGMENT DWORD USE32 PUBLIC 'CONST'
rdata$r	ENDS
;	COMDAT ??_R3?$CTypePack2@VCSprite@@VCSprite555@@VCSprite565@@@@8
rdata$r	SEGMENT DWORD USE32 PUBLIC 'CONST'
rdata$r	ENDS
;	COMDAT ??_R2IFileIO@@8
rdata$r	SEGMENT DWORD USE32 PUBLIC 'CONST'
rdata$r	ENDS
;	COMDAT ??_R2ivfstream@@8
rdata$r	SEGMENT DWORD USE32 PUBLIC 'CONST'
rdata$r	ENDS
;	COMDAT ??_R2CSprite565@@8
rdata$r	SEGMENT DWORD USE32 PUBLIC 'CONST'
rdata$r	ENDS
;	COMDAT ??_R2CSprite555@@8
rdata$r	SEGMENT DWORD USE32 PUBLIC 'CONST'
rdata$r	ENDS
;	COMDAT ??_R2iovfs_base@@8
rdata$r	SEGMENT DWORD USE32 PUBLIC 'CONST'
rdata$r	ENDS
;	COMDAT ??_R2?$basic_ofstream@DV?$char_traits@D@_STL@@@_STL@@8
rdata$r	SEGMENT DWORD USE32 PUBLIC 'CONST'
rdata$r	ENDS
;	COMDAT ??_R2ovfstream@@8
rdata$r	SEGMENT DWORD USE32 PUBLIC 'CONST'
rdata$r	ENDS
;	COMDAT ??_R2ITypePackBase@@8
rdata$r	SEGMENT DWORD USE32 PUBLIC 'CONST'
rdata$r	ENDS
;	COMDAT ??_R2?$CTypePack2@VCSprite@@VCSprite555@@VCSprite565@@@@8
rdata$r	SEGMENT DWORD USE32 PUBLIC 'CONST'
rdata$r	ENDS
;	COMDAT ??_R1A@?0A@A@IFileIO@@8
rdata$r	SEGMENT DWORD USE32 PUBLIC 'CONST'
rdata$r	ENDS
;	COMDAT ??_R1A@?0A@A@ivfstream@@8
rdata$r	SEGMENT DWORD USE32 PUBLIC 'CONST'
rdata$r	ENDS
;	COMDAT ??_R1A@?0A@A@CSprite565@@8
rdata$r	SEGMENT DWORD USE32 PUBLIC 'CONST'
rdata$r	ENDS
;	COMDAT ??_R1A@?0A@A@CSprite@@8
rdata$r	SEGMENT DWORD USE32 PUBLIC 'CONST'
rdata$r	ENDS
;	COMDAT ??_R1A@?0A@A@CSprite555@@8
rdata$r	SEGMENT DWORD USE32 PUBLIC 'CONST'
rdata$r	ENDS
;	COMDAT ??_R1A@A@3A@ios_base@_STL@@8
rdata$r	SEGMENT DWORD USE32 PUBLIC 'CONST'
rdata$r	ENDS
;	COMDAT ??_R0?AVios_base@_STL@@@8
_DATA	SEGMENT DWORD USE32 PUBLIC 'DATA'
_DATA	ENDS
;	COMDAT ??_R1A@A@3BA@?$basic_ios@DV?$char_traits@D@_STL@@@_STL@@8
rdata$r	SEGMENT DWORD USE32 PUBLIC 'CONST'
rdata$r	ENDS
;	COMDAT ??_R0?AV?$basic_ios@DV?$char_traits@D@_STL@@@_STL@@@8
_DATA	SEGMENT DWORD USE32 PUBLIC 'DATA'
_DATA	ENDS
;	COMDAT ??_R1A@?0A@A@?$basic_ostream@DV?$char_traits@D@_STL@@@_STL@@8
rdata$r	SEGMENT DWORD USE32 PUBLIC 'CONST'
rdata$r	ENDS
;	COMDAT ??_R0?AV?$basic_ostream@DV?$char_traits@D@_STL@@@_STL@@@8
_DATA	SEGMENT DWORD USE32 PUBLIC 'DATA'
_DATA	ENDS
;	COMDAT ??_R1A@?0A@A@?$basic_ofstream@DV?$char_traits@D@_STL@@@_STL@@8
rdata$r	SEGMENT DWORD USE32 PUBLIC 'CONST'
rdata$r	ENDS
;	COMDAT ??_R1A@?0A@A@iovfs_base@@8
rdata$r	SEGMENT DWORD USE32 PUBLIC 'CONST'
rdata$r	ENDS
;	COMDAT ??_R1A@?0A@A@ovfstream@@8
rdata$r	SEGMENT DWORD USE32 PUBLIC 'CONST'
rdata$r	ENDS
;	COMDAT ??_R1A@?0A@A@ITypePackBase@@8
rdata$r	SEGMENT DWORD USE32 PUBLIC 'CONST'
rdata$r	ENDS
;	COMDAT ??_R1A@?0A@A@?$CTypePack2@VCSprite@@VCSprite555@@VCSprite565@@@@8
rdata$r	SEGMENT DWORD USE32 PUBLIC 'CONST'
rdata$r	ENDS
;	COMDAT ??_R0?AVIFileIO@@@8
_DATA	SEGMENT DWORD USE32 PUBLIC 'DATA'
_DATA	ENDS
;	COMDAT ??_R0?AVivfstream@@@8
_DATA	SEGMENT DWORD USE32 PUBLIC 'DATA'
_DATA	ENDS
;	COMDAT ??_R0?AVCSprite565@@@8
_DATA	SEGMENT DWORD USE32 PUBLIC 'DATA'
_DATA	ENDS
;	COMDAT ??_R0?AVCSprite@@@8
_DATA	SEGMENT DWORD USE32 PUBLIC 'DATA'
_DATA	ENDS
;	COMDAT ??_R0?AVCSprite555@@@8
_DATA	SEGMENT DWORD USE32 PUBLIC 'DATA'
_DATA	ENDS
;	COMDAT ??_R0?AV?$basic_ofstream@DV?$char_traits@D@_STL@@@_STL@@@8
_DATA	SEGMENT DWORD USE32 PUBLIC 'DATA'
_DATA	ENDS
;	COMDAT ??_R0?AViovfs_base@@@8
_DATA	SEGMENT DWORD USE32 PUBLIC 'DATA'
_DATA	ENDS
;	COMDAT ??_R0?AVovfstream@@@8
_DATA	SEGMENT DWORD USE32 PUBLIC 'DATA'
_DATA	ENDS
;	COMDAT ??_R0?AVITypePackBase@@@8
_DATA	SEGMENT DWORD USE32 PUBLIC 'DATA'
_DATA	ENDS
;	COMDAT ??_R0?AV?$CTypePack2@VCSprite@@VCSprite555@@VCSprite565@@@@@8
_DATA	SEGMENT DWORD USE32 PUBLIC 'DATA'
_DATA	ENDS
;	COMDAT ??_R4IFileIO@@6B@
rdata$r	SEGMENT DWORD USE32 PUBLIC 'CONST'
rdata$r	ENDS
;	COMDAT ??_R4ivfstream@@6B@
rdata$r	SEGMENT DWORD USE32 PUBLIC 'CONST'
rdata$r	ENDS
;	COMDAT ??_R4CSprite565@@6B@
rdata$r	SEGMENT DWORD USE32 PUBLIC 'CONST'
rdata$r	ENDS
;	COMDAT ??_R4CSprite555@@6B@
rdata$r	SEGMENT DWORD USE32 PUBLIC 'CONST'
rdata$r	ENDS
;	COMDAT ??_R4iovfs_base@@6B@
rdata$r	SEGMENT DWORD USE32 PUBLIC 'CONST'
rdata$r	ENDS
;	COMDAT ??_R4?$basic_ofstream@DV?$char_traits@D@_STL@@@_STL@@6B@
rdata$r	SEGMENT DWORD USE32 PUBLIC 'CONST'
rdata$r	ENDS
;	COMDAT ??_R4ovfstream@@6B@
rdata$r	SEGMENT DWORD USE32 PUBLIC 'CONST'
rdata$r	ENDS
;	COMDAT ??_R4ITypePackBase@@6B@
rdata$r	SEGMENT DWORD USE32 PUBLIC 'CONST'
rdata$r	ENDS
;	COMDAT ??_R4?$CTypePack2@VCSprite@@VCSprite555@@VCSprite565@@@@6B@
rdata$r	SEGMENT DWORD USE32 PUBLIC 'CONST'
rdata$r	ENDS
;	COMDAT ?good@ios_base@_STL@@QBE_NXZ
_TEXT	SEGMENT PARA USE32 PUBLIC 'CODE'
_TEXT	ENDS
;	COMDAT ??3@YAXPAX0@Z
_TEXT	SEGMENT PARA USE32 PUBLIC 'CODE'
_TEXT	ENDS
;	COMDAT ??9_List_iterator_base@_STL@@QBE_NABU01@@Z
_TEXT	SEGMENT PARA USE32 PUBLIC 'CODE'
_TEXT	ENDS
;	COMDAT ?_M_get_exception_mask@ios_base@_STL@@IBEHXZ
_TEXT	SEGMENT PARA USE32 PUBLIC 'CODE'
_TEXT	ENDS
;	COMDAT ?_M_setstate_nothrow@ios_base@_STL@@IAEXH@Z
_TEXT	SEGMENT PARA USE32 PUBLIC 'CODE'
_TEXT	ENDS
;	COMDAT ?_M_ctype_facet@ios_base@_STL@@QBEPBVfacet@locale@2@XZ
_TEXT	SEGMENT PARA USE32 PUBLIC 'CODE'
_TEXT	ENDS
;	COMDAT ?widen@?$ctype@D@_STL@@QBEDD@Z
_TEXT	SEGMENT PARA USE32 PUBLIC 'CODE'
_TEXT	ENDS
;	COMDAT ?grouping@?$numpunct@D@_STL@@QBE?AV?$basic_string@DV?$char_traits@D@_STL@@V?$allocator@D@2@@2@XZ
_TEXT	SEGMENT PARA USE32 PUBLIC 'CODE'
_TEXT	ENDS
;	COMDAT ?pubsync@?$basic_streambuf@DV?$char_traits@D@_STL@@@_STL@@QAEHXZ
_TEXT	SEGMENT PARA USE32 PUBLIC 'CODE'
_TEXT	ENDS
;	COMDAT ?flags@ios_base@_STL@@QBEHXZ
_TEXT	SEGMENT PARA USE32 PUBLIC 'CODE'
_TEXT	ENDS
;	COMDAT ??1?$_String_base@DV?$allocator@D@_STL@@@_STL@@QAE@XZ
_TEXT	SEGMENT PARA USE32 PUBLIC 'CODE'
_TEXT	ENDS
;	COMDAT ??2@YAPAXIPAX@Z
_TEXT	SEGMENT PARA USE32 PUBLIC 'CODE'
_TEXT	ENDS
;	COMDAT ?precision@ios_base@_STL@@QAEHH@Z
_TEXT	SEGMENT PARA USE32 PUBLIC 'CODE'
_TEXT	ENDS
;	COMDAT ?width@ios_base@_STL@@QAEHH@Z
_TEXT	SEGMENT PARA USE32 PUBLIC 'CODE'
_TEXT	ENDS
;	COMDAT ?flags@ios_base@_STL@@QAEHH@Z
_TEXT	SEGMENT PARA USE32 PUBLIC 'CODE'
_TEXT	ENDS
;	COMDAT ?_M_set_exception_mask@ios_base@_STL@@IAEXH@Z
_TEXT	SEGMENT PARA USE32 PUBLIC 'CODE'
_TEXT	ENDS
;	COMDAT ??_7?$basic_ios@DV?$char_traits@D@_STL@@@_STL@@6B@
CONST	SEGMENT DWORD USE32 PUBLIC 'CONST'
CONST	ENDS
;	COMDAT ??_R4?$basic_ios@DV?$char_traits@D@_STL@@@_STL@@6B@
rdata$r	SEGMENT DWORD USE32 PUBLIC 'CONST'
rdata$r	ENDS
;	COMDAT ??_R3?$basic_ios@DV?$char_traits@D@_STL@@@_STL@@8
rdata$r	SEGMENT DWORD USE32 PUBLIC 'CONST'
rdata$r	ENDS
;	COMDAT ??_R2?$basic_ios@DV?$char_traits@D@_STL@@@_STL@@8
rdata$r	SEGMENT DWORD USE32 PUBLIC 'CONST'
rdata$r	ENDS
;	COMDAT ??_R1A@?0A@A@?$basic_ios@DV?$char_traits@D@_STL@@@_STL@@8
rdata$r	SEGMENT DWORD USE32 PUBLIC 'CONST'
rdata$r	ENDS
;	COMDAT ??_R1A@?0A@A@ios_base@_STL@@8
rdata$r	SEGMENT DWORD USE32 PUBLIC 'CONST'
rdata$r	ENDS
;	COMDAT ??_G?$basic_ios@DV?$char_traits@D@_STL@@@_STL@@UAEPAXI@Z
_TEXT	SEGMENT PARA USE32 PUBLIC 'CODE'
_TEXT	ENDS
;	COMDAT ?sputn@?$basic_streambuf@DV?$char_traits@D@_STL@@@_STL@@QAEHPBDH@Z
_TEXT	SEGMENT PARA USE32 PUBLIC 'CODE'
_TEXT	ENDS
;	COMDAT ??_7?$basic_ostream@DV?$char_traits@D@_STL@@@_STL@@6B@
CONST	SEGMENT DWORD USE32 PUBLIC 'CONST'
CONST	ENDS
;	COMDAT ??_R4?$basic_ostream@DV?$char_traits@D@_STL@@@_STL@@6B@
rdata$r	SEGMENT DWORD USE32 PUBLIC 'CONST'
rdata$r	ENDS
;	COMDAT ??_R3?$basic_ostream@DV?$char_traits@D@_STL@@@_STL@@8
rdata$r	SEGMENT DWORD USE32 PUBLIC 'CONST'
rdata$r	ENDS
;	COMDAT ??_R2?$basic_ostream@DV?$char_traits@D@_STL@@@_STL@@8
rdata$r	SEGMENT DWORD USE32 PUBLIC 'CONST'
rdata$r	ENDS
;	COMDAT ??_G?$basic_ostream@DV?$char_traits@D@_STL@@@_STL@@UAEPAXI@Z
_TEXT	SEGMENT PARA USE32 PUBLIC 'CODE'
_TEXT	ENDS
;	COMDAT ??_D?$basic_ostream@DV?$char_traits@D@_STL@@@_STL@@QAEXXZ
_TEXT	SEGMENT PARA USE32 PUBLIC 'CODE'
_TEXT	ENDS
;	COMDAT ??_8?$basic_ostream@DV?$char_traits@D@_STL@@@_STL@@7B@
CONST	SEGMENT DWORD USE32 PUBLIC 'CONST'
CONST	ENDS
;	COMDAT ?__page_size@_Filebuf_base@_STL@@SAIXZ
_TEXT	SEGMENT PARA USE32 PUBLIC 'CODE'
_TEXT	ENDS
;	COMDAT ?_M_write@?$basic_filebuf@DV?$char_traits@D@_STL@@@_STL@@QAE_NPADH@Z
_TEXT	SEGMENT PARA USE32 PUBLIC 'CODE'
_TEXT	ENDS
;	COMDAT ?unshift@?$codecvt@DDH@_STL@@QBE?AW4result@codecvt_base@2@AAHPAD1AAPAD@Z
_TEXT	SEGMENT PARA USE32 PUBLIC 'CODE'
_TEXT	ENDS
;	COMDAT ??_7?$basic_filebuf@DV?$char_traits@D@_STL@@@_STL@@6B@
CONST	SEGMENT DWORD USE32 PUBLIC 'CONST'
CONST	ENDS
;	COMDAT ??_R4?$basic_filebuf@DV?$char_traits@D@_STL@@@_STL@@6B@
rdata$r	SEGMENT DWORD USE32 PUBLIC 'CONST'
rdata$r	ENDS
;	COMDAT ??_R0?AV?$basic_filebuf@DV?$char_traits@D@_STL@@@_STL@@@8
_DATA	SEGMENT DWORD USE32 PUBLIC 'DATA'
_DATA	ENDS
;	COMDAT ??_R3?$basic_filebuf@DV?$char_traits@D@_STL@@@_STL@@8
rdata$r	SEGMENT DWORD USE32 PUBLIC 'CONST'
rdata$r	ENDS
;	COMDAT ??_R2?$basic_filebuf@DV?$char_traits@D@_STL@@@_STL@@8
rdata$r	SEGMENT DWORD USE32 PUBLIC 'CONST'
rdata$r	ENDS
;	COMDAT ??_R1A@?0A@A@?$basic_filebuf@DV?$char_traits@D@_STL@@@_STL@@8
rdata$r	SEGMENT DWORD USE32 PUBLIC 'CONST'
rdata$r	ENDS
;	COMDAT ??_R1A@?0A@A@?$basic_streambuf@DV?$char_traits@D@_STL@@@_STL@@8
rdata$r	SEGMENT DWORD USE32 PUBLIC 'CONST'
rdata$r	ENDS
;	COMDAT ??_R0?AV?$basic_streambuf@DV?$char_traits@D@_STL@@@_STL@@@8
_DATA	SEGMENT DWORD USE32 PUBLIC 'DATA'
_DATA	ENDS
;	COMDAT ??_G?$basic_filebuf@DV?$char_traits@D@_STL@@@_STL@@UAEPAXI@Z
_TEXT	SEGMENT PARA USE32 PUBLIC 'CODE'
_TEXT	ENDS
;	COMDAT ?setbuf@?$basic_filebuf@DV?$char_traits@D@_STL@@@_STL@@MAEPAV?$basic_streambuf@DV?$char_traits@D@_STL@@@2@PADH@Z
_TEXT	SEGMENT PARA USE32 PUBLIC 'CODE'
_TEXT	ENDS
;	COMDAT ?seekoff@?$basic_filebuf@DV?$char_traits@D@_STL@@@_STL@@MAE?AV?$fpos@H@2@JHH@Z
_TEXT	SEGMENT PARA USE32 PUBLIC 'CODE'
_TEXT	ENDS
;	COMDAT ?_M_in_binary_mode@_Filebuf_base@_STL@@QBE_NXZ
_TEXT	SEGMENT PARA USE32 PUBLIC 'CODE'
_TEXT	ENDS
;	COMDAT ?length@?$codecvt@DDH@_STL@@QBEHABHPBD1I@Z
_TEXT	SEGMENT PARA USE32 PUBLIC 'CODE'
_TEXT	ENDS
;	COMDAT ?in@?$codecvt@DDH@_STL@@QBE?AW4result@codecvt_base@2@AAHPBD1AAPBDPAD3AAPAD@Z
_TEXT	SEGMENT PARA USE32 PUBLIC 'CODE'
_TEXT	ENDS
;	COMDAT ?eback@?$basic_streambuf@DV?$char_traits@D@_STL@@@_STL@@IBEPADXZ
_TEXT	SEGMENT PARA USE32 PUBLIC 'CODE'
_TEXT	ENDS
;	COMDAT ?_FILE_I_begin@_STL@@YAPADPBU_iobuf@@@Z
_TEXT	SEGMENT PARA USE32 PUBLIC 'CODE'
_TEXT	ENDS
;	COMDAT ?gptr@?$basic_streambuf@DV?$char_traits@D@_STL@@@_STL@@IBEPADXZ
_TEXT	SEGMENT PARA USE32 PUBLIC 'CODE'
_TEXT	ENDS
;	COMDAT ?_FILE_I_next@_STL@@YAPADPBU_iobuf@@@Z
_TEXT	SEGMENT PARA USE32 PUBLIC 'CODE'
_TEXT	ENDS
;	COMDAT ?_M_get_offset@_Filebuf_base@_STL@@QAEJPAD0@Z
_TEXT	SEGMENT PARA USE32 PUBLIC 'CODE'
_TEXT	ENDS
;	COMDAT ??$count@PADD@_STL@@YAHPAD0ABD@Z
_TEXT	SEGMENT PARA USE32 PUBLIC 'CODE'
_TEXT	ENDS
;	COMDAT ?seekpos@?$basic_filebuf@DV?$char_traits@D@_STL@@@_STL@@MAE?AV?$fpos@H@2@V32@H@Z
_TEXT	SEGMENT PARA USE32 PUBLIC 'CODE'
_TEXT	ENDS
;	COMDAT ?sync@?$basic_filebuf@DV?$char_traits@D@_STL@@@_STL@@MAEHXZ
_TEXT	SEGMENT PARA USE32 PUBLIC 'CODE'
_TEXT	ENDS
;	COMDAT ?showmanyc@?$basic_filebuf@DV?$char_traits@D@_STL@@@_STL@@MAEHXZ
_TEXT	SEGMENT PARA USE32 PUBLIC 'CODE'
_TEXT	ENDS
;	COMDAT ?egptr@?$basic_streambuf@DV?$char_traits@D@_STL@@@_STL@@IBEPADXZ
_TEXT	SEGMENT PARA USE32 PUBLIC 'CODE'
_TEXT	ENDS
;	COMDAT ?_FILE_I_end@_STL@@YAPADPBU_iobuf@@@Z
_TEXT	SEGMENT PARA USE32 PUBLIC 'CODE'
_TEXT	ENDS
;	COMDAT ?underflow@?$basic_filebuf@DV?$char_traits@D@_STL@@@_STL@@MAEHXZ
_TEXT	SEGMENT PARA USE32 PUBLIC 'CODE'
_TEXT	ENDS
;	COMDAT ?pbackfail@?$basic_filebuf@DV?$char_traits@D@_STL@@@_STL@@MAEHH@Z
_TEXT	SEGMENT PARA USE32 PUBLIC 'CODE'
_TEXT	ENDS
;	COMDAT ?gbump@?$basic_streambuf@DV?$char_traits@D@_STL@@@_STL@@IAEXH@Z
_TEXT	SEGMENT PARA USE32 PUBLIC 'CODE'
_TEXT	ENDS
;	COMDAT ?_FILE_I_bump@_STL@@YAXPAU_iobuf@@H@Z
_TEXT	SEGMENT PARA USE32 PUBLIC 'CODE'
_TEXT	ENDS
;	COMDAT ?to_int_type@?$char_traits@D@_STL@@SAHABD@Z
_TEXT	SEGMENT PARA USE32 PUBLIC 'CODE'
_TEXT	ENDS
;	COMDAT ?to_char_type@?$char_traits@D@_STL@@SADABH@Z
_TEXT	SEGMENT PARA USE32 PUBLIC 'CODE'
_TEXT	ENDS
;	COMDAT ?overflow@?$basic_filebuf@DV?$char_traits@D@_STL@@@_STL@@MAEHH@Z
_TEXT	SEGMENT PARA USE32 PUBLIC 'CODE'
_TEXT	ENDS
;	COMDAT ?pptr@?$basic_streambuf@DV?$char_traits@D@_STL@@@_STL@@IBEPADXZ
_TEXT	SEGMENT PARA USE32 PUBLIC 'CODE'
_TEXT	ENDS
;	COMDAT ?_FILE_O_next@_STL@@YAPADPBU_iobuf@@@Z
_TEXT	SEGMENT PARA USE32 PUBLIC 'CODE'
_TEXT	ENDS
;	COMDAT ?out@?$codecvt@DDH@_STL@@QBE?AW4result@codecvt_base@2@AAHPBD1AAPBDPAD3AAPAD@Z
_TEXT	SEGMENT PARA USE32 PUBLIC 'CODE'
_TEXT	ENDS
;	COMDAT ?_M_doit@?$_Noconv_output@V?$char_traits@D@_STL@@@_STL@@SA_NPAV?$basic_filebuf@DV?$char_traits@D@_STL@@@2@PAD1@Z
_TEXT	SEGMENT PARA USE32 PUBLIC 'CODE'
_TEXT	ENDS
;	COMDAT ?imbue@?$basic_filebuf@DV?$char_traits@D@_STL@@@_STL@@MAEXABVlocale@2@@Z
_TEXT	SEGMENT PARA USE32 PUBLIC 'CODE'
_TEXT	ENDS
;	COMDAT ??0?$basic_streambuf@DV?$char_traits@D@_STL@@@_STL@@IAE@XZ
_TEXT	SEGMENT PARA USE32 PUBLIC 'CODE'
_TEXT	ENDS
;	COMDAT ??_7?$basic_streambuf@DV?$char_traits@D@_STL@@@_STL@@6B@
CONST	SEGMENT DWORD USE32 PUBLIC 'CONST'
CONST	ENDS
;	COMDAT ??_R4?$basic_streambuf@DV?$char_traits@D@_STL@@@_STL@@6B@
rdata$r	SEGMENT DWORD USE32 PUBLIC 'CONST'
rdata$r	ENDS
;	COMDAT ??_R3?$basic_streambuf@DV?$char_traits@D@_STL@@@_STL@@8
rdata$r	SEGMENT DWORD USE32 PUBLIC 'CONST'
rdata$r	ENDS
;	COMDAT ??_R2?$basic_streambuf@DV?$char_traits@D@_STL@@@_STL@@8
rdata$r	SEGMENT DWORD USE32 PUBLIC 'CONST'
rdata$r	ENDS
;	COMDAT ??_G?$basic_streambuf@DV?$char_traits@D@_STL@@@_STL@@UAEPAXI@Z
_TEXT	SEGMENT PARA USE32 PUBLIC 'CODE'
_TEXT	ENDS
;	COMDAT ??0_STLP_mutex@_STL@@QAE@XZ
_TEXT	SEGMENT PARA USE32 PUBLIC 'CODE'
_TEXT	ENDS
;	COMDAT ?_M_initialize@_STLP_mutex_base@_STL@@QAEXXZ
_TEXT	SEGMENT PARA USE32 PUBLIC 'CODE'
_TEXT	ENDS
;	COMDAT ??1_STLP_mutex@_STL@@QAE@XZ
_TEXT	SEGMENT PARA USE32 PUBLIC 'CODE'
_TEXT	ENDS
;	COMDAT ?_M_destroy@_STLP_mutex_base@_STL@@QAEXXZ
_TEXT	SEGMENT PARA USE32 PUBLIC 'CODE'
_TEXT	ENDS
;	COMDAT ?_FILE_I_set@_STL@@YAXPAU_iobuf@@PAD11@Z
_TEXT	SEGMENT PARA USE32 PUBLIC 'CODE'
_TEXT	ENDS
;	COMDAT ?_FILE_O_set@_STL@@YAXPAU_iobuf@@PAD11@Z
_TEXT	SEGMENT PARA USE32 PUBLIC 'CODE'
_TEXT	ENDS
;	COMDAT ?uninitialized_copy@_STL@@YAPADPBD0PAD@Z
_TEXT	SEGMENT PARA USE32 PUBLIC 'CODE'
_TEXT	ENDS
;	COMDAT ?_M_deallocate_block@?$_String_base@DV?$allocator@D@_STL@@@_STL@@QAEXXZ
_TEXT	SEGMENT PARA USE32 PUBLIC 'CODE'
_TEXT	ENDS
;	COMDAT ?deallocate@?$allocator@D@_STL@@QAEXPADI@Z
_TEXT	SEGMENT PARA USE32 PUBLIC 'CODE'
_TEXT	ENDS
;	COMDAT ??0_List_iterator_base@_STL@@QAE@PAU_List_node_base@1@@Z
_TEXT	SEGMENT PARA USE32 PUBLIC 'CODE'
_TEXT	ENDS
;	COMDAT ?_M_check_exception_mask@ios_base@_STL@@IAEXXZ
_TEXT	SEGMENT PARA USE32 PUBLIC 'CODE'
_TEXT	ENDS
;	COMDAT ?_M_clear_nothrow@ios_base@_STL@@IAEXH@Z
_TEXT	SEGMENT PARA USE32 PUBLIC 'CODE'
_TEXT	ENDS
;	COMDAT ?__copy_trivial@_STL@@YAPAXPBX0PAX@Z
_TEXT	SEGMENT PARA USE32 PUBLIC 'CODE'
_TEXT	ENDS
;	COMDAT ?rdstate@ios_base@_STL@@QBEHXZ
_TEXT	SEGMENT PARA USE32 PUBLIC 'CODE'
_TEXT	ENDS
;	COMDAT ?_M_incr@_List_iterator_base@_STL@@QAEXXZ
_TEXT	SEGMENT PARA USE32 PUBLIC 'CODE'
_TEXT	ENDS
;	COMDAT ??1?$basic_filebuf@DV?$char_traits@D@_STL@@@_STL@@UAE@XZ
_TEXT	SEGMENT PARA USE32 PUBLIC 'CODE'
_TEXT	ENDS
;	COMDAT ??_7?$basic_ofstream@DV?$char_traits@D@_STL@@@_STL@@6B@
CONST	SEGMENT DWORD USE32 PUBLIC 'CONST'
CONST	ENDS
;	COMDAT ??1?$basic_ostream@DV?$char_traits@D@_STL@@@_STL@@UAE@XZ
_TEXT	SEGMENT PARA USE32 PUBLIC 'CODE'
_TEXT	ENDS
;	COMDAT ??_8?$basic_ofstream@DV?$char_traits@D@_STL@@@_STL@@7B@
CONST	SEGMENT DWORD USE32 PUBLIC 'CONST'
CONST	ENDS
;	COMDAT ?pubseekpos@?$basic_streambuf@DV?$char_traits@D@_STL@@@_STL@@QAE?AV?$fpos@H@2@V32@H@Z
_TEXT	SEGMENT PARA USE32 PUBLIC 'CODE'
_TEXT	ENDS
;	COMDAT ?pubseekoff@?$basic_streambuf@DV?$char_traits@D@_STL@@@_STL@@QAE?AV?$fpos@H@2@JHH@Z
_TEXT	SEGMENT PARA USE32 PUBLIC 'CODE'
_TEXT	ENDS
;	COMDAT ?fail@ios_base@_STL@@QBE_NXZ
_TEXT	SEGMENT PARA USE32 PUBLIC 'CODE'
_TEXT	ENDS
;	COMDAT ??1?$basic_ios@DV?$char_traits@D@_STL@@@_STL@@UAE@XZ
_TEXT	SEGMENT PARA USE32 PUBLIC 'CODE'
_TEXT	ENDS
;	COMDAT ??0?$allocator@D@_STL@@QAE@XZ
_TEXT	SEGMENT PARA USE32 PUBLIC 'CODE'
_TEXT	ENDS
;	COMDAT ??0?$basic_string@DV?$char_traits@D@_STL@@V?$allocator@D@2@@_STL@@QAE@PBDABV?$allocator@D@1@@Z
_TEXT	SEGMENT PARA USE32 PUBLIC 'CODE'
_TEXT	ENDS
;	COMDAT ??_7?$CTypePack2@VCSprite@@VCSprite555@@VCSprite565@@@@6B@
CONST	SEGMENT DWORD USE32 PUBLIC 'CONST'
CONST	ENDS
;	COMDAT ?assign@?$char_traits@D@_STL@@SAXAADABD@Z
_TEXT	SEGMENT PARA USE32 PUBLIC 'CODE'
_TEXT	ENDS
;	COMDAT ?always_noconv@?$codecvt@DDH@_STL@@QBE_NXZ
_TEXT	SEGMENT PARA USE32 PUBLIC 'CODE'
_TEXT	ENDS
;	COMDAT ?encoding@?$codecvt@DDH@_STL@@QBEHXZ
_TEXT	SEGMENT PARA USE32 PUBLIC 'CODE'
_TEXT	ENDS
;	COMDAT ?max_length@?$codecvt@DDH@_STL@@QBEHXZ
_TEXT	SEGMENT PARA USE32 PUBLIC 'CODE'
_TEXT	ENDS
;	COMDAT ?__o_mode@_Filebuf_base@_STL@@QBEHXZ
_TEXT	SEGMENT PARA USE32 PUBLIC 'CODE'
_TEXT	ENDS
;	COMDAT ?deallocate@?$__node_alloc@$00$0A@@_STL@@SAXPAXI@Z
_TEXT	SEGMENT PARA USE32 PUBLIC 'CODE'
_TEXT	ENDS
;	COMDAT ?__stl_delete@_STL@@YAXPAX@Z
_TEXT	SEGMENT PARA USE32 PUBLIC 'CODE'
_TEXT	ENDS
;	COMDAT ?_Destroy@_STL@@YAXPAD0@Z
_TEXT	SEGMENT PARA USE32 PUBLIC 'CODE'
_TEXT	ENDS
;	COMDAT ??0?$basic_string@DV?$char_traits@D@_STL@@V?$allocator@D@2@@_STL@@QAE@ABV01@@Z
_TEXT	SEGMENT PARA USE32 PUBLIC 'CODE'
_TEXT	ENDS
;	COMDAT ??8_Rb_tree_base_iterator@_STL@@QBE_NABU01@@Z
_TEXT	SEGMENT PARA USE32 PUBLIC 'CODE'
_TEXT	ENDS
;	COMDAT ?setp@?$basic_streambuf@DV?$char_traits@D@_STL@@@_STL@@IAEXPAD0@Z
_TEXT	SEGMENT PARA USE32 PUBLIC 'CODE'
_TEXT	ENDS
;	COMDAT ?setg@?$basic_streambuf@DV?$char_traits@D@_STL@@@_STL@@IAEXPAD00@Z
_TEXT	SEGMENT PARA USE32 PUBLIC 'CODE'
_TEXT	ENDS
;	COMDAT ?__is_open@_Filebuf_base@_STL@@QBE_NXZ
_TEXT	SEGMENT PARA USE32 PUBLIC 'CODE'
_TEXT	ENDS
;	COMDAT ?allocate@?$__node_alloc@$00$0A@@_STL@@SAPAXI@Z
_TEXT	SEGMENT PARA USE32 PUBLIC 'CODE'
_TEXT	ENDS
;	COMDAT ?__stl_new@_STL@@YAPAXI@Z
_TEXT	SEGMENT PARA USE32 PUBLIC 'CODE'
_TEXT	ENDS
;	COMDAT ??1?$_STLP_alloc_proxy@PADDV?$allocator@D@_STL@@@_STL@@QAE@XZ
_TEXT	SEGMENT PARA USE32 PUBLIC 'CODE'
_TEXT	ENDS
;	COMDAT ?length@?$char_traits@D@_STL@@SAIPBD@Z
_TEXT	SEGMENT PARA USE32 PUBLIC 'CODE'
_TEXT	ENDS
;	COMDAT ??1?$allocator@D@_STL@@QAE@XZ
_TEXT	SEGMENT PARA USE32 PUBLIC 'CODE'
_TEXT	ENDS
;	COMDAT ?eof@?$__char_traits_base@DH@_STL@@SAHXZ
_TEXT	SEGMENT PARA USE32 PUBLIC 'CODE'
_TEXT	ENDS
;	COMDAT ??_7CSprite555@@6B@
CONST	SEGMENT DWORD USE32 PUBLIC 'CONST'
CONST	ENDS
;	COMDAT ??_7CSprite565@@6B@
CONST	SEGMENT DWORD USE32 PUBLIC 'CONST'
CONST	ENDS
;	COMDAT ??4?$basic_string@DV?$char_traits@D@_STL@@V?$allocator@D@2@@_STL@@QAEAAV01@ABV01@@Z
_TEXT	SEGMENT PARA USE32 PUBLIC 'CODE'
_TEXT	ENDS
;	COMDAT ??$assign@PAD@?$basic_string@DV?$char_traits@D@_STL@@V?$allocator@D@2@@_STL@@QAEAAV01@PAD0@Z
_TEXT	SEGMENT PARA USE32 PUBLIC 'CODE'
_TEXT	ENDS
;	COMDAT ??9_Rb_tree_base_iterator@_STL@@QBE_NABU01@@Z
_TEXT	SEGMENT PARA USE32 PUBLIC 'CODE'
_TEXT	ENDS
;	COMDAT ??_7ITypePackBase@@6B@
CONST	SEGMENT DWORD USE32 PUBLIC 'CONST'
CONST	ENDS
;	COMDAT ??_7ovfstream@@6B@
CONST	SEGMENT DWORD USE32 PUBLIC 'CONST'
CONST	ENDS
;	COMDAT ??_7ivfstream@@6B@
CONST	SEGMENT DWORD USE32 PUBLIC 'CONST'
CONST	ENDS
;	COMDAT ??0?$basic_string@DV?$char_traits@D@_STL@@V?$allocator@D@2@@_STL@@QAE@XZ
_TEXT	SEGMENT PARA USE32 PUBLIC 'CODE'
_TEXT	ENDS
;	COMDAT ??1?$basic_string@DV?$char_traits@D@_STL@@V?$allocator@D@2@@_STL@@QAE@XZ
_TEXT	SEGMENT PARA USE32 PUBLIC 'CODE'
_TEXT	ENDS
;	COMDAT ??_7iovfs_base@@6B@
CONST	SEGMENT DWORD USE32 PUBLIC 'CONST'
CONST	ENDS
;	COMDAT ??_7IFileIO@@6B@
CONST	SEGMENT DWORD USE32 PUBLIC 'CONST'
CONST	ENDS
sxdata	SEGMENT DWORD USE32 'SXDATA'
sxdata	ENDS
FLAT	GROUP _DATA, CONST, _BSS
	ASSUME	CS: FLAT, DS: FLAT, SS: FLAT
endif

INCLUDELIB LIBCMT
INCLUDELIB OLDNAMES

PUBLIC	?g_pGuildMarkManager@@3PAVMGuildMarkManager@@A	; g_pGuildMarkManager
PUBLIC	??_C@_0O@JKENFCBN@MinTrace?52003?$AA@		; `string'
PUBLIC	??_C@_0BE@MNEJIGLM@__MinTrace?5Window__?$AA@	; `string'
_BSS	SEGMENT
?g_pGuildMarkManager@@3PAVMGuildMarkManager@@A DD 01H DUP (?) ; g_pGuildMarkManager
_BSS	ENDS
;	COMDAT ??_C@_0O@JKENFCBN@MinTrace?52003?$AA@
CONST	SEGMENT
??_C@_0O@JKENFCBN@MinTrace?52003?$AA@ DB 'MinTrace 2003', 00H ; `string'
CONST	ENDS
_DATA	SEGMENT
_g_pszMinTraceTitle DD FLAT:??_C@_0O@JKENFCBN@MinTrace?52003?$AA@
_DATA	ENDS
;	COMDAT ??_C@_0BE@MNEJIGLM@__MinTrace?5Window__?$AA@
CONST	SEGMENT
??_C@_0BE@MNEJIGLM@__MinTrace?5Window__?$AA@ DB '__MinTrace Window__', 00H ; `string'
CONST	ENDS
_DATA	SEGMENT
_g_pszMinTraceClassName DD FLAT:??_C@_0BE@MNEJIGLM@__MinTrace?5Window__?$AA@
_DATA	ENDS
PUBLIC	?Is565@CDirectDraw@@SA_NXZ			; CDirectDraw::Is565
EXTRN	?m_b565@CDirectDraw@@1_NA:BYTE			; CDirectDraw::m_b565
; Function compile flags: /Ogsy
; File c:\darkeden\designed_common\project\client\cdirectdraw.h
;	COMDAT ?Is565@CDirectDraw@@SA_NXZ
_TEXT	SEGMENT
?Is565@CDirectDraw@@SA_NXZ PROC NEAR			; CDirectDraw::Is565, COMDAT

; 112  : 	static inline bool		Is565()	 				{ return m_b565; }

  00000	a0 00 00 00 00	 mov	 al, BYTE PTR ?m_b565@CDirectDraw@@1_NA ; CDirectDraw::m_b565
  00005	c3		 ret	 0
?Is565@CDirectDraw@@SA_NXZ ENDP				; CDirectDraw::Is565
_TEXT	ENDS
PUBLIC	??2@YAPAXIPAX@Z					; operator new
; Function compile flags: /Ogsy
; File c:\program files\microsoft visual studio .net 2003\vc7\include\new
;	COMDAT ??2@YAPAXIPAX@Z
_TEXT	SEGMENT
___formal$ = 8						; size = 4
__Where$ = 12						; size = 4
??2@YAPAXIPAX@Z PROC NEAR				; operator new, COMDAT

; 64   : 	return (_Where);

  00000	8b 44 24 08	 mov	 eax, DWORD PTR __Where$[esp-4]

; 65   : 	}

  00004	c3		 ret	 0
??2@YAPAXIPAX@Z ENDP					; operator new
_TEXT	ENDS
PUBLIC	??3@YAXPAX0@Z					; operator delete
; Function compile flags: /Ogsy
;	COMDAT ??3@YAXPAX0@Z
_TEXT	SEGMENT
___formal$ = 8						; size = 4
___formal$ = 12						; size = 4
??3@YAXPAX0@Z PROC NEAR					; operator delete, COMDAT

; 69   : 	}

  00000	c3		 ret	 0
??3@YAXPAX0@Z ENDP					; operator delete
_TEXT	ENDS
PUBLIC	?GetWidth@CDirectDrawSurface@@QBEHXZ		; CDirectDrawSurface::GetWidth
; Function compile flags: /Ogsy
; File c:\darkeden\designed_common\project\client\cdirectdrawsurface.h
;	COMDAT ?GetWidth@CDirectDrawSurface@@QBEHXZ
_TEXT	SEGMENT
?GetWidth@CDirectDrawSurface@@QBEHXZ PROC NEAR		; CDirectDrawSurface::GetWidth, COMDAT
; _this$ = ecx

; 129  : 	inline int		GetWidth() const	{ return m_Width; } // no const...

  00000	8b 41 04	 mov	 eax, DWORD PTR [ecx+4]
  00003	c3		 ret	 0
?GetWidth@CDirectDrawSurface@@QBEHXZ ENDP		; CDirectDrawSurface::GetWidth
_TEXT	ENDS
PUBLIC	?GetHeight@CDirectDrawSurface@@QBEHXZ		; CDirectDrawSurface::GetHeight
; Function compile flags: /Ogsy
;	COMDAT ?GetHeight@CDirectDrawSurface@@QBEHXZ
_TEXT	SEGMENT
?GetHeight@CDirectDrawSurface@@QBEHXZ PROC NEAR		; CDirectDrawSurface::GetHeight, COMDAT
; _this$ = ecx

; 130  : 	inline int		GetHeight() const	{ return m_Height; } // no const...

  00000	8b 41 08	 mov	 eax, DWORD PTR [ecx+8]
  00003	c3		 ret	 0
?GetHeight@CDirectDrawSurface@@QBEHXZ ENDP		; CDirectDrawSurface::GetHeight
_TEXT	ENDS
PUBLIC	?__stl_new@_STL@@YAPAXI@Z			; _STL::__stl_new
EXTRN	??2@YAPAXI@Z:NEAR				; operator new
; Function compile flags: /Ogsy
; File c:\stlport-4.6.1\stlport\stl\_new.h
;	COMDAT ?__stl_new@_STL@@YAPAXI@Z
_TEXT	SEGMENT
___n$ = 8						; size = 4
?__stl_new@_STL@@YAPAXI@Z PROC NEAR			; _STL::__stl_new, COMDAT

; 86   : inline void*  _STLP_CALL __stl_new(size_t __n)   { _STLP_CHECK_NULL_ALLOC(::operator _STLP_NEW(__n)); }

  00000	e9 00 00 00 00	 jmp	 ??2@YAPAXI@Z		; operator new
?__stl_new@_STL@@YAPAXI@Z ENDP				; _STL::__stl_new
_TEXT	ENDS
PUBLIC	?__stl_delete@_STL@@YAXPAX@Z			; _STL::__stl_delete
EXTRN	??3@YAXPAX@Z:NEAR				; operator delete
; Function compile flags: /Ogsy
;	COMDAT ?__stl_delete@_STL@@YAXPAX@Z
_TEXT	SEGMENT
___p$ = 8						; size = 4
?__stl_delete@_STL@@YAXPAX@Z PROC NEAR			; _STL::__stl_delete, COMDAT

; 87   : inline void   _STLP_CALL __stl_delete(void* __p) { ::operator delete(__p); }

  00000	e9 00 00 00 00	 jmp	 ??3@YAXPAX@Z		; operator delete
?__stl_delete@_STL@@YAXPAX@Z ENDP			; _STL::__stl_delete
_TEXT	ENDS
PUBLIC	?_Destroy@_STL@@YAXPAD0@Z			; _STL::_Destroy
; Function compile flags: /Ogsy
; File c:\stlport-4.6.1\stlport\stl\_construct.h
;	COMDAT ?_Destroy@_STL@@YAXPAD0@Z
_TEXT	SEGMENT
___formal$ = 8						; size = 4
___formal$ = 12						; size = 4
?_Destroy@_STL@@YAXPAD0@Z PROC NEAR			; _STL::_Destroy, COMDAT

; 142  : inline void _Destroy(char*, char*) {}

  00000	c3		 ret	 0
?_Destroy@_STL@@YAXPAD0@Z ENDP				; _STL::_Destroy
_TEXT	ENDS
PUBLIC	??_R1A@?0A@A@ITypePackBase@@8			; ITypePackBase::`RTTI Base Class Descriptor at (0,-1,0,0)'
PUBLIC	??_R0?AVITypePackBase@@@8			; ITypePackBase `RTTI Type Descriptor'
PUBLIC	??_R4ITypePackBase@@6B@				; ITypePackBase::`RTTI Complete Object Locator'
PUBLIC	??_R3ITypePackBase@@8				; ITypePackBase::`RTTI Class Hierarchy Descriptor'
PUBLIC	??_R2ITypePackBase@@8				; ITypePackBase::`RTTI Base Class Array'
PUBLIC	??0ITypePackBase@@QAE@XZ			; ITypePackBase::ITypePackBase
PUBLIC	??_7ITypePackBase@@6B@				; ITypePackBase::`vftable'
PUBLIC	??_GITypePackBase@@UAEPAXI@Z			; ITypePackBase::`scalar deleting destructor'
EXTRN	??_7type_info@@6B@:QWORD			; type_info::`vftable'
EXTRN	__purecall:NEAR
EXTRN	??_EITypePackBase@@UAEPAXI@Z:NEAR		; ITypePackBase::`vector deleting destructor'
;	COMDAT ??_7ITypePackBase@@6B@
; File c:\darkeden\designed_common\project\client\spritelib\ctypepack.h
CONST	SEGMENT
??_7ITypePackBase@@6B@ DD FLAT:??_R4ITypePackBase@@6B@	; ITypePackBase::`vftable'
	DD	FLAT:??_EITypePackBase@@UAEPAXI@Z
	DD	FLAT:__purecall
	DD	FLAT:__purecall
	DD	FLAT:__purecall
	DD	FLAT:__purecall
	DD	FLAT:__purecall
	DD	FLAT:__purecall
	DD	FLAT:__purecall
	DD	FLAT:__purecall
	DD	FLAT:__purecall
	DD	FLAT:__purecall
	DD	FLAT:__purecall
	DD	FLAT:__purecall
	DD	FLAT:__purecall
CONST	ENDS
;	COMDAT ??_R4ITypePackBase@@6B@
rdata$r	SEGMENT
??_R4ITypePackBase@@6B@ DD 00H				; ITypePackBase::`RTTI Complete Object Locator'
	DD	00H
	DD	00H
	DD	FLAT:??_R0?AVITypePackBase@@@8
	DD	FLAT:??_R3ITypePackBase@@8
rdata$r	ENDS
;	COMDAT ??_R0?AVITypePackBase@@@8
_DATA	SEGMENT
??_R0?AVITypePackBase@@@8 DD FLAT:??_7type_info@@6B@	; ITypePackBase `RTTI Type Descriptor'
	DD	00H
	DB	'.?AVITypePackBase@@', 00H
_DATA	ENDS
;	COMDAT ??_R3ITypePackBase@@8
rdata$r	SEGMENT
??_R3ITypePackBase@@8 DD 00H				; ITypePackBase::`RTTI Class Hierarchy Descriptor'
	DD	00H
	DD	01H
	DD	FLAT:??_R2ITypePackBase@@8
rdata$r	ENDS
;	COMDAT ??_R2ITypePackBase@@8
rdata$r	SEGMENT
??_R2ITypePackBase@@8 DD FLAT:??_R1A@?0A@A@ITypePackBase@@8 ; ITypePackBase::`RTTI Base Class Array'
rdata$r	ENDS
;	COMDAT ??_R1A@?0A@A@ITypePackBase@@8
rdata$r	SEGMENT
??_R1A@?0A@A@ITypePackBase@@8 DD FLAT:??_R0?AVITypePackBase@@@8 ; ITypePackBase::`RTTI Base Class Descriptor at (0,-1,0,0)'
	DD	00H
	DD	00H
	DD	0ffffffffH
	DD	00H
	DD	00H
; Function compile flags: /Ogsy
rdata$r	ENDS
;	COMDAT ??0ITypePackBase@@QAE@XZ
_TEXT	SEGMENT
??0ITypePackBase@@QAE@XZ PROC NEAR			; ITypePackBase::ITypePackBase, COMDAT
; _this$ = ecx

; 16   : 	ITypePackBase() {}

  00000	8b c1		 mov	 eax, ecx
  00002	c7 00 00 00 00
	00		 mov	 DWORD PTR [eax], OFFSET FLAT:??_7ITypePackBase@@6B@
  00008	c3		 ret	 0
??0ITypePackBase@@QAE@XZ ENDP				; ITypePackBase::ITypePackBase
_TEXT	ENDS
PUBLIC	??1ITypePackBase@@UAE@XZ			; ITypePackBase::~ITypePackBase
; Function compile flags: /Ogsy
;	COMDAT ??1ITypePackBase@@UAE@XZ
_TEXT	SEGMENT
??1ITypePackBase@@UAE@XZ PROC NEAR			; ITypePackBase::~ITypePackBase, COMDAT
; _this$ = ecx

; 17   : 	virtual ~ITypePackBase() {}

  00000	c7 01 00 00 00
	00		 mov	 DWORD PTR [ecx], OFFSET FLAT:??_7ITypePackBase@@6B@
  00006	c3		 ret	 0
??1ITypePackBase@@UAE@XZ ENDP				; ITypePackBase::~ITypePackBase
; Function compile flags: /Ogsy
_TEXT	ENDS
;	COMDAT ??_GITypePackBase@@UAEPAXI@Z
_TEXT	SEGMENT
___flags$ = 8						; size = 4
??_GITypePackBase@@UAEPAXI@Z PROC NEAR			; ITypePackBase::`scalar deleting destructor', COMDAT
; _this$ = ecx
  00000	f6 44 24 04 01	 test	 BYTE PTR ___flags$[esp-4], 1
  00005	56		 push	 esi
  00006	8b f1		 mov	 esi, ecx
  00008	c7 06 00 00 00
	00		 mov	 DWORD PTR [esi], OFFSET FLAT:??_7ITypePackBase@@6B@
  0000e	74 07		 je	 SHORT $L101274
  00010	56		 push	 esi
  00011	e8 00 00 00 00	 call	 ??3@YAXPAX@Z		; operator delete
  00016	59		 pop	 ecx
$L101274:
  00017	8b c6		 mov	 eax, esi
  00019	5e		 pop	 esi
  0001a	c2 04 00	 ret	 4
??_GITypePackBase@@UAEPAXI@Z ENDP			; ITypePackBase::`scalar deleting destructor'
_TEXT	ENDS
PUBLIC	?SetColorkey@CSprite@@SAXG@Z			; CSprite::SetColorkey
EXTRN	?s_Colorkey@CSprite@@2GA:WORD			; CSprite::s_Colorkey
; Function compile flags: /Ogsy
; File c:\darkeden\designed_common\project\client\spritelib\csprite.h
;	COMDAT ?SetColorkey@CSprite@@SAXG@Z
_TEXT	SEGMENT
_color$ = 8						; size = 2
?SetColorkey@CSprite@@SAXG@Z PROC NEAR			; CSprite::SetColorkey, COMDAT

; 68   : 		static void	SetColorkey(WORD color)			{ s_Colorkey = color; }

  00000	66 8b 44 24 04	 mov	 ax, WORD PTR _color$[esp-4]
  00005	66 a3 00 00 00
	00		 mov	 WORD PTR ?s_Colorkey@CSprite@@2GA, ax ; CSprite::s_Colorkey
  0000b	c3		 ret	 0
?SetColorkey@CSprite@@SAXG@Z ENDP			; CSprite::SetColorkey
_TEXT	ENDS
PUBLIC	??0GUILD_SPRITES@MGuildMarkManager@@QAE@PAVCSprite@@0@Z ; MGuildMarkManager::GUILD_SPRITES::GUILD_SPRITES
; Function compile flags: /Ogsy
; File c:\darkeden\designed_common\project\client\mguildmarkmanager.h
;	COMDAT ??0GUILD_SPRITES@MGuildMarkManager@@QAE@PAVCSprite@@0@Z
_TEXT	SEGMENT
__pSprite$ = 8						; size = 4
__pSpriteSmall$ = 12					; size = 4
??0GUILD_SPRITES@MGuildMarkManager@@QAE@PAVCSprite@@0@Z PROC NEAR ; MGuildMarkManager::GUILD_SPRITES::GUILD_SPRITES, COMDAT
; _this$ = ecx

; 119  : 			GUILD_SPRITES(CSprite* _pSprite=NULL, CSprite* _pSpriteSmall=NULL)

  00000	8b c1		 mov	 eax, ecx

; 120  : 			{
; 121  : 				pSprite = _pSprite;

  00002	8b 4c 24 04	 mov	 ecx, DWORD PTR __pSprite$[esp-4]
  00006	89 08		 mov	 DWORD PTR [eax], ecx

; 122  : 				pSpriteSmall = _pSpriteSmall;

  00008	8b 4c 24 08	 mov	 ecx, DWORD PTR __pSpriteSmall$[esp-4]
  0000c	89 48 04	 mov	 DWORD PTR [eax+4], ecx

; 123  : 			}

  0000f	c2 08 00	 ret	 8
??0GUILD_SPRITES@MGuildMarkManager@@QAE@PAVCSprite@@0@Z ENDP ; MGuildMarkManager::GUILD_SPRITES::GUILD_SPRITES
_TEXT	ENDS
PUBLIC	?GetSpriteID@GUILD_INFO@@QBEGXZ			; GUILD_INFO::GetSpriteID
; Function compile flags: /Ogsy
; File c:\darkeden\designed_common\project\client\mguildinfomapper.h
;	COMDAT ?GetSpriteID@GUILD_INFO@@QBEGXZ
_TEXT	SEGMENT
?GetSpriteID@GUILD_INFO@@QBEGXZ PROC NEAR		; GUILD_INFO::GetSpriteID, COMDAT
; _this$ = ecx

; 31   : 		TYPE_SPRITEID	GetSpriteID() const					{ return m_SpriteID; }

  00000	66 8b 01	 mov	 ax, WORD PTR [ecx]
  00003	c3		 ret	 0
?GetSpriteID@GUILD_INFO@@QBEGXZ ENDP			; GUILD_INFO::GetSpriteID
_TEXT	ENDS
PUBLIC	?GetGradeMark@MGuildMarkManager@@QAEPAVCSprite@@GW4Race@@@Z ; MGuildMarkManager::GetGradeMark
; Function compile flags: /Ogsy
; File c:\darkeden\designed_common\project\client\mguildmarkmanager.cpp
;	COMDAT ?GetGradeMark@MGuildMarkManager@@QAEPAVCSprite@@GW4Race@@@Z
_TEXT	SEGMENT
_gradeID$ = 8						; size = 2
_race$ = 12						; size = 4
?GetGradeMark@MGuildMarkManager@@QAEPAVCSprite@@GW4Race@@@Z PROC NEAR ; MGuildMarkManager::GetGradeMark, COMDAT
; _this$ = ecx

; 816  : 	if(race >= RACE_MAX)

  00000	8b 44 24 08	 mov	 eax, DWORD PTR _race$[esp-4]
  00004	83 f8 03	 cmp	 eax, 3
  00007	7c 04		 jl	 SHORT $L106688

; 817  : 		return NULL;

  00009	33 c0		 xor	 eax, eax
  0000b	eb 13		 jmp	 SHORT $L106687
$L106688:

; 818  : 
; 819  : 	return &m_GradeMarks[race][gradeID*2];

  0000d	8b 54 24 04	 mov	 edx, DWORD PTR _gradeID$[esp-4]
  00011	8d 04 c0	 lea	 eax, DWORD PTR [eax+eax*8]
  00014	8d 4c c1 54	 lea	 ecx, DWORD PTR [ecx+eax*8+84]
  00018	8b 01		 mov	 eax, DWORD PTR [ecx]
  0001a	03 d2		 add	 edx, edx
  0001c	52		 push	 edx
  0001d	ff 50 38	 call	 DWORD PTR [eax+56]
$L106687:

; 820  : }

  00020	c2 08 00	 ret	 8
?GetGradeMark@MGuildMarkManager@@QAEPAVCSprite@@GW4Race@@@Z ENDP ; MGuildMarkManager::GetGradeMark
_TEXT	ENDS
PUBLIC	?GetGradeMarkSmall@MGuildMarkManager@@QAEPAVCSprite@@GW4Race@@@Z ; MGuildMarkManager::GetGradeMarkSmall
; Function compile flags: /Ogsy
;	COMDAT ?GetGradeMarkSmall@MGuildMarkManager@@QAEPAVCSprite@@GW4Race@@@Z
_TEXT	SEGMENT
_gradeID$ = 8						; size = 2
_race$ = 12						; size = 4
?GetGradeMarkSmall@MGuildMarkManager@@QAEPAVCSprite@@GW4Race@@@Z PROC NEAR ; MGuildMarkManager::GetGradeMarkSmall, COMDAT
; _this$ = ecx

; 828  : 	if(race >= RACE_MAX)

  00000	8b 44 24 08	 mov	 eax, DWORD PTR _race$[esp-4]
  00004	83 f8 03	 cmp	 eax, 3
  00007	7c 04		 jl	 SHORT $L106694

; 829  : 		return NULL;

  00009	33 c0		 xor	 eax, eax
  0000b	eb 15		 jmp	 SHORT $L106693
$L106694:

; 830  : 	
; 831  : 	return &m_GradeMarks[race][gradeID*2+1];

  0000d	8b 54 24 04	 mov	 edx, DWORD PTR _gradeID$[esp-4]
  00011	8d 04 c0	 lea	 eax, DWORD PTR [eax+eax*8]
  00014	8d 4c c1 54	 lea	 ecx, DWORD PTR [ecx+eax*8+84]
  00018	8b 01		 mov	 eax, DWORD PTR [ecx]
  0001a	8d 54 12 01	 lea	 edx, DWORD PTR [edx+edx+1]
  0001e	52		 push	 edx
  0001f	ff 50 38	 call	 DWORD PTR [eax+56]
$L106693:

; 832  : }

  00022	c2 08 00	 ret	 8
?GetGradeMarkSmall@MGuildMarkManager@@QAEPAVCSprite@@GW4Race@@@Z ENDP ; MGuildMarkManager::GetGradeMarkSmall
_TEXT	ENDS
PUBLIC	?GetOriginMark@MGuildMarkManager@@QAEPAVCSprite@@G@Z ; MGuildMarkManager::GetOriginMark
; Function compile flags: /Ogsy
;	COMDAT ?GetOriginMark@MGuildMarkManager@@QAEPAVCSprite@@G@Z
_TEXT	SEGMENT
_origin$ = 8						; size = 2
?GetOriginMark@MGuildMarkManager@@QAEPAVCSprite@@G@Z PROC NEAR ; MGuildMarkManager::GetOriginMark, COMDAT
; _this$ = ecx

; 841  : 	if(origin >= ORIGIN_MAX)

  00000	66 83 7c 24 04
	06		 cmp	 WORD PTR _origin$[esp-4], 6
  00006	72 05		 jb	 SHORT $L106699

; 842  : 		return NULL;

  00008	33 c0		 xor	 eax, eax

; 845  : }

  0000a	c2 04 00	 ret	 4
$L106699:

; 843  : 	
; 844  : 	return &m_OriginMarks[origin];

  0000d	81 c1 bc 01 00
	00		 add	 ecx, 444		; 000001bcH
  00013	8b 01		 mov	 eax, DWORD PTR [ecx]
  00015	ff 60 38	 jmp	 DWORD PTR [eax+56]
?GetOriginMark@MGuildMarkManager@@QAEPAVCSprite@@G@Z ENDP ; MGuildMarkManager::GetOriginMark
_TEXT	ENDS
PUBLIC	?GetLevelMark@MGuildMarkManager@@QAEPAVCSprite@@G@Z ; MGuildMarkManager::GetLevelMark
; Function compile flags: /Ogsy
;	COMDAT ?GetLevelMark@MGuildMarkManager@@QAEPAVCSprite@@G@Z
_TEXT	SEGMENT
_level$ = 8						; size = 2
?GetLevelMark@MGuildMarkManager@@QAEPAVCSprite@@G@Z PROC NEAR ; MGuildMarkManager::GetLevelMark, COMDAT
; _this$ = ecx

; 853  : 	return &m_LevelMarks[level*2];

  00000	8b 54 24 04	 mov	 edx, DWORD PTR _level$[esp-4]
  00004	81 c1 2c 01 00
	00		 add	 ecx, 300		; 0000012cH
  0000a	8b 01		 mov	 eax, DWORD PTR [ecx]
  0000c	03 d2		 add	 edx, edx
  0000e	52		 push	 edx
  0000f	ff 50 38	 call	 DWORD PTR [eax+56]

; 854  : }

  00012	c2 04 00	 ret	 4
?GetLevelMark@MGuildMarkManager@@QAEPAVCSprite@@G@Z ENDP ; MGuildMarkManager::GetLevelMark
_TEXT	ENDS
PUBLIC	?GetLevelMarkSmall@MGuildMarkManager@@QAEPAVCSprite@@G@Z ; MGuildMarkManager::GetLevelMarkSmall
; Function compile flags: /Ogsy
;	COMDAT ?GetLevelMarkSmall@MGuildMarkManager@@QAEPAVCSprite@@G@Z
_TEXT	SEGMENT
_level$ = 8						; size = 2
?GetLevelMarkSmall@MGuildMarkManager@@QAEPAVCSprite@@G@Z PROC NEAR ; MGuildMarkManager::GetLevelMarkSmall, COMDAT
; _this$ = ecx

; 862  : 	return &m_LevelMarks[level*2+1];

  00000	8b 54 24 04	 mov	 edx, DWORD PTR _level$[esp-4]
  00004	81 c1 2c 01 00
	00		 add	 ecx, 300		; 0000012cH
  0000a	8b 01		 mov	 eax, DWORD PTR [ecx]
  0000c	8d 54 12 01	 lea	 edx, DWORD PTR [edx+edx+1]
  00010	52		 push	 edx
  00011	ff 50 38	 call	 DWORD PTR [eax+56]

; 863  : }

  00014	c2 04 00	 ret	 4
?GetLevelMarkSmall@MGuildMarkManager@@QAEPAVCSprite@@G@Z ENDP ; MGuildMarkManager::GetLevelMarkSmall
_TEXT	ENDS
PUBLIC	?SetMonsterLevelMarkGreen@MGuildMarkManager@@QAEPAVCSprite@@XZ ; MGuildMarkManager::SetMonsterLevelMarkGreen
; Function compile flags: /Ogsy
;	COMDAT ?SetMonsterLevelMarkGreen@MGuildMarkManager@@QAEPAVCSprite@@XZ
_TEXT	SEGMENT
?SetMonsterLevelMarkGreen@MGuildMarkManager@@QAEPAVCSprite@@XZ PROC NEAR ; MGuildMarkManager::SetMonsterLevelMarkGreen, COMDAT
; _this$ = ecx

; 868  : 	return &m_MonsterLevelRed[0];

  00000	81 c1 74 01 00
	00		 add	 ecx, 372		; 00000174H
  00006	8b 01		 mov	 eax, DWORD PTR [ecx]
  00008	6a 00		 push	 0
  0000a	ff 50 38	 call	 DWORD PTR [eax+56]

; 869  : }

  0000d	c3		 ret	 0
?SetMonsterLevelMarkGreen@MGuildMarkManager@@QAEPAVCSprite@@XZ ENDP ; MGuildMarkManager::SetMonsterLevelMarkGreen
_TEXT	ENDS
PUBLIC	?SetMonsterLevelMarkRed@MGuildMarkManager@@QAEPAVCSprite@@XZ ; MGuildMarkManager::SetMonsterLevelMarkRed
; Function compile flags: /Ogsy
;	COMDAT ?SetMonsterLevelMarkRed@MGuildMarkManager@@QAEPAVCSprite@@XZ
_TEXT	SEGMENT
?SetMonsterLevelMarkRed@MGuildMarkManager@@QAEPAVCSprite@@XZ PROC NEAR ; MGuildMarkManager::SetMonsterLevelMarkRed, COMDAT
; _this$ = ecx

; 873  : 	return &m_MonsterLevelRed[1];

  00000	81 c1 74 01 00
	00		 add	 ecx, 372		; 00000174H
  00006	8b 01		 mov	 eax, DWORD PTR [ecx]
  00008	6a 01		 push	 1
  0000a	ff 50 38	 call	 DWORD PTR [eax+56]

; 874  : }

  0000d	c3		 ret	 0
?SetMonsterLevelMarkRed@MGuildMarkManager@@QAEPAVCSprite@@XZ ENDP ; MGuildMarkManager::SetMonsterLevelMarkRed
_TEXT	ENDS
PUBLIC	??_R1A@?0A@A@CSprite@@8				; CSprite::`RTTI Base Class Descriptor at (0,-1,0,0)'
PUBLIC	??_R0?AVCSprite@@@8				; CSprite `RTTI Type Descriptor'
PUBLIC	??_R4CSprite565@@6B@				; CSprite565::`RTTI Complete Object Locator'
PUBLIC	??_R0?AVCSprite565@@@8				; CSprite565 `RTTI Type Descriptor'
PUBLIC	??_R3CSprite565@@8				; CSprite565::`RTTI Class Hierarchy Descriptor'
PUBLIC	??_R2CSprite565@@8				; CSprite565::`RTTI Base Class Array'
PUBLIC	??_R1A@?0A@A@CSprite565@@8			; CSprite565::`RTTI Base Class Descriptor at (0,-1,0,0)'
PUBLIC	??0CSprite565@@QAE@XZ				; CSprite565::CSprite565
PUBLIC	??_7CSprite565@@6B@				; CSprite565::`vftable'
EXTRN	??0CSprite@@QAE@XZ:NEAR				; CSprite::CSprite
EXTRN	?SaveToFile@CSprite565@@UAE_NAAV?$basic_ofstream@DV?$char_traits@D@_STL@@@_STL@@@Z:NEAR ; CSprite565::SaveToFile
EXTRN	?LoadFromFile@CSprite565@@UAE_NAAVivfstream@@@Z:NEAR ; CSprite565::LoadFromFile
;	COMDAT ??_7CSprite565@@6B@
CONST	SEGMENT
??_7CSprite565@@6B@ DD FLAT:??_R4CSprite565@@6B@	; CSprite565::`vftable'
	DD	FLAT:?SaveToFile@CSprite565@@UAE_NAAV?$basic_ofstream@DV?$char_traits@D@_STL@@@_STL@@@Z
	DD	FLAT:?LoadFromFile@CSprite565@@UAE_NAAVivfstream@@@Z
CONST	ENDS
;	COMDAT ??_R4CSprite565@@6B@
rdata$r	SEGMENT
??_R4CSprite565@@6B@ DD 00H				; CSprite565::`RTTI Complete Object Locator'
	DD	00H
	DD	00H
	DD	FLAT:??_R0?AVCSprite565@@@8
	DD	FLAT:??_R3CSprite565@@8
rdata$r	ENDS
;	COMDAT ??_R0?AVCSprite565@@@8
_DATA	SEGMENT
??_R0?AVCSprite565@@@8 DD FLAT:??_7type_info@@6B@	; CSprite565 `RTTI Type Descriptor'
	DD	00H
	DB	'.?AVCSprite565@@', 00H
_DATA	ENDS
;	COMDAT ??_R3CSprite565@@8
rdata$r	SEGMENT
??_R3CSprite565@@8 DD 00H				; CSprite565::`RTTI Class Hierarchy Descriptor'
	DD	00H
	DD	02H
	DD	FLAT:??_R2CSprite565@@8
rdata$r	ENDS
;	COMDAT ??_R2CSprite565@@8
rdata$r	SEGMENT
??_R2CSprite565@@8 DD FLAT:??_R1A@?0A@A@CSprite565@@8	; CSprite565::`RTTI Base Class Array'
	DD	FLAT:??_R1A@?0A@A@CSprite@@8
rdata$r	ENDS
;	COMDAT ??_R1A@?0A@A@CSprite565@@8
rdata$r	SEGMENT
??_R1A@?0A@A@CSprite565@@8 DD FLAT:??_R0?AVCSprite565@@@8 ; CSprite565::`RTTI Base Class Descriptor at (0,-1,0,0)'
	DD	01H
	DD	00H
	DD	0ffffffffH
	DD	00H
	DD	00H
rdata$r	ENDS
;	COMDAT ??_R1A@?0A@A@CSprite@@8
rdata$r	SEGMENT
??_R1A@?0A@A@CSprite@@8 DD FLAT:??_R0?AVCSprite@@@8	; CSprite::`RTTI Base Class Descriptor at (0,-1,0,0)'
	DD	00H
	DD	00H
	DD	0ffffffffH
	DD	00H
	DD	00H
rdata$r	ENDS
;	COMDAT ??_R0?AVCSprite@@@8
_DATA	SEGMENT
??_R0?AVCSprite@@@8 DD FLAT:??_7type_info@@6B@		; CSprite `RTTI Type Descriptor'
	DD	00H
	DB	'.?AVCSprite@@', 00H
; Function compile flags: /Ogsy
_DATA	ENDS
;	COMDAT ??0CSprite565@@QAE@XZ
_TEXT	SEGMENT
??0CSprite565@@QAE@XZ PROC NEAR				; CSprite565::CSprite565, COMDAT
; _this$ = ecx
  00000	56		 push	 esi
  00001	8b f1		 mov	 esi, ecx
  00003	e8 00 00 00 00	 call	 ??0CSprite@@QAE@XZ	; CSprite::CSprite
  00008	c7 06 00 00 00
	00		 mov	 DWORD PTR [esi], OFFSET FLAT:??_7CSprite565@@6B@
  0000e	8b c6		 mov	 eax, esi
  00010	5e		 pop	 esi
  00011	c3		 ret	 0
??0CSprite565@@QAE@XZ ENDP				; CSprite565::CSprite565
_TEXT	ENDS
PUBLIC	??_R4CSprite555@@6B@				; CSprite555::`RTTI Complete Object Locator'
PUBLIC	??_R0?AVCSprite555@@@8				; CSprite555 `RTTI Type Descriptor'
PUBLIC	??_R3CSprite555@@8				; CSprite555::`RTTI Class Hierarchy Descriptor'
PUBLIC	??_R2CSprite555@@8				; CSprite555::`RTTI Base Class Array'
PUBLIC	??_R1A@?0A@A@CSprite555@@8			; CSprite555::`RTTI Base Class Descriptor at (0,-1,0,0)'
PUBLIC	??0CSprite555@@QAE@XZ				; CSprite555::CSprite555
PUBLIC	??_7CSprite555@@6B@				; CSprite555::`vftable'
EXTRN	?SaveToFile@CSprite555@@UAE_NAAV?$basic_ofstream@DV?$char_traits@D@_STL@@@_STL@@@Z:NEAR ; CSprite555::SaveToFile
EXTRN	?LoadFromFile@CSprite555@@UAE_NAAVivfstream@@@Z:NEAR ; CSprite555::LoadFromFile
;	COMDAT ??_7CSprite555@@6B@
CONST	SEGMENT
??_7CSprite555@@6B@ DD FLAT:??_R4CSprite555@@6B@	; CSprite555::`vftable'
	DD	FLAT:?SaveToFile@CSprite555@@UAE_NAAV?$basic_ofstream@DV?$char_traits@D@_STL@@@_STL@@@Z
	DD	FLAT:?LoadFromFile@CSprite555@@UAE_NAAVivfstream@@@Z
CONST	ENDS
;	COMDAT ??_R4CSprite555@@6B@
rdata$r	SEGMENT
??_R4CSprite555@@6B@ DD 00H				; CSprite555::`RTTI Complete Object Locator'
	DD	00H
	DD	00H
	DD	FLAT:??_R0?AVCSprite555@@@8
	DD	FLAT:??_R3CSprite555@@8
rdata$r	ENDS
;	COMDAT ??_R0?AVCSprite555@@@8
_DATA	SEGMENT
??_R0?AVCSprite555@@@8 DD FLAT:??_7type_info@@6B@	; CSprite555 `RTTI Type Descriptor'
	DD	00H
	DB	'.?AVCSprite555@@', 00H
_DATA	ENDS
;	COMDAT ??_R3CSprite555@@8
rdata$r	SEGMENT
??_R3CSprite555@@8 DD 00H				; CSprite555::`RTTI Class Hierarchy Descriptor'
	DD	00H
	DD	02H
	DD	FLAT:??_R2CSprite555@@8
rdata$r	ENDS
;	COMDAT ??_R2CSprite555@@8
rdata$r	SEGMENT
??_R2CSprite555@@8 DD FLAT:??_R1A@?0A@A@CSprite555@@8	; CSprite555::`RTTI Base Class Array'
	DD	FLAT:??_R1A@?0A@A@CSprite@@8
rdata$r	ENDS
;	COMDAT ??_R1A@?0A@A@CSprite555@@8
rdata$r	SEGMENT
??_R1A@?0A@A@CSprite555@@8 DD FLAT:??_R0?AVCSprite555@@@8 ; CSprite555::`RTTI Base Class Descriptor at (0,-1,0,0)'
	DD	01H
	DD	00H
	DD	0ffffffffH
	DD	00H
	DD	00H
; Function compile flags: /Ogsy
rdata$r	ENDS
;	COMDAT ??0CSprite555@@QAE@XZ
_TEXT	SEGMENT
??0CSprite555@@QAE@XZ PROC NEAR				; CSprite555::CSprite555, COMDAT
; _this$ = ecx
  00000	56		 push	 esi
  00001	8b f1		 mov	 esi, ecx
  00003	e8 00 00 00 00	 call	 ??0CSprite@@QAE@XZ	; CSprite::CSprite
  00008	c7 06 00 00 00
	00		 mov	 DWORD PTR [esi], OFFSET FLAT:??_7CSprite555@@6B@
  0000e	8b c6		 mov	 eax, esi
  00010	5e		 pop	 esi
  00011	c3		 ret	 0
??0CSprite555@@QAE@XZ ENDP				; CSprite555::CSprite555
_TEXT	ENDS
PUBLIC	??0?$_Rb_tree_iterator@U?$pair@$$CBGPAVGUILD_INFO@@@_STL@@U?$_Const_traits@U?$pair@$$CBGPAVGUILD_INFO@@@_STL@@@2@@_STL@@QAE@ABU?$_Rb_tree_iterator@U?$pair@$$CBGPAVGUILD_INFO@@@_STL@@U?$_Nonconst_traits@U?$pair@$$CBGPAVGUILD_INFO@@@_STL@@@2@@1@@Z ; _STL::_Rb_tree_iterator<_STL::pair<unsigned short const ,GUILD_INFO *>,_STL::_Const_traits<_STL::pair<unsigned short const ,GUILD_INFO *> > >::_Rb_tree_iterator<_STL::pair<unsigned short const ,GUILD_INFO *>,_STL::_Const_traits<_STL::pair<unsigned short const ,GUILD_INFO *> > >
; Function compile flags: /Ogsy
; File c:\stlport-4.6.1\stlport\stl\_tree.h
;	COMDAT ??0?$_Rb_tree_iterator@U?$pair@$$CBGPAVGUILD_INFO@@@_STL@@U?$_Const_traits@U?$pair@$$CBGPAVGUILD_INFO@@@_STL@@@2@@_STL@@QAE@ABU?$_Rb_tree_iterator@U?$pair@$$CBGPAVGUILD_INFO@@@_STL@@U?$_Nonconst_traits@U?$pair@$$CBGPAVGUILD_INFO@@@_STL@@@2@@1@@Z
_TEXT	SEGMENT
___it$ = 8						; size = 4
??0?$_Rb_tree_iterator@U?$pair@$$CBGPAVGUILD_INFO@@@_STL@@U?$_Const_traits@U?$pair@$$CBGPAVGUILD_INFO@@@_STL@@@2@@_STL@@QAE@ABU?$_Rb_tree_iterator@U?$pair@$$CBGPAVGUILD_INFO@@@_STL@@U?$_Nonconst_traits@U?$pair@$$CBGPAVGUILD_INFO@@@_STL@@@2@@1@@Z PROC NEAR ; _STL::_Rb_tree_iterator<_STL::pair<unsigned short const ,GUILD_INFO *>,_STL::_Const_traits<_STL::pair<unsigned short const ,GUILD_INFO *> > >::_Rb_tree_iterator<_STL::pair<unsigned short const ,GUILD_INFO *>,_STL::_Const_traits<_STL::pair<unsigned short const ,GUILD_INFO *> > >, COMDAT
; _this$ = ecx

; 165  :   _Rb_tree_iterator(const _Rb_tree_iterator<_Value, 

  00000	8b c1		 mov	 eax, ecx
  00002	8b 4c 24 04	 mov	 ecx, DWORD PTR ___it$[esp-4]
  00006	8b 09		 mov	 ecx, DWORD PTR [ecx]
  00008	89 08		 mov	 DWORD PTR [eax], ecx

; 166  :                     _Nonconst_traits<_Value> >& __it) { _M_node = __it._M_node; }

  0000a	c2 04 00	 ret	 4
??0?$_Rb_tree_iterator@U?$pair@$$CBGPAVGUILD_INFO@@@_STL@@U?$_Const_traits@U?$pair@$$CBGPAVGUILD_INFO@@@_STL@@@2@@_STL@@QAE@ABU?$_Rb_tree_iterator@U?$pair@$$CBGPAVGUILD_INFO@@@_STL@@U?$_Nonconst_traits@U?$pair@$$CBGPAVGUILD_INFO@@@_STL@@@2@@1@@Z ENDP ; _STL::_Rb_tree_iterator<_STL::pair<unsigned short const ,GUILD_INFO *>,_STL::_Const_traits<_STL::pair<unsigned short const ,GUILD_INFO *> > >::_Rb_tree_iterator<_STL::pair<unsigned short const ,GUILD_INFO *>,_STL::_Const_traits<_STL::pair<unsigned short const ,GUILD_INFO *> > >
_TEXT	ENDS
PUBLIC	?_M_terminate_string_aux@?$basic_string@DV?$char_traits@D@_STL@@V?$allocator@D@2@@_STL@@AAEXABU__true_type@2@@Z ; _STL::basic_string<char,_STL::char_traits<char>,_STL::allocator<char> >::_M_terminate_string_aux
; Function compile flags: /Ogsy
; File c:\stlport-4.6.1\stlport\stl\_string.h
;	COMDAT ?_M_terminate_string_aux@?$basic_string@DV?$char_traits@D@_STL@@V?$allocator@D@2@@_STL@@AAEXABU__true_type@2@@Z
_TEXT	SEGMENT
___formal$ = 8						; size = 4
?_M_terminate_string_aux@?$basic_string@DV?$char_traits@D@_STL@@V?$allocator@D@2@@_STL@@AAEXABU__true_type@2@@Z PROC NEAR ; _STL::basic_string<char,_STL::char_traits<char>,_STL::allocator<char> >::_M_terminate_string_aux, COMDAT
; _this$ = ecx

; 351  :     *(this->_M_finish)=0;

  00000	8b 41 04	 mov	 eax, DWORD PTR [ecx+4]
  00003	c6 00 00	 mov	 BYTE PTR [eax], 0

; 352  :   }

  00006	c2 04 00	 ret	 4
?_M_terminate_string_aux@?$basic_string@DV?$char_traits@D@_STL@@V?$allocator@D@2@@_STL@@AAEXABU__true_type@2@@Z ENDP ; _STL::basic_string<char,_STL::char_traits<char>,_STL::allocator<char> >::_M_terminate_string_aux
_TEXT	ENDS
PUBLIC	??0?$allocator@D@_STL@@QAE@ABV01@@Z		; _STL::allocator<char>::allocator<char>
; Function compile flags: /Ogsy
; File c:\stlport-4.6.1\stlport\stl\_alloc.h
;	COMDAT ??0?$allocator@D@_STL@@QAE@ABV01@@Z
_TEXT	SEGMENT
___formal$ = 8						; size = 4
??0?$allocator@D@_STL@@QAE@ABV01@@Z PROC NEAR		; _STL::allocator<char>::allocator<char>, COMDAT
; _this$ = ecx

; 349  :   allocator(const allocator<_Tp>&) _STLP_NOTHROW {}

  00000	8b c1		 mov	 eax, ecx
  00002	c2 04 00	 ret	 4
??0?$allocator@D@_STL@@QAE@ABV01@@Z ENDP		; _STL::allocator<char>::allocator<char>
_TEXT	ENDS
PUBLIC	??R?$less@G@_STL@@QBE_NABG0@Z			; _STL::less<unsigned short>::operator()
; Function compile flags: /Ogsy
; File c:\stlport-4.6.1\stlport\stl\_function_base.h
;	COMDAT ??R?$less@G@_STL@@QBE_NABG0@Z
_TEXT	SEGMENT
___x$ = 8						; size = 4
___y$ = 12						; size = 4
??R?$less@G@_STL@@QBE_NABG0@Z PROC NEAR			; _STL::less<unsigned short>::operator(), COMDAT
; _this$ = ecx

; 73   :   bool operator()(const _Tp& __x, const _Tp& __y) const { return __x < __y; }

  00000	8b 44 24 04	 mov	 eax, DWORD PTR ___x$[esp-4]
  00004	0f b7 00	 movzx	 eax, WORD PTR [eax]
  00007	8b 4c 24 08	 mov	 ecx, DWORD PTR ___y$[esp-4]
  0000b	66 3b 01	 cmp	 ax, WORD PTR [ecx]
  0000e	1b c0		 sbb	 eax, eax
  00010	f7 d8		 neg	 eax
  00012	c2 08 00	 ret	 8
??R?$less@G@_STL@@QBE_NABG0@Z ENDP			; _STL::less<unsigned short>::operator()
_TEXT	ENDS
PUBLIC	??0?$allocator@U?$pair@$$CBGUGUILD_SPRITES@MGuildMarkManager@@@_STL@@@_STL@@QAE@XZ ; _STL::allocator<_STL::pair<unsigned short const ,MGuildMarkManager::GUILD_SPRITES> >::allocator<_STL::pair<unsigned short const ,MGuildMarkManager::GUILD_SPRITES> >
; Function compile flags: /Ogsy
; File c:\stlport-4.6.1\stlport\stl\_alloc.h
;	COMDAT ??0?$allocator@U?$pair@$$CBGUGUILD_SPRITES@MGuildMarkManager@@@_STL@@@_STL@@QAE@XZ
_TEXT	SEGMENT
??0?$allocator@U?$pair@$$CBGUGUILD_SPRITES@MGuildMarkManager@@@_STL@@@_STL@@QAE@XZ PROC NEAR ; _STL::allocator<_STL::pair<unsigned short const ,MGuildMarkManager::GUILD_SPRITES> >::allocator<_STL::pair<unsigned short const ,MGuildMarkManager::GUILD_SPRITES> >, COMDAT
; _this$ = ecx

; 345  :   allocator() _STLP_NOTHROW {}

  00000	8b c1		 mov	 eax, ecx
  00002	c3		 ret	 0
??0?$allocator@U?$pair@$$CBGUGUILD_SPRITES@MGuildMarkManager@@@_STL@@@_STL@@QAE@XZ ENDP ; _STL::allocator<_STL::pair<unsigned short const ,MGuildMarkManager::GUILD_SPRITES> >::allocator<_STL::pair<unsigned short const ,MGuildMarkManager::GUILD_SPRITES> >
_TEXT	ENDS
PUBLIC	??1?$allocator@U?$pair@$$CBGUGUILD_SPRITES@MGuildMarkManager@@@_STL@@@_STL@@QAE@XZ ; _STL::allocator<_STL::pair<unsigned short const ,MGuildMarkManager::GUILD_SPRITES> >::~allocator<_STL::pair<unsigned short const ,MGuildMarkManager::GUILD_SPRITES> >
; Function compile flags: /Ogsy
;	COMDAT ??1?$allocator@U?$pair@$$CBGUGUILD_SPRITES@MGuildMarkManager@@@_STL@@@_STL@@QAE@XZ
_TEXT	SEGMENT
??1?$allocator@U?$pair@$$CBGUGUILD_SPRITES@MGuildMarkManager@@@_STL@@@_STL@@QAE@XZ PROC NEAR ; _STL::allocator<_STL::pair<unsigned short const ,MGuildMarkManager::GUILD_SPRITES> >::~allocator<_STL::pair<unsigned short const ,MGuildMarkManager::GUILD_SPRITES> >, COMDAT
; _this$ = ecx

; 350  :   ~allocator() _STLP_NOTHROW {}

  00000	c3		 ret	 0
??1?$allocator@U?$pair@$$CBGUGUILD_SPRITES@MGuildMarkManager@@@_STL@@@_STL@@QAE@XZ ENDP ; _STL::allocator<_STL::pair<unsigned short const ,MGuildMarkManager::GUILD_SPRITES> >::~allocator<_STL::pair<unsigned short const ,MGuildMarkManager::GUILD_SPRITES> >
_TEXT	ENDS
PUBLIC	??0?$_Rb_tree_iterator@U?$pair@$$CBGUGUILD_SPRITES@MGuildMarkManager@@@_STL@@U?$_Nonconst_traits@U?$pair@$$CBGUGUILD_SPRITES@MGuildMarkManager@@@_STL@@@2@@_STL@@QAE@ABU01@@Z ; _STL::_Rb_tree_iterator<_STL::pair<unsigned short const ,MGuildMarkManager::GUILD_SPRITES>,_STL::_Nonconst_traits<_STL::pair<unsigned short const ,MGuildMarkManager::GUILD_SPRITES> > >::_Rb_tree_iterator<_STL::pair<unsigned short const ,MGuildMarkManager::GUILD_SPRITES>,_STL::_Nonconst_traits<_STL::pair<unsigned short const ,MGuildMarkManager::GUILD_SPRITES> > >
; Function compile flags: /Ogsy
; File c:\stlport-4.6.1\stlport\stl\_tree.h
;	COMDAT ??0?$_Rb_tree_iterator@U?$pair@$$CBGUGUILD_SPRITES@MGuildMarkManager@@@_STL@@U?$_Nonconst_traits@U?$pair@$$CBGUGUILD_SPRITES@MGuildMarkManager@@@_STL@@@2@@_STL@@QAE@ABU01@@Z
_TEXT	SEGMENT
___it$ = 8						; size = 4
??0?$_Rb_tree_iterator@U?$pair@$$CBGUGUILD_SPRITES@MGuildMarkManager@@@_STL@@U?$_Nonconst_traits@U?$pair@$$CBGUGUILD_SPRITES@MGuildMarkManager@@@_STL@@@2@@_STL@@QAE@ABU01@@Z PROC NEAR ; _STL::_Rb_tree_iterator<_STL::pair<unsigned short const ,MGuildMarkManager::GUILD_SPRITES>,_STL::_Nonconst_traits<_STL::pair<unsigned short const ,MGuildMarkManager::GUILD_SPRITES> > >::_Rb_tree_iterator<_STL::pair<unsigned short const ,MGuildMarkManager::GUILD_SPRITES>,_STL::_Nonconst_traits<_STL::pair<unsigned short const ,MGuildMarkManager::GUILD_SPRITES> > >, COMDAT
; _this$ = ecx

; 165  :   _Rb_tree_iterator(const _Rb_tree_iterator<_Value, 

  00000	8b c1		 mov	 eax, ecx
  00002	8b 4c 24 04	 mov	 ecx, DWORD PTR ___it$[esp-4]
  00006	8b 09		 mov	 ecx, DWORD PTR [ecx]
  00008	89 08		 mov	 DWORD PTR [eax], ecx

; 166  :                     _Nonconst_traits<_Value> >& __it) { _M_node = __it._M_node; }

  0000a	c2 04 00	 ret	 4
??0?$_Rb_tree_iterator@U?$pair@$$CBGUGUILD_SPRITES@MGuildMarkManager@@@_STL@@U?$_Nonconst_traits@U?$pair@$$CBGUGUILD_SPRITES@MGuildMarkManager@@@_STL@@@2@@_STL@@QAE@ABU01@@Z ENDP ; _STL::_Rb_tree_iterator<_STL::pair<unsigned short const ,MGuildMarkManager::GUILD_SPRITES>,_STL::_Nonconst_traits<_STL::pair<unsigned short const ,MGuildMarkManager::GUILD_SPRITES> > >::_Rb_tree_iterator<_STL::pair<unsigned short const ,MGuildMarkManager::GUILD_SPRITES>,_STL::_Nonconst_traits<_STL::pair<unsigned short const ,MGuildMarkManager::GUILD_SPRITES> > >
_TEXT	ENDS
PUBLIC	??D?$_Rb_tree_iterator@U?$pair@$$CBGUGUILD_SPRITES@MGuildMarkManager@@@_STL@@U?$_Nonconst_traits@U?$pair@$$CBGUGUILD_SPRITES@MGuildMarkManager@@@_STL@@@2@@_STL@@QBEAAU?$pair@$$CBGUGUILD_SPRITES@MGuildMarkManager@@@1@XZ ; _STL::_Rb_tree_iterator<_STL::pair<unsigned short const ,MGuildMarkManager::GUILD_SPRITES>,_STL::_Nonconst_traits<_STL::pair<unsigned short const ,MGuildMarkManager::GUILD_SPRITES> > >::operator*
; Function compile flags: /Ogsy
;	COMDAT ??D?$_Rb_tree_iterator@U?$pair@$$CBGUGUILD_SPRITES@MGuildMarkManager@@@_STL@@U?$_Nonconst_traits@U?$pair@$$CBGUGUILD_SPRITES@MGuildMarkManager@@@_STL@@@2@@_STL@@QBEAAU?$pair@$$CBGUGUILD_SPRITES@MGuildMarkManager@@@1@XZ
_TEXT	SEGMENT
??D?$_Rb_tree_iterator@U?$pair@$$CBGUGUILD_SPRITES@MGuildMarkManager@@@_STL@@U?$_Nonconst_traits@U?$pair@$$CBGUGUILD_SPRITES@MGuildMarkManager@@@_STL@@@2@@_STL@@QBEAAU?$pair@$$CBGUGUILD_SPRITES@MGuildMarkManager@@@1@XZ PROC NEAR ; _STL::_Rb_tree_iterator<_STL::pair<unsigned short const ,MGuildMarkManager::GUILD_SPRITES>,_STL::_Nonconst_traits<_STL::pair<unsigned short const ,MGuildMarkManager::GUILD_SPRITES> > >::operator*, COMDAT
; _this$ = ecx

; 169  :     return _Link_type(_M_node)->_M_value_field; 

  00000	8b 01		 mov	 eax, DWORD PTR [ecx]
  00002	83 c0 10	 add	 eax, 16			; 00000010H

; 170  :   }

  00005	c3		 ret	 0
??D?$_Rb_tree_iterator@U?$pair@$$CBGUGUILD_SPRITES@MGuildMarkManager@@@_STL@@U?$_Nonconst_traits@U?$pair@$$CBGUGUILD_SPRITES@MGuildMarkManager@@@_STL@@@2@@_STL@@QBEAAU?$pair@$$CBGUGUILD_SPRITES@MGuildMarkManager@@@1@XZ ENDP ; _STL::_Rb_tree_iterator<_STL::pair<unsigned short const ,MGuildMarkManager::GUILD_SPRITES>,_STL::_Nonconst_traits<_STL::pair<unsigned short const ,MGuildMarkManager::GUILD_SPRITES> > >::operator*
_TEXT	ENDS
PUBLIC	??D?$_Rb_tree_iterator@U?$pair@$$CBGPAVGUILD_INFO@@@_STL@@U?$_Const_traits@U?$pair@$$CBGPAVGUILD_INFO@@@_STL@@@2@@_STL@@QBEABU?$pair@$$CBGPAVGUILD_INFO@@@1@XZ ; _STL::_Rb_tree_iterator<_STL::pair<unsigned short const ,GUILD_INFO *>,_STL::_Const_traits<_STL::pair<unsigned short const ,GUILD_INFO *> > >::operator*
; Function compile flags: /Ogsy
;	COMDAT ??D?$_Rb_tree_iterator@U?$pair@$$CBGPAVGUILD_INFO@@@_STL@@U?$_Const_traits@U?$pair@$$CBGPAVGUILD_INFO@@@_STL@@@2@@_STL@@QBEABU?$pair@$$CBGPAVGUILD_INFO@@@1@XZ
_TEXT	SEGMENT
??D?$_Rb_tree_iterator@U?$pair@$$CBGPAVGUILD_INFO@@@_STL@@U?$_Const_traits@U?$pair@$$CBGPAVGUILD_INFO@@@_STL@@@2@@_STL@@QBEABU?$pair@$$CBGPAVGUILD_INFO@@@1@XZ PROC NEAR ; _STL::_Rb_tree_iterator<_STL::pair<unsigned short const ,GUILD_INFO *>,_STL::_Const_traits<_STL::pair<unsigned short const ,GUILD_INFO *> > >::operator*, COMDAT
; _this$ = ecx

; 169  :     return _Link_type(_M_node)->_M_value_field; 

  00000	8b 01		 mov	 eax, DWORD PTR [ecx]
  00002	83 c0 10	 add	 eax, 16			; 00000010H

; 170  :   }

  00005	c3		 ret	 0
??D?$_Rb_tree_iterator@U?$pair@$$CBGPAVGUILD_INFO@@@_STL@@U?$_Const_traits@U?$pair@$$CBGPAVGUILD_INFO@@@_STL@@@2@@_STL@@QBEABU?$pair@$$CBGPAVGUILD_INFO@@@1@XZ ENDP ; _STL::_Rb_tree_iterator<_STL::pair<unsigned short const ,GUILD_INFO *>,_STL::_Const_traits<_STL::pair<unsigned short const ,GUILD_INFO *> > >::operator*
_TEXT	ENDS
PUBLIC	??0?$pair@$$CBGUGUILD_SPRITES@MGuildMarkManager@@@_STL@@QAE@ABGABUGUILD_SPRITES@MGuildMarkManager@@@Z ; _STL::pair<unsigned short const ,MGuildMarkManager::GUILD_SPRITES>::pair<unsigned short const ,MGuildMarkManager::GUILD_SPRITES>
; Function compile flags: /Ogsy
; File c:\stlport-4.6.1\stlport\stl\_pair.h
;	COMDAT ??0?$pair@$$CBGUGUILD_SPRITES@MGuildMarkManager@@@_STL@@QAE@ABGABUGUILD_SPRITES@MGuildMarkManager@@@Z
_TEXT	SEGMENT
___a$ = 8						; size = 4
___b$ = 12						; size = 4
??0?$pair@$$CBGUGUILD_SPRITES@MGuildMarkManager@@@_STL@@QAE@ABGABUGUILD_SPRITES@MGuildMarkManager@@@Z PROC NEAR ; _STL::pair<unsigned short const ,MGuildMarkManager::GUILD_SPRITES>::pair<unsigned short const ,MGuildMarkManager::GUILD_SPRITES>, COMDAT
; _this$ = ecx

; 48   :   pair(const _T1& __a, const _T2& __b) : first(__a), second(__b) {}

  00000	8b c1		 mov	 eax, ecx
  00002	8b 4c 24 04	 mov	 ecx, DWORD PTR ___a$[esp-4]
  00006	66 8b 09	 mov	 cx, WORD PTR [ecx]
  00009	66 89 08	 mov	 WORD PTR [eax], cx
  0000c	8b 4c 24 08	 mov	 ecx, DWORD PTR ___b$[esp-4]
  00010	8b 11		 mov	 edx, DWORD PTR [ecx]
  00012	89 50 04	 mov	 DWORD PTR [eax+4], edx
  00015	8b 49 04	 mov	 ecx, DWORD PTR [ecx+4]
  00018	89 48 08	 mov	 DWORD PTR [eax+8], ecx
  0001b	c2 08 00	 ret	 8
??0?$pair@$$CBGUGUILD_SPRITES@MGuildMarkManager@@@_STL@@QAE@ABGABUGUILD_SPRITES@MGuildMarkManager@@@Z ENDP ; _STL::pair<unsigned short const ,MGuildMarkManager::GUILD_SPRITES>::pair<unsigned short const ,MGuildMarkManager::GUILD_SPRITES>
_TEXT	ENDS
PUBLIC	?_M_root@?$_Rb_tree@GU?$pair@$$CBGUGUILD_SPRITES@MGuildMarkManager@@@_STL@@U?$_Select1st@U?$pair@$$CBGUGUILD_SPRITES@MGuildMarkManager@@@_STL@@@2@U?$less@G@2@V?$allocator@U?$pair@$$CBGUGUILD_SPRITES@MGuildMarkManager@@@_STL@@@2@@_STL@@IBEAAPAU?$_Rb_tree_node@U?$pair@$$CBGUGUILD_SPRITES@MGuildMarkManager@@@_STL@@@2@XZ ; _STL::_Rb_tree<unsigned short,_STL::pair<unsigned short const ,MGuildMarkManager::GUILD_SPRITES>,_STL::_Select1st<_STL::pair<unsigned short const ,MGuildMarkManager::GUILD_SPRITES> >,_STL::less<unsigned short>,_STL::allocator<_STL::pair<unsigned short const ,MGuildMarkManager::GUILD_SPRITES> > >::_M_root
; Function compile flags: /Ogsy
; File c:\stlport-4.6.1\stlport\stl\_tree.h
;	COMDAT ?_M_root@?$_Rb_tree@GU?$pair@$$CBGUGUILD_SPRITES@MGuildMarkManager@@@_STL@@U?$_Select1st@U?$pair@$$CBGUGUILD_SPRITES@MGuildMarkManager@@@_STL@@@2@U?$less@G@2@V?$allocator@U?$pair@$$CBGUGUILD_SPRITES@MGuildMarkManager@@@_STL@@@2@@_STL@@IBEAAPAU?$_Rb_tree_node@U?$pair@$$CBGUGUILD_SPRITES@MGuildMarkManager@@@_STL@@@2@XZ
_TEXT	SEGMENT
?_M_root@?$_Rb_tree@GU?$pair@$$CBGUGUILD_SPRITES@MGuildMarkManager@@@_STL@@U?$_Select1st@U?$pair@$$CBGUGUILD_SPRITES@MGuildMarkManager@@@_STL@@@2@U?$less@G@2@V?$allocator@U?$pair@$$CBGUGUILD_SPRITES@MGuildMarkManager@@@_STL@@@2@@_STL@@IBEAAPAU?$_Rb_tree_node@U?$pair@$$CBGUGUILD_SPRITES@MGuildMarkManager@@@_STL@@@2@XZ PROC NEAR ; _STL::_Rb_tree<unsigned short,_STL::pair<unsigned short const ,MGuildMarkManager::GUILD_SPRITES>,_STL::_Select1st<_STL::pair<unsigned short const ,MGuildMarkManager::GUILD_SPRITES> >,_STL::less<unsigned short>,_STL::allocator<_STL::pair<unsigned short const ,MGuildMarkManager::GUILD_SPRITES> > >::_M_root, COMDAT
; _this$ = ecx

; 265  :     { return (_Link_type&) this->_M_header._M_data->_M_parent; }

  00000	8b 01		 mov	 eax, DWORD PTR [ecx]
  00002	83 c0 04	 add	 eax, 4
  00005	c3		 ret	 0
?_M_root@?$_Rb_tree@GU?$pair@$$CBGUGUILD_SPRITES@MGuildMarkManager@@@_STL@@U?$_Select1st@U?$pair@$$CBGUGUILD_SPRITES@MGuildMarkManager@@@_STL@@@2@U?$less@G@2@V?$allocator@U?$pair@$$CBGUGUILD_SPRITES@MGuildMarkManager@@@_STL@@@2@@_STL@@IBEAAPAU?$_Rb_tree_node@U?$pair@$$CBGUGUILD_SPRITES@MGuildMarkManager@@@_STL@@@2@XZ ENDP ; _STL::_Rb_tree<unsigned short,_STL::pair<unsigned short const ,MGuildMarkManager::GUILD_SPRITES>,_STL::_Select1st<_STL::pair<unsigned short const ,MGuildMarkManager::GUILD_SPRITES> >,_STL::less<unsigned short>,_STL::allocator<_STL::pair<unsigned short const ,MGuildMarkManager::GUILD_SPRITES> > >::_M_root
_TEXT	ENDS
PUBLIC	?_M_leftmost@?$_Rb_tree@GU?$pair@$$CBGUGUILD_SPRITES@MGuildMarkManager@@@_STL@@U?$_Select1st@U?$pair@$$CBGUGUILD_SPRITES@MGuildMarkManager@@@_STL@@@2@U?$less@G@2@V?$allocator@U?$pair@$$CBGUGUILD_SPRITES@MGuildMarkManager@@@_STL@@@2@@_STL@@IBEAAPAU?$_Rb_tree_node@U?$pair@$$CBGUGUILD_SPRITES@MGuildMarkManager@@@_STL@@@2@XZ ; _STL::_Rb_tree<unsigned short,_STL::pair<unsigned short const ,MGuildMarkManager::GUILD_SPRITES>,_STL::_Select1st<_STL::pair<unsigned short const ,MGuildMarkManager::GUILD_SPRITES> >,_STL::less<unsigned short>,_STL::allocator<_STL::pair<unsigned short const ,MGuildMarkManager::GUILD_SPRITES> > >::_M_leftmost
; Function compile flags: /Ogsy
;	COMDAT ?_M_leftmost@?$_Rb_tree@GU?$pair@$$CBGUGUILD_SPRITES@MGuildMarkManager@@@_STL@@U?$_Select1st@U?$pair@$$CBGUGUILD_SPRITES@MGuildMarkManager@@@_STL@@@2@U?$less@G@2@V?$allocator@U?$pair@$$CBGUGUILD_SPRITES@MGuildMarkManager@@@_STL@@@2@@_STL@@IBEAAPAU?$_Rb_tree_node@U?$pair@$$CBGUGUILD_SPRITES@MGuildMarkManager@@@_STL@@@2@XZ
_TEXT	SEGMENT
?_M_leftmost@?$_Rb_tree@GU?$pair@$$CBGUGUILD_SPRITES@MGuildMarkManager@@@_STL@@U?$_Select1st@U?$pair@$$CBGUGUILD_SPRITES@MGuildMarkManager@@@_STL@@@2@U?$less@G@2@V?$allocator@U?$pair@$$CBGUGUILD_SPRITES@MGuildMarkManager@@@_STL@@@2@@_STL@@IBEAAPAU?$_Rb_tree_node@U?$pair@$$CBGUGUILD_SPRITES@MGuildMarkManager@@@_STL@@@2@XZ PROC NEAR ; _STL::_Rb_tree<unsigned short,_STL::pair<unsigned short const ,MGuildMarkManager::GUILD_SPRITES>,_STL::_Select1st<_STL::pair<unsigned short const ,MGuildMarkManager::GUILD_SPRITES> >,_STL::less<unsigned short>,_STL::allocator<_STL::pair<unsigned short const ,MGuildMarkManager::GUILD_SPRITES> > >::_M_leftmost, COMDAT
; _this$ = ecx

; 267  :     { return (_Link_type&) this->_M_header._M_data->_M_left; }

  00000	8b 01		 mov	 eax, DWORD PTR [ecx]
  00002	83 c0 08	 add	 eax, 8
  00005	c3		 ret	 0
?_M_leftmost@?$_Rb_tree@GU?$pair@$$CBGUGUILD_SPRITES@MGuildMarkManager@@@_STL@@U?$_Select1st@U?$pair@$$CBGUGUILD_SPRITES@MGuildMarkManager@@@_STL@@@2@U?$less@G@2@V?$allocator@U?$pair@$$CBGUGUILD_SPRITES@MGuildMarkManager@@@_STL@@@2@@_STL@@IBEAAPAU?$_Rb_tree_node@U?$pair@$$CBGUGUILD_SPRITES@MGuildMarkManager@@@_STL@@@2@XZ ENDP ; _STL::_Rb_tree<unsigned short,_STL::pair<unsigned short const ,MGuildMarkManager::GUILD_SPRITES>,_STL::_Select1st<_STL::pair<unsigned short const ,MGuildMarkManager::GUILD_SPRITES> >,_STL::less<unsigned short>,_STL::allocator<_STL::pair<unsigned short const ,MGuildMarkManager::GUILD_SPRITES> > >::_M_leftmost
_TEXT	ENDS
PUBLIC	?_M_rightmost@?$_Rb_tree@GU?$pair@$$CBGUGUILD_SPRITES@MGuildMarkManager@@@_STL@@U?$_Select1st@U?$pair@$$CBGUGUILD_SPRITES@MGuildMarkManager@@@_STL@@@2@U?$less@G@2@V?$allocator@U?$pair@$$CBGUGUILD_SPRITES@MGuildMarkManager@@@_STL@@@2@@_STL@@IBEAAPAU?$_Rb_tree_node@U?$pair@$$CBGUGUILD_SPRITES@MGuildMarkManager@@@_STL@@@2@XZ ; _STL::_Rb_tree<unsigned short,_STL::pair<unsigned short const ,MGuildMarkManager::GUILD_SPRITES>,_STL::_Select1st<_STL::pair<unsigned short const ,MGuildMarkManager::GUILD_SPRITES> >,_STL::less<unsigned short>,_STL::allocator<_STL::pair<unsigned short const ,MGuildMarkManager::GUILD_SPRITES> > >::_M_rightmost
; Function compile flags: /Ogsy
;	COMDAT ?_M_rightmost@?$_Rb_tree@GU?$pair@$$CBGUGUILD_SPRITES@MGuildMarkManager@@@_STL@@U?$_Select1st@U?$pair@$$CBGUGUILD_SPRITES@MGuildMarkManager@@@_STL@@@2@U?$less@G@2@V?$allocator@U?$pair@$$CBGUGUILD_SPRITES@MGuildMarkManager@@@_STL@@@2@@_STL@@IBEAAPAU?$_Rb_tree_node@U?$pair@$$CBGUGUILD_SPRITES@MGuildMarkManager@@@_STL@@@2@XZ
_TEXT	SEGMENT
?_M_rightmost@?$_Rb_tree@GU?$pair@$$CBGUGUILD_SPRITES@MGuildMarkManager@@@_STL@@U?$_Select1st@U?$pair@$$CBGUGUILD_SPRITES@MGuildMarkManager@@@_STL@@@2@U?$less@G@2@V?$allocator@U?$pair@$$CBGUGUILD_SPRITES@MGuildMarkManager@@@_STL@@@2@@_STL@@IBEAAPAU?$_Rb_tree_node@U?$pair@$$CBGUGUILD_SPRITES@MGuildMarkManager@@@_STL@@@2@XZ PROC NEAR ; _STL::_Rb_tree<unsigned short,_STL::pair<unsigned short const ,MGuildMarkManager::GUILD_SPRITES>,_STL::_Select1st<_STL::pair<unsigned short const ,MGuildMarkManager::GUILD_SPRITES> >,_STL::less<unsigned short>,_STL::allocator<_STL::pair<unsigned short const ,MGuildMarkManager::GUILD_SPRITES> > >::_M_rightmost, COMDAT
; _this$ = ecx

; 269  :     { return (_Link_type&) this->_M_header._M_data->_M_right; }

  00000	8b 01		 mov	 eax, DWORD PTR [ecx]
  00002	83 c0 0c	 add	 eax, 12			; 0000000cH
  00005	c3		 ret	 0
?_M_rightmost@?$_Rb_tree@GU?$pair@$$CBGUGUILD_SPRITES@MGuildMarkManager@@@_STL@@U?$_Select1st@U?$pair@$$CBGUGUILD_SPRITES@MGuildMarkManager@@@_STL@@@2@U?$less@G@2@V?$allocator@U?$pair@$$CBGUGUILD_SPRITES@MGuildMarkManager@@@_STL@@@2@@_STL@@IBEAAPAU?$_Rb_tree_node@U?$pair@$$CBGUGUILD_SPRITES@MGuildMarkManager@@@_STL@@@2@XZ ENDP ; _STL::_Rb_tree<unsigned short,_STL::pair<unsigned short const ,MGuildMarkManager::GUILD_SPRITES>,_STL::_Select1st<_STL::pair<unsigned short const ,MGuildMarkManager::GUILD_SPRITES> >,_STL::less<unsigned short>,_STL::allocator<_STL::pair<unsigned short const ,MGuildMarkManager::GUILD_SPRITES> > >::_M_rightmost
_TEXT	ENDS
PUBLIC	?key_comp@?$_Rb_tree@GU?$pair@$$CBGUGUILD_SPRITES@MGuildMarkManager@@@_STL@@U?$_Select1st@U?$pair@$$CBGUGUILD_SPRITES@MGuildMarkManager@@@_STL@@@2@U?$less@G@2@V?$allocator@U?$pair@$$CBGUGUILD_SPRITES@MGuildMarkManager@@@_STL@@@2@@_STL@@QBE?AU?$less@G@2@XZ ; _STL::_Rb_tree<unsigned short,_STL::pair<unsigned short const ,MGuildMarkManager::GUILD_SPRITES>,_STL::_Select1st<_STL::pair<unsigned short const ,MGuildMarkManager::GUILD_SPRITES> >,_STL::less<unsigned short>,_STL::allocator<_STL::pair<unsigned short const ,MGuildMarkManager::GUILD_SPRITES> > >::key_comp
; Function compile flags: /Ogsy
;	COMDAT ?key_comp@?$_Rb_tree@GU?$pair@$$CBGUGUILD_SPRITES@MGuildMarkManager@@@_STL@@U?$_Select1st@U?$pair@$$CBGUGUILD_SPRITES@MGuildMarkManager@@@_STL@@@2@U?$less@G@2@V?$allocator@U?$pair@$$CBGUGUILD_SPRITES@MGuildMarkManager@@@_STL@@@2@@_STL@@QBE?AU?$less@G@2@XZ
_TEXT	SEGMENT
___$ReturnUdt$ = 8					; size = 4
?key_comp@?$_Rb_tree@GU?$pair@$$CBGUGUILD_SPRITES@MGuildMarkManager@@@_STL@@U?$_Select1st@U?$pair@$$CBGUGUILD_SPRITES@MGuildMarkManager@@@_STL@@@2@U?$less@G@2@V?$allocator@U?$pair@$$CBGUGUILD_SPRITES@MGuildMarkManager@@@_STL@@@2@@_STL@@QBE?AU?$less@G@2@XZ PROC NEAR ; _STL::_Rb_tree<unsigned short,_STL::pair<unsigned short const ,MGuildMarkManager::GUILD_SPRITES>,_STL::_Select1st<_STL::pair<unsigned short const ,MGuildMarkManager::GUILD_SPRITES> >,_STL::less<unsigned short>,_STL::allocator<_STL::pair<unsigned short const ,MGuildMarkManager::GUILD_SPRITES> > >::key_comp, COMDAT
; _this$ = ecx

; 355  :   _Compare key_comp() const { return _M_key_compare; }

  00000	8b 44 24 04	 mov	 eax, DWORD PTR ___$ReturnUdt$[esp-4]
  00004	c2 04 00	 ret	 4
?key_comp@?$_Rb_tree@GU?$pair@$$CBGUGUILD_SPRITES@MGuildMarkManager@@@_STL@@U?$_Select1st@U?$pair@$$CBGUGUILD_SPRITES@MGuildMarkManager@@@_STL@@@2@U?$less@G@2@V?$allocator@U?$pair@$$CBGUGUILD_SPRITES@MGuildMarkManager@@@_STL@@@2@@_STL@@QBE?AU?$less@G@2@XZ ENDP ; _STL::_Rb_tree<unsigned short,_STL::pair<unsigned short const ,MGuildMarkManager::GUILD_SPRITES>,_STL::_Select1st<_STL::pair<unsigned short const ,MGuildMarkManager::GUILD_SPRITES> >,_STL::less<unsigned short>,_STL::allocator<_STL::pair<unsigned short const ,MGuildMarkManager::GUILD_SPRITES> > >::key_comp
_TEXT	ENDS
PUBLIC	??1?$allocator@U?$_Rb_tree_node@U?$pair@$$CBGUGUILD_SPRITES@MGuildMarkManager@@@_STL@@@_STL@@@_STL@@QAE@XZ ; _STL::allocator<_STL::_Rb_tree_node<_STL::pair<unsigned short const ,MGuildMarkManager::GUILD_SPRITES> > >::~allocator<_STL::_Rb_tree_node<_STL::pair<unsigned short const ,MGuildMarkManager::GUILD_SPRITES> > >
; Function compile flags: /Ogsy
; File c:\stlport-4.6.1\stlport\stl\_alloc.h
;	COMDAT ??1?$allocator@U?$_Rb_tree_node@U?$pair@$$CBGUGUILD_SPRITES@MGuildMarkManager@@@_STL@@@_STL@@@_STL@@QAE@XZ
_TEXT	SEGMENT
??1?$allocator@U?$_Rb_tree_node@U?$pair@$$CBGUGUILD_SPRITES@MGuildMarkManager@@@_STL@@@_STL@@@_STL@@QAE@XZ PROC NEAR ; _STL::allocator<_STL::_Rb_tree_node<_STL::pair<unsigned short const ,MGuildMarkManager::GUILD_SPRITES> > >::~allocator<_STL::_Rb_tree_node<_STL::pair<unsigned short const ,MGuildMarkManager::GUILD_SPRITES> > >, COMDAT
; _this$ = ecx

; 350  :   ~allocator() _STLP_NOTHROW {}

  00000	c3		 ret	 0
??1?$allocator@U?$_Rb_tree_node@U?$pair@$$CBGUGUILD_SPRITES@MGuildMarkManager@@@_STL@@@_STL@@@_STL@@QAE@XZ ENDP ; _STL::allocator<_STL::_Rb_tree_node<_STL::pair<unsigned short const ,MGuildMarkManager::GUILD_SPRITES> > >::~allocator<_STL::_Rb_tree_node<_STL::pair<unsigned short const ,MGuildMarkManager::GUILD_SPRITES> > >
_TEXT	ENDS
PUBLIC	??0?$_Rb_tree_iterator@U?$pair@$$CBGUGUILD_SPRITES@MGuildMarkManager@@@_STL@@U?$_Nonconst_traits@U?$pair@$$CBGUGUILD_SPRITES@MGuildMarkManager@@@_STL@@@2@@_STL@@QAE@PAU?$_Rb_tree_node@U?$pair@$$CBGUGUILD_SPRITES@MGuildMarkManager@@@_STL@@@1@@Z ; _STL::_Rb_tree_iterator<_STL::pair<unsigned short const ,MGuildMarkManager::GUILD_SPRITES>,_STL::_Nonconst_traits<_STL::pair<unsigned short const ,MGuildMarkManager::GUILD_SPRITES> > >::_Rb_tree_iterator<_STL::pair<unsigned short const ,MGuildMarkManager::GUILD_SPRITES>,_STL::_Nonconst_traits<_STL::pair<unsigned short const ,MGuildMarkManager::GUILD_SPRITES> > >
; Function compile flags: /Ogsy
; File c:\stlport-4.6.1\stlport\stl\_tree.h
;	COMDAT ??0?$_Rb_tree_iterator@U?$pair@$$CBGUGUILD_SPRITES@MGuildMarkManager@@@_STL@@U?$_Nonconst_traits@U?$pair@$$CBGUGUILD_SPRITES@MGuildMarkManager@@@_STL@@@2@@_STL@@QAE@PAU?$_Rb_tree_node@U?$pair@$$CBGUGUILD_SPRITES@MGuildMarkManager@@@_STL@@@1@@Z
_TEXT	SEGMENT
___x$ = 8						; size = 4
??0?$_Rb_tree_iterator@U?$pair@$$CBGUGUILD_SPRITES@MGuildMarkManager@@@_STL@@U?$_Nonconst_traits@U?$pair@$$CBGUGUILD_SPRITES@MGuildMarkManager@@@_STL@@@2@@_STL@@QAE@PAU?$_Rb_tree_node@U?$pair@$$CBGUGUILD_SPRITES@MGuildMarkManager@@@_STL@@@1@@Z PROC NEAR ; _STL::_Rb_tree_iterator<_STL::pair<unsigned short const ,MGuildMarkManager::GUILD_SPRITES>,_STL::_Nonconst_traits<_STL::pair<unsigned short const ,MGuildMarkManager::GUILD_SPRITES> > >::_Rb_tree_iterator<_STL::pair<unsigned short const ,MGuildMarkManager::GUILD_SPRITES>,_STL::_Nonconst_traits<_STL::pair<unsigned short const ,MGuildMarkManager::GUILD_SPRITES> > >, COMDAT
; _this$ = ecx

; 164  :   _Rb_tree_iterator(_Link_type __x) { _M_node = __x; }

  00000	8b c1		 mov	 eax, ecx
  00002	8b 4c 24 04	 mov	 ecx, DWORD PTR ___x$[esp-4]
  00006	89 08		 mov	 DWORD PTR [eax], ecx
  00008	c2 04 00	 ret	 4
??0?$_Rb_tree_iterator@U?$pair@$$CBGUGUILD_SPRITES@MGuildMarkManager@@@_STL@@U?$_Nonconst_traits@U?$pair@$$CBGUGUILD_SPRITES@MGuildMarkManager@@@_STL@@@2@@_STL@@QAE@PAU?$_Rb_tree_node@U?$pair@$$CBGUGUILD_SPRITES@MGuildMarkManager@@@_STL@@@1@@Z ENDP ; _STL::_Rb_tree_iterator<_STL::pair<unsigned short const ,MGuildMarkManager::GUILD_SPRITES>,_STL::_Nonconst_traits<_STL::pair<unsigned short const ,MGuildMarkManager::GUILD_SPRITES> > >::_Rb_tree_iterator<_STL::pair<unsigned short const ,MGuildMarkManager::GUILD_SPRITES>,_STL::_Nonconst_traits<_STL::pair<unsigned short const ,MGuildMarkManager::GUILD_SPRITES> > >
_TEXT	ENDS
PUBLIC	??0?$_Rb_tree_iterator@U?$pair@$$CBGUGUILD_SPRITES@MGuildMarkManager@@@_STL@@U?$_Const_traits@U?$pair@$$CBGUGUILD_SPRITES@MGuildMarkManager@@@_STL@@@2@@_STL@@QAE@PAU?$_Rb_tree_node@U?$pair@$$CBGUGUILD_SPRITES@MGuildMarkManager@@@_STL@@@1@@Z ; _STL::_Rb_tree_iterator<_STL::pair<unsigned short const ,MGuildMarkManager::GUILD_SPRITES>,_STL::_Const_traits<_STL::pair<unsigned short const ,MGuildMarkManager::GUILD_SPRITES> > >::_Rb_tree_iterator<_STL::pair<unsigned short const ,MGuildMarkManager::GUILD_SPRITES>,_STL::_Const_traits<_STL::pair<unsigned short const ,MGuildMarkManager::GUILD_SPRITES> > >
; Function compile flags: /Ogsy
;	COMDAT ??0?$_Rb_tree_iterator@U?$pair@$$CBGUGUILD_SPRITES@MGuildMarkManager@@@_STL@@U?$_Const_traits@U?$pair@$$CBGUGUILD_SPRITES@MGuildMarkManager@@@_STL@@@2@@_STL@@QAE@PAU?$_Rb_tree_node@U?$pair@$$CBGUGUILD_SPRITES@MGuildMarkManager@@@_STL@@@1@@Z
_TEXT	SEGMENT
___x$ = 8						; size = 4
??0?$_Rb_tree_iterator@U?$pair@$$CBGUGUILD_SPRITES@MGuildMarkManager@@@_STL@@U?$_Const_traits@U?$pair@$$CBGUGUILD_SPRITES@MGuildMarkManager@@@_STL@@@2@@_STL@@QAE@PAU?$_Rb_tree_node@U?$pair@$$CBGUGUILD_SPRITES@MGuildMarkManager@@@_STL@@@1@@Z PROC NEAR ; _STL::_Rb_tree_iterator<_STL::pair<unsigned short const ,MGuildMarkManager::GUILD_SPRITES>,_STL::_Const_traits<_STL::pair<unsigned short const ,MGuildMarkManager::GUILD_SPRITES> > >::_Rb_tree_iterator<_STL::pair<unsigned short const ,MGuildMarkManager::GUILD_SPRITES>,_STL::_Const_traits<_STL::pair<unsigned short const ,MGuildMarkManager::GUILD_SPRITES> > >, COMDAT
; _this$ = ecx

; 164  :   _Rb_tree_iterator(_Link_type __x) { _M_node = __x; }

  00000	8b c1		 mov	 eax, ecx
  00002	8b 4c 24 04	 mov	 ecx, DWORD PTR ___x$[esp-4]
  00006	89 08		 mov	 DWORD PTR [eax], ecx
  00008	c2 04 00	 ret	 4
??0?$_Rb_tree_iterator@U?$pair@$$CBGUGUILD_SPRITES@MGuildMarkManager@@@_STL@@U?$_Const_traits@U?$pair@$$CBGUGUILD_SPRITES@MGuildMarkManager@@@_STL@@@2@@_STL@@QAE@PAU?$_Rb_tree_node@U?$pair@$$CBGUGUILD_SPRITES@MGuildMarkManager@@@_STL@@@1@@Z ENDP ; _STL::_Rb_tree_iterator<_STL::pair<unsigned short const ,MGuildMarkManager::GUILD_SPRITES>,_STL::_Const_traits<_STL::pair<unsigned short const ,MGuildMarkManager::GUILD_SPRITES> > >::_Rb_tree_iterator<_STL::pair<unsigned short const ,MGuildMarkManager::GUILD_SPRITES>,_STL::_Const_traits<_STL::pair<unsigned short const ,MGuildMarkManager::GUILD_SPRITES> > >
_TEXT	ENDS
PUBLIC	??0?$_Rb_tree_iterator@U?$pair@$$CBGPAVGUILD_INFO@@@_STL@@U?$_Nonconst_traits@U?$pair@$$CBGPAVGUILD_INFO@@@_STL@@@2@@_STL@@QAE@PAU?$_Rb_tree_node@U?$pair@$$CBGPAVGUILD_INFO@@@_STL@@@1@@Z ; _STL::_Rb_tree_iterator<_STL::pair<unsigned short const ,GUILD_INFO *>,_STL::_Nonconst_traits<_STL::pair<unsigned short const ,GUILD_INFO *> > >::_Rb_tree_iterator<_STL::pair<unsigned short const ,GUILD_INFO *>,_STL::_Nonconst_traits<_STL::pair<unsigned short const ,GUILD_INFO *> > >
; Function compile flags: /Ogsy
;	COMDAT ??0?$_Rb_tree_iterator@U?$pair@$$CBGPAVGUILD_INFO@@@_STL@@U?$_Nonconst_traits@U?$pair@$$CBGPAVGUILD_INFO@@@_STL@@@2@@_STL@@QAE@PAU?$_Rb_tree_node@U?$pair@$$CBGPAVGUILD_INFO@@@_STL@@@1@@Z
_TEXT	SEGMENT
___x$ = 8						; size = 4
??0?$_Rb_tree_iterator@U?$pair@$$CBGPAVGUILD_INFO@@@_STL@@U?$_Nonconst_traits@U?$pair@$$CBGPAVGUILD_INFO@@@_STL@@@2@@_STL@@QAE@PAU?$_Rb_tree_node@U?$pair@$$CBGPAVGUILD_INFO@@@_STL@@@1@@Z PROC NEAR ; _STL::_Rb_tree_iterator<_STL::pair<unsigned short const ,GUILD_INFO *>,_STL::_Nonconst_traits<_STL::pair<unsigned short const ,GUILD_INFO *> > >::_Rb_tree_iterator<_STL::pair<unsigned short const ,GUILD_INFO *>,_STL::_Nonconst_traits<_STL::pair<unsigned short const ,GUILD_INFO *> > >, COMDAT
; _this$ = ecx

; 164  :   _Rb_tree_iterator(_Link_type __x) { _M_node = __x; }

  00000	8b c1		 mov	 eax, ecx
  00002	8b 4c 24 04	 mov	 ecx, DWORD PTR ___x$[esp-4]
  00006	89 08		 mov	 DWORD PTR [eax], ecx
  00008	c2 04 00	 ret	 4
??0?$_Rb_tree_iterator@U?$pair@$$CBGPAVGUILD_INFO@@@_STL@@U?$_Nonconst_traits@U?$pair@$$CBGPAVGUILD_INFO@@@_STL@@@2@@_STL@@QAE@PAU?$_Rb_tree_node@U?$pair@$$CBGPAVGUILD_INFO@@@_STL@@@1@@Z ENDP ; _STL::_Rb_tree_iterator<_STL::pair<unsigned short const ,GUILD_INFO *>,_STL::_Nonconst_traits<_STL::pair<unsigned short const ,GUILD_INFO *> > >::_Rb_tree_iterator<_STL::pair<unsigned short const ,GUILD_INFO *>,_STL::_Nonconst_traits<_STL::pair<unsigned short const ,GUILD_INFO *> > >
_TEXT	ENDS
PUBLIC	?_S_color@?$_Rb_tree@GU?$pair@$$CBGUGUILD_SPRITES@MGuildMarkManager@@@_STL@@U?$_Select1st@U?$pair@$$CBGUGUILD_SPRITES@MGuildMarkManager@@@_STL@@@2@U?$less@G@2@V?$allocator@U?$pair@$$CBGUGUILD_SPRITES@MGuildMarkManager@@@_STL@@@2@@_STL@@KAAA_NPAU?$_Rb_tree_node@U?$pair@$$CBGUGUILD_SPRITES@MGuildMarkManager@@@_STL@@@2@@Z ; _STL::_Rb_tree<unsigned short,_STL::pair<unsigned short const ,MGuildMarkManager::GUILD_SPRITES>,_STL::_Select1st<_STL::pair<unsigned short const ,MGuildMarkManager::GUILD_SPRITES> >,_STL::less<unsigned short>,_STL::allocator<_STL::pair<unsigned short const ,MGuildMarkManager::GUILD_SPRITES> > >::_S_color
; Function compile flags: /Ogsy
;	COMDAT ?_S_color@?$_Rb_tree@GU?$pair@$$CBGUGUILD_SPRITES@MGuildMarkManager@@@_STL@@U?$_Select1st@U?$pair@$$CBGUGUILD_SPRITES@MGuildMarkManager@@@_STL@@@2@U?$less@G@2@V?$allocator@U?$pair@$$CBGUGUILD_SPRITES@MGuildMarkManager@@@_STL@@@2@@_STL@@KAAA_NPAU?$_Rb_tree_node@U?$pair@$$CBGUGUILD_SPRITES@MGuildMarkManager@@@_STL@@@2@@Z
_TEXT	SEGMENT
___x$ = 8						; size = 4
?_S_color@?$_Rb_tree@GU?$pair@$$CBGUGUILD_SPRITES@MGuildMarkManager@@@_STL@@U?$_Select1st@U?$pair@$$CBGUGUILD_SPRITES@MGuildMarkManager@@@_STL@@@2@U?$less@G@2@V?$allocator@U?$pair@$$CBGUGUILD_SPRITES@MGuildMarkManager@@@_STL@@@2@@_STL@@KAAA_NPAU?$_Rb_tree_node@U?$pair@$$CBGUGUILD_SPRITES@MGuildMarkManager@@@_STL@@@2@@Z PROC NEAR ; _STL::_Rb_tree<unsigned short,_STL::pair<unsigned short const ,MGuildMarkManager::GUILD_SPRITES>,_STL::_Select1st<_STL::pair<unsigned short const ,MGuildMarkManager::GUILD_SPRITES> >,_STL::less<unsigned short>,_STL::allocator<_STL::pair<unsigned short const ,MGuildMarkManager::GUILD_SPRITES> > >::_S_color, COMDAT

; 282  :     { return (_Color_type&)(__x->_M_color); }

  00000	8b 44 24 04	 mov	 eax, DWORD PTR ___x$[esp-4]
  00004	c3		 ret	 0
?_S_color@?$_Rb_tree@GU?$pair@$$CBGUGUILD_SPRITES@MGuildMarkManager@@@_STL@@U?$_Select1st@U?$pair@$$CBGUGUILD_SPRITES@MGuildMarkManager@@@_STL@@@2@U?$less@G@2@V?$allocator@U?$pair@$$CBGUGUILD_SPRITES@MGuildMarkManager@@@_STL@@@2@@_STL@@KAAA_NPAU?$_Rb_tree_node@U?$pair@$$CBGUGUILD_SPRITES@MGuildMarkManager@@@_STL@@@2@@Z ENDP ; _STL::_Rb_tree<unsigned short,_STL::pair<unsigned short const ,MGuildMarkManager::GUILD_SPRITES>,_STL::_Select1st<_STL::pair<unsigned short const ,MGuildMarkManager::GUILD_SPRITES> >,_STL::less<unsigned short>,_STL::allocator<_STL::pair<unsigned short const ,MGuildMarkManager::GUILD_SPRITES> > >::_S_color
_TEXT	ENDS
PUBLIC	?_S_left@?$_Rb_tree@GU?$pair@$$CBGUGUILD_SPRITES@MGuildMarkManager@@@_STL@@U?$_Select1st@U?$pair@$$CBGUGUILD_SPRITES@MGuildMarkManager@@@_STL@@@2@U?$less@G@2@V?$allocator@U?$pair@$$CBGUGUILD_SPRITES@MGuildMarkManager@@@_STL@@@2@@_STL@@KAAAPAU?$_Rb_tree_node@U?$pair@$$CBGUGUILD_SPRITES@MGuildMarkManager@@@_STL@@@2@PAU32@@Z ; _STL::_Rb_tree<unsigned short,_STL::pair<unsigned short const ,MGuildMarkManager::GUILD_SPRITES>,_STL::_Select1st<_STL::pair<unsigned short const ,MGuildMarkManager::GUILD_SPRITES> >,_STL::less<unsigned short>,_STL::allocator<_STL::pair<unsigned short const ,MGuildMarkManager::GUILD_SPRITES> > >::_S_left
; Function compile flags: /Ogsy
;	COMDAT ?_S_left@?$_Rb_tree@GU?$pair@$$CBGUGUILD_SPRITES@MGuildMarkManager@@@_STL@@U?$_Select1st@U?$pair@$$CBGUGUILD_SPRITES@MGuildMarkManager@@@_STL@@@2@U?$less@G@2@V?$allocator@U?$pair@$$CBGUGUILD_SPRITES@MGuildMarkManager@@@_STL@@@2@@_STL@@KAAAPAU?$_Rb_tree_node@U?$pair@$$CBGUGUILD_SPRITES@MGuildMarkManager@@@_STL@@@2@PAU32@@Z
_TEXT	SEGMENT
___x$ = 8						; size = 4
?_S_left@?$_Rb_tree@GU?$pair@$$CBGUGUILD_SPRITES@MGuildMarkManager@@@_STL@@U?$_Select1st@U?$pair@$$CBGUGUILD_SPRITES@MGuildMarkManager@@@_STL@@@2@U?$less@G@2@V?$allocator@U?$pair@$$CBGUGUILD_SPRITES@MGuildMarkManager@@@_STL@@@2@@_STL@@KAAAPAU?$_Rb_tree_node@U?$pair@$$CBGUGUILD_SPRITES@MGuildMarkManager@@@_STL@@@2@PAU32@@Z PROC NEAR ; _STL::_Rb_tree<unsigned short,_STL::pair<unsigned short const ,MGuildMarkManager::GUILD_SPRITES>,_STL::_Select1st<_STL::pair<unsigned short const ,MGuildMarkManager::GUILD_SPRITES> >,_STL::less<unsigned short>,_STL::allocator<_STL::pair<unsigned short const ,MGuildMarkManager::GUILD_SPRITES> > >::_S_left, COMDAT

; 272  :     { return (_Link_type&)(__x->_M_left); }

  00000	8b 44 24 04	 mov	 eax, DWORD PTR ___x$[esp-4]
  00004	83 c0 08	 add	 eax, 8
  00007	c3		 ret	 0
?_S_left@?$_Rb_tree@GU?$pair@$$CBGUGUILD_SPRITES@MGuildMarkManager@@@_STL@@U?$_Select1st@U?$pair@$$CBGUGUILD_SPRITES@MGuildMarkManager@@@_STL@@@2@U?$less@G@2@V?$allocator@U?$pair@$$CBGUGUILD_SPRITES@MGuildMarkManager@@@_STL@@@2@@_STL@@KAAAPAU?$_Rb_tree_node@U?$pair@$$CBGUGUILD_SPRITES@MGuildMarkManager@@@_STL@@@2@PAU32@@Z ENDP ; _STL::_Rb_tree<unsigned short,_STL::pair<unsigned short const ,MGuildMarkManager::GUILD_SPRITES>,_STL::_Select1st<_STL::pair<unsigned short const ,MGuildMarkManager::GUILD_SPRITES> >,_STL::less<unsigned short>,_STL::allocator<_STL::pair<unsigned short const ,MGuildMarkManager::GUILD_SPRITES> > >::_S_left
_TEXT	ENDS
PUBLIC	?_S_right@?$_Rb_tree@GU?$pair@$$CBGUGUILD_SPRITES@MGuildMarkManager@@@_STL@@U?$_Select1st@U?$pair@$$CBGUGUILD_SPRITES@MGuildMarkManager@@@_STL@@@2@U?$less@G@2@V?$allocator@U?$pair@$$CBGUGUILD_SPRITES@MGuildMarkManager@@@_STL@@@2@@_STL@@KAAAPAU?$_Rb_tree_node@U?$pair@$$CBGUGUILD_SPRITES@MGuildMarkManager@@@_STL@@@2@PAU32@@Z ; _STL::_Rb_tree<unsigned short,_STL::pair<unsigned short const ,MGuildMarkManager::GUILD_SPRITES>,_STL::_Select1st<_STL::pair<unsigned short const ,MGuildMarkManager::GUILD_SPRITES> >,_STL::less<unsigned short>,_STL::allocator<_STL::pair<unsigned short const ,MGuildMarkManager::GUILD_SPRITES> > >::_S_right
; Function compile flags: /Ogsy
;	COMDAT ?_S_right@?$_Rb_tree@GU?$pair@$$CBGUGUILD_SPRITES@MGuildMarkManager@@@_STL@@U?$_Select1st@U?$pair@$$CBGUGUILD_SPRITES@MGuildMarkManager@@@_STL@@@2@U?$less@G@2@V?$allocator@U?$pair@$$CBGUGUILD_SPRITES@MGuildMarkManager@@@_STL@@@2@@_STL@@KAAAPAU?$_Rb_tree_node@U?$pair@$$CBGUGUILD_SPRITES@MGuildMarkManager@@@_STL@@@2@PAU32@@Z
_TEXT	SEGMENT
___x$ = 8						; size = 4
?_S_right@?$_Rb_tree@GU?$pair@$$CBGUGUILD_SPRITES@MGuildMarkManager@@@_STL@@U?$_Select1st@U?$pair@$$CBGUGUILD_SPRITES@MGuildMarkManager@@@_STL@@@2@U?$less@G@2@V?$allocator@U?$pair@$$CBGUGUILD_SPRITES@MGuildMarkManager@@@_STL@@@2@@_STL@@KAAAPAU?$_Rb_tree_node@U?$pair@$$CBGUGUILD_SPRITES@MGuildMarkManager@@@_STL@@@2@PAU32@@Z PROC NEAR ; _STL::_Rb_tree<unsigned short,_STL::pair<unsigned short const ,MGuildMarkManager::GUILD_SPRITES>,_STL::_Select1st<_STL::pair<unsigned short const ,MGuildMarkManager::GUILD_SPRITES> >,_STL::less<unsigned short>,_STL::allocator<_STL::pair<unsigned short const ,MGuildMarkManager::GUILD_SPRITES> > >::_S_right, COMDAT

; 274  :     { return (_Link_type&)(__x->_M_right); }

  00000	8b 44 24 04	 mov	 eax, DWORD PTR ___x$[esp-4]
  00004	83 c0 0c	 add	 eax, 12			; 0000000cH
  00007	c3		 ret	 0
?_S_right@?$_Rb_tree@GU?$pair@$$CBGUGUILD_SPRITES@MGuildMarkManager@@@_STL@@U?$_Select1st@U?$pair@$$CBGUGUILD_SPRITES@MGuildMarkManager@@@_STL@@@2@U?$less@G@2@V?$allocator@U?$pair@$$CBGUGUILD_SPRITES@MGuildMarkManager@@@_STL@@@2@@_STL@@KAAAPAU?$_Rb_tree_node@U?$pair@$$CBGUGUILD_SPRITES@MGuildMarkManager@@@_STL@@@2@PAU32@@Z ENDP ; _STL::_Rb_tree<unsigned short,_STL::pair<unsigned short const ,MGuildMarkManager::GUILD_SPRITES>,_STL::_Select1st<_STL::pair<unsigned short const ,MGuildMarkManager::GUILD_SPRITES> >,_STL::less<unsigned short>,_STL::allocator<_STL::pair<unsigned short const ,MGuildMarkManager::GUILD_SPRITES> > >::_S_right
_TEXT	ENDS
PUBLIC	??0?$allocator@U?$_Rb_tree_node@U?$pair@$$CBGUGUILD_SPRITES@MGuildMarkManager@@@_STL@@@_STL@@@_STL@@QAE@ABV01@@Z ; _STL::allocator<_STL::_Rb_tree_node<_STL::pair<unsigned short const ,MGuildMarkManager::GUILD_SPRITES> > >::allocator<_STL::_Rb_tree_node<_STL::pair<unsigned short const ,MGuildMarkManager::GUILD_SPRITES> > >
; Function compile flags: /Ogsy
; File c:\stlport-4.6.1\stlport\stl\_alloc.h
;	COMDAT ??0?$allocator@U?$_Rb_tree_node@U?$pair@$$CBGUGUILD_SPRITES@MGuildMarkManager@@@_STL@@@_STL@@@_STL@@QAE@ABV01@@Z
_TEXT	SEGMENT
___formal$ = 8						; size = 4
??0?$allocator@U?$_Rb_tree_node@U?$pair@$$CBGUGUILD_SPRITES@MGuildMarkManager@@@_STL@@@_STL@@@_STL@@QAE@ABV01@@Z PROC NEAR ; _STL::allocator<_STL::_Rb_tree_node<_STL::pair<unsigned short const ,MGuildMarkManager::GUILD_SPRITES> > >::allocator<_STL::_Rb_tree_node<_STL::pair<unsigned short const ,MGuildMarkManager::GUILD_SPRITES> > >, COMDAT
; _this$ = ecx

; 349  :   allocator(const allocator<_Tp>&) _STLP_NOTHROW {}

  00000	8b c1		 mov	 eax, ecx
  00002	c2 04 00	 ret	 4
??0?$allocator@U?$_Rb_tree_node@U?$pair@$$CBGUGUILD_SPRITES@MGuildMarkManager@@@_STL@@@_STL@@@_STL@@QAE@ABV01@@Z ENDP ; _STL::allocator<_STL::_Rb_tree_node<_STL::pair<unsigned short const ,MGuildMarkManager::GUILD_SPRITES> > >::allocator<_STL::_Rb_tree_node<_STL::pair<unsigned short const ,MGuildMarkManager::GUILD_SPRITES> > >
_TEXT	ENDS
PUBLIC	?_S_value@?$_Rb_tree@GU?$pair@$$CBGUGUILD_SPRITES@MGuildMarkManager@@@_STL@@U?$_Select1st@U?$pair@$$CBGUGUILD_SPRITES@MGuildMarkManager@@@_STL@@@2@U?$less@G@2@V?$allocator@U?$pair@$$CBGUGUILD_SPRITES@MGuildMarkManager@@@_STL@@@2@@_STL@@KAAAU?$pair@$$CBGUGUILD_SPRITES@MGuildMarkManager@@@2@PAU?$_Rb_tree_node@U?$pair@$$CBGUGUILD_SPRITES@MGuildMarkManager@@@_STL@@@2@@Z ; _STL::_Rb_tree<unsigned short,_STL::pair<unsigned short const ,MGuildMarkManager::GUILD_SPRITES>,_STL::_Select1st<_STL::pair<unsigned short const ,MGuildMarkManager::GUILD_SPRITES> >,_STL::less<unsigned short>,_STL::allocator<_STL::pair<unsigned short const ,MGuildMarkManager::GUILD_SPRITES> > >::_S_value
; Function compile flags: /Ogsy
; File c:\stlport-4.6.1\stlport\stl\_tree.h
;	COMDAT ?_S_value@?$_Rb_tree@GU?$pair@$$CBGUGUILD_SPRITES@MGuildMarkManager@@@_STL@@U?$_Select1st@U?$pair@$$CBGUGUILD_SPRITES@MGuildMarkManager@@@_STL@@@2@U?$less@G@2@V?$allocator@U?$pair@$$CBGUGUILD_SPRITES@MGuildMarkManager@@@_STL@@@2@@_STL@@KAAAU?$pair@$$CBGUGUILD_SPRITES@MGuildMarkManager@@@2@PAU?$_Rb_tree_node@U?$pair@$$CBGUGUILD_SPRITES@MGuildMarkManager@@@_STL@@@2@@Z
_TEXT	SEGMENT
___x$ = 8						; size = 4
?_S_value@?$_Rb_tree@GU?$pair@$$CBGUGUILD_SPRITES@MGuildMarkManager@@@_STL@@U?$_Select1st@U?$pair@$$CBGUGUILD_SPRITES@MGuildMarkManager@@@_STL@@@2@U?$less@G@2@V?$allocator@U?$pair@$$CBGUGUILD_SPRITES@MGuildMarkManager@@@_STL@@@2@@_STL@@KAAAU?$pair@$$CBGUGUILD_SPRITES@MGuildMarkManager@@@2@PAU?$_Rb_tree_node@U?$pair@$$CBGUGUILD_SPRITES@MGuildMarkManager@@@_STL@@@2@@Z PROC NEAR ; _STL::_Rb_tree<unsigned short,_STL::pair<unsigned short const ,MGuildMarkManager::GUILD_SPRITES>,_STL::_Select1st<_STL::pair<unsigned short const ,MGuildMarkManager::GUILD_SPRITES> >,_STL::less<unsigned short>,_STL::allocator<_STL::pair<unsigned short const ,MGuildMarkManager::GUILD_SPRITES> > >::_S_value, COMDAT

; 278  :     { return __x->_M_value_field; }

  00000	8b 44 24 04	 mov	 eax, DWORD PTR ___x$[esp-4]
  00004	83 c0 10	 add	 eax, 16			; 00000010H
  00007	c3		 ret	 0
?_S_value@?$_Rb_tree@GU?$pair@$$CBGUGUILD_SPRITES@MGuildMarkManager@@@_STL@@U?$_Select1st@U?$pair@$$CBGUGUILD_SPRITES@MGuildMarkManager@@@_STL@@@2@U?$less@G@2@V?$allocator@U?$pair@$$CBGUGUILD_SPRITES@MGuildMarkManager@@@_STL@@@2@@_STL@@KAAAU?$pair@$$CBGUGUILD_SPRITES@MGuildMarkManager@@@2@PAU?$_Rb_tree_node@U?$pair@$$CBGUGUILD_SPRITES@MGuildMarkManager@@@_STL@@@2@@Z ENDP ; _STL::_Rb_tree<unsigned short,_STL::pair<unsigned short const ,MGuildMarkManager::GUILD_SPRITES>,_STL::_Select1st<_STL::pair<unsigned short const ,MGuildMarkManager::GUILD_SPRITES> >,_STL::less<unsigned short>,_STL::allocator<_STL::pair<unsigned short const ,MGuildMarkManager::GUILD_SPRITES> > >::_S_value
_TEXT	ENDS
PUBLIC	??R?$_Select1st@U?$pair@$$CBGUGUILD_SPRITES@MGuildMarkManager@@@_STL@@@_STL@@QBEABGABU?$pair@$$CBGUGUILD_SPRITES@MGuildMarkManager@@@1@@Z ; _STL::_Select1st<_STL::pair<unsigned short const ,MGuildMarkManager::GUILD_SPRITES> >::operator()
; Function compile flags: /Ogsy
; File c:\stlport-4.6.1\stlport\stl\_function_base.h
;	COMDAT ??R?$_Select1st@U?$pair@$$CBGUGUILD_SPRITES@MGuildMarkManager@@@_STL@@@_STL@@QBEABGABU?$pair@$$CBGUGUILD_SPRITES@MGuildMarkManager@@@1@@Z
_TEXT	SEGMENT
___x$ = 8						; size = 4
??R?$_Select1st@U?$pair@$$CBGUGUILD_SPRITES@MGuildMarkManager@@@_STL@@@_STL@@QBEABGABU?$pair@$$CBGUGUILD_SPRITES@MGuildMarkManager@@@1@@Z PROC NEAR ; _STL::_Select1st<_STL::pair<unsigned short const ,MGuildMarkManager::GUILD_SPRITES> >::operator(), COMDAT
; _this$ = ecx

; 153  :     return __x.first;

  00000	8b 44 24 04	 mov	 eax, DWORD PTR ___x$[esp-4]

; 154  :   }

  00004	c2 04 00	 ret	 4
??R?$_Select1st@U?$pair@$$CBGUGUILD_SPRITES@MGuildMarkManager@@@_STL@@@_STL@@QBEABGABU?$pair@$$CBGUGUILD_SPRITES@MGuildMarkManager@@@1@@Z ENDP ; _STL::_Select1st<_STL::pair<unsigned short const ,MGuildMarkManager::GUILD_SPRITES> >::operator()
_TEXT	ENDS
PUBLIC	??$?0U?$pair@$$CBGUGUILD_SPRITES@MGuildMarkManager@@@_STL@@@?$allocator@U?$_Rb_tree_node@U?$pair@$$CBGUGUILD_SPRITES@MGuildMarkManager@@@_STL@@@_STL@@@_STL@@QAE@ABV?$allocator@U?$pair@$$CBGUGUILD_SPRITES@MGuildMarkManager@@@_STL@@@1@@Z ; _STL::allocator<_STL::_Rb_tree_node<_STL::pair<unsigned short const ,MGuildMarkManager::GUILD_SPRITES> > >::allocator<_STL::_Rb_tree_node<_STL::pair<unsigned short const ,MGuildMarkManager::GUILD_SPRITES> > ><_STL::pair<unsigned short const ,MGuildMarkManager::GUILD_SPRITES> >
; Function compile flags: /Ogsy
; File c:\stlport-4.6.1\stlport\stl\_alloc.h
;	COMDAT ??$?0U?$pair@$$CBGUGUILD_SPRITES@MGuildMarkManager@@@_STL@@@?$allocator@U?$_Rb_tree_node@U?$pair@$$CBGUGUILD_SPRITES@MGuildMarkManager@@@_STL@@@_STL@@@_STL@@QAE@ABV?$allocator@U?$pair@$$CBGUGUILD_SPRITES@MGuildMarkManager@@@_STL@@@1@@Z
_TEXT	SEGMENT
___formal$ = 8						; size = 4
??$?0U?$pair@$$CBGUGUILD_SPRITES@MGuildMarkManager@@@_STL@@@?$allocator@U?$_Rb_tree_node@U?$pair@$$CBGUGUILD_SPRITES@MGuildMarkManager@@@_STL@@@_STL@@@_STL@@QAE@ABV?$allocator@U?$pair@$$CBGUGUILD_SPRITES@MGuildMarkManager@@@_STL@@@1@@Z PROC NEAR ; _STL::allocator<_STL::_Rb_tree_node<_STL::pair<unsigned short const ,MGuildMarkManager::GUILD_SPRITES> > >::allocator<_STL::_Rb_tree_node<_STL::pair<unsigned short const ,MGuildMarkManager::GUILD_SPRITES> > ><_STL::pair<unsigned short const ,MGuildMarkManager::GUILD_SPRITES> >, COMDAT
; _this$ = ecx

; 347  :   template <class _Tp1> allocator(const allocator<_Tp1>&) _STLP_NOTHROW {}

  00000	8b c1		 mov	 eax, ecx
  00002	c2 04 00	 ret	 4
??$?0U?$pair@$$CBGUGUILD_SPRITES@MGuildMarkManager@@@_STL@@@?$allocator@U?$_Rb_tree_node@U?$pair@$$CBGUGUILD_SPRITES@MGuildMarkManager@@@_STL@@@_STL@@@_STL@@QAE@ABV?$allocator@U?$pair@$$CBGUGUILD_SPRITES@MGuildMarkManager@@@_STL@@@1@@Z ENDP ; _STL::allocator<_STL::_Rb_tree_node<_STL::pair<unsigned short const ,MGuildMarkManager::GUILD_SPRITES> > >::allocator<_STL::_Rb_tree_node<_STL::pair<unsigned short const ,MGuildMarkManager::GUILD_SPRITES> > ><_STL::pair<unsigned short const ,MGuildMarkManager::GUILD_SPRITES> >
_TEXT	ENDS
PUBLIC	??1CSprite565@@QAE@XZ				; CSprite565::~CSprite565
EXTRN	??1CSprite@@QAE@XZ:NEAR				; CSprite::~CSprite
; Function compile flags: /Ogsy
;	COMDAT ??1CSprite565@@QAE@XZ
_TEXT	SEGMENT
??1CSprite565@@QAE@XZ PROC NEAR				; CSprite565::~CSprite565, COMDAT
; _this$ = ecx
  00000	e9 00 00 00 00	 jmp	 ??1CSprite@@QAE@XZ	; CSprite::~CSprite
??1CSprite565@@QAE@XZ ENDP				; CSprite565::~CSprite565
_TEXT	ENDS
PUBLIC	??1CSprite555@@QAE@XZ				; CSprite555::~CSprite555
; Function compile flags: /Ogsy
;	COMDAT ??1CSprite555@@QAE@XZ
_TEXT	SEGMENT
??1CSprite555@@QAE@XZ PROC NEAR				; CSprite555::~CSprite555, COMDAT
; _this$ = ecx
  00000	e9 00 00 00 00	 jmp	 ??1CSprite@@QAE@XZ	; CSprite::~CSprite
??1CSprite555@@QAE@XZ ENDP				; CSprite555::~CSprite555
_TEXT	ENDS
PUBLIC	??_ECSprite@@QAEPAXI@Z				; CSprite::`vector deleting destructor'
EXTRN	??_M@YGXPAXIHP6EX0@Z@Z:NEAR			; `eh vector destructor iterator'
EXTRN	??_V@YAXPAX@Z:NEAR				; operator delete[]
; Function compile flags: /Ogsy
;	COMDAT ??_ECSprite@@QAEPAXI@Z
_TEXT	SEGMENT
___flags$ = 8						; size = 4
??_ECSprite@@QAEPAXI@Z PROC NEAR			; CSprite::`vector deleting destructor', COMDAT
; _this$ = ecx
  00000	53		 push	 ebx
  00001	8a 5c 24 08	 mov	 bl, BYTE PTR ___flags$[esp]
  00005	f6 c3 02	 test	 bl, 2
  00008	56		 push	 esi
  00009	8b f1		 mov	 esi, ecx
  0000b	74 24		 je	 SHORT $L108678
  0000d	57		 push	 edi
  0000e	68 00 00 00 00	 push	 OFFSET FLAT:??1CSprite@@QAE@XZ ; CSprite::~CSprite
  00013	8d 7e fc	 lea	 edi, DWORD PTR [esi-4]
  00016	ff 37		 push	 DWORD PTR [edi]
  00018	6a 10		 push	 16			; 00000010H
  0001a	56		 push	 esi
  0001b	e8 00 00 00 00	 call	 ??_M@YGXPAXIHP6EX0@Z@Z
  00020	f6 c3 01	 test	 bl, 1
  00023	74 07		 je	 SHORT $L108679
  00025	57		 push	 edi
  00026	e8 00 00 00 00	 call	 ??_V@YAXPAX@Z		; operator delete[]
  0002b	59		 pop	 ecx
$L108679:
  0002c	8b c7		 mov	 eax, edi
  0002e	5f		 pop	 edi
  0002f	eb 15		 jmp	 SHORT $L108677
$L108678:
  00031	8b ce		 mov	 ecx, esi
  00033	e8 00 00 00 00	 call	 ??1CSprite@@QAE@XZ	; CSprite::~CSprite
  00038	f6 c3 01	 test	 bl, 1
  0003b	74 07		 je	 SHORT $L108681
  0003d	56		 push	 esi
  0003e	e8 00 00 00 00	 call	 ??3@YAXPAX@Z		; operator delete
  00043	59		 pop	 ecx
$L108681:
  00044	8b c6		 mov	 eax, esi
$L108677:
  00046	5e		 pop	 esi
  00047	5b		 pop	 ebx
  00048	c2 04 00	 ret	 4
??_ECSprite@@QAEPAXI@Z ENDP				; CSprite::`vector deleting destructor'
_TEXT	ENDS
PUBLIC	?_S_right@?$_Rb_tree@GU?$pair@$$CBGUGUILD_SPRITES@MGuildMarkManager@@@_STL@@U?$_Select1st@U?$pair@$$CBGUGUILD_SPRITES@MGuildMarkManager@@@_STL@@@2@U?$less@G@2@V?$allocator@U?$pair@$$CBGUGUILD_SPRITES@MGuildMarkManager@@@_STL@@@2@@_STL@@KAAAPAU?$_Rb_tree_node@U?$pair@$$CBGUGUILD_SPRITES@MGuildMarkManager@@@_STL@@@2@PAU_Rb_tree_node_base@2@@Z ; _STL::_Rb_tree<unsigned short,_STL::pair<unsigned short const ,MGuildMarkManager::GUILD_SPRITES>,_STL::_Select1st<_STL::pair<unsigned short const ,MGuildMarkManager::GUILD_SPRITES> >,_STL::less<unsigned short>,_STL::allocator<_STL::pair<unsigned short const ,MGuildMarkManager::GUILD_SPRITES> > >::_S_right
; Function compile flags: /Ogsy
; File c:\stlport-4.6.1\stlport\stl\_tree.h
;	COMDAT ?_S_right@?$_Rb_tree@GU?$pair@$$CBGUGUILD_SPRITES@MGuildMarkManager@@@_STL@@U?$_Select1st@U?$pair@$$CBGUGUILD_SPRITES@MGuildMarkManager@@@_STL@@@2@U?$less@G@2@V?$allocator@U?$pair@$$CBGUGUILD_SPRITES@MGuildMarkManager@@@_STL@@@2@@_STL@@KAAAPAU?$_Rb_tree_node@U?$pair@$$CBGUGUILD_SPRITES@MGuildMarkManager@@@_STL@@@2@PAU_Rb_tree_node_base@2@@Z
_TEXT	SEGMENT
___x$ = 8						; size = 4
?_S_right@?$_Rb_tree@GU?$pair@$$CBGUGUILD_SPRITES@MGuildMarkManager@@@_STL@@U?$_Select1st@U?$pair@$$CBGUGUILD_SPRITES@MGuildMarkManager@@@_STL@@@2@U?$less@G@2@V?$allocator@U?$pair@$$CBGUGUILD_SPRITES@MGuildMarkManager@@@_STL@@@2@@_STL@@KAAAPAU?$_Rb_tree_node@U?$pair@$$CBGUGUILD_SPRITES@MGuildMarkManager@@@_STL@@@2@PAU_Rb_tree_node_base@2@@Z PROC NEAR ; _STL::_Rb_tree<unsigned short,_STL::pair<unsigned short const ,MGuildMarkManager::GUILD_SPRITES>,_STL::_Select1st<_STL::pair<unsigned short const ,MGuildMarkManager::GUILD_SPRITES> >,_STL::less<unsigned short>,_STL::allocator<_STL::pair<unsigned short const ,MGuildMarkManager::GUILD_SPRITES> > >::_S_right, COMDAT

; 287  :     { return (_Link_type&)(__x->_M_right); }

  00000	8b 44 24 04	 mov	 eax, DWORD PTR ___x$[esp-4]
  00004	83 c0 0c	 add	 eax, 12			; 0000000cH
  00007	c3		 ret	 0
?_S_right@?$_Rb_tree@GU?$pair@$$CBGUGUILD_SPRITES@MGuildMarkManager@@@_STL@@U?$_Select1st@U?$pair@$$CBGUGUILD_SPRITES@MGuildMarkManager@@@_STL@@@2@U?$less@G@2@V?$allocator@U?$pair@$$CBGUGUILD_SPRITES@MGuildMarkManager@@@_STL@@@2@@_STL@@KAAAPAU?$_Rb_tree_node@U?$pair@$$CBGUGUILD_SPRITES@MGuildMarkManager@@@_STL@@@2@PAU_Rb_tree_node_base@2@@Z ENDP ; _STL::_Rb_tree<unsigned short,_STL::pair<unsigned short const ,MGuildMarkManager::GUILD_SPRITES>,_STL::_Select1st<_STL::pair<unsigned short const ,MGuildMarkManager::GUILD_SPRITES> >,_STL::less<unsigned short>,_STL::allocator<_STL::pair<unsigned short const ,MGuildMarkManager::GUILD_SPRITES> > >::_S_right
_TEXT	ENDS
PUBLIC	?_S_key@?$_Rb_tree@GU?$pair@$$CBGUGUILD_SPRITES@MGuildMarkManager@@@_STL@@U?$_Select1st@U?$pair@$$CBGUGUILD_SPRITES@MGuildMarkManager@@@_STL@@@2@U?$less@G@2@V?$allocator@U?$pair@$$CBGUGUILD_SPRITES@MGuildMarkManager@@@_STL@@@2@@_STL@@KAABGPAU_Rb_tree_node_base@2@@Z ; _STL::_Rb_tree<unsigned short,_STL::pair<unsigned short const ,MGuildMarkManager::GUILD_SPRITES>,_STL::_Select1st<_STL::pair<unsigned short const ,MGuildMarkManager::GUILD_SPRITES> >,_STL::less<unsigned short>,_STL::allocator<_STL::pair<unsigned short const ,MGuildMarkManager::GUILD_SPRITES> > >::_S_key
; Function compile flags: /Ogsy
;	COMDAT ?_S_key@?$_Rb_tree@GU?$pair@$$CBGUGUILD_SPRITES@MGuildMarkManager@@@_STL@@U?$_Select1st@U?$pair@$$CBGUGUILD_SPRITES@MGuildMarkManager@@@_STL@@@2@U?$less@G@2@V?$allocator@U?$pair@$$CBGUGUILD_SPRITES@MGuildMarkManager@@@_STL@@@2@@_STL@@KAABGPAU_Rb_tree_node_base@2@@Z
_TEXT	SEGMENT
___x$ = 8						; size = 4
?_S_key@?$_Rb_tree@GU?$pair@$$CBGUGUILD_SPRITES@MGuildMarkManager@@@_STL@@U?$_Select1st@U?$pair@$$CBGUGUILD_SPRITES@MGuildMarkManager@@@_STL@@@2@U?$less@G@2@V?$allocator@U?$pair@$$CBGUGUILD_SPRITES@MGuildMarkManager@@@_STL@@@2@@_STL@@KAABGPAU_Rb_tree_node_base@2@@Z PROC NEAR ; _STL::_Rb_tree<unsigned short,_STL::pair<unsigned short const ,MGuildMarkManager::GUILD_SPRITES>,_STL::_Select1st<_STL::pair<unsigned short const ,MGuildMarkManager::GUILD_SPRITES> >,_STL::less<unsigned short>,_STL::allocator<_STL::pair<unsigned short const ,MGuildMarkManager::GUILD_SPRITES> > >::_S_key, COMDAT

; 293  :     { return _KeyOfValue()(_S_value(_Link_type(__x)));} 

  00000	8b 44 24 04	 mov	 eax, DWORD PTR ___x$[esp-4]
  00004	83 c0 10	 add	 eax, 16			; 00000010H
  00007	c3		 ret	 0
?_S_key@?$_Rb_tree@GU?$pair@$$CBGUGUILD_SPRITES@MGuildMarkManager@@@_STL@@U?$_Select1st@U?$pair@$$CBGUGUILD_SPRITES@MGuildMarkManager@@@_STL@@@2@U?$less@G@2@V?$allocator@U?$pair@$$CBGUGUILD_SPRITES@MGuildMarkManager@@@_STL@@@2@@_STL@@KAABGPAU_Rb_tree_node_base@2@@Z ENDP ; _STL::_Rb_tree<unsigned short,_STL::pair<unsigned short const ,MGuildMarkManager::GUILD_SPRITES>,_STL::_Select1st<_STL::pair<unsigned short const ,MGuildMarkManager::GUILD_SPRITES> >,_STL::less<unsigned short>,_STL::allocator<_STL::pair<unsigned short const ,MGuildMarkManager::GUILD_SPRITES> > >::_S_key
_TEXT	ENDS
PUBLIC	?size@?$_Rb_tree@GU?$pair@$$CBGUGUILD_SPRITES@MGuildMarkManager@@@_STL@@U?$_Select1st@U?$pair@$$CBGUGUILD_SPRITES@MGuildMarkManager@@@_STL@@@2@U?$less@G@2@V?$allocator@U?$pair@$$CBGUGUILD_SPRITES@MGuildMarkManager@@@_STL@@@2@@_STL@@QBEIXZ ; _STL::_Rb_tree<unsigned short,_STL::pair<unsigned short const ,MGuildMarkManager::GUILD_SPRITES>,_STL::_Select1st<_STL::pair<unsigned short const ,MGuildMarkManager::GUILD_SPRITES> >,_STL::less<unsigned short>,_STL::allocator<_STL::pair<unsigned short const ,MGuildMarkManager::GUILD_SPRITES> > >::size
; Function compile flags: /Ogsy
;	COMDAT ?size@?$_Rb_tree@GU?$pair@$$CBGUGUILD_SPRITES@MGuildMarkManager@@@_STL@@U?$_Select1st@U?$pair@$$CBGUGUILD_SPRITES@MGuildMarkManager@@@_STL@@@2@U?$less@G@2@V?$allocator@U?$pair@$$CBGUGUILD_SPRITES@MGuildMarkManager@@@_STL@@@2@@_STL@@QBEIXZ
_TEXT	SEGMENT
?size@?$_Rb_tree@GU?$pair@$$CBGUGUILD_SPRITES@MGuildMarkManager@@@_STL@@U?$_Select1st@U?$pair@$$CBGUGUILD_SPRITES@MGuildMarkManager@@@_STL@@@2@U?$less@G@2@V?$allocator@U?$pair@$$CBGUGUILD_SPRITES@MGuildMarkManager@@@_STL@@@2@@_STL@@QBEIXZ PROC NEAR ; _STL::_Rb_tree<unsigned short,_STL::pair<unsigned short const ,MGuildMarkManager::GUILD_SPRITES>,_STL::_Select1st<_STL::pair<unsigned short const ,MGuildMarkManager::GUILD_SPRITES> >,_STL::less<unsigned short>,_STL::allocator<_STL::pair<unsigned short const ,MGuildMarkManager::GUILD_SPRITES> > >::size, COMDAT
; _this$ = ecx

; 371  :   size_type size() const { return _M_node_count; }

  00000	8b 41 04	 mov	 eax, DWORD PTR [ecx+4]
  00003	c3		 ret	 0
?size@?$_Rb_tree@GU?$pair@$$CBGUGUILD_SPRITES@MGuildMarkManager@@@_STL@@U?$_Select1st@U?$pair@$$CBGUGUILD_SPRITES@MGuildMarkManager@@@_STL@@@2@U?$less@G@2@V?$allocator@U?$pair@$$CBGUGUILD_SPRITES@MGuildMarkManager@@@_STL@@@2@@_STL@@QBEIXZ ENDP ; _STL::_Rb_tree<unsigned short,_STL::pair<unsigned short const ,MGuildMarkManager::GUILD_SPRITES>,_STL::_Select1st<_STL::pair<unsigned short const ,MGuildMarkManager::GUILD_SPRITES> >,_STL::less<unsigned short>,_STL::allocator<_STL::pair<unsigned short const ,MGuildMarkManager::GUILD_SPRITES> > >::size
_TEXT	ENDS
PUBLIC	??E?$_Rb_tree_iterator@U?$pair@$$CBGUGUILD_SPRITES@MGuildMarkManager@@@_STL@@U?$_Nonconst_traits@U?$pair@$$CBGUGUILD_SPRITES@MGuildMarkManager@@@_STL@@@2@@_STL@@QAEAAU01@XZ ; _STL::_Rb_tree_iterator<_STL::pair<unsigned short const ,MGuildMarkManager::GUILD_SPRITES>,_STL::_Nonconst_traits<_STL::pair<unsigned short const ,MGuildMarkManager::GUILD_SPRITES> > >::operator++
EXTRN	?_M_increment@?$_Rb_global@_N@_STL@@SAPAU_Rb_tree_node_base@2@PAU32@@Z:NEAR ; _STL::_Rb_global<bool>::_M_increment
; Function compile flags: /Ogsy
;	COMDAT ??E?$_Rb_tree_iterator@U?$pair@$$CBGUGUILD_SPRITES@MGuildMarkManager@@@_STL@@U?$_Nonconst_traits@U?$pair@$$CBGUGUILD_SPRITES@MGuildMarkManager@@@_STL@@@2@@_STL@@QAEAAU01@XZ
_TEXT	SEGMENT
??E?$_Rb_tree_iterator@U?$pair@$$CBGUGUILD_SPRITES@MGuildMarkManager@@@_STL@@U?$_Nonconst_traits@U?$pair@$$CBGUGUILD_SPRITES@MGuildMarkManager@@@_STL@@@2@@_STL@@QAEAAU01@XZ PROC NEAR ; _STL::_Rb_tree_iterator<_STL::pair<unsigned short const ,MGuildMarkManager::GUILD_SPRITES>,_STL::_Nonconst_traits<_STL::pair<unsigned short const ,MGuildMarkManager::GUILD_SPRITES> > >::operator++, COMDAT
; _this$ = ecx

; 174  :   _Self& operator++() { _M_node = _Rb_global_inst::_M_increment(_M_node); return *this; }

  00000	56		 push	 esi
  00001	8b f1		 mov	 esi, ecx
  00003	ff 36		 push	 DWORD PTR [esi]
  00005	e8 00 00 00 00	 call	 ?_M_increment@?$_Rb_global@_N@_STL@@SAPAU_Rb_tree_node_base@2@PAU32@@Z ; _STL::_Rb_global<bool>::_M_increment
  0000a	89 06		 mov	 DWORD PTR [esi], eax
  0000c	59		 pop	 ecx
  0000d	8b c6		 mov	 eax, esi
  0000f	5e		 pop	 esi
  00010	c3		 ret	 0
??E?$_Rb_tree_iterator@U?$pair@$$CBGUGUILD_SPRITES@MGuildMarkManager@@@_STL@@U?$_Nonconst_traits@U?$pair@$$CBGUGUILD_SPRITES@MGuildMarkManager@@@_STL@@@2@@_STL@@QAEAAU01@XZ ENDP ; _STL::_Rb_tree_iterator<_STL::pair<unsigned short const ,MGuildMarkManager::GUILD_SPRITES>,_STL::_Nonconst_traits<_STL::pair<unsigned short const ,MGuildMarkManager::GUILD_SPRITES> > >::operator++
_TEXT	ENDS
PUBLIC	??F?$_Rb_tree_iterator@U?$pair@$$CBGUGUILD_SPRITES@MGuildMarkManager@@@_STL@@U?$_Nonconst_traits@U?$pair@$$CBGUGUILD_SPRITES@MGuildMarkManager@@@_STL@@@2@@_STL@@QAEAAU01@XZ ; _STL::_Rb_tree_iterator<_STL::pair<unsigned short const ,MGuildMarkManager::GUILD_SPRITES>,_STL::_Nonconst_traits<_STL::pair<unsigned short const ,MGuildMarkManager::GUILD_SPRITES> > >::operator--
EXTRN	?_M_decrement@?$_Rb_global@_N@_STL@@SAPAU_Rb_tree_node_base@2@PAU32@@Z:NEAR ; _STL::_Rb_global<bool>::_M_decrement
; Function compile flags: /Ogsy
;	COMDAT ??F?$_Rb_tree_iterator@U?$pair@$$CBGUGUILD_SPRITES@MGuildMarkManager@@@_STL@@U?$_Nonconst_traits@U?$pair@$$CBGUGUILD_SPRITES@MGuildMarkManager@@@_STL@@@2@@_STL@@QAEAAU01@XZ
_TEXT	SEGMENT
??F?$_Rb_tree_iterator@U?$pair@$$CBGUGUILD_SPRITES@MGuildMarkManager@@@_STL@@U?$_Nonconst_traits@U?$pair@$$CBGUGUILD_SPRITES@MGuildMarkManager@@@_STL@@@2@@_STL@@QAEAAU01@XZ PROC NEAR ; _STL::_Rb_tree_iterator<_STL::pair<unsigned short const ,MGuildMarkManager::GUILD_SPRITES>,_STL::_Nonconst_traits<_STL::pair<unsigned short const ,MGuildMarkManager::GUILD_SPRITES> > >::operator--, COMDAT
; _this$ = ecx

; 181  :   _Self& operator--() { _M_node = _Rb_global_inst::_M_decrement(_M_node); return *this; }

  00000	56		 push	 esi
  00001	8b f1		 mov	 esi, ecx
  00003	ff 36		 push	 DWORD PTR [esi]
  00005	e8 00 00 00 00	 call	 ?_M_decrement@?$_Rb_global@_N@_STL@@SAPAU_Rb_tree_node_base@2@PAU32@@Z ; _STL::_Rb_global<bool>::_M_decrement
  0000a	89 06		 mov	 DWORD PTR [esi], eax
  0000c	59		 pop	 ecx
  0000d	8b c6		 mov	 eax, esi
  0000f	5e		 pop	 esi
  00010	c3		 ret	 0
??F?$_Rb_tree_iterator@U?$pair@$$CBGUGUILD_SPRITES@MGuildMarkManager@@@_STL@@U?$_Nonconst_traits@U?$pair@$$CBGUGUILD_SPRITES@MGuildMarkManager@@@_STL@@@2@@_STL@@QAEAAU01@XZ ENDP ; _STL::_Rb_tree_iterator<_STL::pair<unsigned short const ,MGuildMarkManager::GUILD_SPRITES>,_STL::_Nonconst_traits<_STL::pair<unsigned short const ,MGuildMarkManager::GUILD_SPRITES> > >::operator--
_TEXT	ENDS
PUBLIC	??0?$allocator@U?$pair@$$CBGPAVivfstream@@@_STL@@@_STL@@QAE@XZ ; _STL::allocator<_STL::pair<unsigned short const ,ivfstream *> >::allocator<_STL::pair<unsigned short const ,ivfstream *> >
; Function compile flags: /Ogsy
; File c:\stlport-4.6.1\stlport\stl\_alloc.h
;	COMDAT ??0?$allocator@U?$pair@$$CBGPAVivfstream@@@_STL@@@_STL@@QAE@XZ
_TEXT	SEGMENT
??0?$allocator@U?$pair@$$CBGPAVivfstream@@@_STL@@@_STL@@QAE@XZ PROC NEAR ; _STL::allocator<_STL::pair<unsigned short const ,ivfstream *> >::allocator<_STL::pair<unsigned short const ,ivfstream *> >, COMDAT
; _this$ = ecx

; 345  :   allocator() _STLP_NOTHROW {}

  00000	8b c1		 mov	 eax, ecx
  00002	c3		 ret	 0
??0?$allocator@U?$pair@$$CBGPAVivfstream@@@_STL@@@_STL@@QAE@XZ ENDP ; _STL::allocator<_STL::pair<unsigned short const ,ivfstream *> >::allocator<_STL::pair<unsigned short const ,ivfstream *> >
_TEXT	ENDS
PUBLIC	??1?$allocator@U?$pair@$$CBGPAVivfstream@@@_STL@@@_STL@@QAE@XZ ; _STL::allocator<_STL::pair<unsigned short const ,ivfstream *> >::~allocator<_STL::pair<unsigned short const ,ivfstream *> >
; Function compile flags: /Ogsy
;	COMDAT ??1?$allocator@U?$pair@$$CBGPAVivfstream@@@_STL@@@_STL@@QAE@XZ
_TEXT	SEGMENT
??1?$allocator@U?$pair@$$CBGPAVivfstream@@@_STL@@@_STL@@QAE@XZ PROC NEAR ; _STL::allocator<_STL::pair<unsigned short const ,ivfstream *> >::~allocator<_STL::pair<unsigned short const ,ivfstream *> >, COMDAT
; _this$ = ecx

; 350  :   ~allocator() _STLP_NOTHROW {}

  00000	c3		 ret	 0
??1?$allocator@U?$pair@$$CBGPAVivfstream@@@_STL@@@_STL@@QAE@XZ ENDP ; _STL::allocator<_STL::pair<unsigned short const ,ivfstream *> >::~allocator<_STL::pair<unsigned short const ,ivfstream *> >
_TEXT	ENDS
PUBLIC	?_M_root@?$_Rb_tree@GU?$pair@$$CBGPAVivfstream@@@_STL@@U?$_Select1st@U?$pair@$$CBGPAVivfstream@@@_STL@@@2@U?$less@G@2@V?$allocator@U?$pair@$$CBGPAVivfstream@@@_STL@@@2@@_STL@@IBEAAPAU?$_Rb_tree_node@U?$pair@$$CBGPAVivfstream@@@_STL@@@2@XZ ; _STL::_Rb_tree<unsigned short,_STL::pair<unsigned short const ,ivfstream *>,_STL::_Select1st<_STL::pair<unsigned short const ,ivfstream *> >,_STL::less<unsigned short>,_STL::allocator<_STL::pair<unsigned short const ,ivfstream *> > >::_M_root
; Function compile flags: /Ogsy
; File c:\stlport-4.6.1\stlport\stl\_tree.h
;	COMDAT ?_M_root@?$_Rb_tree@GU?$pair@$$CBGPAVivfstream@@@_STL@@U?$_Select1st@U?$pair@$$CBGPAVivfstream@@@_STL@@@2@U?$less@G@2@V?$allocator@U?$pair@$$CBGPAVivfstream@@@_STL@@@2@@_STL@@IBEAAPAU?$_Rb_tree_node@U?$pair@$$CBGPAVivfstream@@@_STL@@@2@XZ
_TEXT	SEGMENT
?_M_root@?$_Rb_tree@GU?$pair@$$CBGPAVivfstream@@@_STL@@U?$_Select1st@U?$pair@$$CBGPAVivfstream@@@_STL@@@2@U?$less@G@2@V?$allocator@U?$pair@$$CBGPAVivfstream@@@_STL@@@2@@_STL@@IBEAAPAU?$_Rb_tree_node@U?$pair@$$CBGPAVivfstream@@@_STL@@@2@XZ PROC NEAR ; _STL::_Rb_tree<unsigned short,_STL::pair<unsigned short const ,ivfstream *>,_STL::_Select1st<_STL::pair<unsigned short const ,ivfstream *> >,_STL::less<unsigned short>,_STL::allocator<_STL::pair<unsigned short const ,ivfstream *> > >::_M_root, COMDAT
; _this$ = ecx

; 265  :     { return (_Link_type&) this->_M_header._M_data->_M_parent; }

  00000	8b 01		 mov	 eax, DWORD PTR [ecx]
  00002	83 c0 04	 add	 eax, 4
  00005	c3		 ret	 0
?_M_root@?$_Rb_tree@GU?$pair@$$CBGPAVivfstream@@@_STL@@U?$_Select1st@U?$pair@$$CBGPAVivfstream@@@_STL@@@2@U?$less@G@2@V?$allocator@U?$pair@$$CBGPAVivfstream@@@_STL@@@2@@_STL@@IBEAAPAU?$_Rb_tree_node@U?$pair@$$CBGPAVivfstream@@@_STL@@@2@XZ ENDP ; _STL::_Rb_tree<unsigned short,_STL::pair<unsigned short const ,ivfstream *>,_STL::_Select1st<_STL::pair<unsigned short const ,ivfstream *> >,_STL::less<unsigned short>,_STL::allocator<_STL::pair<unsigned short const ,ivfstream *> > >::_M_root
_TEXT	ENDS
PUBLIC	?_M_leftmost@?$_Rb_tree@GU?$pair@$$CBGPAVivfstream@@@_STL@@U?$_Select1st@U?$pair@$$CBGPAVivfstream@@@_STL@@@2@U?$less@G@2@V?$allocator@U?$pair@$$CBGPAVivfstream@@@_STL@@@2@@_STL@@IBEAAPAU?$_Rb_tree_node@U?$pair@$$CBGPAVivfstream@@@_STL@@@2@XZ ; _STL::_Rb_tree<unsigned short,_STL::pair<unsigned short const ,ivfstream *>,_STL::_Select1st<_STL::pair<unsigned short const ,ivfstream *> >,_STL::less<unsigned short>,_STL::allocator<_STL::pair<unsigned short const ,ivfstream *> > >::_M_leftmost
; Function compile flags: /Ogsy
;	COMDAT ?_M_leftmost@?$_Rb_tree@GU?$pair@$$CBGPAVivfstream@@@_STL@@U?$_Select1st@U?$pair@$$CBGPAVivfstream@@@_STL@@@2@U?$less@G@2@V?$allocator@U?$pair@$$CBGPAVivfstream@@@_STL@@@2@@_STL@@IBEAAPAU?$_Rb_tree_node@U?$pair@$$CBGPAVivfstream@@@_STL@@@2@XZ
_TEXT	SEGMENT
?_M_leftmost@?$_Rb_tree@GU?$pair@$$CBGPAVivfstream@@@_STL@@U?$_Select1st@U?$pair@$$CBGPAVivfstream@@@_STL@@@2@U?$less@G@2@V?$allocator@U?$pair@$$CBGPAVivfstream@@@_STL@@@2@@_STL@@IBEAAPAU?$_Rb_tree_node@U?$pair@$$CBGPAVivfstream@@@_STL@@@2@XZ PROC NEAR ; _STL::_Rb_tree<unsigned short,_STL::pair<unsigned short const ,ivfstream *>,_STL::_Select1st<_STL::pair<unsigned short const ,ivfstream *> >,_STL::less<unsigned short>,_STL::allocator<_STL::pair<unsigned short const ,ivfstream *> > >::_M_leftmost, COMDAT
; _this$ = ecx

; 267  :     { return (_Link_type&) this->_M_header._M_data->_M_left; }

  00000	8b 01		 mov	 eax, DWORD PTR [ecx]
  00002	83 c0 08	 add	 eax, 8
  00005	c3		 ret	 0
?_M_leftmost@?$_Rb_tree@GU?$pair@$$CBGPAVivfstream@@@_STL@@U?$_Select1st@U?$pair@$$CBGPAVivfstream@@@_STL@@@2@U?$less@G@2@V?$allocator@U?$pair@$$CBGPAVivfstream@@@_STL@@@2@@_STL@@IBEAAPAU?$_Rb_tree_node@U?$pair@$$CBGPAVivfstream@@@_STL@@@2@XZ ENDP ; _STL::_Rb_tree<unsigned short,_STL::pair<unsigned short const ,ivfstream *>,_STL::_Select1st<_STL::pair<unsigned short const ,ivfstream *> >,_STL::less<unsigned short>,_STL::allocator<_STL::pair<unsigned short const ,ivfstream *> > >::_M_leftmost
_TEXT	ENDS
PUBLIC	?_M_rightmost@?$_Rb_tree@GU?$pair@$$CBGPAVivfstream@@@_STL@@U?$_Select1st@U?$pair@$$CBGPAVivfstream@@@_STL@@@2@U?$less@G@2@V?$allocator@U?$pair@$$CBGPAVivfstream@@@_STL@@@2@@_STL@@IBEAAPAU?$_Rb_tree_node@U?$pair@$$CBGPAVivfstream@@@_STL@@@2@XZ ; _STL::_Rb_tree<unsigned short,_STL::pair<unsigned short const ,ivfstream *>,_STL::_Select1st<_STL::pair<unsigned short const ,ivfstream *> >,_STL::less<unsigned short>,_STL::allocator<_STL::pair<unsigned short const ,ivfstream *> > >::_M_rightmost
; Function compile flags: /Ogsy
;	COMDAT ?_M_rightmost@?$_Rb_tree@GU?$pair@$$CBGPAVivfstream@@@_STL@@U?$_Select1st@U?$pair@$$CBGPAVivfstream@@@_STL@@@2@U?$less@G@2@V?$allocator@U?$pair@$$CBGPAVivfstream@@@_STL@@@2@@_STL@@IBEAAPAU?$_Rb_tree_node@U?$pair@$$CBGPAVivfstream@@@_STL@@@2@XZ
_TEXT	SEGMENT
?_M_rightmost@?$_Rb_tree@GU?$pair@$$CBGPAVivfstream@@@_STL@@U?$_Select1st@U?$pair@$$CBGPAVivfstream@@@_STL@@@2@U?$less@G@2@V?$allocator@U?$pair@$$CBGPAVivfstream@@@_STL@@@2@@_STL@@IBEAAPAU?$_Rb_tree_node@U?$pair@$$CBGPAVivfstream@@@_STL@@@2@XZ PROC NEAR ; _STL::_Rb_tree<unsigned short,_STL::pair<unsigned short const ,ivfstream *>,_STL::_Select1st<_STL::pair<unsigned short const ,ivfstream *> >,_STL::less<unsigned short>,_STL::allocator<_STL::pair<unsigned short const ,ivfstream *> > >::_M_rightmost, COMDAT
; _this$ = ecx

; 269  :     { return (_Link_type&) this->_M_header._M_data->_M_right; }

  00000	8b 01		 mov	 eax, DWORD PTR [ecx]
  00002	83 c0 0c	 add	 eax, 12			; 0000000cH
  00005	c3		 ret	 0
?_M_rightmost@?$_Rb_tree@GU?$pair@$$CBGPAVivfstream@@@_STL@@U?$_Select1st@U?$pair@$$CBGPAVivfstream@@@_STL@@@2@U?$less@G@2@V?$allocator@U?$pair@$$CBGPAVivfstream@@@_STL@@@2@@_STL@@IBEAAPAU?$_Rb_tree_node@U?$pair@$$CBGPAVivfstream@@@_STL@@@2@XZ ENDP ; _STL::_Rb_tree<unsigned short,_STL::pair<unsigned short const ,ivfstream *>,_STL::_Select1st<_STL::pair<unsigned short const ,ivfstream *> >,_STL::less<unsigned short>,_STL::allocator<_STL::pair<unsigned short const ,ivfstream *> > >::_M_rightmost
_TEXT	ENDS
PUBLIC	??1?$allocator@U?$_Rb_tree_node@U?$pair@$$CBGPAVivfstream@@@_STL@@@_STL@@@_STL@@QAE@XZ ; _STL::allocator<_STL::_Rb_tree_node<_STL::pair<unsigned short const ,ivfstream *> > >::~allocator<_STL::_Rb_tree_node<_STL::pair<unsigned short const ,ivfstream *> > >
; Function compile flags: /Ogsy
; File c:\stlport-4.6.1\stlport\stl\_alloc.h
;	COMDAT ??1?$allocator@U?$_Rb_tree_node@U?$pair@$$CBGPAVivfstream@@@_STL@@@_STL@@@_STL@@QAE@XZ
_TEXT	SEGMENT
??1?$allocator@U?$_Rb_tree_node@U?$pair@$$CBGPAVivfstream@@@_STL@@@_STL@@@_STL@@QAE@XZ PROC NEAR ; _STL::allocator<_STL::_Rb_tree_node<_STL::pair<unsigned short const ,ivfstream *> > >::~allocator<_STL::_Rb_tree_node<_STL::pair<unsigned short const ,ivfstream *> > >, COMDAT
; _this$ = ecx

; 350  :   ~allocator() _STLP_NOTHROW {}

  00000	c3		 ret	 0
??1?$allocator@U?$_Rb_tree_node@U?$pair@$$CBGPAVivfstream@@@_STL@@@_STL@@@_STL@@QAE@XZ ENDP ; _STL::allocator<_STL::_Rb_tree_node<_STL::pair<unsigned short const ,ivfstream *> > >::~allocator<_STL::_Rb_tree_node<_STL::pair<unsigned short const ,ivfstream *> > >
_TEXT	ENDS
PUBLIC	?_S_color@?$_Rb_tree@GU?$pair@$$CBGPAVivfstream@@@_STL@@U?$_Select1st@U?$pair@$$CBGPAVivfstream@@@_STL@@@2@U?$less@G@2@V?$allocator@U?$pair@$$CBGPAVivfstream@@@_STL@@@2@@_STL@@KAAA_NPAU?$_Rb_tree_node@U?$pair@$$CBGPAVivfstream@@@_STL@@@2@@Z ; _STL::_Rb_tree<unsigned short,_STL::pair<unsigned short const ,ivfstream *>,_STL::_Select1st<_STL::pair<unsigned short const ,ivfstream *> >,_STL::less<unsigned short>,_STL::allocator<_STL::pair<unsigned short const ,ivfstream *> > >::_S_color
; Function compile flags: /Ogsy
; File c:\stlport-4.6.1\stlport\stl\_tree.h
;	COMDAT ?_S_color@?$_Rb_tree@GU?$pair@$$CBGPAVivfstream@@@_STL@@U?$_Select1st@U?$pair@$$CBGPAVivfstream@@@_STL@@@2@U?$less@G@2@V?$allocator@U?$pair@$$CBGPAVivfstream@@@_STL@@@2@@_STL@@KAAA_NPAU?$_Rb_tree_node@U?$pair@$$CBGPAVivfstream@@@_STL@@@2@@Z
_TEXT	SEGMENT
___x$ = 8						; size = 4
?_S_color@?$_Rb_tree@GU?$pair@$$CBGPAVivfstream@@@_STL@@U?$_Select1st@U?$pair@$$CBGPAVivfstream@@@_STL@@@2@U?$less@G@2@V?$allocator@U?$pair@$$CBGPAVivfstream@@@_STL@@@2@@_STL@@KAAA_NPAU?$_Rb_tree_node@U?$pair@$$CBGPAVivfstream@@@_STL@@@2@@Z PROC NEAR ; _STL::_Rb_tree<unsigned short,_STL::pair<unsigned short const ,ivfstream *>,_STL::_Select1st<_STL::pair<unsigned short const ,ivfstream *> >,_STL::less<unsigned short>,_STL::allocator<_STL::pair<unsigned short const ,ivfstream *> > >::_S_color, COMDAT

; 282  :     { return (_Color_type&)(__x->_M_color); }

  00000	8b 44 24 04	 mov	 eax, DWORD PTR ___x$[esp-4]
  00004	c3		 ret	 0
?_S_color@?$_Rb_tree@GU?$pair@$$CBGPAVivfstream@@@_STL@@U?$_Select1st@U?$pair@$$CBGPAVivfstream@@@_STL@@@2@U?$less@G@2@V?$allocator@U?$pair@$$CBGPAVivfstream@@@_STL@@@2@@_STL@@KAAA_NPAU?$_Rb_tree_node@U?$pair@$$CBGPAVivfstream@@@_STL@@@2@@Z ENDP ; _STL::_Rb_tree<unsigned short,_STL::pair<unsigned short const ,ivfstream *>,_STL::_Select1st<_STL::pair<unsigned short const ,ivfstream *> >,_STL::less<unsigned short>,_STL::allocator<_STL::pair<unsigned short const ,ivfstream *> > >::_S_color
_TEXT	ENDS
PUBLIC	??0?$allocator@U?$_Rb_tree_node@U?$pair@$$CBGPAVivfstream@@@_STL@@@_STL@@@_STL@@QAE@ABV01@@Z ; _STL::allocator<_STL::_Rb_tree_node<_STL::pair<unsigned short const ,ivfstream *> > >::allocator<_STL::_Rb_tree_node<_STL::pair<unsigned short const ,ivfstream *> > >
; Function compile flags: /Ogsy
; File c:\stlport-4.6.1\stlport\stl\_alloc.h
;	COMDAT ??0?$allocator@U?$_Rb_tree_node@U?$pair@$$CBGPAVivfstream@@@_STL@@@_STL@@@_STL@@QAE@ABV01@@Z
_TEXT	SEGMENT
___formal$ = 8						; size = 4
??0?$allocator@U?$_Rb_tree_node@U?$pair@$$CBGPAVivfstream@@@_STL@@@_STL@@@_STL@@QAE@ABV01@@Z PROC NEAR ; _STL::allocator<_STL::_Rb_tree_node<_STL::pair<unsigned short const ,ivfstream *> > >::allocator<_STL::_Rb_tree_node<_STL::pair<unsigned short const ,ivfstream *> > >, COMDAT
; _this$ = ecx

; 349  :   allocator(const allocator<_Tp>&) _STLP_NOTHROW {}

  00000	8b c1		 mov	 eax, ecx
  00002	c2 04 00	 ret	 4
??0?$allocator@U?$_Rb_tree_node@U?$pair@$$CBGPAVivfstream@@@_STL@@@_STL@@@_STL@@QAE@ABV01@@Z ENDP ; _STL::allocator<_STL::_Rb_tree_node<_STL::pair<unsigned short const ,ivfstream *> > >::allocator<_STL::_Rb_tree_node<_STL::pair<unsigned short const ,ivfstream *> > >
_TEXT	ENDS
PUBLIC	??$_Destroy@U?$pair@$$CBGUGUILD_SPRITES@MGuildMarkManager@@@_STL@@@_STL@@YAXPAU?$pair@$$CBGUGUILD_SPRITES@MGuildMarkManager@@@0@@Z ; _STL::_Destroy<_STL::pair<unsigned short const ,MGuildMarkManager::GUILD_SPRITES> >
; Function compile flags: /Ogsy
; File c:\stlport-4.6.1\stlport\stl\_construct.h
;	COMDAT ??$_Destroy@U?$pair@$$CBGUGUILD_SPRITES@MGuildMarkManager@@@_STL@@@_STL@@YAXPAU?$pair@$$CBGUGUILD_SPRITES@MGuildMarkManager@@@0@@Z
_TEXT	SEGMENT
___pointer$ = 8						; size = 4
??$_Destroy@U?$pair@$$CBGUGUILD_SPRITES@MGuildMarkManager@@@_STL@@@_STL@@YAXPAU?$pair@$$CBGUGUILD_SPRITES@MGuildMarkManager@@@0@@Z PROC NEAR ; _STL::_Destroy<_STL::pair<unsigned short const ,MGuildMarkManager::GUILD_SPRITES> >, COMDAT

; 57   : # if _MSC_VER >= 1010
; 58   :   __pointer;
; 59   : # endif	// _MSC_VER >= 1000
; 60   : # ifdef _STLP_TRIVIAL_DESTRUCTOR_BUG
; 61   :   typedef typename __type_traits<_Tp>::has_trivial_destructor _Trivial_destructor;
; 62   :   __destroy_aux(__pointer, _Trivial_destructor());
; 63   : # else
; 64   : #  if ( defined (__BORLANDC__) && ( __BORLANDC__ < 0x500 ) )
; 65   :     __pointer->_Tp::~_Tp();
; 66   : #  else
; 67   :     __pointer->~_Tp();
; 68   : #  endif
; 69   : # endif
; 70   : # ifdef _STLP_DEBUG_UNINITIALIZED
; 71   : 	memset((char*)__pointer, _STLP_SHRED_BYTE, sizeof(_Tp));
; 72   : # endif
; 73   : }

  00000	c3		 ret	 0
??$_Destroy@U?$pair@$$CBGUGUILD_SPRITES@MGuildMarkManager@@@_STL@@@_STL@@YAXPAU?$pair@$$CBGUGUILD_SPRITES@MGuildMarkManager@@@0@@Z ENDP ; _STL::_Destroy<_STL::pair<unsigned short const ,MGuildMarkManager::GUILD_SPRITES> >
_TEXT	ENDS
PUBLIC	??$_Destroy@U?$pair@$$CBGPAVivfstream@@@_STL@@@_STL@@YAXPAU?$pair@$$CBGPAVivfstream@@@0@@Z ; _STL::_Destroy<_STL::pair<unsigned short const ,ivfstream *> >
; Function compile flags: /Ogsy
;	COMDAT ??$_Destroy@U?$pair@$$CBGPAVivfstream@@@_STL@@@_STL@@YAXPAU?$pair@$$CBGPAVivfstream@@@0@@Z
_TEXT	SEGMENT
___pointer$ = 8						; size = 4
??$_Destroy@U?$pair@$$CBGPAVivfstream@@@_STL@@@_STL@@YAXPAU?$pair@$$CBGPAVivfstream@@@0@@Z PROC NEAR ; _STL::_Destroy<_STL::pair<unsigned short const ,ivfstream *> >, COMDAT

; 57   : # if _MSC_VER >= 1010
; 58   :   __pointer;
; 59   : # endif	// _MSC_VER >= 1000
; 60   : # ifdef _STLP_TRIVIAL_DESTRUCTOR_BUG
; 61   :   typedef typename __type_traits<_Tp>::has_trivial_destructor _Trivial_destructor;
; 62   :   __destroy_aux(__pointer, _Trivial_destructor());
; 63   : # else
; 64   : #  if ( defined (__BORLANDC__) && ( __BORLANDC__ < 0x500 ) )
; 65   :     __pointer->_Tp::~_Tp();
; 66   : #  else
; 67   :     __pointer->~_Tp();
; 68   : #  endif
; 69   : # endif
; 70   : # ifdef _STLP_DEBUG_UNINITIALIZED
; 71   : 	memset((char*)__pointer, _STLP_SHRED_BYTE, sizeof(_Tp));
; 72   : # endif
; 73   : }

  00000	c3		 ret	 0
??$_Destroy@U?$pair@$$CBGPAVivfstream@@@_STL@@@_STL@@YAXPAU?$pair@$$CBGPAVivfstream@@@0@@Z ENDP ; _STL::_Destroy<_STL::pair<unsigned short const ,ivfstream *> >
_TEXT	ENDS
PUBLIC	??$?0U?$pair@$$CBGPAVivfstream@@@_STL@@@?$allocator@U?$_Rb_tree_node@U?$pair@$$CBGPAVivfstream@@@_STL@@@_STL@@@_STL@@QAE@ABV?$allocator@U?$pair@$$CBGPAVivfstream@@@_STL@@@1@@Z ; _STL::allocator<_STL::_Rb_tree_node<_STL::pair<unsigned short const ,ivfstream *> > >::allocator<_STL::_Rb_tree_node<_STL::pair<unsigned short const ,ivfstream *> > ><_STL::pair<unsigned short const ,ivfstream *> >
; Function compile flags: /Ogsy
; File c:\stlport-4.6.1\stlport\stl\_alloc.h
;	COMDAT ??$?0U?$pair@$$CBGPAVivfstream@@@_STL@@@?$allocator@U?$_Rb_tree_node@U?$pair@$$CBGPAVivfstream@@@_STL@@@_STL@@@_STL@@QAE@ABV?$allocator@U?$pair@$$CBGPAVivfstream@@@_STL@@@1@@Z
_TEXT	SEGMENT
___formal$ = 8						; size = 4
??$?0U?$pair@$$CBGPAVivfstream@@@_STL@@@?$allocator@U?$_Rb_tree_node@U?$pair@$$CBGPAVivfstream@@@_STL@@@_STL@@@_STL@@QAE@ABV?$allocator@U?$pair@$$CBGPAVivfstream@@@_STL@@@1@@Z PROC NEAR ; _STL::allocator<_STL::_Rb_tree_node<_STL::pair<unsigned short const ,ivfstream *> > >::allocator<_STL::_Rb_tree_node<_STL::pair<unsigned short const ,ivfstream *> > ><_STL::pair<unsigned short const ,ivfstream *> >, COMDAT
; _this$ = ecx

; 347  :   template <class _Tp1> allocator(const allocator<_Tp1>&) _STLP_NOTHROW {}

  00000	8b c1		 mov	 eax, ecx
  00002	c2 04 00	 ret	 4
??$?0U?$pair@$$CBGPAVivfstream@@@_STL@@@?$allocator@U?$_Rb_tree_node@U?$pair@$$CBGPAVivfstream@@@_STL@@@_STL@@@_STL@@QAE@ABV?$allocator@U?$pair@$$CBGPAVivfstream@@@_STL@@@1@@Z ENDP ; _STL::allocator<_STL::_Rb_tree_node<_STL::pair<unsigned short const ,ivfstream *> > >::allocator<_STL::_Rb_tree_node<_STL::pair<unsigned short const ,ivfstream *> > ><_STL::pair<unsigned short const ,ivfstream *> >
_TEXT	ENDS
PUBLIC	?_S_left@?$_Rb_tree@GU?$pair@$$CBGPAVivfstream@@@_STL@@U?$_Select1st@U?$pair@$$CBGPAVivfstream@@@_STL@@@2@U?$less@G@2@V?$allocator@U?$pair@$$CBGPAVivfstream@@@_STL@@@2@@_STL@@KAAAPAU?$_Rb_tree_node@U?$pair@$$CBGPAVivfstream@@@_STL@@@2@PAU32@@Z ; _STL::_Rb_tree<unsigned short,_STL::pair<unsigned short const ,ivfstream *>,_STL::_Select1st<_STL::pair<unsigned short const ,ivfstream *> >,_STL::less<unsigned short>,_STL::allocator<_STL::pair<unsigned short const ,ivfstream *> > >::_S_left
; Function compile flags: /Ogsy
; File c:\stlport-4.6.1\stlport\stl\_tree.h
;	COMDAT ?_S_left@?$_Rb_tree@GU?$pair@$$CBGPAVivfstream@@@_STL@@U?$_Select1st@U?$pair@$$CBGPAVivfstream@@@_STL@@@2@U?$less@G@2@V?$allocator@U?$pair@$$CBGPAVivfstream@@@_STL@@@2@@_STL@@KAAAPAU?$_Rb_tree_node@U?$pair@$$CBGPAVivfstream@@@_STL@@@2@PAU32@@Z
_TEXT	SEGMENT
___x$ = 8						; size = 4
?_S_left@?$_Rb_tree@GU?$pair@$$CBGPAVivfstream@@@_STL@@U?$_Select1st@U?$pair@$$CBGPAVivfstream@@@_STL@@@2@U?$less@G@2@V?$allocator@U?$pair@$$CBGPAVivfstream@@@_STL@@@2@@_STL@@KAAAPAU?$_Rb_tree_node@U?$pair@$$CBGPAVivfstream@@@_STL@@@2@PAU32@@Z PROC NEAR ; _STL::_Rb_tree<unsigned short,_STL::pair<unsigned short const ,ivfstream *>,_STL::_Select1st<_STL::pair<unsigned short const ,ivfstream *> >,_STL::less<unsigned short>,_STL::allocator<_STL::pair<unsigned short const ,ivfstream *> > >::_S_left, COMDAT

; 272  :     { return (_Link_type&)(__x->_M_left); }

  00000	8b 44 24 04	 mov	 eax, DWORD PTR ___x$[esp-4]
  00004	83 c0 08	 add	 eax, 8
  00007	c3		 ret	 0
?_S_left@?$_Rb_tree@GU?$pair@$$CBGPAVivfstream@@@_STL@@U?$_Select1st@U?$pair@$$CBGPAVivfstream@@@_STL@@@2@U?$less@G@2@V?$allocator@U?$pair@$$CBGPAVivfstream@@@_STL@@@2@@_STL@@KAAAPAU?$_Rb_tree_node@U?$pair@$$CBGPAVivfstream@@@_STL@@@2@PAU32@@Z ENDP ; _STL::_Rb_tree<unsigned short,_STL::pair<unsigned short const ,ivfstream *>,_STL::_Select1st<_STL::pair<unsigned short const ,ivfstream *> >,_STL::less<unsigned short>,_STL::allocator<_STL::pair<unsigned short const ,ivfstream *> > >::_S_left
_TEXT	ENDS
PUBLIC	?_S_right@?$_Rb_tree@GU?$pair@$$CBGPAVivfstream@@@_STL@@U?$_Select1st@U?$pair@$$CBGPAVivfstream@@@_STL@@@2@U?$less@G@2@V?$allocator@U?$pair@$$CBGPAVivfstream@@@_STL@@@2@@_STL@@KAAAPAU?$_Rb_tree_node@U?$pair@$$CBGPAVivfstream@@@_STL@@@2@PAU32@@Z ; _STL::_Rb_tree<unsigned short,_STL::pair<unsigned short const ,ivfstream *>,_STL::_Select1st<_STL::pair<unsigned short const ,ivfstream *> >,_STL::less<unsigned short>,_STL::allocator<_STL::pair<unsigned short const ,ivfstream *> > >::_S_right
; Function compile flags: /Ogsy
;	COMDAT ?_S_right@?$_Rb_tree@GU?$pair@$$CBGPAVivfstream@@@_STL@@U?$_Select1st@U?$pair@$$CBGPAVivfstream@@@_STL@@@2@U?$less@G@2@V?$allocator@U?$pair@$$CBGPAVivfstream@@@_STL@@@2@@_STL@@KAAAPAU?$_Rb_tree_node@U?$pair@$$CBGPAVivfstream@@@_STL@@@2@PAU32@@Z
_TEXT	SEGMENT
___x$ = 8						; size = 4
?_S_right@?$_Rb_tree@GU?$pair@$$CBGPAVivfstream@@@_STL@@U?$_Select1st@U?$pair@$$CBGPAVivfstream@@@_STL@@@2@U?$less@G@2@V?$allocator@U?$pair@$$CBGPAVivfstream@@@_STL@@@2@@_STL@@KAAAPAU?$_Rb_tree_node@U?$pair@$$CBGPAVivfstream@@@_STL@@@2@PAU32@@Z PROC NEAR ; _STL::_Rb_tree<unsigned short,_STL::pair<unsigned short const ,ivfstream *>,_STL::_Select1st<_STL::pair<unsigned short const ,ivfstream *> >,_STL::less<unsigned short>,_STL::allocator<_STL::pair<unsigned short const ,ivfstream *> > >::_S_right, COMDAT

; 274  :     { return (_Link_type&)(__x->_M_right); }

  00000	8b 44 24 04	 mov	 eax, DWORD PTR ___x$[esp-4]
  00004	83 c0 0c	 add	 eax, 12			; 0000000cH
  00007	c3		 ret	 0
?_S_right@?$_Rb_tree@GU?$pair@$$CBGPAVivfstream@@@_STL@@U?$_Select1st@U?$pair@$$CBGPAVivfstream@@@_STL@@@2@U?$less@G@2@V?$allocator@U?$pair@$$CBGPAVivfstream@@@_STL@@@2@@_STL@@KAAAPAU?$_Rb_tree_node@U?$pair@$$CBGPAVivfstream@@@_STL@@@2@PAU32@@Z ENDP ; _STL::_Rb_tree<unsigned short,_STL::pair<unsigned short const ,ivfstream *>,_STL::_Select1st<_STL::pair<unsigned short const ,ivfstream *> >,_STL::less<unsigned short>,_STL::allocator<_STL::pair<unsigned short const ,ivfstream *> > >::_S_right
_TEXT	ENDS
PUBLIC	?_S_parent@?$_Rb_tree@GU?$pair@$$CBGUGUILD_SPRITES@MGuildMarkManager@@@_STL@@U?$_Select1st@U?$pair@$$CBGUGUILD_SPRITES@MGuildMarkManager@@@_STL@@@2@U?$less@G@2@V?$allocator@U?$pair@$$CBGUGUILD_SPRITES@MGuildMarkManager@@@_STL@@@2@@_STL@@KAAAPAU?$_Rb_tree_node@U?$pair@$$CBGUGUILD_SPRITES@MGuildMarkManager@@@_STL@@@2@PAU32@@Z ; _STL::_Rb_tree<unsigned short,_STL::pair<unsigned short const ,MGuildMarkManager::GUILD_SPRITES>,_STL::_Select1st<_STL::pair<unsigned short const ,MGuildMarkManager::GUILD_SPRITES> >,_STL::less<unsigned short>,_STL::allocator<_STL::pair<unsigned short const ,MGuildMarkManager::GUILD_SPRITES> > >::_S_parent
; Function compile flags: /Ogsy
;	COMDAT ?_S_parent@?$_Rb_tree@GU?$pair@$$CBGUGUILD_SPRITES@MGuildMarkManager@@@_STL@@U?$_Select1st@U?$pair@$$CBGUGUILD_SPRITES@MGuildMarkManager@@@_STL@@@2@U?$less@G@2@V?$allocator@U?$pair@$$CBGUGUILD_SPRITES@MGuildMarkManager@@@_STL@@@2@@_STL@@KAAAPAU?$_Rb_tree_node@U?$pair@$$CBGUGUILD_SPRITES@MGuildMarkManager@@@_STL@@@2@PAU32@@Z
_TEXT	SEGMENT
___x$ = 8						; size = 4
?_S_parent@?$_Rb_tree@GU?$pair@$$CBGUGUILD_SPRITES@MGuildMarkManager@@@_STL@@U?$_Select1st@U?$pair@$$CBGUGUILD_SPRITES@MGuildMarkManager@@@_STL@@@2@U?$less@G@2@V?$allocator@U?$pair@$$CBGUGUILD_SPRITES@MGuildMarkManager@@@_STL@@@2@@_STL@@KAAAPAU?$_Rb_tree_node@U?$pair@$$CBGUGUILD_SPRITES@MGuildMarkManager@@@_STL@@@2@PAU32@@Z PROC NEAR ; _STL::_Rb_tree<unsigned short,_STL::pair<unsigned short const ,MGuildMarkManager::GUILD_SPRITES>,_STL::_Select1st<_STL::pair<unsigned short const ,MGuildMarkManager::GUILD_SPRITES> >,_STL::less<unsigned short>,_STL::allocator<_STL::pair<unsigned short const ,MGuildMarkManager::GUILD_SPRITES> > >::_S_parent, COMDAT

; 276  :     { return (_Link_type&)(__x->_M_parent); }

  00000	8b 44 24 04	 mov	 eax, DWORD PTR ___x$[esp-4]
  00004	83 c0 04	 add	 eax, 4
  00007	c3		 ret	 0
?_S_parent@?$_Rb_tree@GU?$pair@$$CBGUGUILD_SPRITES@MGuildMarkManager@@@_STL@@U?$_Select1st@U?$pair@$$CBGUGUILD_SPRITES@MGuildMarkManager@@@_STL@@@2@U?$less@G@2@V?$allocator@U?$pair@$$CBGUGUILD_SPRITES@MGuildMarkManager@@@_STL@@@2@@_STL@@KAAAPAU?$_Rb_tree_node@U?$pair@$$CBGUGUILD_SPRITES@MGuildMarkManager@@@_STL@@@2@PAU32@@Z ENDP ; _STL::_Rb_tree<unsigned short,_STL::pair<unsigned short const ,MGuildMarkManager::GUILD_SPRITES>,_STL::_Select1st<_STL::pair<unsigned short const ,MGuildMarkManager::GUILD_SPRITES> >,_STL::less<unsigned short>,_STL::allocator<_STL::pair<unsigned short const ,MGuildMarkManager::GUILD_SPRITES> > >::_S_parent
_TEXT	ENDS
PUBLIC	?begin@?$_Rb_tree@GU?$pair@$$CBGUGUILD_SPRITES@MGuildMarkManager@@@_STL@@U?$_Select1st@U?$pair@$$CBGUGUILD_SPRITES@MGuildMarkManager@@@_STL@@@2@U?$less@G@2@V?$allocator@U?$pair@$$CBGUGUILD_SPRITES@MGuildMarkManager@@@_STL@@@2@@_STL@@QAE?AU?$_Rb_tree_iterator@U?$pair@$$CBGUGUILD_SPRITES@MGuildMarkManager@@@_STL@@U?$_Nonconst_traits@U?$pair@$$CBGUGUILD_SPRITES@MGuildMarkManager@@@_STL@@@2@@2@XZ ; _STL::_Rb_tree<unsigned short,_STL::pair<unsigned short const ,MGuildMarkManager::GUILD_SPRITES>,_STL::_Select1st<_STL::pair<unsigned short const ,MGuildMarkManager::GUILD_SPRITES> >,_STL::less<unsigned short>,_STL::allocator<_STL::pair<unsigned short const ,MGuildMarkManager::GUILD_SPRITES> > >::begin
; Function compile flags: /Ogsy
;	COMDAT ?begin@?$_Rb_tree@GU?$pair@$$CBGUGUILD_SPRITES@MGuildMarkManager@@@_STL@@U?$_Select1st@U?$pair@$$CBGUGUILD_SPRITES@MGuildMarkManager@@@_STL@@@2@U?$less@G@2@V?$allocator@U?$pair@$$CBGUGUILD_SPRITES@MGuildMarkManager@@@_STL@@@2@@_STL@@QAE?AU?$_Rb_tree_iterator@U?$pair@$$CBGUGUILD_SPRITES@MGuildMarkManager@@@_STL@@U?$_Nonconst_traits@U?$pair@$$CBGUGUILD_SPRITES@MGuildMarkManager@@@_STL@@@2@@2@XZ
_TEXT	SEGMENT
___$ReturnUdt$ = 8					; size = 4
?begin@?$_Rb_tree@GU?$pair@$$CBGUGUILD_SPRITES@MGuildMarkManager@@@_STL@@U?$_Select1st@U?$pair@$$CBGUGUILD_SPRITES@MGuildMarkManager@@@_STL@@@2@U?$less@G@2@V?$allocator@U?$pair@$$CBGUGUILD_SPRITES@MGuildMarkManager@@@_STL@@@2@@_STL@@QAE?AU?$_Rb_tree_iterator@U?$pair@$$CBGUGUILD_SPRITES@MGuildMarkManager@@@_STL@@U?$_Nonconst_traits@U?$pair@$$CBGUGUILD_SPRITES@MGuildMarkManager@@@_STL@@@2@@2@XZ PROC NEAR ; _STL::_Rb_tree<unsigned short,_STL::pair<unsigned short const ,MGuildMarkManager::GUILD_SPRITES>,_STL::_Select1st<_STL::pair<unsigned short const ,MGuildMarkManager::GUILD_SPRITES> >,_STL::less<unsigned short>,_STL::allocator<_STL::pair<unsigned short const ,MGuildMarkManager::GUILD_SPRITES> > >::begin, COMDAT
; _this$ = ecx

; 357  :   iterator begin() { return iterator(_M_leftmost()); }

  00000	8b 01		 mov	 eax, DWORD PTR [ecx]
  00002	8b 48 08	 mov	 ecx, DWORD PTR [eax+8]
  00005	8b 44 24 04	 mov	 eax, DWORD PTR ___$ReturnUdt$[esp-4]
  00009	89 08		 mov	 DWORD PTR [eax], ecx
  0000b	c2 04 00	 ret	 4
?begin@?$_Rb_tree@GU?$pair@$$CBGUGUILD_SPRITES@MGuildMarkManager@@@_STL@@U?$_Select1st@U?$pair@$$CBGUGUILD_SPRITES@MGuildMarkManager@@@_STL@@@2@U?$less@G@2@V?$allocator@U?$pair@$$CBGUGUILD_SPRITES@MGuildMarkManager@@@_STL@@@2@@_STL@@QAE?AU?$_Rb_tree_iterator@U?$pair@$$CBGUGUILD_SPRITES@MGuildMarkManager@@@_STL@@U?$_Nonconst_traits@U?$pair@$$CBGUGUILD_SPRITES@MGuildMarkManager@@@_STL@@@2@@2@XZ ENDP ; _STL::_Rb_tree<unsigned short,_STL::pair<unsigned short const ,MGuildMarkManager::GUILD_SPRITES>,_STL::_Select1st<_STL::pair<unsigned short const ,MGuildMarkManager::GUILD_SPRITES> >,_STL::less<unsigned short>,_STL::allocator<_STL::pair<unsigned short const ,MGuildMarkManager::GUILD_SPRITES> > >::begin
_TEXT	ENDS
PUBLIC	?_M_root@?$_Rb_tree@GU?$pair@$$CBGPAVGUILD_INFO@@@_STL@@U?$_Select1st@U?$pair@$$CBGPAVGUILD_INFO@@@_STL@@@2@U?$less@G@2@V?$allocator@U?$pair@$$CBGPAVGUILD_INFO@@@_STL@@@2@@_STL@@IBEAAPAU?$_Rb_tree_node@U?$pair@$$CBGPAVGUILD_INFO@@@_STL@@@2@XZ ; _STL::_Rb_tree<unsigned short,_STL::pair<unsigned short const ,GUILD_INFO *>,_STL::_Select1st<_STL::pair<unsigned short const ,GUILD_INFO *> >,_STL::less<unsigned short>,_STL::allocator<_STL::pair<unsigned short const ,GUILD_INFO *> > >::_M_root
; Function compile flags: /Ogsy
;	COMDAT ?_M_root@?$_Rb_tree@GU?$pair@$$CBGPAVGUILD_INFO@@@_STL@@U?$_Select1st@U?$pair@$$CBGPAVGUILD_INFO@@@_STL@@@2@U?$less@G@2@V?$allocator@U?$pair@$$CBGPAVGUILD_INFO@@@_STL@@@2@@_STL@@IBEAAPAU?$_Rb_tree_node@U?$pair@$$CBGPAVGUILD_INFO@@@_STL@@@2@XZ
_TEXT	SEGMENT
?_M_root@?$_Rb_tree@GU?$pair@$$CBGPAVGUILD_INFO@@@_STL@@U?$_Select1st@U?$pair@$$CBGPAVGUILD_INFO@@@_STL@@@2@U?$less@G@2@V?$allocator@U?$pair@$$CBGPAVGUILD_INFO@@@_STL@@@2@@_STL@@IBEAAPAU?$_Rb_tree_node@U?$pair@$$CBGPAVGUILD_INFO@@@_STL@@@2@XZ PROC NEAR ; _STL::_Rb_tree<unsigned short,_STL::pair<unsigned short const ,GUILD_INFO *>,_STL::_Select1st<_STL::pair<unsigned short const ,GUILD_INFO *> >,_STL::less<unsigned short>,_STL::allocator<_STL::pair<unsigned short const ,GUILD_INFO *> > >::_M_root, COMDAT
; _this$ = ecx

; 265  :     { return (_Link_type&) this->_M_header._M_data->_M_parent; }

  00000	8b 01		 mov	 eax, DWORD PTR [ecx]
  00002	83 c0 04	 add	 eax, 4
  00005	c3		 ret	 0
?_M_root@?$_Rb_tree@GU?$pair@$$CBGPAVGUILD_INFO@@@_STL@@U?$_Select1st@U?$pair@$$CBGPAVGUILD_INFO@@@_STL@@@2@U?$less@G@2@V?$allocator@U?$pair@$$CBGPAVGUILD_INFO@@@_STL@@@2@@_STL@@IBEAAPAU?$_Rb_tree_node@U?$pair@$$CBGPAVGUILD_INFO@@@_STL@@@2@XZ ENDP ; _STL::_Rb_tree<unsigned short,_STL::pair<unsigned short const ,GUILD_INFO *>,_STL::_Select1st<_STL::pair<unsigned short const ,GUILD_INFO *> >,_STL::less<unsigned short>,_STL::allocator<_STL::pair<unsigned short const ,GUILD_INFO *> > >::_M_root
_TEXT	ENDS
PUBLIC	?_S_left@?$_Rb_tree@GU?$pair@$$CBGPAVGUILD_INFO@@@_STL@@U?$_Select1st@U?$pair@$$CBGPAVGUILD_INFO@@@_STL@@@2@U?$less@G@2@V?$allocator@U?$pair@$$CBGPAVGUILD_INFO@@@_STL@@@2@@_STL@@KAAAPAU?$_Rb_tree_node@U?$pair@$$CBGPAVGUILD_INFO@@@_STL@@@2@PAU32@@Z ; _STL::_Rb_tree<unsigned short,_STL::pair<unsigned short const ,GUILD_INFO *>,_STL::_Select1st<_STL::pair<unsigned short const ,GUILD_INFO *> >,_STL::less<unsigned short>,_STL::allocator<_STL::pair<unsigned short const ,GUILD_INFO *> > >::_S_left
; Function compile flags: /Ogsy
;	COMDAT ?_S_left@?$_Rb_tree@GU?$pair@$$CBGPAVGUILD_INFO@@@_STL@@U?$_Select1st@U?$pair@$$CBGPAVGUILD_INFO@@@_STL@@@2@U?$less@G@2@V?$allocator@U?$pair@$$CBGPAVGUILD_INFO@@@_STL@@@2@@_STL@@KAAAPAU?$_Rb_tree_node@U?$pair@$$CBGPAVGUILD_INFO@@@_STL@@@2@PAU32@@Z
_TEXT	SEGMENT
___x$ = 8						; size = 4
?_S_left@?$_Rb_tree@GU?$pair@$$CBGPAVGUILD_INFO@@@_STL@@U?$_Select1st@U?$pair@$$CBGPAVGUILD_INFO@@@_STL@@@2@U?$less@G@2@V?$allocator@U?$pair@$$CBGPAVGUILD_INFO@@@_STL@@@2@@_STL@@KAAAPAU?$_Rb_tree_node@U?$pair@$$CBGPAVGUILD_INFO@@@_STL@@@2@PAU32@@Z PROC NEAR ; _STL::_Rb_tree<unsigned short,_STL::pair<unsigned short const ,GUILD_INFO *>,_STL::_Select1st<_STL::pair<unsigned short const ,GUILD_INFO *> >,_STL::less<unsigned short>,_STL::allocator<_STL::pair<unsigned short const ,GUILD_INFO *> > >::_S_left, COMDAT

; 272  :     { return (_Link_type&)(__x->_M_left); }

  00000	8b 44 24 04	 mov	 eax, DWORD PTR ___x$[esp-4]
  00004	83 c0 08	 add	 eax, 8
  00007	c3		 ret	 0
?_S_left@?$_Rb_tree@GU?$pair@$$CBGPAVGUILD_INFO@@@_STL@@U?$_Select1st@U?$pair@$$CBGPAVGUILD_INFO@@@_STL@@@2@U?$less@G@2@V?$allocator@U?$pair@$$CBGPAVGUILD_INFO@@@_STL@@@2@@_STL@@KAAAPAU?$_Rb_tree_node@U?$pair@$$CBGPAVGUILD_INFO@@@_STL@@@2@PAU32@@Z ENDP ; _STL::_Rb_tree<unsigned short,_STL::pair<unsigned short const ,GUILD_INFO *>,_STL::_Select1st<_STL::pair<unsigned short const ,GUILD_INFO *> >,_STL::less<unsigned short>,_STL::allocator<_STL::pair<unsigned short const ,GUILD_INFO *> > >::_S_left
_TEXT	ENDS
PUBLIC	?_S_right@?$_Rb_tree@GU?$pair@$$CBGPAVGUILD_INFO@@@_STL@@U?$_Select1st@U?$pair@$$CBGPAVGUILD_INFO@@@_STL@@@2@U?$less@G@2@V?$allocator@U?$pair@$$CBGPAVGUILD_INFO@@@_STL@@@2@@_STL@@KAAAPAU?$_Rb_tree_node@U?$pair@$$CBGPAVGUILD_INFO@@@_STL@@@2@PAU32@@Z ; _STL::_Rb_tree<unsigned short,_STL::pair<unsigned short const ,GUILD_INFO *>,_STL::_Select1st<_STL::pair<unsigned short const ,GUILD_INFO *> >,_STL::less<unsigned short>,_STL::allocator<_STL::pair<unsigned short const ,GUILD_INFO *> > >::_S_right
; Function compile flags: /Ogsy
;	COMDAT ?_S_right@?$_Rb_tree@GU?$pair@$$CBGPAVGUILD_INFO@@@_STL@@U?$_Select1st@U?$pair@$$CBGPAVGUILD_INFO@@@_STL@@@2@U?$less@G@2@V?$allocator@U?$pair@$$CBGPAVGUILD_INFO@@@_STL@@@2@@_STL@@KAAAPAU?$_Rb_tree_node@U?$pair@$$CBGPAVGUILD_INFO@@@_STL@@@2@PAU32@@Z
_TEXT	SEGMENT
___x$ = 8						; size = 4
?_S_right@?$_Rb_tree@GU?$pair@$$CBGPAVGUILD_INFO@@@_STL@@U?$_Select1st@U?$pair@$$CBGPAVGUILD_INFO@@@_STL@@@2@U?$less@G@2@V?$allocator@U?$pair@$$CBGPAVGUILD_INFO@@@_STL@@@2@@_STL@@KAAAPAU?$_Rb_tree_node@U?$pair@$$CBGPAVGUILD_INFO@@@_STL@@@2@PAU32@@Z PROC NEAR ; _STL::_Rb_tree<unsigned short,_STL::pair<unsigned short const ,GUILD_INFO *>,_STL::_Select1st<_STL::pair<unsigned short const ,GUILD_INFO *> >,_STL::less<unsigned short>,_STL::allocator<_STL::pair<unsigned short const ,GUILD_INFO *> > >::_S_right, COMDAT

; 274  :     { return (_Link_type&)(__x->_M_right); }

  00000	8b 44 24 04	 mov	 eax, DWORD PTR ___x$[esp-4]
  00004	83 c0 0c	 add	 eax, 12			; 0000000cH
  00007	c3		 ret	 0
?_S_right@?$_Rb_tree@GU?$pair@$$CBGPAVGUILD_INFO@@@_STL@@U?$_Select1st@U?$pair@$$CBGPAVGUILD_INFO@@@_STL@@@2@U?$less@G@2@V?$allocator@U?$pair@$$CBGPAVGUILD_INFO@@@_STL@@@2@@_STL@@KAAAPAU?$_Rb_tree_node@U?$pair@$$CBGPAVGUILD_INFO@@@_STL@@@2@PAU32@@Z ENDP ; _STL::_Rb_tree<unsigned short,_STL::pair<unsigned short const ,GUILD_INFO *>,_STL::_Select1st<_STL::pair<unsigned short const ,GUILD_INFO *> >,_STL::less<unsigned short>,_STL::allocator<_STL::pair<unsigned short const ,GUILD_INFO *> > >::_S_right
_TEXT	ENDS
PUBLIC	??0?$pair@U?$_Rb_tree_iterator@U?$pair@$$CBGUGUILD_SPRITES@MGuildMarkManager@@@_STL@@U?$_Nonconst_traits@U?$pair@$$CBGUGUILD_SPRITES@MGuildMarkManager@@@_STL@@@2@@_STL@@_N@_STL@@QAE@ABU?$_Rb_tree_iterator@U?$pair@$$CBGUGUILD_SPRITES@MGuildMarkManager@@@_STL@@U?$_Nonconst_traits@U?$pair@$$CBGUGUILD_SPRITES@MGuildMarkManager@@@_STL@@@2@@1@AB_N@Z ; _STL::pair<_STL::_Rb_tree_iterator<_STL::pair<unsigned short const ,MGuildMarkManager::GUILD_SPRITES>,_STL::_Nonconst_traits<_STL::pair<unsigned short const ,MGuildMarkManager::GUILD_SPRITES> > >,bool>::pair<_STL::_Rb_tree_iterator<_STL::pair<unsigned short const ,MGuildMarkManager::GUILD_SPRITES>,_STL::_Nonconst_traits<_STL::pair<unsigned short const ,MGuildMarkManager::GUILD_SPRITES> > >,bool>
; Function compile flags: /Ogsy
; File c:\stlport-4.6.1\stlport\stl\_pair.h
;	COMDAT ??0?$pair@U?$_Rb_tree_iterator@U?$pair@$$CBGUGUILD_SPRITES@MGuildMarkManager@@@_STL@@U?$_Nonconst_traits@U?$pair@$$CBGUGUILD_SPRITES@MGuildMarkManager@@@_STL@@@2@@_STL@@_N@_STL@@QAE@ABU?$_Rb_tree_iterator@U?$pair@$$CBGUGUILD_SPRITES@MGuildMarkManager@@@_STL@@U?$_Nonconst_traits@U?$pair@$$CBGUGUILD_SPRITES@MGuildMarkManager@@@_STL@@@2@@1@AB_N@Z
_TEXT	SEGMENT
___a$ = 8						; size = 4
___b$ = 12						; size = 4
??0?$pair@U?$_Rb_tree_iterator@U?$pair@$$CBGUGUILD_SPRITES@MGuildMarkManager@@@_STL@@U?$_Nonconst_traits@U?$pair@$$CBGUGUILD_SPRITES@MGuildMarkManager@@@_STL@@@2@@_STL@@_N@_STL@@QAE@ABU?$_Rb_tree_iterator@U?$pair@$$CBGUGUILD_SPRITES@MGuildMarkManager@@@_STL@@U?$_Nonconst_traits@U?$pair@$$CBGUGUILD_SPRITES@MGuildMarkManager@@@_STL@@@2@@1@AB_N@Z PROC NEAR ; _STL::pair<_STL::_Rb_tree_iterator<_STL::pair<unsigned short const ,MGuildMarkManager::GUILD_SPRITES>,_STL::_Nonconst_traits<_STL::pair<unsigned short const ,MGuildMarkManager::GUILD_SPRITES> > >,bool>::pair<_STL::_Rb_tree_iterator<_STL::pair<unsigned short const ,MGuildMarkManager::GUILD_SPRITES>,_STL::_Nonconst_traits<_STL::pair<unsigned short const ,MGuildMarkManager::GUILD_SPRITES> > >,bool>, COMDAT
; _this$ = ecx

; 48   :   pair(const _T1& __a, const _T2& __b) : first(__a), second(__b) {}

  00000	8b c1		 mov	 eax, ecx
  00002	8b 4c 24 04	 mov	 ecx, DWORD PTR ___a$[esp-4]
  00006	8b 09		 mov	 ecx, DWORD PTR [ecx]
  00008	89 08		 mov	 DWORD PTR [eax], ecx
  0000a	8b 4c 24 08	 mov	 ecx, DWORD PTR ___b$[esp-4]
  0000e	8a 09		 mov	 cl, BYTE PTR [ecx]
  00010	88 48 04	 mov	 BYTE PTR [eax+4], cl
  00013	c2 08 00	 ret	 8
??0?$pair@U?$_Rb_tree_iterator@U?$pair@$$CBGUGUILD_SPRITES@MGuildMarkManager@@@_STL@@U?$_Nonconst_traits@U?$pair@$$CBGUGUILD_SPRITES@MGuildMarkManager@@@_STL@@@2@@_STL@@_N@_STL@@QAE@ABU?$_Rb_tree_iterator@U?$pair@$$CBGUGUILD_SPRITES@MGuildMarkManager@@@_STL@@U?$_Nonconst_traits@U?$pair@$$CBGUGUILD_SPRITES@MGuildMarkManager@@@_STL@@@2@@1@AB_N@Z ENDP ; _STL::pair<_STL::_Rb_tree_iterator<_STL::pair<unsigned short const ,MGuildMarkManager::GUILD_SPRITES>,_STL::_Nonconst_traits<_STL::pair<unsigned short const ,MGuildMarkManager::GUILD_SPRITES> > >,bool>::pair<_STL::_Rb_tree_iterator<_STL::pair<unsigned short const ,MGuildMarkManager::GUILD_SPRITES>,_STL::_Nonconst_traits<_STL::pair<unsigned short const ,MGuildMarkManager::GUILD_SPRITES> > >,bool>
_TEXT	ENDS
PUBLIC	?_S_value@?$_Rb_tree@GU?$pair@$$CBGPAVGUILD_INFO@@@_STL@@U?$_Select1st@U?$pair@$$CBGPAVGUILD_INFO@@@_STL@@@2@U?$less@G@2@V?$allocator@U?$pair@$$CBGPAVGUILD_INFO@@@_STL@@@2@@_STL@@KAAAU?$pair@$$CBGPAVGUILD_INFO@@@2@PAU?$_Rb_tree_node@U?$pair@$$CBGPAVGUILD_INFO@@@_STL@@@2@@Z ; _STL::_Rb_tree<unsigned short,_STL::pair<unsigned short const ,GUILD_INFO *>,_STL::_Select1st<_STL::pair<unsigned short const ,GUILD_INFO *> >,_STL::less<unsigned short>,_STL::allocator<_STL::pair<unsigned short const ,GUILD_INFO *> > >::_S_value
; Function compile flags: /Ogsy
; File c:\stlport-4.6.1\stlport\stl\_tree.h
;	COMDAT ?_S_value@?$_Rb_tree@GU?$pair@$$CBGPAVGUILD_INFO@@@_STL@@U?$_Select1st@U?$pair@$$CBGPAVGUILD_INFO@@@_STL@@@2@U?$less@G@2@V?$allocator@U?$pair@$$CBGPAVGUILD_INFO@@@_STL@@@2@@_STL@@KAAAU?$pair@$$CBGPAVGUILD_INFO@@@2@PAU?$_Rb_tree_node@U?$pair@$$CBGPAVGUILD_INFO@@@_STL@@@2@@Z
_TEXT	SEGMENT
___x$ = 8						; size = 4
?_S_value@?$_Rb_tree@GU?$pair@$$CBGPAVGUILD_INFO@@@_STL@@U?$_Select1st@U?$pair@$$CBGPAVGUILD_INFO@@@_STL@@@2@U?$less@G@2@V?$allocator@U?$pair@$$CBGPAVGUILD_INFO@@@_STL@@@2@@_STL@@KAAAU?$pair@$$CBGPAVGUILD_INFO@@@2@PAU?$_Rb_tree_node@U?$pair@$$CBGPAVGUILD_INFO@@@_STL@@@2@@Z PROC NEAR ; _STL::_Rb_tree<unsigned short,_STL::pair<unsigned short const ,GUILD_INFO *>,_STL::_Select1st<_STL::pair<unsigned short const ,GUILD_INFO *> >,_STL::less<unsigned short>,_STL::allocator<_STL::pair<unsigned short const ,GUILD_INFO *> > >::_S_value, COMDAT

; 278  :     { return __x->_M_value_field; }

  00000	8b 44 24 04	 mov	 eax, DWORD PTR ___x$[esp-4]
  00004	83 c0 10	 add	 eax, 16			; 00000010H
  00007	c3		 ret	 0
?_S_value@?$_Rb_tree@GU?$pair@$$CBGPAVGUILD_INFO@@@_STL@@U?$_Select1st@U?$pair@$$CBGPAVGUILD_INFO@@@_STL@@@2@U?$less@G@2@V?$allocator@U?$pair@$$CBGPAVGUILD_INFO@@@_STL@@@2@@_STL@@KAAAU?$pair@$$CBGPAVGUILD_INFO@@@2@PAU?$_Rb_tree_node@U?$pair@$$CBGPAVGUILD_INFO@@@_STL@@@2@@Z ENDP ; _STL::_Rb_tree<unsigned short,_STL::pair<unsigned short const ,GUILD_INFO *>,_STL::_Select1st<_STL::pair<unsigned short const ,GUILD_INFO *> >,_STL::less<unsigned short>,_STL::allocator<_STL::pair<unsigned short const ,GUILD_INFO *> > >::_S_value
_TEXT	ENDS
PUBLIC	??R?$_Select1st@U?$pair@$$CBGPAVGUILD_INFO@@@_STL@@@_STL@@QBEABGABU?$pair@$$CBGPAVGUILD_INFO@@@1@@Z ; _STL::_Select1st<_STL::pair<unsigned short const ,GUILD_INFO *> >::operator()
; Function compile flags: /Ogsy
; File c:\stlport-4.6.1\stlport\stl\_function_base.h
;	COMDAT ??R?$_Select1st@U?$pair@$$CBGPAVGUILD_INFO@@@_STL@@@_STL@@QBEABGABU?$pair@$$CBGPAVGUILD_INFO@@@1@@Z
_TEXT	SEGMENT
___x$ = 8						; size = 4
??R?$_Select1st@U?$pair@$$CBGPAVGUILD_INFO@@@_STL@@@_STL@@QBEABGABU?$pair@$$CBGPAVGUILD_INFO@@@1@@Z PROC NEAR ; _STL::_Select1st<_STL::pair<unsigned short const ,GUILD_INFO *> >::operator(), COMDAT
; _this$ = ecx

; 153  :     return __x.first;

  00000	8b 44 24 04	 mov	 eax, DWORD PTR ___x$[esp-4]

; 154  :   }

  00004	c2 04 00	 ret	 4
??R?$_Select1st@U?$pair@$$CBGPAVGUILD_INFO@@@_STL@@@_STL@@QBEABGABU?$pair@$$CBGPAVGUILD_INFO@@@1@@Z ENDP ; _STL::_Select1st<_STL::pair<unsigned short const ,GUILD_INFO *> >::operator()
_TEXT	ENDS
PUBLIC	??8_Rb_tree_base_iterator@_STL@@QBE_NABU01@@Z	; _STL::_Rb_tree_base_iterator::operator==
; Function compile flags: /Ogsy
; File c:\stlport-4.6.1\stlport\stl\_tree.h
;	COMDAT ??8_Rb_tree_base_iterator@_STL@@QBE_NABU01@@Z
_TEXT	SEGMENT
___y$ = 8						; size = 4
??8_Rb_tree_base_iterator@_STL@@QBE_NABU01@@Z PROC NEAR	; _STL::_Rb_tree_base_iterator::operator==, COMDAT
; _this$ = ecx

; 147  :     return _M_node == __y._M_node;

  00000	8b 01		 mov	 eax, DWORD PTR [ecx]
  00002	8b 4c 24 04	 mov	 ecx, DWORD PTR ___y$[esp-4]
  00006	2b 01		 sub	 eax, DWORD PTR [ecx]
  00008	f7 d8		 neg	 eax
  0000a	1b c0		 sbb	 eax, eax
  0000c	40		 inc	 eax

; 148  :   }

  0000d	c2 04 00	 ret	 4
??8_Rb_tree_base_iterator@_STL@@QBE_NABU01@@Z ENDP	; _STL::_Rb_tree_base_iterator::operator==
_TEXT	ENDS
PUBLIC	??9_Rb_tree_base_iterator@_STL@@QBE_NABU01@@Z	; _STL::_Rb_tree_base_iterator::operator!=
; Function compile flags: /Ogsy
;	COMDAT ??9_Rb_tree_base_iterator@_STL@@QBE_NABU01@@Z
_TEXT	SEGMENT
___y$ = 8						; size = 4
??9_Rb_tree_base_iterator@_STL@@QBE_NABU01@@Z PROC NEAR	; _STL::_Rb_tree_base_iterator::operator!=, COMDAT
; _this$ = ecx

; 150  :     return _M_node != __y._M_node;

  00000	8b 01		 mov	 eax, DWORD PTR [ecx]
  00002	8b 54 24 04	 mov	 edx, DWORD PTR ___y$[esp-4]
  00006	33 c9		 xor	 ecx, ecx
  00008	3b 02		 cmp	 eax, DWORD PTR [edx]
  0000a	0f 95 c1	 setne	 cl
  0000d	8a c1		 mov	 al, cl

; 151  :   }

  0000f	c2 04 00	 ret	 4
??9_Rb_tree_base_iterator@_STL@@QBE_NABU01@@Z ENDP	; _STL::_Rb_tree_base_iterator::operator!=
_TEXT	ENDS
PUBLIC	??0?$pair@$$CBGUGUILD_SPRITES@MGuildMarkManager@@@_STL@@QAE@ABU01@@Z ; _STL::pair<unsigned short const ,MGuildMarkManager::GUILD_SPRITES>::pair<unsigned short const ,MGuildMarkManager::GUILD_SPRITES>
; Function compile flags: /Ogsy
; File c:\stlport-4.6.1\stlport\stl\_pair.h
;	COMDAT ??0?$pair@$$CBGUGUILD_SPRITES@MGuildMarkManager@@@_STL@@QAE@ABU01@@Z
_TEXT	SEGMENT
___o$ = 8						; size = 4
??0?$pair@$$CBGUGUILD_SPRITES@MGuildMarkManager@@@_STL@@QAE@ABU01@@Z PROC NEAR ; _STL::pair<unsigned short const ,MGuildMarkManager::GUILD_SPRITES>::pair<unsigned short const ,MGuildMarkManager::GUILD_SPRITES>, COMDAT
; _this$ = ecx

; 54   :   pair(const pair<_T1,_T2>& __o) : first(__o.first), second(__o.second) {}

  00000	8b c1		 mov	 eax, ecx
  00002	8b 4c 24 04	 mov	 ecx, DWORD PTR ___o$[esp-4]
  00006	66 8b 11	 mov	 dx, WORD PTR [ecx]
  00009	66 89 10	 mov	 WORD PTR [eax], dx
  0000c	8b 51 04	 mov	 edx, DWORD PTR [ecx+4]
  0000f	89 50 04	 mov	 DWORD PTR [eax+4], edx
  00012	8b 49 08	 mov	 ecx, DWORD PTR [ecx+8]
  00015	89 48 08	 mov	 DWORD PTR [eax+8], ecx
  00018	c2 04 00	 ret	 4
??0?$pair@$$CBGUGUILD_SPRITES@MGuildMarkManager@@@_STL@@QAE@ABU01@@Z ENDP ; _STL::pair<unsigned short const ,MGuildMarkManager::GUILD_SPRITES>::pair<unsigned short const ,MGuildMarkManager::GUILD_SPRITES>
_TEXT	ENDS
PUBLIC	??0?$allocator@D@_STL@@QAE@XZ			; _STL::allocator<char>::allocator<char>
; Function compile flags: /Ogsy
; File c:\stlport-4.6.1\stlport\stl\_alloc.h
;	COMDAT ??0?$allocator@D@_STL@@QAE@XZ
_TEXT	SEGMENT
??0?$allocator@D@_STL@@QAE@XZ PROC NEAR			; _STL::allocator<char>::allocator<char>, COMDAT
; _this$ = ecx

; 345  :   allocator() _STLP_NOTHROW {}

  00000	8b c1		 mov	 eax, ecx
  00002	c3		 ret	 0
??0?$allocator@D@_STL@@QAE@XZ ENDP			; _STL::allocator<char>::allocator<char>
_TEXT	ENDS
PUBLIC	??1?$allocator@D@_STL@@QAE@XZ			; _STL::allocator<char>::~allocator<char>
; Function compile flags: /Ogsy
;	COMDAT ??1?$allocator@D@_STL@@QAE@XZ
_TEXT	SEGMENT
??1?$allocator@D@_STL@@QAE@XZ PROC NEAR			; _STL::allocator<char>::~allocator<char>, COMDAT
; _this$ = ecx

; 350  :   ~allocator() _STLP_NOTHROW {}

  00000	c3		 ret	 0
??1?$allocator@D@_STL@@QAE@XZ ENDP			; _STL::allocator<char>::~allocator<char>
_TEXT	ENDS
PUBLIC	??1?$_STLP_alloc_proxy@PADDV?$allocator@D@_STL@@@_STL@@QAE@XZ ; _STL::_STLP_alloc_proxy<char *,char,_STL::allocator<char> >::~_STLP_alloc_proxy<char *,char,_STL::allocator<char> >
; Function compile flags: /Ogsy
;	COMDAT ??1?$_STLP_alloc_proxy@PADDV?$allocator@D@_STL@@@_STL@@QAE@XZ
_TEXT	SEGMENT
??1?$_STLP_alloc_proxy@PADDV?$allocator@D@_STL@@@_STL@@QAE@XZ PROC NEAR ; _STL::_STLP_alloc_proxy<char *,char,_STL::allocator<char> >::~_STLP_alloc_proxy<char *,char,_STL::allocator<char> >, COMDAT
; _this$ = ecx
  00000	c3		 ret	 0
??1?$_STLP_alloc_proxy@PADDV?$allocator@D@_STL@@@_STL@@QAE@XZ ENDP ; _STL::_STLP_alloc_proxy<char *,char,_STL::allocator<char> >::~_STLP_alloc_proxy<char *,char,_STL::allocator<char> >
_TEXT	ENDS
PUBLIC	?allocate@?$__node_alloc@$00$0A@@_STL@@SAPAXI@Z	; _STL::__node_alloc<1,0>::allocate
EXTRN	?_M_allocate@?$__node_alloc@$00$0A@@_STL@@CAPAXI@Z:NEAR ; _STL::__node_alloc<1,0>::_M_allocate
; Function compile flags: /Ogsy
;	COMDAT ?allocate@?$__node_alloc@$00$0A@@_STL@@SAPAXI@Z
_TEXT	SEGMENT
___n$ = 8						; size = 4
?allocate@?$__node_alloc@$00$0A@@_STL@@SAPAXI@Z PROC NEAR ; _STL::__node_alloc<1,0>::allocate, COMDAT

; 251  :   static void * _STLP_CALL allocate(size_t __n) { return (__n > (size_t)_MAX_BYTES) ?  __stl_new(__n) : _M_allocate(__n); }

  00000	8b 44 24 04	 mov	 eax, DWORD PTR ___n$[esp-4]
  00004	3d 80 00 00 00	 cmp	 eax, 128		; 00000080H
  00009	50		 push	 eax
  0000a	76 07		 jbe	 SHORT $L111146
  0000c	e8 00 00 00 00	 call	 ??2@YAPAXI@Z		; operator new
  00011	59		 pop	 ecx
  00012	c3		 ret	 0
$L111146:
  00013	e8 00 00 00 00	 call	 ?_M_allocate@?$__node_alloc@$00$0A@@_STL@@CAPAXI@Z ; _STL::__node_alloc<1,0>::_M_allocate
  00018	59		 pop	 ecx
  00019	c3		 ret	 0
?allocate@?$__node_alloc@$00$0A@@_STL@@SAPAXI@Z ENDP	; _STL::__node_alloc<1,0>::allocate
_TEXT	ENDS
PUBLIC	?deallocate@?$__node_alloc@$00$0A@@_STL@@SAXPAXI@Z ; _STL::__node_alloc<1,0>::deallocate
EXTRN	?_M_deallocate@?$__node_alloc@$00$0A@@_STL@@CAXPAXI@Z:NEAR ; _STL::__node_alloc<1,0>::_M_deallocate
; Function compile flags: /Ogsy
;	COMDAT ?deallocate@?$__node_alloc@$00$0A@@_STL@@SAXPAXI@Z
_TEXT	SEGMENT
___p$ = 8						; size = 4
___n$ = 12						; size = 4
?deallocate@?$__node_alloc@$00$0A@@_STL@@SAXPAXI@Z PROC NEAR ; _STL::__node_alloc<1,0>::deallocate, COMDAT

; 253  :   static void _STLP_CALL deallocate(void *__p, size_t __n) { if (__n > (size_t)_MAX_BYTES) __stl_delete(__p); else _M_deallocate(__p, __n); }

  00000	81 7c 24 08 80
	00 00 00	 cmp	 DWORD PTR ___n$[esp-4], 128 ; 00000080H
  00008	76 0b		 jbe	 SHORT $L98677
  0000a	ff 74 24 04	 push	 DWORD PTR ___p$[esp-4]
  0000e	e8 00 00 00 00	 call	 ??3@YAXPAX@Z		; operator delete
  00013	59		 pop	 ecx
  00014	c3		 ret	 0
$L98677:
  00015	e9 00 00 00 00	 jmp	 ?_M_deallocate@?$__node_alloc@$00$0A@@_STL@@CAXPAXI@Z ; _STL::__node_alloc<1,0>::_M_deallocate
?deallocate@?$__node_alloc@$00$0A@@_STL@@SAXPAXI@Z ENDP	; _STL::__node_alloc<1,0>::deallocate
_TEXT	ENDS
PUBLIC	?CreateGuildMark@MGuildMarkManager@@SA_NPBDAAPAVCSprite@@1@Z ; MGuildMarkManager::CreateGuildMark
EXTRN	??0CDirectDrawSurface@@QAE@XZ:NEAR		; CDirectDrawSurface::CDirectDrawSurface
EXTRN	??1CDirectDrawSurface@@QAE@XZ:NEAR		; CDirectDrawSurface::~CDirectDrawSurface
EXTRN	?InitOffsurface@CDirectDrawSurface@@QAE_NHHK@Z:NEAR ; CDirectDrawSurface::InitOffsurface
EXTRN	?Blt@CDirectDrawSurface@@QAEXPAUtagRECT@@PAV1@0@Z:NEAR ; CDirectDrawSurface::Blt
EXTRN	?FillSurface@CDirectDrawSurface@@QAEXG@Z:NEAR	; CDirectDrawSurface::FillSurface
EXTRN	?Unlock@CDirectDrawSurface@@QAE_NXZ:NEAR	; CDirectDrawSurface::Unlock
EXTRN	?LockW@CDirectDrawSurface@@QAEXAAPAGAAG@Z:NEAR	; CDirectDrawSurface::LockW
EXTRN	?SetPixel@CSprite@@QAEXPAGGGG@Z:NEAR		; CSprite::SetPixel
EXTRN	?LoadImageToSurface@@YA_NPBDAAVCDirectDrawSurface@@@Z:NEAR ; LoadImageToSurface
EXTRN	__EH_prolog:NEAR
EXTRN	__except_list:DWORD
EXTRN	___CxxFrameHandler:NEAR
;	COMDAT xdata$x
; File c:\darkeden\designed_common\project\client\spritelib\csprite.h
xdata$x	SEGMENT
$T111224 DD	0ffffffffH
	DD	FLAT:$L111179
	DD	00H
	DD	FLAT:$L111180
	DD	01H
	DD	FLAT:$L111181
	DD	01H
	DD	FLAT:$L111182
	DD	01H
	DD	FLAT:$L111183
	DD	01H
	DD	FLAT:$L111184
$T111218 DD	019930520H
	DD	06H
	DD	FLAT:$T111224
	DD	2 DUP(00H)
	DD	2 DUP(00H)
; Function compile flags: /Ogsy
; File c:\darkeden\designed_common\project\client\mguildmarkmanager.cpp
xdata$x	ENDS
;	COMDAT ?CreateGuildMark@MGuildMarkManager@@SA_NPBDAAPAVCSprite@@1@Z
_TEXT	SEGMENT
_bmpSurface$ = -132					; size = 32
_surface$ = -100					; size = 32
_destSmallRect$ = -68					; size = 16
_destBigRect$ = -52					; size = 16
_bmpRect$ = -36						; size = 16
_lpSurface$ = -20					; size = 4
_pitch$ = -16						; size = 2
__$EHRec$ = -12						; size = 12
$T111175 = 8						; size = 4
$T111171 = 8						; size = 4
$T111167 = 8						; size = 4
$T111163 = 8						; size = 4
_pFilename$ = 8						; size = 4
_pSprite$ = 12						; size = 4
_pSpriteSmall$ = 16					; size = 4
?CreateGuildMark@MGuildMarkManager@@SA_NPBDAAPAVCSprite@@1@Z PROC NEAR ; MGuildMarkManager::CreateGuildMark, COMDAT

; 878  : {

  00000	b8 00 00 00 00	 mov	 eax, __ehhandler$?CreateGuildMark@MGuildMarkManager@@SA_NPBDAAPAVCSprite@@1@Z
  00005	e8 00 00 00 00	 call	 __EH_prolog
  0000a	83 ec 78	 sub	 esp, 120		; 00000078H
  0000d	53		 push	 ebx

; 879  : 	if (pFilename==NULL)

  0000e	33 db		 xor	 ebx, ebx
  00010	39 5d 08	 cmp	 DWORD PTR _pFilename$[ebp], ebx
  00013	75 07		 jne	 SHORT $L106719

; 880  : 	{
; 881  : 		return false;

  00015	32 c0		 xor	 al, al
  00017	e9 ec 01 00 00	 jmp	 $L106718
$L106719:

; 882  : 	}
; 883  : 
; 884  : 	//-----------------------------------------------------
; 885  : 	// pFilename Surface load.
; 886  : 	//-----------------------------------------------------
; 887  : 	CDirectDrawSurface bmpSurface;

  0001c	8d 8d 7c ff ff
	ff		 lea	 ecx, DWORD PTR _bmpSurface$[ebp]
  00022	e8 00 00 00 00	 call	 ??0CDirectDrawSurface@@QAE@XZ ; CDirectDrawSurface::CDirectDrawSurface

; 888  : 	if (!LoadImageToSurface(pFilename, bmpSurface))

  00027	8d 85 7c ff ff
	ff		 lea	 eax, DWORD PTR _bmpSurface$[ebp]
  0002d	50		 push	 eax
  0002e	ff 75 08	 push	 DWORD PTR _pFilename$[ebp]
  00031	89 5d fc	 mov	 DWORD PTR __$EHRec$[ebp+8], ebx
  00034	e8 00 00 00 00	 call	 ?LoadImageToSurface@@YA_NPBDAAVCDirectDrawSurface@@@Z ; LoadImageToSurface
  00039	84 c0		 test	 al, al
  0003b	59		 pop	 ecx
  0003c	59		 pop	 ecx
  0003d	0f 84 b4 01 00
	00		 je	 $L111219
  00043	56		 push	 esi
  00044	57		 push	 edi

; 889  : 	{
; 890  : 		return false;
; 891  : 	}
; 892  : 	
; 893  : 	const POINT bigSize = { 40, 40 };
; 894  : 	const POINT smallSize = { 20, 20 };
; 895  : 	
; 896  : 	CDirectDrawSurface surface;

  00045	8d 4d 9c	 lea	 ecx, DWORD PTR _surface$[ebp]
  00048	e8 00 00 00 00	 call	 ??0CDirectDrawSurface@@QAE@XZ ; CDirectDrawSurface::CDirectDrawSurface

; 897  : 	surface.InitOffsurface( bigSize.x, bigSize.y, DDSCAPS_SYSTEMMEMORY );

  0004d	68 00 08 00 00	 push	 2048			; 00000800H
  00052	6a 28		 push	 40			; 00000028H
  00054	5e		 pop	 esi
  00055	56		 push	 esi
  00056	56		 push	 esi
  00057	8d 4d 9c	 lea	 ecx, DWORD PTR _surface$[ebp]
  0005a	c6 45 fc 01	 mov	 BYTE PTR __$EHRec$[ebp+8], 1
  0005e	e8 00 00 00 00	 call	 ?InitOffsurface@CDirectDrawSurface@@QAE_NHHK@Z ; CDirectDrawSurface::InitOffsurface

; 898  : 		
; 899  : 	RECT destBigRect = { 0, 0, bigSize.x, bigSize.y };
; 900  : 	RECT destSmallRect = { 0, 0, smallSize.x, smallSize.y };
; 901  : 	
; 902  : 	//-----------------------------------------------------
; 903  : 	// CSprite
; 904  : 	//-----------------------------------------------------
; 905  : 	if (CDirectDraw::Is565())

  00063	38 1d 00 00 00
	00		 cmp	 BYTE PTR ?m_b565@CDirectDraw@@1_NA, bl ; CDirectDraw::m_b565
  00069	6a 14		 push	 20			; 00000014H
  0006b	58		 pop	 eax
  0006c	89 5d cc	 mov	 DWORD PTR _destBigRect$[ebp], ebx
  0006f	89 5d d0	 mov	 DWORD PTR _destBigRect$[ebp+4], ebx
  00072	89 75 d4	 mov	 DWORD PTR _destBigRect$[ebp+8], esi
  00075	89 75 d8	 mov	 DWORD PTR _destBigRect$[ebp+12], esi
  00078	89 5d bc	 mov	 DWORD PTR _destSmallRect$[ebp], ebx
  0007b	89 5d c0	 mov	 DWORD PTR _destSmallRect$[ebp+4], ebx
  0007e	89 45 c4	 mov	 DWORD PTR _destSmallRect$[ebp+8], eax
  00081	89 45 c8	 mov	 DWORD PTR _destSmallRect$[ebp+12], eax

; 906  : 	{
; 907  : 		pSprite = new CSprite565;

  00084	6a 10		 push	 16			; 00000010H
  00086	74 55		 je	 SHORT $L106728
  00088	e8 00 00 00 00	 call	 ??2@YAPAXI@Z		; operator new
  0008d	8b f0		 mov	 esi, eax
  0008f	59		 pop	 ecx
  00090	89 75 08	 mov	 DWORD PTR $T111163[ebp], esi
  00093	3b f3		 cmp	 esi, ebx
  00095	c6 45 fc 02	 mov	 BYTE PTR __$EHRec$[ebp+8], 2
  00099	74 11		 je	 SHORT $L111164
  0009b	8b ce		 mov	 ecx, esi
  0009d	e8 00 00 00 00	 call	 ??0CSprite@@QAE@XZ	; CSprite::CSprite
  000a2	c7 06 00 00 00
	00		 mov	 DWORD PTR [esi], OFFSET FLAT:??_7CSprite565@@6B@
  000a8	8b c6		 mov	 eax, esi
  000aa	eb 02		 jmp	 SHORT $L111165
$L111164:
  000ac	33 c0		 xor	 eax, eax
$L111165:
  000ae	8b 75 0c	 mov	 esi, DWORD PTR _pSprite$[ebp]

; 908  : 		pSpriteSmall = new CSprite565;

  000b1	6a 10		 push	 16			; 00000010H
  000b3	c6 45 fc 01	 mov	 BYTE PTR __$EHRec$[ebp+8], 1
  000b7	89 06		 mov	 DWORD PTR [esi], eax
  000b9	e8 00 00 00 00	 call	 ??2@YAPAXI@Z		; operator new
  000be	8b f8		 mov	 edi, eax
  000c0	59		 pop	 ecx
  000c1	89 7d 08	 mov	 DWORD PTR $T111167[ebp], edi
  000c4	3b fb		 cmp	 edi, ebx
  000c6	c6 45 fc 03	 mov	 BYTE PTR __$EHRec$[ebp+8], 3
  000ca	74 64		 je	 SHORT $L111176
  000cc	8b cf		 mov	 ecx, edi
  000ce	e8 00 00 00 00	 call	 ??0CSprite@@QAE@XZ	; CSprite::CSprite
  000d3	c7 07 00 00 00
	00		 mov	 DWORD PTR [edi], OFFSET FLAT:??_7CSprite565@@6B@
$L111223:
  000d9	8b c7		 mov	 eax, edi
  000db	eb 55		 jmp	 SHORT $L111177
$L106728:

; 909  : 	}
; 910  : 	else
; 911  : 	{
; 912  : 		pSprite = new CSprite555;

  000dd	e8 00 00 00 00	 call	 ??2@YAPAXI@Z		; operator new
  000e2	8b f0		 mov	 esi, eax
  000e4	59		 pop	 ecx
  000e5	89 75 08	 mov	 DWORD PTR $T111171[ebp], esi
  000e8	3b f3		 cmp	 esi, ebx
  000ea	c6 45 fc 04	 mov	 BYTE PTR __$EHRec$[ebp+8], 4
  000ee	74 11		 je	 SHORT $L111172
  000f0	8b ce		 mov	 ecx, esi
  000f2	e8 00 00 00 00	 call	 ??0CSprite@@QAE@XZ	; CSprite::CSprite
  000f7	c7 06 00 00 00
	00		 mov	 DWORD PTR [esi], OFFSET FLAT:??_7CSprite555@@6B@
  000fd	8b c6		 mov	 eax, esi
  000ff	eb 02		 jmp	 SHORT $L111173
$L111172:
  00101	33 c0		 xor	 eax, eax
$L111173:
  00103	8b 75 0c	 mov	 esi, DWORD PTR _pSprite$[ebp]

; 913  : 		pSpriteSmall = new CSprite555;

  00106	6a 10		 push	 16			; 00000010H
  00108	c6 45 fc 01	 mov	 BYTE PTR __$EHRec$[ebp+8], 1
  0010c	89 06		 mov	 DWORD PTR [esi], eax
  0010e	e8 00 00 00 00	 call	 ??2@YAPAXI@Z		; operator new
  00113	8b f8		 mov	 edi, eax
  00115	59		 pop	 ecx
  00116	89 7d 08	 mov	 DWORD PTR $T111175[ebp], edi
  00119	3b fb		 cmp	 edi, ebx
  0011b	c6 45 fc 05	 mov	 BYTE PTR __$EHRec$[ebp+8], 5
  0011f	74 0f		 je	 SHORT $L111176
  00121	8b cf		 mov	 ecx, edi
  00123	e8 00 00 00 00	 call	 ??0CSprite@@QAE@XZ	; CSprite::CSprite
  00128	c7 07 00 00 00
	00		 mov	 DWORD PTR [edi], OFFSET FLAT:??_7CSprite555@@6B@
  0012e	eb a9		 jmp	 SHORT $L111223
$L111176:
  00130	33 c0		 xor	 eax, eax
$L111177:
  00132	8b 7d 10	 mov	 edi, DWORD PTR _pSpriteSmall$[ebp]
  00135	89 07		 mov	 DWORD PTR [edi], eax

; 914  : 	}
; 915  : 
; 916  : 	//-----------------------------------------------------
; 917  : 	// surface --> CSprite
; 918  : 	//-----------------------------------------------------
; 919  : 	WORD* lpSurface;
; 920  : 	unsigned short pitch;
; 921  : 
; 922  : 	RECT bmpRect = { 0, 0, bmpSurface.GetWidth(), bmpSurface.GetHeight() };

  00137	8b 45 80	 mov	 eax, DWORD PTR _bmpSurface$[ebp+4]
  0013a	89 45 e4	 mov	 DWORD PTR _bmpRect$[ebp+8], eax
  0013d	8b 45 84	 mov	 eax, DWORD PTR _bmpSurface$[ebp+8]

; 923  : 
; 924  : 	//  .
; 925  : 	CSprite::SetColorkey( 0x001F );
; 926  : 
; 927  : 	// BigSize
; 928  : 	surface.FillSurface( 0 );

  00140	53		 push	 ebx
  00141	8d 4d 9c	 lea	 ecx, DWORD PTR _surface$[ebp]
  00144	c6 45 fc 01	 mov	 BYTE PTR __$EHRec$[ebp+8], 1
  00148	89 5d dc	 mov	 DWORD PTR _bmpRect$[ebp], ebx
  0014b	89 5d e0	 mov	 DWORD PTR _bmpRect$[ebp+4], ebx
  0014e	89 45 e8	 mov	 DWORD PTR _bmpRect$[ebp+12], eax
  00151	66 c7 05 00 00
	00 00 1f 00	 mov	 WORD PTR ?s_Colorkey@CSprite@@2GA, 31 ; CSprite::s_Colorkey, 0000001fH
  0015a	e8 00 00 00 00	 call	 ?FillSurface@CDirectDrawSurface@@QAEXG@Z ; CDirectDrawSurface::FillSurface

; 929  : 	surface.Blt(&destBigRect, &bmpSurface, &bmpRect);

  0015f	8d 45 dc	 lea	 eax, DWORD PTR _bmpRect$[ebp]
  00162	50		 push	 eax
  00163	8d 85 7c ff ff
	ff		 lea	 eax, DWORD PTR _bmpSurface$[ebp]
  00169	50		 push	 eax
  0016a	8d 45 cc	 lea	 eax, DWORD PTR _destBigRect$[ebp]
  0016d	50		 push	 eax
  0016e	8d 4d 9c	 lea	 ecx, DWORD PTR _surface$[ebp]
  00171	e8 00 00 00 00	 call	 ?Blt@CDirectDrawSurface@@QAEXPAUtagRECT@@PAV1@0@Z ; CDirectDrawSurface::Blt

; 930  : 	surface.LockW(lpSurface, pitch);

  00176	8d 45 f0	 lea	 eax, DWORD PTR _pitch$[ebp]
  00179	50		 push	 eax
  0017a	8d 45 ec	 lea	 eax, DWORD PTR _lpSurface$[ebp]
  0017d	50		 push	 eax
  0017e	8d 4d 9c	 lea	 ecx, DWORD PTR _surface$[ebp]
  00181	e8 00 00 00 00	 call	 ?LockW@CDirectDrawSurface@@QAEXAAPAGAAG@Z ; CDirectDrawSurface::LockW

; 931  : 	pSprite->SetPixel(lpSurface, pitch, bigSize.x, bigSize.y);

  00186	8b 0e		 mov	 ecx, DWORD PTR [esi]
  00188	6a 28		 push	 40			; 00000028H
  0018a	6a 28		 push	 40			; 00000028H
  0018c	ff 75 f0	 push	 DWORD PTR _pitch$[ebp]
  0018f	ff 75 ec	 push	 DWORD PTR _lpSurface$[ebp]
  00192	e8 00 00 00 00	 call	 ?SetPixel@CSprite@@QAEXPAGGGG@Z ; CSprite::SetPixel

; 932  : 	surface.Unlock();	

  00197	8d 4d 9c	 lea	 ecx, DWORD PTR _surface$[ebp]
  0019a	e8 00 00 00 00	 call	 ?Unlock@CDirectDrawSurface@@QAE_NXZ ; CDirectDrawSurface::Unlock

; 933  : 
; 934  : 	// SmallSize
; 935  : 	surface.FillSurface( 0 );

  0019f	53		 push	 ebx
  001a0	8d 4d 9c	 lea	 ecx, DWORD PTR _surface$[ebp]
  001a3	e8 00 00 00 00	 call	 ?FillSurface@CDirectDrawSurface@@QAEXG@Z ; CDirectDrawSurface::FillSurface

; 936  : 	surface.Blt(&destSmallRect, &bmpSurface, &bmpRect);

  001a8	8d 45 dc	 lea	 eax, DWORD PTR _bmpRect$[ebp]
  001ab	50		 push	 eax
  001ac	8d 85 7c ff ff
	ff		 lea	 eax, DWORD PTR _bmpSurface$[ebp]
  001b2	50		 push	 eax
  001b3	8d 45 bc	 lea	 eax, DWORD PTR _destSmallRect$[ebp]
  001b6	50		 push	 eax
  001b7	8d 4d 9c	 lea	 ecx, DWORD PTR _surface$[ebp]
  001ba	e8 00 00 00 00	 call	 ?Blt@CDirectDrawSurface@@QAEXPAUtagRECT@@PAV1@0@Z ; CDirectDrawSurface::Blt

; 937  : 	surface.LockW(lpSurface, pitch);				

  001bf	8d 45 f0	 lea	 eax, DWORD PTR _pitch$[ebp]
  001c2	50		 push	 eax
  001c3	8d 45 ec	 lea	 eax, DWORD PTR _lpSurface$[ebp]
  001c6	50		 push	 eax
  001c7	8d 4d 9c	 lea	 ecx, DWORD PTR _surface$[ebp]
  001ca	e8 00 00 00 00	 call	 ?LockW@CDirectDrawSurface@@QAEXAAPAGAAG@Z ; CDirectDrawSurface::LockW

; 938  : 	pSpriteSmall->SetPixel(lpSurface, pitch, smallSize.x, smallSize.y);

  001cf	8b 0f		 mov	 ecx, DWORD PTR [edi]
  001d1	6a 14		 push	 20			; 00000014H
  001d3	6a 14		 push	 20			; 00000014H
  001d5	ff 75 f0	 push	 DWORD PTR _pitch$[ebp]
  001d8	ff 75 ec	 push	 DWORD PTR _lpSurface$[ebp]
  001db	e8 00 00 00 00	 call	 ?SetPixel@CSprite@@QAEXPAGGGG@Z ; CSprite::SetPixel

; 939  : 	surface.Unlock();	

  001e0	8d 4d 9c	 lea	 ecx, DWORD PTR _surface$[ebp]
  001e3	e8 00 00 00 00	 call	 ?Unlock@CDirectDrawSurface@@QAE_NXZ ; CDirectDrawSurface::Unlock

; 940  : 
; 941  : 	//-----------------------------------------------------
; 942  : 	// add
; 943  : 	//-----------------------------------------------------
; 944  : //	AddGuildMark(guildID, pSprite, pSpriteSmall);
; 945  : 	return true;

  001e8	8d 4d 9c	 lea	 ecx, DWORD PTR _surface$[ebp]
  001eb	88 5d fc	 mov	 BYTE PTR __$EHRec$[ebp+8], bl
  001ee	e8 00 00 00 00	 call	 ??1CDirectDrawSurface@@QAE@XZ ; CDirectDrawSurface::~CDirectDrawSurface
  001f3	5f		 pop	 edi
  001f4	b3 01		 mov	 bl, 1
  001f6	5e		 pop	 esi
$L111219:
  001f7	83 4d fc ff	 or	 DWORD PTR __$EHRec$[ebp+8], -1
  001fb	8d 8d 7c ff ff
	ff		 lea	 ecx, DWORD PTR _bmpSurface$[ebp]
  00201	e8 00 00 00 00	 call	 ??1CDirectDrawSurface@@QAE@XZ ; CDirectDrawSurface::~CDirectDrawSurface
  00206	8a c3		 mov	 al, bl
$L106718:

; 946  : }

  00208	8b 4d f4	 mov	 ecx, DWORD PTR __$EHRec$[ebp]
  0020b	5b		 pop	 ebx
  0020c	64 89 0d 00 00
	00 00		 mov	 DWORD PTR fs:__except_list, ecx
  00213	c9		 leave
  00214	c3		 ret	 0
_TEXT	ENDS
;	COMDAT text$x
text$x	SEGMENT
$L111179:
  00000	8d 8d 7c ff ff
	ff		 lea	 ecx, DWORD PTR _bmpSurface$[ebp]
  00006	e9 00 00 00 00	 jmp	 ??1CDirectDrawSurface@@QAE@XZ ; CDirectDrawSurface::~CDirectDrawSurface
$L111180:
  0000b	8d 4d 9c	 lea	 ecx, DWORD PTR _surface$[ebp]
  0000e	e9 00 00 00 00	 jmp	 ??1CDirectDrawSurface@@QAE@XZ ; CDirectDrawSurface::~CDirectDrawSurface
$L111181:
  00013	ff 75 08	 push	 DWORD PTR $T111163[ebp]
  00016	e8 00 00 00 00	 call	 ??3@YAXPAX@Z		; operator delete
  0001b	59		 pop	 ecx
  0001c	c3		 ret	 0
$L111182:
  0001d	ff 75 08	 push	 DWORD PTR $T111167[ebp]
  00020	e8 00 00 00 00	 call	 ??3@YAXPAX@Z		; operator delete
  00025	59		 pop	 ecx
  00026	c3		 ret	 0
$L111183:
  00027	ff 75 08	 push	 DWORD PTR $T111171[ebp]
  0002a	e8 00 00 00 00	 call	 ??3@YAXPAX@Z		; operator delete
  0002f	59		 pop	 ecx
  00030	c3		 ret	 0
$L111184:
  00031	ff 75 08	 push	 DWORD PTR $T111175[ebp]
  00034	e8 00 00 00 00	 call	 ??3@YAXPAX@Z		; operator delete
  00039	59		 pop	 ecx
  0003a	c3		 ret	 0
__ehhandler$?CreateGuildMark@MGuildMarkManager@@SA_NPBDAAPAVCSprite@@1@Z:
  0003b	b8 00 00 00 00	 mov	 eax, OFFSET FLAT:$T111218
  00040	e9 00 00 00 00	 jmp	 ___CxxFrameHandler
text$x	ENDS
?CreateGuildMark@MGuildMarkManager@@SA_NPBDAAPAVCSprite@@1@Z ENDP ; MGuildMarkManager::CreateGuildMark
PUBLIC	?_M_terminate_string@?$basic_string@DV?$char_traits@D@_STL@@V?$allocator@D@2@@_STL@@AAEXXZ ; _STL::basic_string<char,_STL::char_traits<char>,_STL::allocator<char> >::_M_terminate_string
; Function compile flags: /Ogsy
; File c:\stlport-4.6.1\stlport\stl\_string.h
;	COMDAT ?_M_terminate_string@?$basic_string@DV?$char_traits@D@_STL@@V?$allocator@D@2@@_STL@@AAEXXZ
_TEXT	SEGMENT
?_M_terminate_string@?$basic_string@DV?$char_traits@D@_STL@@V?$allocator@D@2@@_STL@@AAEXXZ PROC NEAR ; _STL::basic_string<char,_STL::char_traits<char>,_STL::allocator<char> >::_M_terminate_string, COMDAT
; _this$ = ecx

; 355  :     _M_terminate_string_aux(_Char_Is_Integral());

  00000	8b 41 04	 mov	 eax, DWORD PTR [ecx+4]
  00003	c6 00 00	 mov	 BYTE PTR [eax], 0

; 356  :   }

  00006	c3		 ret	 0
?_M_terminate_string@?$basic_string@DV?$char_traits@D@_STL@@V?$allocator@D@2@@_STL@@AAEXXZ ENDP ; _STL::basic_string<char,_STL::char_traits<char>,_STL::allocator<char> >::_M_terminate_string
_TEXT	ENDS
PUBLIC	?allocate@?$allocator@D@_STL@@QAEPADIPBX@Z	; _STL::allocator<char>::allocate
; Function compile flags: /Ogsy
; File c:\stlport-4.6.1\stlport\stl\_alloc.h
;	COMDAT ?allocate@?$allocator@D@_STL@@QAEPADIPBX@Z
_TEXT	SEGMENT
___n$ = 8						; size = 4
___formal$ = 12						; size = 4
?allocate@?$allocator@D@_STL@@QAEPADIPBX@Z PROC NEAR	; _STL::allocator<char>::allocate, COMDAT
; _this$ = ecx

; 355  :     return __n != 0 ? __REINTERPRET_CAST(value_type*,__sgi_alloc::allocate(__n * sizeof(value_type))) : 0;

  00000	33 c0		 xor	 eax, eax
  00002	39 44 24 04	 cmp	 DWORD PTR ___n$[esp-4], eax
  00006	74 0a		 je	 SHORT $L111238
  00008	ff 74 24 04	 push	 DWORD PTR ___n$[esp-4]
  0000c	e8 00 00 00 00	 call	 ?allocate@?$__node_alloc@$00$0A@@_STL@@SAPAXI@Z ; _STL::__node_alloc<1,0>::allocate
  00011	59		 pop	 ecx
$L111238:

; 356  :   }

  00012	c2 08 00	 ret	 8
?allocate@?$allocator@D@_STL@@QAEPADIPBX@Z ENDP		; _STL::allocator<char>::allocate
_TEXT	ENDS
PUBLIC	??C?$_Rb_tree_iterator@U?$pair@$$CBGPAVGUILD_INFO@@@_STL@@U?$_Const_traits@U?$pair@$$CBGPAVGUILD_INFO@@@_STL@@@2@@_STL@@QBEPBU?$pair@$$CBGPAVGUILD_INFO@@@1@XZ ; _STL::_Rb_tree_iterator<_STL::pair<unsigned short const ,GUILD_INFO *>,_STL::_Const_traits<_STL::pair<unsigned short const ,GUILD_INFO *> > >::operator->
; Function compile flags: /Ogsy
; File c:\stlport-4.6.1\stlport\stl\_tree.h
;	COMDAT ??C?$_Rb_tree_iterator@U?$pair@$$CBGPAVGUILD_INFO@@@_STL@@U?$_Const_traits@U?$pair@$$CBGPAVGUILD_INFO@@@_STL@@@2@@_STL@@QBEPBU?$pair@$$CBGPAVGUILD_INFO@@@1@XZ
_TEXT	SEGMENT
??C?$_Rb_tree_iterator@U?$pair@$$CBGPAVGUILD_INFO@@@_STL@@U?$_Const_traits@U?$pair@$$CBGPAVGUILD_INFO@@@_STL@@@2@@_STL@@QBEPBU?$pair@$$CBGPAVGUILD_INFO@@@1@XZ PROC NEAR ; _STL::_Rb_tree_iterator<_STL::pair<unsigned short const ,GUILD_INFO *>,_STL::_Const_traits<_STL::pair<unsigned short const ,GUILD_INFO *> > >::operator->, COMDAT
; _this$ = ecx

; 172  :   _STLP_DEFINE_ARROW_OPERATOR

  00000	8b 01		 mov	 eax, DWORD PTR [ecx]
  00002	83 c0 10	 add	 eax, 16			; 00000010H
  00005	c3		 ret	 0
??C?$_Rb_tree_iterator@U?$pair@$$CBGPAVGUILD_INFO@@@_STL@@U?$_Const_traits@U?$pair@$$CBGPAVGUILD_INFO@@@_STL@@@2@@_STL@@QBEPBU?$pair@$$CBGPAVGUILD_INFO@@@1@XZ ENDP ; _STL::_Rb_tree_iterator<_STL::pair<unsigned short const ,GUILD_INFO *>,_STL::_Const_traits<_STL::pair<unsigned short const ,GUILD_INFO *> > >::operator->
_TEXT	ENDS
PUBLIC	??0?$_STLP_alloc_proxy@PADDV?$allocator@D@_STL@@@_STL@@QAE@ABV?$allocator@D@1@PAD@Z ; _STL::_STLP_alloc_proxy<char *,char,_STL::allocator<char> >::_STLP_alloc_proxy<char *,char,_STL::allocator<char> >
; Function compile flags: /Ogsy
; File c:\stlport-4.6.1\stlport\stl\_alloc.h
;	COMDAT ??0?$_STLP_alloc_proxy@PADDV?$allocator@D@_STL@@@_STL@@QAE@ABV?$allocator@D@1@PAD@Z
_TEXT	SEGMENT
___a$ = 8						; size = 4
___p$ = 12						; size = 4
??0?$_STLP_alloc_proxy@PADDV?$allocator@D@_STL@@@_STL@@QAE@ABV?$allocator@D@1@PAD@Z PROC NEAR ; _STL::_STLP_alloc_proxy<char *,char,_STL::allocator<char> >::_STLP_alloc_proxy<char *,char,_STL::allocator<char> >, COMDAT
; _this$ = ecx

; 487  :   inline _STLP_alloc_proxy(const _MaybeReboundAlloc& __a, _Value __p) : _MaybeReboundAlloc(__a), _M_data(__p) {}

  00000	8b c1		 mov	 eax, ecx
  00002	8b 4c 24 08	 mov	 ecx, DWORD PTR ___p$[esp-4]
  00006	89 08		 mov	 DWORD PTR [eax], ecx
  00008	c2 08 00	 ret	 8
??0?$_STLP_alloc_proxy@PADDV?$allocator@D@_STL@@@_STL@@QAE@ABV?$allocator@D@1@PAD@Z ENDP ; _STL::_STLP_alloc_proxy<char *,char,_STL::allocator<char> >::_STLP_alloc_proxy<char *,char,_STL::allocator<char> >
_TEXT	ENDS
PUBLIC	?key_comp@?$map@GUGUILD_SPRITES@MGuildMarkManager@@U?$less@G@_STL@@V?$allocator@U?$pair@$$CBGUGUILD_SPRITES@MGuildMarkManager@@@_STL@@@4@@_STL@@QBE?AU?$less@G@2@XZ ; _STL::map<unsigned short,MGuildMarkManager::GUILD_SPRITES,_STL::less<unsigned short>,_STL::allocator<_STL::pair<unsigned short const ,MGuildMarkManager::GUILD_SPRITES> > >::key_comp
; Function compile flags: /Ogsy
; File c:\stlport-4.6.1\stlport\stl\_map.h
;	COMDAT ?key_comp@?$map@GUGUILD_SPRITES@MGuildMarkManager@@U?$less@G@_STL@@V?$allocator@U?$pair@$$CBGUGUILD_SPRITES@MGuildMarkManager@@@_STL@@@4@@_STL@@QBE?AU?$less@G@2@XZ
_TEXT	SEGMENT
___$ReturnUdt$ = 8					; size = 4
?key_comp@?$map@GUGUILD_SPRITES@MGuildMarkManager@@U?$less@G@_STL@@V?$allocator@U?$pair@$$CBGUGUILD_SPRITES@MGuildMarkManager@@@_STL@@@4@@_STL@@QBE?AU?$less@G@2@XZ PROC NEAR ; _STL::map<unsigned short,MGuildMarkManager::GUILD_SPRITES,_STL::less<unsigned short>,_STL::allocator<_STL::pair<unsigned short const ,MGuildMarkManager::GUILD_SPRITES> > >::key_comp, COMDAT
; _this$ = ecx

; 143  :   key_compare key_comp() const { return _M_t.key_comp(); }

  00000	8b 44 24 04	 mov	 eax, DWORD PTR ___$ReturnUdt$[esp-4]
  00004	c2 04 00	 ret	 4
?key_comp@?$map@GUGUILD_SPRITES@MGuildMarkManager@@U?$less@G@_STL@@V?$allocator@U?$pair@$$CBGUGUILD_SPRITES@MGuildMarkManager@@@_STL@@@4@@_STL@@QBE?AU?$less@G@2@XZ ENDP ; _STL::map<unsigned short,MGuildMarkManager::GUILD_SPRITES,_STL::less<unsigned short>,_STL::allocator<_STL::pair<unsigned short const ,MGuildMarkManager::GUILD_SPRITES> > >::key_comp
_TEXT	ENDS
PUBLIC	?end@?$_Rb_tree@GU?$pair@$$CBGUGUILD_SPRITES@MGuildMarkManager@@@_STL@@U?$_Select1st@U?$pair@$$CBGUGUILD_SPRITES@MGuildMarkManager@@@_STL@@@2@U?$less@G@2@V?$allocator@U?$pair@$$CBGUGUILD_SPRITES@MGuildMarkManager@@@_STL@@@2@@_STL@@QAE?AU?$_Rb_tree_iterator@U?$pair@$$CBGUGUILD_SPRITES@MGuildMarkManager@@@_STL@@U?$_Nonconst_traits@U?$pair@$$CBGUGUILD_SPRITES@MGuildMarkManager@@@_STL@@@2@@2@XZ ; _STL::_Rb_tree<unsigned short,_STL::pair<unsigned short const ,MGuildMarkManager::GUILD_SPRITES>,_STL::_Select1st<_STL::pair<unsigned short const ,MGuildMarkManager::GUILD_SPRITES> >,_STL::less<unsigned short>,_STL::allocator<_STL::pair<unsigned short const ,MGuildMarkManager::GUILD_SPRITES> > >::end
; Function compile flags: /Ogsy
; File c:\stlport-4.6.1\stlport\stl\_tree.h
;	COMDAT ?end@?$_Rb_tree@GU?$pair@$$CBGUGUILD_SPRITES@MGuildMarkManager@@@_STL@@U?$_Select1st@U?$pair@$$CBGUGUILD_SPRITES@MGuildMarkManager@@@_STL@@@2@U?$less@G@2@V?$allocator@U?$pair@$$CBGUGUILD_SPRITES@MGuildMarkManager@@@_STL@@@2@@_STL@@QAE?AU?$_Rb_tree_iterator@U?$pair@$$CBGUGUILD_SPRITES@MGuildMarkManager@@@_STL@@U?$_Nonconst_traits@U?$pair@$$CBGUGUILD_SPRITES@MGuildMarkManager@@@_STL@@@2@@2@XZ
_TEXT	SEGMENT
___$ReturnUdt$ = 8					; size = 4
?end@?$_Rb_tree@GU?$pair@$$CBGUGUILD_SPRITES@MGuildMarkManager@@@_STL@@U?$_Select1st@U?$pair@$$CBGUGUILD_SPRITES@MGuildMarkManager@@@_STL@@@2@U?$less@G@2@V?$allocator@U?$pair@$$CBGUGUILD_SPRITES@MGuildMarkManager@@@_STL@@@2@@_STL@@QAE?AU?$_Rb_tree_iterator@U?$pair@$$CBGUGUILD_SPRITES@MGuildMarkManager@@@_STL@@U?$_Nonconst_traits@U?$pair@$$CBGUGUILD_SPRITES@MGuildMarkManager@@@_STL@@@2@@2@XZ PROC NEAR ; _STL::_Rb_tree<unsigned short,_STL::pair<unsigned short const ,MGuildMarkManager::GUILD_SPRITES>,_STL::_Select1st<_STL::pair<unsigned short const ,MGuildMarkManager::GUILD_SPRITES> >,_STL::less<unsigned short>,_STL::allocator<_STL::pair<unsigned short const ,MGuildMarkManager::GUILD_SPRITES> > >::end, COMDAT
; _this$ = ecx

; 359  :   iterator end() { return iterator(this->_M_header._M_data); }

  00000	8b 09		 mov	 ecx, DWORD PTR [ecx]
  00002	8b 44 24 04	 mov	 eax, DWORD PTR ___$ReturnUdt$[esp-4]
  00006	89 08		 mov	 DWORD PTR [eax], ecx
  00008	c2 04 00	 ret	 4
?end@?$_Rb_tree@GU?$pair@$$CBGUGUILD_SPRITES@MGuildMarkManager@@@_STL@@U?$_Select1st@U?$pair@$$CBGUGUILD_SPRITES@MGuildMarkManager@@@_STL@@@2@U?$less@G@2@V?$allocator@U?$pair@$$CBGUGUILD_SPRITES@MGuildMarkManager@@@_STL@@@2@@_STL@@QAE?AU?$_Rb_tree_iterator@U?$pair@$$CBGUGUILD_SPRITES@MGuildMarkManager@@@_STL@@U?$_Nonconst_traits@U?$pair@$$CBGUGUILD_SPRITES@MGuildMarkManager@@@_STL@@@2@@2@XZ ENDP ; _STL::_Rb_tree<unsigned short,_STL::pair<unsigned short const ,MGuildMarkManager::GUILD_SPRITES>,_STL::_Select1st<_STL::pair<unsigned short const ,MGuildMarkManager::GUILD_SPRITES> >,_STL::less<unsigned short>,_STL::allocator<_STL::pair<unsigned short const ,MGuildMarkManager::GUILD_SPRITES> > >::end
_TEXT	ENDS
PUBLIC	?end@?$_Rb_tree@GU?$pair@$$CBGUGUILD_SPRITES@MGuildMarkManager@@@_STL@@U?$_Select1st@U?$pair@$$CBGUGUILD_SPRITES@MGuildMarkManager@@@_STL@@@2@U?$less@G@2@V?$allocator@U?$pair@$$CBGUGUILD_SPRITES@MGuildMarkManager@@@_STL@@@2@@_STL@@QBE?AU?$_Rb_tree_iterator@U?$pair@$$CBGUGUILD_SPRITES@MGuildMarkManager@@@_STL@@U?$_Const_traits@U?$pair@$$CBGUGUILD_SPRITES@MGuildMarkManager@@@_STL@@@2@@2@XZ ; _STL::_Rb_tree<unsigned short,_STL::pair<unsigned short const ,MGuildMarkManager::GUILD_SPRITES>,_STL::_Select1st<_STL::pair<unsigned short const ,MGuildMarkManager::GUILD_SPRITES> >,_STL::less<unsigned short>,_STL::allocator<_STL::pair<unsigned short const ,MGuildMarkManager::GUILD_SPRITES> > >::end
; Function compile flags: /Ogsy
;	COMDAT ?end@?$_Rb_tree@GU?$pair@$$CBGUGUILD_SPRITES@MGuildMarkManager@@@_STL@@U?$_Select1st@U?$pair@$$CBGUGUILD_SPRITES@MGuildMarkManager@@@_STL@@@2@U?$less@G@2@V?$allocator@U?$pair@$$CBGUGUILD_SPRITES@MGuildMarkManager@@@_STL@@@2@@_STL@@QBE?AU?$_Rb_tree_iterator@U?$pair@$$CBGUGUILD_SPRITES@MGuildMarkManager@@@_STL@@U?$_Const_traits@U?$pair@$$CBGUGUILD_SPRITES@MGuildMarkManager@@@_STL@@@2@@2@XZ
_TEXT	SEGMENT
___$ReturnUdt$ = 8					; size = 4
?end@?$_Rb_tree@GU?$pair@$$CBGUGUILD_SPRITES@MGuildMarkManager@@@_STL@@U?$_Select1st@U?$pair@$$CBGUGUILD_SPRITES@MGuildMarkManager@@@_STL@@@2@U?$less@G@2@V?$allocator@U?$pair@$$CBGUGUILD_SPRITES@MGuildMarkManager@@@_STL@@@2@@_STL@@QBE?AU?$_Rb_tree_iterator@U?$pair@$$CBGUGUILD_SPRITES@MGuildMarkManager@@@_STL@@U?$_Const_traits@U?$pair@$$CBGUGUILD_SPRITES@MGuildMarkManager@@@_STL@@@2@@2@XZ PROC NEAR ; _STL::_Rb_tree<unsigned short,_STL::pair<unsigned short const ,MGuildMarkManager::GUILD_SPRITES>,_STL::_Select1st<_STL::pair<unsigned short const ,MGuildMarkManager::GUILD_SPRITES> >,_STL::less<unsigned short>,_STL::allocator<_STL::pair<unsigned short const ,MGuildMarkManager::GUILD_SPRITES> > >::end, COMDAT
; _this$ = ecx

; 360  :   const_iterator end() const { return const_iterator(this->_M_header._M_data); }

  00000	8b 09		 mov	 ecx, DWORD PTR [ecx]
  00002	8b 44 24 04	 mov	 eax, DWORD PTR ___$ReturnUdt$[esp-4]
  00006	89 08		 mov	 DWORD PTR [eax], ecx
  00008	c2 04 00	 ret	 4
?end@?$_Rb_tree@GU?$pair@$$CBGUGUILD_SPRITES@MGuildMarkManager@@@_STL@@U?$_Select1st@U?$pair@$$CBGUGUILD_SPRITES@MGuildMarkManager@@@_STL@@@2@U?$less@G@2@V?$allocator@U?$pair@$$CBGUGUILD_SPRITES@MGuildMarkManager@@@_STL@@@2@@_STL@@QBE?AU?$_Rb_tree_iterator@U?$pair@$$CBGUGUILD_SPRITES@MGuildMarkManager@@@_STL@@U?$_Const_traits@U?$pair@$$CBGUGUILD_SPRITES@MGuildMarkManager@@@_STL@@@2@@2@XZ ENDP ; _STL::_Rb_tree<unsigned short,_STL::pair<unsigned short const ,MGuildMarkManager::GUILD_SPRITES>,_STL::_Select1st<_STL::pair<unsigned short const ,MGuildMarkManager::GUILD_SPRITES> >,_STL::less<unsigned short>,_STL::allocator<_STL::pair<unsigned short const ,MGuildMarkManager::GUILD_SPRITES> > >::end
_TEXT	ENDS
PUBLIC	?end@?$_Rb_tree@GU?$pair@$$CBGPAVGUILD_INFO@@@_STL@@U?$_Select1st@U?$pair@$$CBGPAVGUILD_INFO@@@_STL@@@2@U?$less@G@2@V?$allocator@U?$pair@$$CBGPAVGUILD_INFO@@@_STL@@@2@@_STL@@QAE?AU?$_Rb_tree_iterator@U?$pair@$$CBGPAVGUILD_INFO@@@_STL@@U?$_Nonconst_traits@U?$pair@$$CBGPAVGUILD_INFO@@@_STL@@@2@@2@XZ ; _STL::_Rb_tree<unsigned short,_STL::pair<unsigned short const ,GUILD_INFO *>,_STL::_Select1st<_STL::pair<unsigned short const ,GUILD_INFO *> >,_STL::less<unsigned short>,_STL::allocator<_STL::pair<unsigned short const ,GUILD_INFO *> > >::end
; Function compile flags: /Ogsy
;	COMDAT ?end@?$_Rb_tree@GU?$pair@$$CBGPAVGUILD_INFO@@@_STL@@U?$_Select1st@U?$pair@$$CBGPAVGUILD_INFO@@@_STL@@@2@U?$less@G@2@V?$allocator@U?$pair@$$CBGPAVGUILD_INFO@@@_STL@@@2@@_STL@@QAE?AU?$_Rb_tree_iterator@U?$pair@$$CBGPAVGUILD_INFO@@@_STL@@U?$_Nonconst_traits@U?$pair@$$CBGPAVGUILD_INFO@@@_STL@@@2@@2@XZ
_TEXT	SEGMENT
___$ReturnUdt$ = 8					; size = 4
?end@?$_Rb_tree@GU?$pair@$$CBGPAVGUILD_INFO@@@_STL@@U?$_Select1st@U?$pair@$$CBGPAVGUILD_INFO@@@_STL@@@2@U?$less@G@2@V?$allocator@U?$pair@$$CBGPAVGUILD_INFO@@@_STL@@@2@@_STL@@QAE?AU?$_Rb_tree_iterator@U?$pair@$$CBGPAVGUILD_INFO@@@_STL@@U?$_Nonconst_traits@U?$pair@$$CBGPAVGUILD_INFO@@@_STL@@@2@@2@XZ PROC NEAR ; _STL::_Rb_tree<unsigned short,_STL::pair<unsigned short const ,GUILD_INFO *>,_STL::_Select1st<_STL::pair<unsigned short const ,GUILD_INFO *> >,_STL::less<unsigned short>,_STL::allocator<_STL::pair<unsigned short const ,GUILD_INFO *> > >::end, COMDAT
; _this$ = ecx

; 359  :   iterator end() { return iterator(this->_M_header._M_data); }

  00000	8b 09		 mov	 ecx, DWORD PTR [ecx]
  00002	8b 44 24 04	 mov	 eax, DWORD PTR ___$ReturnUdt$[esp-4]
  00006	89 08		 mov	 DWORD PTR [eax], ecx
  00008	c2 04 00	 ret	 4
?end@?$_Rb_tree@GU?$pair@$$CBGPAVGUILD_INFO@@@_STL@@U?$_Select1st@U?$pair@$$CBGPAVGUILD_INFO@@@_STL@@@2@U?$less@G@2@V?$allocator@U?$pair@$$CBGPAVGUILD_INFO@@@_STL@@@2@@_STL@@QAE?AU?$_Rb_tree_iterator@U?$pair@$$CBGPAVGUILD_INFO@@@_STL@@U?$_Nonconst_traits@U?$pair@$$CBGPAVGUILD_INFO@@@_STL@@@2@@2@XZ ENDP ; _STL::_Rb_tree<unsigned short,_STL::pair<unsigned short const ,GUILD_INFO *>,_STL::_Select1st<_STL::pair<unsigned short const ,GUILD_INFO *> >,_STL::less<unsigned short>,_STL::allocator<_STL::pair<unsigned short const ,GUILD_INFO *> > >::end
_TEXT	ENDS
PUBLIC	??1?$_STLP_alloc_proxy@PAU?$_Rb_tree_node@U?$pair@$$CBGUGUILD_SPRITES@MGuildMarkManager@@@_STL@@@_STL@@U12@V?$allocator@U?$_Rb_tree_node@U?$pair@$$CBGUGUILD_SPRITES@MGuildMarkManager@@@_STL@@@_STL@@@2@@_STL@@QAE@XZ ; _STL::_STLP_alloc_proxy<_STL::_Rb_tree_node<_STL::pair<unsigned short const ,MGuildMarkManager::GUILD_SPRITES> > *,_STL::_Rb_tree_node<_STL::pair<unsigned short const ,MGuildMarkManager::GUILD_SPRITES> >,_STL::allocator<_STL::_Rb_tree_node<_STL::pair<unsigned short const ,MGuildMarkManager::GUILD_SPRITES> > > >::~_STLP_alloc_proxy<_STL::_Rb_tree_node<_STL::pair<unsigned short const ,MGuildMarkManager::GUILD_SPRITES> > *,_STL::_Rb_tree_node<_STL::pair<unsigned short const ,MGuildMarkManager::GUILD_SPRITES> >,_STL::allocator<_STL::_Rb_tree_node<_STL::pair<unsigned short const ,MGuildMarkManager::GUILD_SPRITES> > > >
; Function compile flags: /Ogsy
;	COMDAT ??1?$_STLP_alloc_proxy@PAU?$_Rb_tree_node@U?$pair@$$CBGUGUILD_SPRITES@MGuildMarkManager@@@_STL@@@_STL@@U12@V?$allocator@U?$_Rb_tree_node@U?$pair@$$CBGUGUILD_SPRITES@MGuildMarkManager@@@_STL@@@_STL@@@2@@_STL@@QAE@XZ
_TEXT	SEGMENT
??1?$_STLP_alloc_proxy@PAU?$_Rb_tree_node@U?$pair@$$CBGUGUILD_SPRITES@MGuildMarkManager@@@_STL@@@_STL@@U12@V?$allocator@U?$_Rb_tree_node@U?$pair@$$CBGUGUILD_SPRITES@MGuildMarkManager@@@_STL@@@_STL@@@2@@_STL@@QAE@XZ PROC NEAR ; _STL::_STLP_alloc_proxy<_STL::_Rb_tree_node<_STL::pair<unsigned short const ,MGuildMarkManager::GUILD_SPRITES> > *,_STL::_Rb_tree_node<_STL::pair<unsigned short const ,MGuildMarkManager::GUILD_SPRITES> >,_STL::allocator<_STL::_Rb_tree_node<_STL::pair<unsigned short const ,MGuildMarkManager::GUILD_SPRITES> > > >::~_STLP_alloc_proxy<_STL::_Rb_tree_node<_STL::pair<unsigned short const ,MGuildMarkManager::GUILD_SPRITES> > *,_STL::_Rb_tree_node<_STL::pair<unsigned short const ,MGuildMarkManager::GUILD_SPRITES> >,_STL::allocator<_STL::_Rb_tree_node<_STL::pair<unsigned short const ,MGuildMarkManager::GUILD_SPRITES> > > >, COMDAT
; _this$ = ecx
  00000	c3		 ret	 0
??1?$_STLP_alloc_proxy@PAU?$_Rb_tree_node@U?$pair@$$CBGUGUILD_SPRITES@MGuildMarkManager@@@_STL@@@_STL@@U12@V?$allocator@U?$_Rb_tree_node@U?$pair@$$CBGUGUILD_SPRITES@MGuildMarkManager@@@_STL@@@_STL@@@2@@_STL@@QAE@XZ ENDP ; _STL::_STLP_alloc_proxy<_STL::_Rb_tree_node<_STL::pair<unsigned short const ,MGuildMarkManager::GUILD_SPRITES> > *,_STL::_Rb_tree_node<_STL::pair<unsigned short const ,MGuildMarkManager::GUILD_SPRITES> >,_STL::allocator<_STL::_Rb_tree_node<_STL::pair<unsigned short const ,MGuildMarkManager::GUILD_SPRITES> > > >::~_STLP_alloc_proxy<_STL::_Rb_tree_node<_STL::pair<unsigned short const ,MGuildMarkManager::GUILD_SPRITES> > *,_STL::_Rb_tree_node<_STL::pair<unsigned short const ,MGuildMarkManager::GUILD_SPRITES> >,_STL::allocator<_STL::_Rb_tree_node<_STL::pair<unsigned short const ,MGuildMarkManager::GUILD_SPRITES> > > >
_TEXT	ENDS
PUBLIC	?_M_empty_initialize@?$_Rb_tree@GU?$pair@$$CBGUGUILD_SPRITES@MGuildMarkManager@@@_STL@@U?$_Select1st@U?$pair@$$CBGUGUILD_SPRITES@MGuildMarkManager@@@_STL@@@2@U?$less@G@2@V?$allocator@U?$pair@$$CBGUGUILD_SPRITES@MGuildMarkManager@@@_STL@@@2@@_STL@@AAEXXZ ; _STL::_Rb_tree<unsigned short,_STL::pair<unsigned short const ,MGuildMarkManager::GUILD_SPRITES>,_STL::_Select1st<_STL::pair<unsigned short const ,MGuildMarkManager::GUILD_SPRITES> >,_STL::less<unsigned short>,_STL::allocator<_STL::pair<unsigned short const ,MGuildMarkManager::GUILD_SPRITES> > >::_M_empty_initialize
; Function compile flags: /Ogsy
;	COMDAT ?_M_empty_initialize@?$_Rb_tree@GU?$pair@$$CBGUGUILD_SPRITES@MGuildMarkManager@@@_STL@@U?$_Select1st@U?$pair@$$CBGUGUILD_SPRITES@MGuildMarkManager@@@_STL@@@2@U?$less@G@2@V?$allocator@U?$pair@$$CBGUGUILD_SPRITES@MGuildMarkManager@@@_STL@@@2@@_STL@@AAEXXZ
_TEXT	SEGMENT
?_M_empty_initialize@?$_Rb_tree@GU?$pair@$$CBGUGUILD_SPRITES@MGuildMarkManager@@@_STL@@U?$_Select1st@U?$pair@$$CBGUGUILD_SPRITES@MGuildMarkManager@@@_STL@@@2@U?$less@G@2@V?$allocator@U?$pair@$$CBGUGUILD_SPRITES@MGuildMarkManager@@@_STL@@@2@@_STL@@AAEXXZ PROC NEAR ; _STL::_Rb_tree<unsigned short,_STL::pair<unsigned short const ,MGuildMarkManager::GUILD_SPRITES>,_STL::_Select1st<_STL::pair<unsigned short const ,MGuildMarkManager::GUILD_SPRITES> >,_STL::less<unsigned short>,_STL::allocator<_STL::pair<unsigned short const ,MGuildMarkManager::GUILD_SPRITES> > >::_M_empty_initialize, COMDAT
; _this$ = ecx

; 346  :     _S_color(this->_M_header._M_data) = _S_rb_tree_red; // used to distinguish header from 

  00000	8b 01		 mov	 eax, DWORD PTR [ecx]
  00002	c6 00 00	 mov	 BYTE PTR [eax], 0

; 347  :                                           // __root, in iterator.operator++
; 348  :     _M_root() = 0;

  00005	8b 01		 mov	 eax, DWORD PTR [ecx]
  00007	83 60 04 00	 and	 DWORD PTR [eax+4], 0

; 349  :     _M_leftmost() = this->_M_header._M_data;

  0000b	8b 01		 mov	 eax, DWORD PTR [ecx]
  0000d	89 40 08	 mov	 DWORD PTR [eax+8], eax

; 350  :     _M_rightmost() = this->_M_header._M_data;

  00010	8b 09		 mov	 ecx, DWORD PTR [ecx]
  00012	89 49 0c	 mov	 DWORD PTR [ecx+12], ecx

; 351  :   }

  00015	c3		 ret	 0
?_M_empty_initialize@?$_Rb_tree@GU?$pair@$$CBGUGUILD_SPRITES@MGuildMarkManager@@@_STL@@U?$_Select1st@U?$pair@$$CBGUGUILD_SPRITES@MGuildMarkManager@@@_STL@@@2@U?$less@G@2@V?$allocator@U?$pair@$$CBGUGUILD_SPRITES@MGuildMarkManager@@@_STL@@@2@@_STL@@AAEXXZ ENDP ; _STL::_Rb_tree<unsigned short,_STL::pair<unsigned short const ,MGuildMarkManager::GUILD_SPRITES>,_STL::_Select1st<_STL::pair<unsigned short const ,MGuildMarkManager::GUILD_SPRITES> >,_STL::less<unsigned short>,_STL::allocator<_STL::pair<unsigned short const ,MGuildMarkManager::GUILD_SPRITES> > >::_M_empty_initialize
_TEXT	ENDS
PUBLIC	?deallocate@?$allocator@U?$_Rb_tree_node@U?$pair@$$CBGUGUILD_SPRITES@MGuildMarkManager@@@_STL@@@_STL@@@_STL@@QAEXPAU?$_Rb_tree_node@U?$pair@$$CBGUGUILD_SPRITES@MGuildMarkManager@@@_STL@@@2@I@Z ; _STL::allocator<_STL::_Rb_tree_node<_STL::pair<unsigned short const ,MGuildMarkManager::GUILD_SPRITES> > >::deallocate
; Function compile flags: /Ogsy
; File c:\stlport-4.6.1\stlport\stl\_alloc.h
;	COMDAT ?deallocate@?$allocator@U?$_Rb_tree_node@U?$pair@$$CBGUGUILD_SPRITES@MGuildMarkManager@@@_STL@@@_STL@@@_STL@@QAEXPAU?$_Rb_tree_node@U?$pair@$$CBGUGUILD_SPRITES@MGuildMarkManager@@@_STL@@@2@I@Z
_TEXT	SEGMENT
___p$ = 8						; size = 4
___n$ = 12						; size = 4
?deallocate@?$allocator@U?$_Rb_tree_node@U?$pair@$$CBGUGUILD_SPRITES@MGuildMarkManager@@@_STL@@@_STL@@@_STL@@QAEXPAU?$_Rb_tree_node@U?$pair@$$CBGUGUILD_SPRITES@MGuildMarkManager@@@_STL@@@2@I@Z PROC NEAR ; _STL::allocator<_STL::_Rb_tree_node<_STL::pair<unsigned short const ,MGuildMarkManager::GUILD_SPRITES> > >::deallocate, COMDAT
; _this$ = ecx

; 359  :     _STLP_ASSERT( (__p == 0) == (__n == 0) )
; 360  :       if (__p != 0) __sgi_alloc::deallocate((void*)__p, __n * sizeof(value_type));

  00000	83 7c 24 04 00	 cmp	 DWORD PTR ___p$[esp-4], 0
  00005	74 13		 je	 SHORT $L107141
  00007	8b 44 24 08	 mov	 eax, DWORD PTR ___n$[esp-4]
  0000b	6b c0 1c	 imul	 eax, 28			; 0000001cH
  0000e	50		 push	 eax
  0000f	ff 74 24 08	 push	 DWORD PTR ___p$[esp]
  00013	e8 00 00 00 00	 call	 ?deallocate@?$__node_alloc@$00$0A@@_STL@@SAXPAXI@Z ; _STL::__node_alloc<1,0>::deallocate
  00018	59		 pop	 ecx
  00019	59		 pop	 ecx
$L107141:

; 361  :   }

  0001a	c2 08 00	 ret	 8
?deallocate@?$allocator@U?$_Rb_tree_node@U?$pair@$$CBGUGUILD_SPRITES@MGuildMarkManager@@@_STL@@@_STL@@@_STL@@QAEXPAU?$_Rb_tree_node@U?$pair@$$CBGUGUILD_SPRITES@MGuildMarkManager@@@_STL@@@2@I@Z ENDP ; _STL::allocator<_STL::_Rb_tree_node<_STL::pair<unsigned short const ,MGuildMarkManager::GUILD_SPRITES> > >::deallocate
_TEXT	ENDS
PUBLIC	??0?$_STLP_alloc_proxy@PAU?$_Rb_tree_node@U?$pair@$$CBGUGUILD_SPRITES@MGuildMarkManager@@@_STL@@@_STL@@U12@V?$allocator@U?$_Rb_tree_node@U?$pair@$$CBGUGUILD_SPRITES@MGuildMarkManager@@@_STL@@@_STL@@@2@@_STL@@QAE@ABV?$allocator@U?$_Rb_tree_node@U?$pair@$$CBGUGUILD_SPRITES@MGuildMarkManager@@@_STL@@@_STL@@@1@PAU?$_Rb_tree_node@U?$pair@$$CBGUGUILD_SPRITES@MGuildMarkManager@@@_STL@@@1@@Z ; _STL::_STLP_alloc_proxy<_STL::_Rb_tree_node<_STL::pair<unsigned short const ,MGuildMarkManager::GUILD_SPRITES> > *,_STL::_Rb_tree_node<_STL::pair<unsigned short const ,MGuildMarkManager::GUILD_SPRITES> >,_STL::allocator<_STL::_Rb_tree_node<_STL::pair<unsigned short const ,MGuildMarkManager::GUILD_SPRITES> > > >::_STLP_alloc_proxy<_STL::_Rb_tree_node<_STL::pair<unsigned short const ,MGuildMarkManager::GUILD_SPRITES> > *,_STL::_Rb_tree_node<_STL::pair<unsigned short const ,MGuildMarkManager::GUILD_SPRITES> >,_STL::allocator<_STL::_Rb_tree_node<_STL::pair<unsigned short const ,MGuildMarkManager::GUILD_SPRITES> > > >
; Function compile flags: /Ogsy
;	COMDAT ??0?$_STLP_alloc_proxy@PAU?$_Rb_tree_node@U?$pair@$$CBGUGUILD_SPRITES@MGuildMarkManager@@@_STL@@@_STL@@U12@V?$allocator@U?$_Rb_tree_node@U?$pair@$$CBGUGUILD_SPRITES@MGuildMarkManager@@@_STL@@@_STL@@@2@@_STL@@QAE@ABV?$allocator@U?$_Rb_tree_node@U?$pair@$$CBGUGUILD_SPRITES@MGuildMarkManager@@@_STL@@@_STL@@@1@PAU?$_Rb_tree_node@U?$pair@$$CBGUGUILD_SPRITES@MGuildMarkManager@@@_STL@@@1@@Z
_TEXT	SEGMENT
___a$ = 8						; size = 4
___p$ = 12						; size = 4
??0?$_STLP_alloc_proxy@PAU?$_Rb_tree_node@U?$pair@$$CBGUGUILD_SPRITES@MGuildMarkManager@@@_STL@@@_STL@@U12@V?$allocator@U?$_Rb_tree_node@U?$pair@$$CBGUGUILD_SPRITES@MGuildMarkManager@@@_STL@@@_STL@@@2@@_STL@@QAE@ABV?$allocator@U?$_Rb_tree_node@U?$pair@$$CBGUGUILD_SPRITES@MGuildMarkManager@@@_STL@@@_STL@@@1@PAU?$_Rb_tree_node@U?$pair@$$CBGUGUILD_SPRITES@MGuildMarkManager@@@_STL@@@1@@Z PROC NEAR ; _STL::_STLP_alloc_proxy<_STL::_Rb_tree_node<_STL::pair<unsigned short const ,MGuildMarkManager::GUILD_SPRITES> > *,_STL::_Rb_tree_node<_STL::pair<unsigned short const ,MGuildMarkManager::GUILD_SPRITES> >,_STL::allocator<_STL::_Rb_tree_node<_STL::pair<unsigned short const ,MGuildMarkManager::GUILD_SPRITES> > > >::_STLP_alloc_proxy<_STL::_Rb_tree_node<_STL::pair<unsigned short const ,MGuildMarkManager::GUILD_SPRITES> > *,_STL::_Rb_tree_node<_STL::pair<unsigned short const ,MGuildMarkManager::GUILD_SPRITES> >,_STL::allocator<_STL::_Rb_tree_node<_STL::pair<unsigned short const ,MGuildMarkManager::GUILD_SPRITES> > > >, COMDAT
; _this$ = ecx

; 487  :   inline _STLP_alloc_proxy(const _MaybeReboundAlloc& __a, _Value __p) : _MaybeReboundAlloc(__a), _M_data(__p) {}

  00000	8b c1		 mov	 eax, ecx
  00002	8b 4c 24 08	 mov	 ecx, DWORD PTR ___p$[esp-4]
  00006	89 08		 mov	 DWORD PTR [eax], ecx
  00008	c2 08 00	 ret	 8
??0?$_STLP_alloc_proxy@PAU?$_Rb_tree_node@U?$pair@$$CBGUGUILD_SPRITES@MGuildMarkManager@@@_STL@@@_STL@@U12@V?$allocator@U?$_Rb_tree_node@U?$pair@$$CBGUGUILD_SPRITES@MGuildMarkManager@@@_STL@@@_STL@@@2@@_STL@@QAE@ABV?$allocator@U?$_Rb_tree_node@U?$pair@$$CBGUGUILD_SPRITES@MGuildMarkManager@@@_STL@@@_STL@@@1@PAU?$_Rb_tree_node@U?$pair@$$CBGUGUILD_SPRITES@MGuildMarkManager@@@_STL@@@1@@Z ENDP ; _STL::_STLP_alloc_proxy<_STL::_Rb_tree_node<_STL::pair<unsigned short const ,MGuildMarkManager::GUILD_SPRITES> > *,_STL::_Rb_tree_node<_STL::pair<unsigned short const ,MGuildMarkManager::GUILD_SPRITES> >,_STL::allocator<_STL::_Rb_tree_node<_STL::pair<unsigned short const ,MGuildMarkManager::GUILD_SPRITES> > > >::_STLP_alloc_proxy<_STL::_Rb_tree_node<_STL::pair<unsigned short const ,MGuildMarkManager::GUILD_SPRITES> > *,_STL::_Rb_tree_node<_STL::pair<unsigned short const ,MGuildMarkManager::GUILD_SPRITES> >,_STL::allocator<_STL::_Rb_tree_node<_STL::pair<unsigned short const ,MGuildMarkManager::GUILD_SPRITES> > > >
_TEXT	ENDS
PUBLIC	?allocate@?$allocator@U?$_Rb_tree_node@U?$pair@$$CBGUGUILD_SPRITES@MGuildMarkManager@@@_STL@@@_STL@@@_STL@@QAEPAU?$_Rb_tree_node@U?$pair@$$CBGUGUILD_SPRITES@MGuildMarkManager@@@_STL@@@2@IPBX@Z ; _STL::allocator<_STL::_Rb_tree_node<_STL::pair<unsigned short const ,MGuildMarkManager::GUILD_SPRITES> > >::allocate
; Function compile flags: /Ogsy
;	COMDAT ?allocate@?$allocator@U?$_Rb_tree_node@U?$pair@$$CBGUGUILD_SPRITES@MGuildMarkManager@@@_STL@@@_STL@@@_STL@@QAEPAU?$_Rb_tree_node@U?$pair@$$CBGUGUILD_SPRITES@MGuildMarkManager@@@_STL@@@2@IPBX@Z
_TEXT	SEGMENT
___n$ = 8						; size = 4
___formal$ = 12						; size = 4
?allocate@?$allocator@U?$_Rb_tree_node@U?$pair@$$CBGUGUILD_SPRITES@MGuildMarkManager@@@_STL@@@_STL@@@_STL@@QAEPAU?$_Rb_tree_node@U?$pair@$$CBGUGUILD_SPRITES@MGuildMarkManager@@@_STL@@@2@IPBX@Z PROC NEAR ; _STL::allocator<_STL::_Rb_tree_node<_STL::pair<unsigned short const ,MGuildMarkManager::GUILD_SPRITES> > >::allocate, COMDAT
; _this$ = ecx

; 355  :     return __n != 0 ? __REINTERPRET_CAST(value_type*,__sgi_alloc::allocate(__n * sizeof(value_type))) : 0;

  00000	8b 44 24 04	 mov	 eax, DWORD PTR ___n$[esp-4]
  00004	85 c0		 test	 eax, eax
  00006	74 0c		 je	 SHORT $L111306
  00008	6b c0 1c	 imul	 eax, 28			; 0000001cH
  0000b	50		 push	 eax
  0000c	e8 00 00 00 00	 call	 ?allocate@?$__node_alloc@$00$0A@@_STL@@SAPAXI@Z ; _STL::__node_alloc<1,0>::allocate
  00011	59		 pop	 ecx
  00012	eb 02		 jmp	 SHORT $L111307
$L111306:
  00014	33 c0		 xor	 eax, eax
$L111307:

; 356  :   }

  00016	c2 08 00	 ret	 8
?allocate@?$allocator@U?$_Rb_tree_node@U?$pair@$$CBGUGUILD_SPRITES@MGuildMarkManager@@@_STL@@@_STL@@@_STL@@QAEPAU?$_Rb_tree_node@U?$pair@$$CBGUGUILD_SPRITES@MGuildMarkManager@@@_STL@@@2@IPBX@Z ENDP ; _STL::allocator<_STL::_Rb_tree_node<_STL::pair<unsigned short const ,MGuildMarkManager::GUILD_SPRITES> > >::allocate
_TEXT	ENDS
PUBLIC	?_S_key@?$_Rb_tree@GU?$pair@$$CBGUGUILD_SPRITES@MGuildMarkManager@@@_STL@@U?$_Select1st@U?$pair@$$CBGUGUILD_SPRITES@MGuildMarkManager@@@_STL@@@2@U?$less@G@2@V?$allocator@U?$pair@$$CBGUGUILD_SPRITES@MGuildMarkManager@@@_STL@@@2@@_STL@@KAABGPAU?$_Rb_tree_node@U?$pair@$$CBGUGUILD_SPRITES@MGuildMarkManager@@@_STL@@@2@@Z ; _STL::_Rb_tree<unsigned short,_STL::pair<unsigned short const ,MGuildMarkManager::GUILD_SPRITES>,_STL::_Select1st<_STL::pair<unsigned short const ,MGuildMarkManager::GUILD_SPRITES> >,_STL::less<unsigned short>,_STL::allocator<_STL::pair<unsigned short const ,MGuildMarkManager::GUILD_SPRITES> > >::_S_key
; Function compile flags: /Ogsy
; File c:\stlport-4.6.1\stlport\stl\_tree.h
;	COMDAT ?_S_key@?$_Rb_tree@GU?$pair@$$CBGUGUILD_SPRITES@MGuildMarkManager@@@_STL@@U?$_Select1st@U?$pair@$$CBGUGUILD_SPRITES@MGuildMarkManager@@@_STL@@@2@U?$less@G@2@V?$allocator@U?$pair@$$CBGUGUILD_SPRITES@MGuildMarkManager@@@_STL@@@2@@_STL@@KAABGPAU?$_Rb_tree_node@U?$pair@$$CBGUGUILD_SPRITES@MGuildMarkManager@@@_STL@@@2@@Z
_TEXT	SEGMENT
___x$ = 8						; size = 4
?_S_key@?$_Rb_tree@GU?$pair@$$CBGUGUILD_SPRITES@MGuildMarkManager@@@_STL@@U?$_Select1st@U?$pair@$$CBGUGUILD_SPRITES@MGuildMarkManager@@@_STL@@@2@U?$less@G@2@V?$allocator@U?$pair@$$CBGUGUILD_SPRITES@MGuildMarkManager@@@_STL@@@2@@_STL@@KAABGPAU?$_Rb_tree_node@U?$pair@$$CBGUGUILD_SPRITES@MGuildMarkManager@@@_STL@@@2@@Z PROC NEAR ; _STL::_Rb_tree<unsigned short,_STL::pair<unsigned short const ,MGuildMarkManager::GUILD_SPRITES>,_STL::_Select1st<_STL::pair<unsigned short const ,MGuildMarkManager::GUILD_SPRITES> >,_STL::less<unsigned short>,_STL::allocator<_STL::pair<unsigned short const ,MGuildMarkManager::GUILD_SPRITES> > >::_S_key, COMDAT

; 280  :     { return _KeyOfValue()(_S_value(__x)); }

  00000	8b 44 24 04	 mov	 eax, DWORD PTR ___x$[esp-4]
  00004	83 c0 10	 add	 eax, 16			; 00000010H
  00007	c3		 ret	 0
?_S_key@?$_Rb_tree@GU?$pair@$$CBGUGUILD_SPRITES@MGuildMarkManager@@@_STL@@U?$_Select1st@U?$pair@$$CBGUGUILD_SPRITES@MGuildMarkManager@@@_STL@@@2@U?$less@G@2@V?$allocator@U?$pair@$$CBGUGUILD_SPRITES@MGuildMarkManager@@@_STL@@@2@@_STL@@KAABGPAU?$_Rb_tree_node@U?$pair@$$CBGUGUILD_SPRITES@MGuildMarkManager@@@_STL@@@2@@Z ENDP ; _STL::_Rb_tree<unsigned short,_STL::pair<unsigned short const ,MGuildMarkManager::GUILD_SPRITES>,_STL::_Select1st<_STL::pair<unsigned short const ,MGuildMarkManager::GUILD_SPRITES> >,_STL::less<unsigned short>,_STL::allocator<_STL::pair<unsigned short const ,MGuildMarkManager::GUILD_SPRITES> > >::_S_key
_TEXT	ENDS
PUBLIC	?_M_erase@?$_Rb_tree@GU?$pair@$$CBGUGUILD_SPRITES@MGuildMarkManager@@@_STL@@U?$_Select1st@U?$pair@$$CBGUGUILD_SPRITES@MGuildMarkManager@@@_STL@@@2@U?$less@G@2@V?$allocator@U?$pair@$$CBGUGUILD_SPRITES@MGuildMarkManager@@@_STL@@@2@@_STL@@AAEXPAU?$_Rb_tree_node@U?$pair@$$CBGUGUILD_SPRITES@MGuildMarkManager@@@_STL@@@2@@Z ; _STL::_Rb_tree<unsigned short,_STL::pair<unsigned short const ,MGuildMarkManager::GUILD_SPRITES>,_STL::_Select1st<_STL::pair<unsigned short const ,MGuildMarkManager::GUILD_SPRITES> >,_STL::less<unsigned short>,_STL::allocator<_STL::pair<unsigned short const ,MGuildMarkManager::GUILD_SPRITES> > >::_M_erase
; Function compile flags: /Ogsy
; File c:\stlport-4.6.1\stlport\stl\_tree.c
;	COMDAT ?_M_erase@?$_Rb_tree@GU?$pair@$$CBGUGUILD_SPRITES@MGuildMarkManager@@@_STL@@U?$_Select1st@U?$pair@$$CBGUGUILD_SPRITES@MGuildMarkManager@@@_STL@@@2@U?$less@G@2@V?$allocator@U?$pair@$$CBGUGUILD_SPRITES@MGuildMarkManager@@@_STL@@@2@@_STL@@AAEXPAU?$_Rb_tree_node@U?$pair@$$CBGUGUILD_SPRITES@MGuildMarkManager@@@_STL@@@2@@Z
_TEXT	SEGMENT
___x$ = 8						; size = 4
?_M_erase@?$_Rb_tree@GU?$pair@$$CBGUGUILD_SPRITES@MGuildMarkManager@@@_STL@@U?$_Select1st@U?$pair@$$CBGUGUILD_SPRITES@MGuildMarkManager@@@_STL@@@2@U?$less@G@2@V?$allocator@U?$pair@$$CBGUGUILD_SPRITES@MGuildMarkManager@@@_STL@@@2@@_STL@@AAEXPAU?$_Rb_tree_node@U?$pair@$$CBGUGUILD_SPRITES@MGuildMarkManager@@@_STL@@@2@@Z PROC NEAR ; _STL::_Rb_tree<unsigned short,_STL::pair<unsigned short const ,MGuildMarkManager::GUILD_SPRITES>,_STL::_Select1st<_STL::pair<unsigned short const ,MGuildMarkManager::GUILD_SPRITES> >,_STL::less<unsigned short>,_STL::allocator<_STL::pair<unsigned short const ,MGuildMarkManager::GUILD_SPRITES> > >::_M_erase, COMDAT
; _this$ = ecx

; 637  : {

  00000	53		 push	 ebx
  00001	56		 push	 esi

; 638  :                                 // erase without rebalancing
; 639  :   while (__x != 0) {

  00002	8b 74 24 0c	 mov	 esi, DWORD PTR ___x$[esp+4]
  00006	85 f6		 test	 esi, esi
  00008	8b d9		 mov	 ebx, ecx
  0000a	74 1f		 je	 SHORT $L107433
  0000c	57		 push	 edi
$L107432:

; 640  :     _M_erase(_S_right(__x));

  0000d	ff 76 0c	 push	 DWORD PTR [esi+12]
  00010	8b cb		 mov	 ecx, ebx
  00012	e8 00 00 00 00	 call	 ?_M_erase@?$_Rb_tree@GU?$pair@$$CBGUGUILD_SPRITES@MGuildMarkManager@@@_STL@@U?$_Select1st@U?$pair@$$CBGUGUILD_SPRITES@MGuildMarkManager@@@_STL@@@2@U?$less@G@2@V?$allocator@U?$pair@$$CBGUGUILD_SPRITES@MGuildMarkManager@@@_STL@@@2@@_STL@@AAEXPAU?$_Rb_tree_node@U?$pair@$$CBGUGUILD_SPRITES@MGuildMarkManager@@@_STL@@@2@@Z ; _STL::_Rb_tree<unsigned short,_STL::pair<unsigned short const ,MGuildMarkManager::GUILD_SPRITES>,_STL::_Select1st<_STL::pair<unsigned short const ,MGuildMarkManager::GUILD_SPRITES> >,_STL::less<unsigned short>,_STL::allocator<_STL::pair<unsigned short const ,MGuildMarkManager::GUILD_SPRITES> > >::_M_erase

; 641  :     _Link_type __y = _S_left(__x);

  00017	8b 7e 08	 mov	 edi, DWORD PTR [esi+8]

; 642  :     _STLP_STD::_Destroy(&__x->_M_value_field);
; 643  :     this->_M_header.deallocate(__x,1);

  0001a	6a 01		 push	 1
  0001c	56		 push	 esi
  0001d	8b cb		 mov	 ecx, ebx
  0001f	e8 00 00 00 00	 call	 ?deallocate@?$allocator@U?$_Rb_tree_node@U?$pair@$$CBGUGUILD_SPRITES@MGuildMarkManager@@@_STL@@@_STL@@@_STL@@QAEXPAU?$_Rb_tree_node@U?$pair@$$CBGUGUILD_SPRITES@MGuildMarkManager@@@_STL@@@2@I@Z ; _STL::allocator<_STL::_Rb_tree_node<_STL::pair<unsigned short const ,MGuildMarkManager::GUILD_SPRITES> > >::deallocate
  00024	85 ff		 test	 edi, edi

; 644  :     __x = __y;

  00026	8b f7		 mov	 esi, edi
  00028	75 e3		 jne	 SHORT $L107432
  0002a	5f		 pop	 edi
$L107433:
  0002b	5e		 pop	 esi
  0002c	5b		 pop	 ebx

; 645  :   }
; 646  : }

  0002d	c2 04 00	 ret	 4
?_M_erase@?$_Rb_tree@GU?$pair@$$CBGUGUILD_SPRITES@MGuildMarkManager@@@_STL@@U?$_Select1st@U?$pair@$$CBGUGUILD_SPRITES@MGuildMarkManager@@@_STL@@@2@U?$less@G@2@V?$allocator@U?$pair@$$CBGUGUILD_SPRITES@MGuildMarkManager@@@_STL@@@2@@_STL@@AAEXPAU?$_Rb_tree_node@U?$pair@$$CBGUGUILD_SPRITES@MGuildMarkManager@@@_STL@@@2@@Z ENDP ; _STL::_Rb_tree<unsigned short,_STL::pair<unsigned short const ,MGuildMarkManager::GUILD_SPRITES>,_STL::_Select1st<_STL::pair<unsigned short const ,MGuildMarkManager::GUILD_SPRITES> >,_STL::less<unsigned short>,_STL::allocator<_STL::pair<unsigned short const ,MGuildMarkManager::GUILD_SPRITES> > >::_M_erase
_TEXT	ENDS
PUBLIC	?Release@?$CTypePack2@VCSprite@@VCSprite555@@VCSprite565@@@@UAEXXZ ; CTypePack2<CSprite,CSprite555,CSprite565>::Release
; Function compile flags: /Ogsy
; File c:\darkeden\designed_common\project\client\spritelib\ctypepack.h
;	COMDAT ?Release@?$CTypePack2@VCSprite@@VCSprite555@@VCSprite565@@@@UAEXXZ
_TEXT	SEGMENT
?Release@?$CTypePack2@VCSprite@@VCSprite555@@VCSprite565@@@@UAEXXZ PROC NEAR ; CTypePack2<CSprite,CSprite555,CSprite565>::Release, COMDAT
; _this$ = ecx

; 899  : {

  00000	56		 push	 esi
  00001	8b f1		 mov	 esi, ecx

; 900  : 	FinishRunningLoad();

  00003	8b 06		 mov	 eax, DWORD PTR [esi]
  00005	ff 50 34	 call	 DWORD PTR [eax+52]

; 901  : 
; 902  : 	if(m_pData != NULL)

  00008	8b 4e 04	 mov	 ecx, DWORD PTR [esi+4]
  0000b	85 c9		 test	 ecx, ecx
  0000d	74 10		 je	 SHORT $L107565

; 903  : 	{
; 904  : 		delete []m_pData;

  0000f	6a 03		 push	 3
  00011	e8 00 00 00 00	 call	 ??_ECSprite@@QAEPAXI@Z

; 905  : 		m_pData = NULL;

  00016	83 66 04 00	 and	 DWORD PTR [esi+4], 0

; 906  : 		m_Size = 0;

  0001a	66 83 66 08 00	 and	 WORD PTR [esi+8], 0
$L107565:
  0001f	5e		 pop	 esi

; 907  : 	}
; 908  : }

  00020	c3		 ret	 0
?Release@?$CTypePack2@VCSprite@@VCSprite555@@VCSprite565@@@@UAEXXZ ENDP ; CTypePack2<CSprite,CSprite555,CSprite565>::Release
_TEXT	ENDS
PUBLIC	??_ECSprite565@@QAEPAXI@Z			; CSprite565::`vector deleting destructor'
; Function compile flags: /Ogsy
;	COMDAT ??_ECSprite565@@QAEPAXI@Z
_TEXT	SEGMENT
___flags$ = 8						; size = 4
??_ECSprite565@@QAEPAXI@Z PROC NEAR			; CSprite565::`vector deleting destructor', COMDAT
; _this$ = ecx
  00000	53		 push	 ebx
  00001	8a 5c 24 08	 mov	 bl, BYTE PTR ___flags$[esp]
  00005	f6 c3 02	 test	 bl, 2
  00008	56		 push	 esi
  00009	8b f1		 mov	 esi, ecx
  0000b	74 24		 je	 SHORT $L108662
  0000d	57		 push	 edi
  0000e	68 00 00 00 00	 push	 OFFSET FLAT:??1CSprite565@@QAE@XZ
  00013	8d 7e fc	 lea	 edi, DWORD PTR [esi-4]
  00016	ff 37		 push	 DWORD PTR [edi]
  00018	6a 10		 push	 16			; 00000010H
  0001a	56		 push	 esi
  0001b	e8 00 00 00 00	 call	 ??_M@YGXPAXIHP6EX0@Z@Z
  00020	f6 c3 01	 test	 bl, 1
  00023	74 07		 je	 SHORT $L108663
  00025	57		 push	 edi
  00026	e8 00 00 00 00	 call	 ??_V@YAXPAX@Z		; operator delete[]
  0002b	59		 pop	 ecx
$L108663:
  0002c	8b c7		 mov	 eax, edi
  0002e	5f		 pop	 edi
  0002f	eb 15		 jmp	 SHORT $L108661
$L108662:
  00031	8b ce		 mov	 ecx, esi
  00033	e8 00 00 00 00	 call	 ??1CSprite565@@QAE@XZ
  00038	f6 c3 01	 test	 bl, 1
  0003b	74 07		 je	 SHORT $L108665
  0003d	56		 push	 esi
  0003e	e8 00 00 00 00	 call	 ??3@YAXPAX@Z		; operator delete
  00043	59		 pop	 ecx
$L108665:
  00044	8b c6		 mov	 eax, esi
$L108661:
  00046	5e		 pop	 esi
  00047	5b		 pop	 ebx
  00048	c2 04 00	 ret	 4
??_ECSprite565@@QAEPAXI@Z ENDP				; CSprite565::`vector deleting destructor'
_TEXT	ENDS
PUBLIC	??_ECSprite555@@QAEPAXI@Z			; CSprite555::`vector deleting destructor'
; Function compile flags: /Ogsy
;	COMDAT ??_ECSprite555@@QAEPAXI@Z
_TEXT	SEGMENT
___flags$ = 8						; size = 4
??_ECSprite555@@QAEPAXI@Z PROC NEAR			; CSprite555::`vector deleting destructor', COMDAT
; _this$ = ecx
  00000	53		 push	 ebx
  00001	8a 5c 24 08	 mov	 bl, BYTE PTR ___flags$[esp]
  00005	f6 c3 02	 test	 bl, 2
  00008	56		 push	 esi
  00009	8b f1		 mov	 esi, ecx
  0000b	74 24		 je	 SHORT $L108670
  0000d	57		 push	 edi
  0000e	68 00 00 00 00	 push	 OFFSET FLAT:??1CSprite555@@QAE@XZ
  00013	8d 7e fc	 lea	 edi, DWORD PTR [esi-4]
  00016	ff 37		 push	 DWORD PTR [edi]
  00018	6a 10		 push	 16			; 00000010H
  0001a	56		 push	 esi
  0001b	e8 00 00 00 00	 call	 ??_M@YGXPAXIHP6EX0@Z@Z
  00020	f6 c3 01	 test	 bl, 1
  00023	74 07		 je	 SHORT $L108671
  00025	57		 push	 edi
  00026	e8 00 00 00 00	 call	 ??_V@YAXPAX@Z		; operator delete[]
  0002b	59		 pop	 ecx
$L108671:
  0002c	8b c7		 mov	 eax, edi
  0002e	5f		 pop	 edi
  0002f	eb 15		 jmp	 SHORT $L108669
$L108670:
  00031	8b ce		 mov	 ecx, esi
  00033	e8 00 00 00 00	 call	 ??1CSprite555@@QAE@XZ
  00038	f6 c3 01	 test	 bl, 1
  0003b	74 07		 je	 SHORT $L108673
  0003d	56		 push	 esi
  0003e	e8 00 00 00 00	 call	 ??3@YAXPAX@Z		; operator delete
  00043	59		 pop	 ecx
$L108673:
  00044	8b c6		 mov	 eax, esi
$L108669:
  00046	5e		 pop	 esi
  00047	5b		 pop	 ebx
  00048	c2 04 00	 ret	 4
??_ECSprite555@@QAEPAXI@Z ENDP				; CSprite555::`vector deleting destructor'
_TEXT	ENDS
PUBLIC	??1?$_STLP_alloc_proxy@PAU?$_Rb_tree_node@U?$pair@$$CBGPAVivfstream@@@_STL@@@_STL@@U12@V?$allocator@U?$_Rb_tree_node@U?$pair@$$CBGPAVivfstream@@@_STL@@@_STL@@@2@@_STL@@QAE@XZ ; _STL::_STLP_alloc_proxy<_STL::_Rb_tree_node<_STL::pair<unsigned short const ,ivfstream *> > *,_STL::_Rb_tree_node<_STL::pair<unsigned short const ,ivfstream *> >,_STL::allocator<_STL::_Rb_tree_node<_STL::pair<unsigned short const ,ivfstream *> > > >::~_STLP_alloc_proxy<_STL::_Rb_tree_node<_STL::pair<unsigned short const ,ivfstream *> > *,_STL::_Rb_tree_node<_STL::pair<unsigned short const ,ivfstream *> >,_STL::allocator<_STL::_Rb_tree_node<_STL::pair<unsigned short const ,ivfstream *> > > >
; Function compile flags: /Ogsy
;	COMDAT ??1?$_STLP_alloc_proxy@PAU?$_Rb_tree_node@U?$pair@$$CBGPAVivfstream@@@_STL@@@_STL@@U12@V?$allocator@U?$_Rb_tree_node@U?$pair@$$CBGPAVivfstream@@@_STL@@@_STL@@@2@@_STL@@QAE@XZ
_TEXT	SEGMENT
??1?$_STLP_alloc_proxy@PAU?$_Rb_tree_node@U?$pair@$$CBGPAVivfstream@@@_STL@@@_STL@@U12@V?$allocator@U?$_Rb_tree_node@U?$pair@$$CBGPAVivfstream@@@_STL@@@_STL@@@2@@_STL@@QAE@XZ PROC NEAR ; _STL::_STLP_alloc_proxy<_STL::_Rb_tree_node<_STL::pair<unsigned short const ,ivfstream *> > *,_STL::_Rb_tree_node<_STL::pair<unsigned short const ,ivfstream *> >,_STL::allocator<_STL::_Rb_tree_node<_STL::pair<unsigned short const ,ivfstream *> > > >::~_STLP_alloc_proxy<_STL::_Rb_tree_node<_STL::pair<unsigned short const ,ivfstream *> > *,_STL::_Rb_tree_node<_STL::pair<unsigned short const ,ivfstream *> >,_STL::allocator<_STL::_Rb_tree_node<_STL::pair<unsigned short const ,ivfstream *> > > >, COMDAT
; _this$ = ecx
  00000	c3		 ret	 0
??1?$_STLP_alloc_proxy@PAU?$_Rb_tree_node@U?$pair@$$CBGPAVivfstream@@@_STL@@@_STL@@U12@V?$allocator@U?$_Rb_tree_node@U?$pair@$$CBGPAVivfstream@@@_STL@@@_STL@@@2@@_STL@@QAE@XZ ENDP ; _STL::_STLP_alloc_proxy<_STL::_Rb_tree_node<_STL::pair<unsigned short const ,ivfstream *> > *,_STL::_Rb_tree_node<_STL::pair<unsigned short const ,ivfstream *> >,_STL::allocator<_STL::_Rb_tree_node<_STL::pair<unsigned short const ,ivfstream *> > > >::~_STLP_alloc_proxy<_STL::_Rb_tree_node<_STL::pair<unsigned short const ,ivfstream *> > *,_STL::_Rb_tree_node<_STL::pair<unsigned short const ,ivfstream *> >,_STL::allocator<_STL::_Rb_tree_node<_STL::pair<unsigned short const ,ivfstream *> > > >
_TEXT	ENDS
PUBLIC	?_M_empty_initialize@?$_Rb_tree@GU?$pair@$$CBGPAVivfstream@@@_STL@@U?$_Select1st@U?$pair@$$CBGPAVivfstream@@@_STL@@@2@U?$less@G@2@V?$allocator@U?$pair@$$CBGPAVivfstream@@@_STL@@@2@@_STL@@AAEXXZ ; _STL::_Rb_tree<unsigned short,_STL::pair<unsigned short const ,ivfstream *>,_STL::_Select1st<_STL::pair<unsigned short const ,ivfstream *> >,_STL::less<unsigned short>,_STL::allocator<_STL::pair<unsigned short const ,ivfstream *> > >::_M_empty_initialize
; Function compile flags: /Ogsy
; File c:\stlport-4.6.1\stlport\stl\_tree.h
;	COMDAT ?_M_empty_initialize@?$_Rb_tree@GU?$pair@$$CBGPAVivfstream@@@_STL@@U?$_Select1st@U?$pair@$$CBGPAVivfstream@@@_STL@@@2@U?$less@G@2@V?$allocator@U?$pair@$$CBGPAVivfstream@@@_STL@@@2@@_STL@@AAEXXZ
_TEXT	SEGMENT
?_M_empty_initialize@?$_Rb_tree@GU?$pair@$$CBGPAVivfstream@@@_STL@@U?$_Select1st@U?$pair@$$CBGPAVivfstream@@@_STL@@@2@U?$less@G@2@V?$allocator@U?$pair@$$CBGPAVivfstream@@@_STL@@@2@@_STL@@AAEXXZ PROC NEAR ; _STL::_Rb_tree<unsigned short,_STL::pair<unsigned short const ,ivfstream *>,_STL::_Select1st<_STL::pair<unsigned short const ,ivfstream *> >,_STL::less<unsigned short>,_STL::allocator<_STL::pair<unsigned short const ,ivfstream *> > >::_M_empty_initialize, COMDAT
; _this$ = ecx

; 346  :     _S_color(this->_M_header._M_data) = _S_rb_tree_red; // used to distinguish header from 

  00000	8b 01		 mov	 eax, DWORD PTR [ecx]
  00002	c6 00 00	 mov	 BYTE PTR [eax], 0

; 347  :                                           // __root, in iterator.operator++
; 348  :     _M_root() = 0;

  00005	8b 01		 mov	 eax, DWORD PTR [ecx]
  00007	83 60 04 00	 and	 DWORD PTR [eax+4], 0

; 349  :     _M_leftmost() = this->_M_header._M_data;

  0000b	8b 01		 mov	 eax, DWORD PTR [ecx]
  0000d	89 40 08	 mov	 DWORD PTR [eax+8], eax

; 350  :     _M_rightmost() = this->_M_header._M_data;

  00010	8b 09		 mov	 ecx, DWORD PTR [ecx]
  00012	89 49 0c	 mov	 DWORD PTR [ecx+12], ecx

; 351  :   }

  00015	c3		 ret	 0
?_M_empty_initialize@?$_Rb_tree@GU?$pair@$$CBGPAVivfstream@@@_STL@@U?$_Select1st@U?$pair@$$CBGPAVivfstream@@@_STL@@@2@U?$less@G@2@V?$allocator@U?$pair@$$CBGPAVivfstream@@@_STL@@@2@@_STL@@AAEXXZ ENDP ; _STL::_Rb_tree<unsigned short,_STL::pair<unsigned short const ,ivfstream *>,_STL::_Select1st<_STL::pair<unsigned short const ,ivfstream *> >,_STL::less<unsigned short>,_STL::allocator<_STL::pair<unsigned short const ,ivfstream *> > >::_M_empty_initialize
_TEXT	ENDS
PUBLIC	?deallocate@?$allocator@U?$_Rb_tree_node@U?$pair@$$CBGPAVivfstream@@@_STL@@@_STL@@@_STL@@QAEXPAU?$_Rb_tree_node@U?$pair@$$CBGPAVivfstream@@@_STL@@@2@I@Z ; _STL::allocator<_STL::_Rb_tree_node<_STL::pair<unsigned short const ,ivfstream *> > >::deallocate
; Function compile flags: /Ogsy
; File c:\stlport-4.6.1\stlport\stl\_alloc.h
;	COMDAT ?deallocate@?$allocator@U?$_Rb_tree_node@U?$pair@$$CBGPAVivfstream@@@_STL@@@_STL@@@_STL@@QAEXPAU?$_Rb_tree_node@U?$pair@$$CBGPAVivfstream@@@_STL@@@2@I@Z
_TEXT	SEGMENT
___p$ = 8						; size = 4
___n$ = 12						; size = 4
?deallocate@?$allocator@U?$_Rb_tree_node@U?$pair@$$CBGPAVivfstream@@@_STL@@@_STL@@@_STL@@QAEXPAU?$_Rb_tree_node@U?$pair@$$CBGPAVivfstream@@@_STL@@@2@I@Z PROC NEAR ; _STL::allocator<_STL::_Rb_tree_node<_STL::pair<unsigned short const ,ivfstream *> > >::deallocate, COMDAT
; _this$ = ecx

; 359  :     _STLP_ASSERT( (__p == 0) == (__n == 0) )
; 360  :       if (__p != 0) __sgi_alloc::deallocate((void*)__p, __n * sizeof(value_type));

  00000	83 7c 24 04 00	 cmp	 DWORD PTR ___p$[esp-4], 0
  00005	74 16		 je	 SHORT $L109024
  00007	8b 44 24 08	 mov	 eax, DWORD PTR ___n$[esp-4]
  0000b	8d 04 40	 lea	 eax, DWORD PTR [eax+eax*2]
  0000e	c1 e0 03	 shl	 eax, 3
  00011	50		 push	 eax
  00012	ff 74 24 08	 push	 DWORD PTR ___p$[esp]
  00016	e8 00 00 00 00	 call	 ?deallocate@?$__node_alloc@$00$0A@@_STL@@SAXPAXI@Z ; _STL::__node_alloc<1,0>::deallocate
  0001b	59		 pop	 ecx
  0001c	59		 pop	 ecx
$L109024:

; 361  :   }

  0001d	c2 08 00	 ret	 8
?deallocate@?$allocator@U?$_Rb_tree_node@U?$pair@$$CBGPAVivfstream@@@_STL@@@_STL@@@_STL@@QAEXPAU?$_Rb_tree_node@U?$pair@$$CBGPAVivfstream@@@_STL@@@2@I@Z ENDP ; _STL::allocator<_STL::_Rb_tree_node<_STL::pair<unsigned short const ,ivfstream *> > >::deallocate
_TEXT	ENDS
PUBLIC	??0?$_STLP_alloc_proxy@PAU?$_Rb_tree_node@U?$pair@$$CBGPAVivfstream@@@_STL@@@_STL@@U12@V?$allocator@U?$_Rb_tree_node@U?$pair@$$CBGPAVivfstream@@@_STL@@@_STL@@@2@@_STL@@QAE@ABV?$allocator@U?$_Rb_tree_node@U?$pair@$$CBGPAVivfstream@@@_STL@@@_STL@@@1@PAU?$_Rb_tree_node@U?$pair@$$CBGPAVivfstream@@@_STL@@@1@@Z ; _STL::_STLP_alloc_proxy<_STL::_Rb_tree_node<_STL::pair<unsigned short const ,ivfstream *> > *,_STL::_Rb_tree_node<_STL::pair<unsigned short const ,ivfstream *> >,_STL::allocator<_STL::_Rb_tree_node<_STL::pair<unsigned short const ,ivfstream *> > > >::_STLP_alloc_proxy<_STL::_Rb_tree_node<_STL::pair<unsigned short const ,ivfstream *> > *,_STL::_Rb_tree_node<_STL::pair<unsigned short const ,ivfstream *> >,_STL::allocator<_STL::_Rb_tree_node<_STL::pair<unsigned short const ,ivfstream *> > > >
; Function compile flags: /Ogsy
;	COMDAT ??0?$_STLP_alloc_proxy@PAU?$_Rb_tree_node@U?$pair@$$CBGPAVivfstream@@@_STL@@@_STL@@U12@V?$allocator@U?$_Rb_tree_node@U?$pair@$$CBGPAVivfstream@@@_STL@@@_STL@@@2@@_STL@@QAE@ABV?$allocator@U?$_Rb_tree_node@U?$pair@$$CBGPAVivfstream@@@_STL@@@_STL@@@1@PAU?$_Rb_tree_node@U?$pair@$$CBGPAVivfstream@@@_STL@@@1@@Z
_TEXT	SEGMENT
___a$ = 8						; size = 4
___p$ = 12						; size = 4
??0?$_STLP_alloc_proxy@PAU?$_Rb_tree_node@U?$pair@$$CBGPAVivfstream@@@_STL@@@_STL@@U12@V?$allocator@U?$_Rb_tree_node@U?$pair@$$CBGPAVivfstream@@@_STL@@@_STL@@@2@@_STL@@QAE@ABV?$allocator@U?$_Rb_tree_node@U?$pair@$$CBGPAVivfstream@@@_STL@@@_STL@@@1@PAU?$_Rb_tree_node@U?$pair@$$CBGPAVivfstream@@@_STL@@@1@@Z PROC NEAR ; _STL::_STLP_alloc_proxy<_STL::_Rb_tree_node<_STL::pair<unsigned short const ,ivfstream *> > *,_STL::_Rb_tree_node<_STL::pair<unsigned short const ,ivfstream *> >,_STL::allocator<_STL::_Rb_tree_node<_STL::pair<unsigned short const ,ivfstream *> > > >::_STLP_alloc_proxy<_STL::_Rb_tree_node<_STL::pair<unsigned short const ,ivfstream *> > *,_STL::_Rb_tree_node<_STL::pair<unsigned short const ,ivfstream *> >,_STL::allocator<_STL::_Rb_tree_node<_STL::pair<unsigned short const ,ivfstream *> > > >, COMDAT
; _this$ = ecx

; 487  :   inline _STLP_alloc_proxy(const _MaybeReboundAlloc& __a, _Value __p) : _MaybeReboundAlloc(__a), _M_data(__p) {}

  00000	8b c1		 mov	 eax, ecx
  00002	8b 4c 24 08	 mov	 ecx, DWORD PTR ___p$[esp-4]
  00006	89 08		 mov	 DWORD PTR [eax], ecx
  00008	c2 08 00	 ret	 8
??0?$_STLP_alloc_proxy@PAU?$_Rb_tree_node@U?$pair@$$CBGPAVivfstream@@@_STL@@@_STL@@U12@V?$allocator@U?$_Rb_tree_node@U?$pair@$$CBGPAVivfstream@@@_STL@@@_STL@@@2@@_STL@@QAE@ABV?$allocator@U?$_Rb_tree_node@U?$pair@$$CBGPAVivfstream@@@_STL@@@_STL@@@1@PAU?$_Rb_tree_node@U?$pair@$$CBGPAVivfstream@@@_STL@@@1@@Z ENDP ; _STL::_STLP_alloc_proxy<_STL::_Rb_tree_node<_STL::pair<unsigned short const ,ivfstream *> > *,_STL::_Rb_tree_node<_STL::pair<unsigned short const ,ivfstream *> >,_STL::allocator<_STL::_Rb_tree_node<_STL::pair<unsigned short const ,ivfstream *> > > >::_STLP_alloc_proxy<_STL::_Rb_tree_node<_STL::pair<unsigned short const ,ivfstream *> > *,_STL::_Rb_tree_node<_STL::pair<unsigned short const ,ivfstream *> >,_STL::allocator<_STL::_Rb_tree_node<_STL::pair<unsigned short const ,ivfstream *> > > >
_TEXT	ENDS
PUBLIC	?allocate@?$allocator@U?$_Rb_tree_node@U?$pair@$$CBGPAVivfstream@@@_STL@@@_STL@@@_STL@@QAEPAU?$_Rb_tree_node@U?$pair@$$CBGPAVivfstream@@@_STL@@@2@IPBX@Z ; _STL::allocator<_STL::_Rb_tree_node<_STL::pair<unsigned short const ,ivfstream *> > >::allocate
; Function compile flags: /Ogsy
;	COMDAT ?allocate@?$allocator@U?$_Rb_tree_node@U?$pair@$$CBGPAVivfstream@@@_STL@@@_STL@@@_STL@@QAEPAU?$_Rb_tree_node@U?$pair@$$CBGPAVivfstream@@@_STL@@@2@IPBX@Z
_TEXT	SEGMENT
___n$ = 8						; size = 4
___formal$ = 12						; size = 4
?allocate@?$allocator@U?$_Rb_tree_node@U?$pair@$$CBGPAVivfstream@@@_STL@@@_STL@@@_STL@@QAEPAU?$_Rb_tree_node@U?$pair@$$CBGPAVivfstream@@@_STL@@@2@IPBX@Z PROC NEAR ; _STL::allocator<_STL::_Rb_tree_node<_STL::pair<unsigned short const ,ivfstream *> > >::allocate, COMDAT
; _this$ = ecx

; 355  :     return __n != 0 ? __REINTERPRET_CAST(value_type*,__sgi_alloc::allocate(__n * sizeof(value_type))) : 0;

  00000	8b 44 24 04	 mov	 eax, DWORD PTR ___n$[esp-4]
  00004	85 c0		 test	 eax, eax
  00006	74 0f		 je	 SHORT $L111376
  00008	8d 04 40	 lea	 eax, DWORD PTR [eax+eax*2]
  0000b	c1 e0 03	 shl	 eax, 3
  0000e	50		 push	 eax
  0000f	e8 00 00 00 00	 call	 ?allocate@?$__node_alloc@$00$0A@@_STL@@SAPAXI@Z ; _STL::__node_alloc<1,0>::allocate
  00014	59		 pop	 ecx
  00015	eb 02		 jmp	 SHORT $L111377
$L111376:
  00017	33 c0		 xor	 eax, eax
$L111377:

; 356  :   }

  00019	c2 08 00	 ret	 8
?allocate@?$allocator@U?$_Rb_tree_node@U?$pair@$$CBGPAVivfstream@@@_STL@@@_STL@@@_STL@@QAEPAU?$_Rb_tree_node@U?$pair@$$CBGPAVivfstream@@@_STL@@@2@IPBX@Z ENDP ; _STL::allocator<_STL::_Rb_tree_node<_STL::pair<unsigned short const ,ivfstream *> > >::allocate
_TEXT	ENDS
PUBLIC	??$_M_find@G@?$_Rb_tree@GU?$pair@$$CBGUGUILD_SPRITES@MGuildMarkManager@@@_STL@@U?$_Select1st@U?$pair@$$CBGUGUILD_SPRITES@MGuildMarkManager@@@_STL@@@2@U?$less@G@2@V?$allocator@U?$pair@$$CBGUGUILD_SPRITES@MGuildMarkManager@@@_STL@@@2@@_STL@@ABEPAU?$_Rb_tree_node@U?$pair@$$CBGUGUILD_SPRITES@MGuildMarkManager@@@_STL@@@1@ABG@Z ; _STL::_Rb_tree<unsigned short,_STL::pair<unsigned short const ,MGuildMarkManager::GUILD_SPRITES>,_STL::_Select1st<_STL::pair<unsigned short const ,MGuildMarkManager::GUILD_SPRITES> >,_STL::less<unsigned short>,_STL::allocator<_STL::pair<unsigned short const ,MGuildMarkManager::GUILD_SPRITES> > >::_M_find<unsigned short>
; Function compile flags: /Ogsy
; File c:\stlport-4.6.1\stlport\stl\_tree.h
;	COMDAT ??$_M_find@G@?$_Rb_tree@GU?$pair@$$CBGUGUILD_SPRITES@MGuildMarkManager@@@_STL@@U?$_Select1st@U?$pair@$$CBGUGUILD_SPRITES@MGuildMarkManager@@@_STL@@@2@U?$less@G@2@V?$allocator@U?$pair@$$CBGUGUILD_SPRITES@MGuildMarkManager@@@_STL@@@2@@_STL@@ABEPAU?$_Rb_tree_node@U?$pair@$$CBGUGUILD_SPRITES@MGuildMarkManager@@@_STL@@@1@ABG@Z
_TEXT	SEGMENT
___k$ = 8						; size = 4
??$_M_find@G@?$_Rb_tree@GU?$pair@$$CBGUGUILD_SPRITES@MGuildMarkManager@@@_STL@@U?$_Select1st@U?$pair@$$CBGUGUILD_SPRITES@MGuildMarkManager@@@_STL@@@2@U?$less@G@2@V?$allocator@U?$pair@$$CBGUGUILD_SPRITES@MGuildMarkManager@@@_STL@@@2@@_STL@@ABEPAU?$_Rb_tree_node@U?$pair@$$CBGUGUILD_SPRITES@MGuildMarkManager@@@_STL@@@1@ABG@Z PROC NEAR ; _STL::_Rb_tree<unsigned short,_STL::pair<unsigned short const ,MGuildMarkManager::GUILD_SPRITES>,_STL::_Select1st<_STL::pair<unsigned short const ,MGuildMarkManager::GUILD_SPRITES> >,_STL::less<unsigned short>,_STL::allocator<_STL::pair<unsigned short const ,MGuildMarkManager::GUILD_SPRITES> > >::_M_find<unsigned short>, COMDAT
; _this$ = ecx

; 462  : # else
; 463  :   iterator find(const key_type& __x) { return iterator(_M_find(__x)); }
; 464  :   const_iterator find(const key_type& __x) const { return const_iterator(_M_find(__x)); }
; 465  : private:
; 466  :   _Rb_tree_node<_Value>* _M_find(const key_type& __k) const
; 467  : # endif
; 468  :   {
; 469  :     _Link_type __y = this->_M_header._M_data;      // Last node which is not less than __k. 

  00000	8b 11		 mov	 edx, DWORD PTR [ecx]

; 470  :     _Link_type __x = _M_root();      // Current node. 

  00002	8b 4a 04	 mov	 ecx, DWORD PTR [edx+4]

; 471  :     
; 472  :     while (__x != 0) 

  00005	85 c9		 test	 ecx, ecx
  00007	57		 push	 edi
  00008	8b 7c 24 08	 mov	 edi, DWORD PTR ___k$[esp]
  0000c	8b c2		 mov	 eax, edx
  0000e	74 19		 je	 SHORT $L109376
  00010	56		 push	 esi
  00011	66 8b 37	 mov	 si, WORD PTR [edi]
$L109375:

; 473  :       if (!_M_key_compare(_S_key(__x), __k))

  00014	66 39 71 10	 cmp	 WORD PTR [ecx+16], si
  00018	72 07		 jb	 SHORT $L109377

; 474  : 	__y = __x, __x = _S_left(__x);

  0001a	8b c1		 mov	 eax, ecx
  0001c	8b 49 08	 mov	 ecx, DWORD PTR [ecx+8]

; 475  :       else

  0001f	eb 03		 jmp	 SHORT $L109378
$L109377:

; 476  : 	__x = _S_right(__x);

  00021	8b 49 0c	 mov	 ecx, DWORD PTR [ecx+12]
$L109378:

; 471  :     
; 472  :     while (__x != 0) 

  00024	85 c9		 test	 ecx, ecx
  00026	75 ec		 jne	 SHORT $L109375
  00028	5e		 pop	 esi
$L109376:

; 477  :     if (__y == this->_M_header._M_data || _M_key_compare(__k, _S_key(__y)))

  00029	3b c2		 cmp	 eax, edx
  0002b	74 09		 je	 SHORT $L109380
  0002d	66 8b 0f	 mov	 cx, WORD PTR [edi]
  00030	66 3b 48 10	 cmp	 cx, WORD PTR [eax+16]
  00034	73 02		 jae	 SHORT $L109379
$L109380:

; 478  :       __y = this->_M_header._M_data;

  00036	8b c2		 mov	 eax, edx
$L109379:
  00038	5f		 pop	 edi

; 479  :     return __y;
; 480  :   }

  00039	c2 04 00	 ret	 4
??$_M_find@G@?$_Rb_tree@GU?$pair@$$CBGUGUILD_SPRITES@MGuildMarkManager@@@_STL@@U?$_Select1st@U?$pair@$$CBGUGUILD_SPRITES@MGuildMarkManager@@@_STL@@@2@U?$less@G@2@V?$allocator@U?$pair@$$CBGUGUILD_SPRITES@MGuildMarkManager@@@_STL@@@2@@_STL@@ABEPAU?$_Rb_tree_node@U?$pair@$$CBGUGUILD_SPRITES@MGuildMarkManager@@@_STL@@@1@ABG@Z ENDP ; _STL::_Rb_tree<unsigned short,_STL::pair<unsigned short const ,MGuildMarkManager::GUILD_SPRITES>,_STL::_Select1st<_STL::pair<unsigned short const ,MGuildMarkManager::GUILD_SPRITES> >,_STL::less<unsigned short>,_STL::allocator<_STL::pair<unsigned short const ,MGuildMarkManager::GUILD_SPRITES> > >::_M_find<unsigned short>
_TEXT	ENDS
PUBLIC	?_M_erase@?$_Rb_tree@GU?$pair@$$CBGPAVivfstream@@@_STL@@U?$_Select1st@U?$pair@$$CBGPAVivfstream@@@_STL@@@2@U?$less@G@2@V?$allocator@U?$pair@$$CBGPAVivfstream@@@_STL@@@2@@_STL@@AAEXPAU?$_Rb_tree_node@U?$pair@$$CBGPAVivfstream@@@_STL@@@2@@Z ; _STL::_Rb_tree<unsigned short,_STL::pair<unsigned short const ,ivfstream *>,_STL::_Select1st<_STL::pair<unsigned short const ,ivfstream *> >,_STL::less<unsigned short>,_STL::allocator<_STL::pair<unsigned short const ,ivfstream *> > >::_M_erase
; Function compile flags: /Ogsy
; File c:\stlport-4.6.1\stlport\stl\_tree.c
;	COMDAT ?_M_erase@?$_Rb_tree@GU?$pair@$$CBGPAVivfstream@@@_STL@@U?$_Select1st@U?$pair@$$CBGPAVivfstream@@@_STL@@@2@U?$less@G@2@V?$allocator@U?$pair@$$CBGPAVivfstream@@@_STL@@@2@@_STL@@AAEXPAU?$_Rb_tree_node@U?$pair@$$CBGPAVivfstream@@@_STL@@@2@@Z
_TEXT	SEGMENT
___x$ = 8						; size = 4
?_M_erase@?$_Rb_tree@GU?$pair@$$CBGPAVivfstream@@@_STL@@U?$_Select1st@U?$pair@$$CBGPAVivfstream@@@_STL@@@2@U?$less@G@2@V?$allocator@U?$pair@$$CBGPAVivfstream@@@_STL@@@2@@_STL@@AAEXPAU?$_Rb_tree_node@U?$pair@$$CBGPAVivfstream@@@_STL@@@2@@Z PROC NEAR ; _STL::_Rb_tree<unsigned short,_STL::pair<unsigned short const ,ivfstream *>,_STL::_Select1st<_STL::pair<unsigned short const ,ivfstream *> >,_STL::less<unsigned short>,_STL::allocator<_STL::pair<unsigned short const ,ivfstream *> > >::_M_erase, COMDAT
; _this$ = ecx

; 637  : {

  00000	53		 push	 ebx
  00001	56		 push	 esi

; 638  :                                 // erase without rebalancing
; 639  :   while (__x != 0) {

  00002	8b 74 24 0c	 mov	 esi, DWORD PTR ___x$[esp+4]
  00006	85 f6		 test	 esi, esi
  00008	8b d9		 mov	 ebx, ecx
  0000a	74 1f		 je	 SHORT $L109508
  0000c	57		 push	 edi
$L109507:

; 640  :     _M_erase(_S_right(__x));

  0000d	ff 76 0c	 push	 DWORD PTR [esi+12]
  00010	8b cb		 mov	 ecx, ebx
  00012	e8 00 00 00 00	 call	 ?_M_erase@?$_Rb_tree@GU?$pair@$$CBGPAVivfstream@@@_STL@@U?$_Select1st@U?$pair@$$CBGPAVivfstream@@@_STL@@@2@U?$less@G@2@V?$allocator@U?$pair@$$CBGPAVivfstream@@@_STL@@@2@@_STL@@AAEXPAU?$_Rb_tree_node@U?$pair@$$CBGPAVivfstream@@@_STL@@@2@@Z ; _STL::_Rb_tree<unsigned short,_STL::pair<unsigned short const ,ivfstream *>,_STL::_Select1st<_STL::pair<unsigned short const ,ivfstream *> >,_STL::less<unsigned short>,_STL::allocator<_STL::pair<unsigned short const ,ivfstream *> > >::_M_erase

; 641  :     _Link_type __y = _S_left(__x);

  00017	8b 7e 08	 mov	 edi, DWORD PTR [esi+8]

; 642  :     _STLP_STD::_Destroy(&__x->_M_value_field);
; 643  :     this->_M_header.deallocate(__x,1);

  0001a	6a 01		 push	 1
  0001c	56		 push	 esi
  0001d	8b cb		 mov	 ecx, ebx
  0001f	e8 00 00 00 00	 call	 ?deallocate@?$allocator@U?$_Rb_tree_node@U?$pair@$$CBGPAVivfstream@@@_STL@@@_STL@@@_STL@@QAEXPAU?$_Rb_tree_node@U?$pair@$$CBGPAVivfstream@@@_STL@@@2@I@Z ; _STL::allocator<_STL::_Rb_tree_node<_STL::pair<unsigned short const ,ivfstream *> > >::deallocate
  00024	85 ff		 test	 edi, edi

; 644  :     __x = __y;

  00026	8b f7		 mov	 esi, edi
  00028	75 e3		 jne	 SHORT $L109507
  0002a	5f		 pop	 edi
$L109508:
  0002b	5e		 pop	 esi
  0002c	5b		 pop	 ebx

; 645  :   }
; 646  : }

  0002d	c2 04 00	 ret	 4
?_M_erase@?$_Rb_tree@GU?$pair@$$CBGPAVivfstream@@@_STL@@U?$_Select1st@U?$pair@$$CBGPAVivfstream@@@_STL@@@2@U?$less@G@2@V?$allocator@U?$pair@$$CBGPAVivfstream@@@_STL@@@2@@_STL@@AAEXPAU?$_Rb_tree_node@U?$pair@$$CBGPAVivfstream@@@_STL@@@2@@Z ENDP ; _STL::_Rb_tree<unsigned short,_STL::pair<unsigned short const ,ivfstream *>,_STL::_Select1st<_STL::pair<unsigned short const ,ivfstream *> >,_STL::less<unsigned short>,_STL::allocator<_STL::pair<unsigned short const ,ivfstream *> > >::_M_erase
_TEXT	ENDS
PUBLIC	?_S_key@?$_Rb_tree@GU?$pair@$$CBGPAVGUILD_INFO@@@_STL@@U?$_Select1st@U?$pair@$$CBGPAVGUILD_INFO@@@_STL@@@2@U?$less@G@2@V?$allocator@U?$pair@$$CBGPAVGUILD_INFO@@@_STL@@@2@@_STL@@KAABGPAU?$_Rb_tree_node@U?$pair@$$CBGPAVGUILD_INFO@@@_STL@@@2@@Z ; _STL::_Rb_tree<unsigned short,_STL::pair<unsigned short const ,GUILD_INFO *>,_STL::_Select1st<_STL::pair<unsigned short const ,GUILD_INFO *> >,_STL::less<unsigned short>,_STL::allocator<_STL::pair<unsigned short const ,GUILD_INFO *> > >::_S_key
; Function compile flags: /Ogsy
; File c:\stlport-4.6.1\stlport\stl\_tree.h
;	COMDAT ?_S_key@?$_Rb_tree@GU?$pair@$$CBGPAVGUILD_INFO@@@_STL@@U?$_Select1st@U?$pair@$$CBGPAVGUILD_INFO@@@_STL@@@2@U?$less@G@2@V?$allocator@U?$pair@$$CBGPAVGUILD_INFO@@@_STL@@@2@@_STL@@KAABGPAU?$_Rb_tree_node@U?$pair@$$CBGPAVGUILD_INFO@@@_STL@@@2@@Z
_TEXT	SEGMENT
___x$ = 8						; size = 4
?_S_key@?$_Rb_tree@GU?$pair@$$CBGPAVGUILD_INFO@@@_STL@@U?$_Select1st@U?$pair@$$CBGPAVGUILD_INFO@@@_STL@@@2@U?$less@G@2@V?$allocator@U?$pair@$$CBGPAVGUILD_INFO@@@_STL@@@2@@_STL@@KAABGPAU?$_Rb_tree_node@U?$pair@$$CBGPAVGUILD_INFO@@@_STL@@@2@@Z PROC NEAR ; _STL::_Rb_tree<unsigned short,_STL::pair<unsigned short const ,GUILD_INFO *>,_STL::_Select1st<_STL::pair<unsigned short const ,GUILD_INFO *> >,_STL::less<unsigned short>,_STL::allocator<_STL::pair<unsigned short const ,GUILD_INFO *> > >::_S_key, COMDAT

; 280  :     { return _KeyOfValue()(_S_value(__x)); }

  00000	8b 44 24 04	 mov	 eax, DWORD PTR ___x$[esp-4]
  00004	83 c0 10	 add	 eax, 16			; 00000010H
  00007	c3		 ret	 0
?_S_key@?$_Rb_tree@GU?$pair@$$CBGPAVGUILD_INFO@@@_STL@@U?$_Select1st@U?$pair@$$CBGPAVGUILD_INFO@@@_STL@@@2@U?$less@G@2@V?$allocator@U?$pair@$$CBGPAVGUILD_INFO@@@_STL@@@2@@_STL@@KAABGPAU?$_Rb_tree_node@U?$pair@$$CBGPAVGUILD_INFO@@@_STL@@@2@@Z ENDP ; _STL::_Rb_tree<unsigned short,_STL::pair<unsigned short const ,GUILD_INFO *>,_STL::_Select1st<_STL::pair<unsigned short const ,GUILD_INFO *> >,_STL::less<unsigned short>,_STL::allocator<_STL::pair<unsigned short const ,GUILD_INFO *> > >::_S_key
_TEXT	ENDS
PUBLIC	??$_Construct@U?$pair@$$CBGUGUILD_SPRITES@MGuildMarkManager@@@_STL@@U12@@_STL@@YAXPAU?$pair@$$CBGUGUILD_SPRITES@MGuildMarkManager@@@0@ABU10@@Z ; _STL::_Construct<_STL::pair<unsigned short const ,MGuildMarkManager::GUILD_SPRITES>,_STL::pair<unsigned short const ,MGuildMarkManager::GUILD_SPRITES> >
; Function compile flags: /Ogsy
; File c:\stlport-4.6.1\stlport\stl\_construct.h
;	COMDAT ??$_Construct@U?$pair@$$CBGUGUILD_SPRITES@MGuildMarkManager@@@_STL@@U12@@_STL@@YAXPAU?$pair@$$CBGUGUILD_SPRITES@MGuildMarkManager@@@0@ABU10@@Z
_TEXT	SEGMENT
___p$ = 8						; size = 4
___val$ = 12						; size = 4
??$_Construct@U?$pair@$$CBGUGUILD_SPRITES@MGuildMarkManager@@@_STL@@U12@@_STL@@YAXPAU?$pair@$$CBGUGUILD_SPRITES@MGuildMarkManager@@@0@ABU10@@Z PROC NEAR ; _STL::_Construct<_STL::pair<unsigned short const ,MGuildMarkManager::GUILD_SPRITES>,_STL::pair<unsigned short const ,MGuildMarkManager::GUILD_SPRITES> >, COMDAT

; 94   : # ifdef _STLP_DEBUG_UNINITIALIZED
; 95   : 	memset((char*)__p, _STLP_SHRED_BYTE, sizeof(_T1));
; 96   : # endif
; 97   :     _STLP_PLACEMENT_NEW (__p) _T1(__val);

  00000	8b 44 24 04	 mov	 eax, DWORD PTR ___p$[esp-4]
  00004	85 c0		 test	 eax, eax
  00006	74 16		 je	 SHORT $L111456
  00008	8b 4c 24 08	 mov	 ecx, DWORD PTR ___val$[esp-4]
  0000c	66 8b 11	 mov	 dx, WORD PTR [ecx]
  0000f	66 89 10	 mov	 WORD PTR [eax], dx
  00012	8b 51 04	 mov	 edx, DWORD PTR [ecx+4]
  00015	89 50 04	 mov	 DWORD PTR [eax+4], edx
  00018	8b 49 08	 mov	 ecx, DWORD PTR [ecx+8]
  0001b	89 48 08	 mov	 DWORD PTR [eax+8], ecx
$L111456:

; 98   : }

  0001e	c3		 ret	 0
??$_Construct@U?$pair@$$CBGUGUILD_SPRITES@MGuildMarkManager@@@_STL@@U12@@_STL@@YAXPAU?$pair@$$CBGUGUILD_SPRITES@MGuildMarkManager@@@0@ABU10@@Z ENDP ; _STL::_Construct<_STL::pair<unsigned short const ,MGuildMarkManager::GUILD_SPRITES>,_STL::pair<unsigned short const ,MGuildMarkManager::GUILD_SPRITES> >
_TEXT	ENDS
PUBLIC	?deallocate@?$allocator@D@_STL@@QAEXPADI@Z	; _STL::allocator<char>::deallocate
; Function compile flags: /Ogsy
; File c:\stlport-4.6.1\stlport\stl\_alloc.h
;	COMDAT ?deallocate@?$allocator@D@_STL@@QAEXPADI@Z
_TEXT	SEGMENT
___p$ = 8						; size = 4
___n$ = 12						; size = 4
?deallocate@?$allocator@D@_STL@@QAEXPADI@Z PROC NEAR	; _STL::allocator<char>::deallocate, COMDAT
; _this$ = ecx

; 359  :     _STLP_ASSERT( (__p == 0) == (__n == 0) )
; 360  :       if (__p != 0) __sgi_alloc::deallocate((void*)__p, __n * sizeof(value_type));

  00000	83 7c 24 04 00	 cmp	 DWORD PTR ___p$[esp-4], 0
  00005	74 0f		 je	 SHORT $L98663
  00007	ff 74 24 08	 push	 DWORD PTR ___n$[esp-4]
  0000b	ff 74 24 08	 push	 DWORD PTR ___p$[esp]
  0000f	e8 00 00 00 00	 call	 ?deallocate@?$__node_alloc@$00$0A@@_STL@@SAXPAXI@Z ; _STL::__node_alloc<1,0>::deallocate
  00014	59		 pop	 ecx
  00015	59		 pop	 ecx
$L98663:

; 361  :   }

  00016	c2 08 00	 ret	 8
?deallocate@?$allocator@D@_STL@@QAEXPADI@Z ENDP		; _STL::allocator<char>::deallocate
_TEXT	ENDS
PUBLIC	??0?$_String_base@DV?$allocator@D@_STL@@@_STL@@QAE@ABV?$allocator@D@1@@Z ; _STL::_String_base<char,_STL::allocator<char> >::_String_base<char,_STL::allocator<char> >
; Function compile flags: /Ogsy
; File c:\stlport-4.6.1\stlport\stl\_string.h
;	COMDAT ??0?$_String_base@DV?$allocator@D@_STL@@@_STL@@QAE@ABV?$allocator@D@1@@Z
_TEXT	SEGMENT
___a$ = 8						; size = 4
??0?$_String_base@DV?$allocator@D@_STL@@@_STL@@QAE@ABV?$allocator@D@1@@Z PROC NEAR ; _STL::_String_base<char,_STL::allocator<char> >::_String_base<char,_STL::allocator<char> >, COMDAT
; _this$ = ecx

; 129  :     : _M_start(0), _M_finish(0), _M_end_of_storage(__a, (_Tp*)0) {}

  00000	56		 push	 esi
  00001	33 c0		 xor	 eax, eax
  00003	8b f1		 mov	 esi, ecx
  00005	50		 push	 eax
  00006	ff 74 24 0c	 push	 DWORD PTR ___a$[esp+4]
  0000a	8d 4e 08	 lea	 ecx, DWORD PTR [esi+8]
  0000d	89 06		 mov	 DWORD PTR [esi], eax
  0000f	89 46 04	 mov	 DWORD PTR [esi+4], eax
  00012	e8 00 00 00 00	 call	 ??0?$_STLP_alloc_proxy@PADDV?$allocator@D@_STL@@@_STL@@QAE@ABV?$allocator@D@1@PAD@Z ; _STL::_STLP_alloc_proxy<char *,char,_STL::allocator<char> >::_STLP_alloc_proxy<char *,char,_STL::allocator<char> >
  00017	8b c6		 mov	 eax, esi
  00019	5e		 pop	 esi
  0001a	c2 04 00	 ret	 4
??0?$_String_base@DV?$allocator@D@_STL@@@_STL@@QAE@ABV?$allocator@D@1@@Z ENDP ; _STL::_String_base<char,_STL::allocator<char> >::_String_base<char,_STL::allocator<char> >
_TEXT	ENDS
PUBLIC	?end@?$map@GUGUILD_SPRITES@MGuildMarkManager@@U?$less@G@_STL@@V?$allocator@U?$pair@$$CBGUGUILD_SPRITES@MGuildMarkManager@@@_STL@@@4@@_STL@@QAE?AU?$_Rb_tree_iterator@U?$pair@$$CBGUGUILD_SPRITES@MGuildMarkManager@@@_STL@@U?$_Nonconst_traits@U?$pair@$$CBGUGUILD_SPRITES@MGuildMarkManager@@@_STL@@@2@@2@XZ ; _STL::map<unsigned short,MGuildMarkManager::GUILD_SPRITES,_STL::less<unsigned short>,_STL::allocator<_STL::pair<unsigned short const ,MGuildMarkManager::GUILD_SPRITES> > >::end
; Function compile flags: /Ogsy
; File c:\stlport-4.6.1\stlport\stl\_map.h
;	COMDAT ?end@?$map@GUGUILD_SPRITES@MGuildMarkManager@@U?$less@G@_STL@@V?$allocator@U?$pair@$$CBGUGUILD_SPRITES@MGuildMarkManager@@@_STL@@@4@@_STL@@QAE?AU?$_Rb_tree_iterator@U?$pair@$$CBGUGUILD_SPRITES@MGuildMarkManager@@@_STL@@U?$_Nonconst_traits@U?$pair@$$CBGUGUILD_SPRITES@MGuildMarkManager@@@_STL@@@2@@2@XZ
_TEXT	SEGMENT
___$ReturnUdt$ = 8					; size = 4
?end@?$map@GUGUILD_SPRITES@MGuildMarkManager@@U?$less@G@_STL@@V?$allocator@U?$pair@$$CBGUGUILD_SPRITES@MGuildMarkManager@@@_STL@@@4@@_STL@@QAE?AU?$_Rb_tree_iterator@U?$pair@$$CBGUGUILD_SPRITES@MGuildMarkManager@@@_STL@@U?$_Nonconst_traits@U?$pair@$$CBGUGUILD_SPRITES@MGuildMarkManager@@@_STL@@@2@@2@XZ PROC NEAR ; _STL::map<unsigned short,MGuildMarkManager::GUILD_SPRITES,_STL::less<unsigned short>,_STL::allocator<_STL::pair<unsigned short const ,MGuildMarkManager::GUILD_SPRITES> > >::end, COMDAT
; _this$ = ecx

; 149  :   iterator end() { return _M_t.end(); }

  00000	8b 09		 mov	 ecx, DWORD PTR [ecx]
  00002	8b 44 24 04	 mov	 eax, DWORD PTR ___$ReturnUdt$[esp-4]
  00006	89 08		 mov	 DWORD PTR [eax], ecx
  00008	c2 04 00	 ret	 4
?end@?$map@GUGUILD_SPRITES@MGuildMarkManager@@U?$less@G@_STL@@V?$allocator@U?$pair@$$CBGUGUILD_SPRITES@MGuildMarkManager@@@_STL@@@4@@_STL@@QAE?AU?$_Rb_tree_iterator@U?$pair@$$CBGUGUILD_SPRITES@MGuildMarkManager@@@_STL@@U?$_Nonconst_traits@U?$pair@$$CBGUGUILD_SPRITES@MGuildMarkManager@@@_STL@@@2@@2@XZ ENDP ; _STL::map<unsigned short,MGuildMarkManager::GUILD_SPRITES,_STL::less<unsigned short>,_STL::allocator<_STL::pair<unsigned short const ,MGuildMarkManager::GUILD_SPRITES> > >::end
_TEXT	ENDS
PUBLIC	?end@?$map@GUGUILD_SPRITES@MGuildMarkManager@@U?$less@G@_STL@@V?$allocator@U?$pair@$$CBGUGUILD_SPRITES@MGuildMarkManager@@@_STL@@@4@@_STL@@QBE?AU?$_Rb_tree_iterator@U?$pair@$$CBGUGUILD_SPRITES@MGuildMarkManager@@@_STL@@U?$_Const_traits@U?$pair@$$CBGUGUILD_SPRITES@MGuildMarkManager@@@_STL@@@2@@2@XZ ; _STL::map<unsigned short,MGuildMarkManager::GUILD_SPRITES,_STL::less<unsigned short>,_STL::allocator<_STL::pair<unsigned short const ,MGuildMarkManager::GUILD_SPRITES> > >::end
; Function compile flags: /Ogsy
;	COMDAT ?end@?$map@GUGUILD_SPRITES@MGuildMarkManager@@U?$less@G@_STL@@V?$allocator@U?$pair@$$CBGUGUILD_SPRITES@MGuildMarkManager@@@_STL@@@4@@_STL@@QBE?AU?$_Rb_tree_iterator@U?$pair@$$CBGUGUILD_SPRITES@MGuildMarkManager@@@_STL@@U?$_Const_traits@U?$pair@$$CBGUGUILD_SPRITES@MGuildMarkManager@@@_STL@@@2@@2@XZ
_TEXT	SEGMENT
___$ReturnUdt$ = 8					; size = 4
?end@?$map@GUGUILD_SPRITES@MGuildMarkManager@@U?$less@G@_STL@@V?$allocator@U?$pair@$$CBGUGUILD_SPRITES@MGuildMarkManager@@@_STL@@@4@@_STL@@QBE?AU?$_Rb_tree_iterator@U?$pair@$$CBGUGUILD_SPRITES@MGuildMarkManager@@@_STL@@U?$_Const_traits@U?$pair@$$CBGUGUILD_SPRITES@MGuildMarkManager@@@_STL@@@2@@2@XZ PROC NEAR ; _STL::map<unsigned short,MGuildMarkManager::GUILD_SPRITES,_STL::less<unsigned short>,_STL::allocator<_STL::pair<unsigned short const ,MGuildMarkManager::GUILD_SPRITES> > >::end, COMDAT
; _this$ = ecx

; 150  :   const_iterator end() const { return _M_t.end(); }

  00000	8b 09		 mov	 ecx, DWORD PTR [ecx]
  00002	8b 44 24 04	 mov	 eax, DWORD PTR ___$ReturnUdt$[esp-4]
  00006	89 08		 mov	 DWORD PTR [eax], ecx
  00008	c2 04 00	 ret	 4
?end@?$map@GUGUILD_SPRITES@MGuildMarkManager@@U?$less@G@_STL@@V?$allocator@U?$pair@$$CBGUGUILD_SPRITES@MGuildMarkManager@@@_STL@@@4@@_STL@@QBE?AU?$_Rb_tree_iterator@U?$pair@$$CBGUGUILD_SPRITES@MGuildMarkManager@@@_STL@@U?$_Const_traits@U?$pair@$$CBGUGUILD_SPRITES@MGuildMarkManager@@@_STL@@@2@@2@XZ ENDP ; _STL::map<unsigned short,MGuildMarkManager::GUILD_SPRITES,_STL::less<unsigned short>,_STL::allocator<_STL::pair<unsigned short const ,MGuildMarkManager::GUILD_SPRITES> > >::end
_TEXT	ENDS
PUBLIC	?end@?$map@GPAVGUILD_INFO@@U?$less@G@_STL@@V?$allocator@U?$pair@$$CBGPAVGUILD_INFO@@@_STL@@@3@@_STL@@QAE?AU?$_Rb_tree_iterator@U?$pair@$$CBGPAVGUILD_INFO@@@_STL@@U?$_Nonconst_traits@U?$pair@$$CBGPAVGUILD_INFO@@@_STL@@@2@@2@XZ ; _STL::map<unsigned short,GUILD_INFO *,_STL::less<unsigned short>,_STL::allocator<_STL::pair<unsigned short const ,GUILD_INFO *> > >::end
; Function compile flags: /Ogsy
;	COMDAT ?end@?$map@GPAVGUILD_INFO@@U?$less@G@_STL@@V?$allocator@U?$pair@$$CBGPAVGUILD_INFO@@@_STL@@@3@@_STL@@QAE?AU?$_Rb_tree_iterator@U?$pair@$$CBGPAVGUILD_INFO@@@_STL@@U?$_Nonconst_traits@U?$pair@$$CBGPAVGUILD_INFO@@@_STL@@@2@@2@XZ
_TEXT	SEGMENT
___$ReturnUdt$ = 8					; size = 4
?end@?$map@GPAVGUILD_INFO@@U?$less@G@_STL@@V?$allocator@U?$pair@$$CBGPAVGUILD_INFO@@@_STL@@@3@@_STL@@QAE?AU?$_Rb_tree_iterator@U?$pair@$$CBGPAVGUILD_INFO@@@_STL@@U?$_Nonconst_traits@U?$pair@$$CBGPAVGUILD_INFO@@@_STL@@@2@@2@XZ PROC NEAR ; _STL::map<unsigned short,GUILD_INFO *,_STL::less<unsigned short>,_STL::allocator<_STL::pair<unsigned short const ,GUILD_INFO *> > >::end, COMDAT
; _this$ = ecx

; 149  :   iterator end() { return _M_t.end(); }

  00000	8b 09		 mov	 ecx, DWORD PTR [ecx]
  00002	8b 44 24 04	 mov	 eax, DWORD PTR ___$ReturnUdt$[esp-4]
  00006	89 08		 mov	 DWORD PTR [eax], ecx
  00008	c2 04 00	 ret	 4
?end@?$map@GPAVGUILD_INFO@@U?$less@G@_STL@@V?$allocator@U?$pair@$$CBGPAVGUILD_INFO@@@_STL@@@3@@_STL@@QAE?AU?$_Rb_tree_iterator@U?$pair@$$CBGPAVGUILD_INFO@@@_STL@@U?$_Nonconst_traits@U?$pair@$$CBGPAVGUILD_INFO@@@_STL@@@2@@2@XZ ENDP ; _STL::map<unsigned short,GUILD_INFO *,_STL::less<unsigned short>,_STL::allocator<_STL::pair<unsigned short const ,GUILD_INFO *> > >::end
_TEXT	ENDS
PUBLIC	?clear@?$_Rb_tree@GU?$pair@$$CBGUGUILD_SPRITES@MGuildMarkManager@@@_STL@@U?$_Select1st@U?$pair@$$CBGUGUILD_SPRITES@MGuildMarkManager@@@_STL@@@2@U?$less@G@2@V?$allocator@U?$pair@$$CBGUGUILD_SPRITES@MGuildMarkManager@@@_STL@@@2@@_STL@@QAEXXZ ; _STL::_Rb_tree<unsigned short,_STL::pair<unsigned short const ,MGuildMarkManager::GUILD_SPRITES>,_STL::_Select1st<_STL::pair<unsigned short const ,MGuildMarkManager::GUILD_SPRITES> >,_STL::less<unsigned short>,_STL::allocator<_STL::pair<unsigned short const ,MGuildMarkManager::GUILD_SPRITES> > >::clear
; Function compile flags: /Ogsy
; File c:\stlport-4.6.1\stlport\stl\_tree.h
;	COMDAT ?clear@?$_Rb_tree@GU?$pair@$$CBGUGUILD_SPRITES@MGuildMarkManager@@@_STL@@U?$_Select1st@U?$pair@$$CBGUGUILD_SPRITES@MGuildMarkManager@@@_STL@@@2@U?$less@G@2@V?$allocator@U?$pair@$$CBGUGUILD_SPRITES@MGuildMarkManager@@@_STL@@@2@@_STL@@QAEXXZ
_TEXT	SEGMENT
?clear@?$_Rb_tree@GU?$pair@$$CBGUGUILD_SPRITES@MGuildMarkManager@@@_STL@@U?$_Select1st@U?$pair@$$CBGUGUILD_SPRITES@MGuildMarkManager@@@_STL@@@2@U?$less@G@2@V?$allocator@U?$pair@$$CBGUGUILD_SPRITES@MGuildMarkManager@@@_STL@@@2@@_STL@@QAEXXZ PROC NEAR ; _STL::_Rb_tree<unsigned short,_STL::pair<unsigned short const ,MGuildMarkManager::GUILD_SPRITES>,_STL::_Select1st<_STL::pair<unsigned short const ,MGuildMarkManager::GUILD_SPRITES> >,_STL::less<unsigned short>,_STL::allocator<_STL::pair<unsigned short const ,MGuildMarkManager::GUILD_SPRITES> > >::clear, COMDAT
; _this$ = ecx

; 445  :   void clear() {

  00000	56		 push	 esi
  00001	8b f1		 mov	 esi, ecx

; 446  :     if (_M_node_count != 0) {

  00003	83 7e 04 00	 cmp	 DWORD PTR [esi+4], 0
  00007	74 1e		 je	 SHORT $L107014

; 447  :       _M_erase(_M_root());

  00009	8b 06		 mov	 eax, DWORD PTR [esi]
  0000b	ff 70 04	 push	 DWORD PTR [eax+4]
  0000e	e8 00 00 00 00	 call	 ?_M_erase@?$_Rb_tree@GU?$pair@$$CBGUGUILD_SPRITES@MGuildMarkManager@@@_STL@@U?$_Select1st@U?$pair@$$CBGUGUILD_SPRITES@MGuildMarkManager@@@_STL@@@2@U?$less@G@2@V?$allocator@U?$pair@$$CBGUGUILD_SPRITES@MGuildMarkManager@@@_STL@@@2@@_STL@@AAEXPAU?$_Rb_tree_node@U?$pair@$$CBGUGUILD_SPRITES@MGuildMarkManager@@@_STL@@@2@@Z ; _STL::_Rb_tree<unsigned short,_STL::pair<unsigned short const ,MGuildMarkManager::GUILD_SPRITES>,_STL::_Select1st<_STL::pair<unsigned short const ,MGuildMarkManager::GUILD_SPRITES> >,_STL::less<unsigned short>,_STL::allocator<_STL::pair<unsigned short const ,MGuildMarkManager::GUILD_SPRITES> > >::_M_erase

; 448  :       _M_leftmost() = this->_M_header._M_data;

  00013	8b 06		 mov	 eax, DWORD PTR [esi]
  00015	89 40 08	 mov	 DWORD PTR [eax+8], eax

; 449  :       _M_root() = 0;

  00018	8b 06		 mov	 eax, DWORD PTR [esi]
  0001a	83 60 04 00	 and	 DWORD PTR [eax+4], 0

; 450  :       _M_rightmost() = this->_M_header._M_data;

  0001e	8b 06		 mov	 eax, DWORD PTR [esi]
  00020	89 40 0c	 mov	 DWORD PTR [eax+12], eax

; 451  :       _M_node_count = 0;

  00023	83 66 04 00	 and	 DWORD PTR [esi+4], 0
$L107014:
  00027	5e		 pop	 esi

; 452  :     }
; 453  :   }      

  00028	c3		 ret	 0
?clear@?$_Rb_tree@GU?$pair@$$CBGUGUILD_SPRITES@MGuildMarkManager@@@_STL@@U?$_Select1st@U?$pair@$$CBGUGUILD_SPRITES@MGuildMarkManager@@@_STL@@@2@U?$less@G@2@V?$allocator@U?$pair@$$CBGUGUILD_SPRITES@MGuildMarkManager@@@_STL@@@2@@_STL@@QAEXXZ ENDP ; _STL::_Rb_tree<unsigned short,_STL::pair<unsigned short const ,MGuildMarkManager::GUILD_SPRITES>,_STL::_Select1st<_STL::pair<unsigned short const ,MGuildMarkManager::GUILD_SPRITES> >,_STL::less<unsigned short>,_STL::allocator<_STL::pair<unsigned short const ,MGuildMarkManager::GUILD_SPRITES> > >::clear
_TEXT	ENDS
PUBLIC	??1?$_Rb_tree_base@U?$pair@$$CBGUGUILD_SPRITES@MGuildMarkManager@@@_STL@@V?$allocator@U?$pair@$$CBGUGUILD_SPRITES@MGuildMarkManager@@@_STL@@@2@@_STL@@QAE@XZ ; _STL::_Rb_tree_base<_STL::pair<unsigned short const ,MGuildMarkManager::GUILD_SPRITES>,_STL::allocator<_STL::pair<unsigned short const ,MGuildMarkManager::GUILD_SPRITES> > >::~_Rb_tree_base<_STL::pair<unsigned short const ,MGuildMarkManager::GUILD_SPRITES>,_STL::allocator<_STL::pair<unsigned short const ,MGuildMarkManager::GUILD_SPRITES> > >
; Function compile flags: /Ogsy
;	COMDAT ??1?$_Rb_tree_base@U?$pair@$$CBGUGUILD_SPRITES@MGuildMarkManager@@@_STL@@V?$allocator@U?$pair@$$CBGUGUILD_SPRITES@MGuildMarkManager@@@_STL@@@2@@_STL@@QAE@XZ
_TEXT	SEGMENT
??1?$_Rb_tree_base@U?$pair@$$CBGUGUILD_SPRITES@MGuildMarkManager@@@_STL@@V?$allocator@U?$pair@$$CBGUGUILD_SPRITES@MGuildMarkManager@@@_STL@@@2@@_STL@@QAE@XZ PROC NEAR ; _STL::_Rb_tree_base<_STL::pair<unsigned short const ,MGuildMarkManager::GUILD_SPRITES>,_STL::allocator<_STL::pair<unsigned short const ,MGuildMarkManager::GUILD_SPRITES> > >::~_Rb_tree_base<_STL::pair<unsigned short const ,MGuildMarkManager::GUILD_SPRITES>,_STL::allocator<_STL::pair<unsigned short const ,MGuildMarkManager::GUILD_SPRITES> > >, COMDAT
; _this$ = ecx

; 208  :     _M_header.deallocate(_M_header._M_data,1); 

  00000	6a 01		 push	 1
  00002	ff 31		 push	 DWORD PTR [ecx]
  00004	e8 00 00 00 00	 call	 ?deallocate@?$allocator@U?$_Rb_tree_node@U?$pair@$$CBGUGUILD_SPRITES@MGuildMarkManager@@@_STL@@@_STL@@@_STL@@QAEXPAU?$_Rb_tree_node@U?$pair@$$CBGUGUILD_SPRITES@MGuildMarkManager@@@_STL@@@2@I@Z ; _STL::allocator<_STL::_Rb_tree_node<_STL::pair<unsigned short const ,MGuildMarkManager::GUILD_SPRITES> > >::deallocate

; 209  :   }

  00009	c3		 ret	 0
??1?$_Rb_tree_base@U?$pair@$$CBGUGUILD_SPRITES@MGuildMarkManager@@@_STL@@V?$allocator@U?$pair@$$CBGUGUILD_SPRITES@MGuildMarkManager@@@_STL@@@2@@_STL@@QAE@XZ ENDP ; _STL::_Rb_tree_base<_STL::pair<unsigned short const ,MGuildMarkManager::GUILD_SPRITES>,_STL::allocator<_STL::pair<unsigned short const ,MGuildMarkManager::GUILD_SPRITES> > >::~_Rb_tree_base<_STL::pair<unsigned short const ,MGuildMarkManager::GUILD_SPRITES>,_STL::allocator<_STL::pair<unsigned short const ,MGuildMarkManager::GUILD_SPRITES> > >
_TEXT	ENDS
PUBLIC	??0?$_Rb_tree_base@U?$pair@$$CBGUGUILD_SPRITES@MGuildMarkManager@@@_STL@@V?$allocator@U?$pair@$$CBGUGUILD_SPRITES@MGuildMarkManager@@@_STL@@@2@@_STL@@QAE@ABV?$allocator@U?$pair@$$CBGUGUILD_SPRITES@MGuildMarkManager@@@_STL@@@1@@Z ; _STL::_Rb_tree_base<_STL::pair<unsigned short const ,MGuildMarkManager::GUILD_SPRITES>,_STL::allocator<_STL::pair<unsigned short const ,MGuildMarkManager::GUILD_SPRITES> > >::_Rb_tree_base<_STL::pair<unsigned short const ,MGuildMarkManager::GUILD_SPRITES>,_STL::allocator<_STL::pair<unsigned short const ,MGuildMarkManager::GUILD_SPRITES> > >
; Function compile flags: /Ogsy
;	COMDAT ??0?$_Rb_tree_base@U?$pair@$$CBGUGUILD_SPRITES@MGuildMarkManager@@@_STL@@V?$allocator@U?$pair@$$CBGUGUILD_SPRITES@MGuildMarkManager@@@_STL@@@2@@_STL@@QAE@ABV?$allocator@U?$pair@$$CBGUGUILD_SPRITES@MGuildMarkManager@@@_STL@@@1@@Z
_TEXT	SEGMENT
$T111528 = -1						; size = 1
___a$ = 8						; size = 4
??0?$_Rb_tree_base@U?$pair@$$CBGUGUILD_SPRITES@MGuildMarkManager@@@_STL@@V?$allocator@U?$pair@$$CBGUGUILD_SPRITES@MGuildMarkManager@@@_STL@@@2@@_STL@@QAE@ABV?$allocator@U?$pair@$$CBGUGUILD_SPRITES@MGuildMarkManager@@@_STL@@@1@@Z PROC NEAR ; _STL::_Rb_tree_base<_STL::pair<unsigned short const ,MGuildMarkManager::GUILD_SPRITES>,_STL::allocator<_STL::pair<unsigned short const ,MGuildMarkManager::GUILD_SPRITES> > >::_Rb_tree_base<_STL::pair<unsigned short const ,MGuildMarkManager::GUILD_SPRITES>,_STL::allocator<_STL::pair<unsigned short const ,MGuildMarkManager::GUILD_SPRITES> > >, COMDAT
; _this$ = ecx

; 204  :     _M_header(_STLP_CONVERT_ALLOCATOR(__a, _Node), (_Node*)0) { 

  00000	51		 push	 ecx
  00001	56		 push	 esi
  00002	6a 00		 push	 0
  00004	8d 44 24 0b	 lea	 eax, DWORD PTR $T111528[esp+12]
  00008	50		 push	 eax
  00009	8b f1		 mov	 esi, ecx
  0000b	e8 00 00 00 00	 call	 ??0?$_STLP_alloc_proxy@PAU?$_Rb_tree_node@U?$pair@$$CBGUGUILD_SPRITES@MGuildMarkManager@@@_STL@@@_STL@@U12@V?$allocator@U?$_Rb_tree_node@U?$pair@$$CBGUGUILD_SPRITES@MGuildMarkManager@@@_STL@@@_STL@@@2@@_STL@@QAE@ABV?$allocator@U?$_Rb_tree_node@U?$pair@$$CBGUGUILD_SPRITES@MGuildMarkManager@@@_STL@@@_STL@@@1@PAU?$_Rb_tree_node@U?$pair@$$CBGUGUILD_SPRITES@MGuildMarkManager@@@_STL@@@1@@Z ; _STL::_STLP_alloc_proxy<_STL::_Rb_tree_node<_STL::pair<unsigned short const ,MGuildMarkManager::GUILD_SPRITES> > *,_STL::_Rb_tree_node<_STL::pair<unsigned short const ,MGuildMarkManager::GUILD_SPRITES> >,_STL::allocator<_STL::_Rb_tree_node<_STL::pair<unsigned short const ,MGuildMarkManager::GUILD_SPRITES> > > >::_STLP_alloc_proxy<_STL::_Rb_tree_node<_STL::pair<unsigned short const ,MGuildMarkManager::GUILD_SPRITES> > *,_STL::_Rb_tree_node<_STL::pair<unsigned short const ,MGuildMarkManager::GUILD_SPRITES> >,_STL::allocator<_STL::_Rb_tree_node<_STL::pair<unsigned short const ,MGuildMarkManager::GUILD_SPRITES> > > >

; 205  :       _M_header._M_data = _M_header.allocate(1); 

  00010	6a 1c		 push	 28			; 0000001cH
  00012	e8 00 00 00 00	 call	 ?allocate@?$__node_alloc@$00$0A@@_STL@@SAPAXI@Z ; _STL::__node_alloc<1,0>::allocate
  00017	89 06		 mov	 DWORD PTR [esi], eax
  00019	59		 pop	 ecx

; 206  :   }

  0001a	8b c6		 mov	 eax, esi
  0001c	5e		 pop	 esi
  0001d	59		 pop	 ecx
  0001e	c2 04 00	 ret	 4
??0?$_Rb_tree_base@U?$pair@$$CBGUGUILD_SPRITES@MGuildMarkManager@@@_STL@@V?$allocator@U?$pair@$$CBGUGUILD_SPRITES@MGuildMarkManager@@@_STL@@@2@@_STL@@QAE@ABV?$allocator@U?$pair@$$CBGUGUILD_SPRITES@MGuildMarkManager@@@_STL@@@1@@Z ENDP ; _STL::_Rb_tree_base<_STL::pair<unsigned short const ,MGuildMarkManager::GUILD_SPRITES>,_STL::allocator<_STL::pair<unsigned short const ,MGuildMarkManager::GUILD_SPRITES> > >::_Rb_tree_base<_STL::pair<unsigned short const ,MGuildMarkManager::GUILD_SPRITES>,_STL::allocator<_STL::pair<unsigned short const ,MGuildMarkManager::GUILD_SPRITES> > >
_TEXT	ENDS
PUBLIC	?_M_lower_bound@?$_Rb_tree@GU?$pair@$$CBGUGUILD_SPRITES@MGuildMarkManager@@@_STL@@U?$_Select1st@U?$pair@$$CBGUGUILD_SPRITES@MGuildMarkManager@@@_STL@@@2@U?$less@G@2@V?$allocator@U?$pair@$$CBGUGUILD_SPRITES@MGuildMarkManager@@@_STL@@@2@@_STL@@ABEPAU?$_Rb_tree_node@U?$pair@$$CBGUGUILD_SPRITES@MGuildMarkManager@@@_STL@@@2@ABG@Z ; _STL::_Rb_tree<unsigned short,_STL::pair<unsigned short const ,MGuildMarkManager::GUILD_SPRITES>,_STL::_Select1st<_STL::pair<unsigned short const ,MGuildMarkManager::GUILD_SPRITES> >,_STL::less<unsigned short>,_STL::allocator<_STL::pair<unsigned short const ,MGuildMarkManager::GUILD_SPRITES> > >::_M_lower_bound
; Function compile flags: /Ogsy
;	COMDAT ?_M_lower_bound@?$_Rb_tree@GU?$pair@$$CBGUGUILD_SPRITES@MGuildMarkManager@@@_STL@@U?$_Select1st@U?$pair@$$CBGUGUILD_SPRITES@MGuildMarkManager@@@_STL@@@2@U?$less@G@2@V?$allocator@U?$pair@$$CBGUGUILD_SPRITES@MGuildMarkManager@@@_STL@@@2@@_STL@@ABEPAU?$_Rb_tree_node@U?$pair@$$CBGUGUILD_SPRITES@MGuildMarkManager@@@_STL@@@2@ABG@Z
_TEXT	SEGMENT
___k$ = 8						; size = 4
?_M_lower_bound@?$_Rb_tree@GU?$pair@$$CBGUGUILD_SPRITES@MGuildMarkManager@@@_STL@@U?$_Select1st@U?$pair@$$CBGUGUILD_SPRITES@MGuildMarkManager@@@_STL@@@2@U?$less@G@2@V?$allocator@U?$pair@$$CBGUGUILD_SPRITES@MGuildMarkManager@@@_STL@@@2@@_STL@@ABEPAU?$_Rb_tree_node@U?$pair@$$CBGUGUILD_SPRITES@MGuildMarkManager@@@_STL@@@2@ABG@Z PROC NEAR ; _STL::_Rb_tree<unsigned short,_STL::pair<unsigned short const ,MGuildMarkManager::GUILD_SPRITES>,_STL::_Select1st<_STL::pair<unsigned short const ,MGuildMarkManager::GUILD_SPRITES> >,_STL::less<unsigned short>,_STL::allocator<_STL::pair<unsigned short const ,MGuildMarkManager::GUILD_SPRITES> > >::_M_lower_bound, COMDAT
; _this$ = ecx

; 483  :     _Link_type __y = this->_M_header._M_data; /* Last node which is not less than __k. */

  00000	8b 01		 mov	 eax, DWORD PTR [ecx]

; 484  :     _Link_type __x = _M_root(); /* Current node. */

  00002	8b 48 04	 mov	 ecx, DWORD PTR [eax+4]

; 485  :     
; 486  :     while (__x != 0) 

  00005	85 c9		 test	 ecx, ecx
  00007	74 1b		 je	 SHORT $L107192
  00009	8b 54 24 04	 mov	 edx, DWORD PTR ___k$[esp-4]
  0000d	66 8b 12	 mov	 dx, WORD PTR [edx]
$L107191:

; 487  :       if (!_M_key_compare(_S_key(__x), __k))

  00010	66 39 51 10	 cmp	 WORD PTR [ecx+16], dx
  00014	72 07		 jb	 SHORT $L107193

; 488  : 	__y = __x, __x = _S_left(__x);

  00016	8b c1		 mov	 eax, ecx
  00018	8b 49 08	 mov	 ecx, DWORD PTR [ecx+8]

; 489  :       else

  0001b	eb 03		 jmp	 SHORT $L107194
$L107193:

; 490  : 	__x = _S_right(__x);

  0001d	8b 49 0c	 mov	 ecx, DWORD PTR [ecx+12]
$L107194:

; 485  :     
; 486  :     while (__x != 0) 

  00020	85 c9		 test	 ecx, ecx
  00022	75 ec		 jne	 SHORT $L107191
$L107192:

; 491  :     
; 492  :     return __y;
; 493  :   }

  00024	c2 04 00	 ret	 4
?_M_lower_bound@?$_Rb_tree@GU?$pair@$$CBGUGUILD_SPRITES@MGuildMarkManager@@@_STL@@U?$_Select1st@U?$pair@$$CBGUGUILD_SPRITES@MGuildMarkManager@@@_STL@@@2@U?$less@G@2@V?$allocator@U?$pair@$$CBGUGUILD_SPRITES@MGuildMarkManager@@@_STL@@@2@@_STL@@ABEPAU?$_Rb_tree_node@U?$pair@$$CBGUGUILD_SPRITES@MGuildMarkManager@@@_STL@@@2@ABG@Z ENDP ; _STL::_Rb_tree<unsigned short,_STL::pair<unsigned short const ,MGuildMarkManager::GUILD_SPRITES>,_STL::_Select1st<_STL::pair<unsigned short const ,MGuildMarkManager::GUILD_SPRITES> >,_STL::less<unsigned short>,_STL::allocator<_STL::pair<unsigned short const ,MGuildMarkManager::GUILD_SPRITES> > >::_M_lower_bound
_TEXT	ENDS
PUBLIC	??$find@G@?$_Rb_tree@GU?$pair@$$CBGUGUILD_SPRITES@MGuildMarkManager@@@_STL@@U?$_Select1st@U?$pair@$$CBGUGUILD_SPRITES@MGuildMarkManager@@@_STL@@@2@U?$less@G@2@V?$allocator@U?$pair@$$CBGUGUILD_SPRITES@MGuildMarkManager@@@_STL@@@2@@_STL@@QAE?AU?$_Rb_tree_iterator@U?$pair@$$CBGUGUILD_SPRITES@MGuildMarkManager@@@_STL@@U?$_Nonconst_traits@U?$pair@$$CBGUGUILD_SPRITES@MGuildMarkManager@@@_STL@@@2@@1@ABG@Z ; _STL::_Rb_tree<unsigned short,_STL::pair<unsigned short const ,MGuildMarkManager::GUILD_SPRITES>,_STL::_Select1st<_STL::pair<unsigned short const ,MGuildMarkManager::GUILD_SPRITES> >,_STL::less<unsigned short>,_STL::allocator<_STL::pair<unsigned short const ,MGuildMarkManager::GUILD_SPRITES> > >::find<unsigned short>
; Function compile flags: /Ogsy
;	COMDAT ??$find@G@?$_Rb_tree@GU?$pair@$$CBGUGUILD_SPRITES@MGuildMarkManager@@@_STL@@U?$_Select1st@U?$pair@$$CBGUGUILD_SPRITES@MGuildMarkManager@@@_STL@@@2@U?$less@G@2@V?$allocator@U?$pair@$$CBGUGUILD_SPRITES@MGuildMarkManager@@@_STL@@@2@@_STL@@QAE?AU?$_Rb_tree_iterator@U?$pair@$$CBGUGUILD_SPRITES@MGuildMarkManager@@@_STL@@U?$_Nonconst_traits@U?$pair@$$CBGUGUILD_SPRITES@MGuildMarkManager@@@_STL@@@2@@1@ABG@Z
_TEXT	SEGMENT
___$ReturnUdt$ = 8					; size = 4
___x$ = 12						; size = 4
??$find@G@?$_Rb_tree@GU?$pair@$$CBGUGUILD_SPRITES@MGuildMarkManager@@@_STL@@U?$_Select1st@U?$pair@$$CBGUGUILD_SPRITES@MGuildMarkManager@@@_STL@@@2@U?$less@G@2@V?$allocator@U?$pair@$$CBGUGUILD_SPRITES@MGuildMarkManager@@@_STL@@@2@@_STL@@QAE?AU?$_Rb_tree_iterator@U?$pair@$$CBGUGUILD_SPRITES@MGuildMarkManager@@@_STL@@U?$_Nonconst_traits@U?$pair@$$CBGUGUILD_SPRITES@MGuildMarkManager@@@_STL@@@2@@1@ABG@Z PROC NEAR ; _STL::_Rb_tree<unsigned short,_STL::pair<unsigned short const ,MGuildMarkManager::GUILD_SPRITES>,_STL::_Select1st<_STL::pair<unsigned short const ,MGuildMarkManager::GUILD_SPRITES> >,_STL::less<unsigned short>,_STL::allocator<_STL::pair<unsigned short const ,MGuildMarkManager::GUILD_SPRITES> > >::find<unsigned short>, COMDAT
; _this$ = ecx

; 458  :   template <class _KT> iterator find(const _KT& __x) { return iterator(_M_find(__x)); }

  00000	ff 74 24 08	 push	 DWORD PTR ___x$[esp-4]
  00004	e8 00 00 00 00	 call	 ??$_M_find@G@?$_Rb_tree@GU?$pair@$$CBGUGUILD_SPRITES@MGuildMarkManager@@@_STL@@U?$_Select1st@U?$pair@$$CBGUGUILD_SPRITES@MGuildMarkManager@@@_STL@@@2@U?$less@G@2@V?$allocator@U?$pair@$$CBGUGUILD_SPRITES@MGuildMarkManager@@@_STL@@@2@@_STL@@ABEPAU?$_Rb_tree_node@U?$pair@$$CBGUGUILD_SPRITES@MGuildMarkManager@@@_STL@@@1@ABG@Z ; _STL::_Rb_tree<unsigned short,_STL::pair<unsigned short const ,MGuildMarkManager::GUILD_SPRITES>,_STL::_Select1st<_STL::pair<unsigned short const ,MGuildMarkManager::GUILD_SPRITES> >,_STL::less<unsigned short>,_STL::allocator<_STL::pair<unsigned short const ,MGuildMarkManager::GUILD_SPRITES> > >::_M_find<unsigned short>
  00009	8b 4c 24 04	 mov	 ecx, DWORD PTR ___$ReturnUdt$[esp-4]
  0000d	89 01		 mov	 DWORD PTR [ecx], eax
  0000f	8b c1		 mov	 eax, ecx
  00011	c2 08 00	 ret	 8
??$find@G@?$_Rb_tree@GU?$pair@$$CBGUGUILD_SPRITES@MGuildMarkManager@@@_STL@@U?$_Select1st@U?$pair@$$CBGUGUILD_SPRITES@MGuildMarkManager@@@_STL@@@2@U?$less@G@2@V?$allocator@U?$pair@$$CBGUGUILD_SPRITES@MGuildMarkManager@@@_STL@@@2@@_STL@@QAE?AU?$_Rb_tree_iterator@U?$pair@$$CBGUGUILD_SPRITES@MGuildMarkManager@@@_STL@@U?$_Nonconst_traits@U?$pair@$$CBGUGUILD_SPRITES@MGuildMarkManager@@@_STL@@@2@@1@ABG@Z ENDP ; _STL::_Rb_tree<unsigned short,_STL::pair<unsigned short const ,MGuildMarkManager::GUILD_SPRITES>,_STL::_Select1st<_STL::pair<unsigned short const ,MGuildMarkManager::GUILD_SPRITES> >,_STL::less<unsigned short>,_STL::allocator<_STL::pair<unsigned short const ,MGuildMarkManager::GUILD_SPRITES> > >::find<unsigned short>
_TEXT	ENDS
PUBLIC	??$find@G@?$_Rb_tree@GU?$pair@$$CBGUGUILD_SPRITES@MGuildMarkManager@@@_STL@@U?$_Select1st@U?$pair@$$CBGUGUILD_SPRITES@MGuildMarkManager@@@_STL@@@2@U?$less@G@2@V?$allocator@U?$pair@$$CBGUGUILD_SPRITES@MGuildMarkManager@@@_STL@@@2@@_STL@@QBE?AU?$_Rb_tree_iterator@U?$pair@$$CBGUGUILD_SPRITES@MGuildMarkManager@@@_STL@@U?$_Const_traits@U?$pair@$$CBGUGUILD_SPRITES@MGuildMarkManager@@@_STL@@@2@@1@ABG@Z ; _STL::_Rb_tree<unsigned short,_STL::pair<unsigned short const ,MGuildMarkManager::GUILD_SPRITES>,_STL::_Select1st<_STL::pair<unsigned short const ,MGuildMarkManager::GUILD_SPRITES> >,_STL::less<unsigned short>,_STL::allocator<_STL::pair<unsigned short const ,MGuildMarkManager::GUILD_SPRITES> > >::find<unsigned short>
; Function compile flags: /Ogsy
;	COMDAT ??$find@G@?$_Rb_tree@GU?$pair@$$CBGUGUILD_SPRITES@MGuildMarkManager@@@_STL@@U?$_Select1st@U?$pair@$$CBGUGUILD_SPRITES@MGuildMarkManager@@@_STL@@@2@U?$less@G@2@V?$allocator@U?$pair@$$CBGUGUILD_SPRITES@MGuildMarkManager@@@_STL@@@2@@_STL@@QBE?AU?$_Rb_tree_iterator@U?$pair@$$CBGUGUILD_SPRITES@MGuildMarkManager@@@_STL@@U?$_Const_traits@U?$pair@$$CBGUGUILD_SPRITES@MGuildMarkManager@@@_STL@@@2@@1@ABG@Z
_TEXT	SEGMENT
___$ReturnUdt$ = 8					; size = 4
___x$ = 12						; size = 4
??$find@G@?$_Rb_tree@GU?$pair@$$CBGUGUILD_SPRITES@MGuildMarkManager@@@_STL@@U?$_Select1st@U?$pair@$$CBGUGUILD_SPRITES@MGuildMarkManager@@@_STL@@@2@U?$less@G@2@V?$allocator@U?$pair@$$CBGUGUILD_SPRITES@MGuildMarkManager@@@_STL@@@2@@_STL@@QBE?AU?$_Rb_tree_iterator@U?$pair@$$CBGUGUILD_SPRITES@MGuildMarkManager@@@_STL@@U?$_Const_traits@U?$pair@$$CBGUGUILD_SPRITES@MGuildMarkManager@@@_STL@@@2@@1@ABG@Z PROC NEAR ; _STL::_Rb_tree<unsigned short,_STL::pair<unsigned short const ,MGuildMarkManager::GUILD_SPRITES>,_STL::_Select1st<_STL::pair<unsigned short const ,MGuildMarkManager::GUILD_SPRITES> >,_STL::less<unsigned short>,_STL::allocator<_STL::pair<unsigned short const ,MGuildMarkManager::GUILD_SPRITES> > >::find<unsigned short>, COMDAT
; _this$ = ecx

; 459  :   template <class _KT> const_iterator find(const _KT& __x) const { return const_iterator(_M_find(__x)); }

  00000	ff 74 24 08	 push	 DWORD PTR ___x$[esp-4]
  00004	e8 00 00 00 00	 call	 ??$_M_find@G@?$_Rb_tree@GU?$pair@$$CBGUGUILD_SPRITES@MGuildMarkManager@@@_STL@@U?$_Select1st@U?$pair@$$CBGUGUILD_SPRITES@MGuildMarkManager@@@_STL@@@2@U?$less@G@2@V?$allocator@U?$pair@$$CBGUGUILD_SPRITES@MGuildMarkManager@@@_STL@@@2@@_STL@@ABEPAU?$_Rb_tree_node@U?$pair@$$CBGUGUILD_SPRITES@MGuildMarkManager@@@_STL@@@1@ABG@Z ; _STL::_Rb_tree<unsigned short,_STL::pair<unsigned short const ,MGuildMarkManager::GUILD_SPRITES>,_STL::_Select1st<_STL::pair<unsigned short const ,MGuildMarkManager::GUILD_SPRITES> >,_STL::less<unsigned short>,_STL::allocator<_STL::pair<unsigned short const ,MGuildMarkManager::GUILD_SPRITES> > >::_M_find<unsigned short>
  00009	8b 4c 24 04	 mov	 ecx, DWORD PTR ___$ReturnUdt$[esp-4]
  0000d	89 01		 mov	 DWORD PTR [ecx], eax
  0000f	8b c1		 mov	 eax, ecx
  00011	c2 08 00	 ret	 8
??$find@G@?$_Rb_tree@GU?$pair@$$CBGUGUILD_SPRITES@MGuildMarkManager@@@_STL@@U?$_Select1st@U?$pair@$$CBGUGUILD_SPRITES@MGuildMarkManager@@@_STL@@@2@U?$less@G@2@V?$allocator@U?$pair@$$CBGUGUILD_SPRITES@MGuildMarkManager@@@_STL@@@2@@_STL@@QBE?AU?$_Rb_tree_iterator@U?$pair@$$CBGUGUILD_SPRITES@MGuildMarkManager@@@_STL@@U?$_Const_traits@U?$pair@$$CBGUGUILD_SPRITES@MGuildMarkManager@@@_STL@@@2@@1@ABG@Z ENDP ; _STL::_Rb_tree<unsigned short,_STL::pair<unsigned short const ,MGuildMarkManager::GUILD_SPRITES>,_STL::_Select1st<_STL::pair<unsigned short const ,MGuildMarkManager::GUILD_SPRITES> >,_STL::less<unsigned short>,_STL::allocator<_STL::pair<unsigned short const ,MGuildMarkManager::GUILD_SPRITES> > >::find<unsigned short>
_TEXT	ENDS
PUBLIC	?clear@?$_Rb_tree@GU?$pair@$$CBGPAVivfstream@@@_STL@@U?$_Select1st@U?$pair@$$CBGPAVivfstream@@@_STL@@@2@U?$less@G@2@V?$allocator@U?$pair@$$CBGPAVivfstream@@@_STL@@@2@@_STL@@QAEXXZ ; _STL::_Rb_tree<unsigned short,_STL::pair<unsigned short const ,ivfstream *>,_STL::_Select1st<_STL::pair<unsigned short const ,ivfstream *> >,_STL::less<unsigned short>,_STL::allocator<_STL::pair<unsigned short const ,ivfstream *> > >::clear
; Function compile flags: /Ogsy
;	COMDAT ?clear@?$_Rb_tree@GU?$pair@$$CBGPAVivfstream@@@_STL@@U?$_Select1st@U?$pair@$$CBGPAVivfstream@@@_STL@@@2@U?$less@G@2@V?$allocator@U?$pair@$$CBGPAVivfstream@@@_STL@@@2@@_STL@@QAEXXZ
_TEXT	SEGMENT
?clear@?$_Rb_tree@GU?$pair@$$CBGPAVivfstream@@@_STL@@U?$_Select1st@U?$pair@$$CBGPAVivfstream@@@_STL@@@2@U?$less@G@2@V?$allocator@U?$pair@$$CBGPAVivfstream@@@_STL@@@2@@_STL@@QAEXXZ PROC NEAR ; _STL::_Rb_tree<unsigned short,_STL::pair<unsigned short const ,ivfstream *>,_STL::_Select1st<_STL::pair<unsigned short const ,ivfstream *> >,_STL::less<unsigned short>,_STL::allocator<_STL::pair<unsigned short const ,ivfstream *> > >::clear, COMDAT
; _this$ = ecx

; 445  :   void clear() {

  00000	56		 push	 esi
  00001	8b f1		 mov	 esi, ecx

; 446  :     if (_M_node_count != 0) {

  00003	83 7e 04 00	 cmp	 DWORD PTR [esi+4], 0
  00007	74 1e		 je	 SHORT $L108936

; 447  :       _M_erase(_M_root());

  00009	8b 06		 mov	 eax, DWORD PTR [esi]
  0000b	ff 70 04	 push	 DWORD PTR [eax+4]
  0000e	e8 00 00 00 00	 call	 ?_M_erase@?$_Rb_tree@GU?$pair@$$CBGPAVivfstream@@@_STL@@U?$_Select1st@U?$pair@$$CBGPAVivfstream@@@_STL@@@2@U?$less@G@2@V?$allocator@U?$pair@$$CBGPAVivfstream@@@_STL@@@2@@_STL@@AAEXPAU?$_Rb_tree_node@U?$pair@$$CBGPAVivfstream@@@_STL@@@2@@Z ; _STL::_Rb_tree<unsigned short,_STL::pair<unsigned short const ,ivfstream *>,_STL::_Select1st<_STL::pair<unsigned short const ,ivfstream *> >,_STL::less<unsigned short>,_STL::allocator<_STL::pair<unsigned short const ,ivfstream *> > >::_M_erase

; 448  :       _M_leftmost() = this->_M_header._M_data;

  00013	8b 06		 mov	 eax, DWORD PTR [esi]
  00015	89 40 08	 mov	 DWORD PTR [eax+8], eax

; 449  :       _M_root() = 0;

  00018	8b 06		 mov	 eax, DWORD PTR [esi]
  0001a	83 60 04 00	 and	 DWORD PTR [eax+4], 0

; 450  :       _M_rightmost() = this->_M_header._M_data;

  0001e	8b 06		 mov	 eax, DWORD PTR [esi]
  00020	89 40 0c	 mov	 DWORD PTR [eax+12], eax

; 451  :       _M_node_count = 0;

  00023	83 66 04 00	 and	 DWORD PTR [esi+4], 0
$L108936:
  00027	5e		 pop	 esi

; 452  :     }
; 453  :   }      

  00028	c3		 ret	 0
?clear@?$_Rb_tree@GU?$pair@$$CBGPAVivfstream@@@_STL@@U?$_Select1st@U?$pair@$$CBGPAVivfstream@@@_STL@@@2@U?$less@G@2@V?$allocator@U?$pair@$$CBGPAVivfstream@@@_STL@@@2@@_STL@@QAEXXZ ENDP ; _STL::_Rb_tree<unsigned short,_STL::pair<unsigned short const ,ivfstream *>,_STL::_Select1st<_STL::pair<unsigned short const ,ivfstream *> >,_STL::less<unsigned short>,_STL::allocator<_STL::pair<unsigned short const ,ivfstream *> > >::clear
_TEXT	ENDS
PUBLIC	??1?$_Rb_tree_base@U?$pair@$$CBGPAVivfstream@@@_STL@@V?$allocator@U?$pair@$$CBGPAVivfstream@@@_STL@@@2@@_STL@@QAE@XZ ; _STL::_Rb_tree_base<_STL::pair<unsigned short const ,ivfstream *>,_STL::allocator<_STL::pair<unsigned short const ,ivfstream *> > >::~_Rb_tree_base<_STL::pair<unsigned short const ,ivfstream *>,_STL::allocator<_STL::pair<unsigned short const ,ivfstream *> > >
; Function compile flags: /Ogsy
;	COMDAT ??1?$_Rb_tree_base@U?$pair@$$CBGPAVivfstream@@@_STL@@V?$allocator@U?$pair@$$CBGPAVivfstream@@@_STL@@@2@@_STL@@QAE@XZ
_TEXT	SEGMENT
??1?$_Rb_tree_base@U?$pair@$$CBGPAVivfstream@@@_STL@@V?$allocator@U?$pair@$$CBGPAVivfstream@@@_STL@@@2@@_STL@@QAE@XZ PROC NEAR ; _STL::_Rb_tree_base<_STL::pair<unsigned short const ,ivfstream *>,_STL::allocator<_STL::pair<unsigned short const ,ivfstream *> > >::~_Rb_tree_base<_STL::pair<unsigned short const ,ivfstream *>,_STL::allocator<_STL::pair<unsigned short const ,ivfstream *> > >, COMDAT
; _this$ = ecx

; 208  :     _M_header.deallocate(_M_header._M_data,1); 

  00000	6a 01		 push	 1
  00002	ff 31		 push	 DWORD PTR [ecx]
  00004	e8 00 00 00 00	 call	 ?deallocate@?$allocator@U?$_Rb_tree_node@U?$pair@$$CBGPAVivfstream@@@_STL@@@_STL@@@_STL@@QAEXPAU?$_Rb_tree_node@U?$pair@$$CBGPAVivfstream@@@_STL@@@2@I@Z ; _STL::allocator<_STL::_Rb_tree_node<_STL::pair<unsigned short const ,ivfstream *> > >::deallocate

; 209  :   }

  00009	c3		 ret	 0
??1?$_Rb_tree_base@U?$pair@$$CBGPAVivfstream@@@_STL@@V?$allocator@U?$pair@$$CBGPAVivfstream@@@_STL@@@2@@_STL@@QAE@XZ ENDP ; _STL::_Rb_tree_base<_STL::pair<unsigned short const ,ivfstream *>,_STL::allocator<_STL::pair<unsigned short const ,ivfstream *> > >::~_Rb_tree_base<_STL::pair<unsigned short const ,ivfstream *>,_STL::allocator<_STL::pair<unsigned short const ,ivfstream *> > >
_TEXT	ENDS
PUBLIC	??0?$_Rb_tree_base@U?$pair@$$CBGPAVivfstream@@@_STL@@V?$allocator@U?$pair@$$CBGPAVivfstream@@@_STL@@@2@@_STL@@QAE@ABV?$allocator@U?$pair@$$CBGPAVivfstream@@@_STL@@@1@@Z ; _STL::_Rb_tree_base<_STL::pair<unsigned short const ,ivfstream *>,_STL::allocator<_STL::pair<unsigned short const ,ivfstream *> > >::_Rb_tree_base<_STL::pair<unsigned short const ,ivfstream *>,_STL::allocator<_STL::pair<unsigned short const ,ivfstream *> > >
; Function compile flags: /Ogsy
;	COMDAT ??0?$_Rb_tree_base@U?$pair@$$CBGPAVivfstream@@@_STL@@V?$allocator@U?$pair@$$CBGPAVivfstream@@@_STL@@@2@@_STL@@QAE@ABV?$allocator@U?$pair@$$CBGPAVivfstream@@@_STL@@@1@@Z
_TEXT	SEGMENT
$T111605 = -1						; size = 1
___a$ = 8						; size = 4
??0?$_Rb_tree_base@U?$pair@$$CBGPAVivfstream@@@_STL@@V?$allocator@U?$pair@$$CBGPAVivfstream@@@_STL@@@2@@_STL@@QAE@ABV?$allocator@U?$pair@$$CBGPAVivfstream@@@_STL@@@1@@Z PROC NEAR ; _STL::_Rb_tree_base<_STL::pair<unsigned short const ,ivfstream *>,_STL::allocator<_STL::pair<unsigned short const ,ivfstream *> > >::_Rb_tree_base<_STL::pair<unsigned short const ,ivfstream *>,_STL::allocator<_STL::pair<unsigned short const ,ivfstream *> > >, COMDAT
; _this$ = ecx

; 204  :     _M_header(_STLP_CONVERT_ALLOCATOR(__a, _Node), (_Node*)0) { 

  00000	51		 push	 ecx
  00001	56		 push	 esi
  00002	6a 00		 push	 0
  00004	8d 44 24 0b	 lea	 eax, DWORD PTR $T111605[esp+12]
  00008	50		 push	 eax
  00009	8b f1		 mov	 esi, ecx
  0000b	e8 00 00 00 00	 call	 ??0?$_STLP_alloc_proxy@PAU?$_Rb_tree_node@U?$pair@$$CBGPAVivfstream@@@_STL@@@_STL@@U12@V?$allocator@U?$_Rb_tree_node@U?$pair@$$CBGPAVivfstream@@@_STL@@@_STL@@@2@@_STL@@QAE@ABV?$allocator@U?$_Rb_tree_node@U?$pair@$$CBGPAVivfstream@@@_STL@@@_STL@@@1@PAU?$_Rb_tree_node@U?$pair@$$CBGPAVivfstream@@@_STL@@@1@@Z ; _STL::_STLP_alloc_proxy<_STL::_Rb_tree_node<_STL::pair<unsigned short const ,ivfstream *> > *,_STL::_Rb_tree_node<_STL::pair<unsigned short const ,ivfstream *> >,_STL::allocator<_STL::_Rb_tree_node<_STL::pair<unsigned short const ,ivfstream *> > > >::_STLP_alloc_proxy<_STL::_Rb_tree_node<_STL::pair<unsigned short const ,ivfstream *> > *,_STL::_Rb_tree_node<_STL::pair<unsigned short const ,ivfstream *> >,_STL::allocator<_STL::_Rb_tree_node<_STL::pair<unsigned short const ,ivfstream *> > > >

; 205  :       _M_header._M_data = _M_header.allocate(1); 

  00010	6a 18		 push	 24			; 00000018H
  00012	e8 00 00 00 00	 call	 ?allocate@?$__node_alloc@$00$0A@@_STL@@SAPAXI@Z ; _STL::__node_alloc<1,0>::allocate
  00017	89 06		 mov	 DWORD PTR [esi], eax
  00019	59		 pop	 ecx

; 206  :   }

  0001a	8b c6		 mov	 eax, esi
  0001c	5e		 pop	 esi
  0001d	59		 pop	 ecx
  0001e	c2 04 00	 ret	 4
??0?$_Rb_tree_base@U?$pair@$$CBGPAVivfstream@@@_STL@@V?$allocator@U?$pair@$$CBGPAVivfstream@@@_STL@@@2@@_STL@@QAE@ABV?$allocator@U?$pair@$$CBGPAVivfstream@@@_STL@@@1@@Z ENDP ; _STL::_Rb_tree_base<_STL::pair<unsigned short const ,ivfstream *>,_STL::allocator<_STL::pair<unsigned short const ,ivfstream *> > >::_Rb_tree_base<_STL::pair<unsigned short const ,ivfstream *>,_STL::allocator<_STL::pair<unsigned short const ,ivfstream *> > >
_TEXT	ENDS
PUBLIC	??$_M_find@G@?$_Rb_tree@GU?$pair@$$CBGPAVGUILD_INFO@@@_STL@@U?$_Select1st@U?$pair@$$CBGPAVGUILD_INFO@@@_STL@@@2@U?$less@G@2@V?$allocator@U?$pair@$$CBGPAVGUILD_INFO@@@_STL@@@2@@_STL@@ABEPAU?$_Rb_tree_node@U?$pair@$$CBGPAVGUILD_INFO@@@_STL@@@1@ABG@Z ; _STL::_Rb_tree<unsigned short,_STL::pair<unsigned short const ,GUILD_INFO *>,_STL::_Select1st<_STL::pair<unsigned short const ,GUILD_INFO *> >,_STL::less<unsigned short>,_STL::allocator<_STL::pair<unsigned short const ,GUILD_INFO *> > >::_M_find<unsigned short>
; Function compile flags: /Ogsy
;	COMDAT ??$_M_find@G@?$_Rb_tree@GU?$pair@$$CBGPAVGUILD_INFO@@@_STL@@U?$_Select1st@U?$pair@$$CBGPAVGUILD_INFO@@@_STL@@@2@U?$less@G@2@V?$allocator@U?$pair@$$CBGPAVGUILD_INFO@@@_STL@@@2@@_STL@@ABEPAU?$_Rb_tree_node@U?$pair@$$CBGPAVGUILD_INFO@@@_STL@@@1@ABG@Z
_TEXT	SEGMENT
___k$ = 8						; size = 4
??$_M_find@G@?$_Rb_tree@GU?$pair@$$CBGPAVGUILD_INFO@@@_STL@@U?$_Select1st@U?$pair@$$CBGPAVGUILD_INFO@@@_STL@@@2@U?$less@G@2@V?$allocator@U?$pair@$$CBGPAVGUILD_INFO@@@_STL@@@2@@_STL@@ABEPAU?$_Rb_tree_node@U?$pair@$$CBGPAVGUILD_INFO@@@_STL@@@1@ABG@Z PROC NEAR ; _STL::_Rb_tree<unsigned short,_STL::pair<unsigned short const ,GUILD_INFO *>,_STL::_Select1st<_STL::pair<unsigned short const ,GUILD_INFO *> >,_STL::less<unsigned short>,_STL::allocator<_STL::pair<unsigned short const ,GUILD_INFO *> > >::_M_find<unsigned short>, COMDAT
; _this$ = ecx

; 462  : # else
; 463  :   iterator find(const key_type& __x) { return iterator(_M_find(__x)); }
; 464  :   const_iterator find(const key_type& __x) const { return const_iterator(_M_find(__x)); }
; 465  : private:
; 466  :   _Rb_tree_node<_Value>* _M_find(const key_type& __k) const
; 467  : # endif
; 468  :   {
; 469  :     _Link_type __y = this->_M_header._M_data;      // Last node which is not less than __k. 

  00000	8b 11		 mov	 edx, DWORD PTR [ecx]

; 470  :     _Link_type __x = _M_root();      // Current node. 

  00002	8b 4a 04	 mov	 ecx, DWORD PTR [edx+4]

; 471  :     
; 472  :     while (__x != 0) 

  00005	85 c9		 test	 ecx, ecx
  00007	57		 push	 edi
  00008	8b 7c 24 08	 mov	 edi, DWORD PTR ___k$[esp]
  0000c	8b c2		 mov	 eax, edx
  0000e	74 19		 je	 SHORT $L109387
  00010	56		 push	 esi
  00011	66 8b 37	 mov	 si, WORD PTR [edi]
$L109386:

; 473  :       if (!_M_key_compare(_S_key(__x), __k))

  00014	66 39 71 10	 cmp	 WORD PTR [ecx+16], si
  00018	72 07		 jb	 SHORT $L109388

; 474  : 	__y = __x, __x = _S_left(__x);

  0001a	8b c1		 mov	 eax, ecx
  0001c	8b 49 08	 mov	 ecx, DWORD PTR [ecx+8]

; 475  :       else

  0001f	eb 03		 jmp	 SHORT $L109389
$L109388:

; 476  : 	__x = _S_right(__x);

  00021	8b 49 0c	 mov	 ecx, DWORD PTR [ecx+12]
$L109389:

; 471  :     
; 472  :     while (__x != 0) 

  00024	85 c9		 test	 ecx, ecx
  00026	75 ec		 jne	 SHORT $L109386
  00028	5e		 pop	 esi
$L109387:

; 477  :     if (__y == this->_M_header._M_data || _M_key_compare(__k, _S_key(__y)))

  00029	3b c2		 cmp	 eax, edx
  0002b	74 09		 je	 SHORT $L109391
  0002d	66 8b 0f	 mov	 cx, WORD PTR [edi]
  00030	66 3b 48 10	 cmp	 cx, WORD PTR [eax+16]
  00034	73 02		 jae	 SHORT $L109390
$L109391:

; 478  :       __y = this->_M_header._M_data;

  00036	8b c2		 mov	 eax, edx
$L109390:
  00038	5f		 pop	 edi

; 479  :     return __y;
; 480  :   }

  00039	c2 04 00	 ret	 4
??$_M_find@G@?$_Rb_tree@GU?$pair@$$CBGPAVGUILD_INFO@@@_STL@@U?$_Select1st@U?$pair@$$CBGPAVGUILD_INFO@@@_STL@@@2@U?$less@G@2@V?$allocator@U?$pair@$$CBGPAVGUILD_INFO@@@_STL@@@2@@_STL@@ABEPAU?$_Rb_tree_node@U?$pair@$$CBGPAVGUILD_INFO@@@_STL@@@1@ABG@Z ENDP ; _STL::_Rb_tree<unsigned short,_STL::pair<unsigned short const ,GUILD_INFO *>,_STL::_Select1st<_STL::pair<unsigned short const ,GUILD_INFO *> >,_STL::less<unsigned short>,_STL::allocator<_STL::pair<unsigned short const ,GUILD_INFO *> > >::_M_find<unsigned short>
_TEXT	ENDS
PUBLIC	?_M_create_node@?$_Rb_tree@GU?$pair@$$CBGUGUILD_SPRITES@MGuildMarkManager@@@_STL@@U?$_Select1st@U?$pair@$$CBGUGUILD_SPRITES@MGuildMarkManager@@@_STL@@@2@U?$less@G@2@V?$allocator@U?$pair@$$CBGUGUILD_SPRITES@MGuildMarkManager@@@_STL@@@2@@_STL@@IAEPAU?$_Rb_tree_node@U?$pair@$$CBGUGUILD_SPRITES@MGuildMarkManager@@@_STL@@@2@ABU?$pair@$$CBGUGUILD_SPRITES@MGuildMarkManager@@@2@@Z ; _STL::_Rb_tree<unsigned short,_STL::pair<unsigned short const ,MGuildMarkManager::GUILD_SPRITES>,_STL::_Select1st<_STL::pair<unsigned short const ,MGuildMarkManager::GUILD_SPRITES> >,_STL::less<unsigned short>,_STL::allocator<_STL::pair<unsigned short const ,MGuildMarkManager::GUILD_SPRITES> > >::_M_create_node
EXTRN	__CxxThrowException@8:NEAR
; Function compile flags: /Ogsy
;	COMDAT ?_M_create_node@?$_Rb_tree@GU?$pair@$$CBGUGUILD_SPRITES@MGuildMarkManager@@@_STL@@U?$_Select1st@U?$pair@$$CBGUGUILD_SPRITES@MGuildMarkManager@@@_STL@@@2@U?$less@G@2@V?$allocator@U?$pair@$$CBGUGUILD_SPRITES@MGuildMarkManager@@@_STL@@@2@@_STL@@IAEPAU?$_Rb_tree_node@U?$pair@$$CBGUGUILD_SPRITES@MGuildMarkManager@@@_STL@@@2@ABU?$pair@$$CBGUGUILD_SPRITES@MGuildMarkManager@@@2@@Z
_TEXT	SEGMENT
___x$ = 8						; size = 4
?_M_create_node@?$_Rb_tree@GU?$pair@$$CBGUGUILD_SPRITES@MGuildMarkManager@@@_STL@@U?$_Select1st@U?$pair@$$CBGUGUILD_SPRITES@MGuildMarkManager@@@_STL@@@2@U?$less@G@2@V?$allocator@U?$pair@$$CBGUGUILD_SPRITES@MGuildMarkManager@@@_STL@@@2@@_STL@@IAEPAU?$_Rb_tree_node@U?$pair@$$CBGUGUILD_SPRITES@MGuildMarkManager@@@_STL@@@2@ABU?$pair@$$CBGUGUILD_SPRITES@MGuildMarkManager@@@2@@Z PROC NEAR ; _STL::_Rb_tree<unsigned short,_STL::pair<unsigned short const ,MGuildMarkManager::GUILD_SPRITES>,_STL::_Select1st<_STL::pair<unsigned short const ,MGuildMarkManager::GUILD_SPRITES> >,_STL::less<unsigned short>,_STL::allocator<_STL::pair<unsigned short const ,MGuildMarkManager::GUILD_SPRITES> > >::_M_create_node, COMDAT
; _this$ = ecx

; 242  :   {

  00000	56		 push	 esi

; 243  :     _Link_type __tmp = this->_M_header.allocate(1);

  00001	6a 1c		 push	 28			; 0000001cH
  00003	e8 00 00 00 00	 call	 ?allocate@?$__node_alloc@$00$0A@@_STL@@SAPAXI@Z ; _STL::__node_alloc<1,0>::allocate

; 244  :     _STLP_TRY {
; 245  :       _Construct(&__tmp->_M_value_field, __x);

  00008	ff 74 24 0c	 push	 DWORD PTR ___x$[esp+4]
  0000c	8b f0		 mov	 esi, eax
  0000e	8d 46 10	 lea	 eax, DWORD PTR [esi+16]
  00011	50		 push	 eax
  00012	e8 00 00 00 00	 call	 ??$_Construct@U?$pair@$$CBGUGUILD_SPRITES@MGuildMarkManager@@@_STL@@U12@@_STL@@YAXPAU?$pair@$$CBGUGUILD_SPRITES@MGuildMarkManager@@@0@ABU10@@Z ; _STL::_Construct<_STL::pair<unsigned short const ,MGuildMarkManager::GUILD_SPRITES>,_STL::pair<unsigned short const ,MGuildMarkManager::GUILD_SPRITES> >
  00017	83 c4 0c	 add	 esp, 12			; 0000000cH

; 246  :     }
; 247  :     _STLP_UNWIND(this->_M_header.deallocate(__tmp,1));
; 248  :     return __tmp;

  0001a	8b c6		 mov	 eax, esi
  0001c	5e		 pop	 esi

; 249  :   }

  0001d	c2 04 00	 ret	 4
?_M_create_node@?$_Rb_tree@GU?$pair@$$CBGUGUILD_SPRITES@MGuildMarkManager@@@_STL@@U?$_Select1st@U?$pair@$$CBGUGUILD_SPRITES@MGuildMarkManager@@@_STL@@@2@U?$less@G@2@V?$allocator@U?$pair@$$CBGUGUILD_SPRITES@MGuildMarkManager@@@_STL@@@2@@_STL@@IAEPAU?$_Rb_tree_node@U?$pair@$$CBGUGUILD_SPRITES@MGuildMarkManager@@@_STL@@@2@ABU?$pair@$$CBGUGUILD_SPRITES@MGuildMarkManager@@@2@@Z ENDP ; _STL::_Rb_tree<unsigned short,_STL::pair<unsigned short const ,MGuildMarkManager::GUILD_SPRITES>,_STL::_Select1st<_STL::pair<unsigned short const ,MGuildMarkManager::GUILD_SPRITES> >,_STL::less<unsigned short>,_STL::allocator<_STL::pair<unsigned short const ,MGuildMarkManager::GUILD_SPRITES> > >::_M_create_node
_TEXT	ENDS
PUBLIC	?_M_deallocate_block@?$_String_base@DV?$allocator@D@_STL@@@_STL@@QAEXXZ ; _STL::_String_base<char,_STL::allocator<char> >::_M_deallocate_block
; Function compile flags: /Ogsy
; File c:\stlport-4.6.1\stlport\stl\_string.h
;	COMDAT ?_M_deallocate_block@?$_String_base@DV?$allocator@D@_STL@@@_STL@@QAEXXZ
_TEXT	SEGMENT
?_M_deallocate_block@?$_String_base@DV?$allocator@D@_STL@@@_STL@@QAEXXZ PROC NEAR ; _STL::_String_base<char,_STL::allocator<char> >::_M_deallocate_block, COMDAT
; _this$ = ecx

; 124  :     { _M_end_of_storage.deallocate(_M_start, _M_end_of_storage._M_data - _M_start); }

  00000	8b c1		 mov	 eax, ecx
  00002	8d 48 08	 lea	 ecx, DWORD PTR [eax+8]
  00005	8b 00		 mov	 eax, DWORD PTR [eax]
  00007	8b 11		 mov	 edx, DWORD PTR [ecx]
  00009	2b d0		 sub	 edx, eax
  0000b	52		 push	 edx
  0000c	50		 push	 eax
  0000d	e8 00 00 00 00	 call	 ?deallocate@?$allocator@D@_STL@@QAEXPADI@Z ; _STL::allocator<char>::deallocate
  00012	c3		 ret	 0
?_M_deallocate_block@?$_String_base@DV?$allocator@D@_STL@@@_STL@@QAEXXZ ENDP ; _STL::_String_base<char,_STL::allocator<char> >::_M_deallocate_block
_TEXT	ENDS
PUBLIC	?clear@?$map@GUGUILD_SPRITES@MGuildMarkManager@@U?$less@G@_STL@@V?$allocator@U?$pair@$$CBGUGUILD_SPRITES@MGuildMarkManager@@@_STL@@@4@@_STL@@QAEXXZ ; _STL::map<unsigned short,MGuildMarkManager::GUILD_SPRITES,_STL::less<unsigned short>,_STL::allocator<_STL::pair<unsigned short const ,MGuildMarkManager::GUILD_SPRITES> > >::clear
; Function compile flags: /Ogsy
; File c:\stlport-4.6.1\stlport\stl\_map.h
;	COMDAT ?clear@?$map@GUGUILD_SPRITES@MGuildMarkManager@@U?$less@G@_STL@@V?$allocator@U?$pair@$$CBGUGUILD_SPRITES@MGuildMarkManager@@@_STL@@@4@@_STL@@QAEXXZ
_TEXT	SEGMENT
?clear@?$map@GUGUILD_SPRITES@MGuildMarkManager@@U?$less@G@_STL@@V?$allocator@U?$pair@$$CBGUGUILD_SPRITES@MGuildMarkManager@@@_STL@@@4@@_STL@@QAEXXZ PROC NEAR ; _STL::map<unsigned short,MGuildMarkManager::GUILD_SPRITES,_STL::less<unsigned short>,_STL::allocator<_STL::pair<unsigned short const ,MGuildMarkManager::GUILD_SPRITES> > >::clear, COMDAT
; _this$ = ecx

; 191  :   void clear() { _M_t.clear(); }

  00000	e9 00 00 00 00	 jmp	 ?clear@?$_Rb_tree@GU?$pair@$$CBGUGUILD_SPRITES@MGuildMarkManager@@@_STL@@U?$_Select1st@U?$pair@$$CBGUGUILD_SPRITES@MGuildMarkManager@@@_STL@@@2@U?$less@G@2@V?$allocator@U?$pair@$$CBGUGUILD_SPRITES@MGuildMarkManager@@@_STL@@@2@@_STL@@QAEXXZ ; _STL::_Rb_tree<unsigned short,_STL::pair<unsigned short const ,MGuildMarkManager::GUILD_SPRITES>,_STL::_Select1st<_STL::pair<unsigned short const ,MGuildMarkManager::GUILD_SPRITES> >,_STL::less<unsigned short>,_STL::allocator<_STL::pair<unsigned short const ,MGuildMarkManager::GUILD_SPRITES> > >::clear
?clear@?$map@GUGUILD_SPRITES@MGuildMarkManager@@U?$less@G@_STL@@V?$allocator@U?$pair@$$CBGUGUILD_SPRITES@MGuildMarkManager@@@_STL@@@4@@_STL@@QAEXXZ ENDP ; _STL::map<unsigned short,MGuildMarkManager::GUILD_SPRITES,_STL::less<unsigned short>,_STL::allocator<_STL::pair<unsigned short const ,MGuildMarkManager::GUILD_SPRITES> > >::clear
_TEXT	ENDS
PUBLIC	?find@?$map@GUGUILD_SPRITES@MGuildMarkManager@@U?$less@G@_STL@@V?$allocator@U?$pair@$$CBGUGUILD_SPRITES@MGuildMarkManager@@@_STL@@@4@@_STL@@QAE?AU?$_Rb_tree_iterator@U?$pair@$$CBGUGUILD_SPRITES@MGuildMarkManager@@@_STL@@U?$_Nonconst_traits@U?$pair@$$CBGUGUILD_SPRITES@MGuildMarkManager@@@_STL@@@2@@2@ABG@Z ; _STL::map<unsigned short,MGuildMarkManager::GUILD_SPRITES,_STL::less<unsigned short>,_STL::allocator<_STL::pair<unsigned short const ,MGuildMarkManager::GUILD_SPRITES> > >::find
; Function compile flags: /Ogsy
;	COMDAT ?find@?$map@GUGUILD_SPRITES@MGuildMarkManager@@U?$less@G@_STL@@V?$allocator@U?$pair@$$CBGUGUILD_SPRITES@MGuildMarkManager@@@_STL@@@4@@_STL@@QAE?AU?$_Rb_tree_iterator@U?$pair@$$CBGUGUILD_SPRITES@MGuildMarkManager@@@_STL@@U?$_Nonconst_traits@U?$pair@$$CBGUGUILD_SPRITES@MGuildMarkManager@@@_STL@@@2@@2@ABG@Z
_TEXT	SEGMENT
___$ReturnUdt$ = 8					; size = 4
___x$ = 12						; size = 4
?find@?$map@GUGUILD_SPRITES@MGuildMarkManager@@U?$less@G@_STL@@V?$allocator@U?$pair@$$CBGUGUILD_SPRITES@MGuildMarkManager@@@_STL@@@4@@_STL@@QAE?AU?$_Rb_tree_iterator@U?$pair@$$CBGUGUILD_SPRITES@MGuildMarkManager@@@_STL@@U?$_Nonconst_traits@U?$pair@$$CBGUGUILD_SPRITES@MGuildMarkManager@@@_STL@@@2@@2@ABG@Z PROC NEAR ; _STL::map<unsigned short,MGuildMarkManager::GUILD_SPRITES,_STL::less<unsigned short>,_STL::allocator<_STL::pair<unsigned short const ,MGuildMarkManager::GUILD_SPRITES> > >::find, COMDAT
; _this$ = ecx

; 195  :   iterator find(const key_type& __x) { return _M_t.find(__x); }

  00000	ff 74 24 08	 push	 DWORD PTR ___x$[esp-4]
  00004	e8 00 00 00 00	 call	 ??$_M_find@G@?$_Rb_tree@GU?$pair@$$CBGUGUILD_SPRITES@MGuildMarkManager@@@_STL@@U?$_Select1st@U?$pair@$$CBGUGUILD_SPRITES@MGuildMarkManager@@@_STL@@@2@U?$less@G@2@V?$allocator@U?$pair@$$CBGUGUILD_SPRITES@MGuildMarkManager@@@_STL@@@2@@_STL@@ABEPAU?$_Rb_tree_node@U?$pair@$$CBGUGUILD_SPRITES@MGuildMarkManager@@@_STL@@@1@ABG@Z ; _STL::_Rb_tree<unsigned short,_STL::pair<unsigned short const ,MGuildMarkManager::GUILD_SPRITES>,_STL::_Select1st<_STL::pair<unsigned short const ,MGuildMarkManager::GUILD_SPRITES> >,_STL::less<unsigned short>,_STL::allocator<_STL::pair<unsigned short const ,MGuildMarkManager::GUILD_SPRITES> > >::_M_find<unsigned short>
  00009	8b 4c 24 04	 mov	 ecx, DWORD PTR ___$ReturnUdt$[esp-4]
  0000d	89 01		 mov	 DWORD PTR [ecx], eax
  0000f	8b c1		 mov	 eax, ecx
  00011	c2 08 00	 ret	 8
?find@?$map@GUGUILD_SPRITES@MGuildMarkManager@@U?$less@G@_STL@@V?$allocator@U?$pair@$$CBGUGUILD_SPRITES@MGuildMarkManager@@@_STL@@@4@@_STL@@QAE?AU?$_Rb_tree_iterator@U?$pair@$$CBGUGUILD_SPRITES@MGuildMarkManager@@@_STL@@U?$_Nonconst_traits@U?$pair@$$CBGUGUILD_SPRITES@MGuildMarkManager@@@_STL@@@2@@2@ABG@Z ENDP ; _STL::map<unsigned short,MGuildMarkManager::GUILD_SPRITES,_STL::less<unsigned short>,_STL::allocator<_STL::pair<unsigned short const ,MGuildMarkManager::GUILD_SPRITES> > >::find
_TEXT	ENDS
PUBLIC	?find@?$map@GUGUILD_SPRITES@MGuildMarkManager@@U?$less@G@_STL@@V?$allocator@U?$pair@$$CBGUGUILD_SPRITES@MGuildMarkManager@@@_STL@@@4@@_STL@@QBE?AU?$_Rb_tree_iterator@U?$pair@$$CBGUGUILD_SPRITES@MGuildMarkManager@@@_STL@@U?$_Const_traits@U?$pair@$$CBGUGUILD_SPRITES@MGuildMarkManager@@@_STL@@@2@@2@ABG@Z ; _STL::map<unsigned short,MGuildMarkManager::GUILD_SPRITES,_STL::less<unsigned short>,_STL::allocator<_STL::pair<unsigned short const ,MGuildMarkManager::GUILD_SPRITES> > >::find
; Function compile flags: /Ogsy
;	COMDAT ?find@?$map@GUGUILD_SPRITES@MGuildMarkManager@@U?$less@G@_STL@@V?$allocator@U?$pair@$$CBGUGUILD_SPRITES@MGuildMarkManager@@@_STL@@@4@@_STL@@QBE?AU?$_Rb_tree_iterator@U?$pair@$$CBGUGUILD_SPRITES@MGuildMarkManager@@@_STL@@U?$_Const_traits@U?$pair@$$CBGUGUILD_SPRITES@MGuildMarkManager@@@_STL@@@2@@2@ABG@Z
_TEXT	SEGMENT
___$ReturnUdt$ = 8					; size = 4
___x$ = 12						; size = 4
?find@?$map@GUGUILD_SPRITES@MGuildMarkManager@@U?$less@G@_STL@@V?$allocator@U?$pair@$$CBGUGUILD_SPRITES@MGuildMarkManager@@@_STL@@@4@@_STL@@QBE?AU?$_Rb_tree_iterator@U?$pair@$$CBGUGUILD_SPRITES@MGuildMarkManager@@@_STL@@U?$_Const_traits@U?$pair@$$CBGUGUILD_SPRITES@MGuildMarkManager@@@_STL@@@2@@2@ABG@Z PROC NEAR ; _STL::map<unsigned short,MGuildMarkManager::GUILD_SPRITES,_STL::less<unsigned short>,_STL::allocator<_STL::pair<unsigned short const ,MGuildMarkManager::GUILD_SPRITES> > >::find, COMDAT
; _this$ = ecx

; 196  :   const_iterator find(const key_type& __x) const { return _M_t.find(__x); }

  00000	ff 74 24 08	 push	 DWORD PTR ___x$[esp-4]
  00004	e8 00 00 00 00	 call	 ??$_M_find@G@?$_Rb_tree@GU?$pair@$$CBGUGUILD_SPRITES@MGuildMarkManager@@@_STL@@U?$_Select1st@U?$pair@$$CBGUGUILD_SPRITES@MGuildMarkManager@@@_STL@@@2@U?$less@G@2@V?$allocator@U?$pair@$$CBGUGUILD_SPRITES@MGuildMarkManager@@@_STL@@@2@@_STL@@ABEPAU?$_Rb_tree_node@U?$pair@$$CBGUGUILD_SPRITES@MGuildMarkManager@@@_STL@@@1@ABG@Z ; _STL::_Rb_tree<unsigned short,_STL::pair<unsigned short const ,MGuildMarkManager::GUILD_SPRITES>,_STL::_Select1st<_STL::pair<unsigned short const ,MGuildMarkManager::GUILD_SPRITES> >,_STL::less<unsigned short>,_STL::allocator<_STL::pair<unsigned short const ,MGuildMarkManager::GUILD_SPRITES> > >::_M_find<unsigned short>
  00009	8b 4c 24 04	 mov	 ecx, DWORD PTR ___$ReturnUdt$[esp-4]
  0000d	89 01		 mov	 DWORD PTR [ecx], eax
  0000f	8b c1		 mov	 eax, ecx
  00011	c2 08 00	 ret	 8
?find@?$map@GUGUILD_SPRITES@MGuildMarkManager@@U?$less@G@_STL@@V?$allocator@U?$pair@$$CBGUGUILD_SPRITES@MGuildMarkManager@@@_STL@@@4@@_STL@@QBE?AU?$_Rb_tree_iterator@U?$pair@$$CBGUGUILD_SPRITES@MGuildMarkManager@@@_STL@@U?$_Const_traits@U?$pair@$$CBGUGUILD_SPRITES@MGuildMarkManager@@@_STL@@@2@@2@ABG@Z ENDP ; _STL::map<unsigned short,MGuildMarkManager::GUILD_SPRITES,_STL::less<unsigned short>,_STL::allocator<_STL::pair<unsigned short const ,MGuildMarkManager::GUILD_SPRITES> > >::find
_TEXT	ENDS
PUBLIC	??1?$_Rb_tree@GU?$pair@$$CBGUGUILD_SPRITES@MGuildMarkManager@@@_STL@@U?$_Select1st@U?$pair@$$CBGUGUILD_SPRITES@MGuildMarkManager@@@_STL@@@2@U?$less@G@2@V?$allocator@U?$pair@$$CBGUGUILD_SPRITES@MGuildMarkManager@@@_STL@@@2@@_STL@@QAE@XZ ; _STL::_Rb_tree<unsigned short,_STL::pair<unsigned short const ,MGuildMarkManager::GUILD_SPRITES>,_STL::_Select1st<_STL::pair<unsigned short const ,MGuildMarkManager::GUILD_SPRITES> >,_STL::less<unsigned short>,_STL::allocator<_STL::pair<unsigned short const ,MGuildMarkManager::GUILD_SPRITES> > >::~_Rb_tree<unsigned short,_STL::pair<unsigned short const ,MGuildMarkManager::GUILD_SPRITES>,_STL::_Select1st<_STL::pair<unsigned short const ,MGuildMarkManager::GUILD_SPRITES> >,_STL::less<unsigned short>,_STL::allocator<_STL::pair<unsigned short const ,MGuildMarkManager::GUILD_SPRITES> > >
;	COMDAT xdata$x
; File c:\stlport-4.6.1\stlport\stl\_alloc.h
xdata$x	SEGMENT
$T111732 DD	0ffffffffH
	DD	FLAT:$L111713
$T111730 DD	019930520H
	DD	01H
	DD	FLAT:$T111732
	DD	2 DUP(00H)
	DD	2 DUP(00H)
; Function compile flags: /Ogsy
; File c:\stlport-4.6.1\stlport\stl\_tree.h
xdata$x	ENDS
;	COMDAT ??1?$_Rb_tree@GU?$pair@$$CBGUGUILD_SPRITES@MGuildMarkManager@@@_STL@@U?$_Select1st@U?$pair@$$CBGUGUILD_SPRITES@MGuildMarkManager@@@_STL@@@2@U?$less@G@2@V?$allocator@U?$pair@$$CBGUGUILD_SPRITES@MGuildMarkManager@@@_STL@@@2@@_STL@@QAE@XZ
_TEXT	SEGMENT
_this$ = -16						; size = 4
__$EHRec$ = -12						; size = 12
??1?$_Rb_tree@GU?$pair@$$CBGUGUILD_SPRITES@MGuildMarkManager@@@_STL@@U?$_Select1st@U?$pair@$$CBGUGUILD_SPRITES@MGuildMarkManager@@@_STL@@@2@U?$less@G@2@V?$allocator@U?$pair@$$CBGUGUILD_SPRITES@MGuildMarkManager@@@_STL@@@2@@_STL@@QAE@XZ PROC NEAR ; _STL::_Rb_tree<unsigned short,_STL::pair<unsigned short const ,MGuildMarkManager::GUILD_SPRITES>,_STL::_Select1st<_STL::pair<unsigned short const ,MGuildMarkManager::GUILD_SPRITES> >,_STL::less<unsigned short>,_STL::allocator<_STL::pair<unsigned short const ,MGuildMarkManager::GUILD_SPRITES> > >::~_Rb_tree<unsigned short,_STL::pair<unsigned short const ,MGuildMarkManager::GUILD_SPRITES>,_STL::_Select1st<_STL::pair<unsigned short const ,MGuildMarkManager::GUILD_SPRITES> >,_STL::less<unsigned short>,_STL::allocator<_STL::pair<unsigned short const ,MGuildMarkManager::GUILD_SPRITES> > >, COMDAT
; _this$ = ecx

; 341  :   ~_Rb_tree() { clear(); }

  00000	b8 00 00 00 00	 mov	 eax, __ehhandler$??1?$_Rb_tree@GU?$pair@$$CBGUGUILD_SPRITES@MGuildMarkManager@@@_STL@@U?$_Select1st@U?$pair@$$CBGUGUILD_SPRITES@MGuildMarkManager@@@_STL@@@2@U?$less@G@2@V?$allocator@U?$pair@$$CBGUGUILD_SPRITES@MGuildMarkManager@@@_STL@@@2@@_STL@@QAE@XZ
  00005	e8 00 00 00 00	 call	 __EH_prolog
  0000a	51		 push	 ecx
  0000b	56		 push	 esi
  0000c	8b f1		 mov	 esi, ecx
  0000e	89 75 f0	 mov	 DWORD PTR _this$[ebp], esi
  00011	83 65 fc 00	 and	 DWORD PTR __$EHRec$[ebp+8], 0
  00015	e8 00 00 00 00	 call	 ?clear@?$_Rb_tree@GU?$pair@$$CBGUGUILD_SPRITES@MGuildMarkManager@@@_STL@@U?$_Select1st@U?$pair@$$CBGUGUILD_SPRITES@MGuildMarkManager@@@_STL@@@2@U?$less@G@2@V?$allocator@U?$pair@$$CBGUGUILD_SPRITES@MGuildMarkManager@@@_STL@@@2@@_STL@@QAEXXZ ; _STL::_Rb_tree<unsigned short,_STL::pair<unsigned short const ,MGuildMarkManager::GUILD_SPRITES>,_STL::_Select1st<_STL::pair<unsigned short const ,MGuildMarkManager::GUILD_SPRITES> >,_STL::less<unsigned short>,_STL::allocator<_STL::pair<unsigned short const ,MGuildMarkManager::GUILD_SPRITES> > >::clear
  0001a	83 4d fc ff	 or	 DWORD PTR __$EHRec$[ebp+8], -1
  0001e	6a 01		 push	 1
  00020	ff 36		 push	 DWORD PTR [esi]
  00022	8b ce		 mov	 ecx, esi
  00024	e8 00 00 00 00	 call	 ?deallocate@?$allocator@U?$_Rb_tree_node@U?$pair@$$CBGUGUILD_SPRITES@MGuildMarkManager@@@_STL@@@_STL@@@_STL@@QAEXPAU?$_Rb_tree_node@U?$pair@$$CBGUGUILD_SPRITES@MGuildMarkManager@@@_STL@@@2@I@Z ; _STL::allocator<_STL::_Rb_tree_node<_STL::pair<unsigned short const ,MGuildMarkManager::GUILD_SPRITES> > >::deallocate
  00029	8b 4d f4	 mov	 ecx, DWORD PTR __$EHRec$[ebp]
  0002c	5e		 pop	 esi
  0002d	64 89 0d 00 00
	00 00		 mov	 DWORD PTR fs:__except_list, ecx
  00034	c9		 leave
  00035	c3		 ret	 0
_TEXT	ENDS
;	COMDAT text$x
text$x	SEGMENT
$L111713:
  00000	8b 4d f0	 mov	 ecx, DWORD PTR _this$[ebp]
  00003	e9 00 00 00 00	 jmp	 ??1?$_Rb_tree_base@U?$pair@$$CBGUGUILD_SPRITES@MGuildMarkManager@@@_STL@@V?$allocator@U?$pair@$$CBGUGUILD_SPRITES@MGuildMarkManager@@@_STL@@@2@@_STL@@QAE@XZ ; _STL::_Rb_tree_base<_STL::pair<unsigned short const ,MGuildMarkManager::GUILD_SPRITES>,_STL::allocator<_STL::pair<unsigned short const ,MGuildMarkManager::GUILD_SPRITES> > >::~_Rb_tree_base<_STL::pair<unsigned short const ,MGuildMarkManager::GUILD_SPRITES>,_STL::allocator<_STL::pair<unsigned short const ,MGuildMarkManager::GUILD_SPRITES> > >
__ehhandler$??1?$_Rb_tree@GU?$pair@$$CBGUGUILD_SPRITES@MGuildMarkManager@@@_STL@@U?$_Select1st@U?$pair@$$CBGUGUILD_SPRITES@MGuildMarkManager@@@_STL@@@2@U?$less@G@2@V?$allocator@U?$pair@$$CBGUGUILD_SPRITES@MGuildMarkManager@@@_STL@@@2@@_STL@@QAE@XZ:
  00008	b8 00 00 00 00	 mov	 eax, OFFSET FLAT:$T111730
  0000d	e9 00 00 00 00	 jmp	 ___CxxFrameHandler
text$x	ENDS
??1?$_Rb_tree@GU?$pair@$$CBGUGUILD_SPRITES@MGuildMarkManager@@@_STL@@U?$_Select1st@U?$pair@$$CBGUGUILD_SPRITES@MGuildMarkManager@@@_STL@@@2@U?$less@G@2@V?$allocator@U?$pair@$$CBGUGUILD_SPRITES@MGuildMarkManager@@@_STL@@@2@@_STL@@QAE@XZ ENDP ; _STL::_Rb_tree<unsigned short,_STL::pair<unsigned short const ,MGuildMarkManager::GUILD_SPRITES>,_STL::_Select1st<_STL::pair<unsigned short const ,MGuildMarkManager::GUILD_SPRITES> >,_STL::less<unsigned short>,_STL::allocator<_STL::pair<unsigned short const ,MGuildMarkManager::GUILD_SPRITES> > >::~_Rb_tree<unsigned short,_STL::pair<unsigned short const ,MGuildMarkManager::GUILD_SPRITES>,_STL::_Select1st<_STL::pair<unsigned short const ,MGuildMarkManager::GUILD_SPRITES> >,_STL::less<unsigned short>,_STL::allocator<_STL::pair<unsigned short const ,MGuildMarkManager::GUILD_SPRITES> > >
PUBLIC	??0?$_Rb_tree@GU?$pair@$$CBGUGUILD_SPRITES@MGuildMarkManager@@@_STL@@U?$_Select1st@U?$pair@$$CBGUGUILD_SPRITES@MGuildMarkManager@@@_STL@@@2@U?$less@G@2@V?$allocator@U?$pair@$$CBGUGUILD_SPRITES@MGuildMarkManager@@@_STL@@@2@@_STL@@QAE@ABU?$less@G@1@ABV?$allocator@U?$pair@$$CBGUGUILD_SPRITES@MGuildMarkManager@@@_STL@@@1@@Z ; _STL::_Rb_tree<unsigned short,_STL::pair<unsigned short const ,MGuildMarkManager::GUILD_SPRITES>,_STL::_Select1st<_STL::pair<unsigned short const ,MGuildMarkManager::GUILD_SPRITES> >,_STL::less<unsigned short>,_STL::allocator<_STL::pair<unsigned short const ,MGuildMarkManager::GUILD_SPRITES> > >::_Rb_tree<unsigned short,_STL::pair<unsigned short const ,MGuildMarkManager::GUILD_SPRITES>,_STL::_Select1st<_STL::pair<unsigned short const ,MGuildMarkManager::GUILD_SPRITES> >,_STL::less<unsigned short>,_STL::allocator<_STL::pair<unsigned short const ,MGuildMarkManager::GUILD_SPRITES> > >
; Function compile flags: /Ogsy
;	COMDAT ??0?$_Rb_tree@GU?$pair@$$CBGUGUILD_SPRITES@MGuildMarkManager@@@_STL@@U?$_Select1st@U?$pair@$$CBGUGUILD_SPRITES@MGuildMarkManager@@@_STL@@@2@U?$less@G@2@V?$allocator@U?$pair@$$CBGUGUILD_SPRITES@MGuildMarkManager@@@_STL@@@2@@_STL@@QAE@ABU?$less@G@1@ABV?$allocator@U?$pair@$$CBGUGUILD_SPRITES@MGuildMarkManager@@@_STL@@@1@@Z
_TEXT	SEGMENT
___comp$ = 8						; size = 4
___a$ = 12						; size = 4
??0?$_Rb_tree@GU?$pair@$$CBGUGUILD_SPRITES@MGuildMarkManager@@@_STL@@U?$_Select1st@U?$pair@$$CBGUGUILD_SPRITES@MGuildMarkManager@@@_STL@@@2@U?$less@G@2@V?$allocator@U?$pair@$$CBGUGUILD_SPRITES@MGuildMarkManager@@@_STL@@@2@@_STL@@QAE@ABU?$less@G@1@ABV?$allocator@U?$pair@$$CBGUGUILD_SPRITES@MGuildMarkManager@@@_STL@@@1@@Z PROC NEAR ; _STL::_Rb_tree<unsigned short,_STL::pair<unsigned short const ,MGuildMarkManager::GUILD_SPRITES>,_STL::_Select1st<_STL::pair<unsigned short const ,MGuildMarkManager::GUILD_SPRITES> >,_STL::less<unsigned short>,_STL::allocator<_STL::pair<unsigned short const ,MGuildMarkManager::GUILD_SPRITES> > >::_Rb_tree<unsigned short,_STL::pair<unsigned short const ,MGuildMarkManager::GUILD_SPRITES>,_STL::_Select1st<_STL::pair<unsigned short const ,MGuildMarkManager::GUILD_SPRITES> >,_STL::less<unsigned short>,_STL::allocator<_STL::pair<unsigned short const ,MGuildMarkManager::GUILD_SPRITES> > >, COMDAT
; _this$ = ecx

; 325  :     { _M_empty_initialize(); }

  00000	56		 push	 esi
  00001	ff 74 24 0c	 push	 DWORD PTR ___a$[esp]
  00005	8b f1		 mov	 esi, ecx
  00007	e8 00 00 00 00	 call	 ??0?$_Rb_tree_base@U?$pair@$$CBGUGUILD_SPRITES@MGuildMarkManager@@@_STL@@V?$allocator@U?$pair@$$CBGUGUILD_SPRITES@MGuildMarkManager@@@_STL@@@2@@_STL@@QAE@ABV?$allocator@U?$pair@$$CBGUGUILD_SPRITES@MGuildMarkManager@@@_STL@@@1@@Z ; _STL::_Rb_tree_base<_STL::pair<unsigned short const ,MGuildMarkManager::GUILD_SPRITES>,_STL::allocator<_STL::pair<unsigned short const ,MGuildMarkManager::GUILD_SPRITES> > >::_Rb_tree_base<_STL::pair<unsigned short const ,MGuildMarkManager::GUILD_SPRITES>,_STL::allocator<_STL::pair<unsigned short const ,MGuildMarkManager::GUILD_SPRITES> > >
  0000c	8b 0e		 mov	 ecx, DWORD PTR [esi]
  0000e	33 c0		 xor	 eax, eax
  00010	89 46 04	 mov	 DWORD PTR [esi+4], eax
  00013	88 01		 mov	 BYTE PTR [ecx], al
  00015	8b 0e		 mov	 ecx, DWORD PTR [esi]
  00017	89 41 04	 mov	 DWORD PTR [ecx+4], eax
  0001a	8b 06		 mov	 eax, DWORD PTR [esi]
  0001c	89 40 08	 mov	 DWORD PTR [eax+8], eax
  0001f	8b 06		 mov	 eax, DWORD PTR [esi]
  00021	89 40 0c	 mov	 DWORD PTR [eax+12], eax
  00024	8b c6		 mov	 eax, esi
  00026	5e		 pop	 esi
  00027	c2 08 00	 ret	 8
??0?$_Rb_tree@GU?$pair@$$CBGUGUILD_SPRITES@MGuildMarkManager@@@_STL@@U?$_Select1st@U?$pair@$$CBGUGUILD_SPRITES@MGuildMarkManager@@@_STL@@@2@U?$less@G@2@V?$allocator@U?$pair@$$CBGUGUILD_SPRITES@MGuildMarkManager@@@_STL@@@2@@_STL@@QAE@ABU?$less@G@1@ABV?$allocator@U?$pair@$$CBGUGUILD_SPRITES@MGuildMarkManager@@@_STL@@@1@@Z ENDP ; _STL::_Rb_tree<unsigned short,_STL::pair<unsigned short const ,MGuildMarkManager::GUILD_SPRITES>,_STL::_Select1st<_STL::pair<unsigned short const ,MGuildMarkManager::GUILD_SPRITES> >,_STL::less<unsigned short>,_STL::allocator<_STL::pair<unsigned short const ,MGuildMarkManager::GUILD_SPRITES> > >::_Rb_tree<unsigned short,_STL::pair<unsigned short const ,MGuildMarkManager::GUILD_SPRITES>,_STL::_Select1st<_STL::pair<unsigned short const ,MGuildMarkManager::GUILD_SPRITES> >,_STL::less<unsigned short>,_STL::allocator<_STL::pair<unsigned short const ,MGuildMarkManager::GUILD_SPRITES> > >
_TEXT	ENDS
PUBLIC	?lower_bound@?$_Rb_tree@GU?$pair@$$CBGUGUILD_SPRITES@MGuildMarkManager@@@_STL@@U?$_Select1st@U?$pair@$$CBGUGUILD_SPRITES@MGuildMarkManager@@@_STL@@@2@U?$less@G@2@V?$allocator@U?$pair@$$CBGUGUILD_SPRITES@MGuildMarkManager@@@_STL@@@2@@_STL@@QAE?AU?$_Rb_tree_iterator@U?$pair@$$CBGUGUILD_SPRITES@MGuildMarkManager@@@_STL@@U?$_Nonconst_traits@U?$pair@$$CBGUGUILD_SPRITES@MGuildMarkManager@@@_STL@@@2@@2@ABG@Z ; _STL::_Rb_tree<unsigned short,_STL::pair<unsigned short const ,MGuildMarkManager::GUILD_SPRITES>,_STL::_Select1st<_STL::pair<unsigned short const ,MGuildMarkManager::GUILD_SPRITES> >,_STL::less<unsigned short>,_STL::allocator<_STL::pair<unsigned short const ,MGuildMarkManager::GUILD_SPRITES> > >::lower_bound
; Function compile flags: /Ogsy
;	COMDAT ?lower_bound@?$_Rb_tree@GU?$pair@$$CBGUGUILD_SPRITES@MGuildMarkManager@@@_STL@@U?$_Select1st@U?$pair@$$CBGUGUILD_SPRITES@MGuildMarkManager@@@_STL@@@2@U?$less@G@2@V?$allocator@U?$pair@$$CBGUGUILD_SPRITES@MGuildMarkManager@@@_STL@@@2@@_STL@@QAE?AU?$_Rb_tree_iterator@U?$pair@$$CBGUGUILD_SPRITES@MGuildMarkManager@@@_STL@@U?$_Nonconst_traits@U?$pair@$$CBGUGUILD_SPRITES@MGuildMarkManager@@@_STL@@@2@@2@ABG@Z
_TEXT	SEGMENT
___$ReturnUdt$ = 8					; size = 4
___x$ = 12						; size = 4
?lower_bound@?$_Rb_tree@GU?$pair@$$CBGUGUILD_SPRITES@MGuildMarkManager@@@_STL@@U?$_Select1st@U?$pair@$$CBGUGUILD_SPRITES@MGuildMarkManager@@@_STL@@@2@U?$less@G@2@V?$allocator@U?$pair@$$CBGUGUILD_SPRITES@MGuildMarkManager@@@_STL@@@2@@_STL@@QAE?AU?$_Rb_tree_iterator@U?$pair@$$CBGUGUILD_SPRITES@MGuildMarkManager@@@_STL@@U?$_Nonconst_traits@U?$pair@$$CBGUGUILD_SPRITES@MGuildMarkManager@@@_STL@@@2@@2@ABG@Z PROC NEAR ; _STL::_Rb_tree<unsigned short,_STL::pair<unsigned short const ,MGuildMarkManager::GUILD_SPRITES>,_STL::_Select1st<_STL::pair<unsigned short const ,MGuildMarkManager::GUILD_SPRITES> >,_STL::less<unsigned short>,_STL::allocator<_STL::pair<unsigned short const ,MGuildMarkManager::GUILD_SPRITES> > >::lower_bound, COMDAT
; _this$ = ecx

; 510  :   iterator lower_bound(const key_type& __x) { return iterator(_M_lower_bound(__x)); }

  00000	ff 74 24 08	 push	 DWORD PTR ___x$[esp-4]
  00004	e8 00 00 00 00	 call	 ?_M_lower_bound@?$_Rb_tree@GU?$pair@$$CBGUGUILD_SPRITES@MGuildMarkManager@@@_STL@@U?$_Select1st@U?$pair@$$CBGUGUILD_SPRITES@MGuildMarkManager@@@_STL@@@2@U?$less@G@2@V?$allocator@U?$pair@$$CBGUGUILD_SPRITES@MGuildMarkManager@@@_STL@@@2@@_STL@@ABEPAU?$_Rb_tree_node@U?$pair@$$CBGUGUILD_SPRITES@MGuildMarkManager@@@_STL@@@2@ABG@Z ; _STL::_Rb_tree<unsigned short,_STL::pair<unsigned short const ,MGuildMarkManager::GUILD_SPRITES>,_STL::_Select1st<_STL::pair<unsigned short const ,MGuildMarkManager::GUILD_SPRITES> >,_STL::less<unsigned short>,_STL::allocator<_STL::pair<unsigned short const ,MGuildMarkManager::GUILD_SPRITES> > >::_M_lower_bound
  00009	8b 4c 24 04	 mov	 ecx, DWORD PTR ___$ReturnUdt$[esp-4]
  0000d	89 01		 mov	 DWORD PTR [ecx], eax
  0000f	8b c1		 mov	 eax, ecx
  00011	c2 08 00	 ret	 8
?lower_bound@?$_Rb_tree@GU?$pair@$$CBGUGUILD_SPRITES@MGuildMarkManager@@@_STL@@U?$_Select1st@U?$pair@$$CBGUGUILD_SPRITES@MGuildMarkManager@@@_STL@@@2@U?$less@G@2@V?$allocator@U?$pair@$$CBGUGUILD_SPRITES@MGuildMarkManager@@@_STL@@@2@@_STL@@QAE?AU?$_Rb_tree_iterator@U?$pair@$$CBGUGUILD_SPRITES@MGuildMarkManager@@@_STL@@U?$_Nonconst_traits@U?$pair@$$CBGUGUILD_SPRITES@MGuildMarkManager@@@_STL@@@2@@2@ABG@Z ENDP ; _STL::_Rb_tree<unsigned short,_STL::pair<unsigned short const ,MGuildMarkManager::GUILD_SPRITES>,_STL::_Select1st<_STL::pair<unsigned short const ,MGuildMarkManager::GUILD_SPRITES> >,_STL::less<unsigned short>,_STL::allocator<_STL::pair<unsigned short const ,MGuildMarkManager::GUILD_SPRITES> > >::lower_bound
_TEXT	ENDS
PUBLIC	??$find@G@?$_Rb_tree@GU?$pair@$$CBGPAVGUILD_INFO@@@_STL@@U?$_Select1st@U?$pair@$$CBGPAVGUILD_INFO@@@_STL@@@2@U?$less@G@2@V?$allocator@U?$pair@$$CBGPAVGUILD_INFO@@@_STL@@@2@@_STL@@QAE?AU?$_Rb_tree_iterator@U?$pair@$$CBGPAVGUILD_INFO@@@_STL@@U?$_Nonconst_traits@U?$pair@$$CBGPAVGUILD_INFO@@@_STL@@@2@@1@ABG@Z ; _STL::_Rb_tree<unsigned short,_STL::pair<unsigned short const ,GUILD_INFO *>,_STL::_Select1st<_STL::pair<unsigned short const ,GUILD_INFO *> >,_STL::less<unsigned short>,_STL::allocator<_STL::pair<unsigned short const ,GUILD_INFO *> > >::find<unsigned short>
; Function compile flags: /Ogsy
;	COMDAT ??$find@G@?$_Rb_tree@GU?$pair@$$CBGPAVGUILD_INFO@@@_STL@@U?$_Select1st@U?$pair@$$CBGPAVGUILD_INFO@@@_STL@@@2@U?$less@G@2@V?$allocator@U?$pair@$$CBGPAVGUILD_INFO@@@_STL@@@2@@_STL@@QAE?AU?$_Rb_tree_iterator@U?$pair@$$CBGPAVGUILD_INFO@@@_STL@@U?$_Nonconst_traits@U?$pair@$$CBGPAVGUILD_INFO@@@_STL@@@2@@1@ABG@Z
_TEXT	SEGMENT
___$ReturnUdt$ = 8					; size = 4
___x$ = 12						; size = 4
??$find@G@?$_Rb_tree@GU?$pair@$$CBGPAVGUILD_INFO@@@_STL@@U?$_Select1st@U?$pair@$$CBGPAVGUILD_INFO@@@_STL@@@2@U?$less@G@2@V?$allocator@U?$pair@$$CBGPAVGUILD_INFO@@@_STL@@@2@@_STL@@QAE?AU?$_Rb_tree_iterator@U?$pair@$$CBGPAVGUILD_INFO@@@_STL@@U?$_Nonconst_traits@U?$pair@$$CBGPAVGUILD_INFO@@@_STL@@@2@@1@ABG@Z PROC NEAR ; _STL::_Rb_tree<unsigned short,_STL::pair<unsigned short const ,GUILD_INFO *>,_STL::_Select1st<_STL::pair<unsigned short const ,GUILD_INFO *> >,_STL::less<unsigned short>,_STL::allocator<_STL::pair<unsigned short const ,GUILD_INFO *> > >::find<unsigned short>, COMDAT
; _this$ = ecx

; 458  :   template <class _KT> iterator find(const _KT& __x) { return iterator(_M_find(__x)); }

  00000	ff 74 24 08	 push	 DWORD PTR ___x$[esp-4]
  00004	e8 00 00 00 00	 call	 ??$_M_find@G@?$_Rb_tree@GU?$pair@$$CBGPAVGUILD_INFO@@@_STL@@U?$_Select1st@U?$pair@$$CBGPAVGUILD_INFO@@@_STL@@@2@U?$less@G@2@V?$allocator@U?$pair@$$CBGPAVGUILD_INFO@@@_STL@@@2@@_STL@@ABEPAU?$_Rb_tree_node@U?$pair@$$CBGPAVGUILD_INFO@@@_STL@@@1@ABG@Z ; _STL::_Rb_tree<unsigned short,_STL::pair<unsigned short const ,GUILD_INFO *>,_STL::_Select1st<_STL::pair<unsigned short const ,GUILD_INFO *> >,_STL::less<unsigned short>,_STL::allocator<_STL::pair<unsigned short const ,GUILD_INFO *> > >::_M_find<unsigned short>
  00009	8b 4c 24 04	 mov	 ecx, DWORD PTR ___$ReturnUdt$[esp-4]
  0000d	89 01		 mov	 DWORD PTR [ecx], eax
  0000f	8b c1		 mov	 eax, ecx
  00011	c2 08 00	 ret	 8
??$find@G@?$_Rb_tree@GU?$pair@$$CBGPAVGUILD_INFO@@@_STL@@U?$_Select1st@U?$pair@$$CBGPAVGUILD_INFO@@@_STL@@@2@U?$less@G@2@V?$allocator@U?$pair@$$CBGPAVGUILD_INFO@@@_STL@@@2@@_STL@@QAE?AU?$_Rb_tree_iterator@U?$pair@$$CBGPAVGUILD_INFO@@@_STL@@U?$_Nonconst_traits@U?$pair@$$CBGPAVGUILD_INFO@@@_STL@@@2@@1@ABG@Z ENDP ; _STL::_Rb_tree<unsigned short,_STL::pair<unsigned short const ,GUILD_INFO *>,_STL::_Select1st<_STL::pair<unsigned short const ,GUILD_INFO *> >,_STL::less<unsigned short>,_STL::allocator<_STL::pair<unsigned short const ,GUILD_INFO *> > >::find<unsigned short>
_TEXT	ENDS
PUBLIC	??1?$_Rb_tree@GU?$pair@$$CBGPAVivfstream@@@_STL@@U?$_Select1st@U?$pair@$$CBGPAVivfstream@@@_STL@@@2@U?$less@G@2@V?$allocator@U?$pair@$$CBGPAVivfstream@@@_STL@@@2@@_STL@@QAE@XZ ; _STL::_Rb_tree<unsigned short,_STL::pair<unsigned short const ,ivfstream *>,_STL::_Select1st<_STL::pair<unsigned short const ,ivfstream *> >,_STL::less<unsigned short>,_STL::allocator<_STL::pair<unsigned short const ,ivfstream *> > >::~_Rb_tree<unsigned short,_STL::pair<unsigned short const ,ivfstream *>,_STL::_Select1st<_STL::pair<unsigned short const ,ivfstream *> >,_STL::less<unsigned short>,_STL::allocator<_STL::pair<unsigned short const ,ivfstream *> > >
;	COMDAT xdata$x
; File c:\stlport-4.6.1\stlport\stl\_alloc.h
xdata$x	SEGMENT
$T111798 DD	0ffffffffH
	DD	FLAT:$L111779
$T111796 DD	019930520H
	DD	01H
	DD	FLAT:$T111798
	DD	2 DUP(00H)
	DD	2 DUP(00H)
; Function compile flags: /Ogsy
; File c:\stlport-4.6.1\stlport\stl\_tree.h
xdata$x	ENDS
;	COMDAT ??1?$_Rb_tree@GU?$pair@$$CBGPAVivfstream@@@_STL@@U?$_Select1st@U?$pair@$$CBGPAVivfstream@@@_STL@@@2@U?$less@G@2@V?$allocator@U?$pair@$$CBGPAVivfstream@@@_STL@@@2@@_STL@@QAE@XZ
_TEXT	SEGMENT
_this$ = -16						; size = 4
__$EHRec$ = -12						; size = 12
??1?$_Rb_tree@GU?$pair@$$CBGPAVivfstream@@@_STL@@U?$_Select1st@U?$pair@$$CBGPAVivfstream@@@_STL@@@2@U?$less@G@2@V?$allocator@U?$pair@$$CBGPAVivfstream@@@_STL@@@2@@_STL@@QAE@XZ PROC NEAR ; _STL::_Rb_tree<unsigned short,_STL::pair<unsigned short const ,ivfstream *>,_STL::_Select1st<_STL::pair<unsigned short const ,ivfstream *> >,_STL::less<unsigned short>,_STL::allocator<_STL::pair<unsigned short const ,ivfstream *> > >::~_Rb_tree<unsigned short,_STL::pair<unsigned short const ,ivfstream *>,_STL::_Select1st<_STL::pair<unsigned short const ,ivfstream *> >,_STL::less<unsigned short>,_STL::allocator<_STL::pair<unsigned short const ,ivfstream *> > >, COMDAT
; _this$ = ecx

; 341  :   ~_Rb_tree() { clear(); }

  00000	b8 00 00 00 00	 mov	 eax, __ehhandler$??1?$_Rb_tree@GU?$pair@$$CBGPAVivfstream@@@_STL@@U?$_Select1st@U?$pair@$$CBGPAVivfstream@@@_STL@@@2@U?$less@G@2@V?$allocator@U?$pair@$$CBGPAVivfstream@@@_STL@@@2@@_STL@@QAE@XZ
  00005	e8 00 00 00 00	 call	 __EH_prolog
  0000a	51		 push	 ecx
  0000b	56		 push	 esi
  0000c	8b f1		 mov	 esi, ecx
  0000e	89 75 f0	 mov	 DWORD PTR _this$[ebp], esi
  00011	83 65 fc 00	 and	 DWORD PTR __$EHRec$[ebp+8], 0
  00015	e8 00 00 00 00	 call	 ?clear@?$_Rb_tree@GU?$pair@$$CBGPAVivfstream@@@_STL@@U?$_Select1st@U?$pair@$$CBGPAVivfstream@@@_STL@@@2@U?$less@G@2@V?$allocator@U?$pair@$$CBGPAVivfstream@@@_STL@@@2@@_STL@@QAEXXZ ; _STL::_Rb_tree<unsigned short,_STL::pair<unsigned short const ,ivfstream *>,_STL::_Select1st<_STL::pair<unsigned short const ,ivfstream *> >,_STL::less<unsigned short>,_STL::allocator<_STL::pair<unsigned short const ,ivfstream *> > >::clear
  0001a	83 4d fc ff	 or	 DWORD PTR __$EHRec$[ebp+8], -1
  0001e	6a 01		 push	 1
  00020	ff 36		 push	 DWORD PTR [esi]
  00022	8b ce		 mov	 ecx, esi
  00024	e8 00 00 00 00	 call	 ?deallocate@?$allocator@U?$_Rb_tree_node@U?$pair@$$CBGPAVivfstream@@@_STL@@@_STL@@@_STL@@QAEXPAU?$_Rb_tree_node@U?$pair@$$CBGPAVivfstream@@@_STL@@@2@I@Z ; _STL::allocator<_STL::_Rb_tree_node<_STL::pair<unsigned short const ,ivfstream *> > >::deallocate
  00029	8b 4d f4	 mov	 ecx, DWORD PTR __$EHRec$[ebp]
  0002c	5e		 pop	 esi
  0002d	64 89 0d 00 00
	00 00		 mov	 DWORD PTR fs:__except_list, ecx
  00034	c9		 leave
  00035	c3		 ret	 0
_TEXT	ENDS
;	COMDAT text$x
text$x	SEGMENT
$L111779:
  00000	8b 4d f0	 mov	 ecx, DWORD PTR _this$[ebp]
  00003	e9 00 00 00 00	 jmp	 ??1?$_Rb_tree_base@U?$pair@$$CBGPAVivfstream@@@_STL@@V?$allocator@U?$pair@$$CBGPAVivfstream@@@_STL@@@2@@_STL@@QAE@XZ ; _STL::_Rb_tree_base<_STL::pair<unsigned short const ,ivfstream *>,_STL::allocator<_STL::pair<unsigned short const ,ivfstream *> > >::~_Rb_tree_base<_STL::pair<unsigned short const ,ivfstream *>,_STL::allocator<_STL::pair<unsigned short const ,ivfstream *> > >
__ehhandler$??1?$_Rb_tree@GU?$pair@$$CBGPAVivfstream@@@_STL@@U?$_Select1st@U?$pair@$$CBGPAVivfstream@@@_STL@@@2@U?$less@G@2@V?$allocator@U?$pair@$$CBGPAVivfstream@@@_STL@@@2@@_STL@@QAE@XZ:
  00008	b8 00 00 00 00	 mov	 eax, OFFSET FLAT:$T111796
  0000d	e9 00 00 00 00	 jmp	 ___CxxFrameHandler
text$x	ENDS
??1?$_Rb_tree@GU?$pair@$$CBGPAVivfstream@@@_STL@@U?$_Select1st@U?$pair@$$CBGPAVivfstream@@@_STL@@@2@U?$less@G@2@V?$allocator@U?$pair@$$CBGPAVivfstream@@@_STL@@@2@@_STL@@QAE@XZ ENDP ; _STL::_Rb_tree<unsigned short,_STL::pair<unsigned short const ,ivfstream *>,_STL::_Select1st<_STL::pair<unsigned short const ,ivfstream *> >,_STL::less<unsigned short>,_STL::allocator<_STL::pair<unsigned short const ,ivfstream *> > >::~_Rb_tree<unsigned short,_STL::pair<unsigned short const ,ivfstream *>,_STL::_Select1st<_STL::pair<unsigned short const ,ivfstream *> >,_STL::less<unsigned short>,_STL::allocator<_STL::pair<unsigned short const ,ivfstream *> > >
PUBLIC	??0?$_Rb_tree@GU?$pair@$$CBGPAVivfstream@@@_STL@@U?$_Select1st@U?$pair@$$CBGPAVivfstream@@@_STL@@@2@U?$less@G@2@V?$allocator@U?$pair@$$CBGPAVivfstream@@@_STL@@@2@@_STL@@QAE@ABU?$less@G@1@ABV?$allocator@U?$pair@$$CBGPAVivfstream@@@_STL@@@1@@Z ; _STL::_Rb_tree<unsigned short,_STL::pair<unsigned short const ,ivfstream *>,_STL::_Select1st<_STL::pair<unsigned short const ,ivfstream *> >,_STL::less<unsigned short>,_STL::allocator<_STL::pair<unsigned short const ,ivfstream *> > >::_Rb_tree<unsigned short,_STL::pair<unsigned short const ,ivfstream *>,_STL::_Select1st<_STL::pair<unsigned short const ,ivfstream *> >,_STL::less<unsigned short>,_STL::allocator<_STL::pair<unsigned short const ,ivfstream *> > >
; Function compile flags: /Ogsy
;	COMDAT ??0?$_Rb_tree@GU?$pair@$$CBGPAVivfstream@@@_STL@@U?$_Select1st@U?$pair@$$CBGPAVivfstream@@@_STL@@@2@U?$less@G@2@V?$allocator@U?$pair@$$CBGPAVivfstream@@@_STL@@@2@@_STL@@QAE@ABU?$less@G@1@ABV?$allocator@U?$pair@$$CBGPAVivfstream@@@_STL@@@1@@Z
_TEXT	SEGMENT
___comp$ = 8						; size = 4
___a$ = 12						; size = 4
??0?$_Rb_tree@GU?$pair@$$CBGPAVivfstream@@@_STL@@U?$_Select1st@U?$pair@$$CBGPAVivfstream@@@_STL@@@2@U?$less@G@2@V?$allocator@U?$pair@$$CBGPAVivfstream@@@_STL@@@2@@_STL@@QAE@ABU?$less@G@1@ABV?$allocator@U?$pair@$$CBGPAVivfstream@@@_STL@@@1@@Z PROC NEAR ; _STL::_Rb_tree<unsigned short,_STL::pair<unsigned short const ,ivfstream *>,_STL::_Select1st<_STL::pair<unsigned short const ,ivfstream *> >,_STL::less<unsigned short>,_STL::allocator<_STL::pair<unsigned short const ,ivfstream *> > >::_Rb_tree<unsigned short,_STL::pair<unsigned short const ,ivfstream *>,_STL::_Select1st<_STL::pair<unsigned short const ,ivfstream *> >,_STL::less<unsigned short>,_STL::allocator<_STL::pair<unsigned short const ,ivfstream *> > >, COMDAT
; _this$ = ecx

; 325  :     { _M_empty_initialize(); }

  00000	56		 push	 esi
  00001	ff 74 24 0c	 push	 DWORD PTR ___a$[esp]
  00005	8b f1		 mov	 esi, ecx
  00007	e8 00 00 00 00	 call	 ??0?$_Rb_tree_base@U?$pair@$$CBGPAVivfstream@@@_STL@@V?$allocator@U?$pair@$$CBGPAVivfstream@@@_STL@@@2@@_STL@@QAE@ABV?$allocator@U?$pair@$$CBGPAVivfstream@@@_STL@@@1@@Z ; _STL::_Rb_tree_base<_STL::pair<unsigned short const ,ivfstream *>,_STL::allocator<_STL::pair<unsigned short const ,ivfstream *> > >::_Rb_tree_base<_STL::pair<unsigned short const ,ivfstream *>,_STL::allocator<_STL::pair<unsigned short const ,ivfstream *> > >
  0000c	8b 0e		 mov	 ecx, DWORD PTR [esi]
  0000e	33 c0		 xor	 eax, eax
  00010	89 46 04	 mov	 DWORD PTR [esi+4], eax
  00013	88 01		 mov	 BYTE PTR [ecx], al
  00015	8b 0e		 mov	 ecx, DWORD PTR [esi]
  00017	89 41 04	 mov	 DWORD PTR [ecx+4], eax
  0001a	8b 06		 mov	 eax, DWORD PTR [esi]
  0001c	89 40 08	 mov	 DWORD PTR [eax+8], eax
  0001f	8b 06		 mov	 eax, DWORD PTR [esi]
  00021	89 40 0c	 mov	 DWORD PTR [eax+12], eax
  00024	8b c6		 mov	 eax, esi
  00026	5e		 pop	 esi
  00027	c2 08 00	 ret	 8
??0?$_Rb_tree@GU?$pair@$$CBGPAVivfstream@@@_STL@@U?$_Select1st@U?$pair@$$CBGPAVivfstream@@@_STL@@@2@U?$less@G@2@V?$allocator@U?$pair@$$CBGPAVivfstream@@@_STL@@@2@@_STL@@QAE@ABU?$less@G@1@ABV?$allocator@U?$pair@$$CBGPAVivfstream@@@_STL@@@1@@Z ENDP ; _STL::_Rb_tree<unsigned short,_STL::pair<unsigned short const ,ivfstream *>,_STL::_Select1st<_STL::pair<unsigned short const ,ivfstream *> >,_STL::less<unsigned short>,_STL::allocator<_STL::pair<unsigned short const ,ivfstream *> > >::_Rb_tree<unsigned short,_STL::pair<unsigned short const ,ivfstream *>,_STL::_Select1st<_STL::pair<unsigned short const ,ivfstream *> >,_STL::less<unsigned short>,_STL::allocator<_STL::pair<unsigned short const ,ivfstream *> > >
_TEXT	ENDS
PUBLIC	?_M_insert@?$_Rb_tree@GU?$pair@$$CBGUGUILD_SPRITES@MGuildMarkManager@@@_STL@@U?$_Select1st@U?$pair@$$CBGUGUILD_SPRITES@MGuildMarkManager@@@_STL@@@2@U?$less@G@2@V?$allocator@U?$pair@$$CBGUGUILD_SPRITES@MGuildMarkManager@@@_STL@@@2@@_STL@@AAE?AU?$_Rb_tree_iterator@U?$pair@$$CBGUGUILD_SPRITES@MGuildMarkManager@@@_STL@@U?$_Nonconst_traits@U?$pair@$$CBGUGUILD_SPRITES@MGuildMarkManager@@@_STL@@@2@@2@PAU_Rb_tree_node_base@2@0ABU?$pair@$$CBGUGUILD_SPRITES@MGuildMarkManager@@@2@0@Z ; _STL::_Rb_tree<unsigned short,_STL::pair<unsigned short const ,MGuildMarkManager::GUILD_SPRITES>,_STL::_Select1st<_STL::pair<unsigned short const ,MGuildMarkManager::GUILD_SPRITES> >,_STL::less<unsigned short>,_STL::allocator<_STL::pair<unsigned short const ,MGuildMarkManager::GUILD_SPRITES> > >::_M_insert
EXTRN	?_Rebalance@?$_Rb_global@_N@_STL@@SAXPAU_Rb_tree_node_base@2@AAPAU32@@Z:NEAR ; _STL::_Rb_global<bool>::_Rebalance
; Function compile flags: /Ogsy
; File c:\stlport-4.6.1\stlport\stl\_tree.c
;	COMDAT ?_M_insert@?$_Rb_tree@GU?$pair@$$CBGUGUILD_SPRITES@MGuildMarkManager@@@_STL@@U?$_Select1st@U?$pair@$$CBGUGUILD_SPRITES@MGuildMarkManager@@@_STL@@@2@U?$less@G@2@V?$allocator@U?$pair@$$CBGUGUILD_SPRITES@MGuildMarkManager@@@_STL@@@2@@_STL@@AAE?AU?$_Rb_tree_iterator@U?$pair@$$CBGUGUILD_SPRITES@MGuildMarkManager@@@_STL@@U?$_Nonconst_traits@U?$pair@$$CBGUGUILD_SPRITES@MGuildMarkManager@@@_STL@@@2@@2@PAU_Rb_tree_node_base@2@0ABU?$pair@$$CBGUGUILD_SPRITES@MGuildMarkManager@@@2@0@Z
_TEXT	SEGMENT
___$ReturnUdt$ = 8					; size = 4
___x_$ = 12						; size = 4
___y_$ = 16						; size = 4
___v$ = 20						; size = 4
___w_$ = 24						; size = 4
?_M_insert@?$_Rb_tree@GU?$pair@$$CBGUGUILD_SPRITES@MGuildMarkManager@@@_STL@@U?$_Select1st@U?$pair@$$CBGUGUILD_SPRITES@MGuildMarkManager@@@_STL@@@2@U?$less@G@2@V?$allocator@U?$pair@$$CBGUGUILD_SPRITES@MGuildMarkManager@@@_STL@@@2@@_STL@@AAE?AU?$_Rb_tree_iterator@U?$pair@$$CBGUGUILD_SPRITES@MGuildMarkManager@@@_STL@@U?$_Nonconst_traits@U?$pair@$$CBGUGUILD_SPRITES@MGuildMarkManager@@@_STL@@@2@@2@PAU_Rb_tree_node_base@2@0ABU?$pair@$$CBGUGUILD_SPRITES@MGuildMarkManager@@@2@0@Z PROC NEAR ; _STL::_Rb_tree<unsigned short,_STL::pair<unsigned short const ,MGuildMarkManager::GUILD_SPRITES>,_STL::_Select1st<_STL::pair<unsigned short const ,MGuildMarkManager::GUILD_SPRITES> >,_STL::less<unsigned short>,_STL::allocator<_STL::pair<unsigned short const ,MGuildMarkManager::GUILD_SPRITES> > >::_M_insert, COMDAT
; _this$ = ecx

; 347  : {

  00000	55		 push	 ebp
  00001	8b ec		 mov	 ebp, esp

; 348  :   _Link_type __w = (_Link_type) __w_;
; 349  :   _Link_type __x = (_Link_type) __x_;
; 350  :   _Link_type __y = (_Link_type) __y_;
; 351  :   _Link_type __z;
; 352  : 
; 353  :   if ( __y == this->_M_header._M_data ||
; 354  :        ( __w == 0 && // If w != 0, the remainder fails to false
; 355  :          ( __x != 0 ||     // If x != 0, the remainder succeeds to true
; 356  :            _M_key_compare( _KeyOfValue()(__v), _S_key(__y) ) )
; 357  : 	 )
; 358  :        ) {

  00003	8b 45 14	 mov	 eax, DWORD PTR ___v$[ebp]
  00006	53		 push	 ebx
  00007	8b 5d 10	 mov	 ebx, DWORD PTR ___y_$[ebp]
  0000a	56		 push	 esi
  0000b	57		 push	 edi
  0000c	8b f9		 mov	 edi, ecx
  0000e	3b 1f		 cmp	 ebx, DWORD PTR [edi]
  00010	74 2e		 je	 SHORT $L109180
  00012	83 7d 18 00	 cmp	 DWORD PTR ___w_$[ebp], 0
  00016	75 0f		 jne	 SHORT $L109178
  00018	83 7d 0c 00	 cmp	 DWORD PTR ___x_$[ebp], 0
  0001c	75 22		 jne	 SHORT $L109180
  0001e	66 8b 08	 mov	 cx, WORD PTR [eax]
  00021	66 3b 4b 10	 cmp	 cx, WORD PTR [ebx+16]
  00025	72 19		 jb	 SHORT $L109180
$L109178:

; 369  :   }
; 370  :   else {
; 371  :     __z = _M_create_node(__v);

  00027	50		 push	 eax
  00028	8b cf		 mov	 ecx, edi
  0002a	e8 00 00 00 00	 call	 ?_M_create_node@?$_Rb_tree@GU?$pair@$$CBGUGUILD_SPRITES@MGuildMarkManager@@@_STL@@U?$_Select1st@U?$pair@$$CBGUGUILD_SPRITES@MGuildMarkManager@@@_STL@@@2@U?$less@G@2@V?$allocator@U?$pair@$$CBGUGUILD_SPRITES@MGuildMarkManager@@@_STL@@@2@@_STL@@IAEPAU?$_Rb_tree_node@U?$pair@$$CBGUGUILD_SPRITES@MGuildMarkManager@@@_STL@@@2@ABU?$pair@$$CBGUGUILD_SPRITES@MGuildMarkManager@@@2@@Z ; _STL::_Rb_tree<unsigned short,_STL::pair<unsigned short const ,MGuildMarkManager::GUILD_SPRITES>,_STL::_Select1st<_STL::pair<unsigned short const ,MGuildMarkManager::GUILD_SPRITES> >,_STL::less<unsigned short>,_STL::allocator<_STL::pair<unsigned short const ,MGuildMarkManager::GUILD_SPRITES> > >::_M_create_node
  0002f	8b f0		 mov	 esi, eax

; 372  :     _S_right(__y) = __z;

  00031	89 73 0c	 mov	 DWORD PTR [ebx+12], esi

; 373  :     if (__y == _M_rightmost())

  00034	8b 07		 mov	 eax, DWORD PTR [edi]
  00036	3b 58 0c	 cmp	 ebx, DWORD PTR [eax+12]
  00039	75 27		 jne	 SHORT $L109183
$L111889:

; 374  :       _M_rightmost() = __z;  // maintain _M_rightmost() pointing to max node

  0003b	89 70 0c	 mov	 DWORD PTR [eax+12], esi
  0003e	eb 22		 jmp	 SHORT $L109183
$L109180:

; 359  :     
; 360  :     __z = _M_create_node(__v);

  00040	50		 push	 eax
  00041	8b cf		 mov	 ecx, edi
  00043	e8 00 00 00 00	 call	 ?_M_create_node@?$_Rb_tree@GU?$pair@$$CBGUGUILD_SPRITES@MGuildMarkManager@@@_STL@@U?$_Select1st@U?$pair@$$CBGUGUILD_SPRITES@MGuildMarkManager@@@_STL@@@2@U?$less@G@2@V?$allocator@U?$pair@$$CBGUGUILD_SPRITES@MGuildMarkManager@@@_STL@@@2@@_STL@@IAEPAU?$_Rb_tree_node@U?$pair@$$CBGUGUILD_SPRITES@MGuildMarkManager@@@_STL@@@2@ABU?$pair@$$CBGUGUILD_SPRITES@MGuildMarkManager@@@2@@Z ; _STL::_Rb_tree<unsigned short,_STL::pair<unsigned short const ,MGuildMarkManager::GUILD_SPRITES>,_STL::_Select1st<_STL::pair<unsigned short const ,MGuildMarkManager::GUILD_SPRITES> >,_STL::less<unsigned short>,_STL::allocator<_STL::pair<unsigned short const ,MGuildMarkManager::GUILD_SPRITES> > >::_M_create_node
  00048	8b f0		 mov	 esi, eax

; 361  :     _S_left(__y) = __z;               // also makes _M_leftmost() = __z 

  0004a	89 73 08	 mov	 DWORD PTR [ebx+8], esi

; 362  :                                       //    when __y == _M_header
; 363  :     if (__y == this->_M_header._M_data) {

  0004d	8b 07		 mov	 eax, DWORD PTR [edi]
  0004f	3b d8		 cmp	 ebx, eax
  00051	75 07		 jne	 SHORT $L109181

; 364  :       _M_root() = __z;

  00053	89 70 04	 mov	 DWORD PTR [eax+4], esi

; 365  :       _M_rightmost() = __z;

  00056	8b 07		 mov	 eax, DWORD PTR [edi]

; 366  :     }
; 367  :     else if (__y == _M_leftmost())

  00058	eb e1		 jmp	 SHORT $L111889
$L109181:
  0005a	3b 58 08	 cmp	 ebx, DWORD PTR [eax+8]
  0005d	75 03		 jne	 SHORT $L109183

; 368  :       _M_leftmost() = __z;   // maintain _M_leftmost() pointing to min node

  0005f	89 70 08	 mov	 DWORD PTR [eax+8], esi
$L109183:

; 375  :   }
; 376  :   _S_parent(__z) = __y;
; 377  :   _S_left(__z) = 0;

  00062	83 66 08 00	 and	 DWORD PTR [esi+8], 0

; 378  :   _S_right(__z) = 0;

  00066	83 66 0c 00	 and	 DWORD PTR [esi+12], 0
  0006a	89 5e 04	 mov	 DWORD PTR [esi+4], ebx

; 379  :   _Rb_global_inst::_Rebalance(__z, this->_M_header._M_data->_M_parent);

  0006d	8b 07		 mov	 eax, DWORD PTR [edi]
  0006f	83 c0 04	 add	 eax, 4
  00072	50		 push	 eax
  00073	56		 push	 esi
  00074	e8 00 00 00 00	 call	 ?_Rebalance@?$_Rb_global@_N@_STL@@SAXPAU_Rb_tree_node_base@2@AAPAU32@@Z ; _STL::_Rb_global<bool>::_Rebalance

; 380  :   ++_M_node_count;

  00079	ff 47 04	 inc	 DWORD PTR [edi+4]

; 381  :   return iterator(__z);

  0007c	8b 45 08	 mov	 eax, DWORD PTR ___$ReturnUdt$[ebp]
  0007f	59		 pop	 ecx
  00080	59		 pop	 ecx
  00081	5f		 pop	 edi
  00082	89 30		 mov	 DWORD PTR [eax], esi
  00084	5e		 pop	 esi
  00085	5b		 pop	 ebx

; 382  : }

  00086	5d		 pop	 ebp
  00087	c2 14 00	 ret	 20			; 00000014H
?_M_insert@?$_Rb_tree@GU?$pair@$$CBGUGUILD_SPRITES@MGuildMarkManager@@@_STL@@U?$_Select1st@U?$pair@$$CBGUGUILD_SPRITES@MGuildMarkManager@@@_STL@@@2@U?$less@G@2@V?$allocator@U?$pair@$$CBGUGUILD_SPRITES@MGuildMarkManager@@@_STL@@@2@@_STL@@AAE?AU?$_Rb_tree_iterator@U?$pair@$$CBGUGUILD_SPRITES@MGuildMarkManager@@@_STL@@U?$_Nonconst_traits@U?$pair@$$CBGUGUILD_SPRITES@MGuildMarkManager@@@_STL@@@2@@2@PAU_Rb_tree_node_base@2@0ABU?$pair@$$CBGUGUILD_SPRITES@MGuildMarkManager@@@2@0@Z ENDP ; _STL::_Rb_tree<unsigned short,_STL::pair<unsigned short const ,MGuildMarkManager::GUILD_SPRITES>,_STL::_Select1st<_STL::pair<unsigned short const ,MGuildMarkManager::GUILD_SPRITES> >,_STL::less<unsigned short>,_STL::allocator<_STL::pair<unsigned short const ,MGuildMarkManager::GUILD_SPRITES> > >::_M_insert
_TEXT	ENDS
PUBLIC	?insert_unique@?$_Rb_tree@GU?$pair@$$CBGUGUILD_SPRITES@MGuildMarkManager@@@_STL@@U?$_Select1st@U?$pair@$$CBGUGUILD_SPRITES@MGuildMarkManager@@@_STL@@@2@U?$less@G@2@V?$allocator@U?$pair@$$CBGUGUILD_SPRITES@MGuildMarkManager@@@_STL@@@2@@_STL@@QAE?AU?$pair@U?$_Rb_tree_iterator@U?$pair@$$CBGUGUILD_SPRITES@MGuildMarkManager@@@_STL@@U?$_Nonconst_traits@U?$pair@$$CBGUGUILD_SPRITES@MGuildMarkManager@@@_STL@@@2@@_STL@@_N@2@ABU?$pair@$$CBGUGUILD_SPRITES@MGuildMarkManager@@@2@@Z ; _STL::_Rb_tree<unsigned short,_STL::pair<unsigned short const ,MGuildMarkManager::GUILD_SPRITES>,_STL::_Select1st<_STL::pair<unsigned short const ,MGuildMarkManager::GUILD_SPRITES> >,_STL::less<unsigned short>,_STL::allocator<_STL::pair<unsigned short const ,MGuildMarkManager::GUILD_SPRITES> > >::insert_unique
; Function compile flags: /Ogsy
;	COMDAT ?insert_unique@?$_Rb_tree@GU?$pair@$$CBGUGUILD_SPRITES@MGuildMarkManager@@@_STL@@U?$_Select1st@U?$pair@$$CBGUGUILD_SPRITES@MGuildMarkManager@@@_STL@@@2@U?$less@G@2@V?$allocator@U?$pair@$$CBGUGUILD_SPRITES@MGuildMarkManager@@@_STL@@@2@@_STL@@QAE?AU?$pair@U?$_Rb_tree_iterator@U?$pair@$$CBGUGUILD_SPRITES@MGuildMarkManager@@@_STL@@U?$_Nonconst_traits@U?$pair@$$CBGUGUILD_SPRITES@MGuildMarkManager@@@_STL@@@2@@_STL@@_N@2@ABU?$pair@$$CBGUGUILD_SPRITES@MGuildMarkManager@@@2@@Z
_TEXT	SEGMENT
___$ReturnUdt$ = 8					; size = 4
$T111900 = 12						; size = 4
___v$ = 12						; size = 4
?insert_unique@?$_Rb_tree@GU?$pair@$$CBGUGUILD_SPRITES@MGuildMarkManager@@@_STL@@U?$_Select1st@U?$pair@$$CBGUGUILD_SPRITES@MGuildMarkManager@@@_STL@@@2@U?$less@G@2@V?$allocator@U?$pair@$$CBGUGUILD_SPRITES@MGuildMarkManager@@@_STL@@@2@@_STL@@QAE?AU?$pair@U?$_Rb_tree_iterator@U?$pair@$$CBGUGUILD_SPRITES@MGuildMarkManager@@@_STL@@U?$_Nonconst_traits@U?$pair@$$CBGUGUILD_SPRITES@MGuildMarkManager@@@_STL@@@2@@_STL@@_N@2@ABU?$pair@$$CBGUGUILD_SPRITES@MGuildMarkManager@@@2@@Z PROC NEAR ; _STL::_Rb_tree<unsigned short,_STL::pair<unsigned short const ,MGuildMarkManager::GUILD_SPRITES>,_STL::_Select1st<_STL::pair<unsigned short const ,MGuildMarkManager::GUILD_SPRITES> >,_STL::less<unsigned short>,_STL::allocator<_STL::pair<unsigned short const ,MGuildMarkManager::GUILD_SPRITES> > >::insert_unique, COMDAT
; _this$ = ecx

; 401  : {

  00000	55		 push	 ebp
  00001	8b ec		 mov	 ebp, esp
  00003	53		 push	 ebx
  00004	8b d9		 mov	 ebx, ecx

; 402  :   _Link_type __y = this->_M_header._M_data;

  00006	8b 0b		 mov	 ecx, DWORD PTR [ebx]
  00008	56		 push	 esi

; 403  :   _Link_type __x = _M_root();

  00009	8b 71 04	 mov	 esi, DWORD PTR [ecx+4]

; 404  :   bool __comp = true;
; 405  :   while (__x != 0) {

  0000c	85 f6		 test	 esi, esi
  0000e	57		 push	 edi
  0000f	8b f9		 mov	 edi, ecx
  00011	b2 01		 mov	 dl, 1
  00013	74 1f		 je	 SHORT $L112004
  00015	8b 45 0c	 mov	 eax, DWORD PTR ___v$[ebp]
  00018	66 8b 00	 mov	 ax, WORD PTR [eax]
$L109201:

; 406  :     __y = __x;
; 407  :     __comp = _M_key_compare(_KeyOfValue()(__v), _S_key(__x));

  0001b	66 3b 46 10	 cmp	 ax, WORD PTR [esi+16]
  0001f	8b fe		 mov	 edi, esi
  00021	0f 92 c2	 setb	 dl

; 408  :     __x = __comp ? _S_left(__x) : _S_right(__x);

  00024	84 d2		 test	 dl, dl
  00026	74 05		 je	 SHORT $L111893
  00028	8b 76 08	 mov	 esi, DWORD PTR [esi+8]
  0002b	eb 03		 jmp	 SHORT $L111894
$L111893:
  0002d	8b 76 0c	 mov	 esi, DWORD PTR [esi+12]
$L111894:

; 404  :   bool __comp = true;
; 405  :   while (__x != 0) {

  00030	85 f6		 test	 esi, esi
  00032	75 e7		 jne	 SHORT $L109201
$L112004:

; 409  :   }
; 410  :   iterator __j = iterator(__y);   
; 411  :   if (__comp)

  00034	84 d2		 test	 dl, dl
  00036	8b c7		 mov	 eax, edi
  00038	74 15		 je	 SHORT $L112005

; 412  :     if (__j == begin())     

  0003a	3b 79 08	 cmp	 edi, DWORD PTR [ecx+8]
  0003d	75 09		 jne	 SHORT $L109208

; 413  :       return pair<iterator,bool>(_M_insert(/* __x*/ __y, __y, __v), true);

  0003f	6a 00		 push	 0
  00041	ff 75 0c	 push	 DWORD PTR ___v$[ebp]
  00044	57		 push	 edi
  00045	57		 push	 edi
  00046	eb 18		 jmp	 SHORT $L112006
$L109208:

; 414  :     else
; 415  :       --__j;

  00048	57		 push	 edi
  00049	e8 00 00 00 00	 call	 ?_M_decrement@?$_Rb_global@_N@_STL@@SAPAU_Rb_tree_node_base@2@PAU32@@Z ; _STL::_Rb_global<bool>::_M_decrement
  0004e	59		 pop	 ecx
$L112005:

; 416  :   if (_M_key_compare(_S_key(__j._M_node), _KeyOfValue()(__v)))

  0004f	66 8b 50 10	 mov	 dx, WORD PTR [eax+16]
  00053	8b 4d 0c	 mov	 ecx, DWORD PTR ___v$[ebp]
  00056	66 3b 11	 cmp	 dx, WORD PTR [ecx]
  00059	73 1d		 jae	 SHORT $L109218

; 417  :     return pair<iterator,bool>(_M_insert(__x, __y, __v), true);

  0005b	6a 00		 push	 0
  0005d	51		 push	 ecx
  0005e	57		 push	 edi
  0005f	56		 push	 esi
$L112006:
  00060	8d 45 0c	 lea	 eax, DWORD PTR $T111900[ebp]
  00063	50		 push	 eax
  00064	8b cb		 mov	 ecx, ebx
  00066	e8 00 00 00 00	 call	 ?_M_insert@?$_Rb_tree@GU?$pair@$$CBGUGUILD_SPRITES@MGuildMarkManager@@@_STL@@U?$_Select1st@U?$pair@$$CBGUGUILD_SPRITES@MGuildMarkManager@@@_STL@@@2@U?$less@G@2@V?$allocator@U?$pair@$$CBGUGUILD_SPRITES@MGuildMarkManager@@@_STL@@@2@@_STL@@AAE?AU?$_Rb_tree_iterator@U?$pair@$$CBGUGUILD_SPRITES@MGuildMarkManager@@@_STL@@U?$_Nonconst_traits@U?$pair@$$CBGUGUILD_SPRITES@MGuildMarkManager@@@_STL@@@2@@2@PAU_Rb_tree_node_base@2@0ABU?$pair@$$CBGUGUILD_SPRITES@MGuildMarkManager@@@2@0@Z ; _STL::_Rb_tree<unsigned short,_STL::pair<unsigned short const ,MGuildMarkManager::GUILD_SPRITES>,_STL::_Select1st<_STL::pair<unsigned short const ,MGuildMarkManager::GUILD_SPRITES> >,_STL::less<unsigned short>,_STL::allocator<_STL::pair<unsigned short const ,MGuildMarkManager::GUILD_SPRITES> > >::_M_insert
  0006b	8b 08		 mov	 ecx, DWORD PTR [eax]
  0006d	8b 45 08	 mov	 eax, DWORD PTR ___$ReturnUdt$[ebp]
  00070	89 08		 mov	 DWORD PTR [eax], ecx
  00072	c6 40 04 01	 mov	 BYTE PTR [eax+4], 1
  00076	eb 0b		 jmp	 SHORT $L109196
$L109218:

; 418  :   return pair<iterator,bool>(__j, false);

  00078	8b 4d 08	 mov	 ecx, DWORD PTR ___$ReturnUdt$[ebp]
  0007b	89 01		 mov	 DWORD PTR [ecx], eax
  0007d	c6 41 04 00	 mov	 BYTE PTR [ecx+4], 0
  00081	8b c1		 mov	 eax, ecx
$L109196:
  00083	5f		 pop	 edi
  00084	5e		 pop	 esi
  00085	5b		 pop	 ebx

; 419  : }

  00086	5d		 pop	 ebp
  00087	c2 08 00	 ret	 8
?insert_unique@?$_Rb_tree@GU?$pair@$$CBGUGUILD_SPRITES@MGuildMarkManager@@@_STL@@U?$_Select1st@U?$pair@$$CBGUGUILD_SPRITES@MGuildMarkManager@@@_STL@@@2@U?$less@G@2@V?$allocator@U?$pair@$$CBGUGUILD_SPRITES@MGuildMarkManager@@@_STL@@@2@@_STL@@QAE?AU?$pair@U?$_Rb_tree_iterator@U?$pair@$$CBGUGUILD_SPRITES@MGuildMarkManager@@@_STL@@U?$_Nonconst_traits@U?$pair@$$CBGUGUILD_SPRITES@MGuildMarkManager@@@_STL@@@2@@_STL@@_N@2@ABU?$pair@$$CBGUGUILD_SPRITES@MGuildMarkManager@@@2@@Z ENDP ; _STL::_Rb_tree<unsigned short,_STL::pair<unsigned short const ,MGuildMarkManager::GUILD_SPRITES>,_STL::_Select1st<_STL::pair<unsigned short const ,MGuildMarkManager::GUILD_SPRITES> >,_STL::less<unsigned short>,_STL::allocator<_STL::pair<unsigned short const ,MGuildMarkManager::GUILD_SPRITES> > >::insert_unique
_TEXT	ENDS
PUBLIC	??1?$_String_base@DV?$allocator@D@_STL@@@_STL@@QAE@XZ ; _STL::_String_base<char,_STL::allocator<char> >::~_String_base<char,_STL::allocator<char> >
; Function compile flags: /Ogsy
; File c:\stlport-4.6.1\stlport\stl\_string.h
;	COMDAT ??1?$_String_base@DV?$allocator@D@_STL@@@_STL@@QAE@XZ
_TEXT	SEGMENT
??1?$_String_base@DV?$allocator@D@_STL@@@_STL@@QAE@XZ PROC NEAR ; _STL::_String_base<char,_STL::allocator<char> >::~_String_base<char,_STL::allocator<char> >, COMDAT
; _this$ = ecx

; 135  :   ~_String_base() { _M_deallocate_block(); }

  00000	e9 00 00 00 00	 jmp	 ?_M_deallocate_block@?$_String_base@DV?$allocator@D@_STL@@@_STL@@QAEXXZ ; _STL::_String_base<char,_STL::allocator<char> >::_M_deallocate_block
??1?$_String_base@DV?$allocator@D@_STL@@@_STL@@QAE@XZ ENDP ; _STL::_String_base<char,_STL::allocator<char> >::~_String_base<char,_STL::allocator<char> >
_TEXT	ENDS
PUBLIC	??0?$basic_string@DV?$char_traits@D@_STL@@V?$allocator@D@2@@_STL@@QAE@XZ ; _STL::basic_string<char,_STL::char_traits<char>,_STL::allocator<char> >::basic_string<char,_STL::char_traits<char>,_STL::allocator<char> >
;	COMDAT xdata$x
xdata$x	SEGMENT
$T112058 DD	0ffffffffH
	DD	FLAT:$L112013
$T112056 DD	019930520H
	DD	01H
	DD	FLAT:$T112058
	DD	2 DUP(00H)
	DD	2 DUP(00H)
; Function compile flags: /Ogsy
; File c:\stlport-4.6.1\stlport\stl\_string.c
xdata$x	ENDS
;	COMDAT ??0?$basic_string@DV?$char_traits@D@_STL@@V?$allocator@D@2@@_STL@@QAE@XZ
_TEXT	SEGMENT
_this$ = -20						; size = 4
$T112012 = -13						; size = 1
__$EHRec$ = -12						; size = 12
??0?$basic_string@DV?$char_traits@D@_STL@@V?$allocator@D@2@@_STL@@QAE@XZ PROC NEAR ; _STL::basic_string<char,_STL::char_traits<char>,_STL::allocator<char> >::basic_string<char,_STL::char_traits<char>,_STL::allocator<char> >, COMDAT
; _this$ = ecx

; 541  :   : _String_base<_CharT,_Alloc>(allocator_type()) {  

  00000	b8 00 00 00 00	 mov	 eax, __ehhandler$??0?$basic_string@DV?$char_traits@D@_STL@@V?$allocator@D@2@@_STL@@QAE@XZ
  00005	e8 00 00 00 00	 call	 __EH_prolog
  0000a	51		 push	 ecx
  0000b	51		 push	 ecx
  0000c	56		 push	 esi
  0000d	8d 45 f3	 lea	 eax, DWORD PTR $T112012[ebp]
  00010	8b f1		 mov	 esi, ecx
  00012	50		 push	 eax
  00013	89 75 ec	 mov	 DWORD PTR _this$[ebp], esi
  00016	e8 00 00 00 00	 call	 ??0?$_String_base@DV?$allocator@D@_STL@@@_STL@@QAE@ABV?$allocator@D@1@@Z ; _STL::_String_base<char,_STL::allocator<char> >::_String_base<char,_STL::allocator<char> >
  0001b	83 65 fc 00	 and	 DWORD PTR __$EHRec$[ebp+8], 0

; 542  :   this->_M_start = this->_M_end_of_storage.allocate(8); 

  0001f	6a 08		 push	 8
  00021	e8 00 00 00 00	 call	 ?_M_allocate@?$__node_alloc@$00$0A@@_STL@@CAPAXI@Z ; _STL::__node_alloc<1,0>::_M_allocate
  00026	59		 pop	 ecx

; 543  :   this->_M_finish = this->_M_start; 
; 544  :   this->_M_end_of_storage._M_data = this->_M_start + 8; 

  00027	8d 48 08	 lea	 ecx, DWORD PTR [eax+8]
  0002a	89 06		 mov	 DWORD PTR [esi], eax
  0002c	89 46 04	 mov	 DWORD PTR [esi+4], eax
  0002f	89 4e 08	 mov	 DWORD PTR [esi+8], ecx

; 545  :   _M_terminate_string();  
; 546  : } 

  00032	8b 4d f4	 mov	 ecx, DWORD PTR __$EHRec$[ebp]
  00035	c6 00 00	 mov	 BYTE PTR [eax], 0
  00038	8b c6		 mov	 eax, esi
  0003a	5e		 pop	 esi
  0003b	64 89 0d 00 00
	00 00		 mov	 DWORD PTR fs:__except_list, ecx
  00042	c9		 leave
  00043	c3		 ret	 0
_TEXT	ENDS
;	COMDAT text$x
text$x	SEGMENT
$L112013:
  00000	8b 4d ec	 mov	 ecx, DWORD PTR _this$[ebp]
  00003	e9 00 00 00 00	 jmp	 ??1?$_String_base@DV?$allocator@D@_STL@@@_STL@@QAE@XZ ; _STL::_String_base<char,_STL::allocator<char> >::~_String_base<char,_STL::allocator<char> >
__ehhandler$??0?$basic_string@DV?$char_traits@D@_STL@@V?$allocator@D@2@@_STL@@QAE@XZ:
  00008	b8 00 00 00 00	 mov	 eax, OFFSET FLAT:$T112056
  0000d	e9 00 00 00 00	 jmp	 ___CxxFrameHandler
text$x	ENDS
??0?$basic_string@DV?$char_traits@D@_STL@@V?$allocator@D@2@@_STL@@QAE@XZ ENDP ; _STL::basic_string<char,_STL::char_traits<char>,_STL::allocator<char> >::basic_string<char,_STL::char_traits<char>,_STL::allocator<char> >
PUBLIC	??1?$map@GUGUILD_SPRITES@MGuildMarkManager@@U?$less@G@_STL@@V?$allocator@U?$pair@$$CBGUGUILD_SPRITES@MGuildMarkManager@@@_STL@@@4@@_STL@@QAE@XZ ; _STL::map<unsigned short,MGuildMarkManager::GUILD_SPRITES,_STL::less<unsigned short>,_STL::allocator<_STL::pair<unsigned short const ,MGuildMarkManager::GUILD_SPRITES> > >::~map<unsigned short,MGuildMarkManager::GUILD_SPRITES,_STL::less<unsigned short>,_STL::allocator<_STL::pair<unsigned short const ,MGuildMarkManager::GUILD_SPRITES> > >
; Function compile flags: /Ogsy
;	COMDAT ??1?$map@GUGUILD_SPRITES@MGuildMarkManager@@U?$less@G@_STL@@V?$allocator@U?$pair@$$CBGUGUILD_SPRITES@MGuildMarkManager@@@_STL@@@4@@_STL@@QAE@XZ
_TEXT	SEGMENT
??1?$map@GUGUILD_SPRITES@MGuildMarkManager@@U?$less@G@_STL@@V?$allocator@U?$pair@$$CBGUGUILD_SPRITES@MGuildMarkManager@@@_STL@@@4@@_STL@@QAE@XZ PROC NEAR ; _STL::map<unsigned short,MGuildMarkManager::GUILD_SPRITES,_STL::less<unsigned short>,_STL::allocator<_STL::pair<unsigned short const ,MGuildMarkManager::GUILD_SPRITES> > >::~map<unsigned short,MGuildMarkManager::GUILD_SPRITES,_STL::less<unsigned short>,_STL::allocator<_STL::pair<unsigned short const ,MGuildMarkManager::GUILD_SPRITES> > >, COMDAT
; _this$ = ecx
  00000	e9 00 00 00 00	 jmp	 ??1?$_Rb_tree@GU?$pair@$$CBGUGUILD_SPRITES@MGuildMarkManager@@@_STL@@U?$_Select1st@U?$pair@$$CBGUGUILD_SPRITES@MGuildMarkManager@@@_STL@@@2@U?$less@G@2@V?$allocator@U?$pair@$$CBGUGUILD_SPRITES@MGuildMarkManager@@@_STL@@@2@@_STL@@QAE@XZ ; _STL::_Rb_tree<unsigned short,_STL::pair<unsigned short const ,MGuildMarkManager::GUILD_SPRITES>,_STL::_Select1st<_STL::pair<unsigned short const ,MGuildMarkManager::GUILD_SPRITES> >,_STL::less<unsigned short>,_STL::allocator<_STL::pair<unsigned short const ,MGuildMarkManager::GUILD_SPRITES> > >::~_Rb_tree<unsigned short,_STL::pair<unsigned short const ,MGuildMarkManager::GUILD_SPRITES>,_STL::_Select1st<_STL::pair<unsigned short const ,MGuildMarkManager::GUILD_SPRITES> >,_STL::less<unsigned short>,_STL::allocator<_STL::pair<unsigned short const ,MGuildMarkManager::GUILD_SPRITES> > >
??1?$map@GUGUILD_SPRITES@MGuildMarkManager@@U?$less@G@_STL@@V?$allocator@U?$pair@$$CBGUGUILD_SPRITES@MGuildMarkManager@@@_STL@@@4@@_STL@@QAE@XZ ENDP ; _STL::map<unsigned short,MGuildMarkManager::GUILD_SPRITES,_STL::less<unsigned short>,_STL::allocator<_STL::pair<unsigned short const ,MGuildMarkManager::GUILD_SPRITES> > >::~map<unsigned short,MGuildMarkManager::GUILD_SPRITES,_STL::less<unsigned short>,_STL::allocator<_STL::pair<unsigned short const ,MGuildMarkManager::GUILD_SPRITES> > >
_TEXT	ENDS
PUBLIC	?Release@MGuildMarkManager@@QAEXXZ		; MGuildMarkManager::Release
; Function compile flags: /Ogsy
; File c:\darkeden\designed_common\project\client\mguildmarkmanager.cpp
;	COMDAT ?Release@MGuildMarkManager@@QAEXXZ
_TEXT	SEGMENT
?Release@MGuildMarkManager@@QAEXXZ PROC NEAR		; MGuildMarkManager::Release, COMDAT
; _this$ = ecx

; 75   : 	// m_GuildMarks   delete .
; 76   : 	/*
; 77   : 	GUILDMARK_MAP::iterator iMark = m_GuildMarksMap.begin();
; 78   : 
; 79   : 	while (iMark != m_GuildMarksMap.end())
; 80   : 	{
; 81   : 		CSprite* pSprite = iMark->second.pSprite;
; 82   : 		CSprite* pSpriteSmall = iMark->second.pSpriteSmall;
; 83   : 
; 84   : 		if (pSprite!=NULL)
; 85   : 		{
; 86   : 			delete pSprite;
; 87   : 		}
; 88   : 
; 89   : 		if (pSpriteSmall!=NULL)
; 90   : 		{
; 91   : 			delete pSpriteSmall;
; 92   : 		}
; 93   : 
; 94   : 		iMark++;
; 95   : 	}
; 96   : 	*/
; 97   : 
; 98   : 	m_GuildMarksMap.clear();

  00000	e9 00 00 00 00	 jmp	 ?clear@?$_Rb_tree@GU?$pair@$$CBGUGUILD_SPRITES@MGuildMarkManager@@@_STL@@U?$_Select1st@U?$pair@$$CBGUGUILD_SPRITES@MGuildMarkManager@@@_STL@@@2@U?$less@G@2@V?$allocator@U?$pair@$$CBGUGUILD_SPRITES@MGuildMarkManager@@@_STL@@@2@@_STL@@QAEXXZ ; _STL::_Rb_tree<unsigned short,_STL::pair<unsigned short const ,MGuildMarkManager::GUILD_SPRITES>,_STL::_Select1st<_STL::pair<unsigned short const ,MGuildMarkManager::GUILD_SPRITES> >,_STL::less<unsigned short>,_STL::allocator<_STL::pair<unsigned short const ,MGuildMarkManager::GUILD_SPRITES> > >::clear
?Release@MGuildMarkManager@@QAEXXZ ENDP			; MGuildMarkManager::Release
_TEXT	ENDS
PUBLIC	?HasGuildMark@MGuildMarkManager@@QBE_NG@Z	; MGuildMarkManager::HasGuildMark
; Function compile flags: /Ogsy
;	COMDAT ?HasGuildMark@MGuildMarkManager@@QBE_NG@Z
_TEXT	SEGMENT
_guildID$ = 8						; size = 2
?HasGuildMark@MGuildMarkManager@@QBE_NG@Z PROC NEAR	; MGuildMarkManager::HasGuildMark, COMDAT
; _this$ = ecx

; 265  : {

  00000	56		 push	 esi

; 266  : 	GUILDMARK_MAP::const_iterator iMark = m_GuildMarksMap.find(guildID);

  00001	8d 44 24 08	 lea	 eax, DWORD PTR _guildID$[esp]
  00005	50		 push	 eax
  00006	8b f1		 mov	 esi, ecx
  00008	e8 00 00 00 00	 call	 ??$_M_find@G@?$_Rb_tree@GU?$pair@$$CBGUGUILD_SPRITES@MGuildMarkManager@@@_STL@@U?$_Select1st@U?$pair@$$CBGUGUILD_SPRITES@MGuildMarkManager@@@_STL@@@2@U?$less@G@2@V?$allocator@U?$pair@$$CBGUGUILD_SPRITES@MGuildMarkManager@@@_STL@@@2@@_STL@@ABEPAU?$_Rb_tree_node@U?$pair@$$CBGUGUILD_SPRITES@MGuildMarkManager@@@_STL@@@1@ABG@Z ; _STL::_Rb_tree<unsigned short,_STL::pair<unsigned short const ,MGuildMarkManager::GUILD_SPRITES>,_STL::_Select1st<_STL::pair<unsigned short const ,MGuildMarkManager::GUILD_SPRITES> >,_STL::less<unsigned short>,_STL::allocator<_STL::pair<unsigned short const ,MGuildMarkManager::GUILD_SPRITES> > >::_M_find<unsigned short>

; 267  : 
; 268  : 	if (iMark != m_GuildMarksMap.end())

  0000d	3b 06		 cmp	 eax, DWORD PTR [esi]
  0000f	5e		 pop	 esi
  00010	0f 95 c0	 setne	 al

; 269  : 	{
; 270  : 		return true;
; 271  : 	}
; 272  : 
; 273  : 	return false;
; 274  : }

  00013	c2 04 00	 ret	 4
?HasGuildMark@MGuildMarkManager@@QBE_NG@Z ENDP		; MGuildMarkManager::HasGuildMark
_TEXT	ENDS
PUBLIC	??0?$map@GUGUILD_SPRITES@MGuildMarkManager@@U?$less@G@_STL@@V?$allocator@U?$pair@$$CBGUGUILD_SPRITES@MGuildMarkManager@@@_STL@@@4@@_STL@@QAE@XZ ; _STL::map<unsigned short,MGuildMarkManager::GUILD_SPRITES,_STL::less<unsigned short>,_STL::allocator<_STL::pair<unsigned short const ,MGuildMarkManager::GUILD_SPRITES> > >::map<unsigned short,MGuildMarkManager::GUILD_SPRITES,_STL::less<unsigned short>,_STL::allocator<_STL::pair<unsigned short const ,MGuildMarkManager::GUILD_SPRITES> > >
; Function compile flags: /Ogsy
; File c:\stlport-4.6.1\stlport\stl\_map.h
;	COMDAT ??0?$map@GUGUILD_SPRITES@MGuildMarkManager@@U?$less@G@_STL@@V?$allocator@U?$pair@$$CBGUGUILD_SPRITES@MGuildMarkManager@@@_STL@@@4@@_STL@@QAE@XZ
_TEXT	SEGMENT
$T112113 = -1						; size = 1
$T112112 = -1						; size = 1
??0?$map@GUGUILD_SPRITES@MGuildMarkManager@@U?$less@G@_STL@@V?$allocator@U?$pair@$$CBGUGUILD_SPRITES@MGuildMarkManager@@@_STL@@@4@@_STL@@QAE@XZ PROC NEAR ; _STL::map<unsigned short,MGuildMarkManager::GUILD_SPRITES,_STL::less<unsigned short>,_STL::allocator<_STL::pair<unsigned short const ,MGuildMarkManager::GUILD_SPRITES> > >::map<unsigned short,MGuildMarkManager::GUILD_SPRITES,_STL::less<unsigned short>,_STL::allocator<_STL::pair<unsigned short const ,MGuildMarkManager::GUILD_SPRITES> > >, COMDAT
; _this$ = ecx

; 91   :   map() : _M_t(_Compare(), allocator_type()) {}

  00000	55		 push	 ebp
  00001	8b ec		 mov	 ebp, esp
  00003	51		 push	 ecx
  00004	56		 push	 esi
  00005	8d 45 ff	 lea	 eax, DWORD PTR $T112112[ebp]
  00008	50		 push	 eax
  00009	8d 45 ff	 lea	 eax, DWORD PTR $T112113[ebp]
  0000c	50		 push	 eax
  0000d	8b f1		 mov	 esi, ecx
  0000f	e8 00 00 00 00	 call	 ??0?$_Rb_tree@GU?$pair@$$CBGUGUILD_SPRITES@MGuildMarkManager@@@_STL@@U?$_Select1st@U?$pair@$$CBGUGUILD_SPRITES@MGuildMarkManager@@@_STL@@@2@U?$less@G@2@V?$allocator@U?$pair@$$CBGUGUILD_SPRITES@MGuildMarkManager@@@_STL@@@2@@_STL@@QAE@ABU?$less@G@1@ABV?$allocator@U?$pair@$$CBGUGUILD_SPRITES@MGuildMarkManager@@@_STL@@@1@@Z ; _STL::_Rb_tree<unsigned short,_STL::pair<unsigned short const ,MGuildMarkManager::GUILD_SPRITES>,_STL::_Select1st<_STL::pair<unsigned short const ,MGuildMarkManager::GUILD_SPRITES> >,_STL::less<unsigned short>,_STL::allocator<_STL::pair<unsigned short const ,MGuildMarkManager::GUILD_SPRITES> > >::_Rb_tree<unsigned short,_STL::pair<unsigned short const ,MGuildMarkManager::GUILD_SPRITES>,_STL::_Select1st<_STL::pair<unsigned short const ,MGuildMarkManager::GUILD_SPRITES> >,_STL::less<unsigned short>,_STL::allocator<_STL::pair<unsigned short const ,MGuildMarkManager::GUILD_SPRITES> > >
  00014	8b c6		 mov	 eax, esi
  00016	5e		 pop	 esi
  00017	c9		 leave
  00018	c3		 ret	 0
??0?$map@GUGUILD_SPRITES@MGuildMarkManager@@U?$less@G@_STL@@V?$allocator@U?$pair@$$CBGUGUILD_SPRITES@MGuildMarkManager@@@_STL@@@4@@_STL@@QAE@XZ ENDP ; _STL::map<unsigned short,MGuildMarkManager::GUILD_SPRITES,_STL::less<unsigned short>,_STL::allocator<_STL::pair<unsigned short const ,MGuildMarkManager::GUILD_SPRITES> > >::map<unsigned short,MGuildMarkManager::GUILD_SPRITES,_STL::less<unsigned short>,_STL::allocator<_STL::pair<unsigned short const ,MGuildMarkManager::GUILD_SPRITES> > >
_TEXT	ENDS
PUBLIC	?find@?$map@GPAVGUILD_INFO@@U?$less@G@_STL@@V?$allocator@U?$pair@$$CBGPAVGUILD_INFO@@@_STL@@@3@@_STL@@QAE?AU?$_Rb_tree_iterator@U?$pair@$$CBGPAVGUILD_INFO@@@_STL@@U?$_Nonconst_traits@U?$pair@$$CBGPAVGUILD_INFO@@@_STL@@@2@@2@ABG@Z ; _STL::map<unsigned short,GUILD_INFO *,_STL::less<unsigned short>,_STL::allocator<_STL::pair<unsigned short const ,GUILD_INFO *> > >::find
; Function compile flags: /Ogsy
;	COMDAT ?find@?$map@GPAVGUILD_INFO@@U?$less@G@_STL@@V?$allocator@U?$pair@$$CBGPAVGUILD_INFO@@@_STL@@@3@@_STL@@QAE?AU?$_Rb_tree_iterator@U?$pair@$$CBGPAVGUILD_INFO@@@_STL@@U?$_Nonconst_traits@U?$pair@$$CBGPAVGUILD_INFO@@@_STL@@@2@@2@ABG@Z
_TEXT	SEGMENT
___$ReturnUdt$ = 8					; size = 4
___x$ = 12						; size = 4
?find@?$map@GPAVGUILD_INFO@@U?$less@G@_STL@@V?$allocator@U?$pair@$$CBGPAVGUILD_INFO@@@_STL@@@3@@_STL@@QAE?AU?$_Rb_tree_iterator@U?$pair@$$CBGPAVGUILD_INFO@@@_STL@@U?$_Nonconst_traits@U?$pair@$$CBGPAVGUILD_INFO@@@_STL@@@2@@2@ABG@Z PROC NEAR ; _STL::map<unsigned short,GUILD_INFO *,_STL::less<unsigned short>,_STL::allocator<_STL::pair<unsigned short const ,GUILD_INFO *> > >::find, COMDAT
; _this$ = ecx

; 195  :   iterator find(const key_type& __x) { return _M_t.find(__x); }

  00000	ff 74 24 08	 push	 DWORD PTR ___x$[esp-4]
  00004	e8 00 00 00 00	 call	 ??$_M_find@G@?$_Rb_tree@GU?$pair@$$CBGPAVGUILD_INFO@@@_STL@@U?$_Select1st@U?$pair@$$CBGPAVGUILD_INFO@@@_STL@@@2@U?$less@G@2@V?$allocator@U?$pair@$$CBGPAVGUILD_INFO@@@_STL@@@2@@_STL@@ABEPAU?$_Rb_tree_node@U?$pair@$$CBGPAVGUILD_INFO@@@_STL@@@1@ABG@Z ; _STL::_Rb_tree<unsigned short,_STL::pair<unsigned short const ,GUILD_INFO *>,_STL::_Select1st<_STL::pair<unsigned short const ,GUILD_INFO *> >,_STL::less<unsigned short>,_STL::allocator<_STL::pair<unsigned short const ,GUILD_INFO *> > >::_M_find<unsigned short>
  00009	8b 4c 24 04	 mov	 ecx, DWORD PTR ___$ReturnUdt$[esp-4]
  0000d	89 01		 mov	 DWORD PTR [ecx], eax
  0000f	8b c1		 mov	 eax, ecx
  00011	c2 08 00	 ret	 8
?find@?$map@GPAVGUILD_INFO@@U?$less@G@_STL@@V?$allocator@U?$pair@$$CBGPAVGUILD_INFO@@@_STL@@@3@@_STL@@QAE?AU?$_Rb_tree_iterator@U?$pair@$$CBGPAVGUILD_INFO@@@_STL@@U?$_Nonconst_traits@U?$pair@$$CBGPAVGUILD_INFO@@@_STL@@@2@@2@ABG@Z ENDP ; _STL::map<unsigned short,GUILD_INFO *,_STL::less<unsigned short>,_STL::allocator<_STL::pair<unsigned short const ,GUILD_INFO *> > >::find
_TEXT	ENDS
PUBLIC	?lower_bound@?$map@GUGUILD_SPRITES@MGuildMarkManager@@U?$less@G@_STL@@V?$allocator@U?$pair@$$CBGUGUILD_SPRITES@MGuildMarkManager@@@_STL@@@4@@_STL@@QAE?AU?$_Rb_tree_iterator@U?$pair@$$CBGUGUILD_SPRITES@MGuildMarkManager@@@_STL@@U?$_Nonconst_traits@U?$pair@$$CBGUGUILD_SPRITES@MGuildMarkManager@@@_STL@@@2@@2@ABG@Z ; _STL::map<unsigned short,MGuildMarkManager::GUILD_SPRITES,_STL::less<unsigned short>,_STL::allocator<_STL::pair<unsigned short const ,MGuildMarkManager::GUILD_SPRITES> > >::lower_bound
; Function compile flags: /Ogsy
;	COMDAT ?lower_bound@?$map@GUGUILD_SPRITES@MGuildMarkManager@@U?$less@G@_STL@@V?$allocator@U?$pair@$$CBGUGUILD_SPRITES@MGuildMarkManager@@@_STL@@@4@@_STL@@QAE?AU?$_Rb_tree_iterator@U?$pair@$$CBGUGUILD_SPRITES@MGuildMarkManager@@@_STL@@U?$_Nonconst_traits@U?$pair@$$CBGUGUILD_SPRITES@MGuildMarkManager@@@_STL@@@2@@2@ABG@Z
_TEXT	SEGMENT
___$ReturnUdt$ = 8					; size = 4
___x$ = 12						; size = 4
?lower_bound@?$map@GUGUILD_SPRITES@MGuildMarkManager@@U?$less@G@_STL@@V?$allocator@U?$pair@$$CBGUGUILD_SPRITES@MGuildMarkManager@@@_STL@@@4@@_STL@@QAE?AU?$_Rb_tree_iterator@U?$pair@$$CBGUGUILD_SPRITES@MGuildMarkManager@@@_STL@@U?$_Nonconst_traits@U?$pair@$$CBGUGUILD_SPRITES@MGuildMarkManager@@@_STL@@@2@@2@ABG@Z PROC NEAR ; _STL::map<unsigned short,MGuildMarkManager::GUILD_SPRITES,_STL::less<unsigned short>,_STL::allocator<_STL::pair<unsigned short const ,MGuildMarkManager::GUILD_SPRITES> > >::lower_bound, COMDAT
; _this$ = ecx

; 200  :   iterator lower_bound(const key_type& __x) {return _M_t.lower_bound(__x); }

  00000	ff 74 24 08	 push	 DWORD PTR ___x$[esp-4]
  00004	e8 00 00 00 00	 call	 ?_M_lower_bound@?$_Rb_tree@GU?$pair@$$CBGUGUILD_SPRITES@MGuildMarkManager@@@_STL@@U?$_Select1st@U?$pair@$$CBGUGUILD_SPRITES@MGuildMarkManager@@@_STL@@@2@U?$less@G@2@V?$allocator@U?$pair@$$CBGUGUILD_SPRITES@MGuildMarkManager@@@_STL@@@2@@_STL@@ABEPAU?$_Rb_tree_node@U?$pair@$$CBGUGUILD_SPRITES@MGuildMarkManager@@@_STL@@@2@ABG@Z ; _STL::_Rb_tree<unsigned short,_STL::pair<unsigned short const ,MGuildMarkManager::GUILD_SPRITES>,_STL::_Select1st<_STL::pair<unsigned short const ,MGuildMarkManager::GUILD_SPRITES> >,_STL::less<unsigned short>,_STL::allocator<_STL::pair<unsigned short const ,MGuildMarkManager::GUILD_SPRITES> > >::_M_lower_bound
  00009	8b 4c 24 04	 mov	 ecx, DWORD PTR ___$ReturnUdt$[esp-4]
  0000d	89 01		 mov	 DWORD PTR [ecx], eax
  0000f	8b c1		 mov	 eax, ecx
  00011	c2 08 00	 ret	 8
?lower_bound@?$map@GUGUILD_SPRITES@MGuildMarkManager@@U?$less@G@_STL@@V?$allocator@U?$pair@$$CBGUGUILD_SPRITES@MGuildMarkManager@@@_STL@@@4@@_STL@@QAE?AU?$_Rb_tree_iterator@U?$pair@$$CBGUGUILD_SPRITES@MGuildMarkManager@@@_STL@@U?$_Nonconst_traits@U?$pair@$$CBGUGUILD_SPRITES@MGuildMarkManager@@@_STL@@@2@@2@ABG@Z ENDP ; _STL::map<unsigned short,MGuildMarkManager::GUILD_SPRITES,_STL::less<unsigned short>,_STL::allocator<_STL::pair<unsigned short const ,MGuildMarkManager::GUILD_SPRITES> > >::lower_bound
_TEXT	ENDS
PUBLIC	?insert_unique@?$_Rb_tree@GU?$pair@$$CBGUGUILD_SPRITES@MGuildMarkManager@@@_STL@@U?$_Select1st@U?$pair@$$CBGUGUILD_SPRITES@MGuildMarkManager@@@_STL@@@2@U?$less@G@2@V?$allocator@U?$pair@$$CBGUGUILD_SPRITES@MGuildMarkManager@@@_STL@@@2@@_STL@@QAE?AU?$_Rb_tree_iterator@U?$pair@$$CBGUGUILD_SPRITES@MGuildMarkManager@@@_STL@@U?$_Nonconst_traits@U?$pair@$$CBGUGUILD_SPRITES@MGuildMarkManager@@@_STL@@@2@@2@U32@ABU?$pair@$$CBGUGUILD_SPRITES@MGuildMarkManager@@@2@@Z ; _STL::_Rb_tree<unsigned short,_STL::pair<unsigned short const ,MGuildMarkManager::GUILD_SPRITES>,_STL::_Select1st<_STL::pair<unsigned short const ,MGuildMarkManager::GUILD_SPRITES> >,_STL::less<unsigned short>,_STL::allocator<_STL::pair<unsigned short const ,MGuildMarkManager::GUILD_SPRITES> > >::insert_unique
; Function compile flags: /Ogsy
; File c:\stlport-4.6.1\stlport\stl\_tree.c
;	COMDAT ?insert_unique@?$_Rb_tree@GU?$pair@$$CBGUGUILD_SPRITES@MGuildMarkManager@@@_STL@@U?$_Select1st@U?$pair@$$CBGUGUILD_SPRITES@MGuildMarkManager@@@_STL@@@2@U?$less@G@2@V?$allocator@U?$pair@$$CBGUGUILD_SPRITES@MGuildMarkManager@@@_STL@@@2@@_STL@@QAE?AU?$_Rb_tree_iterator@U?$pair@$$CBGUGUILD_SPRITES@MGuildMarkManager@@@_STL@@U?$_Nonconst_traits@U?$pair@$$CBGUGUILD_SPRITES@MGuildMarkManager@@@_STL@@@2@@2@U32@ABU?$pair@$$CBGUGUILD_SPRITES@MGuildMarkManager@@@2@@Z
_TEXT	SEGMENT
$T112158 = -8						; size = 8
___$ReturnUdt$ = 8					; size = 4
___position$ = 12					; size = 4
___v$ = 16						; size = 4
___comp_v_pos$107499 = 19				; size = 1
?insert_unique@?$_Rb_tree@GU?$pair@$$CBGUGUILD_SPRITES@MGuildMarkManager@@@_STL@@U?$_Select1st@U?$pair@$$CBGUGUILD_SPRITES@MGuildMarkManager@@@_STL@@@2@U?$less@G@2@V?$allocator@U?$pair@$$CBGUGUILD_SPRITES@MGuildMarkManager@@@_STL@@@2@@_STL@@QAE?AU?$_Rb_tree_iterator@U?$pair@$$CBGUGUILD_SPRITES@MGuildMarkManager@@@_STL@@U?$_Nonconst_traits@U?$pair@$$CBGUGUILD_SPRITES@MGuildMarkManager@@@_STL@@@2@@2@U32@ABU?$pair@$$CBGUGUILD_SPRITES@MGuildMarkManager@@@2@@Z PROC NEAR ; _STL::_Rb_tree<unsigned short,_STL::pair<unsigned short const ,MGuildMarkManager::GUILD_SPRITES>,_STL::_Select1st<_STL::pair<unsigned short const ,MGuildMarkManager::GUILD_SPRITES> >,_STL::less<unsigned short>,_STL::allocator<_STL::pair<unsigned short const ,MGuildMarkManager::GUILD_SPRITES> > >::insert_unique, COMDAT
; _this$ = ecx

; 426  : {

  00000	55		 push	 ebp
  00001	8b ec		 mov	 ebp, esp
  00003	51		 push	 ecx
  00004	51		 push	 ecx
  00005	53		 push	 ebx
  00006	56		 push	 esi

; 427  :   if (__position._M_node == this->_M_header._M_data->_M_left) { // begin()

  00007	8b 75 0c	 mov	 esi, DWORD PTR ___position$[ebp]
  0000a	57		 push	 edi
  0000b	8b f9		 mov	 edi, ecx
  0000d	8b 07		 mov	 eax, DWORD PTR [edi]
  0000f	3b 70 08	 cmp	 esi, DWORD PTR [eax+8]
  00012	75 68		 jne	 SHORT $L107450

; 428  : 
; 429  :     // if the container is empty, fall back on insert_unique.
; 430  :     if (size() <= 0)

  00014	83 7f 04 00	 cmp	 DWORD PTR [edi+4], 0
  00018	77 08		 ja	 SHORT $L107451

; 431  :       return insert_unique(__v).first;

  0001a	ff 75 10	 push	 DWORD PTR ___v$[ebp]
  0001d	e9 fb 00 00 00	 jmp	 $L112388
$L107451:

; 432  : 
; 433  :     if ( _M_key_compare(_KeyOfValue()(__v), _S_key(__position._M_node)))

  00022	8b 5d 10	 mov	 ebx, DWORD PTR ___v$[ebp]
  00025	66 8b 03	 mov	 ax, WORD PTR [ebx]
  00028	66 8b 4e 10	 mov	 cx, WORD PTR [esi+16]
  0002c	66 3b c8	 cmp	 cx, ax
  0002f	76 07		 jbe	 SHORT $L112389

; 434  :       return _M_insert(__position._M_node, __position._M_node, __v);

  00031	6a 00		 push	 0
  00033	e9 92 00 00 00	 jmp	 $L112393
$L112389:

; 435  :     // first argument just needs to be non-null 
; 436  :     else
; 437  :       {
; 438  : 	bool __comp_pos_v = _M_key_compare( _S_key(__position._M_node), _KeyOfValue()(__v) );
; 439  : 	
; 440  : 	if (__comp_pos_v == false)  // compare > and compare < both false so compare equal

  00038	72 0a		 jb	 SHORT $L107478
$L112386:

; 441  : 	  return __position;

  0003a	8b 45 08	 mov	 eax, DWORD PTR ___$ReturnUdt$[ebp]
  0003d	89 30		 mov	 DWORD PTR [eax], esi
  0003f	e9 eb 00 00 00	 jmp	 $L107521
$L107478:

; 442  : 	//Below __comp_pos_v == true
; 443  : 
; 444  : 	// Standard-conformance - does the insertion point fall immediately AFTER
; 445  : 	// the hint?
; 446  : 	iterator __after = __position;
; 447  : 	++__after;

  00044	56		 push	 esi
  00045	e8 00 00 00 00	 call	 ?_M_increment@?$_Rb_global@_N@_STL@@SAPAU_Rb_tree_node_base@2@PAU32@@Z ; _STL::_Rb_global<bool>::_M_increment

; 448  : 
; 449  : 	// Check for only one member -- in that case, __position points to itself,
; 450  : 	// and attempting to increment will cause an infinite loop.
; 451  : 	if (__after._M_node == this->_M_header._M_data)

  0004a	3b 07		 cmp	 eax, DWORD PTR [edi]
  0004c	59		 pop	 ecx
  0004d	75 05		 jne	 SHORT $L107480

; 452  : 	  // Check guarantees exactly one member, so comparison was already
; 453  : 	  // performed and we know the result; skip repeating it in _M_insert
; 454  : 	  // by specifying a non-zero fourth argument.
; 455  : 	  return _M_insert(0, __position._M_node, __v, __position._M_node);

  0004f	56		 push	 esi
  00050	53		 push	 ebx
  00051	56		 push	 esi
  00052	eb 3e		 jmp	 SHORT $L112394
$L107480:

; 456  : 		
; 457  : 	
; 458  : 	// All other cases:
; 459  : 	
; 460  : 	// Optimization to catch insert-equivalent -- save comparison results,
; 461  : 	// and we get this for free.
; 462  : 	if(_M_key_compare( _KeyOfValue()(__v), _S_key(__after._M_node) )) {

  00054	66 8b 0b	 mov	 cx, WORD PTR [ebx]
  00057	66 3b 48 10	 cmp	 cx, WORD PTR [eax+16]
  0005b	0f 83 bb 00 00
	00		 jae	 $L107520

; 463  : 	  if (_S_right(__position._M_node) == 0)
; 464  : 	    return _M_insert(0, __position._M_node, __v, __position._M_node);

  00061	e9 99 00 00 00	 jmp	 $L107514
$L107484:

; 465  : 	  else
; 466  : 	    return _M_insert(__after._M_node, __after._M_node, __v);

  00066	51		 push	 ecx
  00067	53		 push	 ebx
  00068	50		 push	 eax
  00069	50		 push	 eax
$L112391:
  0006a	ff 75 08	 push	 DWORD PTR ___$ReturnUdt$[ebp]
  0006d	8b cf		 mov	 ecx, edi
  0006f	e8 00 00 00 00	 call	 ?_M_insert@?$_Rb_tree@GU?$pair@$$CBGUGUILD_SPRITES@MGuildMarkManager@@@_STL@@U?$_Select1st@U?$pair@$$CBGUGUILD_SPRITES@MGuildMarkManager@@@_STL@@@2@U?$less@G@2@V?$allocator@U?$pair@$$CBGUGUILD_SPRITES@MGuildMarkManager@@@_STL@@@2@@_STL@@AAE?AU?$_Rb_tree_iterator@U?$pair@$$CBGUGUILD_SPRITES@MGuildMarkManager@@@_STL@@U?$_Nonconst_traits@U?$pair@$$CBGUGUILD_SPRITES@MGuildMarkManager@@@_STL@@@2@@2@PAU_Rb_tree_node_base@2@0ABU?$pair@$$CBGUGUILD_SPRITES@MGuildMarkManager@@@2@0@Z ; _STL::_Rb_tree<unsigned short,_STL::pair<unsigned short const ,MGuildMarkManager::GUILD_SPRITES>,_STL::_Select1st<_STL::pair<unsigned short const ,MGuildMarkManager::GUILD_SPRITES> >,_STL::less<unsigned short>,_STL::allocator<_STL::pair<unsigned short const ,MGuildMarkManager::GUILD_SPRITES> > >::_M_insert
  00074	8b 45 08	 mov	 eax, DWORD PTR ___$ReturnUdt$[ebp]

; 467  : 	} else {
; 468  : 	    return insert_unique(__v).first;

  00077	e9 b3 00 00 00	 jmp	 $L107521
$L107450:

; 469  : 	}
; 470  :       }
; 471  : 
; 472  :   } else if (__position._M_node == this->_M_header._M_data) { // end()

  0007c	3b f0		 cmp	 esi, eax
  0007e	75 1c		 jne	 SHORT $L107491

; 473  :     if (_M_key_compare(_S_key(_M_rightmost()), _KeyOfValue()(__v)))

  00080	8b 40 0c	 mov	 eax, DWORD PTR [eax+12]
  00083	66 8b 50 10	 mov	 dx, WORD PTR [eax+16]
  00087	8b 4d 10	 mov	 ecx, DWORD PTR ___v$[ebp]
  0008a	66 3b 11	 cmp	 dx, WORD PTR [ecx]
  0008d	73 07		 jae	 SHORT $L107493

; 474  :       // pass along to _M_insert that it can skip comparing
; 475  :       // v, Key ; since compare Key, v was true, compare v, Key must be false.
; 476  :       return _M_insert(0, _M_rightmost(), __v, __position._M_node); // Last argument only needs to be non-null

  0008f	56		 push	 esi
  00090	51		 push	 ecx
  00091	50		 push	 eax
$L112394:
  00092	6a 00		 push	 0
  00094	eb d4		 jmp	 SHORT $L112391
$L107493:

; 477  :     else
; 478  :       return insert_unique(__v).first;

  00096	51		 push	 ecx
  00097	e9 81 00 00 00	 jmp	 $L112388
$L107491:

; 479  :   } else {
; 480  :     iterator __before = __position;
; 481  :     --__before;

  0009c	56		 push	 esi
  0009d	e8 00 00 00 00	 call	 ?_M_decrement@?$_Rb_global@_N@_STL@@SAPAU_Rb_tree_node_base@2@PAU32@@Z ; _STL::_Rb_global<bool>::_M_decrement

; 482  :     
; 483  :     bool __comp_v_pos = _M_key_compare(_KeyOfValue()(__v), _S_key(__position._M_node));

  000a2	8b 5d 10	 mov	 ebx, DWORD PTR ___v$[ebp]
  000a5	59		 pop	 ecx
  000a6	66 8b 0b	 mov	 cx, WORD PTR [ebx]
  000a9	66 3b 4e 10	 cmp	 cx, WORD PTR [esi+16]
  000ad	0f 92 45 13	 setb	 BYTE PTR ___comp_v_pos$107499[ebp]

; 484  : 
; 485  :     if (__comp_v_pos
; 486  :       && _M_key_compare( _S_key(__before._M_node), _KeyOfValue()(__v) )) {

  000b1	80 7d 13 00	 cmp	 BYTE PTR ___comp_v_pos$107499[ebp], 0
  000b5	74 18		 je	 SHORT $L107502
  000b7	66 39 48 10	 cmp	 WORD PTR [eax+16], cx
  000bb	73 12		 jae	 SHORT $L107502

; 487  : 
; 488  :       if (_S_right(__before._M_node) == 0)

  000bd	33 c9		 xor	 ecx, ecx
  000bf	39 48 0c	 cmp	 DWORD PTR [eax+12], ecx
  000c2	75 05		 jne	 SHORT $L107503

; 489  :         return _M_insert(0, __before._M_node, __v, __before._M_node); // Last argument only needs to be non-null

  000c4	50		 push	 eax
  000c5	53		 push	 ebx
  000c6	50		 push	 eax
  000c7	eb 44		 jmp	 SHORT $L112392
$L107503:

; 490  :       else
; 491  :         return _M_insert(__position._M_node, __position._M_node, __v);

  000c9	51		 push	 ecx
$L112393:
  000ca	53		 push	 ebx
  000cb	56		 push	 esi
  000cc	56		 push	 esi
  000cd	eb 9b		 jmp	 SHORT $L112391
$L107502:

; 492  :     // first argument just needs to be non-null 
; 493  :     } else
; 494  :       {
; 495  : 	// Does the insertion point fall immediately AFTER the hint?
; 496  : 	iterator __after = __position;
; 497  : 	++__after;

  000cf	56		 push	 esi
  000d0	e8 00 00 00 00	 call	 ?_M_increment@?$_Rb_global@_N@_STL@@SAPAU_Rb_tree_node_base@2@PAU32@@Z ; _STL::_Rb_global<bool>::_M_increment

; 498  : 	
; 499  : 	// Optimization to catch equivalent cases and avoid unnecessary comparisons
; 500  : 	bool __comp_pos_v = !__comp_v_pos;  // Stored this result earlier

  000d5	80 7d 13 00	 cmp	 BYTE PTR ___comp_v_pos$107499[ebp], 0
  000d9	59		 pop	 ecx
  000da	0f 94 c2	 sete	 dl

; 501  : 	// If the earlier comparison was true, this comparison doesn't need to be
; 502  : 	// performed because it must be false.  However, if the earlier comparison
; 503  : 	// was false, we need to perform this one because in the equal case, both will
; 504  : 	// be false.
; 505  : 	if (!__comp_v_pos) __comp_pos_v = _M_key_compare(_S_key(__position._M_node), _KeyOfValue()(__v));

  000dd	80 7d 13 00	 cmp	 BYTE PTR ___comp_v_pos$107499[ebp], 0
  000e1	75 30		 jne	 SHORT $L112387
  000e3	66 8b 0b	 mov	 cx, WORD PTR [ebx]
  000e6	66 39 4e 10	 cmp	 WORD PTR [esi+16], cx
  000ea	0f 92 c2	 setb	 dl

; 506  : 	
; 507  : 	if ( (!__comp_v_pos) // comp_v_pos true implies comp_v_pos false
; 508  : 	     && __comp_pos_v
; 509  : 	     && (__after._M_node == this->_M_header._M_data ||
; 510  : 	        _M_key_compare( _KeyOfValue()(__v), _S_key(__after._M_node) ))) {

  000ed	84 d2		 test	 dl, dl
  000ef	0f 84 45 ff ff
	ff		 je	 $L112386
  000f5	3b 07		 cmp	 eax, DWORD PTR [edi]
  000f7	74 06		 je	 SHORT $L107514
  000f9	66 3b 48 10	 cmp	 cx, WORD PTR [eax+16]
  000fd	73 14		 jae	 SHORT $L112387
$L107514:

; 511  : 	  
; 512  : 	  if (_S_right(__position._M_node) == 0)

  000ff	33 c9		 xor	 ecx, ecx
  00101	39 4e 0c	 cmp	 DWORD PTR [esi+12], ecx
  00104	0f 85 5c ff ff
	ff		 jne	 $L107484

; 513  : 	    return _M_insert(0, __position._M_node, __v, __position._M_node);

  0010a	56		 push	 esi
  0010b	53		 push	 ebx
  0010c	56		 push	 esi
$L112392:
  0010d	51		 push	 ecx
  0010e	e9 57 ff ff ff	 jmp	 $L112391
$L112387:

; 514  : 	  else
; 515  : 	    return _M_insert(__after._M_node, __after._M_node, __v);
; 516  : 	} else {
; 517  : 	  // Test for equivalent case
; 518  : 	  if (__comp_v_pos == __comp_pos_v)

  00113	38 55 13	 cmp	 BYTE PTR ___comp_v_pos$107499[ebp], dl

; 519  : 	    return __position;

  00116	0f 84 1e ff ff
	ff		 je	 $L112386
$L107520:

; 520  : 	  else
; 521  : 	    return insert_unique(__v).first;

  0011c	53		 push	 ebx
$L112388:
  0011d	8d 45 f8	 lea	 eax, DWORD PTR $T112158[ebp]
  00120	8b cf		 mov	 ecx, edi
  00122	50		 push	 eax
  00123	e8 00 00 00 00	 call	 ?insert_unique@?$_Rb_tree@GU?$pair@$$CBGUGUILD_SPRITES@MGuildMarkManager@@@_STL@@U?$_Select1st@U?$pair@$$CBGUGUILD_SPRITES@MGuildMarkManager@@@_STL@@@2@U?$less@G@2@V?$allocator@U?$pair@$$CBGUGUILD_SPRITES@MGuildMarkManager@@@_STL@@@2@@_STL@@QAE?AU?$pair@U?$_Rb_tree_iterator@U?$pair@$$CBGUGUILD_SPRITES@MGuildMarkManager@@@_STL@@U?$_Nonconst_traits@U?$pair@$$CBGUGUILD_SPRITES@MGuildMarkManager@@@_STL@@@2@@_STL@@_N@2@ABU?$pair@$$CBGUGUILD_SPRITES@MGuildMarkManager@@@2@@Z ; _STL::_Rb_tree<unsigned short,_STL::pair<unsigned short const ,MGuildMarkManager::GUILD_SPRITES>,_STL::_Select1st<_STL::pair<unsigned short const ,MGuildMarkManager::GUILD_SPRITES> >,_STL::less<unsigned short>,_STL::allocator<_STL::pair<unsigned short const ,MGuildMarkManager::GUILD_SPRITES> > >::insert_unique
  00128	8b 08		 mov	 ecx, DWORD PTR [eax]
  0012a	8b 45 08	 mov	 eax, DWORD PTR ___$ReturnUdt$[ebp]
  0012d	89 08		 mov	 DWORD PTR [eax], ecx
$L107521:
  0012f	5f		 pop	 edi
  00130	5e		 pop	 esi
  00131	5b		 pop	 ebx

; 522  : 	}
; 523  :       }
; 524  :   }
; 525  : }

  00132	c9		 leave
  00133	c2 0c 00	 ret	 12			; 0000000cH
?insert_unique@?$_Rb_tree@GU?$pair@$$CBGUGUILD_SPRITES@MGuildMarkManager@@@_STL@@U?$_Select1st@U?$pair@$$CBGUGUILD_SPRITES@MGuildMarkManager@@@_STL@@@2@U?$less@G@2@V?$allocator@U?$pair@$$CBGUGUILD_SPRITES@MGuildMarkManager@@@_STL@@@2@@_STL@@QAE?AU?$_Rb_tree_iterator@U?$pair@$$CBGUGUILD_SPRITES@MGuildMarkManager@@@_STL@@U?$_Nonconst_traits@U?$pair@$$CBGUGUILD_SPRITES@MGuildMarkManager@@@_STL@@@2@@2@U32@ABU?$pair@$$CBGUGUILD_SPRITES@MGuildMarkManager@@@2@@Z ENDP ; _STL::_Rb_tree<unsigned short,_STL::pair<unsigned short const ,MGuildMarkManager::GUILD_SPRITES>,_STL::_Select1st<_STL::pair<unsigned short const ,MGuildMarkManager::GUILD_SPRITES> >,_STL::less<unsigned short>,_STL::allocator<_STL::pair<unsigned short const ,MGuildMarkManager::GUILD_SPRITES> > >::insert_unique
_TEXT	ENDS
PUBLIC	??1?$map@GPAVivfstream@@U?$less@G@_STL@@V?$allocator@U?$pair@$$CBGPAVivfstream@@@_STL@@@3@@_STL@@QAE@XZ ; _STL::map<unsigned short,ivfstream *,_STL::less<unsigned short>,_STL::allocator<_STL::pair<unsigned short const ,ivfstream *> > >::~map<unsigned short,ivfstream *,_STL::less<unsigned short>,_STL::allocator<_STL::pair<unsigned short const ,ivfstream *> > >
; Function compile flags: /Ogsy
;	COMDAT ??1?$map@GPAVivfstream@@U?$less@G@_STL@@V?$allocator@U?$pair@$$CBGPAVivfstream@@@_STL@@@3@@_STL@@QAE@XZ
_TEXT	SEGMENT
??1?$map@GPAVivfstream@@U?$less@G@_STL@@V?$allocator@U?$pair@$$CBGPAVivfstream@@@_STL@@@3@@_STL@@QAE@XZ PROC NEAR ; _STL::map<unsigned short,ivfstream *,_STL::less<unsigned short>,_STL::allocator<_STL::pair<unsigned short const ,ivfstream *> > >::~map<unsigned short,ivfstream *,_STL::less<unsigned short>,_STL::allocator<_STL::pair<unsigned short const ,ivfstream *> > >, COMDAT
; _this$ = ecx
  00000	e9 00 00 00 00	 jmp	 ??1?$_Rb_tree@GU?$pair@$$CBGPAVivfstream@@@_STL@@U?$_Select1st@U?$pair@$$CBGPAVivfstream@@@_STL@@@2@U?$less@G@2@V?$allocator@U?$pair@$$CBGPAVivfstream@@@_STL@@@2@@_STL@@QAE@XZ ; _STL::_Rb_tree<unsigned short,_STL::pair<unsigned short const ,ivfstream *>,_STL::_Select1st<_STL::pair<unsigned short const ,ivfstream *> >,_STL::less<unsigned short>,_STL::allocator<_STL::pair<unsigned short const ,ivfstream *> > >::~_Rb_tree<unsigned short,_STL::pair<unsigned short const ,ivfstream *>,_STL::_Select1st<_STL::pair<unsigned short const ,ivfstream *> >,_STL::less<unsigned short>,_STL::allocator<_STL::pair<unsigned short const ,ivfstream *> > >
??1?$map@GPAVivfstream@@U?$less@G@_STL@@V?$allocator@U?$pair@$$CBGPAVivfstream@@@_STL@@@3@@_STL@@QAE@XZ ENDP ; _STL::map<unsigned short,ivfstream *,_STL::less<unsigned short>,_STL::allocator<_STL::pair<unsigned short const ,ivfstream *> > >::~map<unsigned short,ivfstream *,_STL::less<unsigned short>,_STL::allocator<_STL::pair<unsigned short const ,ivfstream *> > >
_TEXT	ENDS
PUBLIC	??0?$map@GPAVivfstream@@U?$less@G@_STL@@V?$allocator@U?$pair@$$CBGPAVivfstream@@@_STL@@@3@@_STL@@QAE@XZ ; _STL::map<unsigned short,ivfstream *,_STL::less<unsigned short>,_STL::allocator<_STL::pair<unsigned short const ,ivfstream *> > >::map<unsigned short,ivfstream *,_STL::less<unsigned short>,_STL::allocator<_STL::pair<unsigned short const ,ivfstream *> > >
; Function compile flags: /Ogsy
; File c:\stlport-4.6.1\stlport\stl\_map.h
;	COMDAT ??0?$map@GPAVivfstream@@U?$less@G@_STL@@V?$allocator@U?$pair@$$CBGPAVivfstream@@@_STL@@@3@@_STL@@QAE@XZ
_TEXT	SEGMENT
$T112402 = -1						; size = 1
$T112401 = -1						; size = 1
??0?$map@GPAVivfstream@@U?$less@G@_STL@@V?$allocator@U?$pair@$$CBGPAVivfstream@@@_STL@@@3@@_STL@@QAE@XZ PROC NEAR ; _STL::map<unsigned short,ivfstream *,_STL::less<unsigned short>,_STL::allocator<_STL::pair<unsigned short const ,ivfstream *> > >::map<unsigned short,ivfstream *,_STL::less<unsigned short>,_STL::allocator<_STL::pair<unsigned short const ,ivfstream *> > >, COMDAT
; _this$ = ecx

; 91   :   map() : _M_t(_Compare(), allocator_type()) {}

  00000	55		 push	 ebp
  00001	8b ec		 mov	 ebp, esp
  00003	51		 push	 ecx
  00004	56		 push	 esi
  00005	8d 45 ff	 lea	 eax, DWORD PTR $T112401[ebp]
  00008	50		 push	 eax
  00009	8d 45 ff	 lea	 eax, DWORD PTR $T112402[ebp]
  0000c	50		 push	 eax
  0000d	8b f1		 mov	 esi, ecx
  0000f	e8 00 00 00 00	 call	 ??0?$_Rb_tree@GU?$pair@$$CBGPAVivfstream@@@_STL@@U?$_Select1st@U?$pair@$$CBGPAVivfstream@@@_STL@@@2@U?$less@G@2@V?$allocator@U?$pair@$$CBGPAVivfstream@@@_STL@@@2@@_STL@@QAE@ABU?$less@G@1@ABV?$allocator@U?$pair@$$CBGPAVivfstream@@@_STL@@@1@@Z ; _STL::_Rb_tree<unsigned short,_STL::pair<unsigned short const ,ivfstream *>,_STL::_Select1st<_STL::pair<unsigned short const ,ivfstream *> >,_STL::less<unsigned short>,_STL::allocator<_STL::pair<unsigned short const ,ivfstream *> > >::_Rb_tree<unsigned short,_STL::pair<unsigned short const ,ivfstream *>,_STL::_Select1st<_STL::pair<unsigned short const ,ivfstream *> >,_STL::less<unsigned short>,_STL::allocator<_STL::pair<unsigned short const ,ivfstream *> > >
  00014	8b c6		 mov	 eax, esi
  00016	5e		 pop	 esi
  00017	c9		 leave
  00018	c3		 ret	 0
??0?$map@GPAVivfstream@@U?$less@G@_STL@@V?$allocator@U?$pair@$$CBGPAVivfstream@@@_STL@@@3@@_STL@@QAE@XZ ENDP ; _STL::map<unsigned short,ivfstream *,_STL::less<unsigned short>,_STL::allocator<_STL::pair<unsigned short const ,ivfstream *> > >::map<unsigned short,ivfstream *,_STL::less<unsigned short>,_STL::allocator<_STL::pair<unsigned short const ,ivfstream *> > >
_TEXT	ENDS
PUBLIC	??1?$basic_string@DV?$char_traits@D@_STL@@V?$allocator@D@2@@_STL@@QAE@XZ ; _STL::basic_string<char,_STL::char_traits<char>,_STL::allocator<char> >::~basic_string<char,_STL::char_traits<char>,_STL::allocator<char> >
; Function compile flags: /Ogsy
; File c:\stlport-4.6.1\stlport\stl\_string.h
;	COMDAT ??1?$basic_string@DV?$char_traits@D@_STL@@V?$allocator@D@2@@_STL@@QAE@XZ
_TEXT	SEGMENT
??1?$basic_string@DV?$char_traits@D@_STL@@V?$allocator@D@2@@_STL@@QAE@XZ PROC NEAR ; _STL::basic_string<char,_STL::char_traits<char>,_STL::allocator<char> >::~basic_string<char,_STL::char_traits<char>,_STL::allocator<char> >, COMDAT
; _this$ = ecx

; 305  :   ~basic_string() { _STLP_STD::_Destroy(this->_M_start, this->_M_finish + 1); }

  00000	e9 00 00 00 00	 jmp	 ?_M_deallocate_block@?$_String_base@DV?$allocator@D@_STL@@@_STL@@QAEXXZ ; _STL::_String_base<char,_STL::allocator<char> >::_M_deallocate_block
??1?$basic_string@DV?$char_traits@D@_STL@@V?$allocator@D@2@@_STL@@QAE@XZ ENDP ; _STL::basic_string<char,_STL::char_traits<char>,_STL::allocator<char> >::~basic_string<char,_STL::char_traits<char>,_STL::allocator<char> >
_TEXT	ENDS
PUBLIC	?insert@?$map@GUGUILD_SPRITES@MGuildMarkManager@@U?$less@G@_STL@@V?$allocator@U?$pair@$$CBGUGUILD_SPRITES@MGuildMarkManager@@@_STL@@@4@@_STL@@QAE?AU?$_Rb_tree_iterator@U?$pair@$$CBGUGUILD_SPRITES@MGuildMarkManager@@@_STL@@U?$_Nonconst_traits@U?$pair@$$CBGUGUILD_SPRITES@MGuildMarkManager@@@_STL@@@2@@2@U32@ABU?$pair@$$CBGUGUILD_SPRITES@MGuildMarkManager@@@2@@Z ; _STL::map<unsigned short,MGuildMarkManager::GUILD_SPRITES,_STL::less<unsigned short>,_STL::allocator<_STL::pair<unsigned short const ,MGuildMarkManager::GUILD_SPRITES> > >::insert
; Function compile flags: /Ogsy
; File c:\stlport-4.6.1\stlport\stl\_map.h
;	COMDAT ?insert@?$map@GUGUILD_SPRITES@MGuildMarkManager@@U?$less@G@_STL@@V?$allocator@U?$pair@$$CBGUGUILD_SPRITES@MGuildMarkManager@@@_STL@@@4@@_STL@@QAE?AU?$_Rb_tree_iterator@U?$pair@$$CBGUGUILD_SPRITES@MGuildMarkManager@@@_STL@@U?$_Nonconst_traits@U?$pair@$$CBGUGUILD_SPRITES@MGuildMarkManager@@@_STL@@@2@@2@U32@ABU?$pair@$$CBGUGUILD_SPRITES@MGuildMarkManager@@@2@@Z
_TEXT	SEGMENT
___$ReturnUdt$ = 8					; size = 4
_position$ = 12						; size = 4
___x$ = 16						; size = 4
?insert@?$map@GUGUILD_SPRITES@MGuildMarkManager@@U?$less@G@_STL@@V?$allocator@U?$pair@$$CBGUGUILD_SPRITES@MGuildMarkManager@@@_STL@@@4@@_STL@@QAE?AU?$_Rb_tree_iterator@U?$pair@$$CBGUGUILD_SPRITES@MGuildMarkManager@@@_STL@@U?$_Nonconst_traits@U?$pair@$$CBGUGUILD_SPRITES@MGuildMarkManager@@@_STL@@@2@@2@U32@ABU?$pair@$$CBGUGUILD_SPRITES@MGuildMarkManager@@@2@@Z PROC NEAR ; _STL::map<unsigned short,MGuildMarkManager::GUILD_SPRITES,_STL::less<unsigned short>,_STL::allocator<_STL::pair<unsigned short const ,MGuildMarkManager::GUILD_SPRITES> > >::insert, COMDAT
; _this$ = ecx

; 172  :     { return _M_t.insert_unique(position, __x); }

  00000	ff 74 24 0c	 push	 DWORD PTR ___x$[esp-4]
  00004	8b 54 24 0c	 mov	 edx, DWORD PTR _position$[esp]
  00008	51		 push	 ecx
  00009	8b c4		 mov	 eax, esp
  0000b	ff 74 24 0c	 push	 DWORD PTR ___$ReturnUdt$[esp+4]
  0000f	89 10		 mov	 DWORD PTR [eax], edx
  00011	e8 00 00 00 00	 call	 ?insert_unique@?$_Rb_tree@GU?$pair@$$CBGUGUILD_SPRITES@MGuildMarkManager@@@_STL@@U?$_Select1st@U?$pair@$$CBGUGUILD_SPRITES@MGuildMarkManager@@@_STL@@@2@U?$less@G@2@V?$allocator@U?$pair@$$CBGUGUILD_SPRITES@MGuildMarkManager@@@_STL@@@2@@_STL@@QAE?AU?$_Rb_tree_iterator@U?$pair@$$CBGUGUILD_SPRITES@MGuildMarkManager@@@_STL@@U?$_Nonconst_traits@U?$pair@$$CBGUGUILD_SPRITES@MGuildMarkManager@@@_STL@@@2@@2@U32@ABU?$pair@$$CBGUGUILD_SPRITES@MGuildMarkManager@@@2@@Z ; _STL::_Rb_tree<unsigned short,_STL::pair<unsigned short const ,MGuildMarkManager::GUILD_SPRITES>,_STL::_Select1st<_STL::pair<unsigned short const ,MGuildMarkManager::GUILD_SPRITES> >,_STL::less<unsigned short>,_STL::allocator<_STL::pair<unsigned short const ,MGuildMarkManager::GUILD_SPRITES> > >::insert_unique
  00016	8b 44 24 04	 mov	 eax, DWORD PTR ___$ReturnUdt$[esp-4]
  0001a	c2 0c 00	 ret	 12			; 0000000cH
?insert@?$map@GUGUILD_SPRITES@MGuildMarkManager@@U?$less@G@_STL@@V?$allocator@U?$pair@$$CBGUGUILD_SPRITES@MGuildMarkManager@@@_STL@@@4@@_STL@@QAE?AU?$_Rb_tree_iterator@U?$pair@$$CBGUGUILD_SPRITES@MGuildMarkManager@@@_STL@@U?$_Nonconst_traits@U?$pair@$$CBGUGUILD_SPRITES@MGuildMarkManager@@@_STL@@@2@@2@U32@ABU?$pair@$$CBGUGUILD_SPRITES@MGuildMarkManager@@@2@@Z ENDP ; _STL::map<unsigned short,MGuildMarkManager::GUILD_SPRITES,_STL::less<unsigned short>,_STL::allocator<_STL::pair<unsigned short const ,MGuildMarkManager::GUILD_SPRITES> > >::insert
_TEXT	ENDS
PUBLIC	??0?$CTypePack2@VCSprite@@VCSprite555@@VCSprite565@@@@QAE@XZ ; CTypePack2<CSprite,CSprite555,CSprite565>::CTypePack2<CSprite,CSprite555,CSprite565>
PUBLIC	?Init@?$CTypePack2@VCSprite@@VCSprite555@@VCSprite565@@@@UAEXG@Z ; CTypePack2<CSprite,CSprite555,CSprite565>::Init
PUBLIC	?GetSize@?$CTypePack2@VCSprite@@VCSprite555@@VCSprite565@@@@UBEKXZ ; CTypePack2<CSprite,CSprite555,CSprite565>::GetSize
PUBLIC	??A?$CTypePack2@VCSprite@@VCSprite555@@VCSprite565@@@@UAEAAVCSprite@@G@Z ; CTypePack2<CSprite,CSprite555,CSprite565>::operator[]
PUBLIC	?Get@?$CTypePack2@VCSprite@@VCSprite555@@VCSprite565@@@@UAEAAVCSprite@@G@Z ; CTypePack2<CSprite,CSprite555,CSprite565>::Get
PUBLIC	?SaveToFile@?$CTypePack2@VCSprite@@VCSprite555@@VCSprite565@@@@UAE_NAAV?$basic_ofstream@DV?$char_traits@D@_STL@@@_STL@@0@Z ; CTypePack2<CSprite,CSprite555,CSprite565>::SaveToFile
PUBLIC	?LoadFromFileRunning@?$CTypePack2@VCSprite@@VCSprite555@@VCSprite565@@@@UAE_NPBD@Z ; CTypePack2<CSprite,CSprite555,CSprite565>::LoadFromFileRunning
PUBLIC	?LoadFromFile@?$CTypePack2@VCSprite@@VCSprite555@@VCSprite565@@@@UAE_NPBD@Z ; CTypePack2<CSprite,CSprite555,CSprite565>::LoadFromFile
PUBLIC	?LoadFromFilePart@?$CTypePack2@VCSprite@@VCSprite555@@VCSprite565@@@@UAE_NHH@Z ; CTypePack2<CSprite,CSprite555,CSprite565>::LoadFromFilePart
PUBLIC	?LoadFromFilePart@?$CTypePack2@VCSprite@@VCSprite555@@VCSprite565@@@@UAE_NAAVCSpriteSetManager@@@Z ; CTypePack2<CSprite,CSprite555,CSprite565>::LoadFromFilePart
PUBLIC	?LoadFromFileData@?$CTypePack2@VCSprite@@VCSprite555@@VCSprite565@@@@UAE_NHHPBD0@Z ; CTypePack2<CSprite,CSprite555,CSprite565>::LoadFromFileData
PUBLIC	?ReleasePart@?$CTypePack2@VCSprite@@VCSprite555@@VCSprite565@@@@UAE_NHH@Z ; CTypePack2<CSprite,CSprite555,CSprite565>::ReleasePart
PUBLIC	?ReleasePart@?$CTypePack2@VCSprite@@VCSprite555@@VCSprite565@@@@UAE_NV?$COrderedList@G@@@Z ; CTypePack2<CSprite,CSprite555,CSprite565>::ReleasePart
PUBLIC	?SaveToFile@?$CTypePack2@VCSprite@@VCSprite555@@VCSprite565@@@@UAE_NPBD@Z ; CTypePack2<CSprite,CSprite555,CSprite565>::SaveToFile
PUBLIC	?Is565@?$CTypePack2@VCSprite@@VCSprite555@@VCSprite565@@@@UAE_NXZ ; CTypePack2<CSprite,CSprite555,CSprite565>::Is565
PUBLIC	?FinishRunningLoad@?$CTypePack2@VCSprite@@VCSprite555@@VCSprite565@@@@UAEXXZ ; CTypePack2<CSprite,CSprite555,CSprite565>::FinishRunningLoad
PUBLIC	??_R4?$CTypePack2@VCSprite@@VCSprite555@@VCSprite565@@@@6B@ ; CTypePack2<CSprite,CSprite555,CSprite565>::`RTTI Complete Object Locator'
PUBLIC	??_R0?AV?$CTypePack2@VCSprite@@VCSprite555@@VCSprite565@@@@@8 ; CTypePack2<CSprite,CSprite555,CSprite565> `RTTI Type Descriptor'
PUBLIC	??_R3?$CTypePack2@VCSprite@@VCSprite555@@VCSprite565@@@@8 ; CTypePack2<CSprite,CSprite555,CSprite565>::`RTTI Class Hierarchy Descriptor'
PUBLIC	??_R2?$CTypePack2@VCSprite@@VCSprite555@@VCSprite565@@@@8 ; CTypePack2<CSprite,CSprite555,CSprite565>::`RTTI Base Class Array'
PUBLIC	??_R1A@?0A@A@?$CTypePack2@VCSprite@@VCSprite555@@VCSprite565@@@@8 ; CTypePack2<CSprite,CSprite555,CSprite565>::`RTTI Base Class Descriptor at (0,-1,0,0)'
PUBLIC	??_7?$CTypePack2@VCSprite@@VCSprite555@@VCSprite565@@@@6B@ ; CTypePack2<CSprite,CSprite555,CSprite565>::`vftable'
PUBLIC	??_G?$CTypePack2@VCSprite@@VCSprite555@@VCSprite565@@@@UAEPAXI@Z ; CTypePack2<CSprite,CSprite555,CSprite565>::`scalar deleting destructor'
EXTRN	??_E?$CTypePack2@VCSprite@@VCSprite555@@VCSprite565@@@@UAEPAXI@Z:NEAR ; CTypePack2<CSprite,CSprite555,CSprite565>::`vector deleting destructor'
;	COMDAT xdata$x
; File c:\darkeden\designed_common\project\client\spritelib\ctypepack.h
xdata$x	SEGMENT
$T112452 DD	0ffffffffH
	DD	FLAT:$L112442
	DD	00H
	DD	FLAT:$L112443
	DD	01H
	DD	FLAT:$L112444
$T112450 DD	019930520H
	DD	03H
	DD	FLAT:$T112452
	DD	2 DUP(00H)
	DD	2 DUP(00H)
xdata$x	ENDS
;	COMDAT ??_7?$CTypePack2@VCSprite@@VCSprite555@@VCSprite565@@@@6B@
CONST	SEGMENT
??_7?$CTypePack2@VCSprite@@VCSprite555@@VCSprite565@@@@6B@ DD FLAT:??_R4?$CTypePack2@VCSprite@@VCSprite555@@VCSprite565@@@@6B@ ; CTypePack2<CSprite,CSprite555,CSprite565>::`vftable'
	DD	FLAT:??_E?$CTypePack2@VCSprite@@VCSprite555@@VCSprite565@@@@UAEPAXI@Z
	DD	FLAT:?Init@?$CTypePack2@VCSprite@@VCSprite555@@VCSprite565@@@@UAEXG@Z
	DD	FLAT:?Release@?$CTypePack2@VCSprite@@VCSprite555@@VCSprite565@@@@UAEXXZ
	DD	FLAT:?GetSize@?$CTypePack2@VCSprite@@VCSprite555@@VCSprite565@@@@UBEKXZ
	DD	FLAT:?SaveToFile@?$CTypePack2@VCSprite@@VCSprite555@@VCSprite565@@@@UAE_NPBD@Z
	DD	FLAT:?SaveToFile@?$CTypePack2@VCSprite@@VCSprite555@@VCSprite565@@@@UAE_NAAV?$basic_ofstream@DV?$char_traits@D@_STL@@@_STL@@0@Z
	DD	FLAT:?LoadFromFileRunning@?$CTypePack2@VCSprite@@VCSprite555@@VCSprite565@@@@UAE_NPBD@Z
	DD	FLAT:?LoadFromFile@?$CTypePack2@VCSprite@@VCSprite555@@VCSprite565@@@@UAE_NPBD@Z
	DD	FLAT:?LoadFromFilePart@?$CTypePack2@VCSprite@@VCSprite555@@VCSprite565@@@@UAE_NAAVCSpriteSetManager@@@Z
	DD	FLAT:?LoadFromFilePart@?$CTypePack2@VCSprite@@VCSprite555@@VCSprite565@@@@UAE_NHH@Z
	DD	FLAT:?LoadFromFileData@?$CTypePack2@VCSprite@@VCSprite555@@VCSprite565@@@@UAE_NHHPBD0@Z
	DD	FLAT:?ReleasePart@?$CTypePack2@VCSprite@@VCSprite555@@VCSprite565@@@@UAE_NV?$COrderedList@G@@@Z
	DD	FLAT:?ReleasePart@?$CTypePack2@VCSprite@@VCSprite555@@VCSprite565@@@@UAE_NHH@Z
	DD	FLAT:?FinishRunningLoad@?$CTypePack2@VCSprite@@VCSprite555@@VCSprite565@@@@UAEXXZ
	DD	FLAT:??A?$CTypePack2@VCSprite@@VCSprite555@@VCSprite565@@@@UAEAAVCSprite@@G@Z
	DD	FLAT:?Get@?$CTypePack2@VCSprite@@VCSprite555@@VCSprite565@@@@UAEAAVCSprite@@G@Z
	DD	FLAT:?Is565@?$CTypePack2@VCSprite@@VCSprite555@@VCSprite565@@@@UAE_NXZ
CONST	ENDS
;	COMDAT ??_R4?$CTypePack2@VCSprite@@VCSprite555@@VCSprite565@@@@6B@
rdata$r	SEGMENT
??_R4?$CTypePack2@VCSprite@@VCSprite555@@VCSprite565@@@@6B@ DD 00H ; CTypePack2<CSprite,CSprite555,CSprite565>::`RTTI Complete Object Locator'
	DD	00H
	DD	00H
	DD	FLAT:??_R0?AV?$CTypePack2@VCSprite@@VCSprite555@@VCSprite565@@@@@8
	DD	FLAT:??_R3?$CTypePack2@VCSprite@@VCSprite555@@VCSprite565@@@@8
rdata$r	ENDS
;	COMDAT ??_R0?AV?$CTypePack2@VCSprite@@VCSprite555@@VCSprite565@@@@@8
_DATA	SEGMENT
??_R0?AV?$CTypePack2@VCSprite@@VCSprite555@@VCSprite565@@@@@8 DD FLAT:??_7type_info@@6B@ ; CTypePack2<CSprite,CSprite555,CSprite565> `RTTI Type Descriptor'
	DD	00H
	DB	'.?AV?$CTypePack2@VCSprite@@VCSprite555@@VCSprite565@@@@', 00H
_DATA	ENDS
;	COMDAT ??_R3?$CTypePack2@VCSprite@@VCSprite555@@VCSprite565@@@@8
rdata$r	SEGMENT
??_R3?$CTypePack2@VCSprite@@VCSprite555@@VCSprite565@@@@8 DD 00H ; CTypePack2<CSprite,CSprite555,CSprite565>::`RTTI Class Hierarchy Descriptor'
	DD	00H
	DD	02H
	DD	FLAT:??_R2?$CTypePack2@VCSprite@@VCSprite555@@VCSprite565@@@@8
rdata$r	ENDS
;	COMDAT ??_R2?$CTypePack2@VCSprite@@VCSprite555@@VCSprite565@@@@8
rdata$r	SEGMENT
??_R2?$CTypePack2@VCSprite@@VCSprite555@@VCSprite565@@@@8 DD FLAT:??_R1A@?0A@A@?$CTypePack2@VCSprite@@VCSprite555@@VCSprite565@@@@8 ; CTypePack2<CSprite,CSprite555,CSprite565>::`RTTI Base Class Array'
	DD	FLAT:??_R1A@?0A@A@ITypePackBase@@8
rdata$r	ENDS
;	COMDAT ??_R1A@?0A@A@?$CTypePack2@VCSprite@@VCSprite555@@VCSprite565@@@@8
rdata$r	SEGMENT
??_R1A@?0A@A@?$CTypePack2@VCSprite@@VCSprite555@@VCSprite565@@@@8 DD FLAT:??_R0?AV?$CTypePack2@VCSprite@@VCSprite555@@VCSprite565@@@@@8 ; CTypePack2<CSprite,CSprite555,CSprite565>::`RTTI Base Class Descriptor at (0,-1,0,0)'
	DD	01H
	DD	00H
	DD	0ffffffffH
	DD	00H
	DD	00H
; Function compile flags: /Ogsy
rdata$r	ENDS
;	COMDAT ??0?$CTypePack2@VCSprite@@VCSprite555@@VCSprite565@@@@QAE@XZ
_TEXT	SEGMENT
_this$ = -16						; size = 4
__$EHRec$ = -12						; size = 12
??0?$CTypePack2@VCSprite@@VCSprite555@@VCSprite565@@@@QAE@XZ PROC NEAR ; CTypePack2<CSprite,CSprite555,CSprite565>::CTypePack2<CSprite,CSprite555,CSprite565>, COMDAT
; _this$ = ecx

; 879  : {

  00000	b8 00 00 00 00	 mov	 eax, __ehhandler$??0?$CTypePack2@VCSprite@@VCSprite555@@VCSprite565@@@@QAE@XZ
  00005	e8 00 00 00 00	 call	 __EH_prolog
  0000a	51		 push	 ecx
  0000b	53		 push	 ebx
  0000c	56		 push	 esi
  0000d	8b f1		 mov	 esi, ecx
  0000f	89 75 f0	 mov	 DWORD PTR _this$[ebp], esi
  00012	33 db		 xor	 ebx, ebx
  00014	8d 4e 20	 lea	 ecx, DWORD PTR [esi+32]
  00017	89 5d fc	 mov	 DWORD PTR __$EHRec$[ebp+8], ebx
  0001a	c7 06 00 00 00
	00		 mov	 DWORD PTR [esi], OFFSET FLAT:??_7?$CTypePack2@VCSprite@@VCSprite555@@VCSprite565@@@@6B@
  00020	e8 00 00 00 00	 call	 ??0?$basic_string@DV?$char_traits@D@_STL@@V?$allocator@D@2@@_STL@@QAE@XZ ; _STL::basic_string<char,_STL::char_traits<char>,_STL::allocator<char> >::basic_string<char,_STL::char_traits<char>,_STL::allocator<char> >
  00025	8d 4e 2c	 lea	 ecx, DWORD PTR [esi+44]
  00028	c6 45 fc 01	 mov	 BYTE PTR __$EHRec$[ebp+8], 1
  0002c	e8 00 00 00 00	 call	 ??0?$basic_string@DV?$char_traits@D@_STL@@V?$allocator@D@2@@_STL@@QAE@XZ ; _STL::basic_string<char,_STL::char_traits<char>,_STL::allocator<char> >::basic_string<char,_STL::char_traits<char>,_STL::allocator<char> >
  00031	8d 4e 38	 lea	 ecx, DWORD PTR [esi+56]
  00034	c6 45 fc 02	 mov	 BYTE PTR __$EHRec$[ebp+8], 2
  00038	e8 00 00 00 00	 call	 ??0?$map@GPAVivfstream@@U?$less@G@_STL@@V?$allocator@U?$pair@$$CBGPAVivfstream@@@_STL@@@3@@_STL@@QAE@XZ ; _STL::map<unsigned short,ivfstream *,_STL::less<unsigned short>,_STL::allocator<_STL::pair<unsigned short const ,ivfstream *> > >::map<unsigned short,ivfstream *,_STL::less<unsigned short>,_STL::allocator<_STL::pair<unsigned short const ,ivfstream *> > >

; 880  : 	m_pData = NULL;
; 881  : 	m_Size = 0;
; 882  : 	m_bRunningLoad = false;
; 883  : 	m_file_index = NULL;
; 884  : 	m_file = NULL;
; 885  : 
; 886  : 	m_bSplitFile = false;
; 887  : 	m_nUnitCount = 0;
; 888  : 	m_nUnitTwoMultiplier = 0;
; 889  : }

  0003d	8b 4d f4	 mov	 ecx, DWORD PTR __$EHRec$[ebp]
  00040	89 5e 04	 mov	 DWORD PTR [esi+4], ebx
  00043	66 89 5e 08	 mov	 WORD PTR [esi+8], bx
  00047	88 5e 0a	 mov	 BYTE PTR [esi+10], bl
  0004a	89 5e 10	 mov	 DWORD PTR [esi+16], ebx
  0004d	89 5e 0c	 mov	 DWORD PTR [esi+12], ebx
  00050	88 5e 14	 mov	 BYTE PTR [esi+20], bl
  00053	89 5e 18	 mov	 DWORD PTR [esi+24], ebx
  00056	89 5e 1c	 mov	 DWORD PTR [esi+28], ebx
  00059	8b c6		 mov	 eax, esi
  0005b	5e		 pop	 esi
  0005c	5b		 pop	 ebx
  0005d	64 89 0d 00 00
	00 00		 mov	 DWORD PTR fs:__except_list, ecx
  00064	c9		 leave
  00065	c3		 ret	 0
_TEXT	ENDS
;	COMDAT text$x
text$x	SEGMENT
$L112442:
  00000	8b 4d f0	 mov	 ecx, DWORD PTR _this$[ebp]
  00003	e9 00 00 00 00	 jmp	 ??1ITypePackBase@@UAE@XZ ; ITypePackBase::~ITypePackBase
$L112443:
  00008	8b 4d f0	 mov	 ecx, DWORD PTR _this$[ebp]
  0000b	83 c1 20	 add	 ecx, 32			; 00000020H
  0000e	e9 00 00 00 00	 jmp	 ??1?$basic_string@DV?$char_traits@D@_STL@@V?$allocator@D@2@@_STL@@QAE@XZ ; _STL::basic_string<char,_STL::char_traits<char>,_STL::allocator<char> >::~basic_string<char,_STL::char_traits<char>,_STL::allocator<char> >
$L112444:
  00013	8b 4d f0	 mov	 ecx, DWORD PTR _this$[ebp]
  00016	83 c1 2c	 add	 ecx, 44			; 0000002cH
  00019	e9 00 00 00 00	 jmp	 ??1?$basic_string@DV?$char_traits@D@_STL@@V?$allocator@D@2@@_STL@@QAE@XZ ; _STL::basic_string<char,_STL::char_traits<char>,_STL::allocator<char> >::~basic_string<char,_STL::char_traits<char>,_STL::allocator<char> >
__ehhandler$??0?$CTypePack2@VCSprite@@VCSprite555@@VCSprite565@@@@QAE@XZ:
  0001e	b8 00 00 00 00	 mov	 eax, OFFSET FLAT:$T112450
  00023	e9 00 00 00 00	 jmp	 ___CxxFrameHandler
text$x	ENDS
??0?$CTypePack2@VCSprite@@VCSprite555@@VCSprite565@@@@QAE@XZ ENDP ; CTypePack2<CSprite,CSprite555,CSprite565>::CTypePack2<CSprite,CSprite555,CSprite565>
; Function compile flags: /Ogsy
;	COMDAT ?GetSize@?$CTypePack2@VCSprite@@VCSprite555@@VCSprite565@@@@UBEKXZ
_TEXT	SEGMENT
?GetSize@?$CTypePack2@VCSprite@@VCSprite555@@VCSprite565@@@@UBEKXZ PROC NEAR ; CTypePack2<CSprite,CSprite555,CSprite565>::GetSize, COMDAT
; _this$ = ecx

; 823  : 	virtual DWORD	GetSize() const { return m_Size; }

  00000	0f b7 41 08	 movzx	 eax, WORD PTR [ecx+8]
  00004	c3		 ret	 0
?GetSize@?$CTypePack2@VCSprite@@VCSprite555@@VCSprite565@@@@UBEKXZ ENDP ; CTypePack2<CSprite,CSprite555,CSprite565>::GetSize
; Function compile flags: /Ogsy
_TEXT	ENDS
;	COMDAT ?Is565@?$CTypePack2@VCSprite@@VCSprite555@@VCSprite565@@@@UAE_NXZ
_TEXT	SEGMENT
?Is565@?$CTypePack2@VCSprite@@VCSprite555@@VCSprite565@@@@UAE_NXZ PROC NEAR ; CTypePack2<CSprite,CSprite555,CSprite565>::Is565, COMDAT
; _this$ = ecx

; 847  : 	virtual bool Is565() { return m_bSecond; }

  00000	8a 41 44	 mov	 al, BYTE PTR [ecx+68]
  00003	c3		 ret	 0
?Is565@?$CTypePack2@VCSprite@@VCSprite555@@VCSprite565@@@@UAE_NXZ ENDP ; CTypePack2<CSprite,CSprite555,CSprite565>::Is565
; Function compile flags: /Ogsy
_TEXT	ENDS
;	COMDAT ??A?$CTypePack2@VCSprite@@VCSprite555@@VCSprite565@@@@UAEAAVCSprite@@G@Z
_TEXT	SEGMENT
_n$ = 8							; size = 2
??A?$CTypePack2@VCSprite@@VCSprite555@@VCSprite565@@@@UAEAAVCSprite@@G@Z PROC NEAR ; CTypePack2<CSprite,CSprite555,CSprite565>::operator[], COMDAT
; _this$ = ecx

; 930  : 	return Get(n);

  00000	8b 01		 mov	 eax, DWORD PTR [ecx]
  00002	ff 60 3c	 jmp	 DWORD PTR [eax+60]
??A?$CTypePack2@VCSprite@@VCSprite555@@VCSprite565@@@@UAEAAVCSprite@@G@Z ENDP ; CTypePack2<CSprite,CSprite555,CSprite565>::operator[]
; Function compile flags: /Ogsy
_TEXT	ENDS
;	COMDAT ?LoadFromFilePart@?$CTypePack2@VCSprite@@VCSprite555@@VCSprite565@@@@UAE_NHH@Z
_TEXT	SEGMENT
_first$ = 8						; size = 4
_last$ = 12						; size = 4
?LoadFromFilePart@?$CTypePack2@VCSprite@@VCSprite555@@VCSprite565@@@@UAE_NHH@Z PROC NEAR ; CTypePack2<CSprite,CSprite555,CSprite565>::LoadFromFilePart, COMDAT
; _this$ = ecx

; 1281 : {

  00000	53		 push	 ebx
  00001	8b d9		 mov	 ebx, ecx

; 1282 : 	if(!m_bRunningLoad) return true;

  00003	80 7b 0a 00	 cmp	 BYTE PTR [ebx+10], 0
  00007	74 26		 je	 SHORT $L112471
  00009	56		 push	 esi
  0000a	57		 push	 edi

; 1283 : 
; 1284 : 	last = min(last, 0xFFFE);

  0000b	8b 7c 24 14	 mov	 edi, DWORD PTR _last$[esp+8]
  0000f	b8 fe ff 00 00	 mov	 eax, 65534		; 0000fffeH
  00014	3b f8		 cmp	 edi, eax
  00016	7c 02		 jl	 SHORT $L112468
  00018	8b f8		 mov	 edi, eax
$L112468:

; 1285 : 
; 1286 : 	register int i = first;

  0001a	8b 74 24 10	 mov	 esi, DWORD PTR _first$[esp+8]
  0001e	eb 09		 jmp	 SHORT $L112472
$L108278:

; 1289 : 		Get(i);

  00020	8b 03		 mov	 eax, DWORD PTR [ebx]
  00022	56		 push	 esi
  00023	8b cb		 mov	 ecx, ebx
  00025	ff 50 3c	 call	 DWORD PTR [eax+60]
  00028	46		 inc	 esi
$L112472:

; 1287 : 
; 1288 : 	for(; i <= last; i++)

  00029	3b f7		 cmp	 esi, edi
  0002b	7e f3		 jle	 SHORT $L108278
  0002d	5f		 pop	 edi
  0002e	5e		 pop	 esi
$L112471:

; 1290 : 
; 1291 : 	return true;

  0002f	b0 01		 mov	 al, 1
  00031	5b		 pop	 ebx

; 1292 : }

  00032	c2 08 00	 ret	 8
?LoadFromFilePart@?$CTypePack2@VCSprite@@VCSprite555@@VCSprite565@@@@UAE_NHH@Z ENDP ; CTypePack2<CSprite,CSprite555,CSprite565>::LoadFromFilePart
_TEXT	ENDS
EXTRN	??_L@YGXPAXIHP6EX0@Z1@Z:NEAR			; `eh vector constructor iterator'
EXTRN	??_U@YAPAXI@Z:NEAR				; operator new[]
;	COMDAT xdata$x
; File c:\darkeden\designed_common\project\client\cdirectdraw.h
xdata$x	SEGMENT
$T112497 DD	0ffffffffH
	DD	FLAT:$L112486
	DD	0ffffffffH
	DD	FLAT:$L112487
$T112492 DD	019930520H
	DD	02H
	DD	FLAT:$T112497
	DD	2 DUP(00H)
	DD	2 DUP(00H)
; Function compile flags: /Ogsy
; File c:\darkeden\designed_common\project\client\spritelib\ctypepack.h
xdata$x	ENDS
;	COMDAT ?Init@?$CTypePack2@VCSprite@@VCSprite555@@VCSprite565@@@@UAEXG@Z
_TEXT	SEGMENT
__$EHRec$ = -12						; size = 12
$T112483 = 8						; size = 4
$T112478 = 8						; size = 4
_size$ = 8						; size = 2
?Init@?$CTypePack2@VCSprite@@VCSprite555@@VCSprite565@@@@UAEXG@Z PROC NEAR ; CTypePack2<CSprite,CSprite555,CSprite565>::Init, COMDAT
; _this$ = ecx

; 912  : {

  00000	b8 00 00 00 00	 mov	 eax, __ehhandler$?Init@?$CTypePack2@VCSprite@@VCSprite555@@VCSprite565@@@@UAEXG@Z
  00005	e8 00 00 00 00	 call	 __EH_prolog
  0000a	56		 push	 esi

; 913  : 	if(size == 0)

  0000b	66 8b 75 08	 mov	 si, WORD PTR _size$[ebp]
  0000f	66 85 f6	 test	 si, si
  00012	57		 push	 edi
  00013	8b f9		 mov	 edi, ecx
  00015	74 74		 je	 SHORT $L107551

; 914  : 		return;
; 915  : 	
; 916  : 	Release();

  00017	8b 07		 mov	 eax, DWORD PTR [edi]
  00019	53		 push	 ebx
  0001a	ff 50 08	 call	 DWORD PTR [eax+8]

; 917  : 	
; 918  : 	m_Size = size;

  0001d	66 89 77 08	 mov	 WORD PTR [edi+8], si

; 919  : 	m_bSecond = CDirectDraw::Is565();

  00021	a0 00 00 00 00	 mov	 al, BYTE PTR ?m_b565@CDirectDraw@@1_NA ; CDirectDraw::m_b565
  00026	88 47 44	 mov	 BYTE PTR [edi+68], al

; 920  : 
; 921  : 	if( m_bSecond == true )
; 922  : 		m_pData = new Type2[size];

  00029	0f b7 f6	 movzx	 esi, si
  0002c	33 db		 xor	 ebx, ebx
  0002e	8b c6		 mov	 eax, esi
  00030	c1 e0 04	 shl	 eax, 4
  00033	43		 inc	 ebx
  00034	83 c0 04	 add	 eax, 4
  00037	38 5f 44	 cmp	 BYTE PTR [edi+68], bl
  0003a	50		 push	 eax
  0003b	75 2c		 jne	 SHORT $L107543
  0003d	e8 00 00 00 00	 call	 ??_U@YAPAXI@Z		; operator new[]
  00042	59		 pop	 ecx
  00043	89 45 08	 mov	 DWORD PTR $T112478[ebp], eax
  00046	33 db		 xor	 ebx, ebx
  00048	3b c3		 cmp	 eax, ebx
  0004a	89 5d fc	 mov	 DWORD PTR __$EHRec$[ebp+8], ebx
  0004d	74 38		 je	 SHORT $L112485
  0004f	68 00 00 00 00	 push	 OFFSET FLAT:??1CSprite565@@QAE@XZ
  00054	68 00 00 00 00	 push	 OFFSET FLAT:??0CSprite565@@QAE@XZ
$L112496:
  00059	56		 push	 esi
  0005a	8d 58 04	 lea	 ebx, DWORD PTR [eax+4]
  0005d	6a 10		 push	 16			; 00000010H
  0005f	53		 push	 ebx
  00060	89 30		 mov	 DWORD PTR [eax], esi
  00062	e8 00 00 00 00	 call	 ??_L@YGXPAXIHP6EX0@Z1@Z

; 923  : 	else

  00067	eb 1e		 jmp	 SHORT $L112485
$L107543:

; 924  : 		m_pData = new Type1[size];

  00069	e8 00 00 00 00	 call	 ??_U@YAPAXI@Z		; operator new[]
  0006e	59		 pop	 ecx
  0006f	89 45 08	 mov	 DWORD PTR $T112483[ebp], eax
  00072	85 c0		 test	 eax, eax
  00074	89 5d fc	 mov	 DWORD PTR __$EHRec$[ebp+8], ebx
  00077	74 0c		 je	 SHORT $L112484
  00079	68 00 00 00 00	 push	 OFFSET FLAT:??1CSprite555@@QAE@XZ
  0007e	68 00 00 00 00	 push	 OFFSET FLAT:??0CSprite555@@QAE@XZ
  00083	eb d4		 jmp	 SHORT $L112496
$L112484:
  00085	33 db		 xor	 ebx, ebx
$L112485:
  00087	89 5f 04	 mov	 DWORD PTR [edi+4], ebx
  0008a	5b		 pop	 ebx
$L107551:

; 925  : }

  0008b	8b 4d f4	 mov	 ecx, DWORD PTR __$EHRec$[ebp]
  0008e	5f		 pop	 edi
  0008f	5e		 pop	 esi
  00090	64 89 0d 00 00
	00 00		 mov	 DWORD PTR fs:__except_list, ecx
  00097	c9		 leave
  00098	c2 04 00	 ret	 4
_TEXT	ENDS
;	COMDAT text$x
text$x	SEGMENT
$L112486:
  00000	ff 75 08	 push	 DWORD PTR $T112478[ebp]
  00003	e8 00 00 00 00	 call	 ??_V@YAXPAX@Z		; operator delete[]
  00008	59		 pop	 ecx
  00009	c3		 ret	 0
$L112487:
  0000a	ff 75 08	 push	 DWORD PTR $T112483[ebp]
  0000d	e8 00 00 00 00	 call	 ??_V@YAXPAX@Z		; operator delete[]
  00012	59		 pop	 ecx
  00013	c3		 ret	 0
__ehhandler$?Init@?$CTypePack2@VCSprite@@VCSprite555@@VCSprite565@@@@UAEXG@Z:
  00014	b8 00 00 00 00	 mov	 eax, OFFSET FLAT:$T112492
  00019	e9 00 00 00 00	 jmp	 ___CxxFrameHandler
text$x	ENDS
?Init@?$CTypePack2@VCSprite@@VCSprite555@@VCSprite565@@@@UAEXG@Z ENDP ; CTypePack2<CSprite,CSprite555,CSprite565>::Init
PUBLIC	?size@?$list@GV?$allocator@G@_STL@@@_STL@@QBEIXZ ; _STL::list<unsigned short,_STL::allocator<unsigned short> >::size
; Function compile flags: /Ogsy
;	COMDAT ?LoadFromFilePart@?$CTypePack2@VCSprite@@VCSprite555@@VCSprite565@@@@UAE_NAAVCSpriteSetManager@@@Z
_TEXT	SEGMENT
_SSM$ = 8						; size = 4
?LoadFromFilePart@?$CTypePack2@VCSprite@@VCSprite555@@VCSprite565@@@@UAE_NAAVCSpriteSetManager@@@Z PROC NEAR ; CTypePack2<CSprite,CSprite555,CSprite565>::LoadFromFilePart, COMDAT
; _this$ = ecx

; 1296 : {

  00000	53		 push	 ebx
  00001	55		 push	 ebp
  00002	8b e9		 mov	 ebp, ecx

; 1297 : 	if(!m_bRunningLoad) return true;

  00004	33 db		 xor	 ebx, ebx
  00006	38 5d 0a	 cmp	 BYTE PTR [ebp+10], bl
  00009	74 3e		 je	 SHORT $L112621
  0000b	56		 push	 esi
  0000c	57		 push	 edi

; 1298 : 
; 1299 : 	CSpriteSetManager::DATA_LIST::const_iterator iID = SSM.GetIterator();

  0000d	8b 7c 24 14	 mov	 edi, DWORD PTR _SSM$[esp+12]
  00011	8b 07		 mov	 eax, DWORD PTR [edi]
  00013	8b 30		 mov	 esi, DWORD PTR [eax]

; 1300 : 	register int t = 0;
; 1301 : 
; 1302 : 	for(; t<SSM.GetSize(); ++t, ++iID)

  00015	8b cf		 mov	 ecx, edi
  00017	e8 00 00 00 00	 call	 ?size@?$list@GV?$allocator@G@_STL@@@_STL@@QBEIXZ ; _STL::list<unsigned short,_STL::allocator<unsigned short> >::size
  0001c	66 85 c0	 test	 ax, ax
  0001f	76 26		 jbe	 SHORT $L108266
$L112531:

; 1303 : 	{
; 1304 : 		if(*iID != 0xFFFF)
; 1305 : 			Get(*iID);

  00021	33 c0		 xor	 eax, eax
  00023	66 8b 46 08	 mov	 ax, WORD PTR [esi+8]
  00027	66 3d ff ff	 cmp	 ax, 65535		; 0000ffffH
  0002b	74 09		 je	 SHORT $L108265
  0002d	8b 55 00	 mov	 edx, DWORD PTR [ebp]
  00030	50		 push	 eax
  00031	8b cd		 mov	 ecx, ebp
  00033	ff 52 3c	 call	 DWORD PTR [edx+60]
$L108265:
  00036	8b 36		 mov	 esi, DWORD PTR [esi]
  00038	8b cf		 mov	 ecx, edi
  0003a	43		 inc	 ebx
  0003b	e8 00 00 00 00	 call	 ?size@?$list@GV?$allocator@G@_STL@@@_STL@@QBEIXZ ; _STL::list<unsigned short,_STL::allocator<unsigned short> >::size
  00040	0f b7 c0	 movzx	 eax, ax
  00043	3b d8		 cmp	 ebx, eax
  00045	7c da		 jl	 SHORT $L112531
$L108266:
  00047	5f		 pop	 edi
  00048	5e		 pop	 esi
$L112621:
  00049	5d		 pop	 ebp

; 1306 : 	}
; 1307 : 
; 1308 : 	return true;

  0004a	b0 01		 mov	 al, 1
  0004c	5b		 pop	 ebx

; 1309 : }

  0004d	c2 04 00	 ret	 4
?LoadFromFilePart@?$CTypePack2@VCSprite@@VCSprite555@@VCSprite565@@@@UAE_NAAVCSpriteSetManager@@@Z ENDP ; CTypePack2<CSprite,CSprite555,CSprite565>::LoadFromFilePart
; Function compile flags: /Ogsy
; File c:\stlport-4.6.1\stlport\stl\_list.h
_TEXT	ENDS
;	COMDAT ?size@?$list@GV?$allocator@G@_STL@@@_STL@@QBEIXZ
_TEXT	SEGMENT
?size@?$list@GV?$allocator@G@_STL@@@_STL@@QBEIXZ PROC NEAR ; _STL::list<unsigned short,_STL::allocator<unsigned short> >::size, COMDAT
; _this$ = ecx

; 284  :     size_type __result = distance(begin(), end());

  00000	8b 11		 mov	 edx, DWORD PTR [ecx]
  00002	8b 0a		 mov	 ecx, DWORD PTR [edx]
  00004	33 c0		 xor	 eax, eax
  00006	eb 03		 jmp	 SHORT $L112702
$L112697:
  00008	8b 09		 mov	 ecx, DWORD PTR [ecx]
  0000a	40		 inc	 eax
$L112702:
  0000b	3b ca		 cmp	 ecx, edx
  0000d	75 f9		 jne	 SHORT $L112697

; 285  :     return __result;
; 286  :   }

  0000f	c3		 ret	 0
?size@?$list@GV?$allocator@G@_STL@@@_STL@@QBEIXZ ENDP	; _STL::list<unsigned short,_STL::allocator<unsigned short> >::size
_TEXT	ENDS
PUBLIC	??$_M_find@G@?$_Rb_tree@GU?$pair@$$CBGPAVivfstream@@@_STL@@U?$_Select1st@U?$pair@$$CBGPAVivfstream@@@_STL@@@2@U?$less@G@2@V?$allocator@U?$pair@$$CBGPAVivfstream@@@_STL@@@2@@_STL@@ABEPAU?$_Rb_tree_node@U?$pair@$$CBGPAVivfstream@@@_STL@@@1@ABG@Z ; _STL::_Rb_tree<unsigned short,_STL::pair<unsigned short const ,ivfstream *>,_STL::_Select1st<_STL::pair<unsigned short const ,ivfstream *> >,_STL::less<unsigned short>,_STL::allocator<_STL::pair<unsigned short const ,ivfstream *> > >::_M_find<unsigned short>
PUBLIC	?erase@?$_Rb_tree@GU?$pair@$$CBGPAVivfstream@@@_STL@@U?$_Select1st@U?$pair@$$CBGPAVivfstream@@@_STL@@@2@U?$less@G@2@V?$allocator@U?$pair@$$CBGPAVivfstream@@@_STL@@@2@@_STL@@QAEXU?$_Rb_tree_iterator@U?$pair@$$CBGPAVivfstream@@@_STL@@U?$_Nonconst_traits@U?$pair@$$CBGPAVivfstream@@@_STL@@@2@@2@@Z ; _STL::_Rb_tree<unsigned short,_STL::pair<unsigned short const ,ivfstream *>,_STL::_Select1st<_STL::pair<unsigned short const ,ivfstream *> >,_STL::less<unsigned short>,_STL::allocator<_STL::pair<unsigned short const ,ivfstream *> > >::erase
PUBLIC	?GetSplitFile@?$CTypePack2@VCSprite@@VCSprite555@@VCSprite565@@@@IAEHHPAD@Z ; CTypePack2<CSprite,CSprite555,CSprite565>::GetSplitFile
EXTRN	?Release@CSprite@@QAEXXZ:NEAR			; CSprite::Release
; Function compile flags: /Ogsy
; File c:\darkeden\designed_common\project\client\spritelib\ctypepack.h
;	COMDAT ?ReleasePart@?$CTypePack2@VCSprite@@VCSprite555@@VCSprite565@@@@UAE_NHH@Z
_TEXT	SEGMENT
_i$108395 = 8						; size = 4
_first$ = 8						; size = 4
_fileIdx$108399 = 12					; size = 2
_last$ = 12						; size = 4
?ReleasePart@?$CTypePack2@VCSprite@@VCSprite555@@VCSprite565@@@@UAE_NHH@Z PROC NEAR ; CTypePack2<CSprite,CSprite555,CSprite565>::ReleasePart, COMDAT
; _this$ = ecx

; 1339 : {

  00000	55		 push	 ebp
  00001	8b ec		 mov	 ebp, esp
  00003	53		 push	 ebx

; 1340 : 	last = min(last, 0xFFFE);

  00004	8b 5d 0c	 mov	 ebx, DWORD PTR _last$[ebp]
  00007	56		 push	 esi
  00008	b8 fe ff 00 00	 mov	 eax, 65534		; 0000fffeH
  0000d	3b d8		 cmp	 ebx, eax
  0000f	57		 push	 edi
  00010	8b f1		 mov	 esi, ecx
  00012	7c 02		 jl	 SHORT $L112707
  00014	8b d8		 mov	 ebx, eax
$L112707:

; 1341 : 
; 1342 : 	if(m_bSplitFile)

  00016	80 7e 14 00	 cmp	 BYTE PTR [esi+20], 0
  0001a	0f 84 86 00 00
	00		 je	 $L108394

; 1343 : 	{
; 1344 : 		register int i = first;

  00020	8b 45 08	 mov	 eax, DWORD PTR _first$[ebp]

; 1345 : 
; 1346 : 		for(; i <= last; i++)

  00023	3b c3		 cmp	 eax, ebx
  00025	89 45 08	 mov	 DWORD PTR _i$108395[ebp], eax
  00028	0f 8f 97 00 00
	00		 jg	 $L108416
$L112796:

; 1347 : 		{
; 1348 : 			WORD fileIdx = GetSplitFile(i);

  0002e	6a 00		 push	 0
  00030	ff 75 08	 push	 DWORD PTR _i$108395[ebp]
  00033	8b ce		 mov	 ecx, esi
  00035	e8 00 00 00 00	 call	 ?GetSplitFile@?$CTypePack2@VCSprite@@VCSprite555@@VCSprite565@@@@IAEHHPAD@Z ; CTypePack2<CSprite,CSprite555,CSprite565>::GetSplitFile
  0003a	89 45 0c	 mov	 DWORD PTR _fileIdx$108399[ebp], eax

; 1349 : 
; 1350 : 			FILECACHE_MAP::iterator pos = m_FileCacheMap.find(fileIdx);

  0003d	8d 45 0c	 lea	 eax, DWORD PTR _fileIdx$108399[ebp]
  00040	50		 push	 eax
  00041	8d 4e 38	 lea	 ecx, DWORD PTR [esi+56]
  00044	e8 00 00 00 00	 call	 ??$_M_find@G@?$_Rb_tree@GU?$pair@$$CBGPAVivfstream@@@_STL@@U?$_Select1st@U?$pair@$$CBGPAVivfstream@@@_STL@@@2@U?$less@G@2@V?$allocator@U?$pair@$$CBGPAVivfstream@@@_STL@@@2@@_STL@@ABEPAU?$_Rb_tree_node@U?$pair@$$CBGPAVivfstream@@@_STL@@@1@ABG@Z ; _STL::_Rb_tree<unsigned short,_STL::pair<unsigned short const ,ivfstream *>,_STL::_Select1st<_STL::pair<unsigned short const ,ivfstream *> >,_STL::less<unsigned short>,_STL::allocator<_STL::pair<unsigned short const ,ivfstream *> > >::_M_find<unsigned short>
  00049	8b f8		 mov	 edi, eax

; 1351 : 			if(pos != m_FileCacheMap.end())

  0004b	3b 7e 38	 cmp	 edi, DWORD PTR [esi+56]
  0004e	74 1a		 je	 SHORT $L112784

; 1352 : 			{
; 1353 : 				delete pos->second;

  00050	8b 4f 14	 mov	 ecx, DWORD PTR [edi+20]
  00053	85 c9		 test	 ecx, ecx
  00055	74 06		 je	 SHORT $L112711
  00057	8b 01		 mov	 eax, DWORD PTR [ecx]
  00059	6a 01		 push	 1
  0005b	ff 10		 call	 DWORD PTR [eax]
$L112711:

; 1354 : 				m_FileCacheMap.erase(pos);

  0005d	51		 push	 ecx
  0005e	8b c4		 mov	 eax, esp
  00060	8d 4e 38	 lea	 ecx, DWORD PTR [esi+56]
  00063	89 38		 mov	 DWORD PTR [eax], edi
  00065	e8 00 00 00 00	 call	 ?erase@?$_Rb_tree@GU?$pair@$$CBGPAVivfstream@@@_STL@@U?$_Select1st@U?$pair@$$CBGPAVivfstream@@@_STL@@@2@U?$less@G@2@V?$allocator@U?$pair@$$CBGPAVivfstream@@@_STL@@@2@@_STL@@QAEXU?$_Rb_tree_iterator@U?$pair@$$CBGPAVivfstream@@@_STL@@U?$_Nonconst_traits@U?$pair@$$CBGPAVivfstream@@@_STL@@@2@@2@@Z ; _STL::_Rb_tree<unsigned short,_STL::pair<unsigned short const ,ivfstream *>,_STL::_Select1st<_STL::pair<unsigned short const ,ivfstream *> >,_STL::less<unsigned short>,_STL::allocator<_STL::pair<unsigned short const ,ivfstream *> > >::erase
$L112784:

; 1355 : 			}
; 1356 : 
; 1357 : 			for(int j = 0;

  0006a	33 ff		 xor	 edi, edi

; 1358 : 				j < m_nUnitCount && fileIdx < m_Size;
; 1359 : 				++j, ++i, ++fileIdx)

  0006c	39 7e 18	 cmp	 DWORD PTR [esi+24], edi
  0006f	7e 2b		 jle	 SHORT $L108397
$L108408:
  00071	8b 45 0c	 mov	 eax, DWORD PTR _fileIdx$108399[ebp]
  00074	66 3b 46 08	 cmp	 ax, WORD PTR [esi+8]
  00078	73 22		 jae	 SHORT $L108397

; 1360 : 			{
; 1361 : 				if(m_pData[fileIdx].IsInit())

  0007a	8b 4e 04	 mov	 ecx, DWORD PTR [esi+4]
  0007d	0f b7 c0	 movzx	 eax, ax
  00080	c1 e0 04	 shl	 eax, 4
  00083	03 c8		 add	 ecx, eax
  00085	80 79 0c 00	 cmp	 BYTE PTR [ecx+12], 0
  00089	74 05		 je	 SHORT $L108409

; 1362 : 					m_pData[fileIdx].Release();

  0008b	e8 00 00 00 00	 call	 ?Release@CSprite@@QAEXXZ ; CSprite::Release
$L108409:

; 1358 : 				j < m_nUnitCount && fileIdx < m_Size;
; 1359 : 				++j, ++i, ++fileIdx)

  00090	47		 inc	 edi
  00091	ff 45 08	 inc	 DWORD PTR _i$108395[ebp]
  00094	ff 45 0c	 inc	 DWORD PTR _fileIdx$108399[ebp]
  00097	3b 7e 18	 cmp	 edi, DWORD PTR [esi+24]
  0009a	7c d5		 jl	 SHORT $L108408
$L108397:

; 1345 : 
; 1346 : 		for(; i <= last; i++)

  0009c	ff 45 08	 inc	 DWORD PTR _i$108395[ebp]
  0009f	39 5d 08	 cmp	 DWORD PTR _i$108395[ebp], ebx
  000a2	7e 8a		 jle	 SHORT $L112796

; 1363 : 			}
; 1364 : 		}
; 1365 : 	}
; 1366 : 	else

  000a4	eb 1f		 jmp	 SHORT $L108416
$L108394:

; 1367 : 	{
; 1368 : 		register int i = first;
; 1369 : 
; 1370 : 		for(; i <= last; i++)

  000a6	39 5d 08	 cmp	 DWORD PTR _first$[ebp], ebx
  000a9	7f 1a		 jg	 SHORT $L108416
  000ab	8b 7d 08	 mov	 edi, DWORD PTR _first$[ebp]
  000ae	2b 5d 08	 sub	 ebx, DWORD PTR _first$[ebp]
  000b1	c1 e7 04	 shl	 edi, 4
  000b4	43		 inc	 ebx
$L108414:
  000b5	8b 4e 04	 mov	 ecx, DWORD PTR [esi+4]
  000b8	03 cf		 add	 ecx, edi

; 1371 : 		{
; 1372 : 			m_pData[i].Release();

  000ba	e8 00 00 00 00	 call	 ?Release@CSprite@@QAEXXZ ; CSprite::Release
  000bf	83 c7 10	 add	 edi, 16			; 00000010H
  000c2	4b		 dec	 ebx
  000c3	75 f0		 jne	 SHORT $L108414
$L108416:

; 1373 : 		}
; 1374 : 	}
; 1375 : 
; 1376 : 	return true;
; 1377 : }

  000c5	5f		 pop	 edi
  000c6	5e		 pop	 esi
  000c7	b0 01		 mov	 al, 1
  000c9	5b		 pop	 ebx
  000ca	5d		 pop	 ebp
  000cb	c2 08 00	 ret	 8
?ReleasePart@?$CTypePack2@VCSprite@@VCSprite555@@VCSprite565@@@@UAE_NHH@Z ENDP ; CTypePack2<CSprite,CSprite555,CSprite565>::ReleasePart
_TEXT	ENDS
PUBLIC	??_C@_09EIKOIO@?$CFs?2?$CF05d?$CFs?$AA@		; `string'
EXTRN	_sprintf:NEAR
;	COMDAT ??_C@_09EIKOIO@?$CFs?2?$CF05d?$CFs?$AA@
; File c:\stlport-4.6.1\stlport\stl\_string.h
CONST	SEGMENT
??_C@_09EIKOIO@?$CFs?2?$CF05d?$CFs?$AA@ DB '%s\%05d%s', 00H ; `string'
; Function compile flags: /Ogsy
; File c:\darkeden\designed_common\project\client\spritelib\ctypepack.h
CONST	ENDS
;	COMDAT ?GetSplitFile@?$CTypePack2@VCSprite@@VCSprite555@@VCSprite565@@@@IAEHHPAD@Z
_TEXT	SEGMENT
_idx$ = 8						; size = 4
_szBuf$ = 12						; size = 4
?GetSplitFile@?$CTypePack2@VCSprite@@VCSprite555@@VCSprite565@@@@IAEHHPAD@Z PROC NEAR ; CTypePack2<CSprite,CSprite555,CSprite565>::GetSplitFile, COMDAT
; _this$ = ecx

; 1588 : {

  00000	56		 push	 esi

; 1589 : 	WORD fileIdx = (idx >> m_nUnitTwoMultiplier) << m_nUnitTwoMultiplier;

  00001	8b 74 24 08	 mov	 esi, DWORD PTR _idx$[esp]
  00005	8b c1		 mov	 eax, ecx
  00007	8b 48 1c	 mov	 ecx, DWORD PTR [eax+28]
  0000a	d3 fe		 sar	 esi, cl
  0000c	d3 e6		 shl	 esi, cl

; 1590 : 
; 1591 : 	if(szBuf)

  0000e	83 7c 24 0c 00	 cmp	 DWORD PTR _szBuf$[esp], 0
  00013	74 1b		 je	 SHORT $L109245

; 1592 : 	{
; 1593 : 		sprintf(szBuf, "%s\\%05d%s",
; 1594 : 			m_strFileName.c_str(), fileIdx, m_strFileExt.c_str());

  00015	ff 70 2c	 push	 DWORD PTR [eax+44]
  00018	0f b7 ce	 movzx	 ecx, si
  0001b	51		 push	 ecx
  0001c	ff 70 20	 push	 DWORD PTR [eax+32]
  0001f	68 00 00 00 00	 push	 OFFSET FLAT:??_C@_09EIKOIO@?$CFs?2?$CF05d?$CFs?$AA@
  00024	ff 74 24 1c	 push	 DWORD PTR _szBuf$[esp+16]
  00028	e8 00 00 00 00	 call	 _sprintf
  0002d	83 c4 14	 add	 esp, 20			; 00000014H
$L109245:

; 1595 : 	}
; 1596 : 
; 1597 : 	return fileIdx;

  00030	0f b7 c6	 movzx	 eax, si
  00033	5e		 pop	 esi

; 1598 : }

  00034	c2 08 00	 ret	 8
?GetSplitFile@?$CTypePack2@VCSprite@@VCSprite555@@VCSprite565@@@@IAEHHPAD@Z ENDP ; CTypePack2<CSprite,CSprite555,CSprite565>::GetSplitFile
; Function compile flags: /Ogsy
; File c:\stlport-4.6.1\stlport\stl\_tree.h
_TEXT	ENDS
;	COMDAT ??$_M_find@G@?$_Rb_tree@GU?$pair@$$CBGPAVivfstream@@@_STL@@U?$_Select1st@U?$pair@$$CBGPAVivfstream@@@_STL@@@2@U?$less@G@2@V?$allocator@U?$pair@$$CBGPAVivfstream@@@_STL@@@2@@_STL@@ABEPAU?$_Rb_tree_node@U?$pair@$$CBGPAVivfstream@@@_STL@@@1@ABG@Z
_TEXT	SEGMENT
___k$ = 8						; size = 4
??$_M_find@G@?$_Rb_tree@GU?$pair@$$CBGPAVivfstream@@@_STL@@U?$_Select1st@U?$pair@$$CBGPAVivfstream@@@_STL@@@2@U?$less@G@2@V?$allocator@U?$pair@$$CBGPAVivfstream@@@_STL@@@2@@_STL@@ABEPAU?$_Rb_tree_node@U?$pair@$$CBGPAVivfstream@@@_STL@@@1@ABG@Z PROC NEAR ; _STL::_Rb_tree<unsigned short,_STL::pair<unsigned short const ,ivfstream *>,_STL::_Select1st<_STL::pair<unsigned short const ,ivfstream *> >,_STL::less<unsigned short>,_STL::allocator<_STL::pair<unsigned short const ,ivfstream *> > >::_M_find<unsigned short>, COMDAT
; _this$ = ecx

; 462  : # else
; 463  :   iterator find(const key_type& __x) { return iterator(_M_find(__x)); }
; 464  :   const_iterator find(const key_type& __x) const { return const_iterator(_M_find(__x)); }
; 465  : private:
; 466  :   _Rb_tree_node<_Value>* _M_find(const key_type& __k) const
; 467  : # endif
; 468  :   {
; 469  :     _Link_type __y = this->_M_header._M_data;      // Last node which is not less than __k. 

  00000	8b 11		 mov	 edx, DWORD PTR [ecx]

; 470  :     _Link_type __x = _M_root();      // Current node. 

  00002	8b 4a 04	 mov	 ecx, DWORD PTR [edx+4]

; 471  :     
; 472  :     while (__x != 0) 

  00005	85 c9		 test	 ecx, ecx
  00007	57		 push	 edi
  00008	8b 7c 24 08	 mov	 edi, DWORD PTR ___k$[esp]
  0000c	8b c2		 mov	 eax, edx
  0000e	74 19		 je	 SHORT $L109954
  00010	56		 push	 esi
  00011	66 8b 37	 mov	 si, WORD PTR [edi]
$L109953:

; 473  :       if (!_M_key_compare(_S_key(__x), __k))

  00014	66 39 71 10	 cmp	 WORD PTR [ecx+16], si
  00018	72 07		 jb	 SHORT $L109955

; 474  : 	__y = __x, __x = _S_left(__x);

  0001a	8b c1		 mov	 eax, ecx
  0001c	8b 49 08	 mov	 ecx, DWORD PTR [ecx+8]

; 475  :       else

  0001f	eb 03		 jmp	 SHORT $L109956
$L109955:

; 476  : 	__x = _S_right(__x);

  00021	8b 49 0c	 mov	 ecx, DWORD PTR [ecx+12]
$L109956:

; 471  :     
; 472  :     while (__x != 0) 

  00024	85 c9		 test	 ecx, ecx
  00026	75 ec		 jne	 SHORT $L109953
  00028	5e		 pop	 esi
$L109954:

; 477  :     if (__y == this->_M_header._M_data || _M_key_compare(__k, _S_key(__y)))

  00029	3b c2		 cmp	 eax, edx
  0002b	74 09		 je	 SHORT $L109958
  0002d	66 8b 0f	 mov	 cx, WORD PTR [edi]
  00030	66 3b 48 10	 cmp	 cx, WORD PTR [eax+16]
  00034	73 02		 jae	 SHORT $L109957
$L109958:

; 478  :       __y = this->_M_header._M_data;

  00036	8b c2		 mov	 eax, edx
$L109957:
  00038	5f		 pop	 edi

; 479  :     return __y;
; 480  :   }

  00039	c2 04 00	 ret	 4
??$_M_find@G@?$_Rb_tree@GU?$pair@$$CBGPAVivfstream@@@_STL@@U?$_Select1st@U?$pair@$$CBGPAVivfstream@@@_STL@@@2@U?$less@G@2@V?$allocator@U?$pair@$$CBGPAVivfstream@@@_STL@@@2@@_STL@@ABEPAU?$_Rb_tree_node@U?$pair@$$CBGPAVivfstream@@@_STL@@@1@ABG@Z ENDP ; _STL::_Rb_tree<unsigned short,_STL::pair<unsigned short const ,ivfstream *>,_STL::_Select1st<_STL::pair<unsigned short const ,ivfstream *> >,_STL::less<unsigned short>,_STL::allocator<_STL::pair<unsigned short const ,ivfstream *> > >::_M_find<unsigned short>
_TEXT	ENDS
EXTRN	?_Rebalance_for_erase@?$_Rb_global@_N@_STL@@SAPAU_Rb_tree_node_base@2@PAU32@AAPAU32@11@Z:NEAR ; _STL::_Rb_global<bool>::_Rebalance_for_erase
; Function compile flags: /Ogsy
;	COMDAT ?erase@?$_Rb_tree@GU?$pair@$$CBGPAVivfstream@@@_STL@@U?$_Select1st@U?$pair@$$CBGPAVivfstream@@@_STL@@@2@U?$less@G@2@V?$allocator@U?$pair@$$CBGPAVivfstream@@@_STL@@@2@@_STL@@QAEXU?$_Rb_tree_iterator@U?$pair@$$CBGPAVivfstream@@@_STL@@U?$_Nonconst_traits@U?$pair@$$CBGPAVivfstream@@@_STL@@@2@@2@@Z
_TEXT	SEGMENT
___position$ = 8					; size = 4
?erase@?$_Rb_tree@GU?$pair@$$CBGPAVivfstream@@@_STL@@U?$_Select1st@U?$pair@$$CBGPAVivfstream@@@_STL@@@2@U?$less@G@2@V?$allocator@U?$pair@$$CBGPAVivfstream@@@_STL@@@2@@_STL@@QAEXU?$_Rb_tree_iterator@U?$pair@$$CBGPAVivfstream@@@_STL@@U?$_Nonconst_traits@U?$pair@$$CBGPAVivfstream@@@_STL@@@2@@2@@Z PROC NEAR ; _STL::_Rb_tree<unsigned short,_STL::pair<unsigned short const ,ivfstream *>,_STL::_Select1st<_STL::pair<unsigned short const ,ivfstream *> >,_STL::less<unsigned short>,_STL::allocator<_STL::pair<unsigned short const ,ivfstream *> > >::erase, COMDAT
; _this$ = ecx

; 416  :   void erase(iterator __position) {

  00000	56		 push	 esi
  00001	8b f1		 mov	 esi, ecx

; 417  :     _Link_type __y = 
; 418  :       (_Link_type) _Rb_global_inst::_Rebalance_for_erase(__position._M_node,
; 419  : 							 this->_M_header._M_data->_M_parent,
; 420  : 							 this->_M_header._M_data->_M_left,
; 421  : 							 this->_M_header._M_data->_M_right);

  00003	8b 06		 mov	 eax, DWORD PTR [esi]
  00005	8d 48 0c	 lea	 ecx, DWORD PTR [eax+12]
  00008	51		 push	 ecx
  00009	8d 48 08	 lea	 ecx, DWORD PTR [eax+8]
  0000c	51		 push	 ecx
  0000d	83 c0 04	 add	 eax, 4
  00010	50		 push	 eax
  00011	ff 74 24 14	 push	 DWORD PTR ___position$[esp+12]
  00015	e8 00 00 00 00	 call	 ?_Rebalance_for_erase@?$_Rb_global@_N@_STL@@SAPAU_Rb_tree_node_base@2@PAU32@AAPAU32@11@Z ; _STL::_Rb_global<bool>::_Rebalance_for_erase
  0001a	83 c4 10	 add	 esp, 16			; 00000010H

; 422  :     _STLP_STD::_Destroy(&__y->_M_value_field);
; 423  :     this->_M_header.deallocate(__y,1);

  0001d	6a 01		 push	 1
  0001f	50		 push	 eax
  00020	8b ce		 mov	 ecx, esi
  00022	e8 00 00 00 00	 call	 ?deallocate@?$allocator@U?$_Rb_tree_node@U?$pair@$$CBGPAVivfstream@@@_STL@@@_STL@@@_STL@@QAEXPAU?$_Rb_tree_node@U?$pair@$$CBGPAVivfstream@@@_STL@@@2@I@Z ; _STL::allocator<_STL::_Rb_tree_node<_STL::pair<unsigned short const ,ivfstream *> > >::deallocate

; 424  :     --_M_node_count;

  00027	ff 4e 04	 dec	 DWORD PTR [esi+4]
  0002a	5e		 pop	 esi

; 425  :   }

  0002b	c2 04 00	 ret	 4
?erase@?$_Rb_tree@GU?$pair@$$CBGPAVivfstream@@@_STL@@U?$_Select1st@U?$pair@$$CBGPAVivfstream@@@_STL@@@2@U?$less@G@2@V?$allocator@U?$pair@$$CBGPAVivfstream@@@_STL@@@2@@_STL@@QAEXU?$_Rb_tree_iterator@U?$pair@$$CBGPAVivfstream@@@_STL@@U?$_Nonconst_traits@U?$pair@$$CBGPAVivfstream@@@_STL@@@2@@2@@Z ENDP ; _STL::_Rb_tree<unsigned short,_STL::pair<unsigned short const ,ivfstream *>,_STL::_Select1st<_STL::pair<unsigned short const ,ivfstream *> >,_STL::less<unsigned short>,_STL::allocator<_STL::pair<unsigned short const ,ivfstream *> > >::erase
; Function compile flags: /Ogsy
; File c:\darkeden\designed_common\project\client\spritelib\ctypepack.h
_TEXT	ENDS
;	COMDAT ?FinishRunningLoad@?$CTypePack2@VCSprite@@VCSprite555@@VCSprite565@@@@UAEXXZ
_TEXT	SEGMENT
?FinishRunningLoad@?$CTypePack2@VCSprite@@VCSprite555@@VCSprite565@@@@UAEXXZ PROC NEAR ; CTypePack2<CSprite,CSprite555,CSprite565>::FinishRunningLoad, COMDAT
; _this$ = ecx

; 1528 : {

  00000	53		 push	 ebx
  00001	56		 push	 esi
  00002	8b f1		 mov	 esi, ecx

; 1529 : 	m_bRunningLoad = false;
; 1530 : 
; 1531 : 	FILECACHE_MAP::iterator pos = m_FileCacheMap.begin();

  00004	8d 5e 38	 lea	 ebx, DWORD PTR [esi+56]
  00007	8b 03		 mov	 eax, DWORD PTR [ebx]
  00009	57		 push	 edi
  0000a	c6 46 0a 00	 mov	 BYTE PTR [esi+10], 0
  0000e	8b 78 08	 mov	 edi, DWORD PTR [eax+8]

; 1532 : 
; 1533 : 	for(; pos != m_FileCacheMap.end(); ++pos)

  00011	3b f8		 cmp	 edi, eax
  00013	74 1a		 je	 SHORT $L108428
$L112899:

; 1534 : 	{
; 1535 : 		ivfstream *pVF = pos->second;

  00015	8b 4f 14	 mov	 ecx, DWORD PTR [edi+20]

; 1536 : 		if(pVF) delete pVF;

  00018	85 c9		 test	 ecx, ecx
  0001a	74 06		 je	 SHORT $L108427
  0001c	8b 01		 mov	 eax, DWORD PTR [ecx]
  0001e	6a 01		 push	 1
  00020	ff 10		 call	 DWORD PTR [eax]
$L108427:
  00022	57		 push	 edi
  00023	e8 00 00 00 00	 call	 ?_M_increment@?$_Rb_global@_N@_STL@@SAPAU_Rb_tree_node_base@2@PAU32@@Z ; _STL::_Rb_global<bool>::_M_increment
  00028	8b f8		 mov	 edi, eax
  0002a	3b 3b		 cmp	 edi, DWORD PTR [ebx]
  0002c	59		 pop	 ecx
  0002d	75 e6		 jne	 SHORT $L112899
$L108428:

; 1537 : 	}
; 1538 : 
; 1539 : 	m_FileCacheMap.clear();

  0002f	8b cb		 mov	 ecx, ebx
  00031	e8 00 00 00 00	 call	 ?clear@?$_Rb_tree@GU?$pair@$$CBGPAVivfstream@@@_STL@@U?$_Select1st@U?$pair@$$CBGPAVivfstream@@@_STL@@@2@U?$less@G@2@V?$allocator@U?$pair@$$CBGPAVivfstream@@@_STL@@@2@@_STL@@QAEXXZ ; _STL::_Rb_tree<unsigned short,_STL::pair<unsigned short const ,ivfstream *>,_STL::_Select1st<_STL::pair<unsigned short const ,ivfstream *> >,_STL::less<unsigned short>,_STL::allocator<_STL::pair<unsigned short const ,ivfstream *> > >::clear

; 1540 : 
; 1541 : 	if(m_file)

  00036	8b 4e 0c	 mov	 ecx, DWORD PTR [esi+12]
  00039	85 c9		 test	 ecx, ecx
  0003b	74 0a		 je	 SHORT $L108433

; 1542 : 	{
; 1543 : 		delete m_file;

  0003d	8b 01		 mov	 eax, DWORD PTR [ecx]
  0003f	6a 01		 push	 1
  00041	ff 10		 call	 DWORD PTR [eax]

; 1544 : 		m_file = NULL;

  00043	83 66 0c 00	 and	 DWORD PTR [esi+12], 0
$L108433:

; 1545 : 	}
; 1546 : 
; 1547 : 	if(m_file_index)

  00047	8b 46 10	 mov	 eax, DWORD PTR [esi+16]
  0004a	85 c0		 test	 eax, eax
  0004c	74 0b		 je	 SHORT $L108436

; 1548 : 	{
; 1549 : 		delete [] m_file_index;

  0004e	50		 push	 eax
  0004f	e8 00 00 00 00	 call	 ??_V@YAXPAX@Z		; operator delete[]

; 1550 : 		m_file_index = NULL;

  00054	83 66 10 00	 and	 DWORD PTR [esi+16], 0
  00058	59		 pop	 ecx
$L108436:
  00059	5f		 pop	 edi
  0005a	5e		 pop	 esi
  0005b	5b		 pop	 ebx

; 1551 : 	}
; 1552 : }

  0005c	c3		 ret	 0
?FinishRunningLoad@?$CTypePack2@VCSprite@@VCSprite555@@VCSprite565@@@@UAEXXZ ENDP ; CTypePack2<CSprite,CSprite555,CSprite565>::FinishRunningLoad
_TEXT	ENDS
PUBLIC	??1?$CTypePack2@VCSprite@@VCSprite555@@VCSprite565@@@@UAE@XZ ; CTypePack2<CSprite,CSprite555,CSprite565>::~CTypePack2<CSprite,CSprite555,CSprite565>
;	COMDAT xdata$x
xdata$x	SEGMENT
$T113013 DD	0ffffffffH
	DD	FLAT:$L112936
	DD	00H
	DD	FLAT:$L112937
	DD	01H
	DD	FLAT:$L112938
	DD	02H
	DD	FLAT:$L112939
$T113011 DD	019930520H
	DD	04H
	DD	FLAT:$T113013
	DD	2 DUP(00H)
	DD	2 DUP(00H)
; Function compile flags: /Ogsy
xdata$x	ENDS
;	COMDAT ??1?$CTypePack2@VCSprite@@VCSprite555@@VCSprite565@@@@UAE@XZ
_TEXT	SEGMENT
_this$ = -16						; size = 4
__$EHRec$ = -12						; size = 12
??1?$CTypePack2@VCSprite@@VCSprite555@@VCSprite565@@@@UAE@XZ PROC NEAR ; CTypePack2<CSprite,CSprite555,CSprite565>::~CTypePack2<CSprite,CSprite555,CSprite565>, COMDAT
; _this$ = ecx

; 893  : {

  00000	b8 00 00 00 00	 mov	 eax, __ehhandler$??1?$CTypePack2@VCSprite@@VCSprite555@@VCSprite565@@@@UAE@XZ
  00005	e8 00 00 00 00	 call	 __EH_prolog
  0000a	51		 push	 ecx
  0000b	56		 push	 esi
  0000c	8b f1		 mov	 esi, ecx
  0000e	89 75 f0	 mov	 DWORD PTR _this$[ebp], esi
  00011	c7 06 00 00 00
	00		 mov	 DWORD PTR [esi], OFFSET FLAT:??_7?$CTypePack2@VCSprite@@VCSprite555@@VCSprite565@@@@6B@
  00017	c7 45 fc 03 00
	00 00		 mov	 DWORD PTR __$EHRec$[ebp+8], 3

; 894  : 	Release();

  0001e	e8 00 00 00 00	 call	 ?Release@?$CTypePack2@VCSprite@@VCSprite555@@VCSprite565@@@@UAEXXZ ; CTypePack2<CSprite,CSprite555,CSprite565>::Release

; 895  : }

  00023	8d 4e 38	 lea	 ecx, DWORD PTR [esi+56]
  00026	c6 45 fc 02	 mov	 BYTE PTR __$EHRec$[ebp+8], 2
  0002a	e8 00 00 00 00	 call	 ??1?$_Rb_tree@GU?$pair@$$CBGPAVivfstream@@@_STL@@U?$_Select1st@U?$pair@$$CBGPAVivfstream@@@_STL@@@2@U?$less@G@2@V?$allocator@U?$pair@$$CBGPAVivfstream@@@_STL@@@2@@_STL@@QAE@XZ ; _STL::_Rb_tree<unsigned short,_STL::pair<unsigned short const ,ivfstream *>,_STL::_Select1st<_STL::pair<unsigned short const ,ivfstream *> >,_STL::less<unsigned short>,_STL::allocator<_STL::pair<unsigned short const ,ivfstream *> > >::~_Rb_tree<unsigned short,_STL::pair<unsigned short const ,ivfstream *>,_STL::_Select1st<_STL::pair<unsigned short const ,ivfstream *> >,_STL::less<unsigned short>,_STL::allocator<_STL::pair<unsigned short const ,ivfstream *> > >
  0002f	8d 4e 2c	 lea	 ecx, DWORD PTR [esi+44]
  00032	c6 45 fc 01	 mov	 BYTE PTR __$EHRec$[ebp+8], 1
  00036	e8 00 00 00 00	 call	 ?_M_deallocate_block@?$_String_base@DV?$allocator@D@_STL@@@_STL@@QAEXXZ ; _STL::_String_base<char,_STL::allocator<char> >::_M_deallocate_block
  0003b	8d 4e 20	 lea	 ecx, DWORD PTR [esi+32]
  0003e	c6 45 fc 00	 mov	 BYTE PTR __$EHRec$[ebp+8], 0
  00042	e8 00 00 00 00	 call	 ?_M_deallocate_block@?$_String_base@DV?$allocator@D@_STL@@@_STL@@QAEXXZ ; _STL::_String_base<char,_STL::allocator<char> >::_M_deallocate_block
  00047	8b 4d f4	 mov	 ecx, DWORD PTR __$EHRec$[ebp]
  0004a	c7 06 00 00 00
	00		 mov	 DWORD PTR [esi], OFFSET FLAT:??_7ITypePackBase@@6B@
  00050	5e		 pop	 esi
  00051	64 89 0d 00 00
	00 00		 mov	 DWORD PTR fs:__except_list, ecx
  00058	c9		 leave
  00059	c3		 ret	 0
_TEXT	ENDS
;	COMDAT text$x
text$x	SEGMENT
$L112936:
  00000	8b 4d f0	 mov	 ecx, DWORD PTR _this$[ebp]
  00003	e9 00 00 00 00	 jmp	 ??1ITypePackBase@@UAE@XZ ; ITypePackBase::~ITypePackBase
$L112937:
  00008	8b 4d f0	 mov	 ecx, DWORD PTR _this$[ebp]
  0000b	83 c1 20	 add	 ecx, 32			; 00000020H
  0000e	e9 00 00 00 00	 jmp	 ??1?$basic_string@DV?$char_traits@D@_STL@@V?$allocator@D@2@@_STL@@QAE@XZ ; _STL::basic_string<char,_STL::char_traits<char>,_STL::allocator<char> >::~basic_string<char,_STL::char_traits<char>,_STL::allocator<char> >
$L112938:
  00013	8b 4d f0	 mov	 ecx, DWORD PTR _this$[ebp]
  00016	83 c1 2c	 add	 ecx, 44			; 0000002cH
  00019	e9 00 00 00 00	 jmp	 ??1?$basic_string@DV?$char_traits@D@_STL@@V?$allocator@D@2@@_STL@@QAE@XZ ; _STL::basic_string<char,_STL::char_traits<char>,_STL::allocator<char> >::~basic_string<char,_STL::char_traits<char>,_STL::allocator<char> >
$L112939:
  0001e	8b 4d f0	 mov	 ecx, DWORD PTR _this$[ebp]
  00021	83 c1 38	 add	 ecx, 56			; 00000038H
  00024	e9 00 00 00 00	 jmp	 ??1?$map@GPAVivfstream@@U?$less@G@_STL@@V?$allocator@U?$pair@$$CBGPAVivfstream@@@_STL@@@3@@_STL@@QAE@XZ
__ehhandler$??1?$CTypePack2@VCSprite@@VCSprite555@@VCSprite565@@@@UAE@XZ:
  00029	b8 00 00 00 00	 mov	 eax, OFFSET FLAT:$T113011
  0002e	e9 00 00 00 00	 jmp	 ___CxxFrameHandler
text$x	ENDS
??1?$CTypePack2@VCSprite@@VCSprite555@@VCSprite565@@@@UAE@XZ ENDP ; CTypePack2<CSprite,CSprite555,CSprite565>::~CTypePack2<CSprite,CSprite555,CSprite565>
PUBLIC	??1?$_List_base@GV?$allocator@G@_STL@@@_STL@@QAE@XZ ; _STL::_List_base<unsigned short,_STL::allocator<unsigned short> >::~_List_base<unsigned short,_STL::allocator<unsigned short> >
PUBLIC	?clear@?$_List_base@GV?$allocator@G@_STL@@@_STL@@QAEXXZ ; _STL::_List_base<unsigned short,_STL::allocator<unsigned short> >::clear
PUBLIC	??1?$list@GV?$allocator@G@_STL@@@_STL@@QAE@XZ	; _STL::list<unsigned short,_STL::allocator<unsigned short> >::~list<unsigned short,_STL::allocator<unsigned short> >
PUBLIC	??1?$COrderedList@G@@QAE@XZ			; COrderedList<unsigned short>::~COrderedList<unsigned short>
PUBLIC	?GetSize@?$COrderedList@G@@QBEHXZ		; COrderedList<unsigned short>::GetSize
;	COMDAT xdata$x
; File c:\stlport-4.6.1\stlport\stl\_alloc.h
xdata$x	SEGMENT
$T113367 DD	0ffffffffH
	DD	FLAT:$L113025
	DD	0ffffffffH
	DD	FLAT:$L113311
$T113358 DD	019930520H
	DD	02H
	DD	FLAT:$T113367
	DD	2 DUP(00H)
	DD	2 DUP(00H)
; Function compile flags: /Ogsy
; File c:\darkeden\designed_common\project\client\spritelib\ctypepack.h
xdata$x	ENDS
;	COMDAT ?ReleasePart@?$CTypePack2@VCSprite@@VCSprite555@@VCSprite565@@@@UAE_NV?$COrderedList@G@@@Z
_TEXT	SEGMENT
_t$108361 = -24						; size = 4
_iID$ = -20						; size = 4
_fileIdx$108366 = -16					; size = 2
__$EHRec$ = -12						; size = 12
_list$ = 8						; size = 4
?ReleasePart@?$CTypePack2@VCSprite@@VCSprite555@@VCSprite565@@@@UAE_NV?$COrderedList@G@@@Z PROC NEAR ; CTypePack2<CSprite,CSprite555,CSprite565>::ReleasePart, COMDAT
; _this$ = ecx

; 1381 : {

  00000	b8 00 00 00 00	 mov	 eax, __ehhandler$?ReleasePart@?$CTypePack2@VCSprite@@VCSprite555@@VCSprite565@@@@UAE_NV?$COrderedList@G@@@Z
  00005	e8 00 00 00 00	 call	 __EH_prolog
  0000a	83 ec 0c	 sub	 esp, 12			; 0000000cH
  0000d	53		 push	 ebx
  0000e	56		 push	 esi
  0000f	57		 push	 edi
  00010	8b f1		 mov	 esi, ecx

; 1382 : 	COrderedList<TYPE_SPRITEID>::DATA_LIST::const_iterator iID = list.GetIterator();

  00012	8b 45 08	 mov	 eax, DWORD PTR _list$[ebp]
  00015	8b 38		 mov	 edi, DWORD PTR [eax]
  00017	33 db		 xor	 ebx, ebx

; 1383 : 
; 1384 : 	if(m_bSplitFile)

  00019	38 5e 14	 cmp	 BYTE PTR [esi+20], bl
  0001c	89 5d fc	 mov	 DWORD PTR __$EHRec$[ebp+8], ebx
  0001f	89 7d ec	 mov	 DWORD PTR _iID$[ebp], edi

; 1385 : 	{
; 1386 : 		register int t = 0;
; 1387 : 
; 1388 : 		for(; t<list.GetSize(); t++, ++iID)

  00022	8d 4d 08	 lea	 ecx, DWORD PTR _list$[ebp]
  00025	0f 84 aa 00 00
	00		 je	 $L108360
  0002b	89 5d e8	 mov	 DWORD PTR _t$108361[ebp], ebx
  0002e	e8 00 00 00 00	 call	 ?GetSize@?$COrderedList@G@@QBEHXZ ; COrderedList<unsigned short>::GetSize
  00033	85 c0		 test	 eax, eax
  00035	0f 8e d2 00 00
	00		 jle	 $L108383
  0003b	eb 03		 jmp	 SHORT $L113055
$L113363:
  0003d	8b 7d ec	 mov	 edi, DWORD PTR _iID$[ebp]
$L113055:

; 1389 : 		{
; 1390 : 			if(*iID == 0xFFFF) continue;

  00040	66 8b 47 08	 mov	 ax, WORD PTR [edi+8]
  00044	66 3d ff ff	 cmp	 ax, 65535		; 0000ffffH
  00048	74 70		 je	 SHORT $L108363

; 1391 : 			
; 1392 : 			WORD fileIdx = GetSplitFile(*iID);

  0004a	0f b7 c0	 movzx	 eax, ax
  0004d	6a 00		 push	 0
  0004f	50		 push	 eax
  00050	8b ce		 mov	 ecx, esi
  00052	e8 00 00 00 00	 call	 ?GetSplitFile@?$CTypePack2@VCSprite@@VCSprite555@@VCSprite565@@@@IAEHHPAD@Z ; CTypePack2<CSprite,CSprite555,CSprite565>::GetSplitFile
  00057	89 45 f0	 mov	 DWORD PTR _fileIdx$108366[ebp], eax

; 1393 : 
; 1394 : 			FILECACHE_MAP::iterator pos = m_FileCacheMap.find(fileIdx);

  0005a	8d 45 f0	 lea	 eax, DWORD PTR _fileIdx$108366[ebp]
  0005d	8d 7e 38	 lea	 edi, DWORD PTR [esi+56]
  00060	50		 push	 eax
  00061	8b cf		 mov	 ecx, edi
  00063	e8 00 00 00 00	 call	 ??$_M_find@G@?$_Rb_tree@GU?$pair@$$CBGPAVivfstream@@@_STL@@U?$_Select1st@U?$pair@$$CBGPAVivfstream@@@_STL@@@2@U?$less@G@2@V?$allocator@U?$pair@$$CBGPAVivfstream@@@_STL@@@2@@_STL@@ABEPAU?$_Rb_tree_node@U?$pair@$$CBGPAVivfstream@@@_STL@@@1@ABG@Z ; _STL::_Rb_tree<unsigned short,_STL::pair<unsigned short const ,ivfstream *>,_STL::_Select1st<_STL::pair<unsigned short const ,ivfstream *> >,_STL::less<unsigned short>,_STL::allocator<_STL::pair<unsigned short const ,ivfstream *> > >::_M_find<unsigned short>
  00068	8b d8		 mov	 ebx, eax

; 1395 : 			if(pos != m_FileCacheMap.end())

  0006a	3b 1f		 cmp	 ebx, DWORD PTR [edi]
  0006c	74 19		 je	 SHORT $L113178

; 1396 : 			{
; 1397 : 				delete pos->second;

  0006e	8b 4b 14	 mov	 ecx, DWORD PTR [ebx+20]
  00071	85 c9		 test	 ecx, ecx
  00073	74 06		 je	 SHORT $L113021
  00075	8b 01		 mov	 eax, DWORD PTR [ecx]
  00077	6a 01		 push	 1
  00079	ff 10		 call	 DWORD PTR [eax]
$L113021:

; 1398 : 				m_FileCacheMap.erase(pos);

  0007b	51		 push	 ecx
  0007c	8b c4		 mov	 eax, esp
  0007e	8b cf		 mov	 ecx, edi
  00080	89 18		 mov	 DWORD PTR [eax], ebx
  00082	e8 00 00 00 00	 call	 ?erase@?$_Rb_tree@GU?$pair@$$CBGPAVivfstream@@@_STL@@U?$_Select1st@U?$pair@$$CBGPAVivfstream@@@_STL@@@2@U?$less@G@2@V?$allocator@U?$pair@$$CBGPAVivfstream@@@_STL@@@2@@_STL@@QAEXU?$_Rb_tree_iterator@U?$pair@$$CBGPAVivfstream@@@_STL@@U?$_Nonconst_traits@U?$pair@$$CBGPAVivfstream@@@_STL@@@2@@2@@Z ; _STL::_Rb_tree<unsigned short,_STL::pair<unsigned short const ,ivfstream *>,_STL::_Select1st<_STL::pair<unsigned short const ,ivfstream *> >,_STL::less<unsigned short>,_STL::allocator<_STL::pair<unsigned short const ,ivfstream *> > >::erase
$L113178:

; 1399 : 			}
; 1400 : 
; 1401 : 			for(int i = 0; i < m_nUnitCount && fileIdx < m_Size; ++i, ++fileIdx)

  00087	33 ff		 xor	 edi, edi
  00089	39 7e 18	 cmp	 DWORD PTR [esi+24], edi
  0008c	7e 29		 jle	 SHORT $L113364
$L108375:
  0008e	66 8b 45 f0	 mov	 ax, WORD PTR _fileIdx$108366[ebp]
  00092	66 3b 46 08	 cmp	 ax, WORD PTR [esi+8]
  00096	73 1f		 jae	 SHORT $L113364

; 1402 : 			{
; 1403 : 				if(m_pData[fileIdx].IsInit())

  00098	8b 4e 04	 mov	 ecx, DWORD PTR [esi+4]
  0009b	0f b7 c0	 movzx	 eax, ax
  0009e	c1 e0 04	 shl	 eax, 4
  000a1	03 c8		 add	 ecx, eax
  000a3	80 79 0c 00	 cmp	 BYTE PTR [ecx+12], 0
  000a7	74 05		 je	 SHORT $L108376

; 1404 : 					m_pData[fileIdx].Release();

  000a9	e8 00 00 00 00	 call	 ?Release@CSprite@@QAEXXZ ; CSprite::Release
$L108376:

; 1399 : 			}
; 1400 : 
; 1401 : 			for(int i = 0; i < m_nUnitCount && fileIdx < m_Size; ++i, ++fileIdx)

  000ae	47		 inc	 edi
  000af	ff 45 f0	 inc	 DWORD PTR _fileIdx$108366[ebp]
  000b2	3b 7e 18	 cmp	 edi, DWORD PTR [esi+24]
  000b5	7c d7		 jl	 SHORT $L108375
$L113364:
  000b7	8b 7d ec	 mov	 edi, DWORD PTR _iID$[ebp]
$L108363:

; 1385 : 	{
; 1386 : 		register int t = 0;
; 1387 : 
; 1388 : 		for(; t<list.GetSize(); t++, ++iID)

  000ba	8b 07		 mov	 eax, DWORD PTR [edi]
  000bc	ff 45 e8	 inc	 DWORD PTR _t$108361[ebp]
  000bf	8d 4d 08	 lea	 ecx, DWORD PTR _list$[ebp]
  000c2	89 45 ec	 mov	 DWORD PTR _iID$[ebp], eax
  000c5	e8 00 00 00 00	 call	 ?GetSize@?$COrderedList@G@@QBEHXZ ; COrderedList<unsigned short>::GetSize
  000ca	39 45 e8	 cmp	 DWORD PTR _t$108361[ebp], eax
  000cd	0f 8c 6a ff ff
	ff		 jl	 $L113363

; 1405 : 			}
; 1406 : 		}
; 1407 : 	}
; 1408 : 	else

  000d3	eb 38		 jmp	 SHORT $L108383
$L108360:

; 1409 : 	{
; 1410 : 		register int t = 0;
; 1411 : 
; 1412 : 		for(; t<list.GetSize(); t++, ++iID)

  000d5	e8 00 00 00 00	 call	 ?GetSize@?$COrderedList@G@@QBEHXZ ; COrderedList<unsigned short>::GetSize
  000da	85 c0		 test	 eax, eax
  000dc	7e 2f		 jle	 SHORT $L108383
  000de	eb 03		 jmp	 SHORT $L113192
$L113365:
  000e0	8b 7d ec	 mov	 edi, DWORD PTR _iID$[ebp]
$L113192:

; 1413 : 		{
; 1414 : 			if(*iID == 0xFFFF) continue;

  000e3	66 8b 47 08	 mov	 ax, WORD PTR [edi+8]
  000e7	66 3d ff ff	 cmp	 ax, 65535		; 0000ffffH
  000eb	74 0e		 je	 SHORT $L108382

; 1415 : 			m_pData[*iID].Release();

  000ed	0f b7 c8	 movzx	 ecx, ax
  000f0	c1 e1 04	 shl	 ecx, 4
  000f3	03 4e 04	 add	 ecx, DWORD PTR [esi+4]
  000f6	e8 00 00 00 00	 call	 ?Release@CSprite@@QAEXXZ ; CSprite::Release
$L108382:
  000fb	8b 07		 mov	 eax, DWORD PTR [edi]
  000fd	8d 4d 08	 lea	 ecx, DWORD PTR _list$[ebp]
  00100	43		 inc	 ebx
  00101	89 45 ec	 mov	 DWORD PTR _iID$[ebp], eax
  00104	e8 00 00 00 00	 call	 ?GetSize@?$COrderedList@G@@QBEHXZ ; COrderedList<unsigned short>::GetSize
  00109	3b d8		 cmp	 ebx, eax
  0010b	7c d3		 jl	 SHORT $L113365
$L108383:

; 1416 : 		}
; 1417 : 	}
; 1418 : 
; 1419 : 	return true;

  0010d	8d 4d 08	 lea	 ecx, DWORD PTR _list$[ebp]
  00110	c7 45 fc 01 00
	00 00		 mov	 DWORD PTR __$EHRec$[ebp+8], 1
  00117	e8 00 00 00 00	 call	 ?clear@?$_List_base@GV?$allocator@G@_STL@@@_STL@@QAEXXZ ; _STL::_List_base<unsigned short,_STL::allocator<unsigned short> >::clear
  0011c	83 4d fc ff	 or	 DWORD PTR __$EHRec$[ebp+8], -1
  00120	8d 4d 08	 lea	 ecx, DWORD PTR _list$[ebp]
  00123	e8 00 00 00 00	 call	 ??1?$_List_base@GV?$allocator@G@_STL@@@_STL@@QAE@XZ ; _STL::_List_base<unsigned short,_STL::allocator<unsigned short> >::~_List_base<unsigned short,_STL::allocator<unsigned short> >

; 1420 : }

  00128	8b 4d f4	 mov	 ecx, DWORD PTR __$EHRec$[ebp]
  0012b	5f		 pop	 edi
  0012c	5e		 pop	 esi
  0012d	b0 01		 mov	 al, 1
  0012f	64 89 0d 00 00
	00 00		 mov	 DWORD PTR fs:__except_list, ecx
  00136	5b		 pop	 ebx
  00137	c9		 leave
  00138	c2 04 00	 ret	 4
_TEXT	ENDS
;	COMDAT text$x
text$x	SEGMENT
$L113025:
  00000	8d 4d 08	 lea	 ecx, DWORD PTR _list$[ebp]
  00003	e9 00 00 00 00	 jmp	 ??1?$COrderedList@G@@QAE@XZ ; COrderedList<unsigned short>::~COrderedList<unsigned short>
$L113311:
  00008	8d 4d 08	 lea	 ecx, DWORD PTR _list$[ebp]
  0000b	e9 00 00 00 00	 jmp	 ??1?$list@GV?$allocator@G@_STL@@@_STL@@QAE@XZ ; _STL::list<unsigned short,_STL::allocator<unsigned short> >::~list<unsigned short,_STL::allocator<unsigned short> >
__ehhandler$?ReleasePart@?$CTypePack2@VCSprite@@VCSprite555@@VCSprite565@@@@UAE_NV?$COrderedList@G@@@Z:
  00010	b8 00 00 00 00	 mov	 eax, OFFSET FLAT:$T113358
  00015	e9 00 00 00 00	 jmp	 ___CxxFrameHandler
text$x	ENDS
?ReleasePart@?$CTypePack2@VCSprite@@VCSprite555@@VCSprite565@@@@UAE_NV?$COrderedList@G@@@Z ENDP ; CTypePack2<CSprite,CSprite555,CSprite565>::ReleasePart
; Function compile flags: /Ogsy
; File c:\stlport-4.6.1\stlport\stl\_list.c
;	COMDAT ?clear@?$_List_base@GV?$allocator@G@_STL@@@_STL@@QAEXXZ
_TEXT	SEGMENT
?clear@?$_List_base@GV?$allocator@G@_STL@@@_STL@@QAEXXZ PROC NEAR ; _STL::_List_base<unsigned short,_STL::allocator<unsigned short> >::clear, COMDAT
; _this$ = ecx

; 68   : {

  00000	56		 push	 esi
  00001	57		 push	 edi
  00002	8b f9		 mov	 edi, ecx

; 69   :   _List_node<_Tp>* __cur = (_List_node<_Tp>*) this->_M_node._M_data->_M_next;

  00004	8b 07		 mov	 eax, DWORD PTR [edi]
  00006	8b 30		 mov	 esi, DWORD PTR [eax]

; 70   :   while (__cur != this->_M_node._M_data) {

  00008	3b f0		 cmp	 esi, eax
  0000a	74 12		 je	 SHORT $L109989
$L109988:

; 71   :     _List_node<_Tp>* __tmp = __cur;

  0000c	8b c6		 mov	 eax, esi

; 72   :     __cur = (_List_node<_Tp>*) __cur->_M_next;

  0000e	8b 36		 mov	 esi, DWORD PTR [esi]

; 73   :     _STLP_STD::_Destroy(&__tmp->_M_data);
; 74   :     this->_M_node.deallocate(__tmp, 1);

  00010	6a 0c		 push	 12			; 0000000cH
  00012	50		 push	 eax
  00013	e8 00 00 00 00	 call	 ?deallocate@?$__node_alloc@$00$0A@@_STL@@SAXPAXI@Z ; _STL::__node_alloc<1,0>::deallocate
  00018	3b 37		 cmp	 esi, DWORD PTR [edi]
  0001a	59		 pop	 ecx
  0001b	59		 pop	 ecx
  0001c	75 ee		 jne	 SHORT $L109988
$L109989:

; 75   :   }
; 76   :   this->_M_node._M_data->_M_next = this->_M_node._M_data;

  0001e	8b 07		 mov	 eax, DWORD PTR [edi]
  00020	89 00		 mov	 DWORD PTR [eax], eax

; 77   :   this->_M_node._M_data->_M_prev = this->_M_node._M_data;

  00022	8b 3f		 mov	 edi, DWORD PTR [edi]
  00024	89 7f 04	 mov	 DWORD PTR [edi+4], edi
  00027	5f		 pop	 edi
  00028	5e		 pop	 esi

; 78   : }

  00029	c3		 ret	 0
?clear@?$_List_base@GV?$allocator@G@_STL@@@_STL@@QAEXXZ ENDP ; _STL::_List_base<unsigned short,_STL::allocator<unsigned short> >::clear
_TEXT	ENDS
PUBLIC	??1?$_STLP_alloc_proxy@PAU?$_List_node@G@_STL@@U12@V?$allocator@U?$_List_node@G@_STL@@@2@@_STL@@QAE@XZ ; _STL::_STLP_alloc_proxy<_STL::_List_node<unsigned short> *,_STL::_List_node<unsigned short>,_STL::allocator<_STL::_List_node<unsigned short> > >::~_STLP_alloc_proxy<_STL::_List_node<unsigned short> *,_STL::_List_node<unsigned short>,_STL::allocator<_STL::_List_node<unsigned short> > >
;	COMDAT xdata$x
; File c:\stlport-4.6.1\stlport\stl\_alloc.h
xdata$x	SEGMENT
$T113401 DD	0ffffffffH
	DD	FLAT:$L113383
$T113399 DD	019930520H
	DD	01H
	DD	FLAT:$T113401
	DD	2 DUP(00H)
	DD	2 DUP(00H)
; Function compile flags: /Ogsy
; File c:\stlport-4.6.1\stlport\stl\_list.h
xdata$x	ENDS
;	COMDAT ??1?$_List_base@GV?$allocator@G@_STL@@@_STL@@QAE@XZ
_TEXT	SEGMENT
_this$ = -16						; size = 4
__$EHRec$ = -12						; size = 12
??1?$_List_base@GV?$allocator@G@_STL@@@_STL@@QAE@XZ PROC NEAR ; _STL::_List_base<unsigned short,_STL::allocator<unsigned short> >::~_List_base<unsigned short,_STL::allocator<unsigned short> >, COMDAT
; _this$ = ecx

; 188  :   ~_List_base() {

  00000	b8 00 00 00 00	 mov	 eax, __ehhandler$??1?$_List_base@GV?$allocator@G@_STL@@@_STL@@QAE@XZ
  00005	e8 00 00 00 00	 call	 __EH_prolog
  0000a	51		 push	 ecx
  0000b	56		 push	 esi
  0000c	8b f1		 mov	 esi, ecx
  0000e	89 75 f0	 mov	 DWORD PTR _this$[ebp], esi
  00011	83 65 fc 00	 and	 DWORD PTR __$EHRec$[ebp+8], 0

; 189  :     clear();

  00015	e8 00 00 00 00	 call	 ?clear@?$_List_base@GV?$allocator@G@_STL@@@_STL@@QAEXXZ ; _STL::_List_base<unsigned short,_STL::allocator<unsigned short> >::clear

; 190  :     _M_node.deallocate(_M_node._M_data, 1);

  0001a	8b 36		 mov	 esi, DWORD PTR [esi]
  0001c	85 f6		 test	 esi, esi
  0001e	74 0a		 je	 SHORT $L113386
  00020	6a 0c		 push	 12			; 0000000cH
  00022	56		 push	 esi
  00023	e8 00 00 00 00	 call	 ?deallocate@?$__node_alloc@$00$0A@@_STL@@SAXPAXI@Z ; _STL::__node_alloc<1,0>::deallocate
  00028	59		 pop	 ecx
  00029	59		 pop	 ecx
$L113386:

; 191  :   }

  0002a	8b 4d f4	 mov	 ecx, DWORD PTR __$EHRec$[ebp]
  0002d	5e		 pop	 esi
  0002e	64 89 0d 00 00
	00 00		 mov	 DWORD PTR fs:__except_list, ecx
  00035	c9		 leave
  00036	c3		 ret	 0
_TEXT	ENDS
;	COMDAT text$x
text$x	SEGMENT
$L113383:
  00000	8b 4d f0	 mov	 ecx, DWORD PTR _this$[ebp]
  00003	e9 00 00 00 00	 jmp	 ??1?$_STLP_alloc_proxy@PAU?$_List_node@G@_STL@@U12@V?$allocator@U?$_List_node@G@_STL@@@2@@_STL@@QAE@XZ
__ehhandler$??1?$_List_base@GV?$allocator@G@_STL@@@_STL@@QAE@XZ:
  00008	b8 00 00 00 00	 mov	 eax, OFFSET FLAT:$T113399
  0000d	e9 00 00 00 00	 jmp	 ___CxxFrameHandler
text$x	ENDS
??1?$_List_base@GV?$allocator@G@_STL@@@_STL@@QAE@XZ ENDP ; _STL::_List_base<unsigned short,_STL::allocator<unsigned short> >::~_List_base<unsigned short,_STL::allocator<unsigned short> >
; Function compile flags: /Ogsy
;	COMDAT ??1?$_STLP_alloc_proxy@PAU?$_List_node@G@_STL@@U12@V?$allocator@U?$_List_node@G@_STL@@@2@@_STL@@QAE@XZ
_TEXT	SEGMENT
??1?$_STLP_alloc_proxy@PAU?$_List_node@G@_STL@@U12@V?$allocator@U?$_List_node@G@_STL@@@2@@_STL@@QAE@XZ PROC NEAR ; _STL::_STLP_alloc_proxy<_STL::_List_node<unsigned short> *,_STL::_List_node<unsigned short>,_STL::allocator<_STL::_List_node<unsigned short> > >::~_STLP_alloc_proxy<_STL::_List_node<unsigned short> *,_STL::_List_node<unsigned short>,_STL::allocator<_STL::_List_node<unsigned short> > >, COMDAT
; _this$ = ecx
  00000	c3		 ret	 0
??1?$_STLP_alloc_proxy@PAU?$_List_node@G@_STL@@U12@V?$allocator@U?$_List_node@G@_STL@@@2@@_STL@@QAE@XZ ENDP ; _STL::_STLP_alloc_proxy<_STL::_List_node<unsigned short> *,_STL::_List_node<unsigned short>,_STL::allocator<_STL::_List_node<unsigned short> > >::~_STLP_alloc_proxy<_STL::_List_node<unsigned short> *,_STL::_List_node<unsigned short>,_STL::allocator<_STL::_List_node<unsigned short> > >
; Function compile flags: /Ogsy
; File c:\darkeden\designed_common\project\client\corderedlist.h
_TEXT	ENDS
;	COMDAT ?GetSize@?$COrderedList@G@@QBEHXZ
_TEXT	SEGMENT
?GetSize@?$COrderedList@G@@QBEHXZ PROC NEAR		; COrderedList<unsigned short>::GetSize, COMDAT
; _this$ = ecx

; 57   : 		int									GetSize() const		{ return m_List.size(); }

  00000	8b 11		 mov	 edx, DWORD PTR [ecx]
  00002	8b 0a		 mov	 ecx, DWORD PTR [edx]
  00004	33 c0		 xor	 eax, eax
  00006	eb 03		 jmp	 SHORT $L113523
$L113512:
  00008	8b 09		 mov	 ecx, DWORD PTR [ecx]
  0000a	40		 inc	 eax
$L113523:
  0000b	3b ca		 cmp	 ecx, edx
  0000d	75 f9		 jne	 SHORT $L113512
  0000f	c3		 ret	 0
?GetSize@?$COrderedList@G@@QBEHXZ ENDP			; COrderedList<unsigned short>::GetSize
; Function compile flags: /Ogsy
; File c:\stlport-4.6.1\stlport\stl\_list.h
_TEXT	ENDS
;	COMDAT ??1?$list@GV?$allocator@G@_STL@@@_STL@@QAE@XZ
_TEXT	SEGMENT
??1?$list@GV?$allocator@G@_STL@@@_STL@@QAE@XZ PROC NEAR	; _STL::list<unsigned short,_STL::allocator<unsigned short> >::~list<unsigned short,_STL::allocator<unsigned short> >, COMDAT
; _this$ = ecx

; 416  :   ~list() { }

  00000	e9 00 00 00 00	 jmp	 ??1?$_List_base@GV?$allocator@G@_STL@@@_STL@@QAE@XZ ; _STL::_List_base<unsigned short,_STL::allocator<unsigned short> >::~_List_base<unsigned short,_STL::allocator<unsigned short> >
??1?$list@GV?$allocator@G@_STL@@@_STL@@QAE@XZ ENDP	; _STL::list<unsigned short,_STL::allocator<unsigned short> >::~list<unsigned short,_STL::allocator<unsigned short> >
_TEXT	ENDS
;	COMDAT xdata$x
xdata$x	SEGMENT
$T113542 DD	0ffffffffH
	DD	FLAT:$L113531
$T113540 DD	019930520H
	DD	01H
	DD	FLAT:$T113542
	DD	2 DUP(00H)
	DD	2 DUP(00H)
; Function compile flags: /Ogsy
; File c:\darkeden\designed_common\project\client\corderedlist.h
xdata$x	ENDS
;	COMDAT ??1?$COrderedList@G@@QAE@XZ
_TEXT	SEGMENT
_this$ = -16						; size = 4
__$EHRec$ = -12						; size = 12
??1?$COrderedList@G@@QAE@XZ PROC NEAR			; COrderedList<unsigned short>::~COrderedList<unsigned short>, COMDAT
; _this$ = ecx

; 88   : {

  00000	b8 00 00 00 00	 mov	 eax, __ehhandler$??1?$COrderedList@G@@QAE@XZ
  00005	e8 00 00 00 00	 call	 __EH_prolog
  0000a	51		 push	 ecx
  0000b	89 4d f0	 mov	 DWORD PTR _this$[ebp], ecx
  0000e	83 65 fc 00	 and	 DWORD PTR __$EHRec$[ebp+8], 0

; 89   : 	Release();

  00012	e8 00 00 00 00	 call	 ?clear@?$_List_base@GV?$allocator@G@_STL@@@_STL@@QAEXXZ ; _STL::_List_base<unsigned short,_STL::allocator<unsigned short> >::clear

; 90   : }

  00017	8b 4d f0	 mov	 ecx, DWORD PTR _this$[ebp]
  0001a	83 4d fc ff	 or	 DWORD PTR __$EHRec$[ebp+8], -1
  0001e	e8 00 00 00 00	 call	 ??1?$_List_base@GV?$allocator@G@_STL@@@_STL@@QAE@XZ ; _STL::_List_base<unsigned short,_STL::allocator<unsigned short> >::~_List_base<unsigned short,_STL::allocator<unsigned short> >
  00023	8b 4d f4	 mov	 ecx, DWORD PTR __$EHRec$[ebp]
  00026	64 89 0d 00 00
	00 00		 mov	 DWORD PTR fs:__except_list, ecx
  0002d	c9		 leave
  0002e	c3		 ret	 0
_TEXT	ENDS
;	COMDAT text$x
text$x	SEGMENT
$L113531:
  00000	8b 4d f0	 mov	 ecx, DWORD PTR _this$[ebp]
  00003	e9 00 00 00 00	 jmp	 ??1?$list@GV?$allocator@G@_STL@@@_STL@@QAE@XZ ; _STL::list<unsigned short,_STL::allocator<unsigned short> >::~list<unsigned short,_STL::allocator<unsigned short> >
__ehhandler$??1?$COrderedList@G@@QAE@XZ:
  00008	b8 00 00 00 00	 mov	 eax, OFFSET FLAT:$T113540
  0000d	e9 00 00 00 00	 jmp	 ___CxxFrameHandler
text$x	ENDS
??1?$COrderedList@G@@QAE@XZ ENDP			; COrderedList<unsigned short>::~COrderedList<unsigned short>
; Function compile flags: /Ogsy
;	COMDAT ??_G?$CTypePack2@VCSprite@@VCSprite555@@VCSprite565@@@@UAEPAXI@Z
_TEXT	SEGMENT
___flags$ = 8						; size = 4
??_G?$CTypePack2@VCSprite@@VCSprite555@@VCSprite565@@@@UAEPAXI@Z PROC NEAR ; CTypePack2<CSprite,CSprite555,CSprite565>::`scalar deleting destructor', COMDAT
; _this$ = ecx
  00000	56		 push	 esi
  00001	8b f1		 mov	 esi, ecx
  00003	e8 00 00 00 00	 call	 ??1?$CTypePack2@VCSprite@@VCSprite555@@VCSprite565@@@@UAE@XZ ; CTypePack2<CSprite,CSprite555,CSprite565>::~CTypePack2<CSprite,CSprite555,CSprite565>
  00008	f6 44 24 08 01	 test	 BYTE PTR ___flags$[esp], 1
  0000d	74 07		 je	 SHORT $L108657
  0000f	56		 push	 esi
  00010	e8 00 00 00 00	 call	 ??3@YAXPAX@Z		; operator delete
  00015	59		 pop	 ecx
$L108657:
  00016	8b c6		 mov	 eax, esi
  00018	5e		 pop	 esi
  00019	c2 04 00	 ret	 4
??_G?$CTypePack2@VCSprite@@VCSprite555@@VCSprite565@@@@UAEPAXI@Z ENDP ; CTypePack2<CSprite,CSprite555,CSprite565>::`scalar deleting destructor'
_TEXT	ENDS
PUBLIC	??0MGuildMarkManager@@QAE@PBD0000000@Z		; MGuildMarkManager::MGuildMarkManager
;	COMDAT xdata$x
; File c:\darkeden\designed_common\project\client\mguildmarkmanager.cpp
xdata$x	SEGMENT
$T113559 DD	0ffffffffH
	DD	FLAT:$L113550
	DD	00H
	DD	FLAT:$L113551
	DD	01H
	DD	FLAT:$L113552
	DD	02H
	DD	FLAT:$L113553
	DD	03H
	DD	FLAT:$L113554
	DD	04H
	DD	FLAT:$L113555
$T113557 DD	019930520H
	DD	06H
	DD	FLAT:$T113559
	DD	2 DUP(00H)
	DD	2 DUP(00H)
; Function compile flags: /Ogsy
xdata$x	ENDS
;	COMDAT ??0MGuildMarkManager@@QAE@PBD0000000@Z
_TEXT	SEGMENT
_this$ = -16						; size = 4
__$EHRec$ = -12						; size = 12
_pGuildMarkSPKFilename$ = 8				; size = 4
_pGuildInfoMapperFilename$ = 12				; size = 4
_pSlayerGradeMarkSPKFilename$ = 16			; size = 4
_pVampireGradeMarkSPKFilename$ = 20			; size = 4
_pOustersGradeMarkSPKFilename$ = 24			; size = 4
_pLevelMarkSPKFilename$ = 28				; size = 4
_pMonsterLevelMarkSPKFilename$ = 32			; size = 4
_pOriginMarkSPKFilename$ = 36				; size = 4
??0MGuildMarkManager@@QAE@PBD0000000@Z PROC NEAR	; MGuildMarkManager::MGuildMarkManager, COMDAT
; _this$ = ecx

; 41   : {

  00000	b8 00 00 00 00	 mov	 eax, __ehhandler$??0MGuildMarkManager@@QAE@PBD0000000@Z
  00005	e8 00 00 00 00	 call	 __EH_prolog
  0000a	51		 push	 ecx
  0000b	53		 push	 ebx
  0000c	56		 push	 esi
  0000d	8b f1		 mov	 esi, ecx
  0000f	57		 push	 edi
  00010	89 75 f0	 mov	 DWORD PTR _this$[ebp], esi
  00013	e8 00 00 00 00	 call	 ??0?$map@GUGUILD_SPRITES@MGuildMarkManager@@U?$less@G@_STL@@V?$allocator@U?$pair@$$CBGUGUILD_SPRITES@MGuildMarkManager@@@_STL@@@4@@_STL@@QAE@XZ ; _STL::map<unsigned short,MGuildMarkManager::GUILD_SPRITES,_STL::less<unsigned short>,_STL::allocator<_STL::pair<unsigned short const ,MGuildMarkManager::GUILD_SPRITES> > >::map<unsigned short,MGuildMarkManager::GUILD_SPRITES,_STL::less<unsigned short>,_STL::allocator<_STL::pair<unsigned short const ,MGuildMarkManager::GUILD_SPRITES> > >
  00018	83 65 fc 00	 and	 DWORD PTR __$EHRec$[ebp+8], 0
  0001c	8d 7e 0c	 lea	 edi, DWORD PTR [esi+12]
  0001f	8b cf		 mov	 ecx, edi
  00021	e8 00 00 00 00	 call	 ??0?$CTypePack2@VCSprite@@VCSprite555@@VCSprite565@@@@QAE@XZ ; CTypePack2<CSprite,CSprite555,CSprite565>::CTypePack2<CSprite,CSprite555,CSprite565>
  00026	68 00 00 00 00	 push	 OFFSET FLAT:??1?$CTypePack2@VCSprite@@VCSprite555@@VCSprite565@@@@UAE@XZ ; CTypePack2<CSprite,CSprite555,CSprite565>::~CTypePack2<CSprite,CSprite555,CSprite565>
  0002b	68 00 00 00 00	 push	 OFFSET FLAT:??0?$CTypePack2@VCSprite@@VCSprite555@@VCSprite565@@@@QAE@XZ ; CTypePack2<CSprite,CSprite555,CSprite565>::CTypePack2<CSprite,CSprite555,CSprite565>
  00030	6a 03		 push	 3
  00032	6a 48		 push	 72			; 00000048H
  00034	8d 5e 54	 lea	 ebx, DWORD PTR [esi+84]
  00037	53		 push	 ebx
  00038	c6 45 fc 01	 mov	 BYTE PTR __$EHRec$[ebp+8], 1
  0003c	e8 00 00 00 00	 call	 ??_L@YGXPAXIHP6EX0@Z1@Z
  00041	8d 8e 2c 01 00
	00		 lea	 ecx, DWORD PTR [esi+300]
  00047	c6 45 fc 02	 mov	 BYTE PTR __$EHRec$[ebp+8], 2
  0004b	e8 00 00 00 00	 call	 ??0?$CTypePack2@VCSprite@@VCSprite555@@VCSprite565@@@@QAE@XZ ; CTypePack2<CSprite,CSprite555,CSprite565>::CTypePack2<CSprite,CSprite555,CSprite565>
  00050	8d 8e 74 01 00
	00		 lea	 ecx, DWORD PTR [esi+372]
  00056	c6 45 fc 03	 mov	 BYTE PTR __$EHRec$[ebp+8], 3
  0005a	e8 00 00 00 00	 call	 ??0?$CTypePack2@VCSprite@@VCSprite555@@VCSprite565@@@@QAE@XZ ; CTypePack2<CSprite,CSprite555,CSprite565>::CTypePack2<CSprite,CSprite555,CSprite565>
  0005f	8d 8e bc 01 00
	00		 lea	 ecx, DWORD PTR [esi+444]
  00065	c6 45 fc 04	 mov	 BYTE PTR __$EHRec$[ebp+8], 4
  00069	e8 00 00 00 00	 call	 ??0?$CTypePack2@VCSprite@@VCSprite555@@VCSprite565@@@@QAE@XZ ; CTypePack2<CSprite,CSprite555,CSprite565>::CTypePack2<CSprite,CSprite555,CSprite565>

; 42   : //	m_GuildMarkSPKFilename = pGuildMarkSPKFilename;
; 43   : 
; 44   : //	m_SlayerGradeMarkSPKFilename = pSlayerGradeMarkSPKFilename;
; 45   : //	m_VampireGradeMarkSPKFilename = pVampireGradeMarkSPKFilename;
; 46   : 
; 47   : 	// SpriteIDMapper  .
; 48   : //	if (pGuildInfoMapperFilename!=NULL)
; 49   : //	{
; 50   : //		m_GuildMarkSpriteMapperFilename = pGuildInfoMapperFilename;		
; 51   : //	}
; 52   : 
; 53   : 	m_GuildMarks.LoadFromFileRunning(pGuildMarkSPKFilename);

  0006e	ff 75 08	 push	 DWORD PTR _pGuildMarkSPKFilename$[ebp]
  00071	8b 07		 mov	 eax, DWORD PTR [edi]
  00073	8b cf		 mov	 ecx, edi
  00075	c6 45 fc 05	 mov	 BYTE PTR __$EHRec$[ebp+8], 5
  00079	ff 50 18	 call	 DWORD PTR [eax+24]

; 54   : 
; 55   : //	m_GradeMarks.Init(GRADE_MARK_MAX<<2, CDirectDraw::Is565());
; 56   : 	m_GradeMarks[RACE_SLAYER].LoadFromFileRunning(pSlayerGradeMarkSPKFilename);

  0007c	ff 75 10	 push	 DWORD PTR _pSlayerGradeMarkSPKFilename$[ebp]
  0007f	8b 03		 mov	 eax, DWORD PTR [ebx]
  00081	8b cb		 mov	 ecx, ebx
  00083	ff 50 18	 call	 DWORD PTR [eax+24]

; 57   : 	m_GradeMarks[RACE_VAMPIRE].LoadFromFileRunning(pVampireGradeMarkSPKFilename);

  00086	ff 75 14	 push	 DWORD PTR _pVampireGradeMarkSPKFilename$[ebp]
  00089	8d 8e 9c 00 00
	00		 lea	 ecx, DWORD PTR [esi+156]
  0008f	8b 01		 mov	 eax, DWORD PTR [ecx]
  00091	ff 50 18	 call	 DWORD PTR [eax+24]

; 58   : 	m_GradeMarks[RACE_OUSTERS].LoadFromFileRunning(pOustersGradeMarkSPKFilename);

  00094	ff 75 18	 push	 DWORD PTR _pOustersGradeMarkSPKFilename$[ebp]
  00097	8d 8e e4 00 00
	00		 lea	 ecx, DWORD PTR [esi+228]
  0009d	8b 01		 mov	 eax, DWORD PTR [ecx]
  0009f	ff 50 18	 call	 DWORD PTR [eax+24]

; 59   : 	m_OriginMarks.LoadFromFileRunning(pOriginMarkSPKFilename);

  000a2	ff 75 24	 push	 DWORD PTR _pOriginMarkSPKFilename$[ebp]
  000a5	8d 8e bc 01 00
	00		 lea	 ecx, DWORD PTR [esi+444]
  000ab	8b 01		 mov	 eax, DWORD PTR [ecx]
  000ad	ff 50 18	 call	 DWORD PTR [eax+24]

; 60   : 	m_LevelMarks.LoadFromFileRunning(pLevelMarkSPKFilename);

  000b0	ff 75 1c	 push	 DWORD PTR _pLevelMarkSPKFilename$[ebp]
  000b3	8d 8e 2c 01 00
	00		 lea	 ecx, DWORD PTR [esi+300]
  000b9	8b 01		 mov	 eax, DWORD PTR [ecx]
  000bb	ff 50 18	 call	 DWORD PTR [eax+24]

; 61   : 	m_MonsterLevelRed.LoadFromFileRunning(pMonsterLevelMarkSPKFilename);

  000be	ff 75 20	 push	 DWORD PTR _pMonsterLevelMarkSPKFilename$[ebp]
  000c1	8d 8e 74 01 00
	00		 lea	 ecx, DWORD PTR [esi+372]
  000c7	8b 01		 mov	 eax, DWORD PTR [ecx]
  000c9	ff 50 18	 call	 DWORD PTR [eax+24]

; 62   : }

  000cc	8b 4d f4	 mov	 ecx, DWORD PTR __$EHRec$[ebp]
  000cf	5f		 pop	 edi
  000d0	8b c6		 mov	 eax, esi
  000d2	5e		 pop	 esi
  000d3	5b		 pop	 ebx
  000d4	64 89 0d 00 00
	00 00		 mov	 DWORD PTR fs:__except_list, ecx
  000db	c9		 leave
  000dc	c2 20 00	 ret	 32			; 00000020H
_TEXT	ENDS
;	COMDAT text$x
text$x	SEGMENT
$L113550:
  00000	8b 4d f0	 mov	 ecx, DWORD PTR _this$[ebp]
  00003	e9 00 00 00 00	 jmp	 ??1?$map@GUGUILD_SPRITES@MGuildMarkManager@@U?$less@G@_STL@@V?$allocator@U?$pair@$$CBGUGUILD_SPRITES@MGuildMarkManager@@@_STL@@@4@@_STL@@QAE@XZ
$L113551:
  00008	8b 4d f0	 mov	 ecx, DWORD PTR _this$[ebp]
  0000b	83 c1 0c	 add	 ecx, 12			; 0000000cH
  0000e	e9 00 00 00 00	 jmp	 ??1?$CTypePack2@VCSprite@@VCSprite555@@VCSprite565@@@@UAE@XZ ; CTypePack2<CSprite,CSprite555,CSprite565>::~CTypePack2<CSprite,CSprite555,CSprite565>
$L113552:
  00013	68 00 00 00 00	 push	 OFFSET FLAT:??1?$CTypePack2@VCSprite@@VCSprite555@@VCSprite565@@@@UAE@XZ ; CTypePack2<CSprite,CSprite555,CSprite565>::~CTypePack2<CSprite,CSprite555,CSprite565>
  00018	6a 03		 push	 3
  0001a	6a 48		 push	 72			; 00000048H
  0001c	8b 45 f0	 mov	 eax, DWORD PTR _this$[ebp]
  0001f	83 c0 54	 add	 eax, 84			; 00000054H
  00022	50		 push	 eax
  00023	e8 00 00 00 00	 call	 ??_M@YGXPAXIHP6EX0@Z@Z
  00028	c3		 ret	 0
$L113553:
  00029	8b 4d f0	 mov	 ecx, DWORD PTR _this$[ebp]
  0002c	81 c1 2c 01 00
	00		 add	 ecx, 300		; 0000012cH
  00032	e9 00 00 00 00	 jmp	 ??1?$CTypePack2@VCSprite@@VCSprite555@@VCSprite565@@@@UAE@XZ ; CTypePack2<CSprite,CSprite555,CSprite565>::~CTypePack2<CSprite,CSprite555,CSprite565>
$L113554:
  00037	8b 4d f0	 mov	 ecx, DWORD PTR _this$[ebp]
  0003a	81 c1 74 01 00
	00		 add	 ecx, 372		; 00000174H
  00040	e9 00 00 00 00	 jmp	 ??1?$CTypePack2@VCSprite@@VCSprite555@@VCSprite565@@@@UAE@XZ ; CTypePack2<CSprite,CSprite555,CSprite565>::~CTypePack2<CSprite,CSprite555,CSprite565>
$L113555:
  00045	8b 4d f0	 mov	 ecx, DWORD PTR _this$[ebp]
  00048	81 c1 bc 01 00
	00		 add	 ecx, 444		; 000001bcH
  0004e	e9 00 00 00 00	 jmp	 ??1?$CTypePack2@VCSprite@@VCSprite555@@VCSprite565@@@@UAE@XZ ; CTypePack2<CSprite,CSprite555,CSprite565>::~CTypePack2<CSprite,CSprite555,CSprite565>
__ehhandler$??0MGuildMarkManager@@QAE@PBD0000000@Z:
  00053	b8 00 00 00 00	 mov	 eax, OFFSET FLAT:$T113557
  00058	e9 00 00 00 00	 jmp	 ___CxxFrameHandler
text$x	ENDS
??0MGuildMarkManager@@QAE@PBD0000000@Z ENDP		; MGuildMarkManager::MGuildMarkManager
PUBLIC	??1MGuildMarkManager@@QAE@XZ			; MGuildMarkManager::~MGuildMarkManager
;	COMDAT xdata$x
xdata$x	SEGMENT
$T113585 DD	0ffffffffH
	DD	FLAT:$L113564
	DD	00H
	DD	FLAT:$L113565
	DD	01H
	DD	FLAT:$L113566
	DD	02H
	DD	FLAT:$L113567
	DD	03H
	DD	FLAT:$L113568
	DD	04H
	DD	FLAT:$L113569
$T113583 DD	019930520H
	DD	06H
	DD	FLAT:$T113585
	DD	2 DUP(00H)
	DD	2 DUP(00H)
; Function compile flags: /Ogsy
xdata$x	ENDS
;	COMDAT ??1MGuildMarkManager@@QAE@XZ
_TEXT	SEGMENT
_this$ = -16						; size = 4
__$EHRec$ = -12						; size = 12
??1MGuildMarkManager@@QAE@XZ PROC NEAR			; MGuildMarkManager::~MGuildMarkManager, COMDAT
; _this$ = ecx

; 65   : {

  00000	b8 00 00 00 00	 mov	 eax, __ehhandler$??1MGuildMarkManager@@QAE@XZ
  00005	e8 00 00 00 00	 call	 __EH_prolog
  0000a	51		 push	 ecx
  0000b	56		 push	 esi
  0000c	8b f1		 mov	 esi, ecx
  0000e	89 75 f0	 mov	 DWORD PTR _this$[ebp], esi
  00011	c7 45 fc 05 00
	00 00		 mov	 DWORD PTR __$EHRec$[ebp+8], 5

; 66   : 	Release();

  00018	e8 00 00 00 00	 call	 ?clear@?$_Rb_tree@GU?$pair@$$CBGUGUILD_SPRITES@MGuildMarkManager@@@_STL@@U?$_Select1st@U?$pair@$$CBGUGUILD_SPRITES@MGuildMarkManager@@@_STL@@@2@U?$less@G@2@V?$allocator@U?$pair@$$CBGUGUILD_SPRITES@MGuildMarkManager@@@_STL@@@2@@_STL@@QAEXXZ ; _STL::_Rb_tree<unsigned short,_STL::pair<unsigned short const ,MGuildMarkManager::GUILD_SPRITES>,_STL::_Select1st<_STL::pair<unsigned short const ,MGuildMarkManager::GUILD_SPRITES> >,_STL::less<unsigned short>,_STL::allocator<_STL::pair<unsigned short const ,MGuildMarkManager::GUILD_SPRITES> > >::clear

; 67   : }

  0001d	8d 8e bc 01 00
	00		 lea	 ecx, DWORD PTR [esi+444]
  00023	c6 45 fc 04	 mov	 BYTE PTR __$EHRec$[ebp+8], 4
  00027	e8 00 00 00 00	 call	 ??1?$CTypePack2@VCSprite@@VCSprite555@@VCSprite565@@@@UAE@XZ ; CTypePack2<CSprite,CSprite555,CSprite565>::~CTypePack2<CSprite,CSprite555,CSprite565>
  0002c	8d 8e 74 01 00
	00		 lea	 ecx, DWORD PTR [esi+372]
  00032	c6 45 fc 03	 mov	 BYTE PTR __$EHRec$[ebp+8], 3
  00036	e8 00 00 00 00	 call	 ??1?$CTypePack2@VCSprite@@VCSprite555@@VCSprite565@@@@UAE@XZ ; CTypePack2<CSprite,CSprite555,CSprite565>::~CTypePack2<CSprite,CSprite555,CSprite565>
  0003b	8d 8e 2c 01 00
	00		 lea	 ecx, DWORD PTR [esi+300]
  00041	c6 45 fc 02	 mov	 BYTE PTR __$EHRec$[ebp+8], 2
  00045	e8 00 00 00 00	 call	 ??1?$CTypePack2@VCSprite@@VCSprite555@@VCSprite565@@@@UAE@XZ ; CTypePack2<CSprite,CSprite555,CSprite565>::~CTypePack2<CSprite,CSprite555,CSprite565>
  0004a	68 00 00 00 00	 push	 OFFSET FLAT:??1?$CTypePack2@VCSprite@@VCSprite555@@VCSprite565@@@@UAE@XZ ; CTypePack2<CSprite,CSprite555,CSprite565>::~CTypePack2<CSprite,CSprite555,CSprite565>
  0004f	6a 03		 push	 3
  00051	6a 48		 push	 72			; 00000048H
  00053	8d 46 54	 lea	 eax, DWORD PTR [esi+84]
  00056	50		 push	 eax
  00057	c6 45 fc 01	 mov	 BYTE PTR __$EHRec$[ebp+8], 1
  0005b	e8 00 00 00 00	 call	 ??_M@YGXPAXIHP6EX0@Z@Z
  00060	8d 4e 0c	 lea	 ecx, DWORD PTR [esi+12]
  00063	c6 45 fc 00	 mov	 BYTE PTR __$EHRec$[ebp+8], 0
  00067	e8 00 00 00 00	 call	 ??1?$CTypePack2@VCSprite@@VCSprite555@@VCSprite565@@@@UAE@XZ ; CTypePack2<CSprite,CSprite555,CSprite565>::~CTypePack2<CSprite,CSprite555,CSprite565>
  0006c	83 4d fc ff	 or	 DWORD PTR __$EHRec$[ebp+8], -1
  00070	8b ce		 mov	 ecx, esi
  00072	e8 00 00 00 00	 call	 ??1?$_Rb_tree@GU?$pair@$$CBGUGUILD_SPRITES@MGuildMarkManager@@@_STL@@U?$_Select1st@U?$pair@$$CBGUGUILD_SPRITES@MGuildMarkManager@@@_STL@@@2@U?$less@G@2@V?$allocator@U?$pair@$$CBGUGUILD_SPRITES@MGuildMarkManager@@@_STL@@@2@@_STL@@QAE@XZ ; _STL::_Rb_tree<unsigned short,_STL::pair<unsigned short const ,MGuildMarkManager::GUILD_SPRITES>,_STL::_Select1st<_STL::pair<unsigned short const ,MGuildMarkManager::GUILD_SPRITES> >,_STL::less<unsigned short>,_STL::allocator<_STL::pair<unsigned short const ,MGuildMarkManager::GUILD_SPRITES> > >::~_Rb_tree<unsigned short,_STL::pair<unsigned short const ,MGuildMarkManager::GUILD_SPRITES>,_STL::_Select1st<_STL::pair<unsigned short const ,MGuildMarkManager::GUILD_SPRITES> >,_STL::less<unsigned short>,_STL::allocator<_STL::pair<unsigned short const ,MGuildMarkManager::GUILD_SPRITES> > >
  00077	8b 4d f4	 mov	 ecx, DWORD PTR __$EHRec$[ebp]
  0007a	5e		 pop	 esi
  0007b	64 89 0d 00 00
	00 00		 mov	 DWORD PTR fs:__except_list, ecx
  00082	c9		 leave
  00083	c3		 ret	 0
_TEXT	ENDS
;	COMDAT text$x
text$x	SEGMENT
$L113564:
  00000	8b 4d f0	 mov	 ecx, DWORD PTR _this$[ebp]
  00003	e9 00 00 00 00	 jmp	 ??1?$map@GUGUILD_SPRITES@MGuildMarkManager@@U?$less@G@_STL@@V?$allocator@U?$pair@$$CBGUGUILD_SPRITES@MGuildMarkManager@@@_STL@@@4@@_STL@@QAE@XZ
$L113565:
  00008	8b 4d f0	 mov	 ecx, DWORD PTR _this$[ebp]
  0000b	83 c1 0c	 add	 ecx, 12			; 0000000cH
  0000e	e9 00 00 00 00	 jmp	 ??1?$CTypePack2@VCSprite@@VCSprite555@@VCSprite565@@@@UAE@XZ ; CTypePack2<CSprite,CSprite555,CSprite565>::~CTypePack2<CSprite,CSprite555,CSprite565>
$L113566:
  00013	68 00 00 00 00	 push	 OFFSET FLAT:??1?$CTypePack2@VCSprite@@VCSprite555@@VCSprite565@@@@UAE@XZ ; CTypePack2<CSprite,CSprite555,CSprite565>::~CTypePack2<CSprite,CSprite555,CSprite565>
  00018	6a 03		 push	 3
  0001a	6a 48		 push	 72			; 00000048H
  0001c	8b 45 f0	 mov	 eax, DWORD PTR _this$[ebp]
  0001f	83 c0 54	 add	 eax, 84			; 00000054H
  00022	50		 push	 eax
  00023	e8 00 00 00 00	 call	 ??_M@YGXPAXIHP6EX0@Z@Z
  00028	c3		 ret	 0
$L113567:
  00029	8b 4d f0	 mov	 ecx, DWORD PTR _this$[ebp]
  0002c	81 c1 2c 01 00
	00		 add	 ecx, 300		; 0000012cH
  00032	e9 00 00 00 00	 jmp	 ??1?$CTypePack2@VCSprite@@VCSprite555@@VCSprite565@@@@UAE@XZ ; CTypePack2<CSprite,CSprite555,CSprite565>::~CTypePack2<CSprite,CSprite555,CSprite565>
$L113568:
  00037	8b 4d f0	 mov	 ecx, DWORD PTR _this$[ebp]
  0003a	81 c1 74 01 00
	00		 add	 ecx, 372		; 00000174H
  00040	e9 00 00 00 00	 jmp	 ??1?$CTypePack2@VCSprite@@VCSprite555@@VCSprite565@@@@UAE@XZ ; CTypePack2<CSprite,CSprite555,CSprite565>::~CTypePack2<CSprite,CSprite555,CSprite565>
$L113569:
  00045	8b 4d f0	 mov	 ecx, DWORD PTR _this$[ebp]
  00048	81 c1 bc 01 00
	00		 add	 ecx, 444		; 000001bcH
  0004e	e9 00 00 00 00	 jmp	 ??1?$CTypePack2@VCSprite@@VCSprite555@@VCSprite565@@@@UAE@XZ ; CTypePack2<CSprite,CSprite555,CSprite565>::~CTypePack2<CSprite,CSprite555,CSprite565>
__ehhandler$??1MGuildMarkManager@@QAE@XZ:
  00053	b8 00 00 00 00	 mov	 eax, OFFSET FLAT:$T113583
  00058	e9 00 00 00 00	 jmp	 ___CxxFrameHandler
text$x	ENDS
??1MGuildMarkManager@@QAE@XZ ENDP			; MGuildMarkManager::~MGuildMarkManager
PUBLIC	??A?$map@GUGUILD_SPRITES@MGuildMarkManager@@U?$less@G@_STL@@V?$allocator@U?$pair@$$CBGUGUILD_SPRITES@MGuildMarkManager@@@_STL@@@4@@_STL@@QAEAAUGUILD_SPRITES@MGuildMarkManager@@ABG@Z ; _STL::map<unsigned short,MGuildMarkManager::GUILD_SPRITES,_STL::less<unsigned short>,_STL::allocator<_STL::pair<unsigned short const ,MGuildMarkManager::GUILD_SPRITES> > >::operator[]
; Function compile flags: /Ogsy
; File c:\stlport-4.6.1\stlport\stl\_map.h
;	COMDAT ??A?$map@GUGUILD_SPRITES@MGuildMarkManager@@U?$less@G@_STL@@V?$allocator@U?$pair@$$CBGUGUILD_SPRITES@MGuildMarkManager@@@_STL@@@4@@_STL@@QAEAAUGUILD_SPRITES@MGuildMarkManager@@ABG@Z
_TEXT	SEGMENT
$T113592 = -12						; size = 12
$T113595 = 8						; size = 4
___k$ = 8						; size = 4
??A?$map@GUGUILD_SPRITES@MGuildMarkManager@@U?$less@G@_STL@@V?$allocator@U?$pair@$$CBGUGUILD_SPRITES@MGuildMarkManager@@@_STL@@@4@@_STL@@QAEAAUGUILD_SPRITES@MGuildMarkManager@@ABG@Z PROC NEAR ; _STL::map<unsigned short,MGuildMarkManager::GUILD_SPRITES,_STL::less<unsigned short>,_STL::allocator<_STL::pair<unsigned short const ,MGuildMarkManager::GUILD_SPRITES> > >::operator[], COMDAT
; _this$ = ecx

; 158  :   _Tp& operator[](const key_type& __k) {

  00000	55		 push	 ebp
  00001	8b ec		 mov	 ebp, esp
  00003	83 ec 0c	 sub	 esp, 12			; 0000000cH
  00006	56		 push	 esi

; 159  :     iterator __i = lower_bound(__k);

  00007	8b 75 08	 mov	 esi, DWORD PTR ___k$[ebp]
  0000a	57		 push	 edi
  0000b	56		 push	 esi
  0000c	8b f9		 mov	 edi, ecx
  0000e	e8 00 00 00 00	 call	 ?_M_lower_bound@?$_Rb_tree@GU?$pair@$$CBGUGUILD_SPRITES@MGuildMarkManager@@@_STL@@U?$_Select1st@U?$pair@$$CBGUGUILD_SPRITES@MGuildMarkManager@@@_STL@@@2@U?$less@G@2@V?$allocator@U?$pair@$$CBGUGUILD_SPRITES@MGuildMarkManager@@@_STL@@@2@@_STL@@ABEPAU?$_Rb_tree_node@U?$pair@$$CBGUGUILD_SPRITES@MGuildMarkManager@@@_STL@@@2@ABG@Z ; _STL::_Rb_tree<unsigned short,_STL::pair<unsigned short const ,MGuildMarkManager::GUILD_SPRITES>,_STL::_Select1st<_STL::pair<unsigned short const ,MGuildMarkManager::GUILD_SPRITES> >,_STL::less<unsigned short>,_STL::allocator<_STL::pair<unsigned short const ,MGuildMarkManager::GUILD_SPRITES> > >::_M_lower_bound

; 160  :     // __i->first is greater than or equivalent to __k.
; 161  :     if (__i == end() || key_comp()(__k, (*__i).first))

  00013	3b 07		 cmp	 eax, DWORD PTR [edi]
  00015	74 09		 je	 SHORT $L106842
  00017	66 8b 0e	 mov	 cx, WORD PTR [esi]
  0001a	66 3b 48 10	 cmp	 cx, WORD PTR [eax+16]
  0001e	73 27		 jae	 SHORT $L106841
$L106842:

; 162  :       __i = insert(__i, value_type(__k, _STLP_DEFAULT_CONSTRUCTED(_Tp)));

  00020	66 8b 36	 mov	 si, WORD PTR [esi]
  00023	33 c9		 xor	 ecx, ecx
  00025	89 4d f8	 mov	 DWORD PTR $T113592[ebp+4], ecx
  00028	8d 4d f4	 lea	 ecx, DWORD PTR $T113592[ebp]
  0002b	51		 push	 ecx
  0002c	51		 push	 ecx
  0002d	8b cc		 mov	 ecx, esp
  0002f	89 01		 mov	 DWORD PTR [ecx], eax
  00031	8d 45 08	 lea	 eax, DWORD PTR $T113595[ebp]
  00034	33 d2		 xor	 edx, edx
  00036	50		 push	 eax
  00037	8b cf		 mov	 ecx, edi
  00039	66 89 75 f4	 mov	 WORD PTR $T113592[ebp], si
  0003d	89 55 fc	 mov	 DWORD PTR $T113592[ebp+8], edx
  00040	e8 00 00 00 00	 call	 ?insert@?$map@GUGUILD_SPRITES@MGuildMarkManager@@U?$less@G@_STL@@V?$allocator@U?$pair@$$CBGUGUILD_SPRITES@MGuildMarkManager@@@_STL@@@4@@_STL@@QAE?AU?$_Rb_tree_iterator@U?$pair@$$CBGUGUILD_SPRITES@MGuildMarkManager@@@_STL@@U?$_Nonconst_traits@U?$pair@$$CBGUGUILD_SPRITES@MGuildMarkManager@@@_STL@@@2@@2@U32@ABU?$pair@$$CBGUGUILD_SPRITES@MGuildMarkManager@@@2@@Z ; _STL::map<unsigned short,MGuildMarkManager::GUILD_SPRITES,_STL::less<unsigned short>,_STL::allocator<_STL::pair<unsigned short const ,MGuildMarkManager::GUILD_SPRITES> > >::insert
  00045	8b 00		 mov	 eax, DWORD PTR [eax]
$L106841:

; 163  :     return (*__i).second;
; 164  :   }

  00047	5f		 pop	 edi
  00048	83 c0 14	 add	 eax, 20			; 00000014H
  0004b	5e		 pop	 esi
  0004c	c9		 leave
  0004d	c2 04 00	 ret	 4
??A?$map@GUGUILD_SPRITES@MGuildMarkManager@@U?$less@G@_STL@@V?$allocator@U?$pair@$$CBGUGUILD_SPRITES@MGuildMarkManager@@@_STL@@@4@@_STL@@QAEAAUGUILD_SPRITES@MGuildMarkManager@@ABG@Z ENDP ; _STL::map<unsigned short,MGuildMarkManager::GUILD_SPRITES,_STL::less<unsigned short>,_STL::allocator<_STL::pair<unsigned short const ,MGuildMarkManager::GUILD_SPRITES> > >::operator[]
_TEXT	ENDS
PUBLIC	??1?$allocator@K@_STL@@QAE@XZ			; _STL::allocator<unsigned long>::~allocator<unsigned long>
PUBLIC	??0?$_STLP_alloc_proxy@PAKKV?$allocator@K@_STL@@@_STL@@QAE@ABV?$allocator@K@1@PAK@Z ; _STL::_STLP_alloc_proxy<unsigned long *,unsigned long,_STL::allocator<unsigned long> >::_STLP_alloc_proxy<unsigned long *,unsigned long,_STL::allocator<unsigned long> >
PUBLIC	??1?$vector@KV?$allocator@K@_STL@@@_STL@@QAE@XZ	; _STL::vector<unsigned long,_STL::allocator<unsigned long> >::~vector<unsigned long,_STL::allocator<unsigned long> >
PUBLIC	?push_back@?$vector@KV?$allocator@K@_STL@@@_STL@@QAEXABK@Z ; _STL::vector<unsigned long,_STL::allocator<unsigned long> >::push_back
PUBLIC	?write@?$basic_ostream@DV?$char_traits@D@_STL@@@_STL@@QAEAAV12@PBDH@Z ; _STL::basic_ostream<char,_STL::char_traits<char> >::write
PUBLIC	?tellp@?$basic_ostream@DV?$char_traits@D@_STL@@@_STL@@QAE?AV?$fpos@H@2@XZ ; _STL::basic_ostream<char,_STL::char_traits<char> >::tellp
PUBLIC	?seekp@?$basic_ostream@DV?$char_traits@D@_STL@@@_STL@@QAEAAV12@V?$fpos@H@2@@Z ; _STL::basic_ostream<char,_STL::char_traits<char> >::seekp
PUBLIC	??_C@_0BJ@MIBMMHPK@real?5size?5?3?5?$CFd?5size?5?3?5?$CFd?$AA@ ; `string'
PUBLIC	??_C@_0L@GKEOOOME@CTypePack2?$AA@		; `string'
EXTRN	___security_cookie:DWORD
EXTRN	@__security_check_cookie@4:NEAR
EXTRN	__imp__MessageBoxA@16:NEAR
;	COMDAT xdata$x
; File c:\stlport-4.6.1\stlport\stl\_alloc.h
xdata$x	SEGMENT
$T113831 DD	0ffffffffH
	DD	FLAT:$L113666
	DD	00H
	DD	FLAT:$L113667
	DD	0ffffffffH
	DD	FLAT:$L113667
$T113821 DD	019930520H
	DD	03H
	DD	FLAT:$T113831
	DD	2 DUP(00H)
	DD	2 DUP(00H)
xdata$x	ENDS
;	COMDAT ??_C@_0BJ@MIBMMHPK@real?5size?5?3?5?$CFd?5size?5?3?5?$CFd?$AA@
CONST	SEGMENT
??_C@_0BJ@MIBMMHPK@real?5size?5?3?5?$CFd?5size?5?3?5?$CFd?$AA@ DB 'real s'
	DB	'ize : %d size : %d', 00H			; `string'
CONST	ENDS
;	COMDAT ??_C@_0L@GKEOOOME@CTypePack2?$AA@
CONST	SEGMENT
??_C@_0L@GKEOOOME@CTypePack2?$AA@ DB 'CTypePack2', 00H	; `string'
; Function compile flags: /Ogsy
; File c:\darkeden\designed_common\project\client\spritelib\ctypepack.h
CONST	ENDS
;	COMDAT ?SaveToFile@?$CTypePack2@VCSprite@@VCSprite555@@VCSprite565@@@@UAE_NAAV?$basic_ofstream@DV?$char_traits@D@_STL@@@_STL@@0@Z
_TEXT	SEGMENT
$T113662 = -568						; size = 8
_index$ = -560						; size = 4
_vIndex$ = -556						; size = 12
$T113661 = -541						; size = 1
tv360 = -540						; size = 4
$T113664 = -536						; size = 4
$T113663 = -536						; size = 4
_i$108072 = -536					; size = 4
_realSize$ = -532					; size = 2
_szTemp$108080 = -528					; size = 512
__$ArrayPad$ = -16					; size = 4
__$EHRec$ = -12						; size = 12
__$ReturnAddr$ = 4					; size = 4
_dataFile$ = 8						; size = 4
_indexFile$ = 12					; size = 4
?SaveToFile@?$CTypePack2@VCSprite@@VCSprite555@@VCSprite565@@@@UAE_NAAV?$basic_ofstream@DV?$char_traits@D@_STL@@@_STL@@0@Z PROC NEAR ; CTypePack2<CSprite,CSprite555,CSprite565>::SaveToFile, COMDAT
; _this$ = ecx

; 1218 : {

  00000	b8 00 00 00 00	 mov	 eax, __ehhandler$?SaveToFile@?$CTypePack2@VCSprite@@VCSprite555@@VCSprite565@@@@UAE_NAAV?$basic_ofstream@DV?$char_traits@D@_STL@@@_STL@@0@Z
  00005	e8 00 00 00 00	 call	 __EH_prolog
  0000a	81 ec 2c 02 00
	00		 sub	 esp, 556		; 0000022cH
  00010	a1 00 00 00 00	 mov	 eax, DWORD PTR ___security_cookie
  00015	53		 push	 ebx
  00016	56		 push	 esi
  00017	57		 push	 edi
  00018	89 45 f0	 mov	 DWORD PTR __$ArrayPad$[ebp], eax
  0001b	8b f9		 mov	 edi, ecx

; 1219 : 	//--------------------------------------------------
; 1220 : 	// index file   
; 1221 : 	//--------------------------------------------------
; 1222 : //	long*	pIndex = new long [m_Size];
; 1223 : 	std::vector<DWORD> vIndex;

  0001d	33 db		 xor	 ebx, ebx
  0001f	53		 push	 ebx
  00020	8d 85 e3 fd ff
	ff		 lea	 eax, DWORD PTR $T113661[ebp]
  00026	50		 push	 eax
  00027	8d 8d dc fd ff
	ff		 lea	 ecx, DWORD PTR _vIndex$[ebp+8]
  0002d	89 5d fc	 mov	 DWORD PTR __$EHRec$[ebp+8], ebx
  00030	89 9d d4 fd ff
	ff		 mov	 DWORD PTR _vIndex$[ebp], ebx
  00036	89 9d d8 fd ff
	ff		 mov	 DWORD PTR _vIndex$[ebp+4], ebx
  0003c	e8 00 00 00 00	 call	 ??0?$_STLP_alloc_proxy@PAKKV?$allocator@K@_STL@@@_STL@@QAE@ABV?$allocator@K@1@PAK@Z ; _STL::_STLP_alloc_proxy<unsigned long *,unsigned long,_STL::allocator<unsigned long> >::_STLP_alloc_proxy<unsigned long *,unsigned long,_STL::allocator<unsigned long> >

; 1224 : 
; 1225 : 	//--------------------------------------------------
; 1226 : 	// Size 
; 1227 : 	//--------------------------------------------------
; 1228 : 	dataFile.write((const char *)&m_Size, 2); 

  00041	8b 4d 08	 mov	 ecx, DWORD PTR _dataFile$[ebp]
  00044	6a 02		 push	 2
  00046	8d 77 08	 lea	 esi, DWORD PTR [edi+8]
  00049	56		 push	 esi
  0004a	c6 45 fc 02	 mov	 BYTE PTR __$EHRec$[ebp+8], 2
  0004e	e8 00 00 00 00	 call	 ?write@?$basic_ostream@DV?$char_traits@D@_STL@@@_STL@@QAEAAV12@PBDH@Z ; _STL::basic_ostream<char,_STL::char_traits<char> >::write

; 1229 : 	indexFile.write((const char *)&m_Size, 2); 

  00053	8b 4d 0c	 mov	 ecx, DWORD PTR _indexFile$[ebp]
  00056	6a 02		 push	 2
  00058	56		 push	 esi
  00059	e8 00 00 00 00	 call	 ?write@?$basic_ostream@DV?$char_traits@D@_STL@@@_STL@@QAEAAV12@PBDH@Z ; _STL::basic_ostream<char,_STL::char_traits<char> >::write

; 1230 : 	WORD realSize = m_Size;

  0005e	33 c0		 xor	 eax, eax
  00060	66 8b 06	 mov	 ax, WORD PTR [esi]

; 1231 : 	DWORD index = 0;
; 1232 : 
; 1233 : 	for(int i = 0; i < m_Size; i++)

  00063	66 3b c3	 cmp	 ax, bx
  00066	89 9d d0 fd ff
	ff		 mov	 DWORD PTR _index$[ebp], ebx
  0006c	89 9d e8 fd ff
	ff		 mov	 DWORD PTR _i$108072[ebp], ebx
  00072	89 85 ec fd ff
	ff		 mov	 DWORD PTR _realSize$[ebp], eax
  00078	76 69		 jbe	 SHORT $L108075

; 1219 : 	//--------------------------------------------------
; 1220 : 	// index file   
; 1221 : 	//--------------------------------------------------
; 1222 : //	long*	pIndex = new long [m_Size];
; 1223 : 	std::vector<DWORD> vIndex;

  0007a	89 9d e4 fd ff
	ff		 mov	 DWORD PTR tv360[ebp], ebx
$L108073:

; 1234 : 	{
; 1235 : 		index = dataFile.tellp();

  00080	8b 4d 08	 mov	 ecx, DWORD PTR _dataFile$[ebp]
  00083	8d 85 c8 fd ff
	ff		 lea	 eax, DWORD PTR $T113662[ebp]
  00089	50		 push	 eax
  0008a	e8 00 00 00 00	 call	 ?tellp@?$basic_ostream@DV?$char_traits@D@_STL@@@_STL@@QAE?AV?$fpos@H@2@XZ ; _STL::basic_ostream<char,_STL::char_traits<char> >::tellp
  0008f	8b 00		 mov	 eax, DWORD PTR [eax]

; 1236 : 		if(m_pData[i].SaveToFile(dataFile) == false)

  00091	8b 8d e4 fd ff
	ff		 mov	 ecx, DWORD PTR tv360[ebp]
  00097	ff 75 08	 push	 DWORD PTR _dataFile$[ebp]
  0009a	89 85 d0 fd ff
	ff		 mov	 DWORD PTR _index$[ebp], eax
  000a0	8b 47 04	 mov	 eax, DWORD PTR [edi+4]
  000a3	03 c8		 add	 ecx, eax
  000a5	8b 01		 mov	 eax, DWORD PTR [ecx]
  000a7	ff 10		 call	 DWORD PTR [eax]
  000a9	84 c0		 test	 al, al
  000ab	75 0c		 jne	 SHORT $L108077

; 1237 : 		{
; 1238 : 			realSize--;

  000ad	81 85 ec fd ff
	ff ff ff 00 00	 add	 DWORD PTR _realSize$[ebp], 65535 ; 0000ffffH

; 1239 : 		}
; 1240 : 		else

  000b7	eb 12		 jmp	 SHORT $L108074
$L108077:

; 1241 : 		{
; 1242 : 			vIndex.push_back(index);

  000b9	8d 85 d0 fd ff
	ff		 lea	 eax, DWORD PTR _index$[ebp]
  000bf	50		 push	 eax
  000c0	8d 8d d4 fd ff
	ff		 lea	 ecx, DWORD PTR _vIndex$[ebp]
  000c6	e8 00 00 00 00	 call	 ?push_back@?$vector@KV?$allocator@K@_STL@@@_STL@@QAEXABK@Z ; _STL::vector<unsigned long,_STL::allocator<unsigned long> >::push_back
$L108074:
  000cb	0f b7 06	 movzx	 eax, WORD PTR [esi]
  000ce	ff 85 e8 fd ff
	ff		 inc	 DWORD PTR _i$108072[ebp]
  000d4	83 85 e4 fd ff
	ff 10		 add	 DWORD PTR tv360[ebp], 16 ; 00000010H
  000db	39 85 e8 fd ff
	ff		 cmp	 DWORD PTR _i$108072[ebp], eax
  000e1	7c 9d		 jl	 SHORT $L108073
$L108075:

; 1243 : 		}
; 1244 : 	}
; 1245 : 	
; 1246 : 	if(realSize != m_Size)

  000e3	66 8b 36	 mov	 si, WORD PTR [esi]
  000e6	66 39 b5 ec fd
	ff ff		 cmp	 WORD PTR _realSize$[ebp], si
  000ed	0f 84 84 00 00
	00		 je	 $L113826

; 1247 : 	{
; 1248 : 		char szTemp[512];
; 1249 : 		sprintf(szTemp, "real size : %d size : %d", realSize, m_Size);

  000f3	0f b7 c6	 movzx	 eax, si
  000f6	50		 push	 eax
  000f7	0f b7 85 ec fd
	ff ff		 movzx	 eax, WORD PTR _realSize$[ebp]
  000fe	50		 push	 eax
  000ff	8d 85 f0 fd ff
	ff		 lea	 eax, DWORD PTR _szTemp$108080[ebp]
  00105	68 00 00 00 00	 push	 OFFSET FLAT:??_C@_0BJ@MIBMMHPK@real?5size?5?3?5?$CFd?5size?5?3?5?$CFd?$AA@
  0010a	50		 push	 eax
  0010b	e8 00 00 00 00	 call	 _sprintf
  00110	83 c4 10	 add	 esp, 16			; 00000010H

; 1250 : 		MessageBox(NULL, szTemp, "CTypePack2", MB_OK);

  00113	53		 push	 ebx
  00114	68 00 00 00 00	 push	 OFFSET FLAT:??_C@_0L@GKEOOOME@CTypePack2?$AA@
  00119	8d 85 f0 fd ff
	ff		 lea	 eax, DWORD PTR _szTemp$108080[ebp]
  0011f	50		 push	 eax
  00120	53		 push	 ebx
  00121	ff 15 00 00 00
	00		 call	 DWORD PTR __imp__MessageBoxA@16

; 1251 : 		dataFile.seekp(0);

  00127	51		 push	 ecx
  00128	51		 push	 ecx
  00129	8b 4d 08	 mov	 ecx, DWORD PTR _dataFile$[ebp]
  0012c	8b c4		 mov	 eax, esp
  0012e	89 a5 e8 fd ff
	ff		 mov	 DWORD PTR $T113663[ebp], esp
  00134	89 18		 mov	 DWORD PTR [eax], ebx
  00136	89 58 04	 mov	 DWORD PTR [eax+4], ebx
  00139	e8 00 00 00 00	 call	 ?seekp@?$basic_ostream@DV?$char_traits@D@_STL@@@_STL@@QAEAAV12@V?$fpos@H@2@@Z ; _STL::basic_ostream<char,_STL::char_traits<char> >::seekp

; 1252 : 		dataFile.write((const char *)&realSize, 2);

  0013e	8b 4d 08	 mov	 ecx, DWORD PTR _dataFile$[ebp]
  00141	6a 02		 push	 2
  00143	8d 85 ec fd ff
	ff		 lea	 eax, DWORD PTR _realSize$[ebp]
  00149	50		 push	 eax
  0014a	e8 00 00 00 00	 call	 ?write@?$basic_ostream@DV?$char_traits@D@_STL@@@_STL@@QAEAAV12@PBDH@Z ; _STL::basic_ostream<char,_STL::char_traits<char> >::write

; 1253 : 		indexFile.seekp(0);

  0014f	51		 push	 ecx
  00150	51		 push	 ecx
  00151	8b 4d 0c	 mov	 ecx, DWORD PTR _indexFile$[ebp]
  00154	8b c4		 mov	 eax, esp
  00156	89 a5 e8 fd ff
	ff		 mov	 DWORD PTR $T113664[ebp], esp
  0015c	89 18		 mov	 DWORD PTR [eax], ebx
  0015e	89 58 04	 mov	 DWORD PTR [eax+4], ebx
  00161	e8 00 00 00 00	 call	 ?seekp@?$basic_ostream@DV?$char_traits@D@_STL@@@_STL@@QAEAAV12@V?$fpos@H@2@@Z ; _STL::basic_ostream<char,_STL::char_traits<char> >::seekp

; 1254 : 		indexFile.write((const char *)&realSize, 2);

  00166	8b 4d 0c	 mov	 ecx, DWORD PTR _indexFile$[ebp]
  00169	6a 02		 push	 2
  0016b	8d 85 ec fd ff
	ff		 lea	 eax, DWORD PTR _realSize$[ebp]
  00171	50		 push	 eax
  00172	e8 00 00 00 00	 call	 ?write@?$basic_ostream@DV?$char_traits@D@_STL@@@_STL@@QAEAAV12@PBDH@Z ; _STL::basic_ostream<char,_STL::char_traits<char> >::write
$L113826:

; 1255 : 	}
; 1256 : 
; 1257 : 	//--------------------------------------------------
; 1258 : 	// index 
; 1259 : 	//--------------------------------------------------
; 1260 : 	for (i = 0; i < (int)vIndex.size(); i++)

  00177	8b 85 d8 fd ff
	ff		 mov	 eax, DWORD PTR _vIndex$[ebp+4]
  0017d	2b 85 d4 fd ff
	ff		 sub	 eax, DWORD PTR _vIndex$[ebp]
  00183	33 f6		 xor	 esi, esi
  00185	a9 fc ff ff ff	 test	 eax, -4			; fffffffcH
  0018a	7e 28		 jle	 SHORT $L108090
$L108088:
  0018c	8b 85 d4 fd ff
	ff		 mov	 eax, DWORD PTR _vIndex$[ebp]

; 1261 : 	{
; 1262 : 		indexFile.write((const char*)&vIndex[i], 4);

  00192	8b 4d 0c	 mov	 ecx, DWORD PTR _indexFile$[ebp]
  00195	6a 04		 push	 4
  00197	8d 04 b0	 lea	 eax, DWORD PTR [eax+esi*4]
  0019a	50		 push	 eax
  0019b	e8 00 00 00 00	 call	 ?write@?$basic_ostream@DV?$char_traits@D@_STL@@@_STL@@QAEAAV12@PBDH@Z ; _STL::basic_ostream<char,_STL::char_traits<char> >::write
  001a0	8b 85 d8 fd ff
	ff		 mov	 eax, DWORD PTR _vIndex$[ebp+4]
  001a6	2b 85 d4 fd ff
	ff		 sub	 eax, DWORD PTR _vIndex$[ebp]
  001ac	46		 inc	 esi
  001ad	c1 f8 02	 sar	 eax, 2
  001b0	3b f0		 cmp	 esi, eax
  001b2	7c d8		 jl	 SHORT $L108088
$L108090:

; 1263 : 	}
; 1264 : 	
; 1265 : //	delete [] pIndex;
; 1266 : 	
; 1267 : //	indexFile.close();
; 1268 : //	dataFile.close();
; 1269 : 
; 1270 : 	if(m_bRunningLoad)

  001b4	38 5f 0a	 cmp	 BYTE PTR [edi+10], bl
  001b7	74 07		 je	 SHORT $L108092

; 1271 : 	{
; 1272 : 		FinishRunningLoad();

  001b9	8b 07		 mov	 eax, DWORD PTR [edi]
  001bb	8b cf		 mov	 ecx, edi
  001bd	ff 50 34	 call	 DWORD PTR [eax+52]
$L108092:

; 1273 : 	}
; 1274 : 
; 1275 : 	return true;

  001c0	83 4d fc ff	 or	 DWORD PTR __$EHRec$[ebp+8], -1
  001c4	8d 8d d4 fd ff
	ff		 lea	 ecx, DWORD PTR _vIndex$[ebp]
  001ca	e8 00 00 00 00	 call	 ??1?$vector@KV?$allocator@K@_STL@@@_STL@@QAE@XZ ; _STL::vector<unsigned long,_STL::allocator<unsigned long> >::~vector<unsigned long,_STL::allocator<unsigned long> >

; 1276 : }

  001cf	8b 4d f4	 mov	 ecx, DWORD PTR __$EHRec$[ebp]
  001d2	64 89 0d 00 00
	00 00		 mov	 DWORD PTR fs:__except_list, ecx
  001d9	8b 4d f0	 mov	 ecx, DWORD PTR __$ArrayPad$[ebp]
  001dc	b0 01		 mov	 al, 1
  001de	e8 00 00 00 00	 call	 @__security_check_cookie@4
  001e3	5f		 pop	 edi
  001e4	5e		 pop	 esi
  001e5	5b		 pop	 ebx
  001e6	c9		 leave
  001e7	c2 08 00	 ret	 8
_TEXT	ENDS
;	COMDAT text$x
text$x	SEGMENT
$L113666:
  00000	8d 8d e3 fd ff
	ff		 lea	 ecx, DWORD PTR $T113661[ebp]
  00006	e9 00 00 00 00	 jmp	 ??1?$allocator@K@_STL@@QAE@XZ ; _STL::allocator<unsigned long>::~allocator<unsigned long>
$L113667:
  0000b	8d 8d d4 fd ff
	ff		 lea	 ecx, DWORD PTR _vIndex$[ebp]
  00011	e9 00 00 00 00	 jmp	 ??1?$vector@KV?$allocator@K@_STL@@@_STL@@QAE@XZ ; _STL::vector<unsigned long,_STL::allocator<unsigned long> >::~vector<unsigned long,_STL::allocator<unsigned long> >
__ehhandler$?SaveToFile@?$CTypePack2@VCSprite@@VCSprite555@@VCSprite565@@@@UAE_NAAV?$basic_ofstream@DV?$char_traits@D@_STL@@@_STL@@0@Z:
  00016	b8 00 00 00 00	 mov	 eax, OFFSET FLAT:$T113821
  0001b	e9 00 00 00 00	 jmp	 ___CxxFrameHandler
text$x	ENDS
?SaveToFile@?$CTypePack2@VCSprite@@VCSprite555@@VCSprite565@@@@UAE_NAAV?$basic_ofstream@DV?$char_traits@D@_STL@@@_STL@@0@Z ENDP ; CTypePack2<CSprite,CSprite555,CSprite565>::SaveToFile
; Function compile flags: /Ogsy
; File c:\stlport-4.6.1\stlport\stl\_alloc.h
;	COMDAT ??1?$allocator@K@_STL@@QAE@XZ
_TEXT	SEGMENT
??1?$allocator@K@_STL@@QAE@XZ PROC NEAR			; _STL::allocator<unsigned long>::~allocator<unsigned long>, COMDAT
; _this$ = ecx

; 350  :   ~allocator() _STLP_NOTHROW {}

  00000	c3		 ret	 0
??1?$allocator@K@_STL@@QAE@XZ ENDP			; _STL::allocator<unsigned long>::~allocator<unsigned long>
; Function compile flags: /Ogsy
; File c:\stlport-4.6.1\stlport\stl\_ostream.h
_TEXT	ENDS
;	COMDAT ?tellp@?$basic_ostream@DV?$char_traits@D@_STL@@@_STL@@QAE?AV?$fpos@H@2@XZ
_TEXT	SEGMENT
$T113842 = -8						; size = 8
$T113841 = -8						; size = 8
___$ReturnUdt$ = 8					; size = 4
?tellp@?$basic_ostream@DV?$char_traits@D@_STL@@@_STL@@QAE?AV?$fpos@H@2@XZ PROC NEAR ; _STL::basic_ostream<char,_STL::char_traits<char> >::tellp, COMDAT
; _this$ = ecx

; 127  :   pos_type tellp() {

  00000	55		 push	 ebp
  00001	8b ec		 mov	 ebp, esp
  00003	51		 push	 ecx
  00004	51		 push	 ecx

; 128  :     return this->rdbuf() && !this->fail()
; 129  :       ? this->rdbuf()->pubseekoff(0, ios_base::cur, ios_base::out)
; 130  :       : pos_type(-1);

  00005	8b 01		 mov	 eax, DWORD PTR [ecx]
  00007	8b 40 04	 mov	 eax, DWORD PTR [eax+4]
  0000a	03 c1		 add	 eax, ecx
  0000c	8b 48 58	 mov	 ecx, DWORD PTR [eax+88]
  0000f	85 c9		 test	 ecx, ecx
  00011	74 17		 je	 SHORT $L113840
  00013	f6 40 08 05	 test	 BYTE PTR [eax+8], 5
  00017	75 11		 jne	 SHORT $L113840
  00019	8b 01		 mov	 eax, DWORD PTR [ecx]
  0001b	6a 10		 push	 16			; 00000010H
  0001d	6a 02		 push	 2
  0001f	6a 00		 push	 0
  00021	8d 55 f8	 lea	 edx, DWORD PTR $T113841[ebp]
  00024	52		 push	 edx
  00025	ff 50 08	 call	 DWORD PTR [eax+8]
  00028	eb 08		 jmp	 SHORT $L113861
$L113840:
  0002a	83 4d f8 ff	 or	 DWORD PTR $T113842[ebp], -1
  0002e	83 65 fc 00	 and	 DWORD PTR $T113842[ebp+4], 0
$L113861:
  00032	8b 45 08	 mov	 eax, DWORD PTR ___$ReturnUdt$[ebp]
  00035	8d 4d f8	 lea	 ecx, DWORD PTR $T113842[ebp]
  00038	8b 11		 mov	 edx, DWORD PTR [ecx]
  0003a	8b 49 04	 mov	 ecx, DWORD PTR [ecx+4]
  0003d	89 10		 mov	 DWORD PTR [eax], edx
  0003f	89 48 04	 mov	 DWORD PTR [eax+4], ecx

; 131  :   }

  00042	c9		 leave
  00043	c2 04 00	 ret	 4
?tellp@?$basic_ostream@DV?$char_traits@D@_STL@@@_STL@@QAE?AV?$fpos@H@2@XZ ENDP ; _STL::basic_ostream<char,_STL::char_traits<char> >::tellp
; Function compile flags: /Ogsy
_TEXT	ENDS
;	COMDAT ?seekp@?$basic_ostream@DV?$char_traits@D@_STL@@@_STL@@QAEAAV12@V?$fpos@H@2@@Z
_TEXT	SEGMENT
$T113864 = 8						; size = 8
___pos$ = 8						; size = 8
?seekp@?$basic_ostream@DV?$char_traits@D@_STL@@@_STL@@QAEAAV12@V?$fpos@H@2@@Z PROC NEAR ; _STL::basic_ostream<char,_STL::char_traits<char> >::seekp, COMDAT
; _this$ = ecx

; 133  :   _Self& seekp(pos_type __pos) {

  00000	55		 push	 ebp
  00001	8b ec		 mov	 ebp, esp
  00003	56		 push	 esi
  00004	8b f1		 mov	 esi, ecx

; 134  :     if (this->rdbuf() && !this->fail())

  00006	8b 06		 mov	 eax, DWORD PTR [esi]
  00008	8b 48 04	 mov	 ecx, DWORD PTR [eax+4]
  0000b	03 ce		 add	 ecx, esi
  0000d	83 79 58 00	 cmp	 DWORD PTR [ecx+88], 0
  00011	74 1e		 je	 SHORT $L113877
  00013	f6 41 08 05	 test	 BYTE PTR [ecx+8], 5
  00017	75 18		 jne	 SHORT $L113877

; 135  :       this->rdbuf()->pubseekpos(__pos, ios_base::out);

  00019	8b 40 04	 mov	 eax, DWORD PTR [eax+4]
  0001c	8b 4c 30 58	 mov	 ecx, DWORD PTR [eax+esi+88]
  00020	8b 01		 mov	 eax, DWORD PTR [ecx]
  00022	6a 10		 push	 16			; 00000010H
  00024	ff 75 0c	 push	 DWORD PTR ___pos$[ebp+4]
  00027	8d 55 08	 lea	 edx, DWORD PTR $T113864[ebp]
  0002a	ff 75 08	 push	 DWORD PTR ___pos$[ebp]
  0002d	52		 push	 edx
  0002e	ff 50 0c	 call	 DWORD PTR [eax+12]
$L113877:

; 136  :     return *this;

  00031	8b c6		 mov	 eax, esi
  00033	5e		 pop	 esi

; 137  :   }

  00034	5d		 pop	 ebp
  00035	c2 08 00	 ret	 8
?seekp@?$basic_ostream@DV?$char_traits@D@_STL@@@_STL@@QAEAAV12@V?$fpos@H@2@@Z ENDP ; _STL::basic_ostream<char,_STL::char_traits<char> >::seekp
; Function compile flags: /Ogsy
; File c:\stlport-4.6.1\stlport\stl\_alloc.h
_TEXT	ENDS
;	COMDAT ??0?$_STLP_alloc_proxy@PAKKV?$allocator@K@_STL@@@_STL@@QAE@ABV?$allocator@K@1@PAK@Z
_TEXT	SEGMENT
___a$ = 8						; size = 4
___p$ = 12						; size = 4
??0?$_STLP_alloc_proxy@PAKKV?$allocator@K@_STL@@@_STL@@QAE@ABV?$allocator@K@1@PAK@Z PROC NEAR ; _STL::_STLP_alloc_proxy<unsigned long *,unsigned long,_STL::allocator<unsigned long> >::_STLP_alloc_proxy<unsigned long *,unsigned long,_STL::allocator<unsigned long> >, COMDAT
; _this$ = ecx

; 487  :   inline _STLP_alloc_proxy(const _MaybeReboundAlloc& __a, _Value __p) : _MaybeReboundAlloc(__a), _M_data(__p) {}

  00000	8b c1		 mov	 eax, ecx
  00002	8b 4c 24 08	 mov	 ecx, DWORD PTR ___p$[esp-4]
  00006	89 08		 mov	 DWORD PTR [eax], ecx
  00008	c2 08 00	 ret	 8
??0?$_STLP_alloc_proxy@PAKKV?$allocator@K@_STL@@@_STL@@QAE@ABV?$allocator@K@1@PAK@Z ENDP ; _STL::_STLP_alloc_proxy<unsigned long *,unsigned long,_STL::allocator<unsigned long> >::_STLP_alloc_proxy<unsigned long *,unsigned long,_STL::allocator<unsigned long> >
_TEXT	ENDS
PUBLIC	??1?$_Vector_base@KV?$allocator@K@_STL@@@_STL@@QAE@XZ ; _STL::_Vector_base<unsigned long,_STL::allocator<unsigned long> >::~_Vector_base<unsigned long,_STL::allocator<unsigned long> >
; Function compile flags: /Ogsy
; File c:\stlport-4.6.1\stlport\stl\_vector.h
;	COMDAT ??1?$vector@KV?$allocator@K@_STL@@@_STL@@QAE@XZ
_TEXT	SEGMENT
??1?$vector@KV?$allocator@K@_STL@@@_STL@@QAE@XZ PROC NEAR ; _STL::vector<unsigned long,_STL::allocator<unsigned long> >::~vector<unsigned long,_STL::allocator<unsigned long> >, COMDAT
; _this$ = ecx

; 258  :   ~vector() { _Destroy(this->_M_start, this->_M_finish); }

  00000	e9 00 00 00 00	 jmp	 ??1?$_Vector_base@KV?$allocator@K@_STL@@@_STL@@QAE@XZ ; _STL::_Vector_base<unsigned long,_STL::allocator<unsigned long> >::~_Vector_base<unsigned long,_STL::allocator<unsigned long> >
??1?$vector@KV?$allocator@K@_STL@@@_STL@@QAE@XZ ENDP	; _STL::vector<unsigned long,_STL::allocator<unsigned long> >::~vector<unsigned long,_STL::allocator<unsigned long> >
_TEXT	ENDS
PUBLIC	??1?$_STLP_alloc_proxy@PAKKV?$allocator@K@_STL@@@_STL@@QAE@XZ ; _STL::_STLP_alloc_proxy<unsigned long *,unsigned long,_STL::allocator<unsigned long> >::~_STLP_alloc_proxy<unsigned long *,unsigned long,_STL::allocator<unsigned long> >
;	COMDAT xdata$x
; File c:\stlport-4.6.1\stlport\stl\_alloc.h
xdata$x	SEGMENT
$T113945 DD	0ffffffffH
	DD	FLAT:$L113927
$T113943 DD	019930520H
	DD	01H
	DD	FLAT:$T113945
	DD	2 DUP(00H)
	DD	2 DUP(00H)
; Function compile flags: /Ogsy
; File c:\stlport-4.6.1\stlport\stl\_vector.h
xdata$x	ENDS
;	COMDAT ??1?$_Vector_base@KV?$allocator@K@_STL@@@_STL@@QAE@XZ
_TEXT	SEGMENT
_this$ = -16						; size = 4
__$EHRec$ = -12						; size = 12
??1?$_Vector_base@KV?$allocator@K@_STL@@@_STL@@QAE@XZ PROC NEAR ; _STL::_Vector_base<unsigned long,_STL::allocator<unsigned long> >::~_Vector_base<unsigned long,_STL::allocator<unsigned long> >, COMDAT
; _this$ = ecx

; 83   :   ~_Vector_base() { 

  00000	b8 00 00 00 00	 mov	 eax, __ehhandler$??1?$_Vector_base@KV?$allocator@K@_STL@@@_STL@@QAE@XZ
  00005	e8 00 00 00 00	 call	 __EH_prolog
  0000a	51		 push	 ecx
  0000b	89 4d f0	 mov	 DWORD PTR _this$[ebp], ecx

; 84   :     if (_M_start !=0) 

  0000e	8b 01		 mov	 eax, DWORD PTR [ecx]
  00010	83 65 fc 00	 and	 DWORD PTR __$EHRec$[ebp+8], 0
  00014	85 c0		 test	 eax, eax
  00016	74 14		 je	 SHORT $L113931

; 85   :     _M_end_of_storage.deallocate(_M_start, _M_end_of_storage._M_data - _M_start); 

  00018	8b 49 08	 mov	 ecx, DWORD PTR [ecx+8]
  0001b	2b c8		 sub	 ecx, eax
  0001d	c1 f9 02	 sar	 ecx, 2
  00020	c1 e1 02	 shl	 ecx, 2
  00023	51		 push	 ecx
  00024	50		 push	 eax
  00025	e8 00 00 00 00	 call	 ?deallocate@?$__node_alloc@$00$0A@@_STL@@SAXPAXI@Z ; _STL::__node_alloc<1,0>::deallocate
  0002a	59		 pop	 ecx
  0002b	59		 pop	 ecx
$L113931:

; 86   :   }

  0002c	8b 4d f4	 mov	 ecx, DWORD PTR __$EHRec$[ebp]
  0002f	64 89 0d 00 00
	00 00		 mov	 DWORD PTR fs:__except_list, ecx
  00036	c9		 leave
  00037	c3		 ret	 0
_TEXT	ENDS
;	COMDAT text$x
text$x	SEGMENT
$L113927:
  00000	8b 4d f0	 mov	 ecx, DWORD PTR _this$[ebp]
  00003	83 c1 08	 add	 ecx, 8
  00006	e9 00 00 00 00	 jmp	 ??1?$_STLP_alloc_proxy@PAKKV?$allocator@K@_STL@@@_STL@@QAE@XZ
__ehhandler$??1?$_Vector_base@KV?$allocator@K@_STL@@@_STL@@QAE@XZ:
  0000b	b8 00 00 00 00	 mov	 eax, OFFSET FLAT:$T113943
  00010	e9 00 00 00 00	 jmp	 ___CxxFrameHandler
text$x	ENDS
??1?$_Vector_base@KV?$allocator@K@_STL@@@_STL@@QAE@XZ ENDP ; _STL::_Vector_base<unsigned long,_STL::allocator<unsigned long> >::~_Vector_base<unsigned long,_STL::allocator<unsigned long> >
; Function compile flags: /Ogsy
;	COMDAT ??1?$_STLP_alloc_proxy@PAKKV?$allocator@K@_STL@@@_STL@@QAE@XZ
_TEXT	SEGMENT
??1?$_STLP_alloc_proxy@PAKKV?$allocator@K@_STL@@@_STL@@QAE@XZ PROC NEAR ; _STL::_STLP_alloc_proxy<unsigned long *,unsigned long,_STL::allocator<unsigned long> >::~_STLP_alloc_proxy<unsigned long *,unsigned long,_STL::allocator<unsigned long> >, COMDAT
; _this$ = ecx
  00000	c3		 ret	 0
??1?$_STLP_alloc_proxy@PAKKV?$allocator@K@_STL@@@_STL@@QAE@XZ ENDP ; _STL::_STLP_alloc_proxy<unsigned long *,unsigned long,_STL::allocator<unsigned long> >::~_STLP_alloc_proxy<unsigned long *,unsigned long,_STL::allocator<unsigned long> >
_TEXT	ENDS
PUBLIC	??$_M_init@DV?$char_traits@D@_STL@@@_STL@@YA_NAAV?$basic_ostream@DV?$char_traits@D@_STL@@@0@@Z ; _STL::_M_init<char,_STL::char_traits<char> >
PUBLIC	?clear@?$basic_ios@DV?$char_traits@D@_STL@@@_STL@@QAEXH@Z ; _STL::basic_ios<char,_STL::char_traits<char> >::clear
PUBLIC	??1sentry@?$basic_ostream@DV?$char_traits@D@_STL@@@_STL@@QAE@XZ ; _STL::basic_ostream<char,_STL::char_traits<char> >::sentry::~sentry
;	COMDAT xdata$x
; File c:\stlport-4.6.1\stlport\stl\_ios_base.h
xdata$x	SEGMENT
$T114063 DD	0ffffffffH
	DD	FLAT:$L113959
	DD	00H
	DD	00H
	DD	00H
	DD	00H
$T114065 DD	00H
	DD	00H
	DD	00H
	DD	FLAT:$L113958
$T114064 DD	01H
	DD	01H
	DD	02H
	DD	01H
	DD	FLAT:$T114065
$T114059 DD	019930520H
	DD	03H
	DD	FLAT:$T114063
	DD	01H
	DD	FLAT:$T114064
	DD	2 DUP(00H)
; Function compile flags: /Ogsy
; File c:\stlport-4.6.1\stlport\stl\_ostream.c
xdata$x	ENDS
;	COMDAT ?write@?$basic_ostream@DV?$char_traits@D@_STL@@@_STL@@QAEAAV12@PBDH@Z
_TEXT	SEGMENT
___sentry$ = -32					; size = 8
_this$ = -24						; size = 4
___failed$ = -17					; size = 1
__$EHRec$ = -16						; size = 16
___s$ = 8						; size = 4
___n$ = 12						; size = 4
?write@?$basic_ostream@DV?$char_traits@D@_STL@@@_STL@@QAEAAV12@PBDH@Z PROC NEAR ; _STL::basic_ostream<char,_STL::char_traits<char> >::write, COMDAT
; _this$ = ecx

; 359  : {

  00000	b8 00 00 00 00	 mov	 eax, __ehhandler$?write@?$basic_ostream@DV?$char_traits@D@_STL@@@_STL@@QAEAAV12@PBDH@Z
  00005	e8 00 00 00 00	 call	 __EH_prolog
  0000a	83 ec 14	 sub	 esp, 20			; 00000014H
  0000d	53		 push	 ebx
  0000e	56		 push	 esi
  0000f	8b f1		 mov	 esi, ecx
  00011	57		 push	 edi
  00012	89 65 f0	 mov	 DWORD PTR __$EHRec$[ebp], esp

; 360  :   sentry __sentry(*this);

  00015	56		 push	 esi
  00016	89 75 e8	 mov	 DWORD PTR _this$[ebp], esi
  00019	89 75 e0	 mov	 DWORD PTR ___sentry$[ebp], esi
  0001c	e8 00 00 00 00	 call	 ??$_M_init@DV?$char_traits@D@_STL@@@_STL@@YA_NAAV?$basic_ostream@DV?$char_traits@D@_STL@@@0@@Z ; _STL::_M_init<char,_STL::char_traits<char> >
  00021	59		 pop	 ecx
  00022	88 45 e4	 mov	 BYTE PTR ___sentry$[ebp+4], al
  00025	83 65 fc 00	 and	 DWORD PTR __$EHRec$[ebp+12], 0

; 361  :   bool __failed = true;
; 362  : 
; 363  :   if (__sentry) {

  00029	84 c0		 test	 al, al
  0002b	c6 45 ef 01	 mov	 BYTE PTR ___failed$[ebp], 1
  0002f	74 47		 je	 SHORT $L109280

; 364  :     _STLP_TRY {
; 365  :       __failed = this->rdbuf()->sputn(__s, __n) != __n;

  00031	8b 06		 mov	 eax, DWORD PTR [esi]
  00033	8b 40 04	 mov	 eax, DWORD PTR [eax+4]
  00036	ff 75 0c	 push	 DWORD PTR ___n$[ebp]
  00039	8b 4c 30 58	 mov	 ecx, DWORD PTR [eax+esi+88]
  0003d	ff 75 08	 push	 DWORD PTR ___s$[ebp]
  00040	8b 01		 mov	 eax, DWORD PTR [ecx]
  00042	c6 45 fc 01	 mov	 BYTE PTR __$EHRec$[ebp+12], 1
  00046	ff 50 28	 call	 DWORD PTR [eax+40]
  00049	3b 45 0c	 cmp	 eax, DWORD PTR ___n$[ebp]
  0004c	0f 95 45 ef	 setne	 BYTE PTR ___failed$[ebp]
  00050	eb 26		 jmp	 SHORT $L109280
$L113958:

; 366  :     }
; 367  :     _STLP_CATCH_ALL {
; 368  :       this->_M_handle_exception(ios_base::badbit);

  00052	8b 4d e8	 mov	 ecx, DWORD PTR _this$[ebp]
  00055	8b 01		 mov	 eax, DWORD PTR [ecx]
  00057	8b 40 04	 mov	 eax, DWORD PTR [eax+4]
  0005a	03 c1		 add	 eax, ecx
  0005c	83 48 08 01	 or	 DWORD PTR [eax+8], 1
  00060	f6 40 14 01	 test	 BYTE PTR [eax+20], 1
  00064	74 09		 je	 SHORT $L113988
  00066	6a 00		 push	 0
  00068	6a 00		 push	 0
  0006a	e8 00 00 00 00	 call	 __CxxThrowException@8
$L114066:
$L113988:

; 369  :     }

  0006f	b8 00 00 00 00	 mov	 eax, $L114060
  00074	c3		 ret	 0
$L114060:
  00075	8b 75 e8	 mov	 esi, DWORD PTR _this$[ebp]
$L109280:
  00078	83 65 fc 00	 and	 DWORD PTR __$EHRec$[ebp+12], 0

; 370  :   }
; 371  : 
; 372  :   if (__failed)

  0007c	80 7d ef 00	 cmp	 BYTE PTR ___failed$[ebp], 0
  00080	74 13		 je	 SHORT $L114014

; 373  :     this->setstate(ios_base::badbit);

  00082	8b 06		 mov	 eax, DWORD PTR [esi]
  00084	8b 48 04	 mov	 ecx, DWORD PTR [eax+4]
  00087	03 ce		 add	 ecx, esi
  00089	8b 41 08	 mov	 eax, DWORD PTR [ecx+8]
  0008c	83 c8 01	 or	 eax, 1
  0008f	50		 push	 eax
  00090	e8 00 00 00 00	 call	 ?clear@?$basic_ios@DV?$char_traits@D@_STL@@@_STL@@QAEXH@Z ; _STL::basic_ios<char,_STL::char_traits<char> >::clear
$L114014:

; 374  : 
; 375  :   return *this;

  00095	83 4d fc ff	 or	 DWORD PTR __$EHRec$[ebp+12], -1
  00099	8d 4d e0	 lea	 ecx, DWORD PTR ___sentry$[ebp]
  0009c	e8 00 00 00 00	 call	 ??1sentry@?$basic_ostream@DV?$char_traits@D@_STL@@@_STL@@QAE@XZ ; _STL::basic_ostream<char,_STL::char_traits<char> >::sentry::~sentry

; 376  : }

  000a1	8b 4d f4	 mov	 ecx, DWORD PTR __$EHRec$[ebp+4]
  000a4	5f		 pop	 edi
  000a5	8b c6		 mov	 eax, esi
  000a7	5e		 pop	 esi
  000a8	64 89 0d 00 00
	00 00		 mov	 DWORD PTR fs:__except_list, ecx
  000af	5b		 pop	 ebx
  000b0	c9		 leave
  000b1	c2 08 00	 ret	 8
$L114062:
_TEXT	ENDS
;	COMDAT text$x
text$x	SEGMENT
$L113959:
  00000	8d 4d e0	 lea	 ecx, DWORD PTR ___sentry$[ebp]
  00003	e9 00 00 00 00	 jmp	 ??1sentry@?$basic_ostream@DV?$char_traits@D@_STL@@@_STL@@QAE@XZ ; _STL::basic_ostream<char,_STL::char_traits<char> >::sentry::~sentry
__ehhandler$?write@?$basic_ostream@DV?$char_traits@D@_STL@@@_STL@@QAEAAV12@PBDH@Z:
  00008	b8 00 00 00 00	 mov	 eax, OFFSET FLAT:$T114059
  0000d	e9 00 00 00 00	 jmp	 ___CxxFrameHandler
text$x	ENDS
?write@?$basic_ostream@DV?$char_traits@D@_STL@@@_STL@@QAEAAV12@PBDH@Z ENDP ; _STL::basic_ostream<char,_STL::char_traits<char> >::write
EXTRN	?_M_throw_failure@ios_base@_STL@@IAEXXZ:NEAR	; _STL::ios_base::_M_throw_failure
; Function compile flags: /Ogsy
; File c:\stlport-4.6.1\stlport\stl\_ios.h
;	COMDAT ?clear@?$basic_ios@DV?$char_traits@D@_STL@@@_STL@@QAEXH@Z
_TEXT	SEGMENT
___state$ = 8						; size = 4
?clear@?$basic_ios@DV?$char_traits@D@_STL@@@_STL@@QAEXH@Z PROC NEAR ; _STL::basic_ios<char,_STL::char_traits<char> >::clear, COMDAT
; _this$ = ecx

; 91   :     _M_clear_nothrow(this->rdbuf() ? __state : iostate(__state|ios_base::badbit));

  00000	83 79 58 00	 cmp	 DWORD PTR [ecx+88], 0
  00004	8b 44 24 04	 mov	 eax, DWORD PTR ___state$[esp-4]
  00008	75 03		 jne	 SHORT $L114072
  0000a	83 c8 01	 or	 eax, 1
$L114072:

; 92   :     _M_check_exception_mask();

  0000d	85 41 14	 test	 DWORD PTR [ecx+20], eax
  00010	89 41 08	 mov	 DWORD PTR [ecx+8], eax
  00013	74 05		 je	 SHORT $L114084
  00015	e8 00 00 00 00	 call	 ?_M_throw_failure@ios_base@_STL@@IAEXXZ ; _STL::ios_base::_M_throw_failure
$L114084:

; 93   :   }

  0001a	c2 04 00	 ret	 4
?clear@?$basic_ios@DV?$char_traits@D@_STL@@@_STL@@QAEXH@Z ENDP ; _STL::basic_ios<char,_STL::char_traits<char> >::clear
_TEXT	ENDS
PUBLIC	?flush@?$basic_ostream@DV?$char_traits@D@_STL@@@_STL@@QAEAAV12@XZ ; _STL::basic_ostream<char,_STL::char_traits<char> >::flush
; Function compile flags: /Ogsy
; File c:\stlport-4.6.1\stlport\stl\_ostream.c
;	COMDAT ??$_M_init@DV?$char_traits@D@_STL@@@_STL@@YA_NAAV?$basic_ostream@DV?$char_traits@D@_STL@@@0@@Z
_TEXT	SEGMENT
___str$ = 8						; size = 4
??$_M_init@DV?$char_traits@D@_STL@@@_STL@@YA_NAAV?$basic_ostream@DV?$char_traits@D@_STL@@@0@@Z PROC NEAR ; _STL::_M_init<char,_STL::char_traits<char> >, COMDAT

; 37   : _M_init(basic_ostream<_CharT, _Traits>& __str) {

  00000	56		 push	 esi

; 38   :   if (__str.good()) {

  00001	8b 74 24 08	 mov	 esi, DWORD PTR ___str$[esp]
  00005	8b 06		 mov	 eax, DWORD PTR [esi]
  00007	8b 40 04	 mov	 eax, DWORD PTR [eax+4]
  0000a	8d 0c 30	 lea	 ecx, DWORD PTR [eax+esi]
  0000d	83 79 08 00	 cmp	 DWORD PTR [ecx+8], 0
  00011	75 36		 jne	 SHORT $L110017

; 39   :     // boris : check if this is needed !
; 40   :     if (!__str.rdbuf())

  00013	83 79 58 00	 cmp	 DWORD PTR [ecx+88], 0
  00017	75 0c		 jne	 SHORT $L114100

; 41   :       __str.setstate(ios_base::badbit);

  00019	8b 41 08	 mov	 eax, DWORD PTR [ecx+8]
  0001c	83 c8 01	 or	 eax, 1
  0001f	50		 push	 eax
  00020	e8 00 00 00 00	 call	 ?clear@?$basic_ios@DV?$char_traits@D@_STL@@@_STL@@QAEXH@Z ; _STL::basic_ios<char,_STL::char_traits<char> >::clear
$L114100:

; 42   :     if (__str.tie())

  00025	8b 06		 mov	 eax, DWORD PTR [esi]
  00027	8b 40 04	 mov	 eax, DWORD PTR [eax+4]
  0002a	8b 4c 30 5c	 mov	 ecx, DWORD PTR [eax+esi+92]
  0002e	85 c9		 test	 ecx, ecx
  00030	74 05		 je	 SHORT $L110019

; 43   :       __str.tie()->flush();

  00032	e8 00 00 00 00	 call	 ?flush@?$basic_ostream@DV?$char_traits@D@_STL@@@_STL@@QAEAAV12@XZ ; _STL::basic_ostream<char,_STL::char_traits<char> >::flush
$L110019:

; 44   :     return __str.good();

  00037	8b 06		 mov	 eax, DWORD PTR [esi]
  00039	8b 40 04	 mov	 eax, DWORD PTR [eax+4]
  0003c	33 c9		 xor	 ecx, ecx
  0003e	39 4c 30 08	 cmp	 DWORD PTR [eax+esi+8], ecx
  00042	5e		 pop	 esi
  00043	0f 94 c1	 sete	 cl
  00046	8a c1		 mov	 al, cl

; 47   : }

  00048	c3		 ret	 0
$L110017:

; 45   :   } else
; 46   :     return false;

  00049	32 c0		 xor	 al, al
  0004b	5e		 pop	 esi

; 47   : }

  0004c	c3		 ret	 0
??$_M_init@DV?$char_traits@D@_STL@@@_STL@@YA_NAAV?$basic_ostream@DV?$char_traits@D@_STL@@@0@@Z ENDP ; _STL::_M_init<char,_STL::char_traits<char> >
; Function compile flags: /Ogsy
; File c:\stlport-4.6.1\stlport\stl\_ostream.h
_TEXT	ENDS
;	COMDAT ?flush@?$basic_ostream@DV?$char_traits@D@_STL@@@_STL@@QAEAAV12@XZ
_TEXT	SEGMENT
?flush@?$basic_ostream@DV?$char_traits@D@_STL@@@_STL@@QAEAAV12@XZ PROC NEAR ; _STL::basic_ostream<char,_STL::char_traits<char> >::flush, COMDAT
; _this$ = ecx

; 120  :   _Self& flush() {

  00000	56		 push	 esi
  00001	8b f1		 mov	 esi, ecx

; 121  :     if (this->rdbuf())

  00003	8b 06		 mov	 eax, DWORD PTR [esi]
  00005	8b 40 04	 mov	 eax, DWORD PTR [eax+4]
  00008	8b 4c 30 58	 mov	 ecx, DWORD PTR [eax+esi+88]
  0000c	85 c9		 test	 ecx, ecx
  0000e	74 1d		 je	 SHORT $L114157

; 122  :       if (this->rdbuf()->pubsync() == -1)

  00010	8b 01		 mov	 eax, DWORD PTR [ecx]
  00012	ff 50 10	 call	 DWORD PTR [eax+16]
  00015	83 f8 ff	 cmp	 eax, -1
  00018	75 13		 jne	 SHORT $L114157

; 123  :         this->setstate(ios_base::badbit);

  0001a	8b 06		 mov	 eax, DWORD PTR [esi]
  0001c	8b 48 04	 mov	 ecx, DWORD PTR [eax+4]
  0001f	03 ce		 add	 ecx, esi
  00021	8b 41 08	 mov	 eax, DWORD PTR [ecx+8]
  00024	83 c8 01	 or	 eax, 1
  00027	50		 push	 eax
  00028	e8 00 00 00 00	 call	 ?clear@?$basic_ios@DV?$char_traits@D@_STL@@@_STL@@QAEXH@Z ; _STL::basic_ios<char,_STL::char_traits<char> >::clear
$L114157:

; 124  :     return *this;

  0002d	8b c6		 mov	 eax, esi
  0002f	5e		 pop	 esi

; 125  :   }

  00030	c3		 ret	 0
?flush@?$basic_ostream@DV?$char_traits@D@_STL@@@_STL@@QAEAAV12@XZ ENDP ; _STL::basic_ostream<char,_STL::char_traits<char> >::flush
; Function compile flags: /Ogsy
_TEXT	ENDS
;	COMDAT ??1sentry@?$basic_ostream@DV?$char_traits@D@_STL@@@_STL@@QAE@XZ
_TEXT	SEGMENT
??1sentry@?$basic_ostream@DV?$char_traits@D@_STL@@@_STL@@QAE@XZ PROC NEAR ; _STL::basic_ostream<char,_STL::char_traits<char> >::sentry::~sentry, COMDAT
; _this$ = ecx

; 169  :         if (_M_str.flags() & ios_base::unitbuf)

  00000	8b 09		 mov	 ecx, DWORD PTR [ecx]
  00002	8b 01		 mov	 eax, DWORD PTR [ecx]
  00004	8b 40 04	 mov	 eax, DWORD PTR [eax+4]
  00007	f6 44 08 05 20	 test	 BYTE PTR [eax+ecx+5], 32 ; 00000020H
  0000c	74 05		 je	 SHORT $L109747

; 170  : # ifndef _STLP_INCOMPLETE_EXCEPTION_HEADER 
; 171  :           if (!_STLP_VENDOR_EXCEPT_STD::uncaught_exception())
; 172  : # endif
; 173  :             _M_str.flush();

  0000e	e9 00 00 00 00	 jmp	 ?flush@?$basic_ostream@DV?$char_traits@D@_STL@@@_STL@@QAEAAV12@XZ ; _STL::basic_ostream<char,_STL::char_traits<char> >::flush
$L109747:

; 174  :       }

  00013	c3		 ret	 0
??1sentry@?$basic_ostream@DV?$char_traits@D@_STL@@@_STL@@QAE@XZ ENDP ; _STL::basic_ostream<char,_STL::char_traits<char> >::sentry::~sentry
_TEXT	ENDS
PUBLIC	?_M_insert_overflow@?$vector@KV?$allocator@K@_STL@@@_STL@@IAEXPAKABKABU__true_type@2@I_N@Z ; _STL::vector<unsigned long,_STL::allocator<unsigned long> >::_M_insert_overflow
; Function compile flags: /Ogsy
; File c:\stlport-4.6.1\stlport\stl\_vector.h
;	COMDAT ?push_back@?$vector@KV?$allocator@K@_STL@@@_STL@@QAEXABK@Z
_TEXT	SEGMENT
$T114172 = -1						; size = 1
___x$ = 8						; size = 4
?push_back@?$vector@KV?$allocator@K@_STL@@@_STL@@QAEXABK@Z PROC NEAR ; _STL::vector<unsigned long,_STL::allocator<unsigned long> >::push_back, COMDAT
; _this$ = ecx

; 331  :   void push_back(const _Tp& __x) {

  00000	55		 push	 ebp
  00001	8b ec		 mov	 ebp, esp
  00003	51		 push	 ecx

; 332  :     if (this->_M_finish != this->_M_end_of_storage._M_data) {

  00004	8b 51 04	 mov	 edx, DWORD PTR [ecx+4]
  00007	3b 51 08	 cmp	 edx, DWORD PTR [ecx+8]
  0000a	74 11		 je	 SHORT $L108827

; 333  :       _Construct(this->_M_finish, __x);

  0000c	85 d2		 test	 edx, edx
  0000e	74 07		 je	 SHORT $L114183
  00010	8b 45 08	 mov	 eax, DWORD PTR ___x$[ebp]
  00013	8b 00		 mov	 eax, DWORD PTR [eax]
  00015	89 02		 mov	 DWORD PTR [edx], eax
$L114183:

; 334  :       ++this->_M_finish;

  00017	83 41 04 04	 add	 DWORD PTR [ecx+4], 4

; 335  :     }
; 336  :     else

  0001b	eb 19		 jmp	 SHORT $L108834
$L108827:
  0001d	57		 push	 edi

; 337  :       _M_insert_overflow(this->_M_finish, __x, _IsPODType(), 1UL, true);

  0001e	6a 01		 push	 1
  00020	33 c0		 xor	 eax, eax
  00022	8d 7d ff	 lea	 edi, DWORD PTR $T114172[ebp]
  00025	6a 01		 push	 1
  00027	aa		 stosb
  00028	8d 45 ff	 lea	 eax, DWORD PTR $T114172[ebp]
  0002b	50		 push	 eax
  0002c	ff 75 08	 push	 DWORD PTR ___x$[ebp]
  0002f	52		 push	 edx
  00030	e8 00 00 00 00	 call	 ?_M_insert_overflow@?$vector@KV?$allocator@K@_STL@@@_STL@@IAEXPAKABKABU__true_type@2@I_N@Z ; _STL::vector<unsigned long,_STL::allocator<unsigned long> >::_M_insert_overflow
  00035	5f		 pop	 edi
$L108834:

; 338  :   }

  00036	c9		 leave
  00037	c2 04 00	 ret	 4
?push_back@?$vector@KV?$allocator@K@_STL@@@_STL@@QAEXABK@Z ENDP ; _STL::vector<unsigned long,_STL::allocator<unsigned long> >::push_back
_TEXT	ENDS
PUBLIC	?_M_clear@?$vector@KV?$allocator@K@_STL@@@_STL@@IAEXXZ ; _STL::vector<unsigned long,_STL::allocator<unsigned long> >::_M_clear
EXTRN	_memmove:NEAR
; Function compile flags: /Ogsy
;	COMDAT ?_M_insert_overflow@?$vector@KV?$allocator@K@_STL@@@_STL@@IAEXPAKABKABU__true_type@2@I_N@Z
_TEXT	SEGMENT
___new_start$ = -4					; size = 4
___old_size$ = -4					; size = 4
___position$ = 8					; size = 4
___x$ = 12						; size = 4
___formal$ = 16						; size = 4
___fill_len$ = 20					; size = 4
tv217 = 24						; size = 4
___atend$ = 24						; size = 1
?_M_insert_overflow@?$vector@KV?$allocator@K@_STL@@@_STL@@IAEXPAKABKABU__true_type@2@I_N@Z PROC NEAR ; _STL::vector<unsigned long,_STL::allocator<unsigned long> >::_M_insert_overflow, COMDAT
; _this$ = ecx

; 151  : 			  size_type __fill_len, bool __atend = false) {

  00000	55		 push	 ebp
  00001	8b ec		 mov	 ebp, esp
  00003	51		 push	 ecx
  00004	53		 push	 ebx
  00005	56		 push	 esi
  00006	57		 push	 edi
  00007	8b f9		 mov	 edi, ecx

; 152  :     const size_type __old_size = size();

  00009	8b 47 04	 mov	 eax, DWORD PTR [edi+4]
  0000c	2b 07		 sub	 eax, DWORD PTR [edi]

; 153  :     const size_type __len = __old_size + (max)(__old_size, __fill_len);

  0000e	8d 4d 14	 lea	 ecx, DWORD PTR ___fill_len$[ebp]
  00011	c1 f8 02	 sar	 eax, 2
  00014	3b 45 14	 cmp	 eax, DWORD PTR ___fill_len$[ebp]
  00017	89 45 fc	 mov	 DWORD PTR ___old_size$[ebp], eax
  0001a	72 03		 jb	 SHORT $L114201
  0001c	8d 4d fc	 lea	 ecx, DWORD PTR ___old_size$[ebp]
$L114201:
  0001f	8b 19		 mov	 ebx, DWORD PTR [ecx]
  00021	03 d8		 add	 ebx, eax

; 154  :     
; 155  :     pointer __new_start = this->_M_end_of_storage.allocate(__len);

  00023	74 11		 je	 SHORT $L114207
  00025	8b c3		 mov	 eax, ebx
  00027	c1 e0 02	 shl	 eax, 2
  0002a	50		 push	 eax
  0002b	e8 00 00 00 00	 call	 ?allocate@?$__node_alloc@$00$0A@@_STL@@SAPAXI@Z ; _STL::__node_alloc<1,0>::allocate
  00030	59		 pop	 ecx
  00031	89 45 fc	 mov	 DWORD PTR ___new_start$[ebp], eax
  00034	eb 04		 jmp	 SHORT $L114208
$L114207:
  00036	83 65 fc 00	 and	 DWORD PTR ___new_start$[ebp], 0
$L114208:

; 156  :     pointer __new_finish = (pointer)__copy_trivial(this->_M_start, __position, __new_start);

  0003a	8b 07		 mov	 eax, DWORD PTR [edi]
  0003c	8b 75 08	 mov	 esi, DWORD PTR ___position$[ebp]
  0003f	3b f0		 cmp	 esi, eax
  00041	75 05		 jne	 SHORT $L114213
  00043	8b 45 fc	 mov	 eax, DWORD PTR ___new_start$[ebp]
  00046	eb 11		 jmp	 SHORT $L114214
$L114213:
  00048	2b f0		 sub	 esi, eax
  0004a	56		 push	 esi
  0004b	50		 push	 eax
  0004c	ff 75 fc	 push	 DWORD PTR ___new_start$[ebp]
  0004f	e8 00 00 00 00	 call	 _memmove
  00054	83 c4 0c	 add	 esp, 12			; 0000000cH
  00057	03 c6		 add	 eax, esi
$L114214:

; 157  :       // handle insertion
; 158  :     __new_finish = fill_n(__new_finish, __fill_len, __x);

  00059	8b 4d 14	 mov	 ecx, DWORD PTR ___fill_len$[ebp]
  0005c	85 c9		 test	 ecx, ecx
  0005e	76 0d		 jbe	 SHORT $L114221
$L114219:
  00060	8b 55 0c	 mov	 edx, DWORD PTR ___x$[ebp]
  00063	8b 12		 mov	 edx, DWORD PTR [edx]
  00065	89 10		 mov	 DWORD PTR [eax], edx
  00067	83 c0 04	 add	 eax, 4
  0006a	49		 dec	 ecx
  0006b	75 f3		 jne	 SHORT $L114219
$L114221:

; 159  :     if (!__atend)

  0006d	80 7d 18 00	 cmp	 BYTE PTR ___atend$[ebp], 0
  00071	8b f0		 mov	 esi, eax
  00073	75 20		 jne	 SHORT $L114230

; 160  :       // copy remainder
; 161  :       __new_finish = (pointer)__copy_trivial(__position, this->_M_finish, __new_finish);

  00075	8b 4f 04	 mov	 ecx, DWORD PTR [edi+4]
  00078	3b 4d 08	 cmp	 ecx, DWORD PTR ___position$[ebp]
  0007b	74 18		 je	 SHORT $L114230
  0007d	2b 4d 08	 sub	 ecx, DWORD PTR ___position$[ebp]
  00080	51		 push	 ecx
  00081	ff 75 08	 push	 DWORD PTR ___position$[ebp]
  00084	89 4d 18	 mov	 DWORD PTR tv217[ebp], ecx
  00087	50		 push	 eax
  00088	e8 00 00 00 00	 call	 _memmove
  0008d	8b f0		 mov	 esi, eax
  0008f	83 c4 0c	 add	 esp, 12			; 0000000cH
  00092	03 75 18	 add	 esi, DWORD PTR tv217[ebp]
$L114230:

; 162  :     _M_clear();

  00095	8b cf		 mov	 ecx, edi
  00097	e8 00 00 00 00	 call	 ?_M_clear@?$vector@KV?$allocator@K@_STL@@@_STL@@IAEXXZ ; _STL::vector<unsigned long,_STL::allocator<unsigned long> >::_M_clear

; 163  :     _M_set(__new_start, __new_finish, __new_start + __len);

  0009c	8b 45 fc	 mov	 eax, DWORD PTR ___new_start$[ebp]
  0009f	89 07		 mov	 DWORD PTR [edi], eax
  000a1	8d 04 98	 lea	 eax, DWORD PTR [eax+ebx*4]
  000a4	89 77 04	 mov	 DWORD PTR [edi+4], esi
  000a7	89 47 08	 mov	 DWORD PTR [edi+8], eax
  000aa	5f		 pop	 edi
  000ab	5e		 pop	 esi
  000ac	5b		 pop	 ebx

; 164  :   }

  000ad	c9		 leave
  000ae	c2 14 00	 ret	 20			; 00000014H
?_M_insert_overflow@?$vector@KV?$allocator@K@_STL@@@_STL@@IAEXPAKABKABU__true_type@2@I_N@Z ENDP ; _STL::vector<unsigned long,_STL::allocator<unsigned long> >::_M_insert_overflow
; Function compile flags: /Ogsy
_TEXT	ENDS
;	COMDAT ?_M_clear@?$vector@KV?$allocator@K@_STL@@@_STL@@IAEXXZ
_TEXT	SEGMENT
?_M_clear@?$vector@KV?$allocator@K@_STL@@@_STL@@IAEXXZ PROC NEAR ; _STL::vector<unsigned long,_STL::allocator<unsigned long> >::_M_clear, COMDAT
; _this$ = ecx

; 494  :     //    if (this->_M_start) {
; 495  :     _Destroy(this->_M_start, this->_M_finish);
; 496  :     this->_M_end_of_storage.deallocate(this->_M_start, this->_M_end_of_storage._M_data - this->_M_start);

  00000	8b 01		 mov	 eax, DWORD PTR [ecx]
  00002	85 c0		 test	 eax, eax
  00004	74 14		 je	 SHORT $L114289
  00006	8b 49 08	 mov	 ecx, DWORD PTR [ecx+8]
  00009	2b c8		 sub	 ecx, eax
  0000b	c1 f9 02	 sar	 ecx, 2
  0000e	c1 e1 02	 shl	 ecx, 2
  00011	51		 push	 ecx
  00012	50		 push	 eax
  00013	e8 00 00 00 00	 call	 ?deallocate@?$__node_alloc@$00$0A@@_STL@@SAXPAXI@Z ; _STL::__node_alloc<1,0>::deallocate
  00018	59		 pop	 ecx
  00019	59		 pop	 ecx
$L114289:

; 497  :     //    }
; 498  :   }

  0001a	c3		 ret	 0
?_M_clear@?$vector@KV?$allocator@K@_STL@@@_STL@@IAEXXZ ENDP ; _STL::vector<unsigned long,_STL::allocator<unsigned long> >::_M_clear
_TEXT	ENDS
PUBLIC	?GetGuildMark@MGuildMarkManager@@QAEPAVCSprite@@G@Z ; MGuildMarkManager::GetGuildMark
; Function compile flags: /Ogsy
; File c:\darkeden\designed_common\project\client\mguildmarkmanager.cpp
;	COMDAT ?GetGuildMark@MGuildMarkManager@@QAEPAVCSprite@@G@Z
_TEXT	SEGMENT
_guildID$ = 8						; size = 2
?GetGuildMark@MGuildMarkManager@@QAEPAVCSprite@@G@Z PROC NEAR ; MGuildMarkManager::GetGuildMark, COMDAT
; _this$ = ecx

; 233  : {

  00000	56		 push	 esi

; 234  : 	GUILDMARK_MAP::iterator iMark = m_GuildMarksMap.find(guildID);

  00001	8d 44 24 08	 lea	 eax, DWORD PTR _guildID$[esp]
  00005	50		 push	 eax
  00006	8b f1		 mov	 esi, ecx
  00008	e8 00 00 00 00	 call	 ??$_M_find@G@?$_Rb_tree@GU?$pair@$$CBGUGUILD_SPRITES@MGuildMarkManager@@@_STL@@U?$_Select1st@U?$pair@$$CBGUGUILD_SPRITES@MGuildMarkManager@@@_STL@@@2@U?$less@G@2@V?$allocator@U?$pair@$$CBGUGUILD_SPRITES@MGuildMarkManager@@@_STL@@@2@@_STL@@ABEPAU?$_Rb_tree_node@U?$pair@$$CBGUGUILD_SPRITES@MGuildMarkManager@@@_STL@@@1@ABG@Z ; _STL::_Rb_tree<unsigned short,_STL::pair<unsigned short const ,MGuildMarkManager::GUILD_SPRITES>,_STL::_Select1st<_STL::pair<unsigned short const ,MGuildMarkManager::GUILD_SPRITES> >,_STL::less<unsigned short>,_STL::allocator<_STL::pair<unsigned short const ,MGuildMarkManager::GUILD_SPRITES> > >::_M_find<unsigned short>

; 235  : 
; 236  : 	if (iMark != m_GuildMarksMap.end())

  0000d	3b 06		 cmp	 eax, DWORD PTR [esi]
  0000f	74 10		 je	 SHORT $L106524

; 237  : 	{
; 238  : 		return m_GuildMarksMap[guildID].pSprite;

  00011	8d 44 24 08	 lea	 eax, DWORD PTR _guildID$[esp]
  00015	50		 push	 eax
  00016	8b ce		 mov	 ecx, esi
  00018	e8 00 00 00 00	 call	 ??A?$map@GUGUILD_SPRITES@MGuildMarkManager@@U?$less@G@_STL@@V?$allocator@U?$pair@$$CBGUGUILD_SPRITES@MGuildMarkManager@@@_STL@@@4@@_STL@@QAEAAUGUILD_SPRITES@MGuildMarkManager@@ABG@Z ; _STL::map<unsigned short,MGuildMarkManager::GUILD_SPRITES,_STL::less<unsigned short>,_STL::allocator<_STL::pair<unsigned short const ,MGuildMarkManager::GUILD_SPRITES> > >::operator[]
  0001d	8b 00		 mov	 eax, DWORD PTR [eax]
  0001f	eb 02		 jmp	 SHORT $L106486
$L106524:

; 239  : 	}
; 240  : 
; 241  : 	return NULL;

  00021	33 c0		 xor	 eax, eax
$L106486:
  00023	5e		 pop	 esi

; 242  : }

  00024	c2 04 00	 ret	 4
?GetGuildMark@MGuildMarkManager@@QAEPAVCSprite@@G@Z ENDP ; MGuildMarkManager::GetGuildMark
_TEXT	ENDS
PUBLIC	?GetGuildMarkSmall@MGuildMarkManager@@QAEPAVCSprite@@G@Z ; MGuildMarkManager::GetGuildMarkSmall
; Function compile flags: /Ogsy
;	COMDAT ?GetGuildMarkSmall@MGuildMarkManager@@QAEPAVCSprite@@G@Z
_TEXT	SEGMENT
_guildID$ = 8						; size = 2
?GetGuildMarkSmall@MGuildMarkManager@@QAEPAVCSprite@@G@Z PROC NEAR ; MGuildMarkManager::GetGuildMarkSmall, COMDAT
; _this$ = ecx

; 249  : {

  00000	56		 push	 esi

; 250  : 	GUILDMARK_MAP::iterator iMark = m_GuildMarksMap.find(guildID);

  00001	8d 44 24 08	 lea	 eax, DWORD PTR _guildID$[esp]
  00005	50		 push	 eax
  00006	8b f1		 mov	 esi, ecx
  00008	e8 00 00 00 00	 call	 ??$_M_find@G@?$_Rb_tree@GU?$pair@$$CBGUGUILD_SPRITES@MGuildMarkManager@@@_STL@@U?$_Select1st@U?$pair@$$CBGUGUILD_SPRITES@MGuildMarkManager@@@_STL@@@2@U?$less@G@2@V?$allocator@U?$pair@$$CBGUGUILD_SPRITES@MGuildMarkManager@@@_STL@@@2@@_STL@@ABEPAU?$_Rb_tree_node@U?$pair@$$CBGUGUILD_SPRITES@MGuildMarkManager@@@_STL@@@1@ABG@Z ; _STL::_Rb_tree<unsigned short,_STL::pair<unsigned short const ,MGuildMarkManager::GUILD_SPRITES>,_STL::_Select1st<_STL::pair<unsigned short const ,MGuildMarkManager::GUILD_SPRITES> >,_STL::less<unsigned short>,_STL::allocator<_STL::pair<unsigned short const ,MGuildMarkManager::GUILD_SPRITES> > >::_M_find<unsigned short>

; 251  : 
; 252  : 	if (iMark != m_GuildMarksMap.end())

  0000d	3b 06		 cmp	 eax, DWORD PTR [esi]
  0000f	74 11		 je	 SHORT $L106532

; 253  : 	{
; 254  : 		return m_GuildMarksMap[guildID].pSpriteSmall;

  00011	8d 44 24 08	 lea	 eax, DWORD PTR _guildID$[esp]
  00015	50		 push	 eax
  00016	8b ce		 mov	 ecx, esi
  00018	e8 00 00 00 00	 call	 ??A?$map@GUGUILD_SPRITES@MGuildMarkManager@@U?$less@G@_STL@@V?$allocator@U?$pair@$$CBGUGUILD_SPRITES@MGuildMarkManager@@@_STL@@@4@@_STL@@QAEAAUGUILD_SPRITES@MGuildMarkManager@@ABG@Z ; _STL::map<unsigned short,MGuildMarkManager::GUILD_SPRITES,_STL::less<unsigned short>,_STL::allocator<_STL::pair<unsigned short const ,MGuildMarkManager::GUILD_SPRITES> > >::operator[]
  0001d	8b 40 04	 mov	 eax, DWORD PTR [eax+4]
  00020	eb 02		 jmp	 SHORT $L106528
$L106532:

; 255  : 	}
; 256  : 
; 257  : 	return NULL;

  00022	33 c0		 xor	 eax, eax
$L106528:
  00024	5e		 pop	 esi

; 258  : }

  00025	c2 04 00	 ret	 4
?GetGuildMarkSmall@MGuildMarkManager@@QAEPAVCSprite@@G@Z ENDP ; MGuildMarkManager::GetGuildMarkSmall
_TEXT	ENDS
PUBLIC	?LoadGuildMark@MGuildMarkManager@@QAE_NG@Z	; MGuildMarkManager::LoadGuildMark
EXTRN	?g_pGuildInfoMapper@@3PAVMGuildInfoMapper@@A:DWORD ; g_pGuildInfoMapper
; Function compile flags: /Ogsy
;	COMDAT ?LoadGuildMark@MGuildMarkManager@@QAE_NG@Z
_TEXT	SEGMENT
$T114377 = -8						; size = 8
_guildID$ = 8						; size = 2
?LoadGuildMark@MGuildMarkManager@@QAE_NG@Z PROC NEAR	; MGuildMarkManager::LoadGuildMark, COMDAT
; _this$ = ecx

; 285  : {

  00000	55		 push	 ebp
  00001	8b ec		 mov	 ebp, esp
  00003	51		 push	 ecx
  00004	51		 push	 ecx
  00005	53		 push	 ebx

; 286  : 	//   load .
; 287  : 	GUILDMARK_MAP::iterator iMark = m_GuildMarksMap.find(guildID);

  00006	8d 45 08	 lea	 eax, DWORD PTR _guildID$[ebp]
  00009	50		 push	 eax
  0000a	8b d9		 mov	 ebx, ecx
  0000c	e8 00 00 00 00	 call	 ??$_M_find@G@?$_Rb_tree@GU?$pair@$$CBGUGUILD_SPRITES@MGuildMarkManager@@@_STL@@U?$_Select1st@U?$pair@$$CBGUGUILD_SPRITES@MGuildMarkManager@@@_STL@@@2@U?$less@G@2@V?$allocator@U?$pair@$$CBGUGUILD_SPRITES@MGuildMarkManager@@@_STL@@@2@@_STL@@ABEPAU?$_Rb_tree_node@U?$pair@$$CBGUGUILD_SPRITES@MGuildMarkManager@@@_STL@@@1@ABG@Z ; _STL::_Rb_tree<unsigned short,_STL::pair<unsigned short const ,MGuildMarkManager::GUILD_SPRITES>,_STL::_Select1st<_STL::pair<unsigned short const ,MGuildMarkManager::GUILD_SPRITES> >,_STL::less<unsigned short>,_STL::allocator<_STL::pair<unsigned short const ,MGuildMarkManager::GUILD_SPRITES> > >::_M_find<unsigned short>

; 288  : 
; 289  : 	if (iMark != m_GuildMarksMap.end())

  00011	3b 03		 cmp	 eax, DWORD PTR [ebx]
  00013	74 04		 je	 SHORT $L106584

; 290  : 	{
; 291  : 		return true;

  00015	b0 01		 mov	 al, 1
  00017	eb 6e		 jmp	 SHORT $L106580
$L106584:
  00019	56		 push	 esi

; 292  : 	}
; 293  : 
; 294  : 	MGuildInfoMapper::const_iterator iMapper = g_pGuildInfoMapper->find( guildID );

  0001a	8b 35 00 00 00
	00		 mov	 esi, DWORD PTR ?g_pGuildInfoMapper@@3PAVMGuildInfoMapper@@A ; g_pGuildInfoMapper
  00020	57		 push	 edi
  00021	8d 45 08	 lea	 eax, DWORD PTR _guildID$[ebp]
  00024	50		 push	 eax
  00025	8b ce		 mov	 ecx, esi
  00027	e8 00 00 00 00	 call	 ??$_M_find@G@?$_Rb_tree@GU?$pair@$$CBGPAVGUILD_INFO@@@_STL@@U?$_Select1st@U?$pair@$$CBGPAVGUILD_INFO@@@_STL@@@2@U?$less@G@2@V?$allocator@U?$pair@$$CBGPAVGUILD_INFO@@@_STL@@@2@@_STL@@ABEPAU?$_Rb_tree_node@U?$pair@$$CBGPAVGUILD_INFO@@@_STL@@@1@ABG@Z ; _STL::_Rb_tree<unsigned short,_STL::pair<unsigned short const ,GUILD_INFO *>,_STL::_Select1st<_STL::pair<unsigned short const ,GUILD_INFO *> >,_STL::less<unsigned short>,_STL::allocator<_STL::pair<unsigned short const ,GUILD_INFO *> > >::_M_find<unsigned short>

; 295  : 
; 296  : 	if (iMapper != g_pGuildInfoMapper->end())

  0002c	3b 06		 cmp	 eax, DWORD PTR [esi]
  0002e	74 3f		 je	 SHORT $L106678

; 297  : 	{
; 298  : 		GUILD_INFO* pInfo		= iMapper->second;

  00030	8b 40 14	 mov	 eax, DWORD PTR [eax+20]

; 299  : 		TYPE_SPRITEID spriteID	= pInfo->GetSpriteID();
; 300  : 
; 301  : 		if(spriteID != GUILDMARK_NULL)
; 302  : 		{
; 303  : 			CSprite &sprite			= m_GuildMarks.Get(spriteID);

  00033	33 ff		 xor	 edi, edi
  00035	66 8b 38	 mov	 di, WORD PTR [eax]
  00038	66 81 ff ff ff	 cmp	 di, 65535		; 0000ffffH
  0003d	74 30		 je	 SHORT $L106678
  0003f	8d 73 0c	 lea	 esi, DWORD PTR [ebx+12]
  00042	8b 06		 mov	 eax, DWORD PTR [esi]
  00044	57		 push	 edi
  00045	8b ce		 mov	 ecx, esi
  00047	ff 50 3c	 call	 DWORD PTR [eax+60]

; 304  : 			CSprite &spriteSmall	= m_GuildMarks.Get(spriteID + 1);
; 305  : 
; 306  : 			m_GuildMarksMap[guildID] = GUILD_SPRITES(&sprite, &spriteSmall);

  0004a	89 45 f8	 mov	 DWORD PTR $T114377[ebp], eax
  0004d	8b 06		 mov	 eax, DWORD PTR [esi]
  0004f	47		 inc	 edi
  00050	57		 push	 edi
  00051	8b ce		 mov	 ecx, esi
  00053	ff 50 3c	 call	 DWORD PTR [eax+60]
  00056	8b f0		 mov	 esi, eax
  00058	8d 45 08	 lea	 eax, DWORD PTR _guildID$[ebp]
  0005b	50		 push	 eax
  0005c	8b cb		 mov	 ecx, ebx
  0005e	e8 00 00 00 00	 call	 ??A?$map@GUGUILD_SPRITES@MGuildMarkManager@@U?$less@G@_STL@@V?$allocator@U?$pair@$$CBGUGUILD_SPRITES@MGuildMarkManager@@@_STL@@@4@@_STL@@QAEAAUGUILD_SPRITES@MGuildMarkManager@@ABG@Z ; _STL::map<unsigned short,MGuildMarkManager::GUILD_SPRITES,_STL::less<unsigned short>,_STL::allocator<_STL::pair<unsigned short const ,MGuildMarkManager::GUILD_SPRITES> > >::operator[]
  00063	8b 4d f8	 mov	 ecx, DWORD PTR $T114377[ebp]
  00066	89 08		 mov	 DWORD PTR [eax], ecx
  00068	89 70 04	 mov	 DWORD PTR [eax+4], esi

; 307  : 
; 308  : 			return true;

  0006b	b0 01		 mov	 al, 1
  0006d	eb 16		 jmp	 SHORT $L114469
$L106678:

; 309  : 		}
; 310  : 	}
; 311  : 
; 312  : 
; 313  : 
; 314  : 	/*
; 315  : 	MGuildInfoMapper::const_iterator iMapper = g_pGuildInfoMapper->find( guildID );
; 316  : 
; 317  : 	if (iMapper!=g_pGuildInfoMapper->end())
; 318  : 	{
; 319  : 		GUILD_INFO* pInfo		= iMapper->second;
; 320  : 		TYPE_SPRITEID spriteID	= pInfo->GetSpriteID();
; 321  : 
; 322  : 		//---------------------------------------------------------
; 323  : 		// file ..
; 324  : 		//---------------------------------------------------------
; 325  : 		char spkiFilename[256];
; 326  : 
; 327  : 		// filename.spki
; 328  : 		strcpy(spkiFilename, m_GuildMarkSPKFilename.GetString());
; 329  : 		strcat(spkiFilename, "i");
; 330  : 
; 331  : 		TYPE_SPRITEID maxSpkSize = 0;
; 332  : 
; 333  : 		ivfstream spkFile(m_GuildMarkSPKFilename.GetString(), std::ios::binary);
; 334  : 		ivfstream spkiFile(spkiFilename, std::ios::binary);
; 335  : 
; 336  : 		if (spkFile.is_open() && spkiFile.is_open())
; 337  : 		{	
; 338  : 			//---------------------------------------------------------
; 339  : 			// Sprite  .
; 340  : 			//---------------------------------------------------------
; 341  : 			spkiFile.seekg( 0, std::ios::beg );
; 342  : 			spkiFile.read((char*)&maxSpkSize, 2);			
; 343  : 
; 344  : 			if (spriteID < maxSpkSize)	// spriteID
; 345  : 			{
; 346  : 				long fp = 0;
; 347  : 
; 348  : 				//-----------------------------------------------------
; 349  : 				//   
; 350  : 				//-----------------------------------------------------
; 351  : 				spkiFile.seekg( 2 + spriteID*sizeof(long), std::ios::beg );
; 352  : 				spkiFile.read((char*)&fp, 4);				
; 353  : 				spkiFile.close();
; 354  : 
; 355  : 				spkFile.seekg( fp, std::ios::beg );
; 356  : 
; 357  : 				//-----------------------------------------------------
; 358  : 				// CSprite
; 359  : 				//-----------------------------------------------------
; 360  : 				CSprite* pSprite = NULL;
; 361  : 				CSprite* pSpriteSmall = NULL;
; 362  : 
; 363  : 				if (CDirectDraw::Is565())
; 364  : 				{
; 365  : 					pSprite = new CSprite565;
; 366  : 					pSpriteSmall = new CSprite565;
; 367  : 				}
; 368  : 				else
; 369  : 				{
; 370  : 					pSprite = new CSprite555;
; 371  : 					pSpriteSmall = new CSprite555;
; 372  : 				}
; 373  : 
; 374  : 				//-----------------------------------------------------
; 375  : 				// Load  
; 376  : 				//-----------------------------------------------------
; 377  : 				pSprite->LoadFromFile( spkFile );
; 378  : 				pSpriteSmall->LoadFromFile( spkFile );	
; 379  : 				
; 380  : 				spkFile.close();
; 381  : 
; 382  : 				m_GuildMarksMap[guildID] = GUILD_SPRITES( pSprite, pSpriteSmall );
; 383  : 
; 384  : 				return true;
; 385  : 			}
; 386  : 		}		
; 387  : 	}
; 388  : 	*/
; 389  : 
; 390  : 	//   ..
; 391  : 	//   NULL .
; 392  : 	m_GuildMarksMap[guildID] = GUILD_SPRITES( NULL, NULL );

  0006f	8d 45 08	 lea	 eax, DWORD PTR _guildID$[ebp]
  00072	50		 push	 eax
  00073	8b cb		 mov	 ecx, ebx
  00075	33 f6		 xor	 esi, esi
  00077	33 ff		 xor	 edi, edi
  00079	e8 00 00 00 00	 call	 ??A?$map@GUGUILD_SPRITES@MGuildMarkManager@@U?$less@G@_STL@@V?$allocator@U?$pair@$$CBGUGUILD_SPRITES@MGuildMarkManager@@@_STL@@@4@@_STL@@QAEAAUGUILD_SPRITES@MGuildMarkManager@@ABG@Z ; _STL::map<unsigned short,MGuildMarkManager::GUILD_SPRITES,_STL::less<unsigned short>,_STL::allocator<_STL::pair<unsigned short const ,MGuildMarkManager::GUILD_SPRITES> > >::operator[]
  0007e	89 30		 mov	 DWORD PTR [eax], esi
  00080	89 78 04	 mov	 DWORD PTR [eax+4], edi

; 393  : 
; 394  : 	return false;

  00083	32 c0		 xor	 al, al
$L114469:
  00085	5f		 pop	 edi
  00086	5e		 pop	 esi
$L106580:
  00087	5b		 pop	 ebx

; 395  : }

  00088	c9		 leave
  00089	c2 04 00	 ret	 4
?LoadGuildMark@MGuildMarkManager@@QAE_NG@Z ENDP		; MGuildMarkManager::LoadGuildMark
_TEXT	ENDS
PUBLIC	??0iovfs_base@@QAE@XZ				; iovfs_base::iovfs_base
PUBLIC	??1iovfs_base@@UAE@XZ				; iovfs_base::~iovfs_base
PUBLIC	?open@ivfstream@@UAEXPBDH@Z			; ivfstream::open
PUBLIC	?insert_unique@?$_Rb_tree@GU?$pair@$$CBGPAVivfstream@@@_STL@@U?$_Select1st@U?$pair@$$CBGPAVivfstream@@@_STL@@@2@U?$less@G@2@V?$allocator@U?$pair@$$CBGPAVivfstream@@@_STL@@@2@@_STL@@QAE?AU?$pair@U?$_Rb_tree_iterator@U?$pair@$$CBGPAVivfstream@@@_STL@@U?$_Nonconst_traits@U?$pair@$$CBGPAVivfstream@@@_STL@@@2@@_STL@@_N@2@ABU?$pair@$$CBGPAVivfstream@@@2@@Z ; _STL::_Rb_tree<unsigned short,_STL::pair<unsigned short const ,ivfstream *>,_STL::_Select1st<_STL::pair<unsigned short const ,ivfstream *> >,_STL::less<unsigned short>,_STL::allocator<_STL::pair<unsigned short const ,ivfstream *> > >::insert_unique
PUBLIC	??_7ivfstream@@6B@				; ivfstream::`vftable'
PUBLIC	??_Givfstream@@UAEPAXI@Z			; ivfstream::`scalar deleting destructor'
PUBLIC	??_R1A@?0A@A@iovfs_base@@8			; iovfs_base::`RTTI Base Class Descriptor at (0,-1,0,0)'
PUBLIC	??_R0?AViovfs_base@@@8				; iovfs_base `RTTI Type Descriptor'
PUBLIC	??_R4ivfstream@@6B@				; ivfstream::`RTTI Complete Object Locator'
PUBLIC	??_R0?AVivfstream@@@8				; ivfstream `RTTI Type Descriptor'
PUBLIC	??_R3ivfstream@@8				; ivfstream::`RTTI Class Hierarchy Descriptor'
PUBLIC	??_R2ivfstream@@8				; ivfstream::`RTTI Base Class Array'
PUBLIC	??_R1A@?0A@A@ivfstream@@8			; ivfstream::`RTTI Base Class Descriptor at (0,-1,0,0)'
EXTRN	?open@iovfs_base@@UAEXPBDH@Z:NEAR		; iovfs_base::open
EXTRN	??_Eivfstream@@UAEPAXI@Z:NEAR			; ivfstream::`vector deleting destructor'
;	COMDAT xdata$x
; File c:\darkeden\designed_common\project\client\virtualfilesystem\vfstream.inl
xdata$x	SEGMENT
$T114660 DD	0ffffffffH
	DD	FLAT:$L114490
	DD	00H
	DD	FLAT:$L114539
$T114641 DD	019930520H
	DD	02H
	DD	FLAT:$T114660
	DD	2 DUP(00H)
	DD	2 DUP(00H)
xdata$x	ENDS
;	COMDAT ??_7ivfstream@@6B@
CONST	SEGMENT
??_7ivfstream@@6B@ DD FLAT:??_R4ivfstream@@6B@		; ivfstream::`vftable'
	DD	FLAT:??_Eivfstream@@UAEPAXI@Z
	DD	FLAT:?open@ivfstream@@UAEXPBDH@Z
CONST	ENDS
;	COMDAT ??_R4ivfstream@@6B@
rdata$r	SEGMENT
??_R4ivfstream@@6B@ DD 00H				; ivfstream::`RTTI Complete Object Locator'
	DD	00H
	DD	00H
	DD	FLAT:??_R0?AVivfstream@@@8
	DD	FLAT:??_R3ivfstream@@8
rdata$r	ENDS
;	COMDAT ??_R0?AVivfstream@@@8
_DATA	SEGMENT
??_R0?AVivfstream@@@8 DD FLAT:??_7type_info@@6B@	; ivfstream `RTTI Type Descriptor'
	DD	00H
	DB	'.?AVivfstream@@', 00H
_DATA	ENDS
;	COMDAT ??_R3ivfstream@@8
rdata$r	SEGMENT
??_R3ivfstream@@8 DD 00H				; ivfstream::`RTTI Class Hierarchy Descriptor'
	DD	00H
	DD	02H
	DD	FLAT:??_R2ivfstream@@8
rdata$r	ENDS
;	COMDAT ??_R2ivfstream@@8
rdata$r	SEGMENT
??_R2ivfstream@@8 DD FLAT:??_R1A@?0A@A@ivfstream@@8	; ivfstream::`RTTI Base Class Array'
	DD	FLAT:??_R1A@?0A@A@iovfs_base@@8
rdata$r	ENDS
;	COMDAT ??_R1A@?0A@A@ivfstream@@8
rdata$r	SEGMENT
??_R1A@?0A@A@ivfstream@@8 DD FLAT:??_R0?AVivfstream@@@8	; ivfstream::`RTTI Base Class Descriptor at (0,-1,0,0)'
	DD	01H
	DD	00H
	DD	0ffffffffH
	DD	00H
	DD	00H
rdata$r	ENDS
;	COMDAT ??_R1A@?0A@A@iovfs_base@@8
rdata$r	SEGMENT
??_R1A@?0A@A@iovfs_base@@8 DD FLAT:??_R0?AViovfs_base@@@8 ; iovfs_base::`RTTI Base Class Descriptor at (0,-1,0,0)'
	DD	00H
	DD	00H
	DD	0ffffffffH
	DD	00H
	DD	00H
rdata$r	ENDS
;	COMDAT ??_R0?AViovfs_base@@@8
_DATA	SEGMENT
??_R0?AViovfs_base@@@8 DD FLAT:??_7type_info@@6B@	; iovfs_base `RTTI Type Descriptor'
	DD	00H
	DB	'.?AViovfs_base@@', 00H
; Function compile flags: /Ogsy
; File c:\darkeden\designed_common\project\client\spritelib\ctypepack.h
_DATA	ENDS
;	COMDAT ?Get@?$CTypePack2@VCSprite@@VCSprite555@@VCSprite565@@@@UAEAAVCSprite@@G@Z
_TEXT	SEGMENT
$T114487 = -304						; size = 8
$T114477 = -300						; size = 4
$T114489 = -296						; size = 8
$T114474 = -292						; size = 2
_pos$107619 = -292					; size = 4
_unitSize$107648 = -288					; size = 2
_fileIdx$107584 = -284					; size = 4
tv511 = -280						; size = 4
tv421 = -280						; size = 4
_i$107653 = -280					; size = 4
_fileName$107643 = -276					; size = 260
__$ArrayPad$ = -16					; size = 4
__$EHRec$ = -12						; size = 12
__$ReturnAddr$ = 4					; size = 4
_n$ = 8							; size = 2
?Get@?$CTypePack2@VCSprite@@VCSprite555@@VCSprite565@@@@UAEAAVCSprite@@G@Z PROC NEAR ; CTypePack2<CSprite,CSprite555,CSprite565>::Get, COMDAT
; _this$ = ecx

; 936  : {

  00000	b8 00 00 00 00	 mov	 eax, __ehhandler$?Get@?$CTypePack2@VCSprite@@VCSprite555@@VCSprite565@@@@UAEAAVCSprite@@G@Z
  00005	e8 00 00 00 00	 call	 __EH_prolog
  0000a	81 ec 24 01 00
	00		 sub	 esp, 292		; 00000124H
  00010	a1 00 00 00 00	 mov	 eax, DWORD PTR ___security_cookie
  00015	53		 push	 ebx
  00016	56		 push	 esi
  00017	8b f1		 mov	 esi, ecx

; 937  : 	if(m_bRunningLoad && !m_pData[n].IsInit())

  00019	80 7e 0a 00	 cmp	 BYTE PTR [esi+10], 0
  0001d	89 45 f0	 mov	 DWORD PTR __$ArrayPad$[ebp], eax
  00020	57		 push	 edi
  00021	0f 84 41 02 00
	00		 je	 $L114651
  00027	0f b7 5d 08	 movzx	 ebx, WORD PTR _n$[ebp]
  0002b	8b 46 04	 mov	 eax, DWORD PTR [esi+4]
  0002e	8b fb		 mov	 edi, ebx
  00030	c1 e7 04	 shl	 edi, 4
  00033	80 7c 38 0c 00	 cmp	 BYTE PTR [eax+edi+12], 0
  00038	89 bd e8 fe ff
	ff		 mov	 DWORD PTR tv421[ebp], edi
  0003e	0f 85 24 02 00
	00		 jne	 $L114651

; 938  : 	{
; 939  : 		// file  Sprite Load
; 940  : 		if(m_bSplitFile)

  00044	80 7e 14 00	 cmp	 BYTE PTR [esi+20], 0
  00048	0f 84 f1 01 00
	00		 je	 $L107583

; 941  : 		{
; 942  : 			int fileIdx = GetSplitFile(n);

  0004e	6a 00		 push	 0
  00050	53		 push	 ebx
  00051	e8 00 00 00 00	 call	 ?GetSplitFile@?$CTypePack2@VCSprite@@VCSprite555@@VCSprite565@@@@IAEHHPAD@Z ; CTypePack2<CSprite,CSprite555,CSprite565>::GetSplitFile
  00056	89 85 e4 fe ff
	ff		 mov	 DWORD PTR _fileIdx$107584[ebp], eax

; 943  : 
; 944  : 			FILECACHE_MAP::iterator pos = m_FileCacheMap.find(fileIdx);

  0005c	89 85 dc fe ff
	ff		 mov	 DWORD PTR $T114474[ebp], eax
  00062	8d 85 dc fe ff
	ff		 lea	 eax, DWORD PTR $T114474[ebp]
  00068	8d 7e 38	 lea	 edi, DWORD PTR [esi+56]
  0006b	50		 push	 eax
  0006c	8b cf		 mov	 ecx, edi
  0006e	e8 00 00 00 00	 call	 ??$_M_find@G@?$_Rb_tree@GU?$pair@$$CBGPAVivfstream@@@_STL@@U?$_Select1st@U?$pair@$$CBGPAVivfstream@@@_STL@@@2@U?$less@G@2@V?$allocator@U?$pair@$$CBGPAVivfstream@@@_STL@@@2@@_STL@@ABEPAU?$_Rb_tree_node@U?$pair@$$CBGPAVivfstream@@@_STL@@@1@ABG@Z ; _STL::_Rb_tree<unsigned short,_STL::pair<unsigned short const ,ivfstream *>,_STL::_Select1st<_STL::pair<unsigned short const ,ivfstream *> >,_STL::less<unsigned short>,_STL::allocator<_STL::pair<unsigned short const ,ivfstream *> > >::_M_find<unsigned short>

; 945  : 
; 946  : 			ivfstream *pFile = NULL;
; 947  : 			
; 948  : 			//     .
; 949  : 			if(pos != m_FileCacheMap.end())

  00073	8b 3f		 mov	 edi, DWORD PTR [edi]
  00075	3b c7		 cmp	 eax, edi
  00077	89 85 dc fe ff
	ff		 mov	 DWORD PTR _pos$107619[ebp], eax
  0007d	74 05		 je	 SHORT $L107624

; 950  : 			{
; 951  : 				pFile = pos->second;

  0007f	8b 78 14	 mov	 edi, DWORD PTR [eax+20]

; 952  : 			}
; 953  : 			//    .
; 954  : 			else

  00082	eb 50		 jmp	 SHORT $L107642
$L107624:

; 955  : 			{
; 956  : 				char fileName[MAX_PATH];
; 957  : 				GetSplitFile(n, fileName);

  00084	8d 85 ec fe ff
	ff		 lea	 eax, DWORD PTR _fileName$107643[ebp]
  0008a	50		 push	 eax
  0008b	53		 push	 ebx
  0008c	8b ce		 mov	 ecx, esi
  0008e	e8 00 00 00 00	 call	 ?GetSplitFile@?$CTypePack2@VCSprite@@VCSprite555@@VCSprite565@@@@IAEHHPAD@Z ; CTypePack2<CSprite,CSprite555,CSprite565>::GetSplitFile

; 958  : 				pFile = new ivfstream(fileName, std::ios_base::binary);

  00093	6a 50		 push	 80			; 00000050H
  00095	e8 00 00 00 00	 call	 ??2@YAPAXI@Z		; operator new
  0009a	8b f8		 mov	 edi, eax
  0009c	59		 pop	 ecx
  0009d	89 bd d4 fe ff
	ff		 mov	 DWORD PTR $T114477[ebp], edi
  000a3	83 65 fc 00	 and	 DWORD PTR __$EHRec$[ebp+8], 0
  000a7	85 ff		 test	 edi, edi
  000a9	74 23		 je	 SHORT $L114478
  000ab	8b cf		 mov	 ecx, edi
  000ad	e8 00 00 00 00	 call	 ??0iovfs_base@@QAE@XZ	; iovfs_base::iovfs_base
  000b2	6a 0c		 push	 12			; 0000000cH
  000b4	8d 85 ec fe ff
	ff		 lea	 eax, DWORD PTR _fileName$107643[ebp]
  000ba	50		 push	 eax
  000bb	8b cf		 mov	 ecx, edi
  000bd	c6 45 fc 01	 mov	 BYTE PTR __$EHRec$[ebp+8], 1
  000c1	c7 07 00 00 00
	00		 mov	 DWORD PTR [edi], OFFSET FLAT:??_7ivfstream@@6B@
  000c7	e8 00 00 00 00	 call	 ?open@iovfs_base@@UAEXPBDH@Z ; iovfs_base::open
  000cc	eb 02		 jmp	 SHORT $L114479
$L114478:
  000ce	33 ff		 xor	 edi, edi
$L114479:
  000d0	83 4d fc ff	 or	 DWORD PTR __$EHRec$[ebp+8], -1
$L107642:

; 959  : 			}
; 960  : 
; 961  : 			WORD unitSize = 0;

  000d4	33 c0		 xor	 eax, eax
  000d6	89 85 e0 fe ff
	ff		 mov	 DWORD PTR _unitSize$107648[ebp], eax

; 962  : 
; 963  : 			pFile->seekg(0);

  000dc	39 47 04	 cmp	 DWORD PTR [edi+4], eax
  000df	74 0b		 je	 SHORT $L114648
  000e1	8b 4f 04	 mov	 ecx, DWORD PTR [edi+4]
  000e4	8b 11		 mov	 edx, DWORD PTR [ecx]
  000e6	6a 01		 push	 1
  000e8	50		 push	 eax
  000e9	ff 52 18	 call	 DWORD PTR [edx+24]
$L114648:

; 964  : 			pFile->read((char *)&unitSize, 2);

  000ec	83 7f 04 00	 cmp	 DWORD PTR [edi+4], 0
  000f0	74 11		 je	 SHORT $L114556
  000f2	8b 4f 04	 mov	 ecx, DWORD PTR [edi+4]
  000f5	8b 01		 mov	 eax, DWORD PTR [ecx]
  000f7	6a 02		 push	 2
  000f9	8d 95 e0 fe ff
	ff		 lea	 edx, DWORD PTR _unitSize$107648[ebp]
  000ff	52		 push	 edx
  00100	ff 50 10	 call	 DWORD PTR [eax+16]
$L114556:

; 965  : 
; 966  : 			//    
; 967  : 			if(m_file_index)

  00103	33 c0		 xor	 eax, eax
  00105	39 46 10	 cmp	 DWORD PTR [esi+16], eax
  00108	74 37		 je	 SHORT $L107650

; 968  : 			{
; 969  : 				//   .
; 970  : 				int offset = m_file_index[n] - m_file_index[fileIdx];
; 971  : 
; 972  : 				// 2   
; 973  : 				pFile->seekg(offset + 2);

  0010a	39 47 04	 cmp	 DWORD PTR [edi+4], eax
  0010d	74 1f		 je	 SHORT $L114652
  0010f	8b 4e 10	 mov	 ecx, DWORD PTR [esi+16]
  00112	8b 14 99	 mov	 edx, DWORD PTR [ecx+ebx*4]
  00115	8b 9d e4 fe ff
	ff		 mov	 ebx, DWORD PTR _fileIdx$107584[ebp]
  0011b	2b 14 99	 sub	 edx, DWORD PTR [ecx+ebx*4]
  0011e	8b 47 04	 mov	 eax, DWORD PTR [edi+4]
  00121	8b 00		 mov	 eax, DWORD PTR [eax]
  00123	8b 4f 04	 mov	 ecx, DWORD PTR [edi+4]
  00126	42		 inc	 edx
  00127	6a 01		 push	 1
  00129	42		 inc	 edx
  0012a	52		 push	 edx
  0012b	ff 50 18	 call	 DWORD PTR [eax+24]
$L114652:

; 974  : 				
; 975  : 				m_pData[n].LoadFromFile(*pFile);

  0012e	8b 46 04	 mov	 eax, DWORD PTR [esi+4]
  00131	8b 8d e8 fe ff
	ff		 mov	 ecx, DWORD PTR tv421[ebp]
  00137	03 c8		 add	 ecx, eax
  00139	8b 01		 mov	 eax, DWORD PTR [ecx]
  0013b	57		 push	 edi
  0013c	ff 50 04	 call	 DWORD PTR [eax+4]

; 976  : 			}
; 977  : 			//    
; 978  : 			else

  0013f	eb 65		 jmp	 SHORT $L114650
$L107650:

; 979  : 			{
; 980  : 				//    
; 981  : 				pFile->seekg(2);

  00141	39 47 04	 cmp	 DWORD PTR [edi+4], eax
  00144	74 0c		 je	 SHORT $L114653
  00146	8b 4f 04	 mov	 ecx, DWORD PTR [edi+4]
  00149	8b 01		 mov	 eax, DWORD PTR [ecx]
  0014b	6a 01		 push	 1
  0014d	6a 02		 push	 2
  0014f	ff 50 18	 call	 DWORD PTR [eax+24]
$L114653:

; 982  : 
; 983  : 				for(register int i = 0; i < unitSize && fileIdx + i < m_Size; ++i)

  00152	83 a5 e8 fe ff
	ff 00		 and	 DWORD PTR _i$107653[ebp], 0
  00159	66 83 bd e0 fe
	ff ff 00	 cmp	 WORD PTR _unitSize$107648[ebp], 0
  00161	76 43		 jbe	 SHORT $L114650
  00163	8b 9d e4 fe ff
	ff		 mov	 ebx, DWORD PTR _fileIdx$107584[ebp]
  00169	c1 e3 04	 shl	 ebx, 4
$L114649:
  0016c	8b 85 e4 fe ff
	ff		 mov	 eax, DWORD PTR _fileIdx$107584[ebp]
  00172	8b 8d e8 fe ff
	ff		 mov	 ecx, DWORD PTR _i$107653[ebp]
  00178	03 c8		 add	 ecx, eax
  0017a	0f b7 46 08	 movzx	 eax, WORD PTR [esi+8]
  0017e	3b c8		 cmp	 ecx, eax
  00180	7d 24		 jge	 SHORT $L114650

; 984  : 				{
; 985  : 					m_pData[fileIdx + i].LoadFromFile(*pFile);

  00182	8b 46 04	 mov	 eax, DWORD PTR [esi+4]
  00185	8d 0c 03	 lea	 ecx, DWORD PTR [ebx+eax]
  00188	8b 01		 mov	 eax, DWORD PTR [ecx]
  0018a	57		 push	 edi
  0018b	ff 50 04	 call	 DWORD PTR [eax+4]
  0018e	0f b7 85 e0 fe
	ff ff		 movzx	 eax, WORD PTR _unitSize$107648[ebp]
  00195	ff 85 e8 fe ff
	ff		 inc	 DWORD PTR _i$107653[ebp]
  0019b	83 c3 10	 add	 ebx, 16			; 00000010H
  0019e	39 85 e8 fe ff
	ff		 cmp	 DWORD PTR _i$107653[ebp], eax
  001a4	7c c6		 jl	 SHORT $L114649
$L114650:

; 986  : 				}
; 987  : 			}
; 988  : 
; 989  : 			bool bLoadComplete = true;
; 990  : 			
; 991  : 			for(register int i = 0; i < unitSize && fileIdx + i < m_Size; ++i)

  001a6	0f b7 85 e0 fe
	ff ff		 movzx	 eax, WORD PTR _unitSize$107648[ebp]
  001ad	33 c9		 xor	 ecx, ecx
  001af	85 c0		 test	 eax, eax
  001b1	89 85 e8 fe ff
	ff		 mov	 DWORD PTR tv511[ebp], eax
  001b7	7e 2f		 jle	 SHORT $L114657
  001b9	8b 85 e4 fe ff
	ff		 mov	 eax, DWORD PTR _fileIdx$107584[ebp]
  001bf	0f b7 56 08	 movzx	 edx, WORD PTR [esi+8]
  001c3	c1 e0 04	 shl	 eax, 4
$L114656:
  001c6	8b 9d e4 fe ff
	ff		 mov	 ebx, DWORD PTR _fileIdx$107584[ebp]
  001cc	03 d9		 add	 ebx, ecx
  001ce	3b da		 cmp	 ebx, edx
  001d0	7d 16		 jge	 SHORT $L114657

; 992  : 			{
; 993  : 				if(!m_pData[fileIdx + i].IsInit())

  001d2	8b 5e 04	 mov	 ebx, DWORD PTR [esi+4]
  001d5	80 7c 18 0c 00	 cmp	 BYTE PTR [eax+ebx+12], 0
  001da	74 2d		 je	 SHORT $L107663
  001dc	41		 inc	 ecx
  001dd	83 c0 10	 add	 eax, 16			; 00000010H
  001e0	3b 8d e8 fe ff
	ff		 cmp	 ecx, DWORD PTR tv511[ebp]
  001e6	7c de		 jl	 SHORT $L114656
$L114657:

; 994  : 				{
; 995  : 					bLoadComplete = false;
; 996  : 					break;
; 997  : 				}
; 998  : 			}
; 999  : 
; 1000 : 			if(bLoadComplete)
; 1001 : 			{
; 1002 : 				delete pFile;

  001e8	8b 07		 mov	 eax, DWORD PTR [edi]
  001ea	6a 01		 push	 1
  001ec	8b cf		 mov	 ecx, edi
  001ee	ff 10		 call	 DWORD PTR [eax]

; 1003 : 
; 1004 : 				if(pos != m_FileCacheMap.end())

  001f0	8b 85 dc fe ff
	ff		 mov	 eax, DWORD PTR _pos$107619[ebp]
  001f6	8d 4e 38	 lea	 ecx, DWORD PTR [esi+56]
  001f9	3b 01		 cmp	 eax, DWORD PTR [ecx]
  001fb	74 6b		 je	 SHORT $L114651

; 1005 : 					m_FileCacheMap.erase(pos);

  001fd	51		 push	 ecx
  001fe	8b d4		 mov	 edx, esp
  00200	89 02		 mov	 DWORD PTR [edx], eax
  00202	e8 00 00 00 00	 call	 ?erase@?$_Rb_tree@GU?$pair@$$CBGPAVivfstream@@@_STL@@U?$_Select1st@U?$pair@$$CBGPAVivfstream@@@_STL@@@2@U?$less@G@2@V?$allocator@U?$pair@$$CBGPAVivfstream@@@_STL@@@2@@_STL@@QAEXU?$_Rb_tree_iterator@U?$pair@$$CBGPAVivfstream@@@_STL@@U?$_Nonconst_traits@U?$pair@$$CBGPAVivfstream@@@_STL@@@2@@2@@Z ; _STL::_Rb_tree<unsigned short,_STL::pair<unsigned short const ,ivfstream *>,_STL::_Select1st<_STL::pair<unsigned short const ,ivfstream *> >,_STL::less<unsigned short>,_STL::allocator<_STL::pair<unsigned short const ,ivfstream *> > >::erase

; 1006 : 			}
; 1007 : 			else

  00207	eb 5f		 jmp	 SHORT $L114651
$L107663:

; 1008 : 			{
; 1009 : 				if(pos == m_FileCacheMap.end())

  00209	8b 85 dc fe ff
	ff		 mov	 eax, DWORD PTR _pos$107619[ebp]
  0020f	8d 4e 38	 lea	 ecx, DWORD PTR [esi+56]
  00212	3b 01		 cmp	 eax, DWORD PTR [ecx]
  00214	75 52		 jne	 SHORT $L114651

; 1010 : 					m_FileCacheMap.insert(FILECACHE_MAP::value_type(fileIdx, pFile));

  00216	66 8b 85 e4 fe
	ff ff		 mov	 ax, WORD PTR _fileIdx$107584[ebp]
  0021d	66 89 85 d0 fe
	ff ff		 mov	 WORD PTR $T114487[ebp], ax
  00224	8d 85 d0 fe ff
	ff		 lea	 eax, DWORD PTR $T114487[ebp]
  0022a	50		 push	 eax
  0022b	8d 85 d8 fe ff
	ff		 lea	 eax, DWORD PTR $T114489[ebp]
  00231	50		 push	 eax
  00232	89 bd d4 fe ff
	ff		 mov	 DWORD PTR $T114487[ebp+4], edi
  00238	e8 00 00 00 00	 call	 ?insert_unique@?$_Rb_tree@GU?$pair@$$CBGPAVivfstream@@@_STL@@U?$_Select1st@U?$pair@$$CBGPAVivfstream@@@_STL@@@2@U?$less@G@2@V?$allocator@U?$pair@$$CBGPAVivfstream@@@_STL@@@2@@_STL@@QAE?AU?$pair@U?$_Rb_tree_iterator@U?$pair@$$CBGPAVivfstream@@@_STL@@U?$_Nonconst_traits@U?$pair@$$CBGPAVivfstream@@@_STL@@@2@@_STL@@_N@2@ABU?$pair@$$CBGPAVivfstream@@@2@@Z ; _STL::_Rb_tree<unsigned short,_STL::pair<unsigned short const ,ivfstream *>,_STL::_Select1st<_STL::pair<unsigned short const ,ivfstream *> >,_STL::less<unsigned short>,_STL::allocator<_STL::pair<unsigned short const ,ivfstream *> > >::insert_unique

; 1011 : 			}
; 1012 : 		}
; 1013 : 		else

  0023d	eb 29		 jmp	 SHORT $L114651
$L107583:

; 1014 : 		{
; 1015 : 			m_file->seekg(m_file_index[n]);

  0023f	8b 46 0c	 mov	 eax, DWORD PTR [esi+12]
  00242	83 78 04 00	 cmp	 DWORD PTR [eax+4], 0
  00246	74 12		 je	 SHORT $L114636
  00248	8b 4e 10	 mov	 ecx, DWORD PTR [esi+16]
  0024b	8b 40 04	 mov	 eax, DWORD PTR [eax+4]
  0024e	8b 10		 mov	 edx, DWORD PTR [eax]
  00250	6a 01		 push	 1
  00252	ff 34 99	 push	 DWORD PTR [ecx+ebx*4]
  00255	8b c8		 mov	 ecx, eax
  00257	ff 52 18	 call	 DWORD PTR [edx+24]
$L114636:

; 1016 : 			m_pData[n].LoadFromFile(*m_file);	// Sprite 

  0025a	8b 46 04	 mov	 eax, DWORD PTR [esi+4]
  0025d	ff 76 0c	 push	 DWORD PTR [esi+12]
  00260	8d 0c 38	 lea	 ecx, DWORD PTR [eax+edi]
  00263	8b 01		 mov	 eax, DWORD PTR [ecx]
  00265	ff 50 04	 call	 DWORD PTR [eax+4]
$L114651:

; 1017 : 		}
; 1018 : 	}
; 1019 : 	
; 1020 : 	return m_pData[n];

  00268	0f b7 45 08	 movzx	 eax, WORD PTR _n$[ebp]

; 1021 : }

  0026c	8b 4d f4	 mov	 ecx, DWORD PTR __$EHRec$[ebp]
  0026f	c1 e0 04	 shl	 eax, 4
  00272	03 46 04	 add	 eax, DWORD PTR [esi+4]
  00275	64 89 0d 00 00
	00 00		 mov	 DWORD PTR fs:__except_list, ecx
  0027c	8b 4d f0	 mov	 ecx, DWORD PTR __$ArrayPad$[ebp]
  0027f	e8 00 00 00 00	 call	 @__security_check_cookie@4
  00284	5f		 pop	 edi
  00285	5e		 pop	 esi
  00286	5b		 pop	 ebx
  00287	c9		 leave
  00288	c2 04 00	 ret	 4
_TEXT	ENDS
;	COMDAT text$x
text$x	SEGMENT
$L114490:
  00000	ff b5 d4 fe ff
	ff		 push	 DWORD PTR $T114477[ebp]
  00006	e8 00 00 00 00	 call	 ??3@YAXPAX@Z		; operator delete
  0000b	59		 pop	 ecx
  0000c	c3		 ret	 0
$L114539:
  0000d	8b 8d d4 fe ff
	ff		 mov	 ecx, DWORD PTR $T114477[ebp]
  00013	e9 00 00 00 00	 jmp	 ??1iovfs_base@@UAE@XZ	; iovfs_base::~iovfs_base
__ehhandler$?Get@?$CTypePack2@VCSprite@@VCSprite555@@VCSprite565@@@@UAEAAVCSprite@@G@Z:
  00018	b8 00 00 00 00	 mov	 eax, OFFSET FLAT:$T114641
  0001d	e9 00 00 00 00	 jmp	 ___CxxFrameHandler
text$x	ENDS
?Get@?$CTypePack2@VCSprite@@VCSprite555@@VCSprite565@@@@UAEAAVCSprite@@G@Z ENDP ; CTypePack2<CSprite,CSprite555,CSprite565>::Get
; Function compile flags: /Ogsy
; File c:\darkeden\designed_common\project\client\virtualfilesystem\vfstream.inl
;	COMDAT ?open@ivfstream@@UAEXPBDH@Z
_TEXT	SEGMENT
_szName$ = 8						; size = 4
_nMode$ = 12						; size = 4
?open@ivfstream@@UAEXPBDH@Z PROC NEAR			; ivfstream::open, COMDAT
; _this$ = ecx

; 76   : 	iovfs_base::open(szName, nMode | std::ios_base::in);

  00000	8b 44 24 08	 mov	 eax, DWORD PTR _nMode$[esp-4]
  00004	83 c8 08	 or	 eax, 8
  00007	50		 push	 eax
  00008	ff 74 24 08	 push	 DWORD PTR _szName$[esp]
  0000c	e8 00 00 00 00	 call	 ?open@iovfs_base@@UAEXPBDH@Z ; iovfs_base::open

; 77   : }

  00011	c2 08 00	 ret	 8
?open@ivfstream@@UAEXPBDH@Z ENDP			; ivfstream::open
_TEXT	ENDS
PUBLIC	?_M_insert@?$_Rb_tree@GU?$pair@$$CBGPAVivfstream@@@_STL@@U?$_Select1st@U?$pair@$$CBGPAVivfstream@@@_STL@@@2@U?$less@G@2@V?$allocator@U?$pair@$$CBGPAVivfstream@@@_STL@@@2@@_STL@@AAE?AU?$_Rb_tree_iterator@U?$pair@$$CBGPAVivfstream@@@_STL@@U?$_Nonconst_traits@U?$pair@$$CBGPAVivfstream@@@_STL@@@2@@2@PAU_Rb_tree_node_base@2@0ABU?$pair@$$CBGPAVivfstream@@@2@0@Z ; _STL::_Rb_tree<unsigned short,_STL::pair<unsigned short const ,ivfstream *>,_STL::_Select1st<_STL::pair<unsigned short const ,ivfstream *> >,_STL::less<unsigned short>,_STL::allocator<_STL::pair<unsigned short const ,ivfstream *> > >::_M_insert
; Function compile flags: /Ogsy
; File c:\stlport-4.6.1\stlport\stl\_tree.c
;	COMDAT ?insert_unique@?$_Rb_tree@GU?$pair@$$CBGPAVivfstream@@@_STL@@U?$_Select1st@U?$pair@$$CBGPAVivfstream@@@_STL@@@2@U?$less@G@2@V?$allocator@U?$pair@$$CBGPAVivfstream@@@_STL@@@2@@_STL@@QAE?AU?$pair@U?$_Rb_tree_iterator@U?$pair@$$CBGPAVivfstream@@@_STL@@U?$_Nonconst_traits@U?$pair@$$CBGPAVivfstream@@@_STL@@@2@@_STL@@_N@2@ABU?$pair@$$CBGPAVivfstream@@@2@@Z
_TEXT	SEGMENT
___$ReturnUdt$ = 8					; size = 4
$T114676 = 12						; size = 4
___v$ = 12						; size = 4
?insert_unique@?$_Rb_tree@GU?$pair@$$CBGPAVivfstream@@@_STL@@U?$_Select1st@U?$pair@$$CBGPAVivfstream@@@_STL@@@2@U?$less@G@2@V?$allocator@U?$pair@$$CBGPAVivfstream@@@_STL@@@2@@_STL@@QAE?AU?$pair@U?$_Rb_tree_iterator@U?$pair@$$CBGPAVivfstream@@@_STL@@U?$_Nonconst_traits@U?$pair@$$CBGPAVivfstream@@@_STL@@@2@@_STL@@_N@2@ABU?$pair@$$CBGPAVivfstream@@@2@@Z PROC NEAR ; _STL::_Rb_tree<unsigned short,_STL::pair<unsigned short const ,ivfstream *>,_STL::_Select1st<_STL::pair<unsigned short const ,ivfstream *> >,_STL::less<unsigned short>,_STL::allocator<_STL::pair<unsigned short const ,ivfstream *> > >::insert_unique, COMDAT
; _this$ = ecx

; 401  : {

  00000	55		 push	 ebp
  00001	8b ec		 mov	 ebp, esp
  00003	53		 push	 ebx
  00004	8b d9		 mov	 ebx, ecx

; 402  :   _Link_type __y = this->_M_header._M_data;

  00006	8b 0b		 mov	 ecx, DWORD PTR [ebx]
  00008	56		 push	 esi

; 403  :   _Link_type __x = _M_root();

  00009	8b 71 04	 mov	 esi, DWORD PTR [ecx+4]

; 404  :   bool __comp = true;
; 405  :   while (__x != 0) {

  0000c	85 f6		 test	 esi, esi
  0000e	57		 push	 edi
  0000f	8b f9		 mov	 edi, ecx
  00011	b2 01		 mov	 dl, 1
  00013	74 1f		 je	 SHORT $L114780
  00015	8b 45 0c	 mov	 eax, DWORD PTR ___v$[ebp]
  00018	66 8b 00	 mov	 ax, WORD PTR [eax]
$L109524:

; 406  :     __y = __x;
; 407  :     __comp = _M_key_compare(_KeyOfValue()(__v), _S_key(__x));

  0001b	66 3b 46 10	 cmp	 ax, WORD PTR [esi+16]
  0001f	8b fe		 mov	 edi, esi
  00021	0f 92 c2	 setb	 dl

; 408  :     __x = __comp ? _S_left(__x) : _S_right(__x);

  00024	84 d2		 test	 dl, dl
  00026	74 05		 je	 SHORT $L114669
  00028	8b 76 08	 mov	 esi, DWORD PTR [esi+8]
  0002b	eb 03		 jmp	 SHORT $L114670
$L114669:
  0002d	8b 76 0c	 mov	 esi, DWORD PTR [esi+12]
$L114670:

; 404  :   bool __comp = true;
; 405  :   while (__x != 0) {

  00030	85 f6		 test	 esi, esi
  00032	75 e7		 jne	 SHORT $L109524
$L114780:

; 409  :   }
; 410  :   iterator __j = iterator(__y);   
; 411  :   if (__comp)

  00034	84 d2		 test	 dl, dl
  00036	8b c7		 mov	 eax, edi
  00038	74 15		 je	 SHORT $L114781

; 412  :     if (__j == begin())     

  0003a	3b 79 08	 cmp	 edi, DWORD PTR [ecx+8]
  0003d	75 09		 jne	 SHORT $L109552

; 413  :       return pair<iterator,bool>(_M_insert(/* __x*/ __y, __y, __v), true);

  0003f	6a 00		 push	 0
  00041	ff 75 0c	 push	 DWORD PTR ___v$[ebp]
  00044	57		 push	 edi
  00045	57		 push	 edi
  00046	eb 18		 jmp	 SHORT $L114782
$L109552:

; 414  :     else
; 415  :       --__j;

  00048	57		 push	 edi
  00049	e8 00 00 00 00	 call	 ?_M_decrement@?$_Rb_global@_N@_STL@@SAPAU_Rb_tree_node_base@2@PAU32@@Z ; _STL::_Rb_global<bool>::_M_decrement
  0004e	59		 pop	 ecx
$L114781:

; 416  :   if (_M_key_compare(_S_key(__j._M_node), _KeyOfValue()(__v)))

  0004f	66 8b 50 10	 mov	 dx, WORD PTR [eax+16]
  00053	8b 4d 0c	 mov	 ecx, DWORD PTR ___v$[ebp]
  00056	66 3b 11	 cmp	 dx, WORD PTR [ecx]
  00059	73 1d		 jae	 SHORT $L109558

; 417  :     return pair<iterator,bool>(_M_insert(__x, __y, __v), true);

  0005b	6a 00		 push	 0
  0005d	51		 push	 ecx
  0005e	57		 push	 edi
  0005f	56		 push	 esi
$L114782:
  00060	8d 45 0c	 lea	 eax, DWORD PTR $T114676[ebp]
  00063	50		 push	 eax
  00064	8b cb		 mov	 ecx, ebx
  00066	e8 00 00 00 00	 call	 ?_M_insert@?$_Rb_tree@GU?$pair@$$CBGPAVivfstream@@@_STL@@U?$_Select1st@U?$pair@$$CBGPAVivfstream@@@_STL@@@2@U?$less@G@2@V?$allocator@U?$pair@$$CBGPAVivfstream@@@_STL@@@2@@_STL@@AAE?AU?$_Rb_tree_iterator@U?$pair@$$CBGPAVivfstream@@@_STL@@U?$_Nonconst_traits@U?$pair@$$CBGPAVivfstream@@@_STL@@@2@@2@PAU_Rb_tree_node_base@2@0ABU?$pair@$$CBGPAVivfstream@@@2@0@Z ; _STL::_Rb_tree<unsigned short,_STL::pair<unsigned short const ,ivfstream *>,_STL::_Select1st<_STL::pair<unsigned short const ,ivfstream *> >,_STL::less<unsigned short>,_STL::allocator<_STL::pair<unsigned short const ,ivfstream *> > >::_M_insert
  0006b	8b 08		 mov	 ecx, DWORD PTR [eax]
  0006d	8b 45 08	 mov	 eax, DWORD PTR ___$ReturnUdt$[ebp]
  00070	89 08		 mov	 DWORD PTR [eax], ecx
  00072	c6 40 04 01	 mov	 BYTE PTR [eax+4], 1
  00076	eb 0b		 jmp	 SHORT $L109519
$L109558:

; 418  :   return pair<iterator,bool>(__j, false);

  00078	8b 4d 08	 mov	 ecx, DWORD PTR ___$ReturnUdt$[ebp]
  0007b	89 01		 mov	 DWORD PTR [ecx], eax
  0007d	c6 41 04 00	 mov	 BYTE PTR [ecx+4], 0
  00081	8b c1		 mov	 eax, ecx
$L109519:
  00083	5f		 pop	 edi
  00084	5e		 pop	 esi
  00085	5b		 pop	 ebx

; 419  : }

  00086	5d		 pop	 ebp
  00087	c2 08 00	 ret	 8
?insert_unique@?$_Rb_tree@GU?$pair@$$CBGPAVivfstream@@@_STL@@U?$_Select1st@U?$pair@$$CBGPAVivfstream@@@_STL@@@2@U?$less@G@2@V?$allocator@U?$pair@$$CBGPAVivfstream@@@_STL@@@2@@_STL@@QAE?AU?$pair@U?$_Rb_tree_iterator@U?$pair@$$CBGPAVivfstream@@@_STL@@U?$_Nonconst_traits@U?$pair@$$CBGPAVivfstream@@@_STL@@@2@@_STL@@_N@2@ABU?$pair@$$CBGPAVivfstream@@@2@@Z ENDP ; _STL::_Rb_tree<unsigned short,_STL::pair<unsigned short const ,ivfstream *>,_STL::_Select1st<_STL::pair<unsigned short const ,ivfstream *> >,_STL::less<unsigned short>,_STL::allocator<_STL::pair<unsigned short const ,ivfstream *> > >::insert_unique
_TEXT	ENDS
PUBLIC	?_M_create_node@?$_Rb_tree@GU?$pair@$$CBGPAVivfstream@@@_STL@@U?$_Select1st@U?$pair@$$CBGPAVivfstream@@@_STL@@@2@U?$less@G@2@V?$allocator@U?$pair@$$CBGPAVivfstream@@@_STL@@@2@@_STL@@IAEPAU?$_Rb_tree_node@U?$pair@$$CBGPAVivfstream@@@_STL@@@2@ABU?$pair@$$CBGPAVivfstream@@@2@@Z ; _STL::_Rb_tree<unsigned short,_STL::pair<unsigned short const ,ivfstream *>,_STL::_Select1st<_STL::pair<unsigned short const ,ivfstream *> >,_STL::less<unsigned short>,_STL::allocator<_STL::pair<unsigned short const ,ivfstream *> > >::_M_create_node
; Function compile flags: /Ogsy
;	COMDAT ?_M_insert@?$_Rb_tree@GU?$pair@$$CBGPAVivfstream@@@_STL@@U?$_Select1st@U?$pair@$$CBGPAVivfstream@@@_STL@@@2@U?$less@G@2@V?$allocator@U?$pair@$$CBGPAVivfstream@@@_STL@@@2@@_STL@@AAE?AU?$_Rb_tree_iterator@U?$pair@$$CBGPAVivfstream@@@_STL@@U?$_Nonconst_traits@U?$pair@$$CBGPAVivfstream@@@_STL@@@2@@2@PAU_Rb_tree_node_base@2@0ABU?$pair@$$CBGPAVivfstream@@@2@0@Z
_TEXT	SEGMENT
___$ReturnUdt$ = 8					; size = 4
___x_$ = 12						; size = 4
___y_$ = 16						; size = 4
___v$ = 20						; size = 4
___w_$ = 24						; size = 4
?_M_insert@?$_Rb_tree@GU?$pair@$$CBGPAVivfstream@@@_STL@@U?$_Select1st@U?$pair@$$CBGPAVivfstream@@@_STL@@@2@U?$less@G@2@V?$allocator@U?$pair@$$CBGPAVivfstream@@@_STL@@@2@@_STL@@AAE?AU?$_Rb_tree_iterator@U?$pair@$$CBGPAVivfstream@@@_STL@@U?$_Nonconst_traits@U?$pair@$$CBGPAVivfstream@@@_STL@@@2@@2@PAU_Rb_tree_node_base@2@0ABU?$pair@$$CBGPAVivfstream@@@2@0@Z PROC NEAR ; _STL::_Rb_tree<unsigned short,_STL::pair<unsigned short const ,ivfstream *>,_STL::_Select1st<_STL::pair<unsigned short const ,ivfstream *> >,_STL::less<unsigned short>,_STL::allocator<_STL::pair<unsigned short const ,ivfstream *> > >::_M_insert, COMDAT
; _this$ = ecx

; 347  : {

  00000	55		 push	 ebp
  00001	8b ec		 mov	 ebp, esp

; 348  :   _Link_type __w = (_Link_type) __w_;
; 349  :   _Link_type __x = (_Link_type) __x_;
; 350  :   _Link_type __y = (_Link_type) __y_;
; 351  :   _Link_type __z;
; 352  : 
; 353  :   if ( __y == this->_M_header._M_data ||
; 354  :        ( __w == 0 && // If w != 0, the remainder fails to false
; 355  :          ( __x != 0 ||     // If x != 0, the remainder succeeds to true
; 356  :            _M_key_compare( _KeyOfValue()(__v), _S_key(__y) ) )
; 357  : 	 )
; 358  :        ) {

  00003	8b 45 14	 mov	 eax, DWORD PTR ___v$[ebp]
  00006	53		 push	 ebx
  00007	8b 5d 10	 mov	 ebx, DWORD PTR ___y_$[ebp]
  0000a	56		 push	 esi
  0000b	57		 push	 edi
  0000c	8b f9		 mov	 edi, ecx
  0000e	3b 1f		 cmp	 ebx, DWORD PTR [edi]
  00010	74 2e		 je	 SHORT $L109941
  00012	83 7d 18 00	 cmp	 DWORD PTR ___w_$[ebp], 0
  00016	75 0f		 jne	 SHORT $L109939
  00018	83 7d 0c 00	 cmp	 DWORD PTR ___x_$[ebp], 0
  0001c	75 22		 jne	 SHORT $L109941
  0001e	66 8b 08	 mov	 cx, WORD PTR [eax]
  00021	66 3b 4b 10	 cmp	 cx, WORD PTR [ebx+16]
  00025	72 19		 jb	 SHORT $L109941
$L109939:

; 369  :   }
; 370  :   else {
; 371  :     __z = _M_create_node(__v);

  00027	50		 push	 eax
  00028	8b cf		 mov	 ecx, edi
  0002a	e8 00 00 00 00	 call	 ?_M_create_node@?$_Rb_tree@GU?$pair@$$CBGPAVivfstream@@@_STL@@U?$_Select1st@U?$pair@$$CBGPAVivfstream@@@_STL@@@2@U?$less@G@2@V?$allocator@U?$pair@$$CBGPAVivfstream@@@_STL@@@2@@_STL@@IAEPAU?$_Rb_tree_node@U?$pair@$$CBGPAVivfstream@@@_STL@@@2@ABU?$pair@$$CBGPAVivfstream@@@2@@Z ; _STL::_Rb_tree<unsigned short,_STL::pair<unsigned short const ,ivfstream *>,_STL::_Select1st<_STL::pair<unsigned short const ,ivfstream *> >,_STL::less<unsigned short>,_STL::allocator<_STL::pair<unsigned short const ,ivfstream *> > >::_M_create_node
  0002f	8b f0		 mov	 esi, eax

; 372  :     _S_right(__y) = __z;

  00031	89 73 0c	 mov	 DWORD PTR [ebx+12], esi

; 373  :     if (__y == _M_rightmost())

  00034	8b 07		 mov	 eax, DWORD PTR [edi]
  00036	3b 58 0c	 cmp	 ebx, DWORD PTR [eax+12]
  00039	75 27		 jne	 SHORT $L109944
$L114843:

; 374  :       _M_rightmost() = __z;  // maintain _M_rightmost() pointing to max node

  0003b	89 70 0c	 mov	 DWORD PTR [eax+12], esi
  0003e	eb 22		 jmp	 SHORT $L109944
$L109941:

; 359  :     
; 360  :     __z = _M_create_node(__v);

  00040	50		 push	 eax
  00041	8b cf		 mov	 ecx, edi
  00043	e8 00 00 00 00	 call	 ?_M_create_node@?$_Rb_tree@GU?$pair@$$CBGPAVivfstream@@@_STL@@U?$_Select1st@U?$pair@$$CBGPAVivfstream@@@_STL@@@2@U?$less@G@2@V?$allocator@U?$pair@$$CBGPAVivfstream@@@_STL@@@2@@_STL@@IAEPAU?$_Rb_tree_node@U?$pair@$$CBGPAVivfstream@@@_STL@@@2@ABU?$pair@$$CBGPAVivfstream@@@2@@Z ; _STL::_Rb_tree<unsigned short,_STL::pair<unsigned short const ,ivfstream *>,_STL::_Select1st<_STL::pair<unsigned short const ,ivfstream *> >,_STL::less<unsigned short>,_STL::allocator<_STL::pair<unsigned short const ,ivfstream *> > >::_M_create_node
  00048	8b f0		 mov	 esi, eax

; 361  :     _S_left(__y) = __z;               // also makes _M_leftmost() = __z 

  0004a	89 73 08	 mov	 DWORD PTR [ebx+8], esi

; 362  :                                       //    when __y == _M_header
; 363  :     if (__y == this->_M_header._M_data) {

  0004d	8b 07		 mov	 eax, DWORD PTR [edi]
  0004f	3b d8		 cmp	 ebx, eax
  00051	75 07		 jne	 SHORT $L109942

; 364  :       _M_root() = __z;

  00053	89 70 04	 mov	 DWORD PTR [eax+4], esi

; 365  :       _M_rightmost() = __z;

  00056	8b 07		 mov	 eax, DWORD PTR [edi]

; 366  :     }
; 367  :     else if (__y == _M_leftmost())

  00058	eb e1		 jmp	 SHORT $L114843
$L109942:
  0005a	3b 58 08	 cmp	 ebx, DWORD PTR [eax+8]
  0005d	75 03		 jne	 SHORT $L109944

; 368  :       _M_leftmost() = __z;   // maintain _M_leftmost() pointing to min node

  0005f	89 70 08	 mov	 DWORD PTR [eax+8], esi
$L109944:

; 375  :   }
; 376  :   _S_parent(__z) = __y;
; 377  :   _S_left(__z) = 0;

  00062	83 66 08 00	 and	 DWORD PTR [esi+8], 0

; 378  :   _S_right(__z) = 0;

  00066	83 66 0c 00	 and	 DWORD PTR [esi+12], 0
  0006a	89 5e 04	 mov	 DWORD PTR [esi+4], ebx

; 379  :   _Rb_global_inst::_Rebalance(__z, this->_M_header._M_data->_M_parent);

  0006d	8b 07		 mov	 eax, DWORD PTR [edi]
  0006f	83 c0 04	 add	 eax, 4
  00072	50		 push	 eax
  00073	56		 push	 esi
  00074	e8 00 00 00 00	 call	 ?_Rebalance@?$_Rb_global@_N@_STL@@SAXPAU_Rb_tree_node_base@2@AAPAU32@@Z ; _STL::_Rb_global<bool>::_Rebalance

; 380  :   ++_M_node_count;

  00079	ff 47 04	 inc	 DWORD PTR [edi+4]

; 381  :   return iterator(__z);

  0007c	8b 45 08	 mov	 eax, DWORD PTR ___$ReturnUdt$[ebp]
  0007f	59		 pop	 ecx
  00080	59		 pop	 ecx
  00081	5f		 pop	 edi
  00082	89 30		 mov	 DWORD PTR [eax], esi
  00084	5e		 pop	 esi
  00085	5b		 pop	 ebx

; 382  : }

  00086	5d		 pop	 ebp
  00087	c2 14 00	 ret	 20			; 00000014H
?_M_insert@?$_Rb_tree@GU?$pair@$$CBGPAVivfstream@@@_STL@@U?$_Select1st@U?$pair@$$CBGPAVivfstream@@@_STL@@@2@U?$less@G@2@V?$allocator@U?$pair@$$CBGPAVivfstream@@@_STL@@@2@@_STL@@AAE?AU?$_Rb_tree_iterator@U?$pair@$$CBGPAVivfstream@@@_STL@@U?$_Nonconst_traits@U?$pair@$$CBGPAVivfstream@@@_STL@@@2@@2@PAU_Rb_tree_node_base@2@0ABU?$pair@$$CBGPAVivfstream@@@2@0@Z ENDP ; _STL::_Rb_tree<unsigned short,_STL::pair<unsigned short const ,ivfstream *>,_STL::_Select1st<_STL::pair<unsigned short const ,ivfstream *> >,_STL::less<unsigned short>,_STL::allocator<_STL::pair<unsigned short const ,ivfstream *> > >::_M_insert
; Function compile flags: /Ogsy
; File c:\stlport-4.6.1\stlport\stl\_tree.h
_TEXT	ENDS
;	COMDAT ?_M_create_node@?$_Rb_tree@GU?$pair@$$CBGPAVivfstream@@@_STL@@U?$_Select1st@U?$pair@$$CBGPAVivfstream@@@_STL@@@2@U?$less@G@2@V?$allocator@U?$pair@$$CBGPAVivfstream@@@_STL@@@2@@_STL@@IAEPAU?$_Rb_tree_node@U?$pair@$$CBGPAVivfstream@@@_STL@@@2@ABU?$pair@$$CBGPAVivfstream@@@2@@Z
_TEXT	SEGMENT
___x$ = 8						; size = 4
?_M_create_node@?$_Rb_tree@GU?$pair@$$CBGPAVivfstream@@@_STL@@U?$_Select1st@U?$pair@$$CBGPAVivfstream@@@_STL@@@2@U?$less@G@2@V?$allocator@U?$pair@$$CBGPAVivfstream@@@_STL@@@2@@_STL@@IAEPAU?$_Rb_tree_node@U?$pair@$$CBGPAVivfstream@@@_STL@@@2@ABU?$pair@$$CBGPAVivfstream@@@2@@Z PROC NEAR ; _STL::_Rb_tree<unsigned short,_STL::pair<unsigned short const ,ivfstream *>,_STL::_Select1st<_STL::pair<unsigned short const ,ivfstream *> >,_STL::less<unsigned short>,_STL::allocator<_STL::pair<unsigned short const ,ivfstream *> > >::_M_create_node, COMDAT
; _this$ = ecx

; 243  :     _Link_type __tmp = this->_M_header.allocate(1);

  00000	6a 18		 push	 24			; 00000018H
  00002	e8 00 00 00 00	 call	 ?allocate@?$__node_alloc@$00$0A@@_STL@@SAPAXI@Z ; _STL::__node_alloc<1,0>::allocate
  00007	59		 pop	 ecx

; 244  :     _STLP_TRY {
; 245  :       _Construct(&__tmp->_M_value_field, __x);

  00008	8d 48 10	 lea	 ecx, DWORD PTR [eax+16]
  0000b	85 c9		 test	 ecx, ecx
  0000d	74 12		 je	 SHORT $L114870
  0000f	8b 54 24 04	 mov	 edx, DWORD PTR ___x$[esp-4]
  00013	56		 push	 esi
  00014	66 8b 32	 mov	 si, WORD PTR [edx]
  00017	66 89 31	 mov	 WORD PTR [ecx], si
  0001a	8b 52 04	 mov	 edx, DWORD PTR [edx+4]
  0001d	89 51 04	 mov	 DWORD PTR [ecx+4], edx
  00020	5e		 pop	 esi
$L114870:

; 246  :     }
; 247  :     _STLP_UNWIND(this->_M_header.deallocate(__tmp,1));
; 248  :     return __tmp;
; 249  :   }

  00021	c2 04 00	 ret	 4
?_M_create_node@?$_Rb_tree@GU?$pair@$$CBGPAVivfstream@@@_STL@@U?$_Select1st@U?$pair@$$CBGPAVivfstream@@@_STL@@@2@U?$less@G@2@V?$allocator@U?$pair@$$CBGPAVivfstream@@@_STL@@@2@@_STL@@IAEPAU?$_Rb_tree_node@U?$pair@$$CBGPAVivfstream@@@_STL@@@2@ABU?$pair@$$CBGPAVivfstream@@@2@@Z ENDP ; _STL::_Rb_tree<unsigned short,_STL::pair<unsigned short const ,ivfstream *>,_STL::_Select1st<_STL::pair<unsigned short const ,ivfstream *> >,_STL::less<unsigned short>,_STL::allocator<_STL::pair<unsigned short const ,ivfstream *> > >::_M_create_node
_TEXT	ENDS
PUBLIC	??_7iovfs_base@@6B@				; iovfs_base::`vftable'
PUBLIC	??_Giovfs_base@@UAEPAXI@Z			; iovfs_base::`scalar deleting destructor'
PUBLIC	??_R4iovfs_base@@6B@				; iovfs_base::`RTTI Complete Object Locator'
PUBLIC	??_R3iovfs_base@@8				; iovfs_base::`RTTI Class Hierarchy Descriptor'
PUBLIC	??_R2iovfs_base@@8				; iovfs_base::`RTTI Base Class Array'
EXTRN	?close@iovfs_base@@QAEXXZ:NEAR			; iovfs_base::close
EXTRN	??_Eiovfs_base@@UAEPAXI@Z:NEAR			; iovfs_base::`vector deleting destructor'
;	COMDAT xdata$x
; File c:\darkeden\designed_common\project\client\virtualfilesystem\vfstream.inl
xdata$x	SEGMENT
$T114887 DD	0ffffffffH
	DD	FLAT:$L114883
$T114885 DD	019930520H
	DD	01H
	DD	FLAT:$T114887
	DD	2 DUP(00H)
	DD	2 DUP(00H)
xdata$x	ENDS
;	COMDAT ??_7iovfs_base@@6B@
CONST	SEGMENT
??_7iovfs_base@@6B@ DD FLAT:??_R4iovfs_base@@6B@	; iovfs_base::`vftable'
	DD	FLAT:??_Eiovfs_base@@UAEPAXI@Z
	DD	FLAT:?open@iovfs_base@@UAEXPBDH@Z
CONST	ENDS
;	COMDAT ??_R4iovfs_base@@6B@
rdata$r	SEGMENT
??_R4iovfs_base@@6B@ DD 00H				; iovfs_base::`RTTI Complete Object Locator'
	DD	00H
	DD	00H
	DD	FLAT:??_R0?AViovfs_base@@@8
	DD	FLAT:??_R3iovfs_base@@8
rdata$r	ENDS
;	COMDAT ??_R3iovfs_base@@8
rdata$r	SEGMENT
??_R3iovfs_base@@8 DD 00H				; iovfs_base::`RTTI Class Hierarchy Descriptor'
	DD	00H
	DD	01H
	DD	FLAT:??_R2iovfs_base@@8
rdata$r	ENDS
;	COMDAT ??_R2iovfs_base@@8
rdata$r	SEGMENT
??_R2iovfs_base@@8 DD FLAT:??_R1A@?0A@A@iovfs_base@@8	; iovfs_base::`RTTI Base Class Array'
; Function compile flags: /Ogsy
rdata$r	ENDS
;	COMDAT ??1iovfs_base@@UAE@XZ
_TEXT	SEGMENT
_this$ = -16						; size = 4
__$EHRec$ = -12						; size = 12
??1iovfs_base@@UAE@XZ PROC NEAR				; iovfs_base::~iovfs_base, COMDAT
; _this$ = ecx

; 22   : {

  00000	b8 00 00 00 00	 mov	 eax, __ehhandler$??1iovfs_base@@UAE@XZ
  00005	e8 00 00 00 00	 call	 __EH_prolog
  0000a	51		 push	 ecx
  0000b	56		 push	 esi
  0000c	8b f1		 mov	 esi, ecx
  0000e	89 75 f0	 mov	 DWORD PTR _this$[ebp], esi
  00011	c7 06 00 00 00
	00		 mov	 DWORD PTR [esi], OFFSET FLAT:??_7iovfs_base@@6B@
  00017	83 65 fc 00	 and	 DWORD PTR __$EHRec$[ebp+8], 0

; 23   : 	close();

  0001b	e8 00 00 00 00	 call	 ?close@iovfs_base@@QAEXXZ ; iovfs_base::close

; 24   : }

  00020	83 4d fc ff	 or	 DWORD PTR __$EHRec$[ebp+8], -1
  00024	68 00 00 00 00	 push	 OFFSET FLAT:??1?$basic_string@DV?$char_traits@D@_STL@@V?$allocator@D@2@@_STL@@QAE@XZ ; _STL::basic_string<char,_STL::char_traits<char>,_STL::allocator<char> >::~basic_string<char,_STL::char_traits<char>,_STL::allocator<char> >
  00029	6a 06		 push	 6
  0002b	6a 0c		 push	 12			; 0000000cH
  0002d	83 c6 08	 add	 esi, 8
  00030	56		 push	 esi
  00031	e8 00 00 00 00	 call	 ??_M@YGXPAXIHP6EX0@Z@Z
  00036	8b 4d f4	 mov	 ecx, DWORD PTR __$EHRec$[ebp]
  00039	5e		 pop	 esi
  0003a	64 89 0d 00 00
	00 00		 mov	 DWORD PTR fs:__except_list, ecx
  00041	c9		 leave
  00042	c3		 ret	 0
_TEXT	ENDS
;	COMDAT text$x
text$x	SEGMENT
$L114883:
  00000	68 00 00 00 00	 push	 OFFSET FLAT:??1?$basic_string@DV?$char_traits@D@_STL@@V?$allocator@D@2@@_STL@@QAE@XZ ; _STL::basic_string<char,_STL::char_traits<char>,_STL::allocator<char> >::~basic_string<char,_STL::char_traits<char>,_STL::allocator<char> >
  00005	6a 06		 push	 6
  00007	6a 0c		 push	 12			; 0000000cH
  00009	8b 45 f0	 mov	 eax, DWORD PTR _this$[ebp]
  0000c	83 c0 08	 add	 eax, 8
  0000f	50		 push	 eax
  00010	e8 00 00 00 00	 call	 ??_M@YGXPAXIHP6EX0@Z@Z
  00015	c3		 ret	 0
__ehhandler$??1iovfs_base@@UAE@XZ:
  00016	b8 00 00 00 00	 mov	 eax, OFFSET FLAT:$T114885
  0001b	e9 00 00 00 00	 jmp	 ___CxxFrameHandler
text$x	ENDS
??1iovfs_base@@UAE@XZ ENDP				; iovfs_base::~iovfs_base
; Function compile flags: /Ogsy
;	COMDAT ??_Giovfs_base@@UAEPAXI@Z
_TEXT	SEGMENT
___flags$ = 8						; size = 4
??_Giovfs_base@@UAEPAXI@Z PROC NEAR			; iovfs_base::`scalar deleting destructor', COMDAT
; _this$ = ecx
  00000	56		 push	 esi
  00001	8b f1		 mov	 esi, ecx
  00003	e8 00 00 00 00	 call	 ??1iovfs_base@@UAE@XZ	; iovfs_base::~iovfs_base
  00008	f6 44 24 08 01	 test	 BYTE PTR ___flags$[esp], 1
  0000d	74 07		 je	 SHORT $L100684
  0000f	56		 push	 esi
  00010	e8 00 00 00 00	 call	 ??3@YAXPAX@Z		; operator delete
  00015	59		 pop	 ecx
$L100684:
  00016	8b c6		 mov	 eax, esi
  00018	5e		 pop	 esi
  00019	c2 04 00	 ret	 4
??_Giovfs_base@@UAEPAXI@Z ENDP				; iovfs_base::`scalar deleting destructor'
_TEXT	ENDS
PUBLIC	??1ivfstream@@UAE@XZ				; ivfstream::~ivfstream
; Function compile flags: /Ogsy
;	COMDAT ??_Givfstream@@UAEPAXI@Z
_TEXT	SEGMENT
___flags$ = 8						; size = 4
??_Givfstream@@UAEPAXI@Z PROC NEAR			; ivfstream::`scalar deleting destructor', COMDAT
; _this$ = ecx
  00000	56		 push	 esi
  00001	8b f1		 mov	 esi, ecx
  00003	e8 00 00 00 00	 call	 ??1ivfstream@@UAE@XZ	; ivfstream::~ivfstream
  00008	f6 44 24 08 01	 test	 BYTE PTR ___flags$[esp], 1
  0000d	74 07		 je	 SHORT $L100724
  0000f	56		 push	 esi
  00010	e8 00 00 00 00	 call	 ??3@YAXPAX@Z		; operator delete
  00015	59		 pop	 ecx
$L100724:
  00016	8b c6		 mov	 eax, esi
  00018	5e		 pop	 esi
  00019	c2 04 00	 ret	 4
??_Givfstream@@UAEPAXI@Z ENDP				; ivfstream::`scalar deleting destructor'
; Function compile flags: /Ogsy
_TEXT	ENDS
;	COMDAT ??1ivfstream@@UAE@XZ
_TEXT	SEGMENT
??1ivfstream@@UAE@XZ PROC NEAR				; ivfstream::~ivfstream, COMDAT
; _this$ = ecx

; 70   : {

  00000	c7 01 00 00 00
	00		 mov	 DWORD PTR [ecx], OFFSET FLAT:??_7ivfstream@@6B@

; 71   : 
; 72   : }

  00006	e9 00 00 00 00	 jmp	 ??1iovfs_base@@UAE@XZ	; iovfs_base::~iovfs_base
??1ivfstream@@UAE@XZ ENDP				; ivfstream::~ivfstream
_TEXT	ENDS
PUBLIC	?Init@iovfs_base@@QAEXXZ			; iovfs_base::Init
;	COMDAT xdata$x
; File c:\stlport-4.6.1\stlport\stl\_string.h
xdata$x	SEGMENT
$T115219 DD	0ffffffffH
	DD	FLAT:$L114902
$T115217 DD	019930520H
	DD	01H
	DD	FLAT:$T115219
	DD	2 DUP(00H)
	DD	2 DUP(00H)
; Function compile flags: /Ogsy
; File c:\darkeden\designed_common\project\client\virtualfilesystem\vfstream.inl
xdata$x	ENDS
;	COMDAT ??0iovfs_base@@QAE@XZ
_TEXT	SEGMENT
_this$ = -16						; size = 4
__$EHRec$ = -12						; size = 12
??0iovfs_base@@QAE@XZ PROC NEAR				; iovfs_base::iovfs_base, COMDAT
; _this$ = ecx

; 11   : {

  00000	b8 00 00 00 00	 mov	 eax, __ehhandler$??0iovfs_base@@QAE@XZ
  00005	e8 00 00 00 00	 call	 __EH_prolog
  0000a	51		 push	 ecx
  0000b	56		 push	 esi
  0000c	68 00 00 00 00	 push	 OFFSET FLAT:??1?$basic_string@DV?$char_traits@D@_STL@@V?$allocator@D@2@@_STL@@QAE@XZ ; _STL::basic_string<char,_STL::char_traits<char>,_STL::allocator<char> >::~basic_string<char,_STL::char_traits<char>,_STL::allocator<char> >
  00011	68 00 00 00 00	 push	 OFFSET FLAT:??0?$basic_string@DV?$char_traits@D@_STL@@V?$allocator@D@2@@_STL@@QAE@XZ ; _STL::basic_string<char,_STL::char_traits<char>,_STL::allocator<char> >::basic_string<char,_STL::char_traits<char>,_STL::allocator<char> >
  00016	8b f1		 mov	 esi, ecx
  00018	6a 06		 push	 6
  0001a	6a 0c		 push	 12			; 0000000cH
  0001c	8d 46 08	 lea	 eax, DWORD PTR [esi+8]
  0001f	50		 push	 eax
  00020	89 75 f0	 mov	 DWORD PTR _this$[ebp], esi
  00023	c7 06 00 00 00
	00		 mov	 DWORD PTR [esi], OFFSET FLAT:??_7iovfs_base@@6B@
  00029	e8 00 00 00 00	 call	 ??_L@YGXPAXIHP6EX0@Z1@Z
  0002e	83 65 fc 00	 and	 DWORD PTR __$EHRec$[ebp+8], 0

; 12   : 	Init();

  00032	8b ce		 mov	 ecx, esi
  00034	e8 00 00 00 00	 call	 ?Init@iovfs_base@@QAEXXZ ; iovfs_base::Init

; 13   : }

  00039	8b 4d f4	 mov	 ecx, DWORD PTR __$EHRec$[ebp]
  0003c	8b c6		 mov	 eax, esi
  0003e	5e		 pop	 esi
  0003f	64 89 0d 00 00
	00 00		 mov	 DWORD PTR fs:__except_list, ecx
  00046	c9		 leave
  00047	c3		 ret	 0
_TEXT	ENDS
;	COMDAT text$x
text$x	SEGMENT
$L114902:
  00000	68 00 00 00 00	 push	 OFFSET FLAT:??1?$basic_string@DV?$char_traits@D@_STL@@V?$allocator@D@2@@_STL@@QAE@XZ ; _STL::basic_string<char,_STL::char_traits<char>,_STL::allocator<char> >::~basic_string<char,_STL::char_traits<char>,_STL::allocator<char> >
  00005	6a 06		 push	 6
  00007	6a 0c		 push	 12			; 0000000cH
  00009	8b 45 f0	 mov	 eax, DWORD PTR _this$[ebp]
  0000c	83 c0 08	 add	 eax, 8
  0000f	50		 push	 eax
  00010	e8 00 00 00 00	 call	 ??_M@YGXPAXIHP6EX0@Z@Z
  00015	c3		 ret	 0
__ehhandler$??0iovfs_base@@QAE@XZ:
  00016	b8 00 00 00 00	 mov	 eax, OFFSET FLAT:$T115217
  0001b	e9 00 00 00 00	 jmp	 ___CxxFrameHandler
text$x	ENDS
??0iovfs_base@@QAE@XZ ENDP				; iovfs_base::iovfs_base
PUBLIC	??_C@_0BN@ODLNCKCA@Data?2?2Info?2?2ClientConfig?4inf?$AA@ ; `string'
PUBLIC	??_C@_0BM@DFPLPGPC@Data?2?2Info?2?2GuildMapper?4inf?$AA@ ; `string'
PUBLIC	??_C@_0BN@LHODHNBK@Data?2?2Info?2?2GuildVersion?4inf?$AA@ ; `string'
PUBLIC	??_C@_0BH@DDPLNCOL@Data?2?2Info?2?2Player?4inf?$AA@ ; `string'
PUBLIC	??_C@_0BL@ILLNAPHB@Data?2?2Info?2?2Resolution?4inf?$AA@ ; `string'
PUBLIC	??_C@_0CA@HEIGFDLG@Data?2?2Info?2?2SelectedChannel?4inf?$AA@ ; `string'
PUBLIC	?assign@?$basic_string@DV?$char_traits@D@_STL@@V?$allocator@D@2@@_STL@@QAEAAV12@PBD0@Z ; _STL::basic_string<char,_STL::char_traits<char>,_STL::allocator<char> >::assign
EXTRN	_strlen:NEAR
;	COMDAT ??_C@_0BN@ODLNCKCA@Data?2?2Info?2?2ClientConfig?4inf?$AA@
; File c:\stlport-4.6.1\stlport\stl\_string.h
CONST	SEGMENT
??_C@_0BN@ODLNCKCA@Data?2?2Info?2?2ClientConfig?4inf?$AA@ DB 'Data\\Info\'
	DB	'\ClientConfig.inf', 00H			; `string'
CONST	ENDS
;	COMDAT ??_C@_0BM@DFPLPGPC@Data?2?2Info?2?2GuildMapper?4inf?$AA@
CONST	SEGMENT
??_C@_0BM@DFPLPGPC@Data?2?2Info?2?2GuildMapper?4inf?$AA@ DB 'Data\\Info\\'
	DB	'GuildMapper.inf', 00H			; `string'
CONST	ENDS
;	COMDAT ??_C@_0BN@LHODHNBK@Data?2?2Info?2?2GuildVersion?4inf?$AA@
CONST	SEGMENT
??_C@_0BN@LHODHNBK@Data?2?2Info?2?2GuildVersion?4inf?$AA@ DB 'Data\\Info\'
	DB	'\GuildVersion.inf', 00H			; `string'
CONST	ENDS
;	COMDAT ??_C@_0BH@DDPLNCOL@Data?2?2Info?2?2Player?4inf?$AA@
CONST	SEGMENT
??_C@_0BH@DDPLNCOL@Data?2?2Info?2?2Player?4inf?$AA@ DB 'Data\\Info\\Playe'
	DB	'r.inf', 00H					; `string'
CONST	ENDS
;	COMDAT ??_C@_0BL@ILLNAPHB@Data?2?2Info?2?2Resolution?4inf?$AA@
CONST	SEGMENT
??_C@_0BL@ILLNAPHB@Data?2?2Info?2?2Resolution?4inf?$AA@ DB 'Data\\Info\\R'
	DB	'esolution.inf', 00H				; `string'
CONST	ENDS
;	COMDAT ??_C@_0CA@HEIGFDLG@Data?2?2Info?2?2SelectedChannel?4inf?$AA@
CONST	SEGMENT
??_C@_0CA@HEIGFDLG@Data?2?2Info?2?2SelectedChannel?4inf?$AA@ DB 'Data\\In'
	DB	'fo\\SelectedChannel.inf', 00H		; `string'
; Function compile flags: /Ogsy
; File c:\darkeden\designed_common\project\client\virtualfilesystem\vfstream.inl
CONST	ENDS
;	COMDAT ?Init@iovfs_base@@QAEXXZ
_TEXT	SEGMENT
?Init@iovfs_base@@QAEXXZ PROC NEAR			; iovfs_base::Init, COMDAT
; _this$ = ecx

; 27   : {

  00000	56		 push	 esi
  00001	57		 push	 edi
  00002	8b f1		 mov	 esi, ecx

; 28   : 	m_pFileIO = NULL;

  00004	83 66 04 00	 and	 DWORD PTR [esi+4], 0

; 29   : 
; 30   : 	m_strExceptList[0] = "Data\\\\Info\\\\ClientConfig.inf";

  00008	bf 00 00 00 00	 mov	 edi, OFFSET FLAT:??_C@_0BN@ODLNCKCA@Data?2?2Info?2?2ClientConfig?4inf?$AA@
  0000d	57		 push	 edi
  0000e	e8 00 00 00 00	 call	 _strlen
  00013	59		 pop	 ecx
  00014	03 c7		 add	 eax, edi
  00016	50		 push	 eax
  00017	57		 push	 edi
  00018	8d 4e 08	 lea	 ecx, DWORD PTR [esi+8]
  0001b	e8 00 00 00 00	 call	 ?assign@?$basic_string@DV?$char_traits@D@_STL@@V?$allocator@D@2@@_STL@@QAEAAV12@PBD0@Z ; _STL::basic_string<char,_STL::char_traits<char>,_STL::allocator<char> >::assign

; 31   : 	m_strExceptList[1] = "Data\\\\Info\\\\GuildMapper.inf";

  00020	bf 00 00 00 00	 mov	 edi, OFFSET FLAT:??_C@_0BM@DFPLPGPC@Data?2?2Info?2?2GuildMapper?4inf?$AA@
  00025	57		 push	 edi
  00026	e8 00 00 00 00	 call	 _strlen
  0002b	59		 pop	 ecx
  0002c	03 c7		 add	 eax, edi
  0002e	50		 push	 eax
  0002f	57		 push	 edi
  00030	8d 4e 14	 lea	 ecx, DWORD PTR [esi+20]
  00033	e8 00 00 00 00	 call	 ?assign@?$basic_string@DV?$char_traits@D@_STL@@V?$allocator@D@2@@_STL@@QAEAAV12@PBD0@Z ; _STL::basic_string<char,_STL::char_traits<char>,_STL::allocator<char> >::assign

; 32   : 	m_strExceptList[2] = "Data\\\\Info\\\\GuildVersion.inf";

  00038	bf 00 00 00 00	 mov	 edi, OFFSET FLAT:??_C@_0BN@LHODHNBK@Data?2?2Info?2?2GuildVersion?4inf?$AA@
  0003d	57		 push	 edi
  0003e	e8 00 00 00 00	 call	 _strlen
  00043	59		 pop	 ecx
  00044	03 c7		 add	 eax, edi
  00046	50		 push	 eax
  00047	57		 push	 edi
  00048	8d 4e 20	 lea	 ecx, DWORD PTR [esi+32]
  0004b	e8 00 00 00 00	 call	 ?assign@?$basic_string@DV?$char_traits@D@_STL@@V?$allocator@D@2@@_STL@@QAEAAV12@PBD0@Z ; _STL::basic_string<char,_STL::char_traits<char>,_STL::allocator<char> >::assign

; 33   : 	m_strExceptList[3] = "Data\\\\Info\\\\Player.inf";

  00050	bf 00 00 00 00	 mov	 edi, OFFSET FLAT:??_C@_0BH@DDPLNCOL@Data?2?2Info?2?2Player?4inf?$AA@
  00055	57		 push	 edi
  00056	e8 00 00 00 00	 call	 _strlen
  0005b	59		 pop	 ecx
  0005c	03 c7		 add	 eax, edi
  0005e	50		 push	 eax
  0005f	57		 push	 edi
  00060	8d 4e 2c	 lea	 ecx, DWORD PTR [esi+44]
  00063	e8 00 00 00 00	 call	 ?assign@?$basic_string@DV?$char_traits@D@_STL@@V?$allocator@D@2@@_STL@@QAEAAV12@PBD0@Z ; _STL::basic_string<char,_STL::char_traits<char>,_STL::allocator<char> >::assign

; 34   : 	m_strExceptList[4] = "Data\\\\Info\\\\Resolution.inf";

  00068	bf 00 00 00 00	 mov	 edi, OFFSET FLAT:??_C@_0BL@ILLNAPHB@Data?2?2Info?2?2Resolution?4inf?$AA@
  0006d	57		 push	 edi
  0006e	e8 00 00 00 00	 call	 _strlen
  00073	59		 pop	 ecx
  00074	03 c7		 add	 eax, edi
  00076	50		 push	 eax
  00077	57		 push	 edi
  00078	8d 4e 38	 lea	 ecx, DWORD PTR [esi+56]
  0007b	e8 00 00 00 00	 call	 ?assign@?$basic_string@DV?$char_traits@D@_STL@@V?$allocator@D@2@@_STL@@QAEAAV12@PBD0@Z ; _STL::basic_string<char,_STL::char_traits<char>,_STL::allocator<char> >::assign

; 35   : 	m_strExceptList[5] = "Data\\\\Info\\\\SelectedChannel.inf";

  00080	bf 00 00 00 00	 mov	 edi, OFFSET FLAT:??_C@_0CA@HEIGFDLG@Data?2?2Info?2?2SelectedChannel?4inf?$AA@
  00085	57		 push	 edi
  00086	e8 00 00 00 00	 call	 _strlen
  0008b	59		 pop	 ecx
  0008c	03 c7		 add	 eax, edi
  0008e	50		 push	 eax
  0008f	57		 push	 edi
  00090	8d 4e 44	 lea	 ecx, DWORD PTR [esi+68]
  00093	e8 00 00 00 00	 call	 ?assign@?$basic_string@DV?$char_traits@D@_STL@@V?$allocator@D@2@@_STL@@QAEAAV12@PBD0@Z ; _STL::basic_string<char,_STL::char_traits<char>,_STL::allocator<char> >::assign
  00098	5f		 pop	 edi
  00099	5e		 pop	 esi

; 36   : 	
; 37   : }

  0009a	c3		 ret	 0
?Init@iovfs_base@@QAEXXZ ENDP				; iovfs_base::Init
_TEXT	ENDS
PUBLIC	?erase@?$basic_string@DV?$char_traits@D@_STL@@V?$allocator@D@2@@_STL@@QAEPADPAD0@Z ; _STL::basic_string<char,_STL::char_traits<char>,_STL::allocator<char> >::erase
PUBLIC	??$append@PBD@?$basic_string@DV?$char_traits@D@_STL@@V?$allocator@D@2@@_STL@@AAEAAV01@PBD0ABUforward_iterator_tag@1@@Z ; _STL::basic_string<char,_STL::char_traits<char>,_STL::allocator<char> >::append<char const *>
EXTRN	_memcpy:NEAR
; Function compile flags: /Ogsy
; File c:\stlport-4.6.1\stlport\stl\_string.h
;	COMDAT ?assign@?$basic_string@DV?$char_traits@D@_STL@@V?$allocator@D@2@@_STL@@QAEAAV12@PBD0@Z
_TEXT	SEGMENT
___f$ = 8						; size = 4
___l$ = 12						; size = 4
$T115649 = 15						; size = 1
?assign@?$basic_string@DV?$char_traits@D@_STL@@V?$allocator@D@2@@_STL@@QAEAAV12@PBD0@Z PROC NEAR ; _STL::basic_string<char,_STL::char_traits<char>,_STL::allocator<char> >::assign, COMDAT
; _this$ = ecx

; 650  :   {

  00000	55		 push	 ebp
  00001	8b ec		 mov	 ebp, esp
  00003	53		 push	 ebx

; 651  :     ptrdiff_t __n = __l - __f;

  00004	8b 5d 08	 mov	 ebx, DWORD PTR ___f$[ebp]
  00007	56		 push	 esi
  00008	8b f1		 mov	 esi, ecx

; 652  :     if (__STATIC_CAST(size_type,__n) <= size()) {

  0000a	8b 0e		 mov	 ecx, DWORD PTR [esi]
  0000c	8b 46 04	 mov	 eax, DWORD PTR [esi+4]
  0000f	57		 push	 edi
  00010	8b 7d 0c	 mov	 edi, DWORD PTR ___l$[ebp]
  00013	2b fb		 sub	 edi, ebx
  00015	2b c1		 sub	 eax, ecx
  00017	3b f8		 cmp	 edi, eax
  00019	77 20		 ja	 SHORT $L106975

; 653  :       _Traits::copy(this->_M_start, __f, __n);

  0001b	85 ff		 test	 edi, edi
  0001d	74 0b		 je	 SHORT $L115600
  0001f	57		 push	 edi
  00020	53		 push	 ebx
  00021	51		 push	 ecx
  00022	e8 00 00 00 00	 call	 _memcpy
  00027	83 c4 0c	 add	 esp, 12			; 0000000cH
$L115600:

; 654  :       erase(begin() + __n, end());

  0002a	8b 06		 mov	 eax, DWORD PTR [esi]
  0002c	ff 76 04	 push	 DWORD PTR [esi+4]
  0002f	03 c7		 add	 eax, edi
  00031	50		 push	 eax
  00032	8b ce		 mov	 ecx, esi
  00034	e8 00 00 00 00	 call	 ?erase@?$basic_string@DV?$char_traits@D@_STL@@V?$allocator@D@2@@_STL@@QAEPADPAD0@Z ; _STL::basic_string<char,_STL::char_traits<char>,_STL::allocator<char> >::erase

; 655  :     }
; 656  :     else {

  00039	eb 25		 jmp	 SHORT $L115644
$L106975:

; 657  :       _Traits::copy(this->_M_start, __f, size());

  0003b	85 c0		 test	 eax, eax
  0003d	74 0b		 je	 SHORT $L115631
  0003f	50		 push	 eax
  00040	53		 push	 ebx
  00041	51		 push	 ecx
  00042	e8 00 00 00 00	 call	 _memcpy
  00047	83 c4 0c	 add	 esp, 12			; 0000000cH
$L115631:

; 658  :       append(__f + size(), __l);

  0004a	8d 45 0f	 lea	 eax, DWORD PTR $T115649[ebp]
  0004d	50		 push	 eax
  0004e	8b 46 04	 mov	 eax, DWORD PTR [esi+4]
  00051	2b 06		 sub	 eax, DWORD PTR [esi]
  00053	ff 75 0c	 push	 DWORD PTR ___l$[ebp]
  00056	03 c3		 add	 eax, ebx
  00058	50		 push	 eax
  00059	8b ce		 mov	 ecx, esi
  0005b	e8 00 00 00 00	 call	 ??$append@PBD@?$basic_string@DV?$char_traits@D@_STL@@V?$allocator@D@2@@_STL@@AAEAAV01@PBD0ABUforward_iterator_tag@1@@Z ; _STL::basic_string<char,_STL::char_traits<char>,_STL::allocator<char> >::append<char const *>
$L115644:
  00060	5f		 pop	 edi

; 659  :     }
; 660  :     return *this;

  00061	8b c6		 mov	 eax, esi
  00063	5e		 pop	 esi
  00064	5b		 pop	 ebx

; 661  :   }

  00065	5d		 pop	 ebp
  00066	c2 08 00	 ret	 8
?assign@?$basic_string@DV?$char_traits@D@_STL@@V?$allocator@D@2@@_STL@@QAEAAV12@PBD0@Z ENDP ; _STL::basic_string<char,_STL::char_traits<char>,_STL::allocator<char> >::assign
; Function compile flags: /Ogsy
_TEXT	ENDS
;	COMDAT ?erase@?$basic_string@DV?$char_traits@D@_STL@@V?$allocator@D@2@@_STL@@QAEPADPAD0@Z
_TEXT	SEGMENT
___first$ = 8						; size = 4
___last$ = 12						; size = 4
?erase@?$basic_string@DV?$char_traits@D@_STL@@V?$allocator@D@2@@_STL@@QAEPADPAD0@Z PROC NEAR ; _STL::basic_string<char,_STL::char_traits<char>,_STL::allocator<char> >::erase, COMDAT
; _this$ = ecx

; 862  :   iterator erase(iterator __first, iterator __last) {

  00000	53		 push	 ebx

; 863  :     if (__first != __last) {

  00001	8b 5c 24 08	 mov	 ebx, DWORD PTR ___first$[esp]
  00005	56		 push	 esi
  00006	57		 push	 edi
  00007	8b 7c 24 14	 mov	 edi, DWORD PTR ___last$[esp+8]
  0000b	3b df		 cmp	 ebx, edi
  0000d	8b f1		 mov	 esi, ecx
  0000f	74 1a		 je	 SHORT $L107110

; 864  :                                 // The move includes the terminating _CharT().
; 865  :       traits_type::move(__first, __last, (this->_M_finish - __last) + 1);

  00011	8b 46 04	 mov	 eax, DWORD PTR [esi+4]
  00014	2b c7		 sub	 eax, edi
  00016	40		 inc	 eax
  00017	74 0b		 je	 SHORT $L115659
  00019	50		 push	 eax
  0001a	57		 push	 edi
  0001b	53		 push	 ebx
  0001c	e8 00 00 00 00	 call	 _memmove
  00021	83 c4 0c	 add	 esp, 12			; 0000000cH
$L115659:

; 866  :       pointer __new_finish = this->_M_finish - (__last - __first);

  00024	8b c3		 mov	 eax, ebx
  00026	2b c7		 sub	 eax, edi

; 867  :       _STLP_STD::_Destroy(__new_finish + 1, this->_M_finish + 1);
; 868  :       this->_M_finish = __new_finish;

  00028	01 46 04	 add	 DWORD PTR [esi+4], eax
$L107110:
  0002b	5f		 pop	 edi
  0002c	5e		 pop	 esi

; 869  :     }
; 870  :     return __first;

  0002d	8b c3		 mov	 eax, ebx
  0002f	5b		 pop	 ebx

; 871  :   }

  00030	c2 08 00	 ret	 8
?erase@?$basic_string@DV?$char_traits@D@_STL@@V?$allocator@D@2@@_STL@@QAEPADPAD0@Z ENDP ; _STL::basic_string<char,_STL::char_traits<char>,_STL::allocator<char> >::erase
_TEXT	ENDS
PUBLIC	??_C@_0N@GOPDCEEB@basic_string?$AA@		; `string'
PUBLIC	??$__uninitialized_copy@PADPAD@_STL@@YAPADPAD00ABU__true_type@0@@Z ; _STL::__uninitialized_copy<char *,char *>
EXTRN	?__stl_throw_length_error@_STL@@YAXPBD@Z:NEAR	; _STL::__stl_throw_length_error
;	COMDAT xdata$x
; File c:\stlport-4.6.1\stlport\stl\char_traits.h
xdata$x	SEGMENT
$T115840 DD	0ffffffffH
	DD	00H
	DD	0ffffffffH
	DD	00H
	DD	0ffffffffH
	DD	00H
	DD	0ffffffffH
	DD	00H
$T115842 DD	00H
	DD	00H
	DD	00H
	DD	FLAT:$L115669
$T115841 DD	00H
	DD	00H
	DD	01H
	DD	01H
	DD	FLAT:$T115842
$T115836 DD	019930520H
	DD	04H
	DD	FLAT:$T115840
	DD	01H
	DD	FLAT:$T115841
	DD	2 DUP(00H)
xdata$x	ENDS
;	COMDAT ??_C@_0N@GOPDCEEB@basic_string?$AA@
CONST	SEGMENT
??_C@_0N@GOPDCEEB@basic_string?$AA@ DB 'basic_string', 00H ; `string'
; Function compile flags: /Ogsy
; File c:\stlport-4.6.1\stlport\stl\_string.h
CONST	ENDS
;	COMDAT ??$append@PBD@?$basic_string@DV?$char_traits@D@_STL@@V?$allocator@D@2@@_STL@@AAEAAV01@PBD0ABUforward_iterator_tag@1@@Z
_TEXT	SEGMENT
_this$ = -32						; size = 4
___new_start$109912 = -28				; size = 4
___old_size$109902 = -28				; size = 4
___len$109909 = -24					; size = 4
tv295 = -20						; size = 4
__$EHRec$ = -16						; size = 16
___first$ = 8						; size = 4
$T115667 = 12						; size = 4
___last$ = 12						; size = 4
$T115761 = 15						; size = 1
___formal$ = 16						; size = 4
??$append@PBD@?$basic_string@DV?$char_traits@D@_STL@@V?$allocator@D@2@@_STL@@AAEAAV01@PBD0ABUforward_iterator_tag@1@@Z PROC NEAR ; _STL::basic_string<char,_STL::char_traits<char>,_STL::allocator<char> >::append<char const *>, COMDAT
; _this$ = ecx

; 542  :   template <class _ForwardIter> _Self& append(_ForwardIter __first, _ForwardIter __last, 

  00000	b8 00 00 00 00	 mov	 eax, __ehhandler$??$append@PBD@?$basic_string@DV?$char_traits@D@_STL@@V?$allocator@D@2@@_STL@@AAEAAV01@PBD0ABUforward_iterator_tag@1@@Z
  00005	e8 00 00 00 00	 call	 __EH_prolog
  0000a	83 ec 14	 sub	 esp, 20			; 00000014H

; 543  :                        const forward_iterator_tag &)  {
; 544  :     if (__first != __last) {

  0000d	8b 45 0c	 mov	 eax, DWORD PTR ___last$[ebp]
  00010	39 45 08	 cmp	 DWORD PTR ___first$[ebp], eax
  00013	53		 push	 ebx
  00014	56		 push	 esi
  00015	57		 push	 edi
  00016	8b f1		 mov	 esi, ecx
  00018	89 65 f0	 mov	 DWORD PTR __$EHRec$[ebp], esp
  0001b	89 75 e0	 mov	 DWORD PTR _this$[ebp], esi
  0001e	0f 84 fd 00 00
	00		 je	 $L109915

; 545  : 	    const size_type __old_size = size();

  00024	8b 7e 04	 mov	 edi, DWORD PTR [esi+4]
  00027	2b 3e		 sub	 edi, DWORD PTR [esi]

; 546  : 	    difference_type __n = distance(__first, __last);

  00029	8b d8		 mov	 ebx, eax
  0002b	2b 5d 08	 sub	 ebx, DWORD PTR ___first$[ebp]
  0002e	89 7d e4	 mov	 DWORD PTR ___old_size$109902[ebp], edi

; 547  : 	    if (__STATIC_CAST(size_type,__n) > max_size() || __old_size > max_size() - __STATIC_CAST(size_type,__n))

  00031	83 fb fe	 cmp	 ebx, -2			; fffffffeH
  00034	89 5d ec	 mov	 DWORD PTR tv295[ebp], ebx
  00037	77 09		 ja	 SHORT $L109907
  00039	6a fe		 push	 -2			; fffffffeH
  0003b	59		 pop	 ecx
  0003c	2b cb		 sub	 ecx, ebx
  0003e	3b f9		 cmp	 edi, ecx
  00040	76 0e		 jbe	 SHORT $L115702
$L109907:

; 548  : 	      this->_M_throw_length_error();

  00042	68 00 00 00 00	 push	 OFFSET FLAT:??_C@_0N@GOPDCEEB@basic_string?$AA@
  00047	e8 00 00 00 00	 call	 ?__stl_throw_length_error@_STL@@YAXPBD@Z ; _STL::__stl_throw_length_error
  0004c	8b 45 0c	 mov	 eax, DWORD PTR ___last$[ebp]
  0004f	59		 pop	 ecx
$L115702:

; 549  : 	    if (__old_size + __n > capacity()) {

  00050	8b 4e 08	 mov	 ecx, DWORD PTR [esi+8]
  00053	2b 0e		 sub	 ecx, DWORD PTR [esi]
  00055	8d 14 3b	 lea	 edx, DWORD PTR [ebx+edi]
  00058	49		 dec	 ecx
  00059	3b d1		 cmp	 edx, ecx
  0005b	0f 86 93 00 00
	00		 jbe	 $L109908

; 550  : 	      const size_type __len = __old_size +
; 551  : 	                            (max)(__old_size, __STATIC_CAST(size_type,__n)) + 1;

  00061	3b fb		 cmp	 edi, ebx
  00063	89 5d 0c	 mov	 DWORD PTR $T115667[ebp], ebx
  00066	8d 45 0c	 lea	 eax, DWORD PTR $T115667[ebp]
  00069	72 03		 jb	 SHORT $L115715
  0006b	8d 45 e4	 lea	 eax, DWORD PTR ___old_size$109902[ebp]
$L115715:
  0006e	8b 00		 mov	 eax, DWORD PTR [eax]
  00070	8d 7c 38 01	 lea	 edi, DWORD PTR [eax+edi+1]

; 552  : 	      pointer __new_start = this->_M_end_of_storage.allocate(__len);

  00074	85 ff		 test	 edi, edi
  00076	89 7d e8	 mov	 DWORD PTR ___len$109909[ebp], edi
  00079	74 0b		 je	 SHORT $L115720
  0007b	57		 push	 edi
  0007c	e8 00 00 00 00	 call	 ?allocate@?$__node_alloc@$00$0A@@_STL@@SAPAXI@Z ; _STL::__node_alloc<1,0>::allocate
  00081	59		 pop	 ecx
  00082	8b d8		 mov	 ebx, eax
  00084	eb 02		 jmp	 SHORT $L115839
$L115720:
  00086	33 db		 xor	 ebx, ebx
$L115839:

; 553  : 	      pointer __new_finish = __new_start;
; 554  : 	      _STLP_TRY {
; 555  : 	        __new_finish = uninitialized_copy(this->_M_start, this->_M_finish, __new_start);

  00088	8b 4e 04	 mov	 ecx, DWORD PTR [esi+4]
  0008b	8b 16		 mov	 edx, DWORD PTR [esi]
  0008d	83 65 fc 00	 and	 DWORD PTR __$EHRec$[ebp+12], 0
  00091	33 c0		 xor	 eax, eax
  00093	8d 7d 0f	 lea	 edi, DWORD PTR $T115761[ebp]
  00096	aa		 stosb
  00097	8d 45 0f	 lea	 eax, DWORD PTR $T115761[ebp]
  0009a	50		 push	 eax
  0009b	53		 push	 ebx
  0009c	51		 push	 ecx
  0009d	52		 push	 edx
  0009e	89 5d e4	 mov	 DWORD PTR ___new_start$109912[ebp], ebx
  000a1	e8 00 00 00 00	 call	 ??$__uninitialized_copy@PADPAD@_STL@@YAPADPAD00ABU__true_type@0@@Z ; _STL::__uninitialized_copy<char *,char *>
  000a6	83 c4 10	 add	 esp, 16			; 00000010H

; 556  : 	        __new_finish = uninitialized_copy(__first, __last, __new_finish);

  000a9	ff 75 ec	 push	 DWORD PTR tv295[ebp]
  000ac	ff 75 08	 push	 DWORD PTR ___first$[ebp]
  000af	50		 push	 eax
  000b0	e8 00 00 00 00	 call	 _memmove

; 560  : 	                    this->_M_end_of_storage.deallocate(__new_start,__len)));

  000b5	83 4d fc ff	 or	 DWORD PTR __$EHRec$[ebp+12], -1
  000b9	8b f8		 mov	 edi, eax
  000bb	03 7d ec	 add	 edi, DWORD PTR tv295[ebp]
  000be	83 c4 0c	 add	 esp, 12			; 0000000cH

; 561  : 	      _STLP_STD::_Destroy(this->_M_start, this->_M_finish + 1);
; 562  : 	      this->_M_deallocate_block();

  000c1	8b ce		 mov	 ecx, esi
  000c3	c6 07 00	 mov	 BYTE PTR [edi], 0
  000c6	e8 00 00 00 00	 call	 ?_M_deallocate_block@?$_String_base@DV?$allocator@D@_STL@@@_STL@@QAEXXZ ; _STL::_String_base<char,_STL::allocator<char> >::_M_deallocate_block

; 563  : 	      this->_M_start = __new_start;
; 564  : 	      this->_M_finish = __new_finish;
; 565  : 	      this->_M_end_of_storage._M_data = __new_start + __len; 

  000cb	8b 45 e8	 mov	 eax, DWORD PTR ___len$109909[ebp]
  000ce	89 1e		 mov	 DWORD PTR [esi], ebx
  000d0	03 d8		 add	 ebx, eax
  000d2	89 7e 04	 mov	 DWORD PTR [esi+4], edi
  000d5	89 5e 08	 mov	 DWORD PTR [esi+8], ebx

; 566  : 	    }
; 567  : 	    else {

  000d8	eb 47		 jmp	 SHORT $L109915
$L115669:

; 557  : 	        _M_construct_null(__new_finish);
; 558  : 	      }
; 559  : 	      _STLP_UNWIND((_STLP_STD::_Destroy(__new_start,__new_finish),

  000da	ff 75 e8	 push	 DWORD PTR ___len$109909[ebp]
  000dd	8b 4d e0	 mov	 ecx, DWORD PTR _this$[ebp]
  000e0	ff 75 e4	 push	 DWORD PTR ___new_start$109912[ebp]
  000e3	83 c1 08	 add	 ecx, 8
  000e6	e8 00 00 00 00	 call	 ?deallocate@?$allocator@D@_STL@@QAEXPADI@Z ; _STL::allocator<char>::deallocate

; 560  : 	                    this->_M_end_of_storage.deallocate(__new_start,__len)));

  000eb	6a 00		 push	 0
  000ed	6a 00		 push	 0
  000ef	e8 00 00 00 00	 call	 __CxxThrowException@8
$L115843:
$L109908:

; 568  : 	      _ForwardIter __f1 = __first;
; 569  : 	      ++__f1;

  000f4	8b 4d 08	 mov	 ecx, DWORD PTR ___first$[ebp]
  000f7	41		 inc	 ecx

; 570  : 	      uninitialized_copy(__f1, __last, this->_M_finish + 1);

  000f8	3b c1		 cmp	 eax, ecx
  000fa	74 11		 je	 SHORT $L115808
  000fc	2b c1		 sub	 eax, ecx
  000fe	50		 push	 eax
  000ff	8b 46 04	 mov	 eax, DWORD PTR [esi+4]
  00102	51		 push	 ecx
  00103	40		 inc	 eax
  00104	50		 push	 eax
  00105	e8 00 00 00 00	 call	 _memmove
  0010a	83 c4 0c	 add	 esp, 12			; 0000000cH
$L115808:

; 571  : 	      _STLP_TRY {
; 572  : 	        _M_construct_null(this->_M_finish + __n);

  0010d	8b 46 04	 mov	 eax, DWORD PTR [esi+4]

; 573  : 	      }
; 574  : 	      _STLP_UNWIND(_STLP_STD::_Destroy(this->_M_finish + 1, this->_M_finish + __n));
; 575  : 	      _Traits::assign(*end(), *__first);

  00110	8b 4d 08	 mov	 ecx, DWORD PTR ___first$[ebp]
  00113	c6 04 03 00	 mov	 BYTE PTR [ebx+eax], 0
  00117	8b 46 04	 mov	 eax, DWORD PTR [esi+4]
  0011a	8a 09		 mov	 cl, BYTE PTR [ecx]
  0011c	88 08		 mov	 BYTE PTR [eax], cl

; 576  : 	      this->_M_finish += __n;

  0011e	01 5e 04	 add	 DWORD PTR [esi+4], ebx
$L109915:

; 577  : 	    }
; 578  : 	  }
; 579  : 	  return *this;  
; 580  : 	}

  00121	8b 4d f4	 mov	 ecx, DWORD PTR __$EHRec$[ebp+4]
  00124	5f		 pop	 edi
  00125	8b c6		 mov	 eax, esi
  00127	5e		 pop	 esi
  00128	64 89 0d 00 00
	00 00		 mov	 DWORD PTR fs:__except_list, ecx
  0012f	5b		 pop	 ebx
  00130	c9		 leave
  00131	c2 0c 00	 ret	 12			; 0000000cH
$L115838:
_TEXT	ENDS
;	COMDAT text$x
text$x	SEGMENT
__ehhandler$??$append@PBD@?$basic_string@DV?$char_traits@D@_STL@@V?$allocator@D@2@@_STL@@AAEAAV01@PBD0ABUforward_iterator_tag@1@@Z:
  00000	b8 00 00 00 00	 mov	 eax, OFFSET FLAT:$T115836
  00005	e9 00 00 00 00	 jmp	 ___CxxFrameHandler
text$x	ENDS
??$append@PBD@?$basic_string@DV?$char_traits@D@_STL@@V?$allocator@D@2@@_STL@@AAEAAV01@PBD0ABUforward_iterator_tag@1@@Z ENDP ; _STL::basic_string<char,_STL::char_traits<char>,_STL::allocator<char> >::append<char const *>
PUBLIC	??$__copy_aux@PADPAD@_STL@@YAPADPAD00ABU__true_type@0@@Z ; _STL::__copy_aux<char *,char *>
; Function compile flags: /Ogsy
; File c:\stlport-4.6.1\stlport\stl\_uninitialized.h
;	COMDAT ??$__uninitialized_copy@PADPAD@_STL@@YAPADPAD00ABU__true_type@0@@Z
_TEXT	SEGMENT
$T115852 = -1						; size = 1
$T115848 = -1						; size = 1
___first$ = 8						; size = 4
___last$ = 12						; size = 4
___result$ = 16						; size = 4
___formal$ = 20						; size = 4
??$__uninitialized_copy@PADPAD@_STL@@YAPADPAD00ABU__true_type@0@@Z PROC NEAR ; _STL::__uninitialized_copy<char *,char *>, COMDAT

; 54   :                      const __true_type&) {

  00000	55		 push	 ebp
  00001	8b ec		 mov	 ebp, esp
  00003	51		 push	 ecx
  00004	57		 push	 edi

; 55   :   return __copy_aux(__first, __last, __result, _BothPtrType< _InputIter, _ForwardIter> :: _Ret());

  00005	33 c0		 xor	 eax, eax
  00007	8d 7d ff	 lea	 edi, DWORD PTR $T115852[ebp]
  0000a	aa		 stosb
  0000b	8a 45 ff	 mov	 al, BYTE PTR $T115852[ebp]
  0000e	88 45 ff	 mov	 BYTE PTR $T115848[ebp], al
  00011	8d 45 ff	 lea	 eax, DWORD PTR $T115848[ebp]
  00014	50		 push	 eax
  00015	ff 75 10	 push	 DWORD PTR ___result$[ebp]
  00018	ff 75 0c	 push	 DWORD PTR ___last$[ebp]
  0001b	ff 75 08	 push	 DWORD PTR ___first$[ebp]
  0001e	e8 00 00 00 00	 call	 ??$__copy_aux@PADPAD@_STL@@YAPADPAD00ABU__true_type@0@@Z ; _STL::__copy_aux<char *,char *>
  00023	83 c4 10	 add	 esp, 16			; 00000010H
  00026	5f		 pop	 edi

; 56   : }

  00027	c9		 leave
  00028	c3		 ret	 0
??$__uninitialized_copy@PADPAD@_STL@@YAPADPAD00ABU__true_type@0@@Z ENDP ; _STL::__uninitialized_copy<char *,char *>
; Function compile flags: /Ogsy
; File c:\stlport-4.6.1\stlport\stl\_algobase.h
_TEXT	ENDS
;	COMDAT ??$__copy_aux@PADPAD@_STL@@YAPADPAD00ABU__true_type@0@@Z
_TEXT	SEGMENT
___first$ = 8						; size = 4
___last$ = 12						; size = 4
___result$ = 16						; size = 4
___formal$ = 20						; size = 4
??$__copy_aux@PADPAD@_STL@@YAPADPAD00ABU__true_type@0@@Z PROC NEAR ; _STL::__copy_aux<char *,char *>, COMDAT

; 201  : inline _OutputIter __copy_aux(_InputIter __first, _InputIter __last, _OutputIter __result, const __true_type&) {

  00000	55		 push	 ebp
  00001	8b ec		 mov	 ebp, esp
  00003	56		 push	 esi

; 202  :   return __copy_ptrs(__first, __last, __result, 
; 203  :                      _IsOKToMemCpy(_STLP_VALUE_TYPE(__first, _InputIter), 
; 204  :                                    _STLP_VALUE_TYPE(__result, _OutputIter))._Ret());

  00004	8b 75 0c	 mov	 esi, DWORD PTR ___last$[ebp]
  00007	3b 75 08	 cmp	 esi, DWORD PTR ___first$[ebp]
  0000a	75 05		 jne	 SHORT $L115905
  0000c	8b 45 10	 mov	 eax, DWORD PTR ___result$[ebp]
  0000f	eb 14		 jmp	 SHORT $L115906
$L115905:
  00011	2b 75 08	 sub	 esi, DWORD PTR ___first$[ebp]
  00014	56		 push	 esi
  00015	ff 75 08	 push	 DWORD PTR ___first$[ebp]
  00018	ff 75 10	 push	 DWORD PTR ___result$[ebp]
  0001b	e8 00 00 00 00	 call	 _memmove
  00020	83 c4 0c	 add	 esp, 12			; 0000000cH
  00023	03 c6		 add	 eax, esi
$L115906:
  00025	5e		 pop	 esi

; 205  : }

  00026	5d		 pop	 ebp
  00027	c3		 ret	 0
??$__copy_aux@PADPAD@_STL@@YAPADPAD00ABU__true_type@0@@Z ENDP ; _STL::__copy_aux<char *,char *>
_TEXT	ENDS
PUBLIC	?is_open@iovfs_base@@QBE_NXZ			; iovfs_base::is_open
PUBLIC	??$?HDV?$char_traits@D@_STL@@V?$allocator@D@1@@_STL@@YA?AV?$basic_string@DV?$char_traits@D@_STL@@V?$allocator@D@2@@0@ABV10@PBD@Z ; _STL::operator+<char,_STL::char_traits<char>,_STL::allocator<char> >
PUBLIC	??_C@_0M@KJGOGBJN@?2header?4inf?$AA@		; `string'
PUBLIC	??0?$basic_string@DV?$char_traits@D@_STL@@V?$allocator@D@2@@_STL@@QAE@PBDABV?$allocator@D@1@@Z ; _STL::basic_string<char,_STL::char_traits<char>,_STL::allocator<char> >::basic_string<char,_STL::char_traits<char>,_STL::allocator<char> >
PUBLIC	?push_back@?$basic_string@DV?$char_traits@D@_STL@@V?$allocator@D@2@@_STL@@QAEXD@Z ; _STL::basic_string<char,_STL::char_traits<char>,_STL::allocator<char> >::push_back
EXTRN	?IsFileExist@VirtualFileSystem@@QBE_NPBD@Z:NEAR	; VirtualFileSystem::IsFileExist
EXTRN	?s_VFSystem@iovfs_base@@1VVirtualFileSystem@@A:DWORD ; iovfs_base::s_VFSystem
EXTRN	_atoi:NEAR
EXTRN	__splitpath:NEAR
;	COMDAT xdata$x
; File c:\stlport-4.6.1\stlport\stl\_alloc.h
xdata$x	SEGMENT
$T116302 DD	0ffffffffH
	DD	FLAT:$L115923
	DD	00H
	DD	FLAT:$L115952
	DD	00H
	DD	FLAT:$L115924
	DD	02H
	DD	FLAT:$L115925
	DD	03H
	DD	FLAT:$L115990
	DD	03H
	DD	FLAT:$L115926
	DD	02H
	DD	FLAT:$L115927
$T116288 DD	019930520H
	DD	07H
	DD	FLAT:$T116302
	DD	2 DUP(00H)
	DD	2 DUP(00H)
xdata$x	ENDS
;	COMDAT ??_C@_0M@KJGOGBJN@?2header?4inf?$AA@
CONST	SEGMENT
??_C@_0M@KJGOGBJN@?2header?4inf?$AA@ DB '\header.inf', 00H ; `string'
; Function compile flags: /Ogsy
; File c:\darkeden\designed_common\project\client\spritelib\ctypepack.h
CONST	ENDS
;	COMDAT ?LoadFromFileRunning@?$CTypePack2@VCSprite@@VCSprite555@@VCSprite565@@@@UAE_NPBD@Z
_TEXT	SEGMENT
_indexFile$ = -476					; size = 80
_fileHeader$108127 = -396				; size = 80
_indexFileName$ = -316					; size = 12
_strHeaderPath$108117 = -304				; size = 12
$T115912 = -289						; size = 1
_indexSize$ = -288					; size = 2
_bLoadIndexFile$ = -281					; size = 1
_szExt$108134 = -280					; size = 256
_lineBuffer$108131 = -24				; size = 8
$T115917 = -20						; size = 4
__$ArrayPad$ = -16					; size = 4
__$EHRec$ = -12						; size = 12
__$ReturnAddr$ = 4					; size = 4
_lpszFilename$ = 8					; size = 4
?LoadFromFileRunning@?$CTypePack2@VCSprite@@VCSprite555@@VCSprite565@@@@UAE_NPBD@Z PROC NEAR ; CTypePack2<CSprite,CSprite555,CSprite565>::LoadFromFileRunning, COMDAT
; _this$ = ecx

; 1083 : {

  00000	b8 00 00 00 00	 mov	 eax, __ehhandler$?LoadFromFileRunning@?$CTypePack2@VCSprite@@VCSprite555@@VCSprite565@@@@UAE_NPBD@Z
  00005	e8 00 00 00 00	 call	 __EH_prolog
  0000a	81 ec d0 01 00
	00		 sub	 esp, 464		; 000001d0H
  00010	a1 00 00 00 00	 mov	 eax, DWORD PTR ___security_cookie
  00015	53		 push	 ebx
  00016	56		 push	 esi
  00017	8b f1		 mov	 esi, ecx
  00019	89 45 f0	 mov	 DWORD PTR __$ArrayPad$[ebp], eax

; 1084 : 	Release();

  0001c	8b 06		 mov	 eax, DWORD PTR [esi]
  0001e	57		 push	 edi
  0001f	ff 50 08	 call	 DWORD PTR [eax+8]

; 1085 : 
; 1086 : 	//    .
; 1087 : 	std::string indexFileName = lpszFilename;

  00022	8d 85 df fe ff
	ff		 lea	 eax, DWORD PTR $T115912[ebp]
  00028	50		 push	 eax
  00029	ff 75 08	 push	 DWORD PTR _lpszFilename$[ebp]
  0002c	8d 8d c4 fe ff
	ff		 lea	 ecx, DWORD PTR _indexFileName$[ebp]
  00032	e8 00 00 00 00	 call	 ??0?$basic_string@DV?$char_traits@D@_STL@@V?$allocator@D@2@@_STL@@QAE@PBDABV?$allocator@D@1@@Z ; _STL::basic_string<char,_STL::char_traits<char>,_STL::allocator<char> >::basic_string<char,_STL::char_traits<char>,_STL::allocator<char> >
  00037	83 65 fc 00	 and	 DWORD PTR __$EHRec$[ebp+8], 0

; 1088 : 	indexFileName += 'i';

  0003b	6a 69		 push	 105			; 00000069H
  0003d	8d 8d c4 fe ff
	ff		 lea	 ecx, DWORD PTR _indexFileName$[ebp]
  00043	e8 00 00 00 00	 call	 ?push_back@?$basic_string@DV?$char_traits@D@_STL@@V?$allocator@D@2@@_STL@@QAEXD@Z ; _STL::basic_string<char,_STL::char_traits<char>,_STL::allocator<char> >::push_back

; 1089 : 
; 1090 : 	WORD indexSize = 0;

  00048	83 a5 e0 fe ff
	ff 00		 and	 DWORD PTR _indexSize$[ebp], 0

; 1091 : 	bool bLoadIndexFile = false;
; 1092 : 
; 1093 : 	ivfstream indexFile(indexFileName.c_str(), std::ios::binary);

  0004f	8b 9d c4 fe ff
	ff		 mov	 ebx, DWORD PTR _indexFileName$[ebp]
  00055	8d 8d 24 fe ff
	ff		 lea	 ecx, DWORD PTR _indexFile$[ebp]
  0005b	c6 85 e7 fe ff
	ff 00		 mov	 BYTE PTR _bLoadIndexFile$[ebp], 0
  00062	e8 00 00 00 00	 call	 ??0iovfs_base@@QAE@XZ	; iovfs_base::iovfs_base
  00067	6a 0c		 push	 12			; 0000000cH
  00069	bf 00 00 00 00	 mov	 edi, OFFSET FLAT:??_7ivfstream@@6B@
  0006e	53		 push	 ebx
  0006f	8d 8d 24 fe ff
	ff		 lea	 ecx, DWORD PTR _indexFile$[ebp]
  00075	c6 45 fc 01	 mov	 BYTE PTR __$EHRec$[ebp+8], 1
  00079	89 bd 24 fe ff
	ff		 mov	 DWORD PTR _indexFile$[ebp], edi
  0007f	e8 00 00 00 00	 call	 ?open@iovfs_base@@UAEXPBDH@Z ; iovfs_base::open

; 1094 : 
; 1095 : 	if(indexFile.is_open())

  00084	8d 8d 24 fe ff
	ff		 lea	 ecx, DWORD PTR _indexFile$[ebp]
  0008a	c6 45 fc 02	 mov	 BYTE PTR __$EHRec$[ebp+8], 2
  0008e	e8 00 00 00 00	 call	 ?is_open@iovfs_base@@QBE_NXZ ; iovfs_base::is_open
  00093	84 c0		 test	 al, al
  00095	74 7a		 je	 SHORT $L116297

; 1096 : 	{
; 1097 : 		indexFile.read((char *)&indexSize, 2);

  00097	8b 8d 28 fe ff
	ff		 mov	 ecx, DWORD PTR _indexFile$[ebp+4]
  0009d	85 c9		 test	 ecx, ecx
  0009f	74 0e		 je	 SHORT $L116296
  000a1	8b 01		 mov	 eax, DWORD PTR [ecx]
  000a3	6a 02		 push	 2
  000a5	8d 95 e0 fe ff
	ff		 lea	 edx, DWORD PTR _indexSize$[ebp]
  000ab	52		 push	 edx
  000ac	ff 50 10	 call	 DWORD PTR [eax+16]
$L116296:

; 1098 : 
; 1099 : 		Init(indexSize);

  000af	ff b5 e0 fe ff
	ff		 push	 DWORD PTR _indexSize$[ebp]
  000b5	8b 06		 mov	 eax, DWORD PTR [esi]
  000b7	8b ce		 mov	 ecx, esi
  000b9	ff 50 04	 call	 DWORD PTR [eax+4]

; 1100 : 		
; 1101 : 		m_file_index = new int[indexSize];

  000bc	0f b7 85 e0 fe
	ff ff		 movzx	 eax, WORD PTR _indexSize$[ebp]
  000c3	c1 e0 02	 shl	 eax, 2
  000c6	50		 push	 eax
  000c7	e8 00 00 00 00	 call	 ??_U@YAPAXI@Z		; operator new[]

; 1102 : 		
; 1103 : 		register int i = 0;

  000cc	33 db		 xor	 ebx, ebx

; 1104 : 		
; 1105 : 		for(; i < indexSize; ++i)

  000ce	66 39 9d e0 fe
	ff ff		 cmp	 WORD PTR _indexSize$[ebp], bx
  000d5	59		 pop	 ecx
  000d6	89 46 10	 mov	 DWORD PTR [esi+16], eax
  000d9	76 24		 jbe	 SHORT $L108113
$L116299:

; 1106 : 		{
; 1107 : 			//if ( i == 1599 )
; 1108 : 			//	int a = 0;
; 1109 : 			indexFile.read((char*)&m_file_index[i], 4);

  000db	8b 8d 28 fe ff
	ff		 mov	 ecx, DWORD PTR _indexFile$[ebp+4]
  000e1	85 c9		 test	 ecx, ecx
  000e3	8b 46 10	 mov	 eax, DWORD PTR [esi+16]
  000e6	8d 04 98	 lea	 eax, DWORD PTR [eax+ebx*4]
  000e9	74 08		 je	 SHORT $L108112
  000eb	8b 11		 mov	 edx, DWORD PTR [ecx]
  000ed	6a 04		 push	 4
  000ef	50		 push	 eax
  000f0	ff 52 10	 call	 DWORD PTR [edx+16]
$L108112:
  000f3	0f b7 85 e0 fe
	ff ff		 movzx	 eax, WORD PTR _indexSize$[ebp]
  000fa	43		 inc	 ebx
  000fb	3b d8		 cmp	 ebx, eax
  000fd	7c dc		 jl	 SHORT $L116299
$L108113:

; 1110 : 		}
; 1111 : 		
; 1112 : 		indexFile.close();

  000ff	8d 8d 24 fe ff
	ff		 lea	 ecx, DWORD PTR _indexFile$[ebp]
  00105	e8 00 00 00 00	 call	 ?close@iovfs_base@@QAEXXZ ; iovfs_base::close

; 1113 : 		
; 1114 : 		bLoadIndexFile = true;

  0010a	c6 85 e7 fe ff
	ff 01		 mov	 BYTE PTR _bLoadIndexFile$[ebp], 1
$L116297:

; 1115 : 	}
; 1116 : 	else
; 1117 : 	{
; 1118 : #ifdef OUTPUT_DEBUG
; 1119 : 		char szBuf[256];
; 1120 : 		sprintf(szBuf, "CTypePack Can Not Find Index File: %s\n", indexFileName.c_str());
; 1121 : 		OutputDebugString(szBuf);
; 1122 : #endif
; 1123 : 	}
; 1124 : 
; 1125 : 	//     .
; 1126 : 	//     .
; 1127 : 	m_bSplitFile = !iovfs_base::get_vfs()->IsFileExist(lpszFilename);

  00111	ff 75 08	 push	 DWORD PTR _lpszFilename$[ebp]
  00114	b9 00 00 00 00	 mov	 ecx, OFFSET FLAT:?s_VFSystem@iovfs_base@@1VVirtualFileSystem@@A ; iovfs_base::s_VFSystem
  00119	e8 00 00 00 00	 call	 ?IsFileExist@VirtualFileSystem@@QBE_NPBD@Z ; VirtualFileSystem::IsFileExist
  0011e	f6 d8		 neg	 al
  00120	1a c0		 sbb	 al, al
  00122	fe c0		 inc	 al
  00124	88 46 14	 mov	 BYTE PTR [esi+20], al

; 1128 : 
; 1129 : 	if(m_bSplitFile)

  00127	0f 84 c6 01 00
	00		 je	 $L108116

; 1130 : 	{
; 1131 : 		m_strFileName = lpszFilename;

  0012d	ff 75 08	 push	 DWORD PTR _lpszFilename$[ebp]
  00130	8d 5e 20	 lea	 ebx, DWORD PTR [esi+32]
  00133	e8 00 00 00 00	 call	 _strlen
  00138	03 45 08	 add	 eax, DWORD PTR _lpszFilename$[ebp]
  0013b	59		 pop	 ecx
  0013c	50		 push	 eax
  0013d	ff 75 08	 push	 DWORD PTR _lpszFilename$[ebp]
  00140	8b cb		 mov	 ecx, ebx
  00142	e8 00 00 00 00	 call	 ?assign@?$basic_string@DV?$char_traits@D@_STL@@V?$allocator@D@2@@_STL@@QAEAAV12@PBD0@Z ; _STL::basic_string<char,_STL::char_traits<char>,_STL::allocator<char> >::assign

; 1132 : 		
; 1133 : 		std::string strHeaderPath = m_strFileName + "\\header.inf";

  00147	68 00 00 00 00	 push	 OFFSET FLAT:??_C@_0M@KJGOGBJN@?2header?4inf?$AA@
  0014c	8d 85 d0 fe ff
	ff		 lea	 eax, DWORD PTR _strHeaderPath$108117[ebp]
  00152	53		 push	 ebx
  00153	50		 push	 eax
  00154	e8 00 00 00 00	 call	 ??$?HDV?$char_traits@D@_STL@@V?$allocator@D@1@@_STL@@YA?AV?$basic_string@DV?$char_traits@D@_STL@@V?$allocator@D@2@@0@ABV10@PBD@Z ; _STL::operator+<char,_STL::char_traits<char>,_STL::allocator<char> >
  00159	83 c4 0c	 add	 esp, 12			; 0000000cH

; 1134 : 		ivfstream fileHeader(strHeaderPath.c_str(), 0);

  0015c	8b 9d d0 fe ff
	ff		 mov	 ebx, DWORD PTR _strHeaderPath$108117[ebp]
  00162	8d 8d 74 fe ff
	ff		 lea	 ecx, DWORD PTR _fileHeader$108127[ebp]
  00168	c6 45 fc 03	 mov	 BYTE PTR __$EHRec$[ebp+8], 3
  0016c	e8 00 00 00 00	 call	 ??0iovfs_base@@QAE@XZ	; iovfs_base::iovfs_base
  00171	6a 08		 push	 8
  00173	53		 push	 ebx
  00174	8d 8d 74 fe ff
	ff		 lea	 ecx, DWORD PTR _fileHeader$108127[ebp]
  0017a	c6 45 fc 04	 mov	 BYTE PTR __$EHRec$[ebp+8], 4
  0017e	89 bd 74 fe ff
	ff		 mov	 DWORD PTR _fileHeader$108127[ebp], edi
  00184	e8 00 00 00 00	 call	 ?open@iovfs_base@@UAEXPBDH@Z ; iovfs_base::open

; 1135 : 		
; 1136 : 		if(!fileHeader.is_open())

  00189	8d 8d 74 fe ff
	ff		 lea	 ecx, DWORD PTR _fileHeader$108127[ebp]
  0018f	c6 45 fc 05	 mov	 BYTE PTR __$EHRec$[ebp+8], 5
  00193	e8 00 00 00 00	 call	 ?is_open@iovfs_base@@QBE_NXZ ; iovfs_base::is_open
  00198	84 c0		 test	 al, al
  0019a	75 45		 jne	 SHORT $L108128

; 1137 : 		{
; 1138 : 			Release();

  0019c	8b 06		 mov	 eax, DWORD PTR [esi]
  0019e	8b ce		 mov	 ecx, esi
  001a0	ff 50 08	 call	 DWORD PTR [eax+8]

; 1139 : 			return false;

  001a3	8d 8d 74 fe ff
	ff		 lea	 ecx, DWORD PTR _fileHeader$108127[ebp]
  001a9	c6 45 fc 03	 mov	 BYTE PTR __$EHRec$[ebp+8], 3
  001ad	89 bd 74 fe ff
	ff		 mov	 DWORD PTR _fileHeader$108127[ebp], edi
  001b3	e8 00 00 00 00	 call	 ??1iovfs_base@@UAE@XZ	; iovfs_base::~iovfs_base
  001b8	8b 85 d8 fe ff
	ff		 mov	 eax, DWORD PTR _strHeaderPath$108117[ebp+8]
  001be	2b 85 d0 fe ff
	ff		 sub	 eax, DWORD PTR _strHeaderPath$108117[ebp]
  001c4	8d 8d d8 fe ff
	ff		 lea	 ecx, DWORD PTR _strHeaderPath$108117[ebp+8]
  001ca	50		 push	 eax
  001cb	ff b5 d0 fe ff
	ff		 push	 DWORD PTR _strHeaderPath$108117[ebp]
  001d1	c6 45 fc 02	 mov	 BYTE PTR __$EHRec$[ebp+8], 2
  001d5	e8 00 00 00 00	 call	 ?deallocate@?$allocator@D@_STL@@QAEXPADI@Z ; _STL::allocator<char>::deallocate
  001da	32 db		 xor	 bl, bl
  001dc	e9 9a 01 00 00	 jmp	 $L116294
$L108128:

; 1140 : 		}
; 1141 : 		
; 1142 : 		const int bufferSize = 8;
; 1143 : 		char lineBuffer[bufferSize];
; 1144 : 
; 1145 : 		fileHeader.getline(lineBuffer, bufferSize);

  001e1	8b 8d 78 fe ff
	ff		 mov	 ecx, DWORD PTR _fileHeader$108127[ebp+4]
  001e7	33 db		 xor	 ebx, ebx
  001e9	3b cb		 cmp	 ecx, ebx
  001eb	74 0d		 je	 SHORT $L116298
  001ed	8b 01		 mov	 eax, DWORD PTR [ecx]
  001ef	6a 0a		 push	 10			; 0000000aH
  001f1	6a 08		 push	 8
  001f3	8d 55 e8	 lea	 edx, DWORD PTR _lineBuffer$108131[ebp]
  001f6	52		 push	 edx
  001f7	ff 50 2c	 call	 DWORD PTR [eax+44]
$L116298:

; 1146 : 		m_Size = static_cast<WORD>(atoi(lineBuffer));

  001fa	8d 45 e8	 lea	 eax, DWORD PTR _lineBuffer$108131[ebp]
  001fd	50		 push	 eax
  001fe	e8 00 00 00 00	 call	 _atoi
  00203	59		 pop	 ecx

; 1147 : 
; 1148 : 		fileHeader.getline(lineBuffer, bufferSize);

  00204	8b 8d 78 fe ff
	ff		 mov	 ecx, DWORD PTR _fileHeader$108127[ebp+4]
  0020a	3b cb		 cmp	 ecx, ebx
  0020c	66 89 46 08	 mov	 WORD PTR [esi+8], ax
  00210	74 0d		 je	 SHORT $L116091
  00212	8b 01		 mov	 eax, DWORD PTR [ecx]
  00214	6a 0a		 push	 10			; 0000000aH
  00216	6a 08		 push	 8
  00218	8d 55 e8	 lea	 edx, DWORD PTR _lineBuffer$108131[ebp]
  0021b	52		 push	 edx
  0021c	ff 50 2c	 call	 DWORD PTR [eax+44]
$L116091:

; 1149 : 		m_nUnitCount = static_cast<int>(atoi(lineBuffer));

  0021f	8d 45 e8	 lea	 eax, DWORD PTR _lineBuffer$108131[ebp]
  00222	50		 push	 eax
  00223	e8 00 00 00 00	 call	 _atoi
  00228	59		 pop	 ecx
  00229	89 46 18	 mov	 DWORD PTR [esi+24], eax

; 1150 : 		m_nUnitTwoMultiplier = LogTwoMultiplier(m_nUnitCount);

  0022c	8b c8		 mov	 ecx, eax
  0022e	33 c0		 xor	 eax, eax
$L116096:
  00230	f6 c1 01	 test	 cl, 1
  00233	75 0a		 jne	 SHORT $L116094
  00235	d1 f9		 sar	 ecx, 1
  00237	40		 inc	 eax
  00238	83 f8 08	 cmp	 eax, 8
  0023b	7c f3		 jl	 SHORT $L116096
  0023d	33 c0		 xor	 eax, eax
$L116094:

; 1151 : 
; 1152 : 		fileHeader.close();

  0023f	8d 8d 74 fe ff
	ff		 lea	 ecx, DWORD PTR _fileHeader$108127[ebp]
  00245	89 46 1c	 mov	 DWORD PTR [esi+28], eax
  00248	e8 00 00 00 00	 call	 ?close@iovfs_base@@QAEXXZ ; iovfs_base::close

; 1153 : 		
; 1154 : 		//  
; 1155 : 		char szExt[_MAX_EXT];
; 1156 : 		_splitpath(lpszFilename, NULL, NULL, NULL, szExt);

  0024d	8d 85 e8 fe ff
	ff		 lea	 eax, DWORD PTR _szExt$108134[ebp]
  00253	50		 push	 eax
  00254	53		 push	 ebx
  00255	53		 push	 ebx
  00256	53		 push	 ebx
  00257	ff 75 08	 push	 DWORD PTR _lpszFilename$[ebp]
  0025a	e8 00 00 00 00	 call	 __splitpath

; 1157 : 		
; 1158 : 		m_strFileExt = szExt;

  0025f	8d 85 e8 fe ff
	ff		 lea	 eax, DWORD PTR _szExt$108134[ebp]
  00265	50		 push	 eax
  00266	e8 00 00 00 00	 call	 _strlen
  0026b	83 c4 18	 add	 esp, 24			; 00000018H
  0026e	8d 84 05 e8 fe
	ff ff		 lea	 eax, DWORD PTR _szExt$108134[ebp+eax]
  00275	50		 push	 eax
  00276	8d 85 e8 fe ff
	ff		 lea	 eax, DWORD PTR _szExt$108134[ebp]
  0027c	50		 push	 eax
  0027d	8d 4e 2c	 lea	 ecx, DWORD PTR [esi+44]
  00280	e8 00 00 00 00	 call	 ?assign@?$basic_string@DV?$char_traits@D@_STL@@V?$allocator@D@2@@_STL@@QAEAAV12@PBD0@Z ; _STL::basic_string<char,_STL::char_traits<char>,_STL::allocator<char> >::assign

; 1159 : 
; 1160 : 		if(!bLoadIndexFile || indexSize != m_Size)

  00285	80 bd e7 fe ff
	ff 00		 cmp	 BYTE PTR _bLoadIndexFile$[ebp], 0
  0028c	74 0d		 je	 SHORT $L108136
  0028e	66 8b 85 e0 fe
	ff ff		 mov	 ax, WORD PTR _indexSize$[ebp]
  00295	66 3b 46 08	 cmp	 ax, WORD PTR [esi+8]
  00299	74 1f		 je	 SHORT $L108135
$L108136:

; 1161 : 		{
; 1162 : 			if(m_file_index)

  0029b	8b 46 10	 mov	 eax, DWORD PTR [esi+16]
  0029e	3b c3		 cmp	 eax, ebx
  002a0	74 0a		 je	 SHORT $L108137

; 1163 : 			{
; 1164 : 				delete m_file_index;

  002a2	50		 push	 eax
  002a3	e8 00 00 00 00	 call	 ??3@YAXPAX@Z		; operator delete
  002a8	59		 pop	 ecx

; 1165 : 				m_file_index = NULL;

  002a9	89 5e 10	 mov	 DWORD PTR [esi+16], ebx
$L108137:

; 1166 : 			}
; 1167 : 
; 1168 : 			Init(m_Size);

  002ac	8b 06		 mov	 eax, DWORD PTR [esi]
  002ae	33 c9		 xor	 ecx, ecx
  002b0	66 8b 4e 08	 mov	 cx, WORD PTR [esi+8]
  002b4	51		 push	 ecx
  002b5	8b ce		 mov	 ecx, esi
  002b7	ff 50 04	 call	 DWORD PTR [eax+4]
$L108135:

; 1169 : 
; 1170 : 			//char szBuf[256];
; 1171 : 			//sprintf(szBuf, "CTypePack Invaild Index File: %s = %d, %s = %d\n",
; 1172 : 			//lpszFilename, m_Size, indexFileName.c_str(), indexSize);
; 1173 : 			//
; 1174 : 			//std::ofstream file3("2.log", std::ios::out | std::ios::app);
; 1175 : 			//file3 << szBuf << std::endl;
; 1176 : 			//file3.close();
; 1177 : //#ifdef OUTPUT_DEBUG
; 1178 : //			char szBuf[256];
; 1179 : //			sprintf(szBuf, "CTypePack Invaild Index File: %s = %d, %s = %d\n",
; 1180 : //				lpszFilename, m_Size, indexFileName.c_str(), indexSize);
; 1181 : //			OutputDebugString(szBuf);
; 1182 : //#endif
; 1183 : 		}
; 1184 : 	}

  002ba	8d 8d 74 fe ff
	ff		 lea	 ecx, DWORD PTR _fileHeader$108127[ebp]
  002c0	c6 45 fc 03	 mov	 BYTE PTR __$EHRec$[ebp+8], 3
  002c4	89 bd 74 fe ff
	ff		 mov	 DWORD PTR _fileHeader$108127[ebp], edi
  002ca	e8 00 00 00 00	 call	 ??1iovfs_base@@UAE@XZ	; iovfs_base::~iovfs_base
  002cf	8b 85 d8 fe ff
	ff		 mov	 eax, DWORD PTR _strHeaderPath$108117[ebp+8]
  002d5	2b 85 d0 fe ff
	ff		 sub	 eax, DWORD PTR _strHeaderPath$108117[ebp]
  002db	8d 8d d8 fe ff
	ff		 lea	 ecx, DWORD PTR _strHeaderPath$108117[ebp+8]
  002e1	50		 push	 eax
  002e2	ff b5 d0 fe ff
	ff		 push	 DWORD PTR _strHeaderPath$108117[ebp]
  002e8	c6 45 fc 02	 mov	 BYTE PTR __$EHRec$[ebp+8], 2
  002ec	e8 00 00 00 00	 call	 ?deallocate@?$allocator@D@_STL@@QAEXPADI@Z ; _STL::allocator<char>::deallocate

; 1185 : 	else

  002f1	eb 77		 jmp	 SHORT $L108148
$L108116:

; 1186 : 	{
; 1187 : 		if(m_file == NULL)

  002f3	83 7e 0c 00	 cmp	 DWORD PTR [esi+12], 0
  002f7	75 29		 jne	 SHORT $L108140

; 1188 : 		{
; 1189 : 			m_file = new ivfstream;

  002f9	6a 50		 push	 80			; 00000050H
  002fb	e8 00 00 00 00	 call	 ??2@YAPAXI@Z		; operator new
  00300	8b d8		 mov	 ebx, eax
  00302	59		 pop	 ecx
  00303	89 5d ec	 mov	 DWORD PTR $T115917[ebp], ebx
  00306	85 db		 test	 ebx, ebx
  00308	c6 45 fc 06	 mov	 BYTE PTR __$EHRec$[ebp+8], 6
  0030c	74 0b		 je	 SHORT $L115918
  0030e	8b cb		 mov	 ecx, ebx
  00310	e8 00 00 00 00	 call	 ??0iovfs_base@@QAE@XZ	; iovfs_base::iovfs_base
  00315	89 3b		 mov	 DWORD PTR [ebx], edi
  00317	eb 02		 jmp	 SHORT $L115919
$L115918:
  00319	33 db		 xor	 ebx, ebx
$L115919:
  0031b	c6 45 fc 02	 mov	 BYTE PTR __$EHRec$[ebp+8], 2
  0031f	89 5e 0c	 mov	 DWORD PTR [esi+12], ebx
$L108140:

; 1190 : 		}
; 1191 : 
; 1192 : 		// file sprite  .	
; 1193 : 		m_file->open(lpszFilename, std::ios::binary);

  00322	8b 4e 0c	 mov	 ecx, DWORD PTR [esi+12]
  00325	8b 01		 mov	 eax, DWORD PTR [ecx]
  00327	6a 04		 push	 4
  00329	ff 75 08	 push	 DWORD PTR _lpszFilename$[ebp]
  0032c	ff 50 04	 call	 DWORD PTR [eax+4]

; 1194 : 
; 1195 : 		if(!m_file->is_open())

  0032f	8b 4e 0c	 mov	 ecx, DWORD PTR [esi+12]
  00332	e8 00 00 00 00	 call	 ?is_open@iovfs_base@@QBE_NXZ ; iovfs_base::is_open
  00337	84 c0		 test	 al, al

; 1208 : 		}
; 1209 : 	}
; 1210 : 
; 1211 : 	m_bRunningLoad = true;

  00339	74 37		 je	 SHORT $L108149
  0033b	8b 46 0c	 mov	 eax, DWORD PTR [esi+12]
  0033e	83 78 04 00	 cmp	 DWORD PTR [eax+4], 0
  00342	74 10		 je	 SHORT $L116201
  00344	8b 40 04	 mov	 eax, DWORD PTR [eax+4]
  00347	8b 10		 mov	 edx, DWORD PTR [eax]
  00349	6a 02		 push	 2
  0034b	8d 4e 08	 lea	 ecx, DWORD PTR [esi+8]
  0034e	51		 push	 ecx
  0034f	8b c8		 mov	 ecx, eax
  00351	ff 52 10	 call	 DWORD PTR [edx+16]
$L116201:

; 1196 : 		{
; 1197 : 			Release();
; 1198 : 			return false;
; 1199 : 		}
; 1200 : 
; 1201 : 		m_file->read((char*)&m_Size, 2);
; 1202 : 
; 1203 : 
; 1204 : 		if(!bLoadIndexFile || indexSize != m_Size)

  00354	80 bd e7 fe ff
	ff 00		 cmp	 BYTE PTR _bLoadIndexFile$[ebp], 0
  0035b	74 15		 je	 SHORT $L108149
  0035d	66 8b 85 e0 fe
	ff ff		 mov	 ax, WORD PTR _indexSize$[ebp]
  00364	66 3b 46 08	 cmp	 ax, WORD PTR [esi+8]
  00368	75 08		 jne	 SHORT $L108149
$L108148:

; 1208 : 		}
; 1209 : 	}
; 1210 : 
; 1211 : 	m_bRunningLoad = true;

  0036a	c6 46 0a 01	 mov	 BYTE PTR [esi+10], 1
  0036e	b3 01		 mov	 bl, 1
  00370	eb 09		 jmp	 SHORT $L116294
$L108149:

; 1205 : 		{
; 1206 : 			Release();

  00372	8b 06		 mov	 eax, DWORD PTR [esi]
  00374	8b ce		 mov	 ecx, esi
  00376	32 db		 xor	 bl, bl
  00378	ff 50 08	 call	 DWORD PTR [eax+8]
$L116294:

; 1207 : 			return false;

  0037b	8d 8d 24 fe ff
	ff		 lea	 ecx, DWORD PTR _indexFile$[ebp]
  00381	c6 45 fc 00	 mov	 BYTE PTR __$EHRec$[ebp+8], 0
  00385	89 bd 24 fe ff
	ff		 mov	 DWORD PTR _indexFile$[ebp], edi
  0038b	e8 00 00 00 00	 call	 ??1iovfs_base@@UAE@XZ	; iovfs_base::~iovfs_base
  00390	8b 85 cc fe ff
	ff		 mov	 eax, DWORD PTR _indexFileName$[ebp+8]
  00396	2b 85 c4 fe ff
	ff		 sub	 eax, DWORD PTR _indexFileName$[ebp]
  0039c	83 4d fc ff	 or	 DWORD PTR __$EHRec$[ebp+8], -1
  003a0	50		 push	 eax
  003a1	ff b5 c4 fe ff
	ff		 push	 DWORD PTR _indexFileName$[ebp]
  003a7	8d 8d cc fe ff
	ff		 lea	 ecx, DWORD PTR _indexFileName$[ebp+8]
  003ad	e8 00 00 00 00	 call	 ?deallocate@?$allocator@D@_STL@@QAEXPADI@Z ; _STL::allocator<char>::deallocate

; 1212 : 
; 1213 : 	return true;
; 1214 : }

  003b2	8b 4d f4	 mov	 ecx, DWORD PTR __$EHRec$[ebp]
  003b5	5f		 pop	 edi
  003b6	5e		 pop	 esi
  003b7	64 89 0d 00 00
	00 00		 mov	 DWORD PTR fs:__except_list, ecx
  003be	8b 4d f0	 mov	 ecx, DWORD PTR __$ArrayPad$[ebp]
  003c1	8a c3		 mov	 al, bl
  003c3	5b		 pop	 ebx
  003c4	e8 00 00 00 00	 call	 @__security_check_cookie@4
  003c9	c9		 leave
  003ca	c2 04 00	 ret	 4
_TEXT	ENDS
;	COMDAT text$x
text$x	SEGMENT
$L115923:
  00000	8d 8d c4 fe ff
	ff		 lea	 ecx, DWORD PTR _indexFileName$[ebp]
  00006	e9 00 00 00 00	 jmp	 ??1?$basic_string@DV?$char_traits@D@_STL@@V?$allocator@D@2@@_STL@@QAE@XZ ; _STL::basic_string<char,_STL::char_traits<char>,_STL::allocator<char> >::~basic_string<char,_STL::char_traits<char>,_STL::allocator<char> >
$L115952:
  0000b	8d 8d 24 fe ff
	ff		 lea	 ecx, DWORD PTR _indexFile$[ebp]
  00011	e9 00 00 00 00	 jmp	 ??1iovfs_base@@UAE@XZ	; iovfs_base::~iovfs_base
$L115924:
  00016	8d 8d 24 fe ff
	ff		 lea	 ecx, DWORD PTR _indexFile$[ebp]
  0001c	e9 00 00 00 00	 jmp	 ??1ivfstream@@UAE@XZ	; ivfstream::~ivfstream
$L115925:
  00021	8d 8d d0 fe ff
	ff		 lea	 ecx, DWORD PTR _strHeaderPath$108117[ebp]
  00027	e9 00 00 00 00	 jmp	 ??1?$basic_string@DV?$char_traits@D@_STL@@V?$allocator@D@2@@_STL@@QAE@XZ ; _STL::basic_string<char,_STL::char_traits<char>,_STL::allocator<char> >::~basic_string<char,_STL::char_traits<char>,_STL::allocator<char> >
$L115990:
  0002c	8d 8d 74 fe ff
	ff		 lea	 ecx, DWORD PTR _fileHeader$108127[ebp]
  00032	e9 00 00 00 00	 jmp	 ??1iovfs_base@@UAE@XZ	; iovfs_base::~iovfs_base
$L115926:
  00037	8d 8d 74 fe ff
	ff		 lea	 ecx, DWORD PTR _fileHeader$108127[ebp]
  0003d	e9 00 00 00 00	 jmp	 ??1ivfstream@@UAE@XZ	; ivfstream::~ivfstream
$L115927:
  00042	ff 75 ec	 push	 DWORD PTR $T115917[ebp]
  00045	e8 00 00 00 00	 call	 ??3@YAXPAX@Z		; operator delete
  0004a	59		 pop	 ecx
  0004b	c3		 ret	 0
__ehhandler$?LoadFromFileRunning@?$CTypePack2@VCSprite@@VCSprite555@@VCSprite565@@@@UAE_NPBD@Z:
  0004c	b8 00 00 00 00	 mov	 eax, OFFSET FLAT:$T116288
  00051	e9 00 00 00 00	 jmp	 ___CxxFrameHandler
text$x	ENDS
?LoadFromFileRunning@?$CTypePack2@VCSprite@@VCSprite555@@VCSprite565@@@@UAE_NPBD@Z ENDP ; CTypePack2<CSprite,CSprite555,CSprite565>::LoadFromFileRunning
; Function compile flags: /Ogsy
; File c:\darkeden\designed_common\project\client\virtualfilesystem\vfstream.inl
;	COMDAT ?is_open@iovfs_base@@QBE_NXZ
_TEXT	SEGMENT
?is_open@iovfs_base@@QBE_NXZ PROC NEAR			; iovfs_base::is_open, COMDAT
; _this$ = ecx

; 47   : 	return m_pFileIO && m_pFileIO->is_open();

  00000	83 79 04 00	 cmp	 DWORD PTR [ecx+4], 0
  00004	74 10		 je	 SHORT $L116307
  00006	8b 49 04	 mov	 ecx, DWORD PTR [ecx+4]
  00009	8b 01		 mov	 eax, DWORD PTR [ecx]
  0000b	ff 50 0c	 call	 DWORD PTR [eax+12]
  0000e	84 c0		 test	 al, al
  00010	74 04		 je	 SHORT $L116307
  00012	33 c0		 xor	 eax, eax
  00014	40		 inc	 eax

; 48   : }

  00015	c3		 ret	 0
$L116307:

; 47   : 	return m_pFileIO && m_pFileIO->is_open();

  00016	33 c0		 xor	 eax, eax

; 48   : }

  00018	c3		 ret	 0
?is_open@iovfs_base@@QBE_NXZ ENDP			; iovfs_base::is_open
_TEXT	ENDS
PUBLIC	??$_M_range_initialize@PBD@?$basic_string@DV?$char_traits@D@_STL@@V?$allocator@D@2@@_STL@@AAEXPBD0ABUforward_iterator_tag@1@@Z ; _STL::basic_string<char,_STL::char_traits<char>,_STL::allocator<char> >::_M_range_initialize<char const *>
;	COMDAT xdata$x
; File c:\stlport-4.6.1\stlport\stl\_string.h
xdata$x	SEGMENT
$T116377 DD	0ffffffffH
	DD	FLAT:$L116312
$T116375 DD	019930520H
	DD	01H
	DD	FLAT:$T116377
	DD	2 DUP(00H)
	DD	2 DUP(00H)
; Function compile flags: /Ogsy
; File c:\stlport-4.6.1\stlport\stl\_string.c
xdata$x	ENDS
;	COMDAT ??0?$basic_string@DV?$char_traits@D@_STL@@V?$allocator@D@2@@_STL@@QAE@PBDABV?$allocator@D@1@@Z
_TEXT	SEGMENT
_this$ = -16						; size = 4
__$EHRec$ = -12						; size = 12
___s$ = 8						; size = 4
$T116371 = 11						; size = 1
___a$ = 12						; size = 4
??0?$basic_string@DV?$char_traits@D@_STL@@V?$allocator@D@2@@_STL@@QAE@PBDABV?$allocator@D@1@@Z PROC NEAR ; _STL::basic_string<char,_STL::char_traits<char>,_STL::allocator<char> >::basic_string<char,_STL::char_traits<char>,_STL::allocator<char> >, COMDAT
; _this$ = ecx

; 552  : { 

  00000	b8 00 00 00 00	 mov	 eax, __ehhandler$??0?$basic_string@DV?$char_traits@D@_STL@@V?$allocator@D@2@@_STL@@QAE@PBDABV?$allocator@D@1@@Z
  00005	e8 00 00 00 00	 call	 __EH_prolog
  0000a	51		 push	 ecx
  0000b	56		 push	 esi
  0000c	ff 75 0c	 push	 DWORD PTR ___a$[ebp]
  0000f	8b f1		 mov	 esi, ecx
  00011	89 75 f0	 mov	 DWORD PTR _this$[ebp], esi
  00014	e8 00 00 00 00	 call	 ??0?$_String_base@DV?$allocator@D@_STL@@@_STL@@QAE@ABV?$allocator@D@1@@Z ; _STL::_String_base<char,_STL::allocator<char> >::_String_base<char,_STL::allocator<char> >

; 553  :   _STLP_FIX_LITERAL_BUG(__s) 
; 554  :     _M_range_initialize(__s, __s + traits_type::length(__s));  

  00019	ff 75 08	 push	 DWORD PTR ___s$[ebp]
  0001c	83 65 fc 00	 and	 DWORD PTR __$EHRec$[ebp+8], 0
  00020	e8 00 00 00 00	 call	 _strlen
  00025	03 45 08	 add	 eax, DWORD PTR ___s$[ebp]
  00028	59		 pop	 ecx
  00029	8d 4d 0b	 lea	 ecx, DWORD PTR $T116371[ebp]
  0002c	51		 push	 ecx
  0002d	50		 push	 eax
  0002e	ff 75 08	 push	 DWORD PTR ___s$[ebp]
  00031	8b ce		 mov	 ecx, esi
  00033	e8 00 00 00 00	 call	 ??$_M_range_initialize@PBD@?$basic_string@DV?$char_traits@D@_STL@@V?$allocator@D@2@@_STL@@AAEXPBD0ABUforward_iterator_tag@1@@Z ; _STL::basic_string<char,_STL::char_traits<char>,_STL::allocator<char> >::_M_range_initialize<char const *>

; 555  : } 

  00038	8b 4d f4	 mov	 ecx, DWORD PTR __$EHRec$[ebp]
  0003b	8b c6		 mov	 eax, esi
  0003d	5e		 pop	 esi
  0003e	64 89 0d 00 00
	00 00		 mov	 DWORD PTR fs:__except_list, ecx
  00045	c9		 leave
  00046	c2 08 00	 ret	 8
_TEXT	ENDS
;	COMDAT text$x
text$x	SEGMENT
$L116312:
  00000	8b 4d f0	 mov	 ecx, DWORD PTR _this$[ebp]
  00003	e9 00 00 00 00	 jmp	 ??1?$_String_base@DV?$allocator@D@_STL@@@_STL@@QAE@XZ ; _STL::_String_base<char,_STL::allocator<char> >::~_String_base<char,_STL::allocator<char> >
__ehhandler$??0?$basic_string@DV?$char_traits@D@_STL@@V?$allocator@D@2@@_STL@@QAE@PBDABV?$allocator@D@1@@Z:
  00008	b8 00 00 00 00	 mov	 eax, OFFSET FLAT:$T116375
  0000d	e9 00 00 00 00	 jmp	 ___CxxFrameHandler
text$x	ENDS
??0?$basic_string@DV?$char_traits@D@_STL@@V?$allocator@D@2@@_STL@@QAE@PBDABV?$allocator@D@1@@Z ENDP ; _STL::basic_string<char,_STL::char_traits<char>,_STL::allocator<char> >::basic_string<char,_STL::char_traits<char>,_STL::allocator<char> >
PUBLIC	?_M_allocate_block@?$_String_base@DV?$allocator@D@_STL@@@_STL@@QAEXI@Z ; _STL::_String_base<char,_STL::allocator<char> >::_M_allocate_block
; Function compile flags: /Ogsy
; File c:\stlport-4.6.1\stlport\stl\_string.h
;	COMDAT ??$_M_range_initialize@PBD@?$basic_string@DV?$char_traits@D@_STL@@V?$allocator@D@2@@_STL@@AAEXPBD0ABUforward_iterator_tag@1@@Z
_TEXT	SEGMENT
___f$ = 8						; size = 4
___l$ = 12						; size = 4
___formal$ = 16						; size = 4
??$_M_range_initialize@PBD@?$basic_string@DV?$char_traits@D@_STL@@V?$allocator@D@2@@_STL@@AAEXPBD0ABUforward_iterator_tag@1@@Z PROC NEAR ; _STL::basic_string<char,_STL::char_traits<char>,_STL::allocator<char> >::_M_range_initialize<char const *>, COMDAT
; _this$ = ecx

; 382  :   template <class _ForwardIter> void _M_range_initialize(_ForwardIter __f, _ForwardIter __l, 

  00000	53		 push	 ebx

; 383  :                            const forward_iterator_tag &) {
; 384  :     difference_type __n = distance(__f, __l);
; 385  :     this->_M_allocate_block(__n + 1);
; 386  :     this->_M_finish = uninitialized_copy(__f, __l, this->_M_start);
; 387  :     _M_terminate_string();

  00001	8b 5c 24 08	 mov	 ebx, DWORD PTR ___f$[esp]
  00005	56		 push	 esi
  00006	8b 74 24 10	 mov	 esi, DWORD PTR ___l$[esp+4]
  0000a	57		 push	 edi
  0000b	2b f3		 sub	 esi, ebx
  0000d	8d 46 01	 lea	 eax, DWORD PTR [esi+1]
  00010	50		 push	 eax
  00011	8b f9		 mov	 edi, ecx
  00013	e8 00 00 00 00	 call	 ?_M_allocate_block@?$_String_base@DV?$allocator@D@_STL@@@_STL@@QAEXI@Z ; _STL::_String_base<char,_STL::allocator<char> >::_M_allocate_block
  00018	39 5c 24 14	 cmp	 DWORD PTR ___l$[esp+8], ebx
  0001c	8b 07		 mov	 eax, DWORD PTR [edi]
  0001e	74 0d		 je	 SHORT $L116419
  00020	56		 push	 esi
  00021	53		 push	 ebx
  00022	50		 push	 eax
  00023	e8 00 00 00 00	 call	 _memmove
  00028	83 c4 0c	 add	 esp, 12			; 0000000cH
  0002b	03 c6		 add	 eax, esi
$L116419:
  0002d	89 47 04	 mov	 DWORD PTR [edi+4], eax
  00030	5f		 pop	 edi
  00031	5e		 pop	 esi
  00032	c6 00 00	 mov	 BYTE PTR [eax], 0
  00035	5b		 pop	 ebx

; 388  :   }

  00036	c2 0c 00	 ret	 12			; 0000000cH
??$_M_range_initialize@PBD@?$basic_string@DV?$char_traits@D@_STL@@V?$allocator@D@2@@_STL@@AAEXPBD0ABUforward_iterator_tag@1@@Z ENDP ; _STL::basic_string<char,_STL::char_traits<char>,_STL::allocator<char> >::_M_range_initialize<char const *>
; Function compile flags: /Ogsy
; File c:\stlport-4.6.1\stlport\stl\_string.c
_TEXT	ENDS
;	COMDAT ?_M_allocate_block@?$_String_base@DV?$allocator@D@_STL@@@_STL@@QAEXI@Z
_TEXT	SEGMENT
___n$ = 8						; size = 4
?_M_allocate_block@?$_String_base@DV?$allocator@D@_STL@@@_STL@@QAEXI@Z PROC NEAR ; _STL::_String_base<char,_STL::allocator<char> >::_M_allocate_block, COMDAT
; _this$ = ecx

; 530  : template <class _Tp, class _Alloc> void _String_base<_Tp, _Alloc>::_M_allocate_block(size_t __n) {  

  00000	56		 push	 esi
  00001	57		 push	 edi

; 531  :   if ((__n <= (max_size()+1)) && (__n>0)){ 

  00002	8b 7c 24 0c	 mov	 edi, DWORD PTR ___n$[esp+4]
  00006	83 ff ff	 cmp	 edi, -1
  00009	8b f1		 mov	 esi, ecx
  0000b	77 16		 ja	 SHORT $L109789
  0000d	85 ff		 test	 edi, edi
  0000f	76 12		 jbe	 SHORT $L109789

; 532  :     _M_start  = _M_end_of_storage.allocate(__n); 

  00011	57		 push	 edi
  00012	e8 00 00 00 00	 call	 ?allocate@?$__node_alloc@$00$0A@@_STL@@SAPAXI@Z ; _STL::__node_alloc<1,0>::allocate
  00017	89 06		 mov	 DWORD PTR [esi], eax

; 533  :     _M_finish = _M_start; 

  00019	89 46 04	 mov	 DWORD PTR [esi+4], eax

; 534  :     _M_end_of_storage._M_data = _M_start + __n; 

  0001c	03 c7		 add	 eax, edi
  0001e	89 46 08	 mov	 DWORD PTR [esi+8], eax

; 535  :   } 
; 536  :     else 

  00021	eb 0a		 jmp	 SHORT $L116449
$L109789:

; 537  :       _M_throw_length_error(); 

  00023	68 00 00 00 00	 push	 OFFSET FLAT:??_C@_0N@GOPDCEEB@basic_string?$AA@
  00028	e8 00 00 00 00	 call	 ?__stl_throw_length_error@_STL@@YAXPBD@Z ; _STL::__stl_throw_length_error
$L116449:
  0002d	59		 pop	 ecx
  0002e	5f		 pop	 edi
  0002f	5e		 pop	 esi

; 538  : } 

  00030	c2 04 00	 ret	 4
?_M_allocate_block@?$_String_base@DV?$allocator@D@_STL@@@_STL@@QAEXI@Z ENDP ; _STL::_String_base<char,_STL::allocator<char> >::_M_allocate_block
_TEXT	ENDS
PUBLIC	?reserve@?$basic_string@DV?$char_traits@D@_STL@@V?$allocator@D@2@@_STL@@QAEXI@Z ; _STL::basic_string<char,_STL::char_traits<char>,_STL::allocator<char> >::reserve
; Function compile flags: /Ogsy
; File c:\stlport-4.6.1\stlport\stl\_string.h
;	COMDAT ?push_back@?$basic_string@DV?$char_traits@D@_STL@@V?$allocator@D@2@@_STL@@QAEXD@Z
_TEXT	SEGMENT
$T116453 = -8						; size = 4
$T116454 = -4						; size = 4
___c$ = 8						; size = 1
?push_back@?$basic_string@DV?$char_traits@D@_STL@@V?$allocator@D@2@@_STL@@QAEXD@Z PROC NEAR ; _STL::basic_string<char,_STL::char_traits<char>,_STL::allocator<char> >::push_back, COMDAT
; _this$ = ecx

; 517  :   void push_back(_CharT __c) {

  00000	55		 push	 ebp
  00001	8b ec		 mov	 ebp, esp
  00003	51		 push	 ecx
  00004	51		 push	 ecx
  00005	56		 push	 esi
  00006	8b f1		 mov	 esi, ecx

; 518  :     if (this->_M_finish + 1 == this->_M_end_of_storage._M_data)

  00008	8b 46 04	 mov	 eax, DWORD PTR [esi+4]
  0000b	8d 48 01	 lea	 ecx, DWORD PTR [eax+1]
  0000e	3b 4e 08	 cmp	 ecx, DWORD PTR [esi+8]
  00011	75 21		 jne	 SHORT $L108867

; 519  :       reserve(size() + (max)(size(), __STATIC_CAST(size_type,1)));

  00013	2b 06		 sub	 eax, DWORD PTR [esi]
  00015	33 c9		 xor	 ecx, ecx
  00017	41		 inc	 ecx
  00018	89 4d f8	 mov	 DWORD PTR $T116453[ebp], ecx
  0001b	3b c1		 cmp	 eax, ecx
  0001d	89 45 fc	 mov	 DWORD PTR $T116454[ebp], eax
  00020	8d 4d f8	 lea	 ecx, DWORD PTR $T116453[ebp]
  00023	72 03		 jb	 SHORT $L116469
  00025	8d 4d fc	 lea	 ecx, DWORD PTR $T116454[ebp]
$L116469:
  00028	8b 09		 mov	 ecx, DWORD PTR [ecx]
  0002a	03 c8		 add	 ecx, eax
  0002c	51		 push	 ecx
  0002d	8b ce		 mov	 ecx, esi
  0002f	e8 00 00 00 00	 call	 ?reserve@?$basic_string@DV?$char_traits@D@_STL@@V?$allocator@D@2@@_STL@@QAEXI@Z ; _STL::basic_string<char,_STL::char_traits<char>,_STL::allocator<char> >::reserve
$L108867:

; 520  :     _M_construct_null(this->_M_finish + 1);

  00034	8b 46 04	 mov	 eax, DWORD PTR [esi+4]

; 521  :     _Traits::assign(*(this->_M_finish), __c);

  00037	8a 4d 08	 mov	 cl, BYTE PTR ___c$[ebp]
  0003a	c6 40 01 00	 mov	 BYTE PTR [eax+1], 0
  0003e	8b 46 04	 mov	 eax, DWORD PTR [esi+4]
  00041	88 08		 mov	 BYTE PTR [eax], cl

; 522  :     ++this->_M_finish;

  00043	ff 46 04	 inc	 DWORD PTR [esi+4]
  00046	5e		 pop	 esi

; 523  :   }

  00047	c9		 leave
  00048	c2 04 00	 ret	 4
?push_back@?$basic_string@DV?$char_traits@D@_STL@@V?$allocator@D@2@@_STL@@QAEXD@Z ENDP ; _STL::basic_string<char,_STL::char_traits<char>,_STL::allocator<char> >::push_back
_TEXT	ENDS
;	COMDAT xdata$x
; File c:\stlport-4.6.1\stlport\stl\_construct.h
xdata$x	SEGMENT
$T116538 DD	0ffffffffH
	DD	00H
	DD	0ffffffffH
	DD	00H
$T116540 DD	00H
	DD	00H
	DD	00H
	DD	FLAT:$L116488
$T116539 DD	00H
	DD	00H
	DD	01H
	DD	01H
	DD	FLAT:$T116540
$T116534 DD	019930520H
	DD	02H
	DD	FLAT:$T116538
	DD	01H
	DD	FLAT:$T116539
	DD	2 DUP(00H)
; Function compile flags: /Ogsy
; File c:\stlport-4.6.1\stlport\stl\_string.c
xdata$x	ENDS
;	COMDAT ?reserve@?$basic_string@DV?$char_traits@D@_STL@@V?$allocator@D@2@@_STL@@QAEXI@Z
_TEXT	SEGMENT
_this$ = -24						; size = 4
___new_start$109076 = -20				; size = 4
__$EHRec$ = -16						; size = 16
___n$109075 = 8						; size = 4
___res_arg$ = 8						; size = 4
$T116514 = 11						; size = 1
?reserve@?$basic_string@DV?$char_traits@D@_STL@@V?$allocator@D@2@@_STL@@QAEXI@Z PROC NEAR ; _STL::basic_string<char,_STL::char_traits<char>,_STL::allocator<char> >::reserve, COMDAT
; _this$ = ecx

; 57   : template <class _CharT, class _Traits, class _Alloc> void basic_string<_CharT,_Traits,_Alloc>::reserve(size_type __res_arg) {

  00000	b8 00 00 00 00	 mov	 eax, __ehhandler$?reserve@?$basic_string@DV?$char_traits@D@_STL@@V?$allocator@D@2@@_STL@@QAEXI@Z
  00005	e8 00 00 00 00	 call	 __EH_prolog
  0000a	83 ec 0c	 sub	 esp, 12			; 0000000cH
  0000d	53		 push	 ebx
  0000e	56		 push	 esi
  0000f	8b f1		 mov	 esi, ecx

; 58   : 
; 59   :   if (__res_arg >= capacity())

  00011	8b 46 08	 mov	 eax, DWORD PTR [esi+8]
  00014	2b 06		 sub	 eax, DWORD PTR [esi]
  00016	57		 push	 edi
  00017	8b 7d 08	 mov	 edi, DWORD PTR ___res_arg$[ebp]
  0001a	48		 dec	 eax
  0001b	3b f8		 cmp	 edi, eax
  0001d	89 65 f0	 mov	 DWORD PTR __$EHRec$[ebp], esp
  00020	89 75 e8	 mov	 DWORD PTR _this$[ebp], esi
  00023	72 5f		 jb	 SHORT $L109073

; 60   :     {      
; 61   :       if (__res_arg > max_size())

  00025	83 ff fe	 cmp	 edi, -2			; fffffffeH
  00028	76 0b		 jbe	 SHORT $L116501

; 62   : 	this->_M_throw_length_error();

  0002a	68 00 00 00 00	 push	 OFFSET FLAT:??_C@_0N@GOPDCEEB@basic_string?$AA@
  0002f	e8 00 00 00 00	 call	 ?__stl_throw_length_error@_STL@@YAXPBD@Z ; _STL::__stl_throw_length_error
  00034	59		 pop	 ecx
$L116501:

; 63   : 
; 64   :       size_type __n = __res_arg + 1;

  00035	8d 47 01	 lea	 eax, DWORD PTR [edi+1]

; 65   :       pointer __new_start = this->_M_end_of_storage.allocate(__n);

  00038	85 c0		 test	 eax, eax
  0003a	89 45 08	 mov	 DWORD PTR ___n$109075[ebp], eax
  0003d	74 0b		 je	 SHORT $L116508
  0003f	50		 push	 eax
  00040	e8 00 00 00 00	 call	 ?allocate@?$__node_alloc@$00$0A@@_STL@@SAPAXI@Z ; _STL::__node_alloc<1,0>::allocate
  00045	59		 pop	 ecx
  00046	8b f8		 mov	 edi, eax
  00048	eb 02		 jmp	 SHORT $L116537
$L116508:
  0004a	33 ff		 xor	 edi, edi
$L116537:

; 66   :       pointer __new_finish = __new_start;
; 67   :       
; 68   :       _STLP_TRY {
; 69   : 	__new_finish = uninitialized_copy(this->_M_start, this->_M_finish, __new_start);

  0004c	8b 46 04	 mov	 eax, DWORD PTR [esi+4]
  0004f	8b 0e		 mov	 ecx, DWORD PTR [esi]
  00051	83 65 fc 00	 and	 DWORD PTR __$EHRec$[ebp+12], 0
  00055	8d 55 0b	 lea	 edx, DWORD PTR $T116514[ebp]
  00058	52		 push	 edx
  00059	57		 push	 edi
  0005a	50		 push	 eax
  0005b	51		 push	 ecx
  0005c	89 7d ec	 mov	 DWORD PTR ___new_start$109076[ebp], edi
  0005f	e8 00 00 00 00	 call	 ??$__uninitialized_copy@PADPAD@_STL@@YAPADPAD00ABU__true_type@0@@Z ; _STL::__uninitialized_copy<char *,char *>

; 70   : 	_M_construct_null(__new_finish);
; 71   :       }
; 72   :       _STLP_UNWIND((_STLP_STD::_Destroy(__new_start, __new_finish), 

  00064	83 4d fc ff	 or	 DWORD PTR __$EHRec$[ebp+12], -1
  00068	8b d8		 mov	 ebx, eax
  0006a	83 c4 10	 add	 esp, 16			; 00000010H

; 73   : 		    this->_M_end_of_storage.deallocate(__new_start, __n)));
; 74   :       
; 75   :       _STLP_STD::_Destroy(this->_M_start, this->_M_finish + 1);
; 76   :       this->_M_deallocate_block();

  0006d	8b ce		 mov	 ecx, esi
  0006f	c6 03 00	 mov	 BYTE PTR [ebx], 0
  00072	e8 00 00 00 00	 call	 ?_M_deallocate_block@?$_String_base@DV?$allocator@D@_STL@@@_STL@@QAEXXZ ; _STL::_String_base<char,_STL::allocator<char> >::_M_deallocate_block

; 77   :       this->_M_start = __new_start;
; 78   :       this->_M_finish = __new_finish;
; 79   :       this->_M_end_of_storage._M_data = __new_start + __n;

  00077	8b 45 08	 mov	 eax, DWORD PTR ___n$109075[ebp]
  0007a	89 3e		 mov	 DWORD PTR [esi], edi
  0007c	03 f8		 add	 edi, eax
  0007e	89 5e 04	 mov	 DWORD PTR [esi+4], ebx
  00081	89 7e 08	 mov	 DWORD PTR [esi+8], edi
$L109073:

; 80   :     }
; 81   : }

  00084	8b 4d f4	 mov	 ecx, DWORD PTR __$EHRec$[ebp+4]
  00087	5f		 pop	 edi
  00088	5e		 pop	 esi
  00089	64 89 0d 00 00
	00 00		 mov	 DWORD PTR fs:__except_list, ecx
  00090	5b		 pop	 ebx
  00091	c9		 leave
  00092	c2 04 00	 ret	 4
$L116488:

; 70   : 	_M_construct_null(__new_finish);
; 71   :       }
; 72   :       _STLP_UNWIND((_STLP_STD::_Destroy(__new_start, __new_finish), 

  00095	ff 75 08	 push	 DWORD PTR ___n$109075[ebp]
  00098	8b 4d e8	 mov	 ecx, DWORD PTR _this$[ebp]
  0009b	ff 75 ec	 push	 DWORD PTR ___new_start$109076[ebp]
  0009e	83 c1 08	 add	 ecx, 8
  000a1	e8 00 00 00 00	 call	 ?deallocate@?$allocator@D@_STL@@QAEXPADI@Z ; _STL::allocator<char>::deallocate
  000a6	6a 00		 push	 0
  000a8	6a 00		 push	 0
  000aa	e8 00 00 00 00	 call	 __CxxThrowException@8
$L116541:
$L116536:
  000af	cc		 int	 3
_TEXT	ENDS
;	COMDAT text$x
text$x	SEGMENT
__ehhandler$?reserve@?$basic_string@DV?$char_traits@D@_STL@@V?$allocator@D@2@@_STL@@QAEXI@Z:
  00000	b8 00 00 00 00	 mov	 eax, OFFSET FLAT:$T116534
  00005	e9 00 00 00 00	 jmp	 ___CxxFrameHandler
text$x	ENDS
?reserve@?$basic_string@DV?$char_traits@D@_STL@@V?$allocator@D@2@@_STL@@QAEXI@Z ENDP ; _STL::basic_string<char,_STL::char_traits<char>,_STL::allocator<char> >::reserve
PUBLIC	?get_allocator@?$basic_string@DV?$char_traits@D@_STL@@V?$allocator@D@2@@_STL@@QBE?AV?$allocator@D@2@XZ ; _STL::basic_string<char,_STL::char_traits<char>,_STL::allocator<char> >::get_allocator
PUBLIC	??0?$basic_string@DV?$char_traits@D@_STL@@V?$allocator@D@2@@_STL@@QAE@U_String_reserve_t@1@IABV?$allocator@D@1@@Z ; _STL::basic_string<char,_STL::char_traits<char>,_STL::allocator<char> >::basic_string<char,_STL::char_traits<char>,_STL::allocator<char> >
PUBLIC	??0?$basic_string@DV?$char_traits@D@_STL@@V?$allocator@D@2@@_STL@@QAE@ABV01@@Z ; _STL::basic_string<char,_STL::char_traits<char>,_STL::allocator<char> >::basic_string<char,_STL::char_traits<char>,_STL::allocator<char> >
PUBLIC	?append@?$basic_string@DV?$char_traits@D@_STL@@V?$allocator@D@2@@_STL@@QAEAAV12@ABV12@@Z ; _STL::basic_string<char,_STL::char_traits<char>,_STL::allocator<char> >::append
;	COMDAT xdata$x
; File c:\stlport-4.6.1\stlport\stl\_alloc.h
xdata$x	SEGMENT
$T116694 DD	0ffffffffH
	DD	FLAT:$L116549
	DD	00H
	DD	FLAT:$L116548
$T116692 DD	019930520H
	DD	02H
	DD	FLAT:$T116694
	DD	2 DUP(00H)
	DD	2 DUP(00H)
; Function compile flags: /Ogsy
; File c:\stlport-4.6.1\stlport\stl\_string.h
xdata$x	ENDS
;	COMDAT ??$?HDV?$char_traits@D@_STL@@V?$allocator@D@1@@_STL@@YA?AV?$basic_string@DV?$char_traits@D@_STL@@V?$allocator@D@2@@0@ABV10@PBD@Z
_TEXT	SEGMENT
___result$ = -32					; size = 12
$T116550 = -20						; size = 4
$T116547 = -16						; size = 1
__$EHRec$ = -12						; size = 12
___$ReturnUdt$ = 8					; size = 4
___x$ = 12						; size = 4
$T116546 = 15						; size = 1
___s$ = 16						; size = 4
$T116610 = 19						; size = 1
??$?HDV?$char_traits@D@_STL@@V?$allocator@D@1@@_STL@@YA?AV?$basic_string@DV?$char_traits@D@_STL@@V?$allocator@D@2@@0@ABV10@PBD@Z PROC NEAR ; _STL::operator+<char,_STL::char_traits<char>,_STL::allocator<char> >, COMDAT

; 1292 :           const _CharT* __s) {

  00000	b8 00 00 00 00	 mov	 eax, __ehhandler$??$?HDV?$char_traits@D@_STL@@V?$allocator@D@1@@_STL@@YA?AV?$basic_string@DV?$char_traits@D@_STL@@V?$allocator@D@2@@0@ABV10@PBD@Z
  00005	e8 00 00 00 00	 call	 __EH_prolog
  0000a	83 ec 14	 sub	 esp, 20			; 00000014H
  0000d	83 65 ec 00	 and	 DWORD PTR $T116550[ebp], 0
  00011	53		 push	 ebx
  00012	56		 push	 esi
  00013	57		 push	 edi

; 1293 :   _STLP_FIX_LITERAL_BUG(__s)
; 1294 :   typedef basic_string<_CharT,_Traits,_Alloc> _Str;
; 1295 :   typedef typename _Str::_Reserve_t _Reserve_t;
; 1296 :   const size_t __n = _Traits::length(__s);

  00014	ff 75 10	 push	 DWORD PTR ___s$[ebp]
  00017	e8 00 00 00 00	 call	 _strlen
  0001c	8b d8		 mov	 ebx, eax

; 1297 : # ifdef _STLP_INIT_AMBIGUITY
; 1298 :   _Str __result = _Str(_Reserve_t(), __x.size() + __n, __x.get_allocator());
; 1299 : # else
; 1300 :   _Str __result(_Reserve_t(), __x.size() + __n, __x.get_allocator());

  0001e	33 c0		 xor	 eax, eax
  00020	8d 7d f0	 lea	 edi, DWORD PTR $T116547[ebp]
  00023	aa		 stosb
  00024	8b 7d 0c	 mov	 edi, DWORD PTR ___x$[ebp]
  00027	8b 77 04	 mov	 esi, DWORD PTR [edi+4]
  0002a	2b 37		 sub	 esi, DWORD PTR [edi]
  0002c	59		 pop	 ecx
  0002d	8d 45 0f	 lea	 eax, DWORD PTR $T116546[ebp]
  00030	50		 push	 eax
  00031	8b cf		 mov	 ecx, edi
  00033	e8 00 00 00 00	 call	 ?get_allocator@?$basic_string@DV?$char_traits@D@_STL@@V?$allocator@D@2@@_STL@@QBE?AV?$allocator@D@2@XZ ; _STL::basic_string<char,_STL::char_traits<char>,_STL::allocator<char> >::get_allocator
  00038	50		 push	 eax
  00039	03 f3		 add	 esi, ebx
  0003b	56		 push	 esi
  0003c	ff 75 f0	 push	 DWORD PTR $T116547[ebp]
  0003f	8d 4d e0	 lea	 ecx, DWORD PTR ___result$[ebp]
  00042	e8 00 00 00 00	 call	 ??0?$basic_string@DV?$char_traits@D@_STL@@V?$allocator@D@2@@_STL@@QAE@U_String_reserve_t@1@IABV?$allocator@D@1@@Z ; _STL::basic_string<char,_STL::char_traits<char>,_STL::allocator<char> >::basic_string<char,_STL::char_traits<char>,_STL::allocator<char> >
  00047	33 f6		 xor	 esi, esi
  00049	46		 inc	 esi

; 1301 : # endif
; 1302 :   __result.append(__x);

  0004a	57		 push	 edi
  0004b	8d 4d e0	 lea	 ecx, DWORD PTR ___result$[ebp]
  0004e	89 75 fc	 mov	 DWORD PTR __$EHRec$[ebp+8], esi
  00051	e8 00 00 00 00	 call	 ?append@?$basic_string@DV?$char_traits@D@_STL@@V?$allocator@D@2@@_STL@@QAEAAV12@ABV12@@Z ; _STL::basic_string<char,_STL::char_traits<char>,_STL::allocator<char> >::append

; 1303 :   __result.append(__s, __s + __n);

  00056	8d 45 13	 lea	 eax, DWORD PTR $T116610[ebp]
  00059	50		 push	 eax
  0005a	8b 45 10	 mov	 eax, DWORD PTR ___s$[ebp]
  0005d	03 d8		 add	 ebx, eax
  0005f	53		 push	 ebx
  00060	50		 push	 eax
  00061	8d 4d e0	 lea	 ecx, DWORD PTR ___result$[ebp]
  00064	e8 00 00 00 00	 call	 ??$append@PBD@?$basic_string@DV?$char_traits@D@_STL@@V?$allocator@D@2@@_STL@@AAEAAV01@PBD0ABUforward_iterator_tag@1@@Z ; _STL::basic_string<char,_STL::char_traits<char>,_STL::allocator<char> >::append<char const *>

; 1304 :   return __result;

  00069	8b 4d 08	 mov	 ecx, DWORD PTR ___$ReturnUdt$[ebp]
  0006c	8d 45 e0	 lea	 eax, DWORD PTR ___result$[ebp]
  0006f	50		 push	 eax
  00070	e8 00 00 00 00	 call	 ??0?$basic_string@DV?$char_traits@D@_STL@@V?$allocator@D@2@@_STL@@QAE@ABV01@@Z ; _STL::basic_string<char,_STL::char_traits<char>,_STL::allocator<char> >::basic_string<char,_STL::char_traits<char>,_STL::allocator<char> >
  00075	8b 45 e8	 mov	 eax, DWORD PTR ___result$[ebp+8]
  00078	2b 45 e0	 sub	 eax, DWORD PTR ___result$[ebp]
  0007b	8d 4d e8	 lea	 ecx, DWORD PTR ___result$[ebp+8]
  0007e	50		 push	 eax
  0007f	ff 75 e0	 push	 DWORD PTR ___result$[ebp]
  00082	89 75 ec	 mov	 DWORD PTR $T116550[ebp], esi
  00085	c6 45 fc 00	 mov	 BYTE PTR __$EHRec$[ebp+8], 0
  00089	e8 00 00 00 00	 call	 ?deallocate@?$allocator@D@_STL@@QAEXPADI@Z ; _STL::allocator<char>::deallocate

; 1305 : }

  0008e	8b 4d f4	 mov	 ecx, DWORD PTR __$EHRec$[ebp]
  00091	8b 45 08	 mov	 eax, DWORD PTR ___$ReturnUdt$[ebp]
  00094	5f		 pop	 edi
  00095	5e		 pop	 esi
  00096	5b		 pop	 ebx
  00097	64 89 0d 00 00
	00 00		 mov	 DWORD PTR fs:__except_list, ecx
  0009e	c9		 leave
  0009f	c3		 ret	 0
_TEXT	ENDS
;	COMDAT text$x
text$x	SEGMENT
$L116548:
  00000	8d 4d e0	 lea	 ecx, DWORD PTR ___result$[ebp]
  00003	e9 00 00 00 00	 jmp	 ??1?$basic_string@DV?$char_traits@D@_STL@@V?$allocator@D@2@@_STL@@QAE@XZ ; _STL::basic_string<char,_STL::char_traits<char>,_STL::allocator<char> >::~basic_string<char,_STL::char_traits<char>,_STL::allocator<char> >
$L116549:
  00008	8b 45 ec	 mov	 eax, DWORD PTR $T116550[ebp]
  0000b	83 e0 01	 and	 eax, 1
  0000e	0f 84 0c 00 00
	00		 je	 $L116551
  00014	83 65 ec fe	 and	 DWORD PTR $T116550[ebp], -2 ; fffffffeH
  00018	8b 4d 08	 mov	 ecx, DWORD PTR ___$ReturnUdt$[ebp]
  0001b	e9 00 00 00 00	 jmp	 ??1?$basic_string@DV?$char_traits@D@_STL@@V?$allocator@D@2@@_STL@@QAE@XZ ; _STL::basic_string<char,_STL::char_traits<char>,_STL::allocator<char> >::~basic_string<char,_STL::char_traits<char>,_STL::allocator<char> >
$L116551:
  00020	c3		 ret	 0
__ehhandler$??$?HDV?$char_traits@D@_STL@@V?$allocator@D@1@@_STL@@YA?AV?$basic_string@DV?$char_traits@D@_STL@@V?$allocator@D@2@@0@ABV10@PBD@Z:
  00021	b8 00 00 00 00	 mov	 eax, OFFSET FLAT:$T116692
  00026	e9 00 00 00 00	 jmp	 ___CxxFrameHandler
text$x	ENDS
??$?HDV?$char_traits@D@_STL@@V?$allocator@D@1@@_STL@@YA?AV?$basic_string@DV?$char_traits@D@_STL@@V?$allocator@D@2@@0@ABV10@PBD@Z ENDP ; _STL::operator+<char,_STL::char_traits<char>,_STL::allocator<char> >
; Function compile flags: /Ogsy
;	COMDAT ?get_allocator@?$basic_string@DV?$char_traits@D@_STL@@V?$allocator@D@2@@_STL@@QBE?AV?$allocator@D@2@XZ
_TEXT	SEGMENT
___$ReturnUdt$ = 8					; size = 4
?get_allocator@?$basic_string@DV?$char_traits@D@_STL@@V?$allocator@D@2@@_STL@@QBE?AV?$allocator@D@2@XZ PROC NEAR ; _STL::basic_string<char,_STL::char_traits<char>,_STL::allocator<char> >::get_allocator, COMDAT
; _this$ = ecx

; 216  :     return _STLP_CONVERT_ALLOCATOR((const allocator_type&)this->_M_end_of_storage, _CharT);

  00000	8b 44 24 04	 mov	 eax, DWORD PTR ___$ReturnUdt$[esp-4]

; 217  :   }

  00004	c2 04 00	 ret	 4
?get_allocator@?$basic_string@DV?$char_traits@D@_STL@@V?$allocator@D@2@@_STL@@QBE?AV?$allocator@D@2@XZ ENDP ; _STL::basic_string<char,_STL::char_traits<char>,_STL::allocator<char> >::get_allocator
; Function compile flags: /Ogsy
_TEXT	ENDS
;	COMDAT ??0?$basic_string@DV?$char_traits@D@_STL@@V?$allocator@D@2@@_STL@@QAE@U_String_reserve_t@1@IABV?$allocator@D@1@@Z
_TEXT	SEGMENT
___formal$ = 8						; size = 1
___n$ = 12						; size = 4
___a$ = 16						; size = 4
??0?$basic_string@DV?$char_traits@D@_STL@@V?$allocator@D@2@@_STL@@QAE@U_String_reserve_t@1@IABV?$allocator@D@1@@Z PROC NEAR ; _STL::basic_string<char,_STL::char_traits<char>,_STL::allocator<char> >::basic_string<char,_STL::char_traits<char>,_STL::allocator<char> >, COMDAT
; _this$ = ecx

; 228  :     : _String_base<_CharT,_Alloc>(__a, __n + 1) { 

  00000	8b 44 24 08	 mov	 eax, DWORD PTR ___n$[esp-4]
  00004	56		 push	 esi
  00005	8b f1		 mov	 esi, ecx
  00007	83 26 00	 and	 DWORD PTR [esi], 0
  0000a	83 66 04 00	 and	 DWORD PTR [esi+4], 0
  0000e	83 66 08 00	 and	 DWORD PTR [esi+8], 0
  00012	40		 inc	 eax
  00013	50		 push	 eax
  00014	e8 00 00 00 00	 call	 ?_M_allocate_block@?$_String_base@DV?$allocator@D@_STL@@@_STL@@QAEXI@Z ; _STL::_String_base<char,_STL::allocator<char> >::_M_allocate_block

; 229  :     _M_terminate_string(); 

  00019	8b 46 04	 mov	 eax, DWORD PTR [esi+4]
  0001c	c6 00 00	 mov	 BYTE PTR [eax], 0

; 230  :   }

  0001f	8b c6		 mov	 eax, esi
  00021	5e		 pop	 esi
  00022	c2 0c 00	 ret	 12			; 0000000cH
??0?$basic_string@DV?$char_traits@D@_STL@@V?$allocator@D@2@@_STL@@QAE@U_String_reserve_t@1@IABV?$allocator@D@1@@Z ENDP ; _STL::basic_string<char,_STL::char_traits<char>,_STL::allocator<char> >::basic_string<char,_STL::char_traits<char>,_STL::allocator<char> >
_TEXT	ENDS
PUBLIC	??$append@PAD@?$basic_string@DV?$char_traits@D@_STL@@V?$allocator@D@2@@_STL@@AAEAAV01@PAD0ABUforward_iterator_tag@1@@Z ; _STL::basic_string<char,_STL::char_traits<char>,_STL::allocator<char> >::append<char *>
; Function compile flags: /Ogsy
;	COMDAT ?append@?$basic_string@DV?$char_traits@D@_STL@@V?$allocator@D@2@@_STL@@QAEAAV12@ABV12@@Z
_TEXT	SEGMENT
___s$ = 8						; size = 4
$T116737 = 11						; size = 1
?append@?$basic_string@DV?$char_traits@D@_STL@@V?$allocator@D@2@@_STL@@QAEAAV12@ABV12@@Z PROC NEAR ; _STL::basic_string<char,_STL::char_traits<char>,_STL::allocator<char> >::append, COMDAT
; _this$ = ecx

; 485  :     { return append(__s._M_start, __s._M_finish); }

  00000	55		 push	 ebp
  00001	8b ec		 mov	 ebp, esp
  00003	8b 45 08	 mov	 eax, DWORD PTR ___s$[ebp]
  00006	8b 50 04	 mov	 edx, DWORD PTR [eax+4]
  00009	8b 00		 mov	 eax, DWORD PTR [eax]
  0000b	56		 push	 esi
  0000c	8d 75 0b	 lea	 esi, DWORD PTR $T116737[ebp]
  0000f	56		 push	 esi
  00010	52		 push	 edx
  00011	50		 push	 eax
  00012	e8 00 00 00 00	 call	 ??$append@PAD@?$basic_string@DV?$char_traits@D@_STL@@V?$allocator@D@2@@_STL@@AAEAAV01@PAD0ABUforward_iterator_tag@1@@Z ; _STL::basic_string<char,_STL::char_traits<char>,_STL::allocator<char> >::append<char *>
  00017	5e		 pop	 esi
  00018	5d		 pop	 ebp
  00019	c2 04 00	 ret	 4
?append@?$basic_string@DV?$char_traits@D@_STL@@V?$allocator@D@2@@_STL@@QAEAAV12@ABV12@@Z ENDP ; _STL::basic_string<char,_STL::char_traits<char>,_STL::allocator<char> >::append
_TEXT	ENDS
;	COMDAT xdata$x
; File c:\stlport-4.6.1\stlport\stl\char_traits.h
xdata$x	SEGMENT
$T116862 DD	0ffffffffH
	DD	00H
	DD	0ffffffffH
	DD	00H
	DD	0ffffffffH
	DD	00H
	DD	0ffffffffH
	DD	00H
$T116864 DD	00H
	DD	00H
	DD	00H
	DD	FLAT:$L116744
$T116863 DD	00H
	DD	00H
	DD	01H
	DD	01H
	DD	FLAT:$T116864
$T116858 DD	019930520H
	DD	04H
	DD	FLAT:$T116862
	DD	01H
	DD	FLAT:$T116863
	DD	2 DUP(00H)
; Function compile flags: /Ogsy
; File c:\stlport-4.6.1\stlport\stl\_string.h
xdata$x	ENDS
;	COMDAT ??$append@PAD@?$basic_string@DV?$char_traits@D@_STL@@V?$allocator@D@2@@_STL@@AAEAAV01@PAD0ABUforward_iterator_tag@1@@Z
_TEXT	SEGMENT
_this$ = -28						; size = 4
___new_start$110082 = -24				; size = 4
$T116742 = -24						; size = 4
___len$110079 = -20					; size = 4
___old_size$110072 = -20				; size = 4
__$EHRec$ = -16						; size = 16
___first$ = 8						; size = 4
$T116831 = 11						; size = 1
$T116808 = 11						; size = 1
$T116801 = 11						; size = 1
___last$ = 12						; size = 4
___formal$ = 16						; size = 4
??$append@PAD@?$basic_string@DV?$char_traits@D@_STL@@V?$allocator@D@2@@_STL@@AAEAAV01@PAD0ABUforward_iterator_tag@1@@Z PROC NEAR ; _STL::basic_string<char,_STL::char_traits<char>,_STL::allocator<char> >::append<char *>, COMDAT
; _this$ = ecx

; 542  :   template <class _ForwardIter> _Self& append(_ForwardIter __first, _ForwardIter __last, 

  00000	b8 00 00 00 00	 mov	 eax, __ehhandler$??$append@PAD@?$basic_string@DV?$char_traits@D@_STL@@V?$allocator@D@2@@_STL@@AAEAAV01@PAD0ABUforward_iterator_tag@1@@Z
  00005	e8 00 00 00 00	 call	 __EH_prolog
  0000a	83 ec 10	 sub	 esp, 16			; 00000010H
  0000d	53		 push	 ebx
  0000e	56		 push	 esi
  0000f	57		 push	 edi

; 543  :                        const forward_iterator_tag &)  {
; 544  :     if (__first != __last) {

  00010	8b 7d 0c	 mov	 edi, DWORD PTR ___last$[ebp]
  00013	39 7d 08	 cmp	 DWORD PTR ___first$[ebp], edi
  00016	8b f1		 mov	 esi, ecx
  00018	89 65 f0	 mov	 DWORD PTR __$EHRec$[ebp], esp
  0001b	89 75 e4	 mov	 DWORD PTR _this$[ebp], esi
  0001e	0f 84 f0 00 00
	00		 je	 $L110085

; 545  : 	    const size_type __old_size = size();

  00024	8b 5e 04	 mov	 ebx, DWORD PTR [esi+4]
  00027	2b 1e		 sub	 ebx, DWORD PTR [esi]

; 546  : 	    difference_type __n = distance(__first, __last);

  00029	2b 7d 08	 sub	 edi, DWORD PTR ___first$[ebp]
  0002c	89 5d ec	 mov	 DWORD PTR ___old_size$110072[ebp], ebx

; 547  : 	    if (__STATIC_CAST(size_type,__n) > max_size() || __old_size > max_size() - __STATIC_CAST(size_type,__n))

  0002f	83 ff fe	 cmp	 edi, -2			; fffffffeH
  00032	77 09		 ja	 SHORT $L110077
  00034	6a fe		 push	 -2			; fffffffeH
  00036	58		 pop	 eax
  00037	2b c7		 sub	 eax, edi
  00039	3b d8		 cmp	 ebx, eax
  0003b	76 0b		 jbe	 SHORT $L116778
$L110077:

; 548  : 	      this->_M_throw_length_error();

  0003d	68 00 00 00 00	 push	 OFFSET FLAT:??_C@_0N@GOPDCEEB@basic_string?$AA@
  00042	e8 00 00 00 00	 call	 ?__stl_throw_length_error@_STL@@YAXPBD@Z ; _STL::__stl_throw_length_error
  00047	59		 pop	 ecx
$L116778:

; 549  : 	    if (__old_size + __n > capacity()) {

  00048	8b 46 08	 mov	 eax, DWORD PTR [esi+8]
  0004b	2b 06		 sub	 eax, DWORD PTR [esi]
  0004d	8d 0c 1f	 lea	 ecx, DWORD PTR [edi+ebx]
  00050	48		 dec	 eax
  00051	3b c8		 cmp	 ecx, eax
  00053	0f 86 8e 00 00
	00		 jbe	 $L110078

; 550  : 	      const size_type __len = __old_size +
; 551  : 	                            (max)(__old_size, __STATIC_CAST(size_type,__n)) + 1;

  00059	3b df		 cmp	 ebx, edi
  0005b	89 7d e8	 mov	 DWORD PTR $T116742[ebp], edi
  0005e	8d 45 e8	 lea	 eax, DWORD PTR $T116742[ebp]
  00061	72 03		 jb	 SHORT $L116790
  00063	8d 45 ec	 lea	 eax, DWORD PTR ___old_size$110072[ebp]
$L116790:
  00066	8b 00		 mov	 eax, DWORD PTR [eax]
  00068	8d 5c 18 01	 lea	 ebx, DWORD PTR [eax+ebx+1]

; 552  : 	      pointer __new_start = this->_M_end_of_storage.allocate(__len);

  0006c	85 db		 test	 ebx, ebx
  0006e	89 5d ec	 mov	 DWORD PTR ___len$110079[ebp], ebx
  00071	74 0b		 je	 SHORT $L116795
  00073	53		 push	 ebx
  00074	e8 00 00 00 00	 call	 ?allocate@?$__node_alloc@$00$0A@@_STL@@SAPAXI@Z ; _STL::__node_alloc<1,0>::allocate
  00079	59		 pop	 ecx
  0007a	8b f8		 mov	 edi, eax
  0007c	eb 02		 jmp	 SHORT $L116861
$L116795:
  0007e	33 ff		 xor	 edi, edi
$L116861:

; 553  : 	      pointer __new_finish = __new_start;
; 554  : 	      _STLP_TRY {
; 555  : 	        __new_finish = uninitialized_copy(this->_M_start, this->_M_finish, __new_start);

  00080	8b 46 04	 mov	 eax, DWORD PTR [esi+4]
  00083	8b 0e		 mov	 ecx, DWORD PTR [esi]
  00085	83 65 fc 00	 and	 DWORD PTR __$EHRec$[ebp+12], 0
  00089	8d 55 0b	 lea	 edx, DWORD PTR $T116801[ebp]
  0008c	52		 push	 edx
  0008d	57		 push	 edi
  0008e	50		 push	 eax
  0008f	51		 push	 ecx
  00090	89 7d e8	 mov	 DWORD PTR ___new_start$110082[ebp], edi
  00093	e8 00 00 00 00	 call	 ??$__uninitialized_copy@PADPAD@_STL@@YAPADPAD00ABU__true_type@0@@Z ; _STL::__uninitialized_copy<char *,char *>
  00098	83 c4 10	 add	 esp, 16			; 00000010H

; 556  : 	        __new_finish = uninitialized_copy(__first, __last, __new_finish);

  0009b	8d 4d 0b	 lea	 ecx, DWORD PTR $T116808[ebp]
  0009e	51		 push	 ecx
  0009f	50		 push	 eax
  000a0	ff 75 0c	 push	 DWORD PTR ___last$[ebp]
  000a3	ff 75 08	 push	 DWORD PTR ___first$[ebp]
  000a6	e8 00 00 00 00	 call	 ??$__uninitialized_copy@PADPAD@_STL@@YAPADPAD00ABU__true_type@0@@Z ; _STL::__uninitialized_copy<char *,char *>

; 560  : 	                    this->_M_end_of_storage.deallocate(__new_start,__len)));

  000ab	83 4d fc ff	 or	 DWORD PTR __$EHRec$[ebp+12], -1
  000af	8b d8		 mov	 ebx, eax
  000b1	83 c4 10	 add	 esp, 16			; 00000010H

; 561  : 	      _STLP_STD::_Destroy(this->_M_start, this->_M_finish + 1);
; 562  : 	      this->_M_deallocate_block();

  000b4	8b ce		 mov	 ecx, esi
  000b6	c6 03 00	 mov	 BYTE PTR [ebx], 0
  000b9	e8 00 00 00 00	 call	 ?_M_deallocate_block@?$_String_base@DV?$allocator@D@_STL@@@_STL@@QAEXXZ ; _STL::_String_base<char,_STL::allocator<char> >::_M_deallocate_block

; 563  : 	      this->_M_start = __new_start;
; 564  : 	      this->_M_finish = __new_finish;
; 565  : 	      this->_M_end_of_storage._M_data = __new_start + __len; 

  000be	8b 45 ec	 mov	 eax, DWORD PTR ___len$110079[ebp]
  000c1	89 3e		 mov	 DWORD PTR [esi], edi
  000c3	03 f8		 add	 edi, eax
  000c5	89 5e 04	 mov	 DWORD PTR [esi+4], ebx
  000c8	89 7e 08	 mov	 DWORD PTR [esi+8], edi

; 566  : 	    }
; 567  : 	    else {

  000cb	eb 47		 jmp	 SHORT $L110085
$L116744:

; 557  : 	        _M_construct_null(__new_finish);
; 558  : 	      }
; 559  : 	      _STLP_UNWIND((_STLP_STD::_Destroy(__new_start,__new_finish),

  000cd	ff 75 ec	 push	 DWORD PTR ___len$110079[ebp]
  000d0	8b 4d e4	 mov	 ecx, DWORD PTR _this$[ebp]
  000d3	ff 75 e8	 push	 DWORD PTR ___new_start$110082[ebp]
  000d6	83 c1 08	 add	 ecx, 8
  000d9	e8 00 00 00 00	 call	 ?deallocate@?$allocator@D@_STL@@QAEXPADI@Z ; _STL::allocator<char>::deallocate

; 560  : 	                    this->_M_end_of_storage.deallocate(__new_start,__len)));

  000de	6a 00		 push	 0
  000e0	6a 00		 push	 0
  000e2	e8 00 00 00 00	 call	 __CxxThrowException@8
$L116865:
$L110078:

; 568  : 	      _ForwardIter __f1 = __first;
; 569  : 	      ++__f1;
; 570  : 	      uninitialized_copy(__f1, __last, this->_M_finish + 1);

  000e7	8d 45 0b	 lea	 eax, DWORD PTR $T116831[ebp]
  000ea	50		 push	 eax
  000eb	8b 46 04	 mov	 eax, DWORD PTR [esi+4]
  000ee	40		 inc	 eax
  000ef	50		 push	 eax
  000f0	8b 45 08	 mov	 eax, DWORD PTR ___first$[ebp]
  000f3	ff 75 0c	 push	 DWORD PTR ___last$[ebp]
  000f6	40		 inc	 eax
  000f7	50		 push	 eax
  000f8	e8 00 00 00 00	 call	 ??$__uninitialized_copy@PADPAD@_STL@@YAPADPAD00ABU__true_type@0@@Z ; _STL::__uninitialized_copy<char *,char *>

; 571  : 	      _STLP_TRY {
; 572  : 	        _M_construct_null(this->_M_finish + __n);

  000fd	8b 46 04	 mov	 eax, DWORD PTR [esi+4]

; 573  : 	      }
; 574  : 	      _STLP_UNWIND(_STLP_STD::_Destroy(this->_M_finish + 1, this->_M_finish + __n));
; 575  : 	      _Traits::assign(*end(), *__first);

  00100	8b 4d 08	 mov	 ecx, DWORD PTR ___first$[ebp]
  00103	c6 04 07 00	 mov	 BYTE PTR [edi+eax], 0
  00107	8b 46 04	 mov	 eax, DWORD PTR [esi+4]
  0010a	8a 09		 mov	 cl, BYTE PTR [ecx]
  0010c	83 c4 10	 add	 esp, 16			; 00000010H
  0010f	88 08		 mov	 BYTE PTR [eax], cl

; 576  : 	      this->_M_finish += __n;

  00111	01 7e 04	 add	 DWORD PTR [esi+4], edi
$L110085:

; 577  : 	    }
; 578  : 	  }
; 579  : 	  return *this;  
; 580  : 	}

  00114	8b 4d f4	 mov	 ecx, DWORD PTR __$EHRec$[ebp+4]
  00117	5f		 pop	 edi
  00118	8b c6		 mov	 eax, esi
  0011a	5e		 pop	 esi
  0011b	64 89 0d 00 00
	00 00		 mov	 DWORD PTR fs:__except_list, ecx
  00122	5b		 pop	 ebx
  00123	c9		 leave
  00124	c2 0c 00	 ret	 12			; 0000000cH
$L116860:
_TEXT	ENDS
;	COMDAT text$x
text$x	SEGMENT
__ehhandler$??$append@PAD@?$basic_string@DV?$char_traits@D@_STL@@V?$allocator@D@2@@_STL@@AAEAAV01@PAD0ABUforward_iterator_tag@1@@Z:
  00000	b8 00 00 00 00	 mov	 eax, OFFSET FLAT:$T116858
  00005	e9 00 00 00 00	 jmp	 ___CxxFrameHandler
text$x	ENDS
??$append@PAD@?$basic_string@DV?$char_traits@D@_STL@@V?$allocator@D@2@@_STL@@AAEAAV01@PAD0ABUforward_iterator_tag@1@@Z ENDP ; _STL::basic_string<char,_STL::char_traits<char>,_STL::allocator<char> >::append<char *>
PUBLIC	??$_M_range_initialize@PAD@?$basic_string@DV?$char_traits@D@_STL@@V?$allocator@D@2@@_STL@@AAEXPAD0ABUforward_iterator_tag@1@@Z ; _STL::basic_string<char,_STL::char_traits<char>,_STL::allocator<char> >::_M_range_initialize<char *>
;	COMDAT xdata$x
xdata$x	SEGMENT
$T116914 DD	0ffffffffH
	DD	FLAT:$L116871
$T116912 DD	019930520H
	DD	01H
	DD	FLAT:$T116914
	DD	2 DUP(00H)
	DD	2 DUP(00H)
; Function compile flags: /Ogsy
; File c:\stlport-4.6.1\stlport\stl\_string.c
xdata$x	ENDS
;	COMDAT ??0?$basic_string@DV?$char_traits@D@_STL@@V?$allocator@D@2@@_STL@@QAE@ABV01@@Z
_TEXT	SEGMENT
_this$ = -20						; size = 4
$T116907 = -13						; size = 1
__$EHRec$ = -12						; size = 12
___s$ = 8						; size = 4
$T116870 = 11						; size = 1
??0?$basic_string@DV?$char_traits@D@_STL@@V?$allocator@D@2@@_STL@@QAE@ABV01@@Z PROC NEAR ; _STL::basic_string<char,_STL::char_traits<char>,_STL::allocator<char> >::basic_string<char,_STL::char_traits<char>,_STL::allocator<char> >, COMDAT
; _this$ = ecx

; 560  : {  

  00000	b8 00 00 00 00	 mov	 eax, __ehhandler$??0?$basic_string@DV?$char_traits@D@_STL@@V?$allocator@D@2@@_STL@@QAE@ABV01@@Z
  00005	e8 00 00 00 00	 call	 __EH_prolog
  0000a	51		 push	 ecx
  0000b	51		 push	 ecx
  0000c	56		 push	 esi
  0000d	8b 75 08	 mov	 esi, DWORD PTR ___s$[ebp]
  00010	57		 push	 edi
  00011	8b f9		 mov	 edi, ecx
  00013	8d 45 0b	 lea	 eax, DWORD PTR $T116870[ebp]
  00016	50		 push	 eax
  00017	8b ce		 mov	 ecx, esi
  00019	89 7d ec	 mov	 DWORD PTR _this$[ebp], edi
  0001c	e8 00 00 00 00	 call	 ?get_allocator@?$basic_string@DV?$char_traits@D@_STL@@V?$allocator@D@2@@_STL@@QBE?AV?$allocator@D@2@XZ ; _STL::basic_string<char,_STL::char_traits<char>,_STL::allocator<char> >::get_allocator
  00021	50		 push	 eax
  00022	8b cf		 mov	 ecx, edi
  00024	e8 00 00 00 00	 call	 ??0?$_String_base@DV?$allocator@D@_STL@@@_STL@@QAE@ABV?$allocator@D@1@@Z ; _STL::_String_base<char,_STL::allocator<char> >::_String_base<char,_STL::allocator<char> >
  00029	83 65 fc 00	 and	 DWORD PTR __$EHRec$[ebp+8], 0

; 561  :   _M_range_initialize(__s._M_start, __s._M_finish);  

  0002d	8d 45 f3	 lea	 eax, DWORD PTR $T116907[ebp]
  00030	50		 push	 eax
  00031	ff 76 04	 push	 DWORD PTR [esi+4]
  00034	8b cf		 mov	 ecx, edi
  00036	ff 36		 push	 DWORD PTR [esi]
  00038	e8 00 00 00 00	 call	 ??$_M_range_initialize@PAD@?$basic_string@DV?$char_traits@D@_STL@@V?$allocator@D@2@@_STL@@AAEXPAD0ABUforward_iterator_tag@1@@Z ; _STL::basic_string<char,_STL::char_traits<char>,_STL::allocator<char> >::_M_range_initialize<char *>

; 562  : } 

  0003d	8b 4d f4	 mov	 ecx, DWORD PTR __$EHRec$[ebp]
  00040	8b c7		 mov	 eax, edi
  00042	5f		 pop	 edi
  00043	5e		 pop	 esi
  00044	64 89 0d 00 00
	00 00		 mov	 DWORD PTR fs:__except_list, ecx
  0004b	c9		 leave
  0004c	c2 04 00	 ret	 4
_TEXT	ENDS
;	COMDAT text$x
text$x	SEGMENT
$L116871:
  00000	8b 4d ec	 mov	 ecx, DWORD PTR _this$[ebp]
  00003	e9 00 00 00 00	 jmp	 ??1?$_String_base@DV?$allocator@D@_STL@@@_STL@@QAE@XZ ; _STL::_String_base<char,_STL::allocator<char> >::~_String_base<char,_STL::allocator<char> >
__ehhandler$??0?$basic_string@DV?$char_traits@D@_STL@@V?$allocator@D@2@@_STL@@QAE@ABV01@@Z:
  00008	b8 00 00 00 00	 mov	 eax, OFFSET FLAT:$T116912
  0000d	e9 00 00 00 00	 jmp	 ___CxxFrameHandler
text$x	ENDS
??0?$basic_string@DV?$char_traits@D@_STL@@V?$allocator@D@2@@_STL@@QAE@ABV01@@Z ENDP ; _STL::basic_string<char,_STL::char_traits<char>,_STL::allocator<char> >::basic_string<char,_STL::char_traits<char>,_STL::allocator<char> >
; Function compile flags: /Ogsy
; File c:\stlport-4.6.1\stlport\stl\_string.h
;	COMDAT ??$_M_range_initialize@PAD@?$basic_string@DV?$char_traits@D@_STL@@V?$allocator@D@2@@_STL@@AAEXPAD0ABUforward_iterator_tag@1@@Z
_TEXT	SEGMENT
___f$ = 8						; size = 4
___l$ = 12						; size = 4
$T116932 = 15						; size = 1
___formal$ = 16						; size = 4
??$_M_range_initialize@PAD@?$basic_string@DV?$char_traits@D@_STL@@V?$allocator@D@2@@_STL@@AAEXPAD0ABUforward_iterator_tag@1@@Z PROC NEAR ; _STL::basic_string<char,_STL::char_traits<char>,_STL::allocator<char> >::_M_range_initialize<char *>, COMDAT
; _this$ = ecx

; 382  :   template <class _ForwardIter> void _M_range_initialize(_ForwardIter __f, _ForwardIter __l, 

  00000	55		 push	 ebp
  00001	8b ec		 mov	 ebp, esp

; 383  :                            const forward_iterator_tag &) {
; 384  :     difference_type __n = distance(__f, __l);
; 385  :     this->_M_allocate_block(__n + 1);

  00003	8b 45 0c	 mov	 eax, DWORD PTR ___l$[ebp]
  00006	2b 45 08	 sub	 eax, DWORD PTR ___f$[ebp]
  00009	56		 push	 esi
  0000a	40		 inc	 eax
  0000b	50		 push	 eax
  0000c	8b f1		 mov	 esi, ecx
  0000e	e8 00 00 00 00	 call	 ?_M_allocate_block@?$_String_base@DV?$allocator@D@_STL@@@_STL@@QAEXI@Z ; _STL::_String_base<char,_STL::allocator<char> >::_M_allocate_block

; 386  :     this->_M_finish = uninitialized_copy(__f, __l, this->_M_start);

  00013	8b 06		 mov	 eax, DWORD PTR [esi]
  00015	8d 4d 0f	 lea	 ecx, DWORD PTR $T116932[ebp]
  00018	51		 push	 ecx
  00019	50		 push	 eax
  0001a	ff 75 0c	 push	 DWORD PTR ___l$[ebp]
  0001d	ff 75 08	 push	 DWORD PTR ___f$[ebp]
  00020	e8 00 00 00 00	 call	 ??$__uninitialized_copy@PADPAD@_STL@@YAPADPAD00ABU__true_type@0@@Z ; _STL::__uninitialized_copy<char *,char *>
  00025	83 c4 10	 add	 esp, 16			; 00000010H
  00028	89 46 04	 mov	 DWORD PTR [esi+4], eax

; 387  :     _M_terminate_string();

  0002b	c6 00 00	 mov	 BYTE PTR [eax], 0
  0002e	5e		 pop	 esi

; 388  :   }

  0002f	5d		 pop	 ebp
  00030	c2 0c 00	 ret	 12			; 0000000cH
??$_M_range_initialize@PAD@?$basic_string@DV?$char_traits@D@_STL@@V?$allocator@D@2@@_STL@@AAEXPAD0ABUforward_iterator_tag@1@@Z ENDP ; _STL::basic_string<char,_STL::char_traits<char>,_STL::allocator<char> >::_M_range_initialize<char *>
_TEXT	ENDS
;	COMDAT xdata$x
; File c:\darkeden\designed_common\project\client\virtualfilesystem\vfstream.inl
xdata$x	SEGMENT
$T116979 DD	0ffffffffH
	DD	FLAT:$L116954
	DD	0ffffffffH
	DD	FLAT:$L116949
$T116972 DD	019930520H
	DD	02H
	DD	FLAT:$T116979
	DD	2 DUP(00H)
	DD	2 DUP(00H)
; Function compile flags: /Ogsy
; File c:\darkeden\designed_common\project\client\spritelib\ctypepack.h
xdata$x	ENDS
;	COMDAT ?LoadFromFile@?$CTypePack2@VCSprite@@VCSprite555@@VCSprite565@@@@UAE_NPBD@Z
_TEXT	SEGMENT
_file$108160 = -92					; size = 80
__$EHRec$ = -12						; size = 12
_i$108162 = 8						; size = 4
_lpszFilename$ = 8					; size = 4
?LoadFromFile@?$CTypePack2@VCSprite@@VCSprite555@@VCSprite565@@@@UAE_NPBD@Z PROC NEAR ; CTypePack2<CSprite,CSprite555,CSprite565>::LoadFromFile, COMDAT
; _this$ = ecx

; 1025 : {

  00000	b8 00 00 00 00	 mov	 eax, __ehhandler$?LoadFromFile@?$CTypePack2@VCSprite@@VCSprite555@@VCSprite565@@@@UAE_NPBD@Z
  00005	e8 00 00 00 00	 call	 __EH_prolog
  0000a	83 ec 50	 sub	 esp, 80			; 00000050H
  0000d	56		 push	 esi
  0000e	57		 push	 edi

; 1026 : 	if(iovfs_base::get_vfs()->IsFileExist(lpszFilename))

  0000f	ff 75 08	 push	 DWORD PTR _lpszFilename$[ebp]
  00012	8b f1		 mov	 esi, ecx
  00014	b9 00 00 00 00	 mov	 ecx, OFFSET FLAT:?s_VFSystem@iovfs_base@@1VVirtualFileSystem@@A ; iovfs_base::s_VFSystem
  00019	e8 00 00 00 00	 call	 ?IsFileExist@VirtualFileSystem@@QBE_NPBD@Z ; VirtualFileSystem::IsFileExist
  0001e	84 c0		 test	 al, al
  00020	0f 84 93 00 00
	00		 je	 $L108159
  00026	53		 push	 ebx

; 1027 : 	{
; 1028 : 		ivfstream file(lpszFilename, std::ios_base::binary);

  00027	8d 4d a4	 lea	 ecx, DWORD PTR _file$108160[ebp]
  0002a	e8 00 00 00 00	 call	 ??0iovfs_base@@QAE@XZ	; iovfs_base::iovfs_base
  0002f	6a 0c		 push	 12			; 0000000cH
  00031	ff 75 08	 push	 DWORD PTR _lpszFilename$[ebp]
  00034	33 ff		 xor	 edi, edi
  00036	bb 00 00 00 00	 mov	 ebx, OFFSET FLAT:??_7ivfstream@@6B@
  0003b	8d 4d a4	 lea	 ecx, DWORD PTR _file$108160[ebp]
  0003e	89 7d fc	 mov	 DWORD PTR __$EHRec$[ebp+8], edi
  00041	89 5d a4	 mov	 DWORD PTR _file$108160[ebp], ebx
  00044	e8 00 00 00 00	 call	 ?open@iovfs_base@@UAEXPBDH@Z ; iovfs_base::open

; 1029 : 		file.read((char *)&m_Size, 2);

  00049	8b 4d a8	 mov	 ecx, DWORD PTR _file$108160[ebp+4]
  0004c	3b cf		 cmp	 ecx, edi
  0004e	c7 45 fc 01 00
	00 00		 mov	 DWORD PTR __$EHRec$[ebp+8], 1
  00055	74 0b		 je	 SHORT $L116965
  00057	8b 01		 mov	 eax, DWORD PTR [ecx]
  00059	6a 02		 push	 2
  0005b	8d 56 08	 lea	 edx, DWORD PTR [esi+8]
  0005e	52		 push	 edx
  0005f	ff 50 10	 call	 DWORD PTR [eax+16]
$L116965:

; 1030 : 		
; 1031 : 		Init(m_Size);

  00062	8b 06		 mov	 eax, DWORD PTR [esi]
  00064	33 c9		 xor	 ecx, ecx
  00066	66 8b 4e 08	 mov	 cx, WORD PTR [esi+8]
  0006a	51		 push	 ecx
  0006b	8b ce		 mov	 ecx, esi
  0006d	ff 50 04	 call	 DWORD PTR [eax+4]

; 1032 : 		
; 1033 : 		register int i = 0;
; 1034 : 		
; 1035 : 		for(; i < m_Size; i++)

  00070	66 39 7e 08	 cmp	 WORD PTR [esi+8], di
  00074	89 7d 08	 mov	 DWORD PTR _i$108162[ebp], edi
  00077	76 1e		 jbe	 SHORT $L108165
$L108163:

; 1036 : 		{
; 1037 : 			m_pData[i].LoadFromFile(file);

  00079	8b 46 04	 mov	 eax, DWORD PTR [esi+4]
  0007c	8d 0c 38	 lea	 ecx, DWORD PTR [eax+edi]
  0007f	8b 01		 mov	 eax, DWORD PTR [ecx]
  00081	8d 55 a4	 lea	 edx, DWORD PTR _file$108160[ebp]
  00084	52		 push	 edx
  00085	ff 50 04	 call	 DWORD PTR [eax+4]
  00088	0f b7 46 08	 movzx	 eax, WORD PTR [esi+8]
  0008c	ff 45 08	 inc	 DWORD PTR _i$108162[ebp]
  0008f	83 c7 10	 add	 edi, 16			; 00000010H
  00092	39 45 08	 cmp	 DWORD PTR _i$108162[ebp], eax
  00095	7c e2		 jl	 SHORT $L108163
$L108165:

; 1038 : 		}
; 1039 : 	}

  00097	83 4d fc ff	 or	 DWORD PTR __$EHRec$[ebp+8], -1
  0009b	8d 4d a4	 lea	 ecx, DWORD PTR _file$108160[ebp]
  0009e	89 5d a4	 mov	 DWORD PTR _file$108160[ebp], ebx
  000a1	e8 00 00 00 00	 call	 ??1iovfs_base@@UAE@XZ	; iovfs_base::~iovfs_base
  000a6	5b		 pop	 ebx
$L108172:

; 1053 : 	}
; 1054 : 
; 1055 : 	return true;

  000a7	b0 01		 mov	 al, 1
$L108158:

; 1056 : }

  000a9	8b 4d f4	 mov	 ecx, DWORD PTR __$EHRec$[ebp]
  000ac	5f		 pop	 edi
  000ad	5e		 pop	 esi
  000ae	64 89 0d 00 00
	00 00		 mov	 DWORD PTR fs:__except_list, ecx
  000b5	c9		 leave
  000b6	c2 04 00	 ret	 4
$L108159:

; 1040 : 	else
; 1041 : 	{
; 1042 : 		
; 1043 : 		if(!LoadFromFileRunning(lpszFilename))

  000b9	ff 75 08	 push	 DWORD PTR _lpszFilename$[ebp]
  000bc	8b 06		 mov	 eax, DWORD PTR [esi]
  000be	8b ce		 mov	 ecx, esi
  000c0	ff 50 18	 call	 DWORD PTR [eax+24]
  000c3	84 c0		 test	 al, al

; 1044 : 			return false;

  000c5	74 1f		 je	 SHORT $L116978

; 1045 : 		
; 1046 : 		register int i = 0;

  000c7	33 ff		 xor	 edi, edi

; 1047 : 
; 1048 : 		for(; i < m_Size; ++i)

  000c9	66 39 7e 08	 cmp	 WORD PTR [esi+8], di
  000cd	76 11		 jbe	 SHORT $L108171
$L108169:

; 1049 : 			Get(i);

  000cf	8b 06		 mov	 eax, DWORD PTR [esi]
  000d1	57		 push	 edi
  000d2	8b ce		 mov	 ecx, esi
  000d4	ff 50 3c	 call	 DWORD PTR [eax+60]
  000d7	0f b7 46 08	 movzx	 eax, WORD PTR [esi+8]
  000db	47		 inc	 edi
  000dc	3b f8		 cmp	 edi, eax
  000de	7c ef		 jl	 SHORT $L108169
$L108171:

; 1050 : 
; 1051 : 		if(m_bRunningLoad)

  000e0	80 7e 0a 00	 cmp	 BYTE PTR [esi+10], 0
  000e4	74 c1		 je	 SHORT $L108172
$L116978:

; 1052 : 			return false;

  000e6	32 c0		 xor	 al, al
  000e8	eb bf		 jmp	 SHORT $L108158
_TEXT	ENDS
;	COMDAT text$x
text$x	SEGMENT
$L116954:
  00000	8d 4d a4	 lea	 ecx, DWORD PTR _file$108160[ebp]
  00003	e9 00 00 00 00	 jmp	 ??1iovfs_base@@UAE@XZ	; iovfs_base::~iovfs_base
$L116949:
  00008	8d 4d a4	 lea	 ecx, DWORD PTR _file$108160[ebp]
  0000b	e9 00 00 00 00	 jmp	 ??1ivfstream@@UAE@XZ	; ivfstream::~ivfstream
__ehhandler$?LoadFromFile@?$CTypePack2@VCSprite@@VCSprite555@@VCSprite565@@@@UAE_NPBD@Z:
  00010	b8 00 00 00 00	 mov	 eax, OFFSET FLAT:$T116972
  00015	e9 00 00 00 00	 jmp	 ___CxxFrameHandler
text$x	ENDS
?LoadFromFile@?$CTypePack2@VCSprite@@VCSprite555@@VCSprite565@@@@UAE_NPBD@Z ENDP ; CTypePack2<CSprite,CSprite555,CSprite565>::LoadFromFile
;	COMDAT xdata$x
; File c:\darkeden\designed_common\project\client\virtualfilesystem\vfstream.inl
xdata$x	SEGMENT
$T117265 DD	0ffffffffH
	DD	FLAT:$L116990
	DD	00H
	DD	FLAT:$L117010
	DD	00H
	DD	FLAT:$L116991
	DD	02H
	DD	FLAT:$L117128
	DD	02H
	DD	FLAT:$L116992
	DD	0ffffffffH
	DD	FLAT:$L117186
	DD	0ffffffffH
	DD	FLAT:$L116993
	DD	06H
	DD	FLAT:$L117199
	DD	06H
	DD	FLAT:$L116994
$T117251 DD	019930520H
	DD	09H
	DD	FLAT:$T117265
	DD	2 DUP(00H)
	DD	2 DUP(00H)
; Function compile flags: /Ogsy
; File c:\darkeden\designed_common\project\client\spritelib\ctypepack.h
xdata$x	ENDS
;	COMDAT ?LoadFromFileData@?$CTypePack2@VCSprite@@VCSprite555@@VCSprite565@@@@UAE_NHHPBD0@Z
_TEXT	SEGMENT
_dataFile$108310 = -880					; size = 80
_indexFile$108318 = -800				; size = 80
_fileHeader$108297 = -720				; size = 80
_dataFile$108315 = -640					; size = 80
_fp$108326 = -560					; size = 4
_bSplitFile$ = -553					; size = 1
_strHeaderPath$108295 = -552				; size = 12
_szFileName$108308 = -540				; size = 260
_szExt$108307 = -280					; size = 256
_lineBuffer$108301 = -24				; size = 8
__$ArrayPad$ = -16					; size = 4
__$EHRec$ = -12						; size = 12
__$ReturnAddr$ = 4					; size = 4
_dataID$ = 8						; size = 4
_fileID$ = 12						; size = 4
_fileStartID$108309 = 16				; size = 4
_packFilename$ = 16					; size = 4
_num$108321 = 18					; size = 2
_dataSize$108302 = 20					; size = 4
_indexFilename$ = 20					; size = 4
?LoadFromFileData@?$CTypePack2@VCSprite@@VCSprite555@@VCSprite565@@@@UAE_NHHPBD0@Z PROC NEAR ; CTypePack2<CSprite,CSprite555,CSprite565>::LoadFromFileData, COMDAT
; _this$ = ecx

; 1425 : {

  00000	b8 00 00 00 00	 mov	 eax, __ehhandler$?LoadFromFileData@?$CTypePack2@VCSprite@@VCSprite555@@VCSprite565@@@@UAE_NHHPBD0@Z
  00005	e8 00 00 00 00	 call	 __EH_prolog
  0000a	81 ec 64 03 00
	00		 sub	 esp, 868		; 00000364H

; 1426 : 	if (dataID < 0 || dataID >= m_Size || fileID < 0)

  00010	83 7d 08 00	 cmp	 DWORD PTR _dataID$[ebp], 0
  00014	a1 00 00 00 00	 mov	 eax, DWORD PTR ___security_cookie
  00019	53		 push	 ebx
  0001a	56		 push	 esi
  0001b	57		 push	 edi
  0001c	89 45 f0	 mov	 DWORD PTR __$ArrayPad$[ebp], eax
  0001f	8b f9		 mov	 edi, ecx
  00021	0f 8c 50 01 00
	00		 jl	 $L108292
  00027	0f b7 47 08	 movzx	 eax, WORD PTR [edi+8]
  0002b	39 45 08	 cmp	 DWORD PTR _dataID$[ebp], eax
  0002e	0f 8d 43 01 00
	00		 jge	 $L108292
  00034	83 7d 0c 00	 cmp	 DWORD PTR _fileID$[ebp], 0
  00038	0f 8c 39 01 00
	00		 jl	 $L108292

; 1429 : 	}
; 1430 : 
; 1431 : 	//-------------------------------------------------------------------
; 1432 : 	// load data file pointer .
; 1433 : 	//-------------------------------------------------------------------
; 1434 : 	bool bSplitFile = !iovfs_base::get_vfs()->IsFileExist(packFilename);

  0003e	8b 5d 10	 mov	 ebx, DWORD PTR _packFilename$[ebp]
  00041	53		 push	 ebx
  00042	b9 00 00 00 00	 mov	 ecx, OFFSET FLAT:?s_VFSystem@iovfs_base@@1VVirtualFileSystem@@A ; iovfs_base::s_VFSystem
  00047	e8 00 00 00 00	 call	 ?IsFileExist@VirtualFileSystem@@QBE_NPBD@Z ; VirtualFileSystem::IsFileExist
  0004c	f6 d8		 neg	 al
  0004e	1a c0		 sbb	 al, al
  00050	fe c0		 inc	 al
  00052	88 85 d7 fd ff
	ff		 mov	 BYTE PTR _bSplitFile$[ebp], al

; 1435 : 
; 1436 : 	if(bSplitFile)

  00058	0f 84 34 02 00
	00		 je	 $L108294

; 1437 : 	{
; 1438 : 		m_strFileName = packFilename;

  0005e	53		 push	 ebx
  0005f	8d 77 20	 lea	 esi, DWORD PTR [edi+32]
  00062	e8 00 00 00 00	 call	 _strlen
  00067	59		 pop	 ecx
  00068	03 c3		 add	 eax, ebx
  0006a	50		 push	 eax
  0006b	53		 push	 ebx
  0006c	8b ce		 mov	 ecx, esi
  0006e	e8 00 00 00 00	 call	 ?assign@?$basic_string@DV?$char_traits@D@_STL@@V?$allocator@D@2@@_STL@@QAEAAV12@PBD0@Z ; _STL::basic_string<char,_STL::char_traits<char>,_STL::allocator<char> >::assign

; 1439 : 		
; 1440 : 		std::string strHeaderPath = m_strFileName + "\\header.inf";

  00073	68 00 00 00 00	 push	 OFFSET FLAT:??_C@_0M@KJGOGBJN@?2header?4inf?$AA@
  00078	8d 85 d8 fd ff
	ff		 lea	 eax, DWORD PTR _strHeaderPath$108295[ebp]
  0007e	56		 push	 esi
  0007f	50		 push	 eax
  00080	e8 00 00 00 00	 call	 ??$?HDV?$char_traits@D@_STL@@V?$allocator@D@1@@_STL@@YA?AV?$basic_string@DV?$char_traits@D@_STL@@V?$allocator@D@2@@0@ABV10@PBD@Z ; _STL::operator+<char,_STL::char_traits<char>,_STL::allocator<char> >
  00085	83 c4 0c	 add	 esp, 12			; 0000000cH
  00088	83 65 fc 00	 and	 DWORD PTR __$EHRec$[ebp+8], 0

; 1441 : 		ivfstream fileHeader(strHeaderPath.c_str(), 0);

  0008c	8b 9d d8 fd ff
	ff		 mov	 ebx, DWORD PTR _strHeaderPath$108295[ebp]
  00092	8d 8d 30 fd ff
	ff		 lea	 ecx, DWORD PTR _fileHeader$108297[ebp]
  00098	e8 00 00 00 00	 call	 ??0iovfs_base@@QAE@XZ	; iovfs_base::iovfs_base
  0009d	6a 08		 push	 8
  0009f	be 00 00 00 00	 mov	 esi, OFFSET FLAT:??_7ivfstream@@6B@
  000a4	53		 push	 ebx
  000a5	8d 8d 30 fd ff
	ff		 lea	 ecx, DWORD PTR _fileHeader$108297[ebp]
  000ab	c6 45 fc 01	 mov	 BYTE PTR __$EHRec$[ebp+8], 1
  000af	89 b5 30 fd ff
	ff		 mov	 DWORD PTR _fileHeader$108297[ebp], esi
  000b5	e8 00 00 00 00	 call	 ?open@iovfs_base@@UAEXPBDH@Z ; iovfs_base::open

; 1442 : 		
; 1443 : 		if(!fileHeader.is_open()) return false;

  000ba	8d 8d 30 fd ff
	ff		 lea	 ecx, DWORD PTR _fileHeader$108297[ebp]
  000c0	c6 45 fc 02	 mov	 BYTE PTR __$EHRec$[ebp+8], 2
  000c4	e8 00 00 00 00	 call	 ?is_open@iovfs_base@@QBE_NXZ ; iovfs_base::is_open
  000c9	84 c0		 test	 al, al
  000cb	74 73		 je	 SHORT $L117264

; 1444 : 		
; 1445 : 		const int bufferSize = 8;
; 1446 : 		char lineBuffer[bufferSize];
; 1447 : 
; 1448 : 		fileHeader.getline(lineBuffer, bufferSize);

  000cd	8b 8d 34 fd ff
	ff		 mov	 ecx, DWORD PTR _fileHeader$108297[ebp+4]
  000d3	33 db		 xor	 ebx, ebx
  000d5	3b cb		 cmp	 ecx, ebx
  000d7	74 0d		 je	 SHORT $L117258
  000d9	8b 01		 mov	 eax, DWORD PTR [ecx]
  000db	6a 0a		 push	 10			; 0000000aH
  000dd	6a 08		 push	 8
  000df	8d 55 e8	 lea	 edx, DWORD PTR _lineBuffer$108301[ebp]
  000e2	52		 push	 edx
  000e3	ff 50 2c	 call	 DWORD PTR [eax+44]
$L117258:

; 1449 : 		int dataSize = static_cast<int>(atoi(lineBuffer));

  000e6	8d 45 e8	 lea	 eax, DWORD PTR _lineBuffer$108301[ebp]
  000e9	50		 push	 eax
  000ea	e8 00 00 00 00	 call	 _atoi
  000ef	59		 pop	 ecx

; 1450 : 
; 1451 : 		fileHeader.getline(lineBuffer, bufferSize);

  000f0	8b 8d 34 fd ff
	ff		 mov	 ecx, DWORD PTR _fileHeader$108297[ebp+4]
  000f6	3b cb		 cmp	 ecx, ebx
  000f8	89 45 14	 mov	 DWORD PTR _dataSize$108302[ebp], eax
  000fb	74 0d		 je	 SHORT $L117067
  000fd	8b 01		 mov	 eax, DWORD PTR [ecx]
  000ff	6a 0a		 push	 10			; 0000000aH
  00101	6a 08		 push	 8
  00103	8d 55 e8	 lea	 edx, DWORD PTR _lineBuffer$108301[ebp]
  00106	52		 push	 edx
  00107	ff 50 2c	 call	 DWORD PTR [eax+44]
$L117067:

; 1452 : 		m_nUnitCount = static_cast<int>(atoi(lineBuffer));

  0010a	8d 45 e8	 lea	 eax, DWORD PTR _lineBuffer$108301[ebp]
  0010d	50		 push	 eax
  0010e	e8 00 00 00 00	 call	 _atoi
  00113	59		 pop	 ecx
  00114	89 47 18	 mov	 DWORD PTR [edi+24], eax

; 1453 : 		m_nUnitTwoMultiplier = LogTwoMultiplier(m_nUnitCount);

  00117	8b c8		 mov	 ecx, eax
  00119	33 c0		 xor	 eax, eax
$L117072:
  0011b	f6 c1 01	 test	 cl, 1
  0011e	75 0a		 jne	 SHORT $L117070
  00120	d1 f9		 sar	 ecx, 1
  00122	40		 inc	 eax
  00123	83 f8 08	 cmp	 eax, 8
  00126	7c f3		 jl	 SHORT $L117072
  00128	33 c0		 xor	 eax, eax
$L117070:

; 1454 : 
; 1455 : 		fileHeader.close();

  0012a	8d 8d 30 fd ff
	ff		 lea	 ecx, DWORD PTR _fileHeader$108297[ebp]
  00130	89 47 1c	 mov	 DWORD PTR [edi+28], eax
  00133	e8 00 00 00 00	 call	 ?close@iovfs_base@@QAEXXZ ; iovfs_base::close

; 1456 : 
; 1457 : 		if (fileID >= dataSize)

  00138	8b 45 14	 mov	 eax, DWORD PTR _dataSize$108302[ebp]
  0013b	39 45 0c	 cmp	 DWORD PTR _fileID$[ebp], eax
  0013e	7c 52		 jl	 SHORT $L108305
$L117264:

; 1458 : 		{
; 1459 : 			return false;

  00140	8d 8d 30 fd ff
	ff		 lea	 ecx, DWORD PTR _fileHeader$108297[ebp]
  00146	c6 45 fc 00	 mov	 BYTE PTR __$EHRec$[ebp+8], 0
  0014a	89 b5 30 fd ff
	ff		 mov	 DWORD PTR _fileHeader$108297[ebp], esi
  00150	e8 00 00 00 00	 call	 ??1iovfs_base@@UAE@XZ	; iovfs_base::~iovfs_base
  00155	8b 85 e0 fd ff
	ff		 mov	 eax, DWORD PTR _strHeaderPath$108295[ebp+8]
  0015b	2b 85 d8 fd ff
	ff		 sub	 eax, DWORD PTR _strHeaderPath$108295[ebp]
  00161	83 4d fc ff	 or	 DWORD PTR __$EHRec$[ebp+8], -1
  00165	50		 push	 eax
  00166	ff b5 d8 fd ff
	ff		 push	 DWORD PTR _strHeaderPath$108295[ebp]
  0016c	8d 8d e0 fd ff
	ff		 lea	 ecx, DWORD PTR _strHeaderPath$108295[ebp+8]
  00172	e8 00 00 00 00	 call	 ?deallocate@?$allocator@D@_STL@@QAEXPADI@Z ; _STL::allocator<char>::deallocate
$L108292:

; 1427 : 	{
; 1428 : 		return false;

  00177	32 c0		 xor	 al, al
$L108290:

; 1524 : }

  00179	8b 4d f4	 mov	 ecx, DWORD PTR __$EHRec$[ebp]
  0017c	5f		 pop	 edi
  0017d	5e		 pop	 esi
  0017e	64 89 0d 00 00
	00 00		 mov	 DWORD PTR fs:__except_list, ecx
  00185	8b 4d f0	 mov	 ecx, DWORD PTR __$ArrayPad$[ebp]
  00188	5b		 pop	 ebx
  00189	e8 00 00 00 00	 call	 @__security_check_cookie@4
  0018e	c9		 leave
  0018f	c2 10 00	 ret	 16			; 00000010H
$L108305:

; 1460 : 		}
; 1461 : 		
; 1462 : 		//  
; 1463 : 		char szExt[_MAX_EXT];
; 1464 : 		_splitpath(packFilename, NULL, NULL, NULL, szExt);

  00192	8d 85 e8 fe ff
	ff		 lea	 eax, DWORD PTR _szExt$108307[ebp]
  00198	50		 push	 eax
  00199	53		 push	 ebx
  0019a	53		 push	 ebx
  0019b	53		 push	 ebx
  0019c	ff 75 10	 push	 DWORD PTR _packFilename$[ebp]
  0019f	e8 00 00 00 00	 call	 __splitpath

; 1465 : 		
; 1466 : 		m_strFileExt = szExt;

  001a4	8d 85 e8 fe ff
	ff		 lea	 eax, DWORD PTR _szExt$108307[ebp]
  001aa	50		 push	 eax
  001ab	e8 00 00 00 00	 call	 _strlen
  001b0	83 c4 18	 add	 esp, 24			; 00000018H
  001b3	8d 84 05 e8 fe
	ff ff		 lea	 eax, DWORD PTR _szExt$108307[ebp+eax]
  001ba	50		 push	 eax
  001bb	8d 85 e8 fe ff
	ff		 lea	 eax, DWORD PTR _szExt$108307[ebp]
  001c1	50		 push	 eax
  001c2	8d 4f 2c	 lea	 ecx, DWORD PTR [edi+44]
  001c5	e8 00 00 00 00	 call	 ?assign@?$basic_string@DV?$char_traits@D@_STL@@V?$allocator@D@2@@_STL@@QAEAAV12@PBD0@Z ; _STL::basic_string<char,_STL::char_traits<char>,_STL::allocator<char> >::assign

; 1467 : 
; 1468 : 		char szFileName[MAX_PATH];
; 1469 : 
; 1470 : 		int fileStartID = GetSplitFile(fileID, szFileName);

  001ca	8d 85 e4 fd ff
	ff		 lea	 eax, DWORD PTR _szFileName$108308[ebp]
  001d0	50		 push	 eax
  001d1	ff 75 0c	 push	 DWORD PTR _fileID$[ebp]
  001d4	8b cf		 mov	 ecx, edi
  001d6	e8 00 00 00 00	 call	 ?GetSplitFile@?$CTypePack2@VCSprite@@VCSprite555@@VCSprite565@@@@IAEHHPAD@Z ; CTypePack2<CSprite,CSprite555,CSprite565>::GetSplitFile

; 1471 : 
; 1472 : 		ivfstream dataFile(szFileName, std::ios_base::binary);

  001db	8d 8d 90 fc ff
	ff		 lea	 ecx, DWORD PTR _dataFile$108310[ebp]
  001e1	89 45 10	 mov	 DWORD PTR _fileStartID$108309[ebp], eax
  001e4	e8 00 00 00 00	 call	 ??0iovfs_base@@QAE@XZ	; iovfs_base::iovfs_base
  001e9	6a 0c		 push	 12			; 0000000cH
  001eb	8d 85 e4 fd ff
	ff		 lea	 eax, DWORD PTR _szFileName$108308[ebp]
  001f1	50		 push	 eax
  001f2	8d 8d 90 fc ff
	ff		 lea	 ecx, DWORD PTR _dataFile$108310[ebp]
  001f8	c6 45 fc 03	 mov	 BYTE PTR __$EHRec$[ebp+8], 3
  001fc	89 b5 90 fc ff
	ff		 mov	 DWORD PTR _dataFile$108310[ebp], esi
  00202	e8 00 00 00 00	 call	 ?open@iovfs_base@@UAEXPBDH@Z ; iovfs_base::open

; 1473 : 
; 1474 : 		dataFile.seekg(2);

  00207	8b 8d 94 fc ff
	ff		 mov	 ecx, DWORD PTR _dataFile$108310[ebp+4]
  0020d	3b cb		 cmp	 ecx, ebx
  0020f	c6 45 fc 04	 mov	 BYTE PTR __$EHRec$[ebp+8], 4
  00213	74 09		 je	 SHORT $L117257
  00215	8b 01		 mov	 eax, DWORD PTR [ecx]
  00217	6a 01		 push	 1
  00219	6a 02		 push	 2
  0021b	ff 50 18	 call	 DWORD PTR [eax+24]
$L117257:
  0021e	8b 5d 08	 mov	 ebx, DWORD PTR _dataID$[ebp]
  00221	c1 e3 04	 shl	 ebx, 4
$L108311:

; 1475 : 
; 1476 : 		do {
; 1477 : 			m_pData[dataID].LoadFromFile(dataFile);

  00224	8b 47 04	 mov	 eax, DWORD PTR [edi+4]
  00227	8d 0c 03	 lea	 ecx, DWORD PTR [ebx+eax]
  0022a	8b 01		 mov	 eax, DWORD PTR [ecx]
  0022c	8d 95 90 fc ff
	ff		 lea	 edx, DWORD PTR _dataFile$108310[ebp]
  00232	52		 push	 edx
  00233	ff 50 04	 call	 DWORD PTR [eax+4]

; 1478 : 		}
; 1479 : 		while(fileStartID++ < fileID);

  00236	8b 45 10	 mov	 eax, DWORD PTR _fileStartID$108309[ebp]
  00239	ff 45 10	 inc	 DWORD PTR _fileStartID$108309[ebp]
  0023c	3b 45 0c	 cmp	 eax, DWORD PTR _fileID$[ebp]
  0023f	7c e3		 jl	 SHORT $L108311

; 1480 : 	}

  00241	8d 8d 90 fc ff
	ff		 lea	 ecx, DWORD PTR _dataFile$108310[ebp]
  00247	c6 45 fc 02	 mov	 BYTE PTR __$EHRec$[ebp+8], 2
  0024b	89 b5 90 fc ff
	ff		 mov	 DWORD PTR _dataFile$108310[ebp], esi
  00251	e8 00 00 00 00	 call	 ??1iovfs_base@@UAE@XZ	; iovfs_base::~iovfs_base
  00256	8d 8d 30 fd ff
	ff		 lea	 ecx, DWORD PTR _fileHeader$108297[ebp]
  0025c	c6 45 fc 00	 mov	 BYTE PTR __$EHRec$[ebp+8], 0
  00260	89 b5 30 fd ff
	ff		 mov	 DWORD PTR _fileHeader$108297[ebp], esi
  00266	e8 00 00 00 00	 call	 ??1iovfs_base@@UAE@XZ	; iovfs_base::~iovfs_base
  0026b	8b 85 e0 fd ff
	ff		 mov	 eax, DWORD PTR _strHeaderPath$108295[ebp+8]
  00271	2b 85 d8 fd ff
	ff		 sub	 eax, DWORD PTR _strHeaderPath$108295[ebp]
  00277	83 4d fc ff	 or	 DWORD PTR __$EHRec$[ebp+8], -1
  0027b	50		 push	 eax
  0027c	ff b5 d8 fd ff
	ff		 push	 DWORD PTR _strHeaderPath$108295[ebp]
  00282	8d 8d e0 fd ff
	ff		 lea	 ecx, DWORD PTR _strHeaderPath$108295[ebp+8]
  00288	e8 00 00 00 00	 call	 ?deallocate@?$allocator@D@_STL@@QAEXPADI@Z ; _STL::allocator<char>::deallocate

; 1481 : 	else

  0028d	e9 51 01 00 00	 jmp	 $L108314
$L108294:

; 1482 : 	{
; 1483 : 		// 	if (access(packFilename, 0) || access(indexFilename, 0))
; 1484 : 		// 	{
; 1485 : 		// 		return false;
; 1486 : 		// 	}
; 1487 : 		
; 1488 : 		ivfstream dataFile(packFilename, std::ios::binary);

  00292	8d 8d 80 fd ff
	ff		 lea	 ecx, DWORD PTR _dataFile$108315[ebp]
  00298	e8 00 00 00 00	 call	 ??0iovfs_base@@QAE@XZ	; iovfs_base::iovfs_base
  0029d	6a 0c		 push	 12			; 0000000cH
  0029f	be 00 00 00 00	 mov	 esi, OFFSET FLAT:??_7ivfstream@@6B@
  002a4	53		 push	 ebx
  002a5	8d 8d 80 fd ff
	ff		 lea	 ecx, DWORD PTR _dataFile$108315[ebp]
  002ab	c7 45 fc 05 00
	00 00		 mov	 DWORD PTR __$EHRec$[ebp+8], 5
  002b2	89 b5 80 fd ff
	ff		 mov	 DWORD PTR _dataFile$108315[ebp], esi
  002b8	e8 00 00 00 00	 call	 ?open@iovfs_base@@UAEXPBDH@Z ; iovfs_base::open

; 1489 : 		
; 1490 : 		if (!dataFile.is_open())

  002bd	8d 8d 80 fd ff
	ff		 lea	 ecx, DWORD PTR _dataFile$108315[ebp]
  002c3	c7 45 fc 06 00
	00 00		 mov	 DWORD PTR __$EHRec$[ebp+8], 6
  002ca	e8 00 00 00 00	 call	 ?is_open@iovfs_base@@QBE_NXZ ; iovfs_base::is_open
  002cf	84 c0		 test	 al, al

; 1491 : 		{
; 1492 : 			return false;

  002d1	74 73		 je	 SHORT $L117263

; 1493 : 		}
; 1494 : 		
; 1495 : 		ivfstream indexFile(indexFilename, std::ios::binary);

  002d3	8d 8d e0 fc ff
	ff		 lea	 ecx, DWORD PTR _indexFile$108318[ebp]
  002d9	e8 00 00 00 00	 call	 ??0iovfs_base@@QAE@XZ	; iovfs_base::iovfs_base
  002de	6a 0c		 push	 12			; 0000000cH
  002e0	ff 75 14	 push	 DWORD PTR _indexFilename$[ebp]
  002e3	8d 8d e0 fc ff
	ff		 lea	 ecx, DWORD PTR _indexFile$108318[ebp]
  002e9	c6 45 fc 07	 mov	 BYTE PTR __$EHRec$[ebp+8], 7
  002ed	89 b5 e0 fc ff
	ff		 mov	 DWORD PTR _indexFile$108318[ebp], esi
  002f3	e8 00 00 00 00	 call	 ?open@iovfs_base@@UAEXPBDH@Z ; iovfs_base::open

; 1496 : 		
; 1497 : 		if (!indexFile.is_open())

  002f8	8d 8d e0 fc ff
	ff		 lea	 ecx, DWORD PTR _indexFile$108318[ebp]
  002fe	c6 45 fc 08	 mov	 BYTE PTR __$EHRec$[ebp+8], 8
  00302	e8 00 00 00 00	 call	 ?is_open@iovfs_base@@QBE_NXZ ; iovfs_base::is_open
  00307	84 c0		 test	 al, al

; 1498 : 		{
; 1499 : 			return false;

  00309	74 26		 je	 SHORT $L117262

; 1500 : 		}
; 1501 : 		
; 1502 : 		
; 1503 : 		//-------------------------------------------------------------------
; 1504 : 		// index  . fileID ..?
; 1505 : 		//-------------------------------------------------------------------
; 1506 : 		TYPE_SPRITEID num;
; 1507 : 		indexFile.read((char*)&num, sizeof(WORD));

  0030b	8b 8d e4 fc ff
	ff		 mov	 ecx, DWORD PTR _indexFile$108318[ebp+4]
  00311	85 c9		 test	 ecx, ecx
  00313	74 11		 je	 SHORT $L117217
  00315	8b 01		 mov	 eax, DWORD PTR [ecx]
  00317	6a 02		 push	 2
  00319	8d 55 12	 lea	 edx, DWORD PTR _num$108321[ebp]
  0031c	52		 push	 edx
  0031d	ff 50 10	 call	 DWORD PTR [eax+16]
  00320	8b 8d e4 fc ff
	ff		 mov	 ecx, DWORD PTR _indexFile$108318[ebp+4]
$L117217:

; 1508 : 		
; 1509 : 		if (fileID >= num)

  00326	0f b7 55 12	 movzx	 edx, WORD PTR _num$108321[ebp]
  0032a	8b 45 0c	 mov	 eax, DWORD PTR _fileID$[ebp]
  0032d	3b c2		 cmp	 eax, edx
  0032f	7c 2f		 jl	 SHORT $L108324
$L117262:

; 1510 : 		{
; 1511 : 			return false;

  00331	8d 8d e0 fc ff
	ff		 lea	 ecx, DWORD PTR _indexFile$108318[ebp]
  00337	c6 45 fc 06	 mov	 BYTE PTR __$EHRec$[ebp+8], 6
  0033b	89 b5 e0 fc ff
	ff		 mov	 DWORD PTR _indexFile$108318[ebp], esi
  00341	e8 00 00 00 00	 call	 ??1iovfs_base@@UAE@XZ	; iovfs_base::~iovfs_base
$L117263:
  00346	83 4d fc ff	 or	 DWORD PTR __$EHRec$[ebp+8], -1
  0034a	8d 8d 80 fd ff
	ff		 lea	 ecx, DWORD PTR _dataFile$108315[ebp]
  00350	89 b5 80 fd ff
	ff		 mov	 DWORD PTR _dataFile$108315[ebp], esi
  00356	e8 00 00 00 00	 call	 ??1iovfs_base@@UAE@XZ	; iovfs_base::~iovfs_base
  0035b	e9 17 fe ff ff	 jmp	 $L108292
$L108324:

; 1512 : 		}
; 1513 : 
; 1514 : 		long fp;	
; 1515 : 		indexFile.seekg( 2 + fileID*4 );		// 2(num) + spriteID * (4 bytes)

  00360	85 c9		 test	 ecx, ecx
  00362	74 27		 je	 SHORT $L117259
  00364	8b 11		 mov	 edx, DWORD PTR [ecx]
  00366	6a 01		 push	 1
  00368	8d 04 85 02 00
	00 00		 lea	 eax, DWORD PTR [eax*4+2]
  0036f	50		 push	 eax
  00370	ff 52 18	 call	 DWORD PTR [edx+24]

; 1516 : 		indexFile.read((char*)&fp, 4);

  00373	8b 8d e4 fc ff
	ff		 mov	 ecx, DWORD PTR _indexFile$108318[ebp+4]
  00379	85 c9		 test	 ecx, ecx
  0037b	74 0e		 je	 SHORT $L117259
  0037d	8b 01		 mov	 eax, DWORD PTR [ecx]
  0037f	6a 04		 push	 4
  00381	8d 95 d0 fd ff
	ff		 lea	 edx, DWORD PTR _fp$108326[ebp]
  00387	52		 push	 edx
  00388	ff 50 10	 call	 DWORD PTR [eax+16]
$L117259:

; 1517 : 		
; 1518 : 		dataFile.seekg( fp );

  0038b	8b 8d 84 fd ff
	ff		 mov	 ecx, DWORD PTR _dataFile$108315[ebp+4]
  00391	85 c9		 test	 ecx, ecx
  00393	74 0d		 je	 SHORT $L117239
  00395	8b 01		 mov	 eax, DWORD PTR [ecx]
  00397	6a 01		 push	 1
  00399	ff b5 d0 fd ff
	ff		 push	 DWORD PTR _fp$108326[ebp]
  0039f	ff 50 18	 call	 DWORD PTR [eax+24]
$L117239:

; 1519 : 
; 1520 : 		m_pData[dataID].LoadFromFile( dataFile );

  003a2	8b 4d 08	 mov	 ecx, DWORD PTR _dataID$[ebp]
  003a5	8b 47 04	 mov	 eax, DWORD PTR [edi+4]
  003a8	c1 e1 04	 shl	 ecx, 4
  003ab	03 c8		 add	 ecx, eax
  003ad	8b 01		 mov	 eax, DWORD PTR [ecx]
  003af	8d 95 80 fd ff
	ff		 lea	 edx, DWORD PTR _dataFile$108315[ebp]
  003b5	52		 push	 edx
  003b6	ff 50 04	 call	 DWORD PTR [eax+4]

; 1521 : 	}

  003b9	8d 8d e0 fc ff
	ff		 lea	 ecx, DWORD PTR _indexFile$108318[ebp]
  003bf	c6 45 fc 06	 mov	 BYTE PTR __$EHRec$[ebp+8], 6
  003c3	89 b5 e0 fc ff
	ff		 mov	 DWORD PTR _indexFile$108318[ebp], esi
  003c9	e8 00 00 00 00	 call	 ??1iovfs_base@@UAE@XZ	; iovfs_base::~iovfs_base
  003ce	83 4d fc ff	 or	 DWORD PTR __$EHRec$[ebp+8], -1
  003d2	8d 8d 80 fd ff
	ff		 lea	 ecx, DWORD PTR _dataFile$108315[ebp]
  003d8	89 b5 80 fd ff
	ff		 mov	 DWORD PTR _dataFile$108315[ebp], esi
  003de	e8 00 00 00 00	 call	 ??1iovfs_base@@UAE@XZ	; iovfs_base::~iovfs_base
$L108314:

; 1522 : 	
; 1523 : 	return true;

  003e3	b0 01		 mov	 al, 1
  003e5	e9 8f fd ff ff	 jmp	 $L108290
_TEXT	ENDS
;	COMDAT text$x
text$x	SEGMENT
$L116990:
  00000	8d 8d d8 fd ff
	ff		 lea	 ecx, DWORD PTR _strHeaderPath$108295[ebp]
  00006	e9 00 00 00 00	 jmp	 ??1?$basic_string@DV?$char_traits@D@_STL@@V?$allocator@D@2@@_STL@@QAE@XZ ; _STL::basic_string<char,_STL::char_traits<char>,_STL::allocator<char> >::~basic_string<char,_STL::char_traits<char>,_STL::allocator<char> >
$L117010:
  0000b	8d 8d 30 fd ff
	ff		 lea	 ecx, DWORD PTR _fileHeader$108297[ebp]
  00011	e9 00 00 00 00	 jmp	 ??1iovfs_base@@UAE@XZ	; iovfs_base::~iovfs_base
$L116991:
  00016	8d 8d 30 fd ff
	ff		 lea	 ecx, DWORD PTR _fileHeader$108297[ebp]
  0001c	e9 00 00 00 00	 jmp	 ??1ivfstream@@UAE@XZ	; ivfstream::~ivfstream
$L117128:
  00021	8d 8d 90 fc ff
	ff		 lea	 ecx, DWORD PTR _dataFile$108310[ebp]
  00027	e9 00 00 00 00	 jmp	 ??1iovfs_base@@UAE@XZ	; iovfs_base::~iovfs_base
$L116992:
  0002c	8d 8d 90 fc ff
	ff		 lea	 ecx, DWORD PTR _dataFile$108310[ebp]
  00032	e9 00 00 00 00	 jmp	 ??1ivfstream@@UAE@XZ	; ivfstream::~ivfstream
$L117186:
  00037	8d 8d 80 fd ff
	ff		 lea	 ecx, DWORD PTR _dataFile$108315[ebp]
  0003d	e9 00 00 00 00	 jmp	 ??1iovfs_base@@UAE@XZ	; iovfs_base::~iovfs_base
$L116993:
  00042	8d 8d 80 fd ff
	ff		 lea	 ecx, DWORD PTR _dataFile$108315[ebp]
  00048	e9 00 00 00 00	 jmp	 ??1ivfstream@@UAE@XZ	; ivfstream::~ivfstream
$L117199:
  0004d	8d 8d e0 fc ff
	ff		 lea	 ecx, DWORD PTR _indexFile$108318[ebp]
  00053	e9 00 00 00 00	 jmp	 ??1iovfs_base@@UAE@XZ	; iovfs_base::~iovfs_base
$L116994:
  00058	8d 8d e0 fc ff
	ff		 lea	 ecx, DWORD PTR _indexFile$108318[ebp]
  0005e	e9 00 00 00 00	 jmp	 ??1ivfstream@@UAE@XZ	; ivfstream::~ivfstream
__ehhandler$?LoadFromFileData@?$CTypePack2@VCSprite@@VCSprite555@@VCSprite565@@@@UAE_NHHPBD0@Z:
  00063	b8 00 00 00 00	 mov	 eax, OFFSET FLAT:$T117251
  00068	e9 00 00 00 00	 jmp	 ___CxxFrameHandler
text$x	ENDS
?LoadFromFileData@?$CTypePack2@VCSprite@@VCSprite555@@VCSprite565@@@@UAE_NHHPBD0@Z ENDP ; CTypePack2<CSprite,CSprite555,CSprite565>::LoadFromFileData
PUBLIC	??_C@_03KLNPHJAI@?$CFsi?$AA@			; `string'
PUBLIC	??0?$basic_ofstream@DV?$char_traits@D@_STL@@@_STL@@QAE@PBDH@Z ; _STL::basic_ofstream<char,_STL::char_traits<char> >::basic_ofstream<char,_STL::char_traits<char> >
PUBLIC	?close@?$basic_ofstream@DV?$char_traits@D@_STL@@@_STL@@QAEXXZ ; _STL::basic_ofstream<char,_STL::char_traits<char> >::close
PUBLIC	??_D?$basic_ofstream@DV?$char_traits@D@_STL@@@_STL@@QAEXXZ ; _STL::basic_ofstream<char,_STL::char_traits<char> >::`vbase destructor'
;	COMDAT xdata$x
; File c:\stlport-4.6.1\stlport\stl\_ios.h
xdata$x	SEGMENT
$T117337 DD	0ffffffffH
	DD	FLAT:$L117272
	DD	00H
	DD	FLAT:$L117273
$T117334 DD	019930520H
	DD	02H
	DD	FLAT:$T117337
	DD	2 DUP(00H)
	DD	2 DUP(00H)
xdata$x	ENDS
;	COMDAT ??_C@_03KLNPHJAI@?$CFsi?$AA@
CONST	SEGMENT
??_C@_03KLNPHJAI@?$CFsi?$AA@ DB '%si', 00H		; `string'
; Function compile flags: /Ogsy
; File c:\darkeden\designed_common\project\client\spritelib\ctypepack.h
CONST	ENDS
;	COMDAT ?SaveToFile@?$CTypePack2@VCSprite@@VCSprite555@@VCSprite565@@@@UAE_NPBD@Z
_TEXT	SEGMENT
_szIndexFilename$ = -1088				; size = 512
_indexFile$ = -576					; size = 280
_dataFile$ = -296					; size = 280
__$ArrayPad$ = -16					; size = 4
__$EHRec$ = -12						; size = 12
__$ReturnAddr$ = 4					; size = 4
_lpszFilename$ = 8					; size = 4
?SaveToFile@?$CTypePack2@VCSprite@@VCSprite555@@VCSprite565@@@@UAE_NPBD@Z PROC NEAR ; CTypePack2<CSprite,CSprite555,CSprite565>::SaveToFile, COMDAT
; _this$ = ecx

; 1060 : {

  00000	b8 00 00 00 00	 mov	 eax, __ehhandler$?SaveToFile@?$CTypePack2@VCSprite@@VCSprite555@@VCSprite565@@@@UAE_NPBD@Z
  00005	e8 00 00 00 00	 call	 __EH_prolog
  0000a	81 ec 34 04 00
	00		 sub	 esp, 1076		; 00000434H
  00010	a1 00 00 00 00	 mov	 eax, DWORD PTR ___security_cookie
  00015	53		 push	 ebx
  00016	56		 push	 esi

; 1061 : 	char szIndexFilename[512];
; 1062 : 	sprintf(szIndexFilename, "%si", lpszFilename);

  00017	ff 75 08	 push	 DWORD PTR _lpszFilename$[ebp]
  0001a	89 45 f0	 mov	 DWORD PTR __$ArrayPad$[ebp], eax
  0001d	8d 85 c0 fb ff
	ff		 lea	 eax, DWORD PTR _szIndexFilename$[ebp]
  00023	68 00 00 00 00	 push	 OFFSET FLAT:??_C@_03KLNPHJAI@?$CFsi?$AA@
  00028	50		 push	 eax
  00029	8b f1		 mov	 esi, ecx
  0002b	e8 00 00 00 00	 call	 _sprintf
  00030	83 c4 0c	 add	 esp, 12			; 0000000cH

; 1063 : 
; 1064 : 	std::ofstream dataFile(lpszFilename, std::ios::binary);

  00033	6a 01		 push	 1
  00035	6a 04		 push	 4
  00037	ff 75 08	 push	 DWORD PTR _lpszFilename$[ebp]
  0003a	8d 8d d8 fe ff
	ff		 lea	 ecx, DWORD PTR _dataFile$[ebp]
  00040	e8 00 00 00 00	 call	 ??0?$basic_ofstream@DV?$char_traits@D@_STL@@@_STL@@QAE@PBDH@Z ; _STL::basic_ofstream<char,_STL::char_traits<char> >::basic_ofstream<char,_STL::char_traits<char> >
  00045	83 65 fc 00	 and	 DWORD PTR __$EHRec$[ebp+8], 0

; 1065 : 	std::ofstream indexFile(szIndexFilename, std::ios::binary);

  00049	6a 01		 push	 1
  0004b	6a 04		 push	 4
  0004d	8d 85 c0 fb ff
	ff		 lea	 eax, DWORD PTR _szIndexFilename$[ebp]
  00053	50		 push	 eax
  00054	8d 8d c0 fd ff
	ff		 lea	 ecx, DWORD PTR _indexFile$[ebp]
  0005a	e8 00 00 00 00	 call	 ??0?$basic_ofstream@DV?$char_traits@D@_STL@@@_STL@@QAE@PBDH@Z ; _STL::basic_ofstream<char,_STL::char_traits<char> >::basic_ofstream<char,_STL::char_traits<char> >

; 1066 : 
; 1067 : 	bool re = SaveToFile(dataFile, indexFile);

  0005f	8b 06		 mov	 eax, DWORD PTR [esi]
  00061	8d 8d c0 fd ff
	ff		 lea	 ecx, DWORD PTR _indexFile$[ebp]
  00067	51		 push	 ecx
  00068	8d 8d d8 fe ff
	ff		 lea	 ecx, DWORD PTR _dataFile$[ebp]
  0006e	51		 push	 ecx
  0006f	8b ce		 mov	 ecx, esi
  00071	c6 45 fc 01	 mov	 BYTE PTR __$EHRec$[ebp+8], 1
  00075	ff 50 14	 call	 DWORD PTR [eax+20]

; 1068 : 
; 1069 : 	dataFile.close();

  00078	8d 8d d8 fe ff
	ff		 lea	 ecx, DWORD PTR _dataFile$[ebp]
  0007e	8a d8		 mov	 bl, al
  00080	e8 00 00 00 00	 call	 ?close@?$basic_ofstream@DV?$char_traits@D@_STL@@@_STL@@QAEXXZ ; _STL::basic_ofstream<char,_STL::char_traits<char> >::close

; 1070 : 	indexFile.close();

  00085	8d 8d c0 fd ff
	ff		 lea	 ecx, DWORD PTR _indexFile$[ebp]
  0008b	e8 00 00 00 00	 call	 ?close@?$basic_ofstream@DV?$char_traits@D@_STL@@@_STL@@QAEXXZ ; _STL::basic_ofstream<char,_STL::char_traits<char> >::close

; 1071 : 
; 1072 : 	return re;

  00090	8d 8d c0 fd ff
	ff		 lea	 ecx, DWORD PTR _indexFile$[ebp]
  00096	c6 45 fc 00	 mov	 BYTE PTR __$EHRec$[ebp+8], 0
  0009a	e8 00 00 00 00	 call	 ??_D?$basic_ofstream@DV?$char_traits@D@_STL@@@_STL@@QAEXXZ
  0009f	83 4d fc ff	 or	 DWORD PTR __$EHRec$[ebp+8], -1
  000a3	8d 8d d8 fe ff
	ff		 lea	 ecx, DWORD PTR _dataFile$[ebp]
  000a9	e8 00 00 00 00	 call	 ??_D?$basic_ofstream@DV?$char_traits@D@_STL@@@_STL@@QAEXXZ

; 1073 : }

  000ae	8b 4d f4	 mov	 ecx, DWORD PTR __$EHRec$[ebp]
  000b1	5e		 pop	 esi
  000b2	64 89 0d 00 00
	00 00		 mov	 DWORD PTR fs:__except_list, ecx
  000b9	8b 4d f0	 mov	 ecx, DWORD PTR __$ArrayPad$[ebp]
  000bc	8a c3		 mov	 al, bl
  000be	5b		 pop	 ebx
  000bf	e8 00 00 00 00	 call	 @__security_check_cookie@4
  000c4	c9		 leave
  000c5	c2 04 00	 ret	 4
_TEXT	ENDS
;	COMDAT text$x
text$x	SEGMENT
$L117272:
  00000	8d 8d d8 fe ff
	ff		 lea	 ecx, DWORD PTR _dataFile$[ebp]
  00006	e9 00 00 00 00	 jmp	 ??_D?$basic_ofstream@DV?$char_traits@D@_STL@@@_STL@@QAEXXZ
$L117273:
  0000b	8d 8d c0 fd ff
	ff		 lea	 ecx, DWORD PTR _indexFile$[ebp]
  00011	e9 00 00 00 00	 jmp	 ??_D?$basic_ofstream@DV?$char_traits@D@_STL@@@_STL@@QAEXXZ
__ehhandler$?SaveToFile@?$CTypePack2@VCSprite@@VCSprite555@@VCSprite565@@@@UAE_NPBD@Z:
  00016	b8 00 00 00 00	 mov	 eax, OFFSET FLAT:$T117334
  0001b	e9 00 00 00 00	 jmp	 ___CxxFrameHandler
text$x	ENDS
?SaveToFile@?$CTypePack2@VCSprite@@VCSprite555@@VCSprite565@@@@UAE_NPBD@Z ENDP ; CTypePack2<CSprite,CSprite555,CSprite565>::SaveToFile
PUBLIC	?close@?$basic_filebuf@DV?$char_traits@D@_STL@@@_STL@@QAEPAV12@XZ ; _STL::basic_filebuf<char,_STL::char_traits<char> >::close
; Function compile flags: /Ogsy
; File c:\stlport-4.6.1\stlport\stl\_fstream.h
;	COMDAT ?close@?$basic_ofstream@DV?$char_traits@D@_STL@@@_STL@@QAEXXZ
_TEXT	SEGMENT
?close@?$basic_ofstream@DV?$char_traits@D@_STL@@@_STL@@QAEXXZ PROC NEAR ; _STL::basic_ofstream<char,_STL::char_traits<char> >::close, COMDAT
; _this$ = ecx

; 631  :   void close() {

  00000	56		 push	 esi
  00001	8b f1		 mov	 esi, ecx

; 632  :     if (!this->rdbuf()->close())

  00003	8d 4e 04	 lea	 ecx, DWORD PTR [esi+4]
  00006	e8 00 00 00 00	 call	 ?close@?$basic_filebuf@DV?$char_traits@D@_STL@@@_STL@@QAEPAV12@XZ ; _STL::basic_filebuf<char,_STL::char_traits<char> >::close
  0000b	85 c0		 test	 eax, eax
  0000d	75 13		 jne	 SHORT $L117350

; 633  :       this->setstate(ios_base::failbit);

  0000f	8b 06		 mov	 eax, DWORD PTR [esi]
  00011	8b 48 04	 mov	 ecx, DWORD PTR [eax+4]
  00014	03 ce		 add	 ecx, esi
  00016	8b 41 08	 mov	 eax, DWORD PTR [ecx+8]
  00019	83 c8 04	 or	 eax, 4
  0001c	50		 push	 eax
  0001d	e8 00 00 00 00	 call	 ?clear@?$basic_ios@DV?$char_traits@D@_STL@@@_STL@@QAEXH@Z ; _STL::basic_ios<char,_STL::char_traits<char> >::clear
$L117350:
  00022	5e		 pop	 esi

; 634  :   }

  00023	c3		 ret	 0
?close@?$basic_ofstream@DV?$char_traits@D@_STL@@@_STL@@QAEXXZ ENDP ; _STL::basic_ofstream<char,_STL::char_traits<char> >::close
_TEXT	ENDS
PUBLIC	?_M_exit_input_mode@?$basic_filebuf@DV?$char_traits@D@_STL@@@_STL@@AAEXXZ ; _STL::basic_filebuf<char,_STL::char_traits<char> >::_M_exit_input_mode
PUBLIC	?_M_unshift@?$basic_filebuf@DV?$char_traits@D@_STL@@@_STL@@AAE_NXZ ; _STL::basic_filebuf<char,_STL::char_traits<char> >::_M_unshift
EXTRN	?_M_close@_Filebuf_base@_STL@@QAE_NXZ:NEAR	; _STL::_Filebuf_base::_M_close
; Function compile flags: /Ogsy
; File c:\stlport-4.6.1\stlport\stl\_fstream.c
;	COMDAT ?close@?$basic_filebuf@DV?$char_traits@D@_STL@@@_STL@@QAEPAV12@XZ
_TEXT	SEGMENT
___ok$ = -1						; size = 1
?close@?$basic_filebuf@DV?$char_traits@D@_STL@@@_STL@@QAEPAV12@XZ PROC NEAR ; _STL::basic_filebuf<char,_STL::char_traits<char> >::close, COMDAT
; _this$ = ecx

; 81   : {

  00000	55		 push	 ebp
  00001	8b ec		 mov	 ebp, esp
  00003	51		 push	 ecx
  00004	53		 push	 ebx
  00005	56		 push	 esi
  00006	8b f1		 mov	 esi, ecx

; 82   :   bool __ok = this->is_open();

  00008	33 db		 xor	 ebx, ebx
  0000a	38 5e 60	 cmp	 BYTE PTR [esi+96], bl
  0000d	0f 95 45 ff	 setne	 BYTE PTR ___ok$[ebp]

; 83   : 
; 84   :   if (_M_in_output_mode) {

  00011	38 5e 68	 cmp	 BYTE PTR [esi+104], bl
  00014	74 21		 je	 SHORT $L107322

; 85   :     __ok = __ok && !_Traits::eq_int_type(this->overflow(traits_type::eof()),
; 86   :                                          traits_type::eof());

  00016	38 5d ff	 cmp	 BYTE PTR ___ok$[ebp], bl
  00019	74 10		 je	 SHORT $L117360
  0001b	8b 06		 mov	 eax, DWORD PTR [esi]
  0001d	6a ff		 push	 -1
  0001f	ff 50 30	 call	 DWORD PTR [eax+48]
  00022	83 f8 ff	 cmp	 eax, -1
  00025	c6 45 ff 01	 mov	 BYTE PTR ___ok$[ebp], 1
  00029	75 03		 jne	 SHORT $L117361
$L117360:
  0002b	88 5d ff	 mov	 BYTE PTR ___ok$[ebp], bl
$L117361:

; 87   :     __ok == __ok && this->_M_unshift();

  0002e	8b ce		 mov	 ecx, esi
  00030	e8 00 00 00 00	 call	 ?_M_unshift@?$basic_filebuf@DV?$char_traits@D@_STL@@@_STL@@AAE_NXZ ; _STL::basic_filebuf<char,_STL::char_traits<char> >::_M_unshift

; 88   :   }
; 89   :   else if (_M_in_input_mode)

  00035	eb 0c		 jmp	 SHORT $L107326
$L107322:
  00037	38 5e 67	 cmp	 BYTE PTR [esi+103], bl
  0003a	74 07		 je	 SHORT $L107326

; 90   :       this->_M_exit_input_mode();

  0003c	8b ce		 mov	 ecx, esi
  0003e	e8 00 00 00 00	 call	 ?_M_exit_input_mode@?$basic_filebuf@DV?$char_traits@D@_STL@@@_STL@@AAEXXZ ; _STL::basic_filebuf<char,_STL::char_traits<char> >::_M_exit_input_mode
$L107326:

; 91   : 
; 92   :   // Note order of arguments.  We close the file even if __ok is false.
; 93   :   __ok = _M_base._M_close() && __ok;

  00043	8d 4e 54	 lea	 ecx, DWORD PTR [esi+84]
  00046	e8 00 00 00 00	 call	 ?_M_close@_Filebuf_base@_STL@@QAE_NXZ ; _STL::_Filebuf_base::_M_close
  0004b	84 c0		 test	 al, al
  0004d	74 09		 je	 SHORT $L117363
  0004f	38 5d ff	 cmp	 BYTE PTR ___ok$[ebp], bl
  00052	74 04		 je	 SHORT $L117363
  00054	b0 01		 mov	 al, 1
  00056	eb 02		 jmp	 SHORT $L117364
$L117363:
  00058	32 c0		 xor	 al, al
$L117364:

; 94   : 
; 95   :   // Restore the initial state, except that we don't deallocate the buffer
; 96   :   // or mess with the cached codecvt information.
; 97   :   _M_state = _M_end_state = _State_type();
; 98   :   _M_ext_buf_converted = _M_ext_buf_end = 0;
; 99   : 
; 100  :   _M_mmap_base = 0;
; 101  :   _M_mmap_len = 0;
; 102  : 
; 103  :   this->setg(0, 0, 0);

  0005a	8b 4e 04	 mov	 ecx, DWORD PTR [esi+4]
  0005d	89 9e 88 00 00
	00		 mov	 DWORD PTR [esi+136], ebx
  00063	89 9e 84 00 00
	00		 mov	 DWORD PTR [esi+132], ebx
  00069	89 9e 80 00 00
	00		 mov	 DWORD PTR [esi+128], ebx
  0006f	89 5e 7c	 mov	 DWORD PTR [esi+124], ebx
  00072	89 9e 8c 00 00
	00		 mov	 DWORD PTR [esi+140], ebx
  00078	89 9e 90 00 00
	00		 mov	 DWORD PTR [esi+144], ebx
  0007e	89 59 08	 mov	 DWORD PTR [ecx+8], ebx
  00081	89 19		 mov	 DWORD PTR [ecx], ebx
  00083	89 59 04	 mov	 DWORD PTR [ecx+4], ebx

; 104  :   this->setp(0, 0);

  00086	8b 4e 08	 mov	 ecx, DWORD PTR [esi+8]

; 105  : 
; 106  :   _M_saved_eback = _M_saved_gptr = _M_saved_egptr = 0;
; 107  : 
; 108  :   _M_in_input_mode = _M_in_output_mode = _M_in_error_mode = _M_in_putback_mode
; 109  :     = false;
; 110  : 
; 111  :   return __ok ? this : 0;

  00089	f6 d8		 neg	 al
  0008b	89 59 08	 mov	 DWORD PTR [ecx+8], ebx
  0008e	89 19		 mov	 DWORD PTR [ecx], ebx
  00090	89 59 04	 mov	 DWORD PTR [ecx+4], ebx
  00093	89 9e 9c 00 00
	00		 mov	 DWORD PTR [esi+156], ebx
  00099	89 9e 98 00 00
	00		 mov	 DWORD PTR [esi+152], ebx
  0009f	89 9e 94 00 00
	00		 mov	 DWORD PTR [esi+148], ebx
  000a5	1b c0		 sbb	 eax, eax
  000a7	88 5e 6a	 mov	 BYTE PTR [esi+106], bl
  000aa	88 5e 69	 mov	 BYTE PTR [esi+105], bl
  000ad	88 5e 68	 mov	 BYTE PTR [esi+104], bl
  000b0	88 5e 67	 mov	 BYTE PTR [esi+103], bl
  000b3	23 c6		 and	 eax, esi
  000b5	5e		 pop	 esi
  000b6	5b		 pop	 ebx

; 112  : }

  000b7	c9		 leave
  000b8	c3		 ret	 0
?close@?$basic_filebuf@DV?$char_traits@D@_STL@@@_STL@@QAEPAV12@XZ ENDP ; _STL::basic_filebuf<char,_STL::char_traits<char> >::close
_TEXT	ENDS
EXTRN	?_M_unmap@_Filebuf_base@_STL@@QAEXPAXJ@Z:NEAR	; _STL::_Filebuf_base::_M_unmap
; Function compile flags: /Ogsy
;	COMDAT ?_M_exit_input_mode@?$basic_filebuf@DV?$char_traits@D@_STL@@@_STL@@AAEXXZ
_TEXT	SEGMENT
?_M_exit_input_mode@?$basic_filebuf@DV?$char_traits@D@_STL@@@_STL@@AAEXXZ PROC NEAR ; _STL::basic_filebuf<char,_STL::char_traits<char> >::_M_exit_input_mode, COMDAT
; _this$ = ecx

; 119  : {

  00000	56		 push	 esi
  00001	8b f1		 mov	 esi, ecx

; 120  :    if (_M_mmap_base != 0)

  00003	8b 86 8c 00 00
	00		 mov	 eax, DWORD PTR [esi+140]
  00009	85 c0		 test	 eax, eax
  0000b	74 0f		 je	 SHORT $L107332

; 121  :      _M_base._M_unmap(_M_mmap_base, _M_mmap_len); 

  0000d	ff b6 90 00 00
	00		 push	 DWORD PTR [esi+144]
  00013	8d 4e 54	 lea	 ecx, DWORD PTR [esi+84]
  00016	50		 push	 eax
  00017	e8 00 00 00 00	 call	 ?_M_unmap@_Filebuf_base@_STL@@QAEXPAXJ@Z ; _STL::_Filebuf_base::_M_unmap
$L107332:

; 122  :    _M_in_input_mode = false;
; 123  :    _M_mmap_base = 0;

  0001c	83 a6 8c 00 00
	00 00		 and	 DWORD PTR [esi+140], 0
  00023	c6 46 67 00	 mov	 BYTE PTR [esi+103], 0
  00027	5e		 pop	 esi

; 124  : }

  00028	c3		 ret	 0
?_M_exit_input_mode@?$basic_filebuf@DV?$char_traits@D@_STL@@@_STL@@AAEXXZ ENDP ; _STL::basic_filebuf<char,_STL::char_traits<char> >::_M_exit_input_mode
_TEXT	ENDS
EXTRN	?_M_write@_Filebuf_base@_STL@@QAE_NPADH@Z:NEAR	; _STL::_Filebuf_base::_M_write
; Function compile flags: /Ogsy
;	COMDAT ?_M_unshift@?$basic_filebuf@DV?$char_traits@D@_STL@@@_STL@@AAE_NXZ
_TEXT	SEGMENT
___enext$109125 = -4					; size = 4
?_M_unshift@?$basic_filebuf@DV?$char_traits@D@_STL@@@_STL@@AAE_NXZ PROC NEAR ; _STL::basic_filebuf<char,_STL::char_traits<char> >::_M_unshift, COMDAT
; _this$ = ecx

; 605  : {

  00000	55		 push	 ebp
  00001	8b ec		 mov	 ebp, esp
  00003	51		 push	 ecx
  00004	53		 push	 ebx
  00005	56		 push	 esi
  00006	8b f1		 mov	 esi, ecx

; 606  :   if (_M_in_output_mode && !_M_constant_width) {

  00008	80 7e 68 00	 cmp	 BYTE PTR [esi+104], 0
  0000c	57		 push	 edi
  0000d	74 57		 je	 SHORT $L109124
  0000f	80 7e 64 00	 cmp	 BYTE PTR [esi+100], 0
  00013	75 51		 jne	 SHORT $L109124
$L109122:

; 607  :     typename _Codecvt::result __status;
; 608  :     do {
; 609  :       char* __enext = _M_ext_buf;

  00015	8b 46 74	 mov	 eax, DWORD PTR [esi+116]

; 610  :       __status = _M_codecvt->unshift(_M_state,
; 611  :                                      _M_ext_buf, _M_ext_buf_EOS, __enext);

  00018	8b 56 78	 mov	 edx, DWORD PTR [esi+120]
  0001b	8b 8e a0 00 00
	00		 mov	 ecx, DWORD PTR [esi+160]
  00021	8d 5d fc	 lea	 ebx, DWORD PTR ___enext$109125[ebp]
  00024	53		 push	 ebx
  00025	52		 push	 edx
  00026	89 45 fc	 mov	 DWORD PTR ___enext$109125[ebp], eax
  00029	8b 39		 mov	 edi, DWORD PTR [ecx]
  0002b	50		 push	 eax
  0002c	8d 86 84 00 00
	00		 lea	 eax, DWORD PTR [esi+132]
  00032	50		 push	 eax
  00033	ff 57 0c	 call	 DWORD PTR [edi+12]
  00036	8b f8		 mov	 edi, eax

; 612  :       if (__status == _Codecvt::noconv ||
; 613  :           (__enext == _M_ext_buf && __status == _Codecvt::ok))

  00038	83 ff 03	 cmp	 edi, 3
  0003b	74 29		 je	 SHORT $L109124
  0003d	8b 45 fc	 mov	 eax, DWORD PTR ___enext$109125[ebp]
  00040	3b 46 74	 cmp	 eax, DWORD PTR [esi+116]
  00043	75 04		 jne	 SHORT $L109126
  00045	85 ff		 test	 edi, edi
  00047	74 1d		 je	 SHORT $L109124
$L109126:

; 614  :         return true;
; 615  :       else if (__status == _Codecvt::error)

  00049	83 ff 02	 cmp	 edi, 2
  0004c	74 1f		 je	 SHORT $L117428

; 616  :         return false;
; 617  :       else if (!_M_write(_M_ext_buf, __enext - _M_ext_buf))

  0004e	8b 4e 74	 mov	 ecx, DWORD PTR [esi+116]
  00051	2b c1		 sub	 eax, ecx
  00053	50		 push	 eax
  00054	51		 push	 ecx
  00055	8d 4e 54	 lea	 ecx, DWORD PTR [esi+84]
  00058	e8 00 00 00 00	 call	 ?_M_write@_Filebuf_base@_STL@@QAE_NPADH@Z ; _STL::_Filebuf_base::_M_write
  0005d	84 c0		 test	 al, al
  0005f	74 0c		 je	 SHORT $L117428

; 619  :     } while(__status == _Codecvt::partial);

  00061	83 ff 01	 cmp	 edi, 1
  00064	74 af		 je	 SHORT $L109122
$L109124:

; 620  :   }
; 621  : 
; 622  :   return true;

  00066	b0 01		 mov	 al, 1
$L109119:
  00068	5f		 pop	 edi
  00069	5e		 pop	 esi
  0006a	5b		 pop	 ebx

; 623  : }

  0006b	c9		 leave
  0006c	c3		 ret	 0
$L117428:

; 618  :         return false;

  0006d	32 c0		 xor	 al, al
  0006f	eb f7		 jmp	 SHORT $L109119
?_M_unshift@?$basic_filebuf@DV?$char_traits@D@_STL@@@_STL@@AAE_NXZ ENDP ; _STL::basic_filebuf<char,_STL::char_traits<char> >::_M_unshift
_TEXT	ENDS
PUBLIC	??1?$basic_ofstream@DV?$char_traits@D@_STL@@@_STL@@UAE@XZ ; _STL::basic_ofstream<char,_STL::char_traits<char> >::~basic_ofstream<char,_STL::char_traits<char> >
PUBLIC	??1?$basic_ios@DV?$char_traits@D@_STL@@@_STL@@UAE@XZ ; _STL::basic_ios<char,_STL::char_traits<char> >::~basic_ios<char,_STL::char_traits<char> >
; Function compile flags: /Ogsy
;	COMDAT ??_D?$basic_ofstream@DV?$char_traits@D@_STL@@@_STL@@QAEXXZ
_TEXT	SEGMENT
??_D?$basic_ofstream@DV?$char_traits@D@_STL@@@_STL@@QAEXXZ PROC NEAR ; _STL::basic_ofstream<char,_STL::char_traits<char> >::`vbase destructor', COMDAT
; _this$ = ecx
  00000	56		 push	 esi
  00001	8d b1 b8 00 00
	00		 lea	 esi, DWORD PTR [ecx+184]
  00007	8b ce		 mov	 ecx, esi
  00009	e8 00 00 00 00	 call	 ??1?$basic_ofstream@DV?$char_traits@D@_STL@@@_STL@@UAE@XZ ; _STL::basic_ofstream<char,_STL::char_traits<char> >::~basic_ofstream<char,_STL::char_traits<char> >
  0000e	8b ce		 mov	 ecx, esi
  00010	5e		 pop	 esi
  00011	e9 00 00 00 00	 jmp	 ??1?$basic_ios@DV?$char_traits@D@_STL@@@_STL@@UAE@XZ ; _STL::basic_ios<char,_STL::char_traits<char> >::~basic_ios<char,_STL::char_traits<char> >
??_D?$basic_ofstream@DV?$char_traits@D@_STL@@@_STL@@QAEXXZ ENDP ; _STL::basic_ofstream<char,_STL::char_traits<char> >::`vbase destructor'
_TEXT	ENDS
PUBLIC	??_R4?$basic_ios@DV?$char_traits@D@_STL@@@_STL@@6B@ ; _STL::basic_ios<char,_STL::char_traits<char> >::`RTTI Complete Object Locator'
PUBLIC	??_R3?$basic_ios@DV?$char_traits@D@_STL@@@_STL@@8 ; _STL::basic_ios<char,_STL::char_traits<char> >::`RTTI Class Hierarchy Descriptor'
PUBLIC	??_R2?$basic_ios@DV?$char_traits@D@_STL@@@_STL@@8 ; _STL::basic_ios<char,_STL::char_traits<char> >::`RTTI Base Class Array'
PUBLIC	??_R1A@?0A@A@?$basic_ios@DV?$char_traits@D@_STL@@@_STL@@8 ; _STL::basic_ios<char,_STL::char_traits<char> >::`RTTI Base Class Descriptor at (0,-1,0,0)'
PUBLIC	??_R1A@?0A@A@ios_base@_STL@@8			; _STL::ios_base::`RTTI Base Class Descriptor at (0,-1,0,0)'
PUBLIC	??_7?$basic_ios@DV?$char_traits@D@_STL@@@_STL@@6B@ ; _STL::basic_ios<char,_STL::char_traits<char> >::`vftable'
PUBLIC	??_G?$basic_ios@DV?$char_traits@D@_STL@@@_STL@@UAEPAXI@Z ; _STL::basic_ios<char,_STL::char_traits<char> >::`scalar deleting destructor'
PUBLIC	??_R0?AV?$basic_ios@DV?$char_traits@D@_STL@@@_STL@@@8 ; _STL::basic_ios<char,_STL::char_traits<char> > `RTTI Type Descriptor'
PUBLIC	??_R0?AVios_base@_STL@@@8			; _STL::ios_base `RTTI Type Descriptor'
EXTRN	??_E?$basic_ios@DV?$char_traits@D@_STL@@@_STL@@UAEPAXI@Z:NEAR ; _STL::basic_ios<char,_STL::char_traits<char> >::`vector deleting destructor'
EXTRN	??1ios_base@_STL@@UAE@XZ:NEAR			; _STL::ios_base::~ios_base
;	COMDAT ??_7?$basic_ios@DV?$char_traits@D@_STL@@@_STL@@6B@
; File c:\stlport-4.6.1\stlport\stl\_ios.h
CONST	SEGMENT
??_7?$basic_ios@DV?$char_traits@D@_STL@@@_STL@@6B@ DD FLAT:??_R4?$basic_ios@DV?$char_traits@D@_STL@@@_STL@@6B@ ; _STL::basic_ios<char,_STL::char_traits<char> >::`vftable'
	DD	FLAT:??_E?$basic_ios@DV?$char_traits@D@_STL@@@_STL@@UAEPAXI@Z
CONST	ENDS
;	COMDAT ??_R4?$basic_ios@DV?$char_traits@D@_STL@@@_STL@@6B@
rdata$r	SEGMENT
??_R4?$basic_ios@DV?$char_traits@D@_STL@@@_STL@@6B@ DD 00H ; _STL::basic_ios<char,_STL::char_traits<char> >::`RTTI Complete Object Locator'
	DD	00H
	DD	00H
	DD	FLAT:??_R0?AV?$basic_ios@DV?$char_traits@D@_STL@@@_STL@@@8
	DD	FLAT:??_R3?$basic_ios@DV?$char_traits@D@_STL@@@_STL@@8
rdata$r	ENDS
;	COMDAT ??_R0?AV?$basic_ios@DV?$char_traits@D@_STL@@@_STL@@@8
_DATA	SEGMENT
??_R0?AV?$basic_ios@DV?$char_traits@D@_STL@@@_STL@@@8 DD FLAT:??_7type_info@@6B@ ; _STL::basic_ios<char,_STL::char_traits<char> > `RTTI Type Descriptor'
	DD	00H
	DB	'.?AV?$basic_ios@DV?$char_traits@D@_STL@@@_STL@@', 00H
_DATA	ENDS
;	COMDAT ??_R3?$basic_ios@DV?$char_traits@D@_STL@@@_STL@@8
rdata$r	SEGMENT
??_R3?$basic_ios@DV?$char_traits@D@_STL@@@_STL@@8 DD 00H ; _STL::basic_ios<char,_STL::char_traits<char> >::`RTTI Class Hierarchy Descriptor'
	DD	00H
	DD	02H
	DD	FLAT:??_R2?$basic_ios@DV?$char_traits@D@_STL@@@_STL@@8
rdata$r	ENDS
;	COMDAT ??_R2?$basic_ios@DV?$char_traits@D@_STL@@@_STL@@8
rdata$r	SEGMENT
??_R2?$basic_ios@DV?$char_traits@D@_STL@@@_STL@@8 DD FLAT:??_R1A@?0A@A@?$basic_ios@DV?$char_traits@D@_STL@@@_STL@@8 ; _STL::basic_ios<char,_STL::char_traits<char> >::`RTTI Base Class Array'
	DD	FLAT:??_R1A@?0A@A@ios_base@_STL@@8
rdata$r	ENDS
;	COMDAT ??_R1A@?0A@A@?$basic_ios@DV?$char_traits@D@_STL@@@_STL@@8
rdata$r	SEGMENT
??_R1A@?0A@A@?$basic_ios@DV?$char_traits@D@_STL@@@_STL@@8 DD FLAT:??_R0?AV?$basic_ios@DV?$char_traits@D@_STL@@@_STL@@@8 ; _STL::basic_ios<char,_STL::char_traits<char> >::`RTTI Base Class Descriptor at (0,-1,0,0)'
	DD	01H
	DD	00H
	DD	0ffffffffH
	DD	00H
	DD	00H
rdata$r	ENDS
;	COMDAT ??_R1A@?0A@A@ios_base@_STL@@8
rdata$r	SEGMENT
??_R1A@?0A@A@ios_base@_STL@@8 DD FLAT:??_R0?AVios_base@_STL@@@8 ; _STL::ios_base::`RTTI Base Class Descriptor at (0,-1,0,0)'
	DD	00H
	DD	00H
	DD	0ffffffffH
	DD	00H
	DD	00H
rdata$r	ENDS
;	COMDAT ??_R0?AVios_base@_STL@@@8
_DATA	SEGMENT
??_R0?AVios_base@_STL@@@8 DD FLAT:??_7type_info@@6B@	; _STL::ios_base `RTTI Type Descriptor'
	DD	00H
	DB	'.?AVios_base@_STL@@', 00H
; Function compile flags: /Ogsy
_DATA	ENDS
;	COMDAT ??1?$basic_ios@DV?$char_traits@D@_STL@@@_STL@@UAE@XZ
_TEXT	SEGMENT
??1?$basic_ios@DV?$char_traits@D@_STL@@@_STL@@UAE@XZ PROC NEAR ; _STL::basic_ios<char,_STL::char_traits<char> >::~basic_ios<char,_STL::char_traits<char> >, COMDAT
; _this$ = ecx

; 58   :   virtual ~basic_ios() {}

  00000	c7 01 00 00 00
	00		 mov	 DWORD PTR [ecx], OFFSET FLAT:??_7?$basic_ios@DV?$char_traits@D@_STL@@@_STL@@6B@
  00006	e9 00 00 00 00	 jmp	 ??1ios_base@_STL@@UAE@XZ ; _STL::ios_base::~ios_base
??1?$basic_ios@DV?$char_traits@D@_STL@@@_STL@@UAE@XZ ENDP ; _STL::basic_ios<char,_STL::char_traits<char> >::~basic_ios<char,_STL::char_traits<char> >
; Function compile flags: /Ogsy
_TEXT	ENDS
;	COMDAT ??_G?$basic_ios@DV?$char_traits@D@_STL@@@_STL@@UAEPAXI@Z
_TEXT	SEGMENT
___flags$ = 8						; size = 4
??_G?$basic_ios@DV?$char_traits@D@_STL@@@_STL@@UAEPAXI@Z PROC NEAR ; _STL::basic_ios<char,_STL::char_traits<char> >::`scalar deleting destructor', COMDAT
; _this$ = ecx
  00000	56		 push	 esi
  00001	8b f1		 mov	 esi, ecx
  00003	e8 00 00 00 00	 call	 ??1?$basic_ios@DV?$char_traits@D@_STL@@@_STL@@UAE@XZ ; _STL::basic_ios<char,_STL::char_traits<char> >::~basic_ios<char,_STL::char_traits<char> >
  00008	f6 44 24 08 01	 test	 BYTE PTR ___flags$[esp], 1
  0000d	74 07		 je	 SHORT $L98548
  0000f	56		 push	 esi
  00010	e8 00 00 00 00	 call	 ??3@YAXPAX@Z		; operator delete
  00015	59		 pop	 ecx
$L98548:
  00016	8b c6		 mov	 eax, esi
  00018	5e		 pop	 esi
  00019	c2 04 00	 ret	 4
??_G?$basic_ios@DV?$char_traits@D@_STL@@@_STL@@UAEPAXI@Z ENDP ; _STL::basic_ios<char,_STL::char_traits<char> >::`scalar deleting destructor'
_TEXT	ENDS
PUBLIC	??_7?$basic_ofstream@DV?$char_traits@D@_STL@@@_STL@@6B@ ; _STL::basic_ofstream<char,_STL::char_traits<char> >::`vftable'
PUBLIC	??_G?$basic_ofstream@DV?$char_traits@D@_STL@@@_STL@@UAEPAXI@Z ; _STL::basic_ofstream<char,_STL::char_traits<char> >::`scalar deleting destructor'
PUBLIC	??1?$basic_filebuf@DV?$char_traits@D@_STL@@@_STL@@UAE@XZ ; _STL::basic_filebuf<char,_STL::char_traits<char> >::~basic_filebuf<char,_STL::char_traits<char> >
PUBLIC	??1?$basic_ostream@DV?$char_traits@D@_STL@@@_STL@@UAE@XZ ; _STL::basic_ostream<char,_STL::char_traits<char> >::~basic_ostream<char,_STL::char_traits<char> >
PUBLIC	??_7?$basic_ostream@DV?$char_traits@D@_STL@@@_STL@@6B@ ; _STL::basic_ostream<char,_STL::char_traits<char> >::`vftable'
PUBLIC	??_G?$basic_ostream@DV?$char_traits@D@_STL@@@_STL@@UAEPAXI@Z ; _STL::basic_ostream<char,_STL::char_traits<char> >::`scalar deleting destructor'
PUBLIC	??_R4?$basic_ofstream@DV?$char_traits@D@_STL@@@_STL@@6B@ ; _STL::basic_ofstream<char,_STL::char_traits<char> >::`RTTI Complete Object Locator'
PUBLIC	??_R0?AV?$basic_ofstream@DV?$char_traits@D@_STL@@@_STL@@@8 ; _STL::basic_ofstream<char,_STL::char_traits<char> > `RTTI Type Descriptor'
PUBLIC	??_R3?$basic_ofstream@DV?$char_traits@D@_STL@@@_STL@@8 ; _STL::basic_ofstream<char,_STL::char_traits<char> >::`RTTI Class Hierarchy Descriptor'
PUBLIC	??_R2?$basic_ofstream@DV?$char_traits@D@_STL@@@_STL@@8 ; _STL::basic_ofstream<char,_STL::char_traits<char> >::`RTTI Base Class Array'
PUBLIC	??_R1A@?0A@A@?$basic_ofstream@DV?$char_traits@D@_STL@@@_STL@@8 ; _STL::basic_ofstream<char,_STL::char_traits<char> >::`RTTI Base Class Descriptor at (0,-1,0,0)'
PUBLIC	??_R1A@A@3BA@?$basic_ios@DV?$char_traits@D@_STL@@@_STL@@8 ; _STL::basic_ios<char,_STL::char_traits<char> >::`RTTI Base Class Descriptor at (0,0,4,16)'
PUBLIC	??_R1A@A@3A@ios_base@_STL@@8			; _STL::ios_base::`RTTI Base Class Descriptor at (0,0,4,0)'
PUBLIC	??_R4?$basic_ostream@DV?$char_traits@D@_STL@@@_STL@@6B@ ; _STL::basic_ostream<char,_STL::char_traits<char> >::`RTTI Complete Object Locator'
PUBLIC	??_R0?AV?$basic_ostream@DV?$char_traits@D@_STL@@@_STL@@@8 ; _STL::basic_ostream<char,_STL::char_traits<char> > `RTTI Type Descriptor'
PUBLIC	??_R3?$basic_ostream@DV?$char_traits@D@_STL@@@_STL@@8 ; _STL::basic_ostream<char,_STL::char_traits<char> >::`RTTI Class Hierarchy Descriptor'
PUBLIC	??_R2?$basic_ostream@DV?$char_traits@D@_STL@@@_STL@@8 ; _STL::basic_ostream<char,_STL::char_traits<char> >::`RTTI Base Class Array'
PUBLIC	??_R1A@?0A@A@?$basic_ostream@DV?$char_traits@D@_STL@@@_STL@@8 ; _STL::basic_ostream<char,_STL::char_traits<char> >::`RTTI Base Class Descriptor at (0,-1,0,0)'
EXTRN	??_E?$basic_ofstream@DV?$char_traits@D@_STL@@@_STL@@UAEPAXI@Z:NEAR ; _STL::basic_ofstream<char,_STL::char_traits<char> >::`vector deleting destructor'
EXTRN	??_E?$basic_ostream@DV?$char_traits@D@_STL@@@_STL@@UAEPAXI@Z:NEAR ; _STL::basic_ostream<char,_STL::char_traits<char> >::`vector deleting destructor'
;	COMDAT xdata$x
; File c:\stlport-4.6.1\stlport\stl\_ostream.c
xdata$x	SEGMENT
$T117454 DD	0ffffffffH
	DD	FLAT:$L117442
$T117452 DD	019930520H
	DD	01H
	DD	FLAT:$T117454
	DD	2 DUP(00H)
	DD	2 DUP(00H)
xdata$x	ENDS
;	COMDAT ??_7?$basic_ofstream@DV?$char_traits@D@_STL@@@_STL@@6B@
CONST	SEGMENT
??_7?$basic_ofstream@DV?$char_traits@D@_STL@@@_STL@@6B@ DD FLAT:??_R4?$basic_ofstream@DV?$char_traits@D@_STL@@@_STL@@6B@ ; _STL::basic_ofstream<char,_STL::char_traits<char> >::`vftable'
	DD	FLAT:??_E?$basic_ofstream@DV?$char_traits@D@_STL@@@_STL@@UAEPAXI@Z
CONST	ENDS
;	COMDAT ??_7?$basic_ostream@DV?$char_traits@D@_STL@@@_STL@@6B@
CONST	SEGMENT
??_7?$basic_ostream@DV?$char_traits@D@_STL@@@_STL@@6B@ DD FLAT:??_R4?$basic_ostream@DV?$char_traits@D@_STL@@@_STL@@6B@ ; _STL::basic_ostream<char,_STL::char_traits<char> >::`vftable'
	DD	FLAT:??_E?$basic_ostream@DV?$char_traits@D@_STL@@@_STL@@UAEPAXI@Z
CONST	ENDS
;	COMDAT ??_R4?$basic_ofstream@DV?$char_traits@D@_STL@@@_STL@@6B@
rdata$r	SEGMENT
??_R4?$basic_ofstream@DV?$char_traits@D@_STL@@@_STL@@6B@ DD 00H ; _STL::basic_ofstream<char,_STL::char_traits<char> >::`RTTI Complete Object Locator'
	DD	0b8H
	DD	00H
	DD	FLAT:??_R0?AV?$basic_ofstream@DV?$char_traits@D@_STL@@@_STL@@@8
	DD	FLAT:??_R3?$basic_ofstream@DV?$char_traits@D@_STL@@@_STL@@8
rdata$r	ENDS
;	COMDAT ??_R0?AV?$basic_ofstream@DV?$char_traits@D@_STL@@@_STL@@@8
_DATA	SEGMENT
??_R0?AV?$basic_ofstream@DV?$char_traits@D@_STL@@@_STL@@@8 DD FLAT:??_7type_info@@6B@ ; _STL::basic_ofstream<char,_STL::char_traits<char> > `RTTI Type Descriptor'
	DD	00H
	DB	'.?AV?$basic_ofstream@DV?$char_traits@D@_STL@@@_STL@@', 00H
_DATA	ENDS
;	COMDAT ??_R3?$basic_ofstream@DV?$char_traits@D@_STL@@@_STL@@8
rdata$r	SEGMENT
??_R3?$basic_ofstream@DV?$char_traits@D@_STL@@@_STL@@8 DD 00H ; _STL::basic_ofstream<char,_STL::char_traits<char> >::`RTTI Class Hierarchy Descriptor'
	DD	00H
	DD	04H
	DD	FLAT:??_R2?$basic_ofstream@DV?$char_traits@D@_STL@@@_STL@@8
rdata$r	ENDS
;	COMDAT ??_R2?$basic_ofstream@DV?$char_traits@D@_STL@@@_STL@@8
rdata$r	SEGMENT
??_R2?$basic_ofstream@DV?$char_traits@D@_STL@@@_STL@@8 DD FLAT:??_R1A@?0A@A@?$basic_ofstream@DV?$char_traits@D@_STL@@@_STL@@8 ; _STL::basic_ofstream<char,_STL::char_traits<char> >::`RTTI Base Class Array'
	DD	FLAT:??_R1A@?0A@A@?$basic_ostream@DV?$char_traits@D@_STL@@@_STL@@8
	DD	FLAT:??_R1A@A@3BA@?$basic_ios@DV?$char_traits@D@_STL@@@_STL@@8
	DD	FLAT:??_R1A@A@3A@ios_base@_STL@@8
rdata$r	ENDS
;	COMDAT ??_R1A@?0A@A@?$basic_ofstream@DV?$char_traits@D@_STL@@@_STL@@8
rdata$r	SEGMENT
??_R1A@?0A@A@?$basic_ofstream@DV?$char_traits@D@_STL@@@_STL@@8 DD FLAT:??_R0?AV?$basic_ofstream@DV?$char_traits@D@_STL@@@_STL@@@8 ; _STL::basic_ofstream<char,_STL::char_traits<char> >::`RTTI Base Class Descriptor at (0,-1,0,0)'
	DD	03H
	DD	00H
	DD	0ffffffffH
	DD	00H
	DD	00H
rdata$r	ENDS
;	COMDAT ??_R1A@?0A@A@?$basic_ostream@DV?$char_traits@D@_STL@@@_STL@@8
rdata$r	SEGMENT
??_R1A@?0A@A@?$basic_ostream@DV?$char_traits@D@_STL@@@_STL@@8 DD FLAT:??_R0?AV?$basic_ostream@DV?$char_traits@D@_STL@@@_STL@@@8 ; _STL::basic_ostream<char,_STL::char_traits<char> >::`RTTI Base Class Descriptor at (0,-1,0,0)'
	DD	02H
	DD	00H
	DD	0ffffffffH
	DD	00H
	DD	00H
rdata$r	ENDS
;	COMDAT ??_R0?AV?$basic_ostream@DV?$char_traits@D@_STL@@@_STL@@@8
_DATA	SEGMENT
??_R0?AV?$basic_ostream@DV?$char_traits@D@_STL@@@_STL@@@8 DD FLAT:??_7type_info@@6B@ ; _STL::basic_ostream<char,_STL::char_traits<char> > `RTTI Type Descriptor'
	DD	00H
	DB	'.?AV?$basic_ostream@DV?$char_traits@D@_STL@@@_STL@@', 00H
_DATA	ENDS
;	COMDAT ??_R1A@A@3BA@?$basic_ios@DV?$char_traits@D@_STL@@@_STL@@8
rdata$r	SEGMENT
??_R1A@A@3BA@?$basic_ios@DV?$char_traits@D@_STL@@@_STL@@8 DD FLAT:??_R0?AV?$basic_ios@DV?$char_traits@D@_STL@@@_STL@@@8 ; _STL::basic_ios<char,_STL::char_traits<char> >::`RTTI Base Class Descriptor at (0,0,4,16)'
	DD	01H
	DD	00H
	DD	00H
	DD	04H
	DD	010H
rdata$r	ENDS
;	COMDAT ??_R1A@A@3A@ios_base@_STL@@8
rdata$r	SEGMENT
??_R1A@A@3A@ios_base@_STL@@8 DD FLAT:??_R0?AVios_base@_STL@@@8 ; _STL::ios_base::`RTTI Base Class Descriptor at (0,0,4,0)'
	DD	00H
	DD	00H
	DD	00H
	DD	04H
	DD	00H
rdata$r	ENDS
;	COMDAT ??_R4?$basic_ostream@DV?$char_traits@D@_STL@@@_STL@@6B@
rdata$r	SEGMENT
??_R4?$basic_ostream@DV?$char_traits@D@_STL@@@_STL@@6B@ DD 00H ; _STL::basic_ostream<char,_STL::char_traits<char> >::`RTTI Complete Object Locator'
	DD	04H
	DD	00H
	DD	FLAT:??_R0?AV?$basic_ostream@DV?$char_traits@D@_STL@@@_STL@@@8
	DD	FLAT:??_R3?$basic_ostream@DV?$char_traits@D@_STL@@@_STL@@8
rdata$r	ENDS
;	COMDAT ??_R3?$basic_ostream@DV?$char_traits@D@_STL@@@_STL@@8
rdata$r	SEGMENT
??_R3?$basic_ostream@DV?$char_traits@D@_STL@@@_STL@@8 DD 00H ; _STL::basic_ostream<char,_STL::char_traits<char> >::`RTTI Class Hierarchy Descriptor'
	DD	00H
	DD	03H
	DD	FLAT:??_R2?$basic_ostream@DV?$char_traits@D@_STL@@@_STL@@8
rdata$r	ENDS
;	COMDAT ??_R2?$basic_ostream@DV?$char_traits@D@_STL@@@_STL@@8
rdata$r	SEGMENT
??_R2?$basic_ostream@DV?$char_traits@D@_STL@@@_STL@@8 DD FLAT:??_R1A@?0A@A@?$basic_ostream@DV?$char_traits@D@_STL@@@_STL@@8 ; _STL::basic_ostream<char,_STL::char_traits<char> >::`RTTI Base Class Array'
	DD	FLAT:??_R1A@A@3BA@?$basic_ios@DV?$char_traits@D@_STL@@@_STL@@8
	DD	FLAT:??_R1A@A@3A@ios_base@_STL@@8
; Function compile flags: /Ogsy
; File c:\stlport-4.6.1\stlport\stl\_fstream.h
rdata$r	ENDS
;	COMDAT ??1?$basic_ofstream@DV?$char_traits@D@_STL@@@_STL@@UAE@XZ
_TEXT	SEGMENT
_this$ = -16						; size = 4
__$EHRec$ = -12						; size = 12
??1?$basic_ofstream@DV?$char_traits@D@_STL@@@_STL@@UAE@XZ PROC NEAR ; _STL::basic_ofstream<char,_STL::char_traits<char> >::~basic_ofstream<char,_STL::char_traits<char> >, COMDAT
; _this$ = ecx

; 616  :   ~basic_ofstream() {}

  00000	b8 00 00 00 00	 mov	 eax, __ehhandler$??1?$basic_ofstream@DV?$char_traits@D@_STL@@@_STL@@UAE@XZ
  00005	e8 00 00 00 00	 call	 __EH_prolog
  0000a	51		 push	 ecx
  0000b	8b 81 48 ff ff
	ff		 mov	 eax, DWORD PTR [ecx-184]
  00011	8b 40 04	 mov	 eax, DWORD PTR [eax+4]
  00014	56		 push	 esi
  00015	89 4d f0	 mov	 DWORD PTR _this$[ebp], ecx
  00018	c7 84 08 48 ff
	ff ff 00 00 00
	00		 mov	 DWORD PTR [eax+ecx-184], OFFSET FLAT:??_7?$basic_ofstream@DV?$char_traits@D@_STL@@@_STL@@6B@
  00023	83 65 fc 00	 and	 DWORD PTR __$EHRec$[ebp+8], 0
  00027	8d b1 4c ff ff
	ff		 lea	 esi, DWORD PTR [ecx-180]
  0002d	8b ce		 mov	 ecx, esi
  0002f	e8 00 00 00 00	 call	 ??1?$basic_filebuf@DV?$char_traits@D@_STL@@@_STL@@UAE@XZ ; _STL::basic_filebuf<char,_STL::char_traits<char> >::~basic_filebuf<char,_STL::char_traits<char> >
  00034	8b 46 fc	 mov	 eax, DWORD PTR [esi-4]
  00037	8b 40 04	 mov	 eax, DWORD PTR [eax+4]
  0003a	8b 4d f4	 mov	 ecx, DWORD PTR __$EHRec$[ebp]
  0003d	c7 44 30 fc 00
	00 00 00	 mov	 DWORD PTR [eax+esi-4], OFFSET FLAT:??_7?$basic_ostream@DV?$char_traits@D@_STL@@@_STL@@6B@
  00045	5e		 pop	 esi
  00046	64 89 0d 00 00
	00 00		 mov	 DWORD PTR fs:__except_list, ecx
  0004d	c9		 leave
  0004e	c3		 ret	 0
_TEXT	ENDS
;	COMDAT text$x
text$x	SEGMENT
$L117442:
  00000	8b 4d f0	 mov	 ecx, DWORD PTR _this$[ebp]
  00003	81 e9 b4 00 00
	00		 sub	 ecx, 180		; 000000b4H
  00009	e9 00 00 00 00	 jmp	 ??1?$basic_ostream@DV?$char_traits@D@_STL@@@_STL@@UAE@XZ ; _STL::basic_ostream<char,_STL::char_traits<char> >::~basic_ostream<char,_STL::char_traits<char> >
__ehhandler$??1?$basic_ofstream@DV?$char_traits@D@_STL@@@_STL@@UAE@XZ:
  0000e	b8 00 00 00 00	 mov	 eax, OFFSET FLAT:$T117452
  00013	e9 00 00 00 00	 jmp	 ___CxxFrameHandler
text$x	ENDS
??1?$basic_ofstream@DV?$char_traits@D@_STL@@@_STL@@UAE@XZ ENDP ; _STL::basic_ofstream<char,_STL::char_traits<char> >::~basic_ofstream<char,_STL::char_traits<char> >
; Function compile flags: /Ogsy
; File c:\stlport-4.6.1\stlport\stl\_ostream.c
;	COMDAT ??1?$basic_ostream@DV?$char_traits@D@_STL@@@_STL@@UAE@XZ
_TEXT	SEGMENT
??1?$basic_ostream@DV?$char_traits@D@_STL@@@_STL@@UAE@XZ PROC NEAR ; _STL::basic_ostream<char,_STL::char_traits<char> >::~basic_ostream<char,_STL::char_traits<char> >, COMDAT
; _this$ = ecx

; 64   : {}

  00000	8b 41 fc	 mov	 eax, DWORD PTR [ecx-4]
  00003	8b 40 04	 mov	 eax, DWORD PTR [eax+4]
  00006	c7 44 08 fc 00
	00 00 00	 mov	 DWORD PTR [eax+ecx-4], OFFSET FLAT:??_7?$basic_ostream@DV?$char_traits@D@_STL@@@_STL@@6B@
  0000e	c3		 ret	 0
??1?$basic_ostream@DV?$char_traits@D@_STL@@@_STL@@UAE@XZ ENDP ; _STL::basic_ostream<char,_STL::char_traits<char> >::~basic_ostream<char,_STL::char_traits<char> >
_TEXT	ENDS
PUBLIC	??_D?$basic_ostream@DV?$char_traits@D@_STL@@@_STL@@QAEXXZ ; _STL::basic_ostream<char,_STL::char_traits<char> >::`vbase destructor'
; Function compile flags: /Ogsy
;	COMDAT ??_G?$basic_ostream@DV?$char_traits@D@_STL@@@_STL@@UAEPAXI@Z
_TEXT	SEGMENT
___flags$ = 8						; size = 4
??_G?$basic_ostream@DV?$char_traits@D@_STL@@@_STL@@UAEPAXI@Z PROC NEAR ; _STL::basic_ostream<char,_STL::char_traits<char> >::`scalar deleting destructor', COMDAT
; _this$ = ecx
  00000	56		 push	 esi
  00001	8d 71 fc	 lea	 esi, DWORD PTR [ecx-4]
  00004	8b ce		 mov	 ecx, esi
  00006	e8 00 00 00 00	 call	 ??_D?$basic_ostream@DV?$char_traits@D@_STL@@@_STL@@QAEXXZ
  0000b	f6 44 24 08 01	 test	 BYTE PTR ___flags$[esp], 1
  00010	74 07		 je	 SHORT $L99014
  00012	56		 push	 esi
  00013	e8 00 00 00 00	 call	 ??3@YAXPAX@Z		; operator delete
  00018	59		 pop	 ecx
$L99014:
  00019	8b c6		 mov	 eax, esi
  0001b	5e		 pop	 esi
  0001c	c2 04 00	 ret	 4
??_G?$basic_ostream@DV?$char_traits@D@_STL@@@_STL@@UAEPAXI@Z ENDP ; _STL::basic_ostream<char,_STL::char_traits<char> >::`scalar deleting destructor'
; Function compile flags: /Ogsy
_TEXT	ENDS
;	COMDAT ??_D?$basic_ostream@DV?$char_traits@D@_STL@@@_STL@@QAEXXZ
_TEXT	SEGMENT
??_D?$basic_ostream@DV?$char_traits@D@_STL@@@_STL@@QAEXXZ PROC NEAR ; _STL::basic_ostream<char,_STL::char_traits<char> >::`vbase destructor', COMDAT
; _this$ = ecx
  00000	8b 01		 mov	 eax, DWORD PTR [ecx]
  00002	8b 40 04	 mov	 eax, DWORD PTR [eax+4]
  00005	83 c1 04	 add	 ecx, 4
  00008	c7 44 08 fc 00
	00 00 00	 mov	 DWORD PTR [eax+ecx-4], OFFSET FLAT:??_7?$basic_ostream@DV?$char_traits@D@_STL@@@_STL@@6B@
  00010	e9 00 00 00 00	 jmp	 ??1?$basic_ios@DV?$char_traits@D@_STL@@@_STL@@UAE@XZ ; _STL::basic_ios<char,_STL::char_traits<char> >::~basic_ios<char,_STL::char_traits<char> >
??_D?$basic_ostream@DV?$char_traits@D@_STL@@@_STL@@QAEXXZ ENDP ; _STL::basic_ostream<char,_STL::char_traits<char> >::`vbase destructor'
_TEXT	ENDS
PUBLIC	?showmanyc@?$basic_filebuf@DV?$char_traits@D@_STL@@@_STL@@MAEHXZ ; _STL::basic_filebuf<char,_STL::char_traits<char> >::showmanyc
PUBLIC	?underflow@?$basic_filebuf@DV?$char_traits@D@_STL@@@_STL@@MAEHXZ ; _STL::basic_filebuf<char,_STL::char_traits<char> >::underflow
PUBLIC	?pbackfail@?$basic_filebuf@DV?$char_traits@D@_STL@@@_STL@@MAEHH@Z ; _STL::basic_filebuf<char,_STL::char_traits<char> >::pbackfail
PUBLIC	?overflow@?$basic_filebuf@DV?$char_traits@D@_STL@@@_STL@@MAEHH@Z ; _STL::basic_filebuf<char,_STL::char_traits<char> >::overflow
PUBLIC	?setbuf@?$basic_filebuf@DV?$char_traits@D@_STL@@@_STL@@MAEPAV?$basic_streambuf@DV?$char_traits@D@_STL@@@2@PADH@Z ; _STL::basic_filebuf<char,_STL::char_traits<char> >::setbuf
PUBLIC	?seekoff@?$basic_filebuf@DV?$char_traits@D@_STL@@@_STL@@MAE?AV?$fpos@H@2@JHH@Z ; _STL::basic_filebuf<char,_STL::char_traits<char> >::seekoff
PUBLIC	?seekpos@?$basic_filebuf@DV?$char_traits@D@_STL@@@_STL@@MAE?AV?$fpos@H@2@V32@H@Z ; _STL::basic_filebuf<char,_STL::char_traits<char> >::seekpos
PUBLIC	?sync@?$basic_filebuf@DV?$char_traits@D@_STL@@@_STL@@MAEHXZ ; _STL::basic_filebuf<char,_STL::char_traits<char> >::sync
PUBLIC	?imbue@?$basic_filebuf@DV?$char_traits@D@_STL@@@_STL@@MAEXABVlocale@2@@Z ; _STL::basic_filebuf<char,_STL::char_traits<char> >::imbue
PUBLIC	?_M_deallocate_buffers@?$basic_filebuf@DV?$char_traits@D@_STL@@@_STL@@AAEXXZ ; _STL::basic_filebuf<char,_STL::char_traits<char> >::_M_deallocate_buffers
PUBLIC	??_7?$basic_filebuf@DV?$char_traits@D@_STL@@@_STL@@6B@ ; _STL::basic_filebuf<char,_STL::char_traits<char> >::`vftable'
PUBLIC	??_G?$basic_filebuf@DV?$char_traits@D@_STL@@@_STL@@UAEPAXI@Z ; _STL::basic_filebuf<char,_STL::char_traits<char> >::`scalar deleting destructor'
PUBLIC	??_R0?AV?$basic_streambuf@DV?$char_traits@D@_STL@@@_STL@@@8 ; _STL::basic_streambuf<char,_STL::char_traits<char> > `RTTI Type Descriptor'
PUBLIC	??_R1A@?0A@A@?$basic_streambuf@DV?$char_traits@D@_STL@@@_STL@@8 ; _STL::basic_streambuf<char,_STL::char_traits<char> >::`RTTI Base Class Descriptor at (0,-1,0,0)'
PUBLIC	??_R4?$basic_filebuf@DV?$char_traits@D@_STL@@@_STL@@6B@ ; _STL::basic_filebuf<char,_STL::char_traits<char> >::`RTTI Complete Object Locator'
PUBLIC	??_R0?AV?$basic_filebuf@DV?$char_traits@D@_STL@@@_STL@@@8 ; _STL::basic_filebuf<char,_STL::char_traits<char> > `RTTI Type Descriptor'
PUBLIC	??_R3?$basic_filebuf@DV?$char_traits@D@_STL@@@_STL@@8 ; _STL::basic_filebuf<char,_STL::char_traits<char> >::`RTTI Class Hierarchy Descriptor'
PUBLIC	??_R2?$basic_filebuf@DV?$char_traits@D@_STL@@@_STL@@8 ; _STL::basic_filebuf<char,_STL::char_traits<char> >::`RTTI Base Class Array'
PUBLIC	??_R1A@?0A@A@?$basic_filebuf@DV?$char_traits@D@_STL@@@_STL@@8 ; _STL::basic_filebuf<char,_STL::char_traits<char> >::`RTTI Base Class Descriptor at (0,-1,0,0)'
EXTRN	?xsgetn@?$basic_streambuf@DV?$char_traits@D@_STL@@@_STL@@MAEHPADH@Z:NEAR ; _STL::basic_streambuf<char,_STL::char_traits<char> >::xsgetn
EXTRN	?uflow@?$basic_streambuf@DV?$char_traits@D@_STL@@@_STL@@MAEHXZ:NEAR ; _STL::basic_streambuf<char,_STL::char_traits<char> >::uflow
EXTRN	?xsputn@?$basic_streambuf@DV?$char_traits@D@_STL@@@_STL@@MAEHPBDH@Z:NEAR ; _STL::basic_streambuf<char,_STL::char_traits<char> >::xsputn
EXTRN	?_M_xsputnc@?$basic_streambuf@DV?$char_traits@D@_STL@@@_STL@@MAEHDH@Z:NEAR ; _STL::basic_streambuf<char,_STL::char_traits<char> >::_M_xsputnc
EXTRN	??_E?$basic_filebuf@DV?$char_traits@D@_STL@@@_STL@@UAEPAXI@Z:NEAR ; _STL::basic_filebuf<char,_STL::char_traits<char> >::`vector deleting destructor'
EXTRN	??1?$basic_streambuf@DV?$char_traits@D@_STL@@@_STL@@UAE@XZ:NEAR ; _STL::basic_streambuf<char,_STL::char_traits<char> >::~basic_streambuf<char,_STL::char_traits<char> >
;	COMDAT xdata$x
; File c:\stlport-4.6.1\stlport\stl\_fstream.c
xdata$x	SEGMENT
$T117482 DD	0ffffffffH
	DD	FLAT:$L117477
$T117480 DD	019930520H
	DD	01H
	DD	FLAT:$T117482
	DD	2 DUP(00H)
	DD	2 DUP(00H)
xdata$x	ENDS
;	COMDAT ??_7?$basic_filebuf@DV?$char_traits@D@_STL@@@_STL@@6B@
CONST	SEGMENT
??_7?$basic_filebuf@DV?$char_traits@D@_STL@@@_STL@@6B@ DD FLAT:??_R4?$basic_filebuf@DV?$char_traits@D@_STL@@@_STL@@6B@ ; _STL::basic_filebuf<char,_STL::char_traits<char> >::`vftable'
	DD	FLAT:??_E?$basic_filebuf@DV?$char_traits@D@_STL@@@_STL@@UAEPAXI@Z
	DD	FLAT:?setbuf@?$basic_filebuf@DV?$char_traits@D@_STL@@@_STL@@MAEPAV?$basic_streambuf@DV?$char_traits@D@_STL@@@2@PADH@Z
	DD	FLAT:?seekoff@?$basic_filebuf@DV?$char_traits@D@_STL@@@_STL@@MAE?AV?$fpos@H@2@JHH@Z
	DD	FLAT:?seekpos@?$basic_filebuf@DV?$char_traits@D@_STL@@@_STL@@MAE?AV?$fpos@H@2@V32@H@Z
	DD	FLAT:?sync@?$basic_filebuf@DV?$char_traits@D@_STL@@@_STL@@MAEHXZ
	DD	FLAT:?showmanyc@?$basic_filebuf@DV?$char_traits@D@_STL@@@_STL@@MAEHXZ
	DD	FLAT:?xsgetn@?$basic_streambuf@DV?$char_traits@D@_STL@@@_STL@@MAEHPADH@Z
	DD	FLAT:?underflow@?$basic_filebuf@DV?$char_traits@D@_STL@@@_STL@@MAEHXZ
	DD	FLAT:?uflow@?$basic_streambuf@DV?$char_traits@D@_STL@@@_STL@@MAEHXZ
	DD	FLAT:?pbackfail@?$basic_filebuf@DV?$char_traits@D@_STL@@@_STL@@MAEHH@Z
	DD	FLAT:?xsputn@?$basic_streambuf@DV?$char_traits@D@_STL@@@_STL@@MAEHPBDH@Z
	DD	FLAT:?_M_xsputnc@?$basic_streambuf@DV?$char_traits@D@_STL@@@_STL@@MAEHDH@Z
	DD	FLAT:?overflow@?$basic_filebuf@DV?$char_traits@D@_STL@@@_STL@@MAEHH@Z
	DD	FLAT:?imbue@?$basic_filebuf@DV?$char_traits@D@_STL@@@_STL@@MAEXABVlocale@2@@Z
CONST	ENDS
;	COMDAT ??_R4?$basic_filebuf@DV?$char_traits@D@_STL@@@_STL@@6B@
rdata$r	SEGMENT
??_R4?$basic_filebuf@DV?$char_traits@D@_STL@@@_STL@@6B@ DD 00H ; _STL::basic_filebuf<char,_STL::char_traits<char> >::`RTTI Complete Object Locator'
	DD	00H
	DD	00H
	DD	FLAT:??_R0?AV?$basic_filebuf@DV?$char_traits@D@_STL@@@_STL@@@8
	DD	FLAT:??_R3?$basic_filebuf@DV?$char_traits@D@_STL@@@_STL@@8
rdata$r	ENDS
;	COMDAT ??_R0?AV?$basic_filebuf@DV?$char_traits@D@_STL@@@_STL@@@8
_DATA	SEGMENT
??_R0?AV?$basic_filebuf@DV?$char_traits@D@_STL@@@_STL@@@8 DD FLAT:??_7type_info@@6B@ ; _STL::basic_filebuf<char,_STL::char_traits<char> > `RTTI Type Descriptor'
	DD	00H
	DB	'.?AV?$basic_filebuf@DV?$char_traits@D@_STL@@@_STL@@', 00H
_DATA	ENDS
;	COMDAT ??_R3?$basic_filebuf@DV?$char_traits@D@_STL@@@_STL@@8
rdata$r	SEGMENT
??_R3?$basic_filebuf@DV?$char_traits@D@_STL@@@_STL@@8 DD 00H ; _STL::basic_filebuf<char,_STL::char_traits<char> >::`RTTI Class Hierarchy Descriptor'
	DD	00H
	DD	02H
	DD	FLAT:??_R2?$basic_filebuf@DV?$char_traits@D@_STL@@@_STL@@8
rdata$r	ENDS
;	COMDAT ??_R2?$basic_filebuf@DV?$char_traits@D@_STL@@@_STL@@8
rdata$r	SEGMENT
??_R2?$basic_filebuf@DV?$char_traits@D@_STL@@@_STL@@8 DD FLAT:??_R1A@?0A@A@?$basic_filebuf@DV?$char_traits@D@_STL@@@_STL@@8 ; _STL::basic_filebuf<char,_STL::char_traits<char> >::`RTTI Base Class Array'
	DD	FLAT:??_R1A@?0A@A@?$basic_streambuf@DV?$char_traits@D@_STL@@@_STL@@8
rdata$r	ENDS
;	COMDAT ??_R1A@?0A@A@?$basic_filebuf@DV?$char_traits@D@_STL@@@_STL@@8
rdata$r	SEGMENT
??_R1A@?0A@A@?$basic_filebuf@DV?$char_traits@D@_STL@@@_STL@@8 DD FLAT:??_R0?AV?$basic_filebuf@DV?$char_traits@D@_STL@@@_STL@@@8 ; _STL::basic_filebuf<char,_STL::char_traits<char> >::`RTTI Base Class Descriptor at (0,-1,0,0)'
	DD	01H
	DD	00H
	DD	0ffffffffH
	DD	00H
	DD	00H
rdata$r	ENDS
;	COMDAT ??_R1A@?0A@A@?$basic_streambuf@DV?$char_traits@D@_STL@@@_STL@@8
rdata$r	SEGMENT
??_R1A@?0A@A@?$basic_streambuf@DV?$char_traits@D@_STL@@@_STL@@8 DD FLAT:??_R0?AV?$basic_streambuf@DV?$char_traits@D@_STL@@@_STL@@@8 ; _STL::basic_streambuf<char,_STL::char_traits<char> >::`RTTI Base Class Descriptor at (0,-1,0,0)'
	DD	00H
	DD	00H
	DD	0ffffffffH
	DD	00H
	DD	00H
rdata$r	ENDS
;	COMDAT ??_R0?AV?$basic_streambuf@DV?$char_traits@D@_STL@@@_STL@@@8
_DATA	SEGMENT
??_R0?AV?$basic_streambuf@DV?$char_traits@D@_STL@@@_STL@@@8 DD FLAT:??_7type_info@@6B@ ; _STL::basic_streambuf<char,_STL::char_traits<char> > `RTTI Type Descriptor'
	DD	00H
	DB	'.?AV?$basic_streambuf@DV?$char_traits@D@_STL@@@_STL@@', 00H
; Function compile flags: /Ogsy
_DATA	ENDS
;	COMDAT ??1?$basic_filebuf@DV?$char_traits@D@_STL@@@_STL@@UAE@XZ
_TEXT	SEGMENT
_this$ = -16						; size = 4
__$EHRec$ = -12						; size = 12
??1?$basic_filebuf@DV?$char_traits@D@_STL@@@_STL@@UAE@XZ PROC NEAR ; _STL::basic_filebuf<char,_STL::char_traits<char> >::~basic_filebuf<char,_STL::char_traits<char> >, COMDAT
; _this$ = ecx

; 65   : basic_filebuf<_CharT, _Traits>::~basic_filebuf() {

  00000	b8 00 00 00 00	 mov	 eax, __ehhandler$??1?$basic_filebuf@DV?$char_traits@D@_STL@@@_STL@@UAE@XZ
  00005	e8 00 00 00 00	 call	 __EH_prolog
  0000a	51		 push	 ecx
  0000b	56		 push	 esi
  0000c	8b f1		 mov	 esi, ecx
  0000e	89 75 f0	 mov	 DWORD PTR _this$[ebp], esi
  00011	c7 06 00 00 00
	00		 mov	 DWORD PTR [esi], OFFSET FLAT:??_7?$basic_filebuf@DV?$char_traits@D@_STL@@@_STL@@6B@
  00017	83 65 fc 00	 and	 DWORD PTR __$EHRec$[ebp+8], 0

; 66   :   this->close();

  0001b	e8 00 00 00 00	 call	 ?close@?$basic_filebuf@DV?$char_traits@D@_STL@@@_STL@@QAEPAV12@XZ ; _STL::basic_filebuf<char,_STL::char_traits<char> >::close

; 67   :   _M_deallocate_buffers();

  00020	8b ce		 mov	 ecx, esi
  00022	e8 00 00 00 00	 call	 ?_M_deallocate_buffers@?$basic_filebuf@DV?$char_traits@D@_STL@@@_STL@@AAEXXZ ; _STL::basic_filebuf<char,_STL::char_traits<char> >::_M_deallocate_buffers

; 68   : }

  00027	83 4d fc ff	 or	 DWORD PTR __$EHRec$[ebp+8], -1
  0002b	8b ce		 mov	 ecx, esi
  0002d	e8 00 00 00 00	 call	 ??1?$basic_streambuf@DV?$char_traits@D@_STL@@@_STL@@UAE@XZ ; _STL::basic_streambuf<char,_STL::char_traits<char> >::~basic_streambuf<char,_STL::char_traits<char> >
  00032	8b 4d f4	 mov	 ecx, DWORD PTR __$EHRec$[ebp]
  00035	5e		 pop	 esi
  00036	64 89 0d 00 00
	00 00		 mov	 DWORD PTR fs:__except_list, ecx
  0003d	c9		 leave
  0003e	c3		 ret	 0
_TEXT	ENDS
;	COMDAT text$x
text$x	SEGMENT
$L117477:
  00000	8b 4d f0	 mov	 ecx, DWORD PTR _this$[ebp]
  00003	e9 00 00 00 00	 jmp	 ??1?$basic_streambuf@DV?$char_traits@D@_STL@@@_STL@@UAE@XZ ; _STL::basic_streambuf<char,_STL::char_traits<char> >::~basic_streambuf<char,_STL::char_traits<char> >
__ehhandler$??1?$basic_filebuf@DV?$char_traits@D@_STL@@@_STL@@UAE@XZ:
  00008	b8 00 00 00 00	 mov	 eax, OFFSET FLAT:$T117480
  0000d	e9 00 00 00 00	 jmp	 ___CxxFrameHandler
text$x	ENDS
??1?$basic_filebuf@DV?$char_traits@D@_STL@@@_STL@@UAE@XZ ENDP ; _STL::basic_filebuf<char,_STL::char_traits<char> >::~basic_filebuf<char,_STL::char_traits<char> >
EXTRN	_free:NEAR
; Function compile flags: /Ogsy
;	COMDAT ?_M_deallocate_buffers@?$basic_filebuf@DV?$char_traits@D@_STL@@@_STL@@AAEXXZ
_TEXT	SEGMENT
?_M_deallocate_buffers@?$basic_filebuf@DV?$char_traits@D@_STL@@@_STL@@AAEXXZ PROC NEAR ; _STL::basic_filebuf<char,_STL::char_traits<char> >::_M_deallocate_buffers, COMDAT
; _this$ = ecx

; 684  : {

  00000	53		 push	 ebx
  00001	56		 push	 esi
  00002	8b f1		 mov	 esi, ecx

; 685  :   if (_M_int_buf_dynamic)

  00004	33 db		 xor	 ebx, ebx
  00006	38 5e 66	 cmp	 BYTE PTR [esi+102], bl
  00009	74 09		 je	 SHORT $L107377

; 686  :     free(_M_int_buf);

  0000b	ff 76 6c	 push	 DWORD PTR [esi+108]
  0000e	e8 00 00 00 00	 call	 _free
  00013	59		 pop	 ecx
$L107377:

; 687  :   free(_M_ext_buf);

  00014	ff 76 74	 push	 DWORD PTR [esi+116]
  00017	e8 00 00 00 00	 call	 _free
  0001c	59		 pop	 ecx

; 688  :   _M_int_buf     = 0;

  0001d	89 5e 6c	 mov	 DWORD PTR [esi+108], ebx

; 689  :   _M_int_buf_EOS = 0;

  00020	89 5e 70	 mov	 DWORD PTR [esi+112], ebx

; 690  :   _M_ext_buf     = 0;

  00023	89 5e 74	 mov	 DWORD PTR [esi+116], ebx

; 691  :   _M_ext_buf_EOS = 0;

  00026	89 5e 78	 mov	 DWORD PTR [esi+120], ebx
  00029	5e		 pop	 esi
  0002a	5b		 pop	 ebx

; 692  : }

  0002b	c3		 ret	 0
?_M_deallocate_buffers@?$basic_filebuf@DV?$char_traits@D@_STL@@@_STL@@AAEXXZ ENDP ; _STL::basic_filebuf<char,_STL::char_traits<char> >::_M_deallocate_buffers
_TEXT	ENDS
EXTRN	?_M_doit@?$_Underflow@DV?$char_traits@D@_STL@@@_STL@@SAHPAV?$basic_filebuf@DV?$char_traits@D@_STL@@@2@@Z:NEAR ; _STL::_Underflow<char,_STL::char_traits<char> >::_M_doit
; Function compile flags: /Ogsy
;	COMDAT ?underflow@?$basic_filebuf@DV?$char_traits@D@_STL@@@_STL@@MAEHXZ
_TEXT	SEGMENT
?underflow@?$basic_filebuf@DV?$char_traits@D@_STL@@@_STL@@MAEHXZ PROC NEAR ; _STL::basic_filebuf<char,_STL::char_traits<char> >::underflow, COMDAT
; _this$ = ecx

; 75   :   return _Underflow<_CharT, _Traits>::_M_doit(this);

  00000	51		 push	 ecx
  00001	e8 00 00 00 00	 call	 ?_M_doit@?$_Underflow@DV?$char_traits@D@_STL@@@_STL@@SAHPAV?$basic_filebuf@DV?$char_traits@D@_STL@@@2@@Z ; _STL::_Underflow<char,_STL::char_traits<char> >::_M_doit
  00006	59		 pop	 ecx

; 76   : }

  00007	c3		 ret	 0
?underflow@?$basic_filebuf@DV?$char_traits@D@_STL@@@_STL@@MAEHXZ ENDP ; _STL::basic_filebuf<char,_STL::char_traits<char> >::underflow
; Function compile flags: /Ogsy
_TEXT	ENDS
;	COMDAT ?pbackfail@?$basic_filebuf@DV?$char_traits@D@_STL@@@_STL@@MAEHH@Z
_TEXT	SEGMENT
___c$ = 8						; size = 4
?pbackfail@?$basic_filebuf@DV?$char_traits@D@_STL@@@_STL@@MAEHH@Z PROC NEAR ; _STL::basic_filebuf<char,_STL::char_traits<char> >::pbackfail, COMDAT
; _this$ = ecx

; 162  :   const int_type __eof = traits_type::eof();
; 163  : 
; 164  :   // If we aren't already in input mode, pushback is impossible.
; 165  :   if (!_M_in_input_mode)
; 166  :     return __eof;

  00000	83 c8 ff	 or	 eax, -1
  00003	80 79 67 00	 cmp	 BYTE PTR [ecx+103], 0
  00007	0f 84 b0 00 00
	00		 je	 $L98761

; 167  : 
; 168  :   // We can use the ordinary get buffer if there's enough space, and
; 169  :   // if it's a buffer that we're allowed to write to.
; 170  :   if (this->gptr() != this->eback() &&
; 171  :       (traits_type::eq_int_type(__c, __eof) ||
; 172  :        traits_type::eq(traits_type::to_char_type(__c), this->gptr()[-1]) ||
; 173  :        !_M_mmap_base)) {

  0000d	8b 51 04	 mov	 edx, DWORD PTR [ecx+4]
  00010	53		 push	 ebx
  00011	8b 5c 24 08	 mov	 ebx, DWORD PTR ___c$[esp]
  00015	56		 push	 esi
  00016	8b 32		 mov	 esi, DWORD PTR [edx]
  00018	57		 push	 edi
  00019	8b 7a 08	 mov	 edi, DWORD PTR [edx+8]
  0001c	3b f7		 cmp	 esi, edi
  0001e	74 2e		 je	 SHORT $L98765
  00020	3b d8		 cmp	 ebx, eax
  00022	74 0e		 je	 SHORT $L98766
  00024	3a 5e ff	 cmp	 bl, BYTE PTR [esi-1]
  00027	74 09		 je	 SHORT $L98766
  00029	83 b9 8c 00 00
	00 00		 cmp	 DWORD PTR [ecx+140], 0
  00030	75 1c		 jne	 SHORT $L98765
$L98766:

; 174  :     this->gbump(-1);

  00032	ff 0a		 dec	 DWORD PTR [edx]
  00034	ff 42 04	 inc	 DWORD PTR [edx+4]

; 175  :     if (traits_type::eq_int_type(__c, __eof) ||
; 176  :         traits_type::eq(traits_type::to_char_type(__c), *this->gptr()))

  00037	3b d8		 cmp	 ebx, eax
  00039	74 09		 je	 SHORT $L98769
  0003b	8b 41 04	 mov	 eax, DWORD PTR [ecx+4]
  0003e	8b 00		 mov	 eax, DWORD PTR [eax]
  00040	3a 18		 cmp	 bl, BYTE PTR [eax]
  00042	75 6d		 jne	 SHORT $L98777
$L98769:

; 177  :       return traits_type::to_int_type(*this->gptr());

  00044	8b 41 04	 mov	 eax, DWORD PTR [ecx+4]
  00047	8b 00		 mov	 eax, DWORD PTR [eax]
  00049	0f b6 00	 movzx	 eax, BYTE PTR [eax]
  0004c	eb 6c		 jmp	 SHORT $L117670
$L98765:

; 178  :   }
; 179  :   else if (!traits_type::eq_int_type(__c, __eof)) {

  0004e	3b d8		 cmp	 ebx, eax
  00050	74 68		 je	 SHORT $L117670

; 180  :     // Are we in the putback buffer already?
; 181  :     _CharT* __pback_end = _M_pback_buf + __STATIC_CAST(int,_S_pback_buf_size);
; 182  :     if (_M_in_putback_mode) {

  00052	80 79 6a 00	 cmp	 BYTE PTR [ecx+106], 0
  00056	8d b1 b4 00 00
	00		 lea	 esi, DWORD PTR [ecx+180]
  0005c	74 29		 je	 SHORT $L98774

; 183  :       // Do we have more room in the putback buffer?
; 184  :       if (this->eback() != _M_pback_buf) 

  0005e	8d 99 ac 00 00
	00		 lea	 ebx, DWORD PTR [ecx+172]
  00064	3b fb		 cmp	 edi, ebx
  00066	74 52		 je	 SHORT $L117670

; 185  :         this->setg(this->egptr() - 1, this->egptr() - 1, __pback_end);

  00068	8b 42 04	 mov	 eax, DWORD PTR [edx+4]
  0006b	8b 3a		 mov	 edi, DWORD PTR [edx]
  0006d	8b 1a		 mov	 ebx, DWORD PTR [edx]
  0006f	8d 7c 38 ff	 lea	 edi, DWORD PTR [eax+edi-1]
  00073	8d 44 18 ff	 lea	 eax, DWORD PTR [eax+ebx-1]

; 186  :       else
; 187  :         return __eof;           // No more room in the buffer, so fail.
; 188  :     }
; 189  :     else {                      // We're not yet in the putback buffer.

  00077	8b 5c 24 10	 mov	 ebx, DWORD PTR ___c$[esp+8]
  0007b	2b f7		 sub	 esi, edi
  0007d	89 42 08	 mov	 DWORD PTR [edx+8], eax
  00080	89 3a		 mov	 DWORD PTR [edx], edi
  00082	89 72 04	 mov	 DWORD PTR [edx+4], esi
  00085	eb 2a		 jmp	 SHORT $L98777
$L98774:

; 190  :       _M_saved_eback = this->eback();

  00087	89 b9 94 00 00
	00		 mov	 DWORD PTR [ecx+148], edi

; 191  :       _M_saved_gptr  = this->gptr();

  0008d	8b 02		 mov	 eax, DWORD PTR [edx]
  0008f	89 81 98 00 00
	00		 mov	 DWORD PTR [ecx+152], eax

; 192  :       _M_saved_egptr = this->egptr();

  00095	8b 42 04	 mov	 eax, DWORD PTR [edx+4]
  00098	03 02		 add	 eax, DWORD PTR [edx]

; 193  :       this->setg(__pback_end - 1, __pback_end - 1, __pback_end);

  0009a	8d 7e ff	 lea	 edi, DWORD PTR [esi-1]
  0009d	89 81 9c 00 00
	00		 mov	 DWORD PTR [ecx+156], eax
  000a3	2b f7		 sub	 esi, edi
  000a5	89 7a 08	 mov	 DWORD PTR [edx+8], edi
  000a8	89 3a		 mov	 DWORD PTR [edx], edi
  000aa	89 72 04	 mov	 DWORD PTR [edx+4], esi

; 194  :       _M_in_putback_mode = true;

  000ad	c6 41 6a 01	 mov	 BYTE PTR [ecx+106], 1
$L98777:

; 195  :     }
; 196  :   }
; 197  :   else
; 198  :     return __eof;
; 199  : 
; 200  :   // We have made a putback position available.  Assign to it, and return.
; 201  :   *this->gptr() = traits_type::to_char_type(__c);

  000b1	8b 41 04	 mov	 eax, DWORD PTR [ecx+4]
  000b4	8b 00		 mov	 eax, DWORD PTR [eax]
  000b6	88 18		 mov	 BYTE PTR [eax], bl

; 202  :   return __c;

  000b8	8b c3		 mov	 eax, ebx
$L117670:
  000ba	5f		 pop	 edi
  000bb	5e		 pop	 esi
  000bc	5b		 pop	 ebx
$L98761:

; 203  : }

  000bd	c2 04 00	 ret	 4
?pbackfail@?$basic_filebuf@DV?$char_traits@D@_STL@@@_STL@@MAEHH@Z ENDP ; _STL::basic_filebuf<char,_STL::char_traits<char> >::pbackfail
; Function compile flags: /Ogsy
_TEXT	ENDS
;	COMDAT ?sync@?$basic_filebuf@DV?$char_traits@D@_STL@@@_STL@@MAEHXZ
_TEXT	SEGMENT
?sync@?$basic_filebuf@DV?$char_traits@D@_STL@@@_STL@@MAEHXZ PROC NEAR ; _STL::basic_filebuf<char,_STL::char_traits<char> >::sync, COMDAT
; _this$ = ecx

; 414  :   if (_M_in_output_mode)

  00000	80 79 68 00	 cmp	 BYTE PTR [ecx+104], 0
  00004	74 13		 je	 SHORT $L98951

; 415  :     return traits_type::eq_int_type(this->overflow(traits_type::eof()),
; 416  :                                     traits_type::eof())
; 417  :       ? -1
; 418  :       : 0;

  00006	8b 01		 mov	 eax, DWORD PTR [ecx]
  00008	6a ff		 push	 -1
  0000a	ff 50 30	 call	 DWORD PTR [eax+48]
  0000d	33 c9		 xor	 ecx, ecx
  0000f	83 f8 ff	 cmp	 eax, -1
  00012	0f 95 c1	 setne	 cl
  00015	49		 dec	 ecx
  00016	8b c1		 mov	 eax, ecx

; 421  : }

  00018	c3		 ret	 0
$L98951:

; 419  :   else
; 420  :     return 0;

  00019	33 c0		 xor	 eax, eax

; 421  : }

  0001b	c3		 ret	 0
?sync@?$basic_filebuf@DV?$char_traits@D@_STL@@@_STL@@MAEHXZ ENDP ; _STL::basic_filebuf<char,_STL::char_traits<char> >::sync
_TEXT	ENDS
EXTRN	?_M_seek@_Filebuf_base@_STL@@QAEJJH@Z:NEAR	; _STL::_Filebuf_base::_M_seek
EXTRN	?_M_file_size@_Filebuf_base@_STL@@QAEJXZ:NEAR	; _STL::_Filebuf_base::_M_file_size
; Function compile flags: /Ogsy
;	COMDAT ?showmanyc@?$basic_filebuf@DV?$char_traits@D@_STL@@@_STL@@MAEHXZ
_TEXT	SEGMENT
?showmanyc@?$basic_filebuf@DV?$char_traits@D@_STL@@@_STL@@MAEHXZ PROC NEAR ; _STL::basic_filebuf<char,_STL::char_traits<char> >::showmanyc, COMDAT
; _this$ = ecx

; 132  : {

  00000	53		 push	 ebx

; 133  :   // Is there any possibility that reads can succeed?
; 134  :   if (!this->is_open() || _M_in_output_mode || _M_in_error_mode)

  00001	33 db		 xor	 ebx, ebx
  00003	38 59 60	 cmp	 BYTE PTR [ecx+96], bl
  00006	74 4a		 je	 SHORT $L98743
  00008	38 59 68	 cmp	 BYTE PTR [ecx+104], bl
  0000b	75 45		 jne	 SHORT $L98743
  0000d	38 59 69	 cmp	 BYTE PTR [ecx+105], bl
  00010	75 40		 jne	 SHORT $L98743

; 136  : 
; 137  :   else if (_M_in_putback_mode)

  00012	38 59 6a	 cmp	 BYTE PTR [ecx+106], bl
  00015	74 08		 je	 SHORT $L98745

; 138  :     return this->egptr() - this->gptr();

  00017	8b 49 04	 mov	 ecx, DWORD PTR [ecx+4]
  0001a	8b 41 04	 mov	 eax, DWORD PTR [ecx+4]
  0001d	5b		 pop	 ebx

; 148  : }

  0001e	c3		 ret	 0
$L98745:

; 139  : 
; 140  :   else if (_M_constant_width) {

  0001f	38 59 64	 cmp	 BYTE PTR [ecx+100], bl
  00022	74 2a		 je	 SHORT $L98747
  00024	56		 push	 esi
  00025	57		 push	 edi

; 141  :     streamoff __pos  = _M_base._M_seek(0, ios_base::cur);

  00026	8d 71 54	 lea	 esi, DWORD PTR [ecx+84]
  00029	6a 02		 push	 2
  0002b	53		 push	 ebx
  0002c	8b ce		 mov	 ecx, esi
  0002e	e8 00 00 00 00	 call	 ?_M_seek@_Filebuf_base@_STL@@QAEJJH@Z ; _STL::_Filebuf_base::_M_seek

; 142  :     streamoff __size = _M_base._M_file_size();

  00033	8b ce		 mov	 ecx, esi
  00035	8b f8		 mov	 edi, eax
  00037	e8 00 00 00 00	 call	 ?_M_file_size@_Filebuf_base@_STL@@QAEJXZ ; _STL::_Filebuf_base::_M_file_size

; 143  :     return __pos >= 0 && __size > __pos ? __size - __pos : 0;

  0003c	3b fb		 cmp	 edi, ebx
  0003e	7c 08		 jl	 SHORT $L117690
  00040	3b c7		 cmp	 eax, edi
  00042	7e 04		 jle	 SHORT $L117690
  00044	2b c7		 sub	 eax, edi
  00046	eb 02		 jmp	 SHORT $L117691
$L117690:
  00048	33 c0		 xor	 eax, eax
$L117691:
  0004a	5f		 pop	 edi
  0004b	5e		 pop	 esi
  0004c	5b		 pop	 ebx

; 148  : }

  0004d	c3		 ret	 0
$L98747:

; 144  :   }
; 145  : 
; 146  :   else 
; 147  :     return 0;

  0004e	33 c0		 xor	 eax, eax
  00050	5b		 pop	 ebx

; 148  : }

  00051	c3		 ret	 0
$L98743:

; 135  :     return -1;

  00052	83 c8 ff	 or	 eax, -1
  00055	5b		 pop	 ebx

; 148  : }

  00056	c3		 ret	 0
?showmanyc@?$basic_filebuf@DV?$char_traits@D@_STL@@@_STL@@MAEHXZ ENDP ; _STL::basic_filebuf<char,_STL::char_traits<char> >::showmanyc
_TEXT	ENDS
PUBLIC	?_M_allocate_buffers@?$basic_filebuf@DV?$char_traits@D@_STL@@@_STL@@AAE_NPADH@Z ; _STL::basic_filebuf<char,_STL::char_traits<char> >::_M_allocate_buffers
; Function compile flags: /Ogsy
;	COMDAT ?setbuf@?$basic_filebuf@DV?$char_traits@D@_STL@@@_STL@@MAEPAV?$basic_streambuf@DV?$char_traits@D@_STL@@@2@PADH@Z
_TEXT	SEGMENT
___buf$ = 8						; size = 4
___n$ = 12						; size = 4
?setbuf@?$basic_filebuf@DV?$char_traits@D@_STL@@@_STL@@MAEPAV?$basic_streambuf@DV?$char_traits@D@_STL@@@2@PADH@Z PROC NEAR ; _STL::basic_filebuf<char,_STL::char_traits<char> >::setbuf, COMDAT
; _this$ = ecx

; 273  : {

  00000	55		 push	 ebp
  00001	8b ec		 mov	 ebp, esp
  00003	56		 push	 esi
  00004	8b f1		 mov	 esi, ecx

; 274  :   if (!_M_in_input_mode &&! _M_in_output_mode && !_M_in_error_mode &&
; 275  :       _M_int_buf == 0) {

  00006	33 c0		 xor	 eax, eax
  00008	38 46 67	 cmp	 BYTE PTR [esi+103], al
  0000b	75 30		 jne	 SHORT $L98816
  0000d	38 46 68	 cmp	 BYTE PTR [esi+104], al
  00010	75 2b		 jne	 SHORT $L98816
  00012	38 46 69	 cmp	 BYTE PTR [esi+105], al
  00015	75 26		 jne	 SHORT $L98816
  00017	39 46 6c	 cmp	 DWORD PTR [esi+108], eax
  0001a	75 21		 jne	 SHORT $L98816

; 276  :     if (__buf == 0 && __n == 0)

  0001c	39 45 08	 cmp	 DWORD PTR ___buf$[ebp], eax
  0001f	75 0a		 jne	 SHORT $L117722
  00021	39 45 0c	 cmp	 DWORD PTR ___n$[ebp], eax
  00024	75 17		 jne	 SHORT $L98816

; 277  :       _M_allocate_buffers(0, 1);

  00026	6a 01		 push	 1
  00028	50		 push	 eax

; 278  :     else if (__buf != 0 && __n > 0)

  00029	eb 0b		 jmp	 SHORT $L117723
$L117722:
  0002b	39 45 0c	 cmp	 DWORD PTR ___n$[ebp], eax
  0002e	7e 0d		 jle	 SHORT $L98816

; 279  :       _M_allocate_buffers(__buf, __n);

  00030	ff 75 0c	 push	 DWORD PTR ___n$[ebp]
  00033	ff 75 08	 push	 DWORD PTR ___buf$[ebp]
$L117723:
  00036	8b ce		 mov	 ecx, esi
  00038	e8 00 00 00 00	 call	 ?_M_allocate_buffers@?$basic_filebuf@DV?$char_traits@D@_STL@@@_STL@@AAE_NPADH@Z ; _STL::basic_filebuf<char,_STL::char_traits<char> >::_M_allocate_buffers
$L98816:

; 280  :   }
; 281  :   return this;

  0003d	8b c6		 mov	 eax, esi
  0003f	5e		 pop	 esi

; 282  : }

  00040	5d		 pop	 ebp
  00041	c2 08 00	 ret	 8
?setbuf@?$basic_filebuf@DV?$char_traits@D@_STL@@@_STL@@MAEPAV?$basic_streambuf@DV?$char_traits@D@_STL@@@2@PADH@Z ENDP ; _STL::basic_filebuf<char,_STL::char_traits<char> >::setbuf
_TEXT	ENDS
EXTRN	_malloc:NEAR
; Function compile flags: /Ogsy
;	COMDAT ?_M_allocate_buffers@?$basic_filebuf@DV?$char_traits@D@_STL@@@_STL@@AAE_NPADH@Z
_TEXT	SEGMENT
$T117729 = -8						; size = 4
$T117727 = -8						; size = 4
$T117728 = -4						; size = 4
$T117726 = 8						; size = 4
___buf$ = 8						; size = 4
___n$ = 12						; size = 4
?_M_allocate_buffers@?$basic_filebuf@DV?$char_traits@D@_STL@@@_STL@@AAE_NPADH@Z PROC NEAR ; _STL::basic_filebuf<char,_STL::char_traits<char> >::_M_allocate_buffers, COMDAT
; _this$ = ecx

; 644  : {

  00000	55		 push	 ebp
  00001	8b ec		 mov	 ebp, esp
  00003	51		 push	 ecx
  00004	51		 push	 ecx

; 645  : 
; 646  :   if (__buf == 0) {

  00005	8b 45 08	 mov	 eax, DWORD PTR ___buf$[ebp]
  00008	85 c0		 test	 eax, eax
  0000a	56		 push	 esi
  0000b	8b f1		 mov	 esi, ecx
  0000d	75 1a		 jne	 SHORT $L107355

; 647  :     _M_int_buf = __STATIC_CAST(_CharT*,malloc(__n * sizeof(_CharT)));

  0000f	ff 75 0c	 push	 DWORD PTR ___n$[ebp]
  00012	e8 00 00 00 00	 call	 _malloc

; 648  :     if (! _M_int_buf)

  00017	85 c0		 test	 eax, eax
  00019	59		 pop	 ecx
  0001a	89 46 6c	 mov	 DWORD PTR [esi+108], eax
  0001d	75 04		 jne	 SHORT $L107358

; 649  :       return false;

  0001f	32 c0		 xor	 al, al
  00021	eb 7a		 jmp	 SHORT $L107354
$L107358:

; 650  :     _M_int_buf_dynamic = true;

  00023	c6 46 66 01	 mov	 BYTE PTR [esi+102], 1

; 651  :   }
; 652  :   else {

  00027	eb 07		 jmp	 SHORT $L107359
$L107355:

; 653  :     _M_int_buf = __buf;

  00029	89 46 6c	 mov	 DWORD PTR [esi+108], eax

; 654  :     _M_int_buf_dynamic = false;

  0002c	c6 46 66 00	 mov	 BYTE PTR [esi+102], 0
$L107359:
  00030	57		 push	 edi

; 655  :   }
; 656  :   
; 657  :   size_t __ebufsiz = (max)(__n * (max)(_M_codecvt->encoding(), 1),
; 658  :                       streamsize(_M_codecvt->max_length()));

  00031	8d be a0 00 00
	00		 lea	 edi, DWORD PTR [esi+160]
  00037	8b 0f		 mov	 ecx, DWORD PTR [edi]
  00039	8b 01		 mov	 eax, DWORD PTR [ecx]
  0003b	ff 50 1c	 call	 DWORD PTR [eax+28]
  0003e	8b 0f		 mov	 ecx, DWORD PTR [edi]
  00040	89 45 08	 mov	 DWORD PTR $T117726[ebp], eax
  00043	8b 01		 mov	 eax, DWORD PTR [ecx]
  00045	c7 45 fc 01 00
	00 00		 mov	 DWORD PTR $T117728[ebp], 1
  0004c	ff 50 10	 call	 DWORD PTR [eax+16]
  0004f	89 45 f8	 mov	 DWORD PTR $T117729[ebp], eax
  00052	83 f8 01	 cmp	 eax, 1
  00055	8d 45 fc	 lea	 eax, DWORD PTR $T117728[ebp]
  00058	7c 03		 jl	 SHORT $L117746
  0005a	8d 45 f8	 lea	 eax, DWORD PTR $T117729[ebp]
$L117746:
  0005d	8b 00		 mov	 eax, DWORD PTR [eax]
  0005f	0f af 45 0c	 imul	 eax, DWORD PTR ___n$[ebp]
  00063	3b 45 08	 cmp	 eax, DWORD PTR $T117726[ebp]
  00066	89 45 f8	 mov	 DWORD PTR $T117727[ebp], eax
  00069	8d 45 08	 lea	 eax, DWORD PTR $T117726[ebp]
  0006c	7c 03		 jl	 SHORT $L117755
  0006e	8d 45 f8	 lea	 eax, DWORD PTR $T117727[ebp]
$L117755:
  00071	8b 38		 mov	 edi, DWORD PTR [eax]

; 659  : 
; 660  :   _M_ext_buf = __STATIC_CAST(char*,malloc(__ebufsiz));

  00073	57		 push	 edi
  00074	e8 00 00 00 00	 call	 _malloc

; 661  :   if (!_M_ext_buf) {

  00079	85 c0		 test	 eax, eax
  0007b	59		 pop	 ecx
  0007c	89 46 74	 mov	 DWORD PTR [esi+116], eax
  0007f	75 0b		 jne	 SHORT $L107371

; 662  :     _M_deallocate_buffers();

  00081	8b ce		 mov	 ecx, esi
  00083	e8 00 00 00 00	 call	 ?_M_deallocate_buffers@?$basic_filebuf@DV?$char_traits@D@_STL@@@_STL@@AAEXXZ ; _STL::basic_filebuf<char,_STL::char_traits<char> >::_M_deallocate_buffers

; 663  :     return false;

  00088	32 c0		 xor	 al, al
  0008a	eb 10		 jmp	 SHORT $L117756
$L107371:

; 664  :   }
; 665  : 
; 666  :   _M_int_buf_EOS = _M_int_buf + __n;

  0008c	8b 4e 6c	 mov	 ecx, DWORD PTR [esi+108]
  0008f	03 4d 0c	 add	 ecx, DWORD PTR ___n$[ebp]

; 667  :   _M_ext_buf_EOS = _M_ext_buf + __ebufsiz;

  00092	03 c7		 add	 eax, edi
  00094	89 46 78	 mov	 DWORD PTR [esi+120], eax
  00097	89 4e 70	 mov	 DWORD PTR [esi+112], ecx

; 668  :   return true;

  0009a	b0 01		 mov	 al, 1
$L117756:
  0009c	5f		 pop	 edi
$L107354:
  0009d	5e		 pop	 esi

; 669  : }

  0009e	c9		 leave
  0009f	c2 08 00	 ret	 8
?_M_allocate_buffers@?$basic_filebuf@DV?$char_traits@D@_STL@@@_STL@@AAE_NPADH@Z ENDP ; _STL::basic_filebuf<char,_STL::char_traits<char> >::_M_allocate_buffers
_TEXT	ENDS
PUBLIC	?_M_setup_codecvt@?$basic_filebuf@DV?$char_traits@D@_STL@@@_STL@@AAEXABVlocale@2@@Z ; _STL::basic_filebuf<char,_STL::char_traits<char> >::_M_setup_codecvt
; Function compile flags: /Ogsy
;	COMDAT ?imbue@?$basic_filebuf@DV?$char_traits@D@_STL@@@_STL@@MAEXABVlocale@2@@Z
_TEXT	SEGMENT
___loc$ = 8						; size = 4
?imbue@?$basic_filebuf@DV?$char_traits@D@_STL@@@_STL@@MAEXABVlocale@2@@Z PROC NEAR ; _STL::basic_filebuf<char,_STL::char_traits<char> >::imbue, COMDAT
; _this$ = ecx

; 429  :   if (!_M_in_input_mode &&! _M_in_output_mode && !_M_in_error_mode) {

  00000	32 c0		 xor	 al, al
  00002	38 41 67	 cmp	 BYTE PTR [ecx+103], al
  00005	75 0f		 jne	 SHORT $L98961
  00007	38 41 68	 cmp	 BYTE PTR [ecx+104], al
  0000a	75 0a		 jne	 SHORT $L98961
  0000c	38 41 69	 cmp	 BYTE PTR [ecx+105], al
  0000f	75 05		 jne	 SHORT $L98961

; 430  :     this->_M_setup_codecvt(__loc);

  00011	e9 00 00 00 00	 jmp	 ?_M_setup_codecvt@?$basic_filebuf@DV?$char_traits@D@_STL@@@_STL@@AAEXABVlocale@2@@Z ; _STL::basic_filebuf<char,_STL::char_traits<char> >::_M_setup_codecvt
$L98961:

; 431  :   }
; 432  : }

  00016	c2 04 00	 ret	 4
?imbue@?$basic_filebuf@DV?$char_traits@D@_STL@@@_STL@@MAEXABVlocale@2@@Z ENDP ; _STL::basic_filebuf<char,_STL::char_traits<char> >::imbue
_TEXT	ENDS
EXTRN	?_M_use_facet@locale@_STL@@QBEPAVfacet@12@ABVid@12@@Z:NEAR ; _STL::locale::_M_use_facet
EXTRN	?id@?$codecvt@DDH@_STL@@2V0locale@2@A:DWORD	; _STL::codecvt<char,char,int>::id
; Function compile flags: /Ogsy
;	COMDAT ?_M_setup_codecvt@?$basic_filebuf@DV?$char_traits@D@_STL@@@_STL@@AAEXABVlocale@2@@Z
_TEXT	SEGMENT
$T117788 = -4						; size = 4
___encoding$ = 8					; size = 4
___loc$ = 8						; size = 4
?_M_setup_codecvt@?$basic_filebuf@DV?$char_traits@D@_STL@@@_STL@@AAEXABVlocale@2@@Z PROC NEAR ; _STL::basic_filebuf<char,_STL::char_traits<char> >::_M_setup_codecvt, COMDAT
; _this$ = ecx

; 730  : {

  00000	55		 push	 ebp
  00001	8b ec		 mov	 ebp, esp
  00003	51		 push	 ecx
  00004	56		 push	 esi
  00005	8b f1		 mov	 esi, ecx

; 731  :   _M_codecvt = &use_facet<_Codecvt>(__loc) ;

  00007	8b 4d 08	 mov	 ecx, DWORD PTR ___loc$[ebp]
  0000a	68 00 00 00 00	 push	 OFFSET FLAT:?id@?$codecvt@DDH@_STL@@2V0locale@2@A ; _STL::codecvt<char,char,int>::id
  0000f	e8 00 00 00 00	 call	 ?_M_use_facet@locale@_STL@@QBEPAVfacet@12@ABVid@12@@Z ; _STL::locale::_M_use_facet
  00014	89 86 a0 00 00
	00		 mov	 DWORD PTR [esi+160], eax

; 732  :   int __encoding    = _M_codecvt->encoding();

  0001a	8b 10		 mov	 edx, DWORD PTR [eax]
  0001c	8b c8		 mov	 ecx, eax
  0001e	ff 52 10	 call	 DWORD PTR [edx+16]
  00021	89 45 08	 mov	 DWORD PTR ___encoding$[ebp], eax

; 733  : 
; 734  :   _M_width          = (max)(__encoding, 1);

  00024	33 c0		 xor	 eax, eax
  00026	40		 inc	 eax
  00027	39 45 08	 cmp	 DWORD PTR ___encoding$[ebp], eax
  0002a	89 45 fc	 mov	 DWORD PTR $T117788[ebp], eax
  0002d	8d 45 fc	 lea	 eax, DWORD PTR $T117788[ebp]
  00030	7c 03		 jl	 SHORT $L117803
  00032	8d 45 08	 lea	 eax, DWORD PTR ___encoding$[ebp]
$L117803:
  00035	8b 00		 mov	 eax, DWORD PTR [eax]

; 735  :   _M_max_width      = _M_codecvt->max_length();

  00037	8b 8e a0 00 00
	00		 mov	 ecx, DWORD PTR [esi+160]
  0003d	89 86 a4 00 00
	00		 mov	 DWORD PTR [esi+164], eax
  00043	8b 01		 mov	 eax, DWORD PTR [ecx]
  00045	ff 50 1c	 call	 DWORD PTR [eax+28]

; 736  :   _M_constant_width = __encoding > 0;

  00048	83 7d 08 00	 cmp	 DWORD PTR ___encoding$[ebp], 0

; 737  :   _M_always_noconv  = _M_codecvt->always_noconv();

  0004c	8b 8e a0 00 00
	00		 mov	 ecx, DWORD PTR [esi+160]
  00052	89 86 a8 00 00
	00		 mov	 DWORD PTR [esi+168], eax
  00058	0f 9f c0	 setg	 al
  0005b	88 46 64	 mov	 BYTE PTR [esi+100], al
  0005e	8b 01		 mov	 eax, DWORD PTR [ecx]
  00060	ff 50 14	 call	 DWORD PTR [eax+20]
  00063	88 46 65	 mov	 BYTE PTR [esi+101], al
  00066	5e		 pop	 esi

; 738  : }

  00067	c9		 leave
  00068	c2 04 00	 ret	 4
?_M_setup_codecvt@?$basic_filebuf@DV?$char_traits@D@_STL@@@_STL@@AAEXABVlocale@2@@Z ENDP ; _STL::basic_filebuf<char,_STL::char_traits<char> >::_M_setup_codecvt
_TEXT	ENDS
PUBLIC	?_M_switch_to_output_mode@?$basic_filebuf@DV?$char_traits@D@_STL@@@_STL@@AAE_NXZ ; _STL::basic_filebuf<char,_STL::char_traits<char> >::_M_switch_to_output_mode
PUBLIC	?_M_output_error@?$basic_filebuf@DV?$char_traits@D@_STL@@@_STL@@AAEHXZ ; _STL::basic_filebuf<char,_STL::char_traits<char> >::_M_output_error
; Function compile flags: /Ogsy
;	COMDAT ?overflow@?$basic_filebuf@DV?$char_traits@D@_STL@@@_STL@@MAEHH@Z
_TEXT	SEGMENT
___enext$98795 = -12					; size = 4
___iend$ = -8						; size = 4
___inext$98794 = -4					; size = 4
___c$ = 8						; size = 4
?overflow@?$basic_filebuf@DV?$char_traits@D@_STL@@@_STL@@MAEHH@Z PROC NEAR ; _STL::basic_filebuf<char,_STL::char_traits<char> >::overflow, COMDAT
; _this$ = ecx

; 213  : {

  00000	55		 push	 ebp
  00001	8b ec		 mov	 ebp, esp
  00003	83 ec 0c	 sub	 esp, 12			; 0000000cH
  00006	56		 push	 esi
  00007	8b f1		 mov	 esi, ecx

; 214  :   // Switch to output mode, if necessary.
; 215  :   if (!_M_in_output_mode)

  00009	80 7e 68 00	 cmp	 BYTE PTR [esi+104], 0
  0000d	75 11		 jne	 SHORT $L98786

; 216  :     if (!_M_switch_to_output_mode())

  0000f	e8 00 00 00 00	 call	 ?_M_switch_to_output_mode@?$basic_filebuf@DV?$char_traits@D@_STL@@@_STL@@AAE_NXZ ; _STL::basic_filebuf<char,_STL::char_traits<char> >::_M_switch_to_output_mode
  00014	84 c0		 test	 al, al
  00016	75 08		 jne	 SHORT $L98786

; 217  :       return traits_type::eof();

  00018	83 c8 ff	 or	 eax, -1
  0001b	e9 b1 00 00 00	 jmp	 $L98784
$L98786:

; 218  : 
; 219  :   _CharT* __ibegin = this->_M_int_buf;
; 220  :   _CharT* __iend   = this->pptr();
; 221  :   this->setp(_M_int_buf, _M_int_buf_EOS - 1);

  00020	8b 46 70	 mov	 eax, DWORD PTR [esi+112]
  00023	8b 4e 08	 mov	 ecx, DWORD PTR [esi+8]
  00026	8b 11		 mov	 edx, DWORD PTR [ecx]
  00028	48		 dec	 eax
  00029	57		 push	 edi
  0002a	8b 7e 6c	 mov	 edi, DWORD PTR [esi+108]
  0002d	2b c7		 sub	 eax, edi
  0002f	89 41 04	 mov	 DWORD PTR [ecx+4], eax

; 222  : 
; 223  :   // Put __c at the end of the internal buffer.
; 224  :   if (!traits_type::eq_int_type(__c, traits_type::eof()))

  00032	8b 45 08	 mov	 eax, DWORD PTR ___c$[ebp]
  00035	83 f8 ff	 cmp	 eax, -1
  00038	89 55 f8	 mov	 DWORD PTR ___iend$[ebp], edx
  0003b	89 79 08	 mov	 DWORD PTR [ecx+8], edi
  0003e	89 39		 mov	 DWORD PTR [ecx], edi
  00040	74 06		 je	 SHORT $L117982

; 225  :     *__iend++ = __c;

  00042	88 02		 mov	 BYTE PTR [edx], al
  00044	42		 inc	 edx
  00045	89 55 f8	 mov	 DWORD PTR ___iend$[ebp], edx
$L117982:

; 226  : 
; 227  :   // For variable-width encodings, output may take more than one pass.
; 228  :   while (__ibegin != __iend) {

  00048	3b fa		 cmp	 edi, edx
  0004a	53		 push	 ebx
  0004b	74 77		 je	 SHORT $L98793
$L98792:

; 229  :     const _CharT* __inext = __ibegin;
; 230  :     char* __enext         = _M_ext_buf;

  0004d	8b 46 74	 mov	 eax, DWORD PTR [esi+116]

; 231  :     typename _Codecvt::result __status
; 232  :       = _M_codecvt->out(_M_state, __ibegin, __iend, __inext,
; 233  :                                   _M_ext_buf, _M_ext_buf_EOS, __enext);

  00050	8b 8e a0 00 00
	00		 mov	 ecx, DWORD PTR [esi+160]
  00056	8d 5d f4	 lea	 ebx, DWORD PTR ___enext$98795[ebp]
  00059	53		 push	 ebx
  0005a	ff 76 78	 push	 DWORD PTR [esi+120]
  0005d	8b 5d f8	 mov	 ebx, DWORD PTR ___iend$[ebp]
  00060	50		 push	 eax
  00061	89 45 f4	 mov	 DWORD PTR ___enext$98795[ebp], eax
  00064	8d 45 fc	 lea	 eax, DWORD PTR ___inext$98794[ebp]
  00067	50		 push	 eax
  00068	53		 push	 ebx
  00069	57		 push	 edi
  0006a	8d 86 84 00 00
	00		 lea	 eax, DWORD PTR [esi+132]
  00070	89 7d fc	 mov	 DWORD PTR ___inext$98794[ebp], edi
  00073	8b 11		 mov	 edx, DWORD PTR [ecx]
  00075	50		 push	 eax
  00076	ff 52 04	 call	 DWORD PTR [edx+4]

; 234  :     if (__status == _Codecvt::noconv)

  00079	83 f8 03	 cmp	 eax, 3
  0007c	74 58		 je	 SHORT $L117983

; 238  : 
; 239  :     // For a constant-width encoding we know that the external buffer
; 240  :     // is large enough, so failure to consume the entire internal buffer
; 241  :     // or to produce the correct number of external characters, is an error.
; 242  :     // For a variable-width encoding, however, we require only that we 
; 243  :     // consume at least one internal character
; 244  :     else if (__status != _Codecvt::error && 
; 245  :              ((__inext == __iend && (__enext - _M_ext_buf == 
; 246  :                                      _M_width * (__iend - __ibegin))) ||
; 247  :               (!_M_constant_width && __inext != __ibegin))) {

  0007e	83 f8 02	 cmp	 eax, 2
  00081	74 63		 je	 SHORT $L117816
  00083	39 5d fc	 cmp	 DWORD PTR ___inext$98794[ebp], ebx
  00086	8b 45 f4	 mov	 eax, DWORD PTR ___enext$98795[ebp]
  00089	75 14		 jne	 SHORT $L98801
  0008b	8b cb		 mov	 ecx, ebx
  0008d	2b cf		 sub	 ecx, edi
  0008f	0f af 8e a4 00
	00 00		 imul	 ecx, DWORD PTR [esi+164]
  00096	8b d0		 mov	 edx, eax
  00098	2b 56 74	 sub	 edx, DWORD PTR [esi+116]
  0009b	3b d1		 cmp	 edx, ecx
  0009d	74 0b		 je	 SHORT $L98800
$L98801:
  0009f	80 7e 64 00	 cmp	 BYTE PTR [esi+100], 0
  000a3	75 41		 jne	 SHORT $L117816
  000a5	39 7d fc	 cmp	 DWORD PTR ___inext$98794[ebp], edi
  000a8	74 3c		 je	 SHORT $L117816
$L98800:

; 248  :         // We successfully converted part or all of the internal buffer.
; 249  :       ptrdiff_t __n = __enext - _M_ext_buf;

  000aa	8b 4e 74	 mov	 ecx, DWORD PTR [esi+116]
  000ad	2b c1		 sub	 eax, ecx

; 250  :       if (_M_write(_M_ext_buf, __n))

  000af	50		 push	 eax
  000b0	51		 push	 ecx
  000b1	8d 4e 54	 lea	 ecx, DWORD PTR [esi+84]
  000b4	e8 00 00 00 00	 call	 ?_M_write@_Filebuf_base@_STL@@QAE_NPADH@Z ; _STL::_Filebuf_base::_M_write
  000b9	84 c0		 test	 al, al
  000bb	74 29		 je	 SHORT $L117816

; 251  :         __ibegin += __inext - __ibegin;

  000bd	8b 7d fc	 mov	 edi, DWORD PTR ___inext$98794[ebp]
  000c0	3b fb		 cmp	 edi, ebx
  000c2	75 89		 jne	 SHORT $L98792
$L98793:

; 252  :       else
; 253  :         return _M_output_error();
; 254  :     }
; 255  :     else
; 256  :       return _M_output_error();
; 257  :   }
; 258  : 
; 259  :   return traits_type::not_eof(__c);

  000c4	8b 45 08	 mov	 eax, DWORD PTR ___c$[ebp]
  000c7	40		 inc	 eax
  000c8	f7 d8		 neg	 eax
  000ca	1b c0		 sbb	 eax, eax
  000cc	23 45 08	 and	 eax, DWORD PTR ___c$[ebp]
$L117986:
  000cf	5b		 pop	 ebx
  000d0	5f		 pop	 edi
$L98784:
  000d1	5e		 pop	 esi

; 260  : }

  000d2	c9		 leave
  000d3	c2 04 00	 ret	 4
$L117983:

; 235  :       return _Noconv_output<_Traits>::_M_doit(this, __ibegin, __iend)
; 236  :         ? traits_type::not_eof(__c)
; 237  :         : _M_output_error();

  000d6	2b df		 sub	 ebx, edi
  000d8	53		 push	 ebx
  000d9	57		 push	 edi
  000da	8d 4e 54	 lea	 ecx, DWORD PTR [esi+84]
  000dd	e8 00 00 00 00	 call	 ?_M_write@_Filebuf_base@_STL@@QAE_NPADH@Z ; _STL::_Filebuf_base::_M_write
  000e2	84 c0		 test	 al, al
  000e4	75 de		 jne	 SHORT $L98793
$L117816:
  000e6	8b ce		 mov	 ecx, esi
  000e8	e8 00 00 00 00	 call	 ?_M_output_error@?$basic_filebuf@DV?$char_traits@D@_STL@@@_STL@@AAEHXZ ; _STL::basic_filebuf<char,_STL::char_traits<char> >::_M_output_error
  000ed	eb e0		 jmp	 SHORT $L117986
?overflow@?$basic_filebuf@DV?$char_traits@D@_STL@@@_STL@@MAEHH@Z ENDP ; _STL::basic_filebuf<char,_STL::char_traits<char> >::overflow
; Function compile flags: /Ogsy
_TEXT	ENDS
;	COMDAT ?_M_output_error@?$basic_filebuf@DV?$char_traits@D@_STL@@@_STL@@AAEHXZ
_TEXT	SEGMENT
?_M_output_error@?$basic_filebuf@DV?$char_traits@D@_STL@@@_STL@@AAEHXZ PROC NEAR ; _STL::basic_filebuf<char,_STL::char_traits<char> >::_M_output_error, COMDAT
; _this$ = ecx

; 591  :   _M_in_output_mode = false;

  00000	33 c0		 xor	 eax, eax
  00002	88 41 68	 mov	 BYTE PTR [ecx+104], al

; 592  :   _M_in_input_mode = false;

  00005	88 41 67	 mov	 BYTE PTR [ecx+103], al

; 593  :   _M_in_error_mode = true;

  00008	c6 41 69 01	 mov	 BYTE PTR [ecx+105], 1

; 594  :   this->setp(0, 0);

  0000c	8b 49 08	 mov	 ecx, DWORD PTR [ecx+8]
  0000f	89 41 08	 mov	 DWORD PTR [ecx+8], eax
  00012	89 01		 mov	 DWORD PTR [ecx], eax
  00014	89 41 04	 mov	 DWORD PTR [ecx+4], eax

; 595  :   return traits_type::eof();

  00017	83 c8 ff	 or	 eax, -1

; 596  : }

  0001a	c3		 ret	 0
?_M_output_error@?$basic_filebuf@DV?$char_traits@D@_STL@@@_STL@@AAEHXZ ENDP ; _STL::basic_filebuf<char,_STL::char_traits<char> >::_M_output_error
_TEXT	ENDS
EXTRN	?_M_page_size@_Filebuf_base@_STL@@1IA:DWORD	; _STL::_Filebuf_base::_M_page_size
; Function compile flags: /Ogsy
;	COMDAT ?_M_switch_to_output_mode@?$basic_filebuf@DV?$char_traits@D@_STL@@@_STL@@AAE_NXZ
_TEXT	SEGMENT
?_M_switch_to_output_mode@?$basic_filebuf@DV?$char_traits@D@_STL@@@_STL@@AAE_NXZ PROC NEAR ; _STL::basic_filebuf<char,_STL::char_traits<char> >::_M_switch_to_output_mode, COMDAT
; _this$ = ecx

; 471  : {

  00000	53		 push	 ebx
  00001	56		 push	 esi
  00002	8b f1		 mov	 esi, ecx

; 472  :   if (this->is_open() && (_M_base.__o_mode() & (int)ios_base::out) &&
; 473  :       _M_in_input_mode == 0 && _M_in_error_mode == 0) {

  00004	33 db		 xor	 ebx, ebx
  00006	38 5e 60	 cmp	 BYTE PTR [esi+96], bl
  00009	74 5d		 je	 SHORT $L107339
  0000b	f6 46 5c 10	 test	 BYTE PTR [esi+92], 16	; 00000010H
  0000f	74 57		 je	 SHORT $L107339
  00011	38 5e 67	 cmp	 BYTE PTR [esi+103], bl
  00014	75 52		 jne	 SHORT $L107339
  00016	38 5e 69	 cmp	 BYTE PTR [esi+105], bl
  00019	75 4d		 jne	 SHORT $L107339

; 474  : 
; 475  :     if (!_M_int_buf && !_M_allocate_buffers())

  0001b	39 5e 6c	 cmp	 DWORD PTR [esi+108], ebx
  0001e	75 20		 jne	 SHORT $L107340
  00020	8b 0d 00 00 00
	00		 mov	 ecx, DWORD PTR ?_M_page_size@_Filebuf_base@_STL@@1IA ; _STL::_Filebuf_base::_M_page_size
  00026	8d 81 ff 0f 00
	00		 lea	 eax, DWORD PTR [ecx+4095]
  0002c	33 d2		 xor	 edx, edx
  0002e	f7 f1		 div	 ecx
  00030	0f af c1	 imul	 eax, ecx
  00033	50		 push	 eax
  00034	53		 push	 ebx
  00035	8b ce		 mov	 ecx, esi
  00037	e8 00 00 00 00	 call	 ?_M_allocate_buffers@?$basic_filebuf@DV?$char_traits@D@_STL@@@_STL@@AAE_NPADH@Z ; _STL::basic_filebuf<char,_STL::char_traits<char> >::_M_allocate_buffers
  0003c	84 c0		 test	 al, al

; 476  :       return false;

  0003e	74 28		 je	 SHORT $L107339
$L107340:

; 477  : 
; 478  :     // In append mode, every write does an implicit seek to the end
; 479  :     // of the file.  Whenever leaving output mode, the end of file
; 480  :     // get put in the initial shift state.
; 481  :     if (_M_base.__o_mode() & ios_base::app)

  00040	f6 46 5c 01	 test	 BYTE PTR [esi+92], 1
  00044	74 06		 je	 SHORT $L107341

; 482  :       _M_state = _State_type();

  00046	89 9e 84 00 00
	00		 mov	 DWORD PTR [esi+132], ebx
$L107341:

; 483  : 
; 484  :     this->setp(_M_int_buf, _M_int_buf_EOS - 1);

  0004c	8b 46 70	 mov	 eax, DWORD PTR [esi+112]
  0004f	8b 56 6c	 mov	 edx, DWORD PTR [esi+108]
  00052	8b 4e 08	 mov	 ecx, DWORD PTR [esi+8]
  00055	48		 dec	 eax
  00056	2b c2		 sub	 eax, edx
  00058	89 41 04	 mov	 DWORD PTR [ecx+4], eax
  0005b	89 51 08	 mov	 DWORD PTR [ecx+8], edx
  0005e	89 11		 mov	 DWORD PTR [ecx], edx

; 485  :     _M_in_output_mode = true;

  00060	c6 46 68 01	 mov	 BYTE PTR [esi+104], 1

; 486  : 
; 487  :     return true;

  00064	b0 01		 mov	 al, 1
  00066	eb 02		 jmp	 SHORT $L107342
$L107339:

; 488  :   }
; 489  :   else
; 490  :     return false;

  00068	32 c0		 xor	 al, al
$L107342:
  0006a	5e		 pop	 esi
  0006b	5b		 pop	 ebx

; 491  : }

  0006c	c3		 ret	 0
?_M_switch_to_output_mode@?$basic_filebuf@DV?$char_traits@D@_STL@@@_STL@@AAE_NXZ ENDP ; _STL::basic_filebuf<char,_STL::char_traits<char> >::_M_switch_to_output_mode
_TEXT	ENDS
PUBLIC	?_M_seek_return@?$basic_filebuf@DV?$char_traits@D@_STL@@@_STL@@AAE?AV?$fpos@H@2@JH@Z ; _STL::basic_filebuf<char,_STL::char_traits<char> >::_M_seek_return
PUBLIC	?_M_seek_init@?$basic_filebuf@DV?$char_traits@D@_STL@@@_STL@@AAE_N_N@Z ; _STL::basic_filebuf<char,_STL::char_traits<char> >::_M_seek_init
PUBLIC	??1?$_Filebuf_Tmp_Buf@D@_STL@@QAE@XZ		; _STL::_Filebuf_Tmp_Buf<char>::~_Filebuf_Tmp_Buf<char>
;	COMDAT xdata$x
; File c:\stlport-4.6.1\stlport\stl\char_traits.h
xdata$x	SEGMENT
$T118343 DD	0ffffffffH
	DD	FLAT:$L118070
$T118317 DD	019930520H
	DD	01H
	DD	FLAT:$T118343
	DD	2 DUP(00H)
	DD	2 DUP(00H)
; Function compile flags: /Ogsy
; File c:\stlport-4.6.1\stlport\stl\_fstream.c
xdata$x	ENDS
;	COMDAT ?seekoff@?$basic_filebuf@DV?$char_traits@D@_STL@@@_STL@@MAE?AV?$fpos@H@2@JHH@Z
_TEXT	SEGMENT
___dummy$98878 = -28					; size = 4
___tmp_state$98860 = -24				; size = 4
___state$98858 = -20					; size = 4
___inext$98877 = -16					; size = 4
__$EHRec$ = -12						; size = 12
___$ReturnUdt$ = 8					; size = 4
___buf$98875 = 12					; size = 4
___off$ = 12						; size = 4
tv738 = 16						; size = 4
___cur$98916 = 16					; size = 4
___whence$ = 16						; size = 4
___formal$ = 20						; size = 4
?seekoff@?$basic_filebuf@DV?$char_traits@D@_STL@@@_STL@@MAE?AV?$fpos@H@2@JHH@Z PROC NEAR ; _STL::basic_filebuf<char,_STL::char_traits<char> >::seekoff, COMDAT
; _this$ = ecx

; 289  : {

  00000	b8 00 00 00 00	 mov	 eax, __ehhandler$?seekoff@?$basic_filebuf@DV?$char_traits@D@_STL@@@_STL@@MAE?AV?$fpos@H@2@JHH@Z
  00005	e8 00 00 00 00	 call	 __EH_prolog
  0000a	83 ec 10	 sub	 esp, 16			; 00000010H
  0000d	53		 push	 ebx
  0000e	56		 push	 esi
  0000f	8b f1		 mov	 esi, ecx

; 290  :   if (this->is_open() &&
; 291  :       (__off == 0 || (_M_constant_width && this->_M_base._M_in_binary_mode()))) {

  00011	80 7e 60 00	 cmp	 BYTE PTR [esi+96], 0
  00015	57		 push	 edi
  00016	0f 84 64 02 00
	00		 je	 $L118330
  0001c	8b 5d 0c	 mov	 ebx, DWORD PTR ___off$[ebp]
  0001f	85 db		 test	 ebx, ebx
  00021	8b 7d 10	 mov	 edi, DWORD PTR ___whence$[ebp]
  00024	74 55		 je	 SHORT $L118327
  00026	80 7e 64 00	 cmp	 BYTE PTR [esi+100], 0
  0002a	0f 84 50 02 00
	00		 je	 $L118330
  00030	8b 46 5c	 mov	 eax, DWORD PTR [esi+92]
  00033	c1 e8 02	 shr	 eax, 2
  00036	a8 01		 test	 al, 1
  00038	0f 84 42 02 00
	00		 je	 $L118330
$L118067:

; 292  : 
; 293  :     if (!_M_seek_init(__off != 0 || __whence != ios_base::cur))

  0003e	33 c0		 xor	 eax, eax
  00040	b0 01		 mov	 al, 1
$L118068:
  00042	50		 push	 eax
  00043	8b ce		 mov	 ecx, esi
  00045	e8 00 00 00 00	 call	 ?_M_seek_init@?$basic_filebuf@DV?$char_traits@D@_STL@@@_STL@@AAE_N_N@Z ; _STL::basic_filebuf<char,_STL::char_traits<char> >::_M_seek_init
  0004a	84 c0		 test	 al, al

; 294  :       return pos_type(-1);

  0004c	0f 84 2e 02 00
	00		 je	 $L118330

; 295  : 
; 296  :     // Seek to beginning or end, regardless of whether we're in input mode.
; 297  :     if (__whence == ios_base::beg || __whence == ios_base::end)

  00052	83 ff 01	 cmp	 edi, 1
  00055	0f 84 00 02 00
	00		 je	 $L98831
  0005b	83 ff 04	 cmp	 edi, 4
  0005e	0f 84 f7 01 00
	00		 je	 $L98831

; 300  : 
; 301  :     // Seek relative to current position.  Complicated if we're in input mode.
; 302  :     else if (__whence == ios_base::cur) {

  00064	83 ff 02	 cmp	 edi, 2
  00067	0f 85 13 02 00
	00		 jne	 $L118330

; 303  : 
; 304  :       if (!_M_in_input_mode)

  0006d	80 7e 67 00	 cmp	 BYTE PTR [esi+103], 0
  00071	75 11		 jne	 SHORT $L98835

; 305  :         return _M_seek_return(_M_base._M_seek(_M_width * __off, __whence),
; 306  :                               _State_type());

  00073	6a 00		 push	 0
  00075	57		 push	 edi
  00076	e9 e3 01 00 00	 jmp	 $L118341
$L118327:

; 292  : 
; 293  :     if (!_M_seek_init(__off != 0 || __whence != ios_base::cur))

  0007b	83 ff 02	 cmp	 edi, 2
  0007e	75 be		 jne	 SHORT $L118067
  00080	32 c0		 xor	 al, al
  00082	eb be		 jmp	 SHORT $L118068
$L98835:

; 307  :       else if (_M_mmap_base != 0) {

  00084	8b 86 8c 00 00
	00		 mov	 eax, DWORD PTR [esi+140]
  0008a	85 c0		 test	 eax, eax

; 308  :         // __off is relative to gptr().  We need to do a bit of arithmetic
; 309  :         // to get an offset relative to the external file pointer.
; 310  :         streamoff __adjust = _M_mmap_len - (this->gptr() - (_CharT*) _M_mmap_base);

  0008c	8b 4e 04	 mov	 ecx, DWORD PTR [esi+4]
  0008f	74 18		 je	 SHORT $L98838
  00091	8b be 90 00 00
	00		 mov	 edi, DWORD PTR [esi+144]
  00097	2b 39		 sub	 edi, DWORD PTR [ecx]
  00099	03 f8		 add	 edi, eax
  0009b	eb 5a		 jmp	 SHORT $L118342
$L98850:

; 311  : 
; 312  :         // if __off == 0, we do not need to exit input mode and to shift file pointer
; 313  :         if (__off == 0) {
; 314  :           return pos_type(_M_base._M_seek(0, ios_base::cur) - __adjust);
; 315  :         }
; 316  :         else
; 317  :           return _M_seek_return(_M_base._M_seek(__off - __adjust, ios_base::cur), _State_type());

  0009d	6a 00		 push	 0
  0009f	6a 02		 push	 2
  000a1	2b df		 sub	 ebx, edi
  000a3	53		 push	 ebx
  000a4	e9 c2 01 00 00	 jmp	 $L118336
$L98838:

; 318  :       }
; 319  :       else if (_M_constant_width) { // Get or set the position.  
; 320  : 
; 321  :         streamoff __iadj = _M_width * (this->gptr() - this->eback());

  000a9	8b 01		 mov	 eax, DWORD PTR [ecx]
  000ab	2b 41 08	 sub	 eax, DWORD PTR [ecx+8]
  000ae	80 7e 64 00	 cmp	 BYTE PTR [esi+100], 0

; 322  :         
; 323  :         // Compensate for offset relative to gptr versus offset relative
; 324  :         // to external pointer.  For a text-oriented stream, where the 
; 325  :         // compensation is more than just pointer arithmetic, we may get
; 326  :         // but not set the current position.
; 327  :         
; 328  :         if (__iadj <= _M_ext_buf_end - _M_ext_buf) {

  000b2	8b 56 74	 mov	 edx, DWORD PTR [esi+116]
  000b5	74 5d		 je	 SHORT $L98846
  000b7	0f af 86 a4 00
	00 00		 imul	 eax, DWORD PTR [esi+164]
  000be	8b 8e 80 00 00
	00		 mov	 ecx, DWORD PTR [esi+128]
  000c4	8b f9		 mov	 edi, ecx
  000c6	2b fa		 sub	 edi, edx
  000c8	3b c7		 cmp	 eax, edi
  000ca	0f 8f b0 01 00
	00		 jg	 $L118330

; 329  :           
; 330  :           streamoff __eadj =  _M_base._M_get_offset(_M_ext_buf + __iadj, _M_ext_buf_end);

  000d0	03 c2		 add	 eax, edx
  000d2	f6 46 5c 04	 test	 BYTE PTR [esi+92], 4
  000d6	74 06		 je	 SHORT $L118134
  000d8	2b c8		 sub	 ecx, eax
  000da	8b f9		 mov	 edi, ecx
  000dc	eb 19		 jmp	 SHORT $L118342
$L118134:
  000de	33 d2		 xor	 edx, edx
  000e0	3b c1		 cmp	 eax, ecx
  000e2	8b f8		 mov	 edi, eax
  000e4	74 0b		 je	 SHORT $L118141
$L118139:
  000e6	80 3f 0a	 cmp	 BYTE PTR [edi], 10	; 0000000aH
  000e9	75 01		 jne	 SHORT $L118140
  000eb	42		 inc	 edx
$L118140:
  000ec	47		 inc	 edi
  000ed	3b f9		 cmp	 edi, ecx
  000ef	75 f5		 jne	 SHORT $L118139
$L118141:
  000f1	2b d0		 sub	 edx, eax
  000f3	03 d1		 add	 edx, ecx
  000f5	8b fa		 mov	 edi, edx
$L118342:

; 331  : 
; 332  :           if (__off == 0) {

  000f7	85 db		 test	 ebx, ebx

; 333  :             return pos_type(_M_base._M_seek(0, ios_base::cur) - __eadj);

  000f9	8d 4e 54	 lea	 ecx, DWORD PTR [esi+84]
  000fc	75 9f		 jne	 SHORT $L98850
  000fe	6a 02		 push	 2
  00100	53		 push	 ebx
  00101	e8 00 00 00 00	 call	 ?_M_seek@_Filebuf_base@_STL@@QAEJJH@Z ; _STL::_Filebuf_base::_M_seek
  00106	8b c8		 mov	 ecx, eax
  00108	8b 45 08	 mov	 eax, DWORD PTR ___$ReturnUdt$[ebp]
  0010b	2b cf		 sub	 ecx, edi
  0010d	89 08		 mov	 DWORD PTR [eax], ecx
  0010f	e9 72 01 00 00	 jmp	 $L118335
$L98846:

; 334  :           }  else {
; 335  :             return _M_seek_return(_M_base._M_seek(__off - __eadj, ios_base::cur), _State_type());
; 336  :           }
; 337  :         }
; 338  :         else
; 339  :           return pos_type(-1);
; 340  :       }
; 341  :       else {                    // Get the position.  Encoding is var width.
; 342  :         // Get position in internal buffer.
; 343  :         ptrdiff_t __ipos = this->gptr() - this->eback();
; 344  :         
; 345  :         // Get corresponding position in external buffer.
; 346  :         _State_type __state = _M_state;
; 347  :         int __epos = _M_codecvt->length(__state, _M_ext_buf, _M_ext_buf_end,
; 348  :                                         __ipos);

  00114	8b 8e a0 00 00
	00		 mov	 ecx, DWORD PTR [esi+160]
  0011a	8b f8		 mov	 edi, eax
  0011c	8b 86 84 00 00
	00		 mov	 eax, DWORD PTR [esi+132]
  00122	89 45 ec	 mov	 DWORD PTR ___state$98858[ebp], eax
  00125	8b 86 80 00 00
	00		 mov	 eax, DWORD PTR [esi+128]
  0012b	8b 19		 mov	 ebx, DWORD PTR [ecx]
  0012d	57		 push	 edi
  0012e	50		 push	 eax
  0012f	52		 push	 edx
  00130	8d 45 ec	 lea	 eax, DWORD PTR ___state$98858[ebp]
  00133	50		 push	 eax
  00134	ff 53 18	 call	 DWORD PTR [ebx+24]
  00137	8b d8		 mov	 ebx, eax

; 349  : 
; 350  :         // Sanity check (expensive): make sure __epos is the right answer.
; 351  :         _State_type __tmp_state = _M_state;

  00139	8b 86 84 00 00
	00		 mov	 eax, DWORD PTR [esi+132]

; 352  :         _Filebuf_Tmp_Buf<_CharT> __buf(__ipos);

  0013f	57		 push	 edi
  00140	89 45 e8	 mov	 DWORD PTR ___tmp_state$98860[ebp], eax
  00143	e8 00 00 00 00	 call	 ??_U@YAPAXI@Z		; operator new[]
  00148	8b d0		 mov	 edx, eax
  0014a	59		 pop	 ecx
  0014b	89 55 0c	 mov	 DWORD PTR ___buf$98875[ebp], edx

; 353  :         _CharT* __ibegin = __buf._M_ptr;
; 354  :         _CharT* __inext  = __ibegin;
; 355  : 
; 356  :         const char* __dummy;
; 357  :         typename _Codecvt::result __status
; 358  :           = _M_codecvt->in(__tmp_state,
; 359  :                            _M_ext_buf, _M_ext_buf + __epos, __dummy,
; 360  :                            __ibegin, __ibegin + __ipos, __inext);

  0014e	8b 46 74	 mov	 eax, DWORD PTR [esi+116]
  00151	8b 8e a0 00 00
	00		 mov	 ecx, DWORD PTR [esi+160]
  00157	83 65 fc 00	 and	 DWORD PTR __$EHRec$[ebp+8], 0
  0015b	89 55 f0	 mov	 DWORD PTR ___inext$98877[ebp], edx
  0015e	03 d7		 add	 edx, edi
  00160	8b 39		 mov	 edi, DWORD PTR [ecx]
  00162	89 55 10	 mov	 DWORD PTR tv738[ebp], edx
  00165	8d 55 f0	 lea	 edx, DWORD PTR ___inext$98877[ebp]
  00168	52		 push	 edx
  00169	ff 75 10	 push	 DWORD PTR tv738[ebp]
  0016c	8d 55 e4	 lea	 edx, DWORD PTR ___dummy$98878[ebp]
  0016f	ff 75 0c	 push	 DWORD PTR ___buf$98875[ebp]
  00172	52		 push	 edx
  00173	8d 14 18	 lea	 edx, DWORD PTR [eax+ebx]
  00176	52		 push	 edx
  00177	50		 push	 eax
  00178	8d 45 e8	 lea	 eax, DWORD PTR ___tmp_state$98860[ebp]
  0017b	50		 push	 eax
  0017c	ff 57 08	 call	 DWORD PTR [edi+8]

; 361  :         if (__status != _Codecvt::error &&
; 362  :             (__status == _Codecvt::noconv ||
; 363  :              (__inext == __ibegin + __ipos &&
; 364  :               equal(this->gptr(), this->eback(), __ibegin,
; 365  :                     _Eq_traits<traits_type>())))) {

  0017f	83 f8 02	 cmp	 eax, 2
  00182	0f 84 bc 00 00
	00		 je	 $L118329
  00188	83 f8 03	 cmp	 eax, 3
  0018b	74 2d		 je	 SHORT $L118328
  0018d	8b 45 10	 mov	 eax, DWORD PTR tv738[ebp]
  00190	39 45 f0	 cmp	 DWORD PTR ___inext$98877[ebp], eax
  00193	0f 85 ab 00 00
	00		 jne	 $L118329
  00199	8b 46 04	 mov	 eax, DWORD PTR [esi+4]
  0019c	8b 78 08	 mov	 edi, DWORD PTR [eax+8]
  0019f	8b 00		 mov	 eax, DWORD PTR [eax]
  001a1	3b c7		 cmp	 eax, edi
  001a3	74 15		 je	 SHORT $L118328
  001a5	8b 4d 0c	 mov	 ecx, DWORD PTR ___buf$98875[ebp]
  001a8	2b c8		 sub	 ecx, eax
$L118222:
  001aa	8a 10		 mov	 dl, BYTE PTR [eax]
  001ac	3a 14 01	 cmp	 dl, BYTE PTR [ecx+eax]
  001af	0f 85 8f 00 00
	00		 jne	 $L118329
  001b5	40		 inc	 eax
  001b6	3b c7		 cmp	 eax, edi
  001b8	75 f0		 jne	 SHORT $L118222
$L118328:

; 366  :           // Get the current position (at the end of the external buffer),
; 367  :           // then adjust it.  Again, it might be a text-oriented stream.
; 368  :           streamoff __cur = _M_base._M_seek(0, ios_base::cur);

  001ba	6a 02		 push	 2
  001bc	6a 00		 push	 0
  001be	8d 4e 54	 lea	 ecx, DWORD PTR [esi+84]
  001c1	e8 00 00 00 00	 call	 ?_M_seek@_Filebuf_base@_STL@@QAEJJH@Z ; _STL::_Filebuf_base::_M_seek

; 369  :           streamoff __adj =
; 370  :             _M_base._M_get_offset(_M_ext_buf, _M_ext_buf + __epos) -
; 371  :             _M_base._M_get_offset(_M_ext_buf, _M_ext_buf_end);

  001c6	8b 4e 74	 mov	 ecx, DWORD PTR [esi+116]
  001c9	8b 7e 5c	 mov	 edi, DWORD PTR [esi+92]
  001cc	03 d9		 add	 ebx, ecx
  001ce	83 e7 04	 and	 edi, 4
  001d1	89 45 10	 mov	 DWORD PTR ___cur$98916[ebp], eax
  001d4	74 04		 je	 SHORT $L118246
  001d6	2b d9		 sub	 ebx, ecx
  001d8	eb 19		 jmp	 SHORT $L118247
$L118246:
  001da	33 d2		 xor	 edx, edx
  001dc	3b cb		 cmp	 ecx, ebx
  001de	8b c1		 mov	 eax, ecx
  001e0	74 0b		 je	 SHORT $L118252
$L118250:
  001e2	80 38 0a	 cmp	 BYTE PTR [eax], 10	; 0000000aH
  001e5	75 01		 jne	 SHORT $L118251
  001e7	42		 inc	 edx
$L118251:
  001e8	40		 inc	 eax
  001e9	3b c3		 cmp	 eax, ebx
  001eb	75 f5		 jne	 SHORT $L118250
$L118252:
  001ed	2b d1		 sub	 edx, ecx
  001ef	03 d3		 add	 edx, ebx
  001f1	8b da		 mov	 ebx, edx
$L118247:
  001f3	85 ff		 test	 edi, edi
  001f5	8b 8e 80 00 00
	00		 mov	 ecx, DWORD PTR [esi+128]
  001fb	8b 46 74	 mov	 eax, DWORD PTR [esi+116]
  001fe	74 04		 je	 SHORT $L118273
  00200	2b c8		 sub	 ecx, eax
  00202	eb 19		 jmp	 SHORT $L118274
$L118273:
  00204	33 d2		 xor	 edx, edx
  00206	3b c1		 cmp	 eax, ecx
  00208	8b f8		 mov	 edi, eax
  0020a	74 0b		 je	 SHORT $L118279
$L118277:
  0020c	80 3f 0a	 cmp	 BYTE PTR [edi], 10	; 0000000aH
  0020f	75 01		 jne	 SHORT $L118278
  00211	42		 inc	 edx
$L118278:
  00212	47		 inc	 edi
  00213	3b f9		 cmp	 edi, ecx
  00215	75 f5		 jne	 SHORT $L118277
$L118279:
  00217	2b d0		 sub	 edx, eax
  00219	03 d1		 add	 edx, ecx
  0021b	8b ca		 mov	 ecx, edx
$L118274:

; 372  :           if (__cur != -1 && __cur + __adj >= 0)

  0021d	8b 45 10	 mov	 eax, DWORD PTR ___cur$98916[ebp]
  00220	2b d9		 sub	 ebx, ecx
  00222	83 f8 ff	 cmp	 eax, -1
  00225	74 1d		 je	 SHORT $L118329
  00227	03 c3		 add	 eax, ebx
  00229	78 19		 js	 SHORT $L118329

; 373  :             return _M_seek_return(__cur + __adj, __state);

  0022b	ff 75 ec	 push	 DWORD PTR ___state$98858[ebp]
  0022e	8b ce		 mov	 ecx, esi
  00230	50		 push	 eax
  00231	ff 75 08	 push	 DWORD PTR ___$ReturnUdt$[ebp]
  00234	e8 00 00 00 00	 call	 ?_M_seek_return@?$basic_filebuf@DV?$char_traits@D@_STL@@@_STL@@AAE?AV?$fpos@H@2@JH@Z ; _STL::basic_filebuf<char,_STL::char_traits<char> >::_M_seek_return
  00239	ff 75 0c	 push	 DWORD PTR ___buf$98875[ebp]
  0023c	e8 00 00 00 00	 call	 ??_V@YAXPAX@Z		; operator delete[]
  00241	59		 pop	 ecx
  00242	eb 37		 jmp	 SHORT $L118340
$L118329:

; 374  :           else
; 375  :             return pos_type(-1);
; 376  :         }
; 377  :         else                    // We failed the sanity check.
; 378  :           return pos_type(-1);

  00244	8b 75 08	 mov	 esi, DWORD PTR ___$ReturnUdt$[ebp]
  00247	ff 75 0c	 push	 DWORD PTR ___buf$98875[ebp]
  0024a	83 0e ff	 or	 DWORD PTR [esi], -1
  0024d	83 66 04 00	 and	 DWORD PTR [esi+4], 0
  00251	e8 00 00 00 00	 call	 ??_V@YAXPAX@Z		; operator delete[]
  00256	59		 pop	 ecx
  00257	8b c6		 mov	 eax, esi

; 379  :       }
; 380  :     }
; 381  :     else                        // Unrecognized value for __whence.
; 382  :       return pos_type(-1);

  00259	eb 2f		 jmp	 SHORT $L98926
$L98831:

; 298  :       return _M_seek_return(_M_base._M_seek(_M_width * __off, __whence),
; 299  :                             _State_type());

  0025b	6a 00		 push	 0
  0025d	57		 push	 edi
$L118341:
  0025e	8b 86 a4 00 00
	00		 mov	 eax, DWORD PTR [esi+164]
  00264	0f af c3	 imul	 eax, ebx
  00267	50		 push	 eax
  00268	8d 4e 54	 lea	 ecx, DWORD PTR [esi+84]
$L118336:
  0026b	e8 00 00 00 00	 call	 ?_M_seek@_Filebuf_base@_STL@@QAEJJH@Z ; _STL::_Filebuf_base::_M_seek
  00270	50		 push	 eax
  00271	ff 75 08	 push	 DWORD PTR ___$ReturnUdt$[ebp]
  00274	8b ce		 mov	 ecx, esi
  00276	e8 00 00 00 00	 call	 ?_M_seek_return@?$basic_filebuf@DV?$char_traits@D@_STL@@@_STL@@AAE?AV?$fpos@H@2@JH@Z ; _STL::basic_filebuf<char,_STL::char_traits<char> >::_M_seek_return
$L118340:
  0027b	8b 45 08	 mov	 eax, DWORD PTR ___$ReturnUdt$[ebp]
  0027e	eb 0a		 jmp	 SHORT $L98926
$L118330:

; 383  :   }
; 384  :   else
; 385  :     return pos_type(-1);

  00280	8b 45 08	 mov	 eax, DWORD PTR ___$ReturnUdt$[ebp]
  00283	83 08 ff	 or	 DWORD PTR [eax], -1
$L118335:
  00286	83 60 04 00	 and	 DWORD PTR [eax+4], 0
$L98926:

; 386  : }

  0028a	8b 4d f4	 mov	 ecx, DWORD PTR __$EHRec$[ebp]
  0028d	5f		 pop	 edi
  0028e	5e		 pop	 esi
  0028f	5b		 pop	 ebx
  00290	64 89 0d 00 00
	00 00		 mov	 DWORD PTR fs:__except_list, ecx
  00297	c9		 leave
  00298	c2 10 00	 ret	 16			; 00000010H
_TEXT	ENDS
;	COMDAT text$x
text$x	SEGMENT
$L118070:
  00000	8d 4d 0c	 lea	 ecx, DWORD PTR ___buf$98875[ebp]
  00003	e9 00 00 00 00	 jmp	 ??1?$_Filebuf_Tmp_Buf@D@_STL@@QAE@XZ ; _STL::_Filebuf_Tmp_Buf<char>::~_Filebuf_Tmp_Buf<char>
__ehhandler$?seekoff@?$basic_filebuf@DV?$char_traits@D@_STL@@@_STL@@MAE?AV?$fpos@H@2@JHH@Z:
  00008	b8 00 00 00 00	 mov	 eax, OFFSET FLAT:$T118317
  0000d	e9 00 00 00 00	 jmp	 ___CxxFrameHandler
text$x	ENDS
?seekoff@?$basic_filebuf@DV?$char_traits@D@_STL@@@_STL@@MAE?AV?$fpos@H@2@JHH@Z ENDP ; _STL::basic_filebuf<char,_STL::char_traits<char> >::seekoff
; Function compile flags: /Ogsy
; File c:\stlport-4.6.1\stlport\stl\_fstream.h
;	COMDAT ??1?$_Filebuf_Tmp_Buf@D@_STL@@QAE@XZ
_TEXT	SEGMENT
??1?$_Filebuf_Tmp_Buf@D@_STL@@QAE@XZ PROC NEAR		; _STL::_Filebuf_Tmp_Buf<char>::~_Filebuf_Tmp_Buf<char>, COMDAT
; _this$ = ecx

; 374  :   ~_Filebuf_Tmp_Buf() { delete[] _M_ptr; }

  00000	ff 31		 push	 DWORD PTR [ecx]
  00002	e8 00 00 00 00	 call	 ??_V@YAXPAX@Z		; operator delete[]
  00007	59		 pop	 ecx
  00008	c3		 ret	 0
??1?$_Filebuf_Tmp_Buf@D@_STL@@QAE@XZ ENDP		; _STL::_Filebuf_Tmp_Buf<char>::~_Filebuf_Tmp_Buf<char>
; Function compile flags: /Ogsy
_TEXT	ENDS
;	COMDAT ?_M_seek_return@?$basic_filebuf@DV?$char_traits@D@_STL@@@_STL@@AAE?AV?$fpos@H@2@JH@Z
_TEXT	SEGMENT
___$ReturnUdt$ = 8					; size = 4
___off$ = 12						; size = 4
___state$ = 16						; size = 4
?_M_seek_return@?$basic_filebuf@DV?$char_traits@D@_STL@@@_STL@@AAE?AV?$fpos@H@2@JH@Z PROC NEAR ; _STL::basic_filebuf<char,_STL::char_traits<char> >::_M_seek_return, COMDAT
; _this$ = ecx

; 265  :   pos_type _M_seek_return(off_type __off, _State_type __state) {

  00000	56		 push	 esi
  00001	57		 push	 edi

; 266  :     if (__off != -1) {

  00002	8b 7c 24 10	 mov	 edi, DWORD PTR ___off$[esp+4]
  00006	83 ff ff	 cmp	 edi, -1
  00009	8b f1		 mov	 esi, ecx
  0000b	74 30		 je	 SHORT $L118371
  0000d	53		 push	 ebx

; 267  :       if (_M_in_input_mode)

  0000e	33 db		 xor	 ebx, ebx
  00010	38 5e 67	 cmp	 BYTE PTR [esi+103], bl
  00013	74 05		 je	 SHORT $L106796

; 268  :         _M_exit_input_mode();

  00015	e8 00 00 00 00	 call	 ?_M_exit_input_mode@?$basic_filebuf@DV?$char_traits@D@_STL@@@_STL@@AAEXXZ ; _STL::basic_filebuf<char,_STL::char_traits<char> >::_M_exit_input_mode
$L106796:

; 269  :       _M_in_input_mode = false;
; 270  :       _M_in_output_mode = false;
; 271  :       _M_in_putback_mode = false;
; 272  :       _M_in_error_mode = false;
; 273  :       this->setg(0, 0, 0);

  0001a	8b 46 04	 mov	 eax, DWORD PTR [esi+4]
  0001d	88 5e 67	 mov	 BYTE PTR [esi+103], bl
  00020	88 5e 68	 mov	 BYTE PTR [esi+104], bl
  00023	88 5e 6a	 mov	 BYTE PTR [esi+106], bl
  00026	88 5e 69	 mov	 BYTE PTR [esi+105], bl
  00029	89 58 08	 mov	 DWORD PTR [eax+8], ebx
  0002c	89 18		 mov	 DWORD PTR [eax], ebx
  0002e	89 58 04	 mov	 DWORD PTR [eax+4], ebx

; 274  :       this->setp(0, 0);

  00031	8b 76 08	 mov	 esi, DWORD PTR [esi+8]
  00034	89 5e 08	 mov	 DWORD PTR [esi+8], ebx
  00037	89 1e		 mov	 DWORD PTR [esi], ebx
  00039	89 5e 04	 mov	 DWORD PTR [esi+4], ebx
  0003c	5b		 pop	 ebx
$L118371:

; 275  :     }
; 276  :     
; 277  :     pos_type __result(__off);
; 278  :     __result.state(__state);
; 279  :     return __result;

  0003d	8b 44 24 0c	 mov	 eax, DWORD PTR ___$ReturnUdt$[esp+4]
  00041	8b 4c 24 14	 mov	 ecx, DWORD PTR ___state$[esp+4]
  00045	89 38		 mov	 DWORD PTR [eax], edi
  00047	5f		 pop	 edi
  00048	89 48 04	 mov	 DWORD PTR [eax+4], ecx
  0004b	5e		 pop	 esi

; 280  :   }

  0004c	c2 0c 00	 ret	 12			; 0000000cH
?_M_seek_return@?$basic_filebuf@DV?$char_traits@D@_STL@@@_STL@@AAE?AV?$fpos@H@2@JH@Z ENDP ; _STL::basic_filebuf<char,_STL::char_traits<char> >::_M_seek_return
_TEXT	ENDS
PUBLIC	?_M_exit_putback_mode@?$basic_filebuf@DV?$char_traits@D@_STL@@@_STL@@AAEXXZ ; _STL::basic_filebuf<char,_STL::char_traits<char> >::_M_exit_putback_mode
; Function compile flags: /Ogsy
; File c:\stlport-4.6.1\stlport\stl\_fstream.c
;	COMDAT ?_M_seek_init@?$basic_filebuf@DV?$char_traits@D@_STL@@@_STL@@AAE_N_N@Z
_TEXT	SEGMENT
___do_unshift$ = 8					; size = 1
?_M_seek_init@?$basic_filebuf@DV?$char_traits@D@_STL@@@_STL@@AAE_N_N@Z PROC NEAR ; _STL::basic_filebuf<char,_STL::char_traits<char> >::_M_seek_init, COMDAT
; _this$ = ecx

; 699  : bool basic_filebuf<_CharT, _Traits>::_M_seek_init(bool __do_unshift) {

  00000	53		 push	 ebx
  00001	56		 push	 esi
  00002	8b f1		 mov	 esi, ecx

; 700  :   // If we're in error mode, leave it.
; 701  :    _M_in_error_mode = false;

  00004	33 db		 xor	 ebx, ebx

; 702  :    
; 703  :   // Flush the output buffer if we're in output mode, and (conditionally)
; 704  :   // emit an unshift sequence.
; 705  :   if (_M_in_output_mode) {

  00006	38 5e 68	 cmp	 BYTE PTR [esi+104], bl
  00009	88 5e 69	 mov	 BYTE PTR [esi+105], bl
  0000c	74 3e		 je	 SHORT $L107389

; 706  :     bool __ok = !traits_type::eq_int_type(this->overflow(traits_type::eof()),
; 707  :                                           traits_type::eof());

  0000e	8b 06		 mov	 eax, DWORD PTR [esi]
  00010	6a ff		 push	 -1
  00012	ff 50 30	 call	 DWORD PTR [eax+48]
  00015	83 f8 ff	 cmp	 eax, -1
  00018	0f 95 c0	 setne	 al

; 708  :     if (__do_unshift)

  0001b	38 5c 24 0c	 cmp	 BYTE PTR ___do_unshift$[esp+4], bl
  0001f	74 11		 je	 SHORT $L118389

; 709  :       __ok = __ok && this->_M_unshift();

  00021	3a c3		 cmp	 al, bl
  00023	74 0b		 je	 SHORT $L118388
  00025	8b ce		 mov	 ecx, esi
  00027	e8 00 00 00 00	 call	 ?_M_unshift@?$basic_filebuf@DV?$char_traits@D@_STL@@@_STL@@AAE_NXZ ; _STL::basic_filebuf<char,_STL::char_traits<char> >::_M_unshift
  0002c	84 c0		 test	 al, al
  0002e	75 1c		 jne	 SHORT $L107389
$L118388:
  00030	32 c0		 xor	 al, al
$L118389:

; 710  :     if (!__ok) {

  00032	3a c3		 cmp	 al, bl
  00034	75 16		 jne	 SHORT $L107389

; 711  :       _M_in_output_mode = false;

  00036	88 5e 68	 mov	 BYTE PTR [esi+104], bl

; 712  :       _M_in_error_mode = true;

  00039	c6 46 69 01	 mov	 BYTE PTR [esi+105], 1

; 713  :       this->setp(0, 0);

  0003d	8b 76 08	 mov	 esi, DWORD PTR [esi+8]
  00040	89 5e 08	 mov	 DWORD PTR [esi+8], ebx
  00043	89 1e		 mov	 DWORD PTR [esi], ebx
  00045	89 5e 04	 mov	 DWORD PTR [esi+4], ebx

; 714  :       return false;

  00048	32 c0		 xor	 al, al
  0004a	eb 13		 jmp	 SHORT $L107383
$L107389:

; 715  :     }
; 716  :   }
; 717  : 
; 718  :   // Discard putback characters, if any.
; 719  :   if (_M_in_input_mode && _M_in_putback_mode)

  0004c	38 5e 67	 cmp	 BYTE PTR [esi+103], bl
  0004f	74 0c		 je	 SHORT $L107390
  00051	38 5e 6a	 cmp	 BYTE PTR [esi+106], bl
  00054	74 07		 je	 SHORT $L107390

; 720  :     _M_exit_putback_mode();

  00056	8b ce		 mov	 ecx, esi
  00058	e8 00 00 00 00	 call	 ?_M_exit_putback_mode@?$basic_filebuf@DV?$char_traits@D@_STL@@@_STL@@AAEXXZ ; _STL::basic_filebuf<char,_STL::char_traits<char> >::_M_exit_putback_mode
$L107390:

; 721  : 
; 722  :   return true;

  0005d	b0 01		 mov	 al, 1
$L107383:
  0005f	5e		 pop	 esi
  00060	5b		 pop	 ebx

; 723  : }

  00061	c2 04 00	 ret	 4
?_M_seek_init@?$basic_filebuf@DV?$char_traits@D@_STL@@@_STL@@AAE_N_N@Z ENDP ; _STL::basic_filebuf<char,_STL::char_traits<char> >::_M_seek_init
; Function compile flags: /Ogsy
; File c:\stlport-4.6.1\stlport\stl\_fstream.h
_TEXT	ENDS
;	COMDAT ?_M_exit_putback_mode@?$basic_filebuf@DV?$char_traits@D@_STL@@@_STL@@AAEXXZ
_TEXT	SEGMENT
?_M_exit_putback_mode@?$basic_filebuf@DV?$char_traits@D@_STL@@@_STL@@AAEXXZ PROC NEAR ; _STL::basic_filebuf<char,_STL::char_traits<char> >::_M_exit_putback_mode, COMDAT
; _this$ = ecx

; 245  :     this->setg(_M_saved_eback, _M_saved_gptr, _M_saved_egptr);

  00000	8b 81 9c 00 00
	00		 mov	 eax, DWORD PTR [ecx+156]
  00006	8b 51 04	 mov	 edx, DWORD PTR [ecx+4]
  00009	56		 push	 esi
  0000a	8b b1 98 00 00
	00		 mov	 esi, DWORD PTR [ecx+152]
  00010	57		 push	 edi
  00011	8b b9 94 00 00
	00		 mov	 edi, DWORD PTR [ecx+148]
  00017	89 7a 08	 mov	 DWORD PTR [edx+8], edi
  0001a	2b c6		 sub	 eax, esi
  0001c	89 32		 mov	 DWORD PTR [edx], esi
  0001e	5f		 pop	 edi
  0001f	89 42 04	 mov	 DWORD PTR [edx+4], eax

; 246  :     _M_in_putback_mode = false;

  00022	c6 41 6a 00	 mov	 BYTE PTR [ecx+106], 0
  00026	5e		 pop	 esi

; 247  :   }

  00027	c3		 ret	 0
?_M_exit_putback_mode@?$basic_filebuf@DV?$char_traits@D@_STL@@@_STL@@AAEXXZ ENDP ; _STL::basic_filebuf<char,_STL::char_traits<char> >::_M_exit_putback_mode
; Function compile flags: /Ogsy
; File c:\stlport-4.6.1\stlport\stl\_fstream.c
_TEXT	ENDS
;	COMDAT ?seekpos@?$basic_filebuf@DV?$char_traits@D@_STL@@@_STL@@MAE?AV?$fpos@H@2@V32@H@Z
_TEXT	SEGMENT
___$ReturnUdt$ = 8					; size = 4
___pos$ = 12						; size = 8
___formal$ = 20						; size = 4
?seekpos@?$basic_filebuf@DV?$char_traits@D@_STL@@@_STL@@MAE?AV?$fpos@H@2@V32@H@Z PROC NEAR ; _STL::basic_filebuf<char,_STL::char_traits<char> >::seekpos, COMDAT
; _this$ = ecx

; 393  : {

  00000	55		 push	 ebp
  00001	8b ec		 mov	 ebp, esp
  00003	56		 push	 esi
  00004	8b f1		 mov	 esi, ecx

; 394  :   if (this->is_open()) {

  00006	80 7e 60 00	 cmp	 BYTE PTR [esi+96], 0
  0000a	74 3f		 je	 SHORT $L98936

; 395  :     if (!_M_seek_init(true))

  0000c	6a 01		 push	 1
  0000e	e8 00 00 00 00	 call	 ?_M_seek_init@?$basic_filebuf@DV?$char_traits@D@_STL@@@_STL@@AAE_N_N@Z ; _STL::basic_filebuf<char,_STL::char_traits<char> >::_M_seek_init
  00013	84 c0		 test	 al, al

; 396  :       return pos_type(-1);

  00015	74 34		 je	 SHORT $L98936

; 397  : 
; 398  :     streamoff __off = off_type(__pos);
; 399  :     if (__off != -1 && _M_base._M_seek(__off, ios_base::beg) != -1) {

  00017	83 7d 0c ff	 cmp	 DWORD PTR ___pos$[ebp], -1
  0001b	74 2e		 je	 SHORT $L98936
  0001d	6a 01		 push	 1
  0001f	ff 75 0c	 push	 DWORD PTR ___pos$[ebp]
  00022	8d 4e 54	 lea	 ecx, DWORD PTR [esi+84]
  00025	e8 00 00 00 00	 call	 ?_M_seek@_Filebuf_base@_STL@@QAEJJH@Z ; _STL::_Filebuf_base::_M_seek
  0002a	83 f8 ff	 cmp	 eax, -1
  0002d	74 1c		 je	 SHORT $L98936

; 400  :       _M_state = __pos.state();

  0002f	8b 45 10	 mov	 eax, DWORD PTR ___pos$[ebp+4]

; 401  :       return _M_seek_return(__off, __pos.state());

  00032	50		 push	 eax
  00033	ff 75 0c	 push	 DWORD PTR ___pos$[ebp]
  00036	8b ce		 mov	 ecx, esi
  00038	ff 75 08	 push	 DWORD PTR ___$ReturnUdt$[ebp]
  0003b	89 86 84 00 00
	00		 mov	 DWORD PTR [esi+132], eax
  00041	e8 00 00 00 00	 call	 ?_M_seek_return@?$basic_filebuf@DV?$char_traits@D@_STL@@@_STL@@AAE?AV?$fpos@H@2@JH@Z ; _STL::basic_filebuf<char,_STL::char_traits<char> >::_M_seek_return
  00046	8b 45 08	 mov	 eax, DWORD PTR ___$ReturnUdt$[ebp]
  00049	eb 0a		 jmp	 SHORT $L98944
$L98936:

; 402  :     }
; 403  :     else
; 404  :       return pos_type(-1);
; 405  :   }
; 406  :   else
; 407  :     return pos_type(-1);

  0004b	8b 45 08	 mov	 eax, DWORD PTR ___$ReturnUdt$[ebp]
  0004e	83 08 ff	 or	 DWORD PTR [eax], -1
  00051	83 60 04 00	 and	 DWORD PTR [eax+4], 0
$L98944:
  00055	5e		 pop	 esi

; 408  : }

  00056	5d		 pop	 ebp
  00057	c2 10 00	 ret	 16			; 00000010H
?seekpos@?$basic_filebuf@DV?$char_traits@D@_STL@@@_STL@@MAE?AV?$fpos@H@2@V32@H@Z ENDP ; _STL::basic_filebuf<char,_STL::char_traits<char> >::seekpos
; Function compile flags: /Ogsy
_TEXT	ENDS
;	COMDAT ??_G?$basic_filebuf@DV?$char_traits@D@_STL@@@_STL@@UAEPAXI@Z
_TEXT	SEGMENT
___flags$ = 8						; size = 4
??_G?$basic_filebuf@DV?$char_traits@D@_STL@@@_STL@@UAEPAXI@Z PROC NEAR ; _STL::basic_filebuf<char,_STL::char_traits<char> >::`scalar deleting destructor', COMDAT
; _this$ = ecx
  00000	56		 push	 esi
  00001	8b f1		 mov	 esi, ecx
  00003	e8 00 00 00 00	 call	 ??1?$basic_filebuf@DV?$char_traits@D@_STL@@@_STL@@UAE@XZ ; _STL::basic_filebuf<char,_STL::char_traits<char> >::~basic_filebuf<char,_STL::char_traits<char> >
  00008	f6 44 24 08 01	 test	 BYTE PTR ___flags$[esp], 1
  0000d	74 07		 je	 SHORT $L99020
  0000f	56		 push	 esi
  00010	e8 00 00 00 00	 call	 ??3@YAXPAX@Z		; operator delete
  00015	59		 pop	 ecx
$L99020:
  00016	8b c6		 mov	 eax, esi
  00018	5e		 pop	 esi
  00019	c2 04 00	 ret	 4
??_G?$basic_filebuf@DV?$char_traits@D@_STL@@@_STL@@UAEPAXI@Z ENDP ; _STL::basic_filebuf<char,_STL::char_traits<char> >::`scalar deleting destructor'
; Function compile flags: /Ogsy
_TEXT	ENDS
;	COMDAT ??_G?$basic_ofstream@DV?$char_traits@D@_STL@@@_STL@@UAEPAXI@Z
_TEXT	SEGMENT
___flags$ = 8						; size = 4
??_G?$basic_ofstream@DV?$char_traits@D@_STL@@@_STL@@UAEPAXI@Z PROC NEAR ; _STL::basic_ofstream<char,_STL::char_traits<char> >::`scalar deleting destructor', COMDAT
; _this$ = ecx
  00000	56		 push	 esi
  00001	8d b1 48 ff ff
	ff		 lea	 esi, DWORD PTR [ecx-184]
  00007	8b ce		 mov	 ecx, esi
  00009	e8 00 00 00 00	 call	 ??_D?$basic_ofstream@DV?$char_traits@D@_STL@@@_STL@@QAEXXZ
  0000e	f6 44 24 08 01	 test	 BYTE PTR ___flags$[esp], 1
  00013	74 07		 je	 SHORT $L108864
  00015	56		 push	 esi
  00016	e8 00 00 00 00	 call	 ??3@YAXPAX@Z		; operator delete
  0001b	59		 pop	 ecx
$L108864:
  0001c	8b c6		 mov	 eax, esi
  0001e	5e		 pop	 esi
  0001f	c2 04 00	 ret	 4
??_G?$basic_ofstream@DV?$char_traits@D@_STL@@@_STL@@UAEPAXI@Z ENDP ; _STL::basic_ofstream<char,_STL::char_traits<char> >::`scalar deleting destructor'
_TEXT	ENDS
PUBLIC	??_8?$basic_ofstream@DV?$char_traits@D@_STL@@@_STL@@7B@ ; _STL::basic_ofstream<char,_STL::char_traits<char> >::`vbtable'
PUBLIC	??0?$basic_ios@DV?$char_traits@D@_STL@@@_STL@@IAE@XZ ; _STL::basic_ios<char,_STL::char_traits<char> >::basic_ios<char,_STL::char_traits<char> >
PUBLIC	?init@?$basic_ios@DV?$char_traits@D@_STL@@@_STL@@IAEXPAV?$basic_streambuf@DV?$char_traits@D@_STL@@@2@@Z ; _STL::basic_ios<char,_STL::char_traits<char> >::init
PUBLIC	??0?$basic_filebuf@DV?$char_traits@D@_STL@@@_STL@@QAE@XZ ; _STL::basic_filebuf<char,_STL::char_traits<char> >::basic_filebuf<char,_STL::char_traits<char> >
PUBLIC	??0?$basic_ostream@DV?$char_traits@D@_STL@@@_STL@@QAE@PAV?$basic_streambuf@DV?$char_traits@D@_STL@@@1@@Z ; _STL::basic_ostream<char,_STL::char_traits<char> >::basic_ostream<char,_STL::char_traits<char> >
EXTRN	?_M_open@_Filebuf_base@_STL@@QAE_NPBDH@Z:NEAR	; _STL::_Filebuf_base::_M_open
;	COMDAT xdata$x
; File c:\stlport-4.6.1\stlport\stl\_ios_base.h
xdata$x	SEGMENT
$T118511 DD	0ffffffffH
	DD	FLAT:$L118483
	DD	00H
	DD	FLAT:$L118485
	DD	01H
	DD	FLAT:$L118486
$T118509 DD	019930520H
	DD	03H
	DD	FLAT:$T118511
	DD	2 DUP(00H)
	DD	2 DUP(00H)
xdata$x	ENDS
;	COMDAT ??_8?$basic_ofstream@DV?$char_traits@D@_STL@@@_STL@@7B@
CONST	SEGMENT
??_8?$basic_ofstream@DV?$char_traits@D@_STL@@@_STL@@7B@ DD 00H ; _STL::basic_ofstream<char,_STL::char_traits<char> >::`vbtable'
	DD	0b8H
; Function compile flags: /Ogsy
; File c:\stlport-4.6.1\stlport\stl\_fstream.h
CONST	ENDS
;	COMDAT ??0?$basic_ofstream@DV?$char_traits@D@_STL@@@_STL@@QAE@PBDH@Z
_TEXT	SEGMENT
_this$ = -20						; size = 4
$T118482 = -16						; size = 4
__$EHRec$ = -12						; size = 12
___s$ = 8						; size = 4
___mod$ = 12						; size = 4
_$initVBases$ = 16					; size = 4
??0?$basic_ofstream@DV?$char_traits@D@_STL@@@_STL@@QAE@PBDH@Z PROC NEAR ; _STL::basic_ofstream<char,_STL::char_traits<char> >::basic_ofstream<char,_STL::char_traits<char> >, COMDAT
; _this$ = ecx

; 594  :       _M_buf() {

  00000	b8 00 00 00 00	 mov	 eax, __ehhandler$??0?$basic_ofstream@DV?$char_traits@D@_STL@@@_STL@@QAE@PBDH@Z
  00005	e8 00 00 00 00	 call	 __EH_prolog
  0000a	51		 push	 ecx
  0000b	51		 push	 ecx
  0000c	53		 push	 ebx
  0000d	56		 push	 esi
  0000e	57		 push	 edi
  0000f	33 ff		 xor	 edi, edi
  00011	33 db		 xor	 ebx, ebx
  00013	8b f1		 mov	 esi, ecx
  00015	47		 inc	 edi
  00016	39 5d 10	 cmp	 DWORD PTR _$initVBases$[ebp], ebx
  00019	89 75 ec	 mov	 DWORD PTR _this$[ebp], esi
  0001c	89 5d f0	 mov	 DWORD PTR $T118482[ebp], ebx
  0001f	74 17		 je	 SHORT $L108805
  00021	8d 8e b8 00 00
	00		 lea	 ecx, DWORD PTR [esi+184]
  00027	c7 06 00 00 00
	00		 mov	 DWORD PTR [esi], OFFSET FLAT:??_8?$basic_ofstream@DV?$char_traits@D@_STL@@@_STL@@7B@
  0002d	e8 00 00 00 00	 call	 ??0?$basic_ios@DV?$char_traits@D@_STL@@@_STL@@IAE@XZ ; _STL::basic_ios<char,_STL::char_traits<char> >::basic_ios<char,_STL::char_traits<char> >
  00032	89 5d fc	 mov	 DWORD PTR __$EHRec$[ebp+8], ebx
  00035	89 7d f0	 mov	 DWORD PTR $T118482[ebp], edi
$L108805:
  00038	53		 push	 ebx
  00039	53		 push	 ebx
  0003a	8b ce		 mov	 ecx, esi
  0003c	e8 00 00 00 00	 call	 ??0?$basic_ostream@DV?$char_traits@D@_STL@@@_STL@@QAE@PAV?$basic_streambuf@DV?$char_traits@D@_STL@@@1@@Z ; _STL::basic_ostream<char,_STL::char_traits<char> >::basic_ostream<char,_STL::char_traits<char> >
  00041	8b 06		 mov	 eax, DWORD PTR [esi]
  00043	8b 40 04	 mov	 eax, DWORD PTR [eax+4]
  00046	89 7d fc	 mov	 DWORD PTR __$EHRec$[ebp+8], edi
  00049	8d 7e 04	 lea	 edi, DWORD PTR [esi+4]
  0004c	8b cf		 mov	 ecx, edi
  0004e	c7 04 06 00 00
	00 00		 mov	 DWORD PTR [esi+eax], OFFSET FLAT:??_7?$basic_ofstream@DV?$char_traits@D@_STL@@@_STL@@6B@
  00055	e8 00 00 00 00	 call	 ??0?$basic_filebuf@DV?$char_traits@D@_STL@@@_STL@@QAE@XZ ; _STL::basic_filebuf<char,_STL::char_traits<char> >::basic_filebuf<char,_STL::char_traits<char> >

; 595  : 	this->init(&_M_buf);

  0005a	8b 06		 mov	 eax, DWORD PTR [esi]
  0005c	8b 48 04	 mov	 ecx, DWORD PTR [eax+4]
  0005f	57		 push	 edi
  00060	03 ce		 add	 ecx, esi
  00062	c6 45 fc 02	 mov	 BYTE PTR __$EHRec$[ebp+8], 2
  00066	e8 00 00 00 00	 call	 ?init@?$basic_ios@DV?$char_traits@D@_STL@@@_STL@@IAEXPAV?$basic_streambuf@DV?$char_traits@D@_STL@@@2@@Z ; _STL::basic_ios<char,_STL::char_traits<char> >::init

; 596  : 	if (!_M_buf.open(__s, __mod | ios_base::out))

  0006b	8b 45 0c	 mov	 eax, DWORD PTR ___mod$[ebp]
  0006e	83 c8 10	 or	 eax, 16			; 00000010H
  00071	50		 push	 eax
  00072	ff 75 08	 push	 DWORD PTR ___s$[ebp]
  00075	8d 4f 54	 lea	 ecx, DWORD PTR [edi+84]
  00078	e8 00 00 00 00	 call	 ?_M_open@_Filebuf_base@_STL@@QAE_NPBDH@Z ; _STL::_Filebuf_base::_M_open
  0007d	f6 d8		 neg	 al
  0007f	1b c0		 sbb	 eax, eax
  00081	85 c7		 test	 eax, edi
  00083	75 13		 jne	 SHORT $L118503

; 597  : 	  this->setstate(ios_base::failbit);

  00085	8b 06		 mov	 eax, DWORD PTR [esi]
  00087	8b 48 04	 mov	 ecx, DWORD PTR [eax+4]
  0008a	03 ce		 add	 ecx, esi
  0008c	8b 41 08	 mov	 eax, DWORD PTR [ecx+8]
  0008f	83 c8 04	 or	 eax, 4
  00092	50		 push	 eax
  00093	e8 00 00 00 00	 call	 ?clear@?$basic_ios@DV?$char_traits@D@_STL@@@_STL@@QAEXH@Z ; _STL::basic_ios<char,_STL::char_traits<char> >::clear
$L118503:

; 598  :   }

  00098	8b 4d f4	 mov	 ecx, DWORD PTR __$EHRec$[ebp]
  0009b	5f		 pop	 edi
  0009c	8b c6		 mov	 eax, esi
  0009e	5e		 pop	 esi
  0009f	5b		 pop	 ebx
  000a0	64 89 0d 00 00
	00 00		 mov	 DWORD PTR fs:__except_list, ecx
  000a7	c9		 leave
  000a8	c2 0c 00	 ret	 12			; 0000000cH
_TEXT	ENDS
;	COMDAT text$x
text$x	SEGMENT
$L118483:
  00000	8b 45 f0	 mov	 eax, DWORD PTR $T118482[ebp]
  00003	83 e0 01	 and	 eax, 1
  00006	0f 84 12 00 00
	00		 je	 $L118484
  0000c	83 65 f0 fe	 and	 DWORD PTR $T118482[ebp], -2 ; fffffffeH
  00010	8b 4d ec	 mov	 ecx, DWORD PTR _this$[ebp]
  00013	81 c1 b8 00 00
	00		 add	 ecx, 184		; 000000b8H
  00019	e9 00 00 00 00	 jmp	 ??1?$basic_ios@DV?$char_traits@D@_STL@@@_STL@@UAE@XZ ; _STL::basic_ios<char,_STL::char_traits<char> >::~basic_ios<char,_STL::char_traits<char> >
$L118484:
  0001e	c3		 ret	 0
$L118485:
  0001f	8b 4d ec	 mov	 ecx, DWORD PTR _this$[ebp]
  00022	83 c1 04	 add	 ecx, 4
  00025	e9 00 00 00 00	 jmp	 ??1?$basic_ostream@DV?$char_traits@D@_STL@@@_STL@@UAE@XZ ; _STL::basic_ostream<char,_STL::char_traits<char> >::~basic_ostream<char,_STL::char_traits<char> >
$L118486:
  0002a	8b 4d ec	 mov	 ecx, DWORD PTR _this$[ebp]
  0002d	83 c1 04	 add	 ecx, 4
  00030	e9 00 00 00 00	 jmp	 ??1?$basic_filebuf@DV?$char_traits@D@_STL@@@_STL@@UAE@XZ ; _STL::basic_filebuf<char,_STL::char_traits<char> >::~basic_filebuf<char,_STL::char_traits<char> >
__ehhandler$??0?$basic_ofstream@DV?$char_traits@D@_STL@@@_STL@@QAE@PBDH@Z:
  00035	b8 00 00 00 00	 mov	 eax, OFFSET FLAT:$T118509
  0003a	e9 00 00 00 00	 jmp	 ___CxxFrameHandler
text$x	ENDS
??0?$basic_ofstream@DV?$char_traits@D@_STL@@@_STL@@QAE@PBDH@Z ENDP ; _STL::basic_ofstream<char,_STL::char_traits<char> >::basic_ofstream<char,_STL::char_traits<char> >
EXTRN	??0ios_base@_STL@@IAE@XZ:NEAR			; _STL::ios_base::ios_base
; Function compile flags: /Ogsy
; File c:\stlport-4.6.1\stlport\stl\_ios.c
;	COMDAT ??0?$basic_ios@DV?$char_traits@D@_STL@@@_STL@@IAE@XZ
_TEXT	SEGMENT
??0?$basic_ios@DV?$char_traits@D@_STL@@@_STL@@IAE@XZ PROC NEAR ; _STL::basic_ios<char,_STL::char_traits<char> >::basic_ios<char,_STL::char_traits<char> >, COMDAT
; _this$ = ecx

; 95   : {}

  00000	56		 push	 esi
  00001	8b f1		 mov	 esi, ecx
  00003	e8 00 00 00 00	 call	 ??0ios_base@_STL@@IAE@XZ ; _STL::ios_base::ios_base
  00008	33 c0		 xor	 eax, eax
  0000a	88 46 54	 mov	 BYTE PTR [esi+84], al
  0000d	89 46 58	 mov	 DWORD PTR [esi+88], eax
  00010	89 46 5c	 mov	 DWORD PTR [esi+92], eax
  00013	c7 06 00 00 00
	00		 mov	 DWORD PTR [esi], OFFSET FLAT:??_7?$basic_ios@DV?$char_traits@D@_STL@@@_STL@@6B@
  00019	8b c6		 mov	 eax, esi
  0001b	5e		 pop	 esi
  0001c	c3		 ret	 0
??0?$basic_ios@DV?$char_traits@D@_STL@@@_STL@@IAE@XZ ENDP ; _STL::basic_ios<char,_STL::char_traits<char> >::basic_ios<char,_STL::char_traits<char> >
_TEXT	ENDS
PUBLIC	??0?$basic_streambuf@DV?$char_traits@D@_STL@@@_STL@@IAE@XZ ; _STL::basic_streambuf<char,_STL::char_traits<char> >::basic_streambuf<char,_STL::char_traits<char> >
EXTRN	??0_Filebuf_base@_STL@@QAE@XZ:NEAR		; _STL::_Filebuf_base::_Filebuf_base
EXTRN	??0locale@_STL@@QAE@XZ:NEAR			; _STL::locale::locale
EXTRN	??1locale@_STL@@QAE@XZ:NEAR			; _STL::locale::~locale
;	COMDAT xdata$x
; File c:\stlport-4.6.1\stlport\stl\_stdio_file.h
xdata$x	SEGMENT
$T118552 DD	0ffffffffH
	DD	FLAT:$L118521
	DD	00H
	DD	FLAT:$L118522
$T118550 DD	019930520H
	DD	02H
	DD	FLAT:$T118552
	DD	2 DUP(00H)
	DD	2 DUP(00H)
; Function compile flags: /Ogsy
; File c:\stlport-4.6.1\stlport\stl\_fstream.c
xdata$x	ENDS
;	COMDAT ??0?$basic_filebuf@DV?$char_traits@D@_STL@@@_STL@@QAE@XZ
_TEXT	SEGMENT
_this$ = -20						; size = 4
$T118520 = -16						; size = 4
__$EHRec$ = -12						; size = 12
??0?$basic_filebuf@DV?$char_traits@D@_STL@@@_STL@@QAE@XZ PROC NEAR ; _STL::basic_filebuf<char,_STL::char_traits<char> >::basic_filebuf<char,_STL::char_traits<char> >, COMDAT
; _this$ = ecx

; 60   : {

  00000	b8 00 00 00 00	 mov	 eax, __ehhandler$??0?$basic_filebuf@DV?$char_traits@D@_STL@@@_STL@@QAE@XZ
  00005	e8 00 00 00 00	 call	 __EH_prolog
  0000a	51		 push	 ecx
  0000b	51		 push	 ecx
  0000c	53		 push	 ebx
  0000d	56		 push	 esi
  0000e	8b f1		 mov	 esi, ecx
  00010	89 75 ec	 mov	 DWORD PTR _this$[ebp], esi
  00013	e8 00 00 00 00	 call	 ??0?$basic_streambuf@DV?$char_traits@D@_STL@@@_STL@@IAE@XZ ; _STL::basic_streambuf<char,_STL::char_traits<char> >::basic_streambuf<char,_STL::char_traits<char> >
  00018	33 db		 xor	 ebx, ebx
  0001a	8d 4e 54	 lea	 ecx, DWORD PTR [esi+84]
  0001d	89 5d fc	 mov	 DWORD PTR __$EHRec$[ebp+8], ebx
  00020	c7 06 00 00 00
	00		 mov	 DWORD PTR [esi], OFFSET FLAT:??_7?$basic_filebuf@DV?$char_traits@D@_STL@@@_STL@@6B@
  00026	e8 00 00 00 00	 call	 ??0_Filebuf_base@_STL@@QAE@XZ ; _STL::_Filebuf_base::_Filebuf_base
  0002b	33 c0		 xor	 eax, eax
  0002d	40		 inc	 eax

; 61   :   this->_M_setup_codecvt(locale());

  0002e	8d 4d f0	 lea	 ecx, DWORD PTR $T118520[ebp]
  00031	88 5e 64	 mov	 BYTE PTR [esi+100], bl
  00034	88 5e 65	 mov	 BYTE PTR [esi+101], bl
  00037	88 5e 66	 mov	 BYTE PTR [esi+102], bl
  0003a	88 5e 67	 mov	 BYTE PTR [esi+103], bl
  0003d	88 5e 68	 mov	 BYTE PTR [esi+104], bl
  00040	88 5e 69	 mov	 BYTE PTR [esi+105], bl
  00043	88 5e 6a	 mov	 BYTE PTR [esi+106], bl
  00046	89 5e 6c	 mov	 DWORD PTR [esi+108], ebx
  00049	89 5e 70	 mov	 DWORD PTR [esi+112], ebx
  0004c	89 5e 74	 mov	 DWORD PTR [esi+116], ebx
  0004f	89 5e 78	 mov	 DWORD PTR [esi+120], ebx
  00052	89 5e 7c	 mov	 DWORD PTR [esi+124], ebx
  00055	89 9e 80 00 00
	00		 mov	 DWORD PTR [esi+128], ebx
  0005b	89 9e 84 00 00
	00		 mov	 DWORD PTR [esi+132], ebx
  00061	89 9e 88 00 00
	00		 mov	 DWORD PTR [esi+136], ebx
  00067	89 9e 8c 00 00
	00		 mov	 DWORD PTR [esi+140], ebx
  0006d	89 9e 90 00 00
	00		 mov	 DWORD PTR [esi+144], ebx
  00073	89 9e 94 00 00
	00		 mov	 DWORD PTR [esi+148], ebx
  00079	89 9e 98 00 00
	00		 mov	 DWORD PTR [esi+152], ebx
  0007f	89 9e 9c 00 00
	00		 mov	 DWORD PTR [esi+156], ebx
  00085	89 9e a0 00 00
	00		 mov	 DWORD PTR [esi+160], ebx
  0008b	89 86 a4 00 00
	00		 mov	 DWORD PTR [esi+164], eax
  00091	89 86 a8 00 00
	00		 mov	 DWORD PTR [esi+168], eax
  00097	e8 00 00 00 00	 call	 ??0locale@_STL@@QAE@XZ	; _STL::locale::locale
  0009c	50		 push	 eax
  0009d	8b ce		 mov	 ecx, esi
  0009f	c6 45 fc 01	 mov	 BYTE PTR __$EHRec$[ebp+8], 1
  000a3	e8 00 00 00 00	 call	 ?_M_setup_codecvt@?$basic_filebuf@DV?$char_traits@D@_STL@@@_STL@@AAEXABVlocale@2@@Z ; _STL::basic_filebuf<char,_STL::char_traits<char> >::_M_setup_codecvt
  000a8	8d 4d f0	 lea	 ecx, DWORD PTR $T118520[ebp]
  000ab	88 5d fc	 mov	 BYTE PTR __$EHRec$[ebp+8], bl
  000ae	e8 00 00 00 00	 call	 ??1locale@_STL@@QAE@XZ	; _STL::locale::~locale

; 62   : }

  000b3	8b 4d f4	 mov	 ecx, DWORD PTR __$EHRec$[ebp]
  000b6	8b c6		 mov	 eax, esi
  000b8	5e		 pop	 esi
  000b9	5b		 pop	 ebx
  000ba	64 89 0d 00 00
	00 00		 mov	 DWORD PTR fs:__except_list, ecx
  000c1	c9		 leave
  000c2	c3		 ret	 0
_TEXT	ENDS
;	COMDAT text$x
text$x	SEGMENT
$L118521:
  00000	8b 4d ec	 mov	 ecx, DWORD PTR _this$[ebp]
  00003	e9 00 00 00 00	 jmp	 ??1?$basic_streambuf@DV?$char_traits@D@_STL@@@_STL@@UAE@XZ ; _STL::basic_streambuf<char,_STL::char_traits<char> >::~basic_streambuf<char,_STL::char_traits<char> >
$L118522:
  00008	8d 4d f0	 lea	 ecx, DWORD PTR $T118520[ebp]
  0000b	e9 00 00 00 00	 jmp	 ??1locale@_STL@@QAE@XZ	; _STL::locale::~locale
__ehhandler$??0?$basic_filebuf@DV?$char_traits@D@_STL@@@_STL@@QAE@XZ:
  00010	b8 00 00 00 00	 mov	 eax, OFFSET FLAT:$T118550
  00015	e9 00 00 00 00	 jmp	 ___CxxFrameHandler
text$x	ENDS
??0?$basic_filebuf@DV?$char_traits@D@_STL@@@_STL@@QAE@XZ ENDP ; _STL::basic_filebuf<char,_STL::char_traits<char> >::basic_filebuf<char,_STL::char_traits<char> >
PUBLIC	??_7?$basic_streambuf@DV?$char_traits@D@_STL@@@_STL@@6B@ ; _STL::basic_streambuf<char,_STL::char_traits<char> >::`vftable'
PUBLIC	??_G?$basic_streambuf@DV?$char_traits@D@_STL@@@_STL@@UAEPAXI@Z ; _STL::basic_streambuf<char,_STL::char_traits<char> >::`scalar deleting destructor'
PUBLIC	??_R4?$basic_streambuf@DV?$char_traits@D@_STL@@@_STL@@6B@ ; _STL::basic_streambuf<char,_STL::char_traits<char> >::`RTTI Complete Object Locator'
PUBLIC	??_R3?$basic_streambuf@DV?$char_traits@D@_STL@@@_STL@@8 ; _STL::basic_streambuf<char,_STL::char_traits<char> >::`RTTI Class Hierarchy Descriptor'
PUBLIC	??_R2?$basic_streambuf@DV?$char_traits@D@_STL@@@_STL@@8 ; _STL::basic_streambuf<char,_STL::char_traits<char> >::`RTTI Base Class Array'
EXTRN	?showmanyc@?$basic_streambuf@DV?$char_traits@D@_STL@@@_STL@@MAEHXZ:NEAR ; _STL::basic_streambuf<char,_STL::char_traits<char> >::showmanyc
EXTRN	?underflow@?$basic_streambuf@DV?$char_traits@D@_STL@@@_STL@@MAEHXZ:NEAR ; _STL::basic_streambuf<char,_STL::char_traits<char> >::underflow
EXTRN	?pbackfail@?$basic_streambuf@DV?$char_traits@D@_STL@@@_STL@@MAEHH@Z:NEAR ; _STL::basic_streambuf<char,_STL::char_traits<char> >::pbackfail
EXTRN	?overflow@?$basic_streambuf@DV?$char_traits@D@_STL@@@_STL@@MAEHH@Z:NEAR ; _STL::basic_streambuf<char,_STL::char_traits<char> >::overflow
EXTRN	?imbue@?$basic_streambuf@DV?$char_traits@D@_STL@@@_STL@@MAEXABVlocale@2@@Z:NEAR ; _STL::basic_streambuf<char,_STL::char_traits<char> >::imbue
EXTRN	??_E?$basic_streambuf@DV?$char_traits@D@_STL@@@_STL@@UAEPAXI@Z:NEAR ; _STL::basic_streambuf<char,_STL::char_traits<char> >::`vector deleting destructor'
EXTRN	?setbuf@?$basic_streambuf@DV?$char_traits@D@_STL@@@_STL@@MAEPAV12@PADH@Z:NEAR ; _STL::basic_streambuf<char,_STL::char_traits<char> >::setbuf
EXTRN	?seekoff@?$basic_streambuf@DV?$char_traits@D@_STL@@@_STL@@MAE?AV?$fpos@H@2@JHH@Z:NEAR ; _STL::basic_streambuf<char,_STL::char_traits<char> >::seekoff
EXTRN	?seekpos@?$basic_streambuf@DV?$char_traits@D@_STL@@@_STL@@MAE?AV?$fpos@H@2@V32@H@Z:NEAR ; _STL::basic_streambuf<char,_STL::char_traits<char> >::seekpos
EXTRN	?sync@?$basic_streambuf@DV?$char_traits@D@_STL@@@_STL@@MAEHXZ:NEAR ; _STL::basic_streambuf<char,_STL::char_traits<char> >::sync
;	COMDAT ??_7?$basic_streambuf@DV?$char_traits@D@_STL@@@_STL@@6B@
; File c:\stlport-4.6.1\stlport\stl\_stdio_file.h
CONST	SEGMENT
??_7?$basic_streambuf@DV?$char_traits@D@_STL@@@_STL@@6B@ DD FLAT:??_R4?$basic_streambuf@DV?$char_traits@D@_STL@@@_STL@@6B@ ; _STL::basic_streambuf<char,_STL::char_traits<char> >::`vftable'
	DD	FLAT:??_E?$basic_streambuf@DV?$char_traits@D@_STL@@@_STL@@UAEPAXI@Z
	DD	FLAT:?setbuf@?$basic_streambuf@DV?$char_traits@D@_STL@@@_STL@@MAEPAV12@PADH@Z
	DD	FLAT:?seekoff@?$basic_streambuf@DV?$char_traits@D@_STL@@@_STL@@MAE?AV?$fpos@H@2@JHH@Z
	DD	FLAT:?seekpos@?$basic_streambuf@DV?$char_traits@D@_STL@@@_STL@@MAE?AV?$fpos@H@2@V32@H@Z
	DD	FLAT:?sync@?$basic_streambuf@DV?$char_traits@D@_STL@@@_STL@@MAEHXZ
	DD	FLAT:?showmanyc@?$basic_streambuf@DV?$char_traits@D@_STL@@@_STL@@MAEHXZ
	DD	FLAT:?xsgetn@?$basic_streambuf@DV?$char_traits@D@_STL@@@_STL@@MAEHPADH@Z
	DD	FLAT:?underflow@?$basic_streambuf@DV?$char_traits@D@_STL@@@_STL@@MAEHXZ
	DD	FLAT:?uflow@?$basic_streambuf@DV?$char_traits@D@_STL@@@_STL@@MAEHXZ
	DD	FLAT:?pbackfail@?$basic_streambuf@DV?$char_traits@D@_STL@@@_STL@@MAEHH@Z
	DD	FLAT:?xsputn@?$basic_streambuf@DV?$char_traits@D@_STL@@@_STL@@MAEHPBDH@Z
	DD	FLAT:?_M_xsputnc@?$basic_streambuf@DV?$char_traits@D@_STL@@@_STL@@MAEHDH@Z
	DD	FLAT:?overflow@?$basic_streambuf@DV?$char_traits@D@_STL@@@_STL@@MAEHH@Z
	DD	FLAT:?imbue@?$basic_streambuf@DV?$char_traits@D@_STL@@@_STL@@MAEXABVlocale@2@@Z
CONST	ENDS
;	COMDAT ??_R4?$basic_streambuf@DV?$char_traits@D@_STL@@@_STL@@6B@
rdata$r	SEGMENT
??_R4?$basic_streambuf@DV?$char_traits@D@_STL@@@_STL@@6B@ DD 00H ; _STL::basic_streambuf<char,_STL::char_traits<char> >::`RTTI Complete Object Locator'
	DD	00H
	DD	00H
	DD	FLAT:??_R0?AV?$basic_streambuf@DV?$char_traits@D@_STL@@@_STL@@@8
	DD	FLAT:??_R3?$basic_streambuf@DV?$char_traits@D@_STL@@@_STL@@8
rdata$r	ENDS
;	COMDAT ??_R3?$basic_streambuf@DV?$char_traits@D@_STL@@@_STL@@8
rdata$r	SEGMENT
??_R3?$basic_streambuf@DV?$char_traits@D@_STL@@@_STL@@8 DD 00H ; _STL::basic_streambuf<char,_STL::char_traits<char> >::`RTTI Class Hierarchy Descriptor'
	DD	00H
	DD	01H
	DD	FLAT:??_R2?$basic_streambuf@DV?$char_traits@D@_STL@@@_STL@@8
rdata$r	ENDS
;	COMDAT ??_R2?$basic_streambuf@DV?$char_traits@D@_STL@@@_STL@@8
rdata$r	SEGMENT
??_R2?$basic_streambuf@DV?$char_traits@D@_STL@@@_STL@@8 DD FLAT:??_R1A@?0A@A@?$basic_streambuf@DV?$char_traits@D@_STL@@@_STL@@8 ; _STL::basic_streambuf<char,_STL::char_traits<char> >::`RTTI Base Class Array'
; Function compile flags: /Ogsy
; File c:\stlport-4.6.1\stlport\stl\_streambuf.h
rdata$r	ENDS
;	COMDAT ??0?$basic_streambuf@DV?$char_traits@D@_STL@@@_STL@@IAE@XZ
_TEXT	SEGMENT
??0?$basic_streambuf@DV?$char_traits@D@_STL@@@_STL@@IAE@XZ PROC NEAR ; _STL::basic_streambuf<char,_STL::char_traits<char> >::basic_streambuf<char,_STL::char_traits<char> >, COMDAT
; _this$ = ecx

; 352  :   {

  00000	56		 push	 esi
  00001	8b f1		 mov	 esi, ecx
  00003	8d 46 0c	 lea	 eax, DWORD PTR [esi+12]
  00006	89 46 04	 mov	 DWORD PTR [esi+4], eax
  00009	8d 46 2c	 lea	 eax, DWORD PTR [esi+44]
  0000c	8d 4e 4c	 lea	 ecx, DWORD PTR [esi+76]
  0000f	c7 06 00 00 00
	00		 mov	 DWORD PTR [esi], OFFSET FLAT:??_7?$basic_streambuf@DV?$char_traits@D@_STL@@@_STL@@6B@
  00015	89 46 08	 mov	 DWORD PTR [esi+8], eax
  00018	e8 00 00 00 00	 call	 ??0locale@_STL@@QAE@XZ	; _STL::locale::locale
  0001d	33 c9		 xor	 ecx, ecx
  0001f	89 4e 50	 mov	 DWORD PTR [esi+80], ecx

; 353  :     // _M_lock._M_initialize();
; 354  :     _FILE_I_set(_M_get, 0, 0, 0);

  00022	8b 46 04	 mov	 eax, DWORD PTR [esi+4]
  00025	89 48 08	 mov	 DWORD PTR [eax+8], ecx
  00028	89 08		 mov	 DWORD PTR [eax], ecx
  0002a	89 48 04	 mov	 DWORD PTR [eax+4], ecx

; 355  :     _FILE_O_set(_M_put, 0, 0, 0);

  0002d	8b 46 08	 mov	 eax, DWORD PTR [esi+8]
  00030	89 48 08	 mov	 DWORD PTR [eax+8], ecx
  00033	89 08		 mov	 DWORD PTR [eax], ecx
  00035	89 48 04	 mov	 DWORD PTR [eax+4], ecx

; 356  :   }

  00038	8b c6		 mov	 eax, esi
  0003a	5e		 pop	 esi
  0003b	c3		 ret	 0
??0?$basic_streambuf@DV?$char_traits@D@_STL@@@_STL@@IAE@XZ ENDP ; _STL::basic_streambuf<char,_STL::char_traits<char> >::basic_streambuf<char,_STL::char_traits<char> >
; Function compile flags: /Ogsy
_TEXT	ENDS
;	COMDAT ??_G?$basic_streambuf@DV?$char_traits@D@_STL@@@_STL@@UAEPAXI@Z
_TEXT	SEGMENT
___flags$ = 8						; size = 4
??_G?$basic_streambuf@DV?$char_traits@D@_STL@@@_STL@@UAEPAXI@Z PROC NEAR ; _STL::basic_streambuf<char,_STL::char_traits<char> >::`scalar deleting destructor', COMDAT
; _this$ = ecx
  00000	56		 push	 esi
  00001	8b f1		 mov	 esi, ecx
  00003	e8 00 00 00 00	 call	 ??1?$basic_streambuf@DV?$char_traits@D@_STL@@@_STL@@UAE@XZ ; _STL::basic_streambuf<char,_STL::char_traits<char> >::~basic_streambuf<char,_STL::char_traits<char> >
  00008	f6 44 24 08 01	 test	 BYTE PTR ___flags$[esp], 1
  0000d	74 07		 je	 SHORT $L81055
  0000f	56		 push	 esi
  00010	e8 00 00 00 00	 call	 ??3@YAXPAX@Z		; operator delete
  00015	59		 pop	 ecx
$L81055:
  00016	8b c6		 mov	 eax, esi
  00018	5e		 pop	 esi
  00019	c2 04 00	 ret	 4
??_G?$basic_streambuf@DV?$char_traits@D@_STL@@@_STL@@UAEPAXI@Z ENDP ; _STL::basic_streambuf<char,_STL::char_traits<char> >::`scalar deleting destructor'
_TEXT	ENDS
PUBLIC	?imbue@?$basic_ios@DV?$char_traits@D@_STL@@@_STL@@QAE?AVlocale@2@ABV32@@Z ; _STL::basic_ios<char,_STL::char_traits<char> >::imbue
;	COMDAT xdata$x
; File c:\stlport-4.6.1\stlport\stl\_ios.h
xdata$x	SEGMENT
$T118640 DD	0ffffffffH
	DD	FLAT:$L118590
$T118638 DD	019930520H
	DD	01H
	DD	FLAT:$T118640
	DD	2 DUP(00H)
	DD	2 DUP(00H)
; Function compile flags: /Ogsy
; File c:\stlport-4.6.1\stlport\stl\_ios.c
xdata$x	ENDS
;	COMDAT ?init@?$basic_ios@DV?$char_traits@D@_STL@@@_STL@@IAEXPAV?$basic_streambuf@DV?$char_traits@D@_STL@@@2@@Z
_TEXT	SEGMENT
$T118588 = -16						; size = 4
__$EHRec$ = -12						; size = 12
$T118589 = 8						; size = 4
___sb$ = 8						; size = 4
?init@?$basic_ios@DV?$char_traits@D@_STL@@@_STL@@IAEXPAV?$basic_streambuf@DV?$char_traits@D@_STL@@@2@@Z PROC NEAR ; _STL::basic_ios<char,_STL::char_traits<char> >::init, COMDAT
; _this$ = ecx

; 100  : {

  00000	b8 00 00 00 00	 mov	 eax, __ehhandler$?init@?$basic_ios@DV?$char_traits@D@_STL@@@_STL@@IAEXPAV?$basic_streambuf@DV?$char_traits@D@_STL@@@2@@Z
  00005	e8 00 00 00 00	 call	 __EH_prolog
  0000a	51		 push	 ecx
  0000b	53		 push	 ebx

; 101  :   this->rdbuf(__sb);

  0000c	8b 5d 08	 mov	 ebx, DWORD PTR ___sb$[ebp]
  0000f	56		 push	 esi
  00010	57		 push	 edi
  00011	8b f1		 mov	 esi, ecx
  00013	33 ff		 xor	 edi, edi
  00015	57		 push	 edi
  00016	89 5e 58	 mov	 DWORD PTR [esi+88], ebx
  00019	e8 00 00 00 00	 call	 ?clear@?$basic_ios@DV?$char_traits@D@_STL@@@_STL@@QAEXH@Z ; _STL::basic_ios<char,_STL::char_traits<char> >::clear

; 102  :   this->imbue(locale());

  0001e	8d 4d f0	 lea	 ecx, DWORD PTR $T118588[ebp]
  00021	e8 00 00 00 00	 call	 ??0locale@_STL@@QAE@XZ	; _STL::locale::locale
  00026	50		 push	 eax
  00027	8d 45 08	 lea	 eax, DWORD PTR $T118589[ebp]
  0002a	50		 push	 eax
  0002b	8b ce		 mov	 ecx, esi
  0002d	89 7d fc	 mov	 DWORD PTR __$EHRec$[ebp+8], edi
  00030	e8 00 00 00 00	 call	 ?imbue@?$basic_ios@DV?$char_traits@D@_STL@@@_STL@@QAE?AVlocale@2@ABV32@@Z ; _STL::basic_ios<char,_STL::char_traits<char> >::imbue
  00035	8d 4d 08	 lea	 ecx, DWORD PTR $T118589[ebp]
  00038	e8 00 00 00 00	 call	 ??1locale@_STL@@QAE@XZ	; _STL::locale::~locale
  0003d	83 4d fc ff	 or	 DWORD PTR __$EHRec$[ebp+8], -1
  00041	8d 4d f0	 lea	 ecx, DWORD PTR $T118588[ebp]
  00044	e8 00 00 00 00	 call	 ??1locale@_STL@@QAE@XZ	; _STL::locale::~locale

; 103  :   this->tie(0);
; 104  :   this->_M_set_exception_mask(ios_base::goodbit);
; 105  :   this->_M_clear_nothrow(__sb != 0 ? ios_base::goodbit : ios_base::badbit);
; 106  :   ios_base::flags(ios_base::skipws | ios_base::dec);
; 107  :   ios_base::width(0);
; 108  :   ios_base::precision(6);
; 109  :   this->fill(widen(' '));

  00049	8b 4e 40	 mov	 ecx, DWORD PTR [esi+64]
  0004c	33 c0		 xor	 eax, eax
  0004e	3b df		 cmp	 ebx, edi
  00050	0f 94 c0	 sete	 al
  00053	89 7e 5c	 mov	 DWORD PTR [esi+92], edi
  00056	89 7e 14	 mov	 DWORD PTR [esi+20], edi
  00059	c7 46 04 08 10
	00 00		 mov	 DWORD PTR [esi+4], 4104	; 00001008H
  00060	89 7e 1c	 mov	 DWORD PTR [esi+28], edi
  00063	c7 46 18 06 00
	00 00		 mov	 DWORD PTR [esi+24], 6
  0006a	6a 20		 push	 32			; 00000020H
  0006c	89 46 08	 mov	 DWORD PTR [esi+8], eax
  0006f	8b 01		 mov	 eax, DWORD PTR [ecx]
  00071	ff 50 18	 call	 DWORD PTR [eax+24]

; 110  :   // We don't need to worry about any of the three arrays: they are
; 111  :   // initialized correctly in ios_base's constructor.
; 112  : }

  00074	8b 4d f4	 mov	 ecx, DWORD PTR __$EHRec$[ebp]
  00077	5f		 pop	 edi
  00078	88 46 54	 mov	 BYTE PTR [esi+84], al
  0007b	5e		 pop	 esi
  0007c	5b		 pop	 ebx
  0007d	64 89 0d 00 00
	00 00		 mov	 DWORD PTR fs:__except_list, ecx
  00084	c9		 leave
  00085	c2 04 00	 ret	 4
_TEXT	ENDS
;	COMDAT text$x
text$x	SEGMENT
$L118590:
  00000	8d 4d f0	 lea	 ecx, DWORD PTR $T118588[ebp]
  00003	e9 00 00 00 00	 jmp	 ??1locale@_STL@@QAE@XZ	; _STL::locale::~locale
__ehhandler$?init@?$basic_ios@DV?$char_traits@D@_STL@@@_STL@@IAEXPAV?$basic_streambuf@DV?$char_traits@D@_STL@@@2@@Z:
  00008	b8 00 00 00 00	 mov	 eax, OFFSET FLAT:$T118638
  0000d	e9 00 00 00 00	 jmp	 ___CxxFrameHandler
text$x	ENDS
?init@?$basic_ios@DV?$char_traits@D@_STL@@@_STL@@IAEXPAV?$basic_streambuf@DV?$char_traits@D@_STL@@@2@@Z ENDP ; _STL::basic_ios<char,_STL::char_traits<char> >::init
PUBLIC	?grouping@?$numpunct@D@_STL@@QBE?AV?$basic_string@DV?$char_traits@D@_STL@@V?$allocator@D@2@@2@XZ ; _STL::numpunct<char>::grouping
PUBLIC	??4?$basic_string@DV?$char_traits@D@_STL@@V?$allocator@D@2@@_STL@@QAEAAV01@ABV01@@Z ; _STL::basic_string<char,_STL::char_traits<char>,_STL::allocator<char> >::operator=
EXTRN	?pubimbue@?$basic_streambuf@DV?$char_traits@D@_STL@@@_STL@@QAE?AVlocale@2@ABV32@@Z:NEAR ; _STL::basic_streambuf<char,_STL::char_traits<char> >::pubimbue
EXTRN	??0locale@_STL@@QAE@ABV01@@Z:NEAR		; _STL::locale::locale
EXTRN	?_M_get_facet@locale@_STL@@QBEPAVfacet@12@ABVid@12@@Z:NEAR ; _STL::locale::_M_get_facet
EXTRN	?id@?$ctype@D@_STL@@2V0locale@2@A:DWORD		; _STL::ctype<char>::id
EXTRN	?imbue@ios_base@_STL@@QAE?AVlocale@2@ABV32@@Z:NEAR ; _STL::ios_base::imbue
EXTRN	?id@?$numpunct@D@_STL@@2V0locale@2@A:DWORD	; _STL::numpunct<char>::id
;	COMDAT xdata$x
; File c:\stlport-4.6.1\stlport\stl\_alloc.h
xdata$x	SEGMENT
$T118723 DD	0ffffffffH
	DD	FLAT:$L118650
	DD	00H
	DD	FLAT:$L118647
	DD	01H
	DD	FLAT:$L118649
$T118721 DD	019930520H
	DD	03H
	DD	FLAT:$T118723
	DD	2 DUP(00H)
	DD	2 DUP(00H)
; Function compile flags: /Ogsy
; File c:\stlport-4.6.1\stlport\stl\_ios.c
xdata$x	ENDS
;	COMDAT ?imbue@?$basic_ios@DV?$char_traits@D@_STL@@@_STL@@QAE?AVlocale@2@ABV32@@Z
_TEXT	SEGMENT
$T118646 = -32						; size = 12
$T118651 = -20						; size = 4
$T118645 = -16						; size = 4
__$EHRec$ = -12						; size = 12
___$ReturnUdt$ = 8					; size = 4
___tmp$ = 12						; size = 4
___loc$ = 12						; size = 4
?imbue@?$basic_ios@DV?$char_traits@D@_STL@@@_STL@@QAE?AVlocale@2@ABV32@@Z PROC NEAR ; _STL::basic_ios<char,_STL::char_traits<char> >::imbue, COMDAT
; _this$ = ecx

; 74   : {

  00000	b8 00 00 00 00	 mov	 eax, __ehhandler$?imbue@?$basic_ios@DV?$char_traits@D@_STL@@@_STL@@QAE?AVlocale@2@ABV32@@Z
  00005	e8 00 00 00 00	 call	 __EH_prolog
  0000a	83 ec 14	 sub	 esp, 20			; 00000014H
  0000d	83 65 ec 00	 and	 DWORD PTR $T118651[ebp], 0
  00011	53		 push	 ebx
  00012	56		 push	 esi
  00013	57		 push	 edi

; 75   :   locale __tmp = ios_base::imbue(__loc);

  00014	8b 7d 0c	 mov	 edi, DWORD PTR ___loc$[ebp]
  00017	57		 push	 edi
  00018	8d 45 0c	 lea	 eax, DWORD PTR ___tmp$[ebp]
  0001b	50		 push	 eax
  0001c	8b f1		 mov	 esi, ecx
  0001e	e8 00 00 00 00	 call	 ?imbue@ios_base@_STL@@QAE?AVlocale@2@ABV32@@Z ; _STL::ios_base::imbue

; 76   : 
; 77   :   if (_M_streambuf)

  00023	8b 4e 58	 mov	 ecx, DWORD PTR [esi+88]
  00026	33 db		 xor	 ebx, ebx
  00028	43		 inc	 ebx
  00029	85 c9		 test	 ecx, ecx
  0002b	89 5d fc	 mov	 DWORD PTR __$EHRec$[ebp+8], ebx
  0002e	74 12		 je	 SHORT $L109872

; 78   :     _M_streambuf->pubimbue(__loc);

  00030	57		 push	 edi
  00031	8d 45 f0	 lea	 eax, DWORD PTR $T118645[ebp]
  00034	50		 push	 eax
  00035	e8 00 00 00 00	 call	 ?pubimbue@?$basic_streambuf@DV?$char_traits@D@_STL@@@_STL@@QAE?AVlocale@2@ABV32@@Z ; _STL::basic_streambuf<char,_STL::char_traits<char> >::pubimbue
  0003a	8d 4d f0	 lea	 ecx, DWORD PTR $T118645[ebp]
  0003d	e8 00 00 00 00	 call	 ??1locale@_STL@@QAE@XZ	; _STL::locale::~locale
$L109872:

; 79   : 
; 80   :   // no throwing here
; 81   :   this->_M_cached_ctype = __loc._M_get_facet(ctype<char_type>::id) ;

  00042	68 00 00 00 00	 push	 OFFSET FLAT:?id@?$ctype@D@_STL@@2V0locale@2@A ; _STL::ctype<char>::id
  00047	8b cf		 mov	 ecx, edi
  00049	e8 00 00 00 00	 call	 ?_M_get_facet@locale@_STL@@QBEPAVfacet@12@ABVid@12@@Z ; _STL::locale::_M_get_facet

; 82   :   this->_M_cached_numpunct = __loc._M_get_facet(numpunct<char_type>::id) ;

  0004e	68 00 00 00 00	 push	 OFFSET FLAT:?id@?$numpunct@D@_STL@@2V0locale@2@A ; _STL::numpunct<char>::id
  00053	8b cf		 mov	 ecx, edi
  00055	89 46 40	 mov	 DWORD PTR [esi+64], eax
  00058	e8 00 00 00 00	 call	 ?_M_get_facet@locale@_STL@@QBEPAVfacet@12@ABVid@12@@Z ; _STL::locale::_M_get_facet

; 83   :   this->_M_cached_grouping = ((numpunct<char_type>*)_M_cached_numpunct)->grouping() ;

  0005d	8d 4d e0	 lea	 ecx, DWORD PTR $T118646[ebp]
  00060	51		 push	 ecx
  00061	8b c8		 mov	 ecx, eax
  00063	89 46 44	 mov	 DWORD PTR [esi+68], eax
  00066	e8 00 00 00 00	 call	 ?grouping@?$numpunct@D@_STL@@QBE?AV?$basic_string@DV?$char_traits@D@_STL@@V?$allocator@D@2@@2@XZ ; _STL::numpunct<char>::grouping
  0006b	50		 push	 eax
  0006c	8d 4e 48	 lea	 ecx, DWORD PTR [esi+72]
  0006f	c6 45 fc 02	 mov	 BYTE PTR __$EHRec$[ebp+8], 2
  00073	e8 00 00 00 00	 call	 ??4?$basic_string@DV?$char_traits@D@_STL@@V?$allocator@D@2@@_STL@@QAEAAV01@ABV01@@Z ; _STL::basic_string<char,_STL::char_traits<char>,_STL::allocator<char> >::operator=
  00078	8b 45 e8	 mov	 eax, DWORD PTR $T118646[ebp+8]
  0007b	2b 45 e0	 sub	 eax, DWORD PTR $T118646[ebp]
  0007e	8d 4d e8	 lea	 ecx, DWORD PTR $T118646[ebp+8]
  00081	50		 push	 eax
  00082	ff 75 e0	 push	 DWORD PTR $T118646[ebp]
  00085	88 5d fc	 mov	 BYTE PTR __$EHRec$[ebp+8], bl
  00088	e8 00 00 00 00	 call	 ?deallocate@?$allocator@D@_STL@@QAEXPADI@Z ; _STL::allocator<char>::deallocate

; 84   :   return __tmp;

  0008d	8b 4d 08	 mov	 ecx, DWORD PTR ___$ReturnUdt$[ebp]
  00090	8d 45 0c	 lea	 eax, DWORD PTR ___tmp$[ebp]
  00093	50		 push	 eax
  00094	e8 00 00 00 00	 call	 ??0locale@_STL@@QAE@ABV01@@Z ; _STL::locale::locale
  00099	8d 4d 0c	 lea	 ecx, DWORD PTR ___tmp$[ebp]
  0009c	89 5d ec	 mov	 DWORD PTR $T118651[ebp], ebx
  0009f	c6 45 fc 00	 mov	 BYTE PTR __$EHRec$[ebp+8], 0
  000a3	e8 00 00 00 00	 call	 ??1locale@_STL@@QAE@XZ	; _STL::locale::~locale

; 85   : }

  000a8	8b 4d f4	 mov	 ecx, DWORD PTR __$EHRec$[ebp]
  000ab	8b 45 08	 mov	 eax, DWORD PTR ___$ReturnUdt$[ebp]
  000ae	5f		 pop	 edi
  000af	5e		 pop	 esi
  000b0	5b		 pop	 ebx
  000b1	64 89 0d 00 00
	00 00		 mov	 DWORD PTR fs:__except_list, ecx
  000b8	c9		 leave
  000b9	c2 08 00	 ret	 8
_TEXT	ENDS
;	COMDAT text$x
text$x	SEGMENT
$L118647:
  00000	8d 4d 0c	 lea	 ecx, DWORD PTR ___tmp$[ebp]
  00003	e9 00 00 00 00	 jmp	 ??1locale@_STL@@QAE@XZ	; _STL::locale::~locale
$L118649:
  00008	8d 4d e0	 lea	 ecx, DWORD PTR $T118646[ebp]
  0000b	e9 00 00 00 00	 jmp	 ??1?$basic_string@DV?$char_traits@D@_STL@@V?$allocator@D@2@@_STL@@QAE@XZ ; _STL::basic_string<char,_STL::char_traits<char>,_STL::allocator<char> >::~basic_string<char,_STL::char_traits<char>,_STL::allocator<char> >
$L118650:
  00010	8b 45 ec	 mov	 eax, DWORD PTR $T118651[ebp]
  00013	83 e0 01	 and	 eax, 1
  00016	0f 84 0c 00 00
	00		 je	 $L118652
  0001c	83 65 ec fe	 and	 DWORD PTR $T118651[ebp], -2 ; fffffffeH
  00020	8b 4d 08	 mov	 ecx, DWORD PTR ___$ReturnUdt$[ebp]
  00023	e9 00 00 00 00	 jmp	 ??1locale@_STL@@QAE@XZ	; _STL::locale::~locale
$L118652:
  00028	c3		 ret	 0
__ehhandler$?imbue@?$basic_ios@DV?$char_traits@D@_STL@@@_STL@@QAE?AVlocale@2@ABV32@@Z:
  00029	b8 00 00 00 00	 mov	 eax, OFFSET FLAT:$T118721
  0002e	e9 00 00 00 00	 jmp	 ___CxxFrameHandler
text$x	ENDS
?imbue@?$basic_ios@DV?$char_traits@D@_STL@@@_STL@@QAE?AVlocale@2@ABV32@@Z ENDP ; _STL::basic_ios<char,_STL::char_traits<char> >::imbue
; Function compile flags: /Ogsy
; File c:\stlport-4.6.1\stlport\stl\_numpunct.h
;	COMDAT ?grouping@?$numpunct@D@_STL@@QBE?AV?$basic_string@DV?$char_traits@D@_STL@@V?$allocator@D@2@@2@XZ
_TEXT	SEGMENT
$T118729 = -4						; size = 4
___$ReturnUdt$ = 8					; size = 4
?grouping@?$numpunct@D@_STL@@QBE?AV?$basic_string@DV?$char_traits@D@_STL@@V?$allocator@D@2@@2@XZ PROC NEAR ; _STL::numpunct<char>::grouping, COMDAT
; _this$ = ecx

; 62   :   string grouping() const { return do_grouping(); }

  00000	55		 push	 ebp
  00001	8b ec		 mov	 ebp, esp
  00003	51		 push	 ecx
  00004	ff 75 08	 push	 DWORD PTR ___$ReturnUdt$[ebp]
  00007	8b 01		 mov	 eax, DWORD PTR [ecx]
  00009	83 65 fc 00	 and	 DWORD PTR $T118729[ebp], 0
  0000d	ff 50 0c	 call	 DWORD PTR [eax+12]
  00010	8b 45 08	 mov	 eax, DWORD PTR ___$ReturnUdt$[ebp]
  00013	c9		 leave
  00014	c2 04 00	 ret	 4
?grouping@?$numpunct@D@_STL@@QBE?AV?$basic_string@DV?$char_traits@D@_STL@@V?$allocator@D@2@@2@XZ ENDP ; _STL::numpunct<char>::grouping
_TEXT	ENDS
PUBLIC	??$_M_assign_dispatch@PAD@?$basic_string@DV?$char_traits@D@_STL@@V?$allocator@D@2@@_STL@@AAEAAV01@PAD0ABU__false_type@1@@Z ; _STL::basic_string<char,_STL::char_traits<char>,_STL::allocator<char> >::_M_assign_dispatch<char *>
; Function compile flags: /Ogsy
; File c:\stlport-4.6.1\stlport\stl\_string.h
;	COMDAT ??4?$basic_string@DV?$char_traits@D@_STL@@V?$allocator@D@2@@_STL@@QAEAAV01@ABV01@@Z
_TEXT	SEGMENT
___s$ = 8						; size = 4
$T118759 = 11						; size = 1
??4?$basic_string@DV?$char_traits@D@_STL@@V?$allocator@D@2@@_STL@@QAEAAV01@ABV01@@Z PROC NEAR ; _STL::basic_string<char,_STL::char_traits<char>,_STL::allocator<char> >::operator=, COMDAT
; _this$ = ecx

; 307  :   _Self& operator=(const _Self& __s) {

  00000	55		 push	 ebp
  00001	8b ec		 mov	 ebp, esp
  00003	56		 push	 esi
  00004	8b f1		 mov	 esi, ecx

; 308  :     if (&__s != this) 

  00006	8b 4d 08	 mov	 ecx, DWORD PTR ___s$[ebp]
  00009	3b ce		 cmp	 ecx, esi
  0000b	74 18		 je	 SHORT $L118756
  0000d	57		 push	 edi

; 309  :       assign(__s._M_start, __s._M_finish);

  0000e	33 c0		 xor	 eax, eax
  00010	8d 7d 0b	 lea	 edi, DWORD PTR $T118759[ebp]
  00013	aa		 stosb
  00014	8d 45 0b	 lea	 eax, DWORD PTR $T118759[ebp]
  00017	50		 push	 eax
  00018	ff 71 04	 push	 DWORD PTR [ecx+4]
  0001b	ff 31		 push	 DWORD PTR [ecx]
  0001d	8b ce		 mov	 ecx, esi
  0001f	e8 00 00 00 00	 call	 ??$_M_assign_dispatch@PAD@?$basic_string@DV?$char_traits@D@_STL@@V?$allocator@D@2@@_STL@@AAEAAV01@PAD0ABU__false_type@1@@Z ; _STL::basic_string<char,_STL::char_traits<char>,_STL::allocator<char> >::_M_assign_dispatch<char *>
  00024	5f		 pop	 edi
$L118756:

; 310  :     return *this;

  00025	8b c6		 mov	 eax, esi
  00027	5e		 pop	 esi

; 311  :   }

  00028	5d		 pop	 ebp
  00029	c2 04 00	 ret	 4
??4?$basic_string@DV?$char_traits@D@_STL@@V?$allocator@D@2@@_STL@@QAEAAV01@ABV01@@Z ENDP ; _STL::basic_string<char,_STL::char_traits<char>,_STL::allocator<char> >::operator=
; Function compile flags: /Ogsy
_TEXT	ENDS
;	COMDAT ??$_M_assign_dispatch@PAD@?$basic_string@DV?$char_traits@D@_STL@@V?$allocator@D@2@@_STL@@AAEAAV01@PAD0ABU__false_type@1@@Z
_TEXT	SEGMENT
___f$ = 8						; size = 4
$T118783 = 11						; size = 1
___l$ = 12						; size = 4
___formal$ = 16						; size = 4
??$_M_assign_dispatch@PAD@?$basic_string@DV?$char_traits@D@_STL@@V?$allocator@D@2@@_STL@@AAEAAV01@PAD0ABU__false_type@1@@Z PROC NEAR ; _STL::basic_string<char,_STL::char_traits<char>,_STL::allocator<char> >::_M_assign_dispatch<char *>, COMDAT
; _this$ = ecx

; 624  :   _Self& _M_assign_dispatch(_InputIter __f, _InputIter __l,

  00000	55		 push	 ebp
  00001	8b ec		 mov	 ebp, esp
  00003	56		 push	 esi
  00004	8b f1		 mov	 esi, ecx

; 625  : 			    const __false_type&)  {
; 626  :     pointer __cur = this->_M_start;
; 627  :     while (__f != __l && __cur != this->_M_finish) {

  00006	8b 4d 08	 mov	 ecx, DWORD PTR ___f$[ebp]
  00009	8b 06		 mov	 eax, DWORD PTR [esi]
  0000b	57		 push	 edi
  0000c	8b 7d 0c	 mov	 edi, DWORD PTR ___l$[ebp]
  0000f	3b cf		 cmp	 ecx, edi
  00011	74 13		 je	 SHORT $L118786
$L107414:
  00013	3b 46 04	 cmp	 eax, DWORD PTR [esi+4]
  00016	74 0a		 je	 SHORT $L107415

; 628  :       _Traits::assign(*__cur, *__f);

  00018	8a 11		 mov	 dl, BYTE PTR [ecx]

; 629  :       ++__f;

  0001a	41		 inc	 ecx
  0001b	88 10		 mov	 BYTE PTR [eax], dl

; 630  :       ++__cur;

  0001d	40		 inc	 eax
  0001e	3b cf		 cmp	 ecx, edi
  00020	75 f1		 jne	 SHORT $L107414
$L107415:

; 631  :     }
; 632  :     if (__f == __l)

  00022	3b cf		 cmp	 ecx, edi
  00024	75 0d		 jne	 SHORT $L107416
$L118786:

; 633  :       erase(__cur, end());

  00026	ff 76 04	 push	 DWORD PTR [esi+4]
  00029	8b ce		 mov	 ecx, esi
  0002b	50		 push	 eax
  0002c	e8 00 00 00 00	 call	 ?erase@?$basic_string@DV?$char_traits@D@_STL@@V?$allocator@D@2@@_STL@@QAEPADPAD0@Z ; _STL::basic_string<char,_STL::char_traits<char>,_STL::allocator<char> >::erase

; 634  :     else

  00031	eb 0d		 jmp	 SHORT $L118778
$L107416:

; 635  :       append(__f, __l);

  00033	8d 45 0b	 lea	 eax, DWORD PTR $T118783[ebp]
  00036	50		 push	 eax
  00037	57		 push	 edi
  00038	51		 push	 ecx
  00039	8b ce		 mov	 ecx, esi
  0003b	e8 00 00 00 00	 call	 ??$append@PAD@?$basic_string@DV?$char_traits@D@_STL@@V?$allocator@D@2@@_STL@@AAEAAV01@PAD0ABUforward_iterator_tag@1@@Z ; _STL::basic_string<char,_STL::char_traits<char>,_STL::allocator<char> >::append<char *>
$L118778:
  00040	5f		 pop	 edi

; 636  :     return *this;

  00041	8b c6		 mov	 eax, esi
  00043	5e		 pop	 esi

; 637  :   }

  00044	5d		 pop	 ebp
  00045	c2 0c 00	 ret	 12			; 0000000cH
??$_M_assign_dispatch@PAD@?$basic_string@DV?$char_traits@D@_STL@@V?$allocator@D@2@@_STL@@AAEAAV01@PAD0ABU__false_type@1@@Z ENDP ; _STL::basic_string<char,_STL::char_traits<char>,_STL::allocator<char> >::_M_assign_dispatch<char *>
_TEXT	ENDS
PUBLIC	??_8?$basic_ostream@DV?$char_traits@D@_STL@@@_STL@@7B@ ; _STL::basic_ostream<char,_STL::char_traits<char> >::`vbtable'
;	COMDAT xdata$x
; File c:\stlport-4.6.1\stlport\stl\_ostream.c
xdata$x	SEGMENT
$T118795 DD	0ffffffffH
	DD	FLAT:$L118790
$T118793 DD	019930520H
	DD	01H
	DD	FLAT:$T118795
	DD	2 DUP(00H)
	DD	2 DUP(00H)
xdata$x	ENDS
;	COMDAT ??_8?$basic_ostream@DV?$char_traits@D@_STL@@@_STL@@7B@
CONST	SEGMENT
??_8?$basic_ostream@DV?$char_traits@D@_STL@@@_STL@@7B@ DD 00H ; _STL::basic_ostream<char,_STL::char_traits<char> >::`vbtable'
	DD	04H
; Function compile flags: /Ogsy
CONST	ENDS
;	COMDAT ??0?$basic_ostream@DV?$char_traits@D@_STL@@@_STL@@QAE@PAV?$basic_streambuf@DV?$char_traits@D@_STL@@@1@@Z
_TEXT	SEGMENT
_this$ = -20						; size = 4
$T118789 = -16						; size = 4
__$EHRec$ = -12						; size = 12
___buf$ = 8						; size = 4
_$initVBases$ = 12					; size = 4
??0?$basic_ostream@DV?$char_traits@D@_STL@@@_STL@@QAE@PAV?$basic_streambuf@DV?$char_traits@D@_STL@@@1@@Z PROC NEAR ; _STL::basic_ostream<char,_STL::char_traits<char> >::basic_ostream<char,_STL::char_traits<char> >, COMDAT
; _this$ = ecx

; 58   : {

  00000	b8 00 00 00 00	 mov	 eax, __ehhandler$??0?$basic_ostream@DV?$char_traits@D@_STL@@@_STL@@QAE@PAV?$basic_streambuf@DV?$char_traits@D@_STL@@@1@@Z
  00005	e8 00 00 00 00	 call	 __EH_prolog
  0000a	51		 push	 ecx
  0000b	51		 push	 ecx
  0000c	83 65 f0 00	 and	 DWORD PTR $T118789[ebp], 0
  00010	83 7d 0c 00	 cmp	 DWORD PTR _$initVBases$[ebp], 0
  00014	56		 push	 esi
  00015	8b f1		 mov	 esi, ecx
  00017	89 75 ec	 mov	 DWORD PTR _this$[ebp], esi
  0001a	74 19		 je	 SHORT $L109254
  0001c	8d 4e 04	 lea	 ecx, DWORD PTR [esi+4]
  0001f	c7 06 00 00 00
	00		 mov	 DWORD PTR [esi], OFFSET FLAT:??_8?$basic_ostream@DV?$char_traits@D@_STL@@@_STL@@7B@
  00025	e8 00 00 00 00	 call	 ??0?$basic_ios@DV?$char_traits@D@_STL@@@_STL@@IAE@XZ ; _STL::basic_ios<char,_STL::char_traits<char> >::basic_ios<char,_STL::char_traits<char> >
  0002a	83 65 fc 00	 and	 DWORD PTR __$EHRec$[ebp+8], 0
  0002e	c7 45 f0 01 00
	00 00		 mov	 DWORD PTR $T118789[ebp], 1
$L109254:
  00035	8b 06		 mov	 eax, DWORD PTR [esi]
  00037	8b 40 04	 mov	 eax, DWORD PTR [eax+4]

; 59   :   this->init(__buf);

  0003a	ff 75 08	 push	 DWORD PTR ___buf$[ebp]
  0003d	c7 04 06 00 00
	00 00		 mov	 DWORD PTR [esi+eax], OFFSET FLAT:??_7?$basic_ostream@DV?$char_traits@D@_STL@@@_STL@@6B@
  00044	8b 06		 mov	 eax, DWORD PTR [esi]
  00046	8b 48 04	 mov	 ecx, DWORD PTR [eax+4]
  00049	03 ce		 add	 ecx, esi
  0004b	e8 00 00 00 00	 call	 ?init@?$basic_ios@DV?$char_traits@D@_STL@@@_STL@@IAEXPAV?$basic_streambuf@DV?$char_traits@D@_STL@@@2@@Z ; _STL::basic_ios<char,_STL::char_traits<char> >::init

; 60   : }

  00050	8b 4d f4	 mov	 ecx, DWORD PTR __$EHRec$[ebp]
  00053	8b c6		 mov	 eax, esi
  00055	5e		 pop	 esi
  00056	64 89 0d 00 00
	00 00		 mov	 DWORD PTR fs:__except_list, ecx
  0005d	c9		 leave
  0005e	c2 08 00	 ret	 8
_TEXT	ENDS
;	COMDAT text$x
text$x	SEGMENT
$L118790:
  00000	8b 45 f0	 mov	 eax, DWORD PTR $T118789[ebp]
  00003	83 e0 01	 and	 eax, 1
  00006	0f 84 0f 00 00
	00		 je	 $L118791
  0000c	83 65 f0 fe	 and	 DWORD PTR $T118789[ebp], -2 ; fffffffeH
  00010	8b 4d ec	 mov	 ecx, DWORD PTR _this$[ebp]
  00013	83 c1 04	 add	 ecx, 4
  00016	e9 00 00 00 00	 jmp	 ??1?$basic_ios@DV?$char_traits@D@_STL@@@_STL@@UAE@XZ ; _STL::basic_ios<char,_STL::char_traits<char> >::~basic_ios<char,_STL::char_traits<char> >
$L118791:
  0001b	c3		 ret	 0
__ehhandler$??0?$basic_ostream@DV?$char_traits@D@_STL@@@_STL@@QAE@PAV?$basic_streambuf@DV?$char_traits@D@_STL@@@1@@Z:
  0001c	b8 00 00 00 00	 mov	 eax, OFFSET FLAT:$T118793
  00021	e9 00 00 00 00	 jmp	 ___CxxFrameHandler
text$x	ENDS
??0?$basic_ostream@DV?$char_traits@D@_STL@@@_STL@@QAE@PAV?$basic_streambuf@DV?$char_traits@D@_STL@@@1@@Z ENDP ; _STL::basic_ostream<char,_STL::char_traits<char> >::basic_ostream<char,_STL::char_traits<char> >
END
