; Listing generated by Microsoft (R) Optimizing Compiler Version 13.10.3077 

	TITLE	\darkeden\Designed_Common\Project\Client\MHelpMessageManager.cpp
	.386P
include listing.inc
if @Version gt 510
.model FLAT
else
_TEXT	SEGMENT PARA USE32 PUBLIC 'CODE'
_TEXT	ENDS
_DATA	SEGMENT DWORD USE32 PUBLIC 'DATA'
_DATA	ENDS
CONST	SEGMENT DWORD USE32 PUBLIC 'CONST'
CONST	ENDS
_BSS	SEGMENT DWORD USE32 PUBLIC 'BSS'
_BSS	ENDS
$$SYMBOLS	SEGMENT BYTE USE32 'DEBSYM'
$$SYMBOLS	ENDS
$$TYPES	SEGMENT BYTE USE32 'DEBTYP'
$$TYPES	ENDS
_TLS	SEGMENT DWORD USE32 PUBLIC 'TLS'
_TLS	ENDS
;	COMDAT ??_C@_0BN@ODLNCKCA@Data?2?2Info?2?2ClientConfig?4inf?$AA@
CONST	SEGMENT DWORD USE32 PUBLIC 'CONST'
CONST	ENDS
;	COMDAT ??_C@_0BM@DFPLPGPC@Data?2?2Info?2?2GuildMapper?4inf?$AA@
CONST	SEGMENT DWORD USE32 PUBLIC 'CONST'
CONST	ENDS
;	COMDAT ??_C@_0BN@LHODHNBK@Data?2?2Info?2?2GuildVersion?4inf?$AA@
CONST	SEGMENT DWORD USE32 PUBLIC 'CONST'
CONST	ENDS
;	COMDAT ??_C@_0BH@DDPLNCOL@Data?2?2Info?2?2Player?4inf?$AA@
CONST	SEGMENT DWORD USE32 PUBLIC 'CONST'
CONST	ENDS
;	COMDAT ??_C@_0BL@ILLNAPHB@Data?2?2Info?2?2Resolution?4inf?$AA@
CONST	SEGMENT DWORD USE32 PUBLIC 'CONST'
CONST	ENDS
;	COMDAT ??_C@_0CA@HEIGFDLG@Data?2?2Info?2?2SelectedChannel?4inf?$AA@
CONST	SEGMENT DWORD USE32 PUBLIC 'CONST'
CONST	ENDS
;	COMDAT ??_C@_00CNPNBAHC@?$AA@
CONST	SEGMENT DWORD USE32 PUBLIC 'CONST'
CONST	ENDS
;	COMDAT ??_C@_0BA@PGCJMGIO@helpmessage?4txt?$AA@
CONST	SEGMENT DWORD USE32 PUBLIC 'CONST'
CONST	ENDS
;	COMDAT ??_C@_08NEOEAKGJ@cjdgorkr?$AA@
CONST	SEGMENT DWORD USE32 PUBLIC 'CONST'
CONST	ENDS
;	COMDAT ??_C@_0BF@DNGHBMEC@data?2ui?2txt?2Help?4rpk?$AA@
CONST	SEGMENT DWORD USE32 PUBLIC 'CONST'
CONST	ENDS
;	COMDAT ??_C@_02PCIJFNDE@?$AN?6?$AA@
CONST	SEGMENT DWORD USE32 PUBLIC 'CONST'
CONST	ENDS
;	COMDAT ??_C@_05LBHNJABA@?$HLEnd?$HN?$AA@
CONST	SEGMENT DWORD USE32 PUBLIC 'CONST'
CONST	ENDS
;	COMDAT ??_C@_0BA@IAEKBLB@?$FL?$DN?$DN?$DNKeyWord?$DN?$DN?$DN?$FN?$AA@
CONST	SEGMENT DWORD USE32 PUBLIC 'CONST'
CONST	ENDS
;	COMDAT ??_C@_0BE@NEEEHCCL@?$FL?$DN?$DN?$DNMessageType?$DN?$DN?$DN?$FN?$AA@
CONST	SEGMENT DWORD USE32 PUBLIC 'CONST'
CONST	ENDS
;	COMDAT ??_C@_0O@DPBHGDHC@?$FL?$DN?$DN?$DNEvent?$DN?$DN?$DN?$FN?$AA@
CONST	SEGMENT DWORD USE32 PUBLIC 'CONST'
CONST	ENDS
;	COMDAT ??_C@_0M@EAAONFGJ@?$FL?$DN?$DNTitle?$DN?$DN?$FN?$AA@
CONST	SEGMENT DWORD USE32 PUBLIC 'CONST'
CONST	ENDS
;	COMDAT ??_C@_0N@HDDDHLGB@?$FL?$DN?$DNSender?$DN?$DN?$FN?$AA@
CONST	SEGMENT DWORD USE32 PUBLIC 'CONST'
CONST	ENDS
;	COMDAT ??_C@_0BD@MOJKFIBE@?$FL?$DN?$DNLevel?5?A?$LG?$LA?G?G?$KF?$DN?$DN?$FN?$AA@
CONST	SEGMENT DWORD USE32 PUBLIC 'CONST'
CONST	ENDS
;	COMDAT ??_C@_0N@KBBAAKCM@?$FL?$DN?$DNDetail?$DN?$DN?$FN?$AA@
CONST	SEGMENT DWORD USE32 PUBLIC 'CONST'
CONST	ENDS
;	COMDAT ??_C@_0P@FPBOHGPP@?$FL?$DN?$DN?$DNSender?$DN?$DN?$DN?$FN?$AA@
CONST	SEGMENT DWORD USE32 PUBLIC 'CONST'
CONST	ENDS
;	COMDAT ??_C@_04PFOHOKJK@?5?5?5?5?$AA@
CONST	SEGMENT DWORD USE32 PUBLIC 'CONST'
CONST	ENDS
;	COMDAT ??_C@_0P@EPANAODN@?7?$FL?$DN?$DN?$DNEvent?$DN?$DN?$DN?$FN?$AA@
CONST	SEGMENT DWORD USE32 PUBLIC 'CONST'
CONST	ENDS
;	COMDAT ??_C@_03OHKANCL@?7?5?5?$AA@
CONST	SEGMENT DWORD USE32 PUBLIC 'CONST'
CONST	ENDS
;	COMDAT ??_C@_0O@DKGHPKIO@?7?7?$CDSLAYERPAGE?$AA@
CONST	SEGMENT DWORD USE32 PUBLIC 'CONST'
CONST	ENDS
;	COMDAT ??_C@_0P@BNEHKNLI@?7?7?$CDVAMPIREPAGE?$AA@
CONST	SEGMENT DWORD USE32 PUBLIC 'CONST'
CONST	ENDS
;	COMDAT ??_C@_0BA@DONKIENF@?7?7?$CDOUTSTERSPAGE?$AA@
CONST	SEGMENT DWORD USE32 PUBLIC 'CONST'
CONST	ENDS
;	COMDAT ??_C@_0O@MDKDJPGJ@?7?7?$FL?$DN?$DNTitle?$DN?$DN?$FN?$AA@
CONST	SEGMENT DWORD USE32 PUBLIC 'CONST'
CONST	ENDS
;	COMDAT ??_C@_05GJNJKAJJ@?7?7?5?5?5?$AA@
CONST	SEGMENT DWORD USE32 PUBLIC 'CONST'
CONST	ENDS
;	COMDAT ??_C@_0P@HDLANGCL@?7?7?$FL?$DN?$DNSender?$DN?$DN?$FN?$AA@
CONST	SEGMENT DWORD USE32 PUBLIC 'CONST'
CONST	ENDS
;	COMDAT ??_C@_0BF@BHACDDOM@?7?7?$FL?$DN?$DNLevel?5?A?$LG?$LA?G?G?$KF?$DN?$DN?$FN?$AA@
CONST	SEGMENT DWORD USE32 PUBLIC 'CONST'
CONST	ENDS
;	COMDAT ??_C@_0P@KBJDKHGG@?7?7?$FL?$DN?$DNDetail?$DN?$DN?$FN?$AA@
CONST	SEGMENT DWORD USE32 PUBLIC 'CONST'
CONST	ENDS
;	COMDAT ??_C@_0N@GOPDCEEB@basic_string?$AA@
CONST	SEGMENT DWORD USE32 PUBLIC 'CONST'
CONST	ENDS
rdata$r	SEGMENT DWORD USE32 PUBLIC 'CONST'
rdata$r	ENDS
text$yc	SEGMENT PARA USE32 PUBLIC 'CODE'
text$yc	ENDS
CRT$XCA	SEGMENT DWORD USE32 PUBLIC 'DATA'
CRT$XCA	ENDS
CRT$XCU	SEGMENT DWORD USE32 PUBLIC 'DATA'
CRT$XCU	ENDS
CRT$XCL	SEGMENT DWORD USE32 PUBLIC 'DATA'
CRT$XCL	ENDS
CRT$XCC	SEGMENT DWORD USE32 PUBLIC 'DATA'
CRT$XCC	ENDS
CRT$XCZ	SEGMENT DWORD USE32 PUBLIC 'DATA'
CRT$XCZ	ENDS
text$yd	SEGMENT PARA USE32 PUBLIC 'CODE'
text$yd	ENDS
;	COMDAT ?start@CNFS@@QAE_NPADH@Z
_TEXT	SEGMENT PARA USE32 PUBLIC 'CODE'
_TEXT	ENDS
;	COMDAT ?end@CNFS@@QAEXXZ
_TEXT	SEGMENT PARA USE32 PUBLIC 'CODE'
_TEXT	ENDS
;	COMDAT ?Init@VirtualFileHeader@@QAEXXZ
_TEXT	SEGMENT PARA USE32 PUBLIC 'CODE'
_TEXT	ENDS
;	COMDAT ??1IFileIO@@UAE@XZ
_TEXT	SEGMENT PARA USE32 PUBLIC 'CODE'
_TEXT	ENDS
;	COMDAT ??_GIFileIO@@UAEPAXI@Z
_TEXT	SEGMENT PARA USE32 PUBLIC 'CODE'
_TEXT	ENDS
;	COMDAT ??0iovfs_base@@QAE@XZ
_TEXT	SEGMENT PARA USE32 PUBLIC 'CODE'
_TEXT	ENDS
;	COMDAT ??_Giovfs_base@@UAEPAXI@Z
_TEXT	SEGMENT PARA USE32 PUBLIC 'CODE'
_TEXT	ENDS
;	COMDAT ??1iovfs_base@@UAE@XZ
_TEXT	SEGMENT PARA USE32 PUBLIC 'CODE'
_TEXT	ENDS
;	COMDAT ?Init@iovfs_base@@QAEXXZ
_TEXT	SEGMENT PARA USE32 PUBLIC 'CODE'
_TEXT	ENDS
;	COMDAT ?is_open@iovfs_base@@QBE_NXZ
_TEXT	SEGMENT PARA USE32 PUBLIC 'CODE'
_TEXT	ENDS
;	COMDAT ??_Givfstream@@UAEPAXI@Z
_TEXT	SEGMENT PARA USE32 PUBLIC 'CODE'
_TEXT	ENDS
;	COMDAT ??0ivfstream@@QAE@PBDH@Z
_TEXT	SEGMENT PARA USE32 PUBLIC 'CODE'
_TEXT	ENDS
;	COMDAT ??1ivfstream@@UAE@XZ
_TEXT	SEGMENT PARA USE32 PUBLIC 'CODE'
_TEXT	ENDS
;	COMDAT ?open@ivfstream@@UAEXPBDH@Z
_TEXT	SEGMENT PARA USE32 PUBLIC 'CODE'
_TEXT	ENDS
;	COMDAT ?getline@ivfstream@@QAEPAXPADHD@Z
_TEXT	SEGMENT PARA USE32 PUBLIC 'CODE'
_TEXT	ENDS
;	COMDAT ??_Govfstream@@UAEPAXI@Z
_TEXT	SEGMENT PARA USE32 PUBLIC 'CODE'
_TEXT	ENDS
;	COMDAT ??1ovfstream@@UAE@XZ
_TEXT	SEGMENT PARA USE32 PUBLIC 'CODE'
_TEXT	ENDS
;	COMDAT ?open@ovfstream@@UAEXPBDH@Z
_TEXT	SEGMENT PARA USE32 PUBLIC 'CODE'
_TEXT	ENDS
;	COMDAT ?GetLength@MString@@QBEIXZ
_TEXT	SEGMENT PARA USE32 PUBLIC 'CODE'
_TEXT	ENDS
;	COMDAT ??BMString@@QBEPBDXZ
_TEXT	SEGMENT PARA USE32 PUBLIC 'CODE'
_TEXT	ENDS
;	COMDAT ?IsSet@CRarFile@@QAE_NXZ
_TEXT	SEGMENT PARA USE32 PUBLIC 'CODE'
_TEXT	ENDS
;	COMDAT ?getSender@MHelpMessageManager@@QBEABVMString@@H@Z
_TEXT	SEGMENT PARA USE32 PUBLIC 'CODE'
_TEXT	ENDS
;	COMDAT ?addSender@MHelpMessageManager@@QAEXAAVMString@@@Z
_TEXT	SEGMENT PARA USE32 PUBLIC 'CODE'
_TEXT	ENDS
;	COMDAT ?getMessage@MHelpMessageManager@@QBEABVMHelpMessage@@H@Z
_TEXT	SEGMENT PARA USE32 PUBLIC 'CODE'
_TEXT	ENDS
;	COMDAT ?addMessage@MHelpMessageManager@@QAEXAAVMHelpMessage@@@Z
_TEXT	SEGMENT PARA USE32 PUBLIC 'CODE'
_TEXT	ENDS
;	COMDAT ?getMessageSize@MHelpMessageManager@@QBEIXZ
_TEXT	SEGMENT PARA USE32 PUBLIC 'CODE'
_TEXT	ENDS
;	COMDAT ?theInstance@?1??Instance@MHelpMessageManager@@SAAAV1@XZ@$AV1@A
text$yd	SEGMENT PARA USE32 PUBLIC 'CODE'
text$yd	ENDS
;	COMDAT ??4MHelpMessage@@QAEAAV0@ABV0@@Z
_TEXT	SEGMENT PARA USE32 PUBLIC 'CODE'
_TEXT	ENDS
;	COMDAT ??0MHelpMessage@@QAE@XZ
_TEXT	SEGMENT PARA USE32 PUBLIC 'CODE'
_TEXT	ENDS
;	COMDAT ??_GMHelpMessage@@UAEPAXI@Z
_TEXT	SEGMENT PARA USE32 PUBLIC 'CODE'
_TEXT	ENDS
;	COMDAT ??1MHelpMessage@@UAE@XZ
_TEXT	SEGMENT PARA USE32 PUBLIC 'CODE'
_TEXT	ENDS
;	COMDAT ??0MHelpMessageManager@@AAE@XZ
_TEXT	SEGMENT PARA USE32 PUBLIC 'CODE'
_TEXT	ENDS
;	COMDAT ??_GMHelpMessageManager@@UAEPAXI@Z
_TEXT	SEGMENT PARA USE32 PUBLIC 'CODE'
_TEXT	ENDS
;	COMDAT ??1MHelpMessageManager@@UAE@XZ
_TEXT	SEGMENT PARA USE32 PUBLIC 'CODE'
_TEXT	ENDS
;	COMDAT ?LoadFromFile@MHelpMessageManager@@QAEXPBD@Z
_TEXT	SEGMENT PARA USE32 PUBLIC 'CODE'
_TEXT	ENDS
;	COMDAT ?SaveToFile@MHelpMessageManager@@QAEXPBD@Z
_TEXT	SEGMENT PARA USE32 PUBLIC 'CODE'
_TEXT	ENDS
;	COMDAT ??_D?$basic_ofstream@DV?$char_traits@D@_STL@@@_STL@@QAEXXZ
_TEXT	SEGMENT PARA USE32 PUBLIC 'CODE'
_TEXT	ENDS
;	COMDAT ?LoadHelpMessageRpk@MHelpMessageManager@@QAE_NPBD@Z
_TEXT	SEGMENT PARA USE32 PUBLIC 'CODE'
_TEXT	ENDS
;	COMDAT ?LoadFromFile@MHelpMessageManager@@QAEXAAVivfstream@@@Z
_TEXT	SEGMENT PARA USE32 PUBLIC 'CODE'
_TEXT	ENDS
;	COMDAT ?SaveToFile@MHelpMessageManager@@QAEXAAV?$basic_ofstream@DV?$char_traits@D@_STL@@@_STL@@@Z
_TEXT	SEGMENT PARA USE32 PUBLIC 'CODE'
_TEXT	ENDS
;	COMDAT ?eq@?$__char_traits_base@DH@_STL@@SA_NABD0@Z
_TEXT	SEGMENT PARA USE32 PUBLIC 'CODE'
_TEXT	ENDS
;	COMDAT ?not_eof@?$__char_traits_base@DH@_STL@@SAHABH@Z
_TEXT	SEGMENT PARA USE32 PUBLIC 'CODE'
_TEXT	ENDS
;	COMDAT ?eq_int_type@?$__char_traits_base@DH@_STL@@SA_NABH0@Z
_TEXT	SEGMENT PARA USE32 PUBLIC 'CODE'
_TEXT	ENDS
;	COMDAT ?get_allocator@?$basic_string@DV?$char_traits@D@_STL@@V?$allocator@D@2@@_STL@@QBE?AV?$allocator@D@2@XZ
_TEXT	SEGMENT PARA USE32 PUBLIC 'CODE'
_TEXT	ENDS
;	COMDAT ??4?$basic_string@DV?$char_traits@D@_STL@@V?$allocator@D@2@@_STL@@QAEAAV01@PBD@Z
_TEXT	SEGMENT PARA USE32 PUBLIC 'CODE'
_TEXT	ENDS
;	COMDAT ?_M_terminate_string@?$basic_string@DV?$char_traits@D@_STL@@V?$allocator@D@2@@_STL@@AAEXXZ
_TEXT	SEGMENT PARA USE32 PUBLIC 'CODE'
_TEXT	ENDS
;	COMDAT ?begin@?$basic_string@DV?$char_traits@D@_STL@@V?$allocator@D@2@@_STL@@QAEPADXZ
_TEXT	SEGMENT PARA USE32 PUBLIC 'CODE'
_TEXT	ENDS
;	COMDAT ?end@?$basic_string@DV?$char_traits@D@_STL@@V?$allocator@D@2@@_STL@@QAEPADXZ
_TEXT	SEGMENT PARA USE32 PUBLIC 'CODE'
_TEXT	ENDS
;	COMDAT ?rbegin@?$basic_string@DV?$char_traits@D@_STL@@V?$allocator@D@2@@_STL@@QAE?AV?$reverse_iterator@PAD@2@XZ
_TEXT	SEGMENT PARA USE32 PUBLIC 'CODE'
_TEXT	ENDS
;	COMDAT ?rend@?$basic_string@DV?$char_traits@D@_STL@@V?$allocator@D@2@@_STL@@QAE?AV?$reverse_iterator@PAD@2@XZ
_TEXT	SEGMENT PARA USE32 PUBLIC 'CODE'
_TEXT	ENDS
;	COMDAT ?length@?$basic_string@DV?$char_traits@D@_STL@@V?$allocator@D@2@@_STL@@QBEIXZ
_TEXT	SEGMENT PARA USE32 PUBLIC 'CODE'
_TEXT	ENDS
;	COMDAT ??Y?$basic_string@DV?$char_traits@D@_STL@@V?$allocator@D@2@@_STL@@QAEAAV01@PBD@Z
_TEXT	SEGMENT PARA USE32 PUBLIC 'CODE'
_TEXT	ENDS
;	COMDAT ?erase@?$basic_string@DV?$char_traits@D@_STL@@V?$allocator@D@2@@_STL@@QAEAAV12@II@Z
_TEXT	SEGMENT PARA USE32 PUBLIC 'CODE'
_TEXT	ENDS
;	COMDAT ?replace@?$basic_string@DV?$char_traits@D@_STL@@V?$allocator@D@2@@_STL@@QAEAAV12@PAD0PBD@Z
_TEXT	SEGMENT PARA USE32 PUBLIC 'CODE'
_TEXT	ENDS
;	COMDAT ?c_str@?$basic_string@DV?$char_traits@D@_STL@@V?$allocator@D@2@@_STL@@QBEPBDXZ
_TEXT	SEGMENT PARA USE32 PUBLIC 'CODE'
_TEXT	ENDS
;	COMDAT ??0?$_String_base@DV?$allocator@D@_STL@@@_STL@@QAE@ABV?$allocator@D@1@@Z
_TEXT	SEGMENT PARA USE32 PUBLIC 'CODE'
_TEXT	ENDS
;	COMDAT ?allocate@?$allocator@D@_STL@@QAEPADIPBX@Z
_TEXT	SEGMENT PARA USE32 PUBLIC 'CODE'
_TEXT	ENDS
;	COMDAT ??0?$fpos@H@_STL@@QAE@J@Z
_TEXT	SEGMENT PARA USE32 PUBLIC 'CODE'
_TEXT	ENDS
;	COMDAT ??B?$fpos@H@_STL@@QBEJXZ
_TEXT	SEGMENT PARA USE32 PUBLIC 'CODE'
_TEXT	ENDS
;	COMDAT ?state@?$fpos@H@_STL@@QBEHXZ
_TEXT	SEGMENT PARA USE32 PUBLIC 'CODE'
_TEXT	ENDS
;	COMDAT ??6?$basic_ostream@DV?$char_traits@D@_STL@@@_STL@@QAEAAV01@H@Z
_TEXT	SEGMENT PARA USE32 PUBLIC 'CODE'
_TEXT	ENDS
;	COMDAT ?is_open@?$basic_filebuf@DV?$char_traits@D@_STL@@@_STL@@QBE_NXZ
_TEXT	SEGMENT PARA USE32 PUBLIC 'CODE'
_TEXT	ENDS
;	COMDAT ?_M_seek_return@?$basic_filebuf@DV?$char_traits@D@_STL@@@_STL@@AAE?AV?$fpos@H@2@JH@Z
_TEXT	SEGMENT PARA USE32 PUBLIC 'CODE'
_TEXT	ENDS
;	COMDAT ??0?$_Filebuf_Tmp_Buf@D@_STL@@QAE@H@Z
_TEXT	SEGMENT PARA USE32 PUBLIC 'CODE'
_TEXT	ENDS
;	COMDAT ??1?$_Filebuf_Tmp_Buf@D@_STL@@QAE@XZ
_TEXT	SEGMENT PARA USE32 PUBLIC 'CODE'
_TEXT	ENDS
;	COMDAT ?size@?$vector@VMHelpMessage@@V?$allocator@VMHelpMessage@@@_STL@@@_STL@@QBEIXZ
_TEXT	SEGMENT PARA USE32 PUBLIC 'CODE'
_TEXT	ENDS
;	COMDAT ??A?$vector@VMHelpMessage@@V?$allocator@VMHelpMessage@@@_STL@@@_STL@@QAEAAVMHelpMessage@@I@Z
_TEXT	SEGMENT PARA USE32 PUBLIC 'CODE'
_TEXT	ENDS
;	COMDAT ??A?$vector@VMHelpMessage@@V?$allocator@VMHelpMessage@@@_STL@@@_STL@@QBEABVMHelpMessage@@I@Z
_TEXT	SEGMENT PARA USE32 PUBLIC 'CODE'
_TEXT	ENDS
;	COMDAT ??0?$vector@VMHelpMessage@@V?$allocator@VMHelpMessage@@@_STL@@@_STL@@QAE@ABV?$allocator@VMHelpMessage@@@1@@Z
_TEXT	SEGMENT PARA USE32 PUBLIC 'CODE'
_TEXT	ENDS
;	COMDAT ??1?$vector@VMHelpMessage@@V?$allocator@VMHelpMessage@@@_STL@@@_STL@@QAE@XZ
_TEXT	SEGMENT PARA USE32 PUBLIC 'CODE'
_TEXT	ENDS
;	COMDAT ?push_back@?$vector@VMHelpMessage@@V?$allocator@VMHelpMessage@@@_STL@@@_STL@@QAEXABVMHelpMessage@@@Z
_TEXT	SEGMENT PARA USE32 PUBLIC 'CODE'
_TEXT	ENDS
;	COMDAT ?erase@?$vector@VMHelpMessage@@V?$allocator@VMHelpMessage@@@_STL@@@_STL@@QAEPAVMHelpMessage@@PAV3@@Z
_TEXT	SEGMENT PARA USE32 PUBLIC 'CODE'
_TEXT	ENDS
;	COMDAT ??0?$allocator@VMHelpMessage@@@_STL@@QAE@XZ
_TEXT	SEGMENT PARA USE32 PUBLIC 'CODE'
_TEXT	ENDS
;	COMDAT ??1?$allocator@VMHelpMessage@@@_STL@@QAE@XZ
_TEXT	SEGMENT PARA USE32 PUBLIC 'CODE'
_TEXT	ENDS
;	COMDAT ?size@?$vector@VMString@@V?$allocator@VMString@@@_STL@@@_STL@@QBEIXZ
_TEXT	SEGMENT PARA USE32 PUBLIC 'CODE'
_TEXT	ENDS
;	COMDAT ??A?$vector@VMString@@V?$allocator@VMString@@@_STL@@@_STL@@QAEAAVMString@@I@Z
_TEXT	SEGMENT PARA USE32 PUBLIC 'CODE'
_TEXT	ENDS
;	COMDAT ??A?$vector@VMString@@V?$allocator@VMString@@@_STL@@@_STL@@QBEABVMString@@I@Z
_TEXT	SEGMENT PARA USE32 PUBLIC 'CODE'
_TEXT	ENDS
;	COMDAT ??0?$vector@VMString@@V?$allocator@VMString@@@_STL@@@_STL@@QAE@ABV?$allocator@VMString@@@1@@Z
_TEXT	SEGMENT PARA USE32 PUBLIC 'CODE'
_TEXT	ENDS
;	COMDAT ??1?$vector@VMString@@V?$allocator@VMString@@@_STL@@@_STL@@QAE@XZ
_TEXT	SEGMENT PARA USE32 PUBLIC 'CODE'
_TEXT	ENDS
;	COMDAT ?push_back@?$vector@VMString@@V?$allocator@VMString@@@_STL@@@_STL@@QAEXABVMString@@@Z
_TEXT	SEGMENT PARA USE32 PUBLIC 'CODE'
_TEXT	ENDS
;	COMDAT ?erase@?$vector@VMString@@V?$allocator@VMString@@@_STL@@@_STL@@QAEPAVMString@@PAV3@@Z
_TEXT	SEGMENT PARA USE32 PUBLIC 'CODE'
_TEXT	ENDS
;	COMDAT ??0?$allocator@VMString@@@_STL@@QAE@XZ
_TEXT	SEGMENT PARA USE32 PUBLIC 'CODE'
_TEXT	ENDS
;	COMDAT ??1?$allocator@VMString@@@_STL@@QAE@XZ
_TEXT	SEGMENT PARA USE32 PUBLIC 'CODE'
_TEXT	ENDS
;	COMDAT ??0?$basic_ofstream@DV?$char_traits@D@_STL@@@_STL@@QAE@PBDH@Z
_TEXT	SEGMENT PARA USE32 PUBLIC 'CODE'
_TEXT	ENDS
;	COMDAT ??1?$basic_ofstream@DV?$char_traits@D@_STL@@@_STL@@UAE@XZ
_TEXT	SEGMENT PARA USE32 PUBLIC 'CODE'
_TEXT	ENDS
;	COMDAT ?close@?$basic_ofstream@DV?$char_traits@D@_STL@@@_STL@@QAEXXZ
_TEXT	SEGMENT PARA USE32 PUBLIC 'CODE'
_TEXT	ENDS
;	COMDAT ??D?$reverse_iterator@PAD@_STL@@QBEAADXZ
_TEXT	SEGMENT PARA USE32 PUBLIC 'CODE'
_TEXT	ENDS
;	COMDAT ??E?$reverse_iterator@PAD@_STL@@QAE?AV01@H@Z
_TEXT	SEGMENT PARA USE32 PUBLIC 'CODE'
_TEXT	ENDS
;	COMDAT ??_G?$basic_ofstream@DV?$char_traits@D@_STL@@@_STL@@UAEPAXI@Z
_TEXT	SEGMENT PARA USE32 PUBLIC 'CODE'
_TEXT	ENDS
;	COMDAT ?_M_terminate_string_aux@?$basic_string@DV?$char_traits@D@_STL@@V?$allocator@D@2@@_STL@@AAEXABU__true_type@2@@Z
_TEXT	SEGMENT PARA USE32 PUBLIC 'CODE'
_TEXT	ENDS
;	COMDAT ?size@?$basic_string@DV?$char_traits@D@_STL@@V?$allocator@D@2@@_STL@@QBEIXZ
_TEXT	SEGMENT PARA USE32 PUBLIC 'CODE'
_TEXT	ENDS
;	COMDAT ?append@?$basic_string@DV?$char_traits@D@_STL@@V?$allocator@D@2@@_STL@@QAEAAV12@PBD@Z
_TEXT	SEGMENT PARA USE32 PUBLIC 'CODE'
_TEXT	ENDS
;	COMDAT ?assign@?$basic_string@DV?$char_traits@D@_STL@@V?$allocator@D@2@@_STL@@QAEAAV12@PBD0@Z
_TEXT	SEGMENT PARA USE32 PUBLIC 'CODE'
_TEXT	ENDS
;	COMDAT ?erase@?$basic_string@DV?$char_traits@D@_STL@@V?$allocator@D@2@@_STL@@QAEPADPAD0@Z
_TEXT	SEGMENT PARA USE32 PUBLIC 'CODE'
_TEXT	ENDS
;	COMDAT ??0?$allocator@D@_STL@@QAE@ABV01@@Z
_TEXT	SEGMENT PARA USE32 PUBLIC 'CODE'
_TEXT	ENDS
;	COMDAT ??0?$_STLP_alloc_proxy@PADDV?$allocator@D@_STL@@@_STL@@QAE@ABV?$allocator@D@1@PAD@Z
_TEXT	SEGMENT PARA USE32 PUBLIC 'CODE'
_TEXT	ENDS
;	COMDAT ?state@?$fpos@H@_STL@@QAEXH@Z
_TEXT	SEGMENT PARA USE32 PUBLIC 'CODE'
_TEXT	ENDS
;	COMDAT ?setstate@?$basic_ios@DV?$char_traits@D@_STL@@@_STL@@QAEXH@Z
_TEXT	SEGMENT PARA USE32 PUBLIC 'CODE'
_TEXT	ENDS
;	COMDAT ?open@?$basic_filebuf@DV?$char_traits@D@_STL@@@_STL@@QAEPAV12@PBDH@Z
_TEXT	SEGMENT PARA USE32 PUBLIC 'CODE'
_TEXT	ENDS
;	COMDAT ?_M_insert_overflow@?$vector@VMHelpMessage@@V?$allocator@VMHelpMessage@@@_STL@@@_STL@@IAEXPAVMHelpMessage@@ABV3@ABU__false_type@2@I_N@Z
_TEXT	SEGMENT PARA USE32 PUBLIC 'CODE'
_TEXT	ENDS
;	COMDAT ?begin@?$vector@VMHelpMessage@@V?$allocator@VMHelpMessage@@@_STL@@@_STL@@QAEPAVMHelpMessage@@XZ
_TEXT	SEGMENT PARA USE32 PUBLIC 'CODE'
_TEXT	ENDS
;	COMDAT ?begin@?$vector@VMHelpMessage@@V?$allocator@VMHelpMessage@@@_STL@@@_STL@@QBEPBVMHelpMessage@@XZ
_TEXT	SEGMENT PARA USE32 PUBLIC 'CODE'
_TEXT	ENDS
;	COMDAT ?end@?$vector@VMHelpMessage@@V?$allocator@VMHelpMessage@@@_STL@@@_STL@@QAEPAVMHelpMessage@@XZ
_TEXT	SEGMENT PARA USE32 PUBLIC 'CODE'
_TEXT	ENDS
;	COMDAT ??0?$_Vector_base@VMHelpMessage@@V?$allocator@VMHelpMessage@@@_STL@@@_STL@@QAE@ABV?$allocator@VMHelpMessage@@@1@@Z
_TEXT	SEGMENT PARA USE32 PUBLIC 'CODE'
_TEXT	ENDS
;	COMDAT ??1?$_Vector_base@VMHelpMessage@@V?$allocator@VMHelpMessage@@@_STL@@@_STL@@QAE@XZ
_TEXT	SEGMENT PARA USE32 PUBLIC 'CODE'
_TEXT	ENDS
;	COMDAT ?_M_insert_overflow@?$vector@VMString@@V?$allocator@VMString@@@_STL@@@_STL@@IAEXPAVMString@@ABV3@ABU__false_type@2@I_N@Z
_TEXT	SEGMENT PARA USE32 PUBLIC 'CODE'
_TEXT	ENDS
;	COMDAT ?begin@?$vector@VMString@@V?$allocator@VMString@@@_STL@@@_STL@@QAEPAVMString@@XZ
_TEXT	SEGMENT PARA USE32 PUBLIC 'CODE'
_TEXT	ENDS
;	COMDAT ?begin@?$vector@VMString@@V?$allocator@VMString@@@_STL@@@_STL@@QBEPBVMString@@XZ
_TEXT	SEGMENT PARA USE32 PUBLIC 'CODE'
_TEXT	ENDS
;	COMDAT ?end@?$vector@VMString@@V?$allocator@VMString@@@_STL@@@_STL@@QAEPAVMString@@XZ
_TEXT	SEGMENT PARA USE32 PUBLIC 'CODE'
_TEXT	ENDS
;	COMDAT ??0?$_Vector_base@VMString@@V?$allocator@VMString@@@_STL@@@_STL@@QAE@ABV?$allocator@VMString@@@1@@Z
_TEXT	SEGMENT PARA USE32 PUBLIC 'CODE'
_TEXT	ENDS
;	COMDAT ??1?$_Vector_base@VMString@@V?$allocator@VMString@@@_STL@@@_STL@@QAE@XZ
_TEXT	SEGMENT PARA USE32 PUBLIC 'CODE'
_TEXT	ENDS
;	COMDAT ?rdbuf@?$basic_ofstream@DV?$char_traits@D@_STL@@@_STL@@QBEPAV?$basic_filebuf@DV?$char_traits@D@_STL@@@2@XZ
_TEXT	SEGMENT PARA USE32 PUBLIC 'CODE'
_TEXT	ENDS
;	COMDAT ??0?$reverse_iterator@PAD@_STL@@QAE@PAD@Z
_TEXT	SEGMENT PARA USE32 PUBLIC 'CODE'
_TEXT	ENDS
;	COMDAT ??0?$reverse_iterator@PAD@_STL@@QAE@ABV01@@Z
_TEXT	SEGMENT PARA USE32 PUBLIC 'CODE'
_TEXT	ENDS
;	COMDAT ??1?$_STLP_alloc_proxy@PAVMHelpMessage@@V1@V?$allocator@VMHelpMessage@@@_STL@@@_STL@@QAE@XZ
_TEXT	SEGMENT PARA USE32 PUBLIC 'CODE'
_TEXT	ENDS
;	COMDAT ??1?$_STLP_alloc_proxy@PAVMString@@V1@V?$allocator@VMString@@@_STL@@@_STL@@QAE@XZ
_TEXT	SEGMENT PARA USE32 PUBLIC 'CODE'
_TEXT	ENDS
;	COMDAT ?move@?$__char_traits_base@DH@_STL@@SAPADPADPBDI@Z
_TEXT	SEGMENT PARA USE32 PUBLIC 'CODE'
_TEXT	ENDS
;	COMDAT ?copy@?$__char_traits_base@DH@_STL@@SAPADPADPBDI@Z
_TEXT	SEGMENT PARA USE32 PUBLIC 'CODE'
_TEXT	ENDS
;	COMDAT ?clear@?$basic_ios@DV?$char_traits@D@_STL@@@_STL@@QAEXH@Z
_TEXT	SEGMENT PARA USE32 PUBLIC 'CODE'
_TEXT	ENDS
;	COMDAT ?_M_clear@?$vector@VMHelpMessage@@V?$allocator@VMHelpMessage@@@_STL@@@_STL@@IAEXXZ
_TEXT	SEGMENT PARA USE32 PUBLIC 'CODE'
_TEXT	ENDS
;	COMDAT ?_M_set@?$vector@VMHelpMessage@@V?$allocator@VMHelpMessage@@@_STL@@@_STL@@IAEXPAVMHelpMessage@@00@Z
_TEXT	SEGMENT PARA USE32 PUBLIC 'CODE'
_TEXT	ENDS
;	COMDAT ?allocate@?$allocator@VMHelpMessage@@@_STL@@QAEPAVMHelpMessage@@IPBX@Z
_TEXT	SEGMENT PARA USE32 PUBLIC 'CODE'
_TEXT	ENDS
;	COMDAT ?deallocate@?$allocator@VMHelpMessage@@@_STL@@QAEXPAVMHelpMessage@@I@Z
_TEXT	SEGMENT PARA USE32 PUBLIC 'CODE'
_TEXT	ENDS
;	COMDAT ??0?$_STLP_alloc_proxy@PAVMHelpMessage@@V1@V?$allocator@VMHelpMessage@@@_STL@@@_STL@@QAE@ABV?$allocator@VMHelpMessage@@@1@PAVMHelpMessage@@@Z
_TEXT	SEGMENT PARA USE32 PUBLIC 'CODE'
_TEXT	ENDS
;	COMDAT ?_M_clear@?$vector@VMString@@V?$allocator@VMString@@@_STL@@@_STL@@IAEXXZ
_TEXT	SEGMENT PARA USE32 PUBLIC 'CODE'
_TEXT	ENDS
;	COMDAT ?_M_set@?$vector@VMString@@V?$allocator@VMString@@@_STL@@@_STL@@IAEXPAVMString@@00@Z
_TEXT	SEGMENT PARA USE32 PUBLIC 'CODE'
_TEXT	ENDS
;	COMDAT ?allocate@?$allocator@VMString@@@_STL@@QAEPAVMString@@IPBX@Z
_TEXT	SEGMENT PARA USE32 PUBLIC 'CODE'
_TEXT	ENDS
;	COMDAT ?deallocate@?$allocator@VMString@@@_STL@@QAEXPAVMString@@I@Z
_TEXT	SEGMENT PARA USE32 PUBLIC 'CODE'
_TEXT	ENDS
;	COMDAT ??0?$_STLP_alloc_proxy@PAVMString@@V1@V?$allocator@VMString@@@_STL@@@_STL@@QAE@ABV?$allocator@VMString@@@1@PAVMString@@@Z
_TEXT	SEGMENT PARA USE32 PUBLIC 'CODE'
_TEXT	ENDS
;	COMDAT ?rdbuf@?$basic_ios@DV?$char_traits@D@_STL@@@_STL@@QBEPAV?$basic_streambuf@DV?$char_traits@D@_STL@@@2@XZ
_TEXT	SEGMENT PARA USE32 PUBLIC 'CODE'
_TEXT	ENDS
;	COMDAT ??0?$allocator@VMHelpMessage@@@_STL@@QAE@ABV01@@Z
_TEXT	SEGMENT PARA USE32 PUBLIC 'CODE'
_TEXT	ENDS
;	COMDAT ??0?$allocator@VMString@@@_STL@@QAE@ABV01@@Z
_TEXT	SEGMENT PARA USE32 PUBLIC 'CODE'
_TEXT	ENDS
;	COMDAT ?_M_throw_out_of_range@?$_String_base@DV?$allocator@D@_STL@@@_STL@@QBEXXZ
_TEXT	SEGMENT PARA USE32 PUBLIC 'CODE'
_TEXT	ENDS
;	COMDAT ??$_M_range_initialize@PBD@?$basic_string@DV?$char_traits@D@_STL@@V?$allocator@D@2@@_STL@@AAEXPBD0@Z
_TEXT	SEGMENT PARA USE32 PUBLIC 'CODE'
_TEXT	ENDS
;	COMDAT ??$_M_range_initialize@PAD@?$basic_string@DV?$char_traits@D@_STL@@V?$allocator@D@2@@_STL@@AAEXPAD0@Z
_TEXT	SEGMENT PARA USE32 PUBLIC 'CODE'
_TEXT	ENDS
;	COMDAT ??0?$basic_ostream@DV?$char_traits@D@_STL@@@_STL@@QAE@PAV?$basic_streambuf@DV?$char_traits@D@_STL@@@1@@Z
_TEXT	SEGMENT PARA USE32 PUBLIC 'CODE'
_TEXT	ENDS
;	COMDAT ??0?$basic_filebuf@DV?$char_traits@D@_STL@@@_STL@@QAE@XZ
_TEXT	SEGMENT PARA USE32 PUBLIC 'CODE'
_TEXT	ENDS
;	COMDAT ?close@?$basic_filebuf@DV?$char_traits@D@_STL@@@_STL@@QAEPAV12@XZ
_TEXT	SEGMENT PARA USE32 PUBLIC 'CODE'
_TEXT	ENDS
;	COMDAT ?_M_exit_input_mode@?$basic_filebuf@DV?$char_traits@D@_STL@@@_STL@@AAEXXZ
_TEXT	SEGMENT PARA USE32 PUBLIC 'CODE'
_TEXT	ENDS
;	COMDAT ?_M_switch_to_output_mode@?$basic_filebuf@DV?$char_traits@D@_STL@@@_STL@@AAE_NXZ
_TEXT	SEGMENT PARA USE32 PUBLIC 'CODE'
_TEXT	ENDS
;	COMDAT ?_M_output_error@?$basic_filebuf@DV?$char_traits@D@_STL@@@_STL@@AAEHXZ
_TEXT	SEGMENT PARA USE32 PUBLIC 'CODE'
_TEXT	ENDS
;	COMDAT ?_M_allocate_buffers@?$basic_filebuf@DV?$char_traits@D@_STL@@@_STL@@AAE_NPADH@Z
_TEXT	SEGMENT PARA USE32 PUBLIC 'CODE'
_TEXT	ENDS
;	COMDAT ?_M_deallocate_buffers@?$basic_filebuf@DV?$char_traits@D@_STL@@@_STL@@AAEXXZ
_TEXT	SEGMENT PARA USE32 PUBLIC 'CODE'
_TEXT	ENDS
;	COMDAT ?_M_seek_init@?$basic_filebuf@DV?$char_traits@D@_STL@@@_STL@@AAE_N_N@Z
_TEXT	SEGMENT PARA USE32 PUBLIC 'CODE'
_TEXT	ENDS
;	COMDAT ?_M_setup_codecvt@?$basic_filebuf@DV?$char_traits@D@_STL@@@_STL@@AAEXABVlocale@2@@Z
_TEXT	SEGMENT PARA USE32 PUBLIC 'CODE'
_TEXT	ENDS
;	COMDAT ??$equal@PADPADU?$_Eq_traits@V?$char_traits@D@_STL@@@_STL@@@_STL@@YA_NPAD00U?$_Eq_traits@V?$char_traits@D@_STL@@@0@@Z
_TEXT	SEGMENT PARA USE32 PUBLIC 'CODE'
_TEXT	ENDS
;	COMDAT ??$_Destroy@V?$basic_string@DV?$char_traits@D@_STL@@V?$allocator@D@2@@_STL@@@_STL@@YAXPAV?$basic_string@DV?$char_traits@D@_STL@@V?$allocator@D@2@@0@@Z
_TEXT	SEGMENT PARA USE32 PUBLIC 'CODE'
_TEXT	ENDS
;	COMDAT ??$_M_assign_dispatch@PAD@?$basic_string@DV?$char_traits@D@_STL@@V?$allocator@D@2@@_STL@@AAEAAV01@PAD0ABU__false_type@1@@Z
_TEXT	SEGMENT PARA USE32 PUBLIC 'CODE'
_TEXT	ENDS
;	COMDAT ??0?$basic_ios@DV?$char_traits@D@_STL@@@_STL@@IAE@XZ
_TEXT	SEGMENT PARA USE32 PUBLIC 'CODE'
_TEXT	ENDS
;	COMDAT ?init@?$basic_ios@DV?$char_traits@D@_STL@@@_STL@@IAEXPAV?$basic_streambuf@DV?$char_traits@D@_STL@@@2@@Z
_TEXT	SEGMENT PARA USE32 PUBLIC 'CODE'
_TEXT	ENDS
;	COMDAT ??$?9DV?$char_traits@D@_STL@@V?$allocator@D@1@@_STL@@YA_NABV?$basic_string@DV?$char_traits@D@_STL@@V?$allocator@D@2@@0@PBD@Z
_TEXT	SEGMENT PARA USE32 PUBLIC 'CODE'
_TEXT	ENDS
;	COMDAT ??$?9PAD@_STL@@YA_NABV?$reverse_iterator@PAD@0@0@Z
_TEXT	SEGMENT PARA USE32 PUBLIC 'CODE'
_TEXT	ENDS
;	COMDAT ??$?6V?$char_traits@D@_STL@@@_STL@@YAAAV?$basic_ostream@DV?$char_traits@D@_STL@@@0@AAV10@PBD@Z
_TEXT	SEGMENT PARA USE32 PUBLIC 'CODE'
_TEXT	ENDS
;	COMDAT ??$replace@PBD@?$basic_string@DV?$char_traits@D@_STL@@V?$allocator@D@2@@_STL@@QAEAAV01@PAD0PBD1@Z
_TEXT	SEGMENT PARA USE32 PUBLIC 'CODE'
_TEXT	ENDS
;	COMDAT ??$_M_put_num@DV?$char_traits@D@_STL@@J@_STL@@YAAAV?$basic_ostream@DV?$char_traits@D@_STL@@@0@AAV10@J@Z
_TEXT	SEGMENT PARA USE32 PUBLIC 'CODE'
_TEXT	ENDS
;	COMDAT ??$_Destroy@PAVMHelpMessage@@@_STL@@YAXPAVMHelpMessage@@0@Z
_TEXT	SEGMENT PARA USE32 PUBLIC 'CODE'
_TEXT	ENDS
;	COMDAT ??$_Construct@VMHelpMessage@@V1@@_STL@@YAXPAVMHelpMessage@@ABV1@@Z
_TEXT	SEGMENT PARA USE32 PUBLIC 'CODE'
_TEXT	ENDS
;	COMDAT ??$__copy_ptrs@PAVMHelpMessage@@PAV1@@_STL@@YAPAVMHelpMessage@@PAV1@00ABU__false_type@0@@Z
_TEXT	SEGMENT PARA USE32 PUBLIC 'CODE'
_TEXT	ENDS
;	COMDAT ??$_Destroy@VMHelpMessage@@@_STL@@YAXPAVMHelpMessage@@@Z
_TEXT	SEGMENT PARA USE32 PUBLIC 'CODE'
_TEXT	ENDS
;	COMDAT ??$_Destroy@PAVMString@@@_STL@@YAXPAVMString@@0@Z
_TEXT	SEGMENT PARA USE32 PUBLIC 'CODE'
_TEXT	ENDS
;	COMDAT ??$_Construct@VMString@@V1@@_STL@@YAXPAVMString@@ABV1@@Z
_TEXT	SEGMENT PARA USE32 PUBLIC 'CODE'
_TEXT	ENDS
;	COMDAT ??$__copy_ptrs@PAVMString@@PAV1@@_STL@@YAPAVMString@@PAV1@00ABU__false_type@0@@Z
_TEXT	SEGMENT PARA USE32 PUBLIC 'CODE'
_TEXT	ENDS
;	COMDAT ??$_Destroy@VMString@@@_STL@@YAXPAVMString@@@Z
_TEXT	SEGMENT PARA USE32 PUBLIC 'CODE'
_TEXT	ENDS
;	COMDAT ??$append@PBD@?$basic_string@DV?$char_traits@D@_STL@@V?$allocator@D@2@@_STL@@QAEAAV01@PBD0@Z
_TEXT	SEGMENT PARA USE32 PUBLIC 'CODE'
_TEXT	ENDS
;	COMDAT ??$max@I@_STL@@YAABIABI0@Z
_TEXT	SEGMENT PARA USE32 PUBLIC 'CODE'
_TEXT	ENDS
;	COMDAT ??$__uninitialized_copy@PAVMHelpMessage@@PAV1@@_STL@@YAPAVMHelpMessage@@PAV1@00ABU__false_type@0@@Z
_TEXT	SEGMENT PARA USE32 PUBLIC 'CODE'
_TEXT	ENDS
;	COMDAT ??$__uninitialized_fill_n@PAVMHelpMessage@@IV1@@_STL@@YAPAVMHelpMessage@@PAV1@IABV1@ABU__false_type@0@@Z
_TEXT	SEGMENT PARA USE32 PUBLIC 'CODE'
_TEXT	ENDS
;	COMDAT ??$__uninitialized_copy@PAVMString@@PAV1@@_STL@@YAPAVMString@@PAV1@00ABU__false_type@0@@Z
_TEXT	SEGMENT PARA USE32 PUBLIC 'CODE'
_TEXT	ENDS
;	COMDAT ??$__uninitialized_fill_n@PAVMString@@IV1@@_STL@@YAPAVMString@@PAV1@IABV1@ABU__false_type@0@@Z
_TEXT	SEGMENT PARA USE32 PUBLIC 'CODE'
_TEXT	ENDS
;	COMDAT ??_G?$basic_string@DV?$char_traits@D@_STL@@V?$allocator@D@2@@_STL@@QAEPAXI@Z
_TEXT	SEGMENT PARA USE32 PUBLIC 'CODE'
_TEXT	ENDS
;	COMDAT ??0MHelpMessage@@QAE@ABV0@@Z
_TEXT	SEGMENT PARA USE32 PUBLIC 'CODE'
_TEXT	ENDS
;	COMDAT ?tie@?$basic_ios@DV?$char_traits@D@_STL@@@_STL@@QAEPAV?$basic_ostream@DV?$char_traits@D@_STL@@@2@PAV32@@Z
_TEXT	SEGMENT PARA USE32 PUBLIC 'CODE'
_TEXT	ENDS
;	COMDAT ?fill@?$basic_ios@DV?$char_traits@D@_STL@@@_STL@@QBEDXZ
_TEXT	SEGMENT PARA USE32 PUBLIC 'CODE'
_TEXT	ENDS
;	COMDAT ?fill@?$basic_ios@DV?$char_traits@D@_STL@@@_STL@@QAEDD@Z
_TEXT	SEGMENT PARA USE32 PUBLIC 'CODE'
_TEXT	ENDS
;	COMDAT ?_M_exit_putback_mode@?$basic_filebuf@DV?$char_traits@D@_STL@@@_STL@@AAEXXZ
_TEXT	SEGMENT PARA USE32 PUBLIC 'CODE'
_TEXT	ENDS
;	COMDAT ??R?$_Eq_traits@V?$char_traits@D@_STL@@@_STL@@QBE_NABD0@Z
_TEXT	SEGMENT PARA USE32 PUBLIC 'CODE'
_TEXT	ENDS
;	COMDAT ??0sentry@?$basic_ostream@DV?$char_traits@D@_STL@@@_STL@@QAE@AAV12@@Z
_TEXT	SEGMENT PARA USE32 PUBLIC 'CODE'
_TEXT	ENDS
;	COMDAT ??1sentry@?$basic_ostream@DV?$char_traits@D@_STL@@@_STL@@QAE@XZ
_TEXT	SEGMENT PARA USE32 PUBLIC 'CODE'
_TEXT	ENDS
;	COMDAT ??Bsentry@?$basic_ostream@DV?$char_traits@D@_STL@@@_STL@@QBE_NXZ
_TEXT	SEGMENT PARA USE32 PUBLIC 'CODE'
_TEXT	ENDS
;	COMDAT ?put@?$num_put@DV?$ostreambuf_iterator@DV?$char_traits@D@_STL@@@_STL@@@_STL@@QBE?AV?$ostreambuf_iterator@DV?$char_traits@D@_STL@@@2@V32@AAVios_base@2@DJ@Z
_TEXT	SEGMENT PARA USE32 PUBLIC 'CODE'
_TEXT	ENDS
;	COMDAT ??1?$num_put@DV?$ostreambuf_iterator@DV?$char_traits@D@_STL@@@_STL@@@_STL@@MAE@XZ
_TEXT	SEGMENT PARA USE32 PUBLIC 'CODE'
_TEXT	ENDS
;	COMDAT ??0?$ostreambuf_iterator@DV?$char_traits@D@_STL@@@_STL@@QAE@PAV?$basic_streambuf@DV?$char_traits@D@_STL@@@1@@Z
_TEXT	SEGMENT PARA USE32 PUBLIC 'CODE'
_TEXT	ENDS
;	COMDAT ?failed@?$ostreambuf_iterator@DV?$char_traits@D@_STL@@@_STL@@QBE_NXZ
_TEXT	SEGMENT PARA USE32 PUBLIC 'CODE'
_TEXT	ENDS
;	COMDAT ??_G?$num_put@DV?$ostreambuf_iterator@DV?$char_traits@D@_STL@@@_STL@@@_STL@@MAEPAXI@Z
_TEXT	SEGMENT PARA USE32 PUBLIC 'CODE'
_TEXT	ENDS
;	COMDAT ?flush@?$basic_ostream@DV?$char_traits@D@_STL@@@_STL@@QAEAAV12@XZ
_TEXT	SEGMENT PARA USE32 PUBLIC 'CODE'
_TEXT	ENDS
;	COMDAT ??$_M_range_initialize@PBD@?$basic_string@DV?$char_traits@D@_STL@@V?$allocator@D@2@@_STL@@AAEXPBD0ABUforward_iterator_tag@1@@Z
_TEXT	SEGMENT PARA USE32 PUBLIC 'CODE'
_TEXT	ENDS
;	COMDAT ??$_M_range_initialize@PAD@?$basic_string@DV?$char_traits@D@_STL@@V?$allocator@D@2@@_STL@@AAEXPAD0ABUforward_iterator_tag@1@@Z
_TEXT	SEGMENT PARA USE32 PUBLIC 'CODE'
_TEXT	ENDS
;	COMDAT ?_M_put_nowiden@?$basic_ostream@DV?$char_traits@D@_STL@@@_STL@@QAEXPBD@Z
_TEXT	SEGMENT PARA USE32 PUBLIC 'CODE'
_TEXT	ENDS
;	COMDAT ?rdbuf@?$basic_ios@DV?$char_traits@D@_STL@@@_STL@@QAEPAV?$basic_streambuf@DV?$char_traits@D@_STL@@@2@PAV32@@Z
_TEXT	SEGMENT PARA USE32 PUBLIC 'CODE'
_TEXT	ENDS
;	COMDAT ?imbue@?$basic_ios@DV?$char_traits@D@_STL@@@_STL@@QAE?AVlocale@2@ABV32@@Z
_TEXT	SEGMENT PARA USE32 PUBLIC 'CODE'
_TEXT	ENDS
;	COMDAT ?widen@?$basic_ios@DV?$char_traits@D@_STL@@@_STL@@QBEDD@Z
_TEXT	SEGMENT PARA USE32 PUBLIC 'CODE'
_TEXT	ENDS
;	COMDAT ?_M_handle_exception@?$basic_ios@DV?$char_traits@D@_STL@@@_STL@@QAEXH@Z
_TEXT	SEGMENT PARA USE32 PUBLIC 'CODE'
_TEXT	ENDS
;	COMDAT ?_M_unshift@?$basic_filebuf@DV?$char_traits@D@_STL@@@_STL@@AAE_NXZ
_TEXT	SEGMENT PARA USE32 PUBLIC 'CODE'
_TEXT	ENDS
;	COMDAT ?_M_allocate_buffers@?$basic_filebuf@DV?$char_traits@D@_STL@@@_STL@@AAE_NXZ
_TEXT	SEGMENT PARA USE32 PUBLIC 'CODE'
_TEXT	ENDS
;	COMDAT ??$max@H@_STL@@YAABHABH0@Z
_TEXT	SEGMENT PARA USE32 PUBLIC 'CODE'
_TEXT	ENDS
;	COMDAT ??$use_facet@V?$codecvt@DDH@_STL@@@_STL@@YAABV?$codecvt@DDH@0@ABVlocale@0@@Z
_TEXT	SEGMENT PARA USE32 PUBLIC 'CODE'
_TEXT	ENDS
;	COMDAT ??$append@PAD@?$basic_string@DV?$char_traits@D@_STL@@V?$allocator@D@2@@_STL@@QAEAAV01@PAD0@Z
_TEXT	SEGMENT PARA USE32 PUBLIC 'CODE'
_TEXT	ENDS
;	COMDAT ??$?8DV?$char_traits@D@_STL@@V?$allocator@D@1@@_STL@@YA_NABV?$basic_string@DV?$char_traits@D@_STL@@V?$allocator@D@2@@0@PBD@Z
_TEXT	SEGMENT PARA USE32 PUBLIC 'CODE'
_TEXT	ENDS
;	COMDAT ??$?8PAD@_STL@@YA_NABV?$reverse_iterator@PAD@0@0@Z
_TEXT	SEGMENT PARA USE32 PUBLIC 'CODE'
_TEXT	ENDS
;	COMDAT ??$_M_replace_dispatch@PBD@?$basic_string@DV?$char_traits@D@_STL@@V?$allocator@D@2@@_STL@@AAEAAV01@PAD0PBD1ABU__false_type@1@@Z
_TEXT	SEGMENT PARA USE32 PUBLIC 'CODE'
_TEXT	ENDS
;	COMDAT ??$use_facet@V?$num_put@DV?$ostreambuf_iterator@DV?$char_traits@D@_STL@@@_STL@@@_STL@@@_STL@@YAABV?$num_put@DV?$ostreambuf_iterator@DV?$char_traits@D@_STL@@@_STL@@@0@ABVlocale@0@@Z
_TEXT	SEGMENT PARA USE32 PUBLIC 'CODE'
_TEXT	ENDS
;	COMDAT ?do_put@?$num_put@DV?$ostreambuf_iterator@DV?$char_traits@D@_STL@@@_STL@@@_STL@@MBE?AV?$ostreambuf_iterator@DV?$char_traits@D@_STL@@@2@V32@AAVios_base@2@DPBX@Z
_TEXT	SEGMENT PARA USE32 PUBLIC 'CODE'
_TEXT	ENDS
;	COMDAT ?do_put@?$num_put@DV?$ostreambuf_iterator@DV?$char_traits@D@_STL@@@_STL@@@_STL@@MBE?AV?$ostreambuf_iterator@DV?$char_traits@D@_STL@@@2@V32@AAVios_base@2@D_K@Z
_TEXT	SEGMENT PARA USE32 PUBLIC 'CODE'
_TEXT	ENDS
;	COMDAT ?do_put@?$num_put@DV?$ostreambuf_iterator@DV?$char_traits@D@_STL@@@_STL@@@_STL@@MBE?AV?$ostreambuf_iterator@DV?$char_traits@D@_STL@@@2@V32@AAVios_base@2@D_J@Z
_TEXT	SEGMENT PARA USE32 PUBLIC 'CODE'
_TEXT	ENDS
;	COMDAT ?do_put@?$num_put@DV?$ostreambuf_iterator@DV?$char_traits@D@_STL@@@_STL@@@_STL@@MBE?AV?$ostreambuf_iterator@DV?$char_traits@D@_STL@@@2@V32@AAVios_base@2@DO@Z
_TEXT	SEGMENT PARA USE32 PUBLIC 'CODE'
_TEXT	ENDS
;	COMDAT ?do_put@?$num_put@DV?$ostreambuf_iterator@DV?$char_traits@D@_STL@@@_STL@@@_STL@@MBE?AV?$ostreambuf_iterator@DV?$char_traits@D@_STL@@@2@V32@AAVios_base@2@DN@Z
_TEXT	SEGMENT PARA USE32 PUBLIC 'CODE'
_TEXT	ENDS
;	COMDAT ?do_put@?$num_put@DV?$ostreambuf_iterator@DV?$char_traits@D@_STL@@@_STL@@@_STL@@MBE?AV?$ostreambuf_iterator@DV?$char_traits@D@_STL@@@2@V32@AAVios_base@2@DK@Z
_TEXT	SEGMENT PARA USE32 PUBLIC 'CODE'
_TEXT	ENDS
;	COMDAT ?do_put@?$num_put@DV?$ostreambuf_iterator@DV?$char_traits@D@_STL@@@_STL@@@_STL@@MBE?AV?$ostreambuf_iterator@DV?$char_traits@D@_STL@@@2@V32@AAVios_base@2@DJ@Z
_TEXT	SEGMENT PARA USE32 PUBLIC 'CODE'
_TEXT	ENDS
;	COMDAT ?do_put@?$num_put@DV?$ostreambuf_iterator@DV?$char_traits@D@_STL@@@_STL@@@_STL@@MBE?AV?$ostreambuf_iterator@DV?$char_traits@D@_STL@@@2@V32@AAVios_base@2@D_N@Z
_TEXT	SEGMENT PARA USE32 PUBLIC 'CODE'
_TEXT	ENDS
;	COMDAT ??$__destroy@PAVMHelpMessage@@V1@@_STL@@YAXPAVMHelpMessage@@00@Z
_TEXT	SEGMENT PARA USE32 PUBLIC 'CODE'
_TEXT	ENDS
;	COMDAT ??$__copy@PAVMHelpMessage@@PAV1@H@_STL@@YAPAVMHelpMessage@@PAV1@00ABUrandom_access_iterator_tag@0@PAH@Z
_TEXT	SEGMENT PARA USE32 PUBLIC 'CODE'
_TEXT	ENDS
;	COMDAT ??$__destroy@PAVMString@@V1@@_STL@@YAXPAVMString@@00@Z
_TEXT	SEGMENT PARA USE32 PUBLIC 'CODE'
_TEXT	ENDS
;	COMDAT ??$__copy@PAVMString@@PAV1@H@_STL@@YAPAVMString@@PAV1@00ABUrandom_access_iterator_tag@0@PAH@Z
_TEXT	SEGMENT PARA USE32 PUBLIC 'CODE'
_TEXT	ENDS
;	COMDAT ??$_M_append_dispatch@PBD@?$basic_string@DV?$char_traits@D@_STL@@V?$allocator@D@2@@_STL@@AAEAAV01@PBD0ABU__false_type@1@@Z
_TEXT	SEGMENT PARA USE32 PUBLIC 'CODE'
_TEXT	ENDS
;	COMDAT ??$_M_init@DV?$char_traits@D@_STL@@@_STL@@YA_NAAV?$basic_ostream@DV?$char_traits@D@_STL@@@0@@Z
_TEXT	SEGMENT PARA USE32 PUBLIC 'CODE'
_TEXT	ENDS
;	COMDAT ?data@?$basic_string@DV?$char_traits@D@_STL@@V?$allocator@D@2@@_STL@@QBEPBDXZ
_TEXT	SEGMENT PARA USE32 PUBLIC 'CODE'
_TEXT	ENDS
;	COMDAT ?tie@?$basic_ios@DV?$char_traits@D@_STL@@@_STL@@QBEPAV?$basic_ostream@DV?$char_traits@D@_STL@@@2@XZ
_TEXT	SEGMENT PARA USE32 PUBLIC 'CODE'
_TEXT	ENDS
;	COMDAT ?base@?$reverse_iterator@PAD@_STL@@QBEPADXZ
_TEXT	SEGMENT PARA USE32 PUBLIC 'CODE'
_TEXT	ENDS
;	COMDAT ??$distance@PBD@_STL@@YAHABQBD0@Z
_TEXT	SEGMENT PARA USE32 PUBLIC 'CODE'
_TEXT	ENDS
;	COMDAT ?_M_allocate_block@?$_String_base@DV?$allocator@D@_STL@@@_STL@@QAEXI@Z
_TEXT	SEGMENT PARA USE32 PUBLIC 'CODE'
_TEXT	ENDS
;	COMDAT ??$distance@PAD@_STL@@YAHABQAD0@Z
_TEXT	SEGMENT PARA USE32 PUBLIC 'CODE'
_TEXT	ENDS
;	COMDAT ??$uninitialized_copy@PADPAD@_STL@@YAPADPAD00@Z
_TEXT	SEGMENT PARA USE32 PUBLIC 'CODE'
_TEXT	ENDS
;	COMDAT ??$_M_append_dispatch@PAD@?$basic_string@DV?$char_traits@D@_STL@@V?$allocator@D@2@@_STL@@AAEAAV01@PAD0ABU__false_type@1@@Z
_TEXT	SEGMENT PARA USE32 PUBLIC 'CODE'
_TEXT	ENDS
;	COMDAT ??$replace@PBD@?$basic_string@DV?$char_traits@D@_STL@@V?$allocator@D@2@@_STL@@AAEAAV01@PAD0PBD1ABUrandom_access_iterator_tag@1@@Z
_TEXT	SEGMENT PARA USE32 PUBLIC 'CODE'
_TEXT	ENDS
;	COMDAT ??$__write_integer_backward@_K@_STL@@YAPADPADH_K@Z
_TEXT	SEGMENT PARA USE32 PUBLIC 'CODE'
_TEXT	ENDS
;	COMDAT ??$__put_integer@V?$ostreambuf_iterator@DV?$char_traits@D@_STL@@@_STL@@@_STL@@YA?AV?$ostreambuf_iterator@DV?$char_traits@D@_STL@@@0@PAD0V10@AAVios_base@0@HD@Z
_TEXT	SEGMENT PARA USE32 PUBLIC 'CODE'
_TEXT	ENDS
;	COMDAT ??$__write_integer_backward@_J@_STL@@YAPADPADH_J@Z
_TEXT	SEGMENT PARA USE32 PUBLIC 'CODE'
_TEXT	ENDS
;	COMDAT ??$_M_do_put_float@DV?$ostreambuf_iterator@DV?$char_traits@D@_STL@@@_STL@@O@_STL@@YA?AV?$ostreambuf_iterator@DV?$char_traits@D@_STL@@@0@V10@AAVios_base@0@DO@Z
_TEXT	SEGMENT PARA USE32 PUBLIC 'CODE'
_TEXT	ENDS
;	COMDAT ??$_M_do_put_float@DV?$ostreambuf_iterator@DV?$char_traits@D@_STL@@@_STL@@N@_STL@@YA?AV?$ostreambuf_iterator@DV?$char_traits@D@_STL@@@0@V10@AAVios_base@0@DN@Z
_TEXT	SEGMENT PARA USE32 PUBLIC 'CODE'
_TEXT	ENDS
;	COMDAT ??$__write_integer_backward@K@_STL@@YAPADPADHK@Z
_TEXT	SEGMENT PARA USE32 PUBLIC 'CODE'
_TEXT	ENDS
;	COMDAT ??$__write_integer_backward@J@_STL@@YAPADPADHJ@Z
_TEXT	SEGMENT PARA USE32 PUBLIC 'CODE'
_TEXT	ENDS
;	COMDAT ??$__copy_integer_and_fill@DV?$ostreambuf_iterator@DV?$char_traits@D@_STL@@@_STL@@@_STL@@YA?AV?$ostreambuf_iterator@DV?$char_traits@D@_STL@@@0@PBDHV10@HHDDD@Z
_TEXT	SEGMENT PARA USE32 PUBLIC 'CODE'
_TEXT	ENDS
;	COMDAT ??$__destroy_aux@PAVMHelpMessage@@@_STL@@YAXPAVMHelpMessage@@0ABU__false_type@0@@Z
_TEXT	SEGMENT PARA USE32 PUBLIC 'CODE'
_TEXT	ENDS
;	COMDAT ??$__destroy_aux@PAVMString@@@_STL@@YAXPAVMString@@0ABU__false_type@0@@Z
_TEXT	SEGMENT PARA USE32 PUBLIC 'CODE'
_TEXT	ENDS
;	COMDAT ??$append@PBD@?$basic_string@DV?$char_traits@D@_STL@@V?$allocator@D@2@@_STL@@AAEAAV01@PBD0ABUforward_iterator_tag@1@@Z
_TEXT	SEGMENT PARA USE32 PUBLIC 'CODE'
_TEXT	ENDS
;	COMDAT ?_M_construct_null@?$basic_string@DV?$char_traits@D@_STL@@V?$allocator@D@2@@_STL@@AAEXPAD@Z
_TEXT	SEGMENT PARA USE32 PUBLIC 'CODE'
_TEXT	ENDS
;	COMDAT ?max_size@?$basic_string@DV?$char_traits@D@_STL@@V?$allocator@D@2@@_STL@@QBEIXZ
_TEXT	SEGMENT PARA USE32 PUBLIC 'CODE'
_TEXT	ENDS
;	COMDAT ?capacity@?$basic_string@DV?$char_traits@D@_STL@@V?$allocator@D@2@@_STL@@QBEIXZ
_TEXT	SEGMENT PARA USE32 PUBLIC 'CODE'
_TEXT	ENDS
;	COMDAT ?empty@?$basic_string@DV?$char_traits@D@_STL@@V?$allocator@D@2@@_STL@@QBE_NXZ
_TEXT	SEGMENT PARA USE32 PUBLIC 'CODE'
_TEXT	ENDS
;	COMDAT ?_M_copy@?$basic_string@DV?$char_traits@D@_STL@@V?$allocator@D@2@@_STL@@AAEXPBD0PAD@Z
_TEXT	SEGMENT PARA USE32 PUBLIC 'CODE'
_TEXT	ENDS
;	COMDAT ?_M_move@?$basic_string@DV?$char_traits@D@_STL@@V?$allocator@D@2@@_STL@@AAEXPBD0PAD@Z
_TEXT	SEGMENT PARA USE32 PUBLIC 'CODE'
_TEXT	ENDS
;	COMDAT ?max_size@?$_String_base@DV?$allocator@D@_STL@@@_STL@@QBEIXZ
_TEXT	SEGMENT PARA USE32 PUBLIC 'CODE'
_TEXT	ENDS
;	COMDAT ??4?$ostreambuf_iterator@DV?$char_traits@D@_STL@@@_STL@@QAEAAV01@D@Z
_TEXT	SEGMENT PARA USE32 PUBLIC 'CODE'
_TEXT	ENDS
;	COMDAT ??D?$ostreambuf_iterator@DV?$char_traits@D@_STL@@@_STL@@QAEAAV01@XZ
_TEXT	SEGMENT PARA USE32 PUBLIC 'CODE'
_TEXT	ENDS
;	COMDAT ??E?$ostreambuf_iterator@DV?$char_traits@D@_STL@@@_STL@@QAEAAV01@H@Z
_TEXT	SEGMENT PARA USE32 PUBLIC 'CODE'
_TEXT	ENDS
;	COMDAT ?_M_construct_null_aux@?$basic_string@DV?$char_traits@D@_STL@@V?$allocator@D@2@@_STL@@AAEXPADABU__true_type@2@@Z
_TEXT	SEGMENT PARA USE32 PUBLIC 'CODE'
_TEXT	ENDS
;	COMDAT ??$__distance@PBD@_STL@@YAHABQBD0ABUrandom_access_iterator_tag@0@@Z
_TEXT	SEGMENT PARA USE32 PUBLIC 'CODE'
_TEXT	ENDS
;	COMDAT ?_M_throw_length_error@?$_String_base@DV?$allocator@D@_STL@@@_STL@@QBEXXZ
_TEXT	SEGMENT PARA USE32 PUBLIC 'CODE'
_TEXT	ENDS
;	COMDAT ??$__distance@PAD@_STL@@YAHABQAD0ABUrandom_access_iterator_tag@0@@Z
_TEXT	SEGMENT PARA USE32 PUBLIC 'CODE'
_TEXT	ENDS
;	COMDAT ??$__uninitialized_copy@PADPAD@_STL@@YAPADPAD00ABU__true_type@0@@Z
_TEXT	SEGMENT PARA USE32 PUBLIC 'CODE'
_TEXT	ENDS
;	COMDAT ?reserve@?$basic_string@DV?$char_traits@D@_STL@@V?$allocator@D@2@@_STL@@QAEXI@Z
_TEXT	SEGMENT PARA USE32 PUBLIC 'CODE'
_TEXT	ENDS
;	COMDAT ??$append@PAD@?$basic_string@DV?$char_traits@D@_STL@@V?$allocator@D@2@@_STL@@AAEAAV01@PAD0ABUforward_iterator_tag@1@@Z
_TEXT	SEGMENT PARA USE32 PUBLIC 'CODE'
_TEXT	ENDS
;	COMDAT ??$_M_inside@PBD@?$basic_string@DV?$char_traits@D@_STL@@V?$allocator@D@2@@_STL@@ABE_NPBD@Z
_TEXT	SEGMENT PARA USE32 PUBLIC 'CODE'
_TEXT	ENDS
;	COMDAT ??$insert@PBD@?$basic_string@DV?$char_traits@D@_STL@@V?$allocator@D@2@@_STL@@QAEXPADPBD1@Z
_TEXT	SEGMENT PARA USE32 PUBLIC 'CODE'
_TEXT	ENDS
;	COMDAT ??$replace@PBD@?$basic_string@DV?$char_traits@D@_STL@@V?$allocator@D@2@@_STL@@AAEAAV01@PAD0PBD1ABUforward_iterator_tag@1@@Z
_TEXT	SEGMENT PARA USE32 PUBLIC 'CODE'
_TEXT	ENDS
;	COMDAT ??$__write_decimal_backward@_K@_STL@@YAPADPAD_KHABU__false_type@0@@Z
_TEXT	SEGMENT PARA USE32 PUBLIC 'CODE'
_TEXT	ENDS
;	COMDAT ??$copy@PADPAD@_STL@@YAPADPAD00@Z
_TEXT	SEGMENT PARA USE32 PUBLIC 'CODE'
_TEXT	ENDS
;	COMDAT ??$__write_decimal_backward@_J@_STL@@YAPADPAD_JHABU__true_type@0@@Z
_TEXT	SEGMENT PARA USE32 PUBLIC 'CODE'
_TEXT	ENDS
;	COMDAT ??$__put_float@V?$ostreambuf_iterator@DV?$char_traits@D@_STL@@@_STL@@@_STL@@YA?AV?$ostreambuf_iterator@DV?$char_traits@D@_STL@@@0@PAD0V10@AAVios_base@0@DDDABV?$basic_string@DV?$char_traits@D@_STL@@V?$allocator@D@2@@0@@Z
_TEXT	SEGMENT PARA USE32 PUBLIC 'CODE'
_TEXT	ENDS
;	COMDAT ??$__write_decimal_backward@K@_STL@@YAPADPADKHABU__false_type@0@@Z
_TEXT	SEGMENT PARA USE32 PUBLIC 'CODE'
_TEXT	ENDS
;	COMDAT ??$__write_decimal_backward@J@_STL@@YAPADPADJHABU__true_type@0@@Z
_TEXT	SEGMENT PARA USE32 PUBLIC 'CODE'
_TEXT	ENDS
;	COMDAT ??$copy@PBDV?$ostreambuf_iterator@DV?$char_traits@D@_STL@@@_STL@@@_STL@@YA?AV?$ostreambuf_iterator@DV?$char_traits@D@_STL@@@0@PBD0V10@@Z
_TEXT	SEGMENT PARA USE32 PUBLIC 'CODE'
_TEXT	ENDS
;	COMDAT ??$fill_n@V?$ostreambuf_iterator@DV?$char_traits@D@_STL@@@_STL@@HD@_STL@@YA?AV?$ostreambuf_iterator@DV?$char_traits@D@_STL@@@0@V10@HABD@Z
_TEXT	SEGMENT PARA USE32 PUBLIC 'CODE'
_TEXT	ENDS
;	COMDAT ??A?$basic_string@DV?$char_traits@D@_STL@@V?$allocator@D@2@@_STL@@QBEABDI@Z
_TEXT	SEGMENT PARA USE32 PUBLIC 'CODE'
_TEXT	ENDS
;	COMDAT ??A?$basic_string@DV?$char_traits@D@_STL@@V?$allocator@D@2@@_STL@@QAEAADI@Z
_TEXT	SEGMENT PARA USE32 PUBLIC 'CODE'
_TEXT	ENDS
;	COMDAT ?push_back@?$basic_string@DV?$char_traits@D@_STL@@V?$allocator@D@2@@_STL@@QAEXD@Z
_TEXT	SEGMENT PARA USE32 PUBLIC 'CODE'
_TEXT	ENDS
;	COMDAT ??E?$ostreambuf_iterator@DV?$char_traits@D@_STL@@@_STL@@QAEAAV01@XZ
_TEXT	SEGMENT PARA USE32 PUBLIC 'CODE'
_TEXT	ENDS
;	COMDAT ?_Ret@?$_BothPtrType@PADPAD@_STL@@SA?AU__true_type@2@XZ
_TEXT	SEGMENT PARA USE32 PUBLIC 'CODE'
_TEXT	ENDS
;	COMDAT ?_Ret@?$_BothPtrType@PBDV?$ostreambuf_iterator@DV?$char_traits@D@_STL@@@_STL@@@_STL@@SA?AU__false_type@2@XZ
_TEXT	SEGMENT PARA USE32 PUBLIC 'CODE'
_TEXT	ENDS
;	COMDAT ??$__copy_aux@PADPAD@_STL@@YAPADPAD00ABU__true_type@0@@Z
_TEXT	SEGMENT PARA USE32 PUBLIC 'CODE'
_TEXT	ENDS
;	COMDAT ??$_M_insert_dispatch@PBD@?$basic_string@DV?$char_traits@D@_STL@@V?$allocator@D@2@@_STL@@AAEXPADPBD1ABU__false_type@1@@Z
_TEXT	SEGMENT PARA USE32 PUBLIC 'CODE'
_TEXT	ENDS
;	COMDAT ??$advance@PBDH@_STL@@YAXAAPBDH@Z
_TEXT	SEGMENT PARA USE32 PUBLIC 'CODE'
_TEXT	ENDS
;	COMDAT ??$find@PADD@_STL@@YAPADPAD0ABD@Z
_TEXT	SEGMENT PARA USE32 PUBLIC 'CODE'
_TEXT	ENDS
;	COMDAT ??$__copy_float_and_fill@DV?$ostreambuf_iterator@DV?$char_traits@D@_STL@@@_STL@@@_STL@@YA?AV?$ostreambuf_iterator@DV?$char_traits@D@_STL@@@0@PBD0V10@HHDDD@Z
_TEXT	SEGMENT PARA USE32 PUBLIC 'CODE'
_TEXT	ENDS
;	COMDAT ??$__copy_aux@PBDV?$ostreambuf_iterator@DV?$char_traits@D@_STL@@@_STL@@@_STL@@YA?AV?$ostreambuf_iterator@DV?$char_traits@D@_STL@@@0@PBD0V10@ABU__false_type@0@@Z
_TEXT	SEGMENT PARA USE32 PUBLIC 'CODE'
_TEXT	ENDS
;	COMDAT ?_Ret@?$_OKToMemCpy@DD@_STL@@SA?AU__true_type@2@XZ
_TEXT	SEGMENT PARA USE32 PUBLIC 'CODE'
_TEXT	ENDS
;	COMDAT ??$_IsOKToMemCpy@DD@_STL@@YA?AU?$_OKToMemCpy@DD@0@PAD0@Z
_TEXT	SEGMENT PARA USE32 PUBLIC 'CODE'
_TEXT	ENDS
;	COMDAT ??$__copy_ptrs@PADPAD@_STL@@YAPADPAD00ABU__true_type@0@@Z
_TEXT	SEGMENT PARA USE32 PUBLIC 'CODE'
_TEXT	ENDS
;	COMDAT ??$insert@PBD@?$basic_string@DV?$char_traits@D@_STL@@V?$allocator@D@2@@_STL@@AAEXPADPBD1ABUforward_iterator_tag@1@@Z
_TEXT	SEGMENT PARA USE32 PUBLIC 'CODE'
_TEXT	ENDS
;	COMDAT ??$__advance@PBDH@_STL@@YAXAAPBDHABUrandom_access_iterator_tag@0@@Z
_TEXT	SEGMENT PARA USE32 PUBLIC 'CODE'
_TEXT	ENDS
;	COMDAT ??$__find@PADD@_STL@@YAPADPAD0ABDABUrandom_access_iterator_tag@0@@Z
_TEXT	SEGMENT PARA USE32 PUBLIC 'CODE'
_TEXT	ENDS
;	COMDAT ??$__copy@PBDV?$ostreambuf_iterator@DV?$char_traits@D@_STL@@@_STL@@H@_STL@@YA?AV?$ostreambuf_iterator@DV?$char_traits@D@_STL@@@0@PBD0V10@ABUrandom_access_iterator_tag@0@PAH@Z
_TEXT	SEGMENT PARA USE32 PUBLIC 'CODE'
_TEXT	ENDS
;	COMDAT ??_R3?$num_put@DV?$ostreambuf_iterator@DV?$char_traits@D@_STL@@@_STL@@@_STL@@8
rdata$r	SEGMENT DWORD USE32 PUBLIC 'CONST'
rdata$r	ENDS
;	COMDAT ??_R3MHelpMessageManager@@8
rdata$r	SEGMENT DWORD USE32 PUBLIC 'CONST'
rdata$r	ENDS
;	COMDAT ??_R3IFileIO@@8
rdata$r	SEGMENT DWORD USE32 PUBLIC 'CONST'
rdata$r	ENDS
;	COMDAT ??_R3?$basic_ofstream@DV?$char_traits@D@_STL@@@_STL@@8
rdata$r	SEGMENT DWORD USE32 PUBLIC 'CONST'
rdata$r	ENDS
;	COMDAT ??_R3MHelpMessage@@8
rdata$r	SEGMENT DWORD USE32 PUBLIC 'CONST'
rdata$r	ENDS
;	COMDAT ??_R3ovfstream@@8
rdata$r	SEGMENT DWORD USE32 PUBLIC 'CONST'
rdata$r	ENDS
;	COMDAT ??_R3ivfstream@@8
rdata$r	SEGMENT DWORD USE32 PUBLIC 'CONST'
rdata$r	ENDS
;	COMDAT ??_R3iovfs_base@@8
rdata$r	SEGMENT DWORD USE32 PUBLIC 'CONST'
rdata$r	ENDS
;	COMDAT ??_R2?$num_put@DV?$ostreambuf_iterator@DV?$char_traits@D@_STL@@@_STL@@@_STL@@8
rdata$r	SEGMENT DWORD USE32 PUBLIC 'CONST'
rdata$r	ENDS
;	COMDAT ??_R2MHelpMessageManager@@8
rdata$r	SEGMENT DWORD USE32 PUBLIC 'CONST'
rdata$r	ENDS
;	COMDAT ??_R2IFileIO@@8
rdata$r	SEGMENT DWORD USE32 PUBLIC 'CONST'
rdata$r	ENDS
;	COMDAT ??_R2?$basic_ofstream@DV?$char_traits@D@_STL@@@_STL@@8
rdata$r	SEGMENT DWORD USE32 PUBLIC 'CONST'
rdata$r	ENDS
;	COMDAT ??_R2MHelpMessage@@8
rdata$r	SEGMENT DWORD USE32 PUBLIC 'CONST'
rdata$r	ENDS
;	COMDAT ??_R2ovfstream@@8
rdata$r	SEGMENT DWORD USE32 PUBLIC 'CONST'
rdata$r	ENDS
;	COMDAT ??_R2ivfstream@@8
rdata$r	SEGMENT DWORD USE32 PUBLIC 'CONST'
rdata$r	ENDS
;	COMDAT ??_R2iovfs_base@@8
rdata$r	SEGMENT DWORD USE32 PUBLIC 'CONST'
rdata$r	ENDS
;	COMDAT ??_R13?0A@8_Refcount_Base@_STL@@8
rdata$r	SEGMENT DWORD USE32 PUBLIC 'CONST'
rdata$r	ENDS
;	COMDAT ??_R0?AU_Refcount_Base@_STL@@@8
_DATA	SEGMENT DWORD USE32 PUBLIC 'DATA'
_DATA	ENDS
;	COMDAT ??_R1A@?0A@A@facet@locale@_STL@@8
rdata$r	SEGMENT DWORD USE32 PUBLIC 'CONST'
rdata$r	ENDS
;	COMDAT ??_R0?AVfacet@locale@_STL@@@8
_DATA	SEGMENT DWORD USE32 PUBLIC 'DATA'
_DATA	ENDS
;	COMDAT ??_R1A@?0A@A@?$num_put@DV?$ostreambuf_iterator@DV?$char_traits@D@_STL@@@_STL@@@_STL@@8
rdata$r	SEGMENT DWORD USE32 PUBLIC 'CONST'
rdata$r	ENDS
;	COMDAT ??_R1A@?0A@A@MHelpMessageManager@@8
rdata$r	SEGMENT DWORD USE32 PUBLIC 'CONST'
rdata$r	ENDS
;	COMDAT ??_R1A@?0A@A@IFileIO@@8
rdata$r	SEGMENT DWORD USE32 PUBLIC 'CONST'
rdata$r	ENDS
;	COMDAT ??_R1A@A@3A@ios_base@_STL@@8
rdata$r	SEGMENT DWORD USE32 PUBLIC 'CONST'
rdata$r	ENDS
;	COMDAT ??_R0?AVios_base@_STL@@@8
_DATA	SEGMENT DWORD USE32 PUBLIC 'DATA'
_DATA	ENDS
;	COMDAT ??_R1A@A@3BA@?$basic_ios@DV?$char_traits@D@_STL@@@_STL@@8
rdata$r	SEGMENT DWORD USE32 PUBLIC 'CONST'
rdata$r	ENDS
;	COMDAT ??_R0?AV?$basic_ios@DV?$char_traits@D@_STL@@@_STL@@@8
_DATA	SEGMENT DWORD USE32 PUBLIC 'DATA'
_DATA	ENDS
;	COMDAT ??_R1A@?0A@A@?$basic_ostream@DV?$char_traits@D@_STL@@@_STL@@8
rdata$r	SEGMENT DWORD USE32 PUBLIC 'CONST'
rdata$r	ENDS
;	COMDAT ??_R0?AV?$basic_ostream@DV?$char_traits@D@_STL@@@_STL@@@8
_DATA	SEGMENT DWORD USE32 PUBLIC 'DATA'
_DATA	ENDS
;	COMDAT ??_R1A@?0A@A@?$basic_ofstream@DV?$char_traits@D@_STL@@@_STL@@8
rdata$r	SEGMENT DWORD USE32 PUBLIC 'CONST'
rdata$r	ENDS
;	COMDAT ??_R1A@?0A@A@MHelpMessage@@8
rdata$r	SEGMENT DWORD USE32 PUBLIC 'CONST'
rdata$r	ENDS
;	COMDAT ??_R1A@?0A@A@ovfstream@@8
rdata$r	SEGMENT DWORD USE32 PUBLIC 'CONST'
rdata$r	ENDS
;	COMDAT ??_R1A@?0A@A@ivfstream@@8
rdata$r	SEGMENT DWORD USE32 PUBLIC 'CONST'
rdata$r	ENDS
;	COMDAT ??_R1A@?0A@A@iovfs_base@@8
rdata$r	SEGMENT DWORD USE32 PUBLIC 'CONST'
rdata$r	ENDS
;	COMDAT ??_R0?AV?$num_put@DV?$ostreambuf_iterator@DV?$char_traits@D@_STL@@@_STL@@@_STL@@@8
_DATA	SEGMENT DWORD USE32 PUBLIC 'DATA'
_DATA	ENDS
;	COMDAT ??_R0?AVMHelpMessageManager@@@8
_DATA	SEGMENT DWORD USE32 PUBLIC 'DATA'
_DATA	ENDS
;	COMDAT ??_R0?AVIFileIO@@@8
_DATA	SEGMENT DWORD USE32 PUBLIC 'DATA'
_DATA	ENDS
;	COMDAT ??_R0?AV?$basic_ofstream@DV?$char_traits@D@_STL@@@_STL@@@8
_DATA	SEGMENT DWORD USE32 PUBLIC 'DATA'
_DATA	ENDS
;	COMDAT ??_R0?AVMHelpMessage@@@8
_DATA	SEGMENT DWORD USE32 PUBLIC 'DATA'
_DATA	ENDS
;	COMDAT ??_R0?AVovfstream@@@8
_DATA	SEGMENT DWORD USE32 PUBLIC 'DATA'
_DATA	ENDS
;	COMDAT ??_R0?AVivfstream@@@8
_DATA	SEGMENT DWORD USE32 PUBLIC 'DATA'
_DATA	ENDS
;	COMDAT ??_R0?AViovfs_base@@@8
_DATA	SEGMENT DWORD USE32 PUBLIC 'DATA'
_DATA	ENDS
;	COMDAT ??_R4?$num_put@DV?$ostreambuf_iterator@DV?$char_traits@D@_STL@@@_STL@@@_STL@@6B@
rdata$r	SEGMENT DWORD USE32 PUBLIC 'CONST'
rdata$r	ENDS
;	COMDAT ??_R4MHelpMessageManager@@6B@
rdata$r	SEGMENT DWORD USE32 PUBLIC 'CONST'
rdata$r	ENDS
;	COMDAT ??_R4IFileIO@@6B@
rdata$r	SEGMENT DWORD USE32 PUBLIC 'CONST'
rdata$r	ENDS
;	COMDAT ??_R4?$basic_ofstream@DV?$char_traits@D@_STL@@@_STL@@6B@
rdata$r	SEGMENT DWORD USE32 PUBLIC 'CONST'
rdata$r	ENDS
;	COMDAT ??_R4MHelpMessage@@6B@
rdata$r	SEGMENT DWORD USE32 PUBLIC 'CONST'
rdata$r	ENDS
;	COMDAT ??_R4ovfstream@@6B@
rdata$r	SEGMENT DWORD USE32 PUBLIC 'CONST'
rdata$r	ENDS
;	COMDAT ??_R4ivfstream@@6B@
rdata$r	SEGMENT DWORD USE32 PUBLIC 'CONST'
rdata$r	ENDS
;	COMDAT ??_R4iovfs_base@@6B@
rdata$r	SEGMENT DWORD USE32 PUBLIC 'CONST'
rdata$r	ENDS
;	COMDAT ?__copy_trivial@_STL@@YAPAXPBX0PAX@Z
_TEXT	SEGMENT PARA USE32 PUBLIC 'CODE'
_TEXT	ENDS
;	COMDAT ?sputc@?$basic_streambuf@DV?$char_traits@D@_STL@@@_STL@@QAEHD@Z
_TEXT	SEGMENT PARA USE32 PUBLIC 'CODE'
_TEXT	ENDS
;	COMDAT ?_FILE_O_avail@_STL@@YAHPBU_iobuf@@@Z
_TEXT	SEGMENT PARA USE32 PUBLIC 'CODE'
_TEXT	ENDS
;	COMDAT ?_FILE_I_avail@_STL@@YAHPBU_iobuf@@@Z
_TEXT	SEGMENT PARA USE32 PUBLIC 'CODE'
_TEXT	ENDS
;	COMDAT ?_FILE_O_postincr@_STL@@YAAADPAU_iobuf@@@Z
_TEXT	SEGMENT PARA USE32 PUBLIC 'CODE'
_TEXT	ENDS
;	COMDAT ?_FILE_I_postincr@_STL@@YAAADPAU_iobuf@@@Z
_TEXT	SEGMENT PARA USE32 PUBLIC 'CODE'
_TEXT	ENDS
;	COMDAT ?to_int_type@?$char_traits@D@_STL@@SAHABD@Z
_TEXT	SEGMENT PARA USE32 PUBLIC 'CODE'
_TEXT	ENDS
;	COMDAT ?_M_deallocate_block@?$_String_base@DV?$allocator@D@_STL@@@_STL@@QAEXXZ
_TEXT	SEGMENT PARA USE32 PUBLIC 'CODE'
_TEXT	ENDS
;	COMDAT ?deallocate@?$allocator@D@_STL@@QAEXPADI@Z
_TEXT	SEGMENT PARA USE32 PUBLIC 'CODE'
_TEXT	ENDS
;	COMDAT ?decimal_point@?$numpunct@D@_STL@@QBEDXZ
_TEXT	SEGMENT PARA USE32 PUBLIC 'CODE'
_TEXT	ENDS
;	COMDAT ?precision@ios_base@_STL@@QBEHXZ
_TEXT	SEGMENT PARA USE32 PUBLIC 'CODE'
_TEXT	ENDS
;	COMDAT ?thousands_sep@?$numpunct@D@_STL@@QBEDXZ
_TEXT	SEGMENT PARA USE32 PUBLIC 'CODE'
_TEXT	ENDS
;	COMDAT ?_M_grouping@ios_base@_STL@@QBEABV?$basic_string@DV?$char_traits@D@_STL@@V?$allocator@D@2@@2@XZ
_TEXT	SEGMENT PARA USE32 PUBLIC 'CODE'
_TEXT	ENDS
;	COMDAT ?good@ios_base@_STL@@QBE_NXZ
_TEXT	SEGMENT PARA USE32 PUBLIC 'CODE'
_TEXT	ENDS
;	COMDAT ?falsename@?$numpunct@D@_STL@@QBE?AV?$basic_string@DV?$char_traits@D@_STL@@V?$allocator@D@2@@2@XZ
_TEXT	SEGMENT PARA USE32 PUBLIC 'CODE'
_TEXT	ENDS
;	COMDAT ?truename@?$numpunct@D@_STL@@QBE?AV?$basic_string@DV?$char_traits@D@_STL@@V?$allocator@D@2@@2@XZ
_TEXT	SEGMENT PARA USE32 PUBLIC 'CODE'
_TEXT	ENDS
;	COMDAT ??0?$basic_string@DV?$char_traits@D@_STL@@V?$allocator@D@2@@_STL@@QAE@ABV01@@Z
_TEXT	SEGMENT PARA USE32 PUBLIC 'CODE'
_TEXT	ENDS
;	COMDAT ??1?$_String_base@DV?$allocator@D@_STL@@@_STL@@QAE@XZ
_TEXT	SEGMENT PARA USE32 PUBLIC 'CODE'
_TEXT	ENDS
;	COMDAT ?_M_numpunct_facet@ios_base@_STL@@QBEPBVfacet@locale@2@XZ
_TEXT	SEGMENT PARA USE32 PUBLIC 'CODE'
_TEXT	ENDS
;	COMDAT ?setf@ios_base@_STL@@QAEHH@Z
_TEXT	SEGMENT PARA USE32 PUBLIC 'CODE'
_TEXT	ENDS
;	COMDAT ?setf@ios_base@_STL@@QAEHHH@Z
_TEXT	SEGMENT PARA USE32 PUBLIC 'CODE'
_TEXT	ENDS
;	COMDAT ?id@?$num_put@DV?$ostreambuf_iterator@DV?$char_traits@D@_STL@@@_STL@@@_STL@@2V0locale@2@A
_BSS	SEGMENT DWORD USE32 PUBLIC 'BSS'
_BSS	ENDS
;	COMDAT ?compare@?$char_traits@D@_STL@@SAHPBD0I@Z
_TEXT	SEGMENT PARA USE32 PUBLIC 'CODE'
_TEXT	ENDS
;	COMDAT ?__page_size@_Filebuf_base@_STL@@SAIXZ
_TEXT	SEGMENT PARA USE32 PUBLIC 'CODE'
_TEXT	ENDS
;	COMDAT ?_M_write@?$basic_filebuf@DV?$char_traits@D@_STL@@@_STL@@QAE_NPADH@Z
_TEXT	SEGMENT PARA USE32 PUBLIC 'CODE'
_TEXT	ENDS
;	COMDAT ?unshift@?$codecvt@DDH@_STL@@QBE?AW4result@codecvt_base@2@AAHPAD1AAPAD@Z
_TEXT	SEGMENT PARA USE32 PUBLIC 'CODE'
_TEXT	ENDS
;	COMDAT ?_M_get_exception_mask@ios_base@_STL@@IBEHXZ
_TEXT	SEGMENT PARA USE32 PUBLIC 'CODE'
_TEXT	ENDS
;	COMDAT ?_M_setstate_nothrow@ios_base@_STL@@IAEXH@Z
_TEXT	SEGMENT PARA USE32 PUBLIC 'CODE'
_TEXT	ENDS
;	COMDAT ?_M_ctype_facet@ios_base@_STL@@QBEPBVfacet@locale@2@XZ
_TEXT	SEGMENT PARA USE32 PUBLIC 'CODE'
_TEXT	ENDS
;	COMDAT ?widen@?$ctype@D@_STL@@QBEDD@Z
_TEXT	SEGMENT PARA USE32 PUBLIC 'CODE'
_TEXT	ENDS
;	COMDAT ?grouping@?$numpunct@D@_STL@@QBE?AV?$basic_string@DV?$char_traits@D@_STL@@V?$allocator@D@2@@2@XZ
_TEXT	SEGMENT PARA USE32 PUBLIC 'CODE'
_TEXT	ENDS
;	COMDAT ??4?$basic_string@DV?$char_traits@D@_STL@@V?$allocator@D@2@@_STL@@QAEAAV01@ABV01@@Z
_TEXT	SEGMENT PARA USE32 PUBLIC 'CODE'
_TEXT	ENDS
;	COMDAT ??$assign@PAD@?$basic_string@DV?$char_traits@D@_STL@@V?$allocator@D@2@@_STL@@QAEAAV01@PAD0@Z
_TEXT	SEGMENT PARA USE32 PUBLIC 'CODE'
_TEXT	ENDS
;	COMDAT ?_M_sputnc@?$basic_streambuf@DV?$char_traits@D@_STL@@@_STL@@QAEHDH@Z
_TEXT	SEGMENT PARA USE32 PUBLIC 'CODE'
_TEXT	ENDS
;	COMDAT ?sputn@?$basic_streambuf@DV?$char_traits@D@_STL@@@_STL@@QAEHPBDH@Z
_TEXT	SEGMENT PARA USE32 PUBLIC 'CODE'
_TEXT	ENDS
;	COMDAT ?width@ios_base@_STL@@QBEHXZ
_TEXT	SEGMENT PARA USE32 PUBLIC 'CODE'
_TEXT	ENDS
;	COMDAT ?uninitialized_copy@_STL@@YAPADPBD0PAD@Z
_TEXT	SEGMENT PARA USE32 PUBLIC 'CODE'
_TEXT	ENDS
;	COMDAT ?pubsync@?$basic_streambuf@DV?$char_traits@D@_STL@@@_STL@@QAEHXZ
_TEXT	SEGMENT PARA USE32 PUBLIC 'CODE'
_TEXT	ENDS
;	COMDAT ??_7?$num_put@DV?$ostreambuf_iterator@DV?$char_traits@D@_STL@@@_STL@@@_STL@@6B@
CONST	SEGMENT DWORD USE32 PUBLIC 'CONST'
CONST	ENDS
;	COMDAT ?flags@ios_base@_STL@@QBEHXZ
_TEXT	SEGMENT PARA USE32 PUBLIC 'CODE'
_TEXT	ENDS
;	COMDAT ??3@YAXPAX0@Z
_TEXT	SEGMENT PARA USE32 PUBLIC 'CODE'
_TEXT	ENDS
;	COMDAT ??2@YAPAXIPAX@Z
_TEXT	SEGMENT PARA USE32 PUBLIC 'CODE'
_TEXT	ENDS
;	COMDAT ?getloc@ios_base@_STL@@QBE?AVlocale@2@XZ
_TEXT	SEGMENT PARA USE32 PUBLIC 'CODE'
_TEXT	ENDS
;	COMDAT ?precision@ios_base@_STL@@QAEHH@Z
_TEXT	SEGMENT PARA USE32 PUBLIC 'CODE'
_TEXT	ENDS
;	COMDAT ?width@ios_base@_STL@@QAEHH@Z
_TEXT	SEGMENT PARA USE32 PUBLIC 'CODE'
_TEXT	ENDS
;	COMDAT ?flags@ios_base@_STL@@QAEHH@Z
_TEXT	SEGMENT PARA USE32 PUBLIC 'CODE'
_TEXT	ENDS
;	COMDAT ?_M_set_exception_mask@ios_base@_STL@@IAEXH@Z
_TEXT	SEGMENT PARA USE32 PUBLIC 'CODE'
_TEXT	ENDS
;	COMDAT ??_7?$basic_ios@DV?$char_traits@D@_STL@@@_STL@@6B@
CONST	SEGMENT DWORD USE32 PUBLIC 'CONST'
CONST	ENDS
;	COMDAT ??_R4?$basic_ios@DV?$char_traits@D@_STL@@@_STL@@6B@
rdata$r	SEGMENT DWORD USE32 PUBLIC 'CONST'
rdata$r	ENDS
;	COMDAT ??_R3?$basic_ios@DV?$char_traits@D@_STL@@@_STL@@8
rdata$r	SEGMENT DWORD USE32 PUBLIC 'CONST'
rdata$r	ENDS
;	COMDAT ??_R2?$basic_ios@DV?$char_traits@D@_STL@@@_STL@@8
rdata$r	SEGMENT DWORD USE32 PUBLIC 'CONST'
rdata$r	ENDS
;	COMDAT ??_R1A@?0A@A@?$basic_ios@DV?$char_traits@D@_STL@@@_STL@@8
rdata$r	SEGMENT DWORD USE32 PUBLIC 'CONST'
rdata$r	ENDS
;	COMDAT ??_R1A@?0A@A@ios_base@_STL@@8
rdata$r	SEGMENT DWORD USE32 PUBLIC 'CONST'
rdata$r	ENDS
;	COMDAT ??_G?$basic_ios@DV?$char_traits@D@_STL@@@_STL@@UAEPAXI@Z
_TEXT	SEGMENT PARA USE32 PUBLIC 'CODE'
_TEXT	ENDS
;	COMDAT ?assign@?$char_traits@D@_STL@@SAXAADABD@Z
_TEXT	SEGMENT PARA USE32 PUBLIC 'CODE'
_TEXT	ENDS
;	COMDAT ?always_noconv@?$codecvt@DDH@_STL@@QBE_NXZ
_TEXT	SEGMENT PARA USE32 PUBLIC 'CODE'
_TEXT	ENDS
;	COMDAT ?encoding@?$codecvt@DDH@_STL@@QBEHXZ
_TEXT	SEGMENT PARA USE32 PUBLIC 'CODE'
_TEXT	ENDS
;	COMDAT ?max_length@?$codecvt@DDH@_STL@@QBEHXZ
_TEXT	SEGMENT PARA USE32 PUBLIC 'CODE'
_TEXT	ENDS
;	COMDAT ?__o_mode@_Filebuf_base@_STL@@QBEHXZ
_TEXT	SEGMENT PARA USE32 PUBLIC 'CODE'
_TEXT	ENDS
;	COMDAT ??_7?$basic_filebuf@DV?$char_traits@D@_STL@@@_STL@@6B@
CONST	SEGMENT DWORD USE32 PUBLIC 'CONST'
CONST	ENDS
;	COMDAT ??_R4?$basic_filebuf@DV?$char_traits@D@_STL@@@_STL@@6B@
rdata$r	SEGMENT DWORD USE32 PUBLIC 'CONST'
rdata$r	ENDS
;	COMDAT ??_R0?AV?$basic_filebuf@DV?$char_traits@D@_STL@@@_STL@@@8
_DATA	SEGMENT DWORD USE32 PUBLIC 'DATA'
_DATA	ENDS
;	COMDAT ??_R3?$basic_filebuf@DV?$char_traits@D@_STL@@@_STL@@8
rdata$r	SEGMENT DWORD USE32 PUBLIC 'CONST'
rdata$r	ENDS
;	COMDAT ??_R2?$basic_filebuf@DV?$char_traits@D@_STL@@@_STL@@8
rdata$r	SEGMENT DWORD USE32 PUBLIC 'CONST'
rdata$r	ENDS
;	COMDAT ??_R1A@?0A@A@?$basic_filebuf@DV?$char_traits@D@_STL@@@_STL@@8
rdata$r	SEGMENT DWORD USE32 PUBLIC 'CONST'
rdata$r	ENDS
;	COMDAT ??_R1A@?0A@A@?$basic_streambuf@DV?$char_traits@D@_STL@@@_STL@@8
rdata$r	SEGMENT DWORD USE32 PUBLIC 'CONST'
rdata$r	ENDS
;	COMDAT ??_R0?AV?$basic_streambuf@DV?$char_traits@D@_STL@@@_STL@@@8
_DATA	SEGMENT DWORD USE32 PUBLIC 'DATA'
_DATA	ENDS
;	COMDAT ??_G?$basic_filebuf@DV?$char_traits@D@_STL@@@_STL@@UAEPAXI@Z
_TEXT	SEGMENT PARA USE32 PUBLIC 'CODE'
_TEXT	ENDS
;	COMDAT ?setbuf@?$basic_filebuf@DV?$char_traits@D@_STL@@@_STL@@MAEPAV?$basic_streambuf@DV?$char_traits@D@_STL@@@2@PADH@Z
_TEXT	SEGMENT PARA USE32 PUBLIC 'CODE'
_TEXT	ENDS
;	COMDAT ?seekoff@?$basic_filebuf@DV?$char_traits@D@_STL@@@_STL@@MAE?AV?$fpos@H@2@JHH@Z
_TEXT	SEGMENT PARA USE32 PUBLIC 'CODE'
_TEXT	ENDS
;	COMDAT ?_M_in_binary_mode@_Filebuf_base@_STL@@QBE_NXZ
_TEXT	SEGMENT PARA USE32 PUBLIC 'CODE'
_TEXT	ENDS
;	COMDAT ?length@?$codecvt@DDH@_STL@@QBEHABHPBD1I@Z
_TEXT	SEGMENT PARA USE32 PUBLIC 'CODE'
_TEXT	ENDS
;	COMDAT ?in@?$codecvt@DDH@_STL@@QBE?AW4result@codecvt_base@2@AAHPBD1AAPBDPAD3AAPAD@Z
_TEXT	SEGMENT PARA USE32 PUBLIC 'CODE'
_TEXT	ENDS
;	COMDAT ?eback@?$basic_streambuf@DV?$char_traits@D@_STL@@@_STL@@IBEPADXZ
_TEXT	SEGMENT PARA USE32 PUBLIC 'CODE'
_TEXT	ENDS
;	COMDAT ?_FILE_I_begin@_STL@@YAPADPBU_iobuf@@@Z
_TEXT	SEGMENT PARA USE32 PUBLIC 'CODE'
_TEXT	ENDS
;	COMDAT ?gptr@?$basic_streambuf@DV?$char_traits@D@_STL@@@_STL@@IBEPADXZ
_TEXT	SEGMENT PARA USE32 PUBLIC 'CODE'
_TEXT	ENDS
;	COMDAT ?_FILE_I_next@_STL@@YAPADPBU_iobuf@@@Z
_TEXT	SEGMENT PARA USE32 PUBLIC 'CODE'
_TEXT	ENDS
;	COMDAT ?_M_get_offset@_Filebuf_base@_STL@@QAEJPAD0@Z
_TEXT	SEGMENT PARA USE32 PUBLIC 'CODE'
_TEXT	ENDS
;	COMDAT ??$count@PADD@_STL@@YAHPAD0ABD@Z
_TEXT	SEGMENT PARA USE32 PUBLIC 'CODE'
_TEXT	ENDS
;	COMDAT ?seekpos@?$basic_filebuf@DV?$char_traits@D@_STL@@@_STL@@MAE?AV?$fpos@H@2@V32@H@Z
_TEXT	SEGMENT PARA USE32 PUBLIC 'CODE'
_TEXT	ENDS
;	COMDAT ?sync@?$basic_filebuf@DV?$char_traits@D@_STL@@@_STL@@MAEHXZ
_TEXT	SEGMENT PARA USE32 PUBLIC 'CODE'
_TEXT	ENDS
;	COMDAT ?showmanyc@?$basic_filebuf@DV?$char_traits@D@_STL@@@_STL@@MAEHXZ
_TEXT	SEGMENT PARA USE32 PUBLIC 'CODE'
_TEXT	ENDS
;	COMDAT ?egptr@?$basic_streambuf@DV?$char_traits@D@_STL@@@_STL@@IBEPADXZ
_TEXT	SEGMENT PARA USE32 PUBLIC 'CODE'
_TEXT	ENDS
;	COMDAT ?_FILE_I_end@_STL@@YAPADPBU_iobuf@@@Z
_TEXT	SEGMENT PARA USE32 PUBLIC 'CODE'
_TEXT	ENDS
;	COMDAT ?underflow@?$basic_filebuf@DV?$char_traits@D@_STL@@@_STL@@MAEHXZ
_TEXT	SEGMENT PARA USE32 PUBLIC 'CODE'
_TEXT	ENDS
;	COMDAT ?pbackfail@?$basic_filebuf@DV?$char_traits@D@_STL@@@_STL@@MAEHH@Z
_TEXT	SEGMENT PARA USE32 PUBLIC 'CODE'
_TEXT	ENDS
;	COMDAT ?gbump@?$basic_streambuf@DV?$char_traits@D@_STL@@@_STL@@IAEXH@Z
_TEXT	SEGMENT PARA USE32 PUBLIC 'CODE'
_TEXT	ENDS
;	COMDAT ?_FILE_I_bump@_STL@@YAXPAU_iobuf@@H@Z
_TEXT	SEGMENT PARA USE32 PUBLIC 'CODE'
_TEXT	ENDS
;	COMDAT ?to_char_type@?$char_traits@D@_STL@@SADABH@Z
_TEXT	SEGMENT PARA USE32 PUBLIC 'CODE'
_TEXT	ENDS
;	COMDAT ?overflow@?$basic_filebuf@DV?$char_traits@D@_STL@@@_STL@@MAEHH@Z
_TEXT	SEGMENT PARA USE32 PUBLIC 'CODE'
_TEXT	ENDS
;	COMDAT ?pptr@?$basic_streambuf@DV?$char_traits@D@_STL@@@_STL@@IBEPADXZ
_TEXT	SEGMENT PARA USE32 PUBLIC 'CODE'
_TEXT	ENDS
;	COMDAT ?_FILE_O_next@_STL@@YAPADPBU_iobuf@@@Z
_TEXT	SEGMENT PARA USE32 PUBLIC 'CODE'
_TEXT	ENDS
;	COMDAT ?out@?$codecvt@DDH@_STL@@QBE?AW4result@codecvt_base@2@AAHPBD1AAPBDPAD3AAPAD@Z
_TEXT	SEGMENT PARA USE32 PUBLIC 'CODE'
_TEXT	ENDS
;	COMDAT ?_M_doit@?$_Noconv_output@V?$char_traits@D@_STL@@@_STL@@SA_NPAV?$basic_filebuf@DV?$char_traits@D@_STL@@@2@PAD1@Z
_TEXT	SEGMENT PARA USE32 PUBLIC 'CODE'
_TEXT	ENDS
;	COMDAT ?imbue@?$basic_filebuf@DV?$char_traits@D@_STL@@@_STL@@MAEXABVlocale@2@@Z
_TEXT	SEGMENT PARA USE32 PUBLIC 'CODE'
_TEXT	ENDS
;	COMDAT ??0?$basic_streambuf@DV?$char_traits@D@_STL@@@_STL@@IAE@XZ
_TEXT	SEGMENT PARA USE32 PUBLIC 'CODE'
_TEXT	ENDS
;	COMDAT ??_7?$basic_streambuf@DV?$char_traits@D@_STL@@@_STL@@6B@
CONST	SEGMENT DWORD USE32 PUBLIC 'CONST'
CONST	ENDS
;	COMDAT ??_R4?$basic_streambuf@DV?$char_traits@D@_STL@@@_STL@@6B@
rdata$r	SEGMENT DWORD USE32 PUBLIC 'CONST'
rdata$r	ENDS
;	COMDAT ??_R3?$basic_streambuf@DV?$char_traits@D@_STL@@@_STL@@8
rdata$r	SEGMENT DWORD USE32 PUBLIC 'CONST'
rdata$r	ENDS
;	COMDAT ??_R2?$basic_streambuf@DV?$char_traits@D@_STL@@@_STL@@8
rdata$r	SEGMENT DWORD USE32 PUBLIC 'CONST'
rdata$r	ENDS
;	COMDAT ??_G?$basic_streambuf@DV?$char_traits@D@_STL@@@_STL@@UAEPAXI@Z
_TEXT	SEGMENT PARA USE32 PUBLIC 'CODE'
_TEXT	ENDS
;	COMDAT ??0_STLP_mutex@_STL@@QAE@XZ
_TEXT	SEGMENT PARA USE32 PUBLIC 'CODE'
_TEXT	ENDS
;	COMDAT ?_M_initialize@_STLP_mutex_base@_STL@@QAEXXZ
_TEXT	SEGMENT PARA USE32 PUBLIC 'CODE'
_TEXT	ENDS
;	COMDAT ??1_STLP_mutex@_STL@@QAE@XZ
_TEXT	SEGMENT PARA USE32 PUBLIC 'CODE'
_TEXT	ENDS
;	COMDAT ?_M_destroy@_STLP_mutex_base@_STL@@QAEXXZ
_TEXT	SEGMENT PARA USE32 PUBLIC 'CODE'
_TEXT	ENDS
;	COMDAT ?_FILE_I_set@_STL@@YAXPAU_iobuf@@PAD11@Z
_TEXT	SEGMENT PARA USE32 PUBLIC 'CODE'
_TEXT	ENDS
;	COMDAT ?_FILE_O_set@_STL@@YAXPAU_iobuf@@PAD11@Z
_TEXT	SEGMENT PARA USE32 PUBLIC 'CODE'
_TEXT	ENDS
;	COMDAT ??_7?$basic_ostream@DV?$char_traits@D@_STL@@@_STL@@6B@
CONST	SEGMENT DWORD USE32 PUBLIC 'CONST'
CONST	ENDS
;	COMDAT ??_R4?$basic_ostream@DV?$char_traits@D@_STL@@@_STL@@6B@
rdata$r	SEGMENT DWORD USE32 PUBLIC 'CONST'
rdata$r	ENDS
;	COMDAT ??_R3?$basic_ostream@DV?$char_traits@D@_STL@@@_STL@@8
rdata$r	SEGMENT DWORD USE32 PUBLIC 'CONST'
rdata$r	ENDS
;	COMDAT ??_R2?$basic_ostream@DV?$char_traits@D@_STL@@@_STL@@8
rdata$r	SEGMENT DWORD USE32 PUBLIC 'CONST'
rdata$r	ENDS
;	COMDAT ??_G?$basic_ostream@DV?$char_traits@D@_STL@@@_STL@@UAEPAXI@Z
_TEXT	SEGMENT PARA USE32 PUBLIC 'CODE'
_TEXT	ENDS
;	COMDAT ??_D?$basic_ostream@DV?$char_traits@D@_STL@@@_STL@@QAEXXZ
_TEXT	SEGMENT PARA USE32 PUBLIC 'CODE'
_TEXT	ENDS
;	COMDAT ??_8?$basic_ostream@DV?$char_traits@D@_STL@@@_STL@@7B@
CONST	SEGMENT DWORD USE32 PUBLIC 'CONST'
CONST	ENDS
;	COMDAT ?deallocate@?$__node_alloc@$00$0A@@_STL@@SAXPAXI@Z
_TEXT	SEGMENT PARA USE32 PUBLIC 'CODE'
_TEXT	ENDS
;	COMDAT ?__stl_delete@_STL@@YAXPAX@Z
_TEXT	SEGMENT PARA USE32 PUBLIC 'CODE'
_TEXT	ENDS
;	COMDAT ?_M_check_exception_mask@ios_base@_STL@@IAEXXZ
_TEXT	SEGMENT PARA USE32 PUBLIC 'CODE'
_TEXT	ENDS
;	COMDAT ?_M_clear_nothrow@ios_base@_STL@@IAEXH@Z
_TEXT	SEGMENT PARA USE32 PUBLIC 'CODE'
_TEXT	ENDS
;	COMDAT ?rdstate@ios_base@_STL@@QBEHXZ
_TEXT	SEGMENT PARA USE32 PUBLIC 'CODE'
_TEXT	ENDS
;	COMDAT ?_Destroy@_STL@@YAXPAD0@Z
_TEXT	SEGMENT PARA USE32 PUBLIC 'CODE'
_TEXT	ENDS
;	COMDAT ??1?$basic_filebuf@DV?$char_traits@D@_STL@@@_STL@@UAE@XZ
_TEXT	SEGMENT PARA USE32 PUBLIC 'CODE'
_TEXT	ENDS
;	COMDAT ??_7?$basic_ofstream@DV?$char_traits@D@_STL@@@_STL@@6B@
CONST	SEGMENT DWORD USE32 PUBLIC 'CONST'
CONST	ENDS
;	COMDAT ??1?$basic_ostream@DV?$char_traits@D@_STL@@@_STL@@UAE@XZ
_TEXT	SEGMENT PARA USE32 PUBLIC 'CODE'
_TEXT	ENDS
;	COMDAT ??_8?$basic_ofstream@DV?$char_traits@D@_STL@@@_STL@@7B@
CONST	SEGMENT DWORD USE32 PUBLIC 'CONST'
CONST	ENDS
;	COMDAT ?setp@?$basic_streambuf@DV?$char_traits@D@_STL@@@_STL@@IAEXPAD0@Z
_TEXT	SEGMENT PARA USE32 PUBLIC 'CODE'
_TEXT	ENDS
;	COMDAT ?setg@?$basic_streambuf@DV?$char_traits@D@_STL@@@_STL@@IAEXPAD00@Z
_TEXT	SEGMENT PARA USE32 PUBLIC 'CODE'
_TEXT	ENDS
;	COMDAT ?__is_open@_Filebuf_base@_STL@@QBE_NXZ
_TEXT	SEGMENT PARA USE32 PUBLIC 'CODE'
_TEXT	ENDS
;	COMDAT ?allocate@?$__node_alloc@$00$0A@@_STL@@SAPAXI@Z
_TEXT	SEGMENT PARA USE32 PUBLIC 'CODE'
_TEXT	ENDS
;	COMDAT ?__stl_new@_STL@@YAPAXI@Z
_TEXT	SEGMENT PARA USE32 PUBLIC 'CODE'
_TEXT	ENDS
;	COMDAT ??1?$_STLP_alloc_proxy@PADDV?$allocator@D@_STL@@@_STL@@QAE@XZ
_TEXT	SEGMENT PARA USE32 PUBLIC 'CODE'
_TEXT	ENDS
;	COMDAT ??$min@I@_STL@@YAABIABI0@Z
_TEXT	SEGMENT PARA USE32 PUBLIC 'CODE'
_TEXT	ENDS
;	COMDAT ?length@?$char_traits@D@_STL@@SAIPBD@Z
_TEXT	SEGMENT PARA USE32 PUBLIC 'CODE'
_TEXT	ENDS
;	COMDAT ??1?$allocator@D@_STL@@QAE@XZ
_TEXT	SEGMENT PARA USE32 PUBLIC 'CODE'
_TEXT	ENDS
;	COMDAT ?eof@?$__char_traits_base@DH@_STL@@SAHXZ
_TEXT	SEGMENT PARA USE32 PUBLIC 'CODE'
_TEXT	ENDS
;	COMDAT ??_C@_01CLKCMJKC@?5?$AA@
CONST	SEGMENT DWORD USE32 PUBLIC 'CONST'
CONST	ENDS
;	COMDAT ??1?$basic_ios@DV?$char_traits@D@_STL@@@_STL@@UAE@XZ
_TEXT	SEGMENT PARA USE32 PUBLIC 'CODE'
_TEXT	ENDS
;	COMDAT ??Bios_base@_STL@@QBEPAXXZ
_TEXT	SEGMENT PARA USE32 PUBLIC 'CODE'
_TEXT	ENDS
;	COMDAT ?fail@ios_base@_STL@@QBE_NXZ
_TEXT	SEGMENT PARA USE32 PUBLIC 'CODE'
_TEXT	ENDS
;	COMDAT ??_7MHelpMessageManager@@6B@
CONST	SEGMENT DWORD USE32 PUBLIC 'CONST'
CONST	ENDS
;	COMDAT ??_7MHelpMessage@@6B@
CONST	SEGMENT DWORD USE32 PUBLIC 'CONST'
CONST	ENDS
;	COMDAT ?theInstance@?1??Instance@MHelpMessageManager@@SAAAV2@XZ@4V2@A
_BSS	SEGMENT DWORD USE32 PUBLIC 'BSS'
_BSS	ENDS
;	COMDAT ?$S79@?1??Instance@MHelpMessageManager@@SAAAV2@XZ@4IA
_BSS	SEGMENT DWORD USE32 PUBLIC 'BSS'
_BSS	ENDS
;	COMDAT ??_7ovfstream@@6B@
CONST	SEGMENT DWORD USE32 PUBLIC 'CONST'
CONST	ENDS
;	COMDAT ??_7ivfstream@@6B@
CONST	SEGMENT DWORD USE32 PUBLIC 'CONST'
CONST	ENDS
;	COMDAT ??0?$basic_string@DV?$char_traits@D@_STL@@V?$allocator@D@2@@_STL@@QAE@XZ
_TEXT	SEGMENT PARA USE32 PUBLIC 'CODE'
_TEXT	ENDS
;	COMDAT ??0?$allocator@D@_STL@@QAE@XZ
_TEXT	SEGMENT PARA USE32 PUBLIC 'CODE'
_TEXT	ENDS
;	COMDAT ??1?$basic_string@DV?$char_traits@D@_STL@@V?$allocator@D@2@@_STL@@QAE@XZ
_TEXT	SEGMENT PARA USE32 PUBLIC 'CODE'
_TEXT	ENDS
;	COMDAT ??_7iovfs_base@@6B@
CONST	SEGMENT DWORD USE32 PUBLIC 'CONST'
CONST	ENDS
;	COMDAT ??_7IFileIO@@6B@
CONST	SEGMENT DWORD USE32 PUBLIC 'CONST'
CONST	ENDS
sxdata	SEGMENT DWORD USE32 'SXDATA'
sxdata	ENDS
FLAT	GROUP _DATA, CONST, _BSS
	ASSUME	CS: FLAT, DS: FLAT, SS: FLAT
endif

INCLUDELIB LIBCMT
INCLUDELIB OLDNAMES

PUBLIC	??2@YAPAXIPAX@Z					; operator new
; Function compile flags: /Ogsy
; File c:\program files\microsoft visual studio .net 2003\vc7\include\new
;	COMDAT ??2@YAPAXIPAX@Z
_TEXT	SEGMENT
___formal$ = 8						; size = 4
__Where$ = 12						; size = 4
??2@YAPAXIPAX@Z PROC NEAR				; operator new, COMDAT

; 64   : 	return (_Where);

  00000	8b 44 24 08	 mov	 eax, DWORD PTR __Where$[esp-4]

; 65   : 	}

  00004	c3		 ret	 0
??2@YAPAXIPAX@Z ENDP					; operator new
_TEXT	ENDS
PUBLIC	??3@YAXPAX0@Z					; operator delete
; Function compile flags: /Ogsy
;	COMDAT ??3@YAXPAX0@Z
_TEXT	SEGMENT
___formal$ = 8						; size = 4
___formal$ = 12						; size = 4
??3@YAXPAX0@Z PROC NEAR					; operator delete, COMDAT

; 69   : 	}

  00000	c3		 ret	 0
??3@YAXPAX0@Z ENDP					; operator delete
_TEXT	ENDS
PUBLIC	?__stl_new@_STL@@YAPAXI@Z			; _STL::__stl_new
EXTRN	??2@YAPAXI@Z:NEAR				; operator new
; Function compile flags: /Ogsy
; File c:\stlport-4.6.1\stlport\stl\_new.h
;	COMDAT ?__stl_new@_STL@@YAPAXI@Z
_TEXT	SEGMENT
___n$ = 8						; size = 4
?__stl_new@_STL@@YAPAXI@Z PROC NEAR			; _STL::__stl_new, COMDAT

; 86   : inline void*  _STLP_CALL __stl_new(size_t __n)   { _STLP_CHECK_NULL_ALLOC(::operator _STLP_NEW(__n)); }

  00000	e9 00 00 00 00	 jmp	 ??2@YAPAXI@Z		; operator new
?__stl_new@_STL@@YAPAXI@Z ENDP				; _STL::__stl_new
_TEXT	ENDS
PUBLIC	?__stl_delete@_STL@@YAXPAX@Z			; _STL::__stl_delete
EXTRN	??3@YAXPAX@Z:NEAR				; operator delete
; Function compile flags: /Ogsy
;	COMDAT ?__stl_delete@_STL@@YAXPAX@Z
_TEXT	SEGMENT
___p$ = 8						; size = 4
?__stl_delete@_STL@@YAXPAX@Z PROC NEAR			; _STL::__stl_delete, COMDAT

; 87   : inline void   _STLP_CALL __stl_delete(void* __p) { ::operator delete(__p); }

  00000	e9 00 00 00 00	 jmp	 ??3@YAXPAX@Z		; operator delete
?__stl_delete@_STL@@YAXPAX@Z ENDP			; _STL::__stl_delete
_TEXT	ENDS
PUBLIC	?_M_initialize@_STLP_mutex_base@_STL@@QAEXXZ	; _STL::_STLP_mutex_base::_M_initialize
; Function compile flags: /Ogsy
; File c:\stlport-4.6.1\stlport\stl\_threads.h
;	COMDAT ?_M_initialize@_STLP_mutex_base@_STL@@QAEXXZ
_TEXT	SEGMENT
?_M_initialize@_STLP_mutex_base@_STL@@QAEXXZ PROC NEAR	; _STL::_STLP_mutex_base::_M_initialize, COMDAT
; _this$ = ecx

; 321  :   inline void _M_initialize() { _M_lock=0; }

  00000	c7 01 00 00 00
	00		 mov	 DWORD PTR [ecx], 0
  00006	c3		 ret	 0
?_M_initialize@_STLP_mutex_base@_STL@@QAEXXZ ENDP	; _STL::_STLP_mutex_base::_M_initialize
_TEXT	ENDS
PUBLIC	?_M_destroy@_STLP_mutex_base@_STL@@QAEXXZ	; _STL::_STLP_mutex_base::_M_destroy
; Function compile flags: /Ogsy
;	COMDAT ?_M_destroy@_STLP_mutex_base@_STL@@QAEXXZ
_TEXT	SEGMENT
?_M_destroy@_STLP_mutex_base@_STL@@QAEXXZ PROC NEAR	; _STL::_STLP_mutex_base::_M_destroy, COMDAT
; _this$ = ecx

; 322  :   inline void _M_destroy() {}

  00000	c3		 ret	 0
?_M_destroy@_STLP_mutex_base@_STL@@QAEXXZ ENDP		; _STL::_STLP_mutex_base::_M_destroy
_TEXT	ENDS
PUBLIC	??0_STLP_mutex@_STL@@QAE@XZ			; _STL::_STLP_mutex::_STLP_mutex
; Function compile flags: /Ogsy
;	COMDAT ??0_STLP_mutex@_STL@@QAE@XZ
_TEXT	SEGMENT
??0_STLP_mutex@_STL@@QAE@XZ PROC NEAR			; _STL::_STLP_mutex::_STLP_mutex, COMDAT
; _this$ = ecx

; 467  :     inline _STLP_mutex () { _M_initialize(); }

  00000	8b c1		 mov	 eax, ecx
  00002	c7 00 00 00 00
	00		 mov	 DWORD PTR [eax], 0
  00008	c3		 ret	 0
??0_STLP_mutex@_STL@@QAE@XZ ENDP			; _STL::_STLP_mutex::_STLP_mutex
_TEXT	ENDS
PUBLIC	??1_STLP_mutex@_STL@@QAE@XZ			; _STL::_STLP_mutex::~_STLP_mutex
; Function compile flags: /Ogsy
;	COMDAT ??1_STLP_mutex@_STL@@QAE@XZ
_TEXT	SEGMENT
??1_STLP_mutex@_STL@@QAE@XZ PROC NEAR			; _STL::_STLP_mutex::~_STLP_mutex, COMDAT
; _this$ = ecx

; 468  :     inline ~_STLP_mutex () { _M_destroy(); }

  00000	c3		 ret	 0
??1_STLP_mutex@_STL@@QAE@XZ ENDP			; _STL::_STLP_mutex::~_STLP_mutex
_TEXT	ENDS
PUBLIC	?_Destroy@_STL@@YAXPAD0@Z			; _STL::_Destroy
; Function compile flags: /Ogsy
; File c:\stlport-4.6.1\stlport\stl\_construct.h
;	COMDAT ?_Destroy@_STL@@YAXPAD0@Z
_TEXT	SEGMENT
___formal$ = 8						; size = 4
___formal$ = 12						; size = 4
?_Destroy@_STL@@YAXPAD0@Z PROC NEAR			; _STL::_Destroy, COMDAT

; 142  : inline void _Destroy(char*, char*) {}

  00000	c3		 ret	 0
?_Destroy@_STL@@YAXPAD0@Z ENDP				; _STL::_Destroy
_TEXT	ENDS
PUBLIC	?__copy_trivial@_STL@@YAPAXPBX0PAX@Z		; _STL::__copy_trivial
EXTRN	_memmove:NEAR
; Function compile flags: /Ogsy
; File c:\stlport-4.6.1\stlport\stl\_algobase.h
;	COMDAT ?__copy_trivial@_STL@@YAPAXPBX0PAX@Z
_TEXT	SEGMENT
___first$ = 8						; size = 4
___last$ = 12						; size = 4
___result$ = 16						; size = 4
?__copy_trivial@_STL@@YAPAXPBX0PAX@Z PROC NEAR		; _STL::__copy_trivial, COMDAT

; 147  : __copy_trivial(const void* __first, const void* __last, void* __result) {

  00000	55		 push	 ebp
  00001	8b ec		 mov	 ebp, esp
  00003	56		 push	 esi

; 148  :   return (__last == __first) ? __result : 
; 149  :     ((char*)memmove(__result, __first, ((const char*)__last - (const char*)__first))) + 
; 150  :     ((const char*)__last - (const char*)__first);

  00004	8b 75 0c	 mov	 esi, DWORD PTR ___last$[ebp]
  00007	3b 75 08	 cmp	 esi, DWORD PTR ___first$[ebp]
  0000a	75 05		 jne	 SHORT $L105045
  0000c	8b 45 10	 mov	 eax, DWORD PTR ___result$[ebp]
  0000f	eb 14		 jmp	 SHORT $L105046
$L105045:
  00011	2b 75 08	 sub	 esi, DWORD PTR ___first$[ebp]
  00014	56		 push	 esi
  00015	ff 75 08	 push	 DWORD PTR ___first$[ebp]
  00018	ff 75 10	 push	 DWORD PTR ___result$[ebp]
  0001b	e8 00 00 00 00	 call	 _memmove
  00020	83 c4 0c	 add	 esp, 12			; 0000000cH
  00023	03 c6		 add	 eax, esi
$L105046:
  00025	5e		 pop	 esi

; 151  : }

  00026	5d		 pop	 ebp
  00027	c3		 ret	 0
?__copy_trivial@_STL@@YAPAXPBX0PAX@Z ENDP		; _STL::__copy_trivial
_TEXT	ENDS
PUBLIC	?is_open@iovfs_base@@QBE_NXZ			; iovfs_base::is_open
; Function compile flags: /Ogsy
; File c:\darkeden\designed_common\project\client\virtualfilesystem\vfstream.inl
;	COMDAT ?is_open@iovfs_base@@QBE_NXZ
_TEXT	SEGMENT
?is_open@iovfs_base@@QBE_NXZ PROC NEAR			; iovfs_base::is_open, COMDAT
; _this$ = ecx

; 47   : 	return m_pFileIO && m_pFileIO->is_open();

  00000	83 79 04 00	 cmp	 DWORD PTR [ecx+4], 0
  00004	74 10		 je	 SHORT $L105049
  00006	8b 49 04	 mov	 ecx, DWORD PTR [ecx+4]
  00009	8b 01		 mov	 eax, DWORD PTR [ecx]
  0000b	ff 50 0c	 call	 DWORD PTR [eax+12]
  0000e	84 c0		 test	 al, al
  00010	74 04		 je	 SHORT $L105049
  00012	33 c0		 xor	 eax, eax
  00014	40		 inc	 eax

; 48   : }

  00015	c3		 ret	 0
$L105049:

; 47   : 	return m_pFileIO && m_pFileIO->is_open();

  00016	33 c0		 xor	 eax, eax

; 48   : }

  00018	c3		 ret	 0
?is_open@iovfs_base@@QBE_NXZ ENDP			; iovfs_base::is_open
_TEXT	ENDS
PUBLIC	?uninitialized_copy@_STL@@YAPADPBD0PAD@Z	; _STL::uninitialized_copy
; Function compile flags: /Ogsy
; File c:\stlport-4.6.1\stlport\stl\_uninitialized.h
;	COMDAT ?uninitialized_copy@_STL@@YAPADPBD0PAD@Z
_TEXT	SEGMENT
___first$ = 8						; size = 4
___last$ = 12						; size = 4
___result$ = 16						; size = 4
?uninitialized_copy@_STL@@YAPADPBD0PAD@Z PROC NEAR	; _STL::uninitialized_copy, COMDAT

; 84   :   return  (char*)__copy_trivial (__first, __last, __result);

  00000	e9 00 00 00 00	 jmp	 ?__copy_trivial@_STL@@YAPAXPBX0PAX@Z ; _STL::__copy_trivial
?uninitialized_copy@_STL@@YAPADPBD0PAD@Z ENDP		; _STL::uninitialized_copy
_TEXT	ENDS
PUBLIC	?open@ivfstream@@UAEXPBDH@Z			; ivfstream::open
EXTRN	?open@iovfs_base@@UAEXPBDH@Z:NEAR		; iovfs_base::open
; Function compile flags: /Ogsy
; File c:\darkeden\designed_common\project\client\virtualfilesystem\vfstream.inl
;	COMDAT ?open@ivfstream@@UAEXPBDH@Z
_TEXT	SEGMENT
_szName$ = 8						; size = 4
_nMode$ = 12						; size = 4
?open@ivfstream@@UAEXPBDH@Z PROC NEAR			; ivfstream::open, COMDAT
; _this$ = ecx

; 76   : 	iovfs_base::open(szName, nMode | std::ios_base::in);

  00000	8b 44 24 08	 mov	 eax, DWORD PTR _nMode$[esp-4]
  00004	83 c8 08	 or	 eax, 8
  00007	50		 push	 eax
  00008	ff 74 24 08	 push	 DWORD PTR _szName$[esp]
  0000c	e8 00 00 00 00	 call	 ?open@iovfs_base@@UAEXPBDH@Z ; iovfs_base::open

; 77   : }

  00011	c2 08 00	 ret	 8
?open@ivfstream@@UAEXPBDH@Z ENDP			; ivfstream::open
_TEXT	ENDS
PUBLIC	?getline@ivfstream@@QAEPAXPADHD@Z		; ivfstream::getline
; Function compile flags: /Ogsy
;	COMDAT ?getline@ivfstream@@QAEPAXPADHD@Z
_TEXT	SEGMENT
_psch$ = 8						; size = 4
_nCount$ = 12						; size = 4
_delim$ = 16						; size = 1
?getline@ivfstream@@QAEPAXPADHD@Z PROC NEAR		; ivfstream::getline, COMDAT
; _this$ = ecx

; 107  : 	if(m_pFileIO)

  00000	83 79 04 00	 cmp	 DWORD PTR [ecx+4], 0
  00004	74 08		 je	 SHORT $L100387

; 108  : 		return m_pFileIO->getline(psch, nCount, delim);

  00006	8b 49 04	 mov	 ecx, DWORD PTR [ecx+4]
  00009	8b 01		 mov	 eax, DWORD PTR [ecx]
  0000b	ff 60 2c	 jmp	 DWORD PTR [eax+44]
$L100387:

; 109  : 	return NULL;

  0000e	33 c0		 xor	 eax, eax

; 110  : }

  00010	c2 0c 00	 ret	 12			; 0000000cH
?getline@ivfstream@@QAEPAXPADHD@Z ENDP			; ivfstream::getline
_TEXT	ENDS
PUBLIC	?compare@?$char_traits@D@_STL@@SAHPBD0I@Z	; _STL::char_traits<char>::compare
EXTRN	_memcmp:NEAR
; Function compile flags: /Ogsy
; File c:\stlport-4.6.1\stlport\stl\char_traits.h
;	COMDAT ?compare@?$char_traits@D@_STL@@SAHPBD0I@Z
_TEXT	SEGMENT
___s1$ = 8						; size = 4
___s2$ = 12						; size = 4
___n$ = 16						; size = 4
?compare@?$char_traits@D@_STL@@SAHPBD0I@Z PROC NEAR	; _STL::char_traits<char>::compare, COMDAT

; 236  :     { return memcmp(__s1, __s2, __n); }

  00000	e9 00 00 00 00	 jmp	 _memcmp
?compare@?$char_traits@D@_STL@@SAHPBD0I@Z ENDP		; _STL::char_traits<char>::compare
_TEXT	ENDS
PUBLIC	?length@?$char_traits@D@_STL@@SAIPBD@Z		; _STL::char_traits<char>::length
EXTRN	_strlen:NEAR
; Function compile flags: /Ogsy
;	COMDAT ?length@?$char_traits@D@_STL@@SAIPBD@Z
_TEXT	SEGMENT
___s$ = 8						; size = 4
?length@?$char_traits@D@_STL@@SAIPBD@Z PROC NEAR	; _STL::char_traits<char>::length, COMDAT

; 238  :   static size_t _STLP_CALL length(const char* __s) { return strlen(__s); }

  00000	e9 00 00 00 00	 jmp	 _strlen
?length@?$char_traits@D@_STL@@SAIPBD@Z ENDP		; _STL::char_traits<char>::length
_TEXT	ENDS
PUBLIC	?assign@?$char_traits@D@_STL@@SAXAADABD@Z	; _STL::char_traits<char>::assign
; Function compile flags: /Ogsy
;	COMDAT ?assign@?$char_traits@D@_STL@@SAXAADABD@Z
_TEXT	SEGMENT
___c1$ = 8						; size = 4
___c2$ = 12						; size = 4
?assign@?$char_traits@D@_STL@@SAXAADABD@Z PROC NEAR	; _STL::char_traits<char>::assign, COMDAT

; 240  :   static void _STLP_CALL assign(char& __c1, const char& __c2) { __c1 = __c2; }

  00000	8b 44 24 08	 mov	 eax, DWORD PTR ___c2$[esp-4]
  00004	8a 00		 mov	 al, BYTE PTR [eax]
  00006	8b 4c 24 04	 mov	 ecx, DWORD PTR ___c1$[esp-4]
  0000a	88 01		 mov	 BYTE PTR [ecx], al
  0000c	c3		 ret	 0
?assign@?$char_traits@D@_STL@@SAXAADABD@Z ENDP		; _STL::char_traits<char>::assign
_TEXT	ENDS
PUBLIC	?GetLength@MString@@QBEIXZ			; MString::GetLength
; Function compile flags: /Ogsy
; File c:\darkeden\designed_common\project\client\mstring.h
;	COMDAT ?GetLength@MString@@QBEIXZ
_TEXT	SEGMENT
?GetLength@MString@@QBEIXZ PROC NEAR			; MString::GetLength, COMDAT
; _this$ = ecx

; 38   : 		size_t		GetLength()	const		{ return m_Length; }

  00000	8b 41 04	 mov	 eax, DWORD PTR [ecx+4]
  00003	c3		 ret	 0
?GetLength@MString@@QBEIXZ ENDP				; MString::GetLength
_TEXT	ENDS
PUBLIC	??BMString@@QBEPBDXZ				; MString::operator char const *
; Function compile flags: /Ogsy
;	COMDAT ??BMString@@QBEPBDXZ
_TEXT	SEGMENT
??BMString@@QBEPBDXZ PROC NEAR				; MString::operator char const *, COMDAT
; _this$ = ecx

; 40   : 		operator const char*() const		{ return m_pString; }

  00000	8b 41 08	 mov	 eax, DWORD PTR [ecx+8]
  00003	c3		 ret	 0
??BMString@@QBEPBDXZ ENDP				; MString::operator char const *
_TEXT	ENDS
PUBLIC	?widen@?$ctype@D@_STL@@QBEDD@Z			; _STL::ctype<char>::widen
; Function compile flags: /Ogsy
; File c:\stlport-4.6.1\stlport\stl\_ctype.h
;	COMDAT ?widen@?$ctype@D@_STL@@QBEDD@Z
_TEXT	SEGMENT
___c$ = 8						; size = 1
?widen@?$ctype@D@_STL@@QBEDD@Z PROC NEAR		; _STL::ctype<char>::widen, COMDAT
; _this$ = ecx

; 102  :   char        widen(char __c) const { return do_widen(__c); }

  00000	8b 01		 mov	 eax, DWORD PTR [ecx]
  00002	ff 60 18	 jmp	 DWORD PTR [eax+24]
?widen@?$ctype@D@_STL@@QBEDD@Z ENDP			; _STL::ctype<char>::widen
_TEXT	ENDS
PUBLIC	??_R4MHelpMessage@@6B@				; MHelpMessage::`RTTI Complete Object Locator'
PUBLIC	??_R0?AVMHelpMessage@@@8			; MHelpMessage `RTTI Type Descriptor'
PUBLIC	??_R3MHelpMessage@@8				; MHelpMessage::`RTTI Class Hierarchy Descriptor'
PUBLIC	??_R2MHelpMessage@@8				; MHelpMessage::`RTTI Base Class Array'
PUBLIC	??_R1A@?0A@A@MHelpMessage@@8			; MHelpMessage::`RTTI Base Class Descriptor at (0,-1,0,0)'
PUBLIC	??_C@_00CNPNBAHC@?$AA@				; `string'
PUBLIC	??0MHelpMessage@@QAE@XZ				; MHelpMessage::MHelpMessage
PUBLIC	??_7MHelpMessage@@6B@				; MHelpMessage::`vftable'
PUBLIC	??_GMHelpMessage@@UAEPAXI@Z			; MHelpMessage::`scalar deleting destructor'
EXTRN	??_7type_info@@6B@:QWORD			; type_info::`vftable'
EXTRN	??_L@YGXPAXIHP6EX0@Z1@Z:NEAR			; `eh vector constructor iterator'
EXTRN	??0MString@@QAE@XZ:NEAR				; MString::MString
EXTRN	??1MString@@UAE@XZ:NEAR				; MString::~MString
EXTRN	??4MString@@QAEXPBD@Z:NEAR			; MString::operator=
EXTRN	??_M@YGXPAXIHP6EX0@Z@Z:NEAR			; `eh vector destructor iterator'
EXTRN	??_EMHelpMessage@@UAEPAXI@Z:NEAR		; MHelpMessage::`vector deleting destructor'
EXTRN	__EH_prolog:NEAR
EXTRN	__except_list:DWORD
EXTRN	___CxxFrameHandler:NEAR
;	COMDAT xdata$x
; File c:\darkeden\designed_common\project\client\mhelpmessagemanager.cpp
xdata$x	SEGMENT
$T105099 DD	0ffffffffH
	DD	FLAT:$L105085
	DD	00H
	DD	FLAT:$L105086
	DD	01H
	DD	FLAT:$L105087
	DD	02H
	DD	FLAT:$L105088
$T105092 DD	019930520H
	DD	04H
	DD	FLAT:$T105099
	DD	2 DUP(00H)
	DD	2 DUP(00H)
xdata$x	ENDS
;	COMDAT ??_7MHelpMessage@@6B@
CONST	SEGMENT
??_7MHelpMessage@@6B@ DD FLAT:??_R4MHelpMessage@@6B@	; MHelpMessage::`vftable'
	DD	FLAT:??_EMHelpMessage@@UAEPAXI@Z
CONST	ENDS
;	COMDAT ??_C@_00CNPNBAHC@?$AA@
CONST	SEGMENT
??_C@_00CNPNBAHC@?$AA@ DB 00H				; `string'
CONST	ENDS
;	COMDAT ??_R4MHelpMessage@@6B@
rdata$r	SEGMENT
??_R4MHelpMessage@@6B@ DD 00H				; MHelpMessage::`RTTI Complete Object Locator'
	DD	00H
	DD	00H
	DD	FLAT:??_R0?AVMHelpMessage@@@8
	DD	FLAT:??_R3MHelpMessage@@8
rdata$r	ENDS
;	COMDAT ??_R0?AVMHelpMessage@@@8
_DATA	SEGMENT
??_R0?AVMHelpMessage@@@8 DD FLAT:??_7type_info@@6B@	; MHelpMessage `RTTI Type Descriptor'
	DD	00H
	DB	'.?AVMHelpMessage@@', 00H
_DATA	ENDS
;	COMDAT ??_R3MHelpMessage@@8
rdata$r	SEGMENT
??_R3MHelpMessage@@8 DD 00H				; MHelpMessage::`RTTI Class Hierarchy Descriptor'
	DD	00H
	DD	01H
	DD	FLAT:??_R2MHelpMessage@@8
rdata$r	ENDS
;	COMDAT ??_R2MHelpMessage@@8
rdata$r	SEGMENT
??_R2MHelpMessage@@8 DD FLAT:??_R1A@?0A@A@MHelpMessage@@8 ; MHelpMessage::`RTTI Base Class Array'
rdata$r	ENDS
;	COMDAT ??_R1A@?0A@A@MHelpMessage@@8
rdata$r	SEGMENT
??_R1A@?0A@A@MHelpMessage@@8 DD FLAT:??_R0?AVMHelpMessage@@@8 ; MHelpMessage::`RTTI Base Class Descriptor at (0,-1,0,0)'
	DD	00H
	DD	00H
	DD	0ffffffffH
	DD	00H
	DD	00H
; Function compile flags: /Ogsy
rdata$r	ENDS
;	COMDAT ??0MHelpMessage@@QAE@XZ
_TEXT	SEGMENT
_this$ = -24						; size = 4
tv562 = -20						; size = 4
tv453 = -16						; size = 4
__$EHRec$ = -12						; size = 12
??0MHelpMessage@@QAE@XZ PROC NEAR			; MHelpMessage::MHelpMessage, COMDAT
; _this$ = ecx

; 7    : {

  00000	b8 00 00 00 00	 mov	 eax, __ehhandler$??0MHelpMessage@@QAE@XZ
  00005	e8 00 00 00 00	 call	 __EH_prolog
  0000a	83 ec 0c	 sub	 esp, 12			; 0000000cH
  0000d	53		 push	 ebx
  0000e	56		 push	 esi
  0000f	8b f1		 mov	 esi, ecx
  00011	57		 push	 edi
  00012	8d 4e 08	 lea	 ecx, DWORD PTR [esi+8]
  00015	89 75 e8	 mov	 DWORD PTR _this$[ebp], esi
  00018	c7 06 00 00 00
	00		 mov	 DWORD PTR [esi], OFFSET FLAT:??_7MHelpMessage@@6B@
  0001e	e8 00 00 00 00	 call	 ??0MString@@QAE@XZ	; MString::MString
  00023	83 65 fc 00	 and	 DWORD PTR __$EHRec$[ebp+8], 0
  00027	8d 4e 14	 lea	 ecx, DWORD PTR [esi+20]
  0002a	e8 00 00 00 00	 call	 ??0MString@@QAE@XZ	; MString::MString
  0002f	bf 00 00 00 00	 mov	 edi, OFFSET FLAT:??1MString@@UAE@XZ ; MString::~MString
  00034	57		 push	 edi
  00035	bb 00 00 00 00	 mov	 ebx, OFFSET FLAT:??0MString@@QAE@XZ ; MString::MString
  0003a	53		 push	 ebx
  0003b	6a 03		 push	 3
  0003d	8d 46 20	 lea	 eax, DWORD PTR [esi+32]
  00040	6a 0c		 push	 12			; 0000000cH
  00042	50		 push	 eax
  00043	c6 45 fc 01	 mov	 BYTE PTR __$EHRec$[ebp+8], 1
  00047	e8 00 00 00 00	 call	 ??_L@YGXPAXIHP6EX0@Z1@Z
  0004c	57		 push	 edi
  0004d	53		 push	 ebx
  0004e	6a 03		 push	 3
  00050	6a 0c		 push	 12			; 0000000cH
  00052	8d 86 98 00 00
	00		 lea	 eax, DWORD PTR [esi+152]
  00058	50		 push	 eax
  00059	c6 45 fc 02	 mov	 BYTE PTR __$EHRec$[ebp+8], 2
  0005d	e8 00 00 00 00	 call	 ??_L@YGXPAXIHP6EX0@Z1@Z

; 8    : 	m_messageType = MESSAGETYPE_NORMAL;

  00062	83 66 04 00	 and	 DWORD PTR [esi+4], 0

; 9    : 	m_strKeyword = "";

  00066	bb 00 00 00 00	 mov	 ebx, OFFSET FLAT:??_C@_00CNPNBAHC@?$AA@
  0006b	53		 push	 ebx
  0006c	8d 4e 08	 lea	 ecx, DWORD PTR [esi+8]
  0006f	c6 45 fc 03	 mov	 BYTE PTR __$EHRec$[ebp+8], 3
  00073	e8 00 00 00 00	 call	 ??4MString@@QAEXPBD@Z	; MString::operator=

; 10   : 	m_strEvent = "";

  00078	53		 push	 ebx
  00079	8d 4e 14	 lea	 ecx, DWORD PTR [esi+20]
  0007c	e8 00 00 00 00	 call	 ??4MString@@QAEXPBD@Z	; MString::operator=
  00081	8d 46 20	 lea	 eax, DWORD PTR [esi+32]
  00084	8d 7e 44	 lea	 edi, DWORD PTR [esi+68]
  00087	89 45 f0	 mov	 DWORD PTR tv453[ebp], eax
  0008a	c7 45 ec 03 00
	00 00		 mov	 DWORD PTR tv562[ebp], 3
$L105095:

; 11   : 	for(int race = 0; race < RACE_MAX; race++)
; 12   : 	{
; 13   : 		m_strDetail[race] = "";

  00091	8b 4d f0	 mov	 ecx, DWORD PTR tv453[ebp]
  00094	53		 push	 ebx
  00095	83 c1 78	 add	 ecx, 120		; 00000078H
  00098	e8 00 00 00 00	 call	 ??4MString@@QAEXPBD@Z	; MString::operator=

; 14   : 		m_strTitle[race] = "";

  0009d	8b 4d f0	 mov	 ecx, DWORD PTR tv453[ebp]
  000a0	53		 push	 ebx
  000a1	e8 00 00 00 00	 call	 ??4MString@@QAEXPBD@Z	; MString::operator=
  000a6	83 45 f0 0c	 add	 DWORD PTR tv453[ebp], 12 ; 0000000cH

; 15   : 		m_iSender[race] = -1;

  000aa	83 c8 ff	 or	 eax, -1
  000ad	89 47 48	 mov	 DWORD PTR [edi+72], eax

; 16   : 		m_iLevelMax[race] = -1;

  000b0	89 07		 mov	 DWORD PTR [edi], eax

; 17   : 		m_iLevelLow[race] = -1;

  000b2	89 47 0c	 mov	 DWORD PTR [edi+12], eax

; 18   : 		m_iDomainMax[race] = -1;

  000b5	89 47 18	 mov	 DWORD PTR [edi+24], eax

; 19   : 		m_iDomainLow[race] = -1;

  000b8	89 47 24	 mov	 DWORD PTR [edi+36], eax

; 20   : 		m_iAttrMax[race] = -1;

  000bb	89 47 30	 mov	 DWORD PTR [edi+48], eax

; 21   : 		m_iAttrLow[race] = -1;

  000be	89 47 3c	 mov	 DWORD PTR [edi+60], eax
  000c1	83 c7 04	 add	 edi, 4
  000c4	ff 4d ec	 dec	 DWORD PTR tv562[ebp]
  000c7	75 c8		 jne	 SHORT $L105095

; 22   : 		
; 23   : 	}
; 24   : }

  000c9	8b 4d f4	 mov	 ecx, DWORD PTR __$EHRec$[ebp]
  000cc	5f		 pop	 edi
  000cd	8b c6		 mov	 eax, esi
  000cf	5e		 pop	 esi
  000d0	5b		 pop	 ebx
  000d1	64 89 0d 00 00
	00 00		 mov	 DWORD PTR fs:__except_list, ecx
  000d8	c9		 leave
  000d9	c3		 ret	 0
_TEXT	ENDS
;	COMDAT text$x
text$x	SEGMENT
$L105085:
  00000	8b 4d e8	 mov	 ecx, DWORD PTR _this$[ebp]
  00003	83 c1 08	 add	 ecx, 8
  00006	e9 00 00 00 00	 jmp	 ??1MString@@UAE@XZ	; MString::~MString
$L105086:
  0000b	8b 4d e8	 mov	 ecx, DWORD PTR _this$[ebp]
  0000e	83 c1 14	 add	 ecx, 20			; 00000014H
  00011	e9 00 00 00 00	 jmp	 ??1MString@@UAE@XZ	; MString::~MString
$L105087:
  00016	68 00 00 00 00	 push	 OFFSET FLAT:??1MString@@UAE@XZ ; MString::~MString
  0001b	6a 03		 push	 3
  0001d	6a 0c		 push	 12			; 0000000cH
  0001f	8b 45 e8	 mov	 eax, DWORD PTR _this$[ebp]
  00022	83 c0 20	 add	 eax, 32			; 00000020H
  00025	50		 push	 eax
  00026	e8 00 00 00 00	 call	 ??_M@YGXPAXIHP6EX0@Z@Z
  0002b	c3		 ret	 0
$L105088:
  0002c	68 00 00 00 00	 push	 OFFSET FLAT:??1MString@@UAE@XZ ; MString::~MString
  00031	6a 03		 push	 3
  00033	6a 0c		 push	 12			; 0000000cH
  00035	8b 45 e8	 mov	 eax, DWORD PTR _this$[ebp]
  00038	05 98 00 00 00	 add	 eax, 152		; 00000098H
  0003d	50		 push	 eax
  0003e	e8 00 00 00 00	 call	 ??_M@YGXPAXIHP6EX0@Z@Z
  00043	c3		 ret	 0
__ehhandler$??0MHelpMessage@@QAE@XZ:
  00044	b8 00 00 00 00	 mov	 eax, OFFSET FLAT:$T105092
  00049	e9 00 00 00 00	 jmp	 ___CxxFrameHandler
text$x	ENDS
??0MHelpMessage@@QAE@XZ ENDP				; MHelpMessage::MHelpMessage
PUBLIC	??1MHelpMessage@@UAE@XZ				; MHelpMessage::~MHelpMessage
;	COMDAT xdata$x
xdata$x	SEGMENT
$T105112 DD	0ffffffffH
	DD	FLAT:$L105105
	DD	00H
	DD	FLAT:$L105106
	DD	01H
	DD	FLAT:$L105107
$T105110 DD	019930520H
	DD	03H
	DD	FLAT:$T105112
	DD	2 DUP(00H)
	DD	2 DUP(00H)
; Function compile flags: /Ogsy
xdata$x	ENDS
;	COMDAT ??1MHelpMessage@@UAE@XZ
_TEXT	SEGMENT
_this$ = -16						; size = 4
__$EHRec$ = -12						; size = 12
??1MHelpMessage@@UAE@XZ PROC NEAR			; MHelpMessage::~MHelpMessage, COMDAT
; _this$ = ecx

; 27   : {

  00000	b8 00 00 00 00	 mov	 eax, __ehhandler$??1MHelpMessage@@UAE@XZ
  00005	e8 00 00 00 00	 call	 __EH_prolog
  0000a	51		 push	 ecx
  0000b	56		 push	 esi
  0000c	8b f1		 mov	 esi, ecx
  0000e	57		 push	 edi
  0000f	89 75 f0	 mov	 DWORD PTR _this$[ebp], esi
  00012	c7 06 00 00 00
	00		 mov	 DWORD PTR [esi], OFFSET FLAT:??_7MHelpMessage@@6B@

; 28   : }

  00018	bf 00 00 00 00	 mov	 edi, OFFSET FLAT:??1MString@@UAE@XZ ; MString::~MString
  0001d	57		 push	 edi
  0001e	6a 03		 push	 3
  00020	6a 0c		 push	 12			; 0000000cH
  00022	8d 86 98 00 00
	00		 lea	 eax, DWORD PTR [esi+152]
  00028	50		 push	 eax
  00029	c7 45 fc 02 00
	00 00		 mov	 DWORD PTR __$EHRec$[ebp+8], 2
  00030	e8 00 00 00 00	 call	 ??_M@YGXPAXIHP6EX0@Z@Z
  00035	57		 push	 edi
  00036	6a 03		 push	 3
  00038	6a 0c		 push	 12			; 0000000cH
  0003a	8d 46 20	 lea	 eax, DWORD PTR [esi+32]
  0003d	50		 push	 eax
  0003e	c6 45 fc 01	 mov	 BYTE PTR __$EHRec$[ebp+8], 1
  00042	e8 00 00 00 00	 call	 ??_M@YGXPAXIHP6EX0@Z@Z
  00047	8d 4e 14	 lea	 ecx, DWORD PTR [esi+20]
  0004a	c6 45 fc 00	 mov	 BYTE PTR __$EHRec$[ebp+8], 0
  0004e	e8 00 00 00 00	 call	 ??1MString@@UAE@XZ	; MString::~MString
  00053	83 4d fc ff	 or	 DWORD PTR __$EHRec$[ebp+8], -1
  00057	8d 4e 08	 lea	 ecx, DWORD PTR [esi+8]
  0005a	e8 00 00 00 00	 call	 ??1MString@@UAE@XZ	; MString::~MString
  0005f	8b 4d f4	 mov	 ecx, DWORD PTR __$EHRec$[ebp]
  00062	5f		 pop	 edi
  00063	5e		 pop	 esi
  00064	64 89 0d 00 00
	00 00		 mov	 DWORD PTR fs:__except_list, ecx
  0006b	c9		 leave
  0006c	c3		 ret	 0
_TEXT	ENDS
;	COMDAT text$x
text$x	SEGMENT
$L105105:
  00000	8b 4d f0	 mov	 ecx, DWORD PTR _this$[ebp]
  00003	83 c1 08	 add	 ecx, 8
  00006	e9 00 00 00 00	 jmp	 ??1MString@@UAE@XZ	; MString::~MString
$L105106:
  0000b	8b 4d f0	 mov	 ecx, DWORD PTR _this$[ebp]
  0000e	83 c1 14	 add	 ecx, 20			; 00000014H
  00011	e9 00 00 00 00	 jmp	 ??1MString@@UAE@XZ	; MString::~MString
$L105107:
  00016	68 00 00 00 00	 push	 OFFSET FLAT:??1MString@@UAE@XZ ; MString::~MString
  0001b	6a 03		 push	 3
  0001d	6a 0c		 push	 12			; 0000000cH
  0001f	8b 45 f0	 mov	 eax, DWORD PTR _this$[ebp]
  00022	83 c0 20	 add	 eax, 32			; 00000020H
  00025	50		 push	 eax
  00026	e8 00 00 00 00	 call	 ??_M@YGXPAXIHP6EX0@Z@Z
  0002b	c3		 ret	 0
__ehhandler$??1MHelpMessage@@UAE@XZ:
  0002c	b8 00 00 00 00	 mov	 eax, OFFSET FLAT:$T105110
  00031	e9 00 00 00 00	 jmp	 ___CxxFrameHandler
text$x	ENDS
??1MHelpMessage@@UAE@XZ ENDP				; MHelpMessage::~MHelpMessage
PUBLIC	?flags@ios_base@_STL@@QBEHXZ			; _STL::ios_base::flags
; Function compile flags: /Ogsy
; File c:\stlport-4.6.1\stlport\stl\_ios_base.h
;	COMDAT ?flags@ios_base@_STL@@QBEHXZ
_TEXT	SEGMENT
?flags@ios_base@_STL@@QBEHXZ PROC NEAR			; _STL::ios_base::flags, COMDAT
; _this$ = ecx

; 115  :   fmtflags flags() const { return _M_fmtflags; }

  00000	8b 41 04	 mov	 eax, DWORD PTR [ecx+4]
  00003	c3		 ret	 0
?flags@ios_base@_STL@@QBEHXZ ENDP			; _STL::ios_base::flags
_TEXT	ENDS
PUBLIC	?flags@ios_base@_STL@@QAEHH@Z			; _STL::ios_base::flags
; Function compile flags: /Ogsy
;	COMDAT ?flags@ios_base@_STL@@QAEHH@Z
_TEXT	SEGMENT
___flags$ = 8						; size = 4
?flags@ios_base@_STL@@QAEHH@Z PROC NEAR			; _STL::ios_base::flags, COMDAT
; _this$ = ecx

; 117  :     fmtflags __tmp = _M_fmtflags;
; 118  :     _M_fmtflags = __flags;

  00000	8b 54 24 04	 mov	 edx, DWORD PTR ___flags$[esp-4]
  00004	8b 41 04	 mov	 eax, DWORD PTR [ecx+4]
  00007	89 51 04	 mov	 DWORD PTR [ecx+4], edx

; 119  :     return __tmp;
; 120  :   }

  0000a	c2 04 00	 ret	 4
?flags@ios_base@_STL@@QAEHH@Z ENDP			; _STL::ios_base::flags
_TEXT	ENDS
PUBLIC	?precision@ios_base@_STL@@QAEHH@Z		; _STL::ios_base::precision
; Function compile flags: /Ogsy
;	COMDAT ?precision@ios_base@_STL@@QAEHH@Z
_TEXT	SEGMENT
___newprecision$ = 8					; size = 4
?precision@ios_base@_STL@@QAEHH@Z PROC NEAR		; _STL::ios_base::precision, COMDAT
; _this$ = ecx

; 137  :     streamsize __tmp = _M_precision;
; 138  :     _M_precision = __newprecision;

  00000	8b 54 24 04	 mov	 edx, DWORD PTR ___newprecision$[esp-4]
  00004	8b 41 18	 mov	 eax, DWORD PTR [ecx+24]
  00007	89 51 18	 mov	 DWORD PTR [ecx+24], edx

; 139  :     return __tmp;
; 140  :   }

  0000a	c2 04 00	 ret	 4
?precision@ios_base@_STL@@QAEHH@Z ENDP			; _STL::ios_base::precision
_TEXT	ENDS
PUBLIC	?width@ios_base@_STL@@QBEHXZ			; _STL::ios_base::width
; Function compile flags: /Ogsy
;	COMDAT ?width@ios_base@_STL@@QBEHXZ
_TEXT	SEGMENT
?width@ios_base@_STL@@QBEHXZ PROC NEAR			; _STL::ios_base::width, COMDAT
; _this$ = ecx

; 142  :   streamsize width() const { return _M_width; }

  00000	8b 41 1c	 mov	 eax, DWORD PTR [ecx+28]
  00003	c3		 ret	 0
?width@ios_base@_STL@@QBEHXZ ENDP			; _STL::ios_base::width
_TEXT	ENDS
PUBLIC	?width@ios_base@_STL@@QAEHH@Z			; _STL::ios_base::width
; Function compile flags: /Ogsy
;	COMDAT ?width@ios_base@_STL@@QAEHH@Z
_TEXT	SEGMENT
___newwidth$ = 8					; size = 4
?width@ios_base@_STL@@QAEHH@Z PROC NEAR			; _STL::ios_base::width, COMDAT
; _this$ = ecx

; 144  :     streamsize __tmp = _M_width;
; 145  :     _M_width = __newwidth;

  00000	8b 54 24 04	 mov	 edx, DWORD PTR ___newwidth$[esp-4]
  00004	8b 41 1c	 mov	 eax, DWORD PTR [ecx+28]
  00007	89 51 1c	 mov	 DWORD PTR [ecx+28], edx

; 146  :     return __tmp;
; 147  :   }

  0000a	c2 04 00	 ret	 4
?width@ios_base@_STL@@QAEHH@Z ENDP			; _STL::ios_base::width
_TEXT	ENDS
PUBLIC	?getloc@ios_base@_STL@@QBE?AVlocale@2@XZ	; _STL::ios_base::getloc
EXTRN	??0locale@_STL@@QAE@ABV01@@Z:NEAR		; _STL::locale::locale
; Function compile flags: /Ogsy
;	COMDAT ?getloc@ios_base@_STL@@QBE?AVlocale@2@XZ
_TEXT	SEGMENT
$T105133 = -4						; size = 4
___$ReturnUdt$ = 8					; size = 4
?getloc@ios_base@_STL@@QBE?AVlocale@2@XZ PROC NEAR	; _STL::ios_base::getloc, COMDAT
; _this$ = ecx

; 151  :   locale getloc() const { return _M_locale; }

  00000	55		 push	 ebp
  00001	8b ec		 mov	 ebp, esp
  00003	51		 push	 ecx
  00004	83 65 fc 00	 and	 DWORD PTR $T105133[ebp], 0
  00008	83 c1 20	 add	 ecx, 32			; 00000020H
  0000b	51		 push	 ecx
  0000c	8b 4d 08	 mov	 ecx, DWORD PTR ___$ReturnUdt$[ebp]
  0000f	e8 00 00 00 00	 call	 ??0locale@_STL@@QAE@ABV01@@Z ; _STL::locale::locale
  00014	8b 45 08	 mov	 eax, DWORD PTR ___$ReturnUdt$[ebp]
  00017	c9		 leave
  00018	c2 04 00	 ret	 4
?getloc@ios_base@_STL@@QBE?AVlocale@2@XZ ENDP		; _STL::ios_base::getloc
_TEXT	ENDS
PUBLIC	?rdstate@ios_base@_STL@@QBEHXZ			; _STL::ios_base::rdstate
; Function compile flags: /Ogsy
;	COMDAT ?rdstate@ios_base@_STL@@QBEHXZ
_TEXT	SEGMENT
?rdstate@ios_base@_STL@@QBEHXZ PROC NEAR		; _STL::ios_base::rdstate, COMDAT
; _this$ = ecx

; 178  :   iostate rdstate() const { return _M_iostate; }

  00000	8b 41 08	 mov	 eax, DWORD PTR [ecx+8]
  00003	c3		 ret	 0
?rdstate@ios_base@_STL@@QBEHXZ ENDP			; _STL::ios_base::rdstate
_TEXT	ENDS
PUBLIC	?good@ios_base@_STL@@QBE_NXZ			; _STL::ios_base::good
; Function compile flags: /Ogsy
;	COMDAT ?good@ios_base@_STL@@QBE_NXZ
_TEXT	SEGMENT
?good@ios_base@_STL@@QBE_NXZ PROC NEAR			; _STL::ios_base::good, COMDAT
; _this$ = ecx

; 180  :   bool good() const { return _M_iostate == 0; }

  00000	33 c0		 xor	 eax, eax
  00002	39 41 08	 cmp	 DWORD PTR [ecx+8], eax
  00005	0f 94 c0	 sete	 al
  00008	c3		 ret	 0
?good@ios_base@_STL@@QBE_NXZ ENDP			; _STL::ios_base::good
_TEXT	ENDS
PUBLIC	?fail@ios_base@_STL@@QBE_NXZ			; _STL::ios_base::fail
; Function compile flags: /Ogsy
;	COMDAT ?fail@ios_base@_STL@@QBE_NXZ
_TEXT	SEGMENT
?fail@ios_base@_STL@@QBE_NXZ PROC NEAR			; _STL::ios_base::fail, COMDAT
; _this$ = ecx

; 182  :   bool fail() const { return (_M_iostate & (failbit | badbit)) != 0; }

  00000	8b 41 08	 mov	 eax, DWORD PTR [ecx+8]
  00003	24 05		 and	 al, 5
  00005	f6 d8		 neg	 al
  00007	1b c0		 sbb	 eax, eax
  00009	f7 d8		 neg	 eax
  0000b	c3		 ret	 0
?fail@ios_base@_STL@@QBE_NXZ ENDP			; _STL::ios_base::fail
_TEXT	ENDS
PUBLIC	?_M_setstate_nothrow@ios_base@_STL@@IAEXH@Z	; _STL::ios_base::_M_setstate_nothrow
; Function compile flags: /Ogsy
;	COMDAT ?_M_setstate_nothrow@ios_base@_STL@@IAEXH@Z
_TEXT	SEGMENT
___state$ = 8						; size = 4
?_M_setstate_nothrow@ios_base@_STL@@IAEXH@Z PROC NEAR	; _STL::ios_base::_M_setstate_nothrow, COMDAT
; _this$ = ecx

; 193  :   void _M_setstate_nothrow(iostate __state) { _M_iostate |= __state; }

  00000	8b 44 24 04	 mov	 eax, DWORD PTR ___state$[esp-4]
  00004	09 41 08	 or	 DWORD PTR [ecx+8], eax
  00007	c2 04 00	 ret	 4
?_M_setstate_nothrow@ios_base@_STL@@IAEXH@Z ENDP	; _STL::ios_base::_M_setstate_nothrow
_TEXT	ENDS
PUBLIC	?_M_clear_nothrow@ios_base@_STL@@IAEXH@Z	; _STL::ios_base::_M_clear_nothrow
; Function compile flags: /Ogsy
;	COMDAT ?_M_clear_nothrow@ios_base@_STL@@IAEXH@Z
_TEXT	SEGMENT
___state$ = 8						; size = 4
?_M_clear_nothrow@ios_base@_STL@@IAEXH@Z PROC NEAR	; _STL::ios_base::_M_clear_nothrow, COMDAT
; _this$ = ecx

; 194  :   void _M_clear_nothrow(iostate __state) { _M_iostate = __state; }

  00000	8b 44 24 04	 mov	 eax, DWORD PTR ___state$[esp-4]
  00004	89 41 08	 mov	 DWORD PTR [ecx+8], eax
  00007	c2 04 00	 ret	 4
?_M_clear_nothrow@ios_base@_STL@@IAEXH@Z ENDP		; _STL::ios_base::_M_clear_nothrow
_TEXT	ENDS
PUBLIC	?_M_get_exception_mask@ios_base@_STL@@IBEHXZ	; _STL::ios_base::_M_get_exception_mask
; Function compile flags: /Ogsy
;	COMDAT ?_M_get_exception_mask@ios_base@_STL@@IBEHXZ
_TEXT	SEGMENT
?_M_get_exception_mask@ios_base@_STL@@IBEHXZ PROC NEAR	; _STL::ios_base::_M_get_exception_mask, COMDAT
; _this$ = ecx

; 195  :   iostate _M_get_exception_mask() const { return _M_exception_mask; }

  00000	8b 41 14	 mov	 eax, DWORD PTR [ecx+20]
  00003	c3		 ret	 0
?_M_get_exception_mask@ios_base@_STL@@IBEHXZ ENDP	; _STL::ios_base::_M_get_exception_mask
_TEXT	ENDS
PUBLIC	?_M_set_exception_mask@ios_base@_STL@@IAEXH@Z	; _STL::ios_base::_M_set_exception_mask
; Function compile flags: /Ogsy
;	COMDAT ?_M_set_exception_mask@ios_base@_STL@@IAEXH@Z
_TEXT	SEGMENT
___mask$ = 8						; size = 4
?_M_set_exception_mask@ios_base@_STL@@IAEXH@Z PROC NEAR	; _STL::ios_base::_M_set_exception_mask, COMDAT
; _this$ = ecx

; 196  :   void _M_set_exception_mask(iostate __mask) { _M_exception_mask = __mask; }

  00000	8b 44 24 04	 mov	 eax, DWORD PTR ___mask$[esp-4]
  00004	89 41 14	 mov	 DWORD PTR [ecx+20], eax
  00007	c2 04 00	 ret	 4
?_M_set_exception_mask@ios_base@_STL@@IAEXH@Z ENDP	; _STL::ios_base::_M_set_exception_mask
_TEXT	ENDS
PUBLIC	?_M_check_exception_mask@ios_base@_STL@@IAEXXZ	; _STL::ios_base::_M_check_exception_mask
EXTRN	?_M_throw_failure@ios_base@_STL@@IAEXXZ:NEAR	; _STL::ios_base::_M_throw_failure
; Function compile flags: /Ogsy
;	COMDAT ?_M_check_exception_mask@ios_base@_STL@@IAEXXZ
_TEXT	SEGMENT
?_M_check_exception_mask@ios_base@_STL@@IAEXXZ PROC NEAR ; _STL::ios_base::_M_check_exception_mask, COMDAT
; _this$ = ecx

; 198  :     if (_M_iostate & _M_exception_mask)

  00000	8b 41 14	 mov	 eax, DWORD PTR [ecx+20]
  00003	85 41 08	 test	 eax, DWORD PTR [ecx+8]
  00006	74 05		 je	 SHORT $L79498

; 199  :       _M_throw_failure(); 

  00008	e9 00 00 00 00	 jmp	 ?_M_throw_failure@ios_base@_STL@@IAEXXZ ; _STL::ios_base::_M_throw_failure
$L79498:

; 200  :   }

  0000d	c3		 ret	 0
?_M_check_exception_mask@ios_base@_STL@@IAEXXZ ENDP	; _STL::ios_base::_M_check_exception_mask
_TEXT	ENDS
PUBLIC	?_M_ctype_facet@ios_base@_STL@@QBEPBVfacet@locale@2@XZ ; _STL::ios_base::_M_ctype_facet
; Function compile flags: /Ogsy
;	COMDAT ?_M_ctype_facet@ios_base@_STL@@QBEPBVfacet@locale@2@XZ
_TEXT	SEGMENT
?_M_ctype_facet@ios_base@_STL@@QBEPBVfacet@locale@2@XZ PROC NEAR ; _STL::ios_base::_M_ctype_facet, COMDAT
; _this$ = ecx

; 250  :   const locale::facet* _M_ctype_facet() const { return _M_cached_ctype; }

  00000	8b 41 40	 mov	 eax, DWORD PTR [ecx+64]
  00003	c3		 ret	 0
?_M_ctype_facet@ios_base@_STL@@QBEPBVfacet@locale@2@XZ ENDP ; _STL::ios_base::_M_ctype_facet
_TEXT	ENDS
PUBLIC	?eq_int_type@?$__char_traits_base@DH@_STL@@SA_NABH0@Z ; _STL::__char_traits_base<char,int>::eq_int_type
; Function compile flags: /Ogsy
; File c:\stlport-4.6.1\stlport\stl\char_traits.h
;	COMDAT ?eq_int_type@?$__char_traits_base@DH@_STL@@SA_NABH0@Z
_TEXT	SEGMENT
___c1$ = 8						; size = 4
___c2$ = 12						; size = 4
?eq_int_type@?$__char_traits_base@DH@_STL@@SA_NABH0@Z PROC NEAR ; _STL::__char_traits_base<char,int>::eq_int_type, COMDAT

; 193  :     return __c1 == __c2;

  00000	8b 44 24 04	 mov	 eax, DWORD PTR ___c1$[esp-4]
  00004	8b 00		 mov	 eax, DWORD PTR [eax]
  00006	8b 4c 24 08	 mov	 ecx, DWORD PTR ___c2$[esp-4]
  0000a	2b 01		 sub	 eax, DWORD PTR [ecx]
  0000c	f7 d8		 neg	 eax
  0000e	1b c0		 sbb	 eax, eax
  00010	40		 inc	 eax

; 194  :   }

  00011	c3		 ret	 0
?eq_int_type@?$__char_traits_base@DH@_STL@@SA_NABH0@Z ENDP ; _STL::__char_traits_base<char,int>::eq_int_type
_TEXT	ENDS
PUBLIC	?begin@?$basic_string@DV?$char_traits@D@_STL@@V?$allocator@D@2@@_STL@@QAEPADXZ ; _STL::basic_string<char,_STL::char_traits<char>,_STL::allocator<char> >::begin
; Function compile flags: /Ogsy
; File c:\stlport-4.6.1\stlport\stl\_string.h
;	COMDAT ?begin@?$basic_string@DV?$char_traits@D@_STL@@V?$allocator@D@2@@_STL@@QAEPADXZ
_TEXT	SEGMENT
?begin@?$basic_string@DV?$char_traits@D@_STL@@V?$allocator@D@2@@_STL@@QAEPADXZ PROC NEAR ; _STL::basic_string<char,_STL::char_traits<char>,_STL::allocator<char> >::begin, COMDAT
; _this$ = ecx

; 416  :   iterator begin()             { return this->_M_start; }

  00000	8b 01		 mov	 eax, DWORD PTR [ecx]
  00002	c3		 ret	 0
?begin@?$basic_string@DV?$char_traits@D@_STL@@V?$allocator@D@2@@_STL@@QAEPADXZ ENDP ; _STL::basic_string<char,_STL::char_traits<char>,_STL::allocator<char> >::begin
_TEXT	ENDS
PUBLIC	?end@?$basic_string@DV?$char_traits@D@_STL@@V?$allocator@D@2@@_STL@@QAEPADXZ ; _STL::basic_string<char,_STL::char_traits<char>,_STL::allocator<char> >::end
; Function compile flags: /Ogsy
;	COMDAT ?end@?$basic_string@DV?$char_traits@D@_STL@@V?$allocator@D@2@@_STL@@QAEPADXZ
_TEXT	SEGMENT
?end@?$basic_string@DV?$char_traits@D@_STL@@V?$allocator@D@2@@_STL@@QAEPADXZ PROC NEAR ; _STL::basic_string<char,_STL::char_traits<char>,_STL::allocator<char> >::end, COMDAT
; _this$ = ecx

; 417  :   iterator end()               { return this->_M_finish; }

  00000	8b 41 04	 mov	 eax, DWORD PTR [ecx+4]
  00003	c3		 ret	 0
?end@?$basic_string@DV?$char_traits@D@_STL@@V?$allocator@D@2@@_STL@@QAEPADXZ ENDP ; _STL::basic_string<char,_STL::char_traits<char>,_STL::allocator<char> >::end
_TEXT	ENDS
PUBLIC	?c_str@?$basic_string@DV?$char_traits@D@_STL@@V?$allocator@D@2@@_STL@@QBEPBDXZ ; _STL::basic_string<char,_STL::char_traits<char>,_STL::allocator<char> >::c_str
; Function compile flags: /Ogsy
;	COMDAT ?c_str@?$basic_string@DV?$char_traits@D@_STL@@V?$allocator@D@2@@_STL@@QBEPBDXZ
_TEXT	SEGMENT
?c_str@?$basic_string@DV?$char_traits@D@_STL@@V?$allocator@D@2@@_STL@@QBEPBDXZ PROC NEAR ; _STL::basic_string<char,_STL::char_traits<char>,_STL::allocator<char> >::c_str, COMDAT
; _this$ = ecx

; 1065 :   const _CharT* c_str() const { return this->_M_start; }

  00000	8b 01		 mov	 eax, DWORD PTR [ecx]
  00002	c3		 ret	 0
?c_str@?$basic_string@DV?$char_traits@D@_STL@@V?$allocator@D@2@@_STL@@QBEPBDXZ ENDP ; _STL::basic_string<char,_STL::char_traits<char>,_STL::allocator<char> >::c_str
_TEXT	ENDS
PUBLIC	?_FILE_I_set@_STL@@YAXPAU_iobuf@@PAD11@Z	; _STL::_FILE_I_set
; Function compile flags: /Ogsy
; File c:\stlport-4.6.1\stlport\stl\_stdio_file.h
;	COMDAT ?_FILE_I_set@_STL@@YAXPAU_iobuf@@PAD11@Z
_TEXT	SEGMENT
___f$ = 8						; size = 4
___begin$ = 12						; size = 4
___next$ = 16						; size = 4
___end$ = 20						; size = 4
?_FILE_I_set@_STL@@YAXPAU_iobuf@@PAD11@Z PROC NEAR	; _STL::_FILE_I_set, COMDAT

; 117  :   __f->_base = (_File_ptr_type) __begin;

  00000	8b 44 24 04	 mov	 eax, DWORD PTR ___f$[esp-4]
  00004	8b 4c 24 08	 mov	 ecx, DWORD PTR ___begin$[esp-4]

; 118  :   __f->_ptr  = (_File_ptr_type) __next;
; 119  :   __f->_cnt  = __end - __next;

  00008	8b 54 24 10	 mov	 edx, DWORD PTR ___end$[esp-4]
  0000c	89 48 08	 mov	 DWORD PTR [eax+8], ecx
  0000f	8b 4c 24 0c	 mov	 ecx, DWORD PTR ___next$[esp-4]
  00013	2b d1		 sub	 edx, ecx
  00015	89 08		 mov	 DWORD PTR [eax], ecx
  00017	89 50 04	 mov	 DWORD PTR [eax+4], edx

; 120  : }

  0001a	c3		 ret	 0
?_FILE_I_set@_STL@@YAXPAU_iobuf@@PAD11@Z ENDP		; _STL::_FILE_I_set
_TEXT	ENDS
PUBLIC	?size@?$vector@VMHelpMessage@@V?$allocator@VMHelpMessage@@@_STL@@@_STL@@QBEIXZ ; _STL::vector<MHelpMessage,_STL::allocator<MHelpMessage> >::size
; Function compile flags: /Ogsy
; File c:\stlport-4.6.1\stlport\stl\_vector.h
;	COMDAT ?size@?$vector@VMHelpMessage@@V?$allocator@VMHelpMessage@@@_STL@@@_STL@@QBEIXZ
_TEXT	SEGMENT
?size@?$vector@VMHelpMessage@@V?$allocator@VMHelpMessage@@@_STL@@@_STL@@QBEIXZ PROC NEAR ; _STL::vector<MHelpMessage,_STL::allocator<MHelpMessage> >::size, COMDAT
; _this$ = ecx

; 182  :   size_type size() const        { return size_type(this->_M_finish - this->_M_start); }

  00000	8b 41 04	 mov	 eax, DWORD PTR [ecx+4]
  00003	2b 01		 sub	 eax, DWORD PTR [ecx]
  00005	b9 bc 00 00 00	 mov	 ecx, 188		; 000000bcH
  0000a	99		 cdq
  0000b	f7 f9		 idiv	 ecx
  0000d	c3		 ret	 0
?size@?$vector@VMHelpMessage@@V?$allocator@VMHelpMessage@@@_STL@@@_STL@@QBEIXZ ENDP ; _STL::vector<MHelpMessage,_STL::allocator<MHelpMessage> >::size
_TEXT	ENDS
PUBLIC	?_FILE_O_set@_STL@@YAXPAU_iobuf@@PAD11@Z	; _STL::_FILE_O_set
; Function compile flags: /Ogsy
; File c:\stlport-4.6.1\stlport\stl\_stdio_file.h
;	COMDAT ?_FILE_O_set@_STL@@YAXPAU_iobuf@@PAD11@Z
_TEXT	SEGMENT
___f$ = 8						; size = 4
___begin$ = 12						; size = 4
___next$ = 16						; size = 4
___end$ = 20						; size = 4
?_FILE_O_set@_STL@@YAXPAU_iobuf@@PAD11@Z PROC NEAR	; _STL::_FILE_O_set, COMDAT

; 745  :   { _FILE_I_set(__f, __begin, __next, __end); }

  00000	8b 44 24 04	 mov	 eax, DWORD PTR ___f$[esp-4]
  00004	8b 4c 24 08	 mov	 ecx, DWORD PTR ___begin$[esp-4]
  00008	8b 54 24 10	 mov	 edx, DWORD PTR ___end$[esp-4]
  0000c	89 48 08	 mov	 DWORD PTR [eax+8], ecx
  0000f	8b 4c 24 0c	 mov	 ecx, DWORD PTR ___next$[esp-4]
  00013	2b d1		 sub	 edx, ecx
  00015	89 08		 mov	 DWORD PTR [eax], ecx
  00017	89 50 04	 mov	 DWORD PTR [eax+4], edx
  0001a	c3		 ret	 0
?_FILE_O_set@_STL@@YAXPAU_iobuf@@PAD11@Z ENDP		; _STL::_FILE_O_set
_TEXT	ENDS
PUBLIC	??_7?$basic_streambuf@DV?$char_traits@D@_STL@@@_STL@@6B@ ; _STL::basic_streambuf<char,_STL::char_traits<char> >::`vftable'
PUBLIC	??_G?$basic_streambuf@DV?$char_traits@D@_STL@@@_STL@@UAEPAXI@Z ; _STL::basic_streambuf<char,_STL::char_traits<char> >::`scalar deleting destructor'
PUBLIC	??_R4?$basic_streambuf@DV?$char_traits@D@_STL@@@_STL@@6B@ ; _STL::basic_streambuf<char,_STL::char_traits<char> >::`RTTI Complete Object Locator'
PUBLIC	??_R0?AV?$basic_streambuf@DV?$char_traits@D@_STL@@@_STL@@@8 ; _STL::basic_streambuf<char,_STL::char_traits<char> > `RTTI Type Descriptor'
PUBLIC	??_R3?$basic_streambuf@DV?$char_traits@D@_STL@@@_STL@@8 ; _STL::basic_streambuf<char,_STL::char_traits<char> >::`RTTI Class Hierarchy Descriptor'
PUBLIC	??_R2?$basic_streambuf@DV?$char_traits@D@_STL@@@_STL@@8 ; _STL::basic_streambuf<char,_STL::char_traits<char> >::`RTTI Base Class Array'
PUBLIC	??_R1A@?0A@A@?$basic_streambuf@DV?$char_traits@D@_STL@@@_STL@@8 ; _STL::basic_streambuf<char,_STL::char_traits<char> >::`RTTI Base Class Descriptor at (0,-1,0,0)'
PUBLIC	??0?$basic_streambuf@DV?$char_traits@D@_STL@@@_STL@@IAE@XZ ; _STL::basic_streambuf<char,_STL::char_traits<char> >::basic_streambuf<char,_STL::char_traits<char> >
EXTRN	?showmanyc@?$basic_streambuf@DV?$char_traits@D@_STL@@@_STL@@MAEHXZ:NEAR ; _STL::basic_streambuf<char,_STL::char_traits<char> >::showmanyc
EXTRN	?xsgetn@?$basic_streambuf@DV?$char_traits@D@_STL@@@_STL@@MAEHPADH@Z:NEAR ; _STL::basic_streambuf<char,_STL::char_traits<char> >::xsgetn
EXTRN	?underflow@?$basic_streambuf@DV?$char_traits@D@_STL@@@_STL@@MAEHXZ:NEAR ; _STL::basic_streambuf<char,_STL::char_traits<char> >::underflow
EXTRN	?uflow@?$basic_streambuf@DV?$char_traits@D@_STL@@@_STL@@MAEHXZ:NEAR ; _STL::basic_streambuf<char,_STL::char_traits<char> >::uflow
EXTRN	?pbackfail@?$basic_streambuf@DV?$char_traits@D@_STL@@@_STL@@MAEHH@Z:NEAR ; _STL::basic_streambuf<char,_STL::char_traits<char> >::pbackfail
EXTRN	?xsputn@?$basic_streambuf@DV?$char_traits@D@_STL@@@_STL@@MAEHPBDH@Z:NEAR ; _STL::basic_streambuf<char,_STL::char_traits<char> >::xsputn
EXTRN	?_M_xsputnc@?$basic_streambuf@DV?$char_traits@D@_STL@@@_STL@@MAEHDH@Z:NEAR ; _STL::basic_streambuf<char,_STL::char_traits<char> >::_M_xsputnc
EXTRN	?overflow@?$basic_streambuf@DV?$char_traits@D@_STL@@@_STL@@MAEHH@Z:NEAR ; _STL::basic_streambuf<char,_STL::char_traits<char> >::overflow
EXTRN	?imbue@?$basic_streambuf@DV?$char_traits@D@_STL@@@_STL@@MAEXABVlocale@2@@Z:NEAR ; _STL::basic_streambuf<char,_STL::char_traits<char> >::imbue
EXTRN	??_E?$basic_streambuf@DV?$char_traits@D@_STL@@@_STL@@UAEPAXI@Z:NEAR ; _STL::basic_streambuf<char,_STL::char_traits<char> >::`vector deleting destructor'
EXTRN	??0locale@_STL@@QAE@XZ:NEAR			; _STL::locale::locale
EXTRN	?setbuf@?$basic_streambuf@DV?$char_traits@D@_STL@@@_STL@@MAEPAV12@PADH@Z:NEAR ; _STL::basic_streambuf<char,_STL::char_traits<char> >::setbuf
EXTRN	?seekoff@?$basic_streambuf@DV?$char_traits@D@_STL@@@_STL@@MAE?AV?$fpos@H@2@JHH@Z:NEAR ; _STL::basic_streambuf<char,_STL::char_traits<char> >::seekoff
EXTRN	?seekpos@?$basic_streambuf@DV?$char_traits@D@_STL@@@_STL@@MAE?AV?$fpos@H@2@V32@H@Z:NEAR ; _STL::basic_streambuf<char,_STL::char_traits<char> >::seekpos
EXTRN	?sync@?$basic_streambuf@DV?$char_traits@D@_STL@@@_STL@@MAEHXZ:NEAR ; _STL::basic_streambuf<char,_STL::char_traits<char> >::sync
;	COMDAT ??_7?$basic_streambuf@DV?$char_traits@D@_STL@@@_STL@@6B@
CONST	SEGMENT
??_7?$basic_streambuf@DV?$char_traits@D@_STL@@@_STL@@6B@ DD FLAT:??_R4?$basic_streambuf@DV?$char_traits@D@_STL@@@_STL@@6B@ ; _STL::basic_streambuf<char,_STL::char_traits<char> >::`vftable'
	DD	FLAT:??_E?$basic_streambuf@DV?$char_traits@D@_STL@@@_STL@@UAEPAXI@Z
	DD	FLAT:?setbuf@?$basic_streambuf@DV?$char_traits@D@_STL@@@_STL@@MAEPAV12@PADH@Z
	DD	FLAT:?seekoff@?$basic_streambuf@DV?$char_traits@D@_STL@@@_STL@@MAE?AV?$fpos@H@2@JHH@Z
	DD	FLAT:?seekpos@?$basic_streambuf@DV?$char_traits@D@_STL@@@_STL@@MAE?AV?$fpos@H@2@V32@H@Z
	DD	FLAT:?sync@?$basic_streambuf@DV?$char_traits@D@_STL@@@_STL@@MAEHXZ
	DD	FLAT:?showmanyc@?$basic_streambuf@DV?$char_traits@D@_STL@@@_STL@@MAEHXZ
	DD	FLAT:?xsgetn@?$basic_streambuf@DV?$char_traits@D@_STL@@@_STL@@MAEHPADH@Z
	DD	FLAT:?underflow@?$basic_streambuf@DV?$char_traits@D@_STL@@@_STL@@MAEHXZ
	DD	FLAT:?uflow@?$basic_streambuf@DV?$char_traits@D@_STL@@@_STL@@MAEHXZ
	DD	FLAT:?pbackfail@?$basic_streambuf@DV?$char_traits@D@_STL@@@_STL@@MAEHH@Z
	DD	FLAT:?xsputn@?$basic_streambuf@DV?$char_traits@D@_STL@@@_STL@@MAEHPBDH@Z
	DD	FLAT:?_M_xsputnc@?$basic_streambuf@DV?$char_traits@D@_STL@@@_STL@@MAEHDH@Z
	DD	FLAT:?overflow@?$basic_streambuf@DV?$char_traits@D@_STL@@@_STL@@MAEHH@Z
	DD	FLAT:?imbue@?$basic_streambuf@DV?$char_traits@D@_STL@@@_STL@@MAEXABVlocale@2@@Z
CONST	ENDS
;	COMDAT ??_R4?$basic_streambuf@DV?$char_traits@D@_STL@@@_STL@@6B@
rdata$r	SEGMENT
??_R4?$basic_streambuf@DV?$char_traits@D@_STL@@@_STL@@6B@ DD 00H ; _STL::basic_streambuf<char,_STL::char_traits<char> >::`RTTI Complete Object Locator'
	DD	00H
	DD	00H
	DD	FLAT:??_R0?AV?$basic_streambuf@DV?$char_traits@D@_STL@@@_STL@@@8
	DD	FLAT:??_R3?$basic_streambuf@DV?$char_traits@D@_STL@@@_STL@@8
rdata$r	ENDS
;	COMDAT ??_R0?AV?$basic_streambuf@DV?$char_traits@D@_STL@@@_STL@@@8
_DATA	SEGMENT
??_R0?AV?$basic_streambuf@DV?$char_traits@D@_STL@@@_STL@@@8 DD FLAT:??_7type_info@@6B@ ; _STL::basic_streambuf<char,_STL::char_traits<char> > `RTTI Type Descriptor'
	DD	00H
	DB	'.?AV?$basic_streambuf@DV?$char_traits@D@_STL@@@_STL@@', 00H
_DATA	ENDS
;	COMDAT ??_R3?$basic_streambuf@DV?$char_traits@D@_STL@@@_STL@@8
rdata$r	SEGMENT
??_R3?$basic_streambuf@DV?$char_traits@D@_STL@@@_STL@@8 DD 00H ; _STL::basic_streambuf<char,_STL::char_traits<char> >::`RTTI Class Hierarchy Descriptor'
	DD	00H
	DD	01H
	DD	FLAT:??_R2?$basic_streambuf@DV?$char_traits@D@_STL@@@_STL@@8
rdata$r	ENDS
;	COMDAT ??_R2?$basic_streambuf@DV?$char_traits@D@_STL@@@_STL@@8
rdata$r	SEGMENT
??_R2?$basic_streambuf@DV?$char_traits@D@_STL@@@_STL@@8 DD FLAT:??_R1A@?0A@A@?$basic_streambuf@DV?$char_traits@D@_STL@@@_STL@@8 ; _STL::basic_streambuf<char,_STL::char_traits<char> >::`RTTI Base Class Array'
rdata$r	ENDS
;	COMDAT ??_R1A@?0A@A@?$basic_streambuf@DV?$char_traits@D@_STL@@@_STL@@8
rdata$r	SEGMENT
??_R1A@?0A@A@?$basic_streambuf@DV?$char_traits@D@_STL@@@_STL@@8 DD FLAT:??_R0?AV?$basic_streambuf@DV?$char_traits@D@_STL@@@_STL@@@8 ; _STL::basic_streambuf<char,_STL::char_traits<char> >::`RTTI Base Class Descriptor at (0,-1,0,0)'
	DD	00H
	DD	00H
	DD	0ffffffffH
	DD	00H
	DD	00H
; Function compile flags: /Ogsy
; File c:\stlport-4.6.1\stlport\stl\_streambuf.h
rdata$r	ENDS
;	COMDAT ??0?$basic_streambuf@DV?$char_traits@D@_STL@@@_STL@@IAE@XZ
_TEXT	SEGMENT
??0?$basic_streambuf@DV?$char_traits@D@_STL@@@_STL@@IAE@XZ PROC NEAR ; _STL::basic_streambuf<char,_STL::char_traits<char> >::basic_streambuf<char,_STL::char_traits<char> >, COMDAT
; _this$ = ecx

; 352  :   {

  00000	56		 push	 esi
  00001	8b f1		 mov	 esi, ecx
  00003	8d 46 0c	 lea	 eax, DWORD PTR [esi+12]
  00006	89 46 04	 mov	 DWORD PTR [esi+4], eax
  00009	8d 46 2c	 lea	 eax, DWORD PTR [esi+44]
  0000c	8d 4e 4c	 lea	 ecx, DWORD PTR [esi+76]
  0000f	c7 06 00 00 00
	00		 mov	 DWORD PTR [esi], OFFSET FLAT:??_7?$basic_streambuf@DV?$char_traits@D@_STL@@@_STL@@6B@
  00015	89 46 08	 mov	 DWORD PTR [esi+8], eax
  00018	e8 00 00 00 00	 call	 ??0locale@_STL@@QAE@XZ	; _STL::locale::locale
  0001d	33 c9		 xor	 ecx, ecx
  0001f	89 4e 50	 mov	 DWORD PTR [esi+80], ecx

; 353  :     // _M_lock._M_initialize();
; 354  :     _FILE_I_set(_M_get, 0, 0, 0);

  00022	8b 46 04	 mov	 eax, DWORD PTR [esi+4]
  00025	89 48 08	 mov	 DWORD PTR [eax+8], ecx
  00028	89 08		 mov	 DWORD PTR [eax], ecx
  0002a	89 48 04	 mov	 DWORD PTR [eax+4], ecx

; 355  :     _FILE_O_set(_M_put, 0, 0, 0);

  0002d	8b 46 08	 mov	 eax, DWORD PTR [esi+8]
  00030	89 48 08	 mov	 DWORD PTR [eax+8], ecx
  00033	89 08		 mov	 DWORD PTR [eax], ecx
  00035	89 48 04	 mov	 DWORD PTR [eax+4], ecx

; 356  :   }

  00038	8b c6		 mov	 eax, esi
  0003a	5e		 pop	 esi
  0003b	c3		 ret	 0
??0?$basic_streambuf@DV?$char_traits@D@_STL@@@_STL@@IAE@XZ ENDP ; _STL::basic_streambuf<char,_STL::char_traits<char> >::basic_streambuf<char,_STL::char_traits<char> >
_TEXT	ENDS
PUBLIC	?setg@?$basic_streambuf@DV?$char_traits@D@_STL@@@_STL@@IAEXPAD00@Z ; _STL::basic_streambuf<char,_STL::char_traits<char> >::setg
; Function compile flags: /Ogsy
;	COMDAT ?setg@?$basic_streambuf@DV?$char_traits@D@_STL@@@_STL@@IAEXPAD00@Z
_TEXT	SEGMENT
___gbegin$ = 8						; size = 4
___gnext$ = 12						; size = 4
___gend$ = 16						; size = 4
?setg@?$basic_streambuf@DV?$char_traits@D@_STL@@@_STL@@IAEXPAD00@Z PROC NEAR ; _STL::basic_streambuf<char,_STL::char_traits<char> >::setg, COMDAT
; _this$ = ecx

; 367  :     { _FILE_I_set(_M_get, __gbegin, __gnext, __gend); }

  00000	8b 41 04	 mov	 eax, DWORD PTR [ecx+4]
  00003	8b 4c 24 04	 mov	 ecx, DWORD PTR ___gbegin$[esp-4]
  00007	8b 54 24 0c	 mov	 edx, DWORD PTR ___gend$[esp-4]
  0000b	89 48 08	 mov	 DWORD PTR [eax+8], ecx
  0000e	8b 4c 24 08	 mov	 ecx, DWORD PTR ___gnext$[esp-4]
  00012	2b d1		 sub	 edx, ecx
  00014	89 08		 mov	 DWORD PTR [eax], ecx
  00016	89 50 04	 mov	 DWORD PTR [eax+4], edx
  00019	c2 0c 00	 ret	 12			; 0000000cH
?setg@?$basic_streambuf@DV?$char_traits@D@_STL@@@_STL@@IAEXPAD00@Z ENDP ; _STL::basic_streambuf<char,_STL::char_traits<char> >::setg
_TEXT	ENDS
PUBLIC	??0?$allocator@VMHelpMessage@@@_STL@@QAE@XZ	; _STL::allocator<MHelpMessage>::allocator<MHelpMessage>
; Function compile flags: /Ogsy
; File c:\stlport-4.6.1\stlport\stl\_alloc.h
;	COMDAT ??0?$allocator@VMHelpMessage@@@_STL@@QAE@XZ
_TEXT	SEGMENT
??0?$allocator@VMHelpMessage@@@_STL@@QAE@XZ PROC NEAR	; _STL::allocator<MHelpMessage>::allocator<MHelpMessage>, COMDAT
; _this$ = ecx

; 345  :   allocator() _STLP_NOTHROW {}

  00000	8b c1		 mov	 eax, ecx
  00002	c3		 ret	 0
??0?$allocator@VMHelpMessage@@@_STL@@QAE@XZ ENDP	; _STL::allocator<MHelpMessage>::allocator<MHelpMessage>
_TEXT	ENDS
PUBLIC	??1?$allocator@VMHelpMessage@@@_STL@@QAE@XZ	; _STL::allocator<MHelpMessage>::~allocator<MHelpMessage>
; Function compile flags: /Ogsy
;	COMDAT ??1?$allocator@VMHelpMessage@@@_STL@@QAE@XZ
_TEXT	SEGMENT
??1?$allocator@VMHelpMessage@@@_STL@@QAE@XZ PROC NEAR	; _STL::allocator<MHelpMessage>::~allocator<MHelpMessage>, COMDAT
; _this$ = ecx

; 350  :   ~allocator() _STLP_NOTHROW {}

  00000	c3		 ret	 0
??1?$allocator@VMHelpMessage@@@_STL@@QAE@XZ ENDP	; _STL::allocator<MHelpMessage>::~allocator<MHelpMessage>
_TEXT	ENDS
PUBLIC	?size@?$vector@VMString@@V?$allocator@VMString@@@_STL@@@_STL@@QBEIXZ ; _STL::vector<MString,_STL::allocator<MString> >::size
; Function compile flags: /Ogsy
; File c:\stlport-4.6.1\stlport\stl\_vector.h
;	COMDAT ?size@?$vector@VMString@@V?$allocator@VMString@@@_STL@@@_STL@@QBEIXZ
_TEXT	SEGMENT
?size@?$vector@VMString@@V?$allocator@VMString@@@_STL@@@_STL@@QBEIXZ PROC NEAR ; _STL::vector<MString,_STL::allocator<MString> >::size, COMDAT
; _this$ = ecx

; 182  :   size_type size() const        { return size_type(this->_M_finish - this->_M_start); }

  00000	8b 41 04	 mov	 eax, DWORD PTR [ecx+4]
  00003	2b 01		 sub	 eax, DWORD PTR [ecx]
  00005	6a 0c		 push	 12			; 0000000cH
  00007	99		 cdq
  00008	59		 pop	 ecx
  00009	f7 f9		 idiv	 ecx
  0000b	c3		 ret	 0
?size@?$vector@VMString@@V?$allocator@VMString@@@_STL@@@_STL@@QBEIXZ ENDP ; _STL::vector<MString,_STL::allocator<MString> >::size
_TEXT	ENDS
PUBLIC	?setp@?$basic_streambuf@DV?$char_traits@D@_STL@@@_STL@@IAEXPAD0@Z ; _STL::basic_streambuf<char,_STL::char_traits<char> >::setp
; Function compile flags: /Ogsy
; File c:\stlport-4.6.1\stlport\stl\_streambuf.h
;	COMDAT ?setp@?$basic_streambuf@DV?$char_traits@D@_STL@@@_STL@@IAEXPAD0@Z
_TEXT	SEGMENT
___pbegin$ = 8						; size = 4
___pend$ = 12						; size = 4
?setp@?$basic_streambuf@DV?$char_traits@D@_STL@@@_STL@@IAEXPAD0@Z PROC NEAR ; _STL::basic_streambuf<char,_STL::char_traits<char> >::setp, COMDAT
; _this$ = ecx

; 389  :     { _FILE_O_set(_M_put, __pbegin, __pbegin, __pend); }

  00000	8b 41 08	 mov	 eax, DWORD PTR [ecx+8]
  00003	8b 4c 24 04	 mov	 ecx, DWORD PTR ___pbegin$[esp-4]
  00007	8b 54 24 08	 mov	 edx, DWORD PTR ___pend$[esp-4]
  0000b	2b d1		 sub	 edx, ecx
  0000d	89 48 08	 mov	 DWORD PTR [eax+8], ecx
  00010	89 08		 mov	 DWORD PTR [eax], ecx
  00012	89 50 04	 mov	 DWORD PTR [eax+4], edx
  00015	c2 08 00	 ret	 8
?setp@?$basic_streambuf@DV?$char_traits@D@_STL@@@_STL@@IAEXPAD0@Z ENDP ; _STL::basic_streambuf<char,_STL::char_traits<char> >::setp
_TEXT	ENDS
PUBLIC	??0?$allocator@VMString@@@_STL@@QAE@XZ		; _STL::allocator<MString>::allocator<MString>
; Function compile flags: /Ogsy
; File c:\stlport-4.6.1\stlport\stl\_alloc.h
;	COMDAT ??0?$allocator@VMString@@@_STL@@QAE@XZ
_TEXT	SEGMENT
??0?$allocator@VMString@@@_STL@@QAE@XZ PROC NEAR	; _STL::allocator<MString>::allocator<MString>, COMDAT
; _this$ = ecx

; 345  :   allocator() _STLP_NOTHROW {}

  00000	8b c1		 mov	 eax, ecx
  00002	c3		 ret	 0
??0?$allocator@VMString@@@_STL@@QAE@XZ ENDP		; _STL::allocator<MString>::allocator<MString>
_TEXT	ENDS
PUBLIC	??1?$allocator@VMString@@@_STL@@QAE@XZ		; _STL::allocator<MString>::~allocator<MString>
; Function compile flags: /Ogsy
;	COMDAT ??1?$allocator@VMString@@@_STL@@QAE@XZ
_TEXT	SEGMENT
??1?$allocator@VMString@@@_STL@@QAE@XZ PROC NEAR	; _STL::allocator<MString>::~allocator<MString>, COMDAT
; _this$ = ecx

; 350  :   ~allocator() _STLP_NOTHROW {}

  00000	c3		 ret	 0
??1?$allocator@VMString@@@_STL@@QAE@XZ ENDP		; _STL::allocator<MString>::~allocator<MString>
_TEXT	ENDS
PUBLIC	?pubsync@?$basic_streambuf@DV?$char_traits@D@_STL@@@_STL@@QAEHXZ ; _STL::basic_streambuf<char,_STL::char_traits<char> >::pubsync
; Function compile flags: /Ogsy
; File c:\stlport-4.6.1\stlport\stl\_streambuf.h
;	COMDAT ?pubsync@?$basic_streambuf@DV?$char_traits@D@_STL@@@_STL@@QAEHXZ
_TEXT	SEGMENT
?pubsync@?$basic_streambuf@DV?$char_traits@D@_STL@@@_STL@@QAEHXZ PROC NEAR ; _STL::basic_streambuf<char,_STL::char_traits<char> >::pubsync, COMDAT
; _this$ = ecx

; 411  :   int pubsync() { return this->sync(); }

  00000	8b 01		 mov	 eax, DWORD PTR [ecx]
  00002	ff 60 10	 jmp	 DWORD PTR [eax+16]
?pubsync@?$basic_streambuf@DV?$char_traits@D@_STL@@@_STL@@QAEHXZ ENDP ; _STL::basic_streambuf<char,_STL::char_traits<char> >::pubsync
_TEXT	ENDS
PUBLIC	?sputn@?$basic_streambuf@DV?$char_traits@D@_STL@@@_STL@@QAEHPBDH@Z ; _STL::basic_streambuf<char,_STL::char_traits<char> >::sputn
; Function compile flags: /Ogsy
;	COMDAT ?sputn@?$basic_streambuf@DV?$char_traits@D@_STL@@@_STL@@QAEHPBDH@Z
_TEXT	SEGMENT
___s$ = 8						; size = 4
___n$ = 12						; size = 4
?sputn@?$basic_streambuf@DV?$char_traits@D@_STL@@@_STL@@QAEHPBDH@Z PROC NEAR ; _STL::basic_streambuf<char,_STL::char_traits<char> >::sputn, COMDAT
; _this$ = ecx

; 441  :     { return this->xsputn(__s, __n); }

  00000	8b 01		 mov	 eax, DWORD PTR [ecx]
  00002	ff 60 28	 jmp	 DWORD PTR [eax+40]
?sputn@?$basic_streambuf@DV?$char_traits@D@_STL@@@_STL@@QAEHPBDH@Z ENDP ; _STL::basic_streambuf<char,_STL::char_traits<char> >::sputn
_TEXT	ENDS
PUBLIC	?_M_sputnc@?$basic_streambuf@DV?$char_traits@D@_STL@@@_STL@@QAEHDH@Z ; _STL::basic_streambuf<char,_STL::char_traits<char> >::_M_sputnc
; Function compile flags: /Ogsy
;	COMDAT ?_M_sputnc@?$basic_streambuf@DV?$char_traits@D@_STL@@@_STL@@QAEHDH@Z
_TEXT	SEGMENT
___c$ = 8						; size = 1
___n$ = 12						; size = 4
?_M_sputnc@?$basic_streambuf@DV?$char_traits@D@_STL@@@_STL@@QAEHDH@Z PROC NEAR ; _STL::basic_streambuf<char,_STL::char_traits<char> >::_M_sputnc, COMDAT
; _this$ = ecx

; 445  :     { return this->_M_xsputnc(__c, __n); }

  00000	8b 01		 mov	 eax, DWORD PTR [ecx]
  00002	ff 60 2c	 jmp	 DWORD PTR [eax+44]
?_M_sputnc@?$basic_streambuf@DV?$char_traits@D@_STL@@@_STL@@QAEHDH@Z ENDP ; _STL::basic_streambuf<char,_STL::char_traits<char> >::_M_sputnc
_TEXT	ENDS
PUBLIC	??D?$reverse_iterator@PAD@_STL@@QBEAADXZ	; _STL::reverse_iterator<char *>::operator*
; Function compile flags: /Ogsy
; File c:\stlport-4.6.1\stlport\stl\_iterator.h
;	COMDAT ??D?$reverse_iterator@PAD@_STL@@QBEAADXZ
_TEXT	SEGMENT
??D?$reverse_iterator@PAD@_STL@@QBEAADXZ PROC NEAR	; _STL::reverse_iterator<char *>::operator*, COMDAT
; _this$ = ecx

; 78   :     _Iterator __tmp = current;
; 79   :     return *--__tmp;

  00000	8b 01		 mov	 eax, DWORD PTR [ecx]
  00002	48		 dec	 eax

; 80   :   }

  00003	c3		 ret	 0
??D?$reverse_iterator@PAD@_STL@@QBEAADXZ ENDP		; _STL::reverse_iterator<char *>::operator*
_TEXT	ENDS
PUBLIC	?_M_terminate_string_aux@?$basic_string@DV?$char_traits@D@_STL@@V?$allocator@D@2@@_STL@@AAEXABU__true_type@2@@Z ; _STL::basic_string<char,_STL::char_traits<char>,_STL::allocator<char> >::_M_terminate_string_aux
; Function compile flags: /Ogsy
; File c:\stlport-4.6.1\stlport\stl\_string.h
;	COMDAT ?_M_terminate_string_aux@?$basic_string@DV?$char_traits@D@_STL@@V?$allocator@D@2@@_STL@@AAEXABU__true_type@2@@Z
_TEXT	SEGMENT
___formal$ = 8						; size = 4
?_M_terminate_string_aux@?$basic_string@DV?$char_traits@D@_STL@@V?$allocator@D@2@@_STL@@AAEXABU__true_type@2@@Z PROC NEAR ; _STL::basic_string<char,_STL::char_traits<char>,_STL::allocator<char> >::_M_terminate_string_aux, COMDAT
; _this$ = ecx

; 351  :     *(this->_M_finish)=0;

  00000	8b 41 04	 mov	 eax, DWORD PTR [ecx+4]
  00003	c6 00 00	 mov	 BYTE PTR [eax], 0

; 352  :   }

  00006	c2 04 00	 ret	 4
?_M_terminate_string_aux@?$basic_string@DV?$char_traits@D@_STL@@V?$allocator@D@2@@_STL@@AAEXABU__true_type@2@@Z ENDP ; _STL::basic_string<char,_STL::char_traits<char>,_STL::allocator<char> >::_M_terminate_string_aux
_TEXT	ENDS
PUBLIC	?size@?$basic_string@DV?$char_traits@D@_STL@@V?$allocator@D@2@@_STL@@QBEIXZ ; _STL::basic_string<char,_STL::char_traits<char>,_STL::allocator<char> >::size
; Function compile flags: /Ogsy
;	COMDAT ?size@?$basic_string@DV?$char_traits@D@_STL@@V?$allocator@D@2@@_STL@@QBEIXZ
_TEXT	SEGMENT
?size@?$basic_string@DV?$char_traits@D@_STL@@V?$allocator@D@2@@_STL@@QBEIXZ PROC NEAR ; _STL::basic_string<char,_STL::char_traits<char>,_STL::allocator<char> >::size, COMDAT
; _this$ = ecx

; 431  :   size_type size() const { return this->_M_finish - this->_M_start; }

  00000	8b 41 04	 mov	 eax, DWORD PTR [ecx+4]
  00003	2b 01		 sub	 eax, DWORD PTR [ecx]
  00005	c3		 ret	 0
?size@?$basic_string@DV?$char_traits@D@_STL@@V?$allocator@D@2@@_STL@@QBEIXZ ENDP ; _STL::basic_string<char,_STL::char_traits<char>,_STL::allocator<char> >::size
_TEXT	ENDS
EXTRN	??1?$basic_streambuf@DV?$char_traits@D@_STL@@@_STL@@UAE@XZ:NEAR ; _STL::basic_streambuf<char,_STL::char_traits<char> >::~basic_streambuf<char,_STL::char_traits<char> >
; Function compile flags: /Ogsy
;	COMDAT ??_G?$basic_streambuf@DV?$char_traits@D@_STL@@@_STL@@UAEPAXI@Z
_TEXT	SEGMENT
___flags$ = 8						; size = 4
??_G?$basic_streambuf@DV?$char_traits@D@_STL@@@_STL@@UAEPAXI@Z PROC NEAR ; _STL::basic_streambuf<char,_STL::char_traits<char> >::`scalar deleting destructor', COMDAT
; _this$ = ecx
  00000	56		 push	 esi
  00001	8b f1		 mov	 esi, ecx
  00003	e8 00 00 00 00	 call	 ??1?$basic_streambuf@DV?$char_traits@D@_STL@@@_STL@@UAE@XZ ; _STL::basic_streambuf<char,_STL::char_traits<char> >::~basic_streambuf<char,_STL::char_traits<char> >
  00008	f6 44 24 08 01	 test	 BYTE PTR ___flags$[esp], 1
  0000d	74 07		 je	 SHORT $L81055
  0000f	56		 push	 esi
  00010	e8 00 00 00 00	 call	 ??3@YAXPAX@Z		; operator delete
  00015	59		 pop	 ecx
$L81055:
  00016	8b c6		 mov	 eax, esi
  00018	5e		 pop	 esi
  00019	c2 04 00	 ret	 4
??_G?$basic_streambuf@DV?$char_traits@D@_STL@@@_STL@@UAEPAXI@Z ENDP ; _STL::basic_streambuf<char,_STL::char_traits<char> >::`scalar deleting destructor'
_TEXT	ENDS
PUBLIC	??0?$allocator@D@_STL@@QAE@ABV01@@Z		; _STL::allocator<char>::allocator<char>
; Function compile flags: /Ogsy
; File c:\stlport-4.6.1\stlport\stl\_alloc.h
;	COMDAT ??0?$allocator@D@_STL@@QAE@ABV01@@Z
_TEXT	SEGMENT
___formal$ = 8						; size = 4
??0?$allocator@D@_STL@@QAE@ABV01@@Z PROC NEAR		; _STL::allocator<char>::allocator<char>, COMDAT
; _this$ = ecx

; 349  :   allocator(const allocator<_Tp>&) _STLP_NOTHROW {}

  00000	8b c1		 mov	 eax, ecx
  00002	c2 04 00	 ret	 4
??0?$allocator@D@_STL@@QAE@ABV01@@Z ENDP		; _STL::allocator<char>::allocator<char>
_TEXT	ENDS
PUBLIC	?open@?$basic_filebuf@DV?$char_traits@D@_STL@@@_STL@@QAEPAV12@PBDH@Z ; _STL::basic_filebuf<char,_STL::char_traits<char> >::open
EXTRN	?_M_open@_Filebuf_base@_STL@@QAE_NPBDH@Z:NEAR	; _STL::_Filebuf_base::_M_open
; Function compile flags: /Ogsy
; File c:\stlport-4.6.1\stlport\stl\_fstream.h
;	COMDAT ?open@?$basic_filebuf@DV?$char_traits@D@_STL@@@_STL@@QAEPAV12@PBDH@Z
_TEXT	SEGMENT
___s$ = 8						; size = 4
___m$ = 12						; size = 4
?open@?$basic_filebuf@DV?$char_traits@D@_STL@@@_STL@@QAEPAV12@PBDH@Z PROC NEAR ; _STL::basic_filebuf<char,_STL::char_traits<char> >::open, COMDAT
; _this$ = ecx

; 200  :   _Self* open(const char* __s, ios_base::openmode __m) {

  00000	56		 push	 esi

; 201  :     return _M_base._M_open(__s, __m) ? this : 0;

  00001	ff 74 24 0c	 push	 DWORD PTR ___m$[esp]
  00005	8b f1		 mov	 esi, ecx
  00007	ff 74 24 0c	 push	 DWORD PTR ___s$[esp+4]
  0000b	8d 4e 54	 lea	 ecx, DWORD PTR [esi+84]
  0000e	e8 00 00 00 00	 call	 ?_M_open@_Filebuf_base@_STL@@QAE_NPBDH@Z ; _STL::_Filebuf_base::_M_open
  00013	f6 d8		 neg	 al
  00015	1b c0		 sbb	 eax, eax
  00017	23 c6		 and	 eax, esi
  00019	5e		 pop	 esi

; 202  :   }

  0001a	c2 08 00	 ret	 8
?open@?$basic_filebuf@DV?$char_traits@D@_STL@@@_STL@@QAEPAV12@PBDH@Z ENDP ; _STL::basic_filebuf<char,_STL::char_traits<char> >::open
_TEXT	ENDS
PUBLIC	?begin@?$vector@VMHelpMessage@@V?$allocator@VMHelpMessage@@@_STL@@@_STL@@QBEPBVMHelpMessage@@XZ ; _STL::vector<MHelpMessage,_STL::allocator<MHelpMessage> >::begin
; Function compile flags: /Ogsy
; File c:\stlport-4.6.1\stlport\stl\_vector.h
;	COMDAT ?begin@?$vector@VMHelpMessage@@V?$allocator@VMHelpMessage@@@_STL@@@_STL@@QBEPBVMHelpMessage@@XZ
_TEXT	SEGMENT
?begin@?$vector@VMHelpMessage@@V?$allocator@VMHelpMessage@@@_STL@@@_STL@@QBEPBVMHelpMessage@@XZ PROC NEAR ; _STL::vector<MHelpMessage,_STL::allocator<MHelpMessage> >::begin, COMDAT
; _this$ = ecx

; 173  :   const_iterator begin() const { return this->_M_start; }

  00000	8b 01		 mov	 eax, DWORD PTR [ecx]
  00002	c3		 ret	 0
?begin@?$vector@VMHelpMessage@@V?$allocator@VMHelpMessage@@@_STL@@@_STL@@QBEPBVMHelpMessage@@XZ ENDP ; _STL::vector<MHelpMessage,_STL::allocator<MHelpMessage> >::begin
_TEXT	ENDS
PUBLIC	?begin@?$vector@VMString@@V?$allocator@VMString@@@_STL@@@_STL@@QBEPBVMString@@XZ ; _STL::vector<MString,_STL::allocator<MString> >::begin
; Function compile flags: /Ogsy
;	COMDAT ?begin@?$vector@VMString@@V?$allocator@VMString@@@_STL@@@_STL@@QBEPBVMString@@XZ
_TEXT	SEGMENT
?begin@?$vector@VMString@@V?$allocator@VMString@@@_STL@@@_STL@@QBEPBVMString@@XZ PROC NEAR ; _STL::vector<MString,_STL::allocator<MString> >::begin, COMDAT
; _this$ = ecx

; 173  :   const_iterator begin() const { return this->_M_start; }

  00000	8b 01		 mov	 eax, DWORD PTR [ecx]
  00002	c3		 ret	 0
?begin@?$vector@VMString@@V?$allocator@VMString@@@_STL@@@_STL@@QBEPBVMString@@XZ ENDP ; _STL::vector<MString,_STL::allocator<MString> >::begin
_TEXT	ENDS
PUBLIC	?unshift@?$codecvt@DDH@_STL@@QBE?AW4result@codecvt_base@2@AAHPAD1AAPAD@Z ; _STL::codecvt<char,char,int>::unshift
; Function compile flags: /Ogsy
; File c:\stlport-4.6.1\stlport\stl\_codecvt.h
;	COMDAT ?unshift@?$codecvt@DDH@_STL@@QBE?AW4result@codecvt_base@2@AAHPAD1AAPAD@Z
_TEXT	SEGMENT
___state$ = 8						; size = 4
___to$ = 12						; size = 4
___to_limit$ = 16					; size = 4
___to_next$ = 20					; size = 4
?unshift@?$codecvt@DDH@_STL@@QBE?AW4result@codecvt_base@2@AAHPAD1AAPAD@Z PROC NEAR ; _STL::codecvt<char,char,int>::unshift, COMDAT
; _this$ = ecx

; 76   :     { return do_unshift(__state, __to, __to_limit, __to_next); }

  00000	8b 01		 mov	 eax, DWORD PTR [ecx]
  00002	ff 60 0c	 jmp	 DWORD PTR [eax+12]
?unshift@?$codecvt@DDH@_STL@@QBE?AW4result@codecvt_base@2@AAHPAD1AAPAD@Z ENDP ; _STL::codecvt<char,char,int>::unshift
_TEXT	ENDS
PUBLIC	?rdbuf@?$basic_ofstream@DV?$char_traits@D@_STL@@@_STL@@QBEPAV?$basic_filebuf@DV?$char_traits@D@_STL@@@2@XZ ; _STL::basic_ofstream<char,_STL::char_traits<char> >::rdbuf
; Function compile flags: /Ogsy
; File c:\stlport-4.6.1\stlport\stl\_fstream.h
;	COMDAT ?rdbuf@?$basic_ofstream@DV?$char_traits@D@_STL@@@_STL@@QBEPAV?$basic_filebuf@DV?$char_traits@D@_STL@@@2@XZ
_TEXT	SEGMENT
?rdbuf@?$basic_ofstream@DV?$char_traits@D@_STL@@@_STL@@QBEPAV?$basic_filebuf@DV?$char_traits@D@_STL@@@2@XZ PROC NEAR ; _STL::basic_ofstream<char,_STL::char_traits<char> >::rdbuf, COMDAT
; _this$ = ecx

; 620  :     { return __CONST_CAST(_Buf*,&_M_buf); } 

  00000	8d 41 04	 lea	 eax, DWORD PTR [ecx+4]
  00003	c3		 ret	 0
?rdbuf@?$basic_ofstream@DV?$char_traits@D@_STL@@@_STL@@QBEPAV?$basic_filebuf@DV?$char_traits@D@_STL@@@2@XZ ENDP ; _STL::basic_ofstream<char,_STL::char_traits<char> >::rdbuf
_TEXT	ENDS
PUBLIC	??0?$reverse_iterator@PAD@_STL@@QAE@PAD@Z	; _STL::reverse_iterator<char *>::reverse_iterator<char *>
; Function compile flags: /Ogsy
; File c:\stlport-4.6.1\stlport\stl\_iterator.h
;	COMDAT ??0?$reverse_iterator@PAD@_STL@@QAE@PAD@Z
_TEXT	SEGMENT
___x$ = 8						; size = 4
??0?$reverse_iterator@PAD@_STL@@QAE@PAD@Z PROC NEAR	; _STL::reverse_iterator<char *>::reverse_iterator<char *>, COMDAT
; _this$ = ecx

; 66   :   explicit reverse_iterator(iterator_type __x) : current(__x) {}

  00000	8b c1		 mov	 eax, ecx
  00002	8b 4c 24 04	 mov	 ecx, DWORD PTR ___x$[esp-4]
  00006	89 08		 mov	 DWORD PTR [eax], ecx
  00008	c2 04 00	 ret	 4
??0?$reverse_iterator@PAD@_STL@@QAE@PAD@Z ENDP		; _STL::reverse_iterator<char *>::reverse_iterator<char *>
_TEXT	ENDS
PUBLIC	?encoding@?$codecvt@DDH@_STL@@QBEHXZ		; _STL::codecvt<char,char,int>::encoding
; Function compile flags: /Ogsy
; File c:\stlport-4.6.1\stlport\stl\_codecvt.h
;	COMDAT ?encoding@?$codecvt@DDH@_STL@@QBEHXZ
_TEXT	SEGMENT
?encoding@?$codecvt@DDH@_STL@@QBEHXZ PROC NEAR		; _STL::codecvt<char,char,int>::encoding, COMDAT
; _this$ = ecx

; 90   :   int encoding() const _STLP_NOTHROW { return do_encoding(); }

  00000	8b 01		 mov	 eax, DWORD PTR [ecx]
  00002	ff 60 10	 jmp	 DWORD PTR [eax+16]
?encoding@?$codecvt@DDH@_STL@@QBEHXZ ENDP		; _STL::codecvt<char,char,int>::encoding
_TEXT	ENDS
PUBLIC	??0?$reverse_iterator@PAD@_STL@@QAE@ABV01@@Z	; _STL::reverse_iterator<char *>::reverse_iterator<char *>
; Function compile flags: /Ogsy
; File c:\stlport-4.6.1\stlport\stl\_iterator.h
;	COMDAT ??0?$reverse_iterator@PAD@_STL@@QAE@ABV01@@Z
_TEXT	SEGMENT
___x$ = 8						; size = 4
??0?$reverse_iterator@PAD@_STL@@QAE@ABV01@@Z PROC NEAR	; _STL::reverse_iterator<char *>::reverse_iterator<char *>, COMDAT
; _this$ = ecx

; 67   :   reverse_iterator(const _Self& __x) : current(__x.current) {}

  00000	8b c1		 mov	 eax, ecx
  00002	8b 4c 24 04	 mov	 ecx, DWORD PTR ___x$[esp-4]
  00006	8b 09		 mov	 ecx, DWORD PTR [ecx]
  00008	89 08		 mov	 DWORD PTR [eax], ecx
  0000a	c2 04 00	 ret	 4
??0?$reverse_iterator@PAD@_STL@@QAE@ABV01@@Z ENDP	; _STL::reverse_iterator<char *>::reverse_iterator<char *>
_TEXT	ENDS
PUBLIC	?always_noconv@?$codecvt@DDH@_STL@@QBE_NXZ	; _STL::codecvt<char,char,int>::always_noconv
; Function compile flags: /Ogsy
; File c:\stlport-4.6.1\stlport\stl\_codecvt.h
;	COMDAT ?always_noconv@?$codecvt@DDH@_STL@@QBE_NXZ
_TEXT	SEGMENT
?always_noconv@?$codecvt@DDH@_STL@@QBE_NXZ PROC NEAR	; _STL::codecvt<char,char,int>::always_noconv, COMDAT
; _this$ = ecx

; 92   :   bool always_noconv() const _STLP_NOTHROW { return do_always_noconv(); }

  00000	8b 01		 mov	 eax, DWORD PTR [ecx]
  00002	ff 60 14	 jmp	 DWORD PTR [eax+20]
?always_noconv@?$codecvt@DDH@_STL@@QBE_NXZ ENDP		; _STL::codecvt<char,char,int>::always_noconv
_TEXT	ENDS
PUBLIC	??1?$_STLP_alloc_proxy@PAVMHelpMessage@@V1@V?$allocator@VMHelpMessage@@@_STL@@@_STL@@QAE@XZ ; _STL::_STLP_alloc_proxy<MHelpMessage *,MHelpMessage,_STL::allocator<MHelpMessage> >::~_STLP_alloc_proxy<MHelpMessage *,MHelpMessage,_STL::allocator<MHelpMessage> >
; Function compile flags: /Ogsy
;	COMDAT ??1?$_STLP_alloc_proxy@PAVMHelpMessage@@V1@V?$allocator@VMHelpMessage@@@_STL@@@_STL@@QAE@XZ
_TEXT	SEGMENT
??1?$_STLP_alloc_proxy@PAVMHelpMessage@@V1@V?$allocator@VMHelpMessage@@@_STL@@@_STL@@QAE@XZ PROC NEAR ; _STL::_STLP_alloc_proxy<MHelpMessage *,MHelpMessage,_STL::allocator<MHelpMessage> >::~_STLP_alloc_proxy<MHelpMessage *,MHelpMessage,_STL::allocator<MHelpMessage> >, COMDAT
; _this$ = ecx
  00000	c3		 ret	 0
??1?$_STLP_alloc_proxy@PAVMHelpMessage@@V1@V?$allocator@VMHelpMessage@@@_STL@@@_STL@@QAE@XZ ENDP ; _STL::_STLP_alloc_proxy<MHelpMessage *,MHelpMessage,_STL::allocator<MHelpMessage> >::~_STLP_alloc_proxy<MHelpMessage *,MHelpMessage,_STL::allocator<MHelpMessage> >
_TEXT	ENDS
PUBLIC	??1?$_STLP_alloc_proxy@PAVMString@@V1@V?$allocator@VMString@@@_STL@@@_STL@@QAE@XZ ; _STL::_STLP_alloc_proxy<MString *,MString,_STL::allocator<MString> >::~_STLP_alloc_proxy<MString *,MString,_STL::allocator<MString> >
; Function compile flags: /Ogsy
;	COMDAT ??1?$_STLP_alloc_proxy@PAVMString@@V1@V?$allocator@VMString@@@_STL@@@_STL@@QAE@XZ
_TEXT	SEGMENT
??1?$_STLP_alloc_proxy@PAVMString@@V1@V?$allocator@VMString@@@_STL@@@_STL@@QAE@XZ PROC NEAR ; _STL::_STLP_alloc_proxy<MString *,MString,_STL::allocator<MString> >::~_STLP_alloc_proxy<MString *,MString,_STL::allocator<MString> >, COMDAT
; _this$ = ecx
  00000	c3		 ret	 0
??1?$_STLP_alloc_proxy@PAVMString@@V1@V?$allocator@VMString@@@_STL@@@_STL@@QAE@XZ ENDP ; _STL::_STLP_alloc_proxy<MString *,MString,_STL::allocator<MString> >::~_STLP_alloc_proxy<MString *,MString,_STL::allocator<MString> >
_TEXT	ENDS
PUBLIC	?max_length@?$codecvt@DDH@_STL@@QBEHXZ		; _STL::codecvt<char,char,int>::max_length
; Function compile flags: /Ogsy
;	COMDAT ?max_length@?$codecvt@DDH@_STL@@QBEHXZ
_TEXT	SEGMENT
?max_length@?$codecvt@DDH@_STL@@QBEHXZ PROC NEAR	; _STL::codecvt<char,char,int>::max_length, COMDAT
; _this$ = ecx

; 99   :   int max_length() const _STLP_NOTHROW { return do_max_length(); }

  00000	8b 01		 mov	 eax, DWORD PTR [ecx]
  00002	ff 60 1c	 jmp	 DWORD PTR [eax+28]
?max_length@?$codecvt@DDH@_STL@@QBEHXZ ENDP		; _STL::codecvt<char,char,int>::max_length
_TEXT	ENDS
PUBLIC	?move@?$__char_traits_base@DH@_STL@@SAPADPADPBDI@Z ; _STL::__char_traits_base<char,int>::move
; Function compile flags: /Ogsy
; File c:\stlport-4.6.1\stlport\stl\char_traits.h
;	COMDAT ?move@?$__char_traits_base@DH@_STL@@SAPADPADPBDI@Z
_TEXT	SEGMENT
___s1$ = 8						; size = 4
___s2$ = 12						; size = 4
__Sz$ = 16						; size = 4
?move@?$__char_traits_base@DH@_STL@@SAPADPADPBDI@Z PROC NEAR ; _STL::__char_traits_base<char,int>::move, COMDAT

; 165  :   static _CharT* _STLP_CALL move(_CharT* __s1, const _CharT* __s2, size_t _Sz) {    

  00000	55		 push	 ebp
  00001	8b ec		 mov	 ebp, esp

; 166  :     return (_Sz == 0 ? __s1 : (_CharT*)memmove(__s1, __s2, _Sz * sizeof(_CharT)));

  00003	83 7d 10 00	 cmp	 DWORD PTR __Sz$[ebp], 0
  00007	75 05		 jne	 SHORT $L105322
  00009	8b 45 08	 mov	 eax, DWORD PTR ___s1$[ebp]

; 167  :   }

  0000c	5d		 pop	 ebp
  0000d	c3		 ret	 0
$L105322:
  0000e	5d		 pop	 ebp

; 166  :     return (_Sz == 0 ? __s1 : (_CharT*)memmove(__s1, __s2, _Sz * sizeof(_CharT)));

  0000f	e9 00 00 00 00	 jmp	 _memmove
?move@?$__char_traits_base@DH@_STL@@SAPADPADPBDI@Z ENDP	; _STL::__char_traits_base<char,int>::move
_TEXT	ENDS
PUBLIC	?copy@?$__char_traits_base@DH@_STL@@SAPADPADPBDI@Z ; _STL::__char_traits_base<char,int>::copy
EXTRN	_memcpy:NEAR
; Function compile flags: /Ogsy
;	COMDAT ?copy@?$__char_traits_base@DH@_STL@@SAPADPADPBDI@Z
_TEXT	SEGMENT
___s1$ = 8						; size = 4
___s2$ = 12						; size = 4
___n$ = 16						; size = 4
?copy@?$__char_traits_base@DH@_STL@@SAPADPADPBDI@Z PROC NEAR ; _STL::__char_traits_base<char,int>::copy, COMDAT

; 169  :   static _CharT* _STLP_CALL copy(_CharT* __s1, const _CharT* __s2, size_t __n) {

  00000	55		 push	 ebp
  00001	8b ec		 mov	 ebp, esp

; 170  :     return (__n == 0 ? __s1 :
; 171  : 	    (_CharT*)memcpy(__s1, __s2, __n * sizeof(_CharT)));

  00003	83 7d 10 00	 cmp	 DWORD PTR ___n$[ebp], 0
  00007	75 05		 jne	 SHORT $L105327
  00009	8b 45 08	 mov	 eax, DWORD PTR ___s1$[ebp]

; 172  :     } 

  0000c	5d		 pop	 ebp
  0000d	c3		 ret	 0
$L105327:
  0000e	5d		 pop	 ebp

; 170  :     return (__n == 0 ? __s1 :
; 171  : 	    (_CharT*)memcpy(__s1, __s2, __n * sizeof(_CharT)));

  0000f	e9 00 00 00 00	 jmp	 _memcpy
?copy@?$__char_traits_base@DH@_STL@@SAPADPADPBDI@Z ENDP	; _STL::__char_traits_base<char,int>::copy
_TEXT	ENDS
PUBLIC	?_M_set@?$vector@VMHelpMessage@@V?$allocator@VMHelpMessage@@@_STL@@@_STL@@IAEXPAVMHelpMessage@@00@Z ; _STL::vector<MHelpMessage,_STL::allocator<MHelpMessage> >::_M_set
; Function compile flags: /Ogsy
; File c:\stlport-4.6.1\stlport\stl\_vector.h
;	COMDAT ?_M_set@?$vector@VMHelpMessage@@V?$allocator@VMHelpMessage@@@_STL@@@_STL@@IAEXPAVMHelpMessage@@00@Z
_TEXT	SEGMENT
___s$ = 8						; size = 4
___f$ = 12						; size = 4
___e$ = 16						; size = 4
?_M_set@?$vector@VMHelpMessage@@V?$allocator@VMHelpMessage@@@_STL@@@_STL@@IAEXPAVMHelpMessage@@00@Z PROC NEAR ; _STL::vector<MHelpMessage,_STL::allocator<MHelpMessage> >::_M_set, COMDAT
; _this$ = ecx

; 501  :     this->_M_start = __s;

  00000	8b 44 24 04	 mov	 eax, DWORD PTR ___s$[esp-4]
  00004	89 01		 mov	 DWORD PTR [ecx], eax

; 502  :     this->_M_finish = __f;

  00006	8b 44 24 08	 mov	 eax, DWORD PTR ___f$[esp-4]
  0000a	89 41 04	 mov	 DWORD PTR [ecx+4], eax

; 503  :     this->_M_end_of_storage._M_data = __e;

  0000d	8b 44 24 0c	 mov	 eax, DWORD PTR ___e$[esp-4]
  00011	89 41 08	 mov	 DWORD PTR [ecx+8], eax

; 504  :   }

  00014	c2 0c 00	 ret	 12			; 0000000cH
?_M_set@?$vector@VMHelpMessage@@V?$allocator@VMHelpMessage@@@_STL@@@_STL@@IAEXPAVMHelpMessage@@00@Z ENDP ; _STL::vector<MHelpMessage,_STL::allocator<MHelpMessage> >::_M_set
_TEXT	ENDS
PUBLIC	?_M_set@?$vector@VMString@@V?$allocator@VMString@@@_STL@@@_STL@@IAEXPAVMString@@00@Z ; _STL::vector<MString,_STL::allocator<MString> >::_M_set
; Function compile flags: /Ogsy
;	COMDAT ?_M_set@?$vector@VMString@@V?$allocator@VMString@@@_STL@@@_STL@@IAEXPAVMString@@00@Z
_TEXT	SEGMENT
___s$ = 8						; size = 4
___f$ = 12						; size = 4
___e$ = 16						; size = 4
?_M_set@?$vector@VMString@@V?$allocator@VMString@@@_STL@@@_STL@@IAEXPAVMString@@00@Z PROC NEAR ; _STL::vector<MString,_STL::allocator<MString> >::_M_set, COMDAT
; _this$ = ecx

; 501  :     this->_M_start = __s;

  00000	8b 44 24 04	 mov	 eax, DWORD PTR ___s$[esp-4]
  00004	89 01		 mov	 DWORD PTR [ecx], eax

; 502  :     this->_M_finish = __f;

  00006	8b 44 24 08	 mov	 eax, DWORD PTR ___f$[esp-4]
  0000a	89 41 04	 mov	 DWORD PTR [ecx+4], eax

; 503  :     this->_M_end_of_storage._M_data = __e;

  0000d	8b 44 24 0c	 mov	 eax, DWORD PTR ___e$[esp-4]
  00011	89 41 08	 mov	 DWORD PTR [ecx+8], eax

; 504  :   }

  00014	c2 0c 00	 ret	 12			; 0000000cH
?_M_set@?$vector@VMString@@V?$allocator@VMString@@@_STL@@@_STL@@IAEXPAVMString@@00@Z ENDP ; _STL::vector<MString,_STL::allocator<MString> >::_M_set
_TEXT	ENDS
PUBLIC	?__is_open@_Filebuf_base@_STL@@QBE_NXZ		; _STL::_Filebuf_base::__is_open
; Function compile flags: /Ogsy
; File c:\stlport-4.6.1\stlport\stl\_fstream.h
;	COMDAT ?__is_open@_Filebuf_base@_STL@@QBE_NXZ
_TEXT	SEGMENT
?__is_open@_Filebuf_base@_STL@@QBE_NXZ PROC NEAR	; _STL::_Filebuf_base::__is_open, COMDAT
; _this$ = ecx

; 150  :   bool __is_open()      const { return (_M_is_open !=0 ); } 

  00000	33 c0		 xor	 eax, eax
  00002	38 41 0c	 cmp	 BYTE PTR [ecx+12], al
  00005	0f 95 c0	 setne	 al
  00008	c3		 ret	 0
?__is_open@_Filebuf_base@_STL@@QBE_NXZ ENDP		; _STL::_Filebuf_base::__is_open
_TEXT	ENDS
PUBLIC	?rdbuf@?$basic_ios@DV?$char_traits@D@_STL@@@_STL@@QBEPAV?$basic_streambuf@DV?$char_traits@D@_STL@@@2@XZ ; _STL::basic_ios<char,_STL::char_traits<char> >::rdbuf
; Function compile flags: /Ogsy
; File c:\stlport-4.6.1\stlport\stl\_ios.h
;	COMDAT ?rdbuf@?$basic_ios@DV?$char_traits@D@_STL@@@_STL@@QBEPAV?$basic_streambuf@DV?$char_traits@D@_STL@@@2@XZ
_TEXT	SEGMENT
?rdbuf@?$basic_ios@DV?$char_traits@D@_STL@@@_STL@@QBEPAV?$basic_streambuf@DV?$char_traits@D@_STL@@@2@XZ PROC NEAR ; _STL::basic_ios<char,_STL::char_traits<char> >::rdbuf, COMDAT
; _this$ = ecx

; 72   :     { return _M_streambuf; }

  00000	8b 41 58	 mov	 eax, DWORD PTR [ecx+88]
  00003	c3		 ret	 0
?rdbuf@?$basic_ios@DV?$char_traits@D@_STL@@@_STL@@QBEPAV?$basic_streambuf@DV?$char_traits@D@_STL@@@2@XZ ENDP ; _STL::basic_ios<char,_STL::char_traits<char> >::rdbuf
_TEXT	ENDS
PUBLIC	??0?$allocator@VMHelpMessage@@@_STL@@QAE@ABV01@@Z ; _STL::allocator<MHelpMessage>::allocator<MHelpMessage>
; Function compile flags: /Ogsy
; File c:\stlport-4.6.1\stlport\stl\_alloc.h
;	COMDAT ??0?$allocator@VMHelpMessage@@@_STL@@QAE@ABV01@@Z
_TEXT	SEGMENT
___formal$ = 8						; size = 4
??0?$allocator@VMHelpMessage@@@_STL@@QAE@ABV01@@Z PROC NEAR ; _STL::allocator<MHelpMessage>::allocator<MHelpMessage>, COMDAT
; _this$ = ecx

; 349  :   allocator(const allocator<_Tp>&) _STLP_NOTHROW {}

  00000	8b c1		 mov	 eax, ecx
  00002	c2 04 00	 ret	 4
??0?$allocator@VMHelpMessage@@@_STL@@QAE@ABV01@@Z ENDP	; _STL::allocator<MHelpMessage>::allocator<MHelpMessage>
_TEXT	ENDS
PUBLIC	??0?$allocator@VMString@@@_STL@@QAE@ABV01@@Z	; _STL::allocator<MString>::allocator<MString>
; Function compile flags: /Ogsy
;	COMDAT ??0?$allocator@VMString@@@_STL@@QAE@ABV01@@Z
_TEXT	SEGMENT
___formal$ = 8						; size = 4
??0?$allocator@VMString@@@_STL@@QAE@ABV01@@Z PROC NEAR	; _STL::allocator<MString>::allocator<MString>, COMDAT
; _this$ = ecx

; 349  :   allocator(const allocator<_Tp>&) _STLP_NOTHROW {}

  00000	8b c1		 mov	 eax, ecx
  00002	c2 04 00	 ret	 4
??0?$allocator@VMString@@@_STL@@QAE@ABV01@@Z ENDP	; _STL::allocator<MString>::allocator<MString>
_TEXT	ENDS
PUBLIC	??_C@_0N@GOPDCEEB@basic_string?$AA@		; `string'
PUBLIC	?_M_throw_out_of_range@?$_String_base@DV?$allocator@D@_STL@@@_STL@@QBEXXZ ; _STL::_String_base<char,_STL::allocator<char> >::_M_throw_out_of_range
EXTRN	?__stl_throw_out_of_range@_STL@@YAXPBD@Z:NEAR	; _STL::__stl_throw_out_of_range
;	COMDAT ??_C@_0N@GOPDCEEB@basic_string?$AA@
; File c:\stlport-4.6.1\stlport\stl\_string.c
CONST	SEGMENT
??_C@_0N@GOPDCEEB@basic_string?$AA@ DB 'basic_string', 00H ; `string'
; Function compile flags: /Ogsy
CONST	ENDS
;	COMDAT ?_M_throw_out_of_range@?$_String_base@DV?$allocator@D@_STL@@@_STL@@QBEXXZ
_TEXT	SEGMENT
?_M_throw_out_of_range@?$_String_base@DV?$allocator@D@_STL@@@_STL@@QBEXXZ PROC NEAR ; _STL::_String_base<char,_STL::allocator<char> >::_M_throw_out_of_range, COMDAT
; _this$ = ecx

; 527  :     __stl_throw_out_of_range("basic_string");

  00000	68 00 00 00 00	 push	 OFFSET FLAT:??_C@_0N@GOPDCEEB@basic_string?$AA@
  00005	e8 00 00 00 00	 call	 ?__stl_throw_out_of_range@_STL@@YAXPBD@Z ; _STL::__stl_throw_out_of_range
  0000a	59		 pop	 ecx

; 528  : }

  0000b	c3		 ret	 0
?_M_throw_out_of_range@?$_String_base@DV?$allocator@D@_STL@@@_STL@@QBEXXZ ENDP ; _STL::_String_base<char,_STL::allocator<char> >::_M_throw_out_of_range
_TEXT	ENDS
PUBLIC	?_M_exit_input_mode@?$basic_filebuf@DV?$char_traits@D@_STL@@@_STL@@AAEXXZ ; _STL::basic_filebuf<char,_STL::char_traits<char> >::_M_exit_input_mode
EXTRN	?_M_unmap@_Filebuf_base@_STL@@QAEXPAXJ@Z:NEAR	; _STL::_Filebuf_base::_M_unmap
; Function compile flags: /Ogsy
; File c:\stlport-4.6.1\stlport\stl\_fstream.c
;	COMDAT ?_M_exit_input_mode@?$basic_filebuf@DV?$char_traits@D@_STL@@@_STL@@AAEXXZ
_TEXT	SEGMENT
?_M_exit_input_mode@?$basic_filebuf@DV?$char_traits@D@_STL@@@_STL@@AAEXXZ PROC NEAR ; _STL::basic_filebuf<char,_STL::char_traits<char> >::_M_exit_input_mode, COMDAT
; _this$ = ecx

; 119  : {

  00000	56		 push	 esi
  00001	8b f1		 mov	 esi, ecx

; 120  :    if (_M_mmap_base != 0)

  00003	8b 86 8c 00 00
	00		 mov	 eax, DWORD PTR [esi+140]
  00009	85 c0		 test	 eax, eax
  0000b	74 0f		 je	 SHORT $L102645

; 121  :      _M_base._M_unmap(_M_mmap_base, _M_mmap_len); 

  0000d	ff b6 90 00 00
	00		 push	 DWORD PTR [esi+144]
  00013	8d 4e 54	 lea	 ecx, DWORD PTR [esi+84]
  00016	50		 push	 eax
  00017	e8 00 00 00 00	 call	 ?_M_unmap@_Filebuf_base@_STL@@QAEXPAXJ@Z ; _STL::_Filebuf_base::_M_unmap
$L102645:

; 122  :    _M_in_input_mode = false;
; 123  :    _M_mmap_base = 0;

  0001c	83 a6 8c 00 00
	00 00		 and	 DWORD PTR [esi+140], 0
  00023	c6 46 67 00	 mov	 BYTE PTR [esi+103], 0
  00027	5e		 pop	 esi

; 124  : }

  00028	c3		 ret	 0
?_M_exit_input_mode@?$basic_filebuf@DV?$char_traits@D@_STL@@@_STL@@AAEXXZ ENDP ; _STL::basic_filebuf<char,_STL::char_traits<char> >::_M_exit_input_mode
_TEXT	ENDS
PUBLIC	?_M_deallocate_buffers@?$basic_filebuf@DV?$char_traits@D@_STL@@@_STL@@AAEXXZ ; _STL::basic_filebuf<char,_STL::char_traits<char> >::_M_deallocate_buffers
EXTRN	_free:NEAR
; Function compile flags: /Ogsy
;	COMDAT ?_M_deallocate_buffers@?$basic_filebuf@DV?$char_traits@D@_STL@@@_STL@@AAEXXZ
_TEXT	SEGMENT
?_M_deallocate_buffers@?$basic_filebuf@DV?$char_traits@D@_STL@@@_STL@@AAEXXZ PROC NEAR ; _STL::basic_filebuf<char,_STL::char_traits<char> >::_M_deallocate_buffers, COMDAT
; _this$ = ecx

; 684  : {

  00000	53		 push	 ebx
  00001	56		 push	 esi
  00002	8b f1		 mov	 esi, ecx

; 685  :   if (_M_int_buf_dynamic)

  00004	33 db		 xor	 ebx, ebx
  00006	38 5e 66	 cmp	 BYTE PTR [esi+102], bl
  00009	74 09		 je	 SHORT $L102690

; 686  :     free(_M_int_buf);

  0000b	ff 76 6c	 push	 DWORD PTR [esi+108]
  0000e	e8 00 00 00 00	 call	 _free
  00013	59		 pop	 ecx
$L102690:

; 687  :   free(_M_ext_buf);

  00014	ff 76 74	 push	 DWORD PTR [esi+116]
  00017	e8 00 00 00 00	 call	 _free
  0001c	59		 pop	 ecx

; 688  :   _M_int_buf     = 0;

  0001d	89 5e 6c	 mov	 DWORD PTR [esi+108], ebx

; 689  :   _M_int_buf_EOS = 0;

  00020	89 5e 70	 mov	 DWORD PTR [esi+112], ebx

; 690  :   _M_ext_buf     = 0;

  00023	89 5e 74	 mov	 DWORD PTR [esi+116], ebx

; 691  :   _M_ext_buf_EOS = 0;

  00026	89 5e 78	 mov	 DWORD PTR [esi+120], ebx
  00029	5e		 pop	 esi
  0002a	5b		 pop	 ebx

; 692  : }

  0002b	c3		 ret	 0
?_M_deallocate_buffers@?$basic_filebuf@DV?$char_traits@D@_STL@@@_STL@@AAEXXZ ENDP ; _STL::basic_filebuf<char,_STL::char_traits<char> >::_M_deallocate_buffers
_TEXT	ENDS
PUBLIC	??_R4?$basic_ios@DV?$char_traits@D@_STL@@@_STL@@6B@ ; _STL::basic_ios<char,_STL::char_traits<char> >::`RTTI Complete Object Locator'
PUBLIC	??_R3?$basic_ios@DV?$char_traits@D@_STL@@@_STL@@8 ; _STL::basic_ios<char,_STL::char_traits<char> >::`RTTI Class Hierarchy Descriptor'
PUBLIC	??_R2?$basic_ios@DV?$char_traits@D@_STL@@@_STL@@8 ; _STL::basic_ios<char,_STL::char_traits<char> >::`RTTI Base Class Array'
PUBLIC	??_R1A@?0A@A@?$basic_ios@DV?$char_traits@D@_STL@@@_STL@@8 ; _STL::basic_ios<char,_STL::char_traits<char> >::`RTTI Base Class Descriptor at (0,-1,0,0)'
PUBLIC	??_R1A@?0A@A@ios_base@_STL@@8			; _STL::ios_base::`RTTI Base Class Descriptor at (0,-1,0,0)'
PUBLIC	??0?$basic_ios@DV?$char_traits@D@_STL@@@_STL@@IAE@XZ ; _STL::basic_ios<char,_STL::char_traits<char> >::basic_ios<char,_STL::char_traits<char> >
PUBLIC	??_7?$basic_ios@DV?$char_traits@D@_STL@@@_STL@@6B@ ; _STL::basic_ios<char,_STL::char_traits<char> >::`vftable'
PUBLIC	??_G?$basic_ios@DV?$char_traits@D@_STL@@@_STL@@UAEPAXI@Z ; _STL::basic_ios<char,_STL::char_traits<char> >::`scalar deleting destructor'
PUBLIC	??_R0?AV?$basic_ios@DV?$char_traits@D@_STL@@@_STL@@@8 ; _STL::basic_ios<char,_STL::char_traits<char> > `RTTI Type Descriptor'
PUBLIC	??_R0?AVios_base@_STL@@@8			; _STL::ios_base `RTTI Type Descriptor'
EXTRN	??_E?$basic_ios@DV?$char_traits@D@_STL@@@_STL@@UAEPAXI@Z:NEAR ; _STL::basic_ios<char,_STL::char_traits<char> >::`vector deleting destructor'
EXTRN	??0ios_base@_STL@@IAE@XZ:NEAR			; _STL::ios_base::ios_base
;	COMDAT ??_7?$basic_ios@DV?$char_traits@D@_STL@@@_STL@@6B@
; File c:\stlport-4.6.1\stlport\stl\_ios.c
CONST	SEGMENT
??_7?$basic_ios@DV?$char_traits@D@_STL@@@_STL@@6B@ DD FLAT:??_R4?$basic_ios@DV?$char_traits@D@_STL@@@_STL@@6B@ ; _STL::basic_ios<char,_STL::char_traits<char> >::`vftable'
	DD	FLAT:??_E?$basic_ios@DV?$char_traits@D@_STL@@@_STL@@UAEPAXI@Z
CONST	ENDS
;	COMDAT ??_R4?$basic_ios@DV?$char_traits@D@_STL@@@_STL@@6B@
rdata$r	SEGMENT
??_R4?$basic_ios@DV?$char_traits@D@_STL@@@_STL@@6B@ DD 00H ; _STL::basic_ios<char,_STL::char_traits<char> >::`RTTI Complete Object Locator'
	DD	00H
	DD	00H
	DD	FLAT:??_R0?AV?$basic_ios@DV?$char_traits@D@_STL@@@_STL@@@8
	DD	FLAT:??_R3?$basic_ios@DV?$char_traits@D@_STL@@@_STL@@8
rdata$r	ENDS
;	COMDAT ??_R0?AV?$basic_ios@DV?$char_traits@D@_STL@@@_STL@@@8
_DATA	SEGMENT
??_R0?AV?$basic_ios@DV?$char_traits@D@_STL@@@_STL@@@8 DD FLAT:??_7type_info@@6B@ ; _STL::basic_ios<char,_STL::char_traits<char> > `RTTI Type Descriptor'
	DD	00H
	DB	'.?AV?$basic_ios@DV?$char_traits@D@_STL@@@_STL@@', 00H
_DATA	ENDS
;	COMDAT ??_R3?$basic_ios@DV?$char_traits@D@_STL@@@_STL@@8
rdata$r	SEGMENT
??_R3?$basic_ios@DV?$char_traits@D@_STL@@@_STL@@8 DD 00H ; _STL::basic_ios<char,_STL::char_traits<char> >::`RTTI Class Hierarchy Descriptor'
	DD	00H
	DD	02H
	DD	FLAT:??_R2?$basic_ios@DV?$char_traits@D@_STL@@@_STL@@8
rdata$r	ENDS
;	COMDAT ??_R2?$basic_ios@DV?$char_traits@D@_STL@@@_STL@@8
rdata$r	SEGMENT
??_R2?$basic_ios@DV?$char_traits@D@_STL@@@_STL@@8 DD FLAT:??_R1A@?0A@A@?$basic_ios@DV?$char_traits@D@_STL@@@_STL@@8 ; _STL::basic_ios<char,_STL::char_traits<char> >::`RTTI Base Class Array'
	DD	FLAT:??_R1A@?0A@A@ios_base@_STL@@8
rdata$r	ENDS
;	COMDAT ??_R1A@?0A@A@?$basic_ios@DV?$char_traits@D@_STL@@@_STL@@8
rdata$r	SEGMENT
??_R1A@?0A@A@?$basic_ios@DV?$char_traits@D@_STL@@@_STL@@8 DD FLAT:??_R0?AV?$basic_ios@DV?$char_traits@D@_STL@@@_STL@@@8 ; _STL::basic_ios<char,_STL::char_traits<char> >::`RTTI Base Class Descriptor at (0,-1,0,0)'
	DD	01H
	DD	00H
	DD	0ffffffffH
	DD	00H
	DD	00H
rdata$r	ENDS
;	COMDAT ??_R1A@?0A@A@ios_base@_STL@@8
rdata$r	SEGMENT
??_R1A@?0A@A@ios_base@_STL@@8 DD FLAT:??_R0?AVios_base@_STL@@@8 ; _STL::ios_base::`RTTI Base Class Descriptor at (0,-1,0,0)'
	DD	00H
	DD	00H
	DD	0ffffffffH
	DD	00H
	DD	00H
rdata$r	ENDS
;	COMDAT ??_R0?AVios_base@_STL@@@8
_DATA	SEGMENT
??_R0?AVios_base@_STL@@@8 DD FLAT:??_7type_info@@6B@	; _STL::ios_base `RTTI Type Descriptor'
	DD	00H
	DB	'.?AVios_base@_STL@@', 00H
; Function compile flags: /Ogsy
_DATA	ENDS
;	COMDAT ??0?$basic_ios@DV?$char_traits@D@_STL@@@_STL@@IAE@XZ
_TEXT	SEGMENT
??0?$basic_ios@DV?$char_traits@D@_STL@@@_STL@@IAE@XZ PROC NEAR ; _STL::basic_ios<char,_STL::char_traits<char> >::basic_ios<char,_STL::char_traits<char> >, COMDAT
; _this$ = ecx

; 95   : {}

  00000	56		 push	 esi
  00001	8b f1		 mov	 esi, ecx
  00003	e8 00 00 00 00	 call	 ??0ios_base@_STL@@IAE@XZ ; _STL::ios_base::ios_base
  00008	33 c0		 xor	 eax, eax
  0000a	88 46 54	 mov	 BYTE PTR [esi+84], al
  0000d	89 46 58	 mov	 DWORD PTR [esi+88], eax
  00010	89 46 5c	 mov	 DWORD PTR [esi+92], eax
  00013	c7 06 00 00 00
	00		 mov	 DWORD PTR [esi], OFFSET FLAT:??_7?$basic_ios@DV?$char_traits@D@_STL@@@_STL@@6B@
  00019	8b c6		 mov	 eax, esi
  0001b	5e		 pop	 esi
  0001c	c3		 ret	 0
??0?$basic_ios@DV?$char_traits@D@_STL@@@_STL@@IAE@XZ ENDP ; _STL::basic_ios<char,_STL::char_traits<char> >::basic_ios<char,_STL::char_traits<char> >
_TEXT	ENDS
PUBLIC	??$_Destroy@VMHelpMessage@@@_STL@@YAXPAVMHelpMessage@@@Z ; _STL::_Destroy<MHelpMessage>
; Function compile flags: /Ogsy
; File c:\stlport-4.6.1\stlport\stl\_construct.h
;	COMDAT ??$_Destroy@VMHelpMessage@@@_STL@@YAXPAVMHelpMessage@@@Z
_TEXT	SEGMENT
___pointer$ = 8						; size = 4
??$_Destroy@VMHelpMessage@@@_STL@@YAXPAVMHelpMessage@@@Z PROC NEAR ; _STL::_Destroy<MHelpMessage>, COMDAT

; 57   : # if _MSC_VER >= 1010
; 58   :   __pointer;
; 59   : # endif	// _MSC_VER >= 1000
; 60   : # ifdef _STLP_TRIVIAL_DESTRUCTOR_BUG
; 61   :   typedef typename __type_traits<_Tp>::has_trivial_destructor _Trivial_destructor;
; 62   :   __destroy_aux(__pointer, _Trivial_destructor());
; 63   : # else
; 64   : #  if ( defined (__BORLANDC__) && ( __BORLANDC__ < 0x500 ) )
; 65   :     __pointer->_Tp::~_Tp();
; 66   : #  else
; 67   :     __pointer->~_Tp();

  00000	8b 4c 24 04	 mov	 ecx, DWORD PTR ___pointer$[esp-4]
  00004	8b 01		 mov	 eax, DWORD PTR [ecx]
  00006	6a 00		 push	 0
  00008	ff 10		 call	 DWORD PTR [eax]

; 68   : #  endif
; 69   : # endif
; 70   : # ifdef _STLP_DEBUG_UNINITIALIZED
; 71   : 	memset((char*)__pointer, _STLP_SHRED_BYTE, sizeof(_Tp));
; 72   : # endif
; 73   : }

  0000a	c3		 ret	 0
??$_Destroy@VMHelpMessage@@@_STL@@YAXPAVMHelpMessage@@@Z ENDP ; _STL::_Destroy<MHelpMessage>
_TEXT	ENDS
PUBLIC	??$_Construct@VMString@@V1@@_STL@@YAXPAVMString@@ABV1@@Z ; _STL::_Construct<MString,MString>
EXTRN	??0MString@@QAE@ABV0@@Z:NEAR			; MString::MString
;	COMDAT xdata$x
; File c:\program files\microsoft visual studio .net 2003\vc7\include\new
xdata$x	SEGMENT
$T105377 DD	0ffffffffH
	DD	FLAT:$L105370
$T105375 DD	019930520H
	DD	01H
	DD	FLAT:$T105377
	DD	2 DUP(00H)
	DD	2 DUP(00H)
; Function compile flags: /Ogsy
; File c:\stlport-4.6.1\stlport\stl\_construct.h
xdata$x	ENDS
;	COMDAT ??$_Construct@VMString@@V1@@_STL@@YAXPAVMString@@ABV1@@Z
_TEXT	SEGMENT
$T105367 = -16						; size = 4
__$EHRec$ = -12						; size = 12
___p$ = 8						; size = 4
___val$ = 12						; size = 4
??$_Construct@VMString@@V1@@_STL@@YAXPAVMString@@ABV1@@Z PROC NEAR ; _STL::_Construct<MString,MString>, COMDAT

; 93   : inline void _Construct(_T1* __p, const _T2& __val) {

  00000	b8 00 00 00 00	 mov	 eax, __ehhandler$??$_Construct@VMString@@V1@@_STL@@YAXPAVMString@@ABV1@@Z
  00005	e8 00 00 00 00	 call	 __EH_prolog
  0000a	51		 push	 ecx

; 94   : # ifdef _STLP_DEBUG_UNINITIALIZED
; 95   : 	memset((char*)__p, _STLP_SHRED_BYTE, sizeof(_T1));
; 96   : # endif
; 97   :     _STLP_PLACEMENT_NEW (__p) _T1(__val);

  0000b	8b 4d 08	 mov	 ecx, DWORD PTR ___p$[ebp]
  0000e	89 4d f0	 mov	 DWORD PTR $T105367[ebp], ecx
  00011	83 65 fc 00	 and	 DWORD PTR __$EHRec$[ebp+8], 0
  00015	85 c9		 test	 ecx, ecx
  00017	74 08		 je	 SHORT $L105368
  00019	ff 75 0c	 push	 DWORD PTR ___val$[ebp]
  0001c	e8 00 00 00 00	 call	 ??0MString@@QAE@ABV0@@Z	; MString::MString
$L105368:

; 98   : }

  00021	8b 4d f4	 mov	 ecx, DWORD PTR __$EHRec$[ebp]
  00024	64 89 0d 00 00
	00 00		 mov	 DWORD PTR fs:__except_list, ecx
  0002b	c9		 leave
  0002c	c3		 ret	 0
_TEXT	ENDS
;	COMDAT text$x
text$x	SEGMENT
$L105370:
  00000	ff 75 08	 push	 DWORD PTR ___p$[ebp]
  00003	ff 75 f0	 push	 DWORD PTR $T105367[ebp]
  00006	e8 00 00 00 00	 call	 ??3@YAXPAX0@Z		; operator delete
  0000b	59		 pop	 ecx
  0000c	59		 pop	 ecx
  0000d	c3		 ret	 0
__ehhandler$??$_Construct@VMString@@V1@@_STL@@YAXPAVMString@@ABV1@@Z:
  0000e	b8 00 00 00 00	 mov	 eax, OFFSET FLAT:$T105375
  00013	e9 00 00 00 00	 jmp	 ___CxxFrameHandler
text$x	ENDS
??$_Construct@VMString@@V1@@_STL@@YAXPAVMString@@ABV1@@Z ENDP ; _STL::_Construct<MString,MString>
PUBLIC	??$_Destroy@VMString@@@_STL@@YAXPAVMString@@@Z	; _STL::_Destroy<MString>
; Function compile flags: /Ogsy
;	COMDAT ??$_Destroy@VMString@@@_STL@@YAXPAVMString@@@Z
_TEXT	SEGMENT
___pointer$ = 8						; size = 4
??$_Destroy@VMString@@@_STL@@YAXPAVMString@@@Z PROC NEAR ; _STL::_Destroy<MString>, COMDAT

; 57   : # if _MSC_VER >= 1010
; 58   :   __pointer;
; 59   : # endif	// _MSC_VER >= 1000
; 60   : # ifdef _STLP_TRIVIAL_DESTRUCTOR_BUG
; 61   :   typedef typename __type_traits<_Tp>::has_trivial_destructor _Trivial_destructor;
; 62   :   __destroy_aux(__pointer, _Trivial_destructor());
; 63   : # else
; 64   : #  if ( defined (__BORLANDC__) && ( __BORLANDC__ < 0x500 ) )
; 65   :     __pointer->_Tp::~_Tp();
; 66   : #  else
; 67   :     __pointer->~_Tp();

  00000	8b 4c 24 04	 mov	 ecx, DWORD PTR ___pointer$[esp-4]
  00004	8b 01		 mov	 eax, DWORD PTR [ecx]
  00006	6a 00		 push	 0
  00008	ff 10		 call	 DWORD PTR [eax]

; 68   : #  endif
; 69   : # endif
; 70   : # ifdef _STLP_DEBUG_UNINITIALIZED
; 71   : 	memset((char*)__pointer, _STLP_SHRED_BYTE, sizeof(_Tp));
; 72   : # endif
; 73   : }

  0000a	c3		 ret	 0
??$_Destroy@VMString@@@_STL@@YAXPAVMString@@@Z ENDP	; _STL::_Destroy<MString>
_TEXT	ENDS
PUBLIC	??$max@I@_STL@@YAABIABI0@Z			; _STL::max<unsigned int>
; Function compile flags: /Ogsy
; File c:\stlport-4.6.1\stlport\stl\_algobase.h
;	COMDAT ??$max@I@_STL@@YAABIABI0@Z
_TEXT	SEGMENT
___a$ = 8						; size = 4
___b$ = 12						; size = 4
??$max@I@_STL@@YAABIABI0@Z PROC NEAR			; _STL::max<unsigned int>, COMDAT

; 79   : inline const _Tp& (max)(const _Tp& __a, const _Tp& __b) {  return  __a < __b ? __b : __a; }

  00000	8b 44 24 04	 mov	 eax, DWORD PTR ___a$[esp-4]
  00004	8b 10		 mov	 edx, DWORD PTR [eax]
  00006	8b 4c 24 08	 mov	 ecx, DWORD PTR ___b$[esp-4]
  0000a	3b 11		 cmp	 edx, DWORD PTR [ecx]
  0000c	73 02		 jae	 SHORT $L105387
  0000e	8b c1		 mov	 eax, ecx
$L105387:
  00010	c3		 ret	 0
??$max@I@_STL@@YAABIABI0@Z ENDP				; _STL::max<unsigned int>
_TEXT	ENDS
PUBLIC	??0MHelpMessage@@QAE@ABV0@@Z			; MHelpMessage::MHelpMessage
EXTRN	??__C@YGXPAX0IHP6EX00@ZP6EX0@Z@Z:NEAR		; `eh vector copy constructor iterator'
;	COMDAT xdata$x
xdata$x	SEGMENT
$T105396 DD	0ffffffffH
	DD	FLAT:$L105391
	DD	00H
	DD	FLAT:$L105392
$T105394 DD	019930520H
	DD	02H
	DD	FLAT:$T105396
	DD	2 DUP(00H)
	DD	2 DUP(00H)
; Function compile flags: /Ogsy
xdata$x	ENDS
;	COMDAT ??0MHelpMessage@@QAE@ABV0@@Z
_TEXT	SEGMENT
_this$ = -16						; size = 4
__$EHRec$ = -12						; size = 12
___that$ = 8						; size = 4
??0MHelpMessage@@QAE@ABV0@@Z PROC NEAR			; MHelpMessage::MHelpMessage, COMDAT
; _this$ = ecx
  00000	b8 00 00 00 00	 mov	 eax, __ehhandler$??0MHelpMessage@@QAE@ABV0@@Z
  00005	e8 00 00 00 00	 call	 __EH_prolog
  0000a	51		 push	 ecx
  0000b	53		 push	 ebx
  0000c	8b d9		 mov	 ebx, ecx
  0000e	56		 push	 esi
  0000f	8b 75 08	 mov	 esi, DWORD PTR ___that$[ebp]
  00012	c7 03 00 00 00
	00		 mov	 DWORD PTR [ebx], OFFSET FLAT:??_7MHelpMessage@@6B@
  00018	8b 46 04	 mov	 eax, DWORD PTR [esi+4]
  0001b	89 43 04	 mov	 DWORD PTR [ebx+4], eax
  0001e	57		 push	 edi
  0001f	8d 46 08	 lea	 eax, DWORD PTR [esi+8]
  00022	50		 push	 eax
  00023	8d 4b 08	 lea	 ecx, DWORD PTR [ebx+8]
  00026	89 5d f0	 mov	 DWORD PTR _this$[ebp], ebx
  00029	e8 00 00 00 00	 call	 ??0MString@@QAE@ABV0@@Z	; MString::MString
  0002e	83 65 fc 00	 and	 DWORD PTR __$EHRec$[ebp+8], 0
  00032	8d 46 14	 lea	 eax, DWORD PTR [esi+20]
  00035	50		 push	 eax
  00036	8d 4b 14	 lea	 ecx, DWORD PTR [ebx+20]
  00039	e8 00 00 00 00	 call	 ??0MString@@QAE@ABV0@@Z	; MString::MString
  0003e	68 00 00 00 00	 push	 OFFSET FLAT:??1MString@@UAE@XZ ; MString::~MString
  00043	68 00 00 00 00	 push	 OFFSET FLAT:??0MString@@QAE@ABV0@@Z ; MString::MString
  00048	6a 03		 push	 3
  0004a	6a 0c		 push	 12			; 0000000cH
  0004c	8d 46 20	 lea	 eax, DWORD PTR [esi+32]
  0004f	50		 push	 eax
  00050	8d 43 20	 lea	 eax, DWORD PTR [ebx+32]
  00053	50		 push	 eax
  00054	c6 45 fc 01	 mov	 BYTE PTR __$EHRec$[ebp+8], 1
  00058	e8 00 00 00 00	 call	 ??__C@YGXPAX0IHP6EX00@ZP6EX0@Z@Z
  0005d	83 c6 44	 add	 esi, 68			; 00000044H
  00060	8b 45 08	 mov	 eax, DWORD PTR ___that$[ebp]
  00063	8d 7b 44	 lea	 edi, DWORD PTR [ebx+68]
  00066	a5		 movsd
  00067	a5		 movsd
  00068	a5		 movsd
  00069	8d 70 50	 lea	 esi, DWORD PTR [eax+80]
  0006c	8d 7b 50	 lea	 edi, DWORD PTR [ebx+80]
  0006f	a5		 movsd
  00070	a5		 movsd
  00071	a5		 movsd
  00072	8d 70 5c	 lea	 esi, DWORD PTR [eax+92]
  00075	8d 7b 5c	 lea	 edi, DWORD PTR [ebx+92]
  00078	a5		 movsd
  00079	a5		 movsd
  0007a	a5		 movsd
  0007b	8d 70 68	 lea	 esi, DWORD PTR [eax+104]
  0007e	8d 7b 68	 lea	 edi, DWORD PTR [ebx+104]
  00081	a5		 movsd
  00082	a5		 movsd
  00083	a5		 movsd
  00084	8d 70 74	 lea	 esi, DWORD PTR [eax+116]
  00087	8d 7b 74	 lea	 edi, DWORD PTR [ebx+116]
  0008a	a5		 movsd
  0008b	a5		 movsd
  0008c	a5		 movsd
  0008d	8d b0 80 00 00
	00		 lea	 esi, DWORD PTR [eax+128]
  00093	8d bb 80 00 00
	00		 lea	 edi, DWORD PTR [ebx+128]
  00099	a5		 movsd
  0009a	a5		 movsd
  0009b	a5		 movsd
  0009c	68 00 00 00 00	 push	 OFFSET FLAT:??1MString@@UAE@XZ ; MString::~MString
  000a1	8d b0 8c 00 00
	00		 lea	 esi, DWORD PTR [eax+140]
  000a7	68 00 00 00 00	 push	 OFFSET FLAT:??0MString@@QAE@ABV0@@Z ; MString::MString
  000ac	8d bb 8c 00 00
	00		 lea	 edi, DWORD PTR [ebx+140]
  000b2	a5		 movsd
  000b3	6a 03		 push	 3
  000b5	6a 0c		 push	 12			; 0000000cH
  000b7	05 98 00 00 00	 add	 eax, 152		; 00000098H
  000bc	a5		 movsd
  000bd	50		 push	 eax
  000be	8d 83 98 00 00
	00		 lea	 eax, DWORD PTR [ebx+152]
  000c4	50		 push	 eax
  000c5	a5		 movsd
  000c6	e8 00 00 00 00	 call	 ??__C@YGXPAX0IHP6EX00@ZP6EX0@Z@Z
  000cb	8b 4d f4	 mov	 ecx, DWORD PTR __$EHRec$[ebp]
  000ce	5f		 pop	 edi
  000cf	5e		 pop	 esi
  000d0	8b c3		 mov	 eax, ebx
  000d2	5b		 pop	 ebx
  000d3	64 89 0d 00 00
	00 00		 mov	 DWORD PTR fs:__except_list, ecx
  000da	c9		 leave
  000db	c2 04 00	 ret	 4
_TEXT	ENDS
;	COMDAT text$x
text$x	SEGMENT
$L105391:
  00000	8b 4d f0	 mov	 ecx, DWORD PTR _this$[ebp]
  00003	83 c1 08	 add	 ecx, 8
  00006	e9 00 00 00 00	 jmp	 ??1MString@@UAE@XZ	; MString::~MString
$L105392:
  0000b	8b 4d f0	 mov	 ecx, DWORD PTR _this$[ebp]
  0000e	83 c1 14	 add	 ecx, 20			; 00000014H
  00011	e9 00 00 00 00	 jmp	 ??1MString@@UAE@XZ	; MString::~MString
__ehhandler$??0MHelpMessage@@QAE@ABV0@@Z:
  00016	b8 00 00 00 00	 mov	 eax, OFFSET FLAT:$T105394
  0001b	e9 00 00 00 00	 jmp	 ___CxxFrameHandler
text$x	ENDS
??0MHelpMessage@@QAE@ABV0@@Z ENDP			; MHelpMessage::MHelpMessage
PUBLIC	?tie@?$basic_ios@DV?$char_traits@D@_STL@@@_STL@@QAEPAV?$basic_ostream@DV?$char_traits@D@_STL@@@2@PAV32@@Z ; _STL::basic_ios<char,_STL::char_traits<char> >::tie
; Function compile flags: /Ogsy
; File c:\stlport-4.6.1\stlport\stl\_ios.h
;	COMDAT ?tie@?$basic_ios@DV?$char_traits@D@_STL@@@_STL@@QAEPAV?$basic_ostream@DV?$char_traits@D@_STL@@@2@PAV32@@Z
_TEXT	SEGMENT
___new_tied_ostream$ = 8				; size = 4
?tie@?$basic_ios@DV?$char_traits@D@_STL@@@_STL@@QAEPAV?$basic_ostream@DV?$char_traits@D@_STL@@@2@PAV32@@Z PROC NEAR ; _STL::basic_ios<char,_STL::char_traits<char> >::tie, COMDAT
; _this$ = ecx

; 66   :     basic_ostream<char_type, traits_type>* __tmp = _M_tied_ostream;
; 67   :     _M_tied_ostream = __new_tied_ostream;

  00000	8b 54 24 04	 mov	 edx, DWORD PTR ___new_tied_ostream$[esp-4]
  00004	8b 41 5c	 mov	 eax, DWORD PTR [ecx+92]
  00007	89 51 5c	 mov	 DWORD PTR [ecx+92], edx

; 68   :     return __tmp;
; 69   :   }

  0000a	c2 04 00	 ret	 4
?tie@?$basic_ios@DV?$char_traits@D@_STL@@@_STL@@QAEPAV?$basic_ostream@DV?$char_traits@D@_STL@@@2@PAV32@@Z ENDP ; _STL::basic_ios<char,_STL::char_traits<char> >::tie
_TEXT	ENDS
PUBLIC	?fill@?$basic_ios@DV?$char_traits@D@_STL@@@_STL@@QBEDXZ ; _STL::basic_ios<char,_STL::char_traits<char> >::fill
; Function compile flags: /Ogsy
;	COMDAT ?fill@?$basic_ios@DV?$char_traits@D@_STL@@@_STL@@QBEDXZ
_TEXT	SEGMENT
?fill@?$basic_ios@DV?$char_traits@D@_STL@@@_STL@@QBEDXZ PROC NEAR ; _STL::basic_ios<char,_STL::char_traits<char> >::fill, COMDAT
; _this$ = ecx

; 80   :   char_type fill() const { return _M_fill; }

  00000	8a 41 54	 mov	 al, BYTE PTR [ecx+84]
  00003	c3		 ret	 0
?fill@?$basic_ios@DV?$char_traits@D@_STL@@@_STL@@QBEDXZ ENDP ; _STL::basic_ios<char,_STL::char_traits<char> >::fill
_TEXT	ENDS
PUBLIC	?fill@?$basic_ios@DV?$char_traits@D@_STL@@@_STL@@QAEDD@Z ; _STL::basic_ios<char,_STL::char_traits<char> >::fill
; Function compile flags: /Ogsy
;	COMDAT ?fill@?$basic_ios@DV?$char_traits@D@_STL@@@_STL@@QAEDD@Z
_TEXT	SEGMENT
___fill$ = 8						; size = 1
?fill@?$basic_ios@DV?$char_traits@D@_STL@@@_STL@@QAEDD@Z PROC NEAR ; _STL::basic_ios<char,_STL::char_traits<char> >::fill, COMDAT
; _this$ = ecx

; 82   :     char_type __tmp(_M_fill);
; 83   :     _M_fill = __fill;

  00000	8a 54 24 04	 mov	 dl, BYTE PTR ___fill$[esp-4]
  00004	8a 41 54	 mov	 al, BYTE PTR [ecx+84]
  00007	88 51 54	 mov	 BYTE PTR [ecx+84], dl

; 84   :     return __tmp;
; 85   :   }

  0000a	c2 04 00	 ret	 4
?fill@?$basic_ios@DV?$char_traits@D@_STL@@@_STL@@QAEDD@Z ENDP ; _STL::basic_ios<char,_STL::char_traits<char> >::fill
_TEXT	ENDS
PUBLIC	??Bsentry@?$basic_ostream@DV?$char_traits@D@_STL@@@_STL@@QBE_NXZ ; _STL::basic_ostream<char,_STL::char_traits<char> >::sentry::operator bool
; Function compile flags: /Ogsy
; File c:\stlport-4.6.1\stlport\stl\_ostream.h
;	COMDAT ??Bsentry@?$basic_ostream@DV?$char_traits@D@_STL@@@_STL@@QBE_NXZ
_TEXT	SEGMENT
??Bsentry@?$basic_ostream@DV?$char_traits@D@_STL@@@_STL@@QBE_NXZ PROC NEAR ; _STL::basic_ostream<char,_STL::char_traits<char> >::sentry::operator bool, COMDAT
; _this$ = ecx

; 176  :       operator bool() const { return _M_ok; }

  00000	8a 41 04	 mov	 al, BYTE PTR [ecx+4]
  00003	c3		 ret	 0
??Bsentry@?$basic_ostream@DV?$char_traits@D@_STL@@@_STL@@QBE_NXZ ENDP ; _STL::basic_ostream<char,_STL::char_traits<char> >::sentry::operator bool
_TEXT	ENDS
PUBLIC	?put@?$num_put@DV?$ostreambuf_iterator@DV?$char_traits@D@_STL@@@_STL@@@_STL@@QBE?AV?$ostreambuf_iterator@DV?$char_traits@D@_STL@@@2@V32@AAVios_base@2@DJ@Z ; _STL::num_put<char,_STL::ostreambuf_iterator<char,_STL::char_traits<char> > >::put
; Function compile flags: /Ogsy
; File c:\stlport-4.6.1\stlport\stl\_num_put.h
;	COMDAT ?put@?$num_put@DV?$ostreambuf_iterator@DV?$char_traits@D@_STL@@@_STL@@@_STL@@QBE?AV?$ostreambuf_iterator@DV?$char_traits@D@_STL@@@2@V32@AAVios_base@2@DJ@Z
_TEXT	SEGMENT
___$ReturnUdt$ = 8					; size = 4
___s$ = 12						; size = 8
___f$ = 20						; size = 4
___fill$ = 24						; size = 1
___val$ = 28						; size = 4
?put@?$num_put@DV?$ostreambuf_iterator@DV?$char_traits@D@_STL@@@_STL@@@_STL@@QBE?AV?$ostreambuf_iterator@DV?$char_traits@D@_STL@@@2@V32@AAVios_base@2@DJ@Z PROC NEAR ; _STL::num_put<char,_STL::ostreambuf_iterator<char,_STL::char_traits<char> > >::put, COMDAT
; _this$ = ecx

; 62   :                long __val) const {

  00000	55		 push	 ebp
  00001	8b ec		 mov	 ebp, esp

; 63   :     return do_put(__s, __f, __fill, __val);

  00003	ff 75 1c	 push	 DWORD PTR ___val$[ebp]
  00006	8b 01		 mov	 eax, DWORD PTR [ecx]
  00008	ff 75 18	 push	 DWORD PTR ___fill$[ebp]
  0000b	ff 75 14	 push	 DWORD PTR ___f$[ebp]
  0000e	ff 75 10	 push	 DWORD PTR ___s$[ebp+4]
  00011	ff 75 0c	 push	 DWORD PTR ___s$[ebp]
  00014	ff 75 08	 push	 DWORD PTR ___$ReturnUdt$[ebp]
  00017	ff 50 1c	 call	 DWORD PTR [eax+28]
  0001a	8b 45 08	 mov	 eax, DWORD PTR ___$ReturnUdt$[ebp]

; 64   :   }

  0001d	5d		 pop	 ebp
  0001e	c2 18 00	 ret	 24			; 00000018H
?put@?$num_put@DV?$ostreambuf_iterator@DV?$char_traits@D@_STL@@@_STL@@@_STL@@QBE?AV?$ostreambuf_iterator@DV?$char_traits@D@_STL@@@2@V32@AAVios_base@2@DJ@Z ENDP ; _STL::num_put<char,_STL::ostreambuf_iterator<char,_STL::char_traits<char> > >::put
_TEXT	ENDS
PUBLIC	??0?$ostreambuf_iterator@DV?$char_traits@D@_STL@@@_STL@@QAE@PAV?$basic_streambuf@DV?$char_traits@D@_STL@@@1@@Z ; _STL::ostreambuf_iterator<char,_STL::char_traits<char> >::ostreambuf_iterator<char,_STL::char_traits<char> >
; Function compile flags: /Ogsy
; File c:\stlport-4.6.1\stlport\stl\_ostreambuf_iterator.h
;	COMDAT ??0?$ostreambuf_iterator@DV?$char_traits@D@_STL@@@_STL@@QAE@PAV?$basic_streambuf@DV?$char_traits@D@_STL@@@1@@Z
_TEXT	SEGMENT
___buf$ = 8						; size = 4
??0?$ostreambuf_iterator@DV?$char_traits@D@_STL@@@_STL@@QAE@PAV?$basic_streambuf@DV?$char_traits@D@_STL@@@1@@Z PROC NEAR ; _STL::ostreambuf_iterator<char,_STL::char_traits<char> >::ostreambuf_iterator<char,_STL::char_traits<char> >, COMDAT
; _this$ = ecx

; 53   :   ostreambuf_iterator(streambuf_type* __buf) _STLP_NOTHROW : _M_buf(__buf), _M_ok(__buf!=0) {}

  00000	8b c1		 mov	 eax, ecx
  00002	8b 4c 24 04	 mov	 ecx, DWORD PTR ___buf$[esp-4]
  00006	85 c9		 test	 ecx, ecx
  00008	89 08		 mov	 DWORD PTR [eax], ecx
  0000a	0f 95 c1	 setne	 cl
  0000d	88 48 04	 mov	 BYTE PTR [eax+4], cl
  00010	c2 04 00	 ret	 4
??0?$ostreambuf_iterator@DV?$char_traits@D@_STL@@@_STL@@QAE@PAV?$basic_streambuf@DV?$char_traits@D@_STL@@@1@@Z ENDP ; _STL::ostreambuf_iterator<char,_STL::char_traits<char> >::ostreambuf_iterator<char,_STL::char_traits<char> >
_TEXT	ENDS
PUBLIC	?failed@?$ostreambuf_iterator@DV?$char_traits@D@_STL@@@_STL@@QBE_NXZ ; _STL::ostreambuf_iterator<char,_STL::char_traits<char> >::failed
; Function compile flags: /Ogsy
;	COMDAT ?failed@?$ostreambuf_iterator@DV?$char_traits@D@_STL@@@_STL@@QBE_NXZ
_TEXT	SEGMENT
?failed@?$ostreambuf_iterator@DV?$char_traits@D@_STL@@@_STL@@QBE_NXZ PROC NEAR ; _STL::ostreambuf_iterator<char,_STL::char_traits<char> >::failed, COMDAT
; _this$ = ecx

; 67   :   bool failed() const { return !_M_ok; }

  00000	33 c0		 xor	 eax, eax
  00002	38 41 04	 cmp	 BYTE PTR [ecx+4], al
  00005	0f 94 c0	 sete	 al
  00008	c3		 ret	 0
?failed@?$ostreambuf_iterator@DV?$char_traits@D@_STL@@@_STL@@QBE_NXZ ENDP ; _STL::ostreambuf_iterator<char,_STL::char_traits<char> >::failed
_TEXT	ENDS
PUBLIC	?widen@?$basic_ios@DV?$char_traits@D@_STL@@@_STL@@QBEDD@Z ; _STL::basic_ios<char,_STL::char_traits<char> >::widen
; Function compile flags: /Ogsy
; File c:\stlport-4.6.1\stlport\stl\_ios.h
;	COMDAT ?widen@?$basic_ios@DV?$char_traits@D@_STL@@@_STL@@QBEDD@Z
_TEXT	SEGMENT
___c$ = 8						; size = 1
?widen@?$basic_ios@DV?$char_traits@D@_STL@@@_STL@@QBEDD@Z PROC NEAR ; _STL::basic_ios<char,_STL::char_traits<char> >::widen, COMDAT
; _this$ = ecx

; 143  :   return ((const ctype<_CharT>*)this->_M_ctype_facet())->widen(__c); }

  00000	8b 49 40	 mov	 ecx, DWORD PTR [ecx+64]
  00003	8b 01		 mov	 eax, DWORD PTR [ecx]
  00005	ff 60 18	 jmp	 DWORD PTR [eax+24]
?widen@?$basic_ios@DV?$char_traits@D@_STL@@@_STL@@QBEDD@Z ENDP ; _STL::basic_ios<char,_STL::char_traits<char> >::widen
_TEXT	ENDS
PUBLIC	?_M_handle_exception@?$basic_ios@DV?$char_traits@D@_STL@@@_STL@@QAEXH@Z ; _STL::basic_ios<char,_STL::char_traits<char> >::_M_handle_exception
EXTRN	__CxxThrowException@8:NEAR
; Function compile flags: /Ogsy
; File c:\stlport-4.6.1\stlport\stl\_ios.c
;	COMDAT ?_M_handle_exception@?$basic_ios@DV?$char_traits@D@_STL@@@_STL@@QAEXH@Z
_TEXT	SEGMENT
___flag$ = 8						; size = 4
?_M_handle_exception@?$basic_ios@DV?$char_traits@D@_STL@@@_STL@@QAEXH@Z PROC NEAR ; _STL::basic_ios<char,_STL::char_traits<char> >::_M_handle_exception, COMDAT
; _this$ = ecx

; 118  :   this->_M_setstate_nothrow(__flag);

  00000	8b 44 24 04	 mov	 eax, DWORD PTR ___flag$[esp-4]
  00004	09 41 08	 or	 DWORD PTR [ecx+8], eax

; 119  :   if (this->_M_get_exception_mask() & __flag)

  00007	85 41 14	 test	 DWORD PTR [ecx+20], eax
  0000a	74 09		 je	 SHORT $L103230

; 120  :     _STLP_RETHROW;

  0000c	6a 00		 push	 0
  0000e	6a 00		 push	 0
  00010	e8 00 00 00 00	 call	 __CxxThrowException@8
$L105441:
$L103230:

; 121  : }

  00015	c2 04 00	 ret	 4
$L105440:
?_M_handle_exception@?$basic_ios@DV?$char_traits@D@_STL@@@_STL@@QAEXH@Z ENDP ; _STL::basic_ios<char,_STL::char_traits<char> >::_M_handle_exception
_TEXT	ENDS
PUBLIC	??$max@H@_STL@@YAABHABH0@Z			; _STL::max<int>
; Function compile flags: /Ogsy
; File c:\stlport-4.6.1\stlport\stl\_algobase.h
;	COMDAT ??$max@H@_STL@@YAABHABH0@Z
_TEXT	SEGMENT
___a$ = 8						; size = 4
___b$ = 12						; size = 4
??$max@H@_STL@@YAABHABH0@Z PROC NEAR			; _STL::max<int>, COMDAT

; 79   : inline const _Tp& (max)(const _Tp& __a, const _Tp& __b) {  return  __a < __b ? __b : __a; }

  00000	8b 44 24 04	 mov	 eax, DWORD PTR ___a$[esp-4]
  00004	8b 10		 mov	 edx, DWORD PTR [eax]
  00006	8b 4c 24 08	 mov	 ecx, DWORD PTR ___b$[esp-4]
  0000a	3b 11		 cmp	 edx, DWORD PTR [ecx]
  0000c	7d 02		 jge	 SHORT $L105447
  0000e	8b c1		 mov	 eax, ecx
$L105447:
  00010	c3		 ret	 0
??$max@H@_STL@@YAABHABH0@Z ENDP				; _STL::max<int>
_TEXT	ENDS
PUBLIC	??$use_facet@V?$codecvt@DDH@_STL@@@_STL@@YAABV?$codecvt@DDH@0@ABVlocale@0@@Z ; _STL::use_facet<_STL::codecvt<char,char,int> >
EXTRN	?_M_use_facet@locale@_STL@@QBEPAVfacet@12@ABVid@12@@Z:NEAR ; _STL::locale::_M_use_facet
EXTRN	?id@?$codecvt@DDH@_STL@@2V0locale@2@A:DWORD	; _STL::codecvt<char,char,int>::id
; Function compile flags: /Ogsy
; File c:\stlport-4.6.1\stlport\stl\_locale.h
;	COMDAT ??$use_facet@V?$codecvt@DDH@_STL@@@_STL@@YAABV?$codecvt@DDH@0@ABVlocale@0@@Z
_TEXT	SEGMENT
___loc$ = 8						; size = 4
??$use_facet@V?$codecvt@DDH@_STL@@@_STL@@YAABV?$codecvt@DDH@0@ABVlocale@0@@Z PROC NEAR ; _STL::use_facet<_STL::codecvt<char,char,int> >, COMDAT

; 204  :   return *__STATIC_CAST(const _Facet*,__loc._M_use_facet(_Facet::id));

  00000	8b 4c 24 04	 mov	 ecx, DWORD PTR ___loc$[esp-4]
  00004	68 00 00 00 00	 push	 OFFSET FLAT:?id@?$codecvt@DDH@_STL@@2V0locale@2@A ; _STL::codecvt<char,char,int>::id
  00009	e8 00 00 00 00	 call	 ?_M_use_facet@locale@_STL@@QBEPAVfacet@12@ABVid@12@@Z ; _STL::locale::_M_use_facet

; 205  : }

  0000e	c3		 ret	 0
??$use_facet@V?$codecvt@DDH@_STL@@@_STL@@YAABV?$codecvt@DDH@0@ABVlocale@0@@Z ENDP ; _STL::use_facet<_STL::codecvt<char,char,int> >
_TEXT	ENDS
PUBLIC	??$use_facet@V?$num_put@DV?$ostreambuf_iterator@DV?$char_traits@D@_STL@@@_STL@@@_STL@@@_STL@@YAABV?$num_put@DV?$ostreambuf_iterator@DV?$char_traits@D@_STL@@@_STL@@@0@ABVlocale@0@@Z ; _STL::use_facet<_STL::num_put<char,_STL::ostreambuf_iterator<char,_STL::char_traits<char> > > >
PUBLIC	?id@?$num_put@DV?$ostreambuf_iterator@DV?$char_traits@D@_STL@@@_STL@@@_STL@@2V0locale@2@A ; _STL::num_put<char,_STL::ostreambuf_iterator<char,_STL::char_traits<char> > >::id
;	COMDAT ?id@?$num_put@DV?$ostreambuf_iterator@DV?$char_traits@D@_STL@@@_STL@@@_STL@@2V0locale@2@A
_BSS	SEGMENT
?id@?$num_put@DV?$ostreambuf_iterator@DV?$char_traits@D@_STL@@@_STL@@@_STL@@2V0locale@2@A DD 01H DUP (?) ; _STL::num_put<char,_STL::ostreambuf_iterator<char,_STL::char_traits<char> > >::id
; Function compile flags: /Ogsy
_BSS	ENDS
;	COMDAT ??$use_facet@V?$num_put@DV?$ostreambuf_iterator@DV?$char_traits@D@_STL@@@_STL@@@_STL@@@_STL@@YAABV?$num_put@DV?$ostreambuf_iterator@DV?$char_traits@D@_STL@@@_STL@@@0@ABVlocale@0@@Z
_TEXT	SEGMENT
___loc$ = 8						; size = 4
??$use_facet@V?$num_put@DV?$ostreambuf_iterator@DV?$char_traits@D@_STL@@@_STL@@@_STL@@@_STL@@YAABV?$num_put@DV?$ostreambuf_iterator@DV?$char_traits@D@_STL@@@_STL@@@0@ABVlocale@0@@Z PROC NEAR ; _STL::use_facet<_STL::num_put<char,_STL::ostreambuf_iterator<char,_STL::char_traits<char> > > >, COMDAT

; 204  :   return *__STATIC_CAST(const _Facet*,__loc._M_use_facet(_Facet::id));

  00000	8b 4c 24 04	 mov	 ecx, DWORD PTR ___loc$[esp-4]
  00004	68 00 00 00 00	 push	 OFFSET FLAT:?id@?$num_put@DV?$ostreambuf_iterator@DV?$char_traits@D@_STL@@@_STL@@@_STL@@2V0locale@2@A ; _STL::num_put<char,_STL::ostreambuf_iterator<char,_STL::char_traits<char> > >::id
  00009	e8 00 00 00 00	 call	 ?_M_use_facet@locale@_STL@@QBEPAVfacet@12@ABVid@12@@Z ; _STL::locale::_M_use_facet

; 205  : }

  0000e	c3		 ret	 0
??$use_facet@V?$num_put@DV?$ostreambuf_iterator@DV?$char_traits@D@_STL@@@_STL@@@_STL@@@_STL@@YAABV?$num_put@DV?$ostreambuf_iterator@DV?$char_traits@D@_STL@@@_STL@@@0@ABVlocale@0@@Z ENDP ; _STL::use_facet<_STL::num_put<char,_STL::ostreambuf_iterator<char,_STL::char_traits<char> > > >
_TEXT	ENDS
PUBLIC	?data@?$basic_string@DV?$char_traits@D@_STL@@V?$allocator@D@2@@_STL@@QBEPBDXZ ; _STL::basic_string<char,_STL::char_traits<char>,_STL::allocator<char> >::data
; Function compile flags: /Ogsy
; File c:\stlport-4.6.1\stlport\stl\_string.h
;	COMDAT ?data@?$basic_string@DV?$char_traits@D@_STL@@V?$allocator@D@2@@_STL@@QBEPBDXZ
_TEXT	SEGMENT
?data@?$basic_string@DV?$char_traits@D@_STL@@V?$allocator@D@2@@_STL@@QBEPBDXZ PROC NEAR ; _STL::basic_string<char,_STL::char_traits<char>,_STL::allocator<char> >::data, COMDAT
; _this$ = ecx

; 1066 :   const _CharT* data()  const { return this->_M_start; }

  00000	8b 01		 mov	 eax, DWORD PTR [ecx]
  00002	c3		 ret	 0
?data@?$basic_string@DV?$char_traits@D@_STL@@V?$allocator@D@2@@_STL@@QBEPBDXZ ENDP ; _STL::basic_string<char,_STL::char_traits<char>,_STL::allocator<char> >::data
_TEXT	ENDS
PUBLIC	?tie@?$basic_ios@DV?$char_traits@D@_STL@@@_STL@@QBEPAV?$basic_ostream@DV?$char_traits@D@_STL@@@2@XZ ; _STL::basic_ios<char,_STL::char_traits<char> >::tie
; Function compile flags: /Ogsy
; File c:\stlport-4.6.1\stlport\stl\_ios.h
;	COMDAT ?tie@?$basic_ios@DV?$char_traits@D@_STL@@@_STL@@QBEPAV?$basic_ostream@DV?$char_traits@D@_STL@@@2@XZ
_TEXT	SEGMENT
?tie@?$basic_ios@DV?$char_traits@D@_STL@@@_STL@@QBEPAV?$basic_ostream@DV?$char_traits@D@_STL@@@2@XZ PROC NEAR ; _STL::basic_ios<char,_STL::char_traits<char> >::tie, COMDAT
; _this$ = ecx

; 62   :     return _M_tied_ostream;

  00000	8b 41 5c	 mov	 eax, DWORD PTR [ecx+92]

; 63   :   }

  00003	c3		 ret	 0
?tie@?$basic_ios@DV?$char_traits@D@_STL@@@_STL@@QBEPAV?$basic_ostream@DV?$char_traits@D@_STL@@@2@XZ ENDP ; _STL::basic_ios<char,_STL::char_traits<char> >::tie
_TEXT	ENDS
PUBLIC	?base@?$reverse_iterator@PAD@_STL@@QBEPADXZ	; _STL::reverse_iterator<char *>::base
; Function compile flags: /Ogsy
; File c:\stlport-4.6.1\stlport\stl\_iterator.h
;	COMDAT ?base@?$reverse_iterator@PAD@_STL@@QBEPADXZ
_TEXT	SEGMENT
?base@?$reverse_iterator@PAD@_STL@@QBEPADXZ PROC NEAR	; _STL::reverse_iterator<char *>::base, COMDAT
; _this$ = ecx

; 76   :   iterator_type base() const { return current; }

  00000	8b 01		 mov	 eax, DWORD PTR [ecx]
  00002	c3		 ret	 0
?base@?$reverse_iterator@PAD@_STL@@QBEPADXZ ENDP	; _STL::reverse_iterator<char *>::base
_TEXT	ENDS
PUBLIC	??$__destroy_aux@PAVMHelpMessage@@@_STL@@YAXPAVMHelpMessage@@0ABU__false_type@0@@Z ; _STL::__destroy_aux<MHelpMessage *>
; Function compile flags: /Ogsy
; File c:\stlport-4.6.1\stlport\stl\_construct.h
;	COMDAT ??$__destroy_aux@PAVMHelpMessage@@@_STL@@YAXPAVMHelpMessage@@0ABU__false_type@0@@Z
_TEXT	SEGMENT
___first$ = 8						; size = 4
___last$ = 12						; size = 4
___formal$ = 16						; size = 4
??$__destroy_aux@PAVMHelpMessage@@@_STL@@YAXPAVMHelpMessage@@0ABU__false_type@0@@Z PROC NEAR ; _STL::__destroy_aux<MHelpMessage *>, COMDAT

; 122  : __destroy_aux(_ForwardIterator __first, _ForwardIterator __last, const __false_type&) {

  00000	56		 push	 esi

; 123  :   for ( ; __first != __last; ++__first)

  00001	8b 74 24 08	 mov	 esi, DWORD PTR ___first$[esp]
  00005	eb 0e		 jmp	 SHORT $L105471
$L103971:

; 124  :     _STLP_STD::_Destroy(&*__first);

  00007	8b 06		 mov	 eax, DWORD PTR [esi]
  00009	6a 00		 push	 0
  0000b	8b ce		 mov	 ecx, esi
  0000d	ff 10		 call	 DWORD PTR [eax]
  0000f	81 c6 bc 00 00
	00		 add	 esi, 188		; 000000bcH
$L105471:

; 123  :   for ( ; __first != __last; ++__first)

  00015	3b 74 24 0c	 cmp	 esi, DWORD PTR ___last$[esp]
  00019	75 ec		 jne	 SHORT $L103971
  0001b	5e		 pop	 esi

; 125  : }

  0001c	c3		 ret	 0
??$__destroy_aux@PAVMHelpMessage@@@_STL@@YAXPAVMHelpMessage@@0ABU__false_type@0@@Z ENDP ; _STL::__destroy_aux<MHelpMessage *>
_TEXT	ENDS
PUBLIC	??$__destroy_aux@PAVMString@@@_STL@@YAXPAVMString@@0ABU__false_type@0@@Z ; _STL::__destroy_aux<MString *>
; Function compile flags: /Ogsy
;	COMDAT ??$__destroy_aux@PAVMString@@@_STL@@YAXPAVMString@@0ABU__false_type@0@@Z
_TEXT	SEGMENT
___first$ = 8						; size = 4
___last$ = 12						; size = 4
___formal$ = 16						; size = 4
??$__destroy_aux@PAVMString@@@_STL@@YAXPAVMString@@0ABU__false_type@0@@Z PROC NEAR ; _STL::__destroy_aux<MString *>, COMDAT

; 122  : __destroy_aux(_ForwardIterator __first, _ForwardIterator __last, const __false_type&) {

  00000	56		 push	 esi

; 123  :   for ( ; __first != __last; ++__first)

  00001	8b 74 24 08	 mov	 esi, DWORD PTR ___first$[esp]
  00005	eb 0b		 jmp	 SHORT $L105480
$L103975:

; 124  :     _STLP_STD::_Destroy(&*__first);

  00007	8b 06		 mov	 eax, DWORD PTR [esi]
  00009	6a 00		 push	 0
  0000b	8b ce		 mov	 ecx, esi
  0000d	ff 10		 call	 DWORD PTR [eax]
  0000f	83 c6 0c	 add	 esi, 12			; 0000000cH
$L105480:

; 123  :   for ( ; __first != __last; ++__first)

  00012	3b 74 24 0c	 cmp	 esi, DWORD PTR ___last$[esp]
  00016	75 ef		 jne	 SHORT $L103975
  00018	5e		 pop	 esi

; 125  : }

  00019	c3		 ret	 0
??$__destroy_aux@PAVMString@@@_STL@@YAXPAVMString@@0ABU__false_type@0@@Z ENDP ; _STL::__destroy_aux<MString *>
_TEXT	ENDS
PUBLIC	?capacity@?$basic_string@DV?$char_traits@D@_STL@@V?$allocator@D@2@@_STL@@QBEIXZ ; _STL::basic_string<char,_STL::char_traits<char>,_STL::allocator<char> >::capacity
; Function compile flags: /Ogsy
; File c:\stlport-4.6.1\stlport\stl\_string.h
;	COMDAT ?capacity@?$basic_string@DV?$char_traits@D@_STL@@V?$allocator@D@2@@_STL@@QBEIXZ
_TEXT	SEGMENT
?capacity@?$basic_string@DV?$char_traits@D@_STL@@V?$allocator@D@2@@_STL@@QBEIXZ PROC NEAR ; _STL::basic_string<char,_STL::char_traits<char>,_STL::allocator<char> >::capacity, COMDAT
; _this$ = ecx

; 447  :   size_type capacity() const { return (this->_M_end_of_storage._M_data - this->_M_start) - 1; }

  00000	8b 41 08	 mov	 eax, DWORD PTR [ecx+8]
  00003	2b 01		 sub	 eax, DWORD PTR [ecx]
  00005	48		 dec	 eax
  00006	c3		 ret	 0
?capacity@?$basic_string@DV?$char_traits@D@_STL@@V?$allocator@D@2@@_STL@@QBEIXZ ENDP ; _STL::basic_string<char,_STL::char_traits<char>,_STL::allocator<char> >::capacity
_TEXT	ENDS
PUBLIC	?_M_copy@?$basic_string@DV?$char_traits@D@_STL@@V?$allocator@D@2@@_STL@@AAEXPBD0PAD@Z ; _STL::basic_string<char,_STL::char_traits<char>,_STL::allocator<char> >::_M_copy
; Function compile flags: /Ogsy
;	COMDAT ?_M_copy@?$basic_string@DV?$char_traits@D@_STL@@V?$allocator@D@2@@_STL@@AAEXPBD0PAD@Z
_TEXT	SEGMENT
___first$ = 8						; size = 4
___last$ = 12						; size = 4
___result$ = 16						; size = 4
?_M_copy@?$basic_string@DV?$char_traits@D@_STL@@V?$allocator@D@2@@_STL@@AAEXPBD0PAD@Z PROC NEAR ; _STL::basic_string<char,_STL::char_traits<char>,_STL::allocator<char> >::_M_copy, COMDAT
; _this$ = ecx

; 839  :     _Traits::copy(__result, __first, __last - __first);

  00000	8b 44 24 08	 mov	 eax, DWORD PTR ___last$[esp-4]
  00004	2b 44 24 04	 sub	 eax, DWORD PTR ___first$[esp-4]
  00008	74 11		 je	 SHORT $L105492
  0000a	50		 push	 eax
  0000b	ff 74 24 08	 push	 DWORD PTR ___first$[esp]
  0000f	ff 74 24 14	 push	 DWORD PTR ___result$[esp+4]
  00013	e8 00 00 00 00	 call	 _memcpy
  00018	83 c4 0c	 add	 esp, 12			; 0000000cH
$L105492:

; 840  :   }

  0001b	c2 0c 00	 ret	 12			; 0000000cH
?_M_copy@?$basic_string@DV?$char_traits@D@_STL@@V?$allocator@D@2@@_STL@@AAEXPBD0PAD@Z ENDP ; _STL::basic_string<char,_STL::char_traits<char>,_STL::allocator<char> >::_M_copy
_TEXT	ENDS
PUBLIC	?_M_move@?$basic_string@DV?$char_traits@D@_STL@@V?$allocator@D@2@@_STL@@AAEXPBD0PAD@Z ; _STL::basic_string<char,_STL::char_traits<char>,_STL::allocator<char> >::_M_move
; Function compile flags: /Ogsy
;	COMDAT ?_M_move@?$basic_string@DV?$char_traits@D@_STL@@V?$allocator@D@2@@_STL@@AAEXPBD0PAD@Z
_TEXT	SEGMENT
___first$ = 8						; size = 4
___last$ = 12						; size = 4
___result$ = 16						; size = 4
?_M_move@?$basic_string@DV?$char_traits@D@_STL@@V?$allocator@D@2@@_STL@@AAEXPBD0PAD@Z PROC NEAR ; _STL::basic_string<char,_STL::char_traits<char>,_STL::allocator<char> >::_M_move, COMDAT
; _this$ = ecx

; 842  :     _Traits::move(__result, __first, __last - __first);

  00000	8b 44 24 08	 mov	 eax, DWORD PTR ___last$[esp-4]
  00004	2b 44 24 04	 sub	 eax, DWORD PTR ___first$[esp-4]
  00008	74 11		 je	 SHORT $L105503
  0000a	50		 push	 eax
  0000b	ff 74 24 08	 push	 DWORD PTR ___first$[esp]
  0000f	ff 74 24 14	 push	 DWORD PTR ___result$[esp+4]
  00013	e8 00 00 00 00	 call	 _memmove
  00018	83 c4 0c	 add	 esp, 12			; 0000000cH
$L105503:

; 843  :   }

  0001b	c2 0c 00	 ret	 12			; 0000000cH
?_M_move@?$basic_string@DV?$char_traits@D@_STL@@V?$allocator@D@2@@_STL@@AAEXPBD0PAD@Z ENDP ; _STL::basic_string<char,_STL::char_traits<char>,_STL::allocator<char> >::_M_move
_TEXT	ENDS
PUBLIC	?max_size@?$_String_base@DV?$allocator@D@_STL@@@_STL@@QBEIXZ ; _STL::_String_base<char,_STL::allocator<char> >::max_size
; Function compile flags: /Ogsy
;	COMDAT ?max_size@?$_String_base@DV?$allocator@D@_STL@@@_STL@@QBEIXZ
_TEXT	SEGMENT
?max_size@?$_String_base@DV?$allocator@D@_STL@@@_STL@@QBEIXZ PROC NEAR ; _STL::_String_base<char,_STL::allocator<char> >::max_size, COMDAT
; _this$ = ecx

; 126  :   size_t max_size() const { return (size_t(-1) / sizeof(_Tp)) - 1; }

  00000	6a fe		 push	 -2			; fffffffeH
  00002	58		 pop	 eax
  00003	c3		 ret	 0
?max_size@?$_String_base@DV?$allocator@D@_STL@@@_STL@@QBEIXZ ENDP ; _STL::_String_base<char,_STL::allocator<char> >::max_size
_TEXT	ENDS
PUBLIC	?_M_construct_null_aux@?$basic_string@DV?$char_traits@D@_STL@@V?$allocator@D@2@@_STL@@AAEXPADABU__true_type@2@@Z ; _STL::basic_string<char,_STL::char_traits<char>,_STL::allocator<char> >::_M_construct_null_aux
; Function compile flags: /Ogsy
;	COMDAT ?_M_construct_null_aux@?$basic_string@DV?$char_traits@D@_STL@@V?$allocator@D@2@@_STL@@AAEXPADABU__true_type@2@@Z
_TEXT	SEGMENT
___p$ = 8						; size = 4
___formal$ = 12						; size = 4
?_M_construct_null_aux@?$basic_string@DV?$char_traits@D@_STL@@V?$allocator@D@2@@_STL@@AAEXPADABU__true_type@2@@Z PROC NEAR ; _STL::basic_string<char,_STL::char_traits<char>,_STL::allocator<char> >::_M_construct_null_aux, COMDAT
; _this$ = ecx

; 332  :     *__p = 0;

  00000	8b 44 24 04	 mov	 eax, DWORD PTR ___p$[esp-4]
  00004	c6 00 00	 mov	 BYTE PTR [eax], 0

; 333  :   }

  00007	c2 08 00	 ret	 8
?_M_construct_null_aux@?$basic_string@DV?$char_traits@D@_STL@@V?$allocator@D@2@@_STL@@AAEXPADABU__true_type@2@@Z ENDP ; _STL::basic_string<char,_STL::char_traits<char>,_STL::allocator<char> >::_M_construct_null_aux
_TEXT	ENDS
PUBLIC	??$__distance@PBD@_STL@@YAHABQBD0ABUrandom_access_iterator_tag@0@@Z ; _STL::__distance<char const *>
; Function compile flags: /Ogsy
; File c:\stlport-4.6.1\stlport\stl\_iterator_base.h
;	COMDAT ??$__distance@PBD@_STL@@YAHABQBD0ABUrandom_access_iterator_tag@0@@Z
_TEXT	SEGMENT
___first$ = 8						; size = 4
___last$ = 12						; size = 4
___formal$ = 16						; size = 4
??$__distance@PBD@_STL@@YAHABQBD0ABUrandom_access_iterator_tag@0@@Z PROC NEAR ; _STL::__distance<char const *>, COMDAT

; 363  :   return __last - __first;

  00000	8b 44 24 08	 mov	 eax, DWORD PTR ___last$[esp-4]
  00004	8b 00		 mov	 eax, DWORD PTR [eax]
  00006	8b 4c 24 04	 mov	 ecx, DWORD PTR ___first$[esp-4]
  0000a	2b 01		 sub	 eax, DWORD PTR [ecx]

; 364  : }

  0000c	c3		 ret	 0
??$__distance@PBD@_STL@@YAHABQBD0ABUrandom_access_iterator_tag@0@@Z ENDP ; _STL::__distance<char const *>
_TEXT	ENDS
PUBLIC	?_M_throw_length_error@?$_String_base@DV?$allocator@D@_STL@@@_STL@@QBEXXZ ; _STL::_String_base<char,_STL::allocator<char> >::_M_throw_length_error
EXTRN	?__stl_throw_length_error@_STL@@YAXPBD@Z:NEAR	; _STL::__stl_throw_length_error
; Function compile flags: /Ogsy
; File c:\stlport-4.6.1\stlport\stl\_string.c
;	COMDAT ?_M_throw_length_error@?$_String_base@DV?$allocator@D@_STL@@@_STL@@QBEXXZ
_TEXT	SEGMENT
?_M_throw_length_error@?$_String_base@DV?$allocator@D@_STL@@@_STL@@QBEXXZ PROC NEAR ; _STL::_String_base<char,_STL::allocator<char> >::_M_throw_length_error, COMDAT
; _this$ = ecx

; 523  :     __stl_throw_length_error("basic_string");

  00000	68 00 00 00 00	 push	 OFFSET FLAT:??_C@_0N@GOPDCEEB@basic_string?$AA@
  00005	e8 00 00 00 00	 call	 ?__stl_throw_length_error@_STL@@YAXPBD@Z ; _STL::__stl_throw_length_error
  0000a	59		 pop	 ecx

; 524  : }

  0000b	c3		 ret	 0
?_M_throw_length_error@?$_String_base@DV?$allocator@D@_STL@@@_STL@@QBEXXZ ENDP ; _STL::_String_base<char,_STL::allocator<char> >::_M_throw_length_error
_TEXT	ENDS
PUBLIC	??$__distance@PAD@_STL@@YAHABQAD0ABUrandom_access_iterator_tag@0@@Z ; _STL::__distance<char *>
; Function compile flags: /Ogsy
; File c:\stlport-4.6.1\stlport\stl\_iterator_base.h
;	COMDAT ??$__distance@PAD@_STL@@YAHABQAD0ABUrandom_access_iterator_tag@0@@Z
_TEXT	SEGMENT
___first$ = 8						; size = 4
___last$ = 12						; size = 4
___formal$ = 16						; size = 4
??$__distance@PAD@_STL@@YAHABQAD0ABUrandom_access_iterator_tag@0@@Z PROC NEAR ; _STL::__distance<char *>, COMDAT

; 363  :   return __last - __first;

  00000	8b 44 24 08	 mov	 eax, DWORD PTR ___last$[esp-4]
  00004	8b 00		 mov	 eax, DWORD PTR [eax]
  00006	8b 4c 24 04	 mov	 ecx, DWORD PTR ___first$[esp-4]
  0000a	2b 01		 sub	 eax, DWORD PTR [ecx]

; 364  : }

  0000c	c3		 ret	 0
??$__distance@PAD@_STL@@YAHABQAD0ABUrandom_access_iterator_tag@0@@Z ENDP ; _STL::__distance<char *>
_TEXT	ENDS
PUBLIC	??$_M_inside@PBD@?$basic_string@DV?$char_traits@D@_STL@@V?$allocator@D@2@@_STL@@ABE_NPBD@Z ; _STL::basic_string<char,_STL::char_traits<char>,_STL::allocator<char> >::_M_inside<char const *>
; Function compile flags: /Ogsy
; File c:\stlport-4.6.1\stlport\stl\_string.h
;	COMDAT ??$_M_inside@PBD@?$basic_string@DV?$char_traits@D@_STL@@V?$allocator@D@2@@_STL@@ABE_NPBD@Z
_TEXT	SEGMENT
___i$ = 8						; size = 4
??$_M_inside@PBD@?$basic_string@DV?$char_traits@D@_STL@@V?$allocator@D@2@@_STL@@ABE_NPBD@Z PROC NEAR ; _STL::basic_string<char,_STL::char_traits<char>,_STL::allocator<char> >::_M_inside<char const *>, COMDAT
; _this$ = ecx

; 365  :     const _CharT* __s = __STATIC_CAST(const _CharT*, &(*__i));
; 366  :     return (__s >= this->_M_start) && (__s < this->_M_finish);

  00000	8b 44 24 04	 mov	 eax, DWORD PTR ___i$[esp-4]
  00004	3b 01		 cmp	 eax, DWORD PTR [ecx]
  00006	72 0a		 jb	 SHORT $L105524
  00008	3b 41 04	 cmp	 eax, DWORD PTR [ecx+4]
  0000b	73 05		 jae	 SHORT $L105524
  0000d	33 c0		 xor	 eax, eax
  0000f	40		 inc	 eax
  00010	eb 02		 jmp	 SHORT $L105525
$L105524:
  00012	33 c0		 xor	 eax, eax
$L105525:

; 367  :   }

  00014	c2 04 00	 ret	 4
??$_M_inside@PBD@?$basic_string@DV?$char_traits@D@_STL@@V?$allocator@D@2@@_STL@@ABE_NPBD@Z ENDP ; _STL::basic_string<char,_STL::char_traits<char>,_STL::allocator<char> >::_M_inside<char const *>
_TEXT	ENDS
PUBLIC	?_Ret@?$_BothPtrType@PADPAD@_STL@@SA?AU__true_type@2@XZ ; _STL::_BothPtrType<char *,char *>::_Ret
; Function compile flags: /Ogsy
; File c:\stlport-4.6.1\stlport\stl\type_traits.h
;	COMDAT ?_Ret@?$_BothPtrType@PADPAD@_STL@@SA?AU__true_type@2@XZ
_TEXT	SEGMENT
$T105529 = -1						; size = 1
?_Ret@?$_BothPtrType@PADPAD@_STL@@SA?AU__true_type@2@XZ PROC NEAR ; _STL::_BothPtrType<char *,char *>::_Ret, COMDAT

; 234  :   static __true_type _Ret() { return __true_type();} 

  00000	55		 push	 ebp
  00001	8b ec		 mov	 ebp, esp
  00003	51		 push	 ecx
  00004	57		 push	 edi
  00005	33 c0		 xor	 eax, eax
  00007	8d 7d ff	 lea	 edi, DWORD PTR $T105529[ebp]
  0000a	aa		 stosb
  0000b	8a 45 ff	 mov	 al, BYTE PTR $T105529[ebp]
  0000e	5f		 pop	 edi
  0000f	c9		 leave
  00010	c3		 ret	 0
?_Ret@?$_BothPtrType@PADPAD@_STL@@SA?AU__true_type@2@XZ ENDP ; _STL::_BothPtrType<char *,char *>::_Ret
_TEXT	ENDS
PUBLIC	?_Ret@?$_OKToMemCpy@DD@_STL@@SA?AU__true_type@2@XZ ; _STL::_OKToMemCpy<char,char>::_Ret
; Function compile flags: /Ogsy
;	COMDAT ?_Ret@?$_OKToMemCpy@DD@_STL@@SA?AU__true_type@2@XZ
_TEXT	SEGMENT
$T105532 = -1						; size = 1
?_Ret@?$_OKToMemCpy@DD@_STL@@SA?AU__true_type@2@XZ PROC NEAR ; _STL::_OKToMemCpy<char,char>::_Ret, COMDAT

; 361  :   static _Type _Ret() { return _Type(); }

  00000	55		 push	 ebp
  00001	8b ec		 mov	 ebp, esp
  00003	51		 push	 ecx
  00004	57		 push	 edi
  00005	33 c0		 xor	 eax, eax
  00007	8d 7d ff	 lea	 edi, DWORD PTR $T105532[ebp]
  0000a	aa		 stosb
  0000b	8a 45 ff	 mov	 al, BYTE PTR $T105532[ebp]
  0000e	5f		 pop	 edi
  0000f	c9		 leave
  00010	c3		 ret	 0
?_Ret@?$_OKToMemCpy@DD@_STL@@SA?AU__true_type@2@XZ ENDP	; _STL::_OKToMemCpy<char,char>::_Ret
_TEXT	ENDS
PUBLIC	??$_IsOKToMemCpy@DD@_STL@@YA?AU?$_OKToMemCpy@DD@0@PAD0@Z ; _STL::_IsOKToMemCpy<char,char>
; Function compile flags: /Ogsy
;	COMDAT ??$_IsOKToMemCpy@DD@_STL@@YA?AU?$_OKToMemCpy@DD@0@PAD0@Z
_TEXT	SEGMENT
$T105535 = -1						; size = 1
___formal$ = 8						; size = 4
___formal$ = 12						; size = 4
??$_IsOKToMemCpy@DD@_STL@@YA?AU?$_OKToMemCpy@DD@0@PAD0@Z PROC NEAR ; _STL::_IsOKToMemCpy<char,char>, COMDAT

; 365  : inline _OKToMemCpy<_Tp1, _Tp2> _IsOKToMemCpy(_Tp1*, _Tp2*)  {

  00000	55		 push	 ebp
  00001	8b ec		 mov	 ebp, esp
  00003	51		 push	 ecx
  00004	57		 push	 edi

; 366  :   return _OKToMemCpy<_Tp1, _Tp2>();

  00005	33 c0		 xor	 eax, eax
  00007	8d 7d ff	 lea	 edi, DWORD PTR $T105535[ebp]
  0000a	aa		 stosb
  0000b	8a 45 ff	 mov	 al, BYTE PTR $T105535[ebp]
  0000e	5f		 pop	 edi

; 367  : }

  0000f	c9		 leave
  00010	c3		 ret	 0
??$_IsOKToMemCpy@DD@_STL@@YA?AU?$_OKToMemCpy@DD@0@PAD0@Z ENDP ; _STL::_IsOKToMemCpy<char,char>
_TEXT	ENDS
PUBLIC	??$__copy_ptrs@PADPAD@_STL@@YAPADPAD00ABU__true_type@0@@Z ; _STL::__copy_ptrs<char *,char *>
; Function compile flags: /Ogsy
; File c:\stlport-4.6.1\stlport\stl\_algobase.h
;	COMDAT ??$__copy_ptrs@PADPAD@_STL@@YAPADPAD00ABU__true_type@0@@Z
_TEXT	SEGMENT
___first$ = 8						; size = 4
___last$ = 12						; size = 4
___result$ = 16						; size = 4
___formal$ = 20						; size = 4
??$__copy_ptrs@PADPAD@_STL@@YAPADPAD00ABU__true_type@0@@Z PROC NEAR ; _STL::__copy_ptrs<char *,char *>, COMDAT

; 195  : // we know they all pointers, so this cast is OK 
; 196  :   //  return (_OutputIter)__copy_trivial(&(*__first), &(*__last), &(*__result));
; 197  :   return (_OutputIter)__copy_trivial(__first, __last, __result);

  00000	ff 74 24 0c	 push	 DWORD PTR ___result$[esp-4]
  00004	ff 74 24 0c	 push	 DWORD PTR ___last$[esp]
  00008	ff 74 24 0c	 push	 DWORD PTR ___first$[esp+4]
  0000c	e8 00 00 00 00	 call	 ?__copy_trivial@_STL@@YAPAXPBX0PAX@Z ; _STL::__copy_trivial
  00011	83 c4 0c	 add	 esp, 12			; 0000000cH

; 198  : }

  00014	c3		 ret	 0
??$__copy_ptrs@PADPAD@_STL@@YAPADPAD00ABU__true_type@0@@Z ENDP ; _STL::__copy_ptrs<char *,char *>
_TEXT	ENDS
PUBLIC	??$__advance@PBDH@_STL@@YAXAAPBDHABUrandom_access_iterator_tag@0@@Z ; _STL::__advance<char const *,int>
; Function compile flags: /Ogsy
; File c:\stlport-4.6.1\stlport\stl\_iterator_base.h
;	COMDAT ??$__advance@PBDH@_STL@@YAXAAPBDHABUrandom_access_iterator_tag@0@@Z
_TEXT	SEGMENT
___i$ = 8						; size = 4
___n$ = 12						; size = 4
___formal$ = 16						; size = 4
??$__advance@PBDH@_STL@@YAXAAPBDHABUrandom_access_iterator_tag@0@@Z PROC NEAR ; _STL::__advance<char const *,int>, COMDAT

; 444  :   __i += __n;

  00000	8b 44 24 04	 mov	 eax, DWORD PTR ___i$[esp-4]
  00004	8b 4c 24 08	 mov	 ecx, DWORD PTR ___n$[esp-4]
  00008	01 08		 add	 DWORD PTR [eax], ecx

; 445  : }

  0000a	c3		 ret	 0
??$__advance@PBDH@_STL@@YAXAAPBDHABUrandom_access_iterator_tag@0@@Z ENDP ; _STL::__advance<char const *,int>
_TEXT	ENDS
PUBLIC	?eof@?$__char_traits_base@DH@_STL@@SAHXZ	; _STL::__char_traits_base<char,int>::eof
; Function compile flags: /Ogsy
; File c:\stlport-4.6.1\stlport\stl\char_traits.h
;	COMDAT ?eof@?$__char_traits_base@DH@_STL@@SAHXZ
_TEXT	SEGMENT
?eof@?$__char_traits_base@DH@_STL@@SAHXZ PROC NEAR	; _STL::__char_traits_base<char,int>::eof, COMDAT

; 197  :     return (int_type)-1;

  00000	83 c8 ff	 or	 eax, -1

; 198  :     //    return __STATIC_CAST(int_type,-1);
; 199  :   }

  00003	c3		 ret	 0
?eof@?$__char_traits_base@DH@_STL@@SAHXZ ENDP		; _STL::__char_traits_base<char,int>::eof
_TEXT	ENDS
PUBLIC	??0?$allocator@D@_STL@@QAE@XZ			; _STL::allocator<char>::allocator<char>
; Function compile flags: /Ogsy
; File c:\stlport-4.6.1\stlport\stl\_alloc.h
;	COMDAT ??0?$allocator@D@_STL@@QAE@XZ
_TEXT	SEGMENT
??0?$allocator@D@_STL@@QAE@XZ PROC NEAR			; _STL::allocator<char>::allocator<char>, COMDAT
; _this$ = ecx

; 345  :   allocator() _STLP_NOTHROW {}

  00000	8b c1		 mov	 eax, ecx
  00002	c3		 ret	 0
??0?$allocator@D@_STL@@QAE@XZ ENDP			; _STL::allocator<char>::allocator<char>
_TEXT	ENDS
PUBLIC	??1?$allocator@D@_STL@@QAE@XZ			; _STL::allocator<char>::~allocator<char>
; Function compile flags: /Ogsy
;	COMDAT ??1?$allocator@D@_STL@@QAE@XZ
_TEXT	SEGMENT
??1?$allocator@D@_STL@@QAE@XZ PROC NEAR			; _STL::allocator<char>::~allocator<char>, COMDAT
; _this$ = ecx

; 350  :   ~allocator() _STLP_NOTHROW {}

  00000	c3		 ret	 0
??1?$allocator@D@_STL@@QAE@XZ ENDP			; _STL::allocator<char>::~allocator<char>
_TEXT	ENDS
PUBLIC	??1?$basic_ios@DV?$char_traits@D@_STL@@@_STL@@UAE@XZ ; _STL::basic_ios<char,_STL::char_traits<char> >::~basic_ios<char,_STL::char_traits<char> >
EXTRN	??1ios_base@_STL@@UAE@XZ:NEAR			; _STL::ios_base::~ios_base
; Function compile flags: /Ogsy
; File c:\stlport-4.6.1\stlport\stl\_ios.h
;	COMDAT ??1?$basic_ios@DV?$char_traits@D@_STL@@@_STL@@UAE@XZ
_TEXT	SEGMENT
??1?$basic_ios@DV?$char_traits@D@_STL@@@_STL@@UAE@XZ PROC NEAR ; _STL::basic_ios<char,_STL::char_traits<char> >::~basic_ios<char,_STL::char_traits<char> >, COMDAT
; _this$ = ecx

; 58   :   virtual ~basic_ios() {}

  00000	c7 01 00 00 00
	00		 mov	 DWORD PTR [ecx], OFFSET FLAT:??_7?$basic_ios@DV?$char_traits@D@_STL@@@_STL@@6B@
  00006	e9 00 00 00 00	 jmp	 ??1ios_base@_STL@@UAE@XZ ; _STL::ios_base::~ios_base
??1?$basic_ios@DV?$char_traits@D@_STL@@@_STL@@UAE@XZ ENDP ; _STL::basic_ios<char,_STL::char_traits<char> >::~basic_ios<char,_STL::char_traits<char> >
_TEXT	ENDS
PUBLIC	?_M_write@?$basic_filebuf@DV?$char_traits@D@_STL@@@_STL@@QAE_NPADH@Z ; _STL::basic_filebuf<char,_STL::char_traits<char> >::_M_write
EXTRN	?_M_write@_Filebuf_base@_STL@@QAE_NPADH@Z:NEAR	; _STL::_Filebuf_base::_M_write
; Function compile flags: /Ogsy
; File c:\stlport-4.6.1\stlport\stl\_fstream.h
;	COMDAT ?_M_write@?$basic_filebuf@DV?$char_traits@D@_STL@@@_STL@@QAE_NPADH@Z
_TEXT	SEGMENT
___buf$ = 8						; size = 4
___n$ = 12						; size = 4
?_M_write@?$basic_filebuf@DV?$char_traits@D@_STL@@@_STL@@QAE_NPADH@Z PROC NEAR ; _STL::basic_filebuf<char,_STL::char_traits<char> >::_M_write, COMDAT
; _this$ = ecx

; 349  :   bool _M_write(char* __buf,  ptrdiff_t __n) {return _M_base._M_write(__buf, __n); }

  00000	83 c1 54	 add	 ecx, 84			; 00000054H
  00003	e9 00 00 00 00	 jmp	 ?_M_write@_Filebuf_base@_STL@@QAE_NPADH@Z ; _STL::_Filebuf_base::_M_write
?_M_write@?$basic_filebuf@DV?$char_traits@D@_STL@@@_STL@@QAE_NPADH@Z ENDP ; _STL::basic_filebuf<char,_STL::char_traits<char> >::_M_write
; Function compile flags: /Ogsy
_TEXT	ENDS
;	COMDAT ??_G?$basic_ios@DV?$char_traits@D@_STL@@@_STL@@UAEPAXI@Z
_TEXT	SEGMENT
___flags$ = 8						; size = 4
??_G?$basic_ios@DV?$char_traits@D@_STL@@@_STL@@UAEPAXI@Z PROC NEAR ; _STL::basic_ios<char,_STL::char_traits<char> >::`scalar deleting destructor', COMDAT
; _this$ = ecx
  00000	56		 push	 esi
  00001	8b f1		 mov	 esi, ecx
  00003	e8 00 00 00 00	 call	 ??1?$basic_ios@DV?$char_traits@D@_STL@@@_STL@@UAE@XZ ; _STL::basic_ios<char,_STL::char_traits<char> >::~basic_ios<char,_STL::char_traits<char> >
  00008	f6 44 24 08 01	 test	 BYTE PTR ___flags$[esp], 1
  0000d	74 07		 je	 SHORT $L98548
  0000f	56		 push	 esi
  00010	e8 00 00 00 00	 call	 ??3@YAXPAX@Z		; operator delete
  00015	59		 pop	 ecx
$L98548:
  00016	8b c6		 mov	 eax, esi
  00018	5e		 pop	 esi
  00019	c2 04 00	 ret	 4
??_G?$basic_ios@DV?$char_traits@D@_STL@@@_STL@@UAEPAXI@Z ENDP ; _STL::basic_ios<char,_STL::char_traits<char> >::`scalar deleting destructor'
_TEXT	ENDS
PUBLIC	??1?$_STLP_alloc_proxy@PADDV?$allocator@D@_STL@@@_STL@@QAE@XZ ; _STL::_STLP_alloc_proxy<char *,char,_STL::allocator<char> >::~_STLP_alloc_proxy<char *,char,_STL::allocator<char> >
; Function compile flags: /Ogsy
;	COMDAT ??1?$_STLP_alloc_proxy@PADDV?$allocator@D@_STL@@@_STL@@QAE@XZ
_TEXT	SEGMENT
??1?$_STLP_alloc_proxy@PADDV?$allocator@D@_STL@@@_STL@@QAE@XZ PROC NEAR ; _STL::_STLP_alloc_proxy<char *,char,_STL::allocator<char> >::~_STLP_alloc_proxy<char *,char,_STL::allocator<char> >, COMDAT
; _this$ = ecx
  00000	c3		 ret	 0
??1?$_STLP_alloc_proxy@PADDV?$allocator@D@_STL@@@_STL@@QAE@XZ ENDP ; _STL::_STLP_alloc_proxy<char *,char,_STL::allocator<char> >::~_STLP_alloc_proxy<char *,char,_STL::allocator<char> >
_TEXT	ENDS
PUBLIC	?allocate@?$__node_alloc@$00$0A@@_STL@@SAPAXI@Z	; _STL::__node_alloc<1,0>::allocate
EXTRN	?_M_allocate@?$__node_alloc@$00$0A@@_STL@@CAPAXI@Z:NEAR ; _STL::__node_alloc<1,0>::_M_allocate
; Function compile flags: /Ogsy
; File c:\stlport-4.6.1\stlport\stl\_alloc.h
;	COMDAT ?allocate@?$__node_alloc@$00$0A@@_STL@@SAPAXI@Z
_TEXT	SEGMENT
___n$ = 8						; size = 4
?allocate@?$__node_alloc@$00$0A@@_STL@@SAPAXI@Z PROC NEAR ; _STL::__node_alloc<1,0>::allocate, COMDAT

; 251  :   static void * _STLP_CALL allocate(size_t __n) { return (__n > (size_t)_MAX_BYTES) ?  __stl_new(__n) : _M_allocate(__n); }

  00000	8b 44 24 04	 mov	 eax, DWORD PTR ___n$[esp-4]
  00004	3d 80 00 00 00	 cmp	 eax, 128		; 00000080H
  00009	50		 push	 eax
  0000a	76 07		 jbe	 SHORT $L105570
  0000c	e8 00 00 00 00	 call	 ??2@YAPAXI@Z		; operator new
  00011	59		 pop	 ecx
  00012	c3		 ret	 0
$L105570:
  00013	e8 00 00 00 00	 call	 ?_M_allocate@?$__node_alloc@$00$0A@@_STL@@CAPAXI@Z ; _STL::__node_alloc<1,0>::_M_allocate
  00018	59		 pop	 ecx
  00019	c3		 ret	 0
?allocate@?$__node_alloc@$00$0A@@_STL@@SAPAXI@Z ENDP	; _STL::__node_alloc<1,0>::allocate
_TEXT	ENDS
PUBLIC	?deallocate@?$__node_alloc@$00$0A@@_STL@@SAXPAXI@Z ; _STL::__node_alloc<1,0>::deallocate
EXTRN	?_M_deallocate@?$__node_alloc@$00$0A@@_STL@@CAXPAXI@Z:NEAR ; _STL::__node_alloc<1,0>::_M_deallocate
; Function compile flags: /Ogsy
;	COMDAT ?deallocate@?$__node_alloc@$00$0A@@_STL@@SAXPAXI@Z
_TEXT	SEGMENT
___p$ = 8						; size = 4
___n$ = 12						; size = 4
?deallocate@?$__node_alloc@$00$0A@@_STL@@SAXPAXI@Z PROC NEAR ; _STL::__node_alloc<1,0>::deallocate, COMDAT

; 253  :   static void _STLP_CALL deallocate(void *__p, size_t __n) { if (__n > (size_t)_MAX_BYTES) __stl_delete(__p); else _M_deallocate(__p, __n); }

  00000	81 7c 24 08 80
	00 00 00	 cmp	 DWORD PTR ___n$[esp-4], 128 ; 00000080H
  00008	76 0b		 jbe	 SHORT $L98677
  0000a	ff 74 24 04	 push	 DWORD PTR ___p$[esp-4]
  0000e	e8 00 00 00 00	 call	 ??3@YAXPAX@Z		; operator delete
  00013	59		 pop	 ecx
  00014	c3		 ret	 0
$L98677:
  00015	e9 00 00 00 00	 jmp	 ?_M_deallocate@?$__node_alloc@$00$0A@@_STL@@CAXPAXI@Z ; _STL::__node_alloc<1,0>::_M_deallocate
?deallocate@?$__node_alloc@$00$0A@@_STL@@SAXPAXI@Z ENDP	; _STL::__node_alloc<1,0>::deallocate
_TEXT	ENDS
PUBLIC	??$min@I@_STL@@YAABIABI0@Z			; _STL::min<unsigned int>
; Function compile flags: /Ogsy
; File c:\stlport-4.6.1\stlport\stl\_algobase.h
;	COMDAT ??$min@I@_STL@@YAABIABI0@Z
_TEXT	SEGMENT
___a$ = 8						; size = 4
___b$ = 12						; size = 4
??$min@I@_STL@@YAABIABI0@Z PROC NEAR			; _STL::min<unsigned int>, COMDAT

; 77   : inline const _Tp& (min)(const _Tp& __a, const _Tp& __b) { return __b < __a ? __b : __a; }

  00000	8b 44 24 08	 mov	 eax, DWORD PTR ___b$[esp-4]
  00004	8b 10		 mov	 edx, DWORD PTR [eax]
  00006	8b 4c 24 04	 mov	 ecx, DWORD PTR ___a$[esp-4]
  0000a	3b 11		 cmp	 edx, DWORD PTR [ecx]
  0000c	72 02		 jb	 SHORT $L105587
  0000e	8b c1		 mov	 eax, ecx
$L105587:
  00010	c3		 ret	 0
??$min@I@_STL@@YAABIABI0@Z ENDP				; _STL::min<unsigned int>
_TEXT	ENDS
PUBLIC	??1?$basic_ostream@DV?$char_traits@D@_STL@@@_STL@@UAE@XZ ; _STL::basic_ostream<char,_STL::char_traits<char> >::~basic_ostream<char,_STL::char_traits<char> >
PUBLIC	??_7?$basic_ostream@DV?$char_traits@D@_STL@@@_STL@@6B@ ; _STL::basic_ostream<char,_STL::char_traits<char> >::`vftable'
PUBLIC	??_G?$basic_ostream@DV?$char_traits@D@_STL@@@_STL@@UAEPAXI@Z ; _STL::basic_ostream<char,_STL::char_traits<char> >::`scalar deleting destructor'
PUBLIC	??_R1A@A@3BA@?$basic_ios@DV?$char_traits@D@_STL@@@_STL@@8 ; _STL::basic_ios<char,_STL::char_traits<char> >::`RTTI Base Class Descriptor at (0,0,4,16)'
PUBLIC	??_R1A@A@3A@ios_base@_STL@@8			; _STL::ios_base::`RTTI Base Class Descriptor at (0,0,4,0)'
PUBLIC	??_R4?$basic_ostream@DV?$char_traits@D@_STL@@@_STL@@6B@ ; _STL::basic_ostream<char,_STL::char_traits<char> >::`RTTI Complete Object Locator'
PUBLIC	??_R0?AV?$basic_ostream@DV?$char_traits@D@_STL@@@_STL@@@8 ; _STL::basic_ostream<char,_STL::char_traits<char> > `RTTI Type Descriptor'
PUBLIC	??_R3?$basic_ostream@DV?$char_traits@D@_STL@@@_STL@@8 ; _STL::basic_ostream<char,_STL::char_traits<char> >::`RTTI Class Hierarchy Descriptor'
PUBLIC	??_R2?$basic_ostream@DV?$char_traits@D@_STL@@@_STL@@8 ; _STL::basic_ostream<char,_STL::char_traits<char> >::`RTTI Base Class Array'
PUBLIC	??_R1A@?0A@A@?$basic_ostream@DV?$char_traits@D@_STL@@@_STL@@8 ; _STL::basic_ostream<char,_STL::char_traits<char> >::`RTTI Base Class Descriptor at (0,-1,0,0)'
EXTRN	??_E?$basic_ostream@DV?$char_traits@D@_STL@@@_STL@@UAEPAXI@Z:NEAR ; _STL::basic_ostream<char,_STL::char_traits<char> >::`vector deleting destructor'
;	COMDAT ??_7?$basic_ostream@DV?$char_traits@D@_STL@@@_STL@@6B@
; File c:\stlport-4.6.1\stlport\stl\_ostream.c
CONST	SEGMENT
??_7?$basic_ostream@DV?$char_traits@D@_STL@@@_STL@@6B@ DD FLAT:??_R4?$basic_ostream@DV?$char_traits@D@_STL@@@_STL@@6B@ ; _STL::basic_ostream<char,_STL::char_traits<char> >::`vftable'
	DD	FLAT:??_E?$basic_ostream@DV?$char_traits@D@_STL@@@_STL@@UAEPAXI@Z
CONST	ENDS
;	COMDAT ??_R4?$basic_ostream@DV?$char_traits@D@_STL@@@_STL@@6B@
rdata$r	SEGMENT
??_R4?$basic_ostream@DV?$char_traits@D@_STL@@@_STL@@6B@ DD 00H ; _STL::basic_ostream<char,_STL::char_traits<char> >::`RTTI Complete Object Locator'
	DD	04H
	DD	00H
	DD	FLAT:??_R0?AV?$basic_ostream@DV?$char_traits@D@_STL@@@_STL@@@8
	DD	FLAT:??_R3?$basic_ostream@DV?$char_traits@D@_STL@@@_STL@@8
rdata$r	ENDS
;	COMDAT ??_R0?AV?$basic_ostream@DV?$char_traits@D@_STL@@@_STL@@@8
_DATA	SEGMENT
??_R0?AV?$basic_ostream@DV?$char_traits@D@_STL@@@_STL@@@8 DD FLAT:??_7type_info@@6B@ ; _STL::basic_ostream<char,_STL::char_traits<char> > `RTTI Type Descriptor'
	DD	00H
	DB	'.?AV?$basic_ostream@DV?$char_traits@D@_STL@@@_STL@@', 00H
_DATA	ENDS
;	COMDAT ??_R3?$basic_ostream@DV?$char_traits@D@_STL@@@_STL@@8
rdata$r	SEGMENT
??_R3?$basic_ostream@DV?$char_traits@D@_STL@@@_STL@@8 DD 00H ; _STL::basic_ostream<char,_STL::char_traits<char> >::`RTTI Class Hierarchy Descriptor'
	DD	00H
	DD	03H
	DD	FLAT:??_R2?$basic_ostream@DV?$char_traits@D@_STL@@@_STL@@8
rdata$r	ENDS
;	COMDAT ??_R2?$basic_ostream@DV?$char_traits@D@_STL@@@_STL@@8
rdata$r	SEGMENT
??_R2?$basic_ostream@DV?$char_traits@D@_STL@@@_STL@@8 DD FLAT:??_R1A@?0A@A@?$basic_ostream@DV?$char_traits@D@_STL@@@_STL@@8 ; _STL::basic_ostream<char,_STL::char_traits<char> >::`RTTI Base Class Array'
	DD	FLAT:??_R1A@A@3BA@?$basic_ios@DV?$char_traits@D@_STL@@@_STL@@8
	DD	FLAT:??_R1A@A@3A@ios_base@_STL@@8
rdata$r	ENDS
;	COMDAT ??_R1A@?0A@A@?$basic_ostream@DV?$char_traits@D@_STL@@@_STL@@8
rdata$r	SEGMENT
??_R1A@?0A@A@?$basic_ostream@DV?$char_traits@D@_STL@@@_STL@@8 DD FLAT:??_R0?AV?$basic_ostream@DV?$char_traits@D@_STL@@@_STL@@@8 ; _STL::basic_ostream<char,_STL::char_traits<char> >::`RTTI Base Class Descriptor at (0,-1,0,0)'
	DD	02H
	DD	00H
	DD	0ffffffffH
	DD	00H
	DD	00H
rdata$r	ENDS
;	COMDAT ??_R1A@A@3BA@?$basic_ios@DV?$char_traits@D@_STL@@@_STL@@8
rdata$r	SEGMENT
??_R1A@A@3BA@?$basic_ios@DV?$char_traits@D@_STL@@@_STL@@8 DD FLAT:??_R0?AV?$basic_ios@DV?$char_traits@D@_STL@@@_STL@@@8 ; _STL::basic_ios<char,_STL::char_traits<char> >::`RTTI Base Class Descriptor at (0,0,4,16)'
	DD	01H
	DD	00H
	DD	00H
	DD	04H
	DD	010H
rdata$r	ENDS
;	COMDAT ??_R1A@A@3A@ios_base@_STL@@8
rdata$r	SEGMENT
??_R1A@A@3A@ios_base@_STL@@8 DD FLAT:??_R0?AVios_base@_STL@@@8 ; _STL::ios_base::`RTTI Base Class Descriptor at (0,0,4,0)'
	DD	00H
	DD	00H
	DD	00H
	DD	04H
	DD	00H
; Function compile flags: /Ogsy
rdata$r	ENDS
;	COMDAT ??1?$basic_ostream@DV?$char_traits@D@_STL@@@_STL@@UAE@XZ
_TEXT	SEGMENT
??1?$basic_ostream@DV?$char_traits@D@_STL@@@_STL@@UAE@XZ PROC NEAR ; _STL::basic_ostream<char,_STL::char_traits<char> >::~basic_ostream<char,_STL::char_traits<char> >, COMDAT
; _this$ = ecx

; 64   : {}

  00000	8b 41 fc	 mov	 eax, DWORD PTR [ecx-4]
  00003	8b 40 04	 mov	 eax, DWORD PTR [eax+4]
  00006	c7 44 08 fc 00
	00 00 00	 mov	 DWORD PTR [eax+ecx-4], OFFSET FLAT:??_7?$basic_ostream@DV?$char_traits@D@_STL@@@_STL@@6B@
  0000e	c3		 ret	 0
??1?$basic_ostream@DV?$char_traits@D@_STL@@@_STL@@UAE@XZ ENDP ; _STL::basic_ostream<char,_STL::char_traits<char> >::~basic_ostream<char,_STL::char_traits<char> >
_TEXT	ENDS
PUBLIC	?getMessageSize@MHelpMessageManager@@QBEIXZ	; MHelpMessageManager::getMessageSize
; Function compile flags: /Ogsy
; File c:\darkeden\designed_common\project\client\mhelpmessagemanager.h
;	COMDAT ?getMessageSize@MHelpMessageManager@@QBEIXZ
_TEXT	SEGMENT
?getMessageSize@MHelpMessageManager@@QBEIXZ PROC NEAR	; MHelpMessageManager::getMessageSize, COMDAT
; _this$ = ecx

; 105  : 	size_t				getMessageSize() const				{ return m_MessageVector.size(); }

  00000	8b 41 08	 mov	 eax, DWORD PTR [ecx+8]
  00003	2b 41 04	 sub	 eax, DWORD PTR [ecx+4]
  00006	b9 bc 00 00 00	 mov	 ecx, 188		; 000000bcH
  0000b	99		 cdq
  0000c	f7 f9		 idiv	 ecx
  0000e	c3		 ret	 0
?getMessageSize@MHelpMessageManager@@QBEIXZ ENDP	; MHelpMessageManager::getMessageSize
; Function compile flags: /Ogsy
_TEXT	ENDS
;	COMDAT ??_GMHelpMessage@@UAEPAXI@Z
_TEXT	SEGMENT
___flags$ = 8						; size = 4
??_GMHelpMessage@@UAEPAXI@Z PROC NEAR			; MHelpMessage::`scalar deleting destructor', COMDAT
; _this$ = ecx
  00000	56		 push	 esi
  00001	8b f1		 mov	 esi, ecx
  00003	e8 00 00 00 00	 call	 ??1MHelpMessage@@UAE@XZ	; MHelpMessage::~MHelpMessage
  00008	f6 44 24 08 01	 test	 BYTE PTR ___flags$[esp], 1
  0000d	74 07		 je	 SHORT $L101725
  0000f	56		 push	 esi
  00010	e8 00 00 00 00	 call	 ??3@YAXPAX@Z		; operator delete
  00015	59		 pop	 ecx
$L101725:
  00016	8b c6		 mov	 eax, esi
  00018	5e		 pop	 esi
  00019	c2 04 00	 ret	 4
??_GMHelpMessage@@UAEPAXI@Z ENDP			; MHelpMessage::`scalar deleting destructor'
_TEXT	ENDS
PUBLIC	??Bios_base@_STL@@QBEPAXXZ			; _STL::ios_base::operator void *
; Function compile flags: /Ogsy
; File c:\stlport-4.6.1\stlport\stl\_ios_base.h
;	COMDAT ??Bios_base@_STL@@QBEPAXXZ
_TEXT	SEGMENT
??Bios_base@_STL@@QBEPAXXZ PROC NEAR			; _STL::ios_base::operator void *, COMDAT
; _this$ = ecx

; 175  :   operator void*() const { return !fail() ? (void*) __CONST_CAST(ios_base*,this) : (void*) 0; }

  00000	8b 41 08	 mov	 eax, DWORD PTR [ecx+8]
  00003	24 05		 and	 al, 5
  00005	f6 d8		 neg	 al
  00007	1b c0		 sbb	 eax, eax
  00009	f7 d0		 not	 eax
  0000b	23 c1		 and	 eax, ecx
  0000d	c3		 ret	 0
??Bios_base@_STL@@QBEPAXXZ ENDP				; _STL::ios_base::operator void *
_TEXT	ENDS
PUBLIC	?_M_terminate_string@?$basic_string@DV?$char_traits@D@_STL@@V?$allocator@D@2@@_STL@@AAEXXZ ; _STL::basic_string<char,_STL::char_traits<char>,_STL::allocator<char> >::_M_terminate_string
; Function compile flags: /Ogsy
; File c:\stlport-4.6.1\stlport\stl\_string.h
;	COMDAT ?_M_terminate_string@?$basic_string@DV?$char_traits@D@_STL@@V?$allocator@D@2@@_STL@@AAEXXZ
_TEXT	SEGMENT
?_M_terminate_string@?$basic_string@DV?$char_traits@D@_STL@@V?$allocator@D@2@@_STL@@AAEXXZ PROC NEAR ; _STL::basic_string<char,_STL::char_traits<char>,_STL::allocator<char> >::_M_terminate_string, COMDAT
; _this$ = ecx

; 355  :     _M_terminate_string_aux(_Char_Is_Integral());

  00000	8b 41 04	 mov	 eax, DWORD PTR [ecx+4]
  00003	c6 00 00	 mov	 BYTE PTR [eax], 0

; 356  :   }

  00006	c3		 ret	 0
?_M_terminate_string@?$basic_string@DV?$char_traits@D@_STL@@V?$allocator@D@2@@_STL@@AAEXXZ ENDP ; _STL::basic_string<char,_STL::char_traits<char>,_STL::allocator<char> >::_M_terminate_string
_TEXT	ENDS
PUBLIC	?rbegin@?$basic_string@DV?$char_traits@D@_STL@@V?$allocator@D@2@@_STL@@QAE?AV?$reverse_iterator@PAD@2@XZ ; _STL::basic_string<char,_STL::char_traits<char>,_STL::allocator<char> >::rbegin
; Function compile flags: /Ogsy
;	COMDAT ?rbegin@?$basic_string@DV?$char_traits@D@_STL@@V?$allocator@D@2@@_STL@@QAE?AV?$reverse_iterator@PAD@2@XZ
_TEXT	SEGMENT
___$ReturnUdt$ = 8					; size = 4
?rbegin@?$basic_string@DV?$char_traits@D@_STL@@V?$allocator@D@2@@_STL@@QAE?AV?$reverse_iterator@PAD@2@XZ PROC NEAR ; _STL::basic_string<char,_STL::char_traits<char>,_STL::allocator<char> >::rbegin, COMDAT
; _this$ = ecx

; 422  :     { return reverse_iterator(this->_M_finish); }

  00000	8b 49 04	 mov	 ecx, DWORD PTR [ecx+4]
  00003	8b 44 24 04	 mov	 eax, DWORD PTR ___$ReturnUdt$[esp-4]
  00007	89 08		 mov	 DWORD PTR [eax], ecx
  00009	c2 04 00	 ret	 4
?rbegin@?$basic_string@DV?$char_traits@D@_STL@@V?$allocator@D@2@@_STL@@QAE?AV?$reverse_iterator@PAD@2@XZ ENDP ; _STL::basic_string<char,_STL::char_traits<char>,_STL::allocator<char> >::rbegin
_TEXT	ENDS
PUBLIC	?rend@?$basic_string@DV?$char_traits@D@_STL@@V?$allocator@D@2@@_STL@@QAE?AV?$reverse_iterator@PAD@2@XZ ; _STL::basic_string<char,_STL::char_traits<char>,_STL::allocator<char> >::rend
; Function compile flags: /Ogsy
;	COMDAT ?rend@?$basic_string@DV?$char_traits@D@_STL@@V?$allocator@D@2@@_STL@@QAE?AV?$reverse_iterator@PAD@2@XZ
_TEXT	SEGMENT
___$ReturnUdt$ = 8					; size = 4
?rend@?$basic_string@DV?$char_traits@D@_STL@@V?$allocator@D@2@@_STL@@QAE?AV?$reverse_iterator@PAD@2@XZ PROC NEAR ; _STL::basic_string<char,_STL::char_traits<char>,_STL::allocator<char> >::rend, COMDAT
; _this$ = ecx

; 424  :     { return reverse_iterator(this->_M_start); }

  00000	8b 09		 mov	 ecx, DWORD PTR [ecx]
  00002	8b 44 24 04	 mov	 eax, DWORD PTR ___$ReturnUdt$[esp-4]
  00006	89 08		 mov	 DWORD PTR [eax], ecx
  00008	c2 04 00	 ret	 4
?rend@?$basic_string@DV?$char_traits@D@_STL@@V?$allocator@D@2@@_STL@@QAE?AV?$reverse_iterator@PAD@2@XZ ENDP ; _STL::basic_string<char,_STL::char_traits<char>,_STL::allocator<char> >::rend
_TEXT	ENDS
PUBLIC	?length@?$basic_string@DV?$char_traits@D@_STL@@V?$allocator@D@2@@_STL@@QBEIXZ ; _STL::basic_string<char,_STL::char_traits<char>,_STL::allocator<char> >::length
; Function compile flags: /Ogsy
;	COMDAT ?length@?$basic_string@DV?$char_traits@D@_STL@@V?$allocator@D@2@@_STL@@QBEIXZ
_TEXT	SEGMENT
?length@?$basic_string@DV?$char_traits@D@_STL@@V?$allocator@D@2@@_STL@@QBEIXZ PROC NEAR ; _STL::basic_string<char,_STL::char_traits<char>,_STL::allocator<char> >::length, COMDAT
; _this$ = ecx

; 432  :   size_type length() const { return size(); }

  00000	8b 41 04	 mov	 eax, DWORD PTR [ecx+4]
  00003	2b 01		 sub	 eax, DWORD PTR [ecx]
  00005	c3		 ret	 0
?length@?$basic_string@DV?$char_traits@D@_STL@@V?$allocator@D@2@@_STL@@QBEIXZ ENDP ; _STL::basic_string<char,_STL::char_traits<char>,_STL::allocator<char> >::length
_TEXT	ENDS
PUBLIC	?allocate@?$allocator@D@_STL@@QAEPADIPBX@Z	; _STL::allocator<char>::allocate
; Function compile flags: /Ogsy
; File c:\stlport-4.6.1\stlport\stl\_alloc.h
;	COMDAT ?allocate@?$allocator@D@_STL@@QAEPADIPBX@Z
_TEXT	SEGMENT
___n$ = 8						; size = 4
___formal$ = 12						; size = 4
?allocate@?$allocator@D@_STL@@QAEPADIPBX@Z PROC NEAR	; _STL::allocator<char>::allocate, COMDAT
; _this$ = ecx

; 355  :     return __n != 0 ? __REINTERPRET_CAST(value_type*,__sgi_alloc::allocate(__n * sizeof(value_type))) : 0;

  00000	33 c0		 xor	 eax, eax
  00002	39 44 24 04	 cmp	 DWORD PTR ___n$[esp-4], eax
  00006	74 0a		 je	 SHORT $L105638
  00008	ff 74 24 04	 push	 DWORD PTR ___n$[esp-4]
  0000c	e8 00 00 00 00	 call	 ?allocate@?$__node_alloc@$00$0A@@_STL@@SAPAXI@Z ; _STL::__node_alloc<1,0>::allocate
  00011	59		 pop	 ecx
$L105638:

; 356  :   }

  00012	c2 08 00	 ret	 8
?allocate@?$allocator@D@_STL@@QAEPADIPBX@Z ENDP		; _STL::allocator<char>::allocate
_TEXT	ENDS
PUBLIC	?is_open@?$basic_filebuf@DV?$char_traits@D@_STL@@@_STL@@QBE_NXZ ; _STL::basic_filebuf<char,_STL::char_traits<char> >::is_open
; Function compile flags: /Ogsy
; File c:\stlport-4.6.1\stlport\stl\_fstream.h
;	COMDAT ?is_open@?$basic_filebuf@DV?$char_traits@D@_STL@@@_STL@@QBE_NXZ
_TEXT	SEGMENT
?is_open@?$basic_filebuf@DV?$char_traits@D@_STL@@@_STL@@QBE_NXZ PROC NEAR ; _STL::basic_filebuf<char,_STL::char_traits<char> >::is_open, COMDAT
; _this$ = ecx

; 198  :   bool is_open() const { return _M_base.__is_open(); }

  00000	33 c0		 xor	 eax, eax
  00002	38 41 60	 cmp	 BYTE PTR [ecx+96], al
  00005	0f 95 c0	 setne	 al
  00008	c3		 ret	 0
?is_open@?$basic_filebuf@DV?$char_traits@D@_STL@@@_STL@@QBE_NXZ ENDP ; _STL::basic_filebuf<char,_STL::char_traits<char> >::is_open
_TEXT	ENDS
PUBLIC	??A?$vector@VMHelpMessage@@V?$allocator@VMHelpMessage@@@_STL@@@_STL@@QBEABVMHelpMessage@@I@Z ; _STL::vector<MHelpMessage,_STL::allocator<MHelpMessage> >::operator[]
; Function compile flags: /Ogsy
; File c:\stlport-4.6.1\stlport\stl\_vector.h
;	COMDAT ??A?$vector@VMHelpMessage@@V?$allocator@VMHelpMessage@@@_STL@@@_STL@@QBEABVMHelpMessage@@I@Z
_TEXT	SEGMENT
___n$ = 8						; size = 4
??A?$vector@VMHelpMessage@@V?$allocator@VMHelpMessage@@@_STL@@@_STL@@QBEABVMHelpMessage@@I@Z PROC NEAR ; _STL::vector<MHelpMessage,_STL::allocator<MHelpMessage> >::operator[], COMDAT
; _this$ = ecx

; 188  :   const_reference operator[](size_type __n) const { return *(begin() + __n); }

  00000	8b 44 24 04	 mov	 eax, DWORD PTR ___n$[esp-4]
  00004	69 c0 bc 00 00
	00		 imul	 eax, 188		; 000000bcH
  0000a	03 01		 add	 eax, DWORD PTR [ecx]
  0000c	c2 04 00	 ret	 4
??A?$vector@VMHelpMessage@@V?$allocator@VMHelpMessage@@@_STL@@@_STL@@QBEABVMHelpMessage@@I@Z ENDP ; _STL::vector<MHelpMessage,_STL::allocator<MHelpMessage> >::operator[]
_TEXT	ENDS
PUBLIC	??A?$vector@VMString@@V?$allocator@VMString@@@_STL@@@_STL@@QBEABVMString@@I@Z ; _STL::vector<MString,_STL::allocator<MString> >::operator[]
; Function compile flags: /Ogsy
;	COMDAT ??A?$vector@VMString@@V?$allocator@VMString@@@_STL@@@_STL@@QBEABVMString@@I@Z
_TEXT	SEGMENT
___n$ = 8						; size = 4
??A?$vector@VMString@@V?$allocator@VMString@@@_STL@@@_STL@@QBEABVMString@@I@Z PROC NEAR ; _STL::vector<MString,_STL::allocator<MString> >::operator[], COMDAT
; _this$ = ecx

; 188  :   const_reference operator[](size_type __n) const { return *(begin() + __n); }

  00000	8b 44 24 04	 mov	 eax, DWORD PTR ___n$[esp-4]
  00004	8b 09		 mov	 ecx, DWORD PTR [ecx]
  00006	8d 04 40	 lea	 eax, DWORD PTR [eax+eax*2]
  00009	8d 04 81	 lea	 eax, DWORD PTR [ecx+eax*4]
  0000c	c2 04 00	 ret	 4
??A?$vector@VMString@@V?$allocator@VMString@@@_STL@@@_STL@@QBEABVMString@@I@Z ENDP ; _STL::vector<MString,_STL::allocator<MString> >::operator[]
_TEXT	ENDS
PUBLIC	??E?$reverse_iterator@PAD@_STL@@QAE?AV01@H@Z	; _STL::reverse_iterator<char *>::operator++
; Function compile flags: /Ogsy
; File c:\stlport-4.6.1\stlport\stl\_iterator.h
;	COMDAT ??E?$reverse_iterator@PAD@_STL@@QAE?AV01@H@Z
_TEXT	SEGMENT
___$ReturnUdt$ = 8					; size = 4
___formal$ = 12						; size = 4
??E?$reverse_iterator@PAD@_STL@@QAE?AV01@H@Z PROC NEAR	; _STL::reverse_iterator<char *>::operator++, COMDAT
; _this$ = ecx

; 87   :     _Self __tmp = *this;

  00000	8b 11		 mov	 edx, DWORD PTR [ecx]

; 88   :     --current;

  00002	8d 42 ff	 lea	 eax, DWORD PTR [edx-1]
  00005	89 01		 mov	 DWORD PTR [ecx], eax

; 89   :     return __tmp;

  00007	8b 44 24 04	 mov	 eax, DWORD PTR ___$ReturnUdt$[esp-4]
  0000b	89 10		 mov	 DWORD PTR [eax], edx

; 90   :   }

  0000d	c2 08 00	 ret	 8
??E?$reverse_iterator@PAD@_STL@@QAE?AV01@H@Z ENDP	; _STL::reverse_iterator<char *>::operator++
_TEXT	ENDS
PUBLIC	?erase@?$basic_string@DV?$char_traits@D@_STL@@V?$allocator@D@2@@_STL@@QAEPADPAD0@Z ; _STL::basic_string<char,_STL::char_traits<char>,_STL::allocator<char> >::erase
; Function compile flags: /Ogsy
; File c:\stlport-4.6.1\stlport\stl\_string.h
;	COMDAT ?erase@?$basic_string@DV?$char_traits@D@_STL@@V?$allocator@D@2@@_STL@@QAEPADPAD0@Z
_TEXT	SEGMENT
___first$ = 8						; size = 4
___last$ = 12						; size = 4
?erase@?$basic_string@DV?$char_traits@D@_STL@@V?$allocator@D@2@@_STL@@QAEPADPAD0@Z PROC NEAR ; _STL::basic_string<char,_STL::char_traits<char>,_STL::allocator<char> >::erase, COMDAT
; _this$ = ecx

; 862  :   iterator erase(iterator __first, iterator __last) {

  00000	53		 push	 ebx

; 863  :     if (__first != __last) {

  00001	8b 5c 24 08	 mov	 ebx, DWORD PTR ___first$[esp]
  00005	56		 push	 esi
  00006	57		 push	 edi
  00007	8b 7c 24 14	 mov	 edi, DWORD PTR ___last$[esp+8]
  0000b	3b df		 cmp	 ebx, edi
  0000d	8b f1		 mov	 esi, ecx
  0000f	74 1a		 je	 SHORT $L102374

; 864  :                                 // The move includes the terminating _CharT().
; 865  :       traits_type::move(__first, __last, (this->_M_finish - __last) + 1);

  00011	8b 46 04	 mov	 eax, DWORD PTR [esi+4]
  00014	2b c7		 sub	 eax, edi
  00016	40		 inc	 eax
  00017	74 0b		 je	 SHORT $L105677
  00019	50		 push	 eax
  0001a	57		 push	 edi
  0001b	53		 push	 ebx
  0001c	e8 00 00 00 00	 call	 _memmove
  00021	83 c4 0c	 add	 esp, 12			; 0000000cH
$L105677:

; 866  :       pointer __new_finish = this->_M_finish - (__last - __first);

  00024	8b c3		 mov	 eax, ebx
  00026	2b c7		 sub	 eax, edi

; 867  :       _STLP_STD::_Destroy(__new_finish + 1, this->_M_finish + 1);
; 868  :       this->_M_finish = __new_finish;

  00028	01 46 04	 add	 DWORD PTR [esi+4], eax
$L102374:
  0002b	5f		 pop	 edi
  0002c	5e		 pop	 esi

; 869  :     }
; 870  :     return __first;

  0002d	8b c3		 mov	 eax, ebx
  0002f	5b		 pop	 ebx

; 871  :   }

  00030	c2 08 00	 ret	 8
?erase@?$basic_string@DV?$char_traits@D@_STL@@V?$allocator@D@2@@_STL@@QAEPADPAD0@Z ENDP ; _STL::basic_string<char,_STL::char_traits<char>,_STL::allocator<char> >::erase
_TEXT	ENDS
PUBLIC	??0?$_STLP_alloc_proxy@PADDV?$allocator@D@_STL@@@_STL@@QAE@ABV?$allocator@D@1@PAD@Z ; _STL::_STLP_alloc_proxy<char *,char,_STL::allocator<char> >::_STLP_alloc_proxy<char *,char,_STL::allocator<char> >
; Function compile flags: /Ogsy
; File c:\stlport-4.6.1\stlport\stl\_alloc.h
;	COMDAT ??0?$_STLP_alloc_proxy@PADDV?$allocator@D@_STL@@@_STL@@QAE@ABV?$allocator@D@1@PAD@Z
_TEXT	SEGMENT
___a$ = 8						; size = 4
___p$ = 12						; size = 4
??0?$_STLP_alloc_proxy@PADDV?$allocator@D@_STL@@@_STL@@QAE@ABV?$allocator@D@1@PAD@Z PROC NEAR ; _STL::_STLP_alloc_proxy<char *,char,_STL::allocator<char> >::_STLP_alloc_proxy<char *,char,_STL::allocator<char> >, COMDAT
; _this$ = ecx

; 487  :   inline _STLP_alloc_proxy(const _MaybeReboundAlloc& __a, _Value __p) : _MaybeReboundAlloc(__a), _M_data(__p) {}

  00000	8b c1		 mov	 eax, ecx
  00002	8b 4c 24 08	 mov	 ecx, DWORD PTR ___p$[esp-4]
  00006	89 08		 mov	 DWORD PTR [eax], ecx
  00008	c2 08 00	 ret	 8
??0?$_STLP_alloc_proxy@PADDV?$allocator@D@_STL@@@_STL@@QAE@ABV?$allocator@D@1@PAD@Z ENDP ; _STL::_STLP_alloc_proxy<char *,char,_STL::allocator<char> >::_STLP_alloc_proxy<char *,char,_STL::allocator<char> >
_TEXT	ENDS
PUBLIC	?clear@?$basic_ios@DV?$char_traits@D@_STL@@@_STL@@QAEXH@Z ; _STL::basic_ios<char,_STL::char_traits<char> >::clear
; Function compile flags: /Ogsy
; File c:\stlport-4.6.1\stlport\stl\_ios.h
;	COMDAT ?clear@?$basic_ios@DV?$char_traits@D@_STL@@@_STL@@QAEXH@Z
_TEXT	SEGMENT
___state$ = 8						; size = 4
?clear@?$basic_ios@DV?$char_traits@D@_STL@@@_STL@@QAEXH@Z PROC NEAR ; _STL::basic_ios<char,_STL::char_traits<char> >::clear, COMDAT
; _this$ = ecx

; 91   :     _M_clear_nothrow(this->rdbuf() ? __state : iostate(__state|ios_base::badbit));

  00000	83 79 58 00	 cmp	 DWORD PTR [ecx+88], 0
  00004	8b 44 24 04	 mov	 eax, DWORD PTR ___state$[esp-4]
  00008	75 03		 jne	 SHORT $L105689
  0000a	83 c8 01	 or	 eax, 1
$L105689:

; 92   :     _M_check_exception_mask();

  0000d	85 41 14	 test	 DWORD PTR [ecx+20], eax
  00010	89 41 08	 mov	 DWORD PTR [ecx+8], eax
  00013	74 05		 je	 SHORT $L105701
  00015	e8 00 00 00 00	 call	 ?_M_throw_failure@ios_base@_STL@@IAEXXZ ; _STL::ios_base::_M_throw_failure
$L105701:

; 93   :   }

  0001a	c2 04 00	 ret	 4
?clear@?$basic_ios@DV?$char_traits@D@_STL@@@_STL@@QAEXH@Z ENDP ; _STL::basic_ios<char,_STL::char_traits<char> >::clear
_TEXT	ENDS
PUBLIC	?allocate@?$allocator@VMHelpMessage@@@_STL@@QAEPAVMHelpMessage@@IPBX@Z ; _STL::allocator<MHelpMessage>::allocate
; Function compile flags: /Ogsy
; File c:\stlport-4.6.1\stlport\stl\_alloc.h
;	COMDAT ?allocate@?$allocator@VMHelpMessage@@@_STL@@QAEPAVMHelpMessage@@IPBX@Z
_TEXT	SEGMENT
___n$ = 8						; size = 4
___formal$ = 12						; size = 4
?allocate@?$allocator@VMHelpMessage@@@_STL@@QAEPAVMHelpMessage@@IPBX@Z PROC NEAR ; _STL::allocator<MHelpMessage>::allocate, COMDAT
; _this$ = ecx

; 355  :     return __n != 0 ? __REINTERPRET_CAST(value_type*,__sgi_alloc::allocate(__n * sizeof(value_type))) : 0;

  00000	8b 44 24 04	 mov	 eax, DWORD PTR ___n$[esp-4]
  00004	85 c0		 test	 eax, eax
  00006	74 0f		 je	 SHORT $L105705
  00008	69 c0 bc 00 00
	00		 imul	 eax, 188		; 000000bcH
  0000e	50		 push	 eax
  0000f	e8 00 00 00 00	 call	 ?allocate@?$__node_alloc@$00$0A@@_STL@@SAPAXI@Z ; _STL::__node_alloc<1,0>::allocate
  00014	59		 pop	 ecx
  00015	eb 02		 jmp	 SHORT $L105706
$L105705:
  00017	33 c0		 xor	 eax, eax
$L105706:

; 356  :   }

  00019	c2 08 00	 ret	 8
?allocate@?$allocator@VMHelpMessage@@@_STL@@QAEPAVMHelpMessage@@IPBX@Z ENDP ; _STL::allocator<MHelpMessage>::allocate
_TEXT	ENDS
PUBLIC	?deallocate@?$allocator@VMHelpMessage@@@_STL@@QAEXPAVMHelpMessage@@I@Z ; _STL::allocator<MHelpMessage>::deallocate
; Function compile flags: /Ogsy
;	COMDAT ?deallocate@?$allocator@VMHelpMessage@@@_STL@@QAEXPAVMHelpMessage@@I@Z
_TEXT	SEGMENT
___p$ = 8						; size = 4
___n$ = 12						; size = 4
?deallocate@?$allocator@VMHelpMessage@@@_STL@@QAEXPAVMHelpMessage@@I@Z PROC NEAR ; _STL::allocator<MHelpMessage>::deallocate, COMDAT
; _this$ = ecx

; 359  :     _STLP_ASSERT( (__p == 0) == (__n == 0) )
; 360  :       if (__p != 0) __sgi_alloc::deallocate((void*)__p, __n * sizeof(value_type));

  00000	83 7c 24 04 00	 cmp	 DWORD PTR ___p$[esp-4], 0
  00005	74 16		 je	 SHORT $L102536
  00007	8b 44 24 08	 mov	 eax, DWORD PTR ___n$[esp-4]
  0000b	69 c0 bc 00 00
	00		 imul	 eax, 188		; 000000bcH
  00011	50		 push	 eax
  00012	ff 74 24 08	 push	 DWORD PTR ___p$[esp]
  00016	e8 00 00 00 00	 call	 ?deallocate@?$__node_alloc@$00$0A@@_STL@@SAXPAXI@Z ; _STL::__node_alloc<1,0>::deallocate
  0001b	59		 pop	 ecx
  0001c	59		 pop	 ecx
$L102536:

; 361  :   }

  0001d	c2 08 00	 ret	 8
?deallocate@?$allocator@VMHelpMessage@@@_STL@@QAEXPAVMHelpMessage@@I@Z ENDP ; _STL::allocator<MHelpMessage>::deallocate
_TEXT	ENDS
PUBLIC	??0?$_STLP_alloc_proxy@PAVMHelpMessage@@V1@V?$allocator@VMHelpMessage@@@_STL@@@_STL@@QAE@ABV?$allocator@VMHelpMessage@@@1@PAVMHelpMessage@@@Z ; _STL::_STLP_alloc_proxy<MHelpMessage *,MHelpMessage,_STL::allocator<MHelpMessage> >::_STLP_alloc_proxy<MHelpMessage *,MHelpMessage,_STL::allocator<MHelpMessage> >
; Function compile flags: /Ogsy
;	COMDAT ??0?$_STLP_alloc_proxy@PAVMHelpMessage@@V1@V?$allocator@VMHelpMessage@@@_STL@@@_STL@@QAE@ABV?$allocator@VMHelpMessage@@@1@PAVMHelpMessage@@@Z
_TEXT	SEGMENT
___a$ = 8						; size = 4
___p$ = 12						; size = 4
??0?$_STLP_alloc_proxy@PAVMHelpMessage@@V1@V?$allocator@VMHelpMessage@@@_STL@@@_STL@@QAE@ABV?$allocator@VMHelpMessage@@@1@PAVMHelpMessage@@@Z PROC NEAR ; _STL::_STLP_alloc_proxy<MHelpMessage *,MHelpMessage,_STL::allocator<MHelpMessage> >::_STLP_alloc_proxy<MHelpMessage *,MHelpMessage,_STL::allocator<MHelpMessage> >, COMDAT
; _this$ = ecx

; 487  :   inline _STLP_alloc_proxy(const _MaybeReboundAlloc& __a, _Value __p) : _MaybeReboundAlloc(__a), _M_data(__p) {}

  00000	8b c1		 mov	 eax, ecx
  00002	8b 4c 24 08	 mov	 ecx, DWORD PTR ___p$[esp-4]
  00006	89 08		 mov	 DWORD PTR [eax], ecx
  00008	c2 08 00	 ret	 8
??0?$_STLP_alloc_proxy@PAVMHelpMessage@@V1@V?$allocator@VMHelpMessage@@@_STL@@@_STL@@QAE@ABV?$allocator@VMHelpMessage@@@1@PAVMHelpMessage@@@Z ENDP ; _STL::_STLP_alloc_proxy<MHelpMessage *,MHelpMessage,_STL::allocator<MHelpMessage> >::_STLP_alloc_proxy<MHelpMessage *,MHelpMessage,_STL::allocator<MHelpMessage> >
_TEXT	ENDS
PUBLIC	?allocate@?$allocator@VMString@@@_STL@@QAEPAVMString@@IPBX@Z ; _STL::allocator<MString>::allocate
; Function compile flags: /Ogsy
;	COMDAT ?allocate@?$allocator@VMString@@@_STL@@QAEPAVMString@@IPBX@Z
_TEXT	SEGMENT
___n$ = 8						; size = 4
___formal$ = 12						; size = 4
?allocate@?$allocator@VMString@@@_STL@@QAEPAVMString@@IPBX@Z PROC NEAR ; _STL::allocator<MString>::allocate, COMDAT
; _this$ = ecx

; 355  :     return __n != 0 ? __REINTERPRET_CAST(value_type*,__sgi_alloc::allocate(__n * sizeof(value_type))) : 0;

  00000	8b 44 24 04	 mov	 eax, DWORD PTR ___n$[esp-4]
  00004	85 c0		 test	 eax, eax
  00006	74 0f		 je	 SHORT $L105716
  00008	8d 04 40	 lea	 eax, DWORD PTR [eax+eax*2]
  0000b	c1 e0 02	 shl	 eax, 2
  0000e	50		 push	 eax
  0000f	e8 00 00 00 00	 call	 ?allocate@?$__node_alloc@$00$0A@@_STL@@SAPAXI@Z ; _STL::__node_alloc<1,0>::allocate
  00014	59		 pop	 ecx
  00015	eb 02		 jmp	 SHORT $L105717
$L105716:
  00017	33 c0		 xor	 eax, eax
$L105717:

; 356  :   }

  00019	c2 08 00	 ret	 8
?allocate@?$allocator@VMString@@@_STL@@QAEPAVMString@@IPBX@Z ENDP ; _STL::allocator<MString>::allocate
_TEXT	ENDS
PUBLIC	?deallocate@?$allocator@VMString@@@_STL@@QAEXPAVMString@@I@Z ; _STL::allocator<MString>::deallocate
; Function compile flags: /Ogsy
;	COMDAT ?deallocate@?$allocator@VMString@@@_STL@@QAEXPAVMString@@I@Z
_TEXT	SEGMENT
___p$ = 8						; size = 4
___n$ = 12						; size = 4
?deallocate@?$allocator@VMString@@@_STL@@QAEXPAVMString@@I@Z PROC NEAR ; _STL::allocator<MString>::deallocate, COMDAT
; _this$ = ecx

; 359  :     _STLP_ASSERT( (__p == 0) == (__n == 0) )
; 360  :       if (__p != 0) __sgi_alloc::deallocate((void*)__p, __n * sizeof(value_type));

  00000	83 7c 24 04 00	 cmp	 DWORD PTR ___p$[esp-4], 0
  00005	74 16		 je	 SHORT $L102554
  00007	8b 44 24 08	 mov	 eax, DWORD PTR ___n$[esp-4]
  0000b	8d 04 40	 lea	 eax, DWORD PTR [eax+eax*2]
  0000e	c1 e0 02	 shl	 eax, 2
  00011	50		 push	 eax
  00012	ff 74 24 08	 push	 DWORD PTR ___p$[esp]
  00016	e8 00 00 00 00	 call	 ?deallocate@?$__node_alloc@$00$0A@@_STL@@SAXPAXI@Z ; _STL::__node_alloc<1,0>::deallocate
  0001b	59		 pop	 ecx
  0001c	59		 pop	 ecx
$L102554:

; 361  :   }

  0001d	c2 08 00	 ret	 8
?deallocate@?$allocator@VMString@@@_STL@@QAEXPAVMString@@I@Z ENDP ; _STL::allocator<MString>::deallocate
_TEXT	ENDS
PUBLIC	??0?$_STLP_alloc_proxy@PAVMString@@V1@V?$allocator@VMString@@@_STL@@@_STL@@QAE@ABV?$allocator@VMString@@@1@PAVMString@@@Z ; _STL::_STLP_alloc_proxy<MString *,MString,_STL::allocator<MString> >::_STLP_alloc_proxy<MString *,MString,_STL::allocator<MString> >
; Function compile flags: /Ogsy
;	COMDAT ??0?$_STLP_alloc_proxy@PAVMString@@V1@V?$allocator@VMString@@@_STL@@@_STL@@QAE@ABV?$allocator@VMString@@@1@PAVMString@@@Z
_TEXT	SEGMENT
___a$ = 8						; size = 4
___p$ = 12						; size = 4
??0?$_STLP_alloc_proxy@PAVMString@@V1@V?$allocator@VMString@@@_STL@@@_STL@@QAE@ABV?$allocator@VMString@@@1@PAVMString@@@Z PROC NEAR ; _STL::_STLP_alloc_proxy<MString *,MString,_STL::allocator<MString> >::_STLP_alloc_proxy<MString *,MString,_STL::allocator<MString> >, COMDAT
; _this$ = ecx

; 487  :   inline _STLP_alloc_proxy(const _MaybeReboundAlloc& __a, _Value __p) : _MaybeReboundAlloc(__a), _M_data(__p) {}

  00000	8b c1		 mov	 eax, ecx
  00002	8b 4c 24 08	 mov	 ecx, DWORD PTR ___p$[esp-4]
  00006	89 08		 mov	 DWORD PTR [eax], ecx
  00008	c2 08 00	 ret	 8
??0?$_STLP_alloc_proxy@PAVMString@@V1@V?$allocator@VMString@@@_STL@@@_STL@@QAE@ABV?$allocator@VMString@@@1@PAVMString@@@Z ENDP ; _STL::_STLP_alloc_proxy<MString *,MString,_STL::allocator<MString> >::_STLP_alloc_proxy<MString *,MString,_STL::allocator<MString> >
_TEXT	ENDS
PUBLIC	?_M_setup_codecvt@?$basic_filebuf@DV?$char_traits@D@_STL@@@_STL@@AAEXABVlocale@2@@Z ; _STL::basic_filebuf<char,_STL::char_traits<char> >::_M_setup_codecvt
; Function compile flags: /Ogsy
; File c:\stlport-4.6.1\stlport\stl\_fstream.c
;	COMDAT ?_M_setup_codecvt@?$basic_filebuf@DV?$char_traits@D@_STL@@@_STL@@AAEXABVlocale@2@@Z
_TEXT	SEGMENT
$T105727 = -4						; size = 4
___encoding$ = 8					; size = 4
___loc$ = 8						; size = 4
?_M_setup_codecvt@?$basic_filebuf@DV?$char_traits@D@_STL@@@_STL@@AAEXABVlocale@2@@Z PROC NEAR ; _STL::basic_filebuf<char,_STL::char_traits<char> >::_M_setup_codecvt, COMDAT
; _this$ = ecx

; 730  : {

  00000	55		 push	 ebp
  00001	8b ec		 mov	 ebp, esp
  00003	51		 push	 ecx
  00004	56		 push	 esi
  00005	8b f1		 mov	 esi, ecx

; 731  :   _M_codecvt = &use_facet<_Codecvt>(__loc) ;

  00007	8b 4d 08	 mov	 ecx, DWORD PTR ___loc$[ebp]
  0000a	68 00 00 00 00	 push	 OFFSET FLAT:?id@?$codecvt@DDH@_STL@@2V0locale@2@A ; _STL::codecvt<char,char,int>::id
  0000f	e8 00 00 00 00	 call	 ?_M_use_facet@locale@_STL@@QBEPAVfacet@12@ABVid@12@@Z ; _STL::locale::_M_use_facet
  00014	89 86 a0 00 00
	00		 mov	 DWORD PTR [esi+160], eax

; 732  :   int __encoding    = _M_codecvt->encoding();

  0001a	8b 10		 mov	 edx, DWORD PTR [eax]
  0001c	8b c8		 mov	 ecx, eax
  0001e	ff 52 10	 call	 DWORD PTR [edx+16]
  00021	89 45 08	 mov	 DWORD PTR ___encoding$[ebp], eax

; 733  : 
; 734  :   _M_width          = (max)(__encoding, 1);

  00024	33 c0		 xor	 eax, eax
  00026	40		 inc	 eax
  00027	39 45 08	 cmp	 DWORD PTR ___encoding$[ebp], eax
  0002a	89 45 fc	 mov	 DWORD PTR $T105727[ebp], eax
  0002d	8d 45 fc	 lea	 eax, DWORD PTR $T105727[ebp]
  00030	7c 03		 jl	 SHORT $L105742
  00032	8d 45 08	 lea	 eax, DWORD PTR ___encoding$[ebp]
$L105742:
  00035	8b 00		 mov	 eax, DWORD PTR [eax]

; 735  :   _M_max_width      = _M_codecvt->max_length();

  00037	8b 8e a0 00 00
	00		 mov	 ecx, DWORD PTR [esi+160]
  0003d	89 86 a4 00 00
	00		 mov	 DWORD PTR [esi+164], eax
  00043	8b 01		 mov	 eax, DWORD PTR [ecx]
  00045	ff 50 1c	 call	 DWORD PTR [eax+28]

; 736  :   _M_constant_width = __encoding > 0;

  00048	83 7d 08 00	 cmp	 DWORD PTR ___encoding$[ebp], 0

; 737  :   _M_always_noconv  = _M_codecvt->always_noconv();

  0004c	8b 8e a0 00 00
	00		 mov	 ecx, DWORD PTR [esi+160]
  00052	89 86 a8 00 00
	00		 mov	 DWORD PTR [esi+168], eax
  00058	0f 9f c0	 setg	 al
  0005b	88 46 64	 mov	 BYTE PTR [esi+100], al
  0005e	8b 01		 mov	 eax, DWORD PTR [ecx]
  00060	ff 50 14	 call	 DWORD PTR [eax+20]
  00063	88 46 65	 mov	 BYTE PTR [esi+101], al
  00066	5e		 pop	 esi

; 738  : }

  00067	c9		 leave
  00068	c2 04 00	 ret	 4
?_M_setup_codecvt@?$basic_filebuf@DV?$char_traits@D@_STL@@@_STL@@AAEXABVlocale@2@@Z ENDP ; _STL::basic_filebuf<char,_STL::char_traits<char> >::_M_setup_codecvt
_TEXT	ENDS
PUBLIC	??$_Construct@VMHelpMessage@@V1@@_STL@@YAXPAVMHelpMessage@@ABV1@@Z ; _STL::_Construct<MHelpMessage,MHelpMessage>
;	COMDAT xdata$x
; File c:\program files\microsoft visual studio .net 2003\vc7\include\new
xdata$x	SEGMENT
$T105765 DD	0ffffffffH
	DD	FLAT:$L105758
$T105763 DD	019930520H
	DD	01H
	DD	FLAT:$T105765
	DD	2 DUP(00H)
	DD	2 DUP(00H)
; Function compile flags: /Ogsy
; File c:\stlport-4.6.1\stlport\stl\_construct.h
xdata$x	ENDS
;	COMDAT ??$_Construct@VMHelpMessage@@V1@@_STL@@YAXPAVMHelpMessage@@ABV1@@Z
_TEXT	SEGMENT
$T105755 = -16						; size = 4
__$EHRec$ = -12						; size = 12
___p$ = 8						; size = 4
___val$ = 12						; size = 4
??$_Construct@VMHelpMessage@@V1@@_STL@@YAXPAVMHelpMessage@@ABV1@@Z PROC NEAR ; _STL::_Construct<MHelpMessage,MHelpMessage>, COMDAT

; 93   : inline void _Construct(_T1* __p, const _T2& __val) {

  00000	b8 00 00 00 00	 mov	 eax, __ehhandler$??$_Construct@VMHelpMessage@@V1@@_STL@@YAXPAVMHelpMessage@@ABV1@@Z
  00005	e8 00 00 00 00	 call	 __EH_prolog
  0000a	51		 push	 ecx

; 94   : # ifdef _STLP_DEBUG_UNINITIALIZED
; 95   : 	memset((char*)__p, _STLP_SHRED_BYTE, sizeof(_T1));
; 96   : # endif
; 97   :     _STLP_PLACEMENT_NEW (__p) _T1(__val);

  0000b	8b 4d 08	 mov	 ecx, DWORD PTR ___p$[ebp]
  0000e	89 4d f0	 mov	 DWORD PTR $T105755[ebp], ecx
  00011	83 65 fc 00	 and	 DWORD PTR __$EHRec$[ebp+8], 0
  00015	85 c9		 test	 ecx, ecx
  00017	74 08		 je	 SHORT $L105756
  00019	ff 75 0c	 push	 DWORD PTR ___val$[ebp]
  0001c	e8 00 00 00 00	 call	 ??0MHelpMessage@@QAE@ABV0@@Z
$L105756:

; 98   : }

  00021	8b 4d f4	 mov	 ecx, DWORD PTR __$EHRec$[ebp]
  00024	64 89 0d 00 00
	00 00		 mov	 DWORD PTR fs:__except_list, ecx
  0002b	c9		 leave
  0002c	c3		 ret	 0
_TEXT	ENDS
;	COMDAT text$x
text$x	SEGMENT
$L105758:
  00000	ff 75 08	 push	 DWORD PTR ___p$[ebp]
  00003	ff 75 f0	 push	 DWORD PTR $T105755[ebp]
  00006	e8 00 00 00 00	 call	 ??3@YAXPAX0@Z		; operator delete
  0000b	59		 pop	 ecx
  0000c	59		 pop	 ecx
  0000d	c3		 ret	 0
__ehhandler$??$_Construct@VMHelpMessage@@V1@@_STL@@YAXPAVMHelpMessage@@ABV1@@Z:
  0000e	b8 00 00 00 00	 mov	 eax, OFFSET FLAT:$T105763
  00013	e9 00 00 00 00	 jmp	 ___CxxFrameHandler
text$x	ENDS
??$_Construct@VMHelpMessage@@V1@@_STL@@YAXPAVMHelpMessage@@ABV1@@Z ENDP ; _STL::_Construct<MHelpMessage,MHelpMessage>
PUBLIC	?rdbuf@?$basic_ios@DV?$char_traits@D@_STL@@@_STL@@QAEPAV?$basic_streambuf@DV?$char_traits@D@_STL@@@2@PAV32@@Z ; _STL::basic_ios<char,_STL::char_traits<char> >::rdbuf
; Function compile flags: /Ogsy
; File c:\stlport-4.6.1\stlport\stl\_ios.c
;	COMDAT ?rdbuf@?$basic_ios@DV?$char_traits@D@_STL@@@_STL@@QAEPAV?$basic_streambuf@DV?$char_traits@D@_STL@@@2@PAV32@@Z
_TEXT	SEGMENT
___buf$ = 8						; size = 4
?rdbuf@?$basic_ios@DV?$char_traits@D@_STL@@@_STL@@QAEPAV?$basic_streambuf@DV?$char_traits@D@_STL@@@2@PAV32@@Z PROC NEAR ; _STL::basic_ios<char,_STL::char_traits<char> >::rdbuf, COMDAT
; _this$ = ecx

; 53   :   basic_streambuf<_CharT, _Traits>* __tmp = _M_streambuf;
; 54   :   _M_streambuf = __buf;

  00000	8b 44 24 04	 mov	 eax, DWORD PTR ___buf$[esp-4]
  00004	56		 push	 esi
  00005	8b 71 58	 mov	 esi, DWORD PTR [ecx+88]

; 55   :   this->clear();

  00008	6a 00		 push	 0
  0000a	89 41 58	 mov	 DWORD PTR [ecx+88], eax
  0000d	e8 00 00 00 00	 call	 ?clear@?$basic_ios@DV?$char_traits@D@_STL@@@_STL@@QAEXH@Z ; _STL::basic_ios<char,_STL::char_traits<char> >::clear

; 56   :   return __tmp;

  00012	8b c6		 mov	 eax, esi
  00014	5e		 pop	 esi

; 57   : }

  00015	c2 04 00	 ret	 4
?rdbuf@?$basic_ios@DV?$char_traits@D@_STL@@@_STL@@QAEPAV?$basic_streambuf@DV?$char_traits@D@_STL@@@2@PAV32@@Z ENDP ; _STL::basic_ios<char,_STL::char_traits<char> >::rdbuf
_TEXT	ENDS
PUBLIC	?_M_unshift@?$basic_filebuf@DV?$char_traits@D@_STL@@@_STL@@AAE_NXZ ; _STL::basic_filebuf<char,_STL::char_traits<char> >::_M_unshift
; Function compile flags: /Ogsy
; File c:\stlport-4.6.1\stlport\stl\_fstream.c
;	COMDAT ?_M_unshift@?$basic_filebuf@DV?$char_traits@D@_STL@@@_STL@@AAE_NXZ
_TEXT	SEGMENT
___enext$103241 = -4					; size = 4
?_M_unshift@?$basic_filebuf@DV?$char_traits@D@_STL@@@_STL@@AAE_NXZ PROC NEAR ; _STL::basic_filebuf<char,_STL::char_traits<char> >::_M_unshift, COMDAT
; _this$ = ecx

; 605  : {

  00000	55		 push	 ebp
  00001	8b ec		 mov	 ebp, esp
  00003	51		 push	 ecx
  00004	53		 push	 ebx
  00005	56		 push	 esi
  00006	8b f1		 mov	 esi, ecx

; 606  :   if (_M_in_output_mode && !_M_constant_width) {

  00008	80 7e 68 00	 cmp	 BYTE PTR [esi+104], 0
  0000c	57		 push	 edi
  0000d	74 57		 je	 SHORT $L103240
  0000f	80 7e 64 00	 cmp	 BYTE PTR [esi+100], 0
  00013	75 51		 jne	 SHORT $L103240
$L103238:

; 607  :     typename _Codecvt::result __status;
; 608  :     do {
; 609  :       char* __enext = _M_ext_buf;

  00015	8b 46 74	 mov	 eax, DWORD PTR [esi+116]

; 610  :       __status = _M_codecvt->unshift(_M_state,
; 611  :                                      _M_ext_buf, _M_ext_buf_EOS, __enext);

  00018	8b 56 78	 mov	 edx, DWORD PTR [esi+120]
  0001b	8b 8e a0 00 00
	00		 mov	 ecx, DWORD PTR [esi+160]
  00021	8d 5d fc	 lea	 ebx, DWORD PTR ___enext$103241[ebp]
  00024	53		 push	 ebx
  00025	52		 push	 edx
  00026	89 45 fc	 mov	 DWORD PTR ___enext$103241[ebp], eax
  00029	8b 39		 mov	 edi, DWORD PTR [ecx]
  0002b	50		 push	 eax
  0002c	8d 86 84 00 00
	00		 lea	 eax, DWORD PTR [esi+132]
  00032	50		 push	 eax
  00033	ff 57 0c	 call	 DWORD PTR [edi+12]
  00036	8b f8		 mov	 edi, eax

; 612  :       if (__status == _Codecvt::noconv ||
; 613  :           (__enext == _M_ext_buf && __status == _Codecvt::ok))

  00038	83 ff 03	 cmp	 edi, 3
  0003b	74 29		 je	 SHORT $L103240
  0003d	8b 45 fc	 mov	 eax, DWORD PTR ___enext$103241[ebp]
  00040	3b 46 74	 cmp	 eax, DWORD PTR [esi+116]
  00043	75 04		 jne	 SHORT $L103242
  00045	85 ff		 test	 edi, edi
  00047	74 1d		 je	 SHORT $L103240
$L103242:

; 614  :         return true;
; 615  :       else if (__status == _Codecvt::error)

  00049	83 ff 02	 cmp	 edi, 2
  0004c	74 1f		 je	 SHORT $L105788

; 616  :         return false;
; 617  :       else if (!_M_write(_M_ext_buf, __enext - _M_ext_buf))

  0004e	8b 4e 74	 mov	 ecx, DWORD PTR [esi+116]
  00051	2b c1		 sub	 eax, ecx
  00053	50		 push	 eax
  00054	51		 push	 ecx
  00055	8d 4e 54	 lea	 ecx, DWORD PTR [esi+84]
  00058	e8 00 00 00 00	 call	 ?_M_write@_Filebuf_base@_STL@@QAE_NPADH@Z ; _STL::_Filebuf_base::_M_write
  0005d	84 c0		 test	 al, al
  0005f	74 0c		 je	 SHORT $L105788

; 619  :     } while(__status == _Codecvt::partial);

  00061	83 ff 01	 cmp	 edi, 1
  00064	74 af		 je	 SHORT $L103238
$L103240:

; 620  :   }
; 621  : 
; 622  :   return true;

  00066	b0 01		 mov	 al, 1
$L103235:
  00068	5f		 pop	 edi
  00069	5e		 pop	 esi
  0006a	5b		 pop	 ebx

; 623  : }

  0006b	c9		 leave
  0006c	c3		 ret	 0
$L105788:

; 618  :         return false;

  0006d	32 c0		 xor	 al, al
  0006f	eb f7		 jmp	 SHORT $L103235
?_M_unshift@?$basic_filebuf@DV?$char_traits@D@_STL@@@_STL@@AAE_NXZ ENDP ; _STL::basic_filebuf<char,_STL::char_traits<char> >::_M_unshift
_TEXT	ENDS
PUBLIC	??$?8DV?$char_traits@D@_STL@@V?$allocator@D@1@@_STL@@YA_NABV?$basic_string@DV?$char_traits@D@_STL@@V?$allocator@D@2@@0@PBD@Z ; _STL::operator==<char,_STL::char_traits<char>,_STL::allocator<char> >
; Function compile flags: /Ogsy
; File c:\stlport-4.6.1\stlport\stl\_string.h
;	COMDAT ??$?8DV?$char_traits@D@_STL@@V?$allocator@D@1@@_STL@@YA_NABV?$basic_string@DV?$char_traits@D@_STL@@V?$allocator@D@2@@0@PBD@Z
_TEXT	SEGMENT
___x$ = 8						; size = 4
___s$ = 12						; size = 4
??$?8DV?$char_traits@D@_STL@@V?$allocator@D@1@@_STL@@YA_NABV?$basic_string@DV?$char_traits@D@_STL@@V?$allocator@D@2@@0@PBD@Z PROC NEAR ; _STL::operator==<char,_STL::char_traits<char>,_STL::allocator<char> >, COMDAT

; 1343 :   _STLP_FIX_LITERAL_BUG(__s)
; 1344 :   size_t __n = _Traits::length(__s);

  00000	ff 74 24 08	 push	 DWORD PTR ___s$[esp-4]
  00004	e8 00 00 00 00	 call	 _strlen
  00009	59		 pop	 ecx

; 1345 :   return __x.size() == __n && _Traits::compare(__x.data(), __s, __n) == 0;

  0000a	8b 4c 24 04	 mov	 ecx, DWORD PTR ___x$[esp-4]
  0000e	8b 11		 mov	 edx, DWORD PTR [ecx]
  00010	8b 49 04	 mov	 ecx, DWORD PTR [ecx+4]
  00013	2b ca		 sub	 ecx, edx
  00015	3b c8		 cmp	 ecx, eax
  00017	75 14		 jne	 SHORT $L105791
  00019	50		 push	 eax
  0001a	ff 74 24 0c	 push	 DWORD PTR ___s$[esp]
  0001e	52		 push	 edx
  0001f	e8 00 00 00 00	 call	 _memcmp
  00024	83 c4 0c	 add	 esp, 12			; 0000000cH
  00027	85 c0		 test	 eax, eax
  00029	75 02		 jne	 SHORT $L105791
  0002b	40		 inc	 eax

; 1346 : }

  0002c	c3		 ret	 0
$L105791:

; 1345 :   return __x.size() == __n && _Traits::compare(__x.data(), __s, __n) == 0;

  0002d	33 c0		 xor	 eax, eax

; 1346 : }

  0002f	c3		 ret	 0
??$?8DV?$char_traits@D@_STL@@V?$allocator@D@1@@_STL@@YA_NABV?$basic_string@DV?$char_traits@D@_STL@@V?$allocator@D@2@@0@PBD@Z ENDP ; _STL::operator==<char,_STL::char_traits<char>,_STL::allocator<char> >
_TEXT	ENDS
PUBLIC	??$?8PAD@_STL@@YA_NABV?$reverse_iterator@PAD@0@0@Z ; _STL::operator==<char *>
; Function compile flags: /Ogsy
; File c:\stlport-4.6.1\stlport\stl\_iterator.h
;	COMDAT ??$?8PAD@_STL@@YA_NABV?$reverse_iterator@PAD@0@0@Z
_TEXT	SEGMENT
___x$ = 8						; size = 4
___y$ = 12						; size = 4
??$?8PAD@_STL@@YA_NABV?$reverse_iterator@PAD@0@0@Z PROC NEAR ; _STL::operator==<char *>, COMDAT

; 121  :   return __x.base() == __y.base();

  00000	8b 44 24 04	 mov	 eax, DWORD PTR ___x$[esp-4]
  00004	8b 00		 mov	 eax, DWORD PTR [eax]
  00006	8b 4c 24 08	 mov	 ecx, DWORD PTR ___y$[esp-4]
  0000a	2b 01		 sub	 eax, DWORD PTR [ecx]
  0000c	f7 d8		 neg	 eax
  0000e	1b c0		 sbb	 eax, eax
  00010	40		 inc	 eax

; 122  : }

  00011	c3		 ret	 0
??$?8PAD@_STL@@YA_NABV?$reverse_iterator@PAD@0@0@Z ENDP	; _STL::operator==<char *>
_TEXT	ENDS
PUBLIC	??$__destroy@PAVMHelpMessage@@V1@@_STL@@YAXPAVMHelpMessage@@00@Z ; _STL::__destroy<MHelpMessage *,MHelpMessage>
; Function compile flags: /Ogsy
; File c:\stlport-4.6.1\stlport\stl\_construct.h
;	COMDAT ??$__destroy@PAVMHelpMessage@@V1@@_STL@@YAXPAVMHelpMessage@@00@Z
_TEXT	SEGMENT
$T105820 = -1						; size = 1
___first$ = 8						; size = 4
___last$ = 12						; size = 4
___formal$ = 16						; size = 4
??$__destroy@PAVMHelpMessage@@V1@@_STL@@YAXPAVMHelpMessage@@00@Z PROC NEAR ; _STL::__destroy<MHelpMessage *,MHelpMessage>, COMDAT

; 132  : __destroy(_ForwardIterator __first, _ForwardIterator __last, _Tp*) {

  00000	55		 push	 ebp
  00001	8b ec		 mov	 ebp, esp
  00003	51		 push	 ecx

; 133  :   typedef typename __type_traits<_Tp>::has_trivial_destructor _Trivial_destructor;
; 134  :   __destroy_aux(__first, __last, _Trivial_destructor());

  00004	8d 45 ff	 lea	 eax, DWORD PTR $T105820[ebp]
  00007	50		 push	 eax
  00008	ff 75 0c	 push	 DWORD PTR ___last$[ebp]
  0000b	ff 75 08	 push	 DWORD PTR ___first$[ebp]
  0000e	e8 00 00 00 00	 call	 ??$__destroy_aux@PAVMHelpMessage@@@_STL@@YAXPAVMHelpMessage@@0ABU__false_type@0@@Z ; _STL::__destroy_aux<MHelpMessage *>
  00013	83 c4 0c	 add	 esp, 12			; 0000000cH

; 135  : }

  00016	c9		 leave
  00017	c3		 ret	 0
??$__destroy@PAVMHelpMessage@@V1@@_STL@@YAXPAVMHelpMessage@@00@Z ENDP ; _STL::__destroy<MHelpMessage *,MHelpMessage>
_TEXT	ENDS
PUBLIC	??$__destroy@PAVMString@@V1@@_STL@@YAXPAVMString@@00@Z ; _STL::__destroy<MString *,MString>
; Function compile flags: /Ogsy
;	COMDAT ??$__destroy@PAVMString@@V1@@_STL@@YAXPAVMString@@00@Z
_TEXT	SEGMENT
$T105823 = -1						; size = 1
___first$ = 8						; size = 4
___last$ = 12						; size = 4
___formal$ = 16						; size = 4
??$__destroy@PAVMString@@V1@@_STL@@YAXPAVMString@@00@Z PROC NEAR ; _STL::__destroy<MString *,MString>, COMDAT

; 132  : __destroy(_ForwardIterator __first, _ForwardIterator __last, _Tp*) {

  00000	55		 push	 ebp
  00001	8b ec		 mov	 ebp, esp
  00003	51		 push	 ecx

; 133  :   typedef typename __type_traits<_Tp>::has_trivial_destructor _Trivial_destructor;
; 134  :   __destroy_aux(__first, __last, _Trivial_destructor());

  00004	8d 45 ff	 lea	 eax, DWORD PTR $T105823[ebp]
  00007	50		 push	 eax
  00008	ff 75 0c	 push	 DWORD PTR ___last$[ebp]
  0000b	ff 75 08	 push	 DWORD PTR ___first$[ebp]
  0000e	e8 00 00 00 00	 call	 ??$__destroy_aux@PAVMString@@@_STL@@YAXPAVMString@@0ABU__false_type@0@@Z ; _STL::__destroy_aux<MString *>
  00013	83 c4 0c	 add	 esp, 12			; 0000000cH

; 135  : }

  00016	c9		 leave
  00017	c3		 ret	 0
??$__destroy@PAVMString@@V1@@_STL@@YAXPAVMString@@00@Z ENDP ; _STL::__destroy<MString *,MString>
_TEXT	ENDS
PUBLIC	??$distance@PBD@_STL@@YAHABQBD0@Z		; _STL::distance<char const *>
; Function compile flags: /Ogsy
; File c:\stlport-4.6.1\stlport\stl\_iterator_base.h
;	COMDAT ??$distance@PBD@_STL@@YAHABQBD0@Z
_TEXT	SEGMENT
___first$ = 8						; size = 4
___last$ = 12						; size = 4
??$distance@PBD@_STL@@YAHABQBD0@Z PROC NEAR		; _STL::distance<char const *>, COMDAT

; 369  :   return __distance(__first, __last, _STLP_ITERATOR_CATEGORY(__first, _InputIterator));  

  00000	8b 44 24 08	 mov	 eax, DWORD PTR ___last$[esp-4]
  00004	8b 00		 mov	 eax, DWORD PTR [eax]
  00006	8b 4c 24 04	 mov	 ecx, DWORD PTR ___first$[esp-4]
  0000a	2b 01		 sub	 eax, DWORD PTR [ecx]

; 370  : }

  0000c	c3		 ret	 0
??$distance@PBD@_STL@@YAHABQBD0@Z ENDP			; _STL::distance<char const *>
_TEXT	ENDS
PUBLIC	??$distance@PAD@_STL@@YAHABQAD0@Z		; _STL::distance<char *>
; Function compile flags: /Ogsy
;	COMDAT ??$distance@PAD@_STL@@YAHABQAD0@Z
_TEXT	SEGMENT
___first$ = 8						; size = 4
___last$ = 12						; size = 4
??$distance@PAD@_STL@@YAHABQAD0@Z PROC NEAR		; _STL::distance<char *>, COMDAT

; 369  :   return __distance(__first, __last, _STLP_ITERATOR_CATEGORY(__first, _InputIterator));  

  00000	8b 44 24 08	 mov	 eax, DWORD PTR ___last$[esp-4]
  00004	8b 00		 mov	 eax, DWORD PTR [eax]
  00006	8b 4c 24 04	 mov	 ecx, DWORD PTR ___first$[esp-4]
  0000a	2b 01		 sub	 eax, DWORD PTR [ecx]

; 370  : }

  0000c	c3		 ret	 0
??$distance@PAD@_STL@@YAHABQAD0@Z ENDP			; _STL::distance<char *>
_TEXT	ENDS
PUBLIC	?_M_construct_null@?$basic_string@DV?$char_traits@D@_STL@@V?$allocator@D@2@@_STL@@AAEXPAD@Z ; _STL::basic_string<char,_STL::char_traits<char>,_STL::allocator<char> >::_M_construct_null
; Function compile flags: /Ogsy
; File c:\stlport-4.6.1\stlport\stl\_string.h
;	COMDAT ?_M_construct_null@?$basic_string@DV?$char_traits@D@_STL@@V?$allocator@D@2@@_STL@@AAEXPAD@Z
_TEXT	SEGMENT
___p$ = 8						; size = 4
?_M_construct_null@?$basic_string@DV?$char_traits@D@_STL@@V?$allocator@D@2@@_STL@@AAEXPAD@Z PROC NEAR ; _STL::basic_string<char,_STL::char_traits<char>,_STL::allocator<char> >::_M_construct_null, COMDAT
; _this$ = ecx

; 336  :     _M_construct_null_aux(__p, _Char_Is_Integral());

  00000	8b 44 24 04	 mov	 eax, DWORD PTR ___p$[esp-4]
  00004	c6 00 00	 mov	 BYTE PTR [eax], 0

; 337  :   }

  00007	c2 04 00	 ret	 4
?_M_construct_null@?$basic_string@DV?$char_traits@D@_STL@@V?$allocator@D@2@@_STL@@AAEXPAD@Z ENDP ; _STL::basic_string<char,_STL::char_traits<char>,_STL::allocator<char> >::_M_construct_null
_TEXT	ENDS
PUBLIC	?max_size@?$basic_string@DV?$char_traits@D@_STL@@V?$allocator@D@2@@_STL@@QBEIXZ ; _STL::basic_string<char,_STL::char_traits<char>,_STL::allocator<char> >::max_size
; Function compile flags: /Ogsy
;	COMDAT ?max_size@?$basic_string@DV?$char_traits@D@_STL@@V?$allocator@D@2@@_STL@@QBEIXZ
_TEXT	SEGMENT
?max_size@?$basic_string@DV?$char_traits@D@_STL@@V?$allocator@D@2@@_STL@@QBEIXZ PROC NEAR ; _STL::basic_string<char,_STL::char_traits<char>,_STL::allocator<char> >::max_size, COMDAT
; _this$ = ecx

; 434  :   size_t max_size() const { return _Base::max_size(); }

  00000	6a fe		 push	 -2			; fffffffeH
  00002	58		 pop	 eax
  00003	c3		 ret	 0
?max_size@?$basic_string@DV?$char_traits@D@_STL@@V?$allocator@D@2@@_STL@@QBEIXZ ENDP ; _STL::basic_string<char,_STL::char_traits<char>,_STL::allocator<char> >::max_size
_TEXT	ENDS
PUBLIC	??$__copy_aux@PADPAD@_STL@@YAPADPAD00ABU__true_type@0@@Z ; _STL::__copy_aux<char *,char *>
; Function compile flags: /Ogsy
; File c:\stlport-4.6.1\stlport\stl\_algobase.h
;	COMDAT ??$__copy_aux@PADPAD@_STL@@YAPADPAD00ABU__true_type@0@@Z
_TEXT	SEGMENT
___first$ = 8						; size = 4
___last$ = 12						; size = 4
___result$ = 16						; size = 4
___formal$ = 20						; size = 4
??$__copy_aux@PADPAD@_STL@@YAPADPAD00ABU__true_type@0@@Z PROC NEAR ; _STL::__copy_aux<char *,char *>, COMDAT

; 202  :   return __copy_ptrs(__first, __last, __result, 
; 203  :                      _IsOKToMemCpy(_STLP_VALUE_TYPE(__first, _InputIter), 
; 204  :                                    _STLP_VALUE_TYPE(__result, _OutputIter))._Ret());

  00000	ff 74 24 0c	 push	 DWORD PTR ___result$[esp-4]
  00004	ff 74 24 0c	 push	 DWORD PTR ___last$[esp]
  00008	ff 74 24 0c	 push	 DWORD PTR ___first$[esp+4]
  0000c	e8 00 00 00 00	 call	 ?__copy_trivial@_STL@@YAPAXPBX0PAX@Z ; _STL::__copy_trivial
  00011	83 c4 0c	 add	 esp, 12			; 0000000cH

; 205  : }

  00014	c3		 ret	 0
??$__copy_aux@PADPAD@_STL@@YAPADPAD00ABU__true_type@0@@Z ENDP ; _STL::__copy_aux<char *,char *>
_TEXT	ENDS
PUBLIC	??$advance@PBDH@_STL@@YAXAAPBDH@Z		; _STL::advance<char const *,int>
; Function compile flags: /Ogsy
; File c:\stlport-4.6.1\stlport\stl\_iterator_base.h
;	COMDAT ??$advance@PBDH@_STL@@YAXAAPBDH@Z
_TEXT	SEGMENT
___i$ = 8						; size = 4
___n$ = 12						; size = 4
??$advance@PBDH@_STL@@YAXAAPBDH@Z PROC NEAR		; _STL::advance<char const *,int>, COMDAT

; 449  :   __advance(__i, __n, _STLP_ITERATOR_CATEGORY(__i, _InputIterator));

  00000	8b 44 24 04	 mov	 eax, DWORD PTR ___i$[esp-4]
  00004	8b 4c 24 08	 mov	 ecx, DWORD PTR ___n$[esp-4]
  00008	01 08		 add	 DWORD PTR [eax], ecx

; 450  : }

  0000a	c3		 ret	 0
??$advance@PBDH@_STL@@YAXAAPBDH@Z ENDP			; _STL::advance<char const *,int>
_TEXT	ENDS
PUBLIC	?deallocate@?$allocator@D@_STL@@QAEXPADI@Z	; _STL::allocator<char>::deallocate
; Function compile flags: /Ogsy
; File c:\stlport-4.6.1\stlport\stl\_alloc.h
;	COMDAT ?deallocate@?$allocator@D@_STL@@QAEXPADI@Z
_TEXT	SEGMENT
___p$ = 8						; size = 4
___n$ = 12						; size = 4
?deallocate@?$allocator@D@_STL@@QAEXPADI@Z PROC NEAR	; _STL::allocator<char>::deallocate, COMDAT
; _this$ = ecx

; 359  :     _STLP_ASSERT( (__p == 0) == (__n == 0) )
; 360  :       if (__p != 0) __sgi_alloc::deallocate((void*)__p, __n * sizeof(value_type));

  00000	83 7c 24 04 00	 cmp	 DWORD PTR ___p$[esp-4], 0
  00005	74 0f		 je	 SHORT $L98663
  00007	ff 74 24 08	 push	 DWORD PTR ___n$[esp-4]
  0000b	ff 74 24 08	 push	 DWORD PTR ___p$[esp]
  0000f	e8 00 00 00 00	 call	 ?deallocate@?$__node_alloc@$00$0A@@_STL@@SAXPAXI@Z ; _STL::__node_alloc<1,0>::deallocate
  00014	59		 pop	 ecx
  00015	59		 pop	 ecx
$L98663:

; 361  :   }

  00016	c2 08 00	 ret	 8
?deallocate@?$allocator@D@_STL@@QAEXPADI@Z ENDP		; _STL::allocator<char>::deallocate
_TEXT	ENDS
PUBLIC	??_D?$basic_ostream@DV?$char_traits@D@_STL@@@_STL@@QAEXXZ ; _STL::basic_ostream<char,_STL::char_traits<char> >::`vbase destructor'
; Function compile flags: /Ogsy
;	COMDAT ??_G?$basic_ostream@DV?$char_traits@D@_STL@@@_STL@@UAEPAXI@Z
_TEXT	SEGMENT
___flags$ = 8						; size = 4
??_G?$basic_ostream@DV?$char_traits@D@_STL@@@_STL@@UAEPAXI@Z PROC NEAR ; _STL::basic_ostream<char,_STL::char_traits<char> >::`scalar deleting destructor', COMDAT
; _this$ = ecx
  00000	56		 push	 esi
  00001	8d 71 fc	 lea	 esi, DWORD PTR [ecx-4]
  00004	8b ce		 mov	 ecx, esi
  00006	e8 00 00 00 00	 call	 ??_D?$basic_ostream@DV?$char_traits@D@_STL@@@_STL@@QAEXXZ
  0000b	f6 44 24 08 01	 test	 BYTE PTR ___flags$[esp], 1
  00010	74 07		 je	 SHORT $L99014
  00012	56		 push	 esi
  00013	e8 00 00 00 00	 call	 ??3@YAXPAX@Z		; operator delete
  00018	59		 pop	 ecx
$L99014:
  00019	8b c6		 mov	 eax, esi
  0001b	5e		 pop	 esi
  0001c	c2 04 00	 ret	 4
??_G?$basic_ostream@DV?$char_traits@D@_STL@@@_STL@@UAEPAXI@Z ENDP ; _STL::basic_ostream<char,_STL::char_traits<char> >::`scalar deleting destructor'
; Function compile flags: /Ogsy
_TEXT	ENDS
;	COMDAT ??_D?$basic_ostream@DV?$char_traits@D@_STL@@@_STL@@QAEXXZ
_TEXT	SEGMENT
??_D?$basic_ostream@DV?$char_traits@D@_STL@@@_STL@@QAEXXZ PROC NEAR ; _STL::basic_ostream<char,_STL::char_traits<char> >::`vbase destructor', COMDAT
; _this$ = ecx
  00000	8b 01		 mov	 eax, DWORD PTR [ecx]
  00002	8b 40 04	 mov	 eax, DWORD PTR [eax+4]
  00005	83 c1 04	 add	 ecx, 4
  00008	c7 44 08 fc 00
	00 00 00	 mov	 DWORD PTR [eax+ecx-4], OFFSET FLAT:??_7?$basic_ostream@DV?$char_traits@D@_STL@@@_STL@@6B@
  00010	e9 00 00 00 00	 jmp	 ??1?$basic_ios@DV?$char_traits@D@_STL@@@_STL@@UAE@XZ ; _STL::basic_ios<char,_STL::char_traits<char> >::~basic_ios<char,_STL::char_traits<char> >
??_D?$basic_ostream@DV?$char_traits@D@_STL@@@_STL@@QAEXXZ ENDP ; _STL::basic_ostream<char,_STL::char_traits<char> >::`vbase destructor'
_TEXT	ENDS
PUBLIC	?getSender@MHelpMessageManager@@QBEABVMString@@H@Z ; MHelpMessageManager::getSender
; Function compile flags: /Ogsy
; File c:\darkeden\designed_common\project\client\mhelpmessagemanager.h
;	COMDAT ?getSender@MHelpMessageManager@@QBEABVMString@@H@Z
_TEXT	SEGMENT
_senderIndex$ = 8					; size = 4
?getSender@MHelpMessageManager@@QBEABVMString@@H@Z PROC NEAR ; MHelpMessageManager::getSender, COMDAT
; _this$ = ecx

; 95   : 	const MString&	getSender(int senderIndex) const	{ return m_SenderVector[senderIndex]; }

  00000	8b 44 24 04	 mov	 eax, DWORD PTR _senderIndex$[esp-4]
  00004	8b 49 10	 mov	 ecx, DWORD PTR [ecx+16]
  00007	8d 04 40	 lea	 eax, DWORD PTR [eax+eax*2]
  0000a	8d 04 81	 lea	 eax, DWORD PTR [ecx+eax*4]
  0000d	c2 04 00	 ret	 4
?getSender@MHelpMessageManager@@QBEABVMString@@H@Z ENDP	; MHelpMessageManager::getSender
_TEXT	ENDS
PUBLIC	?getMessage@MHelpMessageManager@@QBEABVMHelpMessage@@H@Z ; MHelpMessageManager::getMessage
; Function compile flags: /Ogsy
;	COMDAT ?getMessage@MHelpMessageManager@@QBEABVMHelpMessage@@H@Z
_TEXT	SEGMENT
_messageIndex$ = 8					; size = 4
?getMessage@MHelpMessageManager@@QBEABVMHelpMessage@@H@Z PROC NEAR ; MHelpMessageManager::getMessage, COMDAT
; _this$ = ecx

; 101  : 	const MHelpMessage&	getMessage(int messageIndex) const	{ return m_MessageVector[messageIndex]; }

  00000	8b 44 24 04	 mov	 eax, DWORD PTR _messageIndex$[esp-4]
  00004	69 c0 bc 00 00
	00		 imul	 eax, 188		; 000000bcH
  0000a	03 41 04	 add	 eax, DWORD PTR [ecx+4]
  0000d	c2 04 00	 ret	 4
?getMessage@MHelpMessageManager@@QBEABVMHelpMessage@@H@Z ENDP ; MHelpMessageManager::getMessage
_TEXT	ENDS
PUBLIC	?erase@?$basic_string@DV?$char_traits@D@_STL@@V?$allocator@D@2@@_STL@@QAEAAV12@II@Z ; _STL::basic_string<char,_STL::char_traits<char>,_STL::allocator<char> >::erase
; Function compile flags: /Ogsy
; File c:\stlport-4.6.1\stlport\stl\_string.h
;	COMDAT ?erase@?$basic_string@DV?$char_traits@D@_STL@@V?$allocator@D@2@@_STL@@QAEAAV12@II@Z
_TEXT	SEGMENT
$T105920 = 8						; size = 4
___pos$ = 8						; size = 4
___n$ = 12						; size = 4
?erase@?$basic_string@DV?$char_traits@D@_STL@@V?$allocator@D@2@@_STL@@QAEAAV12@II@Z PROC NEAR ; _STL::basic_string<char,_STL::char_traits<char>,_STL::allocator<char> >::erase, COMDAT
; _this$ = ecx

; 847  :   _Self& erase(size_type __pos = 0, size_type __n = npos) {

  00000	55		 push	 ebp
  00001	8b ec		 mov	 ebp, esp
  00003	56		 push	 esi
  00004	8b f1		 mov	 esi, ecx

; 848  :     if (__pos > size())

  00006	8b 46 04	 mov	 eax, DWORD PTR [esi+4]
  00009	2b 06		 sub	 eax, DWORD PTR [esi]
  0000b	57		 push	 edi
  0000c	8b 7d 08	 mov	 edi, DWORD PTR ___pos$[ebp]
  0000f	3b f8		 cmp	 edi, eax
  00011	76 05		 jbe	 SHORT $L102177

; 849  :       this->_M_throw_out_of_range();

  00013	e8 00 00 00 00	 call	 ?_M_throw_out_of_range@?$_String_base@DV?$allocator@D@_STL@@@_STL@@QBEXXZ ; _STL::_String_base<char,_STL::allocator<char> >::_M_throw_out_of_range
$L102177:

; 850  :     erase(begin() + __pos, begin() + __pos + (min) (__n, size() - __pos));

  00018	8b 0e		 mov	 ecx, DWORD PTR [esi]
  0001a	8b 46 04	 mov	 eax, DWORD PTR [esi+4]
  0001d	2b c1		 sub	 eax, ecx
  0001f	2b c7		 sub	 eax, edi
  00021	3b 45 0c	 cmp	 eax, DWORD PTR ___n$[ebp]
  00024	89 45 08	 mov	 DWORD PTR $T105920[ebp], eax
  00027	8d 45 08	 lea	 eax, DWORD PTR $T105920[ebp]
  0002a	72 03		 jb	 SHORT $L105939
  0002c	8d 45 0c	 lea	 eax, DWORD PTR ___n$[ebp]
$L105939:

; 851  :     return *this;

  0002f	8d 14 39	 lea	 edx, DWORD PTR [ecx+edi]
  00032	03 10		 add	 edx, DWORD PTR [eax]
  00034	03 cf		 add	 ecx, edi
  00036	52		 push	 edx
  00037	51		 push	 ecx
  00038	8b ce		 mov	 ecx, esi
  0003a	e8 00 00 00 00	 call	 ?erase@?$basic_string@DV?$char_traits@D@_STL@@V?$allocator@D@2@@_STL@@QAEPADPAD0@Z ; _STL::basic_string<char,_STL::char_traits<char>,_STL::allocator<char> >::erase
  0003f	5f		 pop	 edi
  00040	8b c6		 mov	 eax, esi
  00042	5e		 pop	 esi

; 852  :   }  

  00043	5d		 pop	 ebp
  00044	c2 08 00	 ret	 8
?erase@?$basic_string@DV?$char_traits@D@_STL@@V?$allocator@D@2@@_STL@@QAEAAV12@II@Z ENDP ; _STL::basic_string<char,_STL::char_traits<char>,_STL::allocator<char> >::erase
_TEXT	ENDS
PUBLIC	??0?$_String_base@DV?$allocator@D@_STL@@@_STL@@QAE@ABV?$allocator@D@1@@Z ; _STL::_String_base<char,_STL::allocator<char> >::_String_base<char,_STL::allocator<char> >
; Function compile flags: /Ogsy
;	COMDAT ??0?$_String_base@DV?$allocator@D@_STL@@@_STL@@QAE@ABV?$allocator@D@1@@Z
_TEXT	SEGMENT
___a$ = 8						; size = 4
??0?$_String_base@DV?$allocator@D@_STL@@@_STL@@QAE@ABV?$allocator@D@1@@Z PROC NEAR ; _STL::_String_base<char,_STL::allocator<char> >::_String_base<char,_STL::allocator<char> >, COMDAT
; _this$ = ecx

; 129  :     : _M_start(0), _M_finish(0), _M_end_of_storage(__a, (_Tp*)0) {}

  00000	56		 push	 esi
  00001	33 c0		 xor	 eax, eax
  00003	8b f1		 mov	 esi, ecx
  00005	50		 push	 eax
  00006	ff 74 24 0c	 push	 DWORD PTR ___a$[esp+4]
  0000a	8d 4e 08	 lea	 ecx, DWORD PTR [esi+8]
  0000d	89 06		 mov	 DWORD PTR [esi], eax
  0000f	89 46 04	 mov	 DWORD PTR [esi+4], eax
  00012	e8 00 00 00 00	 call	 ??0?$_STLP_alloc_proxy@PADDV?$allocator@D@_STL@@@_STL@@QAE@ABV?$allocator@D@1@PAD@Z ; _STL::_STLP_alloc_proxy<char *,char,_STL::allocator<char> >::_STLP_alloc_proxy<char *,char,_STL::allocator<char> >
  00017	8b c6		 mov	 eax, esi
  00019	5e		 pop	 esi
  0001a	c2 04 00	 ret	 4
??0?$_String_base@DV?$allocator@D@_STL@@@_STL@@QAE@ABV?$allocator@D@1@@Z ENDP ; _STL::_String_base<char,_STL::allocator<char> >::_String_base<char,_STL::allocator<char> >
_TEXT	ENDS
PUBLIC	?setstate@?$basic_ios@DV?$char_traits@D@_STL@@@_STL@@QAEXH@Z ; _STL::basic_ios<char,_STL::char_traits<char> >::setstate
; Function compile flags: /Ogsy
; File c:\stlport-4.6.1\stlport\stl\_ios.h
;	COMDAT ?setstate@?$basic_ios@DV?$char_traits@D@_STL@@@_STL@@QAEXH@Z
_TEXT	SEGMENT
___state$ = 8						; size = 4
?setstate@?$basic_ios@DV?$char_traits@D@_STL@@@_STL@@QAEXH@Z PROC NEAR ; _STL::basic_ios<char,_STL::char_traits<char> >::setstate, COMDAT
; _this$ = ecx

; 94   :   void setstate(iostate __state) { this->clear(rdstate() | __state); }

  00000	8b 41 08	 mov	 eax, DWORD PTR [ecx+8]
  00003	0b 44 24 04	 or	 eax, DWORD PTR ___state$[esp-4]
  00007	50		 push	 eax
  00008	e8 00 00 00 00	 call	 ?clear@?$basic_ios@DV?$char_traits@D@_STL@@@_STL@@QAEXH@Z ; _STL::basic_ios<char,_STL::char_traits<char> >::clear
  0000d	c2 04 00	 ret	 4
?setstate@?$basic_ios@DV?$char_traits@D@_STL@@@_STL@@QAEXH@Z ENDP ; _STL::basic_ios<char,_STL::char_traits<char> >::setstate
_TEXT	ENDS
PUBLIC	??0?$_Vector_base@VMHelpMessage@@V?$allocator@VMHelpMessage@@@_STL@@@_STL@@QAE@ABV?$allocator@VMHelpMessage@@@1@@Z ; _STL::_Vector_base<MHelpMessage,_STL::allocator<MHelpMessage> >::_Vector_base<MHelpMessage,_STL::allocator<MHelpMessage> >
; Function compile flags: /Ogsy
; File c:\stlport-4.6.1\stlport\stl\_vector.h
;	COMDAT ??0?$_Vector_base@VMHelpMessage@@V?$allocator@VMHelpMessage@@@_STL@@@_STL@@QAE@ABV?$allocator@VMHelpMessage@@@1@@Z
_TEXT	SEGMENT
___a$ = 8						; size = 4
??0?$_Vector_base@VMHelpMessage@@V?$allocator@VMHelpMessage@@@_STL@@@_STL@@QAE@ABV?$allocator@VMHelpMessage@@@1@@Z PROC NEAR ; _STL::_Vector_base<MHelpMessage,_STL::allocator<MHelpMessage> >::_Vector_base<MHelpMessage,_STL::allocator<MHelpMessage> >, COMDAT
; _this$ = ecx

; 72   :     : _M_start(0), _M_finish(0), _M_end_of_storage(__a, 0) {

  00000	56		 push	 esi
  00001	33 c0		 xor	 eax, eax
  00003	8b f1		 mov	 esi, ecx
  00005	50		 push	 eax
  00006	ff 74 24 0c	 push	 DWORD PTR ___a$[esp+4]
  0000a	8d 4e 08	 lea	 ecx, DWORD PTR [esi+8]
  0000d	89 06		 mov	 DWORD PTR [esi], eax
  0000f	89 46 04	 mov	 DWORD PTR [esi+4], eax
  00012	e8 00 00 00 00	 call	 ??0?$_STLP_alloc_proxy@PAVMHelpMessage@@V1@V?$allocator@VMHelpMessage@@@_STL@@@_STL@@QAE@ABV?$allocator@VMHelpMessage@@@1@PAVMHelpMessage@@@Z ; _STL::_STLP_alloc_proxy<MHelpMessage *,MHelpMessage,_STL::allocator<MHelpMessage> >::_STLP_alloc_proxy<MHelpMessage *,MHelpMessage,_STL::allocator<MHelpMessage> >

; 73   :   }

  00017	8b c6		 mov	 eax, esi
  00019	5e		 pop	 esi
  0001a	c2 04 00	 ret	 4
??0?$_Vector_base@VMHelpMessage@@V?$allocator@VMHelpMessage@@@_STL@@@_STL@@QAE@ABV?$allocator@VMHelpMessage@@@1@@Z ENDP ; _STL::_Vector_base<MHelpMessage,_STL::allocator<MHelpMessage> >::_Vector_base<MHelpMessage,_STL::allocator<MHelpMessage> >
_TEXT	ENDS
PUBLIC	??1?$_Vector_base@VMHelpMessage@@V?$allocator@VMHelpMessage@@@_STL@@@_STL@@QAE@XZ ; _STL::_Vector_base<MHelpMessage,_STL::allocator<MHelpMessage> >::~_Vector_base<MHelpMessage,_STL::allocator<MHelpMessage> >
; Function compile flags: /Ogsy
;	COMDAT ??1?$_Vector_base@VMHelpMessage@@V?$allocator@VMHelpMessage@@@_STL@@@_STL@@QAE@XZ
_TEXT	SEGMENT
??1?$_Vector_base@VMHelpMessage@@V?$allocator@VMHelpMessage@@@_STL@@@_STL@@QAE@XZ PROC NEAR ; _STL::_Vector_base<MHelpMessage,_STL::allocator<MHelpMessage> >::~_Vector_base<MHelpMessage,_STL::allocator<MHelpMessage> >, COMDAT
; _this$ = ecx

; 83   :   ~_Vector_base() { 

  00000	56		 push	 esi

; 84   :     if (_M_start !=0) 

  00001	8b 31		 mov	 esi, DWORD PTR [ecx]
  00003	85 f6		 test	 esi, esi
  00005	74 18		 je	 SHORT $L102448

; 85   :     _M_end_of_storage.deallocate(_M_start, _M_end_of_storage._M_data - _M_start); 

  00007	83 c1 08	 add	 ecx, 8
  0000a	8b 01		 mov	 eax, DWORD PTR [ecx]
  0000c	2b c6		 sub	 eax, esi
  0000e	57		 push	 edi
  0000f	99		 cdq
  00010	bf bc 00 00 00	 mov	 edi, 188		; 000000bcH
  00015	f7 ff		 idiv	 edi
  00017	50		 push	 eax
  00018	56		 push	 esi
  00019	e8 00 00 00 00	 call	 ?deallocate@?$allocator@VMHelpMessage@@@_STL@@QAEXPAVMHelpMessage@@I@Z ; _STL::allocator<MHelpMessage>::deallocate
  0001e	5f		 pop	 edi
$L102448:
  0001f	5e		 pop	 esi

; 86   :   }

  00020	c3		 ret	 0
??1?$_Vector_base@VMHelpMessage@@V?$allocator@VMHelpMessage@@@_STL@@@_STL@@QAE@XZ ENDP ; _STL::_Vector_base<MHelpMessage,_STL::allocator<MHelpMessage> >::~_Vector_base<MHelpMessage,_STL::allocator<MHelpMessage> >
_TEXT	ENDS
PUBLIC	??0?$_Vector_base@VMString@@V?$allocator@VMString@@@_STL@@@_STL@@QAE@ABV?$allocator@VMString@@@1@@Z ; _STL::_Vector_base<MString,_STL::allocator<MString> >::_Vector_base<MString,_STL::allocator<MString> >
; Function compile flags: /Ogsy
;	COMDAT ??0?$_Vector_base@VMString@@V?$allocator@VMString@@@_STL@@@_STL@@QAE@ABV?$allocator@VMString@@@1@@Z
_TEXT	SEGMENT
___a$ = 8						; size = 4
??0?$_Vector_base@VMString@@V?$allocator@VMString@@@_STL@@@_STL@@QAE@ABV?$allocator@VMString@@@1@@Z PROC NEAR ; _STL::_Vector_base<MString,_STL::allocator<MString> >::_Vector_base<MString,_STL::allocator<MString> >, COMDAT
; _this$ = ecx

; 72   :     : _M_start(0), _M_finish(0), _M_end_of_storage(__a, 0) {

  00000	56		 push	 esi
  00001	33 c0		 xor	 eax, eax
  00003	8b f1		 mov	 esi, ecx
  00005	50		 push	 eax
  00006	ff 74 24 0c	 push	 DWORD PTR ___a$[esp+4]
  0000a	8d 4e 08	 lea	 ecx, DWORD PTR [esi+8]
  0000d	89 06		 mov	 DWORD PTR [esi], eax
  0000f	89 46 04	 mov	 DWORD PTR [esi+4], eax
  00012	e8 00 00 00 00	 call	 ??0?$_STLP_alloc_proxy@PAVMString@@V1@V?$allocator@VMString@@@_STL@@@_STL@@QAE@ABV?$allocator@VMString@@@1@PAVMString@@@Z ; _STL::_STLP_alloc_proxy<MString *,MString,_STL::allocator<MString> >::_STLP_alloc_proxy<MString *,MString,_STL::allocator<MString> >

; 73   :   }

  00017	8b c6		 mov	 eax, esi
  00019	5e		 pop	 esi
  0001a	c2 04 00	 ret	 4
??0?$_Vector_base@VMString@@V?$allocator@VMString@@@_STL@@@_STL@@QAE@ABV?$allocator@VMString@@@1@@Z ENDP ; _STL::_Vector_base<MString,_STL::allocator<MString> >::_Vector_base<MString,_STL::allocator<MString> >
_TEXT	ENDS
PUBLIC	??1?$_Vector_base@VMString@@V?$allocator@VMString@@@_STL@@@_STL@@QAE@XZ ; _STL::_Vector_base<MString,_STL::allocator<MString> >::~_Vector_base<MString,_STL::allocator<MString> >
; Function compile flags: /Ogsy
;	COMDAT ??1?$_Vector_base@VMString@@V?$allocator@VMString@@@_STL@@@_STL@@QAE@XZ
_TEXT	SEGMENT
??1?$_Vector_base@VMString@@V?$allocator@VMString@@@_STL@@@_STL@@QAE@XZ PROC NEAR ; _STL::_Vector_base<MString,_STL::allocator<MString> >::~_Vector_base<MString,_STL::allocator<MString> >, COMDAT
; _this$ = ecx

; 83   :   ~_Vector_base() { 

  00000	56		 push	 esi

; 84   :     if (_M_start !=0) 

  00001	8b 31		 mov	 esi, DWORD PTR [ecx]
  00003	85 f6		 test	 esi, esi
  00005	74 16		 je	 SHORT $L102506
  00007	57		 push	 edi

; 85   :     _M_end_of_storage.deallocate(_M_start, _M_end_of_storage._M_data - _M_start); 

  00008	83 c1 08	 add	 ecx, 8
  0000b	8b 01		 mov	 eax, DWORD PTR [ecx]
  0000d	2b c6		 sub	 eax, esi
  0000f	6a 0c		 push	 12			; 0000000cH
  00011	5f		 pop	 edi
  00012	99		 cdq
  00013	f7 ff		 idiv	 edi
  00015	50		 push	 eax
  00016	56		 push	 esi
  00017	e8 00 00 00 00	 call	 ?deallocate@?$allocator@VMString@@@_STL@@QAEXPAVMString@@I@Z ; _STL::allocator<MString>::deallocate
  0001c	5f		 pop	 edi
$L102506:
  0001d	5e		 pop	 esi

; 86   :   }

  0001e	c3		 ret	 0
??1?$_Vector_base@VMString@@V?$allocator@VMString@@@_STL@@@_STL@@QAE@XZ ENDP ; _STL::_Vector_base<MString,_STL::allocator<MString> >::~_Vector_base<MString,_STL::allocator<MString> >
_TEXT	ENDS
PUBLIC	??0?$basic_filebuf@DV?$char_traits@D@_STL@@@_STL@@QAE@XZ ; _STL::basic_filebuf<char,_STL::char_traits<char> >::basic_filebuf<char,_STL::char_traits<char> >
PUBLIC	?showmanyc@?$basic_filebuf@DV?$char_traits@D@_STL@@@_STL@@MAEHXZ ; _STL::basic_filebuf<char,_STL::char_traits<char> >::showmanyc
PUBLIC	?underflow@?$basic_filebuf@DV?$char_traits@D@_STL@@@_STL@@MAEHXZ ; _STL::basic_filebuf<char,_STL::char_traits<char> >::underflow
PUBLIC	?pbackfail@?$basic_filebuf@DV?$char_traits@D@_STL@@@_STL@@MAEHH@Z ; _STL::basic_filebuf<char,_STL::char_traits<char> >::pbackfail
PUBLIC	?overflow@?$basic_filebuf@DV?$char_traits@D@_STL@@@_STL@@MAEHH@Z ; _STL::basic_filebuf<char,_STL::char_traits<char> >::overflow
PUBLIC	?setbuf@?$basic_filebuf@DV?$char_traits@D@_STL@@@_STL@@MAEPAV?$basic_streambuf@DV?$char_traits@D@_STL@@@2@PADH@Z ; _STL::basic_filebuf<char,_STL::char_traits<char> >::setbuf
PUBLIC	?seekoff@?$basic_filebuf@DV?$char_traits@D@_STL@@@_STL@@MAE?AV?$fpos@H@2@JHH@Z ; _STL::basic_filebuf<char,_STL::char_traits<char> >::seekoff
PUBLIC	?seekpos@?$basic_filebuf@DV?$char_traits@D@_STL@@@_STL@@MAE?AV?$fpos@H@2@V32@H@Z ; _STL::basic_filebuf<char,_STL::char_traits<char> >::seekpos
PUBLIC	?sync@?$basic_filebuf@DV?$char_traits@D@_STL@@@_STL@@MAEHXZ ; _STL::basic_filebuf<char,_STL::char_traits<char> >::sync
PUBLIC	?imbue@?$basic_filebuf@DV?$char_traits@D@_STL@@@_STL@@MAEXABVlocale@2@@Z ; _STL::basic_filebuf<char,_STL::char_traits<char> >::imbue
PUBLIC	??_7?$basic_filebuf@DV?$char_traits@D@_STL@@@_STL@@6B@ ; _STL::basic_filebuf<char,_STL::char_traits<char> >::`vftable'
PUBLIC	??_G?$basic_filebuf@DV?$char_traits@D@_STL@@@_STL@@UAEPAXI@Z ; _STL::basic_filebuf<char,_STL::char_traits<char> >::`scalar deleting destructor'
PUBLIC	??_R4?$basic_filebuf@DV?$char_traits@D@_STL@@@_STL@@6B@ ; _STL::basic_filebuf<char,_STL::char_traits<char> >::`RTTI Complete Object Locator'
PUBLIC	??_R0?AV?$basic_filebuf@DV?$char_traits@D@_STL@@@_STL@@@8 ; _STL::basic_filebuf<char,_STL::char_traits<char> > `RTTI Type Descriptor'
PUBLIC	??_R3?$basic_filebuf@DV?$char_traits@D@_STL@@@_STL@@8 ; _STL::basic_filebuf<char,_STL::char_traits<char> >::`RTTI Class Hierarchy Descriptor'
PUBLIC	??_R2?$basic_filebuf@DV?$char_traits@D@_STL@@@_STL@@8 ; _STL::basic_filebuf<char,_STL::char_traits<char> >::`RTTI Base Class Array'
PUBLIC	??_R1A@?0A@A@?$basic_filebuf@DV?$char_traits@D@_STL@@@_STL@@8 ; _STL::basic_filebuf<char,_STL::char_traits<char> >::`RTTI Base Class Descriptor at (0,-1,0,0)'
EXTRN	??0_Filebuf_base@_STL@@QAE@XZ:NEAR		; _STL::_Filebuf_base::_Filebuf_base
EXTRN	??1locale@_STL@@QAE@XZ:NEAR			; _STL::locale::~locale
EXTRN	??_E?$basic_filebuf@DV?$char_traits@D@_STL@@@_STL@@UAEPAXI@Z:NEAR ; _STL::basic_filebuf<char,_STL::char_traits<char> >::`vector deleting destructor'
;	COMDAT xdata$x
; File c:\stlport-4.6.1\stlport\stl\_fstream.c
xdata$x	SEGMENT
$T105974 DD	0ffffffffH
	DD	FLAT:$L105969
	DD	00H
	DD	FLAT:$L105970
$T105972 DD	019930520H
	DD	02H
	DD	FLAT:$T105974
	DD	2 DUP(00H)
	DD	2 DUP(00H)
xdata$x	ENDS
;	COMDAT ??_7?$basic_filebuf@DV?$char_traits@D@_STL@@@_STL@@6B@
CONST	SEGMENT
??_7?$basic_filebuf@DV?$char_traits@D@_STL@@@_STL@@6B@ DD FLAT:??_R4?$basic_filebuf@DV?$char_traits@D@_STL@@@_STL@@6B@ ; _STL::basic_filebuf<char,_STL::char_traits<char> >::`vftable'
	DD	FLAT:??_E?$basic_filebuf@DV?$char_traits@D@_STL@@@_STL@@UAEPAXI@Z
	DD	FLAT:?setbuf@?$basic_filebuf@DV?$char_traits@D@_STL@@@_STL@@MAEPAV?$basic_streambuf@DV?$char_traits@D@_STL@@@2@PADH@Z
	DD	FLAT:?seekoff@?$basic_filebuf@DV?$char_traits@D@_STL@@@_STL@@MAE?AV?$fpos@H@2@JHH@Z
	DD	FLAT:?seekpos@?$basic_filebuf@DV?$char_traits@D@_STL@@@_STL@@MAE?AV?$fpos@H@2@V32@H@Z
	DD	FLAT:?sync@?$basic_filebuf@DV?$char_traits@D@_STL@@@_STL@@MAEHXZ
	DD	FLAT:?showmanyc@?$basic_filebuf@DV?$char_traits@D@_STL@@@_STL@@MAEHXZ
	DD	FLAT:?xsgetn@?$basic_streambuf@DV?$char_traits@D@_STL@@@_STL@@MAEHPADH@Z
	DD	FLAT:?underflow@?$basic_filebuf@DV?$char_traits@D@_STL@@@_STL@@MAEHXZ
	DD	FLAT:?uflow@?$basic_streambuf@DV?$char_traits@D@_STL@@@_STL@@MAEHXZ
	DD	FLAT:?pbackfail@?$basic_filebuf@DV?$char_traits@D@_STL@@@_STL@@MAEHH@Z
	DD	FLAT:?xsputn@?$basic_streambuf@DV?$char_traits@D@_STL@@@_STL@@MAEHPBDH@Z
	DD	FLAT:?_M_xsputnc@?$basic_streambuf@DV?$char_traits@D@_STL@@@_STL@@MAEHDH@Z
	DD	FLAT:?overflow@?$basic_filebuf@DV?$char_traits@D@_STL@@@_STL@@MAEHH@Z
	DD	FLAT:?imbue@?$basic_filebuf@DV?$char_traits@D@_STL@@@_STL@@MAEXABVlocale@2@@Z
CONST	ENDS
;	COMDAT ??_R4?$basic_filebuf@DV?$char_traits@D@_STL@@@_STL@@6B@
rdata$r	SEGMENT
??_R4?$basic_filebuf@DV?$char_traits@D@_STL@@@_STL@@6B@ DD 00H ; _STL::basic_filebuf<char,_STL::char_traits<char> >::`RTTI Complete Object Locator'
	DD	00H
	DD	00H
	DD	FLAT:??_R0?AV?$basic_filebuf@DV?$char_traits@D@_STL@@@_STL@@@8
	DD	FLAT:??_R3?$basic_filebuf@DV?$char_traits@D@_STL@@@_STL@@8
rdata$r	ENDS
;	COMDAT ??_R0?AV?$basic_filebuf@DV?$char_traits@D@_STL@@@_STL@@@8
_DATA	SEGMENT
??_R0?AV?$basic_filebuf@DV?$char_traits@D@_STL@@@_STL@@@8 DD FLAT:??_7type_info@@6B@ ; _STL::basic_filebuf<char,_STL::char_traits<char> > `RTTI Type Descriptor'
	DD	00H
	DB	'.?AV?$basic_filebuf@DV?$char_traits@D@_STL@@@_STL@@', 00H
_DATA	ENDS
;	COMDAT ??_R3?$basic_filebuf@DV?$char_traits@D@_STL@@@_STL@@8
rdata$r	SEGMENT
??_R3?$basic_filebuf@DV?$char_traits@D@_STL@@@_STL@@8 DD 00H ; _STL::basic_filebuf<char,_STL::char_traits<char> >::`RTTI Class Hierarchy Descriptor'
	DD	00H
	DD	02H
	DD	FLAT:??_R2?$basic_filebuf@DV?$char_traits@D@_STL@@@_STL@@8
rdata$r	ENDS
;	COMDAT ??_R2?$basic_filebuf@DV?$char_traits@D@_STL@@@_STL@@8
rdata$r	SEGMENT
??_R2?$basic_filebuf@DV?$char_traits@D@_STL@@@_STL@@8 DD FLAT:??_R1A@?0A@A@?$basic_filebuf@DV?$char_traits@D@_STL@@@_STL@@8 ; _STL::basic_filebuf<char,_STL::char_traits<char> >::`RTTI Base Class Array'
	DD	FLAT:??_R1A@?0A@A@?$basic_streambuf@DV?$char_traits@D@_STL@@@_STL@@8
rdata$r	ENDS
;	COMDAT ??_R1A@?0A@A@?$basic_filebuf@DV?$char_traits@D@_STL@@@_STL@@8
rdata$r	SEGMENT
??_R1A@?0A@A@?$basic_filebuf@DV?$char_traits@D@_STL@@@_STL@@8 DD FLAT:??_R0?AV?$basic_filebuf@DV?$char_traits@D@_STL@@@_STL@@@8 ; _STL::basic_filebuf<char,_STL::char_traits<char> >::`RTTI Base Class Descriptor at (0,-1,0,0)'
	DD	01H
	DD	00H
	DD	0ffffffffH
	DD	00H
	DD	00H
; Function compile flags: /Ogsy
rdata$r	ENDS
;	COMDAT ??0?$basic_filebuf@DV?$char_traits@D@_STL@@@_STL@@QAE@XZ
_TEXT	SEGMENT
_this$ = -20						; size = 4
$T105968 = -16						; size = 4
__$EHRec$ = -12						; size = 12
??0?$basic_filebuf@DV?$char_traits@D@_STL@@@_STL@@QAE@XZ PROC NEAR ; _STL::basic_filebuf<char,_STL::char_traits<char> >::basic_filebuf<char,_STL::char_traits<char> >, COMDAT
; _this$ = ecx

; 60   : {

  00000	b8 00 00 00 00	 mov	 eax, __ehhandler$??0?$basic_filebuf@DV?$char_traits@D@_STL@@@_STL@@QAE@XZ
  00005	e8 00 00 00 00	 call	 __EH_prolog
  0000a	51		 push	 ecx
  0000b	51		 push	 ecx
  0000c	53		 push	 ebx
  0000d	56		 push	 esi
  0000e	8b f1		 mov	 esi, ecx
  00010	89 75 ec	 mov	 DWORD PTR _this$[ebp], esi
  00013	e8 00 00 00 00	 call	 ??0?$basic_streambuf@DV?$char_traits@D@_STL@@@_STL@@IAE@XZ ; _STL::basic_streambuf<char,_STL::char_traits<char> >::basic_streambuf<char,_STL::char_traits<char> >
  00018	33 db		 xor	 ebx, ebx
  0001a	8d 4e 54	 lea	 ecx, DWORD PTR [esi+84]
  0001d	89 5d fc	 mov	 DWORD PTR __$EHRec$[ebp+8], ebx
  00020	c7 06 00 00 00
	00		 mov	 DWORD PTR [esi], OFFSET FLAT:??_7?$basic_filebuf@DV?$char_traits@D@_STL@@@_STL@@6B@
  00026	e8 00 00 00 00	 call	 ??0_Filebuf_base@_STL@@QAE@XZ ; _STL::_Filebuf_base::_Filebuf_base
  0002b	33 c0		 xor	 eax, eax
  0002d	40		 inc	 eax

; 61   :   this->_M_setup_codecvt(locale());

  0002e	8d 4d f0	 lea	 ecx, DWORD PTR $T105968[ebp]
  00031	88 5e 64	 mov	 BYTE PTR [esi+100], bl
  00034	88 5e 65	 mov	 BYTE PTR [esi+101], bl
  00037	88 5e 66	 mov	 BYTE PTR [esi+102], bl
  0003a	88 5e 67	 mov	 BYTE PTR [esi+103], bl
  0003d	88 5e 68	 mov	 BYTE PTR [esi+104], bl
  00040	88 5e 69	 mov	 BYTE PTR [esi+105], bl
  00043	88 5e 6a	 mov	 BYTE PTR [esi+106], bl
  00046	89 5e 6c	 mov	 DWORD PTR [esi+108], ebx
  00049	89 5e 70	 mov	 DWORD PTR [esi+112], ebx
  0004c	89 5e 74	 mov	 DWORD PTR [esi+116], ebx
  0004f	89 5e 78	 mov	 DWORD PTR [esi+120], ebx
  00052	89 5e 7c	 mov	 DWORD PTR [esi+124], ebx
  00055	89 9e 80 00 00
	00		 mov	 DWORD PTR [esi+128], ebx
  0005b	89 9e 84 00 00
	00		 mov	 DWORD PTR [esi+132], ebx
  00061	89 9e 88 00 00
	00		 mov	 DWORD PTR [esi+136], ebx
  00067	89 9e 8c 00 00
	00		 mov	 DWORD PTR [esi+140], ebx
  0006d	89 9e 90 00 00
	00		 mov	 DWORD PTR [esi+144], ebx
  00073	89 9e 94 00 00
	00		 mov	 DWORD PTR [esi+148], ebx
  00079	89 9e 98 00 00
	00		 mov	 DWORD PTR [esi+152], ebx
  0007f	89 9e 9c 00 00
	00		 mov	 DWORD PTR [esi+156], ebx
  00085	89 9e a0 00 00
	00		 mov	 DWORD PTR [esi+160], ebx
  0008b	89 86 a4 00 00
	00		 mov	 DWORD PTR [esi+164], eax
  00091	89 86 a8 00 00
	00		 mov	 DWORD PTR [esi+168], eax
  00097	e8 00 00 00 00	 call	 ??0locale@_STL@@QAE@XZ	; _STL::locale::locale
  0009c	50		 push	 eax
  0009d	8b ce		 mov	 ecx, esi
  0009f	c6 45 fc 01	 mov	 BYTE PTR __$EHRec$[ebp+8], 1
  000a3	e8 00 00 00 00	 call	 ?_M_setup_codecvt@?$basic_filebuf@DV?$char_traits@D@_STL@@@_STL@@AAEXABVlocale@2@@Z ; _STL::basic_filebuf<char,_STL::char_traits<char> >::_M_setup_codecvt
  000a8	8d 4d f0	 lea	 ecx, DWORD PTR $T105968[ebp]
  000ab	88 5d fc	 mov	 BYTE PTR __$EHRec$[ebp+8], bl
  000ae	e8 00 00 00 00	 call	 ??1locale@_STL@@QAE@XZ	; _STL::locale::~locale

; 62   : }

  000b3	8b 4d f4	 mov	 ecx, DWORD PTR __$EHRec$[ebp]
  000b6	8b c6		 mov	 eax, esi
  000b8	5e		 pop	 esi
  000b9	5b		 pop	 ebx
  000ba	64 89 0d 00 00
	00 00		 mov	 DWORD PTR fs:__except_list, ecx
  000c1	c9		 leave
  000c2	c3		 ret	 0
_TEXT	ENDS
;	COMDAT text$x
text$x	SEGMENT
$L105969:
  00000	8b 4d ec	 mov	 ecx, DWORD PTR _this$[ebp]
  00003	e9 00 00 00 00	 jmp	 ??1?$basic_streambuf@DV?$char_traits@D@_STL@@@_STL@@UAE@XZ ; _STL::basic_streambuf<char,_STL::char_traits<char> >::~basic_streambuf<char,_STL::char_traits<char> >
$L105970:
  00008	8d 4d f0	 lea	 ecx, DWORD PTR $T105968[ebp]
  0000b	e9 00 00 00 00	 jmp	 ??1locale@_STL@@QAE@XZ	; _STL::locale::~locale
__ehhandler$??0?$basic_filebuf@DV?$char_traits@D@_STL@@@_STL@@QAE@XZ:
  00010	b8 00 00 00 00	 mov	 eax, OFFSET FLAT:$T105972
  00015	e9 00 00 00 00	 jmp	 ___CxxFrameHandler
text$x	ENDS
??0?$basic_filebuf@DV?$char_traits@D@_STL@@@_STL@@QAE@XZ ENDP ; _STL::basic_filebuf<char,_STL::char_traits<char> >::basic_filebuf<char,_STL::char_traits<char> >
EXTRN	?_M_doit@?$_Underflow@DV?$char_traits@D@_STL@@@_STL@@SAHPAV?$basic_filebuf@DV?$char_traits@D@_STL@@@2@@Z:NEAR ; _STL::_Underflow<char,_STL::char_traits<char> >::_M_doit
; Function compile flags: /Ogsy
;	COMDAT ?underflow@?$basic_filebuf@DV?$char_traits@D@_STL@@@_STL@@MAEHXZ
_TEXT	SEGMENT
?underflow@?$basic_filebuf@DV?$char_traits@D@_STL@@@_STL@@MAEHXZ PROC NEAR ; _STL::basic_filebuf<char,_STL::char_traits<char> >::underflow, COMDAT
; _this$ = ecx

; 75   :   return _Underflow<_CharT, _Traits>::_M_doit(this);

  00000	51		 push	 ecx
  00001	e8 00 00 00 00	 call	 ?_M_doit@?$_Underflow@DV?$char_traits@D@_STL@@@_STL@@SAHPAV?$basic_filebuf@DV?$char_traits@D@_STL@@@2@@Z ; _STL::_Underflow<char,_STL::char_traits<char> >::_M_doit
  00006	59		 pop	 ecx

; 76   : }

  00007	c3		 ret	 0
?underflow@?$basic_filebuf@DV?$char_traits@D@_STL@@@_STL@@MAEHXZ ENDP ; _STL::basic_filebuf<char,_STL::char_traits<char> >::underflow
; Function compile flags: /Ogsy
_TEXT	ENDS
;	COMDAT ?pbackfail@?$basic_filebuf@DV?$char_traits@D@_STL@@@_STL@@MAEHH@Z
_TEXT	SEGMENT
___c$ = 8						; size = 4
?pbackfail@?$basic_filebuf@DV?$char_traits@D@_STL@@@_STL@@MAEHH@Z PROC NEAR ; _STL::basic_filebuf<char,_STL::char_traits<char> >::pbackfail, COMDAT
; _this$ = ecx

; 162  :   const int_type __eof = traits_type::eof();
; 163  : 
; 164  :   // If we aren't already in input mode, pushback is impossible.
; 165  :   if (!_M_in_input_mode)
; 166  :     return __eof;

  00000	83 c8 ff	 or	 eax, -1
  00003	80 79 67 00	 cmp	 BYTE PTR [ecx+103], 0
  00007	0f 84 b0 00 00
	00		 je	 $L98761

; 167  : 
; 168  :   // We can use the ordinary get buffer if there's enough space, and
; 169  :   // if it's a buffer that we're allowed to write to.
; 170  :   if (this->gptr() != this->eback() &&
; 171  :       (traits_type::eq_int_type(__c, __eof) ||
; 172  :        traits_type::eq(traits_type::to_char_type(__c), this->gptr()[-1]) ||
; 173  :        !_M_mmap_base)) {

  0000d	8b 51 04	 mov	 edx, DWORD PTR [ecx+4]
  00010	53		 push	 ebx
  00011	8b 5c 24 08	 mov	 ebx, DWORD PTR ___c$[esp]
  00015	56		 push	 esi
  00016	8b 32		 mov	 esi, DWORD PTR [edx]
  00018	57		 push	 edi
  00019	8b 7a 08	 mov	 edi, DWORD PTR [edx+8]
  0001c	3b f7		 cmp	 esi, edi
  0001e	74 2e		 je	 SHORT $L98765
  00020	3b d8		 cmp	 ebx, eax
  00022	74 0e		 je	 SHORT $L98766
  00024	3a 5e ff	 cmp	 bl, BYTE PTR [esi-1]
  00027	74 09		 je	 SHORT $L98766
  00029	83 b9 8c 00 00
	00 00		 cmp	 DWORD PTR [ecx+140], 0
  00030	75 1c		 jne	 SHORT $L98765
$L98766:

; 174  :     this->gbump(-1);

  00032	ff 0a		 dec	 DWORD PTR [edx]
  00034	ff 42 04	 inc	 DWORD PTR [edx+4]

; 175  :     if (traits_type::eq_int_type(__c, __eof) ||
; 176  :         traits_type::eq(traits_type::to_char_type(__c), *this->gptr()))

  00037	3b d8		 cmp	 ebx, eax
  00039	74 09		 je	 SHORT $L98769
  0003b	8b 41 04	 mov	 eax, DWORD PTR [ecx+4]
  0003e	8b 00		 mov	 eax, DWORD PTR [eax]
  00040	3a 18		 cmp	 bl, BYTE PTR [eax]
  00042	75 6d		 jne	 SHORT $L98777
$L98769:

; 177  :       return traits_type::to_int_type(*this->gptr());

  00044	8b 41 04	 mov	 eax, DWORD PTR [ecx+4]
  00047	8b 00		 mov	 eax, DWORD PTR [eax]
  00049	0f b6 00	 movzx	 eax, BYTE PTR [eax]
  0004c	eb 6c		 jmp	 SHORT $L106159
$L98765:

; 178  :   }
; 179  :   else if (!traits_type::eq_int_type(__c, __eof)) {

  0004e	3b d8		 cmp	 ebx, eax
  00050	74 68		 je	 SHORT $L106159

; 180  :     // Are we in the putback buffer already?
; 181  :     _CharT* __pback_end = _M_pback_buf + __STATIC_CAST(int,_S_pback_buf_size);
; 182  :     if (_M_in_putback_mode) {

  00052	80 79 6a 00	 cmp	 BYTE PTR [ecx+106], 0
  00056	8d b1 b4 00 00
	00		 lea	 esi, DWORD PTR [ecx+180]
  0005c	74 29		 je	 SHORT $L98774

; 183  :       // Do we have more room in the putback buffer?
; 184  :       if (this->eback() != _M_pback_buf) 

  0005e	8d 99 ac 00 00
	00		 lea	 ebx, DWORD PTR [ecx+172]
  00064	3b fb		 cmp	 edi, ebx
  00066	74 52		 je	 SHORT $L106159

; 185  :         this->setg(this->egptr() - 1, this->egptr() - 1, __pback_end);

  00068	8b 42 04	 mov	 eax, DWORD PTR [edx+4]
  0006b	8b 3a		 mov	 edi, DWORD PTR [edx]
  0006d	8b 1a		 mov	 ebx, DWORD PTR [edx]
  0006f	8d 7c 38 ff	 lea	 edi, DWORD PTR [eax+edi-1]
  00073	8d 44 18 ff	 lea	 eax, DWORD PTR [eax+ebx-1]

; 186  :       else
; 187  :         return __eof;           // No more room in the buffer, so fail.
; 188  :     }
; 189  :     else {                      // We're not yet in the putback buffer.

  00077	8b 5c 24 10	 mov	 ebx, DWORD PTR ___c$[esp+8]
  0007b	2b f7		 sub	 esi, edi
  0007d	89 42 08	 mov	 DWORD PTR [edx+8], eax
  00080	89 3a		 mov	 DWORD PTR [edx], edi
  00082	89 72 04	 mov	 DWORD PTR [edx+4], esi
  00085	eb 2a		 jmp	 SHORT $L98777
$L98774:

; 190  :       _M_saved_eback = this->eback();

  00087	89 b9 94 00 00
	00		 mov	 DWORD PTR [ecx+148], edi

; 191  :       _M_saved_gptr  = this->gptr();

  0008d	8b 02		 mov	 eax, DWORD PTR [edx]
  0008f	89 81 98 00 00
	00		 mov	 DWORD PTR [ecx+152], eax

; 192  :       _M_saved_egptr = this->egptr();

  00095	8b 42 04	 mov	 eax, DWORD PTR [edx+4]
  00098	03 02		 add	 eax, DWORD PTR [edx]

; 193  :       this->setg(__pback_end - 1, __pback_end - 1, __pback_end);

  0009a	8d 7e ff	 lea	 edi, DWORD PTR [esi-1]
  0009d	89 81 9c 00 00
	00		 mov	 DWORD PTR [ecx+156], eax
  000a3	2b f7		 sub	 esi, edi
  000a5	89 7a 08	 mov	 DWORD PTR [edx+8], edi
  000a8	89 3a		 mov	 DWORD PTR [edx], edi
  000aa	89 72 04	 mov	 DWORD PTR [edx+4], esi

; 194  :       _M_in_putback_mode = true;

  000ad	c6 41 6a 01	 mov	 BYTE PTR [ecx+106], 1
$L98777:

; 195  :     }
; 196  :   }
; 197  :   else
; 198  :     return __eof;
; 199  : 
; 200  :   // We have made a putback position available.  Assign to it, and return.
; 201  :   *this->gptr() = traits_type::to_char_type(__c);

  000b1	8b 41 04	 mov	 eax, DWORD PTR [ecx+4]
  000b4	8b 00		 mov	 eax, DWORD PTR [eax]
  000b6	88 18		 mov	 BYTE PTR [eax], bl

; 202  :   return __c;

  000b8	8b c3		 mov	 eax, ebx
$L106159:
  000ba	5f		 pop	 edi
  000bb	5e		 pop	 esi
  000bc	5b		 pop	 ebx
$L98761:

; 203  : }

  000bd	c2 04 00	 ret	 4
?pbackfail@?$basic_filebuf@DV?$char_traits@D@_STL@@@_STL@@MAEHH@Z ENDP ; _STL::basic_filebuf<char,_STL::char_traits<char> >::pbackfail
; Function compile flags: /Ogsy
_TEXT	ENDS
;	COMDAT ?sync@?$basic_filebuf@DV?$char_traits@D@_STL@@@_STL@@MAEHXZ
_TEXT	SEGMENT
?sync@?$basic_filebuf@DV?$char_traits@D@_STL@@@_STL@@MAEHXZ PROC NEAR ; _STL::basic_filebuf<char,_STL::char_traits<char> >::sync, COMDAT
; _this$ = ecx

; 414  :   if (_M_in_output_mode)

  00000	80 79 68 00	 cmp	 BYTE PTR [ecx+104], 0
  00004	74 13		 je	 SHORT $L98951

; 415  :     return traits_type::eq_int_type(this->overflow(traits_type::eof()),
; 416  :                                     traits_type::eof())
; 417  :       ? -1
; 418  :       : 0;

  00006	8b 01		 mov	 eax, DWORD PTR [ecx]
  00008	6a ff		 push	 -1
  0000a	ff 50 30	 call	 DWORD PTR [eax+48]
  0000d	33 c9		 xor	 ecx, ecx
  0000f	83 f8 ff	 cmp	 eax, -1
  00012	0f 95 c1	 setne	 cl
  00015	49		 dec	 ecx
  00016	8b c1		 mov	 eax, ecx

; 421  : }

  00018	c3		 ret	 0
$L98951:

; 419  :   else
; 420  :     return 0;

  00019	33 c0		 xor	 eax, eax

; 421  : }

  0001b	c3		 ret	 0
?sync@?$basic_filebuf@DV?$char_traits@D@_STL@@@_STL@@MAEHXZ ENDP ; _STL::basic_filebuf<char,_STL::char_traits<char> >::sync
_TEXT	ENDS
EXTRN	?_M_seek@_Filebuf_base@_STL@@QAEJJH@Z:NEAR	; _STL::_Filebuf_base::_M_seek
EXTRN	?_M_file_size@_Filebuf_base@_STL@@QAEJXZ:NEAR	; _STL::_Filebuf_base::_M_file_size
; Function compile flags: /Ogsy
;	COMDAT ?showmanyc@?$basic_filebuf@DV?$char_traits@D@_STL@@@_STL@@MAEHXZ
_TEXT	SEGMENT
?showmanyc@?$basic_filebuf@DV?$char_traits@D@_STL@@@_STL@@MAEHXZ PROC NEAR ; _STL::basic_filebuf<char,_STL::char_traits<char> >::showmanyc, COMDAT
; _this$ = ecx

; 132  : {

  00000	53		 push	 ebx

; 133  :   // Is there any possibility that reads can succeed?
; 134  :   if (!this->is_open() || _M_in_output_mode || _M_in_error_mode)

  00001	33 db		 xor	 ebx, ebx
  00003	38 59 60	 cmp	 BYTE PTR [ecx+96], bl
  00006	74 4a		 je	 SHORT $L98743
  00008	38 59 68	 cmp	 BYTE PTR [ecx+104], bl
  0000b	75 45		 jne	 SHORT $L98743
  0000d	38 59 69	 cmp	 BYTE PTR [ecx+105], bl
  00010	75 40		 jne	 SHORT $L98743

; 136  : 
; 137  :   else if (_M_in_putback_mode)

  00012	38 59 6a	 cmp	 BYTE PTR [ecx+106], bl
  00015	74 08		 je	 SHORT $L98745

; 138  :     return this->egptr() - this->gptr();

  00017	8b 49 04	 mov	 ecx, DWORD PTR [ecx+4]
  0001a	8b 41 04	 mov	 eax, DWORD PTR [ecx+4]
  0001d	5b		 pop	 ebx

; 148  : }

  0001e	c3		 ret	 0
$L98745:

; 139  : 
; 140  :   else if (_M_constant_width) {

  0001f	38 59 64	 cmp	 BYTE PTR [ecx+100], bl
  00022	74 2a		 je	 SHORT $L98747
  00024	56		 push	 esi
  00025	57		 push	 edi

; 141  :     streamoff __pos  = _M_base._M_seek(0, ios_base::cur);

  00026	8d 71 54	 lea	 esi, DWORD PTR [ecx+84]
  00029	6a 02		 push	 2
  0002b	53		 push	 ebx
  0002c	8b ce		 mov	 ecx, esi
  0002e	e8 00 00 00 00	 call	 ?_M_seek@_Filebuf_base@_STL@@QAEJJH@Z ; _STL::_Filebuf_base::_M_seek

; 142  :     streamoff __size = _M_base._M_file_size();

  00033	8b ce		 mov	 ecx, esi
  00035	8b f8		 mov	 edi, eax
  00037	e8 00 00 00 00	 call	 ?_M_file_size@_Filebuf_base@_STL@@QAEJXZ ; _STL::_Filebuf_base::_M_file_size

; 143  :     return __pos >= 0 && __size > __pos ? __size - __pos : 0;

  0003c	3b fb		 cmp	 edi, ebx
  0003e	7c 08		 jl	 SHORT $L106179
  00040	3b c7		 cmp	 eax, edi
  00042	7e 04		 jle	 SHORT $L106179
  00044	2b c7		 sub	 eax, edi
  00046	eb 02		 jmp	 SHORT $L106180
$L106179:
  00048	33 c0		 xor	 eax, eax
$L106180:
  0004a	5f		 pop	 edi
  0004b	5e		 pop	 esi
  0004c	5b		 pop	 ebx

; 148  : }

  0004d	c3		 ret	 0
$L98747:

; 144  :   }
; 145  : 
; 146  :   else 
; 147  :     return 0;

  0004e	33 c0		 xor	 eax, eax
  00050	5b		 pop	 ebx

; 148  : }

  00051	c3		 ret	 0
$L98743:

; 135  :     return -1;

  00052	83 c8 ff	 or	 eax, -1
  00055	5b		 pop	 ebx

; 148  : }

  00056	c3		 ret	 0
?showmanyc@?$basic_filebuf@DV?$char_traits@D@_STL@@@_STL@@MAEHXZ ENDP ; _STL::basic_filebuf<char,_STL::char_traits<char> >::showmanyc
_TEXT	ENDS
PUBLIC	?_M_allocate_buffers@?$basic_filebuf@DV?$char_traits@D@_STL@@@_STL@@AAE_NPADH@Z ; _STL::basic_filebuf<char,_STL::char_traits<char> >::_M_allocate_buffers
; Function compile flags: /Ogsy
;	COMDAT ?setbuf@?$basic_filebuf@DV?$char_traits@D@_STL@@@_STL@@MAEPAV?$basic_streambuf@DV?$char_traits@D@_STL@@@2@PADH@Z
_TEXT	SEGMENT
___buf$ = 8						; size = 4
___n$ = 12						; size = 4
?setbuf@?$basic_filebuf@DV?$char_traits@D@_STL@@@_STL@@MAEPAV?$basic_streambuf@DV?$char_traits@D@_STL@@@2@PADH@Z PROC NEAR ; _STL::basic_filebuf<char,_STL::char_traits<char> >::setbuf, COMDAT
; _this$ = ecx

; 273  : {

  00000	55		 push	 ebp
  00001	8b ec		 mov	 ebp, esp
  00003	56		 push	 esi
  00004	8b f1		 mov	 esi, ecx

; 274  :   if (!_M_in_input_mode &&! _M_in_output_mode && !_M_in_error_mode &&
; 275  :       _M_int_buf == 0) {

  00006	33 c0		 xor	 eax, eax
  00008	38 46 67	 cmp	 BYTE PTR [esi+103], al
  0000b	75 30		 jne	 SHORT $L98816
  0000d	38 46 68	 cmp	 BYTE PTR [esi+104], al
  00010	75 2b		 jne	 SHORT $L98816
  00012	38 46 69	 cmp	 BYTE PTR [esi+105], al
  00015	75 26		 jne	 SHORT $L98816
  00017	39 46 6c	 cmp	 DWORD PTR [esi+108], eax
  0001a	75 21		 jne	 SHORT $L98816

; 276  :     if (__buf == 0 && __n == 0)

  0001c	39 45 08	 cmp	 DWORD PTR ___buf$[ebp], eax
  0001f	75 0a		 jne	 SHORT $L106211
  00021	39 45 0c	 cmp	 DWORD PTR ___n$[ebp], eax
  00024	75 17		 jne	 SHORT $L98816

; 277  :       _M_allocate_buffers(0, 1);

  00026	6a 01		 push	 1
  00028	50		 push	 eax

; 278  :     else if (__buf != 0 && __n > 0)

  00029	eb 0b		 jmp	 SHORT $L106212
$L106211:
  0002b	39 45 0c	 cmp	 DWORD PTR ___n$[ebp], eax
  0002e	7e 0d		 jle	 SHORT $L98816

; 279  :       _M_allocate_buffers(__buf, __n);

  00030	ff 75 0c	 push	 DWORD PTR ___n$[ebp]
  00033	ff 75 08	 push	 DWORD PTR ___buf$[ebp]
$L106212:
  00036	8b ce		 mov	 ecx, esi
  00038	e8 00 00 00 00	 call	 ?_M_allocate_buffers@?$basic_filebuf@DV?$char_traits@D@_STL@@@_STL@@AAE_NPADH@Z ; _STL::basic_filebuf<char,_STL::char_traits<char> >::_M_allocate_buffers
$L98816:

; 280  :   }
; 281  :   return this;

  0003d	8b c6		 mov	 eax, esi
  0003f	5e		 pop	 esi

; 282  : }

  00040	5d		 pop	 ebp
  00041	c2 08 00	 ret	 8
?setbuf@?$basic_filebuf@DV?$char_traits@D@_STL@@@_STL@@MAEPAV?$basic_streambuf@DV?$char_traits@D@_STL@@@2@PADH@Z ENDP ; _STL::basic_filebuf<char,_STL::char_traits<char> >::setbuf
_TEXT	ENDS
EXTRN	_malloc:NEAR
; Function compile flags: /Ogsy
;	COMDAT ?_M_allocate_buffers@?$basic_filebuf@DV?$char_traits@D@_STL@@@_STL@@AAE_NPADH@Z
_TEXT	SEGMENT
$T106218 = -8						; size = 4
$T106216 = -8						; size = 4
$T106217 = -4						; size = 4
$T106215 = 8						; size = 4
___buf$ = 8						; size = 4
___n$ = 12						; size = 4
?_M_allocate_buffers@?$basic_filebuf@DV?$char_traits@D@_STL@@@_STL@@AAE_NPADH@Z PROC NEAR ; _STL::basic_filebuf<char,_STL::char_traits<char> >::_M_allocate_buffers, COMDAT
; _this$ = ecx

; 644  : {

  00000	55		 push	 ebp
  00001	8b ec		 mov	 ebp, esp
  00003	51		 push	 ecx
  00004	51		 push	 ecx

; 645  : 
; 646  :   if (__buf == 0) {

  00005	8b 45 08	 mov	 eax, DWORD PTR ___buf$[ebp]
  00008	85 c0		 test	 eax, eax
  0000a	56		 push	 esi
  0000b	8b f1		 mov	 esi, ecx
  0000d	75 1a		 jne	 SHORT $L102668

; 647  :     _M_int_buf = __STATIC_CAST(_CharT*,malloc(__n * sizeof(_CharT)));

  0000f	ff 75 0c	 push	 DWORD PTR ___n$[ebp]
  00012	e8 00 00 00 00	 call	 _malloc

; 648  :     if (! _M_int_buf)

  00017	85 c0		 test	 eax, eax
  00019	59		 pop	 ecx
  0001a	89 46 6c	 mov	 DWORD PTR [esi+108], eax
  0001d	75 04		 jne	 SHORT $L102671

; 649  :       return false;

  0001f	32 c0		 xor	 al, al
  00021	eb 7a		 jmp	 SHORT $L102667
$L102671:

; 650  :     _M_int_buf_dynamic = true;

  00023	c6 46 66 01	 mov	 BYTE PTR [esi+102], 1

; 651  :   }
; 652  :   else {

  00027	eb 07		 jmp	 SHORT $L102672
$L102668:

; 653  :     _M_int_buf = __buf;

  00029	89 46 6c	 mov	 DWORD PTR [esi+108], eax

; 654  :     _M_int_buf_dynamic = false;

  0002c	c6 46 66 00	 mov	 BYTE PTR [esi+102], 0
$L102672:
  00030	57		 push	 edi

; 655  :   }
; 656  :   
; 657  :   size_t __ebufsiz = (max)(__n * (max)(_M_codecvt->encoding(), 1),
; 658  :                       streamsize(_M_codecvt->max_length()));

  00031	8d be a0 00 00
	00		 lea	 edi, DWORD PTR [esi+160]
  00037	8b 0f		 mov	 ecx, DWORD PTR [edi]
  00039	8b 01		 mov	 eax, DWORD PTR [ecx]
  0003b	ff 50 1c	 call	 DWORD PTR [eax+28]
  0003e	8b 0f		 mov	 ecx, DWORD PTR [edi]
  00040	89 45 08	 mov	 DWORD PTR $T106215[ebp], eax
  00043	8b 01		 mov	 eax, DWORD PTR [ecx]
  00045	c7 45 fc 01 00
	00 00		 mov	 DWORD PTR $T106217[ebp], 1
  0004c	ff 50 10	 call	 DWORD PTR [eax+16]
  0004f	89 45 f8	 mov	 DWORD PTR $T106218[ebp], eax
  00052	83 f8 01	 cmp	 eax, 1
  00055	8d 45 fc	 lea	 eax, DWORD PTR $T106217[ebp]
  00058	7c 03		 jl	 SHORT $L106234
  0005a	8d 45 f8	 lea	 eax, DWORD PTR $T106218[ebp]
$L106234:
  0005d	8b 00		 mov	 eax, DWORD PTR [eax]
  0005f	0f af 45 0c	 imul	 eax, DWORD PTR ___n$[ebp]
  00063	3b 45 08	 cmp	 eax, DWORD PTR $T106215[ebp]
  00066	89 45 f8	 mov	 DWORD PTR $T106216[ebp], eax
  00069	8d 45 08	 lea	 eax, DWORD PTR $T106215[ebp]
  0006c	7c 03		 jl	 SHORT $L106243
  0006e	8d 45 f8	 lea	 eax, DWORD PTR $T106216[ebp]
$L106243:
  00071	8b 38		 mov	 edi, DWORD PTR [eax]

; 659  : 
; 660  :   _M_ext_buf = __STATIC_CAST(char*,malloc(__ebufsiz));

  00073	57		 push	 edi
  00074	e8 00 00 00 00	 call	 _malloc

; 661  :   if (!_M_ext_buf) {

  00079	85 c0		 test	 eax, eax
  0007b	59		 pop	 ecx
  0007c	89 46 74	 mov	 DWORD PTR [esi+116], eax
  0007f	75 0b		 jne	 SHORT $L102684

; 662  :     _M_deallocate_buffers();

  00081	8b ce		 mov	 ecx, esi
  00083	e8 00 00 00 00	 call	 ?_M_deallocate_buffers@?$basic_filebuf@DV?$char_traits@D@_STL@@@_STL@@AAEXXZ ; _STL::basic_filebuf<char,_STL::char_traits<char> >::_M_deallocate_buffers

; 663  :     return false;

  00088	32 c0		 xor	 al, al
  0008a	eb 10		 jmp	 SHORT $L106245
$L102684:

; 664  :   }
; 665  : 
; 666  :   _M_int_buf_EOS = _M_int_buf + __n;

  0008c	8b 4e 6c	 mov	 ecx, DWORD PTR [esi+108]
  0008f	03 4d 0c	 add	 ecx, DWORD PTR ___n$[ebp]

; 667  :   _M_ext_buf_EOS = _M_ext_buf + __ebufsiz;

  00092	03 c7		 add	 eax, edi
  00094	89 46 78	 mov	 DWORD PTR [esi+120], eax
  00097	89 4e 70	 mov	 DWORD PTR [esi+112], ecx

; 668  :   return true;

  0009a	b0 01		 mov	 al, 1
$L106245:
  0009c	5f		 pop	 edi
$L102667:
  0009d	5e		 pop	 esi

; 669  : }

  0009e	c9		 leave
  0009f	c2 08 00	 ret	 8
?_M_allocate_buffers@?$basic_filebuf@DV?$char_traits@D@_STL@@@_STL@@AAE_NPADH@Z ENDP ; _STL::basic_filebuf<char,_STL::char_traits<char> >::_M_allocate_buffers
; Function compile flags: /Ogsy
_TEXT	ENDS
;	COMDAT ?imbue@?$basic_filebuf@DV?$char_traits@D@_STL@@@_STL@@MAEXABVlocale@2@@Z
_TEXT	SEGMENT
___loc$ = 8						; size = 4
?imbue@?$basic_filebuf@DV?$char_traits@D@_STL@@@_STL@@MAEXABVlocale@2@@Z PROC NEAR ; _STL::basic_filebuf<char,_STL::char_traits<char> >::imbue, COMDAT
; _this$ = ecx

; 429  :   if (!_M_in_input_mode &&! _M_in_output_mode && !_M_in_error_mode) {

  00000	32 c0		 xor	 al, al
  00002	38 41 67	 cmp	 BYTE PTR [ecx+103], al
  00005	75 0f		 jne	 SHORT $L98961
  00007	38 41 68	 cmp	 BYTE PTR [ecx+104], al
  0000a	75 0a		 jne	 SHORT $L98961
  0000c	38 41 69	 cmp	 BYTE PTR [ecx+105], al
  0000f	75 05		 jne	 SHORT $L98961

; 430  :     this->_M_setup_codecvt(__loc);

  00011	e9 00 00 00 00	 jmp	 ?_M_setup_codecvt@?$basic_filebuf@DV?$char_traits@D@_STL@@@_STL@@AAEXABVlocale@2@@Z ; _STL::basic_filebuf<char,_STL::char_traits<char> >::_M_setup_codecvt
$L98961:

; 431  :   }
; 432  : }

  00016	c2 04 00	 ret	 4
?imbue@?$basic_filebuf@DV?$char_traits@D@_STL@@@_STL@@MAEXABVlocale@2@@Z ENDP ; _STL::basic_filebuf<char,_STL::char_traits<char> >::imbue
_TEXT	ENDS
PUBLIC	?close@?$basic_filebuf@DV?$char_traits@D@_STL@@@_STL@@QAEPAV12@XZ ; _STL::basic_filebuf<char,_STL::char_traits<char> >::close
EXTRN	?_M_close@_Filebuf_base@_STL@@QAE_NXZ:NEAR	; _STL::_Filebuf_base::_M_close
; Function compile flags: /Ogsy
;	COMDAT ?close@?$basic_filebuf@DV?$char_traits@D@_STL@@@_STL@@QAEPAV12@XZ
_TEXT	SEGMENT
___ok$ = -1						; size = 1
?close@?$basic_filebuf@DV?$char_traits@D@_STL@@@_STL@@QAEPAV12@XZ PROC NEAR ; _STL::basic_filebuf<char,_STL::char_traits<char> >::close, COMDAT
; _this$ = ecx

; 81   : {

  00000	55		 push	 ebp
  00001	8b ec		 mov	 ebp, esp
  00003	51		 push	 ecx
  00004	53		 push	 ebx
  00005	56		 push	 esi
  00006	8b f1		 mov	 esi, ecx

; 82   :   bool __ok = this->is_open();

  00008	33 db		 xor	 ebx, ebx
  0000a	38 5e 60	 cmp	 BYTE PTR [esi+96], bl
  0000d	0f 95 45 ff	 setne	 BYTE PTR ___ok$[ebp]

; 83   : 
; 84   :   if (_M_in_output_mode) {

  00011	38 5e 68	 cmp	 BYTE PTR [esi+104], bl
  00014	74 21		 je	 SHORT $L102635

; 85   :     __ok = __ok && !_Traits::eq_int_type(this->overflow(traits_type::eof()),
; 86   :                                          traits_type::eof());

  00016	38 5d ff	 cmp	 BYTE PTR ___ok$[ebp], bl
  00019	74 10		 je	 SHORT $L106253
  0001b	8b 06		 mov	 eax, DWORD PTR [esi]
  0001d	6a ff		 push	 -1
  0001f	ff 50 30	 call	 DWORD PTR [eax+48]
  00022	83 f8 ff	 cmp	 eax, -1
  00025	c6 45 ff 01	 mov	 BYTE PTR ___ok$[ebp], 1
  00029	75 03		 jne	 SHORT $L106254
$L106253:
  0002b	88 5d ff	 mov	 BYTE PTR ___ok$[ebp], bl
$L106254:

; 87   :     __ok == __ok && this->_M_unshift();

  0002e	8b ce		 mov	 ecx, esi
  00030	e8 00 00 00 00	 call	 ?_M_unshift@?$basic_filebuf@DV?$char_traits@D@_STL@@@_STL@@AAE_NXZ ; _STL::basic_filebuf<char,_STL::char_traits<char> >::_M_unshift

; 88   :   }
; 89   :   else if (_M_in_input_mode)

  00035	eb 0c		 jmp	 SHORT $L102639
$L102635:
  00037	38 5e 67	 cmp	 BYTE PTR [esi+103], bl
  0003a	74 07		 je	 SHORT $L102639

; 90   :       this->_M_exit_input_mode();

  0003c	8b ce		 mov	 ecx, esi
  0003e	e8 00 00 00 00	 call	 ?_M_exit_input_mode@?$basic_filebuf@DV?$char_traits@D@_STL@@@_STL@@AAEXXZ ; _STL::basic_filebuf<char,_STL::char_traits<char> >::_M_exit_input_mode
$L102639:

; 91   : 
; 92   :   // Note order of arguments.  We close the file even if __ok is false.
; 93   :   __ok = _M_base._M_close() && __ok;

  00043	8d 4e 54	 lea	 ecx, DWORD PTR [esi+84]
  00046	e8 00 00 00 00	 call	 ?_M_close@_Filebuf_base@_STL@@QAE_NXZ ; _STL::_Filebuf_base::_M_close
  0004b	84 c0		 test	 al, al
  0004d	74 09		 je	 SHORT $L106256
  0004f	38 5d ff	 cmp	 BYTE PTR ___ok$[ebp], bl
  00052	74 04		 je	 SHORT $L106256
  00054	b0 01		 mov	 al, 1
  00056	eb 02		 jmp	 SHORT $L106257
$L106256:
  00058	32 c0		 xor	 al, al
$L106257:

; 94   : 
; 95   :   // Restore the initial state, except that we don't deallocate the buffer
; 96   :   // or mess with the cached codecvt information.
; 97   :   _M_state = _M_end_state = _State_type();
; 98   :   _M_ext_buf_converted = _M_ext_buf_end = 0;
; 99   : 
; 100  :   _M_mmap_base = 0;
; 101  :   _M_mmap_len = 0;
; 102  : 
; 103  :   this->setg(0, 0, 0);

  0005a	8b 4e 04	 mov	 ecx, DWORD PTR [esi+4]
  0005d	89 9e 88 00 00
	00		 mov	 DWORD PTR [esi+136], ebx
  00063	89 9e 84 00 00
	00		 mov	 DWORD PTR [esi+132], ebx
  00069	89 9e 80 00 00
	00		 mov	 DWORD PTR [esi+128], ebx
  0006f	89 5e 7c	 mov	 DWORD PTR [esi+124], ebx
  00072	89 9e 8c 00 00
	00		 mov	 DWORD PTR [esi+140], ebx
  00078	89 9e 90 00 00
	00		 mov	 DWORD PTR [esi+144], ebx
  0007e	89 59 08	 mov	 DWORD PTR [ecx+8], ebx
  00081	89 19		 mov	 DWORD PTR [ecx], ebx
  00083	89 59 04	 mov	 DWORD PTR [ecx+4], ebx

; 104  :   this->setp(0, 0);

  00086	8b 4e 08	 mov	 ecx, DWORD PTR [esi+8]

; 105  : 
; 106  :   _M_saved_eback = _M_saved_gptr = _M_saved_egptr = 0;
; 107  : 
; 108  :   _M_in_input_mode = _M_in_output_mode = _M_in_error_mode = _M_in_putback_mode
; 109  :     = false;
; 110  : 
; 111  :   return __ok ? this : 0;

  00089	f6 d8		 neg	 al
  0008b	89 59 08	 mov	 DWORD PTR [ecx+8], ebx
  0008e	89 19		 mov	 DWORD PTR [ecx], ebx
  00090	89 59 04	 mov	 DWORD PTR [ecx+4], ebx
  00093	89 9e 9c 00 00
	00		 mov	 DWORD PTR [esi+156], ebx
  00099	89 9e 98 00 00
	00		 mov	 DWORD PTR [esi+152], ebx
  0009f	89 9e 94 00 00
	00		 mov	 DWORD PTR [esi+148], ebx
  000a5	1b c0		 sbb	 eax, eax
  000a7	88 5e 6a	 mov	 BYTE PTR [esi+106], bl
  000aa	88 5e 69	 mov	 BYTE PTR [esi+105], bl
  000ad	88 5e 68	 mov	 BYTE PTR [esi+104], bl
  000b0	88 5e 67	 mov	 BYTE PTR [esi+103], bl
  000b3	23 c6		 and	 eax, esi
  000b5	5e		 pop	 esi
  000b6	5b		 pop	 ebx

; 112  : }

  000b7	c9		 leave
  000b8	c3		 ret	 0
?close@?$basic_filebuf@DV?$char_traits@D@_STL@@@_STL@@QAEPAV12@XZ ENDP ; _STL::basic_filebuf<char,_STL::char_traits<char> >::close
_TEXT	ENDS
PUBLIC	??$?9DV?$char_traits@D@_STL@@V?$allocator@D@1@@_STL@@YA_NABV?$basic_string@DV?$char_traits@D@_STL@@V?$allocator@D@2@@0@PBD@Z ; _STL::operator!=<char,_STL::char_traits<char>,_STL::allocator<char> >
; Function compile flags: /Ogsy
; File c:\stlport-4.6.1\stlport\stl\_string.h
;	COMDAT ??$?9DV?$char_traits@D@_STL@@V?$allocator@D@1@@_STL@@YA_NABV?$basic_string@DV?$char_traits@D@_STL@@V?$allocator@D@2@@0@PBD@Z
_TEXT	SEGMENT
___x$ = 8						; size = 4
___s$ = 12						; size = 4
??$?9DV?$char_traits@D@_STL@@V?$allocator@D@1@@_STL@@YA_NABV?$basic_string@DV?$char_traits@D@_STL@@V?$allocator@D@2@@0@PBD@Z PROC NEAR ; _STL::operator!=<char,_STL::char_traits<char>,_STL::allocator<char> >, COMDAT

; 1411 :   _STLP_FIX_LITERAL_BUG(__s)
; 1412 :   return !(__x == __s);

  00000	ff 74 24 08	 push	 DWORD PTR ___s$[esp-4]
  00004	ff 74 24 08	 push	 DWORD PTR ___x$[esp]
  00008	e8 00 00 00 00	 call	 ??$?8DV?$char_traits@D@_STL@@V?$allocator@D@1@@_STL@@YA_NABV?$basic_string@DV?$char_traits@D@_STL@@V?$allocator@D@2@@0@PBD@Z ; _STL::operator==<char,_STL::char_traits<char>,_STL::allocator<char> >
  0000d	f6 d8		 neg	 al
  0000f	59		 pop	 ecx
  00010	59		 pop	 ecx
  00011	1b c0		 sbb	 eax, eax
  00013	40		 inc	 eax

; 1413 : }

  00014	c3		 ret	 0
??$?9DV?$char_traits@D@_STL@@V?$allocator@D@1@@_STL@@YA_NABV?$basic_string@DV?$char_traits@D@_STL@@V?$allocator@D@2@@0@PBD@Z ENDP ; _STL::operator!=<char,_STL::char_traits<char>,_STL::allocator<char> >
_TEXT	ENDS
PUBLIC	??$?9PAD@_STL@@YA_NABV?$reverse_iterator@PAD@0@0@Z ; _STL::operator!=<char *>
; Function compile flags: /Ogsy
; File c:\stlport-4.6.1\stlport\stl\_iterator.h
;	COMDAT ??$?9PAD@_STL@@YA_NABV?$reverse_iterator@PAD@0@0@Z
_TEXT	SEGMENT
___x$ = 8						; size = 4
___y$ = 12						; size = 4
??$?9PAD@_STL@@YA_NABV?$reverse_iterator@PAD@0@0@Z PROC NEAR ; _STL::operator!=<char *>, COMDAT

; 135  :   return !(__x == __y);

  00000	8b 44 24 04	 mov	 eax, DWORD PTR ___x$[esp-4]
  00004	8b 00		 mov	 eax, DWORD PTR [eax]
  00006	8b 54 24 08	 mov	 edx, DWORD PTR ___y$[esp-4]
  0000a	33 c9		 xor	 ecx, ecx
  0000c	3b 02		 cmp	 eax, DWORD PTR [edx]
  0000e	0f 95 c1	 setne	 cl
  00011	8a c1		 mov	 al, cl

; 136  : }

  00013	c3		 ret	 0
??$?9PAD@_STL@@YA_NABV?$reverse_iterator@PAD@0@0@Z ENDP	; _STL::operator!=<char *>
_TEXT	ENDS
PUBLIC	??$_Destroy@PAVMHelpMessage@@@_STL@@YAXPAVMHelpMessage@@0@Z ; _STL::_Destroy<MHelpMessage *>
; Function compile flags: /Ogsy
; File c:\stlport-4.6.1\stlport\stl\_construct.h
;	COMDAT ??$_Destroy@PAVMHelpMessage@@@_STL@@YAXPAVMHelpMessage@@0@Z
_TEXT	SEGMENT
$T106327 = -1						; size = 1
___first$ = 8						; size = 4
___last$ = 12						; size = 4
??$_Destroy@PAVMHelpMessage@@@_STL@@YAXPAVMHelpMessage@@0@Z PROC NEAR ; _STL::_Destroy<MHelpMessage *>, COMDAT

; 138  : inline void _Destroy(_ForwardIterator __first, _ForwardIterator __last) {

  00000	55		 push	 ebp
  00001	8b ec		 mov	 ebp, esp
  00003	51		 push	 ecx

; 139  :   __destroy(__first, __last, _STLP_VALUE_TYPE(__first, _ForwardIterator));

  00004	8d 45 ff	 lea	 eax, DWORD PTR $T106327[ebp]
  00007	50		 push	 eax
  00008	ff 75 0c	 push	 DWORD PTR ___last$[ebp]
  0000b	ff 75 08	 push	 DWORD PTR ___first$[ebp]
  0000e	e8 00 00 00 00	 call	 ??$__destroy_aux@PAVMHelpMessage@@@_STL@@YAXPAVMHelpMessage@@0ABU__false_type@0@@Z ; _STL::__destroy_aux<MHelpMessage *>
  00013	83 c4 0c	 add	 esp, 12			; 0000000cH

; 140  : }

  00016	c9		 leave
  00017	c3		 ret	 0
??$_Destroy@PAVMHelpMessage@@@_STL@@YAXPAVMHelpMessage@@0@Z ENDP ; _STL::_Destroy<MHelpMessage *>
_TEXT	ENDS
PUBLIC	??$_Destroy@PAVMString@@@_STL@@YAXPAVMString@@0@Z ; _STL::_Destroy<MString *>
; Function compile flags: /Ogsy
;	COMDAT ??$_Destroy@PAVMString@@@_STL@@YAXPAVMString@@0@Z
_TEXT	SEGMENT
$T106334 = -1						; size = 1
___first$ = 8						; size = 4
___last$ = 12						; size = 4
??$_Destroy@PAVMString@@@_STL@@YAXPAVMString@@0@Z PROC NEAR ; _STL::_Destroy<MString *>, COMDAT

; 138  : inline void _Destroy(_ForwardIterator __first, _ForwardIterator __last) {

  00000	55		 push	 ebp
  00001	8b ec		 mov	 ebp, esp
  00003	51		 push	 ecx

; 139  :   __destroy(__first, __last, _STLP_VALUE_TYPE(__first, _ForwardIterator));

  00004	8d 45 ff	 lea	 eax, DWORD PTR $T106334[ebp]
  00007	50		 push	 eax
  00008	ff 75 0c	 push	 DWORD PTR ___last$[ebp]
  0000b	ff 75 08	 push	 DWORD PTR ___first$[ebp]
  0000e	e8 00 00 00 00	 call	 ??$__destroy_aux@PAVMString@@@_STL@@YAXPAVMString@@0ABU__false_type@0@@Z ; _STL::__destroy_aux<MString *>
  00013	83 c4 0c	 add	 esp, 12			; 0000000cH

; 140  : }

  00016	c9		 leave
  00017	c3		 ret	 0
??$_Destroy@PAVMString@@@_STL@@YAXPAVMString@@0@Z ENDP	; _STL::_Destroy<MString *>
_TEXT	ENDS
PUBLIC	??$__uninitialized_copy@PAVMHelpMessage@@PAV1@@_STL@@YAPAVMHelpMessage@@PAV1@00ABU__false_type@0@@Z ; _STL::__uninitialized_copy<MHelpMessage *,MHelpMessage *>
;	COMDAT xdata$x
; File c:\stlport-4.6.1\stlport\stl\_uninitialized.h
xdata$x	SEGMENT
$T106344 DD	0ffffffffH
	DD	00H
	DD	0ffffffffH
	DD	00H
$T106346 DD	00H
	DD	00H
	DD	00H
	DD	FLAT:$L106338
$T106345 DD	00H
	DD	00H
	DD	01H
	DD	01H
	DD	FLAT:$T106346
$T106340 DD	019930520H
	DD	02H
	DD	FLAT:$T106344
	DD	01H
	DD	FLAT:$T106345
	DD	2 DUP(00H)
; Function compile flags: /Ogsy
xdata$x	ENDS
;	COMDAT ??$__uninitialized_copy@PAVMHelpMessage@@PAV1@@_STL@@YAPAVMHelpMessage@@PAV1@00ABU__false_type@0@@Z
_TEXT	SEGMENT
___cur$ = -20						; size = 4
__$EHRec$ = -16						; size = 16
___first$ = 8						; size = 4
___last$ = 12						; size = 4
___result$ = 16						; size = 4
___formal$ = 20						; size = 4
??$__uninitialized_copy@PAVMHelpMessage@@PAV1@@_STL@@YAPAVMHelpMessage@@PAV1@00ABU__false_type@0@@Z PROC NEAR ; _STL::__uninitialized_copy<MHelpMessage *,MHelpMessage *>, COMDAT

; 63   : {

  00000	b8 00 00 00 00	 mov	 eax, __ehhandler$??$__uninitialized_copy@PAVMHelpMessage@@PAV1@@_STL@@YAPAVMHelpMessage@@PAV1@00ABU__false_type@0@@Z
  00005	e8 00 00 00 00	 call	 __EH_prolog
  0000a	51		 push	 ecx
  0000b	51		 push	 ecx

; 64   :   _ForwardIter __cur = __result;

  0000c	8b 45 10	 mov	 eax, DWORD PTR ___result$[ebp]

; 65   :   _STLP_TRY {

  0000f	83 65 fc 00	 and	 DWORD PTR __$EHRec$[ebp+12], 0
  00013	53		 push	 ebx
  00014	56		 push	 esi
  00015	57		 push	 edi
  00016	8b 7d 08	 mov	 edi, DWORD PTR ___first$[ebp]
  00019	89 65 f0	 mov	 DWORD PTR __$EHRec$[ebp], esp
  0001c	89 45 ec	 mov	 DWORD PTR ___cur$[ebp], eax
  0001f	be bc 00 00 00	 mov	 esi, 188		; 000000bcH
$L103074:

; 66   :     for ( ; __first != __last; ++__first, ++__cur)

  00024	3b 7d 0c	 cmp	 edi, DWORD PTR ___last$[ebp]
  00027	74 28		 je	 SHORT $L103076

; 67   :       _Construct(&*__cur, *__first);

  00029	57		 push	 edi
  0002a	ff 75 ec	 push	 DWORD PTR ___cur$[ebp]
  0002d	e8 00 00 00 00	 call	 ??$_Construct@VMHelpMessage@@V1@@_STL@@YAXPAVMHelpMessage@@ABV1@@Z ; _STL::_Construct<MHelpMessage,MHelpMessage>
  00032	59		 pop	 ecx
  00033	03 fe		 add	 edi, esi
  00035	01 75 ec	 add	 DWORD PTR ___cur$[ebp], esi
  00038	59		 pop	 ecx
  00039	eb e9		 jmp	 SHORT $L103074
$L106338:

; 68   :     return __cur;
; 69   :   }
; 70   :   _STLP_UNWIND(_STLP_STD::_Destroy(__result, __cur));

  0003b	ff 75 ec	 push	 DWORD PTR ___cur$[ebp]
  0003e	ff 75 10	 push	 DWORD PTR ___result$[ebp]
  00041	e8 00 00 00 00	 call	 ??$_Destroy@PAVMHelpMessage@@@_STL@@YAXPAVMHelpMessage@@0@Z ; _STL::_Destroy<MHelpMessage *>
  00046	59		 pop	 ecx
  00047	59		 pop	 ecx
  00048	6a 00		 push	 0
  0004a	6a 00		 push	 0
  0004c	e8 00 00 00 00	 call	 __CxxThrowException@8
$L106347:
$L103076:

; 71   : # ifdef _STLP_THROW_RETURN_BUG
; 72   :   return __cur;
; 73   : # endif
; 74   : }

  00051	8b 4d f4	 mov	 ecx, DWORD PTR __$EHRec$[ebp+4]
  00054	8b 45 ec	 mov	 eax, DWORD PTR ___cur$[ebp]
  00057	5f		 pop	 edi
  00058	5e		 pop	 esi
  00059	64 89 0d 00 00
	00 00		 mov	 DWORD PTR fs:__except_list, ecx
  00060	5b		 pop	 ebx
  00061	c9		 leave
  00062	c3		 ret	 0
$L106343:
_TEXT	ENDS
;	COMDAT text$x
text$x	SEGMENT
__ehhandler$??$__uninitialized_copy@PAVMHelpMessage@@PAV1@@_STL@@YAPAVMHelpMessage@@PAV1@00ABU__false_type@0@@Z:
  00000	b8 00 00 00 00	 mov	 eax, OFFSET FLAT:$T106340
  00005	e9 00 00 00 00	 jmp	 ___CxxFrameHandler
text$x	ENDS
??$__uninitialized_copy@PAVMHelpMessage@@PAV1@@_STL@@YAPAVMHelpMessage@@PAV1@00ABU__false_type@0@@Z ENDP ; _STL::__uninitialized_copy<MHelpMessage *,MHelpMessage *>
PUBLIC	??$__uninitialized_fill_n@PAVMHelpMessage@@IV1@@_STL@@YAPAVMHelpMessage@@PAV1@IABV1@ABU__false_type@0@@Z ; _STL::__uninitialized_fill_n<MHelpMessage *,unsigned int,MHelpMessage>
;	COMDAT xdata$x
xdata$x	SEGMENT
$T106359 DD	0ffffffffH
	DD	00H
	DD	0ffffffffH
	DD	00H
$T106361 DD	00H
	DD	00H
	DD	00H
	DD	FLAT:$L106353
$T106360 DD	00H
	DD	00H
	DD	01H
	DD	01H
	DD	FLAT:$T106361
$T106355 DD	019930520H
	DD	02H
	DD	FLAT:$T106359
	DD	01H
	DD	FLAT:$T106360
	DD	2 DUP(00H)
; Function compile flags: /Ogsy
xdata$x	ENDS
;	COMDAT ??$__uninitialized_fill_n@PAVMHelpMessage@@IV1@@_STL@@YAPAVMHelpMessage@@PAV1@IABV1@ABU__false_type@0@@Z
_TEXT	SEGMENT
___cur$ = -20						; size = 4
__$EHRec$ = -16						; size = 16
___first$ = 8						; size = 4
___n$ = 12						; size = 4
___x$ = 16						; size = 4
___formal$ = 20						; size = 4
??$__uninitialized_fill_n@PAVMHelpMessage@@IV1@@_STL@@YAPAVMHelpMessage@@PAV1@IABV1@ABU__false_type@0@@Z PROC NEAR ; _STL::__uninitialized_fill_n<MHelpMessage *,unsigned int,MHelpMessage>, COMDAT

; 192  : {

  00000	b8 00 00 00 00	 mov	 eax, __ehhandler$??$__uninitialized_fill_n@PAVMHelpMessage@@IV1@@_STL@@YAPAVMHelpMessage@@PAV1@IABV1@ABU__false_type@0@@Z
  00005	e8 00 00 00 00	 call	 __EH_prolog
  0000a	51		 push	 ecx
  0000b	51		 push	 ecx

; 193  :   _ForwardIter __cur = __first;

  0000c	8b 45 08	 mov	 eax, DWORD PTR ___first$[ebp]

; 194  :   _STLP_TRY {

  0000f	83 65 fc 00	 and	 DWORD PTR __$EHRec$[ebp+12], 0
  00013	53		 push	 ebx
  00014	56		 push	 esi
  00015	57		 push	 edi
  00016	89 65 f0	 mov	 DWORD PTR __$EHRec$[ebp], esp
  00019	89 45 ec	 mov	 DWORD PTR ___cur$[ebp], eax
$L103080:

; 195  :     for ( ; __n > 0; --__n, ++__cur)

  0001c	83 7d 0c 00	 cmp	 DWORD PTR ___n$[ebp], 0
  00020	76 2f		 jbe	 SHORT $L103082

; 196  :       _Construct(&*__cur, __x);

  00022	ff 75 10	 push	 DWORD PTR ___x$[ebp]
  00025	ff 75 ec	 push	 DWORD PTR ___cur$[ebp]
  00028	e8 00 00 00 00	 call	 ??$_Construct@VMHelpMessage@@V1@@_STL@@YAXPAVMHelpMessage@@ABV1@@Z ; _STL::_Construct<MHelpMessage,MHelpMessage>
  0002d	ff 4d 0c	 dec	 DWORD PTR ___n$[ebp]
  00030	81 45 ec bc 00
	00 00		 add	 DWORD PTR ___cur$[ebp], 188 ; 000000bcH
  00037	59		 pop	 ecx
  00038	59		 pop	 ecx
  00039	eb e1		 jmp	 SHORT $L103080
$L106353:

; 197  :     return __cur;
; 198  :   }
; 199  :   _STLP_UNWIND(_STLP_STD::_Destroy(__first, __cur));

  0003b	ff 75 ec	 push	 DWORD PTR ___cur$[ebp]
  0003e	ff 75 08	 push	 DWORD PTR ___first$[ebp]
  00041	e8 00 00 00 00	 call	 ??$_Destroy@PAVMHelpMessage@@@_STL@@YAXPAVMHelpMessage@@0@Z ; _STL::_Destroy<MHelpMessage *>
  00046	59		 pop	 ecx
  00047	59		 pop	 ecx
  00048	6a 00		 push	 0
  0004a	6a 00		 push	 0
  0004c	e8 00 00 00 00	 call	 __CxxThrowException@8
$L106362:
$L103082:

; 200  : # ifdef _STLP_THROW_RETURN_BUG
; 201  :   return __cur;
; 202  : # endif
; 203  : }

  00051	8b 4d f4	 mov	 ecx, DWORD PTR __$EHRec$[ebp+4]
  00054	8b 45 ec	 mov	 eax, DWORD PTR ___cur$[ebp]
  00057	5f		 pop	 edi
  00058	5e		 pop	 esi
  00059	64 89 0d 00 00
	00 00		 mov	 DWORD PTR fs:__except_list, ecx
  00060	5b		 pop	 ebx
  00061	c9		 leave
  00062	c3		 ret	 0
$L106358:
_TEXT	ENDS
;	COMDAT text$x
text$x	SEGMENT
__ehhandler$??$__uninitialized_fill_n@PAVMHelpMessage@@IV1@@_STL@@YAPAVMHelpMessage@@PAV1@IABV1@ABU__false_type@0@@Z:
  00000	b8 00 00 00 00	 mov	 eax, OFFSET FLAT:$T106355
  00005	e9 00 00 00 00	 jmp	 ___CxxFrameHandler
text$x	ENDS
??$__uninitialized_fill_n@PAVMHelpMessage@@IV1@@_STL@@YAPAVMHelpMessage@@PAV1@IABV1@ABU__false_type@0@@Z ENDP ; _STL::__uninitialized_fill_n<MHelpMessage *,unsigned int,MHelpMessage>
PUBLIC	??$__uninitialized_copy@PAVMString@@PAV1@@_STL@@YAPAVMString@@PAV1@00ABU__false_type@0@@Z ; _STL::__uninitialized_copy<MString *,MString *>
;	COMDAT xdata$x
xdata$x	SEGMENT
$T106374 DD	0ffffffffH
	DD	00H
	DD	0ffffffffH
	DD	00H
$T106376 DD	00H
	DD	00H
	DD	00H
	DD	FLAT:$L106368
$T106375 DD	00H
	DD	00H
	DD	01H
	DD	01H
	DD	FLAT:$T106376
$T106370 DD	019930520H
	DD	02H
	DD	FLAT:$T106374
	DD	01H
	DD	FLAT:$T106375
	DD	2 DUP(00H)
; Function compile flags: /Ogsy
xdata$x	ENDS
;	COMDAT ??$__uninitialized_copy@PAVMString@@PAV1@@_STL@@YAPAVMString@@PAV1@00ABU__false_type@0@@Z
_TEXT	SEGMENT
___cur$ = -20						; size = 4
__$EHRec$ = -16						; size = 16
___first$ = 8						; size = 4
___last$ = 12						; size = 4
___result$ = 16						; size = 4
___formal$ = 20						; size = 4
??$__uninitialized_copy@PAVMString@@PAV1@@_STL@@YAPAVMString@@PAV1@00ABU__false_type@0@@Z PROC NEAR ; _STL::__uninitialized_copy<MString *,MString *>, COMDAT

; 63   : {

  00000	b8 00 00 00 00	 mov	 eax, __ehhandler$??$__uninitialized_copy@PAVMString@@PAV1@@_STL@@YAPAVMString@@PAV1@00ABU__false_type@0@@Z
  00005	e8 00 00 00 00	 call	 __EH_prolog
  0000a	51		 push	 ecx
  0000b	51		 push	 ecx

; 64   :   _ForwardIter __cur = __result;

  0000c	8b 45 10	 mov	 eax, DWORD PTR ___result$[ebp]

; 65   :   _STLP_TRY {

  0000f	83 65 fc 00	 and	 DWORD PTR __$EHRec$[ebp+12], 0
  00013	53		 push	 ebx
  00014	56		 push	 esi
  00015	8b 75 08	 mov	 esi, DWORD PTR ___first$[ebp]
  00018	57		 push	 edi
  00019	89 65 f0	 mov	 DWORD PTR __$EHRec$[ebp], esp
  0001c	89 45 ec	 mov	 DWORD PTR ___cur$[ebp], eax
$L103086:

; 66   :     for ( ; __first != __last; ++__first, ++__cur)

  0001f	3b 75 0c	 cmp	 esi, DWORD PTR ___last$[ebp]
  00022	74 2a		 je	 SHORT $L103088

; 67   :       _Construct(&*__cur, *__first);

  00024	56		 push	 esi
  00025	ff 75 ec	 push	 DWORD PTR ___cur$[ebp]
  00028	e8 00 00 00 00	 call	 ??$_Construct@VMString@@V1@@_STL@@YAXPAVMString@@ABV1@@Z ; _STL::_Construct<MString,MString>
  0002d	59		 pop	 ecx
  0002e	83 c6 0c	 add	 esi, 12			; 0000000cH
  00031	83 45 ec 0c	 add	 DWORD PTR ___cur$[ebp], 12 ; 0000000cH
  00035	59		 pop	 ecx
  00036	eb e7		 jmp	 SHORT $L103086
$L106368:

; 68   :     return __cur;
; 69   :   }
; 70   :   _STLP_UNWIND(_STLP_STD::_Destroy(__result, __cur));

  00038	ff 75 ec	 push	 DWORD PTR ___cur$[ebp]
  0003b	ff 75 10	 push	 DWORD PTR ___result$[ebp]
  0003e	e8 00 00 00 00	 call	 ??$_Destroy@PAVMString@@@_STL@@YAXPAVMString@@0@Z ; _STL::_Destroy<MString *>
  00043	59		 pop	 ecx
  00044	59		 pop	 ecx
  00045	6a 00		 push	 0
  00047	6a 00		 push	 0
  00049	e8 00 00 00 00	 call	 __CxxThrowException@8
$L106377:
$L103088:

; 71   : # ifdef _STLP_THROW_RETURN_BUG
; 72   :   return __cur;
; 73   : # endif
; 74   : }

  0004e	8b 4d f4	 mov	 ecx, DWORD PTR __$EHRec$[ebp+4]
  00051	8b 45 ec	 mov	 eax, DWORD PTR ___cur$[ebp]
  00054	5f		 pop	 edi
  00055	5e		 pop	 esi
  00056	64 89 0d 00 00
	00 00		 mov	 DWORD PTR fs:__except_list, ecx
  0005d	5b		 pop	 ebx
  0005e	c9		 leave
  0005f	c3		 ret	 0
$L106373:
_TEXT	ENDS
;	COMDAT text$x
text$x	SEGMENT
__ehhandler$??$__uninitialized_copy@PAVMString@@PAV1@@_STL@@YAPAVMString@@PAV1@00ABU__false_type@0@@Z:
  00000	b8 00 00 00 00	 mov	 eax, OFFSET FLAT:$T106370
  00005	e9 00 00 00 00	 jmp	 ___CxxFrameHandler
text$x	ENDS
??$__uninitialized_copy@PAVMString@@PAV1@@_STL@@YAPAVMString@@PAV1@00ABU__false_type@0@@Z ENDP ; _STL::__uninitialized_copy<MString *,MString *>
PUBLIC	??$__uninitialized_fill_n@PAVMString@@IV1@@_STL@@YAPAVMString@@PAV1@IABV1@ABU__false_type@0@@Z ; _STL::__uninitialized_fill_n<MString *,unsigned int,MString>
;	COMDAT xdata$x
xdata$x	SEGMENT
$T106389 DD	0ffffffffH
	DD	00H
	DD	0ffffffffH
	DD	00H
$T106391 DD	00H
	DD	00H
	DD	00H
	DD	FLAT:$L106383
$T106390 DD	00H
	DD	00H
	DD	01H
	DD	01H
	DD	FLAT:$T106391
$T106385 DD	019930520H
	DD	02H
	DD	FLAT:$T106389
	DD	01H
	DD	FLAT:$T106390
	DD	2 DUP(00H)
; Function compile flags: /Ogsy
xdata$x	ENDS
;	COMDAT ??$__uninitialized_fill_n@PAVMString@@IV1@@_STL@@YAPAVMString@@PAV1@IABV1@ABU__false_type@0@@Z
_TEXT	SEGMENT
___cur$ = -20						; size = 4
__$EHRec$ = -16						; size = 16
___first$ = 8						; size = 4
___n$ = 12						; size = 4
___x$ = 16						; size = 4
___formal$ = 20						; size = 4
??$__uninitialized_fill_n@PAVMString@@IV1@@_STL@@YAPAVMString@@PAV1@IABV1@ABU__false_type@0@@Z PROC NEAR ; _STL::__uninitialized_fill_n<MString *,unsigned int,MString>, COMDAT

; 192  : {

  00000	b8 00 00 00 00	 mov	 eax, __ehhandler$??$__uninitialized_fill_n@PAVMString@@IV1@@_STL@@YAPAVMString@@PAV1@IABV1@ABU__false_type@0@@Z
  00005	e8 00 00 00 00	 call	 __EH_prolog
  0000a	51		 push	 ecx
  0000b	51		 push	 ecx

; 193  :   _ForwardIter __cur = __first;

  0000c	8b 45 08	 mov	 eax, DWORD PTR ___first$[ebp]

; 194  :   _STLP_TRY {

  0000f	83 65 fc 00	 and	 DWORD PTR __$EHRec$[ebp+12], 0
  00013	53		 push	 ebx
  00014	56		 push	 esi
  00015	57		 push	 edi
  00016	89 65 f0	 mov	 DWORD PTR __$EHRec$[ebp], esp
  00019	89 45 ec	 mov	 DWORD PTR ___cur$[ebp], eax
$L103092:

; 195  :     for ( ; __n > 0; --__n, ++__cur)

  0001c	83 7d 0c 00	 cmp	 DWORD PTR ___n$[ebp], 0
  00020	76 2c		 jbe	 SHORT $L103094

; 196  :       _Construct(&*__cur, __x);

  00022	ff 75 10	 push	 DWORD PTR ___x$[ebp]
  00025	ff 75 ec	 push	 DWORD PTR ___cur$[ebp]
  00028	e8 00 00 00 00	 call	 ??$_Construct@VMString@@V1@@_STL@@YAXPAVMString@@ABV1@@Z ; _STL::_Construct<MString,MString>
  0002d	ff 4d 0c	 dec	 DWORD PTR ___n$[ebp]
  00030	83 45 ec 0c	 add	 DWORD PTR ___cur$[ebp], 12 ; 0000000cH
  00034	59		 pop	 ecx
  00035	59		 pop	 ecx
  00036	eb e4		 jmp	 SHORT $L103092
$L106383:

; 197  :     return __cur;
; 198  :   }
; 199  :   _STLP_UNWIND(_STLP_STD::_Destroy(__first, __cur));

  00038	ff 75 ec	 push	 DWORD PTR ___cur$[ebp]
  0003b	ff 75 08	 push	 DWORD PTR ___first$[ebp]
  0003e	e8 00 00 00 00	 call	 ??$_Destroy@PAVMString@@@_STL@@YAXPAVMString@@0@Z ; _STL::_Destroy<MString *>
  00043	59		 pop	 ecx
  00044	59		 pop	 ecx
  00045	6a 00		 push	 0
  00047	6a 00		 push	 0
  00049	e8 00 00 00 00	 call	 __CxxThrowException@8
$L106392:
$L103094:

; 200  : # ifdef _STLP_THROW_RETURN_BUG
; 201  :   return __cur;
; 202  : # endif
; 203  : }

  0004e	8b 4d f4	 mov	 ecx, DWORD PTR __$EHRec$[ebp+4]
  00051	8b 45 ec	 mov	 eax, DWORD PTR ___cur$[ebp]
  00054	5f		 pop	 edi
  00055	5e		 pop	 esi
  00056	64 89 0d 00 00
	00 00		 mov	 DWORD PTR fs:__except_list, ecx
  0005d	5b		 pop	 ebx
  0005e	c9		 leave
  0005f	c3		 ret	 0
$L106388:
_TEXT	ENDS
;	COMDAT text$x
text$x	SEGMENT
__ehhandler$??$__uninitialized_fill_n@PAVMString@@IV1@@_STL@@YAPAVMString@@PAV1@IABV1@ABU__false_type@0@@Z:
  00000	b8 00 00 00 00	 mov	 eax, OFFSET FLAT:$T106385
  00005	e9 00 00 00 00	 jmp	 ___CxxFrameHandler
text$x	ENDS
??$__uninitialized_fill_n@PAVMString@@IV1@@_STL@@YAPAVMString@@PAV1@IABV1@ABU__false_type@0@@Z ENDP ; _STL::__uninitialized_fill_n<MString *,unsigned int,MString>
PUBLIC	?flush@?$basic_ostream@DV?$char_traits@D@_STL@@@_STL@@QAEAAV12@XZ ; _STL::basic_ostream<char,_STL::char_traits<char> >::flush
; Function compile flags: /Ogsy
; File c:\stlport-4.6.1\stlport\stl\_ostream.h
;	COMDAT ?flush@?$basic_ostream@DV?$char_traits@D@_STL@@@_STL@@QAEAAV12@XZ
_TEXT	SEGMENT
?flush@?$basic_ostream@DV?$char_traits@D@_STL@@@_STL@@QAEAAV12@XZ PROC NEAR ; _STL::basic_ostream<char,_STL::char_traits<char> >::flush, COMDAT
; _this$ = ecx

; 120  :   _Self& flush() {

  00000	56		 push	 esi
  00001	8b f1		 mov	 esi, ecx

; 121  :     if (this->rdbuf())

  00003	8b 06		 mov	 eax, DWORD PTR [esi]
  00005	8b 40 04	 mov	 eax, DWORD PTR [eax+4]
  00008	8b 4c 30 58	 mov	 ecx, DWORD PTR [eax+esi+88]
  0000c	85 c9		 test	 ecx, ecx
  0000e	74 1d		 je	 SHORT $L106416

; 122  :       if (this->rdbuf()->pubsync() == -1)

  00010	8b 01		 mov	 eax, DWORD PTR [ecx]
  00012	ff 50 10	 call	 DWORD PTR [eax+16]
  00015	83 f8 ff	 cmp	 eax, -1
  00018	75 13		 jne	 SHORT $L106416

; 123  :         this->setstate(ios_base::badbit);

  0001a	8b 06		 mov	 eax, DWORD PTR [esi]
  0001c	8b 48 04	 mov	 ecx, DWORD PTR [eax+4]
  0001f	03 ce		 add	 ecx, esi
  00021	8b 41 08	 mov	 eax, DWORD PTR [ecx+8]
  00024	83 c8 01	 or	 eax, 1
  00027	50		 push	 eax
  00028	e8 00 00 00 00	 call	 ?clear@?$basic_ios@DV?$char_traits@D@_STL@@@_STL@@QAEXH@Z ; _STL::basic_ios<char,_STL::char_traits<char> >::clear
$L106416:

; 124  :     return *this;

  0002d	8b c6		 mov	 eax, esi
  0002f	5e		 pop	 esi

; 125  :   }

  00030	c3		 ret	 0
?flush@?$basic_ostream@DV?$char_traits@D@_STL@@@_STL@@QAEAAV12@XZ ENDP ; _STL::basic_ostream<char,_STL::char_traits<char> >::flush
_TEXT	ENDS
PUBLIC	??$_M_init@DV?$char_traits@D@_STL@@@_STL@@YA_NAAV?$basic_ostream@DV?$char_traits@D@_STL@@@0@@Z ; _STL::_M_init<char,_STL::char_traits<char> >
; Function compile flags: /Ogsy
; File c:\stlport-4.6.1\stlport\stl\_ostream.c
;	COMDAT ??$_M_init@DV?$char_traits@D@_STL@@@_STL@@YA_NAAV?$basic_ostream@DV?$char_traits@D@_STL@@@0@@Z
_TEXT	SEGMENT
___str$ = 8						; size = 4
??$_M_init@DV?$char_traits@D@_STL@@@_STL@@YA_NAAV?$basic_ostream@DV?$char_traits@D@_STL@@@0@@Z PROC NEAR ; _STL::_M_init<char,_STL::char_traits<char> >, COMDAT

; 37   : _M_init(basic_ostream<_CharT, _Traits>& __str) {

  00000	56		 push	 esi

; 38   :   if (__str.good()) {

  00001	8b 74 24 08	 mov	 esi, DWORD PTR ___str$[esp]
  00005	8b 06		 mov	 eax, DWORD PTR [esi]
  00007	8b 40 04	 mov	 eax, DWORD PTR [eax+4]
  0000a	8d 0c 30	 lea	 ecx, DWORD PTR [eax+esi]
  0000d	83 79 08 00	 cmp	 DWORD PTR [ecx+8], 0
  00011	75 36		 jne	 SHORT $L103560

; 39   :     // boris : check if this is needed !
; 40   :     if (!__str.rdbuf())

  00013	83 79 58 00	 cmp	 DWORD PTR [ecx+88], 0
  00017	75 0c		 jne	 SHORT $L106436

; 41   :       __str.setstate(ios_base::badbit);

  00019	8b 41 08	 mov	 eax, DWORD PTR [ecx+8]
  0001c	83 c8 01	 or	 eax, 1
  0001f	50		 push	 eax
  00020	e8 00 00 00 00	 call	 ?clear@?$basic_ios@DV?$char_traits@D@_STL@@@_STL@@QAEXH@Z ; _STL::basic_ios<char,_STL::char_traits<char> >::clear
$L106436:

; 42   :     if (__str.tie())

  00025	8b 06		 mov	 eax, DWORD PTR [esi]
  00027	8b 40 04	 mov	 eax, DWORD PTR [eax+4]
  0002a	8b 4c 30 5c	 mov	 ecx, DWORD PTR [eax+esi+92]
  0002e	85 c9		 test	 ecx, ecx
  00030	74 05		 je	 SHORT $L103562

; 43   :       __str.tie()->flush();

  00032	e8 00 00 00 00	 call	 ?flush@?$basic_ostream@DV?$char_traits@D@_STL@@@_STL@@QAEAAV12@XZ ; _STL::basic_ostream<char,_STL::char_traits<char> >::flush
$L103562:

; 44   :     return __str.good();

  00037	8b 06		 mov	 eax, DWORD PTR [esi]
  00039	8b 40 04	 mov	 eax, DWORD PTR [eax+4]
  0003c	33 c9		 xor	 ecx, ecx
  0003e	39 4c 30 08	 cmp	 DWORD PTR [eax+esi+8], ecx
  00042	5e		 pop	 esi
  00043	0f 94 c1	 sete	 cl
  00046	8a c1		 mov	 al, cl

; 47   : }

  00048	c3		 ret	 0
$L103560:

; 45   :   } else
; 46   :     return false;

  00049	32 c0		 xor	 al, al
  0004b	5e		 pop	 esi

; 47   : }

  0004c	c3		 ret	 0
??$_M_init@DV?$char_traits@D@_STL@@@_STL@@YA_NAAV?$basic_ostream@DV?$char_traits@D@_STL@@@0@@Z ENDP ; _STL::_M_init<char,_STL::char_traits<char> >
_TEXT	ENDS
PUBLIC	??$__uninitialized_copy@PADPAD@_STL@@YAPADPAD00ABU__true_type@0@@Z ; _STL::__uninitialized_copy<char *,char *>
; Function compile flags: /Ogsy
; File c:\stlport-4.6.1\stlport\stl\_uninitialized.h
;	COMDAT ??$__uninitialized_copy@PADPAD@_STL@@YAPADPAD00ABU__true_type@0@@Z
_TEXT	SEGMENT
___first$ = 8						; size = 4
___last$ = 12						; size = 4
___result$ = 16						; size = 4
___formal$ = 20						; size = 4
??$__uninitialized_copy@PADPAD@_STL@@YAPADPAD00ABU__true_type@0@@Z PROC NEAR ; _STL::__uninitialized_copy<char *,char *>, COMDAT

; 55   :   return __copy_aux(__first, __last, __result, _BothPtrType< _InputIter, _ForwardIter> :: _Ret());

  00000	ff 74 24 0c	 push	 DWORD PTR ___result$[esp-4]
  00004	ff 74 24 0c	 push	 DWORD PTR ___last$[esp]
  00008	ff 74 24 0c	 push	 DWORD PTR ___first$[esp+4]
  0000c	e8 00 00 00 00	 call	 ?__copy_trivial@_STL@@YAPAXPBX0PAX@Z ; _STL::__copy_trivial
  00011	83 c4 0c	 add	 esp, 12			; 0000000cH

; 56   : }

  00014	c3		 ret	 0
??$__uninitialized_copy@PADPAD@_STL@@YAPADPAD00ABU__true_type@0@@Z ENDP ; _STL::__uninitialized_copy<char *,char *>
_TEXT	ENDS
PUBLIC	?_M_deallocate_block@?$_String_base@DV?$allocator@D@_STL@@@_STL@@QAEXXZ ; _STL::_String_base<char,_STL::allocator<char> >::_M_deallocate_block
; Function compile flags: /Ogsy
; File c:\stlport-4.6.1\stlport\stl\_string.h
;	COMDAT ?_M_deallocate_block@?$_String_base@DV?$allocator@D@_STL@@@_STL@@QAEXXZ
_TEXT	SEGMENT
?_M_deallocate_block@?$_String_base@DV?$allocator@D@_STL@@@_STL@@QAEXXZ PROC NEAR ; _STL::_String_base<char,_STL::allocator<char> >::_M_deallocate_block, COMDAT
; _this$ = ecx

; 124  :     { _M_end_of_storage.deallocate(_M_start, _M_end_of_storage._M_data - _M_start); }

  00000	8b c1		 mov	 eax, ecx
  00002	8d 48 08	 lea	 ecx, DWORD PTR [eax+8]
  00005	8b 00		 mov	 eax, DWORD PTR [eax]
  00007	8b 11		 mov	 edx, DWORD PTR [ecx]
  00009	2b d0		 sub	 edx, eax
  0000b	52		 push	 edx
  0000c	50		 push	 eax
  0000d	e8 00 00 00 00	 call	 ?deallocate@?$allocator@D@_STL@@QAEXPADI@Z ; _STL::allocator<char>::deallocate
  00012	c3		 ret	 0
?_M_deallocate_block@?$_String_base@DV?$allocator@D@_STL@@@_STL@@QAEXXZ ENDP ; _STL::_String_base<char,_STL::allocator<char> >::_M_deallocate_block
_TEXT	ENDS
PUBLIC	??1?$basic_filebuf@DV?$char_traits@D@_STL@@@_STL@@UAE@XZ ; _STL::basic_filebuf<char,_STL::char_traits<char> >::~basic_filebuf<char,_STL::char_traits<char> >
;	COMDAT xdata$x
; File c:\stlport-4.6.1\stlport\stl\_fstream.c
xdata$x	SEGMENT
$T106496 DD	0ffffffffH
	DD	FLAT:$L106492
$T106494 DD	019930520H
	DD	01H
	DD	FLAT:$T106496
	DD	2 DUP(00H)
	DD	2 DUP(00H)
; Function compile flags: /Ogsy
xdata$x	ENDS
;	COMDAT ??1?$basic_filebuf@DV?$char_traits@D@_STL@@@_STL@@UAE@XZ
_TEXT	SEGMENT
_this$ = -16						; size = 4
__$EHRec$ = -12						; size = 12
??1?$basic_filebuf@DV?$char_traits@D@_STL@@@_STL@@UAE@XZ PROC NEAR ; _STL::basic_filebuf<char,_STL::char_traits<char> >::~basic_filebuf<char,_STL::char_traits<char> >, COMDAT
; _this$ = ecx

; 65   : basic_filebuf<_CharT, _Traits>::~basic_filebuf() {

  00000	b8 00 00 00 00	 mov	 eax, __ehhandler$??1?$basic_filebuf@DV?$char_traits@D@_STL@@@_STL@@UAE@XZ
  00005	e8 00 00 00 00	 call	 __EH_prolog
  0000a	51		 push	 ecx
  0000b	56		 push	 esi
  0000c	8b f1		 mov	 esi, ecx
  0000e	89 75 f0	 mov	 DWORD PTR _this$[ebp], esi
  00011	c7 06 00 00 00
	00		 mov	 DWORD PTR [esi], OFFSET FLAT:??_7?$basic_filebuf@DV?$char_traits@D@_STL@@@_STL@@6B@
  00017	83 65 fc 00	 and	 DWORD PTR __$EHRec$[ebp+8], 0

; 66   :   this->close();

  0001b	e8 00 00 00 00	 call	 ?close@?$basic_filebuf@DV?$char_traits@D@_STL@@@_STL@@QAEPAV12@XZ ; _STL::basic_filebuf<char,_STL::char_traits<char> >::close

; 67   :   _M_deallocate_buffers();

  00020	8b ce		 mov	 ecx, esi
  00022	e8 00 00 00 00	 call	 ?_M_deallocate_buffers@?$basic_filebuf@DV?$char_traits@D@_STL@@@_STL@@AAEXXZ ; _STL::basic_filebuf<char,_STL::char_traits<char> >::_M_deallocate_buffers

; 68   : }

  00027	83 4d fc ff	 or	 DWORD PTR __$EHRec$[ebp+8], -1
  0002b	8b ce		 mov	 ecx, esi
  0002d	e8 00 00 00 00	 call	 ??1?$basic_streambuf@DV?$char_traits@D@_STL@@@_STL@@UAE@XZ ; _STL::basic_streambuf<char,_STL::char_traits<char> >::~basic_streambuf<char,_STL::char_traits<char> >
  00032	8b 4d f4	 mov	 ecx, DWORD PTR __$EHRec$[ebp]
  00035	5e		 pop	 esi
  00036	64 89 0d 00 00
	00 00		 mov	 DWORD PTR fs:__except_list, ecx
  0003d	c9		 leave
  0003e	c3		 ret	 0
_TEXT	ENDS
;	COMDAT text$x
text$x	SEGMENT
$L106492:
  00000	8b 4d f0	 mov	 ecx, DWORD PTR _this$[ebp]
  00003	e9 00 00 00 00	 jmp	 ??1?$basic_streambuf@DV?$char_traits@D@_STL@@@_STL@@UAE@XZ ; _STL::basic_streambuf<char,_STL::char_traits<char> >::~basic_streambuf<char,_STL::char_traits<char> >
__ehhandler$??1?$basic_filebuf@DV?$char_traits@D@_STL@@@_STL@@UAE@XZ:
  00008	b8 00 00 00 00	 mov	 eax, OFFSET FLAT:$T106494
  0000d	e9 00 00 00 00	 jmp	 ___CxxFrameHandler
text$x	ENDS
??1?$basic_filebuf@DV?$char_traits@D@_STL@@@_STL@@UAE@XZ ENDP ; _STL::basic_filebuf<char,_STL::char_traits<char> >::~basic_filebuf<char,_STL::char_traits<char> >
PUBLIC	?_M_switch_to_output_mode@?$basic_filebuf@DV?$char_traits@D@_STL@@@_STL@@AAE_NXZ ; _STL::basic_filebuf<char,_STL::char_traits<char> >::_M_switch_to_output_mode
PUBLIC	?_M_output_error@?$basic_filebuf@DV?$char_traits@D@_STL@@@_STL@@AAEHXZ ; _STL::basic_filebuf<char,_STL::char_traits<char> >::_M_output_error
; Function compile flags: /Ogsy
;	COMDAT ?overflow@?$basic_filebuf@DV?$char_traits@D@_STL@@@_STL@@MAEHH@Z
_TEXT	SEGMENT
___enext$98795 = -12					; size = 4
___iend$ = -8						; size = 4
___inext$98794 = -4					; size = 4
___c$ = 8						; size = 4
?overflow@?$basic_filebuf@DV?$char_traits@D@_STL@@@_STL@@MAEHH@Z PROC NEAR ; _STL::basic_filebuf<char,_STL::char_traits<char> >::overflow, COMDAT
; _this$ = ecx

; 213  : {

  00000	55		 push	 ebp
  00001	8b ec		 mov	 ebp, esp
  00003	83 ec 0c	 sub	 esp, 12			; 0000000cH
  00006	56		 push	 esi
  00007	8b f1		 mov	 esi, ecx

; 214  :   // Switch to output mode, if necessary.
; 215  :   if (!_M_in_output_mode)

  00009	80 7e 68 00	 cmp	 BYTE PTR [esi+104], 0
  0000d	75 11		 jne	 SHORT $L98786

; 216  :     if (!_M_switch_to_output_mode())

  0000f	e8 00 00 00 00	 call	 ?_M_switch_to_output_mode@?$basic_filebuf@DV?$char_traits@D@_STL@@@_STL@@AAE_NXZ ; _STL::basic_filebuf<char,_STL::char_traits<char> >::_M_switch_to_output_mode
  00014	84 c0		 test	 al, al
  00016	75 08		 jne	 SHORT $L98786

; 217  :       return traits_type::eof();

  00018	83 c8 ff	 or	 eax, -1
  0001b	e9 b1 00 00 00	 jmp	 $L98784
$L98786:

; 218  : 
; 219  :   _CharT* __ibegin = this->_M_int_buf;
; 220  :   _CharT* __iend   = this->pptr();
; 221  :   this->setp(_M_int_buf, _M_int_buf_EOS - 1);

  00020	8b 46 70	 mov	 eax, DWORD PTR [esi+112]
  00023	8b 4e 08	 mov	 ecx, DWORD PTR [esi+8]
  00026	8b 11		 mov	 edx, DWORD PTR [ecx]
  00028	48		 dec	 eax
  00029	57		 push	 edi
  0002a	8b 7e 6c	 mov	 edi, DWORD PTR [esi+108]
  0002d	2b c7		 sub	 eax, edi
  0002f	89 41 04	 mov	 DWORD PTR [ecx+4], eax

; 222  : 
; 223  :   // Put __c at the end of the internal buffer.
; 224  :   if (!traits_type::eq_int_type(__c, traits_type::eof()))

  00032	8b 45 08	 mov	 eax, DWORD PTR ___c$[ebp]
  00035	83 f8 ff	 cmp	 eax, -1
  00038	89 55 f8	 mov	 DWORD PTR ___iend$[ebp], edx
  0003b	89 79 08	 mov	 DWORD PTR [ecx+8], edi
  0003e	89 39		 mov	 DWORD PTR [ecx], edi
  00040	74 06		 je	 SHORT $L106668

; 225  :     *__iend++ = __c;

  00042	88 02		 mov	 BYTE PTR [edx], al
  00044	42		 inc	 edx
  00045	89 55 f8	 mov	 DWORD PTR ___iend$[ebp], edx
$L106668:

; 226  : 
; 227  :   // For variable-width encodings, output may take more than one pass.
; 228  :   while (__ibegin != __iend) {

  00048	3b fa		 cmp	 edi, edx
  0004a	53		 push	 ebx
  0004b	74 77		 je	 SHORT $L98793
$L98792:

; 229  :     const _CharT* __inext = __ibegin;
; 230  :     char* __enext         = _M_ext_buf;

  0004d	8b 46 74	 mov	 eax, DWORD PTR [esi+116]

; 231  :     typename _Codecvt::result __status
; 232  :       = _M_codecvt->out(_M_state, __ibegin, __iend, __inext,
; 233  :                                   _M_ext_buf, _M_ext_buf_EOS, __enext);

  00050	8b 8e a0 00 00
	00		 mov	 ecx, DWORD PTR [esi+160]
  00056	8d 5d f4	 lea	 ebx, DWORD PTR ___enext$98795[ebp]
  00059	53		 push	 ebx
  0005a	ff 76 78	 push	 DWORD PTR [esi+120]
  0005d	8b 5d f8	 mov	 ebx, DWORD PTR ___iend$[ebp]
  00060	50		 push	 eax
  00061	89 45 f4	 mov	 DWORD PTR ___enext$98795[ebp], eax
  00064	8d 45 fc	 lea	 eax, DWORD PTR ___inext$98794[ebp]
  00067	50		 push	 eax
  00068	53		 push	 ebx
  00069	57		 push	 edi
  0006a	8d 86 84 00 00
	00		 lea	 eax, DWORD PTR [esi+132]
  00070	89 7d fc	 mov	 DWORD PTR ___inext$98794[ebp], edi
  00073	8b 11		 mov	 edx, DWORD PTR [ecx]
  00075	50		 push	 eax
  00076	ff 52 04	 call	 DWORD PTR [edx+4]

; 234  :     if (__status == _Codecvt::noconv)

  00079	83 f8 03	 cmp	 eax, 3
  0007c	74 58		 je	 SHORT $L106669

; 238  : 
; 239  :     // For a constant-width encoding we know that the external buffer
; 240  :     // is large enough, so failure to consume the entire internal buffer
; 241  :     // or to produce the correct number of external characters, is an error.
; 242  :     // For a variable-width encoding, however, we require only that we 
; 243  :     // consume at least one internal character
; 244  :     else if (__status != _Codecvt::error && 
; 245  :              ((__inext == __iend && (__enext - _M_ext_buf == 
; 246  :                                      _M_width * (__iend - __ibegin))) ||
; 247  :               (!_M_constant_width && __inext != __ibegin))) {

  0007e	83 f8 02	 cmp	 eax, 2
  00081	74 63		 je	 SHORT $L106502
  00083	39 5d fc	 cmp	 DWORD PTR ___inext$98794[ebp], ebx
  00086	8b 45 f4	 mov	 eax, DWORD PTR ___enext$98795[ebp]
  00089	75 14		 jne	 SHORT $L98801
  0008b	8b cb		 mov	 ecx, ebx
  0008d	2b cf		 sub	 ecx, edi
  0008f	0f af 8e a4 00
	00 00		 imul	 ecx, DWORD PTR [esi+164]
  00096	8b d0		 mov	 edx, eax
  00098	2b 56 74	 sub	 edx, DWORD PTR [esi+116]
  0009b	3b d1		 cmp	 edx, ecx
  0009d	74 0b		 je	 SHORT $L98800
$L98801:
  0009f	80 7e 64 00	 cmp	 BYTE PTR [esi+100], 0
  000a3	75 41		 jne	 SHORT $L106502
  000a5	39 7d fc	 cmp	 DWORD PTR ___inext$98794[ebp], edi
  000a8	74 3c		 je	 SHORT $L106502
$L98800:

; 248  :         // We successfully converted part or all of the internal buffer.
; 249  :       ptrdiff_t __n = __enext - _M_ext_buf;

  000aa	8b 4e 74	 mov	 ecx, DWORD PTR [esi+116]
  000ad	2b c1		 sub	 eax, ecx

; 250  :       if (_M_write(_M_ext_buf, __n))

  000af	50		 push	 eax
  000b0	51		 push	 ecx
  000b1	8d 4e 54	 lea	 ecx, DWORD PTR [esi+84]
  000b4	e8 00 00 00 00	 call	 ?_M_write@_Filebuf_base@_STL@@QAE_NPADH@Z ; _STL::_Filebuf_base::_M_write
  000b9	84 c0		 test	 al, al
  000bb	74 29		 je	 SHORT $L106502

; 251  :         __ibegin += __inext - __ibegin;

  000bd	8b 7d fc	 mov	 edi, DWORD PTR ___inext$98794[ebp]
  000c0	3b fb		 cmp	 edi, ebx
  000c2	75 89		 jne	 SHORT $L98792
$L98793:

; 252  :       else
; 253  :         return _M_output_error();
; 254  :     }
; 255  :     else
; 256  :       return _M_output_error();
; 257  :   }
; 258  : 
; 259  :   return traits_type::not_eof(__c);

  000c4	8b 45 08	 mov	 eax, DWORD PTR ___c$[ebp]
  000c7	40		 inc	 eax
  000c8	f7 d8		 neg	 eax
  000ca	1b c0		 sbb	 eax, eax
  000cc	23 45 08	 and	 eax, DWORD PTR ___c$[ebp]
$L106672:
  000cf	5b		 pop	 ebx
  000d0	5f		 pop	 edi
$L98784:
  000d1	5e		 pop	 esi

; 260  : }

  000d2	c9		 leave
  000d3	c2 04 00	 ret	 4
$L106669:

; 235  :       return _Noconv_output<_Traits>::_M_doit(this, __ibegin, __iend)
; 236  :         ? traits_type::not_eof(__c)
; 237  :         : _M_output_error();

  000d6	2b df		 sub	 ebx, edi
  000d8	53		 push	 ebx
  000d9	57		 push	 edi
  000da	8d 4e 54	 lea	 ecx, DWORD PTR [esi+84]
  000dd	e8 00 00 00 00	 call	 ?_M_write@_Filebuf_base@_STL@@QAE_NPADH@Z ; _STL::_Filebuf_base::_M_write
  000e2	84 c0		 test	 al, al
  000e4	75 de		 jne	 SHORT $L98793
$L106502:
  000e6	8b ce		 mov	 ecx, esi
  000e8	e8 00 00 00 00	 call	 ?_M_output_error@?$basic_filebuf@DV?$char_traits@D@_STL@@@_STL@@AAEHXZ ; _STL::basic_filebuf<char,_STL::char_traits<char> >::_M_output_error
  000ed	eb e0		 jmp	 SHORT $L106672
?overflow@?$basic_filebuf@DV?$char_traits@D@_STL@@@_STL@@MAEHH@Z ENDP ; _STL::basic_filebuf<char,_STL::char_traits<char> >::overflow
; Function compile flags: /Ogsy
_TEXT	ENDS
;	COMDAT ?_M_output_error@?$basic_filebuf@DV?$char_traits@D@_STL@@@_STL@@AAEHXZ
_TEXT	SEGMENT
?_M_output_error@?$basic_filebuf@DV?$char_traits@D@_STL@@@_STL@@AAEHXZ PROC NEAR ; _STL::basic_filebuf<char,_STL::char_traits<char> >::_M_output_error, COMDAT
; _this$ = ecx

; 591  :   _M_in_output_mode = false;

  00000	33 c0		 xor	 eax, eax
  00002	88 41 68	 mov	 BYTE PTR [ecx+104], al

; 592  :   _M_in_input_mode = false;

  00005	88 41 67	 mov	 BYTE PTR [ecx+103], al

; 593  :   _M_in_error_mode = true;

  00008	c6 41 69 01	 mov	 BYTE PTR [ecx+105], 1

; 594  :   this->setp(0, 0);

  0000c	8b 49 08	 mov	 ecx, DWORD PTR [ecx+8]
  0000f	89 41 08	 mov	 DWORD PTR [ecx+8], eax
  00012	89 01		 mov	 DWORD PTR [ecx], eax
  00014	89 41 04	 mov	 DWORD PTR [ecx+4], eax

; 595  :   return traits_type::eof();

  00017	83 c8 ff	 or	 eax, -1

; 596  : }

  0001a	c3		 ret	 0
?_M_output_error@?$basic_filebuf@DV?$char_traits@D@_STL@@@_STL@@AAEHXZ ENDP ; _STL::basic_filebuf<char,_STL::char_traits<char> >::_M_output_error
_TEXT	ENDS
EXTRN	?_M_page_size@_Filebuf_base@_STL@@1IA:DWORD	; _STL::_Filebuf_base::_M_page_size
; Function compile flags: /Ogsy
;	COMDAT ?_M_switch_to_output_mode@?$basic_filebuf@DV?$char_traits@D@_STL@@@_STL@@AAE_NXZ
_TEXT	SEGMENT
?_M_switch_to_output_mode@?$basic_filebuf@DV?$char_traits@D@_STL@@@_STL@@AAE_NXZ PROC NEAR ; _STL::basic_filebuf<char,_STL::char_traits<char> >::_M_switch_to_output_mode, COMDAT
; _this$ = ecx

; 471  : {

  00000	53		 push	 ebx
  00001	56		 push	 esi
  00002	8b f1		 mov	 esi, ecx

; 472  :   if (this->is_open() && (_M_base.__o_mode() & (int)ios_base::out) &&
; 473  :       _M_in_input_mode == 0 && _M_in_error_mode == 0) {

  00004	33 db		 xor	 ebx, ebx
  00006	38 5e 60	 cmp	 BYTE PTR [esi+96], bl
  00009	74 5d		 je	 SHORT $L102652
  0000b	f6 46 5c 10	 test	 BYTE PTR [esi+92], 16	; 00000010H
  0000f	74 57		 je	 SHORT $L102652
  00011	38 5e 67	 cmp	 BYTE PTR [esi+103], bl
  00014	75 52		 jne	 SHORT $L102652
  00016	38 5e 69	 cmp	 BYTE PTR [esi+105], bl
  00019	75 4d		 jne	 SHORT $L102652

; 474  : 
; 475  :     if (!_M_int_buf && !_M_allocate_buffers())

  0001b	39 5e 6c	 cmp	 DWORD PTR [esi+108], ebx
  0001e	75 20		 jne	 SHORT $L102653
  00020	8b 0d 00 00 00
	00		 mov	 ecx, DWORD PTR ?_M_page_size@_Filebuf_base@_STL@@1IA ; _STL::_Filebuf_base::_M_page_size
  00026	8d 81 ff 0f 00
	00		 lea	 eax, DWORD PTR [ecx+4095]
  0002c	33 d2		 xor	 edx, edx
  0002e	f7 f1		 div	 ecx
  00030	0f af c1	 imul	 eax, ecx
  00033	50		 push	 eax
  00034	53		 push	 ebx
  00035	8b ce		 mov	 ecx, esi
  00037	e8 00 00 00 00	 call	 ?_M_allocate_buffers@?$basic_filebuf@DV?$char_traits@D@_STL@@@_STL@@AAE_NPADH@Z ; _STL::basic_filebuf<char,_STL::char_traits<char> >::_M_allocate_buffers
  0003c	84 c0		 test	 al, al

; 476  :       return false;

  0003e	74 28		 je	 SHORT $L102652
$L102653:

; 477  : 
; 478  :     // In append mode, every write does an implicit seek to the end
; 479  :     // of the file.  Whenever leaving output mode, the end of file
; 480  :     // get put in the initial shift state.
; 481  :     if (_M_base.__o_mode() & ios_base::app)

  00040	f6 46 5c 01	 test	 BYTE PTR [esi+92], 1
  00044	74 06		 je	 SHORT $L102654

; 482  :       _M_state = _State_type();

  00046	89 9e 84 00 00
	00		 mov	 DWORD PTR [esi+132], ebx
$L102654:

; 483  : 
; 484  :     this->setp(_M_int_buf, _M_int_buf_EOS - 1);

  0004c	8b 46 70	 mov	 eax, DWORD PTR [esi+112]
  0004f	8b 56 6c	 mov	 edx, DWORD PTR [esi+108]
  00052	8b 4e 08	 mov	 ecx, DWORD PTR [esi+8]
  00055	48		 dec	 eax
  00056	2b c2		 sub	 eax, edx
  00058	89 41 04	 mov	 DWORD PTR [ecx+4], eax
  0005b	89 51 08	 mov	 DWORD PTR [ecx+8], edx
  0005e	89 11		 mov	 DWORD PTR [ecx], edx

; 485  :     _M_in_output_mode = true;

  00060	c6 46 68 01	 mov	 BYTE PTR [esi+104], 1

; 486  : 
; 487  :     return true;

  00064	b0 01		 mov	 al, 1
  00066	eb 02		 jmp	 SHORT $L102655
$L102652:

; 488  :   }
; 489  :   else
; 490  :     return false;

  00068	32 c0		 xor	 al, al
$L102655:
  0006a	5e		 pop	 esi
  0006b	5b		 pop	 ebx

; 491  : }

  0006c	c3		 ret	 0
?_M_switch_to_output_mode@?$basic_filebuf@DV?$char_traits@D@_STL@@@_STL@@AAE_NXZ ENDP ; _STL::basic_filebuf<char,_STL::char_traits<char> >::_M_switch_to_output_mode
_TEXT	ENDS
PUBLIC	?_M_seek_return@?$basic_filebuf@DV?$char_traits@D@_STL@@@_STL@@AAE?AV?$fpos@H@2@JH@Z ; _STL::basic_filebuf<char,_STL::char_traits<char> >::_M_seek_return
PUBLIC	?_M_seek_init@?$basic_filebuf@DV?$char_traits@D@_STL@@@_STL@@AAE_N_N@Z ; _STL::basic_filebuf<char,_STL::char_traits<char> >::_M_seek_init
PUBLIC	??1?$_Filebuf_Tmp_Buf@D@_STL@@QAE@XZ		; _STL::_Filebuf_Tmp_Buf<char>::~_Filebuf_Tmp_Buf<char>
EXTRN	??_V@YAXPAX@Z:NEAR				; operator delete[]
EXTRN	??_U@YAPAXI@Z:NEAR				; operator new[]
;	COMDAT xdata$x
; File c:\stlport-4.6.1\stlport\stl\char_traits.h
xdata$x	SEGMENT
$T107029 DD	0ffffffffH
	DD	FLAT:$L106756
$T107003 DD	019930520H
	DD	01H
	DD	FLAT:$T107029
	DD	2 DUP(00H)
	DD	2 DUP(00H)
; Function compile flags: /Ogsy
; File c:\stlport-4.6.1\stlport\stl\_fstream.c
xdata$x	ENDS
;	COMDAT ?seekoff@?$basic_filebuf@DV?$char_traits@D@_STL@@@_STL@@MAE?AV?$fpos@H@2@JHH@Z
_TEXT	SEGMENT
___dummy$98878 = -28					; size = 4
___tmp_state$98860 = -24				; size = 4
___state$98858 = -20					; size = 4
___inext$98877 = -16					; size = 4
__$EHRec$ = -12						; size = 12
___$ReturnUdt$ = 8					; size = 4
___buf$98875 = 12					; size = 4
___off$ = 12						; size = 4
tv738 = 16						; size = 4
___cur$98916 = 16					; size = 4
___whence$ = 16						; size = 4
___formal$ = 20						; size = 4
?seekoff@?$basic_filebuf@DV?$char_traits@D@_STL@@@_STL@@MAE?AV?$fpos@H@2@JHH@Z PROC NEAR ; _STL::basic_filebuf<char,_STL::char_traits<char> >::seekoff, COMDAT
; _this$ = ecx

; 289  : {

  00000	b8 00 00 00 00	 mov	 eax, __ehhandler$?seekoff@?$basic_filebuf@DV?$char_traits@D@_STL@@@_STL@@MAE?AV?$fpos@H@2@JHH@Z
  00005	e8 00 00 00 00	 call	 __EH_prolog
  0000a	83 ec 10	 sub	 esp, 16			; 00000010H
  0000d	53		 push	 ebx
  0000e	56		 push	 esi
  0000f	8b f1		 mov	 esi, ecx

; 290  :   if (this->is_open() &&
; 291  :       (__off == 0 || (_M_constant_width && this->_M_base._M_in_binary_mode()))) {

  00011	80 7e 60 00	 cmp	 BYTE PTR [esi+96], 0
  00015	57		 push	 edi
  00016	0f 84 64 02 00
	00		 je	 $L107016
  0001c	8b 5d 0c	 mov	 ebx, DWORD PTR ___off$[ebp]
  0001f	85 db		 test	 ebx, ebx
  00021	8b 7d 10	 mov	 edi, DWORD PTR ___whence$[ebp]
  00024	74 55		 je	 SHORT $L107013
  00026	80 7e 64 00	 cmp	 BYTE PTR [esi+100], 0
  0002a	0f 84 50 02 00
	00		 je	 $L107016
  00030	8b 46 5c	 mov	 eax, DWORD PTR [esi+92]
  00033	c1 e8 02	 shr	 eax, 2
  00036	a8 01		 test	 al, 1
  00038	0f 84 42 02 00
	00		 je	 $L107016
$L106753:

; 292  : 
; 293  :     if (!_M_seek_init(__off != 0 || __whence != ios_base::cur))

  0003e	33 c0		 xor	 eax, eax
  00040	b0 01		 mov	 al, 1
$L106754:
  00042	50		 push	 eax
  00043	8b ce		 mov	 ecx, esi
  00045	e8 00 00 00 00	 call	 ?_M_seek_init@?$basic_filebuf@DV?$char_traits@D@_STL@@@_STL@@AAE_N_N@Z ; _STL::basic_filebuf<char,_STL::char_traits<char> >::_M_seek_init
  0004a	84 c0		 test	 al, al

; 294  :       return pos_type(-1);

  0004c	0f 84 2e 02 00
	00		 je	 $L107016

; 295  : 
; 296  :     // Seek to beginning or end, regardless of whether we're in input mode.
; 297  :     if (__whence == ios_base::beg || __whence == ios_base::end)

  00052	83 ff 01	 cmp	 edi, 1
  00055	0f 84 00 02 00
	00		 je	 $L98831
  0005b	83 ff 04	 cmp	 edi, 4
  0005e	0f 84 f7 01 00
	00		 je	 $L98831

; 300  : 
; 301  :     // Seek relative to current position.  Complicated if we're in input mode.
; 302  :     else if (__whence == ios_base::cur) {

  00064	83 ff 02	 cmp	 edi, 2
  00067	0f 85 13 02 00
	00		 jne	 $L107016

; 303  : 
; 304  :       if (!_M_in_input_mode)

  0006d	80 7e 67 00	 cmp	 BYTE PTR [esi+103], 0
  00071	75 11		 jne	 SHORT $L98835

; 305  :         return _M_seek_return(_M_base._M_seek(_M_width * __off, __whence),
; 306  :                               _State_type());

  00073	6a 00		 push	 0
  00075	57		 push	 edi
  00076	e9 e3 01 00 00	 jmp	 $L107027
$L107013:

; 292  : 
; 293  :     if (!_M_seek_init(__off != 0 || __whence != ios_base::cur))

  0007b	83 ff 02	 cmp	 edi, 2
  0007e	75 be		 jne	 SHORT $L106753
  00080	32 c0		 xor	 al, al
  00082	eb be		 jmp	 SHORT $L106754
$L98835:

; 307  :       else if (_M_mmap_base != 0) {

  00084	8b 86 8c 00 00
	00		 mov	 eax, DWORD PTR [esi+140]
  0008a	85 c0		 test	 eax, eax

; 308  :         // __off is relative to gptr().  We need to do a bit of arithmetic
; 309  :         // to get an offset relative to the external file pointer.
; 310  :         streamoff __adjust = _M_mmap_len - (this->gptr() - (_CharT*) _M_mmap_base);

  0008c	8b 4e 04	 mov	 ecx, DWORD PTR [esi+4]
  0008f	74 18		 je	 SHORT $L98838
  00091	8b be 90 00 00
	00		 mov	 edi, DWORD PTR [esi+144]
  00097	2b 39		 sub	 edi, DWORD PTR [ecx]
  00099	03 f8		 add	 edi, eax
  0009b	eb 5a		 jmp	 SHORT $L107028
$L98850:

; 311  : 
; 312  :         // if __off == 0, we do not need to exit input mode and to shift file pointer
; 313  :         if (__off == 0) {
; 314  :           return pos_type(_M_base._M_seek(0, ios_base::cur) - __adjust);
; 315  :         }
; 316  :         else
; 317  :           return _M_seek_return(_M_base._M_seek(__off - __adjust, ios_base::cur), _State_type());

  0009d	6a 00		 push	 0
  0009f	6a 02		 push	 2
  000a1	2b df		 sub	 ebx, edi
  000a3	53		 push	 ebx
  000a4	e9 c2 01 00 00	 jmp	 $L107022
$L98838:

; 318  :       }
; 319  :       else if (_M_constant_width) { // Get or set the position.  
; 320  : 
; 321  :         streamoff __iadj = _M_width * (this->gptr() - this->eback());

  000a9	8b 01		 mov	 eax, DWORD PTR [ecx]
  000ab	2b 41 08	 sub	 eax, DWORD PTR [ecx+8]
  000ae	80 7e 64 00	 cmp	 BYTE PTR [esi+100], 0

; 322  :         
; 323  :         // Compensate for offset relative to gptr versus offset relative
; 324  :         // to external pointer.  For a text-oriented stream, where the 
; 325  :         // compensation is more than just pointer arithmetic, we may get
; 326  :         // but not set the current position.
; 327  :         
; 328  :         if (__iadj <= _M_ext_buf_end - _M_ext_buf) {

  000b2	8b 56 74	 mov	 edx, DWORD PTR [esi+116]
  000b5	74 5d		 je	 SHORT $L98846
  000b7	0f af 86 a4 00
	00 00		 imul	 eax, DWORD PTR [esi+164]
  000be	8b 8e 80 00 00
	00		 mov	 ecx, DWORD PTR [esi+128]
  000c4	8b f9		 mov	 edi, ecx
  000c6	2b fa		 sub	 edi, edx
  000c8	3b c7		 cmp	 eax, edi
  000ca	0f 8f b0 01 00
	00		 jg	 $L107016

; 329  :           
; 330  :           streamoff __eadj =  _M_base._M_get_offset(_M_ext_buf + __iadj, _M_ext_buf_end);

  000d0	03 c2		 add	 eax, edx
  000d2	f6 46 5c 04	 test	 BYTE PTR [esi+92], 4
  000d6	74 06		 je	 SHORT $L106820
  000d8	2b c8		 sub	 ecx, eax
  000da	8b f9		 mov	 edi, ecx
  000dc	eb 19		 jmp	 SHORT $L107028
$L106820:
  000de	33 d2		 xor	 edx, edx
  000e0	3b c1		 cmp	 eax, ecx
  000e2	8b f8		 mov	 edi, eax
  000e4	74 0b		 je	 SHORT $L106827
$L106825:
  000e6	80 3f 0a	 cmp	 BYTE PTR [edi], 10	; 0000000aH
  000e9	75 01		 jne	 SHORT $L106826
  000eb	42		 inc	 edx
$L106826:
  000ec	47		 inc	 edi
  000ed	3b f9		 cmp	 edi, ecx
  000ef	75 f5		 jne	 SHORT $L106825
$L106827:
  000f1	2b d0		 sub	 edx, eax
  000f3	03 d1		 add	 edx, ecx
  000f5	8b fa		 mov	 edi, edx
$L107028:

; 331  : 
; 332  :           if (__off == 0) {

  000f7	85 db		 test	 ebx, ebx

; 333  :             return pos_type(_M_base._M_seek(0, ios_base::cur) - __eadj);

  000f9	8d 4e 54	 lea	 ecx, DWORD PTR [esi+84]
  000fc	75 9f		 jne	 SHORT $L98850
  000fe	6a 02		 push	 2
  00100	53		 push	 ebx
  00101	e8 00 00 00 00	 call	 ?_M_seek@_Filebuf_base@_STL@@QAEJJH@Z ; _STL::_Filebuf_base::_M_seek
  00106	8b c8		 mov	 ecx, eax
  00108	8b 45 08	 mov	 eax, DWORD PTR ___$ReturnUdt$[ebp]
  0010b	2b cf		 sub	 ecx, edi
  0010d	89 08		 mov	 DWORD PTR [eax], ecx
  0010f	e9 72 01 00 00	 jmp	 $L107021
$L98846:

; 334  :           }  else {
; 335  :             return _M_seek_return(_M_base._M_seek(__off - __eadj, ios_base::cur), _State_type());
; 336  :           }
; 337  :         }
; 338  :         else
; 339  :           return pos_type(-1);
; 340  :       }
; 341  :       else {                    // Get the position.  Encoding is var width.
; 342  :         // Get position in internal buffer.
; 343  :         ptrdiff_t __ipos = this->gptr() - this->eback();
; 344  :         
; 345  :         // Get corresponding position in external buffer.
; 346  :         _State_type __state = _M_state;
; 347  :         int __epos = _M_codecvt->length(__state, _M_ext_buf, _M_ext_buf_end,
; 348  :                                         __ipos);

  00114	8b 8e a0 00 00
	00		 mov	 ecx, DWORD PTR [esi+160]
  0011a	8b f8		 mov	 edi, eax
  0011c	8b 86 84 00 00
	00		 mov	 eax, DWORD PTR [esi+132]
  00122	89 45 ec	 mov	 DWORD PTR ___state$98858[ebp], eax
  00125	8b 86 80 00 00
	00		 mov	 eax, DWORD PTR [esi+128]
  0012b	8b 19		 mov	 ebx, DWORD PTR [ecx]
  0012d	57		 push	 edi
  0012e	50		 push	 eax
  0012f	52		 push	 edx
  00130	8d 45 ec	 lea	 eax, DWORD PTR ___state$98858[ebp]
  00133	50		 push	 eax
  00134	ff 53 18	 call	 DWORD PTR [ebx+24]
  00137	8b d8		 mov	 ebx, eax

; 349  : 
; 350  :         // Sanity check (expensive): make sure __epos is the right answer.
; 351  :         _State_type __tmp_state = _M_state;

  00139	8b 86 84 00 00
	00		 mov	 eax, DWORD PTR [esi+132]

; 352  :         _Filebuf_Tmp_Buf<_CharT> __buf(__ipos);

  0013f	57		 push	 edi
  00140	89 45 e8	 mov	 DWORD PTR ___tmp_state$98860[ebp], eax
  00143	e8 00 00 00 00	 call	 ??_U@YAPAXI@Z		; operator new[]
  00148	8b d0		 mov	 edx, eax
  0014a	59		 pop	 ecx
  0014b	89 55 0c	 mov	 DWORD PTR ___buf$98875[ebp], edx

; 353  :         _CharT* __ibegin = __buf._M_ptr;
; 354  :         _CharT* __inext  = __ibegin;
; 355  : 
; 356  :         const char* __dummy;
; 357  :         typename _Codecvt::result __status
; 358  :           = _M_codecvt->in(__tmp_state,
; 359  :                            _M_ext_buf, _M_ext_buf + __epos, __dummy,
; 360  :                            __ibegin, __ibegin + __ipos, __inext);

  0014e	8b 46 74	 mov	 eax, DWORD PTR [esi+116]
  00151	8b 8e a0 00 00
	00		 mov	 ecx, DWORD PTR [esi+160]
  00157	83 65 fc 00	 and	 DWORD PTR __$EHRec$[ebp+8], 0
  0015b	89 55 f0	 mov	 DWORD PTR ___inext$98877[ebp], edx
  0015e	03 d7		 add	 edx, edi
  00160	8b 39		 mov	 edi, DWORD PTR [ecx]
  00162	89 55 10	 mov	 DWORD PTR tv738[ebp], edx
  00165	8d 55 f0	 lea	 edx, DWORD PTR ___inext$98877[ebp]
  00168	52		 push	 edx
  00169	ff 75 10	 push	 DWORD PTR tv738[ebp]
  0016c	8d 55 e4	 lea	 edx, DWORD PTR ___dummy$98878[ebp]
  0016f	ff 75 0c	 push	 DWORD PTR ___buf$98875[ebp]
  00172	52		 push	 edx
  00173	8d 14 18	 lea	 edx, DWORD PTR [eax+ebx]
  00176	52		 push	 edx
  00177	50		 push	 eax
  00178	8d 45 e8	 lea	 eax, DWORD PTR ___tmp_state$98860[ebp]
  0017b	50		 push	 eax
  0017c	ff 57 08	 call	 DWORD PTR [edi+8]

; 361  :         if (__status != _Codecvt::error &&
; 362  :             (__status == _Codecvt::noconv ||
; 363  :              (__inext == __ibegin + __ipos &&
; 364  :               equal(this->gptr(), this->eback(), __ibegin,
; 365  :                     _Eq_traits<traits_type>())))) {

  0017f	83 f8 02	 cmp	 eax, 2
  00182	0f 84 bc 00 00
	00		 je	 $L107015
  00188	83 f8 03	 cmp	 eax, 3
  0018b	74 2d		 je	 SHORT $L107014
  0018d	8b 45 10	 mov	 eax, DWORD PTR tv738[ebp]
  00190	39 45 f0	 cmp	 DWORD PTR ___inext$98877[ebp], eax
  00193	0f 85 ab 00 00
	00		 jne	 $L107015
  00199	8b 46 04	 mov	 eax, DWORD PTR [esi+4]
  0019c	8b 78 08	 mov	 edi, DWORD PTR [eax+8]
  0019f	8b 00		 mov	 eax, DWORD PTR [eax]
  001a1	3b c7		 cmp	 eax, edi
  001a3	74 15		 je	 SHORT $L107014
  001a5	8b 4d 0c	 mov	 ecx, DWORD PTR ___buf$98875[ebp]
  001a8	2b c8		 sub	 ecx, eax
$L106903:
  001aa	8a 10		 mov	 dl, BYTE PTR [eax]
  001ac	3a 14 01	 cmp	 dl, BYTE PTR [ecx+eax]
  001af	0f 85 8f 00 00
	00		 jne	 $L107015
  001b5	40		 inc	 eax
  001b6	3b c7		 cmp	 eax, edi
  001b8	75 f0		 jne	 SHORT $L106903
$L107014:

; 366  :           // Get the current position (at the end of the external buffer),
; 367  :           // then adjust it.  Again, it might be a text-oriented stream.
; 368  :           streamoff __cur = _M_base._M_seek(0, ios_base::cur);

  001ba	6a 02		 push	 2
  001bc	6a 00		 push	 0
  001be	8d 4e 54	 lea	 ecx, DWORD PTR [esi+84]
  001c1	e8 00 00 00 00	 call	 ?_M_seek@_Filebuf_base@_STL@@QAEJJH@Z ; _STL::_Filebuf_base::_M_seek

; 369  :           streamoff __adj =
; 370  :             _M_base._M_get_offset(_M_ext_buf, _M_ext_buf + __epos) -
; 371  :             _M_base._M_get_offset(_M_ext_buf, _M_ext_buf_end);

  001c6	8b 4e 74	 mov	 ecx, DWORD PTR [esi+116]
  001c9	8b 7e 5c	 mov	 edi, DWORD PTR [esi+92]
  001cc	03 d9		 add	 ebx, ecx
  001ce	83 e7 04	 and	 edi, 4
  001d1	89 45 10	 mov	 DWORD PTR ___cur$98916[ebp], eax
  001d4	74 04		 je	 SHORT $L106932
  001d6	2b d9		 sub	 ebx, ecx
  001d8	eb 19		 jmp	 SHORT $L106933
$L106932:
  001da	33 d2		 xor	 edx, edx
  001dc	3b cb		 cmp	 ecx, ebx
  001de	8b c1		 mov	 eax, ecx
  001e0	74 0b		 je	 SHORT $L106939
$L106937:
  001e2	80 38 0a	 cmp	 BYTE PTR [eax], 10	; 0000000aH
  001e5	75 01		 jne	 SHORT $L106938
  001e7	42		 inc	 edx
$L106938:
  001e8	40		 inc	 eax
  001e9	3b c3		 cmp	 eax, ebx
  001eb	75 f5		 jne	 SHORT $L106937
$L106939:
  001ed	2b d1		 sub	 edx, ecx
  001ef	03 d3		 add	 edx, ebx
  001f1	8b da		 mov	 ebx, edx
$L106933:
  001f3	85 ff		 test	 edi, edi
  001f5	8b 8e 80 00 00
	00		 mov	 ecx, DWORD PTR [esi+128]
  001fb	8b 46 74	 mov	 eax, DWORD PTR [esi+116]
  001fe	74 04		 je	 SHORT $L106959
  00200	2b c8		 sub	 ecx, eax
  00202	eb 19		 jmp	 SHORT $L106960
$L106959:
  00204	33 d2		 xor	 edx, edx
  00206	3b c1		 cmp	 eax, ecx
  00208	8b f8		 mov	 edi, eax
  0020a	74 0b		 je	 SHORT $L106965
$L106963:
  0020c	80 3f 0a	 cmp	 BYTE PTR [edi], 10	; 0000000aH
  0020f	75 01		 jne	 SHORT $L106964
  00211	42		 inc	 edx
$L106964:
  00212	47		 inc	 edi
  00213	3b f9		 cmp	 edi, ecx
  00215	75 f5		 jne	 SHORT $L106963
$L106965:
  00217	2b d0		 sub	 edx, eax
  00219	03 d1		 add	 edx, ecx
  0021b	8b ca		 mov	 ecx, edx
$L106960:

; 372  :           if (__cur != -1 && __cur + __adj >= 0)

  0021d	8b 45 10	 mov	 eax, DWORD PTR ___cur$98916[ebp]
  00220	2b d9		 sub	 ebx, ecx
  00222	83 f8 ff	 cmp	 eax, -1
  00225	74 1d		 je	 SHORT $L107015
  00227	03 c3		 add	 eax, ebx
  00229	78 19		 js	 SHORT $L107015

; 373  :             return _M_seek_return(__cur + __adj, __state);

  0022b	ff 75 ec	 push	 DWORD PTR ___state$98858[ebp]
  0022e	8b ce		 mov	 ecx, esi
  00230	50		 push	 eax
  00231	ff 75 08	 push	 DWORD PTR ___$ReturnUdt$[ebp]
  00234	e8 00 00 00 00	 call	 ?_M_seek_return@?$basic_filebuf@DV?$char_traits@D@_STL@@@_STL@@AAE?AV?$fpos@H@2@JH@Z ; _STL::basic_filebuf<char,_STL::char_traits<char> >::_M_seek_return
  00239	ff 75 0c	 push	 DWORD PTR ___buf$98875[ebp]
  0023c	e8 00 00 00 00	 call	 ??_V@YAXPAX@Z		; operator delete[]
  00241	59		 pop	 ecx
  00242	eb 37		 jmp	 SHORT $L107026
$L107015:

; 374  :           else
; 375  :             return pos_type(-1);
; 376  :         }
; 377  :         else                    // We failed the sanity check.
; 378  :           return pos_type(-1);

  00244	8b 75 08	 mov	 esi, DWORD PTR ___$ReturnUdt$[ebp]
  00247	ff 75 0c	 push	 DWORD PTR ___buf$98875[ebp]
  0024a	83 0e ff	 or	 DWORD PTR [esi], -1
  0024d	83 66 04 00	 and	 DWORD PTR [esi+4], 0
  00251	e8 00 00 00 00	 call	 ??_V@YAXPAX@Z		; operator delete[]
  00256	59		 pop	 ecx
  00257	8b c6		 mov	 eax, esi

; 379  :       }
; 380  :     }
; 381  :     else                        // Unrecognized value for __whence.
; 382  :       return pos_type(-1);

  00259	eb 2f		 jmp	 SHORT $L98926
$L98831:

; 298  :       return _M_seek_return(_M_base._M_seek(_M_width * __off, __whence),
; 299  :                             _State_type());

  0025b	6a 00		 push	 0
  0025d	57		 push	 edi
$L107027:
  0025e	8b 86 a4 00 00
	00		 mov	 eax, DWORD PTR [esi+164]
  00264	0f af c3	 imul	 eax, ebx
  00267	50		 push	 eax
  00268	8d 4e 54	 lea	 ecx, DWORD PTR [esi+84]
$L107022:
  0026b	e8 00 00 00 00	 call	 ?_M_seek@_Filebuf_base@_STL@@QAEJJH@Z ; _STL::_Filebuf_base::_M_seek
  00270	50		 push	 eax
  00271	ff 75 08	 push	 DWORD PTR ___$ReturnUdt$[ebp]
  00274	8b ce		 mov	 ecx, esi
  00276	e8 00 00 00 00	 call	 ?_M_seek_return@?$basic_filebuf@DV?$char_traits@D@_STL@@@_STL@@AAE?AV?$fpos@H@2@JH@Z ; _STL::basic_filebuf<char,_STL::char_traits<char> >::_M_seek_return
$L107026:
  0027b	8b 45 08	 mov	 eax, DWORD PTR ___$ReturnUdt$[ebp]
  0027e	eb 0a		 jmp	 SHORT $L98926
$L107016:

; 383  :   }
; 384  :   else
; 385  :     return pos_type(-1);

  00280	8b 45 08	 mov	 eax, DWORD PTR ___$ReturnUdt$[ebp]
  00283	83 08 ff	 or	 DWORD PTR [eax], -1
$L107021:
  00286	83 60 04 00	 and	 DWORD PTR [eax+4], 0
$L98926:

; 386  : }

  0028a	8b 4d f4	 mov	 ecx, DWORD PTR __$EHRec$[ebp]
  0028d	5f		 pop	 edi
  0028e	5e		 pop	 esi
  0028f	5b		 pop	 ebx
  00290	64 89 0d 00 00
	00 00		 mov	 DWORD PTR fs:__except_list, ecx
  00297	c9		 leave
  00298	c2 10 00	 ret	 16			; 00000010H
_TEXT	ENDS
;	COMDAT text$x
text$x	SEGMENT
$L106756:
  00000	8d 4d 0c	 lea	 ecx, DWORD PTR ___buf$98875[ebp]
  00003	e9 00 00 00 00	 jmp	 ??1?$_Filebuf_Tmp_Buf@D@_STL@@QAE@XZ ; _STL::_Filebuf_Tmp_Buf<char>::~_Filebuf_Tmp_Buf<char>
__ehhandler$?seekoff@?$basic_filebuf@DV?$char_traits@D@_STL@@@_STL@@MAE?AV?$fpos@H@2@JHH@Z:
  00008	b8 00 00 00 00	 mov	 eax, OFFSET FLAT:$T107003
  0000d	e9 00 00 00 00	 jmp	 ___CxxFrameHandler
text$x	ENDS
?seekoff@?$basic_filebuf@DV?$char_traits@D@_STL@@@_STL@@MAE?AV?$fpos@H@2@JHH@Z ENDP ; _STL::basic_filebuf<char,_STL::char_traits<char> >::seekoff
; Function compile flags: /Ogsy
; File c:\stlport-4.6.1\stlport\stl\_fstream.h
;	COMDAT ??1?$_Filebuf_Tmp_Buf@D@_STL@@QAE@XZ
_TEXT	SEGMENT
??1?$_Filebuf_Tmp_Buf@D@_STL@@QAE@XZ PROC NEAR		; _STL::_Filebuf_Tmp_Buf<char>::~_Filebuf_Tmp_Buf<char>, COMDAT
; _this$ = ecx

; 374  :   ~_Filebuf_Tmp_Buf() { delete[] _M_ptr; }

  00000	ff 31		 push	 DWORD PTR [ecx]
  00002	e8 00 00 00 00	 call	 ??_V@YAXPAX@Z		; operator delete[]
  00007	59		 pop	 ecx
  00008	c3		 ret	 0
??1?$_Filebuf_Tmp_Buf@D@_STL@@QAE@XZ ENDP		; _STL::_Filebuf_Tmp_Buf<char>::~_Filebuf_Tmp_Buf<char>
; Function compile flags: /Ogsy
_TEXT	ENDS
;	COMDAT ?_M_seek_return@?$basic_filebuf@DV?$char_traits@D@_STL@@@_STL@@AAE?AV?$fpos@H@2@JH@Z
_TEXT	SEGMENT
___$ReturnUdt$ = 8					; size = 4
___off$ = 12						; size = 4
___state$ = 16						; size = 4
?_M_seek_return@?$basic_filebuf@DV?$char_traits@D@_STL@@@_STL@@AAE?AV?$fpos@H@2@JH@Z PROC NEAR ; _STL::basic_filebuf<char,_STL::char_traits<char> >::_M_seek_return, COMDAT
; _this$ = ecx

; 265  :   pos_type _M_seek_return(off_type __off, _State_type __state) {

  00000	56		 push	 esi
  00001	57		 push	 edi

; 266  :     if (__off != -1) {

  00002	8b 7c 24 10	 mov	 edi, DWORD PTR ___off$[esp+4]
  00006	83 ff ff	 cmp	 edi, -1
  00009	8b f1		 mov	 esi, ecx
  0000b	74 30		 je	 SHORT $L107057
  0000d	53		 push	 ebx

; 267  :       if (_M_in_input_mode)

  0000e	33 db		 xor	 ebx, ebx
  00010	38 5e 67	 cmp	 BYTE PTR [esi+103], bl
  00013	74 05		 je	 SHORT $L102218

; 268  :         _M_exit_input_mode();

  00015	e8 00 00 00 00	 call	 ?_M_exit_input_mode@?$basic_filebuf@DV?$char_traits@D@_STL@@@_STL@@AAEXXZ ; _STL::basic_filebuf<char,_STL::char_traits<char> >::_M_exit_input_mode
$L102218:

; 269  :       _M_in_input_mode = false;
; 270  :       _M_in_output_mode = false;
; 271  :       _M_in_putback_mode = false;
; 272  :       _M_in_error_mode = false;
; 273  :       this->setg(0, 0, 0);

  0001a	8b 46 04	 mov	 eax, DWORD PTR [esi+4]
  0001d	88 5e 67	 mov	 BYTE PTR [esi+103], bl
  00020	88 5e 68	 mov	 BYTE PTR [esi+104], bl
  00023	88 5e 6a	 mov	 BYTE PTR [esi+106], bl
  00026	88 5e 69	 mov	 BYTE PTR [esi+105], bl
  00029	89 58 08	 mov	 DWORD PTR [eax+8], ebx
  0002c	89 18		 mov	 DWORD PTR [eax], ebx
  0002e	89 58 04	 mov	 DWORD PTR [eax+4], ebx

; 274  :       this->setp(0, 0);

  00031	8b 76 08	 mov	 esi, DWORD PTR [esi+8]
  00034	89 5e 08	 mov	 DWORD PTR [esi+8], ebx
  00037	89 1e		 mov	 DWORD PTR [esi], ebx
  00039	89 5e 04	 mov	 DWORD PTR [esi+4], ebx
  0003c	5b		 pop	 ebx
$L107057:

; 275  :     }
; 276  :     
; 277  :     pos_type __result(__off);
; 278  :     __result.state(__state);
; 279  :     return __result;

  0003d	8b 44 24 0c	 mov	 eax, DWORD PTR ___$ReturnUdt$[esp+4]
  00041	8b 4c 24 14	 mov	 ecx, DWORD PTR ___state$[esp+4]
  00045	89 38		 mov	 DWORD PTR [eax], edi
  00047	5f		 pop	 edi
  00048	89 48 04	 mov	 DWORD PTR [eax+4], ecx
  0004b	5e		 pop	 esi

; 280  :   }

  0004c	c2 0c 00	 ret	 12			; 0000000cH
?_M_seek_return@?$basic_filebuf@DV?$char_traits@D@_STL@@@_STL@@AAE?AV?$fpos@H@2@JH@Z ENDP ; _STL::basic_filebuf<char,_STL::char_traits<char> >::_M_seek_return
_TEXT	ENDS
PUBLIC	?_M_exit_putback_mode@?$basic_filebuf@DV?$char_traits@D@_STL@@@_STL@@AAEXXZ ; _STL::basic_filebuf<char,_STL::char_traits<char> >::_M_exit_putback_mode
; Function compile flags: /Ogsy
; File c:\stlport-4.6.1\stlport\stl\_fstream.c
;	COMDAT ?_M_seek_init@?$basic_filebuf@DV?$char_traits@D@_STL@@@_STL@@AAE_N_N@Z
_TEXT	SEGMENT
___do_unshift$ = 8					; size = 1
?_M_seek_init@?$basic_filebuf@DV?$char_traits@D@_STL@@@_STL@@AAE_N_N@Z PROC NEAR ; _STL::basic_filebuf<char,_STL::char_traits<char> >::_M_seek_init, COMDAT
; _this$ = ecx

; 699  : bool basic_filebuf<_CharT, _Traits>::_M_seek_init(bool __do_unshift) {

  00000	53		 push	 ebx
  00001	56		 push	 esi
  00002	8b f1		 mov	 esi, ecx

; 700  :   // If we're in error mode, leave it.
; 701  :    _M_in_error_mode = false;

  00004	33 db		 xor	 ebx, ebx

; 702  :    
; 703  :   // Flush the output buffer if we're in output mode, and (conditionally)
; 704  :   // emit an unshift sequence.
; 705  :   if (_M_in_output_mode) {

  00006	38 5e 68	 cmp	 BYTE PTR [esi+104], bl
  00009	88 5e 69	 mov	 BYTE PTR [esi+105], bl
  0000c	74 3e		 je	 SHORT $L102702

; 706  :     bool __ok = !traits_type::eq_int_type(this->overflow(traits_type::eof()),
; 707  :                                           traits_type::eof());

  0000e	8b 06		 mov	 eax, DWORD PTR [esi]
  00010	6a ff		 push	 -1
  00012	ff 50 30	 call	 DWORD PTR [eax+48]
  00015	83 f8 ff	 cmp	 eax, -1
  00018	0f 95 c0	 setne	 al

; 708  :     if (__do_unshift)

  0001b	38 5c 24 0c	 cmp	 BYTE PTR ___do_unshift$[esp+4], bl
  0001f	74 11		 je	 SHORT $L107075

; 709  :       __ok = __ok && this->_M_unshift();

  00021	3a c3		 cmp	 al, bl
  00023	74 0b		 je	 SHORT $L107074
  00025	8b ce		 mov	 ecx, esi
  00027	e8 00 00 00 00	 call	 ?_M_unshift@?$basic_filebuf@DV?$char_traits@D@_STL@@@_STL@@AAE_NXZ ; _STL::basic_filebuf<char,_STL::char_traits<char> >::_M_unshift
  0002c	84 c0		 test	 al, al
  0002e	75 1c		 jne	 SHORT $L102702
$L107074:
  00030	32 c0		 xor	 al, al
$L107075:

; 710  :     if (!__ok) {

  00032	3a c3		 cmp	 al, bl
  00034	75 16		 jne	 SHORT $L102702

; 711  :       _M_in_output_mode = false;

  00036	88 5e 68	 mov	 BYTE PTR [esi+104], bl

; 712  :       _M_in_error_mode = true;

  00039	c6 46 69 01	 mov	 BYTE PTR [esi+105], 1

; 713  :       this->setp(0, 0);

  0003d	8b 76 08	 mov	 esi, DWORD PTR [esi+8]
  00040	89 5e 08	 mov	 DWORD PTR [esi+8], ebx
  00043	89 1e		 mov	 DWORD PTR [esi], ebx
  00045	89 5e 04	 mov	 DWORD PTR [esi+4], ebx

; 714  :       return false;

  00048	32 c0		 xor	 al, al
  0004a	eb 13		 jmp	 SHORT $L102696
$L102702:

; 715  :     }
; 716  :   }
; 717  : 
; 718  :   // Discard putback characters, if any.
; 719  :   if (_M_in_input_mode && _M_in_putback_mode)

  0004c	38 5e 67	 cmp	 BYTE PTR [esi+103], bl
  0004f	74 0c		 je	 SHORT $L102703
  00051	38 5e 6a	 cmp	 BYTE PTR [esi+106], bl
  00054	74 07		 je	 SHORT $L102703

; 720  :     _M_exit_putback_mode();

  00056	8b ce		 mov	 ecx, esi
  00058	e8 00 00 00 00	 call	 ?_M_exit_putback_mode@?$basic_filebuf@DV?$char_traits@D@_STL@@@_STL@@AAEXXZ ; _STL::basic_filebuf<char,_STL::char_traits<char> >::_M_exit_putback_mode
$L102703:

; 721  : 
; 722  :   return true;

  0005d	b0 01		 mov	 al, 1
$L102696:
  0005f	5e		 pop	 esi
  00060	5b		 pop	 ebx

; 723  : }

  00061	c2 04 00	 ret	 4
?_M_seek_init@?$basic_filebuf@DV?$char_traits@D@_STL@@@_STL@@AAE_N_N@Z ENDP ; _STL::basic_filebuf<char,_STL::char_traits<char> >::_M_seek_init
; Function compile flags: /Ogsy
; File c:\stlport-4.6.1\stlport\stl\_fstream.h
_TEXT	ENDS
;	COMDAT ?_M_exit_putback_mode@?$basic_filebuf@DV?$char_traits@D@_STL@@@_STL@@AAEXXZ
_TEXT	SEGMENT
?_M_exit_putback_mode@?$basic_filebuf@DV?$char_traits@D@_STL@@@_STL@@AAEXXZ PROC NEAR ; _STL::basic_filebuf<char,_STL::char_traits<char> >::_M_exit_putback_mode, COMDAT
; _this$ = ecx

; 245  :     this->setg(_M_saved_eback, _M_saved_gptr, _M_saved_egptr);

  00000	8b 81 9c 00 00
	00		 mov	 eax, DWORD PTR [ecx+156]
  00006	8b 51 04	 mov	 edx, DWORD PTR [ecx+4]
  00009	56		 push	 esi
  0000a	8b b1 98 00 00
	00		 mov	 esi, DWORD PTR [ecx+152]
  00010	57		 push	 edi
  00011	8b b9 94 00 00
	00		 mov	 edi, DWORD PTR [ecx+148]
  00017	89 7a 08	 mov	 DWORD PTR [edx+8], edi
  0001a	2b c6		 sub	 eax, esi
  0001c	89 32		 mov	 DWORD PTR [edx], esi
  0001e	5f		 pop	 edi
  0001f	89 42 04	 mov	 DWORD PTR [edx+4], eax

; 246  :     _M_in_putback_mode = false;

  00022	c6 41 6a 00	 mov	 BYTE PTR [ecx+106], 0
  00026	5e		 pop	 esi

; 247  :   }

  00027	c3		 ret	 0
?_M_exit_putback_mode@?$basic_filebuf@DV?$char_traits@D@_STL@@@_STL@@AAEXXZ ENDP ; _STL::basic_filebuf<char,_STL::char_traits<char> >::_M_exit_putback_mode
; Function compile flags: /Ogsy
; File c:\stlport-4.6.1\stlport\stl\_fstream.c
_TEXT	ENDS
;	COMDAT ?seekpos@?$basic_filebuf@DV?$char_traits@D@_STL@@@_STL@@MAE?AV?$fpos@H@2@V32@H@Z
_TEXT	SEGMENT
___$ReturnUdt$ = 8					; size = 4
___pos$ = 12						; size = 8
___formal$ = 20						; size = 4
?seekpos@?$basic_filebuf@DV?$char_traits@D@_STL@@@_STL@@MAE?AV?$fpos@H@2@V32@H@Z PROC NEAR ; _STL::basic_filebuf<char,_STL::char_traits<char> >::seekpos, COMDAT
; _this$ = ecx

; 393  : {

  00000	55		 push	 ebp
  00001	8b ec		 mov	 ebp, esp
  00003	56		 push	 esi
  00004	8b f1		 mov	 esi, ecx

; 394  :   if (this->is_open()) {

  00006	80 7e 60 00	 cmp	 BYTE PTR [esi+96], 0
  0000a	74 3f		 je	 SHORT $L98936

; 395  :     if (!_M_seek_init(true))

  0000c	6a 01		 push	 1
  0000e	e8 00 00 00 00	 call	 ?_M_seek_init@?$basic_filebuf@DV?$char_traits@D@_STL@@@_STL@@AAE_N_N@Z ; _STL::basic_filebuf<char,_STL::char_traits<char> >::_M_seek_init
  00013	84 c0		 test	 al, al

; 396  :       return pos_type(-1);

  00015	74 34		 je	 SHORT $L98936

; 397  : 
; 398  :     streamoff __off = off_type(__pos);
; 399  :     if (__off != -1 && _M_base._M_seek(__off, ios_base::beg) != -1) {

  00017	83 7d 0c ff	 cmp	 DWORD PTR ___pos$[ebp], -1
  0001b	74 2e		 je	 SHORT $L98936
  0001d	6a 01		 push	 1
  0001f	ff 75 0c	 push	 DWORD PTR ___pos$[ebp]
  00022	8d 4e 54	 lea	 ecx, DWORD PTR [esi+84]
  00025	e8 00 00 00 00	 call	 ?_M_seek@_Filebuf_base@_STL@@QAEJJH@Z ; _STL::_Filebuf_base::_M_seek
  0002a	83 f8 ff	 cmp	 eax, -1
  0002d	74 1c		 je	 SHORT $L98936

; 400  :       _M_state = __pos.state();

  0002f	8b 45 10	 mov	 eax, DWORD PTR ___pos$[ebp+4]

; 401  :       return _M_seek_return(__off, __pos.state());

  00032	50		 push	 eax
  00033	ff 75 0c	 push	 DWORD PTR ___pos$[ebp]
  00036	8b ce		 mov	 ecx, esi
  00038	ff 75 08	 push	 DWORD PTR ___$ReturnUdt$[ebp]
  0003b	89 86 84 00 00
	00		 mov	 DWORD PTR [esi+132], eax
  00041	e8 00 00 00 00	 call	 ?_M_seek_return@?$basic_filebuf@DV?$char_traits@D@_STL@@@_STL@@AAE?AV?$fpos@H@2@JH@Z ; _STL::basic_filebuf<char,_STL::char_traits<char> >::_M_seek_return
  00046	8b 45 08	 mov	 eax, DWORD PTR ___$ReturnUdt$[ebp]
  00049	eb 0a		 jmp	 SHORT $L98944
$L98936:

; 402  :     }
; 403  :     else
; 404  :       return pos_type(-1);
; 405  :   }
; 406  :   else
; 407  :     return pos_type(-1);

  0004b	8b 45 08	 mov	 eax, DWORD PTR ___$ReturnUdt$[ebp]
  0004e	83 08 ff	 or	 DWORD PTR [eax], -1
  00051	83 60 04 00	 and	 DWORD PTR [eax+4], 0
$L98944:
  00055	5e		 pop	 esi

; 408  : }

  00056	5d		 pop	 ebp
  00057	c2 10 00	 ret	 16			; 00000010H
?seekpos@?$basic_filebuf@DV?$char_traits@D@_STL@@@_STL@@MAE?AV?$fpos@H@2@V32@H@Z ENDP ; _STL::basic_filebuf<char,_STL::char_traits<char> >::seekpos
; Function compile flags: /Ogsy
_TEXT	ENDS
;	COMDAT ??_G?$basic_filebuf@DV?$char_traits@D@_STL@@@_STL@@UAEPAXI@Z
_TEXT	SEGMENT
___flags$ = 8						; size = 4
??_G?$basic_filebuf@DV?$char_traits@D@_STL@@@_STL@@UAEPAXI@Z PROC NEAR ; _STL::basic_filebuf<char,_STL::char_traits<char> >::`scalar deleting destructor', COMDAT
; _this$ = ecx
  00000	56		 push	 esi
  00001	8b f1		 mov	 esi, ecx
  00003	e8 00 00 00 00	 call	 ??1?$basic_filebuf@DV?$char_traits@D@_STL@@@_STL@@UAE@XZ ; _STL::basic_filebuf<char,_STL::char_traits<char> >::~basic_filebuf<char,_STL::char_traits<char> >
  00008	f6 44 24 08 01	 test	 BYTE PTR ___flags$[esp], 1
  0000d	74 07		 je	 SHORT $L99020
  0000f	56		 push	 esi
  00010	e8 00 00 00 00	 call	 ??3@YAXPAX@Z		; operator delete
  00015	59		 pop	 ecx
$L99020:
  00016	8b c6		 mov	 eax, esi
  00018	5e		 pop	 esi
  00019	c2 04 00	 ret	 4
??_G?$basic_filebuf@DV?$char_traits@D@_STL@@@_STL@@UAEPAXI@Z ENDP ; _STL::basic_filebuf<char,_STL::char_traits<char> >::`scalar deleting destructor'
_TEXT	ENDS
PUBLIC	?IsSet@CRarFile@@QAE_NXZ			; CRarFile::IsSet
; Function compile flags: /Ogsy
; File c:\darkeden\designed_common\project\client\rarlib\rarfile.h
;	COMDAT ?IsSet@CRarFile@@QAE_NXZ
_TEXT	SEGMENT
?IsSet@CRarFile@@QAE_NXZ PROC NEAR			; CRarFile::IsSet, COMDAT
; _this$ = ecx

; 99   : 	bool	IsSet()	{ return (m_rar_filename !=""); }

  00000	68 00 00 00 00	 push	 OFFSET FLAT:??_C@_00CNPNBAHC@?$AA@
  00005	51		 push	 ecx
  00006	e8 00 00 00 00	 call	 ??$?8DV?$char_traits@D@_STL@@V?$allocator@D@1@@_STL@@YA_NABV?$basic_string@DV?$char_traits@D@_STL@@V?$allocator@D@2@@0@PBD@Z ; _STL::operator==<char,_STL::char_traits<char>,_STL::allocator<char> >
  0000b	f6 d8		 neg	 al
  0000d	59		 pop	 ecx
  0000e	59		 pop	 ecx
  0000f	1b c0		 sbb	 eax, eax
  00011	40		 inc	 eax
  00012	c3		 ret	 0
?IsSet@CRarFile@@QAE_NXZ ENDP				; CRarFile::IsSet
_TEXT	ENDS
PUBLIC	??0?$vector@VMHelpMessage@@V?$allocator@VMHelpMessage@@@_STL@@@_STL@@QAE@ABV?$allocator@VMHelpMessage@@@1@@Z ; _STL::vector<MHelpMessage,_STL::allocator<MHelpMessage> >::vector<MHelpMessage,_STL::allocator<MHelpMessage> >
; Function compile flags: /Ogsy
; File c:\stlport-4.6.1\stlport\stl\_vector.h
;	COMDAT ??0?$vector@VMHelpMessage@@V?$allocator@VMHelpMessage@@@_STL@@@_STL@@QAE@ABV?$allocator@VMHelpMessage@@@1@@Z
_TEXT	SEGMENT
___a$ = 8						; size = 4
??0?$vector@VMHelpMessage@@V?$allocator@VMHelpMessage@@@_STL@@@_STL@@QAE@ABV?$allocator@VMHelpMessage@@@1@@Z PROC NEAR ; _STL::vector<MHelpMessage,_STL::allocator<MHelpMessage> >::vector<MHelpMessage,_STL::allocator<MHelpMessage> >, COMDAT
; _this$ = ecx

; 199  :     _Vector_base<_Tp, _Alloc>(__a) {}

  00000	56		 push	 esi
  00001	ff 74 24 08	 push	 DWORD PTR ___a$[esp]
  00005	8b f1		 mov	 esi, ecx
  00007	e8 00 00 00 00	 call	 ??0?$_Vector_base@VMHelpMessage@@V?$allocator@VMHelpMessage@@@_STL@@@_STL@@QAE@ABV?$allocator@VMHelpMessage@@@1@@Z ; _STL::_Vector_base<MHelpMessage,_STL::allocator<MHelpMessage> >::_Vector_base<MHelpMessage,_STL::allocator<MHelpMessage> >
  0000c	8b c6		 mov	 eax, esi
  0000e	5e		 pop	 esi
  0000f	c2 04 00	 ret	 4
??0?$vector@VMHelpMessage@@V?$allocator@VMHelpMessage@@@_STL@@@_STL@@QAE@ABV?$allocator@VMHelpMessage@@@1@@Z ENDP ; _STL::vector<MHelpMessage,_STL::allocator<MHelpMessage> >::vector<MHelpMessage,_STL::allocator<MHelpMessage> >
_TEXT	ENDS
PUBLIC	??1?$vector@VMHelpMessage@@V?$allocator@VMHelpMessage@@@_STL@@@_STL@@QAE@XZ ; _STL::vector<MHelpMessage,_STL::allocator<MHelpMessage> >::~vector<MHelpMessage,_STL::allocator<MHelpMessage> >
;	COMDAT xdata$x
xdata$x	SEGMENT
$T107179 DD	0ffffffffH
	DD	FLAT:$L107175
$T107177 DD	019930520H
	DD	01H
	DD	FLAT:$T107179
	DD	2 DUP(00H)
	DD	2 DUP(00H)
; Function compile flags: /Ogsy
xdata$x	ENDS
;	COMDAT ??1?$vector@VMHelpMessage@@V?$allocator@VMHelpMessage@@@_STL@@@_STL@@QAE@XZ
_TEXT	SEGMENT
_this$ = -16						; size = 4
__$EHRec$ = -12						; size = 12
??1?$vector@VMHelpMessage@@V?$allocator@VMHelpMessage@@@_STL@@@_STL@@QAE@XZ PROC NEAR ; _STL::vector<MHelpMessage,_STL::allocator<MHelpMessage> >::~vector<MHelpMessage,_STL::allocator<MHelpMessage> >, COMDAT
; _this$ = ecx

; 258  :   ~vector() { _Destroy(this->_M_start, this->_M_finish); }

  00000	b8 00 00 00 00	 mov	 eax, __ehhandler$??1?$vector@VMHelpMessage@@V?$allocator@VMHelpMessage@@@_STL@@@_STL@@QAE@XZ
  00005	e8 00 00 00 00	 call	 __EH_prolog
  0000a	51		 push	 ecx
  0000b	56		 push	 esi
  0000c	8b f1		 mov	 esi, ecx
  0000e	89 75 f0	 mov	 DWORD PTR _this$[ebp], esi
  00011	ff 76 04	 push	 DWORD PTR [esi+4]
  00014	83 65 fc 00	 and	 DWORD PTR __$EHRec$[ebp+8], 0
  00018	ff 36		 push	 DWORD PTR [esi]
  0001a	e8 00 00 00 00	 call	 ??$_Destroy@PAVMHelpMessage@@@_STL@@YAXPAVMHelpMessage@@0@Z ; _STL::_Destroy<MHelpMessage *>
  0001f	83 4d fc ff	 or	 DWORD PTR __$EHRec$[ebp+8], -1
  00023	59		 pop	 ecx
  00024	59		 pop	 ecx
  00025	8b ce		 mov	 ecx, esi
  00027	e8 00 00 00 00	 call	 ??1?$_Vector_base@VMHelpMessage@@V?$allocator@VMHelpMessage@@@_STL@@@_STL@@QAE@XZ ; _STL::_Vector_base<MHelpMessage,_STL::allocator<MHelpMessage> >::~_Vector_base<MHelpMessage,_STL::allocator<MHelpMessage> >
  0002c	8b 4d f4	 mov	 ecx, DWORD PTR __$EHRec$[ebp]
  0002f	5e		 pop	 esi
  00030	64 89 0d 00 00
	00 00		 mov	 DWORD PTR fs:__except_list, ecx
  00037	c9		 leave
  00038	c3		 ret	 0
_TEXT	ENDS
;	COMDAT text$x
text$x	SEGMENT
$L107175:
  00000	8b 4d f0	 mov	 ecx, DWORD PTR _this$[ebp]
  00003	e9 00 00 00 00	 jmp	 ??1?$_Vector_base@VMHelpMessage@@V?$allocator@VMHelpMessage@@@_STL@@@_STL@@QAE@XZ ; _STL::_Vector_base<MHelpMessage,_STL::allocator<MHelpMessage> >::~_Vector_base<MHelpMessage,_STL::allocator<MHelpMessage> >
__ehhandler$??1?$vector@VMHelpMessage@@V?$allocator@VMHelpMessage@@@_STL@@@_STL@@QAE@XZ:
  00008	b8 00 00 00 00	 mov	 eax, OFFSET FLAT:$T107177
  0000d	e9 00 00 00 00	 jmp	 ___CxxFrameHandler
text$x	ENDS
??1?$vector@VMHelpMessage@@V?$allocator@VMHelpMessage@@@_STL@@@_STL@@QAE@XZ ENDP ; _STL::vector<MHelpMessage,_STL::allocator<MHelpMessage> >::~vector<MHelpMessage,_STL::allocator<MHelpMessage> >
PUBLIC	??0?$vector@VMString@@V?$allocator@VMString@@@_STL@@@_STL@@QAE@ABV?$allocator@VMString@@@1@@Z ; _STL::vector<MString,_STL::allocator<MString> >::vector<MString,_STL::allocator<MString> >
; Function compile flags: /Ogsy
;	COMDAT ??0?$vector@VMString@@V?$allocator@VMString@@@_STL@@@_STL@@QAE@ABV?$allocator@VMString@@@1@@Z
_TEXT	SEGMENT
___a$ = 8						; size = 4
??0?$vector@VMString@@V?$allocator@VMString@@@_STL@@@_STL@@QAE@ABV?$allocator@VMString@@@1@@Z PROC NEAR ; _STL::vector<MString,_STL::allocator<MString> >::vector<MString,_STL::allocator<MString> >, COMDAT
; _this$ = ecx

; 199  :     _Vector_base<_Tp, _Alloc>(__a) {}

  00000	56		 push	 esi
  00001	ff 74 24 08	 push	 DWORD PTR ___a$[esp]
  00005	8b f1		 mov	 esi, ecx
  00007	e8 00 00 00 00	 call	 ??0?$_Vector_base@VMString@@V?$allocator@VMString@@@_STL@@@_STL@@QAE@ABV?$allocator@VMString@@@1@@Z ; _STL::_Vector_base<MString,_STL::allocator<MString> >::_Vector_base<MString,_STL::allocator<MString> >
  0000c	8b c6		 mov	 eax, esi
  0000e	5e		 pop	 esi
  0000f	c2 04 00	 ret	 4
??0?$vector@VMString@@V?$allocator@VMString@@@_STL@@@_STL@@QAE@ABV?$allocator@VMString@@@1@@Z ENDP ; _STL::vector<MString,_STL::allocator<MString> >::vector<MString,_STL::allocator<MString> >
_TEXT	ENDS
PUBLIC	??1?$vector@VMString@@V?$allocator@VMString@@@_STL@@@_STL@@QAE@XZ ; _STL::vector<MString,_STL::allocator<MString> >::~vector<MString,_STL::allocator<MString> >
;	COMDAT xdata$x
xdata$x	SEGMENT
$T107192 DD	0ffffffffH
	DD	FLAT:$L107188
$T107190 DD	019930520H
	DD	01H
	DD	FLAT:$T107192
	DD	2 DUP(00H)
	DD	2 DUP(00H)
; Function compile flags: /Ogsy
xdata$x	ENDS
;	COMDAT ??1?$vector@VMString@@V?$allocator@VMString@@@_STL@@@_STL@@QAE@XZ
_TEXT	SEGMENT
_this$ = -16						; size = 4
__$EHRec$ = -12						; size = 12
??1?$vector@VMString@@V?$allocator@VMString@@@_STL@@@_STL@@QAE@XZ PROC NEAR ; _STL::vector<MString,_STL::allocator<MString> >::~vector<MString,_STL::allocator<MString> >, COMDAT
; _this$ = ecx

; 258  :   ~vector() { _Destroy(this->_M_start, this->_M_finish); }

  00000	b8 00 00 00 00	 mov	 eax, __ehhandler$??1?$vector@VMString@@V?$allocator@VMString@@@_STL@@@_STL@@QAE@XZ
  00005	e8 00 00 00 00	 call	 __EH_prolog
  0000a	51		 push	 ecx
  0000b	56		 push	 esi
  0000c	8b f1		 mov	 esi, ecx
  0000e	89 75 f0	 mov	 DWORD PTR _this$[ebp], esi
  00011	ff 76 04	 push	 DWORD PTR [esi+4]
  00014	83 65 fc 00	 and	 DWORD PTR __$EHRec$[ebp+8], 0
  00018	ff 36		 push	 DWORD PTR [esi]
  0001a	e8 00 00 00 00	 call	 ??$_Destroy@PAVMString@@@_STL@@YAXPAVMString@@0@Z ; _STL::_Destroy<MString *>
  0001f	83 4d fc ff	 or	 DWORD PTR __$EHRec$[ebp+8], -1
  00023	59		 pop	 ecx
  00024	59		 pop	 ecx
  00025	8b ce		 mov	 ecx, esi
  00027	e8 00 00 00 00	 call	 ??1?$_Vector_base@VMString@@V?$allocator@VMString@@@_STL@@@_STL@@QAE@XZ ; _STL::_Vector_base<MString,_STL::allocator<MString> >::~_Vector_base<MString,_STL::allocator<MString> >
  0002c	8b 4d f4	 mov	 ecx, DWORD PTR __$EHRec$[ebp]
  0002f	5e		 pop	 esi
  00030	64 89 0d 00 00
	00 00		 mov	 DWORD PTR fs:__except_list, ecx
  00037	c9		 leave
  00038	c3		 ret	 0
_TEXT	ENDS
;	COMDAT text$x
text$x	SEGMENT
$L107188:
  00000	8b 4d f0	 mov	 ecx, DWORD PTR _this$[ebp]
  00003	e9 00 00 00 00	 jmp	 ??1?$_Vector_base@VMString@@V?$allocator@VMString@@@_STL@@@_STL@@QAE@XZ ; _STL::_Vector_base<MString,_STL::allocator<MString> >::~_Vector_base<MString,_STL::allocator<MString> >
__ehhandler$??1?$vector@VMString@@V?$allocator@VMString@@@_STL@@@_STL@@QAE@XZ:
  00008	b8 00 00 00 00	 mov	 eax, OFFSET FLAT:$T107190
  0000d	e9 00 00 00 00	 jmp	 ___CxxFrameHandler
text$x	ENDS
??1?$vector@VMString@@V?$allocator@VMString@@@_STL@@@_STL@@QAE@XZ ENDP ; _STL::vector<MString,_STL::allocator<MString> >::~vector<MString,_STL::allocator<MString> >
PUBLIC	??_R4?$basic_ofstream@DV?$char_traits@D@_STL@@@_STL@@6B@ ; _STL::basic_ofstream<char,_STL::char_traits<char> >::`RTTI Complete Object Locator'
PUBLIC	??_R0?AV?$basic_ofstream@DV?$char_traits@D@_STL@@@_STL@@@8 ; _STL::basic_ofstream<char,_STL::char_traits<char> > `RTTI Type Descriptor'
PUBLIC	??_R3?$basic_ofstream@DV?$char_traits@D@_STL@@@_STL@@8 ; _STL::basic_ofstream<char,_STL::char_traits<char> >::`RTTI Class Hierarchy Descriptor'
PUBLIC	??_R2?$basic_ofstream@DV?$char_traits@D@_STL@@@_STL@@8 ; _STL::basic_ofstream<char,_STL::char_traits<char> >::`RTTI Base Class Array'
PUBLIC	??_R1A@?0A@A@?$basic_ofstream@DV?$char_traits@D@_STL@@@_STL@@8 ; _STL::basic_ofstream<char,_STL::char_traits<char> >::`RTTI Base Class Descriptor at (0,-1,0,0)'
PUBLIC	??1?$basic_ofstream@DV?$char_traits@D@_STL@@@_STL@@UAE@XZ ; _STL::basic_ofstream<char,_STL::char_traits<char> >::~basic_ofstream<char,_STL::char_traits<char> >
PUBLIC	??_7?$basic_ofstream@DV?$char_traits@D@_STL@@@_STL@@6B@ ; _STL::basic_ofstream<char,_STL::char_traits<char> >::`vftable'
PUBLIC	??_G?$basic_ofstream@DV?$char_traits@D@_STL@@@_STL@@UAEPAXI@Z ; _STL::basic_ofstream<char,_STL::char_traits<char> >::`scalar deleting destructor'
EXTRN	??_E?$basic_ofstream@DV?$char_traits@D@_STL@@@_STL@@UAEPAXI@Z:NEAR ; _STL::basic_ofstream<char,_STL::char_traits<char> >::`vector deleting destructor'
;	COMDAT xdata$x
; File c:\stlport-4.6.1\stlport\stl\_ostream.c
xdata$x	SEGMENT
$T107206 DD	0ffffffffH
	DD	FLAT:$L107197
$T107204 DD	019930520H
	DD	01H
	DD	FLAT:$T107206
	DD	2 DUP(00H)
	DD	2 DUP(00H)
xdata$x	ENDS
;	COMDAT ??_7?$basic_ofstream@DV?$char_traits@D@_STL@@@_STL@@6B@
CONST	SEGMENT
??_7?$basic_ofstream@DV?$char_traits@D@_STL@@@_STL@@6B@ DD FLAT:??_R4?$basic_ofstream@DV?$char_traits@D@_STL@@@_STL@@6B@ ; _STL::basic_ofstream<char,_STL::char_traits<char> >::`vftable'
	DD	FLAT:??_E?$basic_ofstream@DV?$char_traits@D@_STL@@@_STL@@UAEPAXI@Z
CONST	ENDS
;	COMDAT ??_R4?$basic_ofstream@DV?$char_traits@D@_STL@@@_STL@@6B@
rdata$r	SEGMENT
??_R4?$basic_ofstream@DV?$char_traits@D@_STL@@@_STL@@6B@ DD 00H ; _STL::basic_ofstream<char,_STL::char_traits<char> >::`RTTI Complete Object Locator'
	DD	0b8H
	DD	00H
	DD	FLAT:??_R0?AV?$basic_ofstream@DV?$char_traits@D@_STL@@@_STL@@@8
	DD	FLAT:??_R3?$basic_ofstream@DV?$char_traits@D@_STL@@@_STL@@8
rdata$r	ENDS
;	COMDAT ??_R0?AV?$basic_ofstream@DV?$char_traits@D@_STL@@@_STL@@@8
_DATA	SEGMENT
??_R0?AV?$basic_ofstream@DV?$char_traits@D@_STL@@@_STL@@@8 DD FLAT:??_7type_info@@6B@ ; _STL::basic_ofstream<char,_STL::char_traits<char> > `RTTI Type Descriptor'
	DD	00H
	DB	'.?AV?$basic_ofstream@DV?$char_traits@D@_STL@@@_STL@@', 00H
_DATA	ENDS
;	COMDAT ??_R3?$basic_ofstream@DV?$char_traits@D@_STL@@@_STL@@8
rdata$r	SEGMENT
??_R3?$basic_ofstream@DV?$char_traits@D@_STL@@@_STL@@8 DD 00H ; _STL::basic_ofstream<char,_STL::char_traits<char> >::`RTTI Class Hierarchy Descriptor'
	DD	00H
	DD	04H
	DD	FLAT:??_R2?$basic_ofstream@DV?$char_traits@D@_STL@@@_STL@@8
rdata$r	ENDS
;	COMDAT ??_R2?$basic_ofstream@DV?$char_traits@D@_STL@@@_STL@@8
rdata$r	SEGMENT
??_R2?$basic_ofstream@DV?$char_traits@D@_STL@@@_STL@@8 DD FLAT:??_R1A@?0A@A@?$basic_ofstream@DV?$char_traits@D@_STL@@@_STL@@8 ; _STL::basic_ofstream<char,_STL::char_traits<char> >::`RTTI Base Class Array'
	DD	FLAT:??_R1A@?0A@A@?$basic_ostream@DV?$char_traits@D@_STL@@@_STL@@8
	DD	FLAT:??_R1A@A@3BA@?$basic_ios@DV?$char_traits@D@_STL@@@_STL@@8
	DD	FLAT:??_R1A@A@3A@ios_base@_STL@@8
rdata$r	ENDS
;	COMDAT ??_R1A@?0A@A@?$basic_ofstream@DV?$char_traits@D@_STL@@@_STL@@8
rdata$r	SEGMENT
??_R1A@?0A@A@?$basic_ofstream@DV?$char_traits@D@_STL@@@_STL@@8 DD FLAT:??_R0?AV?$basic_ofstream@DV?$char_traits@D@_STL@@@_STL@@@8 ; _STL::basic_ofstream<char,_STL::char_traits<char> >::`RTTI Base Class Descriptor at (0,-1,0,0)'
	DD	03H
	DD	00H
	DD	0ffffffffH
	DD	00H
	DD	00H
; Function compile flags: /Ogsy
; File c:\stlport-4.6.1\stlport\stl\_fstream.h
rdata$r	ENDS
;	COMDAT ??1?$basic_ofstream@DV?$char_traits@D@_STL@@@_STL@@UAE@XZ
_TEXT	SEGMENT
_this$ = -16						; size = 4
__$EHRec$ = -12						; size = 12
??1?$basic_ofstream@DV?$char_traits@D@_STL@@@_STL@@UAE@XZ PROC NEAR ; _STL::basic_ofstream<char,_STL::char_traits<char> >::~basic_ofstream<char,_STL::char_traits<char> >, COMDAT
; _this$ = ecx

; 616  :   ~basic_ofstream() {}

  00000	b8 00 00 00 00	 mov	 eax, __ehhandler$??1?$basic_ofstream@DV?$char_traits@D@_STL@@@_STL@@UAE@XZ
  00005	e8 00 00 00 00	 call	 __EH_prolog
  0000a	51		 push	 ecx
  0000b	8b 81 48 ff ff
	ff		 mov	 eax, DWORD PTR [ecx-184]
  00011	8b 40 04	 mov	 eax, DWORD PTR [eax+4]
  00014	56		 push	 esi
  00015	89 4d f0	 mov	 DWORD PTR _this$[ebp], ecx
  00018	c7 84 08 48 ff
	ff ff 00 00 00
	00		 mov	 DWORD PTR [eax+ecx-184], OFFSET FLAT:??_7?$basic_ofstream@DV?$char_traits@D@_STL@@@_STL@@6B@
  00023	83 65 fc 00	 and	 DWORD PTR __$EHRec$[ebp+8], 0
  00027	8d b1 4c ff ff
	ff		 lea	 esi, DWORD PTR [ecx-180]
  0002d	8b ce		 mov	 ecx, esi
  0002f	e8 00 00 00 00	 call	 ??1?$basic_filebuf@DV?$char_traits@D@_STL@@@_STL@@UAE@XZ ; _STL::basic_filebuf<char,_STL::char_traits<char> >::~basic_filebuf<char,_STL::char_traits<char> >
  00034	8b 46 fc	 mov	 eax, DWORD PTR [esi-4]
  00037	8b 40 04	 mov	 eax, DWORD PTR [eax+4]
  0003a	8b 4d f4	 mov	 ecx, DWORD PTR __$EHRec$[ebp]
  0003d	c7 44 30 fc 00
	00 00 00	 mov	 DWORD PTR [eax+esi-4], OFFSET FLAT:??_7?$basic_ostream@DV?$char_traits@D@_STL@@@_STL@@6B@
  00045	5e		 pop	 esi
  00046	64 89 0d 00 00
	00 00		 mov	 DWORD PTR fs:__except_list, ecx
  0004d	c9		 leave
  0004e	c3		 ret	 0
_TEXT	ENDS
;	COMDAT text$x
text$x	SEGMENT
$L107197:
  00000	8b 4d f0	 mov	 ecx, DWORD PTR _this$[ebp]
  00003	81 e9 b4 00 00
	00		 sub	 ecx, 180		; 000000b4H
  00009	e9 00 00 00 00	 jmp	 ??1?$basic_ostream@DV?$char_traits@D@_STL@@@_STL@@UAE@XZ ; _STL::basic_ostream<char,_STL::char_traits<char> >::~basic_ostream<char,_STL::char_traits<char> >
__ehhandler$??1?$basic_ofstream@DV?$char_traits@D@_STL@@@_STL@@UAE@XZ:
  0000e	b8 00 00 00 00	 mov	 eax, OFFSET FLAT:$T107204
  00013	e9 00 00 00 00	 jmp	 ___CxxFrameHandler
text$x	ENDS
??1?$basic_ofstream@DV?$char_traits@D@_STL@@@_STL@@UAE@XZ ENDP ; _STL::basic_ofstream<char,_STL::char_traits<char> >::~basic_ofstream<char,_STL::char_traits<char> >
PUBLIC	?close@?$basic_ofstream@DV?$char_traits@D@_STL@@@_STL@@QAEXXZ ; _STL::basic_ofstream<char,_STL::char_traits<char> >::close
; Function compile flags: /Ogsy
;	COMDAT ?close@?$basic_ofstream@DV?$char_traits@D@_STL@@@_STL@@QAEXXZ
_TEXT	SEGMENT
?close@?$basic_ofstream@DV?$char_traits@D@_STL@@@_STL@@QAEXXZ PROC NEAR ; _STL::basic_ofstream<char,_STL::char_traits<char> >::close, COMDAT
; _this$ = ecx

; 631  :   void close() {

  00000	56		 push	 esi
  00001	8b f1		 mov	 esi, ecx

; 632  :     if (!this->rdbuf()->close())

  00003	8d 4e 04	 lea	 ecx, DWORD PTR [esi+4]
  00006	e8 00 00 00 00	 call	 ?close@?$basic_filebuf@DV?$char_traits@D@_STL@@@_STL@@QAEPAV12@XZ ; _STL::basic_filebuf<char,_STL::char_traits<char> >::close
  0000b	85 c0		 test	 eax, eax
  0000d	75 13		 jne	 SHORT $L107222

; 633  :       this->setstate(ios_base::failbit);

  0000f	8b 06		 mov	 eax, DWORD PTR [esi]
  00011	8b 48 04	 mov	 ecx, DWORD PTR [eax+4]
  00014	03 ce		 add	 ecx, esi
  00016	8b 41 08	 mov	 eax, DWORD PTR [ecx+8]
  00019	83 c8 04	 or	 eax, 4
  0001c	50		 push	 eax
  0001d	e8 00 00 00 00	 call	 ?clear@?$basic_ios@DV?$char_traits@D@_STL@@@_STL@@QAEXH@Z ; _STL::basic_ios<char,_STL::char_traits<char> >::clear
$L107222:
  00022	5e		 pop	 esi

; 634  :   }

  00023	c3		 ret	 0
?close@?$basic_ofstream@DV?$char_traits@D@_STL@@@_STL@@QAEXXZ ENDP ; _STL::basic_ofstream<char,_STL::char_traits<char> >::close
_TEXT	ENDS
PUBLIC	?_M_clear@?$vector@VMHelpMessage@@V?$allocator@VMHelpMessage@@@_STL@@@_STL@@IAEXXZ ; _STL::vector<MHelpMessage,_STL::allocator<MHelpMessage> >::_M_clear
; Function compile flags: /Ogsy
; File c:\stlport-4.6.1\stlport\stl\_vector.h
;	COMDAT ?_M_clear@?$vector@VMHelpMessage@@V?$allocator@VMHelpMessage@@@_STL@@@_STL@@IAEXXZ
_TEXT	SEGMENT
?_M_clear@?$vector@VMHelpMessage@@V?$allocator@VMHelpMessage@@@_STL@@@_STL@@IAEXXZ PROC NEAR ; _STL::vector<MHelpMessage,_STL::allocator<MHelpMessage> >::_M_clear, COMDAT
; _this$ = ecx

; 493  :   void _M_clear() {

  00000	56		 push	 esi
  00001	8b f1		 mov	 esi, ecx
  00003	57		 push	 edi

; 494  :     //    if (this->_M_start) {
; 495  :     _Destroy(this->_M_start, this->_M_finish);

  00004	ff 76 04	 push	 DWORD PTR [esi+4]
  00007	ff 36		 push	 DWORD PTR [esi]
  00009	e8 00 00 00 00	 call	 ??$_Destroy@PAVMHelpMessage@@@_STL@@YAXPAVMHelpMessage@@0@Z ; _STL::_Destroy<MHelpMessage *>
  0000e	59		 pop	 ecx
  0000f	59		 pop	 ecx

; 496  :     this->_M_end_of_storage.deallocate(this->_M_start, this->_M_end_of_storage._M_data - this->_M_start);

  00010	8d 4e 08	 lea	 ecx, DWORD PTR [esi+8]
  00013	8b 36		 mov	 esi, DWORD PTR [esi]
  00015	8b 01		 mov	 eax, DWORD PTR [ecx]
  00017	2b c6		 sub	 eax, esi
  00019	99		 cdq
  0001a	bf bc 00 00 00	 mov	 edi, 188		; 000000bcH
  0001f	f7 ff		 idiv	 edi
  00021	50		 push	 eax
  00022	56		 push	 esi
  00023	e8 00 00 00 00	 call	 ?deallocate@?$allocator@VMHelpMessage@@@_STL@@QAEXPAVMHelpMessage@@I@Z ; _STL::allocator<MHelpMessage>::deallocate
  00028	5f		 pop	 edi
  00029	5e		 pop	 esi

; 497  :     //    }
; 498  :   }

  0002a	c3		 ret	 0
?_M_clear@?$vector@VMHelpMessage@@V?$allocator@VMHelpMessage@@@_STL@@@_STL@@IAEXXZ ENDP ; _STL::vector<MHelpMessage,_STL::allocator<MHelpMessage> >::_M_clear
_TEXT	ENDS
PUBLIC	?_M_clear@?$vector@VMString@@V?$allocator@VMString@@@_STL@@@_STL@@IAEXXZ ; _STL::vector<MString,_STL::allocator<MString> >::_M_clear
; Function compile flags: /Ogsy
;	COMDAT ?_M_clear@?$vector@VMString@@V?$allocator@VMString@@@_STL@@@_STL@@IAEXXZ
_TEXT	SEGMENT
?_M_clear@?$vector@VMString@@V?$allocator@VMString@@@_STL@@@_STL@@IAEXXZ PROC NEAR ; _STL::vector<MString,_STL::allocator<MString> >::_M_clear, COMDAT
; _this$ = ecx

; 493  :   void _M_clear() {

  00000	56		 push	 esi
  00001	8b f1		 mov	 esi, ecx
  00003	57		 push	 edi

; 494  :     //    if (this->_M_start) {
; 495  :     _Destroy(this->_M_start, this->_M_finish);

  00004	ff 76 04	 push	 DWORD PTR [esi+4]
  00007	ff 36		 push	 DWORD PTR [esi]
  00009	e8 00 00 00 00	 call	 ??$_Destroy@PAVMString@@@_STL@@YAXPAVMString@@0@Z ; _STL::_Destroy<MString *>
  0000e	59		 pop	 ecx
  0000f	59		 pop	 ecx

; 496  :     this->_M_end_of_storage.deallocate(this->_M_start, this->_M_end_of_storage._M_data - this->_M_start);

  00010	8d 4e 08	 lea	 ecx, DWORD PTR [esi+8]
  00013	8b 36		 mov	 esi, DWORD PTR [esi]
  00015	8b 01		 mov	 eax, DWORD PTR [ecx]
  00017	2b c6		 sub	 eax, esi
  00019	6a 0c		 push	 12			; 0000000cH
  0001b	5f		 pop	 edi
  0001c	99		 cdq
  0001d	f7 ff		 idiv	 edi
  0001f	50		 push	 eax
  00020	56		 push	 esi
  00021	e8 00 00 00 00	 call	 ?deallocate@?$allocator@VMString@@@_STL@@QAEXPAVMString@@I@Z ; _STL::allocator<MString>::deallocate
  00026	5f		 pop	 edi
  00027	5e		 pop	 esi

; 497  :     //    }
; 498  :   }

  00028	c3		 ret	 0
?_M_clear@?$vector@VMString@@V?$allocator@VMString@@@_STL@@@_STL@@IAEXXZ ENDP ; _STL::vector<MString,_STL::allocator<MString> >::_M_clear
_TEXT	ENDS
PUBLIC	??0sentry@?$basic_ostream@DV?$char_traits@D@_STL@@@_STL@@QAE@AAV12@@Z ; _STL::basic_ostream<char,_STL::char_traits<char> >::sentry::sentry
; Function compile flags: /Ogsy
; File c:\stlport-4.6.1\stlport\stl\_ostream.h
;	COMDAT ??0sentry@?$basic_ostream@DV?$char_traits@D@_STL@@@_STL@@QAE@AAV12@@Z
_TEXT	SEGMENT
___str$ = 8						; size = 4
??0sentry@?$basic_ostream@DV?$char_traits@D@_STL@@@_STL@@QAE@AAV12@@Z PROC NEAR ; _STL::basic_ostream<char,_STL::char_traits<char> >::sentry::sentry, COMDAT
; _this$ = ecx

; 165  :       {

  00000	8b 44 24 04	 mov	 eax, DWORD PTR ___str$[esp-4]
  00004	56		 push	 esi
  00005	8b f1		 mov	 esi, ecx
  00007	50		 push	 eax
  00008	89 06		 mov	 DWORD PTR [esi], eax
  0000a	e8 00 00 00 00	 call	 ??$_M_init@DV?$char_traits@D@_STL@@@_STL@@YA_NAAV?$basic_ostream@DV?$char_traits@D@_STL@@@0@@Z ; _STL::_M_init<char,_STL::char_traits<char> >
  0000f	88 46 04	 mov	 BYTE PTR [esi+4], al
  00012	59		 pop	 ecx

; 166  :       }

  00013	8b c6		 mov	 eax, esi
  00015	5e		 pop	 esi
  00016	c2 04 00	 ret	 4
??0sentry@?$basic_ostream@DV?$char_traits@D@_STL@@@_STL@@QAE@AAV12@@Z ENDP ; _STL::basic_ostream<char,_STL::char_traits<char> >::sentry::sentry
_TEXT	ENDS
PUBLIC	??1sentry@?$basic_ostream@DV?$char_traits@D@_STL@@@_STL@@QAE@XZ ; _STL::basic_ostream<char,_STL::char_traits<char> >::sentry::~sentry
; Function compile flags: /Ogsy
;	COMDAT ??1sentry@?$basic_ostream@DV?$char_traits@D@_STL@@@_STL@@QAE@XZ
_TEXT	SEGMENT
??1sentry@?$basic_ostream@DV?$char_traits@D@_STL@@@_STL@@QAE@XZ PROC NEAR ; _STL::basic_ostream<char,_STL::char_traits<char> >::sentry::~sentry, COMDAT
; _this$ = ecx

; 169  :         if (_M_str.flags() & ios_base::unitbuf)

  00000	8b 09		 mov	 ecx, DWORD PTR [ecx]
  00002	8b 01		 mov	 eax, DWORD PTR [ecx]
  00004	8b 40 04	 mov	 eax, DWORD PTR [eax+4]
  00007	f6 44 08 05 20	 test	 BYTE PTR [eax+ecx+5], 32 ; 00000020H
  0000c	74 05		 je	 SHORT $L103129

; 170  : # ifndef _STLP_INCOMPLETE_EXCEPTION_HEADER 
; 171  :           if (!_STLP_VENDOR_EXCEPT_STD::uncaught_exception())
; 172  : # endif
; 173  :             _M_str.flush();

  0000e	e9 00 00 00 00	 jmp	 ?flush@?$basic_ostream@DV?$char_traits@D@_STL@@@_STL@@QAEAAV12@XZ ; _STL::basic_ostream<char,_STL::char_traits<char> >::flush
$L103129:

; 174  :       }

  00013	c3		 ret	 0
??1sentry@?$basic_ostream@DV?$char_traits@D@_STL@@@_STL@@QAE@XZ ENDP ; _STL::basic_ostream<char,_STL::char_traits<char> >::sentry::~sentry
_TEXT	ENDS
PUBLIC	?_M_put_nowiden@?$basic_ostream@DV?$char_traits@D@_STL@@@_STL@@QAEXPBD@Z ; _STL::basic_ostream<char,_STL::char_traits<char> >::_M_put_nowiden
;	COMDAT xdata$x
; File c:\stlport-4.6.1\stlport\stl\_ios_base.h
xdata$x	SEGMENT
$T107345 DD	0ffffffffH
	DD	FLAT:$L107251
	DD	00H
	DD	00H
	DD	00H
	DD	00H
$T107347 DD	00H
	DD	00H
	DD	00H
	DD	FLAT:$L107250
$T107346 DD	01H
	DD	01H
	DD	02H
	DD	01H
	DD	FLAT:$T107347
$T107340 DD	019930520H
	DD	03H
	DD	FLAT:$T107345
	DD	01H
	DD	FLAT:$T107346
	DD	2 DUP(00H)
; Function compile flags: /Ogsy
; File c:\stlport-4.6.1\stlport\stl\_ostream.c
xdata$x	ENDS
;	COMDAT ?_M_put_nowiden@?$basic_ostream@DV?$char_traits@D@_STL@@@_STL@@QAEXPBD@Z
_TEXT	SEGMENT
___sentry$ = -36					; size = 8
$T107299 = -28						; size = 1
_this$ = -24						; size = 4
___failed$103188 = -17					; size = 1
__$EHRec$ = -16						; size = 16
$T107288 = 8						; size = 1
___s$ = 8						; size = 4
?_M_put_nowiden@?$basic_ostream@DV?$char_traits@D@_STL@@@_STL@@QAEXPBD@Z PROC NEAR ; _STL::basic_ostream<char,_STL::char_traits<char> >::_M_put_nowiden, COMDAT
; _this$ = ecx

; 256  : {

  00000	b8 00 00 00 00	 mov	 eax, __ehhandler$?_M_put_nowiden@?$basic_ostream@DV?$char_traits@D@_STL@@@_STL@@QAEXPBD@Z
  00005	e8 00 00 00 00	 call	 __EH_prolog
  0000a	83 ec 18	 sub	 esp, 24			; 00000018H
  0000d	53		 push	 ebx
  0000e	56		 push	 esi
  0000f	57		 push	 edi
  00010	8b f1		 mov	 esi, ecx
  00012	89 65 f0	 mov	 DWORD PTR __$EHRec$[ebp], esp

; 257  :   sentry __sentry(*this);

  00015	56		 push	 esi
  00016	8d 4d dc	 lea	 ecx, DWORD PTR ___sentry$[ebp]
  00019	89 75 e8	 mov	 DWORD PTR _this$[ebp], esi
  0001c	e8 00 00 00 00	 call	 ??0sentry@?$basic_ostream@DV?$char_traits@D@_STL@@@_STL@@QAE@AAV12@@Z ; _STL::basic_ostream<char,_STL::char_traits<char> >::sentry::sentry
  00021	33 db		 xor	 ebx, ebx

; 258  :   if (__sentry) {

  00023	38 5d e0	 cmp	 BYTE PTR ___sentry$[ebp+4], bl
  00026	89 5d fc	 mov	 DWORD PTR __$EHRec$[ebp+12], ebx
  00029	0f 84 0b 01 00
	00		 je	 $L107327

; 259  :     bool __failed = true;
; 260  :     streamsize __n = _Traits::length(__s);

  0002f	ff 75 08	 push	 DWORD PTR ___s$[ebp]
  00032	c6 45 ef 01	 mov	 BYTE PTR ___failed$103188[ebp], 1
  00036	e8 00 00 00 00	 call	 _strlen
  0003b	59		 pop	 ecx

; 261  :     streamsize __npad = this->width() > __n ? this->width() - __n : 0;

  0003c	8b 0e		 mov	 ecx, DWORD PTR [esi]
  0003e	8b f8		 mov	 edi, eax
  00040	8b 41 04	 mov	 eax, DWORD PTR [ecx+4]
  00043	03 c6		 add	 eax, esi
  00045	8b 50 1c	 mov	 edx, DWORD PTR [eax+28]
  00048	3b d7		 cmp	 edx, edi
  0004a	7e 04		 jle	 SHORT $L107244
  0004c	2b d7		 sub	 edx, edi
  0004e	8b da		 mov	 ebx, edx
$L107244:

; 262  : 
; 263  :     _STLP_TRY {
; 264  :       if (__npad == 0)

  00050	85 db		 test	 ebx, ebx
  00052	c6 45 fc 01	 mov	 BYTE PTR __$EHRec$[ebp+12], 1
  00056	75 18		 jne	 SHORT $L103192

; 265  :         __failed = this->rdbuf()->sputn(__s, __n) != __n;

  00058	8b 40 58	 mov	 eax, DWORD PTR [eax+88]
  0005b	8b 10		 mov	 edx, DWORD PTR [eax]
  0005d	57		 push	 edi
  0005e	ff 75 08	 push	 DWORD PTR ___s$[ebp]
  00061	8b c8		 mov	 ecx, eax
  00063	ff 52 28	 call	 DWORD PTR [edx+40]
  00066	3b c7		 cmp	 eax, edi
  00068	0f 95 c1	 setne	 cl

; 266  :       else if ((this->flags() & ios_base::adjustfield) == ios_base::left) {

  0006b	e9 85 00 00 00	 jmp	 $L107248
$L103192:
  00070	8b 50 04	 mov	 edx, DWORD PTR [eax+4]
  00073	80 e2 07	 and	 dl, 7
  00076	80 fa 01	 cmp	 dl, 1
  00079	75 39		 jne	 SHORT $L103194

; 267  :         __failed = this->rdbuf()->sputn(__s, __n) != __n;

  0007b	8b 40 58	 mov	 eax, DWORD PTR [eax+88]
  0007e	8b 10		 mov	 edx, DWORD PTR [eax]
  00080	57		 push	 edi
  00081	ff 75 08	 push	 DWORD PTR ___s$[ebp]
  00084	8b c8		 mov	 ecx, eax
  00086	ff 52 28	 call	 DWORD PTR [edx+40]
  00089	3b c7		 cmp	 eax, edi
  0008b	0f 95 45 ef	 setne	 BYTE PTR ___failed$103188[ebp]

; 268  :         __failed = __failed || 
; 269  :                    this->rdbuf()->_M_sputnc(this->fill(), __npad) != __npad;

  0008f	80 7d ef 00	 cmp	 BYTE PTR ___failed$103188[ebp], 0
  00093	75 5e		 jne	 SHORT $L107247
  00095	8b 06		 mov	 eax, DWORD PTR [esi]
  00097	8b 40 04	 mov	 eax, DWORD PTR [eax+4]
  0009a	03 c6		 add	 eax, esi
  0009c	8a 48 54	 mov	 cl, BYTE PTR [eax+84]
  0009f	8b 40 58	 mov	 eax, DWORD PTR [eax+88]
  000a2	8b 10		 mov	 edx, DWORD PTR [eax]
  000a4	88 4d 08	 mov	 BYTE PTR $T107288[ebp], cl
  000a7	53		 push	 ebx
  000a8	ff 75 08	 push	 DWORD PTR $T107288[ebp]
  000ab	8b c8		 mov	 ecx, eax
  000ad	ff 52 2c	 call	 DWORD PTR [edx+44]
  000b0	3b c3		 cmp	 eax, ebx

; 270  :       }
; 271  :       else {

  000b2	eb 39		 jmp	 SHORT $L107344
$L103194:

; 272  :         __failed = this->rdbuf()->_M_sputnc(this->fill(), __npad) != __npad;

  000b4	8b 41 04	 mov	 eax, DWORD PTR [ecx+4]
  000b7	03 c6		 add	 eax, esi
  000b9	8a 48 54	 mov	 cl, BYTE PTR [eax+84]
  000bc	8b 40 58	 mov	 eax, DWORD PTR [eax+88]
  000bf	8b 10		 mov	 edx, DWORD PTR [eax]
  000c1	88 4d e4	 mov	 BYTE PTR $T107299[ebp], cl
  000c4	53		 push	 ebx
  000c5	ff 75 e4	 push	 DWORD PTR $T107299[ebp]
  000c8	8b c8		 mov	 ecx, eax
  000ca	ff 52 2c	 call	 DWORD PTR [edx+44]
  000cd	3b c3		 cmp	 eax, ebx
  000cf	0f 95 45 ef	 setne	 BYTE PTR ___failed$103188[ebp]

; 273  :         __failed = __failed || this->rdbuf()->sputn(__s, __n) != __n;

  000d3	80 7d ef 00	 cmp	 BYTE PTR ___failed$103188[ebp], 0
  000d7	75 1a		 jne	 SHORT $L107247
  000d9	8b 06		 mov	 eax, DWORD PTR [esi]
  000db	8b 40 04	 mov	 eax, DWORD PTR [eax+4]
  000de	8b 4c 30 58	 mov	 ecx, DWORD PTR [eax+esi+88]
  000e2	8b 01		 mov	 eax, DWORD PTR [ecx]
  000e4	57		 push	 edi
  000e5	ff 75 08	 push	 DWORD PTR ___s$[ebp]
  000e8	ff 50 28	 call	 DWORD PTR [eax+40]
  000eb	3b c7		 cmp	 eax, edi
$L107344:
  000ed	75 04		 jne	 SHORT $L107247
  000ef	32 c9		 xor	 cl, cl
  000f1	eb 02		 jmp	 SHORT $L107248
$L107247:
  000f3	b1 01		 mov	 cl, 1
$L107248:

; 274  :       }
; 275  : 
; 276  :       this->width(0);

  000f5	8b 06		 mov	 eax, DWORD PTR [esi]
  000f7	8b 40 04	 mov	 eax, DWORD PTR [eax+4]
  000fa	03 c6		 add	 eax, esi
  000fc	83 60 1c 00	 and	 DWORD PTR [eax+28], 0
  00100	eb 1d		 jmp	 SHORT $L103191
$L107250:

; 277  :     }
; 278  :     _STLP_CATCH_ALL {
; 279  :       this->_M_handle_exception(ios_base::badbit);

  00102	8b 45 e8	 mov	 eax, DWORD PTR _this$[ebp]
  00105	8b 08		 mov	 ecx, DWORD PTR [eax]
  00107	8b 49 04	 mov	 ecx, DWORD PTR [ecx+4]
  0010a	6a 01		 push	 1
  0010c	03 c8		 add	 ecx, eax
  0010e	e8 00 00 00 00	 call	 ?_M_handle_exception@?$basic_ios@DV?$char_traits@D@_STL@@@_STL@@QAEXH@Z ; _STL::basic_ios<char,_STL::char_traits<char> >::_M_handle_exception

; 280  :     }

  00113	b8 00 00 00 00	 mov	 eax, $L107341
  00118	c3		 ret	 0
$L107341:
  00119	8b 75 e8	 mov	 esi, DWORD PTR _this$[ebp]
  0011c	8a 4d ef	 mov	 cl, BYTE PTR ___failed$103188[ebp]
$L103191:
  0011f	83 65 fc 00	 and	 DWORD PTR __$EHRec$[ebp+12], 0

; 281  : 
; 282  :     if (__failed)

  00123	84 c9		 test	 cl, cl
  00125	74 13		 je	 SHORT $L107327

; 283  :       this->setstate(ios_base::failbit);

  00127	8b 06		 mov	 eax, DWORD PTR [esi]
  00129	8b 48 04	 mov	 ecx, DWORD PTR [eax+4]
  0012c	03 ce		 add	 ecx, esi
  0012e	8b 41 08	 mov	 eax, DWORD PTR [ecx+8]
  00131	83 c8 04	 or	 eax, 4
  00134	50		 push	 eax
  00135	e8 00 00 00 00	 call	 ?clear@?$basic_ios@DV?$char_traits@D@_STL@@@_STL@@QAEXH@Z ; _STL::basic_ios<char,_STL::char_traits<char> >::clear
$L107327:

; 284  :   }
; 285  : }

  0013a	8b 4d dc	 mov	 ecx, DWORD PTR ___sentry$[ebp]
  0013d	8b 01		 mov	 eax, DWORD PTR [ecx]
  0013f	8b 40 04	 mov	 eax, DWORD PTR [eax+4]
  00142	83 4d fc ff	 or	 DWORD PTR __$EHRec$[ebp+12], -1
  00146	f6 44 08 05 20	 test	 BYTE PTR [eax+ecx+5], 32 ; 00000020H
  0014b	74 05		 je	 SHORT $L107335
  0014d	e8 00 00 00 00	 call	 ?flush@?$basic_ostream@DV?$char_traits@D@_STL@@@_STL@@QAEAAV12@XZ ; _STL::basic_ostream<char,_STL::char_traits<char> >::flush
$L107335:
  00152	8b 4d f4	 mov	 ecx, DWORD PTR __$EHRec$[ebp+4]
  00155	5f		 pop	 edi
  00156	5e		 pop	 esi
  00157	64 89 0d 00 00
	00 00		 mov	 DWORD PTR fs:__except_list, ecx
  0015e	5b		 pop	 ebx
  0015f	c9		 leave
  00160	c2 04 00	 ret	 4
_TEXT	ENDS
;	COMDAT text$x
text$x	SEGMENT
$L107251:
  00000	8d 4d dc	 lea	 ecx, DWORD PTR ___sentry$[ebp]
  00003	e9 00 00 00 00	 jmp	 ??1sentry@?$basic_ostream@DV?$char_traits@D@_STL@@@_STL@@QAE@XZ ; _STL::basic_ostream<char,_STL::char_traits<char> >::sentry::~sentry
__ehhandler$?_M_put_nowiden@?$basic_ostream@DV?$char_traits@D@_STL@@@_STL@@QAEXPBD@Z:
  00008	b8 00 00 00 00	 mov	 eax, OFFSET FLAT:$T107340
  0000d	e9 00 00 00 00	 jmp	 ___CxxFrameHandler
text$x	ENDS
?_M_put_nowiden@?$basic_ostream@DV?$char_traits@D@_STL@@@_STL@@QAEXPBD@Z ENDP ; _STL::basic_ostream<char,_STL::char_traits<char> >::_M_put_nowiden
PUBLIC	??$uninitialized_copy@PADPAD@_STL@@YAPADPAD00@Z	; _STL::uninitialized_copy<char *,char *>
; Function compile flags: /Ogsy
; File c:\stlport-4.6.1\stlport\stl\_uninitialized.h
;	COMDAT ??$uninitialized_copy@PADPAD@_STL@@YAPADPAD00@Z
_TEXT	SEGMENT
___first$ = 8						; size = 4
___last$ = 12						; size = 4
___result$ = 16						; size = 4
??$uninitialized_copy@PADPAD@_STL@@YAPADPAD00@Z PROC NEAR ; _STL::uninitialized_copy<char *,char *>, COMDAT

; 79   :   return __uninitialized_copy(__first, __last, __result,  _IS_POD_ITER(__result, _ForwardIter));

  00000	e9 00 00 00 00	 jmp	 ?__copy_trivial@_STL@@YAPAXPBX0PAX@Z ; _STL::__copy_trivial
??$uninitialized_copy@PADPAD@_STL@@YAPADPAD00@Z ENDP	; _STL::uninitialized_copy<char *,char *>
_TEXT	ENDS
PUBLIC	??$append@PBD@?$basic_string@DV?$char_traits@D@_STL@@V?$allocator@D@2@@_STL@@AAEAAV01@PBD0ABUforward_iterator_tag@1@@Z ; _STL::basic_string<char,_STL::char_traits<char>,_STL::allocator<char> >::append<char const *>
; Function compile flags: /Ogsy
; File c:\stlport-4.6.1\stlport\stl\_string.h
;	COMDAT ??$append@PBD@?$basic_string@DV?$char_traits@D@_STL@@V?$allocator@D@2@@_STL@@AAEAAV01@PBD0ABUforward_iterator_tag@1@@Z
_TEXT	SEGMENT
___len$103988 = -8					; size = 4
___old_size$103981 = -8					; size = 4
$T107410 = -4						; size = 4
___first$ = 8						; size = 4
___last$ = 12						; size = 4
___formal$ = 16						; size = 4
??$append@PBD@?$basic_string@DV?$char_traits@D@_STL@@V?$allocator@D@2@@_STL@@AAEAAV01@PBD0ABUforward_iterator_tag@1@@Z PROC NEAR ; _STL::basic_string<char,_STL::char_traits<char>,_STL::allocator<char> >::append<char const *>, COMDAT
; _this$ = ecx

; 542  :   template <class _ForwardIter> _Self& append(_ForwardIter __first, _ForwardIter __last, 

  00000	55		 push	 ebp
  00001	8b ec		 mov	 ebp, esp
  00003	51		 push	 ecx
  00004	51		 push	 ecx
  00005	56		 push	 esi
  00006	57		 push	 edi

; 543  :                        const forward_iterator_tag &)  {
; 544  :     if (__first != __last) {

  00007	8b 7d 0c	 mov	 edi, DWORD PTR ___last$[ebp]
  0000a	39 7d 08	 cmp	 DWORD PTR ___first$[ebp], edi
  0000d	8b f1		 mov	 esi, ecx
  0000f	0f 84 b6 00 00
	00		 je	 $L103994

; 545  : 	    const size_type __old_size = size();
; 546  : 	    difference_type __n = distance(__first, __last);

  00015	2b 7d 08	 sub	 edi, DWORD PTR ___first$[ebp]
  00018	53		 push	 ebx
  00019	8b 5e 04	 mov	 ebx, DWORD PTR [esi+4]
  0001c	2b 1e		 sub	 ebx, DWORD PTR [esi]

; 547  : 	    if (__STATIC_CAST(size_type,__n) > max_size() || __old_size > max_size() - __STATIC_CAST(size_type,__n))

  0001e	83 ff fe	 cmp	 edi, -2			; fffffffeH
  00021	89 5d f8	 mov	 DWORD PTR ___old_size$103981[ebp], ebx
  00024	77 09		 ja	 SHORT $L103986
  00026	6a fe		 push	 -2			; fffffffeH
  00028	58		 pop	 eax
  00029	2b c7		 sub	 eax, edi
  0002b	3b d8		 cmp	 ebx, eax
  0002d	76 07		 jbe	 SHORT $L103985
$L103986:

; 548  : 	      this->_M_throw_length_error();

  0002f	8b ce		 mov	 ecx, esi
  00031	e8 00 00 00 00	 call	 ?_M_throw_length_error@?$_String_base@DV?$allocator@D@_STL@@@_STL@@QBEXXZ ; _STL::_String_base<char,_STL::allocator<char> >::_M_throw_length_error
$L103985:

; 549  : 	    if (__old_size + __n > capacity()) {

  00036	8b 46 08	 mov	 eax, DWORD PTR [esi+8]
  00039	2b 06		 sub	 eax, DWORD PTR [esi]
  0003b	8d 0c 1f	 lea	 ecx, DWORD PTR [edi+ebx]
  0003e	48		 dec	 eax
  0003f	3b c8		 cmp	 ecx, eax
  00041	76 5e		 jbe	 SHORT $L103987

; 550  : 	      const size_type __len = __old_size +
; 551  : 	                            (max)(__old_size, __STATIC_CAST(size_type,__n)) + 1;

  00043	3b df		 cmp	 ebx, edi
  00045	89 7d fc	 mov	 DWORD PTR $T107410[ebp], edi
  00048	8d 45 fc	 lea	 eax, DWORD PTR $T107410[ebp]
  0004b	72 03		 jb	 SHORT $L107455
  0004d	8d 45 f8	 lea	 eax, DWORD PTR ___old_size$103981[ebp]
$L107455:
  00050	8b 00		 mov	 eax, DWORD PTR [eax]
  00052	8d 5c 18 01	 lea	 ebx, DWORD PTR [eax+ebx+1]

; 552  : 	      pointer __new_start = this->_M_end_of_storage.allocate(__len);

  00056	85 db		 test	 ebx, ebx
  00058	89 5d f8	 mov	 DWORD PTR ___len$103988[ebp], ebx
  0005b	74 0b		 je	 SHORT $L107461
  0005d	53		 push	 ebx
  0005e	e8 00 00 00 00	 call	 ?allocate@?$__node_alloc@$00$0A@@_STL@@SAPAXI@Z ; _STL::__node_alloc<1,0>::allocate
  00063	59		 pop	 ecx
  00064	8b f8		 mov	 edi, eax
  00066	eb 02		 jmp	 SHORT $L107462
$L107461:
  00068	33 ff		 xor	 edi, edi
$L107462:

; 553  : 	      pointer __new_finish = __new_start;
; 554  : 	      _STLP_TRY {
; 555  : 	        __new_finish = uninitialized_copy(this->_M_start, this->_M_finish, __new_start);

  0006a	8b 46 04	 mov	 eax, DWORD PTR [esi+4]
  0006d	8b 0e		 mov	 ecx, DWORD PTR [esi]
  0006f	57		 push	 edi
  00070	50		 push	 eax
  00071	51		 push	 ecx
  00072	e8 00 00 00 00	 call	 ?__copy_trivial@_STL@@YAPAXPBX0PAX@Z ; _STL::__copy_trivial

; 556  : 	        __new_finish = uninitialized_copy(__first, __last, __new_finish);

  00077	50		 push	 eax
  00078	ff 75 0c	 push	 DWORD PTR ___last$[ebp]
  0007b	ff 75 08	 push	 DWORD PTR ___first$[ebp]
  0007e	e8 00 00 00 00	 call	 ?__copy_trivial@_STL@@YAPAXPBX0PAX@Z ; _STL::__copy_trivial
  00083	8b d8		 mov	 ebx, eax
  00085	83 c4 18	 add	 esp, 24			; 00000018H

; 557  : 	        _M_construct_null(__new_finish);
; 558  : 	      }
; 559  : 	      _STLP_UNWIND((_STLP_STD::_Destroy(__new_start,__new_finish),
; 560  : 	                    this->_M_end_of_storage.deallocate(__new_start,__len)));
; 561  : 	      _STLP_STD::_Destroy(this->_M_start, this->_M_finish + 1);
; 562  : 	      this->_M_deallocate_block();

  00088	8b ce		 mov	 ecx, esi
  0008a	c6 03 00	 mov	 BYTE PTR [ebx], 0
  0008d	e8 00 00 00 00	 call	 ?_M_deallocate_block@?$_String_base@DV?$allocator@D@_STL@@@_STL@@QAEXXZ ; _STL::_String_base<char,_STL::allocator<char> >::_M_deallocate_block

; 563  : 	      this->_M_start = __new_start;
; 564  : 	      this->_M_finish = __new_finish;
; 565  : 	      this->_M_end_of_storage._M_data = __new_start + __len; 

  00092	8b 45 f8	 mov	 eax, DWORD PTR ___len$103988[ebp]
  00095	89 3e		 mov	 DWORD PTR [esi], edi
  00097	03 f8		 add	 edi, eax
  00099	89 5e 04	 mov	 DWORD PTR [esi+4], ebx
  0009c	89 7e 08	 mov	 DWORD PTR [esi+8], edi

; 566  : 	    }
; 567  : 	    else {

  0009f	eb 29		 jmp	 SHORT $L107591
$L103987:

; 568  : 	      _ForwardIter __f1 = __first;
; 569  : 	      ++__f1;
; 570  : 	      uninitialized_copy(__f1, __last, this->_M_finish + 1);

  000a1	8b 46 04	 mov	 eax, DWORD PTR [esi+4]
  000a4	40		 inc	 eax
  000a5	50		 push	 eax
  000a6	8b 45 08	 mov	 eax, DWORD PTR ___first$[ebp]
  000a9	ff 75 0c	 push	 DWORD PTR ___last$[ebp]
  000ac	40		 inc	 eax
  000ad	50		 push	 eax
  000ae	e8 00 00 00 00	 call	 ?__copy_trivial@_STL@@YAPAXPBX0PAX@Z ; _STL::__copy_trivial

; 571  : 	      _STLP_TRY {
; 572  : 	        _M_construct_null(this->_M_finish + __n);

  000b3	8b 46 04	 mov	 eax, DWORD PTR [esi+4]

; 573  : 	      }
; 574  : 	      _STLP_UNWIND(_STLP_STD::_Destroy(this->_M_finish + 1, this->_M_finish + __n));
; 575  : 	      _Traits::assign(*end(), *__first);

  000b6	8b 4d 08	 mov	 ecx, DWORD PTR ___first$[ebp]
  000b9	c6 04 07 00	 mov	 BYTE PTR [edi+eax], 0
  000bd	8b 46 04	 mov	 eax, DWORD PTR [esi+4]
  000c0	8a 09		 mov	 cl, BYTE PTR [ecx]
  000c2	83 c4 0c	 add	 esp, 12			; 0000000cH
  000c5	88 08		 mov	 BYTE PTR [eax], cl

; 576  : 	      this->_M_finish += __n;

  000c7	01 7e 04	 add	 DWORD PTR [esi+4], edi
$L107591:
  000ca	5b		 pop	 ebx
$L103994:
  000cb	5f		 pop	 edi

; 577  : 	    }
; 578  : 	  }
; 579  : 	  return *this;  

  000cc	8b c6		 mov	 eax, esi
  000ce	5e		 pop	 esi

; 580  : 	}

  000cf	c9		 leave
  000d0	c2 0c 00	 ret	 12			; 0000000cH
??$append@PBD@?$basic_string@DV?$char_traits@D@_STL@@V?$allocator@D@2@@_STL@@AAEAAV01@PBD0ABUforward_iterator_tag@1@@Z ENDP ; _STL::basic_string<char,_STL::char_traits<char>,_STL::allocator<char> >::append<char const *>
_TEXT	ENDS
PUBLIC	??$append@PAD@?$basic_string@DV?$char_traits@D@_STL@@V?$allocator@D@2@@_STL@@AAEAAV01@PAD0ABUforward_iterator_tag@1@@Z ; _STL::basic_string<char,_STL::char_traits<char>,_STL::allocator<char> >::append<char *>
; Function compile flags: /Ogsy
;	COMDAT ??$append@PAD@?$basic_string@DV?$char_traits@D@_STL@@V?$allocator@D@2@@_STL@@AAEAAV01@PAD0ABUforward_iterator_tag@1@@Z
_TEXT	SEGMENT
___len$104081 = -8					; size = 4
___old_size$104074 = -8					; size = 4
$T107594 = -4						; size = 4
___first$ = 8						; size = 4
___last$ = 12						; size = 4
___formal$ = 16						; size = 4
??$append@PAD@?$basic_string@DV?$char_traits@D@_STL@@V?$allocator@D@2@@_STL@@AAEAAV01@PAD0ABUforward_iterator_tag@1@@Z PROC NEAR ; _STL::basic_string<char,_STL::char_traits<char>,_STL::allocator<char> >::append<char *>, COMDAT
; _this$ = ecx

; 542  :   template <class _ForwardIter> _Self& append(_ForwardIter __first, _ForwardIter __last, 

  00000	55		 push	 ebp
  00001	8b ec		 mov	 ebp, esp
  00003	51		 push	 ecx
  00004	51		 push	 ecx
  00005	56		 push	 esi
  00006	57		 push	 edi

; 543  :                        const forward_iterator_tag &)  {
; 544  :     if (__first != __last) {

  00007	8b 7d 0c	 mov	 edi, DWORD PTR ___last$[ebp]
  0000a	39 7d 08	 cmp	 DWORD PTR ___first$[ebp], edi
  0000d	8b f1		 mov	 esi, ecx
  0000f	0f 84 b6 00 00
	00		 je	 $L104087

; 545  : 	    const size_type __old_size = size();
; 546  : 	    difference_type __n = distance(__first, __last);

  00015	2b 7d 08	 sub	 edi, DWORD PTR ___first$[ebp]
  00018	53		 push	 ebx
  00019	8b 5e 04	 mov	 ebx, DWORD PTR [esi+4]
  0001c	2b 1e		 sub	 ebx, DWORD PTR [esi]

; 547  : 	    if (__STATIC_CAST(size_type,__n) > max_size() || __old_size > max_size() - __STATIC_CAST(size_type,__n))

  0001e	83 ff fe	 cmp	 edi, -2			; fffffffeH
  00021	89 5d f8	 mov	 DWORD PTR ___old_size$104074[ebp], ebx
  00024	77 09		 ja	 SHORT $L104079
  00026	6a fe		 push	 -2			; fffffffeH
  00028	58		 pop	 eax
  00029	2b c7		 sub	 eax, edi
  0002b	3b d8		 cmp	 ebx, eax
  0002d	76 07		 jbe	 SHORT $L104078
$L104079:

; 548  : 	      this->_M_throw_length_error();

  0002f	8b ce		 mov	 ecx, esi
  00031	e8 00 00 00 00	 call	 ?_M_throw_length_error@?$_String_base@DV?$allocator@D@_STL@@@_STL@@QBEXXZ ; _STL::_String_base<char,_STL::allocator<char> >::_M_throw_length_error
$L104078:

; 549  : 	    if (__old_size + __n > capacity()) {

  00036	8b 46 08	 mov	 eax, DWORD PTR [esi+8]
  00039	2b 06		 sub	 eax, DWORD PTR [esi]
  0003b	8d 0c 1f	 lea	 ecx, DWORD PTR [edi+ebx]
  0003e	48		 dec	 eax
  0003f	3b c8		 cmp	 ecx, eax
  00041	76 5e		 jbe	 SHORT $L104080

; 550  : 	      const size_type __len = __old_size +
; 551  : 	                            (max)(__old_size, __STATIC_CAST(size_type,__n)) + 1;

  00043	3b df		 cmp	 ebx, edi
  00045	89 7d fc	 mov	 DWORD PTR $T107594[ebp], edi
  00048	8d 45 fc	 lea	 eax, DWORD PTR $T107594[ebp]
  0004b	72 03		 jb	 SHORT $L107638
  0004d	8d 45 f8	 lea	 eax, DWORD PTR ___old_size$104074[ebp]
$L107638:
  00050	8b 00		 mov	 eax, DWORD PTR [eax]
  00052	8d 5c 18 01	 lea	 ebx, DWORD PTR [eax+ebx+1]

; 552  : 	      pointer __new_start = this->_M_end_of_storage.allocate(__len);

  00056	85 db		 test	 ebx, ebx
  00058	89 5d f8	 mov	 DWORD PTR ___len$104081[ebp], ebx
  0005b	74 0b		 je	 SHORT $L107644
  0005d	53		 push	 ebx
  0005e	e8 00 00 00 00	 call	 ?allocate@?$__node_alloc@$00$0A@@_STL@@SAPAXI@Z ; _STL::__node_alloc<1,0>::allocate
  00063	59		 pop	 ecx
  00064	8b f8		 mov	 edi, eax
  00066	eb 02		 jmp	 SHORT $L107645
$L107644:
  00068	33 ff		 xor	 edi, edi
$L107645:

; 553  : 	      pointer __new_finish = __new_start;
; 554  : 	      _STLP_TRY {
; 555  : 	        __new_finish = uninitialized_copy(this->_M_start, this->_M_finish, __new_start);

  0006a	8b 46 04	 mov	 eax, DWORD PTR [esi+4]
  0006d	8b 0e		 mov	 ecx, DWORD PTR [esi]
  0006f	57		 push	 edi
  00070	50		 push	 eax
  00071	51		 push	 ecx
  00072	e8 00 00 00 00	 call	 ?__copy_trivial@_STL@@YAPAXPBX0PAX@Z ; _STL::__copy_trivial

; 556  : 	        __new_finish = uninitialized_copy(__first, __last, __new_finish);

  00077	50		 push	 eax
  00078	ff 75 0c	 push	 DWORD PTR ___last$[ebp]
  0007b	ff 75 08	 push	 DWORD PTR ___first$[ebp]
  0007e	e8 00 00 00 00	 call	 ?__copy_trivial@_STL@@YAPAXPBX0PAX@Z ; _STL::__copy_trivial
  00083	8b d8		 mov	 ebx, eax
  00085	83 c4 18	 add	 esp, 24			; 00000018H

; 557  : 	        _M_construct_null(__new_finish);
; 558  : 	      }
; 559  : 	      _STLP_UNWIND((_STLP_STD::_Destroy(__new_start,__new_finish),
; 560  : 	                    this->_M_end_of_storage.deallocate(__new_start,__len)));
; 561  : 	      _STLP_STD::_Destroy(this->_M_start, this->_M_finish + 1);
; 562  : 	      this->_M_deallocate_block();

  00088	8b ce		 mov	 ecx, esi
  0008a	c6 03 00	 mov	 BYTE PTR [ebx], 0
  0008d	e8 00 00 00 00	 call	 ?_M_deallocate_block@?$_String_base@DV?$allocator@D@_STL@@@_STL@@QAEXXZ ; _STL::_String_base<char,_STL::allocator<char> >::_M_deallocate_block

; 563  : 	      this->_M_start = __new_start;
; 564  : 	      this->_M_finish = __new_finish;
; 565  : 	      this->_M_end_of_storage._M_data = __new_start + __len; 

  00092	8b 45 f8	 mov	 eax, DWORD PTR ___len$104081[ebp]
  00095	89 3e		 mov	 DWORD PTR [esi], edi
  00097	03 f8		 add	 edi, eax
  00099	89 5e 04	 mov	 DWORD PTR [esi+4], ebx
  0009c	89 7e 08	 mov	 DWORD PTR [esi+8], edi

; 566  : 	    }
; 567  : 	    else {

  0009f	eb 29		 jmp	 SHORT $L107921
$L104080:

; 568  : 	      _ForwardIter __f1 = __first;
; 569  : 	      ++__f1;
; 570  : 	      uninitialized_copy(__f1, __last, this->_M_finish + 1);

  000a1	8b 46 04	 mov	 eax, DWORD PTR [esi+4]
  000a4	40		 inc	 eax
  000a5	50		 push	 eax
  000a6	8b 45 08	 mov	 eax, DWORD PTR ___first$[ebp]
  000a9	ff 75 0c	 push	 DWORD PTR ___last$[ebp]
  000ac	40		 inc	 eax
  000ad	50		 push	 eax
  000ae	e8 00 00 00 00	 call	 ?__copy_trivial@_STL@@YAPAXPBX0PAX@Z ; _STL::__copy_trivial

; 571  : 	      _STLP_TRY {
; 572  : 	        _M_construct_null(this->_M_finish + __n);

  000b3	8b 46 04	 mov	 eax, DWORD PTR [esi+4]

; 573  : 	      }
; 574  : 	      _STLP_UNWIND(_STLP_STD::_Destroy(this->_M_finish + 1, this->_M_finish + __n));
; 575  : 	      _Traits::assign(*end(), *__first);

  000b6	8b 4d 08	 mov	 ecx, DWORD PTR ___first$[ebp]
  000b9	c6 04 07 00	 mov	 BYTE PTR [edi+eax], 0
  000bd	8b 46 04	 mov	 eax, DWORD PTR [esi+4]
  000c0	8a 09		 mov	 cl, BYTE PTR [ecx]
  000c2	83 c4 0c	 add	 esp, 12			; 0000000cH
  000c5	88 08		 mov	 BYTE PTR [eax], cl

; 576  : 	      this->_M_finish += __n;

  000c7	01 7e 04	 add	 DWORD PTR [esi+4], edi
$L107921:
  000ca	5b		 pop	 ebx
$L104087:
  000cb	5f		 pop	 edi

; 577  : 	    }
; 578  : 	  }
; 579  : 	  return *this;  

  000cc	8b c6		 mov	 eax, esi
  000ce	5e		 pop	 esi

; 580  : 	}

  000cf	c9		 leave
  000d0	c2 0c 00	 ret	 12			; 0000000cH
??$append@PAD@?$basic_string@DV?$char_traits@D@_STL@@V?$allocator@D@2@@_STL@@AAEAAV01@PAD0ABUforward_iterator_tag@1@@Z ENDP ; _STL::basic_string<char,_STL::char_traits<char>,_STL::allocator<char> >::append<char *>
_TEXT	ENDS
PUBLIC	??$insert@PBD@?$basic_string@DV?$char_traits@D@_STL@@V?$allocator@D@2@@_STL@@AAEXPADPBD1ABUforward_iterator_tag@1@@Z ; _STL::basic_string<char,_STL::char_traits<char>,_STL::allocator<char> >::insert<char const *>
; Function compile flags: /Ogsy
;	COMDAT ??$insert@PBD@?$basic_string@DV?$char_traits@D@_STL@@V?$allocator@D@2@@_STL@@AAEXPADPBD1ABUforward_iterator_tag@1@@Z
_TEXT	SEGMENT
$T107924 = -8						; size = 4
___len$104416 = -8					; size = 4
___mid$104412 = -8					; size = 4
tv397 = -4						; size = 4
___old_size$104415 = -4					; size = 4
___position$ = 8					; size = 4
___first$ = 12						; size = 4
___last$ = 16						; size = 4
___formal$ = 20						; size = 4
??$insert@PBD@?$basic_string@DV?$char_traits@D@_STL@@V?$allocator@D@2@@_STL@@AAEXPADPBD1ABUforward_iterator_tag@1@@Z PROC NEAR ; _STL::basic_string<char,_STL::char_traits<char>,_STL::allocator<char> >::insert<char const *>, COMDAT
; _this$ = ecx

; 757  :   void insert(iterator __position, _ForwardIter __first, _ForwardIter __last, 

  00000	55		 push	 ebp
  00001	8b ec		 mov	 ebp, esp
  00003	51		 push	 ecx
  00004	51		 push	 ecx
  00005	56		 push	 esi
  00006	57		 push	 edi

; 758  : 	      const forward_iterator_tag &)  {
; 759  :     if (__first != __last) {

  00007	8b 7d 10	 mov	 edi, DWORD PTR ___last$[ebp]
  0000a	8b f1		 mov	 esi, ecx
  0000c	8b 4d 0c	 mov	 ecx, DWORD PTR ___first$[ebp]
  0000f	3b cf		 cmp	 ecx, edi
  00011	0f 84 fe 00 00
	00		 je	 $L104414

; 760  :       difference_type __n = distance(__first, __last);
; 761  :       if (this->_M_end_of_storage._M_data - this->_M_finish >= __n + 1) {

  00017	8b 46 08	 mov	 eax, DWORD PTR [esi+8]
  0001a	53		 push	 ebx
  0001b	8b 5e 04	 mov	 ebx, DWORD PTR [esi+4]
  0001e	2b f9		 sub	 edi, ecx
  00020	2b c3		 sub	 eax, ebx
  00022	8d 57 01	 lea	 edx, DWORD PTR [edi+1]
  00025	3b c2		 cmp	 eax, edx
  00027	7c 7e		 jl	 SHORT $L104407

; 762  : 	const difference_type __elems_after = this->_M_finish - __position;

  00029	2b 5d 08	 sub	 ebx, DWORD PTR ___position$[ebp]

; 763  : 	pointer __old_finish = this->_M_finish;

  0002c	8b 46 04	 mov	 eax, DWORD PTR [esi+4]

; 764  : 	if (__elems_after >= __n) {

  0002f	3b df		 cmp	 ebx, edi
  00031	7c 3e		 jl	 SHORT $L104410

; 765  : 	  uninitialized_copy((this->_M_finish - __n) + 1, this->_M_finish + 1,
; 766  : 			     this->_M_finish + 1);

  00033	8d 48 01	 lea	 ecx, DWORD PTR [eax+1]
  00036	51		 push	 ecx
  00037	2b c7		 sub	 eax, edi
  00039	51		 push	 ecx
  0003a	40		 inc	 eax
  0003b	50		 push	 eax
  0003c	e8 00 00 00 00	 call	 ?__copy_trivial@_STL@@YAPAXPBX0PAX@Z ; _STL::__copy_trivial

; 767  : 	  this->_M_finish += __n;

  00041	01 7e 04	 add	 DWORD PTR [esi+4], edi

; 768  : 	  _Traits::move(__position + __n,
; 769  : 			__position, (__elems_after - __n) + 1);

  00044	2b df		 sub	 ebx, edi
  00046	83 c4 0c	 add	 esp, 12			; 0000000cH
  00049	43		 inc	 ebx
  0004a	74 10		 je	 SHORT $L108319
  0004c	8b 45 08	 mov	 eax, DWORD PTR ___position$[ebp]
  0004f	53		 push	 ebx
  00050	50		 push	 eax
  00051	03 f8		 add	 edi, eax
  00053	57		 push	 edi
  00054	e8 00 00 00 00	 call	 _memmove
  00059	83 c4 0c	 add	 esp, 12			; 0000000cH
$L108319:

; 770  : 	  _M_move(__first, __last, __position);

  0005c	ff 75 08	 push	 DWORD PTR ___position$[ebp]
  0005f	ff 75 10	 push	 DWORD PTR ___last$[ebp]
$L108321:
  00062	ff 75 0c	 push	 DWORD PTR ___first$[ebp]
  00065	8b ce		 mov	 ecx, esi
  00067	e8 00 00 00 00	 call	 ?_M_move@?$basic_string@DV?$char_traits@D@_STL@@V?$allocator@D@2@@_STL@@AAEXPBD0PAD@Z ; _STL::basic_string<char,_STL::char_traits<char>,_STL::allocator<char> >::_M_move

; 771  : 	      }
; 772  : 	else {

  0006c	e9 a3 00 00 00	 jmp	 $L108320
$L104410:

; 773  : 	  _ForwardIter __mid = __first;
; 774  : 	  advance(__mid, __elems_after + 1);
; 775  : 	  uninitialized_copy(__mid, __last, this->_M_finish + 1);

  00071	40		 inc	 eax
  00072	50		 push	 eax
  00073	ff 75 10	 push	 DWORD PTR ___last$[ebp]
  00076	8d 4c 0b 01	 lea	 ecx, DWORD PTR [ebx+ecx+1]
  0007a	51		 push	 ecx
  0007b	89 4d f8	 mov	 DWORD PTR ___mid$104412[ebp], ecx
  0007e	89 45 fc	 mov	 DWORD PTR tv397[ebp], eax
  00081	e8 00 00 00 00	 call	 ?__copy_trivial@_STL@@YAPAXPBX0PAX@Z ; _STL::__copy_trivial

; 776  : 	  this->_M_finish += __n - __elems_after;

  00086	2b fb		 sub	 edi, ebx
  00088	01 7e 04	 add	 DWORD PTR [esi+4], edi

; 777  : 	        _STLP_TRY {
; 778  : 	          uninitialized_copy(__position, __old_finish + 1, this->_M_finish);

  0008b	ff 76 04	 push	 DWORD PTR [esi+4]
  0008e	ff 75 fc	 push	 DWORD PTR tv397[ebp]
  00091	ff 75 08	 push	 DWORD PTR ___position$[ebp]
  00094	e8 00 00 00 00	 call	 ?__copy_trivial@_STL@@YAPAXPBX0PAX@Z ; _STL::__copy_trivial
  00099	83 c4 18	 add	 esp, 24			; 00000018H

; 779  : 	          this->_M_finish += __elems_after;
; 780  : 	        }
; 781  : 	        _STLP_UNWIND((_STLP_STD::_Destroy(__old_finish + 1, this->_M_finish), 
; 782  : 	                      this->_M_finish = __old_finish));
; 783  : 	        _M_move(__first, __mid, __position);

  0009c	ff 75 08	 push	 DWORD PTR ___position$[ebp]
  0009f	01 5e 04	 add	 DWORD PTR [esi+4], ebx
  000a2	ff 75 f8	 push	 DWORD PTR ___mid$104412[ebp]

; 784  : 	}
; 785  :       }
; 786  :       else {

  000a5	eb bb		 jmp	 SHORT $L108321
$L104407:

; 787  : 	const size_type __old_size = size();        

  000a7	2b 1e		 sub	 ebx, DWORD PTR [esi]

; 788  : 	const size_type __len
; 789  : 	  = __old_size + (max)(__old_size, __STATIC_CAST(size_type,__n)) + 1;

  000a9	89 7d f8	 mov	 DWORD PTR $T107924[ebp], edi
  000ac	3b df		 cmp	 ebx, edi
  000ae	89 5d fc	 mov	 DWORD PTR ___old_size$104415[ebp], ebx
  000b1	8d 45 f8	 lea	 eax, DWORD PTR $T107924[ebp]
  000b4	72 03		 jb	 SHORT $L108133
  000b6	8d 45 fc	 lea	 eax, DWORD PTR ___old_size$104415[ebp]
$L108133:
  000b9	8b 00		 mov	 eax, DWORD PTR [eax]
  000bb	8d 44 18 01	 lea	 eax, DWORD PTR [eax+ebx+1]

; 790  : 	      pointer __new_start = this->_M_end_of_storage.allocate(__len);

  000bf	85 c0		 test	 eax, eax
  000c1	89 45 f8	 mov	 DWORD PTR ___len$104416[ebp], eax
  000c4	74 0b		 je	 SHORT $L108139
  000c6	50		 push	 eax
  000c7	e8 00 00 00 00	 call	 ?allocate@?$__node_alloc@$00$0A@@_STL@@SAPAXI@Z ; _STL::__node_alloc<1,0>::allocate
  000cc	59		 pop	 ecx
  000cd	8b f8		 mov	 edi, eax
  000cf	eb 02		 jmp	 SHORT $L108140
$L108139:
  000d1	33 ff		 xor	 edi, edi
$L108140:

; 791  : 	      pointer __new_finish = __new_start;
; 792  : 	      _STLP_TRY {
; 793  : 	        __new_finish = uninitialized_copy(this->_M_start, __position, __new_start);

  000d3	8b 06		 mov	 eax, DWORD PTR [esi]
  000d5	57		 push	 edi
  000d6	ff 75 08	 push	 DWORD PTR ___position$[ebp]
  000d9	50		 push	 eax
  000da	e8 00 00 00 00	 call	 ?__copy_trivial@_STL@@YAPAXPBX0PAX@Z ; _STL::__copy_trivial

; 794  : 	        __new_finish = uninitialized_copy(__first, __last, __new_finish);

  000df	50		 push	 eax
  000e0	ff 75 10	 push	 DWORD PTR ___last$[ebp]
  000e3	ff 75 0c	 push	 DWORD PTR ___first$[ebp]
  000e6	e8 00 00 00 00	 call	 ?__copy_trivial@_STL@@YAPAXPBX0PAX@Z ; _STL::__copy_trivial

; 795  : 	        __new_finish
; 796  : 	          = uninitialized_copy(__position, this->_M_finish, __new_finish);

  000eb	8b 4e 04	 mov	 ecx, DWORD PTR [esi+4]
  000ee	50		 push	 eax
  000ef	51		 push	 ecx
  000f0	ff 75 08	 push	 DWORD PTR ___position$[ebp]
  000f3	e8 00 00 00 00	 call	 ?__copy_trivial@_STL@@YAPAXPBX0PAX@Z ; _STL::__copy_trivial
  000f8	8b d8		 mov	 ebx, eax
  000fa	83 c4 24	 add	 esp, 36			; 00000024H

; 797  : 	        _M_construct_null(__new_finish);
; 798  : 	      }
; 799  : 	      _STLP_UNWIND((_STLP_STD::_Destroy(__new_start,__new_finish),
; 800  : 	                    this->_M_end_of_storage.deallocate(__new_start,__len)));
; 801  : 	      _STLP_STD::_Destroy(this->_M_start, this->_M_finish + 1);
; 802  : 	      this->_M_deallocate_block();

  000fd	8b ce		 mov	 ecx, esi
  000ff	c6 03 00	 mov	 BYTE PTR [ebx], 0
  00102	e8 00 00 00 00	 call	 ?_M_deallocate_block@?$_String_base@DV?$allocator@D@_STL@@@_STL@@QAEXXZ ; _STL::_String_base<char,_STL::allocator<char> >::_M_deallocate_block

; 803  : 	      this->_M_start = __new_start;
; 804  : 	      this->_M_finish = __new_finish;
; 805  : 	      this->_M_end_of_storage._M_data = __new_start + __len; 

  00107	8b 45 f8	 mov	 eax, DWORD PTR ___len$104416[ebp]
  0010a	89 3e		 mov	 DWORD PTR [esi], edi
  0010c	03 f8		 add	 edi, eax
  0010e	89 5e 04	 mov	 DWORD PTR [esi+4], ebx
  00111	89 7e 08	 mov	 DWORD PTR [esi+8], edi
$L108320:
  00114	5b		 pop	 ebx
$L104414:
  00115	5f		 pop	 edi
  00116	5e		 pop	 esi

; 806  : 	    }
; 807  :     }
; 808  :   }

  00117	c9		 leave
  00118	c2 10 00	 ret	 16			; 00000010H
??$insert@PBD@?$basic_string@DV?$char_traits@D@_STL@@V?$allocator@D@2@@_STL@@AAEXPADPBD1ABUforward_iterator_tag@1@@Z ENDP ; _STL::basic_string<char,_STL::char_traits<char>,_STL::allocator<char> >::insert<char const *>
_TEXT	ENDS
PUBLIC	??1?$_String_base@DV?$allocator@D@_STL@@@_STL@@QAE@XZ ; _STL::_String_base<char,_STL::allocator<char> >::~_String_base<char,_STL::allocator<char> >
; Function compile flags: /Ogsy
;	COMDAT ??1?$_String_base@DV?$allocator@D@_STL@@@_STL@@QAE@XZ
_TEXT	SEGMENT
??1?$_String_base@DV?$allocator@D@_STL@@@_STL@@QAE@XZ PROC NEAR ; _STL::_String_base<char,_STL::allocator<char> >::~_String_base<char,_STL::allocator<char> >, COMDAT
; _this$ = ecx

; 135  :   ~_String_base() { _M_deallocate_block(); }

  00000	e9 00 00 00 00	 jmp	 ?_M_deallocate_block@?$_String_base@DV?$allocator@D@_STL@@@_STL@@QAEXXZ ; _STL::_String_base<char,_STL::allocator<char> >::_M_deallocate_block
??1?$_String_base@DV?$allocator@D@_STL@@@_STL@@QAE@XZ ENDP ; _STL::_String_base<char,_STL::allocator<char> >::~_String_base<char,_STL::allocator<char> >
_TEXT	ENDS
PUBLIC	??0?$basic_string@DV?$char_traits@D@_STL@@V?$allocator@D@2@@_STL@@QAE@XZ ; _STL::basic_string<char,_STL::char_traits<char>,_STL::allocator<char> >::basic_string<char,_STL::char_traits<char>,_STL::allocator<char> >
;	COMDAT xdata$x
xdata$x	SEGMENT
$T108373 DD	0ffffffffH
	DD	FLAT:$L108328
$T108371 DD	019930520H
	DD	01H
	DD	FLAT:$T108373
	DD	2 DUP(00H)
	DD	2 DUP(00H)
; Function compile flags: /Ogsy
; File c:\stlport-4.6.1\stlport\stl\_string.c
xdata$x	ENDS
;	COMDAT ??0?$basic_string@DV?$char_traits@D@_STL@@V?$allocator@D@2@@_STL@@QAE@XZ
_TEXT	SEGMENT
_this$ = -20						; size = 4
$T108327 = -13						; size = 1
__$EHRec$ = -12						; size = 12
??0?$basic_string@DV?$char_traits@D@_STL@@V?$allocator@D@2@@_STL@@QAE@XZ PROC NEAR ; _STL::basic_string<char,_STL::char_traits<char>,_STL::allocator<char> >::basic_string<char,_STL::char_traits<char>,_STL::allocator<char> >, COMDAT
; _this$ = ecx

; 541  :   : _String_base<_CharT,_Alloc>(allocator_type()) {  

  00000	b8 00 00 00 00	 mov	 eax, __ehhandler$??0?$basic_string@DV?$char_traits@D@_STL@@V?$allocator@D@2@@_STL@@QAE@XZ
  00005	e8 00 00 00 00	 call	 __EH_prolog
  0000a	51		 push	 ecx
  0000b	51		 push	 ecx
  0000c	56		 push	 esi
  0000d	8d 45 f3	 lea	 eax, DWORD PTR $T108327[ebp]
  00010	8b f1		 mov	 esi, ecx
  00012	50		 push	 eax
  00013	89 75 ec	 mov	 DWORD PTR _this$[ebp], esi
  00016	e8 00 00 00 00	 call	 ??0?$_String_base@DV?$allocator@D@_STL@@@_STL@@QAE@ABV?$allocator@D@1@@Z ; _STL::_String_base<char,_STL::allocator<char> >::_String_base<char,_STL::allocator<char> >
  0001b	83 65 fc 00	 and	 DWORD PTR __$EHRec$[ebp+8], 0

; 542  :   this->_M_start = this->_M_end_of_storage.allocate(8); 

  0001f	6a 08		 push	 8
  00021	e8 00 00 00 00	 call	 ?_M_allocate@?$__node_alloc@$00$0A@@_STL@@CAPAXI@Z ; _STL::__node_alloc<1,0>::_M_allocate
  00026	59		 pop	 ecx

; 543  :   this->_M_finish = this->_M_start; 
; 544  :   this->_M_end_of_storage._M_data = this->_M_start + 8; 

  00027	8d 48 08	 lea	 ecx, DWORD PTR [eax+8]
  0002a	89 06		 mov	 DWORD PTR [esi], eax
  0002c	89 46 04	 mov	 DWORD PTR [esi+4], eax
  0002f	89 4e 08	 mov	 DWORD PTR [esi+8], ecx

; 545  :   _M_terminate_string();  
; 546  : } 

  00032	8b 4d f4	 mov	 ecx, DWORD PTR __$EHRec$[ebp]
  00035	c6 00 00	 mov	 BYTE PTR [eax], 0
  00038	8b c6		 mov	 eax, esi
  0003a	5e		 pop	 esi
  0003b	64 89 0d 00 00
	00 00		 mov	 DWORD PTR fs:__except_list, ecx
  00042	c9		 leave
  00043	c3		 ret	 0
_TEXT	ENDS
;	COMDAT text$x
text$x	SEGMENT
$L108328:
  00000	8b 4d ec	 mov	 ecx, DWORD PTR _this$[ebp]
  00003	e9 00 00 00 00	 jmp	 ??1?$_String_base@DV?$allocator@D@_STL@@@_STL@@QAE@XZ ; _STL::_String_base<char,_STL::allocator<char> >::~_String_base<char,_STL::allocator<char> >
__ehhandler$??0?$basic_string@DV?$char_traits@D@_STL@@V?$allocator@D@2@@_STL@@QAE@XZ:
  00008	b8 00 00 00 00	 mov	 eax, OFFSET FLAT:$T108371
  0000d	e9 00 00 00 00	 jmp	 ___CxxFrameHandler
text$x	ENDS
??0?$basic_string@DV?$char_traits@D@_STL@@V?$allocator@D@2@@_STL@@QAE@XZ ENDP ; _STL::basic_string<char,_STL::char_traits<char>,_STL::allocator<char> >::basic_string<char,_STL::char_traits<char>,_STL::allocator<char> >
PUBLIC	??_R4MHelpMessageManager@@6B@			; MHelpMessageManager::`RTTI Complete Object Locator'
PUBLIC	??_R0?AVMHelpMessageManager@@@8			; MHelpMessageManager `RTTI Type Descriptor'
PUBLIC	??_R3MHelpMessageManager@@8			; MHelpMessageManager::`RTTI Class Hierarchy Descriptor'
PUBLIC	??_R2MHelpMessageManager@@8			; MHelpMessageManager::`RTTI Base Class Array'
PUBLIC	??_R1A@?0A@A@MHelpMessageManager@@8		; MHelpMessageManager::`RTTI Base Class Descriptor at (0,-1,0,0)'
PUBLIC	??1MHelpMessageManager@@UAE@XZ			; MHelpMessageManager::~MHelpMessageManager
PUBLIC	??_7MHelpMessageManager@@6B@			; MHelpMessageManager::`vftable'
PUBLIC	??_GMHelpMessageManager@@UAEPAXI@Z		; MHelpMessageManager::`scalar deleting destructor'
EXTRN	??1CRarFile@@QAE@XZ:NEAR			; CRarFile::~CRarFile
EXTRN	??_EMHelpMessageManager@@UAEPAXI@Z:NEAR		; MHelpMessageManager::`vector deleting destructor'
;	COMDAT xdata$x
; File c:\darkeden\designed_common\project\client\mhelpmessagemanager.cpp
xdata$x	SEGMENT
$T108384 DD	0ffffffffH
	DD	FLAT:$L108378
	DD	00H
	DD	FLAT:$L108379
$T108382 DD	019930520H
	DD	02H
	DD	FLAT:$T108384
	DD	2 DUP(00H)
	DD	2 DUP(00H)
xdata$x	ENDS
;	COMDAT ??_7MHelpMessageManager@@6B@
CONST	SEGMENT
??_7MHelpMessageManager@@6B@ DD FLAT:??_R4MHelpMessageManager@@6B@ ; MHelpMessageManager::`vftable'
	DD	FLAT:??_EMHelpMessageManager@@UAEPAXI@Z
CONST	ENDS
;	COMDAT ??_R4MHelpMessageManager@@6B@
rdata$r	SEGMENT
??_R4MHelpMessageManager@@6B@ DD 00H			; MHelpMessageManager::`RTTI Complete Object Locator'
	DD	00H
	DD	00H
	DD	FLAT:??_R0?AVMHelpMessageManager@@@8
	DD	FLAT:??_R3MHelpMessageManager@@8
rdata$r	ENDS
;	COMDAT ??_R0?AVMHelpMessageManager@@@8
_DATA	SEGMENT
??_R0?AVMHelpMessageManager@@@8 DD FLAT:??_7type_info@@6B@ ; MHelpMessageManager `RTTI Type Descriptor'
	DD	00H
	DB	'.?AVMHelpMessageManager@@', 00H
_DATA	ENDS
;	COMDAT ??_R3MHelpMessageManager@@8
rdata$r	SEGMENT
??_R3MHelpMessageManager@@8 DD 00H			; MHelpMessageManager::`RTTI Class Hierarchy Descriptor'
	DD	00H
	DD	01H
	DD	FLAT:??_R2MHelpMessageManager@@8
rdata$r	ENDS
;	COMDAT ??_R2MHelpMessageManager@@8
rdata$r	SEGMENT
??_R2MHelpMessageManager@@8 DD FLAT:??_R1A@?0A@A@MHelpMessageManager@@8 ; MHelpMessageManager::`RTTI Base Class Array'
rdata$r	ENDS
;	COMDAT ??_R1A@?0A@A@MHelpMessageManager@@8
rdata$r	SEGMENT
??_R1A@?0A@A@MHelpMessageManager@@8 DD FLAT:??_R0?AVMHelpMessageManager@@@8 ; MHelpMessageManager::`RTTI Base Class Descriptor at (0,-1,0,0)'
	DD	00H
	DD	00H
	DD	0ffffffffH
	DD	00H
	DD	00H
; Function compile flags: /Ogsy
rdata$r	ENDS
;	COMDAT ??1MHelpMessageManager@@UAE@XZ
_TEXT	SEGMENT
_this$ = -16						; size = 4
__$EHRec$ = -12						; size = 12
??1MHelpMessageManager@@UAE@XZ PROC NEAR		; MHelpMessageManager::~MHelpMessageManager, COMDAT
; _this$ = ecx

; 38   : {

  00000	b8 00 00 00 00	 mov	 eax, __ehhandler$??1MHelpMessageManager@@UAE@XZ
  00005	e8 00 00 00 00	 call	 __EH_prolog
  0000a	51		 push	 ecx
  0000b	56		 push	 esi
  0000c	8b f1		 mov	 esi, ecx
  0000e	89 75 f0	 mov	 DWORD PTR _this$[ebp], esi
  00011	c7 06 00 00 00
	00		 mov	 DWORD PTR [esi], OFFSET FLAT:??_7MHelpMessageManager@@6B@

; 39   : }

  00017	8d 4e 24	 lea	 ecx, DWORD PTR [esi+36]
  0001a	c7 45 fc 01 00
	00 00		 mov	 DWORD PTR __$EHRec$[ebp+8], 1
  00021	e8 00 00 00 00	 call	 ??1CRarFile@@QAE@XZ	; CRarFile::~CRarFile
  00026	8d 4e 10	 lea	 ecx, DWORD PTR [esi+16]
  00029	c6 45 fc 00	 mov	 BYTE PTR __$EHRec$[ebp+8], 0
  0002d	e8 00 00 00 00	 call	 ??1?$vector@VMString@@V?$allocator@VMString@@@_STL@@@_STL@@QAE@XZ ; _STL::vector<MString,_STL::allocator<MString> >::~vector<MString,_STL::allocator<MString> >
  00032	83 4d fc ff	 or	 DWORD PTR __$EHRec$[ebp+8], -1
  00036	8d 4e 04	 lea	 ecx, DWORD PTR [esi+4]
  00039	e8 00 00 00 00	 call	 ??1?$vector@VMHelpMessage@@V?$allocator@VMHelpMessage@@@_STL@@@_STL@@QAE@XZ ; _STL::vector<MHelpMessage,_STL::allocator<MHelpMessage> >::~vector<MHelpMessage,_STL::allocator<MHelpMessage> >
  0003e	8b 4d f4	 mov	 ecx, DWORD PTR __$EHRec$[ebp]
  00041	5e		 pop	 esi
  00042	64 89 0d 00 00
	00 00		 mov	 DWORD PTR fs:__except_list, ecx
  00049	c9		 leave
  0004a	c3		 ret	 0
_TEXT	ENDS
;	COMDAT text$x
text$x	SEGMENT
$L108378:
  00000	8b 4d f0	 mov	 ecx, DWORD PTR _this$[ebp]
  00003	83 c1 04	 add	 ecx, 4
  00006	e9 00 00 00 00	 jmp	 ??1?$vector@VMHelpMessage@@V?$allocator@VMHelpMessage@@@_STL@@@_STL@@QAE@XZ ; _STL::vector<MHelpMessage,_STL::allocator<MHelpMessage> >::~vector<MHelpMessage,_STL::allocator<MHelpMessage> >
$L108379:
  0000b	8b 4d f0	 mov	 ecx, DWORD PTR _this$[ebp]
  0000e	83 c1 10	 add	 ecx, 16			; 00000010H
  00011	e9 00 00 00 00	 jmp	 ??1?$vector@VMString@@V?$allocator@VMString@@@_STL@@@_STL@@QAE@XZ ; _STL::vector<MString,_STL::allocator<MString> >::~vector<MString,_STL::allocator<MString> >
__ehhandler$??1MHelpMessageManager@@UAE@XZ:
  00016	b8 00 00 00 00	 mov	 eax, OFFSET FLAT:$T108382
  0001b	e9 00 00 00 00	 jmp	 ___CxxFrameHandler
text$x	ENDS
??1MHelpMessageManager@@UAE@XZ ENDP			; MHelpMessageManager::~MHelpMessageManager
PUBLIC	??_D?$basic_ofstream@DV?$char_traits@D@_STL@@@_STL@@QAEXXZ ; _STL::basic_ofstream<char,_STL::char_traits<char> >::`vbase destructor'
; Function compile flags: /Ogsy
;	COMDAT ??_D?$basic_ofstream@DV?$char_traits@D@_STL@@@_STL@@QAEXXZ
_TEXT	SEGMENT
??_D?$basic_ofstream@DV?$char_traits@D@_STL@@@_STL@@QAEXXZ PROC NEAR ; _STL::basic_ofstream<char,_STL::char_traits<char> >::`vbase destructor', COMDAT
; _this$ = ecx
  00000	56		 push	 esi
  00001	8d b1 b8 00 00
	00		 lea	 esi, DWORD PTR [ecx+184]
  00007	8b ce		 mov	 ecx, esi
  00009	e8 00 00 00 00	 call	 ??1?$basic_ofstream@DV?$char_traits@D@_STL@@@_STL@@UAE@XZ ; _STL::basic_ofstream<char,_STL::char_traits<char> >::~basic_ofstream<char,_STL::char_traits<char> >
  0000e	8b ce		 mov	 ecx, esi
  00010	5e		 pop	 esi
  00011	e9 00 00 00 00	 jmp	 ??1?$basic_ios@DV?$char_traits@D@_STL@@@_STL@@UAE@XZ ; _STL::basic_ios<char,_STL::char_traits<char> >::~basic_ios<char,_STL::char_traits<char> >
??_D?$basic_ofstream@DV?$char_traits@D@_STL@@@_STL@@QAEXXZ ENDP ; _STL::basic_ofstream<char,_STL::char_traits<char> >::`vbase destructor'
; Function compile flags: /Ogsy
_TEXT	ENDS
;	COMDAT ??_G?$basic_ofstream@DV?$char_traits@D@_STL@@@_STL@@UAEPAXI@Z
_TEXT	SEGMENT
___flags$ = 8						; size = 4
??_G?$basic_ofstream@DV?$char_traits@D@_STL@@@_STL@@UAEPAXI@Z PROC NEAR ; _STL::basic_ofstream<char,_STL::char_traits<char> >::`scalar deleting destructor', COMDAT
; _this$ = ecx
  00000	56		 push	 esi
  00001	8d b1 48 ff ff
	ff		 lea	 esi, DWORD PTR [ecx-184]
  00007	8b ce		 mov	 ecx, esi
  00009	e8 00 00 00 00	 call	 ??_D?$basic_ofstream@DV?$char_traits@D@_STL@@@_STL@@QAEXXZ
  0000e	f6 44 24 08 01	 test	 BYTE PTR ___flags$[esp], 1
  00013	74 07		 je	 SHORT $L102355
  00015	56		 push	 esi
  00016	e8 00 00 00 00	 call	 ??3@YAXPAX@Z		; operator delete
  0001b	59		 pop	 ecx
$L102355:
  0001c	8b c6		 mov	 eax, esi
  0001e	5e		 pop	 esi
  0001f	c2 04 00	 ret	 4
??_G?$basic_ofstream@DV?$char_traits@D@_STL@@@_STL@@UAEPAXI@Z ENDP ; _STL::basic_ofstream<char,_STL::char_traits<char> >::`scalar deleting destructor'
_TEXT	ENDS
PUBLIC	?_M_insert_overflow@?$vector@VMHelpMessage@@V?$allocator@VMHelpMessage@@@_STL@@@_STL@@IAEXPAVMHelpMessage@@ABV3@ABU__false_type@2@I_N@Z ; _STL::vector<MHelpMessage,_STL::allocator<MHelpMessage> >::_M_insert_overflow
;	COMDAT xdata$x
; File c:\stlport-4.6.1\stlport\stl\_vector.h
xdata$x	SEGMENT
$T108420 DD	0ffffffffH
	DD	00H
	DD	0ffffffffH
	DD	00H
$T108422 DD	00H
	DD	00H
	DD	00H
	DD	FLAT:$L108400
$T108421 DD	00H
	DD	00H
	DD	01H
	DD	01H
	DD	FLAT:$T108422
$T108417 DD	019930520H
	DD	02H
	DD	FLAT:$T108420
	DD	01H
	DD	FLAT:$T108421
	DD	2 DUP(00H)
; Function compile flags: /Ogsy
xdata$x	ENDS
;	COMDAT ?_M_insert_overflow@?$vector@VMHelpMessage@@V?$allocator@VMHelpMessage@@@_STL@@@_STL@@IAEXPAVMHelpMessage@@ABV3@ABU__false_type@2@I_N@Z
_TEXT	SEGMENT
_this$ = -36						; size = 4
___len$ = -32						; size = 4
tv203 = -28						; size = 4
___new_start$ = -24					; size = 4
___old_size$ = -24					; size = 4
___new_finish$ = -20					; size = 4
__$EHRec$ = -16						; size = 16
___position$ = 8					; size = 4
___x$ = 12						; size = 4
___formal$ = 16						; size = 4
___fill_len$ = 20					; size = 4
___atend$ = 24						; size = 1
$T108398 = 27						; size = 1
$T108397 = 27						; size = 1
$T108396 = 27						; size = 1
?_M_insert_overflow@?$vector@VMHelpMessage@@V?$allocator@VMHelpMessage@@@_STL@@@_STL@@IAEXPAVMHelpMessage@@ABV3@ABU__false_type@2@I_N@Z PROC NEAR ; _STL::vector<MHelpMessage,_STL::allocator<MHelpMessage> >::_M_insert_overflow, COMDAT
; _this$ = ecx

; 126  : 			  size_type __fill_len, bool __atend = false) {

  00000	b8 00 00 00 00	 mov	 eax, __ehhandler$?_M_insert_overflow@?$vector@VMHelpMessage@@V?$allocator@VMHelpMessage@@@_STL@@@_STL@@IAEXPAVMHelpMessage@@ABV3@ABU__false_type@2@I_N@Z
  00005	e8 00 00 00 00	 call	 __EH_prolog
  0000a	83 ec 18	 sub	 esp, 24			; 00000018H
  0000d	53		 push	 ebx
  0000e	56		 push	 esi
  0000f	57		 push	 edi
  00010	8b f9		 mov	 edi, ecx

; 127  :     const size_type __old_size = size();

  00012	8b 47 04	 mov	 eax, DWORD PTR [edi+4]
  00015	2b 07		 sub	 eax, DWORD PTR [edi]
  00017	b9 bc 00 00 00	 mov	 ecx, 188		; 000000bcH
  0001c	99		 cdq
  0001d	f7 f9		 idiv	 ecx
  0001f	89 65 f0	 mov	 DWORD PTR __$EHRec$[ebp], esp
  00022	89 7d dc	 mov	 DWORD PTR _this$[ebp], edi

; 128  :     const size_type __len = __old_size + (max)(__old_size, __fill_len);

  00025	8d 4d 14	 lea	 ecx, DWORD PTR ___fill_len$[ebp]
  00028	3b 45 14	 cmp	 eax, DWORD PTR ___fill_len$[ebp]
  0002b	89 45 e8	 mov	 DWORD PTR ___old_size$[ebp], eax
  0002e	72 03		 jb	 SHORT $L108412
  00030	8d 4d e8	 lea	 ecx, DWORD PTR ___old_size$[ebp]
$L108412:
  00033	8b 31		 mov	 esi, DWORD PTR [ecx]
  00035	03 f0		 add	 esi, eax

; 129  :     
; 130  :     pointer __new_start = this->_M_end_of_storage.allocate(__len);

  00037	6a 00		 push	 0
  00039	8d 4f 08	 lea	 ecx, DWORD PTR [edi+8]
  0003c	56		 push	 esi
  0003d	89 75 e0	 mov	 DWORD PTR ___len$[ebp], esi
  00040	89 4d e4	 mov	 DWORD PTR tv203[ebp], ecx
  00043	e8 00 00 00 00	 call	 ?allocate@?$allocator@VMHelpMessage@@@_STL@@QAEPAVMHelpMessage@@IPBX@Z ; _STL::allocator<MHelpMessage>::allocate

; 131  :     pointer __new_finish = __new_start;
; 132  :     _STLP_TRY {

  00048	83 65 fc 00	 and	 DWORD PTR __$EHRec$[ebp+12], 0
  0004c	8b d8		 mov	 ebx, eax

; 133  :       __new_finish = __uninitialized_copy(this->_M_start, __position, __new_start, __false_type());

  0004e	8d 45 1b	 lea	 eax, DWORD PTR $T108396[ebp]
  00051	50		 push	 eax
  00052	53		 push	 ebx
  00053	ff 75 08	 push	 DWORD PTR ___position$[ebp]
  00056	89 5d e8	 mov	 DWORD PTR ___new_start$[ebp], ebx
  00059	ff 37		 push	 DWORD PTR [edi]
  0005b	89 5d ec	 mov	 DWORD PTR ___new_finish$[ebp], ebx
  0005e	e8 00 00 00 00	 call	 ??$__uninitialized_copy@PAVMHelpMessage@@PAV1@@_STL@@YAPAVMHelpMessage@@PAV1@00ABU__false_type@0@@Z ; _STL::__uninitialized_copy<MHelpMessage *,MHelpMessage *>
  00063	83 c4 10	 add	 esp, 16			; 00000010H

; 134  :       // handle insertion
; 135  :       if (__fill_len == 1) {

  00066	83 7d 14 01	 cmp	 DWORD PTR ___fill_len$[ebp], 1
  0006a	89 45 ec	 mov	 DWORD PTR ___new_finish$[ebp], eax
  0006d	75 14		 jne	 SHORT $L102415

; 136  :         _Construct(__new_finish, __x);

  0006f	ff 75 0c	 push	 DWORD PTR ___x$[ebp]
  00072	50		 push	 eax
  00073	e8 00 00 00 00	 call	 ??$_Construct@VMHelpMessage@@V1@@_STL@@YAXPAVMHelpMessage@@ABV1@@Z ; _STL::_Construct<MHelpMessage,MHelpMessage>

; 137  :         ++__new_finish;

  00078	81 45 ec bc 00
	00 00		 add	 DWORD PTR ___new_finish$[ebp], 188 ; 000000bcH
  0007f	59		 pop	 ecx
  00080	59		 pop	 ecx

; 138  :       } else

  00081	eb 16		 jmp	 SHORT $L102416
$L102415:

; 139  :         __new_finish = __uninitialized_fill_n(__new_finish, __fill_len, __x, __false_type());

  00083	8d 4d 1b	 lea	 ecx, DWORD PTR $T108397[ebp]
  00086	51		 push	 ecx
  00087	ff 75 0c	 push	 DWORD PTR ___x$[ebp]
  0008a	ff 75 14	 push	 DWORD PTR ___fill_len$[ebp]
  0008d	50		 push	 eax
  0008e	e8 00 00 00 00	 call	 ??$__uninitialized_fill_n@PAVMHelpMessage@@IV1@@_STL@@YAPAVMHelpMessage@@PAV1@IABV1@ABU__false_type@0@@Z ; _STL::__uninitialized_fill_n<MHelpMessage *,unsigned int,MHelpMessage>
  00093	83 c4 10	 add	 esp, 16			; 00000010H
  00096	89 45 ec	 mov	 DWORD PTR ___new_finish$[ebp], eax
$L102416:

; 140  :       if (!__atend)

  00099	80 7d 18 00	 cmp	 BYTE PTR ___atend$[ebp], 0
  0009d	75 18		 jne	 SHORT $L102436

; 141  :         // copy remainder
; 142  :         __new_finish = __uninitialized_copy(__position, this->_M_finish, __new_finish, __false_type());

  0009f	8d 45 1b	 lea	 eax, DWORD PTR $T108398[ebp]
  000a2	50		 push	 eax
  000a3	ff 75 ec	 push	 DWORD PTR ___new_finish$[ebp]
  000a6	ff 77 04	 push	 DWORD PTR [edi+4]
  000a9	ff 75 08	 push	 DWORD PTR ___position$[ebp]
  000ac	e8 00 00 00 00	 call	 ??$__uninitialized_copy@PAVMHelpMessage@@PAV1@@_STL@@YAPAVMHelpMessage@@PAV1@00ABU__false_type@0@@Z ; _STL::__uninitialized_copy<MHelpMessage *,MHelpMessage *>
  000b1	83 c4 10	 add	 esp, 16			; 00000010H
  000b4	89 45 ec	 mov	 DWORD PTR ___new_finish$[ebp], eax
$L102436:

; 145  :                   this->_M_end_of_storage.deallocate(__new_start,__len)));

  000b7	83 4d fc ff	 or	 DWORD PTR __$EHRec$[ebp+12], -1

; 146  :     _M_clear();

  000bb	8b cf		 mov	 ecx, edi
  000bd	e8 00 00 00 00	 call	 ?_M_clear@?$vector@VMHelpMessage@@V?$allocator@VMHelpMessage@@@_STL@@@_STL@@IAEXXZ ; _STL::vector<MHelpMessage,_STL::allocator<MHelpMessage> >::_M_clear

; 147  :     _M_set(__new_start, __new_finish, __new_start + __len);

  000c2	69 f6 bc 00 00
	00		 imul	 esi, 188		; 000000bcH
  000c8	8b 45 ec	 mov	 eax, DWORD PTR ___new_finish$[ebp]

; 148  :   }

  000cb	8b 4d f4	 mov	 ecx, DWORD PTR __$EHRec$[ebp+4]
  000ce	89 47 04	 mov	 DWORD PTR [edi+4], eax
  000d1	8b 45 e4	 mov	 eax, DWORD PTR tv203[ebp]
  000d4	89 1f		 mov	 DWORD PTR [edi], ebx
  000d6	03 f3		 add	 esi, ebx
  000d8	5f		 pop	 edi
  000d9	89 30		 mov	 DWORD PTR [eax], esi
  000db	5e		 pop	 esi
  000dc	64 89 0d 00 00
	00 00		 mov	 DWORD PTR fs:__except_list, ecx
  000e3	5b		 pop	 ebx
  000e4	c9		 leave
  000e5	c2 14 00	 ret	 20			; 00000014H
$L108400:

; 143  :     }
; 144  :     _STLP_UNWIND((_Destroy(__new_start,__new_finish), 

  000e8	ff 75 ec	 push	 DWORD PTR ___new_finish$[ebp]
  000eb	ff 75 e8	 push	 DWORD PTR ___new_start$[ebp]
  000ee	e8 00 00 00 00	 call	 ??$_Destroy@PAVMHelpMessage@@@_STL@@YAXPAVMHelpMessage@@0@Z ; _STL::_Destroy<MHelpMessage *>
  000f3	59		 pop	 ecx
  000f4	59		 pop	 ecx
  000f5	ff 75 e0	 push	 DWORD PTR ___len$[ebp]
  000f8	8b 4d dc	 mov	 ecx, DWORD PTR _this$[ebp]
  000fb	ff 75 e8	 push	 DWORD PTR ___new_start$[ebp]
  000fe	83 c1 08	 add	 ecx, 8
  00101	e8 00 00 00 00	 call	 ?deallocate@?$allocator@VMHelpMessage@@@_STL@@QAEXPAVMHelpMessage@@I@Z ; _STL::allocator<MHelpMessage>::deallocate

; 145  :                   this->_M_end_of_storage.deallocate(__new_start,__len)));

  00106	6a 00		 push	 0
  00108	6a 00		 push	 0
  0010a	e8 00 00 00 00	 call	 __CxxThrowException@8
$L108423:
$L108419:
  0010f	cc		 int	 3
_TEXT	ENDS
;	COMDAT text$x
text$x	SEGMENT
__ehhandler$?_M_insert_overflow@?$vector@VMHelpMessage@@V?$allocator@VMHelpMessage@@@_STL@@@_STL@@IAEXPAVMHelpMessage@@ABV3@ABU__false_type@2@I_N@Z:
  00000	b8 00 00 00 00	 mov	 eax, OFFSET FLAT:$T108417
  00005	e9 00 00 00 00	 jmp	 ___CxxFrameHandler
text$x	ENDS
?_M_insert_overflow@?$vector@VMHelpMessage@@V?$allocator@VMHelpMessage@@@_STL@@@_STL@@IAEXPAVMHelpMessage@@ABV3@ABU__false_type@2@I_N@Z ENDP ; _STL::vector<MHelpMessage,_STL::allocator<MHelpMessage> >::_M_insert_overflow
PUBLIC	?_M_insert_overflow@?$vector@VMString@@V?$allocator@VMString@@@_STL@@@_STL@@IAEXPAVMString@@ABV3@ABU__false_type@2@I_N@Z ; _STL::vector<MString,_STL::allocator<MString> >::_M_insert_overflow
;	COMDAT xdata$x
xdata$x	SEGMENT
$T108452 DD	0ffffffffH
	DD	00H
	DD	0ffffffffH
	DD	00H
$T108454 DD	00H
	DD	00H
	DD	00H
	DD	FLAT:$L108432
$T108453 DD	00H
	DD	00H
	DD	01H
	DD	01H
	DD	FLAT:$T108454
$T108449 DD	019930520H
	DD	02H
	DD	FLAT:$T108452
	DD	01H
	DD	FLAT:$T108453
	DD	2 DUP(00H)
; Function compile flags: /Ogsy
xdata$x	ENDS
;	COMDAT ?_M_insert_overflow@?$vector@VMString@@V?$allocator@VMString@@@_STL@@@_STL@@IAEXPAVMString@@ABV3@ABU__false_type@2@I_N@Z
_TEXT	SEGMENT
_this$ = -36						; size = 4
___len$ = -32						; size = 4
tv203 = -28						; size = 4
___new_start$ = -24					; size = 4
___old_size$ = -24					; size = 4
___new_finish$ = -20					; size = 4
__$EHRec$ = -16						; size = 16
___position$ = 8					; size = 4
___x$ = 12						; size = 4
___formal$ = 16						; size = 4
___fill_len$ = 20					; size = 4
___atend$ = 24						; size = 1
$T108430 = 27						; size = 1
$T108429 = 27						; size = 1
$T108428 = 27						; size = 1
?_M_insert_overflow@?$vector@VMString@@V?$allocator@VMString@@@_STL@@@_STL@@IAEXPAVMString@@ABV3@ABU__false_type@2@I_N@Z PROC NEAR ; _STL::vector<MString,_STL::allocator<MString> >::_M_insert_overflow, COMDAT
; _this$ = ecx

; 126  : 			  size_type __fill_len, bool __atend = false) {

  00000	b8 00 00 00 00	 mov	 eax, __ehhandler$?_M_insert_overflow@?$vector@VMString@@V?$allocator@VMString@@@_STL@@@_STL@@IAEXPAVMString@@ABV3@ABU__false_type@2@I_N@Z
  00005	e8 00 00 00 00	 call	 __EH_prolog
  0000a	83 ec 18	 sub	 esp, 24			; 00000018H
  0000d	53		 push	 ebx
  0000e	56		 push	 esi
  0000f	8b f1		 mov	 esi, ecx

; 127  :     const size_type __old_size = size();

  00011	8b 46 04	 mov	 eax, DWORD PTR [esi+4]
  00014	2b 06		 sub	 eax, DWORD PTR [esi]
  00016	57		 push	 edi
  00017	89 65 f0	 mov	 DWORD PTR __$EHRec$[ebp], esp
  0001a	6a 0c		 push	 12			; 0000000cH
  0001c	99		 cdq
  0001d	59		 pop	 ecx
  0001e	f7 f9		 idiv	 ecx
  00020	89 75 dc	 mov	 DWORD PTR _this$[ebp], esi

; 128  :     const size_type __len = __old_size + (max)(__old_size, __fill_len);

  00023	8d 4d 14	 lea	 ecx, DWORD PTR ___fill_len$[ebp]
  00026	3b 45 14	 cmp	 eax, DWORD PTR ___fill_len$[ebp]
  00029	89 45 e8	 mov	 DWORD PTR ___old_size$[ebp], eax
  0002c	72 03		 jb	 SHORT $L108444
  0002e	8d 4d e8	 lea	 ecx, DWORD PTR ___old_size$[ebp]
$L108444:
  00031	8b 39		 mov	 edi, DWORD PTR [ecx]
  00033	03 f8		 add	 edi, eax

; 129  :     
; 130  :     pointer __new_start = this->_M_end_of_storage.allocate(__len);

  00035	6a 00		 push	 0
  00037	8d 4e 08	 lea	 ecx, DWORD PTR [esi+8]
  0003a	57		 push	 edi
  0003b	89 7d e0	 mov	 DWORD PTR ___len$[ebp], edi
  0003e	89 4d e4	 mov	 DWORD PTR tv203[ebp], ecx
  00041	e8 00 00 00 00	 call	 ?allocate@?$allocator@VMString@@@_STL@@QAEPAVMString@@IPBX@Z ; _STL::allocator<MString>::allocate

; 131  :     pointer __new_finish = __new_start;
; 132  :     _STLP_TRY {

  00046	83 65 fc 00	 and	 DWORD PTR __$EHRec$[ebp+12], 0
  0004a	8b d8		 mov	 ebx, eax

; 133  :       __new_finish = __uninitialized_copy(this->_M_start, __position, __new_start, __false_type());

  0004c	8d 45 1b	 lea	 eax, DWORD PTR $T108428[ebp]
  0004f	50		 push	 eax
  00050	53		 push	 ebx
  00051	ff 75 08	 push	 DWORD PTR ___position$[ebp]
  00054	89 5d e8	 mov	 DWORD PTR ___new_start$[ebp], ebx
  00057	ff 36		 push	 DWORD PTR [esi]
  00059	89 5d ec	 mov	 DWORD PTR ___new_finish$[ebp], ebx
  0005c	e8 00 00 00 00	 call	 ??$__uninitialized_copy@PAVMString@@PAV1@@_STL@@YAPAVMString@@PAV1@00ABU__false_type@0@@Z ; _STL::__uninitialized_copy<MString *,MString *>
  00061	83 c4 10	 add	 esp, 16			; 00000010H

; 134  :       // handle insertion
; 135  :       if (__fill_len == 1) {

  00064	83 7d 14 01	 cmp	 DWORD PTR ___fill_len$[ebp], 1
  00068	89 45 ec	 mov	 DWORD PTR ___new_finish$[ebp], eax
  0006b	75 11		 jne	 SHORT $L102473

; 136  :         _Construct(__new_finish, __x);

  0006d	ff 75 0c	 push	 DWORD PTR ___x$[ebp]
  00070	50		 push	 eax
  00071	e8 00 00 00 00	 call	 ??$_Construct@VMString@@V1@@_STL@@YAXPAVMString@@ABV1@@Z ; _STL::_Construct<MString,MString>

; 137  :         ++__new_finish;

  00076	83 45 ec 0c	 add	 DWORD PTR ___new_finish$[ebp], 12 ; 0000000cH
  0007a	59		 pop	 ecx
  0007b	59		 pop	 ecx

; 138  :       } else

  0007c	eb 16		 jmp	 SHORT $L102474
$L102473:

; 139  :         __new_finish = __uninitialized_fill_n(__new_finish, __fill_len, __x, __false_type());

  0007e	8d 4d 1b	 lea	 ecx, DWORD PTR $T108429[ebp]
  00081	51		 push	 ecx
  00082	ff 75 0c	 push	 DWORD PTR ___x$[ebp]
  00085	ff 75 14	 push	 DWORD PTR ___fill_len$[ebp]
  00088	50		 push	 eax
  00089	e8 00 00 00 00	 call	 ??$__uninitialized_fill_n@PAVMString@@IV1@@_STL@@YAPAVMString@@PAV1@IABV1@ABU__false_type@0@@Z ; _STL::__uninitialized_fill_n<MString *,unsigned int,MString>
  0008e	83 c4 10	 add	 esp, 16			; 00000010H
  00091	89 45 ec	 mov	 DWORD PTR ___new_finish$[ebp], eax
$L102474:

; 140  :       if (!__atend)

  00094	80 7d 18 00	 cmp	 BYTE PTR ___atend$[ebp], 0
  00098	75 18		 jne	 SHORT $L102494

; 141  :         // copy remainder
; 142  :         __new_finish = __uninitialized_copy(__position, this->_M_finish, __new_finish, __false_type());

  0009a	8d 45 1b	 lea	 eax, DWORD PTR $T108430[ebp]
  0009d	50		 push	 eax
  0009e	ff 75 ec	 push	 DWORD PTR ___new_finish$[ebp]
  000a1	ff 76 04	 push	 DWORD PTR [esi+4]
  000a4	ff 75 08	 push	 DWORD PTR ___position$[ebp]
  000a7	e8 00 00 00 00	 call	 ??$__uninitialized_copy@PAVMString@@PAV1@@_STL@@YAPAVMString@@PAV1@00ABU__false_type@0@@Z ; _STL::__uninitialized_copy<MString *,MString *>
  000ac	83 c4 10	 add	 esp, 16			; 00000010H
  000af	89 45 ec	 mov	 DWORD PTR ___new_finish$[ebp], eax
$L102494:

; 145  :                   this->_M_end_of_storage.deallocate(__new_start,__len)));

  000b2	83 4d fc ff	 or	 DWORD PTR __$EHRec$[ebp+12], -1

; 146  :     _M_clear();

  000b6	8b ce		 mov	 ecx, esi
  000b8	e8 00 00 00 00	 call	 ?_M_clear@?$vector@VMString@@V?$allocator@VMString@@@_STL@@@_STL@@IAEXXZ ; _STL::vector<MString,_STL::allocator<MString> >::_M_clear

; 147  :     _M_set(__new_start, __new_finish, __new_start + __len);

  000bd	8b 45 ec	 mov	 eax, DWORD PTR ___new_finish$[ebp]
  000c0	8b 4d e4	 mov	 ecx, DWORD PTR tv203[ebp]
  000c3	89 46 04	 mov	 DWORD PTR [esi+4], eax
  000c6	8d 04 7f	 lea	 eax, DWORD PTR [edi+edi*2]
  000c9	8d 04 83	 lea	 eax, DWORD PTR [ebx+eax*4]
  000cc	89 1e		 mov	 DWORD PTR [esi], ebx

; 148  :   }

  000ce	5f		 pop	 edi
  000cf	89 01		 mov	 DWORD PTR [ecx], eax
  000d1	8b 4d f4	 mov	 ecx, DWORD PTR __$EHRec$[ebp+4]
  000d4	5e		 pop	 esi
  000d5	64 89 0d 00 00
	00 00		 mov	 DWORD PTR fs:__except_list, ecx
  000dc	5b		 pop	 ebx
  000dd	c9		 leave
  000de	c2 14 00	 ret	 20			; 00000014H
$L108432:

; 143  :     }
; 144  :     _STLP_UNWIND((_Destroy(__new_start,__new_finish), 

  000e1	ff 75 ec	 push	 DWORD PTR ___new_finish$[ebp]
  000e4	ff 75 e8	 push	 DWORD PTR ___new_start$[ebp]
  000e7	e8 00 00 00 00	 call	 ??$_Destroy@PAVMString@@@_STL@@YAXPAVMString@@0@Z ; _STL::_Destroy<MString *>
  000ec	59		 pop	 ecx
  000ed	59		 pop	 ecx
  000ee	ff 75 e0	 push	 DWORD PTR ___len$[ebp]
  000f1	8b 4d dc	 mov	 ecx, DWORD PTR _this$[ebp]
  000f4	ff 75 e8	 push	 DWORD PTR ___new_start$[ebp]
  000f7	83 c1 08	 add	 ecx, 8
  000fa	e8 00 00 00 00	 call	 ?deallocate@?$allocator@VMString@@@_STL@@QAEXPAVMString@@I@Z ; _STL::allocator<MString>::deallocate

; 145  :                   this->_M_end_of_storage.deallocate(__new_start,__len)));

  000ff	6a 00		 push	 0
  00101	6a 00		 push	 0
  00103	e8 00 00 00 00	 call	 __CxxThrowException@8
$L108455:
$L108451:
  00108	cc		 int	 3
_TEXT	ENDS
;	COMDAT text$x
text$x	SEGMENT
__ehhandler$?_M_insert_overflow@?$vector@VMString@@V?$allocator@VMString@@@_STL@@@_STL@@IAEXPAVMString@@ABV3@ABU__false_type@2@I_N@Z:
  00000	b8 00 00 00 00	 mov	 eax, OFFSET FLAT:$T108449
  00005	e9 00 00 00 00	 jmp	 ___CxxFrameHandler
text$x	ENDS
?_M_insert_overflow@?$vector@VMString@@V?$allocator@VMString@@@_STL@@@_STL@@IAEXPAVMString@@ABV3@ABU__false_type@2@I_N@Z ENDP ; _STL::vector<MString,_STL::allocator<MString> >::_M_insert_overflow
PUBLIC	??$?6V?$char_traits@D@_STL@@@_STL@@YAAAV?$basic_ostream@DV?$char_traits@D@_STL@@@0@AAV10@PBD@Z ; _STL::operator<<<_STL::char_traits<char> >
; Function compile flags: /Ogsy
; File c:\stlport-4.6.1\stlport\stl\_ostream.h
;	COMDAT ??$?6V?$char_traits@D@_STL@@@_STL@@YAAAV?$basic_ostream@DV?$char_traits@D@_STL@@@0@AAV10@PBD@Z
_TEXT	SEGMENT
___os$ = 8						; size = 4
___s$ = 12						; size = 4
??$?6V?$char_traits@D@_STL@@@_STL@@YAAAV?$basic_ostream@DV?$char_traits@D@_STL@@@0@AAV10@PBD@Z PROC NEAR ; _STL::operator<<<_STL::char_traits<char> >, COMDAT

; 300  :   __os._M_put_nowiden(__s);

  00000	ff 74 24 08	 push	 DWORD PTR ___s$[esp-4]
  00004	8b 4c 24 08	 mov	 ecx, DWORD PTR ___os$[esp]
  00008	e8 00 00 00 00	 call	 ?_M_put_nowiden@?$basic_ostream@DV?$char_traits@D@_STL@@@_STL@@QAEXPBD@Z ; _STL::basic_ostream<char,_STL::char_traits<char> >::_M_put_nowiden

; 301  :   return __os;

  0000d	8b 44 24 04	 mov	 eax, DWORD PTR ___os$[esp-4]

; 302  : }

  00011	c3		 ret	 0
??$?6V?$char_traits@D@_STL@@@_STL@@YAAAV?$basic_ostream@DV?$char_traits@D@_STL@@@0@AAV10@PBD@Z ENDP ; _STL::operator<<<_STL::char_traits<char> >
_TEXT	ENDS
PUBLIC	??$_M_put_num@DV?$char_traits@D@_STL@@J@_STL@@YAAAV?$basic_ostream@DV?$char_traits@D@_STL@@@0@AAV10@J@Z ; _STL::_M_put_num<char,_STL::char_traits<char>,long>
;	COMDAT xdata$x
; File c:\stlport-4.6.1\stlport\stl\_ios_base.h
xdata$x	SEGMENT
$T108521 DD	0ffffffffH
	DD	FLAT:$L108471
	DD	00H
	DD	00H
	DD	01H
	DD	FLAT:$L108472
	DD	00H
	DD	00H
$T108523 DD	00H
	DD	00H
	DD	00H
	DD	FLAT:$L108470
$T108522 DD	01H
	DD	02H
	DD	03H
	DD	01H
	DD	FLAT:$T108523
$T108518 DD	019930520H
	DD	04H
	DD	FLAT:$T108521
	DD	01H
	DD	FLAT:$T108522
	DD	2 DUP(00H)
; Function compile flags: /Ogsy
; File c:\stlport-4.6.1\stlport\stl\_ostream.c
xdata$x	ENDS
;	COMDAT ??$_M_put_num@DV?$char_traits@D@_STL@@J@_STL@@YAAAV?$basic_ostream@DV?$char_traits@D@_STL@@@0@AAV10@J@Z
_TEXT	SEGMENT
$T108467 = -52						; size = 8
$T108466 = -44						; size = 8
___sentry$ = -36					; size = 8
$T108463 = -28						; size = 4
$T108480 = -21						; size = 1
___failed$ = -17					; size = 1
__$EHRec$ = -16						; size = 16
___os$ = 8						; size = 4
___x$ = 12						; size = 4
??$_M_put_num@DV?$char_traits@D@_STL@@J@_STL@@YAAAV?$basic_ostream@DV?$char_traits@D@_STL@@@0@AAV10@J@Z PROC NEAR ; _STL::_M_put_num<char,_STL::char_traits<char>,long>, COMDAT

; 187  : {

  00000	b8 00 00 00 00	 mov	 eax, __ehhandler$??$_M_put_num@DV?$char_traits@D@_STL@@J@_STL@@YAAAV?$basic_ostream@DV?$char_traits@D@_STL@@@0@AAV10@J@Z
  00005	e8 00 00 00 00	 call	 __EH_prolog
  0000a	83 ec 28	 sub	 esp, 40			; 00000028H
  0000d	53		 push	 ebx
  0000e	56		 push	 esi

; 188  :   typedef typename basic_ostream<_CharT, _Traits>::sentry _Sentry;
; 189  :   _Sentry __sentry(__os);

  0000f	8b 75 08	 mov	 esi, DWORD PTR ___os$[ebp]
  00012	57		 push	 edi
  00013	89 65 f0	 mov	 DWORD PTR __$EHRec$[ebp], esp
  00016	56		 push	 esi
  00017	8d 4d dc	 lea	 ecx, DWORD PTR ___sentry$[ebp]
  0001a	e8 00 00 00 00	 call	 ??0sentry@?$basic_ostream@DV?$char_traits@D@_STL@@@_STL@@QAE@AAV12@@Z ; _STL::basic_ostream<char,_STL::char_traits<char> >::sentry::sentry
  0001f	33 db		 xor	 ebx, ebx

; 190  :   bool __failed = true;
; 191  : 
; 192  :   if (__sentry) {

  00021	38 5d e0	 cmp	 BYTE PTR ___sentry$[ebp+4], bl
  00024	89 5d fc	 mov	 DWORD PTR __$EHRec$[ebp+12], ebx
  00027	c6 45 ef 01	 mov	 BYTE PTR ___failed$[ebp], 1
  0002b	0f 84 8e 00 00
	00		 je	 $L102810

; 193  :     _STLP_TRY {
; 194  :       typedef num_put<_CharT, ostreambuf_iterator<_CharT, _Traits> > _NumPut;      
; 195  :       __failed = (use_facet<_NumPut>(__os.getloc())).put(
; 196  :                                                          ostreambuf_iterator<_CharT, _Traits>(__os.rdbuf()), 
; 197  :                                                          __os, __os.fill(),
; 198  :                                                          __x).failed();

  00031	3b f3		 cmp	 esi, ebx
  00033	c6 45 fc 01	 mov	 BYTE PTR __$EHRec$[ebp+12], 1
  00037	74 07		 je	 SHORT $L108465
  00039	8b 06		 mov	 eax, DWORD PTR [esi]
  0003b	8b 58 04	 mov	 ebx, DWORD PTR [eax+4]
  0003e	03 de		 add	 ebx, esi
$L108465:
  00040	8d 45 e4	 lea	 eax, DWORD PTR $T108463[ebp]
  00043	50		 push	 eax
  00044	8b 06		 mov	 eax, DWORD PTR [esi]
  00046	8b 48 04	 mov	 ecx, DWORD PTR [eax+4]
  00049	03 ce		 add	 ecx, esi
  0004b	e8 00 00 00 00	 call	 ?getloc@ios_base@_STL@@QBE?AVlocale@2@XZ ; _STL::ios_base::getloc
  00050	8b 0e		 mov	 ecx, DWORD PTR [esi]
  00052	8b 49 04	 mov	 ecx, DWORD PTR [ecx+4]
  00055	8d 14 31	 lea	 edx, DWORD PTR [ecx+esi]
  00058	8a 4a 54	 mov	 cl, BYTE PTR [edx+84]
  0005b	8b 7a 58	 mov	 edi, DWORD PTR [edx+88]
  0005e	88 4d eb	 mov	 BYTE PTR $T108480[ebp], cl
  00061	85 ff		 test	 edi, edi
  00063	0f 95 c1	 setne	 cl
  00066	88 4d d8	 mov	 BYTE PTR $T108466[ebp+4], cl
  00069	68 00 00 00 00	 push	 OFFSET FLAT:?id@?$num_put@DV?$ostreambuf_iterator@DV?$char_traits@D@_STL@@@_STL@@@_STL@@2V0locale@2@A ; _STL::num_put<char,_STL::ostreambuf_iterator<char,_STL::char_traits<char> > >::id
  0006e	8b c8		 mov	 ecx, eax
  00070	c6 45 fc 02	 mov	 BYTE PTR __$EHRec$[ebp+12], 2
  00074	e8 00 00 00 00	 call	 ?_M_use_facet@locale@_STL@@QBEPAVfacet@12@ABVid@12@@Z ; _STL::locale::_M_use_facet
  00079	ff 75 0c	 push	 DWORD PTR ___x$[ebp]
  0007c	8d 4d cc	 lea	 ecx, DWORD PTR $T108467[ebp]
  0007f	ff 75 eb	 push	 DWORD PTR $T108480[ebp]
  00082	53		 push	 ebx
  00083	ff 75 d8	 push	 DWORD PTR $T108466[ebp+4]
  00086	57		 push	 edi
  00087	51		 push	 ecx
  00088	8b c8		 mov	 ecx, eax
  0008a	e8 00 00 00 00	 call	 ?put@?$num_put@DV?$ostreambuf_iterator@DV?$char_traits@D@_STL@@@_STL@@@_STL@@QBE?AV?$ostreambuf_iterator@DV?$char_traits@D@_STL@@@2@V32@AAVios_base@2@DJ@Z ; _STL::num_put<char,_STL::ostreambuf_iterator<char,_STL::char_traits<char> > >::put
  0008f	80 78 04 00	 cmp	 BYTE PTR [eax+4], 0
  00093	8d 4d e4	 lea	 ecx, DWORD PTR $T108463[ebp]
  00096	0f 94 45 ef	 sete	 BYTE PTR ___failed$[ebp]
  0009a	c6 45 fc 01	 mov	 BYTE PTR __$EHRec$[ebp+12], 1
  0009e	e8 00 00 00 00	 call	 ??1locale@_STL@@QAE@XZ	; _STL::locale::~locale
  000a3	eb 1a		 jmp	 SHORT $L102810
$L108470:

; 199  :     }
; 200  :     _STLP_CATCH_ALL {
; 201  :       __os._M_handle_exception(ios_base::badbit);

  000a5	8b 45 08	 mov	 eax, DWORD PTR ___os$[ebp]
  000a8	8b 08		 mov	 ecx, DWORD PTR [eax]
  000aa	8b 49 04	 mov	 ecx, DWORD PTR [ecx+4]
  000ad	6a 01		 push	 1
  000af	03 c8		 add	 ecx, eax
  000b1	e8 00 00 00 00	 call	 ?_M_handle_exception@?$basic_ios@DV?$char_traits@D@_STL@@@_STL@@QAEXH@Z ; _STL::basic_ios<char,_STL::char_traits<char> >::_M_handle_exception

; 202  :     }

  000b6	b8 00 00 00 00	 mov	 eax, $L108519
  000bb	c3		 ret	 0
$L108519:
  000bc	8b 75 08	 mov	 esi, DWORD PTR ___os$[ebp]
$L102810:
  000bf	83 65 fc 00	 and	 DWORD PTR __$EHRec$[ebp+12], 0

; 203  :   }
; 204  :   if (__failed)

  000c3	80 7d ef 00	 cmp	 BYTE PTR ___failed$[ebp], 0
  000c7	74 13		 je	 SHORT $L108505

; 205  :     __os.setstate(ios_base::badbit); 

  000c9	8b 06		 mov	 eax, DWORD PTR [esi]
  000cb	8b 48 04	 mov	 ecx, DWORD PTR [eax+4]
  000ce	03 ce		 add	 ecx, esi
  000d0	8b 41 08	 mov	 eax, DWORD PTR [ecx+8]
  000d3	83 c8 01	 or	 eax, 1
  000d6	50		 push	 eax
  000d7	e8 00 00 00 00	 call	 ?clear@?$basic_ios@DV?$char_traits@D@_STL@@@_STL@@QAEXH@Z ; _STL::basic_ios<char,_STL::char_traits<char> >::clear
$L108505:

; 206  :   return __os;

  000dc	8b 4d dc	 mov	 ecx, DWORD PTR ___sentry$[ebp]
  000df	8b 01		 mov	 eax, DWORD PTR [ecx]
  000e1	8b 40 04	 mov	 eax, DWORD PTR [eax+4]
  000e4	83 4d fc ff	 or	 DWORD PTR __$EHRec$[ebp+12], -1
  000e8	f6 44 08 05 20	 test	 BYTE PTR [eax+ecx+5], 32 ; 00000020H
  000ed	74 05		 je	 SHORT $L108513
  000ef	e8 00 00 00 00	 call	 ?flush@?$basic_ostream@DV?$char_traits@D@_STL@@@_STL@@QAEAAV12@XZ ; _STL::basic_ostream<char,_STL::char_traits<char> >::flush
$L108513:

; 207  : }

  000f4	8b 4d f4	 mov	 ecx, DWORD PTR __$EHRec$[ebp+4]
  000f7	5f		 pop	 edi
  000f8	8b c6		 mov	 eax, esi
  000fa	5e		 pop	 esi
  000fb	64 89 0d 00 00
	00 00		 mov	 DWORD PTR fs:__except_list, ecx
  00102	5b		 pop	 ebx
  00103	c9		 leave
  00104	c3		 ret	 0
_TEXT	ENDS
;	COMDAT text$x
text$x	SEGMENT
$L108471:
  00000	8d 4d dc	 lea	 ecx, DWORD PTR ___sentry$[ebp]
  00003	e9 00 00 00 00	 jmp	 ??1sentry@?$basic_ostream@DV?$char_traits@D@_STL@@@_STL@@QAE@XZ ; _STL::basic_ostream<char,_STL::char_traits<char> >::sentry::~sentry
$L108472:
  00008	8d 4d e4	 lea	 ecx, DWORD PTR $T108463[ebp]
  0000b	e9 00 00 00 00	 jmp	 ??1locale@_STL@@QAE@XZ	; _STL::locale::~locale
__ehhandler$??$_M_put_num@DV?$char_traits@D@_STL@@J@_STL@@YAAAV?$basic_ostream@DV?$char_traits@D@_STL@@@0@AAV10@J@Z:
  00010	b8 00 00 00 00	 mov	 eax, OFFSET FLAT:$T108518
  00015	e9 00 00 00 00	 jmp	 ___CxxFrameHandler
text$x	ENDS
??$_M_put_num@DV?$char_traits@D@_STL@@J@_STL@@YAAAV?$basic_ostream@DV?$char_traits@D@_STL@@@0@AAV10@J@Z ENDP ; _STL::_M_put_num<char,_STL::char_traits<char>,long>
PUBLIC	??$_M_append_dispatch@PBD@?$basic_string@DV?$char_traits@D@_STL@@V?$allocator@D@2@@_STL@@AAEAAV01@PBD0ABU__false_type@1@@Z ; _STL::basic_string<char,_STL::char_traits<char>,_STL::allocator<char> >::_M_append_dispatch<char const *>
; Function compile flags: /Ogsy
; File c:\stlport-4.6.1\stlport\stl\_string.h
;	COMDAT ??$_M_append_dispatch@PBD@?$basic_string@DV?$char_traits@D@_STL@@V?$allocator@D@2@@_STL@@AAEAAV01@PBD0ABU__false_type@1@@Z
_TEXT	SEGMENT
___f$ = 8						; size = 4
___l$ = 12						; size = 4
$T108528 = 15						; size = 1
___formal$ = 16						; size = 4
??$_M_append_dispatch@PBD@?$basic_string@DV?$char_traits@D@_STL@@V?$allocator@D@2@@_STL@@AAEAAV01@PBD0ABU__false_type@1@@Z PROC NEAR ; _STL::basic_string<char,_STL::char_traits<char>,_STL::allocator<char> >::_M_append_dispatch<char const *>, COMDAT
; _this$ = ecx

; 586  :   template <class _InputIter> _Self& _M_append_dispatch(_InputIter __f, _InputIter __l,

  00000	55		 push	 ebp
  00001	8b ec		 mov	 ebp, esp

; 587  :                                    const __false_type&) {
; 588  :     return append(__f, __l, _STLP_ITERATOR_CATEGORY(__f, _InputIter));

  00003	8d 45 0f	 lea	 eax, DWORD PTR $T108528[ebp]
  00006	50		 push	 eax
  00007	ff 75 0c	 push	 DWORD PTR ___l$[ebp]
  0000a	ff 75 08	 push	 DWORD PTR ___f$[ebp]
  0000d	e8 00 00 00 00	 call	 ??$append@PBD@?$basic_string@DV?$char_traits@D@_STL@@V?$allocator@D@2@@_STL@@AAEAAV01@PBD0ABUforward_iterator_tag@1@@Z ; _STL::basic_string<char,_STL::char_traits<char>,_STL::allocator<char> >::append<char const *>

; 589  :   }

  00012	5d		 pop	 ebp
  00013	c2 0c 00	 ret	 12			; 0000000cH
??$_M_append_dispatch@PBD@?$basic_string@DV?$char_traits@D@_STL@@V?$allocator@D@2@@_STL@@AAEAAV01@PBD0ABU__false_type@1@@Z ENDP ; _STL::basic_string<char,_STL::char_traits<char>,_STL::allocator<char> >::_M_append_dispatch<char const *>
_TEXT	ENDS
PUBLIC	??$_M_append_dispatch@PAD@?$basic_string@DV?$char_traits@D@_STL@@V?$allocator@D@2@@_STL@@AAEAAV01@PAD0ABU__false_type@1@@Z ; _STL::basic_string<char,_STL::char_traits<char>,_STL::allocator<char> >::_M_append_dispatch<char *>
; Function compile flags: /Ogsy
;	COMDAT ??$_M_append_dispatch@PAD@?$basic_string@DV?$char_traits@D@_STL@@V?$allocator@D@2@@_STL@@AAEAAV01@PAD0ABU__false_type@1@@Z
_TEXT	SEGMENT
___f$ = 8						; size = 4
___l$ = 12						; size = 4
$T108531 = 15						; size = 1
___formal$ = 16						; size = 4
??$_M_append_dispatch@PAD@?$basic_string@DV?$char_traits@D@_STL@@V?$allocator@D@2@@_STL@@AAEAAV01@PAD0ABU__false_type@1@@Z PROC NEAR ; _STL::basic_string<char,_STL::char_traits<char>,_STL::allocator<char> >::_M_append_dispatch<char *>, COMDAT
; _this$ = ecx

; 586  :   template <class _InputIter> _Self& _M_append_dispatch(_InputIter __f, _InputIter __l,

  00000	55		 push	 ebp
  00001	8b ec		 mov	 ebp, esp

; 587  :                                    const __false_type&) {
; 588  :     return append(__f, __l, _STLP_ITERATOR_CATEGORY(__f, _InputIter));

  00003	8d 45 0f	 lea	 eax, DWORD PTR $T108531[ebp]
  00006	50		 push	 eax
  00007	ff 75 0c	 push	 DWORD PTR ___l$[ebp]
  0000a	ff 75 08	 push	 DWORD PTR ___f$[ebp]
  0000d	e8 00 00 00 00	 call	 ??$append@PAD@?$basic_string@DV?$char_traits@D@_STL@@V?$allocator@D@2@@_STL@@AAEAAV01@PAD0ABUforward_iterator_tag@1@@Z ; _STL::basic_string<char,_STL::char_traits<char>,_STL::allocator<char> >::append<char *>

; 589  :   }

  00012	5d		 pop	 ebp
  00013	c2 0c 00	 ret	 12			; 0000000cH
??$_M_append_dispatch@PAD@?$basic_string@DV?$char_traits@D@_STL@@V?$allocator@D@2@@_STL@@AAEAAV01@PAD0ABU__false_type@1@@Z ENDP ; _STL::basic_string<char,_STL::char_traits<char>,_STL::allocator<char> >::_M_append_dispatch<char *>
_TEXT	ENDS
PUBLIC	??$_M_insert_dispatch@PBD@?$basic_string@DV?$char_traits@D@_STL@@V?$allocator@D@2@@_STL@@AAEXPADPBD1ABU__false_type@1@@Z ; _STL::basic_string<char,_STL::char_traits<char>,_STL::allocator<char> >::_M_insert_dispatch<char const *>
; Function compile flags: /Ogsy
;	COMDAT ??$_M_insert_dispatch@PBD@?$basic_string@DV?$char_traits@D@_STL@@V?$allocator@D@2@@_STL@@AAEXPADPBD1ABU__false_type@1@@Z
_TEXT	SEGMENT
___p$ = 8						; size = 4
___first$ = 12						; size = 4
___last$ = 16						; size = 4
$T108534 = 19						; size = 1
___formal$ = 20						; size = 4
??$_M_insert_dispatch@PBD@?$basic_string@DV?$char_traits@D@_STL@@V?$allocator@D@2@@_STL@@AAEXPADPBD1ABU__false_type@1@@Z PROC NEAR ; _STL::basic_string<char,_STL::char_traits<char>,_STL::allocator<char> >::_M_insert_dispatch<char const *>, COMDAT
; _this$ = ecx

; 815  :   template <class _InputIter> void _M_insert_dispatch(iterator __p, _InputIter __first, _InputIter __last,

  00000	55		 push	 ebp
  00001	8b ec		 mov	 ebp, esp

; 816  :                           const __false_type&) {
; 817  :     insert(__p, __first, __last, _STLP_ITERATOR_CATEGORY(__first, _InputIter));

  00003	8d 45 13	 lea	 eax, DWORD PTR $T108534[ebp]
  00006	50		 push	 eax
  00007	ff 75 10	 push	 DWORD PTR ___last$[ebp]
  0000a	ff 75 0c	 push	 DWORD PTR ___first$[ebp]
  0000d	ff 75 08	 push	 DWORD PTR ___p$[ebp]
  00010	e8 00 00 00 00	 call	 ??$insert@PBD@?$basic_string@DV?$char_traits@D@_STL@@V?$allocator@D@2@@_STL@@AAEXPADPBD1ABUforward_iterator_tag@1@@Z ; _STL::basic_string<char,_STL::char_traits<char>,_STL::allocator<char> >::insert<char const *>

; 818  :   }

  00015	5d		 pop	 ebp
  00016	c2 10 00	 ret	 16			; 00000010H
??$_M_insert_dispatch@PBD@?$basic_string@DV?$char_traits@D@_STL@@V?$allocator@D@2@@_STL@@AAEXPADPBD1ABU__false_type@1@@Z ENDP ; _STL::basic_string<char,_STL::char_traits<char>,_STL::allocator<char> >::_M_insert_dispatch<char const *>
_TEXT	ENDS
PUBLIC	??1?$basic_string@DV?$char_traits@D@_STL@@V?$allocator@D@2@@_STL@@QAE@XZ ; _STL::basic_string<char,_STL::char_traits<char>,_STL::allocator<char> >::~basic_string<char,_STL::char_traits<char>,_STL::allocator<char> >
; Function compile flags: /Ogsy
;	COMDAT ??1?$basic_string@DV?$char_traits@D@_STL@@V?$allocator@D@2@@_STL@@QAE@XZ
_TEXT	SEGMENT
??1?$basic_string@DV?$char_traits@D@_STL@@V?$allocator@D@2@@_STL@@QAE@XZ PROC NEAR ; _STL::basic_string<char,_STL::char_traits<char>,_STL::allocator<char> >::~basic_string<char,_STL::char_traits<char>,_STL::allocator<char> >, COMDAT
; _this$ = ecx

; 305  :   ~basic_string() { _STLP_STD::_Destroy(this->_M_start, this->_M_finish + 1); }

  00000	e9 00 00 00 00	 jmp	 ?_M_deallocate_block@?$_String_base@DV?$allocator@D@_STL@@@_STL@@QAEXXZ ; _STL::_String_base<char,_STL::allocator<char> >::_M_deallocate_block
??1?$basic_string@DV?$char_traits@D@_STL@@V?$allocator@D@2@@_STL@@QAE@XZ ENDP ; _STL::basic_string<char,_STL::char_traits<char>,_STL::allocator<char> >::~basic_string<char,_STL::char_traits<char>,_STL::allocator<char> >
_TEXT	ENDS
PUBLIC	??_R4iovfs_base@@6B@				; iovfs_base::`RTTI Complete Object Locator'
PUBLIC	??_R0?AViovfs_base@@@8				; iovfs_base `RTTI Type Descriptor'
PUBLIC	??_R3iovfs_base@@8				; iovfs_base::`RTTI Class Hierarchy Descriptor'
PUBLIC	??_R2iovfs_base@@8				; iovfs_base::`RTTI Base Class Array'
PUBLIC	??_R1A@?0A@A@iovfs_base@@8			; iovfs_base::`RTTI Base Class Descriptor at (0,-1,0,0)'
PUBLIC	??1iovfs_base@@UAE@XZ				; iovfs_base::~iovfs_base
PUBLIC	??_7iovfs_base@@6B@				; iovfs_base::`vftable'
PUBLIC	??_Giovfs_base@@UAEPAXI@Z			; iovfs_base::`scalar deleting destructor'
EXTRN	?close@iovfs_base@@QAEXXZ:NEAR			; iovfs_base::close
EXTRN	??_Eiovfs_base@@UAEPAXI@Z:NEAR			; iovfs_base::`vector deleting destructor'
;	COMDAT xdata$x
; File c:\darkeden\designed_common\project\client\virtualfilesystem\vfstream.inl
xdata$x	SEGMENT
$T108563 DD	0ffffffffH
	DD	FLAT:$L108559
$T108561 DD	019930520H
	DD	01H
	DD	FLAT:$T108563
	DD	2 DUP(00H)
	DD	2 DUP(00H)
xdata$x	ENDS
;	COMDAT ??_7iovfs_base@@6B@
CONST	SEGMENT
??_7iovfs_base@@6B@ DD FLAT:??_R4iovfs_base@@6B@	; iovfs_base::`vftable'
	DD	FLAT:??_Eiovfs_base@@UAEPAXI@Z
	DD	FLAT:?open@iovfs_base@@UAEXPBDH@Z
CONST	ENDS
;	COMDAT ??_R4iovfs_base@@6B@
rdata$r	SEGMENT
??_R4iovfs_base@@6B@ DD 00H				; iovfs_base::`RTTI Complete Object Locator'
	DD	00H
	DD	00H
	DD	FLAT:??_R0?AViovfs_base@@@8
	DD	FLAT:??_R3iovfs_base@@8
rdata$r	ENDS
;	COMDAT ??_R0?AViovfs_base@@@8
_DATA	SEGMENT
??_R0?AViovfs_base@@@8 DD FLAT:??_7type_info@@6B@	; iovfs_base `RTTI Type Descriptor'
	DD	00H
	DB	'.?AViovfs_base@@', 00H
_DATA	ENDS
;	COMDAT ??_R3iovfs_base@@8
rdata$r	SEGMENT
??_R3iovfs_base@@8 DD 00H				; iovfs_base::`RTTI Class Hierarchy Descriptor'
	DD	00H
	DD	01H
	DD	FLAT:??_R2iovfs_base@@8
rdata$r	ENDS
;	COMDAT ??_R2iovfs_base@@8
rdata$r	SEGMENT
??_R2iovfs_base@@8 DD FLAT:??_R1A@?0A@A@iovfs_base@@8	; iovfs_base::`RTTI Base Class Array'
rdata$r	ENDS
;	COMDAT ??_R1A@?0A@A@iovfs_base@@8
rdata$r	SEGMENT
??_R1A@?0A@A@iovfs_base@@8 DD FLAT:??_R0?AViovfs_base@@@8 ; iovfs_base::`RTTI Base Class Descriptor at (0,-1,0,0)'
	DD	00H
	DD	00H
	DD	0ffffffffH
	DD	00H
	DD	00H
; Function compile flags: /Ogsy
rdata$r	ENDS
;	COMDAT ??1iovfs_base@@UAE@XZ
_TEXT	SEGMENT
_this$ = -16						; size = 4
__$EHRec$ = -12						; size = 12
??1iovfs_base@@UAE@XZ PROC NEAR				; iovfs_base::~iovfs_base, COMDAT
; _this$ = ecx

; 22   : {

  00000	b8 00 00 00 00	 mov	 eax, __ehhandler$??1iovfs_base@@UAE@XZ
  00005	e8 00 00 00 00	 call	 __EH_prolog
  0000a	51		 push	 ecx
  0000b	56		 push	 esi
  0000c	8b f1		 mov	 esi, ecx
  0000e	89 75 f0	 mov	 DWORD PTR _this$[ebp], esi
  00011	c7 06 00 00 00
	00		 mov	 DWORD PTR [esi], OFFSET FLAT:??_7iovfs_base@@6B@
  00017	83 65 fc 00	 and	 DWORD PTR __$EHRec$[ebp+8], 0

; 23   : 	close();

  0001b	e8 00 00 00 00	 call	 ?close@iovfs_base@@QAEXXZ ; iovfs_base::close

; 24   : }

  00020	83 4d fc ff	 or	 DWORD PTR __$EHRec$[ebp+8], -1
  00024	68 00 00 00 00	 push	 OFFSET FLAT:??1?$basic_string@DV?$char_traits@D@_STL@@V?$allocator@D@2@@_STL@@QAE@XZ ; _STL::basic_string<char,_STL::char_traits<char>,_STL::allocator<char> >::~basic_string<char,_STL::char_traits<char>,_STL::allocator<char> >
  00029	6a 06		 push	 6
  0002b	6a 0c		 push	 12			; 0000000cH
  0002d	83 c6 08	 add	 esi, 8
  00030	56		 push	 esi
  00031	e8 00 00 00 00	 call	 ??_M@YGXPAXIHP6EX0@Z@Z
  00036	8b 4d f4	 mov	 ecx, DWORD PTR __$EHRec$[ebp]
  00039	5e		 pop	 esi
  0003a	64 89 0d 00 00
	00 00		 mov	 DWORD PTR fs:__except_list, ecx
  00041	c9		 leave
  00042	c3		 ret	 0
_TEXT	ENDS
;	COMDAT text$x
text$x	SEGMENT
$L108559:
  00000	68 00 00 00 00	 push	 OFFSET FLAT:??1?$basic_string@DV?$char_traits@D@_STL@@V?$allocator@D@2@@_STL@@QAE@XZ ; _STL::basic_string<char,_STL::char_traits<char>,_STL::allocator<char> >::~basic_string<char,_STL::char_traits<char>,_STL::allocator<char> >
  00005	6a 06		 push	 6
  00007	6a 0c		 push	 12			; 0000000cH
  00009	8b 45 f0	 mov	 eax, DWORD PTR _this$[ebp]
  0000c	83 c0 08	 add	 eax, 8
  0000f	50		 push	 eax
  00010	e8 00 00 00 00	 call	 ??_M@YGXPAXIHP6EX0@Z@Z
  00015	c3		 ret	 0
__ehhandler$??1iovfs_base@@UAE@XZ:
  00016	b8 00 00 00 00	 mov	 eax, OFFSET FLAT:$T108561
  0001b	e9 00 00 00 00	 jmp	 ___CxxFrameHandler
text$x	ENDS
??1iovfs_base@@UAE@XZ ENDP				; iovfs_base::~iovfs_base
PUBLIC	??_R4ivfstream@@6B@				; ivfstream::`RTTI Complete Object Locator'
PUBLIC	??_R0?AVivfstream@@@8				; ivfstream `RTTI Type Descriptor'
PUBLIC	??_R3ivfstream@@8				; ivfstream::`RTTI Class Hierarchy Descriptor'
PUBLIC	??_R2ivfstream@@8				; ivfstream::`RTTI Base Class Array'
PUBLIC	??_R1A@?0A@A@ivfstream@@8			; ivfstream::`RTTI Base Class Descriptor at (0,-1,0,0)'
PUBLIC	??1ivfstream@@UAE@XZ				; ivfstream::~ivfstream
PUBLIC	??_7ivfstream@@6B@				; ivfstream::`vftable'
PUBLIC	??_Givfstream@@UAEPAXI@Z			; ivfstream::`scalar deleting destructor'
EXTRN	??_Eivfstream@@UAEPAXI@Z:NEAR			; ivfstream::`vector deleting destructor'
;	COMDAT ??_7ivfstream@@6B@
CONST	SEGMENT
??_7ivfstream@@6B@ DD FLAT:??_R4ivfstream@@6B@		; ivfstream::`vftable'
	DD	FLAT:??_Eivfstream@@UAEPAXI@Z
	DD	FLAT:?open@ivfstream@@UAEXPBDH@Z
CONST	ENDS
;	COMDAT ??_R4ivfstream@@6B@
rdata$r	SEGMENT
??_R4ivfstream@@6B@ DD 00H				; ivfstream::`RTTI Complete Object Locator'
	DD	00H
	DD	00H
	DD	FLAT:??_R0?AVivfstream@@@8
	DD	FLAT:??_R3ivfstream@@8
rdata$r	ENDS
;	COMDAT ??_R0?AVivfstream@@@8
_DATA	SEGMENT
??_R0?AVivfstream@@@8 DD FLAT:??_7type_info@@6B@	; ivfstream `RTTI Type Descriptor'
	DD	00H
	DB	'.?AVivfstream@@', 00H
_DATA	ENDS
;	COMDAT ??_R3ivfstream@@8
rdata$r	SEGMENT
??_R3ivfstream@@8 DD 00H				; ivfstream::`RTTI Class Hierarchy Descriptor'
	DD	00H
	DD	02H
	DD	FLAT:??_R2ivfstream@@8
rdata$r	ENDS
;	COMDAT ??_R2ivfstream@@8
rdata$r	SEGMENT
??_R2ivfstream@@8 DD FLAT:??_R1A@?0A@A@ivfstream@@8	; ivfstream::`RTTI Base Class Array'
	DD	FLAT:??_R1A@?0A@A@iovfs_base@@8
rdata$r	ENDS
;	COMDAT ??_R1A@?0A@A@ivfstream@@8
rdata$r	SEGMENT
??_R1A@?0A@A@ivfstream@@8 DD FLAT:??_R0?AVivfstream@@@8	; ivfstream::`RTTI Base Class Descriptor at (0,-1,0,0)'
	DD	01H
	DD	00H
	DD	0ffffffffH
	DD	00H
	DD	00H
; Function compile flags: /Ogsy
rdata$r	ENDS
;	COMDAT ??1ivfstream@@UAE@XZ
_TEXT	SEGMENT
??1ivfstream@@UAE@XZ PROC NEAR				; ivfstream::~ivfstream, COMDAT
; _this$ = ecx

; 70   : {

  00000	c7 01 00 00 00
	00		 mov	 DWORD PTR [ecx], OFFSET FLAT:??_7ivfstream@@6B@

; 71   : 
; 72   : }

  00006	e9 00 00 00 00	 jmp	 ??1iovfs_base@@UAE@XZ	; iovfs_base::~iovfs_base
??1ivfstream@@UAE@XZ ENDP				; ivfstream::~ivfstream
; Function compile flags: /Ogsy
_TEXT	ENDS
;	COMDAT ??_GMHelpMessageManager@@UAEPAXI@Z
_TEXT	SEGMENT
___flags$ = 8						; size = 4
??_GMHelpMessageManager@@UAEPAXI@Z PROC NEAR		; MHelpMessageManager::`scalar deleting destructor', COMDAT
; _this$ = ecx
  00000	56		 push	 esi
  00001	8b f1		 mov	 esi, ecx
  00003	e8 00 00 00 00	 call	 ??1MHelpMessageManager@@UAE@XZ ; MHelpMessageManager::~MHelpMessageManager
  00008	f6 44 24 08 01	 test	 BYTE PTR ___flags$[esp], 1
  0000d	74 07		 je	 SHORT $L101742
  0000f	56		 push	 esi
  00010	e8 00 00 00 00	 call	 ??3@YAXPAX@Z		; operator delete
  00015	59		 pop	 ecx
$L101742:
  00016	8b c6		 mov	 eax, esi
  00018	5e		 pop	 esi
  00019	c2 04 00	 ret	 4
??_GMHelpMessageManager@@UAEPAXI@Z ENDP			; MHelpMessageManager::`scalar deleting destructor'
_TEXT	ENDS
PUBLIC	?grouping@?$numpunct@D@_STL@@QBE?AV?$basic_string@DV?$char_traits@D@_STL@@V?$allocator@D@2@@2@XZ ; _STL::numpunct<char>::grouping
; Function compile flags: /Ogsy
; File c:\stlport-4.6.1\stlport\stl\_numpunct.h
;	COMDAT ?grouping@?$numpunct@D@_STL@@QBE?AV?$basic_string@DV?$char_traits@D@_STL@@V?$allocator@D@2@@2@XZ
_TEXT	SEGMENT
$T108576 = -4						; size = 4
___$ReturnUdt$ = 8					; size = 4
?grouping@?$numpunct@D@_STL@@QBE?AV?$basic_string@DV?$char_traits@D@_STL@@V?$allocator@D@2@@2@XZ PROC NEAR ; _STL::numpunct<char>::grouping, COMDAT
; _this$ = ecx

; 62   :   string grouping() const { return do_grouping(); }

  00000	55		 push	 ebp
  00001	8b ec		 mov	 ebp, esp
  00003	51		 push	 ecx
  00004	ff 75 08	 push	 DWORD PTR ___$ReturnUdt$[ebp]
  00007	8b 01		 mov	 eax, DWORD PTR [ecx]
  00009	83 65 fc 00	 and	 DWORD PTR $T108576[ebp], 0
  0000d	ff 50 0c	 call	 DWORD PTR [eax+12]
  00010	8b 45 08	 mov	 eax, DWORD PTR ___$ReturnUdt$[ebp]
  00013	c9		 leave
  00014	c2 04 00	 ret	 4
?grouping@?$numpunct@D@_STL@@QBE?AV?$basic_string@DV?$char_traits@D@_STL@@V?$allocator@D@2@@2@XZ ENDP ; _STL::numpunct<char>::grouping
_TEXT	ENDS
PUBLIC	??6?$basic_ostream@DV?$char_traits@D@_STL@@@_STL@@QAEAAV01@H@Z ; _STL::basic_ostream<char,_STL::char_traits<char> >::operator<<
; Function compile flags: /Ogsy
; File c:\stlport-4.6.1\stlport\stl\_ostream.h
;	COMDAT ??6?$basic_ostream@DV?$char_traits@D@_STL@@@_STL@@QAEAAV01@H@Z
_TEXT	SEGMENT
___x$ = 8						; size = 4
??6?$basic_ostream@DV?$char_traits@D@_STL@@@_STL@@QAEAAV01@H@Z PROC NEAR ; _STL::basic_ostream<char,_STL::char_traits<char> >::operator<<, COMDAT
; _this$ = ecx

; 100  :   _Self& operator<<(int __x) { return _M_put_num(*this,  __STATIC_CAST(long,__x)); }

  00000	ff 74 24 04	 push	 DWORD PTR ___x$[esp-4]
  00004	51		 push	 ecx
  00005	e8 00 00 00 00	 call	 ??$_M_put_num@DV?$char_traits@D@_STL@@J@_STL@@YAAAV?$basic_ostream@DV?$char_traits@D@_STL@@@0@AAV10@J@Z ; _STL::_M_put_num<char,_STL::char_traits<char>,long>
  0000a	59		 pop	 ecx
  0000b	59		 pop	 ecx
  0000c	c2 04 00	 ret	 4
??6?$basic_ostream@DV?$char_traits@D@_STL@@@_STL@@QAEAAV01@H@Z ENDP ; _STL::basic_ostream<char,_STL::char_traits<char> >::operator<<
_TEXT	ENDS
PUBLIC	?push_back@?$vector@VMHelpMessage@@V?$allocator@VMHelpMessage@@@_STL@@@_STL@@QAEXABVMHelpMessage@@@Z ; _STL::vector<MHelpMessage,_STL::allocator<MHelpMessage> >::push_back
; Function compile flags: /Ogsy
; File c:\stlport-4.6.1\stlport\stl\_vector.h
;	COMDAT ?push_back@?$vector@VMHelpMessage@@V?$allocator@VMHelpMessage@@@_STL@@@_STL@@QAEXABVMHelpMessage@@@Z
_TEXT	SEGMENT
___x$ = 8						; size = 4
$T108583 = 11						; size = 1
?push_back@?$vector@VMHelpMessage@@V?$allocator@VMHelpMessage@@@_STL@@@_STL@@QAEXABVMHelpMessage@@@Z PROC NEAR ; _STL::vector<MHelpMessage,_STL::allocator<MHelpMessage> >::push_back, COMDAT
; _this$ = ecx

; 331  :   void push_back(const _Tp& __x) {

  00000	55		 push	 ebp
  00001	8b ec		 mov	 ebp, esp
  00003	56		 push	 esi
  00004	8b f1		 mov	 esi, ecx

; 332  :     if (this->_M_finish != this->_M_end_of_storage._M_data) {

  00006	8b 46 04	 mov	 eax, DWORD PTR [esi+4]
  00009	3b 46 08	 cmp	 eax, DWORD PTR [esi+8]
  0000c	74 14		 je	 SHORT $L102244

; 333  :       _Construct(this->_M_finish, __x);

  0000e	ff 75 08	 push	 DWORD PTR ___x$[ebp]
  00011	50		 push	 eax
  00012	e8 00 00 00 00	 call	 ??$_Construct@VMHelpMessage@@V1@@_STL@@YAXPAVMHelpMessage@@ABV1@@Z ; _STL::_Construct<MHelpMessage,MHelpMessage>

; 334  :       ++this->_M_finish;

  00017	81 46 04 bc 00
	00 00		 add	 DWORD PTR [esi+4], 188	; 000000bcH
  0001e	59		 pop	 ecx
  0001f	59		 pop	 ecx

; 335  :     }
; 336  :     else

  00020	eb 13		 jmp	 SHORT $L102251
$L102244:

; 337  :       _M_insert_overflow(this->_M_finish, __x, _IsPODType(), 1UL, true);

  00022	6a 01		 push	 1
  00024	6a 01		 push	 1
  00026	8d 4d 0b	 lea	 ecx, DWORD PTR $T108583[ebp]
  00029	51		 push	 ecx
  0002a	ff 75 08	 push	 DWORD PTR ___x$[ebp]
  0002d	8b ce		 mov	 ecx, esi
  0002f	50		 push	 eax
  00030	e8 00 00 00 00	 call	 ?_M_insert_overflow@?$vector@VMHelpMessage@@V?$allocator@VMHelpMessage@@@_STL@@@_STL@@IAEXPAVMHelpMessage@@ABV3@ABU__false_type@2@I_N@Z ; _STL::vector<MHelpMessage,_STL::allocator<MHelpMessage> >::_M_insert_overflow
$L102251:
  00035	5e		 pop	 esi

; 338  :   }

  00036	5d		 pop	 ebp
  00037	c2 04 00	 ret	 4
?push_back@?$vector@VMHelpMessage@@V?$allocator@VMHelpMessage@@@_STL@@@_STL@@QAEXABVMHelpMessage@@@Z ENDP ; _STL::vector<MHelpMessage,_STL::allocator<MHelpMessage> >::push_back
_TEXT	ENDS
PUBLIC	?push_back@?$vector@VMString@@V?$allocator@VMString@@@_STL@@@_STL@@QAEXABVMString@@@Z ; _STL::vector<MString,_STL::allocator<MString> >::push_back
; Function compile flags: /Ogsy
;	COMDAT ?push_back@?$vector@VMString@@V?$allocator@VMString@@@_STL@@@_STL@@QAEXABVMString@@@Z
_TEXT	SEGMENT
___x$ = 8						; size = 4
$T108586 = 11						; size = 1
?push_back@?$vector@VMString@@V?$allocator@VMString@@@_STL@@@_STL@@QAEXABVMString@@@Z PROC NEAR ; _STL::vector<MString,_STL::allocator<MString> >::push_back, COMDAT
; _this$ = ecx

; 331  :   void push_back(const _Tp& __x) {

  00000	55		 push	 ebp
  00001	8b ec		 mov	 ebp, esp
  00003	56		 push	 esi
  00004	8b f1		 mov	 esi, ecx

; 332  :     if (this->_M_finish != this->_M_end_of_storage._M_data) {

  00006	8b 46 04	 mov	 eax, DWORD PTR [esi+4]
  00009	3b 46 08	 cmp	 eax, DWORD PTR [esi+8]
  0000c	74 11		 je	 SHORT $L102298

; 333  :       _Construct(this->_M_finish, __x);

  0000e	ff 75 08	 push	 DWORD PTR ___x$[ebp]
  00011	50		 push	 eax
  00012	e8 00 00 00 00	 call	 ??$_Construct@VMString@@V1@@_STL@@YAXPAVMString@@ABV1@@Z ; _STL::_Construct<MString,MString>

; 334  :       ++this->_M_finish;

  00017	83 46 04 0c	 add	 DWORD PTR [esi+4], 12	; 0000000cH
  0001b	59		 pop	 ecx
  0001c	59		 pop	 ecx

; 335  :     }
; 336  :     else

  0001d	eb 13		 jmp	 SHORT $L102305
$L102298:

; 337  :       _M_insert_overflow(this->_M_finish, __x, _IsPODType(), 1UL, true);

  0001f	6a 01		 push	 1
  00021	6a 01		 push	 1
  00023	8d 4d 0b	 lea	 ecx, DWORD PTR $T108586[ebp]
  00026	51		 push	 ecx
  00027	ff 75 08	 push	 DWORD PTR ___x$[ebp]
  0002a	8b ce		 mov	 ecx, esi
  0002c	50		 push	 eax
  0002d	e8 00 00 00 00	 call	 ?_M_insert_overflow@?$vector@VMString@@V?$allocator@VMString@@@_STL@@@_STL@@IAEXPAVMString@@ABV3@ABU__false_type@2@I_N@Z ; _STL::vector<MString,_STL::allocator<MString> >::_M_insert_overflow
$L102305:
  00032	5e		 pop	 esi

; 338  :   }

  00033	5d		 pop	 ebp
  00034	c2 04 00	 ret	 4
?push_back@?$vector@VMString@@V?$allocator@VMString@@@_STL@@@_STL@@QAEXABVMString@@@Z ENDP ; _STL::vector<MString,_STL::allocator<MString> >::push_back
_TEXT	ENDS
PUBLIC	??$append@PBD@?$basic_string@DV?$char_traits@D@_STL@@V?$allocator@D@2@@_STL@@QAEAAV01@PBD0@Z ; _STL::basic_string<char,_STL::char_traits<char>,_STL::allocator<char> >::append<char const *>
; Function compile flags: /Ogsy
; File c:\stlport-4.6.1\stlport\stl\_string.h
;	COMDAT ??$append@PBD@?$basic_string@DV?$char_traits@D@_STL@@V?$allocator@D@2@@_STL@@QAEAAV01@PBD0@Z
_TEXT	SEGMENT
___first$ = 8						; size = 4
___last$ = 12						; size = 4
$T108593 = 15						; size = 1
??$append@PBD@?$basic_string@DV?$char_traits@D@_STL@@V?$allocator@D@2@@_STL@@QAEAAV01@PBD0@Z PROC NEAR ; _STL::basic_string<char,_STL::char_traits<char>,_STL::allocator<char> >::append<char const *>, COMDAT
; _this$ = ecx

; 506  :   template <class _InputIter> _Self& append(_InputIter __first, _InputIter __last) {

  00000	55		 push	 ebp
  00001	8b ec		 mov	 ebp, esp

; 507  :     typedef typename _Is_integer<_InputIter>::_Integral _Integral;
; 508  :     return _M_append_dispatch(__first, __last, _Integral());

  00003	8d 45 0f	 lea	 eax, DWORD PTR $T108593[ebp]
  00006	50		 push	 eax
  00007	ff 75 0c	 push	 DWORD PTR ___last$[ebp]
  0000a	ff 75 08	 push	 DWORD PTR ___first$[ebp]
  0000d	e8 00 00 00 00	 call	 ??$append@PBD@?$basic_string@DV?$char_traits@D@_STL@@V?$allocator@D@2@@_STL@@AAEAAV01@PBD0ABUforward_iterator_tag@1@@Z ; _STL::basic_string<char,_STL::char_traits<char>,_STL::allocator<char> >::append<char const *>

; 509  :   }

  00012	5d		 pop	 ebp
  00013	c2 08 00	 ret	 8
??$append@PBD@?$basic_string@DV?$char_traits@D@_STL@@V?$allocator@D@2@@_STL@@QAEAAV01@PBD0@Z ENDP ; _STL::basic_string<char,_STL::char_traits<char>,_STL::allocator<char> >::append<char const *>
_TEXT	ENDS
PUBLIC	??$append@PAD@?$basic_string@DV?$char_traits@D@_STL@@V?$allocator@D@2@@_STL@@QAEAAV01@PAD0@Z ; _STL::basic_string<char,_STL::char_traits<char>,_STL::allocator<char> >::append<char *>
; Function compile flags: /Ogsy
;	COMDAT ??$append@PAD@?$basic_string@DV?$char_traits@D@_STL@@V?$allocator@D@2@@_STL@@QAEAAV01@PAD0@Z
_TEXT	SEGMENT
___first$ = 8						; size = 4
___last$ = 12						; size = 4
$T108601 = 15						; size = 1
??$append@PAD@?$basic_string@DV?$char_traits@D@_STL@@V?$allocator@D@2@@_STL@@QAEAAV01@PAD0@Z PROC NEAR ; _STL::basic_string<char,_STL::char_traits<char>,_STL::allocator<char> >::append<char *>, COMDAT
; _this$ = ecx

; 506  :   template <class _InputIter> _Self& append(_InputIter __first, _InputIter __last) {

  00000	55		 push	 ebp
  00001	8b ec		 mov	 ebp, esp

; 507  :     typedef typename _Is_integer<_InputIter>::_Integral _Integral;
; 508  :     return _M_append_dispatch(__first, __last, _Integral());

  00003	8d 45 0f	 lea	 eax, DWORD PTR $T108601[ebp]
  00006	50		 push	 eax
  00007	ff 75 0c	 push	 DWORD PTR ___last$[ebp]
  0000a	ff 75 08	 push	 DWORD PTR ___first$[ebp]
  0000d	e8 00 00 00 00	 call	 ??$append@PAD@?$basic_string@DV?$char_traits@D@_STL@@V?$allocator@D@2@@_STL@@AAEAAV01@PAD0ABUforward_iterator_tag@1@@Z ; _STL::basic_string<char,_STL::char_traits<char>,_STL::allocator<char> >::append<char *>

; 509  :   }

  00012	5d		 pop	 ebp
  00013	c2 08 00	 ret	 8
??$append@PAD@?$basic_string@DV?$char_traits@D@_STL@@V?$allocator@D@2@@_STL@@QAEAAV01@PAD0@Z ENDP ; _STL::basic_string<char,_STL::char_traits<char>,_STL::allocator<char> >::append<char *>
_TEXT	ENDS
PUBLIC	??$insert@PBD@?$basic_string@DV?$char_traits@D@_STL@@V?$allocator@D@2@@_STL@@QAEXPADPBD1@Z ; _STL::basic_string<char,_STL::char_traits<char>,_STL::allocator<char> >::insert<char const *>
; Function compile flags: /Ogsy
;	COMDAT ??$insert@PBD@?$basic_string@DV?$char_traits@D@_STL@@V?$allocator@D@2@@_STL@@QAEXPADPBD1@Z
_TEXT	SEGMENT
___p$ = 8						; size = 4
___first$ = 12						; size = 4
___last$ = 16						; size = 4
$T108609 = 19						; size = 1
??$insert@PBD@?$basic_string@DV?$char_traits@D@_STL@@V?$allocator@D@2@@_STL@@QAEXPADPBD1@Z PROC NEAR ; _STL::basic_string<char,_STL::char_traits<char>,_STL::allocator<char> >::insert<char const *>, COMDAT
; _this$ = ecx

; 732  :   template <class _InputIter> void insert(iterator __p, _InputIter __first, _InputIter __last) {

  00000	55		 push	 ebp
  00001	8b ec		 mov	 ebp, esp

; 733  :     typedef typename _Is_integer<_InputIter>::_Integral _Integral;
; 734  :     _M_insert_dispatch(__p, __first, __last, _Integral());

  00003	8d 45 13	 lea	 eax, DWORD PTR $T108609[ebp]
  00006	50		 push	 eax
  00007	ff 75 10	 push	 DWORD PTR ___last$[ebp]
  0000a	ff 75 0c	 push	 DWORD PTR ___first$[ebp]
  0000d	ff 75 08	 push	 DWORD PTR ___p$[ebp]
  00010	e8 00 00 00 00	 call	 ??$insert@PBD@?$basic_string@DV?$char_traits@D@_STL@@V?$allocator@D@2@@_STL@@AAEXPADPBD1ABUforward_iterator_tag@1@@Z ; _STL::basic_string<char,_STL::char_traits<char>,_STL::allocator<char> >::insert<char const *>

; 735  :   }

  00015	5d		 pop	 ebp
  00016	c2 0c 00	 ret	 12			; 0000000cH
??$insert@PBD@?$basic_string@DV?$char_traits@D@_STL@@V?$allocator@D@2@@_STL@@QAEXPADPBD1@Z ENDP ; _STL::basic_string<char,_STL::char_traits<char>,_STL::allocator<char> >::insert<char const *>
_TEXT	ENDS
PUBLIC	??$replace@PBD@?$basic_string@DV?$char_traits@D@_STL@@V?$allocator@D@2@@_STL@@AAEAAV01@PAD0PBD1ABUforward_iterator_tag@1@@Z ; _STL::basic_string<char,_STL::char_traits<char>,_STL::allocator<char> >::replace<char const *>
; Function compile flags: /Ogsy
;	COMDAT ??$replace@PBD@?$basic_string@DV?$char_traits@D@_STL@@V?$allocator@D@2@@_STL@@AAEAAV01@PAD0PBD1ABUforward_iterator_tag@1@@Z
_TEXT	SEGMENT
___first$ = 8						; size = 4
___last$ = 12						; size = 4
___f$ = 16						; size = 4
___l$ = 20						; size = 4
___formal$ = 24						; size = 4
??$replace@PBD@?$basic_string@DV?$char_traits@D@_STL@@V?$allocator@D@2@@_STL@@AAEAAV01@PAD0PBD1ABUforward_iterator_tag@1@@Z PROC NEAR ; _STL::basic_string<char,_STL::char_traits<char>,_STL::allocator<char> >::replace<char const *>, COMDAT
; _this$ = ecx

; 1026 :   template <class _ForwardIter> _Self& replace(iterator __first, iterator __last,

  00000	55		 push	 ebp
  00001	8b ec		 mov	 ebp, esp

; 1027 :                         _ForwardIter __f, _ForwardIter __l, 
; 1028 :                         const forward_iterator_tag &)  {
; 1029 : 	  difference_type __n = distance(__f, __l);
; 1030 : 	  const difference_type __len = __last - __first;

  00003	8b 45 0c	 mov	 eax, DWORD PTR ___last$[ebp]
  00006	53		 push	 ebx
  00007	56		 push	 esi
  00008	8b 75 14	 mov	 esi, DWORD PTR ___l$[ebp]
  0000b	57		 push	 edi
  0000c	8b 7d 08	 mov	 edi, DWORD PTR ___first$[ebp]
  0000f	8b d9		 mov	 ebx, ecx
  00011	8b 4d 10	 mov	 ecx, DWORD PTR ___f$[ebp]
  00014	2b f1		 sub	 esi, ecx
  00016	2b c7		 sub	 eax, edi

; 1031 : 	  if (__len >= __n) {

  00018	3b c6		 cmp	 eax, esi

; 1032 : 	    _M_copy(__f, __l, __first);

  0001a	57		 push	 edi
  0001b	7c 1a		 jl	 SHORT $L104114
  0001d	ff 75 14	 push	 DWORD PTR ___l$[ebp]
  00020	51		 push	 ecx
  00021	8b cb		 mov	 ecx, ebx
  00023	e8 00 00 00 00	 call	 ?_M_copy@?$basic_string@DV?$char_traits@D@_STL@@V?$allocator@D@2@@_STL@@AAEXPBD0PAD@Z ; _STL::basic_string<char,_STL::char_traits<char>,_STL::allocator<char> >::_M_copy

; 1033 : 	    erase(__first + __n, __last);

  00028	ff 75 0c	 push	 DWORD PTR ___last$[ebp]
  0002b	03 f7		 add	 esi, edi
  0002d	56		 push	 esi
  0002e	8b cb		 mov	 ecx, ebx
  00030	e8 00 00 00 00	 call	 ?erase@?$basic_string@DV?$char_traits@D@_STL@@V?$allocator@D@2@@_STL@@QAEPADPAD0@Z ; _STL::basic_string<char,_STL::char_traits<char>,_STL::allocator<char> >::erase

; 1034 : 	  }
; 1035 : 	  else {

  00035	eb 1a		 jmp	 SHORT $L104115
$L104114:

; 1036 : 	    _ForwardIter __m = __f;
; 1037 : 	    advance(__m, __len);

  00037	8d 34 08	 lea	 esi, DWORD PTR [eax+ecx]

; 1038 : 	    _M_copy(__f, __m, __first);

  0003a	56		 push	 esi
  0003b	51		 push	 ecx
  0003c	8b cb		 mov	 ecx, ebx
  0003e	e8 00 00 00 00	 call	 ?_M_copy@?$basic_string@DV?$char_traits@D@_STL@@V?$allocator@D@2@@_STL@@AAEXPBD0PAD@Z ; _STL::basic_string<char,_STL::char_traits<char>,_STL::allocator<char> >::_M_copy

; 1039 : 	    insert(__last, __m, __l);

  00043	ff 75 14	 push	 DWORD PTR ___l$[ebp]
  00046	8b cb		 mov	 ecx, ebx
  00048	56		 push	 esi
  00049	ff 75 0c	 push	 DWORD PTR ___last$[ebp]
  0004c	e8 00 00 00 00	 call	 ??$insert@PBD@?$basic_string@DV?$char_traits@D@_STL@@V?$allocator@D@2@@_STL@@QAEXPADPBD1@Z ; _STL::basic_string<char,_STL::char_traits<char>,_STL::allocator<char> >::insert<char const *>
$L104115:
  00051	5f		 pop	 edi
  00052	5e		 pop	 esi

; 1040 : 	  }
; 1041 : 	  return *this;

  00053	8b c3		 mov	 eax, ebx
  00055	5b		 pop	 ebx

; 1042 : 	}

  00056	5d		 pop	 ebp
  00057	c2 14 00	 ret	 20			; 00000014H
??$replace@PBD@?$basic_string@DV?$char_traits@D@_STL@@V?$allocator@D@2@@_STL@@AAEAAV01@PAD0PBD1ABUforward_iterator_tag@1@@Z ENDP ; _STL::basic_string<char,_STL::char_traits<char>,_STL::allocator<char> >::replace<char const *>
; Function compile flags: /Ogsy
_TEXT	ENDS
;	COMDAT ??_Giovfs_base@@UAEPAXI@Z
_TEXT	SEGMENT
___flags$ = 8						; size = 4
??_Giovfs_base@@UAEPAXI@Z PROC NEAR			; iovfs_base::`scalar deleting destructor', COMDAT
; _this$ = ecx
  00000	56		 push	 esi
  00001	8b f1		 mov	 esi, ecx
  00003	e8 00 00 00 00	 call	 ??1iovfs_base@@UAE@XZ	; iovfs_base::~iovfs_base
  00008	f6 44 24 08 01	 test	 BYTE PTR ___flags$[esp], 1
  0000d	74 07		 je	 SHORT $L100303
  0000f	56		 push	 esi
  00010	e8 00 00 00 00	 call	 ??3@YAXPAX@Z		; operator delete
  00015	59		 pop	 ecx
$L100303:
  00016	8b c6		 mov	 eax, esi
  00018	5e		 pop	 esi
  00019	c2 04 00	 ret	 4
??_Giovfs_base@@UAEPAXI@Z ENDP				; iovfs_base::`scalar deleting destructor'
; Function compile flags: /Ogsy
_TEXT	ENDS
;	COMDAT ??_Givfstream@@UAEPAXI@Z
_TEXT	SEGMENT
___flags$ = 8						; size = 4
??_Givfstream@@UAEPAXI@Z PROC NEAR			; ivfstream::`scalar deleting destructor', COMDAT
; _this$ = ecx
  00000	56		 push	 esi
  00001	8b f1		 mov	 esi, ecx
  00003	e8 00 00 00 00	 call	 ??1ivfstream@@UAE@XZ	; ivfstream::~ivfstream
  00008	f6 44 24 08 01	 test	 BYTE PTR ___flags$[esp], 1
  0000d	74 07		 je	 SHORT $L100343
  0000f	56		 push	 esi
  00010	e8 00 00 00 00	 call	 ??3@YAXPAX@Z		; operator delete
  00015	59		 pop	 ecx
$L100343:
  00016	8b c6		 mov	 eax, esi
  00018	5e		 pop	 esi
  00019	c2 04 00	 ret	 4
??_Givfstream@@UAEPAXI@Z ENDP				; ivfstream::`scalar deleting destructor'
_TEXT	ENDS
PUBLIC	?addSender@MHelpMessageManager@@QAEXAAVMString@@@Z ; MHelpMessageManager::addSender
; Function compile flags: /Ogsy
; File c:\darkeden\designed_common\project\client\mhelpmessagemanager.h
;	COMDAT ?addSender@MHelpMessageManager@@QAEXAAVMString@@@Z
_TEXT	SEGMENT
_sender$ = 8						; size = 4
?addSender@MHelpMessageManager@@QAEXAAVMString@@@Z PROC NEAR ; MHelpMessageManager::addSender, COMDAT
; _this$ = ecx

; 96   : 	void			addSender(MString& sender)			{ m_SenderVector.push_back(sender); }

  00000	83 c1 10	 add	 ecx, 16			; 00000010H
  00003	e9 00 00 00 00	 jmp	 ?push_back@?$vector@VMString@@V?$allocator@VMString@@@_STL@@@_STL@@QAEXABVMString@@@Z ; _STL::vector<MString,_STL::allocator<MString> >::push_back
?addSender@MHelpMessageManager@@QAEXAAVMString@@@Z ENDP	; MHelpMessageManager::addSender
_TEXT	ENDS
PUBLIC	?addMessage@MHelpMessageManager@@QAEXAAVMHelpMessage@@@Z ; MHelpMessageManager::addMessage
; Function compile flags: /Ogsy
;	COMDAT ?addMessage@MHelpMessageManager@@QAEXAAVMHelpMessage@@@Z
_TEXT	SEGMENT
_message$ = 8						; size = 4
?addMessage@MHelpMessageManager@@QAEXAAVMHelpMessage@@@Z PROC NEAR ; MHelpMessageManager::addMessage, COMDAT
; _this$ = ecx

; 102  : 	void				addMessage(MHelpMessage& message)	{ m_MessageVector.push_back(message); }

  00000	83 c1 04	 add	 ecx, 4
  00003	e9 00 00 00 00	 jmp	 ?push_back@?$vector@VMHelpMessage@@V?$allocator@VMHelpMessage@@@_STL@@@_STL@@QAEXABVMHelpMessage@@@Z ; _STL::vector<MHelpMessage,_STL::allocator<MHelpMessage> >::push_back
?addMessage@MHelpMessageManager@@QAEXAAVMHelpMessage@@@Z ENDP ; MHelpMessageManager::addMessage
_TEXT	ENDS
PUBLIC	?SaveToFile@MHelpMessageManager@@QAEXAAV?$basic_ofstream@DV?$char_traits@D@_STL@@@_STL@@@Z ; MHelpMessageManager::SaveToFile
PUBLIC	??_C@_02PCIJFNDE@?$AN?6?$AA@			; `string'
PUBLIC	??_C@_05LBHNJABA@?$HLEnd?$HN?$AA@		; `string'
PUBLIC	??_C@_0BA@IAEKBLB@?$FL?$DN?$DN?$DNKeyWord?$DN?$DN?$DN?$FN?$AA@ ; `string'
PUBLIC	??_C@_0BE@NEEEHCCL@?$FL?$DN?$DN?$DNMessageType?$DN?$DN?$DN?$FN?$AA@ ; `string'
PUBLIC	??_C@_0P@FPBOHGPP@?$FL?$DN?$DN?$DNSender?$DN?$DN?$DN?$FN?$AA@ ; `string'
PUBLIC	??_C@_04PFOHOKJK@?5?5?5?5?$AA@			; `string'
PUBLIC	??_C@_0P@EPANAODN@?7?$FL?$DN?$DN?$DNEvent?$DN?$DN?$DN?$FN?$AA@ ; `string'
PUBLIC	??_C@_03OHKANCL@?7?5?5?$AA@			; `string'
PUBLIC	??_C@_0O@DKGHPKIO@?7?7?$CDSLAYERPAGE?$AA@	; `string'
PUBLIC	??_C@_0P@BNEHKNLI@?7?7?$CDVAMPIREPAGE?$AA@	; `string'
PUBLIC	??_C@_0BA@DONKIENF@?7?7?$CDOUTSTERSPAGE?$AA@	; `string'
PUBLIC	??_C@_0O@MDKDJPGJ@?7?7?$FL?$DN?$DNTitle?$DN?$DN?$FN?$AA@ ; `string'
PUBLIC	??_C@_05GJNJKAJJ@?7?7?5?5?5?$AA@		; `string'
PUBLIC	??_C@_0P@HDLANGCL@?7?7?$FL?$DN?$DNSender?$DN?$DN?$FN?$AA@ ; `string'
PUBLIC	??_C@_0BF@BHACDDOM@?7?7?$FL?$DN?$DNLevel?5?A?$LG?$LA?G?G?$KF?$DN?$DN?$FN?$AA@ ; `string'
PUBLIC	??_C@_0P@KBJDKHGG@?7?7?$FL?$DN?$DNDetail?$DN?$DN?$FN?$AA@ ; `string'
PUBLIC	??_C@_01CLKCMJKC@?5?$AA@			; `string'
;	COMDAT ??_C@_02PCIJFNDE@?$AN?6?$AA@
; File c:\stlport-4.6.1\stlport\stl\_ostream.h
CONST	SEGMENT
??_C@_02PCIJFNDE@?$AN?6?$AA@ DB 0dH, 0aH, 00H		; `string'
CONST	ENDS
;	COMDAT ??_C@_0P@FPBOHGPP@?$FL?$DN?$DN?$DNSender?$DN?$DN?$DN?$FN?$AA@
CONST	SEGMENT
??_C@_0P@FPBOHGPP@?$FL?$DN?$DN?$DNSender?$DN?$DN?$DN?$FN?$AA@ DB '[===Sen'
	DB	'der===]', 00H				; `string'
CONST	ENDS
;	COMDAT ??_C@_0BA@IAEKBLB@?$FL?$DN?$DN?$DNKeyWord?$DN?$DN?$DN?$FN?$AA@
CONST	SEGMENT
??_C@_0BA@IAEKBLB@?$FL?$DN?$DN?$DNKeyWord?$DN?$DN?$DN?$FN?$AA@ DB '[===Ke'
	DB	'yWord===]', 00H				; `string'
CONST	ENDS
;	COMDAT ??_C@_0BE@NEEEHCCL@?$FL?$DN?$DN?$DNMessageType?$DN?$DN?$DN?$FN?$AA@
CONST	SEGMENT
??_C@_0BE@NEEEHCCL@?$FL?$DN?$DN?$DNMessageType?$DN?$DN?$DN?$FN?$AA@ DB '['
	DB	'===MessageType===]', 00H			; `string'
CONST	ENDS
;	COMDAT ??_C@_04PFOHOKJK@?5?5?5?5?$AA@
CONST	SEGMENT
??_C@_04PFOHOKJK@?5?5?5?5?$AA@ DB '    ', 00H		; `string'
CONST	ENDS
;	COMDAT ??_C@_0P@EPANAODN@?7?$FL?$DN?$DN?$DNEvent?$DN?$DN?$DN?$FN?$AA@
CONST	SEGMENT
??_C@_0P@EPANAODN@?7?$FL?$DN?$DN?$DNEvent?$DN?$DN?$DN?$FN?$AA@ DB 09H, '['
	DB	'===Event===]', 00H				; `string'
CONST	ENDS
;	COMDAT ??_C@_03OHKANCL@?7?5?5?$AA@
CONST	SEGMENT
??_C@_03OHKANCL@?7?5?5?$AA@ DB 09H, '  ', 00H		; `string'
CONST	ENDS
;	COMDAT ??_C@_0BA@DONKIENF@?7?7?$CDOUTSTERSPAGE?$AA@
CONST	SEGMENT
??_C@_0BA@DONKIENF@?7?7?$CDOUTSTERSPAGE?$AA@ DB 09H, 09H, '#OUTSTERSPAGE', 00H ; `string'
CONST	ENDS
;	COMDAT ??_C@_0P@BNEHKNLI@?7?7?$CDVAMPIREPAGE?$AA@
CONST	SEGMENT
??_C@_0P@BNEHKNLI@?7?7?$CDVAMPIREPAGE?$AA@ DB 09H, 09H, '#VAMPIREPAGE', 00H ; `string'
CONST	ENDS
;	COMDAT ??_C@_0O@DKGHPKIO@?7?7?$CDSLAYERPAGE?$AA@
CONST	SEGMENT
??_C@_0O@DKGHPKIO@?7?7?$CDSLAYERPAGE?$AA@ DB 09H, 09H, '#SLAYERPAGE', 00H ; `string'
CONST	ENDS
;	COMDAT ??_C@_0O@MDKDJPGJ@?7?7?$FL?$DN?$DNTitle?$DN?$DN?$FN?$AA@
CONST	SEGMENT
??_C@_0O@MDKDJPGJ@?7?7?$FL?$DN?$DNTitle?$DN?$DN?$FN?$AA@ DB 09H, 09H, '[='
	DB	'=Title==]', 00H				; `string'
CONST	ENDS
;	COMDAT ??_C@_05GJNJKAJJ@?7?7?5?5?5?$AA@
CONST	SEGMENT
??_C@_05GJNJKAJJ@?7?7?5?5?5?$AA@ DB 09H, 09H, '   ', 00H ; `string'
CONST	ENDS
;	COMDAT ??_C@_0P@HDLANGCL@?7?7?$FL?$DN?$DNSender?$DN?$DN?$FN?$AA@
CONST	SEGMENT
??_C@_0P@HDLANGCL@?7?7?$FL?$DN?$DNSender?$DN?$DN?$FN?$AA@ DB 09H, 09H, '['
	DB	'==Sender==]', 00H				; `string'
CONST	ENDS
;	COMDAT ??_C@_0BF@BHACDDOM@?7?7?$FL?$DN?$DNLevel?5?A?$LG?$LA?G?G?$KF?$DN?$DN?$FN?$AA@
CONST	SEGMENT
??_C@_0BF@BHACDDOM@?7?7?$FL?$DN?$DNLevel?5?A?$LG?$LA?G?G?$KF?$DN?$DN?$FN?$AA@ DB 09H
	DB	09H, '[==Level ', 0c1H, 0b6H, 0b0H, 0c7H, 0c7H, 0a5H, '==]', 00H ; `string'
CONST	ENDS
;	COMDAT ??_C@_01CLKCMJKC@?5?$AA@
CONST	SEGMENT
??_C@_01CLKCMJKC@?5?$AA@ DB ' ', 00H			; `string'
CONST	ENDS
;	COMDAT ??_C@_0P@KBJDKHGG@?7?7?$FL?$DN?$DNDetail?$DN?$DN?$FN?$AA@
CONST	SEGMENT
??_C@_0P@KBJDKHGG@?7?7?$FL?$DN?$DNDetail?$DN?$DN?$FN?$AA@ DB 09H, 09H, '['
	DB	'==Detail==]', 00H				; `string'
CONST	ENDS
;	COMDAT ??_C@_05LBHNJABA@?$HLEnd?$HN?$AA@
CONST	SEGMENT
??_C@_05LBHNJABA@?$HLEnd?$HN?$AA@ DB '{End}', 00H	; `string'
; Function compile flags: /Ogsy
; File c:\darkeden\designed_common\project\client\mhelpmessagemanager.cpp
CONST	ENDS
;	COMDAT ?SaveToFile@MHelpMessageManager@@QAEXAAV?$basic_ofstream@DV?$char_traits@D@_STL@@@_STL@@@Z
_TEXT	SEGMENT
_i$ = -12						; size = 4
_this$ = -8						; size = 4
$T108883 = -4						; size = 4
$T108875 = -4						; size = 4
$T108867 = -4						; size = 4
$T108859 = -4						; size = 4
$T108851 = -4						; size = 4
$T108808 = -4						; size = 4
tv581 = 8						; size = 4
tv567 = 8						; size = 4
_file$ = 8						; size = 4
?SaveToFile@MHelpMessageManager@@QAEXAAV?$basic_ofstream@DV?$char_traits@D@_STL@@@_STL@@@Z PROC NEAR ; MHelpMessageManager::SaveToFile, COMDAT
; _this$ = ecx

; 425  : {

  00000	83 ec 0c	 sub	 esp, 12			; 0000000cH
  00003	53		 push	 ebx
  00004	55		 push	 ebp

; 426  : 	int i;
; 427  : 	size_t strlen = 0;
; 428  : 	file << m_SenderCnt << "\r\n";

  00005	8b 6c 24 18	 mov	 ebp, DWORD PTR _file$[esp+16]
  00009	56		 push	 esi
  0000a	8b f1		 mov	 esi, ecx
  0000c	57		 push	 edi
  0000d	ff 76 20	 push	 DWORD PTR [esi+32]
  00010	89 74 24 18	 mov	 DWORD PTR _this$[esp+32], esi
  00014	55		 push	 ebp
  00015	e8 00 00 00 00	 call	 ??$_M_put_num@DV?$char_traits@D@_STL@@J@_STL@@YAAAV?$basic_ostream@DV?$char_traits@D@_STL@@@0@AAV10@J@Z ; _STL::_M_put_num<char,_STL::char_traits<char>,long>
  0001a	59		 pop	 ecx
  0001b	59		 pop	 ecx
  0001c	bb 00 00 00 00	 mov	 ebx, OFFSET FLAT:??_C@_02PCIJFNDE@?$AN?6?$AA@
  00021	53		 push	 ebx
  00022	8b c8		 mov	 ecx, eax
  00024	e8 00 00 00 00	 call	 ?_M_put_nowiden@?$basic_ostream@DV?$char_traits@D@_STL@@@_STL@@QAEXPBD@Z ; _STL::basic_ostream<char,_STL::char_traits<char> >::_M_put_nowiden

; 429  : 	file << "[===Sender===]" << "\r\n";

  00029	68 00 00 00 00	 push	 OFFSET FLAT:??_C@_0P@FPBOHGPP@?$FL?$DN?$DN?$DNSender?$DN?$DN?$DN?$FN?$AA@
  0002e	8b cd		 mov	 ecx, ebp
  00030	e8 00 00 00 00	 call	 ?_M_put_nowiden@?$basic_ostream@DV?$char_traits@D@_STL@@@_STL@@QAEXPBD@Z ; _STL::basic_ostream<char,_STL::char_traits<char> >::_M_put_nowiden
  00035	53		 push	 ebx
  00036	8b cd		 mov	 ecx, ebp
  00038	e8 00 00 00 00	 call	 ?_M_put_nowiden@?$basic_ostream@DV?$char_traits@D@_STL@@@_STL@@QAEXPBD@Z ; _STL::basic_ostream<char,_STL::char_traits<char> >::_M_put_nowiden

; 430  : 
; 431  : 	for(i = 0; i< m_SenderCnt; i++)

  0003d	33 ff		 xor	 edi, edi
  0003f	39 7e 20	 cmp	 DWORD PTR [esi+32], edi
  00042	7e 29		 jle	 SHORT $L102105

; 426  : 	int i;
; 427  : 	size_t strlen = 0;
; 428  : 	file << m_SenderCnt << "\r\n";

  00044	89 7c 24 20	 mov	 DWORD PTR tv567[esp+24], edi
$L108927:

; 432  : 	{
; 433  : //		const MString& strSender = MHelpMessageManager::Instance().getSender(i);
; 434  : 		const MString& strSender = getSender(i);
; 435  : 		file << strSender << "\r\n";

  00048	8b 46 10	 mov	 eax, DWORD PTR [esi+16]
  0004b	8b 4c 24 20	 mov	 ecx, DWORD PTR tv567[esp+24]
  0004f	ff 74 01 08	 push	 DWORD PTR [ecx+eax+8]
  00053	8b cd		 mov	 ecx, ebp
  00055	e8 00 00 00 00	 call	 ?_M_put_nowiden@?$basic_ostream@DV?$char_traits@D@_STL@@@_STL@@QAEXPBD@Z ; _STL::basic_ostream<char,_STL::char_traits<char> >::_M_put_nowiden
  0005a	53		 push	 ebx
  0005b	8b cd		 mov	 ecx, ebp
  0005d	e8 00 00 00 00	 call	 ?_M_put_nowiden@?$basic_ostream@DV?$char_traits@D@_STL@@@_STL@@QAEXPBD@Z ; _STL::basic_ostream<char,_STL::char_traits<char> >::_M_put_nowiden
  00062	83 44 24 20 0c	 add	 DWORD PTR tv567[esp+24], 12 ; 0000000cH
  00067	47		 inc	 edi
  00068	3b 7e 20	 cmp	 edi, DWORD PTR [esi+32]
  0006b	7c db		 jl	 SHORT $L108927
$L102105:

; 436  : 	}
; 437  : 	m_KeyCnt = this->getMessageSize();

  0006d	8b 46 08	 mov	 eax, DWORD PTR [esi+8]
  00070	2b 46 04	 sub	 eax, DWORD PTR [esi+4]
  00073	b9 bc 00 00 00	 mov	 ecx, 188		; 000000bcH
  00078	99		 cdq
  00079	f7 f9		 idiv	 ecx

; 438  : 	file <<  m_KeyCnt << "\r\n";

  0007b	50		 push	 eax
  0007c	55		 push	 ebp
  0007d	89 46 1c	 mov	 DWORD PTR [esi+28], eax
  00080	e8 00 00 00 00	 call	 ??$_M_put_num@DV?$char_traits@D@_STL@@J@_STL@@YAAAV?$basic_ostream@DV?$char_traits@D@_STL@@@0@AAV10@J@Z ; _STL::_M_put_num<char,_STL::char_traits<char>,long>
  00085	59		 pop	 ecx
  00086	59		 pop	 ecx
  00087	53		 push	 ebx
  00088	8b c8		 mov	 ecx, eax
  0008a	e8 00 00 00 00	 call	 ?_M_put_nowiden@?$basic_ostream@DV?$char_traits@D@_STL@@@_STL@@QAEXPBD@Z ; _STL::basic_ostream<char,_STL::char_traits<char> >::_M_put_nowiden

; 439  : 	for(i=0 ; i< m_KeyCnt; i++)

  0008f	33 c0		 xor	 eax, eax
  00091	39 46 1c	 cmp	 DWORD PTR [esi+28], eax
  00094	89 44 24 10	 mov	 DWORD PTR _i$[esp+28], eax
  00098	0f 8e 9a 02 00
	00		 jle	 $L102109

; 436  : 	}
; 437  : 	m_KeyCnt = this->getMessageSize();

  0009e	89 44 24 20	 mov	 DWORD PTR tv581[esp+24], eax
  000a2	eb 04		 jmp	 SHORT $L102107
$L108926:
  000a4	8b 74 24 14	 mov	 esi, DWORD PTR _this$[esp+28]
$L102107:

; 440  : 	{
; 441  : //		const MHelpMessage& message = MHelpMessageManager::Instance().getMessage(i);
; 442  : 		const MHelpMessage& message = getMessage(i);

  000a8	8b 76 04	 mov	 esi, DWORD PTR [esi+4]
  000ab	03 74 24 20	 add	 esi, DWORD PTR tv581[esp+24]

; 443  : 		file << "[===KeyWord===]" << "\r\n" ;

  000af	68 00 00 00 00	 push	 OFFSET FLAT:??_C@_0BA@IAEKBLB@?$FL?$DN?$DN?$DNKeyWord?$DN?$DN?$DN?$FN?$AA@
  000b4	8b cd		 mov	 ecx, ebp
  000b6	e8 00 00 00 00	 call	 ?_M_put_nowiden@?$basic_ostream@DV?$char_traits@D@_STL@@@_STL@@QAEXPBD@Z ; _STL::basic_ostream<char,_STL::char_traits<char> >::_M_put_nowiden
  000bb	53		 push	 ebx
  000bc	8b cd		 mov	 ecx, ebp
  000be	e8 00 00 00 00	 call	 ?_M_put_nowiden@?$basic_ostream@DV?$char_traits@D@_STL@@@_STL@@QAEXPBD@Z ; _STL::basic_ostream<char,_STL::char_traits<char> >::_M_put_nowiden

; 444  : 		file <<  message.m_strKeyword  << "\r\n";

  000c3	ff 76 10	 push	 DWORD PTR [esi+16]
  000c6	8b cd		 mov	 ecx, ebp
  000c8	e8 00 00 00 00	 call	 ?_M_put_nowiden@?$basic_ostream@DV?$char_traits@D@_STL@@@_STL@@QAEXPBD@Z ; _STL::basic_ostream<char,_STL::char_traits<char> >::_M_put_nowiden
  000cd	53		 push	 ebx
  000ce	8b cd		 mov	 ecx, ebp
  000d0	e8 00 00 00 00	 call	 ?_M_put_nowiden@?$basic_ostream@DV?$char_traits@D@_STL@@@_STL@@QAEXPBD@Z ; _STL::basic_ostream<char,_STL::char_traits<char> >::_M_put_nowiden

; 445  : 		file << "[===MessageType===]" << "\r\n" ;

  000d5	68 00 00 00 00	 push	 OFFSET FLAT:??_C@_0BE@NEEEHCCL@?$FL?$DN?$DN?$DNMessageType?$DN?$DN?$DN?$FN?$AA@
  000da	8b cd		 mov	 ecx, ebp
  000dc	e8 00 00 00 00	 call	 ?_M_put_nowiden@?$basic_ostream@DV?$char_traits@D@_STL@@@_STL@@QAEXPBD@Z ; _STL::basic_ostream<char,_STL::char_traits<char> >::_M_put_nowiden
  000e1	53		 push	 ebx
  000e2	8b cd		 mov	 ecx, ebp
  000e4	e8 00 00 00 00	 call	 ?_M_put_nowiden@?$basic_ostream@DV?$char_traits@D@_STL@@@_STL@@QAEXPBD@Z ; _STL::basic_ostream<char,_STL::char_traits<char> >::_M_put_nowiden

; 446  : 		file << "    " << message.m_messageType << "\r\n";

  000e9	68 00 00 00 00	 push	 OFFSET FLAT:??_C@_04PFOHOKJK@?5?5?5?5?$AA@
  000ee	8b cd		 mov	 ecx, ebp
  000f0	e8 00 00 00 00	 call	 ?_M_put_nowiden@?$basic_ostream@DV?$char_traits@D@_STL@@@_STL@@QAEXPBD@Z ; _STL::basic_ostream<char,_STL::char_traits<char> >::_M_put_nowiden
  000f5	ff 76 04	 push	 DWORD PTR [esi+4]
  000f8	55		 push	 ebp
  000f9	e8 00 00 00 00	 call	 ??$_M_put_num@DV?$char_traits@D@_STL@@J@_STL@@YAAAV?$basic_ostream@DV?$char_traits@D@_STL@@@0@AAV10@J@Z ; _STL::_M_put_num<char,_STL::char_traits<char>,long>
  000fe	59		 pop	 ecx
  000ff	59		 pop	 ecx
  00100	53		 push	 ebx
  00101	8b c8		 mov	 ecx, eax
  00103	e8 00 00 00 00	 call	 ?_M_put_nowiden@?$basic_ostream@DV?$char_traits@D@_STL@@@_STL@@QAEXPBD@Z ; _STL::basic_ostream<char,_STL::char_traits<char> >::_M_put_nowiden

; 447  : 		file << "	[===Event===]" << "\r\n" ;

  00108	68 00 00 00 00	 push	 OFFSET FLAT:??_C@_0P@EPANAODN@?7?$FL?$DN?$DN?$DNEvent?$DN?$DN?$DN?$FN?$AA@
  0010d	8b cd		 mov	 ecx, ebp
  0010f	e8 00 00 00 00	 call	 ?_M_put_nowiden@?$basic_ostream@DV?$char_traits@D@_STL@@@_STL@@QAEXPBD@Z ; _STL::basic_ostream<char,_STL::char_traits<char> >::_M_put_nowiden
  00114	53		 push	 ebx
  00115	8b cd		 mov	 ecx, ebp
  00117	e8 00 00 00 00	 call	 ?_M_put_nowiden@?$basic_ostream@DV?$char_traits@D@_STL@@@_STL@@QAEXPBD@Z ; _STL::basic_ostream<char,_STL::char_traits<char> >::_M_put_nowiden

; 448  : 		strlen =  message.m_strEvent.GetLength();
; 449  : 		if( strlen > 0 )

  0011c	83 7e 18 00	 cmp	 DWORD PTR [esi+24], 0

; 450  : 		{
; 451  : 			file << "	  " <<  message.m_strEvent  << "\r\n";

  00120	8b cd		 mov	 ecx, ebp
  00122	76 17		 jbe	 SHORT $L102113
  00124	8b 7e 1c	 mov	 edi, DWORD PTR [esi+28]
  00127	68 00 00 00 00	 push	 OFFSET FLAT:??_C@_03OHKANCL@?7?5?5?$AA@
  0012c	e8 00 00 00 00	 call	 ?_M_put_nowiden@?$basic_ostream@DV?$char_traits@D@_STL@@@_STL@@QAEXPBD@Z ; _STL::basic_ostream<char,_STL::char_traits<char> >::_M_put_nowiden
  00131	57		 push	 edi
  00132	8b cd		 mov	 ecx, ebp
  00134	e8 00 00 00 00	 call	 ?_M_put_nowiden@?$basic_ostream@DV?$char_traits@D@_STL@@@_STL@@QAEXPBD@Z ; _STL::basic_ostream<char,_STL::char_traits<char> >::_M_put_nowiden
  00139	8b cd		 mov	 ecx, ebp
$L102113:

; 452  : 		}
; 453  : 		else
; 454  : 		{
; 455  : 		file <<  "\r\n" ;

  0013b	53		 push	 ebx
  0013c	e8 00 00 00 00	 call	 ?_M_put_nowiden@?$basic_ostream@DV?$char_traits@D@_STL@@@_STL@@QAEXPBD@Z ; _STL::basic_ostream<char,_STL::char_traits<char> >::_M_put_nowiden

; 456  : 		}
; 457  : 		//   
; 458  : 		for(int j = 0; j<3; j++)

  00141	33 ff		 xor	 edi, edi
$L102117:

; 459  : 		{
; 460  : 
; 461  : 			switch(j)

  00143	8b c7		 mov	 eax, edi
  00145	83 e8 00	 sub	 eax, 0
  00148	74 14		 je	 SHORT $L102124
  0014a	48		 dec	 eax
  0014b	74 0a		 je	 SHORT $L102126
  0014d	48		 dec	 eax
  0014e	75 22		 jne	 SHORT $L108783

; 465  : 			case 2:	file << "		#OUTSTERSPAGE" << "\r\n"; break;

  00150	68 00 00 00 00	 push	 OFFSET FLAT:??_C@_0BA@DONKIENF@?7?7?$CDOUTSTERSPAGE?$AA@
  00155	eb 0c		 jmp	 SHORT $L108928
$L102126:

; 464  : 			case 1:	file << "		#VAMPIREPAGE" << "\r\n"; break;

  00157	68 00 00 00 00	 push	 OFFSET FLAT:??_C@_0P@BNEHKNLI@?7?7?$CDVAMPIREPAGE?$AA@
  0015c	eb 05		 jmp	 SHORT $L108928
$L102124:

; 462  : 			{
; 463  : 			case 0:	file << "		#SLAYERPAGE" << "\r\n"; break;

  0015e	68 00 00 00 00	 push	 OFFSET FLAT:??_C@_0O@DKGHPKIO@?7?7?$CDSLAYERPAGE?$AA@
$L108928:
  00163	8b cd		 mov	 ecx, ebp
  00165	e8 00 00 00 00	 call	 ?_M_put_nowiden@?$basic_ostream@DV?$char_traits@D@_STL@@@_STL@@QAEXPBD@Z ; _STL::basic_ostream<char,_STL::char_traits<char> >::_M_put_nowiden
  0016a	8b cd		 mov	 ecx, ebp
  0016c	53		 push	 ebx
  0016d	e8 00 00 00 00	 call	 ?_M_put_nowiden@?$basic_ostream@DV?$char_traits@D@_STL@@@_STL@@QAEXPBD@Z ; _STL::basic_ostream<char,_STL::char_traits<char> >::_M_put_nowiden
$L108783:

; 466  : 			}
; 467  : 			file << "		[==Title==]" << "\r\n" ;

  00172	68 00 00 00 00	 push	 OFFSET FLAT:??_C@_0O@MDKDJPGJ@?7?7?$FL?$DN?$DNTitle?$DN?$DN?$FN?$AA@
  00177	8b cd		 mov	 ecx, ebp
  00179	e8 00 00 00 00	 call	 ?_M_put_nowiden@?$basic_ostream@DV?$char_traits@D@_STL@@@_STL@@QAEXPBD@Z ; _STL::basic_ostream<char,_STL::char_traits<char> >::_M_put_nowiden
  0017e	53		 push	 ebx
  0017f	8b cd		 mov	 ecx, ebp
  00181	e8 00 00 00 00	 call	 ?_M_put_nowiden@?$basic_ostream@DV?$char_traits@D@_STL@@@_STL@@QAEXPBD@Z ; _STL::basic_ostream<char,_STL::char_traits<char> >::_M_put_nowiden

; 468  : 			strlen =  message.m_strTitle[j].GetLength();
; 469  : 			if( strlen > 0 )

  00186	8d 44 7f 09	 lea	 eax, DWORD PTR [edi+edi*2+9]
  0018a	83 3c 86 00	 cmp	 DWORD PTR [esi+eax*4], 0

; 470  : 			{
; 471  : 				file << "		   " <<   message.m_strTitle[j]<< "\r\n";

  0018e	8b cd		 mov	 ecx, ebp
  00190	76 22		 jbe	 SHORT $L102131
  00192	8d 04 7f	 lea	 eax, DWORD PTR [edi+edi*2]
  00195	8b 44 86 28	 mov	 eax, DWORD PTR [esi+eax*4+40]
  00199	68 00 00 00 00	 push	 OFFSET FLAT:??_C@_05GJNJKAJJ@?7?7?5?5?5?$AA@
  0019e	89 44 24 1c	 mov	 DWORD PTR $T108808[esp+32], eax
  001a2	e8 00 00 00 00	 call	 ?_M_put_nowiden@?$basic_ostream@DV?$char_traits@D@_STL@@@_STL@@QAEXPBD@Z ; _STL::basic_ostream<char,_STL::char_traits<char> >::_M_put_nowiden
  001a7	ff 74 24 18	 push	 DWORD PTR $T108808[esp+28]
  001ab	8b cd		 mov	 ecx, ebp
  001ad	e8 00 00 00 00	 call	 ?_M_put_nowiden@?$basic_ostream@DV?$char_traits@D@_STL@@@_STL@@QAEXPBD@Z ; _STL::basic_ostream<char,_STL::char_traits<char> >::_M_put_nowiden
  001b2	8b cd		 mov	 ecx, ebp
$L102131:

; 472  : 			}
; 473  : 			else
; 474  : 			{
; 475  : 			file <<  "\r\n" ;

  001b4	53		 push	 ebx
  001b5	e8 00 00 00 00	 call	 ?_M_put_nowiden@?$basic_ostream@DV?$char_traits@D@_STL@@@_STL@@QAEXPBD@Z ; _STL::basic_ostream<char,_STL::char_traits<char> >::_M_put_nowiden

; 476  : 			}
; 477  : 			file << "		[==Sender==]" << "\r\n";

  001ba	68 00 00 00 00	 push	 OFFSET FLAT:??_C@_0P@HDLANGCL@?7?7?$FL?$DN?$DNSender?$DN?$DN?$FN?$AA@
  001bf	8b cd		 mov	 ecx, ebp
  001c1	e8 00 00 00 00	 call	 ?_M_put_nowiden@?$basic_ostream@DV?$char_traits@D@_STL@@@_STL@@QAEXPBD@Z ; _STL::basic_ostream<char,_STL::char_traits<char> >::_M_put_nowiden
  001c6	53		 push	 ebx
  001c7	8b cd		 mov	 ecx, ebp
  001c9	e8 00 00 00 00	 call	 ?_M_put_nowiden@?$basic_ostream@DV?$char_traits@D@_STL@@@_STL@@QAEXPBD@Z ; _STL::basic_ostream<char,_STL::char_traits<char> >::_M_put_nowiden

; 478  : 			file << "		   " << message.m_iSender[j] << "\r\n";

  001ce	68 00 00 00 00	 push	 OFFSET FLAT:??_C@_05GJNJKAJJ@?7?7?5?5?5?$AA@
  001d3	8b cd		 mov	 ecx, ebp
  001d5	e8 00 00 00 00	 call	 ?_M_put_nowiden@?$basic_ostream@DV?$char_traits@D@_STL@@@_STL@@QAEXPBD@Z ; _STL::basic_ostream<char,_STL::char_traits<char> >::_M_put_nowiden
  001da	ff b4 be 8c 00
	00 00		 push	 DWORD PTR [esi+edi*4+140]
  001e1	55		 push	 ebp
  001e2	e8 00 00 00 00	 call	 ??$_M_put_num@DV?$char_traits@D@_STL@@J@_STL@@YAAAV?$basic_ostream@DV?$char_traits@D@_STL@@@0@AAV10@J@Z ; _STL::_M_put_num<char,_STL::char_traits<char>,long>
  001e7	59		 pop	 ecx
  001e8	59		 pop	 ecx
  001e9	53		 push	 ebx
  001ea	8b c8		 mov	 ecx, eax
  001ec	e8 00 00 00 00	 call	 ?_M_put_nowiden@?$basic_ostream@DV?$char_traits@D@_STL@@@_STL@@QAEXPBD@Z ; _STL::basic_ostream<char,_STL::char_traits<char> >::_M_put_nowiden

; 479  : 			file << "		[==Level ==]" << "\r\n" ;

  001f1	68 00 00 00 00	 push	 OFFSET FLAT:??_C@_0BF@BHACDDOM@?7?7?$FL?$DN?$DNLevel?5?A?$LG?$LA?G?G?$KF?$DN?$DN?$FN?$AA@
  001f6	8b cd		 mov	 ecx, ebp
  001f8	e8 00 00 00 00	 call	 ?_M_put_nowiden@?$basic_ostream@DV?$char_traits@D@_STL@@@_STL@@QAEXPBD@Z ; _STL::basic_ostream<char,_STL::char_traits<char> >::_M_put_nowiden
  001fd	53		 push	 ebx
  001fe	8b cd		 mov	 ecx, ebp
  00200	e8 00 00 00 00	 call	 ?_M_put_nowiden@?$basic_ostream@DV?$char_traits@D@_STL@@@_STL@@QAEXPBD@Z ; _STL::basic_ostream<char,_STL::char_traits<char> >::_M_put_nowiden

; 480  : 			file << "		   " << message.m_iLevelLow[j] << " " << message.m_iLevelMax[j] << " " <<
; 481  : 				message.m_iDomainLow[j]<< " " << message.m_iDomainMax[j] << " " <<
; 482  : 				message.m_iAttrLow[j] << " "  << message.m_iAttrLow[j] << "\r\n";

  00205	68 00 00 00 00	 push	 OFFSET FLAT:??_C@_05GJNJKAJJ@?7?7?5?5?5?$AA@
  0020a	8b cd		 mov	 ecx, ebp
  0020c	e8 00 00 00 00	 call	 ?_M_put_nowiden@?$basic_ostream@DV?$char_traits@D@_STL@@@_STL@@QAEXPBD@Z ; _STL::basic_ostream<char,_STL::char_traits<char> >::_M_put_nowiden
  00211	ff 74 be 50	 push	 DWORD PTR [esi+edi*4+80]
  00215	55		 push	 ebp
  00216	e8 00 00 00 00	 call	 ??$_M_put_num@DV?$char_traits@D@_STL@@J@_STL@@YAAAV?$basic_ostream@DV?$char_traits@D@_STL@@@0@AAV10@J@Z ; _STL::_M_put_num<char,_STL::char_traits<char>,long>
  0021b	59		 pop	 ecx
  0021c	59		 pop	 ecx
  0021d	8b c8		 mov	 ecx, eax
  0021f	68 00 00 00 00	 push	 OFFSET FLAT:??_C@_01CLKCMJKC@?5?$AA@
  00224	89 4c 24 1c	 mov	 DWORD PTR $T108851[esp+32], ecx
  00228	e8 00 00 00 00	 call	 ?_M_put_nowiden@?$basic_ostream@DV?$char_traits@D@_STL@@@_STL@@QAEXPBD@Z ; _STL::basic_ostream<char,_STL::char_traits<char> >::_M_put_nowiden
  0022d	ff 74 be 44	 push	 DWORD PTR [esi+edi*4+68]
  00231	ff 74 24 1c	 push	 DWORD PTR $T108851[esp+32]
  00235	e8 00 00 00 00	 call	 ??$_M_put_num@DV?$char_traits@D@_STL@@J@_STL@@YAAAV?$basic_ostream@DV?$char_traits@D@_STL@@@0@AAV10@J@Z ; _STL::_M_put_num<char,_STL::char_traits<char>,long>
  0023a	59		 pop	 ecx
  0023b	59		 pop	 ecx
  0023c	8b c8		 mov	 ecx, eax
  0023e	68 00 00 00 00	 push	 OFFSET FLAT:??_C@_01CLKCMJKC@?5?$AA@
  00243	89 4c 24 1c	 mov	 DWORD PTR $T108859[esp+32], ecx
  00247	e8 00 00 00 00	 call	 ?_M_put_nowiden@?$basic_ostream@DV?$char_traits@D@_STL@@@_STL@@QAEXPBD@Z ; _STL::basic_ostream<char,_STL::char_traits<char> >::_M_put_nowiden
  0024c	ff 74 be 68	 push	 DWORD PTR [esi+edi*4+104]
  00250	ff 74 24 1c	 push	 DWORD PTR $T108859[esp+32]
  00254	e8 00 00 00 00	 call	 ??$_M_put_num@DV?$char_traits@D@_STL@@J@_STL@@YAAAV?$basic_ostream@DV?$char_traits@D@_STL@@@0@AAV10@J@Z ; _STL::_M_put_num<char,_STL::char_traits<char>,long>
  00259	59		 pop	 ecx
  0025a	59		 pop	 ecx
  0025b	8b c8		 mov	 ecx, eax
  0025d	68 00 00 00 00	 push	 OFFSET FLAT:??_C@_01CLKCMJKC@?5?$AA@
  00262	89 4c 24 1c	 mov	 DWORD PTR $T108867[esp+32], ecx
  00266	e8 00 00 00 00	 call	 ?_M_put_nowiden@?$basic_ostream@DV?$char_traits@D@_STL@@@_STL@@QAEXPBD@Z ; _STL::basic_ostream<char,_STL::char_traits<char> >::_M_put_nowiden
  0026b	ff 74 be 5c	 push	 DWORD PTR [esi+edi*4+92]
  0026f	ff 74 24 1c	 push	 DWORD PTR $T108867[esp+32]
  00273	e8 00 00 00 00	 call	 ??$_M_put_num@DV?$char_traits@D@_STL@@J@_STL@@YAAAV?$basic_ostream@DV?$char_traits@D@_STL@@@0@AAV10@J@Z ; _STL::_M_put_num<char,_STL::char_traits<char>,long>
  00278	59		 pop	 ecx
  00279	59		 pop	 ecx
  0027a	8b c8		 mov	 ecx, eax
  0027c	68 00 00 00 00	 push	 OFFSET FLAT:??_C@_01CLKCMJKC@?5?$AA@
  00281	89 4c 24 1c	 mov	 DWORD PTR $T108875[esp+32], ecx
  00285	e8 00 00 00 00	 call	 ?_M_put_nowiden@?$basic_ostream@DV?$char_traits@D@_STL@@@_STL@@QAEXPBD@Z ; _STL::basic_ostream<char,_STL::char_traits<char> >::_M_put_nowiden
  0028a	ff b4 be 80 00
	00 00		 push	 DWORD PTR [esi+edi*4+128]
  00291	ff 74 24 1c	 push	 DWORD PTR $T108875[esp+32]
  00295	e8 00 00 00 00	 call	 ??$_M_put_num@DV?$char_traits@D@_STL@@J@_STL@@YAAAV?$basic_ostream@DV?$char_traits@D@_STL@@@0@AAV10@J@Z ; _STL::_M_put_num<char,_STL::char_traits<char>,long>
  0029a	59		 pop	 ecx
  0029b	59		 pop	 ecx
  0029c	8b c8		 mov	 ecx, eax
  0029e	68 00 00 00 00	 push	 OFFSET FLAT:??_C@_01CLKCMJKC@?5?$AA@
  002a3	89 4c 24 1c	 mov	 DWORD PTR $T108883[esp+32], ecx
  002a7	e8 00 00 00 00	 call	 ?_M_put_nowiden@?$basic_ostream@DV?$char_traits@D@_STL@@@_STL@@QAEXPBD@Z ; _STL::basic_ostream<char,_STL::char_traits<char> >::_M_put_nowiden
  002ac	ff b4 be 80 00
	00 00		 push	 DWORD PTR [esi+edi*4+128]
  002b3	ff 74 24 1c	 push	 DWORD PTR $T108883[esp+32]
  002b7	e8 00 00 00 00	 call	 ??$_M_put_num@DV?$char_traits@D@_STL@@J@_STL@@YAAAV?$basic_ostream@DV?$char_traits@D@_STL@@@0@AAV10@J@Z ; _STL::_M_put_num<char,_STL::char_traits<char>,long>
  002bc	59		 pop	 ecx
  002bd	59		 pop	 ecx
  002be	53		 push	 ebx
  002bf	8b c8		 mov	 ecx, eax
  002c1	e8 00 00 00 00	 call	 ?_M_put_nowiden@?$basic_ostream@DV?$char_traits@D@_STL@@@_STL@@QAEXPBD@Z ; _STL::basic_ostream<char,_STL::char_traits<char> >::_M_put_nowiden

; 483  : 			file << "		[==Detail==]" << "\r\n" ;

  002c6	68 00 00 00 00	 push	 OFFSET FLAT:??_C@_0P@KBJDKHGG@?7?7?$FL?$DN?$DNDetail?$DN?$DN?$FN?$AA@
  002cb	8b cd		 mov	 ecx, ebp
  002cd	e8 00 00 00 00	 call	 ?_M_put_nowiden@?$basic_ostream@DV?$char_traits@D@_STL@@@_STL@@QAEXPBD@Z ; _STL::basic_ostream<char,_STL::char_traits<char> >::_M_put_nowiden
  002d2	53		 push	 ebx
  002d3	8b cd		 mov	 ecx, ebp
  002d5	e8 00 00 00 00	 call	 ?_M_put_nowiden@?$basic_ostream@DV?$char_traits@D@_STL@@@_STL@@QAEXPBD@Z ; _STL::basic_ostream<char,_STL::char_traits<char> >::_M_put_nowiden

; 484  : 			strlen =  message.m_strDetail[j].GetLength();
; 485  : 			if( strlen > 0 )

  002da	8d 44 7f 27	 lea	 eax, DWORD PTR [edi+edi*2+39]
  002de	83 3c 86 00	 cmp	 DWORD PTR [esi+eax*4], 0
  002e2	76 19		 jbe	 SHORT $L108912

; 486  : 				file <<  message.m_strDetail[j] << "\r\n" ;

  002e4	8d 04 7f	 lea	 eax, DWORD PTR [edi+edi*2]
  002e7	ff b4 86 a0 00
	00 00		 push	 DWORD PTR [esi+eax*4+160]
  002ee	8b cd		 mov	 ecx, ebp
  002f0	e8 00 00 00 00	 call	 ?_M_put_nowiden@?$basic_ostream@DV?$char_traits@D@_STL@@@_STL@@QAEXPBD@Z ; _STL::basic_ostream<char,_STL::char_traits<char> >::_M_put_nowiden
  002f5	53		 push	 ebx
  002f6	8b cd		 mov	 ecx, ebp
  002f8	e8 00 00 00 00	 call	 ?_M_put_nowiden@?$basic_ostream@DV?$char_traits@D@_STL@@@_STL@@QAEXPBD@Z ; _STL::basic_ostream<char,_STL::char_traits<char> >::_M_put_nowiden
$L108912:

; 487  : 			file << "{End}" << "\r\n" ;

  002fd	68 00 00 00 00	 push	 OFFSET FLAT:??_C@_05LBHNJABA@?$HLEnd?$HN?$AA@
  00302	8b cd		 mov	 ecx, ebp
  00304	e8 00 00 00 00	 call	 ?_M_put_nowiden@?$basic_ostream@DV?$char_traits@D@_STL@@@_STL@@QAEXPBD@Z ; _STL::basic_ostream<char,_STL::char_traits<char> >::_M_put_nowiden
  00309	53		 push	 ebx
  0030a	8b cd		 mov	 ecx, ebp
  0030c	e8 00 00 00 00	 call	 ?_M_put_nowiden@?$basic_ostream@DV?$char_traits@D@_STL@@@_STL@@QAEXPBD@Z ; _STL::basic_ostream<char,_STL::char_traits<char> >::_M_put_nowiden
  00311	47		 inc	 edi
  00312	83 ff 03	 cmp	 edi, 3
  00315	0f 8c 28 fe ff
	ff		 jl	 $L102117
  0031b	ff 44 24 10	 inc	 DWORD PTR _i$[esp+28]
  0031f	8b 44 24 14	 mov	 eax, DWORD PTR _this$[esp+28]
  00323	8b 4c 24 10	 mov	 ecx, DWORD PTR _i$[esp+28]
  00327	81 44 24 20 bc
	00 00 00	 add	 DWORD PTR tv581[esp+24], 188 ; 000000bcH
  0032f	3b 48 1c	 cmp	 ecx, DWORD PTR [eax+28]
  00332	0f 8c 6c fd ff
	ff		 jl	 $L108926
$L102109:

; 488  : 		}
; 489  : 	}
; 490  : 	file.close();

  00338	8b cd		 mov	 ecx, ebp
  0033a	e8 00 00 00 00	 call	 ?close@?$basic_ofstream@DV?$char_traits@D@_STL@@@_STL@@QAEXXZ ; _STL::basic_ofstream<char,_STL::char_traits<char> >::close
  0033f	5f		 pop	 edi
  00340	5e		 pop	 esi
  00341	5d		 pop	 ebp
  00342	5b		 pop	 ebx

; 491  : }

  00343	83 c4 0c	 add	 esp, 12			; 0000000cH
  00346	c2 04 00	 ret	 4
?SaveToFile@MHelpMessageManager@@QAEXAAV?$basic_ofstream@DV?$char_traits@D@_STL@@@_STL@@@Z ENDP ; MHelpMessageManager::SaveToFile
_TEXT	ENDS
PUBLIC	?append@?$basic_string@DV?$char_traits@D@_STL@@V?$allocator@D@2@@_STL@@QAEAAV12@PBD@Z ; _STL::basic_string<char,_STL::char_traits<char>,_STL::allocator<char> >::append
; Function compile flags: /Ogsy
; File c:\stlport-4.6.1\stlport\stl\_string.h
;	COMDAT ?append@?$basic_string@DV?$char_traits@D@_STL@@V?$allocator@D@2@@_STL@@QAEAAV12@PBD@Z
_TEXT	SEGMENT
___s$ = 8						; size = 4
$T108946 = 11						; size = 1
?append@?$basic_string@DV?$char_traits@D@_STL@@V?$allocator@D@2@@_STL@@QAEAAV12@PBD@Z PROC NEAR ; _STL::basic_string<char,_STL::char_traits<char>,_STL::allocator<char> >::append, COMDAT
; _this$ = ecx

; 499  :     { _STLP_FIX_LITERAL_BUG(__s) return append(__s, __s + traits_type::length(__s)); }

  00000	55		 push	 ebp
  00001	8b ec		 mov	 ebp, esp
  00003	56		 push	 esi
  00004	ff 75 08	 push	 DWORD PTR ___s$[ebp]
  00007	8b f1		 mov	 esi, ecx
  00009	e8 00 00 00 00	 call	 _strlen
  0000e	03 45 08	 add	 eax, DWORD PTR ___s$[ebp]
  00011	59		 pop	 ecx
  00012	8d 4d 0b	 lea	 ecx, DWORD PTR $T108946[ebp]
  00015	51		 push	 ecx
  00016	50		 push	 eax
  00017	ff 75 08	 push	 DWORD PTR ___s$[ebp]
  0001a	8b ce		 mov	 ecx, esi
  0001c	e8 00 00 00 00	 call	 ??$append@PBD@?$basic_string@DV?$char_traits@D@_STL@@V?$allocator@D@2@@_STL@@AAEAAV01@PBD0ABUforward_iterator_tag@1@@Z ; _STL::basic_string<char,_STL::char_traits<char>,_STL::allocator<char> >::append<char const *>
  00021	5e		 pop	 esi
  00022	5d		 pop	 ebp
  00023	c2 04 00	 ret	 4
?append@?$basic_string@DV?$char_traits@D@_STL@@V?$allocator@D@2@@_STL@@QAEAAV12@PBD@Z ENDP ; _STL::basic_string<char,_STL::char_traits<char>,_STL::allocator<char> >::append
_TEXT	ENDS
PUBLIC	?assign@?$basic_string@DV?$char_traits@D@_STL@@V?$allocator@D@2@@_STL@@QAEAAV12@PBD0@Z ; _STL::basic_string<char,_STL::char_traits<char>,_STL::allocator<char> >::assign
; Function compile flags: /Ogsy
;	COMDAT ?assign@?$basic_string@DV?$char_traits@D@_STL@@V?$allocator@D@2@@_STL@@QAEAAV12@PBD0@Z
_TEXT	SEGMENT
___f$ = 8						; size = 4
___l$ = 12						; size = 4
$T108996 = 15						; size = 1
?assign@?$basic_string@DV?$char_traits@D@_STL@@V?$allocator@D@2@@_STL@@QAEAAV12@PBD0@Z PROC NEAR ; _STL::basic_string<char,_STL::char_traits<char>,_STL::allocator<char> >::assign, COMDAT
; _this$ = ecx

; 650  :   {

  00000	55		 push	 ebp
  00001	8b ec		 mov	 ebp, esp
  00003	53		 push	 ebx

; 651  :     ptrdiff_t __n = __l - __f;

  00004	8b 5d 08	 mov	 ebx, DWORD PTR ___f$[ebp]
  00007	56		 push	 esi
  00008	8b f1		 mov	 esi, ecx

; 652  :     if (__STATIC_CAST(size_type,__n) <= size()) {

  0000a	8b 0e		 mov	 ecx, DWORD PTR [esi]
  0000c	8b 46 04	 mov	 eax, DWORD PTR [esi+4]
  0000f	57		 push	 edi
  00010	8b 7d 0c	 mov	 edi, DWORD PTR ___l$[ebp]
  00013	2b fb		 sub	 edi, ebx
  00015	2b c1		 sub	 eax, ecx
  00017	3b f8		 cmp	 edi, eax
  00019	77 20		 ja	 SHORT $L102370

; 653  :       _Traits::copy(this->_M_start, __f, __n);

  0001b	85 ff		 test	 edi, edi
  0001d	74 0b		 je	 SHORT $L108960
  0001f	57		 push	 edi
  00020	53		 push	 ebx
  00021	51		 push	 ecx
  00022	e8 00 00 00 00	 call	 _memcpy
  00027	83 c4 0c	 add	 esp, 12			; 0000000cH
$L108960:

; 654  :       erase(begin() + __n, end());

  0002a	8b 06		 mov	 eax, DWORD PTR [esi]
  0002c	ff 76 04	 push	 DWORD PTR [esi+4]
  0002f	03 c7		 add	 eax, edi
  00031	50		 push	 eax
  00032	8b ce		 mov	 ecx, esi
  00034	e8 00 00 00 00	 call	 ?erase@?$basic_string@DV?$char_traits@D@_STL@@V?$allocator@D@2@@_STL@@QAEPADPAD0@Z ; _STL::basic_string<char,_STL::char_traits<char>,_STL::allocator<char> >::erase

; 655  :     }
; 656  :     else {

  00039	eb 25		 jmp	 SHORT $L108997
$L102370:

; 657  :       _Traits::copy(this->_M_start, __f, size());

  0003b	85 c0		 test	 eax, eax
  0003d	74 0b		 je	 SHORT $L108979
  0003f	50		 push	 eax
  00040	53		 push	 ebx
  00041	51		 push	 ecx
  00042	e8 00 00 00 00	 call	 _memcpy
  00047	83 c4 0c	 add	 esp, 12			; 0000000cH
$L108979:

; 658  :       append(__f + size(), __l);

  0004a	8d 45 0f	 lea	 eax, DWORD PTR $T108996[ebp]
  0004d	50		 push	 eax
  0004e	8b 46 04	 mov	 eax, DWORD PTR [esi+4]
  00051	2b 06		 sub	 eax, DWORD PTR [esi]
  00053	ff 75 0c	 push	 DWORD PTR ___l$[ebp]
  00056	03 c3		 add	 eax, ebx
  00058	50		 push	 eax
  00059	8b ce		 mov	 ecx, esi
  0005b	e8 00 00 00 00	 call	 ??$append@PBD@?$basic_string@DV?$char_traits@D@_STL@@V?$allocator@D@2@@_STL@@AAEAAV01@PBD0ABUforward_iterator_tag@1@@Z ; _STL::basic_string<char,_STL::char_traits<char>,_STL::allocator<char> >::append<char const *>
$L108997:
  00060	5f		 pop	 edi

; 659  :     }
; 660  :     return *this;

  00061	8b c6		 mov	 eax, esi
  00063	5e		 pop	 esi
  00064	5b		 pop	 ebx

; 661  :   }

  00065	5d		 pop	 ebp
  00066	c2 08 00	 ret	 8
?assign@?$basic_string@DV?$char_traits@D@_STL@@V?$allocator@D@2@@_STL@@QAEAAV12@PBD0@Z ENDP ; _STL::basic_string<char,_STL::char_traits<char>,_STL::allocator<char> >::assign
_TEXT	ENDS
PUBLIC	??$_M_assign_dispatch@PAD@?$basic_string@DV?$char_traits@D@_STL@@V?$allocator@D@2@@_STL@@AAEAAV01@PAD0ABU__false_type@1@@Z ; _STL::basic_string<char,_STL::char_traits<char>,_STL::allocator<char> >::_M_assign_dispatch<char *>
; Function compile flags: /Ogsy
;	COMDAT ??$_M_assign_dispatch@PAD@?$basic_string@DV?$char_traits@D@_STL@@V?$allocator@D@2@@_STL@@AAEAAV01@PAD0ABU__false_type@1@@Z
_TEXT	SEGMENT
___f$ = 8						; size = 4
$T109019 = 11						; size = 1
___l$ = 12						; size = 4
___formal$ = 16						; size = 4
??$_M_assign_dispatch@PAD@?$basic_string@DV?$char_traits@D@_STL@@V?$allocator@D@2@@_STL@@AAEAAV01@PAD0ABU__false_type@1@@Z PROC NEAR ; _STL::basic_string<char,_STL::char_traits<char>,_STL::allocator<char> >::_M_assign_dispatch<char *>, COMDAT
; _this$ = ecx

; 624  :   _Self& _M_assign_dispatch(_InputIter __f, _InputIter __l,

  00000	55		 push	 ebp
  00001	8b ec		 mov	 ebp, esp
  00003	56		 push	 esi
  00004	8b f1		 mov	 esi, ecx

; 625  : 			    const __false_type&)  {
; 626  :     pointer __cur = this->_M_start;
; 627  :     while (__f != __l && __cur != this->_M_finish) {

  00006	8b 4d 08	 mov	 ecx, DWORD PTR ___f$[ebp]
  00009	8b 06		 mov	 eax, DWORD PTR [esi]
  0000b	57		 push	 edi
  0000c	8b 7d 0c	 mov	 edi, DWORD PTR ___l$[ebp]
  0000f	3b cf		 cmp	 ecx, edi
  00011	74 13		 je	 SHORT $L109023
$L102727:
  00013	3b 46 04	 cmp	 eax, DWORD PTR [esi+4]
  00016	74 0a		 je	 SHORT $L102728

; 628  :       _Traits::assign(*__cur, *__f);

  00018	8a 11		 mov	 dl, BYTE PTR [ecx]

; 629  :       ++__f;

  0001a	41		 inc	 ecx
  0001b	88 10		 mov	 BYTE PTR [eax], dl

; 630  :       ++__cur;

  0001d	40		 inc	 eax
  0001e	3b cf		 cmp	 ecx, edi
  00020	75 f1		 jne	 SHORT $L102727
$L102728:

; 631  :     }
; 632  :     if (__f == __l)

  00022	3b cf		 cmp	 ecx, edi
  00024	75 0d		 jne	 SHORT $L102729
$L109023:

; 633  :       erase(__cur, end());

  00026	ff 76 04	 push	 DWORD PTR [esi+4]
  00029	8b ce		 mov	 ecx, esi
  0002b	50		 push	 eax
  0002c	e8 00 00 00 00	 call	 ?erase@?$basic_string@DV?$char_traits@D@_STL@@V?$allocator@D@2@@_STL@@QAEPADPAD0@Z ; _STL::basic_string<char,_STL::char_traits<char>,_STL::allocator<char> >::erase

; 634  :     else

  00031	eb 0d		 jmp	 SHORT $L109020
$L102729:

; 635  :       append(__f, __l);

  00033	8d 45 0b	 lea	 eax, DWORD PTR $T109019[ebp]
  00036	50		 push	 eax
  00037	57		 push	 edi
  00038	51		 push	 ecx
  00039	8b ce		 mov	 ecx, esi
  0003b	e8 00 00 00 00	 call	 ??$append@PAD@?$basic_string@DV?$char_traits@D@_STL@@V?$allocator@D@2@@_STL@@AAEAAV01@PAD0ABUforward_iterator_tag@1@@Z ; _STL::basic_string<char,_STL::char_traits<char>,_STL::allocator<char> >::append<char *>
$L109020:
  00040	5f		 pop	 edi

; 636  :     return *this;

  00041	8b c6		 mov	 eax, esi
  00043	5e		 pop	 esi

; 637  :   }

  00044	5d		 pop	 ebp
  00045	c2 0c 00	 ret	 12			; 0000000cH
??$_M_assign_dispatch@PAD@?$basic_string@DV?$char_traits@D@_STL@@V?$allocator@D@2@@_STL@@AAEAAV01@PAD0ABU__false_type@1@@Z ENDP ; _STL::basic_string<char,_STL::char_traits<char>,_STL::allocator<char> >::_M_assign_dispatch<char *>
_TEXT	ENDS
PUBLIC	??$replace@PBD@?$basic_string@DV?$char_traits@D@_STL@@V?$allocator@D@2@@_STL@@AAEAAV01@PAD0PBD1ABUrandom_access_iterator_tag@1@@Z ; _STL::basic_string<char,_STL::char_traits<char>,_STL::allocator<char> >::replace<char const *>
; Function compile flags: /Ogsy
;	COMDAT ??$replace@PBD@?$basic_string@DV?$char_traits@D@_STL@@V?$allocator@D@2@@_STL@@AAEAAV01@PAD0PBD1ABUrandom_access_iterator_tag@1@@Z
_TEXT	SEGMENT
$T109030 = 8						; size = 4
___m$103652 = 8						; size = 4
___first$ = 8						; size = 4
___last$ = 12						; size = 4
___f$ = 16						; size = 4
$T109026 = 19						; size = 1
$T109034 = 20						; size = 4
___l$ = 20						; size = 4
___formal$ = 24						; size = 4
??$replace@PBD@?$basic_string@DV?$char_traits@D@_STL@@V?$allocator@D@2@@_STL@@AAEAAV01@PAD0PBD1ABUrandom_access_iterator_tag@1@@Z PROC NEAR ; _STL::basic_string<char,_STL::char_traits<char>,_STL::allocator<char> >::replace<char const *>, COMDAT
; _this$ = ecx

; 993  :   _Self& replace(iterator __first, iterator __last,

  00000	55		 push	 ebp
  00001	8b ec		 mov	 ebp, esp
  00003	57		 push	 edi

; 994  :                  _InputIter __f, _InputIter __l, const random_access_iterator_tag &) {
; 995  :     //might be overlapping
; 996  :     if (_M_inside(__f)) {

  00004	ff 75 10	 push	 DWORD PTR ___f$[ebp]
  00007	8b f9		 mov	 edi, ecx
  00009	e8 00 00 00 00	 call	 ??$_M_inside@PBD@?$basic_string@DV?$char_traits@D@_STL@@V?$allocator@D@2@@_STL@@ABE_NPBD@Z ; _STL::basic_string<char,_STL::char_traits<char>,_STL::allocator<char> >::_M_inside<char const *>
  0000e	84 c0		 test	 al, al
  00010	0f 84 9b 00 00
	00		 je	 $L103642

; 997  :       difference_type __n = __l - __f;

  00016	8b 55 14	 mov	 edx, DWORD PTR ___l$[ebp]

; 998  :       const difference_type __len = __last - __first;

  00019	8b 45 0c	 mov	 eax, DWORD PTR ___last$[ebp]
  0001c	53		 push	 ebx
  0001d	8b 5d 08	 mov	 ebx, DWORD PTR ___first$[ebp]
  00020	56		 push	 esi
  00021	8b f2		 mov	 esi, edx
  00023	2b 75 10	 sub	 esi, DWORD PTR ___f$[ebp]
  00026	2b c3		 sub	 eax, ebx

; 999  :       if (__len >= __n) {

  00028	3b c6		 cmp	 eax, esi
  0002a	7c 1b		 jl	 SHORT $L103645

; 1000 :         _M_move(__f, __l, __first);

  0002c	53		 push	 ebx
  0002d	52		 push	 edx
  0002e	ff 75 10	 push	 DWORD PTR ___f$[ebp]
  00031	8b cf		 mov	 ecx, edi
  00033	e8 00 00 00 00	 call	 ?_M_move@?$basic_string@DV?$char_traits@D@_STL@@V?$allocator@D@2@@_STL@@AAEXPBD0PAD@Z ; _STL::basic_string<char,_STL::char_traits<char>,_STL::allocator<char> >::_M_move

; 1001 :         erase(__first + __n, __last);

  00038	ff 75 0c	 push	 DWORD PTR ___last$[ebp]
  0003b	03 f3		 add	 esi, ebx
  0003d	56		 push	 esi
  0003e	8b cf		 mov	 ecx, edi
  00040	e8 00 00 00 00	 call	 ?erase@?$basic_string@DV?$char_traits@D@_STL@@V?$allocator@D@2@@_STL@@QAEPADPAD0@Z ; _STL::basic_string<char,_STL::char_traits<char>,_STL::allocator<char> >::erase

; 1002 :       }
; 1003 :       else {

  00045	eb 64		 jmp	 SHORT $L109046
$L103645:

; 1004 :         _InputIter __m = __f + __len;

  00047	8b 4d 10	 mov	 ecx, DWORD PTR ___f$[ebp]
  0004a	03 c8		 add	 ecx, eax

; 1005 :         if ((__l <= __first) || (__f >= __last)) {

  0004c	3b d3		 cmp	 edx, ebx
  0004e	89 4d 08	 mov	 DWORD PTR ___m$103652[ebp], ecx
  00051	76 3c		 jbe	 SHORT $L109051
  00053	8b 45 0c	 mov	 eax, DWORD PTR ___last$[ebp]
  00056	39 45 10	 cmp	 DWORD PTR ___f$[ebp], eax
  00059	73 34		 jae	 SHORT $L109051

; 1009 :         }
; 1010 :         else {
; 1011 : 				  //we have to take care of reallocation:
; 1012 : 				  const difference_type __off_dest = __first - this->begin();

  0005b	8b 07		 mov	 eax, DWORD PTR [edi]

; 1013 : 				  const difference_type __off_src = __f - this->begin();
; 1014 : 				  insert(__last, __m, __l);

  0005d	52		 push	 edx
  0005e	51		 push	 ecx
  0005f	ff 75 0c	 push	 DWORD PTR ___last$[ebp]
  00062	8b cf		 mov	 ecx, edi
  00064	89 45 08	 mov	 DWORD PTR $T109030[ebp], eax
  00067	89 45 14	 mov	 DWORD PTR $T109034[ebp], eax
  0006a	e8 00 00 00 00	 call	 ??$insert@PBD@?$basic_string@DV?$char_traits@D@_STL@@V?$allocator@D@2@@_STL@@QAEXPADPBD1@Z ; _STL::basic_string<char,_STL::char_traits<char>,_STL::allocator<char> >::insert<char const *>

; 1015 : 				  _Traits::move(begin() + __off_dest, begin() + __off_src, __n);

  0006f	85 f6		 test	 esi, esi
  00071	74 38		 je	 SHORT $L109046
  00073	8b 07		 mov	 eax, DWORD PTR [edi]
  00075	8b c8		 mov	 ecx, eax
  00077	2b 4d 14	 sub	 ecx, DWORD PTR $T109034[ebp]
  0007a	2b 45 08	 sub	 eax, DWORD PTR $T109030[ebp]
  0007d	03 4d 10	 add	 ecx, DWORD PTR ___f$[ebp]
  00080	56		 push	 esi
  00081	51		 push	 ecx
  00082	03 c3		 add	 eax, ebx
  00084	50		 push	 eax
  00085	e8 00 00 00 00	 call	 _memmove
  0008a	83 c4 0c	 add	 esp, 12			; 0000000cH
  0008d	eb 1c		 jmp	 SHORT $L109046
$L109051:

; 1006 : 				  //no overlap:
; 1007 :           _M_copy(__f, __m, __first);

  0008f	53		 push	 ebx
  00090	51		 push	 ecx
  00091	ff 75 10	 push	 DWORD PTR ___f$[ebp]
  00094	8b cf		 mov	 ecx, edi
  00096	e8 00 00 00 00	 call	 ?_M_copy@?$basic_string@DV?$char_traits@D@_STL@@V?$allocator@D@2@@_STL@@AAEXPBD0PAD@Z ; _STL::basic_string<char,_STL::char_traits<char>,_STL::allocator<char> >::_M_copy

; 1008 :           insert(__last, __m, __l);

  0009b	ff 75 14	 push	 DWORD PTR ___l$[ebp]
  0009e	8b cf		 mov	 ecx, edi
  000a0	ff 75 08	 push	 DWORD PTR ___m$103652[ebp]
  000a3	ff 75 0c	 push	 DWORD PTR ___last$[ebp]
  000a6	e8 00 00 00 00	 call	 ??$insert@PBD@?$basic_string@DV?$char_traits@D@_STL@@V?$allocator@D@2@@_STL@@QAEXPADPBD1@Z ; _STL::basic_string<char,_STL::char_traits<char>,_STL::allocator<char> >::insert<char const *>

; 1015 : 				  _Traits::move(begin() + __off_dest, begin() + __off_src, __n);

$L109046:
  000ab	5e		 pop	 esi

; 1016 :         }
; 1017 :       }
; 1018 :       return *this;

  000ac	8b c7		 mov	 eax, edi
  000ae	5b		 pop	 ebx
  000af	eb 17		 jmp	 SHORT $L103668
$L103642:

; 1019 :     }
; 1020 : 	  else {
; 1021 : 		  return replace(__first, __last, __f, __l, forward_iterator_tag());

  000b1	8d 45 13	 lea	 eax, DWORD PTR $T109026[ebp]
  000b4	50		 push	 eax
  000b5	ff 75 14	 push	 DWORD PTR ___l$[ebp]
  000b8	8b cf		 mov	 ecx, edi
  000ba	ff 75 10	 push	 DWORD PTR ___f$[ebp]
  000bd	ff 75 0c	 push	 DWORD PTR ___last$[ebp]
  000c0	ff 75 08	 push	 DWORD PTR ___first$[ebp]
  000c3	e8 00 00 00 00	 call	 ??$replace@PBD@?$basic_string@DV?$char_traits@D@_STL@@V?$allocator@D@2@@_STL@@AAEAAV01@PAD0PBD1ABUforward_iterator_tag@1@@Z ; _STL::basic_string<char,_STL::char_traits<char>,_STL::allocator<char> >::replace<char const *>
$L103668:
  000c8	5f		 pop	 edi

; 1022 : 	  }
; 1023 :   }

  000c9	5d		 pop	 ebp
  000ca	c2 14 00	 ret	 20			; 00000014H
??$replace@PBD@?$basic_string@DV?$char_traits@D@_STL@@V?$allocator@D@2@@_STL@@AAEAAV01@PAD0PBD1ABUrandom_access_iterator_tag@1@@Z ENDP ; _STL::basic_string<char,_STL::char_traits<char>,_STL::allocator<char> >::replace<char const *>
_TEXT	ENDS
PUBLIC	??$assign@PAD@?$basic_string@DV?$char_traits@D@_STL@@V?$allocator@D@2@@_STL@@QAEAAV01@PAD0@Z ; _STL::basic_string<char,_STL::char_traits<char>,_STL::allocator<char> >::assign<char *>
; Function compile flags: /Ogsy
;	COMDAT ??$assign@PAD@?$basic_string@DV?$char_traits@D@_STL@@V?$allocator@D@2@@_STL@@QAEAAV01@PAD0@Z
_TEXT	SEGMENT
___first$ = 8						; size = 4
___last$ = 12						; size = 4
$T109054 = 15						; size = 1
??$assign@PAD@?$basic_string@DV?$char_traits@D@_STL@@V?$allocator@D@2@@_STL@@QAEAAV01@PAD0@Z PROC NEAR ; _STL::basic_string<char,_STL::char_traits<char>,_STL::allocator<char> >::assign<char *>, COMDAT
; _this$ = ecx

; 642  :   template <class _InputIter> _Self& assign(_InputIter __first, _InputIter __last) {

  00000	55		 push	 ebp
  00001	8b ec		 mov	 ebp, esp

; 643  :     typedef typename _Is_integer<_InputIter>::_Integral _Integral;
; 644  :     return _M_assign_dispatch(__first, __last, _Integral());

  00003	8d 45 0f	 lea	 eax, DWORD PTR $T109054[ebp]
  00006	50		 push	 eax
  00007	ff 75 0c	 push	 DWORD PTR ___last$[ebp]
  0000a	ff 75 08	 push	 DWORD PTR ___first$[ebp]
  0000d	e8 00 00 00 00	 call	 ??$_M_assign_dispatch@PAD@?$basic_string@DV?$char_traits@D@_STL@@V?$allocator@D@2@@_STL@@AAEAAV01@PAD0ABU__false_type@1@@Z ; _STL::basic_string<char,_STL::char_traits<char>,_STL::allocator<char> >::_M_assign_dispatch<char *>

; 645  :   }

  00012	5d		 pop	 ebp
  00013	c2 08 00	 ret	 8
??$assign@PAD@?$basic_string@DV?$char_traits@D@_STL@@V?$allocator@D@2@@_STL@@QAEAAV01@PAD0@Z ENDP ; _STL::basic_string<char,_STL::char_traits<char>,_STL::allocator<char> >::assign<char *>
_TEXT	ENDS
PUBLIC	??4?$basic_string@DV?$char_traits@D@_STL@@V?$allocator@D@2@@_STL@@QAEAAV01@PBD@Z ; _STL::basic_string<char,_STL::char_traits<char>,_STL::allocator<char> >::operator=
; Function compile flags: /Ogsy
;	COMDAT ??4?$basic_string@DV?$char_traits@D@_STL@@V?$allocator@D@2@@_STL@@QAEAAV01@PBD@Z
_TEXT	SEGMENT
___s$ = 8						; size = 4
??4?$basic_string@DV?$char_traits@D@_STL@@V?$allocator@D@2@@_STL@@QAEAAV01@PBD@Z PROC NEAR ; _STL::basic_string<char,_STL::char_traits<char>,_STL::allocator<char> >::operator=, COMDAT
; _this$ = ecx

; 313  :   _Self& operator=(const _CharT* __s) { 

  00000	56		 push	 esi

; 314  :     _STLP_FIX_LITERAL_BUG(__s)
; 315  :     return assign(__s, __s + traits_type::length(__s)); 

  00001	8b 74 24 08	 mov	 esi, DWORD PTR ___s$[esp]
  00005	57		 push	 edi
  00006	56		 push	 esi
  00007	8b f9		 mov	 edi, ecx
  00009	e8 00 00 00 00	 call	 _strlen
  0000e	59		 pop	 ecx
  0000f	03 c6		 add	 eax, esi
  00011	50		 push	 eax
  00012	56		 push	 esi
  00013	8b cf		 mov	 ecx, edi
  00015	e8 00 00 00 00	 call	 ?assign@?$basic_string@DV?$char_traits@D@_STL@@V?$allocator@D@2@@_STL@@QAEAAV12@PBD0@Z ; _STL::basic_string<char,_STL::char_traits<char>,_STL::allocator<char> >::assign
  0001a	5f		 pop	 edi
  0001b	5e		 pop	 esi

; 316  :   }

  0001c	c2 04 00	 ret	 4
??4?$basic_string@DV?$char_traits@D@_STL@@V?$allocator@D@2@@_STL@@QAEAAV01@PBD@Z ENDP ; _STL::basic_string<char,_STL::char_traits<char>,_STL::allocator<char> >::operator=
_TEXT	ENDS
PUBLIC	??Y?$basic_string@DV?$char_traits@D@_STL@@V?$allocator@D@2@@_STL@@QAEAAV01@PBD@Z ; _STL::basic_string<char,_STL::char_traits<char>,_STL::allocator<char> >::operator+=
; Function compile flags: /Ogsy
;	COMDAT ??Y?$basic_string@DV?$char_traits@D@_STL@@V?$allocator@D@2@@_STL@@QAEAAV01@PBD@Z
_TEXT	SEGMENT
___s$ = 8						; size = 4
??Y?$basic_string@DV?$char_traits@D@_STL@@V?$allocator@D@2@@_STL@@QAEAAV01@PBD@Z PROC NEAR ; _STL::basic_string<char,_STL::char_traits<char>,_STL::allocator<char> >::operator+=, COMDAT
; _this$ = ecx

; 481  :   _Self& operator+=(const _CharT* __s) { _STLP_FIX_LITERAL_BUG(__s) return append(__s); }

  00000	e9 00 00 00 00	 jmp	 ?append@?$basic_string@DV?$char_traits@D@_STL@@V?$allocator@D@2@@_STL@@QAEAAV12@PBD@Z ; _STL::basic_string<char,_STL::char_traits<char>,_STL::allocator<char> >::append
??Y?$basic_string@DV?$char_traits@D@_STL@@V?$allocator@D@2@@_STL@@QAEAAV01@PBD@Z ENDP ; _STL::basic_string<char,_STL::char_traits<char>,_STL::allocator<char> >::operator+=
_TEXT	ENDS
PUBLIC	??$_M_replace_dispatch@PBD@?$basic_string@DV?$char_traits@D@_STL@@V?$allocator@D@2@@_STL@@AAEAAV01@PAD0PBD1ABU__false_type@1@@Z ; _STL::basic_string<char,_STL::char_traits<char>,_STL::allocator<char> >::_M_replace_dispatch<char const *>
; Function compile flags: /Ogsy
;	COMDAT ??$_M_replace_dispatch@PBD@?$basic_string@DV?$char_traits@D@_STL@@V?$allocator@D@2@@_STL@@AAEAAV01@PAD0PBD1ABU__false_type@1@@Z
_TEXT	SEGMENT
___first$ = 8						; size = 4
___last$ = 12						; size = 4
___f$ = 16						; size = 4
___l$ = 20						; size = 4
$T109067 = 23						; size = 1
___formal$ = 24						; size = 4
??$_M_replace_dispatch@PBD@?$basic_string@DV?$char_traits@D@_STL@@V?$allocator@D@2@@_STL@@AAEAAV01@PAD0PBD1ABU__false_type@1@@Z PROC NEAR ; _STL::basic_string<char,_STL::char_traits<char>,_STL::allocator<char> >::_M_replace_dispatch<char const *>, COMDAT
; _this$ = ecx

; 974  :   template <class _InputIter> _Self& _M_replace_dispatch(iterator __first, iterator __last,

  00000	55		 push	 ebp
  00001	8b ec		 mov	 ebp, esp

; 975  :                                     _InputIter __f, _InputIter __l,
; 976  :                                     const __false_type&) {
; 977  :     return replace(__first, __last, __f, __l, _STLP_ITERATOR_CATEGORY(__f, _InputIter));

  00003	8d 45 17	 lea	 eax, DWORD PTR $T109067[ebp]
  00006	50		 push	 eax
  00007	ff 75 14	 push	 DWORD PTR ___l$[ebp]
  0000a	ff 75 10	 push	 DWORD PTR ___f$[ebp]
  0000d	ff 75 0c	 push	 DWORD PTR ___last$[ebp]
  00010	ff 75 08	 push	 DWORD PTR ___first$[ebp]
  00013	e8 00 00 00 00	 call	 ??$replace@PBD@?$basic_string@DV?$char_traits@D@_STL@@V?$allocator@D@2@@_STL@@AAEAAV01@PAD0PBD1ABUrandom_access_iterator_tag@1@@Z ; _STL::basic_string<char,_STL::char_traits<char>,_STL::allocator<char> >::replace<char const *>

; 978  :   }

  00018	5d		 pop	 ebp
  00019	c2 14 00	 ret	 20			; 00000014H
??$_M_replace_dispatch@PBD@?$basic_string@DV?$char_traits@D@_STL@@V?$allocator@D@2@@_STL@@AAEAAV01@PAD0PBD1ABU__false_type@1@@Z ENDP ; _STL::basic_string<char,_STL::char_traits<char>,_STL::allocator<char> >::_M_replace_dispatch<char const *>
_TEXT	ENDS
PUBLIC	??4?$basic_string@DV?$char_traits@D@_STL@@V?$allocator@D@2@@_STL@@QAEAAV01@ABV01@@Z ; _STL::basic_string<char,_STL::char_traits<char>,_STL::allocator<char> >::operator=
; Function compile flags: /Ogsy
;	COMDAT ??4?$basic_string@DV?$char_traits@D@_STL@@V?$allocator@D@2@@_STL@@QAEAAV01@ABV01@@Z
_TEXT	SEGMENT
___s$ = 8						; size = 4
$T109073 = 11						; size = 1
??4?$basic_string@DV?$char_traits@D@_STL@@V?$allocator@D@2@@_STL@@QAEAAV01@ABV01@@Z PROC NEAR ; _STL::basic_string<char,_STL::char_traits<char>,_STL::allocator<char> >::operator=, COMDAT
; _this$ = ecx

; 307  :   _Self& operator=(const _Self& __s) {

  00000	55		 push	 ebp
  00001	8b ec		 mov	 ebp, esp

; 308  :     if (&__s != this) 

  00003	8b 45 08	 mov	 eax, DWORD PTR ___s$[ebp]
  00006	56		 push	 esi
  00007	8b f1		 mov	 esi, ecx
  00009	3b c6		 cmp	 eax, esi
  0000b	74 10		 je	 SHORT $L109074

; 309  :       assign(__s._M_start, __s._M_finish);

  0000d	8d 4d 0b	 lea	 ecx, DWORD PTR $T109073[ebp]
  00010	51		 push	 ecx
  00011	ff 70 04	 push	 DWORD PTR [eax+4]
  00014	8b ce		 mov	 ecx, esi
  00016	ff 30		 push	 DWORD PTR [eax]
  00018	e8 00 00 00 00	 call	 ??$_M_assign_dispatch@PAD@?$basic_string@DV?$char_traits@D@_STL@@V?$allocator@D@2@@_STL@@AAEAAV01@PAD0ABU__false_type@1@@Z ; _STL::basic_string<char,_STL::char_traits<char>,_STL::allocator<char> >::_M_assign_dispatch<char *>
$L109074:

; 310  :     return *this;

  0001d	8b c6		 mov	 eax, esi
  0001f	5e		 pop	 esi

; 311  :   }

  00020	5d		 pop	 ebp
  00021	c2 04 00	 ret	 4
??4?$basic_string@DV?$char_traits@D@_STL@@V?$allocator@D@2@@_STL@@QAEAAV01@ABV01@@Z ENDP ; _STL::basic_string<char,_STL::char_traits<char>,_STL::allocator<char> >::operator=
_TEXT	ENDS
PUBLIC	?Init@iovfs_base@@QAEXXZ			; iovfs_base::Init
PUBLIC	??_C@_0BN@ODLNCKCA@Data?2?2Info?2?2ClientConfig?4inf?$AA@ ; `string'
PUBLIC	??_C@_0BM@DFPLPGPC@Data?2?2Info?2?2GuildMapper?4inf?$AA@ ; `string'
PUBLIC	??_C@_0BN@LHODHNBK@Data?2?2Info?2?2GuildVersion?4inf?$AA@ ; `string'
PUBLIC	??_C@_0BH@DDPLNCOL@Data?2?2Info?2?2Player?4inf?$AA@ ; `string'
PUBLIC	??_C@_0BL@ILLNAPHB@Data?2?2Info?2?2Resolution?4inf?$AA@ ; `string'
PUBLIC	??_C@_0CA@HEIGFDLG@Data?2?2Info?2?2SelectedChannel?4inf?$AA@ ; `string'
;	COMDAT ??_C@_0BN@ODLNCKCA@Data?2?2Info?2?2ClientConfig?4inf?$AA@
; File c:\darkeden\designed_common\project\client\virtualfilesystem\vfstream.inl
CONST	SEGMENT
??_C@_0BN@ODLNCKCA@Data?2?2Info?2?2ClientConfig?4inf?$AA@ DB 'Data\\Info\'
	DB	'\ClientConfig.inf', 00H			; `string'
CONST	ENDS
;	COMDAT ??_C@_0BM@DFPLPGPC@Data?2?2Info?2?2GuildMapper?4inf?$AA@
CONST	SEGMENT
??_C@_0BM@DFPLPGPC@Data?2?2Info?2?2GuildMapper?4inf?$AA@ DB 'Data\\Info\\'
	DB	'GuildMapper.inf', 00H			; `string'
CONST	ENDS
;	COMDAT ??_C@_0BN@LHODHNBK@Data?2?2Info?2?2GuildVersion?4inf?$AA@
CONST	SEGMENT
??_C@_0BN@LHODHNBK@Data?2?2Info?2?2GuildVersion?4inf?$AA@ DB 'Data\\Info\'
	DB	'\GuildVersion.inf', 00H			; `string'
CONST	ENDS
;	COMDAT ??_C@_0BH@DDPLNCOL@Data?2?2Info?2?2Player?4inf?$AA@
CONST	SEGMENT
??_C@_0BH@DDPLNCOL@Data?2?2Info?2?2Player?4inf?$AA@ DB 'Data\\Info\\Playe'
	DB	'r.inf', 00H					; `string'
CONST	ENDS
;	COMDAT ??_C@_0BL@ILLNAPHB@Data?2?2Info?2?2Resolution?4inf?$AA@
CONST	SEGMENT
??_C@_0BL@ILLNAPHB@Data?2?2Info?2?2Resolution?4inf?$AA@ DB 'Data\\Info\\R'
	DB	'esolution.inf', 00H				; `string'
CONST	ENDS
;	COMDAT ??_C@_0CA@HEIGFDLG@Data?2?2Info?2?2SelectedChannel?4inf?$AA@
CONST	SEGMENT
??_C@_0CA@HEIGFDLG@Data?2?2Info?2?2SelectedChannel?4inf?$AA@ DB 'Data\\In'
	DB	'fo\\SelectedChannel.inf', 00H		; `string'
; Function compile flags: /Ogsy
CONST	ENDS
;	COMDAT ?Init@iovfs_base@@QAEXXZ
_TEXT	SEGMENT
?Init@iovfs_base@@QAEXXZ PROC NEAR			; iovfs_base::Init, COMDAT
; _this$ = ecx

; 27   : {

  00000	56		 push	 esi
  00001	8b f1		 mov	 esi, ecx

; 28   : 	m_pFileIO = NULL;

  00003	83 66 04 00	 and	 DWORD PTR [esi+4], 0

; 29   : 
; 30   : 	m_strExceptList[0] = "Data\\\\Info\\\\ClientConfig.inf";

  00007	68 00 00 00 00	 push	 OFFSET FLAT:??_C@_0BN@ODLNCKCA@Data?2?2Info?2?2ClientConfig?4inf?$AA@
  0000c	8d 4e 08	 lea	 ecx, DWORD PTR [esi+8]
  0000f	e8 00 00 00 00	 call	 ??4?$basic_string@DV?$char_traits@D@_STL@@V?$allocator@D@2@@_STL@@QAEAAV01@PBD@Z ; _STL::basic_string<char,_STL::char_traits<char>,_STL::allocator<char> >::operator=

; 31   : 	m_strExceptList[1] = "Data\\\\Info\\\\GuildMapper.inf";

  00014	68 00 00 00 00	 push	 OFFSET FLAT:??_C@_0BM@DFPLPGPC@Data?2?2Info?2?2GuildMapper?4inf?$AA@
  00019	8d 4e 14	 lea	 ecx, DWORD PTR [esi+20]
  0001c	e8 00 00 00 00	 call	 ??4?$basic_string@DV?$char_traits@D@_STL@@V?$allocator@D@2@@_STL@@QAEAAV01@PBD@Z ; _STL::basic_string<char,_STL::char_traits<char>,_STL::allocator<char> >::operator=

; 32   : 	m_strExceptList[2] = "Data\\\\Info\\\\GuildVersion.inf";

  00021	68 00 00 00 00	 push	 OFFSET FLAT:??_C@_0BN@LHODHNBK@Data?2?2Info?2?2GuildVersion?4inf?$AA@
  00026	8d 4e 20	 lea	 ecx, DWORD PTR [esi+32]
  00029	e8 00 00 00 00	 call	 ??4?$basic_string@DV?$char_traits@D@_STL@@V?$allocator@D@2@@_STL@@QAEAAV01@PBD@Z ; _STL::basic_string<char,_STL::char_traits<char>,_STL::allocator<char> >::operator=

; 33   : 	m_strExceptList[3] = "Data\\\\Info\\\\Player.inf";

  0002e	68 00 00 00 00	 push	 OFFSET FLAT:??_C@_0BH@DDPLNCOL@Data?2?2Info?2?2Player?4inf?$AA@
  00033	8d 4e 2c	 lea	 ecx, DWORD PTR [esi+44]
  00036	e8 00 00 00 00	 call	 ??4?$basic_string@DV?$char_traits@D@_STL@@V?$allocator@D@2@@_STL@@QAEAAV01@PBD@Z ; _STL::basic_string<char,_STL::char_traits<char>,_STL::allocator<char> >::operator=

; 34   : 	m_strExceptList[4] = "Data\\\\Info\\\\Resolution.inf";

  0003b	68 00 00 00 00	 push	 OFFSET FLAT:??_C@_0BL@ILLNAPHB@Data?2?2Info?2?2Resolution?4inf?$AA@
  00040	8d 4e 38	 lea	 ecx, DWORD PTR [esi+56]
  00043	e8 00 00 00 00	 call	 ??4?$basic_string@DV?$char_traits@D@_STL@@V?$allocator@D@2@@_STL@@QAEAAV01@PBD@Z ; _STL::basic_string<char,_STL::char_traits<char>,_STL::allocator<char> >::operator=

; 35   : 	m_strExceptList[5] = "Data\\\\Info\\\\SelectedChannel.inf";

  00048	68 00 00 00 00	 push	 OFFSET FLAT:??_C@_0CA@HEIGFDLG@Data?2?2Info?2?2SelectedChannel?4inf?$AA@
  0004d	8d 4e 44	 lea	 ecx, DWORD PTR [esi+68]
  00050	e8 00 00 00 00	 call	 ??4?$basic_string@DV?$char_traits@D@_STL@@V?$allocator@D@2@@_STL@@QAEAAV01@PBD@Z ; _STL::basic_string<char,_STL::char_traits<char>,_STL::allocator<char> >::operator=
  00055	5e		 pop	 esi

; 36   : 	
; 37   : }

  00056	c3		 ret	 0
?Init@iovfs_base@@QAEXXZ ENDP				; iovfs_base::Init
_TEXT	ENDS
PUBLIC	??$replace@PBD@?$basic_string@DV?$char_traits@D@_STL@@V?$allocator@D@2@@_STL@@QAEAAV01@PAD0PBD1@Z ; _STL::basic_string<char,_STL::char_traits<char>,_STL::allocator<char> >::replace<char const *>
; Function compile flags: /Ogsy
; File c:\stlport-4.6.1\stlport\stl\_string.h
;	COMDAT ??$replace@PBD@?$basic_string@DV?$char_traits@D@_STL@@V?$allocator@D@2@@_STL@@QAEAAV01@PAD0PBD1@Z
_TEXT	SEGMENT
___first$ = 8						; size = 4
___last$ = 12						; size = 4
___f$ = 16						; size = 4
___l$ = 20						; size = 4
$T109087 = 23						; size = 1
??$replace@PBD@?$basic_string@DV?$char_traits@D@_STL@@V?$allocator@D@2@@_STL@@QAEAAV01@PAD0PBD1@Z PROC NEAR ; _STL::basic_string<char,_STL::char_traits<char>,_STL::allocator<char> >::replace<char const *>, COMDAT
; _this$ = ecx

; 954  :   template <class _InputIter> _Self& replace(iterator __first, iterator __last,

  00000	55		 push	 ebp
  00001	8b ec		 mov	 ebp, esp

; 955  :                         _InputIter __f, _InputIter __l) {
; 956  :     typedef typename _Is_integer<_InputIter>::_Integral _Integral;
; 957  :     return _M_replace_dispatch(__first, __last, __f, __l,  _Integral());

  00003	8d 45 17	 lea	 eax, DWORD PTR $T109087[ebp]
  00006	50		 push	 eax
  00007	ff 75 14	 push	 DWORD PTR ___l$[ebp]
  0000a	ff 75 10	 push	 DWORD PTR ___f$[ebp]
  0000d	ff 75 0c	 push	 DWORD PTR ___last$[ebp]
  00010	ff 75 08	 push	 DWORD PTR ___first$[ebp]
  00013	e8 00 00 00 00	 call	 ??$replace@PBD@?$basic_string@DV?$char_traits@D@_STL@@V?$allocator@D@2@@_STL@@AAEAAV01@PAD0PBD1ABUrandom_access_iterator_tag@1@@Z ; _STL::basic_string<char,_STL::char_traits<char>,_STL::allocator<char> >::replace<char const *>

; 958  :   }

  00018	5d		 pop	 ebp
  00019	c2 10 00	 ret	 16			; 00000010H
??$replace@PBD@?$basic_string@DV?$char_traits@D@_STL@@V?$allocator@D@2@@_STL@@QAEAAV01@PAD0PBD1@Z ENDP ; _STL::basic_string<char,_STL::char_traits<char>,_STL::allocator<char> >::replace<char const *>
_TEXT	ENDS
PUBLIC	?imbue@?$basic_ios@DV?$char_traits@D@_STL@@@_STL@@QAE?AVlocale@2@ABV32@@Z ; _STL::basic_ios<char,_STL::char_traits<char> >::imbue
EXTRN	?pubimbue@?$basic_streambuf@DV?$char_traits@D@_STL@@@_STL@@QAE?AVlocale@2@ABV32@@Z:NEAR ; _STL::basic_streambuf<char,_STL::char_traits<char> >::pubimbue
EXTRN	?_M_get_facet@locale@_STL@@QBEPAVfacet@12@ABVid@12@@Z:NEAR ; _STL::locale::_M_get_facet
EXTRN	?id@?$ctype@D@_STL@@2V0locale@2@A:DWORD		; _STL::ctype<char>::id
EXTRN	?imbue@ios_base@_STL@@QAE?AVlocale@2@ABV32@@Z:NEAR ; _STL::ios_base::imbue
EXTRN	?id@?$numpunct@D@_STL@@2V0locale@2@A:DWORD	; _STL::numpunct<char>::id
;	COMDAT xdata$x
; File c:\stlport-4.6.1\stlport\stl\_alloc.h
xdata$x	SEGMENT
$T109139 DD	0ffffffffH
	DD	FLAT:$L109096
	DD	00H
	DD	FLAT:$L109093
	DD	01H
	DD	FLAT:$L109095
$T109137 DD	019930520H
	DD	03H
	DD	FLAT:$T109139
	DD	2 DUP(00H)
	DD	2 DUP(00H)
; Function compile flags: /Ogsy
; File c:\stlport-4.6.1\stlport\stl\_ios.c
xdata$x	ENDS
;	COMDAT ?imbue@?$basic_ios@DV?$char_traits@D@_STL@@@_STL@@QAE?AVlocale@2@ABV32@@Z
_TEXT	SEGMENT
$T109092 = -32						; size = 12
$T109097 = -20						; size = 4
$T109091 = -16						; size = 4
__$EHRec$ = -12						; size = 12
___$ReturnUdt$ = 8					; size = 4
___tmp$ = 12						; size = 4
___loc$ = 12						; size = 4
?imbue@?$basic_ios@DV?$char_traits@D@_STL@@@_STL@@QAE?AVlocale@2@ABV32@@Z PROC NEAR ; _STL::basic_ios<char,_STL::char_traits<char> >::imbue, COMDAT
; _this$ = ecx

; 74   : {

  00000	b8 00 00 00 00	 mov	 eax, __ehhandler$?imbue@?$basic_ios@DV?$char_traits@D@_STL@@@_STL@@QAE?AVlocale@2@ABV32@@Z
  00005	e8 00 00 00 00	 call	 __EH_prolog
  0000a	83 ec 14	 sub	 esp, 20			; 00000014H
  0000d	83 65 ec 00	 and	 DWORD PTR $T109097[ebp], 0
  00011	53		 push	 ebx
  00012	56		 push	 esi
  00013	57		 push	 edi

; 75   :   locale __tmp = ios_base::imbue(__loc);

  00014	8b 7d 0c	 mov	 edi, DWORD PTR ___loc$[ebp]
  00017	57		 push	 edi
  00018	8d 45 0c	 lea	 eax, DWORD PTR ___tmp$[ebp]
  0001b	50		 push	 eax
  0001c	8b f1		 mov	 esi, ecx
  0001e	e8 00 00 00 00	 call	 ?imbue@ios_base@_STL@@QAE?AVlocale@2@ABV32@@Z ; _STL::ios_base::imbue

; 76   : 
; 77   :   if (_M_streambuf)

  00023	8b 4e 58	 mov	 ecx, DWORD PTR [esi+88]
  00026	33 db		 xor	 ebx, ebx
  00028	43		 inc	 ebx
  00029	85 c9		 test	 ecx, ecx
  0002b	89 5d fc	 mov	 DWORD PTR __$EHRec$[ebp+8], ebx
  0002e	74 12		 je	 SHORT $L103213

; 78   :     _M_streambuf->pubimbue(__loc);

  00030	57		 push	 edi
  00031	8d 45 f0	 lea	 eax, DWORD PTR $T109091[ebp]
  00034	50		 push	 eax
  00035	e8 00 00 00 00	 call	 ?pubimbue@?$basic_streambuf@DV?$char_traits@D@_STL@@@_STL@@QAE?AVlocale@2@ABV32@@Z ; _STL::basic_streambuf<char,_STL::char_traits<char> >::pubimbue
  0003a	8d 4d f0	 lea	 ecx, DWORD PTR $T109091[ebp]
  0003d	e8 00 00 00 00	 call	 ??1locale@_STL@@QAE@XZ	; _STL::locale::~locale
$L103213:

; 79   : 
; 80   :   // no throwing here
; 81   :   this->_M_cached_ctype = __loc._M_get_facet(ctype<char_type>::id) ;

  00042	68 00 00 00 00	 push	 OFFSET FLAT:?id@?$ctype@D@_STL@@2V0locale@2@A ; _STL::ctype<char>::id
  00047	8b cf		 mov	 ecx, edi
  00049	e8 00 00 00 00	 call	 ?_M_get_facet@locale@_STL@@QBEPAVfacet@12@ABVid@12@@Z ; _STL::locale::_M_get_facet

; 82   :   this->_M_cached_numpunct = __loc._M_get_facet(numpunct<char_type>::id) ;

  0004e	68 00 00 00 00	 push	 OFFSET FLAT:?id@?$numpunct@D@_STL@@2V0locale@2@A ; _STL::numpunct<char>::id
  00053	8b cf		 mov	 ecx, edi
  00055	89 46 40	 mov	 DWORD PTR [esi+64], eax
  00058	e8 00 00 00 00	 call	 ?_M_get_facet@locale@_STL@@QBEPAVfacet@12@ABVid@12@@Z ; _STL::locale::_M_get_facet

; 83   :   this->_M_cached_grouping = ((numpunct<char_type>*)_M_cached_numpunct)->grouping() ;

  0005d	8d 4d e0	 lea	 ecx, DWORD PTR $T109092[ebp]
  00060	51		 push	 ecx
  00061	8b c8		 mov	 ecx, eax
  00063	89 46 44	 mov	 DWORD PTR [esi+68], eax
  00066	e8 00 00 00 00	 call	 ?grouping@?$numpunct@D@_STL@@QBE?AV?$basic_string@DV?$char_traits@D@_STL@@V?$allocator@D@2@@2@XZ ; _STL::numpunct<char>::grouping
  0006b	50		 push	 eax
  0006c	8d 4e 48	 lea	 ecx, DWORD PTR [esi+72]
  0006f	c6 45 fc 02	 mov	 BYTE PTR __$EHRec$[ebp+8], 2
  00073	e8 00 00 00 00	 call	 ??4?$basic_string@DV?$char_traits@D@_STL@@V?$allocator@D@2@@_STL@@QAEAAV01@ABV01@@Z ; _STL::basic_string<char,_STL::char_traits<char>,_STL::allocator<char> >::operator=
  00078	8b 45 e8	 mov	 eax, DWORD PTR $T109092[ebp+8]
  0007b	2b 45 e0	 sub	 eax, DWORD PTR $T109092[ebp]
  0007e	8d 4d e8	 lea	 ecx, DWORD PTR $T109092[ebp+8]
  00081	50		 push	 eax
  00082	ff 75 e0	 push	 DWORD PTR $T109092[ebp]
  00085	88 5d fc	 mov	 BYTE PTR __$EHRec$[ebp+8], bl
  00088	e8 00 00 00 00	 call	 ?deallocate@?$allocator@D@_STL@@QAEXPADI@Z ; _STL::allocator<char>::deallocate

; 84   :   return __tmp;

  0008d	8b 4d 08	 mov	 ecx, DWORD PTR ___$ReturnUdt$[ebp]
  00090	8d 45 0c	 lea	 eax, DWORD PTR ___tmp$[ebp]
  00093	50		 push	 eax
  00094	e8 00 00 00 00	 call	 ??0locale@_STL@@QAE@ABV01@@Z ; _STL::locale::locale
  00099	8d 4d 0c	 lea	 ecx, DWORD PTR ___tmp$[ebp]
  0009c	89 5d ec	 mov	 DWORD PTR $T109097[ebp], ebx
  0009f	c6 45 fc 00	 mov	 BYTE PTR __$EHRec$[ebp+8], 0
  000a3	e8 00 00 00 00	 call	 ??1locale@_STL@@QAE@XZ	; _STL::locale::~locale

; 85   : }

  000a8	8b 4d f4	 mov	 ecx, DWORD PTR __$EHRec$[ebp]
  000ab	8b 45 08	 mov	 eax, DWORD PTR ___$ReturnUdt$[ebp]
  000ae	5f		 pop	 edi
  000af	5e		 pop	 esi
  000b0	5b		 pop	 ebx
  000b1	64 89 0d 00 00
	00 00		 mov	 DWORD PTR fs:__except_list, ecx
  000b8	c9		 leave
  000b9	c2 08 00	 ret	 8
_TEXT	ENDS
;	COMDAT text$x
text$x	SEGMENT
$L109093:
  00000	8d 4d 0c	 lea	 ecx, DWORD PTR ___tmp$[ebp]
  00003	e9 00 00 00 00	 jmp	 ??1locale@_STL@@QAE@XZ	; _STL::locale::~locale
$L109095:
  00008	8d 4d e0	 lea	 ecx, DWORD PTR $T109092[ebp]
  0000b	e9 00 00 00 00	 jmp	 ??1?$basic_string@DV?$char_traits@D@_STL@@V?$allocator@D@2@@_STL@@QAE@XZ ; _STL::basic_string<char,_STL::char_traits<char>,_STL::allocator<char> >::~basic_string<char,_STL::char_traits<char>,_STL::allocator<char> >
$L109096:
  00010	8b 45 ec	 mov	 eax, DWORD PTR $T109097[ebp]
  00013	83 e0 01	 and	 eax, 1
  00016	0f 84 0c 00 00
	00		 je	 $L109098
  0001c	83 65 ec fe	 and	 DWORD PTR $T109097[ebp], -2 ; fffffffeH
  00020	8b 4d 08	 mov	 ecx, DWORD PTR ___$ReturnUdt$[ebp]
  00023	e9 00 00 00 00	 jmp	 ??1locale@_STL@@QAE@XZ	; _STL::locale::~locale
$L109098:
  00028	c3		 ret	 0
__ehhandler$?imbue@?$basic_ios@DV?$char_traits@D@_STL@@@_STL@@QAE?AVlocale@2@ABV32@@Z:
  00029	b8 00 00 00 00	 mov	 eax, OFFSET FLAT:$T109137
  0002e	e9 00 00 00 00	 jmp	 ___CxxFrameHandler
text$x	ENDS
?imbue@?$basic_ios@DV?$char_traits@D@_STL@@@_STL@@QAE?AVlocale@2@ABV32@@Z ENDP ; _STL::basic_ios<char,_STL::char_traits<char> >::imbue
PUBLIC	??0iovfs_base@@QAE@XZ				; iovfs_base::iovfs_base
;	COMDAT xdata$x
; File c:\darkeden\designed_common\project\client\virtualfilesystem\vfstream.inl
xdata$x	SEGMENT
$T109148 DD	0ffffffffH
	DD	FLAT:$L109144
$T109146 DD	019930520H
	DD	01H
	DD	FLAT:$T109148
	DD	2 DUP(00H)
	DD	2 DUP(00H)
; Function compile flags: /Ogsy
xdata$x	ENDS
;	COMDAT ??0iovfs_base@@QAE@XZ
_TEXT	SEGMENT
_this$ = -16						; size = 4
__$EHRec$ = -12						; size = 12
??0iovfs_base@@QAE@XZ PROC NEAR				; iovfs_base::iovfs_base, COMDAT
; _this$ = ecx

; 11   : {

  00000	b8 00 00 00 00	 mov	 eax, __ehhandler$??0iovfs_base@@QAE@XZ
  00005	e8 00 00 00 00	 call	 __EH_prolog
  0000a	51		 push	 ecx
  0000b	56		 push	 esi
  0000c	68 00 00 00 00	 push	 OFFSET FLAT:??1?$basic_string@DV?$char_traits@D@_STL@@V?$allocator@D@2@@_STL@@QAE@XZ ; _STL::basic_string<char,_STL::char_traits<char>,_STL::allocator<char> >::~basic_string<char,_STL::char_traits<char>,_STL::allocator<char> >
  00011	68 00 00 00 00	 push	 OFFSET FLAT:??0?$basic_string@DV?$char_traits@D@_STL@@V?$allocator@D@2@@_STL@@QAE@XZ ; _STL::basic_string<char,_STL::char_traits<char>,_STL::allocator<char> >::basic_string<char,_STL::char_traits<char>,_STL::allocator<char> >
  00016	8b f1		 mov	 esi, ecx
  00018	6a 06		 push	 6
  0001a	6a 0c		 push	 12			; 0000000cH
  0001c	8d 46 08	 lea	 eax, DWORD PTR [esi+8]
  0001f	50		 push	 eax
  00020	89 75 f0	 mov	 DWORD PTR _this$[ebp], esi
  00023	c7 06 00 00 00
	00		 mov	 DWORD PTR [esi], OFFSET FLAT:??_7iovfs_base@@6B@
  00029	e8 00 00 00 00	 call	 ??_L@YGXPAXIHP6EX0@Z1@Z
  0002e	83 65 fc 00	 and	 DWORD PTR __$EHRec$[ebp+8], 0

; 12   : 	Init();

  00032	8b ce		 mov	 ecx, esi
  00034	e8 00 00 00 00	 call	 ?Init@iovfs_base@@QAEXXZ ; iovfs_base::Init

; 13   : }

  00039	8b 4d f4	 mov	 ecx, DWORD PTR __$EHRec$[ebp]
  0003c	8b c6		 mov	 eax, esi
  0003e	5e		 pop	 esi
  0003f	64 89 0d 00 00
	00 00		 mov	 DWORD PTR fs:__except_list, ecx
  00046	c9		 leave
  00047	c3		 ret	 0
_TEXT	ENDS
;	COMDAT text$x
text$x	SEGMENT
$L109144:
  00000	68 00 00 00 00	 push	 OFFSET FLAT:??1?$basic_string@DV?$char_traits@D@_STL@@V?$allocator@D@2@@_STL@@QAE@XZ ; _STL::basic_string<char,_STL::char_traits<char>,_STL::allocator<char> >::~basic_string<char,_STL::char_traits<char>,_STL::allocator<char> >
  00005	6a 06		 push	 6
  00007	6a 0c		 push	 12			; 0000000cH
  00009	8b 45 f0	 mov	 eax, DWORD PTR _this$[ebp]
  0000c	83 c0 08	 add	 eax, 8
  0000f	50		 push	 eax
  00010	e8 00 00 00 00	 call	 ??_M@YGXPAXIHP6EX0@Z@Z
  00015	c3		 ret	 0
__ehhandler$??0iovfs_base@@QAE@XZ:
  00016	b8 00 00 00 00	 mov	 eax, OFFSET FLAT:$T109146
  0001b	e9 00 00 00 00	 jmp	 ___CxxFrameHandler
text$x	ENDS
??0iovfs_base@@QAE@XZ ENDP				; iovfs_base::iovfs_base
PUBLIC	??0ivfstream@@QAE@PBDH@Z			; ivfstream::ivfstream
;	COMDAT xdata$x
xdata$x	SEGMENT
$T109160 DD	0ffffffffH
	DD	FLAT:$L109153
$T109158 DD	019930520H
	DD	01H
	DD	FLAT:$T109160
	DD	2 DUP(00H)
	DD	2 DUP(00H)
; Function compile flags: /Ogsy
xdata$x	ENDS
;	COMDAT ??0ivfstream@@QAE@PBDH@Z
_TEXT	SEGMENT
_this$ = -16						; size = 4
__$EHRec$ = -12						; size = 12
_szName$ = 8						; size = 4
_nMode$ = 12						; size = 4
??0ivfstream@@QAE@PBDH@Z PROC NEAR			; ivfstream::ivfstream, COMDAT
; _this$ = ecx

; 65   : {

  00000	b8 00 00 00 00	 mov	 eax, __ehhandler$??0ivfstream@@QAE@PBDH@Z
  00005	e8 00 00 00 00	 call	 __EH_prolog
  0000a	51		 push	 ecx
  0000b	56		 push	 esi
  0000c	8b f1		 mov	 esi, ecx
  0000e	89 75 f0	 mov	 DWORD PTR _this$[ebp], esi
  00011	e8 00 00 00 00	 call	 ??0iovfs_base@@QAE@XZ	; iovfs_base::iovfs_base

; 66   : 	open(szName, nMode);

  00016	8b 45 0c	 mov	 eax, DWORD PTR _nMode$[ebp]
  00019	83 65 fc 00	 and	 DWORD PTR __$EHRec$[ebp+8], 0
  0001d	83 c8 08	 or	 eax, 8
  00020	50		 push	 eax
  00021	ff 75 08	 push	 DWORD PTR _szName$[ebp]
  00024	8b ce		 mov	 ecx, esi
  00026	c7 06 00 00 00
	00		 mov	 DWORD PTR [esi], OFFSET FLAT:??_7ivfstream@@6B@
  0002c	e8 00 00 00 00	 call	 ?open@iovfs_base@@UAEXPBDH@Z ; iovfs_base::open

; 67   : }

  00031	8b 4d f4	 mov	 ecx, DWORD PTR __$EHRec$[ebp]
  00034	8b c6		 mov	 eax, esi
  00036	5e		 pop	 esi
  00037	64 89 0d 00 00
	00 00		 mov	 DWORD PTR fs:__except_list, ecx
  0003e	c9		 leave
  0003f	c2 08 00	 ret	 8
_TEXT	ENDS
;	COMDAT text$x
text$x	SEGMENT
$L109153:
  00000	8b 4d f0	 mov	 ecx, DWORD PTR _this$[ebp]
  00003	e9 00 00 00 00	 jmp	 ??1iovfs_base@@UAE@XZ	; iovfs_base::~iovfs_base
__ehhandler$??0ivfstream@@QAE@PBDH@Z:
  00008	b8 00 00 00 00	 mov	 eax, OFFSET FLAT:$T109158
  0000d	e9 00 00 00 00	 jmp	 ___CxxFrameHandler
text$x	ENDS
??0ivfstream@@QAE@PBDH@Z ENDP				; ivfstream::ivfstream
PUBLIC	?replace@?$basic_string@DV?$char_traits@D@_STL@@V?$allocator@D@2@@_STL@@QAEAAV12@PAD0PBD@Z ; _STL::basic_string<char,_STL::char_traits<char>,_STL::allocator<char> >::replace
; Function compile flags: /Ogsy
; File c:\stlport-4.6.1\stlport\stl\_string.h
;	COMDAT ?replace@?$basic_string@DV?$char_traits@D@_STL@@V?$allocator@D@2@@_STL@@QAEAAV12@PAD0PBD@Z
_TEXT	SEGMENT
___first$ = 8						; size = 4
___last$ = 12						; size = 4
___s$ = 16						; size = 4
?replace@?$basic_string@DV?$char_traits@D@_STL@@V?$allocator@D@2@@_STL@@QAEAAV12@PAD0PBD@Z PROC NEAR ; _STL::basic_string<char,_STL::char_traits<char>,_STL::allocator<char> >::replace, COMDAT
; _this$ = ecx

; 943  :                         const _CharT* __s) {

  00000	55		 push	 ebp
  00001	8b ec		 mov	 ebp, esp
  00003	56		 push	 esi

; 944  :     _STLP_FIX_LITERAL_BUG(__s)
; 945  :     return replace(__first, __last, __s, __s + _Traits::length(__s));

  00004	ff 75 10	 push	 DWORD PTR ___s$[ebp]
  00007	8b f1		 mov	 esi, ecx
  00009	e8 00 00 00 00	 call	 _strlen
  0000e	03 45 10	 add	 eax, DWORD PTR ___s$[ebp]
  00011	59		 pop	 ecx
  00012	50		 push	 eax
  00013	ff 75 10	 push	 DWORD PTR ___s$[ebp]
  00016	8b ce		 mov	 ecx, esi
  00018	ff 75 0c	 push	 DWORD PTR ___last$[ebp]
  0001b	ff 75 08	 push	 DWORD PTR ___first$[ebp]
  0001e	e8 00 00 00 00	 call	 ??$replace@PBD@?$basic_string@DV?$char_traits@D@_STL@@V?$allocator@D@2@@_STL@@QAEAAV01@PAD0PBD1@Z ; _STL::basic_string<char,_STL::char_traits<char>,_STL::allocator<char> >::replace<char const *>
  00023	5e		 pop	 esi

; 946  :   }

  00024	5d		 pop	 ebp
  00025	c2 0c 00	 ret	 12			; 0000000cH
?replace@?$basic_string@DV?$char_traits@D@_STL@@V?$allocator@D@2@@_STL@@QAEAAV12@PAD0PBD@Z ENDP ; _STL::basic_string<char,_STL::char_traits<char>,_STL::allocator<char> >::replace
_TEXT	ENDS
PUBLIC	?init@?$basic_ios@DV?$char_traits@D@_STL@@@_STL@@IAEXPAV?$basic_streambuf@DV?$char_traits@D@_STL@@@2@@Z ; _STL::basic_ios<char,_STL::char_traits<char> >::init
;	COMDAT xdata$x
; File c:\stlport-4.6.1\stlport\stl\_ios.h
xdata$x	SEGMENT
$T109218 DD	0ffffffffH
	DD	FLAT:$L109172
$T109216 DD	019930520H
	DD	01H
	DD	FLAT:$T109218
	DD	2 DUP(00H)
	DD	2 DUP(00H)
; Function compile flags: /Ogsy
; File c:\stlport-4.6.1\stlport\stl\_ios.c
xdata$x	ENDS
;	COMDAT ?init@?$basic_ios@DV?$char_traits@D@_STL@@@_STL@@IAEXPAV?$basic_streambuf@DV?$char_traits@D@_STL@@@2@@Z
_TEXT	SEGMENT
$T109170 = -20						; size = 4
$T109171 = -16						; size = 4
__$EHRec$ = -12						; size = 12
___sb$ = 8						; size = 4
?init@?$basic_ios@DV?$char_traits@D@_STL@@@_STL@@IAEXPAV?$basic_streambuf@DV?$char_traits@D@_STL@@@2@@Z PROC NEAR ; _STL::basic_ios<char,_STL::char_traits<char> >::init, COMDAT
; _this$ = ecx

; 100  : {

  00000	b8 00 00 00 00	 mov	 eax, __ehhandler$?init@?$basic_ios@DV?$char_traits@D@_STL@@@_STL@@IAEXPAV?$basic_streambuf@DV?$char_traits@D@_STL@@@2@@Z
  00005	e8 00 00 00 00	 call	 __EH_prolog
  0000a	51		 push	 ecx
  0000b	51		 push	 ecx
  0000c	56		 push	 esi
  0000d	57		 push	 edi

; 101  :   this->rdbuf(__sb);

  0000e	ff 75 08	 push	 DWORD PTR ___sb$[ebp]
  00011	8b f1		 mov	 esi, ecx
  00013	e8 00 00 00 00	 call	 ?rdbuf@?$basic_ios@DV?$char_traits@D@_STL@@@_STL@@QAEPAV?$basic_streambuf@DV?$char_traits@D@_STL@@@2@PAV32@@Z ; _STL::basic_ios<char,_STL::char_traits<char> >::rdbuf

; 102  :   this->imbue(locale());

  00018	8d 4d ec	 lea	 ecx, DWORD PTR $T109170[ebp]
  0001b	e8 00 00 00 00	 call	 ??0locale@_STL@@QAE@XZ	; _STL::locale::locale
  00020	50		 push	 eax
  00021	8d 45 f0	 lea	 eax, DWORD PTR $T109171[ebp]
  00024	33 ff		 xor	 edi, edi
  00026	50		 push	 eax
  00027	8b ce		 mov	 ecx, esi
  00029	89 7d fc	 mov	 DWORD PTR __$EHRec$[ebp+8], edi
  0002c	e8 00 00 00 00	 call	 ?imbue@?$basic_ios@DV?$char_traits@D@_STL@@@_STL@@QAE?AVlocale@2@ABV32@@Z ; _STL::basic_ios<char,_STL::char_traits<char> >::imbue
  00031	8d 4d f0	 lea	 ecx, DWORD PTR $T109171[ebp]
  00034	e8 00 00 00 00	 call	 ??1locale@_STL@@QAE@XZ	; _STL::locale::~locale
  00039	83 4d fc ff	 or	 DWORD PTR __$EHRec$[ebp+8], -1
  0003d	8d 4d ec	 lea	 ecx, DWORD PTR $T109170[ebp]
  00040	e8 00 00 00 00	 call	 ??1locale@_STL@@QAE@XZ	; _STL::locale::~locale

; 103  :   this->tie(0);
; 104  :   this->_M_set_exception_mask(ios_base::goodbit);
; 105  :   this->_M_clear_nothrow(__sb != 0 ? ios_base::goodbit : ios_base::badbit);
; 106  :   ios_base::flags(ios_base::skipws | ios_base::dec);
; 107  :   ios_base::width(0);
; 108  :   ios_base::precision(6);
; 109  :   this->fill(widen(' '));

  00045	8b 4e 40	 mov	 ecx, DWORD PTR [esi+64]
  00048	33 c0		 xor	 eax, eax
  0004a	39 7d 08	 cmp	 DWORD PTR ___sb$[ebp], edi
  0004d	89 7e 5c	 mov	 DWORD PTR [esi+92], edi
  00050	0f 94 c0	 sete	 al
  00053	89 7e 14	 mov	 DWORD PTR [esi+20], edi
  00056	c7 46 04 08 10
	00 00		 mov	 DWORD PTR [esi+4], 4104	; 00001008H
  0005d	89 7e 1c	 mov	 DWORD PTR [esi+28], edi
  00060	c7 46 18 06 00
	00 00		 mov	 DWORD PTR [esi+24], 6
  00067	6a 20		 push	 32			; 00000020H
  00069	89 46 08	 mov	 DWORD PTR [esi+8], eax
  0006c	8b 01		 mov	 eax, DWORD PTR [ecx]
  0006e	ff 50 18	 call	 DWORD PTR [eax+24]

; 110  :   // We don't need to worry about any of the three arrays: they are
; 111  :   // initialized correctly in ios_base's constructor.
; 112  : }

  00071	8b 4d f4	 mov	 ecx, DWORD PTR __$EHRec$[ebp]
  00074	88 46 54	 mov	 BYTE PTR [esi+84], al
  00077	5f		 pop	 edi
  00078	5e		 pop	 esi
  00079	64 89 0d 00 00
	00 00		 mov	 DWORD PTR fs:__except_list, ecx
  00080	c9		 leave
  00081	c2 04 00	 ret	 4
_TEXT	ENDS
;	COMDAT text$x
text$x	SEGMENT
$L109172:
  00000	8d 4d ec	 lea	 ecx, DWORD PTR $T109170[ebp]
  00003	e9 00 00 00 00	 jmp	 ??1locale@_STL@@QAE@XZ	; _STL::locale::~locale
__ehhandler$?init@?$basic_ios@DV?$char_traits@D@_STL@@@_STL@@IAEXPAV?$basic_streambuf@DV?$char_traits@D@_STL@@@2@@Z:
  00008	b8 00 00 00 00	 mov	 eax, OFFSET FLAT:$T109216
  0000d	e9 00 00 00 00	 jmp	 ___CxxFrameHandler
text$x	ENDS
?init@?$basic_ios@DV?$char_traits@D@_STL@@@_STL@@IAEXPAV?$basic_streambuf@DV?$char_traits@D@_STL@@@2@@Z ENDP ; _STL::basic_ios<char,_STL::char_traits<char> >::init
PUBLIC	?LoadHelpMessageRpk@MHelpMessageManager@@QAE_NPBD@Z ; MHelpMessageManager::LoadHelpMessageRpk
PUBLIC	??_C@_08NEOEAKGJ@cjdgorkr?$AA@			; `string'
PUBLIC	??_C@_0BF@DNGHBMEC@data?2ui?2txt?2Help?4rpk?$AA@ ; `string'
PUBLIC	??_C@_0O@DPBHGDHC@?$FL?$DN?$DN?$DNEvent?$DN?$DN?$DN?$FN?$AA@ ; `string'
PUBLIC	??_C@_0M@EAAONFGJ@?$FL?$DN?$DNTitle?$DN?$DN?$FN?$AA@ ; `string'
PUBLIC	??_C@_0N@HDDDHLGB@?$FL?$DN?$DNSender?$DN?$DN?$FN?$AA@ ; `string'
PUBLIC	??_C@_0BD@MOJKFIBE@?$FL?$DN?$DNLevel?5?A?$LG?$LA?G?G?$KF?$DN?$DN?$FN?$AA@ ; `string'
PUBLIC	??_C@_0N@KBBAAKCM@?$FL?$DN?$DNDetail?$DN?$DN?$FN?$AA@ ; `string'
EXTRN	__chkstk:NEAR
EXTRN	___security_cookie:DWORD
EXTRN	@__security_check_cookie@4:NEAR
EXTRN	_strstr:NEAR
EXTRN	_strtok:NEAR
EXTRN	?Release@CRarFile@@QAEXXZ:NEAR			; CRarFile::Release
EXTRN	?SetRAR@CRarFile@@QAEXPBD0@Z:NEAR		; CRarFile::SetRAR
EXTRN	?Open@CRarFile@@QAE_NPBD@Z:NEAR			; CRarFile::Open
EXTRN	?GetString@CRarFile@@QAE_NPADH@Z:NEAR		; CRarFile::GetString
EXTRN	_atoi:NEAR
EXTRN	_memset:NEAR
;	COMDAT xdata$x
; File c:\stlport-4.6.1\stlport\stl\_alloc.h
xdata$x	SEGMENT
$T109607 DD	0ffffffffH
	DD	FLAT:$L109229
	DD	00H
	DD	FLAT:$L109230
	DD	01H
	DD	FLAT:$L109231
	DD	02H
	DD	FLAT:$L109232
	DD	03H
	DD	FLAT:$L109233
$T109584 DD	019930520H
	DD	05H
	DD	FLAT:$T109607
	DD	2 DUP(00H)
	DD	2 DUP(00H)
xdata$x	ENDS
;	COMDAT ??_C@_08NEOEAKGJ@cjdgorkr?$AA@
CONST	SEGMENT
??_C@_08NEOEAKGJ@cjdgorkr?$AA@ DB 'cjdgorkr', 00H	; `string'
CONST	ENDS
;	COMDAT ??_C@_0BF@DNGHBMEC@data?2ui?2txt?2Help?4rpk?$AA@
CONST	SEGMENT
??_C@_0BF@DNGHBMEC@data?2ui?2txt?2Help?4rpk?$AA@ DB 'data\ui\txt\Help.rpk'
	DB	00H						; `string'
CONST	ENDS
;	COMDAT ??_C@_0O@DPBHGDHC@?$FL?$DN?$DN?$DNEvent?$DN?$DN?$DN?$FN?$AA@
CONST	SEGMENT
??_C@_0O@DPBHGDHC@?$FL?$DN?$DN?$DNEvent?$DN?$DN?$DN?$FN?$AA@ DB '[===Even'
	DB	't===]', 00H					; `string'
CONST	ENDS
;	COMDAT ??_C@_0M@EAAONFGJ@?$FL?$DN?$DNTitle?$DN?$DN?$FN?$AA@
CONST	SEGMENT
??_C@_0M@EAAONFGJ@?$FL?$DN?$DNTitle?$DN?$DN?$FN?$AA@ DB '[==Title==]', 00H ; `string'
CONST	ENDS
;	COMDAT ??_C@_0N@HDDDHLGB@?$FL?$DN?$DNSender?$DN?$DN?$FN?$AA@
CONST	SEGMENT
??_C@_0N@HDDDHLGB@?$FL?$DN?$DNSender?$DN?$DN?$FN?$AA@ DB '[==Sender==]', 00H ; `string'
CONST	ENDS
;	COMDAT ??_C@_0BD@MOJKFIBE@?$FL?$DN?$DNLevel?5?A?$LG?$LA?G?G?$KF?$DN?$DN?$FN?$AA@
CONST	SEGMENT
??_C@_0BD@MOJKFIBE@?$FL?$DN?$DNLevel?5?A?$LG?$LA?G?G?$KF?$DN?$DN?$FN?$AA@ DB '['
	DB	'==Level ', 0c1H, 0b6H, 0b0H, 0c7H, 0c7H, 0a5H, '==]', 00H ; `string'
CONST	ENDS
;	COMDAT ??_C@_0N@KBBAAKCM@?$FL?$DN?$DNDetail?$DN?$DN?$FN?$AA@
CONST	SEGMENT
??_C@_0N@KBBAAKCM@?$FL?$DN?$DNDetail?$DN?$DN?$FN?$AA@ DB '[==Detail==]', 00H ; `string'
; Function compile flags: /Ogsy
; File c:\darkeden\designed_common\project\client\mhelpmessagemanager.cpp
CONST	ENDS
;	COMDAT ?LoadHelpMessageRpk@MHelpMessageManager@@QAE_NPBD@Z
_TEXT	SEGMENT
_message$ = -4416					; size = 188
_levtemp$ = -4228					; size = 28
_m_sender$ = -4200					; size = 12
_tempend$ = -4188					; size = 12
_isMessagetype$ = -4176					; size = 4
_iskeyword$ = -4172					; size = 4
_isLevel$ = -4168					; size = 4
_isEvent$ = -4164					; size = 4
_isSender$ = -4160					; size = 4
_temp2$ = -4156						; size = 12
_isTitle$ = -4144					; size = 4
_isDetail$ = -4140					; size = 4
_seps$ = -4136						; size = 2
_current_race$ = -4132					; size = 4
_this$ = -4128						; size = 4
_temp$ = -4124						; size = 12
_levline$101943 = -4112					; size = 2048
_sztemp$ = -2064					; size = 2048
__$ArrayPad$ = -16					; size = 4
__$EHRec$ = -12						; size = 12
__$ReturnAddr$ = 4					; size = 4
_helprpkfilename$ = 8					; size = 4
_detail_flag$ = 11					; size = 1
?LoadHelpMessageRpk@MHelpMessageManager@@QAE_NPBD@Z PROC NEAR ; MHelpMessageManager::LoadHelpMessageRpk, COMDAT
; _this$ = ecx

; 63   : {

  00000	b8 00 00 00 00	 mov	 eax, __ehhandler$?LoadHelpMessageRpk@MHelpMessageManager@@QAE_NPBD@Z
  00005	e8 00 00 00 00	 call	 __EH_prolog
  0000a	b8 34 11 00 00	 mov	 eax, 4404		; 00001134H
  0000f	e8 00 00 00 00	 call	 __chkstk
  00014	a1 00 00 00 00	 mov	 eax, DWORD PTR ___security_cookie
  00019	53		 push	 ebx

; 64   : 	m_pack_file.SetRAR(RPK_HELP, RPK_PASSWORD);

  0001a	8d 59 24	 lea	 ebx, DWORD PTR [ecx+36]
  0001d	68 00 00 00 00	 push	 OFFSET FLAT:??_C@_08NEOEAKGJ@cjdgorkr?$AA@
  00022	89 8d e0 ef ff
	ff		 mov	 DWORD PTR _this$[ebp], ecx
  00028	68 00 00 00 00	 push	 OFFSET FLAT:??_C@_0BF@DNGHBMEC@data?2ui?2txt?2Help?4rpk?$AA@
  0002d	8b cb		 mov	 ecx, ebx
  0002f	89 45 f0	 mov	 DWORD PTR __$ArrayPad$[ebp], eax
  00032	e8 00 00 00 00	 call	 ?SetRAR@CRarFile@@QAEXPBD0@Z ; CRarFile::SetRAR

; 65   : 	if(!m_pack_file.IsSet())return false;

  00037	8b cb		 mov	 ecx, ebx
  00039	e8 00 00 00 00	 call	 ?IsSet@CRarFile@@QAE_NXZ ; CRarFile::IsSet
  0003e	84 c0		 test	 al, al
  00040	74 0e		 je	 SHORT $L109606

; 66   : 	if(!m_pack_file.Open(helprpkfilename)){	return false;}

  00042	ff 75 08	 push	 DWORD PTR _helprpkfilename$[ebp]
  00045	8b cb		 mov	 ecx, ebx
  00047	e8 00 00 00 00	 call	 ?Open@CRarFile@@QAE_NPBD@Z ; CRarFile::Open
  0004c	84 c0		 test	 al, al
  0004e	75 07		 jne	 SHORT $L101806
$L109606:
  00050	32 c0		 xor	 al, al
  00052	e9 0d 06 00 00	 jmp	 $L101802
$L101806:
  00057	56		 push	 esi
  00058	57		 push	 edi

; 67   : 
; 68   : 	MHelpMessage message;

  00059	8d 8d c0 ee ff
	ff		 lea	 ecx, DWORD PTR _message$[ebp]
  0005f	e8 00 00 00 00	 call	 ??0MHelpMessage@@QAE@XZ	; MHelpMessage::MHelpMessage
  00064	33 f6		 xor	 esi, esi

; 69   : 	MString		 m_sender;

  00066	8d 8d 98 ef ff
	ff		 lea	 ecx, DWORD PTR _m_sender$[ebp]
  0006c	89 75 fc	 mov	 DWORD PTR __$EHRec$[ebp+8], esi
  0006f	e8 00 00 00 00	 call	 ??0MString@@QAE@XZ	; MString::MString

; 70   : 	char sztemp[dSTRING_LEN];
; 71   : 	std::string temp,temp2,tempend;

  00074	8d 8d e4 ef ff
	ff		 lea	 ecx, DWORD PTR _temp$[ebp]
  0007a	c6 45 fc 01	 mov	 BYTE PTR __$EHRec$[ebp+8], 1
  0007e	e8 00 00 00 00	 call	 ??0?$basic_string@DV?$char_traits@D@_STL@@V?$allocator@D@2@@_STL@@QAE@XZ ; _STL::basic_string<char,_STL::char_traits<char>,_STL::allocator<char> >::basic_string<char,_STL::char_traits<char>,_STL::allocator<char> >
  00083	8d 8d c4 ef ff
	ff		 lea	 ecx, DWORD PTR _temp2$[ebp]
  00089	c6 45 fc 02	 mov	 BYTE PTR __$EHRec$[ebp+8], 2
  0008d	e8 00 00 00 00	 call	 ??0?$basic_string@DV?$char_traits@D@_STL@@V?$allocator@D@2@@_STL@@QAE@XZ ; _STL::basic_string<char,_STL::char_traits<char>,_STL::allocator<char> >::basic_string<char,_STL::char_traits<char>,_STL::allocator<char> >
  00092	8d 8d a4 ef ff
	ff		 lea	 ecx, DWORD PTR _tempend$[ebp]
  00098	c6 45 fc 03	 mov	 BYTE PTR __$EHRec$[ebp+8], 3
  0009c	e8 00 00 00 00	 call	 ??0?$basic_string@DV?$char_traits@D@_STL@@V?$allocator@D@2@@_STL@@QAE@XZ ; _STL::basic_string<char,_STL::char_traits<char>,_STL::allocator<char> >::basic_string<char,_STL::char_traits<char>,_STL::allocator<char> >

; 72   : 	char seps[] = " ";
; 73   : 	char *token;
; 74   : 	int  levtemp[7],i,Sendercnt;
; 75   : 	bool detail_flag = false;
; 76   : 	char * iskeyword = NULL,* isMessagetype = NULL,* isEvent = NULL ,* isTitle = NULL;

  000a1	89 b5 b4 ef ff
	ff		 mov	 DWORD PTR _iskeyword$[ebp], esi
  000a7	89 b5 b0 ef ff
	ff		 mov	 DWORD PTR _isMessagetype$[ebp], esi
  000ad	89 b5 bc ef ff
	ff		 mov	 DWORD PTR _isEvent$[ebp], esi
  000b3	89 b5 d0 ef ff
	ff		 mov	 DWORD PTR _isTitle$[ebp], esi

; 77   : 	char * isLevel = NULL,	* isDetail= NULL,   * isDetailEnd= NULL,* isSender = NULL;

  000b9	89 b5 b8 ef ff
	ff		 mov	 DWORD PTR _isLevel$[ebp], esi
  000bf	89 b5 d4 ef ff
	ff		 mov	 DWORD PTR _isDetail$[ebp], esi
  000c5	89 b5 c0 ef ff
	ff		 mov	 DWORD PTR _isSender$[ebp], esi

; 78   : 	m_pack_file.GetString(sztemp, dSTRING_LEN);

  000cb	be 00 08 00 00	 mov	 esi, 2048		; 00000800H
  000d0	56		 push	 esi
  000d1	8d 85 f0 f7 ff
	ff		 lea	 eax, DWORD PTR _sztemp$[ebp]
  000d7	50		 push	 eax
  000d8	8b cb		 mov	 ecx, ebx
  000da	c6 45 fc 04	 mov	 BYTE PTR __$EHRec$[ebp+8], 4
  000de	66 c7 85 d8 ef
	ff ff 20 00	 mov	 WORD PTR _seps$[ebp], 32 ; 00000020H
  000e7	c6 45 0b 00	 mov	 BYTE PTR _detail_flag$[ebp], 0
  000eb	e8 00 00 00 00	 call	 ?GetString@CRarFile@@QAE_NPADH@Z ; CRarFile::GetString

; 79   : 	Sendercnt = atoi(sztemp);

  000f0	8d 85 f0 f7 ff
	ff		 lea	 eax, DWORD PTR _sztemp$[ebp]
  000f6	50		 push	 eax
  000f7	e8 00 00 00 00	 call	 _atoi
  000fc	59		 pop	 ecx
  000fd	8b f8		 mov	 edi, eax

; 80   : 	m_pack_file.GetString(sztemp, dSTRING_LEN);

  000ff	56		 push	 esi
  00100	8d 85 f0 f7 ff
	ff		 lea	 eax, DWORD PTR _sztemp$[ebp]
  00106	50		 push	 eax
  00107	8b cb		 mov	 ecx, ebx
  00109	e8 00 00 00 00	 call	 ?GetString@CRarFile@@QAE_NPADH@Z ; CRarFile::GetString

; 81   : 
; 82   : 	for(i = 0; i<Sendercnt; i++)		//    

  0010e	85 ff		 test	 edi, edi
  00110	0f 8e 97 00 00
	00		 jle	 $L101829
  00116	8b 9d e0 ef ff
	ff		 mov	 ebx, DWORD PTR _this$[ebp]
  0011c	83 c3 10	 add	 ebx, 16			; 00000010H
$L101827:

; 83   : 	{
; 84   : 		m_pack_file.GetString(sztemp, dSTRING_LEN);

  0011f	8b 8d e0 ef ff
	ff		 mov	 ecx, DWORD PTR _this$[ebp]
  00125	56		 push	 esi
  00126	8d 85 f0 f7 ff
	ff		 lea	 eax, DWORD PTR _sztemp$[ebp]
  0012c	50		 push	 eax
  0012d	83 c1 24	 add	 ecx, 36			; 00000024H
  00130	e8 00 00 00 00	 call	 ?GetString@CRarFile@@QAE_NPADH@Z ; CRarFile::GetString

; 85   : 		temp = sztemp;		

  00135	8d 85 f0 f7 ff
	ff		 lea	 eax, DWORD PTR _sztemp$[ebp]
  0013b	50		 push	 eax
  0013c	8d 8d e4 ef ff
	ff		 lea	 ecx, DWORD PTR _temp$[ebp]
  00142	e8 00 00 00 00	 call	 ??4?$basic_string@DV?$char_traits@D@_STL@@V?$allocator@D@2@@_STL@@QAEAAV01@PBD@Z ; _STL::basic_string<char,_STL::char_traits<char>,_STL::allocator<char> >::operator=

; 86   : 		int nCharToDel2 = 0;
; 87   : 		int len2 = temp.length();

  00147	8b 8d e8 ef ff
	ff		 mov	 ecx, DWORD PTR _temp$[ebp+4]
  0014d	8b c1		 mov	 eax, ecx
  0014f	33 d2		 xor	 edx, edx
  00151	2b 85 e4 ef ff
	ff		 sub	 eax, DWORD PTR _temp$[ebp]
  00157	eb 07		 jmp	 SHORT $L109603

; 88   : 		for (std::string::reverse_iterator itor = temp.rbegin(); itor != temp.rend(); itor++) //    

$L109263:

; 89   : 		{
; 90   : 			char c = *itor;

  00159	49		 dec	 ecx

; 91   : 			if (c=='\r')

  0015a	80 39 0d	 cmp	 BYTE PTR [ecx], 13	; 0000000dH
  0015d	75 09		 jne	 SHORT $L101907

; 92   : 				nCharToDel2++;

  0015f	42		 inc	 edx
$L109603:

; 88   : 		for (std::string::reverse_iterator itor = temp.rbegin(); itor != temp.rend(); itor++) //    

  00160	3b 8d e4 ef ff
	ff		 cmp	 ecx, DWORD PTR _temp$[ebp]
  00166	75 f1		 jne	 SHORT $L109263
$L101907:

; 93   : 			else break;
; 94   : 		}
; 95   : 		temp.erase(len2 - nCharToDel2, len2);

  00168	50		 push	 eax
  00169	2b c2		 sub	 eax, edx
  0016b	50		 push	 eax
  0016c	8d 8d e4 ef ff
	ff		 lea	 ecx, DWORD PTR _temp$[ebp]
  00172	e8 00 00 00 00	 call	 ?erase@?$basic_string@DV?$char_traits@D@_STL@@V?$allocator@D@2@@_STL@@QAEAAV12@II@Z ; _STL::basic_string<char,_STL::char_traits<char>,_STL::allocator<char> >::erase

; 96   : 		m_sender = temp.c_str();

  00177	ff b5 e4 ef ff
	ff		 push	 DWORD PTR _temp$[ebp]
  0017d	8d 8d 98 ef ff
	ff		 lea	 ecx, DWORD PTR _m_sender$[ebp]
  00183	e8 00 00 00 00	 call	 ??4MString@@QAEXPBD@Z	; MString::operator=

; 97   : //		MHelpMessageManager::Instance().addSender(m_sender);
; 98   : 		addSender(m_sender);

  00188	8d 85 98 ef ff
	ff		 lea	 eax, DWORD PTR _m_sender$[ebp]
  0018e	50		 push	 eax
  0018f	8b cb		 mov	 ecx, ebx
  00191	e8 00 00 00 00	 call	 ?push_back@?$vector@VMString@@V?$allocator@VMString@@@_STL@@@_STL@@QAEXABVMString@@@Z ; _STL::vector<MString,_STL::allocator<MString> >::push_back

; 99   : 		temp = "";

  00196	68 00 00 00 00	 push	 OFFSET FLAT:??_C@_00CNPNBAHC@?$AA@
  0019b	8d 8d e4 ef ff
	ff		 lea	 ecx, DWORD PTR _temp$[ebp]
  001a1	e8 00 00 00 00	 call	 ??4?$basic_string@DV?$char_traits@D@_STL@@V?$allocator@D@2@@_STL@@QAEAAV01@PBD@Z ; _STL::basic_string<char,_STL::char_traits<char>,_STL::allocator<char> >::operator=
  001a6	4f		 dec	 edi
  001a7	0f 85 72 ff ff
	ff		 jne	 $L101827
$L101829:

; 100  : 
; 101  : 	}
; 102  : 	m_pack_file.GetString(sztemp, dSTRING_LEN);

  001ad	8b 9d e0 ef ff
	ff		 mov	 ebx, DWORD PTR _this$[ebp]
  001b3	56		 push	 esi
  001b4	8d 85 f0 f7 ff
	ff		 lea	 eax, DWORD PTR _sztemp$[ebp]
  001ba	8d 7b 24	 lea	 edi, DWORD PTR [ebx+36]
  001bd	50		 push	 eax
  001be	8b cf		 mov	 ecx, edi
  001c0	e8 00 00 00 00	 call	 ?GetString@CRarFile@@QAE_NPADH@Z ; CRarFile::GetString

; 103  : 
; 104  : //	MHelpMessageManager::Instance().m_KeyCnt = atoi(sztemp);
; 105  : 	m_KeyCnt = atoi(sztemp);

  001c5	8d 85 f0 f7 ff
	ff		 lea	 eax, DWORD PTR _sztemp$[ebp]
  001cb	50		 push	 eax
  001cc	e8 00 00 00 00	 call	 _atoi
  001d1	59		 pop	 ecx
  001d2	89 43 1c	 mov	 DWORD PTR [ebx+28], eax

; 106  : 
; 107  : 	int current_race = 0;
; 108  : 	while(m_pack_file.GetString(sztemp, dSTRING_LEN))

  001d5	56		 push	 esi
  001d6	8d 85 f0 f7 ff
	ff		 lea	 eax, DWORD PTR _sztemp$[ebp]
  001dc	33 db		 xor	 ebx, ebx
  001de	50		 push	 eax
  001df	8b cf		 mov	 ecx, edi
  001e1	89 9d dc ef ff
	ff		 mov	 DWORD PTR _current_race$[ebp], ebx
  001e7	e8 00 00 00 00	 call	 ?GetString@CRarFile@@QAE_NPADH@Z ; CRarFile::GetString
  001ec	84 c0		 test	 al, al
  001ee	0f 84 e1 03 00
	00		 je	 $L101912
  001f4	eb 02		 jmp	 SHORT $L101911
$L109594:
  001f6	33 db		 xor	 ebx, ebx
$L101911:

; 109  : 	{
; 110  : 		temp = sztemp;

  001f8	8d 85 f0 f7 ff
	ff		 lea	 eax, DWORD PTR _sztemp$[ebp]
  001fe	50		 push	 eax
  001ff	8d 8d e4 ef ff
	ff		 lea	 ecx, DWORD PTR _temp$[ebp]
  00205	e8 00 00 00 00	 call	 ??4?$basic_string@DV?$char_traits@D@_STL@@V?$allocator@D@2@@_STL@@QAEAAV01@PBD@Z ; _STL::basic_string<char,_STL::char_traits<char>,_STL::allocator<char> >::operator=

; 111  : 		char c;
; 112  : 		int nCharToDel = 0;

  0020a	33 d2		 xor	 edx, edx

; 113  : 		if(isDetail)

  0020c	39 9d d4 ef ff
	ff		 cmp	 DWORD PTR _isDetail$[ebp], ebx
  00212	75 2b		 jne	 SHORT $L101916

; 114  : 		{
; 115  : 			
; 116  : 		}
; 117  : 		else
; 118  : 		{
; 119  : 			for (std::string::iterator itr = temp.begin(); itr != temp.end(); itr++) //   

  00214	8b 85 e4 ef ff
	ff		 mov	 eax, DWORD PTR _temp$[ebp]
  0021a	eb 0e		 jmp	 SHORT $L109604
$L101918:

; 120  : 			{
; 121  : 				c = *itr;

  0021c	8a 08		 mov	 cl, BYTE PTR [eax]

; 122  : 				if (c == ' ' || c == '\t')

  0021e	80 f9 20	 cmp	 cl, 32			; 00000020H
  00221	74 05		 je	 SHORT $L101922
  00223	80 f9 09	 cmp	 cl, 9
  00226	75 0a		 jne	 SHORT $L101921
$L101922:

; 123  : 					nCharToDel++;

  00228	42		 inc	 edx
  00229	40		 inc	 eax
$L109604:

; 114  : 		{
; 115  : 			
; 116  : 		}
; 117  : 		else
; 118  : 		{
; 119  : 			for (std::string::iterator itr = temp.begin(); itr != temp.end(); itr++) //   

  0022a	3b 85 e8 ef ff
	ff		 cmp	 eax, DWORD PTR _temp$[ebp+4]
  00230	75 ea		 jne	 SHORT $L101918
$L101921:

; 124  : 				else break;
; 125  : 			}
; 126  : 			
; 127  : 			temp.erase(0, nCharToDel);			//  

  00232	52		 push	 edx
  00233	53		 push	 ebx
  00234	8d 8d e4 ef ff
	ff		 lea	 ecx, DWORD PTR _temp$[ebp]
  0023a	e8 00 00 00 00	 call	 ?erase@?$basic_string@DV?$char_traits@D@_STL@@V?$allocator@D@2@@_STL@@QAEAAV12@II@Z ; _STL::basic_string<char,_STL::char_traits<char>,_STL::allocator<char> >::erase
$L101916:

; 128  : 		}
; 129  : 
; 130  : 		nCharToDel = 0;
; 131  : 		int len = temp.length();

  0023f	8b 8d e8 ef ff
	ff		 mov	 ecx, DWORD PTR _temp$[ebp+4]
  00245	8b 95 e4 ef ff
	ff		 mov	 edx, DWORD PTR _temp$[ebp]
  0024b	8b c1		 mov	 eax, ecx
  0024d	33 ff		 xor	 edi, edi
  0024f	2b c2		 sub	 eax, edx
  00251	eb 07		 jmp	 SHORT $L109605

; 132  : 		for (std::string::reverse_iterator itor = temp.rbegin(); itor != temp.rend(); itor++)

$L109341:

; 133  : 		{
; 134  : 			c = *itor;

  00253	49		 dec	 ecx

; 135  : 			if (c=='\r')

  00254	80 39 0d	 cmp	 BYTE PTR [ecx], 13	; 0000000dH
  00257	75 05		 jne	 SHORT $L101932

; 136  : 				nCharToDel++;

  00259	47		 inc	 edi
$L109605:

; 132  : 		for (std::string::reverse_iterator itor = temp.rbegin(); itor != temp.rend(); itor++)

  0025a	3b ca		 cmp	 ecx, edx
  0025c	75 f5		 jne	 SHORT $L109341
$L101932:

; 137  : 			else break;
; 138  : 		} 
; 139  : 		//  
; 140  : 		if(isTitle)

  0025e	39 9d d0 ef ff
	ff		 cmp	 DWORD PTR _isTitle$[ebp], ebx
  00264	74 11		 je	 SHORT $L101934

; 141  : 			temp.erase(len - nCharToDel, len);

  00266	50		 push	 eax
  00267	2b c7		 sub	 eax, edi
  00269	50		 push	 eax
  0026a	8d 8d e4 ef ff
	ff		 lea	 ecx, DWORD PTR _temp$[ebp]
  00270	e8 00 00 00 00	 call	 ?erase@?$basic_string@DV?$char_traits@D@_STL@@V?$allocator@D@2@@_STL@@QAEAAV12@II@Z ; _STL::basic_string<char,_STL::char_traits<char>,_STL::allocator<char> >::erase

; 142  : 		else

  00275	eb 19		 jmp	 SHORT $L101935
$L101934:

; 143  : 			temp.replace( temp.begin()+len-nCharToDel, temp.begin() + len, "\r\n");

  00277	8d 0c 10	 lea	 ecx, DWORD PTR [eax+edx]
  0027a	68 00 00 00 00	 push	 OFFSET FLAT:??_C@_02PCIJFNDE@?$AN?6?$AA@
  0027f	2b c7		 sub	 eax, edi
  00281	51		 push	 ecx
  00282	03 c2		 add	 eax, edx
  00284	50		 push	 eax
  00285	8d 8d e4 ef ff
	ff		 lea	 ecx, DWORD PTR _temp$[ebp]
  0028b	e8 00 00 00 00	 call	 ?replace@?$basic_string@DV?$char_traits@D@_STL@@V?$allocator@D@2@@_STL@@QAEAAV12@PAD0PBD@Z ; _STL::basic_string<char,_STL::char_traits<char>,_STL::allocator<char> >::replace
$L101935:

; 144  : 		
; 145  : 		if(iskeyword)		//  

  00290	39 9d b4 ef ff
	ff		 cmp	 DWORD PTR _iskeyword$[ebp], ebx
  00296	74 40		 je	 SHORT $L109595

; 146  : 		{	
; 147  : 			temp.erase(temp.length()-2 ,2);

  00298	8b 85 e8 ef ff
	ff		 mov	 eax, DWORD PTR _temp$[ebp+4]
  0029e	2b 85 e4 ef ff
	ff		 sub	 eax, DWORD PTR _temp$[ebp]
  002a4	6a 02		 push	 2
  002a6	48		 dec	 eax
  002a7	48		 dec	 eax
  002a8	50		 push	 eax
  002a9	8d 8d e4 ef ff
	ff		 lea	 ecx, DWORD PTR _temp$[ebp]
  002af	e8 00 00 00 00	 call	 ?erase@?$basic_string@DV?$char_traits@D@_STL@@V?$allocator@D@2@@_STL@@QAEAAV12@II@Z ; _STL::basic_string<char,_STL::char_traits<char>,_STL::allocator<char> >::erase

; 148  : 			message.m_strKeyword  = temp.c_str();

  002b4	ff b5 e4 ef ff
	ff		 push	 DWORD PTR _temp$[ebp]
  002ba	8d 8d c8 ee ff
	ff		 lea	 ecx, DWORD PTR _message$[ebp+8]
  002c0	e8 00 00 00 00	 call	 ??4MString@@QAEXPBD@Z	; MString::operator=

; 149  : 			iskeyword = NULL;
; 150  : 			temp  = "";

  002c5	bb 00 00 00 00	 mov	 ebx, OFFSET FLAT:??_C@_00CNPNBAHC@?$AA@
  002ca	53		 push	 ebx
  002cb	8d 8d e4 ef ff
	ff		 lea	 ecx, DWORD PTR _temp$[ebp]
  002d1	e8 00 00 00 00	 call	 ??4?$basic_string@DV?$char_traits@D@_STL@@V?$allocator@D@2@@_STL@@QAEAAV01@PBD@Z ; _STL::basic_string<char,_STL::char_traits<char>,_STL::allocator<char> >::operator=
  002d6	eb 05		 jmp	 SHORT $L101937
$L109595:
  002d8	bb 00 00 00 00	 mov	 ebx, OFFSET FLAT:??_C@_00CNPNBAHC@?$AA@
$L101937:

; 151  : 		}
; 152  : 		if(isMessagetype) //  

  002dd	33 ff		 xor	 edi, edi
  002df	39 bd b0 ef ff
	ff		 cmp	 DWORD PTR _isMessagetype$[ebp], edi
  002e5	74 13		 je	 SHORT $L101938

; 153  : 		{
; 154  : 			message.m_messageType = atoi(sztemp);

  002e7	8d 85 f0 f7 ff
	ff		 lea	 eax, DWORD PTR _sztemp$[ebp]
  002ed	50		 push	 eax
  002ee	e8 00 00 00 00	 call	 _atoi
  002f3	59		 pop	 ecx
  002f4	89 85 c4 ee ff
	ff		 mov	 DWORD PTR _message$[ebp+4], eax
$L101938:

; 155  : 			isMessagetype = NULL;
; 156  : 		}
; 157  : 		if(isEvent)  //  

  002fa	39 bd bc ef ff
	ff		 cmp	 DWORD PTR _isEvent$[ebp], edi
  00300	74 39		 je	 SHORT $L101939

; 158  : 		{
; 159  : 			temp.erase(temp.length()-2 ,2);

  00302	8b 85 e8 ef ff
	ff		 mov	 eax, DWORD PTR _temp$[ebp+4]
  00308	2b 85 e4 ef ff
	ff		 sub	 eax, DWORD PTR _temp$[ebp]
  0030e	6a 02		 push	 2
  00310	48		 dec	 eax
  00311	48		 dec	 eax
  00312	50		 push	 eax
  00313	8d 8d e4 ef ff
	ff		 lea	 ecx, DWORD PTR _temp$[ebp]
  00319	e8 00 00 00 00	 call	 ?erase@?$basic_string@DV?$char_traits@D@_STL@@V?$allocator@D@2@@_STL@@QAEAAV12@II@Z ; _STL::basic_string<char,_STL::char_traits<char>,_STL::allocator<char> >::erase

; 160  : 			message.m_strEvent  = temp.c_str();

  0031e	ff b5 e4 ef ff
	ff		 push	 DWORD PTR _temp$[ebp]
  00324	8d 8d d4 ee ff
	ff		 lea	 ecx, DWORD PTR _message$[ebp+20]
  0032a	e8 00 00 00 00	 call	 ??4MString@@QAEXPBD@Z	; MString::operator=

; 161  : 			isEvent = NULL;
; 162  : 			temp = "";

  0032f	53		 push	 ebx
  00330	8d 8d e4 ef ff
	ff		 lea	 ecx, DWORD PTR _temp$[ebp]
  00336	e8 00 00 00 00	 call	 ??4?$basic_string@DV?$char_traits@D@_STL@@V?$allocator@D@2@@_STL@@QAEAAV01@PBD@Z ; _STL::basic_string<char,_STL::char_traits<char>,_STL::allocator<char> >::operator=
$L101939:

; 163  : 		}
; 164  : 		if(isTitle) //  

  0033b	39 bd d0 ef ff
	ff		 cmp	 DWORD PTR _isTitle$[ebp], edi

; 165  : 		{
; 166  : 			message.m_strTitle[current_race]  = temp.c_str();

  00341	8b bd dc ef ff
	ff		 mov	 edi, DWORD PTR _current_race$[ebp]
  00347	74 21		 je	 SHORT $L101940
  00349	ff b5 e4 ef ff
	ff		 push	 DWORD PTR _temp$[ebp]
  0034f	8d 0c 7f	 lea	 ecx, DWORD PTR [edi+edi*2]
  00352	8d 8c 8d e0 ee
	ff ff		 lea	 ecx, DWORD PTR _message$[ebp+ecx*4+32]
  00359	e8 00 00 00 00	 call	 ??4MString@@QAEXPBD@Z	; MString::operator=

; 167  : 			isTitle = NULL; 
; 168  : 			temp = "";

  0035e	53		 push	 ebx
  0035f	8d 8d e4 ef ff
	ff		 lea	 ecx, DWORD PTR _temp$[ebp]
  00365	e8 00 00 00 00	 call	 ??4?$basic_string@DV?$char_traits@D@_STL@@V?$allocator@D@2@@_STL@@QAEAAV01@PBD@Z ; _STL::basic_string<char,_STL::char_traits<char>,_STL::allocator<char> >::operator=
$L101940:

; 169  : 		}
; 170  : 		if(isSender) //   

  0036a	83 bd c0 ef ff
	ff 00		 cmp	 DWORD PTR _isSender$[ebp], 0
  00371	74 14		 je	 SHORT $L101941

; 171  : 		{
; 172  : 			message.m_iSender[current_race]  = atoi(sztemp);	

  00373	8d 85 f0 f7 ff
	ff		 lea	 eax, DWORD PTR _sztemp$[ebp]
  00379	50		 push	 eax
  0037a	e8 00 00 00 00	 call	 _atoi
  0037f	59		 pop	 ecx
  00380	89 84 bd 4c ef
	ff ff		 mov	 DWORD PTR _message$[ebp+edi*4+140], eax
$L101941:

; 173  : 			isSender = NULL;
; 174  : 		}	
; 175  : 		if(isLevel) // 

  00387	83 bd b8 ef ff
	ff 00		 cmp	 DWORD PTR _isLevel$[ebp], 0
  0038e	0f 84 c7 00 00
	00		 je	 $L101942

; 176  : 		{
; 177  : 			char levline[dSTRING_LEN];
; 178  : 			memset(levline,0,dSTRING_LEN);

  00394	56		 push	 esi
  00395	8d 85 f0 ef ff
	ff		 lea	 eax, DWORD PTR _levline$101943[ebp]
  0039b	6a 00		 push	 0
  0039d	50		 push	 eax
  0039e	e8 00 00 00 00	 call	 _memset

; 179  : 			memcpy(levline, temp.c_str(), temp.length());

  003a3	8b 85 e8 ef ff
	ff		 mov	 eax, DWORD PTR _temp$[ebp+4]
  003a9	2b 85 e4 ef ff
	ff		 sub	 eax, DWORD PTR _temp$[ebp]
  003af	50		 push	 eax
  003b0	ff b5 e4 ef ff
	ff		 push	 DWORD PTR _temp$[ebp]
  003b6	8d 85 f0 ef ff
	ff		 lea	 eax, DWORD PTR _levline$101943[ebp]
  003bc	50		 push	 eax
  003bd	e8 00 00 00 00	 call	 _memcpy

; 180  : 			token = strtok(levline, seps);							// 

  003c2	8d 85 d8 ef ff
	ff		 lea	 eax, DWORD PTR _seps$[ebp]
  003c8	50		 push	 eax
  003c9	8d 85 f0 ef ff
	ff		 lea	 eax, DWORD PTR _levline$101943[ebp]
  003cf	50		 push	 eax
  003d0	e8 00 00 00 00	 call	 _strtok
  003d5	83 c4 20	 add	 esp, 32			; 00000020H

; 181  : 			int cnt = 0;
; 182  : 			while(token!=NULL)

  003d8	85 c0		 test	 eax, eax
  003da	74 2c		 je	 SHORT $L101947

; 176  : 		{
; 177  : 			char levline[dSTRING_LEN];
; 178  : 			memset(levline,0,dSTRING_LEN);

  003dc	8d bd 7c ef ff
	ff		 lea	 edi, DWORD PTR _levtemp$[ebp]
$L101946:

; 183  : 			{
; 184  : 				levtemp[cnt++]=atoi(token);

  003e2	50		 push	 eax
  003e3	e8 00 00 00 00	 call	 _atoi
  003e8	89 07		 mov	 DWORD PTR [edi], eax

; 185  : 				token = strtok( NULL, seps );

  003ea	8d 85 d8 ef ff
	ff		 lea	 eax, DWORD PTR _seps$[ebp]
  003f0	50		 push	 eax
  003f1	6a 00		 push	 0
  003f3	83 c7 04	 add	 edi, 4
  003f6	e8 00 00 00 00	 call	 _strtok
  003fb	83 c4 0c	 add	 esp, 12			; 0000000cH
  003fe	85 c0		 test	 eax, eax
  00400	75 e0		 jne	 SHORT $L101946

; 181  : 			int cnt = 0;
; 182  : 			while(token!=NULL)

  00402	8b bd dc ef ff
	ff		 mov	 edi, DWORD PTR _current_race$[ebp]
$L101947:

; 186  : 			}
; 187  : 			message.m_iLevelLow[current_race] = levtemp[0];

  00408	8b 8d 7c ef ff
	ff		 mov	 ecx, DWORD PTR _levtemp$[ebp]
  0040e	8b c7		 mov	 eax, edi
  00410	c1 e0 02	 shl	 eax, 2
  00413	89 8c 05 10 ef
	ff ff		 mov	 DWORD PTR _message$[ebp+eax+80], ecx

; 188  : 			message.m_iLevelMax[current_race] = levtemp[1];

  0041a	8b 8d 80 ef ff
	ff		 mov	 ecx, DWORD PTR _levtemp$[ebp+4]
  00420	89 8c 05 04 ef
	ff ff		 mov	 DWORD PTR _message$[ebp+eax+68], ecx

; 189  : 			message.m_iDomainLow[current_race]= levtemp[2];

  00427	8b 8d 84 ef ff
	ff		 mov	 ecx, DWORD PTR _levtemp$[ebp+8]
  0042d	89 8c 05 28 ef
	ff ff		 mov	 DWORD PTR _message$[ebp+eax+104], ecx

; 190  : 			message.m_iDomainMax[current_race]= levtemp[3];

  00434	8b 8d 88 ef ff
	ff		 mov	 ecx, DWORD PTR _levtemp$[ebp+12]
  0043a	89 8c 05 1c ef
	ff ff		 mov	 DWORD PTR _message$[ebp+eax+92], ecx

; 191  : 			message.m_iAttrLow[current_race]=   levtemp[4];

  00441	8b 8d 8c ef ff
	ff		 mov	 ecx, DWORD PTR _levtemp$[ebp+16]
  00447	89 8c 05 40 ef
	ff ff		 mov	 DWORD PTR _message$[ebp+eax+128], ecx

; 192  : 			message.m_iAttrMax[current_race]=   levtemp[5];

  0044e	8b 8d 90 ef ff
	ff		 mov	 ecx, DWORD PTR _levtemp$[ebp+20]
  00454	89 8c 05 34 ef
	ff ff		 mov	 DWORD PTR _message$[ebp+eax+116], ecx
$L101942:

; 193  :             isLevel = NULL;
; 194  : 		}
; 195  : 		isDetailEnd = strstr(temp.c_str(), "{End}"); 

  0045b	68 00 00 00 00	 push	 OFFSET FLAT:??_C@_05LBHNJABA@?$HLEnd?$HN?$AA@
  00460	ff b5 e4 ef ff
	ff		 push	 DWORD PTR _temp$[ebp]
  00466	e8 00 00 00 00	 call	 _strstr

; 196  : 
; 197  : 		if(isDetail)

  0046b	83 bd d4 ef ff
	ff 00		 cmp	 DWORD PTR _isDetail$[ebp], 0
  00472	59		 pop	 ecx
  00473	59		 pop	 ecx
  00474	74 6d		 je	 SHORT $L109445

; 198  : 		{
; 199  : 			detail_flag = true;
; 200  : 			if(isDetailEnd) //   

  00476	85 c0		 test	 eax, eax
  00478	c6 45 0b 01	 mov	 BYTE PTR _detail_flag$[ebp], 1
  0047c	74 54		 je	 SHORT $L101950

; 201  : 			{
; 202  : 				if(temp2.length() > 0)

  0047e	8b 85 c8 ef ff
	ff		 mov	 eax, DWORD PTR _temp2$[ebp+4]
  00484	2b 85 c4 ef ff
	ff		 sub	 eax, DWORD PTR _temp2$[ebp]
  0048a	74 11		 je	 SHORT $L101951

; 203  : 					temp2.erase(temp2.length()-2 ,2);

  0048c	6a 02		 push	 2
  0048e	83 c0 fe	 add	 eax, -2			; fffffffeH
  00491	50		 push	 eax
  00492	8d 8d c4 ef ff
	ff		 lea	 ecx, DWORD PTR _temp2$[ebp]
  00498	e8 00 00 00 00	 call	 ?erase@?$basic_string@DV?$char_traits@D@_STL@@V?$allocator@D@2@@_STL@@QAEAAV12@II@Z ; _STL::basic_string<char,_STL::char_traits<char>,_STL::allocator<char> >::erase
$L101951:

; 204  : 					message.m_strDetail[current_race] = temp2.c_str();

  0049d	ff b5 c4 ef ff
	ff		 push	 DWORD PTR _temp2$[ebp]
  004a3	8d 0c 7f	 lea	 ecx, DWORD PTR [edi+edi*2]
  004a6	8d 8c 8d 58 ef
	ff ff		 lea	 ecx, DWORD PTR _message$[ebp+ecx*4+152]
  004ad	e8 00 00 00 00	 call	 ??4MString@@QAEXPBD@Z	; MString::operator=

; 205  : 				isDetail = NULL;

  004b2	83 a5 d4 ef ff
	ff 00		 and	 DWORD PTR _isDetail$[ebp], 0

; 206  : 				temp2 = "";

  004b9	53		 push	 ebx
  004ba	8d 8d c4 ef ff
	ff		 lea	 ecx, DWORD PTR _temp2$[ebp]
  004c0	e8 00 00 00 00	 call	 ??4?$basic_string@DV?$char_traits@D@_STL@@V?$allocator@D@2@@_STL@@QAEAAV01@PBD@Z ; _STL::basic_string<char,_STL::char_traits<char>,_STL::allocator<char> >::operator=

; 207  : 				current_race++;

  004c5	47		 inc	 edi
  004c6	89 bd dc ef ff
	ff		 mov	 DWORD PTR _current_race$[ebp], edi

; 208  : 				isDetailEnd = NULL;
; 209  : 				detail_flag = false;

  004cc	c6 45 0b 00	 mov	 BYTE PTR _detail_flag$[ebp], 0

; 210  : 			}
; 211  : 			else //    End    detail  

  004d0	eb 11		 jmp	 SHORT $L109445
$L101950:

; 212  : 			{
; 213  : 				temp2 += temp.c_str();

  004d2	ff b5 e4 ef ff
	ff		 push	 DWORD PTR _temp$[ebp]
  004d8	8d 8d c4 ef ff
	ff		 lea	 ecx, DWORD PTR _temp2$[ebp]
  004de	e8 00 00 00 00	 call	 ?append@?$basic_string@DV?$char_traits@D@_STL@@V?$allocator@D@2@@_STL@@QAEAAV12@PBD@Z ; _STL::basic_string<char,_STL::char_traits<char>,_STL::allocator<char> >::append
$L109445:

; 214  : 			}
; 215  : 		}
; 216  : 
; 217  : 		iskeyword = strstr(temp.c_str(),"[===KeyWord===]");					

  004e3	68 00 00 00 00	 push	 OFFSET FLAT:??_C@_0BA@IAEKBLB@?$FL?$DN?$DN?$DNKeyWord?$DN?$DN?$DN?$FN?$AA@
  004e8	ff b5 e4 ef ff
	ff		 push	 DWORD PTR _temp$[ebp]
  004ee	e8 00 00 00 00	 call	 _strstr

; 218  : 		isMessagetype = strstr(temp.c_str(),"[===MessageType===]");

  004f3	68 00 00 00 00	 push	 OFFSET FLAT:??_C@_0BE@NEEEHCCL@?$FL?$DN?$DN?$DNMessageType?$DN?$DN?$DN?$FN?$AA@
  004f8	ff b5 e4 ef ff
	ff		 push	 DWORD PTR _temp$[ebp]
  004fe	89 85 b4 ef ff
	ff		 mov	 DWORD PTR _iskeyword$[ebp], eax
  00504	e8 00 00 00 00	 call	 _strstr

; 219  : 		isEvent   = strstr(temp.c_str(),"[===Event===]");

  00509	68 00 00 00 00	 push	 OFFSET FLAT:??_C@_0O@DPBHGDHC@?$FL?$DN?$DN?$DNEvent?$DN?$DN?$DN?$FN?$AA@
  0050e	ff b5 e4 ef ff
	ff		 push	 DWORD PTR _temp$[ebp]
  00514	89 85 b0 ef ff
	ff		 mov	 DWORD PTR _isMessagetype$[ebp], eax
  0051a	e8 00 00 00 00	 call	 _strstr

; 220  : 		isTitle  = strstr(temp.c_str(),"[==Title==]");

  0051f	68 00 00 00 00	 push	 OFFSET FLAT:??_C@_0M@EAAONFGJ@?$FL?$DN?$DNTitle?$DN?$DN?$FN?$AA@
  00524	ff b5 e4 ef ff
	ff		 push	 DWORD PTR _temp$[ebp]
  0052a	89 85 bc ef ff
	ff		 mov	 DWORD PTR _isEvent$[ebp], eax
  00530	e8 00 00 00 00	 call	 _strstr

; 221  : 		isSender = strstr(temp.c_str(),"[==Sender==]");

  00535	68 00 00 00 00	 push	 OFFSET FLAT:??_C@_0N@HDDDHLGB@?$FL?$DN?$DNSender?$DN?$DN?$FN?$AA@
  0053a	ff b5 e4 ef ff
	ff		 push	 DWORD PTR _temp$[ebp]
  00540	89 85 d0 ef ff
	ff		 mov	 DWORD PTR _isTitle$[ebp], eax
  00546	e8 00 00 00 00	 call	 _strstr

; 222  : 		isLevel  = strstr(temp.c_str(),"[==Level ==]");

  0054b	68 00 00 00 00	 push	 OFFSET FLAT:??_C@_0BD@MOJKFIBE@?$FL?$DN?$DNLevel?5?A?$LG?$LA?G?G?$KF?$DN?$DN?$FN?$AA@
  00550	ff b5 e4 ef ff
	ff		 push	 DWORD PTR _temp$[ebp]
  00556	89 85 c0 ef ff
	ff		 mov	 DWORD PTR _isSender$[ebp], eax
  0055c	e8 00 00 00 00	 call	 _strstr
  00561	83 c4 30	 add	 esp, 48			; 00000030H

; 223  : 		if(detail_flag == false) 

  00564	80 7d 0b 00	 cmp	 BYTE PTR _detail_flag$[ebp], 0
  00568	89 85 b8 ef ff
	ff		 mov	 DWORD PTR _isLevel$[ebp], eax
  0056e	75 18		 jne	 SHORT $L101959

; 224  : 		{
; 225  : 			isDetail = strstr(temp.c_str(),"[==Detail==]");

  00570	68 00 00 00 00	 push	 OFFSET FLAT:??_C@_0N@KBBAAKCM@?$FL?$DN?$DNDetail?$DN?$DN?$FN?$AA@
  00575	ff b5 e4 ef ff
	ff		 push	 DWORD PTR _temp$[ebp]
  0057b	e8 00 00 00 00	 call	 _strstr
  00580	59		 pop	 ecx
  00581	59		 pop	 ecx
  00582	89 85 d4 ef ff
	ff		 mov	 DWORD PTR _isDetail$[ebp], eax
$L101959:

; 226  : 		}
; 227  : 		temp = "";

  00588	53		 push	 ebx
  00589	8d 8d e4 ef ff
	ff		 lea	 ecx, DWORD PTR _temp$[ebp]
  0058f	e8 00 00 00 00	 call	 ??4?$basic_string@DV?$char_traits@D@_STL@@V?$allocator@D@2@@_STL@@QAEAAV01@PBD@Z ; _STL::basic_string<char,_STL::char_traits<char>,_STL::allocator<char> >::operator=

; 228  : 		if(current_race == 3)

  00594	83 ff 03	 cmp	 edi, 3
  00597	75 1c		 jne	 SHORT $L109597

; 229  : 		{
; 230  : //			MHelpMessageManager::Instance().addMessage(message);
; 231  : 			addMessage(message);

  00599	8b 8d e0 ef ff
	ff		 mov	 ecx, DWORD PTR _this$[ebp]
  0059f	8d 85 c0 ee ff
	ff		 lea	 eax, DWORD PTR _message$[ebp]
  005a5	50		 push	 eax
  005a6	83 c1 04	 add	 ecx, 4
  005a9	e8 00 00 00 00	 call	 ?push_back@?$vector@VMHelpMessage@@V?$allocator@VMHelpMessage@@@_STL@@@_STL@@QAEXABVMHelpMessage@@@Z ; _STL::vector<MHelpMessage,_STL::allocator<MHelpMessage> >::push_back

; 232  : 			current_race = 0;

  005ae	83 a5 dc ef ff
	ff 00		 and	 DWORD PTR _current_race$[ebp], 0
$L109597:
  005b5	8b bd e0 ef ff
	ff		 mov	 edi, DWORD PTR _this$[ebp]
  005bb	56		 push	 esi
  005bc	8d 85 f0 f7 ff
	ff		 lea	 eax, DWORD PTR _sztemp$[ebp]
  005c2	83 c7 24	 add	 edi, 36			; 00000024H
  005c5	50		 push	 eax
  005c6	8b cf		 mov	 ecx, edi
  005c8	e8 00 00 00 00	 call	 ?GetString@CRarFile@@QAE_NPADH@Z ; CRarFile::GetString
  005cd	84 c0		 test	 al, al
  005cf	0f 85 21 fc ff
	ff		 jne	 $L109594
$L101912:

; 233  : 		}
; 234  : 	}
; 235  : 
; 236  : 	m_pack_file.Release();

  005d5	8b cf		 mov	 ecx, edi
  005d7	e8 00 00 00 00	 call	 ?Release@CRarFile@@QAEXXZ ; CRarFile::Release

; 237  : 	return true;

  005dc	8b 85 ac ef ff
	ff		 mov	 eax, DWORD PTR _tempend$[ebp+8]
  005e2	2b 85 a4 ef ff
	ff		 sub	 eax, DWORD PTR _tempend$[ebp]
  005e8	8d 8d ac ef ff
	ff		 lea	 ecx, DWORD PTR _tempend$[ebp+8]
  005ee	50		 push	 eax
  005ef	ff b5 a4 ef ff
	ff		 push	 DWORD PTR _tempend$[ebp]
  005f5	c6 45 fc 03	 mov	 BYTE PTR __$EHRec$[ebp+8], 3
  005f9	e8 00 00 00 00	 call	 ?deallocate@?$allocator@D@_STL@@QAEXPADI@Z ; _STL::allocator<char>::deallocate
  005fe	8b 85 cc ef ff
	ff		 mov	 eax, DWORD PTR _temp2$[ebp+8]
  00604	2b 85 c4 ef ff
	ff		 sub	 eax, DWORD PTR _temp2$[ebp]
  0060a	8d 8d cc ef ff
	ff		 lea	 ecx, DWORD PTR _temp2$[ebp+8]
  00610	50		 push	 eax
  00611	ff b5 c4 ef ff
	ff		 push	 DWORD PTR _temp2$[ebp]
  00617	c6 45 fc 02	 mov	 BYTE PTR __$EHRec$[ebp+8], 2
  0061b	e8 00 00 00 00	 call	 ?deallocate@?$allocator@D@_STL@@QAEXPADI@Z ; _STL::allocator<char>::deallocate
  00620	8b 85 ec ef ff
	ff		 mov	 eax, DWORD PTR _temp$[ebp+8]
  00626	2b 85 e4 ef ff
	ff		 sub	 eax, DWORD PTR _temp$[ebp]
  0062c	8d 8d ec ef ff
	ff		 lea	 ecx, DWORD PTR _temp$[ebp+8]
  00632	50		 push	 eax
  00633	ff b5 e4 ef ff
	ff		 push	 DWORD PTR _temp$[ebp]
  00639	c6 45 fc 01	 mov	 BYTE PTR __$EHRec$[ebp+8], 1
  0063d	e8 00 00 00 00	 call	 ?deallocate@?$allocator@D@_STL@@QAEXPADI@Z ; _STL::allocator<char>::deallocate
  00642	8d 8d 98 ef ff
	ff		 lea	 ecx, DWORD PTR _m_sender$[ebp]
  00648	c6 45 fc 00	 mov	 BYTE PTR __$EHRec$[ebp+8], 0
  0064c	e8 00 00 00 00	 call	 ??1MString@@UAE@XZ	; MString::~MString
  00651	83 4d fc ff	 or	 DWORD PTR __$EHRec$[ebp+8], -1
  00655	8d 8d c0 ee ff
	ff		 lea	 ecx, DWORD PTR _message$[ebp]
  0065b	e8 00 00 00 00	 call	 ??1MHelpMessage@@UAE@XZ	; MHelpMessage::~MHelpMessage
  00660	5f		 pop	 edi
  00661	b0 01		 mov	 al, 1
  00663	5e		 pop	 esi
$L101802:

; 238  : }

  00664	8b 4d f4	 mov	 ecx, DWORD PTR __$EHRec$[ebp]
  00667	64 89 0d 00 00
	00 00		 mov	 DWORD PTR fs:__except_list, ecx
  0066e	8b 4d f0	 mov	 ecx, DWORD PTR __$ArrayPad$[ebp]
  00671	5b		 pop	 ebx
  00672	e8 00 00 00 00	 call	 @__security_check_cookie@4
  00677	c9		 leave
  00678	c2 04 00	 ret	 4
_TEXT	ENDS
;	COMDAT text$x
text$x	SEGMENT
$L109229:
  00000	8d 8d c0 ee ff
	ff		 lea	 ecx, DWORD PTR _message$[ebp]
  00006	e9 00 00 00 00	 jmp	 ??1MHelpMessage@@UAE@XZ	; MHelpMessage::~MHelpMessage
$L109230:
  0000b	8d 8d 98 ef ff
	ff		 lea	 ecx, DWORD PTR _m_sender$[ebp]
  00011	e9 00 00 00 00	 jmp	 ??1MString@@UAE@XZ	; MString::~MString
$L109231:
  00016	8d 8d e4 ef ff
	ff		 lea	 ecx, DWORD PTR _temp$[ebp]
  0001c	e9 00 00 00 00	 jmp	 ??1?$basic_string@DV?$char_traits@D@_STL@@V?$allocator@D@2@@_STL@@QAE@XZ ; _STL::basic_string<char,_STL::char_traits<char>,_STL::allocator<char> >::~basic_string<char,_STL::char_traits<char>,_STL::allocator<char> >
$L109232:
  00021	8d 8d c4 ef ff
	ff		 lea	 ecx, DWORD PTR _temp2$[ebp]
  00027	e9 00 00 00 00	 jmp	 ??1?$basic_string@DV?$char_traits@D@_STL@@V?$allocator@D@2@@_STL@@QAE@XZ ; _STL::basic_string<char,_STL::char_traits<char>,_STL::allocator<char> >::~basic_string<char,_STL::char_traits<char>,_STL::allocator<char> >
$L109233:
  0002c	8d 8d a4 ef ff
	ff		 lea	 ecx, DWORD PTR _tempend$[ebp]
  00032	e9 00 00 00 00	 jmp	 ??1?$basic_string@DV?$char_traits@D@_STL@@V?$allocator@D@2@@_STL@@QAE@XZ ; _STL::basic_string<char,_STL::char_traits<char>,_STL::allocator<char> >::~basic_string<char,_STL::char_traits<char>,_STL::allocator<char> >
__ehhandler$?LoadHelpMessageRpk@MHelpMessageManager@@QAE_NPBD@Z:
  00037	b8 00 00 00 00	 mov	 eax, OFFSET FLAT:$T109584
  0003c	e9 00 00 00 00	 jmp	 ___CxxFrameHandler
text$x	ENDS
?LoadHelpMessageRpk@MHelpMessageManager@@QAE_NPBD@Z ENDP ; MHelpMessageManager::LoadHelpMessageRpk
PUBLIC	?LoadFromFile@MHelpMessageManager@@QAEXAAVivfstream@@@Z ; MHelpMessageManager::LoadFromFile
;	COMDAT xdata$x
; File c:\stlport-4.6.1\stlport\stl\_alloc.h
xdata$x	SEGMENT
$T110008 DD	0ffffffffH
	DD	FLAT:$L109617
	DD	00H
	DD	FLAT:$L109618
	DD	01H
	DD	FLAT:$L109619
	DD	02H
	DD	FLAT:$L109620
	DD	03H
	DD	FLAT:$L109621
$T109985 DD	019930520H
	DD	05H
	DD	FLAT:$T110008
	DD	2 DUP(00H)
	DD	2 DUP(00H)
; Function compile flags: /Ogsy
; File c:\darkeden\designed_common\project\client\mhelpmessagemanager.cpp
xdata$x	ENDS
;	COMDAT ?LoadFromFile@MHelpMessageManager@@QAEXAAVivfstream@@@Z
_TEXT	SEGMENT
_message$ = -2468					; size = 188
_levtemp$ = -2280					; size = 28
_m_sender$ = -2252					; size = 12
_tempend$ = -2240					; size = 12
_isMessagetype$ = -2228					; size = 4
_iskeyword$ = -2224					; size = 4
_isLevel$ = -2220					; size = 4
_isEvent$ = -2216					; size = 4
_isSender$ = -2212					; size = 4
_temp2$ = -2208						; size = 12
_isTitle$ = -2196					; size = 4
_isDetail$ = -2192					; size = 4
_this$ = -2188						; size = 4
_seps$ = -2184						; size = 2
_temp$ = -2180						; size = 12
_detail_flag$ = -2165					; size = 1
_sztemp$ = -2164					; size = 2048
_levline$102034 = -116					; size = 100
__$ArrayPad$ = -16					; size = 4
__$EHRec$ = -12						; size = 12
__$ReturnAddr$ = 4					; size = 4
_current_race$ = 8					; size = 4
_file$ = 8						; size = 4
?LoadFromFile@MHelpMessageManager@@QAEXAAVivfstream@@@Z PROC NEAR ; MHelpMessageManager::LoadFromFile, COMDAT
; _this$ = ecx

; 242  : {

  00000	b8 00 00 00 00	 mov	 eax, __ehhandler$?LoadFromFile@MHelpMessageManager@@QAEXAAVivfstream@@@Z
  00005	e8 00 00 00 00	 call	 __EH_prolog
  0000a	81 ec 98 09 00
	00		 sub	 esp, 2456		; 00000998H
  00010	a1 00 00 00 00	 mov	 eax, DWORD PTR ___security_cookie
  00015	53		 push	 ebx
  00016	56		 push	 esi
  00017	8b f1		 mov	 esi, ecx
  00019	57		 push	 edi

; 243  : 	MHelpMessage message;

  0001a	8d 8d 5c f6 ff
	ff		 lea	 ecx, DWORD PTR _message$[ebp]
  00020	89 45 f0	 mov	 DWORD PTR __$ArrayPad$[ebp], eax
  00023	89 b5 74 f7 ff
	ff		 mov	 DWORD PTR _this$[ebp], esi
  00029	e8 00 00 00 00	 call	 ??0MHelpMessage@@QAE@XZ	; MHelpMessage::MHelpMessage
  0002e	33 db		 xor	 ebx, ebx

; 244  : 	MString		 m_sender;

  00030	8d 8d 34 f7 ff
	ff		 lea	 ecx, DWORD PTR _m_sender$[ebp]
  00036	89 5d fc	 mov	 DWORD PTR __$EHRec$[ebp+8], ebx
  00039	e8 00 00 00 00	 call	 ??0MString@@QAE@XZ	; MString::MString

; 245  : 	char sztemp[dSTRING_LEN];
; 246  : 	std::string temp,temp2,tempend;

  0003e	8d 8d 7c f7 ff
	ff		 lea	 ecx, DWORD PTR _temp$[ebp]
  00044	c6 45 fc 01	 mov	 BYTE PTR __$EHRec$[ebp+8], 1
  00048	e8 00 00 00 00	 call	 ??0?$basic_string@DV?$char_traits@D@_STL@@V?$allocator@D@2@@_STL@@QAE@XZ ; _STL::basic_string<char,_STL::char_traits<char>,_STL::allocator<char> >::basic_string<char,_STL::char_traits<char>,_STL::allocator<char> >
  0004d	8d 8d 60 f7 ff
	ff		 lea	 ecx, DWORD PTR _temp2$[ebp]
  00053	c6 45 fc 02	 mov	 BYTE PTR __$EHRec$[ebp+8], 2
  00057	e8 00 00 00 00	 call	 ??0?$basic_string@DV?$char_traits@D@_STL@@V?$allocator@D@2@@_STL@@QAE@XZ ; _STL::basic_string<char,_STL::char_traits<char>,_STL::allocator<char> >::basic_string<char,_STL::char_traits<char>,_STL::allocator<char> >
  0005c	8d 8d 40 f7 ff
	ff		 lea	 ecx, DWORD PTR _tempend$[ebp]
  00062	c6 45 fc 03	 mov	 BYTE PTR __$EHRec$[ebp+8], 3
  00066	e8 00 00 00 00	 call	 ??0?$basic_string@DV?$char_traits@D@_STL@@V?$allocator@D@2@@_STL@@QAE@XZ ; _STL::basic_string<char,_STL::char_traits<char>,_STL::allocator<char> >::basic_string<char,_STL::char_traits<char>,_STL::allocator<char> >

; 247  : 	char seps[] = " ";
; 248  : 	char *token;
; 249  : 	int  levtemp[7];
; 250  : 	int i;
; 251  : 	bool detail_flag = false;
; 252  : 	char * iskeyword = NULL,* isMessagetype = NULL,* isEvent = NULL ,* isTitle = NULL;
; 253  : 	char * isLevel = NULL,	* isDetail= NULL,   * isDetailEnd= NULL,* isSender = NULL;
; 254  : 
; 255  : 	file.getline(sztemp, dSTRING_LEN);			

  0006b	8b 7d 08	 mov	 edi, DWORD PTR _file$[ebp]
  0006e	39 5f 04	 cmp	 DWORD PTR [edi+4], ebx
  00071	c6 45 fc 04	 mov	 BYTE PTR __$EHRec$[ebp+8], 4
  00075	66 c7 85 78 f7
	ff ff 20 00	 mov	 WORD PTR _seps$[ebp], 32 ; 00000020H
  0007e	88 9d 8b f7 ff
	ff		 mov	 BYTE PTR _detail_flag$[ebp], bl
  00084	89 9d 50 f7 ff
	ff		 mov	 DWORD PTR _iskeyword$[ebp], ebx
  0008a	89 9d 4c f7 ff
	ff		 mov	 DWORD PTR _isMessagetype$[ebp], ebx
  00090	89 9d 58 f7 ff
	ff		 mov	 DWORD PTR _isEvent$[ebp], ebx
  00096	89 9d 6c f7 ff
	ff		 mov	 DWORD PTR _isTitle$[ebp], ebx
  0009c	89 9d 54 f7 ff
	ff		 mov	 DWORD PTR _isLevel$[ebp], ebx
  000a2	89 9d 70 f7 ff
	ff		 mov	 DWORD PTR _isDetail$[ebp], ebx
  000a8	89 9d 5c f7 ff
	ff		 mov	 DWORD PTR _isSender$[ebp], ebx
  000ae	74 16		 je	 SHORT $L109997
  000b0	8b 4f 04	 mov	 ecx, DWORD PTR [edi+4]
  000b3	8b 01		 mov	 eax, DWORD PTR [ecx]
  000b5	6a 0a		 push	 10			; 0000000aH
  000b7	68 00 08 00 00	 push	 2048			; 00000800H
  000bc	8d 95 8c f7 ff
	ff		 lea	 edx, DWORD PTR _sztemp$[ebp]
  000c2	52		 push	 edx
  000c3	ff 50 2c	 call	 DWORD PTR [eax+44]
$L109997:

; 256  : 	m_SenderCnt = atoi(sztemp);

  000c6	8d 85 8c f7 ff
	ff		 lea	 eax, DWORD PTR _sztemp$[ebp]
  000cc	50		 push	 eax
  000cd	e8 00 00 00 00	 call	 _atoi
  000d2	89 46 20	 mov	 DWORD PTR [esi+32], eax

; 257  : 	file.getline(sztemp, dSTRING_LEN);			//   // 

  000d5	39 5f 04	 cmp	 DWORD PTR [edi+4], ebx
  000d8	59		 pop	 ecx
  000d9	74 16		 je	 SHORT $L109628
  000db	8b 4f 04	 mov	 ecx, DWORD PTR [edi+4]
  000de	8b 01		 mov	 eax, DWORD PTR [ecx]
  000e0	6a 0a		 push	 10			; 0000000aH
  000e2	68 00 08 00 00	 push	 2048			; 00000800H
  000e7	8d 95 8c f7 ff
	ff		 lea	 edx, DWORD PTR _sztemp$[ebp]
  000ed	52		 push	 edx
  000ee	ff 50 2c	 call	 DWORD PTR [eax+44]
$L109628:

; 258  : 	for(i = 0; i<m_SenderCnt; i++)		//    

  000f1	8b 85 74 f7 ff
	ff		 mov	 eax, DWORD PTR _this$[ebp]
  000f7	33 f6		 xor	 esi, esi
  000f9	39 58 20	 cmp	 DWORD PTR [eax+32], ebx
  000fc	0f 8e a3 00 00
	00		 jle	 $L101988
  00102	eb 02		 jmp	 SHORT $L101986
$L109995:
  00104	33 db		 xor	 ebx, ebx
$L101986:

; 259  : 	{
; 260  : 		file.getline(sztemp,dSTRING_LEN);		

  00106	39 5f 04	 cmp	 DWORD PTR [edi+4], ebx
  00109	74 16		 je	 SHORT $L109632
  0010b	8b 4f 04	 mov	 ecx, DWORD PTR [edi+4]
  0010e	8b 01		 mov	 eax, DWORD PTR [ecx]
  00110	6a 0a		 push	 10			; 0000000aH
  00112	68 00 08 00 00	 push	 2048			; 00000800H
  00117	8d 95 8c f7 ff
	ff		 lea	 edx, DWORD PTR _sztemp$[ebp]
  0011d	52		 push	 edx
  0011e	ff 50 2c	 call	 DWORD PTR [eax+44]
$L109632:

; 261  : 		temp = sztemp;		

  00121	8d 85 8c f7 ff
	ff		 lea	 eax, DWORD PTR _sztemp$[ebp]
  00127	50		 push	 eax
  00128	8d 8d 7c f7 ff
	ff		 lea	 ecx, DWORD PTR _temp$[ebp]
  0012e	e8 00 00 00 00	 call	 ??4?$basic_string@DV?$char_traits@D@_STL@@V?$allocator@D@2@@_STL@@QAEAAV01@PBD@Z ; _STL::basic_string<char,_STL::char_traits<char>,_STL::allocator<char> >::operator=

; 262  : 		int nCharToDel2 = 0;
; 263  : 		int len2 = temp.length();

  00133	8b 8d 80 f7 ff
	ff		 mov	 ecx, DWORD PTR _temp$[ebp+4]
  00139	8b c1		 mov	 eax, ecx
  0013b	33 d2		 xor	 edx, edx
  0013d	2b 85 7c f7 ff
	ff		 sub	 eax, DWORD PTR _temp$[ebp]
  00143	eb 07		 jmp	 SHORT $L110004

; 264  : 		for (std::string::reverse_iterator itor = temp.rbegin(); itor != temp.rend(); itor++) //    

$L109663:

; 265  : 		{
; 266  : 			char c = *itor;

  00145	49		 dec	 ecx

; 267  : 			if (c=='\r')

  00146	80 39 0d	 cmp	 BYTE PTR [ecx], 13	; 0000000dH
  00149	75 09		 jne	 SHORT $L109996

; 268  : 				nCharToDel2++;

  0014b	42		 inc	 edx
$L110004:

; 264  : 		for (std::string::reverse_iterator itor = temp.rbegin(); itor != temp.rend(); itor++) //    

  0014c	3b 8d 7c f7 ff
	ff		 cmp	 ecx, DWORD PTR _temp$[ebp]
  00152	75 f1		 jne	 SHORT $L109663
$L109996:

; 269  : 			else break;
; 270  : 		}
; 271  : 		temp.erase(len2 - nCharToDel2, len2);

  00154	50		 push	 eax
  00155	2b c2		 sub	 eax, edx
  00157	50		 push	 eax
  00158	8d 8d 7c f7 ff
	ff		 lea	 ecx, DWORD PTR _temp$[ebp]
  0015e	e8 00 00 00 00	 call	 ?erase@?$basic_string@DV?$char_traits@D@_STL@@V?$allocator@D@2@@_STL@@QAEAAV12@II@Z ; _STL::basic_string<char,_STL::char_traits<char>,_STL::allocator<char> >::erase

; 272  : 		m_sender = temp.c_str();

  00163	ff b5 7c f7 ff
	ff		 push	 DWORD PTR _temp$[ebp]
  00169	8d 8d 34 f7 ff
	ff		 lea	 ecx, DWORD PTR _m_sender$[ebp]
  0016f	e8 00 00 00 00	 call	 ??4MString@@QAEXPBD@Z	; MString::operator=

; 273  : //		MHelpMessageManager::Instance().addSender(m_sender);
; 274  : 		addSender(m_sender);

  00174	8b 9d 74 f7 ff
	ff		 mov	 ebx, DWORD PTR _this$[ebp]
  0017a	8d 85 34 f7 ff
	ff		 lea	 eax, DWORD PTR _m_sender$[ebp]
  00180	50		 push	 eax
  00181	8d 4b 10	 lea	 ecx, DWORD PTR [ebx+16]
  00184	e8 00 00 00 00	 call	 ?push_back@?$vector@VMString@@V?$allocator@VMString@@@_STL@@@_STL@@QAEXABVMString@@@Z ; _STL::vector<MString,_STL::allocator<MString> >::push_back

; 275  : 		temp = "";

  00189	68 00 00 00 00	 push	 OFFSET FLAT:??_C@_00CNPNBAHC@?$AA@
  0018e	8d 8d 7c f7 ff
	ff		 lea	 ecx, DWORD PTR _temp$[ebp]
  00194	e8 00 00 00 00	 call	 ??4?$basic_string@DV?$char_traits@D@_STL@@V?$allocator@D@2@@_STL@@QAEAAV01@PBD@Z ; _STL::basic_string<char,_STL::char_traits<char>,_STL::allocator<char> >::operator=
  00199	46		 inc	 esi
  0019a	3b 73 20	 cmp	 esi, DWORD PTR [ebx+32]
  0019d	0f 8c 61 ff ff
	ff		 jl	 $L109995

; 258  : 	for(i = 0; i<m_SenderCnt; i++)		//    

  001a3	33 db		 xor	 ebx, ebx
$L101988:

; 276  : 
; 277  : 	}
; 278  : 	file.getline(sztemp,dSTRING_LEN); 

  001a5	39 5f 04	 cmp	 DWORD PTR [edi+4], ebx
  001a8	74 16		 je	 SHORT $L109998
  001aa	8b 4f 04	 mov	 ecx, DWORD PTR [edi+4]
  001ad	8b 01		 mov	 eax, DWORD PTR [ecx]
  001af	6a 0a		 push	 10			; 0000000aH
  001b1	68 00 08 00 00	 push	 2048			; 00000800H
  001b6	8d 95 8c f7 ff
	ff		 lea	 edx, DWORD PTR _sztemp$[ebp]
  001bc	52		 push	 edx
  001bd	ff 50 2c	 call	 DWORD PTR [eax+44]
$L109998:

; 279  : 
; 280  : //	MHelpMessageManager::Instance().m_KeyCnt = atoi(sztemp);
; 281  : 	m_KeyCnt = atoi(sztemp);

  001c0	8d 85 8c f7 ff
	ff		 lea	 eax, DWORD PTR _sztemp$[ebp]
  001c6	50		 push	 eax
  001c7	e8 00 00 00 00	 call	 _atoi
  001cc	59		 pop	 ecx
  001cd	8b 8d 74 f7 ff
	ff		 mov	 ecx, DWORD PTR _this$[ebp]
  001d3	89 41 1c	 mov	 DWORD PTR [ecx+28], eax
$L110007:

; 282  : 
; 283  : 	int current_race = 0;

  001d6	89 5d 08	 mov	 DWORD PTR _current_race$[ebp], ebx
$L102003:

; 284  : 	while(file.getline(sztemp,dSTRING_LEN))

  001d9	39 5f 04	 cmp	 DWORD PTR [edi+4], ebx
  001dc	74 18		 je	 SHORT $L109711
  001de	8b 4f 04	 mov	 ecx, DWORD PTR [edi+4]
  001e1	8b 01		 mov	 eax, DWORD PTR [ecx]
  001e3	6a 0a		 push	 10			; 0000000aH
  001e5	68 00 08 00 00	 push	 2048			; 00000800H
  001ea	8d 95 8c f7 ff
	ff		 lea	 edx, DWORD PTR _sztemp$[ebp]
  001f0	52		 push	 edx
  001f1	ff 50 2c	 call	 DWORD PTR [eax+44]
  001f4	eb 02		 jmp	 SHORT $L109710
$L109711:
  001f6	33 c0		 xor	 eax, eax
$L109710:
  001f8	3b c3		 cmp	 eax, ebx
  001fa	0f 84 aa 03 00
	00		 je	 $L102004

; 285  : 	{
; 286  : 		temp = sztemp;

  00200	8d 85 8c f7 ff
	ff		 lea	 eax, DWORD PTR _sztemp$[ebp]
  00206	50		 push	 eax
  00207	8d 8d 7c f7 ff
	ff		 lea	 ecx, DWORD PTR _temp$[ebp]
  0020d	e8 00 00 00 00	 call	 ??4?$basic_string@DV?$char_traits@D@_STL@@V?$allocator@D@2@@_STL@@QAEAAV01@PBD@Z ; _STL::basic_string<char,_STL::char_traits<char>,_STL::allocator<char> >::operator=

; 287  : 		char c;
; 288  : 		int nCharToDel = 0;

  00212	33 d2		 xor	 edx, edx

; 289  : 	/*	for (std::string::iterator itr = temp.begin(); itr != temp.end(); itr++) //   
; 290  : 		{
; 291  : 			c = *itr;
; 292  : 			if (c == ' ' || c == '\t')
; 293  : 				nCharToDel++;
; 294  : 			else break;
; 295  : 		}
; 296  : 		temp.erase(0, nCharToDel);			//  */
; 297  : 
; 298  : 		if(isDetail)

  00214	39 9d 70 f7 ff
	ff		 cmp	 DWORD PTR _isDetail$[ebp], ebx
  0021a	75 2b		 jne	 SHORT $L102008

; 299  : 		{
; 300  : 			
; 301  : 		}
; 302  : 		else
; 303  : 		{
; 304  : 			for (std::string::iterator itr = temp.begin(); itr != temp.end(); itr++) //   

  0021c	8b 85 7c f7 ff
	ff		 mov	 eax, DWORD PTR _temp$[ebp]
  00222	eb 0e		 jmp	 SHORT $L110005
$L102010:

; 305  : 			{
; 306  : 				c = *itr;

  00224	8a 08		 mov	 cl, BYTE PTR [eax]

; 307  : 				if (c == ' ' || c == '\t')

  00226	80 f9 20	 cmp	 cl, 32			; 00000020H
  00229	74 05		 je	 SHORT $L102014
  0022b	80 f9 09	 cmp	 cl, 9
  0022e	75 0a		 jne	 SHORT $L102013
$L102014:

; 308  : 					nCharToDel++;

  00230	42		 inc	 edx
  00231	40		 inc	 eax
$L110005:

; 299  : 		{
; 300  : 			
; 301  : 		}
; 302  : 		else
; 303  : 		{
; 304  : 			for (std::string::iterator itr = temp.begin(); itr != temp.end(); itr++) //   

  00232	3b 85 80 f7 ff
	ff		 cmp	 eax, DWORD PTR _temp$[ebp+4]
  00238	75 ea		 jne	 SHORT $L102010
$L102013:

; 309  : 				else break;
; 310  : 			}
; 311  : 			
; 312  : 			temp.erase(0, nCharToDel);			//  

  0023a	52		 push	 edx
  0023b	53		 push	 ebx
  0023c	8d 8d 7c f7 ff
	ff		 lea	 ecx, DWORD PTR _temp$[ebp]
  00242	e8 00 00 00 00	 call	 ?erase@?$basic_string@DV?$char_traits@D@_STL@@V?$allocator@D@2@@_STL@@QAEAAV12@II@Z ; _STL::basic_string<char,_STL::char_traits<char>,_STL::allocator<char> >::erase
$L102008:

; 313  : 		}
; 314  : 
; 315  : 		nCharToDel = 0;
; 316  : 
; 317  : 		int len = temp.length();

  00247	8b 8d 80 f7 ff
	ff		 mov	 ecx, DWORD PTR _temp$[ebp+4]
  0024d	8b 95 7c f7 ff
	ff		 mov	 edx, DWORD PTR _temp$[ebp]
  00253	8b c1		 mov	 eax, ecx
  00255	33 f6		 xor	 esi, esi
  00257	2b c2		 sub	 eax, edx
  00259	eb 07		 jmp	 SHORT $L110006

; 318  : 		for (std::string::reverse_iterator itor = temp.rbegin(); itor != temp.rend(); itor++)

$L109750:

; 319  : 		{
; 320  : 			c = *itor;

  0025b	49		 dec	 ecx

; 321  : 			if (c=='\r')

  0025c	80 39 0d	 cmp	 BYTE PTR [ecx], 13	; 0000000dH
  0025f	75 05		 jne	 SHORT $L102024

; 322  : 				nCharToDel++;

  00261	46		 inc	 esi
$L110006:

; 318  : 		for (std::string::reverse_iterator itor = temp.rbegin(); itor != temp.rend(); itor++)

  00262	3b ca		 cmp	 ecx, edx
  00264	75 f5		 jne	 SHORT $L109750
$L102024:

; 323  : 			else break;
; 324  : 		} 
; 325  : 		//  
; 326  : 		if(isTitle)

  00266	39 9d 6c f7 ff
	ff		 cmp	 DWORD PTR _isTitle$[ebp], ebx
  0026c	74 11		 je	 SHORT $L102026

; 327  : 			temp.erase(len - nCharToDel, len);

  0026e	50		 push	 eax
  0026f	2b c6		 sub	 eax, esi
  00271	50		 push	 eax
  00272	8d 8d 7c f7 ff
	ff		 lea	 ecx, DWORD PTR _temp$[ebp]
  00278	e8 00 00 00 00	 call	 ?erase@?$basic_string@DV?$char_traits@D@_STL@@V?$allocator@D@2@@_STL@@QAEAAV12@II@Z ; _STL::basic_string<char,_STL::char_traits<char>,_STL::allocator<char> >::erase

; 328  : 		else

  0027d	eb 19		 jmp	 SHORT $L102027
$L102026:

; 329  : 			temp.replace( temp.begin()+len-nCharToDel, temp.begin() + len, "\r\n");

  0027f	8d 0c 10	 lea	 ecx, DWORD PTR [eax+edx]
  00282	68 00 00 00 00	 push	 OFFSET FLAT:??_C@_02PCIJFNDE@?$AN?6?$AA@
  00287	2b c6		 sub	 eax, esi
  00289	51		 push	 ecx
  0028a	03 c2		 add	 eax, edx
  0028c	50		 push	 eax
  0028d	8d 8d 7c f7 ff
	ff		 lea	 ecx, DWORD PTR _temp$[ebp]
  00293	e8 00 00 00 00	 call	 ?replace@?$basic_string@DV?$char_traits@D@_STL@@V?$allocator@D@2@@_STL@@QAEAAV12@PAD0PBD@Z ; _STL::basic_string<char,_STL::char_traits<char>,_STL::allocator<char> >::replace
$L102027:

; 330  : 		
; 331  : 		if(iskeyword)		//  

  00298	39 9d 50 f7 ff
	ff		 cmp	 DWORD PTR _iskeyword$[ebp], ebx
  0029e	74 3d		 je	 SHORT $L110000

; 332  : 		{	
; 333  : 			temp.erase(temp.length()-2 ,2);

  002a0	8b 85 80 f7 ff
	ff		 mov	 eax, DWORD PTR _temp$[ebp+4]
  002a6	2b 85 7c f7 ff
	ff		 sub	 eax, DWORD PTR _temp$[ebp]
  002ac	6a 02		 push	 2
  002ae	48		 dec	 eax
  002af	48		 dec	 eax
  002b0	50		 push	 eax
  002b1	8d 8d 7c f7 ff
	ff		 lea	 ecx, DWORD PTR _temp$[ebp]
  002b7	e8 00 00 00 00	 call	 ?erase@?$basic_string@DV?$char_traits@D@_STL@@V?$allocator@D@2@@_STL@@QAEAAV12@II@Z ; _STL::basic_string<char,_STL::char_traits<char>,_STL::allocator<char> >::erase

; 334  : 			message.m_strKeyword  = temp.c_str();

  002bc	ff b5 7c f7 ff
	ff		 push	 DWORD PTR _temp$[ebp]
  002c2	8d 8d 64 f6 ff
	ff		 lea	 ecx, DWORD PTR _message$[ebp+8]
  002c8	e8 00 00 00 00	 call	 ??4MString@@QAEXPBD@Z	; MString::operator=

; 335  : 			iskeyword = NULL;
; 336  : 			temp  = "";

  002cd	68 00 00 00 00	 push	 OFFSET FLAT:??_C@_00CNPNBAHC@?$AA@
  002d2	8d 8d 7c f7 ff
	ff		 lea	 ecx, DWORD PTR _temp$[ebp]
  002d8	e8 00 00 00 00	 call	 ??4?$basic_string@DV?$char_traits@D@_STL@@V?$allocator@D@2@@_STL@@QAEAAV01@PBD@Z ; _STL::basic_string<char,_STL::char_traits<char>,_STL::allocator<char> >::operator=
$L110000:

; 337  : 		}
; 338  : 		if(isMessagetype) //  

  002dd	39 9d 4c f7 ff
	ff		 cmp	 DWORD PTR _isMessagetype$[ebp], ebx
  002e3	74 13		 je	 SHORT $L102029

; 339  : 		{
; 340  : 			message.m_messageType = atoi(sztemp);

  002e5	8d 85 8c f7 ff
	ff		 lea	 eax, DWORD PTR _sztemp$[ebp]
  002eb	50		 push	 eax
  002ec	e8 00 00 00 00	 call	 _atoi
  002f1	59		 pop	 ecx
  002f2	89 85 60 f6 ff
	ff		 mov	 DWORD PTR _message$[ebp+4], eax
$L102029:

; 341  : 			isMessagetype = NULL;
; 342  : 		}
; 343  : 		if(isEvent)  //  

  002f8	39 9d 58 f7 ff
	ff		 cmp	 DWORD PTR _isEvent$[ebp], ebx
  002fe	74 3d		 je	 SHORT $L102030

; 344  : 		{
; 345  : 			temp.erase(temp.length()-2 ,2);

  00300	8b 85 80 f7 ff
	ff		 mov	 eax, DWORD PTR _temp$[ebp+4]
  00306	2b 85 7c f7 ff
	ff		 sub	 eax, DWORD PTR _temp$[ebp]
  0030c	6a 02		 push	 2
  0030e	48		 dec	 eax
  0030f	48		 dec	 eax
  00310	50		 push	 eax
  00311	8d 8d 7c f7 ff
	ff		 lea	 ecx, DWORD PTR _temp$[ebp]
  00317	e8 00 00 00 00	 call	 ?erase@?$basic_string@DV?$char_traits@D@_STL@@V?$allocator@D@2@@_STL@@QAEAAV12@II@Z ; _STL::basic_string<char,_STL::char_traits<char>,_STL::allocator<char> >::erase

; 346  : 			message.m_strEvent  = temp.c_str();

  0031c	ff b5 7c f7 ff
	ff		 push	 DWORD PTR _temp$[ebp]
  00322	8d 8d 70 f6 ff
	ff		 lea	 ecx, DWORD PTR _message$[ebp+20]
  00328	e8 00 00 00 00	 call	 ??4MString@@QAEXPBD@Z	; MString::operator=

; 347  : 			isEvent = NULL;
; 348  : 			temp = "";

  0032d	68 00 00 00 00	 push	 OFFSET FLAT:??_C@_00CNPNBAHC@?$AA@
  00332	8d 8d 7c f7 ff
	ff		 lea	 ecx, DWORD PTR _temp$[ebp]
  00338	e8 00 00 00 00	 call	 ??4?$basic_string@DV?$char_traits@D@_STL@@V?$allocator@D@2@@_STL@@QAEAAV01@PBD@Z ; _STL::basic_string<char,_STL::char_traits<char>,_STL::allocator<char> >::operator=
$L102030:

; 349  : 		}
; 350  : 		if(isTitle) //  	

  0033d	39 9d 6c f7 ff
	ff		 cmp	 DWORD PTR _isTitle$[ebp], ebx

; 351  : 		{
; 352  : 			message.m_strTitle[current_race]  = temp.c_str();

  00343	8b 75 08	 mov	 esi, DWORD PTR _current_race$[ebp]
  00346	74 25		 je	 SHORT $L102031
  00348	ff b5 7c f7 ff
	ff		 push	 DWORD PTR _temp$[ebp]
  0034e	8d 0c 76	 lea	 ecx, DWORD PTR [esi+esi*2]
  00351	8d 8c 8d 7c f6
	ff ff		 lea	 ecx, DWORD PTR _message$[ebp+ecx*4+32]
  00358	e8 00 00 00 00	 call	 ??4MString@@QAEXPBD@Z	; MString::operator=

; 353  : 			isTitle = NULL; 
; 354  : 			temp = "";

  0035d	68 00 00 00 00	 push	 OFFSET FLAT:??_C@_00CNPNBAHC@?$AA@
  00362	8d 8d 7c f7 ff
	ff		 lea	 ecx, DWORD PTR _temp$[ebp]
  00368	e8 00 00 00 00	 call	 ??4?$basic_string@DV?$char_traits@D@_STL@@V?$allocator@D@2@@_STL@@QAEAAV01@PBD@Z ; _STL::basic_string<char,_STL::char_traits<char>,_STL::allocator<char> >::operator=
$L102031:

; 355  : 		}
; 356  : 		if(isSender) //   

  0036d	39 9d 5c f7 ff
	ff		 cmp	 DWORD PTR _isSender$[ebp], ebx
  00373	74 14		 je	 SHORT $L102032

; 357  : 		{
; 358  : 			message.m_iSender[current_race]  = atoi(sztemp);	

  00375	8d 85 8c f7 ff
	ff		 lea	 eax, DWORD PTR _sztemp$[ebp]
  0037b	50		 push	 eax
  0037c	e8 00 00 00 00	 call	 _atoi
  00381	59		 pop	 ecx
  00382	89 84 b5 e8 f6
	ff ff		 mov	 DWORD PTR _message$[ebp+esi*4+140], eax
$L102032:

; 359  : 			isSender = NULL;
; 360  : 		}	
; 361  : 		if(isLevel) // 

  00389	39 9d 54 f7 ff
	ff		 cmp	 DWORD PTR _isLevel$[ebp], ebx
  0038f	0f 84 af 00 00
	00		 je	 $L102033

; 362  : 		{
; 363  : 			char levline[100];
; 364  : 			memset(levline,0,100);

  00395	6a 64		 push	 100			; 00000064H
  00397	8d 45 8c	 lea	 eax, DWORD PTR _levline$102034[ebp]
  0039a	53		 push	 ebx
  0039b	50		 push	 eax
  0039c	e8 00 00 00 00	 call	 _memset

; 365  : 			memcpy(levline, temp.c_str(), 100);

  003a1	6a 64		 push	 100			; 00000064H
  003a3	ff b5 7c f7 ff
	ff		 push	 DWORD PTR _temp$[ebp]
  003a9	8d 45 8c	 lea	 eax, DWORD PTR _levline$102034[ebp]
  003ac	50		 push	 eax
  003ad	e8 00 00 00 00	 call	 _memcpy

; 366  : 			token = strtok(levline, seps);							// 

  003b2	8d 85 78 f7 ff
	ff		 lea	 eax, DWORD PTR _seps$[ebp]
  003b8	50		 push	 eax
  003b9	8d 45 8c	 lea	 eax, DWORD PTR _levline$102034[ebp]
  003bc	50		 push	 eax
  003bd	e8 00 00 00 00	 call	 _strtok
  003c2	83 c4 20	 add	 esp, 32			; 00000020H

; 367  : 			int cnt = 0;
; 368  : 			while(token!=NULL)

  003c5	3b c3		 cmp	 eax, ebx
  003c7	74 28		 je	 SHORT $L102038

; 362  : 		{
; 363  : 			char levline[100];
; 364  : 			memset(levline,0,100);

  003c9	8d b5 18 f7 ff
	ff		 lea	 esi, DWORD PTR _levtemp$[ebp]
$L102037:

; 369  : 			{
; 370  : 				levtemp[cnt++]=atoi(token);

  003cf	50		 push	 eax
  003d0	e8 00 00 00 00	 call	 _atoi
  003d5	89 06		 mov	 DWORD PTR [esi], eax

; 371  : 				token = strtok( NULL, seps );

  003d7	8d 85 78 f7 ff
	ff		 lea	 eax, DWORD PTR _seps$[ebp]
  003dd	50		 push	 eax
  003de	53		 push	 ebx
  003df	83 c6 04	 add	 esi, 4
  003e2	e8 00 00 00 00	 call	 _strtok
  003e7	83 c4 0c	 add	 esp, 12			; 0000000cH
  003ea	3b c3		 cmp	 eax, ebx
  003ec	75 e1		 jne	 SHORT $L102037

; 367  : 			int cnt = 0;
; 368  : 			while(token!=NULL)

  003ee	8b 75 08	 mov	 esi, DWORD PTR _current_race$[ebp]
$L102038:

; 372  : 			}
; 373  : 			message.m_iLevelLow[current_race] = levtemp[0];

  003f1	8b 8d 18 f7 ff
	ff		 mov	 ecx, DWORD PTR _levtemp$[ebp]
  003f7	8b c6		 mov	 eax, esi
  003f9	c1 e0 02	 shl	 eax, 2
  003fc	89 8c 05 ac f6
	ff ff		 mov	 DWORD PTR _message$[ebp+eax+80], ecx

; 374  : 			message.m_iLevelMax[current_race] = levtemp[1];

  00403	8b 8d 1c f7 ff
	ff		 mov	 ecx, DWORD PTR _levtemp$[ebp+4]
  00409	89 8c 05 a0 f6
	ff ff		 mov	 DWORD PTR _message$[ebp+eax+68], ecx

; 375  : 			message.m_iDomainLow[current_race]= levtemp[2];

  00410	8b 8d 20 f7 ff
	ff		 mov	 ecx, DWORD PTR _levtemp$[ebp+8]
  00416	89 8c 05 c4 f6
	ff ff		 mov	 DWORD PTR _message$[ebp+eax+104], ecx

; 376  : 			message.m_iDomainMax[current_race]= levtemp[3];

  0041d	8b 8d 24 f7 ff
	ff		 mov	 ecx, DWORD PTR _levtemp$[ebp+12]
  00423	89 8c 05 b8 f6
	ff ff		 mov	 DWORD PTR _message$[ebp+eax+92], ecx

; 377  : 			message.m_iAttrLow[current_race]=   levtemp[4];

  0042a	8b 8d 28 f7 ff
	ff		 mov	 ecx, DWORD PTR _levtemp$[ebp+16]
  00430	89 8c 05 dc f6
	ff ff		 mov	 DWORD PTR _message$[ebp+eax+128], ecx

; 378  : 			message.m_iAttrMax[current_race]=   levtemp[5];

  00437	8b 8d 2c f7 ff
	ff		 mov	 ecx, DWORD PTR _levtemp$[ebp+20]
  0043d	89 8c 05 d0 f6
	ff ff		 mov	 DWORD PTR _message$[ebp+eax+116], ecx
$L102033:

; 379  :             isLevel = NULL;
; 380  : 		}
; 381  : 		isDetailEnd = strstr(temp.c_str(), "{End}"); 

  00444	68 00 00 00 00	 push	 OFFSET FLAT:??_C@_05LBHNJABA@?$HLEnd?$HN?$AA@
  00449	ff b5 7c f7 ff
	ff		 push	 DWORD PTR _temp$[ebp]
  0044f	e8 00 00 00 00	 call	 _strstr

; 382  : 
; 383  : 		if(isDetail)

  00454	39 9d 70 f7 ff
	ff		 cmp	 DWORD PTR _isDetail$[ebp], ebx
  0045a	59		 pop	 ecx
  0045b	59		 pop	 ecx
  0045c	74 72		 je	 SHORT $L109847

; 384  : 		{
; 385  : 			detail_flag = true;
; 386  : 			if(isDetailEnd) //   

  0045e	3b c3		 cmp	 eax, ebx
  00460	c6 85 8b f7 ff
	ff 01		 mov	 BYTE PTR _detail_flag$[ebp], 1
  00467	74 56		 je	 SHORT $L102040

; 387  : 			{
; 388  : 				if(temp2.length() > 0)

  00469	8b 85 64 f7 ff
	ff		 mov	 eax, DWORD PTR _temp2$[ebp+4]
  0046f	2b 85 60 f7 ff
	ff		 sub	 eax, DWORD PTR _temp2$[ebp]
  00475	74 11		 je	 SHORT $L102041

; 389  : 					temp2.erase(temp2.length()-2 ,2);

  00477	6a 02		 push	 2
  00479	83 c0 fe	 add	 eax, -2			; fffffffeH
  0047c	50		 push	 eax
  0047d	8d 8d 60 f7 ff
	ff		 lea	 ecx, DWORD PTR _temp2$[ebp]
  00483	e8 00 00 00 00	 call	 ?erase@?$basic_string@DV?$char_traits@D@_STL@@V?$allocator@D@2@@_STL@@QAEAAV12@II@Z ; _STL::basic_string<char,_STL::char_traits<char>,_STL::allocator<char> >::erase
$L102041:

; 390  : 					message.m_strDetail[current_race] = temp2.c_str();

  00488	ff b5 60 f7 ff
	ff		 push	 DWORD PTR _temp2$[ebp]
  0048e	8d 0c 76	 lea	 ecx, DWORD PTR [esi+esi*2]
  00491	8d 8c 8d f4 f6
	ff ff		 lea	 ecx, DWORD PTR _message$[ebp+ecx*4+152]
  00498	e8 00 00 00 00	 call	 ??4MString@@QAEXPBD@Z	; MString::operator=

; 391  : 				isDetail = NULL;
; 392  : 				temp2 = "";

  0049d	68 00 00 00 00	 push	 OFFSET FLAT:??_C@_00CNPNBAHC@?$AA@
  004a2	8d 8d 60 f7 ff
	ff		 lea	 ecx, DWORD PTR _temp2$[ebp]
  004a8	89 9d 70 f7 ff
	ff		 mov	 DWORD PTR _isDetail$[ebp], ebx
  004ae	e8 00 00 00 00	 call	 ??4?$basic_string@DV?$char_traits@D@_STL@@V?$allocator@D@2@@_STL@@QAEAAV01@PBD@Z ; _STL::basic_string<char,_STL::char_traits<char>,_STL::allocator<char> >::operator=

; 393  : 				current_race++;

  004b3	46		 inc	 esi
  004b4	89 75 08	 mov	 DWORD PTR _current_race$[ebp], esi

; 394  : 				isDetailEnd = NULL;
; 395  : 				detail_flag = false;

  004b7	88 9d 8b f7 ff
	ff		 mov	 BYTE PTR _detail_flag$[ebp], bl

; 396  : 			}
; 397  : 			else //    End    detail  

  004bd	eb 11		 jmp	 SHORT $L109847
$L102040:

; 398  : 			{
; 399  : 				temp2 += temp.c_str();

  004bf	ff b5 7c f7 ff
	ff		 push	 DWORD PTR _temp$[ebp]
  004c5	8d 8d 60 f7 ff
	ff		 lea	 ecx, DWORD PTR _temp2$[ebp]
  004cb	e8 00 00 00 00	 call	 ?append@?$basic_string@DV?$char_traits@D@_STL@@V?$allocator@D@2@@_STL@@QAEAAV12@PBD@Z ; _STL::basic_string<char,_STL::char_traits<char>,_STL::allocator<char> >::append
$L109847:

; 400  : 			}
; 401  : 		}
; 402  : 
; 403  : 		iskeyword = strstr(temp.c_str(),"[===KeyWord===]");					

  004d0	68 00 00 00 00	 push	 OFFSET FLAT:??_C@_0BA@IAEKBLB@?$FL?$DN?$DN?$DNKeyWord?$DN?$DN?$DN?$FN?$AA@
  004d5	ff b5 7c f7 ff
	ff		 push	 DWORD PTR _temp$[ebp]
  004db	e8 00 00 00 00	 call	 _strstr

; 404  : 		isMessagetype = strstr(temp.c_str(),"[===MessageType===]");

  004e0	68 00 00 00 00	 push	 OFFSET FLAT:??_C@_0BE@NEEEHCCL@?$FL?$DN?$DN?$DNMessageType?$DN?$DN?$DN?$FN?$AA@
  004e5	ff b5 7c f7 ff
	ff		 push	 DWORD PTR _temp$[ebp]
  004eb	89 85 50 f7 ff
	ff		 mov	 DWORD PTR _iskeyword$[ebp], eax
  004f1	e8 00 00 00 00	 call	 _strstr

; 405  : 		isEvent   = strstr(temp.c_str(),"[===Event===]");

  004f6	68 00 00 00 00	 push	 OFFSET FLAT:??_C@_0O@DPBHGDHC@?$FL?$DN?$DN?$DNEvent?$DN?$DN?$DN?$FN?$AA@
  004fb	ff b5 7c f7 ff
	ff		 push	 DWORD PTR _temp$[ebp]
  00501	89 85 4c f7 ff
	ff		 mov	 DWORD PTR _isMessagetype$[ebp], eax
  00507	e8 00 00 00 00	 call	 _strstr

; 406  : 		isTitle  = strstr(temp.c_str(),"[==Title==]");

  0050c	68 00 00 00 00	 push	 OFFSET FLAT:??_C@_0M@EAAONFGJ@?$FL?$DN?$DNTitle?$DN?$DN?$FN?$AA@
  00511	ff b5 7c f7 ff
	ff		 push	 DWORD PTR _temp$[ebp]
  00517	89 85 58 f7 ff
	ff		 mov	 DWORD PTR _isEvent$[ebp], eax
  0051d	e8 00 00 00 00	 call	 _strstr

; 407  : 		isSender = strstr(temp.c_str(),"[==Sender==]");

  00522	68 00 00 00 00	 push	 OFFSET FLAT:??_C@_0N@HDDDHLGB@?$FL?$DN?$DNSender?$DN?$DN?$FN?$AA@
  00527	ff b5 7c f7 ff
	ff		 push	 DWORD PTR _temp$[ebp]
  0052d	89 85 6c f7 ff
	ff		 mov	 DWORD PTR _isTitle$[ebp], eax
  00533	e8 00 00 00 00	 call	 _strstr

; 408  : 		isLevel  = strstr(temp.c_str(),"[==Level ==]");

  00538	68 00 00 00 00	 push	 OFFSET FLAT:??_C@_0BD@MOJKFIBE@?$FL?$DN?$DNLevel?5?A?$LG?$LA?G?G?$KF?$DN?$DN?$FN?$AA@
  0053d	ff b5 7c f7 ff
	ff		 push	 DWORD PTR _temp$[ebp]
  00543	89 85 5c f7 ff
	ff		 mov	 DWORD PTR _isSender$[ebp], eax
  00549	e8 00 00 00 00	 call	 _strstr
  0054e	83 c4 30	 add	 esp, 48			; 00000030H

; 409  : 		if(detail_flag == false) 

  00551	38 9d 8b f7 ff
	ff		 cmp	 BYTE PTR _detail_flag$[ebp], bl
  00557	89 85 54 f7 ff
	ff		 mov	 DWORD PTR _isLevel$[ebp], eax
  0055d	75 18		 jne	 SHORT $L102043

; 410  : 		{
; 411  : 			isDetail = strstr(temp.c_str(),"[==Detail==]");

  0055f	68 00 00 00 00	 push	 OFFSET FLAT:??_C@_0N@KBBAAKCM@?$FL?$DN?$DNDetail?$DN?$DN?$FN?$AA@
  00564	ff b5 7c f7 ff
	ff		 push	 DWORD PTR _temp$[ebp]
  0056a	e8 00 00 00 00	 call	 _strstr
  0056f	59		 pop	 ecx
  00570	59		 pop	 ecx
  00571	89 85 70 f7 ff
	ff		 mov	 DWORD PTR _isDetail$[ebp], eax
$L102043:

; 412  : 		}
; 413  : 		temp = "";

  00577	68 00 00 00 00	 push	 OFFSET FLAT:??_C@_00CNPNBAHC@?$AA@
  0057c	8d 8d 7c f7 ff
	ff		 lea	 ecx, DWORD PTR _temp$[ebp]
  00582	e8 00 00 00 00	 call	 ??4?$basic_string@DV?$char_traits@D@_STL@@V?$allocator@D@2@@_STL@@QAEAAV01@PBD@Z ; _STL::basic_string<char,_STL::char_traits<char>,_STL::allocator<char> >::operator=

; 414  : 		if(current_race == 3)

  00587	83 fe 03	 cmp	 esi, 3
  0058a	0f 85 49 fc ff
	ff		 jne	 $L102003

; 415  : 		{
; 416  : //			MHelpMessageManager::Instance().addMessage(message);
; 417  : 			addMessage(message);

  00590	8b 8d 74 f7 ff
	ff		 mov	 ecx, DWORD PTR _this$[ebp]
  00596	8d 85 5c f6 ff
	ff		 lea	 eax, DWORD PTR _message$[ebp]
  0059c	50		 push	 eax
  0059d	83 c1 04	 add	 ecx, 4
  005a0	e8 00 00 00 00	 call	 ?push_back@?$vector@VMHelpMessage@@V?$allocator@VMHelpMessage@@@_STL@@@_STL@@QAEXABVMHelpMessage@@@Z ; _STL::vector<MHelpMessage,_STL::allocator<MHelpMessage> >::push_back

; 418  : 			current_race = 0;
; 419  : 		}
; 420  : 	}

  005a5	e9 2c fc ff ff	 jmp	 $L110007
$L102004:

; 421  : 	file.close();

  005aa	8b cf		 mov	 ecx, edi
  005ac	e8 00 00 00 00	 call	 ?close@iovfs_base@@QAEXXZ ; iovfs_base::close

; 422  : }

  005b1	8b 85 48 f7 ff
	ff		 mov	 eax, DWORD PTR _tempend$[ebp+8]
  005b7	2b 85 40 f7 ff
	ff		 sub	 eax, DWORD PTR _tempend$[ebp]
  005bd	8d 8d 48 f7 ff
	ff		 lea	 ecx, DWORD PTR _tempend$[ebp+8]
  005c3	50		 push	 eax
  005c4	ff b5 40 f7 ff
	ff		 push	 DWORD PTR _tempend$[ebp]
  005ca	c6 45 fc 03	 mov	 BYTE PTR __$EHRec$[ebp+8], 3
  005ce	e8 00 00 00 00	 call	 ?deallocate@?$allocator@D@_STL@@QAEXPADI@Z ; _STL::allocator<char>::deallocate
  005d3	8b 85 68 f7 ff
	ff		 mov	 eax, DWORD PTR _temp2$[ebp+8]
  005d9	2b 85 60 f7 ff
	ff		 sub	 eax, DWORD PTR _temp2$[ebp]
  005df	8d 8d 68 f7 ff
	ff		 lea	 ecx, DWORD PTR _temp2$[ebp+8]
  005e5	50		 push	 eax
  005e6	ff b5 60 f7 ff
	ff		 push	 DWORD PTR _temp2$[ebp]
  005ec	c6 45 fc 02	 mov	 BYTE PTR __$EHRec$[ebp+8], 2
  005f0	e8 00 00 00 00	 call	 ?deallocate@?$allocator@D@_STL@@QAEXPADI@Z ; _STL::allocator<char>::deallocate
  005f5	8b 85 84 f7 ff
	ff		 mov	 eax, DWORD PTR _temp$[ebp+8]
  005fb	2b 85 7c f7 ff
	ff		 sub	 eax, DWORD PTR _temp$[ebp]
  00601	8d 8d 84 f7 ff
	ff		 lea	 ecx, DWORD PTR _temp$[ebp+8]
  00607	50		 push	 eax
  00608	ff b5 7c f7 ff
	ff		 push	 DWORD PTR _temp$[ebp]
  0060e	c6 45 fc 01	 mov	 BYTE PTR __$EHRec$[ebp+8], 1
  00612	e8 00 00 00 00	 call	 ?deallocate@?$allocator@D@_STL@@QAEXPADI@Z ; _STL::allocator<char>::deallocate
  00617	8d 8d 34 f7 ff
	ff		 lea	 ecx, DWORD PTR _m_sender$[ebp]
  0061d	88 5d fc	 mov	 BYTE PTR __$EHRec$[ebp+8], bl
  00620	e8 00 00 00 00	 call	 ??1MString@@UAE@XZ	; MString::~MString
  00625	83 4d fc ff	 or	 DWORD PTR __$EHRec$[ebp+8], -1
  00629	8d 8d 5c f6 ff
	ff		 lea	 ecx, DWORD PTR _message$[ebp]
  0062f	e8 00 00 00 00	 call	 ??1MHelpMessage@@UAE@XZ	; MHelpMessage::~MHelpMessage
  00634	8b 4d f4	 mov	 ecx, DWORD PTR __$EHRec$[ebp]
  00637	5f		 pop	 edi
  00638	5e		 pop	 esi
  00639	64 89 0d 00 00
	00 00		 mov	 DWORD PTR fs:__except_list, ecx
  00640	8b 4d f0	 mov	 ecx, DWORD PTR __$ArrayPad$[ebp]
  00643	5b		 pop	 ebx
  00644	e8 00 00 00 00	 call	 @__security_check_cookie@4
  00649	c9		 leave
  0064a	c2 04 00	 ret	 4
_TEXT	ENDS
;	COMDAT text$x
text$x	SEGMENT
$L109617:
  00000	8d 8d 5c f6 ff
	ff		 lea	 ecx, DWORD PTR _message$[ebp]
  00006	e9 00 00 00 00	 jmp	 ??1MHelpMessage@@UAE@XZ	; MHelpMessage::~MHelpMessage
$L109618:
  0000b	8d 8d 34 f7 ff
	ff		 lea	 ecx, DWORD PTR _m_sender$[ebp]
  00011	e9 00 00 00 00	 jmp	 ??1MString@@UAE@XZ	; MString::~MString
$L109619:
  00016	8d 8d 7c f7 ff
	ff		 lea	 ecx, DWORD PTR _temp$[ebp]
  0001c	e9 00 00 00 00	 jmp	 ??1?$basic_string@DV?$char_traits@D@_STL@@V?$allocator@D@2@@_STL@@QAE@XZ ; _STL::basic_string<char,_STL::char_traits<char>,_STL::allocator<char> >::~basic_string<char,_STL::char_traits<char>,_STL::allocator<char> >
$L109620:
  00021	8d 8d 60 f7 ff
	ff		 lea	 ecx, DWORD PTR _temp2$[ebp]
  00027	e9 00 00 00 00	 jmp	 ??1?$basic_string@DV?$char_traits@D@_STL@@V?$allocator@D@2@@_STL@@QAE@XZ ; _STL::basic_string<char,_STL::char_traits<char>,_STL::allocator<char> >::~basic_string<char,_STL::char_traits<char>,_STL::allocator<char> >
$L109621:
  0002c	8d 8d 40 f7 ff
	ff		 lea	 ecx, DWORD PTR _tempend$[ebp]
  00032	e9 00 00 00 00	 jmp	 ??1?$basic_string@DV?$char_traits@D@_STL@@V?$allocator@D@2@@_STL@@QAE@XZ ; _STL::basic_string<char,_STL::char_traits<char>,_STL::allocator<char> >::~basic_string<char,_STL::char_traits<char>,_STL::allocator<char> >
__ehhandler$?LoadFromFile@MHelpMessageManager@@QAEXAAVivfstream@@@Z:
  00037	b8 00 00 00 00	 mov	 eax, OFFSET FLAT:$T109985
  0003c	e9 00 00 00 00	 jmp	 ___CxxFrameHandler
text$x	ENDS
?LoadFromFile@MHelpMessageManager@@QAEXAAVivfstream@@@Z ENDP ; MHelpMessageManager::LoadFromFile
PUBLIC	??0?$basic_ostream@DV?$char_traits@D@_STL@@@_STL@@QAE@PAV?$basic_streambuf@DV?$char_traits@D@_STL@@@1@@Z ; _STL::basic_ostream<char,_STL::char_traits<char> >::basic_ostream<char,_STL::char_traits<char> >
PUBLIC	??_8?$basic_ostream@DV?$char_traits@D@_STL@@@_STL@@7B@ ; _STL::basic_ostream<char,_STL::char_traits<char> >::`vbtable'
;	COMDAT xdata$x
; File c:\stlport-4.6.1\stlport\stl\_ostream.c
xdata$x	SEGMENT
$T110019 DD	0ffffffffH
	DD	FLAT:$L110014
$T110017 DD	019930520H
	DD	01H
	DD	FLAT:$T110019
	DD	2 DUP(00H)
	DD	2 DUP(00H)
xdata$x	ENDS
;	COMDAT ??_8?$basic_ostream@DV?$char_traits@D@_STL@@@_STL@@7B@
CONST	SEGMENT
??_8?$basic_ostream@DV?$char_traits@D@_STL@@@_STL@@7B@ DD 00H ; _STL::basic_ostream<char,_STL::char_traits<char> >::`vbtable'
	DD	04H
; Function compile flags: /Ogsy
CONST	ENDS
;	COMDAT ??0?$basic_ostream@DV?$char_traits@D@_STL@@@_STL@@QAE@PAV?$basic_streambuf@DV?$char_traits@D@_STL@@@1@@Z
_TEXT	SEGMENT
_this$ = -20						; size = 4
$T110013 = -16						; size = 4
__$EHRec$ = -12						; size = 12
___buf$ = 8						; size = 4
_$initVBases$ = 12					; size = 4
??0?$basic_ostream@DV?$char_traits@D@_STL@@@_STL@@QAE@PAV?$basic_streambuf@DV?$char_traits@D@_STL@@@1@@Z PROC NEAR ; _STL::basic_ostream<char,_STL::char_traits<char> >::basic_ostream<char,_STL::char_traits<char> >, COMDAT
; _this$ = ecx

; 58   : {

  00000	b8 00 00 00 00	 mov	 eax, __ehhandler$??0?$basic_ostream@DV?$char_traits@D@_STL@@@_STL@@QAE@PAV?$basic_streambuf@DV?$char_traits@D@_STL@@@1@@Z
  00005	e8 00 00 00 00	 call	 __EH_prolog
  0000a	51		 push	 ecx
  0000b	51		 push	 ecx
  0000c	83 65 f0 00	 and	 DWORD PTR $T110013[ebp], 0
  00010	83 7d 0c 00	 cmp	 DWORD PTR _$initVBases$[ebp], 0
  00014	56		 push	 esi
  00015	8b f1		 mov	 esi, ecx
  00017	89 75 ec	 mov	 DWORD PTR _this$[ebp], esi
  0001a	74 19		 je	 SHORT $L102622
  0001c	8d 4e 04	 lea	 ecx, DWORD PTR [esi+4]
  0001f	c7 06 00 00 00
	00		 mov	 DWORD PTR [esi], OFFSET FLAT:??_8?$basic_ostream@DV?$char_traits@D@_STL@@@_STL@@7B@
  00025	e8 00 00 00 00	 call	 ??0?$basic_ios@DV?$char_traits@D@_STL@@@_STL@@IAE@XZ ; _STL::basic_ios<char,_STL::char_traits<char> >::basic_ios<char,_STL::char_traits<char> >
  0002a	83 65 fc 00	 and	 DWORD PTR __$EHRec$[ebp+8], 0
  0002e	c7 45 f0 01 00
	00 00		 mov	 DWORD PTR $T110013[ebp], 1
$L102622:
  00035	8b 06		 mov	 eax, DWORD PTR [esi]
  00037	8b 40 04	 mov	 eax, DWORD PTR [eax+4]

; 59   :   this->init(__buf);

  0003a	ff 75 08	 push	 DWORD PTR ___buf$[ebp]
  0003d	c7 04 06 00 00
	00 00		 mov	 DWORD PTR [esi+eax], OFFSET FLAT:??_7?$basic_ostream@DV?$char_traits@D@_STL@@@_STL@@6B@
  00044	8b 06		 mov	 eax, DWORD PTR [esi]
  00046	8b 48 04	 mov	 ecx, DWORD PTR [eax+4]
  00049	03 ce		 add	 ecx, esi
  0004b	e8 00 00 00 00	 call	 ?init@?$basic_ios@DV?$char_traits@D@_STL@@@_STL@@IAEXPAV?$basic_streambuf@DV?$char_traits@D@_STL@@@2@@Z ; _STL::basic_ios<char,_STL::char_traits<char> >::init

; 60   : }

  00050	8b 4d f4	 mov	 ecx, DWORD PTR __$EHRec$[ebp]
  00053	8b c6		 mov	 eax, esi
  00055	5e		 pop	 esi
  00056	64 89 0d 00 00
	00 00		 mov	 DWORD PTR fs:__except_list, ecx
  0005d	c9		 leave
  0005e	c2 08 00	 ret	 8
_TEXT	ENDS
;	COMDAT text$x
text$x	SEGMENT
$L110014:
  00000	8b 45 f0	 mov	 eax, DWORD PTR $T110013[ebp]
  00003	83 e0 01	 and	 eax, 1
  00006	0f 84 0f 00 00
	00		 je	 $L110015
  0000c	83 65 f0 fe	 and	 DWORD PTR $T110013[ebp], -2 ; fffffffeH
  00010	8b 4d ec	 mov	 ecx, DWORD PTR _this$[ebp]
  00013	83 c1 04	 add	 ecx, 4
  00016	e9 00 00 00 00	 jmp	 ??1?$basic_ios@DV?$char_traits@D@_STL@@@_STL@@UAE@XZ ; _STL::basic_ios<char,_STL::char_traits<char> >::~basic_ios<char,_STL::char_traits<char> >
$L110015:
  0001b	c3		 ret	 0
__ehhandler$??0?$basic_ostream@DV?$char_traits@D@_STL@@@_STL@@QAE@PAV?$basic_streambuf@DV?$char_traits@D@_STL@@@1@@Z:
  0001c	b8 00 00 00 00	 mov	 eax, OFFSET FLAT:$T110017
  00021	e9 00 00 00 00	 jmp	 ___CxxFrameHandler
text$x	ENDS
??0?$basic_ostream@DV?$char_traits@D@_STL@@@_STL@@QAE@PAV?$basic_streambuf@DV?$char_traits@D@_STL@@@1@@Z ENDP ; _STL::basic_ostream<char,_STL::char_traits<char> >::basic_ostream<char,_STL::char_traits<char> >
PUBLIC	??0MHelpMessageManager@@AAE@XZ			; MHelpMessageManager::MHelpMessageManager
PUBLIC	??_C@_0BA@PGCJMGIO@helpmessage?4txt?$AA@	; `string'
EXTRN	??0CRarFile@@QAE@XZ:NEAR			; CRarFile::CRarFile
;	COMDAT xdata$x
; File c:\stlport-4.6.1\stlport\stl\_alloc.h
xdata$x	SEGMENT
$T110052 DD	0ffffffffH
	DD	FLAT:$L110026
	DD	00H
	DD	FLAT:$L110027
	DD	01H
	DD	FLAT:$L110028
$T110050 DD	019930520H
	DD	03H
	DD	FLAT:$T110052
	DD	2 DUP(00H)
	DD	2 DUP(00H)
xdata$x	ENDS
;	COMDAT ??_C@_0BA@PGCJMGIO@helpmessage?4txt?$AA@
CONST	SEGMENT
??_C@_0BA@PGCJMGIO@helpmessage?4txt?$AA@ DB 'helpmessage.txt', 00H ; `string'
; Function compile flags: /Ogsy
; File c:\darkeden\designed_common\project\client\mhelpmessagemanager.cpp
CONST	ENDS
;	COMDAT ??0MHelpMessageManager@@AAE@XZ
_TEXT	SEGMENT
_this$ = -20						; size = 4
$T110025 = -13						; size = 1
$T110024 = -13						; size = 1
__$EHRec$ = -12						; size = 12
??0MHelpMessageManager@@AAE@XZ PROC NEAR		; MHelpMessageManager::MHelpMessageManager, COMDAT
; _this$ = ecx

; 31   : {

  00000	b8 00 00 00 00	 mov	 eax, __ehhandler$??0MHelpMessageManager@@AAE@XZ
  00005	e8 00 00 00 00	 call	 __EH_prolog
  0000a	51		 push	 ecx
  0000b	51		 push	 ecx
  0000c	56		 push	 esi
  0000d	8b f1		 mov	 esi, ecx
  0000f	8d 45 f3	 lea	 eax, DWORD PTR $T110024[ebp]
  00012	8d 4e 04	 lea	 ecx, DWORD PTR [esi+4]
  00015	50		 push	 eax
  00016	89 75 ec	 mov	 DWORD PTR _this$[ebp], esi
  00019	c7 06 00 00 00
	00		 mov	 DWORD PTR [esi], OFFSET FLAT:??_7MHelpMessageManager@@6B@
  0001f	e8 00 00 00 00	 call	 ??0?$_Vector_base@VMHelpMessage@@V?$allocator@VMHelpMessage@@@_STL@@@_STL@@QAE@ABV?$allocator@VMHelpMessage@@@1@@Z ; _STL::_Vector_base<MHelpMessage,_STL::allocator<MHelpMessage> >::_Vector_base<MHelpMessage,_STL::allocator<MHelpMessage> >
  00024	83 65 fc 00	 and	 DWORD PTR __$EHRec$[ebp+8], 0
  00028	8d 45 f3	 lea	 eax, DWORD PTR $T110025[ebp]
  0002b	8d 4e 10	 lea	 ecx, DWORD PTR [esi+16]
  0002e	50		 push	 eax
  0002f	e8 00 00 00 00	 call	 ??0?$_Vector_base@VMString@@V?$allocator@VMString@@@_STL@@@_STL@@QAE@ABV?$allocator@VMString@@@1@@Z ; _STL::_Vector_base<MString,_STL::allocator<MString> >::_Vector_base<MString,_STL::allocator<MString> >
  00034	8d 4e 24	 lea	 ecx, DWORD PTR [esi+36]
  00037	c6 45 fc 01	 mov	 BYTE PTR __$EHRec$[ebp+8], 1
  0003b	e8 00 00 00 00	 call	 ??0CRarFile@@QAE@XZ	; CRarFile::CRarFile

; 32   : 	m_KeyCnt = -1;

  00040	83 4e 1c ff	 or	 DWORD PTR [esi+28], -1

; 33   : 	m_SenderCnt = -1; // 

  00044	83 4e 20 ff	 or	 DWORD PTR [esi+32], -1

; 34   : 	LoadHelpMessageRpk("helpmessage.txt");

  00048	68 00 00 00 00	 push	 OFFSET FLAT:??_C@_0BA@PGCJMGIO@helpmessage?4txt?$AA@
  0004d	8b ce		 mov	 ecx, esi
  0004f	c6 45 fc 02	 mov	 BYTE PTR __$EHRec$[ebp+8], 2
  00053	e8 00 00 00 00	 call	 ?LoadHelpMessageRpk@MHelpMessageManager@@QAE_NPBD@Z ; MHelpMessageManager::LoadHelpMessageRpk

; 35   : }

  00058	8b 4d f4	 mov	 ecx, DWORD PTR __$EHRec$[ebp]
  0005b	8b c6		 mov	 eax, esi
  0005d	5e		 pop	 esi
  0005e	64 89 0d 00 00
	00 00		 mov	 DWORD PTR fs:__except_list, ecx
  00065	c9		 leave
  00066	c3		 ret	 0
_TEXT	ENDS
;	COMDAT text$x
text$x	SEGMENT
$L110026:
  00000	8b 4d ec	 mov	 ecx, DWORD PTR _this$[ebp]
  00003	83 c1 04	 add	 ecx, 4
  00006	e9 00 00 00 00	 jmp	 ??1?$vector@VMHelpMessage@@V?$allocator@VMHelpMessage@@@_STL@@@_STL@@QAE@XZ ; _STL::vector<MHelpMessage,_STL::allocator<MHelpMessage> >::~vector<MHelpMessage,_STL::allocator<MHelpMessage> >
$L110027:
  0000b	8b 4d ec	 mov	 ecx, DWORD PTR _this$[ebp]
  0000e	83 c1 10	 add	 ecx, 16			; 00000010H
  00011	e9 00 00 00 00	 jmp	 ??1?$vector@VMString@@V?$allocator@VMString@@@_STL@@@_STL@@QAE@XZ ; _STL::vector<MString,_STL::allocator<MString> >::~vector<MString,_STL::allocator<MString> >
$L110028:
  00016	8b 4d ec	 mov	 ecx, DWORD PTR _this$[ebp]
  00019	83 c1 24	 add	 ecx, 36			; 00000024H
  0001c	e9 00 00 00 00	 jmp	 ??1CRarFile@@QAE@XZ	; CRarFile::~CRarFile
__ehhandler$??0MHelpMessageManager@@AAE@XZ:
  00021	b8 00 00 00 00	 mov	 eax, OFFSET FLAT:$T110050
  00026	e9 00 00 00 00	 jmp	 ___CxxFrameHandler
text$x	ENDS
??0MHelpMessageManager@@AAE@XZ ENDP			; MHelpMessageManager::MHelpMessageManager
PUBLIC	?LoadFromFile@MHelpMessageManager@@QAEXPBD@Z	; MHelpMessageManager::LoadFromFile
;	COMDAT xdata$x
; File c:\darkeden\designed_common\project\client\virtualfilesystem\vfstream.inl
xdata$x	SEGMENT
$T110065 DD	0ffffffffH
	DD	FLAT:$L110057
$T110063 DD	019930520H
	DD	01H
	DD	FLAT:$T110065
	DD	2 DUP(00H)
	DD	2 DUP(00H)
; Function compile flags: /Ogsy
; File c:\darkeden\designed_common\project\client\mhelpmessagemanager.cpp
xdata$x	ENDS
;	COMDAT ?LoadFromFile@MHelpMessageManager@@QAEXPBD@Z
_TEXT	SEGMENT
_file$ = -92						; size = 80
__$EHRec$ = -12						; size = 12
_filename$ = 8						; size = 4
?LoadFromFile@MHelpMessageManager@@QAEXPBD@Z PROC NEAR	; MHelpMessageManager::LoadFromFile, COMDAT
; _this$ = ecx

; 42   : {	

  00000	b8 00 00 00 00	 mov	 eax, __ehhandler$?LoadFromFile@MHelpMessageManager@@QAEXPBD@Z
  00005	e8 00 00 00 00	 call	 __EH_prolog
  0000a	83 ec 50	 sub	 esp, 80			; 00000050H
  0000d	56		 push	 esi

; 43   : 	ivfstream file(filename, std::ios_base::binary);

  0000e	6a 04		 push	 4
  00010	ff 75 08	 push	 DWORD PTR _filename$[ebp]
  00013	8b f1		 mov	 esi, ecx
  00015	8d 4d a4	 lea	 ecx, DWORD PTR _file$[ebp]
  00018	e8 00 00 00 00	 call	 ??0ivfstream@@QAE@PBDH@Z ; ivfstream::ivfstream
  0001d	83 65 fc 00	 and	 DWORD PTR __$EHRec$[ebp+8], 0

; 44   : 	
; 45   : 	if(file.is_open())

  00021	8d 4d a4	 lea	 ecx, DWORD PTR _file$[ebp]
  00024	e8 00 00 00 00	 call	 ?is_open@iovfs_base@@QBE_NXZ ; iovfs_base::is_open
  00029	84 c0		 test	 al, al
  0002b	74 13		 je	 SHORT $L101751

; 46   : 	{
; 47   : 		LoadFromFile(file);

  0002d	8d 45 a4	 lea	 eax, DWORD PTR _file$[ebp]
  00030	50		 push	 eax
  00031	8b ce		 mov	 ecx, esi
  00033	e8 00 00 00 00	 call	 ?LoadFromFile@MHelpMessageManager@@QAEXAAVivfstream@@@Z ; MHelpMessageManager::LoadFromFile

; 48   : 		file.close();

  00038	8d 4d a4	 lea	 ecx, DWORD PTR _file$[ebp]
  0003b	e8 00 00 00 00	 call	 ?close@iovfs_base@@QAEXXZ ; iovfs_base::close
$L101751:

; 49   : 	}
; 50   : }

  00040	83 4d fc ff	 or	 DWORD PTR __$EHRec$[ebp+8], -1
  00044	8d 4d a4	 lea	 ecx, DWORD PTR _file$[ebp]
  00047	c7 45 a4 00 00
	00 00		 mov	 DWORD PTR _file$[ebp], OFFSET FLAT:??_7ivfstream@@6B@
  0004e	e8 00 00 00 00	 call	 ??1iovfs_base@@UAE@XZ	; iovfs_base::~iovfs_base
  00053	8b 4d f4	 mov	 ecx, DWORD PTR __$EHRec$[ebp]
  00056	5e		 pop	 esi
  00057	64 89 0d 00 00
	00 00		 mov	 DWORD PTR fs:__except_list, ecx
  0005e	c9		 leave
  0005f	c2 04 00	 ret	 4
_TEXT	ENDS
;	COMDAT text$x
text$x	SEGMENT
$L110057:
  00000	8d 4d a4	 lea	 ecx, DWORD PTR _file$[ebp]
  00003	e9 00 00 00 00	 jmp	 ??1ivfstream@@UAE@XZ	; ivfstream::~ivfstream
__ehhandler$?LoadFromFile@MHelpMessageManager@@QAEXPBD@Z:
  00008	b8 00 00 00 00	 mov	 eax, OFFSET FLAT:$T110063
  0000d	e9 00 00 00 00	 jmp	 ___CxxFrameHandler
text$x	ENDS
?LoadFromFile@MHelpMessageManager@@QAEXPBD@Z ENDP	; MHelpMessageManager::LoadFromFile
PUBLIC	??0?$basic_ofstream@DV?$char_traits@D@_STL@@@_STL@@QAE@PBDH@Z ; _STL::basic_ofstream<char,_STL::char_traits<char> >::basic_ofstream<char,_STL::char_traits<char> >
PUBLIC	??_8?$basic_ofstream@DV?$char_traits@D@_STL@@@_STL@@7B@ ; _STL::basic_ofstream<char,_STL::char_traits<char> >::`vbtable'
;	COMDAT xdata$x
; File c:\stlport-4.6.1\stlport\stl\_ios_base.h
xdata$x	SEGMENT
$T110088 DD	0ffffffffH
	DD	FLAT:$L110071
	DD	00H
	DD	FLAT:$L110073
	DD	01H
	DD	FLAT:$L110074
$T110086 DD	019930520H
	DD	03H
	DD	FLAT:$T110088
	DD	2 DUP(00H)
	DD	2 DUP(00H)
xdata$x	ENDS
;	COMDAT ??_8?$basic_ofstream@DV?$char_traits@D@_STL@@@_STL@@7B@
CONST	SEGMENT
??_8?$basic_ofstream@DV?$char_traits@D@_STL@@@_STL@@7B@ DD 00H ; _STL::basic_ofstream<char,_STL::char_traits<char> >::`vbtable'
	DD	0b8H
; Function compile flags: /Ogsy
; File c:\stlport-4.6.1\stlport\stl\_fstream.h
CONST	ENDS
;	COMDAT ??0?$basic_ofstream@DV?$char_traits@D@_STL@@@_STL@@QAE@PBDH@Z
_TEXT	SEGMENT
_this$ = -20						; size = 4
$T110070 = -16						; size = 4
__$EHRec$ = -12						; size = 12
___s$ = 8						; size = 4
___mod$ = 12						; size = 4
_$initVBases$ = 16					; size = 4
??0?$basic_ofstream@DV?$char_traits@D@_STL@@@_STL@@QAE@PBDH@Z PROC NEAR ; _STL::basic_ofstream<char,_STL::char_traits<char> >::basic_ofstream<char,_STL::char_traits<char> >, COMDAT
; _this$ = ecx

; 594  :       _M_buf() {

  00000	b8 00 00 00 00	 mov	 eax, __ehhandler$??0?$basic_ofstream@DV?$char_traits@D@_STL@@@_STL@@QAE@PBDH@Z
  00005	e8 00 00 00 00	 call	 __EH_prolog
  0000a	51		 push	 ecx
  0000b	51		 push	 ecx
  0000c	53		 push	 ebx
  0000d	56		 push	 esi
  0000e	57		 push	 edi
  0000f	33 ff		 xor	 edi, edi
  00011	33 db		 xor	 ebx, ebx
  00013	8b f1		 mov	 esi, ecx
  00015	47		 inc	 edi
  00016	39 5d 10	 cmp	 DWORD PTR _$initVBases$[ebp], ebx
  00019	89 75 ec	 mov	 DWORD PTR _this$[ebp], esi
  0001c	89 5d f0	 mov	 DWORD PTR $T110070[ebp], ebx
  0001f	74 17		 je	 SHORT $L102338
  00021	8d 8e b8 00 00
	00		 lea	 ecx, DWORD PTR [esi+184]
  00027	c7 06 00 00 00
	00		 mov	 DWORD PTR [esi], OFFSET FLAT:??_8?$basic_ofstream@DV?$char_traits@D@_STL@@@_STL@@7B@
  0002d	e8 00 00 00 00	 call	 ??0?$basic_ios@DV?$char_traits@D@_STL@@@_STL@@IAE@XZ ; _STL::basic_ios<char,_STL::char_traits<char> >::basic_ios<char,_STL::char_traits<char> >
  00032	89 5d fc	 mov	 DWORD PTR __$EHRec$[ebp+8], ebx
  00035	89 7d f0	 mov	 DWORD PTR $T110070[ebp], edi
$L102338:
  00038	53		 push	 ebx
  00039	53		 push	 ebx
  0003a	8b ce		 mov	 ecx, esi
  0003c	e8 00 00 00 00	 call	 ??0?$basic_ostream@DV?$char_traits@D@_STL@@@_STL@@QAE@PAV?$basic_streambuf@DV?$char_traits@D@_STL@@@1@@Z ; _STL::basic_ostream<char,_STL::char_traits<char> >::basic_ostream<char,_STL::char_traits<char> >
  00041	8b 06		 mov	 eax, DWORD PTR [esi]
  00043	8b 40 04	 mov	 eax, DWORD PTR [eax+4]
  00046	89 7d fc	 mov	 DWORD PTR __$EHRec$[ebp+8], edi
  00049	8d 7e 04	 lea	 edi, DWORD PTR [esi+4]
  0004c	8b cf		 mov	 ecx, edi
  0004e	c7 04 06 00 00
	00 00		 mov	 DWORD PTR [esi+eax], OFFSET FLAT:??_7?$basic_ofstream@DV?$char_traits@D@_STL@@@_STL@@6B@
  00055	e8 00 00 00 00	 call	 ??0?$basic_filebuf@DV?$char_traits@D@_STL@@@_STL@@QAE@XZ ; _STL::basic_filebuf<char,_STL::char_traits<char> >::basic_filebuf<char,_STL::char_traits<char> >

; 595  : 	this->init(&_M_buf);

  0005a	8b 06		 mov	 eax, DWORD PTR [esi]
  0005c	8b 48 04	 mov	 ecx, DWORD PTR [eax+4]
  0005f	57		 push	 edi
  00060	03 ce		 add	 ecx, esi
  00062	c6 45 fc 02	 mov	 BYTE PTR __$EHRec$[ebp+8], 2
  00066	e8 00 00 00 00	 call	 ?init@?$basic_ios@DV?$char_traits@D@_STL@@@_STL@@IAEXPAV?$basic_streambuf@DV?$char_traits@D@_STL@@@2@@Z ; _STL::basic_ios<char,_STL::char_traits<char> >::init

; 596  : 	if (!_M_buf.open(__s, __mod | ios_base::out))

  0006b	8b 45 0c	 mov	 eax, DWORD PTR ___mod$[ebp]
  0006e	83 c8 10	 or	 eax, 16			; 00000010H
  00071	50		 push	 eax
  00072	ff 75 08	 push	 DWORD PTR ___s$[ebp]
  00075	8b cf		 mov	 ecx, edi
  00077	e8 00 00 00 00	 call	 ?open@?$basic_filebuf@DV?$char_traits@D@_STL@@@_STL@@QAEPAV12@PBDH@Z ; _STL::basic_filebuf<char,_STL::char_traits<char> >::open
  0007c	85 c0		 test	 eax, eax
  0007e	75 13		 jne	 SHORT $L110083

; 597  : 	  this->setstate(ios_base::failbit);

  00080	8b 06		 mov	 eax, DWORD PTR [esi]
  00082	8b 48 04	 mov	 ecx, DWORD PTR [eax+4]
  00085	03 ce		 add	 ecx, esi
  00087	8b 41 08	 mov	 eax, DWORD PTR [ecx+8]
  0008a	83 c8 04	 or	 eax, 4
  0008d	50		 push	 eax
  0008e	e8 00 00 00 00	 call	 ?clear@?$basic_ios@DV?$char_traits@D@_STL@@@_STL@@QAEXH@Z ; _STL::basic_ios<char,_STL::char_traits<char> >::clear
$L110083:

; 598  :   }

  00093	8b 4d f4	 mov	 ecx, DWORD PTR __$EHRec$[ebp]
  00096	5f		 pop	 edi
  00097	8b c6		 mov	 eax, esi
  00099	5e		 pop	 esi
  0009a	5b		 pop	 ebx
  0009b	64 89 0d 00 00
	00 00		 mov	 DWORD PTR fs:__except_list, ecx
  000a2	c9		 leave
  000a3	c2 0c 00	 ret	 12			; 0000000cH
_TEXT	ENDS
;	COMDAT text$x
text$x	SEGMENT
$L110071:
  00000	8b 45 f0	 mov	 eax, DWORD PTR $T110070[ebp]
  00003	83 e0 01	 and	 eax, 1
  00006	0f 84 12 00 00
	00		 je	 $L110072
  0000c	83 65 f0 fe	 and	 DWORD PTR $T110070[ebp], -2 ; fffffffeH
  00010	8b 4d ec	 mov	 ecx, DWORD PTR _this$[ebp]
  00013	81 c1 b8 00 00
	00		 add	 ecx, 184		; 000000b8H
  00019	e9 00 00 00 00	 jmp	 ??1?$basic_ios@DV?$char_traits@D@_STL@@@_STL@@UAE@XZ ; _STL::basic_ios<char,_STL::char_traits<char> >::~basic_ios<char,_STL::char_traits<char> >
$L110072:
  0001e	c3		 ret	 0
$L110073:
  0001f	8b 4d ec	 mov	 ecx, DWORD PTR _this$[ebp]
  00022	83 c1 04	 add	 ecx, 4
  00025	e9 00 00 00 00	 jmp	 ??1?$basic_ostream@DV?$char_traits@D@_STL@@@_STL@@UAE@XZ ; _STL::basic_ostream<char,_STL::char_traits<char> >::~basic_ostream<char,_STL::char_traits<char> >
$L110074:
  0002a	8b 4d ec	 mov	 ecx, DWORD PTR _this$[ebp]
  0002d	83 c1 04	 add	 ecx, 4
  00030	e9 00 00 00 00	 jmp	 ??1?$basic_filebuf@DV?$char_traits@D@_STL@@@_STL@@UAE@XZ ; _STL::basic_filebuf<char,_STL::char_traits<char> >::~basic_filebuf<char,_STL::char_traits<char> >
__ehhandler$??0?$basic_ofstream@DV?$char_traits@D@_STL@@@_STL@@QAE@PBDH@Z:
  00035	b8 00 00 00 00	 mov	 eax, OFFSET FLAT:$T110086
  0003a	e9 00 00 00 00	 jmp	 ___CxxFrameHandler
text$x	ENDS
??0?$basic_ofstream@DV?$char_traits@D@_STL@@@_STL@@QAE@PBDH@Z ENDP ; _STL::basic_ofstream<char,_STL::char_traits<char> >::basic_ofstream<char,_STL::char_traits<char> >
PUBLIC	?SaveToFile@MHelpMessageManager@@QAEXPBD@Z	; MHelpMessageManager::SaveToFile
;	COMDAT xdata$x
; File c:\stlport-4.6.1\stlport\stl\_ios_base.h
xdata$x	SEGMENT
$T110110 DD	0ffffffffH
	DD	FLAT:$L110096
$T110107 DD	019930520H
	DD	01H
	DD	FLAT:$T110110
	DD	2 DUP(00H)
	DD	2 DUP(00H)
; Function compile flags: /Ogsy
; File c:\darkeden\designed_common\project\client\mhelpmessagemanager.cpp
xdata$x	ENDS
;	COMDAT ?SaveToFile@MHelpMessageManager@@QAEXPBD@Z
_TEXT	SEGMENT
_file$ = -296						; size = 280
__$ArrayPad$ = -16					; size = 4
__$EHRec$ = -12						; size = 12
__$ReturnAddr$ = 4					; size = 4
_filename$ = 8						; size = 4
?SaveToFile@MHelpMessageManager@@QAEXPBD@Z PROC NEAR	; MHelpMessageManager::SaveToFile, COMDAT
; _this$ = ecx

; 53   : {

  00000	b8 00 00 00 00	 mov	 eax, __ehhandler$?SaveToFile@MHelpMessageManager@@QAEXPBD@Z
  00005	e8 00 00 00 00	 call	 __EH_prolog
  0000a	81 ec 1c 01 00
	00		 sub	 esp, 284		; 0000011cH
  00010	a1 00 00 00 00	 mov	 eax, DWORD PTR ___security_cookie
  00015	56		 push	 esi

; 54   : 	std::ofstream file(filename, std::ios::binary);

  00016	6a 01		 push	 1
  00018	6a 04		 push	 4
  0001a	ff 75 08	 push	 DWORD PTR _filename$[ebp]
  0001d	8b f1		 mov	 esi, ecx
  0001f	8d 8d d8 fe ff
	ff		 lea	 ecx, DWORD PTR _file$[ebp]
  00025	89 45 f0	 mov	 DWORD PTR __$ArrayPad$[ebp], eax
  00028	e8 00 00 00 00	 call	 ??0?$basic_ofstream@DV?$char_traits@D@_STL@@@_STL@@QAE@PBDH@Z ; _STL::basic_ofstream<char,_STL::char_traits<char> >::basic_ofstream<char,_STL::char_traits<char> >

; 55   : 	if(file)

  0002d	8b 85 d8 fe ff
	ff		 mov	 eax, DWORD PTR _file$[ebp]
  00033	8b 40 04	 mov	 eax, DWORD PTR [eax+4]
  00036	83 65 fc 00	 and	 DWORD PTR __$EHRec$[ebp+8], 0
  0003a	8d 84 05 d8 fe
	ff ff		 lea	 eax, DWORD PTR _file$[ebp+eax]
  00041	8b 48 08	 mov	 ecx, DWORD PTR [eax+8]
  00044	80 e1 05	 and	 cl, 5
  00047	f6 d9		 neg	 cl
  00049	1b c9		 sbb	 ecx, ecx
  0004b	f7 d1		 not	 ecx
  0004d	85 c8		 test	 ecx, eax
  0004f	74 19		 je	 SHORT $L101796

; 56   : 	{
; 57   : 		SaveToFile(file);

  00051	8d 85 d8 fe ff
	ff		 lea	 eax, DWORD PTR _file$[ebp]
  00057	50		 push	 eax
  00058	8b ce		 mov	 ecx, esi
  0005a	e8 00 00 00 00	 call	 ?SaveToFile@MHelpMessageManager@@QAEXAAV?$basic_ofstream@DV?$char_traits@D@_STL@@@_STL@@@Z ; MHelpMessageManager::SaveToFile

; 58   : 		file.close();

  0005f	8d 8d d8 fe ff
	ff		 lea	 ecx, DWORD PTR _file$[ebp]
  00065	e8 00 00 00 00	 call	 ?close@?$basic_ofstream@DV?$char_traits@D@_STL@@@_STL@@QAEXXZ ; _STL::basic_ofstream<char,_STL::char_traits<char> >::close
$L101796:

; 59   : 	}
; 60   : }

  0006a	83 4d fc ff	 or	 DWORD PTR __$EHRec$[ebp+8], -1
  0006e	8d 8d d8 fe ff
	ff		 lea	 ecx, DWORD PTR _file$[ebp]
  00074	e8 00 00 00 00	 call	 ??_D?$basic_ofstream@DV?$char_traits@D@_STL@@@_STL@@QAEXXZ
  00079	8b 4d f4	 mov	 ecx, DWORD PTR __$EHRec$[ebp]
  0007c	64 89 0d 00 00
	00 00		 mov	 DWORD PTR fs:__except_list, ecx
  00083	8b 4d f0	 mov	 ecx, DWORD PTR __$ArrayPad$[ebp]
  00086	5e		 pop	 esi
  00087	e8 00 00 00 00	 call	 @__security_check_cookie@4
  0008c	c9		 leave
  0008d	c2 04 00	 ret	 4
_TEXT	ENDS
;	COMDAT text$x
text$x	SEGMENT
$L110096:
  00000	8d 8d d8 fe ff
	ff		 lea	 ecx, DWORD PTR _file$[ebp]
  00006	e9 00 00 00 00	 jmp	 ??_D?$basic_ofstream@DV?$char_traits@D@_STL@@@_STL@@QAEXXZ
__ehhandler$?SaveToFile@MHelpMessageManager@@QAEXPBD@Z:
  0000b	b8 00 00 00 00	 mov	 eax, OFFSET FLAT:$T110107
  00010	e9 00 00 00 00	 jmp	 ___CxxFrameHandler
text$x	ENDS
?SaveToFile@MHelpMessageManager@@QAEXPBD@Z ENDP		; MHelpMessageManager::SaveToFile
END
