; Listing generated by Microsoft (R) Optimizing Compiler Version 13.10.3077 

	TITLE	\darkeden\Designed_Common\Project\Client\MHelpStringTable.cpp
	.386P
include listing.inc
if @Version gt 510
.model FLAT
else
_TEXT	SEGMENT PARA USE32 PUBLIC 'CODE'
_TEXT	ENDS
_DATA	SEGMENT DWORD USE32 PUBLIC 'DATA'
_DATA	ENDS
CONST	SEGMENT DWORD USE32 PUBLIC 'CONST'
CONST	ENDS
_BSS	SEGMENT DWORD USE32 PUBLIC 'BSS'
_BSS	ENDS
$$SYMBOLS	SEGMENT BYTE USE32 'DEBSYM'
$$SYMBOLS	ENDS
$$TYPES	SEGMENT BYTE USE32 'DEBTYP'
$$TYPES	ENDS
_TLS	SEGMENT DWORD USE32 PUBLIC 'TLS'
_TLS	ENDS
;	COMDAT ??_C@_0BN@ODLNCKCA@Data?2?2Info?2?2ClientConfig?4inf?$AA@
CONST	SEGMENT DWORD USE32 PUBLIC 'CONST'
CONST	ENDS
;	COMDAT ??_C@_0BM@DFPLPGPC@Data?2?2Info?2?2GuildMapper?4inf?$AA@
CONST	SEGMENT DWORD USE32 PUBLIC 'CONST'
CONST	ENDS
;	COMDAT ??_C@_0BN@LHODHNBK@Data?2?2Info?2?2GuildVersion?4inf?$AA@
CONST	SEGMENT DWORD USE32 PUBLIC 'CONST'
CONST	ENDS
;	COMDAT ??_C@_0BH@DDPLNCOL@Data?2?2Info?2?2Player?4inf?$AA@
CONST	SEGMENT DWORD USE32 PUBLIC 'CONST'
CONST	ENDS
;	COMDAT ??_C@_0BL@ILLNAPHB@Data?2?2Info?2?2Resolution?4inf?$AA@
CONST	SEGMENT DWORD USE32 PUBLIC 'CONST'
CONST	ENDS
;	COMDAT ??_C@_0CA@HEIGFDLG@Data?2?2Info?2?2SelectedChannel?4inf?$AA@
CONST	SEGMENT DWORD USE32 PUBLIC 'CONST'
CONST	ENDS
;	COMDAT ??_C@_0N@GOPDCEEB@basic_string?$AA@
CONST	SEGMENT DWORD USE32 PUBLIC 'CONST'
CONST	ENDS
rdata$r	SEGMENT DWORD USE32 PUBLIC 'CONST'
rdata$r	ENDS
text$yc	SEGMENT PARA USE32 PUBLIC 'CODE'
text$yc	ENDS
CRT$XCA	SEGMENT DWORD USE32 PUBLIC 'DATA'
CRT$XCA	ENDS
CRT$XCU	SEGMENT DWORD USE32 PUBLIC 'DATA'
CRT$XCU	ENDS
CRT$XCL	SEGMENT DWORD USE32 PUBLIC 'DATA'
CRT$XCL	ENDS
CRT$XCC	SEGMENT DWORD USE32 PUBLIC 'DATA'
CRT$XCC	ENDS
CRT$XCZ	SEGMENT DWORD USE32 PUBLIC 'DATA'
CRT$XCZ	ENDS
text$yd	SEGMENT PARA USE32 PUBLIC 'CODE'
text$yd	ENDS
;	COMDAT ?start@CNFS@@QAE_NPADH@Z
_TEXT	SEGMENT PARA USE32 PUBLIC 'CODE'
_TEXT	ENDS
;	COMDAT ?end@CNFS@@QAEXXZ
_TEXT	SEGMENT PARA USE32 PUBLIC 'CODE'
_TEXT	ENDS
;	COMDAT ?Init@VirtualFileHeader@@QAEXXZ
_TEXT	SEGMENT PARA USE32 PUBLIC 'CODE'
_TEXT	ENDS
;	COMDAT ??1IFileIO@@UAE@XZ
_TEXT	SEGMENT PARA USE32 PUBLIC 'CODE'
_TEXT	ENDS
;	COMDAT ??_GIFileIO@@UAEPAXI@Z
_TEXT	SEGMENT PARA USE32 PUBLIC 'CODE'
_TEXT	ENDS
;	COMDAT ??0iovfs_base@@QAE@XZ
_TEXT	SEGMENT PARA USE32 PUBLIC 'CODE'
_TEXT	ENDS
;	COMDAT ??_Giovfs_base@@UAEPAXI@Z
_TEXT	SEGMENT PARA USE32 PUBLIC 'CODE'
_TEXT	ENDS
;	COMDAT ??1iovfs_base@@UAE@XZ
_TEXT	SEGMENT PARA USE32 PUBLIC 'CODE'
_TEXT	ENDS
;	COMDAT ?Init@iovfs_base@@QAEXXZ
_TEXT	SEGMENT PARA USE32 PUBLIC 'CODE'
_TEXT	ENDS
;	COMDAT ??_Givfstream@@UAEPAXI@Z
_TEXT	SEGMENT PARA USE32 PUBLIC 'CODE'
_TEXT	ENDS
;	COMDAT ??1ivfstream@@UAE@XZ
_TEXT	SEGMENT PARA USE32 PUBLIC 'CODE'
_TEXT	ENDS
;	COMDAT ?open@ivfstream@@UAEXPBDH@Z
_TEXT	SEGMENT PARA USE32 PUBLIC 'CODE'
_TEXT	ENDS
;	COMDAT ?read@ivfstream@@QAEXPADI@Z
_TEXT	SEGMENT PARA USE32 PUBLIC 'CODE'
_TEXT	ENDS
;	COMDAT ??_Govfstream@@UAEPAXI@Z
_TEXT	SEGMENT PARA USE32 PUBLIC 'CODE'
_TEXT	ENDS
;	COMDAT ??1ovfstream@@UAE@XZ
_TEXT	SEGMENT PARA USE32 PUBLIC 'CODE'
_TEXT	ENDS
;	COMDAT ?open@ovfstream@@UAEXPBDH@Z
_TEXT	SEGMENT PARA USE32 PUBLIC 'CODE'
_TEXT	ENDS
;	COMDAT ??0MHelpStringTable@@QAE@XZ
_TEXT	SEGMENT PARA USE32 PUBLIC 'CODE'
_TEXT	ENDS
;	COMDAT ??1MHelpStringTable@@QAE@XZ
_TEXT	SEGMENT PARA USE32 PUBLIC 'CODE'
_TEXT	ENDS
;	COMDAT ?Init@MHelpStringTable@@QAEXH@Z
_TEXT	SEGMENT PARA USE32 PUBLIC 'CODE'
_TEXT	ENDS
;	COMDAT ?ClearDisplayed@MHelpStringTable@@QAEXXZ
_TEXT	SEGMENT PARA USE32 PUBLIC 'CODE'
_TEXT	ENDS
;	COMDAT ?LoadFromFile@MHelpStringTable@@QAEXAAVivfstream@@@Z
_TEXT	SEGMENT PARA USE32 PUBLIC 'CODE'
_TEXT	ENDS
;	COMDAT ??AMHelpStringTable@@QAEAAVMString@@H@Z
_TEXT	SEGMENT PARA USE32 PUBLIC 'CODE'
_TEXT	ENDS
;	COMDAT ?Get@MHelpStringTable@@QAEAAVMString@@H@Z
_TEXT	SEGMENT PARA USE32 PUBLIC 'CODE'
_TEXT	ENDS
;	COMDAT ?eq@?$__char_traits_base@DH@_STL@@SA_NABD0@Z
_TEXT	SEGMENT PARA USE32 PUBLIC 'CODE'
_TEXT	ENDS
;	COMDAT ?not_eof@?$__char_traits_base@DH@_STL@@SAHABH@Z
_TEXT	SEGMENT PARA USE32 PUBLIC 'CODE'
_TEXT	ENDS
;	COMDAT ?eq_int_type@?$__char_traits_base@DH@_STL@@SA_NABH0@Z
_TEXT	SEGMENT PARA USE32 PUBLIC 'CODE'
_TEXT	ENDS
;	COMDAT ?get_allocator@?$basic_string@DV?$char_traits@D@_STL@@V?$allocator@D@2@@_STL@@QBE?AV?$allocator@D@2@XZ
_TEXT	SEGMENT PARA USE32 PUBLIC 'CODE'
_TEXT	ENDS
;	COMDAT ??4?$basic_string@DV?$char_traits@D@_STL@@V?$allocator@D@2@@_STL@@QAEAAV01@PBD@Z
_TEXT	SEGMENT PARA USE32 PUBLIC 'CODE'
_TEXT	ENDS
;	COMDAT ?_M_terminate_string@?$basic_string@DV?$char_traits@D@_STL@@V?$allocator@D@2@@_STL@@AAEXXZ
_TEXT	SEGMENT PARA USE32 PUBLIC 'CODE'
_TEXT	ENDS
;	COMDAT ??0?$_String_base@DV?$allocator@D@_STL@@@_STL@@QAE@ABV?$allocator@D@1@@Z
_TEXT	SEGMENT PARA USE32 PUBLIC 'CODE'
_TEXT	ENDS
;	COMDAT ?allocate@?$allocator@D@_STL@@QAEPADIPBX@Z
_TEXT	SEGMENT PARA USE32 PUBLIC 'CODE'
_TEXT	ENDS
;	COMDAT ??0?$fpos@H@_STL@@QAE@J@Z
_TEXT	SEGMENT PARA USE32 PUBLIC 'CODE'
_TEXT	ENDS
;	COMDAT ??B?$fpos@H@_STL@@QBEJXZ
_TEXT	SEGMENT PARA USE32 PUBLIC 'CODE'
_TEXT	ENDS
;	COMDAT ?state@?$fpos@H@_STL@@QBEHXZ
_TEXT	SEGMENT PARA USE32 PUBLIC 'CODE'
_TEXT	ENDS
;	COMDAT ?is_open@?$basic_filebuf@DV?$char_traits@D@_STL@@@_STL@@QBE_NXZ
_TEXT	SEGMENT PARA USE32 PUBLIC 'CODE'
_TEXT	ENDS
;	COMDAT ?_M_seek_return@?$basic_filebuf@DV?$char_traits@D@_STL@@@_STL@@AAE?AV?$fpos@H@2@JH@Z
_TEXT	SEGMENT PARA USE32 PUBLIC 'CODE'
_TEXT	ENDS
;	COMDAT ??0?$_Filebuf_Tmp_Buf@D@_STL@@QAE@H@Z
_TEXT	SEGMENT PARA USE32 PUBLIC 'CODE'
_TEXT	ENDS
;	COMDAT ??1?$_Filebuf_Tmp_Buf@D@_STL@@QAE@XZ
_TEXT	SEGMENT PARA USE32 PUBLIC 'CODE'
_TEXT	ENDS
;	COMDAT ?GetSize@?$CTypeTable@_N@@QBEHXZ
_TEXT	SEGMENT PARA USE32 PUBLIC 'CODE'
_TEXT	ENDS
;	COMDAT ??A?$CTypeTable@_N@@QAEAA_NH@Z
_TEXT	SEGMENT PARA USE32 PUBLIC 'CODE'
_TEXT	ENDS
;	COMDAT ?_M_terminate_string_aux@?$basic_string@DV?$char_traits@D@_STL@@V?$allocator@D@2@@_STL@@AAEXABU__true_type@2@@Z
_TEXT	SEGMENT PARA USE32 PUBLIC 'CODE'
_TEXT	ENDS
;	COMDAT ?assign@?$basic_string@DV?$char_traits@D@_STL@@V?$allocator@D@2@@_STL@@QAEAAV12@PBD0@Z
_TEXT	SEGMENT PARA USE32 PUBLIC 'CODE'
_TEXT	ENDS
;	COMDAT ??0?$allocator@D@_STL@@QAE@ABV01@@Z
_TEXT	SEGMENT PARA USE32 PUBLIC 'CODE'
_TEXT	ENDS
;	COMDAT ??0?$_STLP_alloc_proxy@PADDV?$allocator@D@_STL@@@_STL@@QAE@ABV?$allocator@D@1@PAD@Z
_TEXT	SEGMENT PARA USE32 PUBLIC 'CODE'
_TEXT	ENDS
;	COMDAT ?state@?$fpos@H@_STL@@QAEXH@Z
_TEXT	SEGMENT PARA USE32 PUBLIC 'CODE'
_TEXT	ENDS
;	COMDAT ?copy@?$__char_traits_base@DH@_STL@@SAPADPADPBDI@Z
_TEXT	SEGMENT PARA USE32 PUBLIC 'CODE'
_TEXT	ENDS
;	COMDAT ?begin@?$basic_string@DV?$char_traits@D@_STL@@V?$allocator@D@2@@_STL@@QAEPADXZ
_TEXT	SEGMENT PARA USE32 PUBLIC 'CODE'
_TEXT	ENDS
;	COMDAT ?end@?$basic_string@DV?$char_traits@D@_STL@@V?$allocator@D@2@@_STL@@QAEPADXZ
_TEXT	SEGMENT PARA USE32 PUBLIC 'CODE'
_TEXT	ENDS
;	COMDAT ?size@?$basic_string@DV?$char_traits@D@_STL@@V?$allocator@D@2@@_STL@@QBEIXZ
_TEXT	SEGMENT PARA USE32 PUBLIC 'CODE'
_TEXT	ENDS
;	COMDAT ?erase@?$basic_string@DV?$char_traits@D@_STL@@V?$allocator@D@2@@_STL@@QAEPADPAD0@Z
_TEXT	SEGMENT PARA USE32 PUBLIC 'CODE'
_TEXT	ENDS
;	COMDAT ?move@?$__char_traits_base@DH@_STL@@SAPADPADPBDI@Z
_TEXT	SEGMENT PARA USE32 PUBLIC 'CODE'
_TEXT	ENDS
;	COMDAT ??$_M_range_initialize@PBD@?$basic_string@DV?$char_traits@D@_STL@@V?$allocator@D@2@@_STL@@AAEXPBD0@Z
_TEXT	SEGMENT PARA USE32 PUBLIC 'CODE'
_TEXT	ENDS
;	COMDAT ??$_M_range_initialize@PAD@?$basic_string@DV?$char_traits@D@_STL@@V?$allocator@D@2@@_STL@@AAEXPAD0@Z
_TEXT	SEGMENT PARA USE32 PUBLIC 'CODE'
_TEXT	ENDS
;	COMDAT ?close@?$basic_filebuf@DV?$char_traits@D@_STL@@@_STL@@QAEPAV12@XZ
_TEXT	SEGMENT PARA USE32 PUBLIC 'CODE'
_TEXT	ENDS
;	COMDAT ?_M_exit_input_mode@?$basic_filebuf@DV?$char_traits@D@_STL@@@_STL@@AAEXXZ
_TEXT	SEGMENT PARA USE32 PUBLIC 'CODE'
_TEXT	ENDS
;	COMDAT ?_M_switch_to_output_mode@?$basic_filebuf@DV?$char_traits@D@_STL@@@_STL@@AAE_NXZ
_TEXT	SEGMENT PARA USE32 PUBLIC 'CODE'
_TEXT	ENDS
;	COMDAT ?_M_output_error@?$basic_filebuf@DV?$char_traits@D@_STL@@@_STL@@AAEHXZ
_TEXT	SEGMENT PARA USE32 PUBLIC 'CODE'
_TEXT	ENDS
;	COMDAT ?_M_allocate_buffers@?$basic_filebuf@DV?$char_traits@D@_STL@@@_STL@@AAE_NPADH@Z
_TEXT	SEGMENT PARA USE32 PUBLIC 'CODE'
_TEXT	ENDS
;	COMDAT ?_M_deallocate_buffers@?$basic_filebuf@DV?$char_traits@D@_STL@@@_STL@@AAEXXZ
_TEXT	SEGMENT PARA USE32 PUBLIC 'CODE'
_TEXT	ENDS
;	COMDAT ?_M_seek_init@?$basic_filebuf@DV?$char_traits@D@_STL@@@_STL@@AAE_N_N@Z
_TEXT	SEGMENT PARA USE32 PUBLIC 'CODE'
_TEXT	ENDS
;	COMDAT ?_M_setup_codecvt@?$basic_filebuf@DV?$char_traits@D@_STL@@@_STL@@AAEXABVlocale@2@@Z
_TEXT	SEGMENT PARA USE32 PUBLIC 'CODE'
_TEXT	ENDS
;	COMDAT ??$equal@PADPADU?$_Eq_traits@V?$char_traits@D@_STL@@@_STL@@@_STL@@YA_NPAD00U?$_Eq_traits@V?$char_traits@D@_STL@@@0@@Z
_TEXT	SEGMENT PARA USE32 PUBLIC 'CODE'
_TEXT	ENDS
;	COMDAT ??$_Destroy@V?$basic_string@DV?$char_traits@D@_STL@@V?$allocator@D@2@@_STL@@@_STL@@YAXPAV?$basic_string@DV?$char_traits@D@_STL@@V?$allocator@D@2@@0@@Z
_TEXT	SEGMENT PARA USE32 PUBLIC 'CODE'
_TEXT	ENDS
;	COMDAT ??$_M_assign_dispatch@PAD@?$basic_string@DV?$char_traits@D@_STL@@V?$allocator@D@2@@_STL@@AAEAAV01@PAD0ABU__false_type@1@@Z
_TEXT	SEGMENT PARA USE32 PUBLIC 'CODE'
_TEXT	ENDS
;	COMDAT ?Init@?$CTypeTable@VMString@@@@QAEXH@Z
_TEXT	SEGMENT PARA USE32 PUBLIC 'CODE'
_TEXT	ENDS
;	COMDAT ?LoadFromFile@?$CTypeTable@VMString@@@@QAEXAAVivfstream@@@Z
_TEXT	SEGMENT PARA USE32 PUBLIC 'CODE'
_TEXT	ENDS
;	COMDAT ??0?$CTypeTable@_N@@QAE@XZ
_TEXT	SEGMENT PARA USE32 PUBLIC 'CODE'
_TEXT	ENDS
;	COMDAT ??1?$CTypeTable@_N@@QAE@XZ
_TEXT	SEGMENT PARA USE32 PUBLIC 'CODE'
_TEXT	ENDS
;	COMDAT ?Init@?$CTypeTable@_N@@QAEXH@Z
_TEXT	SEGMENT PARA USE32 PUBLIC 'CODE'
_TEXT	ENDS
;	COMDAT ??$append@PBD@?$basic_string@DV?$char_traits@D@_STL@@V?$allocator@D@2@@_STL@@QAEAAV01@PBD0@Z
_TEXT	SEGMENT PARA USE32 PUBLIC 'CODE'
_TEXT	ENDS
;	COMDAT ??_G?$basic_string@DV?$char_traits@D@_STL@@V?$allocator@D@2@@_STL@@QAEPAXI@Z
_TEXT	SEGMENT PARA USE32 PUBLIC 'CODE'
_TEXT	ENDS
;	COMDAT ??_EMString@@UAEPAXI@Z
_TEXT	SEGMENT PARA USE32 PUBLIC 'CODE'
_TEXT	ENDS
;	COMDAT ?_M_exit_putback_mode@?$basic_filebuf@DV?$char_traits@D@_STL@@@_STL@@AAEXXZ
_TEXT	SEGMENT PARA USE32 PUBLIC 'CODE'
_TEXT	ENDS
;	COMDAT ??R?$_Eq_traits@V?$char_traits@D@_STL@@@_STL@@QBE_NABD0@Z
_TEXT	SEGMENT PARA USE32 PUBLIC 'CODE'
_TEXT	ENDS
;	COMDAT ??$_M_range_initialize@PBD@?$basic_string@DV?$char_traits@D@_STL@@V?$allocator@D@2@@_STL@@AAEXPBD0ABUforward_iterator_tag@1@@Z
_TEXT	SEGMENT PARA USE32 PUBLIC 'CODE'
_TEXT	ENDS
;	COMDAT ??$_M_range_initialize@PAD@?$basic_string@DV?$char_traits@D@_STL@@V?$allocator@D@2@@_STL@@AAEXPAD0ABUforward_iterator_tag@1@@Z
_TEXT	SEGMENT PARA USE32 PUBLIC 'CODE'
_TEXT	ENDS
;	COMDAT ?_M_unshift@?$basic_filebuf@DV?$char_traits@D@_STL@@@_STL@@AAE_NXZ
_TEXT	SEGMENT PARA USE32 PUBLIC 'CODE'
_TEXT	ENDS
;	COMDAT ?_M_allocate_buffers@?$basic_filebuf@DV?$char_traits@D@_STL@@@_STL@@AAE_NXZ
_TEXT	SEGMENT PARA USE32 PUBLIC 'CODE'
_TEXT	ENDS
;	COMDAT ??$max@H@_STL@@YAABHABH0@Z
_TEXT	SEGMENT PARA USE32 PUBLIC 'CODE'
_TEXT	ENDS
;	COMDAT ??$use_facet@V?$codecvt@DDH@_STL@@@_STL@@YAABV?$codecvt@DDH@0@ABVlocale@0@@Z
_TEXT	SEGMENT PARA USE32 PUBLIC 'CODE'
_TEXT	ENDS
;	COMDAT ??$append@PAD@?$basic_string@DV?$char_traits@D@_STL@@V?$allocator@D@2@@_STL@@QAEAAV01@PAD0@Z
_TEXT	SEGMENT PARA USE32 PUBLIC 'CODE'
_TEXT	ENDS
;	COMDAT ?Release@?$CTypeTable@VMString@@@@QAEXXZ
_TEXT	SEGMENT PARA USE32 PUBLIC 'CODE'
_TEXT	ENDS
;	COMDAT ?Release@?$CTypeTable@_N@@QAEXXZ
_TEXT	SEGMENT PARA USE32 PUBLIC 'CODE'
_TEXT	ENDS
;	COMDAT ??$_M_append_dispatch@PBD@?$basic_string@DV?$char_traits@D@_STL@@V?$allocator@D@2@@_STL@@AAEAAV01@PBD0ABU__false_type@1@@Z
_TEXT	SEGMENT PARA USE32 PUBLIC 'CODE'
_TEXT	ENDS
;	COMDAT ??$distance@PBD@_STL@@YAHABQBD0@Z
_TEXT	SEGMENT PARA USE32 PUBLIC 'CODE'
_TEXT	ENDS
;	COMDAT ?_M_allocate_block@?$_String_base@DV?$allocator@D@_STL@@@_STL@@QAEXI@Z
_TEXT	SEGMENT PARA USE32 PUBLIC 'CODE'
_TEXT	ENDS
;	COMDAT ??$distance@PAD@_STL@@YAHABQAD0@Z
_TEXT	SEGMENT PARA USE32 PUBLIC 'CODE'
_TEXT	ENDS
;	COMDAT ??$uninitialized_copy@PADPAD@_STL@@YAPADPAD00@Z
_TEXT	SEGMENT PARA USE32 PUBLIC 'CODE'
_TEXT	ENDS
;	COMDAT ??$_M_append_dispatch@PAD@?$basic_string@DV?$char_traits@D@_STL@@V?$allocator@D@2@@_STL@@AAEAAV01@PAD0ABU__false_type@1@@Z
_TEXT	SEGMENT PARA USE32 PUBLIC 'CODE'
_TEXT	ENDS
;	COMDAT ??$append@PBD@?$basic_string@DV?$char_traits@D@_STL@@V?$allocator@D@2@@_STL@@AAEAAV01@PBD0ABUforward_iterator_tag@1@@Z
_TEXT	SEGMENT PARA USE32 PUBLIC 'CODE'
_TEXT	ENDS
;	COMDAT ?_M_construct_null@?$basic_string@DV?$char_traits@D@_STL@@V?$allocator@D@2@@_STL@@AAEXPAD@Z
_TEXT	SEGMENT PARA USE32 PUBLIC 'CODE'
_TEXT	ENDS
;	COMDAT ?max_size@?$basic_string@DV?$char_traits@D@_STL@@V?$allocator@D@2@@_STL@@QBEIXZ
_TEXT	SEGMENT PARA USE32 PUBLIC 'CODE'
_TEXT	ENDS
;	COMDAT ?capacity@?$basic_string@DV?$char_traits@D@_STL@@V?$allocator@D@2@@_STL@@QBEIXZ
_TEXT	SEGMENT PARA USE32 PUBLIC 'CODE'
_TEXT	ENDS
;	COMDAT ?max_size@?$_String_base@DV?$allocator@D@_STL@@@_STL@@QBEIXZ
_TEXT	SEGMENT PARA USE32 PUBLIC 'CODE'
_TEXT	ENDS
;	COMDAT ?_M_construct_null_aux@?$basic_string@DV?$char_traits@D@_STL@@V?$allocator@D@2@@_STL@@AAEXPADABU__true_type@2@@Z
_TEXT	SEGMENT PARA USE32 PUBLIC 'CODE'
_TEXT	ENDS
;	COMDAT ??$__distance@PBD@_STL@@YAHABQBD0ABUrandom_access_iterator_tag@0@@Z
_TEXT	SEGMENT PARA USE32 PUBLIC 'CODE'
_TEXT	ENDS
;	COMDAT ?_M_throw_length_error@?$_String_base@DV?$allocator@D@_STL@@@_STL@@QBEXXZ
_TEXT	SEGMENT PARA USE32 PUBLIC 'CODE'
_TEXT	ENDS
;	COMDAT ??$__distance@PAD@_STL@@YAHABQAD0ABUrandom_access_iterator_tag@0@@Z
_TEXT	SEGMENT PARA USE32 PUBLIC 'CODE'
_TEXT	ENDS
;	COMDAT ??$__uninitialized_copy@PADPAD@_STL@@YAPADPAD00ABU__true_type@0@@Z
_TEXT	SEGMENT PARA USE32 PUBLIC 'CODE'
_TEXT	ENDS
;	COMDAT ??$append@PAD@?$basic_string@DV?$char_traits@D@_STL@@V?$allocator@D@2@@_STL@@AAEAAV01@PAD0ABUforward_iterator_tag@1@@Z
_TEXT	SEGMENT PARA USE32 PUBLIC 'CODE'
_TEXT	ENDS
;	COMDAT ??$max@I@_STL@@YAABIABI0@Z
_TEXT	SEGMENT PARA USE32 PUBLIC 'CODE'
_TEXT	ENDS
;	COMDAT ?_Ret@?$_BothPtrType@PADPAD@_STL@@SA?AU__true_type@2@XZ
_TEXT	SEGMENT PARA USE32 PUBLIC 'CODE'
_TEXT	ENDS
;	COMDAT ??$__copy_aux@PADPAD@_STL@@YAPADPAD00ABU__true_type@0@@Z
_TEXT	SEGMENT PARA USE32 PUBLIC 'CODE'
_TEXT	ENDS
;	COMDAT ?_Ret@?$_OKToMemCpy@DD@_STL@@SA?AU__true_type@2@XZ
_TEXT	SEGMENT PARA USE32 PUBLIC 'CODE'
_TEXT	ENDS
;	COMDAT ??$_IsOKToMemCpy@DD@_STL@@YA?AU?$_OKToMemCpy@DD@0@PAD0@Z
_TEXT	SEGMENT PARA USE32 PUBLIC 'CODE'
_TEXT	ENDS
;	COMDAT ??$__copy_ptrs@PADPAD@_STL@@YAPADPAD00ABU__true_type@0@@Z
_TEXT	SEGMENT PARA USE32 PUBLIC 'CODE'
_TEXT	ENDS
;	COMDAT ??_R3IFileIO@@8
rdata$r	SEGMENT DWORD USE32 PUBLIC 'CONST'
rdata$r	ENDS
;	COMDAT ??_R3ovfstream@@8
rdata$r	SEGMENT DWORD USE32 PUBLIC 'CONST'
rdata$r	ENDS
;	COMDAT ??_R3ivfstream@@8
rdata$r	SEGMENT DWORD USE32 PUBLIC 'CONST'
rdata$r	ENDS
;	COMDAT ??_R3iovfs_base@@8
rdata$r	SEGMENT DWORD USE32 PUBLIC 'CONST'
rdata$r	ENDS
;	COMDAT ??_R2IFileIO@@8
rdata$r	SEGMENT DWORD USE32 PUBLIC 'CONST'
rdata$r	ENDS
;	COMDAT ??_R2ovfstream@@8
rdata$r	SEGMENT DWORD USE32 PUBLIC 'CONST'
rdata$r	ENDS
;	COMDAT ??_R2ivfstream@@8
rdata$r	SEGMENT DWORD USE32 PUBLIC 'CONST'
rdata$r	ENDS
;	COMDAT ??_R2iovfs_base@@8
rdata$r	SEGMENT DWORD USE32 PUBLIC 'CONST'
rdata$r	ENDS
;	COMDAT ??_R1A@?0A@A@IFileIO@@8
rdata$r	SEGMENT DWORD USE32 PUBLIC 'CONST'
rdata$r	ENDS
;	COMDAT ??_R1A@?0A@A@ovfstream@@8
rdata$r	SEGMENT DWORD USE32 PUBLIC 'CONST'
rdata$r	ENDS
;	COMDAT ??_R1A@?0A@A@ivfstream@@8
rdata$r	SEGMENT DWORD USE32 PUBLIC 'CONST'
rdata$r	ENDS
;	COMDAT ??_R1A@?0A@A@iovfs_base@@8
rdata$r	SEGMENT DWORD USE32 PUBLIC 'CONST'
rdata$r	ENDS
;	COMDAT ??_R0?AVIFileIO@@@8
_DATA	SEGMENT DWORD USE32 PUBLIC 'DATA'
_DATA	ENDS
;	COMDAT ??_R0?AVovfstream@@@8
_DATA	SEGMENT DWORD USE32 PUBLIC 'DATA'
_DATA	ENDS
;	COMDAT ??_R0?AVivfstream@@@8
_DATA	SEGMENT DWORD USE32 PUBLIC 'DATA'
_DATA	ENDS
;	COMDAT ??_R0?AViovfs_base@@@8
_DATA	SEGMENT DWORD USE32 PUBLIC 'DATA'
_DATA	ENDS
;	COMDAT ??_R4IFileIO@@6B@
rdata$r	SEGMENT DWORD USE32 PUBLIC 'CONST'
rdata$r	ENDS
;	COMDAT ??_R4ovfstream@@6B@
rdata$r	SEGMENT DWORD USE32 PUBLIC 'CONST'
rdata$r	ENDS
;	COMDAT ??_R4ivfstream@@6B@
rdata$r	SEGMENT DWORD USE32 PUBLIC 'CONST'
rdata$r	ENDS
;	COMDAT ??_R4iovfs_base@@6B@
rdata$r	SEGMENT DWORD USE32 PUBLIC 'CONST'
rdata$r	ENDS
;	COMDAT ?__copy_trivial@_STL@@YAPAXPBX0PAX@Z
_TEXT	SEGMENT PARA USE32 PUBLIC 'CODE'
_TEXT	ENDS
;	COMDAT ?_M_deallocate_block@?$_String_base@DV?$allocator@D@_STL@@@_STL@@QAEXXZ
_TEXT	SEGMENT PARA USE32 PUBLIC 'CODE'
_TEXT	ENDS
;	COMDAT ?deallocate@?$allocator@D@_STL@@QAEXPADI@Z
_TEXT	SEGMENT PARA USE32 PUBLIC 'CODE'
_TEXT	ENDS
;	COMDAT ?deallocate@?$__node_alloc@$00$0A@@_STL@@SAXPAXI@Z
_TEXT	SEGMENT PARA USE32 PUBLIC 'CODE'
_TEXT	ENDS
;	COMDAT ?__stl_delete@_STL@@YAXPAX@Z
_TEXT	SEGMENT PARA USE32 PUBLIC 'CODE'
_TEXT	ENDS
;	COMDAT ?__page_size@_Filebuf_base@_STL@@SAIXZ
_TEXT	SEGMENT PARA USE32 PUBLIC 'CODE'
_TEXT	ENDS
;	COMDAT ?_M_write@?$basic_filebuf@DV?$char_traits@D@_STL@@@_STL@@QAE_NPADH@Z
_TEXT	SEGMENT PARA USE32 PUBLIC 'CODE'
_TEXT	ENDS
;	COMDAT ?unshift@?$codecvt@DDH@_STL@@QBE?AW4result@codecvt_base@2@AAHPAD1AAPAD@Z
_TEXT	SEGMENT PARA USE32 PUBLIC 'CODE'
_TEXT	ENDS
;	COMDAT ?uninitialized_copy@_STL@@YAPADPBD0PAD@Z
_TEXT	SEGMENT PARA USE32 PUBLIC 'CODE'
_TEXT	ENDS
;	COMDAT ?assign@?$char_traits@D@_STL@@SAXAADABD@Z
_TEXT	SEGMENT PARA USE32 PUBLIC 'CODE'
_TEXT	ENDS
;	COMDAT ?always_noconv@?$codecvt@DDH@_STL@@QBE_NXZ
_TEXT	SEGMENT PARA USE32 PUBLIC 'CODE'
_TEXT	ENDS
;	COMDAT ?encoding@?$codecvt@DDH@_STL@@QBEHXZ
_TEXT	SEGMENT PARA USE32 PUBLIC 'CODE'
_TEXT	ENDS
;	COMDAT ?max_length@?$codecvt@DDH@_STL@@QBEHXZ
_TEXT	SEGMENT PARA USE32 PUBLIC 'CODE'
_TEXT	ENDS
;	COMDAT ?__o_mode@_Filebuf_base@_STL@@QBEHXZ
_TEXT	SEGMENT PARA USE32 PUBLIC 'CODE'
_TEXT	ENDS
;	COMDAT ?_Destroy@_STL@@YAXPAD0@Z
_TEXT	SEGMENT PARA USE32 PUBLIC 'CODE'
_TEXT	ENDS
;	COMDAT ?setp@?$basic_streambuf@DV?$char_traits@D@_STL@@@_STL@@IAEXPAD0@Z
_TEXT	SEGMENT PARA USE32 PUBLIC 'CODE'
_TEXT	ENDS
;	COMDAT ?_FILE_O_set@_STL@@YAXPAU_iobuf@@PAD11@Z
_TEXT	SEGMENT PARA USE32 PUBLIC 'CODE'
_TEXT	ENDS
;	COMDAT ?_FILE_I_set@_STL@@YAXPAU_iobuf@@PAD11@Z
_TEXT	SEGMENT PARA USE32 PUBLIC 'CODE'
_TEXT	ENDS
;	COMDAT ?setg@?$basic_streambuf@DV?$char_traits@D@_STL@@@_STL@@IAEXPAD00@Z
_TEXT	SEGMENT PARA USE32 PUBLIC 'CODE'
_TEXT	ENDS
;	COMDAT ?__is_open@_Filebuf_base@_STL@@QBE_NXZ
_TEXT	SEGMENT PARA USE32 PUBLIC 'CODE'
_TEXT	ENDS
;	COMDAT ?allocate@?$__node_alloc@$00$0A@@_STL@@SAPAXI@Z
_TEXT	SEGMENT PARA USE32 PUBLIC 'CODE'
_TEXT	ENDS
;	COMDAT ?__stl_new@_STL@@YAPAXI@Z
_TEXT	SEGMENT PARA USE32 PUBLIC 'CODE'
_TEXT	ENDS
;	COMDAT ??1?$_STLP_alloc_proxy@PADDV?$allocator@D@_STL@@@_STL@@QAE@XZ
_TEXT	SEGMENT PARA USE32 PUBLIC 'CODE'
_TEXT	ENDS
;	COMDAT ?length@?$char_traits@D@_STL@@SAIPBD@Z
_TEXT	SEGMENT PARA USE32 PUBLIC 'CODE'
_TEXT	ENDS
;	COMDAT ??1?$allocator@D@_STL@@QAE@XZ
_TEXT	SEGMENT PARA USE32 PUBLIC 'CODE'
_TEXT	ENDS
;	COMDAT ?eof@?$__char_traits_base@DH@_STL@@SAHXZ
_TEXT	SEGMENT PARA USE32 PUBLIC 'CODE'
_TEXT	ENDS
;	COMDAT ??_7ovfstream@@6B@
CONST	SEGMENT DWORD USE32 PUBLIC 'CONST'
CONST	ENDS
;	COMDAT ??_7ivfstream@@6B@
CONST	SEGMENT DWORD USE32 PUBLIC 'CONST'
CONST	ENDS
;	COMDAT ??0?$basic_string@DV?$char_traits@D@_STL@@V?$allocator@D@2@@_STL@@QAE@XZ
_TEXT	SEGMENT PARA USE32 PUBLIC 'CODE'
_TEXT	ENDS
;	COMDAT ??0?$allocator@D@_STL@@QAE@XZ
_TEXT	SEGMENT PARA USE32 PUBLIC 'CODE'
_TEXT	ENDS
;	COMDAT ??1?$_String_base@DV?$allocator@D@_STL@@@_STL@@QAE@XZ
_TEXT	SEGMENT PARA USE32 PUBLIC 'CODE'
_TEXT	ENDS
;	COMDAT ??1?$basic_string@DV?$char_traits@D@_STL@@V?$allocator@D@2@@_STL@@QAE@XZ
_TEXT	SEGMENT PARA USE32 PUBLIC 'CODE'
_TEXT	ENDS
;	COMDAT ??_7iovfs_base@@6B@
CONST	SEGMENT DWORD USE32 PUBLIC 'CONST'
CONST	ENDS
;	COMDAT ??_7IFileIO@@6B@
CONST	SEGMENT DWORD USE32 PUBLIC 'CONST'
CONST	ENDS
sxdata	SEGMENT DWORD USE32 'SXDATA'
sxdata	ENDS
FLAT	GROUP _DATA, CONST, _BSS
	ASSUME	CS: FLAT, DS: FLAT, SS: FLAT
endif

INCLUDELIB LIBCMT
INCLUDELIB OLDNAMES

PUBLIC	?g_pHelpStringTable@@3PAVMHelpStringTable@@A	; g_pHelpStringTable
_BSS	SEGMENT
?g_pHelpStringTable@@3PAVMHelpStringTable@@A DD 01H DUP (?) ; g_pHelpStringTable
_BSS	ENDS
PUBLIC	?read@ivfstream@@QAEXPADI@Z			; ivfstream::read
; Function compile flags: /Ogsy
; File c:\darkeden\designed_common\project\client\virtualfilesystem\vfstream.inl
;	COMDAT ?read@ivfstream@@QAEXPADI@Z
_TEXT	SEGMENT
_buf$ = 8						; size = 4
_len$ = 12						; size = 4
?read@ivfstream@@QAEXPADI@Z PROC NEAR			; ivfstream::read, COMDAT
; _this$ = ecx

; 81   : 	if(m_pFileIO) m_pFileIO->read(buf, len);

  00000	83 79 04 00	 cmp	 DWORD PTR [ecx+4], 0
  00004	74 08		 je	 SHORT $L100364
  00006	8b 49 04	 mov	 ecx, DWORD PTR [ecx+4]
  00009	8b 01		 mov	 eax, DWORD PTR [ecx]
  0000b	ff 60 10	 jmp	 DWORD PTR [eax+16]
$L100364:

; 82   : }

  0000e	c2 08 00	 ret	 8
?read@ivfstream@@QAEXPADI@Z ENDP			; ivfstream::read
_TEXT	ENDS
PUBLIC	?GetSize@?$CTypeTable@_N@@QBEHXZ		; CTypeTable<bool>::GetSize
; Function compile flags: /Ogsy
; File c:\darkeden\designed_common\project\client\ctypetable.h
;	COMDAT ?GetSize@?$CTypeTable@_N@@QBEHXZ
_TEXT	SEGMENT
?GetSize@?$CTypeTable@_N@@QBEHXZ PROC NEAR		; CTypeTable<bool>::GetSize, COMDAT
; _this$ = ecx

; 32   : 		int				GetSize() const		{ return m_Size; }

  00000	8b 01		 mov	 eax, DWORD PTR [ecx]
  00002	c3		 ret	 0
?GetSize@?$CTypeTable@_N@@QBEHXZ ENDP			; CTypeTable<bool>::GetSize
_TEXT	ENDS
PUBLIC	??A?$CTypeTable@_N@@QAEAA_NH@Z			; CTypeTable<bool>::operator[]
; Function compile flags: /Ogsy
;	COMDAT ??A?$CTypeTable@_N@@QAEAA_NH@Z
_TEXT	SEGMENT
_type$ = 8						; size = 4
??A?$CTypeTable@_N@@QAEAA_NH@Z PROC NEAR		; CTypeTable<bool>::operator[], COMDAT
; _this$ = ecx

; 38   : 		Type&	operator [] (int type)				{ return m_pTypeInfo[type]; }

  00000	8b 41 04	 mov	 eax, DWORD PTR [ecx+4]
  00003	03 44 24 04	 add	 eax, DWORD PTR _type$[esp-4]
  00007	c2 04 00	 ret	 4
??A?$CTypeTable@_N@@QAEAA_NH@Z ENDP			; CTypeTable<bool>::operator[]
_TEXT	ENDS
PUBLIC	??0?$CTypeTable@_N@@QAE@XZ			; CTypeTable<bool>::CTypeTable<bool>
; Function compile flags: /Ogsy
;	COMDAT ??0?$CTypeTable@_N@@QAE@XZ
_TEXT	SEGMENT
??0?$CTypeTable@_N@@QAE@XZ PROC NEAR			; CTypeTable<bool>::CTypeTable<bool>, COMDAT
; _this$ = ecx

; 64   : {

  00000	8b c1		 mov	 eax, ecx

; 65   : 	m_pTypeInfo	= NULL;

  00002	83 60 04 00	 and	 DWORD PTR [eax+4], 0

; 66   : 	m_Size		= 0;

  00006	83 20 00	 and	 DWORD PTR [eax], 0

; 67   : }

  00009	c3		 ret	 0
??0?$CTypeTable@_N@@QAE@XZ ENDP				; CTypeTable<bool>::CTypeTable<bool>
_TEXT	ENDS
PUBLIC	??_EMString@@UAEPAXI@Z				; MString::`vector deleting destructor'
EXTRN	??1MString@@UAE@XZ:NEAR				; MString::~MString
EXTRN	??_M@YGXPAXIHP6EX0@Z@Z:NEAR			; `eh vector destructor iterator'
EXTRN	??3@YAXPAX@Z:NEAR				; operator delete
EXTRN	??_V@YAXPAX@Z:NEAR				; operator delete[]
; Function compile flags: /Ogsy
;	COMDAT ??_EMString@@UAEPAXI@Z
_TEXT	SEGMENT
___flags$ = 8						; size = 4
??_EMString@@UAEPAXI@Z PROC NEAR			; MString::`vector deleting destructor', COMDAT
; _this$ = ecx
  00000	53		 push	 ebx
  00001	8a 5c 24 08	 mov	 bl, BYTE PTR ___flags$[esp]
  00005	f6 c3 02	 test	 bl, 2
  00008	56		 push	 esi
  00009	8b f1		 mov	 esi, ecx
  0000b	74 24		 je	 SHORT $L101133
  0000d	57		 push	 edi
  0000e	68 00 00 00 00	 push	 OFFSET FLAT:??1MString@@UAE@XZ ; MString::~MString
  00013	8d 7e fc	 lea	 edi, DWORD PTR [esi-4]
  00016	ff 37		 push	 DWORD PTR [edi]
  00018	6a 0c		 push	 12			; 0000000cH
  0001a	56		 push	 esi
  0001b	e8 00 00 00 00	 call	 ??_M@YGXPAXIHP6EX0@Z@Z
  00020	f6 c3 01	 test	 bl, 1
  00023	74 07		 je	 SHORT $L101134
  00025	57		 push	 edi
  00026	e8 00 00 00 00	 call	 ??_V@YAXPAX@Z		; operator delete[]
  0002b	59		 pop	 ecx
$L101134:
  0002c	8b c7		 mov	 eax, edi
  0002e	5f		 pop	 edi
  0002f	eb 15		 jmp	 SHORT $L101132
$L101133:
  00031	8b ce		 mov	 ecx, esi
  00033	e8 00 00 00 00	 call	 ??1MString@@UAE@XZ	; MString::~MString
  00038	f6 c3 01	 test	 bl, 1
  0003b	74 07		 je	 SHORT $L101136
  0003d	56		 push	 esi
  0003e	e8 00 00 00 00	 call	 ??3@YAXPAX@Z		; operator delete
  00043	59		 pop	 ecx
$L101136:
  00044	8b c6		 mov	 eax, esi
$L101132:
  00046	5e		 pop	 esi
  00047	5b		 pop	 ebx
  00048	c2 04 00	 ret	 4
??_EMString@@UAEPAXI@Z ENDP				; MString::`vector deleting destructor'
_TEXT	ENDS
PUBLIC	?Release@?$CTypeTable@VMString@@@@QAEXXZ	; CTypeTable<MString>::Release
; Function compile flags: /Ogsy
;	COMDAT ?Release@?$CTypeTable@VMString@@@@QAEXXZ
_TEXT	SEGMENT
?Release@?$CTypeTable@VMString@@@@QAEXXZ PROC NEAR	; CTypeTable<MString>::Release, COMDAT
; _this$ = ecx

; 108  : {

  00000	56		 push	 esi
  00001	8b f1		 mov	 esi, ecx

; 109  : 	if (m_pTypeInfo != NULL)

  00003	8b 4e 04	 mov	 ecx, DWORD PTR [esi+4]
  00006	85 c9		 test	 ecx, ecx
  00008	74 1e		 je	 SHORT $L101217

; 110  : 	{
; 111  : 		// 모든 CSprite를 지운다.
; 112  : 		delete [] m_pTypeInfo;

  0000a	8d 41 fc	 lea	 eax, DWORD PTR [ecx-4]
  0000d	83 38 00	 cmp	 DWORD PTR [eax], 0
  00010	74 08		 je	 SHORT $L101675
  00012	8b 01		 mov	 eax, DWORD PTR [ecx]
  00014	6a 03		 push	 3
  00016	ff 10		 call	 DWORD PTR [eax]
  00018	eb 07		 jmp	 SHORT $L101676
$L101675:
  0001a	50		 push	 eax
  0001b	e8 00 00 00 00	 call	 ??_V@YAXPAX@Z		; operator delete[]
  00020	59		 pop	 ecx
$L101676:

; 113  : 		m_pTypeInfo = NULL;

  00021	83 66 04 00	 and	 DWORD PTR [esi+4], 0

; 114  : 		
; 115  : 		m_Size = 0;

  00025	83 26 00	 and	 DWORD PTR [esi], 0
$L101217:
  00028	5e		 pop	 esi

; 116  : 	}
; 117  : }

  00029	c3		 ret	 0
?Release@?$CTypeTable@VMString@@@@QAEXXZ ENDP		; CTypeTable<MString>::Release
_TEXT	ENDS
PUBLIC	?Release@?$CTypeTable@_N@@QAEXXZ		; CTypeTable<bool>::Release
; Function compile flags: /Ogsy
;	COMDAT ?Release@?$CTypeTable@_N@@QAEXXZ
_TEXT	SEGMENT
?Release@?$CTypeTable@_N@@QAEXXZ PROC NEAR		; CTypeTable<bool>::Release, COMDAT
; _this$ = ecx

; 108  : {

  00000	56		 push	 esi
  00001	8b f1		 mov	 esi, ecx

; 109  : 	if (m_pTypeInfo != NULL)

  00003	8b 46 04	 mov	 eax, DWORD PTR [esi+4]
  00006	85 c0		 test	 eax, eax
  00008	74 0e		 je	 SHORT $L101225

; 110  : 	{
; 111  : 		// 모든 CSprite를 지운다.
; 112  : 		delete [] m_pTypeInfo;

  0000a	50		 push	 eax
  0000b	e8 00 00 00 00	 call	 ??_V@YAXPAX@Z		; operator delete[]

; 113  : 		m_pTypeInfo = NULL;

  00010	83 66 04 00	 and	 DWORD PTR [esi+4], 0

; 114  : 		
; 115  : 		m_Size = 0;

  00014	83 26 00	 and	 DWORD PTR [esi], 0
  00017	59		 pop	 ecx
$L101225:
  00018	5e		 pop	 esi

; 116  : 	}
; 117  : }

  00019	c3		 ret	 0
?Release@?$CTypeTable@_N@@QAEXXZ ENDP			; CTypeTable<bool>::Release
_TEXT	ENDS
PUBLIC	?ClearDisplayed@MHelpStringTable@@QAEXXZ	; MHelpStringTable::ClearDisplayed
; Function compile flags: /Ogsy
; File c:\darkeden\designed_common\project\client\mhelpstringtable.cpp
;	COMDAT ?ClearDisplayed@MHelpStringTable@@QAEXXZ
_TEXT	SEGMENT
?ClearDisplayed@MHelpStringTable@@QAEXXZ PROC NEAR	; MHelpStringTable::ClearDisplayed, COMDAT
; _this$ = ecx

; 49   : 	for (int i=0; i<m_Displayed.GetSize(); i++)

  00000	33 c0		 xor	 eax, eax
  00002	39 41 08	 cmp	 DWORD PTR [ecx+8], eax
  00005	7e 0d		 jle	 SHORT $L100815
$L100813:

; 50   : 	{
; 51   : 		m_Displayed[i] = false;

  00007	8b 51 0c	 mov	 edx, DWORD PTR [ecx+12]
  0000a	c6 04 10 00	 mov	 BYTE PTR [eax+edx], 0
  0000e	40		 inc	 eax
  0000f	3b 41 08	 cmp	 eax, DWORD PTR [ecx+8]
  00012	7c f3		 jl	 SHORT $L100813
$L100815:

; 52   : 	}
; 53   : }

  00014	c3		 ret	 0
?ClearDisplayed@MHelpStringTable@@QAEXXZ ENDP		; MHelpStringTable::ClearDisplayed
_TEXT	ENDS
PUBLIC	??AMHelpStringTable@@QAEAAVMString@@H@Z		; MHelpStringTable::operator[]
; Function compile flags: /Ogsy
;	COMDAT ??AMHelpStringTable@@QAEAAVMString@@H@Z
_TEXT	SEGMENT
_type$ = 8						; size = 4
??AMHelpStringTable@@QAEAAVMString@@H@Z PROC NEAR	; MHelpStringTable::operator[], COMDAT
; _this$ = ecx

; 74   : 	m_Displayed[type] = true;

  00000	8b 51 0c	 mov	 edx, DWORD PTR [ecx+12]
  00003	8b 44 24 04	 mov	 eax, DWORD PTR _type$[esp-4]
  00007	c6 04 10 01	 mov	 BYTE PTR [eax+edx], 1

; 75   : 	return m_pTypeInfo[type]; 

  0000b	8b 49 04	 mov	 ecx, DWORD PTR [ecx+4]
  0000e	8d 04 40	 lea	 eax, DWORD PTR [eax+eax*2]
  00011	8d 04 81	 lea	 eax, DWORD PTR [ecx+eax*4]

; 76   : }

  00014	c2 04 00	 ret	 4
??AMHelpStringTable@@QAEAAVMString@@H@Z ENDP		; MHelpStringTable::operator[]
_TEXT	ENDS
PUBLIC	?Get@MHelpStringTable@@QAEAAVMString@@H@Z	; MHelpStringTable::Get
; Function compile flags: /Ogsy
;	COMDAT ?Get@MHelpStringTable@@QAEAAVMString@@H@Z
_TEXT	SEGMENT
_type$ = 8						; size = 4
?Get@MHelpStringTable@@QAEAAVMString@@H@Z PROC NEAR	; MHelpStringTable::Get, COMDAT
; _this$ = ecx

; 84   : 	m_Displayed[type] = true;

  00000	8b 51 0c	 mov	 edx, DWORD PTR [ecx+12]
  00003	8b 44 24 04	 mov	 eax, DWORD PTR _type$[esp-4]
  00007	c6 04 10 01	 mov	 BYTE PTR [eax+edx], 1

; 85   : 	return m_pTypeInfo[type]; 

  0000b	8b 49 04	 mov	 ecx, DWORD PTR [ecx+4]
  0000e	8d 04 40	 lea	 eax, DWORD PTR [eax+eax*2]
  00011	8d 04 81	 lea	 eax, DWORD PTR [ecx+eax*4]

; 86   : }

  00014	c2 04 00	 ret	 4
?Get@MHelpStringTable@@QAEAAVMString@@H@Z ENDP		; MHelpStringTable::Get
_TEXT	ENDS
PUBLIC	?Init@?$CTypeTable@VMString@@@@QAEXH@Z		; CTypeTable<MString>::Init
EXTRN	??_L@YGXPAXIHP6EX0@Z1@Z:NEAR			; `eh vector constructor iterator'
EXTRN	??0MString@@QAE@XZ:NEAR				; MString::MString
EXTRN	__EH_prolog:NEAR
EXTRN	__except_list:DWORD
EXTRN	___CxxFrameHandler:NEAR
EXTRN	??_U@YAPAXI@Z:NEAR				; operator new[]
;	COMDAT xdata$x
; File c:\darkeden\designed_common\project\client\ctypetable.h
xdata$x	SEGMENT
$T101723 DD	0ffffffffH
	DD	FLAT:$L101715
$T101719 DD	019930520H
	DD	01H
	DD	FLAT:$T101723
	DD	2 DUP(00H)
	DD	2 DUP(00H)
; Function compile flags: /Ogsy
xdata$x	ENDS
;	COMDAT ?Init@?$CTypeTable@VMString@@@@QAEXH@Z
_TEXT	SEGMENT
__$EHRec$ = -12						; size = 12
$T101712 = 8						; size = 4
_size$ = 8						; size = 4
?Init@?$CTypeTable@VMString@@@@QAEXH@Z PROC NEAR	; CTypeTable<MString>::Init, COMDAT
; _this$ = ecx

; 87   : {

  00000	b8 00 00 00 00	 mov	 eax, __ehhandler$?Init@?$CTypeTable@VMString@@@@QAEXH@Z
  00005	e8 00 00 00 00	 call	 __EH_prolog
  0000a	53		 push	 ebx
  0000b	56		 push	 esi

; 88   : 	// 개수가 없을 경우 
; 89   : 	if (size==0) 

  0000c	8b 75 08	 mov	 esi, DWORD PTR _size$[ebp]
  0000f	57		 push	 edi
  00010	33 ff		 xor	 edi, edi
  00012	3b f7		 cmp	 esi, edi
  00014	8b d9		 mov	 ebx, ecx
  00016	74 3d		 je	 SHORT $L101066

; 90   : 		return;
; 91   : 
; 92   : 	// 일단 해제
; 93   : 	Release();

  00018	e8 00 00 00 00	 call	 ?Release@?$CTypeTable@VMString@@@@QAEXXZ ; CTypeTable<MString>::Release

; 94   : 
; 95   : 	// 메모리 잡기
; 96   : 	m_Size = size;
; 97   : 	
; 98   : 	m_pTypeInfo = new Type [m_Size];	

  0001d	8d 04 76	 lea	 eax, DWORD PTR [esi+esi*2]
  00020	8d 04 85 04 00
	00 00		 lea	 eax, DWORD PTR [eax*4+4]
  00027	50		 push	 eax
  00028	89 33		 mov	 DWORD PTR [ebx], esi
  0002a	e8 00 00 00 00	 call	 ??_U@YAPAXI@Z		; operator new[]
  0002f	59		 pop	 ecx
  00030	89 45 08	 mov	 DWORD PTR $T101712[ebp], eax
  00033	3b c7		 cmp	 eax, edi
  00035	89 7d fc	 mov	 DWORD PTR __$EHRec$[ebp+8], edi
  00038	74 18		 je	 SHORT $L101714
  0003a	68 00 00 00 00	 push	 OFFSET FLAT:??1MString@@UAE@XZ ; MString::~MString
  0003f	68 00 00 00 00	 push	 OFFSET FLAT:??0MString@@QAE@XZ ; MString::MString
  00044	56		 push	 esi
  00045	8d 78 04	 lea	 edi, DWORD PTR [eax+4]
  00048	6a 0c		 push	 12			; 0000000cH
  0004a	57		 push	 edi
  0004b	89 30		 mov	 DWORD PTR [eax], esi
  0004d	e8 00 00 00 00	 call	 ??_L@YGXPAXIHP6EX0@Z1@Z
$L101714:
  00052	89 7b 04	 mov	 DWORD PTR [ebx+4], edi
$L101066:

; 99   : }

  00055	8b 4d f4	 mov	 ecx, DWORD PTR __$EHRec$[ebp]
  00058	5f		 pop	 edi
  00059	5e		 pop	 esi
  0005a	5b		 pop	 ebx
  0005b	64 89 0d 00 00
	00 00		 mov	 DWORD PTR fs:__except_list, ecx
  00062	c9		 leave
  00063	c2 04 00	 ret	 4
_TEXT	ENDS
;	COMDAT text$x
text$x	SEGMENT
$L101715:
  00000	ff 75 08	 push	 DWORD PTR $T101712[ebp]
  00003	e8 00 00 00 00	 call	 ??_V@YAXPAX@Z		; operator delete[]
  00008	59		 pop	 ecx
  00009	c3		 ret	 0
__ehhandler$?Init@?$CTypeTable@VMString@@@@QAEXH@Z:
  0000a	b8 00 00 00 00	 mov	 eax, OFFSET FLAT:$T101719
  0000f	e9 00 00 00 00	 jmp	 ___CxxFrameHandler
text$x	ENDS
?Init@?$CTypeTable@VMString@@@@QAEXH@Z ENDP		; CTypeTable<MString>::Init
PUBLIC	?LoadFromFile@?$CTypeTable@VMString@@@@QAEXAAVivfstream@@@Z ; CTypeTable<MString>::LoadFromFile
; Function compile flags: /Ogsy
;	COMDAT ?LoadFromFile@?$CTypeTable@VMString@@@@QAEXAAVivfstream@@@Z
_TEXT	SEGMENT
_numSize$ = -4						; size = 4
_file$ = 8						; size = 4
?LoadFromFile@?$CTypeTable@VMString@@@@QAEXAAVivfstream@@@Z PROC NEAR ; CTypeTable<MString>::LoadFromFile, COMDAT
; _this$ = ecx

; 146  : {

  00000	55		 push	 ebp
  00001	8b ec		 mov	 ebp, esp
  00003	51		 push	 ecx

; 147  : 	int numSize;
; 148  : 	
; 149  : 	// size 읽어오기
; 150  : 	file.read((char*)&numSize, 4);

  00004	8b 45 08	 mov	 eax, DWORD PTR _file$[ebp]
  00007	53		 push	 ebx
  00008	33 db		 xor	 ebx, ebx
  0000a	39 58 04	 cmp	 DWORD PTR [eax+4], ebx
  0000d	56		 push	 esi
  0000e	8b f1		 mov	 esi, ecx
  00010	74 10		 je	 SHORT $L101731
  00012	8b 40 04	 mov	 eax, DWORD PTR [eax+4]
  00015	8b 10		 mov	 edx, DWORD PTR [eax]
  00017	6a 04		 push	 4
  00019	8d 4d fc	 lea	 ecx, DWORD PTR _numSize$[ebp]
  0001c	51		 push	 ecx
  0001d	8b c8		 mov	 ecx, eax
  0001f	ff 52 10	 call	 DWORD PTR [edx+16]
$L101731:

; 151  : 
; 152  : 	// 현재 잡혀있는 메모리와 다르면 다시 메모리를 잡는다.
; 153  : 	if (m_Size != numSize)

  00022	8b 06		 mov	 eax, DWORD PTR [esi]
  00024	3b 45 fc	 cmp	 eax, DWORD PTR _numSize$[ebp]
  00027	74 11		 je	 SHORT $L101082

; 154  : 	{
; 155  : 		// 메모리 해제
; 156  : 		Release();

  00029	8b ce		 mov	 ecx, esi
  0002b	e8 00 00 00 00	 call	 ?Release@?$CTypeTable@VMString@@@@QAEXXZ ; CTypeTable<MString>::Release

; 157  : 
; 158  : 		// 메모리 잡기
; 159  : 		Init( numSize );

  00030	ff 75 fc	 push	 DWORD PTR _numSize$[ebp]
  00033	8b ce		 mov	 ecx, esi
  00035	e8 00 00 00 00	 call	 ?Init@?$CTypeTable@VMString@@@@QAEXH@Z ; CTypeTable<MString>::Init
$L101082:

; 160  : 	}
; 161  : 
; 162  : 	// file에서 각각의 정보를 읽어들인다.
; 163  : 	for (int i=0; i<m_Size; i++)

  0003a	39 1e		 cmp	 DWORD PTR [esi], ebx
  0003c	7e 1a		 jle	 SHORT $L101086
  0003e	57		 push	 edi
  0003f	33 ff		 xor	 edi, edi
$L101084:

; 164  : 	{
; 165  :  		m_pTypeInfo[i].LoadFromFile( file );

  00041	8b 46 04	 mov	 eax, DWORD PTR [esi+4]
  00044	ff 75 08	 push	 DWORD PTR _file$[ebp]
  00047	8d 0c 07	 lea	 ecx, DWORD PTR [edi+eax]
  0004a	8b 01		 mov	 eax, DWORD PTR [ecx]
  0004c	ff 50 08	 call	 DWORD PTR [eax+8]
  0004f	43		 inc	 ebx
  00050	83 c7 0c	 add	 edi, 12			; 0000000cH
  00053	3b 1e		 cmp	 ebx, DWORD PTR [esi]
  00055	7c ea		 jl	 SHORT $L101084
  00057	5f		 pop	 edi
$L101086:
  00058	5e		 pop	 esi
  00059	5b		 pop	 ebx

; 166  : 	}
; 167  : }

  0005a	c9		 leave
  0005b	c2 04 00	 ret	 4
?LoadFromFile@?$CTypeTable@VMString@@@@QAEXAAVivfstream@@@Z ENDP ; CTypeTable<MString>::LoadFromFile
_TEXT	ENDS
PUBLIC	??1?$CTypeTable@_N@@QAE@XZ			; CTypeTable<bool>::~CTypeTable<bool>
; Function compile flags: /Ogsy
;	COMDAT ??1?$CTypeTable@_N@@QAE@XZ
_TEXT	SEGMENT
??1?$CTypeTable@_N@@QAE@XZ PROC NEAR			; CTypeTable<bool>::~CTypeTable<bool>, COMDAT
; _this$ = ecx

; 72   : 	Release();

  00000	e9 00 00 00 00	 jmp	 ?Release@?$CTypeTable@_N@@QAEXXZ ; CTypeTable<bool>::Release
??1?$CTypeTable@_N@@QAE@XZ ENDP				; CTypeTable<bool>::~CTypeTable<bool>
_TEXT	ENDS
PUBLIC	?Init@?$CTypeTable@_N@@QAEXH@Z			; CTypeTable<bool>::Init
; Function compile flags: /Ogsy
;	COMDAT ?Init@?$CTypeTable@_N@@QAEXH@Z
_TEXT	SEGMENT
_size$ = 8						; size = 4
?Init@?$CTypeTable@_N@@QAEXH@Z PROC NEAR		; CTypeTable<bool>::Init, COMDAT
; _this$ = ecx

; 87   : {

  00000	56		 push	 esi
  00001	57		 push	 edi

; 88   : 	// 개수가 없을 경우 
; 89   : 	if (size==0) 

  00002	8b 7c 24 0c	 mov	 edi, DWORD PTR _size$[esp+4]
  00006	85 ff		 test	 edi, edi
  00008	8b f1		 mov	 esi, ecx
  0000a	74 11		 je	 SHORT $L101099

; 90   : 		return;
; 91   : 
; 92   : 	// 일단 해제
; 93   : 	Release();

  0000c	e8 00 00 00 00	 call	 ?Release@?$CTypeTable@_N@@QAEXXZ ; CTypeTable<bool>::Release

; 94   : 
; 95   : 	// 메모리 잡기
; 96   : 	m_Size = size;
; 97   : 	
; 98   : 	m_pTypeInfo = new Type [m_Size];	

  00011	57		 push	 edi
  00012	89 3e		 mov	 DWORD PTR [esi], edi
  00014	e8 00 00 00 00	 call	 ??_U@YAPAXI@Z		; operator new[]
  00019	59		 pop	 ecx
  0001a	89 46 04	 mov	 DWORD PTR [esi+4], eax
$L101099:
  0001d	5f		 pop	 edi
  0001e	5e		 pop	 esi

; 99   : }

  0001f	c2 04 00	 ret	 4
?Init@?$CTypeTable@_N@@QAEXH@Z ENDP			; CTypeTable<bool>::Init
_TEXT	ENDS
PUBLIC	??0MHelpStringTable@@QAE@XZ			; MHelpStringTable::MHelpStringTable
EXTRN	??0MStringArray@@QAE@XZ:NEAR			; MStringArray::MStringArray
; Function compile flags: /Ogsy
; File c:\darkeden\designed_common\project\client\mhelpstringtable.cpp
;	COMDAT ??0MHelpStringTable@@QAE@XZ
_TEXT	SEGMENT
??0MHelpStringTable@@QAE@XZ PROC NEAR			; MHelpStringTable::MHelpStringTable, COMDAT
; _this$ = ecx

; 18   : {

  00000	56		 push	 esi
  00001	8b f1		 mov	 esi, ecx
  00003	e8 00 00 00 00	 call	 ??0MStringArray@@QAE@XZ	; MStringArray::MStringArray
  00008	83 66 0c 00	 and	 DWORD PTR [esi+12], 0
  0000c	83 66 08 00	 and	 DWORD PTR [esi+8], 0

; 19   : }

  00010	8b c6		 mov	 eax, esi
  00012	5e		 pop	 esi
  00013	c3		 ret	 0
??0MHelpStringTable@@QAE@XZ ENDP			; MHelpStringTable::MHelpStringTable
_TEXT	ENDS
PUBLIC	??1MHelpStringTable@@QAE@XZ			; MHelpStringTable::~MHelpStringTable
EXTRN	??1MStringArray@@QAE@XZ:NEAR			; MStringArray::~MStringArray
; Function compile flags: /Ogsy
;	COMDAT ??1MHelpStringTable@@QAE@XZ
_TEXT	SEGMENT
??1MHelpStringTable@@QAE@XZ PROC NEAR			; MHelpStringTable::~MHelpStringTable, COMDAT
; _this$ = ecx

; 22   : {

  00000	56		 push	 esi
  00001	8b f1		 mov	 esi, ecx

; 23   : }

  00003	8d 4e 08	 lea	 ecx, DWORD PTR [esi+8]
  00006	e8 00 00 00 00	 call	 ?Release@?$CTypeTable@_N@@QAEXXZ ; CTypeTable<bool>::Release
  0000b	8b ce		 mov	 ecx, esi
  0000d	5e		 pop	 esi
  0000e	e9 00 00 00 00	 jmp	 ??1MStringArray@@QAE@XZ	; MStringArray::~MStringArray
??1MHelpStringTable@@QAE@XZ ENDP			; MHelpStringTable::~MHelpStringTable
_TEXT	ENDS
PUBLIC	?Init@MHelpStringTable@@QAEXH@Z			; MHelpStringTable::Init
; Function compile flags: /Ogsy
;	COMDAT ?Init@MHelpStringTable@@QAEXH@Z
_TEXT	SEGMENT
_size$ = 8						; size = 4
?Init@MHelpStringTable@@QAEXH@Z PROC NEAR		; MHelpStringTable::Init, COMDAT
; _this$ = ecx

; 35   : {

  00000	56		 push	 esi

; 36   : 	MStringArray::Init( size );

  00001	ff 74 24 08	 push	 DWORD PTR _size$[esp]
  00005	8b f1		 mov	 esi, ecx
  00007	e8 00 00 00 00	 call	 ?Init@?$CTypeTable@VMString@@@@QAEXH@Z ; CTypeTable<MString>::Init

; 37   : 
; 38   : 	m_Displayed.Init( size );

  0000c	ff 74 24 08	 push	 DWORD PTR _size$[esp]
  00010	8d 4e 08	 lea	 ecx, DWORD PTR [esi+8]
  00013	e8 00 00 00 00	 call	 ?Init@?$CTypeTable@_N@@QAEXH@Z ; CTypeTable<bool>::Init

; 39   : 
; 40   : 	ClearDisplayed();

  00018	8b ce		 mov	 ecx, esi
  0001a	e8 00 00 00 00	 call	 ?ClearDisplayed@MHelpStringTable@@QAEXXZ ; MHelpStringTable::ClearDisplayed
  0001f	5e		 pop	 esi

; 41   : }

  00020	c2 04 00	 ret	 4
?Init@MHelpStringTable@@QAEXH@Z ENDP			; MHelpStringTable::Init
_TEXT	ENDS
PUBLIC	?LoadFromFile@MHelpStringTable@@QAEXAAVivfstream@@@Z ; MHelpStringTable::LoadFromFile
; Function compile flags: /Ogsy
;	COMDAT ?LoadFromFile@MHelpStringTable@@QAEXAAVivfstream@@@Z
_TEXT	SEGMENT
_file$ = 8						; size = 4
?LoadFromFile@MHelpStringTable@@QAEXAAVivfstream@@@Z PROC NEAR ; MHelpStringTable::LoadFromFile, COMDAT
; _this$ = ecx

; 60   : {

  00000	56		 push	 esi

; 61   : 	MStringArray::LoadFromFile( file );

  00001	ff 74 24 08	 push	 DWORD PTR _file$[esp]
  00005	8b f1		 mov	 esi, ecx
  00007	e8 00 00 00 00	 call	 ?LoadFromFile@?$CTypeTable@VMString@@@@QAEXAAVivfstream@@@Z ; CTypeTable<MString>::LoadFromFile

; 62   : 
; 63   : 	m_Displayed.Init( m_Size );

  0000c	ff 36		 push	 DWORD PTR [esi]
  0000e	8d 4e 08	 lea	 ecx, DWORD PTR [esi+8]
  00011	e8 00 00 00 00	 call	 ?Init@?$CTypeTable@_N@@QAEXH@Z ; CTypeTable<bool>::Init

; 64   : 
; 65   : 	ClearDisplayed();

  00016	8b ce		 mov	 ecx, esi
  00018	e8 00 00 00 00	 call	 ?ClearDisplayed@MHelpStringTable@@QAEXXZ ; MHelpStringTable::ClearDisplayed
  0001d	5e		 pop	 esi

; 66   : }

  0001e	c2 04 00	 ret	 4
?LoadFromFile@MHelpStringTable@@QAEXAAVivfstream@@@Z ENDP ; MHelpStringTable::LoadFromFile
_TEXT	ENDS
END
