; Listing generated by Microsoft (R) Optimizing Compiler Version 13.10.3077 

	TITLE	\darkeden\Designed_Common\Project\Client\MJusticeAttackManager.cpp
	.386P
include listing.inc
if @Version gt 510
.model FLAT
else
_TEXT	SEGMENT PARA USE32 PUBLIC 'CODE'
_TEXT	ENDS
_DATA	SEGMENT DWORD USE32 PUBLIC 'DATA'
_DATA	ENDS
CONST	SEGMENT DWORD USE32 PUBLIC 'CONST'
CONST	ENDS
_BSS	SEGMENT DWORD USE32 PUBLIC 'BSS'
_BSS	ENDS
$$SYMBOLS	SEGMENT BYTE USE32 'DEBSYM'
$$SYMBOLS	ENDS
$$TYPES	SEGMENT BYTE USE32 'DEBTYP'
$$TYPES	ENDS
_TLS	SEGMENT DWORD USE32 PUBLIC 'TLS'
_TLS	ENDS
;	COMDAT ??_C@_0BN@ODLNCKCA@Data?2?2Info?2?2ClientConfig?4inf?$AA@
CONST	SEGMENT DWORD USE32 PUBLIC 'CONST'
CONST	ENDS
;	COMDAT ??_C@_0BM@DFPLPGPC@Data?2?2Info?2?2GuildMapper?4inf?$AA@
CONST	SEGMENT DWORD USE32 PUBLIC 'CONST'
CONST	ENDS
;	COMDAT ??_C@_0BN@LHODHNBK@Data?2?2Info?2?2GuildVersion?4inf?$AA@
CONST	SEGMENT DWORD USE32 PUBLIC 'CONST'
CONST	ENDS
;	COMDAT ??_C@_0BH@DDPLNCOL@Data?2?2Info?2?2Player?4inf?$AA@
CONST	SEGMENT DWORD USE32 PUBLIC 'CONST'
CONST	ENDS
;	COMDAT ??_C@_0BL@ILLNAPHB@Data?2?2Info?2?2Resolution?4inf?$AA@
CONST	SEGMENT DWORD USE32 PUBLIC 'CONST'
CONST	ENDS
;	COMDAT ??_C@_0CA@HEIGFDLG@Data?2?2Info?2?2SelectedChannel?4inf?$AA@
CONST	SEGMENT DWORD USE32 PUBLIC 'CONST'
CONST	ENDS
;	COMDAT ??_C@_0N@GOPDCEEB@basic_string?$AA@
CONST	SEGMENT DWORD USE32 PUBLIC 'CONST'
CONST	ENDS
rdata$r	SEGMENT DWORD USE32 PUBLIC 'CONST'
rdata$r	ENDS
text$yc	SEGMENT PARA USE32 PUBLIC 'CODE'
text$yc	ENDS
CRT$XCA	SEGMENT DWORD USE32 PUBLIC 'DATA'
CRT$XCA	ENDS
CRT$XCU	SEGMENT DWORD USE32 PUBLIC 'DATA'
CRT$XCU	ENDS
CRT$XCL	SEGMENT DWORD USE32 PUBLIC 'DATA'
CRT$XCL	ENDS
CRT$XCC	SEGMENT DWORD USE32 PUBLIC 'DATA'
CRT$XCC	ENDS
CRT$XCZ	SEGMENT DWORD USE32 PUBLIC 'DATA'
CRT$XCZ	ENDS
text$yd	SEGMENT PARA USE32 PUBLIC 'CODE'
text$yd	ENDS
;	COMDAT ?start@CNFS@@QAE_NPADH@Z
_TEXT	SEGMENT PARA USE32 PUBLIC 'CODE'
_TEXT	ENDS
;	COMDAT ?end@CNFS@@QAEXXZ
_TEXT	SEGMENT PARA USE32 PUBLIC 'CODE'
_TEXT	ENDS
;	COMDAT ?Init@VirtualFileHeader@@QAEXXZ
_TEXT	SEGMENT PARA USE32 PUBLIC 'CODE'
_TEXT	ENDS
;	COMDAT ??1IFileIO@@UAE@XZ
_TEXT	SEGMENT PARA USE32 PUBLIC 'CODE'
_TEXT	ENDS
;	COMDAT ??_GIFileIO@@UAEPAXI@Z
_TEXT	SEGMENT PARA USE32 PUBLIC 'CODE'
_TEXT	ENDS
;	COMDAT ??0iovfs_base@@QAE@XZ
_TEXT	SEGMENT PARA USE32 PUBLIC 'CODE'
_TEXT	ENDS
;	COMDAT ??_Giovfs_base@@UAEPAXI@Z
_TEXT	SEGMENT PARA USE32 PUBLIC 'CODE'
_TEXT	ENDS
;	COMDAT ??1iovfs_base@@UAE@XZ
_TEXT	SEGMENT PARA USE32 PUBLIC 'CODE'
_TEXT	ENDS
;	COMDAT ?Init@iovfs_base@@QAEXXZ
_TEXT	SEGMENT PARA USE32 PUBLIC 'CODE'
_TEXT	ENDS
;	COMDAT ??_Givfstream@@UAEPAXI@Z
_TEXT	SEGMENT PARA USE32 PUBLIC 'CODE'
_TEXT	ENDS
;	COMDAT ??1ivfstream@@UAE@XZ
_TEXT	SEGMENT PARA USE32 PUBLIC 'CODE'
_TEXT	ENDS
;	COMDAT ?open@ivfstream@@UAEXPBDH@Z
_TEXT	SEGMENT PARA USE32 PUBLIC 'CODE'
_TEXT	ENDS
;	COMDAT ??_Govfstream@@UAEPAXI@Z
_TEXT	SEGMENT PARA USE32 PUBLIC 'CODE'
_TEXT	ENDS
;	COMDAT ??1ovfstream@@UAE@XZ
_TEXT	SEGMENT PARA USE32 PUBLIC 'CODE'
_TEXT	ENDS
;	COMDAT ?open@ovfstream@@UAEXPBDH@Z
_TEXT	SEGMENT PARA USE32 PUBLIC 'CODE'
_TEXT	ENDS
;	COMDAT ??0MJusticeAttackManager@@QAE@XZ
_TEXT	SEGMENT PARA USE32 PUBLIC 'CODE'
_TEXT	ENDS
;	COMDAT ??1?$map@V?$basic_string@DV?$char_traits@D@_STL@@V?$allocator@D@2@@_STL@@KU?$less@V?$basic_string@DV?$char_traits@D@_STL@@V?$allocator@D@2@@_STL@@@2@V?$allocator@U?$pair@$$CBV?$basic_string@DV?$char_traits@D@_STL@@V?$allocator@D@2@@_STL@@K@_STL@@@2@@_STL@@QAE@XZ
_TEXT	SEGMENT PARA USE32 PUBLIC 'CODE'
_TEXT	ENDS
;	COMDAT ??1MJusticeAttackManager@@QAE@XZ
_TEXT	SEGMENT PARA USE32 PUBLIC 'CODE'
_TEXT	ENDS
;	COMDAT ?Release@MJusticeAttackManager@@QAEXXZ
_TEXT	SEGMENT PARA USE32 PUBLIC 'CODE'
_TEXT	ENDS
;	COMDAT ?AddCreature@MJusticeAttackManager@@QAEXPBD@Z
_TEXT	SEGMENT PARA USE32 PUBLIC 'CODE'
_TEXT	ENDS
;	COMDAT ?RemoveCreature@MJusticeAttackManager@@QAE_NPBD@Z
_TEXT	SEGMENT PARA USE32 PUBLIC 'CODE'
_TEXT	ENDS
;	COMDAT ?HasCreature@MJusticeAttackManager@@QBE_NPBD@Z
_TEXT	SEGMENT PARA USE32 PUBLIC 'CODE'
_TEXT	ENDS
;	COMDAT ?eq@?$__char_traits_base@DH@_STL@@SA_NABD0@Z
_TEXT	SEGMENT PARA USE32 PUBLIC 'CODE'
_TEXT	ENDS
;	COMDAT ?not_eof@?$__char_traits_base@DH@_STL@@SAHABH@Z
_TEXT	SEGMENT PARA USE32 PUBLIC 'CODE'
_TEXT	ENDS
;	COMDAT ?eq_int_type@?$__char_traits_base@DH@_STL@@SA_NABH0@Z
_TEXT	SEGMENT PARA USE32 PUBLIC 'CODE'
_TEXT	ENDS
;	COMDAT ?get_allocator@?$basic_string@DV?$char_traits@D@_STL@@V?$allocator@D@2@@_STL@@QBE?AV?$allocator@D@2@XZ
_TEXT	SEGMENT PARA USE32 PUBLIC 'CODE'
_TEXT	ENDS
;	COMDAT ??4?$basic_string@DV?$char_traits@D@_STL@@V?$allocator@D@2@@_STL@@QAEAAV01@PBD@Z
_TEXT	SEGMENT PARA USE32 PUBLIC 'CODE'
_TEXT	ENDS
;	COMDAT ?_M_terminate_string@?$basic_string@DV?$char_traits@D@_STL@@V?$allocator@D@2@@_STL@@AAEXXZ
_TEXT	SEGMENT PARA USE32 PUBLIC 'CODE'
_TEXT	ENDS
;	COMDAT ??0?$_String_base@DV?$allocator@D@_STL@@@_STL@@QAE@ABV?$allocator@D@1@@Z
_TEXT	SEGMENT PARA USE32 PUBLIC 'CODE'
_TEXT	ENDS
;	COMDAT ?allocate@?$allocator@D@_STL@@QAEPADIPBX@Z
_TEXT	SEGMENT PARA USE32 PUBLIC 'CODE'
_TEXT	ENDS
;	COMDAT ??0?$fpos@H@_STL@@QAE@J@Z
_TEXT	SEGMENT PARA USE32 PUBLIC 'CODE'
_TEXT	ENDS
;	COMDAT ??B?$fpos@H@_STL@@QBEJXZ
_TEXT	SEGMENT PARA USE32 PUBLIC 'CODE'
_TEXT	ENDS
;	COMDAT ?state@?$fpos@H@_STL@@QBEHXZ
_TEXT	SEGMENT PARA USE32 PUBLIC 'CODE'
_TEXT	ENDS
;	COMDAT ?is_open@?$basic_filebuf@DV?$char_traits@D@_STL@@@_STL@@QBE_NXZ
_TEXT	SEGMENT PARA USE32 PUBLIC 'CODE'
_TEXT	ENDS
;	COMDAT ?_M_seek_return@?$basic_filebuf@DV?$char_traits@D@_STL@@@_STL@@AAE?AV?$fpos@H@2@JH@Z
_TEXT	SEGMENT PARA USE32 PUBLIC 'CODE'
_TEXT	ENDS
;	COMDAT ??0?$_Filebuf_Tmp_Buf@D@_STL@@QAE@H@Z
_TEXT	SEGMENT PARA USE32 PUBLIC 'CODE'
_TEXT	ENDS
;	COMDAT ??1?$_Filebuf_Tmp_Buf@D@_STL@@QAE@XZ
_TEXT	SEGMENT PARA USE32 PUBLIC 'CODE'
_TEXT	ENDS
;	COMDAT ??0?$map@V?$basic_string@DV?$char_traits@D@_STL@@V?$allocator@D@2@@_STL@@KU?$less@V?$basic_string@DV?$char_traits@D@_STL@@V?$allocator@D@2@@_STL@@@2@V?$allocator@U?$pair@$$CBV?$basic_string@DV?$char_traits@D@_STL@@V?$allocator@D@2@@_STL@@K@_STL@@@2@@_STL@@QAE@XZ
_TEXT	SEGMENT PARA USE32 PUBLIC 'CODE'
_TEXT	ENDS
;	COMDAT ?end@?$map@V?$basic_string@DV?$char_traits@D@_STL@@V?$allocator@D@2@@_STL@@KU?$less@V?$basic_string@DV?$char_traits@D@_STL@@V?$allocator@D@2@@_STL@@@2@V?$allocator@U?$pair@$$CBV?$basic_string@DV?$char_traits@D@_STL@@V?$allocator@D@2@@_STL@@K@_STL@@@2@@_STL@@QAE?AU?$_Rb_tree_iterator@U?$pair@$$CBV?$basic_string@DV?$char_traits@D@_STL@@V?$allocator@D@2@@_STL@@K@_STL@@U?$_Nonconst_traits@U?$pair@$$CBV?$basic_string@DV?$char_traits@D@_STL@@V?$allocator@D@2@@_STL@@K@_STL@@@2@@2@XZ
_TEXT	SEGMENT PARA USE32 PUBLIC 'CODE'
_TEXT	ENDS
;	COMDAT ?end@?$map@V?$basic_string@DV?$char_traits@D@_STL@@V?$allocator@D@2@@_STL@@KU?$less@V?$basic_string@DV?$char_traits@D@_STL@@V?$allocator@D@2@@_STL@@@2@V?$allocator@U?$pair@$$CBV?$basic_string@DV?$char_traits@D@_STL@@V?$allocator@D@2@@_STL@@K@_STL@@@2@@_STL@@QBE?AU?$_Rb_tree_iterator@U?$pair@$$CBV?$basic_string@DV?$char_traits@D@_STL@@V?$allocator@D@2@@_STL@@K@_STL@@U?$_Const_traits@U?$pair@$$CBV?$basic_string@DV?$char_traits@D@_STL@@V?$allocator@D@2@@_STL@@K@_STL@@@2@@2@XZ
_TEXT	SEGMENT PARA USE32 PUBLIC 'CODE'
_TEXT	ENDS
;	COMDAT ??A?$map@V?$basic_string@DV?$char_traits@D@_STL@@V?$allocator@D@2@@_STL@@KU?$less@V?$basic_string@DV?$char_traits@D@_STL@@V?$allocator@D@2@@_STL@@@2@V?$allocator@U?$pair@$$CBV?$basic_string@DV?$char_traits@D@_STL@@V?$allocator@D@2@@_STL@@K@_STL@@@2@@_STL@@QAEAAKABV?$basic_string@DV?$char_traits@D@_STL@@V?$allocator@D@2@@1@@Z
_TEXT	SEGMENT PARA USE32 PUBLIC 'CODE'
_TEXT	ENDS
;	COMDAT ?erase@?$map@V?$basic_string@DV?$char_traits@D@_STL@@V?$allocator@D@2@@_STL@@KU?$less@V?$basic_string@DV?$char_traits@D@_STL@@V?$allocator@D@2@@_STL@@@2@V?$allocator@U?$pair@$$CBV?$basic_string@DV?$char_traits@D@_STL@@V?$allocator@D@2@@_STL@@K@_STL@@@2@@_STL@@QAEXU?$_Rb_tree_iterator@U?$pair@$$CBV?$basic_string@DV?$char_traits@D@_STL@@V?$allocator@D@2@@_STL@@K@_STL@@U?$_Nonconst_traits@U?$pair@$$CBV?$basic_string@DV?$char_traits@D@_STL@@V?$allocator@D@2@@_STL@@K@_STL@@@2@@2@@Z
_TEXT	SEGMENT PARA USE32 PUBLIC 'CODE'
_TEXT	ENDS
;	COMDAT ?clear@?$map@V?$basic_string@DV?$char_traits@D@_STL@@V?$allocator@D@2@@_STL@@KU?$less@V?$basic_string@DV?$char_traits@D@_STL@@V?$allocator@D@2@@_STL@@@2@V?$allocator@U?$pair@$$CBV?$basic_string@DV?$char_traits@D@_STL@@V?$allocator@D@2@@_STL@@K@_STL@@@2@@_STL@@QAEXXZ
_TEXT	SEGMENT PARA USE32 PUBLIC 'CODE'
_TEXT	ENDS
;	COMDAT ?find@?$map@V?$basic_string@DV?$char_traits@D@_STL@@V?$allocator@D@2@@_STL@@KU?$less@V?$basic_string@DV?$char_traits@D@_STL@@V?$allocator@D@2@@_STL@@@2@V?$allocator@U?$pair@$$CBV?$basic_string@DV?$char_traits@D@_STL@@V?$allocator@D@2@@_STL@@K@_STL@@@2@@_STL@@QAE?AU?$_Rb_tree_iterator@U?$pair@$$CBV?$basic_string@DV?$char_traits@D@_STL@@V?$allocator@D@2@@_STL@@K@_STL@@U?$_Nonconst_traits@U?$pair@$$CBV?$basic_string@DV?$char_traits@D@_STL@@V?$allocator@D@2@@_STL@@K@_STL@@@2@@2@ABV?$basic_string@DV?$char_traits@D@_STL@@V?$allocator@D@2@@2@@Z
_TEXT	SEGMENT PARA USE32 PUBLIC 'CODE'
_TEXT	ENDS
;	COMDAT ?find@?$map@V?$basic_string@DV?$char_traits@D@_STL@@V?$allocator@D@2@@_STL@@KU?$less@V?$basic_string@DV?$char_traits@D@_STL@@V?$allocator@D@2@@_STL@@@2@V?$allocator@U?$pair@$$CBV?$basic_string@DV?$char_traits@D@_STL@@V?$allocator@D@2@@_STL@@K@_STL@@@2@@_STL@@QBE?AU?$_Rb_tree_iterator@U?$pair@$$CBV?$basic_string@DV?$char_traits@D@_STL@@V?$allocator@D@2@@_STL@@K@_STL@@U?$_Const_traits@U?$pair@$$CBV?$basic_string@DV?$char_traits@D@_STL@@V?$allocator@D@2@@_STL@@K@_STL@@@2@@2@ABV?$basic_string@DV?$char_traits@D@_STL@@V?$allocator@D@2@@2@@Z
_TEXT	SEGMENT PARA USE32 PUBLIC 'CODE'
_TEXT	ENDS
;	COMDAT ??1?$_Rb_tree@V?$basic_string@DV?$char_traits@D@_STL@@V?$allocator@D@2@@_STL@@U?$pair@$$CBV?$basic_string@DV?$char_traits@D@_STL@@V?$allocator@D@2@@_STL@@K@2@U?$_Select1st@U?$pair@$$CBV?$basic_string@DV?$char_traits@D@_STL@@V?$allocator@D@2@@_STL@@K@_STL@@@2@U?$less@V?$basic_string@DV?$char_traits@D@_STL@@V?$allocator@D@2@@_STL@@@2@V?$allocator@U?$pair@$$CBV?$basic_string@DV?$char_traits@D@_STL@@V?$allocator@D@2@@_STL@@K@_STL@@@2@@_STL@@QAE@XZ
_TEXT	SEGMENT PARA USE32 PUBLIC 'CODE'
_TEXT	ENDS
;	COMDAT ??0?$_Rb_tree_iterator@U?$pair@$$CBV?$basic_string@DV?$char_traits@D@_STL@@V?$allocator@D@2@@_STL@@K@_STL@@U?$_Nonconst_traits@U?$pair@$$CBV?$basic_string@DV?$char_traits@D@_STL@@V?$allocator@D@2@@_STL@@K@_STL@@@2@@_STL@@QAE@ABU01@@Z
_TEXT	SEGMENT PARA USE32 PUBLIC 'CODE'
_TEXT	ENDS
;	COMDAT ??1?$pair@$$CBV?$basic_string@DV?$char_traits@D@_STL@@V?$allocator@D@2@@_STL@@K@_STL@@QAE@XZ
_TEXT	SEGMENT PARA USE32 PUBLIC 'CODE'
_TEXT	ENDS
;	COMDAT ?_M_terminate_string_aux@?$basic_string@DV?$char_traits@D@_STL@@V?$allocator@D@2@@_STL@@AAEXABU__true_type@2@@Z
_TEXT	SEGMENT PARA USE32 PUBLIC 'CODE'
_TEXT	ENDS
;	COMDAT ?assign@?$basic_string@DV?$char_traits@D@_STL@@V?$allocator@D@2@@_STL@@QAEAAV12@PBD0@Z
_TEXT	SEGMENT PARA USE32 PUBLIC 'CODE'
_TEXT	ENDS
;	COMDAT ??0?$allocator@D@_STL@@QAE@ABV01@@Z
_TEXT	SEGMENT PARA USE32 PUBLIC 'CODE'
_TEXT	ENDS
;	COMDAT ??0?$_STLP_alloc_proxy@PADDV?$allocator@D@_STL@@@_STL@@QAE@ABV?$allocator@D@1@PAD@Z
_TEXT	SEGMENT PARA USE32 PUBLIC 'CODE'
_TEXT	ENDS
;	COMDAT ?state@?$fpos@H@_STL@@QAEXH@Z
_TEXT	SEGMENT PARA USE32 PUBLIC 'CODE'
_TEXT	ENDS
;	COMDAT ?key_comp@?$map@V?$basic_string@DV?$char_traits@D@_STL@@V?$allocator@D@2@@_STL@@KU?$less@V?$basic_string@DV?$char_traits@D@_STL@@V?$allocator@D@2@@_STL@@@2@V?$allocator@U?$pair@$$CBV?$basic_string@DV?$char_traits@D@_STL@@V?$allocator@D@2@@_STL@@K@_STL@@@2@@_STL@@QBE?AU?$less@V?$basic_string@DV?$char_traits@D@_STL@@V?$allocator@D@2@@_STL@@@2@XZ
_TEXT	SEGMENT PARA USE32 PUBLIC 'CODE'
_TEXT	ENDS
;	COMDAT ?insert@?$map@V?$basic_string@DV?$char_traits@D@_STL@@V?$allocator@D@2@@_STL@@KU?$less@V?$basic_string@DV?$char_traits@D@_STL@@V?$allocator@D@2@@_STL@@@2@V?$allocator@U?$pair@$$CBV?$basic_string@DV?$char_traits@D@_STL@@V?$allocator@D@2@@_STL@@K@_STL@@@2@@_STL@@QAE?AU?$_Rb_tree_iterator@U?$pair@$$CBV?$basic_string@DV?$char_traits@D@_STL@@V?$allocator@D@2@@_STL@@K@_STL@@U?$_Nonconst_traits@U?$pair@$$CBV?$basic_string@DV?$char_traits@D@_STL@@V?$allocator@D@2@@_STL@@K@_STL@@@2@@2@U32@ABU?$pair@$$CBV?$basic_string@DV?$char_traits@D@_STL@@V?$allocator@D@2@@_STL@@K@2@@Z
_TEXT	SEGMENT PARA USE32 PUBLIC 'CODE'
_TEXT	ENDS
;	COMDAT ?lower_bound@?$map@V?$basic_string@DV?$char_traits@D@_STL@@V?$allocator@D@2@@_STL@@KU?$less@V?$basic_string@DV?$char_traits@D@_STL@@V?$allocator@D@2@@_STL@@@2@V?$allocator@U?$pair@$$CBV?$basic_string@DV?$char_traits@D@_STL@@V?$allocator@D@2@@_STL@@K@_STL@@@2@@_STL@@QAE?AU?$_Rb_tree_iterator@U?$pair@$$CBV?$basic_string@DV?$char_traits@D@_STL@@V?$allocator@D@2@@_STL@@K@_STL@@U?$_Nonconst_traits@U?$pair@$$CBV?$basic_string@DV?$char_traits@D@_STL@@V?$allocator@D@2@@_STL@@K@_STL@@@2@@2@ABV?$basic_string@DV?$char_traits@D@_STL@@V?$allocator@D@2@@2@@Z
_TEXT	SEGMENT PARA USE32 PUBLIC 'CODE'
_TEXT	ENDS
;	COMDAT ??0?$_Rb_tree@V?$basic_string@DV?$char_traits@D@_STL@@V?$allocator@D@2@@_STL@@U?$pair@$$CBV?$basic_string@DV?$char_traits@D@_STL@@V?$allocator@D@2@@_STL@@K@2@U?$_Select1st@U?$pair@$$CBV?$basic_string@DV?$char_traits@D@_STL@@V?$allocator@D@2@@_STL@@K@_STL@@@2@U?$less@V?$basic_string@DV?$char_traits@D@_STL@@V?$allocator@D@2@@_STL@@@2@V?$allocator@U?$pair@$$CBV?$basic_string@DV?$char_traits@D@_STL@@V?$allocator@D@2@@_STL@@K@_STL@@@2@@_STL@@QAE@ABU?$less@V?$basic_string@DV?$char_traits@D@_STL@@V?$allocator@D@2@@_STL@@@1@ABV?$allocator@U?$pair@$$CBV?$basic_string@DV?$char_traits@D@_STL@@V?$allocator@D@2@@_STL@@K@_STL@@@1@@Z
_TEXT	SEGMENT PARA USE32 PUBLIC 'CODE'
_TEXT	ENDS
;	COMDAT ?end@?$_Rb_tree@V?$basic_string@DV?$char_traits@D@_STL@@V?$allocator@D@2@@_STL@@U?$pair@$$CBV?$basic_string@DV?$char_traits@D@_STL@@V?$allocator@D@2@@_STL@@K@2@U?$_Select1st@U?$pair@$$CBV?$basic_string@DV?$char_traits@D@_STL@@V?$allocator@D@2@@_STL@@K@_STL@@@2@U?$less@V?$basic_string@DV?$char_traits@D@_STL@@V?$allocator@D@2@@_STL@@@2@V?$allocator@U?$pair@$$CBV?$basic_string@DV?$char_traits@D@_STL@@V?$allocator@D@2@@_STL@@K@_STL@@@2@@_STL@@QAE?AU?$_Rb_tree_iterator@U?$pair@$$CBV?$basic_string@DV?$char_traits@D@_STL@@V?$allocator@D@2@@_STL@@K@_STL@@U?$_Nonconst_traits@U?$pair@$$CBV?$basic_string@DV?$char_traits@D@_STL@@V?$allocator@D@2@@_STL@@K@_STL@@@2@@2@XZ
_TEXT	SEGMENT PARA USE32 PUBLIC 'CODE'
_TEXT	ENDS
;	COMDAT ?end@?$_Rb_tree@V?$basic_string@DV?$char_traits@D@_STL@@V?$allocator@D@2@@_STL@@U?$pair@$$CBV?$basic_string@DV?$char_traits@D@_STL@@V?$allocator@D@2@@_STL@@K@2@U?$_Select1st@U?$pair@$$CBV?$basic_string@DV?$char_traits@D@_STL@@V?$allocator@D@2@@_STL@@K@_STL@@@2@U?$less@V?$basic_string@DV?$char_traits@D@_STL@@V?$allocator@D@2@@_STL@@@2@V?$allocator@U?$pair@$$CBV?$basic_string@DV?$char_traits@D@_STL@@V?$allocator@D@2@@_STL@@K@_STL@@@2@@_STL@@QBE?AU?$_Rb_tree_iterator@U?$pair@$$CBV?$basic_string@DV?$char_traits@D@_STL@@V?$allocator@D@2@@_STL@@K@_STL@@U?$_Const_traits@U?$pair@$$CBV?$basic_string@DV?$char_traits@D@_STL@@V?$allocator@D@2@@_STL@@K@_STL@@@2@@2@XZ
_TEXT	SEGMENT PARA USE32 PUBLIC 'CODE'
_TEXT	ENDS
;	COMDAT ?erase@?$_Rb_tree@V?$basic_string@DV?$char_traits@D@_STL@@V?$allocator@D@2@@_STL@@U?$pair@$$CBV?$basic_string@DV?$char_traits@D@_STL@@V?$allocator@D@2@@_STL@@K@2@U?$_Select1st@U?$pair@$$CBV?$basic_string@DV?$char_traits@D@_STL@@V?$allocator@D@2@@_STL@@K@_STL@@@2@U?$less@V?$basic_string@DV?$char_traits@D@_STL@@V?$allocator@D@2@@_STL@@@2@V?$allocator@U?$pair@$$CBV?$basic_string@DV?$char_traits@D@_STL@@V?$allocator@D@2@@_STL@@K@_STL@@@2@@_STL@@QAEXU?$_Rb_tree_iterator@U?$pair@$$CBV?$basic_string@DV?$char_traits@D@_STL@@V?$allocator@D@2@@_STL@@K@_STL@@U?$_Nonconst_traits@U?$pair@$$CBV?$basic_string@DV?$char_traits@D@_STL@@V?$allocator@D@2@@_STL@@K@_STL@@@2@@2@@Z
_TEXT	SEGMENT PARA USE32 PUBLIC 'CODE'
_TEXT	ENDS
;	COMDAT ?clear@?$_Rb_tree@V?$basic_string@DV?$char_traits@D@_STL@@V?$allocator@D@2@@_STL@@U?$pair@$$CBV?$basic_string@DV?$char_traits@D@_STL@@V?$allocator@D@2@@_STL@@K@2@U?$_Select1st@U?$pair@$$CBV?$basic_string@DV?$char_traits@D@_STL@@V?$allocator@D@2@@_STL@@K@_STL@@@2@U?$less@V?$basic_string@DV?$char_traits@D@_STL@@V?$allocator@D@2@@_STL@@@2@V?$allocator@U?$pair@$$CBV?$basic_string@DV?$char_traits@D@_STL@@V?$allocator@D@2@@_STL@@K@_STL@@@2@@_STL@@QAEXXZ
_TEXT	SEGMENT PARA USE32 PUBLIC 'CODE'
_TEXT	ENDS
;	COMDAT ??1?$_Rb_tree_base@U?$pair@$$CBV?$basic_string@DV?$char_traits@D@_STL@@V?$allocator@D@2@@_STL@@K@_STL@@V?$allocator@U?$pair@$$CBV?$basic_string@DV?$char_traits@D@_STL@@V?$allocator@D@2@@_STL@@K@_STL@@@2@@_STL@@QAE@XZ
_TEXT	SEGMENT PARA USE32 PUBLIC 'CODE'
_TEXT	ENDS
;	COMDAT ??0?$allocator@U?$pair@$$CBV?$basic_string@DV?$char_traits@D@_STL@@V?$allocator@D@2@@_STL@@K@_STL@@@_STL@@QAE@XZ
_TEXT	SEGMENT PARA USE32 PUBLIC 'CODE'
_TEXT	ENDS
;	COMDAT ??1?$allocator@U?$pair@$$CBV?$basic_string@DV?$char_traits@D@_STL@@V?$allocator@D@2@@_STL@@K@_STL@@@_STL@@QAE@XZ
_TEXT	SEGMENT PARA USE32 PUBLIC 'CODE'
_TEXT	ENDS
;	COMDAT ??R?$less@V?$basic_string@DV?$char_traits@D@_STL@@V?$allocator@D@2@@_STL@@@_STL@@QBE_NABV?$basic_string@DV?$char_traits@D@_STL@@V?$allocator@D@2@@1@0@Z
_TEXT	SEGMENT PARA USE32 PUBLIC 'CODE'
_TEXT	ENDS
;	COMDAT ??D?$_Rb_tree_iterator@U?$pair@$$CBV?$basic_string@DV?$char_traits@D@_STL@@V?$allocator@D@2@@_STL@@K@_STL@@U?$_Nonconst_traits@U?$pair@$$CBV?$basic_string@DV?$char_traits@D@_STL@@V?$allocator@D@2@@_STL@@K@_STL@@@2@@_STL@@QBEAAU?$pair@$$CBV?$basic_string@DV?$char_traits@D@_STL@@V?$allocator@D@2@@_STL@@K@1@XZ
_TEXT	SEGMENT PARA USE32 PUBLIC 'CODE'
_TEXT	ENDS
;	COMDAT ??0?$pair@$$CBV?$basic_string@DV?$char_traits@D@_STL@@V?$allocator@D@2@@_STL@@K@_STL@@QAE@ABV?$basic_string@DV?$char_traits@D@_STL@@V?$allocator@D@2@@1@ABK@Z
_TEXT	SEGMENT PARA USE32 PUBLIC 'CODE'
_TEXT	ENDS
;	COMDAT ??1?$_STLP_alloc_proxy@PAU?$_Rb_tree_node@U?$pair@$$CBV?$basic_string@DV?$char_traits@D@_STL@@V?$allocator@D@2@@_STL@@K@_STL@@@_STL@@U12@V?$allocator@U?$_Rb_tree_node@U?$pair@$$CBV?$basic_string@DV?$char_traits@D@_STL@@V?$allocator@D@2@@_STL@@K@_STL@@@_STL@@@2@@_STL@@QAE@XZ
_TEXT	SEGMENT PARA USE32 PUBLIC 'CODE'
_TEXT	ENDS
;	COMDAT ?copy@?$__char_traits_base@DH@_STL@@SAPADPADPBDI@Z
_TEXT	SEGMENT PARA USE32 PUBLIC 'CODE'
_TEXT	ENDS
;	COMDAT ?begin@?$basic_string@DV?$char_traits@D@_STL@@V?$allocator@D@2@@_STL@@QAEPADXZ
_TEXT	SEGMENT PARA USE32 PUBLIC 'CODE'
_TEXT	ENDS
;	COMDAT ?end@?$basic_string@DV?$char_traits@D@_STL@@V?$allocator@D@2@@_STL@@QAEPADXZ
_TEXT	SEGMENT PARA USE32 PUBLIC 'CODE'
_TEXT	ENDS
;	COMDAT ?size@?$basic_string@DV?$char_traits@D@_STL@@V?$allocator@D@2@@_STL@@QBEIXZ
_TEXT	SEGMENT PARA USE32 PUBLIC 'CODE'
_TEXT	ENDS
;	COMDAT ?erase@?$basic_string@DV?$char_traits@D@_STL@@V?$allocator@D@2@@_STL@@QAEPADPAD0@Z
_TEXT	SEGMENT PARA USE32 PUBLIC 'CODE'
_TEXT	ENDS
;	COMDAT ?_M_root@?$_Rb_tree@V?$basic_string@DV?$char_traits@D@_STL@@V?$allocator@D@2@@_STL@@U?$pair@$$CBV?$basic_string@DV?$char_traits@D@_STL@@V?$allocator@D@2@@_STL@@K@2@U?$_Select1st@U?$pair@$$CBV?$basic_string@DV?$char_traits@D@_STL@@V?$allocator@D@2@@_STL@@K@_STL@@@2@U?$less@V?$basic_string@DV?$char_traits@D@_STL@@V?$allocator@D@2@@_STL@@@2@V?$allocator@U?$pair@$$CBV?$basic_string@DV?$char_traits@D@_STL@@V?$allocator@D@2@@_STL@@K@_STL@@@2@@_STL@@IBEAAPAU?$_Rb_tree_node@U?$pair@$$CBV?$basic_string@DV?$char_traits@D@_STL@@V?$allocator@D@2@@_STL@@K@_STL@@@2@XZ
_TEXT	SEGMENT PARA USE32 PUBLIC 'CODE'
_TEXT	ENDS
;	COMDAT ?_M_leftmost@?$_Rb_tree@V?$basic_string@DV?$char_traits@D@_STL@@V?$allocator@D@2@@_STL@@U?$pair@$$CBV?$basic_string@DV?$char_traits@D@_STL@@V?$allocator@D@2@@_STL@@K@2@U?$_Select1st@U?$pair@$$CBV?$basic_string@DV?$char_traits@D@_STL@@V?$allocator@D@2@@_STL@@K@_STL@@@2@U?$less@V?$basic_string@DV?$char_traits@D@_STL@@V?$allocator@D@2@@_STL@@@2@V?$allocator@U?$pair@$$CBV?$basic_string@DV?$char_traits@D@_STL@@V?$allocator@D@2@@_STL@@K@_STL@@@2@@_STL@@IBEAAPAU?$_Rb_tree_node@U?$pair@$$CBV?$basic_string@DV?$char_traits@D@_STL@@V?$allocator@D@2@@_STL@@K@_STL@@@2@XZ
_TEXT	SEGMENT PARA USE32 PUBLIC 'CODE'
_TEXT	ENDS
;	COMDAT ?_M_rightmost@?$_Rb_tree@V?$basic_string@DV?$char_traits@D@_STL@@V?$allocator@D@2@@_STL@@U?$pair@$$CBV?$basic_string@DV?$char_traits@D@_STL@@V?$allocator@D@2@@_STL@@K@2@U?$_Select1st@U?$pair@$$CBV?$basic_string@DV?$char_traits@D@_STL@@V?$allocator@D@2@@_STL@@K@_STL@@@2@U?$less@V?$basic_string@DV?$char_traits@D@_STL@@V?$allocator@D@2@@_STL@@@2@V?$allocator@U?$pair@$$CBV?$basic_string@DV?$char_traits@D@_STL@@V?$allocator@D@2@@_STL@@K@_STL@@@2@@_STL@@IBEAAPAU?$_Rb_tree_node@U?$pair@$$CBV?$basic_string@DV?$char_traits@D@_STL@@V?$allocator@D@2@@_STL@@K@_STL@@@2@XZ
_TEXT	SEGMENT PARA USE32 PUBLIC 'CODE'
_TEXT	ENDS
;	COMDAT ?_M_empty_initialize@?$_Rb_tree@V?$basic_string@DV?$char_traits@D@_STL@@V?$allocator@D@2@@_STL@@U?$pair@$$CBV?$basic_string@DV?$char_traits@D@_STL@@V?$allocator@D@2@@_STL@@K@2@U?$_Select1st@U?$pair@$$CBV?$basic_string@DV?$char_traits@D@_STL@@V?$allocator@D@2@@_STL@@K@_STL@@@2@U?$less@V?$basic_string@DV?$char_traits@D@_STL@@V?$allocator@D@2@@_STL@@@2@V?$allocator@U?$pair@$$CBV?$basic_string@DV?$char_traits@D@_STL@@V?$allocator@D@2@@_STL@@K@_STL@@@2@@_STL@@AAEXXZ
_TEXT	SEGMENT PARA USE32 PUBLIC 'CODE'
_TEXT	ENDS
;	COMDAT ?key_comp@?$_Rb_tree@V?$basic_string@DV?$char_traits@D@_STL@@V?$allocator@D@2@@_STL@@U?$pair@$$CBV?$basic_string@DV?$char_traits@D@_STL@@V?$allocator@D@2@@_STL@@K@2@U?$_Select1st@U?$pair@$$CBV?$basic_string@DV?$char_traits@D@_STL@@V?$allocator@D@2@@_STL@@K@_STL@@@2@U?$less@V?$basic_string@DV?$char_traits@D@_STL@@V?$allocator@D@2@@_STL@@@2@V?$allocator@U?$pair@$$CBV?$basic_string@DV?$char_traits@D@_STL@@V?$allocator@D@2@@_STL@@K@_STL@@@2@@_STL@@QBE?AU?$less@V?$basic_string@DV?$char_traits@D@_STL@@V?$allocator@D@2@@_STL@@@2@XZ
_TEXT	SEGMENT PARA USE32 PUBLIC 'CODE'
_TEXT	ENDS
;	COMDAT ?lower_bound@?$_Rb_tree@V?$basic_string@DV?$char_traits@D@_STL@@V?$allocator@D@2@@_STL@@U?$pair@$$CBV?$basic_string@DV?$char_traits@D@_STL@@V?$allocator@D@2@@_STL@@K@2@U?$_Select1st@U?$pair@$$CBV?$basic_string@DV?$char_traits@D@_STL@@V?$allocator@D@2@@_STL@@K@_STL@@@2@U?$less@V?$basic_string@DV?$char_traits@D@_STL@@V?$allocator@D@2@@_STL@@@2@V?$allocator@U?$pair@$$CBV?$basic_string@DV?$char_traits@D@_STL@@V?$allocator@D@2@@_STL@@K@_STL@@@2@@_STL@@QAE?AU?$_Rb_tree_iterator@U?$pair@$$CBV?$basic_string@DV?$char_traits@D@_STL@@V?$allocator@D@2@@_STL@@K@_STL@@U?$_Nonconst_traits@U?$pair@$$CBV?$basic_string@DV?$char_traits@D@_STL@@V?$allocator@D@2@@_STL@@K@_STL@@@2@@2@ABV?$basic_string@DV?$char_traits@D@_STL@@V?$allocator@D@2@@2@@Z
_TEXT	SEGMENT PARA USE32 PUBLIC 'CODE'
_TEXT	ENDS
;	COMDAT ??0?$_Rb_tree_base@U?$pair@$$CBV?$basic_string@DV?$char_traits@D@_STL@@V?$allocator@D@2@@_STL@@K@_STL@@V?$allocator@U?$pair@$$CBV?$basic_string@DV?$char_traits@D@_STL@@V?$allocator@D@2@@_STL@@K@_STL@@@2@@_STL@@QAE@ABV?$allocator@U?$pair@$$CBV?$basic_string@DV?$char_traits@D@_STL@@V?$allocator@D@2@@_STL@@K@_STL@@@1@@Z
_TEXT	SEGMENT PARA USE32 PUBLIC 'CODE'
_TEXT	ENDS
;	COMDAT ??1?$allocator@U?$_Rb_tree_node@U?$pair@$$CBV?$basic_string@DV?$char_traits@D@_STL@@V?$allocator@D@2@@_STL@@K@_STL@@@_STL@@@_STL@@QAE@XZ
_TEXT	SEGMENT PARA USE32 PUBLIC 'CODE'
_TEXT	ENDS
;	COMDAT ?deallocate@?$allocator@U?$_Rb_tree_node@U?$pair@$$CBV?$basic_string@DV?$char_traits@D@_STL@@V?$allocator@D@2@@_STL@@K@_STL@@@_STL@@@_STL@@QAEXPAU?$_Rb_tree_node@U?$pair@$$CBV?$basic_string@DV?$char_traits@D@_STL@@V?$allocator@D@2@@_STL@@K@_STL@@@2@I@Z
_TEXT	SEGMENT PARA USE32 PUBLIC 'CODE'
_TEXT	ENDS
;	COMDAT ??0?$_Rb_tree_iterator@U?$pair@$$CBV?$basic_string@DV?$char_traits@D@_STL@@V?$allocator@D@2@@_STL@@K@_STL@@U?$_Nonconst_traits@U?$pair@$$CBV?$basic_string@DV?$char_traits@D@_STL@@V?$allocator@D@2@@_STL@@K@_STL@@@2@@_STL@@QAE@PAU?$_Rb_tree_node@U?$pair@$$CBV?$basic_string@DV?$char_traits@D@_STL@@V?$allocator@D@2@@_STL@@K@_STL@@@1@@Z
_TEXT	SEGMENT PARA USE32 PUBLIC 'CODE'
_TEXT	ENDS
;	COMDAT ??0?$_Rb_tree_iterator@U?$pair@$$CBV?$basic_string@DV?$char_traits@D@_STL@@V?$allocator@D@2@@_STL@@K@_STL@@U?$_Const_traits@U?$pair@$$CBV?$basic_string@DV?$char_traits@D@_STL@@V?$allocator@D@2@@_STL@@K@_STL@@@2@@_STL@@QAE@PAU?$_Rb_tree_node@U?$pair@$$CBV?$basic_string@DV?$char_traits@D@_STL@@V?$allocator@D@2@@_STL@@K@_STL@@@1@@Z
_TEXT	SEGMENT PARA USE32 PUBLIC 'CODE'
_TEXT	ENDS
;	COMDAT ?move@?$__char_traits_base@DH@_STL@@SAPADPADPBDI@Z
_TEXT	SEGMENT PARA USE32 PUBLIC 'CODE'
_TEXT	ENDS
;	COMDAT ?_S_color@?$_Rb_tree@V?$basic_string@DV?$char_traits@D@_STL@@V?$allocator@D@2@@_STL@@U?$pair@$$CBV?$basic_string@DV?$char_traits@D@_STL@@V?$allocator@D@2@@_STL@@K@2@U?$_Select1st@U?$pair@$$CBV?$basic_string@DV?$char_traits@D@_STL@@V?$allocator@D@2@@_STL@@K@_STL@@@2@U?$less@V?$basic_string@DV?$char_traits@D@_STL@@V?$allocator@D@2@@_STL@@@2@V?$allocator@U?$pair@$$CBV?$basic_string@DV?$char_traits@D@_STL@@V?$allocator@D@2@@_STL@@K@_STL@@@2@@_STL@@KAAA_NPAU?$_Rb_tree_node@U?$pair@$$CBV?$basic_string@DV?$char_traits@D@_STL@@V?$allocator@D@2@@_STL@@K@_STL@@@2@@Z
_TEXT	SEGMENT PARA USE32 PUBLIC 'CODE'
_TEXT	ENDS
;	COMDAT ?_M_lower_bound@?$_Rb_tree@V?$basic_string@DV?$char_traits@D@_STL@@V?$allocator@D@2@@_STL@@U?$pair@$$CBV?$basic_string@DV?$char_traits@D@_STL@@V?$allocator@D@2@@_STL@@K@2@U?$_Select1st@U?$pair@$$CBV?$basic_string@DV?$char_traits@D@_STL@@V?$allocator@D@2@@_STL@@K@_STL@@@2@U?$less@V?$basic_string@DV?$char_traits@D@_STL@@V?$allocator@D@2@@_STL@@@2@V?$allocator@U?$pair@$$CBV?$basic_string@DV?$char_traits@D@_STL@@V?$allocator@D@2@@_STL@@K@_STL@@@2@@_STL@@ABEPAU?$_Rb_tree_node@U?$pair@$$CBV?$basic_string@DV?$char_traits@D@_STL@@V?$allocator@D@2@@_STL@@K@_STL@@@2@ABV?$basic_string@DV?$char_traits@D@_STL@@V?$allocator@D@2@@2@@Z
_TEXT	SEGMENT PARA USE32 PUBLIC 'CODE'
_TEXT	ENDS
;	COMDAT ??0?$_STLP_alloc_proxy@PAU?$_Rb_tree_node@U?$pair@$$CBV?$basic_string@DV?$char_traits@D@_STL@@V?$allocator@D@2@@_STL@@K@_STL@@@_STL@@U12@V?$allocator@U?$_Rb_tree_node@U?$pair@$$CBV?$basic_string@DV?$char_traits@D@_STL@@V?$allocator@D@2@@_STL@@K@_STL@@@_STL@@@2@@_STL@@QAE@ABV?$allocator@U?$_Rb_tree_node@U?$pair@$$CBV?$basic_string@DV?$char_traits@D@_STL@@V?$allocator@D@2@@_STL@@K@_STL@@@_STL@@@1@PAU?$_Rb_tree_node@U?$pair@$$CBV?$basic_string@DV?$char_traits@D@_STL@@V?$allocator@D@2@@_STL@@K@_STL@@@1@@Z
_TEXT	SEGMENT PARA USE32 PUBLIC 'CODE'
_TEXT	ENDS
;	COMDAT ?allocate@?$allocator@U?$_Rb_tree_node@U?$pair@$$CBV?$basic_string@DV?$char_traits@D@_STL@@V?$allocator@D@2@@_STL@@K@_STL@@@_STL@@@_STL@@QAEPAU?$_Rb_tree_node@U?$pair@$$CBV?$basic_string@DV?$char_traits@D@_STL@@V?$allocator@D@2@@_STL@@K@_STL@@@2@IPBX@Z
_TEXT	SEGMENT PARA USE32 PUBLIC 'CODE'
_TEXT	ENDS
;	COMDAT ?_S_left@?$_Rb_tree@V?$basic_string@DV?$char_traits@D@_STL@@V?$allocator@D@2@@_STL@@U?$pair@$$CBV?$basic_string@DV?$char_traits@D@_STL@@V?$allocator@D@2@@_STL@@K@2@U?$_Select1st@U?$pair@$$CBV?$basic_string@DV?$char_traits@D@_STL@@V?$allocator@D@2@@_STL@@K@_STL@@@2@U?$less@V?$basic_string@DV?$char_traits@D@_STL@@V?$allocator@D@2@@_STL@@@2@V?$allocator@U?$pair@$$CBV?$basic_string@DV?$char_traits@D@_STL@@V?$allocator@D@2@@_STL@@K@_STL@@@2@@_STL@@KAAAPAU?$_Rb_tree_node@U?$pair@$$CBV?$basic_string@DV?$char_traits@D@_STL@@V?$allocator@D@2@@_STL@@K@_STL@@@2@PAU32@@Z
_TEXT	SEGMENT PARA USE32 PUBLIC 'CODE'
_TEXT	ENDS
;	COMDAT ?_S_right@?$_Rb_tree@V?$basic_string@DV?$char_traits@D@_STL@@V?$allocator@D@2@@_STL@@U?$pair@$$CBV?$basic_string@DV?$char_traits@D@_STL@@V?$allocator@D@2@@_STL@@K@2@U?$_Select1st@U?$pair@$$CBV?$basic_string@DV?$char_traits@D@_STL@@V?$allocator@D@2@@_STL@@K@_STL@@@2@U?$less@V?$basic_string@DV?$char_traits@D@_STL@@V?$allocator@D@2@@_STL@@@2@V?$allocator@U?$pair@$$CBV?$basic_string@DV?$char_traits@D@_STL@@V?$allocator@D@2@@_STL@@K@_STL@@@2@@_STL@@KAAAPAU?$_Rb_tree_node@U?$pair@$$CBV?$basic_string@DV?$char_traits@D@_STL@@V?$allocator@D@2@@_STL@@K@_STL@@@2@PAU32@@Z
_TEXT	SEGMENT PARA USE32 PUBLIC 'CODE'
_TEXT	ENDS
;	COMDAT ?_S_key@?$_Rb_tree@V?$basic_string@DV?$char_traits@D@_STL@@V?$allocator@D@2@@_STL@@U?$pair@$$CBV?$basic_string@DV?$char_traits@D@_STL@@V?$allocator@D@2@@_STL@@K@2@U?$_Select1st@U?$pair@$$CBV?$basic_string@DV?$char_traits@D@_STL@@V?$allocator@D@2@@_STL@@K@_STL@@@2@U?$less@V?$basic_string@DV?$char_traits@D@_STL@@V?$allocator@D@2@@_STL@@@2@V?$allocator@U?$pair@$$CBV?$basic_string@DV?$char_traits@D@_STL@@V?$allocator@D@2@@_STL@@K@_STL@@@2@@_STL@@KAABV?$basic_string@DV?$char_traits@D@_STL@@V?$allocator@D@2@@2@PAU?$_Rb_tree_node@U?$pair@$$CBV?$basic_string@DV?$char_traits@D@_STL@@V?$allocator@D@2@@_STL@@K@_STL@@@2@@Z
_TEXT	SEGMENT PARA USE32 PUBLIC 'CODE'
_TEXT	ENDS
;	COMDAT ??0?$allocator@U?$_Rb_tree_node@U?$pair@$$CBV?$basic_string@DV?$char_traits@D@_STL@@V?$allocator@D@2@@_STL@@K@_STL@@@_STL@@@_STL@@QAE@ABV01@@Z
_TEXT	SEGMENT PARA USE32 PUBLIC 'CODE'
_TEXT	ENDS
;	COMDAT ?_S_value@?$_Rb_tree@V?$basic_string@DV?$char_traits@D@_STL@@V?$allocator@D@2@@_STL@@U?$pair@$$CBV?$basic_string@DV?$char_traits@D@_STL@@V?$allocator@D@2@@_STL@@K@2@U?$_Select1st@U?$pair@$$CBV?$basic_string@DV?$char_traits@D@_STL@@V?$allocator@D@2@@_STL@@K@_STL@@@2@U?$less@V?$basic_string@DV?$char_traits@D@_STL@@V?$allocator@D@2@@_STL@@@2@V?$allocator@U?$pair@$$CBV?$basic_string@DV?$char_traits@D@_STL@@V?$allocator@D@2@@_STL@@K@_STL@@@2@@_STL@@KAAAU?$pair@$$CBV?$basic_string@DV?$char_traits@D@_STL@@V?$allocator@D@2@@_STL@@K@2@PAU?$_Rb_tree_node@U?$pair@$$CBV?$basic_string@DV?$char_traits@D@_STL@@V?$allocator@D@2@@_STL@@K@_STL@@@2@@Z
_TEXT	SEGMENT PARA USE32 PUBLIC 'CODE'
_TEXT	ENDS
;	COMDAT ??R?$_Select1st@U?$pair@$$CBV?$basic_string@DV?$char_traits@D@_STL@@V?$allocator@D@2@@_STL@@K@_STL@@@_STL@@QBEABV?$basic_string@DV?$char_traits@D@_STL@@V?$allocator@D@2@@1@ABU?$pair@$$CBV?$basic_string@DV?$char_traits@D@_STL@@V?$allocator@D@2@@_STL@@K@1@@Z
_TEXT	SEGMENT PARA USE32 PUBLIC 'CODE'
_TEXT	ENDS
;	COMDAT ??$_M_range_initialize@PBD@?$basic_string@DV?$char_traits@D@_STL@@V?$allocator@D@2@@_STL@@AAEXPBD0@Z
_TEXT	SEGMENT PARA USE32 PUBLIC 'CODE'
_TEXT	ENDS
;	COMDAT ??$_M_range_initialize@PAD@?$basic_string@DV?$char_traits@D@_STL@@V?$allocator@D@2@@_STL@@AAEXPAD0@Z
_TEXT	SEGMENT PARA USE32 PUBLIC 'CODE'
_TEXT	ENDS
;	COMDAT ?close@?$basic_filebuf@DV?$char_traits@D@_STL@@@_STL@@QAEPAV12@XZ
_TEXT	SEGMENT PARA USE32 PUBLIC 'CODE'
_TEXT	ENDS
;	COMDAT ?_M_exit_input_mode@?$basic_filebuf@DV?$char_traits@D@_STL@@@_STL@@AAEXXZ
_TEXT	SEGMENT PARA USE32 PUBLIC 'CODE'
_TEXT	ENDS
;	COMDAT ?_M_switch_to_output_mode@?$basic_filebuf@DV?$char_traits@D@_STL@@@_STL@@AAE_NXZ
_TEXT	SEGMENT PARA USE32 PUBLIC 'CODE'
_TEXT	ENDS
;	COMDAT ?_M_output_error@?$basic_filebuf@DV?$char_traits@D@_STL@@@_STL@@AAEHXZ
_TEXT	SEGMENT PARA USE32 PUBLIC 'CODE'
_TEXT	ENDS
;	COMDAT ?_M_allocate_buffers@?$basic_filebuf@DV?$char_traits@D@_STL@@@_STL@@AAE_NPADH@Z
_TEXT	SEGMENT PARA USE32 PUBLIC 'CODE'
_TEXT	ENDS
;	COMDAT ?_M_deallocate_buffers@?$basic_filebuf@DV?$char_traits@D@_STL@@@_STL@@AAEXXZ
_TEXT	SEGMENT PARA USE32 PUBLIC 'CODE'
_TEXT	ENDS
;	COMDAT ?_M_seek_init@?$basic_filebuf@DV?$char_traits@D@_STL@@@_STL@@AAE_N_N@Z
_TEXT	SEGMENT PARA USE32 PUBLIC 'CODE'
_TEXT	ENDS
;	COMDAT ?_M_setup_codecvt@?$basic_filebuf@DV?$char_traits@D@_STL@@@_STL@@AAEXABVlocale@2@@Z
_TEXT	SEGMENT PARA USE32 PUBLIC 'CODE'
_TEXT	ENDS
;	COMDAT ??$equal@PADPADU?$_Eq_traits@V?$char_traits@D@_STL@@@_STL@@@_STL@@YA_NPAD00U?$_Eq_traits@V?$char_traits@D@_STL@@@0@@Z
_TEXT	SEGMENT PARA USE32 PUBLIC 'CODE'
_TEXT	ENDS
;	COMDAT ??$_Destroy@V?$basic_string@DV?$char_traits@D@_STL@@V?$allocator@D@2@@_STL@@@_STL@@YAXPAV?$basic_string@DV?$char_traits@D@_STL@@V?$allocator@D@2@@0@@Z
_TEXT	SEGMENT PARA USE32 PUBLIC 'CODE'
_TEXT	ENDS
;	COMDAT ??$_M_assign_dispatch@PAD@?$basic_string@DV?$char_traits@D@_STL@@V?$allocator@D@2@@_STL@@AAEAAV01@PAD0ABU__false_type@1@@Z
_TEXT	SEGMENT PARA USE32 PUBLIC 'CODE'
_TEXT	ENDS
;	COMDAT ?_M_erase@?$_Rb_tree@V?$basic_string@DV?$char_traits@D@_STL@@V?$allocator@D@2@@_STL@@U?$pair@$$CBV?$basic_string@DV?$char_traits@D@_STL@@V?$allocator@D@2@@_STL@@K@2@U?$_Select1st@U?$pair@$$CBV?$basic_string@DV?$char_traits@D@_STL@@V?$allocator@D@2@@_STL@@K@_STL@@@2@U?$less@V?$basic_string@DV?$char_traits@D@_STL@@V?$allocator@D@2@@_STL@@@2@V?$allocator@U?$pair@$$CBV?$basic_string@DV?$char_traits@D@_STL@@V?$allocator@D@2@@_STL@@K@_STL@@@2@@_STL@@AAEXPAU?$_Rb_tree_node@U?$pair@$$CBV?$basic_string@DV?$char_traits@D@_STL@@V?$allocator@D@2@@_STL@@K@_STL@@@2@@Z
_TEXT	SEGMENT PARA USE32 PUBLIC 'CODE'
_TEXT	ENDS
;	COMDAT ?insert_unique@?$_Rb_tree@V?$basic_string@DV?$char_traits@D@_STL@@V?$allocator@D@2@@_STL@@U?$pair@$$CBV?$basic_string@DV?$char_traits@D@_STL@@V?$allocator@D@2@@_STL@@K@2@U?$_Select1st@U?$pair@$$CBV?$basic_string@DV?$char_traits@D@_STL@@V?$allocator@D@2@@_STL@@K@_STL@@@2@U?$less@V?$basic_string@DV?$char_traits@D@_STL@@V?$allocator@D@2@@_STL@@@2@V?$allocator@U?$pair@$$CBV?$basic_string@DV?$char_traits@D@_STL@@V?$allocator@D@2@@_STL@@K@_STL@@@2@@_STL@@QAE?AU?$_Rb_tree_iterator@U?$pair@$$CBV?$basic_string@DV?$char_traits@D@_STL@@V?$allocator@D@2@@_STL@@K@_STL@@U?$_Nonconst_traits@U?$pair@$$CBV?$basic_string@DV?$char_traits@D@_STL@@V?$allocator@D@2@@_STL@@K@_STL@@@2@@2@U32@ABU?$pair@$$CBV?$basic_string@DV?$char_traits@D@_STL@@V?$allocator@D@2@@_STL@@K@2@@Z
_TEXT	SEGMENT PARA USE32 PUBLIC 'CODE'
_TEXT	ENDS
;	COMDAT ??$find@V?$basic_string@DV?$char_traits@D@_STL@@V?$allocator@D@2@@_STL@@@?$_Rb_tree@V?$basic_string@DV?$char_traits@D@_STL@@V?$allocator@D@2@@_STL@@U?$pair@$$CBV?$basic_string@DV?$char_traits@D@_STL@@V?$allocator@D@2@@_STL@@K@2@U?$_Select1st@U?$pair@$$CBV?$basic_string@DV?$char_traits@D@_STL@@V?$allocator@D@2@@_STL@@K@_STL@@@2@U?$less@V?$basic_string@DV?$char_traits@D@_STL@@V?$allocator@D@2@@_STL@@@2@V?$allocator@U?$pair@$$CBV?$basic_string@DV?$char_traits@D@_STL@@V?$allocator@D@2@@_STL@@K@_STL@@@2@@_STL@@QAE?AU?$_Rb_tree_iterator@U?$pair@$$CBV?$basic_string@DV?$char_traits@D@_STL@@V?$allocator@D@2@@_STL@@K@_STL@@U?$_Nonconst_traits@U?$pair@$$CBV?$basic_string@DV?$char_traits@D@_STL@@V?$allocator@D@2@@_STL@@K@_STL@@@2@@1@ABV?$basic_string@DV?$char_traits@D@_STL@@V?$allocator@D@2@@1@@Z
_TEXT	SEGMENT PARA USE32 PUBLIC 'CODE'
_TEXT	ENDS
;	COMDAT ??$find@V?$basic_string@DV?$char_traits@D@_STL@@V?$allocator@D@2@@_STL@@@?$_Rb_tree@V?$basic_string@DV?$char_traits@D@_STL@@V?$allocator@D@2@@_STL@@U?$pair@$$CBV?$basic_string@DV?$char_traits@D@_STL@@V?$allocator@D@2@@_STL@@K@2@U?$_Select1st@U?$pair@$$CBV?$basic_string@DV?$char_traits@D@_STL@@V?$allocator@D@2@@_STL@@K@_STL@@@2@U?$less@V?$basic_string@DV?$char_traits@D@_STL@@V?$allocator@D@2@@_STL@@@2@V?$allocator@U?$pair@$$CBV?$basic_string@DV?$char_traits@D@_STL@@V?$allocator@D@2@@_STL@@K@_STL@@@2@@_STL@@QBE?AU?$_Rb_tree_iterator@U?$pair@$$CBV?$basic_string@DV?$char_traits@D@_STL@@V?$allocator@D@2@@_STL@@K@_STL@@U?$_Const_traits@U?$pair@$$CBV?$basic_string@DV?$char_traits@D@_STL@@V?$allocator@D@2@@_STL@@K@_STL@@@2@@1@ABV?$basic_string@DV?$char_traits@D@_STL@@V?$allocator@D@2@@1@@Z
_TEXT	SEGMENT PARA USE32 PUBLIC 'CODE'
_TEXT	ENDS
;	COMDAT ??$append@PBD@?$basic_string@DV?$char_traits@D@_STL@@V?$allocator@D@2@@_STL@@QAEAAV01@PBD0@Z
_TEXT	SEGMENT PARA USE32 PUBLIC 'CODE'
_TEXT	ENDS
;	COMDAT ??$_Destroy@U?$pair@$$CBV?$basic_string@DV?$char_traits@D@_STL@@V?$allocator@D@2@@_STL@@K@_STL@@@_STL@@YAXPAU?$pair@$$CBV?$basic_string@DV?$char_traits@D@_STL@@V?$allocator@D@2@@_STL@@K@0@@Z
_TEXT	SEGMENT PARA USE32 PUBLIC 'CODE'
_TEXT	ENDS
;	COMDAT ??$?MDV?$char_traits@D@_STL@@V?$allocator@D@1@@_STL@@YA_NABV?$basic_string@DV?$char_traits@D@_STL@@V?$allocator@D@2@@0@0@Z
_TEXT	SEGMENT PARA USE32 PUBLIC 'CODE'
_TEXT	ENDS
;	COMDAT ??$?0U?$pair@$$CBV?$basic_string@DV?$char_traits@D@_STL@@V?$allocator@D@2@@_STL@@K@_STL@@@?$allocator@U?$_Rb_tree_node@U?$pair@$$CBV?$basic_string@DV?$char_traits@D@_STL@@V?$allocator@D@2@@_STL@@K@_STL@@@_STL@@@_STL@@QAE@ABV?$allocator@U?$pair@$$CBV?$basic_string@DV?$char_traits@D@_STL@@V?$allocator@D@2@@_STL@@K@_STL@@@1@@Z
_TEXT	SEGMENT PARA USE32 PUBLIC 'CODE'
_TEXT	ENDS
;	COMDAT ??_G?$basic_string@DV?$char_traits@D@_STL@@V?$allocator@D@2@@_STL@@QAEPAXI@Z
_TEXT	SEGMENT PARA USE32 PUBLIC 'CODE'
_TEXT	ENDS
;	COMDAT ??_G?$pair@$$CBV?$basic_string@DV?$char_traits@D@_STL@@V?$allocator@D@2@@_STL@@K@_STL@@QAEPAXI@Z
_TEXT	SEGMENT PARA USE32 PUBLIC 'CODE'
_TEXT	ENDS
;	COMDAT ?begin@?$basic_string@DV?$char_traits@D@_STL@@V?$allocator@D@2@@_STL@@QBEPBDXZ
_TEXT	SEGMENT PARA USE32 PUBLIC 'CODE'
_TEXT	ENDS
;	COMDAT ?end@?$basic_string@DV?$char_traits@D@_STL@@V?$allocator@D@2@@_STL@@QBEPBDXZ
_TEXT	SEGMENT PARA USE32 PUBLIC 'CODE'
_TEXT	ENDS
;	COMDAT ?_M_compare@?$basic_string@DV?$char_traits@D@_STL@@V?$allocator@D@2@@_STL@@SAHPBD000@Z
_TEXT	SEGMENT PARA USE32 PUBLIC 'CODE'
_TEXT	ENDS
;	COMDAT ?_M_exit_putback_mode@?$basic_filebuf@DV?$char_traits@D@_STL@@@_STL@@AAEXXZ
_TEXT	SEGMENT PARA USE32 PUBLIC 'CODE'
_TEXT	ENDS
;	COMDAT ??R?$_Eq_traits@V?$char_traits@D@_STL@@@_STL@@QBE_NABD0@Z
_TEXT	SEGMENT PARA USE32 PUBLIC 'CODE'
_TEXT	ENDS
;	COMDAT ?_S_right@?$_Rb_tree@V?$basic_string@DV?$char_traits@D@_STL@@V?$allocator@D@2@@_STL@@U?$pair@$$CBV?$basic_string@DV?$char_traits@D@_STL@@V?$allocator@D@2@@_STL@@K@2@U?$_Select1st@U?$pair@$$CBV?$basic_string@DV?$char_traits@D@_STL@@V?$allocator@D@2@@_STL@@K@_STL@@@2@U?$less@V?$basic_string@DV?$char_traits@D@_STL@@V?$allocator@D@2@@_STL@@@2@V?$allocator@U?$pair@$$CBV?$basic_string@DV?$char_traits@D@_STL@@V?$allocator@D@2@@_STL@@K@_STL@@@2@@_STL@@KAAAPAU?$_Rb_tree_node@U?$pair@$$CBV?$basic_string@DV?$char_traits@D@_STL@@V?$allocator@D@2@@_STL@@K@_STL@@@2@PAU_Rb_tree_node_base@2@@Z
_TEXT	SEGMENT PARA USE32 PUBLIC 'CODE'
_TEXT	ENDS
;	COMDAT ?_S_key@?$_Rb_tree@V?$basic_string@DV?$char_traits@D@_STL@@V?$allocator@D@2@@_STL@@U?$pair@$$CBV?$basic_string@DV?$char_traits@D@_STL@@V?$allocator@D@2@@_STL@@K@2@U?$_Select1st@U?$pair@$$CBV?$basic_string@DV?$char_traits@D@_STL@@V?$allocator@D@2@@_STL@@K@_STL@@@2@U?$less@V?$basic_string@DV?$char_traits@D@_STL@@V?$allocator@D@2@@_STL@@@2@V?$allocator@U?$pair@$$CBV?$basic_string@DV?$char_traits@D@_STL@@V?$allocator@D@2@@_STL@@K@_STL@@@2@@_STL@@KAABV?$basic_string@DV?$char_traits@D@_STL@@V?$allocator@D@2@@2@PAU_Rb_tree_node_base@2@@Z
_TEXT	SEGMENT PARA USE32 PUBLIC 'CODE'
_TEXT	ENDS
;	COMDAT ?size@?$_Rb_tree@V?$basic_string@DV?$char_traits@D@_STL@@V?$allocator@D@2@@_STL@@U?$pair@$$CBV?$basic_string@DV?$char_traits@D@_STL@@V?$allocator@D@2@@_STL@@K@2@U?$_Select1st@U?$pair@$$CBV?$basic_string@DV?$char_traits@D@_STL@@V?$allocator@D@2@@_STL@@K@_STL@@@2@U?$less@V?$basic_string@DV?$char_traits@D@_STL@@V?$allocator@D@2@@_STL@@@2@V?$allocator@U?$pair@$$CBV?$basic_string@DV?$char_traits@D@_STL@@V?$allocator@D@2@@_STL@@K@_STL@@@2@@_STL@@QBEIXZ
_TEXT	SEGMENT PARA USE32 PUBLIC 'CODE'
_TEXT	ENDS
;	COMDAT ??E?$_Rb_tree_iterator@U?$pair@$$CBV?$basic_string@DV?$char_traits@D@_STL@@V?$allocator@D@2@@_STL@@K@_STL@@U?$_Nonconst_traits@U?$pair@$$CBV?$basic_string@DV?$char_traits@D@_STL@@V?$allocator@D@2@@_STL@@K@_STL@@@2@@_STL@@QAEAAU01@XZ
_TEXT	SEGMENT PARA USE32 PUBLIC 'CODE'
_TEXT	ENDS
;	COMDAT ??F?$_Rb_tree_iterator@U?$pair@$$CBV?$basic_string@DV?$char_traits@D@_STL@@V?$allocator@D@2@@_STL@@K@_STL@@U?$_Nonconst_traits@U?$pair@$$CBV?$basic_string@DV?$char_traits@D@_STL@@V?$allocator@D@2@@_STL@@K@_STL@@@2@@_STL@@QAEAAU01@XZ
_TEXT	SEGMENT PARA USE32 PUBLIC 'CODE'
_TEXT	ENDS
;	COMDAT ??$_M_range_initialize@PBD@?$basic_string@DV?$char_traits@D@_STL@@V?$allocator@D@2@@_STL@@AAEXPBD0ABUforward_iterator_tag@1@@Z
_TEXT	SEGMENT PARA USE32 PUBLIC 'CODE'
_TEXT	ENDS
;	COMDAT ??$_M_range_initialize@PAD@?$basic_string@DV?$char_traits@D@_STL@@V?$allocator@D@2@@_STL@@AAEXPAD0ABUforward_iterator_tag@1@@Z
_TEXT	SEGMENT PARA USE32 PUBLIC 'CODE'
_TEXT	ENDS
;	COMDAT ?_M_unshift@?$basic_filebuf@DV?$char_traits@D@_STL@@@_STL@@AAE_NXZ
_TEXT	SEGMENT PARA USE32 PUBLIC 'CODE'
_TEXT	ENDS
;	COMDAT ?_M_allocate_buffers@?$basic_filebuf@DV?$char_traits@D@_STL@@@_STL@@AAE_NXZ
_TEXT	SEGMENT PARA USE32 PUBLIC 'CODE'
_TEXT	ENDS
;	COMDAT ??$max@H@_STL@@YAABHABH0@Z
_TEXT	SEGMENT PARA USE32 PUBLIC 'CODE'
_TEXT	ENDS
;	COMDAT ??$use_facet@V?$codecvt@DDH@_STL@@@_STL@@YAABV?$codecvt@DDH@0@ABVlocale@0@@Z
_TEXT	SEGMENT PARA USE32 PUBLIC 'CODE'
_TEXT	ENDS
;	COMDAT ??$append@PAD@?$basic_string@DV?$char_traits@D@_STL@@V?$allocator@D@2@@_STL@@QAEAAV01@PAD0@Z
_TEXT	SEGMENT PARA USE32 PUBLIC 'CODE'
_TEXT	ENDS
;	COMDAT ?_M_insert@?$_Rb_tree@V?$basic_string@DV?$char_traits@D@_STL@@V?$allocator@D@2@@_STL@@U?$pair@$$CBV?$basic_string@DV?$char_traits@D@_STL@@V?$allocator@D@2@@_STL@@K@2@U?$_Select1st@U?$pair@$$CBV?$basic_string@DV?$char_traits@D@_STL@@V?$allocator@D@2@@_STL@@K@_STL@@@2@U?$less@V?$basic_string@DV?$char_traits@D@_STL@@V?$allocator@D@2@@_STL@@@2@V?$allocator@U?$pair@$$CBV?$basic_string@DV?$char_traits@D@_STL@@V?$allocator@D@2@@_STL@@K@_STL@@@2@@_STL@@AAE?AU?$_Rb_tree_iterator@U?$pair@$$CBV?$basic_string@DV?$char_traits@D@_STL@@V?$allocator@D@2@@_STL@@K@_STL@@U?$_Nonconst_traits@U?$pair@$$CBV?$basic_string@DV?$char_traits@D@_STL@@V?$allocator@D@2@@_STL@@K@_STL@@@2@@2@PAU_Rb_tree_node_base@2@0ABU?$pair@$$CBV?$basic_string@DV?$char_traits@D@_STL@@V?$allocator@D@2@@_STL@@K@2@0@Z
_TEXT	SEGMENT PARA USE32 PUBLIC 'CODE'
_TEXT	ENDS
;	COMDAT ?insert_unique@?$_Rb_tree@V?$basic_string@DV?$char_traits@D@_STL@@V?$allocator@D@2@@_STL@@U?$pair@$$CBV?$basic_string@DV?$char_traits@D@_STL@@V?$allocator@D@2@@_STL@@K@2@U?$_Select1st@U?$pair@$$CBV?$basic_string@DV?$char_traits@D@_STL@@V?$allocator@D@2@@_STL@@K@_STL@@@2@U?$less@V?$basic_string@DV?$char_traits@D@_STL@@V?$allocator@D@2@@_STL@@@2@V?$allocator@U?$pair@$$CBV?$basic_string@DV?$char_traits@D@_STL@@V?$allocator@D@2@@_STL@@K@_STL@@@2@@_STL@@QAE?AU?$pair@U?$_Rb_tree_iterator@U?$pair@$$CBV?$basic_string@DV?$char_traits@D@_STL@@V?$allocator@D@2@@_STL@@K@_STL@@U?$_Nonconst_traits@U?$pair@$$CBV?$basic_string@DV?$char_traits@D@_STL@@V?$allocator@D@2@@_STL@@K@_STL@@@2@@_STL@@_N@2@ABU?$pair@$$CBV?$basic_string@DV?$char_traits@D@_STL@@V?$allocator@D@2@@_STL@@K@2@@Z
_TEXT	SEGMENT PARA USE32 PUBLIC 'CODE'
_TEXT	ENDS
;	COMDAT ??$_M_find@V?$basic_string@DV?$char_traits@D@_STL@@V?$allocator@D@2@@_STL@@@?$_Rb_tree@V?$basic_string@DV?$char_traits@D@_STL@@V?$allocator@D@2@@_STL@@U?$pair@$$CBV?$basic_string@DV?$char_traits@D@_STL@@V?$allocator@D@2@@_STL@@K@2@U?$_Select1st@U?$pair@$$CBV?$basic_string@DV?$char_traits@D@_STL@@V?$allocator@D@2@@_STL@@K@_STL@@@2@U?$less@V?$basic_string@DV?$char_traits@D@_STL@@V?$allocator@D@2@@_STL@@@2@V?$allocator@U?$pair@$$CBV?$basic_string@DV?$char_traits@D@_STL@@V?$allocator@D@2@@_STL@@K@_STL@@@2@@_STL@@ABEPAU?$_Rb_tree_node@U?$pair@$$CBV?$basic_string@DV?$char_traits@D@_STL@@V?$allocator@D@2@@_STL@@K@_STL@@@1@ABV?$basic_string@DV?$char_traits@D@_STL@@V?$allocator@D@2@@1@@Z
_TEXT	SEGMENT PARA USE32 PUBLIC 'CODE'
_TEXT	ENDS
;	COMDAT ??$_M_append_dispatch@PBD@?$basic_string@DV?$char_traits@D@_STL@@V?$allocator@D@2@@_STL@@AAEAAV01@PBD0ABU__false_type@1@@Z
_TEXT	SEGMENT PARA USE32 PUBLIC 'CODE'
_TEXT	ENDS
;	COMDAT ?_M_create_node@?$_Rb_tree@V?$basic_string@DV?$char_traits@D@_STL@@V?$allocator@D@2@@_STL@@U?$pair@$$CBV?$basic_string@DV?$char_traits@D@_STL@@V?$allocator@D@2@@_STL@@K@2@U?$_Select1st@U?$pair@$$CBV?$basic_string@DV?$char_traits@D@_STL@@V?$allocator@D@2@@_STL@@K@_STL@@@2@U?$less@V?$basic_string@DV?$char_traits@D@_STL@@V?$allocator@D@2@@_STL@@@2@V?$allocator@U?$pair@$$CBV?$basic_string@DV?$char_traits@D@_STL@@V?$allocator@D@2@@_STL@@K@_STL@@@2@@_STL@@IAEPAU?$_Rb_tree_node@U?$pair@$$CBV?$basic_string@DV?$char_traits@D@_STL@@V?$allocator@D@2@@_STL@@K@_STL@@@2@ABU?$pair@$$CBV?$basic_string@DV?$char_traits@D@_STL@@V?$allocator@D@2@@_STL@@K@2@@Z
_TEXT	SEGMENT PARA USE32 PUBLIC 'CODE'
_TEXT	ENDS
;	COMDAT ?_S_parent@?$_Rb_tree@V?$basic_string@DV?$char_traits@D@_STL@@V?$allocator@D@2@@_STL@@U?$pair@$$CBV?$basic_string@DV?$char_traits@D@_STL@@V?$allocator@D@2@@_STL@@K@2@U?$_Select1st@U?$pair@$$CBV?$basic_string@DV?$char_traits@D@_STL@@V?$allocator@D@2@@_STL@@K@_STL@@@2@U?$less@V?$basic_string@DV?$char_traits@D@_STL@@V?$allocator@D@2@@_STL@@@2@V?$allocator@U?$pair@$$CBV?$basic_string@DV?$char_traits@D@_STL@@V?$allocator@D@2@@_STL@@K@_STL@@@2@@_STL@@KAAAPAU?$_Rb_tree_node@U?$pair@$$CBV?$basic_string@DV?$char_traits@D@_STL@@V?$allocator@D@2@@_STL@@K@_STL@@@2@PAU32@@Z
_TEXT	SEGMENT PARA USE32 PUBLIC 'CODE'
_TEXT	ENDS
;	COMDAT ?begin@?$_Rb_tree@V?$basic_string@DV?$char_traits@D@_STL@@V?$allocator@D@2@@_STL@@U?$pair@$$CBV?$basic_string@DV?$char_traits@D@_STL@@V?$allocator@D@2@@_STL@@K@2@U?$_Select1st@U?$pair@$$CBV?$basic_string@DV?$char_traits@D@_STL@@V?$allocator@D@2@@_STL@@K@_STL@@@2@U?$less@V?$basic_string@DV?$char_traits@D@_STL@@V?$allocator@D@2@@_STL@@@2@V?$allocator@U?$pair@$$CBV?$basic_string@DV?$char_traits@D@_STL@@V?$allocator@D@2@@_STL@@K@_STL@@@2@@_STL@@QAE?AU?$_Rb_tree_iterator@U?$pair@$$CBV?$basic_string@DV?$char_traits@D@_STL@@V?$allocator@D@2@@_STL@@K@_STL@@U?$_Nonconst_traits@U?$pair@$$CBV?$basic_string@DV?$char_traits@D@_STL@@V?$allocator@D@2@@_STL@@K@_STL@@@2@@2@XZ
_TEXT	SEGMENT PARA USE32 PUBLIC 'CODE'
_TEXT	ENDS
;	COMDAT ??0?$pair@U?$_Rb_tree_iterator@U?$pair@$$CBV?$basic_string@DV?$char_traits@D@_STL@@V?$allocator@D@2@@_STL@@K@_STL@@U?$_Nonconst_traits@U?$pair@$$CBV?$basic_string@DV?$char_traits@D@_STL@@V?$allocator@D@2@@_STL@@K@_STL@@@2@@_STL@@_N@_STL@@QAE@ABU?$_Rb_tree_iterator@U?$pair@$$CBV?$basic_string@DV?$char_traits@D@_STL@@V?$allocator@D@2@@_STL@@K@_STL@@U?$_Nonconst_traits@U?$pair@$$CBV?$basic_string@DV?$char_traits@D@_STL@@V?$allocator@D@2@@_STL@@K@_STL@@@2@@1@AB_N@Z
_TEXT	SEGMENT PARA USE32 PUBLIC 'CODE'
_TEXT	ENDS
;	COMDAT ??$distance@PBD@_STL@@YAHABQBD0@Z
_TEXT	SEGMENT PARA USE32 PUBLIC 'CODE'
_TEXT	ENDS
;	COMDAT ?_M_allocate_block@?$_String_base@DV?$allocator@D@_STL@@@_STL@@QAEXI@Z
_TEXT	SEGMENT PARA USE32 PUBLIC 'CODE'
_TEXT	ENDS
;	COMDAT ??$distance@PAD@_STL@@YAHABQAD0@Z
_TEXT	SEGMENT PARA USE32 PUBLIC 'CODE'
_TEXT	ENDS
;	COMDAT ??$uninitialized_copy@PADPAD@_STL@@YAPADPAD00@Z
_TEXT	SEGMENT PARA USE32 PUBLIC 'CODE'
_TEXT	ENDS
;	COMDAT ??$_M_append_dispatch@PAD@?$basic_string@DV?$char_traits@D@_STL@@V?$allocator@D@2@@_STL@@AAEAAV01@PAD0ABU__false_type@1@@Z
_TEXT	SEGMENT PARA USE32 PUBLIC 'CODE'
_TEXT	ENDS
;	COMDAT ??$append@PBD@?$basic_string@DV?$char_traits@D@_STL@@V?$allocator@D@2@@_STL@@AAEAAV01@PBD0ABUforward_iterator_tag@1@@Z
_TEXT	SEGMENT PARA USE32 PUBLIC 'CODE'
_TEXT	ENDS
;	COMDAT ??$_Construct@U?$pair@$$CBV?$basic_string@DV?$char_traits@D@_STL@@V?$allocator@D@2@@_STL@@K@_STL@@U12@@_STL@@YAXPAU?$pair@$$CBV?$basic_string@DV?$char_traits@D@_STL@@V?$allocator@D@2@@_STL@@K@0@ABU10@@Z
_TEXT	SEGMENT PARA USE32 PUBLIC 'CODE'
_TEXT	ENDS
;	COMDAT ?_M_construct_null@?$basic_string@DV?$char_traits@D@_STL@@V?$allocator@D@2@@_STL@@AAEXPAD@Z
_TEXT	SEGMENT PARA USE32 PUBLIC 'CODE'
_TEXT	ENDS
;	COMDAT ?max_size@?$basic_string@DV?$char_traits@D@_STL@@V?$allocator@D@2@@_STL@@QBEIXZ
_TEXT	SEGMENT PARA USE32 PUBLIC 'CODE'
_TEXT	ENDS
;	COMDAT ?capacity@?$basic_string@DV?$char_traits@D@_STL@@V?$allocator@D@2@@_STL@@QBEIXZ
_TEXT	SEGMENT PARA USE32 PUBLIC 'CODE'
_TEXT	ENDS
;	COMDAT ?max_size@?$_String_base@DV?$allocator@D@_STL@@@_STL@@QBEIXZ
_TEXT	SEGMENT PARA USE32 PUBLIC 'CODE'
_TEXT	ENDS
;	COMDAT ??0?$pair@$$CBV?$basic_string@DV?$char_traits@D@_STL@@V?$allocator@D@2@@_STL@@K@_STL@@QAE@ABU01@@Z
_TEXT	SEGMENT PARA USE32 PUBLIC 'CODE'
_TEXT	ENDS
;	COMDAT ?_M_construct_null_aux@?$basic_string@DV?$char_traits@D@_STL@@V?$allocator@D@2@@_STL@@AAEXPADABU__true_type@2@@Z
_TEXT	SEGMENT PARA USE32 PUBLIC 'CODE'
_TEXT	ENDS
;	COMDAT ??$__distance@PBD@_STL@@YAHABQBD0ABUrandom_access_iterator_tag@0@@Z
_TEXT	SEGMENT PARA USE32 PUBLIC 'CODE'
_TEXT	ENDS
;	COMDAT ?_M_throw_length_error@?$_String_base@DV?$allocator@D@_STL@@@_STL@@QBEXXZ
_TEXT	SEGMENT PARA USE32 PUBLIC 'CODE'
_TEXT	ENDS
;	COMDAT ??$__distance@PAD@_STL@@YAHABQAD0ABUrandom_access_iterator_tag@0@@Z
_TEXT	SEGMENT PARA USE32 PUBLIC 'CODE'
_TEXT	ENDS
;	COMDAT ??$__uninitialized_copy@PADPAD@_STL@@YAPADPAD00ABU__true_type@0@@Z
_TEXT	SEGMENT PARA USE32 PUBLIC 'CODE'
_TEXT	ENDS
;	COMDAT ??$append@PAD@?$basic_string@DV?$char_traits@D@_STL@@V?$allocator@D@2@@_STL@@AAEAAV01@PAD0ABUforward_iterator_tag@1@@Z
_TEXT	SEGMENT PARA USE32 PUBLIC 'CODE'
_TEXT	ENDS
;	COMDAT ??$max@I@_STL@@YAABIABI0@Z
_TEXT	SEGMENT PARA USE32 PUBLIC 'CODE'
_TEXT	ENDS
;	COMDAT ?_Ret@?$_BothPtrType@PADPAD@_STL@@SA?AU__true_type@2@XZ
_TEXT	SEGMENT PARA USE32 PUBLIC 'CODE'
_TEXT	ENDS
;	COMDAT ??$__copy_aux@PADPAD@_STL@@YAPADPAD00ABU__true_type@0@@Z
_TEXT	SEGMENT PARA USE32 PUBLIC 'CODE'
_TEXT	ENDS
;	COMDAT ?_Ret@?$_OKToMemCpy@DD@_STL@@SA?AU__true_type@2@XZ
_TEXT	SEGMENT PARA USE32 PUBLIC 'CODE'
_TEXT	ENDS
;	COMDAT ??$_IsOKToMemCpy@DD@_STL@@YA?AU?$_OKToMemCpy@DD@0@PAD0@Z
_TEXT	SEGMENT PARA USE32 PUBLIC 'CODE'
_TEXT	ENDS
;	COMDAT ??$__copy_ptrs@PADPAD@_STL@@YAPADPAD00ABU__true_type@0@@Z
_TEXT	SEGMENT PARA USE32 PUBLIC 'CODE'
_TEXT	ENDS
;	COMDAT ??_R3IFileIO@@8
rdata$r	SEGMENT DWORD USE32 PUBLIC 'CONST'
rdata$r	ENDS
;	COMDAT ??_R3iovfs_base@@8
rdata$r	SEGMENT DWORD USE32 PUBLIC 'CONST'
rdata$r	ENDS
;	COMDAT ??_R3ovfstream@@8
rdata$r	SEGMENT DWORD USE32 PUBLIC 'CONST'
rdata$r	ENDS
;	COMDAT ??_R3ivfstream@@8
rdata$r	SEGMENT DWORD USE32 PUBLIC 'CONST'
rdata$r	ENDS
;	COMDAT ??_R2IFileIO@@8
rdata$r	SEGMENT DWORD USE32 PUBLIC 'CONST'
rdata$r	ENDS
;	COMDAT ??_R2iovfs_base@@8
rdata$r	SEGMENT DWORD USE32 PUBLIC 'CONST'
rdata$r	ENDS
;	COMDAT ??_R2ovfstream@@8
rdata$r	SEGMENT DWORD USE32 PUBLIC 'CONST'
rdata$r	ENDS
;	COMDAT ??_R2ivfstream@@8
rdata$r	SEGMENT DWORD USE32 PUBLIC 'CONST'
rdata$r	ENDS
;	COMDAT ??_R1A@?0A@A@IFileIO@@8
rdata$r	SEGMENT DWORD USE32 PUBLIC 'CONST'
rdata$r	ENDS
;	COMDAT ??_R1A@?0A@A@ovfstream@@8
rdata$r	SEGMENT DWORD USE32 PUBLIC 'CONST'
rdata$r	ENDS
;	COMDAT ??_R1A@?0A@A@iovfs_base@@8
rdata$r	SEGMENT DWORD USE32 PUBLIC 'CONST'
rdata$r	ENDS
;	COMDAT ??_R1A@?0A@A@ivfstream@@8
rdata$r	SEGMENT DWORD USE32 PUBLIC 'CONST'
rdata$r	ENDS
;	COMDAT ??_R0?AVIFileIO@@@8
_DATA	SEGMENT DWORD USE32 PUBLIC 'DATA'
_DATA	ENDS
;	COMDAT ??_R0?AVovfstream@@@8
_DATA	SEGMENT DWORD USE32 PUBLIC 'DATA'
_DATA	ENDS
;	COMDAT ??_R0?AViovfs_base@@@8
_DATA	SEGMENT DWORD USE32 PUBLIC 'DATA'
_DATA	ENDS
;	COMDAT ??_R0?AVivfstream@@@8
_DATA	SEGMENT DWORD USE32 PUBLIC 'DATA'
_DATA	ENDS
;	COMDAT ??_R4IFileIO@@6B@
rdata$r	SEGMENT DWORD USE32 PUBLIC 'CONST'
rdata$r	ENDS
;	COMDAT ??_R4iovfs_base@@6B@
rdata$r	SEGMENT DWORD USE32 PUBLIC 'CONST'
rdata$r	ENDS
;	COMDAT ??_R4ovfstream@@6B@
rdata$r	SEGMENT DWORD USE32 PUBLIC 'CONST'
rdata$r	ENDS
;	COMDAT ??_R4ivfstream@@6B@
rdata$r	SEGMENT DWORD USE32 PUBLIC 'CONST'
rdata$r	ENDS
;	COMDAT ?__copy_trivial@_STL@@YAPAXPBX0PAX@Z
_TEXT	SEGMENT PARA USE32 PUBLIC 'CODE'
_TEXT	ENDS
;	COMDAT ??3@YAXPAX0@Z
_TEXT	SEGMENT PARA USE32 PUBLIC 'CODE'
_TEXT	ENDS
;	COMDAT ??2@YAPAXIPAX@Z
_TEXT	SEGMENT PARA USE32 PUBLIC 'CODE'
_TEXT	ENDS
;	COMDAT ?_M_deallocate_block@?$_String_base@DV?$allocator@D@_STL@@@_STL@@QAEXXZ
_TEXT	SEGMENT PARA USE32 PUBLIC 'CODE'
_TEXT	ENDS
;	COMDAT ?deallocate@?$allocator@D@_STL@@QAEXPADI@Z
_TEXT	SEGMENT PARA USE32 PUBLIC 'CODE'
_TEXT	ENDS
;	COMDAT ?__page_size@_Filebuf_base@_STL@@SAIXZ
_TEXT	SEGMENT PARA USE32 PUBLIC 'CODE'
_TEXT	ENDS
;	COMDAT ?_M_write@?$basic_filebuf@DV?$char_traits@D@_STL@@@_STL@@QAE_NPADH@Z
_TEXT	SEGMENT PARA USE32 PUBLIC 'CODE'
_TEXT	ENDS
;	COMDAT ?unshift@?$codecvt@DDH@_STL@@QBE?AW4result@codecvt_base@2@AAHPAD1AAPAD@Z
_TEXT	SEGMENT PARA USE32 PUBLIC 'CODE'
_TEXT	ENDS
;	COMDAT ?uninitialized_copy@_STL@@YAPADPBD0PAD@Z
_TEXT	SEGMENT PARA USE32 PUBLIC 'CODE'
_TEXT	ENDS
;	COMDAT ??$min@H@_STL@@YAABHABH0@Z
_TEXT	SEGMENT PARA USE32 PUBLIC 'CODE'
_TEXT	ENDS
;	COMDAT ?compare@?$char_traits@D@_STL@@SAHPBD0I@Z
_TEXT	SEGMENT PARA USE32 PUBLIC 'CODE'
_TEXT	ENDS
;	COMDAT ?assign@?$char_traits@D@_STL@@SAXAADABD@Z
_TEXT	SEGMENT PARA USE32 PUBLIC 'CODE'
_TEXT	ENDS
;	COMDAT ?always_noconv@?$codecvt@DDH@_STL@@QBE_NXZ
_TEXT	SEGMENT PARA USE32 PUBLIC 'CODE'
_TEXT	ENDS
;	COMDAT ?encoding@?$codecvt@DDH@_STL@@QBEHXZ
_TEXT	SEGMENT PARA USE32 PUBLIC 'CODE'
_TEXT	ENDS
;	COMDAT ?max_length@?$codecvt@DDH@_STL@@QBEHXZ
_TEXT	SEGMENT PARA USE32 PUBLIC 'CODE'
_TEXT	ENDS
;	COMDAT ?__o_mode@_Filebuf_base@_STL@@QBEHXZ
_TEXT	SEGMENT PARA USE32 PUBLIC 'CODE'
_TEXT	ENDS
;	COMDAT ?deallocate@?$__node_alloc@$00$0A@@_STL@@SAXPAXI@Z
_TEXT	SEGMENT PARA USE32 PUBLIC 'CODE'
_TEXT	ENDS
;	COMDAT ?__stl_delete@_STL@@YAXPAX@Z
_TEXT	SEGMENT PARA USE32 PUBLIC 'CODE'
_TEXT	ENDS
;	COMDAT ?_Destroy@_STL@@YAXPAD0@Z
_TEXT	SEGMENT PARA USE32 PUBLIC 'CODE'
_TEXT	ENDS
;	COMDAT ??0?$basic_string@DV?$char_traits@D@_STL@@V?$allocator@D@2@@_STL@@QAE@ABV01@@Z
_TEXT	SEGMENT PARA USE32 PUBLIC 'CODE'
_TEXT	ENDS
;	COMDAT ??1?$_String_base@DV?$allocator@D@_STL@@@_STL@@QAE@XZ
_TEXT	SEGMENT PARA USE32 PUBLIC 'CODE'
_TEXT	ENDS
;	COMDAT ??8_Rb_tree_base_iterator@_STL@@QBE_NABU01@@Z
_TEXT	SEGMENT PARA USE32 PUBLIC 'CODE'
_TEXT	ENDS
;	COMDAT ?setp@?$basic_streambuf@DV?$char_traits@D@_STL@@@_STL@@IAEXPAD0@Z
_TEXT	SEGMENT PARA USE32 PUBLIC 'CODE'
_TEXT	ENDS
;	COMDAT ?_FILE_O_set@_STL@@YAXPAU_iobuf@@PAD11@Z
_TEXT	SEGMENT PARA USE32 PUBLIC 'CODE'
_TEXT	ENDS
;	COMDAT ?_FILE_I_set@_STL@@YAXPAU_iobuf@@PAD11@Z
_TEXT	SEGMENT PARA USE32 PUBLIC 'CODE'
_TEXT	ENDS
;	COMDAT ?setg@?$basic_streambuf@DV?$char_traits@D@_STL@@@_STL@@IAEXPAD00@Z
_TEXT	SEGMENT PARA USE32 PUBLIC 'CODE'
_TEXT	ENDS
;	COMDAT ?__is_open@_Filebuf_base@_STL@@QBE_NXZ
_TEXT	SEGMENT PARA USE32 PUBLIC 'CODE'
_TEXT	ENDS
;	COMDAT ?allocate@?$__node_alloc@$00$0A@@_STL@@SAPAXI@Z
_TEXT	SEGMENT PARA USE32 PUBLIC 'CODE'
_TEXT	ENDS
;	COMDAT ?__stl_new@_STL@@YAPAXI@Z
_TEXT	SEGMENT PARA USE32 PUBLIC 'CODE'
_TEXT	ENDS
;	COMDAT ??1?$_STLP_alloc_proxy@PADDV?$allocator@D@_STL@@@_STL@@QAE@XZ
_TEXT	SEGMENT PARA USE32 PUBLIC 'CODE'
_TEXT	ENDS
;	COMDAT ?length@?$char_traits@D@_STL@@SAIPBD@Z
_TEXT	SEGMENT PARA USE32 PUBLIC 'CODE'
_TEXT	ENDS
;	COMDAT ?eof@?$__char_traits_base@DH@_STL@@SAHXZ
_TEXT	SEGMENT PARA USE32 PUBLIC 'CODE'
_TEXT	ENDS
;	COMDAT ??9_Rb_tree_base_iterator@_STL@@QBE_NABU01@@Z
_TEXT	SEGMENT PARA USE32 PUBLIC 'CODE'
_TEXT	ENDS
;	COMDAT ??1?$allocator@D@_STL@@QAE@XZ
_TEXT	SEGMENT PARA USE32 PUBLIC 'CODE'
_TEXT	ENDS
;	COMDAT ??0?$allocator@D@_STL@@QAE@XZ
_TEXT	SEGMENT PARA USE32 PUBLIC 'CODE'
_TEXT	ENDS
;	COMDAT ??0?$basic_string@DV?$char_traits@D@_STL@@V?$allocator@D@2@@_STL@@QAE@PBDABV?$allocator@D@1@@Z
_TEXT	SEGMENT PARA USE32 PUBLIC 'CODE'
_TEXT	ENDS
;	COMDAT ??_7ovfstream@@6B@
CONST	SEGMENT DWORD USE32 PUBLIC 'CONST'
CONST	ENDS
;	COMDAT ??_7ivfstream@@6B@
CONST	SEGMENT DWORD USE32 PUBLIC 'CONST'
CONST	ENDS
;	COMDAT ??0?$basic_string@DV?$char_traits@D@_STL@@V?$allocator@D@2@@_STL@@QAE@XZ
_TEXT	SEGMENT PARA USE32 PUBLIC 'CODE'
_TEXT	ENDS
;	COMDAT ??1?$basic_string@DV?$char_traits@D@_STL@@V?$allocator@D@2@@_STL@@QAE@XZ
_TEXT	SEGMENT PARA USE32 PUBLIC 'CODE'
_TEXT	ENDS
;	COMDAT ??_7iovfs_base@@6B@
CONST	SEGMENT DWORD USE32 PUBLIC 'CONST'
CONST	ENDS
;	COMDAT ??_7IFileIO@@6B@
CONST	SEGMENT DWORD USE32 PUBLIC 'CONST'
CONST	ENDS
sxdata	SEGMENT DWORD USE32 'SXDATA'
sxdata	ENDS
FLAT	GROUP _DATA, CONST, _BSS
	ASSUME	CS: FLAT, DS: FLAT, SS: FLAT
endif

INCLUDELIB LIBCMT
INCLUDELIB OLDNAMES

PUBLIC	?g_pJusticeAttackManager@@3PAVMJusticeAttackManager@@A ; g_pJusticeAttackManager
_BSS	SEGMENT
?g_pJusticeAttackManager@@3PAVMJusticeAttackManager@@A DD 01H DUP (?) ; g_pJusticeAttackManager
_BSS	ENDS
PUBLIC	??2@YAPAXIPAX@Z					; operator new
; Function compile flags: /Ogsy
; File c:\program files\microsoft visual studio .net 2003\vc7\include\new
;	COMDAT ??2@YAPAXIPAX@Z
_TEXT	SEGMENT
___formal$ = 8						; size = 4
__Where$ = 12						; size = 4
??2@YAPAXIPAX@Z PROC NEAR				; operator new, COMDAT

; 64   : 	return (_Where);

  00000	8b 44 24 08	 mov	 eax, DWORD PTR __Where$[esp-4]

; 65   : 	}

  00004	c3		 ret	 0
??2@YAPAXIPAX@Z ENDP					; operator new
_TEXT	ENDS
PUBLIC	??3@YAXPAX0@Z					; operator delete
; Function compile flags: /Ogsy
;	COMDAT ??3@YAXPAX0@Z
_TEXT	SEGMENT
___formal$ = 8						; size = 4
___formal$ = 12						; size = 4
??3@YAXPAX0@Z PROC NEAR					; operator delete, COMDAT

; 69   : 	}

  00000	c3		 ret	 0
??3@YAXPAX0@Z ENDP					; operator delete
_TEXT	ENDS
PUBLIC	?__stl_new@_STL@@YAPAXI@Z			; _STL::__stl_new
EXTRN	??2@YAPAXI@Z:NEAR				; operator new
; Function compile flags: /Ogsy
; File c:\stlport-4.6.1\stlport\stl\_new.h
;	COMDAT ?__stl_new@_STL@@YAPAXI@Z
_TEXT	SEGMENT
___n$ = 8						; size = 4
?__stl_new@_STL@@YAPAXI@Z PROC NEAR			; _STL::__stl_new, COMDAT

; 86   : inline void*  _STLP_CALL __stl_new(size_t __n)   { _STLP_CHECK_NULL_ALLOC(::operator _STLP_NEW(__n)); }

  00000	e9 00 00 00 00	 jmp	 ??2@YAPAXI@Z		; operator new
?__stl_new@_STL@@YAPAXI@Z ENDP				; _STL::__stl_new
_TEXT	ENDS
PUBLIC	?__stl_delete@_STL@@YAXPAX@Z			; _STL::__stl_delete
EXTRN	??3@YAXPAX@Z:NEAR				; operator delete
; Function compile flags: /Ogsy
;	COMDAT ?__stl_delete@_STL@@YAXPAX@Z
_TEXT	SEGMENT
___p$ = 8						; size = 4
?__stl_delete@_STL@@YAXPAX@Z PROC NEAR			; _STL::__stl_delete, COMDAT

; 87   : inline void   _STLP_CALL __stl_delete(void* __p) { ::operator delete(__p); }

  00000	e9 00 00 00 00	 jmp	 ??3@YAXPAX@Z		; operator delete
?__stl_delete@_STL@@YAXPAX@Z ENDP			; _STL::__stl_delete
_TEXT	ENDS
PUBLIC	?_Destroy@_STL@@YAXPAD0@Z			; _STL::_Destroy
; Function compile flags: /Ogsy
; File c:\stlport-4.6.1\stlport\stl\_construct.h
;	COMDAT ?_Destroy@_STL@@YAXPAD0@Z
_TEXT	SEGMENT
___formal$ = 8						; size = 4
___formal$ = 12						; size = 4
?_Destroy@_STL@@YAXPAD0@Z PROC NEAR			; _STL::_Destroy, COMDAT

; 142  : inline void _Destroy(char*, char*) {}

  00000	c3		 ret	 0
?_Destroy@_STL@@YAXPAD0@Z ENDP				; _STL::_Destroy
_TEXT	ENDS
PUBLIC	?__copy_trivial@_STL@@YAPAXPBX0PAX@Z		; _STL::__copy_trivial
EXTRN	_memmove:NEAR
; Function compile flags: /Ogsy
; File c:\stlport-4.6.1\stlport\stl\_algobase.h
;	COMDAT ?__copy_trivial@_STL@@YAPAXPBX0PAX@Z
_TEXT	SEGMENT
___first$ = 8						; size = 4
___last$ = 12						; size = 4
___result$ = 16						; size = 4
?__copy_trivial@_STL@@YAPAXPBX0PAX@Z PROC NEAR		; _STL::__copy_trivial, COMDAT

; 147  : __copy_trivial(const void* __first, const void* __last, void* __result) {

  00000	55		 push	 ebp
  00001	8b ec		 mov	 ebp, esp
  00003	56		 push	 esi

; 148  :   return (__last == __first) ? __result : 
; 149  :     ((char*)memmove(__result, __first, ((const char*)__last - (const char*)__first))) + 
; 150  :     ((const char*)__last - (const char*)__first);

  00004	8b 75 0c	 mov	 esi, DWORD PTR ___last$[ebp]
  00007	3b 75 08	 cmp	 esi, DWORD PTR ___first$[ebp]
  0000a	75 05		 jne	 SHORT $L102537
  0000c	8b 45 10	 mov	 eax, DWORD PTR ___result$[ebp]
  0000f	eb 14		 jmp	 SHORT $L102538
$L102537:
  00011	2b 75 08	 sub	 esi, DWORD PTR ___first$[ebp]
  00014	56		 push	 esi
  00015	ff 75 08	 push	 DWORD PTR ___first$[ebp]
  00018	ff 75 10	 push	 DWORD PTR ___result$[ebp]
  0001b	e8 00 00 00 00	 call	 _memmove
  00020	83 c4 0c	 add	 esp, 12			; 0000000cH
  00023	03 c6		 add	 eax, esi
$L102538:
  00025	5e		 pop	 esi

; 151  : }

  00026	5d		 pop	 ebp
  00027	c3		 ret	 0
?__copy_trivial@_STL@@YAPAXPBX0PAX@Z ENDP		; _STL::__copy_trivial
_TEXT	ENDS
PUBLIC	?uninitialized_copy@_STL@@YAPADPBD0PAD@Z	; _STL::uninitialized_copy
; Function compile flags: /Ogsy
; File c:\stlport-4.6.1\stlport\stl\_uninitialized.h
;	COMDAT ?uninitialized_copy@_STL@@YAPADPBD0PAD@Z
_TEXT	SEGMENT
___first$ = 8						; size = 4
___last$ = 12						; size = 4
___result$ = 16						; size = 4
?uninitialized_copy@_STL@@YAPADPBD0PAD@Z PROC NEAR	; _STL::uninitialized_copy, COMDAT

; 84   :   return  (char*)__copy_trivial (__first, __last, __result);

  00000	e9 00 00 00 00	 jmp	 ?__copy_trivial@_STL@@YAPAXPBX0PAX@Z ; _STL::__copy_trivial
?uninitialized_copy@_STL@@YAPADPBD0PAD@Z ENDP		; _STL::uninitialized_copy
_TEXT	ENDS
PUBLIC	?compare@?$char_traits@D@_STL@@SAHPBD0I@Z	; _STL::char_traits<char>::compare
EXTRN	_memcmp:NEAR
; Function compile flags: /Ogsy
; File c:\stlport-4.6.1\stlport\stl\char_traits.h
;	COMDAT ?compare@?$char_traits@D@_STL@@SAHPBD0I@Z
_TEXT	SEGMENT
___s1$ = 8						; size = 4
___s2$ = 12						; size = 4
___n$ = 16						; size = 4
?compare@?$char_traits@D@_STL@@SAHPBD0I@Z PROC NEAR	; _STL::char_traits<char>::compare, COMDAT

; 236  :     { return memcmp(__s1, __s2, __n); }

  00000	e9 00 00 00 00	 jmp	 _memcmp
?compare@?$char_traits@D@_STL@@SAHPBD0I@Z ENDP		; _STL::char_traits<char>::compare
_TEXT	ENDS
PUBLIC	?length@?$char_traits@D@_STL@@SAIPBD@Z		; _STL::char_traits<char>::length
EXTRN	_strlen:NEAR
; Function compile flags: /Ogsy
;	COMDAT ?length@?$char_traits@D@_STL@@SAIPBD@Z
_TEXT	SEGMENT
___s$ = 8						; size = 4
?length@?$char_traits@D@_STL@@SAIPBD@Z PROC NEAR	; _STL::char_traits<char>::length, COMDAT

; 238  :   static size_t _STLP_CALL length(const char* __s) { return strlen(__s); }

  00000	e9 00 00 00 00	 jmp	 _strlen
?length@?$char_traits@D@_STL@@SAIPBD@Z ENDP		; _STL::char_traits<char>::length
_TEXT	ENDS
PUBLIC	??0?$_Rb_tree_iterator@U?$pair@$$CBV?$basic_string@DV?$char_traits@D@_STL@@V?$allocator@D@2@@_STL@@K@_STL@@U?$_Nonconst_traits@U?$pair@$$CBV?$basic_string@DV?$char_traits@D@_STL@@V?$allocator@D@2@@_STL@@K@_STL@@@2@@_STL@@QAE@ABU01@@Z ; _STL::_Rb_tree_iterator<_STL::pair<_STL::basic_string<char,_STL::char_traits<char>,_STL::allocator<char> > const ,unsigned long>,_STL::_Nonconst_traits<_STL::pair<_STL::basic_string<char,_STL::char_traits<char>,_STL::allocator<char> > const ,unsigned long> > >::_Rb_tree_iterator<_STL::pair<_STL::basic_string<char,_STL::char_traits<char>,_STL::allocator<char> > const ,unsigned long>,_STL::_Nonconst_traits<_STL::pair<_STL::basic_string<char,_STL::char_traits<char>,_STL::allocator<char> > const ,unsigned long> > >
; Function compile flags: /Ogsy
; File c:\stlport-4.6.1\stlport\stl\_tree.h
;	COMDAT ??0?$_Rb_tree_iterator@U?$pair@$$CBV?$basic_string@DV?$char_traits@D@_STL@@V?$allocator@D@2@@_STL@@K@_STL@@U?$_Nonconst_traits@U?$pair@$$CBV?$basic_string@DV?$char_traits@D@_STL@@V?$allocator@D@2@@_STL@@K@_STL@@@2@@_STL@@QAE@ABU01@@Z
_TEXT	SEGMENT
___it$ = 8						; size = 4
??0?$_Rb_tree_iterator@U?$pair@$$CBV?$basic_string@DV?$char_traits@D@_STL@@V?$allocator@D@2@@_STL@@K@_STL@@U?$_Nonconst_traits@U?$pair@$$CBV?$basic_string@DV?$char_traits@D@_STL@@V?$allocator@D@2@@_STL@@K@_STL@@@2@@_STL@@QAE@ABU01@@Z PROC NEAR ; _STL::_Rb_tree_iterator<_STL::pair<_STL::basic_string<char,_STL::char_traits<char>,_STL::allocator<char> > const ,unsigned long>,_STL::_Nonconst_traits<_STL::pair<_STL::basic_string<char,_STL::char_traits<char>,_STL::allocator<char> > const ,unsigned long> > >::_Rb_tree_iterator<_STL::pair<_STL::basic_string<char,_STL::char_traits<char>,_STL::allocator<char> > const ,unsigned long>,_STL::_Nonconst_traits<_STL::pair<_STL::basic_string<char,_STL::char_traits<char>,_STL::allocator<char> > const ,unsigned long> > >, COMDAT
; _this$ = ecx

; 165  :   _Rb_tree_iterator(const _Rb_tree_iterator<_Value, 

  00000	8b c1		 mov	 eax, ecx
  00002	8b 4c 24 04	 mov	 ecx, DWORD PTR ___it$[esp-4]
  00006	8b 09		 mov	 ecx, DWORD PTR [ecx]
  00008	89 08		 mov	 DWORD PTR [eax], ecx

; 166  :                     _Nonconst_traits<_Value> >& __it) { _M_node = __it._M_node; }

  0000a	c2 04 00	 ret	 4
??0?$_Rb_tree_iterator@U?$pair@$$CBV?$basic_string@DV?$char_traits@D@_STL@@V?$allocator@D@2@@_STL@@K@_STL@@U?$_Nonconst_traits@U?$pair@$$CBV?$basic_string@DV?$char_traits@D@_STL@@V?$allocator@D@2@@_STL@@K@_STL@@@2@@_STL@@QAE@ABU01@@Z ENDP ; _STL::_Rb_tree_iterator<_STL::pair<_STL::basic_string<char,_STL::char_traits<char>,_STL::allocator<char> > const ,unsigned long>,_STL::_Nonconst_traits<_STL::pair<_STL::basic_string<char,_STL::char_traits<char>,_STL::allocator<char> > const ,unsigned long> > >::_Rb_tree_iterator<_STL::pair<_STL::basic_string<char,_STL::char_traits<char>,_STL::allocator<char> > const ,unsigned long>,_STL::_Nonconst_traits<_STL::pair<_STL::basic_string<char,_STL::char_traits<char>,_STL::allocator<char> > const ,unsigned long> > >
_TEXT	ENDS
PUBLIC	?_M_terminate_string_aux@?$basic_string@DV?$char_traits@D@_STL@@V?$allocator@D@2@@_STL@@AAEXABU__true_type@2@@Z ; _STL::basic_string<char,_STL::char_traits<char>,_STL::allocator<char> >::_M_terminate_string_aux
; Function compile flags: /Ogsy
; File c:\stlport-4.6.1\stlport\stl\_string.h
;	COMDAT ?_M_terminate_string_aux@?$basic_string@DV?$char_traits@D@_STL@@V?$allocator@D@2@@_STL@@AAEXABU__true_type@2@@Z
_TEXT	SEGMENT
___formal$ = 8						; size = 4
?_M_terminate_string_aux@?$basic_string@DV?$char_traits@D@_STL@@V?$allocator@D@2@@_STL@@AAEXABU__true_type@2@@Z PROC NEAR ; _STL::basic_string<char,_STL::char_traits<char>,_STL::allocator<char> >::_M_terminate_string_aux, COMDAT
; _this$ = ecx

; 351  :     *(this->_M_finish)=0;

  00000	8b 41 04	 mov	 eax, DWORD PTR [ecx+4]
  00003	c6 00 00	 mov	 BYTE PTR [eax], 0

; 352  :   }

  00006	c2 04 00	 ret	 4
?_M_terminate_string_aux@?$basic_string@DV?$char_traits@D@_STL@@V?$allocator@D@2@@_STL@@AAEXABU__true_type@2@@Z ENDP ; _STL::basic_string<char,_STL::char_traits<char>,_STL::allocator<char> >::_M_terminate_string_aux
_TEXT	ENDS
PUBLIC	??0?$allocator@D@_STL@@QAE@ABV01@@Z		; _STL::allocator<char>::allocator<char>
; Function compile flags: /Ogsy
; File c:\stlport-4.6.1\stlport\stl\_alloc.h
;	COMDAT ??0?$allocator@D@_STL@@QAE@ABV01@@Z
_TEXT	SEGMENT
___formal$ = 8						; size = 4
??0?$allocator@D@_STL@@QAE@ABV01@@Z PROC NEAR		; _STL::allocator<char>::allocator<char>, COMDAT
; _this$ = ecx

; 349  :   allocator(const allocator<_Tp>&) _STLP_NOTHROW {}

  00000	8b c1		 mov	 eax, ecx
  00002	c2 04 00	 ret	 4
??0?$allocator@D@_STL@@QAE@ABV01@@Z ENDP		; _STL::allocator<char>::allocator<char>
_TEXT	ENDS
PUBLIC	??0?$allocator@U?$pair@$$CBV?$basic_string@DV?$char_traits@D@_STL@@V?$allocator@D@2@@_STL@@K@_STL@@@_STL@@QAE@XZ ; _STL::allocator<_STL::pair<_STL::basic_string<char,_STL::char_traits<char>,_STL::allocator<char> > const ,unsigned long> >::allocator<_STL::pair<_STL::basic_string<char,_STL::char_traits<char>,_STL::allocator<char> > const ,unsigned long> >
; Function compile flags: /Ogsy
;	COMDAT ??0?$allocator@U?$pair@$$CBV?$basic_string@DV?$char_traits@D@_STL@@V?$allocator@D@2@@_STL@@K@_STL@@@_STL@@QAE@XZ
_TEXT	SEGMENT
??0?$allocator@U?$pair@$$CBV?$basic_string@DV?$char_traits@D@_STL@@V?$allocator@D@2@@_STL@@K@_STL@@@_STL@@QAE@XZ PROC NEAR ; _STL::allocator<_STL::pair<_STL::basic_string<char,_STL::char_traits<char>,_STL::allocator<char> > const ,unsigned long> >::allocator<_STL::pair<_STL::basic_string<char,_STL::char_traits<char>,_STL::allocator<char> > const ,unsigned long> >, COMDAT
; _this$ = ecx

; 345  :   allocator() _STLP_NOTHROW {}

  00000	8b c1		 mov	 eax, ecx
  00002	c3		 ret	 0
??0?$allocator@U?$pair@$$CBV?$basic_string@DV?$char_traits@D@_STL@@V?$allocator@D@2@@_STL@@K@_STL@@@_STL@@QAE@XZ ENDP ; _STL::allocator<_STL::pair<_STL::basic_string<char,_STL::char_traits<char>,_STL::allocator<char> > const ,unsigned long> >::allocator<_STL::pair<_STL::basic_string<char,_STL::char_traits<char>,_STL::allocator<char> > const ,unsigned long> >
_TEXT	ENDS
PUBLIC	??1?$allocator@U?$pair@$$CBV?$basic_string@DV?$char_traits@D@_STL@@V?$allocator@D@2@@_STL@@K@_STL@@@_STL@@QAE@XZ ; _STL::allocator<_STL::pair<_STL::basic_string<char,_STL::char_traits<char>,_STL::allocator<char> > const ,unsigned long> >::~allocator<_STL::pair<_STL::basic_string<char,_STL::char_traits<char>,_STL::allocator<char> > const ,unsigned long> >
; Function compile flags: /Ogsy
;	COMDAT ??1?$allocator@U?$pair@$$CBV?$basic_string@DV?$char_traits@D@_STL@@V?$allocator@D@2@@_STL@@K@_STL@@@_STL@@QAE@XZ
_TEXT	SEGMENT
??1?$allocator@U?$pair@$$CBV?$basic_string@DV?$char_traits@D@_STL@@V?$allocator@D@2@@_STL@@K@_STL@@@_STL@@QAE@XZ PROC NEAR ; _STL::allocator<_STL::pair<_STL::basic_string<char,_STL::char_traits<char>,_STL::allocator<char> > const ,unsigned long> >::~allocator<_STL::pair<_STL::basic_string<char,_STL::char_traits<char>,_STL::allocator<char> > const ,unsigned long> >, COMDAT
; _this$ = ecx

; 350  :   ~allocator() _STLP_NOTHROW {}

  00000	c3		 ret	 0
??1?$allocator@U?$pair@$$CBV?$basic_string@DV?$char_traits@D@_STL@@V?$allocator@D@2@@_STL@@K@_STL@@@_STL@@QAE@XZ ENDP ; _STL::allocator<_STL::pair<_STL::basic_string<char,_STL::char_traits<char>,_STL::allocator<char> > const ,unsigned long> >::~allocator<_STL::pair<_STL::basic_string<char,_STL::char_traits<char>,_STL::allocator<char> > const ,unsigned long> >
_TEXT	ENDS
PUBLIC	??D?$_Rb_tree_iterator@U?$pair@$$CBV?$basic_string@DV?$char_traits@D@_STL@@V?$allocator@D@2@@_STL@@K@_STL@@U?$_Nonconst_traits@U?$pair@$$CBV?$basic_string@DV?$char_traits@D@_STL@@V?$allocator@D@2@@_STL@@K@_STL@@@2@@_STL@@QBEAAU?$pair@$$CBV?$basic_string@DV?$char_traits@D@_STL@@V?$allocator@D@2@@_STL@@K@1@XZ ; _STL::_Rb_tree_iterator<_STL::pair<_STL::basic_string<char,_STL::char_traits<char>,_STL::allocator<char> > const ,unsigned long>,_STL::_Nonconst_traits<_STL::pair<_STL::basic_string<char,_STL::char_traits<char>,_STL::allocator<char> > const ,unsigned long> > >::operator*
; Function compile flags: /Ogsy
; File c:\stlport-4.6.1\stlport\stl\_tree.h
;	COMDAT ??D?$_Rb_tree_iterator@U?$pair@$$CBV?$basic_string@DV?$char_traits@D@_STL@@V?$allocator@D@2@@_STL@@K@_STL@@U?$_Nonconst_traits@U?$pair@$$CBV?$basic_string@DV?$char_traits@D@_STL@@V?$allocator@D@2@@_STL@@K@_STL@@@2@@_STL@@QBEAAU?$pair@$$CBV?$basic_string@DV?$char_traits@D@_STL@@V?$allocator@D@2@@_STL@@K@1@XZ
_TEXT	SEGMENT
??D?$_Rb_tree_iterator@U?$pair@$$CBV?$basic_string@DV?$char_traits@D@_STL@@V?$allocator@D@2@@_STL@@K@_STL@@U?$_Nonconst_traits@U?$pair@$$CBV?$basic_string@DV?$char_traits@D@_STL@@V?$allocator@D@2@@_STL@@K@_STL@@@2@@_STL@@QBEAAU?$pair@$$CBV?$basic_string@DV?$char_traits@D@_STL@@V?$allocator@D@2@@_STL@@K@1@XZ PROC NEAR ; _STL::_Rb_tree_iterator<_STL::pair<_STL::basic_string<char,_STL::char_traits<char>,_STL::allocator<char> > const ,unsigned long>,_STL::_Nonconst_traits<_STL::pair<_STL::basic_string<char,_STL::char_traits<char>,_STL::allocator<char> > const ,unsigned long> > >::operator*, COMDAT
; _this$ = ecx

; 169  :     return _Link_type(_M_node)->_M_value_field; 

  00000	8b 01		 mov	 eax, DWORD PTR [ecx]
  00002	83 c0 10	 add	 eax, 16			; 00000010H

; 170  :   }

  00005	c3		 ret	 0
??D?$_Rb_tree_iterator@U?$pair@$$CBV?$basic_string@DV?$char_traits@D@_STL@@V?$allocator@D@2@@_STL@@K@_STL@@U?$_Nonconst_traits@U?$pair@$$CBV?$basic_string@DV?$char_traits@D@_STL@@V?$allocator@D@2@@_STL@@K@_STL@@@2@@_STL@@QBEAAU?$pair@$$CBV?$basic_string@DV?$char_traits@D@_STL@@V?$allocator@D@2@@_STL@@K@1@XZ ENDP ; _STL::_Rb_tree_iterator<_STL::pair<_STL::basic_string<char,_STL::char_traits<char>,_STL::allocator<char> > const ,unsigned long>,_STL::_Nonconst_traits<_STL::pair<_STL::basic_string<char,_STL::char_traits<char>,_STL::allocator<char> > const ,unsigned long> > >::operator*
_TEXT	ENDS
PUBLIC	?_M_root@?$_Rb_tree@V?$basic_string@DV?$char_traits@D@_STL@@V?$allocator@D@2@@_STL@@U?$pair@$$CBV?$basic_string@DV?$char_traits@D@_STL@@V?$allocator@D@2@@_STL@@K@2@U?$_Select1st@U?$pair@$$CBV?$basic_string@DV?$char_traits@D@_STL@@V?$allocator@D@2@@_STL@@K@_STL@@@2@U?$less@V?$basic_string@DV?$char_traits@D@_STL@@V?$allocator@D@2@@_STL@@@2@V?$allocator@U?$pair@$$CBV?$basic_string@DV?$char_traits@D@_STL@@V?$allocator@D@2@@_STL@@K@_STL@@@2@@_STL@@IBEAAPAU?$_Rb_tree_node@U?$pair@$$CBV?$basic_string@DV?$char_traits@D@_STL@@V?$allocator@D@2@@_STL@@K@_STL@@@2@XZ ; _STL::_Rb_tree<_STL::basic_string<char,_STL::char_traits<char>,_STL::allocator<char> >,_STL::pair<_STL::basic_string<char,_STL::char_traits<char>,_STL::allocator<char> > const ,unsigned long>,_STL::_Select1st<_STL::pair<_STL::basic_string<char,_STL::char_traits<char>,_STL::allocator<char> > const ,unsigned long> >,_STL::less<_STL::basic_string<char,_STL::char_traits<char>,_STL::allocator<char> > >,_STL::allocator<_STL::pair<_STL::basic_string<char,_STL::char_traits<char>,_STL::allocator<char> > const ,unsigned long> > >::_M_root
; Function compile flags: /Ogsy
;	COMDAT ?_M_root@?$_Rb_tree@V?$basic_string@DV?$char_traits@D@_STL@@V?$allocator@D@2@@_STL@@U?$pair@$$CBV?$basic_string@DV?$char_traits@D@_STL@@V?$allocator@D@2@@_STL@@K@2@U?$_Select1st@U?$pair@$$CBV?$basic_string@DV?$char_traits@D@_STL@@V?$allocator@D@2@@_STL@@K@_STL@@@2@U?$less@V?$basic_string@DV?$char_traits@D@_STL@@V?$allocator@D@2@@_STL@@@2@V?$allocator@U?$pair@$$CBV?$basic_string@DV?$char_traits@D@_STL@@V?$allocator@D@2@@_STL@@K@_STL@@@2@@_STL@@IBEAAPAU?$_Rb_tree_node@U?$pair@$$CBV?$basic_string@DV?$char_traits@D@_STL@@V?$allocator@D@2@@_STL@@K@_STL@@@2@XZ
_TEXT	SEGMENT
?_M_root@?$_Rb_tree@V?$basic_string@DV?$char_traits@D@_STL@@V?$allocator@D@2@@_STL@@U?$pair@$$CBV?$basic_string@DV?$char_traits@D@_STL@@V?$allocator@D@2@@_STL@@K@2@U?$_Select1st@U?$pair@$$CBV?$basic_string@DV?$char_traits@D@_STL@@V?$allocator@D@2@@_STL@@K@_STL@@@2@U?$less@V?$basic_string@DV?$char_traits@D@_STL@@V?$allocator@D@2@@_STL@@@2@V?$allocator@U?$pair@$$CBV?$basic_string@DV?$char_traits@D@_STL@@V?$allocator@D@2@@_STL@@K@_STL@@@2@@_STL@@IBEAAPAU?$_Rb_tree_node@U?$pair@$$CBV?$basic_string@DV?$char_traits@D@_STL@@V?$allocator@D@2@@_STL@@K@_STL@@@2@XZ PROC NEAR ; _STL::_Rb_tree<_STL::basic_string<char,_STL::char_traits<char>,_STL::allocator<char> >,_STL::pair<_STL::basic_string<char,_STL::char_traits<char>,_STL::allocator<char> > const ,unsigned long>,_STL::_Select1st<_STL::pair<_STL::basic_string<char,_STL::char_traits<char>,_STL::allocator<char> > const ,unsigned long> >,_STL::less<_STL::basic_string<char,_STL::char_traits<char>,_STL::allocator<char> > >,_STL::allocator<_STL::pair<_STL::basic_string<char,_STL::char_traits<char>,_STL::allocator<char> > const ,unsigned long> > >::_M_root, COMDAT
; _this$ = ecx

; 265  :     { return (_Link_type&) this->_M_header._M_data->_M_parent; }

  00000	8b 01		 mov	 eax, DWORD PTR [ecx]
  00002	83 c0 04	 add	 eax, 4
  00005	c3		 ret	 0
?_M_root@?$_Rb_tree@V?$basic_string@DV?$char_traits@D@_STL@@V?$allocator@D@2@@_STL@@U?$pair@$$CBV?$basic_string@DV?$char_traits@D@_STL@@V?$allocator@D@2@@_STL@@K@2@U?$_Select1st@U?$pair@$$CBV?$basic_string@DV?$char_traits@D@_STL@@V?$allocator@D@2@@_STL@@K@_STL@@@2@U?$less@V?$basic_string@DV?$char_traits@D@_STL@@V?$allocator@D@2@@_STL@@@2@V?$allocator@U?$pair@$$CBV?$basic_string@DV?$char_traits@D@_STL@@V?$allocator@D@2@@_STL@@K@_STL@@@2@@_STL@@IBEAAPAU?$_Rb_tree_node@U?$pair@$$CBV?$basic_string@DV?$char_traits@D@_STL@@V?$allocator@D@2@@_STL@@K@_STL@@@2@XZ ENDP ; _STL::_Rb_tree<_STL::basic_string<char,_STL::char_traits<char>,_STL::allocator<char> >,_STL::pair<_STL::basic_string<char,_STL::char_traits<char>,_STL::allocator<char> > const ,unsigned long>,_STL::_Select1st<_STL::pair<_STL::basic_string<char,_STL::char_traits<char>,_STL::allocator<char> > const ,unsigned long> >,_STL::less<_STL::basic_string<char,_STL::char_traits<char>,_STL::allocator<char> > >,_STL::allocator<_STL::pair<_STL::basic_string<char,_STL::char_traits<char>,_STL::allocator<char> > const ,unsigned long> > >::_M_root
_TEXT	ENDS
PUBLIC	?_M_leftmost@?$_Rb_tree@V?$basic_string@DV?$char_traits@D@_STL@@V?$allocator@D@2@@_STL@@U?$pair@$$CBV?$basic_string@DV?$char_traits@D@_STL@@V?$allocator@D@2@@_STL@@K@2@U?$_Select1st@U?$pair@$$CBV?$basic_string@DV?$char_traits@D@_STL@@V?$allocator@D@2@@_STL@@K@_STL@@@2@U?$less@V?$basic_string@DV?$char_traits@D@_STL@@V?$allocator@D@2@@_STL@@@2@V?$allocator@U?$pair@$$CBV?$basic_string@DV?$char_traits@D@_STL@@V?$allocator@D@2@@_STL@@K@_STL@@@2@@_STL@@IBEAAPAU?$_Rb_tree_node@U?$pair@$$CBV?$basic_string@DV?$char_traits@D@_STL@@V?$allocator@D@2@@_STL@@K@_STL@@@2@XZ ; _STL::_Rb_tree<_STL::basic_string<char,_STL::char_traits<char>,_STL::allocator<char> >,_STL::pair<_STL::basic_string<char,_STL::char_traits<char>,_STL::allocator<char> > const ,unsigned long>,_STL::_Select1st<_STL::pair<_STL::basic_string<char,_STL::char_traits<char>,_STL::allocator<char> > const ,unsigned long> >,_STL::less<_STL::basic_string<char,_STL::char_traits<char>,_STL::allocator<char> > >,_STL::allocator<_STL::pair<_STL::basic_string<char,_STL::char_traits<char>,_STL::allocator<char> > const ,unsigned long> > >::_M_leftmost
; Function compile flags: /Ogsy
;	COMDAT ?_M_leftmost@?$_Rb_tree@V?$basic_string@DV?$char_traits@D@_STL@@V?$allocator@D@2@@_STL@@U?$pair@$$CBV?$basic_string@DV?$char_traits@D@_STL@@V?$allocator@D@2@@_STL@@K@2@U?$_Select1st@U?$pair@$$CBV?$basic_string@DV?$char_traits@D@_STL@@V?$allocator@D@2@@_STL@@K@_STL@@@2@U?$less@V?$basic_string@DV?$char_traits@D@_STL@@V?$allocator@D@2@@_STL@@@2@V?$allocator@U?$pair@$$CBV?$basic_string@DV?$char_traits@D@_STL@@V?$allocator@D@2@@_STL@@K@_STL@@@2@@_STL@@IBEAAPAU?$_Rb_tree_node@U?$pair@$$CBV?$basic_string@DV?$char_traits@D@_STL@@V?$allocator@D@2@@_STL@@K@_STL@@@2@XZ
_TEXT	SEGMENT
?_M_leftmost@?$_Rb_tree@V?$basic_string@DV?$char_traits@D@_STL@@V?$allocator@D@2@@_STL@@U?$pair@$$CBV?$basic_string@DV?$char_traits@D@_STL@@V?$allocator@D@2@@_STL@@K@2@U?$_Select1st@U?$pair@$$CBV?$basic_string@DV?$char_traits@D@_STL@@V?$allocator@D@2@@_STL@@K@_STL@@@2@U?$less@V?$basic_string@DV?$char_traits@D@_STL@@V?$allocator@D@2@@_STL@@@2@V?$allocator@U?$pair@$$CBV?$basic_string@DV?$char_traits@D@_STL@@V?$allocator@D@2@@_STL@@K@_STL@@@2@@_STL@@IBEAAPAU?$_Rb_tree_node@U?$pair@$$CBV?$basic_string@DV?$char_traits@D@_STL@@V?$allocator@D@2@@_STL@@K@_STL@@@2@XZ PROC NEAR ; _STL::_Rb_tree<_STL::basic_string<char,_STL::char_traits<char>,_STL::allocator<char> >,_STL::pair<_STL::basic_string<char,_STL::char_traits<char>,_STL::allocator<char> > const ,unsigned long>,_STL::_Select1st<_STL::pair<_STL::basic_string<char,_STL::char_traits<char>,_STL::allocator<char> > const ,unsigned long> >,_STL::less<_STL::basic_string<char,_STL::char_traits<char>,_STL::allocator<char> > >,_STL::allocator<_STL::pair<_STL::basic_string<char,_STL::char_traits<char>,_STL::allocator<char> > const ,unsigned long> > >::_M_leftmost, COMDAT
; _this$ = ecx

; 267  :     { return (_Link_type&) this->_M_header._M_data->_M_left; }

  00000	8b 01		 mov	 eax, DWORD PTR [ecx]
  00002	83 c0 08	 add	 eax, 8
  00005	c3		 ret	 0
?_M_leftmost@?$_Rb_tree@V?$basic_string@DV?$char_traits@D@_STL@@V?$allocator@D@2@@_STL@@U?$pair@$$CBV?$basic_string@DV?$char_traits@D@_STL@@V?$allocator@D@2@@_STL@@K@2@U?$_Select1st@U?$pair@$$CBV?$basic_string@DV?$char_traits@D@_STL@@V?$allocator@D@2@@_STL@@K@_STL@@@2@U?$less@V?$basic_string@DV?$char_traits@D@_STL@@V?$allocator@D@2@@_STL@@@2@V?$allocator@U?$pair@$$CBV?$basic_string@DV?$char_traits@D@_STL@@V?$allocator@D@2@@_STL@@K@_STL@@@2@@_STL@@IBEAAPAU?$_Rb_tree_node@U?$pair@$$CBV?$basic_string@DV?$char_traits@D@_STL@@V?$allocator@D@2@@_STL@@K@_STL@@@2@XZ ENDP ; _STL::_Rb_tree<_STL::basic_string<char,_STL::char_traits<char>,_STL::allocator<char> >,_STL::pair<_STL::basic_string<char,_STL::char_traits<char>,_STL::allocator<char> > const ,unsigned long>,_STL::_Select1st<_STL::pair<_STL::basic_string<char,_STL::char_traits<char>,_STL::allocator<char> > const ,unsigned long> >,_STL::less<_STL::basic_string<char,_STL::char_traits<char>,_STL::allocator<char> > >,_STL::allocator<_STL::pair<_STL::basic_string<char,_STL::char_traits<char>,_STL::allocator<char> > const ,unsigned long> > >::_M_leftmost
_TEXT	ENDS
PUBLIC	?_M_rightmost@?$_Rb_tree@V?$basic_string@DV?$char_traits@D@_STL@@V?$allocator@D@2@@_STL@@U?$pair@$$CBV?$basic_string@DV?$char_traits@D@_STL@@V?$allocator@D@2@@_STL@@K@2@U?$_Select1st@U?$pair@$$CBV?$basic_string@DV?$char_traits@D@_STL@@V?$allocator@D@2@@_STL@@K@_STL@@@2@U?$less@V?$basic_string@DV?$char_traits@D@_STL@@V?$allocator@D@2@@_STL@@@2@V?$allocator@U?$pair@$$CBV?$basic_string@DV?$char_traits@D@_STL@@V?$allocator@D@2@@_STL@@K@_STL@@@2@@_STL@@IBEAAPAU?$_Rb_tree_node@U?$pair@$$CBV?$basic_string@DV?$char_traits@D@_STL@@V?$allocator@D@2@@_STL@@K@_STL@@@2@XZ ; _STL::_Rb_tree<_STL::basic_string<char,_STL::char_traits<char>,_STL::allocator<char> >,_STL::pair<_STL::basic_string<char,_STL::char_traits<char>,_STL::allocator<char> > const ,unsigned long>,_STL::_Select1st<_STL::pair<_STL::basic_string<char,_STL::char_traits<char>,_STL::allocator<char> > const ,unsigned long> >,_STL::less<_STL::basic_string<char,_STL::char_traits<char>,_STL::allocator<char> > >,_STL::allocator<_STL::pair<_STL::basic_string<char,_STL::char_traits<char>,_STL::allocator<char> > const ,unsigned long> > >::_M_rightmost
; Function compile flags: /Ogsy
;	COMDAT ?_M_rightmost@?$_Rb_tree@V?$basic_string@DV?$char_traits@D@_STL@@V?$allocator@D@2@@_STL@@U?$pair@$$CBV?$basic_string@DV?$char_traits@D@_STL@@V?$allocator@D@2@@_STL@@K@2@U?$_Select1st@U?$pair@$$CBV?$basic_string@DV?$char_traits@D@_STL@@V?$allocator@D@2@@_STL@@K@_STL@@@2@U?$less@V?$basic_string@DV?$char_traits@D@_STL@@V?$allocator@D@2@@_STL@@@2@V?$allocator@U?$pair@$$CBV?$basic_string@DV?$char_traits@D@_STL@@V?$allocator@D@2@@_STL@@K@_STL@@@2@@_STL@@IBEAAPAU?$_Rb_tree_node@U?$pair@$$CBV?$basic_string@DV?$char_traits@D@_STL@@V?$allocator@D@2@@_STL@@K@_STL@@@2@XZ
_TEXT	SEGMENT
?_M_rightmost@?$_Rb_tree@V?$basic_string@DV?$char_traits@D@_STL@@V?$allocator@D@2@@_STL@@U?$pair@$$CBV?$basic_string@DV?$char_traits@D@_STL@@V?$allocator@D@2@@_STL@@K@2@U?$_Select1st@U?$pair@$$CBV?$basic_string@DV?$char_traits@D@_STL@@V?$allocator@D@2@@_STL@@K@_STL@@@2@U?$less@V?$basic_string@DV?$char_traits@D@_STL@@V?$allocator@D@2@@_STL@@@2@V?$allocator@U?$pair@$$CBV?$basic_string@DV?$char_traits@D@_STL@@V?$allocator@D@2@@_STL@@K@_STL@@@2@@_STL@@IBEAAPAU?$_Rb_tree_node@U?$pair@$$CBV?$basic_string@DV?$char_traits@D@_STL@@V?$allocator@D@2@@_STL@@K@_STL@@@2@XZ PROC NEAR ; _STL::_Rb_tree<_STL::basic_string<char,_STL::char_traits<char>,_STL::allocator<char> >,_STL::pair<_STL::basic_string<char,_STL::char_traits<char>,_STL::allocator<char> > const ,unsigned long>,_STL::_Select1st<_STL::pair<_STL::basic_string<char,_STL::char_traits<char>,_STL::allocator<char> > const ,unsigned long> >,_STL::less<_STL::basic_string<char,_STL::char_traits<char>,_STL::allocator<char> > >,_STL::allocator<_STL::pair<_STL::basic_string<char,_STL::char_traits<char>,_STL::allocator<char> > const ,unsigned long> > >::_M_rightmost, COMDAT
; _this$ = ecx

; 269  :     { return (_Link_type&) this->_M_header._M_data->_M_right; }

  00000	8b 01		 mov	 eax, DWORD PTR [ecx]
  00002	83 c0 0c	 add	 eax, 12			; 0000000cH
  00005	c3		 ret	 0
?_M_rightmost@?$_Rb_tree@V?$basic_string@DV?$char_traits@D@_STL@@V?$allocator@D@2@@_STL@@U?$pair@$$CBV?$basic_string@DV?$char_traits@D@_STL@@V?$allocator@D@2@@_STL@@K@2@U?$_Select1st@U?$pair@$$CBV?$basic_string@DV?$char_traits@D@_STL@@V?$allocator@D@2@@_STL@@K@_STL@@@2@U?$less@V?$basic_string@DV?$char_traits@D@_STL@@V?$allocator@D@2@@_STL@@@2@V?$allocator@U?$pair@$$CBV?$basic_string@DV?$char_traits@D@_STL@@V?$allocator@D@2@@_STL@@K@_STL@@@2@@_STL@@IBEAAPAU?$_Rb_tree_node@U?$pair@$$CBV?$basic_string@DV?$char_traits@D@_STL@@V?$allocator@D@2@@_STL@@K@_STL@@@2@XZ ENDP ; _STL::_Rb_tree<_STL::basic_string<char,_STL::char_traits<char>,_STL::allocator<char> >,_STL::pair<_STL::basic_string<char,_STL::char_traits<char>,_STL::allocator<char> > const ,unsigned long>,_STL::_Select1st<_STL::pair<_STL::basic_string<char,_STL::char_traits<char>,_STL::allocator<char> > const ,unsigned long> >,_STL::less<_STL::basic_string<char,_STL::char_traits<char>,_STL::allocator<char> > >,_STL::allocator<_STL::pair<_STL::basic_string<char,_STL::char_traits<char>,_STL::allocator<char> > const ,unsigned long> > >::_M_rightmost
_TEXT	ENDS
PUBLIC	?key_comp@?$_Rb_tree@V?$basic_string@DV?$char_traits@D@_STL@@V?$allocator@D@2@@_STL@@U?$pair@$$CBV?$basic_string@DV?$char_traits@D@_STL@@V?$allocator@D@2@@_STL@@K@2@U?$_Select1st@U?$pair@$$CBV?$basic_string@DV?$char_traits@D@_STL@@V?$allocator@D@2@@_STL@@K@_STL@@@2@U?$less@V?$basic_string@DV?$char_traits@D@_STL@@V?$allocator@D@2@@_STL@@@2@V?$allocator@U?$pair@$$CBV?$basic_string@DV?$char_traits@D@_STL@@V?$allocator@D@2@@_STL@@K@_STL@@@2@@_STL@@QBE?AU?$less@V?$basic_string@DV?$char_traits@D@_STL@@V?$allocator@D@2@@_STL@@@2@XZ ; _STL::_Rb_tree<_STL::basic_string<char,_STL::char_traits<char>,_STL::allocator<char> >,_STL::pair<_STL::basic_string<char,_STL::char_traits<char>,_STL::allocator<char> > const ,unsigned long>,_STL::_Select1st<_STL::pair<_STL::basic_string<char,_STL::char_traits<char>,_STL::allocator<char> > const ,unsigned long> >,_STL::less<_STL::basic_string<char,_STL::char_traits<char>,_STL::allocator<char> > >,_STL::allocator<_STL::pair<_STL::basic_string<char,_STL::char_traits<char>,_STL::allocator<char> > const ,unsigned long> > >::key_comp
; Function compile flags: /Ogsy
;	COMDAT ?key_comp@?$_Rb_tree@V?$basic_string@DV?$char_traits@D@_STL@@V?$allocator@D@2@@_STL@@U?$pair@$$CBV?$basic_string@DV?$char_traits@D@_STL@@V?$allocator@D@2@@_STL@@K@2@U?$_Select1st@U?$pair@$$CBV?$basic_string@DV?$char_traits@D@_STL@@V?$allocator@D@2@@_STL@@K@_STL@@@2@U?$less@V?$basic_string@DV?$char_traits@D@_STL@@V?$allocator@D@2@@_STL@@@2@V?$allocator@U?$pair@$$CBV?$basic_string@DV?$char_traits@D@_STL@@V?$allocator@D@2@@_STL@@K@_STL@@@2@@_STL@@QBE?AU?$less@V?$basic_string@DV?$char_traits@D@_STL@@V?$allocator@D@2@@_STL@@@2@XZ
_TEXT	SEGMENT
___$ReturnUdt$ = 8					; size = 4
?key_comp@?$_Rb_tree@V?$basic_string@DV?$char_traits@D@_STL@@V?$allocator@D@2@@_STL@@U?$pair@$$CBV?$basic_string@DV?$char_traits@D@_STL@@V?$allocator@D@2@@_STL@@K@2@U?$_Select1st@U?$pair@$$CBV?$basic_string@DV?$char_traits@D@_STL@@V?$allocator@D@2@@_STL@@K@_STL@@@2@U?$less@V?$basic_string@DV?$char_traits@D@_STL@@V?$allocator@D@2@@_STL@@@2@V?$allocator@U?$pair@$$CBV?$basic_string@DV?$char_traits@D@_STL@@V?$allocator@D@2@@_STL@@K@_STL@@@2@@_STL@@QBE?AU?$less@V?$basic_string@DV?$char_traits@D@_STL@@V?$allocator@D@2@@_STL@@@2@XZ PROC NEAR ; _STL::_Rb_tree<_STL::basic_string<char,_STL::char_traits<char>,_STL::allocator<char> >,_STL::pair<_STL::basic_string<char,_STL::char_traits<char>,_STL::allocator<char> > const ,unsigned long>,_STL::_Select1st<_STL::pair<_STL::basic_string<char,_STL::char_traits<char>,_STL::allocator<char> > const ,unsigned long> >,_STL::less<_STL::basic_string<char,_STL::char_traits<char>,_STL::allocator<char> > >,_STL::allocator<_STL::pair<_STL::basic_string<char,_STL::char_traits<char>,_STL::allocator<char> > const ,unsigned long> > >::key_comp, COMDAT
; _this$ = ecx

; 355  :   _Compare key_comp() const { return _M_key_compare; }

  00000	8b 44 24 04	 mov	 eax, DWORD PTR ___$ReturnUdt$[esp-4]
  00004	c2 04 00	 ret	 4
?key_comp@?$_Rb_tree@V?$basic_string@DV?$char_traits@D@_STL@@V?$allocator@D@2@@_STL@@U?$pair@$$CBV?$basic_string@DV?$char_traits@D@_STL@@V?$allocator@D@2@@_STL@@K@2@U?$_Select1st@U?$pair@$$CBV?$basic_string@DV?$char_traits@D@_STL@@V?$allocator@D@2@@_STL@@K@_STL@@@2@U?$less@V?$basic_string@DV?$char_traits@D@_STL@@V?$allocator@D@2@@_STL@@@2@V?$allocator@U?$pair@$$CBV?$basic_string@DV?$char_traits@D@_STL@@V?$allocator@D@2@@_STL@@K@_STL@@@2@@_STL@@QBE?AU?$less@V?$basic_string@DV?$char_traits@D@_STL@@V?$allocator@D@2@@_STL@@@2@XZ ENDP ; _STL::_Rb_tree<_STL::basic_string<char,_STL::char_traits<char>,_STL::allocator<char> >,_STL::pair<_STL::basic_string<char,_STL::char_traits<char>,_STL::allocator<char> > const ,unsigned long>,_STL::_Select1st<_STL::pair<_STL::basic_string<char,_STL::char_traits<char>,_STL::allocator<char> > const ,unsigned long> >,_STL::less<_STL::basic_string<char,_STL::char_traits<char>,_STL::allocator<char> > >,_STL::allocator<_STL::pair<_STL::basic_string<char,_STL::char_traits<char>,_STL::allocator<char> > const ,unsigned long> > >::key_comp
_TEXT	ENDS
PUBLIC	??1?$allocator@U?$_Rb_tree_node@U?$pair@$$CBV?$basic_string@DV?$char_traits@D@_STL@@V?$allocator@D@2@@_STL@@K@_STL@@@_STL@@@_STL@@QAE@XZ ; _STL::allocator<_STL::_Rb_tree_node<_STL::pair<_STL::basic_string<char,_STL::char_traits<char>,_STL::allocator<char> > const ,unsigned long> > >::~allocator<_STL::_Rb_tree_node<_STL::pair<_STL::basic_string<char,_STL::char_traits<char>,_STL::allocator<char> > const ,unsigned long> > >
; Function compile flags: /Ogsy
; File c:\stlport-4.6.1\stlport\stl\_alloc.h
;	COMDAT ??1?$allocator@U?$_Rb_tree_node@U?$pair@$$CBV?$basic_string@DV?$char_traits@D@_STL@@V?$allocator@D@2@@_STL@@K@_STL@@@_STL@@@_STL@@QAE@XZ
_TEXT	SEGMENT
??1?$allocator@U?$_Rb_tree_node@U?$pair@$$CBV?$basic_string@DV?$char_traits@D@_STL@@V?$allocator@D@2@@_STL@@K@_STL@@@_STL@@@_STL@@QAE@XZ PROC NEAR ; _STL::allocator<_STL::_Rb_tree_node<_STL::pair<_STL::basic_string<char,_STL::char_traits<char>,_STL::allocator<char> > const ,unsigned long> > >::~allocator<_STL::_Rb_tree_node<_STL::pair<_STL::basic_string<char,_STL::char_traits<char>,_STL::allocator<char> > const ,unsigned long> > >, COMDAT
; _this$ = ecx

; 350  :   ~allocator() _STLP_NOTHROW {}

  00000	c3		 ret	 0
??1?$allocator@U?$_Rb_tree_node@U?$pair@$$CBV?$basic_string@DV?$char_traits@D@_STL@@V?$allocator@D@2@@_STL@@K@_STL@@@_STL@@@_STL@@QAE@XZ ENDP ; _STL::allocator<_STL::_Rb_tree_node<_STL::pair<_STL::basic_string<char,_STL::char_traits<char>,_STL::allocator<char> > const ,unsigned long> > >::~allocator<_STL::_Rb_tree_node<_STL::pair<_STL::basic_string<char,_STL::char_traits<char>,_STL::allocator<char> > const ,unsigned long> > >
_TEXT	ENDS
PUBLIC	??0?$_Rb_tree_iterator@U?$pair@$$CBV?$basic_string@DV?$char_traits@D@_STL@@V?$allocator@D@2@@_STL@@K@_STL@@U?$_Nonconst_traits@U?$pair@$$CBV?$basic_string@DV?$char_traits@D@_STL@@V?$allocator@D@2@@_STL@@K@_STL@@@2@@_STL@@QAE@PAU?$_Rb_tree_node@U?$pair@$$CBV?$basic_string@DV?$char_traits@D@_STL@@V?$allocator@D@2@@_STL@@K@_STL@@@1@@Z ; _STL::_Rb_tree_iterator<_STL::pair<_STL::basic_string<char,_STL::char_traits<char>,_STL::allocator<char> > const ,unsigned long>,_STL::_Nonconst_traits<_STL::pair<_STL::basic_string<char,_STL::char_traits<char>,_STL::allocator<char> > const ,unsigned long> > >::_Rb_tree_iterator<_STL::pair<_STL::basic_string<char,_STL::char_traits<char>,_STL::allocator<char> > const ,unsigned long>,_STL::_Nonconst_traits<_STL::pair<_STL::basic_string<char,_STL::char_traits<char>,_STL::allocator<char> > const ,unsigned long> > >
; Function compile flags: /Ogsy
; File c:\stlport-4.6.1\stlport\stl\_tree.h
;	COMDAT ??0?$_Rb_tree_iterator@U?$pair@$$CBV?$basic_string@DV?$char_traits@D@_STL@@V?$allocator@D@2@@_STL@@K@_STL@@U?$_Nonconst_traits@U?$pair@$$CBV?$basic_string@DV?$char_traits@D@_STL@@V?$allocator@D@2@@_STL@@K@_STL@@@2@@_STL@@QAE@PAU?$_Rb_tree_node@U?$pair@$$CBV?$basic_string@DV?$char_traits@D@_STL@@V?$allocator@D@2@@_STL@@K@_STL@@@1@@Z
_TEXT	SEGMENT
___x$ = 8						; size = 4
??0?$_Rb_tree_iterator@U?$pair@$$CBV?$basic_string@DV?$char_traits@D@_STL@@V?$allocator@D@2@@_STL@@K@_STL@@U?$_Nonconst_traits@U?$pair@$$CBV?$basic_string@DV?$char_traits@D@_STL@@V?$allocator@D@2@@_STL@@K@_STL@@@2@@_STL@@QAE@PAU?$_Rb_tree_node@U?$pair@$$CBV?$basic_string@DV?$char_traits@D@_STL@@V?$allocator@D@2@@_STL@@K@_STL@@@1@@Z PROC NEAR ; _STL::_Rb_tree_iterator<_STL::pair<_STL::basic_string<char,_STL::char_traits<char>,_STL::allocator<char> > const ,unsigned long>,_STL::_Nonconst_traits<_STL::pair<_STL::basic_string<char,_STL::char_traits<char>,_STL::allocator<char> > const ,unsigned long> > >::_Rb_tree_iterator<_STL::pair<_STL::basic_string<char,_STL::char_traits<char>,_STL::allocator<char> > const ,unsigned long>,_STL::_Nonconst_traits<_STL::pair<_STL::basic_string<char,_STL::char_traits<char>,_STL::allocator<char> > const ,unsigned long> > >, COMDAT
; _this$ = ecx

; 164  :   _Rb_tree_iterator(_Link_type __x) { _M_node = __x; }

  00000	8b c1		 mov	 eax, ecx
  00002	8b 4c 24 04	 mov	 ecx, DWORD PTR ___x$[esp-4]
  00006	89 08		 mov	 DWORD PTR [eax], ecx
  00008	c2 04 00	 ret	 4
??0?$_Rb_tree_iterator@U?$pair@$$CBV?$basic_string@DV?$char_traits@D@_STL@@V?$allocator@D@2@@_STL@@K@_STL@@U?$_Nonconst_traits@U?$pair@$$CBV?$basic_string@DV?$char_traits@D@_STL@@V?$allocator@D@2@@_STL@@K@_STL@@@2@@_STL@@QAE@PAU?$_Rb_tree_node@U?$pair@$$CBV?$basic_string@DV?$char_traits@D@_STL@@V?$allocator@D@2@@_STL@@K@_STL@@@1@@Z ENDP ; _STL::_Rb_tree_iterator<_STL::pair<_STL::basic_string<char,_STL::char_traits<char>,_STL::allocator<char> > const ,unsigned long>,_STL::_Nonconst_traits<_STL::pair<_STL::basic_string<char,_STL::char_traits<char>,_STL::allocator<char> > const ,unsigned long> > >::_Rb_tree_iterator<_STL::pair<_STL::basic_string<char,_STL::char_traits<char>,_STL::allocator<char> > const ,unsigned long>,_STL::_Nonconst_traits<_STL::pair<_STL::basic_string<char,_STL::char_traits<char>,_STL::allocator<char> > const ,unsigned long> > >
_TEXT	ENDS
PUBLIC	??0?$_Rb_tree_iterator@U?$pair@$$CBV?$basic_string@DV?$char_traits@D@_STL@@V?$allocator@D@2@@_STL@@K@_STL@@U?$_Const_traits@U?$pair@$$CBV?$basic_string@DV?$char_traits@D@_STL@@V?$allocator@D@2@@_STL@@K@_STL@@@2@@_STL@@QAE@PAU?$_Rb_tree_node@U?$pair@$$CBV?$basic_string@DV?$char_traits@D@_STL@@V?$allocator@D@2@@_STL@@K@_STL@@@1@@Z ; _STL::_Rb_tree_iterator<_STL::pair<_STL::basic_string<char,_STL::char_traits<char>,_STL::allocator<char> > const ,unsigned long>,_STL::_Const_traits<_STL::pair<_STL::basic_string<char,_STL::char_traits<char>,_STL::allocator<char> > const ,unsigned long> > >::_Rb_tree_iterator<_STL::pair<_STL::basic_string<char,_STL::char_traits<char>,_STL::allocator<char> > const ,unsigned long>,_STL::_Const_traits<_STL::pair<_STL::basic_string<char,_STL::char_traits<char>,_STL::allocator<char> > const ,unsigned long> > >
; Function compile flags: /Ogsy
;	COMDAT ??0?$_Rb_tree_iterator@U?$pair@$$CBV?$basic_string@DV?$char_traits@D@_STL@@V?$allocator@D@2@@_STL@@K@_STL@@U?$_Const_traits@U?$pair@$$CBV?$basic_string@DV?$char_traits@D@_STL@@V?$allocator@D@2@@_STL@@K@_STL@@@2@@_STL@@QAE@PAU?$_Rb_tree_node@U?$pair@$$CBV?$basic_string@DV?$char_traits@D@_STL@@V?$allocator@D@2@@_STL@@K@_STL@@@1@@Z
_TEXT	SEGMENT
___x$ = 8						; size = 4
??0?$_Rb_tree_iterator@U?$pair@$$CBV?$basic_string@DV?$char_traits@D@_STL@@V?$allocator@D@2@@_STL@@K@_STL@@U?$_Const_traits@U?$pair@$$CBV?$basic_string@DV?$char_traits@D@_STL@@V?$allocator@D@2@@_STL@@K@_STL@@@2@@_STL@@QAE@PAU?$_Rb_tree_node@U?$pair@$$CBV?$basic_string@DV?$char_traits@D@_STL@@V?$allocator@D@2@@_STL@@K@_STL@@@1@@Z PROC NEAR ; _STL::_Rb_tree_iterator<_STL::pair<_STL::basic_string<char,_STL::char_traits<char>,_STL::allocator<char> > const ,unsigned long>,_STL::_Const_traits<_STL::pair<_STL::basic_string<char,_STL::char_traits<char>,_STL::allocator<char> > const ,unsigned long> > >::_Rb_tree_iterator<_STL::pair<_STL::basic_string<char,_STL::char_traits<char>,_STL::allocator<char> > const ,unsigned long>,_STL::_Const_traits<_STL::pair<_STL::basic_string<char,_STL::char_traits<char>,_STL::allocator<char> > const ,unsigned long> > >, COMDAT
; _this$ = ecx

; 164  :   _Rb_tree_iterator(_Link_type __x) { _M_node = __x; }

  00000	8b c1		 mov	 eax, ecx
  00002	8b 4c 24 04	 mov	 ecx, DWORD PTR ___x$[esp-4]
  00006	89 08		 mov	 DWORD PTR [eax], ecx
  00008	c2 04 00	 ret	 4
??0?$_Rb_tree_iterator@U?$pair@$$CBV?$basic_string@DV?$char_traits@D@_STL@@V?$allocator@D@2@@_STL@@K@_STL@@U?$_Const_traits@U?$pair@$$CBV?$basic_string@DV?$char_traits@D@_STL@@V?$allocator@D@2@@_STL@@K@_STL@@@2@@_STL@@QAE@PAU?$_Rb_tree_node@U?$pair@$$CBV?$basic_string@DV?$char_traits@D@_STL@@V?$allocator@D@2@@_STL@@K@_STL@@@1@@Z ENDP ; _STL::_Rb_tree_iterator<_STL::pair<_STL::basic_string<char,_STL::char_traits<char>,_STL::allocator<char> > const ,unsigned long>,_STL::_Const_traits<_STL::pair<_STL::basic_string<char,_STL::char_traits<char>,_STL::allocator<char> > const ,unsigned long> > >::_Rb_tree_iterator<_STL::pair<_STL::basic_string<char,_STL::char_traits<char>,_STL::allocator<char> > const ,unsigned long>,_STL::_Const_traits<_STL::pair<_STL::basic_string<char,_STL::char_traits<char>,_STL::allocator<char> > const ,unsigned long> > >
_TEXT	ENDS
PUBLIC	?_S_color@?$_Rb_tree@V?$basic_string@DV?$char_traits@D@_STL@@V?$allocator@D@2@@_STL@@U?$pair@$$CBV?$basic_string@DV?$char_traits@D@_STL@@V?$allocator@D@2@@_STL@@K@2@U?$_Select1st@U?$pair@$$CBV?$basic_string@DV?$char_traits@D@_STL@@V?$allocator@D@2@@_STL@@K@_STL@@@2@U?$less@V?$basic_string@DV?$char_traits@D@_STL@@V?$allocator@D@2@@_STL@@@2@V?$allocator@U?$pair@$$CBV?$basic_string@DV?$char_traits@D@_STL@@V?$allocator@D@2@@_STL@@K@_STL@@@2@@_STL@@KAAA_NPAU?$_Rb_tree_node@U?$pair@$$CBV?$basic_string@DV?$char_traits@D@_STL@@V?$allocator@D@2@@_STL@@K@_STL@@@2@@Z ; _STL::_Rb_tree<_STL::basic_string<char,_STL::char_traits<char>,_STL::allocator<char> >,_STL::pair<_STL::basic_string<char,_STL::char_traits<char>,_STL::allocator<char> > const ,unsigned long>,_STL::_Select1st<_STL::pair<_STL::basic_string<char,_STL::char_traits<char>,_STL::allocator<char> > const ,unsigned long> >,_STL::less<_STL::basic_string<char,_STL::char_traits<char>,_STL::allocator<char> > >,_STL::allocator<_STL::pair<_STL::basic_string<char,_STL::char_traits<char>,_STL::allocator<char> > const ,unsigned long> > >::_S_color
; Function compile flags: /Ogsy
;	COMDAT ?_S_color@?$_Rb_tree@V?$basic_string@DV?$char_traits@D@_STL@@V?$allocator@D@2@@_STL@@U?$pair@$$CBV?$basic_string@DV?$char_traits@D@_STL@@V?$allocator@D@2@@_STL@@K@2@U?$_Select1st@U?$pair@$$CBV?$basic_string@DV?$char_traits@D@_STL@@V?$allocator@D@2@@_STL@@K@_STL@@@2@U?$less@V?$basic_string@DV?$char_traits@D@_STL@@V?$allocator@D@2@@_STL@@@2@V?$allocator@U?$pair@$$CBV?$basic_string@DV?$char_traits@D@_STL@@V?$allocator@D@2@@_STL@@K@_STL@@@2@@_STL@@KAAA_NPAU?$_Rb_tree_node@U?$pair@$$CBV?$basic_string@DV?$char_traits@D@_STL@@V?$allocator@D@2@@_STL@@K@_STL@@@2@@Z
_TEXT	SEGMENT
___x$ = 8						; size = 4
?_S_color@?$_Rb_tree@V?$basic_string@DV?$char_traits@D@_STL@@V?$allocator@D@2@@_STL@@U?$pair@$$CBV?$basic_string@DV?$char_traits@D@_STL@@V?$allocator@D@2@@_STL@@K@2@U?$_Select1st@U?$pair@$$CBV?$basic_string@DV?$char_traits@D@_STL@@V?$allocator@D@2@@_STL@@K@_STL@@@2@U?$less@V?$basic_string@DV?$char_traits@D@_STL@@V?$allocator@D@2@@_STL@@@2@V?$allocator@U?$pair@$$CBV?$basic_string@DV?$char_traits@D@_STL@@V?$allocator@D@2@@_STL@@K@_STL@@@2@@_STL@@KAAA_NPAU?$_Rb_tree_node@U?$pair@$$CBV?$basic_string@DV?$char_traits@D@_STL@@V?$allocator@D@2@@_STL@@K@_STL@@@2@@Z PROC NEAR ; _STL::_Rb_tree<_STL::basic_string<char,_STL::char_traits<char>,_STL::allocator<char> >,_STL::pair<_STL::basic_string<char,_STL::char_traits<char>,_STL::allocator<char> > const ,unsigned long>,_STL::_Select1st<_STL::pair<_STL::basic_string<char,_STL::char_traits<char>,_STL::allocator<char> > const ,unsigned long> >,_STL::less<_STL::basic_string<char,_STL::char_traits<char>,_STL::allocator<char> > >,_STL::allocator<_STL::pair<_STL::basic_string<char,_STL::char_traits<char>,_STL::allocator<char> > const ,unsigned long> > >::_S_color, COMDAT

; 282  :     { return (_Color_type&)(__x->_M_color); }

  00000	8b 44 24 04	 mov	 eax, DWORD PTR ___x$[esp-4]
  00004	c3		 ret	 0
?_S_color@?$_Rb_tree@V?$basic_string@DV?$char_traits@D@_STL@@V?$allocator@D@2@@_STL@@U?$pair@$$CBV?$basic_string@DV?$char_traits@D@_STL@@V?$allocator@D@2@@_STL@@K@2@U?$_Select1st@U?$pair@$$CBV?$basic_string@DV?$char_traits@D@_STL@@V?$allocator@D@2@@_STL@@K@_STL@@@2@U?$less@V?$basic_string@DV?$char_traits@D@_STL@@V?$allocator@D@2@@_STL@@@2@V?$allocator@U?$pair@$$CBV?$basic_string@DV?$char_traits@D@_STL@@V?$allocator@D@2@@_STL@@K@_STL@@@2@@_STL@@KAAA_NPAU?$_Rb_tree_node@U?$pair@$$CBV?$basic_string@DV?$char_traits@D@_STL@@V?$allocator@D@2@@_STL@@K@_STL@@@2@@Z ENDP ; _STL::_Rb_tree<_STL::basic_string<char,_STL::char_traits<char>,_STL::allocator<char> >,_STL::pair<_STL::basic_string<char,_STL::char_traits<char>,_STL::allocator<char> > const ,unsigned long>,_STL::_Select1st<_STL::pair<_STL::basic_string<char,_STL::char_traits<char>,_STL::allocator<char> > const ,unsigned long> >,_STL::less<_STL::basic_string<char,_STL::char_traits<char>,_STL::allocator<char> > >,_STL::allocator<_STL::pair<_STL::basic_string<char,_STL::char_traits<char>,_STL::allocator<char> > const ,unsigned long> > >::_S_color
_TEXT	ENDS
PUBLIC	?_S_left@?$_Rb_tree@V?$basic_string@DV?$char_traits@D@_STL@@V?$allocator@D@2@@_STL@@U?$pair@$$CBV?$basic_string@DV?$char_traits@D@_STL@@V?$allocator@D@2@@_STL@@K@2@U?$_Select1st@U?$pair@$$CBV?$basic_string@DV?$char_traits@D@_STL@@V?$allocator@D@2@@_STL@@K@_STL@@@2@U?$less@V?$basic_string@DV?$char_traits@D@_STL@@V?$allocator@D@2@@_STL@@@2@V?$allocator@U?$pair@$$CBV?$basic_string@DV?$char_traits@D@_STL@@V?$allocator@D@2@@_STL@@K@_STL@@@2@@_STL@@KAAAPAU?$_Rb_tree_node@U?$pair@$$CBV?$basic_string@DV?$char_traits@D@_STL@@V?$allocator@D@2@@_STL@@K@_STL@@@2@PAU32@@Z ; _STL::_Rb_tree<_STL::basic_string<char,_STL::char_traits<char>,_STL::allocator<char> >,_STL::pair<_STL::basic_string<char,_STL::char_traits<char>,_STL::allocator<char> > const ,unsigned long>,_STL::_Select1st<_STL::pair<_STL::basic_string<char,_STL::char_traits<char>,_STL::allocator<char> > const ,unsigned long> >,_STL::less<_STL::basic_string<char,_STL::char_traits<char>,_STL::allocator<char> > >,_STL::allocator<_STL::pair<_STL::basic_string<char,_STL::char_traits<char>,_STL::allocator<char> > const ,unsigned long> > >::_S_left
; Function compile flags: /Ogsy
;	COMDAT ?_S_left@?$_Rb_tree@V?$basic_string@DV?$char_traits@D@_STL@@V?$allocator@D@2@@_STL@@U?$pair@$$CBV?$basic_string@DV?$char_traits@D@_STL@@V?$allocator@D@2@@_STL@@K@2@U?$_Select1st@U?$pair@$$CBV?$basic_string@DV?$char_traits@D@_STL@@V?$allocator@D@2@@_STL@@K@_STL@@@2@U?$less@V?$basic_string@DV?$char_traits@D@_STL@@V?$allocator@D@2@@_STL@@@2@V?$allocator@U?$pair@$$CBV?$basic_string@DV?$char_traits@D@_STL@@V?$allocator@D@2@@_STL@@K@_STL@@@2@@_STL@@KAAAPAU?$_Rb_tree_node@U?$pair@$$CBV?$basic_string@DV?$char_traits@D@_STL@@V?$allocator@D@2@@_STL@@K@_STL@@@2@PAU32@@Z
_TEXT	SEGMENT
___x$ = 8						; size = 4
?_S_left@?$_Rb_tree@V?$basic_string@DV?$char_traits@D@_STL@@V?$allocator@D@2@@_STL@@U?$pair@$$CBV?$basic_string@DV?$char_traits@D@_STL@@V?$allocator@D@2@@_STL@@K@2@U?$_Select1st@U?$pair@$$CBV?$basic_string@DV?$char_traits@D@_STL@@V?$allocator@D@2@@_STL@@K@_STL@@@2@U?$less@V?$basic_string@DV?$char_traits@D@_STL@@V?$allocator@D@2@@_STL@@@2@V?$allocator@U?$pair@$$CBV?$basic_string@DV?$char_traits@D@_STL@@V?$allocator@D@2@@_STL@@K@_STL@@@2@@_STL@@KAAAPAU?$_Rb_tree_node@U?$pair@$$CBV?$basic_string@DV?$char_traits@D@_STL@@V?$allocator@D@2@@_STL@@K@_STL@@@2@PAU32@@Z PROC NEAR ; _STL::_Rb_tree<_STL::basic_string<char,_STL::char_traits<char>,_STL::allocator<char> >,_STL::pair<_STL::basic_string<char,_STL::char_traits<char>,_STL::allocator<char> > const ,unsigned long>,_STL::_Select1st<_STL::pair<_STL::basic_string<char,_STL::char_traits<char>,_STL::allocator<char> > const ,unsigned long> >,_STL::less<_STL::basic_string<char,_STL::char_traits<char>,_STL::allocator<char> > >,_STL::allocator<_STL::pair<_STL::basic_string<char,_STL::char_traits<char>,_STL::allocator<char> > const ,unsigned long> > >::_S_left, COMDAT

; 272  :     { return (_Link_type&)(__x->_M_left); }

  00000	8b 44 24 04	 mov	 eax, DWORD PTR ___x$[esp-4]
  00004	83 c0 08	 add	 eax, 8
  00007	c3		 ret	 0
?_S_left@?$_Rb_tree@V?$basic_string@DV?$char_traits@D@_STL@@V?$allocator@D@2@@_STL@@U?$pair@$$CBV?$basic_string@DV?$char_traits@D@_STL@@V?$allocator@D@2@@_STL@@K@2@U?$_Select1st@U?$pair@$$CBV?$basic_string@DV?$char_traits@D@_STL@@V?$allocator@D@2@@_STL@@K@_STL@@@2@U?$less@V?$basic_string@DV?$char_traits@D@_STL@@V?$allocator@D@2@@_STL@@@2@V?$allocator@U?$pair@$$CBV?$basic_string@DV?$char_traits@D@_STL@@V?$allocator@D@2@@_STL@@K@_STL@@@2@@_STL@@KAAAPAU?$_Rb_tree_node@U?$pair@$$CBV?$basic_string@DV?$char_traits@D@_STL@@V?$allocator@D@2@@_STL@@K@_STL@@@2@PAU32@@Z ENDP ; _STL::_Rb_tree<_STL::basic_string<char,_STL::char_traits<char>,_STL::allocator<char> >,_STL::pair<_STL::basic_string<char,_STL::char_traits<char>,_STL::allocator<char> > const ,unsigned long>,_STL::_Select1st<_STL::pair<_STL::basic_string<char,_STL::char_traits<char>,_STL::allocator<char> > const ,unsigned long> >,_STL::less<_STL::basic_string<char,_STL::char_traits<char>,_STL::allocator<char> > >,_STL::allocator<_STL::pair<_STL::basic_string<char,_STL::char_traits<char>,_STL::allocator<char> > const ,unsigned long> > >::_S_left
_TEXT	ENDS
PUBLIC	?_S_right@?$_Rb_tree@V?$basic_string@DV?$char_traits@D@_STL@@V?$allocator@D@2@@_STL@@U?$pair@$$CBV?$basic_string@DV?$char_traits@D@_STL@@V?$allocator@D@2@@_STL@@K@2@U?$_Select1st@U?$pair@$$CBV?$basic_string@DV?$char_traits@D@_STL@@V?$allocator@D@2@@_STL@@K@_STL@@@2@U?$less@V?$basic_string@DV?$char_traits@D@_STL@@V?$allocator@D@2@@_STL@@@2@V?$allocator@U?$pair@$$CBV?$basic_string@DV?$char_traits@D@_STL@@V?$allocator@D@2@@_STL@@K@_STL@@@2@@_STL@@KAAAPAU?$_Rb_tree_node@U?$pair@$$CBV?$basic_string@DV?$char_traits@D@_STL@@V?$allocator@D@2@@_STL@@K@_STL@@@2@PAU32@@Z ; _STL::_Rb_tree<_STL::basic_string<char,_STL::char_traits<char>,_STL::allocator<char> >,_STL::pair<_STL::basic_string<char,_STL::char_traits<char>,_STL::allocator<char> > const ,unsigned long>,_STL::_Select1st<_STL::pair<_STL::basic_string<char,_STL::char_traits<char>,_STL::allocator<char> > const ,unsigned long> >,_STL::less<_STL::basic_string<char,_STL::char_traits<char>,_STL::allocator<char> > >,_STL::allocator<_STL::pair<_STL::basic_string<char,_STL::char_traits<char>,_STL::allocator<char> > const ,unsigned long> > >::_S_right
; Function compile flags: /Ogsy
;	COMDAT ?_S_right@?$_Rb_tree@V?$basic_string@DV?$char_traits@D@_STL@@V?$allocator@D@2@@_STL@@U?$pair@$$CBV?$basic_string@DV?$char_traits@D@_STL@@V?$allocator@D@2@@_STL@@K@2@U?$_Select1st@U?$pair@$$CBV?$basic_string@DV?$char_traits@D@_STL@@V?$allocator@D@2@@_STL@@K@_STL@@@2@U?$less@V?$basic_string@DV?$char_traits@D@_STL@@V?$allocator@D@2@@_STL@@@2@V?$allocator@U?$pair@$$CBV?$basic_string@DV?$char_traits@D@_STL@@V?$allocator@D@2@@_STL@@K@_STL@@@2@@_STL@@KAAAPAU?$_Rb_tree_node@U?$pair@$$CBV?$basic_string@DV?$char_traits@D@_STL@@V?$allocator@D@2@@_STL@@K@_STL@@@2@PAU32@@Z
_TEXT	SEGMENT
___x$ = 8						; size = 4
?_S_right@?$_Rb_tree@V?$basic_string@DV?$char_traits@D@_STL@@V?$allocator@D@2@@_STL@@U?$pair@$$CBV?$basic_string@DV?$char_traits@D@_STL@@V?$allocator@D@2@@_STL@@K@2@U?$_Select1st@U?$pair@$$CBV?$basic_string@DV?$char_traits@D@_STL@@V?$allocator@D@2@@_STL@@K@_STL@@@2@U?$less@V?$basic_string@DV?$char_traits@D@_STL@@V?$allocator@D@2@@_STL@@@2@V?$allocator@U?$pair@$$CBV?$basic_string@DV?$char_traits@D@_STL@@V?$allocator@D@2@@_STL@@K@_STL@@@2@@_STL@@KAAAPAU?$_Rb_tree_node@U?$pair@$$CBV?$basic_string@DV?$char_traits@D@_STL@@V?$allocator@D@2@@_STL@@K@_STL@@@2@PAU32@@Z PROC NEAR ; _STL::_Rb_tree<_STL::basic_string<char,_STL::char_traits<char>,_STL::allocator<char> >,_STL::pair<_STL::basic_string<char,_STL::char_traits<char>,_STL::allocator<char> > const ,unsigned long>,_STL::_Select1st<_STL::pair<_STL::basic_string<char,_STL::char_traits<char>,_STL::allocator<char> > const ,unsigned long> >,_STL::less<_STL::basic_string<char,_STL::char_traits<char>,_STL::allocator<char> > >,_STL::allocator<_STL::pair<_STL::basic_string<char,_STL::char_traits<char>,_STL::allocator<char> > const ,unsigned long> > >::_S_right, COMDAT

; 274  :     { return (_Link_type&)(__x->_M_right); }

  00000	8b 44 24 04	 mov	 eax, DWORD PTR ___x$[esp-4]
  00004	83 c0 0c	 add	 eax, 12			; 0000000cH
  00007	c3		 ret	 0
?_S_right@?$_Rb_tree@V?$basic_string@DV?$char_traits@D@_STL@@V?$allocator@D@2@@_STL@@U?$pair@$$CBV?$basic_string@DV?$char_traits@D@_STL@@V?$allocator@D@2@@_STL@@K@2@U?$_Select1st@U?$pair@$$CBV?$basic_string@DV?$char_traits@D@_STL@@V?$allocator@D@2@@_STL@@K@_STL@@@2@U?$less@V?$basic_string@DV?$char_traits@D@_STL@@V?$allocator@D@2@@_STL@@@2@V?$allocator@U?$pair@$$CBV?$basic_string@DV?$char_traits@D@_STL@@V?$allocator@D@2@@_STL@@K@_STL@@@2@@_STL@@KAAAPAU?$_Rb_tree_node@U?$pair@$$CBV?$basic_string@DV?$char_traits@D@_STL@@V?$allocator@D@2@@_STL@@K@_STL@@@2@PAU32@@Z ENDP ; _STL::_Rb_tree<_STL::basic_string<char,_STL::char_traits<char>,_STL::allocator<char> >,_STL::pair<_STL::basic_string<char,_STL::char_traits<char>,_STL::allocator<char> > const ,unsigned long>,_STL::_Select1st<_STL::pair<_STL::basic_string<char,_STL::char_traits<char>,_STL::allocator<char> > const ,unsigned long> >,_STL::less<_STL::basic_string<char,_STL::char_traits<char>,_STL::allocator<char> > >,_STL::allocator<_STL::pair<_STL::basic_string<char,_STL::char_traits<char>,_STL::allocator<char> > const ,unsigned long> > >::_S_right
_TEXT	ENDS
PUBLIC	??0?$allocator@U?$_Rb_tree_node@U?$pair@$$CBV?$basic_string@DV?$char_traits@D@_STL@@V?$allocator@D@2@@_STL@@K@_STL@@@_STL@@@_STL@@QAE@ABV01@@Z ; _STL::allocator<_STL::_Rb_tree_node<_STL::pair<_STL::basic_string<char,_STL::char_traits<char>,_STL::allocator<char> > const ,unsigned long> > >::allocator<_STL::_Rb_tree_node<_STL::pair<_STL::basic_string<char,_STL::char_traits<char>,_STL::allocator<char> > const ,unsigned long> > >
; Function compile flags: /Ogsy
; File c:\stlport-4.6.1\stlport\stl\_alloc.h
;	COMDAT ??0?$allocator@U?$_Rb_tree_node@U?$pair@$$CBV?$basic_string@DV?$char_traits@D@_STL@@V?$allocator@D@2@@_STL@@K@_STL@@@_STL@@@_STL@@QAE@ABV01@@Z
_TEXT	SEGMENT
___formal$ = 8						; size = 4
??0?$allocator@U?$_Rb_tree_node@U?$pair@$$CBV?$basic_string@DV?$char_traits@D@_STL@@V?$allocator@D@2@@_STL@@K@_STL@@@_STL@@@_STL@@QAE@ABV01@@Z PROC NEAR ; _STL::allocator<_STL::_Rb_tree_node<_STL::pair<_STL::basic_string<char,_STL::char_traits<char>,_STL::allocator<char> > const ,unsigned long> > >::allocator<_STL::_Rb_tree_node<_STL::pair<_STL::basic_string<char,_STL::char_traits<char>,_STL::allocator<char> > const ,unsigned long> > >, COMDAT
; _this$ = ecx

; 349  :   allocator(const allocator<_Tp>&) _STLP_NOTHROW {}

  00000	8b c1		 mov	 eax, ecx
  00002	c2 04 00	 ret	 4
??0?$allocator@U?$_Rb_tree_node@U?$pair@$$CBV?$basic_string@DV?$char_traits@D@_STL@@V?$allocator@D@2@@_STL@@K@_STL@@@_STL@@@_STL@@QAE@ABV01@@Z ENDP ; _STL::allocator<_STL::_Rb_tree_node<_STL::pair<_STL::basic_string<char,_STL::char_traits<char>,_STL::allocator<char> > const ,unsigned long> > >::allocator<_STL::_Rb_tree_node<_STL::pair<_STL::basic_string<char,_STL::char_traits<char>,_STL::allocator<char> > const ,unsigned long> > >
_TEXT	ENDS
PUBLIC	?_S_value@?$_Rb_tree@V?$basic_string@DV?$char_traits@D@_STL@@V?$allocator@D@2@@_STL@@U?$pair@$$CBV?$basic_string@DV?$char_traits@D@_STL@@V?$allocator@D@2@@_STL@@K@2@U?$_Select1st@U?$pair@$$CBV?$basic_string@DV?$char_traits@D@_STL@@V?$allocator@D@2@@_STL@@K@_STL@@@2@U?$less@V?$basic_string@DV?$char_traits@D@_STL@@V?$allocator@D@2@@_STL@@@2@V?$allocator@U?$pair@$$CBV?$basic_string@DV?$char_traits@D@_STL@@V?$allocator@D@2@@_STL@@K@_STL@@@2@@_STL@@KAAAU?$pair@$$CBV?$basic_string@DV?$char_traits@D@_STL@@V?$allocator@D@2@@_STL@@K@2@PAU?$_Rb_tree_node@U?$pair@$$CBV?$basic_string@DV?$char_traits@D@_STL@@V?$allocator@D@2@@_STL@@K@_STL@@@2@@Z ; _STL::_Rb_tree<_STL::basic_string<char,_STL::char_traits<char>,_STL::allocator<char> >,_STL::pair<_STL::basic_string<char,_STL::char_traits<char>,_STL::allocator<char> > const ,unsigned long>,_STL::_Select1st<_STL::pair<_STL::basic_string<char,_STL::char_traits<char>,_STL::allocator<char> > const ,unsigned long> >,_STL::less<_STL::basic_string<char,_STL::char_traits<char>,_STL::allocator<char> > >,_STL::allocator<_STL::pair<_STL::basic_string<char,_STL::char_traits<char>,_STL::allocator<char> > const ,unsigned long> > >::_S_value
; Function compile flags: /Ogsy
; File c:\stlport-4.6.1\stlport\stl\_tree.h
;	COMDAT ?_S_value@?$_Rb_tree@V?$basic_string@DV?$char_traits@D@_STL@@V?$allocator@D@2@@_STL@@U?$pair@$$CBV?$basic_string@DV?$char_traits@D@_STL@@V?$allocator@D@2@@_STL@@K@2@U?$_Select1st@U?$pair@$$CBV?$basic_string@DV?$char_traits@D@_STL@@V?$allocator@D@2@@_STL@@K@_STL@@@2@U?$less@V?$basic_string@DV?$char_traits@D@_STL@@V?$allocator@D@2@@_STL@@@2@V?$allocator@U?$pair@$$CBV?$basic_string@DV?$char_traits@D@_STL@@V?$allocator@D@2@@_STL@@K@_STL@@@2@@_STL@@KAAAU?$pair@$$CBV?$basic_string@DV?$char_traits@D@_STL@@V?$allocator@D@2@@_STL@@K@2@PAU?$_Rb_tree_node@U?$pair@$$CBV?$basic_string@DV?$char_traits@D@_STL@@V?$allocator@D@2@@_STL@@K@_STL@@@2@@Z
_TEXT	SEGMENT
___x$ = 8						; size = 4
?_S_value@?$_Rb_tree@V?$basic_string@DV?$char_traits@D@_STL@@V?$allocator@D@2@@_STL@@U?$pair@$$CBV?$basic_string@DV?$char_traits@D@_STL@@V?$allocator@D@2@@_STL@@K@2@U?$_Select1st@U?$pair@$$CBV?$basic_string@DV?$char_traits@D@_STL@@V?$allocator@D@2@@_STL@@K@_STL@@@2@U?$less@V?$basic_string@DV?$char_traits@D@_STL@@V?$allocator@D@2@@_STL@@@2@V?$allocator@U?$pair@$$CBV?$basic_string@DV?$char_traits@D@_STL@@V?$allocator@D@2@@_STL@@K@_STL@@@2@@_STL@@KAAAU?$pair@$$CBV?$basic_string@DV?$char_traits@D@_STL@@V?$allocator@D@2@@_STL@@K@2@PAU?$_Rb_tree_node@U?$pair@$$CBV?$basic_string@DV?$char_traits@D@_STL@@V?$allocator@D@2@@_STL@@K@_STL@@@2@@Z PROC NEAR ; _STL::_Rb_tree<_STL::basic_string<char,_STL::char_traits<char>,_STL::allocator<char> >,_STL::pair<_STL::basic_string<char,_STL::char_traits<char>,_STL::allocator<char> > const ,unsigned long>,_STL::_Select1st<_STL::pair<_STL::basic_string<char,_STL::char_traits<char>,_STL::allocator<char> > const ,unsigned long> >,_STL::less<_STL::basic_string<char,_STL::char_traits<char>,_STL::allocator<char> > >,_STL::allocator<_STL::pair<_STL::basic_string<char,_STL::char_traits<char>,_STL::allocator<char> > const ,unsigned long> > >::_S_value, COMDAT

; 278  :     { return __x->_M_value_field; }

  00000	8b 44 24 04	 mov	 eax, DWORD PTR ___x$[esp-4]
  00004	83 c0 10	 add	 eax, 16			; 00000010H
  00007	c3		 ret	 0
?_S_value@?$_Rb_tree@V?$basic_string@DV?$char_traits@D@_STL@@V?$allocator@D@2@@_STL@@U?$pair@$$CBV?$basic_string@DV?$char_traits@D@_STL@@V?$allocator@D@2@@_STL@@K@2@U?$_Select1st@U?$pair@$$CBV?$basic_string@DV?$char_traits@D@_STL@@V?$allocator@D@2@@_STL@@K@_STL@@@2@U?$less@V?$basic_string@DV?$char_traits@D@_STL@@V?$allocator@D@2@@_STL@@@2@V?$allocator@U?$pair@$$CBV?$basic_string@DV?$char_traits@D@_STL@@V?$allocator@D@2@@_STL@@K@_STL@@@2@@_STL@@KAAAU?$pair@$$CBV?$basic_string@DV?$char_traits@D@_STL@@V?$allocator@D@2@@_STL@@K@2@PAU?$_Rb_tree_node@U?$pair@$$CBV?$basic_string@DV?$char_traits@D@_STL@@V?$allocator@D@2@@_STL@@K@_STL@@@2@@Z ENDP ; _STL::_Rb_tree<_STL::basic_string<char,_STL::char_traits<char>,_STL::allocator<char> >,_STL::pair<_STL::basic_string<char,_STL::char_traits<char>,_STL::allocator<char> > const ,unsigned long>,_STL::_Select1st<_STL::pair<_STL::basic_string<char,_STL::char_traits<char>,_STL::allocator<char> > const ,unsigned long> >,_STL::less<_STL::basic_string<char,_STL::char_traits<char>,_STL::allocator<char> > >,_STL::allocator<_STL::pair<_STL::basic_string<char,_STL::char_traits<char>,_STL::allocator<char> > const ,unsigned long> > >::_S_value
_TEXT	ENDS
PUBLIC	??R?$_Select1st@U?$pair@$$CBV?$basic_string@DV?$char_traits@D@_STL@@V?$allocator@D@2@@_STL@@K@_STL@@@_STL@@QBEABV?$basic_string@DV?$char_traits@D@_STL@@V?$allocator@D@2@@1@ABU?$pair@$$CBV?$basic_string@DV?$char_traits@D@_STL@@V?$allocator@D@2@@_STL@@K@1@@Z ; _STL::_Select1st<_STL::pair<_STL::basic_string<char,_STL::char_traits<char>,_STL::allocator<char> > const ,unsigned long> >::operator()
; Function compile flags: /Ogsy
; File c:\stlport-4.6.1\stlport\stl\_function_base.h
;	COMDAT ??R?$_Select1st@U?$pair@$$CBV?$basic_string@DV?$char_traits@D@_STL@@V?$allocator@D@2@@_STL@@K@_STL@@@_STL@@QBEABV?$basic_string@DV?$char_traits@D@_STL@@V?$allocator@D@2@@1@ABU?$pair@$$CBV?$basic_string@DV?$char_traits@D@_STL@@V?$allocator@D@2@@_STL@@K@1@@Z
_TEXT	SEGMENT
___x$ = 8						; size = 4
??R?$_Select1st@U?$pair@$$CBV?$basic_string@DV?$char_traits@D@_STL@@V?$allocator@D@2@@_STL@@K@_STL@@@_STL@@QBEABV?$basic_string@DV?$char_traits@D@_STL@@V?$allocator@D@2@@1@ABU?$pair@$$CBV?$basic_string@DV?$char_traits@D@_STL@@V?$allocator@D@2@@_STL@@K@1@@Z PROC NEAR ; _STL::_Select1st<_STL::pair<_STL::basic_string<char,_STL::char_traits<char>,_STL::allocator<char> > const ,unsigned long> >::operator(), COMDAT
; _this$ = ecx

; 153  :     return __x.first;

  00000	8b 44 24 04	 mov	 eax, DWORD PTR ___x$[esp-4]

; 154  :   }

  00004	c2 04 00	 ret	 4
??R?$_Select1st@U?$pair@$$CBV?$basic_string@DV?$char_traits@D@_STL@@V?$allocator@D@2@@_STL@@K@_STL@@@_STL@@QBEABV?$basic_string@DV?$char_traits@D@_STL@@V?$allocator@D@2@@1@ABU?$pair@$$CBV?$basic_string@DV?$char_traits@D@_STL@@V?$allocator@D@2@@_STL@@K@1@@Z ENDP ; _STL::_Select1st<_STL::pair<_STL::basic_string<char,_STL::char_traits<char>,_STL::allocator<char> > const ,unsigned long> >::operator()
_TEXT	ENDS
PUBLIC	??$?0U?$pair@$$CBV?$basic_string@DV?$char_traits@D@_STL@@V?$allocator@D@2@@_STL@@K@_STL@@@?$allocator@U?$_Rb_tree_node@U?$pair@$$CBV?$basic_string@DV?$char_traits@D@_STL@@V?$allocator@D@2@@_STL@@K@_STL@@@_STL@@@_STL@@QAE@ABV?$allocator@U?$pair@$$CBV?$basic_string@DV?$char_traits@D@_STL@@V?$allocator@D@2@@_STL@@K@_STL@@@1@@Z ; _STL::allocator<_STL::_Rb_tree_node<_STL::pair<_STL::basic_string<char,_STL::char_traits<char>,_STL::allocator<char> > const ,unsigned long> > >::allocator<_STL::_Rb_tree_node<_STL::pair<_STL::basic_string<char,_STL::char_traits<char>,_STL::allocator<char> > const ,unsigned long> > ><_STL::pair<_STL::basic_string<char,_STL::char_traits<char>,_STL::allocator<char> > const ,unsigned long> >
; Function compile flags: /Ogsy
; File c:\stlport-4.6.1\stlport\stl\_alloc.h
;	COMDAT ??$?0U?$pair@$$CBV?$basic_string@DV?$char_traits@D@_STL@@V?$allocator@D@2@@_STL@@K@_STL@@@?$allocator@U?$_Rb_tree_node@U?$pair@$$CBV?$basic_string@DV?$char_traits@D@_STL@@V?$allocator@D@2@@_STL@@K@_STL@@@_STL@@@_STL@@QAE@ABV?$allocator@U?$pair@$$CBV?$basic_string@DV?$char_traits@D@_STL@@V?$allocator@D@2@@_STL@@K@_STL@@@1@@Z
_TEXT	SEGMENT
___formal$ = 8						; size = 4
??$?0U?$pair@$$CBV?$basic_string@DV?$char_traits@D@_STL@@V?$allocator@D@2@@_STL@@K@_STL@@@?$allocator@U?$_Rb_tree_node@U?$pair@$$CBV?$basic_string@DV?$char_traits@D@_STL@@V?$allocator@D@2@@_STL@@K@_STL@@@_STL@@@_STL@@QAE@ABV?$allocator@U?$pair@$$CBV?$basic_string@DV?$char_traits@D@_STL@@V?$allocator@D@2@@_STL@@K@_STL@@@1@@Z PROC NEAR ; _STL::allocator<_STL::_Rb_tree_node<_STL::pair<_STL::basic_string<char,_STL::char_traits<char>,_STL::allocator<char> > const ,unsigned long> > >::allocator<_STL::_Rb_tree_node<_STL::pair<_STL::basic_string<char,_STL::char_traits<char>,_STL::allocator<char> > const ,unsigned long> > ><_STL::pair<_STL::basic_string<char,_STL::char_traits<char>,_STL::allocator<char> > const ,unsigned long> >, COMDAT
; _this$ = ecx

; 347  :   template <class _Tp1> allocator(const allocator<_Tp1>&) _STLP_NOTHROW {}

  00000	8b c1		 mov	 eax, ecx
  00002	c2 04 00	 ret	 4
??$?0U?$pair@$$CBV?$basic_string@DV?$char_traits@D@_STL@@V?$allocator@D@2@@_STL@@K@_STL@@@?$allocator@U?$_Rb_tree_node@U?$pair@$$CBV?$basic_string@DV?$char_traits@D@_STL@@V?$allocator@D@2@@_STL@@K@_STL@@@_STL@@@_STL@@QAE@ABV?$allocator@U?$pair@$$CBV?$basic_string@DV?$char_traits@D@_STL@@V?$allocator@D@2@@_STL@@K@_STL@@@1@@Z ENDP ; _STL::allocator<_STL::_Rb_tree_node<_STL::pair<_STL::basic_string<char,_STL::char_traits<char>,_STL::allocator<char> > const ,unsigned long> > >::allocator<_STL::_Rb_tree_node<_STL::pair<_STL::basic_string<char,_STL::char_traits<char>,_STL::allocator<char> > const ,unsigned long> > ><_STL::pair<_STL::basic_string<char,_STL::char_traits<char>,_STL::allocator<char> > const ,unsigned long> >
_TEXT	ENDS
PUBLIC	?begin@?$basic_string@DV?$char_traits@D@_STL@@V?$allocator@D@2@@_STL@@QBEPBDXZ ; _STL::basic_string<char,_STL::char_traits<char>,_STL::allocator<char> >::begin
; Function compile flags: /Ogsy
; File c:\stlport-4.6.1\stlport\stl\_string.h
;	COMDAT ?begin@?$basic_string@DV?$char_traits@D@_STL@@V?$allocator@D@2@@_STL@@QBEPBDXZ
_TEXT	SEGMENT
?begin@?$basic_string@DV?$char_traits@D@_STL@@V?$allocator@D@2@@_STL@@QBEPBDXZ PROC NEAR ; _STL::basic_string<char,_STL::char_traits<char>,_STL::allocator<char> >::begin, COMDAT
; _this$ = ecx

; 418  :   const_iterator begin() const { return this->_M_start; }

  00000	8b 01		 mov	 eax, DWORD PTR [ecx]
  00002	c3		 ret	 0
?begin@?$basic_string@DV?$char_traits@D@_STL@@V?$allocator@D@2@@_STL@@QBEPBDXZ ENDP ; _STL::basic_string<char,_STL::char_traits<char>,_STL::allocator<char> >::begin
_TEXT	ENDS
PUBLIC	?end@?$basic_string@DV?$char_traits@D@_STL@@V?$allocator@D@2@@_STL@@QBEPBDXZ ; _STL::basic_string<char,_STL::char_traits<char>,_STL::allocator<char> >::end
; Function compile flags: /Ogsy
;	COMDAT ?end@?$basic_string@DV?$char_traits@D@_STL@@V?$allocator@D@2@@_STL@@QBEPBDXZ
_TEXT	SEGMENT
?end@?$basic_string@DV?$char_traits@D@_STL@@V?$allocator@D@2@@_STL@@QBEPBDXZ PROC NEAR ; _STL::basic_string<char,_STL::char_traits<char>,_STL::allocator<char> >::end, COMDAT
; _this$ = ecx

; 419  :   const_iterator end()   const { return this->_M_finish; }  

  00000	8b 41 04	 mov	 eax, DWORD PTR [ecx+4]
  00003	c3		 ret	 0
?end@?$basic_string@DV?$char_traits@D@_STL@@V?$allocator@D@2@@_STL@@QBEPBDXZ ENDP ; _STL::basic_string<char,_STL::char_traits<char>,_STL::allocator<char> >::end
_TEXT	ENDS
PUBLIC	?_S_right@?$_Rb_tree@V?$basic_string@DV?$char_traits@D@_STL@@V?$allocator@D@2@@_STL@@U?$pair@$$CBV?$basic_string@DV?$char_traits@D@_STL@@V?$allocator@D@2@@_STL@@K@2@U?$_Select1st@U?$pair@$$CBV?$basic_string@DV?$char_traits@D@_STL@@V?$allocator@D@2@@_STL@@K@_STL@@@2@U?$less@V?$basic_string@DV?$char_traits@D@_STL@@V?$allocator@D@2@@_STL@@@2@V?$allocator@U?$pair@$$CBV?$basic_string@DV?$char_traits@D@_STL@@V?$allocator@D@2@@_STL@@K@_STL@@@2@@_STL@@KAAAPAU?$_Rb_tree_node@U?$pair@$$CBV?$basic_string@DV?$char_traits@D@_STL@@V?$allocator@D@2@@_STL@@K@_STL@@@2@PAU_Rb_tree_node_base@2@@Z ; _STL::_Rb_tree<_STL::basic_string<char,_STL::char_traits<char>,_STL::allocator<char> >,_STL::pair<_STL::basic_string<char,_STL::char_traits<char>,_STL::allocator<char> > const ,unsigned long>,_STL::_Select1st<_STL::pair<_STL::basic_string<char,_STL::char_traits<char>,_STL::allocator<char> > const ,unsigned long> >,_STL::less<_STL::basic_string<char,_STL::char_traits<char>,_STL::allocator<char> > >,_STL::allocator<_STL::pair<_STL::basic_string<char,_STL::char_traits<char>,_STL::allocator<char> > const ,unsigned long> > >::_S_right
; Function compile flags: /Ogsy
; File c:\stlport-4.6.1\stlport\stl\_tree.h
;	COMDAT ?_S_right@?$_Rb_tree@V?$basic_string@DV?$char_traits@D@_STL@@V?$allocator@D@2@@_STL@@U?$pair@$$CBV?$basic_string@DV?$char_traits@D@_STL@@V?$allocator@D@2@@_STL@@K@2@U?$_Select1st@U?$pair@$$CBV?$basic_string@DV?$char_traits@D@_STL@@V?$allocator@D@2@@_STL@@K@_STL@@@2@U?$less@V?$basic_string@DV?$char_traits@D@_STL@@V?$allocator@D@2@@_STL@@@2@V?$allocator@U?$pair@$$CBV?$basic_string@DV?$char_traits@D@_STL@@V?$allocator@D@2@@_STL@@K@_STL@@@2@@_STL@@KAAAPAU?$_Rb_tree_node@U?$pair@$$CBV?$basic_string@DV?$char_traits@D@_STL@@V?$allocator@D@2@@_STL@@K@_STL@@@2@PAU_Rb_tree_node_base@2@@Z
_TEXT	SEGMENT
___x$ = 8						; size = 4
?_S_right@?$_Rb_tree@V?$basic_string@DV?$char_traits@D@_STL@@V?$allocator@D@2@@_STL@@U?$pair@$$CBV?$basic_string@DV?$char_traits@D@_STL@@V?$allocator@D@2@@_STL@@K@2@U?$_Select1st@U?$pair@$$CBV?$basic_string@DV?$char_traits@D@_STL@@V?$allocator@D@2@@_STL@@K@_STL@@@2@U?$less@V?$basic_string@DV?$char_traits@D@_STL@@V?$allocator@D@2@@_STL@@@2@V?$allocator@U?$pair@$$CBV?$basic_string@DV?$char_traits@D@_STL@@V?$allocator@D@2@@_STL@@K@_STL@@@2@@_STL@@KAAAPAU?$_Rb_tree_node@U?$pair@$$CBV?$basic_string@DV?$char_traits@D@_STL@@V?$allocator@D@2@@_STL@@K@_STL@@@2@PAU_Rb_tree_node_base@2@@Z PROC NEAR ; _STL::_Rb_tree<_STL::basic_string<char,_STL::char_traits<char>,_STL::allocator<char> >,_STL::pair<_STL::basic_string<char,_STL::char_traits<char>,_STL::allocator<char> > const ,unsigned long>,_STL::_Select1st<_STL::pair<_STL::basic_string<char,_STL::char_traits<char>,_STL::allocator<char> > const ,unsigned long> >,_STL::less<_STL::basic_string<char,_STL::char_traits<char>,_STL::allocator<char> > >,_STL::allocator<_STL::pair<_STL::basic_string<char,_STL::char_traits<char>,_STL::allocator<char> > const ,unsigned long> > >::_S_right, COMDAT

; 287  :     { return (_Link_type&)(__x->_M_right); }

  00000	8b 44 24 04	 mov	 eax, DWORD PTR ___x$[esp-4]
  00004	83 c0 0c	 add	 eax, 12			; 0000000cH
  00007	c3		 ret	 0
?_S_right@?$_Rb_tree@V?$basic_string@DV?$char_traits@D@_STL@@V?$allocator@D@2@@_STL@@U?$pair@$$CBV?$basic_string@DV?$char_traits@D@_STL@@V?$allocator@D@2@@_STL@@K@2@U?$_Select1st@U?$pair@$$CBV?$basic_string@DV?$char_traits@D@_STL@@V?$allocator@D@2@@_STL@@K@_STL@@@2@U?$less@V?$basic_string@DV?$char_traits@D@_STL@@V?$allocator@D@2@@_STL@@@2@V?$allocator@U?$pair@$$CBV?$basic_string@DV?$char_traits@D@_STL@@V?$allocator@D@2@@_STL@@K@_STL@@@2@@_STL@@KAAAPAU?$_Rb_tree_node@U?$pair@$$CBV?$basic_string@DV?$char_traits@D@_STL@@V?$allocator@D@2@@_STL@@K@_STL@@@2@PAU_Rb_tree_node_base@2@@Z ENDP ; _STL::_Rb_tree<_STL::basic_string<char,_STL::char_traits<char>,_STL::allocator<char> >,_STL::pair<_STL::basic_string<char,_STL::char_traits<char>,_STL::allocator<char> > const ,unsigned long>,_STL::_Select1st<_STL::pair<_STL::basic_string<char,_STL::char_traits<char>,_STL::allocator<char> > const ,unsigned long> >,_STL::less<_STL::basic_string<char,_STL::char_traits<char>,_STL::allocator<char> > >,_STL::allocator<_STL::pair<_STL::basic_string<char,_STL::char_traits<char>,_STL::allocator<char> > const ,unsigned long> > >::_S_right
_TEXT	ENDS
PUBLIC	?_S_key@?$_Rb_tree@V?$basic_string@DV?$char_traits@D@_STL@@V?$allocator@D@2@@_STL@@U?$pair@$$CBV?$basic_string@DV?$char_traits@D@_STL@@V?$allocator@D@2@@_STL@@K@2@U?$_Select1st@U?$pair@$$CBV?$basic_string@DV?$char_traits@D@_STL@@V?$allocator@D@2@@_STL@@K@_STL@@@2@U?$less@V?$basic_string@DV?$char_traits@D@_STL@@V?$allocator@D@2@@_STL@@@2@V?$allocator@U?$pair@$$CBV?$basic_string@DV?$char_traits@D@_STL@@V?$allocator@D@2@@_STL@@K@_STL@@@2@@_STL@@KAABV?$basic_string@DV?$char_traits@D@_STL@@V?$allocator@D@2@@2@PAU_Rb_tree_node_base@2@@Z ; _STL::_Rb_tree<_STL::basic_string<char,_STL::char_traits<char>,_STL::allocator<char> >,_STL::pair<_STL::basic_string<char,_STL::char_traits<char>,_STL::allocator<char> > const ,unsigned long>,_STL::_Select1st<_STL::pair<_STL::basic_string<char,_STL::char_traits<char>,_STL::allocator<char> > const ,unsigned long> >,_STL::less<_STL::basic_string<char,_STL::char_traits<char>,_STL::allocator<char> > >,_STL::allocator<_STL::pair<_STL::basic_string<char,_STL::char_traits<char>,_STL::allocator<char> > const ,unsigned long> > >::_S_key
; Function compile flags: /Ogsy
;	COMDAT ?_S_key@?$_Rb_tree@V?$basic_string@DV?$char_traits@D@_STL@@V?$allocator@D@2@@_STL@@U?$pair@$$CBV?$basic_string@DV?$char_traits@D@_STL@@V?$allocator@D@2@@_STL@@K@2@U?$_Select1st@U?$pair@$$CBV?$basic_string@DV?$char_traits@D@_STL@@V?$allocator@D@2@@_STL@@K@_STL@@@2@U?$less@V?$basic_string@DV?$char_traits@D@_STL@@V?$allocator@D@2@@_STL@@@2@V?$allocator@U?$pair@$$CBV?$basic_string@DV?$char_traits@D@_STL@@V?$allocator@D@2@@_STL@@K@_STL@@@2@@_STL@@KAABV?$basic_string@DV?$char_traits@D@_STL@@V?$allocator@D@2@@2@PAU_Rb_tree_node_base@2@@Z
_TEXT	SEGMENT
___x$ = 8						; size = 4
?_S_key@?$_Rb_tree@V?$basic_string@DV?$char_traits@D@_STL@@V?$allocator@D@2@@_STL@@U?$pair@$$CBV?$basic_string@DV?$char_traits@D@_STL@@V?$allocator@D@2@@_STL@@K@2@U?$_Select1st@U?$pair@$$CBV?$basic_string@DV?$char_traits@D@_STL@@V?$allocator@D@2@@_STL@@K@_STL@@@2@U?$less@V?$basic_string@DV?$char_traits@D@_STL@@V?$allocator@D@2@@_STL@@@2@V?$allocator@U?$pair@$$CBV?$basic_string@DV?$char_traits@D@_STL@@V?$allocator@D@2@@_STL@@K@_STL@@@2@@_STL@@KAABV?$basic_string@DV?$char_traits@D@_STL@@V?$allocator@D@2@@2@PAU_Rb_tree_node_base@2@@Z PROC NEAR ; _STL::_Rb_tree<_STL::basic_string<char,_STL::char_traits<char>,_STL::allocator<char> >,_STL::pair<_STL::basic_string<char,_STL::char_traits<char>,_STL::allocator<char> > const ,unsigned long>,_STL::_Select1st<_STL::pair<_STL::basic_string<char,_STL::char_traits<char>,_STL::allocator<char> > const ,unsigned long> >,_STL::less<_STL::basic_string<char,_STL::char_traits<char>,_STL::allocator<char> > >,_STL::allocator<_STL::pair<_STL::basic_string<char,_STL::char_traits<char>,_STL::allocator<char> > const ,unsigned long> > >::_S_key, COMDAT

; 293  :     { return _KeyOfValue()(_S_value(_Link_type(__x)));} 

  00000	8b 44 24 04	 mov	 eax, DWORD PTR ___x$[esp-4]
  00004	83 c0 10	 add	 eax, 16			; 00000010H
  00007	c3		 ret	 0
?_S_key@?$_Rb_tree@V?$basic_string@DV?$char_traits@D@_STL@@V?$allocator@D@2@@_STL@@U?$pair@$$CBV?$basic_string@DV?$char_traits@D@_STL@@V?$allocator@D@2@@_STL@@K@2@U?$_Select1st@U?$pair@$$CBV?$basic_string@DV?$char_traits@D@_STL@@V?$allocator@D@2@@_STL@@K@_STL@@@2@U?$less@V?$basic_string@DV?$char_traits@D@_STL@@V?$allocator@D@2@@_STL@@@2@V?$allocator@U?$pair@$$CBV?$basic_string@DV?$char_traits@D@_STL@@V?$allocator@D@2@@_STL@@K@_STL@@@2@@_STL@@KAABV?$basic_string@DV?$char_traits@D@_STL@@V?$allocator@D@2@@2@PAU_Rb_tree_node_base@2@@Z ENDP ; _STL::_Rb_tree<_STL::basic_string<char,_STL::char_traits<char>,_STL::allocator<char> >,_STL::pair<_STL::basic_string<char,_STL::char_traits<char>,_STL::allocator<char> > const ,unsigned long>,_STL::_Select1st<_STL::pair<_STL::basic_string<char,_STL::char_traits<char>,_STL::allocator<char> > const ,unsigned long> >,_STL::less<_STL::basic_string<char,_STL::char_traits<char>,_STL::allocator<char> > >,_STL::allocator<_STL::pair<_STL::basic_string<char,_STL::char_traits<char>,_STL::allocator<char> > const ,unsigned long> > >::_S_key
_TEXT	ENDS
PUBLIC	?size@?$_Rb_tree@V?$basic_string@DV?$char_traits@D@_STL@@V?$allocator@D@2@@_STL@@U?$pair@$$CBV?$basic_string@DV?$char_traits@D@_STL@@V?$allocator@D@2@@_STL@@K@2@U?$_Select1st@U?$pair@$$CBV?$basic_string@DV?$char_traits@D@_STL@@V?$allocator@D@2@@_STL@@K@_STL@@@2@U?$less@V?$basic_string@DV?$char_traits@D@_STL@@V?$allocator@D@2@@_STL@@@2@V?$allocator@U?$pair@$$CBV?$basic_string@DV?$char_traits@D@_STL@@V?$allocator@D@2@@_STL@@K@_STL@@@2@@_STL@@QBEIXZ ; _STL::_Rb_tree<_STL::basic_string<char,_STL::char_traits<char>,_STL::allocator<char> >,_STL::pair<_STL::basic_string<char,_STL::char_traits<char>,_STL::allocator<char> > const ,unsigned long>,_STL::_Select1st<_STL::pair<_STL::basic_string<char,_STL::char_traits<char>,_STL::allocator<char> > const ,unsigned long> >,_STL::less<_STL::basic_string<char,_STL::char_traits<char>,_STL::allocator<char> > >,_STL::allocator<_STL::pair<_STL::basic_string<char,_STL::char_traits<char>,_STL::allocator<char> > const ,unsigned long> > >::size
; Function compile flags: /Ogsy
;	COMDAT ?size@?$_Rb_tree@V?$basic_string@DV?$char_traits@D@_STL@@V?$allocator@D@2@@_STL@@U?$pair@$$CBV?$basic_string@DV?$char_traits@D@_STL@@V?$allocator@D@2@@_STL@@K@2@U?$_Select1st@U?$pair@$$CBV?$basic_string@DV?$char_traits@D@_STL@@V?$allocator@D@2@@_STL@@K@_STL@@@2@U?$less@V?$basic_string@DV?$char_traits@D@_STL@@V?$allocator@D@2@@_STL@@@2@V?$allocator@U?$pair@$$CBV?$basic_string@DV?$char_traits@D@_STL@@V?$allocator@D@2@@_STL@@K@_STL@@@2@@_STL@@QBEIXZ
_TEXT	SEGMENT
?size@?$_Rb_tree@V?$basic_string@DV?$char_traits@D@_STL@@V?$allocator@D@2@@_STL@@U?$pair@$$CBV?$basic_string@DV?$char_traits@D@_STL@@V?$allocator@D@2@@_STL@@K@2@U?$_Select1st@U?$pair@$$CBV?$basic_string@DV?$char_traits@D@_STL@@V?$allocator@D@2@@_STL@@K@_STL@@@2@U?$less@V?$basic_string@DV?$char_traits@D@_STL@@V?$allocator@D@2@@_STL@@@2@V?$allocator@U?$pair@$$CBV?$basic_string@DV?$char_traits@D@_STL@@V?$allocator@D@2@@_STL@@K@_STL@@@2@@_STL@@QBEIXZ PROC NEAR ; _STL::_Rb_tree<_STL::basic_string<char,_STL::char_traits<char>,_STL::allocator<char> >,_STL::pair<_STL::basic_string<char,_STL::char_traits<char>,_STL::allocator<char> > const ,unsigned long>,_STL::_Select1st<_STL::pair<_STL::basic_string<char,_STL::char_traits<char>,_STL::allocator<char> > const ,unsigned long> >,_STL::less<_STL::basic_string<char,_STL::char_traits<char>,_STL::allocator<char> > >,_STL::allocator<_STL::pair<_STL::basic_string<char,_STL::char_traits<char>,_STL::allocator<char> > const ,unsigned long> > >::size, COMDAT
; _this$ = ecx

; 371  :   size_type size() const { return _M_node_count; }

  00000	8b 41 04	 mov	 eax, DWORD PTR [ecx+4]
  00003	c3		 ret	 0
?size@?$_Rb_tree@V?$basic_string@DV?$char_traits@D@_STL@@V?$allocator@D@2@@_STL@@U?$pair@$$CBV?$basic_string@DV?$char_traits@D@_STL@@V?$allocator@D@2@@_STL@@K@2@U?$_Select1st@U?$pair@$$CBV?$basic_string@DV?$char_traits@D@_STL@@V?$allocator@D@2@@_STL@@K@_STL@@@2@U?$less@V?$basic_string@DV?$char_traits@D@_STL@@V?$allocator@D@2@@_STL@@@2@V?$allocator@U?$pair@$$CBV?$basic_string@DV?$char_traits@D@_STL@@V?$allocator@D@2@@_STL@@K@_STL@@@2@@_STL@@QBEIXZ ENDP ; _STL::_Rb_tree<_STL::basic_string<char,_STL::char_traits<char>,_STL::allocator<char> >,_STL::pair<_STL::basic_string<char,_STL::char_traits<char>,_STL::allocator<char> > const ,unsigned long>,_STL::_Select1st<_STL::pair<_STL::basic_string<char,_STL::char_traits<char>,_STL::allocator<char> > const ,unsigned long> >,_STL::less<_STL::basic_string<char,_STL::char_traits<char>,_STL::allocator<char> > >,_STL::allocator<_STL::pair<_STL::basic_string<char,_STL::char_traits<char>,_STL::allocator<char> > const ,unsigned long> > >::size
_TEXT	ENDS
PUBLIC	??E?$_Rb_tree_iterator@U?$pair@$$CBV?$basic_string@DV?$char_traits@D@_STL@@V?$allocator@D@2@@_STL@@K@_STL@@U?$_Nonconst_traits@U?$pair@$$CBV?$basic_string@DV?$char_traits@D@_STL@@V?$allocator@D@2@@_STL@@K@_STL@@@2@@_STL@@QAEAAU01@XZ ; _STL::_Rb_tree_iterator<_STL::pair<_STL::basic_string<char,_STL::char_traits<char>,_STL::allocator<char> > const ,unsigned long>,_STL::_Nonconst_traits<_STL::pair<_STL::basic_string<char,_STL::char_traits<char>,_STL::allocator<char> > const ,unsigned long> > >::operator++
EXTRN	?_M_increment@?$_Rb_global@_N@_STL@@SAPAU_Rb_tree_node_base@2@PAU32@@Z:NEAR ; _STL::_Rb_global<bool>::_M_increment
; Function compile flags: /Ogsy
;	COMDAT ??E?$_Rb_tree_iterator@U?$pair@$$CBV?$basic_string@DV?$char_traits@D@_STL@@V?$allocator@D@2@@_STL@@K@_STL@@U?$_Nonconst_traits@U?$pair@$$CBV?$basic_string@DV?$char_traits@D@_STL@@V?$allocator@D@2@@_STL@@K@_STL@@@2@@_STL@@QAEAAU01@XZ
_TEXT	SEGMENT
??E?$_Rb_tree_iterator@U?$pair@$$CBV?$basic_string@DV?$char_traits@D@_STL@@V?$allocator@D@2@@_STL@@K@_STL@@U?$_Nonconst_traits@U?$pair@$$CBV?$basic_string@DV?$char_traits@D@_STL@@V?$allocator@D@2@@_STL@@K@_STL@@@2@@_STL@@QAEAAU01@XZ PROC NEAR ; _STL::_Rb_tree_iterator<_STL::pair<_STL::basic_string<char,_STL::char_traits<char>,_STL::allocator<char> > const ,unsigned long>,_STL::_Nonconst_traits<_STL::pair<_STL::basic_string<char,_STL::char_traits<char>,_STL::allocator<char> > const ,unsigned long> > >::operator++, COMDAT
; _this$ = ecx

; 174  :   _Self& operator++() { _M_node = _Rb_global_inst::_M_increment(_M_node); return *this; }

  00000	56		 push	 esi
  00001	8b f1		 mov	 esi, ecx
  00003	ff 36		 push	 DWORD PTR [esi]
  00005	e8 00 00 00 00	 call	 ?_M_increment@?$_Rb_global@_N@_STL@@SAPAU_Rb_tree_node_base@2@PAU32@@Z ; _STL::_Rb_global<bool>::_M_increment
  0000a	89 06		 mov	 DWORD PTR [esi], eax
  0000c	59		 pop	 ecx
  0000d	8b c6		 mov	 eax, esi
  0000f	5e		 pop	 esi
  00010	c3		 ret	 0
??E?$_Rb_tree_iterator@U?$pair@$$CBV?$basic_string@DV?$char_traits@D@_STL@@V?$allocator@D@2@@_STL@@K@_STL@@U?$_Nonconst_traits@U?$pair@$$CBV?$basic_string@DV?$char_traits@D@_STL@@V?$allocator@D@2@@_STL@@K@_STL@@@2@@_STL@@QAEAAU01@XZ ENDP ; _STL::_Rb_tree_iterator<_STL::pair<_STL::basic_string<char,_STL::char_traits<char>,_STL::allocator<char> > const ,unsigned long>,_STL::_Nonconst_traits<_STL::pair<_STL::basic_string<char,_STL::char_traits<char>,_STL::allocator<char> > const ,unsigned long> > >::operator++
_TEXT	ENDS
PUBLIC	??F?$_Rb_tree_iterator@U?$pair@$$CBV?$basic_string@DV?$char_traits@D@_STL@@V?$allocator@D@2@@_STL@@K@_STL@@U?$_Nonconst_traits@U?$pair@$$CBV?$basic_string@DV?$char_traits@D@_STL@@V?$allocator@D@2@@_STL@@K@_STL@@@2@@_STL@@QAEAAU01@XZ ; _STL::_Rb_tree_iterator<_STL::pair<_STL::basic_string<char,_STL::char_traits<char>,_STL::allocator<char> > const ,unsigned long>,_STL::_Nonconst_traits<_STL::pair<_STL::basic_string<char,_STL::char_traits<char>,_STL::allocator<char> > const ,unsigned long> > >::operator--
EXTRN	?_M_decrement@?$_Rb_global@_N@_STL@@SAPAU_Rb_tree_node_base@2@PAU32@@Z:NEAR ; _STL::_Rb_global<bool>::_M_decrement
; Function compile flags: /Ogsy
;	COMDAT ??F?$_Rb_tree_iterator@U?$pair@$$CBV?$basic_string@DV?$char_traits@D@_STL@@V?$allocator@D@2@@_STL@@K@_STL@@U?$_Nonconst_traits@U?$pair@$$CBV?$basic_string@DV?$char_traits@D@_STL@@V?$allocator@D@2@@_STL@@K@_STL@@@2@@_STL@@QAEAAU01@XZ
_TEXT	SEGMENT
??F?$_Rb_tree_iterator@U?$pair@$$CBV?$basic_string@DV?$char_traits@D@_STL@@V?$allocator@D@2@@_STL@@K@_STL@@U?$_Nonconst_traits@U?$pair@$$CBV?$basic_string@DV?$char_traits@D@_STL@@V?$allocator@D@2@@_STL@@K@_STL@@@2@@_STL@@QAEAAU01@XZ PROC NEAR ; _STL::_Rb_tree_iterator<_STL::pair<_STL::basic_string<char,_STL::char_traits<char>,_STL::allocator<char> > const ,unsigned long>,_STL::_Nonconst_traits<_STL::pair<_STL::basic_string<char,_STL::char_traits<char>,_STL::allocator<char> > const ,unsigned long> > >::operator--, COMDAT
; _this$ = ecx

; 181  :   _Self& operator--() { _M_node = _Rb_global_inst::_M_decrement(_M_node); return *this; }

  00000	56		 push	 esi
  00001	8b f1		 mov	 esi, ecx
  00003	ff 36		 push	 DWORD PTR [esi]
  00005	e8 00 00 00 00	 call	 ?_M_decrement@?$_Rb_global@_N@_STL@@SAPAU_Rb_tree_node_base@2@PAU32@@Z ; _STL::_Rb_global<bool>::_M_decrement
  0000a	89 06		 mov	 DWORD PTR [esi], eax
  0000c	59		 pop	 ecx
  0000d	8b c6		 mov	 eax, esi
  0000f	5e		 pop	 esi
  00010	c3		 ret	 0
??F?$_Rb_tree_iterator@U?$pair@$$CBV?$basic_string@DV?$char_traits@D@_STL@@V?$allocator@D@2@@_STL@@K@_STL@@U?$_Nonconst_traits@U?$pair@$$CBV?$basic_string@DV?$char_traits@D@_STL@@V?$allocator@D@2@@_STL@@K@_STL@@@2@@_STL@@QAEAAU01@XZ ENDP ; _STL::_Rb_tree_iterator<_STL::pair<_STL::basic_string<char,_STL::char_traits<char>,_STL::allocator<char> > const ,unsigned long>,_STL::_Nonconst_traits<_STL::pair<_STL::basic_string<char,_STL::char_traits<char>,_STL::allocator<char> > const ,unsigned long> > >::operator--
_TEXT	ENDS
PUBLIC	?_S_parent@?$_Rb_tree@V?$basic_string@DV?$char_traits@D@_STL@@V?$allocator@D@2@@_STL@@U?$pair@$$CBV?$basic_string@DV?$char_traits@D@_STL@@V?$allocator@D@2@@_STL@@K@2@U?$_Select1st@U?$pair@$$CBV?$basic_string@DV?$char_traits@D@_STL@@V?$allocator@D@2@@_STL@@K@_STL@@@2@U?$less@V?$basic_string@DV?$char_traits@D@_STL@@V?$allocator@D@2@@_STL@@@2@V?$allocator@U?$pair@$$CBV?$basic_string@DV?$char_traits@D@_STL@@V?$allocator@D@2@@_STL@@K@_STL@@@2@@_STL@@KAAAPAU?$_Rb_tree_node@U?$pair@$$CBV?$basic_string@DV?$char_traits@D@_STL@@V?$allocator@D@2@@_STL@@K@_STL@@@2@PAU32@@Z ; _STL::_Rb_tree<_STL::basic_string<char,_STL::char_traits<char>,_STL::allocator<char> >,_STL::pair<_STL::basic_string<char,_STL::char_traits<char>,_STL::allocator<char> > const ,unsigned long>,_STL::_Select1st<_STL::pair<_STL::basic_string<char,_STL::char_traits<char>,_STL::allocator<char> > const ,unsigned long> >,_STL::less<_STL::basic_string<char,_STL::char_traits<char>,_STL::allocator<char> > >,_STL::allocator<_STL::pair<_STL::basic_string<char,_STL::char_traits<char>,_STL::allocator<char> > const ,unsigned long> > >::_S_parent
; Function compile flags: /Ogsy
;	COMDAT ?_S_parent@?$_Rb_tree@V?$basic_string@DV?$char_traits@D@_STL@@V?$allocator@D@2@@_STL@@U?$pair@$$CBV?$basic_string@DV?$char_traits@D@_STL@@V?$allocator@D@2@@_STL@@K@2@U?$_Select1st@U?$pair@$$CBV?$basic_string@DV?$char_traits@D@_STL@@V?$allocator@D@2@@_STL@@K@_STL@@@2@U?$less@V?$basic_string@DV?$char_traits@D@_STL@@V?$allocator@D@2@@_STL@@@2@V?$allocator@U?$pair@$$CBV?$basic_string@DV?$char_traits@D@_STL@@V?$allocator@D@2@@_STL@@K@_STL@@@2@@_STL@@KAAAPAU?$_Rb_tree_node@U?$pair@$$CBV?$basic_string@DV?$char_traits@D@_STL@@V?$allocator@D@2@@_STL@@K@_STL@@@2@PAU32@@Z
_TEXT	SEGMENT
___x$ = 8						; size = 4
?_S_parent@?$_Rb_tree@V?$basic_string@DV?$char_traits@D@_STL@@V?$allocator@D@2@@_STL@@U?$pair@$$CBV?$basic_string@DV?$char_traits@D@_STL@@V?$allocator@D@2@@_STL@@K@2@U?$_Select1st@U?$pair@$$CBV?$basic_string@DV?$char_traits@D@_STL@@V?$allocator@D@2@@_STL@@K@_STL@@@2@U?$less@V?$basic_string@DV?$char_traits@D@_STL@@V?$allocator@D@2@@_STL@@@2@V?$allocator@U?$pair@$$CBV?$basic_string@DV?$char_traits@D@_STL@@V?$allocator@D@2@@_STL@@K@_STL@@@2@@_STL@@KAAAPAU?$_Rb_tree_node@U?$pair@$$CBV?$basic_string@DV?$char_traits@D@_STL@@V?$allocator@D@2@@_STL@@K@_STL@@@2@PAU32@@Z PROC NEAR ; _STL::_Rb_tree<_STL::basic_string<char,_STL::char_traits<char>,_STL::allocator<char> >,_STL::pair<_STL::basic_string<char,_STL::char_traits<char>,_STL::allocator<char> > const ,unsigned long>,_STL::_Select1st<_STL::pair<_STL::basic_string<char,_STL::char_traits<char>,_STL::allocator<char> > const ,unsigned long> >,_STL::less<_STL::basic_string<char,_STL::char_traits<char>,_STL::allocator<char> > >,_STL::allocator<_STL::pair<_STL::basic_string<char,_STL::char_traits<char>,_STL::allocator<char> > const ,unsigned long> > >::_S_parent, COMDAT

; 276  :     { return (_Link_type&)(__x->_M_parent); }

  00000	8b 44 24 04	 mov	 eax, DWORD PTR ___x$[esp-4]
  00004	83 c0 04	 add	 eax, 4
  00007	c3		 ret	 0
?_S_parent@?$_Rb_tree@V?$basic_string@DV?$char_traits@D@_STL@@V?$allocator@D@2@@_STL@@U?$pair@$$CBV?$basic_string@DV?$char_traits@D@_STL@@V?$allocator@D@2@@_STL@@K@2@U?$_Select1st@U?$pair@$$CBV?$basic_string@DV?$char_traits@D@_STL@@V?$allocator@D@2@@_STL@@K@_STL@@@2@U?$less@V?$basic_string@DV?$char_traits@D@_STL@@V?$allocator@D@2@@_STL@@@2@V?$allocator@U?$pair@$$CBV?$basic_string@DV?$char_traits@D@_STL@@V?$allocator@D@2@@_STL@@K@_STL@@@2@@_STL@@KAAAPAU?$_Rb_tree_node@U?$pair@$$CBV?$basic_string@DV?$char_traits@D@_STL@@V?$allocator@D@2@@_STL@@K@_STL@@@2@PAU32@@Z ENDP ; _STL::_Rb_tree<_STL::basic_string<char,_STL::char_traits<char>,_STL::allocator<char> >,_STL::pair<_STL::basic_string<char,_STL::char_traits<char>,_STL::allocator<char> > const ,unsigned long>,_STL::_Select1st<_STL::pair<_STL::basic_string<char,_STL::char_traits<char>,_STL::allocator<char> > const ,unsigned long> >,_STL::less<_STL::basic_string<char,_STL::char_traits<char>,_STL::allocator<char> > >,_STL::allocator<_STL::pair<_STL::basic_string<char,_STL::char_traits<char>,_STL::allocator<char> > const ,unsigned long> > >::_S_parent
_TEXT	ENDS
PUBLIC	?begin@?$_Rb_tree@V?$basic_string@DV?$char_traits@D@_STL@@V?$allocator@D@2@@_STL@@U?$pair@$$CBV?$basic_string@DV?$char_traits@D@_STL@@V?$allocator@D@2@@_STL@@K@2@U?$_Select1st@U?$pair@$$CBV?$basic_string@DV?$char_traits@D@_STL@@V?$allocator@D@2@@_STL@@K@_STL@@@2@U?$less@V?$basic_string@DV?$char_traits@D@_STL@@V?$allocator@D@2@@_STL@@@2@V?$allocator@U?$pair@$$CBV?$basic_string@DV?$char_traits@D@_STL@@V?$allocator@D@2@@_STL@@K@_STL@@@2@@_STL@@QAE?AU?$_Rb_tree_iterator@U?$pair@$$CBV?$basic_string@DV?$char_traits@D@_STL@@V?$allocator@D@2@@_STL@@K@_STL@@U?$_Nonconst_traits@U?$pair@$$CBV?$basic_string@DV?$char_traits@D@_STL@@V?$allocator@D@2@@_STL@@K@_STL@@@2@@2@XZ ; _STL::_Rb_tree<_STL::basic_string<char,_STL::char_traits<char>,_STL::allocator<char> >,_STL::pair<_STL::basic_string<char,_STL::char_traits<char>,_STL::allocator<char> > const ,unsigned long>,_STL::_Select1st<_STL::pair<_STL::basic_string<char,_STL::char_traits<char>,_STL::allocator<char> > const ,unsigned long> >,_STL::less<_STL::basic_string<char,_STL::char_traits<char>,_STL::allocator<char> > >,_STL::allocator<_STL::pair<_STL::basic_string<char,_STL::char_traits<char>,_STL::allocator<char> > const ,unsigned long> > >::begin
; Function compile flags: /Ogsy
;	COMDAT ?begin@?$_Rb_tree@V?$basic_string@DV?$char_traits@D@_STL@@V?$allocator@D@2@@_STL@@U?$pair@$$CBV?$basic_string@DV?$char_traits@D@_STL@@V?$allocator@D@2@@_STL@@K@2@U?$_Select1st@U?$pair@$$CBV?$basic_string@DV?$char_traits@D@_STL@@V?$allocator@D@2@@_STL@@K@_STL@@@2@U?$less@V?$basic_string@DV?$char_traits@D@_STL@@V?$allocator@D@2@@_STL@@@2@V?$allocator@U?$pair@$$CBV?$basic_string@DV?$char_traits@D@_STL@@V?$allocator@D@2@@_STL@@K@_STL@@@2@@_STL@@QAE?AU?$_Rb_tree_iterator@U?$pair@$$CBV?$basic_string@DV?$char_traits@D@_STL@@V?$allocator@D@2@@_STL@@K@_STL@@U?$_Nonconst_traits@U?$pair@$$CBV?$basic_string@DV?$char_traits@D@_STL@@V?$allocator@D@2@@_STL@@K@_STL@@@2@@2@XZ
_TEXT	SEGMENT
___$ReturnUdt$ = 8					; size = 4
?begin@?$_Rb_tree@V?$basic_string@DV?$char_traits@D@_STL@@V?$allocator@D@2@@_STL@@U?$pair@$$CBV?$basic_string@DV?$char_traits@D@_STL@@V?$allocator@D@2@@_STL@@K@2@U?$_Select1st@U?$pair@$$CBV?$basic_string@DV?$char_traits@D@_STL@@V?$allocator@D@2@@_STL@@K@_STL@@@2@U?$less@V?$basic_string@DV?$char_traits@D@_STL@@V?$allocator@D@2@@_STL@@@2@V?$allocator@U?$pair@$$CBV?$basic_string@DV?$char_traits@D@_STL@@V?$allocator@D@2@@_STL@@K@_STL@@@2@@_STL@@QAE?AU?$_Rb_tree_iterator@U?$pair@$$CBV?$basic_string@DV?$char_traits@D@_STL@@V?$allocator@D@2@@_STL@@K@_STL@@U?$_Nonconst_traits@U?$pair@$$CBV?$basic_string@DV?$char_traits@D@_STL@@V?$allocator@D@2@@_STL@@K@_STL@@@2@@2@XZ PROC NEAR ; _STL::_Rb_tree<_STL::basic_string<char,_STL::char_traits<char>,_STL::allocator<char> >,_STL::pair<_STL::basic_string<char,_STL::char_traits<char>,_STL::allocator<char> > const ,unsigned long>,_STL::_Select1st<_STL::pair<_STL::basic_string<char,_STL::char_traits<char>,_STL::allocator<char> > const ,unsigned long> >,_STL::less<_STL::basic_string<char,_STL::char_traits<char>,_STL::allocator<char> > >,_STL::allocator<_STL::pair<_STL::basic_string<char,_STL::char_traits<char>,_STL::allocator<char> > const ,unsigned long> > >::begin, COMDAT
; _this$ = ecx

; 357  :   iterator begin() { return iterator(_M_leftmost()); }

  00000	8b 01		 mov	 eax, DWORD PTR [ecx]
  00002	8b 48 08	 mov	 ecx, DWORD PTR [eax+8]
  00005	8b 44 24 04	 mov	 eax, DWORD PTR ___$ReturnUdt$[esp-4]
  00009	89 08		 mov	 DWORD PTR [eax], ecx
  0000b	c2 04 00	 ret	 4
?begin@?$_Rb_tree@V?$basic_string@DV?$char_traits@D@_STL@@V?$allocator@D@2@@_STL@@U?$pair@$$CBV?$basic_string@DV?$char_traits@D@_STL@@V?$allocator@D@2@@_STL@@K@2@U?$_Select1st@U?$pair@$$CBV?$basic_string@DV?$char_traits@D@_STL@@V?$allocator@D@2@@_STL@@K@_STL@@@2@U?$less@V?$basic_string@DV?$char_traits@D@_STL@@V?$allocator@D@2@@_STL@@@2@V?$allocator@U?$pair@$$CBV?$basic_string@DV?$char_traits@D@_STL@@V?$allocator@D@2@@_STL@@K@_STL@@@2@@_STL@@QAE?AU?$_Rb_tree_iterator@U?$pair@$$CBV?$basic_string@DV?$char_traits@D@_STL@@V?$allocator@D@2@@_STL@@K@_STL@@U?$_Nonconst_traits@U?$pair@$$CBV?$basic_string@DV?$char_traits@D@_STL@@V?$allocator@D@2@@_STL@@K@_STL@@@2@@2@XZ ENDP ; _STL::_Rb_tree<_STL::basic_string<char,_STL::char_traits<char>,_STL::allocator<char> >,_STL::pair<_STL::basic_string<char,_STL::char_traits<char>,_STL::allocator<char> > const ,unsigned long>,_STL::_Select1st<_STL::pair<_STL::basic_string<char,_STL::char_traits<char>,_STL::allocator<char> > const ,unsigned long> >,_STL::less<_STL::basic_string<char,_STL::char_traits<char>,_STL::allocator<char> > >,_STL::allocator<_STL::pair<_STL::basic_string<char,_STL::char_traits<char>,_STL::allocator<char> > const ,unsigned long> > >::begin
_TEXT	ENDS
PUBLIC	??0?$pair@U?$_Rb_tree_iterator@U?$pair@$$CBV?$basic_string@DV?$char_traits@D@_STL@@V?$allocator@D@2@@_STL@@K@_STL@@U?$_Nonconst_traits@U?$pair@$$CBV?$basic_string@DV?$char_traits@D@_STL@@V?$allocator@D@2@@_STL@@K@_STL@@@2@@_STL@@_N@_STL@@QAE@ABU?$_Rb_tree_iterator@U?$pair@$$CBV?$basic_string@DV?$char_traits@D@_STL@@V?$allocator@D@2@@_STL@@K@_STL@@U?$_Nonconst_traits@U?$pair@$$CBV?$basic_string@DV?$char_traits@D@_STL@@V?$allocator@D@2@@_STL@@K@_STL@@@2@@1@AB_N@Z ; _STL::pair<_STL::_Rb_tree_iterator<_STL::pair<_STL::basic_string<char,_STL::char_traits<char>,_STL::allocator<char> > const ,unsigned long>,_STL::_Nonconst_traits<_STL::pair<_STL::basic_string<char,_STL::char_traits<char>,_STL::allocator<char> > const ,unsigned long> > >,bool>::pair<_STL::_Rb_tree_iterator<_STL::pair<_STL::basic_string<char,_STL::char_traits<char>,_STL::allocator<char> > const ,unsigned long>,_STL::_Nonconst_traits<_STL::pair<_STL::basic_string<char,_STL::char_traits<char>,_STL::allocator<char> > const ,unsigned long> > >,bool>
; Function compile flags: /Ogsy
; File c:\stlport-4.6.1\stlport\stl\_pair.h
;	COMDAT ??0?$pair@U?$_Rb_tree_iterator@U?$pair@$$CBV?$basic_string@DV?$char_traits@D@_STL@@V?$allocator@D@2@@_STL@@K@_STL@@U?$_Nonconst_traits@U?$pair@$$CBV?$basic_string@DV?$char_traits@D@_STL@@V?$allocator@D@2@@_STL@@K@_STL@@@2@@_STL@@_N@_STL@@QAE@ABU?$_Rb_tree_iterator@U?$pair@$$CBV?$basic_string@DV?$char_traits@D@_STL@@V?$allocator@D@2@@_STL@@K@_STL@@U?$_Nonconst_traits@U?$pair@$$CBV?$basic_string@DV?$char_traits@D@_STL@@V?$allocator@D@2@@_STL@@K@_STL@@@2@@1@AB_N@Z
_TEXT	SEGMENT
___a$ = 8						; size = 4
___b$ = 12						; size = 4
??0?$pair@U?$_Rb_tree_iterator@U?$pair@$$CBV?$basic_string@DV?$char_traits@D@_STL@@V?$allocator@D@2@@_STL@@K@_STL@@U?$_Nonconst_traits@U?$pair@$$CBV?$basic_string@DV?$char_traits@D@_STL@@V?$allocator@D@2@@_STL@@K@_STL@@@2@@_STL@@_N@_STL@@QAE@ABU?$_Rb_tree_iterator@U?$pair@$$CBV?$basic_string@DV?$char_traits@D@_STL@@V?$allocator@D@2@@_STL@@K@_STL@@U?$_Nonconst_traits@U?$pair@$$CBV?$basic_string@DV?$char_traits@D@_STL@@V?$allocator@D@2@@_STL@@K@_STL@@@2@@1@AB_N@Z PROC NEAR ; _STL::pair<_STL::_Rb_tree_iterator<_STL::pair<_STL::basic_string<char,_STL::char_traits<char>,_STL::allocator<char> > const ,unsigned long>,_STL::_Nonconst_traits<_STL::pair<_STL::basic_string<char,_STL::char_traits<char>,_STL::allocator<char> > const ,unsigned long> > >,bool>::pair<_STL::_Rb_tree_iterator<_STL::pair<_STL::basic_string<char,_STL::char_traits<char>,_STL::allocator<char> > const ,unsigned long>,_STL::_Nonconst_traits<_STL::pair<_STL::basic_string<char,_STL::char_traits<char>,_STL::allocator<char> > const ,unsigned long> > >,bool>, COMDAT
; _this$ = ecx

; 48   :   pair(const _T1& __a, const _T2& __b) : first(__a), second(__b) {}

  00000	8b c1		 mov	 eax, ecx
  00002	8b 4c 24 04	 mov	 ecx, DWORD PTR ___a$[esp-4]
  00006	8b 09		 mov	 ecx, DWORD PTR [ecx]
  00008	89 08		 mov	 DWORD PTR [eax], ecx
  0000a	8b 4c 24 08	 mov	 ecx, DWORD PTR ___b$[esp-4]
  0000e	8a 09		 mov	 cl, BYTE PTR [ecx]
  00010	88 48 04	 mov	 BYTE PTR [eax+4], cl
  00013	c2 08 00	 ret	 8
??0?$pair@U?$_Rb_tree_iterator@U?$pair@$$CBV?$basic_string@DV?$char_traits@D@_STL@@V?$allocator@D@2@@_STL@@K@_STL@@U?$_Nonconst_traits@U?$pair@$$CBV?$basic_string@DV?$char_traits@D@_STL@@V?$allocator@D@2@@_STL@@K@_STL@@@2@@_STL@@_N@_STL@@QAE@ABU?$_Rb_tree_iterator@U?$pair@$$CBV?$basic_string@DV?$char_traits@D@_STL@@V?$allocator@D@2@@_STL@@K@_STL@@U?$_Nonconst_traits@U?$pair@$$CBV?$basic_string@DV?$char_traits@D@_STL@@V?$allocator@D@2@@_STL@@K@_STL@@@2@@1@AB_N@Z ENDP ; _STL::pair<_STL::_Rb_tree_iterator<_STL::pair<_STL::basic_string<char,_STL::char_traits<char>,_STL::allocator<char> > const ,unsigned long>,_STL::_Nonconst_traits<_STL::pair<_STL::basic_string<char,_STL::char_traits<char>,_STL::allocator<char> > const ,unsigned long> > >,bool>::pair<_STL::_Rb_tree_iterator<_STL::pair<_STL::basic_string<char,_STL::char_traits<char>,_STL::allocator<char> > const ,unsigned long>,_STL::_Nonconst_traits<_STL::pair<_STL::basic_string<char,_STL::char_traits<char>,_STL::allocator<char> > const ,unsigned long> > >,bool>
_TEXT	ENDS
PUBLIC	?max_size@?$_String_base@DV?$allocator@D@_STL@@@_STL@@QBEIXZ ; _STL::_String_base<char,_STL::allocator<char> >::max_size
; Function compile flags: /Ogsy
; File c:\stlport-4.6.1\stlport\stl\_string.h
;	COMDAT ?max_size@?$_String_base@DV?$allocator@D@_STL@@@_STL@@QBEIXZ
_TEXT	SEGMENT
?max_size@?$_String_base@DV?$allocator@D@_STL@@@_STL@@QBEIXZ PROC NEAR ; _STL::_String_base<char,_STL::allocator<char> >::max_size, COMDAT
; _this$ = ecx

; 126  :   size_t max_size() const { return (size_t(-1) / sizeof(_Tp)) - 1; }

  00000	6a fe		 push	 -2			; fffffffeH
  00002	58		 pop	 eax
  00003	c3		 ret	 0
?max_size@?$_String_base@DV?$allocator@D@_STL@@@_STL@@QBEIXZ ENDP ; _STL::_String_base<char,_STL::allocator<char> >::max_size
_TEXT	ENDS
PUBLIC	??$__distance@PBD@_STL@@YAHABQBD0ABUrandom_access_iterator_tag@0@@Z ; _STL::__distance<char const *>
; Function compile flags: /Ogsy
; File c:\stlport-4.6.1\stlport\stl\_iterator_base.h
;	COMDAT ??$__distance@PBD@_STL@@YAHABQBD0ABUrandom_access_iterator_tag@0@@Z
_TEXT	SEGMENT
___first$ = 8						; size = 4
___last$ = 12						; size = 4
___formal$ = 16						; size = 4
??$__distance@PBD@_STL@@YAHABQBD0ABUrandom_access_iterator_tag@0@@Z PROC NEAR ; _STL::__distance<char const *>, COMDAT

; 363  :   return __last - __first;

  00000	8b 44 24 08	 mov	 eax, DWORD PTR ___last$[esp-4]
  00004	8b 00		 mov	 eax, DWORD PTR [eax]
  00006	8b 4c 24 04	 mov	 ecx, DWORD PTR ___first$[esp-4]
  0000a	2b 01		 sub	 eax, DWORD PTR [ecx]

; 364  : }

  0000c	c3		 ret	 0
??$__distance@PBD@_STL@@YAHABQBD0ABUrandom_access_iterator_tag@0@@Z ENDP ; _STL::__distance<char const *>
_TEXT	ENDS
PUBLIC	?_M_throw_length_error@?$_String_base@DV?$allocator@D@_STL@@@_STL@@QBEXXZ ; _STL::_String_base<char,_STL::allocator<char> >::_M_throw_length_error
PUBLIC	??_C@_0N@GOPDCEEB@basic_string?$AA@		; `string'
EXTRN	?__stl_throw_length_error@_STL@@YAXPBD@Z:NEAR	; _STL::__stl_throw_length_error
;	COMDAT ??_C@_0N@GOPDCEEB@basic_string?$AA@
; File c:\stlport-4.6.1\stlport\stl\_string.c
CONST	SEGMENT
??_C@_0N@GOPDCEEB@basic_string?$AA@ DB 'basic_string', 00H ; `string'
; Function compile flags: /Ogsy
CONST	ENDS
;	COMDAT ?_M_throw_length_error@?$_String_base@DV?$allocator@D@_STL@@@_STL@@QBEXXZ
_TEXT	SEGMENT
?_M_throw_length_error@?$_String_base@DV?$allocator@D@_STL@@@_STL@@QBEXXZ PROC NEAR ; _STL::_String_base<char,_STL::allocator<char> >::_M_throw_length_error, COMDAT
; _this$ = ecx

; 523  :     __stl_throw_length_error("basic_string");

  00000	68 00 00 00 00	 push	 OFFSET FLAT:??_C@_0N@GOPDCEEB@basic_string?$AA@
  00005	e8 00 00 00 00	 call	 ?__stl_throw_length_error@_STL@@YAXPBD@Z ; _STL::__stl_throw_length_error
  0000a	59		 pop	 ecx

; 524  : }

  0000b	c3		 ret	 0
?_M_throw_length_error@?$_String_base@DV?$allocator@D@_STL@@@_STL@@QBEXXZ ENDP ; _STL::_String_base<char,_STL::allocator<char> >::_M_throw_length_error
_TEXT	ENDS
PUBLIC	??$__distance@PAD@_STL@@YAHABQAD0ABUrandom_access_iterator_tag@0@@Z ; _STL::__distance<char *>
; Function compile flags: /Ogsy
; File c:\stlport-4.6.1\stlport\stl\_iterator_base.h
;	COMDAT ??$__distance@PAD@_STL@@YAHABQAD0ABUrandom_access_iterator_tag@0@@Z
_TEXT	SEGMENT
___first$ = 8						; size = 4
___last$ = 12						; size = 4
___formal$ = 16						; size = 4
??$__distance@PAD@_STL@@YAHABQAD0ABUrandom_access_iterator_tag@0@@Z PROC NEAR ; _STL::__distance<char *>, COMDAT

; 363  :   return __last - __first;

  00000	8b 44 24 08	 mov	 eax, DWORD PTR ___last$[esp-4]
  00004	8b 00		 mov	 eax, DWORD PTR [eax]
  00006	8b 4c 24 04	 mov	 ecx, DWORD PTR ___first$[esp-4]
  0000a	2b 01		 sub	 eax, DWORD PTR [ecx]

; 364  : }

  0000c	c3		 ret	 0
??$__distance@PAD@_STL@@YAHABQAD0ABUrandom_access_iterator_tag@0@@Z ENDP ; _STL::__distance<char *>
_TEXT	ENDS
PUBLIC	?_Ret@?$_BothPtrType@PADPAD@_STL@@SA?AU__true_type@2@XZ ; _STL::_BothPtrType<char *,char *>::_Ret
; Function compile flags: /Ogsy
; File c:\stlport-4.6.1\stlport\stl\type_traits.h
;	COMDAT ?_Ret@?$_BothPtrType@PADPAD@_STL@@SA?AU__true_type@2@XZ
_TEXT	SEGMENT
$T102672 = -1						; size = 1
?_Ret@?$_BothPtrType@PADPAD@_STL@@SA?AU__true_type@2@XZ PROC NEAR ; _STL::_BothPtrType<char *,char *>::_Ret, COMDAT

; 234  :   static __true_type _Ret() { return __true_type();} 

  00000	55		 push	 ebp
  00001	8b ec		 mov	 ebp, esp
  00003	51		 push	 ecx
  00004	57		 push	 edi
  00005	33 c0		 xor	 eax, eax
  00007	8d 7d ff	 lea	 edi, DWORD PTR $T102672[ebp]
  0000a	aa		 stosb
  0000b	8a 45 ff	 mov	 al, BYTE PTR $T102672[ebp]
  0000e	5f		 pop	 edi
  0000f	c9		 leave
  00010	c3		 ret	 0
?_Ret@?$_BothPtrType@PADPAD@_STL@@SA?AU__true_type@2@XZ ENDP ; _STL::_BothPtrType<char *,char *>::_Ret
_TEXT	ENDS
PUBLIC	?_Ret@?$_OKToMemCpy@DD@_STL@@SA?AU__true_type@2@XZ ; _STL::_OKToMemCpy<char,char>::_Ret
; Function compile flags: /Ogsy
;	COMDAT ?_Ret@?$_OKToMemCpy@DD@_STL@@SA?AU__true_type@2@XZ
_TEXT	SEGMENT
$T102675 = -1						; size = 1
?_Ret@?$_OKToMemCpy@DD@_STL@@SA?AU__true_type@2@XZ PROC NEAR ; _STL::_OKToMemCpy<char,char>::_Ret, COMDAT

; 361  :   static _Type _Ret() { return _Type(); }

  00000	55		 push	 ebp
  00001	8b ec		 mov	 ebp, esp
  00003	51		 push	 ecx
  00004	57		 push	 edi
  00005	33 c0		 xor	 eax, eax
  00007	8d 7d ff	 lea	 edi, DWORD PTR $T102675[ebp]
  0000a	aa		 stosb
  0000b	8a 45 ff	 mov	 al, BYTE PTR $T102675[ebp]
  0000e	5f		 pop	 edi
  0000f	c9		 leave
  00010	c3		 ret	 0
?_Ret@?$_OKToMemCpy@DD@_STL@@SA?AU__true_type@2@XZ ENDP	; _STL::_OKToMemCpy<char,char>::_Ret
_TEXT	ENDS
PUBLIC	??$_IsOKToMemCpy@DD@_STL@@YA?AU?$_OKToMemCpy@DD@0@PAD0@Z ; _STL::_IsOKToMemCpy<char,char>
; Function compile flags: /Ogsy
;	COMDAT ??$_IsOKToMemCpy@DD@_STL@@YA?AU?$_OKToMemCpy@DD@0@PAD0@Z
_TEXT	SEGMENT
$T102678 = -1						; size = 1
___formal$ = 8						; size = 4
___formal$ = 12						; size = 4
??$_IsOKToMemCpy@DD@_STL@@YA?AU?$_OKToMemCpy@DD@0@PAD0@Z PROC NEAR ; _STL::_IsOKToMemCpy<char,char>, COMDAT

; 365  : inline _OKToMemCpy<_Tp1, _Tp2> _IsOKToMemCpy(_Tp1*, _Tp2*)  {

  00000	55		 push	 ebp
  00001	8b ec		 mov	 ebp, esp
  00003	51		 push	 ecx
  00004	57		 push	 edi

; 366  :   return _OKToMemCpy<_Tp1, _Tp2>();

  00005	33 c0		 xor	 eax, eax
  00007	8d 7d ff	 lea	 edi, DWORD PTR $T102678[ebp]
  0000a	aa		 stosb
  0000b	8a 45 ff	 mov	 al, BYTE PTR $T102678[ebp]
  0000e	5f		 pop	 edi

; 367  : }

  0000f	c9		 leave
  00010	c3		 ret	 0
??$_IsOKToMemCpy@DD@_STL@@YA?AU?$_OKToMemCpy@DD@0@PAD0@Z ENDP ; _STL::_IsOKToMemCpy<char,char>
_TEXT	ENDS
PUBLIC	??$__copy_ptrs@PADPAD@_STL@@YAPADPAD00ABU__true_type@0@@Z ; _STL::__copy_ptrs<char *,char *>
; Function compile flags: /Ogsy
; File c:\stlport-4.6.1\stlport\stl\_algobase.h
;	COMDAT ??$__copy_ptrs@PADPAD@_STL@@YAPADPAD00ABU__true_type@0@@Z
_TEXT	SEGMENT
___first$ = 8						; size = 4
___last$ = 12						; size = 4
___result$ = 16						; size = 4
___formal$ = 20						; size = 4
??$__copy_ptrs@PADPAD@_STL@@YAPADPAD00ABU__true_type@0@@Z PROC NEAR ; _STL::__copy_ptrs<char *,char *>, COMDAT

; 195  : // we know they all pointers, so this cast is OK 
; 196  :   //  return (_OutputIter)__copy_trivial(&(*__first), &(*__last), &(*__result));
; 197  :   return (_OutputIter)__copy_trivial(__first, __last, __result);

  00000	ff 74 24 0c	 push	 DWORD PTR ___result$[esp-4]
  00004	ff 74 24 0c	 push	 DWORD PTR ___last$[esp]
  00008	ff 74 24 0c	 push	 DWORD PTR ___first$[esp+4]
  0000c	e8 00 00 00 00	 call	 ?__copy_trivial@_STL@@YAPAXPBX0PAX@Z ; _STL::__copy_trivial
  00011	83 c4 0c	 add	 esp, 12			; 0000000cH

; 198  : }

  00014	c3		 ret	 0
??$__copy_ptrs@PADPAD@_STL@@YAPADPAD00ABU__true_type@0@@Z ENDP ; _STL::__copy_ptrs<char *,char *>
_TEXT	ENDS
PUBLIC	??8_Rb_tree_base_iterator@_STL@@QBE_NABU01@@Z	; _STL::_Rb_tree_base_iterator::operator==
; Function compile flags: /Ogsy
; File c:\stlport-4.6.1\stlport\stl\_tree.h
;	COMDAT ??8_Rb_tree_base_iterator@_STL@@QBE_NABU01@@Z
_TEXT	SEGMENT
___y$ = 8						; size = 4
??8_Rb_tree_base_iterator@_STL@@QBE_NABU01@@Z PROC NEAR	; _STL::_Rb_tree_base_iterator::operator==, COMDAT
; _this$ = ecx

; 147  :     return _M_node == __y._M_node;

  00000	8b 01		 mov	 eax, DWORD PTR [ecx]
  00002	8b 4c 24 04	 mov	 ecx, DWORD PTR ___y$[esp-4]
  00006	2b 01		 sub	 eax, DWORD PTR [ecx]
  00008	f7 d8		 neg	 eax
  0000a	1b c0		 sbb	 eax, eax
  0000c	40		 inc	 eax

; 148  :   }

  0000d	c2 04 00	 ret	 4
??8_Rb_tree_base_iterator@_STL@@QBE_NABU01@@Z ENDP	; _STL::_Rb_tree_base_iterator::operator==
_TEXT	ENDS
PUBLIC	??9_Rb_tree_base_iterator@_STL@@QBE_NABU01@@Z	; _STL::_Rb_tree_base_iterator::operator!=
; Function compile flags: /Ogsy
;	COMDAT ??9_Rb_tree_base_iterator@_STL@@QBE_NABU01@@Z
_TEXT	SEGMENT
___y$ = 8						; size = 4
??9_Rb_tree_base_iterator@_STL@@QBE_NABU01@@Z PROC NEAR	; _STL::_Rb_tree_base_iterator::operator!=, COMDAT
; _this$ = ecx

; 150  :     return _M_node != __y._M_node;

  00000	8b 01		 mov	 eax, DWORD PTR [ecx]
  00002	8b 54 24 04	 mov	 edx, DWORD PTR ___y$[esp-4]
  00006	33 c9		 xor	 ecx, ecx
  00008	3b 02		 cmp	 eax, DWORD PTR [edx]
  0000a	0f 95 c1	 setne	 cl
  0000d	8a c1		 mov	 al, cl

; 151  :   }

  0000f	c2 04 00	 ret	 4
??9_Rb_tree_base_iterator@_STL@@QBE_NABU01@@Z ENDP	; _STL::_Rb_tree_base_iterator::operator!=
_TEXT	ENDS
PUBLIC	??0?$allocator@D@_STL@@QAE@XZ			; _STL::allocator<char>::allocator<char>
; Function compile flags: /Ogsy
; File c:\stlport-4.6.1\stlport\stl\_alloc.h
;	COMDAT ??0?$allocator@D@_STL@@QAE@XZ
_TEXT	SEGMENT
??0?$allocator@D@_STL@@QAE@XZ PROC NEAR			; _STL::allocator<char>::allocator<char>, COMDAT
; _this$ = ecx

; 345  :   allocator() _STLP_NOTHROW {}

  00000	8b c1		 mov	 eax, ecx
  00002	c3		 ret	 0
??0?$allocator@D@_STL@@QAE@XZ ENDP			; _STL::allocator<char>::allocator<char>
_TEXT	ENDS
PUBLIC	??1?$allocator@D@_STL@@QAE@XZ			; _STL::allocator<char>::~allocator<char>
; Function compile flags: /Ogsy
;	COMDAT ??1?$allocator@D@_STL@@QAE@XZ
_TEXT	SEGMENT
??1?$allocator@D@_STL@@QAE@XZ PROC NEAR			; _STL::allocator<char>::~allocator<char>, COMDAT
; _this$ = ecx

; 350  :   ~allocator() _STLP_NOTHROW {}

  00000	c3		 ret	 0
??1?$allocator@D@_STL@@QAE@XZ ENDP			; _STL::allocator<char>::~allocator<char>
_TEXT	ENDS
PUBLIC	??1?$_STLP_alloc_proxy@PADDV?$allocator@D@_STL@@@_STL@@QAE@XZ ; _STL::_STLP_alloc_proxy<char *,char,_STL::allocator<char> >::~_STLP_alloc_proxy<char *,char,_STL::allocator<char> >
; Function compile flags: /Ogsy
;	COMDAT ??1?$_STLP_alloc_proxy@PADDV?$allocator@D@_STL@@@_STL@@QAE@XZ
_TEXT	SEGMENT
??1?$_STLP_alloc_proxy@PADDV?$allocator@D@_STL@@@_STL@@QAE@XZ PROC NEAR ; _STL::_STLP_alloc_proxy<char *,char,_STL::allocator<char> >::~_STLP_alloc_proxy<char *,char,_STL::allocator<char> >, COMDAT
; _this$ = ecx
  00000	c3		 ret	 0
??1?$_STLP_alloc_proxy@PADDV?$allocator@D@_STL@@@_STL@@QAE@XZ ENDP ; _STL::_STLP_alloc_proxy<char *,char,_STL::allocator<char> >::~_STLP_alloc_proxy<char *,char,_STL::allocator<char> >
_TEXT	ENDS
PUBLIC	?allocate@?$__node_alloc@$00$0A@@_STL@@SAPAXI@Z	; _STL::__node_alloc<1,0>::allocate
EXTRN	?_M_allocate@?$__node_alloc@$00$0A@@_STL@@CAPAXI@Z:NEAR ; _STL::__node_alloc<1,0>::_M_allocate
; Function compile flags: /Ogsy
;	COMDAT ?allocate@?$__node_alloc@$00$0A@@_STL@@SAPAXI@Z
_TEXT	SEGMENT
___n$ = 8						; size = 4
?allocate@?$__node_alloc@$00$0A@@_STL@@SAPAXI@Z PROC NEAR ; _STL::__node_alloc<1,0>::allocate, COMDAT

; 251  :   static void * _STLP_CALL allocate(size_t __n) { return (__n > (size_t)_MAX_BYTES) ?  __stl_new(__n) : _M_allocate(__n); }

  00000	8b 44 24 04	 mov	 eax, DWORD PTR ___n$[esp-4]
  00004	3d 80 00 00 00	 cmp	 eax, 128		; 00000080H
  00009	50		 push	 eax
  0000a	76 07		 jbe	 SHORT $L102702
  0000c	e8 00 00 00 00	 call	 ??2@YAPAXI@Z		; operator new
  00011	59		 pop	 ecx
  00012	c3		 ret	 0
$L102702:
  00013	e8 00 00 00 00	 call	 ?_M_allocate@?$__node_alloc@$00$0A@@_STL@@CAPAXI@Z ; _STL::__node_alloc<1,0>::_M_allocate
  00018	59		 pop	 ecx
  00019	c3		 ret	 0
?allocate@?$__node_alloc@$00$0A@@_STL@@SAPAXI@Z ENDP	; _STL::__node_alloc<1,0>::allocate
_TEXT	ENDS
PUBLIC	?deallocate@?$__node_alloc@$00$0A@@_STL@@SAXPAXI@Z ; _STL::__node_alloc<1,0>::deallocate
EXTRN	?_M_deallocate@?$__node_alloc@$00$0A@@_STL@@CAXPAXI@Z:NEAR ; _STL::__node_alloc<1,0>::_M_deallocate
; Function compile flags: /Ogsy
;	COMDAT ?deallocate@?$__node_alloc@$00$0A@@_STL@@SAXPAXI@Z
_TEXT	SEGMENT
___p$ = 8						; size = 4
___n$ = 12						; size = 4
?deallocate@?$__node_alloc@$00$0A@@_STL@@SAXPAXI@Z PROC NEAR ; _STL::__node_alloc<1,0>::deallocate, COMDAT

; 253  :   static void _STLP_CALL deallocate(void *__p, size_t __n) { if (__n > (size_t)_MAX_BYTES) __stl_delete(__p); else _M_deallocate(__p, __n); }

  00000	81 7c 24 08 80
	00 00 00	 cmp	 DWORD PTR ___n$[esp-4], 128 ; 00000080H
  00008	76 0b		 jbe	 SHORT $L98677
  0000a	ff 74 24 04	 push	 DWORD PTR ___p$[esp-4]
  0000e	e8 00 00 00 00	 call	 ??3@YAXPAX@Z		; operator delete
  00013	59		 pop	 ecx
  00014	c3		 ret	 0
$L98677:
  00015	e9 00 00 00 00	 jmp	 ?_M_deallocate@?$__node_alloc@$00$0A@@_STL@@CAXPAXI@Z ; _STL::__node_alloc<1,0>::_M_deallocate
?deallocate@?$__node_alloc@$00$0A@@_STL@@SAXPAXI@Z ENDP	; _STL::__node_alloc<1,0>::deallocate
_TEXT	ENDS
PUBLIC	??$min@H@_STL@@YAABHABH0@Z			; _STL::min<int>
; Function compile flags: /Ogsy
; File c:\stlport-4.6.1\stlport\stl\_algobase.h
;	COMDAT ??$min@H@_STL@@YAABHABH0@Z
_TEXT	SEGMENT
___a$ = 8						; size = 4
___b$ = 12						; size = 4
??$min@H@_STL@@YAABHABH0@Z PROC NEAR			; _STL::min<int>, COMDAT

; 77   : inline const _Tp& (min)(const _Tp& __a, const _Tp& __b) { return __b < __a ? __b : __a; }

  00000	8b 44 24 08	 mov	 eax, DWORD PTR ___b$[esp-4]
  00004	8b 10		 mov	 edx, DWORD PTR [eax]
  00006	8b 4c 24 04	 mov	 ecx, DWORD PTR ___a$[esp-4]
  0000a	3b 11		 cmp	 edx, DWORD PTR [ecx]
  0000c	7c 02		 jl	 SHORT $L102719
  0000e	8b c1		 mov	 eax, ecx
$L102719:
  00010	c3		 ret	 0
??$min@H@_STL@@YAABHABH0@Z ENDP				; _STL::min<int>
_TEXT	ENDS
PUBLIC	?get_allocator@?$basic_string@DV?$char_traits@D@_STL@@V?$allocator@D@2@@_STL@@QBE?AV?$allocator@D@2@XZ ; _STL::basic_string<char,_STL::char_traits<char>,_STL::allocator<char> >::get_allocator
; Function compile flags: /Ogsy
; File c:\stlport-4.6.1\stlport\stl\_string.h
;	COMDAT ?get_allocator@?$basic_string@DV?$char_traits@D@_STL@@V?$allocator@D@2@@_STL@@QBE?AV?$allocator@D@2@XZ
_TEXT	SEGMENT
___$ReturnUdt$ = 8					; size = 4
?get_allocator@?$basic_string@DV?$char_traits@D@_STL@@V?$allocator@D@2@@_STL@@QBE?AV?$allocator@D@2@XZ PROC NEAR ; _STL::basic_string<char,_STL::char_traits<char>,_STL::allocator<char> >::get_allocator, COMDAT
; _this$ = ecx

; 216  :     return _STLP_CONVERT_ALLOCATOR((const allocator_type&)this->_M_end_of_storage, _CharT);

  00000	8b 44 24 04	 mov	 eax, DWORD PTR ___$ReturnUdt$[esp-4]

; 217  :   }

  00004	c2 04 00	 ret	 4
?get_allocator@?$basic_string@DV?$char_traits@D@_STL@@V?$allocator@D@2@@_STL@@QBE?AV?$allocator@D@2@XZ ENDP ; _STL::basic_string<char,_STL::char_traits<char>,_STL::allocator<char> >::get_allocator
_TEXT	ENDS
PUBLIC	?_M_terminate_string@?$basic_string@DV?$char_traits@D@_STL@@V?$allocator@D@2@@_STL@@AAEXXZ ; _STL::basic_string<char,_STL::char_traits<char>,_STL::allocator<char> >::_M_terminate_string
; Function compile flags: /Ogsy
;	COMDAT ?_M_terminate_string@?$basic_string@DV?$char_traits@D@_STL@@V?$allocator@D@2@@_STL@@AAEXXZ
_TEXT	SEGMENT
?_M_terminate_string@?$basic_string@DV?$char_traits@D@_STL@@V?$allocator@D@2@@_STL@@AAEXXZ PROC NEAR ; _STL::basic_string<char,_STL::char_traits<char>,_STL::allocator<char> >::_M_terminate_string, COMDAT
; _this$ = ecx

; 355  :     _M_terminate_string_aux(_Char_Is_Integral());

  00000	8b 41 04	 mov	 eax, DWORD PTR [ecx+4]
  00003	c6 00 00	 mov	 BYTE PTR [eax], 0

; 356  :   }

  00006	c3		 ret	 0
?_M_terminate_string@?$basic_string@DV?$char_traits@D@_STL@@V?$allocator@D@2@@_STL@@AAEXXZ ENDP ; _STL::basic_string<char,_STL::char_traits<char>,_STL::allocator<char> >::_M_terminate_string
_TEXT	ENDS
PUBLIC	?allocate@?$allocator@D@_STL@@QAEPADIPBX@Z	; _STL::allocator<char>::allocate
; Function compile flags: /Ogsy
; File c:\stlport-4.6.1\stlport\stl\_alloc.h
;	COMDAT ?allocate@?$allocator@D@_STL@@QAEPADIPBX@Z
_TEXT	SEGMENT
___n$ = 8						; size = 4
___formal$ = 12						; size = 4
?allocate@?$allocator@D@_STL@@QAEPADIPBX@Z PROC NEAR	; _STL::allocator<char>::allocate, COMDAT
; _this$ = ecx

; 355  :     return __n != 0 ? __REINTERPRET_CAST(value_type*,__sgi_alloc::allocate(__n * sizeof(value_type))) : 0;

  00000	33 c0		 xor	 eax, eax
  00002	39 44 24 04	 cmp	 DWORD PTR ___n$[esp-4], eax
  00006	74 0a		 je	 SHORT $L102734
  00008	ff 74 24 04	 push	 DWORD PTR ___n$[esp-4]
  0000c	e8 00 00 00 00	 call	 ?allocate@?$__node_alloc@$00$0A@@_STL@@SAPAXI@Z ; _STL::__node_alloc<1,0>::allocate
  00011	59		 pop	 ecx
$L102734:

; 356  :   }

  00012	c2 08 00	 ret	 8
?allocate@?$allocator@D@_STL@@QAEPADIPBX@Z ENDP		; _STL::allocator<char>::allocate
_TEXT	ENDS
PUBLIC	??0?$_STLP_alloc_proxy@PADDV?$allocator@D@_STL@@@_STL@@QAE@ABV?$allocator@D@1@PAD@Z ; _STL::_STLP_alloc_proxy<char *,char,_STL::allocator<char> >::_STLP_alloc_proxy<char *,char,_STL::allocator<char> >
; Function compile flags: /Ogsy
;	COMDAT ??0?$_STLP_alloc_proxy@PADDV?$allocator@D@_STL@@@_STL@@QAE@ABV?$allocator@D@1@PAD@Z
_TEXT	SEGMENT
___a$ = 8						; size = 4
___p$ = 12						; size = 4
??0?$_STLP_alloc_proxy@PADDV?$allocator@D@_STL@@@_STL@@QAE@ABV?$allocator@D@1@PAD@Z PROC NEAR ; _STL::_STLP_alloc_proxy<char *,char,_STL::allocator<char> >::_STLP_alloc_proxy<char *,char,_STL::allocator<char> >, COMDAT
; _this$ = ecx

; 487  :   inline _STLP_alloc_proxy(const _MaybeReboundAlloc& __a, _Value __p) : _MaybeReboundAlloc(__a), _M_data(__p) {}

  00000	8b c1		 mov	 eax, ecx
  00002	8b 4c 24 08	 mov	 ecx, DWORD PTR ___p$[esp-4]
  00006	89 08		 mov	 DWORD PTR [eax], ecx
  00008	c2 08 00	 ret	 8
??0?$_STLP_alloc_proxy@PADDV?$allocator@D@_STL@@@_STL@@QAE@ABV?$allocator@D@1@PAD@Z ENDP ; _STL::_STLP_alloc_proxy<char *,char,_STL::allocator<char> >::_STLP_alloc_proxy<char *,char,_STL::allocator<char> >
_TEXT	ENDS
PUBLIC	?key_comp@?$map@V?$basic_string@DV?$char_traits@D@_STL@@V?$allocator@D@2@@_STL@@KU?$less@V?$basic_string@DV?$char_traits@D@_STL@@V?$allocator@D@2@@_STL@@@2@V?$allocator@U?$pair@$$CBV?$basic_string@DV?$char_traits@D@_STL@@V?$allocator@D@2@@_STL@@K@_STL@@@2@@_STL@@QBE?AU?$less@V?$basic_string@DV?$char_traits@D@_STL@@V?$allocator@D@2@@_STL@@@2@XZ ; _STL::map<_STL::basic_string<char,_STL::char_traits<char>,_STL::allocator<char> >,unsigned long,_STL::less<_STL::basic_string<char,_STL::char_traits<char>,_STL::allocator<char> > >,_STL::allocator<_STL::pair<_STL::basic_string<char,_STL::char_traits<char>,_STL::allocator<char> > const ,unsigned long> > >::key_comp
; Function compile flags: /Ogsy
; File c:\stlport-4.6.1\stlport\stl\_map.h
;	COMDAT ?key_comp@?$map@V?$basic_string@DV?$char_traits@D@_STL@@V?$allocator@D@2@@_STL@@KU?$less@V?$basic_string@DV?$char_traits@D@_STL@@V?$allocator@D@2@@_STL@@@2@V?$allocator@U?$pair@$$CBV?$basic_string@DV?$char_traits@D@_STL@@V?$allocator@D@2@@_STL@@K@_STL@@@2@@_STL@@QBE?AU?$less@V?$basic_string@DV?$char_traits@D@_STL@@V?$allocator@D@2@@_STL@@@2@XZ
_TEXT	SEGMENT
___$ReturnUdt$ = 8					; size = 4
?key_comp@?$map@V?$basic_string@DV?$char_traits@D@_STL@@V?$allocator@D@2@@_STL@@KU?$less@V?$basic_string@DV?$char_traits@D@_STL@@V?$allocator@D@2@@_STL@@@2@V?$allocator@U?$pair@$$CBV?$basic_string@DV?$char_traits@D@_STL@@V?$allocator@D@2@@_STL@@K@_STL@@@2@@_STL@@QBE?AU?$less@V?$basic_string@DV?$char_traits@D@_STL@@V?$allocator@D@2@@_STL@@@2@XZ PROC NEAR ; _STL::map<_STL::basic_string<char,_STL::char_traits<char>,_STL::allocator<char> >,unsigned long,_STL::less<_STL::basic_string<char,_STL::char_traits<char>,_STL::allocator<char> > >,_STL::allocator<_STL::pair<_STL::basic_string<char,_STL::char_traits<char>,_STL::allocator<char> > const ,unsigned long> > >::key_comp, COMDAT
; _this$ = ecx

; 143  :   key_compare key_comp() const { return _M_t.key_comp(); }

  00000	8b 44 24 04	 mov	 eax, DWORD PTR ___$ReturnUdt$[esp-4]
  00004	c2 04 00	 ret	 4
?key_comp@?$map@V?$basic_string@DV?$char_traits@D@_STL@@V?$allocator@D@2@@_STL@@KU?$less@V?$basic_string@DV?$char_traits@D@_STL@@V?$allocator@D@2@@_STL@@@2@V?$allocator@U?$pair@$$CBV?$basic_string@DV?$char_traits@D@_STL@@V?$allocator@D@2@@_STL@@K@_STL@@@2@@_STL@@QBE?AU?$less@V?$basic_string@DV?$char_traits@D@_STL@@V?$allocator@D@2@@_STL@@@2@XZ ENDP ; _STL::map<_STL::basic_string<char,_STL::char_traits<char>,_STL::allocator<char> >,unsigned long,_STL::less<_STL::basic_string<char,_STL::char_traits<char>,_STL::allocator<char> > >,_STL::allocator<_STL::pair<_STL::basic_string<char,_STL::char_traits<char>,_STL::allocator<char> > const ,unsigned long> > >::key_comp
_TEXT	ENDS
PUBLIC	?end@?$_Rb_tree@V?$basic_string@DV?$char_traits@D@_STL@@V?$allocator@D@2@@_STL@@U?$pair@$$CBV?$basic_string@DV?$char_traits@D@_STL@@V?$allocator@D@2@@_STL@@K@2@U?$_Select1st@U?$pair@$$CBV?$basic_string@DV?$char_traits@D@_STL@@V?$allocator@D@2@@_STL@@K@_STL@@@2@U?$less@V?$basic_string@DV?$char_traits@D@_STL@@V?$allocator@D@2@@_STL@@@2@V?$allocator@U?$pair@$$CBV?$basic_string@DV?$char_traits@D@_STL@@V?$allocator@D@2@@_STL@@K@_STL@@@2@@_STL@@QAE?AU?$_Rb_tree_iterator@U?$pair@$$CBV?$basic_string@DV?$char_traits@D@_STL@@V?$allocator@D@2@@_STL@@K@_STL@@U?$_Nonconst_traits@U?$pair@$$CBV?$basic_string@DV?$char_traits@D@_STL@@V?$allocator@D@2@@_STL@@K@_STL@@@2@@2@XZ ; _STL::_Rb_tree<_STL::basic_string<char,_STL::char_traits<char>,_STL::allocator<char> >,_STL::pair<_STL::basic_string<char,_STL::char_traits<char>,_STL::allocator<char> > const ,unsigned long>,_STL::_Select1st<_STL::pair<_STL::basic_string<char,_STL::char_traits<char>,_STL::allocator<char> > const ,unsigned long> >,_STL::less<_STL::basic_string<char,_STL::char_traits<char>,_STL::allocator<char> > >,_STL::allocator<_STL::pair<_STL::basic_string<char,_STL::char_traits<char>,_STL::allocator<char> > const ,unsigned long> > >::end
; Function compile flags: /Ogsy
; File c:\stlport-4.6.1\stlport\stl\_tree.h
;	COMDAT ?end@?$_Rb_tree@V?$basic_string@DV?$char_traits@D@_STL@@V?$allocator@D@2@@_STL@@U?$pair@$$CBV?$basic_string@DV?$char_traits@D@_STL@@V?$allocator@D@2@@_STL@@K@2@U?$_Select1st@U?$pair@$$CBV?$basic_string@DV?$char_traits@D@_STL@@V?$allocator@D@2@@_STL@@K@_STL@@@2@U?$less@V?$basic_string@DV?$char_traits@D@_STL@@V?$allocator@D@2@@_STL@@@2@V?$allocator@U?$pair@$$CBV?$basic_string@DV?$char_traits@D@_STL@@V?$allocator@D@2@@_STL@@K@_STL@@@2@@_STL@@QAE?AU?$_Rb_tree_iterator@U?$pair@$$CBV?$basic_string@DV?$char_traits@D@_STL@@V?$allocator@D@2@@_STL@@K@_STL@@U?$_Nonconst_traits@U?$pair@$$CBV?$basic_string@DV?$char_traits@D@_STL@@V?$allocator@D@2@@_STL@@K@_STL@@@2@@2@XZ
_TEXT	SEGMENT
___$ReturnUdt$ = 8					; size = 4
?end@?$_Rb_tree@V?$basic_string@DV?$char_traits@D@_STL@@V?$allocator@D@2@@_STL@@U?$pair@$$CBV?$basic_string@DV?$char_traits@D@_STL@@V?$allocator@D@2@@_STL@@K@2@U?$_Select1st@U?$pair@$$CBV?$basic_string@DV?$char_traits@D@_STL@@V?$allocator@D@2@@_STL@@K@_STL@@@2@U?$less@V?$basic_string@DV?$char_traits@D@_STL@@V?$allocator@D@2@@_STL@@@2@V?$allocator@U?$pair@$$CBV?$basic_string@DV?$char_traits@D@_STL@@V?$allocator@D@2@@_STL@@K@_STL@@@2@@_STL@@QAE?AU?$_Rb_tree_iterator@U?$pair@$$CBV?$basic_string@DV?$char_traits@D@_STL@@V?$allocator@D@2@@_STL@@K@_STL@@U?$_Nonconst_traits@U?$pair@$$CBV?$basic_string@DV?$char_traits@D@_STL@@V?$allocator@D@2@@_STL@@K@_STL@@@2@@2@XZ PROC NEAR ; _STL::_Rb_tree<_STL::basic_string<char,_STL::char_traits<char>,_STL::allocator<char> >,_STL::pair<_STL::basic_string<char,_STL::char_traits<char>,_STL::allocator<char> > const ,unsigned long>,_STL::_Select1st<_STL::pair<_STL::basic_string<char,_STL::char_traits<char>,_STL::allocator<char> > const ,unsigned long> >,_STL::less<_STL::basic_string<char,_STL::char_traits<char>,_STL::allocator<char> > >,_STL::allocator<_STL::pair<_STL::basic_string<char,_STL::char_traits<char>,_STL::allocator<char> > const ,unsigned long> > >::end, COMDAT
; _this$ = ecx

; 359  :   iterator end() { return iterator(this->_M_header._M_data); }

  00000	8b 09		 mov	 ecx, DWORD PTR [ecx]
  00002	8b 44 24 04	 mov	 eax, DWORD PTR ___$ReturnUdt$[esp-4]
  00006	89 08		 mov	 DWORD PTR [eax], ecx
  00008	c2 04 00	 ret	 4
?end@?$_Rb_tree@V?$basic_string@DV?$char_traits@D@_STL@@V?$allocator@D@2@@_STL@@U?$pair@$$CBV?$basic_string@DV?$char_traits@D@_STL@@V?$allocator@D@2@@_STL@@K@2@U?$_Select1st@U?$pair@$$CBV?$basic_string@DV?$char_traits@D@_STL@@V?$allocator@D@2@@_STL@@K@_STL@@@2@U?$less@V?$basic_string@DV?$char_traits@D@_STL@@V?$allocator@D@2@@_STL@@@2@V?$allocator@U?$pair@$$CBV?$basic_string@DV?$char_traits@D@_STL@@V?$allocator@D@2@@_STL@@K@_STL@@@2@@_STL@@QAE?AU?$_Rb_tree_iterator@U?$pair@$$CBV?$basic_string@DV?$char_traits@D@_STL@@V?$allocator@D@2@@_STL@@K@_STL@@U?$_Nonconst_traits@U?$pair@$$CBV?$basic_string@DV?$char_traits@D@_STL@@V?$allocator@D@2@@_STL@@K@_STL@@@2@@2@XZ ENDP ; _STL::_Rb_tree<_STL::basic_string<char,_STL::char_traits<char>,_STL::allocator<char> >,_STL::pair<_STL::basic_string<char,_STL::char_traits<char>,_STL::allocator<char> > const ,unsigned long>,_STL::_Select1st<_STL::pair<_STL::basic_string<char,_STL::char_traits<char>,_STL::allocator<char> > const ,unsigned long> >,_STL::less<_STL::basic_string<char,_STL::char_traits<char>,_STL::allocator<char> > >,_STL::allocator<_STL::pair<_STL::basic_string<char,_STL::char_traits<char>,_STL::allocator<char> > const ,unsigned long> > >::end
_TEXT	ENDS
PUBLIC	?end@?$_Rb_tree@V?$basic_string@DV?$char_traits@D@_STL@@V?$allocator@D@2@@_STL@@U?$pair@$$CBV?$basic_string@DV?$char_traits@D@_STL@@V?$allocator@D@2@@_STL@@K@2@U?$_Select1st@U?$pair@$$CBV?$basic_string@DV?$char_traits@D@_STL@@V?$allocator@D@2@@_STL@@K@_STL@@@2@U?$less@V?$basic_string@DV?$char_traits@D@_STL@@V?$allocator@D@2@@_STL@@@2@V?$allocator@U?$pair@$$CBV?$basic_string@DV?$char_traits@D@_STL@@V?$allocator@D@2@@_STL@@K@_STL@@@2@@_STL@@QBE?AU?$_Rb_tree_iterator@U?$pair@$$CBV?$basic_string@DV?$char_traits@D@_STL@@V?$allocator@D@2@@_STL@@K@_STL@@U?$_Const_traits@U?$pair@$$CBV?$basic_string@DV?$char_traits@D@_STL@@V?$allocator@D@2@@_STL@@K@_STL@@@2@@2@XZ ; _STL::_Rb_tree<_STL::basic_string<char,_STL::char_traits<char>,_STL::allocator<char> >,_STL::pair<_STL::basic_string<char,_STL::char_traits<char>,_STL::allocator<char> > const ,unsigned long>,_STL::_Select1st<_STL::pair<_STL::basic_string<char,_STL::char_traits<char>,_STL::allocator<char> > const ,unsigned long> >,_STL::less<_STL::basic_string<char,_STL::char_traits<char>,_STL::allocator<char> > >,_STL::allocator<_STL::pair<_STL::basic_string<char,_STL::char_traits<char>,_STL::allocator<char> > const ,unsigned long> > >::end
; Function compile flags: /Ogsy
;	COMDAT ?end@?$_Rb_tree@V?$basic_string@DV?$char_traits@D@_STL@@V?$allocator@D@2@@_STL@@U?$pair@$$CBV?$basic_string@DV?$char_traits@D@_STL@@V?$allocator@D@2@@_STL@@K@2@U?$_Select1st@U?$pair@$$CBV?$basic_string@DV?$char_traits@D@_STL@@V?$allocator@D@2@@_STL@@K@_STL@@@2@U?$less@V?$basic_string@DV?$char_traits@D@_STL@@V?$allocator@D@2@@_STL@@@2@V?$allocator@U?$pair@$$CBV?$basic_string@DV?$char_traits@D@_STL@@V?$allocator@D@2@@_STL@@K@_STL@@@2@@_STL@@QBE?AU?$_Rb_tree_iterator@U?$pair@$$CBV?$basic_string@DV?$char_traits@D@_STL@@V?$allocator@D@2@@_STL@@K@_STL@@U?$_Const_traits@U?$pair@$$CBV?$basic_string@DV?$char_traits@D@_STL@@V?$allocator@D@2@@_STL@@K@_STL@@@2@@2@XZ
_TEXT	SEGMENT
___$ReturnUdt$ = 8					; size = 4
?end@?$_Rb_tree@V?$basic_string@DV?$char_traits@D@_STL@@V?$allocator@D@2@@_STL@@U?$pair@$$CBV?$basic_string@DV?$char_traits@D@_STL@@V?$allocator@D@2@@_STL@@K@2@U?$_Select1st@U?$pair@$$CBV?$basic_string@DV?$char_traits@D@_STL@@V?$allocator@D@2@@_STL@@K@_STL@@@2@U?$less@V?$basic_string@DV?$char_traits@D@_STL@@V?$allocator@D@2@@_STL@@@2@V?$allocator@U?$pair@$$CBV?$basic_string@DV?$char_traits@D@_STL@@V?$allocator@D@2@@_STL@@K@_STL@@@2@@_STL@@QBE?AU?$_Rb_tree_iterator@U?$pair@$$CBV?$basic_string@DV?$char_traits@D@_STL@@V?$allocator@D@2@@_STL@@K@_STL@@U?$_Const_traits@U?$pair@$$CBV?$basic_string@DV?$char_traits@D@_STL@@V?$allocator@D@2@@_STL@@K@_STL@@@2@@2@XZ PROC NEAR ; _STL::_Rb_tree<_STL::basic_string<char,_STL::char_traits<char>,_STL::allocator<char> >,_STL::pair<_STL::basic_string<char,_STL::char_traits<char>,_STL::allocator<char> > const ,unsigned long>,_STL::_Select1st<_STL::pair<_STL::basic_string<char,_STL::char_traits<char>,_STL::allocator<char> > const ,unsigned long> >,_STL::less<_STL::basic_string<char,_STL::char_traits<char>,_STL::allocator<char> > >,_STL::allocator<_STL::pair<_STL::basic_string<char,_STL::char_traits<char>,_STL::allocator<char> > const ,unsigned long> > >::end, COMDAT
; _this$ = ecx

; 360  :   const_iterator end() const { return const_iterator(this->_M_header._M_data); }

  00000	8b 09		 mov	 ecx, DWORD PTR [ecx]
  00002	8b 44 24 04	 mov	 eax, DWORD PTR ___$ReturnUdt$[esp-4]
  00006	89 08		 mov	 DWORD PTR [eax], ecx
  00008	c2 04 00	 ret	 4
?end@?$_Rb_tree@V?$basic_string@DV?$char_traits@D@_STL@@V?$allocator@D@2@@_STL@@U?$pair@$$CBV?$basic_string@DV?$char_traits@D@_STL@@V?$allocator@D@2@@_STL@@K@2@U?$_Select1st@U?$pair@$$CBV?$basic_string@DV?$char_traits@D@_STL@@V?$allocator@D@2@@_STL@@K@_STL@@@2@U?$less@V?$basic_string@DV?$char_traits@D@_STL@@V?$allocator@D@2@@_STL@@@2@V?$allocator@U?$pair@$$CBV?$basic_string@DV?$char_traits@D@_STL@@V?$allocator@D@2@@_STL@@K@_STL@@@2@@_STL@@QBE?AU?$_Rb_tree_iterator@U?$pair@$$CBV?$basic_string@DV?$char_traits@D@_STL@@V?$allocator@D@2@@_STL@@K@_STL@@U?$_Const_traits@U?$pair@$$CBV?$basic_string@DV?$char_traits@D@_STL@@V?$allocator@D@2@@_STL@@K@_STL@@@2@@2@XZ ENDP ; _STL::_Rb_tree<_STL::basic_string<char,_STL::char_traits<char>,_STL::allocator<char> >,_STL::pair<_STL::basic_string<char,_STL::char_traits<char>,_STL::allocator<char> > const ,unsigned long>,_STL::_Select1st<_STL::pair<_STL::basic_string<char,_STL::char_traits<char>,_STL::allocator<char> > const ,unsigned long> >,_STL::less<_STL::basic_string<char,_STL::char_traits<char>,_STL::allocator<char> > >,_STL::allocator<_STL::pair<_STL::basic_string<char,_STL::char_traits<char>,_STL::allocator<char> > const ,unsigned long> > >::end
_TEXT	ENDS
PUBLIC	??1?$_STLP_alloc_proxy@PAU?$_Rb_tree_node@U?$pair@$$CBV?$basic_string@DV?$char_traits@D@_STL@@V?$allocator@D@2@@_STL@@K@_STL@@@_STL@@U12@V?$allocator@U?$_Rb_tree_node@U?$pair@$$CBV?$basic_string@DV?$char_traits@D@_STL@@V?$allocator@D@2@@_STL@@K@_STL@@@_STL@@@2@@_STL@@QAE@XZ ; _STL::_STLP_alloc_proxy<_STL::_Rb_tree_node<_STL::pair<_STL::basic_string<char,_STL::char_traits<char>,_STL::allocator<char> > const ,unsigned long> > *,_STL::_Rb_tree_node<_STL::pair<_STL::basic_string<char,_STL::char_traits<char>,_STL::allocator<char> > const ,unsigned long> >,_STL::allocator<_STL::_Rb_tree_node<_STL::pair<_STL::basic_string<char,_STL::char_traits<char>,_STL::allocator<char> > const ,unsigned long> > > >::~_STLP_alloc_proxy<_STL::_Rb_tree_node<_STL::pair<_STL::basic_string<char,_STL::char_traits<char>,_STL::allocator<char> > const ,unsigned long> > *,_STL::_Rb_tree_node<_STL::pair<_STL::basic_string<char,_STL::char_traits<char>,_STL::allocator<char> > const ,unsigned long> >,_STL::allocator<_STL::_Rb_tree_node<_STL::pair<_STL::basic_string<char,_STL::char_traits<char>,_STL::allocator<char> > const ,unsigned long> > > >
; Function compile flags: /Ogsy
;	COMDAT ??1?$_STLP_alloc_proxy@PAU?$_Rb_tree_node@U?$pair@$$CBV?$basic_string@DV?$char_traits@D@_STL@@V?$allocator@D@2@@_STL@@K@_STL@@@_STL@@U12@V?$allocator@U?$_Rb_tree_node@U?$pair@$$CBV?$basic_string@DV?$char_traits@D@_STL@@V?$allocator@D@2@@_STL@@K@_STL@@@_STL@@@2@@_STL@@QAE@XZ
_TEXT	SEGMENT
??1?$_STLP_alloc_proxy@PAU?$_Rb_tree_node@U?$pair@$$CBV?$basic_string@DV?$char_traits@D@_STL@@V?$allocator@D@2@@_STL@@K@_STL@@@_STL@@U12@V?$allocator@U?$_Rb_tree_node@U?$pair@$$CBV?$basic_string@DV?$char_traits@D@_STL@@V?$allocator@D@2@@_STL@@K@_STL@@@_STL@@@2@@_STL@@QAE@XZ PROC NEAR ; _STL::_STLP_alloc_proxy<_STL::_Rb_tree_node<_STL::pair<_STL::basic_string<char,_STL::char_traits<char>,_STL::allocator<char> > const ,unsigned long> > *,_STL::_Rb_tree_node<_STL::pair<_STL::basic_string<char,_STL::char_traits<char>,_STL::allocator<char> > const ,unsigned long> >,_STL::allocator<_STL::_Rb_tree_node<_STL::pair<_STL::basic_string<char,_STL::char_traits<char>,_STL::allocator<char> > const ,unsigned long> > > >::~_STLP_alloc_proxy<_STL::_Rb_tree_node<_STL::pair<_STL::basic_string<char,_STL::char_traits<char>,_STL::allocator<char> > const ,unsigned long> > *,_STL::_Rb_tree_node<_STL::pair<_STL::basic_string<char,_STL::char_traits<char>,_STL::allocator<char> > const ,unsigned long> >,_STL::allocator<_STL::_Rb_tree_node<_STL::pair<_STL::basic_string<char,_STL::char_traits<char>,_STL::allocator<char> > const ,unsigned long> > > >, COMDAT
; _this$ = ecx
  00000	c3		 ret	 0
??1?$_STLP_alloc_proxy@PAU?$_Rb_tree_node@U?$pair@$$CBV?$basic_string@DV?$char_traits@D@_STL@@V?$allocator@D@2@@_STL@@K@_STL@@@_STL@@U12@V?$allocator@U?$_Rb_tree_node@U?$pair@$$CBV?$basic_string@DV?$char_traits@D@_STL@@V?$allocator@D@2@@_STL@@K@_STL@@@_STL@@@2@@_STL@@QAE@XZ ENDP ; _STL::_STLP_alloc_proxy<_STL::_Rb_tree_node<_STL::pair<_STL::basic_string<char,_STL::char_traits<char>,_STL::allocator<char> > const ,unsigned long> > *,_STL::_Rb_tree_node<_STL::pair<_STL::basic_string<char,_STL::char_traits<char>,_STL::allocator<char> > const ,unsigned long> >,_STL::allocator<_STL::_Rb_tree_node<_STL::pair<_STL::basic_string<char,_STL::char_traits<char>,_STL::allocator<char> > const ,unsigned long> > > >::~_STLP_alloc_proxy<_STL::_Rb_tree_node<_STL::pair<_STL::basic_string<char,_STL::char_traits<char>,_STL::allocator<char> > const ,unsigned long> > *,_STL::_Rb_tree_node<_STL::pair<_STL::basic_string<char,_STL::char_traits<char>,_STL::allocator<char> > const ,unsigned long> >,_STL::allocator<_STL::_Rb_tree_node<_STL::pair<_STL::basic_string<char,_STL::char_traits<char>,_STL::allocator<char> > const ,unsigned long> > > >
_TEXT	ENDS
PUBLIC	?_M_empty_initialize@?$_Rb_tree@V?$basic_string@DV?$char_traits@D@_STL@@V?$allocator@D@2@@_STL@@U?$pair@$$CBV?$basic_string@DV?$char_traits@D@_STL@@V?$allocator@D@2@@_STL@@K@2@U?$_Select1st@U?$pair@$$CBV?$basic_string@DV?$char_traits@D@_STL@@V?$allocator@D@2@@_STL@@K@_STL@@@2@U?$less@V?$basic_string@DV?$char_traits@D@_STL@@V?$allocator@D@2@@_STL@@@2@V?$allocator@U?$pair@$$CBV?$basic_string@DV?$char_traits@D@_STL@@V?$allocator@D@2@@_STL@@K@_STL@@@2@@_STL@@AAEXXZ ; _STL::_Rb_tree<_STL::basic_string<char,_STL::char_traits<char>,_STL::allocator<char> >,_STL::pair<_STL::basic_string<char,_STL::char_traits<char>,_STL::allocator<char> > const ,unsigned long>,_STL::_Select1st<_STL::pair<_STL::basic_string<char,_STL::char_traits<char>,_STL::allocator<char> > const ,unsigned long> >,_STL::less<_STL::basic_string<char,_STL::char_traits<char>,_STL::allocator<char> > >,_STL::allocator<_STL::pair<_STL::basic_string<char,_STL::char_traits<char>,_STL::allocator<char> > const ,unsigned long> > >::_M_empty_initialize
; Function compile flags: /Ogsy
;	COMDAT ?_M_empty_initialize@?$_Rb_tree@V?$basic_string@DV?$char_traits@D@_STL@@V?$allocator@D@2@@_STL@@U?$pair@$$CBV?$basic_string@DV?$char_traits@D@_STL@@V?$allocator@D@2@@_STL@@K@2@U?$_Select1st@U?$pair@$$CBV?$basic_string@DV?$char_traits@D@_STL@@V?$allocator@D@2@@_STL@@K@_STL@@@2@U?$less@V?$basic_string@DV?$char_traits@D@_STL@@V?$allocator@D@2@@_STL@@@2@V?$allocator@U?$pair@$$CBV?$basic_string@DV?$char_traits@D@_STL@@V?$allocator@D@2@@_STL@@K@_STL@@@2@@_STL@@AAEXXZ
_TEXT	SEGMENT
?_M_empty_initialize@?$_Rb_tree@V?$basic_string@DV?$char_traits@D@_STL@@V?$allocator@D@2@@_STL@@U?$pair@$$CBV?$basic_string@DV?$char_traits@D@_STL@@V?$allocator@D@2@@_STL@@K@2@U?$_Select1st@U?$pair@$$CBV?$basic_string@DV?$char_traits@D@_STL@@V?$allocator@D@2@@_STL@@K@_STL@@@2@U?$less@V?$basic_string@DV?$char_traits@D@_STL@@V?$allocator@D@2@@_STL@@@2@V?$allocator@U?$pair@$$CBV?$basic_string@DV?$char_traits@D@_STL@@V?$allocator@D@2@@_STL@@K@_STL@@@2@@_STL@@AAEXXZ PROC NEAR ; _STL::_Rb_tree<_STL::basic_string<char,_STL::char_traits<char>,_STL::allocator<char> >,_STL::pair<_STL::basic_string<char,_STL::char_traits<char>,_STL::allocator<char> > const ,unsigned long>,_STL::_Select1st<_STL::pair<_STL::basic_string<char,_STL::char_traits<char>,_STL::allocator<char> > const ,unsigned long> >,_STL::less<_STL::basic_string<char,_STL::char_traits<char>,_STL::allocator<char> > >,_STL::allocator<_STL::pair<_STL::basic_string<char,_STL::char_traits<char>,_STL::allocator<char> > const ,unsigned long> > >::_M_empty_initialize, COMDAT
; _this$ = ecx

; 346  :     _S_color(this->_M_header._M_data) = _S_rb_tree_red; // used to distinguish header from 

  00000	8b 01		 mov	 eax, DWORD PTR [ecx]
  00002	c6 00 00	 mov	 BYTE PTR [eax], 0

; 347  :                                           // __root, in iterator.operator++
; 348  :     _M_root() = 0;

  00005	8b 01		 mov	 eax, DWORD PTR [ecx]
  00007	83 60 04 00	 and	 DWORD PTR [eax+4], 0

; 349  :     _M_leftmost() = this->_M_header._M_data;

  0000b	8b 01		 mov	 eax, DWORD PTR [ecx]
  0000d	89 40 08	 mov	 DWORD PTR [eax+8], eax

; 350  :     _M_rightmost() = this->_M_header._M_data;

  00010	8b 09		 mov	 ecx, DWORD PTR [ecx]
  00012	89 49 0c	 mov	 DWORD PTR [ecx+12], ecx

; 351  :   }

  00015	c3		 ret	 0
?_M_empty_initialize@?$_Rb_tree@V?$basic_string@DV?$char_traits@D@_STL@@V?$allocator@D@2@@_STL@@U?$pair@$$CBV?$basic_string@DV?$char_traits@D@_STL@@V?$allocator@D@2@@_STL@@K@2@U?$_Select1st@U?$pair@$$CBV?$basic_string@DV?$char_traits@D@_STL@@V?$allocator@D@2@@_STL@@K@_STL@@@2@U?$less@V?$basic_string@DV?$char_traits@D@_STL@@V?$allocator@D@2@@_STL@@@2@V?$allocator@U?$pair@$$CBV?$basic_string@DV?$char_traits@D@_STL@@V?$allocator@D@2@@_STL@@K@_STL@@@2@@_STL@@AAEXXZ ENDP ; _STL::_Rb_tree<_STL::basic_string<char,_STL::char_traits<char>,_STL::allocator<char> >,_STL::pair<_STL::basic_string<char,_STL::char_traits<char>,_STL::allocator<char> > const ,unsigned long>,_STL::_Select1st<_STL::pair<_STL::basic_string<char,_STL::char_traits<char>,_STL::allocator<char> > const ,unsigned long> >,_STL::less<_STL::basic_string<char,_STL::char_traits<char>,_STL::allocator<char> > >,_STL::allocator<_STL::pair<_STL::basic_string<char,_STL::char_traits<char>,_STL::allocator<char> > const ,unsigned long> > >::_M_empty_initialize
_TEXT	ENDS
PUBLIC	?deallocate@?$allocator@U?$_Rb_tree_node@U?$pair@$$CBV?$basic_string@DV?$char_traits@D@_STL@@V?$allocator@D@2@@_STL@@K@_STL@@@_STL@@@_STL@@QAEXPAU?$_Rb_tree_node@U?$pair@$$CBV?$basic_string@DV?$char_traits@D@_STL@@V?$allocator@D@2@@_STL@@K@_STL@@@2@I@Z ; _STL::allocator<_STL::_Rb_tree_node<_STL::pair<_STL::basic_string<char,_STL::char_traits<char>,_STL::allocator<char> > const ,unsigned long> > >::deallocate
; Function compile flags: /Ogsy
; File c:\stlport-4.6.1\stlport\stl\_alloc.h
;	COMDAT ?deallocate@?$allocator@U?$_Rb_tree_node@U?$pair@$$CBV?$basic_string@DV?$char_traits@D@_STL@@V?$allocator@D@2@@_STL@@K@_STL@@@_STL@@@_STL@@QAEXPAU?$_Rb_tree_node@U?$pair@$$CBV?$basic_string@DV?$char_traits@D@_STL@@V?$allocator@D@2@@_STL@@K@_STL@@@2@I@Z
_TEXT	SEGMENT
___p$ = 8						; size = 4
___n$ = 12						; size = 4
?deallocate@?$allocator@U?$_Rb_tree_node@U?$pair@$$CBV?$basic_string@DV?$char_traits@D@_STL@@V?$allocator@D@2@@_STL@@K@_STL@@@_STL@@@_STL@@QAEXPAU?$_Rb_tree_node@U?$pair@$$CBV?$basic_string@DV?$char_traits@D@_STL@@V?$allocator@D@2@@_STL@@K@_STL@@@2@I@Z PROC NEAR ; _STL::allocator<_STL::_Rb_tree_node<_STL::pair<_STL::basic_string<char,_STL::char_traits<char>,_STL::allocator<char> > const ,unsigned long> > >::deallocate, COMDAT
; _this$ = ecx

; 359  :     _STLP_ASSERT( (__p == 0) == (__n == 0) )
; 360  :       if (__p != 0) __sgi_alloc::deallocate((void*)__p, __n * sizeof(value_type));

  00000	83 7c 24 04 00	 cmp	 DWORD PTR ___p$[esp-4], 0
  00005	74 13		 je	 SHORT $L101468
  00007	8b 44 24 08	 mov	 eax, DWORD PTR ___n$[esp-4]
  0000b	c1 e0 05	 shl	 eax, 5
  0000e	50		 push	 eax
  0000f	ff 74 24 08	 push	 DWORD PTR ___p$[esp]
  00013	e8 00 00 00 00	 call	 ?deallocate@?$__node_alloc@$00$0A@@_STL@@SAXPAXI@Z ; _STL::__node_alloc<1,0>::deallocate
  00018	59		 pop	 ecx
  00019	59		 pop	 ecx
$L101468:

; 361  :   }

  0001a	c2 08 00	 ret	 8
?deallocate@?$allocator@U?$_Rb_tree_node@U?$pair@$$CBV?$basic_string@DV?$char_traits@D@_STL@@V?$allocator@D@2@@_STL@@K@_STL@@@_STL@@@_STL@@QAEXPAU?$_Rb_tree_node@U?$pair@$$CBV?$basic_string@DV?$char_traits@D@_STL@@V?$allocator@D@2@@_STL@@K@_STL@@@2@I@Z ENDP ; _STL::allocator<_STL::_Rb_tree_node<_STL::pair<_STL::basic_string<char,_STL::char_traits<char>,_STL::allocator<char> > const ,unsigned long> > >::deallocate
_TEXT	ENDS
PUBLIC	??0?$_STLP_alloc_proxy@PAU?$_Rb_tree_node@U?$pair@$$CBV?$basic_string@DV?$char_traits@D@_STL@@V?$allocator@D@2@@_STL@@K@_STL@@@_STL@@U12@V?$allocator@U?$_Rb_tree_node@U?$pair@$$CBV?$basic_string@DV?$char_traits@D@_STL@@V?$allocator@D@2@@_STL@@K@_STL@@@_STL@@@2@@_STL@@QAE@ABV?$allocator@U?$_Rb_tree_node@U?$pair@$$CBV?$basic_string@DV?$char_traits@D@_STL@@V?$allocator@D@2@@_STL@@K@_STL@@@_STL@@@1@PAU?$_Rb_tree_node@U?$pair@$$CBV?$basic_string@DV?$char_traits@D@_STL@@V?$allocator@D@2@@_STL@@K@_STL@@@1@@Z ; _STL::_STLP_alloc_proxy<_STL::_Rb_tree_node<_STL::pair<_STL::basic_string<char,_STL::char_traits<char>,_STL::allocator<char> > const ,unsigned long> > *,_STL::_Rb_tree_node<_STL::pair<_STL::basic_string<char,_STL::char_traits<char>,_STL::allocator<char> > const ,unsigned long> >,_STL::allocator<_STL::_Rb_tree_node<_STL::pair<_STL::basic_string<char,_STL::char_traits<char>,_STL::allocator<char> > const ,unsigned long> > > >::_STLP_alloc_proxy<_STL::_Rb_tree_node<_STL::pair<_STL::basic_string<char,_STL::char_traits<char>,_STL::allocator<char> > const ,unsigned long> > *,_STL::_Rb_tree_node<_STL::pair<_STL::basic_string<char,_STL::char_traits<char>,_STL::allocator<char> > const ,unsigned long> >,_STL::allocator<_STL::_Rb_tree_node<_STL::pair<_STL::basic_string<char,_STL::char_traits<char>,_STL::allocator<char> > const ,unsigned long> > > >
; Function compile flags: /Ogsy
;	COMDAT ??0?$_STLP_alloc_proxy@PAU?$_Rb_tree_node@U?$pair@$$CBV?$basic_string@DV?$char_traits@D@_STL@@V?$allocator@D@2@@_STL@@K@_STL@@@_STL@@U12@V?$allocator@U?$_Rb_tree_node@U?$pair@$$CBV?$basic_string@DV?$char_traits@D@_STL@@V?$allocator@D@2@@_STL@@K@_STL@@@_STL@@@2@@_STL@@QAE@ABV?$allocator@U?$_Rb_tree_node@U?$pair@$$CBV?$basic_string@DV?$char_traits@D@_STL@@V?$allocator@D@2@@_STL@@K@_STL@@@_STL@@@1@PAU?$_Rb_tree_node@U?$pair@$$CBV?$basic_string@DV?$char_traits@D@_STL@@V?$allocator@D@2@@_STL@@K@_STL@@@1@@Z
_TEXT	SEGMENT
___a$ = 8						; size = 4
___p$ = 12						; size = 4
??0?$_STLP_alloc_proxy@PAU?$_Rb_tree_node@U?$pair@$$CBV?$basic_string@DV?$char_traits@D@_STL@@V?$allocator@D@2@@_STL@@K@_STL@@@_STL@@U12@V?$allocator@U?$_Rb_tree_node@U?$pair@$$CBV?$basic_string@DV?$char_traits@D@_STL@@V?$allocator@D@2@@_STL@@K@_STL@@@_STL@@@2@@_STL@@QAE@ABV?$allocator@U?$_Rb_tree_node@U?$pair@$$CBV?$basic_string@DV?$char_traits@D@_STL@@V?$allocator@D@2@@_STL@@K@_STL@@@_STL@@@1@PAU?$_Rb_tree_node@U?$pair@$$CBV?$basic_string@DV?$char_traits@D@_STL@@V?$allocator@D@2@@_STL@@K@_STL@@@1@@Z PROC NEAR ; _STL::_STLP_alloc_proxy<_STL::_Rb_tree_node<_STL::pair<_STL::basic_string<char,_STL::char_traits<char>,_STL::allocator<char> > const ,unsigned long> > *,_STL::_Rb_tree_node<_STL::pair<_STL::basic_string<char,_STL::char_traits<char>,_STL::allocator<char> > const ,unsigned long> >,_STL::allocator<_STL::_Rb_tree_node<_STL::pair<_STL::basic_string<char,_STL::char_traits<char>,_STL::allocator<char> > const ,unsigned long> > > >::_STLP_alloc_proxy<_STL::_Rb_tree_node<_STL::pair<_STL::basic_string<char,_STL::char_traits<char>,_STL::allocator<char> > const ,unsigned long> > *,_STL::_Rb_tree_node<_STL::pair<_STL::basic_string<char,_STL::char_traits<char>,_STL::allocator<char> > const ,unsigned long> >,_STL::allocator<_STL::_Rb_tree_node<_STL::pair<_STL::basic_string<char,_STL::char_traits<char>,_STL::allocator<char> > const ,unsigned long> > > >, COMDAT
; _this$ = ecx

; 487  :   inline _STLP_alloc_proxy(const _MaybeReboundAlloc& __a, _Value __p) : _MaybeReboundAlloc(__a), _M_data(__p) {}

  00000	8b c1		 mov	 eax, ecx
  00002	8b 4c 24 08	 mov	 ecx, DWORD PTR ___p$[esp-4]
  00006	89 08		 mov	 DWORD PTR [eax], ecx
  00008	c2 08 00	 ret	 8
??0?$_STLP_alloc_proxy@PAU?$_Rb_tree_node@U?$pair@$$CBV?$basic_string@DV?$char_traits@D@_STL@@V?$allocator@D@2@@_STL@@K@_STL@@@_STL@@U12@V?$allocator@U?$_Rb_tree_node@U?$pair@$$CBV?$basic_string@DV?$char_traits@D@_STL@@V?$allocator@D@2@@_STL@@K@_STL@@@_STL@@@2@@_STL@@QAE@ABV?$allocator@U?$_Rb_tree_node@U?$pair@$$CBV?$basic_string@DV?$char_traits@D@_STL@@V?$allocator@D@2@@_STL@@K@_STL@@@_STL@@@1@PAU?$_Rb_tree_node@U?$pair@$$CBV?$basic_string@DV?$char_traits@D@_STL@@V?$allocator@D@2@@_STL@@K@_STL@@@1@@Z ENDP ; _STL::_STLP_alloc_proxy<_STL::_Rb_tree_node<_STL::pair<_STL::basic_string<char,_STL::char_traits<char>,_STL::allocator<char> > const ,unsigned long> > *,_STL::_Rb_tree_node<_STL::pair<_STL::basic_string<char,_STL::char_traits<char>,_STL::allocator<char> > const ,unsigned long> >,_STL::allocator<_STL::_Rb_tree_node<_STL::pair<_STL::basic_string<char,_STL::char_traits<char>,_STL::allocator<char> > const ,unsigned long> > > >::_STLP_alloc_proxy<_STL::_Rb_tree_node<_STL::pair<_STL::basic_string<char,_STL::char_traits<char>,_STL::allocator<char> > const ,unsigned long> > *,_STL::_Rb_tree_node<_STL::pair<_STL::basic_string<char,_STL::char_traits<char>,_STL::allocator<char> > const ,unsigned long> >,_STL::allocator<_STL::_Rb_tree_node<_STL::pair<_STL::basic_string<char,_STL::char_traits<char>,_STL::allocator<char> > const ,unsigned long> > > >
_TEXT	ENDS
PUBLIC	?allocate@?$allocator@U?$_Rb_tree_node@U?$pair@$$CBV?$basic_string@DV?$char_traits@D@_STL@@V?$allocator@D@2@@_STL@@K@_STL@@@_STL@@@_STL@@QAEPAU?$_Rb_tree_node@U?$pair@$$CBV?$basic_string@DV?$char_traits@D@_STL@@V?$allocator@D@2@@_STL@@K@_STL@@@2@IPBX@Z ; _STL::allocator<_STL::_Rb_tree_node<_STL::pair<_STL::basic_string<char,_STL::char_traits<char>,_STL::allocator<char> > const ,unsigned long> > >::allocate
; Function compile flags: /Ogsy
;	COMDAT ?allocate@?$allocator@U?$_Rb_tree_node@U?$pair@$$CBV?$basic_string@DV?$char_traits@D@_STL@@V?$allocator@D@2@@_STL@@K@_STL@@@_STL@@@_STL@@QAEPAU?$_Rb_tree_node@U?$pair@$$CBV?$basic_string@DV?$char_traits@D@_STL@@V?$allocator@D@2@@_STL@@K@_STL@@@2@IPBX@Z
_TEXT	SEGMENT
___n$ = 8						; size = 4
___formal$ = 12						; size = 4
?allocate@?$allocator@U?$_Rb_tree_node@U?$pair@$$CBV?$basic_string@DV?$char_traits@D@_STL@@V?$allocator@D@2@@_STL@@K@_STL@@@_STL@@@_STL@@QAEPAU?$_Rb_tree_node@U?$pair@$$CBV?$basic_string@DV?$char_traits@D@_STL@@V?$allocator@D@2@@_STL@@K@_STL@@@2@IPBX@Z PROC NEAR ; _STL::allocator<_STL::_Rb_tree_node<_STL::pair<_STL::basic_string<char,_STL::char_traits<char>,_STL::allocator<char> > const ,unsigned long> > >::allocate, COMDAT
; _this$ = ecx

; 355  :     return __n != 0 ? __REINTERPRET_CAST(value_type*,__sgi_alloc::allocate(__n * sizeof(value_type))) : 0;

  00000	8b 44 24 04	 mov	 eax, DWORD PTR ___n$[esp-4]
  00004	85 c0		 test	 eax, eax
  00006	74 0c		 je	 SHORT $L102789
  00008	c1 e0 05	 shl	 eax, 5
  0000b	50		 push	 eax
  0000c	e8 00 00 00 00	 call	 ?allocate@?$__node_alloc@$00$0A@@_STL@@SAPAXI@Z ; _STL::__node_alloc<1,0>::allocate
  00011	59		 pop	 ecx
  00012	eb 02		 jmp	 SHORT $L102790
$L102789:
  00014	33 c0		 xor	 eax, eax
$L102790:

; 356  :   }

  00016	c2 08 00	 ret	 8
?allocate@?$allocator@U?$_Rb_tree_node@U?$pair@$$CBV?$basic_string@DV?$char_traits@D@_STL@@V?$allocator@D@2@@_STL@@K@_STL@@@_STL@@@_STL@@QAEPAU?$_Rb_tree_node@U?$pair@$$CBV?$basic_string@DV?$char_traits@D@_STL@@V?$allocator@D@2@@_STL@@K@_STL@@@2@IPBX@Z ENDP ; _STL::allocator<_STL::_Rb_tree_node<_STL::pair<_STL::basic_string<char,_STL::char_traits<char>,_STL::allocator<char> > const ,unsigned long> > >::allocate
_TEXT	ENDS
PUBLIC	?_S_key@?$_Rb_tree@V?$basic_string@DV?$char_traits@D@_STL@@V?$allocator@D@2@@_STL@@U?$pair@$$CBV?$basic_string@DV?$char_traits@D@_STL@@V?$allocator@D@2@@_STL@@K@2@U?$_Select1st@U?$pair@$$CBV?$basic_string@DV?$char_traits@D@_STL@@V?$allocator@D@2@@_STL@@K@_STL@@@2@U?$less@V?$basic_string@DV?$char_traits@D@_STL@@V?$allocator@D@2@@_STL@@@2@V?$allocator@U?$pair@$$CBV?$basic_string@DV?$char_traits@D@_STL@@V?$allocator@D@2@@_STL@@K@_STL@@@2@@_STL@@KAABV?$basic_string@DV?$char_traits@D@_STL@@V?$allocator@D@2@@2@PAU?$_Rb_tree_node@U?$pair@$$CBV?$basic_string@DV?$char_traits@D@_STL@@V?$allocator@D@2@@_STL@@K@_STL@@@2@@Z ; _STL::_Rb_tree<_STL::basic_string<char,_STL::char_traits<char>,_STL::allocator<char> >,_STL::pair<_STL::basic_string<char,_STL::char_traits<char>,_STL::allocator<char> > const ,unsigned long>,_STL::_Select1st<_STL::pair<_STL::basic_string<char,_STL::char_traits<char>,_STL::allocator<char> > const ,unsigned long> >,_STL::less<_STL::basic_string<char,_STL::char_traits<char>,_STL::allocator<char> > >,_STL::allocator<_STL::pair<_STL::basic_string<char,_STL::char_traits<char>,_STL::allocator<char> > const ,unsigned long> > >::_S_key
; Function compile flags: /Ogsy
; File c:\stlport-4.6.1\stlport\stl\_tree.h
;	COMDAT ?_S_key@?$_Rb_tree@V?$basic_string@DV?$char_traits@D@_STL@@V?$allocator@D@2@@_STL@@U?$pair@$$CBV?$basic_string@DV?$char_traits@D@_STL@@V?$allocator@D@2@@_STL@@K@2@U?$_Select1st@U?$pair@$$CBV?$basic_string@DV?$char_traits@D@_STL@@V?$allocator@D@2@@_STL@@K@_STL@@@2@U?$less@V?$basic_string@DV?$char_traits@D@_STL@@V?$allocator@D@2@@_STL@@@2@V?$allocator@U?$pair@$$CBV?$basic_string@DV?$char_traits@D@_STL@@V?$allocator@D@2@@_STL@@K@_STL@@@2@@_STL@@KAABV?$basic_string@DV?$char_traits@D@_STL@@V?$allocator@D@2@@2@PAU?$_Rb_tree_node@U?$pair@$$CBV?$basic_string@DV?$char_traits@D@_STL@@V?$allocator@D@2@@_STL@@K@_STL@@@2@@Z
_TEXT	SEGMENT
___x$ = 8						; size = 4
?_S_key@?$_Rb_tree@V?$basic_string@DV?$char_traits@D@_STL@@V?$allocator@D@2@@_STL@@U?$pair@$$CBV?$basic_string@DV?$char_traits@D@_STL@@V?$allocator@D@2@@_STL@@K@2@U?$_Select1st@U?$pair@$$CBV?$basic_string@DV?$char_traits@D@_STL@@V?$allocator@D@2@@_STL@@K@_STL@@@2@U?$less@V?$basic_string@DV?$char_traits@D@_STL@@V?$allocator@D@2@@_STL@@@2@V?$allocator@U?$pair@$$CBV?$basic_string@DV?$char_traits@D@_STL@@V?$allocator@D@2@@_STL@@K@_STL@@@2@@_STL@@KAABV?$basic_string@DV?$char_traits@D@_STL@@V?$allocator@D@2@@2@PAU?$_Rb_tree_node@U?$pair@$$CBV?$basic_string@DV?$char_traits@D@_STL@@V?$allocator@D@2@@_STL@@K@_STL@@@2@@Z PROC NEAR ; _STL::_Rb_tree<_STL::basic_string<char,_STL::char_traits<char>,_STL::allocator<char> >,_STL::pair<_STL::basic_string<char,_STL::char_traits<char>,_STL::allocator<char> > const ,unsigned long>,_STL::_Select1st<_STL::pair<_STL::basic_string<char,_STL::char_traits<char>,_STL::allocator<char> > const ,unsigned long> >,_STL::less<_STL::basic_string<char,_STL::char_traits<char>,_STL::allocator<char> > >,_STL::allocator<_STL::pair<_STL::basic_string<char,_STL::char_traits<char>,_STL::allocator<char> > const ,unsigned long> > >::_S_key, COMDAT

; 280  :     { return _KeyOfValue()(_S_value(__x)); }

  00000	8b 44 24 04	 mov	 eax, DWORD PTR ___x$[esp-4]
  00004	83 c0 10	 add	 eax, 16			; 00000010H
  00007	c3		 ret	 0
?_S_key@?$_Rb_tree@V?$basic_string@DV?$char_traits@D@_STL@@V?$allocator@D@2@@_STL@@U?$pair@$$CBV?$basic_string@DV?$char_traits@D@_STL@@V?$allocator@D@2@@_STL@@K@2@U?$_Select1st@U?$pair@$$CBV?$basic_string@DV?$char_traits@D@_STL@@V?$allocator@D@2@@_STL@@K@_STL@@@2@U?$less@V?$basic_string@DV?$char_traits@D@_STL@@V?$allocator@D@2@@_STL@@@2@V?$allocator@U?$pair@$$CBV?$basic_string@DV?$char_traits@D@_STL@@V?$allocator@D@2@@_STL@@K@_STL@@@2@@_STL@@KAABV?$basic_string@DV?$char_traits@D@_STL@@V?$allocator@D@2@@2@PAU?$_Rb_tree_node@U?$pair@$$CBV?$basic_string@DV?$char_traits@D@_STL@@V?$allocator@D@2@@_STL@@K@_STL@@@2@@Z ENDP ; _STL::_Rb_tree<_STL::basic_string<char,_STL::char_traits<char>,_STL::allocator<char> >,_STL::pair<_STL::basic_string<char,_STL::char_traits<char>,_STL::allocator<char> > const ,unsigned long>,_STL::_Select1st<_STL::pair<_STL::basic_string<char,_STL::char_traits<char>,_STL::allocator<char> > const ,unsigned long> >,_STL::less<_STL::basic_string<char,_STL::char_traits<char>,_STL::allocator<char> > >,_STL::allocator<_STL::pair<_STL::basic_string<char,_STL::char_traits<char>,_STL::allocator<char> > const ,unsigned long> > >::_S_key
_TEXT	ENDS
PUBLIC	?_M_compare@?$basic_string@DV?$char_traits@D@_STL@@V?$allocator@D@2@@_STL@@SAHPBD000@Z ; _STL::basic_string<char,_STL::char_traits<char>,_STL::allocator<char> >::_M_compare
; Function compile flags: /Ogsy
; File c:\stlport-4.6.1\stlport\stl\_string.h
;	COMDAT ?_M_compare@?$basic_string@DV?$char_traits@D@_STL@@V?$allocator@D@2@@_STL@@SAHPBD000@Z
_TEXT	SEGMENT
___n1$ = -4						; size = 4
___f1$ = 8						; size = 4
___n2$ = 12						; size = 4
___l1$ = 12						; size = 4
___f2$ = 16						; size = 4
___l2$ = 20						; size = 4
?_M_compare@?$basic_string@DV?$char_traits@D@_STL@@V?$allocator@D@2@@_STL@@SAHPBD000@Z PROC NEAR ; _STL::basic_string<char,_STL::char_traits<char>,_STL::allocator<char> >::_M_compare, COMDAT

; 1213 :                         const _CharT* __f2, const _CharT* __l2) {

  00000	55		 push	 ebp
  00001	8b ec		 mov	 ebp, esp
  00003	51		 push	 ecx
  00004	56		 push	 esi

; 1214 :     const ptrdiff_t __n1 = __l1 - __f1;

  00005	8b 75 0c	 mov	 esi, DWORD PTR ___l1$[ebp]
  00008	2b 75 08	 sub	 esi, DWORD PTR ___f1$[ebp]
  0000b	57		 push	 edi

; 1215 :     const ptrdiff_t __n2 = __l2 - __f2;

  0000c	8b 7d 14	 mov	 edi, DWORD PTR ___l2$[ebp]
  0000f	2b 7d 10	 sub	 edi, DWORD PTR ___f2$[ebp]
  00012	89 75 fc	 mov	 DWORD PTR ___n1$[ebp], esi

; 1216 :     const int cmp = _Traits::compare(__f1, __f2, (min) (__n1, __n2));

  00015	3b fe		 cmp	 edi, esi
  00017	89 7d 0c	 mov	 DWORD PTR ___n2$[ebp], edi
  0001a	8d 45 0c	 lea	 eax, DWORD PTR ___n2$[ebp]
  0001d	7c 03		 jl	 SHORT $L102816
  0001f	8d 45 fc	 lea	 eax, DWORD PTR ___n1$[ebp]
$L102816:
  00022	ff 30		 push	 DWORD PTR [eax]
  00024	ff 75 10	 push	 DWORD PTR ___f2$[ebp]
  00027	ff 75 08	 push	 DWORD PTR ___f1$[ebp]
  0002a	e8 00 00 00 00	 call	 _memcmp
  0002f	83 c4 0c	 add	 esp, 12			; 0000000cH

; 1217 :     return cmp != 0 ? cmp : (__n1 < __n2 ? -1 : (__n1 > __n2 ? 1 : 0));

  00032	85 c0		 test	 eax, eax
  00034	75 10		 jne	 SHORT $L102805
  00036	3b f7		 cmp	 esi, edi
  00038	7d 05		 jge	 SHORT $L102804
  0003a	83 c8 ff	 or	 eax, -1
  0003d	eb 07		 jmp	 SHORT $L102805
$L102804:
  0003f	33 c0		 xor	 eax, eax
  00041	3b f7		 cmp	 esi, edi
  00043	0f 9f c0	 setg	 al
$L102805:
  00046	5f		 pop	 edi
  00047	5e		 pop	 esi

; 1218 :   }

  00048	c9		 leave
  00049	c3		 ret	 0
?_M_compare@?$basic_string@DV?$char_traits@D@_STL@@V?$allocator@D@2@@_STL@@SAHPBD000@Z ENDP ; _STL::basic_string<char,_STL::char_traits<char>,_STL::allocator<char> >::_M_compare
_TEXT	ENDS
PUBLIC	??$distance@PBD@_STL@@YAHABQBD0@Z		; _STL::distance<char const *>
; Function compile flags: /Ogsy
; File c:\stlport-4.6.1\stlport\stl\_iterator_base.h
;	COMDAT ??$distance@PBD@_STL@@YAHABQBD0@Z
_TEXT	SEGMENT
___first$ = 8						; size = 4
___last$ = 12						; size = 4
??$distance@PBD@_STL@@YAHABQBD0@Z PROC NEAR		; _STL::distance<char const *>, COMDAT

; 369  :   return __distance(__first, __last, _STLP_ITERATOR_CATEGORY(__first, _InputIterator));  

  00000	8b 44 24 08	 mov	 eax, DWORD PTR ___last$[esp-4]
  00004	8b 00		 mov	 eax, DWORD PTR [eax]
  00006	8b 4c 24 04	 mov	 ecx, DWORD PTR ___first$[esp-4]
  0000a	2b 01		 sub	 eax, DWORD PTR [ecx]

; 370  : }

  0000c	c3		 ret	 0
??$distance@PBD@_STL@@YAHABQBD0@Z ENDP			; _STL::distance<char const *>
_TEXT	ENDS
PUBLIC	?_M_allocate_block@?$_String_base@DV?$allocator@D@_STL@@@_STL@@QAEXI@Z ; _STL::_String_base<char,_STL::allocator<char> >::_M_allocate_block
; Function compile flags: /Ogsy
; File c:\stlport-4.6.1\stlport\stl\_string.c
;	COMDAT ?_M_allocate_block@?$_String_base@DV?$allocator@D@_STL@@@_STL@@QAEXI@Z
_TEXT	SEGMENT
___n$ = 8						; size = 4
?_M_allocate_block@?$_String_base@DV?$allocator@D@_STL@@@_STL@@QAEXI@Z PROC NEAR ; _STL::_String_base<char,_STL::allocator<char> >::_M_allocate_block, COMDAT
; _this$ = ecx

; 530  : template <class _Tp, class _Alloc> void _String_base<_Tp, _Alloc>::_M_allocate_block(size_t __n) {  

  00000	56		 push	 esi
  00001	57		 push	 edi

; 531  :   if ((__n <= (max_size()+1)) && (__n>0)){ 

  00002	8b 7c 24 0c	 mov	 edi, DWORD PTR ___n$[esp+4]
  00006	83 ff ff	 cmp	 edi, -1
  00009	8b f1		 mov	 esi, ecx
  0000b	77 17		 ja	 SHORT $L102043
  0000d	85 ff		 test	 edi, edi
  0000f	76 13		 jbe	 SHORT $L102043

; 532  :     _M_start  = _M_end_of_storage.allocate(__n); 

  00011	57		 push	 edi
  00012	e8 00 00 00 00	 call	 ?allocate@?$__node_alloc@$00$0A@@_STL@@SAPAXI@Z ; _STL::__node_alloc<1,0>::allocate
  00017	89 06		 mov	 DWORD PTR [esi], eax

; 533  :     _M_finish = _M_start; 

  00019	89 46 04	 mov	 DWORD PTR [esi+4], eax

; 534  :     _M_end_of_storage._M_data = _M_start + __n; 

  0001c	03 c7		 add	 eax, edi
  0001e	59		 pop	 ecx
  0001f	89 46 08	 mov	 DWORD PTR [esi+8], eax

; 535  :   } 
; 536  :     else 

  00022	eb 07		 jmp	 SHORT $L102044
$L102043:

; 537  :       _M_throw_length_error(); 

  00024	8b ce		 mov	 ecx, esi
  00026	e8 00 00 00 00	 call	 ?_M_throw_length_error@?$_String_base@DV?$allocator@D@_STL@@@_STL@@QBEXXZ ; _STL::_String_base<char,_STL::allocator<char> >::_M_throw_length_error
$L102044:
  0002b	5f		 pop	 edi
  0002c	5e		 pop	 esi

; 538  : } 

  0002d	c2 04 00	 ret	 4
?_M_allocate_block@?$_String_base@DV?$allocator@D@_STL@@@_STL@@QAEXI@Z ENDP ; _STL::_String_base<char,_STL::allocator<char> >::_M_allocate_block
_TEXT	ENDS
PUBLIC	??$distance@PAD@_STL@@YAHABQAD0@Z		; _STL::distance<char *>
; Function compile flags: /Ogsy
; File c:\stlport-4.6.1\stlport\stl\_iterator_base.h
;	COMDAT ??$distance@PAD@_STL@@YAHABQAD0@Z
_TEXT	SEGMENT
___first$ = 8						; size = 4
___last$ = 12						; size = 4
??$distance@PAD@_STL@@YAHABQAD0@Z PROC NEAR		; _STL::distance<char *>, COMDAT

; 369  :   return __distance(__first, __last, _STLP_ITERATOR_CATEGORY(__first, _InputIterator));  

  00000	8b 44 24 08	 mov	 eax, DWORD PTR ___last$[esp-4]
  00004	8b 00		 mov	 eax, DWORD PTR [eax]
  00006	8b 4c 24 04	 mov	 ecx, DWORD PTR ___first$[esp-4]
  0000a	2b 01		 sub	 eax, DWORD PTR [ecx]

; 370  : }

  0000c	c3		 ret	 0
??$distance@PAD@_STL@@YAHABQAD0@Z ENDP			; _STL::distance<char *>
_TEXT	ENDS
PUBLIC	??$__copy_aux@PADPAD@_STL@@YAPADPAD00ABU__true_type@0@@Z ; _STL::__copy_aux<char *,char *>
; Function compile flags: /Ogsy
; File c:\stlport-4.6.1\stlport\stl\_algobase.h
;	COMDAT ??$__copy_aux@PADPAD@_STL@@YAPADPAD00ABU__true_type@0@@Z
_TEXT	SEGMENT
___first$ = 8						; size = 4
___last$ = 12						; size = 4
___result$ = 16						; size = 4
___formal$ = 20						; size = 4
??$__copy_aux@PADPAD@_STL@@YAPADPAD00ABU__true_type@0@@Z PROC NEAR ; _STL::__copy_aux<char *,char *>, COMDAT

; 202  :   return __copy_ptrs(__first, __last, __result, 
; 203  :                      _IsOKToMemCpy(_STLP_VALUE_TYPE(__first, _InputIter), 
; 204  :                                    _STLP_VALUE_TYPE(__result, _OutputIter))._Ret());

  00000	ff 74 24 0c	 push	 DWORD PTR ___result$[esp-4]
  00004	ff 74 24 0c	 push	 DWORD PTR ___last$[esp]
  00008	ff 74 24 0c	 push	 DWORD PTR ___first$[esp+4]
  0000c	e8 00 00 00 00	 call	 ?__copy_trivial@_STL@@YAPAXPBX0PAX@Z ; _STL::__copy_trivial
  00011	83 c4 0c	 add	 esp, 12			; 0000000cH

; 205  : }

  00014	c3		 ret	 0
??$__copy_aux@PADPAD@_STL@@YAPADPAD00ABU__true_type@0@@Z ENDP ; _STL::__copy_aux<char *,char *>
_TEXT	ENDS
PUBLIC	?deallocate@?$allocator@D@_STL@@QAEXPADI@Z	; _STL::allocator<char>::deallocate
; Function compile flags: /Ogsy
; File c:\stlport-4.6.1\stlport\stl\_alloc.h
;	COMDAT ?deallocate@?$allocator@D@_STL@@QAEXPADI@Z
_TEXT	SEGMENT
___p$ = 8						; size = 4
___n$ = 12						; size = 4
?deallocate@?$allocator@D@_STL@@QAEXPADI@Z PROC NEAR	; _STL::allocator<char>::deallocate, COMDAT
; _this$ = ecx

; 359  :     _STLP_ASSERT( (__p == 0) == (__n == 0) )
; 360  :       if (__p != 0) __sgi_alloc::deallocate((void*)__p, __n * sizeof(value_type));

  00000	83 7c 24 04 00	 cmp	 DWORD PTR ___p$[esp-4], 0
  00005	74 0f		 je	 SHORT $L98663
  00007	ff 74 24 08	 push	 DWORD PTR ___n$[esp-4]
  0000b	ff 74 24 08	 push	 DWORD PTR ___p$[esp]
  0000f	e8 00 00 00 00	 call	 ?deallocate@?$__node_alloc@$00$0A@@_STL@@SAXPAXI@Z ; _STL::__node_alloc<1,0>::deallocate
  00014	59		 pop	 ecx
  00015	59		 pop	 ecx
$L98663:

; 361  :   }

  00016	c2 08 00	 ret	 8
?deallocate@?$allocator@D@_STL@@QAEXPADI@Z ENDP		; _STL::allocator<char>::deallocate
_TEXT	ENDS
PUBLIC	??0?$_String_base@DV?$allocator@D@_STL@@@_STL@@QAE@ABV?$allocator@D@1@@Z ; _STL::_String_base<char,_STL::allocator<char> >::_String_base<char,_STL::allocator<char> >
; Function compile flags: /Ogsy
; File c:\stlport-4.6.1\stlport\stl\_string.h
;	COMDAT ??0?$_String_base@DV?$allocator@D@_STL@@@_STL@@QAE@ABV?$allocator@D@1@@Z
_TEXT	SEGMENT
___a$ = 8						; size = 4
??0?$_String_base@DV?$allocator@D@_STL@@@_STL@@QAE@ABV?$allocator@D@1@@Z PROC NEAR ; _STL::_String_base<char,_STL::allocator<char> >::_String_base<char,_STL::allocator<char> >, COMDAT
; _this$ = ecx

; 129  :     : _M_start(0), _M_finish(0), _M_end_of_storage(__a, (_Tp*)0) {}

  00000	56		 push	 esi
  00001	33 c0		 xor	 eax, eax
  00003	8b f1		 mov	 esi, ecx
  00005	50		 push	 eax
  00006	ff 74 24 0c	 push	 DWORD PTR ___a$[esp+4]
  0000a	8d 4e 08	 lea	 ecx, DWORD PTR [esi+8]
  0000d	89 06		 mov	 DWORD PTR [esi], eax
  0000f	89 46 04	 mov	 DWORD PTR [esi+4], eax
  00012	e8 00 00 00 00	 call	 ??0?$_STLP_alloc_proxy@PADDV?$allocator@D@_STL@@@_STL@@QAE@ABV?$allocator@D@1@PAD@Z ; _STL::_STLP_alloc_proxy<char *,char,_STL::allocator<char> >::_STLP_alloc_proxy<char *,char,_STL::allocator<char> >
  00017	8b c6		 mov	 eax, esi
  00019	5e		 pop	 esi
  0001a	c2 04 00	 ret	 4
??0?$_String_base@DV?$allocator@D@_STL@@@_STL@@QAE@ABV?$allocator@D@1@@Z ENDP ; _STL::_String_base<char,_STL::allocator<char> >::_String_base<char,_STL::allocator<char> >
_TEXT	ENDS
PUBLIC	?end@?$map@V?$basic_string@DV?$char_traits@D@_STL@@V?$allocator@D@2@@_STL@@KU?$less@V?$basic_string@DV?$char_traits@D@_STL@@V?$allocator@D@2@@_STL@@@2@V?$allocator@U?$pair@$$CBV?$basic_string@DV?$char_traits@D@_STL@@V?$allocator@D@2@@_STL@@K@_STL@@@2@@_STL@@QAE?AU?$_Rb_tree_iterator@U?$pair@$$CBV?$basic_string@DV?$char_traits@D@_STL@@V?$allocator@D@2@@_STL@@K@_STL@@U?$_Nonconst_traits@U?$pair@$$CBV?$basic_string@DV?$char_traits@D@_STL@@V?$allocator@D@2@@_STL@@K@_STL@@@2@@2@XZ ; _STL::map<_STL::basic_string<char,_STL::char_traits<char>,_STL::allocator<char> >,unsigned long,_STL::less<_STL::basic_string<char,_STL::char_traits<char>,_STL::allocator<char> > >,_STL::allocator<_STL::pair<_STL::basic_string<char,_STL::char_traits<char>,_STL::allocator<char> > const ,unsigned long> > >::end
; Function compile flags: /Ogsy
; File c:\stlport-4.6.1\stlport\stl\_map.h
;	COMDAT ?end@?$map@V?$basic_string@DV?$char_traits@D@_STL@@V?$allocator@D@2@@_STL@@KU?$less@V?$basic_string@DV?$char_traits@D@_STL@@V?$allocator@D@2@@_STL@@@2@V?$allocator@U?$pair@$$CBV?$basic_string@DV?$char_traits@D@_STL@@V?$allocator@D@2@@_STL@@K@_STL@@@2@@_STL@@QAE?AU?$_Rb_tree_iterator@U?$pair@$$CBV?$basic_string@DV?$char_traits@D@_STL@@V?$allocator@D@2@@_STL@@K@_STL@@U?$_Nonconst_traits@U?$pair@$$CBV?$basic_string@DV?$char_traits@D@_STL@@V?$allocator@D@2@@_STL@@K@_STL@@@2@@2@XZ
_TEXT	SEGMENT
___$ReturnUdt$ = 8					; size = 4
?end@?$map@V?$basic_string@DV?$char_traits@D@_STL@@V?$allocator@D@2@@_STL@@KU?$less@V?$basic_string@DV?$char_traits@D@_STL@@V?$allocator@D@2@@_STL@@@2@V?$allocator@U?$pair@$$CBV?$basic_string@DV?$char_traits@D@_STL@@V?$allocator@D@2@@_STL@@K@_STL@@@2@@_STL@@QAE?AU?$_Rb_tree_iterator@U?$pair@$$CBV?$basic_string@DV?$char_traits@D@_STL@@V?$allocator@D@2@@_STL@@K@_STL@@U?$_Nonconst_traits@U?$pair@$$CBV?$basic_string@DV?$char_traits@D@_STL@@V?$allocator@D@2@@_STL@@K@_STL@@@2@@2@XZ PROC NEAR ; _STL::map<_STL::basic_string<char,_STL::char_traits<char>,_STL::allocator<char> >,unsigned long,_STL::less<_STL::basic_string<char,_STL::char_traits<char>,_STL::allocator<char> > >,_STL::allocator<_STL::pair<_STL::basic_string<char,_STL::char_traits<char>,_STL::allocator<char> > const ,unsigned long> > >::end, COMDAT
; _this$ = ecx

; 149  :   iterator end() { return _M_t.end(); }

  00000	8b 09		 mov	 ecx, DWORD PTR [ecx]
  00002	8b 44 24 04	 mov	 eax, DWORD PTR ___$ReturnUdt$[esp-4]
  00006	89 08		 mov	 DWORD PTR [eax], ecx
  00008	c2 04 00	 ret	 4
?end@?$map@V?$basic_string@DV?$char_traits@D@_STL@@V?$allocator@D@2@@_STL@@KU?$less@V?$basic_string@DV?$char_traits@D@_STL@@V?$allocator@D@2@@_STL@@@2@V?$allocator@U?$pair@$$CBV?$basic_string@DV?$char_traits@D@_STL@@V?$allocator@D@2@@_STL@@K@_STL@@@2@@_STL@@QAE?AU?$_Rb_tree_iterator@U?$pair@$$CBV?$basic_string@DV?$char_traits@D@_STL@@V?$allocator@D@2@@_STL@@K@_STL@@U?$_Nonconst_traits@U?$pair@$$CBV?$basic_string@DV?$char_traits@D@_STL@@V?$allocator@D@2@@_STL@@K@_STL@@@2@@2@XZ ENDP ; _STL::map<_STL::basic_string<char,_STL::char_traits<char>,_STL::allocator<char> >,unsigned long,_STL::less<_STL::basic_string<char,_STL::char_traits<char>,_STL::allocator<char> > >,_STL::allocator<_STL::pair<_STL::basic_string<char,_STL::char_traits<char>,_STL::allocator<char> > const ,unsigned long> > >::end
_TEXT	ENDS
PUBLIC	?end@?$map@V?$basic_string@DV?$char_traits@D@_STL@@V?$allocator@D@2@@_STL@@KU?$less@V?$basic_string@DV?$char_traits@D@_STL@@V?$allocator@D@2@@_STL@@@2@V?$allocator@U?$pair@$$CBV?$basic_string@DV?$char_traits@D@_STL@@V?$allocator@D@2@@_STL@@K@_STL@@@2@@_STL@@QBE?AU?$_Rb_tree_iterator@U?$pair@$$CBV?$basic_string@DV?$char_traits@D@_STL@@V?$allocator@D@2@@_STL@@K@_STL@@U?$_Const_traits@U?$pair@$$CBV?$basic_string@DV?$char_traits@D@_STL@@V?$allocator@D@2@@_STL@@K@_STL@@@2@@2@XZ ; _STL::map<_STL::basic_string<char,_STL::char_traits<char>,_STL::allocator<char> >,unsigned long,_STL::less<_STL::basic_string<char,_STL::char_traits<char>,_STL::allocator<char> > >,_STL::allocator<_STL::pair<_STL::basic_string<char,_STL::char_traits<char>,_STL::allocator<char> > const ,unsigned long> > >::end
; Function compile flags: /Ogsy
;	COMDAT ?end@?$map@V?$basic_string@DV?$char_traits@D@_STL@@V?$allocator@D@2@@_STL@@KU?$less@V?$basic_string@DV?$char_traits@D@_STL@@V?$allocator@D@2@@_STL@@@2@V?$allocator@U?$pair@$$CBV?$basic_string@DV?$char_traits@D@_STL@@V?$allocator@D@2@@_STL@@K@_STL@@@2@@_STL@@QBE?AU?$_Rb_tree_iterator@U?$pair@$$CBV?$basic_string@DV?$char_traits@D@_STL@@V?$allocator@D@2@@_STL@@K@_STL@@U?$_Const_traits@U?$pair@$$CBV?$basic_string@DV?$char_traits@D@_STL@@V?$allocator@D@2@@_STL@@K@_STL@@@2@@2@XZ
_TEXT	SEGMENT
___$ReturnUdt$ = 8					; size = 4
?end@?$map@V?$basic_string@DV?$char_traits@D@_STL@@V?$allocator@D@2@@_STL@@KU?$less@V?$basic_string@DV?$char_traits@D@_STL@@V?$allocator@D@2@@_STL@@@2@V?$allocator@U?$pair@$$CBV?$basic_string@DV?$char_traits@D@_STL@@V?$allocator@D@2@@_STL@@K@_STL@@@2@@_STL@@QBE?AU?$_Rb_tree_iterator@U?$pair@$$CBV?$basic_string@DV?$char_traits@D@_STL@@V?$allocator@D@2@@_STL@@K@_STL@@U?$_Const_traits@U?$pair@$$CBV?$basic_string@DV?$char_traits@D@_STL@@V?$allocator@D@2@@_STL@@K@_STL@@@2@@2@XZ PROC NEAR ; _STL::map<_STL::basic_string<char,_STL::char_traits<char>,_STL::allocator<char> >,unsigned long,_STL::less<_STL::basic_string<char,_STL::char_traits<char>,_STL::allocator<char> > >,_STL::allocator<_STL::pair<_STL::basic_string<char,_STL::char_traits<char>,_STL::allocator<char> > const ,unsigned long> > >::end, COMDAT
; _this$ = ecx

; 150  :   const_iterator end() const { return _M_t.end(); }

  00000	8b 09		 mov	 ecx, DWORD PTR [ecx]
  00002	8b 44 24 04	 mov	 eax, DWORD PTR ___$ReturnUdt$[esp-4]
  00006	89 08		 mov	 DWORD PTR [eax], ecx
  00008	c2 04 00	 ret	 4
?end@?$map@V?$basic_string@DV?$char_traits@D@_STL@@V?$allocator@D@2@@_STL@@KU?$less@V?$basic_string@DV?$char_traits@D@_STL@@V?$allocator@D@2@@_STL@@@2@V?$allocator@U?$pair@$$CBV?$basic_string@DV?$char_traits@D@_STL@@V?$allocator@D@2@@_STL@@K@_STL@@@2@@_STL@@QBE?AU?$_Rb_tree_iterator@U?$pair@$$CBV?$basic_string@DV?$char_traits@D@_STL@@V?$allocator@D@2@@_STL@@K@_STL@@U?$_Const_traits@U?$pair@$$CBV?$basic_string@DV?$char_traits@D@_STL@@V?$allocator@D@2@@_STL@@K@_STL@@@2@@2@XZ ENDP ; _STL::map<_STL::basic_string<char,_STL::char_traits<char>,_STL::allocator<char> >,unsigned long,_STL::less<_STL::basic_string<char,_STL::char_traits<char>,_STL::allocator<char> > >,_STL::allocator<_STL::pair<_STL::basic_string<char,_STL::char_traits<char>,_STL::allocator<char> > const ,unsigned long> > >::end
_TEXT	ENDS
PUBLIC	??1?$_Rb_tree_base@U?$pair@$$CBV?$basic_string@DV?$char_traits@D@_STL@@V?$allocator@D@2@@_STL@@K@_STL@@V?$allocator@U?$pair@$$CBV?$basic_string@DV?$char_traits@D@_STL@@V?$allocator@D@2@@_STL@@K@_STL@@@2@@_STL@@QAE@XZ ; _STL::_Rb_tree_base<_STL::pair<_STL::basic_string<char,_STL::char_traits<char>,_STL::allocator<char> > const ,unsigned long>,_STL::allocator<_STL::pair<_STL::basic_string<char,_STL::char_traits<char>,_STL::allocator<char> > const ,unsigned long> > >::~_Rb_tree_base<_STL::pair<_STL::basic_string<char,_STL::char_traits<char>,_STL::allocator<char> > const ,unsigned long>,_STL::allocator<_STL::pair<_STL::basic_string<char,_STL::char_traits<char>,_STL::allocator<char> > const ,unsigned long> > >
; Function compile flags: /Ogsy
; File c:\stlport-4.6.1\stlport\stl\_tree.h
;	COMDAT ??1?$_Rb_tree_base@U?$pair@$$CBV?$basic_string@DV?$char_traits@D@_STL@@V?$allocator@D@2@@_STL@@K@_STL@@V?$allocator@U?$pair@$$CBV?$basic_string@DV?$char_traits@D@_STL@@V?$allocator@D@2@@_STL@@K@_STL@@@2@@_STL@@QAE@XZ
_TEXT	SEGMENT
??1?$_Rb_tree_base@U?$pair@$$CBV?$basic_string@DV?$char_traits@D@_STL@@V?$allocator@D@2@@_STL@@K@_STL@@V?$allocator@U?$pair@$$CBV?$basic_string@DV?$char_traits@D@_STL@@V?$allocator@D@2@@_STL@@K@_STL@@@2@@_STL@@QAE@XZ PROC NEAR ; _STL::_Rb_tree_base<_STL::pair<_STL::basic_string<char,_STL::char_traits<char>,_STL::allocator<char> > const ,unsigned long>,_STL::allocator<_STL::pair<_STL::basic_string<char,_STL::char_traits<char>,_STL::allocator<char> > const ,unsigned long> > >::~_Rb_tree_base<_STL::pair<_STL::basic_string<char,_STL::char_traits<char>,_STL::allocator<char> > const ,unsigned long>,_STL::allocator<_STL::pair<_STL::basic_string<char,_STL::char_traits<char>,_STL::allocator<char> > const ,unsigned long> > >, COMDAT
; _this$ = ecx

; 208  :     _M_header.deallocate(_M_header._M_data,1); 

  00000	6a 01		 push	 1
  00002	ff 31		 push	 DWORD PTR [ecx]
  00004	e8 00 00 00 00	 call	 ?deallocate@?$allocator@U?$_Rb_tree_node@U?$pair@$$CBV?$basic_string@DV?$char_traits@D@_STL@@V?$allocator@D@2@@_STL@@K@_STL@@@_STL@@@_STL@@QAEXPAU?$_Rb_tree_node@U?$pair@$$CBV?$basic_string@DV?$char_traits@D@_STL@@V?$allocator@D@2@@_STL@@K@_STL@@@2@I@Z ; _STL::allocator<_STL::_Rb_tree_node<_STL::pair<_STL::basic_string<char,_STL::char_traits<char>,_STL::allocator<char> > const ,unsigned long> > >::deallocate

; 209  :   }

  00009	c3		 ret	 0
??1?$_Rb_tree_base@U?$pair@$$CBV?$basic_string@DV?$char_traits@D@_STL@@V?$allocator@D@2@@_STL@@K@_STL@@V?$allocator@U?$pair@$$CBV?$basic_string@DV?$char_traits@D@_STL@@V?$allocator@D@2@@_STL@@K@_STL@@@2@@_STL@@QAE@XZ ENDP ; _STL::_Rb_tree_base<_STL::pair<_STL::basic_string<char,_STL::char_traits<char>,_STL::allocator<char> > const ,unsigned long>,_STL::allocator<_STL::pair<_STL::basic_string<char,_STL::char_traits<char>,_STL::allocator<char> > const ,unsigned long> > >::~_Rb_tree_base<_STL::pair<_STL::basic_string<char,_STL::char_traits<char>,_STL::allocator<char> > const ,unsigned long>,_STL::allocator<_STL::pair<_STL::basic_string<char,_STL::char_traits<char>,_STL::allocator<char> > const ,unsigned long> > >
_TEXT	ENDS
PUBLIC	??0?$_Rb_tree_base@U?$pair@$$CBV?$basic_string@DV?$char_traits@D@_STL@@V?$allocator@D@2@@_STL@@K@_STL@@V?$allocator@U?$pair@$$CBV?$basic_string@DV?$char_traits@D@_STL@@V?$allocator@D@2@@_STL@@K@_STL@@@2@@_STL@@QAE@ABV?$allocator@U?$pair@$$CBV?$basic_string@DV?$char_traits@D@_STL@@V?$allocator@D@2@@_STL@@K@_STL@@@1@@Z ; _STL::_Rb_tree_base<_STL::pair<_STL::basic_string<char,_STL::char_traits<char>,_STL::allocator<char> > const ,unsigned long>,_STL::allocator<_STL::pair<_STL::basic_string<char,_STL::char_traits<char>,_STL::allocator<char> > const ,unsigned long> > >::_Rb_tree_base<_STL::pair<_STL::basic_string<char,_STL::char_traits<char>,_STL::allocator<char> > const ,unsigned long>,_STL::allocator<_STL::pair<_STL::basic_string<char,_STL::char_traits<char>,_STL::allocator<char> > const ,unsigned long> > >
; Function compile flags: /Ogsy
;	COMDAT ??0?$_Rb_tree_base@U?$pair@$$CBV?$basic_string@DV?$char_traits@D@_STL@@V?$allocator@D@2@@_STL@@K@_STL@@V?$allocator@U?$pair@$$CBV?$basic_string@DV?$char_traits@D@_STL@@V?$allocator@D@2@@_STL@@K@_STL@@@2@@_STL@@QAE@ABV?$allocator@U?$pair@$$CBV?$basic_string@DV?$char_traits@D@_STL@@V?$allocator@D@2@@_STL@@K@_STL@@@1@@Z
_TEXT	SEGMENT
$T102901 = -1						; size = 1
___a$ = 8						; size = 4
??0?$_Rb_tree_base@U?$pair@$$CBV?$basic_string@DV?$char_traits@D@_STL@@V?$allocator@D@2@@_STL@@K@_STL@@V?$allocator@U?$pair@$$CBV?$basic_string@DV?$char_traits@D@_STL@@V?$allocator@D@2@@_STL@@K@_STL@@@2@@_STL@@QAE@ABV?$allocator@U?$pair@$$CBV?$basic_string@DV?$char_traits@D@_STL@@V?$allocator@D@2@@_STL@@K@_STL@@@1@@Z PROC NEAR ; _STL::_Rb_tree_base<_STL::pair<_STL::basic_string<char,_STL::char_traits<char>,_STL::allocator<char> > const ,unsigned long>,_STL::allocator<_STL::pair<_STL::basic_string<char,_STL::char_traits<char>,_STL::allocator<char> > const ,unsigned long> > >::_Rb_tree_base<_STL::pair<_STL::basic_string<char,_STL::char_traits<char>,_STL::allocator<char> > const ,unsigned long>,_STL::allocator<_STL::pair<_STL::basic_string<char,_STL::char_traits<char>,_STL::allocator<char> > const ,unsigned long> > >, COMDAT
; _this$ = ecx

; 204  :     _M_header(_STLP_CONVERT_ALLOCATOR(__a, _Node), (_Node*)0) { 

  00000	51		 push	 ecx
  00001	56		 push	 esi
  00002	6a 00		 push	 0
  00004	8d 44 24 0b	 lea	 eax, DWORD PTR $T102901[esp+12]
  00008	50		 push	 eax
  00009	8b f1		 mov	 esi, ecx
  0000b	e8 00 00 00 00	 call	 ??0?$_STLP_alloc_proxy@PAU?$_Rb_tree_node@U?$pair@$$CBV?$basic_string@DV?$char_traits@D@_STL@@V?$allocator@D@2@@_STL@@K@_STL@@@_STL@@U12@V?$allocator@U?$_Rb_tree_node@U?$pair@$$CBV?$basic_string@DV?$char_traits@D@_STL@@V?$allocator@D@2@@_STL@@K@_STL@@@_STL@@@2@@_STL@@QAE@ABV?$allocator@U?$_Rb_tree_node@U?$pair@$$CBV?$basic_string@DV?$char_traits@D@_STL@@V?$allocator@D@2@@_STL@@K@_STL@@@_STL@@@1@PAU?$_Rb_tree_node@U?$pair@$$CBV?$basic_string@DV?$char_traits@D@_STL@@V?$allocator@D@2@@_STL@@K@_STL@@@1@@Z ; _STL::_STLP_alloc_proxy<_STL::_Rb_tree_node<_STL::pair<_STL::basic_string<char,_STL::char_traits<char>,_STL::allocator<char> > const ,unsigned long> > *,_STL::_Rb_tree_node<_STL::pair<_STL::basic_string<char,_STL::char_traits<char>,_STL::allocator<char> > const ,unsigned long> >,_STL::allocator<_STL::_Rb_tree_node<_STL::pair<_STL::basic_string<char,_STL::char_traits<char>,_STL::allocator<char> > const ,unsigned long> > > >::_STLP_alloc_proxy<_STL::_Rb_tree_node<_STL::pair<_STL::basic_string<char,_STL::char_traits<char>,_STL::allocator<char> > const ,unsigned long> > *,_STL::_Rb_tree_node<_STL::pair<_STL::basic_string<char,_STL::char_traits<char>,_STL::allocator<char> > const ,unsigned long> >,_STL::allocator<_STL::_Rb_tree_node<_STL::pair<_STL::basic_string<char,_STL::char_traits<char>,_STL::allocator<char> > const ,unsigned long> > > >

; 205  :       _M_header._M_data = _M_header.allocate(1); 

  00010	6a 20		 push	 32			; 00000020H
  00012	e8 00 00 00 00	 call	 ?allocate@?$__node_alloc@$00$0A@@_STL@@SAPAXI@Z ; _STL::__node_alloc<1,0>::allocate
  00017	89 06		 mov	 DWORD PTR [esi], eax
  00019	59		 pop	 ecx

; 206  :   }

  0001a	8b c6		 mov	 eax, esi
  0001c	5e		 pop	 esi
  0001d	59		 pop	 ecx
  0001e	c2 04 00	 ret	 4
??0?$_Rb_tree_base@U?$pair@$$CBV?$basic_string@DV?$char_traits@D@_STL@@V?$allocator@D@2@@_STL@@K@_STL@@V?$allocator@U?$pair@$$CBV?$basic_string@DV?$char_traits@D@_STL@@V?$allocator@D@2@@_STL@@K@_STL@@@2@@_STL@@QAE@ABV?$allocator@U?$pair@$$CBV?$basic_string@DV?$char_traits@D@_STL@@V?$allocator@D@2@@_STL@@K@_STL@@@1@@Z ENDP ; _STL::_Rb_tree_base<_STL::pair<_STL::basic_string<char,_STL::char_traits<char>,_STL::allocator<char> > const ,unsigned long>,_STL::allocator<_STL::pair<_STL::basic_string<char,_STL::char_traits<char>,_STL::allocator<char> > const ,unsigned long> > >::_Rb_tree_base<_STL::pair<_STL::basic_string<char,_STL::char_traits<char>,_STL::allocator<char> > const ,unsigned long>,_STL::allocator<_STL::pair<_STL::basic_string<char,_STL::char_traits<char>,_STL::allocator<char> > const ,unsigned long> > >
_TEXT	ENDS
PUBLIC	??$?MDV?$char_traits@D@_STL@@V?$allocator@D@1@@_STL@@YA_NABV?$basic_string@DV?$char_traits@D@_STL@@V?$allocator@D@2@@0@0@Z ; _STL::operator<<char,_STL::char_traits<char>,_STL::allocator<char> >
; Function compile flags: /Ogsy
; File c:\stlport-4.6.1\stlport\stl\_string.h
;	COMDAT ??$?MDV?$char_traits@D@_STL@@V?$allocator@D@1@@_STL@@YA_NABV?$basic_string@DV?$char_traits@D@_STL@@V?$allocator@D@2@@0@0@Z
_TEXT	SEGMENT
___x$ = 8						; size = 4
___y$ = 12						; size = 4
??$?MDV?$char_traits@D@_STL@@V?$allocator@D@1@@_STL@@YA_NABV?$basic_string@DV?$char_traits@D@_STL@@V?$allocator@D@2@@0@0@Z PROC NEAR ; _STL::operator<<char,_STL::char_traits<char>,_STL::allocator<char> >, COMDAT

; 1353 :   return basic_string<_CharT,_Traits,_Alloc> ::_M_compare(__x.begin(), __x.end(), 
; 1354 : 		 __y.begin(), __y.end()) < 0;

  00000	8b 44 24 08	 mov	 eax, DWORD PTR ___y$[esp-4]
  00004	8b 50 04	 mov	 edx, DWORD PTR [eax+4]
  00007	8b 00		 mov	 eax, DWORD PTR [eax]
  00009	8b 4c 24 04	 mov	 ecx, DWORD PTR ___x$[esp-4]
  0000d	56		 push	 esi
  0000e	8b 71 04	 mov	 esi, DWORD PTR [ecx+4]
  00011	8b 09		 mov	 ecx, DWORD PTR [ecx]
  00013	52		 push	 edx
  00014	50		 push	 eax
  00015	56		 push	 esi
  00016	51		 push	 ecx
  00017	e8 00 00 00 00	 call	 ?_M_compare@?$basic_string@DV?$char_traits@D@_STL@@V?$allocator@D@2@@_STL@@SAHPBD000@Z ; _STL::basic_string<char,_STL::char_traits<char>,_STL::allocator<char> >::_M_compare
  0001c	83 c4 10	 add	 esp, 16			; 00000010H
  0001f	33 c9		 xor	 ecx, ecx
  00021	85 c0		 test	 eax, eax
  00023	0f 9c c1	 setl	 cl
  00026	8a c1		 mov	 al, cl
  00028	5e		 pop	 esi

; 1355 : }

  00029	c3		 ret	 0
??$?MDV?$char_traits@D@_STL@@V?$allocator@D@1@@_STL@@YA_NABV?$basic_string@DV?$char_traits@D@_STL@@V?$allocator@D@2@@0@0@Z ENDP ; _STL::operator<<char,_STL::char_traits<char>,_STL::allocator<char> >
_TEXT	ENDS
PUBLIC	??$_M_range_initialize@PBD@?$basic_string@DV?$char_traits@D@_STL@@V?$allocator@D@2@@_STL@@AAEXPBD0ABUforward_iterator_tag@1@@Z ; _STL::basic_string<char,_STL::char_traits<char>,_STL::allocator<char> >::_M_range_initialize<char const *>
; Function compile flags: /Ogsy
;	COMDAT ??$_M_range_initialize@PBD@?$basic_string@DV?$char_traits@D@_STL@@V?$allocator@D@2@@_STL@@AAEXPBD0ABUforward_iterator_tag@1@@Z
_TEXT	SEGMENT
___f$ = 8						; size = 4
___l$ = 12						; size = 4
___formal$ = 16						; size = 4
??$_M_range_initialize@PBD@?$basic_string@DV?$char_traits@D@_STL@@V?$allocator@D@2@@_STL@@AAEXPBD0ABUforward_iterator_tag@1@@Z PROC NEAR ; _STL::basic_string<char,_STL::char_traits<char>,_STL::allocator<char> >::_M_range_initialize<char const *>, COMDAT
; _this$ = ecx

; 383  :                            const forward_iterator_tag &) {
; 384  :     difference_type __n = distance(__f, __l);
; 385  :     this->_M_allocate_block(__n + 1);

  00000	8b 44 24 08	 mov	 eax, DWORD PTR ___l$[esp-4]
  00004	2b 44 24 04	 sub	 eax, DWORD PTR ___f$[esp-4]
  00008	56		 push	 esi
  00009	40		 inc	 eax
  0000a	50		 push	 eax
  0000b	8b f1		 mov	 esi, ecx
  0000d	e8 00 00 00 00	 call	 ?_M_allocate_block@?$_String_base@DV?$allocator@D@_STL@@@_STL@@QAEXI@Z ; _STL::_String_base<char,_STL::allocator<char> >::_M_allocate_block

; 386  :     this->_M_finish = uninitialized_copy(__f, __l, this->_M_start);

  00012	ff 36		 push	 DWORD PTR [esi]
  00014	ff 74 24 10	 push	 DWORD PTR ___l$[esp+4]
  00018	ff 74 24 10	 push	 DWORD PTR ___f$[esp+8]
  0001c	e8 00 00 00 00	 call	 ?__copy_trivial@_STL@@YAPAXPBX0PAX@Z ; _STL::__copy_trivial
  00021	83 c4 0c	 add	 esp, 12			; 0000000cH
  00024	89 46 04	 mov	 DWORD PTR [esi+4], eax

; 387  :     _M_terminate_string();

  00027	c6 00 00	 mov	 BYTE PTR [eax], 0
  0002a	5e		 pop	 esi

; 388  :   }

  0002b	c2 0c 00	 ret	 12			; 0000000cH
??$_M_range_initialize@PBD@?$basic_string@DV?$char_traits@D@_STL@@V?$allocator@D@2@@_STL@@AAEXPBD0ABUforward_iterator_tag@1@@Z ENDP ; _STL::basic_string<char,_STL::char_traits<char>,_STL::allocator<char> >::_M_range_initialize<char const *>
_TEXT	ENDS
PUBLIC	??$__uninitialized_copy@PADPAD@_STL@@YAPADPAD00ABU__true_type@0@@Z ; _STL::__uninitialized_copy<char *,char *>
; Function compile flags: /Ogsy
; File c:\stlport-4.6.1\stlport\stl\_uninitialized.h
;	COMDAT ??$__uninitialized_copy@PADPAD@_STL@@YAPADPAD00ABU__true_type@0@@Z
_TEXT	SEGMENT
___first$ = 8						; size = 4
___last$ = 12						; size = 4
___result$ = 16						; size = 4
___formal$ = 20						; size = 4
??$__uninitialized_copy@PADPAD@_STL@@YAPADPAD00ABU__true_type@0@@Z PROC NEAR ; _STL::__uninitialized_copy<char *,char *>, COMDAT

; 55   :   return __copy_aux(__first, __last, __result, _BothPtrType< _InputIter, _ForwardIter> :: _Ret());

  00000	ff 74 24 0c	 push	 DWORD PTR ___result$[esp-4]
  00004	ff 74 24 0c	 push	 DWORD PTR ___last$[esp]
  00008	ff 74 24 0c	 push	 DWORD PTR ___first$[esp+4]
  0000c	e8 00 00 00 00	 call	 ?__copy_trivial@_STL@@YAPAXPBX0PAX@Z ; _STL::__copy_trivial
  00011	83 c4 0c	 add	 esp, 12			; 0000000cH

; 56   : }

  00014	c3		 ret	 0
??$__uninitialized_copy@PADPAD@_STL@@YAPADPAD00ABU__true_type@0@@Z ENDP ; _STL::__uninitialized_copy<char *,char *>
_TEXT	ENDS
PUBLIC	?_M_deallocate_block@?$_String_base@DV?$allocator@D@_STL@@@_STL@@QAEXXZ ; _STL::_String_base<char,_STL::allocator<char> >::_M_deallocate_block
; Function compile flags: /Ogsy
; File c:\stlport-4.6.1\stlport\stl\_string.h
;	COMDAT ?_M_deallocate_block@?$_String_base@DV?$allocator@D@_STL@@@_STL@@QAEXXZ
_TEXT	SEGMENT
?_M_deallocate_block@?$_String_base@DV?$allocator@D@_STL@@@_STL@@QAEXXZ PROC NEAR ; _STL::_String_base<char,_STL::allocator<char> >::_M_deallocate_block, COMDAT
; _this$ = ecx

; 124  :     { _M_end_of_storage.deallocate(_M_start, _M_end_of_storage._M_data - _M_start); }

  00000	8b c1		 mov	 eax, ecx
  00002	8d 48 08	 lea	 ecx, DWORD PTR [eax+8]
  00005	8b 00		 mov	 eax, DWORD PTR [eax]
  00007	8b 11		 mov	 edx, DWORD PTR [ecx]
  00009	2b d0		 sub	 edx, eax
  0000b	52		 push	 edx
  0000c	50		 push	 eax
  0000d	e8 00 00 00 00	 call	 ?deallocate@?$allocator@D@_STL@@QAEXPADI@Z ; _STL::allocator<char>::deallocate
  00012	c3		 ret	 0
?_M_deallocate_block@?$_String_base@DV?$allocator@D@_STL@@@_STL@@QAEXXZ ENDP ; _STL::_String_base<char,_STL::allocator<char> >::_M_deallocate_block
_TEXT	ENDS
PUBLIC	??0?$_Rb_tree@V?$basic_string@DV?$char_traits@D@_STL@@V?$allocator@D@2@@_STL@@U?$pair@$$CBV?$basic_string@DV?$char_traits@D@_STL@@V?$allocator@D@2@@_STL@@K@2@U?$_Select1st@U?$pair@$$CBV?$basic_string@DV?$char_traits@D@_STL@@V?$allocator@D@2@@_STL@@K@_STL@@@2@U?$less@V?$basic_string@DV?$char_traits@D@_STL@@V?$allocator@D@2@@_STL@@@2@V?$allocator@U?$pair@$$CBV?$basic_string@DV?$char_traits@D@_STL@@V?$allocator@D@2@@_STL@@K@_STL@@@2@@_STL@@QAE@ABU?$less@V?$basic_string@DV?$char_traits@D@_STL@@V?$allocator@D@2@@_STL@@@1@ABV?$allocator@U?$pair@$$CBV?$basic_string@DV?$char_traits@D@_STL@@V?$allocator@D@2@@_STL@@K@_STL@@@1@@Z ; _STL::_Rb_tree<_STL::basic_string<char,_STL::char_traits<char>,_STL::allocator<char> >,_STL::pair<_STL::basic_string<char,_STL::char_traits<char>,_STL::allocator<char> > const ,unsigned long>,_STL::_Select1st<_STL::pair<_STL::basic_string<char,_STL::char_traits<char>,_STL::allocator<char> > const ,unsigned long> >,_STL::less<_STL::basic_string<char,_STL::char_traits<char>,_STL::allocator<char> > >,_STL::allocator<_STL::pair<_STL::basic_string<char,_STL::char_traits<char>,_STL::allocator<char> > const ,unsigned long> > >::_Rb_tree<_STL::basic_string<char,_STL::char_traits<char>,_STL::allocator<char> >,_STL::pair<_STL::basic_string<char,_STL::char_traits<char>,_STL::allocator<char> > const ,unsigned long>,_STL::_Select1st<_STL::pair<_STL::basic_string<char,_STL::char_traits<char>,_STL::allocator<char> > const ,unsigned long> >,_STL::less<_STL::basic_string<char,_STL::char_traits<char>,_STL::allocator<char> > >,_STL::allocator<_STL::pair<_STL::basic_string<char,_STL::char_traits<char>,_STL::allocator<char> > const ,unsigned long> > >
; Function compile flags: /Ogsy
; File c:\stlport-4.6.1\stlport\stl\_tree.h
;	COMDAT ??0?$_Rb_tree@V?$basic_string@DV?$char_traits@D@_STL@@V?$allocator@D@2@@_STL@@U?$pair@$$CBV?$basic_string@DV?$char_traits@D@_STL@@V?$allocator@D@2@@_STL@@K@2@U?$_Select1st@U?$pair@$$CBV?$basic_string@DV?$char_traits@D@_STL@@V?$allocator@D@2@@_STL@@K@_STL@@@2@U?$less@V?$basic_string@DV?$char_traits@D@_STL@@V?$allocator@D@2@@_STL@@@2@V?$allocator@U?$pair@$$CBV?$basic_string@DV?$char_traits@D@_STL@@V?$allocator@D@2@@_STL@@K@_STL@@@2@@_STL@@QAE@ABU?$less@V?$basic_string@DV?$char_traits@D@_STL@@V?$allocator@D@2@@_STL@@@1@ABV?$allocator@U?$pair@$$CBV?$basic_string@DV?$char_traits@D@_STL@@V?$allocator@D@2@@_STL@@K@_STL@@@1@@Z
_TEXT	SEGMENT
___comp$ = 8						; size = 4
___a$ = 12						; size = 4
??0?$_Rb_tree@V?$basic_string@DV?$char_traits@D@_STL@@V?$allocator@D@2@@_STL@@U?$pair@$$CBV?$basic_string@DV?$char_traits@D@_STL@@V?$allocator@D@2@@_STL@@K@2@U?$_Select1st@U?$pair@$$CBV?$basic_string@DV?$char_traits@D@_STL@@V?$allocator@D@2@@_STL@@K@_STL@@@2@U?$less@V?$basic_string@DV?$char_traits@D@_STL@@V?$allocator@D@2@@_STL@@@2@V?$allocator@U?$pair@$$CBV?$basic_string@DV?$char_traits@D@_STL@@V?$allocator@D@2@@_STL@@K@_STL@@@2@@_STL@@QAE@ABU?$less@V?$basic_string@DV?$char_traits@D@_STL@@V?$allocator@D@2@@_STL@@@1@ABV?$allocator@U?$pair@$$CBV?$basic_string@DV?$char_traits@D@_STL@@V?$allocator@D@2@@_STL@@K@_STL@@@1@@Z PROC NEAR ; _STL::_Rb_tree<_STL::basic_string<char,_STL::char_traits<char>,_STL::allocator<char> >,_STL::pair<_STL::basic_string<char,_STL::char_traits<char>,_STL::allocator<char> > const ,unsigned long>,_STL::_Select1st<_STL::pair<_STL::basic_string<char,_STL::char_traits<char>,_STL::allocator<char> > const ,unsigned long> >,_STL::less<_STL::basic_string<char,_STL::char_traits<char>,_STL::allocator<char> > >,_STL::allocator<_STL::pair<_STL::basic_string<char,_STL::char_traits<char>,_STL::allocator<char> > const ,unsigned long> > >::_Rb_tree<_STL::basic_string<char,_STL::char_traits<char>,_STL::allocator<char> >,_STL::pair<_STL::basic_string<char,_STL::char_traits<char>,_STL::allocator<char> > const ,unsigned long>,_STL::_Select1st<_STL::pair<_STL::basic_string<char,_STL::char_traits<char>,_STL::allocator<char> > const ,unsigned long> >,_STL::less<_STL::basic_string<char,_STL::char_traits<char>,_STL::allocator<char> > >,_STL::allocator<_STL::pair<_STL::basic_string<char,_STL::char_traits<char>,_STL::allocator<char> > const ,unsigned long> > >, COMDAT
; _this$ = ecx

; 325  :     { _M_empty_initialize(); }

  00000	56		 push	 esi
  00001	ff 74 24 0c	 push	 DWORD PTR ___a$[esp]
  00005	8b f1		 mov	 esi, ecx
  00007	e8 00 00 00 00	 call	 ??0?$_Rb_tree_base@U?$pair@$$CBV?$basic_string@DV?$char_traits@D@_STL@@V?$allocator@D@2@@_STL@@K@_STL@@V?$allocator@U?$pair@$$CBV?$basic_string@DV?$char_traits@D@_STL@@V?$allocator@D@2@@_STL@@K@_STL@@@2@@_STL@@QAE@ABV?$allocator@U?$pair@$$CBV?$basic_string@DV?$char_traits@D@_STL@@V?$allocator@D@2@@_STL@@K@_STL@@@1@@Z ; _STL::_Rb_tree_base<_STL::pair<_STL::basic_string<char,_STL::char_traits<char>,_STL::allocator<char> > const ,unsigned long>,_STL::allocator<_STL::pair<_STL::basic_string<char,_STL::char_traits<char>,_STL::allocator<char> > const ,unsigned long> > >::_Rb_tree_base<_STL::pair<_STL::basic_string<char,_STL::char_traits<char>,_STL::allocator<char> > const ,unsigned long>,_STL::allocator<_STL::pair<_STL::basic_string<char,_STL::char_traits<char>,_STL::allocator<char> > const ,unsigned long> > >
  0000c	8b 0e		 mov	 ecx, DWORD PTR [esi]
  0000e	33 c0		 xor	 eax, eax
  00010	89 46 04	 mov	 DWORD PTR [esi+4], eax
  00013	88 01		 mov	 BYTE PTR [ecx], al
  00015	8b 0e		 mov	 ecx, DWORD PTR [esi]
  00017	89 41 04	 mov	 DWORD PTR [ecx+4], eax
  0001a	8b 06		 mov	 eax, DWORD PTR [esi]
  0001c	89 40 08	 mov	 DWORD PTR [eax+8], eax
  0001f	8b 06		 mov	 eax, DWORD PTR [esi]
  00021	89 40 0c	 mov	 DWORD PTR [eax+12], eax
  00024	8b c6		 mov	 eax, esi
  00026	5e		 pop	 esi
  00027	c2 08 00	 ret	 8
??0?$_Rb_tree@V?$basic_string@DV?$char_traits@D@_STL@@V?$allocator@D@2@@_STL@@U?$pair@$$CBV?$basic_string@DV?$char_traits@D@_STL@@V?$allocator@D@2@@_STL@@K@2@U?$_Select1st@U?$pair@$$CBV?$basic_string@DV?$char_traits@D@_STL@@V?$allocator@D@2@@_STL@@K@_STL@@@2@U?$less@V?$basic_string@DV?$char_traits@D@_STL@@V?$allocator@D@2@@_STL@@@2@V?$allocator@U?$pair@$$CBV?$basic_string@DV?$char_traits@D@_STL@@V?$allocator@D@2@@_STL@@K@_STL@@@2@@_STL@@QAE@ABU?$less@V?$basic_string@DV?$char_traits@D@_STL@@V?$allocator@D@2@@_STL@@@1@ABV?$allocator@U?$pair@$$CBV?$basic_string@DV?$char_traits@D@_STL@@V?$allocator@D@2@@_STL@@K@_STL@@@1@@Z ENDP ; _STL::_Rb_tree<_STL::basic_string<char,_STL::char_traits<char>,_STL::allocator<char> >,_STL::pair<_STL::basic_string<char,_STL::char_traits<char>,_STL::allocator<char> > const ,unsigned long>,_STL::_Select1st<_STL::pair<_STL::basic_string<char,_STL::char_traits<char>,_STL::allocator<char> > const ,unsigned long> >,_STL::less<_STL::basic_string<char,_STL::char_traits<char>,_STL::allocator<char> > >,_STL::allocator<_STL::pair<_STL::basic_string<char,_STL::char_traits<char>,_STL::allocator<char> > const ,unsigned long> > >::_Rb_tree<_STL::basic_string<char,_STL::char_traits<char>,_STL::allocator<char> >,_STL::pair<_STL::basic_string<char,_STL::char_traits<char>,_STL::allocator<char> > const ,unsigned long>,_STL::_Select1st<_STL::pair<_STL::basic_string<char,_STL::char_traits<char>,_STL::allocator<char> > const ,unsigned long> >,_STL::less<_STL::basic_string<char,_STL::char_traits<char>,_STL::allocator<char> > >,_STL::allocator<_STL::pair<_STL::basic_string<char,_STL::char_traits<char>,_STL::allocator<char> > const ,unsigned long> > >
_TEXT	ENDS
PUBLIC	??R?$less@V?$basic_string@DV?$char_traits@D@_STL@@V?$allocator@D@2@@_STL@@@_STL@@QBE_NABV?$basic_string@DV?$char_traits@D@_STL@@V?$allocator@D@2@@1@0@Z ; _STL::less<_STL::basic_string<char,_STL::char_traits<char>,_STL::allocator<char> > >::operator()
; Function compile flags: /Ogsy
; File c:\stlport-4.6.1\stlport\stl\_function_base.h
;	COMDAT ??R?$less@V?$basic_string@DV?$char_traits@D@_STL@@V?$allocator@D@2@@_STL@@@_STL@@QBE_NABV?$basic_string@DV?$char_traits@D@_STL@@V?$allocator@D@2@@1@0@Z
_TEXT	SEGMENT
___x$ = 8						; size = 4
___y$ = 12						; size = 4
??R?$less@V?$basic_string@DV?$char_traits@D@_STL@@V?$allocator@D@2@@_STL@@@_STL@@QBE_NABV?$basic_string@DV?$char_traits@D@_STL@@V?$allocator@D@2@@1@0@Z PROC NEAR ; _STL::less<_STL::basic_string<char,_STL::char_traits<char>,_STL::allocator<char> > >::operator(), COMDAT
; _this$ = ecx

; 73   :   bool operator()(const _Tp& __x, const _Tp& __y) const { return __x < __y; }

  00000	ff 74 24 08	 push	 DWORD PTR ___y$[esp-4]
  00004	ff 74 24 08	 push	 DWORD PTR ___x$[esp]
  00008	e8 00 00 00 00	 call	 ??$?MDV?$char_traits@D@_STL@@V?$allocator@D@1@@_STL@@YA_NABV?$basic_string@DV?$char_traits@D@_STL@@V?$allocator@D@2@@0@0@Z ; _STL::operator<<char,_STL::char_traits<char>,_STL::allocator<char> >
  0000d	59		 pop	 ecx
  0000e	59		 pop	 ecx
  0000f	c2 08 00	 ret	 8
??R?$less@V?$basic_string@DV?$char_traits@D@_STL@@V?$allocator@D@2@@_STL@@@_STL@@QBE_NABV?$basic_string@DV?$char_traits@D@_STL@@V?$allocator@D@2@@1@0@Z ENDP ; _STL::less<_STL::basic_string<char,_STL::char_traits<char>,_STL::allocator<char> > >::operator()
_TEXT	ENDS
PUBLIC	?_M_lower_bound@?$_Rb_tree@V?$basic_string@DV?$char_traits@D@_STL@@V?$allocator@D@2@@_STL@@U?$pair@$$CBV?$basic_string@DV?$char_traits@D@_STL@@V?$allocator@D@2@@_STL@@K@2@U?$_Select1st@U?$pair@$$CBV?$basic_string@DV?$char_traits@D@_STL@@V?$allocator@D@2@@_STL@@K@_STL@@@2@U?$less@V?$basic_string@DV?$char_traits@D@_STL@@V?$allocator@D@2@@_STL@@@2@V?$allocator@U?$pair@$$CBV?$basic_string@DV?$char_traits@D@_STL@@V?$allocator@D@2@@_STL@@K@_STL@@@2@@_STL@@ABEPAU?$_Rb_tree_node@U?$pair@$$CBV?$basic_string@DV?$char_traits@D@_STL@@V?$allocator@D@2@@_STL@@K@_STL@@@2@ABV?$basic_string@DV?$char_traits@D@_STL@@V?$allocator@D@2@@2@@Z ; _STL::_Rb_tree<_STL::basic_string<char,_STL::char_traits<char>,_STL::allocator<char> >,_STL::pair<_STL::basic_string<char,_STL::char_traits<char>,_STL::allocator<char> > const ,unsigned long>,_STL::_Select1st<_STL::pair<_STL::basic_string<char,_STL::char_traits<char>,_STL::allocator<char> > const ,unsigned long> >,_STL::less<_STL::basic_string<char,_STL::char_traits<char>,_STL::allocator<char> > >,_STL::allocator<_STL::pair<_STL::basic_string<char,_STL::char_traits<char>,_STL::allocator<char> > const ,unsigned long> > >::_M_lower_bound
; Function compile flags: /Ogsy
; File c:\stlport-4.6.1\stlport\stl\_tree.h
;	COMDAT ?_M_lower_bound@?$_Rb_tree@V?$basic_string@DV?$char_traits@D@_STL@@V?$allocator@D@2@@_STL@@U?$pair@$$CBV?$basic_string@DV?$char_traits@D@_STL@@V?$allocator@D@2@@_STL@@K@2@U?$_Select1st@U?$pair@$$CBV?$basic_string@DV?$char_traits@D@_STL@@V?$allocator@D@2@@_STL@@K@_STL@@@2@U?$less@V?$basic_string@DV?$char_traits@D@_STL@@V?$allocator@D@2@@_STL@@@2@V?$allocator@U?$pair@$$CBV?$basic_string@DV?$char_traits@D@_STL@@V?$allocator@D@2@@_STL@@K@_STL@@@2@@_STL@@ABEPAU?$_Rb_tree_node@U?$pair@$$CBV?$basic_string@DV?$char_traits@D@_STL@@V?$allocator@D@2@@_STL@@K@_STL@@@2@ABV?$basic_string@DV?$char_traits@D@_STL@@V?$allocator@D@2@@2@@Z
_TEXT	SEGMENT
___k$ = 8						; size = 4
?_M_lower_bound@?$_Rb_tree@V?$basic_string@DV?$char_traits@D@_STL@@V?$allocator@D@2@@_STL@@U?$pair@$$CBV?$basic_string@DV?$char_traits@D@_STL@@V?$allocator@D@2@@_STL@@K@2@U?$_Select1st@U?$pair@$$CBV?$basic_string@DV?$char_traits@D@_STL@@V?$allocator@D@2@@_STL@@K@_STL@@@2@U?$less@V?$basic_string@DV?$char_traits@D@_STL@@V?$allocator@D@2@@_STL@@@2@V?$allocator@U?$pair@$$CBV?$basic_string@DV?$char_traits@D@_STL@@V?$allocator@D@2@@_STL@@K@_STL@@@2@@_STL@@ABEPAU?$_Rb_tree_node@U?$pair@$$CBV?$basic_string@DV?$char_traits@D@_STL@@V?$allocator@D@2@@_STL@@K@_STL@@@2@ABV?$basic_string@DV?$char_traits@D@_STL@@V?$allocator@D@2@@2@@Z PROC NEAR ; _STL::_Rb_tree<_STL::basic_string<char,_STL::char_traits<char>,_STL::allocator<char> >,_STL::pair<_STL::basic_string<char,_STL::char_traits<char>,_STL::allocator<char> > const ,unsigned long>,_STL::_Select1st<_STL::pair<_STL::basic_string<char,_STL::char_traits<char>,_STL::allocator<char> > const ,unsigned long> >,_STL::less<_STL::basic_string<char,_STL::char_traits<char>,_STL::allocator<char> > >,_STL::allocator<_STL::pair<_STL::basic_string<char,_STL::char_traits<char>,_STL::allocator<char> > const ,unsigned long> > >::_M_lower_bound, COMDAT
; _this$ = ecx

; 482  :   _Link_type _M_lower_bound(const key_type& __k) const {

  00000	56		 push	 esi
  00001	57		 push	 edi

; 483  :     _Link_type __y = this->_M_header._M_data; /* Last node which is not less than __k. */

  00002	8b 39		 mov	 edi, DWORD PTR [ecx]

; 484  :     _Link_type __x = _M_root(); /* Current node. */

  00004	8b 77 04	 mov	 esi, DWORD PTR [edi+4]
  00007	eb 1d		 jmp	 SHORT $L103062
$L101485:

; 487  :       if (!_M_key_compare(_S_key(__x), __k))

  00009	ff 74 24 0c	 push	 DWORD PTR ___k$[esp+4]
  0000d	8d 46 10	 lea	 eax, DWORD PTR [esi+16]
  00010	50		 push	 eax
  00011	e8 00 00 00 00	 call	 ??$?MDV?$char_traits@D@_STL@@V?$allocator@D@1@@_STL@@YA_NABV?$basic_string@DV?$char_traits@D@_STL@@V?$allocator@D@2@@0@0@Z ; _STL::operator<<char,_STL::char_traits<char>,_STL::allocator<char> >
  00016	84 c0		 test	 al, al
  00018	59		 pop	 ecx
  00019	59		 pop	 ecx
  0001a	75 07		 jne	 SHORT $L101487

; 488  : 	__y = __x, __x = _S_left(__x);

  0001c	8b fe		 mov	 edi, esi
  0001e	8b 76 08	 mov	 esi, DWORD PTR [esi+8]

; 489  :       else

  00021	eb 03		 jmp	 SHORT $L103062
$L101487:

; 490  : 	__x = _S_right(__x);

  00023	8b 76 0c	 mov	 esi, DWORD PTR [esi+12]
$L103062:

; 485  :     
; 486  :     while (__x != 0) 

  00026	85 f6		 test	 esi, esi
  00028	75 df		 jne	 SHORT $L101485

; 491  :     
; 492  :     return __y;

  0002a	8b c7		 mov	 eax, edi
  0002c	5f		 pop	 edi
  0002d	5e		 pop	 esi

; 493  :   }

  0002e	c2 04 00	 ret	 4
?_M_lower_bound@?$_Rb_tree@V?$basic_string@DV?$char_traits@D@_STL@@V?$allocator@D@2@@_STL@@U?$pair@$$CBV?$basic_string@DV?$char_traits@D@_STL@@V?$allocator@D@2@@_STL@@K@2@U?$_Select1st@U?$pair@$$CBV?$basic_string@DV?$char_traits@D@_STL@@V?$allocator@D@2@@_STL@@K@_STL@@@2@U?$less@V?$basic_string@DV?$char_traits@D@_STL@@V?$allocator@D@2@@_STL@@@2@V?$allocator@U?$pair@$$CBV?$basic_string@DV?$char_traits@D@_STL@@V?$allocator@D@2@@_STL@@K@_STL@@@2@@_STL@@ABEPAU?$_Rb_tree_node@U?$pair@$$CBV?$basic_string@DV?$char_traits@D@_STL@@V?$allocator@D@2@@_STL@@K@_STL@@@2@ABV?$basic_string@DV?$char_traits@D@_STL@@V?$allocator@D@2@@2@@Z ENDP ; _STL::_Rb_tree<_STL::basic_string<char,_STL::char_traits<char>,_STL::allocator<char> >,_STL::pair<_STL::basic_string<char,_STL::char_traits<char>,_STL::allocator<char> > const ,unsigned long>,_STL::_Select1st<_STL::pair<_STL::basic_string<char,_STL::char_traits<char>,_STL::allocator<char> > const ,unsigned long> >,_STL::less<_STL::basic_string<char,_STL::char_traits<char>,_STL::allocator<char> > >,_STL::allocator<_STL::pair<_STL::basic_string<char,_STL::char_traits<char>,_STL::allocator<char> > const ,unsigned long> > >::_M_lower_bound
_TEXT	ENDS
PUBLIC	??$_M_range_initialize@PBD@?$basic_string@DV?$char_traits@D@_STL@@V?$allocator@D@2@@_STL@@AAEXPBD0@Z ; _STL::basic_string<char,_STL::char_traits<char>,_STL::allocator<char> >::_M_range_initialize<char const *>
; Function compile flags: /Ogsy
; File c:\stlport-4.6.1\stlport\stl\_string.h
;	COMDAT ??$_M_range_initialize@PBD@?$basic_string@DV?$char_traits@D@_STL@@V?$allocator@D@2@@_STL@@AAEXPBD0@Z
_TEXT	SEGMENT
___f$ = 8						; size = 4
___l$ = 12						; size = 4
$T103066 = 15						; size = 1
??$_M_range_initialize@PBD@?$basic_string@DV?$char_traits@D@_STL@@V?$allocator@D@2@@_STL@@AAEXPBD0@Z PROC NEAR ; _STL::basic_string<char,_STL::char_traits<char>,_STL::allocator<char> >::_M_range_initialize<char const *>, COMDAT
; _this$ = ecx

; 390  :   template <class _InputIter> void _M_range_initialize(_InputIter __f, _InputIter __l) {

  00000	55		 push	 ebp
  00001	8b ec		 mov	 ebp, esp

; 391  :     _M_range_initialize(__f, __l, _STLP_ITERATOR_CATEGORY(__f, _InputIter));

  00003	8d 45 0f	 lea	 eax, DWORD PTR $T103066[ebp]
  00006	50		 push	 eax
  00007	ff 75 0c	 push	 DWORD PTR ___l$[ebp]
  0000a	ff 75 08	 push	 DWORD PTR ___f$[ebp]
  0000d	e8 00 00 00 00	 call	 ??$_M_range_initialize@PBD@?$basic_string@DV?$char_traits@D@_STL@@V?$allocator@D@2@@_STL@@AAEXPBD0ABUforward_iterator_tag@1@@Z ; _STL::basic_string<char,_STL::char_traits<char>,_STL::allocator<char> >::_M_range_initialize<char const *>

; 392  :   }

  00012	5d		 pop	 ebp
  00013	c2 08 00	 ret	 8
??$_M_range_initialize@PBD@?$basic_string@DV?$char_traits@D@_STL@@V?$allocator@D@2@@_STL@@AAEXPBD0@Z ENDP ; _STL::basic_string<char,_STL::char_traits<char>,_STL::allocator<char> >::_M_range_initialize<char const *>
_TEXT	ENDS
PUBLIC	??$_M_find@V?$basic_string@DV?$char_traits@D@_STL@@V?$allocator@D@2@@_STL@@@?$_Rb_tree@V?$basic_string@DV?$char_traits@D@_STL@@V?$allocator@D@2@@_STL@@U?$pair@$$CBV?$basic_string@DV?$char_traits@D@_STL@@V?$allocator@D@2@@_STL@@K@2@U?$_Select1st@U?$pair@$$CBV?$basic_string@DV?$char_traits@D@_STL@@V?$allocator@D@2@@_STL@@K@_STL@@@2@U?$less@V?$basic_string@DV?$char_traits@D@_STL@@V?$allocator@D@2@@_STL@@@2@V?$allocator@U?$pair@$$CBV?$basic_string@DV?$char_traits@D@_STL@@V?$allocator@D@2@@_STL@@K@_STL@@@2@@_STL@@ABEPAU?$_Rb_tree_node@U?$pair@$$CBV?$basic_string@DV?$char_traits@D@_STL@@V?$allocator@D@2@@_STL@@K@_STL@@@1@ABV?$basic_string@DV?$char_traits@D@_STL@@V?$allocator@D@2@@1@@Z ; _STL::_Rb_tree<_STL::basic_string<char,_STL::char_traits<char>,_STL::allocator<char> >,_STL::pair<_STL::basic_string<char,_STL::char_traits<char>,_STL::allocator<char> > const ,unsigned long>,_STL::_Select1st<_STL::pair<_STL::basic_string<char,_STL::char_traits<char>,_STL::allocator<char> > const ,unsigned long> >,_STL::less<_STL::basic_string<char,_STL::char_traits<char>,_STL::allocator<char> > >,_STL::allocator<_STL::pair<_STL::basic_string<char,_STL::char_traits<char>,_STL::allocator<char> > const ,unsigned long> > >::_M_find<_STL::basic_string<char,_STL::char_traits<char>,_STL::allocator<char> > >
; Function compile flags: /Ogsy
; File c:\stlport-4.6.1\stlport\stl\_tree.h
;	COMDAT ??$_M_find@V?$basic_string@DV?$char_traits@D@_STL@@V?$allocator@D@2@@_STL@@@?$_Rb_tree@V?$basic_string@DV?$char_traits@D@_STL@@V?$allocator@D@2@@_STL@@U?$pair@$$CBV?$basic_string@DV?$char_traits@D@_STL@@V?$allocator@D@2@@_STL@@K@2@U?$_Select1st@U?$pair@$$CBV?$basic_string@DV?$char_traits@D@_STL@@V?$allocator@D@2@@_STL@@K@_STL@@@2@U?$less@V?$basic_string@DV?$char_traits@D@_STL@@V?$allocator@D@2@@_STL@@@2@V?$allocator@U?$pair@$$CBV?$basic_string@DV?$char_traits@D@_STL@@V?$allocator@D@2@@_STL@@K@_STL@@@2@@_STL@@ABEPAU?$_Rb_tree_node@U?$pair@$$CBV?$basic_string@DV?$char_traits@D@_STL@@V?$allocator@D@2@@_STL@@K@_STL@@@1@ABV?$basic_string@DV?$char_traits@D@_STL@@V?$allocator@D@2@@1@@Z
_TEXT	SEGMENT
___k$ = 8						; size = 4
??$_M_find@V?$basic_string@DV?$char_traits@D@_STL@@V?$allocator@D@2@@_STL@@@?$_Rb_tree@V?$basic_string@DV?$char_traits@D@_STL@@V?$allocator@D@2@@_STL@@U?$pair@$$CBV?$basic_string@DV?$char_traits@D@_STL@@V?$allocator@D@2@@_STL@@K@2@U?$_Select1st@U?$pair@$$CBV?$basic_string@DV?$char_traits@D@_STL@@V?$allocator@D@2@@_STL@@K@_STL@@@2@U?$less@V?$basic_string@DV?$char_traits@D@_STL@@V?$allocator@D@2@@_STL@@@2@V?$allocator@U?$pair@$$CBV?$basic_string@DV?$char_traits@D@_STL@@V?$allocator@D@2@@_STL@@K@_STL@@@2@@_STL@@ABEPAU?$_Rb_tree_node@U?$pair@$$CBV?$basic_string@DV?$char_traits@D@_STL@@V?$allocator@D@2@@_STL@@K@_STL@@@1@ABV?$basic_string@DV?$char_traits@D@_STL@@V?$allocator@D@2@@1@@Z PROC NEAR ; _STL::_Rb_tree<_STL::basic_string<char,_STL::char_traits<char>,_STL::allocator<char> >,_STL::pair<_STL::basic_string<char,_STL::char_traits<char>,_STL::allocator<char> > const ,unsigned long>,_STL::_Select1st<_STL::pair<_STL::basic_string<char,_STL::char_traits<char>,_STL::allocator<char> > const ,unsigned long> >,_STL::less<_STL::basic_string<char,_STL::char_traits<char>,_STL::allocator<char> > >,_STL::allocator<_STL::pair<_STL::basic_string<char,_STL::char_traits<char>,_STL::allocator<char> > const ,unsigned long> > >::_M_find<_STL::basic_string<char,_STL::char_traits<char>,_STL::allocator<char> > >, COMDAT
; _this$ = ecx

; 461  :   template <class _KT> _Rb_tree_node<_Value>* _M_find(const _KT& __k) const

  00000	53		 push	 ebx
  00001	56		 push	 esi
  00002	8b d9		 mov	 ebx, ecx
  00004	57		 push	 edi

; 462  : # else
; 463  :   iterator find(const key_type& __x) { return iterator(_M_find(__x)); }
; 464  :   const_iterator find(const key_type& __x) const { return const_iterator(_M_find(__x)); }
; 465  : private:
; 466  :   _Rb_tree_node<_Value>* _M_find(const key_type& __k) const
; 467  : # endif
; 468  :   {
; 469  :     _Link_type __y = this->_M_header._M_data;      // Last node which is not less than __k. 

  00005	8b 3b		 mov	 edi, DWORD PTR [ebx]

; 470  :     _Link_type __x = _M_root();      // Current node. 

  00007	8b 77 04	 mov	 esi, DWORD PTR [edi+4]
  0000a	eb 1d		 jmp	 SHORT $L103115
$L101986:

; 473  :       if (!_M_key_compare(_S_key(__x), __k))

  0000c	ff 74 24 10	 push	 DWORD PTR ___k$[esp+8]
  00010	8d 46 10	 lea	 eax, DWORD PTR [esi+16]
  00013	50		 push	 eax
  00014	e8 00 00 00 00	 call	 ??$?MDV?$char_traits@D@_STL@@V?$allocator@D@1@@_STL@@YA_NABV?$basic_string@DV?$char_traits@D@_STL@@V?$allocator@D@2@@0@0@Z ; _STL::operator<<char,_STL::char_traits<char>,_STL::allocator<char> >
  00019	84 c0		 test	 al, al
  0001b	59		 pop	 ecx
  0001c	59		 pop	 ecx
  0001d	75 07		 jne	 SHORT $L101988

; 474  : 	__y = __x, __x = _S_left(__x);

  0001f	8b fe		 mov	 edi, esi
  00021	8b 76 08	 mov	 esi, DWORD PTR [esi+8]

; 475  :       else

  00024	eb 03		 jmp	 SHORT $L103115
$L101988:

; 476  : 	__x = _S_right(__x);

  00026	8b 76 0c	 mov	 esi, DWORD PTR [esi+12]
$L103115:

; 471  :     
; 472  :     while (__x != 0) 

  00029	85 f6		 test	 esi, esi
  0002b	75 df		 jne	 SHORT $L101986

; 477  :     if (__y == this->_M_header._M_data || _M_key_compare(__k, _S_key(__y)))

  0002d	3b 3b		 cmp	 edi, DWORD PTR [ebx]
  0002f	74 13		 je	 SHORT $L101991
  00031	8d 47 10	 lea	 eax, DWORD PTR [edi+16]
  00034	50		 push	 eax
  00035	ff 74 24 14	 push	 DWORD PTR ___k$[esp+12]
  00039	e8 00 00 00 00	 call	 ??$?MDV?$char_traits@D@_STL@@V?$allocator@D@1@@_STL@@YA_NABV?$basic_string@DV?$char_traits@D@_STL@@V?$allocator@D@2@@0@0@Z ; _STL::operator<<char,_STL::char_traits<char>,_STL::allocator<char> >
  0003e	84 c0		 test	 al, al
  00040	59		 pop	 ecx
  00041	59		 pop	 ecx
  00042	74 02		 je	 SHORT $L101990
$L101991:

; 478  :       __y = this->_M_header._M_data;

  00044	8b 3b		 mov	 edi, DWORD PTR [ebx]
$L101990:

; 479  :     return __y;

  00046	8b c7		 mov	 eax, edi
  00048	5f		 pop	 edi
  00049	5e		 pop	 esi
  0004a	5b		 pop	 ebx

; 480  :   }

  0004b	c2 04 00	 ret	 4
??$_M_find@V?$basic_string@DV?$char_traits@D@_STL@@V?$allocator@D@2@@_STL@@@?$_Rb_tree@V?$basic_string@DV?$char_traits@D@_STL@@V?$allocator@D@2@@_STL@@U?$pair@$$CBV?$basic_string@DV?$char_traits@D@_STL@@V?$allocator@D@2@@_STL@@K@2@U?$_Select1st@U?$pair@$$CBV?$basic_string@DV?$char_traits@D@_STL@@V?$allocator@D@2@@_STL@@K@_STL@@@2@U?$less@V?$basic_string@DV?$char_traits@D@_STL@@V?$allocator@D@2@@_STL@@@2@V?$allocator@U?$pair@$$CBV?$basic_string@DV?$char_traits@D@_STL@@V?$allocator@D@2@@_STL@@K@_STL@@@2@@_STL@@ABEPAU?$_Rb_tree_node@U?$pair@$$CBV?$basic_string@DV?$char_traits@D@_STL@@V?$allocator@D@2@@_STL@@K@_STL@@@1@ABV?$basic_string@DV?$char_traits@D@_STL@@V?$allocator@D@2@@1@@Z ENDP ; _STL::_Rb_tree<_STL::basic_string<char,_STL::char_traits<char>,_STL::allocator<char> >,_STL::pair<_STL::basic_string<char,_STL::char_traits<char>,_STL::allocator<char> > const ,unsigned long>,_STL::_Select1st<_STL::pair<_STL::basic_string<char,_STL::char_traits<char>,_STL::allocator<char> > const ,unsigned long> >,_STL::less<_STL::basic_string<char,_STL::char_traits<char>,_STL::allocator<char> > >,_STL::allocator<_STL::pair<_STL::basic_string<char,_STL::char_traits<char>,_STL::allocator<char> > const ,unsigned long> > >::_M_find<_STL::basic_string<char,_STL::char_traits<char>,_STL::allocator<char> > >
_TEXT	ENDS
PUBLIC	??$uninitialized_copy@PADPAD@_STL@@YAPADPAD00@Z	; _STL::uninitialized_copy<char *,char *>
; Function compile flags: /Ogsy
; File c:\stlport-4.6.1\stlport\stl\_uninitialized.h
;	COMDAT ??$uninitialized_copy@PADPAD@_STL@@YAPADPAD00@Z
_TEXT	SEGMENT
___first$ = 8						; size = 4
___last$ = 12						; size = 4
___result$ = 16						; size = 4
??$uninitialized_copy@PADPAD@_STL@@YAPADPAD00@Z PROC NEAR ; _STL::uninitialized_copy<char *,char *>, COMDAT

; 79   :   return __uninitialized_copy(__first, __last, __result,  _IS_POD_ITER(__result, _ForwardIter));

  00000	e9 00 00 00 00	 jmp	 ?__copy_trivial@_STL@@YAPAXPBX0PAX@Z ; _STL::__copy_trivial
??$uninitialized_copy@PADPAD@_STL@@YAPADPAD00@Z ENDP	; _STL::uninitialized_copy<char *,char *>
_TEXT	ENDS
PUBLIC	??1?$_String_base@DV?$allocator@D@_STL@@@_STL@@QAE@XZ ; _STL::_String_base<char,_STL::allocator<char> >::~_String_base<char,_STL::allocator<char> >
; Function compile flags: /Ogsy
; File c:\stlport-4.6.1\stlport\stl\_string.h
;	COMDAT ??1?$_String_base@DV?$allocator@D@_STL@@@_STL@@QAE@XZ
_TEXT	SEGMENT
??1?$_String_base@DV?$allocator@D@_STL@@@_STL@@QAE@XZ PROC NEAR ; _STL::_String_base<char,_STL::allocator<char> >::~_String_base<char,_STL::allocator<char> >, COMDAT
; _this$ = ecx

; 135  :   ~_String_base() { _M_deallocate_block(); }

  00000	e9 00 00 00 00	 jmp	 ?_M_deallocate_block@?$_String_base@DV?$allocator@D@_STL@@@_STL@@QAEXXZ ; _STL::_String_base<char,_STL::allocator<char> >::_M_deallocate_block
??1?$_String_base@DV?$allocator@D@_STL@@@_STL@@QAE@XZ ENDP ; _STL::_String_base<char,_STL::allocator<char> >::~_String_base<char,_STL::allocator<char> >
_TEXT	ENDS
PUBLIC	??0?$basic_string@DV?$char_traits@D@_STL@@V?$allocator@D@2@@_STL@@QAE@PBDABV?$allocator@D@1@@Z ; _STL::basic_string<char,_STL::char_traits<char>,_STL::allocator<char> >::basic_string<char,_STL::char_traits<char>,_STL::allocator<char> >
EXTRN	__EH_prolog:NEAR
EXTRN	__except_list:DWORD
EXTRN	___CxxFrameHandler:NEAR
;	COMDAT xdata$x
xdata$x	SEGMENT
$T103197 DD	0ffffffffH
	DD	FLAT:$L103180
$T103193 DD	019930520H
	DD	01H
	DD	FLAT:$T103197
	DD	2 DUP(00H)
	DD	2 DUP(00H)
; Function compile flags: /Ogsy
; File c:\stlport-4.6.1\stlport\stl\_string.c
xdata$x	ENDS
;	COMDAT ??0?$basic_string@DV?$char_traits@D@_STL@@V?$allocator@D@2@@_STL@@QAE@PBDABV?$allocator@D@1@@Z
_TEXT	SEGMENT
_this$ = -16						; size = 4
__$EHRec$ = -12						; size = 12
___s$ = 8						; size = 4
$T103188 = 11						; size = 1
___a$ = 12						; size = 4
??0?$basic_string@DV?$char_traits@D@_STL@@V?$allocator@D@2@@_STL@@QAE@PBDABV?$allocator@D@1@@Z PROC NEAR ; _STL::basic_string<char,_STL::char_traits<char>,_STL::allocator<char> >::basic_string<char,_STL::char_traits<char>,_STL::allocator<char> >, COMDAT
; _this$ = ecx

; 552  : { 

  00000	b8 00 00 00 00	 mov	 eax, __ehhandler$??0?$basic_string@DV?$char_traits@D@_STL@@V?$allocator@D@2@@_STL@@QAE@PBDABV?$allocator@D@1@@Z
  00005	e8 00 00 00 00	 call	 __EH_prolog
  0000a	51		 push	 ecx
  0000b	56		 push	 esi
  0000c	ff 75 0c	 push	 DWORD PTR ___a$[ebp]
  0000f	8b f1		 mov	 esi, ecx
  00011	89 75 f0	 mov	 DWORD PTR _this$[ebp], esi
  00014	e8 00 00 00 00	 call	 ??0?$_String_base@DV?$allocator@D@_STL@@@_STL@@QAE@ABV?$allocator@D@1@@Z ; _STL::_String_base<char,_STL::allocator<char> >::_String_base<char,_STL::allocator<char> >

; 553  :   _STLP_FIX_LITERAL_BUG(__s) 
; 554  :     _M_range_initialize(__s, __s + traits_type::length(__s));  

  00019	ff 75 08	 push	 DWORD PTR ___s$[ebp]
  0001c	83 65 fc 00	 and	 DWORD PTR __$EHRec$[ebp+8], 0
  00020	e8 00 00 00 00	 call	 _strlen
  00025	03 45 08	 add	 eax, DWORD PTR ___s$[ebp]
  00028	59		 pop	 ecx
  00029	8d 4d 0b	 lea	 ecx, DWORD PTR $T103188[ebp]
  0002c	51		 push	 ecx
  0002d	50		 push	 eax
  0002e	ff 75 08	 push	 DWORD PTR ___s$[ebp]
  00031	8b ce		 mov	 ecx, esi
  00033	e8 00 00 00 00	 call	 ??$_M_range_initialize@PBD@?$basic_string@DV?$char_traits@D@_STL@@V?$allocator@D@2@@_STL@@AAEXPBD0ABUforward_iterator_tag@1@@Z ; _STL::basic_string<char,_STL::char_traits<char>,_STL::allocator<char> >::_M_range_initialize<char const *>

; 555  : } 

  00038	8b 4d f4	 mov	 ecx, DWORD PTR __$EHRec$[ebp]
  0003b	8b c6		 mov	 eax, esi
  0003d	5e		 pop	 esi
  0003e	64 89 0d 00 00
	00 00		 mov	 DWORD PTR fs:__except_list, ecx
  00045	c9		 leave
  00046	c2 08 00	 ret	 8
_TEXT	ENDS
;	COMDAT text$x
text$x	SEGMENT
$L103180:
  00000	8b 4d f0	 mov	 ecx, DWORD PTR _this$[ebp]
  00003	e9 00 00 00 00	 jmp	 ??1?$_String_base@DV?$allocator@D@_STL@@@_STL@@QAE@XZ ; _STL::_String_base<char,_STL::allocator<char> >::~_String_base<char,_STL::allocator<char> >
__ehhandler$??0?$basic_string@DV?$char_traits@D@_STL@@V?$allocator@D@2@@_STL@@QAE@PBDABV?$allocator@D@1@@Z:
  00008	b8 00 00 00 00	 mov	 eax, OFFSET FLAT:$T103193
  0000d	e9 00 00 00 00	 jmp	 ___CxxFrameHandler
text$x	ENDS
??0?$basic_string@DV?$char_traits@D@_STL@@V?$allocator@D@2@@_STL@@QAE@PBDABV?$allocator@D@1@@Z ENDP ; _STL::basic_string<char,_STL::char_traits<char>,_STL::allocator<char> >::basic_string<char,_STL::char_traits<char>,_STL::allocator<char> >
PUBLIC	?lower_bound@?$_Rb_tree@V?$basic_string@DV?$char_traits@D@_STL@@V?$allocator@D@2@@_STL@@U?$pair@$$CBV?$basic_string@DV?$char_traits@D@_STL@@V?$allocator@D@2@@_STL@@K@2@U?$_Select1st@U?$pair@$$CBV?$basic_string@DV?$char_traits@D@_STL@@V?$allocator@D@2@@_STL@@K@_STL@@@2@U?$less@V?$basic_string@DV?$char_traits@D@_STL@@V?$allocator@D@2@@_STL@@@2@V?$allocator@U?$pair@$$CBV?$basic_string@DV?$char_traits@D@_STL@@V?$allocator@D@2@@_STL@@K@_STL@@@2@@_STL@@QAE?AU?$_Rb_tree_iterator@U?$pair@$$CBV?$basic_string@DV?$char_traits@D@_STL@@V?$allocator@D@2@@_STL@@K@_STL@@U?$_Nonconst_traits@U?$pair@$$CBV?$basic_string@DV?$char_traits@D@_STL@@V?$allocator@D@2@@_STL@@K@_STL@@@2@@2@ABV?$basic_string@DV?$char_traits@D@_STL@@V?$allocator@D@2@@2@@Z ; _STL::_Rb_tree<_STL::basic_string<char,_STL::char_traits<char>,_STL::allocator<char> >,_STL::pair<_STL::basic_string<char,_STL::char_traits<char>,_STL::allocator<char> > const ,unsigned long>,_STL::_Select1st<_STL::pair<_STL::basic_string<char,_STL::char_traits<char>,_STL::allocator<char> > const ,unsigned long> >,_STL::less<_STL::basic_string<char,_STL::char_traits<char>,_STL::allocator<char> > >,_STL::allocator<_STL::pair<_STL::basic_string<char,_STL::char_traits<char>,_STL::allocator<char> > const ,unsigned long> > >::lower_bound
; Function compile flags: /Ogsy
; File c:\stlport-4.6.1\stlport\stl\_tree.h
;	COMDAT ?lower_bound@?$_Rb_tree@V?$basic_string@DV?$char_traits@D@_STL@@V?$allocator@D@2@@_STL@@U?$pair@$$CBV?$basic_string@DV?$char_traits@D@_STL@@V?$allocator@D@2@@_STL@@K@2@U?$_Select1st@U?$pair@$$CBV?$basic_string@DV?$char_traits@D@_STL@@V?$allocator@D@2@@_STL@@K@_STL@@@2@U?$less@V?$basic_string@DV?$char_traits@D@_STL@@V?$allocator@D@2@@_STL@@@2@V?$allocator@U?$pair@$$CBV?$basic_string@DV?$char_traits@D@_STL@@V?$allocator@D@2@@_STL@@K@_STL@@@2@@_STL@@QAE?AU?$_Rb_tree_iterator@U?$pair@$$CBV?$basic_string@DV?$char_traits@D@_STL@@V?$allocator@D@2@@_STL@@K@_STL@@U?$_Nonconst_traits@U?$pair@$$CBV?$basic_string@DV?$char_traits@D@_STL@@V?$allocator@D@2@@_STL@@K@_STL@@@2@@2@ABV?$basic_string@DV?$char_traits@D@_STL@@V?$allocator@D@2@@2@@Z
_TEXT	SEGMENT
___$ReturnUdt$ = 8					; size = 4
___x$ = 12						; size = 4
?lower_bound@?$_Rb_tree@V?$basic_string@DV?$char_traits@D@_STL@@V?$allocator@D@2@@_STL@@U?$pair@$$CBV?$basic_string@DV?$char_traits@D@_STL@@V?$allocator@D@2@@_STL@@K@2@U?$_Select1st@U?$pair@$$CBV?$basic_string@DV?$char_traits@D@_STL@@V?$allocator@D@2@@_STL@@K@_STL@@@2@U?$less@V?$basic_string@DV?$char_traits@D@_STL@@V?$allocator@D@2@@_STL@@@2@V?$allocator@U?$pair@$$CBV?$basic_string@DV?$char_traits@D@_STL@@V?$allocator@D@2@@_STL@@K@_STL@@@2@@_STL@@QAE?AU?$_Rb_tree_iterator@U?$pair@$$CBV?$basic_string@DV?$char_traits@D@_STL@@V?$allocator@D@2@@_STL@@K@_STL@@U?$_Nonconst_traits@U?$pair@$$CBV?$basic_string@DV?$char_traits@D@_STL@@V?$allocator@D@2@@_STL@@K@_STL@@@2@@2@ABV?$basic_string@DV?$char_traits@D@_STL@@V?$allocator@D@2@@2@@Z PROC NEAR ; _STL::_Rb_tree<_STL::basic_string<char,_STL::char_traits<char>,_STL::allocator<char> >,_STL::pair<_STL::basic_string<char,_STL::char_traits<char>,_STL::allocator<char> > const ,unsigned long>,_STL::_Select1st<_STL::pair<_STL::basic_string<char,_STL::char_traits<char>,_STL::allocator<char> > const ,unsigned long> >,_STL::less<_STL::basic_string<char,_STL::char_traits<char>,_STL::allocator<char> > >,_STL::allocator<_STL::pair<_STL::basic_string<char,_STL::char_traits<char>,_STL::allocator<char> > const ,unsigned long> > >::lower_bound, COMDAT
; _this$ = ecx

; 510  :   iterator lower_bound(const key_type& __x) { return iterator(_M_lower_bound(__x)); }

  00000	ff 74 24 08	 push	 DWORD PTR ___x$[esp-4]
  00004	e8 00 00 00 00	 call	 ?_M_lower_bound@?$_Rb_tree@V?$basic_string@DV?$char_traits@D@_STL@@V?$allocator@D@2@@_STL@@U?$pair@$$CBV?$basic_string@DV?$char_traits@D@_STL@@V?$allocator@D@2@@_STL@@K@2@U?$_Select1st@U?$pair@$$CBV?$basic_string@DV?$char_traits@D@_STL@@V?$allocator@D@2@@_STL@@K@_STL@@@2@U?$less@V?$basic_string@DV?$char_traits@D@_STL@@V?$allocator@D@2@@_STL@@@2@V?$allocator@U?$pair@$$CBV?$basic_string@DV?$char_traits@D@_STL@@V?$allocator@D@2@@_STL@@K@_STL@@@2@@_STL@@ABEPAU?$_Rb_tree_node@U?$pair@$$CBV?$basic_string@DV?$char_traits@D@_STL@@V?$allocator@D@2@@_STL@@K@_STL@@@2@ABV?$basic_string@DV?$char_traits@D@_STL@@V?$allocator@D@2@@2@@Z ; _STL::_Rb_tree<_STL::basic_string<char,_STL::char_traits<char>,_STL::allocator<char> >,_STL::pair<_STL::basic_string<char,_STL::char_traits<char>,_STL::allocator<char> > const ,unsigned long>,_STL::_Select1st<_STL::pair<_STL::basic_string<char,_STL::char_traits<char>,_STL::allocator<char> > const ,unsigned long> >,_STL::less<_STL::basic_string<char,_STL::char_traits<char>,_STL::allocator<char> > >,_STL::allocator<_STL::pair<_STL::basic_string<char,_STL::char_traits<char>,_STL::allocator<char> > const ,unsigned long> > >::_M_lower_bound
  00009	8b 4c 24 04	 mov	 ecx, DWORD PTR ___$ReturnUdt$[esp-4]
  0000d	89 01		 mov	 DWORD PTR [ecx], eax
  0000f	8b c1		 mov	 eax, ecx
  00011	c2 08 00	 ret	 8
?lower_bound@?$_Rb_tree@V?$basic_string@DV?$char_traits@D@_STL@@V?$allocator@D@2@@_STL@@U?$pair@$$CBV?$basic_string@DV?$char_traits@D@_STL@@V?$allocator@D@2@@_STL@@K@2@U?$_Select1st@U?$pair@$$CBV?$basic_string@DV?$char_traits@D@_STL@@V?$allocator@D@2@@_STL@@K@_STL@@@2@U?$less@V?$basic_string@DV?$char_traits@D@_STL@@V?$allocator@D@2@@_STL@@@2@V?$allocator@U?$pair@$$CBV?$basic_string@DV?$char_traits@D@_STL@@V?$allocator@D@2@@_STL@@K@_STL@@@2@@_STL@@QAE?AU?$_Rb_tree_iterator@U?$pair@$$CBV?$basic_string@DV?$char_traits@D@_STL@@V?$allocator@D@2@@_STL@@K@_STL@@U?$_Nonconst_traits@U?$pair@$$CBV?$basic_string@DV?$char_traits@D@_STL@@V?$allocator@D@2@@_STL@@K@_STL@@@2@@2@ABV?$basic_string@DV?$char_traits@D@_STL@@V?$allocator@D@2@@2@@Z ENDP ; _STL::_Rb_tree<_STL::basic_string<char,_STL::char_traits<char>,_STL::allocator<char> >,_STL::pair<_STL::basic_string<char,_STL::char_traits<char>,_STL::allocator<char> > const ,unsigned long>,_STL::_Select1st<_STL::pair<_STL::basic_string<char,_STL::char_traits<char>,_STL::allocator<char> > const ,unsigned long> >,_STL::less<_STL::basic_string<char,_STL::char_traits<char>,_STL::allocator<char> > >,_STL::allocator<_STL::pair<_STL::basic_string<char,_STL::char_traits<char>,_STL::allocator<char> > const ,unsigned long> > >::lower_bound
_TEXT	ENDS
PUBLIC	??$find@V?$basic_string@DV?$char_traits@D@_STL@@V?$allocator@D@2@@_STL@@@?$_Rb_tree@V?$basic_string@DV?$char_traits@D@_STL@@V?$allocator@D@2@@_STL@@U?$pair@$$CBV?$basic_string@DV?$char_traits@D@_STL@@V?$allocator@D@2@@_STL@@K@2@U?$_Select1st@U?$pair@$$CBV?$basic_string@DV?$char_traits@D@_STL@@V?$allocator@D@2@@_STL@@K@_STL@@@2@U?$less@V?$basic_string@DV?$char_traits@D@_STL@@V?$allocator@D@2@@_STL@@@2@V?$allocator@U?$pair@$$CBV?$basic_string@DV?$char_traits@D@_STL@@V?$allocator@D@2@@_STL@@K@_STL@@@2@@_STL@@QAE?AU?$_Rb_tree_iterator@U?$pair@$$CBV?$basic_string@DV?$char_traits@D@_STL@@V?$allocator@D@2@@_STL@@K@_STL@@U?$_Nonconst_traits@U?$pair@$$CBV?$basic_string@DV?$char_traits@D@_STL@@V?$allocator@D@2@@_STL@@K@_STL@@@2@@1@ABV?$basic_string@DV?$char_traits@D@_STL@@V?$allocator@D@2@@1@@Z ; _STL::_Rb_tree<_STL::basic_string<char,_STL::char_traits<char>,_STL::allocator<char> >,_STL::pair<_STL::basic_string<char,_STL::char_traits<char>,_STL::allocator<char> > const ,unsigned long>,_STL::_Select1st<_STL::pair<_STL::basic_string<char,_STL::char_traits<char>,_STL::allocator<char> > const ,unsigned long> >,_STL::less<_STL::basic_string<char,_STL::char_traits<char>,_STL::allocator<char> > >,_STL::allocator<_STL::pair<_STL::basic_string<char,_STL::char_traits<char>,_STL::allocator<char> > const ,unsigned long> > >::find<_STL::basic_string<char,_STL::char_traits<char>,_STL::allocator<char> > >
; Function compile flags: /Ogsy
;	COMDAT ??$find@V?$basic_string@DV?$char_traits@D@_STL@@V?$allocator@D@2@@_STL@@@?$_Rb_tree@V?$basic_string@DV?$char_traits@D@_STL@@V?$allocator@D@2@@_STL@@U?$pair@$$CBV?$basic_string@DV?$char_traits@D@_STL@@V?$allocator@D@2@@_STL@@K@2@U?$_Select1st@U?$pair@$$CBV?$basic_string@DV?$char_traits@D@_STL@@V?$allocator@D@2@@_STL@@K@_STL@@@2@U?$less@V?$basic_string@DV?$char_traits@D@_STL@@V?$allocator@D@2@@_STL@@@2@V?$allocator@U?$pair@$$CBV?$basic_string@DV?$char_traits@D@_STL@@V?$allocator@D@2@@_STL@@K@_STL@@@2@@_STL@@QAE?AU?$_Rb_tree_iterator@U?$pair@$$CBV?$basic_string@DV?$char_traits@D@_STL@@V?$allocator@D@2@@_STL@@K@_STL@@U?$_Nonconst_traits@U?$pair@$$CBV?$basic_string@DV?$char_traits@D@_STL@@V?$allocator@D@2@@_STL@@K@_STL@@@2@@1@ABV?$basic_string@DV?$char_traits@D@_STL@@V?$allocator@D@2@@1@@Z
_TEXT	SEGMENT
___$ReturnUdt$ = 8					; size = 4
___x$ = 12						; size = 4
??$find@V?$basic_string@DV?$char_traits@D@_STL@@V?$allocator@D@2@@_STL@@@?$_Rb_tree@V?$basic_string@DV?$char_traits@D@_STL@@V?$allocator@D@2@@_STL@@U?$pair@$$CBV?$basic_string@DV?$char_traits@D@_STL@@V?$allocator@D@2@@_STL@@K@2@U?$_Select1st@U?$pair@$$CBV?$basic_string@DV?$char_traits@D@_STL@@V?$allocator@D@2@@_STL@@K@_STL@@@2@U?$less@V?$basic_string@DV?$char_traits@D@_STL@@V?$allocator@D@2@@_STL@@@2@V?$allocator@U?$pair@$$CBV?$basic_string@DV?$char_traits@D@_STL@@V?$allocator@D@2@@_STL@@K@_STL@@@2@@_STL@@QAE?AU?$_Rb_tree_iterator@U?$pair@$$CBV?$basic_string@DV?$char_traits@D@_STL@@V?$allocator@D@2@@_STL@@K@_STL@@U?$_Nonconst_traits@U?$pair@$$CBV?$basic_string@DV?$char_traits@D@_STL@@V?$allocator@D@2@@_STL@@K@_STL@@@2@@1@ABV?$basic_string@DV?$char_traits@D@_STL@@V?$allocator@D@2@@1@@Z PROC NEAR ; _STL::_Rb_tree<_STL::basic_string<char,_STL::char_traits<char>,_STL::allocator<char> >,_STL::pair<_STL::basic_string<char,_STL::char_traits<char>,_STL::allocator<char> > const ,unsigned long>,_STL::_Select1st<_STL::pair<_STL::basic_string<char,_STL::char_traits<char>,_STL::allocator<char> > const ,unsigned long> >,_STL::less<_STL::basic_string<char,_STL::char_traits<char>,_STL::allocator<char> > >,_STL::allocator<_STL::pair<_STL::basic_string<char,_STL::char_traits<char>,_STL::allocator<char> > const ,unsigned long> > >::find<_STL::basic_string<char,_STL::char_traits<char>,_STL::allocator<char> > >, COMDAT
; _this$ = ecx

; 458  :   template <class _KT> iterator find(const _KT& __x) { return iterator(_M_find(__x)); }

  00000	ff 74 24 08	 push	 DWORD PTR ___x$[esp-4]
  00004	e8 00 00 00 00	 call	 ??$_M_find@V?$basic_string@DV?$char_traits@D@_STL@@V?$allocator@D@2@@_STL@@@?$_Rb_tree@V?$basic_string@DV?$char_traits@D@_STL@@V?$allocator@D@2@@_STL@@U?$pair@$$CBV?$basic_string@DV?$char_traits@D@_STL@@V?$allocator@D@2@@_STL@@K@2@U?$_Select1st@U?$pair@$$CBV?$basic_string@DV?$char_traits@D@_STL@@V?$allocator@D@2@@_STL@@K@_STL@@@2@U?$less@V?$basic_string@DV?$char_traits@D@_STL@@V?$allocator@D@2@@_STL@@@2@V?$allocator@U?$pair@$$CBV?$basic_string@DV?$char_traits@D@_STL@@V?$allocator@D@2@@_STL@@K@_STL@@@2@@_STL@@ABEPAU?$_Rb_tree_node@U?$pair@$$CBV?$basic_string@DV?$char_traits@D@_STL@@V?$allocator@D@2@@_STL@@K@_STL@@@1@ABV?$basic_string@DV?$char_traits@D@_STL@@V?$allocator@D@2@@1@@Z ; _STL::_Rb_tree<_STL::basic_string<char,_STL::char_traits<char>,_STL::allocator<char> >,_STL::pair<_STL::basic_string<char,_STL::char_traits<char>,_STL::allocator<char> > const ,unsigned long>,_STL::_Select1st<_STL::pair<_STL::basic_string<char,_STL::char_traits<char>,_STL::allocator<char> > const ,unsigned long> >,_STL::less<_STL::basic_string<char,_STL::char_traits<char>,_STL::allocator<char> > >,_STL::allocator<_STL::pair<_STL::basic_string<char,_STL::char_traits<char>,_STL::allocator<char> > const ,unsigned long> > >::_M_find<_STL::basic_string<char,_STL::char_traits<char>,_STL::allocator<char> > >
  00009	8b 4c 24 04	 mov	 ecx, DWORD PTR ___$ReturnUdt$[esp-4]
  0000d	89 01		 mov	 DWORD PTR [ecx], eax
  0000f	8b c1		 mov	 eax, ecx
  00011	c2 08 00	 ret	 8
??$find@V?$basic_string@DV?$char_traits@D@_STL@@V?$allocator@D@2@@_STL@@@?$_Rb_tree@V?$basic_string@DV?$char_traits@D@_STL@@V?$allocator@D@2@@_STL@@U?$pair@$$CBV?$basic_string@DV?$char_traits@D@_STL@@V?$allocator@D@2@@_STL@@K@2@U?$_Select1st@U?$pair@$$CBV?$basic_string@DV?$char_traits@D@_STL@@V?$allocator@D@2@@_STL@@K@_STL@@@2@U?$less@V?$basic_string@DV?$char_traits@D@_STL@@V?$allocator@D@2@@_STL@@@2@V?$allocator@U?$pair@$$CBV?$basic_string@DV?$char_traits@D@_STL@@V?$allocator@D@2@@_STL@@K@_STL@@@2@@_STL@@QAE?AU?$_Rb_tree_iterator@U?$pair@$$CBV?$basic_string@DV?$char_traits@D@_STL@@V?$allocator@D@2@@_STL@@K@_STL@@U?$_Nonconst_traits@U?$pair@$$CBV?$basic_string@DV?$char_traits@D@_STL@@V?$allocator@D@2@@_STL@@K@_STL@@@2@@1@ABV?$basic_string@DV?$char_traits@D@_STL@@V?$allocator@D@2@@1@@Z ENDP ; _STL::_Rb_tree<_STL::basic_string<char,_STL::char_traits<char>,_STL::allocator<char> >,_STL::pair<_STL::basic_string<char,_STL::char_traits<char>,_STL::allocator<char> > const ,unsigned long>,_STL::_Select1st<_STL::pair<_STL::basic_string<char,_STL::char_traits<char>,_STL::allocator<char> > const ,unsigned long> >,_STL::less<_STL::basic_string<char,_STL::char_traits<char>,_STL::allocator<char> > >,_STL::allocator<_STL::pair<_STL::basic_string<char,_STL::char_traits<char>,_STL::allocator<char> > const ,unsigned long> > >::find<_STL::basic_string<char,_STL::char_traits<char>,_STL::allocator<char> > >
_TEXT	ENDS
PUBLIC	??$find@V?$basic_string@DV?$char_traits@D@_STL@@V?$allocator@D@2@@_STL@@@?$_Rb_tree@V?$basic_string@DV?$char_traits@D@_STL@@V?$allocator@D@2@@_STL@@U?$pair@$$CBV?$basic_string@DV?$char_traits@D@_STL@@V?$allocator@D@2@@_STL@@K@2@U?$_Select1st@U?$pair@$$CBV?$basic_string@DV?$char_traits@D@_STL@@V?$allocator@D@2@@_STL@@K@_STL@@@2@U?$less@V?$basic_string@DV?$char_traits@D@_STL@@V?$allocator@D@2@@_STL@@@2@V?$allocator@U?$pair@$$CBV?$basic_string@DV?$char_traits@D@_STL@@V?$allocator@D@2@@_STL@@K@_STL@@@2@@_STL@@QBE?AU?$_Rb_tree_iterator@U?$pair@$$CBV?$basic_string@DV?$char_traits@D@_STL@@V?$allocator@D@2@@_STL@@K@_STL@@U?$_Const_traits@U?$pair@$$CBV?$basic_string@DV?$char_traits@D@_STL@@V?$allocator@D@2@@_STL@@K@_STL@@@2@@1@ABV?$basic_string@DV?$char_traits@D@_STL@@V?$allocator@D@2@@1@@Z ; _STL::_Rb_tree<_STL::basic_string<char,_STL::char_traits<char>,_STL::allocator<char> >,_STL::pair<_STL::basic_string<char,_STL::char_traits<char>,_STL::allocator<char> > const ,unsigned long>,_STL::_Select1st<_STL::pair<_STL::basic_string<char,_STL::char_traits<char>,_STL::allocator<char> > const ,unsigned long> >,_STL::less<_STL::basic_string<char,_STL::char_traits<char>,_STL::allocator<char> > >,_STL::allocator<_STL::pair<_STL::basic_string<char,_STL::char_traits<char>,_STL::allocator<char> > const ,unsigned long> > >::find<_STL::basic_string<char,_STL::char_traits<char>,_STL::allocator<char> > >
; Function compile flags: /Ogsy
;	COMDAT ??$find@V?$basic_string@DV?$char_traits@D@_STL@@V?$allocator@D@2@@_STL@@@?$_Rb_tree@V?$basic_string@DV?$char_traits@D@_STL@@V?$allocator@D@2@@_STL@@U?$pair@$$CBV?$basic_string@DV?$char_traits@D@_STL@@V?$allocator@D@2@@_STL@@K@2@U?$_Select1st@U?$pair@$$CBV?$basic_string@DV?$char_traits@D@_STL@@V?$allocator@D@2@@_STL@@K@_STL@@@2@U?$less@V?$basic_string@DV?$char_traits@D@_STL@@V?$allocator@D@2@@_STL@@@2@V?$allocator@U?$pair@$$CBV?$basic_string@DV?$char_traits@D@_STL@@V?$allocator@D@2@@_STL@@K@_STL@@@2@@_STL@@QBE?AU?$_Rb_tree_iterator@U?$pair@$$CBV?$basic_string@DV?$char_traits@D@_STL@@V?$allocator@D@2@@_STL@@K@_STL@@U?$_Const_traits@U?$pair@$$CBV?$basic_string@DV?$char_traits@D@_STL@@V?$allocator@D@2@@_STL@@K@_STL@@@2@@1@ABV?$basic_string@DV?$char_traits@D@_STL@@V?$allocator@D@2@@1@@Z
_TEXT	SEGMENT
___$ReturnUdt$ = 8					; size = 4
___x$ = 12						; size = 4
??$find@V?$basic_string@DV?$char_traits@D@_STL@@V?$allocator@D@2@@_STL@@@?$_Rb_tree@V?$basic_string@DV?$char_traits@D@_STL@@V?$allocator@D@2@@_STL@@U?$pair@$$CBV?$basic_string@DV?$char_traits@D@_STL@@V?$allocator@D@2@@_STL@@K@2@U?$_Select1st@U?$pair@$$CBV?$basic_string@DV?$char_traits@D@_STL@@V?$allocator@D@2@@_STL@@K@_STL@@@2@U?$less@V?$basic_string@DV?$char_traits@D@_STL@@V?$allocator@D@2@@_STL@@@2@V?$allocator@U?$pair@$$CBV?$basic_string@DV?$char_traits@D@_STL@@V?$allocator@D@2@@_STL@@K@_STL@@@2@@_STL@@QBE?AU?$_Rb_tree_iterator@U?$pair@$$CBV?$basic_string@DV?$char_traits@D@_STL@@V?$allocator@D@2@@_STL@@K@_STL@@U?$_Const_traits@U?$pair@$$CBV?$basic_string@DV?$char_traits@D@_STL@@V?$allocator@D@2@@_STL@@K@_STL@@@2@@1@ABV?$basic_string@DV?$char_traits@D@_STL@@V?$allocator@D@2@@1@@Z PROC NEAR ; _STL::_Rb_tree<_STL::basic_string<char,_STL::char_traits<char>,_STL::allocator<char> >,_STL::pair<_STL::basic_string<char,_STL::char_traits<char>,_STL::allocator<char> > const ,unsigned long>,_STL::_Select1st<_STL::pair<_STL::basic_string<char,_STL::char_traits<char>,_STL::allocator<char> > const ,unsigned long> >,_STL::less<_STL::basic_string<char,_STL::char_traits<char>,_STL::allocator<char> > >,_STL::allocator<_STL::pair<_STL::basic_string<char,_STL::char_traits<char>,_STL::allocator<char> > const ,unsigned long> > >::find<_STL::basic_string<char,_STL::char_traits<char>,_STL::allocator<char> > >, COMDAT
; _this$ = ecx

; 459  :   template <class _KT> const_iterator find(const _KT& __x) const { return const_iterator(_M_find(__x)); }

  00000	ff 74 24 08	 push	 DWORD PTR ___x$[esp-4]
  00004	e8 00 00 00 00	 call	 ??$_M_find@V?$basic_string@DV?$char_traits@D@_STL@@V?$allocator@D@2@@_STL@@@?$_Rb_tree@V?$basic_string@DV?$char_traits@D@_STL@@V?$allocator@D@2@@_STL@@U?$pair@$$CBV?$basic_string@DV?$char_traits@D@_STL@@V?$allocator@D@2@@_STL@@K@2@U?$_Select1st@U?$pair@$$CBV?$basic_string@DV?$char_traits@D@_STL@@V?$allocator@D@2@@_STL@@K@_STL@@@2@U?$less@V?$basic_string@DV?$char_traits@D@_STL@@V?$allocator@D@2@@_STL@@@2@V?$allocator@U?$pair@$$CBV?$basic_string@DV?$char_traits@D@_STL@@V?$allocator@D@2@@_STL@@K@_STL@@@2@@_STL@@ABEPAU?$_Rb_tree_node@U?$pair@$$CBV?$basic_string@DV?$char_traits@D@_STL@@V?$allocator@D@2@@_STL@@K@_STL@@@1@ABV?$basic_string@DV?$char_traits@D@_STL@@V?$allocator@D@2@@1@@Z ; _STL::_Rb_tree<_STL::basic_string<char,_STL::char_traits<char>,_STL::allocator<char> >,_STL::pair<_STL::basic_string<char,_STL::char_traits<char>,_STL::allocator<char> > const ,unsigned long>,_STL::_Select1st<_STL::pair<_STL::basic_string<char,_STL::char_traits<char>,_STL::allocator<char> > const ,unsigned long> >,_STL::less<_STL::basic_string<char,_STL::char_traits<char>,_STL::allocator<char> > >,_STL::allocator<_STL::pair<_STL::basic_string<char,_STL::char_traits<char>,_STL::allocator<char> > const ,unsigned long> > >::_M_find<_STL::basic_string<char,_STL::char_traits<char>,_STL::allocator<char> > >
  00009	8b 4c 24 04	 mov	 ecx, DWORD PTR ___$ReturnUdt$[esp-4]
  0000d	89 01		 mov	 DWORD PTR [ecx], eax
  0000f	8b c1		 mov	 eax, ecx
  00011	c2 08 00	 ret	 8
??$find@V?$basic_string@DV?$char_traits@D@_STL@@V?$allocator@D@2@@_STL@@@?$_Rb_tree@V?$basic_string@DV?$char_traits@D@_STL@@V?$allocator@D@2@@_STL@@U?$pair@$$CBV?$basic_string@DV?$char_traits@D@_STL@@V?$allocator@D@2@@_STL@@K@2@U?$_Select1st@U?$pair@$$CBV?$basic_string@DV?$char_traits@D@_STL@@V?$allocator@D@2@@_STL@@K@_STL@@@2@U?$less@V?$basic_string@DV?$char_traits@D@_STL@@V?$allocator@D@2@@_STL@@@2@V?$allocator@U?$pair@$$CBV?$basic_string@DV?$char_traits@D@_STL@@V?$allocator@D@2@@_STL@@K@_STL@@@2@@_STL@@QBE?AU?$_Rb_tree_iterator@U?$pair@$$CBV?$basic_string@DV?$char_traits@D@_STL@@V?$allocator@D@2@@_STL@@K@_STL@@U?$_Const_traits@U?$pair@$$CBV?$basic_string@DV?$char_traits@D@_STL@@V?$allocator@D@2@@_STL@@K@_STL@@@2@@1@ABV?$basic_string@DV?$char_traits@D@_STL@@V?$allocator@D@2@@1@@Z ENDP ; _STL::_Rb_tree<_STL::basic_string<char,_STL::char_traits<char>,_STL::allocator<char> >,_STL::pair<_STL::basic_string<char,_STL::char_traits<char>,_STL::allocator<char> > const ,unsigned long>,_STL::_Select1st<_STL::pair<_STL::basic_string<char,_STL::char_traits<char>,_STL::allocator<char> > const ,unsigned long> >,_STL::less<_STL::basic_string<char,_STL::char_traits<char>,_STL::allocator<char> > >,_STL::allocator<_STL::pair<_STL::basic_string<char,_STL::char_traits<char>,_STL::allocator<char> > const ,unsigned long> > >::find<_STL::basic_string<char,_STL::char_traits<char>,_STL::allocator<char> > >
_TEXT	ENDS
PUBLIC	??$_M_range_initialize@PAD@?$basic_string@DV?$char_traits@D@_STL@@V?$allocator@D@2@@_STL@@AAEXPAD0ABUforward_iterator_tag@1@@Z ; _STL::basic_string<char,_STL::char_traits<char>,_STL::allocator<char> >::_M_range_initialize<char *>
; Function compile flags: /Ogsy
; File c:\stlport-4.6.1\stlport\stl\_string.h
;	COMDAT ??$_M_range_initialize@PAD@?$basic_string@DV?$char_traits@D@_STL@@V?$allocator@D@2@@_STL@@AAEXPAD0ABUforward_iterator_tag@1@@Z
_TEXT	SEGMENT
___f$ = 8						; size = 4
___l$ = 12						; size = 4
___formal$ = 16						; size = 4
??$_M_range_initialize@PAD@?$basic_string@DV?$char_traits@D@_STL@@V?$allocator@D@2@@_STL@@AAEXPAD0ABUforward_iterator_tag@1@@Z PROC NEAR ; _STL::basic_string<char,_STL::char_traits<char>,_STL::allocator<char> >::_M_range_initialize<char *>, COMDAT
; _this$ = ecx

; 383  :                            const forward_iterator_tag &) {
; 384  :     difference_type __n = distance(__f, __l);
; 385  :     this->_M_allocate_block(__n + 1);

  00000	8b 44 24 08	 mov	 eax, DWORD PTR ___l$[esp-4]
  00004	2b 44 24 04	 sub	 eax, DWORD PTR ___f$[esp-4]
  00008	56		 push	 esi
  00009	40		 inc	 eax
  0000a	50		 push	 eax
  0000b	8b f1		 mov	 esi, ecx
  0000d	e8 00 00 00 00	 call	 ?_M_allocate_block@?$_String_base@DV?$allocator@D@_STL@@@_STL@@QAEXI@Z ; _STL::_String_base<char,_STL::allocator<char> >::_M_allocate_block

; 386  :     this->_M_finish = uninitialized_copy(__f, __l, this->_M_start);

  00012	ff 36		 push	 DWORD PTR [esi]
  00014	ff 74 24 10	 push	 DWORD PTR ___l$[esp+4]
  00018	ff 74 24 10	 push	 DWORD PTR ___f$[esp+8]
  0001c	e8 00 00 00 00	 call	 ?__copy_trivial@_STL@@YAPAXPBX0PAX@Z ; _STL::__copy_trivial
  00021	83 c4 0c	 add	 esp, 12			; 0000000cH
  00024	89 46 04	 mov	 DWORD PTR [esi+4], eax

; 387  :     _M_terminate_string();

  00027	c6 00 00	 mov	 BYTE PTR [eax], 0
  0002a	5e		 pop	 esi

; 388  :   }

  0002b	c2 0c 00	 ret	 12			; 0000000cH
??$_M_range_initialize@PAD@?$basic_string@DV?$char_traits@D@_STL@@V?$allocator@D@2@@_STL@@AAEXPAD0ABUforward_iterator_tag@1@@Z ENDP ; _STL::basic_string<char,_STL::char_traits<char>,_STL::allocator<char> >::_M_range_initialize<char *>
_TEXT	ENDS
PUBLIC	??1?$basic_string@DV?$char_traits@D@_STL@@V?$allocator@D@2@@_STL@@QAE@XZ ; _STL::basic_string<char,_STL::char_traits<char>,_STL::allocator<char> >::~basic_string<char,_STL::char_traits<char>,_STL::allocator<char> >
; Function compile flags: /Ogsy
;	COMDAT ??1?$basic_string@DV?$char_traits@D@_STL@@V?$allocator@D@2@@_STL@@QAE@XZ
_TEXT	SEGMENT
??1?$basic_string@DV?$char_traits@D@_STL@@V?$allocator@D@2@@_STL@@QAE@XZ PROC NEAR ; _STL::basic_string<char,_STL::char_traits<char>,_STL::allocator<char> >::~basic_string<char,_STL::char_traits<char>,_STL::allocator<char> >, COMDAT
; _this$ = ecx

; 305  :   ~basic_string() { _STLP_STD::_Destroy(this->_M_start, this->_M_finish + 1); }

  00000	e9 00 00 00 00	 jmp	 ?_M_deallocate_block@?$_String_base@DV?$allocator@D@_STL@@@_STL@@QAEXXZ ; _STL::_String_base<char,_STL::allocator<char> >::_M_deallocate_block
??1?$basic_string@DV?$char_traits@D@_STL@@V?$allocator@D@2@@_STL@@QAE@XZ ENDP ; _STL::basic_string<char,_STL::char_traits<char>,_STL::allocator<char> >::~basic_string<char,_STL::char_traits<char>,_STL::allocator<char> >
_TEXT	ENDS
PUBLIC	?find@?$map@V?$basic_string@DV?$char_traits@D@_STL@@V?$allocator@D@2@@_STL@@KU?$less@V?$basic_string@DV?$char_traits@D@_STL@@V?$allocator@D@2@@_STL@@@2@V?$allocator@U?$pair@$$CBV?$basic_string@DV?$char_traits@D@_STL@@V?$allocator@D@2@@_STL@@K@_STL@@@2@@_STL@@QAE?AU?$_Rb_tree_iterator@U?$pair@$$CBV?$basic_string@DV?$char_traits@D@_STL@@V?$allocator@D@2@@_STL@@K@_STL@@U?$_Nonconst_traits@U?$pair@$$CBV?$basic_string@DV?$char_traits@D@_STL@@V?$allocator@D@2@@_STL@@K@_STL@@@2@@2@ABV?$basic_string@DV?$char_traits@D@_STL@@V?$allocator@D@2@@2@@Z ; _STL::map<_STL::basic_string<char,_STL::char_traits<char>,_STL::allocator<char> >,unsigned long,_STL::less<_STL::basic_string<char,_STL::char_traits<char>,_STL::allocator<char> > >,_STL::allocator<_STL::pair<_STL::basic_string<char,_STL::char_traits<char>,_STL::allocator<char> > const ,unsigned long> > >::find
; Function compile flags: /Ogsy
; File c:\stlport-4.6.1\stlport\stl\_map.h
;	COMDAT ?find@?$map@V?$basic_string@DV?$char_traits@D@_STL@@V?$allocator@D@2@@_STL@@KU?$less@V?$basic_string@DV?$char_traits@D@_STL@@V?$allocator@D@2@@_STL@@@2@V?$allocator@U?$pair@$$CBV?$basic_string@DV?$char_traits@D@_STL@@V?$allocator@D@2@@_STL@@K@_STL@@@2@@_STL@@QAE?AU?$_Rb_tree_iterator@U?$pair@$$CBV?$basic_string@DV?$char_traits@D@_STL@@V?$allocator@D@2@@_STL@@K@_STL@@U?$_Nonconst_traits@U?$pair@$$CBV?$basic_string@DV?$char_traits@D@_STL@@V?$allocator@D@2@@_STL@@K@_STL@@@2@@2@ABV?$basic_string@DV?$char_traits@D@_STL@@V?$allocator@D@2@@2@@Z
_TEXT	SEGMENT
___$ReturnUdt$ = 8					; size = 4
___x$ = 12						; size = 4
?find@?$map@V?$basic_string@DV?$char_traits@D@_STL@@V?$allocator@D@2@@_STL@@KU?$less@V?$basic_string@DV?$char_traits@D@_STL@@V?$allocator@D@2@@_STL@@@2@V?$allocator@U?$pair@$$CBV?$basic_string@DV?$char_traits@D@_STL@@V?$allocator@D@2@@_STL@@K@_STL@@@2@@_STL@@QAE?AU?$_Rb_tree_iterator@U?$pair@$$CBV?$basic_string@DV?$char_traits@D@_STL@@V?$allocator@D@2@@_STL@@K@_STL@@U?$_Nonconst_traits@U?$pair@$$CBV?$basic_string@DV?$char_traits@D@_STL@@V?$allocator@D@2@@_STL@@K@_STL@@@2@@2@ABV?$basic_string@DV?$char_traits@D@_STL@@V?$allocator@D@2@@2@@Z PROC NEAR ; _STL::map<_STL::basic_string<char,_STL::char_traits<char>,_STL::allocator<char> >,unsigned long,_STL::less<_STL::basic_string<char,_STL::char_traits<char>,_STL::allocator<char> > >,_STL::allocator<_STL::pair<_STL::basic_string<char,_STL::char_traits<char>,_STL::allocator<char> > const ,unsigned long> > >::find, COMDAT
; _this$ = ecx

; 195  :   iterator find(const key_type& __x) { return _M_t.find(__x); }

  00000	ff 74 24 08	 push	 DWORD PTR ___x$[esp-4]
  00004	e8 00 00 00 00	 call	 ??$_M_find@V?$basic_string@DV?$char_traits@D@_STL@@V?$allocator@D@2@@_STL@@@?$_Rb_tree@V?$basic_string@DV?$char_traits@D@_STL@@V?$allocator@D@2@@_STL@@U?$pair@$$CBV?$basic_string@DV?$char_traits@D@_STL@@V?$allocator@D@2@@_STL@@K@2@U?$_Select1st@U?$pair@$$CBV?$basic_string@DV?$char_traits@D@_STL@@V?$allocator@D@2@@_STL@@K@_STL@@@2@U?$less@V?$basic_string@DV?$char_traits@D@_STL@@V?$allocator@D@2@@_STL@@@2@V?$allocator@U?$pair@$$CBV?$basic_string@DV?$char_traits@D@_STL@@V?$allocator@D@2@@_STL@@K@_STL@@@2@@_STL@@ABEPAU?$_Rb_tree_node@U?$pair@$$CBV?$basic_string@DV?$char_traits@D@_STL@@V?$allocator@D@2@@_STL@@K@_STL@@@1@ABV?$basic_string@DV?$char_traits@D@_STL@@V?$allocator@D@2@@1@@Z ; _STL::_Rb_tree<_STL::basic_string<char,_STL::char_traits<char>,_STL::allocator<char> >,_STL::pair<_STL::basic_string<char,_STL::char_traits<char>,_STL::allocator<char> > const ,unsigned long>,_STL::_Select1st<_STL::pair<_STL::basic_string<char,_STL::char_traits<char>,_STL::allocator<char> > const ,unsigned long> >,_STL::less<_STL::basic_string<char,_STL::char_traits<char>,_STL::allocator<char> > >,_STL::allocator<_STL::pair<_STL::basic_string<char,_STL::char_traits<char>,_STL::allocator<char> > const ,unsigned long> > >::_M_find<_STL::basic_string<char,_STL::char_traits<char>,_STL::allocator<char> > >
  00009	8b 4c 24 04	 mov	 ecx, DWORD PTR ___$ReturnUdt$[esp-4]
  0000d	89 01		 mov	 DWORD PTR [ecx], eax
  0000f	8b c1		 mov	 eax, ecx
  00011	c2 08 00	 ret	 8
?find@?$map@V?$basic_string@DV?$char_traits@D@_STL@@V?$allocator@D@2@@_STL@@KU?$less@V?$basic_string@DV?$char_traits@D@_STL@@V?$allocator@D@2@@_STL@@@2@V?$allocator@U?$pair@$$CBV?$basic_string@DV?$char_traits@D@_STL@@V?$allocator@D@2@@_STL@@K@_STL@@@2@@_STL@@QAE?AU?$_Rb_tree_iterator@U?$pair@$$CBV?$basic_string@DV?$char_traits@D@_STL@@V?$allocator@D@2@@_STL@@K@_STL@@U?$_Nonconst_traits@U?$pair@$$CBV?$basic_string@DV?$char_traits@D@_STL@@V?$allocator@D@2@@_STL@@K@_STL@@@2@@2@ABV?$basic_string@DV?$char_traits@D@_STL@@V?$allocator@D@2@@2@@Z ENDP ; _STL::map<_STL::basic_string<char,_STL::char_traits<char>,_STL::allocator<char> >,unsigned long,_STL::less<_STL::basic_string<char,_STL::char_traits<char>,_STL::allocator<char> > >,_STL::allocator<_STL::pair<_STL::basic_string<char,_STL::char_traits<char>,_STL::allocator<char> > const ,unsigned long> > >::find
_TEXT	ENDS
PUBLIC	?find@?$map@V?$basic_string@DV?$char_traits@D@_STL@@V?$allocator@D@2@@_STL@@KU?$less@V?$basic_string@DV?$char_traits@D@_STL@@V?$allocator@D@2@@_STL@@@2@V?$allocator@U?$pair@$$CBV?$basic_string@DV?$char_traits@D@_STL@@V?$allocator@D@2@@_STL@@K@_STL@@@2@@_STL@@QBE?AU?$_Rb_tree_iterator@U?$pair@$$CBV?$basic_string@DV?$char_traits@D@_STL@@V?$allocator@D@2@@_STL@@K@_STL@@U?$_Const_traits@U?$pair@$$CBV?$basic_string@DV?$char_traits@D@_STL@@V?$allocator@D@2@@_STL@@K@_STL@@@2@@2@ABV?$basic_string@DV?$char_traits@D@_STL@@V?$allocator@D@2@@2@@Z ; _STL::map<_STL::basic_string<char,_STL::char_traits<char>,_STL::allocator<char> >,unsigned long,_STL::less<_STL::basic_string<char,_STL::char_traits<char>,_STL::allocator<char> > >,_STL::allocator<_STL::pair<_STL::basic_string<char,_STL::char_traits<char>,_STL::allocator<char> > const ,unsigned long> > >::find
; Function compile flags: /Ogsy
;	COMDAT ?find@?$map@V?$basic_string@DV?$char_traits@D@_STL@@V?$allocator@D@2@@_STL@@KU?$less@V?$basic_string@DV?$char_traits@D@_STL@@V?$allocator@D@2@@_STL@@@2@V?$allocator@U?$pair@$$CBV?$basic_string@DV?$char_traits@D@_STL@@V?$allocator@D@2@@_STL@@K@_STL@@@2@@_STL@@QBE?AU?$_Rb_tree_iterator@U?$pair@$$CBV?$basic_string@DV?$char_traits@D@_STL@@V?$allocator@D@2@@_STL@@K@_STL@@U?$_Const_traits@U?$pair@$$CBV?$basic_string@DV?$char_traits@D@_STL@@V?$allocator@D@2@@_STL@@K@_STL@@@2@@2@ABV?$basic_string@DV?$char_traits@D@_STL@@V?$allocator@D@2@@2@@Z
_TEXT	SEGMENT
___$ReturnUdt$ = 8					; size = 4
___x$ = 12						; size = 4
?find@?$map@V?$basic_string@DV?$char_traits@D@_STL@@V?$allocator@D@2@@_STL@@KU?$less@V?$basic_string@DV?$char_traits@D@_STL@@V?$allocator@D@2@@_STL@@@2@V?$allocator@U?$pair@$$CBV?$basic_string@DV?$char_traits@D@_STL@@V?$allocator@D@2@@_STL@@K@_STL@@@2@@_STL@@QBE?AU?$_Rb_tree_iterator@U?$pair@$$CBV?$basic_string@DV?$char_traits@D@_STL@@V?$allocator@D@2@@_STL@@K@_STL@@U?$_Const_traits@U?$pair@$$CBV?$basic_string@DV?$char_traits@D@_STL@@V?$allocator@D@2@@_STL@@K@_STL@@@2@@2@ABV?$basic_string@DV?$char_traits@D@_STL@@V?$allocator@D@2@@2@@Z PROC NEAR ; _STL::map<_STL::basic_string<char,_STL::char_traits<char>,_STL::allocator<char> >,unsigned long,_STL::less<_STL::basic_string<char,_STL::char_traits<char>,_STL::allocator<char> > >,_STL::allocator<_STL::pair<_STL::basic_string<char,_STL::char_traits<char>,_STL::allocator<char> > const ,unsigned long> > >::find, COMDAT
; _this$ = ecx

; 196  :   const_iterator find(const key_type& __x) const { return _M_t.find(__x); }

  00000	ff 74 24 08	 push	 DWORD PTR ___x$[esp-4]
  00004	e8 00 00 00 00	 call	 ??$_M_find@V?$basic_string@DV?$char_traits@D@_STL@@V?$allocator@D@2@@_STL@@@?$_Rb_tree@V?$basic_string@DV?$char_traits@D@_STL@@V?$allocator@D@2@@_STL@@U?$pair@$$CBV?$basic_string@DV?$char_traits@D@_STL@@V?$allocator@D@2@@_STL@@K@2@U?$_Select1st@U?$pair@$$CBV?$basic_string@DV?$char_traits@D@_STL@@V?$allocator@D@2@@_STL@@K@_STL@@@2@U?$less@V?$basic_string@DV?$char_traits@D@_STL@@V?$allocator@D@2@@_STL@@@2@V?$allocator@U?$pair@$$CBV?$basic_string@DV?$char_traits@D@_STL@@V?$allocator@D@2@@_STL@@K@_STL@@@2@@_STL@@ABEPAU?$_Rb_tree_node@U?$pair@$$CBV?$basic_string@DV?$char_traits@D@_STL@@V?$allocator@D@2@@_STL@@K@_STL@@@1@ABV?$basic_string@DV?$char_traits@D@_STL@@V?$allocator@D@2@@1@@Z ; _STL::_Rb_tree<_STL::basic_string<char,_STL::char_traits<char>,_STL::allocator<char> >,_STL::pair<_STL::basic_string<char,_STL::char_traits<char>,_STL::allocator<char> > const ,unsigned long>,_STL::_Select1st<_STL::pair<_STL::basic_string<char,_STL::char_traits<char>,_STL::allocator<char> > const ,unsigned long> >,_STL::less<_STL::basic_string<char,_STL::char_traits<char>,_STL::allocator<char> > >,_STL::allocator<_STL::pair<_STL::basic_string<char,_STL::char_traits<char>,_STL::allocator<char> > const ,unsigned long> > >::_M_find<_STL::basic_string<char,_STL::char_traits<char>,_STL::allocator<char> > >
  00009	8b 4c 24 04	 mov	 ecx, DWORD PTR ___$ReturnUdt$[esp-4]
  0000d	89 01		 mov	 DWORD PTR [ecx], eax
  0000f	8b c1		 mov	 eax, ecx
  00011	c2 08 00	 ret	 8
?find@?$map@V?$basic_string@DV?$char_traits@D@_STL@@V?$allocator@D@2@@_STL@@KU?$less@V?$basic_string@DV?$char_traits@D@_STL@@V?$allocator@D@2@@_STL@@@2@V?$allocator@U?$pair@$$CBV?$basic_string@DV?$char_traits@D@_STL@@V?$allocator@D@2@@_STL@@K@_STL@@@2@@_STL@@QBE?AU?$_Rb_tree_iterator@U?$pair@$$CBV?$basic_string@DV?$char_traits@D@_STL@@V?$allocator@D@2@@_STL@@K@_STL@@U?$_Const_traits@U?$pair@$$CBV?$basic_string@DV?$char_traits@D@_STL@@V?$allocator@D@2@@_STL@@K@_STL@@@2@@2@ABV?$basic_string@DV?$char_traits@D@_STL@@V?$allocator@D@2@@2@@Z ENDP ; _STL::map<_STL::basic_string<char,_STL::char_traits<char>,_STL::allocator<char> >,unsigned long,_STL::less<_STL::basic_string<char,_STL::char_traits<char>,_STL::allocator<char> > >,_STL::allocator<_STL::pair<_STL::basic_string<char,_STL::char_traits<char>,_STL::allocator<char> > const ,unsigned long> > >::find
_TEXT	ENDS
PUBLIC	??1?$pair@$$CBV?$basic_string@DV?$char_traits@D@_STL@@V?$allocator@D@2@@_STL@@K@_STL@@QAE@XZ ; _STL::pair<_STL::basic_string<char,_STL::char_traits<char>,_STL::allocator<char> > const ,unsigned long>::~pair<_STL::basic_string<char,_STL::char_traits<char>,_STL::allocator<char> > const ,unsigned long>
; Function compile flags: /Ogsy
;	COMDAT ??1?$pair@$$CBV?$basic_string@DV?$char_traits@D@_STL@@V?$allocator@D@2@@_STL@@K@_STL@@QAE@XZ
_TEXT	SEGMENT
??1?$pair@$$CBV?$basic_string@DV?$char_traits@D@_STL@@V?$allocator@D@2@@_STL@@K@_STL@@QAE@XZ PROC NEAR ; _STL::pair<_STL::basic_string<char,_STL::char_traits<char>,_STL::allocator<char> > const ,unsigned long>::~pair<_STL::basic_string<char,_STL::char_traits<char>,_STL::allocator<char> > const ,unsigned long>, COMDAT
; _this$ = ecx
  00000	e9 00 00 00 00	 jmp	 ?_M_deallocate_block@?$_String_base@DV?$allocator@D@_STL@@@_STL@@QAEXXZ ; _STL::_String_base<char,_STL::allocator<char> >::_M_deallocate_block
??1?$pair@$$CBV?$basic_string@DV?$char_traits@D@_STL@@V?$allocator@D@2@@_STL@@K@_STL@@QAE@XZ ENDP ; _STL::pair<_STL::basic_string<char,_STL::char_traits<char>,_STL::allocator<char> > const ,unsigned long>::~pair<_STL::basic_string<char,_STL::char_traits<char>,_STL::allocator<char> > const ,unsigned long>
_TEXT	ENDS
PUBLIC	?lower_bound@?$map@V?$basic_string@DV?$char_traits@D@_STL@@V?$allocator@D@2@@_STL@@KU?$less@V?$basic_string@DV?$char_traits@D@_STL@@V?$allocator@D@2@@_STL@@@2@V?$allocator@U?$pair@$$CBV?$basic_string@DV?$char_traits@D@_STL@@V?$allocator@D@2@@_STL@@K@_STL@@@2@@_STL@@QAE?AU?$_Rb_tree_iterator@U?$pair@$$CBV?$basic_string@DV?$char_traits@D@_STL@@V?$allocator@D@2@@_STL@@K@_STL@@U?$_Nonconst_traits@U?$pair@$$CBV?$basic_string@DV?$char_traits@D@_STL@@V?$allocator@D@2@@_STL@@K@_STL@@@2@@2@ABV?$basic_string@DV?$char_traits@D@_STL@@V?$allocator@D@2@@2@@Z ; _STL::map<_STL::basic_string<char,_STL::char_traits<char>,_STL::allocator<char> >,unsigned long,_STL::less<_STL::basic_string<char,_STL::char_traits<char>,_STL::allocator<char> > >,_STL::allocator<_STL::pair<_STL::basic_string<char,_STL::char_traits<char>,_STL::allocator<char> > const ,unsigned long> > >::lower_bound
; Function compile flags: /Ogsy
;	COMDAT ?lower_bound@?$map@V?$basic_string@DV?$char_traits@D@_STL@@V?$allocator@D@2@@_STL@@KU?$less@V?$basic_string@DV?$char_traits@D@_STL@@V?$allocator@D@2@@_STL@@@2@V?$allocator@U?$pair@$$CBV?$basic_string@DV?$char_traits@D@_STL@@V?$allocator@D@2@@_STL@@K@_STL@@@2@@_STL@@QAE?AU?$_Rb_tree_iterator@U?$pair@$$CBV?$basic_string@DV?$char_traits@D@_STL@@V?$allocator@D@2@@_STL@@K@_STL@@U?$_Nonconst_traits@U?$pair@$$CBV?$basic_string@DV?$char_traits@D@_STL@@V?$allocator@D@2@@_STL@@K@_STL@@@2@@2@ABV?$basic_string@DV?$char_traits@D@_STL@@V?$allocator@D@2@@2@@Z
_TEXT	SEGMENT
___$ReturnUdt$ = 8					; size = 4
___x$ = 12						; size = 4
?lower_bound@?$map@V?$basic_string@DV?$char_traits@D@_STL@@V?$allocator@D@2@@_STL@@KU?$less@V?$basic_string@DV?$char_traits@D@_STL@@V?$allocator@D@2@@_STL@@@2@V?$allocator@U?$pair@$$CBV?$basic_string@DV?$char_traits@D@_STL@@V?$allocator@D@2@@_STL@@K@_STL@@@2@@_STL@@QAE?AU?$_Rb_tree_iterator@U?$pair@$$CBV?$basic_string@DV?$char_traits@D@_STL@@V?$allocator@D@2@@_STL@@K@_STL@@U?$_Nonconst_traits@U?$pair@$$CBV?$basic_string@DV?$char_traits@D@_STL@@V?$allocator@D@2@@_STL@@K@_STL@@@2@@2@ABV?$basic_string@DV?$char_traits@D@_STL@@V?$allocator@D@2@@2@@Z PROC NEAR ; _STL::map<_STL::basic_string<char,_STL::char_traits<char>,_STL::allocator<char> >,unsigned long,_STL::less<_STL::basic_string<char,_STL::char_traits<char>,_STL::allocator<char> > >,_STL::allocator<_STL::pair<_STL::basic_string<char,_STL::char_traits<char>,_STL::allocator<char> > const ,unsigned long> > >::lower_bound, COMDAT
; _this$ = ecx

; 200  :   iterator lower_bound(const key_type& __x) {return _M_t.lower_bound(__x); }

  00000	ff 74 24 08	 push	 DWORD PTR ___x$[esp-4]
  00004	e8 00 00 00 00	 call	 ?_M_lower_bound@?$_Rb_tree@V?$basic_string@DV?$char_traits@D@_STL@@V?$allocator@D@2@@_STL@@U?$pair@$$CBV?$basic_string@DV?$char_traits@D@_STL@@V?$allocator@D@2@@_STL@@K@2@U?$_Select1st@U?$pair@$$CBV?$basic_string@DV?$char_traits@D@_STL@@V?$allocator@D@2@@_STL@@K@_STL@@@2@U?$less@V?$basic_string@DV?$char_traits@D@_STL@@V?$allocator@D@2@@_STL@@@2@V?$allocator@U?$pair@$$CBV?$basic_string@DV?$char_traits@D@_STL@@V?$allocator@D@2@@_STL@@K@_STL@@@2@@_STL@@ABEPAU?$_Rb_tree_node@U?$pair@$$CBV?$basic_string@DV?$char_traits@D@_STL@@V?$allocator@D@2@@_STL@@K@_STL@@@2@ABV?$basic_string@DV?$char_traits@D@_STL@@V?$allocator@D@2@@2@@Z ; _STL::_Rb_tree<_STL::basic_string<char,_STL::char_traits<char>,_STL::allocator<char> >,_STL::pair<_STL::basic_string<char,_STL::char_traits<char>,_STL::allocator<char> > const ,unsigned long>,_STL::_Select1st<_STL::pair<_STL::basic_string<char,_STL::char_traits<char>,_STL::allocator<char> > const ,unsigned long> >,_STL::less<_STL::basic_string<char,_STL::char_traits<char>,_STL::allocator<char> > >,_STL::allocator<_STL::pair<_STL::basic_string<char,_STL::char_traits<char>,_STL::allocator<char> > const ,unsigned long> > >::_M_lower_bound
  00009	8b 4c 24 04	 mov	 ecx, DWORD PTR ___$ReturnUdt$[esp-4]
  0000d	89 01		 mov	 DWORD PTR [ecx], eax
  0000f	8b c1		 mov	 eax, ecx
  00011	c2 08 00	 ret	 8
?lower_bound@?$map@V?$basic_string@DV?$char_traits@D@_STL@@V?$allocator@D@2@@_STL@@KU?$less@V?$basic_string@DV?$char_traits@D@_STL@@V?$allocator@D@2@@_STL@@@2@V?$allocator@U?$pair@$$CBV?$basic_string@DV?$char_traits@D@_STL@@V?$allocator@D@2@@_STL@@K@_STL@@@2@@_STL@@QAE?AU?$_Rb_tree_iterator@U?$pair@$$CBV?$basic_string@DV?$char_traits@D@_STL@@V?$allocator@D@2@@_STL@@K@_STL@@U?$_Nonconst_traits@U?$pair@$$CBV?$basic_string@DV?$char_traits@D@_STL@@V?$allocator@D@2@@_STL@@K@_STL@@@2@@2@ABV?$basic_string@DV?$char_traits@D@_STL@@V?$allocator@D@2@@2@@Z ENDP ; _STL::map<_STL::basic_string<char,_STL::char_traits<char>,_STL::allocator<char> >,unsigned long,_STL::less<_STL::basic_string<char,_STL::char_traits<char>,_STL::allocator<char> > >,_STL::allocator<_STL::pair<_STL::basic_string<char,_STL::char_traits<char>,_STL::allocator<char> > const ,unsigned long> > >::lower_bound
_TEXT	ENDS
PUBLIC	??$_M_range_initialize@PAD@?$basic_string@DV?$char_traits@D@_STL@@V?$allocator@D@2@@_STL@@AAEXPAD0@Z ; _STL::basic_string<char,_STL::char_traits<char>,_STL::allocator<char> >::_M_range_initialize<char *>
; Function compile flags: /Ogsy
; File c:\stlport-4.6.1\stlport\stl\_string.h
;	COMDAT ??$_M_range_initialize@PAD@?$basic_string@DV?$char_traits@D@_STL@@V?$allocator@D@2@@_STL@@AAEXPAD0@Z
_TEXT	SEGMENT
___f$ = 8						; size = 4
___l$ = 12						; size = 4
$T103418 = 15						; size = 1
??$_M_range_initialize@PAD@?$basic_string@DV?$char_traits@D@_STL@@V?$allocator@D@2@@_STL@@AAEXPAD0@Z PROC NEAR ; _STL::basic_string<char,_STL::char_traits<char>,_STL::allocator<char> >::_M_range_initialize<char *>, COMDAT
; _this$ = ecx

; 390  :   template <class _InputIter> void _M_range_initialize(_InputIter __f, _InputIter __l) {

  00000	55		 push	 ebp
  00001	8b ec		 mov	 ebp, esp

; 391  :     _M_range_initialize(__f, __l, _STLP_ITERATOR_CATEGORY(__f, _InputIter));

  00003	8d 45 0f	 lea	 eax, DWORD PTR $T103418[ebp]
  00006	50		 push	 eax
  00007	ff 75 0c	 push	 DWORD PTR ___l$[ebp]
  0000a	ff 75 08	 push	 DWORD PTR ___f$[ebp]
  0000d	e8 00 00 00 00	 call	 ??$_M_range_initialize@PAD@?$basic_string@DV?$char_traits@D@_STL@@V?$allocator@D@2@@_STL@@AAEXPAD0ABUforward_iterator_tag@1@@Z ; _STL::basic_string<char,_STL::char_traits<char>,_STL::allocator<char> >::_M_range_initialize<char *>

; 392  :   }

  00012	5d		 pop	 ebp
  00013	c2 08 00	 ret	 8
??$_M_range_initialize@PAD@?$basic_string@DV?$char_traits@D@_STL@@V?$allocator@D@2@@_STL@@AAEXPAD0@Z ENDP ; _STL::basic_string<char,_STL::char_traits<char>,_STL::allocator<char> >::_M_range_initialize<char *>
_TEXT	ENDS
PUBLIC	??_G?$pair@$$CBV?$basic_string@DV?$char_traits@D@_STL@@V?$allocator@D@2@@_STL@@K@_STL@@QAEPAXI@Z ; _STL::pair<_STL::basic_string<char,_STL::char_traits<char>,_STL::allocator<char> > const ,unsigned long>::`scalar deleting destructor'
; Function compile flags: /Ogsy
;	COMDAT ??_G?$pair@$$CBV?$basic_string@DV?$char_traits@D@_STL@@V?$allocator@D@2@@_STL@@K@_STL@@QAEPAXI@Z
_TEXT	SEGMENT
___flags$ = 8						; size = 4
??_G?$pair@$$CBV?$basic_string@DV?$char_traits@D@_STL@@V?$allocator@D@2@@_STL@@K@_STL@@QAEPAXI@Z PROC NEAR ; _STL::pair<_STL::basic_string<char,_STL::char_traits<char>,_STL::allocator<char> > const ,unsigned long>::`scalar deleting destructor', COMDAT
; _this$ = ecx
  00000	56		 push	 esi
  00001	8b f1		 mov	 esi, ecx
  00003	e8 00 00 00 00	 call	 ??1?$pair@$$CBV?$basic_string@DV?$char_traits@D@_STL@@V?$allocator@D@2@@_STL@@K@_STL@@QAE@XZ
  00008	f6 44 24 08 01	 test	 BYTE PTR ___flags$[esp], 1
  0000d	74 07		 je	 SHORT $L101819
  0000f	56		 push	 esi
  00010	e8 00 00 00 00	 call	 ??3@YAXPAX@Z		; operator delete
  00015	59		 pop	 ecx
$L101819:
  00016	8b c6		 mov	 eax, esi
  00018	5e		 pop	 esi
  00019	c2 04 00	 ret	 4
??_G?$pair@$$CBV?$basic_string@DV?$char_traits@D@_STL@@V?$allocator@D@2@@_STL@@K@_STL@@QAEPAXI@Z ENDP ; _STL::pair<_STL::basic_string<char,_STL::char_traits<char>,_STL::allocator<char> > const ,unsigned long>::`scalar deleting destructor'
_TEXT	ENDS
PUBLIC	??0?$basic_string@DV?$char_traits@D@_STL@@V?$allocator@D@2@@_STL@@QAE@ABV01@@Z ; _STL::basic_string<char,_STL::char_traits<char>,_STL::allocator<char> >::basic_string<char,_STL::char_traits<char>,_STL::allocator<char> >
;	COMDAT xdata$x
xdata$x	SEGMENT
$T103439 DD	0ffffffffH
	DD	FLAT:$L103425
$T103437 DD	019930520H
	DD	01H
	DD	FLAT:$T103439
	DD	2 DUP(00H)
	DD	2 DUP(00H)
; Function compile flags: /Ogsy
; File c:\stlport-4.6.1\stlport\stl\_string.c
xdata$x	ENDS
;	COMDAT ??0?$basic_string@DV?$char_traits@D@_STL@@V?$allocator@D@2@@_STL@@QAE@ABV01@@Z
_TEXT	SEGMENT
_this$ = -16						; size = 4
__$EHRec$ = -12						; size = 12
___s$ = 8						; size = 4
$T103432 = 11						; size = 1
$T103424 = 11						; size = 1
??0?$basic_string@DV?$char_traits@D@_STL@@V?$allocator@D@2@@_STL@@QAE@ABV01@@Z PROC NEAR ; _STL::basic_string<char,_STL::char_traits<char>,_STL::allocator<char> >::basic_string<char,_STL::char_traits<char>,_STL::allocator<char> >, COMDAT
; _this$ = ecx

; 560  : {  

  00000	b8 00 00 00 00	 mov	 eax, __ehhandler$??0?$basic_string@DV?$char_traits@D@_STL@@V?$allocator@D@2@@_STL@@QAE@ABV01@@Z
  00005	e8 00 00 00 00	 call	 __EH_prolog
  0000a	51		 push	 ecx
  0000b	56		 push	 esi
  0000c	8b 75 08	 mov	 esi, DWORD PTR ___s$[ebp]
  0000f	57		 push	 edi
  00010	8b f9		 mov	 edi, ecx
  00012	8d 45 0b	 lea	 eax, DWORD PTR $T103424[ebp]
  00015	50		 push	 eax
  00016	8b ce		 mov	 ecx, esi
  00018	89 7d f0	 mov	 DWORD PTR _this$[ebp], edi
  0001b	e8 00 00 00 00	 call	 ?get_allocator@?$basic_string@DV?$char_traits@D@_STL@@V?$allocator@D@2@@_STL@@QBE?AV?$allocator@D@2@XZ ; _STL::basic_string<char,_STL::char_traits<char>,_STL::allocator<char> >::get_allocator
  00020	50		 push	 eax
  00021	8b cf		 mov	 ecx, edi
  00023	e8 00 00 00 00	 call	 ??0?$_String_base@DV?$allocator@D@_STL@@@_STL@@QAE@ABV?$allocator@D@1@@Z ; _STL::_String_base<char,_STL::allocator<char> >::_String_base<char,_STL::allocator<char> >
  00028	83 65 fc 00	 and	 DWORD PTR __$EHRec$[ebp+8], 0

; 561  :   _M_range_initialize(__s._M_start, __s._M_finish);  

  0002c	8d 45 0b	 lea	 eax, DWORD PTR $T103432[ebp]
  0002f	50		 push	 eax
  00030	ff 76 04	 push	 DWORD PTR [esi+4]
  00033	8b cf		 mov	 ecx, edi
  00035	ff 36		 push	 DWORD PTR [esi]
  00037	e8 00 00 00 00	 call	 ??$_M_range_initialize@PAD@?$basic_string@DV?$char_traits@D@_STL@@V?$allocator@D@2@@_STL@@AAEXPAD0ABUforward_iterator_tag@1@@Z ; _STL::basic_string<char,_STL::char_traits<char>,_STL::allocator<char> >::_M_range_initialize<char *>

; 562  : } 

  0003c	8b 4d f4	 mov	 ecx, DWORD PTR __$EHRec$[ebp]
  0003f	8b c7		 mov	 eax, edi
  00041	5f		 pop	 edi
  00042	5e		 pop	 esi
  00043	64 89 0d 00 00
	00 00		 mov	 DWORD PTR fs:__except_list, ecx
  0004a	c9		 leave
  0004b	c2 04 00	 ret	 4
_TEXT	ENDS
;	COMDAT text$x
text$x	SEGMENT
$L103425:
  00000	8b 4d f0	 mov	 ecx, DWORD PTR _this$[ebp]
  00003	e9 00 00 00 00	 jmp	 ??1?$_String_base@DV?$allocator@D@_STL@@@_STL@@QAE@XZ ; _STL::_String_base<char,_STL::allocator<char> >::~_String_base<char,_STL::allocator<char> >
__ehhandler$??0?$basic_string@DV?$char_traits@D@_STL@@V?$allocator@D@2@@_STL@@QAE@ABV01@@Z:
  00008	b8 00 00 00 00	 mov	 eax, OFFSET FLAT:$T103437
  0000d	e9 00 00 00 00	 jmp	 ___CxxFrameHandler
text$x	ENDS
??0?$basic_string@DV?$char_traits@D@_STL@@V?$allocator@D@2@@_STL@@QAE@ABV01@@Z ENDP ; _STL::basic_string<char,_STL::char_traits<char>,_STL::allocator<char> >::basic_string<char,_STL::char_traits<char>,_STL::allocator<char> >
PUBLIC	?HasCreature@MJusticeAttackManager@@QBE_NPBD@Z	; MJusticeAttackManager::HasCreature
; Function compile flags: /Ogsy
; File c:\darkeden\designed_common\project\client\mjusticeattackmanager.cpp
;	COMDAT ?HasCreature@MJusticeAttackManager@@QBE_NPBD@Z
_TEXT	SEGMENT
$T103444 = -12						; size = 12
_pName$ = 8						; size = 4
$T103445 = 11						; size = 1
?HasCreature@MJusticeAttackManager@@QBE_NPBD@Z PROC NEAR ; MJusticeAttackManager::HasCreature, COMDAT
; _this$ = ecx

; 78   : {

  00000	55		 push	 ebp
  00001	8b ec		 mov	 ebp, esp
  00003	83 ec 0c	 sub	 esp, 12			; 0000000cH
  00006	56		 push	 esi
  00007	57		 push	 edi

; 79   : 	TIME_MAP::const_iterator iTime = m_Creatures.find( std::string(pName) );

  00008	8d 45 0b	 lea	 eax, DWORD PTR $T103445[ebp]
  0000b	50		 push	 eax
  0000c	ff 75 08	 push	 DWORD PTR _pName$[ebp]
  0000f	8b f1		 mov	 esi, ecx
  00011	8d 4d f4	 lea	 ecx, DWORD PTR $T103444[ebp]
  00014	e8 00 00 00 00	 call	 ??0?$basic_string@DV?$char_traits@D@_STL@@V?$allocator@D@2@@_STL@@QAE@PBDABV?$allocator@D@1@@Z ; _STL::basic_string<char,_STL::char_traits<char>,_STL::allocator<char> >::basic_string<char,_STL::char_traits<char>,_STL::allocator<char> >
  00019	50		 push	 eax
  0001a	8b ce		 mov	 ecx, esi
  0001c	e8 00 00 00 00	 call	 ??$_M_find@V?$basic_string@DV?$char_traits@D@_STL@@V?$allocator@D@2@@_STL@@@?$_Rb_tree@V?$basic_string@DV?$char_traits@D@_STL@@V?$allocator@D@2@@_STL@@U?$pair@$$CBV?$basic_string@DV?$char_traits@D@_STL@@V?$allocator@D@2@@_STL@@K@2@U?$_Select1st@U?$pair@$$CBV?$basic_string@DV?$char_traits@D@_STL@@V?$allocator@D@2@@_STL@@K@_STL@@@2@U?$less@V?$basic_string@DV?$char_traits@D@_STL@@V?$allocator@D@2@@_STL@@@2@V?$allocator@U?$pair@$$CBV?$basic_string@DV?$char_traits@D@_STL@@V?$allocator@D@2@@_STL@@K@_STL@@@2@@_STL@@ABEPAU?$_Rb_tree_node@U?$pair@$$CBV?$basic_string@DV?$char_traits@D@_STL@@V?$allocator@D@2@@_STL@@K@_STL@@@1@ABV?$basic_string@DV?$char_traits@D@_STL@@V?$allocator@D@2@@1@@Z ; _STL::_Rb_tree<_STL::basic_string<char,_STL::char_traits<char>,_STL::allocator<char> >,_STL::pair<_STL::basic_string<char,_STL::char_traits<char>,_STL::allocator<char> > const ,unsigned long>,_STL::_Select1st<_STL::pair<_STL::basic_string<char,_STL::char_traits<char>,_STL::allocator<char> > const ,unsigned long> >,_STL::less<_STL::basic_string<char,_STL::char_traits<char>,_STL::allocator<char> > >,_STL::allocator<_STL::pair<_STL::basic_string<char,_STL::char_traits<char>,_STL::allocator<char> > const ,unsigned long> > >::_M_find<_STL::basic_string<char,_STL::char_traits<char>,_STL::allocator<char> > >
  00021	8b f8		 mov	 edi, eax
  00023	8b 45 fc	 mov	 eax, DWORD PTR $T103444[ebp+8]
  00026	2b 45 f4	 sub	 eax, DWORD PTR $T103444[ebp]
  00029	8d 4d fc	 lea	 ecx, DWORD PTR $T103444[ebp+8]
  0002c	50		 push	 eax
  0002d	ff 75 f4	 push	 DWORD PTR $T103444[ebp]
  00030	e8 00 00 00 00	 call	 ?deallocate@?$allocator@D@_STL@@QAEXPADI@Z ; _STL::allocator<char>::deallocate

; 80   : 
; 81   : 	return iTime != m_Creatures.end();

  00035	33 c0		 xor	 eax, eax
  00037	3b 3e		 cmp	 edi, DWORD PTR [esi]
  00039	5f		 pop	 edi
  0003a	0f 95 c0	 setne	 al
  0003d	5e		 pop	 esi

; 82   : }

  0003e	c9		 leave
  0003f	c2 04 00	 ret	 4
?HasCreature@MJusticeAttackManager@@QBE_NPBD@Z ENDP	; MJusticeAttackManager::HasCreature
_TEXT	ENDS
PUBLIC	??0?$pair@$$CBV?$basic_string@DV?$char_traits@D@_STL@@V?$allocator@D@2@@_STL@@K@_STL@@QAE@ABV?$basic_string@DV?$char_traits@D@_STL@@V?$allocator@D@2@@1@ABK@Z ; _STL::pair<_STL::basic_string<char,_STL::char_traits<char>,_STL::allocator<char> > const ,unsigned long>::pair<_STL::basic_string<char,_STL::char_traits<char>,_STL::allocator<char> > const ,unsigned long>
; Function compile flags: /Ogsy
; File c:\stlport-4.6.1\stlport\stl\_pair.h
;	COMDAT ??0?$pair@$$CBV?$basic_string@DV?$char_traits@D@_STL@@V?$allocator@D@2@@_STL@@K@_STL@@QAE@ABV?$basic_string@DV?$char_traits@D@_STL@@V?$allocator@D@2@@1@ABK@Z
_TEXT	SEGMENT
___a$ = 8						; size = 4
___b$ = 12						; size = 4
??0?$pair@$$CBV?$basic_string@DV?$char_traits@D@_STL@@V?$allocator@D@2@@_STL@@K@_STL@@QAE@ABV?$basic_string@DV?$char_traits@D@_STL@@V?$allocator@D@2@@1@ABK@Z PROC NEAR ; _STL::pair<_STL::basic_string<char,_STL::char_traits<char>,_STL::allocator<char> > const ,unsigned long>::pair<_STL::basic_string<char,_STL::char_traits<char>,_STL::allocator<char> > const ,unsigned long>, COMDAT
; _this$ = ecx

; 48   :   pair(const _T1& __a, const _T2& __b) : first(__a), second(__b) {}

  00000	56		 push	 esi
  00001	ff 74 24 08	 push	 DWORD PTR ___a$[esp]
  00005	8b f1		 mov	 esi, ecx
  00007	e8 00 00 00 00	 call	 ??0?$basic_string@DV?$char_traits@D@_STL@@V?$allocator@D@2@@_STL@@QAE@ABV01@@Z ; _STL::basic_string<char,_STL::char_traits<char>,_STL::allocator<char> >::basic_string<char,_STL::char_traits<char>,_STL::allocator<char> >
  0000c	8b 44 24 0c	 mov	 eax, DWORD PTR ___b$[esp]
  00010	8b 00		 mov	 eax, DWORD PTR [eax]
  00012	89 46 0c	 mov	 DWORD PTR [esi+12], eax
  00015	8b c6		 mov	 eax, esi
  00017	5e		 pop	 esi
  00018	c2 08 00	 ret	 8
??0?$pair@$$CBV?$basic_string@DV?$char_traits@D@_STL@@V?$allocator@D@2@@_STL@@K@_STL@@QAE@ABV?$basic_string@DV?$char_traits@D@_STL@@V?$allocator@D@2@@1@ABK@Z ENDP ; _STL::pair<_STL::basic_string<char,_STL::char_traits<char>,_STL::allocator<char> > const ,unsigned long>::pair<_STL::basic_string<char,_STL::char_traits<char>,_STL::allocator<char> > const ,unsigned long>
_TEXT	ENDS
PUBLIC	??$_Destroy@U?$pair@$$CBV?$basic_string@DV?$char_traits@D@_STL@@V?$allocator@D@2@@_STL@@K@_STL@@@_STL@@YAXPAU?$pair@$$CBV?$basic_string@DV?$char_traits@D@_STL@@V?$allocator@D@2@@_STL@@K@0@@Z ; _STL::_Destroy<_STL::pair<_STL::basic_string<char,_STL::char_traits<char>,_STL::allocator<char> > const ,unsigned long> >
; Function compile flags: /Ogsy
; File c:\stlport-4.6.1\stlport\stl\_construct.h
;	COMDAT ??$_Destroy@U?$pair@$$CBV?$basic_string@DV?$char_traits@D@_STL@@V?$allocator@D@2@@_STL@@K@_STL@@@_STL@@YAXPAU?$pair@$$CBV?$basic_string@DV?$char_traits@D@_STL@@V?$allocator@D@2@@_STL@@K@0@@Z
_TEXT	SEGMENT
___pointer$ = 8						; size = 4
??$_Destroy@U?$pair@$$CBV?$basic_string@DV?$char_traits@D@_STL@@V?$allocator@D@2@@_STL@@K@_STL@@@_STL@@YAXPAU?$pair@$$CBV?$basic_string@DV?$char_traits@D@_STL@@V?$allocator@D@2@@_STL@@K@0@@Z PROC NEAR ; _STL::_Destroy<_STL::pair<_STL::basic_string<char,_STL::char_traits<char>,_STL::allocator<char> > const ,unsigned long> >, COMDAT

; 57   : # if _MSC_VER >= 1010
; 58   :   __pointer;
; 59   : # endif	// _MSC_VER >= 1000
; 60   : # ifdef _STLP_TRIVIAL_DESTRUCTOR_BUG
; 61   :   typedef typename __type_traits<_Tp>::has_trivial_destructor _Trivial_destructor;
; 62   :   __destroy_aux(__pointer, _Trivial_destructor());
; 63   : # else
; 64   : #  if ( defined (__BORLANDC__) && ( __BORLANDC__ < 0x500 ) )
; 65   :     __pointer->_Tp::~_Tp();
; 66   : #  else
; 67   :     __pointer->~_Tp();

  00000	8b 4c 24 04	 mov	 ecx, DWORD PTR ___pointer$[esp-4]
  00004	e9 00 00 00 00	 jmp	 ??1?$pair@$$CBV?$basic_string@DV?$char_traits@D@_STL@@V?$allocator@D@2@@_STL@@K@_STL@@QAE@XZ
??$_Destroy@U?$pair@$$CBV?$basic_string@DV?$char_traits@D@_STL@@V?$allocator@D@2@@_STL@@K@_STL@@@_STL@@YAXPAU?$pair@$$CBV?$basic_string@DV?$char_traits@D@_STL@@V?$allocator@D@2@@_STL@@K@0@@Z ENDP ; _STL::_Destroy<_STL::pair<_STL::basic_string<char,_STL::char_traits<char>,_STL::allocator<char> > const ,unsigned long> >
_TEXT	ENDS
PUBLIC	??0?$pair@$$CBV?$basic_string@DV?$char_traits@D@_STL@@V?$allocator@D@2@@_STL@@K@_STL@@QAE@ABU01@@Z ; _STL::pair<_STL::basic_string<char,_STL::char_traits<char>,_STL::allocator<char> > const ,unsigned long>::pair<_STL::basic_string<char,_STL::char_traits<char>,_STL::allocator<char> > const ,unsigned long>
; Function compile flags: /Ogsy
; File c:\stlport-4.6.1\stlport\stl\_pair.h
;	COMDAT ??0?$pair@$$CBV?$basic_string@DV?$char_traits@D@_STL@@V?$allocator@D@2@@_STL@@K@_STL@@QAE@ABU01@@Z
_TEXT	SEGMENT
___o$ = 8						; size = 4
??0?$pair@$$CBV?$basic_string@DV?$char_traits@D@_STL@@V?$allocator@D@2@@_STL@@K@_STL@@QAE@ABU01@@Z PROC NEAR ; _STL::pair<_STL::basic_string<char,_STL::char_traits<char>,_STL::allocator<char> > const ,unsigned long>::pair<_STL::basic_string<char,_STL::char_traits<char>,_STL::allocator<char> > const ,unsigned long>, COMDAT
; _this$ = ecx

; 54   :   pair(const pair<_T1,_T2>& __o) : first(__o.first), second(__o.second) {}

  00000	56		 push	 esi
  00001	57		 push	 edi
  00002	8b 7c 24 0c	 mov	 edi, DWORD PTR ___o$[esp+4]
  00006	57		 push	 edi
  00007	8b f1		 mov	 esi, ecx
  00009	e8 00 00 00 00	 call	 ??0?$basic_string@DV?$char_traits@D@_STL@@V?$allocator@D@2@@_STL@@QAE@ABV01@@Z ; _STL::basic_string<char,_STL::char_traits<char>,_STL::allocator<char> >::basic_string<char,_STL::char_traits<char>,_STL::allocator<char> >
  0000e	8b 47 0c	 mov	 eax, DWORD PTR [edi+12]
  00011	89 46 0c	 mov	 DWORD PTR [esi+12], eax
  00014	5f		 pop	 edi
  00015	8b c6		 mov	 eax, esi
  00017	5e		 pop	 esi
  00018	c2 04 00	 ret	 4
??0?$pair@$$CBV?$basic_string@DV?$char_traits@D@_STL@@V?$allocator@D@2@@_STL@@K@_STL@@QAE@ABU01@@Z ENDP ; _STL::pair<_STL::basic_string<char,_STL::char_traits<char>,_STL::allocator<char> > const ,unsigned long>::pair<_STL::basic_string<char,_STL::char_traits<char>,_STL::allocator<char> > const ,unsigned long>
_TEXT	ENDS
PUBLIC	?erase@?$_Rb_tree@V?$basic_string@DV?$char_traits@D@_STL@@V?$allocator@D@2@@_STL@@U?$pair@$$CBV?$basic_string@DV?$char_traits@D@_STL@@V?$allocator@D@2@@_STL@@K@2@U?$_Select1st@U?$pair@$$CBV?$basic_string@DV?$char_traits@D@_STL@@V?$allocator@D@2@@_STL@@K@_STL@@@2@U?$less@V?$basic_string@DV?$char_traits@D@_STL@@V?$allocator@D@2@@_STL@@@2@V?$allocator@U?$pair@$$CBV?$basic_string@DV?$char_traits@D@_STL@@V?$allocator@D@2@@_STL@@K@_STL@@@2@@_STL@@QAEXU?$_Rb_tree_iterator@U?$pair@$$CBV?$basic_string@DV?$char_traits@D@_STL@@V?$allocator@D@2@@_STL@@K@_STL@@U?$_Nonconst_traits@U?$pair@$$CBV?$basic_string@DV?$char_traits@D@_STL@@V?$allocator@D@2@@_STL@@K@_STL@@@2@@2@@Z ; _STL::_Rb_tree<_STL::basic_string<char,_STL::char_traits<char>,_STL::allocator<char> >,_STL::pair<_STL::basic_string<char,_STL::char_traits<char>,_STL::allocator<char> > const ,unsigned long>,_STL::_Select1st<_STL::pair<_STL::basic_string<char,_STL::char_traits<char>,_STL::allocator<char> > const ,unsigned long> >,_STL::less<_STL::basic_string<char,_STL::char_traits<char>,_STL::allocator<char> > >,_STL::allocator<_STL::pair<_STL::basic_string<char,_STL::char_traits<char>,_STL::allocator<char> > const ,unsigned long> > >::erase
EXTRN	?_Rebalance_for_erase@?$_Rb_global@_N@_STL@@SAPAU_Rb_tree_node_base@2@PAU32@AAPAU32@11@Z:NEAR ; _STL::_Rb_global<bool>::_Rebalance_for_erase
; Function compile flags: /Ogsy
; File c:\stlport-4.6.1\stlport\stl\_tree.h
;	COMDAT ?erase@?$_Rb_tree@V?$basic_string@DV?$char_traits@D@_STL@@V?$allocator@D@2@@_STL@@U?$pair@$$CBV?$basic_string@DV?$char_traits@D@_STL@@V?$allocator@D@2@@_STL@@K@2@U?$_Select1st@U?$pair@$$CBV?$basic_string@DV?$char_traits@D@_STL@@V?$allocator@D@2@@_STL@@K@_STL@@@2@U?$less@V?$basic_string@DV?$char_traits@D@_STL@@V?$allocator@D@2@@_STL@@@2@V?$allocator@U?$pair@$$CBV?$basic_string@DV?$char_traits@D@_STL@@V?$allocator@D@2@@_STL@@K@_STL@@@2@@_STL@@QAEXU?$_Rb_tree_iterator@U?$pair@$$CBV?$basic_string@DV?$char_traits@D@_STL@@V?$allocator@D@2@@_STL@@K@_STL@@U?$_Nonconst_traits@U?$pair@$$CBV?$basic_string@DV?$char_traits@D@_STL@@V?$allocator@D@2@@_STL@@K@_STL@@@2@@2@@Z
_TEXT	SEGMENT
___position$ = 8					; size = 4
?erase@?$_Rb_tree@V?$basic_string@DV?$char_traits@D@_STL@@V?$allocator@D@2@@_STL@@U?$pair@$$CBV?$basic_string@DV?$char_traits@D@_STL@@V?$allocator@D@2@@_STL@@K@2@U?$_Select1st@U?$pair@$$CBV?$basic_string@DV?$char_traits@D@_STL@@V?$allocator@D@2@@_STL@@K@_STL@@@2@U?$less@V?$basic_string@DV?$char_traits@D@_STL@@V?$allocator@D@2@@_STL@@@2@V?$allocator@U?$pair@$$CBV?$basic_string@DV?$char_traits@D@_STL@@V?$allocator@D@2@@_STL@@K@_STL@@@2@@_STL@@QAEXU?$_Rb_tree_iterator@U?$pair@$$CBV?$basic_string@DV?$char_traits@D@_STL@@V?$allocator@D@2@@_STL@@K@_STL@@U?$_Nonconst_traits@U?$pair@$$CBV?$basic_string@DV?$char_traits@D@_STL@@V?$allocator@D@2@@_STL@@K@_STL@@@2@@2@@Z PROC NEAR ; _STL::_Rb_tree<_STL::basic_string<char,_STL::char_traits<char>,_STL::allocator<char> >,_STL::pair<_STL::basic_string<char,_STL::char_traits<char>,_STL::allocator<char> > const ,unsigned long>,_STL::_Select1st<_STL::pair<_STL::basic_string<char,_STL::char_traits<char>,_STL::allocator<char> > const ,unsigned long> >,_STL::less<_STL::basic_string<char,_STL::char_traits<char>,_STL::allocator<char> > >,_STL::allocator<_STL::pair<_STL::basic_string<char,_STL::char_traits<char>,_STL::allocator<char> > const ,unsigned long> > >::erase, COMDAT
; _this$ = ecx

; 416  :   void erase(iterator __position) {

  00000	56		 push	 esi
  00001	8b f1		 mov	 esi, ecx

; 417  :     _Link_type __y = 
; 418  :       (_Link_type) _Rb_global_inst::_Rebalance_for_erase(__position._M_node,
; 419  : 							 this->_M_header._M_data->_M_parent,
; 420  : 							 this->_M_header._M_data->_M_left,
; 421  : 							 this->_M_header._M_data->_M_right);

  00003	8b 06		 mov	 eax, DWORD PTR [esi]
  00005	57		 push	 edi
  00006	8d 48 0c	 lea	 ecx, DWORD PTR [eax+12]
  00009	51		 push	 ecx
  0000a	8d 48 08	 lea	 ecx, DWORD PTR [eax+8]
  0000d	51		 push	 ecx
  0000e	83 c0 04	 add	 eax, 4
  00011	50		 push	 eax
  00012	ff 74 24 18	 push	 DWORD PTR ___position$[esp+16]
  00016	e8 00 00 00 00	 call	 ?_Rebalance_for_erase@?$_Rb_global@_N@_STL@@SAPAU_Rb_tree_node_base@2@PAU32@AAPAU32@11@Z ; _STL::_Rb_global<bool>::_Rebalance_for_erase
  0001b	8b f8		 mov	 edi, eax
  0001d	83 c4 10	 add	 esp, 16			; 00000010H

; 422  :     _STLP_STD::_Destroy(&__y->_M_value_field);

  00020	8d 4f 10	 lea	 ecx, DWORD PTR [edi+16]
  00023	e8 00 00 00 00	 call	 ??1?$pair@$$CBV?$basic_string@DV?$char_traits@D@_STL@@V?$allocator@D@2@@_STL@@K@_STL@@QAE@XZ

; 423  :     this->_M_header.deallocate(__y,1);

  00028	6a 01		 push	 1
  0002a	57		 push	 edi
  0002b	8b ce		 mov	 ecx, esi
  0002d	e8 00 00 00 00	 call	 ?deallocate@?$allocator@U?$_Rb_tree_node@U?$pair@$$CBV?$basic_string@DV?$char_traits@D@_STL@@V?$allocator@D@2@@_STL@@K@_STL@@@_STL@@@_STL@@QAEXPAU?$_Rb_tree_node@U?$pair@$$CBV?$basic_string@DV?$char_traits@D@_STL@@V?$allocator@D@2@@_STL@@K@_STL@@@2@I@Z ; _STL::allocator<_STL::_Rb_tree_node<_STL::pair<_STL::basic_string<char,_STL::char_traits<char>,_STL::allocator<char> > const ,unsigned long> > >::deallocate

; 424  :     --_M_node_count;

  00032	ff 4e 04	 dec	 DWORD PTR [esi+4]
  00035	5f		 pop	 edi
  00036	5e		 pop	 esi

; 425  :   }

  00037	c2 04 00	 ret	 4
?erase@?$_Rb_tree@V?$basic_string@DV?$char_traits@D@_STL@@V?$allocator@D@2@@_STL@@U?$pair@$$CBV?$basic_string@DV?$char_traits@D@_STL@@V?$allocator@D@2@@_STL@@K@2@U?$_Select1st@U?$pair@$$CBV?$basic_string@DV?$char_traits@D@_STL@@V?$allocator@D@2@@_STL@@K@_STL@@@2@U?$less@V?$basic_string@DV?$char_traits@D@_STL@@V?$allocator@D@2@@_STL@@@2@V?$allocator@U?$pair@$$CBV?$basic_string@DV?$char_traits@D@_STL@@V?$allocator@D@2@@_STL@@K@_STL@@@2@@_STL@@QAEXU?$_Rb_tree_iterator@U?$pair@$$CBV?$basic_string@DV?$char_traits@D@_STL@@V?$allocator@D@2@@_STL@@K@_STL@@U?$_Nonconst_traits@U?$pair@$$CBV?$basic_string@DV?$char_traits@D@_STL@@V?$allocator@D@2@@_STL@@K@_STL@@@2@@2@@Z ENDP ; _STL::_Rb_tree<_STL::basic_string<char,_STL::char_traits<char>,_STL::allocator<char> >,_STL::pair<_STL::basic_string<char,_STL::char_traits<char>,_STL::allocator<char> > const ,unsigned long>,_STL::_Select1st<_STL::pair<_STL::basic_string<char,_STL::char_traits<char>,_STL::allocator<char> > const ,unsigned long> >,_STL::less<_STL::basic_string<char,_STL::char_traits<char>,_STL::allocator<char> > >,_STL::allocator<_STL::pair<_STL::basic_string<char,_STL::char_traits<char>,_STL::allocator<char> > const ,unsigned long> > >::erase
_TEXT	ENDS
PUBLIC	?_M_erase@?$_Rb_tree@V?$basic_string@DV?$char_traits@D@_STL@@V?$allocator@D@2@@_STL@@U?$pair@$$CBV?$basic_string@DV?$char_traits@D@_STL@@V?$allocator@D@2@@_STL@@K@2@U?$_Select1st@U?$pair@$$CBV?$basic_string@DV?$char_traits@D@_STL@@V?$allocator@D@2@@_STL@@K@_STL@@@2@U?$less@V?$basic_string@DV?$char_traits@D@_STL@@V?$allocator@D@2@@_STL@@@2@V?$allocator@U?$pair@$$CBV?$basic_string@DV?$char_traits@D@_STL@@V?$allocator@D@2@@_STL@@K@_STL@@@2@@_STL@@AAEXPAU?$_Rb_tree_node@U?$pair@$$CBV?$basic_string@DV?$char_traits@D@_STL@@V?$allocator@D@2@@_STL@@K@_STL@@@2@@Z ; _STL::_Rb_tree<_STL::basic_string<char,_STL::char_traits<char>,_STL::allocator<char> >,_STL::pair<_STL::basic_string<char,_STL::char_traits<char>,_STL::allocator<char> > const ,unsigned long>,_STL::_Select1st<_STL::pair<_STL::basic_string<char,_STL::char_traits<char>,_STL::allocator<char> > const ,unsigned long> >,_STL::less<_STL::basic_string<char,_STL::char_traits<char>,_STL::allocator<char> > >,_STL::allocator<_STL::pair<_STL::basic_string<char,_STL::char_traits<char>,_STL::allocator<char> > const ,unsigned long> > >::_M_erase
; Function compile flags: /Ogsy
; File c:\stlport-4.6.1\stlport\stl\_tree.c
;	COMDAT ?_M_erase@?$_Rb_tree@V?$basic_string@DV?$char_traits@D@_STL@@V?$allocator@D@2@@_STL@@U?$pair@$$CBV?$basic_string@DV?$char_traits@D@_STL@@V?$allocator@D@2@@_STL@@K@2@U?$_Select1st@U?$pair@$$CBV?$basic_string@DV?$char_traits@D@_STL@@V?$allocator@D@2@@_STL@@K@_STL@@@2@U?$less@V?$basic_string@DV?$char_traits@D@_STL@@V?$allocator@D@2@@_STL@@@2@V?$allocator@U?$pair@$$CBV?$basic_string@DV?$char_traits@D@_STL@@V?$allocator@D@2@@_STL@@K@_STL@@@2@@_STL@@AAEXPAU?$_Rb_tree_node@U?$pair@$$CBV?$basic_string@DV?$char_traits@D@_STL@@V?$allocator@D@2@@_STL@@K@_STL@@@2@@Z
_TEXT	SEGMENT
___x$ = 8						; size = 4
?_M_erase@?$_Rb_tree@V?$basic_string@DV?$char_traits@D@_STL@@V?$allocator@D@2@@_STL@@U?$pair@$$CBV?$basic_string@DV?$char_traits@D@_STL@@V?$allocator@D@2@@_STL@@K@2@U?$_Select1st@U?$pair@$$CBV?$basic_string@DV?$char_traits@D@_STL@@V?$allocator@D@2@@_STL@@K@_STL@@@2@U?$less@V?$basic_string@DV?$char_traits@D@_STL@@V?$allocator@D@2@@_STL@@@2@V?$allocator@U?$pair@$$CBV?$basic_string@DV?$char_traits@D@_STL@@V?$allocator@D@2@@_STL@@K@_STL@@@2@@_STL@@AAEXPAU?$_Rb_tree_node@U?$pair@$$CBV?$basic_string@DV?$char_traits@D@_STL@@V?$allocator@D@2@@_STL@@K@_STL@@@2@@Z PROC NEAR ; _STL::_Rb_tree<_STL::basic_string<char,_STL::char_traits<char>,_STL::allocator<char> >,_STL::pair<_STL::basic_string<char,_STL::char_traits<char>,_STL::allocator<char> > const ,unsigned long>,_STL::_Select1st<_STL::pair<_STL::basic_string<char,_STL::char_traits<char>,_STL::allocator<char> > const ,unsigned long> >,_STL::less<_STL::basic_string<char,_STL::char_traits<char>,_STL::allocator<char> > >,_STL::allocator<_STL::pair<_STL::basic_string<char,_STL::char_traits<char>,_STL::allocator<char> > const ,unsigned long> > >::_M_erase, COMDAT
; _this$ = ecx

; 637  : {

  00000	53		 push	 ebx
  00001	56		 push	 esi

; 638  :                                 // erase without rebalancing
; 639  :   while (__x != 0) {

  00002	8b 74 24 0c	 mov	 esi, DWORD PTR ___x$[esp+4]
  00006	85 f6		 test	 esi, esi
  00008	8b d9		 mov	 ebx, ecx
  0000a	74 27		 je	 SHORT $L101688
  0000c	57		 push	 edi
$L101687:

; 640  :     _M_erase(_S_right(__x));

  0000d	ff 76 0c	 push	 DWORD PTR [esi+12]
  00010	8b cb		 mov	 ecx, ebx
  00012	e8 00 00 00 00	 call	 ?_M_erase@?$_Rb_tree@V?$basic_string@DV?$char_traits@D@_STL@@V?$allocator@D@2@@_STL@@U?$pair@$$CBV?$basic_string@DV?$char_traits@D@_STL@@V?$allocator@D@2@@_STL@@K@2@U?$_Select1st@U?$pair@$$CBV?$basic_string@DV?$char_traits@D@_STL@@V?$allocator@D@2@@_STL@@K@_STL@@@2@U?$less@V?$basic_string@DV?$char_traits@D@_STL@@V?$allocator@D@2@@_STL@@@2@V?$allocator@U?$pair@$$CBV?$basic_string@DV?$char_traits@D@_STL@@V?$allocator@D@2@@_STL@@K@_STL@@@2@@_STL@@AAEXPAU?$_Rb_tree_node@U?$pair@$$CBV?$basic_string@DV?$char_traits@D@_STL@@V?$allocator@D@2@@_STL@@K@_STL@@@2@@Z ; _STL::_Rb_tree<_STL::basic_string<char,_STL::char_traits<char>,_STL::allocator<char> >,_STL::pair<_STL::basic_string<char,_STL::char_traits<char>,_STL::allocator<char> > const ,unsigned long>,_STL::_Select1st<_STL::pair<_STL::basic_string<char,_STL::char_traits<char>,_STL::allocator<char> > const ,unsigned long> >,_STL::less<_STL::basic_string<char,_STL::char_traits<char>,_STL::allocator<char> > >,_STL::allocator<_STL::pair<_STL::basic_string<char,_STL::char_traits<char>,_STL::allocator<char> > const ,unsigned long> > >::_M_erase

; 641  :     _Link_type __y = _S_left(__x);

  00017	8b 7e 08	 mov	 edi, DWORD PTR [esi+8]

; 642  :     _STLP_STD::_Destroy(&__x->_M_value_field);

  0001a	8d 4e 10	 lea	 ecx, DWORD PTR [esi+16]
  0001d	e8 00 00 00 00	 call	 ??1?$pair@$$CBV?$basic_string@DV?$char_traits@D@_STL@@V?$allocator@D@2@@_STL@@K@_STL@@QAE@XZ

; 643  :     this->_M_header.deallocate(__x,1);

  00022	6a 01		 push	 1
  00024	56		 push	 esi
  00025	8b cb		 mov	 ecx, ebx
  00027	e8 00 00 00 00	 call	 ?deallocate@?$allocator@U?$_Rb_tree_node@U?$pair@$$CBV?$basic_string@DV?$char_traits@D@_STL@@V?$allocator@D@2@@_STL@@K@_STL@@@_STL@@@_STL@@QAEXPAU?$_Rb_tree_node@U?$pair@$$CBV?$basic_string@DV?$char_traits@D@_STL@@V?$allocator@D@2@@_STL@@K@_STL@@@2@I@Z ; _STL::allocator<_STL::_Rb_tree_node<_STL::pair<_STL::basic_string<char,_STL::char_traits<char>,_STL::allocator<char> > const ,unsigned long> > >::deallocate
  0002c	85 ff		 test	 edi, edi

; 644  :     __x = __y;

  0002e	8b f7		 mov	 esi, edi
  00030	75 db		 jne	 SHORT $L101687
  00032	5f		 pop	 edi
$L101688:
  00033	5e		 pop	 esi
  00034	5b		 pop	 ebx

; 645  :   }
; 646  : }

  00035	c2 04 00	 ret	 4
?_M_erase@?$_Rb_tree@V?$basic_string@DV?$char_traits@D@_STL@@V?$allocator@D@2@@_STL@@U?$pair@$$CBV?$basic_string@DV?$char_traits@D@_STL@@V?$allocator@D@2@@_STL@@K@2@U?$_Select1st@U?$pair@$$CBV?$basic_string@DV?$char_traits@D@_STL@@V?$allocator@D@2@@_STL@@K@_STL@@@2@U?$less@V?$basic_string@DV?$char_traits@D@_STL@@V?$allocator@D@2@@_STL@@@2@V?$allocator@U?$pair@$$CBV?$basic_string@DV?$char_traits@D@_STL@@V?$allocator@D@2@@_STL@@K@_STL@@@2@@_STL@@AAEXPAU?$_Rb_tree_node@U?$pair@$$CBV?$basic_string@DV?$char_traits@D@_STL@@V?$allocator@D@2@@_STL@@K@_STL@@@2@@Z ENDP ; _STL::_Rb_tree<_STL::basic_string<char,_STL::char_traits<char>,_STL::allocator<char> >,_STL::pair<_STL::basic_string<char,_STL::char_traits<char>,_STL::allocator<char> > const ,unsigned long>,_STL::_Select1st<_STL::pair<_STL::basic_string<char,_STL::char_traits<char>,_STL::allocator<char> > const ,unsigned long> >,_STL::less<_STL::basic_string<char,_STL::char_traits<char>,_STL::allocator<char> > >,_STL::allocator<_STL::pair<_STL::basic_string<char,_STL::char_traits<char>,_STL::allocator<char> > const ,unsigned long> > >::_M_erase
_TEXT	ENDS
PUBLIC	??$_Construct@U?$pair@$$CBV?$basic_string@DV?$char_traits@D@_STL@@V?$allocator@D@2@@_STL@@K@_STL@@U12@@_STL@@YAXPAU?$pair@$$CBV?$basic_string@DV?$char_traits@D@_STL@@V?$allocator@D@2@@_STL@@K@0@ABU10@@Z ; _STL::_Construct<_STL::pair<_STL::basic_string<char,_STL::char_traits<char>,_STL::allocator<char> > const ,unsigned long>,_STL::pair<_STL::basic_string<char,_STL::char_traits<char>,_STL::allocator<char> > const ,unsigned long> >
;	COMDAT xdata$x
; File c:\program files\microsoft visual studio .net 2003\vc7\include\new
xdata$x	SEGMENT
$T103591 DD	0ffffffffH
	DD	FLAT:$L103584
$T103589 DD	019930520H
	DD	01H
	DD	FLAT:$T103591
	DD	2 DUP(00H)
	DD	2 DUP(00H)
; Function compile flags: /Ogsy
; File c:\stlport-4.6.1\stlport\stl\_construct.h
xdata$x	ENDS
;	COMDAT ??$_Construct@U?$pair@$$CBV?$basic_string@DV?$char_traits@D@_STL@@V?$allocator@D@2@@_STL@@K@_STL@@U12@@_STL@@YAXPAU?$pair@$$CBV?$basic_string@DV?$char_traits@D@_STL@@V?$allocator@D@2@@_STL@@K@0@ABU10@@Z
_TEXT	SEGMENT
$T103581 = -16						; size = 4
__$EHRec$ = -12						; size = 12
___p$ = 8						; size = 4
___val$ = 12						; size = 4
??$_Construct@U?$pair@$$CBV?$basic_string@DV?$char_traits@D@_STL@@V?$allocator@D@2@@_STL@@K@_STL@@U12@@_STL@@YAXPAU?$pair@$$CBV?$basic_string@DV?$char_traits@D@_STL@@V?$allocator@D@2@@_STL@@K@0@ABU10@@Z PROC NEAR ; _STL::_Construct<_STL::pair<_STL::basic_string<char,_STL::char_traits<char>,_STL::allocator<char> > const ,unsigned long>,_STL::pair<_STL::basic_string<char,_STL::char_traits<char>,_STL::allocator<char> > const ,unsigned long> >, COMDAT

; 93   : inline void _Construct(_T1* __p, const _T2& __val) {

  00000	b8 00 00 00 00	 mov	 eax, __ehhandler$??$_Construct@U?$pair@$$CBV?$basic_string@DV?$char_traits@D@_STL@@V?$allocator@D@2@@_STL@@K@_STL@@U12@@_STL@@YAXPAU?$pair@$$CBV?$basic_string@DV?$char_traits@D@_STL@@V?$allocator@D@2@@_STL@@K@0@ABU10@@Z
  00005	e8 00 00 00 00	 call	 __EH_prolog
  0000a	51		 push	 ecx

; 94   : # ifdef _STLP_DEBUG_UNINITIALIZED
; 95   : 	memset((char*)__p, _STLP_SHRED_BYTE, sizeof(_T1));
; 96   : # endif
; 97   :     _STLP_PLACEMENT_NEW (__p) _T1(__val);

  0000b	8b 4d 08	 mov	 ecx, DWORD PTR ___p$[ebp]
  0000e	89 4d f0	 mov	 DWORD PTR $T103581[ebp], ecx
  00011	83 65 fc 00	 and	 DWORD PTR __$EHRec$[ebp+8], 0
  00015	85 c9		 test	 ecx, ecx
  00017	74 08		 je	 SHORT $L103582
  00019	ff 75 0c	 push	 DWORD PTR ___val$[ebp]
  0001c	e8 00 00 00 00	 call	 ??0?$pair@$$CBV?$basic_string@DV?$char_traits@D@_STL@@V?$allocator@D@2@@_STL@@K@_STL@@QAE@ABU01@@Z ; _STL::pair<_STL::basic_string<char,_STL::char_traits<char>,_STL::allocator<char> > const ,unsigned long>::pair<_STL::basic_string<char,_STL::char_traits<char>,_STL::allocator<char> > const ,unsigned long>
$L103582:

; 98   : }

  00021	8b 4d f4	 mov	 ecx, DWORD PTR __$EHRec$[ebp]
  00024	64 89 0d 00 00
	00 00		 mov	 DWORD PTR fs:__except_list, ecx
  0002b	c9		 leave
  0002c	c3		 ret	 0
_TEXT	ENDS
;	COMDAT text$x
text$x	SEGMENT
$L103584:
  00000	ff 75 08	 push	 DWORD PTR ___p$[ebp]
  00003	ff 75 f0	 push	 DWORD PTR $T103581[ebp]
  00006	e8 00 00 00 00	 call	 ??3@YAXPAX0@Z		; operator delete
  0000b	59		 pop	 ecx
  0000c	59		 pop	 ecx
  0000d	c3		 ret	 0
__ehhandler$??$_Construct@U?$pair@$$CBV?$basic_string@DV?$char_traits@D@_STL@@V?$allocator@D@2@@_STL@@K@_STL@@U12@@_STL@@YAXPAU?$pair@$$CBV?$basic_string@DV?$char_traits@D@_STL@@V?$allocator@D@2@@_STL@@K@0@ABU10@@Z:
  0000e	b8 00 00 00 00	 mov	 eax, OFFSET FLAT:$T103589
  00013	e9 00 00 00 00	 jmp	 ___CxxFrameHandler
text$x	ENDS
??$_Construct@U?$pair@$$CBV?$basic_string@DV?$char_traits@D@_STL@@V?$allocator@D@2@@_STL@@K@_STL@@U12@@_STL@@YAXPAU?$pair@$$CBV?$basic_string@DV?$char_traits@D@_STL@@V?$allocator@D@2@@_STL@@K@0@ABU10@@Z ENDP ; _STL::_Construct<_STL::pair<_STL::basic_string<char,_STL::char_traits<char>,_STL::allocator<char> > const ,unsigned long>,_STL::pair<_STL::basic_string<char,_STL::char_traits<char>,_STL::allocator<char> > const ,unsigned long> >
PUBLIC	?erase@?$map@V?$basic_string@DV?$char_traits@D@_STL@@V?$allocator@D@2@@_STL@@KU?$less@V?$basic_string@DV?$char_traits@D@_STL@@V?$allocator@D@2@@_STL@@@2@V?$allocator@U?$pair@$$CBV?$basic_string@DV?$char_traits@D@_STL@@V?$allocator@D@2@@_STL@@K@_STL@@@2@@_STL@@QAEXU?$_Rb_tree_iterator@U?$pair@$$CBV?$basic_string@DV?$char_traits@D@_STL@@V?$allocator@D@2@@_STL@@K@_STL@@U?$_Nonconst_traits@U?$pair@$$CBV?$basic_string@DV?$char_traits@D@_STL@@V?$allocator@D@2@@_STL@@K@_STL@@@2@@2@@Z ; _STL::map<_STL::basic_string<char,_STL::char_traits<char>,_STL::allocator<char> >,unsigned long,_STL::less<_STL::basic_string<char,_STL::char_traits<char>,_STL::allocator<char> > >,_STL::allocator<_STL::pair<_STL::basic_string<char,_STL::char_traits<char>,_STL::allocator<char> > const ,unsigned long> > >::erase
; Function compile flags: /Ogsy
; File c:\stlport-4.6.1\stlport\stl\_map.h
;	COMDAT ?erase@?$map@V?$basic_string@DV?$char_traits@D@_STL@@V?$allocator@D@2@@_STL@@KU?$less@V?$basic_string@DV?$char_traits@D@_STL@@V?$allocator@D@2@@_STL@@@2@V?$allocator@U?$pair@$$CBV?$basic_string@DV?$char_traits@D@_STL@@V?$allocator@D@2@@_STL@@K@_STL@@@2@@_STL@@QAEXU?$_Rb_tree_iterator@U?$pair@$$CBV?$basic_string@DV?$char_traits@D@_STL@@V?$allocator@D@2@@_STL@@K@_STL@@U?$_Nonconst_traits@U?$pair@$$CBV?$basic_string@DV?$char_traits@D@_STL@@V?$allocator@D@2@@_STL@@K@_STL@@@2@@2@@Z
_TEXT	SEGMENT
___position$ = 8					; size = 4
?erase@?$map@V?$basic_string@DV?$char_traits@D@_STL@@V?$allocator@D@2@@_STL@@KU?$less@V?$basic_string@DV?$char_traits@D@_STL@@V?$allocator@D@2@@_STL@@@2@V?$allocator@U?$pair@$$CBV?$basic_string@DV?$char_traits@D@_STL@@V?$allocator@D@2@@_STL@@K@_STL@@@2@@_STL@@QAEXU?$_Rb_tree_iterator@U?$pair@$$CBV?$basic_string@DV?$char_traits@D@_STL@@V?$allocator@D@2@@_STL@@K@_STL@@U?$_Nonconst_traits@U?$pair@$$CBV?$basic_string@DV?$char_traits@D@_STL@@V?$allocator@D@2@@_STL@@K@_STL@@@2@@2@@Z PROC NEAR ; _STL::map<_STL::basic_string<char,_STL::char_traits<char>,_STL::allocator<char> >,unsigned long,_STL::less<_STL::basic_string<char,_STL::char_traits<char>,_STL::allocator<char> > >,_STL::allocator<_STL::pair<_STL::basic_string<char,_STL::char_traits<char>,_STL::allocator<char> > const ,unsigned long> > >::erase, COMDAT
; _this$ = ecx

; 187  :   void erase(iterator __position) { _M_t.erase(__position); }

  00000	8b 54 24 04	 mov	 edx, DWORD PTR ___position$[esp-4]
  00004	51		 push	 ecx
  00005	8b c4		 mov	 eax, esp
  00007	89 10		 mov	 DWORD PTR [eax], edx
  00009	e8 00 00 00 00	 call	 ?erase@?$_Rb_tree@V?$basic_string@DV?$char_traits@D@_STL@@V?$allocator@D@2@@_STL@@U?$pair@$$CBV?$basic_string@DV?$char_traits@D@_STL@@V?$allocator@D@2@@_STL@@K@2@U?$_Select1st@U?$pair@$$CBV?$basic_string@DV?$char_traits@D@_STL@@V?$allocator@D@2@@_STL@@K@_STL@@@2@U?$less@V?$basic_string@DV?$char_traits@D@_STL@@V?$allocator@D@2@@_STL@@@2@V?$allocator@U?$pair@$$CBV?$basic_string@DV?$char_traits@D@_STL@@V?$allocator@D@2@@_STL@@K@_STL@@@2@@_STL@@QAEXU?$_Rb_tree_iterator@U?$pair@$$CBV?$basic_string@DV?$char_traits@D@_STL@@V?$allocator@D@2@@_STL@@K@_STL@@U?$_Nonconst_traits@U?$pair@$$CBV?$basic_string@DV?$char_traits@D@_STL@@V?$allocator@D@2@@_STL@@K@_STL@@@2@@2@@Z ; _STL::_Rb_tree<_STL::basic_string<char,_STL::char_traits<char>,_STL::allocator<char> >,_STL::pair<_STL::basic_string<char,_STL::char_traits<char>,_STL::allocator<char> > const ,unsigned long>,_STL::_Select1st<_STL::pair<_STL::basic_string<char,_STL::char_traits<char>,_STL::allocator<char> > const ,unsigned long> >,_STL::less<_STL::basic_string<char,_STL::char_traits<char>,_STL::allocator<char> > >,_STL::allocator<_STL::pair<_STL::basic_string<char,_STL::char_traits<char>,_STL::allocator<char> > const ,unsigned long> > >::erase
  0000e	c2 04 00	 ret	 4
?erase@?$map@V?$basic_string@DV?$char_traits@D@_STL@@V?$allocator@D@2@@_STL@@KU?$less@V?$basic_string@DV?$char_traits@D@_STL@@V?$allocator@D@2@@_STL@@@2@V?$allocator@U?$pair@$$CBV?$basic_string@DV?$char_traits@D@_STL@@V?$allocator@D@2@@_STL@@K@_STL@@@2@@_STL@@QAEXU?$_Rb_tree_iterator@U?$pair@$$CBV?$basic_string@DV?$char_traits@D@_STL@@V?$allocator@D@2@@_STL@@K@_STL@@U?$_Nonconst_traits@U?$pair@$$CBV?$basic_string@DV?$char_traits@D@_STL@@V?$allocator@D@2@@_STL@@K@_STL@@@2@@2@@Z ENDP ; _STL::map<_STL::basic_string<char,_STL::char_traits<char>,_STL::allocator<char> >,unsigned long,_STL::less<_STL::basic_string<char,_STL::char_traits<char>,_STL::allocator<char> > >,_STL::allocator<_STL::pair<_STL::basic_string<char,_STL::char_traits<char>,_STL::allocator<char> > const ,unsigned long> > >::erase
_TEXT	ENDS
PUBLIC	?clear@?$_Rb_tree@V?$basic_string@DV?$char_traits@D@_STL@@V?$allocator@D@2@@_STL@@U?$pair@$$CBV?$basic_string@DV?$char_traits@D@_STL@@V?$allocator@D@2@@_STL@@K@2@U?$_Select1st@U?$pair@$$CBV?$basic_string@DV?$char_traits@D@_STL@@V?$allocator@D@2@@_STL@@K@_STL@@@2@U?$less@V?$basic_string@DV?$char_traits@D@_STL@@V?$allocator@D@2@@_STL@@@2@V?$allocator@U?$pair@$$CBV?$basic_string@DV?$char_traits@D@_STL@@V?$allocator@D@2@@_STL@@K@_STL@@@2@@_STL@@QAEXXZ ; _STL::_Rb_tree<_STL::basic_string<char,_STL::char_traits<char>,_STL::allocator<char> >,_STL::pair<_STL::basic_string<char,_STL::char_traits<char>,_STL::allocator<char> > const ,unsigned long>,_STL::_Select1st<_STL::pair<_STL::basic_string<char,_STL::char_traits<char>,_STL::allocator<char> > const ,unsigned long> >,_STL::less<_STL::basic_string<char,_STL::char_traits<char>,_STL::allocator<char> > >,_STL::allocator<_STL::pair<_STL::basic_string<char,_STL::char_traits<char>,_STL::allocator<char> > const ,unsigned long> > >::clear
; Function compile flags: /Ogsy
; File c:\stlport-4.6.1\stlport\stl\_tree.h
;	COMDAT ?clear@?$_Rb_tree@V?$basic_string@DV?$char_traits@D@_STL@@V?$allocator@D@2@@_STL@@U?$pair@$$CBV?$basic_string@DV?$char_traits@D@_STL@@V?$allocator@D@2@@_STL@@K@2@U?$_Select1st@U?$pair@$$CBV?$basic_string@DV?$char_traits@D@_STL@@V?$allocator@D@2@@_STL@@K@_STL@@@2@U?$less@V?$basic_string@DV?$char_traits@D@_STL@@V?$allocator@D@2@@_STL@@@2@V?$allocator@U?$pair@$$CBV?$basic_string@DV?$char_traits@D@_STL@@V?$allocator@D@2@@_STL@@K@_STL@@@2@@_STL@@QAEXXZ
_TEXT	SEGMENT
?clear@?$_Rb_tree@V?$basic_string@DV?$char_traits@D@_STL@@V?$allocator@D@2@@_STL@@U?$pair@$$CBV?$basic_string@DV?$char_traits@D@_STL@@V?$allocator@D@2@@_STL@@K@2@U?$_Select1st@U?$pair@$$CBV?$basic_string@DV?$char_traits@D@_STL@@V?$allocator@D@2@@_STL@@K@_STL@@@2@U?$less@V?$basic_string@DV?$char_traits@D@_STL@@V?$allocator@D@2@@_STL@@@2@V?$allocator@U?$pair@$$CBV?$basic_string@DV?$char_traits@D@_STL@@V?$allocator@D@2@@_STL@@K@_STL@@@2@@_STL@@QAEXXZ PROC NEAR ; _STL::_Rb_tree<_STL::basic_string<char,_STL::char_traits<char>,_STL::allocator<char> >,_STL::pair<_STL::basic_string<char,_STL::char_traits<char>,_STL::allocator<char> > const ,unsigned long>,_STL::_Select1st<_STL::pair<_STL::basic_string<char,_STL::char_traits<char>,_STL::allocator<char> > const ,unsigned long> >,_STL::less<_STL::basic_string<char,_STL::char_traits<char>,_STL::allocator<char> > >,_STL::allocator<_STL::pair<_STL::basic_string<char,_STL::char_traits<char>,_STL::allocator<char> > const ,unsigned long> > >::clear, COMDAT
; _this$ = ecx

; 445  :   void clear() {

  00000	56		 push	 esi
  00001	8b f1		 mov	 esi, ecx

; 446  :     if (_M_node_count != 0) {

  00003	83 7e 04 00	 cmp	 DWORD PTR [esi+4], 0
  00007	74 1e		 je	 SHORT $L101404

; 447  :       _M_erase(_M_root());

  00009	8b 06		 mov	 eax, DWORD PTR [esi]
  0000b	ff 70 04	 push	 DWORD PTR [eax+4]
  0000e	e8 00 00 00 00	 call	 ?_M_erase@?$_Rb_tree@V?$basic_string@DV?$char_traits@D@_STL@@V?$allocator@D@2@@_STL@@U?$pair@$$CBV?$basic_string@DV?$char_traits@D@_STL@@V?$allocator@D@2@@_STL@@K@2@U?$_Select1st@U?$pair@$$CBV?$basic_string@DV?$char_traits@D@_STL@@V?$allocator@D@2@@_STL@@K@_STL@@@2@U?$less@V?$basic_string@DV?$char_traits@D@_STL@@V?$allocator@D@2@@_STL@@@2@V?$allocator@U?$pair@$$CBV?$basic_string@DV?$char_traits@D@_STL@@V?$allocator@D@2@@_STL@@K@_STL@@@2@@_STL@@AAEXPAU?$_Rb_tree_node@U?$pair@$$CBV?$basic_string@DV?$char_traits@D@_STL@@V?$allocator@D@2@@_STL@@K@_STL@@@2@@Z ; _STL::_Rb_tree<_STL::basic_string<char,_STL::char_traits<char>,_STL::allocator<char> >,_STL::pair<_STL::basic_string<char,_STL::char_traits<char>,_STL::allocator<char> > const ,unsigned long>,_STL::_Select1st<_STL::pair<_STL::basic_string<char,_STL::char_traits<char>,_STL::allocator<char> > const ,unsigned long> >,_STL::less<_STL::basic_string<char,_STL::char_traits<char>,_STL::allocator<char> > >,_STL::allocator<_STL::pair<_STL::basic_string<char,_STL::char_traits<char>,_STL::allocator<char> > const ,unsigned long> > >::_M_erase

; 448  :       _M_leftmost() = this->_M_header._M_data;

  00013	8b 06		 mov	 eax, DWORD PTR [esi]
  00015	89 40 08	 mov	 DWORD PTR [eax+8], eax

; 449  :       _M_root() = 0;

  00018	8b 06		 mov	 eax, DWORD PTR [esi]
  0001a	83 60 04 00	 and	 DWORD PTR [eax+4], 0

; 450  :       _M_rightmost() = this->_M_header._M_data;

  0001e	8b 06		 mov	 eax, DWORD PTR [esi]
  00020	89 40 0c	 mov	 DWORD PTR [eax+12], eax

; 451  :       _M_node_count = 0;

  00023	83 66 04 00	 and	 DWORD PTR [esi+4], 0
$L101404:
  00027	5e		 pop	 esi

; 452  :     }
; 453  :   }      

  00028	c3		 ret	 0
?clear@?$_Rb_tree@V?$basic_string@DV?$char_traits@D@_STL@@V?$allocator@D@2@@_STL@@U?$pair@$$CBV?$basic_string@DV?$char_traits@D@_STL@@V?$allocator@D@2@@_STL@@K@2@U?$_Select1st@U?$pair@$$CBV?$basic_string@DV?$char_traits@D@_STL@@V?$allocator@D@2@@_STL@@K@_STL@@@2@U?$less@V?$basic_string@DV?$char_traits@D@_STL@@V?$allocator@D@2@@_STL@@@2@V?$allocator@U?$pair@$$CBV?$basic_string@DV?$char_traits@D@_STL@@V?$allocator@D@2@@_STL@@K@_STL@@@2@@_STL@@QAEXXZ ENDP ; _STL::_Rb_tree<_STL::basic_string<char,_STL::char_traits<char>,_STL::allocator<char> >,_STL::pair<_STL::basic_string<char,_STL::char_traits<char>,_STL::allocator<char> > const ,unsigned long>,_STL::_Select1st<_STL::pair<_STL::basic_string<char,_STL::char_traits<char>,_STL::allocator<char> > const ,unsigned long> >,_STL::less<_STL::basic_string<char,_STL::char_traits<char>,_STL::allocator<char> > >,_STL::allocator<_STL::pair<_STL::basic_string<char,_STL::char_traits<char>,_STL::allocator<char> > const ,unsigned long> > >::clear
_TEXT	ENDS
PUBLIC	?_M_create_node@?$_Rb_tree@V?$basic_string@DV?$char_traits@D@_STL@@V?$allocator@D@2@@_STL@@U?$pair@$$CBV?$basic_string@DV?$char_traits@D@_STL@@V?$allocator@D@2@@_STL@@K@2@U?$_Select1st@U?$pair@$$CBV?$basic_string@DV?$char_traits@D@_STL@@V?$allocator@D@2@@_STL@@K@_STL@@@2@U?$less@V?$basic_string@DV?$char_traits@D@_STL@@V?$allocator@D@2@@_STL@@@2@V?$allocator@U?$pair@$$CBV?$basic_string@DV?$char_traits@D@_STL@@V?$allocator@D@2@@_STL@@K@_STL@@@2@@_STL@@IAEPAU?$_Rb_tree_node@U?$pair@$$CBV?$basic_string@DV?$char_traits@D@_STL@@V?$allocator@D@2@@_STL@@K@_STL@@@2@ABU?$pair@$$CBV?$basic_string@DV?$char_traits@D@_STL@@V?$allocator@D@2@@_STL@@K@2@@Z ; _STL::_Rb_tree<_STL::basic_string<char,_STL::char_traits<char>,_STL::allocator<char> >,_STL::pair<_STL::basic_string<char,_STL::char_traits<char>,_STL::allocator<char> > const ,unsigned long>,_STL::_Select1st<_STL::pair<_STL::basic_string<char,_STL::char_traits<char>,_STL::allocator<char> > const ,unsigned long> >,_STL::less<_STL::basic_string<char,_STL::char_traits<char>,_STL::allocator<char> > >,_STL::allocator<_STL::pair<_STL::basic_string<char,_STL::char_traits<char>,_STL::allocator<char> > const ,unsigned long> > >::_M_create_node
EXTRN	__CxxThrowException@8:NEAR
;	COMDAT xdata$x
; File c:\stlport-4.6.1\stlport\stl\_alloc.h
xdata$x	SEGMENT
$T103633 DD	0ffffffffH
	DD	00H
	DD	0ffffffffH
	DD	00H
$T103635 DD	00H
	DD	00H
	DD	00H
	DD	FLAT:$L103621
$T103634 DD	00H
	DD	00H
	DD	01H
	DD	01H
	DD	FLAT:$T103635
$T103630 DD	019930520H
	DD	02H
	DD	FLAT:$T103633
	DD	01H
	DD	FLAT:$T103634
	DD	2 DUP(00H)
; Function compile flags: /Ogsy
; File c:\stlport-4.6.1\stlport\stl\_tree.h
xdata$x	ENDS
;	COMDAT ?_M_create_node@?$_Rb_tree@V?$basic_string@DV?$char_traits@D@_STL@@V?$allocator@D@2@@_STL@@U?$pair@$$CBV?$basic_string@DV?$char_traits@D@_STL@@V?$allocator@D@2@@_STL@@K@2@U?$_Select1st@U?$pair@$$CBV?$basic_string@DV?$char_traits@D@_STL@@V?$allocator@D@2@@_STL@@K@_STL@@@2@U?$less@V?$basic_string@DV?$char_traits@D@_STL@@V?$allocator@D@2@@_STL@@@2@V?$allocator@U?$pair@$$CBV?$basic_string@DV?$char_traits@D@_STL@@V?$allocator@D@2@@_STL@@K@_STL@@@2@@_STL@@IAEPAU?$_Rb_tree_node@U?$pair@$$CBV?$basic_string@DV?$char_traits@D@_STL@@V?$allocator@D@2@@_STL@@K@_STL@@@2@ABU?$pair@$$CBV?$basic_string@DV?$char_traits@D@_STL@@V?$allocator@D@2@@_STL@@K@2@@Z
_TEXT	SEGMENT
_this$ = -24						; size = 4
___tmp$ = -20						; size = 4
__$EHRec$ = -16						; size = 16
___x$ = 8						; size = 4
?_M_create_node@?$_Rb_tree@V?$basic_string@DV?$char_traits@D@_STL@@V?$allocator@D@2@@_STL@@U?$pair@$$CBV?$basic_string@DV?$char_traits@D@_STL@@V?$allocator@D@2@@_STL@@K@2@U?$_Select1st@U?$pair@$$CBV?$basic_string@DV?$char_traits@D@_STL@@V?$allocator@D@2@@_STL@@K@_STL@@@2@U?$less@V?$basic_string@DV?$char_traits@D@_STL@@V?$allocator@D@2@@_STL@@@2@V?$allocator@U?$pair@$$CBV?$basic_string@DV?$char_traits@D@_STL@@V?$allocator@D@2@@_STL@@K@_STL@@@2@@_STL@@IAEPAU?$_Rb_tree_node@U?$pair@$$CBV?$basic_string@DV?$char_traits@D@_STL@@V?$allocator@D@2@@_STL@@K@_STL@@@2@ABU?$pair@$$CBV?$basic_string@DV?$char_traits@D@_STL@@V?$allocator@D@2@@_STL@@K@2@@Z PROC NEAR ; _STL::_Rb_tree<_STL::basic_string<char,_STL::char_traits<char>,_STL::allocator<char> >,_STL::pair<_STL::basic_string<char,_STL::char_traits<char>,_STL::allocator<char> > const ,unsigned long>,_STL::_Select1st<_STL::pair<_STL::basic_string<char,_STL::char_traits<char>,_STL::allocator<char> > const ,unsigned long> >,_STL::less<_STL::basic_string<char,_STL::char_traits<char>,_STL::allocator<char> > >,_STL::allocator<_STL::pair<_STL::basic_string<char,_STL::char_traits<char>,_STL::allocator<char> > const ,unsigned long> > >::_M_create_node, COMDAT
; _this$ = ecx

; 242  :   {

  00000	b8 00 00 00 00	 mov	 eax, __ehhandler$?_M_create_node@?$_Rb_tree@V?$basic_string@DV?$char_traits@D@_STL@@V?$allocator@D@2@@_STL@@U?$pair@$$CBV?$basic_string@DV?$char_traits@D@_STL@@V?$allocator@D@2@@_STL@@K@2@U?$_Select1st@U?$pair@$$CBV?$basic_string@DV?$char_traits@D@_STL@@V?$allocator@D@2@@_STL@@K@_STL@@@2@U?$less@V?$basic_string@DV?$char_traits@D@_STL@@V?$allocator@D@2@@_STL@@@2@V?$allocator@U?$pair@$$CBV?$basic_string@DV?$char_traits@D@_STL@@V?$allocator@D@2@@_STL@@K@_STL@@@2@@_STL@@IAEPAU?$_Rb_tree_node@U?$pair@$$CBV?$basic_string@DV?$char_traits@D@_STL@@V?$allocator@D@2@@_STL@@K@_STL@@@2@ABU?$pair@$$CBV?$basic_string@DV?$char_traits@D@_STL@@V?$allocator@D@2@@_STL@@K@2@@Z
  00005	e8 00 00 00 00	 call	 __EH_prolog
  0000a	83 ec 0c	 sub	 esp, 12			; 0000000cH
  0000d	53		 push	 ebx
  0000e	56		 push	 esi
  0000f	57		 push	 edi
  00010	89 65 f0	 mov	 DWORD PTR __$EHRec$[ebp], esp

; 243  :     _Link_type __tmp = this->_M_header.allocate(1);

  00013	6a 20		 push	 32			; 00000020H
  00015	89 4d e8	 mov	 DWORD PTR _this$[ebp], ecx
  00018	e8 00 00 00 00	 call	 ?allocate@?$__node_alloc@$00$0A@@_STL@@SAPAXI@Z ; _STL::__node_alloc<1,0>::allocate

; 244  :     _STLP_TRY {
; 245  :       _Construct(&__tmp->_M_value_field, __x);

  0001d	ff 75 08	 push	 DWORD PTR ___x$[ebp]
  00020	83 65 fc 00	 and	 DWORD PTR __$EHRec$[ebp+12], 0
  00024	8b f0		 mov	 esi, eax
  00026	8d 46 10	 lea	 eax, DWORD PTR [esi+16]
  00029	50		 push	 eax
  0002a	89 75 ec	 mov	 DWORD PTR ___tmp$[ebp], esi
  0002d	e8 00 00 00 00	 call	 ??$_Construct@U?$pair@$$CBV?$basic_string@DV?$char_traits@D@_STL@@V?$allocator@D@2@@_STL@@K@_STL@@U12@@_STL@@YAXPAU?$pair@$$CBV?$basic_string@DV?$char_traits@D@_STL@@V?$allocator@D@2@@_STL@@K@0@ABU10@@Z ; _STL::_Construct<_STL::pair<_STL::basic_string<char,_STL::char_traits<char>,_STL::allocator<char> > const ,unsigned long>,_STL::pair<_STL::basic_string<char,_STL::char_traits<char>,_STL::allocator<char> > const ,unsigned long> >

; 248  :     return __tmp;
; 249  :   }

  00032	8b 4d f4	 mov	 ecx, DWORD PTR __$EHRec$[ebp+4]
  00035	83 c4 0c	 add	 esp, 12			; 0000000cH
  00038	5f		 pop	 edi
  00039	8b c6		 mov	 eax, esi
  0003b	5e		 pop	 esi
  0003c	64 89 0d 00 00
	00 00		 mov	 DWORD PTR fs:__except_list, ecx
  00043	5b		 pop	 ebx
  00044	c9		 leave
  00045	c2 04 00	 ret	 4
$L103621:

; 246  :     }
; 247  :     _STLP_UNWIND(this->_M_header.deallocate(__tmp,1));

  00048	8b 4d e8	 mov	 ecx, DWORD PTR _this$[ebp]
  0004b	6a 01		 push	 1
  0004d	ff 75 ec	 push	 DWORD PTR ___tmp$[ebp]
  00050	e8 00 00 00 00	 call	 ?deallocate@?$allocator@U?$_Rb_tree_node@U?$pair@$$CBV?$basic_string@DV?$char_traits@D@_STL@@V?$allocator@D@2@@_STL@@K@_STL@@@_STL@@@_STL@@QAEXPAU?$_Rb_tree_node@U?$pair@$$CBV?$basic_string@DV?$char_traits@D@_STL@@V?$allocator@D@2@@_STL@@K@_STL@@@2@I@Z ; _STL::allocator<_STL::_Rb_tree_node<_STL::pair<_STL::basic_string<char,_STL::char_traits<char>,_STL::allocator<char> > const ,unsigned long> > >::deallocate
  00055	6a 00		 push	 0
  00057	6a 00		 push	 0
  00059	e8 00 00 00 00	 call	 __CxxThrowException@8
$L103636:
$L103632:
  0005e	cc		 int	 3
_TEXT	ENDS
;	COMDAT text$x
text$x	SEGMENT
__ehhandler$?_M_create_node@?$_Rb_tree@V?$basic_string@DV?$char_traits@D@_STL@@V?$allocator@D@2@@_STL@@U?$pair@$$CBV?$basic_string@DV?$char_traits@D@_STL@@V?$allocator@D@2@@_STL@@K@2@U?$_Select1st@U?$pair@$$CBV?$basic_string@DV?$char_traits@D@_STL@@V?$allocator@D@2@@_STL@@K@_STL@@@2@U?$less@V?$basic_string@DV?$char_traits@D@_STL@@V?$allocator@D@2@@_STL@@@2@V?$allocator@U?$pair@$$CBV?$basic_string@DV?$char_traits@D@_STL@@V?$allocator@D@2@@_STL@@K@_STL@@@2@@_STL@@IAEPAU?$_Rb_tree_node@U?$pair@$$CBV?$basic_string@DV?$char_traits@D@_STL@@V?$allocator@D@2@@_STL@@K@_STL@@@2@ABU?$pair@$$CBV?$basic_string@DV?$char_traits@D@_STL@@V?$allocator@D@2@@_STL@@K@2@@Z:
  00000	b8 00 00 00 00	 mov	 eax, OFFSET FLAT:$T103630
  00005	e9 00 00 00 00	 jmp	 ___CxxFrameHandler
text$x	ENDS
?_M_create_node@?$_Rb_tree@V?$basic_string@DV?$char_traits@D@_STL@@V?$allocator@D@2@@_STL@@U?$pair@$$CBV?$basic_string@DV?$char_traits@D@_STL@@V?$allocator@D@2@@_STL@@K@2@U?$_Select1st@U?$pair@$$CBV?$basic_string@DV?$char_traits@D@_STL@@V?$allocator@D@2@@_STL@@K@_STL@@@2@U?$less@V?$basic_string@DV?$char_traits@D@_STL@@V?$allocator@D@2@@_STL@@@2@V?$allocator@U?$pair@$$CBV?$basic_string@DV?$char_traits@D@_STL@@V?$allocator@D@2@@_STL@@K@_STL@@@2@@_STL@@IAEPAU?$_Rb_tree_node@U?$pair@$$CBV?$basic_string@DV?$char_traits@D@_STL@@V?$allocator@D@2@@_STL@@K@_STL@@@2@ABU?$pair@$$CBV?$basic_string@DV?$char_traits@D@_STL@@V?$allocator@D@2@@_STL@@K@2@@Z ENDP ; _STL::_Rb_tree<_STL::basic_string<char,_STL::char_traits<char>,_STL::allocator<char> >,_STL::pair<_STL::basic_string<char,_STL::char_traits<char>,_STL::allocator<char> > const ,unsigned long>,_STL::_Select1st<_STL::pair<_STL::basic_string<char,_STL::char_traits<char>,_STL::allocator<char> > const ,unsigned long> >,_STL::less<_STL::basic_string<char,_STL::char_traits<char>,_STL::allocator<char> > >,_STL::allocator<_STL::pair<_STL::basic_string<char,_STL::char_traits<char>,_STL::allocator<char> > const ,unsigned long> > >::_M_create_node
PUBLIC	?RemoveCreature@MJusticeAttackManager@@QAE_NPBD@Z ; MJusticeAttackManager::RemoveCreature
; Function compile flags: /Ogsy
; File c:\darkeden\designed_common\project\client\mjusticeattackmanager.cpp
;	COMDAT ?RemoveCreature@MJusticeAttackManager@@QAE_NPBD@Z
_TEXT	SEGMENT
$T103641 = -12						; size = 12
_pName$ = 8						; size = 4
$T103642 = 11						; size = 1
?RemoveCreature@MJusticeAttackManager@@QAE_NPBD@Z PROC NEAR ; MJusticeAttackManager::RemoveCreature, COMDAT
; _this$ = ecx

; 60   : {

  00000	55		 push	 ebp
  00001	8b ec		 mov	 ebp, esp
  00003	83 ec 0c	 sub	 esp, 12			; 0000000cH
  00006	56		 push	 esi
  00007	57		 push	 edi

; 61   : 	TIME_MAP::iterator iTime = m_Creatures.find( std::string(pName) );

  00008	8d 45 0b	 lea	 eax, DWORD PTR $T103642[ebp]
  0000b	50		 push	 eax
  0000c	ff 75 08	 push	 DWORD PTR _pName$[ebp]
  0000f	8b f9		 mov	 edi, ecx
  00011	8d 4d f4	 lea	 ecx, DWORD PTR $T103641[ebp]
  00014	e8 00 00 00 00	 call	 ??0?$basic_string@DV?$char_traits@D@_STL@@V?$allocator@D@2@@_STL@@QAE@PBDABV?$allocator@D@1@@Z ; _STL::basic_string<char,_STL::char_traits<char>,_STL::allocator<char> >::basic_string<char,_STL::char_traits<char>,_STL::allocator<char> >
  00019	50		 push	 eax
  0001a	8b cf		 mov	 ecx, edi
  0001c	e8 00 00 00 00	 call	 ??$_M_find@V?$basic_string@DV?$char_traits@D@_STL@@V?$allocator@D@2@@_STL@@@?$_Rb_tree@V?$basic_string@DV?$char_traits@D@_STL@@V?$allocator@D@2@@_STL@@U?$pair@$$CBV?$basic_string@DV?$char_traits@D@_STL@@V?$allocator@D@2@@_STL@@K@2@U?$_Select1st@U?$pair@$$CBV?$basic_string@DV?$char_traits@D@_STL@@V?$allocator@D@2@@_STL@@K@_STL@@@2@U?$less@V?$basic_string@DV?$char_traits@D@_STL@@V?$allocator@D@2@@_STL@@@2@V?$allocator@U?$pair@$$CBV?$basic_string@DV?$char_traits@D@_STL@@V?$allocator@D@2@@_STL@@K@_STL@@@2@@_STL@@ABEPAU?$_Rb_tree_node@U?$pair@$$CBV?$basic_string@DV?$char_traits@D@_STL@@V?$allocator@D@2@@_STL@@K@_STL@@@1@ABV?$basic_string@DV?$char_traits@D@_STL@@V?$allocator@D@2@@1@@Z ; _STL::_Rb_tree<_STL::basic_string<char,_STL::char_traits<char>,_STL::allocator<char> >,_STL::pair<_STL::basic_string<char,_STL::char_traits<char>,_STL::allocator<char> > const ,unsigned long>,_STL::_Select1st<_STL::pair<_STL::basic_string<char,_STL::char_traits<char>,_STL::allocator<char> > const ,unsigned long> >,_STL::less<_STL::basic_string<char,_STL::char_traits<char>,_STL::allocator<char> > >,_STL::allocator<_STL::pair<_STL::basic_string<char,_STL::char_traits<char>,_STL::allocator<char> > const ,unsigned long> > >::_M_find<_STL::basic_string<char,_STL::char_traits<char>,_STL::allocator<char> > >
  00021	8b f0		 mov	 esi, eax
  00023	8b 45 fc	 mov	 eax, DWORD PTR $T103641[ebp+8]
  00026	2b 45 f4	 sub	 eax, DWORD PTR $T103641[ebp]
  00029	8d 4d fc	 lea	 ecx, DWORD PTR $T103641[ebp+8]
  0002c	50		 push	 eax
  0002d	ff 75 f4	 push	 DWORD PTR $T103641[ebp]
  00030	e8 00 00 00 00	 call	 ?deallocate@?$allocator@D@_STL@@QAEXPADI@Z ; _STL::allocator<char>::deallocate

; 62   : 
; 63   : 	if (iTime != m_Creatures.end())

  00035	3b 37		 cmp	 esi, DWORD PTR [edi]
  00037	74 10		 je	 SHORT $L101150

; 64   : 	{
; 65   : 		m_Creatures.erase( iTime );

  00039	51		 push	 ecx
  0003a	8b c4		 mov	 eax, esp
  0003c	8b cf		 mov	 ecx, edi
  0003e	89 30		 mov	 DWORD PTR [eax], esi
  00040	e8 00 00 00 00	 call	 ?erase@?$_Rb_tree@V?$basic_string@DV?$char_traits@D@_STL@@V?$allocator@D@2@@_STL@@U?$pair@$$CBV?$basic_string@DV?$char_traits@D@_STL@@V?$allocator@D@2@@_STL@@K@2@U?$_Select1st@U?$pair@$$CBV?$basic_string@DV?$char_traits@D@_STL@@V?$allocator@D@2@@_STL@@K@_STL@@@2@U?$less@V?$basic_string@DV?$char_traits@D@_STL@@V?$allocator@D@2@@_STL@@@2@V?$allocator@U?$pair@$$CBV?$basic_string@DV?$char_traits@D@_STL@@V?$allocator@D@2@@_STL@@K@_STL@@@2@@_STL@@QAEXU?$_Rb_tree_iterator@U?$pair@$$CBV?$basic_string@DV?$char_traits@D@_STL@@V?$allocator@D@2@@_STL@@K@_STL@@U?$_Nonconst_traits@U?$pair@$$CBV?$basic_string@DV?$char_traits@D@_STL@@V?$allocator@D@2@@_STL@@K@_STL@@@2@@2@@Z ; _STL::_Rb_tree<_STL::basic_string<char,_STL::char_traits<char>,_STL::allocator<char> >,_STL::pair<_STL::basic_string<char,_STL::char_traits<char>,_STL::allocator<char> > const ,unsigned long>,_STL::_Select1st<_STL::pair<_STL::basic_string<char,_STL::char_traits<char>,_STL::allocator<char> > const ,unsigned long> >,_STL::less<_STL::basic_string<char,_STL::char_traits<char>,_STL::allocator<char> > >,_STL::allocator<_STL::pair<_STL::basic_string<char,_STL::char_traits<char>,_STL::allocator<char> > const ,unsigned long> > >::erase

; 66   : 
; 67   : 		return true;

  00045	b0 01		 mov	 al, 1
  00047	eb 02		 jmp	 SHORT $L101110
$L101150:

; 68   : 	}
; 69   : 
; 70   : 	return false;

  00049	32 c0		 xor	 al, al
$L101110:

; 71   : }

  0004b	5f		 pop	 edi
  0004c	5e		 pop	 esi
  0004d	c9		 leave
  0004e	c2 04 00	 ret	 4
?RemoveCreature@MJusticeAttackManager@@QAE_NPBD@Z ENDP	; MJusticeAttackManager::RemoveCreature
_TEXT	ENDS
PUBLIC	?clear@?$map@V?$basic_string@DV?$char_traits@D@_STL@@V?$allocator@D@2@@_STL@@KU?$less@V?$basic_string@DV?$char_traits@D@_STL@@V?$allocator@D@2@@_STL@@@2@V?$allocator@U?$pair@$$CBV?$basic_string@DV?$char_traits@D@_STL@@V?$allocator@D@2@@_STL@@K@_STL@@@2@@_STL@@QAEXXZ ; _STL::map<_STL::basic_string<char,_STL::char_traits<char>,_STL::allocator<char> >,unsigned long,_STL::less<_STL::basic_string<char,_STL::char_traits<char>,_STL::allocator<char> > >,_STL::allocator<_STL::pair<_STL::basic_string<char,_STL::char_traits<char>,_STL::allocator<char> > const ,unsigned long> > >::clear
; Function compile flags: /Ogsy
; File c:\stlport-4.6.1\stlport\stl\_map.h
;	COMDAT ?clear@?$map@V?$basic_string@DV?$char_traits@D@_STL@@V?$allocator@D@2@@_STL@@KU?$less@V?$basic_string@DV?$char_traits@D@_STL@@V?$allocator@D@2@@_STL@@@2@V?$allocator@U?$pair@$$CBV?$basic_string@DV?$char_traits@D@_STL@@V?$allocator@D@2@@_STL@@K@_STL@@@2@@_STL@@QAEXXZ
_TEXT	SEGMENT
?clear@?$map@V?$basic_string@DV?$char_traits@D@_STL@@V?$allocator@D@2@@_STL@@KU?$less@V?$basic_string@DV?$char_traits@D@_STL@@V?$allocator@D@2@@_STL@@@2@V?$allocator@U?$pair@$$CBV?$basic_string@DV?$char_traits@D@_STL@@V?$allocator@D@2@@_STL@@K@_STL@@@2@@_STL@@QAEXXZ PROC NEAR ; _STL::map<_STL::basic_string<char,_STL::char_traits<char>,_STL::allocator<char> >,unsigned long,_STL::less<_STL::basic_string<char,_STL::char_traits<char>,_STL::allocator<char> > >,_STL::allocator<_STL::pair<_STL::basic_string<char,_STL::char_traits<char>,_STL::allocator<char> > const ,unsigned long> > >::clear, COMDAT
; _this$ = ecx

; 191  :   void clear() { _M_t.clear(); }

  00000	e9 00 00 00 00	 jmp	 ?clear@?$_Rb_tree@V?$basic_string@DV?$char_traits@D@_STL@@V?$allocator@D@2@@_STL@@U?$pair@$$CBV?$basic_string@DV?$char_traits@D@_STL@@V?$allocator@D@2@@_STL@@K@2@U?$_Select1st@U?$pair@$$CBV?$basic_string@DV?$char_traits@D@_STL@@V?$allocator@D@2@@_STL@@K@_STL@@@2@U?$less@V?$basic_string@DV?$char_traits@D@_STL@@V?$allocator@D@2@@_STL@@@2@V?$allocator@U?$pair@$$CBV?$basic_string@DV?$char_traits@D@_STL@@V?$allocator@D@2@@_STL@@K@_STL@@@2@@_STL@@QAEXXZ ; _STL::_Rb_tree<_STL::basic_string<char,_STL::char_traits<char>,_STL::allocator<char> >,_STL::pair<_STL::basic_string<char,_STL::char_traits<char>,_STL::allocator<char> > const ,unsigned long>,_STL::_Select1st<_STL::pair<_STL::basic_string<char,_STL::char_traits<char>,_STL::allocator<char> > const ,unsigned long> >,_STL::less<_STL::basic_string<char,_STL::char_traits<char>,_STL::allocator<char> > >,_STL::allocator<_STL::pair<_STL::basic_string<char,_STL::char_traits<char>,_STL::allocator<char> > const ,unsigned long> > >::clear
?clear@?$map@V?$basic_string@DV?$char_traits@D@_STL@@V?$allocator@D@2@@_STL@@KU?$less@V?$basic_string@DV?$char_traits@D@_STL@@V?$allocator@D@2@@_STL@@@2@V?$allocator@U?$pair@$$CBV?$basic_string@DV?$char_traits@D@_STL@@V?$allocator@D@2@@_STL@@K@_STL@@@2@@_STL@@QAEXXZ ENDP ; _STL::map<_STL::basic_string<char,_STL::char_traits<char>,_STL::allocator<char> >,unsigned long,_STL::less<_STL::basic_string<char,_STL::char_traits<char>,_STL::allocator<char> > >,_STL::allocator<_STL::pair<_STL::basic_string<char,_STL::char_traits<char>,_STL::allocator<char> > const ,unsigned long> > >::clear
_TEXT	ENDS
PUBLIC	??1?$_Rb_tree@V?$basic_string@DV?$char_traits@D@_STL@@V?$allocator@D@2@@_STL@@U?$pair@$$CBV?$basic_string@DV?$char_traits@D@_STL@@V?$allocator@D@2@@_STL@@K@2@U?$_Select1st@U?$pair@$$CBV?$basic_string@DV?$char_traits@D@_STL@@V?$allocator@D@2@@_STL@@K@_STL@@@2@U?$less@V?$basic_string@DV?$char_traits@D@_STL@@V?$allocator@D@2@@_STL@@@2@V?$allocator@U?$pair@$$CBV?$basic_string@DV?$char_traits@D@_STL@@V?$allocator@D@2@@_STL@@K@_STL@@@2@@_STL@@QAE@XZ ; _STL::_Rb_tree<_STL::basic_string<char,_STL::char_traits<char>,_STL::allocator<char> >,_STL::pair<_STL::basic_string<char,_STL::char_traits<char>,_STL::allocator<char> > const ,unsigned long>,_STL::_Select1st<_STL::pair<_STL::basic_string<char,_STL::char_traits<char>,_STL::allocator<char> > const ,unsigned long> >,_STL::less<_STL::basic_string<char,_STL::char_traits<char>,_STL::allocator<char> > >,_STL::allocator<_STL::pair<_STL::basic_string<char,_STL::char_traits<char>,_STL::allocator<char> > const ,unsigned long> > >::~_Rb_tree<_STL::basic_string<char,_STL::char_traits<char>,_STL::allocator<char> >,_STL::pair<_STL::basic_string<char,_STL::char_traits<char>,_STL::allocator<char> > const ,unsigned long>,_STL::_Select1st<_STL::pair<_STL::basic_string<char,_STL::char_traits<char>,_STL::allocator<char> > const ,unsigned long> >,_STL::less<_STL::basic_string<char,_STL::char_traits<char>,_STL::allocator<char> > >,_STL::allocator<_STL::pair<_STL::basic_string<char,_STL::char_traits<char>,_STL::allocator<char> > const ,unsigned long> > >
;	COMDAT xdata$x
; File c:\stlport-4.6.1\stlport\stl\_alloc.h
xdata$x	SEGMENT
$T103765 DD	0ffffffffH
	DD	FLAT:$L103746
$T103763 DD	019930520H
	DD	01H
	DD	FLAT:$T103765
	DD	2 DUP(00H)
	DD	2 DUP(00H)
; Function compile flags: /Ogsy
; File c:\stlport-4.6.1\stlport\stl\_tree.h
xdata$x	ENDS
;	COMDAT ??1?$_Rb_tree@V?$basic_string@DV?$char_traits@D@_STL@@V?$allocator@D@2@@_STL@@U?$pair@$$CBV?$basic_string@DV?$char_traits@D@_STL@@V?$allocator@D@2@@_STL@@K@2@U?$_Select1st@U?$pair@$$CBV?$basic_string@DV?$char_traits@D@_STL@@V?$allocator@D@2@@_STL@@K@_STL@@@2@U?$less@V?$basic_string@DV?$char_traits@D@_STL@@V?$allocator@D@2@@_STL@@@2@V?$allocator@U?$pair@$$CBV?$basic_string@DV?$char_traits@D@_STL@@V?$allocator@D@2@@_STL@@K@_STL@@@2@@_STL@@QAE@XZ
_TEXT	SEGMENT
_this$ = -16						; size = 4
__$EHRec$ = -12						; size = 12
??1?$_Rb_tree@V?$basic_string@DV?$char_traits@D@_STL@@V?$allocator@D@2@@_STL@@U?$pair@$$CBV?$basic_string@DV?$char_traits@D@_STL@@V?$allocator@D@2@@_STL@@K@2@U?$_Select1st@U?$pair@$$CBV?$basic_string@DV?$char_traits@D@_STL@@V?$allocator@D@2@@_STL@@K@_STL@@@2@U?$less@V?$basic_string@DV?$char_traits@D@_STL@@V?$allocator@D@2@@_STL@@@2@V?$allocator@U?$pair@$$CBV?$basic_string@DV?$char_traits@D@_STL@@V?$allocator@D@2@@_STL@@K@_STL@@@2@@_STL@@QAE@XZ PROC NEAR ; _STL::_Rb_tree<_STL::basic_string<char,_STL::char_traits<char>,_STL::allocator<char> >,_STL::pair<_STL::basic_string<char,_STL::char_traits<char>,_STL::allocator<char> > const ,unsigned long>,_STL::_Select1st<_STL::pair<_STL::basic_string<char,_STL::char_traits<char>,_STL::allocator<char> > const ,unsigned long> >,_STL::less<_STL::basic_string<char,_STL::char_traits<char>,_STL::allocator<char> > >,_STL::allocator<_STL::pair<_STL::basic_string<char,_STL::char_traits<char>,_STL::allocator<char> > const ,unsigned long> > >::~_Rb_tree<_STL::basic_string<char,_STL::char_traits<char>,_STL::allocator<char> >,_STL::pair<_STL::basic_string<char,_STL::char_traits<char>,_STL::allocator<char> > const ,unsigned long>,_STL::_Select1st<_STL::pair<_STL::basic_string<char,_STL::char_traits<char>,_STL::allocator<char> > const ,unsigned long> >,_STL::less<_STL::basic_string<char,_STL::char_traits<char>,_STL::allocator<char> > >,_STL::allocator<_STL::pair<_STL::basic_string<char,_STL::char_traits<char>,_STL::allocator<char> > const ,unsigned long> > >, COMDAT
; _this$ = ecx

; 341  :   ~_Rb_tree() { clear(); }

  00000	b8 00 00 00 00	 mov	 eax, __ehhandler$??1?$_Rb_tree@V?$basic_string@DV?$char_traits@D@_STL@@V?$allocator@D@2@@_STL@@U?$pair@$$CBV?$basic_string@DV?$char_traits@D@_STL@@V?$allocator@D@2@@_STL@@K@2@U?$_Select1st@U?$pair@$$CBV?$basic_string@DV?$char_traits@D@_STL@@V?$allocator@D@2@@_STL@@K@_STL@@@2@U?$less@V?$basic_string@DV?$char_traits@D@_STL@@V?$allocator@D@2@@_STL@@@2@V?$allocator@U?$pair@$$CBV?$basic_string@DV?$char_traits@D@_STL@@V?$allocator@D@2@@_STL@@K@_STL@@@2@@_STL@@QAE@XZ
  00005	e8 00 00 00 00	 call	 __EH_prolog
  0000a	51		 push	 ecx
  0000b	56		 push	 esi
  0000c	8b f1		 mov	 esi, ecx
  0000e	89 75 f0	 mov	 DWORD PTR _this$[ebp], esi
  00011	83 65 fc 00	 and	 DWORD PTR __$EHRec$[ebp+8], 0
  00015	e8 00 00 00 00	 call	 ?clear@?$_Rb_tree@V?$basic_string@DV?$char_traits@D@_STL@@V?$allocator@D@2@@_STL@@U?$pair@$$CBV?$basic_string@DV?$char_traits@D@_STL@@V?$allocator@D@2@@_STL@@K@2@U?$_Select1st@U?$pair@$$CBV?$basic_string@DV?$char_traits@D@_STL@@V?$allocator@D@2@@_STL@@K@_STL@@@2@U?$less@V?$basic_string@DV?$char_traits@D@_STL@@V?$allocator@D@2@@_STL@@@2@V?$allocator@U?$pair@$$CBV?$basic_string@DV?$char_traits@D@_STL@@V?$allocator@D@2@@_STL@@K@_STL@@@2@@_STL@@QAEXXZ ; _STL::_Rb_tree<_STL::basic_string<char,_STL::char_traits<char>,_STL::allocator<char> >,_STL::pair<_STL::basic_string<char,_STL::char_traits<char>,_STL::allocator<char> > const ,unsigned long>,_STL::_Select1st<_STL::pair<_STL::basic_string<char,_STL::char_traits<char>,_STL::allocator<char> > const ,unsigned long> >,_STL::less<_STL::basic_string<char,_STL::char_traits<char>,_STL::allocator<char> > >,_STL::allocator<_STL::pair<_STL::basic_string<char,_STL::char_traits<char>,_STL::allocator<char> > const ,unsigned long> > >::clear
  0001a	83 4d fc ff	 or	 DWORD PTR __$EHRec$[ebp+8], -1
  0001e	6a 01		 push	 1
  00020	ff 36		 push	 DWORD PTR [esi]
  00022	8b ce		 mov	 ecx, esi
  00024	e8 00 00 00 00	 call	 ?deallocate@?$allocator@U?$_Rb_tree_node@U?$pair@$$CBV?$basic_string@DV?$char_traits@D@_STL@@V?$allocator@D@2@@_STL@@K@_STL@@@_STL@@@_STL@@QAEXPAU?$_Rb_tree_node@U?$pair@$$CBV?$basic_string@DV?$char_traits@D@_STL@@V?$allocator@D@2@@_STL@@K@_STL@@@2@I@Z ; _STL::allocator<_STL::_Rb_tree_node<_STL::pair<_STL::basic_string<char,_STL::char_traits<char>,_STL::allocator<char> > const ,unsigned long> > >::deallocate
  00029	8b 4d f4	 mov	 ecx, DWORD PTR __$EHRec$[ebp]
  0002c	5e		 pop	 esi
  0002d	64 89 0d 00 00
	00 00		 mov	 DWORD PTR fs:__except_list, ecx
  00034	c9		 leave
  00035	c3		 ret	 0
_TEXT	ENDS
;	COMDAT text$x
text$x	SEGMENT
$L103746:
  00000	8b 4d f0	 mov	 ecx, DWORD PTR _this$[ebp]
  00003	e9 00 00 00 00	 jmp	 ??1?$_Rb_tree_base@U?$pair@$$CBV?$basic_string@DV?$char_traits@D@_STL@@V?$allocator@D@2@@_STL@@K@_STL@@V?$allocator@U?$pair@$$CBV?$basic_string@DV?$char_traits@D@_STL@@V?$allocator@D@2@@_STL@@K@_STL@@@2@@_STL@@QAE@XZ ; _STL::_Rb_tree_base<_STL::pair<_STL::basic_string<char,_STL::char_traits<char>,_STL::allocator<char> > const ,unsigned long>,_STL::allocator<_STL::pair<_STL::basic_string<char,_STL::char_traits<char>,_STL::allocator<char> > const ,unsigned long> > >::~_Rb_tree_base<_STL::pair<_STL::basic_string<char,_STL::char_traits<char>,_STL::allocator<char> > const ,unsigned long>,_STL::allocator<_STL::pair<_STL::basic_string<char,_STL::char_traits<char>,_STL::allocator<char> > const ,unsigned long> > >
__ehhandler$??1?$_Rb_tree@V?$basic_string@DV?$char_traits@D@_STL@@V?$allocator@D@2@@_STL@@U?$pair@$$CBV?$basic_string@DV?$char_traits@D@_STL@@V?$allocator@D@2@@_STL@@K@2@U?$_Select1st@U?$pair@$$CBV?$basic_string@DV?$char_traits@D@_STL@@V?$allocator@D@2@@_STL@@K@_STL@@@2@U?$less@V?$basic_string@DV?$char_traits@D@_STL@@V?$allocator@D@2@@_STL@@@2@V?$allocator@U?$pair@$$CBV?$basic_string@DV?$char_traits@D@_STL@@V?$allocator@D@2@@_STL@@K@_STL@@@2@@_STL@@QAE@XZ:
  00008	b8 00 00 00 00	 mov	 eax, OFFSET FLAT:$T103763
  0000d	e9 00 00 00 00	 jmp	 ___CxxFrameHandler
text$x	ENDS
??1?$_Rb_tree@V?$basic_string@DV?$char_traits@D@_STL@@V?$allocator@D@2@@_STL@@U?$pair@$$CBV?$basic_string@DV?$char_traits@D@_STL@@V?$allocator@D@2@@_STL@@K@2@U?$_Select1st@U?$pair@$$CBV?$basic_string@DV?$char_traits@D@_STL@@V?$allocator@D@2@@_STL@@K@_STL@@@2@U?$less@V?$basic_string@DV?$char_traits@D@_STL@@V?$allocator@D@2@@_STL@@@2@V?$allocator@U?$pair@$$CBV?$basic_string@DV?$char_traits@D@_STL@@V?$allocator@D@2@@_STL@@K@_STL@@@2@@_STL@@QAE@XZ ENDP ; _STL::_Rb_tree<_STL::basic_string<char,_STL::char_traits<char>,_STL::allocator<char> >,_STL::pair<_STL::basic_string<char,_STL::char_traits<char>,_STL::allocator<char> > const ,unsigned long>,_STL::_Select1st<_STL::pair<_STL::basic_string<char,_STL::char_traits<char>,_STL::allocator<char> > const ,unsigned long> >,_STL::less<_STL::basic_string<char,_STL::char_traits<char>,_STL::allocator<char> > >,_STL::allocator<_STL::pair<_STL::basic_string<char,_STL::char_traits<char>,_STL::allocator<char> > const ,unsigned long> > >::~_Rb_tree<_STL::basic_string<char,_STL::char_traits<char>,_STL::allocator<char> >,_STL::pair<_STL::basic_string<char,_STL::char_traits<char>,_STL::allocator<char> > const ,unsigned long>,_STL::_Select1st<_STL::pair<_STL::basic_string<char,_STL::char_traits<char>,_STL::allocator<char> > const ,unsigned long> >,_STL::less<_STL::basic_string<char,_STL::char_traits<char>,_STL::allocator<char> > >,_STL::allocator<_STL::pair<_STL::basic_string<char,_STL::char_traits<char>,_STL::allocator<char> > const ,unsigned long> > >
PUBLIC	?_M_insert@?$_Rb_tree@V?$basic_string@DV?$char_traits@D@_STL@@V?$allocator@D@2@@_STL@@U?$pair@$$CBV?$basic_string@DV?$char_traits@D@_STL@@V?$allocator@D@2@@_STL@@K@2@U?$_Select1st@U?$pair@$$CBV?$basic_string@DV?$char_traits@D@_STL@@V?$allocator@D@2@@_STL@@K@_STL@@@2@U?$less@V?$basic_string@DV?$char_traits@D@_STL@@V?$allocator@D@2@@_STL@@@2@V?$allocator@U?$pair@$$CBV?$basic_string@DV?$char_traits@D@_STL@@V?$allocator@D@2@@_STL@@K@_STL@@@2@@_STL@@AAE?AU?$_Rb_tree_iterator@U?$pair@$$CBV?$basic_string@DV?$char_traits@D@_STL@@V?$allocator@D@2@@_STL@@K@_STL@@U?$_Nonconst_traits@U?$pair@$$CBV?$basic_string@DV?$char_traits@D@_STL@@V?$allocator@D@2@@_STL@@K@_STL@@@2@@2@PAU_Rb_tree_node_base@2@0ABU?$pair@$$CBV?$basic_string@DV?$char_traits@D@_STL@@V?$allocator@D@2@@_STL@@K@2@0@Z ; _STL::_Rb_tree<_STL::basic_string<char,_STL::char_traits<char>,_STL::allocator<char> >,_STL::pair<_STL::basic_string<char,_STL::char_traits<char>,_STL::allocator<char> > const ,unsigned long>,_STL::_Select1st<_STL::pair<_STL::basic_string<char,_STL::char_traits<char>,_STL::allocator<char> > const ,unsigned long> >,_STL::less<_STL::basic_string<char,_STL::char_traits<char>,_STL::allocator<char> > >,_STL::allocator<_STL::pair<_STL::basic_string<char,_STL::char_traits<char>,_STL::allocator<char> > const ,unsigned long> > >::_M_insert
EXTRN	?_Rebalance@?$_Rb_global@_N@_STL@@SAXPAU_Rb_tree_node_base@2@AAPAU32@@Z:NEAR ; _STL::_Rb_global<bool>::_Rebalance
; Function compile flags: /Ogsy
; File c:\stlport-4.6.1\stlport\stl\_tree.c
;	COMDAT ?_M_insert@?$_Rb_tree@V?$basic_string@DV?$char_traits@D@_STL@@V?$allocator@D@2@@_STL@@U?$pair@$$CBV?$basic_string@DV?$char_traits@D@_STL@@V?$allocator@D@2@@_STL@@K@2@U?$_Select1st@U?$pair@$$CBV?$basic_string@DV?$char_traits@D@_STL@@V?$allocator@D@2@@_STL@@K@_STL@@@2@U?$less@V?$basic_string@DV?$char_traits@D@_STL@@V?$allocator@D@2@@_STL@@@2@V?$allocator@U?$pair@$$CBV?$basic_string@DV?$char_traits@D@_STL@@V?$allocator@D@2@@_STL@@K@_STL@@@2@@_STL@@AAE?AU?$_Rb_tree_iterator@U?$pair@$$CBV?$basic_string@DV?$char_traits@D@_STL@@V?$allocator@D@2@@_STL@@K@_STL@@U?$_Nonconst_traits@U?$pair@$$CBV?$basic_string@DV?$char_traits@D@_STL@@V?$allocator@D@2@@_STL@@K@_STL@@@2@@2@PAU_Rb_tree_node_base@2@0ABU?$pair@$$CBV?$basic_string@DV?$char_traits@D@_STL@@V?$allocator@D@2@@_STL@@K@2@0@Z
_TEXT	SEGMENT
___$ReturnUdt$ = 8					; size = 4
___x_$ = 12						; size = 4
___y_$ = 16						; size = 4
___v$ = 20						; size = 4
___w_$ = 24						; size = 4
?_M_insert@?$_Rb_tree@V?$basic_string@DV?$char_traits@D@_STL@@V?$allocator@D@2@@_STL@@U?$pair@$$CBV?$basic_string@DV?$char_traits@D@_STL@@V?$allocator@D@2@@_STL@@K@2@U?$_Select1st@U?$pair@$$CBV?$basic_string@DV?$char_traits@D@_STL@@V?$allocator@D@2@@_STL@@K@_STL@@@2@U?$less@V?$basic_string@DV?$char_traits@D@_STL@@V?$allocator@D@2@@_STL@@@2@V?$allocator@U?$pair@$$CBV?$basic_string@DV?$char_traits@D@_STL@@V?$allocator@D@2@@_STL@@K@_STL@@@2@@_STL@@AAE?AU?$_Rb_tree_iterator@U?$pair@$$CBV?$basic_string@DV?$char_traits@D@_STL@@V?$allocator@D@2@@_STL@@K@_STL@@U?$_Nonconst_traits@U?$pair@$$CBV?$basic_string@DV?$char_traits@D@_STL@@V?$allocator@D@2@@_STL@@K@_STL@@@2@@2@PAU_Rb_tree_node_base@2@0ABU?$pair@$$CBV?$basic_string@DV?$char_traits@D@_STL@@V?$allocator@D@2@@_STL@@K@2@0@Z PROC NEAR ; _STL::_Rb_tree<_STL::basic_string<char,_STL::char_traits<char>,_STL::allocator<char> >,_STL::pair<_STL::basic_string<char,_STL::char_traits<char>,_STL::allocator<char> > const ,unsigned long>,_STL::_Select1st<_STL::pair<_STL::basic_string<char,_STL::char_traits<char>,_STL::allocator<char> > const ,unsigned long> >,_STL::less<_STL::basic_string<char,_STL::char_traits<char>,_STL::allocator<char> > >,_STL::allocator<_STL::pair<_STL::basic_string<char,_STL::char_traits<char>,_STL::allocator<char> > const ,unsigned long> > >::_M_insert, COMDAT
; _this$ = ecx

; 347  : {

  00000	55		 push	 ebp
  00001	8b ec		 mov	 ebp, esp
  00003	53		 push	 ebx

; 348  :   _Link_type __w = (_Link_type) __w_;
; 349  :   _Link_type __x = (_Link_type) __x_;
; 350  :   _Link_type __y = (_Link_type) __y_;
; 351  :   _Link_type __z;
; 352  : 
; 353  :   if ( __y == this->_M_header._M_data ||
; 354  :        ( __w == 0 && // If w != 0, the remainder fails to false
; 355  :          ( __x != 0 ||     // If x != 0, the remainder succeeds to true
; 356  :            _M_key_compare( _KeyOfValue()(__v), _S_key(__y) ) )
; 357  : 	 )
; 358  :        ) {

  00004	8b 5d 10	 mov	 ebx, DWORD PTR ___y_$[ebp]
  00007	56		 push	 esi
  00008	57		 push	 edi
  00009	8b f9		 mov	 edi, ecx
  0000b	3b 1f		 cmp	 ebx, DWORD PTR [edi]
  0000d	74 39		 je	 SHORT $L101937
  0000f	83 7d 18 00	 cmp	 DWORD PTR ___w_$[ebp], 0
  00013	75 18		 jne	 SHORT $L101935
  00015	83 7d 0c 00	 cmp	 DWORD PTR ___x_$[ebp], 0
  00019	75 2d		 jne	 SHORT $L101937
  0001b	8d 43 10	 lea	 eax, DWORD PTR [ebx+16]
  0001e	50		 push	 eax
  0001f	ff 75 14	 push	 DWORD PTR ___v$[ebp]
  00022	e8 00 00 00 00	 call	 ??$?MDV?$char_traits@D@_STL@@V?$allocator@D@1@@_STL@@YA_NABV?$basic_string@DV?$char_traits@D@_STL@@V?$allocator@D@2@@0@0@Z ; _STL::operator<<char,_STL::char_traits<char>,_STL::allocator<char> >
  00027	84 c0		 test	 al, al
  00029	59		 pop	 ecx
  0002a	59		 pop	 ecx
  0002b	75 1b		 jne	 SHORT $L101937
$L101935:

; 369  :   }
; 370  :   else {
; 371  :     __z = _M_create_node(__v);

  0002d	ff 75 14	 push	 DWORD PTR ___v$[ebp]
  00030	8b cf		 mov	 ecx, edi
  00032	e8 00 00 00 00	 call	 ?_M_create_node@?$_Rb_tree@V?$basic_string@DV?$char_traits@D@_STL@@V?$allocator@D@2@@_STL@@U?$pair@$$CBV?$basic_string@DV?$char_traits@D@_STL@@V?$allocator@D@2@@_STL@@K@2@U?$_Select1st@U?$pair@$$CBV?$basic_string@DV?$char_traits@D@_STL@@V?$allocator@D@2@@_STL@@K@_STL@@@2@U?$less@V?$basic_string@DV?$char_traits@D@_STL@@V?$allocator@D@2@@_STL@@@2@V?$allocator@U?$pair@$$CBV?$basic_string@DV?$char_traits@D@_STL@@V?$allocator@D@2@@_STL@@K@_STL@@@2@@_STL@@IAEPAU?$_Rb_tree_node@U?$pair@$$CBV?$basic_string@DV?$char_traits@D@_STL@@V?$allocator@D@2@@_STL@@K@_STL@@@2@ABU?$pair@$$CBV?$basic_string@DV?$char_traits@D@_STL@@V?$allocator@D@2@@_STL@@K@2@@Z ; _STL::_Rb_tree<_STL::basic_string<char,_STL::char_traits<char>,_STL::allocator<char> >,_STL::pair<_STL::basic_string<char,_STL::char_traits<char>,_STL::allocator<char> > const ,unsigned long>,_STL::_Select1st<_STL::pair<_STL::basic_string<char,_STL::char_traits<char>,_STL::allocator<char> > const ,unsigned long> >,_STL::less<_STL::basic_string<char,_STL::char_traits<char>,_STL::allocator<char> > >,_STL::allocator<_STL::pair<_STL::basic_string<char,_STL::char_traits<char>,_STL::allocator<char> > const ,unsigned long> > >::_M_create_node
  00037	8b f0		 mov	 esi, eax

; 372  :     _S_right(__y) = __z;

  00039	89 73 0c	 mov	 DWORD PTR [ebx+12], esi

; 373  :     if (__y == _M_rightmost())

  0003c	8b 07		 mov	 eax, DWORD PTR [edi]
  0003e	3b 58 0c	 cmp	 ebx, DWORD PTR [eax+12]
  00041	75 29		 jne	 SHORT $L101940
$L103828:

; 374  :       _M_rightmost() = __z;  // maintain _M_rightmost() pointing to max node

  00043	89 70 0c	 mov	 DWORD PTR [eax+12], esi
  00046	eb 24		 jmp	 SHORT $L101940
$L101937:

; 359  :     
; 360  :     __z = _M_create_node(__v);

  00048	ff 75 14	 push	 DWORD PTR ___v$[ebp]
  0004b	8b cf		 mov	 ecx, edi
  0004d	e8 00 00 00 00	 call	 ?_M_create_node@?$_Rb_tree@V?$basic_string@DV?$char_traits@D@_STL@@V?$allocator@D@2@@_STL@@U?$pair@$$CBV?$basic_string@DV?$char_traits@D@_STL@@V?$allocator@D@2@@_STL@@K@2@U?$_Select1st@U?$pair@$$CBV?$basic_string@DV?$char_traits@D@_STL@@V?$allocator@D@2@@_STL@@K@_STL@@@2@U?$less@V?$basic_string@DV?$char_traits@D@_STL@@V?$allocator@D@2@@_STL@@@2@V?$allocator@U?$pair@$$CBV?$basic_string@DV?$char_traits@D@_STL@@V?$allocator@D@2@@_STL@@K@_STL@@@2@@_STL@@IAEPAU?$_Rb_tree_node@U?$pair@$$CBV?$basic_string@DV?$char_traits@D@_STL@@V?$allocator@D@2@@_STL@@K@_STL@@@2@ABU?$pair@$$CBV?$basic_string@DV?$char_traits@D@_STL@@V?$allocator@D@2@@_STL@@K@2@@Z ; _STL::_Rb_tree<_STL::basic_string<char,_STL::char_traits<char>,_STL::allocator<char> >,_STL::pair<_STL::basic_string<char,_STL::char_traits<char>,_STL::allocator<char> > const ,unsigned long>,_STL::_Select1st<_STL::pair<_STL::basic_string<char,_STL::char_traits<char>,_STL::allocator<char> > const ,unsigned long> >,_STL::less<_STL::basic_string<char,_STL::char_traits<char>,_STL::allocator<char> > >,_STL::allocator<_STL::pair<_STL::basic_string<char,_STL::char_traits<char>,_STL::allocator<char> > const ,unsigned long> > >::_M_create_node
  00052	8b f0		 mov	 esi, eax

; 361  :     _S_left(__y) = __z;               // also makes _M_leftmost() = __z 

  00054	89 73 08	 mov	 DWORD PTR [ebx+8], esi

; 362  :                                       //    when __y == _M_header
; 363  :     if (__y == this->_M_header._M_data) {

  00057	8b 07		 mov	 eax, DWORD PTR [edi]
  00059	3b d8		 cmp	 ebx, eax
  0005b	75 07		 jne	 SHORT $L101938

; 364  :       _M_root() = __z;

  0005d	89 70 04	 mov	 DWORD PTR [eax+4], esi

; 365  :       _M_rightmost() = __z;

  00060	8b 07		 mov	 eax, DWORD PTR [edi]

; 366  :     }
; 367  :     else if (__y == _M_leftmost())

  00062	eb df		 jmp	 SHORT $L103828
$L101938:
  00064	3b 58 08	 cmp	 ebx, DWORD PTR [eax+8]
  00067	75 03		 jne	 SHORT $L101940

; 368  :       _M_leftmost() = __z;   // maintain _M_leftmost() pointing to min node

  00069	89 70 08	 mov	 DWORD PTR [eax+8], esi
$L101940:

; 375  :   }
; 376  :   _S_parent(__z) = __y;
; 377  :   _S_left(__z) = 0;

  0006c	83 66 08 00	 and	 DWORD PTR [esi+8], 0

; 378  :   _S_right(__z) = 0;

  00070	83 66 0c 00	 and	 DWORD PTR [esi+12], 0
  00074	89 5e 04	 mov	 DWORD PTR [esi+4], ebx

; 379  :   _Rb_global_inst::_Rebalance(__z, this->_M_header._M_data->_M_parent);

  00077	8b 07		 mov	 eax, DWORD PTR [edi]
  00079	83 c0 04	 add	 eax, 4
  0007c	50		 push	 eax
  0007d	56		 push	 esi
  0007e	e8 00 00 00 00	 call	 ?_Rebalance@?$_Rb_global@_N@_STL@@SAXPAU_Rb_tree_node_base@2@AAPAU32@@Z ; _STL::_Rb_global<bool>::_Rebalance

; 380  :   ++_M_node_count;

  00083	ff 47 04	 inc	 DWORD PTR [edi+4]

; 381  :   return iterator(__z);

  00086	8b 45 08	 mov	 eax, DWORD PTR ___$ReturnUdt$[ebp]
  00089	59		 pop	 ecx
  0008a	59		 pop	 ecx
  0008b	5f		 pop	 edi
  0008c	89 30		 mov	 DWORD PTR [eax], esi
  0008e	5e		 pop	 esi
  0008f	5b		 pop	 ebx

; 382  : }

  00090	5d		 pop	 ebp
  00091	c2 14 00	 ret	 20			; 00000014H
?_M_insert@?$_Rb_tree@V?$basic_string@DV?$char_traits@D@_STL@@V?$allocator@D@2@@_STL@@U?$pair@$$CBV?$basic_string@DV?$char_traits@D@_STL@@V?$allocator@D@2@@_STL@@K@2@U?$_Select1st@U?$pair@$$CBV?$basic_string@DV?$char_traits@D@_STL@@V?$allocator@D@2@@_STL@@K@_STL@@@2@U?$less@V?$basic_string@DV?$char_traits@D@_STL@@V?$allocator@D@2@@_STL@@@2@V?$allocator@U?$pair@$$CBV?$basic_string@DV?$char_traits@D@_STL@@V?$allocator@D@2@@_STL@@K@_STL@@@2@@_STL@@AAE?AU?$_Rb_tree_iterator@U?$pair@$$CBV?$basic_string@DV?$char_traits@D@_STL@@V?$allocator@D@2@@_STL@@K@_STL@@U?$_Nonconst_traits@U?$pair@$$CBV?$basic_string@DV?$char_traits@D@_STL@@V?$allocator@D@2@@_STL@@K@_STL@@@2@@2@PAU_Rb_tree_node_base@2@0ABU?$pair@$$CBV?$basic_string@DV?$char_traits@D@_STL@@V?$allocator@D@2@@_STL@@K@2@0@Z ENDP ; _STL::_Rb_tree<_STL::basic_string<char,_STL::char_traits<char>,_STL::allocator<char> >,_STL::pair<_STL::basic_string<char,_STL::char_traits<char>,_STL::allocator<char> > const ,unsigned long>,_STL::_Select1st<_STL::pair<_STL::basic_string<char,_STL::char_traits<char>,_STL::allocator<char> > const ,unsigned long> >,_STL::less<_STL::basic_string<char,_STL::char_traits<char>,_STL::allocator<char> > >,_STL::allocator<_STL::pair<_STL::basic_string<char,_STL::char_traits<char>,_STL::allocator<char> > const ,unsigned long> > >::_M_insert
_TEXT	ENDS
PUBLIC	?insert_unique@?$_Rb_tree@V?$basic_string@DV?$char_traits@D@_STL@@V?$allocator@D@2@@_STL@@U?$pair@$$CBV?$basic_string@DV?$char_traits@D@_STL@@V?$allocator@D@2@@_STL@@K@2@U?$_Select1st@U?$pair@$$CBV?$basic_string@DV?$char_traits@D@_STL@@V?$allocator@D@2@@_STL@@K@_STL@@@2@U?$less@V?$basic_string@DV?$char_traits@D@_STL@@V?$allocator@D@2@@_STL@@@2@V?$allocator@U?$pair@$$CBV?$basic_string@DV?$char_traits@D@_STL@@V?$allocator@D@2@@_STL@@K@_STL@@@2@@_STL@@QAE?AU?$pair@U?$_Rb_tree_iterator@U?$pair@$$CBV?$basic_string@DV?$char_traits@D@_STL@@V?$allocator@D@2@@_STL@@K@_STL@@U?$_Nonconst_traits@U?$pair@$$CBV?$basic_string@DV?$char_traits@D@_STL@@V?$allocator@D@2@@_STL@@K@_STL@@@2@@_STL@@_N@2@ABU?$pair@$$CBV?$basic_string@DV?$char_traits@D@_STL@@V?$allocator@D@2@@_STL@@K@2@@Z ; _STL::_Rb_tree<_STL::basic_string<char,_STL::char_traits<char>,_STL::allocator<char> >,_STL::pair<_STL::basic_string<char,_STL::char_traits<char>,_STL::allocator<char> > const ,unsigned long>,_STL::_Select1st<_STL::pair<_STL::basic_string<char,_STL::char_traits<char>,_STL::allocator<char> > const ,unsigned long> >,_STL::less<_STL::basic_string<char,_STL::char_traits<char>,_STL::allocator<char> > >,_STL::allocator<_STL::pair<_STL::basic_string<char,_STL::char_traits<char>,_STL::allocator<char> > const ,unsigned long> > >::insert_unique
; Function compile flags: /Ogsy
;	COMDAT ?insert_unique@?$_Rb_tree@V?$basic_string@DV?$char_traits@D@_STL@@V?$allocator@D@2@@_STL@@U?$pair@$$CBV?$basic_string@DV?$char_traits@D@_STL@@V?$allocator@D@2@@_STL@@K@2@U?$_Select1st@U?$pair@$$CBV?$basic_string@DV?$char_traits@D@_STL@@V?$allocator@D@2@@_STL@@K@_STL@@@2@U?$less@V?$basic_string@DV?$char_traits@D@_STL@@V?$allocator@D@2@@_STL@@@2@V?$allocator@U?$pair@$$CBV?$basic_string@DV?$char_traits@D@_STL@@V?$allocator@D@2@@_STL@@K@_STL@@@2@@_STL@@QAE?AU?$pair@U?$_Rb_tree_iterator@U?$pair@$$CBV?$basic_string@DV?$char_traits@D@_STL@@V?$allocator@D@2@@_STL@@K@_STL@@U?$_Nonconst_traits@U?$pair@$$CBV?$basic_string@DV?$char_traits@D@_STL@@V?$allocator@D@2@@_STL@@K@_STL@@@2@@_STL@@_N@2@ABU?$pair@$$CBV?$basic_string@DV?$char_traits@D@_STL@@V?$allocator@D@2@@_STL@@K@2@@Z
_TEXT	SEGMENT
___j$ = -4						; size = 4
___$ReturnUdt$ = 8					; size = 4
$T103839 = 12						; size = 4
___v$ = 12						; size = 4
?insert_unique@?$_Rb_tree@V?$basic_string@DV?$char_traits@D@_STL@@V?$allocator@D@2@@_STL@@U?$pair@$$CBV?$basic_string@DV?$char_traits@D@_STL@@V?$allocator@D@2@@_STL@@K@2@U?$_Select1st@U?$pair@$$CBV?$basic_string@DV?$char_traits@D@_STL@@V?$allocator@D@2@@_STL@@K@_STL@@@2@U?$less@V?$basic_string@DV?$char_traits@D@_STL@@V?$allocator@D@2@@_STL@@@2@V?$allocator@U?$pair@$$CBV?$basic_string@DV?$char_traits@D@_STL@@V?$allocator@D@2@@_STL@@K@_STL@@@2@@_STL@@QAE?AU?$pair@U?$_Rb_tree_iterator@U?$pair@$$CBV?$basic_string@DV?$char_traits@D@_STL@@V?$allocator@D@2@@_STL@@K@_STL@@U?$_Nonconst_traits@U?$pair@$$CBV?$basic_string@DV?$char_traits@D@_STL@@V?$allocator@D@2@@_STL@@K@_STL@@@2@@_STL@@_N@2@ABU?$pair@$$CBV?$basic_string@DV?$char_traits@D@_STL@@V?$allocator@D@2@@_STL@@K@2@@Z PROC NEAR ; _STL::_Rb_tree<_STL::basic_string<char,_STL::char_traits<char>,_STL::allocator<char> >,_STL::pair<_STL::basic_string<char,_STL::char_traits<char>,_STL::allocator<char> > const ,unsigned long>,_STL::_Select1st<_STL::pair<_STL::basic_string<char,_STL::char_traits<char>,_STL::allocator<char> > const ,unsigned long> >,_STL::less<_STL::basic_string<char,_STL::char_traits<char>,_STL::allocator<char> > >,_STL::allocator<_STL::pair<_STL::basic_string<char,_STL::char_traits<char>,_STL::allocator<char> > const ,unsigned long> > >::insert_unique, COMDAT
; _this$ = ecx

; 401  : {

  00000	55		 push	 ebp
  00001	8b ec		 mov	 ebp, esp
  00003	51		 push	 ecx
  00004	53		 push	 ebx
  00005	56		 push	 esi
  00006	8b d9		 mov	 ebx, ecx

; 402  :   _Link_type __y = this->_M_header._M_data;

  00008	8b 33		 mov	 esi, DWORD PTR [ebx]
  0000a	57		 push	 edi

; 403  :   _Link_type __x = _M_root();

  0000b	8b 7e 04	 mov	 edi, DWORD PTR [esi+4]

; 404  :   bool __comp = true;

  0000e	b0 01		 mov	 al, 1
  00010	eb 1c		 jmp	 SHORT $L103944
$L101958:

; 406  :     __y = __x;
; 407  :     __comp = _M_key_compare(_KeyOfValue()(__v), _S_key(__x));

  00012	8d 47 10	 lea	 eax, DWORD PTR [edi+16]
  00015	50		 push	 eax
  00016	ff 75 0c	 push	 DWORD PTR ___v$[ebp]
  00019	8b f7		 mov	 esi, edi
  0001b	e8 00 00 00 00	 call	 ??$?MDV?$char_traits@D@_STL@@V?$allocator@D@1@@_STL@@YA_NABV?$basic_string@DV?$char_traits@D@_STL@@V?$allocator@D@2@@0@0@Z ; _STL::operator<<char,_STL::char_traits<char>,_STL::allocator<char> >

; 408  :     __x = __comp ? _S_left(__x) : _S_right(__x);

  00020	84 c0		 test	 al, al
  00022	59		 pop	 ecx
  00023	59		 pop	 ecx
  00024	74 05		 je	 SHORT $L103832
  00026	8b 7f 08	 mov	 edi, DWORD PTR [edi+8]
  00029	eb 03		 jmp	 SHORT $L103944
$L103832:
  0002b	8b 7f 0c	 mov	 edi, DWORD PTR [edi+12]
$L103944:

; 405  :   while (__x != 0) {

  0002e	85 ff		 test	 edi, edi
  00030	75 e0		 jne	 SHORT $L101958

; 409  :   }
; 410  :   iterator __j = iterator(__y);   
; 411  :   if (__comp)

  00032	84 c0		 test	 al, al
  00034	89 75 fc	 mov	 DWORD PTR ___j$[ebp], esi
  00037	74 19		 je	 SHORT $L103901

; 412  :     if (__j == begin())     

  00039	8b 03		 mov	 eax, DWORD PTR [ebx]
  0003b	3b 70 08	 cmp	 esi, DWORD PTR [eax+8]
  0003e	75 08		 jne	 SHORT $L101965

; 413  :       return pair<iterator,bool>(_M_insert(/* __x*/ __y, __y, __v), true);

  00040	57		 push	 edi
  00041	ff 75 0c	 push	 DWORD PTR ___v$[ebp]
  00044	56		 push	 esi
  00045	56		 push	 esi
  00046	eb 26		 jmp	 SHORT $L103946
$L101965:

; 414  :     else
; 415  :       --__j;

  00048	56		 push	 esi
  00049	e8 00 00 00 00	 call	 ?_M_decrement@?$_Rb_global@_N@_STL@@SAPAU_Rb_tree_node_base@2@PAU32@@Z ; _STL::_Rb_global<bool>::_M_decrement
  0004e	59		 pop	 ecx
  0004f	89 45 fc	 mov	 DWORD PTR ___j$[ebp], eax
$L103901:

; 416  :   if (_M_key_compare(_S_key(__j._M_node), _KeyOfValue()(__v)))

  00052	8b 45 fc	 mov	 eax, DWORD PTR ___j$[ebp]
  00055	ff 75 0c	 push	 DWORD PTR ___v$[ebp]
  00058	83 c0 10	 add	 eax, 16			; 00000010H
  0005b	50		 push	 eax
  0005c	e8 00 00 00 00	 call	 ??$?MDV?$char_traits@D@_STL@@V?$allocator@D@1@@_STL@@YA_NABV?$basic_string@DV?$char_traits@D@_STL@@V?$allocator@D@2@@0@0@Z ; _STL::operator<<char,_STL::char_traits<char>,_STL::allocator<char> >
  00061	84 c0		 test	 al, al
  00063	59		 pop	 ecx
  00064	59		 pop	 ecx
  00065	74 1d		 je	 SHORT $L101975

; 417  :     return pair<iterator,bool>(_M_insert(__x, __y, __v), true);

  00067	6a 00		 push	 0
  00069	ff 75 0c	 push	 DWORD PTR ___v$[ebp]
  0006c	56		 push	 esi
  0006d	57		 push	 edi
$L103946:
  0006e	8d 45 0c	 lea	 eax, DWORD PTR $T103839[ebp]
  00071	50		 push	 eax
  00072	8b cb		 mov	 ecx, ebx
  00074	e8 00 00 00 00	 call	 ?_M_insert@?$_Rb_tree@V?$basic_string@DV?$char_traits@D@_STL@@V?$allocator@D@2@@_STL@@U?$pair@$$CBV?$basic_string@DV?$char_traits@D@_STL@@V?$allocator@D@2@@_STL@@K@2@U?$_Select1st@U?$pair@$$CBV?$basic_string@DV?$char_traits@D@_STL@@V?$allocator@D@2@@_STL@@K@_STL@@@2@U?$less@V?$basic_string@DV?$char_traits@D@_STL@@V?$allocator@D@2@@_STL@@@2@V?$allocator@U?$pair@$$CBV?$basic_string@DV?$char_traits@D@_STL@@V?$allocator@D@2@@_STL@@K@_STL@@@2@@_STL@@AAE?AU?$_Rb_tree_iterator@U?$pair@$$CBV?$basic_string@DV?$char_traits@D@_STL@@V?$allocator@D@2@@_STL@@K@_STL@@U?$_Nonconst_traits@U?$pair@$$CBV?$basic_string@DV?$char_traits@D@_STL@@V?$allocator@D@2@@_STL@@K@_STL@@@2@@2@PAU_Rb_tree_node_base@2@0ABU?$pair@$$CBV?$basic_string@DV?$char_traits@D@_STL@@V?$allocator@D@2@@_STL@@K@2@0@Z ; _STL::_Rb_tree<_STL::basic_string<char,_STL::char_traits<char>,_STL::allocator<char> >,_STL::pair<_STL::basic_string<char,_STL::char_traits<char>,_STL::allocator<char> > const ,unsigned long>,_STL::_Select1st<_STL::pair<_STL::basic_string<char,_STL::char_traits<char>,_STL::allocator<char> > const ,unsigned long> >,_STL::less<_STL::basic_string<char,_STL::char_traits<char>,_STL::allocator<char> > >,_STL::allocator<_STL::pair<_STL::basic_string<char,_STL::char_traits<char>,_STL::allocator<char> > const ,unsigned long> > >::_M_insert
  00079	8b 08		 mov	 ecx, DWORD PTR [eax]
  0007b	8b 45 08	 mov	 eax, DWORD PTR ___$ReturnUdt$[ebp]
  0007e	c6 40 04 01	 mov	 BYTE PTR [eax+4], 1
  00082	eb 0a		 jmp	 SHORT $L103945
$L101975:

; 418  :   return pair<iterator,bool>(__j, false);

  00084	8b 45 08	 mov	 eax, DWORD PTR ___$ReturnUdt$[ebp]
  00087	8b 4d fc	 mov	 ecx, DWORD PTR ___j$[ebp]
  0008a	c6 40 04 00	 mov	 BYTE PTR [eax+4], 0
$L103945:
  0008e	5f		 pop	 edi
  0008f	5e		 pop	 esi
  00090	89 08		 mov	 DWORD PTR [eax], ecx
  00092	5b		 pop	 ebx

; 419  : }

  00093	c9		 leave
  00094	c2 08 00	 ret	 8
?insert_unique@?$_Rb_tree@V?$basic_string@DV?$char_traits@D@_STL@@V?$allocator@D@2@@_STL@@U?$pair@$$CBV?$basic_string@DV?$char_traits@D@_STL@@V?$allocator@D@2@@_STL@@K@2@U?$_Select1st@U?$pair@$$CBV?$basic_string@DV?$char_traits@D@_STL@@V?$allocator@D@2@@_STL@@K@_STL@@@2@U?$less@V?$basic_string@DV?$char_traits@D@_STL@@V?$allocator@D@2@@_STL@@@2@V?$allocator@U?$pair@$$CBV?$basic_string@DV?$char_traits@D@_STL@@V?$allocator@D@2@@_STL@@K@_STL@@@2@@_STL@@QAE?AU?$pair@U?$_Rb_tree_iterator@U?$pair@$$CBV?$basic_string@DV?$char_traits@D@_STL@@V?$allocator@D@2@@_STL@@K@_STL@@U?$_Nonconst_traits@U?$pair@$$CBV?$basic_string@DV?$char_traits@D@_STL@@V?$allocator@D@2@@_STL@@K@_STL@@@2@@_STL@@_N@2@ABU?$pair@$$CBV?$basic_string@DV?$char_traits@D@_STL@@V?$allocator@D@2@@_STL@@K@2@@Z ENDP ; _STL::_Rb_tree<_STL::basic_string<char,_STL::char_traits<char>,_STL::allocator<char> >,_STL::pair<_STL::basic_string<char,_STL::char_traits<char>,_STL::allocator<char> > const ,unsigned long>,_STL::_Select1st<_STL::pair<_STL::basic_string<char,_STL::char_traits<char>,_STL::allocator<char> > const ,unsigned long> >,_STL::less<_STL::basic_string<char,_STL::char_traits<char>,_STL::allocator<char> > >,_STL::allocator<_STL::pair<_STL::basic_string<char,_STL::char_traits<char>,_STL::allocator<char> > const ,unsigned long> > >::insert_unique
_TEXT	ENDS
PUBLIC	??1?$map@V?$basic_string@DV?$char_traits@D@_STL@@V?$allocator@D@2@@_STL@@KU?$less@V?$basic_string@DV?$char_traits@D@_STL@@V?$allocator@D@2@@_STL@@@2@V?$allocator@U?$pair@$$CBV?$basic_string@DV?$char_traits@D@_STL@@V?$allocator@D@2@@_STL@@K@_STL@@@2@@_STL@@QAE@XZ ; _STL::map<_STL::basic_string<char,_STL::char_traits<char>,_STL::allocator<char> >,unsigned long,_STL::less<_STL::basic_string<char,_STL::char_traits<char>,_STL::allocator<char> > >,_STL::allocator<_STL::pair<_STL::basic_string<char,_STL::char_traits<char>,_STL::allocator<char> > const ,unsigned long> > >::~map<_STL::basic_string<char,_STL::char_traits<char>,_STL::allocator<char> >,unsigned long,_STL::less<_STL::basic_string<char,_STL::char_traits<char>,_STL::allocator<char> > >,_STL::allocator<_STL::pair<_STL::basic_string<char,_STL::char_traits<char>,_STL::allocator<char> > const ,unsigned long> > >
; Function compile flags: /Ogsy
;	COMDAT ??1?$map@V?$basic_string@DV?$char_traits@D@_STL@@V?$allocator@D@2@@_STL@@KU?$less@V?$basic_string@DV?$char_traits@D@_STL@@V?$allocator@D@2@@_STL@@@2@V?$allocator@U?$pair@$$CBV?$basic_string@DV?$char_traits@D@_STL@@V?$allocator@D@2@@_STL@@K@_STL@@@2@@_STL@@QAE@XZ
_TEXT	SEGMENT
??1?$map@V?$basic_string@DV?$char_traits@D@_STL@@V?$allocator@D@2@@_STL@@KU?$less@V?$basic_string@DV?$char_traits@D@_STL@@V?$allocator@D@2@@_STL@@@2@V?$allocator@U?$pair@$$CBV?$basic_string@DV?$char_traits@D@_STL@@V?$allocator@D@2@@_STL@@K@_STL@@@2@@_STL@@QAE@XZ PROC NEAR ; _STL::map<_STL::basic_string<char,_STL::char_traits<char>,_STL::allocator<char> >,unsigned long,_STL::less<_STL::basic_string<char,_STL::char_traits<char>,_STL::allocator<char> > >,_STL::allocator<_STL::pair<_STL::basic_string<char,_STL::char_traits<char>,_STL::allocator<char> > const ,unsigned long> > >::~map<_STL::basic_string<char,_STL::char_traits<char>,_STL::allocator<char> >,unsigned long,_STL::less<_STL::basic_string<char,_STL::char_traits<char>,_STL::allocator<char> > >,_STL::allocator<_STL::pair<_STL::basic_string<char,_STL::char_traits<char>,_STL::allocator<char> > const ,unsigned long> > >, COMDAT
; _this$ = ecx
  00000	e9 00 00 00 00	 jmp	 ??1?$_Rb_tree@V?$basic_string@DV?$char_traits@D@_STL@@V?$allocator@D@2@@_STL@@U?$pair@$$CBV?$basic_string@DV?$char_traits@D@_STL@@V?$allocator@D@2@@_STL@@K@2@U?$_Select1st@U?$pair@$$CBV?$basic_string@DV?$char_traits@D@_STL@@V?$allocator@D@2@@_STL@@K@_STL@@@2@U?$less@V?$basic_string@DV?$char_traits@D@_STL@@V?$allocator@D@2@@_STL@@@2@V?$allocator@U?$pair@$$CBV?$basic_string@DV?$char_traits@D@_STL@@V?$allocator@D@2@@_STL@@K@_STL@@@2@@_STL@@QAE@XZ ; _STL::_Rb_tree<_STL::basic_string<char,_STL::char_traits<char>,_STL::allocator<char> >,_STL::pair<_STL::basic_string<char,_STL::char_traits<char>,_STL::allocator<char> > const ,unsigned long>,_STL::_Select1st<_STL::pair<_STL::basic_string<char,_STL::char_traits<char>,_STL::allocator<char> > const ,unsigned long> >,_STL::less<_STL::basic_string<char,_STL::char_traits<char>,_STL::allocator<char> > >,_STL::allocator<_STL::pair<_STL::basic_string<char,_STL::char_traits<char>,_STL::allocator<char> > const ,unsigned long> > >::~_Rb_tree<_STL::basic_string<char,_STL::char_traits<char>,_STL::allocator<char> >,_STL::pair<_STL::basic_string<char,_STL::char_traits<char>,_STL::allocator<char> > const ,unsigned long>,_STL::_Select1st<_STL::pair<_STL::basic_string<char,_STL::char_traits<char>,_STL::allocator<char> > const ,unsigned long> >,_STL::less<_STL::basic_string<char,_STL::char_traits<char>,_STL::allocator<char> > >,_STL::allocator<_STL::pair<_STL::basic_string<char,_STL::char_traits<char>,_STL::allocator<char> > const ,unsigned long> > >
??1?$map@V?$basic_string@DV?$char_traits@D@_STL@@V?$allocator@D@2@@_STL@@KU?$less@V?$basic_string@DV?$char_traits@D@_STL@@V?$allocator@D@2@@_STL@@@2@V?$allocator@U?$pair@$$CBV?$basic_string@DV?$char_traits@D@_STL@@V?$allocator@D@2@@_STL@@K@_STL@@@2@@_STL@@QAE@XZ ENDP ; _STL::map<_STL::basic_string<char,_STL::char_traits<char>,_STL::allocator<char> >,unsigned long,_STL::less<_STL::basic_string<char,_STL::char_traits<char>,_STL::allocator<char> > >,_STL::allocator<_STL::pair<_STL::basic_string<char,_STL::char_traits<char>,_STL::allocator<char> > const ,unsigned long> > >::~map<_STL::basic_string<char,_STL::char_traits<char>,_STL::allocator<char> >,unsigned long,_STL::less<_STL::basic_string<char,_STL::char_traits<char>,_STL::allocator<char> > >,_STL::allocator<_STL::pair<_STL::basic_string<char,_STL::char_traits<char>,_STL::allocator<char> > const ,unsigned long> > >
_TEXT	ENDS
PUBLIC	??1MJusticeAttackManager@@QAE@XZ		; MJusticeAttackManager::~MJusticeAttackManager
; Function compile flags: /Ogsy
; File c:\darkeden\designed_common\project\client\mjusticeattackmanager.cpp
;	COMDAT ??1MJusticeAttackManager@@QAE@XZ
_TEXT	SEGMENT
??1MJusticeAttackManager@@QAE@XZ PROC NEAR		; MJusticeAttackManager::~MJusticeAttackManager, COMDAT
; _this$ = ecx

; 26   : }

  00000	e9 00 00 00 00	 jmp	 ??1?$_Rb_tree@V?$basic_string@DV?$char_traits@D@_STL@@V?$allocator@D@2@@_STL@@U?$pair@$$CBV?$basic_string@DV?$char_traits@D@_STL@@V?$allocator@D@2@@_STL@@K@2@U?$_Select1st@U?$pair@$$CBV?$basic_string@DV?$char_traits@D@_STL@@V?$allocator@D@2@@_STL@@K@_STL@@@2@U?$less@V?$basic_string@DV?$char_traits@D@_STL@@V?$allocator@D@2@@_STL@@@2@V?$allocator@U?$pair@$$CBV?$basic_string@DV?$char_traits@D@_STL@@V?$allocator@D@2@@_STL@@K@_STL@@@2@@_STL@@QAE@XZ ; _STL::_Rb_tree<_STL::basic_string<char,_STL::char_traits<char>,_STL::allocator<char> >,_STL::pair<_STL::basic_string<char,_STL::char_traits<char>,_STL::allocator<char> > const ,unsigned long>,_STL::_Select1st<_STL::pair<_STL::basic_string<char,_STL::char_traits<char>,_STL::allocator<char> > const ,unsigned long> >,_STL::less<_STL::basic_string<char,_STL::char_traits<char>,_STL::allocator<char> > >,_STL::allocator<_STL::pair<_STL::basic_string<char,_STL::char_traits<char>,_STL::allocator<char> > const ,unsigned long> > >::~_Rb_tree<_STL::basic_string<char,_STL::char_traits<char>,_STL::allocator<char> >,_STL::pair<_STL::basic_string<char,_STL::char_traits<char>,_STL::allocator<char> > const ,unsigned long>,_STL::_Select1st<_STL::pair<_STL::basic_string<char,_STL::char_traits<char>,_STL::allocator<char> > const ,unsigned long> >,_STL::less<_STL::basic_string<char,_STL::char_traits<char>,_STL::allocator<char> > >,_STL::allocator<_STL::pair<_STL::basic_string<char,_STL::char_traits<char>,_STL::allocator<char> > const ,unsigned long> > >
??1MJusticeAttackManager@@QAE@XZ ENDP			; MJusticeAttackManager::~MJusticeAttackManager
_TEXT	ENDS
PUBLIC	?Release@MJusticeAttackManager@@QAEXXZ		; MJusticeAttackManager::Release
; Function compile flags: /Ogsy
;	COMDAT ?Release@MJusticeAttackManager@@QAEXXZ
_TEXT	SEGMENT
?Release@MJusticeAttackManager@@QAEXXZ PROC NEAR	; MJusticeAttackManager::Release, COMDAT
; _this$ = ecx

; 39   : 	m_Creatures.clear();

  00000	e9 00 00 00 00	 jmp	 ?clear@?$_Rb_tree@V?$basic_string@DV?$char_traits@D@_STL@@V?$allocator@D@2@@_STL@@U?$pair@$$CBV?$basic_string@DV?$char_traits@D@_STL@@V?$allocator@D@2@@_STL@@K@2@U?$_Select1st@U?$pair@$$CBV?$basic_string@DV?$char_traits@D@_STL@@V?$allocator@D@2@@_STL@@K@_STL@@@2@U?$less@V?$basic_string@DV?$char_traits@D@_STL@@V?$allocator@D@2@@_STL@@@2@V?$allocator@U?$pair@$$CBV?$basic_string@DV?$char_traits@D@_STL@@V?$allocator@D@2@@_STL@@K@_STL@@@2@@_STL@@QAEXXZ ; _STL::_Rb_tree<_STL::basic_string<char,_STL::char_traits<char>,_STL::allocator<char> >,_STL::pair<_STL::basic_string<char,_STL::char_traits<char>,_STL::allocator<char> > const ,unsigned long>,_STL::_Select1st<_STL::pair<_STL::basic_string<char,_STL::char_traits<char>,_STL::allocator<char> > const ,unsigned long> >,_STL::less<_STL::basic_string<char,_STL::char_traits<char>,_STL::allocator<char> > >,_STL::allocator<_STL::pair<_STL::basic_string<char,_STL::char_traits<char>,_STL::allocator<char> > const ,unsigned long> > >::clear
?Release@MJusticeAttackManager@@QAEXXZ ENDP		; MJusticeAttackManager::Release
_TEXT	ENDS
PUBLIC	??0?$map@V?$basic_string@DV?$char_traits@D@_STL@@V?$allocator@D@2@@_STL@@KU?$less@V?$basic_string@DV?$char_traits@D@_STL@@V?$allocator@D@2@@_STL@@@2@V?$allocator@U?$pair@$$CBV?$basic_string@DV?$char_traits@D@_STL@@V?$allocator@D@2@@_STL@@K@_STL@@@2@@_STL@@QAE@XZ ; _STL::map<_STL::basic_string<char,_STL::char_traits<char>,_STL::allocator<char> >,unsigned long,_STL::less<_STL::basic_string<char,_STL::char_traits<char>,_STL::allocator<char> > >,_STL::allocator<_STL::pair<_STL::basic_string<char,_STL::char_traits<char>,_STL::allocator<char> > const ,unsigned long> > >::map<_STL::basic_string<char,_STL::char_traits<char>,_STL::allocator<char> >,unsigned long,_STL::less<_STL::basic_string<char,_STL::char_traits<char>,_STL::allocator<char> > >,_STL::allocator<_STL::pair<_STL::basic_string<char,_STL::char_traits<char>,_STL::allocator<char> > const ,unsigned long> > >
; Function compile flags: /Ogsy
; File c:\stlport-4.6.1\stlport\stl\_map.h
;	COMDAT ??0?$map@V?$basic_string@DV?$char_traits@D@_STL@@V?$allocator@D@2@@_STL@@KU?$less@V?$basic_string@DV?$char_traits@D@_STL@@V?$allocator@D@2@@_STL@@@2@V?$allocator@U?$pair@$$CBV?$basic_string@DV?$char_traits@D@_STL@@V?$allocator@D@2@@_STL@@K@_STL@@@2@@_STL@@QAE@XZ
_TEXT	SEGMENT
$T103968 = -1						; size = 1
$T103967 = -1						; size = 1
??0?$map@V?$basic_string@DV?$char_traits@D@_STL@@V?$allocator@D@2@@_STL@@KU?$less@V?$basic_string@DV?$char_traits@D@_STL@@V?$allocator@D@2@@_STL@@@2@V?$allocator@U?$pair@$$CBV?$basic_string@DV?$char_traits@D@_STL@@V?$allocator@D@2@@_STL@@K@_STL@@@2@@_STL@@QAE@XZ PROC NEAR ; _STL::map<_STL::basic_string<char,_STL::char_traits<char>,_STL::allocator<char> >,unsigned long,_STL::less<_STL::basic_string<char,_STL::char_traits<char>,_STL::allocator<char> > >,_STL::allocator<_STL::pair<_STL::basic_string<char,_STL::char_traits<char>,_STL::allocator<char> > const ,unsigned long> > >::map<_STL::basic_string<char,_STL::char_traits<char>,_STL::allocator<char> >,unsigned long,_STL::less<_STL::basic_string<char,_STL::char_traits<char>,_STL::allocator<char> > >,_STL::allocator<_STL::pair<_STL::basic_string<char,_STL::char_traits<char>,_STL::allocator<char> > const ,unsigned long> > >, COMDAT
; _this$ = ecx

; 91   :   map() : _M_t(_Compare(), allocator_type()) {}

  00000	55		 push	 ebp
  00001	8b ec		 mov	 ebp, esp
  00003	51		 push	 ecx
  00004	56		 push	 esi
  00005	8d 45 ff	 lea	 eax, DWORD PTR $T103967[ebp]
  00008	50		 push	 eax
  00009	8d 45 ff	 lea	 eax, DWORD PTR $T103968[ebp]
  0000c	50		 push	 eax
  0000d	8b f1		 mov	 esi, ecx
  0000f	e8 00 00 00 00	 call	 ??0?$_Rb_tree@V?$basic_string@DV?$char_traits@D@_STL@@V?$allocator@D@2@@_STL@@U?$pair@$$CBV?$basic_string@DV?$char_traits@D@_STL@@V?$allocator@D@2@@_STL@@K@2@U?$_Select1st@U?$pair@$$CBV?$basic_string@DV?$char_traits@D@_STL@@V?$allocator@D@2@@_STL@@K@_STL@@@2@U?$less@V?$basic_string@DV?$char_traits@D@_STL@@V?$allocator@D@2@@_STL@@@2@V?$allocator@U?$pair@$$CBV?$basic_string@DV?$char_traits@D@_STL@@V?$allocator@D@2@@_STL@@K@_STL@@@2@@_STL@@QAE@ABU?$less@V?$basic_string@DV?$char_traits@D@_STL@@V?$allocator@D@2@@_STL@@@1@ABV?$allocator@U?$pair@$$CBV?$basic_string@DV?$char_traits@D@_STL@@V?$allocator@D@2@@_STL@@K@_STL@@@1@@Z ; _STL::_Rb_tree<_STL::basic_string<char,_STL::char_traits<char>,_STL::allocator<char> >,_STL::pair<_STL::basic_string<char,_STL::char_traits<char>,_STL::allocator<char> > const ,unsigned long>,_STL::_Select1st<_STL::pair<_STL::basic_string<char,_STL::char_traits<char>,_STL::allocator<char> > const ,unsigned long> >,_STL::less<_STL::basic_string<char,_STL::char_traits<char>,_STL::allocator<char> > >,_STL::allocator<_STL::pair<_STL::basic_string<char,_STL::char_traits<char>,_STL::allocator<char> > const ,unsigned long> > >::_Rb_tree<_STL::basic_string<char,_STL::char_traits<char>,_STL::allocator<char> >,_STL::pair<_STL::basic_string<char,_STL::char_traits<char>,_STL::allocator<char> > const ,unsigned long>,_STL::_Select1st<_STL::pair<_STL::basic_string<char,_STL::char_traits<char>,_STL::allocator<char> > const ,unsigned long> >,_STL::less<_STL::basic_string<char,_STL::char_traits<char>,_STL::allocator<char> > >,_STL::allocator<_STL::pair<_STL::basic_string<char,_STL::char_traits<char>,_STL::allocator<char> > const ,unsigned long> > >
  00014	8b c6		 mov	 eax, esi
  00016	5e		 pop	 esi
  00017	c9		 leave
  00018	c3		 ret	 0
??0?$map@V?$basic_string@DV?$char_traits@D@_STL@@V?$allocator@D@2@@_STL@@KU?$less@V?$basic_string@DV?$char_traits@D@_STL@@V?$allocator@D@2@@_STL@@@2@V?$allocator@U?$pair@$$CBV?$basic_string@DV?$char_traits@D@_STL@@V?$allocator@D@2@@_STL@@K@_STL@@@2@@_STL@@QAE@XZ ENDP ; _STL::map<_STL::basic_string<char,_STL::char_traits<char>,_STL::allocator<char> >,unsigned long,_STL::less<_STL::basic_string<char,_STL::char_traits<char>,_STL::allocator<char> > >,_STL::allocator<_STL::pair<_STL::basic_string<char,_STL::char_traits<char>,_STL::allocator<char> > const ,unsigned long> > >::map<_STL::basic_string<char,_STL::char_traits<char>,_STL::allocator<char> >,unsigned long,_STL::less<_STL::basic_string<char,_STL::char_traits<char>,_STL::allocator<char> > >,_STL::allocator<_STL::pair<_STL::basic_string<char,_STL::char_traits<char>,_STL::allocator<char> > const ,unsigned long> > >
_TEXT	ENDS
PUBLIC	?insert_unique@?$_Rb_tree@V?$basic_string@DV?$char_traits@D@_STL@@V?$allocator@D@2@@_STL@@U?$pair@$$CBV?$basic_string@DV?$char_traits@D@_STL@@V?$allocator@D@2@@_STL@@K@2@U?$_Select1st@U?$pair@$$CBV?$basic_string@DV?$char_traits@D@_STL@@V?$allocator@D@2@@_STL@@K@_STL@@@2@U?$less@V?$basic_string@DV?$char_traits@D@_STL@@V?$allocator@D@2@@_STL@@@2@V?$allocator@U?$pair@$$CBV?$basic_string@DV?$char_traits@D@_STL@@V?$allocator@D@2@@_STL@@K@_STL@@@2@@_STL@@QAE?AU?$_Rb_tree_iterator@U?$pair@$$CBV?$basic_string@DV?$char_traits@D@_STL@@V?$allocator@D@2@@_STL@@K@_STL@@U?$_Nonconst_traits@U?$pair@$$CBV?$basic_string@DV?$char_traits@D@_STL@@V?$allocator@D@2@@_STL@@K@_STL@@@2@@2@U32@ABU?$pair@$$CBV?$basic_string@DV?$char_traits@D@_STL@@V?$allocator@D@2@@_STL@@K@2@@Z ; _STL::_Rb_tree<_STL::basic_string<char,_STL::char_traits<char>,_STL::allocator<char> >,_STL::pair<_STL::basic_string<char,_STL::char_traits<char>,_STL::allocator<char> > const ,unsigned long>,_STL::_Select1st<_STL::pair<_STL::basic_string<char,_STL::char_traits<char>,_STL::allocator<char> > const ,unsigned long> >,_STL::less<_STL::basic_string<char,_STL::char_traits<char>,_STL::allocator<char> > >,_STL::allocator<_STL::pair<_STL::basic_string<char,_STL::char_traits<char>,_STL::allocator<char> > const ,unsigned long> > >::insert_unique
; Function compile flags: /Ogsy
; File c:\stlport-4.6.1\stlport\stl\_tree.c
;	COMDAT ?insert_unique@?$_Rb_tree@V?$basic_string@DV?$char_traits@D@_STL@@V?$allocator@D@2@@_STL@@U?$pair@$$CBV?$basic_string@DV?$char_traits@D@_STL@@V?$allocator@D@2@@_STL@@K@2@U?$_Select1st@U?$pair@$$CBV?$basic_string@DV?$char_traits@D@_STL@@V?$allocator@D@2@@_STL@@K@_STL@@@2@U?$less@V?$basic_string@DV?$char_traits@D@_STL@@V?$allocator@D@2@@_STL@@@2@V?$allocator@U?$pair@$$CBV?$basic_string@DV?$char_traits@D@_STL@@V?$allocator@D@2@@_STL@@K@_STL@@@2@@_STL@@QAE?AU?$_Rb_tree_iterator@U?$pair@$$CBV?$basic_string@DV?$char_traits@D@_STL@@V?$allocator@D@2@@_STL@@K@_STL@@U?$_Nonconst_traits@U?$pair@$$CBV?$basic_string@DV?$char_traits@D@_STL@@V?$allocator@D@2@@_STL@@K@_STL@@@2@@2@U32@ABU?$pair@$$CBV?$basic_string@DV?$char_traits@D@_STL@@V?$allocator@D@2@@_STL@@K@2@@Z
_TEXT	SEGMENT
$T103989 = -12						; size = 8
___after$101759 = -8					; size = 4
___before$101749 = -8					; size = 4
___comp_pos_v$101760 = -1				; size = 1
___$ReturnUdt$ = 8					; size = 4
___after$101730 = 12					; size = 4
___position$ = 12					; size = 4
___comp_v_pos$101750 = 15				; size = 1
___v$ = 16						; size = 4
?insert_unique@?$_Rb_tree@V?$basic_string@DV?$char_traits@D@_STL@@V?$allocator@D@2@@_STL@@U?$pair@$$CBV?$basic_string@DV?$char_traits@D@_STL@@V?$allocator@D@2@@_STL@@K@2@U?$_Select1st@U?$pair@$$CBV?$basic_string@DV?$char_traits@D@_STL@@V?$allocator@D@2@@_STL@@K@_STL@@@2@U?$less@V?$basic_string@DV?$char_traits@D@_STL@@V?$allocator@D@2@@_STL@@@2@V?$allocator@U?$pair@$$CBV?$basic_string@DV?$char_traits@D@_STL@@V?$allocator@D@2@@_STL@@K@_STL@@@2@@_STL@@QAE?AU?$_Rb_tree_iterator@U?$pair@$$CBV?$basic_string@DV?$char_traits@D@_STL@@V?$allocator@D@2@@_STL@@K@_STL@@U?$_Nonconst_traits@U?$pair@$$CBV?$basic_string@DV?$char_traits@D@_STL@@V?$allocator@D@2@@_STL@@K@_STL@@@2@@2@U32@ABU?$pair@$$CBV?$basic_string@DV?$char_traits@D@_STL@@V?$allocator@D@2@@_STL@@K@2@@Z PROC NEAR ; _STL::_Rb_tree<_STL::basic_string<char,_STL::char_traits<char>,_STL::allocator<char> >,_STL::pair<_STL::basic_string<char,_STL::char_traits<char>,_STL::allocator<char> > const ,unsigned long>,_STL::_Select1st<_STL::pair<_STL::basic_string<char,_STL::char_traits<char>,_STL::allocator<char> > const ,unsigned long> >,_STL::less<_STL::basic_string<char,_STL::char_traits<char>,_STL::allocator<char> > >,_STL::allocator<_STL::pair<_STL::basic_string<char,_STL::char_traits<char>,_STL::allocator<char> > const ,unsigned long> > >::insert_unique, COMDAT
; _this$ = ecx

; 426  : {

  00000	55		 push	 ebp
  00001	8b ec		 mov	 ebp, esp
  00003	83 ec 0c	 sub	 esp, 12			; 0000000cH
  00006	53		 push	 ebx
  00007	56		 push	 esi

; 427  :   if (__position._M_node == this->_M_header._M_data->_M_left) { // begin()

  00008	8b 75 0c	 mov	 esi, DWORD PTR ___position$[ebp]
  0000b	57		 push	 edi
  0000c	8b f9		 mov	 edi, ecx
  0000e	8b 07		 mov	 eax, DWORD PTR [edi]
  00010	3b 70 08	 cmp	 esi, DWORD PTR [eax+8]
  00013	0f 85 94 00 00
	00		 jne	 $L101701

; 428  : 
; 429  :     // if the container is empty, fall back on insert_unique.
; 430  :     if (size() <= 0)

  00019	33 db		 xor	 ebx, ebx
  0001b	39 5f 04	 cmp	 DWORD PTR [edi+4], ebx

; 431  :       return insert_unique(__v).first;

  0001e	0f 86 7b 01 00
	00		 jbe	 $L101771

; 432  : 
; 433  :     if ( _M_key_compare(_KeyOfValue()(__v), _S_key(__position._M_node)))

  00024	8d 46 10	 lea	 eax, DWORD PTR [esi+16]
  00027	50		 push	 eax
  00028	ff 75 10	 push	 DWORD PTR ___v$[ebp]
  0002b	e8 00 00 00 00	 call	 ??$?MDV?$char_traits@D@_STL@@V?$allocator@D@1@@_STL@@YA_NABV?$basic_string@DV?$char_traits@D@_STL@@V?$allocator@D@2@@0@0@Z ; _STL::operator<<char,_STL::char_traits<char>,_STL::allocator<char> >
  00030	84 c0		 test	 al, al
  00032	59		 pop	 ecx
  00033	59		 pop	 ecx
  00034	74 08		 je	 SHORT $L101724

; 434  :       return _M_insert(__position._M_node, __position._M_node, __v);

  00036	53		 push	 ebx
  00037	ff 75 10	 push	 DWORD PTR ___v$[ebp]
  0003a	56		 push	 esi
  0003b	56		 push	 esi
  0003c	eb 30		 jmp	 SHORT $L104230
$L101724:

; 435  :     // first argument just needs to be non-null 
; 436  :     else
; 437  :       {
; 438  : 	bool __comp_pos_v = _M_key_compare( _S_key(__position._M_node), _KeyOfValue()(__v) );

  0003e	ff 75 10	 push	 DWORD PTR ___v$[ebp]
  00041	8d 46 10	 lea	 eax, DWORD PTR [esi+16]
  00044	50		 push	 eax
  00045	e8 00 00 00 00	 call	 ??$?MDV?$char_traits@D@_STL@@V?$allocator@D@1@@_STL@@YA_NABV?$basic_string@DV?$char_traits@D@_STL@@V?$allocator@D@2@@0@0@Z ; _STL::operator<<char,_STL::char_traits<char>,_STL::allocator<char> >

; 439  : 	
; 440  : 	if (__comp_pos_v == false)  // compare > and compare < both false so compare equal

  0004a	84 c0		 test	 al, al
  0004c	59		 pop	 ecx
  0004d	59		 pop	 ecx
  0004e	75 0a		 jne	 SHORT $L101729
$L104225:

; 441  : 	  return __position;

  00050	8b 45 08	 mov	 eax, DWORD PTR ___$ReturnUdt$[ebp]
  00053	89 30		 mov	 DWORD PTR [eax], esi
  00055	e9 5a 01 00 00	 jmp	 $L101772
$L101729:

; 442  : 	//Below __comp_pos_v == true
; 443  : 
; 444  : 	// Standard-conformance - does the insertion point fall immediately AFTER
; 445  : 	// the hint?
; 446  : 	iterator __after = __position;
; 447  : 	++__after;

  0005a	56		 push	 esi
  0005b	e8 00 00 00 00	 call	 ?_M_increment@?$_Rb_global@_N@_STL@@SAPAU_Rb_tree_node_base@2@PAU32@@Z ; _STL::_Rb_global<bool>::_M_increment

; 448  : 
; 449  : 	// Check for only one member -- in that case, __position points to itself,
; 450  : 	// and attempting to increment will cause an infinite loop.
; 451  : 	if (__after._M_node == this->_M_header._M_data)

  00060	3b 07		 cmp	 eax, DWORD PTR [edi]
  00062	59		 pop	 ecx
  00063	89 45 0c	 mov	 DWORD PTR ___after$101730[ebp], eax
  00066	75 0a		 jne	 SHORT $L101731

; 452  : 	  // Check guarantees exactly one member, so comparison was already
; 453  : 	  // performed and we know the result; skip repeating it in _M_insert
; 454  : 	  // by specifying a non-zero fourth argument.
; 455  : 	  return _M_insert(0, __position._M_node, __v, __position._M_node);

  00068	56		 push	 esi
  00069	ff 75 10	 push	 DWORD PTR ___v$[ebp]
  0006c	56		 push	 esi
  0006d	53		 push	 ebx
$L104230:
  0006e	8b cf		 mov	 ecx, edi
  00070	eb 2b		 jmp	 SHORT $L104229
$L101731:

; 456  : 		
; 457  : 	
; 458  : 	// All other cases:
; 459  : 	
; 460  : 	// Optimization to catch insert-equivalent -- save comparison results,
; 461  : 	// and we get this for free.
; 462  : 	if(_M_key_compare( _KeyOfValue()(__v), _S_key(__after._M_node) )) {

  00072	83 c0 10	 add	 eax, 16			; 00000010H
  00075	50		 push	 eax
  00076	ff 75 10	 push	 DWORD PTR ___v$[ebp]
  00079	e8 00 00 00 00	 call	 ??$?MDV?$char_traits@D@_STL@@V?$allocator@D@1@@_STL@@YA_NABV?$basic_string@DV?$char_traits@D@_STL@@V?$allocator@D@2@@0@0@Z ; _STL::operator<<char,_STL::char_traits<char>,_STL::allocator<char> >
  0007e	84 c0		 test	 al, al
  00080	59		 pop	 ecx
  00081	59		 pop	 ecx
  00082	0f 84 17 01 00
	00		 je	 $L101771

; 463  : 	  if (_S_right(__position._M_node) == 0)

  00088	39 5e 0c	 cmp	 DWORD PTR [esi+12], ebx

; 464  : 	    return _M_insert(0, __position._M_node, __v, __position._M_node);

  0008b	8b cf		 mov	 ecx, edi
  0008d	0f 84 ea 00 00
	00		 je	 $L104232

; 465  : 	  else
; 466  : 	    return _M_insert(__after._M_node, __after._M_node, __v);

  00093	53		 push	 ebx
  00094	ff 75 10	 push	 DWORD PTR ___v$[ebp]
  00097	ff 75 0c	 push	 DWORD PTR ___after$101730[ebp]
  0009a	ff 75 0c	 push	 DWORD PTR ___after$101730[ebp]
$L104229:
  0009d	ff 75 08	 push	 DWORD PTR ___$ReturnUdt$[ebp]
  000a0	e8 00 00 00 00	 call	 ?_M_insert@?$_Rb_tree@V?$basic_string@DV?$char_traits@D@_STL@@V?$allocator@D@2@@_STL@@U?$pair@$$CBV?$basic_string@DV?$char_traits@D@_STL@@V?$allocator@D@2@@_STL@@K@2@U?$_Select1st@U?$pair@$$CBV?$basic_string@DV?$char_traits@D@_STL@@V?$allocator@D@2@@_STL@@K@_STL@@@2@U?$less@V?$basic_string@DV?$char_traits@D@_STL@@V?$allocator@D@2@@_STL@@@2@V?$allocator@U?$pair@$$CBV?$basic_string@DV?$char_traits@D@_STL@@V?$allocator@D@2@@_STL@@K@_STL@@@2@@_STL@@AAE?AU?$_Rb_tree_iterator@U?$pair@$$CBV?$basic_string@DV?$char_traits@D@_STL@@V?$allocator@D@2@@_STL@@K@_STL@@U?$_Nonconst_traits@U?$pair@$$CBV?$basic_string@DV?$char_traits@D@_STL@@V?$allocator@D@2@@_STL@@K@_STL@@@2@@2@PAU_Rb_tree_node_base@2@0ABU?$pair@$$CBV?$basic_string@DV?$char_traits@D@_STL@@V?$allocator@D@2@@_STL@@K@2@0@Z ; _STL::_Rb_tree<_STL::basic_string<char,_STL::char_traits<char>,_STL::allocator<char> >,_STL::pair<_STL::basic_string<char,_STL::char_traits<char>,_STL::allocator<char> > const ,unsigned long>,_STL::_Select1st<_STL::pair<_STL::basic_string<char,_STL::char_traits<char>,_STL::allocator<char> > const ,unsigned long> >,_STL::less<_STL::basic_string<char,_STL::char_traits<char>,_STL::allocator<char> > >,_STL::allocator<_STL::pair<_STL::basic_string<char,_STL::char_traits<char>,_STL::allocator<char> > const ,unsigned long> > >::_M_insert
  000a5	8b 45 08	 mov	 eax, DWORD PTR ___$ReturnUdt$[ebp]

; 467  : 	} else {
; 468  : 	    return insert_unique(__v).first;

  000a8	e9 07 01 00 00	 jmp	 $L101772
$L101701:

; 469  : 	}
; 470  :       }
; 471  : 
; 472  :   } else if (__position._M_node == this->_M_header._M_data) { // end()

  000ad	3b f0		 cmp	 esi, eax
  000af	75 28		 jne	 SHORT $L101742

; 473  :     if (_M_key_compare(_S_key(_M_rightmost()), _KeyOfValue()(__v)))

  000b1	8b 40 0c	 mov	 eax, DWORD PTR [eax+12]
  000b4	ff 75 10	 push	 DWORD PTR ___v$[ebp]
  000b7	83 c0 10	 add	 eax, 16			; 00000010H
  000ba	50		 push	 eax
  000bb	e8 00 00 00 00	 call	 ??$?MDV?$char_traits@D@_STL@@V?$allocator@D@1@@_STL@@YA_NABV?$basic_string@DV?$char_traits@D@_STL@@V?$allocator@D@2@@0@0@Z ; _STL::operator<<char,_STL::char_traits<char>,_STL::allocator<char> >
  000c0	84 c0		 test	 al, al
  000c2	59		 pop	 ecx
  000c3	59		 pop	 ecx

; 474  :       // pass along to _M_insert that it can skip comparing
; 475  :       // v, Key ; since compare Key, v was true, compare v, Key must be false.
; 476  :       return _M_insert(0, _M_rightmost(), __v, __position._M_node); // Last argument only needs to be non-null

  000c4	8b cf		 mov	 ecx, edi
  000c6	0f 84 d5 00 00
	00		 je	 $L101744
  000cc	8b 07		 mov	 eax, DWORD PTR [edi]
  000ce	56		 push	 esi
  000cf	ff 75 10	 push	 DWORD PTR ___v$[ebp]
  000d2	ff 70 0c	 push	 DWORD PTR [eax+12]
  000d5	6a 00		 push	 0
  000d7	eb c4		 jmp	 SHORT $L104229
$L101742:

; 477  :     else
; 478  :       return insert_unique(__v).first;
; 479  :   } else {
; 480  :     iterator __before = __position;
; 481  :     --__before;

  000d9	56		 push	 esi
  000da	e8 00 00 00 00	 call	 ?_M_decrement@?$_Rb_global@_N@_STL@@SAPAU_Rb_tree_node_base@2@PAU32@@Z ; _STL::_Rb_global<bool>::_M_decrement
  000df	89 45 f8	 mov	 DWORD PTR ___before$101749[ebp], eax

; 482  :     
; 483  :     bool __comp_v_pos = _M_key_compare(_KeyOfValue()(__v), _S_key(__position._M_node));

  000e2	8d 46 10	 lea	 eax, DWORD PTR [esi+16]
  000e5	50		 push	 eax
  000e6	ff 75 10	 push	 DWORD PTR ___v$[ebp]
  000e9	e8 00 00 00 00	 call	 ??$?MDV?$char_traits@D@_STL@@V?$allocator@D@1@@_STL@@YA_NABV?$basic_string@DV?$char_traits@D@_STL@@V?$allocator@D@2@@0@0@Z ; _STL::operator<<char,_STL::char_traits<char>,_STL::allocator<char> >

; 484  : 
; 485  :     if (__comp_v_pos
; 486  :       && _M_key_compare( _S_key(__before._M_node), _KeyOfValue()(__v) )) {

  000ee	33 db		 xor	 ebx, ebx
  000f0	83 c4 0c	 add	 esp, 12			; 0000000cH
  000f3	3a c3		 cmp	 al, bl
  000f5	88 45 0f	 mov	 BYTE PTR ___comp_v_pos$101750[ebp], al
  000f8	74 31		 je	 SHORT $L101753
  000fa	8b 45 f8	 mov	 eax, DWORD PTR ___before$101749[ebp]
  000fd	ff 75 10	 push	 DWORD PTR ___v$[ebp]
  00100	83 c0 10	 add	 eax, 16			; 00000010H
  00103	50		 push	 eax
  00104	e8 00 00 00 00	 call	 ??$?MDV?$char_traits@D@_STL@@V?$allocator@D@1@@_STL@@YA_NABV?$basic_string@DV?$char_traits@D@_STL@@V?$allocator@D@2@@0@0@Z ; _STL::operator<<char,_STL::char_traits<char>,_STL::allocator<char> >
  00109	84 c0		 test	 al, al
  0010b	59		 pop	 ecx
  0010c	59		 pop	 ecx
  0010d	74 1c		 je	 SHORT $L101753

; 487  : 
; 488  :       if (_S_right(__before._M_node) == 0)

  0010f	8b 45 f8	 mov	 eax, DWORD PTR ___before$101749[ebp]
  00112	39 58 0c	 cmp	 DWORD PTR [eax+12], ebx

; 489  :         return _M_insert(0, __before._M_node, __v, __before._M_node); // Last argument only needs to be non-null

  00115	8b cf		 mov	 ecx, edi
  00117	75 07		 jne	 SHORT $L101754
  00119	50		 push	 eax
  0011a	ff 75 10	 push	 DWORD PTR ___v$[ebp]
  0011d	50		 push	 eax
  0011e	eb 62		 jmp	 SHORT $L104231
$L101754:

; 490  :       else
; 491  :         return _M_insert(__position._M_node, __position._M_node, __v);

  00120	53		 push	 ebx
  00121	ff 75 10	 push	 DWORD PTR ___v$[ebp]
  00124	56		 push	 esi
  00125	56		 push	 esi
  00126	e9 72 ff ff ff	 jmp	 $L104229
$L101753:

; 492  :     // first argument just needs to be non-null 
; 493  :     } else
; 494  :       {
; 495  : 	// Does the insertion point fall immediately AFTER the hint?
; 496  : 	iterator __after = __position;
; 497  : 	++__after;

  0012b	56		 push	 esi
  0012c	e8 00 00 00 00	 call	 ?_M_increment@?$_Rb_global@_N@_STL@@SAPAU_Rb_tree_node_base@2@PAU32@@Z ; _STL::_Rb_global<bool>::_M_increment

; 498  : 	
; 499  : 	// Optimization to catch equivalent cases and avoid unnecessary comparisons
; 500  : 	bool __comp_pos_v = !__comp_v_pos;  // Stored this result earlier

  00131	38 5d 0f	 cmp	 BYTE PTR ___comp_v_pos$101750[ebp], bl
  00134	59		 pop	 ecx
  00135	0f 94 45 ff	 sete	 BYTE PTR ___comp_pos_v$101760[ebp]

; 501  : 	// If the earlier comparison was true, this comparison doesn't need to be
; 502  : 	// performed because it must be false.  However, if the earlier comparison
; 503  : 	// was false, we need to perform this one because in the equal case, both will
; 504  : 	// be false.
; 505  : 	if (!__comp_v_pos) __comp_pos_v = _M_key_compare(_S_key(__position._M_node), _KeyOfValue()(__v));

  00139	38 5d 0f	 cmp	 BYTE PTR ___comp_v_pos$101750[ebp], bl
  0013c	89 45 f8	 mov	 DWORD PTR ___after$101759[ebp], eax
  0013f	75 52		 jne	 SHORT $L104226
  00141	ff 75 10	 push	 DWORD PTR ___v$[ebp]
  00144	8d 46 10	 lea	 eax, DWORD PTR [esi+16]
  00147	50		 push	 eax
  00148	e8 00 00 00 00	 call	 ??$?MDV?$char_traits@D@_STL@@V?$allocator@D@1@@_STL@@YA_NABV?$basic_string@DV?$char_traits@D@_STL@@V?$allocator@D@2@@0@0@Z ; _STL::operator<<char,_STL::char_traits<char>,_STL::allocator<char> >

; 506  : 	
; 507  : 	if ( (!__comp_v_pos) // comp_v_pos true implies comp_v_pos false
; 508  : 	     && __comp_pos_v
; 509  : 	     && (__after._M_node == this->_M_header._M_data ||
; 510  : 	        _M_key_compare( _KeyOfValue()(__v), _S_key(__after._M_node) ))) {

  0014d	3a c3		 cmp	 al, bl
  0014f	59		 pop	 ecx
  00150	59		 pop	 ecx
  00151	88 45 ff	 mov	 BYTE PTR ___comp_pos_v$101760[ebp], al
  00154	0f 84 f6 fe ff
	ff		 je	 $L104225
  0015a	8b 45 f8	 mov	 eax, DWORD PTR ___after$101759[ebp]
  0015d	3b 07		 cmp	 eax, DWORD PTR [edi]
  0015f	74 15		 je	 SHORT $L101765
  00161	83 c0 10	 add	 eax, 16			; 00000010H
  00164	50		 push	 eax
  00165	ff 75 10	 push	 DWORD PTR ___v$[ebp]
  00168	e8 00 00 00 00	 call	 ??$?MDV?$char_traits@D@_STL@@V?$allocator@D@1@@_STL@@YA_NABV?$basic_string@DV?$char_traits@D@_STL@@V?$allocator@D@2@@0@0@Z ; _STL::operator<<char,_STL::char_traits<char>,_STL::allocator<char> >
  0016d	84 c0		 test	 al, al
  0016f	59		 pop	 ecx
  00170	59		 pop	 ecx
  00171	74 20		 je	 SHORT $L104226
  00173	8b 45 f8	 mov	 eax, DWORD PTR ___after$101759[ebp]
$L101765:

; 511  : 	  
; 512  : 	  if (_S_right(__position._M_node) == 0)

  00176	39 5e 0c	 cmp	 DWORD PTR [esi+12], ebx

; 513  : 	    return _M_insert(0, __position._M_node, __v, __position._M_node);

  00179	8b cf		 mov	 ecx, edi
  0017b	75 0b		 jne	 SHORT $L101766
$L104232:
  0017d	56		 push	 esi
  0017e	ff 75 10	 push	 DWORD PTR ___v$[ebp]
  00181	56		 push	 esi
$L104231:
  00182	53		 push	 ebx
  00183	e9 15 ff ff ff	 jmp	 $L104229
$L101766:

; 514  : 	  else
; 515  : 	    return _M_insert(__after._M_node, __after._M_node, __v);

  00188	53		 push	 ebx
  00189	ff 75 10	 push	 DWORD PTR ___v$[ebp]
  0018c	50		 push	 eax
  0018d	50		 push	 eax
  0018e	e9 0a ff ff ff	 jmp	 $L104229
$L104226:

; 516  : 	} else {
; 517  : 	  // Test for equivalent case
; 518  : 	  if (__comp_v_pos == __comp_pos_v)

  00193	8a 45 ff	 mov	 al, BYTE PTR ___comp_pos_v$101760[ebp]
  00196	38 45 0f	 cmp	 BYTE PTR ___comp_v_pos$101750[ebp], al

; 519  : 	    return __position;

  00199	0f 84 b1 fe ff
	ff		 je	 $L104225
$L101771:

; 520  : 	  else
; 521  : 	    return insert_unique(__v).first;

  0019f	8b cf		 mov	 ecx, edi
$L101744:
  001a1	ff 75 10	 push	 DWORD PTR ___v$[ebp]
  001a4	8d 45 f4	 lea	 eax, DWORD PTR $T103989[ebp]
  001a7	50		 push	 eax
  001a8	e8 00 00 00 00	 call	 ?insert_unique@?$_Rb_tree@V?$basic_string@DV?$char_traits@D@_STL@@V?$allocator@D@2@@_STL@@U?$pair@$$CBV?$basic_string@DV?$char_traits@D@_STL@@V?$allocator@D@2@@_STL@@K@2@U?$_Select1st@U?$pair@$$CBV?$basic_string@DV?$char_traits@D@_STL@@V?$allocator@D@2@@_STL@@K@_STL@@@2@U?$less@V?$basic_string@DV?$char_traits@D@_STL@@V?$allocator@D@2@@_STL@@@2@V?$allocator@U?$pair@$$CBV?$basic_string@DV?$char_traits@D@_STL@@V?$allocator@D@2@@_STL@@K@_STL@@@2@@_STL@@QAE?AU?$pair@U?$_Rb_tree_iterator@U?$pair@$$CBV?$basic_string@DV?$char_traits@D@_STL@@V?$allocator@D@2@@_STL@@K@_STL@@U?$_Nonconst_traits@U?$pair@$$CBV?$basic_string@DV?$char_traits@D@_STL@@V?$allocator@D@2@@_STL@@K@_STL@@@2@@_STL@@_N@2@ABU?$pair@$$CBV?$basic_string@DV?$char_traits@D@_STL@@V?$allocator@D@2@@_STL@@K@2@@Z ; _STL::_Rb_tree<_STL::basic_string<char,_STL::char_traits<char>,_STL::allocator<char> >,_STL::pair<_STL::basic_string<char,_STL::char_traits<char>,_STL::allocator<char> > const ,unsigned long>,_STL::_Select1st<_STL::pair<_STL::basic_string<char,_STL::char_traits<char>,_STL::allocator<char> > const ,unsigned long> >,_STL::less<_STL::basic_string<char,_STL::char_traits<char>,_STL::allocator<char> > >,_STL::allocator<_STL::pair<_STL::basic_string<char,_STL::char_traits<char>,_STL::allocator<char> > const ,unsigned long> > >::insert_unique
  001ad	8b 08		 mov	 ecx, DWORD PTR [eax]
  001af	8b 45 08	 mov	 eax, DWORD PTR ___$ReturnUdt$[ebp]
  001b2	89 08		 mov	 DWORD PTR [eax], ecx
$L101772:
  001b4	5f		 pop	 edi
  001b5	5e		 pop	 esi
  001b6	5b		 pop	 ebx

; 522  : 	}
; 523  :       }
; 524  :   }
; 525  : }

  001b7	c9		 leave
  001b8	c2 0c 00	 ret	 12			; 0000000cH
?insert_unique@?$_Rb_tree@V?$basic_string@DV?$char_traits@D@_STL@@V?$allocator@D@2@@_STL@@U?$pair@$$CBV?$basic_string@DV?$char_traits@D@_STL@@V?$allocator@D@2@@_STL@@K@2@U?$_Select1st@U?$pair@$$CBV?$basic_string@DV?$char_traits@D@_STL@@V?$allocator@D@2@@_STL@@K@_STL@@@2@U?$less@V?$basic_string@DV?$char_traits@D@_STL@@V?$allocator@D@2@@_STL@@@2@V?$allocator@U?$pair@$$CBV?$basic_string@DV?$char_traits@D@_STL@@V?$allocator@D@2@@_STL@@K@_STL@@@2@@_STL@@QAE?AU?$_Rb_tree_iterator@U?$pair@$$CBV?$basic_string@DV?$char_traits@D@_STL@@V?$allocator@D@2@@_STL@@K@_STL@@U?$_Nonconst_traits@U?$pair@$$CBV?$basic_string@DV?$char_traits@D@_STL@@V?$allocator@D@2@@_STL@@K@_STL@@@2@@2@U32@ABU?$pair@$$CBV?$basic_string@DV?$char_traits@D@_STL@@V?$allocator@D@2@@_STL@@K@2@@Z ENDP ; _STL::_Rb_tree<_STL::basic_string<char,_STL::char_traits<char>,_STL::allocator<char> >,_STL::pair<_STL::basic_string<char,_STL::char_traits<char>,_STL::allocator<char> > const ,unsigned long>,_STL::_Select1st<_STL::pair<_STL::basic_string<char,_STL::char_traits<char>,_STL::allocator<char> > const ,unsigned long> >,_STL::less<_STL::basic_string<char,_STL::char_traits<char>,_STL::allocator<char> > >,_STL::allocator<_STL::pair<_STL::basic_string<char,_STL::char_traits<char>,_STL::allocator<char> > const ,unsigned long> > >::insert_unique
_TEXT	ENDS
PUBLIC	??0MJusticeAttackManager@@QAE@XZ		; MJusticeAttackManager::MJusticeAttackManager
; Function compile flags: /Ogsy
; File c:\darkeden\designed_common\project\client\mjusticeattackmanager.cpp
;	COMDAT ??0MJusticeAttackManager@@QAE@XZ
_TEXT	SEGMENT
??0MJusticeAttackManager@@QAE@XZ PROC NEAR		; MJusticeAttackManager::MJusticeAttackManager, COMDAT
; _this$ = ecx

; 21   : {

  00000	56		 push	 esi
  00001	8b f1		 mov	 esi, ecx
  00003	e8 00 00 00 00	 call	 ??0?$map@V?$basic_string@DV?$char_traits@D@_STL@@V?$allocator@D@2@@_STL@@KU?$less@V?$basic_string@DV?$char_traits@D@_STL@@V?$allocator@D@2@@_STL@@@2@V?$allocator@U?$pair@$$CBV?$basic_string@DV?$char_traits@D@_STL@@V?$allocator@D@2@@_STL@@K@_STL@@@2@@_STL@@QAE@XZ ; _STL::map<_STL::basic_string<char,_STL::char_traits<char>,_STL::allocator<char> >,unsigned long,_STL::less<_STL::basic_string<char,_STL::char_traits<char>,_STL::allocator<char> > >,_STL::allocator<_STL::pair<_STL::basic_string<char,_STL::char_traits<char>,_STL::allocator<char> > const ,unsigned long> > >::map<_STL::basic_string<char,_STL::char_traits<char>,_STL::allocator<char> >,unsigned long,_STL::less<_STL::basic_string<char,_STL::char_traits<char>,_STL::allocator<char> > >,_STL::allocator<_STL::pair<_STL::basic_string<char,_STL::char_traits<char>,_STL::allocator<char> > const ,unsigned long> > >

; 22   : }

  00008	8b c6		 mov	 eax, esi
  0000a	5e		 pop	 esi
  0000b	c3		 ret	 0
??0MJusticeAttackManager@@QAE@XZ ENDP			; MJusticeAttackManager::MJusticeAttackManager
_TEXT	ENDS
PUBLIC	?insert@?$map@V?$basic_string@DV?$char_traits@D@_STL@@V?$allocator@D@2@@_STL@@KU?$less@V?$basic_string@DV?$char_traits@D@_STL@@V?$allocator@D@2@@_STL@@@2@V?$allocator@U?$pair@$$CBV?$basic_string@DV?$char_traits@D@_STL@@V?$allocator@D@2@@_STL@@K@_STL@@@2@@_STL@@QAE?AU?$_Rb_tree_iterator@U?$pair@$$CBV?$basic_string@DV?$char_traits@D@_STL@@V?$allocator@D@2@@_STL@@K@_STL@@U?$_Nonconst_traits@U?$pair@$$CBV?$basic_string@DV?$char_traits@D@_STL@@V?$allocator@D@2@@_STL@@K@_STL@@@2@@2@U32@ABU?$pair@$$CBV?$basic_string@DV?$char_traits@D@_STL@@V?$allocator@D@2@@_STL@@K@2@@Z ; _STL::map<_STL::basic_string<char,_STL::char_traits<char>,_STL::allocator<char> >,unsigned long,_STL::less<_STL::basic_string<char,_STL::char_traits<char>,_STL::allocator<char> > >,_STL::allocator<_STL::pair<_STL::basic_string<char,_STL::char_traits<char>,_STL::allocator<char> > const ,unsigned long> > >::insert
; Function compile flags: /Ogsy
; File c:\stlport-4.6.1\stlport\stl\_map.h
;	COMDAT ?insert@?$map@V?$basic_string@DV?$char_traits@D@_STL@@V?$allocator@D@2@@_STL@@KU?$less@V?$basic_string@DV?$char_traits@D@_STL@@V?$allocator@D@2@@_STL@@@2@V?$allocator@U?$pair@$$CBV?$basic_string@DV?$char_traits@D@_STL@@V?$allocator@D@2@@_STL@@K@_STL@@@2@@_STL@@QAE?AU?$_Rb_tree_iterator@U?$pair@$$CBV?$basic_string@DV?$char_traits@D@_STL@@V?$allocator@D@2@@_STL@@K@_STL@@U?$_Nonconst_traits@U?$pair@$$CBV?$basic_string@DV?$char_traits@D@_STL@@V?$allocator@D@2@@_STL@@K@_STL@@@2@@2@U32@ABU?$pair@$$CBV?$basic_string@DV?$char_traits@D@_STL@@V?$allocator@D@2@@_STL@@K@2@@Z
_TEXT	SEGMENT
___$ReturnUdt$ = 8					; size = 4
_position$ = 12						; size = 4
___x$ = 16						; size = 4
?insert@?$map@V?$basic_string@DV?$char_traits@D@_STL@@V?$allocator@D@2@@_STL@@KU?$less@V?$basic_string@DV?$char_traits@D@_STL@@V?$allocator@D@2@@_STL@@@2@V?$allocator@U?$pair@$$CBV?$basic_string@DV?$char_traits@D@_STL@@V?$allocator@D@2@@_STL@@K@_STL@@@2@@_STL@@QAE?AU?$_Rb_tree_iterator@U?$pair@$$CBV?$basic_string@DV?$char_traits@D@_STL@@V?$allocator@D@2@@_STL@@K@_STL@@U?$_Nonconst_traits@U?$pair@$$CBV?$basic_string@DV?$char_traits@D@_STL@@V?$allocator@D@2@@_STL@@K@_STL@@@2@@2@U32@ABU?$pair@$$CBV?$basic_string@DV?$char_traits@D@_STL@@V?$allocator@D@2@@_STL@@K@2@@Z PROC NEAR ; _STL::map<_STL::basic_string<char,_STL::char_traits<char>,_STL::allocator<char> >,unsigned long,_STL::less<_STL::basic_string<char,_STL::char_traits<char>,_STL::allocator<char> > >,_STL::allocator<_STL::pair<_STL::basic_string<char,_STL::char_traits<char>,_STL::allocator<char> > const ,unsigned long> > >::insert, COMDAT
; _this$ = ecx

; 172  :     { return _M_t.insert_unique(position, __x); }

  00000	ff 74 24 0c	 push	 DWORD PTR ___x$[esp-4]
  00004	8b 54 24 0c	 mov	 edx, DWORD PTR _position$[esp]
  00008	51		 push	 ecx
  00009	8b c4		 mov	 eax, esp
  0000b	ff 74 24 0c	 push	 DWORD PTR ___$ReturnUdt$[esp+4]
  0000f	89 10		 mov	 DWORD PTR [eax], edx
  00011	e8 00 00 00 00	 call	 ?insert_unique@?$_Rb_tree@V?$basic_string@DV?$char_traits@D@_STL@@V?$allocator@D@2@@_STL@@U?$pair@$$CBV?$basic_string@DV?$char_traits@D@_STL@@V?$allocator@D@2@@_STL@@K@2@U?$_Select1st@U?$pair@$$CBV?$basic_string@DV?$char_traits@D@_STL@@V?$allocator@D@2@@_STL@@K@_STL@@@2@U?$less@V?$basic_string@DV?$char_traits@D@_STL@@V?$allocator@D@2@@_STL@@@2@V?$allocator@U?$pair@$$CBV?$basic_string@DV?$char_traits@D@_STL@@V?$allocator@D@2@@_STL@@K@_STL@@@2@@_STL@@QAE?AU?$_Rb_tree_iterator@U?$pair@$$CBV?$basic_string@DV?$char_traits@D@_STL@@V?$allocator@D@2@@_STL@@K@_STL@@U?$_Nonconst_traits@U?$pair@$$CBV?$basic_string@DV?$char_traits@D@_STL@@V?$allocator@D@2@@_STL@@K@_STL@@@2@@2@U32@ABU?$pair@$$CBV?$basic_string@DV?$char_traits@D@_STL@@V?$allocator@D@2@@_STL@@K@2@@Z ; _STL::_Rb_tree<_STL::basic_string<char,_STL::char_traits<char>,_STL::allocator<char> >,_STL::pair<_STL::basic_string<char,_STL::char_traits<char>,_STL::allocator<char> > const ,unsigned long>,_STL::_Select1st<_STL::pair<_STL::basic_string<char,_STL::char_traits<char>,_STL::allocator<char> > const ,unsigned long> >,_STL::less<_STL::basic_string<char,_STL::char_traits<char>,_STL::allocator<char> > >,_STL::allocator<_STL::pair<_STL::basic_string<char,_STL::char_traits<char>,_STL::allocator<char> > const ,unsigned long> > >::insert_unique
  00016	8b 44 24 04	 mov	 eax, DWORD PTR ___$ReturnUdt$[esp-4]
  0001a	c2 0c 00	 ret	 12			; 0000000cH
?insert@?$map@V?$basic_string@DV?$char_traits@D@_STL@@V?$allocator@D@2@@_STL@@KU?$less@V?$basic_string@DV?$char_traits@D@_STL@@V?$allocator@D@2@@_STL@@@2@V?$allocator@U?$pair@$$CBV?$basic_string@DV?$char_traits@D@_STL@@V?$allocator@D@2@@_STL@@K@_STL@@@2@@_STL@@QAE?AU?$_Rb_tree_iterator@U?$pair@$$CBV?$basic_string@DV?$char_traits@D@_STL@@V?$allocator@D@2@@_STL@@K@_STL@@U?$_Nonconst_traits@U?$pair@$$CBV?$basic_string@DV?$char_traits@D@_STL@@V?$allocator@D@2@@_STL@@K@_STL@@@2@@2@U32@ABU?$pair@$$CBV?$basic_string@DV?$char_traits@D@_STL@@V?$allocator@D@2@@_STL@@K@2@@Z ENDP ; _STL::map<_STL::basic_string<char,_STL::char_traits<char>,_STL::allocator<char> >,unsigned long,_STL::less<_STL::basic_string<char,_STL::char_traits<char>,_STL::allocator<char> > >,_STL::allocator<_STL::pair<_STL::basic_string<char,_STL::char_traits<char>,_STL::allocator<char> > const ,unsigned long> > >::insert
_TEXT	ENDS
PUBLIC	??A?$map@V?$basic_string@DV?$char_traits@D@_STL@@V?$allocator@D@2@@_STL@@KU?$less@V?$basic_string@DV?$char_traits@D@_STL@@V?$allocator@D@2@@_STL@@@2@V?$allocator@U?$pair@$$CBV?$basic_string@DV?$char_traits@D@_STL@@V?$allocator@D@2@@_STL@@K@_STL@@@2@@_STL@@QAEAAKABV?$basic_string@DV?$char_traits@D@_STL@@V?$allocator@D@2@@1@@Z ; _STL::map<_STL::basic_string<char,_STL::char_traits<char>,_STL::allocator<char> >,unsigned long,_STL::less<_STL::basic_string<char,_STL::char_traits<char>,_STL::allocator<char> > >,_STL::allocator<_STL::pair<_STL::basic_string<char,_STL::char_traits<char>,_STL::allocator<char> > const ,unsigned long> > >::operator[]
;	COMDAT xdata$x
; File c:\stlport-4.6.1\stlport\stl\_tree.h
xdata$x	SEGMENT
$T104371 DD	0ffffffffH
	DD	FLAT:$L104253
$T104369 DD	019930520H
	DD	01H
	DD	FLAT:$T104371
	DD	2 DUP(00H)
	DD	2 DUP(00H)
; Function compile flags: /Ogsy
; File c:\stlport-4.6.1\stlport\stl\_map.h
xdata$x	ENDS
;	COMDAT ??A?$map@V?$basic_string@DV?$char_traits@D@_STL@@V?$allocator@D@2@@_STL@@KU?$less@V?$basic_string@DV?$char_traits@D@_STL@@V?$allocator@D@2@@_STL@@@2@V?$allocator@U?$pair@$$CBV?$basic_string@DV?$char_traits@D@_STL@@V?$allocator@D@2@@_STL@@K@_STL@@@2@@_STL@@QAEAAKABV?$basic_string@DV?$char_traits@D@_STL@@V?$allocator@D@2@@1@@Z
_TEXT	SEGMENT
$T104249 = -32						; size = 16
$T104252 = -16						; size = 4
__$EHRec$ = -12						; size = 12
$T104251 = 8						; size = 4
___k$ = 8						; size = 4
??A?$map@V?$basic_string@DV?$char_traits@D@_STL@@V?$allocator@D@2@@_STL@@KU?$less@V?$basic_string@DV?$char_traits@D@_STL@@V?$allocator@D@2@@_STL@@@2@V?$allocator@U?$pair@$$CBV?$basic_string@DV?$char_traits@D@_STL@@V?$allocator@D@2@@_STL@@K@_STL@@@2@@_STL@@QAEAAKABV?$basic_string@DV?$char_traits@D@_STL@@V?$allocator@D@2@@1@@Z PROC NEAR ; _STL::map<_STL::basic_string<char,_STL::char_traits<char>,_STL::allocator<char> >,unsigned long,_STL::less<_STL::basic_string<char,_STL::char_traits<char>,_STL::allocator<char> > >,_STL::allocator<_STL::pair<_STL::basic_string<char,_STL::char_traits<char>,_STL::allocator<char> > const ,unsigned long> > >::operator[], COMDAT
; _this$ = ecx

; 158  :   _Tp& operator[](const key_type& __k) {

  00000	b8 00 00 00 00	 mov	 eax, __ehhandler$??A?$map@V?$basic_string@DV?$char_traits@D@_STL@@V?$allocator@D@2@@_STL@@KU?$less@V?$basic_string@DV?$char_traits@D@_STL@@V?$allocator@D@2@@_STL@@@2@V?$allocator@U?$pair@$$CBV?$basic_string@DV?$char_traits@D@_STL@@V?$allocator@D@2@@_STL@@K@_STL@@@2@@_STL@@QAEAAKABV?$basic_string@DV?$char_traits@D@_STL@@V?$allocator@D@2@@1@@Z
  00005	e8 00 00 00 00	 call	 __EH_prolog
  0000a	83 ec 14	 sub	 esp, 20			; 00000014H
  0000d	56		 push	 esi
  0000e	57		 push	 edi

; 159  :     iterator __i = lower_bound(__k);

  0000f	ff 75 08	 push	 DWORD PTR ___k$[ebp]
  00012	8b f9		 mov	 edi, ecx
  00014	e8 00 00 00 00	 call	 ?_M_lower_bound@?$_Rb_tree@V?$basic_string@DV?$char_traits@D@_STL@@V?$allocator@D@2@@_STL@@U?$pair@$$CBV?$basic_string@DV?$char_traits@D@_STL@@V?$allocator@D@2@@_STL@@K@2@U?$_Select1st@U?$pair@$$CBV?$basic_string@DV?$char_traits@D@_STL@@V?$allocator@D@2@@_STL@@K@_STL@@@2@U?$less@V?$basic_string@DV?$char_traits@D@_STL@@V?$allocator@D@2@@_STL@@@2@V?$allocator@U?$pair@$$CBV?$basic_string@DV?$char_traits@D@_STL@@V?$allocator@D@2@@_STL@@K@_STL@@@2@@_STL@@ABEPAU?$_Rb_tree_node@U?$pair@$$CBV?$basic_string@DV?$char_traits@D@_STL@@V?$allocator@D@2@@_STL@@K@_STL@@@2@ABV?$basic_string@DV?$char_traits@D@_STL@@V?$allocator@D@2@@2@@Z ; _STL::_Rb_tree<_STL::basic_string<char,_STL::char_traits<char>,_STL::allocator<char> >,_STL::pair<_STL::basic_string<char,_STL::char_traits<char>,_STL::allocator<char> > const ,unsigned long>,_STL::_Select1st<_STL::pair<_STL::basic_string<char,_STL::char_traits<char>,_STL::allocator<char> > const ,unsigned long> >,_STL::less<_STL::basic_string<char,_STL::char_traits<char>,_STL::allocator<char> > >,_STL::allocator<_STL::pair<_STL::basic_string<char,_STL::char_traits<char>,_STL::allocator<char> > const ,unsigned long> > >::_M_lower_bound
  00019	8b f0		 mov	 esi, eax

; 160  :     // __i->first is greater than or equivalent to __k.
; 161  :     if (__i == end() || key_comp()(__k, (*__i).first))

  0001b	3b 37		 cmp	 esi, DWORD PTR [edi]
  0001d	74 12		 je	 SHORT $L101287
  0001f	8d 46 10	 lea	 eax, DWORD PTR [esi+16]
  00022	50		 push	 eax
  00023	ff 75 08	 push	 DWORD PTR ___k$[ebp]
  00026	e8 00 00 00 00	 call	 ??$?MDV?$char_traits@D@_STL@@V?$allocator@D@1@@_STL@@YA_NABV?$basic_string@DV?$char_traits@D@_STL@@V?$allocator@D@2@@0@0@Z ; _STL::operator<<char,_STL::char_traits<char>,_STL::allocator<char> >
  0002b	84 c0		 test	 al, al
  0002d	59		 pop	 ecx
  0002e	59		 pop	 ecx
  0002f	74 42		 je	 SHORT $L104360
$L101287:

; 162  :       __i = insert(__i, value_type(__k, _STLP_DEFAULT_CONSTRUCTED(_Tp)));

  00031	ff 75 08	 push	 DWORD PTR ___k$[ebp]
  00034	8d 4d e0	 lea	 ecx, DWORD PTR $T104249[ebp]
  00037	e8 00 00 00 00	 call	 ??0?$basic_string@DV?$char_traits@D@_STL@@V?$allocator@D@2@@_STL@@QAE@ABV01@@Z ; _STL::basic_string<char,_STL::char_traits<char>,_STL::allocator<char> >::basic_string<char,_STL::char_traits<char>,_STL::allocator<char> >
  0003c	83 65 ec 00	 and	 DWORD PTR $T104249[ebp+12], 0
  00040	83 65 fc 00	 and	 DWORD PTR __$EHRec$[ebp+8], 0
  00044	8d 45 e0	 lea	 eax, DWORD PTR $T104249[ebp]
  00047	50		 push	 eax
  00048	51		 push	 ecx
  00049	8b c4		 mov	 eax, esp
  0004b	89 30		 mov	 DWORD PTR [eax], esi
  0004d	8d 45 f0	 lea	 eax, DWORD PTR $T104252[ebp]
  00050	89 65 08	 mov	 DWORD PTR $T104251[ebp], esp
  00053	50		 push	 eax
  00054	8b cf		 mov	 ecx, edi
  00056	e8 00 00 00 00	 call	 ?insert@?$map@V?$basic_string@DV?$char_traits@D@_STL@@V?$allocator@D@2@@_STL@@KU?$less@V?$basic_string@DV?$char_traits@D@_STL@@V?$allocator@D@2@@_STL@@@2@V?$allocator@U?$pair@$$CBV?$basic_string@DV?$char_traits@D@_STL@@V?$allocator@D@2@@_STL@@K@_STL@@@2@@_STL@@QAE?AU?$_Rb_tree_iterator@U?$pair@$$CBV?$basic_string@DV?$char_traits@D@_STL@@V?$allocator@D@2@@_STL@@K@_STL@@U?$_Nonconst_traits@U?$pair@$$CBV?$basic_string@DV?$char_traits@D@_STL@@V?$allocator@D@2@@_STL@@K@_STL@@@2@@2@U32@ABU?$pair@$$CBV?$basic_string@DV?$char_traits@D@_STL@@V?$allocator@D@2@@_STL@@K@2@@Z ; _STL::map<_STL::basic_string<char,_STL::char_traits<char>,_STL::allocator<char> >,unsigned long,_STL::less<_STL::basic_string<char,_STL::char_traits<char>,_STL::allocator<char> > >,_STL::allocator<_STL::pair<_STL::basic_string<char,_STL::char_traits<char>,_STL::allocator<char> > const ,unsigned long> > >::insert
  0005b	8b 30		 mov	 esi, DWORD PTR [eax]
  0005d	8b 45 e8	 mov	 eax, DWORD PTR $T104249[ebp+8]
  00060	2b 45 e0	 sub	 eax, DWORD PTR $T104249[ebp]
  00063	83 4d fc ff	 or	 DWORD PTR __$EHRec$[ebp+8], -1
  00067	50		 push	 eax
  00068	ff 75 e0	 push	 DWORD PTR $T104249[ebp]
  0006b	8d 4d e8	 lea	 ecx, DWORD PTR $T104249[ebp+8]
  0006e	e8 00 00 00 00	 call	 ?deallocate@?$allocator@D@_STL@@QAEXPADI@Z ; _STL::allocator<char>::deallocate
$L104360:

; 163  :     return (*__i).second;
; 164  :   }

  00073	8b 4d f4	 mov	 ecx, DWORD PTR __$EHRec$[ebp]
  00076	5f		 pop	 edi
  00077	8d 46 1c	 lea	 eax, DWORD PTR [esi+28]
  0007a	64 89 0d 00 00
	00 00		 mov	 DWORD PTR fs:__except_list, ecx
  00081	5e		 pop	 esi
  00082	c9		 leave
  00083	c2 04 00	 ret	 4
_TEXT	ENDS
;	COMDAT text$x
text$x	SEGMENT
$L104253:
  00000	8d 4d e0	 lea	 ecx, DWORD PTR $T104249[ebp]
  00003	e9 00 00 00 00	 jmp	 ??1?$pair@$$CBV?$basic_string@DV?$char_traits@D@_STL@@V?$allocator@D@2@@_STL@@K@_STL@@QAE@XZ
__ehhandler$??A?$map@V?$basic_string@DV?$char_traits@D@_STL@@V?$allocator@D@2@@_STL@@KU?$less@V?$basic_string@DV?$char_traits@D@_STL@@V?$allocator@D@2@@_STL@@@2@V?$allocator@U?$pair@$$CBV?$basic_string@DV?$char_traits@D@_STL@@V?$allocator@D@2@@_STL@@K@_STL@@@2@@_STL@@QAEAAKABV?$basic_string@DV?$char_traits@D@_STL@@V?$allocator@D@2@@1@@Z:
  00008	b8 00 00 00 00	 mov	 eax, OFFSET FLAT:$T104369
  0000d	e9 00 00 00 00	 jmp	 ___CxxFrameHandler
text$x	ENDS
??A?$map@V?$basic_string@DV?$char_traits@D@_STL@@V?$allocator@D@2@@_STL@@KU?$less@V?$basic_string@DV?$char_traits@D@_STL@@V?$allocator@D@2@@_STL@@@2@V?$allocator@U?$pair@$$CBV?$basic_string@DV?$char_traits@D@_STL@@V?$allocator@D@2@@_STL@@K@_STL@@@2@@_STL@@QAEAAKABV?$basic_string@DV?$char_traits@D@_STL@@V?$allocator@D@2@@1@@Z ENDP ; _STL::map<_STL::basic_string<char,_STL::char_traits<char>,_STL::allocator<char> >,unsigned long,_STL::less<_STL::basic_string<char,_STL::char_traits<char>,_STL::allocator<char> > >,_STL::allocator<_STL::pair<_STL::basic_string<char,_STL::char_traits<char>,_STL::allocator<char> > const ,unsigned long> > >::operator[]
PUBLIC	?AddCreature@MJusticeAttackManager@@QAEXPBD@Z	; MJusticeAttackManager::AddCreature
EXTRN	?g_CurrentTime@@3KA:DWORD			; g_CurrentTime
;	COMDAT xdata$x
; File c:\stlport-4.6.1\stlport\stl\_alloc.h
xdata$x	SEGMENT
$T104424 DD	0ffffffffH
	DD	FLAT:$L104377
$T104422 DD	019930520H
	DD	01H
	DD	FLAT:$T104424
	DD	2 DUP(00H)
	DD	2 DUP(00H)
; Function compile flags: /Ogsy
; File c:\darkeden\designed_common\project\client\mjusticeattackmanager.cpp
xdata$x	ENDS
;	COMDAT ?AddCreature@MJusticeAttackManager@@QAEXPBD@Z
_TEXT	SEGMENT
_name$ = -24						; size = 12
__$EHRec$ = -12						; size = 12
_pName$ = 8						; size = 4
$T104376 = 11						; size = 1
?AddCreature@MJusticeAttackManager@@QAEXPBD@Z PROC NEAR	; MJusticeAttackManager::AddCreature, COMDAT
; _this$ = ecx

; 47   : {

  00000	b8 00 00 00 00	 mov	 eax, __ehhandler$?AddCreature@MJusticeAttackManager@@QAEXPBD@Z
  00005	e8 00 00 00 00	 call	 __EH_prolog
  0000a	83 ec 0c	 sub	 esp, 12			; 0000000cH
  0000d	56		 push	 esi

; 48   : 	std::string name = pName;

  0000e	8d 45 0b	 lea	 eax, DWORD PTR $T104376[ebp]
  00011	50		 push	 eax
  00012	ff 75 08	 push	 DWORD PTR _pName$[ebp]
  00015	8b f1		 mov	 esi, ecx
  00017	8d 4d e8	 lea	 ecx, DWORD PTR _name$[ebp]
  0001a	e8 00 00 00 00	 call	 ??0?$basic_string@DV?$char_traits@D@_STL@@V?$allocator@D@2@@_STL@@QAE@PBDABV?$allocator@D@1@@Z ; _STL::basic_string<char,_STL::char_traits<char>,_STL::allocator<char> >::basic_string<char,_STL::char_traits<char>,_STL::allocator<char> >
  0001f	83 65 fc 00	 and	 DWORD PTR __$EHRec$[ebp+8], 0

; 49   : 
; 50   : 	//       .
; 51   : 	//   .. .;
; 52   : 	m_Creatures[name] = g_CurrentTime;

  00023	8d 45 e8	 lea	 eax, DWORD PTR _name$[ebp]
  00026	50		 push	 eax
  00027	8b ce		 mov	 ecx, esi
  00029	e8 00 00 00 00	 call	 ??A?$map@V?$basic_string@DV?$char_traits@D@_STL@@V?$allocator@D@2@@_STL@@KU?$less@V?$basic_string@DV?$char_traits@D@_STL@@V?$allocator@D@2@@_STL@@@2@V?$allocator@U?$pair@$$CBV?$basic_string@DV?$char_traits@D@_STL@@V?$allocator@D@2@@_STL@@K@_STL@@@2@@_STL@@QAEAAKABV?$basic_string@DV?$char_traits@D@_STL@@V?$allocator@D@2@@1@@Z ; _STL::map<_STL::basic_string<char,_STL::char_traits<char>,_STL::allocator<char> >,unsigned long,_STL::less<_STL::basic_string<char,_STL::char_traits<char>,_STL::allocator<char> > >,_STL::allocator<_STL::pair<_STL::basic_string<char,_STL::char_traits<char>,_STL::allocator<char> > const ,unsigned long> > >::operator[]
  0002e	8b 0d 00 00 00
	00		 mov	 ecx, DWORD PTR ?g_CurrentTime@@3KA ; g_CurrentTime

; 53   : }

  00034	83 4d fc ff	 or	 DWORD PTR __$EHRec$[ebp+8], -1
  00038	89 08		 mov	 DWORD PTR [eax], ecx
  0003a	8b 45 f0	 mov	 eax, DWORD PTR _name$[ebp+8]
  0003d	2b 45 e8	 sub	 eax, DWORD PTR _name$[ebp]
  00040	8d 4d f0	 lea	 ecx, DWORD PTR _name$[ebp+8]
  00043	50		 push	 eax
  00044	ff 75 e8	 push	 DWORD PTR _name$[ebp]
  00047	e8 00 00 00 00	 call	 ?deallocate@?$allocator@D@_STL@@QAEXPADI@Z ; _STL::allocator<char>::deallocate
  0004c	8b 4d f4	 mov	 ecx, DWORD PTR __$EHRec$[ebp]
  0004f	5e		 pop	 esi
  00050	64 89 0d 00 00
	00 00		 mov	 DWORD PTR fs:__except_list, ecx
  00057	c9		 leave
  00058	c2 04 00	 ret	 4
_TEXT	ENDS
;	COMDAT text$x
text$x	SEGMENT
$L104377:
  00000	8d 4d e8	 lea	 ecx, DWORD PTR _name$[ebp]
  00003	e9 00 00 00 00	 jmp	 ??1?$basic_string@DV?$char_traits@D@_STL@@V?$allocator@D@2@@_STL@@QAE@XZ ; _STL::basic_string<char,_STL::char_traits<char>,_STL::allocator<char> >::~basic_string<char,_STL::char_traits<char>,_STL::allocator<char> >
__ehhandler$?AddCreature@MJusticeAttackManager@@QAEXPBD@Z:
  00008	b8 00 00 00 00	 mov	 eax, OFFSET FLAT:$T104422
  0000d	e9 00 00 00 00	 jmp	 ___CxxFrameHandler
text$x	ENDS
?AddCreature@MJusticeAttackManager@@QAEXPBD@Z ENDP	; MJusticeAttackManager::AddCreature
END
