; Listing generated by Microsoft (R) Optimizing Compiler Version 13.10.3077 

	TITLE	\darkeden\Designed_Common\Project\Client\Packet\NPCInfo.cpp
	.386P
include listing.inc
if @Version gt 510
.model FLAT
else
_TEXT	SEGMENT PARA USE32 PUBLIC 'CODE'
_TEXT	ENDS
_DATA	SEGMENT DWORD USE32 PUBLIC 'DATA'
_DATA	ENDS
CONST	SEGMENT DWORD USE32 PUBLIC 'CONST'
CONST	ENDS
_BSS	SEGMENT DWORD USE32 PUBLIC 'BSS'
_BSS	ENDS
$$SYMBOLS	SEGMENT BYTE USE32 'DEBSYM'
$$SYMBOLS	ENDS
$$TYPES	SEGMENT BYTE USE32 'DEBTYP'
$$TYPES	ENDS
_TLS	SEGMENT DWORD USE32 PUBLIC 'TLS'
_TLS	ENDS
;	COMDAT ??_C@_0CA@NDINADEE@SocketOutputStream?$CIm_BufferLen?3?$AA@
CONST	SEGMENT DWORD USE32 PUBLIC 'CONST'
CONST	ENDS
;	COMDAT ??_C@_08LIHEOLAN@?0m_Head?3?$AA@
CONST	SEGMENT DWORD USE32 PUBLIC 'CONST'
CONST	ENDS
;	COMDAT ??_C@_08PCEHPGHK@?0m_Tail?3?$AA@
CONST	SEGMENT DWORD USE32 PUBLIC 'CONST'
CONST	ENDS
;	COMDAT ??_C@_01PKGAHCOL@?$CJ?$AA@
CONST	SEGMENT DWORD USE32 PUBLIC 'CONST'
CONST	ENDS
;	COMDAT ??_C@_0BN@ODLNCKCA@Data?2?2Info?2?2ClientConfig?4inf?$AA@
CONST	SEGMENT DWORD USE32 PUBLIC 'CONST'
CONST	ENDS
;	COMDAT ??_C@_0BM@DFPLPGPC@Data?2?2Info?2?2GuildMapper?4inf?$AA@
CONST	SEGMENT DWORD USE32 PUBLIC 'CONST'
CONST	ENDS
;	COMDAT ??_C@_0BN@LHODHNBK@Data?2?2Info?2?2GuildVersion?4inf?$AA@
CONST	SEGMENT DWORD USE32 PUBLIC 'CONST'
CONST	ENDS
;	COMDAT ??_C@_0BH@DDPLNCOL@Data?2?2Info?2?2Player?4inf?$AA@
CONST	SEGMENT DWORD USE32 PUBLIC 'CONST'
CONST	ENDS
;	COMDAT ??_C@_0BL@ILLNAPHB@Data?2?2Info?2?2Resolution?4inf?$AA@
CONST	SEGMENT DWORD USE32 PUBLIC 'CONST'
CONST	ENDS
;	COMDAT ??_C@_0CA@HEIGFDLG@Data?2?2Info?2?2SelectedChannel?4inf?$AA@
CONST	SEGMENT DWORD USE32 PUBLIC 'CONST'
CONST	ENDS
;	COMDAT ??_C@_0BB@BKKGCCID@?$DNMAP_2000_05_10?$DN?$AA@
CONST	SEGMENT DWORD USE32 PUBLIC 'CONST'
CONST	ENDS
;	COMDAT ??_C@_00CNPNBAHC@?$AA@
CONST	SEGMENT DWORD USE32 PUBLIC 'CONST'
CONST	ENDS
;	COMDAT ??_C@_0N@GOPDCEEB@basic_string?$AA@
CONST	SEGMENT DWORD USE32 PUBLIC 'CONST'
CONST	ENDS
rdata$r	SEGMENT DWORD USE32 PUBLIC 'CONST'
rdata$r	ENDS
text$yc	SEGMENT PARA USE32 PUBLIC 'CODE'
text$yc	ENDS
CRT$XCA	SEGMENT DWORD USE32 PUBLIC 'DATA'
CRT$XCA	ENDS
CRT$XCU	SEGMENT DWORD USE32 PUBLIC 'DATA'
CRT$XCU	ENDS
CRT$XCL	SEGMENT DWORD USE32 PUBLIC 'DATA'
CRT$XCL	ENDS
CRT$XCC	SEGMENT DWORD USE32 PUBLIC 'DATA'
CRT$XCC	ENDS
CRT$XCZ	SEGMENT DWORD USE32 PUBLIC 'DATA'
CRT$XCZ	ENDS
text$yd	SEGMENT PARA USE32 PUBLIC 'CODE'
text$yd	ENDS
;	COMDAT ?getHost@SocketImpl@@QBE?AV?$basic_string@DV?$char_traits@D@_STL@@V?$allocator@D@2@@_STL@@XZ
_TEXT	SEGMENT PARA USE32 PUBLIC 'CODE'
_TEXT	ENDS
;	COMDAT ?getPort@SocketImpl@@QBEIXZ
_TEXT	SEGMENT PARA USE32 PUBLIC 'CODE'
_TEXT	ENDS
;	COMDAT ?isValid@SocketImpl@@QBE_NXZ
_TEXT	SEGMENT PARA USE32 PUBLIC 'CODE'
_TEXT	ENDS
;	COMDAT ?getSOCKET@SocketImpl@@QBEIXZ
_TEXT	SEGMENT PARA USE32 PUBLIC 'CODE'
_TEXT	ENDS
;	COMDAT ?read@SocketInputStream@@QAEIAAE@Z
_TEXT	SEGMENT PARA USE32 PUBLIC 'CODE'
_TEXT	ENDS
;	COMDAT ?read@SocketInputStream@@QAEIAAG@Z
_TEXT	SEGMENT PARA USE32 PUBLIC 'CODE'
_TEXT	ENDS
;	COMDAT ?write@SocketOutputStream@@QAEIABV?$basic_string@DV?$char_traits@D@_STL@@V?$allocator@D@2@@_STL@@@Z
_TEXT	SEGMENT PARA USE32 PUBLIC 'CODE'
_TEXT	ENDS
;	COMDAT ?write@SocketOutputStream@@QAEIE@Z
_TEXT	SEGMENT PARA USE32 PUBLIC 'CODE'
_TEXT	ENDS
;	COMDAT ?write@SocketOutputStream@@QAEIG@Z
_TEXT	SEGMENT PARA USE32 PUBLIC 'CODE'
_TEXT	ENDS
;	COMDAT ?start@CNFS@@QAE_NPADH@Z
_TEXT	SEGMENT PARA USE32 PUBLIC 'CODE'
_TEXT	ENDS
;	COMDAT ?end@CNFS@@QAEXXZ
_TEXT	SEGMENT PARA USE32 PUBLIC 'CODE'
_TEXT	ENDS
;	COMDAT ?Init@VirtualFileHeader@@QAEXXZ
_TEXT	SEGMENT PARA USE32 PUBLIC 'CODE'
_TEXT	ENDS
;	COMDAT ??1IFileIO@@UAE@XZ
_TEXT	SEGMENT PARA USE32 PUBLIC 'CODE'
_TEXT	ENDS
;	COMDAT ??_GIFileIO@@UAEPAXI@Z
_TEXT	SEGMENT PARA USE32 PUBLIC 'CODE'
_TEXT	ENDS
;	COMDAT ??0iovfs_base@@QAE@XZ
_TEXT	SEGMENT PARA USE32 PUBLIC 'CODE'
_TEXT	ENDS
;	COMDAT ??_Giovfs_base@@UAEPAXI@Z
_TEXT	SEGMENT PARA USE32 PUBLIC 'CODE'
_TEXT	ENDS
;	COMDAT ??1iovfs_base@@UAE@XZ
_TEXT	SEGMENT PARA USE32 PUBLIC 'CODE'
_TEXT	ENDS
;	COMDAT ?Init@iovfs_base@@QAEXXZ
_TEXT	SEGMENT PARA USE32 PUBLIC 'CODE'
_TEXT	ENDS
;	COMDAT ??_Givfstream@@UAEPAXI@Z
_TEXT	SEGMENT PARA USE32 PUBLIC 'CODE'
_TEXT	ENDS
;	COMDAT ??1ivfstream@@UAE@XZ
_TEXT	SEGMENT PARA USE32 PUBLIC 'CODE'
_TEXT	ENDS
;	COMDAT ?open@ivfstream@@UAEXPBDH@Z
_TEXT	SEGMENT PARA USE32 PUBLIC 'CODE'
_TEXT	ENDS
;	COMDAT ??_Govfstream@@UAEPAXI@Z
_TEXT	SEGMENT PARA USE32 PUBLIC 'CODE'
_TEXT	ENDS
;	COMDAT ??1ovfstream@@UAE@XZ
_TEXT	SEGMENT PARA USE32 PUBLIC 'CODE'
_TEXT	ENDS
;	COMDAT ?open@ovfstream@@UAEXPBDH@Z
_TEXT	SEGMENT PARA USE32 PUBLIC 'CODE'
_TEXT	ENDS
;	COMDAT ?SetBlockAll@MSector@@QAEXXZ
_TEXT	SEGMENT PARA USE32 PUBLIC 'CODE'
_TEXT	ENDS
;	COMDAT ?UnSetBlockAll@MSector@@QAEXXZ
_TEXT	SEGMENT PARA USE32 PUBLIC 'CODE'
_TEXT	ENDS
;	COMDAT ?SetBlockUnderground@MSector@@QAEXXZ
_TEXT	SEGMENT PARA USE32 PUBLIC 'CODE'
_TEXT	ENDS
;	COMDAT ?UnSetBlockUnderground@MSector@@QAEXXZ
_TEXT	SEGMENT PARA USE32 PUBLIC 'CODE'
_TEXT	ENDS
;	COMDAT ?SetBlockGround@MSector@@QAEXXZ
_TEXT	SEGMENT PARA USE32 PUBLIC 'CODE'
_TEXT	ENDS
;	COMDAT ?UnSetBlockGround@MSector@@QAEXXZ
_TEXT	SEGMENT PARA USE32 PUBLIC 'CODE'
_TEXT	ENDS
;	COMDAT ?SetBlockFlying@MSector@@QAEXXZ
_TEXT	SEGMENT PARA USE32 PUBLIC 'CODE'
_TEXT	ENDS
;	COMDAT ?UnSetBlockFlying@MSector@@QAEXXZ
_TEXT	SEGMENT PARA USE32 PUBLIC 'CODE'
_TEXT	ENDS
;	COMDAT ?SetVisitedFlag@MSector@@QAEXXZ
_TEXT	SEGMENT PARA USE32 PUBLIC 'CODE'
_TEXT	ENDS
;	COMDAT ?UnSetVisitedFlag@MSector@@QAEXXZ
_TEXT	SEGMENT PARA USE32 PUBLIC 'CODE'
_TEXT	ENDS
;	COMDAT ?IsVisitedFlag@MSector@@QBE?B_NXZ
_TEXT	SEGMENT PARA USE32 PUBLIC 'CODE'
_TEXT	ENDS
;	COMDAT ??0NPCInfo@@QAE@XZ
_TEXT	SEGMENT PARA USE32 PUBLIC 'CODE'
_TEXT	ENDS
;	COMDAT ??1NPCInfo@@QAE@XZ
_TEXT	SEGMENT PARA USE32 PUBLIC 'CODE'
_TEXT	ENDS
;	COMDAT ?read@NPCInfo@@QAEXAAVSocketInputStream@@@Z
_TEXT	SEGMENT PARA USE32 PUBLIC 'CODE'
_TEXT	ENDS
;	COMDAT ?write@NPCInfo@@QBEXAAVSocketOutputStream@@@Z
_TEXT	SEGMENT PARA USE32 PUBLIC 'CODE'
_TEXT	ENDS
;	COMDAT ?eq@?$__char_traits_base@DH@_STL@@SA_NABD0@Z
_TEXT	SEGMENT PARA USE32 PUBLIC 'CODE'
_TEXT	ENDS
;	COMDAT ?not_eof@?$__char_traits_base@DH@_STL@@SAHABH@Z
_TEXT	SEGMENT PARA USE32 PUBLIC 'CODE'
_TEXT	ENDS
;	COMDAT ?eq_int_type@?$__char_traits_base@DH@_STL@@SA_NABH0@Z
_TEXT	SEGMENT PARA USE32 PUBLIC 'CODE'
_TEXT	ENDS
;	COMDAT ?get_allocator@?$basic_string@DV?$char_traits@D@_STL@@V?$allocator@D@2@@_STL@@QBE?AV?$allocator@D@2@XZ
_TEXT	SEGMENT PARA USE32 PUBLIC 'CODE'
_TEXT	ENDS
;	COMDAT ??4?$basic_string@DV?$char_traits@D@_STL@@V?$allocator@D@2@@_STL@@QAEAAV01@PBD@Z
_TEXT	SEGMENT PARA USE32 PUBLIC 'CODE'
_TEXT	ENDS
;	COMDAT ?_M_terminate_string@?$basic_string@DV?$char_traits@D@_STL@@V?$allocator@D@2@@_STL@@AAEXXZ
_TEXT	SEGMENT PARA USE32 PUBLIC 'CODE'
_TEXT	ENDS
;	COMDAT ?size@?$basic_string@DV?$char_traits@D@_STL@@V?$allocator@D@2@@_STL@@QBEIXZ
_TEXT	SEGMENT PARA USE32 PUBLIC 'CODE'
_TEXT	ENDS
;	COMDAT ?c_str@?$basic_string@DV?$char_traits@D@_STL@@V?$allocator@D@2@@_STL@@QBEPBDXZ
_TEXT	SEGMENT PARA USE32 PUBLIC 'CODE'
_TEXT	ENDS
;	COMDAT ??0?$_String_base@DV?$allocator@D@_STL@@@_STL@@QAE@ABV?$allocator@D@1@@Z
_TEXT	SEGMENT PARA USE32 PUBLIC 'CODE'
_TEXT	ENDS
;	COMDAT ?allocate@?$allocator@D@_STL@@QAEPADIPBX@Z
_TEXT	SEGMENT PARA USE32 PUBLIC 'CODE'
_TEXT	ENDS
;	COMDAT ??0?$fpos@H@_STL@@QAE@J@Z
_TEXT	SEGMENT PARA USE32 PUBLIC 'CODE'
_TEXT	ENDS
;	COMDAT ??B?$fpos@H@_STL@@QBEJXZ
_TEXT	SEGMENT PARA USE32 PUBLIC 'CODE'
_TEXT	ENDS
;	COMDAT ?state@?$fpos@H@_STL@@QBEHXZ
_TEXT	SEGMENT PARA USE32 PUBLIC 'CODE'
_TEXT	ENDS
;	COMDAT ?is_open@?$basic_filebuf@DV?$char_traits@D@_STL@@@_STL@@QBE_NXZ
_TEXT	SEGMENT PARA USE32 PUBLIC 'CODE'
_TEXT	ENDS
;	COMDAT ?_M_seek_return@?$basic_filebuf@DV?$char_traits@D@_STL@@@_STL@@AAE?AV?$fpos@H@2@JH@Z
_TEXT	SEGMENT PARA USE32 PUBLIC 'CODE'
_TEXT	ENDS
;	COMDAT ??0?$_Filebuf_Tmp_Buf@D@_STL@@QAE@H@Z
_TEXT	SEGMENT PARA USE32 PUBLIC 'CODE'
_TEXT	ENDS
;	COMDAT ??1?$_Filebuf_Tmp_Buf@D@_STL@@QAE@XZ
_TEXT	SEGMENT PARA USE32 PUBLIC 'CODE'
_TEXT	ENDS
;	COMDAT ?end@?$map@EPAVMObject@@U?$less@E@_STL@@V?$allocator@U?$pair@$$CBEPAVMObject@@@_STL@@@3@@_STL@@QAE?AU?$_Rb_tree_iterator@U?$pair@$$CBEPAVMObject@@@_STL@@U?$_Nonconst_traits@U?$pair@$$CBEPAVMObject@@@_STL@@@2@@2@XZ
_TEXT	SEGMENT PARA USE32 PUBLIC 'CODE'
_TEXT	ENDS
;	COMDAT ?end@?$map@EPAVMObject@@U?$less@E@_STL@@V?$allocator@U?$pair@$$CBEPAVMObject@@@_STL@@@3@@_STL@@QBE?AU?$_Rb_tree_iterator@U?$pair@$$CBEPAVMObject@@@_STL@@U?$_Const_traits@U?$pair@$$CBEPAVMObject@@@_STL@@@2@@2@XZ
_TEXT	SEGMENT PARA USE32 PUBLIC 'CODE'
_TEXT	ENDS
;	COMDAT ?empty@?$map@EPAVMObject@@U?$less@E@_STL@@V?$allocator@U?$pair@$$CBEPAVMObject@@@_STL@@@3@@_STL@@QBE_NXZ
_TEXT	SEGMENT PARA USE32 PUBLIC 'CODE'
_TEXT	ENDS
;	COMDAT ?begin@?$list@PAVMEffect@@V?$allocator@PAVMEffect@@@_STL@@@_STL@@QBE?AU?$_List_iterator@PAVMEffect@@U?$_Const_traits@PAVMEffect@@@_STL@@@2@XZ
_TEXT	SEGMENT PARA USE32 PUBLIC 'CODE'
_TEXT	ENDS
;	COMDAT ?empty@?$list@PAVMEffect@@V?$allocator@PAVMEffect@@@_STL@@@_STL@@QBE_NXZ
_TEXT	SEGMENT PARA USE32 PUBLIC 'CODE'
_TEXT	ENDS
;	COMDAT ?size@?$list@PAVMEffect@@V?$allocator@PAVMEffect@@@_STL@@@_STL@@QBEIXZ
_TEXT	SEGMENT PARA USE32 PUBLIC 'CODE'
_TEXT	ENDS
;	COMDAT ?begin@?$list@VPORTAL_INFO@@V?$allocator@VPORTAL_INFO@@@_STL@@@_STL@@QBE?AU?$_List_iterator@VPORTAL_INFO@@U?$_Const_traits@VPORTAL_INFO@@@_STL@@@2@XZ
_TEXT	SEGMENT PARA USE32 PUBLIC 'CODE'
_TEXT	ENDS
;	COMDAT ?size@?$list@VPORTAL_INFO@@V?$allocator@VPORTAL_INFO@@@_STL@@@_STL@@QBEIXZ
_TEXT	SEGMENT PARA USE32 PUBLIC 'CODE'
_TEXT	ENDS
;	COMDAT ?begin@?$list@VSECTORSOUND_INFO@@V?$allocator@VSECTORSOUND_INFO@@@_STL@@@_STL@@QBE?AU?$_List_iterator@VSECTORSOUND_INFO@@U?$_Const_traits@VSECTORSOUND_INFO@@@_STL@@@2@XZ
_TEXT	SEGMENT PARA USE32 PUBLIC 'CODE'
_TEXT	ENDS
;	COMDAT ?size@?$list@VSECTORSOUND_INFO@@V?$allocator@VSECTORSOUND_INFO@@@_STL@@@_STL@@QBEIXZ
_TEXT	SEGMENT PARA USE32 PUBLIC 'CODE'
_TEXT	ENDS
;	COMDAT ?begin@?$map@IPAVMCreature@@U?$less@I@_STL@@V?$allocator@U?$pair@$$CBIPAVMCreature@@@_STL@@@3@@_STL@@QAE?AU?$_Rb_tree_iterator@U?$pair@$$CBIPAVMCreature@@@_STL@@U?$_Nonconst_traits@U?$pair@$$CBIPAVMCreature@@@_STL@@@2@@2@XZ
_TEXT	SEGMENT PARA USE32 PUBLIC 'CODE'
_TEXT	ENDS
;	COMDAT ?size@?$map@IPAVMCreature@@U?$less@I@_STL@@V?$allocator@U?$pair@$$CBIPAVMCreature@@@_STL@@@3@@_STL@@QBEIXZ
_TEXT	SEGMENT PARA USE32 PUBLIC 'CODE'
_TEXT	ENDS
;	COMDAT ?begin@?$map@IPAVMItem@@U?$less@I@_STL@@V?$allocator@U?$pair@$$CBIPAVMItem@@@_STL@@@3@@_STL@@QAE?AU?$_Rb_tree_iterator@U?$pair@$$CBIPAVMItem@@@_STL@@U?$_Nonconst_traits@U?$pair@$$CBIPAVMItem@@@_STL@@@2@@2@XZ
_TEXT	SEGMENT PARA USE32 PUBLIC 'CODE'
_TEXT	ENDS
;	COMDAT ?size@?$map@IPAVMItem@@U?$less@I@_STL@@V?$allocator@U?$pair@$$CBIPAVMItem@@@_STL@@@3@@_STL@@QBEIXZ
_TEXT	SEGMENT PARA USE32 PUBLIC 'CODE'
_TEXT	ENDS
;	COMDAT ?begin@?$map@IPAVMEffect@@U?$less@I@_STL@@V?$allocator@U?$pair@$$CBIPAVMEffect@@@_STL@@@3@@_STL@@QAE?AU?$_Rb_tree_iterator@U?$pair@$$CBIPAVMEffect@@@_STL@@U?$_Nonconst_traits@U?$pair@$$CBIPAVMEffect@@@_STL@@@2@@2@XZ
_TEXT	SEGMENT PARA USE32 PUBLIC 'CODE'
_TEXT	ENDS
;	COMDAT ?end@?$map@IPAVMEffect@@U?$less@I@_STL@@V?$allocator@U?$pair@$$CBIPAVMEffect@@@_STL@@@3@@_STL@@QAE?AU?$_Rb_tree_iterator@U?$pair@$$CBIPAVMEffect@@@_STL@@U?$_Nonconst_traits@U?$pair@$$CBIPAVMEffect@@@_STL@@@2@@2@XZ
_TEXT	SEGMENT PARA USE32 PUBLIC 'CODE'
_TEXT	ENDS
;	COMDAT ?size@?$map@IPAVMEffect@@U?$less@I@_STL@@V?$allocator@U?$pair@$$CBIPAVMEffect@@@_STL@@@3@@_STL@@QBEIXZ
_TEXT	SEGMENT PARA USE32 PUBLIC 'CODE'
_TEXT	ENDS
;	COMDAT ??0?$_Rb_tree_iterator@U?$pair@$$CBIPAVMCreature@@@_STL@@U?$_Const_traits@U?$pair@$$CBIPAVMCreature@@@_STL@@@2@@_STL@@QAE@ABU?$_Rb_tree_iterator@U?$pair@$$CBIPAVMCreature@@@_STL@@U?$_Nonconst_traits@U?$pair@$$CBIPAVMCreature@@@_STL@@@2@@1@@Z
_TEXT	SEGMENT PARA USE32 PUBLIC 'CODE'
_TEXT	ENDS
;	COMDAT ??0?$_Rb_tree_iterator@U?$pair@$$CBIPAVMItem@@@_STL@@U?$_Const_traits@U?$pair@$$CBIPAVMItem@@@_STL@@@2@@_STL@@QAE@ABU?$_Rb_tree_iterator@U?$pair@$$CBIPAVMItem@@@_STL@@U?$_Nonconst_traits@U?$pair@$$CBIPAVMItem@@@_STL@@@2@@1@@Z
_TEXT	SEGMENT PARA USE32 PUBLIC 'CODE'
_TEXT	ENDS
;	COMDAT ??0?$_Rb_tree_iterator@U?$pair@$$CBIPAVMEffect@@@_STL@@U?$_Const_traits@U?$pair@$$CBIPAVMEffect@@@_STL@@@2@@_STL@@QAE@ABU?$_Rb_tree_iterator@U?$pair@$$CBIPAVMEffect@@@_STL@@U?$_Nonconst_traits@U?$pair@$$CBIPAVMEffect@@@_STL@@@2@@1@@Z
_TEXT	SEGMENT PARA USE32 PUBLIC 'CODE'
_TEXT	ENDS
;	COMDAT ?_M_terminate_string_aux@?$basic_string@DV?$char_traits@D@_STL@@V?$allocator@D@2@@_STL@@AAEXABU__true_type@2@@Z
_TEXT	SEGMENT PARA USE32 PUBLIC 'CODE'
_TEXT	ENDS
;	COMDAT ?assign@?$basic_string@DV?$char_traits@D@_STL@@V?$allocator@D@2@@_STL@@QAEAAV12@PBD0@Z
_TEXT	SEGMENT PARA USE32 PUBLIC 'CODE'
_TEXT	ENDS
;	COMDAT ??0?$allocator@D@_STL@@QAE@ABV01@@Z
_TEXT	SEGMENT PARA USE32 PUBLIC 'CODE'
_TEXT	ENDS
;	COMDAT ??0?$_STLP_alloc_proxy@PADDV?$allocator@D@_STL@@@_STL@@QAE@ABV?$allocator@D@1@PAD@Z
_TEXT	SEGMENT PARA USE32 PUBLIC 'CODE'
_TEXT	ENDS
;	COMDAT ?state@?$fpos@H@_STL@@QAEXH@Z
_TEXT	SEGMENT PARA USE32 PUBLIC 'CODE'
_TEXT	ENDS
;	COMDAT ?end@?$_Rb_tree@EU?$pair@$$CBEPAVMObject@@@_STL@@U?$_Select1st@U?$pair@$$CBEPAVMObject@@@_STL@@@2@U?$less@E@2@V?$allocator@U?$pair@$$CBEPAVMObject@@@_STL@@@2@@_STL@@QAE?AU?$_Rb_tree_iterator@U?$pair@$$CBEPAVMObject@@@_STL@@U?$_Nonconst_traits@U?$pair@$$CBEPAVMObject@@@_STL@@@2@@2@XZ
_TEXT	SEGMENT PARA USE32 PUBLIC 'CODE'
_TEXT	ENDS
;	COMDAT ?end@?$_Rb_tree@EU?$pair@$$CBEPAVMObject@@@_STL@@U?$_Select1st@U?$pair@$$CBEPAVMObject@@@_STL@@@2@U?$less@E@2@V?$allocator@U?$pair@$$CBEPAVMObject@@@_STL@@@2@@_STL@@QBE?AU?$_Rb_tree_iterator@U?$pair@$$CBEPAVMObject@@@_STL@@U?$_Const_traits@U?$pair@$$CBEPAVMObject@@@_STL@@@2@@2@XZ
_TEXT	SEGMENT PARA USE32 PUBLIC 'CODE'
_TEXT	ENDS
;	COMDAT ?empty@?$_Rb_tree@EU?$pair@$$CBEPAVMObject@@@_STL@@U?$_Select1st@U?$pair@$$CBEPAVMObject@@@_STL@@@2@U?$less@E@2@V?$allocator@U?$pair@$$CBEPAVMObject@@@_STL@@@2@@_STL@@QBE_NXZ
_TEXT	SEGMENT PARA USE32 PUBLIC 'CODE'
_TEXT	ENDS
;	COMDAT ?end@?$list@PAVMEffect@@V?$allocator@PAVMEffect@@@_STL@@@_STL@@QBE?AU?$_List_iterator@PAVMEffect@@U?$_Const_traits@PAVMEffect@@@_STL@@@2@XZ
_TEXT	SEGMENT PARA USE32 PUBLIC 'CODE'
_TEXT	ENDS
;	COMDAT ?end@?$list@VPORTAL_INFO@@V?$allocator@VPORTAL_INFO@@@_STL@@@_STL@@QBE?AU?$_List_iterator@VPORTAL_INFO@@U?$_Const_traits@VPORTAL_INFO@@@_STL@@@2@XZ
_TEXT	SEGMENT PARA USE32 PUBLIC 'CODE'
_TEXT	ENDS
;	COMDAT ?end@?$list@VSECTORSOUND_INFO@@V?$allocator@VSECTORSOUND_INFO@@@_STL@@@_STL@@QBE?AU?$_List_iterator@VSECTORSOUND_INFO@@U?$_Const_traits@VSECTORSOUND_INFO@@@_STL@@@2@XZ
_TEXT	SEGMENT PARA USE32 PUBLIC 'CODE'
_TEXT	ENDS
;	COMDAT ??0?$_List_iterator@PAVMEffect@@U?$_Const_traits@PAVMEffect@@@_STL@@@_STL@@QAE@PAU?$_List_node@PAVMEffect@@@1@@Z
_TEXT	SEGMENT PARA USE32 PUBLIC 'CODE'
_TEXT	ENDS
;	COMDAT ??0?$_List_iterator@VPORTAL_INFO@@U?$_Const_traits@VPORTAL_INFO@@@_STL@@@_STL@@QAE@PAU?$_List_node@VPORTAL_INFO@@@1@@Z
_TEXT	SEGMENT PARA USE32 PUBLIC 'CODE'
_TEXT	ENDS
;	COMDAT ??0?$_List_iterator@VSECTORSOUND_INFO@@U?$_Const_traits@VSECTORSOUND_INFO@@@_STL@@@_STL@@QAE@PAU?$_List_node@VSECTORSOUND_INFO@@@1@@Z
_TEXT	SEGMENT PARA USE32 PUBLIC 'CODE'
_TEXT	ENDS
;	COMDAT ?begin@?$_Rb_tree@IU?$pair@$$CBIPAVMCreature@@@_STL@@U?$_Select1st@U?$pair@$$CBIPAVMCreature@@@_STL@@@2@U?$less@I@2@V?$allocator@U?$pair@$$CBIPAVMCreature@@@_STL@@@2@@_STL@@QAE?AU?$_Rb_tree_iterator@U?$pair@$$CBIPAVMCreature@@@_STL@@U?$_Nonconst_traits@U?$pair@$$CBIPAVMCreature@@@_STL@@@2@@2@XZ
_TEXT	SEGMENT PARA USE32 PUBLIC 'CODE'
_TEXT	ENDS
;	COMDAT ?size@?$_Rb_tree@IU?$pair@$$CBIPAVMCreature@@@_STL@@U?$_Select1st@U?$pair@$$CBIPAVMCreature@@@_STL@@@2@U?$less@I@2@V?$allocator@U?$pair@$$CBIPAVMCreature@@@_STL@@@2@@_STL@@QBEIXZ
_TEXT	SEGMENT PARA USE32 PUBLIC 'CODE'
_TEXT	ENDS
;	COMDAT ?begin@?$_Rb_tree@IU?$pair@$$CBIPAVMItem@@@_STL@@U?$_Select1st@U?$pair@$$CBIPAVMItem@@@_STL@@@2@U?$less@I@2@V?$allocator@U?$pair@$$CBIPAVMItem@@@_STL@@@2@@_STL@@QAE?AU?$_Rb_tree_iterator@U?$pair@$$CBIPAVMItem@@@_STL@@U?$_Nonconst_traits@U?$pair@$$CBIPAVMItem@@@_STL@@@2@@2@XZ
_TEXT	SEGMENT PARA USE32 PUBLIC 'CODE'
_TEXT	ENDS
;	COMDAT ?size@?$_Rb_tree@IU?$pair@$$CBIPAVMItem@@@_STL@@U?$_Select1st@U?$pair@$$CBIPAVMItem@@@_STL@@@2@U?$less@I@2@V?$allocator@U?$pair@$$CBIPAVMItem@@@_STL@@@2@@_STL@@QBEIXZ
_TEXT	SEGMENT PARA USE32 PUBLIC 'CODE'
_TEXT	ENDS
;	COMDAT ?begin@?$_Rb_tree@IU?$pair@$$CBIPAVMEffect@@@_STL@@U?$_Select1st@U?$pair@$$CBIPAVMEffect@@@_STL@@@2@U?$less@I@2@V?$allocator@U?$pair@$$CBIPAVMEffect@@@_STL@@@2@@_STL@@QAE?AU?$_Rb_tree_iterator@U?$pair@$$CBIPAVMEffect@@@_STL@@U?$_Nonconst_traits@U?$pair@$$CBIPAVMEffect@@@_STL@@@2@@2@XZ
_TEXT	SEGMENT PARA USE32 PUBLIC 'CODE'
_TEXT	ENDS
;	COMDAT ?end@?$_Rb_tree@IU?$pair@$$CBIPAVMEffect@@@_STL@@U?$_Select1st@U?$pair@$$CBIPAVMEffect@@@_STL@@@2@U?$less@I@2@V?$allocator@U?$pair@$$CBIPAVMEffect@@@_STL@@@2@@_STL@@QAE?AU?$_Rb_tree_iterator@U?$pair@$$CBIPAVMEffect@@@_STL@@U?$_Nonconst_traits@U?$pair@$$CBIPAVMEffect@@@_STL@@@2@@2@XZ
_TEXT	SEGMENT PARA USE32 PUBLIC 'CODE'
_TEXT	ENDS
;	COMDAT ?size@?$_Rb_tree@IU?$pair@$$CBIPAVMEffect@@@_STL@@U?$_Select1st@U?$pair@$$CBIPAVMEffect@@@_STL@@@2@U?$less@I@2@V?$allocator@U?$pair@$$CBIPAVMEffect@@@_STL@@@2@@_STL@@QBEIXZ
_TEXT	SEGMENT PARA USE32 PUBLIC 'CODE'
_TEXT	ENDS
;	COMDAT ?copy@?$__char_traits_base@DH@_STL@@SAPADPADPBDI@Z
_TEXT	SEGMENT PARA USE32 PUBLIC 'CODE'
_TEXT	ENDS
;	COMDAT ?begin@?$basic_string@DV?$char_traits@D@_STL@@V?$allocator@D@2@@_STL@@QAEPADXZ
_TEXT	SEGMENT PARA USE32 PUBLIC 'CODE'
_TEXT	ENDS
;	COMDAT ?end@?$basic_string@DV?$char_traits@D@_STL@@V?$allocator@D@2@@_STL@@QAEPADXZ
_TEXT	SEGMENT PARA USE32 PUBLIC 'CODE'
_TEXT	ENDS
;	COMDAT ?erase@?$basic_string@DV?$char_traits@D@_STL@@V?$allocator@D@2@@_STL@@QAEPADPAD0@Z
_TEXT	SEGMENT PARA USE32 PUBLIC 'CODE'
_TEXT	ENDS
;	COMDAT ??0?$_Rb_tree_iterator@U?$pair@$$CBEPAVMObject@@@_STL@@U?$_Nonconst_traits@U?$pair@$$CBEPAVMObject@@@_STL@@@2@@_STL@@QAE@PAU?$_Rb_tree_node@U?$pair@$$CBEPAVMObject@@@_STL@@@1@@Z
_TEXT	SEGMENT PARA USE32 PUBLIC 'CODE'
_TEXT	ENDS
;	COMDAT ??0?$_Rb_tree_iterator@U?$pair@$$CBEPAVMObject@@@_STL@@U?$_Const_traits@U?$pair@$$CBEPAVMObject@@@_STL@@@2@@_STL@@QAE@PAU?$_Rb_tree_node@U?$pair@$$CBEPAVMObject@@@_STL@@@1@@Z
_TEXT	SEGMENT PARA USE32 PUBLIC 'CODE'
_TEXT	ENDS
;	COMDAT ?_M_leftmost@?$_Rb_tree@IU?$pair@$$CBIPAVMCreature@@@_STL@@U?$_Select1st@U?$pair@$$CBIPAVMCreature@@@_STL@@@2@U?$less@I@2@V?$allocator@U?$pair@$$CBIPAVMCreature@@@_STL@@@2@@_STL@@IBEAAPAU?$_Rb_tree_node@U?$pair@$$CBIPAVMCreature@@@_STL@@@2@XZ
_TEXT	SEGMENT PARA USE32 PUBLIC 'CODE'
_TEXT	ENDS
;	COMDAT ?_M_leftmost@?$_Rb_tree@IU?$pair@$$CBIPAVMItem@@@_STL@@U?$_Select1st@U?$pair@$$CBIPAVMItem@@@_STL@@@2@U?$less@I@2@V?$allocator@U?$pair@$$CBIPAVMItem@@@_STL@@@2@@_STL@@IBEAAPAU?$_Rb_tree_node@U?$pair@$$CBIPAVMItem@@@_STL@@@2@XZ
_TEXT	SEGMENT PARA USE32 PUBLIC 'CODE'
_TEXT	ENDS
;	COMDAT ?_M_leftmost@?$_Rb_tree@IU?$pair@$$CBIPAVMEffect@@@_STL@@U?$_Select1st@U?$pair@$$CBIPAVMEffect@@@_STL@@@2@U?$less@I@2@V?$allocator@U?$pair@$$CBIPAVMEffect@@@_STL@@@2@@_STL@@IBEAAPAU?$_Rb_tree_node@U?$pair@$$CBIPAVMEffect@@@_STL@@@2@XZ
_TEXT	SEGMENT PARA USE32 PUBLIC 'CODE'
_TEXT	ENDS
;	COMDAT ??0?$_Rb_tree_iterator@U?$pair@$$CBIPAVMCreature@@@_STL@@U?$_Nonconst_traits@U?$pair@$$CBIPAVMCreature@@@_STL@@@2@@_STL@@QAE@PAU?$_Rb_tree_node@U?$pair@$$CBIPAVMCreature@@@_STL@@@1@@Z
_TEXT	SEGMENT PARA USE32 PUBLIC 'CODE'
_TEXT	ENDS
;	COMDAT ??0?$_Rb_tree_iterator@U?$pair@$$CBIPAVMItem@@@_STL@@U?$_Nonconst_traits@U?$pair@$$CBIPAVMItem@@@_STL@@@2@@_STL@@QAE@PAU?$_Rb_tree_node@U?$pair@$$CBIPAVMItem@@@_STL@@@1@@Z
_TEXT	SEGMENT PARA USE32 PUBLIC 'CODE'
_TEXT	ENDS
;	COMDAT ??0?$_Rb_tree_iterator@U?$pair@$$CBIPAVMEffect@@@_STL@@U?$_Nonconst_traits@U?$pair@$$CBIPAVMEffect@@@_STL@@@2@@_STL@@QAE@PAU?$_Rb_tree_node@U?$pair@$$CBIPAVMEffect@@@_STL@@@1@@Z
_TEXT	SEGMENT PARA USE32 PUBLIC 'CODE'
_TEXT	ENDS
;	COMDAT ?move@?$__char_traits_base@DH@_STL@@SAPADPADPBDI@Z
_TEXT	SEGMENT PARA USE32 PUBLIC 'CODE'
_TEXT	ENDS
;	COMDAT ??$_M_range_initialize@PBD@?$basic_string@DV?$char_traits@D@_STL@@V?$allocator@D@2@@_STL@@AAEXPBD0@Z
_TEXT	SEGMENT PARA USE32 PUBLIC 'CODE'
_TEXT	ENDS
;	COMDAT ??$_M_range_initialize@PAD@?$basic_string@DV?$char_traits@D@_STL@@V?$allocator@D@2@@_STL@@AAEXPAD0@Z
_TEXT	SEGMENT PARA USE32 PUBLIC 'CODE'
_TEXT	ENDS
;	COMDAT ?close@?$basic_filebuf@DV?$char_traits@D@_STL@@@_STL@@QAEPAV12@XZ
_TEXT	SEGMENT PARA USE32 PUBLIC 'CODE'
_TEXT	ENDS
;	COMDAT ?_M_exit_input_mode@?$basic_filebuf@DV?$char_traits@D@_STL@@@_STL@@AAEXXZ
_TEXT	SEGMENT PARA USE32 PUBLIC 'CODE'
_TEXT	ENDS
;	COMDAT ?_M_switch_to_output_mode@?$basic_filebuf@DV?$char_traits@D@_STL@@@_STL@@AAE_NXZ
_TEXT	SEGMENT PARA USE32 PUBLIC 'CODE'
_TEXT	ENDS
;	COMDAT ?_M_output_error@?$basic_filebuf@DV?$char_traits@D@_STL@@@_STL@@AAEHXZ
_TEXT	SEGMENT PARA USE32 PUBLIC 'CODE'
_TEXT	ENDS
;	COMDAT ?_M_allocate_buffers@?$basic_filebuf@DV?$char_traits@D@_STL@@@_STL@@AAE_NPADH@Z
_TEXT	SEGMENT PARA USE32 PUBLIC 'CODE'
_TEXT	ENDS
;	COMDAT ?_M_deallocate_buffers@?$basic_filebuf@DV?$char_traits@D@_STL@@@_STL@@AAEXXZ
_TEXT	SEGMENT PARA USE32 PUBLIC 'CODE'
_TEXT	ENDS
;	COMDAT ?_M_seek_init@?$basic_filebuf@DV?$char_traits@D@_STL@@@_STL@@AAE_N_N@Z
_TEXT	SEGMENT PARA USE32 PUBLIC 'CODE'
_TEXT	ENDS
;	COMDAT ?_M_setup_codecvt@?$basic_filebuf@DV?$char_traits@D@_STL@@@_STL@@AAEXABVlocale@2@@Z
_TEXT	SEGMENT PARA USE32 PUBLIC 'CODE'
_TEXT	ENDS
;	COMDAT ??$equal@PADPADU?$_Eq_traits@V?$char_traits@D@_STL@@@_STL@@@_STL@@YA_NPAD00U?$_Eq_traits@V?$char_traits@D@_STL@@@0@@Z
_TEXT	SEGMENT PARA USE32 PUBLIC 'CODE'
_TEXT	ENDS
;	COMDAT ??$_Destroy@V?$basic_string@DV?$char_traits@D@_STL@@V?$allocator@D@2@@_STL@@@_STL@@YAXPAV?$basic_string@DV?$char_traits@D@_STL@@V?$allocator@D@2@@0@@Z
_TEXT	SEGMENT PARA USE32 PUBLIC 'CODE'
_TEXT	ENDS
;	COMDAT ??$_M_assign_dispatch@PAD@?$basic_string@DV?$char_traits@D@_STL@@V?$allocator@D@2@@_STL@@AAEAAV01@PAD0ABU__false_type@1@@Z
_TEXT	SEGMENT PARA USE32 PUBLIC 'CODE'
_TEXT	ENDS
;	COMDAT ?clear@?$_List_base@PAVMEffect@@V?$allocator@PAVMEffect@@@_STL@@@_STL@@QAEXXZ
_TEXT	SEGMENT PARA USE32 PUBLIC 'CODE'
_TEXT	ENDS
;	COMDAT ??1?$CTypeMap2@VMHelicopter@@@@UAE@XZ
_TEXT	SEGMENT PARA USE32 PUBLIC 'CODE'
_TEXT	ENDS
;	COMDAT ?Release@?$CTypeMap2@VMHelicopter@@@@UAEXXZ
_TEXT	SEGMENT PARA USE32 PUBLIC 'CODE'
_TEXT	ENDS
;	COMDAT ?AddData@?$CTypeMap2@VMHelicopter@@@@UAE_NIPAVMHelicopter@@@Z
_TEXT	SEGMENT PARA USE32 PUBLIC 'CODE'
_TEXT	ENDS
;	COMDAT ?GetData@?$CTypeMap2@VMHelicopter@@@@UBEPBVMHelicopter@@I@Z
_TEXT	SEGMENT PARA USE32 PUBLIC 'CODE'
_TEXT	ENDS
;	COMDAT ?GetData@?$CTypeMap2@VMHelicopter@@@@UAEPAVMHelicopter@@I@Z
_TEXT	SEGMENT PARA USE32 PUBLIC 'CODE'
_TEXT	ENDS
;	COMDAT ?RemoveData@?$CTypeMap2@VMHelicopter@@@@UAE_NI@Z
_TEXT	SEGMENT PARA USE32 PUBLIC 'CODE'
_TEXT	ENDS
;	COMDAT ??$distance@U?$_List_iterator@PAVMEffect@@U?$_Const_traits@PAVMEffect@@@_STL@@@_STL@@@_STL@@YAHABU?$_List_iterator@PAVMEffect@@U?$_Const_traits@PAVMEffect@@@_STL@@@0@0@Z
_TEXT	SEGMENT PARA USE32 PUBLIC 'CODE'
_TEXT	ENDS
;	COMDAT ??$distance@U?$_List_iterator@VPORTAL_INFO@@U?$_Const_traits@VPORTAL_INFO@@@_STL@@@_STL@@@_STL@@YAHABU?$_List_iterator@VPORTAL_INFO@@U?$_Const_traits@VPORTAL_INFO@@@_STL@@@0@0@Z
_TEXT	SEGMENT PARA USE32 PUBLIC 'CODE'
_TEXT	ENDS
;	COMDAT ??$distance@U?$_List_iterator@VSECTORSOUND_INFO@@U?$_Const_traits@VSECTORSOUND_INFO@@@_STL@@@_STL@@@_STL@@YAHABU?$_List_iterator@VSECTORSOUND_INFO@@U?$_Const_traits@VSECTORSOUND_INFO@@@_STL@@@0@0@Z
_TEXT	SEGMENT PARA USE32 PUBLIC 'CODE'
_TEXT	ENDS
;	COMDAT ??$append@PBD@?$basic_string@DV?$char_traits@D@_STL@@V?$allocator@D@2@@_STL@@QAEAAV01@PBD0@Z
_TEXT	SEGMENT PARA USE32 PUBLIC 'CODE'
_TEXT	ENDS
;	COMDAT ??_G?$basic_string@DV?$char_traits@D@_STL@@V?$allocator@D@2@@_STL@@QAEPAXI@Z
_TEXT	SEGMENT PARA USE32 PUBLIC 'CODE'
_TEXT	ENDS
;	COMDAT ??_G?$CTypeMap2@VMHelicopter@@@@UAEPAXI@Z
_TEXT	SEGMENT PARA USE32 PUBLIC 'CODE'
_TEXT	ENDS
;	COMDAT ??1?$map@IPAVMHelicopter@@U?$less@I@_STL@@V?$allocator@U?$pair@$$CBIPAVMHelicopter@@@_STL@@@3@@_STL@@QAE@XZ
_TEXT	SEGMENT PARA USE32 PUBLIC 'CODE'
_TEXT	ENDS
;	COMDAT ??_GMHelicopter@@QAEPAXI@Z
_TEXT	SEGMENT PARA USE32 PUBLIC 'CODE'
_TEXT	ENDS
;	COMDAT ?_M_exit_putback_mode@?$basic_filebuf@DV?$char_traits@D@_STL@@@_STL@@AAEXXZ
_TEXT	SEGMENT PARA USE32 PUBLIC 'CODE'
_TEXT	ENDS
;	COMDAT ??R?$_Eq_traits@V?$char_traits@D@_STL@@@_STL@@QBE_NABD0@Z
_TEXT	SEGMENT PARA USE32 PUBLIC 'CODE'
_TEXT	ENDS
;	COMDAT ?deallocate@?$allocator@U?$_List_node@PAVMEffect@@@_STL@@@_STL@@QAEXPAU?$_List_node@PAVMEffect@@@2@I@Z
_TEXT	SEGMENT PARA USE32 PUBLIC 'CODE'
_TEXT	ENDS
;	COMDAT ?begin@?$map@IPAVMHelicopter@@U?$less@I@_STL@@V?$allocator@U?$pair@$$CBIPAVMHelicopter@@@_STL@@@3@@_STL@@QAE?AU?$_Rb_tree_iterator@U?$pair@$$CBIPAVMHelicopter@@@_STL@@U?$_Nonconst_traits@U?$pair@$$CBIPAVMHelicopter@@@_STL@@@2@@2@XZ
_TEXT	SEGMENT PARA USE32 PUBLIC 'CODE'
_TEXT	ENDS
;	COMDAT ?end@?$map@IPAVMHelicopter@@U?$less@I@_STL@@V?$allocator@U?$pair@$$CBIPAVMHelicopter@@@_STL@@@3@@_STL@@QAE?AU?$_Rb_tree_iterator@U?$pair@$$CBIPAVMHelicopter@@@_STL@@U?$_Nonconst_traits@U?$pair@$$CBIPAVMHelicopter@@@_STL@@@2@@2@XZ
_TEXT	SEGMENT PARA USE32 PUBLIC 'CODE'
_TEXT	ENDS
;	COMDAT ?end@?$map@IPAVMHelicopter@@U?$less@I@_STL@@V?$allocator@U?$pair@$$CBIPAVMHelicopter@@@_STL@@@3@@_STL@@QBE?AU?$_Rb_tree_iterator@U?$pair@$$CBIPAVMHelicopter@@@_STL@@U?$_Const_traits@U?$pair@$$CBIPAVMHelicopter@@@_STL@@@2@@2@XZ
_TEXT	SEGMENT PARA USE32 PUBLIC 'CODE'
_TEXT	ENDS
;	COMDAT ?insert@?$map@IPAVMHelicopter@@U?$less@I@_STL@@V?$allocator@U?$pair@$$CBIPAVMHelicopter@@@_STL@@@3@@_STL@@QAE?AU?$pair@U?$_Rb_tree_iterator@U?$pair@$$CBIPAVMHelicopter@@@_STL@@U?$_Nonconst_traits@U?$pair@$$CBIPAVMHelicopter@@@_STL@@@2@@_STL@@_N@2@ABU?$pair@$$CBIPAVMHelicopter@@@2@@Z
_TEXT	SEGMENT PARA USE32 PUBLIC 'CODE'
_TEXT	ENDS
;	COMDAT ?erase@?$map@IPAVMHelicopter@@U?$less@I@_STL@@V?$allocator@U?$pair@$$CBIPAVMHelicopter@@@_STL@@@3@@_STL@@QAEXU?$_Rb_tree_iterator@U?$pair@$$CBIPAVMHelicopter@@@_STL@@U?$_Nonconst_traits@U?$pair@$$CBIPAVMHelicopter@@@_STL@@@2@@2@@Z
_TEXT	SEGMENT PARA USE32 PUBLIC 'CODE'
_TEXT	ENDS
;	COMDAT ?clear@?$map@IPAVMHelicopter@@U?$less@I@_STL@@V?$allocator@U?$pair@$$CBIPAVMHelicopter@@@_STL@@@3@@_STL@@QAEXXZ
_TEXT	SEGMENT PARA USE32 PUBLIC 'CODE'
_TEXT	ENDS
;	COMDAT ?find@?$map@IPAVMHelicopter@@U?$less@I@_STL@@V?$allocator@U?$pair@$$CBIPAVMHelicopter@@@_STL@@@3@@_STL@@QAE?AU?$_Rb_tree_iterator@U?$pair@$$CBIPAVMHelicopter@@@_STL@@U?$_Nonconst_traits@U?$pair@$$CBIPAVMHelicopter@@@_STL@@@2@@2@ABI@Z
_TEXT	SEGMENT PARA USE32 PUBLIC 'CODE'
_TEXT	ENDS
;	COMDAT ?find@?$map@IPAVMHelicopter@@U?$less@I@_STL@@V?$allocator@U?$pair@$$CBIPAVMHelicopter@@@_STL@@@3@@_STL@@QBE?AU?$_Rb_tree_iterator@U?$pair@$$CBIPAVMHelicopter@@@_STL@@U?$_Const_traits@U?$pair@$$CBIPAVMHelicopter@@@_STL@@@2@@2@ABI@Z
_TEXT	SEGMENT PARA USE32 PUBLIC 'CODE'
_TEXT	ENDS
;	COMDAT ??1?$_Rb_tree@IU?$pair@$$CBIPAVMHelicopter@@@_STL@@U?$_Select1st@U?$pair@$$CBIPAVMHelicopter@@@_STL@@@2@U?$less@I@2@V?$allocator@U?$pair@$$CBIPAVMHelicopter@@@_STL@@@2@@_STL@@QAE@XZ
_TEXT	SEGMENT PARA USE32 PUBLIC 'CODE'
_TEXT	ENDS
;	COMDAT ??0?$_Rb_tree_iterator@U?$pair@$$CBIPAVMHelicopter@@@_STL@@U?$_Nonconst_traits@U?$pair@$$CBIPAVMHelicopter@@@_STL@@@2@@_STL@@QAE@ABU01@@Z
_TEXT	SEGMENT PARA USE32 PUBLIC 'CODE'
_TEXT	ENDS
;	COMDAT ??D?$_Rb_tree_iterator@U?$pair@$$CBIPAVMHelicopter@@@_STL@@U?$_Nonconst_traits@U?$pair@$$CBIPAVMHelicopter@@@_STL@@@2@@_STL@@QBEAAU?$pair@$$CBIPAVMHelicopter@@@1@XZ
_TEXT	SEGMENT PARA USE32 PUBLIC 'CODE'
_TEXT	ENDS
;	COMDAT ??E?$_Rb_tree_iterator@U?$pair@$$CBIPAVMHelicopter@@@_STL@@U?$_Nonconst_traits@U?$pair@$$CBIPAVMHelicopter@@@_STL@@@2@@_STL@@QAE?AU01@H@Z
_TEXT	SEGMENT PARA USE32 PUBLIC 'CODE'
_TEXT	ENDS
;	COMDAT ??0?$pair@$$CBIPAVMHelicopter@@@_STL@@QAE@ABIABQAVMHelicopter@@@Z
_TEXT	SEGMENT PARA USE32 PUBLIC 'CODE'
_TEXT	ENDS
;	COMDAT ??D?$_Rb_tree_iterator@U?$pair@$$CBIPAVMHelicopter@@@_STL@@U?$_Const_traits@U?$pair@$$CBIPAVMHelicopter@@@_STL@@@2@@_STL@@QBEABU?$pair@$$CBIPAVMHelicopter@@@1@XZ
_TEXT	SEGMENT PARA USE32 PUBLIC 'CODE'
_TEXT	ENDS
;	COMDAT ?begin@?$_Rb_tree@IU?$pair@$$CBIPAVMHelicopter@@@_STL@@U?$_Select1st@U?$pair@$$CBIPAVMHelicopter@@@_STL@@@2@U?$less@I@2@V?$allocator@U?$pair@$$CBIPAVMHelicopter@@@_STL@@@2@@_STL@@QAE?AU?$_Rb_tree_iterator@U?$pair@$$CBIPAVMHelicopter@@@_STL@@U?$_Nonconst_traits@U?$pair@$$CBIPAVMHelicopter@@@_STL@@@2@@2@XZ
_TEXT	SEGMENT PARA USE32 PUBLIC 'CODE'
_TEXT	ENDS
;	COMDAT ?end@?$_Rb_tree@IU?$pair@$$CBIPAVMHelicopter@@@_STL@@U?$_Select1st@U?$pair@$$CBIPAVMHelicopter@@@_STL@@@2@U?$less@I@2@V?$allocator@U?$pair@$$CBIPAVMHelicopter@@@_STL@@@2@@_STL@@QAE?AU?$_Rb_tree_iterator@U?$pair@$$CBIPAVMHelicopter@@@_STL@@U?$_Nonconst_traits@U?$pair@$$CBIPAVMHelicopter@@@_STL@@@2@@2@XZ
_TEXT	SEGMENT PARA USE32 PUBLIC 'CODE'
_TEXT	ENDS
;	COMDAT ?end@?$_Rb_tree@IU?$pair@$$CBIPAVMHelicopter@@@_STL@@U?$_Select1st@U?$pair@$$CBIPAVMHelicopter@@@_STL@@@2@U?$less@I@2@V?$allocator@U?$pair@$$CBIPAVMHelicopter@@@_STL@@@2@@_STL@@QBE?AU?$_Rb_tree_iterator@U?$pair@$$CBIPAVMHelicopter@@@_STL@@U?$_Const_traits@U?$pair@$$CBIPAVMHelicopter@@@_STL@@@2@@2@XZ
_TEXT	SEGMENT PARA USE32 PUBLIC 'CODE'
_TEXT	ENDS
;	COMDAT ?erase@?$_Rb_tree@IU?$pair@$$CBIPAVMHelicopter@@@_STL@@U?$_Select1st@U?$pair@$$CBIPAVMHelicopter@@@_STL@@@2@U?$less@I@2@V?$allocator@U?$pair@$$CBIPAVMHelicopter@@@_STL@@@2@@_STL@@QAEXU?$_Rb_tree_iterator@U?$pair@$$CBIPAVMHelicopter@@@_STL@@U?$_Nonconst_traits@U?$pair@$$CBIPAVMHelicopter@@@_STL@@@2@@2@@Z
_TEXT	SEGMENT PARA USE32 PUBLIC 'CODE'
_TEXT	ENDS
;	COMDAT ?clear@?$_Rb_tree@IU?$pair@$$CBIPAVMHelicopter@@@_STL@@U?$_Select1st@U?$pair@$$CBIPAVMHelicopter@@@_STL@@@2@U?$less@I@2@V?$allocator@U?$pair@$$CBIPAVMHelicopter@@@_STL@@@2@@_STL@@QAEXXZ
_TEXT	SEGMENT PARA USE32 PUBLIC 'CODE'
_TEXT	ENDS
;	COMDAT ??1?$_Rb_tree_base@U?$pair@$$CBIPAVMHelicopter@@@_STL@@V?$allocator@U?$pair@$$CBIPAVMHelicopter@@@_STL@@@2@@_STL@@QAE@XZ
_TEXT	SEGMENT PARA USE32 PUBLIC 'CODE'
_TEXT	ENDS
;	COMDAT ??1?$_STLP_alloc_proxy@PAU?$_Rb_tree_node@U?$pair@$$CBIPAVMHelicopter@@@_STL@@@_STL@@U12@V?$allocator@U?$_Rb_tree_node@U?$pair@$$CBIPAVMHelicopter@@@_STL@@@_STL@@@2@@_STL@@QAE@XZ
_TEXT	SEGMENT PARA USE32 PUBLIC 'CODE'
_TEXT	ENDS
;	COMDAT ?_M_root@?$_Rb_tree@IU?$pair@$$CBIPAVMHelicopter@@@_STL@@U?$_Select1st@U?$pair@$$CBIPAVMHelicopter@@@_STL@@@2@U?$less@I@2@V?$allocator@U?$pair@$$CBIPAVMHelicopter@@@_STL@@@2@@_STL@@IBEAAPAU?$_Rb_tree_node@U?$pair@$$CBIPAVMHelicopter@@@_STL@@@2@XZ
_TEXT	SEGMENT PARA USE32 PUBLIC 'CODE'
_TEXT	ENDS
;	COMDAT ?_M_leftmost@?$_Rb_tree@IU?$pair@$$CBIPAVMHelicopter@@@_STL@@U?$_Select1st@U?$pair@$$CBIPAVMHelicopter@@@_STL@@@2@U?$less@I@2@V?$allocator@U?$pair@$$CBIPAVMHelicopter@@@_STL@@@2@@_STL@@IBEAAPAU?$_Rb_tree_node@U?$pair@$$CBIPAVMHelicopter@@@_STL@@@2@XZ
_TEXT	SEGMENT PARA USE32 PUBLIC 'CODE'
_TEXT	ENDS
;	COMDAT ?_M_rightmost@?$_Rb_tree@IU?$pair@$$CBIPAVMHelicopter@@@_STL@@U?$_Select1st@U?$pair@$$CBIPAVMHelicopter@@@_STL@@@2@U?$less@I@2@V?$allocator@U?$pair@$$CBIPAVMHelicopter@@@_STL@@@2@@_STL@@IBEAAPAU?$_Rb_tree_node@U?$pair@$$CBIPAVMHelicopter@@@_STL@@@2@XZ
_TEXT	SEGMENT PARA USE32 PUBLIC 'CODE'
_TEXT	ENDS
;	COMDAT ??1?$allocator@U?$_Rb_tree_node@U?$pair@$$CBIPAVMHelicopter@@@_STL@@@_STL@@@_STL@@QAE@XZ
_TEXT	SEGMENT PARA USE32 PUBLIC 'CODE'
_TEXT	ENDS
;	COMDAT ?deallocate@?$allocator@U?$_Rb_tree_node@U?$pair@$$CBIPAVMHelicopter@@@_STL@@@_STL@@@_STL@@QAEXPAU?$_Rb_tree_node@U?$pair@$$CBIPAVMHelicopter@@@_STL@@@2@I@Z
_TEXT	SEGMENT PARA USE32 PUBLIC 'CODE'
_TEXT	ENDS
;	COMDAT ??0?$_Rb_tree_iterator@U?$pair@$$CBIPAVMHelicopter@@@_STL@@U?$_Nonconst_traits@U?$pair@$$CBIPAVMHelicopter@@@_STL@@@2@@_STL@@QAE@PAU?$_Rb_tree_node@U?$pair@$$CBIPAVMHelicopter@@@_STL@@@1@@Z
_TEXT	SEGMENT PARA USE32 PUBLIC 'CODE'
_TEXT	ENDS
;	COMDAT ??0?$_Rb_tree_iterator@U?$pair@$$CBIPAVMHelicopter@@@_STL@@U?$_Const_traits@U?$pair@$$CBIPAVMHelicopter@@@_STL@@@2@@_STL@@QAE@PAU?$_Rb_tree_node@U?$pair@$$CBIPAVMHelicopter@@@_STL@@@1@@Z
_TEXT	SEGMENT PARA USE32 PUBLIC 'CODE'
_TEXT	ENDS
;	COMDAT ??$_M_range_initialize@PBD@?$basic_string@DV?$char_traits@D@_STL@@V?$allocator@D@2@@_STL@@AAEXPBD0ABUforward_iterator_tag@1@@Z
_TEXT	SEGMENT PARA USE32 PUBLIC 'CODE'
_TEXT	ENDS
;	COMDAT ??$_M_range_initialize@PAD@?$basic_string@DV?$char_traits@D@_STL@@V?$allocator@D@2@@_STL@@AAEXPAD0ABUforward_iterator_tag@1@@Z
_TEXT	SEGMENT PARA USE32 PUBLIC 'CODE'
_TEXT	ENDS
;	COMDAT ?_M_unshift@?$basic_filebuf@DV?$char_traits@D@_STL@@@_STL@@AAE_NXZ
_TEXT	SEGMENT PARA USE32 PUBLIC 'CODE'
_TEXT	ENDS
;	COMDAT ?_M_allocate_buffers@?$basic_filebuf@DV?$char_traits@D@_STL@@@_STL@@AAE_NXZ
_TEXT	SEGMENT PARA USE32 PUBLIC 'CODE'
_TEXT	ENDS
;	COMDAT ??$max@H@_STL@@YAABHABH0@Z
_TEXT	SEGMENT PARA USE32 PUBLIC 'CODE'
_TEXT	ENDS
;	COMDAT ??$use_facet@V?$codecvt@DDH@_STL@@@_STL@@YAABV?$codecvt@DDH@0@ABVlocale@0@@Z
_TEXT	SEGMENT PARA USE32 PUBLIC 'CODE'
_TEXT	ENDS
;	COMDAT ??$append@PAD@?$basic_string@DV?$char_traits@D@_STL@@V?$allocator@D@2@@_STL@@QAEAAV01@PAD0@Z
_TEXT	SEGMENT PARA USE32 PUBLIC 'CODE'
_TEXT	ENDS
;	COMDAT ??$_Destroy@PAVMEffect@@@_STL@@YAXPAPAVMEffect@@@Z
_TEXT	SEGMENT PARA USE32 PUBLIC 'CODE'
_TEXT	ENDS
;	COMDAT ??$__distance@U?$_List_iterator@PAVMEffect@@U?$_Const_traits@PAVMEffect@@@_STL@@@_STL@@@_STL@@YAHABU?$_List_iterator@PAVMEffect@@U?$_Const_traits@PAVMEffect@@@_STL@@@0@0ABUinput_iterator_tag@0@@Z
_TEXT	SEGMENT PARA USE32 PUBLIC 'CODE'
_TEXT	ENDS
;	COMDAT ??$__distance@U?$_List_iterator@VPORTAL_INFO@@U?$_Const_traits@VPORTAL_INFO@@@_STL@@@_STL@@@_STL@@YAHABU?$_List_iterator@VPORTAL_INFO@@U?$_Const_traits@VPORTAL_INFO@@@_STL@@@0@0ABUinput_iterator_tag@0@@Z
_TEXT	SEGMENT PARA USE32 PUBLIC 'CODE'
_TEXT	ENDS
;	COMDAT ??$__distance@U?$_List_iterator@VSECTORSOUND_INFO@@U?$_Const_traits@VSECTORSOUND_INFO@@@_STL@@@_STL@@@_STL@@YAHABU?$_List_iterator@VSECTORSOUND_INFO@@U?$_Const_traits@VSECTORSOUND_INFO@@@_STL@@@0@0ABUinput_iterator_tag@0@@Z
_TEXT	SEGMENT PARA USE32 PUBLIC 'CODE'
_TEXT	ENDS
;	COMDAT ??$_M_append_dispatch@PBD@?$basic_string@DV?$char_traits@D@_STL@@V?$allocator@D@2@@_STL@@AAEAAV01@PBD0ABU__false_type@1@@Z
_TEXT	SEGMENT PARA USE32 PUBLIC 'CODE'
_TEXT	ENDS
;	COMDAT ?_M_erase@?$_Rb_tree@IU?$pair@$$CBIPAVMHelicopter@@@_STL@@U?$_Select1st@U?$pair@$$CBIPAVMHelicopter@@@_STL@@@2@U?$less@I@2@V?$allocator@U?$pair@$$CBIPAVMHelicopter@@@_STL@@@2@@_STL@@AAEXPAU?$_Rb_tree_node@U?$pair@$$CBIPAVMHelicopter@@@_STL@@@2@@Z
_TEXT	SEGMENT PARA USE32 PUBLIC 'CODE'
_TEXT	ENDS
;	COMDAT ?insert_unique@?$_Rb_tree@IU?$pair@$$CBIPAVMHelicopter@@@_STL@@U?$_Select1st@U?$pair@$$CBIPAVMHelicopter@@@_STL@@@2@U?$less@I@2@V?$allocator@U?$pair@$$CBIPAVMHelicopter@@@_STL@@@2@@_STL@@QAE?AU?$pair@U?$_Rb_tree_iterator@U?$pair@$$CBIPAVMHelicopter@@@_STL@@U?$_Nonconst_traits@U?$pair@$$CBIPAVMHelicopter@@@_STL@@@2@@_STL@@_N@2@ABU?$pair@$$CBIPAVMHelicopter@@@2@@Z
_TEXT	SEGMENT PARA USE32 PUBLIC 'CODE'
_TEXT	ENDS
;	COMDAT ??$find@I@?$_Rb_tree@IU?$pair@$$CBIPAVMHelicopter@@@_STL@@U?$_Select1st@U?$pair@$$CBIPAVMHelicopter@@@_STL@@@2@U?$less@I@2@V?$allocator@U?$pair@$$CBIPAVMHelicopter@@@_STL@@@2@@_STL@@QAE?AU?$_Rb_tree_iterator@U?$pair@$$CBIPAVMHelicopter@@@_STL@@U?$_Nonconst_traits@U?$pair@$$CBIPAVMHelicopter@@@_STL@@@2@@1@ABI@Z
_TEXT	SEGMENT PARA USE32 PUBLIC 'CODE'
_TEXT	ENDS
;	COMDAT ??$find@I@?$_Rb_tree@IU?$pair@$$CBIPAVMHelicopter@@@_STL@@U?$_Select1st@U?$pair@$$CBIPAVMHelicopter@@@_STL@@@2@U?$less@I@2@V?$allocator@U?$pair@$$CBIPAVMHelicopter@@@_STL@@@2@@_STL@@QBE?AU?$_Rb_tree_iterator@U?$pair@$$CBIPAVMHelicopter@@@_STL@@U?$_Const_traits@U?$pair@$$CBIPAVMHelicopter@@@_STL@@@2@@1@ABI@Z
_TEXT	SEGMENT PARA USE32 PUBLIC 'CODE'
_TEXT	ENDS
;	COMDAT ??$_Destroy@U?$pair@$$CBIPAVMHelicopter@@@_STL@@@_STL@@YAXPAU?$pair@$$CBIPAVMHelicopter@@@0@@Z
_TEXT	SEGMENT PARA USE32 PUBLIC 'CODE'
_TEXT	ENDS
;	COMDAT ??E?$_List_iterator@PAVMEffect@@U?$_Const_traits@PAVMEffect@@@_STL@@@_STL@@QAEAAU01@XZ
_TEXT	SEGMENT PARA USE32 PUBLIC 'CODE'
_TEXT	ENDS
;	COMDAT ??E?$_List_iterator@VPORTAL_INFO@@U?$_Const_traits@VPORTAL_INFO@@@_STL@@@_STL@@QAEAAU01@XZ
_TEXT	SEGMENT PARA USE32 PUBLIC 'CODE'
_TEXT	ENDS
;	COMDAT ??E?$_List_iterator@VSECTORSOUND_INFO@@U?$_Const_traits@VSECTORSOUND_INFO@@@_STL@@@_STL@@QAEAAU01@XZ
_TEXT	SEGMENT PARA USE32 PUBLIC 'CODE'
_TEXT	ENDS
;	COMDAT ?_S_left@?$_Rb_tree@IU?$pair@$$CBIPAVMHelicopter@@@_STL@@U?$_Select1st@U?$pair@$$CBIPAVMHelicopter@@@_STL@@@2@U?$less@I@2@V?$allocator@U?$pair@$$CBIPAVMHelicopter@@@_STL@@@2@@_STL@@KAAAPAU?$_Rb_tree_node@U?$pair@$$CBIPAVMHelicopter@@@_STL@@@2@PAU32@@Z
_TEXT	SEGMENT PARA USE32 PUBLIC 'CODE'
_TEXT	ENDS
;	COMDAT ?_S_right@?$_Rb_tree@IU?$pair@$$CBIPAVMHelicopter@@@_STL@@U?$_Select1st@U?$pair@$$CBIPAVMHelicopter@@@_STL@@@2@U?$less@I@2@V?$allocator@U?$pair@$$CBIPAVMHelicopter@@@_STL@@@2@@_STL@@KAAAPAU?$_Rb_tree_node@U?$pair@$$CBIPAVMHelicopter@@@_STL@@@2@PAU32@@Z
_TEXT	SEGMENT PARA USE32 PUBLIC 'CODE'
_TEXT	ENDS
;	COMDAT ?_S_key@?$_Rb_tree@IU?$pair@$$CBIPAVMHelicopter@@@_STL@@U?$_Select1st@U?$pair@$$CBIPAVMHelicopter@@@_STL@@@2@U?$less@I@2@V?$allocator@U?$pair@$$CBIPAVMHelicopter@@@_STL@@@2@@_STL@@KAABIPAU?$_Rb_tree_node@U?$pair@$$CBIPAVMHelicopter@@@_STL@@@2@@Z
_TEXT	SEGMENT PARA USE32 PUBLIC 'CODE'
_TEXT	ENDS
;	COMDAT ?_S_key@?$_Rb_tree@IU?$pair@$$CBIPAVMHelicopter@@@_STL@@U?$_Select1st@U?$pair@$$CBIPAVMHelicopter@@@_STL@@@2@U?$less@I@2@V?$allocator@U?$pair@$$CBIPAVMHelicopter@@@_STL@@@2@@_STL@@KAABIPAU_Rb_tree_node_base@2@@Z
_TEXT	SEGMENT PARA USE32 PUBLIC 'CODE'
_TEXT	ENDS
;	COMDAT ??R?$less@I@_STL@@QBE_NABI0@Z
_TEXT	SEGMENT PARA USE32 PUBLIC 'CODE'
_TEXT	ENDS
;	COMDAT ??F?$_Rb_tree_iterator@U?$pair@$$CBIPAVMHelicopter@@@_STL@@U?$_Nonconst_traits@U?$pair@$$CBIPAVMHelicopter@@@_STL@@@2@@_STL@@QAEAAU01@XZ
_TEXT	SEGMENT PARA USE32 PUBLIC 'CODE'
_TEXT	ENDS
;	COMDAT ??0?$pair@U?$_Rb_tree_iterator@U?$pair@$$CBIPAVMHelicopter@@@_STL@@U?$_Nonconst_traits@U?$pair@$$CBIPAVMHelicopter@@@_STL@@@2@@_STL@@_N@_STL@@QAE@ABU?$_Rb_tree_iterator@U?$pair@$$CBIPAVMHelicopter@@@_STL@@U?$_Nonconst_traits@U?$pair@$$CBIPAVMHelicopter@@@_STL@@@2@@1@AB_N@Z
_TEXT	SEGMENT PARA USE32 PUBLIC 'CODE'
_TEXT	ENDS
;	COMDAT ??R?$_Select1st@U?$pair@$$CBIPAVMHelicopter@@@_STL@@@_STL@@QBEABIABU?$pair@$$CBIPAVMHelicopter@@@1@@Z
_TEXT	SEGMENT PARA USE32 PUBLIC 'CODE'
_TEXT	ENDS
;	COMDAT ?_S_value@?$_Rb_tree@IU?$pair@$$CBIPAVMHelicopter@@@_STL@@U?$_Select1st@U?$pair@$$CBIPAVMHelicopter@@@_STL@@@2@U?$less@I@2@V?$allocator@U?$pair@$$CBIPAVMHelicopter@@@_STL@@@2@@_STL@@KAAAU?$pair@$$CBIPAVMHelicopter@@@2@PAU?$_Rb_tree_node@U?$pair@$$CBIPAVMHelicopter@@@_STL@@@2@@Z
_TEXT	SEGMENT PARA USE32 PUBLIC 'CODE'
_TEXT	ENDS
;	COMDAT ??$distance@PBD@_STL@@YAHABQBD0@Z
_TEXT	SEGMENT PARA USE32 PUBLIC 'CODE'
_TEXT	ENDS
;	COMDAT ?_M_allocate_block@?$_String_base@DV?$allocator@D@_STL@@@_STL@@QAEXI@Z
_TEXT	SEGMENT PARA USE32 PUBLIC 'CODE'
_TEXT	ENDS
;	COMDAT ??$distance@PAD@_STL@@YAHABQAD0@Z
_TEXT	SEGMENT PARA USE32 PUBLIC 'CODE'
_TEXT	ENDS
;	COMDAT ??$uninitialized_copy@PADPAD@_STL@@YAPADPAD00@Z
_TEXT	SEGMENT PARA USE32 PUBLIC 'CODE'
_TEXT	ENDS
;	COMDAT ??$_M_append_dispatch@PAD@?$basic_string@DV?$char_traits@D@_STL@@V?$allocator@D@2@@_STL@@AAEAAV01@PAD0ABU__false_type@1@@Z
_TEXT	SEGMENT PARA USE32 PUBLIC 'CODE'
_TEXT	ENDS
;	COMDAT ??$append@PBD@?$basic_string@DV?$char_traits@D@_STL@@V?$allocator@D@2@@_STL@@AAEAAV01@PBD0ABUforward_iterator_tag@1@@Z
_TEXT	SEGMENT PARA USE32 PUBLIC 'CODE'
_TEXT	ENDS
;	COMDAT ?_M_insert@?$_Rb_tree@IU?$pair@$$CBIPAVMHelicopter@@@_STL@@U?$_Select1st@U?$pair@$$CBIPAVMHelicopter@@@_STL@@@2@U?$less@I@2@V?$allocator@U?$pair@$$CBIPAVMHelicopter@@@_STL@@@2@@_STL@@AAE?AU?$_Rb_tree_iterator@U?$pair@$$CBIPAVMHelicopter@@@_STL@@U?$_Nonconst_traits@U?$pair@$$CBIPAVMHelicopter@@@_STL@@@2@@2@PAU_Rb_tree_node_base@2@0ABU?$pair@$$CBIPAVMHelicopter@@@2@0@Z
_TEXT	SEGMENT PARA USE32 PUBLIC 'CODE'
_TEXT	ENDS
;	COMDAT ??$_M_find@I@?$_Rb_tree@IU?$pair@$$CBIPAVMHelicopter@@@_STL@@U?$_Select1st@U?$pair@$$CBIPAVMHelicopter@@@_STL@@@2@U?$less@I@2@V?$allocator@U?$pair@$$CBIPAVMHelicopter@@@_STL@@@2@@_STL@@ABEPAU?$_Rb_tree_node@U?$pair@$$CBIPAVMHelicopter@@@_STL@@@1@ABI@Z
_TEXT	SEGMENT PARA USE32 PUBLIC 'CODE'
_TEXT	ENDS
;	COMDAT ?_M_construct_null@?$basic_string@DV?$char_traits@D@_STL@@V?$allocator@D@2@@_STL@@AAEXPAD@Z
_TEXT	SEGMENT PARA USE32 PUBLIC 'CODE'
_TEXT	ENDS
;	COMDAT ?max_size@?$basic_string@DV?$char_traits@D@_STL@@V?$allocator@D@2@@_STL@@QBEIXZ
_TEXT	SEGMENT PARA USE32 PUBLIC 'CODE'
_TEXT	ENDS
;	COMDAT ?capacity@?$basic_string@DV?$char_traits@D@_STL@@V?$allocator@D@2@@_STL@@QBEIXZ
_TEXT	SEGMENT PARA USE32 PUBLIC 'CODE'
_TEXT	ENDS
;	COMDAT ?max_size@?$_String_base@DV?$allocator@D@_STL@@@_STL@@QBEIXZ
_TEXT	SEGMENT PARA USE32 PUBLIC 'CODE'
_TEXT	ENDS
;	COMDAT ?_M_create_node@?$_Rb_tree@IU?$pair@$$CBIPAVMHelicopter@@@_STL@@U?$_Select1st@U?$pair@$$CBIPAVMHelicopter@@@_STL@@@2@U?$less@I@2@V?$allocator@U?$pair@$$CBIPAVMHelicopter@@@_STL@@@2@@_STL@@IAEPAU?$_Rb_tree_node@U?$pair@$$CBIPAVMHelicopter@@@_STL@@@2@ABU?$pair@$$CBIPAVMHelicopter@@@2@@Z
_TEXT	SEGMENT PARA USE32 PUBLIC 'CODE'
_TEXT	ENDS
;	COMDAT ?_S_parent@?$_Rb_tree@IU?$pair@$$CBIPAVMHelicopter@@@_STL@@U?$_Select1st@U?$pair@$$CBIPAVMHelicopter@@@_STL@@@2@U?$less@I@2@V?$allocator@U?$pair@$$CBIPAVMHelicopter@@@_STL@@@2@@_STL@@KAAAPAU?$_Rb_tree_node@U?$pair@$$CBIPAVMHelicopter@@@_STL@@@2@PAU32@@Z
_TEXT	SEGMENT PARA USE32 PUBLIC 'CODE'
_TEXT	ENDS
;	COMDAT ?_M_construct_null_aux@?$basic_string@DV?$char_traits@D@_STL@@V?$allocator@D@2@@_STL@@AAEXPADABU__true_type@2@@Z
_TEXT	SEGMENT PARA USE32 PUBLIC 'CODE'
_TEXT	ENDS
;	COMDAT ?allocate@?$allocator@U?$_Rb_tree_node@U?$pair@$$CBIPAVMHelicopter@@@_STL@@@_STL@@@_STL@@QAEPAU?$_Rb_tree_node@U?$pair@$$CBIPAVMHelicopter@@@_STL@@@2@IPBX@Z
_TEXT	SEGMENT PARA USE32 PUBLIC 'CODE'
_TEXT	ENDS
;	COMDAT ??$__distance@PBD@_STL@@YAHABQBD0ABUrandom_access_iterator_tag@0@@Z
_TEXT	SEGMENT PARA USE32 PUBLIC 'CODE'
_TEXT	ENDS
;	COMDAT ?_M_throw_length_error@?$_String_base@DV?$allocator@D@_STL@@@_STL@@QBEXXZ
_TEXT	SEGMENT PARA USE32 PUBLIC 'CODE'
_TEXT	ENDS
;	COMDAT ??$__distance@PAD@_STL@@YAHABQAD0ABUrandom_access_iterator_tag@0@@Z
_TEXT	SEGMENT PARA USE32 PUBLIC 'CODE'
_TEXT	ENDS
;	COMDAT ??$__uninitialized_copy@PADPAD@_STL@@YAPADPAD00ABU__true_type@0@@Z
_TEXT	SEGMENT PARA USE32 PUBLIC 'CODE'
_TEXT	ENDS
;	COMDAT ??$append@PAD@?$basic_string@DV?$char_traits@D@_STL@@V?$allocator@D@2@@_STL@@AAEAAV01@PAD0ABUforward_iterator_tag@1@@Z
_TEXT	SEGMENT PARA USE32 PUBLIC 'CODE'
_TEXT	ENDS
;	COMDAT ??$max@I@_STL@@YAABIABI0@Z
_TEXT	SEGMENT PARA USE32 PUBLIC 'CODE'
_TEXT	ENDS
;	COMDAT ??$_Construct@U?$pair@$$CBIPAVMHelicopter@@@_STL@@U12@@_STL@@YAXPAU?$pair@$$CBIPAVMHelicopter@@@0@ABU10@@Z
_TEXT	SEGMENT PARA USE32 PUBLIC 'CODE'
_TEXT	ENDS
;	COMDAT ??0?$pair@$$CBIPAVMHelicopter@@@_STL@@QAE@ABU01@@Z
_TEXT	SEGMENT PARA USE32 PUBLIC 'CODE'
_TEXT	ENDS
;	COMDAT ?_Ret@?$_BothPtrType@PADPAD@_STL@@SA?AU__true_type@2@XZ
_TEXT	SEGMENT PARA USE32 PUBLIC 'CODE'
_TEXT	ENDS
;	COMDAT ??$__copy_aux@PADPAD@_STL@@YAPADPAD00ABU__true_type@0@@Z
_TEXT	SEGMENT PARA USE32 PUBLIC 'CODE'
_TEXT	ENDS
;	COMDAT ?_Ret@?$_OKToMemCpy@DD@_STL@@SA?AU__true_type@2@XZ
_TEXT	SEGMENT PARA USE32 PUBLIC 'CODE'
_TEXT	ENDS
;	COMDAT ??$_IsOKToMemCpy@DD@_STL@@YA?AU?$_OKToMemCpy@DD@0@PAD0@Z
_TEXT	SEGMENT PARA USE32 PUBLIC 'CODE'
_TEXT	ENDS
;	COMDAT ??$__copy_ptrs@PADPAD@_STL@@YAPADPAD00ABU__true_type@0@@Z
_TEXT	SEGMENT PARA USE32 PUBLIC 'CODE'
_TEXT	ENDS
;	COMDAT ??_R3?$CTypeMap2@VMHelicopter@@@@8
rdata$r	SEGMENT DWORD USE32 PUBLIC 'CONST'
rdata$r	ENDS
;	COMDAT ??_R3MObject@@8
rdata$r	SEGMENT DWORD USE32 PUBLIC 'CONST'
rdata$r	ENDS
;	COMDAT ??_R3iovfs_base@@8
rdata$r	SEGMENT DWORD USE32 PUBLIC 'CONST'
rdata$r	ENDS
;	COMDAT ??_R3ovfstream@@8
rdata$r	SEGMENT DWORD USE32 PUBLIC 'CONST'
rdata$r	ENDS
;	COMDAT ??_R3IFileIO@@8
rdata$r	SEGMENT DWORD USE32 PUBLIC 'CONST'
rdata$r	ENDS
;	COMDAT ??_R3ivfstream@@8
rdata$r	SEGMENT DWORD USE32 PUBLIC 'CONST'
rdata$r	ENDS
;	COMDAT ??_R2?$CTypeMap2@VMHelicopter@@@@8
rdata$r	SEGMENT DWORD USE32 PUBLIC 'CONST'
rdata$r	ENDS
;	COMDAT ??_R2MObject@@8
rdata$r	SEGMENT DWORD USE32 PUBLIC 'CONST'
rdata$r	ENDS
;	COMDAT ??_R2iovfs_base@@8
rdata$r	SEGMENT DWORD USE32 PUBLIC 'CONST'
rdata$r	ENDS
;	COMDAT ??_R2ovfstream@@8
rdata$r	SEGMENT DWORD USE32 PUBLIC 'CONST'
rdata$r	ENDS
;	COMDAT ??_R2IFileIO@@8
rdata$r	SEGMENT DWORD USE32 PUBLIC 'CONST'
rdata$r	ENDS
;	COMDAT ??_R2ivfstream@@8
rdata$r	SEGMENT DWORD USE32 PUBLIC 'CONST'
rdata$r	ENDS
;	COMDAT ??_R13?0A@A@?$map@IPAVMHelicopter@@U?$less@I@_STL@@V?$allocator@U?$pair@$$CBIPAVMHelicopter@@@_STL@@@3@@_STL@@8
rdata$r	SEGMENT DWORD USE32 PUBLIC 'CONST'
rdata$r	ENDS
;	COMDAT ??_R1A@?0A@A@?$CTypeMap2@VMHelicopter@@@@8
rdata$r	SEGMENT DWORD USE32 PUBLIC 'CONST'
rdata$r	ENDS
;	COMDAT ??_R1A@?0A@A@MObject@@8
rdata$r	SEGMENT DWORD USE32 PUBLIC 'CONST'
rdata$r	ENDS
;	COMDAT ??_R1A@?0A@A@ovfstream@@8
rdata$r	SEGMENT DWORD USE32 PUBLIC 'CONST'
rdata$r	ENDS
;	COMDAT ??_R1A@?0A@A@IFileIO@@8
rdata$r	SEGMENT DWORD USE32 PUBLIC 'CONST'
rdata$r	ENDS
;	COMDAT ??_R1A@?0A@A@iovfs_base@@8
rdata$r	SEGMENT DWORD USE32 PUBLIC 'CONST'
rdata$r	ENDS
;	COMDAT ??_R1A@?0A@A@ivfstream@@8
rdata$r	SEGMENT DWORD USE32 PUBLIC 'CONST'
rdata$r	ENDS
;	COMDAT ??_R0?AV?$map@IPAVMHelicopter@@U?$less@I@_STL@@V?$allocator@U?$pair@$$CBIPAVMHelicopter@@@_STL@@@3@@_STL@@@8
_DATA	SEGMENT DWORD USE32 PUBLIC 'DATA'
_DATA	ENDS
;	COMDAT ??_R0?AV?$CTypeMap2@VMHelicopter@@@@@8
_DATA	SEGMENT DWORD USE32 PUBLIC 'DATA'
_DATA	ENDS
;	COMDAT ??_R0?AVMObject@@@8
_DATA	SEGMENT DWORD USE32 PUBLIC 'DATA'
_DATA	ENDS
;	COMDAT ??_R0?AVovfstream@@@8
_DATA	SEGMENT DWORD USE32 PUBLIC 'DATA'
_DATA	ENDS
;	COMDAT ??_R0?AVIFileIO@@@8
_DATA	SEGMENT DWORD USE32 PUBLIC 'DATA'
_DATA	ENDS
;	COMDAT ??_R0?AViovfs_base@@@8
_DATA	SEGMENT DWORD USE32 PUBLIC 'DATA'
_DATA	ENDS
;	COMDAT ??_R0?AVivfstream@@@8
_DATA	SEGMENT DWORD USE32 PUBLIC 'DATA'
_DATA	ENDS
;	COMDAT ??_R4?$CTypeMap2@VMHelicopter@@@@6B@
rdata$r	SEGMENT DWORD USE32 PUBLIC 'CONST'
rdata$r	ENDS
;	COMDAT ??_R4MObject@@6B@
rdata$r	SEGMENT DWORD USE32 PUBLIC 'CONST'
rdata$r	ENDS
;	COMDAT ??_R4iovfs_base@@6B@
rdata$r	SEGMENT DWORD USE32 PUBLIC 'CONST'
rdata$r	ENDS
;	COMDAT ??_R4ovfstream@@6B@
rdata$r	SEGMENT DWORD USE32 PUBLIC 'CONST'
rdata$r	ENDS
;	COMDAT ??_R4IFileIO@@6B@
rdata$r	SEGMENT DWORD USE32 PUBLIC 'CONST'
rdata$r	ENDS
;	COMDAT ??_R4ivfstream@@6B@
rdata$r	SEGMENT DWORD USE32 PUBLIC 'CONST'
rdata$r	ENDS
;	COMDAT ?__copy_trivial@_STL@@YAPAXPBX0PAX@Z
_TEXT	SEGMENT PARA USE32 PUBLIC 'CODE'
_TEXT	ENDS
;	COMDAT ??3@YAXPAX0@Z
_TEXT	SEGMENT PARA USE32 PUBLIC 'CODE'
_TEXT	ENDS
;	COMDAT ??2@YAPAXIPAX@Z
_TEXT	SEGMENT PARA USE32 PUBLIC 'CODE'
_TEXT	ENDS
;	COMDAT ?_M_deallocate_block@?$_String_base@DV?$allocator@D@_STL@@@_STL@@QAEXXZ
_TEXT	SEGMENT PARA USE32 PUBLIC 'CODE'
_TEXT	ENDS
;	COMDAT ?deallocate@?$allocator@D@_STL@@QAEXPADI@Z
_TEXT	SEGMENT PARA USE32 PUBLIC 'CODE'
_TEXT	ENDS
;	COMDAT ?_M_incr@_List_iterator_base@_STL@@QAEXXZ
_TEXT	SEGMENT PARA USE32 PUBLIC 'CODE'
_TEXT	ENDS
;	COMDAT ??9_List_iterator_base@_STL@@QBE_NABU01@@Z
_TEXT	SEGMENT PARA USE32 PUBLIC 'CODE'
_TEXT	ENDS
;	COMDAT ?__page_size@_Filebuf_base@_STL@@SAIXZ
_TEXT	SEGMENT PARA USE32 PUBLIC 'CODE'
_TEXT	ENDS
;	COMDAT ?_M_write@?$basic_filebuf@DV?$char_traits@D@_STL@@@_STL@@QAE_NPADH@Z
_TEXT	SEGMENT PARA USE32 PUBLIC 'CODE'
_TEXT	ENDS
;	COMDAT ?unshift@?$codecvt@DDH@_STL@@QBE?AW4result@codecvt_base@2@AAHPAD1AAPAD@Z
_TEXT	SEGMENT PARA USE32 PUBLIC 'CODE'
_TEXT	ENDS
;	COMDAT ?uninitialized_copy@_STL@@YAPADPBD0PAD@Z
_TEXT	SEGMENT PARA USE32 PUBLIC 'CODE'
_TEXT	ENDS
;	COMDAT ?deallocate@?$__node_alloc@$00$0A@@_STL@@SAXPAXI@Z
_TEXT	SEGMENT PARA USE32 PUBLIC 'CODE'
_TEXT	ENDS
;	COMDAT ?__stl_delete@_STL@@YAXPAX@Z
_TEXT	SEGMENT PARA USE32 PUBLIC 'CODE'
_TEXT	ENDS
;	COMDAT ??8_Rb_tree_base_iterator@_STL@@QBE_NABU01@@Z
_TEXT	SEGMENT PARA USE32 PUBLIC 'CODE'
_TEXT	ENDS
;	COMDAT ??9_Rb_tree_base_iterator@_STL@@QBE_NABU01@@Z
_TEXT	SEGMENT PARA USE32 PUBLIC 'CODE'
_TEXT	ENDS
;	COMDAT ??_7?$CTypeMap2@VMHelicopter@@@@6B@
CONST	SEGMENT DWORD USE32 PUBLIC 'CONST'
CONST	ENDS
;	COMDAT ?assign@?$char_traits@D@_STL@@SAXAADABD@Z
_TEXT	SEGMENT PARA USE32 PUBLIC 'CODE'
_TEXT	ENDS
;	COMDAT ?always_noconv@?$codecvt@DDH@_STL@@QBE_NXZ
_TEXT	SEGMENT PARA USE32 PUBLIC 'CODE'
_TEXT	ENDS
;	COMDAT ?encoding@?$codecvt@DDH@_STL@@QBEHXZ
_TEXT	SEGMENT PARA USE32 PUBLIC 'CODE'
_TEXT	ENDS
;	COMDAT ?max_length@?$codecvt@DDH@_STL@@QBEHXZ
_TEXT	SEGMENT PARA USE32 PUBLIC 'CODE'
_TEXT	ENDS
;	COMDAT ?__o_mode@_Filebuf_base@_STL@@QBEHXZ
_TEXT	SEGMENT PARA USE32 PUBLIC 'CODE'
_TEXT	ENDS
;	COMDAT ?_Destroy@_STL@@YAXPAD0@Z
_TEXT	SEGMENT PARA USE32 PUBLIC 'CODE'
_TEXT	ENDS
;	COMDAT ??0_List_iterator_base@_STL@@QAE@PAU_List_node_base@1@@Z
_TEXT	SEGMENT PARA USE32 PUBLIC 'CODE'
_TEXT	ENDS
;	COMDAT ?setp@?$basic_streambuf@DV?$char_traits@D@_STL@@@_STL@@IAEXPAD0@Z
_TEXT	SEGMENT PARA USE32 PUBLIC 'CODE'
_TEXT	ENDS
;	COMDAT ?_FILE_O_set@_STL@@YAXPAU_iobuf@@PAD11@Z
_TEXT	SEGMENT PARA USE32 PUBLIC 'CODE'
_TEXT	ENDS
;	COMDAT ?_FILE_I_set@_STL@@YAXPAU_iobuf@@PAD11@Z
_TEXT	SEGMENT PARA USE32 PUBLIC 'CODE'
_TEXT	ENDS
;	COMDAT ?setg@?$basic_streambuf@DV?$char_traits@D@_STL@@@_STL@@IAEXPAD00@Z
_TEXT	SEGMENT PARA USE32 PUBLIC 'CODE'
_TEXT	ENDS
;	COMDAT ?__is_open@_Filebuf_base@_STL@@QBE_NXZ
_TEXT	SEGMENT PARA USE32 PUBLIC 'CODE'
_TEXT	ENDS
;	COMDAT ?allocate@?$__node_alloc@$00$0A@@_STL@@SAPAXI@Z
_TEXT	SEGMENT PARA USE32 PUBLIC 'CODE'
_TEXT	ENDS
;	COMDAT ?__stl_new@_STL@@YAPAXI@Z
_TEXT	SEGMENT PARA USE32 PUBLIC 'CODE'
_TEXT	ENDS
;	COMDAT ??1?$_STLP_alloc_proxy@PADDV?$allocator@D@_STL@@@_STL@@QAE@XZ
_TEXT	SEGMENT PARA USE32 PUBLIC 'CODE'
_TEXT	ENDS
;	COMDAT ?length@?$char_traits@D@_STL@@SAIPBD@Z
_TEXT	SEGMENT PARA USE32 PUBLIC 'CODE'
_TEXT	ENDS
;	COMDAT ??1?$allocator@D@_STL@@QAE@XZ
_TEXT	SEGMENT PARA USE32 PUBLIC 'CODE'
_TEXT	ENDS
;	COMDAT ?eof@?$__char_traits_base@DH@_STL@@SAHXZ
_TEXT	SEGMENT PARA USE32 PUBLIC 'CODE'
_TEXT	ENDS
;	COMDAT ??_7MObject@@6B@
CONST	SEGMENT DWORD USE32 PUBLIC 'CONST'
CONST	ENDS
;	COMDAT ??_7ovfstream@@6B@
CONST	SEGMENT DWORD USE32 PUBLIC 'CONST'
CONST	ENDS
;	COMDAT ??_7ivfstream@@6B@
CONST	SEGMENT DWORD USE32 PUBLIC 'CONST'
CONST	ENDS
;	COMDAT ??0?$basic_string@DV?$char_traits@D@_STL@@V?$allocator@D@2@@_STL@@QAE@XZ
_TEXT	SEGMENT PARA USE32 PUBLIC 'CODE'
_TEXT	ENDS
;	COMDAT ??0?$allocator@D@_STL@@QAE@XZ
_TEXT	SEGMENT PARA USE32 PUBLIC 'CODE'
_TEXT	ENDS
;	COMDAT ??1?$_String_base@DV?$allocator@D@_STL@@@_STL@@QAE@XZ
_TEXT	SEGMENT PARA USE32 PUBLIC 'CODE'
_TEXT	ENDS
;	COMDAT ??_7iovfs_base@@6B@
CONST	SEGMENT DWORD USE32 PUBLIC 'CONST'
CONST	ENDS
;	COMDAT ??_7IFileIO@@6B@
CONST	SEGMENT DWORD USE32 PUBLIC 'CONST'
CONST	ENDS
;	COMDAT ??4?$basic_string@DV?$char_traits@D@_STL@@V?$allocator@D@2@@_STL@@QAEAAV01@ABV01@@Z
_TEXT	SEGMENT PARA USE32 PUBLIC 'CODE'
_TEXT	ENDS
;	COMDAT ??$assign@PAD@?$basic_string@DV?$char_traits@D@_STL@@V?$allocator@D@2@@_STL@@QAEAAV01@PAD0@Z
_TEXT	SEGMENT PARA USE32 PUBLIC 'CODE'
_TEXT	ENDS
;	COMDAT ??1?$basic_string@DV?$char_traits@D@_STL@@V?$allocator@D@2@@_STL@@QAE@XZ
_TEXT	SEGMENT PARA USE32 PUBLIC 'CODE'
_TEXT	ENDS
;	COMDAT ??0?$basic_string@DV?$char_traits@D@_STL@@V?$allocator@D@2@@_STL@@QAE@ABV01@@Z
_TEXT	SEGMENT PARA USE32 PUBLIC 'CODE'
_TEXT	ENDS
sxdata	SEGMENT DWORD USE32 'SXDATA'
sxdata	ENDS
FLAT	GROUP _DATA, CONST, _BSS
	ASSUME	CS: FLAT, DS: FLAT, SS: FLAT
endif

INCLUDELIB LIBCMT
INCLUDELIB OLDNAMES

PUBLIC	?__stl_new@_STL@@YAPAXI@Z			; _STL::__stl_new
EXTRN	??2@YAPAXI@Z:NEAR				; operator new
; Function compile flags: /Ogsy
; File c:\stlport-4.6.1\stlport\stl\_new.h
;	COMDAT ?__stl_new@_STL@@YAPAXI@Z
_TEXT	SEGMENT
___n$ = 8						; size = 4
?__stl_new@_STL@@YAPAXI@Z PROC NEAR			; _STL::__stl_new, COMDAT

; 86   : inline void*  _STLP_CALL __stl_new(size_t __n)   { _STLP_CHECK_NULL_ALLOC(::operator _STLP_NEW(__n)); }

  00000	e9 00 00 00 00	 jmp	 ??2@YAPAXI@Z		; operator new
?__stl_new@_STL@@YAPAXI@Z ENDP				; _STL::__stl_new
_TEXT	ENDS
PUBLIC	?__stl_delete@_STL@@YAXPAX@Z			; _STL::__stl_delete
EXTRN	??3@YAXPAX@Z:NEAR				; operator delete
; Function compile flags: /Ogsy
;	COMDAT ?__stl_delete@_STL@@YAXPAX@Z
_TEXT	SEGMENT
___p$ = 8						; size = 4
?__stl_delete@_STL@@YAXPAX@Z PROC NEAR			; _STL::__stl_delete, COMDAT

; 87   : inline void   _STLP_CALL __stl_delete(void* __p) { ::operator delete(__p); }

  00000	e9 00 00 00 00	 jmp	 ??3@YAXPAX@Z		; operator delete
?__stl_delete@_STL@@YAXPAX@Z ENDP			; _STL::__stl_delete
_TEXT	ENDS
PUBLIC	?read@SocketInputStream@@QAEIAAE@Z		; SocketInputStream::read
EXTRN	?read@SocketInputStream@@QAEIPADI@Z:NEAR	; SocketInputStream::read
; Function compile flags: /Ogsy
; File c:\darkeden\designed_common\project\client\packet\socketinputstream.h
;	COMDAT ?read@SocketInputStream@@QAEIAAE@Z
_TEXT	SEGMENT
_buf$ = 8						; size = 4
?read@SocketInputStream@@QAEIAAE@Z PROC NEAR		; SocketInputStream::read, COMDAT
; _this$ = ecx

; 69   : 	uint read ( uchar  & buf ) throw ( ProtocolException , Error ) { return read( (char*)&buf, szuchar  ); }

  00000	6a 01		 push	 1
  00002	ff 74 24 08	 push	 DWORD PTR _buf$[esp]
  00006	e8 00 00 00 00	 call	 ?read@SocketInputStream@@QAEIPADI@Z ; SocketInputStream::read
  0000b	c2 04 00	 ret	 4
?read@SocketInputStream@@QAEIAAE@Z ENDP			; SocketInputStream::read
_TEXT	ENDS
PUBLIC	?read@SocketInputStream@@QAEIAAG@Z		; SocketInputStream::read
; Function compile flags: /Ogsy
;	COMDAT ?read@SocketInputStream@@QAEIAAG@Z
_TEXT	SEGMENT
_buf$ = 8						; size = 4
?read@SocketInputStream@@QAEIAAG@Z PROC NEAR		; SocketInputStream::read, COMDAT
; _this$ = ecx

; 71   : 	uint read ( ushort & buf ) throw ( ProtocolException , Error ) { return read( (char*)&buf, szushort ); }

  00000	6a 02		 push	 2
  00002	ff 74 24 08	 push	 DWORD PTR _buf$[esp]
  00006	e8 00 00 00 00	 call	 ?read@SocketInputStream@@QAEIPADI@Z ; SocketInputStream::read
  0000b	c2 04 00	 ret	 4
?read@SocketInputStream@@QAEIAAG@Z ENDP			; SocketInputStream::read
_TEXT	ENDS
PUBLIC	?_Destroy@_STL@@YAXPAD0@Z			; _STL::_Destroy
; Function compile flags: /Ogsy
; File c:\stlport-4.6.1\stlport\stl\_construct.h
;	COMDAT ?_Destroy@_STL@@YAXPAD0@Z
_TEXT	SEGMENT
___formal$ = 8						; size = 4
___formal$ = 12						; size = 4
?_Destroy@_STL@@YAXPAD0@Z PROC NEAR			; _STL::_Destroy, COMDAT

; 142  : inline void _Destroy(char*, char*) {}

  00000	c3		 ret	 0
?_Destroy@_STL@@YAXPAD0@Z ENDP				; _STL::_Destroy
_TEXT	ENDS
PUBLIC	?__copy_trivial@_STL@@YAPAXPBX0PAX@Z		; _STL::__copy_trivial
EXTRN	_memmove:NEAR
; Function compile flags: /Ogsy
; File c:\stlport-4.6.1\stlport\stl\_algobase.h
;	COMDAT ?__copy_trivial@_STL@@YAPAXPBX0PAX@Z
_TEXT	SEGMENT
___first$ = 8						; size = 4
___last$ = 12						; size = 4
___result$ = 16						; size = 4
?__copy_trivial@_STL@@YAPAXPBX0PAX@Z PROC NEAR		; _STL::__copy_trivial, COMDAT

; 147  : __copy_trivial(const void* __first, const void* __last, void* __result) {

  00000	55		 push	 ebp
  00001	8b ec		 mov	 ebp, esp
  00003	56		 push	 esi

; 148  :   return (__last == __first) ? __result : 
; 149  :     ((char*)memmove(__result, __first, ((const char*)__last - (const char*)__first))) + 
; 150  :     ((const char*)__last - (const char*)__first);

  00004	8b 75 0c	 mov	 esi, DWORD PTR ___last$[ebp]
  00007	3b 75 08	 cmp	 esi, DWORD PTR ___first$[ebp]
  0000a	75 05		 jne	 SHORT $L110532
  0000c	8b 45 10	 mov	 eax, DWORD PTR ___result$[ebp]
  0000f	eb 14		 jmp	 SHORT $L110533
$L110532:
  00011	2b 75 08	 sub	 esi, DWORD PTR ___first$[ebp]
  00014	56		 push	 esi
  00015	ff 75 08	 push	 DWORD PTR ___first$[ebp]
  00018	ff 75 10	 push	 DWORD PTR ___result$[ebp]
  0001b	e8 00 00 00 00	 call	 _memmove
  00020	83 c4 0c	 add	 esp, 12			; 0000000cH
  00023	03 c6		 add	 eax, esi
$L110533:
  00025	5e		 pop	 esi

; 151  : }

  00026	5d		 pop	 ebp
  00027	c3		 ret	 0
?__copy_trivial@_STL@@YAPAXPBX0PAX@Z ENDP		; _STL::__copy_trivial
_TEXT	ENDS
PUBLIC	?write@SocketOutputStream@@QAEIE@Z		; SocketOutputStream::write
EXTRN	?write@SocketOutputStream@@QAEIPBDI@Z:NEAR	; SocketOutputStream::write
; Function compile flags: /Ogsy
; File c:\darkeden\designed_common\project\client\packet\socketoutputstream.h
;	COMDAT ?write@SocketOutputStream@@QAEIE@Z
_TEXT	SEGMENT
_buf$ = 8						; size = 1
?write@SocketOutputStream@@QAEIE@Z PROC NEAR		; SocketOutputStream::write, COMDAT
; _this$ = ecx

; 62   :     uint write ( uchar  buf ) throw ( ProtocolException , Error ) { return write( (const char*)&buf, szuchar  ); }

  00000	6a 01		 push	 1
  00002	8d 44 24 08	 lea	 eax, DWORD PTR _buf$[esp]
  00006	50		 push	 eax
  00007	e8 00 00 00 00	 call	 ?write@SocketOutputStream@@QAEIPBDI@Z ; SocketOutputStream::write
  0000c	c2 04 00	 ret	 4
?write@SocketOutputStream@@QAEIE@Z ENDP			; SocketOutputStream::write
_TEXT	ENDS
PUBLIC	?write@SocketOutputStream@@QAEIG@Z		; SocketOutputStream::write
; Function compile flags: /Ogsy
;	COMDAT ?write@SocketOutputStream@@QAEIG@Z
_TEXT	SEGMENT
_buf$ = 8						; size = 2
?write@SocketOutputStream@@QAEIG@Z PROC NEAR		; SocketOutputStream::write, COMDAT
; _this$ = ecx

; 64   :     uint write ( ushort buf ) throw ( ProtocolException , Error ) { return write( (const char*)&buf, szushort ); }

  00000	6a 02		 push	 2
  00002	8d 44 24 08	 lea	 eax, DWORD PTR _buf$[esp]
  00006	50		 push	 eax
  00007	e8 00 00 00 00	 call	 ?write@SocketOutputStream@@QAEIPBDI@Z ; SocketOutputStream::write
  0000c	c2 04 00	 ret	 4
?write@SocketOutputStream@@QAEIG@Z ENDP			; SocketOutputStream::write
_TEXT	ENDS
PUBLIC	?uninitialized_copy@_STL@@YAPADPBD0PAD@Z	; _STL::uninitialized_copy
; Function compile flags: /Ogsy
; File c:\stlport-4.6.1\stlport\stl\_uninitialized.h
;	COMDAT ?uninitialized_copy@_STL@@YAPADPBD0PAD@Z
_TEXT	SEGMENT
___first$ = 8						; size = 4
___last$ = 12						; size = 4
___result$ = 16						; size = 4
?uninitialized_copy@_STL@@YAPADPBD0PAD@Z PROC NEAR	; _STL::uninitialized_copy, COMDAT

; 84   :   return  (char*)__copy_trivial (__first, __last, __result);

  00000	e9 00 00 00 00	 jmp	 ?__copy_trivial@_STL@@YAPAXPBX0PAX@Z ; _STL::__copy_trivial
?uninitialized_copy@_STL@@YAPADPBD0PAD@Z ENDP		; _STL::uninitialized_copy
_TEXT	ENDS
PUBLIC	?length@?$char_traits@D@_STL@@SAIPBD@Z		; _STL::char_traits<char>::length
EXTRN	_strlen:NEAR
; Function compile flags: /Ogsy
; File c:\stlport-4.6.1\stlport\stl\char_traits.h
;	COMDAT ?length@?$char_traits@D@_STL@@SAIPBD@Z
_TEXT	SEGMENT
___s$ = 8						; size = 4
?length@?$char_traits@D@_STL@@SAIPBD@Z PROC NEAR	; _STL::char_traits<char>::length, COMDAT

; 238  :   static size_t _STLP_CALL length(const char* __s) { return strlen(__s); }

  00000	e9 00 00 00 00	 jmp	 _strlen
?length@?$char_traits@D@_STL@@SAIPBD@Z ENDP		; _STL::char_traits<char>::length
_TEXT	ENDS
PUBLIC	?assign@?$char_traits@D@_STL@@SAXAADABD@Z	; _STL::char_traits<char>::assign
; Function compile flags: /Ogsy
;	COMDAT ?assign@?$char_traits@D@_STL@@SAXAADABD@Z
_TEXT	SEGMENT
___c1$ = 8						; size = 4
___c2$ = 12						; size = 4
?assign@?$char_traits@D@_STL@@SAXAADABD@Z PROC NEAR	; _STL::char_traits<char>::assign, COMDAT

; 240  :   static void _STLP_CALL assign(char& __c1, const char& __c2) { __c1 = __c2; }

  00000	8b 44 24 08	 mov	 eax, DWORD PTR ___c2$[esp-4]
  00004	8a 00		 mov	 al, BYTE PTR [eax]
  00006	8b 4c 24 04	 mov	 ecx, DWORD PTR ___c1$[esp-4]
  0000a	88 01		 mov	 BYTE PTR [ecx], al
  0000c	c3		 ret	 0
?assign@?$char_traits@D@_STL@@SAXAADABD@Z ENDP		; _STL::char_traits<char>::assign
_TEXT	ENDS
PUBLIC	?read@NPCInfo@@QAEXAAVSocketInputStream@@@Z	; NPCInfo::read
EXTRN	?read@SocketInputStream@@QAEIAAV?$basic_string@DV?$char_traits@D@_STL@@V?$allocator@D@2@@_STL@@I@Z:NEAR ; SocketInputStream::read
; Function compile flags: /Ogsy
; File c:\darkeden\designed_common\project\client\packet\npcinfo.cpp
;	COMDAT ?read@NPCInfo@@QAEXAAVSocketInputStream@@@Z
_TEXT	SEGMENT
_m_NameLength$ = -1					; size = 1
_iStream$ = 8						; size = 4
?read@NPCInfo@@QAEXAAVSocketInputStream@@@Z PROC NEAR	; NPCInfo::read, COMDAT
; _this$ = ecx

; 30   : {

  00000	55		 push	 ebp
  00001	8b ec		 mov	 ebp, esp
  00003	51		 push	 ecx
  00004	56		 push	 esi
  00005	57		 push	 edi

; 31   : 	__BEGIN_TRY
; 32   : 
; 33   : 	BYTE m_NameLength = 0;
; 34   : 	iStream.read( m_NameLength );

  00006	8b 7d 08	 mov	 edi, DWORD PTR _iStream$[ebp]
  00009	6a 01		 push	 1
  0000b	8d 45 ff	 lea	 eax, DWORD PTR _m_NameLength$[ebp]
  0000e	8b f1		 mov	 esi, ecx
  00010	50		 push	 eax
  00011	8b cf		 mov	 ecx, edi
  00013	c6 45 ff 00	 mov	 BYTE PTR _m_NameLength$[ebp], 0
  00017	e8 00 00 00 00	 call	 ?read@SocketInputStream@@QAEIPADI@Z ; SocketInputStream::read

; 35   : 
; 36   : 	if (m_NameLength > 0)

  0001c	80 7d ff 00	 cmp	 BYTE PTR _m_NameLength$[ebp], 0
  00020	76 34		 jbe	 SHORT $L110563

; 37   : 	{
; 38   : 		iStream.read( m_Name, m_NameLength );

  00022	0f b6 45 ff	 movzx	 eax, BYTE PTR _m_NameLength$[ebp]
  00026	50		 push	 eax
  00027	56		 push	 esi
  00028	8b cf		 mov	 ecx, edi
  0002a	e8 00 00 00 00	 call	 ?read@SocketInputStream@@QAEIAAV?$basic_string@DV?$char_traits@D@_STL@@V?$allocator@D@2@@_STL@@I@Z ; SocketInputStream::read

; 39   : 		iStream.read( m_NPCID );

  0002f	6a 02		 push	 2
  00031	8d 46 0c	 lea	 eax, DWORD PTR [esi+12]
  00034	50		 push	 eax
  00035	8b cf		 mov	 ecx, edi
  00037	e8 00 00 00 00	 call	 ?read@SocketInputStream@@QAEIPADI@Z ; SocketInputStream::read

; 40   : 		iStream.read( m_X );

  0003c	6a 02		 push	 2
  0003e	8d 46 0e	 lea	 eax, DWORD PTR [esi+14]
  00041	50		 push	 eax
  00042	8b cf		 mov	 ecx, edi
  00044	e8 00 00 00 00	 call	 ?read@SocketInputStream@@QAEIPADI@Z ; SocketInputStream::read

; 41   : 		iStream.read( m_Y );

  00049	6a 02		 push	 2
  0004b	83 c6 10	 add	 esi, 16			; 00000010H
  0004e	56		 push	 esi
  0004f	8b cf		 mov	 ecx, edi
  00051	e8 00 00 00 00	 call	 ?read@SocketInputStream@@QAEIPADI@Z ; SocketInputStream::read
$L110563:
  00056	5f		 pop	 edi
  00057	5e		 pop	 esi

; 42   : 	}
; 43   : 	__END_CATCH
; 44   : }

  00058	c9		 leave
  00059	c2 04 00	 ret	 4
?read@NPCInfo@@QAEXAAVSocketInputStream@@@Z ENDP	; NPCInfo::read
_TEXT	ENDS
PUBLIC	?size@?$basic_string@DV?$char_traits@D@_STL@@V?$allocator@D@2@@_STL@@QBEIXZ ; _STL::basic_string<char,_STL::char_traits<char>,_STL::allocator<char> >::size
; Function compile flags: /Ogsy
; File c:\stlport-4.6.1\stlport\stl\_string.h
;	COMDAT ?size@?$basic_string@DV?$char_traits@D@_STL@@V?$allocator@D@2@@_STL@@QBEIXZ
_TEXT	SEGMENT
?size@?$basic_string@DV?$char_traits@D@_STL@@V?$allocator@D@2@@_STL@@QBEIXZ PROC NEAR ; _STL::basic_string<char,_STL::char_traits<char>,_STL::allocator<char> >::size, COMDAT
; _this$ = ecx

; 431  :   size_type size() const { return this->_M_finish - this->_M_start; }

  00000	8b 41 04	 mov	 eax, DWORD PTR [ecx+4]
  00003	2b 01		 sub	 eax, DWORD PTR [ecx]
  00005	c3		 ret	 0
?size@?$basic_string@DV?$char_traits@D@_STL@@V?$allocator@D@2@@_STL@@QBEIXZ ENDP ; _STL::basic_string<char,_STL::char_traits<char>,_STL::allocator<char> >::size
_TEXT	ENDS
PUBLIC	?c_str@?$basic_string@DV?$char_traits@D@_STL@@V?$allocator@D@2@@_STL@@QBEPBDXZ ; _STL::basic_string<char,_STL::char_traits<char>,_STL::allocator<char> >::c_str
; Function compile flags: /Ogsy
;	COMDAT ?c_str@?$basic_string@DV?$char_traits@D@_STL@@V?$allocator@D@2@@_STL@@QBEPBDXZ
_TEXT	SEGMENT
?c_str@?$basic_string@DV?$char_traits@D@_STL@@V?$allocator@D@2@@_STL@@QBEPBDXZ PROC NEAR ; _STL::basic_string<char,_STL::char_traits<char>,_STL::allocator<char> >::c_str, COMDAT
; _this$ = ecx

; 1065 :   const _CharT* c_str() const { return this->_M_start; }

  00000	8b 01		 mov	 eax, DWORD PTR [ecx]
  00002	c3		 ret	 0
?c_str@?$basic_string@DV?$char_traits@D@_STL@@V?$allocator@D@2@@_STL@@QBEPBDXZ ENDP ; _STL::basic_string<char,_STL::char_traits<char>,_STL::allocator<char> >::c_str
_TEXT	ENDS
PUBLIC	?_M_terminate_string_aux@?$basic_string@DV?$char_traits@D@_STL@@V?$allocator@D@2@@_STL@@AAEXABU__true_type@2@@Z ; _STL::basic_string<char,_STL::char_traits<char>,_STL::allocator<char> >::_M_terminate_string_aux
; Function compile flags: /Ogsy
;	COMDAT ?_M_terminate_string_aux@?$basic_string@DV?$char_traits@D@_STL@@V?$allocator@D@2@@_STL@@AAEXABU__true_type@2@@Z
_TEXT	SEGMENT
___formal$ = 8						; size = 4
?_M_terminate_string_aux@?$basic_string@DV?$char_traits@D@_STL@@V?$allocator@D@2@@_STL@@AAEXABU__true_type@2@@Z PROC NEAR ; _STL::basic_string<char,_STL::char_traits<char>,_STL::allocator<char> >::_M_terminate_string_aux, COMDAT
; _this$ = ecx

; 351  :     *(this->_M_finish)=0;

  00000	8b 41 04	 mov	 eax, DWORD PTR [ecx+4]
  00003	c6 00 00	 mov	 BYTE PTR [eax], 0

; 352  :   }

  00006	c2 04 00	 ret	 4
?_M_terminate_string_aux@?$basic_string@DV?$char_traits@D@_STL@@V?$allocator@D@2@@_STL@@AAEXABU__true_type@2@@Z ENDP ; _STL::basic_string<char,_STL::char_traits<char>,_STL::allocator<char> >::_M_terminate_string_aux
_TEXT	ENDS
PUBLIC	??0?$allocator@D@_STL@@QAE@ABV01@@Z		; _STL::allocator<char>::allocator<char>
; Function compile flags: /Ogsy
; File c:\stlport-4.6.1\stlport\stl\_alloc.h
;	COMDAT ??0?$allocator@D@_STL@@QAE@ABV01@@Z
_TEXT	SEGMENT
___formal$ = 8						; size = 4
??0?$allocator@D@_STL@@QAE@ABV01@@Z PROC NEAR		; _STL::allocator<char>::allocator<char>, COMDAT
; _this$ = ecx

; 349  :   allocator(const allocator<_Tp>&) _STLP_NOTHROW {}

  00000	8b c1		 mov	 eax, ecx
  00002	c2 04 00	 ret	 4
??0?$allocator@D@_STL@@QAE@ABV01@@Z ENDP		; _STL::allocator<char>::allocator<char>
_TEXT	ENDS
PUBLIC	?copy@?$__char_traits_base@DH@_STL@@SAPADPADPBDI@Z ; _STL::__char_traits_base<char,int>::copy
EXTRN	_memcpy:NEAR
; Function compile flags: /Ogsy
; File c:\stlport-4.6.1\stlport\stl\char_traits.h
;	COMDAT ?copy@?$__char_traits_base@DH@_STL@@SAPADPADPBDI@Z
_TEXT	SEGMENT
___s1$ = 8						; size = 4
___s2$ = 12						; size = 4
___n$ = 16						; size = 4
?copy@?$__char_traits_base@DH@_STL@@SAPADPADPBDI@Z PROC NEAR ; _STL::__char_traits_base<char,int>::copy, COMDAT

; 169  :   static _CharT* _STLP_CALL copy(_CharT* __s1, const _CharT* __s2, size_t __n) {

  00000	55		 push	 ebp
  00001	8b ec		 mov	 ebp, esp

; 170  :     return (__n == 0 ? __s1 :
; 171  : 	    (_CharT*)memcpy(__s1, __s2, __n * sizeof(_CharT)));

  00003	83 7d 10 00	 cmp	 DWORD PTR ___n$[ebp], 0
  00007	75 05		 jne	 SHORT $L110579
  00009	8b 45 08	 mov	 eax, DWORD PTR ___s1$[ebp]

; 172  :     } 

  0000c	5d		 pop	 ebp
  0000d	c3		 ret	 0
$L110579:
  0000e	5d		 pop	 ebp

; 170  :     return (__n == 0 ? __s1 :
; 171  : 	    (_CharT*)memcpy(__s1, __s2, __n * sizeof(_CharT)));

  0000f	e9 00 00 00 00	 jmp	 _memcpy
?copy@?$__char_traits_base@DH@_STL@@SAPADPADPBDI@Z ENDP	; _STL::__char_traits_base<char,int>::copy
_TEXT	ENDS
PUBLIC	?begin@?$basic_string@DV?$char_traits@D@_STL@@V?$allocator@D@2@@_STL@@QAEPADXZ ; _STL::basic_string<char,_STL::char_traits<char>,_STL::allocator<char> >::begin
; Function compile flags: /Ogsy
; File c:\stlport-4.6.1\stlport\stl\_string.h
;	COMDAT ?begin@?$basic_string@DV?$char_traits@D@_STL@@V?$allocator@D@2@@_STL@@QAEPADXZ
_TEXT	SEGMENT
?begin@?$basic_string@DV?$char_traits@D@_STL@@V?$allocator@D@2@@_STL@@QAEPADXZ PROC NEAR ; _STL::basic_string<char,_STL::char_traits<char>,_STL::allocator<char> >::begin, COMDAT
; _this$ = ecx

; 416  :   iterator begin()             { return this->_M_start; }

  00000	8b 01		 mov	 eax, DWORD PTR [ecx]
  00002	c3		 ret	 0
?begin@?$basic_string@DV?$char_traits@D@_STL@@V?$allocator@D@2@@_STL@@QAEPADXZ ENDP ; _STL::basic_string<char,_STL::char_traits<char>,_STL::allocator<char> >::begin
_TEXT	ENDS
PUBLIC	?end@?$basic_string@DV?$char_traits@D@_STL@@V?$allocator@D@2@@_STL@@QAEPADXZ ; _STL::basic_string<char,_STL::char_traits<char>,_STL::allocator<char> >::end
; Function compile flags: /Ogsy
;	COMDAT ?end@?$basic_string@DV?$char_traits@D@_STL@@V?$allocator@D@2@@_STL@@QAEPADXZ
_TEXT	SEGMENT
?end@?$basic_string@DV?$char_traits@D@_STL@@V?$allocator@D@2@@_STL@@QAEPADXZ PROC NEAR ; _STL::basic_string<char,_STL::char_traits<char>,_STL::allocator<char> >::end, COMDAT
; _this$ = ecx

; 417  :   iterator end()               { return this->_M_finish; }

  00000	8b 41 04	 mov	 eax, DWORD PTR [ecx+4]
  00003	c3		 ret	 0
?end@?$basic_string@DV?$char_traits@D@_STL@@V?$allocator@D@2@@_STL@@QAEPADXZ ENDP ; _STL::basic_string<char,_STL::char_traits<char>,_STL::allocator<char> >::end
_TEXT	ENDS
PUBLIC	?move@?$__char_traits_base@DH@_STL@@SAPADPADPBDI@Z ; _STL::__char_traits_base<char,int>::move
; Function compile flags: /Ogsy
; File c:\stlport-4.6.1\stlport\stl\char_traits.h
;	COMDAT ?move@?$__char_traits_base@DH@_STL@@SAPADPADPBDI@Z
_TEXT	SEGMENT
___s1$ = 8						; size = 4
___s2$ = 12						; size = 4
__Sz$ = 16						; size = 4
?move@?$__char_traits_base@DH@_STL@@SAPADPADPBDI@Z PROC NEAR ; _STL::__char_traits_base<char,int>::move, COMDAT

; 165  :   static _CharT* _STLP_CALL move(_CharT* __s1, const _CharT* __s2, size_t _Sz) {    

  00000	55		 push	 ebp
  00001	8b ec		 mov	 ebp, esp

; 166  :     return (_Sz == 0 ? __s1 : (_CharT*)memmove(__s1, __s2, _Sz * sizeof(_CharT)));

  00003	83 7d 10 00	 cmp	 DWORD PTR __Sz$[ebp], 0
  00007	75 05		 jne	 SHORT $L110590
  00009	8b 45 08	 mov	 eax, DWORD PTR ___s1$[ebp]

; 167  :   }

  0000c	5d		 pop	 ebp
  0000d	c3		 ret	 0
$L110590:
  0000e	5d		 pop	 ebp

; 166  :     return (_Sz == 0 ? __s1 : (_CharT*)memmove(__s1, __s2, _Sz * sizeof(_CharT)));

  0000f	e9 00 00 00 00	 jmp	 _memmove
?move@?$__char_traits_base@DH@_STL@@SAPADPADPBDI@Z ENDP	; _STL::__char_traits_base<char,int>::move
_TEXT	ENDS
PUBLIC	?capacity@?$basic_string@DV?$char_traits@D@_STL@@V?$allocator@D@2@@_STL@@QBEIXZ ; _STL::basic_string<char,_STL::char_traits<char>,_STL::allocator<char> >::capacity
; Function compile flags: /Ogsy
; File c:\stlport-4.6.1\stlport\stl\_string.h
;	COMDAT ?capacity@?$basic_string@DV?$char_traits@D@_STL@@V?$allocator@D@2@@_STL@@QBEIXZ
_TEXT	SEGMENT
?capacity@?$basic_string@DV?$char_traits@D@_STL@@V?$allocator@D@2@@_STL@@QBEIXZ PROC NEAR ; _STL::basic_string<char,_STL::char_traits<char>,_STL::allocator<char> >::capacity, COMDAT
; _this$ = ecx

; 447  :   size_type capacity() const { return (this->_M_end_of_storage._M_data - this->_M_start) - 1; }

  00000	8b 41 08	 mov	 eax, DWORD PTR [ecx+8]
  00003	2b 01		 sub	 eax, DWORD PTR [ecx]
  00005	48		 dec	 eax
  00006	c3		 ret	 0
?capacity@?$basic_string@DV?$char_traits@D@_STL@@V?$allocator@D@2@@_STL@@QBEIXZ ENDP ; _STL::basic_string<char,_STL::char_traits<char>,_STL::allocator<char> >::capacity
_TEXT	ENDS
PUBLIC	?max_size@?$_String_base@DV?$allocator@D@_STL@@@_STL@@QBEIXZ ; _STL::_String_base<char,_STL::allocator<char> >::max_size
; Function compile flags: /Ogsy
;	COMDAT ?max_size@?$_String_base@DV?$allocator@D@_STL@@@_STL@@QBEIXZ
_TEXT	SEGMENT
?max_size@?$_String_base@DV?$allocator@D@_STL@@@_STL@@QBEIXZ PROC NEAR ; _STL::_String_base<char,_STL::allocator<char> >::max_size, COMDAT
; _this$ = ecx

; 126  :   size_t max_size() const { return (size_t(-1) / sizeof(_Tp)) - 1; }

  00000	6a fe		 push	 -2			; fffffffeH
  00002	58		 pop	 eax
  00003	c3		 ret	 0
?max_size@?$_String_base@DV?$allocator@D@_STL@@@_STL@@QBEIXZ ENDP ; _STL::_String_base<char,_STL::allocator<char> >::max_size
_TEXT	ENDS
PUBLIC	?_M_construct_null_aux@?$basic_string@DV?$char_traits@D@_STL@@V?$allocator@D@2@@_STL@@AAEXPADABU__true_type@2@@Z ; _STL::basic_string<char,_STL::char_traits<char>,_STL::allocator<char> >::_M_construct_null_aux
; Function compile flags: /Ogsy
;	COMDAT ?_M_construct_null_aux@?$basic_string@DV?$char_traits@D@_STL@@V?$allocator@D@2@@_STL@@AAEXPADABU__true_type@2@@Z
_TEXT	SEGMENT
___p$ = 8						; size = 4
___formal$ = 12						; size = 4
?_M_construct_null_aux@?$basic_string@DV?$char_traits@D@_STL@@V?$allocator@D@2@@_STL@@AAEXPADABU__true_type@2@@Z PROC NEAR ; _STL::basic_string<char,_STL::char_traits<char>,_STL::allocator<char> >::_M_construct_null_aux, COMDAT
; _this$ = ecx

; 332  :     *__p = 0;

  00000	8b 44 24 04	 mov	 eax, DWORD PTR ___p$[esp-4]
  00004	c6 00 00	 mov	 BYTE PTR [eax], 0

; 333  :   }

  00007	c2 08 00	 ret	 8
?_M_construct_null_aux@?$basic_string@DV?$char_traits@D@_STL@@V?$allocator@D@2@@_STL@@AAEXPADABU__true_type@2@@Z ENDP ; _STL::basic_string<char,_STL::char_traits<char>,_STL::allocator<char> >::_M_construct_null_aux
_TEXT	ENDS
PUBLIC	??$__distance@PBD@_STL@@YAHABQBD0ABUrandom_access_iterator_tag@0@@Z ; _STL::__distance<char const *>
; Function compile flags: /Ogsy
; File c:\stlport-4.6.1\stlport\stl\_iterator_base.h
;	COMDAT ??$__distance@PBD@_STL@@YAHABQBD0ABUrandom_access_iterator_tag@0@@Z
_TEXT	SEGMENT
___first$ = 8						; size = 4
___last$ = 12						; size = 4
___formal$ = 16						; size = 4
??$__distance@PBD@_STL@@YAHABQBD0ABUrandom_access_iterator_tag@0@@Z PROC NEAR ; _STL::__distance<char const *>, COMDAT

; 363  :   return __last - __first;

  00000	8b 44 24 08	 mov	 eax, DWORD PTR ___last$[esp-4]
  00004	8b 00		 mov	 eax, DWORD PTR [eax]
  00006	8b 4c 24 04	 mov	 ecx, DWORD PTR ___first$[esp-4]
  0000a	2b 01		 sub	 eax, DWORD PTR [ecx]

; 364  : }

  0000c	c3		 ret	 0
??$__distance@PBD@_STL@@YAHABQBD0ABUrandom_access_iterator_tag@0@@Z ENDP ; _STL::__distance<char const *>
_TEXT	ENDS
PUBLIC	??_C@_0N@GOPDCEEB@basic_string?$AA@		; `string'
PUBLIC	?_M_throw_length_error@?$_String_base@DV?$allocator@D@_STL@@@_STL@@QBEXXZ ; _STL::_String_base<char,_STL::allocator<char> >::_M_throw_length_error
EXTRN	?__stl_throw_length_error@_STL@@YAXPBD@Z:NEAR	; _STL::__stl_throw_length_error
;	COMDAT ??_C@_0N@GOPDCEEB@basic_string?$AA@
; File c:\stlport-4.6.1\stlport\stl\_string.c
CONST	SEGMENT
??_C@_0N@GOPDCEEB@basic_string?$AA@ DB 'basic_string', 00H ; `string'
; Function compile flags: /Ogsy
CONST	ENDS
;	COMDAT ?_M_throw_length_error@?$_String_base@DV?$allocator@D@_STL@@@_STL@@QBEXXZ
_TEXT	SEGMENT
?_M_throw_length_error@?$_String_base@DV?$allocator@D@_STL@@@_STL@@QBEXXZ PROC NEAR ; _STL::_String_base<char,_STL::allocator<char> >::_M_throw_length_error, COMDAT
; _this$ = ecx

; 523  :     __stl_throw_length_error("basic_string");

  00000	68 00 00 00 00	 push	 OFFSET FLAT:??_C@_0N@GOPDCEEB@basic_string?$AA@
  00005	e8 00 00 00 00	 call	 ?__stl_throw_length_error@_STL@@YAXPBD@Z ; _STL::__stl_throw_length_error
  0000a	59		 pop	 ecx

; 524  : }

  0000b	c3		 ret	 0
?_M_throw_length_error@?$_String_base@DV?$allocator@D@_STL@@@_STL@@QBEXXZ ENDP ; _STL::_String_base<char,_STL::allocator<char> >::_M_throw_length_error
_TEXT	ENDS
PUBLIC	??$max@I@_STL@@YAABIABI0@Z			; _STL::max<unsigned int>
; Function compile flags: /Ogsy
; File c:\stlport-4.6.1\stlport\stl\_algobase.h
;	COMDAT ??$max@I@_STL@@YAABIABI0@Z
_TEXT	SEGMENT
___a$ = 8						; size = 4
___b$ = 12						; size = 4
??$max@I@_STL@@YAABIABI0@Z PROC NEAR			; _STL::max<unsigned int>, COMDAT

; 79   : inline const _Tp& (max)(const _Tp& __a, const _Tp& __b) {  return  __a < __b ? __b : __a; }

  00000	8b 44 24 04	 mov	 eax, DWORD PTR ___a$[esp-4]
  00004	8b 10		 mov	 edx, DWORD PTR [eax]
  00006	8b 4c 24 08	 mov	 ecx, DWORD PTR ___b$[esp-4]
  0000a	3b 11		 cmp	 edx, DWORD PTR [ecx]
  0000c	73 02		 jae	 SHORT $L110612
  0000e	8b c1		 mov	 eax, ecx
$L110612:
  00010	c3		 ret	 0
??$max@I@_STL@@YAABIABI0@Z ENDP				; _STL::max<unsigned int>
_TEXT	ENDS
PUBLIC	?_Ret@?$_BothPtrType@PADPAD@_STL@@SA?AU__true_type@2@XZ ; _STL::_BothPtrType<char *,char *>::_Ret
; Function compile flags: /Ogsy
; File c:\stlport-4.6.1\stlport\stl\type_traits.h
;	COMDAT ?_Ret@?$_BothPtrType@PADPAD@_STL@@SA?AU__true_type@2@XZ
_TEXT	SEGMENT
$T110616 = -1						; size = 1
?_Ret@?$_BothPtrType@PADPAD@_STL@@SA?AU__true_type@2@XZ PROC NEAR ; _STL::_BothPtrType<char *,char *>::_Ret, COMDAT

; 234  :   static __true_type _Ret() { return __true_type();} 

  00000	55		 push	 ebp
  00001	8b ec		 mov	 ebp, esp
  00003	51		 push	 ecx
  00004	57		 push	 edi
  00005	33 c0		 xor	 eax, eax
  00007	8d 7d ff	 lea	 edi, DWORD PTR $T110616[ebp]
  0000a	aa		 stosb
  0000b	8a 45 ff	 mov	 al, BYTE PTR $T110616[ebp]
  0000e	5f		 pop	 edi
  0000f	c9		 leave
  00010	c3		 ret	 0
?_Ret@?$_BothPtrType@PADPAD@_STL@@SA?AU__true_type@2@XZ ENDP ; _STL::_BothPtrType<char *,char *>::_Ret
_TEXT	ENDS
PUBLIC	?_Ret@?$_OKToMemCpy@DD@_STL@@SA?AU__true_type@2@XZ ; _STL::_OKToMemCpy<char,char>::_Ret
; Function compile flags: /Ogsy
;	COMDAT ?_Ret@?$_OKToMemCpy@DD@_STL@@SA?AU__true_type@2@XZ
_TEXT	SEGMENT
$T110619 = -1						; size = 1
?_Ret@?$_OKToMemCpy@DD@_STL@@SA?AU__true_type@2@XZ PROC NEAR ; _STL::_OKToMemCpy<char,char>::_Ret, COMDAT

; 361  :   static _Type _Ret() { return _Type(); }

  00000	55		 push	 ebp
  00001	8b ec		 mov	 ebp, esp
  00003	51		 push	 ecx
  00004	57		 push	 edi
  00005	33 c0		 xor	 eax, eax
  00007	8d 7d ff	 lea	 edi, DWORD PTR $T110619[ebp]
  0000a	aa		 stosb
  0000b	8a 45 ff	 mov	 al, BYTE PTR $T110619[ebp]
  0000e	5f		 pop	 edi
  0000f	c9		 leave
  00010	c3		 ret	 0
?_Ret@?$_OKToMemCpy@DD@_STL@@SA?AU__true_type@2@XZ ENDP	; _STL::_OKToMemCpy<char,char>::_Ret
_TEXT	ENDS
PUBLIC	??$_IsOKToMemCpy@DD@_STL@@YA?AU?$_OKToMemCpy@DD@0@PAD0@Z ; _STL::_IsOKToMemCpy<char,char>
; Function compile flags: /Ogsy
;	COMDAT ??$_IsOKToMemCpy@DD@_STL@@YA?AU?$_OKToMemCpy@DD@0@PAD0@Z
_TEXT	SEGMENT
$T110622 = -1						; size = 1
___formal$ = 8						; size = 4
___formal$ = 12						; size = 4
??$_IsOKToMemCpy@DD@_STL@@YA?AU?$_OKToMemCpy@DD@0@PAD0@Z PROC NEAR ; _STL::_IsOKToMemCpy<char,char>, COMDAT

; 365  : inline _OKToMemCpy<_Tp1, _Tp2> _IsOKToMemCpy(_Tp1*, _Tp2*)  {

  00000	55		 push	 ebp
  00001	8b ec		 mov	 ebp, esp
  00003	51		 push	 ecx
  00004	57		 push	 edi

; 366  :   return _OKToMemCpy<_Tp1, _Tp2>();

  00005	33 c0		 xor	 eax, eax
  00007	8d 7d ff	 lea	 edi, DWORD PTR $T110622[ebp]
  0000a	aa		 stosb
  0000b	8a 45 ff	 mov	 al, BYTE PTR $T110622[ebp]
  0000e	5f		 pop	 edi

; 367  : }

  0000f	c9		 leave
  00010	c3		 ret	 0
??$_IsOKToMemCpy@DD@_STL@@YA?AU?$_OKToMemCpy@DD@0@PAD0@Z ENDP ; _STL::_IsOKToMemCpy<char,char>
_TEXT	ENDS
PUBLIC	??$__copy_ptrs@PADPAD@_STL@@YAPADPAD00ABU__true_type@0@@Z ; _STL::__copy_ptrs<char *,char *>
; Function compile flags: /Ogsy
; File c:\stlport-4.6.1\stlport\stl\_algobase.h
;	COMDAT ??$__copy_ptrs@PADPAD@_STL@@YAPADPAD00ABU__true_type@0@@Z
_TEXT	SEGMENT
___first$ = 8						; size = 4
___last$ = 12						; size = 4
___result$ = 16						; size = 4
___formal$ = 20						; size = 4
??$__copy_ptrs@PADPAD@_STL@@YAPADPAD00ABU__true_type@0@@Z PROC NEAR ; _STL::__copy_ptrs<char *,char *>, COMDAT

; 195  : // we know they all pointers, so this cast is OK 
; 196  :   //  return (_OutputIter)__copy_trivial(&(*__first), &(*__last), &(*__result));
; 197  :   return (_OutputIter)__copy_trivial(__first, __last, __result);

  00000	ff 74 24 0c	 push	 DWORD PTR ___result$[esp-4]
  00004	ff 74 24 0c	 push	 DWORD PTR ___last$[esp]
  00008	ff 74 24 0c	 push	 DWORD PTR ___first$[esp+4]
  0000c	e8 00 00 00 00	 call	 ?__copy_trivial@_STL@@YAPAXPBX0PAX@Z ; _STL::__copy_trivial
  00011	83 c4 0c	 add	 esp, 12			; 0000000cH

; 198  : }

  00014	c3		 ret	 0
??$__copy_ptrs@PADPAD@_STL@@YAPADPAD00ABU__true_type@0@@Z ENDP ; _STL::__copy_ptrs<char *,char *>
_TEXT	ENDS
PUBLIC	??0?$allocator@D@_STL@@QAE@XZ			; _STL::allocator<char>::allocator<char>
; Function compile flags: /Ogsy
; File c:\stlport-4.6.1\stlport\stl\_alloc.h
;	COMDAT ??0?$allocator@D@_STL@@QAE@XZ
_TEXT	SEGMENT
??0?$allocator@D@_STL@@QAE@XZ PROC NEAR			; _STL::allocator<char>::allocator<char>, COMDAT
; _this$ = ecx

; 345  :   allocator() _STLP_NOTHROW {}

  00000	8b c1		 mov	 eax, ecx
  00002	c3		 ret	 0
??0?$allocator@D@_STL@@QAE@XZ ENDP			; _STL::allocator<char>::allocator<char>
_TEXT	ENDS
PUBLIC	??1?$allocator@D@_STL@@QAE@XZ			; _STL::allocator<char>::~allocator<char>
; Function compile flags: /Ogsy
;	COMDAT ??1?$allocator@D@_STL@@QAE@XZ
_TEXT	SEGMENT
??1?$allocator@D@_STL@@QAE@XZ PROC NEAR			; _STL::allocator<char>::~allocator<char>, COMDAT
; _this$ = ecx

; 350  :   ~allocator() _STLP_NOTHROW {}

  00000	c3		 ret	 0
??1?$allocator@D@_STL@@QAE@XZ ENDP			; _STL::allocator<char>::~allocator<char>
_TEXT	ENDS
PUBLIC	??1?$_STLP_alloc_proxy@PADDV?$allocator@D@_STL@@@_STL@@QAE@XZ ; _STL::_STLP_alloc_proxy<char *,char,_STL::allocator<char> >::~_STLP_alloc_proxy<char *,char,_STL::allocator<char> >
; Function compile flags: /Ogsy
;	COMDAT ??1?$_STLP_alloc_proxy@PADDV?$allocator@D@_STL@@@_STL@@QAE@XZ
_TEXT	SEGMENT
??1?$_STLP_alloc_proxy@PADDV?$allocator@D@_STL@@@_STL@@QAE@XZ PROC NEAR ; _STL::_STLP_alloc_proxy<char *,char,_STL::allocator<char> >::~_STLP_alloc_proxy<char *,char,_STL::allocator<char> >, COMDAT
; _this$ = ecx
  00000	c3		 ret	 0
??1?$_STLP_alloc_proxy@PADDV?$allocator@D@_STL@@@_STL@@QAE@XZ ENDP ; _STL::_STLP_alloc_proxy<char *,char,_STL::allocator<char> >::~_STLP_alloc_proxy<char *,char,_STL::allocator<char> >
_TEXT	ENDS
PUBLIC	?allocate@?$__node_alloc@$00$0A@@_STL@@SAPAXI@Z	; _STL::__node_alloc<1,0>::allocate
EXTRN	?_M_allocate@?$__node_alloc@$00$0A@@_STL@@CAPAXI@Z:NEAR ; _STL::__node_alloc<1,0>::_M_allocate
; Function compile flags: /Ogsy
;	COMDAT ?allocate@?$__node_alloc@$00$0A@@_STL@@SAPAXI@Z
_TEXT	SEGMENT
___n$ = 8						; size = 4
?allocate@?$__node_alloc@$00$0A@@_STL@@SAPAXI@Z PROC NEAR ; _STL::__node_alloc<1,0>::allocate, COMDAT

; 251  :   static void * _STLP_CALL allocate(size_t __n) { return (__n > (size_t)_MAX_BYTES) ?  __stl_new(__n) : _M_allocate(__n); }

  00000	8b 44 24 04	 mov	 eax, DWORD PTR ___n$[esp-4]
  00004	3d 80 00 00 00	 cmp	 eax, 128		; 00000080H
  00009	50		 push	 eax
  0000a	76 07		 jbe	 SHORT $L110640
  0000c	e8 00 00 00 00	 call	 ??2@YAPAXI@Z		; operator new
  00011	59		 pop	 ecx
  00012	c3		 ret	 0
$L110640:
  00013	e8 00 00 00 00	 call	 ?_M_allocate@?$__node_alloc@$00$0A@@_STL@@CAPAXI@Z ; _STL::__node_alloc<1,0>::_M_allocate
  00018	59		 pop	 ecx
  00019	c3		 ret	 0
?allocate@?$__node_alloc@$00$0A@@_STL@@SAPAXI@Z ENDP	; _STL::__node_alloc<1,0>::allocate
_TEXT	ENDS
PUBLIC	?deallocate@?$__node_alloc@$00$0A@@_STL@@SAXPAXI@Z ; _STL::__node_alloc<1,0>::deallocate
EXTRN	?_M_deallocate@?$__node_alloc@$00$0A@@_STL@@CAXPAXI@Z:NEAR ; _STL::__node_alloc<1,0>::_M_deallocate
; Function compile flags: /Ogsy
;	COMDAT ?deallocate@?$__node_alloc@$00$0A@@_STL@@SAXPAXI@Z
_TEXT	SEGMENT
___p$ = 8						; size = 4
___n$ = 12						; size = 4
?deallocate@?$__node_alloc@$00$0A@@_STL@@SAXPAXI@Z PROC NEAR ; _STL::__node_alloc<1,0>::deallocate, COMDAT

; 253  :   static void _STLP_CALL deallocate(void *__p, size_t __n) { if (__n > (size_t)_MAX_BYTES) __stl_delete(__p); else _M_deallocate(__p, __n); }

  00000	81 7c 24 08 80
	00 00 00	 cmp	 DWORD PTR ___n$[esp-4], 128 ; 00000080H
  00008	76 0b		 jbe	 SHORT $L98677
  0000a	ff 74 24 04	 push	 DWORD PTR ___p$[esp-4]
  0000e	e8 00 00 00 00	 call	 ??3@YAXPAX@Z		; operator delete
  00013	59		 pop	 ecx
  00014	c3		 ret	 0
$L98677:
  00015	e9 00 00 00 00	 jmp	 ?_M_deallocate@?$__node_alloc@$00$0A@@_STL@@CAXPAXI@Z ; _STL::__node_alloc<1,0>::_M_deallocate
?deallocate@?$__node_alloc@$00$0A@@_STL@@SAXPAXI@Z ENDP	; _STL::__node_alloc<1,0>::deallocate
_TEXT	ENDS
PUBLIC	?write@SocketOutputStream@@QAEIABV?$basic_string@DV?$char_traits@D@_STL@@V?$allocator@D@2@@_STL@@@Z ; SocketOutputStream::write
; Function compile flags: /Ogsy
; File c:\darkeden\designed_common\project\client\packet\socketoutputstream.h
;	COMDAT ?write@SocketOutputStream@@QAEIABV?$basic_string@DV?$char_traits@D@_STL@@V?$allocator@D@2@@_STL@@@Z
_TEXT	SEGMENT
_buf$ = 8						; size = 4
?write@SocketOutputStream@@QAEIABV?$basic_string@DV?$char_traits@D@_STL@@V?$allocator@D@2@@_STL@@@Z PROC NEAR ; SocketOutputStream::write, COMDAT
; _this$ = ecx

; 57   : 	uint write ( const std::string & buf ) throw ( Error ) { return write(buf.c_str(),buf.size()); }

  00000	8b 44 24 04	 mov	 eax, DWORD PTR _buf$[esp-4]
  00004	8b 10		 mov	 edx, DWORD PTR [eax]
  00006	8b 40 04	 mov	 eax, DWORD PTR [eax+4]
  00009	2b c2		 sub	 eax, edx
  0000b	50		 push	 eax
  0000c	52		 push	 edx
  0000d	e8 00 00 00 00	 call	 ?write@SocketOutputStream@@QAEIPBDI@Z ; SocketOutputStream::write
  00012	c2 04 00	 ret	 4
?write@SocketOutputStream@@QAEIABV?$basic_string@DV?$char_traits@D@_STL@@V?$allocator@D@2@@_STL@@@Z ENDP ; SocketOutputStream::write
_TEXT	ENDS
PUBLIC	?write@NPCInfo@@QBEXAAVSocketOutputStream@@@Z	; NPCInfo::write
; Function compile flags: /Ogsy
; File c:\darkeden\designed_common\project\client\packet\npcinfo.cpp
;	COMDAT ?write@NPCInfo@@QBEXAAVSocketOutputStream@@@Z
_TEXT	SEGMENT
$T110671 = -4						; size = 1
$T110675 = 8						; size = 2
$T110679 = 8						; size = 2
$T110683 = 8						; size = 2
_oStream$ = 8						; size = 4
?write@NPCInfo@@QBEXAAVSocketOutputStream@@@Z PROC NEAR	; NPCInfo::write, COMDAT
; _this$ = ecx

; 48   : {

  00000	55		 push	 ebp
  00001	8b ec		 mov	 ebp, esp
  00003	51		 push	 ecx
  00004	53		 push	 ebx
  00005	56		 push	 esi
  00006	8b f1		 mov	 esi, ecx

; 49   : 	__BEGIN_TRY
; 50   : 
; 51   : 	BYTE m_NameLength = m_Name.size();

  00008	8a 5e 04	 mov	 bl, BYTE PTR [esi+4]
  0000b	2a 1e		 sub	 bl, BYTE PTR [esi]
  0000d	57		 push	 edi

; 52   : 	oStream.write(m_NameLength);

  0000e	8b 7d 08	 mov	 edi, DWORD PTR _oStream$[ebp]
  00011	6a 01		 push	 1
  00013	8d 45 fc	 lea	 eax, DWORD PTR $T110671[ebp]
  00016	50		 push	 eax
  00017	8b cf		 mov	 ecx, edi
  00019	88 5d fc	 mov	 BYTE PTR $T110671[ebp], bl
  0001c	e8 00 00 00 00	 call	 ?write@SocketOutputStream@@QAEIPBDI@Z ; SocketOutputStream::write

; 53   : 
; 54   : 	if (m_NameLength > 0)

  00021	84 db		 test	 bl, bl
  00023	76 4a		 jbe	 SHORT $L110682

; 55   : 	{
; 56   : 		oStream.write( m_Name );

  00025	56		 push	 esi
  00026	8b cf		 mov	 ecx, edi
  00028	e8 00 00 00 00	 call	 ?write@SocketOutputStream@@QAEIABV?$basic_string@DV?$char_traits@D@_STL@@V?$allocator@D@2@@_STL@@@Z ; SocketOutputStream::write

; 57   : 		oStream.write( m_NPCID );

  0002d	33 c0		 xor	 eax, eax
  0002f	66 8b 46 0c	 mov	 ax, WORD PTR [esi+12]
  00033	6a 02		 push	 2
  00035	8b cf		 mov	 ecx, edi
  00037	89 45 08	 mov	 DWORD PTR $T110675[ebp], eax
  0003a	8d 45 08	 lea	 eax, DWORD PTR $T110675[ebp]
  0003d	50		 push	 eax
  0003e	e8 00 00 00 00	 call	 ?write@SocketOutputStream@@QAEIPBDI@Z ; SocketOutputStream::write

; 58   : 		oStream.write( m_X );

  00043	33 c0		 xor	 eax, eax
  00045	66 8b 46 0e	 mov	 ax, WORD PTR [esi+14]
  00049	6a 02		 push	 2
  0004b	8b cf		 mov	 ecx, edi
  0004d	89 45 08	 mov	 DWORD PTR $T110679[ebp], eax
  00050	8d 45 08	 lea	 eax, DWORD PTR $T110679[ebp]
  00053	50		 push	 eax
  00054	e8 00 00 00 00	 call	 ?write@SocketOutputStream@@QAEIPBDI@Z ; SocketOutputStream::write

; 59   : 		oStream.write( m_Y );

  00059	33 c0		 xor	 eax, eax
  0005b	66 8b 46 10	 mov	 ax, WORD PTR [esi+16]
  0005f	6a 02		 push	 2
  00061	8b cf		 mov	 ecx, edi
  00063	89 45 08	 mov	 DWORD PTR $T110683[ebp], eax
  00066	8d 45 08	 lea	 eax, DWORD PTR $T110683[ebp]
  00069	50		 push	 eax
  0006a	e8 00 00 00 00	 call	 ?write@SocketOutputStream@@QAEIPBDI@Z ; SocketOutputStream::write
$L110682:
  0006f	5f		 pop	 edi
  00070	5e		 pop	 esi
  00071	5b		 pop	 ebx

; 60   : 	}
; 61   : 	
; 62   : 	__END_CATCH
; 63   : }

  00072	c9		 leave
  00073	c2 04 00	 ret	 4
?write@NPCInfo@@QBEXAAVSocketOutputStream@@@Z ENDP	; NPCInfo::write
_TEXT	ENDS
PUBLIC	?_M_terminate_string@?$basic_string@DV?$char_traits@D@_STL@@V?$allocator@D@2@@_STL@@AAEXXZ ; _STL::basic_string<char,_STL::char_traits<char>,_STL::allocator<char> >::_M_terminate_string
; Function compile flags: /Ogsy
; File c:\stlport-4.6.1\stlport\stl\_string.h
;	COMDAT ?_M_terminate_string@?$basic_string@DV?$char_traits@D@_STL@@V?$allocator@D@2@@_STL@@AAEXXZ
_TEXT	SEGMENT
?_M_terminate_string@?$basic_string@DV?$char_traits@D@_STL@@V?$allocator@D@2@@_STL@@AAEXXZ PROC NEAR ; _STL::basic_string<char,_STL::char_traits<char>,_STL::allocator<char> >::_M_terminate_string, COMDAT
; _this$ = ecx

; 355  :     _M_terminate_string_aux(_Char_Is_Integral());

  00000	8b 41 04	 mov	 eax, DWORD PTR [ecx+4]
  00003	c6 00 00	 mov	 BYTE PTR [eax], 0

; 356  :   }

  00006	c3		 ret	 0
?_M_terminate_string@?$basic_string@DV?$char_traits@D@_STL@@V?$allocator@D@2@@_STL@@AAEXXZ ENDP ; _STL::basic_string<char,_STL::char_traits<char>,_STL::allocator<char> >::_M_terminate_string
_TEXT	ENDS
PUBLIC	?allocate@?$allocator@D@_STL@@QAEPADIPBX@Z	; _STL::allocator<char>::allocate
; Function compile flags: /Ogsy
; File c:\stlport-4.6.1\stlport\stl\_alloc.h
;	COMDAT ?allocate@?$allocator@D@_STL@@QAEPADIPBX@Z
_TEXT	SEGMENT
___n$ = 8						; size = 4
___formal$ = 12						; size = 4
?allocate@?$allocator@D@_STL@@QAEPADIPBX@Z PROC NEAR	; _STL::allocator<char>::allocate, COMDAT
; _this$ = ecx

; 355  :     return __n != 0 ? __REINTERPRET_CAST(value_type*,__sgi_alloc::allocate(__n * sizeof(value_type))) : 0;

  00000	33 c0		 xor	 eax, eax
  00002	39 44 24 04	 cmp	 DWORD PTR ___n$[esp-4], eax
  00006	74 0a		 je	 SHORT $L110694
  00008	ff 74 24 04	 push	 DWORD PTR ___n$[esp-4]
  0000c	e8 00 00 00 00	 call	 ?allocate@?$__node_alloc@$00$0A@@_STL@@SAPAXI@Z ; _STL::__node_alloc<1,0>::allocate
  00011	59		 pop	 ecx
$L110694:

; 356  :   }

  00012	c2 08 00	 ret	 8
?allocate@?$allocator@D@_STL@@QAEPADIPBX@Z ENDP		; _STL::allocator<char>::allocate
_TEXT	ENDS
PUBLIC	??0?$_STLP_alloc_proxy@PADDV?$allocator@D@_STL@@@_STL@@QAE@ABV?$allocator@D@1@PAD@Z ; _STL::_STLP_alloc_proxy<char *,char,_STL::allocator<char> >::_STLP_alloc_proxy<char *,char,_STL::allocator<char> >
; Function compile flags: /Ogsy
;	COMDAT ??0?$_STLP_alloc_proxy@PADDV?$allocator@D@_STL@@@_STL@@QAE@ABV?$allocator@D@1@PAD@Z
_TEXT	SEGMENT
___a$ = 8						; size = 4
___p$ = 12						; size = 4
??0?$_STLP_alloc_proxy@PADDV?$allocator@D@_STL@@@_STL@@QAE@ABV?$allocator@D@1@PAD@Z PROC NEAR ; _STL::_STLP_alloc_proxy<char *,char,_STL::allocator<char> >::_STLP_alloc_proxy<char *,char,_STL::allocator<char> >, COMDAT
; _this$ = ecx

; 487  :   inline _STLP_alloc_proxy(const _MaybeReboundAlloc& __a, _Value __p) : _MaybeReboundAlloc(__a), _M_data(__p) {}

  00000	8b c1		 mov	 eax, ecx
  00002	8b 4c 24 08	 mov	 ecx, DWORD PTR ___p$[esp-4]
  00006	89 08		 mov	 DWORD PTR [eax], ecx
  00008	c2 08 00	 ret	 8
??0?$_STLP_alloc_proxy@PADDV?$allocator@D@_STL@@@_STL@@QAE@ABV?$allocator@D@1@PAD@Z ENDP ; _STL::_STLP_alloc_proxy<char *,char,_STL::allocator<char> >::_STLP_alloc_proxy<char *,char,_STL::allocator<char> >
_TEXT	ENDS
PUBLIC	?erase@?$basic_string@DV?$char_traits@D@_STL@@V?$allocator@D@2@@_STL@@QAEPADPAD0@Z ; _STL::basic_string<char,_STL::char_traits<char>,_STL::allocator<char> >::erase
; Function compile flags: /Ogsy
; File c:\stlport-4.6.1\stlport\stl\_string.h
;	COMDAT ?erase@?$basic_string@DV?$char_traits@D@_STL@@V?$allocator@D@2@@_STL@@QAEPADPAD0@Z
_TEXT	SEGMENT
___first$ = 8						; size = 4
___last$ = 12						; size = 4
?erase@?$basic_string@DV?$char_traits@D@_STL@@V?$allocator@D@2@@_STL@@QAEPADPAD0@Z PROC NEAR ; _STL::basic_string<char,_STL::char_traits<char>,_STL::allocator<char> >::erase, COMDAT
; _this$ = ecx

; 862  :   iterator erase(iterator __first, iterator __last) {

  00000	53		 push	 ebx

; 863  :     if (__first != __last) {

  00001	8b 5c 24 08	 mov	 ebx, DWORD PTR ___first$[esp]
  00005	56		 push	 esi
  00006	57		 push	 edi
  00007	8b 7c 24 14	 mov	 edi, DWORD PTR ___last$[esp+8]
  0000b	3b df		 cmp	 ebx, edi
  0000d	8b f1		 mov	 esi, ecx
  0000f	74 1a		 je	 SHORT $L108995

; 864  :                                 // The move includes the terminating _CharT().
; 865  :       traits_type::move(__first, __last, (this->_M_finish - __last) + 1);

  00011	8b 46 04	 mov	 eax, DWORD PTR [esi+4]
  00014	2b c7		 sub	 eax, edi
  00016	40		 inc	 eax
  00017	74 0b		 je	 SHORT $L110706
  00019	50		 push	 eax
  0001a	57		 push	 edi
  0001b	53		 push	 ebx
  0001c	e8 00 00 00 00	 call	 _memmove
  00021	83 c4 0c	 add	 esp, 12			; 0000000cH
$L110706:

; 866  :       pointer __new_finish = this->_M_finish - (__last - __first);

  00024	8b c3		 mov	 eax, ebx
  00026	2b c7		 sub	 eax, edi

; 867  :       _STLP_STD::_Destroy(__new_finish + 1, this->_M_finish + 1);
; 868  :       this->_M_finish = __new_finish;

  00028	01 46 04	 add	 DWORD PTR [esi+4], eax
$L108995:
  0002b	5f		 pop	 edi
  0002c	5e		 pop	 esi

; 869  :     }
; 870  :     return __first;

  0002d	8b c3		 mov	 eax, ebx
  0002f	5b		 pop	 ebx

; 871  :   }

  00030	c2 08 00	 ret	 8
?erase@?$basic_string@DV?$char_traits@D@_STL@@V?$allocator@D@2@@_STL@@QAEPADPAD0@Z ENDP ; _STL::basic_string<char,_STL::char_traits<char>,_STL::allocator<char> >::erase
_TEXT	ENDS
PUBLIC	??$distance@PBD@_STL@@YAHABQBD0@Z		; _STL::distance<char const *>
; Function compile flags: /Ogsy
; File c:\stlport-4.6.1\stlport\stl\_iterator_base.h
;	COMDAT ??$distance@PBD@_STL@@YAHABQBD0@Z
_TEXT	SEGMENT
___first$ = 8						; size = 4
___last$ = 12						; size = 4
??$distance@PBD@_STL@@YAHABQBD0@Z PROC NEAR		; _STL::distance<char const *>, COMDAT

; 369  :   return __distance(__first, __last, _STLP_ITERATOR_CATEGORY(__first, _InputIterator));  

  00000	8b 44 24 08	 mov	 eax, DWORD PTR ___last$[esp-4]
  00004	8b 00		 mov	 eax, DWORD PTR [eax]
  00006	8b 4c 24 04	 mov	 ecx, DWORD PTR ___first$[esp-4]
  0000a	2b 01		 sub	 eax, DWORD PTR [ecx]

; 370  : }

  0000c	c3		 ret	 0
??$distance@PBD@_STL@@YAHABQBD0@Z ENDP			; _STL::distance<char const *>
_TEXT	ENDS
PUBLIC	?_M_construct_null@?$basic_string@DV?$char_traits@D@_STL@@V?$allocator@D@2@@_STL@@AAEXPAD@Z ; _STL::basic_string<char,_STL::char_traits<char>,_STL::allocator<char> >::_M_construct_null
; Function compile flags: /Ogsy
; File c:\stlport-4.6.1\stlport\stl\_string.h
;	COMDAT ?_M_construct_null@?$basic_string@DV?$char_traits@D@_STL@@V?$allocator@D@2@@_STL@@AAEXPAD@Z
_TEXT	SEGMENT
___p$ = 8						; size = 4
?_M_construct_null@?$basic_string@DV?$char_traits@D@_STL@@V?$allocator@D@2@@_STL@@AAEXPAD@Z PROC NEAR ; _STL::basic_string<char,_STL::char_traits<char>,_STL::allocator<char> >::_M_construct_null, COMDAT
; _this$ = ecx

; 336  :     _M_construct_null_aux(__p, _Char_Is_Integral());

  00000	8b 44 24 04	 mov	 eax, DWORD PTR ___p$[esp-4]
  00004	c6 00 00	 mov	 BYTE PTR [eax], 0

; 337  :   }

  00007	c2 04 00	 ret	 4
?_M_construct_null@?$basic_string@DV?$char_traits@D@_STL@@V?$allocator@D@2@@_STL@@AAEXPAD@Z ENDP ; _STL::basic_string<char,_STL::char_traits<char>,_STL::allocator<char> >::_M_construct_null
_TEXT	ENDS
PUBLIC	?max_size@?$basic_string@DV?$char_traits@D@_STL@@V?$allocator@D@2@@_STL@@QBEIXZ ; _STL::basic_string<char,_STL::char_traits<char>,_STL::allocator<char> >::max_size
; Function compile flags: /Ogsy
;	COMDAT ?max_size@?$basic_string@DV?$char_traits@D@_STL@@V?$allocator@D@2@@_STL@@QBEIXZ
_TEXT	SEGMENT
?max_size@?$basic_string@DV?$char_traits@D@_STL@@V?$allocator@D@2@@_STL@@QBEIXZ PROC NEAR ; _STL::basic_string<char,_STL::char_traits<char>,_STL::allocator<char> >::max_size, COMDAT
; _this$ = ecx

; 434  :   size_t max_size() const { return _Base::max_size(); }

  00000	6a fe		 push	 -2			; fffffffeH
  00002	58		 pop	 eax
  00003	c3		 ret	 0
?max_size@?$basic_string@DV?$char_traits@D@_STL@@V?$allocator@D@2@@_STL@@QBEIXZ ENDP ; _STL::basic_string<char,_STL::char_traits<char>,_STL::allocator<char> >::max_size
_TEXT	ENDS
PUBLIC	??$__copy_aux@PADPAD@_STL@@YAPADPAD00ABU__true_type@0@@Z ; _STL::__copy_aux<char *,char *>
; Function compile flags: /Ogsy
; File c:\stlport-4.6.1\stlport\stl\_algobase.h
;	COMDAT ??$__copy_aux@PADPAD@_STL@@YAPADPAD00ABU__true_type@0@@Z
_TEXT	SEGMENT
___first$ = 8						; size = 4
___last$ = 12						; size = 4
___result$ = 16						; size = 4
___formal$ = 20						; size = 4
??$__copy_aux@PADPAD@_STL@@YAPADPAD00ABU__true_type@0@@Z PROC NEAR ; _STL::__copy_aux<char *,char *>, COMDAT

; 202  :   return __copy_ptrs(__first, __last, __result, 
; 203  :                      _IsOKToMemCpy(_STLP_VALUE_TYPE(__first, _InputIter), 
; 204  :                                    _STLP_VALUE_TYPE(__result, _OutputIter))._Ret());

  00000	ff 74 24 0c	 push	 DWORD PTR ___result$[esp-4]
  00004	ff 74 24 0c	 push	 DWORD PTR ___last$[esp]
  00008	ff 74 24 0c	 push	 DWORD PTR ___first$[esp+4]
  0000c	e8 00 00 00 00	 call	 ?__copy_trivial@_STL@@YAPAXPBX0PAX@Z ; _STL::__copy_trivial
  00011	83 c4 0c	 add	 esp, 12			; 0000000cH

; 205  : }

  00014	c3		 ret	 0
??$__copy_aux@PADPAD@_STL@@YAPADPAD00ABU__true_type@0@@Z ENDP ; _STL::__copy_aux<char *,char *>
_TEXT	ENDS
PUBLIC	?deallocate@?$allocator@D@_STL@@QAEXPADI@Z	; _STL::allocator<char>::deallocate
; Function compile flags: /Ogsy
; File c:\stlport-4.6.1\stlport\stl\_alloc.h
;	COMDAT ?deallocate@?$allocator@D@_STL@@QAEXPADI@Z
_TEXT	SEGMENT
___p$ = 8						; size = 4
___n$ = 12						; size = 4
?deallocate@?$allocator@D@_STL@@QAEXPADI@Z PROC NEAR	; _STL::allocator<char>::deallocate, COMDAT
; _this$ = ecx

; 359  :     _STLP_ASSERT( (__p == 0) == (__n == 0) )
; 360  :       if (__p != 0) __sgi_alloc::deallocate((void*)__p, __n * sizeof(value_type));

  00000	83 7c 24 04 00	 cmp	 DWORD PTR ___p$[esp-4], 0
  00005	74 0f		 je	 SHORT $L98663
  00007	ff 74 24 08	 push	 DWORD PTR ___n$[esp-4]
  0000b	ff 74 24 08	 push	 DWORD PTR ___p$[esp]
  0000f	e8 00 00 00 00	 call	 ?deallocate@?$__node_alloc@$00$0A@@_STL@@SAXPAXI@Z ; _STL::__node_alloc<1,0>::deallocate
  00014	59		 pop	 ecx
  00015	59		 pop	 ecx
$L98663:

; 361  :   }

  00016	c2 08 00	 ret	 8
?deallocate@?$allocator@D@_STL@@QAEXPADI@Z ENDP		; _STL::allocator<char>::deallocate
_TEXT	ENDS
PUBLIC	??0?$_String_base@DV?$allocator@D@_STL@@@_STL@@QAE@ABV?$allocator@D@1@@Z ; _STL::_String_base<char,_STL::allocator<char> >::_String_base<char,_STL::allocator<char> >
; Function compile flags: /Ogsy
; File c:\stlport-4.6.1\stlport\stl\_string.h
;	COMDAT ??0?$_String_base@DV?$allocator@D@_STL@@@_STL@@QAE@ABV?$allocator@D@1@@Z
_TEXT	SEGMENT
___a$ = 8						; size = 4
??0?$_String_base@DV?$allocator@D@_STL@@@_STL@@QAE@ABV?$allocator@D@1@@Z PROC NEAR ; _STL::_String_base<char,_STL::allocator<char> >::_String_base<char,_STL::allocator<char> >, COMDAT
; _this$ = ecx

; 129  :     : _M_start(0), _M_finish(0), _M_end_of_storage(__a, (_Tp*)0) {}

  00000	56		 push	 esi
  00001	33 c0		 xor	 eax, eax
  00003	8b f1		 mov	 esi, ecx
  00005	50		 push	 eax
  00006	ff 74 24 0c	 push	 DWORD PTR ___a$[esp+4]
  0000a	8d 4e 08	 lea	 ecx, DWORD PTR [esi+8]
  0000d	89 06		 mov	 DWORD PTR [esi], eax
  0000f	89 46 04	 mov	 DWORD PTR [esi+4], eax
  00012	e8 00 00 00 00	 call	 ??0?$_STLP_alloc_proxy@PADDV?$allocator@D@_STL@@@_STL@@QAE@ABV?$allocator@D@1@PAD@Z ; _STL::_STLP_alloc_proxy<char *,char,_STL::allocator<char> >::_STLP_alloc_proxy<char *,char,_STL::allocator<char> >
  00017	8b c6		 mov	 eax, esi
  00019	5e		 pop	 esi
  0001a	c2 04 00	 ret	 4
??0?$_String_base@DV?$allocator@D@_STL@@@_STL@@QAE@ABV?$allocator@D@1@@Z ENDP ; _STL::_String_base<char,_STL::allocator<char> >::_String_base<char,_STL::allocator<char> >
_TEXT	ENDS
PUBLIC	??$__uninitialized_copy@PADPAD@_STL@@YAPADPAD00ABU__true_type@0@@Z ; _STL::__uninitialized_copy<char *,char *>
; Function compile flags: /Ogsy
; File c:\stlport-4.6.1\stlport\stl\_uninitialized.h
;	COMDAT ??$__uninitialized_copy@PADPAD@_STL@@YAPADPAD00ABU__true_type@0@@Z
_TEXT	SEGMENT
___first$ = 8						; size = 4
___last$ = 12						; size = 4
___result$ = 16						; size = 4
___formal$ = 20						; size = 4
??$__uninitialized_copy@PADPAD@_STL@@YAPADPAD00ABU__true_type@0@@Z PROC NEAR ; _STL::__uninitialized_copy<char *,char *>, COMDAT

; 55   :   return __copy_aux(__first, __last, __result, _BothPtrType< _InputIter, _ForwardIter> :: _Ret());

  00000	ff 74 24 0c	 push	 DWORD PTR ___result$[esp-4]
  00004	ff 74 24 0c	 push	 DWORD PTR ___last$[esp]
  00008	ff 74 24 0c	 push	 DWORD PTR ___first$[esp+4]
  0000c	e8 00 00 00 00	 call	 ?__copy_trivial@_STL@@YAPAXPBX0PAX@Z ; _STL::__copy_trivial
  00011	83 c4 0c	 add	 esp, 12			; 0000000cH

; 56   : }

  00014	c3		 ret	 0
??$__uninitialized_copy@PADPAD@_STL@@YAPADPAD00ABU__true_type@0@@Z ENDP ; _STL::__uninitialized_copy<char *,char *>
_TEXT	ENDS
PUBLIC	?_M_deallocate_block@?$_String_base@DV?$allocator@D@_STL@@@_STL@@QAEXXZ ; _STL::_String_base<char,_STL::allocator<char> >::_M_deallocate_block
; Function compile flags: /Ogsy
; File c:\stlport-4.6.1\stlport\stl\_string.h
;	COMDAT ?_M_deallocate_block@?$_String_base@DV?$allocator@D@_STL@@@_STL@@QAEXXZ
_TEXT	SEGMENT
?_M_deallocate_block@?$_String_base@DV?$allocator@D@_STL@@@_STL@@QAEXXZ PROC NEAR ; _STL::_String_base<char,_STL::allocator<char> >::_M_deallocate_block, COMDAT
; _this$ = ecx

; 124  :     { _M_end_of_storage.deallocate(_M_start, _M_end_of_storage._M_data - _M_start); }

  00000	8b c1		 mov	 eax, ecx
  00002	8d 48 08	 lea	 ecx, DWORD PTR [eax+8]
  00005	8b 00		 mov	 eax, DWORD PTR [eax]
  00007	8b 11		 mov	 edx, DWORD PTR [ecx]
  00009	2b d0		 sub	 edx, eax
  0000b	52		 push	 edx
  0000c	50		 push	 eax
  0000d	e8 00 00 00 00	 call	 ?deallocate@?$allocator@D@_STL@@QAEXPADI@Z ; _STL::allocator<char>::deallocate
  00012	c3		 ret	 0
?_M_deallocate_block@?$_String_base@DV?$allocator@D@_STL@@@_STL@@QAEXXZ ENDP ; _STL::_String_base<char,_STL::allocator<char> >::_M_deallocate_block
_TEXT	ENDS
PUBLIC	??$uninitialized_copy@PADPAD@_STL@@YAPADPAD00@Z	; _STL::uninitialized_copy<char *,char *>
; Function compile flags: /Ogsy
; File c:\stlport-4.6.1\stlport\stl\_uninitialized.h
;	COMDAT ??$uninitialized_copy@PADPAD@_STL@@YAPADPAD00@Z
_TEXT	SEGMENT
___first$ = 8						; size = 4
___last$ = 12						; size = 4
___result$ = 16						; size = 4
??$uninitialized_copy@PADPAD@_STL@@YAPADPAD00@Z PROC NEAR ; _STL::uninitialized_copy<char *,char *>, COMDAT

; 79   :   return __uninitialized_copy(__first, __last, __result,  _IS_POD_ITER(__result, _ForwardIter));

  00000	e9 00 00 00 00	 jmp	 ?__copy_trivial@_STL@@YAPAXPBX0PAX@Z ; _STL::__copy_trivial
??$uninitialized_copy@PADPAD@_STL@@YAPADPAD00@Z ENDP	; _STL::uninitialized_copy<char *,char *>
_TEXT	ENDS
PUBLIC	??$append@PBD@?$basic_string@DV?$char_traits@D@_STL@@V?$allocator@D@2@@_STL@@AAEAAV01@PBD0ABUforward_iterator_tag@1@@Z ; _STL::basic_string<char,_STL::char_traits<char>,_STL::allocator<char> >::append<char const *>
EXTRN	__CxxThrowException@8:NEAR
; Function compile flags: /Ogsy
; File c:\stlport-4.6.1\stlport\stl\_string.h
;	COMDAT ??$append@PBD@?$basic_string@DV?$char_traits@D@_STL@@V?$allocator@D@2@@_STL@@AAEAAV01@PBD0ABUforward_iterator_tag@1@@Z
_TEXT	SEGMENT
___len$109944 = -8					; size = 4
___old_size$109937 = -8					; size = 4
$T110857 = -4						; size = 4
___first$ = 8						; size = 4
___last$ = 12						; size = 4
___formal$ = 16						; size = 4
??$append@PBD@?$basic_string@DV?$char_traits@D@_STL@@V?$allocator@D@2@@_STL@@AAEAAV01@PBD0ABUforward_iterator_tag@1@@Z PROC NEAR ; _STL::basic_string<char,_STL::char_traits<char>,_STL::allocator<char> >::append<char const *>, COMDAT
; _this$ = ecx

; 542  :   template <class _ForwardIter> _Self& append(_ForwardIter __first, _ForwardIter __last, 

  00000	55		 push	 ebp
  00001	8b ec		 mov	 ebp, esp
  00003	51		 push	 ecx
  00004	51		 push	 ecx
  00005	56		 push	 esi
  00006	57		 push	 edi

; 543  :                        const forward_iterator_tag &)  {
; 544  :     if (__first != __last) {

  00007	8b 7d 0c	 mov	 edi, DWORD PTR ___last$[ebp]
  0000a	39 7d 08	 cmp	 DWORD PTR ___first$[ebp], edi
  0000d	8b f1		 mov	 esi, ecx
  0000f	0f 84 b6 00 00
	00		 je	 $L109955

; 545  : 	    const size_type __old_size = size();
; 546  : 	    difference_type __n = distance(__first, __last);

  00015	2b 7d 08	 sub	 edi, DWORD PTR ___first$[ebp]
  00018	53		 push	 ebx
  00019	8b 5e 04	 mov	 ebx, DWORD PTR [esi+4]
  0001c	2b 1e		 sub	 ebx, DWORD PTR [esi]

; 547  : 	    if (__STATIC_CAST(size_type,__n) > max_size() || __old_size > max_size() - __STATIC_CAST(size_type,__n))

  0001e	83 ff fe	 cmp	 edi, -2			; fffffffeH
  00021	89 5d f8	 mov	 DWORD PTR ___old_size$109937[ebp], ebx
  00024	77 09		 ja	 SHORT $L109942
  00026	6a fe		 push	 -2			; fffffffeH
  00028	58		 pop	 eax
  00029	2b c7		 sub	 eax, edi
  0002b	3b d8		 cmp	 ebx, eax
  0002d	76 07		 jbe	 SHORT $L109941
$L109942:

; 548  : 	      this->_M_throw_length_error();

  0002f	8b ce		 mov	 ecx, esi
  00031	e8 00 00 00 00	 call	 ?_M_throw_length_error@?$_String_base@DV?$allocator@D@_STL@@@_STL@@QBEXXZ ; _STL::_String_base<char,_STL::allocator<char> >::_M_throw_length_error
$L109941:

; 549  : 	    if (__old_size + __n > capacity()) {

  00036	8b 46 08	 mov	 eax, DWORD PTR [esi+8]
  00039	2b 06		 sub	 eax, DWORD PTR [esi]
  0003b	8d 0c 1f	 lea	 ecx, DWORD PTR [edi+ebx]
  0003e	48		 dec	 eax
  0003f	3b c8		 cmp	 ecx, eax
  00041	76 5e		 jbe	 SHORT $L109943

; 550  : 	      const size_type __len = __old_size +
; 551  : 	                            (max)(__old_size, __STATIC_CAST(size_type,__n)) + 1;

  00043	3b df		 cmp	 ebx, edi
  00045	89 7d fc	 mov	 DWORD PTR $T110857[ebp], edi
  00048	8d 45 fc	 lea	 eax, DWORD PTR $T110857[ebp]
  0004b	72 03		 jb	 SHORT $L110902
  0004d	8d 45 f8	 lea	 eax, DWORD PTR ___old_size$109937[ebp]
$L110902:
  00050	8b 00		 mov	 eax, DWORD PTR [eax]
  00052	8d 5c 18 01	 lea	 ebx, DWORD PTR [eax+ebx+1]

; 552  : 	      pointer __new_start = this->_M_end_of_storage.allocate(__len);

  00056	85 db		 test	 ebx, ebx
  00058	89 5d f8	 mov	 DWORD PTR ___len$109944[ebp], ebx
  0005b	74 0b		 je	 SHORT $L110909
  0005d	53		 push	 ebx
  0005e	e8 00 00 00 00	 call	 ?allocate@?$__node_alloc@$00$0A@@_STL@@SAPAXI@Z ; _STL::__node_alloc<1,0>::allocate
  00063	59		 pop	 ecx
  00064	8b f8		 mov	 edi, eax
  00066	eb 02		 jmp	 SHORT $L110910
$L110909:
  00068	33 ff		 xor	 edi, edi
$L110910:

; 553  : 	      pointer __new_finish = __new_start;
; 554  : 	      _STLP_TRY {
; 555  : 	        __new_finish = uninitialized_copy(this->_M_start, this->_M_finish, __new_start);

  0006a	8b 46 04	 mov	 eax, DWORD PTR [esi+4]
  0006d	8b 0e		 mov	 ecx, DWORD PTR [esi]
  0006f	57		 push	 edi
  00070	50		 push	 eax
  00071	51		 push	 ecx
  00072	e8 00 00 00 00	 call	 ?__copy_trivial@_STL@@YAPAXPBX0PAX@Z ; _STL::__copy_trivial

; 556  : 	        __new_finish = uninitialized_copy(__first, __last, __new_finish);

  00077	50		 push	 eax
  00078	ff 75 0c	 push	 DWORD PTR ___last$[ebp]
  0007b	ff 75 08	 push	 DWORD PTR ___first$[ebp]
  0007e	e8 00 00 00 00	 call	 ?__copy_trivial@_STL@@YAPAXPBX0PAX@Z ; _STL::__copy_trivial
  00083	8b d8		 mov	 ebx, eax
  00085	83 c4 18	 add	 esp, 24			; 00000018H

; 557  : 	        _M_construct_null(__new_finish);
; 558  : 	      }
; 559  : 	      _STLP_UNWIND((_STLP_STD::_Destroy(__new_start,__new_finish),
; 560  : 	                    this->_M_end_of_storage.deallocate(__new_start,__len)));
; 561  : 	      _STLP_STD::_Destroy(this->_M_start, this->_M_finish + 1);
; 562  : 	      this->_M_deallocate_block();

  00088	8b ce		 mov	 ecx, esi
  0008a	c6 03 00	 mov	 BYTE PTR [ebx], 0
  0008d	e8 00 00 00 00	 call	 ?_M_deallocate_block@?$_String_base@DV?$allocator@D@_STL@@@_STL@@QAEXXZ ; _STL::_String_base<char,_STL::allocator<char> >::_M_deallocate_block

; 563  : 	      this->_M_start = __new_start;
; 564  : 	      this->_M_finish = __new_finish;
; 565  : 	      this->_M_end_of_storage._M_data = __new_start + __len; 

  00092	8b 45 f8	 mov	 eax, DWORD PTR ___len$109944[ebp]
  00095	89 3e		 mov	 DWORD PTR [esi], edi
  00097	03 f8		 add	 edi, eax
  00099	89 5e 04	 mov	 DWORD PTR [esi+4], ebx
  0009c	89 7e 08	 mov	 DWORD PTR [esi+8], edi

; 566  : 	    }
; 567  : 	    else {

  0009f	eb 29		 jmp	 SHORT $L111041
$L109943:

; 568  : 	      _ForwardIter __f1 = __first;
; 569  : 	      ++__f1;
; 570  : 	      uninitialized_copy(__f1, __last, this->_M_finish + 1);

  000a1	8b 46 04	 mov	 eax, DWORD PTR [esi+4]
  000a4	40		 inc	 eax
  000a5	50		 push	 eax
  000a6	8b 45 08	 mov	 eax, DWORD PTR ___first$[ebp]
  000a9	ff 75 0c	 push	 DWORD PTR ___last$[ebp]
  000ac	40		 inc	 eax
  000ad	50		 push	 eax
  000ae	e8 00 00 00 00	 call	 ?__copy_trivial@_STL@@YAPAXPBX0PAX@Z ; _STL::__copy_trivial

; 571  : 	      _STLP_TRY {
; 572  : 	        _M_construct_null(this->_M_finish + __n);

  000b3	8b 46 04	 mov	 eax, DWORD PTR [esi+4]

; 573  : 	      }
; 574  : 	      _STLP_UNWIND(_STLP_STD::_Destroy(this->_M_finish + 1, this->_M_finish + __n));
; 575  : 	      _Traits::assign(*end(), *__first);

  000b6	8b 4d 08	 mov	 ecx, DWORD PTR ___first$[ebp]
  000b9	c6 04 07 00	 mov	 BYTE PTR [edi+eax], 0
  000bd	8b 46 04	 mov	 eax, DWORD PTR [esi+4]
  000c0	8a 09		 mov	 cl, BYTE PTR [ecx]
  000c2	83 c4 0c	 add	 esp, 12			; 0000000cH
  000c5	88 08		 mov	 BYTE PTR [eax], cl

; 576  : 	      this->_M_finish += __n;

  000c7	01 7e 04	 add	 DWORD PTR [esi+4], edi
$L111041:
  000ca	5b		 pop	 ebx
$L109955:
  000cb	5f		 pop	 edi

; 577  : 	    }
; 578  : 	  }
; 579  : 	  return *this;  

  000cc	8b c6		 mov	 eax, esi
  000ce	5e		 pop	 esi

; 580  : 	}

  000cf	c9		 leave
  000d0	c2 0c 00	 ret	 12			; 0000000cH
??$append@PBD@?$basic_string@DV?$char_traits@D@_STL@@V?$allocator@D@2@@_STL@@AAEAAV01@PBD0ABUforward_iterator_tag@1@@Z ENDP ; _STL::basic_string<char,_STL::char_traits<char>,_STL::allocator<char> >::append<char const *>
_TEXT	ENDS
PUBLIC	??1?$_String_base@DV?$allocator@D@_STL@@@_STL@@QAE@XZ ; _STL::_String_base<char,_STL::allocator<char> >::~_String_base<char,_STL::allocator<char> >
; Function compile flags: /Ogsy
;	COMDAT ??1?$_String_base@DV?$allocator@D@_STL@@@_STL@@QAE@XZ
_TEXT	SEGMENT
??1?$_String_base@DV?$allocator@D@_STL@@@_STL@@QAE@XZ PROC NEAR ; _STL::_String_base<char,_STL::allocator<char> >::~_String_base<char,_STL::allocator<char> >, COMDAT
; _this$ = ecx

; 135  :   ~_String_base() { _M_deallocate_block(); }

  00000	e9 00 00 00 00	 jmp	 ?_M_deallocate_block@?$_String_base@DV?$allocator@D@_STL@@@_STL@@QAEXXZ ; _STL::_String_base<char,_STL::allocator<char> >::_M_deallocate_block
??1?$_String_base@DV?$allocator@D@_STL@@@_STL@@QAE@XZ ENDP ; _STL::_String_base<char,_STL::allocator<char> >::~_String_base<char,_STL::allocator<char> >
_TEXT	ENDS
PUBLIC	??0?$basic_string@DV?$char_traits@D@_STL@@V?$allocator@D@2@@_STL@@QAE@XZ ; _STL::basic_string<char,_STL::char_traits<char>,_STL::allocator<char> >::basic_string<char,_STL::char_traits<char>,_STL::allocator<char> >
EXTRN	__EH_prolog:NEAR
EXTRN	__except_list:DWORD
EXTRN	___CxxFrameHandler:NEAR
;	COMDAT xdata$x
xdata$x	SEGMENT
$T111095 DD	0ffffffffH
	DD	FLAT:$L111048
$T111091 DD	019930520H
	DD	01H
	DD	FLAT:$T111095
	DD	2 DUP(00H)
	DD	2 DUP(00H)
; Function compile flags: /Ogsy
; File c:\stlport-4.6.1\stlport\stl\_string.c
xdata$x	ENDS
;	COMDAT ??0?$basic_string@DV?$char_traits@D@_STL@@V?$allocator@D@2@@_STL@@QAE@XZ
_TEXT	SEGMENT
_this$ = -20						; size = 4
$T111047 = -13						; size = 1
__$EHRec$ = -12						; size = 12
??0?$basic_string@DV?$char_traits@D@_STL@@V?$allocator@D@2@@_STL@@QAE@XZ PROC NEAR ; _STL::basic_string<char,_STL::char_traits<char>,_STL::allocator<char> >::basic_string<char,_STL::char_traits<char>,_STL::allocator<char> >, COMDAT
; _this$ = ecx

; 541  :   : _String_base<_CharT,_Alloc>(allocator_type()) {  

  00000	b8 00 00 00 00	 mov	 eax, __ehhandler$??0?$basic_string@DV?$char_traits@D@_STL@@V?$allocator@D@2@@_STL@@QAE@XZ
  00005	e8 00 00 00 00	 call	 __EH_prolog
  0000a	51		 push	 ecx
  0000b	51		 push	 ecx
  0000c	56		 push	 esi
  0000d	8d 45 f3	 lea	 eax, DWORD PTR $T111047[ebp]
  00010	8b f1		 mov	 esi, ecx
  00012	50		 push	 eax
  00013	89 75 ec	 mov	 DWORD PTR _this$[ebp], esi
  00016	e8 00 00 00 00	 call	 ??0?$_String_base@DV?$allocator@D@_STL@@@_STL@@QAE@ABV?$allocator@D@1@@Z ; _STL::_String_base<char,_STL::allocator<char> >::_String_base<char,_STL::allocator<char> >
  0001b	83 65 fc 00	 and	 DWORD PTR __$EHRec$[ebp+8], 0

; 542  :   this->_M_start = this->_M_end_of_storage.allocate(8); 

  0001f	6a 08		 push	 8
  00021	e8 00 00 00 00	 call	 ?_M_allocate@?$__node_alloc@$00$0A@@_STL@@CAPAXI@Z ; _STL::__node_alloc<1,0>::_M_allocate
  00026	59		 pop	 ecx

; 543  :   this->_M_finish = this->_M_start; 
; 544  :   this->_M_end_of_storage._M_data = this->_M_start + 8; 

  00027	8d 48 08	 lea	 ecx, DWORD PTR [eax+8]
  0002a	89 06		 mov	 DWORD PTR [esi], eax
  0002c	89 46 04	 mov	 DWORD PTR [esi+4], eax
  0002f	89 4e 08	 mov	 DWORD PTR [esi+8], ecx

; 545  :   _M_terminate_string();  
; 546  : } 

  00032	8b 4d f4	 mov	 ecx, DWORD PTR __$EHRec$[ebp]
  00035	c6 00 00	 mov	 BYTE PTR [eax], 0
  00038	8b c6		 mov	 eax, esi
  0003a	5e		 pop	 esi
  0003b	64 89 0d 00 00
	00 00		 mov	 DWORD PTR fs:__except_list, ecx
  00042	c9		 leave
  00043	c3		 ret	 0
_TEXT	ENDS
;	COMDAT text$x
text$x	SEGMENT
$L111048:
  00000	8b 4d ec	 mov	 ecx, DWORD PTR _this$[ebp]
  00003	e9 00 00 00 00	 jmp	 ??1?$_String_base@DV?$allocator@D@_STL@@@_STL@@QAE@XZ ; _STL::_String_base<char,_STL::allocator<char> >::~_String_base<char,_STL::allocator<char> >
__ehhandler$??0?$basic_string@DV?$char_traits@D@_STL@@V?$allocator@D@2@@_STL@@QAE@XZ:
  00008	b8 00 00 00 00	 mov	 eax, OFFSET FLAT:$T111091
  0000d	e9 00 00 00 00	 jmp	 ___CxxFrameHandler
text$x	ENDS
??0?$basic_string@DV?$char_traits@D@_STL@@V?$allocator@D@2@@_STL@@QAE@XZ ENDP ; _STL::basic_string<char,_STL::char_traits<char>,_STL::allocator<char> >::basic_string<char,_STL::char_traits<char>,_STL::allocator<char> >
PUBLIC	??$_M_append_dispatch@PBD@?$basic_string@DV?$char_traits@D@_STL@@V?$allocator@D@2@@_STL@@AAEAAV01@PBD0ABU__false_type@1@@Z ; _STL::basic_string<char,_STL::char_traits<char>,_STL::allocator<char> >::_M_append_dispatch<char const *>
; Function compile flags: /Ogsy
; File c:\stlport-4.6.1\stlport\stl\_string.h
;	COMDAT ??$_M_append_dispatch@PBD@?$basic_string@DV?$char_traits@D@_STL@@V?$allocator@D@2@@_STL@@AAEAAV01@PBD0ABU__false_type@1@@Z
_TEXT	SEGMENT
___f$ = 8						; size = 4
___l$ = 12						; size = 4
$T111101 = 15						; size = 1
___formal$ = 16						; size = 4
??$_M_append_dispatch@PBD@?$basic_string@DV?$char_traits@D@_STL@@V?$allocator@D@2@@_STL@@AAEAAV01@PBD0ABU__false_type@1@@Z PROC NEAR ; _STL::basic_string<char,_STL::char_traits<char>,_STL::allocator<char> >::_M_append_dispatch<char const *>, COMDAT
; _this$ = ecx

; 586  :   template <class _InputIter> _Self& _M_append_dispatch(_InputIter __f, _InputIter __l,

  00000	55		 push	 ebp
  00001	8b ec		 mov	 ebp, esp

; 587  :                                    const __false_type&) {
; 588  :     return append(__f, __l, _STLP_ITERATOR_CATEGORY(__f, _InputIter));

  00003	8d 45 0f	 lea	 eax, DWORD PTR $T111101[ebp]
  00006	50		 push	 eax
  00007	ff 75 0c	 push	 DWORD PTR ___l$[ebp]
  0000a	ff 75 08	 push	 DWORD PTR ___f$[ebp]
  0000d	e8 00 00 00 00	 call	 ??$append@PBD@?$basic_string@DV?$char_traits@D@_STL@@V?$allocator@D@2@@_STL@@AAEAAV01@PBD0ABUforward_iterator_tag@1@@Z ; _STL::basic_string<char,_STL::char_traits<char>,_STL::allocator<char> >::append<char const *>

; 589  :   }

  00012	5d		 pop	 ebp
  00013	c2 0c 00	 ret	 12			; 0000000cH
??$_M_append_dispatch@PBD@?$basic_string@DV?$char_traits@D@_STL@@V?$allocator@D@2@@_STL@@AAEAAV01@PBD0ABU__false_type@1@@Z ENDP ; _STL::basic_string<char,_STL::char_traits<char>,_STL::allocator<char> >::_M_append_dispatch<char const *>
_TEXT	ENDS
PUBLIC	??1?$basic_string@DV?$char_traits@D@_STL@@V?$allocator@D@2@@_STL@@QAE@XZ ; _STL::basic_string<char,_STL::char_traits<char>,_STL::allocator<char> >::~basic_string<char,_STL::char_traits<char>,_STL::allocator<char> >
; Function compile flags: /Ogsy
;	COMDAT ??1?$basic_string@DV?$char_traits@D@_STL@@V?$allocator@D@2@@_STL@@QAE@XZ
_TEXT	SEGMENT
??1?$basic_string@DV?$char_traits@D@_STL@@V?$allocator@D@2@@_STL@@QAE@XZ PROC NEAR ; _STL::basic_string<char,_STL::char_traits<char>,_STL::allocator<char> >::~basic_string<char,_STL::char_traits<char>,_STL::allocator<char> >, COMDAT
; _this$ = ecx

; 305  :   ~basic_string() { _STLP_STD::_Destroy(this->_M_start, this->_M_finish + 1); }

  00000	e9 00 00 00 00	 jmp	 ?_M_deallocate_block@?$_String_base@DV?$allocator@D@_STL@@@_STL@@QAEXXZ ; _STL::_String_base<char,_STL::allocator<char> >::_M_deallocate_block
??1?$basic_string@DV?$char_traits@D@_STL@@V?$allocator@D@2@@_STL@@QAE@XZ ENDP ; _STL::basic_string<char,_STL::char_traits<char>,_STL::allocator<char> >::~basic_string<char,_STL::char_traits<char>,_STL::allocator<char> >
_TEXT	ENDS
PUBLIC	??1NPCInfo@@QAE@XZ				; NPCInfo::~NPCInfo
; Function compile flags: /Ogsy
; File c:\darkeden\designed_common\project\client\packet\npcinfo.cpp
;	COMDAT ??1NPCInfo@@QAE@XZ
_TEXT	SEGMENT
??1NPCInfo@@QAE@XZ PROC NEAR				; NPCInfo::~NPCInfo, COMDAT
; _this$ = ecx

; 26   : }

  00000	e9 00 00 00 00	 jmp	 ?_M_deallocate_block@?$_String_base@DV?$allocator@D@_STL@@@_STL@@QAEXXZ ; _STL::_String_base<char,_STL::allocator<char> >::_M_deallocate_block
??1NPCInfo@@QAE@XZ ENDP					; NPCInfo::~NPCInfo
_TEXT	ENDS
PUBLIC	??$append@PBD@?$basic_string@DV?$char_traits@D@_STL@@V?$allocator@D@2@@_STL@@QAEAAV01@PBD0@Z ; _STL::basic_string<char,_STL::char_traits<char>,_STL::allocator<char> >::append<char const *>
; Function compile flags: /Ogsy
; File c:\stlport-4.6.1\stlport\stl\_string.h
;	COMDAT ??$append@PBD@?$basic_string@DV?$char_traits@D@_STL@@V?$allocator@D@2@@_STL@@QAEAAV01@PBD0@Z
_TEXT	SEGMENT
___first$ = 8						; size = 4
___last$ = 12						; size = 4
$T111165 = 15						; size = 1
??$append@PBD@?$basic_string@DV?$char_traits@D@_STL@@V?$allocator@D@2@@_STL@@QAEAAV01@PBD0@Z PROC NEAR ; _STL::basic_string<char,_STL::char_traits<char>,_STL::allocator<char> >::append<char const *>, COMDAT
; _this$ = ecx

; 506  :   template <class _InputIter> _Self& append(_InputIter __first, _InputIter __last) {

  00000	55		 push	 ebp
  00001	8b ec		 mov	 ebp, esp

; 507  :     typedef typename _Is_integer<_InputIter>::_Integral _Integral;
; 508  :     return _M_append_dispatch(__first, __last, _Integral());

  00003	8d 45 0f	 lea	 eax, DWORD PTR $T111165[ebp]
  00006	50		 push	 eax
  00007	ff 75 0c	 push	 DWORD PTR ___last$[ebp]
  0000a	ff 75 08	 push	 DWORD PTR ___first$[ebp]
  0000d	e8 00 00 00 00	 call	 ??$append@PBD@?$basic_string@DV?$char_traits@D@_STL@@V?$allocator@D@2@@_STL@@AAEAAV01@PBD0ABUforward_iterator_tag@1@@Z ; _STL::basic_string<char,_STL::char_traits<char>,_STL::allocator<char> >::append<char const *>

; 509  :   }

  00012	5d		 pop	 ebp
  00013	c2 08 00	 ret	 8
??$append@PBD@?$basic_string@DV?$char_traits@D@_STL@@V?$allocator@D@2@@_STL@@QAEAAV01@PBD0@Z ENDP ; _STL::basic_string<char,_STL::char_traits<char>,_STL::allocator<char> >::append<char const *>
_TEXT	ENDS
PUBLIC	?assign@?$basic_string@DV?$char_traits@D@_STL@@V?$allocator@D@2@@_STL@@QAEAAV12@PBD0@Z ; _STL::basic_string<char,_STL::char_traits<char>,_STL::allocator<char> >::assign
; Function compile flags: /Ogsy
;	COMDAT ?assign@?$basic_string@DV?$char_traits@D@_STL@@V?$allocator@D@2@@_STL@@QAEAAV12@PBD0@Z
_TEXT	SEGMENT
___f$ = 8						; size = 4
___l$ = 12						; size = 4
$T111213 = 15						; size = 1
?assign@?$basic_string@DV?$char_traits@D@_STL@@V?$allocator@D@2@@_STL@@QAEAAV12@PBD0@Z PROC NEAR ; _STL::basic_string<char,_STL::char_traits<char>,_STL::allocator<char> >::assign, COMDAT
; _this$ = ecx

; 650  :   {

  00000	55		 push	 ebp
  00001	8b ec		 mov	 ebp, esp
  00003	53		 push	 ebx

; 651  :     ptrdiff_t __n = __l - __f;

  00004	8b 5d 08	 mov	 ebx, DWORD PTR ___f$[ebp]
  00007	56		 push	 esi
  00008	8b f1		 mov	 esi, ecx

; 652  :     if (__STATIC_CAST(size_type,__n) <= size()) {

  0000a	8b 0e		 mov	 ecx, DWORD PTR [esi]
  0000c	8b 46 04	 mov	 eax, DWORD PTR [esi+4]
  0000f	57		 push	 edi
  00010	8b 7d 0c	 mov	 edi, DWORD PTR ___l$[ebp]
  00013	2b fb		 sub	 edi, ebx
  00015	2b c1		 sub	 eax, ecx
  00017	3b f8		 cmp	 edi, eax
  00019	77 20		 ja	 SHORT $L108927

; 653  :       _Traits::copy(this->_M_start, __f, __n);

  0001b	85 ff		 test	 edi, edi
  0001d	74 0b		 je	 SHORT $L111177
  0001f	57		 push	 edi
  00020	53		 push	 ebx
  00021	51		 push	 ecx
  00022	e8 00 00 00 00	 call	 _memcpy
  00027	83 c4 0c	 add	 esp, 12			; 0000000cH
$L111177:

; 654  :       erase(begin() + __n, end());

  0002a	8b 06		 mov	 eax, DWORD PTR [esi]
  0002c	ff 76 04	 push	 DWORD PTR [esi+4]
  0002f	03 c7		 add	 eax, edi
  00031	50		 push	 eax
  00032	8b ce		 mov	 ecx, esi
  00034	e8 00 00 00 00	 call	 ?erase@?$basic_string@DV?$char_traits@D@_STL@@V?$allocator@D@2@@_STL@@QAEPADPAD0@Z ; _STL::basic_string<char,_STL::char_traits<char>,_STL::allocator<char> >::erase

; 655  :     }
; 656  :     else {

  00039	eb 25		 jmp	 SHORT $L111214
$L108927:

; 657  :       _Traits::copy(this->_M_start, __f, size());

  0003b	85 c0		 test	 eax, eax
  0003d	74 0b		 je	 SHORT $L111196
  0003f	50		 push	 eax
  00040	53		 push	 ebx
  00041	51		 push	 ecx
  00042	e8 00 00 00 00	 call	 _memcpy
  00047	83 c4 0c	 add	 esp, 12			; 0000000cH
$L111196:

; 658  :       append(__f + size(), __l);

  0004a	8d 45 0f	 lea	 eax, DWORD PTR $T111213[ebp]
  0004d	50		 push	 eax
  0004e	8b 46 04	 mov	 eax, DWORD PTR [esi+4]
  00051	2b 06		 sub	 eax, DWORD PTR [esi]
  00053	ff 75 0c	 push	 DWORD PTR ___l$[ebp]
  00056	03 c3		 add	 eax, ebx
  00058	50		 push	 eax
  00059	8b ce		 mov	 ecx, esi
  0005b	e8 00 00 00 00	 call	 ??$append@PBD@?$basic_string@DV?$char_traits@D@_STL@@V?$allocator@D@2@@_STL@@AAEAAV01@PBD0ABUforward_iterator_tag@1@@Z ; _STL::basic_string<char,_STL::char_traits<char>,_STL::allocator<char> >::append<char const *>
$L111214:
  00060	5f		 pop	 edi

; 659  :     }
; 660  :     return *this;

  00061	8b c6		 mov	 eax, esi
  00063	5e		 pop	 esi
  00064	5b		 pop	 ebx

; 661  :   }

  00065	5d		 pop	 ebp
  00066	c2 08 00	 ret	 8
?assign@?$basic_string@DV?$char_traits@D@_STL@@V?$allocator@D@2@@_STL@@QAEAAV12@PBD0@Z ENDP ; _STL::basic_string<char,_STL::char_traits<char>,_STL::allocator<char> >::assign
_TEXT	ENDS
PUBLIC	??4?$basic_string@DV?$char_traits@D@_STL@@V?$allocator@D@2@@_STL@@QAEAAV01@PBD@Z ; _STL::basic_string<char,_STL::char_traits<char>,_STL::allocator<char> >::operator=
; Function compile flags: /Ogsy
;	COMDAT ??4?$basic_string@DV?$char_traits@D@_STL@@V?$allocator@D@2@@_STL@@QAEAAV01@PBD@Z
_TEXT	SEGMENT
___s$ = 8						; size = 4
??4?$basic_string@DV?$char_traits@D@_STL@@V?$allocator@D@2@@_STL@@QAEAAV01@PBD@Z PROC NEAR ; _STL::basic_string<char,_STL::char_traits<char>,_STL::allocator<char> >::operator=, COMDAT
; _this$ = ecx

; 313  :   _Self& operator=(const _CharT* __s) { 

  00000	56		 push	 esi

; 314  :     _STLP_FIX_LITERAL_BUG(__s)
; 315  :     return assign(__s, __s + traits_type::length(__s)); 

  00001	8b 74 24 08	 mov	 esi, DWORD PTR ___s$[esp]
  00005	57		 push	 edi
  00006	56		 push	 esi
  00007	8b f9		 mov	 edi, ecx
  00009	e8 00 00 00 00	 call	 _strlen
  0000e	59		 pop	 ecx
  0000f	03 c6		 add	 eax, esi
  00011	50		 push	 eax
  00012	56		 push	 esi
  00013	8b cf		 mov	 ecx, edi
  00015	e8 00 00 00 00	 call	 ?assign@?$basic_string@DV?$char_traits@D@_STL@@V?$allocator@D@2@@_STL@@QAEAAV12@PBD0@Z ; _STL::basic_string<char,_STL::char_traits<char>,_STL::allocator<char> >::assign
  0001a	5f		 pop	 edi
  0001b	5e		 pop	 esi

; 316  :   }

  0001c	c2 04 00	 ret	 4
??4?$basic_string@DV?$char_traits@D@_STL@@V?$allocator@D@2@@_STL@@QAEAAV01@PBD@Z ENDP ; _STL::basic_string<char,_STL::char_traits<char>,_STL::allocator<char> >::operator=
_TEXT	ENDS
PUBLIC	??_C@_00CNPNBAHC@?$AA@				; `string'
PUBLIC	??0NPCInfo@@QAE@XZ				; NPCInfo::NPCInfo
;	COMDAT xdata$x
; File c:\darkeden\designed_common\project\client\packet\npcinfo.cpp
xdata$x	SEGMENT
$T111228 DD	0ffffffffH
	DD	FLAT:$L111224
$T111226 DD	019930520H
	DD	01H
	DD	FLAT:$T111228
	DD	2 DUP(00H)
	DD	2 DUP(00H)
xdata$x	ENDS
;	COMDAT ??_C@_00CNPNBAHC@?$AA@
CONST	SEGMENT
??_C@_00CNPNBAHC@?$AA@ DB 00H				; `string'
; Function compile flags: /Ogsy
CONST	ENDS
;	COMDAT ??0NPCInfo@@QAE@XZ
_TEXT	SEGMENT
_this$ = -16						; size = 4
__$EHRec$ = -12						; size = 12
??0NPCInfo@@QAE@XZ PROC NEAR				; NPCInfo::NPCInfo, COMDAT
; _this$ = ecx

; 17   : {

  00000	b8 00 00 00 00	 mov	 eax, __ehhandler$??0NPCInfo@@QAE@XZ
  00005	e8 00 00 00 00	 call	 __EH_prolog
  0000a	51		 push	 ecx
  0000b	56		 push	 esi
  0000c	8b f1		 mov	 esi, ecx
  0000e	89 75 f0	 mov	 DWORD PTR _this$[ebp], esi
  00011	e8 00 00 00 00	 call	 ??0?$basic_string@DV?$char_traits@D@_STL@@V?$allocator@D@2@@_STL@@QAE@XZ ; _STL::basic_string<char,_STL::char_traits<char>,_STL::allocator<char> >::basic_string<char,_STL::char_traits<char>,_STL::allocator<char> >
  00016	83 65 fc 00	 and	 DWORD PTR __$EHRec$[ebp+8], 0

; 18   : 	m_Name  = "";

  0001a	68 00 00 00 00	 push	 OFFSET FLAT:??_C@_00CNPNBAHC@?$AA@
  0001f	8b ce		 mov	 ecx, esi
  00021	e8 00 00 00 00	 call	 ??4?$basic_string@DV?$char_traits@D@_STL@@V?$allocator@D@2@@_STL@@QAEAAV01@PBD@Z ; _STL::basic_string<char,_STL::char_traits<char>,_STL::allocator<char> >::operator=

; 19   : 	m_NPCID = 0;

  00026	66 83 66 0c 00	 and	 WORD PTR [esi+12], 0

; 20   : 	m_X     = 0;

  0002b	66 83 66 0e 00	 and	 WORD PTR [esi+14], 0

; 21   : 	m_Y     = 0;

  00030	66 83 66 10 00	 and	 WORD PTR [esi+16], 0

; 22   : }

  00035	8b 4d f4	 mov	 ecx, DWORD PTR __$EHRec$[ebp]
  00038	8b c6		 mov	 eax, esi
  0003a	5e		 pop	 esi
  0003b	64 89 0d 00 00
	00 00		 mov	 DWORD PTR fs:__except_list, ecx
  00042	c9		 leave
  00043	c3		 ret	 0
_TEXT	ENDS
;	COMDAT text$x
text$x	SEGMENT
$L111224:
  00000	8b 4d f0	 mov	 ecx, DWORD PTR _this$[ebp]
  00003	e9 00 00 00 00	 jmp	 ??1?$basic_string@DV?$char_traits@D@_STL@@V?$allocator@D@2@@_STL@@QAE@XZ ; _STL::basic_string<char,_STL::char_traits<char>,_STL::allocator<char> >::~basic_string<char,_STL::char_traits<char>,_STL::allocator<char> >
__ehhandler$??0NPCInfo@@QAE@XZ:
  00008	b8 00 00 00 00	 mov	 eax, OFFSET FLAT:$T111226
  0000d	e9 00 00 00 00	 jmp	 ___CxxFrameHandler
text$x	ENDS
??0NPCInfo@@QAE@XZ ENDP					; NPCInfo::NPCInfo
END
