; Listing generated by Microsoft (R) Optimizing Compiler Version 13.10.3077 

	TITLE	\darkeden\Designed_Common\Project\Client\nProtect.cpp
	.386P
include listing.inc
if @Version gt 510
.model FLAT
else
_TEXT	SEGMENT PARA USE32 PUBLIC 'CODE'
_TEXT	ENDS
_DATA	SEGMENT DWORD USE32 PUBLIC 'DATA'
_DATA	ENDS
CONST	SEGMENT DWORD USE32 PUBLIC 'CONST'
CONST	ENDS
_BSS	SEGMENT DWORD USE32 PUBLIC 'BSS'
_BSS	ENDS
$$SYMBOLS	SEGMENT BYTE USE32 'DEBSYM'
$$SYMBOLS	ENDS
$$TYPES	SEGMENT BYTE USE32 'DEBTYP'
$$TYPES	ENDS
_TLS	SEGMENT DWORD USE32 PUBLIC 'TLS'
_TLS	ENDS
;	COMDAT ??_C@_0O@JKENFCBN@MinTrace?52003?$AA@
CONST	SEGMENT DWORD USE32 PUBLIC 'CONST'
CONST	ENDS
;	COMDAT ??_C@_0BE@MNEJIGLM@__MinTrace?5Window__?$AA@
CONST	SEGMENT DWORD USE32 PUBLIC 'CONST'
CONST	ENDS
;	COMDAT ??_C@_06KLPNNMEP@?$CF8d?0?$CFs?$AA@
CONST	SEGMENT DWORD USE32 PUBLIC 'CONST'
CONST	ENDS
;	COMDAT ??_C@_0O@NLMEMHCE@Execute?5Error?$AA@
CONST	SEGMENT DWORD USE32 PUBLIC 'CONST'
CONST	ENDS
;	COMDAT ??_C@_0CB@LICCPCGN@?A?v?$LP?x?$LF?G?A?v?5?$LO?J?$LE?B?5?$MA?$KJ?$LF?$LF?$LP?l?5?$LJ?v?$MA?$PM?$MA?T?$LE?O?$LE?Y?4@
CONST	SEGMENT DWORD USE32 PUBLIC 'CONST'
CONST	ENDS
;	COMDAT ??_C@_0DM@NEBFJKBC@?$LA?T?$MA?S?$LA?$KB?$LF?e?$LA?$KB?5?$LN?G?G?$OA?5?A?$NP?5?$MA?L?A?v?5?$LO?J?$LN?$MA?$LE?O?$LE?Y@
CONST	SEGMENT DWORD USE32 PUBLIC 'CONST'
CONST	ENDS
;	COMDAT ??_C@_0BI@BDNJJNKH@?$FLNPGAMEMON_COMM_ERROR?$FN?5?$AA@
CONST	SEGMENT DWORD USE32 PUBLIC 'CONST'
CONST	ENDS
;	COMDAT ??_C@_0BI@DFMBHHFD@?$FLNPGAMEMON_COMM_CLOSE?$FN?5?$AA@
CONST	SEGMENT DWORD USE32 PUBLIC 'CONST'
CONST	ENDS
;	COMDAT ??_C@_0BI@NJEBGOEO@?$FLNPGAMEMON_INIT_ERROR?$FN?5?$AA@
CONST	SEGMENT DWORD USE32 PUBLIC 'CONST'
CONST	ENDS
;	COMDAT ??_C@_0BH@JBBJLLKG@?$FLNPGAMEMON_SPEEDHACK?$FN?5?$AA@
CONST	SEGMENT DWORD USE32 PUBLIC 'CONST'
CONST	ENDS
;	COMDAT ??_C@_0BN@PEGKFGKF@?$FLNPGAMEMON_GAMEHACK_KILLED?$FN?5?$AA@
CONST	SEGMENT DWORD USE32 PUBLIC 'CONST'
CONST	ENDS
;	COMDAT ??_C@_0BN@NABLKNGF@?$FLNPGAMEMON_GAMEHACK_DETECT?$FN?5?$AA@
CONST	SEGMENT DWORD USE32 PUBLIC 'CONST'
CONST	ENDS
;	COMDAT ??_C@_0CA@BBKIMAIF@?$FLNPGAMEMON_UNDEFINED?$FN?5nProtect?5?$AA@
CONST	SEGMENT DWORD USE32 PUBLIC 'CONST'
CONST	ENDS
;	COMDAT ??_C@_0JC@LGOLHCHF@?$LA?T?$MA?S?$LA?$KB?$LF?e?5?$LN?G?G?$OA?5?A?$NP?5?$LP?$KB?$LH?$KP?$LA?$KB?5?$LJ?$NP?$LL?$PN?G?O?$LP?$LE@
CONST	SEGMENT DWORD USE32 PUBLIC 'CONST'
CONST	ENDS
;	COMDAT ??_C@_0N@GOPDCEEB@basic_string?$AA@
CONST	SEGMENT DWORD USE32 PUBLIC 'CONST'
CONST	ENDS
rdata$r	SEGMENT DWORD USE32 PUBLIC 'CONST'
rdata$r	ENDS
text$yc	SEGMENT PARA USE32 PUBLIC 'CODE'
text$yc	ENDS
CRT$XCA	SEGMENT DWORD USE32 PUBLIC 'DATA'
CRT$XCA	ENDS
CRT$XCU	SEGMENT DWORD USE32 PUBLIC 'DATA'
CRT$XCU	ENDS
CRT$XCL	SEGMENT DWORD USE32 PUBLIC 'DATA'
CRT$XCL	ENDS
CRT$XCC	SEGMENT DWORD USE32 PUBLIC 'DATA'
CRT$XCC	ENDS
CRT$XCZ	SEGMENT DWORD USE32 PUBLIC 'DATA'
CRT$XCZ	ENDS
text$yd	SEGMENT PARA USE32 PUBLIC 'CODE'
text$yd	ENDS
;	COMDAT ?Init@CNPGameLib@@QAEKXZ
_TEXT	SEGMENT PARA USE32 PUBLIC 'CODE'
_TEXT	ENDS
;	COMDAT ?SetHwnd@CNPGameLib@@QAEXPAUHWND__@@@Z
_TEXT	SEGMENT PARA USE32 PUBLIC 'CODE'
_TEXT	ENDS
;	COMDAT ?Check@CNPGameLib@@QAEKXZ
_TEXT	SEGMENT PARA USE32 PUBLIC 'CODE'
_TEXT	ENDS
;	COMDAT ?Auth@CNPGameLib@@QAEKK@Z
_TEXT	SEGMENT PARA USE32 PUBLIC 'CODE'
_TEXT	ENDS
;	COMDAT ?_MinTraceA@@YAXPBD@Z
_TEXT	SEGMENT PARA USE32 PUBLIC 'CODE'
_TEXT	ENDS
;	COMDAT ?_MinTraceErrA@@YAXPBD@Z
_TEXT	SEGMENT PARA USE32 PUBLIC 'CODE'
_TEXT	ENDS
;	COMDAT ?_MinTraceWarA@@YAXPBD@Z
_TEXT	SEGMENT PARA USE32 PUBLIC 'CODE'
_TEXT	ENDS
;	COMDAT ?_ClMinTraceA@@YAXKPBD@Z
_TEXT	SEGMENT PARA USE32 PUBLIC 'CODE'
_TEXT	ENDS
;	COMDAT ?_CmdMinTraceA@@YAXHPBD@Z
_TEXT	SEGMENT PARA USE32 PUBLIC 'CODE'
_TEXT	ENDS
;	COMDAT ?CheckWindowVersion@@YA_NXZ
_TEXT	SEGMENT PARA USE32 PUBLIC 'CODE'
_TEXT	ENDS
;	COMDAT ?CheckNPROTECT@@YAHH@Z
_TEXT	SEGMENT PARA USE32 PUBLIC 'CODE'
_TEXT	ENDS
;	COMDAT ?RunNPROTECT@@YAHXZ
_TEXT	SEGMENT PARA USE32 PUBLIC 'CODE'
_TEXT	ENDS
;	COMDAT ?CloseNPROTECT@@YAXXZ
_TEXT	SEGMENT PARA USE32 PUBLIC 'CODE'
_TEXT	ENDS
;	COMDAT ?TimerCheckNPMON@@YA_NH@Z
_TEXT	SEGMENT PARA USE32 PUBLIC 'CODE'
_TEXT	ENDS
;	COMDAT ?NPGameMonCallback@@YGHKK@Z
_TEXT	SEGMENT PARA USE32 PUBLIC 'CODE'
_TEXT	ENDS
;	COMDAT ?Set_Auth@@YAXK@Z
_TEXT	SEGMENT PARA USE32 PUBLIC 'CODE'
_TEXT	ENDS
;	COMDAT ?eq@?$__char_traits_base@DH@_STL@@SA_NABD0@Z
_TEXT	SEGMENT PARA USE32 PUBLIC 'CODE'
_TEXT	ENDS
;	COMDAT ?not_eof@?$__char_traits_base@DH@_STL@@SAHABH@Z
_TEXT	SEGMENT PARA USE32 PUBLIC 'CODE'
_TEXT	ENDS
;	COMDAT ?eq_int_type@?$__char_traits_base@DH@_STL@@SA_NABH0@Z
_TEXT	SEGMENT PARA USE32 PUBLIC 'CODE'
_TEXT	ENDS
;	COMDAT ?get_allocator@?$basic_string@DV?$char_traits@D@_STL@@V?$allocator@D@2@@_STL@@QBE?AV?$allocator@D@2@XZ
_TEXT	SEGMENT PARA USE32 PUBLIC 'CODE'
_TEXT	ENDS
;	COMDAT ??4?$basic_string@DV?$char_traits@D@_STL@@V?$allocator@D@2@@_STL@@QAEAAV01@PBD@Z
_TEXT	SEGMENT PARA USE32 PUBLIC 'CODE'
_TEXT	ENDS
;	COMDAT ?_M_terminate_string@?$basic_string@DV?$char_traits@D@_STL@@V?$allocator@D@2@@_STL@@AAEXXZ
_TEXT	SEGMENT PARA USE32 PUBLIC 'CODE'
_TEXT	ENDS
;	COMDAT ??0?$_String_base@DV?$allocator@D@_STL@@@_STL@@QAE@ABV?$allocator@D@1@@Z
_TEXT	SEGMENT PARA USE32 PUBLIC 'CODE'
_TEXT	ENDS
;	COMDAT ?allocate@?$allocator@D@_STL@@QAEPADIPBX@Z
_TEXT	SEGMENT PARA USE32 PUBLIC 'CODE'
_TEXT	ENDS
;	COMDAT ??0?$fpos@H@_STL@@QAE@J@Z
_TEXT	SEGMENT PARA USE32 PUBLIC 'CODE'
_TEXT	ENDS
;	COMDAT ??B?$fpos@H@_STL@@QBEJXZ
_TEXT	SEGMENT PARA USE32 PUBLIC 'CODE'
_TEXT	ENDS
;	COMDAT ?state@?$fpos@H@_STL@@QBEHXZ
_TEXT	SEGMENT PARA USE32 PUBLIC 'CODE'
_TEXT	ENDS
;	COMDAT ?is_open@?$basic_filebuf@DV?$char_traits@D@_STL@@@_STL@@QBE_NXZ
_TEXT	SEGMENT PARA USE32 PUBLIC 'CODE'
_TEXT	ENDS
;	COMDAT ?_M_seek_return@?$basic_filebuf@DV?$char_traits@D@_STL@@@_STL@@AAE?AV?$fpos@H@2@JH@Z
_TEXT	SEGMENT PARA USE32 PUBLIC 'CODE'
_TEXT	ENDS
;	COMDAT ??0?$_Filebuf_Tmp_Buf@D@_STL@@QAE@H@Z
_TEXT	SEGMENT PARA USE32 PUBLIC 'CODE'
_TEXT	ENDS
;	COMDAT ??1?$_Filebuf_Tmp_Buf@D@_STL@@QAE@XZ
_TEXT	SEGMENT PARA USE32 PUBLIC 'CODE'
_TEXT	ENDS
;	COMDAT ??A?$map@KV?$basic_string@DV?$char_traits@D@_STL@@V?$allocator@D@2@@_STL@@U?$less@K@2@V?$allocator@U?$pair@$$CBKV?$basic_string@DV?$char_traits@D@_STL@@V?$allocator@D@2@@_STL@@@_STL@@@2@@_STL@@QAEAAV?$basic_string@DV?$char_traits@D@_STL@@V?$allocator@D@2@@1@ABK@Z
_TEXT	SEGMENT PARA USE32 PUBLIC 'CODE'
_TEXT	ENDS
;	COMDAT ??1?$pair@$$CBKV?$basic_string@DV?$char_traits@D@_STL@@V?$allocator@D@2@@_STL@@@_STL@@QAE@XZ
_TEXT	SEGMENT PARA USE32 PUBLIC 'CODE'
_TEXT	ENDS
;	COMDAT ?_M_terminate_string_aux@?$basic_string@DV?$char_traits@D@_STL@@V?$allocator@D@2@@_STL@@AAEXABU__true_type@2@@Z
_TEXT	SEGMENT PARA USE32 PUBLIC 'CODE'
_TEXT	ENDS
;	COMDAT ?assign@?$basic_string@DV?$char_traits@D@_STL@@V?$allocator@D@2@@_STL@@QAEAAV12@PBD0@Z
_TEXT	SEGMENT PARA USE32 PUBLIC 'CODE'
_TEXT	ENDS
;	COMDAT ??0?$allocator@D@_STL@@QAE@ABV01@@Z
_TEXT	SEGMENT PARA USE32 PUBLIC 'CODE'
_TEXT	ENDS
;	COMDAT ??0?$_STLP_alloc_proxy@PADDV?$allocator@D@_STL@@@_STL@@QAE@ABV?$allocator@D@1@PAD@Z
_TEXT	SEGMENT PARA USE32 PUBLIC 'CODE'
_TEXT	ENDS
;	COMDAT ?state@?$fpos@H@_STL@@QAEXH@Z
_TEXT	SEGMENT PARA USE32 PUBLIC 'CODE'
_TEXT	ENDS
;	COMDAT ?key_comp@?$map@KV?$basic_string@DV?$char_traits@D@_STL@@V?$allocator@D@2@@_STL@@U?$less@K@2@V?$allocator@U?$pair@$$CBKV?$basic_string@DV?$char_traits@D@_STL@@V?$allocator@D@2@@_STL@@@_STL@@@2@@_STL@@QBE?AU?$less@K@2@XZ
_TEXT	SEGMENT PARA USE32 PUBLIC 'CODE'
_TEXT	ENDS
;	COMDAT ?end@?$map@KV?$basic_string@DV?$char_traits@D@_STL@@V?$allocator@D@2@@_STL@@U?$less@K@2@V?$allocator@U?$pair@$$CBKV?$basic_string@DV?$char_traits@D@_STL@@V?$allocator@D@2@@_STL@@@_STL@@@2@@_STL@@QAE?AU?$_Rb_tree_iterator@U?$pair@$$CBKV?$basic_string@DV?$char_traits@D@_STL@@V?$allocator@D@2@@_STL@@@_STL@@U?$_Nonconst_traits@U?$pair@$$CBKV?$basic_string@DV?$char_traits@D@_STL@@V?$allocator@D@2@@_STL@@@_STL@@@2@@2@XZ
_TEXT	SEGMENT PARA USE32 PUBLIC 'CODE'
_TEXT	ENDS
;	COMDAT ?insert@?$map@KV?$basic_string@DV?$char_traits@D@_STL@@V?$allocator@D@2@@_STL@@U?$less@K@2@V?$allocator@U?$pair@$$CBKV?$basic_string@DV?$char_traits@D@_STL@@V?$allocator@D@2@@_STL@@@_STL@@@2@@_STL@@QAE?AU?$_Rb_tree_iterator@U?$pair@$$CBKV?$basic_string@DV?$char_traits@D@_STL@@V?$allocator@D@2@@_STL@@@_STL@@U?$_Nonconst_traits@U?$pair@$$CBKV?$basic_string@DV?$char_traits@D@_STL@@V?$allocator@D@2@@_STL@@@_STL@@@2@@2@U32@ABU?$pair@$$CBKV?$basic_string@DV?$char_traits@D@_STL@@V?$allocator@D@2@@_STL@@@2@@Z
_TEXT	SEGMENT PARA USE32 PUBLIC 'CODE'
_TEXT	ENDS
;	COMDAT ?lower_bound@?$map@KV?$basic_string@DV?$char_traits@D@_STL@@V?$allocator@D@2@@_STL@@U?$less@K@2@V?$allocator@U?$pair@$$CBKV?$basic_string@DV?$char_traits@D@_STL@@V?$allocator@D@2@@_STL@@@_STL@@@2@@_STL@@QAE?AU?$_Rb_tree_iterator@U?$pair@$$CBKV?$basic_string@DV?$char_traits@D@_STL@@V?$allocator@D@2@@_STL@@@_STL@@U?$_Nonconst_traits@U?$pair@$$CBKV?$basic_string@DV?$char_traits@D@_STL@@V?$allocator@D@2@@_STL@@@_STL@@@2@@2@ABK@Z
_TEXT	SEGMENT PARA USE32 PUBLIC 'CODE'
_TEXT	ENDS
;	COMDAT ??R?$less@K@_STL@@QBE_NABK0@Z
_TEXT	SEGMENT PARA USE32 PUBLIC 'CODE'
_TEXT	ENDS
;	COMDAT ??0?$_Rb_tree_iterator@U?$pair@$$CBKV?$basic_string@DV?$char_traits@D@_STL@@V?$allocator@D@2@@_STL@@@_STL@@U?$_Nonconst_traits@U?$pair@$$CBKV?$basic_string@DV?$char_traits@D@_STL@@V?$allocator@D@2@@_STL@@@_STL@@@2@@_STL@@QAE@ABU01@@Z
_TEXT	SEGMENT PARA USE32 PUBLIC 'CODE'
_TEXT	ENDS
;	COMDAT ??D?$_Rb_tree_iterator@U?$pair@$$CBKV?$basic_string@DV?$char_traits@D@_STL@@V?$allocator@D@2@@_STL@@@_STL@@U?$_Nonconst_traits@U?$pair@$$CBKV?$basic_string@DV?$char_traits@D@_STL@@V?$allocator@D@2@@_STL@@@_STL@@@2@@_STL@@QBEAAU?$pair@$$CBKV?$basic_string@DV?$char_traits@D@_STL@@V?$allocator@D@2@@_STL@@@1@XZ
_TEXT	SEGMENT PARA USE32 PUBLIC 'CODE'
_TEXT	ENDS
;	COMDAT ??0?$pair@$$CBKV?$basic_string@DV?$char_traits@D@_STL@@V?$allocator@D@2@@_STL@@@_STL@@QAE@ABKABV?$basic_string@DV?$char_traits@D@_STL@@V?$allocator@D@2@@1@@Z
_TEXT	SEGMENT PARA USE32 PUBLIC 'CODE'
_TEXT	ENDS
;	COMDAT ?copy@?$__char_traits_base@DH@_STL@@SAPADPADPBDI@Z
_TEXT	SEGMENT PARA USE32 PUBLIC 'CODE'
_TEXT	ENDS
;	COMDAT ?begin@?$basic_string@DV?$char_traits@D@_STL@@V?$allocator@D@2@@_STL@@QAEPADXZ
_TEXT	SEGMENT PARA USE32 PUBLIC 'CODE'
_TEXT	ENDS
;	COMDAT ?end@?$basic_string@DV?$char_traits@D@_STL@@V?$allocator@D@2@@_STL@@QAEPADXZ
_TEXT	SEGMENT PARA USE32 PUBLIC 'CODE'
_TEXT	ENDS
;	COMDAT ?size@?$basic_string@DV?$char_traits@D@_STL@@V?$allocator@D@2@@_STL@@QBEIXZ
_TEXT	SEGMENT PARA USE32 PUBLIC 'CODE'
_TEXT	ENDS
;	COMDAT ?erase@?$basic_string@DV?$char_traits@D@_STL@@V?$allocator@D@2@@_STL@@QAEPADPAD0@Z
_TEXT	SEGMENT PARA USE32 PUBLIC 'CODE'
_TEXT	ENDS
;	COMDAT ?key_comp@?$_Rb_tree@KU?$pair@$$CBKV?$basic_string@DV?$char_traits@D@_STL@@V?$allocator@D@2@@_STL@@@_STL@@U?$_Select1st@U?$pair@$$CBKV?$basic_string@DV?$char_traits@D@_STL@@V?$allocator@D@2@@_STL@@@_STL@@@2@U?$less@K@2@V?$allocator@U?$pair@$$CBKV?$basic_string@DV?$char_traits@D@_STL@@V?$allocator@D@2@@_STL@@@_STL@@@2@@_STL@@QBE?AU?$less@K@2@XZ
_TEXT	SEGMENT PARA USE32 PUBLIC 'CODE'
_TEXT	ENDS
;	COMDAT ?end@?$_Rb_tree@KU?$pair@$$CBKV?$basic_string@DV?$char_traits@D@_STL@@V?$allocator@D@2@@_STL@@@_STL@@U?$_Select1st@U?$pair@$$CBKV?$basic_string@DV?$char_traits@D@_STL@@V?$allocator@D@2@@_STL@@@_STL@@@2@U?$less@K@2@V?$allocator@U?$pair@$$CBKV?$basic_string@DV?$char_traits@D@_STL@@V?$allocator@D@2@@_STL@@@_STL@@@2@@_STL@@QAE?AU?$_Rb_tree_iterator@U?$pair@$$CBKV?$basic_string@DV?$char_traits@D@_STL@@V?$allocator@D@2@@_STL@@@_STL@@U?$_Nonconst_traits@U?$pair@$$CBKV?$basic_string@DV?$char_traits@D@_STL@@V?$allocator@D@2@@_STL@@@_STL@@@2@@2@XZ
_TEXT	SEGMENT PARA USE32 PUBLIC 'CODE'
_TEXT	ENDS
;	COMDAT ?lower_bound@?$_Rb_tree@KU?$pair@$$CBKV?$basic_string@DV?$char_traits@D@_STL@@V?$allocator@D@2@@_STL@@@_STL@@U?$_Select1st@U?$pair@$$CBKV?$basic_string@DV?$char_traits@D@_STL@@V?$allocator@D@2@@_STL@@@_STL@@@2@U?$less@K@2@V?$allocator@U?$pair@$$CBKV?$basic_string@DV?$char_traits@D@_STL@@V?$allocator@D@2@@_STL@@@_STL@@@2@@_STL@@QAE?AU?$_Rb_tree_iterator@U?$pair@$$CBKV?$basic_string@DV?$char_traits@D@_STL@@V?$allocator@D@2@@_STL@@@_STL@@U?$_Nonconst_traits@U?$pair@$$CBKV?$basic_string@DV?$char_traits@D@_STL@@V?$allocator@D@2@@_STL@@@_STL@@@2@@2@ABK@Z
_TEXT	SEGMENT PARA USE32 PUBLIC 'CODE'
_TEXT	ENDS
;	COMDAT ?move@?$__char_traits_base@DH@_STL@@SAPADPADPBDI@Z
_TEXT	SEGMENT PARA USE32 PUBLIC 'CODE'
_TEXT	ENDS
;	COMDAT ?_M_lower_bound@?$_Rb_tree@KU?$pair@$$CBKV?$basic_string@DV?$char_traits@D@_STL@@V?$allocator@D@2@@_STL@@@_STL@@U?$_Select1st@U?$pair@$$CBKV?$basic_string@DV?$char_traits@D@_STL@@V?$allocator@D@2@@_STL@@@_STL@@@2@U?$less@K@2@V?$allocator@U?$pair@$$CBKV?$basic_string@DV?$char_traits@D@_STL@@V?$allocator@D@2@@_STL@@@_STL@@@2@@_STL@@ABEPAU?$_Rb_tree_node@U?$pair@$$CBKV?$basic_string@DV?$char_traits@D@_STL@@V?$allocator@D@2@@_STL@@@_STL@@@2@ABK@Z
_TEXT	SEGMENT PARA USE32 PUBLIC 'CODE'
_TEXT	ENDS
;	COMDAT ??0?$_Rb_tree_iterator@U?$pair@$$CBKV?$basic_string@DV?$char_traits@D@_STL@@V?$allocator@D@2@@_STL@@@_STL@@U?$_Nonconst_traits@U?$pair@$$CBKV?$basic_string@DV?$char_traits@D@_STL@@V?$allocator@D@2@@_STL@@@_STL@@@2@@_STL@@QAE@PAU?$_Rb_tree_node@U?$pair@$$CBKV?$basic_string@DV?$char_traits@D@_STL@@V?$allocator@D@2@@_STL@@@_STL@@@1@@Z
_TEXT	SEGMENT PARA USE32 PUBLIC 'CODE'
_TEXT	ENDS
;	COMDAT ?_M_root@?$_Rb_tree@KU?$pair@$$CBKV?$basic_string@DV?$char_traits@D@_STL@@V?$allocator@D@2@@_STL@@@_STL@@U?$_Select1st@U?$pair@$$CBKV?$basic_string@DV?$char_traits@D@_STL@@V?$allocator@D@2@@_STL@@@_STL@@@2@U?$less@K@2@V?$allocator@U?$pair@$$CBKV?$basic_string@DV?$char_traits@D@_STL@@V?$allocator@D@2@@_STL@@@_STL@@@2@@_STL@@IBEAAPAU?$_Rb_tree_node@U?$pair@$$CBKV?$basic_string@DV?$char_traits@D@_STL@@V?$allocator@D@2@@_STL@@@_STL@@@2@XZ
_TEXT	SEGMENT PARA USE32 PUBLIC 'CODE'
_TEXT	ENDS
;	COMDAT ?_S_left@?$_Rb_tree@KU?$pair@$$CBKV?$basic_string@DV?$char_traits@D@_STL@@V?$allocator@D@2@@_STL@@@_STL@@U?$_Select1st@U?$pair@$$CBKV?$basic_string@DV?$char_traits@D@_STL@@V?$allocator@D@2@@_STL@@@_STL@@@2@U?$less@K@2@V?$allocator@U?$pair@$$CBKV?$basic_string@DV?$char_traits@D@_STL@@V?$allocator@D@2@@_STL@@@_STL@@@2@@_STL@@KAAAPAU?$_Rb_tree_node@U?$pair@$$CBKV?$basic_string@DV?$char_traits@D@_STL@@V?$allocator@D@2@@_STL@@@_STL@@@2@PAU32@@Z
_TEXT	SEGMENT PARA USE32 PUBLIC 'CODE'
_TEXT	ENDS
;	COMDAT ?_S_right@?$_Rb_tree@KU?$pair@$$CBKV?$basic_string@DV?$char_traits@D@_STL@@V?$allocator@D@2@@_STL@@@_STL@@U?$_Select1st@U?$pair@$$CBKV?$basic_string@DV?$char_traits@D@_STL@@V?$allocator@D@2@@_STL@@@_STL@@@2@U?$less@K@2@V?$allocator@U?$pair@$$CBKV?$basic_string@DV?$char_traits@D@_STL@@V?$allocator@D@2@@_STL@@@_STL@@@2@@_STL@@KAAAPAU?$_Rb_tree_node@U?$pair@$$CBKV?$basic_string@DV?$char_traits@D@_STL@@V?$allocator@D@2@@_STL@@@_STL@@@2@PAU32@@Z
_TEXT	SEGMENT PARA USE32 PUBLIC 'CODE'
_TEXT	ENDS
;	COMDAT ?_S_key@?$_Rb_tree@KU?$pair@$$CBKV?$basic_string@DV?$char_traits@D@_STL@@V?$allocator@D@2@@_STL@@@_STL@@U?$_Select1st@U?$pair@$$CBKV?$basic_string@DV?$char_traits@D@_STL@@V?$allocator@D@2@@_STL@@@_STL@@@2@U?$less@K@2@V?$allocator@U?$pair@$$CBKV?$basic_string@DV?$char_traits@D@_STL@@V?$allocator@D@2@@_STL@@@_STL@@@2@@_STL@@KAABKPAU?$_Rb_tree_node@U?$pair@$$CBKV?$basic_string@DV?$char_traits@D@_STL@@V?$allocator@D@2@@_STL@@@_STL@@@2@@Z
_TEXT	SEGMENT PARA USE32 PUBLIC 'CODE'
_TEXT	ENDS
;	COMDAT ?_S_value@?$_Rb_tree@KU?$pair@$$CBKV?$basic_string@DV?$char_traits@D@_STL@@V?$allocator@D@2@@_STL@@@_STL@@U?$_Select1st@U?$pair@$$CBKV?$basic_string@DV?$char_traits@D@_STL@@V?$allocator@D@2@@_STL@@@_STL@@@2@U?$less@K@2@V?$allocator@U?$pair@$$CBKV?$basic_string@DV?$char_traits@D@_STL@@V?$allocator@D@2@@_STL@@@_STL@@@2@@_STL@@KAAAU?$pair@$$CBKV?$basic_string@DV?$char_traits@D@_STL@@V?$allocator@D@2@@_STL@@@2@PAU?$_Rb_tree_node@U?$pair@$$CBKV?$basic_string@DV?$char_traits@D@_STL@@V?$allocator@D@2@@_STL@@@_STL@@@2@@Z
_TEXT	SEGMENT PARA USE32 PUBLIC 'CODE'
_TEXT	ENDS
;	COMDAT ??R?$_Select1st@U?$pair@$$CBKV?$basic_string@DV?$char_traits@D@_STL@@V?$allocator@D@2@@_STL@@@_STL@@@_STL@@QBEABKABU?$pair@$$CBKV?$basic_string@DV?$char_traits@D@_STL@@V?$allocator@D@2@@_STL@@@1@@Z
_TEXT	SEGMENT PARA USE32 PUBLIC 'CODE'
_TEXT	ENDS
;	COMDAT ??$_M_range_initialize@PBD@?$basic_string@DV?$char_traits@D@_STL@@V?$allocator@D@2@@_STL@@AAEXPBD0@Z
_TEXT	SEGMENT PARA USE32 PUBLIC 'CODE'
_TEXT	ENDS
;	COMDAT ??$_M_range_initialize@PAD@?$basic_string@DV?$char_traits@D@_STL@@V?$allocator@D@2@@_STL@@AAEXPAD0@Z
_TEXT	SEGMENT PARA USE32 PUBLIC 'CODE'
_TEXT	ENDS
;	COMDAT ?close@?$basic_filebuf@DV?$char_traits@D@_STL@@@_STL@@QAEPAV12@XZ
_TEXT	SEGMENT PARA USE32 PUBLIC 'CODE'
_TEXT	ENDS
;	COMDAT ?_M_exit_input_mode@?$basic_filebuf@DV?$char_traits@D@_STL@@@_STL@@AAEXXZ
_TEXT	SEGMENT PARA USE32 PUBLIC 'CODE'
_TEXT	ENDS
;	COMDAT ?_M_switch_to_output_mode@?$basic_filebuf@DV?$char_traits@D@_STL@@@_STL@@AAE_NXZ
_TEXT	SEGMENT PARA USE32 PUBLIC 'CODE'
_TEXT	ENDS
;	COMDAT ?_M_output_error@?$basic_filebuf@DV?$char_traits@D@_STL@@@_STL@@AAEHXZ
_TEXT	SEGMENT PARA USE32 PUBLIC 'CODE'
_TEXT	ENDS
;	COMDAT ?_M_allocate_buffers@?$basic_filebuf@DV?$char_traits@D@_STL@@@_STL@@AAE_NPADH@Z
_TEXT	SEGMENT PARA USE32 PUBLIC 'CODE'
_TEXT	ENDS
;	COMDAT ?_M_deallocate_buffers@?$basic_filebuf@DV?$char_traits@D@_STL@@@_STL@@AAEXXZ
_TEXT	SEGMENT PARA USE32 PUBLIC 'CODE'
_TEXT	ENDS
;	COMDAT ?_M_seek_init@?$basic_filebuf@DV?$char_traits@D@_STL@@@_STL@@AAE_N_N@Z
_TEXT	SEGMENT PARA USE32 PUBLIC 'CODE'
_TEXT	ENDS
;	COMDAT ?_M_setup_codecvt@?$basic_filebuf@DV?$char_traits@D@_STL@@@_STL@@AAEXABVlocale@2@@Z
_TEXT	SEGMENT PARA USE32 PUBLIC 'CODE'
_TEXT	ENDS
;	COMDAT ??$equal@PADPADU?$_Eq_traits@V?$char_traits@D@_STL@@@_STL@@@_STL@@YA_NPAD00U?$_Eq_traits@V?$char_traits@D@_STL@@@0@@Z
_TEXT	SEGMENT PARA USE32 PUBLIC 'CODE'
_TEXT	ENDS
;	COMDAT ??$_Destroy@V?$basic_string@DV?$char_traits@D@_STL@@V?$allocator@D@2@@_STL@@@_STL@@YAXPAV?$basic_string@DV?$char_traits@D@_STL@@V?$allocator@D@2@@0@@Z
_TEXT	SEGMENT PARA USE32 PUBLIC 'CODE'
_TEXT	ENDS
;	COMDAT ??$_M_assign_dispatch@PAD@?$basic_string@DV?$char_traits@D@_STL@@V?$allocator@D@2@@_STL@@AAEAAV01@PAD0ABU__false_type@1@@Z
_TEXT	SEGMENT PARA USE32 PUBLIC 'CODE'
_TEXT	ENDS
;	COMDAT ?insert_unique@?$_Rb_tree@KU?$pair@$$CBKV?$basic_string@DV?$char_traits@D@_STL@@V?$allocator@D@2@@_STL@@@_STL@@U?$_Select1st@U?$pair@$$CBKV?$basic_string@DV?$char_traits@D@_STL@@V?$allocator@D@2@@_STL@@@_STL@@@2@U?$less@K@2@V?$allocator@U?$pair@$$CBKV?$basic_string@DV?$char_traits@D@_STL@@V?$allocator@D@2@@_STL@@@_STL@@@2@@_STL@@QAE?AU?$_Rb_tree_iterator@U?$pair@$$CBKV?$basic_string@DV?$char_traits@D@_STL@@V?$allocator@D@2@@_STL@@@_STL@@U?$_Nonconst_traits@U?$pair@$$CBKV?$basic_string@DV?$char_traits@D@_STL@@V?$allocator@D@2@@_STL@@@_STL@@@2@@2@U32@ABU?$pair@$$CBKV?$basic_string@DV?$char_traits@D@_STL@@V?$allocator@D@2@@_STL@@@2@@Z
_TEXT	SEGMENT PARA USE32 PUBLIC 'CODE'
_TEXT	ENDS
;	COMDAT ??$append@PBD@?$basic_string@DV?$char_traits@D@_STL@@V?$allocator@D@2@@_STL@@QAEAAV01@PBD0@Z
_TEXT	SEGMENT PARA USE32 PUBLIC 'CODE'
_TEXT	ENDS
;	COMDAT ??_G?$basic_string@DV?$char_traits@D@_STL@@V?$allocator@D@2@@_STL@@QAEPAXI@Z
_TEXT	SEGMENT PARA USE32 PUBLIC 'CODE'
_TEXT	ENDS
;	COMDAT ?_M_exit_putback_mode@?$basic_filebuf@DV?$char_traits@D@_STL@@@_STL@@AAEXXZ
_TEXT	SEGMENT PARA USE32 PUBLIC 'CODE'
_TEXT	ENDS
;	COMDAT ??R?$_Eq_traits@V?$char_traits@D@_STL@@@_STL@@QBE_NABD0@Z
_TEXT	SEGMENT PARA USE32 PUBLIC 'CODE'
_TEXT	ENDS
;	COMDAT ?_M_rightmost@?$_Rb_tree@KU?$pair@$$CBKV?$basic_string@DV?$char_traits@D@_STL@@V?$allocator@D@2@@_STL@@@_STL@@U?$_Select1st@U?$pair@$$CBKV?$basic_string@DV?$char_traits@D@_STL@@V?$allocator@D@2@@_STL@@@_STL@@@2@U?$less@K@2@V?$allocator@U?$pair@$$CBKV?$basic_string@DV?$char_traits@D@_STL@@V?$allocator@D@2@@_STL@@@_STL@@@2@@_STL@@IBEAAPAU?$_Rb_tree_node@U?$pair@$$CBKV?$basic_string@DV?$char_traits@D@_STL@@V?$allocator@D@2@@_STL@@@_STL@@@2@XZ
_TEXT	SEGMENT PARA USE32 PUBLIC 'CODE'
_TEXT	ENDS
;	COMDAT ?_S_right@?$_Rb_tree@KU?$pair@$$CBKV?$basic_string@DV?$char_traits@D@_STL@@V?$allocator@D@2@@_STL@@@_STL@@U?$_Select1st@U?$pair@$$CBKV?$basic_string@DV?$char_traits@D@_STL@@V?$allocator@D@2@@_STL@@@_STL@@@2@U?$less@K@2@V?$allocator@U?$pair@$$CBKV?$basic_string@DV?$char_traits@D@_STL@@V?$allocator@D@2@@_STL@@@_STL@@@2@@_STL@@KAAAPAU?$_Rb_tree_node@U?$pair@$$CBKV?$basic_string@DV?$char_traits@D@_STL@@V?$allocator@D@2@@_STL@@@_STL@@@2@PAU_Rb_tree_node_base@2@@Z
_TEXT	SEGMENT PARA USE32 PUBLIC 'CODE'
_TEXT	ENDS
;	COMDAT ?_S_key@?$_Rb_tree@KU?$pair@$$CBKV?$basic_string@DV?$char_traits@D@_STL@@V?$allocator@D@2@@_STL@@@_STL@@U?$_Select1st@U?$pair@$$CBKV?$basic_string@DV?$char_traits@D@_STL@@V?$allocator@D@2@@_STL@@@_STL@@@2@U?$less@K@2@V?$allocator@U?$pair@$$CBKV?$basic_string@DV?$char_traits@D@_STL@@V?$allocator@D@2@@_STL@@@_STL@@@2@@_STL@@KAABKPAU_Rb_tree_node_base@2@@Z
_TEXT	SEGMENT PARA USE32 PUBLIC 'CODE'
_TEXT	ENDS
;	COMDAT ?size@?$_Rb_tree@KU?$pair@$$CBKV?$basic_string@DV?$char_traits@D@_STL@@V?$allocator@D@2@@_STL@@@_STL@@U?$_Select1st@U?$pair@$$CBKV?$basic_string@DV?$char_traits@D@_STL@@V?$allocator@D@2@@_STL@@@_STL@@@2@U?$less@K@2@V?$allocator@U?$pair@$$CBKV?$basic_string@DV?$char_traits@D@_STL@@V?$allocator@D@2@@_STL@@@_STL@@@2@@_STL@@QBEIXZ
_TEXT	SEGMENT PARA USE32 PUBLIC 'CODE'
_TEXT	ENDS
;	COMDAT ??E?$_Rb_tree_iterator@U?$pair@$$CBKV?$basic_string@DV?$char_traits@D@_STL@@V?$allocator@D@2@@_STL@@@_STL@@U?$_Nonconst_traits@U?$pair@$$CBKV?$basic_string@DV?$char_traits@D@_STL@@V?$allocator@D@2@@_STL@@@_STL@@@2@@_STL@@QAEAAU01@XZ
_TEXT	SEGMENT PARA USE32 PUBLIC 'CODE'
_TEXT	ENDS
;	COMDAT ??F?$_Rb_tree_iterator@U?$pair@$$CBKV?$basic_string@DV?$char_traits@D@_STL@@V?$allocator@D@2@@_STL@@@_STL@@U?$_Nonconst_traits@U?$pair@$$CBKV?$basic_string@DV?$char_traits@D@_STL@@V?$allocator@D@2@@_STL@@@_STL@@@2@@_STL@@QAEAAU01@XZ
_TEXT	SEGMENT PARA USE32 PUBLIC 'CODE'
_TEXT	ENDS
;	COMDAT ??$_M_range_initialize@PBD@?$basic_string@DV?$char_traits@D@_STL@@V?$allocator@D@2@@_STL@@AAEXPBD0ABUforward_iterator_tag@1@@Z
_TEXT	SEGMENT PARA USE32 PUBLIC 'CODE'
_TEXT	ENDS
;	COMDAT ??$_M_range_initialize@PAD@?$basic_string@DV?$char_traits@D@_STL@@V?$allocator@D@2@@_STL@@AAEXPAD0ABUforward_iterator_tag@1@@Z
_TEXT	SEGMENT PARA USE32 PUBLIC 'CODE'
_TEXT	ENDS
;	COMDAT ?_M_unshift@?$basic_filebuf@DV?$char_traits@D@_STL@@@_STL@@AAE_NXZ
_TEXT	SEGMENT PARA USE32 PUBLIC 'CODE'
_TEXT	ENDS
;	COMDAT ?_M_allocate_buffers@?$basic_filebuf@DV?$char_traits@D@_STL@@@_STL@@AAE_NXZ
_TEXT	SEGMENT PARA USE32 PUBLIC 'CODE'
_TEXT	ENDS
;	COMDAT ??$max@H@_STL@@YAABHABH0@Z
_TEXT	SEGMENT PARA USE32 PUBLIC 'CODE'
_TEXT	ENDS
;	COMDAT ??$use_facet@V?$codecvt@DDH@_STL@@@_STL@@YAABV?$codecvt@DDH@0@ABVlocale@0@@Z
_TEXT	SEGMENT PARA USE32 PUBLIC 'CODE'
_TEXT	ENDS
;	COMDAT ??$append@PAD@?$basic_string@DV?$char_traits@D@_STL@@V?$allocator@D@2@@_STL@@QAEAAV01@PAD0@Z
_TEXT	SEGMENT PARA USE32 PUBLIC 'CODE'
_TEXT	ENDS
;	COMDAT ?_M_insert@?$_Rb_tree@KU?$pair@$$CBKV?$basic_string@DV?$char_traits@D@_STL@@V?$allocator@D@2@@_STL@@@_STL@@U?$_Select1st@U?$pair@$$CBKV?$basic_string@DV?$char_traits@D@_STL@@V?$allocator@D@2@@_STL@@@_STL@@@2@U?$less@K@2@V?$allocator@U?$pair@$$CBKV?$basic_string@DV?$char_traits@D@_STL@@V?$allocator@D@2@@_STL@@@_STL@@@2@@_STL@@AAE?AU?$_Rb_tree_iterator@U?$pair@$$CBKV?$basic_string@DV?$char_traits@D@_STL@@V?$allocator@D@2@@_STL@@@_STL@@U?$_Nonconst_traits@U?$pair@$$CBKV?$basic_string@DV?$char_traits@D@_STL@@V?$allocator@D@2@@_STL@@@_STL@@@2@@2@PAU_Rb_tree_node_base@2@0ABU?$pair@$$CBKV?$basic_string@DV?$char_traits@D@_STL@@V?$allocator@D@2@@_STL@@@2@0@Z
_TEXT	SEGMENT PARA USE32 PUBLIC 'CODE'
_TEXT	ENDS
;	COMDAT ?insert_unique@?$_Rb_tree@KU?$pair@$$CBKV?$basic_string@DV?$char_traits@D@_STL@@V?$allocator@D@2@@_STL@@@_STL@@U?$_Select1st@U?$pair@$$CBKV?$basic_string@DV?$char_traits@D@_STL@@V?$allocator@D@2@@_STL@@@_STL@@@2@U?$less@K@2@V?$allocator@U?$pair@$$CBKV?$basic_string@DV?$char_traits@D@_STL@@V?$allocator@D@2@@_STL@@@_STL@@@2@@_STL@@QAE?AU?$pair@U?$_Rb_tree_iterator@U?$pair@$$CBKV?$basic_string@DV?$char_traits@D@_STL@@V?$allocator@D@2@@_STL@@@_STL@@U?$_Nonconst_traits@U?$pair@$$CBKV?$basic_string@DV?$char_traits@D@_STL@@V?$allocator@D@2@@_STL@@@_STL@@@2@@_STL@@_N@2@ABU?$pair@$$CBKV?$basic_string@DV?$char_traits@D@_STL@@V?$allocator@D@2@@_STL@@@2@@Z
_TEXT	SEGMENT PARA USE32 PUBLIC 'CODE'
_TEXT	ENDS
;	COMDAT ??$_M_append_dispatch@PBD@?$basic_string@DV?$char_traits@D@_STL@@V?$allocator@D@2@@_STL@@AAEAAV01@PBD0ABU__false_type@1@@Z
_TEXT	SEGMENT PARA USE32 PUBLIC 'CODE'
_TEXT	ENDS
;	COMDAT ?_M_create_node@?$_Rb_tree@KU?$pair@$$CBKV?$basic_string@DV?$char_traits@D@_STL@@V?$allocator@D@2@@_STL@@@_STL@@U?$_Select1st@U?$pair@$$CBKV?$basic_string@DV?$char_traits@D@_STL@@V?$allocator@D@2@@_STL@@@_STL@@@2@U?$less@K@2@V?$allocator@U?$pair@$$CBKV?$basic_string@DV?$char_traits@D@_STL@@V?$allocator@D@2@@_STL@@@_STL@@@2@@_STL@@IAEPAU?$_Rb_tree_node@U?$pair@$$CBKV?$basic_string@DV?$char_traits@D@_STL@@V?$allocator@D@2@@_STL@@@_STL@@@2@ABU?$pair@$$CBKV?$basic_string@DV?$char_traits@D@_STL@@V?$allocator@D@2@@_STL@@@2@@Z
_TEXT	SEGMENT PARA USE32 PUBLIC 'CODE'
_TEXT	ENDS
;	COMDAT ?_M_leftmost@?$_Rb_tree@KU?$pair@$$CBKV?$basic_string@DV?$char_traits@D@_STL@@V?$allocator@D@2@@_STL@@@_STL@@U?$_Select1st@U?$pair@$$CBKV?$basic_string@DV?$char_traits@D@_STL@@V?$allocator@D@2@@_STL@@@_STL@@@2@U?$less@K@2@V?$allocator@U?$pair@$$CBKV?$basic_string@DV?$char_traits@D@_STL@@V?$allocator@D@2@@_STL@@@_STL@@@2@@_STL@@IBEAAPAU?$_Rb_tree_node@U?$pair@$$CBKV?$basic_string@DV?$char_traits@D@_STL@@V?$allocator@D@2@@_STL@@@_STL@@@2@XZ
_TEXT	SEGMENT PARA USE32 PUBLIC 'CODE'
_TEXT	ENDS
;	COMDAT ?_S_parent@?$_Rb_tree@KU?$pair@$$CBKV?$basic_string@DV?$char_traits@D@_STL@@V?$allocator@D@2@@_STL@@@_STL@@U?$_Select1st@U?$pair@$$CBKV?$basic_string@DV?$char_traits@D@_STL@@V?$allocator@D@2@@_STL@@@_STL@@@2@U?$less@K@2@V?$allocator@U?$pair@$$CBKV?$basic_string@DV?$char_traits@D@_STL@@V?$allocator@D@2@@_STL@@@_STL@@@2@@_STL@@KAAAPAU?$_Rb_tree_node@U?$pair@$$CBKV?$basic_string@DV?$char_traits@D@_STL@@V?$allocator@D@2@@_STL@@@_STL@@@2@PAU32@@Z
_TEXT	SEGMENT PARA USE32 PUBLIC 'CODE'
_TEXT	ENDS
;	COMDAT ?begin@?$_Rb_tree@KU?$pair@$$CBKV?$basic_string@DV?$char_traits@D@_STL@@V?$allocator@D@2@@_STL@@@_STL@@U?$_Select1st@U?$pair@$$CBKV?$basic_string@DV?$char_traits@D@_STL@@V?$allocator@D@2@@_STL@@@_STL@@@2@U?$less@K@2@V?$allocator@U?$pair@$$CBKV?$basic_string@DV?$char_traits@D@_STL@@V?$allocator@D@2@@_STL@@@_STL@@@2@@_STL@@QAE?AU?$_Rb_tree_iterator@U?$pair@$$CBKV?$basic_string@DV?$char_traits@D@_STL@@V?$allocator@D@2@@_STL@@@_STL@@U?$_Nonconst_traits@U?$pair@$$CBKV?$basic_string@DV?$char_traits@D@_STL@@V?$allocator@D@2@@_STL@@@_STL@@@2@@2@XZ
_TEXT	SEGMENT PARA USE32 PUBLIC 'CODE'
_TEXT	ENDS
;	COMDAT ??0?$pair@U?$_Rb_tree_iterator@U?$pair@$$CBKV?$basic_string@DV?$char_traits@D@_STL@@V?$allocator@D@2@@_STL@@@_STL@@U?$_Nonconst_traits@U?$pair@$$CBKV?$basic_string@DV?$char_traits@D@_STL@@V?$allocator@D@2@@_STL@@@_STL@@@2@@_STL@@_N@_STL@@QAE@ABU?$_Rb_tree_iterator@U?$pair@$$CBKV?$basic_string@DV?$char_traits@D@_STL@@V?$allocator@D@2@@_STL@@@_STL@@U?$_Nonconst_traits@U?$pair@$$CBKV?$basic_string@DV?$char_traits@D@_STL@@V?$allocator@D@2@@_STL@@@_STL@@@2@@1@AB_N@Z
_TEXT	SEGMENT PARA USE32 PUBLIC 'CODE'
_TEXT	ENDS
;	COMDAT ?allocate@?$allocator@U?$_Rb_tree_node@U?$pair@$$CBKV?$basic_string@DV?$char_traits@D@_STL@@V?$allocator@D@2@@_STL@@@_STL@@@_STL@@@_STL@@QAEPAU?$_Rb_tree_node@U?$pair@$$CBKV?$basic_string@DV?$char_traits@D@_STL@@V?$allocator@D@2@@_STL@@@_STL@@@2@IPBX@Z
_TEXT	SEGMENT PARA USE32 PUBLIC 'CODE'
_TEXT	ENDS
;	COMDAT ?deallocate@?$allocator@U?$_Rb_tree_node@U?$pair@$$CBKV?$basic_string@DV?$char_traits@D@_STL@@V?$allocator@D@2@@_STL@@@_STL@@@_STL@@@_STL@@QAEXPAU?$_Rb_tree_node@U?$pair@$$CBKV?$basic_string@DV?$char_traits@D@_STL@@V?$allocator@D@2@@_STL@@@_STL@@@2@I@Z
_TEXT	SEGMENT PARA USE32 PUBLIC 'CODE'
_TEXT	ENDS
;	COMDAT ??$distance@PBD@_STL@@YAHABQBD0@Z
_TEXT	SEGMENT PARA USE32 PUBLIC 'CODE'
_TEXT	ENDS
;	COMDAT ?_M_allocate_block@?$_String_base@DV?$allocator@D@_STL@@@_STL@@QAEXI@Z
_TEXT	SEGMENT PARA USE32 PUBLIC 'CODE'
_TEXT	ENDS
;	COMDAT ??$distance@PAD@_STL@@YAHABQAD0@Z
_TEXT	SEGMENT PARA USE32 PUBLIC 'CODE'
_TEXT	ENDS
;	COMDAT ??$uninitialized_copy@PADPAD@_STL@@YAPADPAD00@Z
_TEXT	SEGMENT PARA USE32 PUBLIC 'CODE'
_TEXT	ENDS
;	COMDAT ??$_M_append_dispatch@PAD@?$basic_string@DV?$char_traits@D@_STL@@V?$allocator@D@2@@_STL@@AAEAAV01@PAD0ABU__false_type@1@@Z
_TEXT	SEGMENT PARA USE32 PUBLIC 'CODE'
_TEXT	ENDS
;	COMDAT ??$append@PBD@?$basic_string@DV?$char_traits@D@_STL@@V?$allocator@D@2@@_STL@@AAEAAV01@PBD0ABUforward_iterator_tag@1@@Z
_TEXT	SEGMENT PARA USE32 PUBLIC 'CODE'
_TEXT	ENDS
;	COMDAT ??$_Construct@U?$pair@$$CBKV?$basic_string@DV?$char_traits@D@_STL@@V?$allocator@D@2@@_STL@@@_STL@@U12@@_STL@@YAXPAU?$pair@$$CBKV?$basic_string@DV?$char_traits@D@_STL@@V?$allocator@D@2@@_STL@@@0@ABU10@@Z
_TEXT	SEGMENT PARA USE32 PUBLIC 'CODE'
_TEXT	ENDS
;	COMDAT ?_M_construct_null@?$basic_string@DV?$char_traits@D@_STL@@V?$allocator@D@2@@_STL@@AAEXPAD@Z
_TEXT	SEGMENT PARA USE32 PUBLIC 'CODE'
_TEXT	ENDS
;	COMDAT ?max_size@?$basic_string@DV?$char_traits@D@_STL@@V?$allocator@D@2@@_STL@@QBEIXZ
_TEXT	SEGMENT PARA USE32 PUBLIC 'CODE'
_TEXT	ENDS
;	COMDAT ?capacity@?$basic_string@DV?$char_traits@D@_STL@@V?$allocator@D@2@@_STL@@QBEIXZ
_TEXT	SEGMENT PARA USE32 PUBLIC 'CODE'
_TEXT	ENDS
;	COMDAT ?max_size@?$_String_base@DV?$allocator@D@_STL@@@_STL@@QBEIXZ
_TEXT	SEGMENT PARA USE32 PUBLIC 'CODE'
_TEXT	ENDS
;	COMDAT ??0?$pair@$$CBKV?$basic_string@DV?$char_traits@D@_STL@@V?$allocator@D@2@@_STL@@@_STL@@QAE@ABU01@@Z
_TEXT	SEGMENT PARA USE32 PUBLIC 'CODE'
_TEXT	ENDS
;	COMDAT ?_M_construct_null_aux@?$basic_string@DV?$char_traits@D@_STL@@V?$allocator@D@2@@_STL@@AAEXPADABU__true_type@2@@Z
_TEXT	SEGMENT PARA USE32 PUBLIC 'CODE'
_TEXT	ENDS
;	COMDAT ??$__distance@PBD@_STL@@YAHABQBD0ABUrandom_access_iterator_tag@0@@Z
_TEXT	SEGMENT PARA USE32 PUBLIC 'CODE'
_TEXT	ENDS
;	COMDAT ?_M_throw_length_error@?$_String_base@DV?$allocator@D@_STL@@@_STL@@QBEXXZ
_TEXT	SEGMENT PARA USE32 PUBLIC 'CODE'
_TEXT	ENDS
;	COMDAT ??$__distance@PAD@_STL@@YAHABQAD0ABUrandom_access_iterator_tag@0@@Z
_TEXT	SEGMENT PARA USE32 PUBLIC 'CODE'
_TEXT	ENDS
;	COMDAT ??$__uninitialized_copy@PADPAD@_STL@@YAPADPAD00ABU__true_type@0@@Z
_TEXT	SEGMENT PARA USE32 PUBLIC 'CODE'
_TEXT	ENDS
;	COMDAT ??$append@PAD@?$basic_string@DV?$char_traits@D@_STL@@V?$allocator@D@2@@_STL@@AAEAAV01@PAD0ABUforward_iterator_tag@1@@Z
_TEXT	SEGMENT PARA USE32 PUBLIC 'CODE'
_TEXT	ENDS
;	COMDAT ??$max@I@_STL@@YAABIABI0@Z
_TEXT	SEGMENT PARA USE32 PUBLIC 'CODE'
_TEXT	ENDS
;	COMDAT ?_Ret@?$_BothPtrType@PADPAD@_STL@@SA?AU__true_type@2@XZ
_TEXT	SEGMENT PARA USE32 PUBLIC 'CODE'
_TEXT	ENDS
;	COMDAT ??$__copy_aux@PADPAD@_STL@@YAPADPAD00ABU__true_type@0@@Z
_TEXT	SEGMENT PARA USE32 PUBLIC 'CODE'
_TEXT	ENDS
;	COMDAT ?_Ret@?$_OKToMemCpy@DD@_STL@@SA?AU__true_type@2@XZ
_TEXT	SEGMENT PARA USE32 PUBLIC 'CODE'
_TEXT	ENDS
;	COMDAT ??$_IsOKToMemCpy@DD@_STL@@YA?AU?$_OKToMemCpy@DD@0@PAD0@Z
_TEXT	SEGMENT PARA USE32 PUBLIC 'CODE'
_TEXT	ENDS
;	COMDAT ??$__copy_ptrs@PADPAD@_STL@@YAPADPAD00ABU__true_type@0@@Z
_TEXT	SEGMENT PARA USE32 PUBLIC 'CODE'
_TEXT	ENDS
;	COMDAT ?__copy_trivial@_STL@@YAPAXPBX0PAX@Z
_TEXT	SEGMENT PARA USE32 PUBLIC 'CODE'
_TEXT	ENDS
;	COMDAT ??3@YAXPAX0@Z
_TEXT	SEGMENT PARA USE32 PUBLIC 'CODE'
_TEXT	ENDS
;	COMDAT ??2@YAPAXIPAX@Z
_TEXT	SEGMENT PARA USE32 PUBLIC 'CODE'
_TEXT	ENDS
;	COMDAT ?_M_deallocate_block@?$_String_base@DV?$allocator@D@_STL@@@_STL@@QAEXXZ
_TEXT	SEGMENT PARA USE32 PUBLIC 'CODE'
_TEXT	ENDS
;	COMDAT ?deallocate@?$allocator@D@_STL@@QAEXPADI@Z
_TEXT	SEGMENT PARA USE32 PUBLIC 'CODE'
_TEXT	ENDS
;	COMDAT ?deallocate@?$__node_alloc@$00$0A@@_STL@@SAXPAXI@Z
_TEXT	SEGMENT PARA USE32 PUBLIC 'CODE'
_TEXT	ENDS
;	COMDAT ?__stl_delete@_STL@@YAXPAX@Z
_TEXT	SEGMENT PARA USE32 PUBLIC 'CODE'
_TEXT	ENDS
;	COMDAT ?__page_size@_Filebuf_base@_STL@@SAIXZ
_TEXT	SEGMENT PARA USE32 PUBLIC 'CODE'
_TEXT	ENDS
;	COMDAT ?_M_write@?$basic_filebuf@DV?$char_traits@D@_STL@@@_STL@@QAE_NPADH@Z
_TEXT	SEGMENT PARA USE32 PUBLIC 'CODE'
_TEXT	ENDS
;	COMDAT ?unshift@?$codecvt@DDH@_STL@@QBE?AW4result@codecvt_base@2@AAHPAD1AAPAD@Z
_TEXT	SEGMENT PARA USE32 PUBLIC 'CODE'
_TEXT	ENDS
;	COMDAT ?uninitialized_copy@_STL@@YAPADPBD0PAD@Z
_TEXT	SEGMENT PARA USE32 PUBLIC 'CODE'
_TEXT	ENDS
;	COMDAT ?assign@?$char_traits@D@_STL@@SAXAADABD@Z
_TEXT	SEGMENT PARA USE32 PUBLIC 'CODE'
_TEXT	ENDS
;	COMDAT ?always_noconv@?$codecvt@DDH@_STL@@QBE_NXZ
_TEXT	SEGMENT PARA USE32 PUBLIC 'CODE'
_TEXT	ENDS
;	COMDAT ?encoding@?$codecvt@DDH@_STL@@QBEHXZ
_TEXT	SEGMENT PARA USE32 PUBLIC 'CODE'
_TEXT	ENDS
;	COMDAT ?max_length@?$codecvt@DDH@_STL@@QBEHXZ
_TEXT	SEGMENT PARA USE32 PUBLIC 'CODE'
_TEXT	ENDS
;	COMDAT ?__o_mode@_Filebuf_base@_STL@@QBEHXZ
_TEXT	SEGMENT PARA USE32 PUBLIC 'CODE'
_TEXT	ENDS
;	COMDAT ?_Destroy@_STL@@YAXPAD0@Z
_TEXT	SEGMENT PARA USE32 PUBLIC 'CODE'
_TEXT	ENDS
;	COMDAT ??0?$basic_string@DV?$char_traits@D@_STL@@V?$allocator@D@2@@_STL@@QAE@ABV01@@Z
_TEXT	SEGMENT PARA USE32 PUBLIC 'CODE'
_TEXT	ENDS
;	COMDAT ??1?$_String_base@DV?$allocator@D@_STL@@@_STL@@QAE@XZ
_TEXT	SEGMENT PARA USE32 PUBLIC 'CODE'
_TEXT	ENDS
;	COMDAT ??1?$basic_string@DV?$char_traits@D@_STL@@V?$allocator@D@2@@_STL@@QAE@XZ
_TEXT	SEGMENT PARA USE32 PUBLIC 'CODE'
_TEXT	ENDS
;	COMDAT ??0?$basic_string@DV?$char_traits@D@_STL@@V?$allocator@D@2@@_STL@@QAE@XZ
_TEXT	SEGMENT PARA USE32 PUBLIC 'CODE'
_TEXT	ENDS
;	COMDAT ??0?$allocator@D@_STL@@QAE@XZ
_TEXT	SEGMENT PARA USE32 PUBLIC 'CODE'
_TEXT	ENDS
;	COMDAT ??8_Rb_tree_base_iterator@_STL@@QBE_NABU01@@Z
_TEXT	SEGMENT PARA USE32 PUBLIC 'CODE'
_TEXT	ENDS
;	COMDAT ?setp@?$basic_streambuf@DV?$char_traits@D@_STL@@@_STL@@IAEXPAD0@Z
_TEXT	SEGMENT PARA USE32 PUBLIC 'CODE'
_TEXT	ENDS
;	COMDAT ?_FILE_O_set@_STL@@YAXPAU_iobuf@@PAD11@Z
_TEXT	SEGMENT PARA USE32 PUBLIC 'CODE'
_TEXT	ENDS
;	COMDAT ?_FILE_I_set@_STL@@YAXPAU_iobuf@@PAD11@Z
_TEXT	SEGMENT PARA USE32 PUBLIC 'CODE'
_TEXT	ENDS
;	COMDAT ?setg@?$basic_streambuf@DV?$char_traits@D@_STL@@@_STL@@IAEXPAD00@Z
_TEXT	SEGMENT PARA USE32 PUBLIC 'CODE'
_TEXT	ENDS
;	COMDAT ?__is_open@_Filebuf_base@_STL@@QBE_NXZ
_TEXT	SEGMENT PARA USE32 PUBLIC 'CODE'
_TEXT	ENDS
;	COMDAT ?allocate@?$__node_alloc@$00$0A@@_STL@@SAPAXI@Z
_TEXT	SEGMENT PARA USE32 PUBLIC 'CODE'
_TEXT	ENDS
;	COMDAT ?__stl_new@_STL@@YAPAXI@Z
_TEXT	SEGMENT PARA USE32 PUBLIC 'CODE'
_TEXT	ENDS
;	COMDAT ??1?$_STLP_alloc_proxy@PADDV?$allocator@D@_STL@@@_STL@@QAE@XZ
_TEXT	SEGMENT PARA USE32 PUBLIC 'CODE'
_TEXT	ENDS
;	COMDAT ?length@?$char_traits@D@_STL@@SAIPBD@Z
_TEXT	SEGMENT PARA USE32 PUBLIC 'CODE'
_TEXT	ENDS
;	COMDAT ??1?$allocator@D@_STL@@QAE@XZ
_TEXT	SEGMENT PARA USE32 PUBLIC 'CODE'
_TEXT	ENDS
;	COMDAT ?eof@?$__char_traits_base@DH@_STL@@SAHXZ
_TEXT	SEGMENT PARA USE32 PUBLIC 'CODE'
_TEXT	ENDS
;	COMDAT ??_C@_05NAOIJFC@Error?$AA@
CONST	SEGMENT DWORD USE32 PUBLIC 'CONST'
CONST	ENDS
sxdata	SEGMENT DWORD USE32 'SXDATA'
sxdata	ENDS
FLAT	GROUP _DATA, CONST, _BSS
	ASSUME	CS: FLAT, DS: FLAT, SS: FLAT
endif

INCLUDELIB LIBCMT
INCLUDELIB OLDNAMES

PUBLIC	?g_bIsNT@@3_NA					; g_bIsNT
PUBLIC	?g_bIsStartGameHack@@3_NA			; g_bIsStartGameHack
PUBLIC	?g_nProtectInstance@@3PAUHINSTANCE__@@A		; g_nProtectInstance
PUBLIC	?g_NPFGMInstance@@3PAUHINSTANCE__@@A		; g_NPFGMInstance
PUBLIC	?g_nPSICEInstance@@3PAUHINSTANCE__@@A		; g_nPSICEInstance
PUBLIC	??_C@_0O@JKENFCBN@MinTrace?52003?$AA@		; `string'
PUBLIC	??_C@_0BE@MNEJIGLM@__MinTrace?5Window__?$AA@	; `string'
PUBLIC	?pReleaseProtect@@3P6A_NXZA			; pReleaseProtect
PUBLIC	?pEnterProtect@@3P6A_NXZA			; pEnterProtect
PUBLIC	?pnPFindSICE@@3P6A_NXZA				; pnPFindSICE
PUBLIC	?g_OsVersion@@3PAKA				; g_OsVersion
PUBLIC	?pCheckNPMON@@3P6AHXZA				; pCheckNPMON
PUBLIC	?g_delayTime_npmon@@3KA				; g_delayTime_npmon
_BSS	SEGMENT
?g_bIsNT@@3_NA DB 01H DUP (?)				; g_bIsNT
	ALIGN	4

?g_bIsStartGameHack@@3_NA DB 01H DUP (?)		; g_bIsStartGameHack
	ALIGN	4

?g_nProtectInstance@@3PAUHINSTANCE__@@A DD 01H DUP (?)	; g_nProtectInstance
?g_NPFGMInstance@@3PAUHINSTANCE__@@A DD 01H DUP (?)	; g_NPFGMInstance
?g_nPSICEInstance@@3PAUHINSTANCE__@@A DD 01H DUP (?)	; g_nPSICEInstance
?pReleaseProtect@@3P6A_NXZA DD 01H DUP (?)		; pReleaseProtect
?pEnterProtect@@3P6A_NXZA DD 01H DUP (?)		; pEnterProtect
?pnPFindSICE@@3P6A_NXZA DD 01H DUP (?)			; pnPFindSICE
?g_OsVersion@@3PAKA DD 02H DUP (?)			; g_OsVersion
?pCheckNPMON@@3P6AHXZA DD 01H DUP (?)			; pCheckNPMON
_BSS	ENDS
;	COMDAT ??_C@_0O@JKENFCBN@MinTrace?52003?$AA@
CONST	SEGMENT
??_C@_0O@JKENFCBN@MinTrace?52003?$AA@ DB 'MinTrace 2003', 00H ; `string'
CONST	ENDS
_DATA	SEGMENT
_g_pszMinTraceTitle DD FLAT:??_C@_0O@JKENFCBN@MinTrace?52003?$AA@
_DATA	ENDS
;	COMDAT ??_C@_0BE@MNEJIGLM@__MinTrace?5Window__?$AA@
CONST	SEGMENT
??_C@_0BE@MNEJIGLM@__MinTrace?5Window__?$AA@ DB '__MinTrace Window__', 00H ; `string'
CONST	ENDS
_DATA	SEGMENT
_g_pszMinTraceClassName DD FLAT:??_C@_0BE@MNEJIGLM@__MinTrace?5Window__?$AA@
?g_delayTime_npmon@@3KA DD 0ea60H			; g_delayTime_npmon
_DATA	ENDS
PUBLIC	?Init@CNPGameLib@@QAEKXZ			; CNPGameLib::Init
EXTRN	_InitNPGameMon:NEAR
; Function compile flags: /Ogsy
; File c:\darkeden\designed_common\project\client\npgamelib.h
;	COMDAT ?Init@CNPGameLib@@QAEKXZ
_TEXT	SEGMENT
?Init@CNPGameLib@@QAEKXZ PROC NEAR			; CNPGameLib::Init, COMDAT
; _this$ = ecx

; 203  : #ifdef NO_GAMEGUARD
; 204  :       return NPGAMEMON_SUCCESS;
; 205  : #endif
; 206  :       return (InitNPGameMon());

  00000	e9 00 00 00 00	 jmp	 _InitNPGameMon
?Init@CNPGameLib@@QAEKXZ ENDP				; CNPGameLib::Init
_TEXT	ENDS
PUBLIC	?SetHwnd@CNPGameLib@@QAEXPAUHWND__@@@Z		; CNPGameLib::SetHwnd
EXTRN	_SetHwndToGameMon:NEAR
; Function compile flags: /Ogsy
;	COMDAT ?SetHwnd@CNPGameLib@@QAEXPAUHWND__@@@Z
_TEXT	SEGMENT
_hWnd$ = 8						; size = 4
?SetHwnd@CNPGameLib@@QAEXPAUHWND__@@@Z PROC NEAR	; CNPGameLib::SetHwnd, COMDAT
; _this$ = ecx

; 211  : #ifdef NO_GAMEGUARD
; 212  :       return;
; 213  : #endif
; 214  :       SetHwndToGameMon(hWnd);

  00000	ff 74 24 04	 push	 DWORD PTR _hWnd$[esp-4]
  00004	e8 00 00 00 00	 call	 _SetHwndToGameMon
  00009	59		 pop	 ecx

; 215  :    }

  0000a	c2 04 00	 ret	 4
?SetHwnd@CNPGameLib@@QAEXPAUHWND__@@@Z ENDP		; CNPGameLib::SetHwnd
_TEXT	ENDS
PUBLIC	?Check@CNPGameLib@@QAEKXZ			; CNPGameLib::Check
EXTRN	_CheckNPGameMon:NEAR
; Function compile flags: /Ogsy
;	COMDAT ?Check@CNPGameLib@@QAEKXZ
_TEXT	SEGMENT
?Check@CNPGameLib@@QAEKXZ PROC NEAR			; CNPGameLib::Check, COMDAT
; _this$ = ecx

; 219  : #ifdef NO_GAMEGUARD
; 220  :       return NPGAMEMON_SUCCESS;
; 221  : #endif
; 222  :       return (CheckNPGameMon());

  00000	e9 00 00 00 00	 jmp	 _CheckNPGameMon
?Check@CNPGameLib@@QAEKXZ ENDP				; CNPGameLib::Check
_TEXT	ENDS
PUBLIC	?Auth@CNPGameLib@@QAEKK@Z			; CNPGameLib::Auth
EXTRN	_SendCSAuthToGameMon:NEAR
; Function compile flags: /Ogsy
;	COMDAT ?Auth@CNPGameLib@@QAEKK@Z
_TEXT	SEGMENT
_dwAuth$ = 8						; size = 4
?Auth@CNPGameLib@@QAEKK@Z PROC NEAR			; CNPGameLib::Auth, COMDAT
; _this$ = ecx

; 249  : #ifdef NO_GAMEGUARD
; 250  :       return NPGAMEMON_SUCCESS;
; 251  : #endif
; 252  :       return (SendCSAuthToGameMon(dwAuth));

  00000	ff 74 24 04	 push	 DWORD PTR _dwAuth$[esp-4]
  00004	e8 00 00 00 00	 call	 _SendCSAuthToGameMon
  00009	59		 pop	 ecx

; 253  :    }

  0000a	c2 04 00	 ret	 4
?Auth@CNPGameLib@@QAEKK@Z ENDP				; CNPGameLib::Auth
_TEXT	ENDS
PUBLIC	??2@YAPAXIPAX@Z					; operator new
; Function compile flags: /Ogsy
; File c:\program files\microsoft visual studio .net 2003\vc7\include\new
;	COMDAT ??2@YAPAXIPAX@Z
_TEXT	SEGMENT
___formal$ = 8						; size = 4
__Where$ = 12						; size = 4
??2@YAPAXIPAX@Z PROC NEAR				; operator new, COMDAT

; 64   : 	return (_Where);

  00000	8b 44 24 08	 mov	 eax, DWORD PTR __Where$[esp-4]

; 65   : 	}

  00004	c3		 ret	 0
??2@YAPAXIPAX@Z ENDP					; operator new
_TEXT	ENDS
PUBLIC	??3@YAXPAX0@Z					; operator delete
; Function compile flags: /Ogsy
;	COMDAT ??3@YAXPAX0@Z
_TEXT	SEGMENT
___formal$ = 8						; size = 4
___formal$ = 12						; size = 4
??3@YAXPAX0@Z PROC NEAR					; operator delete, COMDAT

; 69   : 	}

  00000	c3		 ret	 0
??3@YAXPAX0@Z ENDP					; operator delete
_TEXT	ENDS
PUBLIC	?__stl_new@_STL@@YAPAXI@Z			; _STL::__stl_new
EXTRN	??2@YAPAXI@Z:NEAR				; operator new
; Function compile flags: /Ogsy
; File c:\stlport-4.6.1\stlport\stl\_new.h
;	COMDAT ?__stl_new@_STL@@YAPAXI@Z
_TEXT	SEGMENT
___n$ = 8						; size = 4
?__stl_new@_STL@@YAPAXI@Z PROC NEAR			; _STL::__stl_new, COMDAT

; 86   : inline void*  _STLP_CALL __stl_new(size_t __n)   { _STLP_CHECK_NULL_ALLOC(::operator _STLP_NEW(__n)); }

  00000	e9 00 00 00 00	 jmp	 ??2@YAPAXI@Z		; operator new
?__stl_new@_STL@@YAPAXI@Z ENDP				; _STL::__stl_new
_TEXT	ENDS
PUBLIC	?__stl_delete@_STL@@YAXPAX@Z			; _STL::__stl_delete
EXTRN	??3@YAXPAX@Z:NEAR				; operator delete
; Function compile flags: /Ogsy
;	COMDAT ?__stl_delete@_STL@@YAXPAX@Z
_TEXT	SEGMENT
___p$ = 8						; size = 4
?__stl_delete@_STL@@YAXPAX@Z PROC NEAR			; _STL::__stl_delete, COMDAT

; 87   : inline void   _STLP_CALL __stl_delete(void* __p) { ::operator delete(__p); }

  00000	e9 00 00 00 00	 jmp	 ??3@YAXPAX@Z		; operator delete
?__stl_delete@_STL@@YAXPAX@Z ENDP			; _STL::__stl_delete
_TEXT	ENDS
PUBLIC	?_Destroy@_STL@@YAXPAD0@Z			; _STL::_Destroy
; Function compile flags: /Ogsy
; File c:\stlport-4.6.1\stlport\stl\_construct.h
;	COMDAT ?_Destroy@_STL@@YAXPAD0@Z
_TEXT	SEGMENT
___formal$ = 8						; size = 4
___formal$ = 12						; size = 4
?_Destroy@_STL@@YAXPAD0@Z PROC NEAR			; _STL::_Destroy, COMDAT

; 142  : inline void _Destroy(char*, char*) {}

  00000	c3		 ret	 0
?_Destroy@_STL@@YAXPAD0@Z ENDP				; _STL::_Destroy
_TEXT	ENDS
PUBLIC	?__copy_trivial@_STL@@YAPAXPBX0PAX@Z		; _STL::__copy_trivial
EXTRN	_memmove:NEAR
; Function compile flags: /Ogsy
; File c:\stlport-4.6.1\stlport\stl\_algobase.h
;	COMDAT ?__copy_trivial@_STL@@YAPAXPBX0PAX@Z
_TEXT	SEGMENT
___first$ = 8						; size = 4
___last$ = 12						; size = 4
___result$ = 16						; size = 4
?__copy_trivial@_STL@@YAPAXPBX0PAX@Z PROC NEAR		; _STL::__copy_trivial, COMDAT

; 147  : __copy_trivial(const void* __first, const void* __last, void* __result) {

  00000	55		 push	 ebp
  00001	8b ec		 mov	 ebp, esp
  00003	56		 push	 esi

; 148  :   return (__last == __first) ? __result : 
; 149  :     ((char*)memmove(__result, __first, ((const char*)__last - (const char*)__first))) + 
; 150  :     ((const char*)__last - (const char*)__first);

  00004	8b 75 0c	 mov	 esi, DWORD PTR ___last$[ebp]
  00007	3b 75 08	 cmp	 esi, DWORD PTR ___first$[ebp]
  0000a	75 05		 jne	 SHORT $L102466
  0000c	8b 45 10	 mov	 eax, DWORD PTR ___result$[ebp]
  0000f	eb 14		 jmp	 SHORT $L102467
$L102466:
  00011	2b 75 08	 sub	 esi, DWORD PTR ___first$[ebp]
  00014	56		 push	 esi
  00015	ff 75 08	 push	 DWORD PTR ___first$[ebp]
  00018	ff 75 10	 push	 DWORD PTR ___result$[ebp]
  0001b	e8 00 00 00 00	 call	 _memmove
  00020	83 c4 0c	 add	 esp, 12			; 0000000cH
  00023	03 c6		 add	 eax, esi
$L102467:
  00025	5e		 pop	 esi

; 151  : }

  00026	5d		 pop	 ebp
  00027	c3		 ret	 0
?__copy_trivial@_STL@@YAPAXPBX0PAX@Z ENDP		; _STL::__copy_trivial
_TEXT	ENDS
PUBLIC	?uninitialized_copy@_STL@@YAPADPBD0PAD@Z	; _STL::uninitialized_copy
; Function compile flags: /Ogsy
; File c:\stlport-4.6.1\stlport\stl\_uninitialized.h
;	COMDAT ?uninitialized_copy@_STL@@YAPADPBD0PAD@Z
_TEXT	SEGMENT
___first$ = 8						; size = 4
___last$ = 12						; size = 4
___result$ = 16						; size = 4
?uninitialized_copy@_STL@@YAPADPBD0PAD@Z PROC NEAR	; _STL::uninitialized_copy, COMDAT

; 84   :   return  (char*)__copy_trivial (__first, __last, __result);

  00000	e9 00 00 00 00	 jmp	 ?__copy_trivial@_STL@@YAPAXPBX0PAX@Z ; _STL::__copy_trivial
?uninitialized_copy@_STL@@YAPADPBD0PAD@Z ENDP		; _STL::uninitialized_copy
_TEXT	ENDS
PUBLIC	?length@?$char_traits@D@_STL@@SAIPBD@Z		; _STL::char_traits<char>::length
EXTRN	_strlen:NEAR
; Function compile flags: /Ogsy
; File c:\stlport-4.6.1\stlport\stl\char_traits.h
;	COMDAT ?length@?$char_traits@D@_STL@@SAIPBD@Z
_TEXT	SEGMENT
___s$ = 8						; size = 4
?length@?$char_traits@D@_STL@@SAIPBD@Z PROC NEAR	; _STL::char_traits<char>::length, COMDAT

; 238  :   static size_t _STLP_CALL length(const char* __s) { return strlen(__s); }

  00000	e9 00 00 00 00	 jmp	 _strlen
?length@?$char_traits@D@_STL@@SAIPBD@Z ENDP		; _STL::char_traits<char>::length
_TEXT	ENDS
PUBLIC	?assign@?$char_traits@D@_STL@@SAXAADABD@Z	; _STL::char_traits<char>::assign
; Function compile flags: /Ogsy
;	COMDAT ?assign@?$char_traits@D@_STL@@SAXAADABD@Z
_TEXT	SEGMENT
___c1$ = 8						; size = 4
___c2$ = 12						; size = 4
?assign@?$char_traits@D@_STL@@SAXAADABD@Z PROC NEAR	; _STL::char_traits<char>::assign, COMDAT

; 240  :   static void _STLP_CALL assign(char& __c1, const char& __c2) { __c1 = __c2; }

  00000	8b 44 24 08	 mov	 eax, DWORD PTR ___c2$[esp-4]
  00004	8a 00		 mov	 al, BYTE PTR [eax]
  00006	8b 4c 24 04	 mov	 ecx, DWORD PTR ___c1$[esp-4]
  0000a	88 01		 mov	 BYTE PTR [ecx], al
  0000c	c3		 ret	 0
?assign@?$char_traits@D@_STL@@SAXAADABD@Z ENDP		; _STL::char_traits<char>::assign
_TEXT	ENDS
PUBLIC	?CheckWindowVersion@@YA_NXZ			; CheckWindowVersion
PUBLIC	??_C@_0O@NLMEMHCE@Execute?5Error?$AA@		; `string'
PUBLIC	??_C@_0CB@LICCPCGN@?A?v?$LP?x?$LF?G?A?v?5?$LO?J?$LE?B?5?$MA?$KJ?$LF?$LF?$LP?l?5?$LJ?v?$MA?$PM?$MA?T?$LE?O?$LE?Y?4@ ; `string'
EXTRN	___security_cookie:DWORD
EXTRN	@__security_check_cookie@4:NEAR
EXTRN	__imp__GetVersionExA@4:NEAR
EXTRN	__imp__MessageBoxA@16:NEAR
;	COMDAT ??_C@_0O@NLMEMHCE@Execute?5Error?$AA@
; File c:\darkeden\designed_common\project\client\nprotect.cpp
CONST	SEGMENT
??_C@_0O@NLMEMHCE@Execute?5Error?$AA@ DB 'Execute Error', 00H ; `string'
CONST	ENDS
;	COMDAT ??_C@_0CB@LICCPCGN@?A?v?$LP?x?$LF?G?A?v?5?$LO?J?$LE?B?5?$MA?$KJ?$LF?$LF?$LP?l?5?$LJ?v?$MA?$PM?$MA?T?$LE?O?$LE?Y?4@
CONST	SEGMENT
??_C@_0CB@LICCPCGN@?A?v?$LP?x?$LF?G?A?v?5?$LO?J?$LE?B?5?$MA?$KJ?$LF?$LF?$LP?l?5?$LJ?v?$MA?$PM?$MA?T?$LE?O?$LE?Y?4@ DB 0c1H
	DB	0f6H, 0bfH, 0f8H, 0b5H, 0c7H, 0c1H, 0f6H, ' ', 0beH, 0caH, 0b4H
	DB	0c2H, ' ', 0c0H, 0a9H, 0b5H, 0b5H, 0bfH, 0ecH, ' ', 0b9H, 0f6H
	DB	0c0H, 0fcH, 0c0H, 0d4H, 0b4H, 0cfH, 0b4H, 0d9H, '.', 00H ; `string'
; Function compile flags: /Ogsy
CONST	ENDS
;	COMDAT ?CheckWindowVersion@@YA_NXZ
_TEXT	SEGMENT
_VersionInfo$ = -152					; size = 148
__$ArrayPad$ = -4					; size = 4
__$ReturnAddr$ = 4					; size = 4
?CheckWindowVersion@@YA_NXZ PROC NEAR			; CheckWindowVersion, COMDAT

; 48   : {

  00000	55		 push	 ebp
  00001	8b ec		 mov	 ebp, esp
  00003	81 ec 98 00 00
	00		 sub	 esp, 152		; 00000098H
  00009	a1 00 00 00 00	 mov	 eax, DWORD PTR ___security_cookie
  0000e	89 45 fc	 mov	 DWORD PTR __$ArrayPad$[ebp], eax

; 49   : 	OSVERSIONINFO VersionInfo;
; 50   : 
; 51   : 	VersionInfo.dwOSVersionInfoSize = sizeof(OSVERSIONINFO);
; 52   : 	
; 53   : 	if( GetVersionEx(&VersionInfo) == FALSE )

  00011	8d 85 68 ff ff
	ff		 lea	 eax, DWORD PTR _VersionInfo$[ebp]
  00017	50		 push	 eax
  00018	c7 85 68 ff ff
	ff 94 00 00 00	 mov	 DWORD PTR _VersionInfo$[ebp], 148 ; 00000094H
  00022	ff 15 00 00 00
	00		 call	 DWORD PTR __imp__GetVersionExA@4
  00028	85 c0		 test	 eax, eax
  0002a	75 16		 jne	 SHORT $L101227

; 54   : 	{
; 55   : 		MessageBox(NULL, "지원되지 않는 윈도우 버전입니다.","Execute Error", MB_OK);

  0002c	50		 push	 eax
  0002d	68 00 00 00 00	 push	 OFFSET FLAT:??_C@_0O@NLMEMHCE@Execute?5Error?$AA@
  00032	68 00 00 00 00	 push	 OFFSET FLAT:??_C@_0CB@LICCPCGN@?A?v?$LP?x?$LF?G?A?v?5?$LO?J?$LE?B?5?$MA?$KJ?$LF?$LF?$LP?l?5?$LJ?v?$MA?$PM?$MA?T?$LE?O?$LE?Y?4@
  00037	50		 push	 eax
  00038	ff 15 00 00 00
	00		 call	 DWORD PTR __imp__MessageBoxA@16

; 56   : 		return false;

  0003e	32 c0		 xor	 al, al
  00040	eb 24		 jmp	 SHORT $L101224
$L101227:

; 57   : 	}
; 58   : 
; 59   : 	if(VersionInfo.dwPlatformId == VER_PLATFORM_WIN32_NT )

  00042	8b 85 78 ff ff
	ff		 mov	 eax, DWORD PTR _VersionInfo$[ebp+16]
  00048	83 f8 02	 cmp	 eax, 2

; 60   : 		g_bIsNT = true;
; 61   : 	else
; 62   : 		g_bIsNT = false;
; 63   : 
; 64   : 	g_OsVersion[0] = VersionInfo.dwPlatformId;

  0004b	a3 00 00 00 00	 mov	 DWORD PTR ?g_OsVersion@@3PAKA, eax

; 65   : 	g_OsVersion[1] = VersionInfo.dwMajorVersion;

  00050	8b 85 6c ff ff
	ff		 mov	 eax, DWORD PTR _VersionInfo$[ebp+4]
  00056	0f 94 c1	 sete	 cl
  00059	a3 04 00 00 00	 mov	 DWORD PTR ?g_OsVersion@@3PAKA+4, eax
  0005e	88 0d 00 00 00
	00		 mov	 BYTE PTR ?g_bIsNT@@3_NA, cl ; g_bIsNT

; 66   : 	
; 67   : 	return true;

  00064	b0 01		 mov	 al, 1
$L101224:

; 68   : }

  00066	8b 4d fc	 mov	 ecx, DWORD PTR __$ArrayPad$[ebp]
  00069	e8 00 00 00 00	 call	 @__security_check_cookie@4
  0006e	c9		 leave
  0006f	c3		 ret	 0
?CheckWindowVersion@@YA_NXZ ENDP			; CheckWindowVersion
_TEXT	ENDS
PUBLIC	??_C@_05NAOIJFC@Error?$AA@			; `string'
PUBLIC	??_C@_0DM@NEBFJKBC@?$LA?T?$MA?S?$LA?$KB?$LF?e?$LA?$KB?5?$LN?G?G?$OA?5?A?$NP?5?$MA?L?A?v?5?$LO?J?$LN?$MA?$LE?O?$LE?Y@ ; `string'
PUBLIC	?CheckNPROTECT@@YAHH@Z				; CheckNPROTECT
EXTRN	?g_hWnd@@3PAUHWND__@@A:DWORD			; g_hWnd
;	COMDAT ??_C@_05NAOIJFC@Error?$AA@
; File c:\darkeden\designed_common\project\client\npgamelib.h
CONST	SEGMENT
??_C@_05NAOIJFC@Error?$AA@ DB 'Error', 00H		; `string'
CONST	ENDS
;	COMDAT ??_C@_0DM@NEBFJKBC@?$LA?T?$MA?S?$LA?$KB?$LF?e?$LA?$KB?5?$LN?G?G?$OA?5?A?$NP?5?$MA?L?A?v?5?$LO?J?$LN?$MA?$LE?O?$LE?Y@
CONST	SEGMENT
??_C@_0DM@NEBFJKBC@?$LA?T?$MA?S?$LA?$KB?$LF?e?$LA?$KB?5?$LN?G?G?$OA?5?A?$NP?5?$MA?L?A?v?5?$LO?J?$LN?$MA?$LE?O?$LE?Y@ DB 0b0H
	DB	0d4H, 0c0H, 0d3H, 0b0H, 0a1H, 0b5H, 0e5H, 0b0H, 0a1H, ' ', 0bdH
	DB	0c7H, 0c7H, 0e0H, ' ', 0c1H, 0dfH, ' ', 0c0H, 0ccH, 0c1H, 0f6H
	DB	' ', 0beH, 0caH, 0bdH, 0c0H, 0b4H, 0cfH, 0b4H, 0d9H, '. ', 0baH
	DB	0f1H, 0c1H, 0a4H, 0bbH, 0f3H, 0c0H, 0fbH, 0c0H, 0b8H, 0b7H, 0ceH
	DB	' ', 0c1H, 0beH, 0b7H, 0e1H, ' ', 0b5H, 0cbH, 0b4H, 0cfH, 0b4H
	DB	0d9H, '.', 00H				; `string'
; Function compile flags: /Ogsy
; File c:\darkeden\designed_common\project\client\nprotect.cpp
CONST	ENDS
;	COMDAT ?CheckNPROTECT@@YAHH@Z
_TEXT	SEGMENT
_CurTime$ = 8						; size = 4
?CheckNPROTECT@@YAHH@Z PROC NEAR			; CheckNPROTECT, COMDAT

; 81   : #ifdef __OLD_VERSION__
; 82   : 	static DWORD time = 0;
; 83   : 	HWND hWnd;
; 84   : 	
; 85   : 	time++;
; 86   : 	if(time >= 512)
; 87   : 		time = 0;
; 88   : 	
; 89   : 	if(time == 4)
; 90   : 	{
; 91   : 		hWnd = FindWindow("TfrmNPMON", "WWW.NPROTECT.COM");	
; 92   : 		
; 93   : 		if( hWnd != 0 )
; 94   : 			return NPROTECT_OK;
; 95   : 		
; 96   : 		DEBUG_ADD("[nProtect] Cannot Find nProtect");
; 97   : 		return NPROTECT_ERROR;
; 98   : 	} //else
; 99   : #endif
; 100  : 	
; 101  : //	if(time == 15)
; 102  : //	if( TimerCheckNPMON() )
; 103  : //	{
; 104  : //		BOOL Result = pCheckNPMON();
; 105  : //
; 106  : //		if(!Result)
; 107  : //			return NPROTECT_ERROR;
; 108  : //
; 109  : //		return NPROTECT_OK;
; 110  : //		
; 111  : //#ifdef __RUN_GAMEHACK__
; 112  : //		if ( !pnPFindSICE())
; 113  : //			return NPROTECT_OK;
; 114  : //		
; 115  : //		DEBUG_ADD("[nProtect] Find SoftICE");
; 116  : //		return NPROTECT_ERROR;
; 117  : //#endif
; 118  : 	//	}
; 119  : 	if (npgl.Check() != NPGAMEMON_SUCCESS) 

  00000	e8 00 00 00 00	 call	 _CheckNPGameMon
  00005	3d 55 07 00 00	 cmp	 eax, 1877		; 00000755H
  0000a	74 1b		 je	 SHORT $L101235

; 120  : 	{
; 121  : 		MessageBox(g_hWnd, "게임가드가 실행 중 이지 않습니다. 비정상적으로 종료 됩니다.", "Error", MB_OK|MB_ICONERROR);

  0000c	6a 10		 push	 16			; 00000010H
  0000e	68 00 00 00 00	 push	 OFFSET FLAT:??_C@_05NAOIJFC@Error?$AA@
  00013	68 00 00 00 00	 push	 OFFSET FLAT:??_C@_0DM@NEBFJKBC@?$LA?T?$MA?S?$LA?$KB?$LF?e?$LA?$KB?5?$LN?G?G?$OA?5?A?$NP?5?$MA?L?A?v?5?$LO?J?$LN?$MA?$LE?O?$LE?Y@
  00018	ff 35 00 00 00
	00		 push	 DWORD PTR ?g_hWnd@@3PAUHWND__@@A ; g_hWnd
  0001e	ff 15 00 00 00
	00		 call	 DWORD PTR __imp__MessageBoxA@16

; 122  : 		return NPROTECT_ERROR;

  00024	33 c0		 xor	 eax, eax

; 126  : }

  00026	c3		 ret	 0
$L101235:

; 123  : 	}
; 124  : 
; 125  : 	return NPROTECT_OK;

  00027	33 c0		 xor	 eax, eax
  00029	40		 inc	 eax

; 126  : }

  0002a	c3		 ret	 0
?CheckNPROTECT@@YAHH@Z ENDP				; CheckNPROTECT
_TEXT	ENDS
PUBLIC	?CloseNPROTECT@@YAXXZ				; CloseNPROTECT
; Function compile flags: /Ogsy
;	COMDAT ?CloseNPROTECT@@YAXXZ
_TEXT	SEGMENT
?CloseNPROTECT@@YAXXZ PROC NEAR				; CloseNPROTECT, COMDAT

; 367  : #ifdef __OLD_VERSION__
; 368  : 	HWND nProtecthWnd;
; 369  : 
; 370  : 	nProtecthWnd = FindWindow( NULL, "WWW.NPROTECT.COM" );
; 371  : 
; 372  : #ifdef __RUN_GAMEHACK__
; 373  : 	ReleaseGameHack();
; 374  : #endif
; 375  : 	
; 376  : 
; 377  : 	if(nProtecthWnd != 0)
; 378  : 	{
; 379  : 		DEBUG_ADD("[nProtect] Close nProtect");
; 380  : 		SendMessage( nProtecthWnd, WM_NPROTECT_FORCEEXIT, NULL, NULL );
; 381  : 	}
; 382  : 	if(g_nProtectInstance != NULL)
; 383  : 	{
; 384  : 		FreeLibrary( g_nProtectInstance );
; 385  : 		g_nProtectInstance = NULL;
; 386  : 	}
; 387  : 	if(g_NPFGMInstance != NULL)
; 388  : 	{
; 389  : 		FreeLibrary( g_NPFGMInstance );
; 390  : 		g_NPFGMInstance = NULL;
; 391  : 	}
; 392  : #ifdef __RUN_GAMEHACK__
; 393  : 	if(g_nPSICEInstance != NULL)
; 394  : 	{
; 395  : 		FreeLibrary( g_nPSICEInstance );
; 396  : 		g_nPSICEInstance = NULL;
; 397  : 	}
; 398  : #endif
; 399  : 
; 400  : #endif // __OLD_VERSION__
; 401  : //	npgl.Close();
; 402  : }

  00000	c3		 ret	 0
?CloseNPROTECT@@YAXXZ ENDP				; CloseNPROTECT
_TEXT	ENDS
PUBLIC	?TimerCheckNPMON@@YA_NH@Z			; TimerCheckNPMON
EXTRN	__imp__timeGetTime@0:NEAR
EXTRN	?g_TimerNPMON@@3KA:DWORD			; g_TimerNPMON
; Function compile flags: /Ogsy
;	COMDAT ?TimerCheckNPMON@@YA_NH@Z
_TEXT	SEGMENT
_CurTime$ = 8						; size = 4
?TimerCheckNPMON@@YA_NH@Z PROC NEAR			; TimerCheckNPMON, COMDAT

; 462  : 	DWORD		nCurrentTime;
; 463  : 	if(CurTime)

  00000	8b 44 24 04	 mov	 eax, DWORD PTR _CurTime$[esp-4]
  00004	85 c0		 test	 eax, eax

; 464  : 		nCurrentTime = CurTime;
; 465  : 	else

  00006	75 06		 jne	 SHORT $L101265

; 466  : 		nCurrentTime = timeGetTime();

  00008	ff 15 00 00 00
	00		 call	 DWORD PTR __imp__timeGetTime@0
$L101265:

; 467  : 	
; 468  : 	if( (nCurrentTime - g_TimerNPMON) > g_delayTime_npmon )

  0000e	8b c8		 mov	 ecx, eax
  00010	2b 0d 00 00 00
	00		 sub	 ecx, DWORD PTR ?g_TimerNPMON@@3KA ; g_TimerNPMON
  00016	3b 0d 00 00 00
	00		 cmp	 ecx, DWORD PTR ?g_delayTime_npmon@@3KA ; g_delayTime_npmon
  0001c	76 12		 jbe	 SHORT $L101266

; 469  : 	{
; 470  : 		g_TimerNPMON = nCurrentTime;

  0001e	a3 00 00 00 00	 mov	 DWORD PTR ?g_TimerNPMON@@3KA, eax ; g_TimerNPMON

; 471  : 		g_delayTime_npmon = 30000;

  00023	c7 05 00 00 00
	00 30 75 00 00	 mov	 DWORD PTR ?g_delayTime_npmon@@3KA, 30000 ; g_delayTime_npmon, 00007530H

; 472  : 		return true;

  0002d	b0 01		 mov	 al, 1

; 475  : }

  0002f	c3		 ret	 0
$L101266:

; 473  : 	}
; 474  : 	return false;

  00030	32 c0		 xor	 al, al

; 475  : }

  00032	c3		 ret	 0
?TimerCheckNPMON@@YA_NH@Z ENDP				; TimerCheckNPMON
_TEXT	ENDS
PUBLIC	?NPGameMonCallback@@YGHKK@Z			; NPGameMonCallback
EXTRN	?Send_nProtect_Auth@@YAXK@Z:NEAR		; Send_nProtect_Auth
EXTRN	?g_nProtectErrorMessage@@3KA:DWORD		; g_nProtectErrorMessage
EXTRN	?g_nProtectErrorMessage2@@3KA:DWORD		; g_nProtectErrorMessage2
EXTRN	?g_bForceExitBynProtect@@3_NA:BYTE		; g_bForceExitBynProtect
; Function compile flags: /Ogsy
;	COMDAT ?NPGameMonCallback@@YGHKK@Z
_TEXT	SEGMENT
_dwMsg$ = 8						; size = 4
_dwArg$ = 12						; size = 4
?NPGameMonCallback@@YGHKK@Z PROC NEAR			; NPGameMonCallback, COMDAT

; 480  : //	TCHAR msg[128];
; 481  : 
; 482  : 	g_nProtectErrorMessage = dwMsg;	

  00000	8b 44 24 04	 mov	 eax, DWORD PTR _dwMsg$[esp-4]

; 483  : 	g_nProtectErrorMessage2 = dwArg;
; 484  : 	switch (dwMsg)

  00004	3d e9 03 00 00	 cmp	 eax, 1001		; 000003e9H
  00009	8b 4c 24 08	 mov	 ecx, DWORD PTR _dwArg$[esp-4]
  0000d	a3 00 00 00 00	 mov	 DWORD PTR ?g_nProtectErrorMessage@@3KA, eax ; g_nProtectErrorMessage
  00012	89 0d 00 00 00
	00		 mov	 DWORD PTR ?g_nProtectErrorMessage2@@3KA, ecx ; g_nProtectErrorMessage2
  00018	72 31		 jb	 SHORT $L101272
  0001a	3d ea 03 00 00	 cmp	 eax, 1002		; 000003eaH
  0001f	76 30		 jbe	 SHORT $L101277
  00021	3d f3 03 00 00	 cmp	 eax, 1011		; 000003f3H
  00026	74 29		 je	 SHORT $L101277
  00028	3d f4 03 00 00	 cmp	 eax, 1012		; 000003f4H
  0002d	74 1c		 je	 SHORT $L101272
  0002f	3d f5 03 00 00	 cmp	 eax, 1013		; 000003f5H
  00034	74 1b		 je	 SHORT $L101277
  00036	3d f6 03 00 00	 cmp	 eax, 1014		; 000003f6H
  0003b	74 14		 je	 SHORT $L101277
  0003d	3d f8 03 00 00	 cmp	 eax, 1016		; 000003f8H
  00042	75 07		 jne	 SHORT $L101272

; 501  : 		
; 502  : 	case NPGAMEMON_GAMEHACK_KILLED:
; 503  : //		MessageBox(hWnd, "게임핵이 발견되었습니다.", "Warning", MB_OK);
; 504  : 		return true; // 계속 진행
; 505  : 		
; 506  : 	case NPGAMEMON_GAMEHACK_DETECT:
; 507  : //		MessageBox(hWnd, "게임핵이 감지되었습니다.", "Warning", MB_OK);
; 508  : 		g_bForceExitBynProtect = true;
; 509  : 		return false; // 종료
; 510  : 	case NPGAMEMON_CHECK_CSAUTH:
; 511  : 		//MessageBox(g_hWnd, "NPGAMEMON_CHECK_CSAUTH받음", "Warning", MB_OK);
; 512  : 		Send_nProtect_Auth(dwArg);

  00044	51		 push	 ecx
  00045	e8 00 00 00 00	 call	 ?Send_nProtect_Auth@@YAXK@Z ; Send_nProtect_Auth
  0004a	59		 pop	 ecx
$L101272:

; 513  : 		return true;
; 514  : 	}	
; 515  : 	return true;

  0004b	33 c0		 xor	 eax, eax
  0004d	40		 inc	 eax
$L101270:

; 516  : }

  0004e	c2 08 00	 ret	 8
$L101277:

; 485  :     {		
; 486  : 	case NPGAMEMON_COMM_ERROR:
; 487  : 	case NPGAMEMON_COMM_CLOSE:
; 488  : 		g_bForceExitBynProtect = true;
; 489  : 		return false; // 반드시 종료
; 490  : 		
; 491  : 	case NPGAMEMON_INIT_ERROR:
; 492  : //		wsprintf(msg, "nProtect GameGuard 초기화 에러 : %lu", dwArg);
; 493  : //		MessageBox(hWnd, msg, "Error", MB_OK);
; 494  : 		g_bForceExitBynProtect = true;
; 495  : 		return false; // 반드시 종료
; 496  : 		
; 497  : 	case NPGAMEMON_SPEEDHACK:
; 498  : //		MessageBox(hWnd, "스피드핵이 감지되었습니다.", "Warning", MB_OK);
; 499  : 		g_bForceExitBynProtect = true;

  00051	c6 05 00 00 00
	00 01		 mov	 BYTE PTR ?g_bForceExitBynProtect@@3_NA, 1 ; g_bForceExitBynProtect

; 500  : 		return false; // 종료

  00058	33 c0		 xor	 eax, eax
  0005a	eb f2		 jmp	 SHORT $L101270
?NPGameMonCallback@@YGHKK@Z ENDP			; NPGameMonCallback
_TEXT	ENDS
PUBLIC	?Set_Auth@@YAXK@Z				; Set_Auth
; Function compile flags: /Ogsy
;	COMDAT ?Set_Auth@@YAXK@Z
_TEXT	SEGMENT
_dwVal$ = 8						; size = 4
?Set_Auth@@YAXK@Z PROC NEAR				; Set_Auth, COMDAT

; 519  : 	npgl.Auth(dwVal);

  00000	e9 00 00 00 00	 jmp	 _SendCSAuthToGameMon
?Set_Auth@@YAXK@Z ENDP					; Set_Auth
_TEXT	ENDS
PUBLIC	?_M_terminate_string_aux@?$basic_string@DV?$char_traits@D@_STL@@V?$allocator@D@2@@_STL@@AAEXABU__true_type@2@@Z ; _STL::basic_string<char,_STL::char_traits<char>,_STL::allocator<char> >::_M_terminate_string_aux
; Function compile flags: /Ogsy
; File c:\stlport-4.6.1\stlport\stl\_string.h
;	COMDAT ?_M_terminate_string_aux@?$basic_string@DV?$char_traits@D@_STL@@V?$allocator@D@2@@_STL@@AAEXABU__true_type@2@@Z
_TEXT	SEGMENT
___formal$ = 8						; size = 4
?_M_terminate_string_aux@?$basic_string@DV?$char_traits@D@_STL@@V?$allocator@D@2@@_STL@@AAEXABU__true_type@2@@Z PROC NEAR ; _STL::basic_string<char,_STL::char_traits<char>,_STL::allocator<char> >::_M_terminate_string_aux, COMDAT
; _this$ = ecx

; 351  :     *(this->_M_finish)=0;

  00000	8b 41 04	 mov	 eax, DWORD PTR [ecx+4]
  00003	c6 00 00	 mov	 BYTE PTR [eax], 0

; 352  :   }

  00006	c2 04 00	 ret	 4
?_M_terminate_string_aux@?$basic_string@DV?$char_traits@D@_STL@@V?$allocator@D@2@@_STL@@AAEXABU__true_type@2@@Z ENDP ; _STL::basic_string<char,_STL::char_traits<char>,_STL::allocator<char> >::_M_terminate_string_aux
_TEXT	ENDS
PUBLIC	??0?$allocator@D@_STL@@QAE@ABV01@@Z		; _STL::allocator<char>::allocator<char>
; Function compile flags: /Ogsy
; File c:\stlport-4.6.1\stlport\stl\_alloc.h
;	COMDAT ??0?$allocator@D@_STL@@QAE@ABV01@@Z
_TEXT	SEGMENT
___formal$ = 8						; size = 4
??0?$allocator@D@_STL@@QAE@ABV01@@Z PROC NEAR		; _STL::allocator<char>::allocator<char>, COMDAT
; _this$ = ecx

; 349  :   allocator(const allocator<_Tp>&) _STLP_NOTHROW {}

  00000	8b c1		 mov	 eax, ecx
  00002	c2 04 00	 ret	 4
??0?$allocator@D@_STL@@QAE@ABV01@@Z ENDP		; _STL::allocator<char>::allocator<char>
_TEXT	ENDS
PUBLIC	??R?$less@K@_STL@@QBE_NABK0@Z			; _STL::less<unsigned long>::operator()
; Function compile flags: /Ogsy
; File c:\stlport-4.6.1\stlport\stl\_function_base.h
;	COMDAT ??R?$less@K@_STL@@QBE_NABK0@Z
_TEXT	SEGMENT
___x$ = 8						; size = 4
___y$ = 12						; size = 4
??R?$less@K@_STL@@QBE_NABK0@Z PROC NEAR			; _STL::less<unsigned long>::operator(), COMDAT
; _this$ = ecx

; 73   :   bool operator()(const _Tp& __x, const _Tp& __y) const { return __x < __y; }

  00000	8b 44 24 04	 mov	 eax, DWORD PTR ___x$[esp-4]
  00004	8b 00		 mov	 eax, DWORD PTR [eax]
  00006	8b 4c 24 08	 mov	 ecx, DWORD PTR ___y$[esp-4]
  0000a	3b 01		 cmp	 eax, DWORD PTR [ecx]
  0000c	1b c0		 sbb	 eax, eax
  0000e	f7 d8		 neg	 eax
  00010	c2 08 00	 ret	 8
??R?$less@K@_STL@@QBE_NABK0@Z ENDP			; _STL::less<unsigned long>::operator()
_TEXT	ENDS
PUBLIC	??0?$_Rb_tree_iterator@U?$pair@$$CBKV?$basic_string@DV?$char_traits@D@_STL@@V?$allocator@D@2@@_STL@@@_STL@@U?$_Nonconst_traits@U?$pair@$$CBKV?$basic_string@DV?$char_traits@D@_STL@@V?$allocator@D@2@@_STL@@@_STL@@@2@@_STL@@QAE@ABU01@@Z ; _STL::_Rb_tree_iterator<_STL::pair<unsigned long const ,_STL::basic_string<char,_STL::char_traits<char>,_STL::allocator<char> > >,_STL::_Nonconst_traits<_STL::pair<unsigned long const ,_STL::basic_string<char,_STL::char_traits<char>,_STL::allocator<char> > > > >::_Rb_tree_iterator<_STL::pair<unsigned long const ,_STL::basic_string<char,_STL::char_traits<char>,_STL::allocator<char> > >,_STL::_Nonconst_traits<_STL::pair<unsigned long const ,_STL::basic_string<char,_STL::char_traits<char>,_STL::allocator<char> > > > >
; Function compile flags: /Ogsy
; File c:\stlport-4.6.1\stlport\stl\_tree.h
;	COMDAT ??0?$_Rb_tree_iterator@U?$pair@$$CBKV?$basic_string@DV?$char_traits@D@_STL@@V?$allocator@D@2@@_STL@@@_STL@@U?$_Nonconst_traits@U?$pair@$$CBKV?$basic_string@DV?$char_traits@D@_STL@@V?$allocator@D@2@@_STL@@@_STL@@@2@@_STL@@QAE@ABU01@@Z
_TEXT	SEGMENT
___it$ = 8						; size = 4
??0?$_Rb_tree_iterator@U?$pair@$$CBKV?$basic_string@DV?$char_traits@D@_STL@@V?$allocator@D@2@@_STL@@@_STL@@U?$_Nonconst_traits@U?$pair@$$CBKV?$basic_string@DV?$char_traits@D@_STL@@V?$allocator@D@2@@_STL@@@_STL@@@2@@_STL@@QAE@ABU01@@Z PROC NEAR ; _STL::_Rb_tree_iterator<_STL::pair<unsigned long const ,_STL::basic_string<char,_STL::char_traits<char>,_STL::allocator<char> > >,_STL::_Nonconst_traits<_STL::pair<unsigned long const ,_STL::basic_string<char,_STL::char_traits<char>,_STL::allocator<char> > > > >::_Rb_tree_iterator<_STL::pair<unsigned long const ,_STL::basic_string<char,_STL::char_traits<char>,_STL::allocator<char> > >,_STL::_Nonconst_traits<_STL::pair<unsigned long const ,_STL::basic_string<char,_STL::char_traits<char>,_STL::allocator<char> > > > >, COMDAT
; _this$ = ecx

; 165  :   _Rb_tree_iterator(const _Rb_tree_iterator<_Value, 

  00000	8b c1		 mov	 eax, ecx
  00002	8b 4c 24 04	 mov	 ecx, DWORD PTR ___it$[esp-4]
  00006	8b 09		 mov	 ecx, DWORD PTR [ecx]
  00008	89 08		 mov	 DWORD PTR [eax], ecx

; 166  :                     _Nonconst_traits<_Value> >& __it) { _M_node = __it._M_node; }

  0000a	c2 04 00	 ret	 4
??0?$_Rb_tree_iterator@U?$pair@$$CBKV?$basic_string@DV?$char_traits@D@_STL@@V?$allocator@D@2@@_STL@@@_STL@@U?$_Nonconst_traits@U?$pair@$$CBKV?$basic_string@DV?$char_traits@D@_STL@@V?$allocator@D@2@@_STL@@@_STL@@@2@@_STL@@QAE@ABU01@@Z ENDP ; _STL::_Rb_tree_iterator<_STL::pair<unsigned long const ,_STL::basic_string<char,_STL::char_traits<char>,_STL::allocator<char> > >,_STL::_Nonconst_traits<_STL::pair<unsigned long const ,_STL::basic_string<char,_STL::char_traits<char>,_STL::allocator<char> > > > >::_Rb_tree_iterator<_STL::pair<unsigned long const ,_STL::basic_string<char,_STL::char_traits<char>,_STL::allocator<char> > >,_STL::_Nonconst_traits<_STL::pair<unsigned long const ,_STL::basic_string<char,_STL::char_traits<char>,_STL::allocator<char> > > > >
_TEXT	ENDS
PUBLIC	??D?$_Rb_tree_iterator@U?$pair@$$CBKV?$basic_string@DV?$char_traits@D@_STL@@V?$allocator@D@2@@_STL@@@_STL@@U?$_Nonconst_traits@U?$pair@$$CBKV?$basic_string@DV?$char_traits@D@_STL@@V?$allocator@D@2@@_STL@@@_STL@@@2@@_STL@@QBEAAU?$pair@$$CBKV?$basic_string@DV?$char_traits@D@_STL@@V?$allocator@D@2@@_STL@@@1@XZ ; _STL::_Rb_tree_iterator<_STL::pair<unsigned long const ,_STL::basic_string<char,_STL::char_traits<char>,_STL::allocator<char> > >,_STL::_Nonconst_traits<_STL::pair<unsigned long const ,_STL::basic_string<char,_STL::char_traits<char>,_STL::allocator<char> > > > >::operator*
; Function compile flags: /Ogsy
;	COMDAT ??D?$_Rb_tree_iterator@U?$pair@$$CBKV?$basic_string@DV?$char_traits@D@_STL@@V?$allocator@D@2@@_STL@@@_STL@@U?$_Nonconst_traits@U?$pair@$$CBKV?$basic_string@DV?$char_traits@D@_STL@@V?$allocator@D@2@@_STL@@@_STL@@@2@@_STL@@QBEAAU?$pair@$$CBKV?$basic_string@DV?$char_traits@D@_STL@@V?$allocator@D@2@@_STL@@@1@XZ
_TEXT	SEGMENT
??D?$_Rb_tree_iterator@U?$pair@$$CBKV?$basic_string@DV?$char_traits@D@_STL@@V?$allocator@D@2@@_STL@@@_STL@@U?$_Nonconst_traits@U?$pair@$$CBKV?$basic_string@DV?$char_traits@D@_STL@@V?$allocator@D@2@@_STL@@@_STL@@@2@@_STL@@QBEAAU?$pair@$$CBKV?$basic_string@DV?$char_traits@D@_STL@@V?$allocator@D@2@@_STL@@@1@XZ PROC NEAR ; _STL::_Rb_tree_iterator<_STL::pair<unsigned long const ,_STL::basic_string<char,_STL::char_traits<char>,_STL::allocator<char> > >,_STL::_Nonconst_traits<_STL::pair<unsigned long const ,_STL::basic_string<char,_STL::char_traits<char>,_STL::allocator<char> > > > >::operator*, COMDAT
; _this$ = ecx

; 169  :     return _Link_type(_M_node)->_M_value_field; 

  00000	8b 01		 mov	 eax, DWORD PTR [ecx]
  00002	83 c0 10	 add	 eax, 16			; 00000010H

; 170  :   }

  00005	c3		 ret	 0
??D?$_Rb_tree_iterator@U?$pair@$$CBKV?$basic_string@DV?$char_traits@D@_STL@@V?$allocator@D@2@@_STL@@@_STL@@U?$_Nonconst_traits@U?$pair@$$CBKV?$basic_string@DV?$char_traits@D@_STL@@V?$allocator@D@2@@_STL@@@_STL@@@2@@_STL@@QBEAAU?$pair@$$CBKV?$basic_string@DV?$char_traits@D@_STL@@V?$allocator@D@2@@_STL@@@1@XZ ENDP ; _STL::_Rb_tree_iterator<_STL::pair<unsigned long const ,_STL::basic_string<char,_STL::char_traits<char>,_STL::allocator<char> > >,_STL::_Nonconst_traits<_STL::pair<unsigned long const ,_STL::basic_string<char,_STL::char_traits<char>,_STL::allocator<char> > > > >::operator*
_TEXT	ENDS
PUBLIC	?copy@?$__char_traits_base@DH@_STL@@SAPADPADPBDI@Z ; _STL::__char_traits_base<char,int>::copy
EXTRN	_memcpy:NEAR
; Function compile flags: /Ogsy
; File c:\stlport-4.6.1\stlport\stl\char_traits.h
;	COMDAT ?copy@?$__char_traits_base@DH@_STL@@SAPADPADPBDI@Z
_TEXT	SEGMENT
___s1$ = 8						; size = 4
___s2$ = 12						; size = 4
___n$ = 16						; size = 4
?copy@?$__char_traits_base@DH@_STL@@SAPADPADPBDI@Z PROC NEAR ; _STL::__char_traits_base<char,int>::copy, COMDAT

; 169  :   static _CharT* _STLP_CALL copy(_CharT* __s1, const _CharT* __s2, size_t __n) {

  00000	55		 push	 ebp
  00001	8b ec		 mov	 ebp, esp

; 170  :     return (__n == 0 ? __s1 :
; 171  : 	    (_CharT*)memcpy(__s1, __s2, __n * sizeof(_CharT)));

  00003	83 7d 10 00	 cmp	 DWORD PTR ___n$[ebp], 0
  00007	75 05		 jne	 SHORT $L102523
  00009	8b 45 08	 mov	 eax, DWORD PTR ___s1$[ebp]

; 172  :     } 

  0000c	5d		 pop	 ebp
  0000d	c3		 ret	 0
$L102523:
  0000e	5d		 pop	 ebp

; 170  :     return (__n == 0 ? __s1 :
; 171  : 	    (_CharT*)memcpy(__s1, __s2, __n * sizeof(_CharT)));

  0000f	e9 00 00 00 00	 jmp	 _memcpy
?copy@?$__char_traits_base@DH@_STL@@SAPADPADPBDI@Z ENDP	; _STL::__char_traits_base<char,int>::copy
_TEXT	ENDS
PUBLIC	?begin@?$basic_string@DV?$char_traits@D@_STL@@V?$allocator@D@2@@_STL@@QAEPADXZ ; _STL::basic_string<char,_STL::char_traits<char>,_STL::allocator<char> >::begin
; Function compile flags: /Ogsy
; File c:\stlport-4.6.1\stlport\stl\_string.h
;	COMDAT ?begin@?$basic_string@DV?$char_traits@D@_STL@@V?$allocator@D@2@@_STL@@QAEPADXZ
_TEXT	SEGMENT
?begin@?$basic_string@DV?$char_traits@D@_STL@@V?$allocator@D@2@@_STL@@QAEPADXZ PROC NEAR ; _STL::basic_string<char,_STL::char_traits<char>,_STL::allocator<char> >::begin, COMDAT
; _this$ = ecx

; 416  :   iterator begin()             { return this->_M_start; }

  00000	8b 01		 mov	 eax, DWORD PTR [ecx]
  00002	c3		 ret	 0
?begin@?$basic_string@DV?$char_traits@D@_STL@@V?$allocator@D@2@@_STL@@QAEPADXZ ENDP ; _STL::basic_string<char,_STL::char_traits<char>,_STL::allocator<char> >::begin
_TEXT	ENDS
PUBLIC	?end@?$basic_string@DV?$char_traits@D@_STL@@V?$allocator@D@2@@_STL@@QAEPADXZ ; _STL::basic_string<char,_STL::char_traits<char>,_STL::allocator<char> >::end
; Function compile flags: /Ogsy
;	COMDAT ?end@?$basic_string@DV?$char_traits@D@_STL@@V?$allocator@D@2@@_STL@@QAEPADXZ
_TEXT	SEGMENT
?end@?$basic_string@DV?$char_traits@D@_STL@@V?$allocator@D@2@@_STL@@QAEPADXZ PROC NEAR ; _STL::basic_string<char,_STL::char_traits<char>,_STL::allocator<char> >::end, COMDAT
; _this$ = ecx

; 417  :   iterator end()               { return this->_M_finish; }

  00000	8b 41 04	 mov	 eax, DWORD PTR [ecx+4]
  00003	c3		 ret	 0
?end@?$basic_string@DV?$char_traits@D@_STL@@V?$allocator@D@2@@_STL@@QAEPADXZ ENDP ; _STL::basic_string<char,_STL::char_traits<char>,_STL::allocator<char> >::end
_TEXT	ENDS
PUBLIC	?size@?$basic_string@DV?$char_traits@D@_STL@@V?$allocator@D@2@@_STL@@QBEIXZ ; _STL::basic_string<char,_STL::char_traits<char>,_STL::allocator<char> >::size
; Function compile flags: /Ogsy
;	COMDAT ?size@?$basic_string@DV?$char_traits@D@_STL@@V?$allocator@D@2@@_STL@@QBEIXZ
_TEXT	SEGMENT
?size@?$basic_string@DV?$char_traits@D@_STL@@V?$allocator@D@2@@_STL@@QBEIXZ PROC NEAR ; _STL::basic_string<char,_STL::char_traits<char>,_STL::allocator<char> >::size, COMDAT
; _this$ = ecx

; 431  :   size_type size() const { return this->_M_finish - this->_M_start; }

  00000	8b 41 04	 mov	 eax, DWORD PTR [ecx+4]
  00003	2b 01		 sub	 eax, DWORD PTR [ecx]
  00005	c3		 ret	 0
?size@?$basic_string@DV?$char_traits@D@_STL@@V?$allocator@D@2@@_STL@@QBEIXZ ENDP ; _STL::basic_string<char,_STL::char_traits<char>,_STL::allocator<char> >::size
_TEXT	ENDS
PUBLIC	?key_comp@?$_Rb_tree@KU?$pair@$$CBKV?$basic_string@DV?$char_traits@D@_STL@@V?$allocator@D@2@@_STL@@@_STL@@U?$_Select1st@U?$pair@$$CBKV?$basic_string@DV?$char_traits@D@_STL@@V?$allocator@D@2@@_STL@@@_STL@@@2@U?$less@K@2@V?$allocator@U?$pair@$$CBKV?$basic_string@DV?$char_traits@D@_STL@@V?$allocator@D@2@@_STL@@@_STL@@@2@@_STL@@QBE?AU?$less@K@2@XZ ; _STL::_Rb_tree<unsigned long,_STL::pair<unsigned long const ,_STL::basic_string<char,_STL::char_traits<char>,_STL::allocator<char> > >,_STL::_Select1st<_STL::pair<unsigned long const ,_STL::basic_string<char,_STL::char_traits<char>,_STL::allocator<char> > > >,_STL::less<unsigned long>,_STL::allocator<_STL::pair<unsigned long const ,_STL::basic_string<char,_STL::char_traits<char>,_STL::allocator<char> > > > >::key_comp
; Function compile flags: /Ogsy
; File c:\stlport-4.6.1\stlport\stl\_tree.h
;	COMDAT ?key_comp@?$_Rb_tree@KU?$pair@$$CBKV?$basic_string@DV?$char_traits@D@_STL@@V?$allocator@D@2@@_STL@@@_STL@@U?$_Select1st@U?$pair@$$CBKV?$basic_string@DV?$char_traits@D@_STL@@V?$allocator@D@2@@_STL@@@_STL@@@2@U?$less@K@2@V?$allocator@U?$pair@$$CBKV?$basic_string@DV?$char_traits@D@_STL@@V?$allocator@D@2@@_STL@@@_STL@@@2@@_STL@@QBE?AU?$less@K@2@XZ
_TEXT	SEGMENT
___$ReturnUdt$ = 8					; size = 4
?key_comp@?$_Rb_tree@KU?$pair@$$CBKV?$basic_string@DV?$char_traits@D@_STL@@V?$allocator@D@2@@_STL@@@_STL@@U?$_Select1st@U?$pair@$$CBKV?$basic_string@DV?$char_traits@D@_STL@@V?$allocator@D@2@@_STL@@@_STL@@@2@U?$less@K@2@V?$allocator@U?$pair@$$CBKV?$basic_string@DV?$char_traits@D@_STL@@V?$allocator@D@2@@_STL@@@_STL@@@2@@_STL@@QBE?AU?$less@K@2@XZ PROC NEAR ; _STL::_Rb_tree<unsigned long,_STL::pair<unsigned long const ,_STL::basic_string<char,_STL::char_traits<char>,_STL::allocator<char> > >,_STL::_Select1st<_STL::pair<unsigned long const ,_STL::basic_string<char,_STL::char_traits<char>,_STL::allocator<char> > > >,_STL::less<unsigned long>,_STL::allocator<_STL::pair<unsigned long const ,_STL::basic_string<char,_STL::char_traits<char>,_STL::allocator<char> > > > >::key_comp, COMDAT
; _this$ = ecx

; 355  :   _Compare key_comp() const { return _M_key_compare; }

  00000	8b 44 24 04	 mov	 eax, DWORD PTR ___$ReturnUdt$[esp-4]
  00004	c2 04 00	 ret	 4
?key_comp@?$_Rb_tree@KU?$pair@$$CBKV?$basic_string@DV?$char_traits@D@_STL@@V?$allocator@D@2@@_STL@@@_STL@@U?$_Select1st@U?$pair@$$CBKV?$basic_string@DV?$char_traits@D@_STL@@V?$allocator@D@2@@_STL@@@_STL@@@2@U?$less@K@2@V?$allocator@U?$pair@$$CBKV?$basic_string@DV?$char_traits@D@_STL@@V?$allocator@D@2@@_STL@@@_STL@@@2@@_STL@@QBE?AU?$less@K@2@XZ ENDP ; _STL::_Rb_tree<unsigned long,_STL::pair<unsigned long const ,_STL::basic_string<char,_STL::char_traits<char>,_STL::allocator<char> > >,_STL::_Select1st<_STL::pair<unsigned long const ,_STL::basic_string<char,_STL::char_traits<char>,_STL::allocator<char> > > >,_STL::less<unsigned long>,_STL::allocator<_STL::pair<unsigned long const ,_STL::basic_string<char,_STL::char_traits<char>,_STL::allocator<char> > > > >::key_comp
_TEXT	ENDS
PUBLIC	?move@?$__char_traits_base@DH@_STL@@SAPADPADPBDI@Z ; _STL::__char_traits_base<char,int>::move
; Function compile flags: /Ogsy
; File c:\stlport-4.6.1\stlport\stl\char_traits.h
;	COMDAT ?move@?$__char_traits_base@DH@_STL@@SAPADPADPBDI@Z
_TEXT	SEGMENT
___s1$ = 8						; size = 4
___s2$ = 12						; size = 4
__Sz$ = 16						; size = 4
?move@?$__char_traits_base@DH@_STL@@SAPADPADPBDI@Z PROC NEAR ; _STL::__char_traits_base<char,int>::move, COMDAT

; 165  :   static _CharT* _STLP_CALL move(_CharT* __s1, const _CharT* __s2, size_t _Sz) {    

  00000	55		 push	 ebp
  00001	8b ec		 mov	 ebp, esp

; 166  :     return (_Sz == 0 ? __s1 : (_CharT*)memmove(__s1, __s2, _Sz * sizeof(_CharT)));

  00003	83 7d 10 00	 cmp	 DWORD PTR __Sz$[ebp], 0
  00007	75 05		 jne	 SHORT $L102540
  00009	8b 45 08	 mov	 eax, DWORD PTR ___s1$[ebp]

; 167  :   }

  0000c	5d		 pop	 ebp
  0000d	c3		 ret	 0
$L102540:
  0000e	5d		 pop	 ebp

; 166  :     return (_Sz == 0 ? __s1 : (_CharT*)memmove(__s1, __s2, _Sz * sizeof(_CharT)));

  0000f	e9 00 00 00 00	 jmp	 _memmove
?move@?$__char_traits_base@DH@_STL@@SAPADPADPBDI@Z ENDP	; _STL::__char_traits_base<char,int>::move
_TEXT	ENDS
PUBLIC	??0?$_Rb_tree_iterator@U?$pair@$$CBKV?$basic_string@DV?$char_traits@D@_STL@@V?$allocator@D@2@@_STL@@@_STL@@U?$_Nonconst_traits@U?$pair@$$CBKV?$basic_string@DV?$char_traits@D@_STL@@V?$allocator@D@2@@_STL@@@_STL@@@2@@_STL@@QAE@PAU?$_Rb_tree_node@U?$pair@$$CBKV?$basic_string@DV?$char_traits@D@_STL@@V?$allocator@D@2@@_STL@@@_STL@@@1@@Z ; _STL::_Rb_tree_iterator<_STL::pair<unsigned long const ,_STL::basic_string<char,_STL::char_traits<char>,_STL::allocator<char> > >,_STL::_Nonconst_traits<_STL::pair<unsigned long const ,_STL::basic_string<char,_STL::char_traits<char>,_STL::allocator<char> > > > >::_Rb_tree_iterator<_STL::pair<unsigned long const ,_STL::basic_string<char,_STL::char_traits<char>,_STL::allocator<char> > >,_STL::_Nonconst_traits<_STL::pair<unsigned long const ,_STL::basic_string<char,_STL::char_traits<char>,_STL::allocator<char> > > > >
; Function compile flags: /Ogsy
; File c:\stlport-4.6.1\stlport\stl\_tree.h
;	COMDAT ??0?$_Rb_tree_iterator@U?$pair@$$CBKV?$basic_string@DV?$char_traits@D@_STL@@V?$allocator@D@2@@_STL@@@_STL@@U?$_Nonconst_traits@U?$pair@$$CBKV?$basic_string@DV?$char_traits@D@_STL@@V?$allocator@D@2@@_STL@@@_STL@@@2@@_STL@@QAE@PAU?$_Rb_tree_node@U?$pair@$$CBKV?$basic_string@DV?$char_traits@D@_STL@@V?$allocator@D@2@@_STL@@@_STL@@@1@@Z
_TEXT	SEGMENT
___x$ = 8						; size = 4
??0?$_Rb_tree_iterator@U?$pair@$$CBKV?$basic_string@DV?$char_traits@D@_STL@@V?$allocator@D@2@@_STL@@@_STL@@U?$_Nonconst_traits@U?$pair@$$CBKV?$basic_string@DV?$char_traits@D@_STL@@V?$allocator@D@2@@_STL@@@_STL@@@2@@_STL@@QAE@PAU?$_Rb_tree_node@U?$pair@$$CBKV?$basic_string@DV?$char_traits@D@_STL@@V?$allocator@D@2@@_STL@@@_STL@@@1@@Z PROC NEAR ; _STL::_Rb_tree_iterator<_STL::pair<unsigned long const ,_STL::basic_string<char,_STL::char_traits<char>,_STL::allocator<char> > >,_STL::_Nonconst_traits<_STL::pair<unsigned long const ,_STL::basic_string<char,_STL::char_traits<char>,_STL::allocator<char> > > > >::_Rb_tree_iterator<_STL::pair<unsigned long const ,_STL::basic_string<char,_STL::char_traits<char>,_STL::allocator<char> > >,_STL::_Nonconst_traits<_STL::pair<unsigned long const ,_STL::basic_string<char,_STL::char_traits<char>,_STL::allocator<char> > > > >, COMDAT
; _this$ = ecx

; 164  :   _Rb_tree_iterator(_Link_type __x) { _M_node = __x; }

  00000	8b c1		 mov	 eax, ecx
  00002	8b 4c 24 04	 mov	 ecx, DWORD PTR ___x$[esp-4]
  00006	89 08		 mov	 DWORD PTR [eax], ecx
  00008	c2 04 00	 ret	 4
??0?$_Rb_tree_iterator@U?$pair@$$CBKV?$basic_string@DV?$char_traits@D@_STL@@V?$allocator@D@2@@_STL@@@_STL@@U?$_Nonconst_traits@U?$pair@$$CBKV?$basic_string@DV?$char_traits@D@_STL@@V?$allocator@D@2@@_STL@@@_STL@@@2@@_STL@@QAE@PAU?$_Rb_tree_node@U?$pair@$$CBKV?$basic_string@DV?$char_traits@D@_STL@@V?$allocator@D@2@@_STL@@@_STL@@@1@@Z ENDP ; _STL::_Rb_tree_iterator<_STL::pair<unsigned long const ,_STL::basic_string<char,_STL::char_traits<char>,_STL::allocator<char> > >,_STL::_Nonconst_traits<_STL::pair<unsigned long const ,_STL::basic_string<char,_STL::char_traits<char>,_STL::allocator<char> > > > >::_Rb_tree_iterator<_STL::pair<unsigned long const ,_STL::basic_string<char,_STL::char_traits<char>,_STL::allocator<char> > >,_STL::_Nonconst_traits<_STL::pair<unsigned long const ,_STL::basic_string<char,_STL::char_traits<char>,_STL::allocator<char> > > > >
_TEXT	ENDS
PUBLIC	?_M_root@?$_Rb_tree@KU?$pair@$$CBKV?$basic_string@DV?$char_traits@D@_STL@@V?$allocator@D@2@@_STL@@@_STL@@U?$_Select1st@U?$pair@$$CBKV?$basic_string@DV?$char_traits@D@_STL@@V?$allocator@D@2@@_STL@@@_STL@@@2@U?$less@K@2@V?$allocator@U?$pair@$$CBKV?$basic_string@DV?$char_traits@D@_STL@@V?$allocator@D@2@@_STL@@@_STL@@@2@@_STL@@IBEAAPAU?$_Rb_tree_node@U?$pair@$$CBKV?$basic_string@DV?$char_traits@D@_STL@@V?$allocator@D@2@@_STL@@@_STL@@@2@XZ ; _STL::_Rb_tree<unsigned long,_STL::pair<unsigned long const ,_STL::basic_string<char,_STL::char_traits<char>,_STL::allocator<char> > >,_STL::_Select1st<_STL::pair<unsigned long const ,_STL::basic_string<char,_STL::char_traits<char>,_STL::allocator<char> > > >,_STL::less<unsigned long>,_STL::allocator<_STL::pair<unsigned long const ,_STL::basic_string<char,_STL::char_traits<char>,_STL::allocator<char> > > > >::_M_root
; Function compile flags: /Ogsy
;	COMDAT ?_M_root@?$_Rb_tree@KU?$pair@$$CBKV?$basic_string@DV?$char_traits@D@_STL@@V?$allocator@D@2@@_STL@@@_STL@@U?$_Select1st@U?$pair@$$CBKV?$basic_string@DV?$char_traits@D@_STL@@V?$allocator@D@2@@_STL@@@_STL@@@2@U?$less@K@2@V?$allocator@U?$pair@$$CBKV?$basic_string@DV?$char_traits@D@_STL@@V?$allocator@D@2@@_STL@@@_STL@@@2@@_STL@@IBEAAPAU?$_Rb_tree_node@U?$pair@$$CBKV?$basic_string@DV?$char_traits@D@_STL@@V?$allocator@D@2@@_STL@@@_STL@@@2@XZ
_TEXT	SEGMENT
?_M_root@?$_Rb_tree@KU?$pair@$$CBKV?$basic_string@DV?$char_traits@D@_STL@@V?$allocator@D@2@@_STL@@@_STL@@U?$_Select1st@U?$pair@$$CBKV?$basic_string@DV?$char_traits@D@_STL@@V?$allocator@D@2@@_STL@@@_STL@@@2@U?$less@K@2@V?$allocator@U?$pair@$$CBKV?$basic_string@DV?$char_traits@D@_STL@@V?$allocator@D@2@@_STL@@@_STL@@@2@@_STL@@IBEAAPAU?$_Rb_tree_node@U?$pair@$$CBKV?$basic_string@DV?$char_traits@D@_STL@@V?$allocator@D@2@@_STL@@@_STL@@@2@XZ PROC NEAR ; _STL::_Rb_tree<unsigned long,_STL::pair<unsigned long const ,_STL::basic_string<char,_STL::char_traits<char>,_STL::allocator<char> > >,_STL::_Select1st<_STL::pair<unsigned long const ,_STL::basic_string<char,_STL::char_traits<char>,_STL::allocator<char> > > >,_STL::less<unsigned long>,_STL::allocator<_STL::pair<unsigned long const ,_STL::basic_string<char,_STL::char_traits<char>,_STL::allocator<char> > > > >::_M_root, COMDAT
; _this$ = ecx

; 265  :     { return (_Link_type&) this->_M_header._M_data->_M_parent; }

  00000	8b 01		 mov	 eax, DWORD PTR [ecx]
  00002	83 c0 04	 add	 eax, 4
  00005	c3		 ret	 0
?_M_root@?$_Rb_tree@KU?$pair@$$CBKV?$basic_string@DV?$char_traits@D@_STL@@V?$allocator@D@2@@_STL@@@_STL@@U?$_Select1st@U?$pair@$$CBKV?$basic_string@DV?$char_traits@D@_STL@@V?$allocator@D@2@@_STL@@@_STL@@@2@U?$less@K@2@V?$allocator@U?$pair@$$CBKV?$basic_string@DV?$char_traits@D@_STL@@V?$allocator@D@2@@_STL@@@_STL@@@2@@_STL@@IBEAAPAU?$_Rb_tree_node@U?$pair@$$CBKV?$basic_string@DV?$char_traits@D@_STL@@V?$allocator@D@2@@_STL@@@_STL@@@2@XZ ENDP ; _STL::_Rb_tree<unsigned long,_STL::pair<unsigned long const ,_STL::basic_string<char,_STL::char_traits<char>,_STL::allocator<char> > >,_STL::_Select1st<_STL::pair<unsigned long const ,_STL::basic_string<char,_STL::char_traits<char>,_STL::allocator<char> > > >,_STL::less<unsigned long>,_STL::allocator<_STL::pair<unsigned long const ,_STL::basic_string<char,_STL::char_traits<char>,_STL::allocator<char> > > > >::_M_root
_TEXT	ENDS
PUBLIC	?_S_left@?$_Rb_tree@KU?$pair@$$CBKV?$basic_string@DV?$char_traits@D@_STL@@V?$allocator@D@2@@_STL@@@_STL@@U?$_Select1st@U?$pair@$$CBKV?$basic_string@DV?$char_traits@D@_STL@@V?$allocator@D@2@@_STL@@@_STL@@@2@U?$less@K@2@V?$allocator@U?$pair@$$CBKV?$basic_string@DV?$char_traits@D@_STL@@V?$allocator@D@2@@_STL@@@_STL@@@2@@_STL@@KAAAPAU?$_Rb_tree_node@U?$pair@$$CBKV?$basic_string@DV?$char_traits@D@_STL@@V?$allocator@D@2@@_STL@@@_STL@@@2@PAU32@@Z ; _STL::_Rb_tree<unsigned long,_STL::pair<unsigned long const ,_STL::basic_string<char,_STL::char_traits<char>,_STL::allocator<char> > >,_STL::_Select1st<_STL::pair<unsigned long const ,_STL::basic_string<char,_STL::char_traits<char>,_STL::allocator<char> > > >,_STL::less<unsigned long>,_STL::allocator<_STL::pair<unsigned long const ,_STL::basic_string<char,_STL::char_traits<char>,_STL::allocator<char> > > > >::_S_left
; Function compile flags: /Ogsy
;	COMDAT ?_S_left@?$_Rb_tree@KU?$pair@$$CBKV?$basic_string@DV?$char_traits@D@_STL@@V?$allocator@D@2@@_STL@@@_STL@@U?$_Select1st@U?$pair@$$CBKV?$basic_string@DV?$char_traits@D@_STL@@V?$allocator@D@2@@_STL@@@_STL@@@2@U?$less@K@2@V?$allocator@U?$pair@$$CBKV?$basic_string@DV?$char_traits@D@_STL@@V?$allocator@D@2@@_STL@@@_STL@@@2@@_STL@@KAAAPAU?$_Rb_tree_node@U?$pair@$$CBKV?$basic_string@DV?$char_traits@D@_STL@@V?$allocator@D@2@@_STL@@@_STL@@@2@PAU32@@Z
_TEXT	SEGMENT
___x$ = 8						; size = 4
?_S_left@?$_Rb_tree@KU?$pair@$$CBKV?$basic_string@DV?$char_traits@D@_STL@@V?$allocator@D@2@@_STL@@@_STL@@U?$_Select1st@U?$pair@$$CBKV?$basic_string@DV?$char_traits@D@_STL@@V?$allocator@D@2@@_STL@@@_STL@@@2@U?$less@K@2@V?$allocator@U?$pair@$$CBKV?$basic_string@DV?$char_traits@D@_STL@@V?$allocator@D@2@@_STL@@@_STL@@@2@@_STL@@KAAAPAU?$_Rb_tree_node@U?$pair@$$CBKV?$basic_string@DV?$char_traits@D@_STL@@V?$allocator@D@2@@_STL@@@_STL@@@2@PAU32@@Z PROC NEAR ; _STL::_Rb_tree<unsigned long,_STL::pair<unsigned long const ,_STL::basic_string<char,_STL::char_traits<char>,_STL::allocator<char> > >,_STL::_Select1st<_STL::pair<unsigned long const ,_STL::basic_string<char,_STL::char_traits<char>,_STL::allocator<char> > > >,_STL::less<unsigned long>,_STL::allocator<_STL::pair<unsigned long const ,_STL::basic_string<char,_STL::char_traits<char>,_STL::allocator<char> > > > >::_S_left, COMDAT

; 272  :     { return (_Link_type&)(__x->_M_left); }

  00000	8b 44 24 04	 mov	 eax, DWORD PTR ___x$[esp-4]
  00004	83 c0 08	 add	 eax, 8
  00007	c3		 ret	 0
?_S_left@?$_Rb_tree@KU?$pair@$$CBKV?$basic_string@DV?$char_traits@D@_STL@@V?$allocator@D@2@@_STL@@@_STL@@U?$_Select1st@U?$pair@$$CBKV?$basic_string@DV?$char_traits@D@_STL@@V?$allocator@D@2@@_STL@@@_STL@@@2@U?$less@K@2@V?$allocator@U?$pair@$$CBKV?$basic_string@DV?$char_traits@D@_STL@@V?$allocator@D@2@@_STL@@@_STL@@@2@@_STL@@KAAAPAU?$_Rb_tree_node@U?$pair@$$CBKV?$basic_string@DV?$char_traits@D@_STL@@V?$allocator@D@2@@_STL@@@_STL@@@2@PAU32@@Z ENDP ; _STL::_Rb_tree<unsigned long,_STL::pair<unsigned long const ,_STL::basic_string<char,_STL::char_traits<char>,_STL::allocator<char> > >,_STL::_Select1st<_STL::pair<unsigned long const ,_STL::basic_string<char,_STL::char_traits<char>,_STL::allocator<char> > > >,_STL::less<unsigned long>,_STL::allocator<_STL::pair<unsigned long const ,_STL::basic_string<char,_STL::char_traits<char>,_STL::allocator<char> > > > >::_S_left
_TEXT	ENDS
PUBLIC	?_S_right@?$_Rb_tree@KU?$pair@$$CBKV?$basic_string@DV?$char_traits@D@_STL@@V?$allocator@D@2@@_STL@@@_STL@@U?$_Select1st@U?$pair@$$CBKV?$basic_string@DV?$char_traits@D@_STL@@V?$allocator@D@2@@_STL@@@_STL@@@2@U?$less@K@2@V?$allocator@U?$pair@$$CBKV?$basic_string@DV?$char_traits@D@_STL@@V?$allocator@D@2@@_STL@@@_STL@@@2@@_STL@@KAAAPAU?$_Rb_tree_node@U?$pair@$$CBKV?$basic_string@DV?$char_traits@D@_STL@@V?$allocator@D@2@@_STL@@@_STL@@@2@PAU32@@Z ; _STL::_Rb_tree<unsigned long,_STL::pair<unsigned long const ,_STL::basic_string<char,_STL::char_traits<char>,_STL::allocator<char> > >,_STL::_Select1st<_STL::pair<unsigned long const ,_STL::basic_string<char,_STL::char_traits<char>,_STL::allocator<char> > > >,_STL::less<unsigned long>,_STL::allocator<_STL::pair<unsigned long const ,_STL::basic_string<char,_STL::char_traits<char>,_STL::allocator<char> > > > >::_S_right
; Function compile flags: /Ogsy
;	COMDAT ?_S_right@?$_Rb_tree@KU?$pair@$$CBKV?$basic_string@DV?$char_traits@D@_STL@@V?$allocator@D@2@@_STL@@@_STL@@U?$_Select1st@U?$pair@$$CBKV?$basic_string@DV?$char_traits@D@_STL@@V?$allocator@D@2@@_STL@@@_STL@@@2@U?$less@K@2@V?$allocator@U?$pair@$$CBKV?$basic_string@DV?$char_traits@D@_STL@@V?$allocator@D@2@@_STL@@@_STL@@@2@@_STL@@KAAAPAU?$_Rb_tree_node@U?$pair@$$CBKV?$basic_string@DV?$char_traits@D@_STL@@V?$allocator@D@2@@_STL@@@_STL@@@2@PAU32@@Z
_TEXT	SEGMENT
___x$ = 8						; size = 4
?_S_right@?$_Rb_tree@KU?$pair@$$CBKV?$basic_string@DV?$char_traits@D@_STL@@V?$allocator@D@2@@_STL@@@_STL@@U?$_Select1st@U?$pair@$$CBKV?$basic_string@DV?$char_traits@D@_STL@@V?$allocator@D@2@@_STL@@@_STL@@@2@U?$less@K@2@V?$allocator@U?$pair@$$CBKV?$basic_string@DV?$char_traits@D@_STL@@V?$allocator@D@2@@_STL@@@_STL@@@2@@_STL@@KAAAPAU?$_Rb_tree_node@U?$pair@$$CBKV?$basic_string@DV?$char_traits@D@_STL@@V?$allocator@D@2@@_STL@@@_STL@@@2@PAU32@@Z PROC NEAR ; _STL::_Rb_tree<unsigned long,_STL::pair<unsigned long const ,_STL::basic_string<char,_STL::char_traits<char>,_STL::allocator<char> > >,_STL::_Select1st<_STL::pair<unsigned long const ,_STL::basic_string<char,_STL::char_traits<char>,_STL::allocator<char> > > >,_STL::less<unsigned long>,_STL::allocator<_STL::pair<unsigned long const ,_STL::basic_string<char,_STL::char_traits<char>,_STL::allocator<char> > > > >::_S_right, COMDAT

; 274  :     { return (_Link_type&)(__x->_M_right); }

  00000	8b 44 24 04	 mov	 eax, DWORD PTR ___x$[esp-4]
  00004	83 c0 0c	 add	 eax, 12			; 0000000cH
  00007	c3		 ret	 0
?_S_right@?$_Rb_tree@KU?$pair@$$CBKV?$basic_string@DV?$char_traits@D@_STL@@V?$allocator@D@2@@_STL@@@_STL@@U?$_Select1st@U?$pair@$$CBKV?$basic_string@DV?$char_traits@D@_STL@@V?$allocator@D@2@@_STL@@@_STL@@@2@U?$less@K@2@V?$allocator@U?$pair@$$CBKV?$basic_string@DV?$char_traits@D@_STL@@V?$allocator@D@2@@_STL@@@_STL@@@2@@_STL@@KAAAPAU?$_Rb_tree_node@U?$pair@$$CBKV?$basic_string@DV?$char_traits@D@_STL@@V?$allocator@D@2@@_STL@@@_STL@@@2@PAU32@@Z ENDP ; _STL::_Rb_tree<unsigned long,_STL::pair<unsigned long const ,_STL::basic_string<char,_STL::char_traits<char>,_STL::allocator<char> > >,_STL::_Select1st<_STL::pair<unsigned long const ,_STL::basic_string<char,_STL::char_traits<char>,_STL::allocator<char> > > >,_STL::less<unsigned long>,_STL::allocator<_STL::pair<unsigned long const ,_STL::basic_string<char,_STL::char_traits<char>,_STL::allocator<char> > > > >::_S_right
_TEXT	ENDS
PUBLIC	?_S_value@?$_Rb_tree@KU?$pair@$$CBKV?$basic_string@DV?$char_traits@D@_STL@@V?$allocator@D@2@@_STL@@@_STL@@U?$_Select1st@U?$pair@$$CBKV?$basic_string@DV?$char_traits@D@_STL@@V?$allocator@D@2@@_STL@@@_STL@@@2@U?$less@K@2@V?$allocator@U?$pair@$$CBKV?$basic_string@DV?$char_traits@D@_STL@@V?$allocator@D@2@@_STL@@@_STL@@@2@@_STL@@KAAAU?$pair@$$CBKV?$basic_string@DV?$char_traits@D@_STL@@V?$allocator@D@2@@_STL@@@2@PAU?$_Rb_tree_node@U?$pair@$$CBKV?$basic_string@DV?$char_traits@D@_STL@@V?$allocator@D@2@@_STL@@@_STL@@@2@@Z ; _STL::_Rb_tree<unsigned long,_STL::pair<unsigned long const ,_STL::basic_string<char,_STL::char_traits<char>,_STL::allocator<char> > >,_STL::_Select1st<_STL::pair<unsigned long const ,_STL::basic_string<char,_STL::char_traits<char>,_STL::allocator<char> > > >,_STL::less<unsigned long>,_STL::allocator<_STL::pair<unsigned long const ,_STL::basic_string<char,_STL::char_traits<char>,_STL::allocator<char> > > > >::_S_value
; Function compile flags: /Ogsy
;	COMDAT ?_S_value@?$_Rb_tree@KU?$pair@$$CBKV?$basic_string@DV?$char_traits@D@_STL@@V?$allocator@D@2@@_STL@@@_STL@@U?$_Select1st@U?$pair@$$CBKV?$basic_string@DV?$char_traits@D@_STL@@V?$allocator@D@2@@_STL@@@_STL@@@2@U?$less@K@2@V?$allocator@U?$pair@$$CBKV?$basic_string@DV?$char_traits@D@_STL@@V?$allocator@D@2@@_STL@@@_STL@@@2@@_STL@@KAAAU?$pair@$$CBKV?$basic_string@DV?$char_traits@D@_STL@@V?$allocator@D@2@@_STL@@@2@PAU?$_Rb_tree_node@U?$pair@$$CBKV?$basic_string@DV?$char_traits@D@_STL@@V?$allocator@D@2@@_STL@@@_STL@@@2@@Z
_TEXT	SEGMENT
___x$ = 8						; size = 4
?_S_value@?$_Rb_tree@KU?$pair@$$CBKV?$basic_string@DV?$char_traits@D@_STL@@V?$allocator@D@2@@_STL@@@_STL@@U?$_Select1st@U?$pair@$$CBKV?$basic_string@DV?$char_traits@D@_STL@@V?$allocator@D@2@@_STL@@@_STL@@@2@U?$less@K@2@V?$allocator@U?$pair@$$CBKV?$basic_string@DV?$char_traits@D@_STL@@V?$allocator@D@2@@_STL@@@_STL@@@2@@_STL@@KAAAU?$pair@$$CBKV?$basic_string@DV?$char_traits@D@_STL@@V?$allocator@D@2@@_STL@@@2@PAU?$_Rb_tree_node@U?$pair@$$CBKV?$basic_string@DV?$char_traits@D@_STL@@V?$allocator@D@2@@_STL@@@_STL@@@2@@Z PROC NEAR ; _STL::_Rb_tree<unsigned long,_STL::pair<unsigned long const ,_STL::basic_string<char,_STL::char_traits<char>,_STL::allocator<char> > >,_STL::_Select1st<_STL::pair<unsigned long const ,_STL::basic_string<char,_STL::char_traits<char>,_STL::allocator<char> > > >,_STL::less<unsigned long>,_STL::allocator<_STL::pair<unsigned long const ,_STL::basic_string<char,_STL::char_traits<char>,_STL::allocator<char> > > > >::_S_value, COMDAT

; 278  :     { return __x->_M_value_field; }

  00000	8b 44 24 04	 mov	 eax, DWORD PTR ___x$[esp-4]
  00004	83 c0 10	 add	 eax, 16			; 00000010H
  00007	c3		 ret	 0
?_S_value@?$_Rb_tree@KU?$pair@$$CBKV?$basic_string@DV?$char_traits@D@_STL@@V?$allocator@D@2@@_STL@@@_STL@@U?$_Select1st@U?$pair@$$CBKV?$basic_string@DV?$char_traits@D@_STL@@V?$allocator@D@2@@_STL@@@_STL@@@2@U?$less@K@2@V?$allocator@U?$pair@$$CBKV?$basic_string@DV?$char_traits@D@_STL@@V?$allocator@D@2@@_STL@@@_STL@@@2@@_STL@@KAAAU?$pair@$$CBKV?$basic_string@DV?$char_traits@D@_STL@@V?$allocator@D@2@@_STL@@@2@PAU?$_Rb_tree_node@U?$pair@$$CBKV?$basic_string@DV?$char_traits@D@_STL@@V?$allocator@D@2@@_STL@@@_STL@@@2@@Z ENDP ; _STL::_Rb_tree<unsigned long,_STL::pair<unsigned long const ,_STL::basic_string<char,_STL::char_traits<char>,_STL::allocator<char> > >,_STL::_Select1st<_STL::pair<unsigned long const ,_STL::basic_string<char,_STL::char_traits<char>,_STL::allocator<char> > > >,_STL::less<unsigned long>,_STL::allocator<_STL::pair<unsigned long const ,_STL::basic_string<char,_STL::char_traits<char>,_STL::allocator<char> > > > >::_S_value
_TEXT	ENDS
PUBLIC	??R?$_Select1st@U?$pair@$$CBKV?$basic_string@DV?$char_traits@D@_STL@@V?$allocator@D@2@@_STL@@@_STL@@@_STL@@QBEABKABU?$pair@$$CBKV?$basic_string@DV?$char_traits@D@_STL@@V?$allocator@D@2@@_STL@@@1@@Z ; _STL::_Select1st<_STL::pair<unsigned long const ,_STL::basic_string<char,_STL::char_traits<char>,_STL::allocator<char> > > >::operator()
; Function compile flags: /Ogsy
; File c:\stlport-4.6.1\stlport\stl\_function_base.h
;	COMDAT ??R?$_Select1st@U?$pair@$$CBKV?$basic_string@DV?$char_traits@D@_STL@@V?$allocator@D@2@@_STL@@@_STL@@@_STL@@QBEABKABU?$pair@$$CBKV?$basic_string@DV?$char_traits@D@_STL@@V?$allocator@D@2@@_STL@@@1@@Z
_TEXT	SEGMENT
___x$ = 8						; size = 4
??R?$_Select1st@U?$pair@$$CBKV?$basic_string@DV?$char_traits@D@_STL@@V?$allocator@D@2@@_STL@@@_STL@@@_STL@@QBEABKABU?$pair@$$CBKV?$basic_string@DV?$char_traits@D@_STL@@V?$allocator@D@2@@_STL@@@1@@Z PROC NEAR ; _STL::_Select1st<_STL::pair<unsigned long const ,_STL::basic_string<char,_STL::char_traits<char>,_STL::allocator<char> > > >::operator(), COMDAT
; _this$ = ecx

; 153  :     return __x.first;

  00000	8b 44 24 04	 mov	 eax, DWORD PTR ___x$[esp-4]

; 154  :   }

  00004	c2 04 00	 ret	 4
??R?$_Select1st@U?$pair@$$CBKV?$basic_string@DV?$char_traits@D@_STL@@V?$allocator@D@2@@_STL@@@_STL@@@_STL@@QBEABKABU?$pair@$$CBKV?$basic_string@DV?$char_traits@D@_STL@@V?$allocator@D@2@@_STL@@@1@@Z ENDP ; _STL::_Select1st<_STL::pair<unsigned long const ,_STL::basic_string<char,_STL::char_traits<char>,_STL::allocator<char> > > >::operator()
_TEXT	ENDS
PUBLIC	?_M_rightmost@?$_Rb_tree@KU?$pair@$$CBKV?$basic_string@DV?$char_traits@D@_STL@@V?$allocator@D@2@@_STL@@@_STL@@U?$_Select1st@U?$pair@$$CBKV?$basic_string@DV?$char_traits@D@_STL@@V?$allocator@D@2@@_STL@@@_STL@@@2@U?$less@K@2@V?$allocator@U?$pair@$$CBKV?$basic_string@DV?$char_traits@D@_STL@@V?$allocator@D@2@@_STL@@@_STL@@@2@@_STL@@IBEAAPAU?$_Rb_tree_node@U?$pair@$$CBKV?$basic_string@DV?$char_traits@D@_STL@@V?$allocator@D@2@@_STL@@@_STL@@@2@XZ ; _STL::_Rb_tree<unsigned long,_STL::pair<unsigned long const ,_STL::basic_string<char,_STL::char_traits<char>,_STL::allocator<char> > >,_STL::_Select1st<_STL::pair<unsigned long const ,_STL::basic_string<char,_STL::char_traits<char>,_STL::allocator<char> > > >,_STL::less<unsigned long>,_STL::allocator<_STL::pair<unsigned long const ,_STL::basic_string<char,_STL::char_traits<char>,_STL::allocator<char> > > > >::_M_rightmost
; Function compile flags: /Ogsy
; File c:\stlport-4.6.1\stlport\stl\_tree.h
;	COMDAT ?_M_rightmost@?$_Rb_tree@KU?$pair@$$CBKV?$basic_string@DV?$char_traits@D@_STL@@V?$allocator@D@2@@_STL@@@_STL@@U?$_Select1st@U?$pair@$$CBKV?$basic_string@DV?$char_traits@D@_STL@@V?$allocator@D@2@@_STL@@@_STL@@@2@U?$less@K@2@V?$allocator@U?$pair@$$CBKV?$basic_string@DV?$char_traits@D@_STL@@V?$allocator@D@2@@_STL@@@_STL@@@2@@_STL@@IBEAAPAU?$_Rb_tree_node@U?$pair@$$CBKV?$basic_string@DV?$char_traits@D@_STL@@V?$allocator@D@2@@_STL@@@_STL@@@2@XZ
_TEXT	SEGMENT
?_M_rightmost@?$_Rb_tree@KU?$pair@$$CBKV?$basic_string@DV?$char_traits@D@_STL@@V?$allocator@D@2@@_STL@@@_STL@@U?$_Select1st@U?$pair@$$CBKV?$basic_string@DV?$char_traits@D@_STL@@V?$allocator@D@2@@_STL@@@_STL@@@2@U?$less@K@2@V?$allocator@U?$pair@$$CBKV?$basic_string@DV?$char_traits@D@_STL@@V?$allocator@D@2@@_STL@@@_STL@@@2@@_STL@@IBEAAPAU?$_Rb_tree_node@U?$pair@$$CBKV?$basic_string@DV?$char_traits@D@_STL@@V?$allocator@D@2@@_STL@@@_STL@@@2@XZ PROC NEAR ; _STL::_Rb_tree<unsigned long,_STL::pair<unsigned long const ,_STL::basic_string<char,_STL::char_traits<char>,_STL::allocator<char> > >,_STL::_Select1st<_STL::pair<unsigned long const ,_STL::basic_string<char,_STL::char_traits<char>,_STL::allocator<char> > > >,_STL::less<unsigned long>,_STL::allocator<_STL::pair<unsigned long const ,_STL::basic_string<char,_STL::char_traits<char>,_STL::allocator<char> > > > >::_M_rightmost, COMDAT
; _this$ = ecx

; 269  :     { return (_Link_type&) this->_M_header._M_data->_M_right; }

  00000	8b 01		 mov	 eax, DWORD PTR [ecx]
  00002	83 c0 0c	 add	 eax, 12			; 0000000cH
  00005	c3		 ret	 0
?_M_rightmost@?$_Rb_tree@KU?$pair@$$CBKV?$basic_string@DV?$char_traits@D@_STL@@V?$allocator@D@2@@_STL@@@_STL@@U?$_Select1st@U?$pair@$$CBKV?$basic_string@DV?$char_traits@D@_STL@@V?$allocator@D@2@@_STL@@@_STL@@@2@U?$less@K@2@V?$allocator@U?$pair@$$CBKV?$basic_string@DV?$char_traits@D@_STL@@V?$allocator@D@2@@_STL@@@_STL@@@2@@_STL@@IBEAAPAU?$_Rb_tree_node@U?$pair@$$CBKV?$basic_string@DV?$char_traits@D@_STL@@V?$allocator@D@2@@_STL@@@_STL@@@2@XZ ENDP ; _STL::_Rb_tree<unsigned long,_STL::pair<unsigned long const ,_STL::basic_string<char,_STL::char_traits<char>,_STL::allocator<char> > >,_STL::_Select1st<_STL::pair<unsigned long const ,_STL::basic_string<char,_STL::char_traits<char>,_STL::allocator<char> > > >,_STL::less<unsigned long>,_STL::allocator<_STL::pair<unsigned long const ,_STL::basic_string<char,_STL::char_traits<char>,_STL::allocator<char> > > > >::_M_rightmost
_TEXT	ENDS
PUBLIC	?_S_right@?$_Rb_tree@KU?$pair@$$CBKV?$basic_string@DV?$char_traits@D@_STL@@V?$allocator@D@2@@_STL@@@_STL@@U?$_Select1st@U?$pair@$$CBKV?$basic_string@DV?$char_traits@D@_STL@@V?$allocator@D@2@@_STL@@@_STL@@@2@U?$less@K@2@V?$allocator@U?$pair@$$CBKV?$basic_string@DV?$char_traits@D@_STL@@V?$allocator@D@2@@_STL@@@_STL@@@2@@_STL@@KAAAPAU?$_Rb_tree_node@U?$pair@$$CBKV?$basic_string@DV?$char_traits@D@_STL@@V?$allocator@D@2@@_STL@@@_STL@@@2@PAU_Rb_tree_node_base@2@@Z ; _STL::_Rb_tree<unsigned long,_STL::pair<unsigned long const ,_STL::basic_string<char,_STL::char_traits<char>,_STL::allocator<char> > >,_STL::_Select1st<_STL::pair<unsigned long const ,_STL::basic_string<char,_STL::char_traits<char>,_STL::allocator<char> > > >,_STL::less<unsigned long>,_STL::allocator<_STL::pair<unsigned long const ,_STL::basic_string<char,_STL::char_traits<char>,_STL::allocator<char> > > > >::_S_right
; Function compile flags: /Ogsy
;	COMDAT ?_S_right@?$_Rb_tree@KU?$pair@$$CBKV?$basic_string@DV?$char_traits@D@_STL@@V?$allocator@D@2@@_STL@@@_STL@@U?$_Select1st@U?$pair@$$CBKV?$basic_string@DV?$char_traits@D@_STL@@V?$allocator@D@2@@_STL@@@_STL@@@2@U?$less@K@2@V?$allocator@U?$pair@$$CBKV?$basic_string@DV?$char_traits@D@_STL@@V?$allocator@D@2@@_STL@@@_STL@@@2@@_STL@@KAAAPAU?$_Rb_tree_node@U?$pair@$$CBKV?$basic_string@DV?$char_traits@D@_STL@@V?$allocator@D@2@@_STL@@@_STL@@@2@PAU_Rb_tree_node_base@2@@Z
_TEXT	SEGMENT
___x$ = 8						; size = 4
?_S_right@?$_Rb_tree@KU?$pair@$$CBKV?$basic_string@DV?$char_traits@D@_STL@@V?$allocator@D@2@@_STL@@@_STL@@U?$_Select1st@U?$pair@$$CBKV?$basic_string@DV?$char_traits@D@_STL@@V?$allocator@D@2@@_STL@@@_STL@@@2@U?$less@K@2@V?$allocator@U?$pair@$$CBKV?$basic_string@DV?$char_traits@D@_STL@@V?$allocator@D@2@@_STL@@@_STL@@@2@@_STL@@KAAAPAU?$_Rb_tree_node@U?$pair@$$CBKV?$basic_string@DV?$char_traits@D@_STL@@V?$allocator@D@2@@_STL@@@_STL@@@2@PAU_Rb_tree_node_base@2@@Z PROC NEAR ; _STL::_Rb_tree<unsigned long,_STL::pair<unsigned long const ,_STL::basic_string<char,_STL::char_traits<char>,_STL::allocator<char> > >,_STL::_Select1st<_STL::pair<unsigned long const ,_STL::basic_string<char,_STL::char_traits<char>,_STL::allocator<char> > > >,_STL::less<unsigned long>,_STL::allocator<_STL::pair<unsigned long const ,_STL::basic_string<char,_STL::char_traits<char>,_STL::allocator<char> > > > >::_S_right, COMDAT

; 287  :     { return (_Link_type&)(__x->_M_right); }

  00000	8b 44 24 04	 mov	 eax, DWORD PTR ___x$[esp-4]
  00004	83 c0 0c	 add	 eax, 12			; 0000000cH
  00007	c3		 ret	 0
?_S_right@?$_Rb_tree@KU?$pair@$$CBKV?$basic_string@DV?$char_traits@D@_STL@@V?$allocator@D@2@@_STL@@@_STL@@U?$_Select1st@U?$pair@$$CBKV?$basic_string@DV?$char_traits@D@_STL@@V?$allocator@D@2@@_STL@@@_STL@@@2@U?$less@K@2@V?$allocator@U?$pair@$$CBKV?$basic_string@DV?$char_traits@D@_STL@@V?$allocator@D@2@@_STL@@@_STL@@@2@@_STL@@KAAAPAU?$_Rb_tree_node@U?$pair@$$CBKV?$basic_string@DV?$char_traits@D@_STL@@V?$allocator@D@2@@_STL@@@_STL@@@2@PAU_Rb_tree_node_base@2@@Z ENDP ; _STL::_Rb_tree<unsigned long,_STL::pair<unsigned long const ,_STL::basic_string<char,_STL::char_traits<char>,_STL::allocator<char> > >,_STL::_Select1st<_STL::pair<unsigned long const ,_STL::basic_string<char,_STL::char_traits<char>,_STL::allocator<char> > > >,_STL::less<unsigned long>,_STL::allocator<_STL::pair<unsigned long const ,_STL::basic_string<char,_STL::char_traits<char>,_STL::allocator<char> > > > >::_S_right
_TEXT	ENDS
PUBLIC	?_S_key@?$_Rb_tree@KU?$pair@$$CBKV?$basic_string@DV?$char_traits@D@_STL@@V?$allocator@D@2@@_STL@@@_STL@@U?$_Select1st@U?$pair@$$CBKV?$basic_string@DV?$char_traits@D@_STL@@V?$allocator@D@2@@_STL@@@_STL@@@2@U?$less@K@2@V?$allocator@U?$pair@$$CBKV?$basic_string@DV?$char_traits@D@_STL@@V?$allocator@D@2@@_STL@@@_STL@@@2@@_STL@@KAABKPAU_Rb_tree_node_base@2@@Z ; _STL::_Rb_tree<unsigned long,_STL::pair<unsigned long const ,_STL::basic_string<char,_STL::char_traits<char>,_STL::allocator<char> > >,_STL::_Select1st<_STL::pair<unsigned long const ,_STL::basic_string<char,_STL::char_traits<char>,_STL::allocator<char> > > >,_STL::less<unsigned long>,_STL::allocator<_STL::pair<unsigned long const ,_STL::basic_string<char,_STL::char_traits<char>,_STL::allocator<char> > > > >::_S_key
; Function compile flags: /Ogsy
;	COMDAT ?_S_key@?$_Rb_tree@KU?$pair@$$CBKV?$basic_string@DV?$char_traits@D@_STL@@V?$allocator@D@2@@_STL@@@_STL@@U?$_Select1st@U?$pair@$$CBKV?$basic_string@DV?$char_traits@D@_STL@@V?$allocator@D@2@@_STL@@@_STL@@@2@U?$less@K@2@V?$allocator@U?$pair@$$CBKV?$basic_string@DV?$char_traits@D@_STL@@V?$allocator@D@2@@_STL@@@_STL@@@2@@_STL@@KAABKPAU_Rb_tree_node_base@2@@Z
_TEXT	SEGMENT
___x$ = 8						; size = 4
?_S_key@?$_Rb_tree@KU?$pair@$$CBKV?$basic_string@DV?$char_traits@D@_STL@@V?$allocator@D@2@@_STL@@@_STL@@U?$_Select1st@U?$pair@$$CBKV?$basic_string@DV?$char_traits@D@_STL@@V?$allocator@D@2@@_STL@@@_STL@@@2@U?$less@K@2@V?$allocator@U?$pair@$$CBKV?$basic_string@DV?$char_traits@D@_STL@@V?$allocator@D@2@@_STL@@@_STL@@@2@@_STL@@KAABKPAU_Rb_tree_node_base@2@@Z PROC NEAR ; _STL::_Rb_tree<unsigned long,_STL::pair<unsigned long const ,_STL::basic_string<char,_STL::char_traits<char>,_STL::allocator<char> > >,_STL::_Select1st<_STL::pair<unsigned long const ,_STL::basic_string<char,_STL::char_traits<char>,_STL::allocator<char> > > >,_STL::less<unsigned long>,_STL::allocator<_STL::pair<unsigned long const ,_STL::basic_string<char,_STL::char_traits<char>,_STL::allocator<char> > > > >::_S_key, COMDAT

; 293  :     { return _KeyOfValue()(_S_value(_Link_type(__x)));} 

  00000	8b 44 24 04	 mov	 eax, DWORD PTR ___x$[esp-4]
  00004	83 c0 10	 add	 eax, 16			; 00000010H
  00007	c3		 ret	 0
?_S_key@?$_Rb_tree@KU?$pair@$$CBKV?$basic_string@DV?$char_traits@D@_STL@@V?$allocator@D@2@@_STL@@@_STL@@U?$_Select1st@U?$pair@$$CBKV?$basic_string@DV?$char_traits@D@_STL@@V?$allocator@D@2@@_STL@@@_STL@@@2@U?$less@K@2@V?$allocator@U?$pair@$$CBKV?$basic_string@DV?$char_traits@D@_STL@@V?$allocator@D@2@@_STL@@@_STL@@@2@@_STL@@KAABKPAU_Rb_tree_node_base@2@@Z ENDP ; _STL::_Rb_tree<unsigned long,_STL::pair<unsigned long const ,_STL::basic_string<char,_STL::char_traits<char>,_STL::allocator<char> > >,_STL::_Select1st<_STL::pair<unsigned long const ,_STL::basic_string<char,_STL::char_traits<char>,_STL::allocator<char> > > >,_STL::less<unsigned long>,_STL::allocator<_STL::pair<unsigned long const ,_STL::basic_string<char,_STL::char_traits<char>,_STL::allocator<char> > > > >::_S_key
_TEXT	ENDS
PUBLIC	?size@?$_Rb_tree@KU?$pair@$$CBKV?$basic_string@DV?$char_traits@D@_STL@@V?$allocator@D@2@@_STL@@@_STL@@U?$_Select1st@U?$pair@$$CBKV?$basic_string@DV?$char_traits@D@_STL@@V?$allocator@D@2@@_STL@@@_STL@@@2@U?$less@K@2@V?$allocator@U?$pair@$$CBKV?$basic_string@DV?$char_traits@D@_STL@@V?$allocator@D@2@@_STL@@@_STL@@@2@@_STL@@QBEIXZ ; _STL::_Rb_tree<unsigned long,_STL::pair<unsigned long const ,_STL::basic_string<char,_STL::char_traits<char>,_STL::allocator<char> > >,_STL::_Select1st<_STL::pair<unsigned long const ,_STL::basic_string<char,_STL::char_traits<char>,_STL::allocator<char> > > >,_STL::less<unsigned long>,_STL::allocator<_STL::pair<unsigned long const ,_STL::basic_string<char,_STL::char_traits<char>,_STL::allocator<char> > > > >::size
; Function compile flags: /Ogsy
;	COMDAT ?size@?$_Rb_tree@KU?$pair@$$CBKV?$basic_string@DV?$char_traits@D@_STL@@V?$allocator@D@2@@_STL@@@_STL@@U?$_Select1st@U?$pair@$$CBKV?$basic_string@DV?$char_traits@D@_STL@@V?$allocator@D@2@@_STL@@@_STL@@@2@U?$less@K@2@V?$allocator@U?$pair@$$CBKV?$basic_string@DV?$char_traits@D@_STL@@V?$allocator@D@2@@_STL@@@_STL@@@2@@_STL@@QBEIXZ
_TEXT	SEGMENT
?size@?$_Rb_tree@KU?$pair@$$CBKV?$basic_string@DV?$char_traits@D@_STL@@V?$allocator@D@2@@_STL@@@_STL@@U?$_Select1st@U?$pair@$$CBKV?$basic_string@DV?$char_traits@D@_STL@@V?$allocator@D@2@@_STL@@@_STL@@@2@U?$less@K@2@V?$allocator@U?$pair@$$CBKV?$basic_string@DV?$char_traits@D@_STL@@V?$allocator@D@2@@_STL@@@_STL@@@2@@_STL@@QBEIXZ PROC NEAR ; _STL::_Rb_tree<unsigned long,_STL::pair<unsigned long const ,_STL::basic_string<char,_STL::char_traits<char>,_STL::allocator<char> > >,_STL::_Select1st<_STL::pair<unsigned long const ,_STL::basic_string<char,_STL::char_traits<char>,_STL::allocator<char> > > >,_STL::less<unsigned long>,_STL::allocator<_STL::pair<unsigned long const ,_STL::basic_string<char,_STL::char_traits<char>,_STL::allocator<char> > > > >::size, COMDAT
; _this$ = ecx

; 371  :   size_type size() const { return _M_node_count; }

  00000	8b 41 04	 mov	 eax, DWORD PTR [ecx+4]
  00003	c3		 ret	 0
?size@?$_Rb_tree@KU?$pair@$$CBKV?$basic_string@DV?$char_traits@D@_STL@@V?$allocator@D@2@@_STL@@@_STL@@U?$_Select1st@U?$pair@$$CBKV?$basic_string@DV?$char_traits@D@_STL@@V?$allocator@D@2@@_STL@@@_STL@@@2@U?$less@K@2@V?$allocator@U?$pair@$$CBKV?$basic_string@DV?$char_traits@D@_STL@@V?$allocator@D@2@@_STL@@@_STL@@@2@@_STL@@QBEIXZ ENDP ; _STL::_Rb_tree<unsigned long,_STL::pair<unsigned long const ,_STL::basic_string<char,_STL::char_traits<char>,_STL::allocator<char> > >,_STL::_Select1st<_STL::pair<unsigned long const ,_STL::basic_string<char,_STL::char_traits<char>,_STL::allocator<char> > > >,_STL::less<unsigned long>,_STL::allocator<_STL::pair<unsigned long const ,_STL::basic_string<char,_STL::char_traits<char>,_STL::allocator<char> > > > >::size
_TEXT	ENDS
PUBLIC	??E?$_Rb_tree_iterator@U?$pair@$$CBKV?$basic_string@DV?$char_traits@D@_STL@@V?$allocator@D@2@@_STL@@@_STL@@U?$_Nonconst_traits@U?$pair@$$CBKV?$basic_string@DV?$char_traits@D@_STL@@V?$allocator@D@2@@_STL@@@_STL@@@2@@_STL@@QAEAAU01@XZ ; _STL::_Rb_tree_iterator<_STL::pair<unsigned long const ,_STL::basic_string<char,_STL::char_traits<char>,_STL::allocator<char> > >,_STL::_Nonconst_traits<_STL::pair<unsigned long const ,_STL::basic_string<char,_STL::char_traits<char>,_STL::allocator<char> > > > >::operator++
EXTRN	?_M_increment@?$_Rb_global@_N@_STL@@SAPAU_Rb_tree_node_base@2@PAU32@@Z:NEAR ; _STL::_Rb_global<bool>::_M_increment
; Function compile flags: /Ogsy
;	COMDAT ??E?$_Rb_tree_iterator@U?$pair@$$CBKV?$basic_string@DV?$char_traits@D@_STL@@V?$allocator@D@2@@_STL@@@_STL@@U?$_Nonconst_traits@U?$pair@$$CBKV?$basic_string@DV?$char_traits@D@_STL@@V?$allocator@D@2@@_STL@@@_STL@@@2@@_STL@@QAEAAU01@XZ
_TEXT	SEGMENT
??E?$_Rb_tree_iterator@U?$pair@$$CBKV?$basic_string@DV?$char_traits@D@_STL@@V?$allocator@D@2@@_STL@@@_STL@@U?$_Nonconst_traits@U?$pair@$$CBKV?$basic_string@DV?$char_traits@D@_STL@@V?$allocator@D@2@@_STL@@@_STL@@@2@@_STL@@QAEAAU01@XZ PROC NEAR ; _STL::_Rb_tree_iterator<_STL::pair<unsigned long const ,_STL::basic_string<char,_STL::char_traits<char>,_STL::allocator<char> > >,_STL::_Nonconst_traits<_STL::pair<unsigned long const ,_STL::basic_string<char,_STL::char_traits<char>,_STL::allocator<char> > > > >::operator++, COMDAT
; _this$ = ecx

; 174  :   _Self& operator++() { _M_node = _Rb_global_inst::_M_increment(_M_node); return *this; }

  00000	56		 push	 esi
  00001	8b f1		 mov	 esi, ecx
  00003	ff 36		 push	 DWORD PTR [esi]
  00005	e8 00 00 00 00	 call	 ?_M_increment@?$_Rb_global@_N@_STL@@SAPAU_Rb_tree_node_base@2@PAU32@@Z ; _STL::_Rb_global<bool>::_M_increment
  0000a	89 06		 mov	 DWORD PTR [esi], eax
  0000c	59		 pop	 ecx
  0000d	8b c6		 mov	 eax, esi
  0000f	5e		 pop	 esi
  00010	c3		 ret	 0
??E?$_Rb_tree_iterator@U?$pair@$$CBKV?$basic_string@DV?$char_traits@D@_STL@@V?$allocator@D@2@@_STL@@@_STL@@U?$_Nonconst_traits@U?$pair@$$CBKV?$basic_string@DV?$char_traits@D@_STL@@V?$allocator@D@2@@_STL@@@_STL@@@2@@_STL@@QAEAAU01@XZ ENDP ; _STL::_Rb_tree_iterator<_STL::pair<unsigned long const ,_STL::basic_string<char,_STL::char_traits<char>,_STL::allocator<char> > >,_STL::_Nonconst_traits<_STL::pair<unsigned long const ,_STL::basic_string<char,_STL::char_traits<char>,_STL::allocator<char> > > > >::operator++
_TEXT	ENDS
PUBLIC	??F?$_Rb_tree_iterator@U?$pair@$$CBKV?$basic_string@DV?$char_traits@D@_STL@@V?$allocator@D@2@@_STL@@@_STL@@U?$_Nonconst_traits@U?$pair@$$CBKV?$basic_string@DV?$char_traits@D@_STL@@V?$allocator@D@2@@_STL@@@_STL@@@2@@_STL@@QAEAAU01@XZ ; _STL::_Rb_tree_iterator<_STL::pair<unsigned long const ,_STL::basic_string<char,_STL::char_traits<char>,_STL::allocator<char> > >,_STL::_Nonconst_traits<_STL::pair<unsigned long const ,_STL::basic_string<char,_STL::char_traits<char>,_STL::allocator<char> > > > >::operator--
EXTRN	?_M_decrement@?$_Rb_global@_N@_STL@@SAPAU_Rb_tree_node_base@2@PAU32@@Z:NEAR ; _STL::_Rb_global<bool>::_M_decrement
; Function compile flags: /Ogsy
;	COMDAT ??F?$_Rb_tree_iterator@U?$pair@$$CBKV?$basic_string@DV?$char_traits@D@_STL@@V?$allocator@D@2@@_STL@@@_STL@@U?$_Nonconst_traits@U?$pair@$$CBKV?$basic_string@DV?$char_traits@D@_STL@@V?$allocator@D@2@@_STL@@@_STL@@@2@@_STL@@QAEAAU01@XZ
_TEXT	SEGMENT
??F?$_Rb_tree_iterator@U?$pair@$$CBKV?$basic_string@DV?$char_traits@D@_STL@@V?$allocator@D@2@@_STL@@@_STL@@U?$_Nonconst_traits@U?$pair@$$CBKV?$basic_string@DV?$char_traits@D@_STL@@V?$allocator@D@2@@_STL@@@_STL@@@2@@_STL@@QAEAAU01@XZ PROC NEAR ; _STL::_Rb_tree_iterator<_STL::pair<unsigned long const ,_STL::basic_string<char,_STL::char_traits<char>,_STL::allocator<char> > >,_STL::_Nonconst_traits<_STL::pair<unsigned long const ,_STL::basic_string<char,_STL::char_traits<char>,_STL::allocator<char> > > > >::operator--, COMDAT
; _this$ = ecx

; 181  :   _Self& operator--() { _M_node = _Rb_global_inst::_M_decrement(_M_node); return *this; }

  00000	56		 push	 esi
  00001	8b f1		 mov	 esi, ecx
  00003	ff 36		 push	 DWORD PTR [esi]
  00005	e8 00 00 00 00	 call	 ?_M_decrement@?$_Rb_global@_N@_STL@@SAPAU_Rb_tree_node_base@2@PAU32@@Z ; _STL::_Rb_global<bool>::_M_decrement
  0000a	89 06		 mov	 DWORD PTR [esi], eax
  0000c	59		 pop	 ecx
  0000d	8b c6		 mov	 eax, esi
  0000f	5e		 pop	 esi
  00010	c3		 ret	 0
??F?$_Rb_tree_iterator@U?$pair@$$CBKV?$basic_string@DV?$char_traits@D@_STL@@V?$allocator@D@2@@_STL@@@_STL@@U?$_Nonconst_traits@U?$pair@$$CBKV?$basic_string@DV?$char_traits@D@_STL@@V?$allocator@D@2@@_STL@@@_STL@@@2@@_STL@@QAEAAU01@XZ ENDP ; _STL::_Rb_tree_iterator<_STL::pair<unsigned long const ,_STL::basic_string<char,_STL::char_traits<char>,_STL::allocator<char> > >,_STL::_Nonconst_traits<_STL::pair<unsigned long const ,_STL::basic_string<char,_STL::char_traits<char>,_STL::allocator<char> > > > >::operator--
_TEXT	ENDS
PUBLIC	?_M_leftmost@?$_Rb_tree@KU?$pair@$$CBKV?$basic_string@DV?$char_traits@D@_STL@@V?$allocator@D@2@@_STL@@@_STL@@U?$_Select1st@U?$pair@$$CBKV?$basic_string@DV?$char_traits@D@_STL@@V?$allocator@D@2@@_STL@@@_STL@@@2@U?$less@K@2@V?$allocator@U?$pair@$$CBKV?$basic_string@DV?$char_traits@D@_STL@@V?$allocator@D@2@@_STL@@@_STL@@@2@@_STL@@IBEAAPAU?$_Rb_tree_node@U?$pair@$$CBKV?$basic_string@DV?$char_traits@D@_STL@@V?$allocator@D@2@@_STL@@@_STL@@@2@XZ ; _STL::_Rb_tree<unsigned long,_STL::pair<unsigned long const ,_STL::basic_string<char,_STL::char_traits<char>,_STL::allocator<char> > >,_STL::_Select1st<_STL::pair<unsigned long const ,_STL::basic_string<char,_STL::char_traits<char>,_STL::allocator<char> > > >,_STL::less<unsigned long>,_STL::allocator<_STL::pair<unsigned long const ,_STL::basic_string<char,_STL::char_traits<char>,_STL::allocator<char> > > > >::_M_leftmost
; Function compile flags: /Ogsy
;	COMDAT ?_M_leftmost@?$_Rb_tree@KU?$pair@$$CBKV?$basic_string@DV?$char_traits@D@_STL@@V?$allocator@D@2@@_STL@@@_STL@@U?$_Select1st@U?$pair@$$CBKV?$basic_string@DV?$char_traits@D@_STL@@V?$allocator@D@2@@_STL@@@_STL@@@2@U?$less@K@2@V?$allocator@U?$pair@$$CBKV?$basic_string@DV?$char_traits@D@_STL@@V?$allocator@D@2@@_STL@@@_STL@@@2@@_STL@@IBEAAPAU?$_Rb_tree_node@U?$pair@$$CBKV?$basic_string@DV?$char_traits@D@_STL@@V?$allocator@D@2@@_STL@@@_STL@@@2@XZ
_TEXT	SEGMENT
?_M_leftmost@?$_Rb_tree@KU?$pair@$$CBKV?$basic_string@DV?$char_traits@D@_STL@@V?$allocator@D@2@@_STL@@@_STL@@U?$_Select1st@U?$pair@$$CBKV?$basic_string@DV?$char_traits@D@_STL@@V?$allocator@D@2@@_STL@@@_STL@@@2@U?$less@K@2@V?$allocator@U?$pair@$$CBKV?$basic_string@DV?$char_traits@D@_STL@@V?$allocator@D@2@@_STL@@@_STL@@@2@@_STL@@IBEAAPAU?$_Rb_tree_node@U?$pair@$$CBKV?$basic_string@DV?$char_traits@D@_STL@@V?$allocator@D@2@@_STL@@@_STL@@@2@XZ PROC NEAR ; _STL::_Rb_tree<unsigned long,_STL::pair<unsigned long const ,_STL::basic_string<char,_STL::char_traits<char>,_STL::allocator<char> > >,_STL::_Select1st<_STL::pair<unsigned long const ,_STL::basic_string<char,_STL::char_traits<char>,_STL::allocator<char> > > >,_STL::less<unsigned long>,_STL::allocator<_STL::pair<unsigned long const ,_STL::basic_string<char,_STL::char_traits<char>,_STL::allocator<char> > > > >::_M_leftmost, COMDAT
; _this$ = ecx

; 267  :     { return (_Link_type&) this->_M_header._M_data->_M_left; }

  00000	8b 01		 mov	 eax, DWORD PTR [ecx]
  00002	83 c0 08	 add	 eax, 8
  00005	c3		 ret	 0
?_M_leftmost@?$_Rb_tree@KU?$pair@$$CBKV?$basic_string@DV?$char_traits@D@_STL@@V?$allocator@D@2@@_STL@@@_STL@@U?$_Select1st@U?$pair@$$CBKV?$basic_string@DV?$char_traits@D@_STL@@V?$allocator@D@2@@_STL@@@_STL@@@2@U?$less@K@2@V?$allocator@U?$pair@$$CBKV?$basic_string@DV?$char_traits@D@_STL@@V?$allocator@D@2@@_STL@@@_STL@@@2@@_STL@@IBEAAPAU?$_Rb_tree_node@U?$pair@$$CBKV?$basic_string@DV?$char_traits@D@_STL@@V?$allocator@D@2@@_STL@@@_STL@@@2@XZ ENDP ; _STL::_Rb_tree<unsigned long,_STL::pair<unsigned long const ,_STL::basic_string<char,_STL::char_traits<char>,_STL::allocator<char> > >,_STL::_Select1st<_STL::pair<unsigned long const ,_STL::basic_string<char,_STL::char_traits<char>,_STL::allocator<char> > > >,_STL::less<unsigned long>,_STL::allocator<_STL::pair<unsigned long const ,_STL::basic_string<char,_STL::char_traits<char>,_STL::allocator<char> > > > >::_M_leftmost
_TEXT	ENDS
PUBLIC	?_S_parent@?$_Rb_tree@KU?$pair@$$CBKV?$basic_string@DV?$char_traits@D@_STL@@V?$allocator@D@2@@_STL@@@_STL@@U?$_Select1st@U?$pair@$$CBKV?$basic_string@DV?$char_traits@D@_STL@@V?$allocator@D@2@@_STL@@@_STL@@@2@U?$less@K@2@V?$allocator@U?$pair@$$CBKV?$basic_string@DV?$char_traits@D@_STL@@V?$allocator@D@2@@_STL@@@_STL@@@2@@_STL@@KAAAPAU?$_Rb_tree_node@U?$pair@$$CBKV?$basic_string@DV?$char_traits@D@_STL@@V?$allocator@D@2@@_STL@@@_STL@@@2@PAU32@@Z ; _STL::_Rb_tree<unsigned long,_STL::pair<unsigned long const ,_STL::basic_string<char,_STL::char_traits<char>,_STL::allocator<char> > >,_STL::_Select1st<_STL::pair<unsigned long const ,_STL::basic_string<char,_STL::char_traits<char>,_STL::allocator<char> > > >,_STL::less<unsigned long>,_STL::allocator<_STL::pair<unsigned long const ,_STL::basic_string<char,_STL::char_traits<char>,_STL::allocator<char> > > > >::_S_parent
; Function compile flags: /Ogsy
;	COMDAT ?_S_parent@?$_Rb_tree@KU?$pair@$$CBKV?$basic_string@DV?$char_traits@D@_STL@@V?$allocator@D@2@@_STL@@@_STL@@U?$_Select1st@U?$pair@$$CBKV?$basic_string@DV?$char_traits@D@_STL@@V?$allocator@D@2@@_STL@@@_STL@@@2@U?$less@K@2@V?$allocator@U?$pair@$$CBKV?$basic_string@DV?$char_traits@D@_STL@@V?$allocator@D@2@@_STL@@@_STL@@@2@@_STL@@KAAAPAU?$_Rb_tree_node@U?$pair@$$CBKV?$basic_string@DV?$char_traits@D@_STL@@V?$allocator@D@2@@_STL@@@_STL@@@2@PAU32@@Z
_TEXT	SEGMENT
___x$ = 8						; size = 4
?_S_parent@?$_Rb_tree@KU?$pair@$$CBKV?$basic_string@DV?$char_traits@D@_STL@@V?$allocator@D@2@@_STL@@@_STL@@U?$_Select1st@U?$pair@$$CBKV?$basic_string@DV?$char_traits@D@_STL@@V?$allocator@D@2@@_STL@@@_STL@@@2@U?$less@K@2@V?$allocator@U?$pair@$$CBKV?$basic_string@DV?$char_traits@D@_STL@@V?$allocator@D@2@@_STL@@@_STL@@@2@@_STL@@KAAAPAU?$_Rb_tree_node@U?$pair@$$CBKV?$basic_string@DV?$char_traits@D@_STL@@V?$allocator@D@2@@_STL@@@_STL@@@2@PAU32@@Z PROC NEAR ; _STL::_Rb_tree<unsigned long,_STL::pair<unsigned long const ,_STL::basic_string<char,_STL::char_traits<char>,_STL::allocator<char> > >,_STL::_Select1st<_STL::pair<unsigned long const ,_STL::basic_string<char,_STL::char_traits<char>,_STL::allocator<char> > > >,_STL::less<unsigned long>,_STL::allocator<_STL::pair<unsigned long const ,_STL::basic_string<char,_STL::char_traits<char>,_STL::allocator<char> > > > >::_S_parent, COMDAT

; 276  :     { return (_Link_type&)(__x->_M_parent); }

  00000	8b 44 24 04	 mov	 eax, DWORD PTR ___x$[esp-4]
  00004	83 c0 04	 add	 eax, 4
  00007	c3		 ret	 0
?_S_parent@?$_Rb_tree@KU?$pair@$$CBKV?$basic_string@DV?$char_traits@D@_STL@@V?$allocator@D@2@@_STL@@@_STL@@U?$_Select1st@U?$pair@$$CBKV?$basic_string@DV?$char_traits@D@_STL@@V?$allocator@D@2@@_STL@@@_STL@@@2@U?$less@K@2@V?$allocator@U?$pair@$$CBKV?$basic_string@DV?$char_traits@D@_STL@@V?$allocator@D@2@@_STL@@@_STL@@@2@@_STL@@KAAAPAU?$_Rb_tree_node@U?$pair@$$CBKV?$basic_string@DV?$char_traits@D@_STL@@V?$allocator@D@2@@_STL@@@_STL@@@2@PAU32@@Z ENDP ; _STL::_Rb_tree<unsigned long,_STL::pair<unsigned long const ,_STL::basic_string<char,_STL::char_traits<char>,_STL::allocator<char> > >,_STL::_Select1st<_STL::pair<unsigned long const ,_STL::basic_string<char,_STL::char_traits<char>,_STL::allocator<char> > > >,_STL::less<unsigned long>,_STL::allocator<_STL::pair<unsigned long const ,_STL::basic_string<char,_STL::char_traits<char>,_STL::allocator<char> > > > >::_S_parent
_TEXT	ENDS
PUBLIC	?begin@?$_Rb_tree@KU?$pair@$$CBKV?$basic_string@DV?$char_traits@D@_STL@@V?$allocator@D@2@@_STL@@@_STL@@U?$_Select1st@U?$pair@$$CBKV?$basic_string@DV?$char_traits@D@_STL@@V?$allocator@D@2@@_STL@@@_STL@@@2@U?$less@K@2@V?$allocator@U?$pair@$$CBKV?$basic_string@DV?$char_traits@D@_STL@@V?$allocator@D@2@@_STL@@@_STL@@@2@@_STL@@QAE?AU?$_Rb_tree_iterator@U?$pair@$$CBKV?$basic_string@DV?$char_traits@D@_STL@@V?$allocator@D@2@@_STL@@@_STL@@U?$_Nonconst_traits@U?$pair@$$CBKV?$basic_string@DV?$char_traits@D@_STL@@V?$allocator@D@2@@_STL@@@_STL@@@2@@2@XZ ; _STL::_Rb_tree<unsigned long,_STL::pair<unsigned long const ,_STL::basic_string<char,_STL::char_traits<char>,_STL::allocator<char> > >,_STL::_Select1st<_STL::pair<unsigned long const ,_STL::basic_string<char,_STL::char_traits<char>,_STL::allocator<char> > > >,_STL::less<unsigned long>,_STL::allocator<_STL::pair<unsigned long const ,_STL::basic_string<char,_STL::char_traits<char>,_STL::allocator<char> > > > >::begin
; Function compile flags: /Ogsy
;	COMDAT ?begin@?$_Rb_tree@KU?$pair@$$CBKV?$basic_string@DV?$char_traits@D@_STL@@V?$allocator@D@2@@_STL@@@_STL@@U?$_Select1st@U?$pair@$$CBKV?$basic_string@DV?$char_traits@D@_STL@@V?$allocator@D@2@@_STL@@@_STL@@@2@U?$less@K@2@V?$allocator@U?$pair@$$CBKV?$basic_string@DV?$char_traits@D@_STL@@V?$allocator@D@2@@_STL@@@_STL@@@2@@_STL@@QAE?AU?$_Rb_tree_iterator@U?$pair@$$CBKV?$basic_string@DV?$char_traits@D@_STL@@V?$allocator@D@2@@_STL@@@_STL@@U?$_Nonconst_traits@U?$pair@$$CBKV?$basic_string@DV?$char_traits@D@_STL@@V?$allocator@D@2@@_STL@@@_STL@@@2@@2@XZ
_TEXT	SEGMENT
___$ReturnUdt$ = 8					; size = 4
?begin@?$_Rb_tree@KU?$pair@$$CBKV?$basic_string@DV?$char_traits@D@_STL@@V?$allocator@D@2@@_STL@@@_STL@@U?$_Select1st@U?$pair@$$CBKV?$basic_string@DV?$char_traits@D@_STL@@V?$allocator@D@2@@_STL@@@_STL@@@2@U?$less@K@2@V?$allocator@U?$pair@$$CBKV?$basic_string@DV?$char_traits@D@_STL@@V?$allocator@D@2@@_STL@@@_STL@@@2@@_STL@@QAE?AU?$_Rb_tree_iterator@U?$pair@$$CBKV?$basic_string@DV?$char_traits@D@_STL@@V?$allocator@D@2@@_STL@@@_STL@@U?$_Nonconst_traits@U?$pair@$$CBKV?$basic_string@DV?$char_traits@D@_STL@@V?$allocator@D@2@@_STL@@@_STL@@@2@@2@XZ PROC NEAR ; _STL::_Rb_tree<unsigned long,_STL::pair<unsigned long const ,_STL::basic_string<char,_STL::char_traits<char>,_STL::allocator<char> > >,_STL::_Select1st<_STL::pair<unsigned long const ,_STL::basic_string<char,_STL::char_traits<char>,_STL::allocator<char> > > >,_STL::less<unsigned long>,_STL::allocator<_STL::pair<unsigned long const ,_STL::basic_string<char,_STL::char_traits<char>,_STL::allocator<char> > > > >::begin, COMDAT
; _this$ = ecx

; 357  :   iterator begin() { return iterator(_M_leftmost()); }

  00000	8b 01		 mov	 eax, DWORD PTR [ecx]
  00002	8b 48 08	 mov	 ecx, DWORD PTR [eax+8]
  00005	8b 44 24 04	 mov	 eax, DWORD PTR ___$ReturnUdt$[esp-4]
  00009	89 08		 mov	 DWORD PTR [eax], ecx
  0000b	c2 04 00	 ret	 4
?begin@?$_Rb_tree@KU?$pair@$$CBKV?$basic_string@DV?$char_traits@D@_STL@@V?$allocator@D@2@@_STL@@@_STL@@U?$_Select1st@U?$pair@$$CBKV?$basic_string@DV?$char_traits@D@_STL@@V?$allocator@D@2@@_STL@@@_STL@@@2@U?$less@K@2@V?$allocator@U?$pair@$$CBKV?$basic_string@DV?$char_traits@D@_STL@@V?$allocator@D@2@@_STL@@@_STL@@@2@@_STL@@QAE?AU?$_Rb_tree_iterator@U?$pair@$$CBKV?$basic_string@DV?$char_traits@D@_STL@@V?$allocator@D@2@@_STL@@@_STL@@U?$_Nonconst_traits@U?$pair@$$CBKV?$basic_string@DV?$char_traits@D@_STL@@V?$allocator@D@2@@_STL@@@_STL@@@2@@2@XZ ENDP ; _STL::_Rb_tree<unsigned long,_STL::pair<unsigned long const ,_STL::basic_string<char,_STL::char_traits<char>,_STL::allocator<char> > >,_STL::_Select1st<_STL::pair<unsigned long const ,_STL::basic_string<char,_STL::char_traits<char>,_STL::allocator<char> > > >,_STL::less<unsigned long>,_STL::allocator<_STL::pair<unsigned long const ,_STL::basic_string<char,_STL::char_traits<char>,_STL::allocator<char> > > > >::begin
_TEXT	ENDS
PUBLIC	??0?$pair@U?$_Rb_tree_iterator@U?$pair@$$CBKV?$basic_string@DV?$char_traits@D@_STL@@V?$allocator@D@2@@_STL@@@_STL@@U?$_Nonconst_traits@U?$pair@$$CBKV?$basic_string@DV?$char_traits@D@_STL@@V?$allocator@D@2@@_STL@@@_STL@@@2@@_STL@@_N@_STL@@QAE@ABU?$_Rb_tree_iterator@U?$pair@$$CBKV?$basic_string@DV?$char_traits@D@_STL@@V?$allocator@D@2@@_STL@@@_STL@@U?$_Nonconst_traits@U?$pair@$$CBKV?$basic_string@DV?$char_traits@D@_STL@@V?$allocator@D@2@@_STL@@@_STL@@@2@@1@AB_N@Z ; _STL::pair<_STL::_Rb_tree_iterator<_STL::pair<unsigned long const ,_STL::basic_string<char,_STL::char_traits<char>,_STL::allocator<char> > >,_STL::_Nonconst_traits<_STL::pair<unsigned long const ,_STL::basic_string<char,_STL::char_traits<char>,_STL::allocator<char> > > > >,bool>::pair<_STL::_Rb_tree_iterator<_STL::pair<unsigned long const ,_STL::basic_string<char,_STL::char_traits<char>,_STL::allocator<char> > >,_STL::_Nonconst_traits<_STL::pair<unsigned long const ,_STL::basic_string<char,_STL::char_traits<char>,_STL::allocator<char> > > > >,bool>
; Function compile flags: /Ogsy
; File c:\stlport-4.6.1\stlport\stl\_pair.h
;	COMDAT ??0?$pair@U?$_Rb_tree_iterator@U?$pair@$$CBKV?$basic_string@DV?$char_traits@D@_STL@@V?$allocator@D@2@@_STL@@@_STL@@U?$_Nonconst_traits@U?$pair@$$CBKV?$basic_string@DV?$char_traits@D@_STL@@V?$allocator@D@2@@_STL@@@_STL@@@2@@_STL@@_N@_STL@@QAE@ABU?$_Rb_tree_iterator@U?$pair@$$CBKV?$basic_string@DV?$char_traits@D@_STL@@V?$allocator@D@2@@_STL@@@_STL@@U?$_Nonconst_traits@U?$pair@$$CBKV?$basic_string@DV?$char_traits@D@_STL@@V?$allocator@D@2@@_STL@@@_STL@@@2@@1@AB_N@Z
_TEXT	SEGMENT
___a$ = 8						; size = 4
___b$ = 12						; size = 4
??0?$pair@U?$_Rb_tree_iterator@U?$pair@$$CBKV?$basic_string@DV?$char_traits@D@_STL@@V?$allocator@D@2@@_STL@@@_STL@@U?$_Nonconst_traits@U?$pair@$$CBKV?$basic_string@DV?$char_traits@D@_STL@@V?$allocator@D@2@@_STL@@@_STL@@@2@@_STL@@_N@_STL@@QAE@ABU?$_Rb_tree_iterator@U?$pair@$$CBKV?$basic_string@DV?$char_traits@D@_STL@@V?$allocator@D@2@@_STL@@@_STL@@U?$_Nonconst_traits@U?$pair@$$CBKV?$basic_string@DV?$char_traits@D@_STL@@V?$allocator@D@2@@_STL@@@_STL@@@2@@1@AB_N@Z PROC NEAR ; _STL::pair<_STL::_Rb_tree_iterator<_STL::pair<unsigned long const ,_STL::basic_string<char,_STL::char_traits<char>,_STL::allocator<char> > >,_STL::_Nonconst_traits<_STL::pair<unsigned long const ,_STL::basic_string<char,_STL::char_traits<char>,_STL::allocator<char> > > > >,bool>::pair<_STL::_Rb_tree_iterator<_STL::pair<unsigned long const ,_STL::basic_string<char,_STL::char_traits<char>,_STL::allocator<char> > >,_STL::_Nonconst_traits<_STL::pair<unsigned long const ,_STL::basic_string<char,_STL::char_traits<char>,_STL::allocator<char> > > > >,bool>, COMDAT
; _this$ = ecx

; 48   :   pair(const _T1& __a, const _T2& __b) : first(__a), second(__b) {}

  00000	8b c1		 mov	 eax, ecx
  00002	8b 4c 24 04	 mov	 ecx, DWORD PTR ___a$[esp-4]
  00006	8b 09		 mov	 ecx, DWORD PTR [ecx]
  00008	89 08		 mov	 DWORD PTR [eax], ecx
  0000a	8b 4c 24 08	 mov	 ecx, DWORD PTR ___b$[esp-4]
  0000e	8a 09		 mov	 cl, BYTE PTR [ecx]
  00010	88 48 04	 mov	 BYTE PTR [eax+4], cl
  00013	c2 08 00	 ret	 8
??0?$pair@U?$_Rb_tree_iterator@U?$pair@$$CBKV?$basic_string@DV?$char_traits@D@_STL@@V?$allocator@D@2@@_STL@@@_STL@@U?$_Nonconst_traits@U?$pair@$$CBKV?$basic_string@DV?$char_traits@D@_STL@@V?$allocator@D@2@@_STL@@@_STL@@@2@@_STL@@_N@_STL@@QAE@ABU?$_Rb_tree_iterator@U?$pair@$$CBKV?$basic_string@DV?$char_traits@D@_STL@@V?$allocator@D@2@@_STL@@@_STL@@U?$_Nonconst_traits@U?$pair@$$CBKV?$basic_string@DV?$char_traits@D@_STL@@V?$allocator@D@2@@_STL@@@_STL@@@2@@1@AB_N@Z ENDP ; _STL::pair<_STL::_Rb_tree_iterator<_STL::pair<unsigned long const ,_STL::basic_string<char,_STL::char_traits<char>,_STL::allocator<char> > >,_STL::_Nonconst_traits<_STL::pair<unsigned long const ,_STL::basic_string<char,_STL::char_traits<char>,_STL::allocator<char> > > > >,bool>::pair<_STL::_Rb_tree_iterator<_STL::pair<unsigned long const ,_STL::basic_string<char,_STL::char_traits<char>,_STL::allocator<char> > >,_STL::_Nonconst_traits<_STL::pair<unsigned long const ,_STL::basic_string<char,_STL::char_traits<char>,_STL::allocator<char> > > > >,bool>
_TEXT	ENDS
PUBLIC	?capacity@?$basic_string@DV?$char_traits@D@_STL@@V?$allocator@D@2@@_STL@@QBEIXZ ; _STL::basic_string<char,_STL::char_traits<char>,_STL::allocator<char> >::capacity
; Function compile flags: /Ogsy
; File c:\stlport-4.6.1\stlport\stl\_string.h
;	COMDAT ?capacity@?$basic_string@DV?$char_traits@D@_STL@@V?$allocator@D@2@@_STL@@QBEIXZ
_TEXT	SEGMENT
?capacity@?$basic_string@DV?$char_traits@D@_STL@@V?$allocator@D@2@@_STL@@QBEIXZ PROC NEAR ; _STL::basic_string<char,_STL::char_traits<char>,_STL::allocator<char> >::capacity, COMDAT
; _this$ = ecx

; 447  :   size_type capacity() const { return (this->_M_end_of_storage._M_data - this->_M_start) - 1; }

  00000	8b 41 08	 mov	 eax, DWORD PTR [ecx+8]
  00003	2b 01		 sub	 eax, DWORD PTR [ecx]
  00005	48		 dec	 eax
  00006	c3		 ret	 0
?capacity@?$basic_string@DV?$char_traits@D@_STL@@V?$allocator@D@2@@_STL@@QBEIXZ ENDP ; _STL::basic_string<char,_STL::char_traits<char>,_STL::allocator<char> >::capacity
_TEXT	ENDS
PUBLIC	?max_size@?$_String_base@DV?$allocator@D@_STL@@@_STL@@QBEIXZ ; _STL::_String_base<char,_STL::allocator<char> >::max_size
; Function compile flags: /Ogsy
;	COMDAT ?max_size@?$_String_base@DV?$allocator@D@_STL@@@_STL@@QBEIXZ
_TEXT	SEGMENT
?max_size@?$_String_base@DV?$allocator@D@_STL@@@_STL@@QBEIXZ PROC NEAR ; _STL::_String_base<char,_STL::allocator<char> >::max_size, COMDAT
; _this$ = ecx

; 126  :   size_t max_size() const { return (size_t(-1) / sizeof(_Tp)) - 1; }

  00000	6a fe		 push	 -2			; fffffffeH
  00002	58		 pop	 eax
  00003	c3		 ret	 0
?max_size@?$_String_base@DV?$allocator@D@_STL@@@_STL@@QBEIXZ ENDP ; _STL::_String_base<char,_STL::allocator<char> >::max_size
_TEXT	ENDS
PUBLIC	?_M_construct_null_aux@?$basic_string@DV?$char_traits@D@_STL@@V?$allocator@D@2@@_STL@@AAEXPADABU__true_type@2@@Z ; _STL::basic_string<char,_STL::char_traits<char>,_STL::allocator<char> >::_M_construct_null_aux
; Function compile flags: /Ogsy
;	COMDAT ?_M_construct_null_aux@?$basic_string@DV?$char_traits@D@_STL@@V?$allocator@D@2@@_STL@@AAEXPADABU__true_type@2@@Z
_TEXT	SEGMENT
___p$ = 8						; size = 4
___formal$ = 12						; size = 4
?_M_construct_null_aux@?$basic_string@DV?$char_traits@D@_STL@@V?$allocator@D@2@@_STL@@AAEXPADABU__true_type@2@@Z PROC NEAR ; _STL::basic_string<char,_STL::char_traits<char>,_STL::allocator<char> >::_M_construct_null_aux, COMDAT
; _this$ = ecx

; 332  :     *__p = 0;

  00000	8b 44 24 04	 mov	 eax, DWORD PTR ___p$[esp-4]
  00004	c6 00 00	 mov	 BYTE PTR [eax], 0

; 333  :   }

  00007	c2 08 00	 ret	 8
?_M_construct_null_aux@?$basic_string@DV?$char_traits@D@_STL@@V?$allocator@D@2@@_STL@@AAEXPADABU__true_type@2@@Z ENDP ; _STL::basic_string<char,_STL::char_traits<char>,_STL::allocator<char> >::_M_construct_null_aux
_TEXT	ENDS
PUBLIC	??$__distance@PBD@_STL@@YAHABQBD0ABUrandom_access_iterator_tag@0@@Z ; _STL::__distance<char const *>
; Function compile flags: /Ogsy
; File c:\stlport-4.6.1\stlport\stl\_iterator_base.h
;	COMDAT ??$__distance@PBD@_STL@@YAHABQBD0ABUrandom_access_iterator_tag@0@@Z
_TEXT	SEGMENT
___first$ = 8						; size = 4
___last$ = 12						; size = 4
___formal$ = 16						; size = 4
??$__distance@PBD@_STL@@YAHABQBD0ABUrandom_access_iterator_tag@0@@Z PROC NEAR ; _STL::__distance<char const *>, COMDAT

; 363  :   return __last - __first;

  00000	8b 44 24 08	 mov	 eax, DWORD PTR ___last$[esp-4]
  00004	8b 00		 mov	 eax, DWORD PTR [eax]
  00006	8b 4c 24 04	 mov	 ecx, DWORD PTR ___first$[esp-4]
  0000a	2b 01		 sub	 eax, DWORD PTR [ecx]

; 364  : }

  0000c	c3		 ret	 0
??$__distance@PBD@_STL@@YAHABQBD0ABUrandom_access_iterator_tag@0@@Z ENDP ; _STL::__distance<char const *>
_TEXT	ENDS
PUBLIC	??_C@_0N@GOPDCEEB@basic_string?$AA@		; `string'
PUBLIC	?_M_throw_length_error@?$_String_base@DV?$allocator@D@_STL@@@_STL@@QBEXXZ ; _STL::_String_base<char,_STL::allocator<char> >::_M_throw_length_error
EXTRN	?__stl_throw_length_error@_STL@@YAXPBD@Z:NEAR	; _STL::__stl_throw_length_error
;	COMDAT ??_C@_0N@GOPDCEEB@basic_string?$AA@
; File c:\stlport-4.6.1\stlport\stl\_string.c
CONST	SEGMENT
??_C@_0N@GOPDCEEB@basic_string?$AA@ DB 'basic_string', 00H ; `string'
; Function compile flags: /Ogsy
CONST	ENDS
;	COMDAT ?_M_throw_length_error@?$_String_base@DV?$allocator@D@_STL@@@_STL@@QBEXXZ
_TEXT	SEGMENT
?_M_throw_length_error@?$_String_base@DV?$allocator@D@_STL@@@_STL@@QBEXXZ PROC NEAR ; _STL::_String_base<char,_STL::allocator<char> >::_M_throw_length_error, COMDAT
; _this$ = ecx

; 523  :     __stl_throw_length_error("basic_string");

  00000	68 00 00 00 00	 push	 OFFSET FLAT:??_C@_0N@GOPDCEEB@basic_string?$AA@
  00005	e8 00 00 00 00	 call	 ?__stl_throw_length_error@_STL@@YAXPBD@Z ; _STL::__stl_throw_length_error
  0000a	59		 pop	 ecx

; 524  : }

  0000b	c3		 ret	 0
?_M_throw_length_error@?$_String_base@DV?$allocator@D@_STL@@@_STL@@QBEXXZ ENDP ; _STL::_String_base<char,_STL::allocator<char> >::_M_throw_length_error
_TEXT	ENDS
PUBLIC	??$__distance@PAD@_STL@@YAHABQAD0ABUrandom_access_iterator_tag@0@@Z ; _STL::__distance<char *>
; Function compile flags: /Ogsy
; File c:\stlport-4.6.1\stlport\stl\_iterator_base.h
;	COMDAT ??$__distance@PAD@_STL@@YAHABQAD0ABUrandom_access_iterator_tag@0@@Z
_TEXT	SEGMENT
___first$ = 8						; size = 4
___last$ = 12						; size = 4
___formal$ = 16						; size = 4
??$__distance@PAD@_STL@@YAHABQAD0ABUrandom_access_iterator_tag@0@@Z PROC NEAR ; _STL::__distance<char *>, COMDAT

; 363  :   return __last - __first;

  00000	8b 44 24 08	 mov	 eax, DWORD PTR ___last$[esp-4]
  00004	8b 00		 mov	 eax, DWORD PTR [eax]
  00006	8b 4c 24 04	 mov	 ecx, DWORD PTR ___first$[esp-4]
  0000a	2b 01		 sub	 eax, DWORD PTR [ecx]

; 364  : }

  0000c	c3		 ret	 0
??$__distance@PAD@_STL@@YAHABQAD0ABUrandom_access_iterator_tag@0@@Z ENDP ; _STL::__distance<char *>
_TEXT	ENDS
PUBLIC	??$max@I@_STL@@YAABIABI0@Z			; _STL::max<unsigned int>
; Function compile flags: /Ogsy
; File c:\stlport-4.6.1\stlport\stl\_algobase.h
;	COMDAT ??$max@I@_STL@@YAABIABI0@Z
_TEXT	SEGMENT
___a$ = 8						; size = 4
___b$ = 12						; size = 4
??$max@I@_STL@@YAABIABI0@Z PROC NEAR			; _STL::max<unsigned int>, COMDAT

; 79   : inline const _Tp& (max)(const _Tp& __a, const _Tp& __b) {  return  __a < __b ? __b : __a; }

  00000	8b 44 24 04	 mov	 eax, DWORD PTR ___a$[esp-4]
  00004	8b 10		 mov	 edx, DWORD PTR [eax]
  00006	8b 4c 24 08	 mov	 ecx, DWORD PTR ___b$[esp-4]
  0000a	3b 11		 cmp	 edx, DWORD PTR [ecx]
  0000c	73 02		 jae	 SHORT $L102630
  0000e	8b c1		 mov	 eax, ecx
$L102630:
  00010	c3		 ret	 0
??$max@I@_STL@@YAABIABI0@Z ENDP				; _STL::max<unsigned int>
_TEXT	ENDS
PUBLIC	?_Ret@?$_BothPtrType@PADPAD@_STL@@SA?AU__true_type@2@XZ ; _STL::_BothPtrType<char *,char *>::_Ret
; Function compile flags: /Ogsy
; File c:\stlport-4.6.1\stlport\stl\type_traits.h
;	COMDAT ?_Ret@?$_BothPtrType@PADPAD@_STL@@SA?AU__true_type@2@XZ
_TEXT	SEGMENT
$T102634 = -1						; size = 1
?_Ret@?$_BothPtrType@PADPAD@_STL@@SA?AU__true_type@2@XZ PROC NEAR ; _STL::_BothPtrType<char *,char *>::_Ret, COMDAT

; 234  :   static __true_type _Ret() { return __true_type();} 

  00000	55		 push	 ebp
  00001	8b ec		 mov	 ebp, esp
  00003	51		 push	 ecx
  00004	57		 push	 edi
  00005	33 c0		 xor	 eax, eax
  00007	8d 7d ff	 lea	 edi, DWORD PTR $T102634[ebp]
  0000a	aa		 stosb
  0000b	8a 45 ff	 mov	 al, BYTE PTR $T102634[ebp]
  0000e	5f		 pop	 edi
  0000f	c9		 leave
  00010	c3		 ret	 0
?_Ret@?$_BothPtrType@PADPAD@_STL@@SA?AU__true_type@2@XZ ENDP ; _STL::_BothPtrType<char *,char *>::_Ret
_TEXT	ENDS
PUBLIC	?_Ret@?$_OKToMemCpy@DD@_STL@@SA?AU__true_type@2@XZ ; _STL::_OKToMemCpy<char,char>::_Ret
; Function compile flags: /Ogsy
;	COMDAT ?_Ret@?$_OKToMemCpy@DD@_STL@@SA?AU__true_type@2@XZ
_TEXT	SEGMENT
$T102637 = -1						; size = 1
?_Ret@?$_OKToMemCpy@DD@_STL@@SA?AU__true_type@2@XZ PROC NEAR ; _STL::_OKToMemCpy<char,char>::_Ret, COMDAT

; 361  :   static _Type _Ret() { return _Type(); }

  00000	55		 push	 ebp
  00001	8b ec		 mov	 ebp, esp
  00003	51		 push	 ecx
  00004	57		 push	 edi
  00005	33 c0		 xor	 eax, eax
  00007	8d 7d ff	 lea	 edi, DWORD PTR $T102637[ebp]
  0000a	aa		 stosb
  0000b	8a 45 ff	 mov	 al, BYTE PTR $T102637[ebp]
  0000e	5f		 pop	 edi
  0000f	c9		 leave
  00010	c3		 ret	 0
?_Ret@?$_OKToMemCpy@DD@_STL@@SA?AU__true_type@2@XZ ENDP	; _STL::_OKToMemCpy<char,char>::_Ret
_TEXT	ENDS
PUBLIC	??$_IsOKToMemCpy@DD@_STL@@YA?AU?$_OKToMemCpy@DD@0@PAD0@Z ; _STL::_IsOKToMemCpy<char,char>
; Function compile flags: /Ogsy
;	COMDAT ??$_IsOKToMemCpy@DD@_STL@@YA?AU?$_OKToMemCpy@DD@0@PAD0@Z
_TEXT	SEGMENT
$T102640 = -1						; size = 1
___formal$ = 8						; size = 4
___formal$ = 12						; size = 4
??$_IsOKToMemCpy@DD@_STL@@YA?AU?$_OKToMemCpy@DD@0@PAD0@Z PROC NEAR ; _STL::_IsOKToMemCpy<char,char>, COMDAT

; 365  : inline _OKToMemCpy<_Tp1, _Tp2> _IsOKToMemCpy(_Tp1*, _Tp2*)  {

  00000	55		 push	 ebp
  00001	8b ec		 mov	 ebp, esp
  00003	51		 push	 ecx
  00004	57		 push	 edi

; 366  :   return _OKToMemCpy<_Tp1, _Tp2>();

  00005	33 c0		 xor	 eax, eax
  00007	8d 7d ff	 lea	 edi, DWORD PTR $T102640[ebp]
  0000a	aa		 stosb
  0000b	8a 45 ff	 mov	 al, BYTE PTR $T102640[ebp]
  0000e	5f		 pop	 edi

; 367  : }

  0000f	c9		 leave
  00010	c3		 ret	 0
??$_IsOKToMemCpy@DD@_STL@@YA?AU?$_OKToMemCpy@DD@0@PAD0@Z ENDP ; _STL::_IsOKToMemCpy<char,char>
_TEXT	ENDS
PUBLIC	??$__copy_ptrs@PADPAD@_STL@@YAPADPAD00ABU__true_type@0@@Z ; _STL::__copy_ptrs<char *,char *>
; Function compile flags: /Ogsy
; File c:\stlport-4.6.1\stlport\stl\_algobase.h
;	COMDAT ??$__copy_ptrs@PADPAD@_STL@@YAPADPAD00ABU__true_type@0@@Z
_TEXT	SEGMENT
___first$ = 8						; size = 4
___last$ = 12						; size = 4
___result$ = 16						; size = 4
___formal$ = 20						; size = 4
??$__copy_ptrs@PADPAD@_STL@@YAPADPAD00ABU__true_type@0@@Z PROC NEAR ; _STL::__copy_ptrs<char *,char *>, COMDAT

; 195  : // we know they all pointers, so this cast is OK 
; 196  :   //  return (_OutputIter)__copy_trivial(&(*__first), &(*__last), &(*__result));
; 197  :   return (_OutputIter)__copy_trivial(__first, __last, __result);

  00000	ff 74 24 0c	 push	 DWORD PTR ___result$[esp-4]
  00004	ff 74 24 0c	 push	 DWORD PTR ___last$[esp]
  00008	ff 74 24 0c	 push	 DWORD PTR ___first$[esp+4]
  0000c	e8 00 00 00 00	 call	 ?__copy_trivial@_STL@@YAPAXPBX0PAX@Z ; _STL::__copy_trivial
  00011	83 c4 0c	 add	 esp, 12			; 0000000cH

; 198  : }

  00014	c3		 ret	 0
??$__copy_ptrs@PADPAD@_STL@@YAPADPAD00ABU__true_type@0@@Z ENDP ; _STL::__copy_ptrs<char *,char *>
_TEXT	ENDS
PUBLIC	??8_Rb_tree_base_iterator@_STL@@QBE_NABU01@@Z	; _STL::_Rb_tree_base_iterator::operator==
; Function compile flags: /Ogsy
; File c:\stlport-4.6.1\stlport\stl\_tree.h
;	COMDAT ??8_Rb_tree_base_iterator@_STL@@QBE_NABU01@@Z
_TEXT	SEGMENT
___y$ = 8						; size = 4
??8_Rb_tree_base_iterator@_STL@@QBE_NABU01@@Z PROC NEAR	; _STL::_Rb_tree_base_iterator::operator==, COMDAT
; _this$ = ecx

; 147  :     return _M_node == __y._M_node;

  00000	8b 01		 mov	 eax, DWORD PTR [ecx]
  00002	8b 4c 24 04	 mov	 ecx, DWORD PTR ___y$[esp-4]
  00006	2b 01		 sub	 eax, DWORD PTR [ecx]
  00008	f7 d8		 neg	 eax
  0000a	1b c0		 sbb	 eax, eax
  0000c	40		 inc	 eax

; 148  :   }

  0000d	c2 04 00	 ret	 4
??8_Rb_tree_base_iterator@_STL@@QBE_NABU01@@Z ENDP	; _STL::_Rb_tree_base_iterator::operator==
_TEXT	ENDS
PUBLIC	??0?$allocator@D@_STL@@QAE@XZ			; _STL::allocator<char>::allocator<char>
; Function compile flags: /Ogsy
; File c:\stlport-4.6.1\stlport\stl\_alloc.h
;	COMDAT ??0?$allocator@D@_STL@@QAE@XZ
_TEXT	SEGMENT
??0?$allocator@D@_STL@@QAE@XZ PROC NEAR			; _STL::allocator<char>::allocator<char>, COMDAT
; _this$ = ecx

; 345  :   allocator() _STLP_NOTHROW {}

  00000	8b c1		 mov	 eax, ecx
  00002	c3		 ret	 0
??0?$allocator@D@_STL@@QAE@XZ ENDP			; _STL::allocator<char>::allocator<char>
_TEXT	ENDS
PUBLIC	??1?$allocator@D@_STL@@QAE@XZ			; _STL::allocator<char>::~allocator<char>
; Function compile flags: /Ogsy
;	COMDAT ??1?$allocator@D@_STL@@QAE@XZ
_TEXT	SEGMENT
??1?$allocator@D@_STL@@QAE@XZ PROC NEAR			; _STL::allocator<char>::~allocator<char>, COMDAT
; _this$ = ecx

; 350  :   ~allocator() _STLP_NOTHROW {}

  00000	c3		 ret	 0
??1?$allocator@D@_STL@@QAE@XZ ENDP			; _STL::allocator<char>::~allocator<char>
_TEXT	ENDS
PUBLIC	??1?$_STLP_alloc_proxy@PADDV?$allocator@D@_STL@@@_STL@@QAE@XZ ; _STL::_STLP_alloc_proxy<char *,char,_STL::allocator<char> >::~_STLP_alloc_proxy<char *,char,_STL::allocator<char> >
; Function compile flags: /Ogsy
;	COMDAT ??1?$_STLP_alloc_proxy@PADDV?$allocator@D@_STL@@@_STL@@QAE@XZ
_TEXT	SEGMENT
??1?$_STLP_alloc_proxy@PADDV?$allocator@D@_STL@@@_STL@@QAE@XZ PROC NEAR ; _STL::_STLP_alloc_proxy<char *,char,_STL::allocator<char> >::~_STLP_alloc_proxy<char *,char,_STL::allocator<char> >, COMDAT
; _this$ = ecx
  00000	c3		 ret	 0
??1?$_STLP_alloc_proxy@PADDV?$allocator@D@_STL@@@_STL@@QAE@XZ ENDP ; _STL::_STLP_alloc_proxy<char *,char,_STL::allocator<char> >::~_STLP_alloc_proxy<char *,char,_STL::allocator<char> >
_TEXT	ENDS
PUBLIC	?allocate@?$__node_alloc@$00$0A@@_STL@@SAPAXI@Z	; _STL::__node_alloc<1,0>::allocate
EXTRN	?_M_allocate@?$__node_alloc@$00$0A@@_STL@@CAPAXI@Z:NEAR ; _STL::__node_alloc<1,0>::_M_allocate
; Function compile flags: /Ogsy
;	COMDAT ?allocate@?$__node_alloc@$00$0A@@_STL@@SAPAXI@Z
_TEXT	SEGMENT
___n$ = 8						; size = 4
?allocate@?$__node_alloc@$00$0A@@_STL@@SAPAXI@Z PROC NEAR ; _STL::__node_alloc<1,0>::allocate, COMDAT

; 251  :   static void * _STLP_CALL allocate(size_t __n) { return (__n > (size_t)_MAX_BYTES) ?  __stl_new(__n) : _M_allocate(__n); }

  00000	8b 44 24 04	 mov	 eax, DWORD PTR ___n$[esp-4]
  00004	3d 80 00 00 00	 cmp	 eax, 128		; 00000080H
  00009	50		 push	 eax
  0000a	76 07		 jbe	 SHORT $L102661
  0000c	e8 00 00 00 00	 call	 ??2@YAPAXI@Z		; operator new
  00011	59		 pop	 ecx
  00012	c3		 ret	 0
$L102661:
  00013	e8 00 00 00 00	 call	 ?_M_allocate@?$__node_alloc@$00$0A@@_STL@@CAPAXI@Z ; _STL::__node_alloc<1,0>::_M_allocate
  00018	59		 pop	 ecx
  00019	c3		 ret	 0
?allocate@?$__node_alloc@$00$0A@@_STL@@SAPAXI@Z ENDP	; _STL::__node_alloc<1,0>::allocate
_TEXT	ENDS
PUBLIC	?deallocate@?$__node_alloc@$00$0A@@_STL@@SAXPAXI@Z ; _STL::__node_alloc<1,0>::deallocate
EXTRN	?_M_deallocate@?$__node_alloc@$00$0A@@_STL@@CAXPAXI@Z:NEAR ; _STL::__node_alloc<1,0>::_M_deallocate
; Function compile flags: /Ogsy
;	COMDAT ?deallocate@?$__node_alloc@$00$0A@@_STL@@SAXPAXI@Z
_TEXT	SEGMENT
___p$ = 8						; size = 4
___n$ = 12						; size = 4
?deallocate@?$__node_alloc@$00$0A@@_STL@@SAXPAXI@Z PROC NEAR ; _STL::__node_alloc<1,0>::deallocate, COMDAT

; 253  :   static void _STLP_CALL deallocate(void *__p, size_t __n) { if (__n > (size_t)_MAX_BYTES) __stl_delete(__p); else _M_deallocate(__p, __n); }

  00000	81 7c 24 08 80
	00 00 00	 cmp	 DWORD PTR ___n$[esp-4], 128 ; 00000080H
  00008	76 0b		 jbe	 SHORT $L98677
  0000a	ff 74 24 04	 push	 DWORD PTR ___p$[esp-4]
  0000e	e8 00 00 00 00	 call	 ??3@YAXPAX@Z		; operator delete
  00013	59		 pop	 ecx
  00014	c3		 ret	 0
$L98677:
  00015	e9 00 00 00 00	 jmp	 ?_M_deallocate@?$__node_alloc@$00$0A@@_STL@@CAXPAXI@Z ; _STL::__node_alloc<1,0>::_M_deallocate
?deallocate@?$__node_alloc@$00$0A@@_STL@@SAXPAXI@Z ENDP	; _STL::__node_alloc<1,0>::deallocate
_TEXT	ENDS
PUBLIC	?get_allocator@?$basic_string@DV?$char_traits@D@_STL@@V?$allocator@D@2@@_STL@@QBE?AV?$allocator@D@2@XZ ; _STL::basic_string<char,_STL::char_traits<char>,_STL::allocator<char> >::get_allocator
; Function compile flags: /Ogsy
; File c:\stlport-4.6.1\stlport\stl\_string.h
;	COMDAT ?get_allocator@?$basic_string@DV?$char_traits@D@_STL@@V?$allocator@D@2@@_STL@@QBE?AV?$allocator@D@2@XZ
_TEXT	SEGMENT
___$ReturnUdt$ = 8					; size = 4
?get_allocator@?$basic_string@DV?$char_traits@D@_STL@@V?$allocator@D@2@@_STL@@QBE?AV?$allocator@D@2@XZ PROC NEAR ; _STL::basic_string<char,_STL::char_traits<char>,_STL::allocator<char> >::get_allocator, COMDAT
; _this$ = ecx

; 216  :     return _STLP_CONVERT_ALLOCATOR((const allocator_type&)this->_M_end_of_storage, _CharT);

  00000	8b 44 24 04	 mov	 eax, DWORD PTR ___$ReturnUdt$[esp-4]

; 217  :   }

  00004	c2 04 00	 ret	 4
?get_allocator@?$basic_string@DV?$char_traits@D@_STL@@V?$allocator@D@2@@_STL@@QBE?AV?$allocator@D@2@XZ ENDP ; _STL::basic_string<char,_STL::char_traits<char>,_STL::allocator<char> >::get_allocator
_TEXT	ENDS
PUBLIC	?_M_terminate_string@?$basic_string@DV?$char_traits@D@_STL@@V?$allocator@D@2@@_STL@@AAEXXZ ; _STL::basic_string<char,_STL::char_traits<char>,_STL::allocator<char> >::_M_terminate_string
; Function compile flags: /Ogsy
;	COMDAT ?_M_terminate_string@?$basic_string@DV?$char_traits@D@_STL@@V?$allocator@D@2@@_STL@@AAEXXZ
_TEXT	SEGMENT
?_M_terminate_string@?$basic_string@DV?$char_traits@D@_STL@@V?$allocator@D@2@@_STL@@AAEXXZ PROC NEAR ; _STL::basic_string<char,_STL::char_traits<char>,_STL::allocator<char> >::_M_terminate_string, COMDAT
; _this$ = ecx

; 355  :     _M_terminate_string_aux(_Char_Is_Integral());

  00000	8b 41 04	 mov	 eax, DWORD PTR [ecx+4]
  00003	c6 00 00	 mov	 BYTE PTR [eax], 0

; 356  :   }

  00006	c3		 ret	 0
?_M_terminate_string@?$basic_string@DV?$char_traits@D@_STL@@V?$allocator@D@2@@_STL@@AAEXXZ ENDP ; _STL::basic_string<char,_STL::char_traits<char>,_STL::allocator<char> >::_M_terminate_string
_TEXT	ENDS
PUBLIC	?allocate@?$allocator@D@_STL@@QAEPADIPBX@Z	; _STL::allocator<char>::allocate
; Function compile flags: /Ogsy
; File c:\stlport-4.6.1\stlport\stl\_alloc.h
;	COMDAT ?allocate@?$allocator@D@_STL@@QAEPADIPBX@Z
_TEXT	SEGMENT
___n$ = 8						; size = 4
___formal$ = 12						; size = 4
?allocate@?$allocator@D@_STL@@QAEPADIPBX@Z PROC NEAR	; _STL::allocator<char>::allocate, COMDAT
; _this$ = ecx

; 355  :     return __n != 0 ? __REINTERPRET_CAST(value_type*,__sgi_alloc::allocate(__n * sizeof(value_type))) : 0;

  00000	33 c0		 xor	 eax, eax
  00002	39 44 24 04	 cmp	 DWORD PTR ___n$[esp-4], eax
  00006	74 0a		 je	 SHORT $L102687
  00008	ff 74 24 04	 push	 DWORD PTR ___n$[esp-4]
  0000c	e8 00 00 00 00	 call	 ?allocate@?$__node_alloc@$00$0A@@_STL@@SAPAXI@Z ; _STL::__node_alloc<1,0>::allocate
  00011	59		 pop	 ecx
$L102687:

; 356  :   }

  00012	c2 08 00	 ret	 8
?allocate@?$allocator@D@_STL@@QAEPADIPBX@Z ENDP		; _STL::allocator<char>::allocate
_TEXT	ENDS
PUBLIC	??0?$_STLP_alloc_proxy@PADDV?$allocator@D@_STL@@@_STL@@QAE@ABV?$allocator@D@1@PAD@Z ; _STL::_STLP_alloc_proxy<char *,char,_STL::allocator<char> >::_STLP_alloc_proxy<char *,char,_STL::allocator<char> >
; Function compile flags: /Ogsy
;	COMDAT ??0?$_STLP_alloc_proxy@PADDV?$allocator@D@_STL@@@_STL@@QAE@ABV?$allocator@D@1@PAD@Z
_TEXT	SEGMENT
___a$ = 8						; size = 4
___p$ = 12						; size = 4
??0?$_STLP_alloc_proxy@PADDV?$allocator@D@_STL@@@_STL@@QAE@ABV?$allocator@D@1@PAD@Z PROC NEAR ; _STL::_STLP_alloc_proxy<char *,char,_STL::allocator<char> >::_STLP_alloc_proxy<char *,char,_STL::allocator<char> >, COMDAT
; _this$ = ecx

; 487  :   inline _STLP_alloc_proxy(const _MaybeReboundAlloc& __a, _Value __p) : _MaybeReboundAlloc(__a), _M_data(__p) {}

  00000	8b c1		 mov	 eax, ecx
  00002	8b 4c 24 08	 mov	 ecx, DWORD PTR ___p$[esp-4]
  00006	89 08		 mov	 DWORD PTR [eax], ecx
  00008	c2 08 00	 ret	 8
??0?$_STLP_alloc_proxy@PADDV?$allocator@D@_STL@@@_STL@@QAE@ABV?$allocator@D@1@PAD@Z ENDP ; _STL::_STLP_alloc_proxy<char *,char,_STL::allocator<char> >::_STLP_alloc_proxy<char *,char,_STL::allocator<char> >
_TEXT	ENDS
PUBLIC	?key_comp@?$map@KV?$basic_string@DV?$char_traits@D@_STL@@V?$allocator@D@2@@_STL@@U?$less@K@2@V?$allocator@U?$pair@$$CBKV?$basic_string@DV?$char_traits@D@_STL@@V?$allocator@D@2@@_STL@@@_STL@@@2@@_STL@@QBE?AU?$less@K@2@XZ ; _STL::map<unsigned long,_STL::basic_string<char,_STL::char_traits<char>,_STL::allocator<char> >,_STL::less<unsigned long>,_STL::allocator<_STL::pair<unsigned long const ,_STL::basic_string<char,_STL::char_traits<char>,_STL::allocator<char> > > > >::key_comp
; Function compile flags: /Ogsy
; File c:\stlport-4.6.1\stlport\stl\_map.h
;	COMDAT ?key_comp@?$map@KV?$basic_string@DV?$char_traits@D@_STL@@V?$allocator@D@2@@_STL@@U?$less@K@2@V?$allocator@U?$pair@$$CBKV?$basic_string@DV?$char_traits@D@_STL@@V?$allocator@D@2@@_STL@@@_STL@@@2@@_STL@@QBE?AU?$less@K@2@XZ
_TEXT	SEGMENT
___$ReturnUdt$ = 8					; size = 4
?key_comp@?$map@KV?$basic_string@DV?$char_traits@D@_STL@@V?$allocator@D@2@@_STL@@U?$less@K@2@V?$allocator@U?$pair@$$CBKV?$basic_string@DV?$char_traits@D@_STL@@V?$allocator@D@2@@_STL@@@_STL@@@2@@_STL@@QBE?AU?$less@K@2@XZ PROC NEAR ; _STL::map<unsigned long,_STL::basic_string<char,_STL::char_traits<char>,_STL::allocator<char> >,_STL::less<unsigned long>,_STL::allocator<_STL::pair<unsigned long const ,_STL::basic_string<char,_STL::char_traits<char>,_STL::allocator<char> > > > >::key_comp, COMDAT
; _this$ = ecx

; 143  :   key_compare key_comp() const { return _M_t.key_comp(); }

  00000	8b 44 24 04	 mov	 eax, DWORD PTR ___$ReturnUdt$[esp-4]
  00004	c2 04 00	 ret	 4
?key_comp@?$map@KV?$basic_string@DV?$char_traits@D@_STL@@V?$allocator@D@2@@_STL@@U?$less@K@2@V?$allocator@U?$pair@$$CBKV?$basic_string@DV?$char_traits@D@_STL@@V?$allocator@D@2@@_STL@@@_STL@@@2@@_STL@@QBE?AU?$less@K@2@XZ ENDP ; _STL::map<unsigned long,_STL::basic_string<char,_STL::char_traits<char>,_STL::allocator<char> >,_STL::less<unsigned long>,_STL::allocator<_STL::pair<unsigned long const ,_STL::basic_string<char,_STL::char_traits<char>,_STL::allocator<char> > > > >::key_comp
_TEXT	ENDS
PUBLIC	?erase@?$basic_string@DV?$char_traits@D@_STL@@V?$allocator@D@2@@_STL@@QAEPADPAD0@Z ; _STL::basic_string<char,_STL::char_traits<char>,_STL::allocator<char> >::erase
; Function compile flags: /Ogsy
; File c:\stlport-4.6.1\stlport\stl\_string.h
;	COMDAT ?erase@?$basic_string@DV?$char_traits@D@_STL@@V?$allocator@D@2@@_STL@@QAEPADPAD0@Z
_TEXT	SEGMENT
___first$ = 8						; size = 4
___last$ = 12						; size = 4
?erase@?$basic_string@DV?$char_traits@D@_STL@@V?$allocator@D@2@@_STL@@QAEPADPAD0@Z PROC NEAR ; _STL::basic_string<char,_STL::char_traits<char>,_STL::allocator<char> >::erase, COMDAT
; _this$ = ecx

; 862  :   iterator erase(iterator __first, iterator __last) {

  00000	53		 push	 ebx

; 863  :     if (__first != __last) {

  00001	8b 5c 24 08	 mov	 ebx, DWORD PTR ___first$[esp]
  00005	56		 push	 esi
  00006	57		 push	 edi
  00007	8b 7c 24 14	 mov	 edi, DWORD PTR ___last$[esp+8]
  0000b	3b df		 cmp	 ebx, edi
  0000d	8b f1		 mov	 esi, ecx
  0000f	74 1a		 je	 SHORT $L101467

; 864  :                                 // The move includes the terminating _CharT().
; 865  :       traits_type::move(__first, __last, (this->_M_finish - __last) + 1);

  00011	8b 46 04	 mov	 eax, DWORD PTR [esi+4]
  00014	2b c7		 sub	 eax, edi
  00016	40		 inc	 eax
  00017	74 0b		 je	 SHORT $L102706
  00019	50		 push	 eax
  0001a	57		 push	 edi
  0001b	53		 push	 ebx
  0001c	e8 00 00 00 00	 call	 _memmove
  00021	83 c4 0c	 add	 esp, 12			; 0000000cH
$L102706:

; 866  :       pointer __new_finish = this->_M_finish - (__last - __first);

  00024	8b c3		 mov	 eax, ebx
  00026	2b c7		 sub	 eax, edi

; 867  :       _STLP_STD::_Destroy(__new_finish + 1, this->_M_finish + 1);
; 868  :       this->_M_finish = __new_finish;

  00028	01 46 04	 add	 DWORD PTR [esi+4], eax
$L101467:
  0002b	5f		 pop	 edi
  0002c	5e		 pop	 esi

; 869  :     }
; 870  :     return __first;

  0002d	8b c3		 mov	 eax, ebx
  0002f	5b		 pop	 ebx

; 871  :   }

  00030	c2 08 00	 ret	 8
?erase@?$basic_string@DV?$char_traits@D@_STL@@V?$allocator@D@2@@_STL@@QAEPADPAD0@Z ENDP ; _STL::basic_string<char,_STL::char_traits<char>,_STL::allocator<char> >::erase
_TEXT	ENDS
PUBLIC	?end@?$_Rb_tree@KU?$pair@$$CBKV?$basic_string@DV?$char_traits@D@_STL@@V?$allocator@D@2@@_STL@@@_STL@@U?$_Select1st@U?$pair@$$CBKV?$basic_string@DV?$char_traits@D@_STL@@V?$allocator@D@2@@_STL@@@_STL@@@2@U?$less@K@2@V?$allocator@U?$pair@$$CBKV?$basic_string@DV?$char_traits@D@_STL@@V?$allocator@D@2@@_STL@@@_STL@@@2@@_STL@@QAE?AU?$_Rb_tree_iterator@U?$pair@$$CBKV?$basic_string@DV?$char_traits@D@_STL@@V?$allocator@D@2@@_STL@@@_STL@@U?$_Nonconst_traits@U?$pair@$$CBKV?$basic_string@DV?$char_traits@D@_STL@@V?$allocator@D@2@@_STL@@@_STL@@@2@@2@XZ ; _STL::_Rb_tree<unsigned long,_STL::pair<unsigned long const ,_STL::basic_string<char,_STL::char_traits<char>,_STL::allocator<char> > >,_STL::_Select1st<_STL::pair<unsigned long const ,_STL::basic_string<char,_STL::char_traits<char>,_STL::allocator<char> > > >,_STL::less<unsigned long>,_STL::allocator<_STL::pair<unsigned long const ,_STL::basic_string<char,_STL::char_traits<char>,_STL::allocator<char> > > > >::end
; Function compile flags: /Ogsy
; File c:\stlport-4.6.1\stlport\stl\_tree.h
;	COMDAT ?end@?$_Rb_tree@KU?$pair@$$CBKV?$basic_string@DV?$char_traits@D@_STL@@V?$allocator@D@2@@_STL@@@_STL@@U?$_Select1st@U?$pair@$$CBKV?$basic_string@DV?$char_traits@D@_STL@@V?$allocator@D@2@@_STL@@@_STL@@@2@U?$less@K@2@V?$allocator@U?$pair@$$CBKV?$basic_string@DV?$char_traits@D@_STL@@V?$allocator@D@2@@_STL@@@_STL@@@2@@_STL@@QAE?AU?$_Rb_tree_iterator@U?$pair@$$CBKV?$basic_string@DV?$char_traits@D@_STL@@V?$allocator@D@2@@_STL@@@_STL@@U?$_Nonconst_traits@U?$pair@$$CBKV?$basic_string@DV?$char_traits@D@_STL@@V?$allocator@D@2@@_STL@@@_STL@@@2@@2@XZ
_TEXT	SEGMENT
___$ReturnUdt$ = 8					; size = 4
?end@?$_Rb_tree@KU?$pair@$$CBKV?$basic_string@DV?$char_traits@D@_STL@@V?$allocator@D@2@@_STL@@@_STL@@U?$_Select1st@U?$pair@$$CBKV?$basic_string@DV?$char_traits@D@_STL@@V?$allocator@D@2@@_STL@@@_STL@@@2@U?$less@K@2@V?$allocator@U?$pair@$$CBKV?$basic_string@DV?$char_traits@D@_STL@@V?$allocator@D@2@@_STL@@@_STL@@@2@@_STL@@QAE?AU?$_Rb_tree_iterator@U?$pair@$$CBKV?$basic_string@DV?$char_traits@D@_STL@@V?$allocator@D@2@@_STL@@@_STL@@U?$_Nonconst_traits@U?$pair@$$CBKV?$basic_string@DV?$char_traits@D@_STL@@V?$allocator@D@2@@_STL@@@_STL@@@2@@2@XZ PROC NEAR ; _STL::_Rb_tree<unsigned long,_STL::pair<unsigned long const ,_STL::basic_string<char,_STL::char_traits<char>,_STL::allocator<char> > >,_STL::_Select1st<_STL::pair<unsigned long const ,_STL::basic_string<char,_STL::char_traits<char>,_STL::allocator<char> > > >,_STL::less<unsigned long>,_STL::allocator<_STL::pair<unsigned long const ,_STL::basic_string<char,_STL::char_traits<char>,_STL::allocator<char> > > > >::end, COMDAT
; _this$ = ecx

; 359  :   iterator end() { return iterator(this->_M_header._M_data); }

  00000	8b 09		 mov	 ecx, DWORD PTR [ecx]
  00002	8b 44 24 04	 mov	 eax, DWORD PTR ___$ReturnUdt$[esp-4]
  00006	89 08		 mov	 DWORD PTR [eax], ecx
  00008	c2 04 00	 ret	 4
?end@?$_Rb_tree@KU?$pair@$$CBKV?$basic_string@DV?$char_traits@D@_STL@@V?$allocator@D@2@@_STL@@@_STL@@U?$_Select1st@U?$pair@$$CBKV?$basic_string@DV?$char_traits@D@_STL@@V?$allocator@D@2@@_STL@@@_STL@@@2@U?$less@K@2@V?$allocator@U?$pair@$$CBKV?$basic_string@DV?$char_traits@D@_STL@@V?$allocator@D@2@@_STL@@@_STL@@@2@@_STL@@QAE?AU?$_Rb_tree_iterator@U?$pair@$$CBKV?$basic_string@DV?$char_traits@D@_STL@@V?$allocator@D@2@@_STL@@@_STL@@U?$_Nonconst_traits@U?$pair@$$CBKV?$basic_string@DV?$char_traits@D@_STL@@V?$allocator@D@2@@_STL@@@_STL@@@2@@2@XZ ENDP ; _STL::_Rb_tree<unsigned long,_STL::pair<unsigned long const ,_STL::basic_string<char,_STL::char_traits<char>,_STL::allocator<char> > >,_STL::_Select1st<_STL::pair<unsigned long const ,_STL::basic_string<char,_STL::char_traits<char>,_STL::allocator<char> > > >,_STL::less<unsigned long>,_STL::allocator<_STL::pair<unsigned long const ,_STL::basic_string<char,_STL::char_traits<char>,_STL::allocator<char> > > > >::end
_TEXT	ENDS
PUBLIC	?_S_key@?$_Rb_tree@KU?$pair@$$CBKV?$basic_string@DV?$char_traits@D@_STL@@V?$allocator@D@2@@_STL@@@_STL@@U?$_Select1st@U?$pair@$$CBKV?$basic_string@DV?$char_traits@D@_STL@@V?$allocator@D@2@@_STL@@@_STL@@@2@U?$less@K@2@V?$allocator@U?$pair@$$CBKV?$basic_string@DV?$char_traits@D@_STL@@V?$allocator@D@2@@_STL@@@_STL@@@2@@_STL@@KAABKPAU?$_Rb_tree_node@U?$pair@$$CBKV?$basic_string@DV?$char_traits@D@_STL@@V?$allocator@D@2@@_STL@@@_STL@@@2@@Z ; _STL::_Rb_tree<unsigned long,_STL::pair<unsigned long const ,_STL::basic_string<char,_STL::char_traits<char>,_STL::allocator<char> > >,_STL::_Select1st<_STL::pair<unsigned long const ,_STL::basic_string<char,_STL::char_traits<char>,_STL::allocator<char> > > >,_STL::less<unsigned long>,_STL::allocator<_STL::pair<unsigned long const ,_STL::basic_string<char,_STL::char_traits<char>,_STL::allocator<char> > > > >::_S_key
; Function compile flags: /Ogsy
;	COMDAT ?_S_key@?$_Rb_tree@KU?$pair@$$CBKV?$basic_string@DV?$char_traits@D@_STL@@V?$allocator@D@2@@_STL@@@_STL@@U?$_Select1st@U?$pair@$$CBKV?$basic_string@DV?$char_traits@D@_STL@@V?$allocator@D@2@@_STL@@@_STL@@@2@U?$less@K@2@V?$allocator@U?$pair@$$CBKV?$basic_string@DV?$char_traits@D@_STL@@V?$allocator@D@2@@_STL@@@_STL@@@2@@_STL@@KAABKPAU?$_Rb_tree_node@U?$pair@$$CBKV?$basic_string@DV?$char_traits@D@_STL@@V?$allocator@D@2@@_STL@@@_STL@@@2@@Z
_TEXT	SEGMENT
___x$ = 8						; size = 4
?_S_key@?$_Rb_tree@KU?$pair@$$CBKV?$basic_string@DV?$char_traits@D@_STL@@V?$allocator@D@2@@_STL@@@_STL@@U?$_Select1st@U?$pair@$$CBKV?$basic_string@DV?$char_traits@D@_STL@@V?$allocator@D@2@@_STL@@@_STL@@@2@U?$less@K@2@V?$allocator@U?$pair@$$CBKV?$basic_string@DV?$char_traits@D@_STL@@V?$allocator@D@2@@_STL@@@_STL@@@2@@_STL@@KAABKPAU?$_Rb_tree_node@U?$pair@$$CBKV?$basic_string@DV?$char_traits@D@_STL@@V?$allocator@D@2@@_STL@@@_STL@@@2@@Z PROC NEAR ; _STL::_Rb_tree<unsigned long,_STL::pair<unsigned long const ,_STL::basic_string<char,_STL::char_traits<char>,_STL::allocator<char> > >,_STL::_Select1st<_STL::pair<unsigned long const ,_STL::basic_string<char,_STL::char_traits<char>,_STL::allocator<char> > > >,_STL::less<unsigned long>,_STL::allocator<_STL::pair<unsigned long const ,_STL::basic_string<char,_STL::char_traits<char>,_STL::allocator<char> > > > >::_S_key, COMDAT

; 280  :     { return _KeyOfValue()(_S_value(__x)); }

  00000	8b 44 24 04	 mov	 eax, DWORD PTR ___x$[esp-4]
  00004	83 c0 10	 add	 eax, 16			; 00000010H
  00007	c3		 ret	 0
?_S_key@?$_Rb_tree@KU?$pair@$$CBKV?$basic_string@DV?$char_traits@D@_STL@@V?$allocator@D@2@@_STL@@@_STL@@U?$_Select1st@U?$pair@$$CBKV?$basic_string@DV?$char_traits@D@_STL@@V?$allocator@D@2@@_STL@@@_STL@@@2@U?$less@K@2@V?$allocator@U?$pair@$$CBKV?$basic_string@DV?$char_traits@D@_STL@@V?$allocator@D@2@@_STL@@@_STL@@@2@@_STL@@KAABKPAU?$_Rb_tree_node@U?$pair@$$CBKV?$basic_string@DV?$char_traits@D@_STL@@V?$allocator@D@2@@_STL@@@_STL@@@2@@Z ENDP ; _STL::_Rb_tree<unsigned long,_STL::pair<unsigned long const ,_STL::basic_string<char,_STL::char_traits<char>,_STL::allocator<char> > >,_STL::_Select1st<_STL::pair<unsigned long const ,_STL::basic_string<char,_STL::char_traits<char>,_STL::allocator<char> > > >,_STL::less<unsigned long>,_STL::allocator<_STL::pair<unsigned long const ,_STL::basic_string<char,_STL::char_traits<char>,_STL::allocator<char> > > > >::_S_key
_TEXT	ENDS
PUBLIC	?allocate@?$allocator@U?$_Rb_tree_node@U?$pair@$$CBKV?$basic_string@DV?$char_traits@D@_STL@@V?$allocator@D@2@@_STL@@@_STL@@@_STL@@@_STL@@QAEPAU?$_Rb_tree_node@U?$pair@$$CBKV?$basic_string@DV?$char_traits@D@_STL@@V?$allocator@D@2@@_STL@@@_STL@@@2@IPBX@Z ; _STL::allocator<_STL::_Rb_tree_node<_STL::pair<unsigned long const ,_STL::basic_string<char,_STL::char_traits<char>,_STL::allocator<char> > > > >::allocate
; Function compile flags: /Ogsy
; File c:\stlport-4.6.1\stlport\stl\_alloc.h
;	COMDAT ?allocate@?$allocator@U?$_Rb_tree_node@U?$pair@$$CBKV?$basic_string@DV?$char_traits@D@_STL@@V?$allocator@D@2@@_STL@@@_STL@@@_STL@@@_STL@@QAEPAU?$_Rb_tree_node@U?$pair@$$CBKV?$basic_string@DV?$char_traits@D@_STL@@V?$allocator@D@2@@_STL@@@_STL@@@2@IPBX@Z
_TEXT	SEGMENT
___n$ = 8						; size = 4
___formal$ = 12						; size = 4
?allocate@?$allocator@U?$_Rb_tree_node@U?$pair@$$CBKV?$basic_string@DV?$char_traits@D@_STL@@V?$allocator@D@2@@_STL@@@_STL@@@_STL@@@_STL@@QAEPAU?$_Rb_tree_node@U?$pair@$$CBKV?$basic_string@DV?$char_traits@D@_STL@@V?$allocator@D@2@@_STL@@@_STL@@@2@IPBX@Z PROC NEAR ; _STL::allocator<_STL::_Rb_tree_node<_STL::pair<unsigned long const ,_STL::basic_string<char,_STL::char_traits<char>,_STL::allocator<char> > > > >::allocate, COMDAT
; _this$ = ecx

; 355  :     return __n != 0 ? __REINTERPRET_CAST(value_type*,__sgi_alloc::allocate(__n * sizeof(value_type))) : 0;

  00000	8b 44 24 04	 mov	 eax, DWORD PTR ___n$[esp-4]
  00004	85 c0		 test	 eax, eax
  00006	74 0c		 je	 SHORT $L102731
  00008	c1 e0 05	 shl	 eax, 5
  0000b	50		 push	 eax
  0000c	e8 00 00 00 00	 call	 ?allocate@?$__node_alloc@$00$0A@@_STL@@SAPAXI@Z ; _STL::__node_alloc<1,0>::allocate
  00011	59		 pop	 ecx
  00012	eb 02		 jmp	 SHORT $L102732
$L102731:
  00014	33 c0		 xor	 eax, eax
$L102732:

; 356  :   }

  00016	c2 08 00	 ret	 8
?allocate@?$allocator@U?$_Rb_tree_node@U?$pair@$$CBKV?$basic_string@DV?$char_traits@D@_STL@@V?$allocator@D@2@@_STL@@@_STL@@@_STL@@@_STL@@QAEPAU?$_Rb_tree_node@U?$pair@$$CBKV?$basic_string@DV?$char_traits@D@_STL@@V?$allocator@D@2@@_STL@@@_STL@@@2@IPBX@Z ENDP ; _STL::allocator<_STL::_Rb_tree_node<_STL::pair<unsigned long const ,_STL::basic_string<char,_STL::char_traits<char>,_STL::allocator<char> > > > >::allocate
_TEXT	ENDS
PUBLIC	?deallocate@?$allocator@U?$_Rb_tree_node@U?$pair@$$CBKV?$basic_string@DV?$char_traits@D@_STL@@V?$allocator@D@2@@_STL@@@_STL@@@_STL@@@_STL@@QAEXPAU?$_Rb_tree_node@U?$pair@$$CBKV?$basic_string@DV?$char_traits@D@_STL@@V?$allocator@D@2@@_STL@@@_STL@@@2@I@Z ; _STL::allocator<_STL::_Rb_tree_node<_STL::pair<unsigned long const ,_STL::basic_string<char,_STL::char_traits<char>,_STL::allocator<char> > > > >::deallocate
; Function compile flags: /Ogsy
;	COMDAT ?deallocate@?$allocator@U?$_Rb_tree_node@U?$pair@$$CBKV?$basic_string@DV?$char_traits@D@_STL@@V?$allocator@D@2@@_STL@@@_STL@@@_STL@@@_STL@@QAEXPAU?$_Rb_tree_node@U?$pair@$$CBKV?$basic_string@DV?$char_traits@D@_STL@@V?$allocator@D@2@@_STL@@@_STL@@@2@I@Z
_TEXT	SEGMENT
___p$ = 8						; size = 4
___n$ = 12						; size = 4
?deallocate@?$allocator@U?$_Rb_tree_node@U?$pair@$$CBKV?$basic_string@DV?$char_traits@D@_STL@@V?$allocator@D@2@@_STL@@@_STL@@@_STL@@@_STL@@QAEXPAU?$_Rb_tree_node@U?$pair@$$CBKV?$basic_string@DV?$char_traits@D@_STL@@V?$allocator@D@2@@_STL@@@_STL@@@2@I@Z PROC NEAR ; _STL::allocator<_STL::_Rb_tree_node<_STL::pair<unsigned long const ,_STL::basic_string<char,_STL::char_traits<char>,_STL::allocator<char> > > > >::deallocate, COMDAT
; _this$ = ecx

; 359  :     _STLP_ASSERT( (__p == 0) == (__n == 0) )
; 360  :       if (__p != 0) __sgi_alloc::deallocate((void*)__p, __n * sizeof(value_type));

  00000	83 7c 24 04 00	 cmp	 DWORD PTR ___p$[esp-4], 0
  00005	74 13		 je	 SHORT $L102007
  00007	8b 44 24 08	 mov	 eax, DWORD PTR ___n$[esp-4]
  0000b	c1 e0 05	 shl	 eax, 5
  0000e	50		 push	 eax
  0000f	ff 74 24 08	 push	 DWORD PTR ___p$[esp]
  00013	e8 00 00 00 00	 call	 ?deallocate@?$__node_alloc@$00$0A@@_STL@@SAXPAXI@Z ; _STL::__node_alloc<1,0>::deallocate
  00018	59		 pop	 ecx
  00019	59		 pop	 ecx
$L102007:

; 361  :   }

  0001a	c2 08 00	 ret	 8
?deallocate@?$allocator@U?$_Rb_tree_node@U?$pair@$$CBKV?$basic_string@DV?$char_traits@D@_STL@@V?$allocator@D@2@@_STL@@@_STL@@@_STL@@@_STL@@QAEXPAU?$_Rb_tree_node@U?$pair@$$CBKV?$basic_string@DV?$char_traits@D@_STL@@V?$allocator@D@2@@_STL@@@_STL@@@2@I@Z ENDP ; _STL::allocator<_STL::_Rb_tree_node<_STL::pair<unsigned long const ,_STL::basic_string<char,_STL::char_traits<char>,_STL::allocator<char> > > > >::deallocate
_TEXT	ENDS
PUBLIC	??$distance@PBD@_STL@@YAHABQBD0@Z		; _STL::distance<char const *>
; Function compile flags: /Ogsy
; File c:\stlport-4.6.1\stlport\stl\_iterator_base.h
;	COMDAT ??$distance@PBD@_STL@@YAHABQBD0@Z
_TEXT	SEGMENT
___first$ = 8						; size = 4
___last$ = 12						; size = 4
??$distance@PBD@_STL@@YAHABQBD0@Z PROC NEAR		; _STL::distance<char const *>, COMDAT

; 369  :   return __distance(__first, __last, _STLP_ITERATOR_CATEGORY(__first, _InputIterator));  

  00000	8b 44 24 08	 mov	 eax, DWORD PTR ___last$[esp-4]
  00004	8b 00		 mov	 eax, DWORD PTR [eax]
  00006	8b 4c 24 04	 mov	 ecx, DWORD PTR ___first$[esp-4]
  0000a	2b 01		 sub	 eax, DWORD PTR [ecx]

; 370  : }

  0000c	c3		 ret	 0
??$distance@PBD@_STL@@YAHABQBD0@Z ENDP			; _STL::distance<char const *>
_TEXT	ENDS
PUBLIC	?_M_allocate_block@?$_String_base@DV?$allocator@D@_STL@@@_STL@@QAEXI@Z ; _STL::_String_base<char,_STL::allocator<char> >::_M_allocate_block
; Function compile flags: /Ogsy
; File c:\stlport-4.6.1\stlport\stl\_string.c
;	COMDAT ?_M_allocate_block@?$_String_base@DV?$allocator@D@_STL@@@_STL@@QAEXI@Z
_TEXT	SEGMENT
___n$ = 8						; size = 4
?_M_allocate_block@?$_String_base@DV?$allocator@D@_STL@@@_STL@@QAEXI@Z PROC NEAR ; _STL::_String_base<char,_STL::allocator<char> >::_M_allocate_block, COMDAT
; _this$ = ecx

; 530  : template <class _Tp, class _Alloc> void _String_base<_Tp, _Alloc>::_M_allocate_block(size_t __n) {  

  00000	56		 push	 esi
  00001	57		 push	 edi

; 531  :   if ((__n <= (max_size()+1)) && (__n>0)){ 

  00002	8b 7c 24 0c	 mov	 edi, DWORD PTR ___n$[esp+4]
  00006	83 ff ff	 cmp	 edi, -1
  00009	8b f1		 mov	 esi, ecx
  0000b	77 17		 ja	 SHORT $L102030
  0000d	85 ff		 test	 edi, edi
  0000f	76 13		 jbe	 SHORT $L102030

; 532  :     _M_start  = _M_end_of_storage.allocate(__n); 

  00011	57		 push	 edi
  00012	e8 00 00 00 00	 call	 ?allocate@?$__node_alloc@$00$0A@@_STL@@SAPAXI@Z ; _STL::__node_alloc<1,0>::allocate
  00017	89 06		 mov	 DWORD PTR [esi], eax

; 533  :     _M_finish = _M_start; 

  00019	89 46 04	 mov	 DWORD PTR [esi+4], eax

; 534  :     _M_end_of_storage._M_data = _M_start + __n; 

  0001c	03 c7		 add	 eax, edi
  0001e	59		 pop	 ecx
  0001f	89 46 08	 mov	 DWORD PTR [esi+8], eax

; 535  :   } 
; 536  :     else 

  00022	eb 07		 jmp	 SHORT $L102031
$L102030:

; 537  :       _M_throw_length_error(); 

  00024	8b ce		 mov	 ecx, esi
  00026	e8 00 00 00 00	 call	 ?_M_throw_length_error@?$_String_base@DV?$allocator@D@_STL@@@_STL@@QBEXXZ ; _STL::_String_base<char,_STL::allocator<char> >::_M_throw_length_error
$L102031:
  0002b	5f		 pop	 edi
  0002c	5e		 pop	 esi

; 538  : } 

  0002d	c2 04 00	 ret	 4
?_M_allocate_block@?$_String_base@DV?$allocator@D@_STL@@@_STL@@QAEXI@Z ENDP ; _STL::_String_base<char,_STL::allocator<char> >::_M_allocate_block
_TEXT	ENDS
PUBLIC	??$distance@PAD@_STL@@YAHABQAD0@Z		; _STL::distance<char *>
; Function compile flags: /Ogsy
; File c:\stlport-4.6.1\stlport\stl\_iterator_base.h
;	COMDAT ??$distance@PAD@_STL@@YAHABQAD0@Z
_TEXT	SEGMENT
___first$ = 8						; size = 4
___last$ = 12						; size = 4
??$distance@PAD@_STL@@YAHABQAD0@Z PROC NEAR		; _STL::distance<char *>, COMDAT

; 369  :   return __distance(__first, __last, _STLP_ITERATOR_CATEGORY(__first, _InputIterator));  

  00000	8b 44 24 08	 mov	 eax, DWORD PTR ___last$[esp-4]
  00004	8b 00		 mov	 eax, DWORD PTR [eax]
  00006	8b 4c 24 04	 mov	 ecx, DWORD PTR ___first$[esp-4]
  0000a	2b 01		 sub	 eax, DWORD PTR [ecx]

; 370  : }

  0000c	c3		 ret	 0
??$distance@PAD@_STL@@YAHABQAD0@Z ENDP			; _STL::distance<char *>
_TEXT	ENDS
PUBLIC	?_M_construct_null@?$basic_string@DV?$char_traits@D@_STL@@V?$allocator@D@2@@_STL@@AAEXPAD@Z ; _STL::basic_string<char,_STL::char_traits<char>,_STL::allocator<char> >::_M_construct_null
; Function compile flags: /Ogsy
; File c:\stlport-4.6.1\stlport\stl\_string.h
;	COMDAT ?_M_construct_null@?$basic_string@DV?$char_traits@D@_STL@@V?$allocator@D@2@@_STL@@AAEXPAD@Z
_TEXT	SEGMENT
___p$ = 8						; size = 4
?_M_construct_null@?$basic_string@DV?$char_traits@D@_STL@@V?$allocator@D@2@@_STL@@AAEXPAD@Z PROC NEAR ; _STL::basic_string<char,_STL::char_traits<char>,_STL::allocator<char> >::_M_construct_null, COMDAT
; _this$ = ecx

; 336  :     _M_construct_null_aux(__p, _Char_Is_Integral());

  00000	8b 44 24 04	 mov	 eax, DWORD PTR ___p$[esp-4]
  00004	c6 00 00	 mov	 BYTE PTR [eax], 0

; 337  :   }

  00007	c2 04 00	 ret	 4
?_M_construct_null@?$basic_string@DV?$char_traits@D@_STL@@V?$allocator@D@2@@_STL@@AAEXPAD@Z ENDP ; _STL::basic_string<char,_STL::char_traits<char>,_STL::allocator<char> >::_M_construct_null
_TEXT	ENDS
PUBLIC	?max_size@?$basic_string@DV?$char_traits@D@_STL@@V?$allocator@D@2@@_STL@@QBEIXZ ; _STL::basic_string<char,_STL::char_traits<char>,_STL::allocator<char> >::max_size
; Function compile flags: /Ogsy
;	COMDAT ?max_size@?$basic_string@DV?$char_traits@D@_STL@@V?$allocator@D@2@@_STL@@QBEIXZ
_TEXT	SEGMENT
?max_size@?$basic_string@DV?$char_traits@D@_STL@@V?$allocator@D@2@@_STL@@QBEIXZ PROC NEAR ; _STL::basic_string<char,_STL::char_traits<char>,_STL::allocator<char> >::max_size, COMDAT
; _this$ = ecx

; 434  :   size_t max_size() const { return _Base::max_size(); }

  00000	6a fe		 push	 -2			; fffffffeH
  00002	58		 pop	 eax
  00003	c3		 ret	 0
?max_size@?$basic_string@DV?$char_traits@D@_STL@@V?$allocator@D@2@@_STL@@QBEIXZ ENDP ; _STL::basic_string<char,_STL::char_traits<char>,_STL::allocator<char> >::max_size
_TEXT	ENDS
PUBLIC	??$__copy_aux@PADPAD@_STL@@YAPADPAD00ABU__true_type@0@@Z ; _STL::__copy_aux<char *,char *>
; Function compile flags: /Ogsy
; File c:\stlport-4.6.1\stlport\stl\_algobase.h
;	COMDAT ??$__copy_aux@PADPAD@_STL@@YAPADPAD00ABU__true_type@0@@Z
_TEXT	SEGMENT
___first$ = 8						; size = 4
___last$ = 12						; size = 4
___result$ = 16						; size = 4
___formal$ = 20						; size = 4
??$__copy_aux@PADPAD@_STL@@YAPADPAD00ABU__true_type@0@@Z PROC NEAR ; _STL::__copy_aux<char *,char *>, COMDAT

; 202  :   return __copy_ptrs(__first, __last, __result, 
; 203  :                      _IsOKToMemCpy(_STLP_VALUE_TYPE(__first, _InputIter), 
; 204  :                                    _STLP_VALUE_TYPE(__result, _OutputIter))._Ret());

  00000	ff 74 24 0c	 push	 DWORD PTR ___result$[esp-4]
  00004	ff 74 24 0c	 push	 DWORD PTR ___last$[esp]
  00008	ff 74 24 0c	 push	 DWORD PTR ___first$[esp+4]
  0000c	e8 00 00 00 00	 call	 ?__copy_trivial@_STL@@YAPAXPBX0PAX@Z ; _STL::__copy_trivial
  00011	83 c4 0c	 add	 esp, 12			; 0000000cH

; 205  : }

  00014	c3		 ret	 0
??$__copy_aux@PADPAD@_STL@@YAPADPAD00ABU__true_type@0@@Z ENDP ; _STL::__copy_aux<char *,char *>
_TEXT	ENDS
PUBLIC	?deallocate@?$allocator@D@_STL@@QAEXPADI@Z	; _STL::allocator<char>::deallocate
; Function compile flags: /Ogsy
; File c:\stlport-4.6.1\stlport\stl\_alloc.h
;	COMDAT ?deallocate@?$allocator@D@_STL@@QAEXPADI@Z
_TEXT	SEGMENT
___p$ = 8						; size = 4
___n$ = 12						; size = 4
?deallocate@?$allocator@D@_STL@@QAEXPADI@Z PROC NEAR	; _STL::allocator<char>::deallocate, COMDAT
; _this$ = ecx

; 359  :     _STLP_ASSERT( (__p == 0) == (__n == 0) )
; 360  :       if (__p != 0) __sgi_alloc::deallocate((void*)__p, __n * sizeof(value_type));

  00000	83 7c 24 04 00	 cmp	 DWORD PTR ___p$[esp-4], 0
  00005	74 0f		 je	 SHORT $L98663
  00007	ff 74 24 08	 push	 DWORD PTR ___n$[esp-4]
  0000b	ff 74 24 08	 push	 DWORD PTR ___p$[esp]
  0000f	e8 00 00 00 00	 call	 ?deallocate@?$__node_alloc@$00$0A@@_STL@@SAXPAXI@Z ; _STL::__node_alloc<1,0>::deallocate
  00014	59		 pop	 ecx
  00015	59		 pop	 ecx
$L98663:

; 361  :   }

  00016	c2 08 00	 ret	 8
?deallocate@?$allocator@D@_STL@@QAEXPADI@Z ENDP		; _STL::allocator<char>::deallocate
_TEXT	ENDS
PUBLIC	??0?$_String_base@DV?$allocator@D@_STL@@@_STL@@QAE@ABV?$allocator@D@1@@Z ; _STL::_String_base<char,_STL::allocator<char> >::_String_base<char,_STL::allocator<char> >
; Function compile flags: /Ogsy
; File c:\stlport-4.6.1\stlport\stl\_string.h
;	COMDAT ??0?$_String_base@DV?$allocator@D@_STL@@@_STL@@QAE@ABV?$allocator@D@1@@Z
_TEXT	SEGMENT
___a$ = 8						; size = 4
??0?$_String_base@DV?$allocator@D@_STL@@@_STL@@QAE@ABV?$allocator@D@1@@Z PROC NEAR ; _STL::_String_base<char,_STL::allocator<char> >::_String_base<char,_STL::allocator<char> >, COMDAT
; _this$ = ecx

; 129  :     : _M_start(0), _M_finish(0), _M_end_of_storage(__a, (_Tp*)0) {}

  00000	56		 push	 esi
  00001	33 c0		 xor	 eax, eax
  00003	8b f1		 mov	 esi, ecx
  00005	50		 push	 eax
  00006	ff 74 24 0c	 push	 DWORD PTR ___a$[esp+4]
  0000a	8d 4e 08	 lea	 ecx, DWORD PTR [esi+8]
  0000d	89 06		 mov	 DWORD PTR [esi], eax
  0000f	89 46 04	 mov	 DWORD PTR [esi+4], eax
  00012	e8 00 00 00 00	 call	 ??0?$_STLP_alloc_proxy@PADDV?$allocator@D@_STL@@@_STL@@QAE@ABV?$allocator@D@1@PAD@Z ; _STL::_STLP_alloc_proxy<char *,char,_STL::allocator<char> >::_STLP_alloc_proxy<char *,char,_STL::allocator<char> >
  00017	8b c6		 mov	 eax, esi
  00019	5e		 pop	 esi
  0001a	c2 04 00	 ret	 4
??0?$_String_base@DV?$allocator@D@_STL@@@_STL@@QAE@ABV?$allocator@D@1@@Z ENDP ; _STL::_String_base<char,_STL::allocator<char> >::_String_base<char,_STL::allocator<char> >
_TEXT	ENDS
PUBLIC	?end@?$map@KV?$basic_string@DV?$char_traits@D@_STL@@V?$allocator@D@2@@_STL@@U?$less@K@2@V?$allocator@U?$pair@$$CBKV?$basic_string@DV?$char_traits@D@_STL@@V?$allocator@D@2@@_STL@@@_STL@@@2@@_STL@@QAE?AU?$_Rb_tree_iterator@U?$pair@$$CBKV?$basic_string@DV?$char_traits@D@_STL@@V?$allocator@D@2@@_STL@@@_STL@@U?$_Nonconst_traits@U?$pair@$$CBKV?$basic_string@DV?$char_traits@D@_STL@@V?$allocator@D@2@@_STL@@@_STL@@@2@@2@XZ ; _STL::map<unsigned long,_STL::basic_string<char,_STL::char_traits<char>,_STL::allocator<char> >,_STL::less<unsigned long>,_STL::allocator<_STL::pair<unsigned long const ,_STL::basic_string<char,_STL::char_traits<char>,_STL::allocator<char> > > > >::end
; Function compile flags: /Ogsy
; File c:\stlport-4.6.1\stlport\stl\_map.h
;	COMDAT ?end@?$map@KV?$basic_string@DV?$char_traits@D@_STL@@V?$allocator@D@2@@_STL@@U?$less@K@2@V?$allocator@U?$pair@$$CBKV?$basic_string@DV?$char_traits@D@_STL@@V?$allocator@D@2@@_STL@@@_STL@@@2@@_STL@@QAE?AU?$_Rb_tree_iterator@U?$pair@$$CBKV?$basic_string@DV?$char_traits@D@_STL@@V?$allocator@D@2@@_STL@@@_STL@@U?$_Nonconst_traits@U?$pair@$$CBKV?$basic_string@DV?$char_traits@D@_STL@@V?$allocator@D@2@@_STL@@@_STL@@@2@@2@XZ
_TEXT	SEGMENT
___$ReturnUdt$ = 8					; size = 4
?end@?$map@KV?$basic_string@DV?$char_traits@D@_STL@@V?$allocator@D@2@@_STL@@U?$less@K@2@V?$allocator@U?$pair@$$CBKV?$basic_string@DV?$char_traits@D@_STL@@V?$allocator@D@2@@_STL@@@_STL@@@2@@_STL@@QAE?AU?$_Rb_tree_iterator@U?$pair@$$CBKV?$basic_string@DV?$char_traits@D@_STL@@V?$allocator@D@2@@_STL@@@_STL@@U?$_Nonconst_traits@U?$pair@$$CBKV?$basic_string@DV?$char_traits@D@_STL@@V?$allocator@D@2@@_STL@@@_STL@@@2@@2@XZ PROC NEAR ; _STL::map<unsigned long,_STL::basic_string<char,_STL::char_traits<char>,_STL::allocator<char> >,_STL::less<unsigned long>,_STL::allocator<_STL::pair<unsigned long const ,_STL::basic_string<char,_STL::char_traits<char>,_STL::allocator<char> > > > >::end, COMDAT
; _this$ = ecx

; 149  :   iterator end() { return _M_t.end(); }

  00000	8b 09		 mov	 ecx, DWORD PTR [ecx]
  00002	8b 44 24 04	 mov	 eax, DWORD PTR ___$ReturnUdt$[esp-4]
  00006	89 08		 mov	 DWORD PTR [eax], ecx
  00008	c2 04 00	 ret	 4
?end@?$map@KV?$basic_string@DV?$char_traits@D@_STL@@V?$allocator@D@2@@_STL@@U?$less@K@2@V?$allocator@U?$pair@$$CBKV?$basic_string@DV?$char_traits@D@_STL@@V?$allocator@D@2@@_STL@@@_STL@@@2@@_STL@@QAE?AU?$_Rb_tree_iterator@U?$pair@$$CBKV?$basic_string@DV?$char_traits@D@_STL@@V?$allocator@D@2@@_STL@@@_STL@@U?$_Nonconst_traits@U?$pair@$$CBKV?$basic_string@DV?$char_traits@D@_STL@@V?$allocator@D@2@@_STL@@@_STL@@@2@@2@XZ ENDP ; _STL::map<unsigned long,_STL::basic_string<char,_STL::char_traits<char>,_STL::allocator<char> >,_STL::less<unsigned long>,_STL::allocator<_STL::pair<unsigned long const ,_STL::basic_string<char,_STL::char_traits<char>,_STL::allocator<char> > > > >::end
_TEXT	ENDS
PUBLIC	?_M_lower_bound@?$_Rb_tree@KU?$pair@$$CBKV?$basic_string@DV?$char_traits@D@_STL@@V?$allocator@D@2@@_STL@@@_STL@@U?$_Select1st@U?$pair@$$CBKV?$basic_string@DV?$char_traits@D@_STL@@V?$allocator@D@2@@_STL@@@_STL@@@2@U?$less@K@2@V?$allocator@U?$pair@$$CBKV?$basic_string@DV?$char_traits@D@_STL@@V?$allocator@D@2@@_STL@@@_STL@@@2@@_STL@@ABEPAU?$_Rb_tree_node@U?$pair@$$CBKV?$basic_string@DV?$char_traits@D@_STL@@V?$allocator@D@2@@_STL@@@_STL@@@2@ABK@Z ; _STL::_Rb_tree<unsigned long,_STL::pair<unsigned long const ,_STL::basic_string<char,_STL::char_traits<char>,_STL::allocator<char> > >,_STL::_Select1st<_STL::pair<unsigned long const ,_STL::basic_string<char,_STL::char_traits<char>,_STL::allocator<char> > > >,_STL::less<unsigned long>,_STL::allocator<_STL::pair<unsigned long const ,_STL::basic_string<char,_STL::char_traits<char>,_STL::allocator<char> > > > >::_M_lower_bound
; Function compile flags: /Ogsy
; File c:\stlport-4.6.1\stlport\stl\_tree.h
;	COMDAT ?_M_lower_bound@?$_Rb_tree@KU?$pair@$$CBKV?$basic_string@DV?$char_traits@D@_STL@@V?$allocator@D@2@@_STL@@@_STL@@U?$_Select1st@U?$pair@$$CBKV?$basic_string@DV?$char_traits@D@_STL@@V?$allocator@D@2@@_STL@@@_STL@@@2@U?$less@K@2@V?$allocator@U?$pair@$$CBKV?$basic_string@DV?$char_traits@D@_STL@@V?$allocator@D@2@@_STL@@@_STL@@@2@@_STL@@ABEPAU?$_Rb_tree_node@U?$pair@$$CBKV?$basic_string@DV?$char_traits@D@_STL@@V?$allocator@D@2@@_STL@@@_STL@@@2@ABK@Z
_TEXT	SEGMENT
___k$ = 8						; size = 4
?_M_lower_bound@?$_Rb_tree@KU?$pair@$$CBKV?$basic_string@DV?$char_traits@D@_STL@@V?$allocator@D@2@@_STL@@@_STL@@U?$_Select1st@U?$pair@$$CBKV?$basic_string@DV?$char_traits@D@_STL@@V?$allocator@D@2@@_STL@@@_STL@@@2@U?$less@K@2@V?$allocator@U?$pair@$$CBKV?$basic_string@DV?$char_traits@D@_STL@@V?$allocator@D@2@@_STL@@@_STL@@@2@@_STL@@ABEPAU?$_Rb_tree_node@U?$pair@$$CBKV?$basic_string@DV?$char_traits@D@_STL@@V?$allocator@D@2@@_STL@@@_STL@@@2@ABK@Z PROC NEAR ; _STL::_Rb_tree<unsigned long,_STL::pair<unsigned long const ,_STL::basic_string<char,_STL::char_traits<char>,_STL::allocator<char> > >,_STL::_Select1st<_STL::pair<unsigned long const ,_STL::basic_string<char,_STL::char_traits<char>,_STL::allocator<char> > > >,_STL::less<unsigned long>,_STL::allocator<_STL::pair<unsigned long const ,_STL::basic_string<char,_STL::char_traits<char>,_STL::allocator<char> > > > >::_M_lower_bound, COMDAT
; _this$ = ecx

; 483  :     _Link_type __y = this->_M_header._M_data; /* Last node which is not less than __k. */

  00000	8b 01		 mov	 eax, DWORD PTR [ecx]

; 484  :     _Link_type __x = _M_root(); /* Current node. */

  00002	8b 48 04	 mov	 ecx, DWORD PTR [eax+4]

; 485  :     
; 486  :     while (__x != 0) 

  00005	85 c9		 test	 ecx, ecx
  00007	74 19		 je	 SHORT $L101489
  00009	8b 54 24 04	 mov	 edx, DWORD PTR ___k$[esp-4]
  0000d	8b 12		 mov	 edx, DWORD PTR [edx]
$L101488:

; 487  :       if (!_M_key_compare(_S_key(__x), __k))

  0000f	39 51 10	 cmp	 DWORD PTR [ecx+16], edx
  00012	72 07		 jb	 SHORT $L101490

; 488  : 	__y = __x, __x = _S_left(__x);

  00014	8b c1		 mov	 eax, ecx
  00016	8b 49 08	 mov	 ecx, DWORD PTR [ecx+8]

; 489  :       else

  00019	eb 03		 jmp	 SHORT $L101491
$L101490:

; 490  : 	__x = _S_right(__x);

  0001b	8b 49 0c	 mov	 ecx, DWORD PTR [ecx+12]
$L101491:

; 485  :     
; 486  :     while (__x != 0) 

  0001e	85 c9		 test	 ecx, ecx
  00020	75 ed		 jne	 SHORT $L101488
$L101489:

; 491  :     
; 492  :     return __y;
; 493  :   }

  00022	c2 04 00	 ret	 4
?_M_lower_bound@?$_Rb_tree@KU?$pair@$$CBKV?$basic_string@DV?$char_traits@D@_STL@@V?$allocator@D@2@@_STL@@@_STL@@U?$_Select1st@U?$pair@$$CBKV?$basic_string@DV?$char_traits@D@_STL@@V?$allocator@D@2@@_STL@@@_STL@@@2@U?$less@K@2@V?$allocator@U?$pair@$$CBKV?$basic_string@DV?$char_traits@D@_STL@@V?$allocator@D@2@@_STL@@@_STL@@@2@@_STL@@ABEPAU?$_Rb_tree_node@U?$pair@$$CBKV?$basic_string@DV?$char_traits@D@_STL@@V?$allocator@D@2@@_STL@@@_STL@@@2@ABK@Z ENDP ; _STL::_Rb_tree<unsigned long,_STL::pair<unsigned long const ,_STL::basic_string<char,_STL::char_traits<char>,_STL::allocator<char> > >,_STL::_Select1st<_STL::pair<unsigned long const ,_STL::basic_string<char,_STL::char_traits<char>,_STL::allocator<char> > > >,_STL::less<unsigned long>,_STL::allocator<_STL::pair<unsigned long const ,_STL::basic_string<char,_STL::char_traits<char>,_STL::allocator<char> > > > >::_M_lower_bound
_TEXT	ENDS
PUBLIC	??$__uninitialized_copy@PADPAD@_STL@@YAPADPAD00ABU__true_type@0@@Z ; _STL::__uninitialized_copy<char *,char *>
; Function compile flags: /Ogsy
; File c:\stlport-4.6.1\stlport\stl\_uninitialized.h
;	COMDAT ??$__uninitialized_copy@PADPAD@_STL@@YAPADPAD00ABU__true_type@0@@Z
_TEXT	SEGMENT
___first$ = 8						; size = 4
___last$ = 12						; size = 4
___result$ = 16						; size = 4
___formal$ = 20						; size = 4
??$__uninitialized_copy@PADPAD@_STL@@YAPADPAD00ABU__true_type@0@@Z PROC NEAR ; _STL::__uninitialized_copy<char *,char *>, COMDAT

; 55   :   return __copy_aux(__first, __last, __result, _BothPtrType< _InputIter, _ForwardIter> :: _Ret());

  00000	ff 74 24 0c	 push	 DWORD PTR ___result$[esp-4]
  00004	ff 74 24 0c	 push	 DWORD PTR ___last$[esp]
  00008	ff 74 24 0c	 push	 DWORD PTR ___first$[esp+4]
  0000c	e8 00 00 00 00	 call	 ?__copy_trivial@_STL@@YAPAXPBX0PAX@Z ; _STL::__copy_trivial
  00011	83 c4 0c	 add	 esp, 12			; 0000000cH

; 56   : }

  00014	c3		 ret	 0
??$__uninitialized_copy@PADPAD@_STL@@YAPADPAD00ABU__true_type@0@@Z ENDP ; _STL::__uninitialized_copy<char *,char *>
_TEXT	ENDS
PUBLIC	?_M_deallocate_block@?$_String_base@DV?$allocator@D@_STL@@@_STL@@QAEXXZ ; _STL::_String_base<char,_STL::allocator<char> >::_M_deallocate_block
; Function compile flags: /Ogsy
; File c:\stlport-4.6.1\stlport\stl\_string.h
;	COMDAT ?_M_deallocate_block@?$_String_base@DV?$allocator@D@_STL@@@_STL@@QAEXXZ
_TEXT	SEGMENT
?_M_deallocate_block@?$_String_base@DV?$allocator@D@_STL@@@_STL@@QAEXXZ PROC NEAR ; _STL::_String_base<char,_STL::allocator<char> >::_M_deallocate_block, COMDAT
; _this$ = ecx

; 124  :     { _M_end_of_storage.deallocate(_M_start, _M_end_of_storage._M_data - _M_start); }

  00000	8b c1		 mov	 eax, ecx
  00002	8d 48 08	 lea	 ecx, DWORD PTR [eax+8]
  00005	8b 00		 mov	 eax, DWORD PTR [eax]
  00007	8b 11		 mov	 edx, DWORD PTR [ecx]
  00009	2b d0		 sub	 edx, eax
  0000b	52		 push	 edx
  0000c	50		 push	 eax
  0000d	e8 00 00 00 00	 call	 ?deallocate@?$allocator@D@_STL@@QAEXPADI@Z ; _STL::allocator<char>::deallocate
  00012	c3		 ret	 0
?_M_deallocate_block@?$_String_base@DV?$allocator@D@_STL@@@_STL@@QAEXXZ ENDP ; _STL::_String_base<char,_STL::allocator<char> >::_M_deallocate_block
_TEXT	ENDS
PUBLIC	?lower_bound@?$_Rb_tree@KU?$pair@$$CBKV?$basic_string@DV?$char_traits@D@_STL@@V?$allocator@D@2@@_STL@@@_STL@@U?$_Select1st@U?$pair@$$CBKV?$basic_string@DV?$char_traits@D@_STL@@V?$allocator@D@2@@_STL@@@_STL@@@2@U?$less@K@2@V?$allocator@U?$pair@$$CBKV?$basic_string@DV?$char_traits@D@_STL@@V?$allocator@D@2@@_STL@@@_STL@@@2@@_STL@@QAE?AU?$_Rb_tree_iterator@U?$pair@$$CBKV?$basic_string@DV?$char_traits@D@_STL@@V?$allocator@D@2@@_STL@@@_STL@@U?$_Nonconst_traits@U?$pair@$$CBKV?$basic_string@DV?$char_traits@D@_STL@@V?$allocator@D@2@@_STL@@@_STL@@@2@@2@ABK@Z ; _STL::_Rb_tree<unsigned long,_STL::pair<unsigned long const ,_STL::basic_string<char,_STL::char_traits<char>,_STL::allocator<char> > >,_STL::_Select1st<_STL::pair<unsigned long const ,_STL::basic_string<char,_STL::char_traits<char>,_STL::allocator<char> > > >,_STL::less<unsigned long>,_STL::allocator<_STL::pair<unsigned long const ,_STL::basic_string<char,_STL::char_traits<char>,_STL::allocator<char> > > > >::lower_bound
; Function compile flags: /Ogsy
; File c:\stlport-4.6.1\stlport\stl\_tree.h
;	COMDAT ?lower_bound@?$_Rb_tree@KU?$pair@$$CBKV?$basic_string@DV?$char_traits@D@_STL@@V?$allocator@D@2@@_STL@@@_STL@@U?$_Select1st@U?$pair@$$CBKV?$basic_string@DV?$char_traits@D@_STL@@V?$allocator@D@2@@_STL@@@_STL@@@2@U?$less@K@2@V?$allocator@U?$pair@$$CBKV?$basic_string@DV?$char_traits@D@_STL@@V?$allocator@D@2@@_STL@@@_STL@@@2@@_STL@@QAE?AU?$_Rb_tree_iterator@U?$pair@$$CBKV?$basic_string@DV?$char_traits@D@_STL@@V?$allocator@D@2@@_STL@@@_STL@@U?$_Nonconst_traits@U?$pair@$$CBKV?$basic_string@DV?$char_traits@D@_STL@@V?$allocator@D@2@@_STL@@@_STL@@@2@@2@ABK@Z
_TEXT	SEGMENT
___$ReturnUdt$ = 8					; size = 4
___x$ = 12						; size = 4
?lower_bound@?$_Rb_tree@KU?$pair@$$CBKV?$basic_string@DV?$char_traits@D@_STL@@V?$allocator@D@2@@_STL@@@_STL@@U?$_Select1st@U?$pair@$$CBKV?$basic_string@DV?$char_traits@D@_STL@@V?$allocator@D@2@@_STL@@@_STL@@@2@U?$less@K@2@V?$allocator@U?$pair@$$CBKV?$basic_string@DV?$char_traits@D@_STL@@V?$allocator@D@2@@_STL@@@_STL@@@2@@_STL@@QAE?AU?$_Rb_tree_iterator@U?$pair@$$CBKV?$basic_string@DV?$char_traits@D@_STL@@V?$allocator@D@2@@_STL@@@_STL@@U?$_Nonconst_traits@U?$pair@$$CBKV?$basic_string@DV?$char_traits@D@_STL@@V?$allocator@D@2@@_STL@@@_STL@@@2@@2@ABK@Z PROC NEAR ; _STL::_Rb_tree<unsigned long,_STL::pair<unsigned long const ,_STL::basic_string<char,_STL::char_traits<char>,_STL::allocator<char> > >,_STL::_Select1st<_STL::pair<unsigned long const ,_STL::basic_string<char,_STL::char_traits<char>,_STL::allocator<char> > > >,_STL::less<unsigned long>,_STL::allocator<_STL::pair<unsigned long const ,_STL::basic_string<char,_STL::char_traits<char>,_STL::allocator<char> > > > >::lower_bound, COMDAT
; _this$ = ecx

; 510  :   iterator lower_bound(const key_type& __x) { return iterator(_M_lower_bound(__x)); }

  00000	ff 74 24 08	 push	 DWORD PTR ___x$[esp-4]
  00004	e8 00 00 00 00	 call	 ?_M_lower_bound@?$_Rb_tree@KU?$pair@$$CBKV?$basic_string@DV?$char_traits@D@_STL@@V?$allocator@D@2@@_STL@@@_STL@@U?$_Select1st@U?$pair@$$CBKV?$basic_string@DV?$char_traits@D@_STL@@V?$allocator@D@2@@_STL@@@_STL@@@2@U?$less@K@2@V?$allocator@U?$pair@$$CBKV?$basic_string@DV?$char_traits@D@_STL@@V?$allocator@D@2@@_STL@@@_STL@@@2@@_STL@@ABEPAU?$_Rb_tree_node@U?$pair@$$CBKV?$basic_string@DV?$char_traits@D@_STL@@V?$allocator@D@2@@_STL@@@_STL@@@2@ABK@Z ; _STL::_Rb_tree<unsigned long,_STL::pair<unsigned long const ,_STL::basic_string<char,_STL::char_traits<char>,_STL::allocator<char> > >,_STL::_Select1st<_STL::pair<unsigned long const ,_STL::basic_string<char,_STL::char_traits<char>,_STL::allocator<char> > > >,_STL::less<unsigned long>,_STL::allocator<_STL::pair<unsigned long const ,_STL::basic_string<char,_STL::char_traits<char>,_STL::allocator<char> > > > >::_M_lower_bound
  00009	8b 4c 24 04	 mov	 ecx, DWORD PTR ___$ReturnUdt$[esp-4]
  0000d	89 01		 mov	 DWORD PTR [ecx], eax
  0000f	8b c1		 mov	 eax, ecx
  00011	c2 08 00	 ret	 8
?lower_bound@?$_Rb_tree@KU?$pair@$$CBKV?$basic_string@DV?$char_traits@D@_STL@@V?$allocator@D@2@@_STL@@@_STL@@U?$_Select1st@U?$pair@$$CBKV?$basic_string@DV?$char_traits@D@_STL@@V?$allocator@D@2@@_STL@@@_STL@@@2@U?$less@K@2@V?$allocator@U?$pair@$$CBKV?$basic_string@DV?$char_traits@D@_STL@@V?$allocator@D@2@@_STL@@@_STL@@@2@@_STL@@QAE?AU?$_Rb_tree_iterator@U?$pair@$$CBKV?$basic_string@DV?$char_traits@D@_STL@@V?$allocator@D@2@@_STL@@@_STL@@U?$_Nonconst_traits@U?$pair@$$CBKV?$basic_string@DV?$char_traits@D@_STL@@V?$allocator@D@2@@_STL@@@_STL@@@2@@2@ABK@Z ENDP ; _STL::_Rb_tree<unsigned long,_STL::pair<unsigned long const ,_STL::basic_string<char,_STL::char_traits<char>,_STL::allocator<char> > >,_STL::_Select1st<_STL::pair<unsigned long const ,_STL::basic_string<char,_STL::char_traits<char>,_STL::allocator<char> > > >,_STL::less<unsigned long>,_STL::allocator<_STL::pair<unsigned long const ,_STL::basic_string<char,_STL::char_traits<char>,_STL::allocator<char> > > > >::lower_bound
_TEXT	ENDS
PUBLIC	??$uninitialized_copy@PADPAD@_STL@@YAPADPAD00@Z	; _STL::uninitialized_copy<char *,char *>
; Function compile flags: /Ogsy
; File c:\stlport-4.6.1\stlport\stl\_uninitialized.h
;	COMDAT ??$uninitialized_copy@PADPAD@_STL@@YAPADPAD00@Z
_TEXT	SEGMENT
___first$ = 8						; size = 4
___last$ = 12						; size = 4
___result$ = 16						; size = 4
??$uninitialized_copy@PADPAD@_STL@@YAPADPAD00@Z PROC NEAR ; _STL::uninitialized_copy<char *,char *>, COMDAT

; 79   :   return __uninitialized_copy(__first, __last, __result,  _IS_POD_ITER(__result, _ForwardIter));

  00000	e9 00 00 00 00	 jmp	 ?__copy_trivial@_STL@@YAPAXPBX0PAX@Z ; _STL::__copy_trivial
??$uninitialized_copy@PADPAD@_STL@@YAPADPAD00@Z ENDP	; _STL::uninitialized_copy<char *,char *>
_TEXT	ENDS
PUBLIC	??$append@PBD@?$basic_string@DV?$char_traits@D@_STL@@V?$allocator@D@2@@_STL@@AAEAAV01@PBD0ABUforward_iterator_tag@1@@Z ; _STL::basic_string<char,_STL::char_traits<char>,_STL::allocator<char> >::append<char const *>
EXTRN	__CxxThrowException@8:NEAR
; Function compile flags: /Ogsy
; File c:\stlport-4.6.1\stlport\stl\_string.h
;	COMDAT ??$append@PBD@?$basic_string@DV?$char_traits@D@_STL@@V?$allocator@D@2@@_STL@@AAEAAV01@PBD0ABUforward_iterator_tag@1@@Z
_TEXT	SEGMENT
___len$102087 = -8					; size = 4
___old_size$102080 = -8					; size = 4
$T102951 = -4						; size = 4
___first$ = 8						; size = 4
___last$ = 12						; size = 4
___formal$ = 16						; size = 4
??$append@PBD@?$basic_string@DV?$char_traits@D@_STL@@V?$allocator@D@2@@_STL@@AAEAAV01@PBD0ABUforward_iterator_tag@1@@Z PROC NEAR ; _STL::basic_string<char,_STL::char_traits<char>,_STL::allocator<char> >::append<char const *>, COMDAT
; _this$ = ecx

; 542  :   template <class _ForwardIter> _Self& append(_ForwardIter __first, _ForwardIter __last, 

  00000	55		 push	 ebp
  00001	8b ec		 mov	 ebp, esp
  00003	51		 push	 ecx
  00004	51		 push	 ecx
  00005	56		 push	 esi
  00006	57		 push	 edi

; 543  :                        const forward_iterator_tag &)  {
; 544  :     if (__first != __last) {

  00007	8b 7d 0c	 mov	 edi, DWORD PTR ___last$[ebp]
  0000a	39 7d 08	 cmp	 DWORD PTR ___first$[ebp], edi
  0000d	8b f1		 mov	 esi, ecx
  0000f	0f 84 b6 00 00
	00		 je	 $L102098

; 545  : 	    const size_type __old_size = size();
; 546  : 	    difference_type __n = distance(__first, __last);

  00015	2b 7d 08	 sub	 edi, DWORD PTR ___first$[ebp]
  00018	53		 push	 ebx
  00019	8b 5e 04	 mov	 ebx, DWORD PTR [esi+4]
  0001c	2b 1e		 sub	 ebx, DWORD PTR [esi]

; 547  : 	    if (__STATIC_CAST(size_type,__n) > max_size() || __old_size > max_size() - __STATIC_CAST(size_type,__n))

  0001e	83 ff fe	 cmp	 edi, -2			; fffffffeH
  00021	89 5d f8	 mov	 DWORD PTR ___old_size$102080[ebp], ebx
  00024	77 09		 ja	 SHORT $L102085
  00026	6a fe		 push	 -2			; fffffffeH
  00028	58		 pop	 eax
  00029	2b c7		 sub	 eax, edi
  0002b	3b d8		 cmp	 ebx, eax
  0002d	76 07		 jbe	 SHORT $L102084
$L102085:

; 548  : 	      this->_M_throw_length_error();

  0002f	8b ce		 mov	 ecx, esi
  00031	e8 00 00 00 00	 call	 ?_M_throw_length_error@?$_String_base@DV?$allocator@D@_STL@@@_STL@@QBEXXZ ; _STL::_String_base<char,_STL::allocator<char> >::_M_throw_length_error
$L102084:

; 549  : 	    if (__old_size + __n > capacity()) {

  00036	8b 46 08	 mov	 eax, DWORD PTR [esi+8]
  00039	2b 06		 sub	 eax, DWORD PTR [esi]
  0003b	8d 0c 1f	 lea	 ecx, DWORD PTR [edi+ebx]
  0003e	48		 dec	 eax
  0003f	3b c8		 cmp	 ecx, eax
  00041	76 5e		 jbe	 SHORT $L102086

; 550  : 	      const size_type __len = __old_size +
; 551  : 	                            (max)(__old_size, __STATIC_CAST(size_type,__n)) + 1;

  00043	3b df		 cmp	 ebx, edi
  00045	89 7d fc	 mov	 DWORD PTR $T102951[ebp], edi
  00048	8d 45 fc	 lea	 eax, DWORD PTR $T102951[ebp]
  0004b	72 03		 jb	 SHORT $L102996
  0004d	8d 45 f8	 lea	 eax, DWORD PTR ___old_size$102080[ebp]
$L102996:
  00050	8b 00		 mov	 eax, DWORD PTR [eax]
  00052	8d 5c 18 01	 lea	 ebx, DWORD PTR [eax+ebx+1]

; 552  : 	      pointer __new_start = this->_M_end_of_storage.allocate(__len);

  00056	85 db		 test	 ebx, ebx
  00058	89 5d f8	 mov	 DWORD PTR ___len$102087[ebp], ebx
  0005b	74 0b		 je	 SHORT $L103002
  0005d	53		 push	 ebx
  0005e	e8 00 00 00 00	 call	 ?allocate@?$__node_alloc@$00$0A@@_STL@@SAPAXI@Z ; _STL::__node_alloc<1,0>::allocate
  00063	59		 pop	 ecx
  00064	8b f8		 mov	 edi, eax
  00066	eb 02		 jmp	 SHORT $L103003
$L103002:
  00068	33 ff		 xor	 edi, edi
$L103003:

; 553  : 	      pointer __new_finish = __new_start;
; 554  : 	      _STLP_TRY {
; 555  : 	        __new_finish = uninitialized_copy(this->_M_start, this->_M_finish, __new_start);

  0006a	8b 46 04	 mov	 eax, DWORD PTR [esi+4]
  0006d	8b 0e		 mov	 ecx, DWORD PTR [esi]
  0006f	57		 push	 edi
  00070	50		 push	 eax
  00071	51		 push	 ecx
  00072	e8 00 00 00 00	 call	 ?__copy_trivial@_STL@@YAPAXPBX0PAX@Z ; _STL::__copy_trivial

; 556  : 	        __new_finish = uninitialized_copy(__first, __last, __new_finish);

  00077	50		 push	 eax
  00078	ff 75 0c	 push	 DWORD PTR ___last$[ebp]
  0007b	ff 75 08	 push	 DWORD PTR ___first$[ebp]
  0007e	e8 00 00 00 00	 call	 ?__copy_trivial@_STL@@YAPAXPBX0PAX@Z ; _STL::__copy_trivial
  00083	8b d8		 mov	 ebx, eax
  00085	83 c4 18	 add	 esp, 24			; 00000018H

; 557  : 	        _M_construct_null(__new_finish);
; 558  : 	      }
; 559  : 	      _STLP_UNWIND((_STLP_STD::_Destroy(__new_start,__new_finish),
; 560  : 	                    this->_M_end_of_storage.deallocate(__new_start,__len)));
; 561  : 	      _STLP_STD::_Destroy(this->_M_start, this->_M_finish + 1);
; 562  : 	      this->_M_deallocate_block();

  00088	8b ce		 mov	 ecx, esi
  0008a	c6 03 00	 mov	 BYTE PTR [ebx], 0
  0008d	e8 00 00 00 00	 call	 ?_M_deallocate_block@?$_String_base@DV?$allocator@D@_STL@@@_STL@@QAEXXZ ; _STL::_String_base<char,_STL::allocator<char> >::_M_deallocate_block

; 563  : 	      this->_M_start = __new_start;
; 564  : 	      this->_M_finish = __new_finish;
; 565  : 	      this->_M_end_of_storage._M_data = __new_start + __len; 

  00092	8b 45 f8	 mov	 eax, DWORD PTR ___len$102087[ebp]
  00095	89 3e		 mov	 DWORD PTR [esi], edi
  00097	03 f8		 add	 edi, eax
  00099	89 5e 04	 mov	 DWORD PTR [esi+4], ebx
  0009c	89 7e 08	 mov	 DWORD PTR [esi+8], edi

; 566  : 	    }
; 567  : 	    else {

  0009f	eb 29		 jmp	 SHORT $L103135
$L102086:

; 568  : 	      _ForwardIter __f1 = __first;
; 569  : 	      ++__f1;
; 570  : 	      uninitialized_copy(__f1, __last, this->_M_finish + 1);

  000a1	8b 46 04	 mov	 eax, DWORD PTR [esi+4]
  000a4	40		 inc	 eax
  000a5	50		 push	 eax
  000a6	8b 45 08	 mov	 eax, DWORD PTR ___first$[ebp]
  000a9	ff 75 0c	 push	 DWORD PTR ___last$[ebp]
  000ac	40		 inc	 eax
  000ad	50		 push	 eax
  000ae	e8 00 00 00 00	 call	 ?__copy_trivial@_STL@@YAPAXPBX0PAX@Z ; _STL::__copy_trivial

; 571  : 	      _STLP_TRY {
; 572  : 	        _M_construct_null(this->_M_finish + __n);

  000b3	8b 46 04	 mov	 eax, DWORD PTR [esi+4]

; 573  : 	      }
; 574  : 	      _STLP_UNWIND(_STLP_STD::_Destroy(this->_M_finish + 1, this->_M_finish + __n));
; 575  : 	      _Traits::assign(*end(), *__first);

  000b6	8b 4d 08	 mov	 ecx, DWORD PTR ___first$[ebp]
  000b9	c6 04 07 00	 mov	 BYTE PTR [edi+eax], 0
  000bd	8b 46 04	 mov	 eax, DWORD PTR [esi+4]
  000c0	8a 09		 mov	 cl, BYTE PTR [ecx]
  000c2	83 c4 0c	 add	 esp, 12			; 0000000cH
  000c5	88 08		 mov	 BYTE PTR [eax], cl

; 576  : 	      this->_M_finish += __n;

  000c7	01 7e 04	 add	 DWORD PTR [esi+4], edi
$L103135:
  000ca	5b		 pop	 ebx
$L102098:
  000cb	5f		 pop	 edi

; 577  : 	    }
; 578  : 	  }
; 579  : 	  return *this;  

  000cc	8b c6		 mov	 eax, esi
  000ce	5e		 pop	 esi

; 580  : 	}

  000cf	c9		 leave
  000d0	c2 0c 00	 ret	 12			; 0000000cH
??$append@PBD@?$basic_string@DV?$char_traits@D@_STL@@V?$allocator@D@2@@_STL@@AAEAAV01@PBD0ABUforward_iterator_tag@1@@Z ENDP ; _STL::basic_string<char,_STL::char_traits<char>,_STL::allocator<char> >::append<char const *>
_TEXT	ENDS
PUBLIC	??1?$_String_base@DV?$allocator@D@_STL@@@_STL@@QAE@XZ ; _STL::_String_base<char,_STL::allocator<char> >::~_String_base<char,_STL::allocator<char> >
; Function compile flags: /Ogsy
;	COMDAT ??1?$_String_base@DV?$allocator@D@_STL@@@_STL@@QAE@XZ
_TEXT	SEGMENT
??1?$_String_base@DV?$allocator@D@_STL@@@_STL@@QAE@XZ PROC NEAR ; _STL::_String_base<char,_STL::allocator<char> >::~_String_base<char,_STL::allocator<char> >, COMDAT
; _this$ = ecx

; 135  :   ~_String_base() { _M_deallocate_block(); }

  00000	e9 00 00 00 00	 jmp	 ?_M_deallocate_block@?$_String_base@DV?$allocator@D@_STL@@@_STL@@QAEXXZ ; _STL::_String_base<char,_STL::allocator<char> >::_M_deallocate_block
??1?$_String_base@DV?$allocator@D@_STL@@@_STL@@QAE@XZ ENDP ; _STL::_String_base<char,_STL::allocator<char> >::~_String_base<char,_STL::allocator<char> >
_TEXT	ENDS
PUBLIC	??0?$basic_string@DV?$char_traits@D@_STL@@V?$allocator@D@2@@_STL@@QAE@XZ ; _STL::basic_string<char,_STL::char_traits<char>,_STL::allocator<char> >::basic_string<char,_STL::char_traits<char>,_STL::allocator<char> >
EXTRN	__EH_prolog:NEAR
EXTRN	__except_list:DWORD
EXTRN	___CxxFrameHandler:NEAR
;	COMDAT xdata$x
xdata$x	SEGMENT
$T103189 DD	0ffffffffH
	DD	FLAT:$L103142
$T103185 DD	019930520H
	DD	01H
	DD	FLAT:$T103189
	DD	2 DUP(00H)
	DD	2 DUP(00H)
; Function compile flags: /Ogsy
; File c:\stlport-4.6.1\stlport\stl\_string.c
xdata$x	ENDS
;	COMDAT ??0?$basic_string@DV?$char_traits@D@_STL@@V?$allocator@D@2@@_STL@@QAE@XZ
_TEXT	SEGMENT
_this$ = -20						; size = 4
$T103141 = -13						; size = 1
__$EHRec$ = -12						; size = 12
??0?$basic_string@DV?$char_traits@D@_STL@@V?$allocator@D@2@@_STL@@QAE@XZ PROC NEAR ; _STL::basic_string<char,_STL::char_traits<char>,_STL::allocator<char> >::basic_string<char,_STL::char_traits<char>,_STL::allocator<char> >, COMDAT
; _this$ = ecx

; 541  :   : _String_base<_CharT,_Alloc>(allocator_type()) {  

  00000	b8 00 00 00 00	 mov	 eax, __ehhandler$??0?$basic_string@DV?$char_traits@D@_STL@@V?$allocator@D@2@@_STL@@QAE@XZ
  00005	e8 00 00 00 00	 call	 __EH_prolog
  0000a	51		 push	 ecx
  0000b	51		 push	 ecx
  0000c	56		 push	 esi
  0000d	8d 45 f3	 lea	 eax, DWORD PTR $T103141[ebp]
  00010	8b f1		 mov	 esi, ecx
  00012	50		 push	 eax
  00013	89 75 ec	 mov	 DWORD PTR _this$[ebp], esi
  00016	e8 00 00 00 00	 call	 ??0?$_String_base@DV?$allocator@D@_STL@@@_STL@@QAE@ABV?$allocator@D@1@@Z ; _STL::_String_base<char,_STL::allocator<char> >::_String_base<char,_STL::allocator<char> >
  0001b	83 65 fc 00	 and	 DWORD PTR __$EHRec$[ebp+8], 0

; 542  :   this->_M_start = this->_M_end_of_storage.allocate(8); 

  0001f	6a 08		 push	 8
  00021	e8 00 00 00 00	 call	 ?_M_allocate@?$__node_alloc@$00$0A@@_STL@@CAPAXI@Z ; _STL::__node_alloc<1,0>::_M_allocate
  00026	59		 pop	 ecx

; 543  :   this->_M_finish = this->_M_start; 
; 544  :   this->_M_end_of_storage._M_data = this->_M_start + 8; 

  00027	8d 48 08	 lea	 ecx, DWORD PTR [eax+8]
  0002a	89 06		 mov	 DWORD PTR [esi], eax
  0002c	89 46 04	 mov	 DWORD PTR [esi+4], eax
  0002f	89 4e 08	 mov	 DWORD PTR [esi+8], ecx

; 545  :   _M_terminate_string();  
; 546  : } 

  00032	8b 4d f4	 mov	 ecx, DWORD PTR __$EHRec$[ebp]
  00035	c6 00 00	 mov	 BYTE PTR [eax], 0
  00038	8b c6		 mov	 eax, esi
  0003a	5e		 pop	 esi
  0003b	64 89 0d 00 00
	00 00		 mov	 DWORD PTR fs:__except_list, ecx
  00042	c9		 leave
  00043	c3		 ret	 0
_TEXT	ENDS
;	COMDAT text$x
text$x	SEGMENT
$L103142:
  00000	8b 4d ec	 mov	 ecx, DWORD PTR _this$[ebp]
  00003	e9 00 00 00 00	 jmp	 ??1?$_String_base@DV?$allocator@D@_STL@@@_STL@@QAE@XZ ; _STL::_String_base<char,_STL::allocator<char> >::~_String_base<char,_STL::allocator<char> >
__ehhandler$??0?$basic_string@DV?$char_traits@D@_STL@@V?$allocator@D@2@@_STL@@QAE@XZ:
  00008	b8 00 00 00 00	 mov	 eax, OFFSET FLAT:$T103185
  0000d	e9 00 00 00 00	 jmp	 ___CxxFrameHandler
text$x	ENDS
??0?$basic_string@DV?$char_traits@D@_STL@@V?$allocator@D@2@@_STL@@QAE@XZ ENDP ; _STL::basic_string<char,_STL::char_traits<char>,_STL::allocator<char> >::basic_string<char,_STL::char_traits<char>,_STL::allocator<char> >
PUBLIC	?lower_bound@?$map@KV?$basic_string@DV?$char_traits@D@_STL@@V?$allocator@D@2@@_STL@@U?$less@K@2@V?$allocator@U?$pair@$$CBKV?$basic_string@DV?$char_traits@D@_STL@@V?$allocator@D@2@@_STL@@@_STL@@@2@@_STL@@QAE?AU?$_Rb_tree_iterator@U?$pair@$$CBKV?$basic_string@DV?$char_traits@D@_STL@@V?$allocator@D@2@@_STL@@@_STL@@U?$_Nonconst_traits@U?$pair@$$CBKV?$basic_string@DV?$char_traits@D@_STL@@V?$allocator@D@2@@_STL@@@_STL@@@2@@2@ABK@Z ; _STL::map<unsigned long,_STL::basic_string<char,_STL::char_traits<char>,_STL::allocator<char> >,_STL::less<unsigned long>,_STL::allocator<_STL::pair<unsigned long const ,_STL::basic_string<char,_STL::char_traits<char>,_STL::allocator<char> > > > >::lower_bound
; Function compile flags: /Ogsy
; File c:\stlport-4.6.1\stlport\stl\_map.h
;	COMDAT ?lower_bound@?$map@KV?$basic_string@DV?$char_traits@D@_STL@@V?$allocator@D@2@@_STL@@U?$less@K@2@V?$allocator@U?$pair@$$CBKV?$basic_string@DV?$char_traits@D@_STL@@V?$allocator@D@2@@_STL@@@_STL@@@2@@_STL@@QAE?AU?$_Rb_tree_iterator@U?$pair@$$CBKV?$basic_string@DV?$char_traits@D@_STL@@V?$allocator@D@2@@_STL@@@_STL@@U?$_Nonconst_traits@U?$pair@$$CBKV?$basic_string@DV?$char_traits@D@_STL@@V?$allocator@D@2@@_STL@@@_STL@@@2@@2@ABK@Z
_TEXT	SEGMENT
___$ReturnUdt$ = 8					; size = 4
___x$ = 12						; size = 4
?lower_bound@?$map@KV?$basic_string@DV?$char_traits@D@_STL@@V?$allocator@D@2@@_STL@@U?$less@K@2@V?$allocator@U?$pair@$$CBKV?$basic_string@DV?$char_traits@D@_STL@@V?$allocator@D@2@@_STL@@@_STL@@@2@@_STL@@QAE?AU?$_Rb_tree_iterator@U?$pair@$$CBKV?$basic_string@DV?$char_traits@D@_STL@@V?$allocator@D@2@@_STL@@@_STL@@U?$_Nonconst_traits@U?$pair@$$CBKV?$basic_string@DV?$char_traits@D@_STL@@V?$allocator@D@2@@_STL@@@_STL@@@2@@2@ABK@Z PROC NEAR ; _STL::map<unsigned long,_STL::basic_string<char,_STL::char_traits<char>,_STL::allocator<char> >,_STL::less<unsigned long>,_STL::allocator<_STL::pair<unsigned long const ,_STL::basic_string<char,_STL::char_traits<char>,_STL::allocator<char> > > > >::lower_bound, COMDAT
; _this$ = ecx

; 200  :   iterator lower_bound(const key_type& __x) {return _M_t.lower_bound(__x); }

  00000	ff 74 24 08	 push	 DWORD PTR ___x$[esp-4]
  00004	e8 00 00 00 00	 call	 ?_M_lower_bound@?$_Rb_tree@KU?$pair@$$CBKV?$basic_string@DV?$char_traits@D@_STL@@V?$allocator@D@2@@_STL@@@_STL@@U?$_Select1st@U?$pair@$$CBKV?$basic_string@DV?$char_traits@D@_STL@@V?$allocator@D@2@@_STL@@@_STL@@@2@U?$less@K@2@V?$allocator@U?$pair@$$CBKV?$basic_string@DV?$char_traits@D@_STL@@V?$allocator@D@2@@_STL@@@_STL@@@2@@_STL@@ABEPAU?$_Rb_tree_node@U?$pair@$$CBKV?$basic_string@DV?$char_traits@D@_STL@@V?$allocator@D@2@@_STL@@@_STL@@@2@ABK@Z ; _STL::_Rb_tree<unsigned long,_STL::pair<unsigned long const ,_STL::basic_string<char,_STL::char_traits<char>,_STL::allocator<char> > >,_STL::_Select1st<_STL::pair<unsigned long const ,_STL::basic_string<char,_STL::char_traits<char>,_STL::allocator<char> > > >,_STL::less<unsigned long>,_STL::allocator<_STL::pair<unsigned long const ,_STL::basic_string<char,_STL::char_traits<char>,_STL::allocator<char> > > > >::_M_lower_bound
  00009	8b 4c 24 04	 mov	 ecx, DWORD PTR ___$ReturnUdt$[esp-4]
  0000d	89 01		 mov	 DWORD PTR [ecx], eax
  0000f	8b c1		 mov	 eax, ecx
  00011	c2 08 00	 ret	 8
?lower_bound@?$map@KV?$basic_string@DV?$char_traits@D@_STL@@V?$allocator@D@2@@_STL@@U?$less@K@2@V?$allocator@U?$pair@$$CBKV?$basic_string@DV?$char_traits@D@_STL@@V?$allocator@D@2@@_STL@@@_STL@@@2@@_STL@@QAE?AU?$_Rb_tree_iterator@U?$pair@$$CBKV?$basic_string@DV?$char_traits@D@_STL@@V?$allocator@D@2@@_STL@@@_STL@@U?$_Nonconst_traits@U?$pair@$$CBKV?$basic_string@DV?$char_traits@D@_STL@@V?$allocator@D@2@@_STL@@@_STL@@@2@@2@ABK@Z ENDP ; _STL::map<unsigned long,_STL::basic_string<char,_STL::char_traits<char>,_STL::allocator<char> >,_STL::less<unsigned long>,_STL::allocator<_STL::pair<unsigned long const ,_STL::basic_string<char,_STL::char_traits<char>,_STL::allocator<char> > > > >::lower_bound
_TEXT	ENDS
PUBLIC	??$_M_range_initialize@PAD@?$basic_string@DV?$char_traits@D@_STL@@V?$allocator@D@2@@_STL@@AAEXPAD0ABUforward_iterator_tag@1@@Z ; _STL::basic_string<char,_STL::char_traits<char>,_STL::allocator<char> >::_M_range_initialize<char *>
; Function compile flags: /Ogsy
; File c:\stlport-4.6.1\stlport\stl\_string.h
;	COMDAT ??$_M_range_initialize@PAD@?$basic_string@DV?$char_traits@D@_STL@@V?$allocator@D@2@@_STL@@AAEXPAD0ABUforward_iterator_tag@1@@Z
_TEXT	SEGMENT
___f$ = 8						; size = 4
___l$ = 12						; size = 4
___formal$ = 16						; size = 4
??$_M_range_initialize@PAD@?$basic_string@DV?$char_traits@D@_STL@@V?$allocator@D@2@@_STL@@AAEXPAD0ABUforward_iterator_tag@1@@Z PROC NEAR ; _STL::basic_string<char,_STL::char_traits<char>,_STL::allocator<char> >::_M_range_initialize<char *>, COMDAT
; _this$ = ecx

; 383  :                            const forward_iterator_tag &) {
; 384  :     difference_type __n = distance(__f, __l);
; 385  :     this->_M_allocate_block(__n + 1);

  00000	8b 44 24 08	 mov	 eax, DWORD PTR ___l$[esp-4]
  00004	2b 44 24 04	 sub	 eax, DWORD PTR ___f$[esp-4]
  00008	56		 push	 esi
  00009	40		 inc	 eax
  0000a	50		 push	 eax
  0000b	8b f1		 mov	 esi, ecx
  0000d	e8 00 00 00 00	 call	 ?_M_allocate_block@?$_String_base@DV?$allocator@D@_STL@@@_STL@@QAEXI@Z ; _STL::_String_base<char,_STL::allocator<char> >::_M_allocate_block

; 386  :     this->_M_finish = uninitialized_copy(__f, __l, this->_M_start);

  00012	ff 36		 push	 DWORD PTR [esi]
  00014	ff 74 24 10	 push	 DWORD PTR ___l$[esp+4]
  00018	ff 74 24 10	 push	 DWORD PTR ___f$[esp+8]
  0001c	e8 00 00 00 00	 call	 ?__copy_trivial@_STL@@YAPAXPBX0PAX@Z ; _STL::__copy_trivial
  00021	83 c4 0c	 add	 esp, 12			; 0000000cH
  00024	89 46 04	 mov	 DWORD PTR [esi+4], eax

; 387  :     _M_terminate_string();

  00027	c6 00 00	 mov	 BYTE PTR [eax], 0
  0002a	5e		 pop	 esi

; 388  :   }

  0002b	c2 0c 00	 ret	 12			; 0000000cH
??$_M_range_initialize@PAD@?$basic_string@DV?$char_traits@D@_STL@@V?$allocator@D@2@@_STL@@AAEXPAD0ABUforward_iterator_tag@1@@Z ENDP ; _STL::basic_string<char,_STL::char_traits<char>,_STL::allocator<char> >::_M_range_initialize<char *>
_TEXT	ENDS
PUBLIC	??$_M_append_dispatch@PBD@?$basic_string@DV?$char_traits@D@_STL@@V?$allocator@D@2@@_STL@@AAEAAV01@PBD0ABU__false_type@1@@Z ; _STL::basic_string<char,_STL::char_traits<char>,_STL::allocator<char> >::_M_append_dispatch<char const *>
; Function compile flags: /Ogsy
;	COMDAT ??$_M_append_dispatch@PBD@?$basic_string@DV?$char_traits@D@_STL@@V?$allocator@D@2@@_STL@@AAEAAV01@PBD0ABU__false_type@1@@Z
_TEXT	SEGMENT
___f$ = 8						; size = 4
___l$ = 12						; size = 4
$T103309 = 15						; size = 1
___formal$ = 16						; size = 4
??$_M_append_dispatch@PBD@?$basic_string@DV?$char_traits@D@_STL@@V?$allocator@D@2@@_STL@@AAEAAV01@PBD0ABU__false_type@1@@Z PROC NEAR ; _STL::basic_string<char,_STL::char_traits<char>,_STL::allocator<char> >::_M_append_dispatch<char const *>, COMDAT
; _this$ = ecx

; 586  :   template <class _InputIter> _Self& _M_append_dispatch(_InputIter __f, _InputIter __l,

  00000	55		 push	 ebp
  00001	8b ec		 mov	 ebp, esp

; 587  :                                    const __false_type&) {
; 588  :     return append(__f, __l, _STLP_ITERATOR_CATEGORY(__f, _InputIter));

  00003	8d 45 0f	 lea	 eax, DWORD PTR $T103309[ebp]
  00006	50		 push	 eax
  00007	ff 75 0c	 push	 DWORD PTR ___l$[ebp]
  0000a	ff 75 08	 push	 DWORD PTR ___f$[ebp]
  0000d	e8 00 00 00 00	 call	 ??$append@PBD@?$basic_string@DV?$char_traits@D@_STL@@V?$allocator@D@2@@_STL@@AAEAAV01@PBD0ABUforward_iterator_tag@1@@Z ; _STL::basic_string<char,_STL::char_traits<char>,_STL::allocator<char> >::append<char const *>

; 589  :   }

  00012	5d		 pop	 ebp
  00013	c2 0c 00	 ret	 12			; 0000000cH
??$_M_append_dispatch@PBD@?$basic_string@DV?$char_traits@D@_STL@@V?$allocator@D@2@@_STL@@AAEAAV01@PBD0ABU__false_type@1@@Z ENDP ; _STL::basic_string<char,_STL::char_traits<char>,_STL::allocator<char> >::_M_append_dispatch<char const *>
_TEXT	ENDS
PUBLIC	??1?$basic_string@DV?$char_traits@D@_STL@@V?$allocator@D@2@@_STL@@QAE@XZ ; _STL::basic_string<char,_STL::char_traits<char>,_STL::allocator<char> >::~basic_string<char,_STL::char_traits<char>,_STL::allocator<char> >
; Function compile flags: /Ogsy
;	COMDAT ??1?$basic_string@DV?$char_traits@D@_STL@@V?$allocator@D@2@@_STL@@QAE@XZ
_TEXT	SEGMENT
??1?$basic_string@DV?$char_traits@D@_STL@@V?$allocator@D@2@@_STL@@QAE@XZ PROC NEAR ; _STL::basic_string<char,_STL::char_traits<char>,_STL::allocator<char> >::~basic_string<char,_STL::char_traits<char>,_STL::allocator<char> >, COMDAT
; _this$ = ecx

; 305  :   ~basic_string() { _STLP_STD::_Destroy(this->_M_start, this->_M_finish + 1); }

  00000	e9 00 00 00 00	 jmp	 ?_M_deallocate_block@?$_String_base@DV?$allocator@D@_STL@@@_STL@@QAEXXZ ; _STL::_String_base<char,_STL::allocator<char> >::_M_deallocate_block
??1?$basic_string@DV?$char_traits@D@_STL@@V?$allocator@D@2@@_STL@@QAE@XZ ENDP ; _STL::basic_string<char,_STL::char_traits<char>,_STL::allocator<char> >::~basic_string<char,_STL::char_traits<char>,_STL::allocator<char> >
_TEXT	ENDS
PUBLIC	??1?$pair@$$CBKV?$basic_string@DV?$char_traits@D@_STL@@V?$allocator@D@2@@_STL@@@_STL@@QAE@XZ ; _STL::pair<unsigned long const ,_STL::basic_string<char,_STL::char_traits<char>,_STL::allocator<char> > >::~pair<unsigned long const ,_STL::basic_string<char,_STL::char_traits<char>,_STL::allocator<char> > >
; Function compile flags: /Ogsy
;	COMDAT ??1?$pair@$$CBKV?$basic_string@DV?$char_traits@D@_STL@@V?$allocator@D@2@@_STL@@@_STL@@QAE@XZ
_TEXT	SEGMENT
??1?$pair@$$CBKV?$basic_string@DV?$char_traits@D@_STL@@V?$allocator@D@2@@_STL@@@_STL@@QAE@XZ PROC NEAR ; _STL::pair<unsigned long const ,_STL::basic_string<char,_STL::char_traits<char>,_STL::allocator<char> > >::~pair<unsigned long const ,_STL::basic_string<char,_STL::char_traits<char>,_STL::allocator<char> > >, COMDAT
; _this$ = ecx
  00000	83 c1 04	 add	 ecx, 4
  00003	e9 00 00 00 00	 jmp	 ?_M_deallocate_block@?$_String_base@DV?$allocator@D@_STL@@@_STL@@QAEXXZ ; _STL::_String_base<char,_STL::allocator<char> >::_M_deallocate_block
??1?$pair@$$CBKV?$basic_string@DV?$char_traits@D@_STL@@V?$allocator@D@2@@_STL@@@_STL@@QAE@XZ ENDP ; _STL::pair<unsigned long const ,_STL::basic_string<char,_STL::char_traits<char>,_STL::allocator<char> > >::~pair<unsigned long const ,_STL::basic_string<char,_STL::char_traits<char>,_STL::allocator<char> > >
_TEXT	ENDS
PUBLIC	??$_M_range_initialize@PAD@?$basic_string@DV?$char_traits@D@_STL@@V?$allocator@D@2@@_STL@@AAEXPAD0@Z ; _STL::basic_string<char,_STL::char_traits<char>,_STL::allocator<char> >::_M_range_initialize<char *>
; Function compile flags: /Ogsy
;	COMDAT ??$_M_range_initialize@PAD@?$basic_string@DV?$char_traits@D@_STL@@V?$allocator@D@2@@_STL@@AAEXPAD0@Z
_TEXT	SEGMENT
___f$ = 8						; size = 4
___l$ = 12						; size = 4
$T103369 = 15						; size = 1
??$_M_range_initialize@PAD@?$basic_string@DV?$char_traits@D@_STL@@V?$allocator@D@2@@_STL@@AAEXPAD0@Z PROC NEAR ; _STL::basic_string<char,_STL::char_traits<char>,_STL::allocator<char> >::_M_range_initialize<char *>, COMDAT
; _this$ = ecx

; 390  :   template <class _InputIter> void _M_range_initialize(_InputIter __f, _InputIter __l) {

  00000	55		 push	 ebp
  00001	8b ec		 mov	 ebp, esp

; 391  :     _M_range_initialize(__f, __l, _STLP_ITERATOR_CATEGORY(__f, _InputIter));

  00003	8d 45 0f	 lea	 eax, DWORD PTR $T103369[ebp]
  00006	50		 push	 eax
  00007	ff 75 0c	 push	 DWORD PTR ___l$[ebp]
  0000a	ff 75 08	 push	 DWORD PTR ___f$[ebp]
  0000d	e8 00 00 00 00	 call	 ??$_M_range_initialize@PAD@?$basic_string@DV?$char_traits@D@_STL@@V?$allocator@D@2@@_STL@@AAEXPAD0ABUforward_iterator_tag@1@@Z ; _STL::basic_string<char,_STL::char_traits<char>,_STL::allocator<char> >::_M_range_initialize<char *>

; 392  :   }

  00012	5d		 pop	 ebp
  00013	c2 08 00	 ret	 8
??$_M_range_initialize@PAD@?$basic_string@DV?$char_traits@D@_STL@@V?$allocator@D@2@@_STL@@AAEXPAD0@Z ENDP ; _STL::basic_string<char,_STL::char_traits<char>,_STL::allocator<char> >::_M_range_initialize<char *>
_TEXT	ENDS
PUBLIC	??$append@PBD@?$basic_string@DV?$char_traits@D@_STL@@V?$allocator@D@2@@_STL@@QAEAAV01@PBD0@Z ; _STL::basic_string<char,_STL::char_traits<char>,_STL::allocator<char> >::append<char const *>
; Function compile flags: /Ogsy
;	COMDAT ??$append@PBD@?$basic_string@DV?$char_traits@D@_STL@@V?$allocator@D@2@@_STL@@QAEAAV01@PBD0@Z
_TEXT	SEGMENT
___first$ = 8						; size = 4
___last$ = 12						; size = 4
$T103377 = 15						; size = 1
??$append@PBD@?$basic_string@DV?$char_traits@D@_STL@@V?$allocator@D@2@@_STL@@QAEAAV01@PBD0@Z PROC NEAR ; _STL::basic_string<char,_STL::char_traits<char>,_STL::allocator<char> >::append<char const *>, COMDAT
; _this$ = ecx

; 506  :   template <class _InputIter> _Self& append(_InputIter __first, _InputIter __last) {

  00000	55		 push	 ebp
  00001	8b ec		 mov	 ebp, esp

; 507  :     typedef typename _Is_integer<_InputIter>::_Integral _Integral;
; 508  :     return _M_append_dispatch(__first, __last, _Integral());

  00003	8d 45 0f	 lea	 eax, DWORD PTR $T103377[ebp]
  00006	50		 push	 eax
  00007	ff 75 0c	 push	 DWORD PTR ___last$[ebp]
  0000a	ff 75 08	 push	 DWORD PTR ___first$[ebp]
  0000d	e8 00 00 00 00	 call	 ??$append@PBD@?$basic_string@DV?$char_traits@D@_STL@@V?$allocator@D@2@@_STL@@AAEAAV01@PBD0ABUforward_iterator_tag@1@@Z ; _STL::basic_string<char,_STL::char_traits<char>,_STL::allocator<char> >::append<char const *>

; 509  :   }

  00012	5d		 pop	 ebp
  00013	c2 08 00	 ret	 8
??$append@PBD@?$basic_string@DV?$char_traits@D@_STL@@V?$allocator@D@2@@_STL@@QAEAAV01@PBD0@Z ENDP ; _STL::basic_string<char,_STL::char_traits<char>,_STL::allocator<char> >::append<char const *>
_TEXT	ENDS
PUBLIC	??0?$basic_string@DV?$char_traits@D@_STL@@V?$allocator@D@2@@_STL@@QAE@ABV01@@Z ; _STL::basic_string<char,_STL::char_traits<char>,_STL::allocator<char> >::basic_string<char,_STL::char_traits<char>,_STL::allocator<char> >
;	COMDAT xdata$x
xdata$x	SEGMENT
$T103395 DD	0ffffffffH
	DD	FLAT:$L103381
$T103393 DD	019930520H
	DD	01H
	DD	FLAT:$T103395
	DD	2 DUP(00H)
	DD	2 DUP(00H)
; Function compile flags: /Ogsy
; File c:\stlport-4.6.1\stlport\stl\_string.c
xdata$x	ENDS
;	COMDAT ??0?$basic_string@DV?$char_traits@D@_STL@@V?$allocator@D@2@@_STL@@QAE@ABV01@@Z
_TEXT	SEGMENT
_this$ = -16						; size = 4
__$EHRec$ = -12						; size = 12
___s$ = 8						; size = 4
$T103389 = 11						; size = 1
$T103380 = 11						; size = 1
??0?$basic_string@DV?$char_traits@D@_STL@@V?$allocator@D@2@@_STL@@QAE@ABV01@@Z PROC NEAR ; _STL::basic_string<char,_STL::char_traits<char>,_STL::allocator<char> >::basic_string<char,_STL::char_traits<char>,_STL::allocator<char> >, COMDAT
; _this$ = ecx

; 560  : {  

  00000	b8 00 00 00 00	 mov	 eax, __ehhandler$??0?$basic_string@DV?$char_traits@D@_STL@@V?$allocator@D@2@@_STL@@QAE@ABV01@@Z
  00005	e8 00 00 00 00	 call	 __EH_prolog
  0000a	51		 push	 ecx
  0000b	56		 push	 esi
  0000c	8b 75 08	 mov	 esi, DWORD PTR ___s$[ebp]
  0000f	57		 push	 edi
  00010	8b f9		 mov	 edi, ecx
  00012	8d 45 0b	 lea	 eax, DWORD PTR $T103380[ebp]
  00015	50		 push	 eax
  00016	8b ce		 mov	 ecx, esi
  00018	89 7d f0	 mov	 DWORD PTR _this$[ebp], edi
  0001b	e8 00 00 00 00	 call	 ?get_allocator@?$basic_string@DV?$char_traits@D@_STL@@V?$allocator@D@2@@_STL@@QBE?AV?$allocator@D@2@XZ ; _STL::basic_string<char,_STL::char_traits<char>,_STL::allocator<char> >::get_allocator
  00020	50		 push	 eax
  00021	8b cf		 mov	 ecx, edi
  00023	e8 00 00 00 00	 call	 ??0?$_String_base@DV?$allocator@D@_STL@@@_STL@@QAE@ABV?$allocator@D@1@@Z ; _STL::_String_base<char,_STL::allocator<char> >::_String_base<char,_STL::allocator<char> >
  00028	83 65 fc 00	 and	 DWORD PTR __$EHRec$[ebp+8], 0

; 561  :   _M_range_initialize(__s._M_start, __s._M_finish);  

  0002c	8d 45 0b	 lea	 eax, DWORD PTR $T103389[ebp]
  0002f	50		 push	 eax
  00030	ff 76 04	 push	 DWORD PTR [esi+4]
  00033	8b cf		 mov	 ecx, edi
  00035	ff 36		 push	 DWORD PTR [esi]
  00037	e8 00 00 00 00	 call	 ??$_M_range_initialize@PAD@?$basic_string@DV?$char_traits@D@_STL@@V?$allocator@D@2@@_STL@@AAEXPAD0ABUforward_iterator_tag@1@@Z ; _STL::basic_string<char,_STL::char_traits<char>,_STL::allocator<char> >::_M_range_initialize<char *>

; 562  : } 

  0003c	8b 4d f4	 mov	 ecx, DWORD PTR __$EHRec$[ebp]
  0003f	8b c7		 mov	 eax, edi
  00041	5f		 pop	 edi
  00042	5e		 pop	 esi
  00043	64 89 0d 00 00
	00 00		 mov	 DWORD PTR fs:__except_list, ecx
  0004a	c9		 leave
  0004b	c2 04 00	 ret	 4
_TEXT	ENDS
;	COMDAT text$x
text$x	SEGMENT
$L103381:
  00000	8b 4d f0	 mov	 ecx, DWORD PTR _this$[ebp]
  00003	e9 00 00 00 00	 jmp	 ??1?$_String_base@DV?$allocator@D@_STL@@@_STL@@QAE@XZ ; _STL::_String_base<char,_STL::allocator<char> >::~_String_base<char,_STL::allocator<char> >
__ehhandler$??0?$basic_string@DV?$char_traits@D@_STL@@V?$allocator@D@2@@_STL@@QAE@ABV01@@Z:
  00008	b8 00 00 00 00	 mov	 eax, OFFSET FLAT:$T103393
  0000d	e9 00 00 00 00	 jmp	 ___CxxFrameHandler
text$x	ENDS
??0?$basic_string@DV?$char_traits@D@_STL@@V?$allocator@D@2@@_STL@@QAE@ABV01@@Z ENDP ; _STL::basic_string<char,_STL::char_traits<char>,_STL::allocator<char> >::basic_string<char,_STL::char_traits<char>,_STL::allocator<char> >
PUBLIC	?assign@?$basic_string@DV?$char_traits@D@_STL@@V?$allocator@D@2@@_STL@@QAEAAV12@PBD0@Z ; _STL::basic_string<char,_STL::char_traits<char>,_STL::allocator<char> >::assign
; Function compile flags: /Ogsy
; File c:\stlport-4.6.1\stlport\stl\_string.h
;	COMDAT ?assign@?$basic_string@DV?$char_traits@D@_STL@@V?$allocator@D@2@@_STL@@QAEAAV12@PBD0@Z
_TEXT	SEGMENT
___f$ = 8						; size = 4
___l$ = 12						; size = 4
$T103444 = 15						; size = 1
?assign@?$basic_string@DV?$char_traits@D@_STL@@V?$allocator@D@2@@_STL@@QAEAAV12@PBD0@Z PROC NEAR ; _STL::basic_string<char,_STL::char_traits<char>,_STL::allocator<char> >::assign, COMDAT
; _this$ = ecx

; 650  :   {

  00000	55		 push	 ebp
  00001	8b ec		 mov	 ebp, esp
  00003	53		 push	 ebx

; 651  :     ptrdiff_t __n = __l - __f;

  00004	8b 5d 08	 mov	 ebx, DWORD PTR ___f$[ebp]
  00007	56		 push	 esi
  00008	8b f1		 mov	 esi, ecx

; 652  :     if (__STATIC_CAST(size_type,__n) <= size()) {

  0000a	8b 0e		 mov	 ecx, DWORD PTR [esi]
  0000c	8b 46 04	 mov	 eax, DWORD PTR [esi+4]
  0000f	57		 push	 edi
  00010	8b 7d 0c	 mov	 edi, DWORD PTR ___l$[ebp]
  00013	2b fb		 sub	 edi, ebx
  00015	2b c1		 sub	 eax, ecx
  00017	3b f8		 cmp	 edi, eax
  00019	77 20		 ja	 SHORT $L101409

; 653  :       _Traits::copy(this->_M_start, __f, __n);

  0001b	85 ff		 test	 edi, edi
  0001d	74 0b		 je	 SHORT $L103409
  0001f	57		 push	 edi
  00020	53		 push	 ebx
  00021	51		 push	 ecx
  00022	e8 00 00 00 00	 call	 _memcpy
  00027	83 c4 0c	 add	 esp, 12			; 0000000cH
$L103409:

; 654  :       erase(begin() + __n, end());

  0002a	8b 06		 mov	 eax, DWORD PTR [esi]
  0002c	ff 76 04	 push	 DWORD PTR [esi+4]
  0002f	03 c7		 add	 eax, edi
  00031	50		 push	 eax
  00032	8b ce		 mov	 ecx, esi
  00034	e8 00 00 00 00	 call	 ?erase@?$basic_string@DV?$char_traits@D@_STL@@V?$allocator@D@2@@_STL@@QAEPADPAD0@Z ; _STL::basic_string<char,_STL::char_traits<char>,_STL::allocator<char> >::erase

; 655  :     }
; 656  :     else {

  00039	eb 25		 jmp	 SHORT $L103446
$L101409:

; 657  :       _Traits::copy(this->_M_start, __f, size());

  0003b	85 c0		 test	 eax, eax
  0003d	74 0b		 je	 SHORT $L103425
  0003f	50		 push	 eax
  00040	53		 push	 ebx
  00041	51		 push	 ecx
  00042	e8 00 00 00 00	 call	 _memcpy
  00047	83 c4 0c	 add	 esp, 12			; 0000000cH
$L103425:

; 658  :       append(__f + size(), __l);

  0004a	8d 45 0f	 lea	 eax, DWORD PTR $T103444[ebp]
  0004d	50		 push	 eax
  0004e	8b 46 04	 mov	 eax, DWORD PTR [esi+4]
  00051	2b 06		 sub	 eax, DWORD PTR [esi]
  00053	ff 75 0c	 push	 DWORD PTR ___l$[ebp]
  00056	03 c3		 add	 eax, ebx
  00058	50		 push	 eax
  00059	8b ce		 mov	 ecx, esi
  0005b	e8 00 00 00 00	 call	 ??$append@PBD@?$basic_string@DV?$char_traits@D@_STL@@V?$allocator@D@2@@_STL@@AAEAAV01@PBD0ABUforward_iterator_tag@1@@Z ; _STL::basic_string<char,_STL::char_traits<char>,_STL::allocator<char> >::append<char const *>
$L103446:
  00060	5f		 pop	 edi

; 659  :     }
; 660  :     return *this;

  00061	8b c6		 mov	 eax, esi
  00063	5e		 pop	 esi
  00064	5b		 pop	 ebx

; 661  :   }

  00065	5d		 pop	 ebp
  00066	c2 08 00	 ret	 8
?assign@?$basic_string@DV?$char_traits@D@_STL@@V?$allocator@D@2@@_STL@@QAEAAV12@PBD0@Z ENDP ; _STL::basic_string<char,_STL::char_traits<char>,_STL::allocator<char> >::assign
_TEXT	ENDS
PUBLIC	??0?$pair@$$CBKV?$basic_string@DV?$char_traits@D@_STL@@V?$allocator@D@2@@_STL@@@_STL@@QAE@ABKABV?$basic_string@DV?$char_traits@D@_STL@@V?$allocator@D@2@@1@@Z ; _STL::pair<unsigned long const ,_STL::basic_string<char,_STL::char_traits<char>,_STL::allocator<char> > >::pair<unsigned long const ,_STL::basic_string<char,_STL::char_traits<char>,_STL::allocator<char> > >
; Function compile flags: /Ogsy
; File c:\stlport-4.6.1\stlport\stl\_pair.h
;	COMDAT ??0?$pair@$$CBKV?$basic_string@DV?$char_traits@D@_STL@@V?$allocator@D@2@@_STL@@@_STL@@QAE@ABKABV?$basic_string@DV?$char_traits@D@_STL@@V?$allocator@D@2@@1@@Z
_TEXT	SEGMENT
___a$ = 8						; size = 4
___b$ = 12						; size = 4
??0?$pair@$$CBKV?$basic_string@DV?$char_traits@D@_STL@@V?$allocator@D@2@@_STL@@@_STL@@QAE@ABKABV?$basic_string@DV?$char_traits@D@_STL@@V?$allocator@D@2@@1@@Z PROC NEAR ; _STL::pair<unsigned long const ,_STL::basic_string<char,_STL::char_traits<char>,_STL::allocator<char> > >::pair<unsigned long const ,_STL::basic_string<char,_STL::char_traits<char>,_STL::allocator<char> > >, COMDAT
; _this$ = ecx

; 48   :   pair(const _T1& __a, const _T2& __b) : first(__a), second(__b) {}

  00000	8b 44 24 04	 mov	 eax, DWORD PTR ___a$[esp-4]
  00004	8b 00		 mov	 eax, DWORD PTR [eax]
  00006	56		 push	 esi
  00007	ff 74 24 0c	 push	 DWORD PTR ___b$[esp]
  0000b	8b f1		 mov	 esi, ecx
  0000d	8d 4e 04	 lea	 ecx, DWORD PTR [esi+4]
  00010	89 06		 mov	 DWORD PTR [esi], eax
  00012	e8 00 00 00 00	 call	 ??0?$basic_string@DV?$char_traits@D@_STL@@V?$allocator@D@2@@_STL@@QAE@ABV01@@Z ; _STL::basic_string<char,_STL::char_traits<char>,_STL::allocator<char> >::basic_string<char,_STL::char_traits<char>,_STL::allocator<char> >
  00017	8b c6		 mov	 eax, esi
  00019	5e		 pop	 esi
  0001a	c2 08 00	 ret	 8
??0?$pair@$$CBKV?$basic_string@DV?$char_traits@D@_STL@@V?$allocator@D@2@@_STL@@@_STL@@QAE@ABKABV?$basic_string@DV?$char_traits@D@_STL@@V?$allocator@D@2@@1@@Z ENDP ; _STL::pair<unsigned long const ,_STL::basic_string<char,_STL::char_traits<char>,_STL::allocator<char> > >::pair<unsigned long const ,_STL::basic_string<char,_STL::char_traits<char>,_STL::allocator<char> > >
_TEXT	ENDS
PUBLIC	??0?$pair@$$CBKV?$basic_string@DV?$char_traits@D@_STL@@V?$allocator@D@2@@_STL@@@_STL@@QAE@ABU01@@Z ; _STL::pair<unsigned long const ,_STL::basic_string<char,_STL::char_traits<char>,_STL::allocator<char> > >::pair<unsigned long const ,_STL::basic_string<char,_STL::char_traits<char>,_STL::allocator<char> > >
; Function compile flags: /Ogsy
;	COMDAT ??0?$pair@$$CBKV?$basic_string@DV?$char_traits@D@_STL@@V?$allocator@D@2@@_STL@@@_STL@@QAE@ABU01@@Z
_TEXT	SEGMENT
___o$ = 8						; size = 4
??0?$pair@$$CBKV?$basic_string@DV?$char_traits@D@_STL@@V?$allocator@D@2@@_STL@@@_STL@@QAE@ABU01@@Z PROC NEAR ; _STL::pair<unsigned long const ,_STL::basic_string<char,_STL::char_traits<char>,_STL::allocator<char> > >::pair<unsigned long const ,_STL::basic_string<char,_STL::char_traits<char>,_STL::allocator<char> > >, COMDAT
; _this$ = ecx

; 54   :   pair(const pair<_T1,_T2>& __o) : first(__o.first), second(__o.second) {}

  00000	8b 44 24 04	 mov	 eax, DWORD PTR ___o$[esp-4]
  00004	56		 push	 esi
  00005	8b f1		 mov	 esi, ecx
  00007	8b 08		 mov	 ecx, DWORD PTR [eax]
  00009	83 c0 04	 add	 eax, 4
  0000c	89 0e		 mov	 DWORD PTR [esi], ecx
  0000e	50		 push	 eax
  0000f	8d 4e 04	 lea	 ecx, DWORD PTR [esi+4]
  00012	e8 00 00 00 00	 call	 ??0?$basic_string@DV?$char_traits@D@_STL@@V?$allocator@D@2@@_STL@@QAE@ABV01@@Z ; _STL::basic_string<char,_STL::char_traits<char>,_STL::allocator<char> >::basic_string<char,_STL::char_traits<char>,_STL::allocator<char> >
  00017	8b c6		 mov	 eax, esi
  00019	5e		 pop	 esi
  0001a	c2 04 00	 ret	 4
??0?$pair@$$CBKV?$basic_string@DV?$char_traits@D@_STL@@V?$allocator@D@2@@_STL@@@_STL@@QAE@ABU01@@Z ENDP ; _STL::pair<unsigned long const ,_STL::basic_string<char,_STL::char_traits<char>,_STL::allocator<char> > >::pair<unsigned long const ,_STL::basic_string<char,_STL::char_traits<char>,_STL::allocator<char> > >
_TEXT	ENDS
PUBLIC	??4?$basic_string@DV?$char_traits@D@_STL@@V?$allocator@D@2@@_STL@@QAEAAV01@PBD@Z ; _STL::basic_string<char,_STL::char_traits<char>,_STL::allocator<char> >::operator=
; Function compile flags: /Ogsy
; File c:\stlport-4.6.1\stlport\stl\_string.h
;	COMDAT ??4?$basic_string@DV?$char_traits@D@_STL@@V?$allocator@D@2@@_STL@@QAEAAV01@PBD@Z
_TEXT	SEGMENT
___s$ = 8						; size = 4
??4?$basic_string@DV?$char_traits@D@_STL@@V?$allocator@D@2@@_STL@@QAEAAV01@PBD@Z PROC NEAR ; _STL::basic_string<char,_STL::char_traits<char>,_STL::allocator<char> >::operator=, COMDAT
; _this$ = ecx

; 313  :   _Self& operator=(const _CharT* __s) { 

  00000	56		 push	 esi

; 314  :     _STLP_FIX_LITERAL_BUG(__s)
; 315  :     return assign(__s, __s + traits_type::length(__s)); 

  00001	8b 74 24 08	 mov	 esi, DWORD PTR ___s$[esp]
  00005	57		 push	 edi
  00006	56		 push	 esi
  00007	8b f9		 mov	 edi, ecx
  00009	e8 00 00 00 00	 call	 _strlen
  0000e	59		 pop	 ecx
  0000f	03 c6		 add	 eax, esi
  00011	50		 push	 eax
  00012	56		 push	 esi
  00013	8b cf		 mov	 ecx, edi
  00015	e8 00 00 00 00	 call	 ?assign@?$basic_string@DV?$char_traits@D@_STL@@V?$allocator@D@2@@_STL@@QAEAAV12@PBD0@Z ; _STL::basic_string<char,_STL::char_traits<char>,_STL::allocator<char> >::assign
  0001a	5f		 pop	 edi
  0001b	5e		 pop	 esi

; 316  :   }

  0001c	c2 04 00	 ret	 4
??4?$basic_string@DV?$char_traits@D@_STL@@V?$allocator@D@2@@_STL@@QAEAAV01@PBD@Z ENDP ; _STL::basic_string<char,_STL::char_traits<char>,_STL::allocator<char> >::operator=
_TEXT	ENDS
PUBLIC	??$_Construct@U?$pair@$$CBKV?$basic_string@DV?$char_traits@D@_STL@@V?$allocator@D@2@@_STL@@@_STL@@U12@@_STL@@YAXPAU?$pair@$$CBKV?$basic_string@DV?$char_traits@D@_STL@@V?$allocator@D@2@@_STL@@@0@ABU10@@Z ; _STL::_Construct<_STL::pair<unsigned long const ,_STL::basic_string<char,_STL::char_traits<char>,_STL::allocator<char> > >,_STL::pair<unsigned long const ,_STL::basic_string<char,_STL::char_traits<char>,_STL::allocator<char> > > >
;	COMDAT xdata$x
; File c:\program files\microsoft visual studio .net 2003\vc7\include\new
xdata$x	SEGMENT
$T103475 DD	0ffffffffH
	DD	FLAT:$L103468
$T103473 DD	019930520H
	DD	01H
	DD	FLAT:$T103475
	DD	2 DUP(00H)
	DD	2 DUP(00H)
; Function compile flags: /Ogsy
; File c:\stlport-4.6.1\stlport\stl\_construct.h
xdata$x	ENDS
;	COMDAT ??$_Construct@U?$pair@$$CBKV?$basic_string@DV?$char_traits@D@_STL@@V?$allocator@D@2@@_STL@@@_STL@@U12@@_STL@@YAXPAU?$pair@$$CBKV?$basic_string@DV?$char_traits@D@_STL@@V?$allocator@D@2@@_STL@@@0@ABU10@@Z
_TEXT	SEGMENT
$T103465 = -16						; size = 4
__$EHRec$ = -12						; size = 12
___p$ = 8						; size = 4
___val$ = 12						; size = 4
??$_Construct@U?$pair@$$CBKV?$basic_string@DV?$char_traits@D@_STL@@V?$allocator@D@2@@_STL@@@_STL@@U12@@_STL@@YAXPAU?$pair@$$CBKV?$basic_string@DV?$char_traits@D@_STL@@V?$allocator@D@2@@_STL@@@0@ABU10@@Z PROC NEAR ; _STL::_Construct<_STL::pair<unsigned long const ,_STL::basic_string<char,_STL::char_traits<char>,_STL::allocator<char> > >,_STL::pair<unsigned long const ,_STL::basic_string<char,_STL::char_traits<char>,_STL::allocator<char> > > >, COMDAT

; 93   : inline void _Construct(_T1* __p, const _T2& __val) {

  00000	b8 00 00 00 00	 mov	 eax, __ehhandler$??$_Construct@U?$pair@$$CBKV?$basic_string@DV?$char_traits@D@_STL@@V?$allocator@D@2@@_STL@@@_STL@@U12@@_STL@@YAXPAU?$pair@$$CBKV?$basic_string@DV?$char_traits@D@_STL@@V?$allocator@D@2@@_STL@@@0@ABU10@@Z
  00005	e8 00 00 00 00	 call	 __EH_prolog
  0000a	51		 push	 ecx

; 94   : # ifdef _STLP_DEBUG_UNINITIALIZED
; 95   : 	memset((char*)__p, _STLP_SHRED_BYTE, sizeof(_T1));
; 96   : # endif
; 97   :     _STLP_PLACEMENT_NEW (__p) _T1(__val);

  0000b	8b 4d 08	 mov	 ecx, DWORD PTR ___p$[ebp]
  0000e	89 4d f0	 mov	 DWORD PTR $T103465[ebp], ecx
  00011	83 65 fc 00	 and	 DWORD PTR __$EHRec$[ebp+8], 0
  00015	85 c9		 test	 ecx, ecx
  00017	74 08		 je	 SHORT $L103466
  00019	ff 75 0c	 push	 DWORD PTR ___val$[ebp]
  0001c	e8 00 00 00 00	 call	 ??0?$pair@$$CBKV?$basic_string@DV?$char_traits@D@_STL@@V?$allocator@D@2@@_STL@@@_STL@@QAE@ABU01@@Z ; _STL::pair<unsigned long const ,_STL::basic_string<char,_STL::char_traits<char>,_STL::allocator<char> > >::pair<unsigned long const ,_STL::basic_string<char,_STL::char_traits<char>,_STL::allocator<char> > >
$L103466:

; 98   : }

  00021	8b 4d f4	 mov	 ecx, DWORD PTR __$EHRec$[ebp]
  00024	64 89 0d 00 00
	00 00		 mov	 DWORD PTR fs:__except_list, ecx
  0002b	c9		 leave
  0002c	c3		 ret	 0
_TEXT	ENDS
;	COMDAT text$x
text$x	SEGMENT
$L103468:
  00000	ff 75 08	 push	 DWORD PTR ___p$[ebp]
  00003	ff 75 f0	 push	 DWORD PTR $T103465[ebp]
  00006	e8 00 00 00 00	 call	 ??3@YAXPAX0@Z		; operator delete
  0000b	59		 pop	 ecx
  0000c	59		 pop	 ecx
  0000d	c3		 ret	 0
__ehhandler$??$_Construct@U?$pair@$$CBKV?$basic_string@DV?$char_traits@D@_STL@@V?$allocator@D@2@@_STL@@@_STL@@U12@@_STL@@YAXPAU?$pair@$$CBKV?$basic_string@DV?$char_traits@D@_STL@@V?$allocator@D@2@@_STL@@@0@ABU10@@Z:
  0000e	b8 00 00 00 00	 mov	 eax, OFFSET FLAT:$T103473
  00013	e9 00 00 00 00	 jmp	 ___CxxFrameHandler
text$x	ENDS
??$_Construct@U?$pair@$$CBKV?$basic_string@DV?$char_traits@D@_STL@@V?$allocator@D@2@@_STL@@@_STL@@U12@@_STL@@YAXPAU?$pair@$$CBKV?$basic_string@DV?$char_traits@D@_STL@@V?$allocator@D@2@@_STL@@@0@ABU10@@Z ENDP ; _STL::_Construct<_STL::pair<unsigned long const ,_STL::basic_string<char,_STL::char_traits<char>,_STL::allocator<char> > >,_STL::pair<unsigned long const ,_STL::basic_string<char,_STL::char_traits<char>,_STL::allocator<char> > > >
PUBLIC	?_M_create_node@?$_Rb_tree@KU?$pair@$$CBKV?$basic_string@DV?$char_traits@D@_STL@@V?$allocator@D@2@@_STL@@@_STL@@U?$_Select1st@U?$pair@$$CBKV?$basic_string@DV?$char_traits@D@_STL@@V?$allocator@D@2@@_STL@@@_STL@@@2@U?$less@K@2@V?$allocator@U?$pair@$$CBKV?$basic_string@DV?$char_traits@D@_STL@@V?$allocator@D@2@@_STL@@@_STL@@@2@@_STL@@IAEPAU?$_Rb_tree_node@U?$pair@$$CBKV?$basic_string@DV?$char_traits@D@_STL@@V?$allocator@D@2@@_STL@@@_STL@@@2@ABU?$pair@$$CBKV?$basic_string@DV?$char_traits@D@_STL@@V?$allocator@D@2@@_STL@@@2@@Z ; _STL::_Rb_tree<unsigned long,_STL::pair<unsigned long const ,_STL::basic_string<char,_STL::char_traits<char>,_STL::allocator<char> > >,_STL::_Select1st<_STL::pair<unsigned long const ,_STL::basic_string<char,_STL::char_traits<char>,_STL::allocator<char> > > >,_STL::less<unsigned long>,_STL::allocator<_STL::pair<unsigned long const ,_STL::basic_string<char,_STL::char_traits<char>,_STL::allocator<char> > > > >::_M_create_node
;	COMDAT xdata$x
; File c:\stlport-4.6.1\stlport\stl\_alloc.h
xdata$x	SEGMENT
$T103493 DD	0ffffffffH
	DD	00H
	DD	0ffffffffH
	DD	00H
$T103495 DD	00H
	DD	00H
	DD	00H
	DD	FLAT:$L103481
$T103494 DD	00H
	DD	00H
	DD	01H
	DD	01H
	DD	FLAT:$T103495
$T103490 DD	019930520H
	DD	02H
	DD	FLAT:$T103493
	DD	01H
	DD	FLAT:$T103494
	DD	2 DUP(00H)
; Function compile flags: /Ogsy
; File c:\stlport-4.6.1\stlport\stl\_tree.h
xdata$x	ENDS
;	COMDAT ?_M_create_node@?$_Rb_tree@KU?$pair@$$CBKV?$basic_string@DV?$char_traits@D@_STL@@V?$allocator@D@2@@_STL@@@_STL@@U?$_Select1st@U?$pair@$$CBKV?$basic_string@DV?$char_traits@D@_STL@@V?$allocator@D@2@@_STL@@@_STL@@@2@U?$less@K@2@V?$allocator@U?$pair@$$CBKV?$basic_string@DV?$char_traits@D@_STL@@V?$allocator@D@2@@_STL@@@_STL@@@2@@_STL@@IAEPAU?$_Rb_tree_node@U?$pair@$$CBKV?$basic_string@DV?$char_traits@D@_STL@@V?$allocator@D@2@@_STL@@@_STL@@@2@ABU?$pair@$$CBKV?$basic_string@DV?$char_traits@D@_STL@@V?$allocator@D@2@@_STL@@@2@@Z
_TEXT	SEGMENT
_this$ = -24						; size = 4
___tmp$ = -20						; size = 4
__$EHRec$ = -16						; size = 16
___x$ = 8						; size = 4
?_M_create_node@?$_Rb_tree@KU?$pair@$$CBKV?$basic_string@DV?$char_traits@D@_STL@@V?$allocator@D@2@@_STL@@@_STL@@U?$_Select1st@U?$pair@$$CBKV?$basic_string@DV?$char_traits@D@_STL@@V?$allocator@D@2@@_STL@@@_STL@@@2@U?$less@K@2@V?$allocator@U?$pair@$$CBKV?$basic_string@DV?$char_traits@D@_STL@@V?$allocator@D@2@@_STL@@@_STL@@@2@@_STL@@IAEPAU?$_Rb_tree_node@U?$pair@$$CBKV?$basic_string@DV?$char_traits@D@_STL@@V?$allocator@D@2@@_STL@@@_STL@@@2@ABU?$pair@$$CBKV?$basic_string@DV?$char_traits@D@_STL@@V?$allocator@D@2@@_STL@@@2@@Z PROC NEAR ; _STL::_Rb_tree<unsigned long,_STL::pair<unsigned long const ,_STL::basic_string<char,_STL::char_traits<char>,_STL::allocator<char> > >,_STL::_Select1st<_STL::pair<unsigned long const ,_STL::basic_string<char,_STL::char_traits<char>,_STL::allocator<char> > > >,_STL::less<unsigned long>,_STL::allocator<_STL::pair<unsigned long const ,_STL::basic_string<char,_STL::char_traits<char>,_STL::allocator<char> > > > >::_M_create_node, COMDAT
; _this$ = ecx

; 242  :   {

  00000	b8 00 00 00 00	 mov	 eax, __ehhandler$?_M_create_node@?$_Rb_tree@KU?$pair@$$CBKV?$basic_string@DV?$char_traits@D@_STL@@V?$allocator@D@2@@_STL@@@_STL@@U?$_Select1st@U?$pair@$$CBKV?$basic_string@DV?$char_traits@D@_STL@@V?$allocator@D@2@@_STL@@@_STL@@@2@U?$less@K@2@V?$allocator@U?$pair@$$CBKV?$basic_string@DV?$char_traits@D@_STL@@V?$allocator@D@2@@_STL@@@_STL@@@2@@_STL@@IAEPAU?$_Rb_tree_node@U?$pair@$$CBKV?$basic_string@DV?$char_traits@D@_STL@@V?$allocator@D@2@@_STL@@@_STL@@@2@ABU?$pair@$$CBKV?$basic_string@DV?$char_traits@D@_STL@@V?$allocator@D@2@@_STL@@@2@@Z
  00005	e8 00 00 00 00	 call	 __EH_prolog
  0000a	83 ec 0c	 sub	 esp, 12			; 0000000cH
  0000d	53		 push	 ebx
  0000e	56		 push	 esi
  0000f	57		 push	 edi
  00010	89 65 f0	 mov	 DWORD PTR __$EHRec$[ebp], esp

; 243  :     _Link_type __tmp = this->_M_header.allocate(1);

  00013	6a 20		 push	 32			; 00000020H
  00015	89 4d e8	 mov	 DWORD PTR _this$[ebp], ecx
  00018	e8 00 00 00 00	 call	 ?allocate@?$__node_alloc@$00$0A@@_STL@@SAPAXI@Z ; _STL::__node_alloc<1,0>::allocate

; 244  :     _STLP_TRY {
; 245  :       _Construct(&__tmp->_M_value_field, __x);

  0001d	ff 75 08	 push	 DWORD PTR ___x$[ebp]
  00020	83 65 fc 00	 and	 DWORD PTR __$EHRec$[ebp+12], 0
  00024	8b f0		 mov	 esi, eax
  00026	8d 46 10	 lea	 eax, DWORD PTR [esi+16]
  00029	50		 push	 eax
  0002a	89 75 ec	 mov	 DWORD PTR ___tmp$[ebp], esi
  0002d	e8 00 00 00 00	 call	 ??$_Construct@U?$pair@$$CBKV?$basic_string@DV?$char_traits@D@_STL@@V?$allocator@D@2@@_STL@@@_STL@@U12@@_STL@@YAXPAU?$pair@$$CBKV?$basic_string@DV?$char_traits@D@_STL@@V?$allocator@D@2@@_STL@@@0@ABU10@@Z ; _STL::_Construct<_STL::pair<unsigned long const ,_STL::basic_string<char,_STL::char_traits<char>,_STL::allocator<char> > >,_STL::pair<unsigned long const ,_STL::basic_string<char,_STL::char_traits<char>,_STL::allocator<char> > > >

; 248  :     return __tmp;
; 249  :   }

  00032	8b 4d f4	 mov	 ecx, DWORD PTR __$EHRec$[ebp+4]
  00035	83 c4 0c	 add	 esp, 12			; 0000000cH
  00038	5f		 pop	 edi
  00039	8b c6		 mov	 eax, esi
  0003b	5e		 pop	 esi
  0003c	64 89 0d 00 00
	00 00		 mov	 DWORD PTR fs:__except_list, ecx
  00043	5b		 pop	 ebx
  00044	c9		 leave
  00045	c2 04 00	 ret	 4
$L103481:

; 246  :     }
; 247  :     _STLP_UNWIND(this->_M_header.deallocate(__tmp,1));

  00048	8b 4d e8	 mov	 ecx, DWORD PTR _this$[ebp]
  0004b	6a 01		 push	 1
  0004d	ff 75 ec	 push	 DWORD PTR ___tmp$[ebp]
  00050	e8 00 00 00 00	 call	 ?deallocate@?$allocator@U?$_Rb_tree_node@U?$pair@$$CBKV?$basic_string@DV?$char_traits@D@_STL@@V?$allocator@D@2@@_STL@@@_STL@@@_STL@@@_STL@@QAEXPAU?$_Rb_tree_node@U?$pair@$$CBKV?$basic_string@DV?$char_traits@D@_STL@@V?$allocator@D@2@@_STL@@@_STL@@@2@I@Z ; _STL::allocator<_STL::_Rb_tree_node<_STL::pair<unsigned long const ,_STL::basic_string<char,_STL::char_traits<char>,_STL::allocator<char> > > > >::deallocate
  00055	6a 00		 push	 0
  00057	6a 00		 push	 0
  00059	e8 00 00 00 00	 call	 __CxxThrowException@8
$L103496:
$L103492:
  0005e	cc		 int	 3
_TEXT	ENDS
;	COMDAT text$x
text$x	SEGMENT
__ehhandler$?_M_create_node@?$_Rb_tree@KU?$pair@$$CBKV?$basic_string@DV?$char_traits@D@_STL@@V?$allocator@D@2@@_STL@@@_STL@@U?$_Select1st@U?$pair@$$CBKV?$basic_string@DV?$char_traits@D@_STL@@V?$allocator@D@2@@_STL@@@_STL@@@2@U?$less@K@2@V?$allocator@U?$pair@$$CBKV?$basic_string@DV?$char_traits@D@_STL@@V?$allocator@D@2@@_STL@@@_STL@@@2@@_STL@@IAEPAU?$_Rb_tree_node@U?$pair@$$CBKV?$basic_string@DV?$char_traits@D@_STL@@V?$allocator@D@2@@_STL@@@_STL@@@2@ABU?$pair@$$CBKV?$basic_string@DV?$char_traits@D@_STL@@V?$allocator@D@2@@_STL@@@2@@Z:
  00000	b8 00 00 00 00	 mov	 eax, OFFSET FLAT:$T103490
  00005	e9 00 00 00 00	 jmp	 ___CxxFrameHandler
text$x	ENDS
?_M_create_node@?$_Rb_tree@KU?$pair@$$CBKV?$basic_string@DV?$char_traits@D@_STL@@V?$allocator@D@2@@_STL@@@_STL@@U?$_Select1st@U?$pair@$$CBKV?$basic_string@DV?$char_traits@D@_STL@@V?$allocator@D@2@@_STL@@@_STL@@@2@U?$less@K@2@V?$allocator@U?$pair@$$CBKV?$basic_string@DV?$char_traits@D@_STL@@V?$allocator@D@2@@_STL@@@_STL@@@2@@_STL@@IAEPAU?$_Rb_tree_node@U?$pair@$$CBKV?$basic_string@DV?$char_traits@D@_STL@@V?$allocator@D@2@@_STL@@@_STL@@@2@ABU?$pair@$$CBKV?$basic_string@DV?$char_traits@D@_STL@@V?$allocator@D@2@@_STL@@@2@@Z ENDP ; _STL::_Rb_tree<unsigned long,_STL::pair<unsigned long const ,_STL::basic_string<char,_STL::char_traits<char>,_STL::allocator<char> > >,_STL::_Select1st<_STL::pair<unsigned long const ,_STL::basic_string<char,_STL::char_traits<char>,_STL::allocator<char> > > >,_STL::less<unsigned long>,_STL::allocator<_STL::pair<unsigned long const ,_STL::basic_string<char,_STL::char_traits<char>,_STL::allocator<char> > > > >::_M_create_node
PUBLIC	?_M_insert@?$_Rb_tree@KU?$pair@$$CBKV?$basic_string@DV?$char_traits@D@_STL@@V?$allocator@D@2@@_STL@@@_STL@@U?$_Select1st@U?$pair@$$CBKV?$basic_string@DV?$char_traits@D@_STL@@V?$allocator@D@2@@_STL@@@_STL@@@2@U?$less@K@2@V?$allocator@U?$pair@$$CBKV?$basic_string@DV?$char_traits@D@_STL@@V?$allocator@D@2@@_STL@@@_STL@@@2@@_STL@@AAE?AU?$_Rb_tree_iterator@U?$pair@$$CBKV?$basic_string@DV?$char_traits@D@_STL@@V?$allocator@D@2@@_STL@@@_STL@@U?$_Nonconst_traits@U?$pair@$$CBKV?$basic_string@DV?$char_traits@D@_STL@@V?$allocator@D@2@@_STL@@@_STL@@@2@@2@PAU_Rb_tree_node_base@2@0ABU?$pair@$$CBKV?$basic_string@DV?$char_traits@D@_STL@@V?$allocator@D@2@@_STL@@@2@0@Z ; _STL::_Rb_tree<unsigned long,_STL::pair<unsigned long const ,_STL::basic_string<char,_STL::char_traits<char>,_STL::allocator<char> > >,_STL::_Select1st<_STL::pair<unsigned long const ,_STL::basic_string<char,_STL::char_traits<char>,_STL::allocator<char> > > >,_STL::less<unsigned long>,_STL::allocator<_STL::pair<unsigned long const ,_STL::basic_string<char,_STL::char_traits<char>,_STL::allocator<char> > > > >::_M_insert
EXTRN	?_Rebalance@?$_Rb_global@_N@_STL@@SAXPAU_Rb_tree_node_base@2@AAPAU32@@Z:NEAR ; _STL::_Rb_global<bool>::_Rebalance
; Function compile flags: /Ogsy
; File c:\stlport-4.6.1\stlport\stl\_tree.c
;	COMDAT ?_M_insert@?$_Rb_tree@KU?$pair@$$CBKV?$basic_string@DV?$char_traits@D@_STL@@V?$allocator@D@2@@_STL@@@_STL@@U?$_Select1st@U?$pair@$$CBKV?$basic_string@DV?$char_traits@D@_STL@@V?$allocator@D@2@@_STL@@@_STL@@@2@U?$less@K@2@V?$allocator@U?$pair@$$CBKV?$basic_string@DV?$char_traits@D@_STL@@V?$allocator@D@2@@_STL@@@_STL@@@2@@_STL@@AAE?AU?$_Rb_tree_iterator@U?$pair@$$CBKV?$basic_string@DV?$char_traits@D@_STL@@V?$allocator@D@2@@_STL@@@_STL@@U?$_Nonconst_traits@U?$pair@$$CBKV?$basic_string@DV?$char_traits@D@_STL@@V?$allocator@D@2@@_STL@@@_STL@@@2@@2@PAU_Rb_tree_node_base@2@0ABU?$pair@$$CBKV?$basic_string@DV?$char_traits@D@_STL@@V?$allocator@D@2@@_STL@@@2@0@Z
_TEXT	SEGMENT
___$ReturnUdt$ = 8					; size = 4
___x_$ = 12						; size = 4
___y_$ = 16						; size = 4
___v$ = 20						; size = 4
___w_$ = 24						; size = 4
?_M_insert@?$_Rb_tree@KU?$pair@$$CBKV?$basic_string@DV?$char_traits@D@_STL@@V?$allocator@D@2@@_STL@@@_STL@@U?$_Select1st@U?$pair@$$CBKV?$basic_string@DV?$char_traits@D@_STL@@V?$allocator@D@2@@_STL@@@_STL@@@2@U?$less@K@2@V?$allocator@U?$pair@$$CBKV?$basic_string@DV?$char_traits@D@_STL@@V?$allocator@D@2@@_STL@@@_STL@@@2@@_STL@@AAE?AU?$_Rb_tree_iterator@U?$pair@$$CBKV?$basic_string@DV?$char_traits@D@_STL@@V?$allocator@D@2@@_STL@@@_STL@@U?$_Nonconst_traits@U?$pair@$$CBKV?$basic_string@DV?$char_traits@D@_STL@@V?$allocator@D@2@@_STL@@@_STL@@@2@@2@PAU_Rb_tree_node_base@2@0ABU?$pair@$$CBKV?$basic_string@DV?$char_traits@D@_STL@@V?$allocator@D@2@@_STL@@@2@0@Z PROC NEAR ; _STL::_Rb_tree<unsigned long,_STL::pair<unsigned long const ,_STL::basic_string<char,_STL::char_traits<char>,_STL::allocator<char> > >,_STL::_Select1st<_STL::pair<unsigned long const ,_STL::basic_string<char,_STL::char_traits<char>,_STL::allocator<char> > > >,_STL::less<unsigned long>,_STL::allocator<_STL::pair<unsigned long const ,_STL::basic_string<char,_STL::char_traits<char>,_STL::allocator<char> > > > >::_M_insert, COMDAT
; _this$ = ecx

; 347  : {

  00000	55		 push	 ebp
  00001	8b ec		 mov	 ebp, esp

; 348  :   _Link_type __w = (_Link_type) __w_;
; 349  :   _Link_type __x = (_Link_type) __x_;
; 350  :   _Link_type __y = (_Link_type) __y_;
; 351  :   _Link_type __z;
; 352  : 
; 353  :   if ( __y == this->_M_header._M_data ||
; 354  :        ( __w == 0 && // If w != 0, the remainder fails to false
; 355  :          ( __x != 0 ||     // If x != 0, the remainder succeeds to true
; 356  :            _M_key_compare( _KeyOfValue()(__v), _S_key(__y) ) )
; 357  : 	 )
; 358  :        ) {

  00003	8b 45 14	 mov	 eax, DWORD PTR ___v$[ebp]
  00006	53		 push	 ebx
  00007	8b 5d 10	 mov	 ebx, DWORD PTR ___y_$[ebp]
  0000a	56		 push	 esi
  0000b	57		 push	 edi
  0000c	8b f9		 mov	 edi, ecx
  0000e	3b 1f		 cmp	 ebx, DWORD PTR [edi]
  00010	74 2c		 je	 SHORT $L101923
  00012	83 7d 18 00	 cmp	 DWORD PTR ___w_$[ebp], 0
  00016	75 0d		 jne	 SHORT $L101921
  00018	83 7d 0c 00	 cmp	 DWORD PTR ___x_$[ebp], 0
  0001c	75 20		 jne	 SHORT $L101923
  0001e	8b 08		 mov	 ecx, DWORD PTR [eax]
  00020	3b 4b 10	 cmp	 ecx, DWORD PTR [ebx+16]
  00023	72 19		 jb	 SHORT $L101923
$L101921:

; 369  :   }
; 370  :   else {
; 371  :     __z = _M_create_node(__v);

  00025	50		 push	 eax
  00026	8b cf		 mov	 ecx, edi
  00028	e8 00 00 00 00	 call	 ?_M_create_node@?$_Rb_tree@KU?$pair@$$CBKV?$basic_string@DV?$char_traits@D@_STL@@V?$allocator@D@2@@_STL@@@_STL@@U?$_Select1st@U?$pair@$$CBKV?$basic_string@DV?$char_traits@D@_STL@@V?$allocator@D@2@@_STL@@@_STL@@@2@U?$less@K@2@V?$allocator@U?$pair@$$CBKV?$basic_string@DV?$char_traits@D@_STL@@V?$allocator@D@2@@_STL@@@_STL@@@2@@_STL@@IAEPAU?$_Rb_tree_node@U?$pair@$$CBKV?$basic_string@DV?$char_traits@D@_STL@@V?$allocator@D@2@@_STL@@@_STL@@@2@ABU?$pair@$$CBKV?$basic_string@DV?$char_traits@D@_STL@@V?$allocator@D@2@@_STL@@@2@@Z ; _STL::_Rb_tree<unsigned long,_STL::pair<unsigned long const ,_STL::basic_string<char,_STL::char_traits<char>,_STL::allocator<char> > >,_STL::_Select1st<_STL::pair<unsigned long const ,_STL::basic_string<char,_STL::char_traits<char>,_STL::allocator<char> > > >,_STL::less<unsigned long>,_STL::allocator<_STL::pair<unsigned long const ,_STL::basic_string<char,_STL::char_traits<char>,_STL::allocator<char> > > > >::_M_create_node
  0002d	8b f0		 mov	 esi, eax

; 372  :     _S_right(__y) = __z;

  0002f	89 73 0c	 mov	 DWORD PTR [ebx+12], esi

; 373  :     if (__y == _M_rightmost())

  00032	8b 07		 mov	 eax, DWORD PTR [edi]
  00034	3b 58 0c	 cmp	 ebx, DWORD PTR [eax+12]
  00037	75 27		 jne	 SHORT $L101926
$L103559:

; 374  :       _M_rightmost() = __z;  // maintain _M_rightmost() pointing to max node

  00039	89 70 0c	 mov	 DWORD PTR [eax+12], esi
  0003c	eb 22		 jmp	 SHORT $L101926
$L101923:

; 359  :     
; 360  :     __z = _M_create_node(__v);

  0003e	50		 push	 eax
  0003f	8b cf		 mov	 ecx, edi
  00041	e8 00 00 00 00	 call	 ?_M_create_node@?$_Rb_tree@KU?$pair@$$CBKV?$basic_string@DV?$char_traits@D@_STL@@V?$allocator@D@2@@_STL@@@_STL@@U?$_Select1st@U?$pair@$$CBKV?$basic_string@DV?$char_traits@D@_STL@@V?$allocator@D@2@@_STL@@@_STL@@@2@U?$less@K@2@V?$allocator@U?$pair@$$CBKV?$basic_string@DV?$char_traits@D@_STL@@V?$allocator@D@2@@_STL@@@_STL@@@2@@_STL@@IAEPAU?$_Rb_tree_node@U?$pair@$$CBKV?$basic_string@DV?$char_traits@D@_STL@@V?$allocator@D@2@@_STL@@@_STL@@@2@ABU?$pair@$$CBKV?$basic_string@DV?$char_traits@D@_STL@@V?$allocator@D@2@@_STL@@@2@@Z ; _STL::_Rb_tree<unsigned long,_STL::pair<unsigned long const ,_STL::basic_string<char,_STL::char_traits<char>,_STL::allocator<char> > >,_STL::_Select1st<_STL::pair<unsigned long const ,_STL::basic_string<char,_STL::char_traits<char>,_STL::allocator<char> > > >,_STL::less<unsigned long>,_STL::allocator<_STL::pair<unsigned long const ,_STL::basic_string<char,_STL::char_traits<char>,_STL::allocator<char> > > > >::_M_create_node
  00046	8b f0		 mov	 esi, eax

; 361  :     _S_left(__y) = __z;               // also makes _M_leftmost() = __z 

  00048	89 73 08	 mov	 DWORD PTR [ebx+8], esi

; 362  :                                       //    when __y == _M_header
; 363  :     if (__y == this->_M_header._M_data) {

  0004b	8b 07		 mov	 eax, DWORD PTR [edi]
  0004d	3b d8		 cmp	 ebx, eax
  0004f	75 07		 jne	 SHORT $L101924

; 364  :       _M_root() = __z;

  00051	89 70 04	 mov	 DWORD PTR [eax+4], esi

; 365  :       _M_rightmost() = __z;

  00054	8b 07		 mov	 eax, DWORD PTR [edi]

; 366  :     }
; 367  :     else if (__y == _M_leftmost())

  00056	eb e1		 jmp	 SHORT $L103559
$L101924:
  00058	3b 58 08	 cmp	 ebx, DWORD PTR [eax+8]
  0005b	75 03		 jne	 SHORT $L101926

; 368  :       _M_leftmost() = __z;   // maintain _M_leftmost() pointing to min node

  0005d	89 70 08	 mov	 DWORD PTR [eax+8], esi
$L101926:

; 375  :   }
; 376  :   _S_parent(__z) = __y;
; 377  :   _S_left(__z) = 0;

  00060	83 66 08 00	 and	 DWORD PTR [esi+8], 0

; 378  :   _S_right(__z) = 0;

  00064	83 66 0c 00	 and	 DWORD PTR [esi+12], 0
  00068	89 5e 04	 mov	 DWORD PTR [esi+4], ebx

; 379  :   _Rb_global_inst::_Rebalance(__z, this->_M_header._M_data->_M_parent);

  0006b	8b 07		 mov	 eax, DWORD PTR [edi]
  0006d	83 c0 04	 add	 eax, 4
  00070	50		 push	 eax
  00071	56		 push	 esi
  00072	e8 00 00 00 00	 call	 ?_Rebalance@?$_Rb_global@_N@_STL@@SAXPAU_Rb_tree_node_base@2@AAPAU32@@Z ; _STL::_Rb_global<bool>::_Rebalance

; 380  :   ++_M_node_count;

  00077	ff 47 04	 inc	 DWORD PTR [edi+4]

; 381  :   return iterator(__z);

  0007a	8b 45 08	 mov	 eax, DWORD PTR ___$ReturnUdt$[ebp]
  0007d	59		 pop	 ecx
  0007e	59		 pop	 ecx
  0007f	5f		 pop	 edi
  00080	89 30		 mov	 DWORD PTR [eax], esi
  00082	5e		 pop	 esi
  00083	5b		 pop	 ebx

; 382  : }

  00084	5d		 pop	 ebp
  00085	c2 14 00	 ret	 20			; 00000014H
?_M_insert@?$_Rb_tree@KU?$pair@$$CBKV?$basic_string@DV?$char_traits@D@_STL@@V?$allocator@D@2@@_STL@@@_STL@@U?$_Select1st@U?$pair@$$CBKV?$basic_string@DV?$char_traits@D@_STL@@V?$allocator@D@2@@_STL@@@_STL@@@2@U?$less@K@2@V?$allocator@U?$pair@$$CBKV?$basic_string@DV?$char_traits@D@_STL@@V?$allocator@D@2@@_STL@@@_STL@@@2@@_STL@@AAE?AU?$_Rb_tree_iterator@U?$pair@$$CBKV?$basic_string@DV?$char_traits@D@_STL@@V?$allocator@D@2@@_STL@@@_STL@@U?$_Nonconst_traits@U?$pair@$$CBKV?$basic_string@DV?$char_traits@D@_STL@@V?$allocator@D@2@@_STL@@@_STL@@@2@@2@PAU_Rb_tree_node_base@2@0ABU?$pair@$$CBKV?$basic_string@DV?$char_traits@D@_STL@@V?$allocator@D@2@@_STL@@@2@0@Z ENDP ; _STL::_Rb_tree<unsigned long,_STL::pair<unsigned long const ,_STL::basic_string<char,_STL::char_traits<char>,_STL::allocator<char> > >,_STL::_Select1st<_STL::pair<unsigned long const ,_STL::basic_string<char,_STL::char_traits<char>,_STL::allocator<char> > > >,_STL::less<unsigned long>,_STL::allocator<_STL::pair<unsigned long const ,_STL::basic_string<char,_STL::char_traits<char>,_STL::allocator<char> > > > >::_M_insert
_TEXT	ENDS
PUBLIC	?insert_unique@?$_Rb_tree@KU?$pair@$$CBKV?$basic_string@DV?$char_traits@D@_STL@@V?$allocator@D@2@@_STL@@@_STL@@U?$_Select1st@U?$pair@$$CBKV?$basic_string@DV?$char_traits@D@_STL@@V?$allocator@D@2@@_STL@@@_STL@@@2@U?$less@K@2@V?$allocator@U?$pair@$$CBKV?$basic_string@DV?$char_traits@D@_STL@@V?$allocator@D@2@@_STL@@@_STL@@@2@@_STL@@QAE?AU?$pair@U?$_Rb_tree_iterator@U?$pair@$$CBKV?$basic_string@DV?$char_traits@D@_STL@@V?$allocator@D@2@@_STL@@@_STL@@U?$_Nonconst_traits@U?$pair@$$CBKV?$basic_string@DV?$char_traits@D@_STL@@V?$allocator@D@2@@_STL@@@_STL@@@2@@_STL@@_N@2@ABU?$pair@$$CBKV?$basic_string@DV?$char_traits@D@_STL@@V?$allocator@D@2@@_STL@@@2@@Z ; _STL::_Rb_tree<unsigned long,_STL::pair<unsigned long const ,_STL::basic_string<char,_STL::char_traits<char>,_STL::allocator<char> > >,_STL::_Select1st<_STL::pair<unsigned long const ,_STL::basic_string<char,_STL::char_traits<char>,_STL::allocator<char> > > >,_STL::less<unsigned long>,_STL::allocator<_STL::pair<unsigned long const ,_STL::basic_string<char,_STL::char_traits<char>,_STL::allocator<char> > > > >::insert_unique
; Function compile flags: /Ogsy
;	COMDAT ?insert_unique@?$_Rb_tree@KU?$pair@$$CBKV?$basic_string@DV?$char_traits@D@_STL@@V?$allocator@D@2@@_STL@@@_STL@@U?$_Select1st@U?$pair@$$CBKV?$basic_string@DV?$char_traits@D@_STL@@V?$allocator@D@2@@_STL@@@_STL@@@2@U?$less@K@2@V?$allocator@U?$pair@$$CBKV?$basic_string@DV?$char_traits@D@_STL@@V?$allocator@D@2@@_STL@@@_STL@@@2@@_STL@@QAE?AU?$pair@U?$_Rb_tree_iterator@U?$pair@$$CBKV?$basic_string@DV?$char_traits@D@_STL@@V?$allocator@D@2@@_STL@@@_STL@@U?$_Nonconst_traits@U?$pair@$$CBKV?$basic_string@DV?$char_traits@D@_STL@@V?$allocator@D@2@@_STL@@@_STL@@@2@@_STL@@_N@2@ABU?$pair@$$CBKV?$basic_string@DV?$char_traits@D@_STL@@V?$allocator@D@2@@_STL@@@2@@Z
_TEXT	SEGMENT
___$ReturnUdt$ = 8					; size = 4
$T103570 = 12						; size = 4
___v$ = 12						; size = 4
?insert_unique@?$_Rb_tree@KU?$pair@$$CBKV?$basic_string@DV?$char_traits@D@_STL@@V?$allocator@D@2@@_STL@@@_STL@@U?$_Select1st@U?$pair@$$CBKV?$basic_string@DV?$char_traits@D@_STL@@V?$allocator@D@2@@_STL@@@_STL@@@2@U?$less@K@2@V?$allocator@U?$pair@$$CBKV?$basic_string@DV?$char_traits@D@_STL@@V?$allocator@D@2@@_STL@@@_STL@@@2@@_STL@@QAE?AU?$pair@U?$_Rb_tree_iterator@U?$pair@$$CBKV?$basic_string@DV?$char_traits@D@_STL@@V?$allocator@D@2@@_STL@@@_STL@@U?$_Nonconst_traits@U?$pair@$$CBKV?$basic_string@DV?$char_traits@D@_STL@@V?$allocator@D@2@@_STL@@@_STL@@@2@@_STL@@_N@2@ABU?$pair@$$CBKV?$basic_string@DV?$char_traits@D@_STL@@V?$allocator@D@2@@_STL@@@2@@Z PROC NEAR ; _STL::_Rb_tree<unsigned long,_STL::pair<unsigned long const ,_STL::basic_string<char,_STL::char_traits<char>,_STL::allocator<char> > >,_STL::_Select1st<_STL::pair<unsigned long const ,_STL::basic_string<char,_STL::char_traits<char>,_STL::allocator<char> > > >,_STL::less<unsigned long>,_STL::allocator<_STL::pair<unsigned long const ,_STL::basic_string<char,_STL::char_traits<char>,_STL::allocator<char> > > > >::insert_unique, COMDAT
; _this$ = ecx

; 401  : {

  00000	55		 push	 ebp
  00001	8b ec		 mov	 ebp, esp
  00003	53		 push	 ebx
  00004	8b d9		 mov	 ebx, ecx

; 402  :   _Link_type __y = this->_M_header._M_data;

  00006	8b 0b		 mov	 ecx, DWORD PTR [ebx]
  00008	56		 push	 esi

; 403  :   _Link_type __x = _M_root();

  00009	8b 71 04	 mov	 esi, DWORD PTR [ecx+4]

; 404  :   bool __comp = true;
; 405  :   while (__x != 0) {

  0000c	85 f6		 test	 esi, esi
  0000e	57		 push	 edi
  0000f	8b f9		 mov	 edi, ecx
  00011	b2 01		 mov	 dl, 1
  00013	74 1d		 je	 SHORT $L103674

; 417  :     return pair<iterator,bool>(_M_insert(__x, __y, __v), true);

  00015	8b 45 0c	 mov	 eax, DWORD PTR ___v$[ebp]
  00018	8b 00		 mov	 eax, DWORD PTR [eax]
$L101944:
  0001a	3b 46 10	 cmp	 eax, DWORD PTR [esi+16]
  0001d	8b fe		 mov	 edi, esi
  0001f	0f 92 c2	 setb	 dl
  00022	84 d2		 test	 dl, dl
  00024	74 05		 je	 SHORT $L103563

; 406  :     __y = __x;
; 407  :     __comp = _M_key_compare(_KeyOfValue()(__v), _S_key(__x));
; 408  :     __x = __comp ? _S_left(__x) : _S_right(__x);

  00026	8b 76 08	 mov	 esi, DWORD PTR [esi+8]
  00029	eb 03		 jmp	 SHORT $L103564
$L103563:
  0002b	8b 76 0c	 mov	 esi, DWORD PTR [esi+12]
$L103564:

; 404  :   bool __comp = true;
; 405  :   while (__x != 0) {

  0002e	85 f6		 test	 esi, esi
  00030	75 e8		 jne	 SHORT $L101944
$L103674:

; 409  :   }
; 410  :   iterator __j = iterator(__y);   
; 411  :   if (__comp)

  00032	84 d2		 test	 dl, dl
  00034	8b c7		 mov	 eax, edi
  00036	74 15		 je	 SHORT $L103675

; 412  :     if (__j == begin())     

  00038	3b 79 08	 cmp	 edi, DWORD PTR [ecx+8]
  0003b	75 09		 jne	 SHORT $L101951

; 413  :       return pair<iterator,bool>(_M_insert(/* __x*/ __y, __y, __v), true);

  0003d	6a 00		 push	 0
  0003f	ff 75 0c	 push	 DWORD PTR ___v$[ebp]
  00042	57		 push	 edi
  00043	57		 push	 edi
  00044	eb 16		 jmp	 SHORT $L103676
$L101951:

; 414  :     else
; 415  :       --__j;

  00046	57		 push	 edi
  00047	e8 00 00 00 00	 call	 ?_M_decrement@?$_Rb_global@_N@_STL@@SAPAU_Rb_tree_node_base@2@PAU32@@Z ; _STL::_Rb_global<bool>::_M_decrement
  0004c	59		 pop	 ecx
$L103675:

; 416  :   if (_M_key_compare(_S_key(__j._M_node), _KeyOfValue()(__v)))

  0004d	8b 50 10	 mov	 edx, DWORD PTR [eax+16]
  00050	8b 4d 0c	 mov	 ecx, DWORD PTR ___v$[ebp]
  00053	3b 11		 cmp	 edx, DWORD PTR [ecx]
  00055	73 1d		 jae	 SHORT $L101961

; 417  :     return pair<iterator,bool>(_M_insert(__x, __y, __v), true);

  00057	6a 00		 push	 0
  00059	51		 push	 ecx
  0005a	57		 push	 edi
  0005b	56		 push	 esi
$L103676:
  0005c	8d 45 0c	 lea	 eax, DWORD PTR $T103570[ebp]
  0005f	50		 push	 eax
  00060	8b cb		 mov	 ecx, ebx
  00062	e8 00 00 00 00	 call	 ?_M_insert@?$_Rb_tree@KU?$pair@$$CBKV?$basic_string@DV?$char_traits@D@_STL@@V?$allocator@D@2@@_STL@@@_STL@@U?$_Select1st@U?$pair@$$CBKV?$basic_string@DV?$char_traits@D@_STL@@V?$allocator@D@2@@_STL@@@_STL@@@2@U?$less@K@2@V?$allocator@U?$pair@$$CBKV?$basic_string@DV?$char_traits@D@_STL@@V?$allocator@D@2@@_STL@@@_STL@@@2@@_STL@@AAE?AU?$_Rb_tree_iterator@U?$pair@$$CBKV?$basic_string@DV?$char_traits@D@_STL@@V?$allocator@D@2@@_STL@@@_STL@@U?$_Nonconst_traits@U?$pair@$$CBKV?$basic_string@DV?$char_traits@D@_STL@@V?$allocator@D@2@@_STL@@@_STL@@@2@@2@PAU_Rb_tree_node_base@2@0ABU?$pair@$$CBKV?$basic_string@DV?$char_traits@D@_STL@@V?$allocator@D@2@@_STL@@@2@0@Z ; _STL::_Rb_tree<unsigned long,_STL::pair<unsigned long const ,_STL::basic_string<char,_STL::char_traits<char>,_STL::allocator<char> > >,_STL::_Select1st<_STL::pair<unsigned long const ,_STL::basic_string<char,_STL::char_traits<char>,_STL::allocator<char> > > >,_STL::less<unsigned long>,_STL::allocator<_STL::pair<unsigned long const ,_STL::basic_string<char,_STL::char_traits<char>,_STL::allocator<char> > > > >::_M_insert
  00067	8b 08		 mov	 ecx, DWORD PTR [eax]
  00069	8b 45 08	 mov	 eax, DWORD PTR ___$ReturnUdt$[ebp]
  0006c	89 08		 mov	 DWORD PTR [eax], ecx
  0006e	c6 40 04 01	 mov	 BYTE PTR [eax+4], 1
  00072	eb 0b		 jmp	 SHORT $L101939
$L101961:

; 418  :   return pair<iterator,bool>(__j, false);

  00074	8b 4d 08	 mov	 ecx, DWORD PTR ___$ReturnUdt$[ebp]
  00077	89 01		 mov	 DWORD PTR [ecx], eax
  00079	c6 41 04 00	 mov	 BYTE PTR [ecx+4], 0
  0007d	8b c1		 mov	 eax, ecx
$L101939:
  0007f	5f		 pop	 edi
  00080	5e		 pop	 esi
  00081	5b		 pop	 ebx

; 419  : }

  00082	5d		 pop	 ebp
  00083	c2 08 00	 ret	 8
?insert_unique@?$_Rb_tree@KU?$pair@$$CBKV?$basic_string@DV?$char_traits@D@_STL@@V?$allocator@D@2@@_STL@@@_STL@@U?$_Select1st@U?$pair@$$CBKV?$basic_string@DV?$char_traits@D@_STL@@V?$allocator@D@2@@_STL@@@_STL@@@2@U?$less@K@2@V?$allocator@U?$pair@$$CBKV?$basic_string@DV?$char_traits@D@_STL@@V?$allocator@D@2@@_STL@@@_STL@@@2@@_STL@@QAE?AU?$pair@U?$_Rb_tree_iterator@U?$pair@$$CBKV?$basic_string@DV?$char_traits@D@_STL@@V?$allocator@D@2@@_STL@@@_STL@@U?$_Nonconst_traits@U?$pair@$$CBKV?$basic_string@DV?$char_traits@D@_STL@@V?$allocator@D@2@@_STL@@@_STL@@@2@@_STL@@_N@2@ABU?$pair@$$CBKV?$basic_string@DV?$char_traits@D@_STL@@V?$allocator@D@2@@_STL@@@2@@Z ENDP ; _STL::_Rb_tree<unsigned long,_STL::pair<unsigned long const ,_STL::basic_string<char,_STL::char_traits<char>,_STL::allocator<char> > >,_STL::_Select1st<_STL::pair<unsigned long const ,_STL::basic_string<char,_STL::char_traits<char>,_STL::allocator<char> > > >,_STL::less<unsigned long>,_STL::allocator<_STL::pair<unsigned long const ,_STL::basic_string<char,_STL::char_traits<char>,_STL::allocator<char> > > > >::insert_unique
_TEXT	ENDS
PUBLIC	?insert_unique@?$_Rb_tree@KU?$pair@$$CBKV?$basic_string@DV?$char_traits@D@_STL@@V?$allocator@D@2@@_STL@@@_STL@@U?$_Select1st@U?$pair@$$CBKV?$basic_string@DV?$char_traits@D@_STL@@V?$allocator@D@2@@_STL@@@_STL@@@2@U?$less@K@2@V?$allocator@U?$pair@$$CBKV?$basic_string@DV?$char_traits@D@_STL@@V?$allocator@D@2@@_STL@@@_STL@@@2@@_STL@@QAE?AU?$_Rb_tree_iterator@U?$pair@$$CBKV?$basic_string@DV?$char_traits@D@_STL@@V?$allocator@D@2@@_STL@@@_STL@@U?$_Nonconst_traits@U?$pair@$$CBKV?$basic_string@DV?$char_traits@D@_STL@@V?$allocator@D@2@@_STL@@@_STL@@@2@@2@U32@ABU?$pair@$$CBKV?$basic_string@DV?$char_traits@D@_STL@@V?$allocator@D@2@@_STL@@@2@@Z ; _STL::_Rb_tree<unsigned long,_STL::pair<unsigned long const ,_STL::basic_string<char,_STL::char_traits<char>,_STL::allocator<char> > >,_STL::_Select1st<_STL::pair<unsigned long const ,_STL::basic_string<char,_STL::char_traits<char>,_STL::allocator<char> > > >,_STL::less<unsigned long>,_STL::allocator<_STL::pair<unsigned long const ,_STL::basic_string<char,_STL::char_traits<char>,_STL::allocator<char> > > > >::insert_unique
; Function compile flags: /Ogsy
;	COMDAT ?insert_unique@?$_Rb_tree@KU?$pair@$$CBKV?$basic_string@DV?$char_traits@D@_STL@@V?$allocator@D@2@@_STL@@@_STL@@U?$_Select1st@U?$pair@$$CBKV?$basic_string@DV?$char_traits@D@_STL@@V?$allocator@D@2@@_STL@@@_STL@@@2@U?$less@K@2@V?$allocator@U?$pair@$$CBKV?$basic_string@DV?$char_traits@D@_STL@@V?$allocator@D@2@@_STL@@@_STL@@@2@@_STL@@QAE?AU?$_Rb_tree_iterator@U?$pair@$$CBKV?$basic_string@DV?$char_traits@D@_STL@@V?$allocator@D@2@@_STL@@@_STL@@U?$_Nonconst_traits@U?$pair@$$CBKV?$basic_string@DV?$char_traits@D@_STL@@V?$allocator@D@2@@_STL@@@_STL@@@2@@2@U32@ABU?$pair@$$CBKV?$basic_string@DV?$char_traits@D@_STL@@V?$allocator@D@2@@_STL@@@2@@Z
_TEXT	SEGMENT
$T103690 = -8						; size = 8
___$ReturnUdt$ = 8					; size = 4
___position$ = 12					; size = 4
___v$ = 16						; size = 4
___comp_v_pos$101734 = 19				; size = 1
?insert_unique@?$_Rb_tree@KU?$pair@$$CBKV?$basic_string@DV?$char_traits@D@_STL@@V?$allocator@D@2@@_STL@@@_STL@@U?$_Select1st@U?$pair@$$CBKV?$basic_string@DV?$char_traits@D@_STL@@V?$allocator@D@2@@_STL@@@_STL@@@2@U?$less@K@2@V?$allocator@U?$pair@$$CBKV?$basic_string@DV?$char_traits@D@_STL@@V?$allocator@D@2@@_STL@@@_STL@@@2@@_STL@@QAE?AU?$_Rb_tree_iterator@U?$pair@$$CBKV?$basic_string@DV?$char_traits@D@_STL@@V?$allocator@D@2@@_STL@@@_STL@@U?$_Nonconst_traits@U?$pair@$$CBKV?$basic_string@DV?$char_traits@D@_STL@@V?$allocator@D@2@@_STL@@@_STL@@@2@@2@U32@ABU?$pair@$$CBKV?$basic_string@DV?$char_traits@D@_STL@@V?$allocator@D@2@@_STL@@@2@@Z PROC NEAR ; _STL::_Rb_tree<unsigned long,_STL::pair<unsigned long const ,_STL::basic_string<char,_STL::char_traits<char>,_STL::allocator<char> > >,_STL::_Select1st<_STL::pair<unsigned long const ,_STL::basic_string<char,_STL::char_traits<char>,_STL::allocator<char> > > >,_STL::less<unsigned long>,_STL::allocator<_STL::pair<unsigned long const ,_STL::basic_string<char,_STL::char_traits<char>,_STL::allocator<char> > > > >::insert_unique, COMDAT
; _this$ = ecx

; 426  : {

  00000	55		 push	 ebp
  00001	8b ec		 mov	 ebp, esp
  00003	51		 push	 ecx
  00004	51		 push	 ecx
  00005	53		 push	 ebx
  00006	56		 push	 esi

; 427  :   if (__position._M_node == this->_M_header._M_data->_M_left) { // begin()

  00007	8b 75 0c	 mov	 esi, DWORD PTR ___position$[ebp]
  0000a	57		 push	 edi
  0000b	8b f9		 mov	 edi, ecx
  0000d	8b 07		 mov	 eax, DWORD PTR [edi]
  0000f	3b 70 08	 cmp	 esi, DWORD PTR [eax+8]
  00012	75 63		 jne	 SHORT $L101685

; 428  : 
; 429  :     // if the container is empty, fall back on insert_unique.
; 430  :     if (size() <= 0)

  00014	83 7f 04 00	 cmp	 DWORD PTR [edi+4], 0
  00018	77 08		 ja	 SHORT $L101686

; 431  :       return insert_unique(__v).first;

  0001a	ff 75 10	 push	 DWORD PTR ___v$[ebp]
  0001d	e9 eb 00 00 00	 jmp	 $L103920
$L101686:

; 432  : 
; 433  :     if ( _M_key_compare(_KeyOfValue()(__v), _S_key(__position._M_node)))

  00022	8b 5d 10	 mov	 ebx, DWORD PTR ___v$[ebp]
  00025	8b 03		 mov	 eax, DWORD PTR [ebx]
  00027	8b 4e 10	 mov	 ecx, DWORD PTR [esi+16]
  0002a	3b c8		 cmp	 ecx, eax
  0002c	76 07		 jbe	 SHORT $L103921

; 434  :       return _M_insert(__position._M_node, __position._M_node, __v);

  0002e	6a 00		 push	 0
  00030	e9 88 00 00 00	 jmp	 $L103925
$L103921:

; 435  :     // first argument just needs to be non-null 
; 436  :     else
; 437  :       {
; 438  : 	bool __comp_pos_v = _M_key_compare( _S_key(__position._M_node), _KeyOfValue()(__v) );
; 439  : 	
; 440  : 	if (__comp_pos_v == false)  // compare > and compare < both false so compare equal

  00035	72 0a		 jb	 SHORT $L101713
$L103918:

; 441  : 	  return __position;

  00037	8b 45 08	 mov	 eax, DWORD PTR ___$ReturnUdt$[ebp]
  0003a	89 30		 mov	 DWORD PTR [eax], esi
  0003c	e9 de 00 00 00	 jmp	 $L101756
$L101713:

; 442  : 	//Below __comp_pos_v == true
; 443  : 
; 444  : 	// Standard-conformance - does the insertion point fall immediately AFTER
; 445  : 	// the hint?
; 446  : 	iterator __after = __position;
; 447  : 	++__after;

  00041	56		 push	 esi
  00042	e8 00 00 00 00	 call	 ?_M_increment@?$_Rb_global@_N@_STL@@SAPAU_Rb_tree_node_base@2@PAU32@@Z ; _STL::_Rb_global<bool>::_M_increment

; 448  : 
; 449  : 	// Check for only one member -- in that case, __position points to itself,
; 450  : 	// and attempting to increment will cause an infinite loop.
; 451  : 	if (__after._M_node == this->_M_header._M_data)

  00047	3b 07		 cmp	 eax, DWORD PTR [edi]
  00049	59		 pop	 ecx
  0004a	75 05		 jne	 SHORT $L101715

; 452  : 	  // Check guarantees exactly one member, so comparison was already
; 453  : 	  // performed and we know the result; skip repeating it in _M_insert
; 454  : 	  // by specifying a non-zero fourth argument.
; 455  : 	  return _M_insert(0, __position._M_node, __v, __position._M_node);

  0004c	56		 push	 esi
  0004d	53		 push	 ebx
  0004e	56		 push	 esi
  0004f	eb 3a		 jmp	 SHORT $L103926
$L101715:

; 456  : 		
; 457  : 	
; 458  : 	// All other cases:
; 459  : 	
; 460  : 	// Optimization to catch insert-equivalent -- save comparison results,
; 461  : 	// and we get this for free.
; 462  : 	if(_M_key_compare( _KeyOfValue()(__v), _S_key(__after._M_node) )) {

  00051	8b 0b		 mov	 ecx, DWORD PTR [ebx]
  00053	3b 48 10	 cmp	 ecx, DWORD PTR [eax+16]
  00056	0f 83 b0 00 00
	00		 jae	 $L101755

; 463  : 	  if (_S_right(__position._M_node) == 0)
; 464  : 	    return _M_insert(0, __position._M_node, __v, __position._M_node);

  0005c	e9 8e 00 00 00	 jmp	 $L101749
$L101719:

; 465  : 	  else
; 466  : 	    return _M_insert(__after._M_node, __after._M_node, __v);

  00061	51		 push	 ecx
  00062	53		 push	 ebx
  00063	50		 push	 eax
  00064	50		 push	 eax
$L103923:
  00065	ff 75 08	 push	 DWORD PTR ___$ReturnUdt$[ebp]
  00068	8b cf		 mov	 ecx, edi
  0006a	e8 00 00 00 00	 call	 ?_M_insert@?$_Rb_tree@KU?$pair@$$CBKV?$basic_string@DV?$char_traits@D@_STL@@V?$allocator@D@2@@_STL@@@_STL@@U?$_Select1st@U?$pair@$$CBKV?$basic_string@DV?$char_traits@D@_STL@@V?$allocator@D@2@@_STL@@@_STL@@@2@U?$less@K@2@V?$allocator@U?$pair@$$CBKV?$basic_string@DV?$char_traits@D@_STL@@V?$allocator@D@2@@_STL@@@_STL@@@2@@_STL@@AAE?AU?$_Rb_tree_iterator@U?$pair@$$CBKV?$basic_string@DV?$char_traits@D@_STL@@V?$allocator@D@2@@_STL@@@_STL@@U?$_Nonconst_traits@U?$pair@$$CBKV?$basic_string@DV?$char_traits@D@_STL@@V?$allocator@D@2@@_STL@@@_STL@@@2@@2@PAU_Rb_tree_node_base@2@0ABU?$pair@$$CBKV?$basic_string@DV?$char_traits@D@_STL@@V?$allocator@D@2@@_STL@@@2@0@Z ; _STL::_Rb_tree<unsigned long,_STL::pair<unsigned long const ,_STL::basic_string<char,_STL::char_traits<char>,_STL::allocator<char> > >,_STL::_Select1st<_STL::pair<unsigned long const ,_STL::basic_string<char,_STL::char_traits<char>,_STL::allocator<char> > > >,_STL::less<unsigned long>,_STL::allocator<_STL::pair<unsigned long const ,_STL::basic_string<char,_STL::char_traits<char>,_STL::allocator<char> > > > >::_M_insert
  0006f	8b 45 08	 mov	 eax, DWORD PTR ___$ReturnUdt$[ebp]

; 467  : 	} else {
; 468  : 	    return insert_unique(__v).first;

  00072	e9 a8 00 00 00	 jmp	 $L101756
$L101685:

; 469  : 	}
; 470  :       }
; 471  : 
; 472  :   } else if (__position._M_node == this->_M_header._M_data) { // end()

  00077	3b f0		 cmp	 esi, eax
  00079	75 17		 jne	 SHORT $L101726

; 473  :     if (_M_key_compare(_S_key(_M_rightmost()), _KeyOfValue()(__v)))

  0007b	8b 40 0c	 mov	 eax, DWORD PTR [eax+12]
  0007e	8b 50 10	 mov	 edx, DWORD PTR [eax+16]
  00081	8b 4d 10	 mov	 ecx, DWORD PTR ___v$[ebp]
  00084	3b 11		 cmp	 edx, DWORD PTR [ecx]
  00086	73 07		 jae	 SHORT $L101728

; 474  :       // pass along to _M_insert that it can skip comparing
; 475  :       // v, Key ; since compare Key, v was true, compare v, Key must be false.
; 476  :       return _M_insert(0, _M_rightmost(), __v, __position._M_node); // Last argument only needs to be non-null

  00088	56		 push	 esi
  00089	51		 push	 ecx
  0008a	50		 push	 eax
$L103926:
  0008b	6a 00		 push	 0
  0008d	eb d6		 jmp	 SHORT $L103923
$L101728:

; 477  :     else
; 478  :       return insert_unique(__v).first;

  0008f	51		 push	 ecx
  00090	eb 7b		 jmp	 SHORT $L103920
$L101726:

; 479  :   } else {
; 480  :     iterator __before = __position;
; 481  :     --__before;

  00092	56		 push	 esi
  00093	e8 00 00 00 00	 call	 ?_M_decrement@?$_Rb_global@_N@_STL@@SAPAU_Rb_tree_node_base@2@PAU32@@Z ; _STL::_Rb_global<bool>::_M_decrement

; 482  :     
; 483  :     bool __comp_v_pos = _M_key_compare(_KeyOfValue()(__v), _S_key(__position._M_node));

  00098	8b 5d 10	 mov	 ebx, DWORD PTR ___v$[ebp]
  0009b	59		 pop	 ecx
  0009c	8b 0b		 mov	 ecx, DWORD PTR [ebx]
  0009e	3b 4e 10	 cmp	 ecx, DWORD PTR [esi+16]
  000a1	0f 92 45 13	 setb	 BYTE PTR ___comp_v_pos$101734[ebp]

; 484  : 
; 485  :     if (__comp_v_pos
; 486  :       && _M_key_compare( _S_key(__before._M_node), _KeyOfValue()(__v) )) {

  000a5	80 7d 13 00	 cmp	 BYTE PTR ___comp_v_pos$101734[ebp], 0
  000a9	74 17		 je	 SHORT $L101737
  000ab	39 48 10	 cmp	 DWORD PTR [eax+16], ecx
  000ae	73 12		 jae	 SHORT $L101737

; 487  : 
; 488  :       if (_S_right(__before._M_node) == 0)

  000b0	33 c9		 xor	 ecx, ecx
  000b2	39 48 0c	 cmp	 DWORD PTR [eax+12], ecx
  000b5	75 05		 jne	 SHORT $L101738

; 489  :         return _M_insert(0, __before._M_node, __v, __before._M_node); // Last argument only needs to be non-null

  000b7	50		 push	 eax
  000b8	53		 push	 ebx
  000b9	50		 push	 eax
  000ba	eb 41		 jmp	 SHORT $L103924
$L101738:

; 490  :       else
; 491  :         return _M_insert(__position._M_node, __position._M_node, __v);

  000bc	51		 push	 ecx
$L103925:
  000bd	53		 push	 ebx
  000be	56		 push	 esi
  000bf	56		 push	 esi
  000c0	eb a3		 jmp	 SHORT $L103923
$L101737:

; 492  :     // first argument just needs to be non-null 
; 493  :     } else
; 494  :       {
; 495  : 	// Does the insertion point fall immediately AFTER the hint?
; 496  : 	iterator __after = __position;
; 497  : 	++__after;

  000c2	56		 push	 esi
  000c3	e8 00 00 00 00	 call	 ?_M_increment@?$_Rb_global@_N@_STL@@SAPAU_Rb_tree_node_base@2@PAU32@@Z ; _STL::_Rb_global<bool>::_M_increment

; 498  : 	
; 499  : 	// Optimization to catch equivalent cases and avoid unnecessary comparisons
; 500  : 	bool __comp_pos_v = !__comp_v_pos;  // Stored this result earlier

  000c8	80 7d 13 00	 cmp	 BYTE PTR ___comp_v_pos$101734[ebp], 0
  000cc	59		 pop	 ecx
  000cd	0f 94 c2	 sete	 dl

; 501  : 	// If the earlier comparison was true, this comparison doesn't need to be
; 502  : 	// performed because it must be false.  However, if the earlier comparison
; 503  : 	// was false, we need to perform this one because in the equal case, both will
; 504  : 	// be false.
; 505  : 	if (!__comp_v_pos) __comp_pos_v = _M_key_compare(_S_key(__position._M_node), _KeyOfValue()(__v));

  000d0	80 7d 13 00	 cmp	 BYTE PTR ___comp_v_pos$101734[ebp], 0
  000d4	75 2d		 jne	 SHORT $L103919
  000d6	8b 0b		 mov	 ecx, DWORD PTR [ebx]
  000d8	39 4e 10	 cmp	 DWORD PTR [esi+16], ecx
  000db	0f 92 c2	 setb	 dl

; 506  : 	
; 507  : 	if ( (!__comp_v_pos) // comp_v_pos true implies comp_v_pos false
; 508  : 	     && __comp_pos_v
; 509  : 	     && (__after._M_node == this->_M_header._M_data ||
; 510  : 	        _M_key_compare( _KeyOfValue()(__v), _S_key(__after._M_node) ))) {

  000de	84 d2		 test	 dl, dl
  000e0	0f 84 51 ff ff
	ff		 je	 $L103918
  000e6	3b 07		 cmp	 eax, DWORD PTR [edi]
  000e8	74 05		 je	 SHORT $L101749
  000ea	3b 48 10	 cmp	 ecx, DWORD PTR [eax+16]
  000ed	73 14		 jae	 SHORT $L103919
$L101749:

; 511  : 	  
; 512  : 	  if (_S_right(__position._M_node) == 0)

  000ef	33 c9		 xor	 ecx, ecx
  000f1	39 4e 0c	 cmp	 DWORD PTR [esi+12], ecx
  000f4	0f 85 67 ff ff
	ff		 jne	 $L101719

; 513  : 	    return _M_insert(0, __position._M_node, __v, __position._M_node);

  000fa	56		 push	 esi
  000fb	53		 push	 ebx
  000fc	56		 push	 esi
$L103924:
  000fd	51		 push	 ecx
  000fe	e9 62 ff ff ff	 jmp	 $L103923
$L103919:

; 514  : 	  else
; 515  : 	    return _M_insert(__after._M_node, __after._M_node, __v);
; 516  : 	} else {
; 517  : 	  // Test for equivalent case
; 518  : 	  if (__comp_v_pos == __comp_pos_v)

  00103	38 55 13	 cmp	 BYTE PTR ___comp_v_pos$101734[ebp], dl

; 519  : 	    return __position;

  00106	0f 84 2b ff ff
	ff		 je	 $L103918
$L101755:

; 520  : 	  else
; 521  : 	    return insert_unique(__v).first;

  0010c	53		 push	 ebx
$L103920:
  0010d	8d 45 f8	 lea	 eax, DWORD PTR $T103690[ebp]
  00110	8b cf		 mov	 ecx, edi
  00112	50		 push	 eax
  00113	e8 00 00 00 00	 call	 ?insert_unique@?$_Rb_tree@KU?$pair@$$CBKV?$basic_string@DV?$char_traits@D@_STL@@V?$allocator@D@2@@_STL@@@_STL@@U?$_Select1st@U?$pair@$$CBKV?$basic_string@DV?$char_traits@D@_STL@@V?$allocator@D@2@@_STL@@@_STL@@@2@U?$less@K@2@V?$allocator@U?$pair@$$CBKV?$basic_string@DV?$char_traits@D@_STL@@V?$allocator@D@2@@_STL@@@_STL@@@2@@_STL@@QAE?AU?$pair@U?$_Rb_tree_iterator@U?$pair@$$CBKV?$basic_string@DV?$char_traits@D@_STL@@V?$allocator@D@2@@_STL@@@_STL@@U?$_Nonconst_traits@U?$pair@$$CBKV?$basic_string@DV?$char_traits@D@_STL@@V?$allocator@D@2@@_STL@@@_STL@@@2@@_STL@@_N@2@ABU?$pair@$$CBKV?$basic_string@DV?$char_traits@D@_STL@@V?$allocator@D@2@@_STL@@@2@@Z ; _STL::_Rb_tree<unsigned long,_STL::pair<unsigned long const ,_STL::basic_string<char,_STL::char_traits<char>,_STL::allocator<char> > >,_STL::_Select1st<_STL::pair<unsigned long const ,_STL::basic_string<char,_STL::char_traits<char>,_STL::allocator<char> > > >,_STL::less<unsigned long>,_STL::allocator<_STL::pair<unsigned long const ,_STL::basic_string<char,_STL::char_traits<char>,_STL::allocator<char> > > > >::insert_unique
  00118	8b 08		 mov	 ecx, DWORD PTR [eax]
  0011a	8b 45 08	 mov	 eax, DWORD PTR ___$ReturnUdt$[ebp]
  0011d	89 08		 mov	 DWORD PTR [eax], ecx
$L101756:
  0011f	5f		 pop	 edi
  00120	5e		 pop	 esi
  00121	5b		 pop	 ebx

; 522  : 	}
; 523  :       }
; 524  :   }
; 525  : }

  00122	c9		 leave
  00123	c2 0c 00	 ret	 12			; 0000000cH
?insert_unique@?$_Rb_tree@KU?$pair@$$CBKV?$basic_string@DV?$char_traits@D@_STL@@V?$allocator@D@2@@_STL@@@_STL@@U?$_Select1st@U?$pair@$$CBKV?$basic_string@DV?$char_traits@D@_STL@@V?$allocator@D@2@@_STL@@@_STL@@@2@U?$less@K@2@V?$allocator@U?$pair@$$CBKV?$basic_string@DV?$char_traits@D@_STL@@V?$allocator@D@2@@_STL@@@_STL@@@2@@_STL@@QAE?AU?$_Rb_tree_iterator@U?$pair@$$CBKV?$basic_string@DV?$char_traits@D@_STL@@V?$allocator@D@2@@_STL@@@_STL@@U?$_Nonconst_traits@U?$pair@$$CBKV?$basic_string@DV?$char_traits@D@_STL@@V?$allocator@D@2@@_STL@@@_STL@@@2@@2@U32@ABU?$pair@$$CBKV?$basic_string@DV?$char_traits@D@_STL@@V?$allocator@D@2@@_STL@@@2@@Z ENDP ; _STL::_Rb_tree<unsigned long,_STL::pair<unsigned long const ,_STL::basic_string<char,_STL::char_traits<char>,_STL::allocator<char> > >,_STL::_Select1st<_STL::pair<unsigned long const ,_STL::basic_string<char,_STL::char_traits<char>,_STL::allocator<char> > > >,_STL::less<unsigned long>,_STL::allocator<_STL::pair<unsigned long const ,_STL::basic_string<char,_STL::char_traits<char>,_STL::allocator<char> > > > >::insert_unique
_TEXT	ENDS
PUBLIC	?insert@?$map@KV?$basic_string@DV?$char_traits@D@_STL@@V?$allocator@D@2@@_STL@@U?$less@K@2@V?$allocator@U?$pair@$$CBKV?$basic_string@DV?$char_traits@D@_STL@@V?$allocator@D@2@@_STL@@@_STL@@@2@@_STL@@QAE?AU?$_Rb_tree_iterator@U?$pair@$$CBKV?$basic_string@DV?$char_traits@D@_STL@@V?$allocator@D@2@@_STL@@@_STL@@U?$_Nonconst_traits@U?$pair@$$CBKV?$basic_string@DV?$char_traits@D@_STL@@V?$allocator@D@2@@_STL@@@_STL@@@2@@2@U32@ABU?$pair@$$CBKV?$basic_string@DV?$char_traits@D@_STL@@V?$allocator@D@2@@_STL@@@2@@Z ; _STL::map<unsigned long,_STL::basic_string<char,_STL::char_traits<char>,_STL::allocator<char> >,_STL::less<unsigned long>,_STL::allocator<_STL::pair<unsigned long const ,_STL::basic_string<char,_STL::char_traits<char>,_STL::allocator<char> > > > >::insert
; Function compile flags: /Ogsy
; File c:\stlport-4.6.1\stlport\stl\_map.h
;	COMDAT ?insert@?$map@KV?$basic_string@DV?$char_traits@D@_STL@@V?$allocator@D@2@@_STL@@U?$less@K@2@V?$allocator@U?$pair@$$CBKV?$basic_string@DV?$char_traits@D@_STL@@V?$allocator@D@2@@_STL@@@_STL@@@2@@_STL@@QAE?AU?$_Rb_tree_iterator@U?$pair@$$CBKV?$basic_string@DV?$char_traits@D@_STL@@V?$allocator@D@2@@_STL@@@_STL@@U?$_Nonconst_traits@U?$pair@$$CBKV?$basic_string@DV?$char_traits@D@_STL@@V?$allocator@D@2@@_STL@@@_STL@@@2@@2@U32@ABU?$pair@$$CBKV?$basic_string@DV?$char_traits@D@_STL@@V?$allocator@D@2@@_STL@@@2@@Z
_TEXT	SEGMENT
___$ReturnUdt$ = 8					; size = 4
_position$ = 12						; size = 4
___x$ = 16						; size = 4
?insert@?$map@KV?$basic_string@DV?$char_traits@D@_STL@@V?$allocator@D@2@@_STL@@U?$less@K@2@V?$allocator@U?$pair@$$CBKV?$basic_string@DV?$char_traits@D@_STL@@V?$allocator@D@2@@_STL@@@_STL@@@2@@_STL@@QAE?AU?$_Rb_tree_iterator@U?$pair@$$CBKV?$basic_string@DV?$char_traits@D@_STL@@V?$allocator@D@2@@_STL@@@_STL@@U?$_Nonconst_traits@U?$pair@$$CBKV?$basic_string@DV?$char_traits@D@_STL@@V?$allocator@D@2@@_STL@@@_STL@@@2@@2@U32@ABU?$pair@$$CBKV?$basic_string@DV?$char_traits@D@_STL@@V?$allocator@D@2@@_STL@@@2@@Z PROC NEAR ; _STL::map<unsigned long,_STL::basic_string<char,_STL::char_traits<char>,_STL::allocator<char> >,_STL::less<unsigned long>,_STL::allocator<_STL::pair<unsigned long const ,_STL::basic_string<char,_STL::char_traits<char>,_STL::allocator<char> > > > >::insert, COMDAT
; _this$ = ecx

; 172  :     { return _M_t.insert_unique(position, __x); }

  00000	ff 74 24 0c	 push	 DWORD PTR ___x$[esp-4]
  00004	8b 54 24 0c	 mov	 edx, DWORD PTR _position$[esp]
  00008	51		 push	 ecx
  00009	8b c4		 mov	 eax, esp
  0000b	ff 74 24 0c	 push	 DWORD PTR ___$ReturnUdt$[esp+4]
  0000f	89 10		 mov	 DWORD PTR [eax], edx
  00011	e8 00 00 00 00	 call	 ?insert_unique@?$_Rb_tree@KU?$pair@$$CBKV?$basic_string@DV?$char_traits@D@_STL@@V?$allocator@D@2@@_STL@@@_STL@@U?$_Select1st@U?$pair@$$CBKV?$basic_string@DV?$char_traits@D@_STL@@V?$allocator@D@2@@_STL@@@_STL@@@2@U?$less@K@2@V?$allocator@U?$pair@$$CBKV?$basic_string@DV?$char_traits@D@_STL@@V?$allocator@D@2@@_STL@@@_STL@@@2@@_STL@@QAE?AU?$_Rb_tree_iterator@U?$pair@$$CBKV?$basic_string@DV?$char_traits@D@_STL@@V?$allocator@D@2@@_STL@@@_STL@@U?$_Nonconst_traits@U?$pair@$$CBKV?$basic_string@DV?$char_traits@D@_STL@@V?$allocator@D@2@@_STL@@@_STL@@@2@@2@U32@ABU?$pair@$$CBKV?$basic_string@DV?$char_traits@D@_STL@@V?$allocator@D@2@@_STL@@@2@@Z ; _STL::_Rb_tree<unsigned long,_STL::pair<unsigned long const ,_STL::basic_string<char,_STL::char_traits<char>,_STL::allocator<char> > >,_STL::_Select1st<_STL::pair<unsigned long const ,_STL::basic_string<char,_STL::char_traits<char>,_STL::allocator<char> > > >,_STL::less<unsigned long>,_STL::allocator<_STL::pair<unsigned long const ,_STL::basic_string<char,_STL::char_traits<char>,_STL::allocator<char> > > > >::insert_unique
  00016	8b 44 24 04	 mov	 eax, DWORD PTR ___$ReturnUdt$[esp-4]
  0001a	c2 0c 00	 ret	 12			; 0000000cH
?insert@?$map@KV?$basic_string@DV?$char_traits@D@_STL@@V?$allocator@D@2@@_STL@@U?$less@K@2@V?$allocator@U?$pair@$$CBKV?$basic_string@DV?$char_traits@D@_STL@@V?$allocator@D@2@@_STL@@@_STL@@@2@@_STL@@QAE?AU?$_Rb_tree_iterator@U?$pair@$$CBKV?$basic_string@DV?$char_traits@D@_STL@@V?$allocator@D@2@@_STL@@@_STL@@U?$_Nonconst_traits@U?$pair@$$CBKV?$basic_string@DV?$char_traits@D@_STL@@V?$allocator@D@2@@_STL@@@_STL@@@2@@2@U32@ABU?$pair@$$CBKV?$basic_string@DV?$char_traits@D@_STL@@V?$allocator@D@2@@_STL@@@2@@Z ENDP ; _STL::map<unsigned long,_STL::basic_string<char,_STL::char_traits<char>,_STL::allocator<char> >,_STL::less<unsigned long>,_STL::allocator<_STL::pair<unsigned long const ,_STL::basic_string<char,_STL::char_traits<char>,_STL::allocator<char> > > > >::insert
_TEXT	ENDS
PUBLIC	??A?$map@KV?$basic_string@DV?$char_traits@D@_STL@@V?$allocator@D@2@@_STL@@U?$less@K@2@V?$allocator@U?$pair@$$CBKV?$basic_string@DV?$char_traits@D@_STL@@V?$allocator@D@2@@_STL@@@_STL@@@2@@_STL@@QAEAAV?$basic_string@DV?$char_traits@D@_STL@@V?$allocator@D@2@@1@ABK@Z ; _STL::map<unsigned long,_STL::basic_string<char,_STL::char_traits<char>,_STL::allocator<char> >,_STL::less<unsigned long>,_STL::allocator<_STL::pair<unsigned long const ,_STL::basic_string<char,_STL::char_traits<char>,_STL::allocator<char> > > > >::operator[]
;	COMDAT xdata$x
; File c:\stlport-4.6.1\stlport\stl\_tree.h
xdata$x	SEGMENT
$T104086 DD	0ffffffffH
	DD	FLAT:$L103943
	DD	00H
	DD	FLAT:$L103944
$T104084 DD	019930520H
	DD	02H
	DD	FLAT:$T104086
	DD	2 DUP(00H)
	DD	2 DUP(00H)
; Function compile flags: /Ogsy
; File c:\stlport-4.6.1\stlport\stl\_map.h
xdata$x	ENDS
;	COMDAT ??A?$map@KV?$basic_string@DV?$char_traits@D@_STL@@V?$allocator@D@2@@_STL@@U?$less@K@2@V?$allocator@U?$pair@$$CBKV?$basic_string@DV?$char_traits@D@_STL@@V?$allocator@D@2@@_STL@@@_STL@@@2@@_STL@@QAEAAV?$basic_string@DV?$char_traits@D@_STL@@V?$allocator@D@2@@1@ABK@Z
_TEXT	SEGMENT
$T103939 = -44						; size = 16
$T103940 = -28						; size = 12
$T103942 = -16						; size = 4
__$EHRec$ = -12						; size = 12
$T103941 = 8						; size = 4
___k$ = 8						; size = 4
??A?$map@KV?$basic_string@DV?$char_traits@D@_STL@@V?$allocator@D@2@@_STL@@U?$less@K@2@V?$allocator@U?$pair@$$CBKV?$basic_string@DV?$char_traits@D@_STL@@V?$allocator@D@2@@_STL@@@_STL@@@2@@_STL@@QAEAAV?$basic_string@DV?$char_traits@D@_STL@@V?$allocator@D@2@@1@ABK@Z PROC NEAR ; _STL::map<unsigned long,_STL::basic_string<char,_STL::char_traits<char>,_STL::allocator<char> >,_STL::less<unsigned long>,_STL::allocator<_STL::pair<unsigned long const ,_STL::basic_string<char,_STL::char_traits<char>,_STL::allocator<char> > > > >::operator[], COMDAT
; _this$ = ecx

; 158  :   _Tp& operator[](const key_type& __k) {

  00000	b8 00 00 00 00	 mov	 eax, __ehhandler$??A?$map@KV?$basic_string@DV?$char_traits@D@_STL@@V?$allocator@D@2@@_STL@@U?$less@K@2@V?$allocator@U?$pair@$$CBKV?$basic_string@DV?$char_traits@D@_STL@@V?$allocator@D@2@@_STL@@@_STL@@@2@@_STL@@QAEAAV?$basic_string@DV?$char_traits@D@_STL@@V?$allocator@D@2@@1@ABK@Z
  00005	e8 00 00 00 00	 call	 __EH_prolog
  0000a	83 ec 20	 sub	 esp, 32			; 00000020H
  0000d	53		 push	 ebx

; 159  :     iterator __i = lower_bound(__k);

  0000e	8b 5d 08	 mov	 ebx, DWORD PTR ___k$[ebp]
  00011	56		 push	 esi
  00012	57		 push	 edi
  00013	53		 push	 ebx
  00014	8b f9		 mov	 edi, ecx
  00016	e8 00 00 00 00	 call	 ?_M_lower_bound@?$_Rb_tree@KU?$pair@$$CBKV?$basic_string@DV?$char_traits@D@_STL@@V?$allocator@D@2@@_STL@@@_STL@@U?$_Select1st@U?$pair@$$CBKV?$basic_string@DV?$char_traits@D@_STL@@V?$allocator@D@2@@_STL@@@_STL@@@2@U?$less@K@2@V?$allocator@U?$pair@$$CBKV?$basic_string@DV?$char_traits@D@_STL@@V?$allocator@D@2@@_STL@@@_STL@@@2@@_STL@@ABEPAU?$_Rb_tree_node@U?$pair@$$CBKV?$basic_string@DV?$char_traits@D@_STL@@V?$allocator@D@2@@_STL@@@_STL@@@2@ABK@Z ; _STL::_Rb_tree<unsigned long,_STL::pair<unsigned long const ,_STL::basic_string<char,_STL::char_traits<char>,_STL::allocator<char> > >,_STL::_Select1st<_STL::pair<unsigned long const ,_STL::basic_string<char,_STL::char_traits<char>,_STL::allocator<char> > > >,_STL::less<unsigned long>,_STL::allocator<_STL::pair<unsigned long const ,_STL::basic_string<char,_STL::char_traits<char>,_STL::allocator<char> > > > >::_M_lower_bound
  0001b	8b f0		 mov	 esi, eax

; 160  :     // __i->first is greater than or equivalent to __k.
; 161  :     if (__i == end() || key_comp()(__k, (*__i).first))

  0001d	3b 37		 cmp	 esi, DWORD PTR [edi]
  0001f	74 07		 je	 SHORT $L101396
  00021	8b 03		 mov	 eax, DWORD PTR [ebx]
  00023	3b 46 10	 cmp	 eax, DWORD PTR [esi+16]
  00026	73 52		 jae	 SHORT $L104076
$L101396:

; 162  :       __i = insert(__i, value_type(__k, _STLP_DEFAULT_CONSTRUCTED(_Tp)));

  00028	8d 4d e4	 lea	 ecx, DWORD PTR $T103940[ebp]
  0002b	e8 00 00 00 00	 call	 ??0?$basic_string@DV?$char_traits@D@_STL@@V?$allocator@D@2@@_STL@@QAE@XZ ; _STL::basic_string<char,_STL::char_traits<char>,_STL::allocator<char> >::basic_string<char,_STL::char_traits<char>,_STL::allocator<char> >
  00030	83 65 fc 00	 and	 DWORD PTR __$EHRec$[ebp+8], 0
  00034	50		 push	 eax
  00035	53		 push	 ebx
  00036	8d 4d d4	 lea	 ecx, DWORD PTR $T103939[ebp]
  00039	e8 00 00 00 00	 call	 ??0?$pair@$$CBKV?$basic_string@DV?$char_traits@D@_STL@@V?$allocator@D@2@@_STL@@@_STL@@QAE@ABKABV?$basic_string@DV?$char_traits@D@_STL@@V?$allocator@D@2@@1@@Z ; _STL::pair<unsigned long const ,_STL::basic_string<char,_STL::char_traits<char>,_STL::allocator<char> > >::pair<unsigned long const ,_STL::basic_string<char,_STL::char_traits<char>,_STL::allocator<char> > >
  0003e	50		 push	 eax
  0003f	51		 push	 ecx
  00040	8b c4		 mov	 eax, esp
  00042	89 30		 mov	 DWORD PTR [eax], esi
  00044	8d 45 f0	 lea	 eax, DWORD PTR $T103942[ebp]
  00047	89 65 08	 mov	 DWORD PTR $T103941[ebp], esp
  0004a	50		 push	 eax
  0004b	8b cf		 mov	 ecx, edi
  0004d	c6 45 fc 01	 mov	 BYTE PTR __$EHRec$[ebp+8], 1
  00051	e8 00 00 00 00	 call	 ?insert@?$map@KV?$basic_string@DV?$char_traits@D@_STL@@V?$allocator@D@2@@_STL@@U?$less@K@2@V?$allocator@U?$pair@$$CBKV?$basic_string@DV?$char_traits@D@_STL@@V?$allocator@D@2@@_STL@@@_STL@@@2@@_STL@@QAE?AU?$_Rb_tree_iterator@U?$pair@$$CBKV?$basic_string@DV?$char_traits@D@_STL@@V?$allocator@D@2@@_STL@@@_STL@@U?$_Nonconst_traits@U?$pair@$$CBKV?$basic_string@DV?$char_traits@D@_STL@@V?$allocator@D@2@@_STL@@@_STL@@@2@@2@U32@ABU?$pair@$$CBKV?$basic_string@DV?$char_traits@D@_STL@@V?$allocator@D@2@@_STL@@@2@@Z ; _STL::map<unsigned long,_STL::basic_string<char,_STL::char_traits<char>,_STL::allocator<char> >,_STL::less<unsigned long>,_STL::allocator<_STL::pair<unsigned long const ,_STL::basic_string<char,_STL::char_traits<char>,_STL::allocator<char> > > > >::insert
  00056	8b 30		 mov	 esi, DWORD PTR [eax]
  00058	8d 4d d8	 lea	 ecx, DWORD PTR $T103939[ebp+4]
  0005b	c6 45 fc 00	 mov	 BYTE PTR __$EHRec$[ebp+8], 0
  0005f	e8 00 00 00 00	 call	 ?_M_deallocate_block@?$_String_base@DV?$allocator@D@_STL@@@_STL@@QAEXXZ ; _STL::_String_base<char,_STL::allocator<char> >::_M_deallocate_block
  00064	8b 45 ec	 mov	 eax, DWORD PTR $T103940[ebp+8]
  00067	2b 45 e4	 sub	 eax, DWORD PTR $T103940[ebp]
  0006a	83 4d fc ff	 or	 DWORD PTR __$EHRec$[ebp+8], -1
  0006e	50		 push	 eax
  0006f	ff 75 e4	 push	 DWORD PTR $T103940[ebp]
  00072	8d 4d ec	 lea	 ecx, DWORD PTR $T103940[ebp+8]
  00075	e8 00 00 00 00	 call	 ?deallocate@?$allocator@D@_STL@@QAEXPADI@Z ; _STL::allocator<char>::deallocate
$L104076:

; 163  :     return (*__i).second;
; 164  :   }

  0007a	8b 4d f4	 mov	 ecx, DWORD PTR __$EHRec$[ebp]
  0007d	5f		 pop	 edi
  0007e	8d 46 14	 lea	 eax, DWORD PTR [esi+20]
  00081	5e		 pop	 esi
  00082	64 89 0d 00 00
	00 00		 mov	 DWORD PTR fs:__except_list, ecx
  00089	5b		 pop	 ebx
  0008a	c9		 leave
  0008b	c2 04 00	 ret	 4
_TEXT	ENDS
;	COMDAT text$x
text$x	SEGMENT
$L103943:
  00000	8d 4d e4	 lea	 ecx, DWORD PTR $T103940[ebp]
  00003	e9 00 00 00 00	 jmp	 ??1?$basic_string@DV?$char_traits@D@_STL@@V?$allocator@D@2@@_STL@@QAE@XZ ; _STL::basic_string<char,_STL::char_traits<char>,_STL::allocator<char> >::~basic_string<char,_STL::char_traits<char>,_STL::allocator<char> >
$L103944:
  00008	8d 4d d4	 lea	 ecx, DWORD PTR $T103939[ebp]
  0000b	e9 00 00 00 00	 jmp	 ??1?$pair@$$CBKV?$basic_string@DV?$char_traits@D@_STL@@V?$allocator@D@2@@_STL@@@_STL@@QAE@XZ
__ehhandler$??A?$map@KV?$basic_string@DV?$char_traits@D@_STL@@V?$allocator@D@2@@_STL@@U?$less@K@2@V?$allocator@U?$pair@$$CBKV?$basic_string@DV?$char_traits@D@_STL@@V?$allocator@D@2@@_STL@@@_STL@@@2@@_STL@@QAEAAV?$basic_string@DV?$char_traits@D@_STL@@V?$allocator@D@2@@1@ABK@Z:
  00010	b8 00 00 00 00	 mov	 eax, OFFSET FLAT:$T104084
  00015	e9 00 00 00 00	 jmp	 ___CxxFrameHandler
text$x	ENDS
??A?$map@KV?$basic_string@DV?$char_traits@D@_STL@@V?$allocator@D@2@@_STL@@U?$less@K@2@V?$allocator@U?$pair@$$CBKV?$basic_string@DV?$char_traits@D@_STL@@V?$allocator@D@2@@_STL@@@_STL@@@2@@_STL@@QAEAAV?$basic_string@DV?$char_traits@D@_STL@@V?$allocator@D@2@@1@ABK@Z ENDP ; _STL::map<unsigned long,_STL::basic_string<char,_STL::char_traits<char>,_STL::allocator<char> >,_STL::less<unsigned long>,_STL::allocator<_STL::pair<unsigned long const ,_STL::basic_string<char,_STL::char_traits<char>,_STL::allocator<char> > > > >::operator[]
PUBLIC	??_C@_0BI@BDNJJNKH@?$FLNPGAMEMON_COMM_ERROR?$FN?5?$AA@ ; `string'
PUBLIC	??_C@_0BI@DFMBHHFD@?$FLNPGAMEMON_COMM_CLOSE?$FN?5?$AA@ ; `string'
PUBLIC	??_C@_0BI@NJEBGOEO@?$FLNPGAMEMON_INIT_ERROR?$FN?5?$AA@ ; `string'
PUBLIC	??_C@_0BH@JBBJLLKG@?$FLNPGAMEMON_SPEEDHACK?$FN?5?$AA@ ; `string'
PUBLIC	??_C@_0BN@PEGKFGKF@?$FLNPGAMEMON_GAMEHACK_KILLED?$FN?5?$AA@ ; `string'
PUBLIC	??_C@_0BN@NABLKNGF@?$FLNPGAMEMON_GAMEHACK_DETECT?$FN?5?$AA@ ; `string'
PUBLIC	??_C@_0CA@BBKIMAIF@?$FLNPGAMEMON_UNDEFINED?$FN?5nProtect?5?$AA@ ; `string'
PUBLIC	??_C@_0JC@LGOLHCHF@?$LA?T?$MA?S?$LA?$KB?$LF?e?5?$LN?G?G?$OA?5?A?$NP?5?$LP?$KB?$LH?$KP?$LA?$KB?5?$LJ?$NP?$LL?$PN?G?O?$LP?$LE@ ; `string'
PUBLIC	?RunNPROTECT@@YAHXZ				; RunNPROTECT
EXTRN	__imp__wsprintfA:NEAR
EXTRN	_SetCallbackToGameMon:NEAR
EXTRN	?g_nProtectMessage@@3V?$map@KV?$basic_string@DV?$char_traits@D@_STL@@V?$allocator@D@2@@_STL@@U?$less@K@2@V?$allocator@U?$pair@$$CBKV?$basic_string@DV?$char_traits@D@_STL@@V?$allocator@D@2@@_STL@@@_STL@@@2@@_STL@@A:BYTE ; g_nProtectMessage
;	COMDAT ??_C@_0BI@BDNJJNKH@?$FLNPGAMEMON_COMM_ERROR?$FN?5?$AA@
; File c:\darkeden\designed_common\project\client\npgamelib.h
CONST	SEGMENT
??_C@_0BI@BDNJJNKH@?$FLNPGAMEMON_COMM_ERROR?$FN?5?$AA@ DB '[NPGAMEMON_COM'
	DB	'M_ERROR] ', 00H				; `string'
CONST	ENDS
;	COMDAT ??_C@_0BI@DFMBHHFD@?$FLNPGAMEMON_COMM_CLOSE?$FN?5?$AA@
CONST	SEGMENT
??_C@_0BI@DFMBHHFD@?$FLNPGAMEMON_COMM_CLOSE?$FN?5?$AA@ DB '[NPGAMEMON_COM'
	DB	'M_CLOSE] ', 00H				; `string'
CONST	ENDS
;	COMDAT ??_C@_0BI@NJEBGOEO@?$FLNPGAMEMON_INIT_ERROR?$FN?5?$AA@
CONST	SEGMENT
??_C@_0BI@NJEBGOEO@?$FLNPGAMEMON_INIT_ERROR?$FN?5?$AA@ DB '[NPGAMEMON_INI'
	DB	'T_ERROR] ', 00H				; `string'
CONST	ENDS
;	COMDAT ??_C@_0BH@JBBJLLKG@?$FLNPGAMEMON_SPEEDHACK?$FN?5?$AA@
CONST	SEGMENT
??_C@_0BH@JBBJLLKG@?$FLNPGAMEMON_SPEEDHACK?$FN?5?$AA@ DB '[NPGAMEMON_SPEE'
	DB	'DHACK] ', 00H				; `string'
CONST	ENDS
;	COMDAT ??_C@_0BN@PEGKFGKF@?$FLNPGAMEMON_GAMEHACK_KILLED?$FN?5?$AA@
CONST	SEGMENT
??_C@_0BN@PEGKFGKF@?$FLNPGAMEMON_GAMEHACK_KILLED?$FN?5?$AA@ DB '[NPGAMEMO'
	DB	'N_GAMEHACK_KILLED] ', 00H			; `string'
CONST	ENDS
;	COMDAT ??_C@_0BN@NABLKNGF@?$FLNPGAMEMON_GAMEHACK_DETECT?$FN?5?$AA@
CONST	SEGMENT
??_C@_0BN@NABLKNGF@?$FLNPGAMEMON_GAMEHACK_DETECT?$FN?5?$AA@ DB '[NPGAMEMO'
	DB	'N_GAMEHACK_DETECT] ', 00H			; `string'
CONST	ENDS
;	COMDAT ??_C@_0CA@BBKIMAIF@?$FLNPGAMEMON_UNDEFINED?$FN?5nProtect?5?$AA@
CONST	SEGMENT
??_C@_0CA@BBKIMAIF@?$FLNPGAMEMON_UNDEFINED?$FN?5nProtect?5?$AA@ DB '[NPGA'
	DB	'MEMON_UNDEFINED] nProtect ', 00H		; `string'
CONST	ENDS
;	COMDAT ??_C@_0JC@LGOLHCHF@?$LA?T?$MA?S?$LA?$KB?$LF?e?5?$LN?G?G?$OA?5?A?$NP?5?$LP?$KB?$LH?$KP?$LA?$KB?5?$LJ?$NP?$LL?$PN?G?O?$LP?$LE@
CONST	SEGMENT
??_C@_0JC@LGOLHCHF@?$LA?T?$MA?S?$LA?$KB?$LF?e?5?$LN?G?G?$OA?5?A?$NP?5?$LP?$KB?$LH?$KP?$LA?$KB?5?$LJ?$NP?$LL?$PN?G?O?$LP?$LE@ DB 0b0H
	DB	0d4H, 0c0H, 0d3H, 0b0H, 0a1H, 0b5H, 0e5H, ' ', 0bdH, 0c7H, 0c7H
	DB	0e0H, ' ', 0c1H, 0dfH, ' ', 0bfH, 0a1H, 0b7H, 0afH, 0b0H, 0a1H
	DB	' ', 0b9H, 0dfH, 0bbH, 0fdH, 0c7H, 0cfH, 0bfH, 0b4H, 0bdH, 0c0H
	DB	0b4H, 0cfH, 0b4H, 0d9H, '. ', 0b0H, 0d4H, 0c0H, 0d3H, ' ', 0c6H
	DB	0faH, 0b4H, 0f5H, ' ', 0beH, 0c8H, 0c0H, 0c7H, ' GameGuard ', 0c6H
	DB	0faH, 0b4H, 0f5H, 0bfH, 0a1H, ' ', 0c0H, 0d6H, 0b4H, 0c2H, ' *'
	DB	'.erl ', 0c6H, 0c4H, 0c0H, 0cfH, 0b5H, 0e9H, 0c0H, 0bbH, ' Gam'
	DB	'e1@inca.co.kr', 0b7H, 0ceH, ' ', 0c3H, 0b7H, 0baH, 0ceH, 0c7H
	DB	0cfH, 0bfH, 0a9H, ' ', 0b8H, 0deH, 0c0H, 0cfH, ' ', 0baH, 0b8H
	DB	0b3H, 0bbH, 0c1H, 0d6H, 0bdH, 0c3H, 0b1H, 0e2H, ' ', 0b9H, 0d9H
	DB	0b6H, 0f8H, 0b4H, 0cfH, 0b4H, 0d9H, '.', 00H	; `string'
; Function compile flags: /Ogsy
; File c:\darkeden\designed_common\project\client\nprotect.cpp
CONST	ENDS
;	COMDAT ?RunNPROTECT@@YAHXZ
_TEXT	SEGMENT
$T104098 = -128						; size = 4
$T104097 = -128						; size = 4
$T104096 = -128						; size = 4
$T104095 = -128						; size = 4
$T104094 = -128						; size = 4
$T104093 = -128						; size = 4
$T104092 = -128						; size = 4
_msg$101255 = -124					; size = 512
__$ArrayPad$ = 388					; size = 4
__$ReturnAddr$ = 396					; size = 4
?RunNPROTECT@@YAHXZ PROC NEAR				; RunNPROTECT, COMDAT

; 129  : {	

  00000	55		 push	 ebp
  00001	8d ac 24 78 fe
	ff ff		 lea	 ebp, DWORD PTR [esp-392]
  00008	81 ec 08 02 00
	00		 sub	 esp, 520		; 00000208H
  0000e	a1 00 00 00 00	 mov	 eax, DWORD PTR ___security_cookie
  00013	56		 push	 esi
  00014	89 85 84 01 00
	00		 mov	 DWORD PTR __$ArrayPad$[ebp], eax

; 130  : 	//zzi - 클로벌 서비스에는 nProtect를 안 쓴다고 한다. 무조건.. OK....
; 131  : #ifdef __DESIGNED_INTERNATION
; 132  : 	return NPROTECT_OK;
; 133  : #endif
; 134  : 	//-
; 135  : #ifdef __OLD_VERSION__
; 136  : 	int		ExecuteResult;
; 137  : 
; 138  : 
; 139  : 	g_nProtectMessage[NPROTECT_NORMAL]= "알 수 없는 오류 입니다. 다크에덴을 종료합니다.";
; 140  : 	g_nProtectMessage[NPROTECT_EXIT_TWO] = "nProtect 에 의해 다크에덴이 종료됩니다.(1)";
; 141  : 	g_nProtectMessage[NPROTECT_FORCE_EXIT] = "nProtect 에 의해 다크에덴이 종료됩니다.(2)";
; 142  : 	g_nProtectMessage[NPROTECT_SPEEDHACK] = "스피드핵이 발견되어 다크에덴이 종료됩니다.";
; 143  : 	g_nProtectMessage[NPROTECT_SOFTICE] = "게임핵이 발견되어 다크에덴이 종료됩니다.";
; 144  : 	g_nProtectMessage[NPROTECT_SH_ERROR] ="nProtect 에 의해 다크에덴이 종료됩니다(SHERROR)";
; 145  : 	g_nProtectMessage[NPROTECT_CHECK_ERROR] = "nProtect Check 에러에 의해 다크에덴이 종료됩니다.";	
; 146  : 	
; 147  : 	DEBUG_ADD("[nProtect] Execute nProtect");
; 148  : 	ExecuteResult = spawnl(P_WAIT, "findhack.exe","findhack.exe",NULL);
; 149  : 	
; 150  : 	switch(ExecuteResult)
; 151  : 	{
; 152  : 	case 1024 :				// 메모리상에 해킹툴이 존재하지 않을 경우
; 153  : 		DEBUG_ADD("[nProtect] Cannot Find Hacking program");
; 154  : 		break;
; 155  : 	case 1025 :				// 메모리상에 해킹툴이 존재하나 정상적으로 치료를 했을 경우
; 156  : 		DEBUG_ADD("[nProtect] Find Hacking program. - fixed it.");
; 157  : 		break;
; 158  : 	case 1026 :				// 메모리상의 해킹툴을 감지했으나 사용자가 치료를 선택하지 않거나 프로그램에서 정상적으로 치료를 하지 못했을 경우
; 159  : 		DEBUG_ADD("[nProtect] did not Fix Hacking program.");		
; 160  : 		return NPROTECT_EXECUTE_ERROR_DID_NOT_FIX;		
; 161  : 	case 1027 :				// 해킹툴 진단 프로그램이 정상적으로 다운로드 되지 않았을 경우(URL이 잘못되었거나 서버가 정상적으로 동작하지 않을 경우)
; 162  : 		DEBUG_ADD("[nProtect] Can not download check program");
; 163  : 		return NPROTECT_EXECUTE_ERROR_CANNOT_DOWNLOAD;		
; 164  : 	case 1028 :				// NPX.DLL 등록 에러 및 nProtect 구동에 필요한 파일이 없을 경우
; 165  : 		DEBUG_ADD("[nProtect] Cannot Find DLL File");
; 166  : 		return NPROTECT_EXECUTE_ERROR_CANNOT_FIND_DLL;
; 167  : 	case 1029 :				// 프로그램내에서 예외사항이 발생했을 경우
; 168  : 		DEBUG_ADD("[nProtect] Occured Exception in nProtect");
; 169  : 		return NPROTECT_EXECUTE_ERROR_EXCEPTION;
; 170  : 	case 1030 :				// 사용자가 종료 버튼을 클랙했을 경우의 처리값
; 171  : 		DEBUG_ADD("[nProtect] Quit nProtect by user");
; 172  : 		return NPROTECT_EXECUTE_ERROR;
; 173  : 	case 1031 :				// 업데이트 서버 접속을 실패한 경우
; 174  : 		DEBUG_ADD("[nProtect] Cannot connect updateserver");
; 175  : 		return NPROTECT_CANNOT_UPDATE;
; 176  : 	}
; 177  : 
; 178  : 	DEBUG_ADD("[nProtect] Ok");
; 179  : 	
; 180  : 	if( ( g_nProtectInstance = LoadLibrary(FILE_NPROTECT_DLL)) == NULL )
; 181  : 		return NPROTECT_CANNOT_FIND_DLL;	
; 182  : /*
; 183  : 	char szBuffer[256] = {0,};
; 184  : 	if( GetSystemDirectory( szBuffer, 256) == 0)
; 185  : 		return NPROTECT_ERROR_GET_WINDOWS_DIRECTORY;
; 186  : 	strcat( szBuffer, "\\NPMON.EXE");	
; 187  : 	bool	Result;
; 188  : 	Result = ChecknProtectCRC(g_nProtectInstance, "FindHack.exe");
; 189  : 	Result |=ChecknProtectCRC(g_nProtectInstance, szBuffer );
; 190  : 	
; 191  : 	if(!Result)
; 192  : 	{
; 193  : 		FreeLibrary( g_nProtectInstance );
; 194  : 		g_nProtectInstance = NULL;
; 195  : 		return NPROTECT_ERROR_CRC_CHECK;	
; 196  : 	}
; 197  : */
; 198  : 	if( (pCheckNPMON = (MYCHECKNPMON *)GetProcAddress(g_nProtectInstance, "CheckNPMON")) == NULL)
; 199  : 		return NPROTECT_ERROR_NOT_EXIST_CHECK_NPMON;	
; 200  : 	
; 201  : #ifdef __RUN_GAMEHACK__
; 202  : 	if( LoadLibraryNPFGM() == false )
; 203  : 		return NPROTECT_ERROR_LOAD_DLL_GAMEHACK;
; 204  : 
; 205  : 	EnterGameHack();
; 206  : #endif
; 207  : 
; 208  : 
; 209  : #endif // __OLD_VERSION__
; 210  : 
; 211  : #ifndef __OLD_VERSION__
; 212  : //	g_nProtectMessage[NPGAMEMON_COMM_ERROR] = "[NPGAMEMON_COMM_ERROR] nProtect와의 통신에 에러가 발생하여 다크에덴을 종료합니다.";
; 213  : //	g_nProtectMessage[NPGAMEMON_COMM_CLOSE] = "[NPGAMEMON_COMM_CLOSE] nProtect와의 통신이 닫혀 다크에덴을 종료합니다.";
; 214  : //	g_nProtectMessage[NPGAMEMON_INIT_ERROR] = "[NPGAMEMON_INIT_ERROR] 초기화 에러입니다. 다크에덴을 종료합니다.";
; 215  : //	g_nProtectMessage[NPGAMEMON_SPEEDHACK] = "[NPGAMEMON_SPEEDHACK] 스피드핵이 발견되어 다크에덴을 종료합니다.";
; 216  : //	g_nProtectMessage[NPGAMEMON_GAMEHACK_KILLED] = "[NPGAMEMON_GAMEHACK_KILLED] 게임핵이 발견되었습니다. 다크에덴을 종료합니다.";
; 217  : //	g_nProtectMessage[NPGAMEMON_GAMEHACK_DETECT] = "[NPGAMEMON_GAMEHACK_DETECT] 게임핵이 감지되어 다크에덴을 종료합니다.";
; 218  : //	g_nProtectMessage[NPGAMEMON_UNDEFINED] = "[NPGAMEMON_UNDEFINED] nProtect 관련 문제가 발생하여 다크에덴이 종료됩니다.";
; 219  : 
; 220  : 	g_nProtectMessage[NPGAMEMON_COMM_ERROR] = "[NPGAMEMON_COMM_ERROR] ";

  0001a	68 00 00 00 00	 push	 OFFSET FLAT:??_C@_0BI@BDNJJNKH@?$FLNPGAMEMON_COMM_ERROR?$FN?5?$AA@
  0001f	8d 45 80	 lea	 eax, DWORD PTR $T104092[ebp]
  00022	be 00 00 00 00	 mov	 esi, OFFSET FLAT:?g_nProtectMessage@@3V?$map@KV?$basic_string@DV?$char_traits@D@_STL@@V?$allocator@D@2@@_STL@@U?$less@K@2@V?$allocator@U?$pair@$$CBKV?$basic_string@DV?$char_traits@D@_STL@@V?$allocator@D@2@@_STL@@@_STL@@@2@@_STL@@A
  00027	50		 push	 eax
  00028	8b ce		 mov	 ecx, esi
  0002a	c7 45 80 e9 03
	00 00		 mov	 DWORD PTR $T104092[ebp], 1001 ; 000003e9H
  00031	e8 00 00 00 00	 call	 ??A?$map@KV?$basic_string@DV?$char_traits@D@_STL@@V?$allocator@D@2@@_STL@@U?$less@K@2@V?$allocator@U?$pair@$$CBKV?$basic_string@DV?$char_traits@D@_STL@@V?$allocator@D@2@@_STL@@@_STL@@@2@@_STL@@QAEAAV?$basic_string@DV?$char_traits@D@_STL@@V?$allocator@D@2@@1@ABK@Z ; _STL::map<unsigned long,_STL::basic_string<char,_STL::char_traits<char>,_STL::allocator<char> >,_STL::less<unsigned long>,_STL::allocator<_STL::pair<unsigned long const ,_STL::basic_string<char,_STL::char_traits<char>,_STL::allocator<char> > > > >::operator[]
  00036	8b c8		 mov	 ecx, eax
  00038	e8 00 00 00 00	 call	 ??4?$basic_string@DV?$char_traits@D@_STL@@V?$allocator@D@2@@_STL@@QAEAAV01@PBD@Z ; _STL::basic_string<char,_STL::char_traits<char>,_STL::allocator<char> >::operator=

; 221  : 	g_nProtectMessage[NPGAMEMON_COMM_CLOSE] = "[NPGAMEMON_COMM_CLOSE] ";

  0003d	68 00 00 00 00	 push	 OFFSET FLAT:??_C@_0BI@DFMBHHFD@?$FLNPGAMEMON_COMM_CLOSE?$FN?5?$AA@
  00042	8d 45 80	 lea	 eax, DWORD PTR $T104093[ebp]
  00045	50		 push	 eax
  00046	8b ce		 mov	 ecx, esi
  00048	c7 45 80 ea 03
	00 00		 mov	 DWORD PTR $T104093[ebp], 1002 ; 000003eaH
  0004f	e8 00 00 00 00	 call	 ??A?$map@KV?$basic_string@DV?$char_traits@D@_STL@@V?$allocator@D@2@@_STL@@U?$less@K@2@V?$allocator@U?$pair@$$CBKV?$basic_string@DV?$char_traits@D@_STL@@V?$allocator@D@2@@_STL@@@_STL@@@2@@_STL@@QAEAAV?$basic_string@DV?$char_traits@D@_STL@@V?$allocator@D@2@@1@ABK@Z ; _STL::map<unsigned long,_STL::basic_string<char,_STL::char_traits<char>,_STL::allocator<char> >,_STL::less<unsigned long>,_STL::allocator<_STL::pair<unsigned long const ,_STL::basic_string<char,_STL::char_traits<char>,_STL::allocator<char> > > > >::operator[]
  00054	8b c8		 mov	 ecx, eax
  00056	e8 00 00 00 00	 call	 ??4?$basic_string@DV?$char_traits@D@_STL@@V?$allocator@D@2@@_STL@@QAEAAV01@PBD@Z ; _STL::basic_string<char,_STL::char_traits<char>,_STL::allocator<char> >::operator=

; 222  : 	g_nProtectMessage[NPGAMEMON_INIT_ERROR] = "[NPGAMEMON_INIT_ERROR] ";

  0005b	68 00 00 00 00	 push	 OFFSET FLAT:??_C@_0BI@NJEBGOEO@?$FLNPGAMEMON_INIT_ERROR?$FN?5?$AA@
  00060	8d 45 80	 lea	 eax, DWORD PTR $T104094[ebp]
  00063	50		 push	 eax
  00064	8b ce		 mov	 ecx, esi
  00066	c7 45 80 f6 03
	00 00		 mov	 DWORD PTR $T104094[ebp], 1014 ; 000003f6H
  0006d	e8 00 00 00 00	 call	 ??A?$map@KV?$basic_string@DV?$char_traits@D@_STL@@V?$allocator@D@2@@_STL@@U?$less@K@2@V?$allocator@U?$pair@$$CBKV?$basic_string@DV?$char_traits@D@_STL@@V?$allocator@D@2@@_STL@@@_STL@@@2@@_STL@@QAEAAV?$basic_string@DV?$char_traits@D@_STL@@V?$allocator@D@2@@1@ABK@Z ; _STL::map<unsigned long,_STL::basic_string<char,_STL::char_traits<char>,_STL::allocator<char> >,_STL::less<unsigned long>,_STL::allocator<_STL::pair<unsigned long const ,_STL::basic_string<char,_STL::char_traits<char>,_STL::allocator<char> > > > >::operator[]
  00072	8b c8		 mov	 ecx, eax
  00074	e8 00 00 00 00	 call	 ??4?$basic_string@DV?$char_traits@D@_STL@@V?$allocator@D@2@@_STL@@QAEAAV01@PBD@Z ; _STL::basic_string<char,_STL::char_traits<char>,_STL::allocator<char> >::operator=

; 223  : 	g_nProtectMessage[NPGAMEMON_SPEEDHACK] = "[NPGAMEMON_SPEEDHACK] ";

  00079	68 00 00 00 00	 push	 OFFSET FLAT:??_C@_0BH@JBBJLLKG@?$FLNPGAMEMON_SPEEDHACK?$FN?5?$AA@
  0007e	8d 45 80	 lea	 eax, DWORD PTR $T104095[ebp]
  00081	50		 push	 eax
  00082	8b ce		 mov	 ecx, esi
  00084	c7 45 80 f3 03
	00 00		 mov	 DWORD PTR $T104095[ebp], 1011 ; 000003f3H
  0008b	e8 00 00 00 00	 call	 ??A?$map@KV?$basic_string@DV?$char_traits@D@_STL@@V?$allocator@D@2@@_STL@@U?$less@K@2@V?$allocator@U?$pair@$$CBKV?$basic_string@DV?$char_traits@D@_STL@@V?$allocator@D@2@@_STL@@@_STL@@@2@@_STL@@QAEAAV?$basic_string@DV?$char_traits@D@_STL@@V?$allocator@D@2@@1@ABK@Z ; _STL::map<unsigned long,_STL::basic_string<char,_STL::char_traits<char>,_STL::allocator<char> >,_STL::less<unsigned long>,_STL::allocator<_STL::pair<unsigned long const ,_STL::basic_string<char,_STL::char_traits<char>,_STL::allocator<char> > > > >::operator[]
  00090	8b c8		 mov	 ecx, eax
  00092	e8 00 00 00 00	 call	 ??4?$basic_string@DV?$char_traits@D@_STL@@V?$allocator@D@2@@_STL@@QAEAAV01@PBD@Z ; _STL::basic_string<char,_STL::char_traits<char>,_STL::allocator<char> >::operator=

; 224  : 	g_nProtectMessage[NPGAMEMON_GAMEHACK_KILLED] = "[NPGAMEMON_GAMEHACK_KILLED] ";

  00097	68 00 00 00 00	 push	 OFFSET FLAT:??_C@_0BN@PEGKFGKF@?$FLNPGAMEMON_GAMEHACK_KILLED?$FN?5?$AA@
  0009c	8d 45 80	 lea	 eax, DWORD PTR $T104096[ebp]
  0009f	50		 push	 eax
  000a0	8b ce		 mov	 ecx, esi
  000a2	c7 45 80 f4 03
	00 00		 mov	 DWORD PTR $T104096[ebp], 1012 ; 000003f4H
  000a9	e8 00 00 00 00	 call	 ??A?$map@KV?$basic_string@DV?$char_traits@D@_STL@@V?$allocator@D@2@@_STL@@U?$less@K@2@V?$allocator@U?$pair@$$CBKV?$basic_string@DV?$char_traits@D@_STL@@V?$allocator@D@2@@_STL@@@_STL@@@2@@_STL@@QAEAAV?$basic_string@DV?$char_traits@D@_STL@@V?$allocator@D@2@@1@ABK@Z ; _STL::map<unsigned long,_STL::basic_string<char,_STL::char_traits<char>,_STL::allocator<char> >,_STL::less<unsigned long>,_STL::allocator<_STL::pair<unsigned long const ,_STL::basic_string<char,_STL::char_traits<char>,_STL::allocator<char> > > > >::operator[]
  000ae	8b c8		 mov	 ecx, eax
  000b0	e8 00 00 00 00	 call	 ??4?$basic_string@DV?$char_traits@D@_STL@@V?$allocator@D@2@@_STL@@QAEAAV01@PBD@Z ; _STL::basic_string<char,_STL::char_traits<char>,_STL::allocator<char> >::operator=

; 225  : 	g_nProtectMessage[NPGAMEMON_GAMEHACK_DETECT] = "[NPGAMEMON_GAMEHACK_DETECT] ";

  000b5	68 00 00 00 00	 push	 OFFSET FLAT:??_C@_0BN@NABLKNGF@?$FLNPGAMEMON_GAMEHACK_DETECT?$FN?5?$AA@
  000ba	8d 45 80	 lea	 eax, DWORD PTR $T104097[ebp]
  000bd	50		 push	 eax
  000be	8b ce		 mov	 ecx, esi
  000c0	c7 45 80 f5 03
	00 00		 mov	 DWORD PTR $T104097[ebp], 1013 ; 000003f5H
  000c7	e8 00 00 00 00	 call	 ??A?$map@KV?$basic_string@DV?$char_traits@D@_STL@@V?$allocator@D@2@@_STL@@U?$less@K@2@V?$allocator@U?$pair@$$CBKV?$basic_string@DV?$char_traits@D@_STL@@V?$allocator@D@2@@_STL@@@_STL@@@2@@_STL@@QAEAAV?$basic_string@DV?$char_traits@D@_STL@@V?$allocator@D@2@@1@ABK@Z ; _STL::map<unsigned long,_STL::basic_string<char,_STL::char_traits<char>,_STL::allocator<char> >,_STL::less<unsigned long>,_STL::allocator<_STL::pair<unsigned long const ,_STL::basic_string<char,_STL::char_traits<char>,_STL::allocator<char> > > > >::operator[]
  000cc	8b c8		 mov	 ecx, eax
  000ce	e8 00 00 00 00	 call	 ??4?$basic_string@DV?$char_traits@D@_STL@@V?$allocator@D@2@@_STL@@QAEAAV01@PBD@Z ; _STL::basic_string<char,_STL::char_traits<char>,_STL::allocator<char> >::operator=

; 226  : 	g_nProtectMessage[NPGAMEMON_UNDEFINED] = "[NPGAMEMON_UNDEFINED] nProtect ";

  000d3	68 00 00 00 00	 push	 OFFSET FLAT:??_C@_0CA@BBKIMAIF@?$FLNPGAMEMON_UNDEFINED?$FN?5nProtect?5?$AA@
  000d8	8d 45 80	 lea	 eax, DWORD PTR $T104098[ebp]
  000db	50		 push	 eax
  000dc	8b ce		 mov	 ecx, esi
  000de	c7 45 80 e8 03
	00 00		 mov	 DWORD PTR $T104098[ebp], 1000 ; 000003e8H
  000e5	e8 00 00 00 00	 call	 ??A?$map@KV?$basic_string@DV?$char_traits@D@_STL@@V?$allocator@D@2@@_STL@@U?$less@K@2@V?$allocator@U?$pair@$$CBKV?$basic_string@DV?$char_traits@D@_STL@@V?$allocator@D@2@@_STL@@@_STL@@@2@@_STL@@QAEAAV?$basic_string@DV?$char_traits@D@_STL@@V?$allocator@D@2@@1@ABK@Z ; _STL::map<unsigned long,_STL::basic_string<char,_STL::char_traits<char>,_STL::allocator<char> >,_STL::less<unsigned long>,_STL::allocator<_STL::pair<unsigned long const ,_STL::basic_string<char,_STL::char_traits<char>,_STL::allocator<char> > > > >::operator[]
  000ea	8b c8		 mov	 ecx, eax
  000ec	e8 00 00 00 00	 call	 ??4?$basic_string@DV?$char_traits@D@_STL@@V?$allocator@D@2@@_STL@@QAEAAV01@PBD@Z ; _STL::basic_string<char,_STL::char_traits<char>,_STL::allocator<char> >::operator=

; 227  : 
; 228  : 
; 229  : //#ifdef __REAL_SERVER__
; 230  : //	DWORD dwResult = npgl.Init(g_hWnd,"DarkEden");
; 231  : //#elif defined(__TEST_SERVER__)
; 232  : //#endif
; 233  : 	//DWORD dwResult = npgl.Init(g_hWnd);
; 234  : 
; 235  : 	DWORD dwResult = npgl.Init();

  000f1	e8 00 00 00 00	 call	 _InitNPGameMon

; 236  : 	if (dwResult != NPGAMEMON_SUCCESS)

  000f6	3d 55 07 00 00	 cmp	 eax, 1877		; 00000755H
  000fb	5e		 pop	 esi
  000fc	74 2c		 je	 SHORT $L101254

; 237  :     {
; 238  : 		// 적절한 종료 메시지 출력
; 239  : 		TCHAR msg[512];
; 240  : 		
; 241  : //		switch( dwResult )
; 242  : 		{
; 243  : /*		case 110 :
; 244  : 			wsprintf(msg, "[110] 이미 nProtect가 실행되어 있습니다.\r\n다시 DarkEden을 실행해 주세요.");
; 245  : 			break;		
; 246  : 		case 112 :
; 247  : 			wsprintf(msg, "[112] 바이러스 및 해킹 툴 검사 모듈 로딩에 실패했습니다.\r\n바이러스에 감염되어 있을 수도 있으니 최신 백신으로 검사해보시기 바랍니다.");
; 248  : 			break;
; 249  : 		case 122 :
; 250  : 			wsprintf(msg, "[122] nProtect 의 GameMon 파일이 정상적이지 않습니다.");
; 251  : 			break;
; 252  : 		case 140 :
; 253  : 			wsprintf(msg, "[140] nProtect를 Update 할 수 없습니다.\r\n현재 인터넷 연결이 올바른지 확인하여 주시고\r\n그래도 문제가 없으면 운영팀에 문의해주세요.");
; 254  : 			break;		
; 255  : 		case 120 :
; 256  : 		case 150 :
; 257  : 		case 180 :
; 258  : 			{
; 259  : 				char szBuffer[256];
; 260  : 				GetCurrentDirectory(255, szBuffer );
; 261  : 				wsprintf(msg, "ErrorCode[%d] 에러 입니다.\r\nnProtect를 실행하는데 필요한 파일을 찾을수 없습니다.\r\n다크에덴홈페이지(http://www.darkeden.com)에서 직접 다운로드받아\r\n%s 폴더에 압축을 풀면 해결될 수 있습니다.",dwResult,szBuffer);
; 262  : 			}
; 263  : 			break;
; 264  : 		case 151 :
; 265  : 			wsprintf(msg, "[151] 게임가드 업데이트 모듈이 없거나 변조되었습니다. 바이러스 검사를 해보신 후\r\n게임가드 셋업파일을 다운받아 게임 가드 폴더에 다시 설치 해주세요.");
; 266  : 			break;
; 267  : 		case 210 :			
; 268  : 		case 220 :
; 269  : 		case 230 :
; 270  : 			CheckWindowVersion();
; 271  : 			wsprintf(msg, "[%d][%d/%d] nProtect GameGuard 초기화 에러 입니다.\r\n게임을 실행할 수 없습니다.\r\nDarkEden폴더의 GameGuard폴더에 있는 파일들을 압축하여\r\nnprotect_help@inca.co.kr로 보내주세요.", dwResult,g_OsVersion[0],g_OsVersion[1]);
; 272  : 			break;
; 273  : 		case 340 :
; 274  : 			wsprintf(msg, "[340] nProtect 의 다운로드에 실패하였습니다. \r\n네트워크 상태가 좋지 않거나, 인터넷 설정에 문제가 있을 수 있습니다.");
; 275  : 			break;
; 276  : 		case 360 :
; 277  : 			wsprintf(msg, "[360] 바이러스가 있어서 게임을 실행할 수 없습니다.\r\n최신 백신으로 바이러스를 치료하신후에 게임을\r\n실행해주세요.");
; 278  : 			break;
; 279  : 		case NPGMUP_ERROR_DECRYPT :
; 280  : 			wsprintf(msg, "[370] nProtect Decrypt Error");			
; 281  : 			break;
; 282  : 		case 380 :
; 283  : 			wsprintf(msg, "[380] 게임가드 업데이트 서버 접속에 실패하였습니다.\r\n잠시 후 다시 시도해주세요.");			
; 284  : 			break;
; 285  : 		case 390 :
; 286  : 			wsprintf(msg, "[390] INI 파일에 문제가 있습니다.");
; 287  : 			break;
; 288  : 		default :
; 289  : 			wsprintf(msg, "nProtect GameGuard 실행 에러 : %lu", dwResult);
; 290  : 			break;
; 291  : 		case 110 :
; 292  : 			wsprintf(msg, "[110] 이미 nProtect가 실행되어 있습니다.\r\n다시 DarkEden을 실행해 주세요.");
; 293  : 			break;		
; 294  : 		case 112 :
; 295  : 			wsprintf(msg, "[112] 바이러스 및 해킹 툴 검사 모듈 로딩에 실패했습니다.\r\n바이러스에 감염되어 있을 수도 있으니 최신 백신으로 검사해보시기 바랍니다.");
; 296  : 			break;
; 297  : 		case 122 :
; 298  : 			wsprintf(msg, "[122] nProtect 의 GameMon 파일이 정상적이지 않습니다.");
; 299  : 			break;
; 300  : 		case 140 :
; 301  : 			wsprintf(msg, "[140] nProtect를 Update 할 수 없습니다.\r\n현재 인터넷 연결이 올바른지 확인하여 주시고\r\n그래도 문제가 없으면 운영팀에 문의해주세요.");
; 302  : 			break;		
; 303  : 		case 120 :
; 304  : 		case 150 :
; 305  : 		case 180 :
; 306  : 			{
; 307  : 				char szBuffer[256];
; 308  : 				GetCurrentDirectory(255, szBuffer );
; 309  : 				wsprintf(msg, "ErrorCode[%d] 에러 입니다.\r\nnProtect를 실행하는데 필요한 파일을 찾을수 없습니다.\r\n다크에덴홈페이지(http://www.darkeden.com)에서 직접 다운로드받아\r\n%s 폴더에 압축을 풀면 해결될 수 있습니다.",dwResult,szBuffer);
; 310  : 			}
; 311  : 			break;
; 312  : 		case 151 :
; 313  : 			wsprintf(msg, "[151] 게임가드 업데이트 모듈이 없거나 변조되었습니다. 바이러스 검사를 해보신 후\r\n게임가드 셋업파일을 다운받아 게임 가드 폴더에 다시 설치 해주세요.");
; 314  : 			break;
; 315  : 		case 210 :			
; 316  : 		case 220 :
; 317  : 		case 230 :
; 318  : 			CheckWindowVersion();
; 319  : 			wsprintf(msg, "[%d][%d/%d] nProtect GameGuard 초기화 에러 입니다.\r\n게임을 실행할 수 없습니다.\r\nDarkEden폴더의 GameGuard폴더에 있는 파일들을 압축하여\r\nnprotect_help@inca.co.kr로 보내주세요.", dwResult,g_OsVersion[0],g_OsVersion[1]);
; 320  : 			break;
; 321  : 		case 340 :
; 322  : 			wsprintf(msg, "[340] nProtect 의 다운로드에 실패하였습니다. \r\n네트워크 상태가 좋지 않거나, 인터넷 설정에 문제가 있을 수 있습니다.");
; 323  : 			break;
; 324  : 		case 360 :
; 325  : 			wsprintf(msg, "[360] 바이러스가 있어서 게임을 실행할 수 없습니다.\r\n최신 백신으로 바이러스를 치료하신후에 게임을\r\n실행해주세요.");
; 326  : 			break;
; 327  : 		case NPGMUP_ERROR_DECRYPT :
; 328  : 			wsprintf(msg, "[370] nProtect Decrypt Error");			
; 329  : 			break;
; 330  : 		case 380 :
; 331  : 			wsprintf(msg, "[380] 게임가드 업데이트 서버 접속에 실패하였습니다.\r\n잠시 후 다시 시도해주세요.");			
; 332  : 			break;
; 333  : 		case 390 :
; 334  : 			wsprintf(msg, "[390] INI 파일에 문제가 있습니다.");
; 335  : 			break;
; 336  : 		default :
; 337  : 			wsprintf(msg, "nProtect GameGuard 실행 에러 : %lu", dwResult);
; 338  : 			break;
; 339  : */
; 340  : //		default :
; 341  : 			//wsprintf(msg, "nProtect GameGuard Error : %lu", dwResult);
; 342  : 
; 343  : 			wsprintf(msg, "게임가드 실행 중 에러가 발생하였습니다. 게임 폴더 안의 GameGuard 폴더에 있는 *.erl 파일들을 Game1@inca.co.kr로 첨부하여 메일 보내주시기 바랍니다.") ; 

  000fe	8d 45 84	 lea	 eax, DWORD PTR _msg$101255[ebp]
  00101	68 00 00 00 00	 push	 OFFSET FLAT:??_C@_0JC@LGOLHCHF@?$LA?T?$MA?S?$LA?$KB?$LF?e?5?$LN?G?G?$OA?5?A?$NP?5?$LP?$KB?$LH?$KP?$LA?$KB?5?$LJ?$NP?$LL?$PN?G?O?$LP?$LE@
  00106	50		 push	 eax
  00107	ff 15 00 00 00
	00		 call	 DWORD PTR __imp__wsprintfA
  0010d	59		 pop	 ecx
  0010e	59		 pop	 ecx

; 344  : 
; 345  : //			break;
; 346  : 		} 
; 347  : 
; 348  : 		
; 349  : 
; 350  : 
; 351  : 		MessageBox(g_hWnd, msg, "Error", MB_OK|MB_ICONERROR);

  0010f	6a 10		 push	 16			; 00000010H
  00111	68 00 00 00 00	 push	 OFFSET FLAT:??_C@_05NAOIJFC@Error?$AA@
  00116	8d 45 84	 lea	 eax, DWORD PTR _msg$101255[ebp]
  00119	50		 push	 eax
  0011a	ff 35 00 00 00
	00		 push	 DWORD PTR ?g_hWnd@@3PAUHWND__@@A ; g_hWnd
  00120	ff 15 00 00 00
	00		 call	 DWORD PTR __imp__MessageBoxA@16

; 352  : 		return NPROTECT_ERROR;

  00126	33 c0		 xor	 eax, eax
  00128	eb 1b		 jmp	 SHORT $L101238
$L101254:

; 353  :     }
; 354  : 	else
; 355  : 	{
; 356  : 		npgl.SetHwnd(g_hWnd);

  0012a	ff 35 00 00 00
	00		 push	 DWORD PTR ?g_hWnd@@3PAUHWND__@@A ; g_hWnd
  00130	e8 00 00 00 00	 call	 _SetHwndToGameMon

; 357  : 		SetCallbackToGameMon(NPGameMonCallback);

  00135	c7 04 24 00 00
	00 00		 mov	 DWORD PTR [esp], OFFSET FLAT:?NPGameMonCallback@@YGHKK@Z ; NPGameMonCallback
  0013c	e8 00 00 00 00	 call	 _SetCallbackToGameMon

; 358  : 	}
; 359  : 
; 360  : #endif
; 361  : 	
; 362  : 	return NPROTECT_OK;

  00141	33 c0		 xor	 eax, eax
  00143	59		 pop	 ecx
  00144	40		 inc	 eax
$L101238:

; 363  : }

  00145	8b 8d 84 01 00
	00		 mov	 ecx, DWORD PTR __$ArrayPad$[ebp]
  0014b	e8 00 00 00 00	 call	 @__security_check_cookie@4
  00150	81 c5 88 01 00
	00		 add	 ebp, 392		; 00000188H
  00156	c9		 leave
  00157	c3		 ret	 0
?RunNPROTECT@@YAHXZ ENDP				; RunNPROTECT
_TEXT	ENDS
END
