; Listing generated by Microsoft (R) Optimizing Compiler Version 13.10.3077 

	TITLE	\darkeden\Designed_Common\Project\Client\Packet\PacketIDSet.cpp
	.386P
include listing.inc
if @Version gt 510
.model FLAT
else
_TEXT	SEGMENT PARA USE32 PUBLIC 'CODE'
_TEXT	ENDS
_DATA	SEGMENT DWORD USE32 PUBLIC 'DATA'
_DATA	ENDS
CONST	SEGMENT DWORD USE32 PUBLIC 'CONST'
CONST	ENDS
_BSS	SEGMENT DWORD USE32 PUBLIC 'BSS'
_BSS	ENDS
$$SYMBOLS	SEGMENT BYTE USE32 'DEBSYM'
$$SYMBOLS	ENDS
$$TYPES	SEGMENT BYTE USE32 'DEBTYP'
$$TYPES	ENDS
_TLS	SEGMENT DWORD USE32 PUBLIC 'TLS'
_TLS	ENDS
;	COMDAT ??_C@_0CA@NDINADEE@SocketOutputStream?$CIm_BufferLen?3?$AA@
CONST	SEGMENT DWORD USE32 PUBLIC 'CONST'
CONST	ENDS
;	COMDAT ??_C@_08LIHEOLAN@?0m_Head?3?$AA@
CONST	SEGMENT DWORD USE32 PUBLIC 'CONST'
CONST	ENDS
;	COMDAT ??_C@_08PCEHPGHK@?0m_Tail?3?$AA@
CONST	SEGMENT DWORD USE32 PUBLIC 'CONST'
CONST	ENDS
;	COMDAT ??_C@_01PKGAHCOL@?$CJ?$AA@
CONST	SEGMENT DWORD USE32 PUBLIC 'CONST'
CONST	ENDS
;	COMDAT ??_C@_0N@KMJNFOII@PacketIDSet?$CI?$AA@
CONST	SEGMENT DWORD USE32 PUBLIC 'CONST'
CONST	ENDS
;	COMDAT ??_C@_0O@GBIOIEEF@PlayerStatus?3?$AA@
CONST	SEGMENT DWORD USE32 PUBLIC 'CONST'
CONST	ENDS
;	COMDAT ??_C@_09NJOBAPFF@PacketID?3?$AA@
CONST	SEGMENT DWORD USE32 PUBLIC 'CONST'
CONST	ENDS
;	COMDAT ??_C@_0N@GOPDCEEB@basic_string?$AA@
CONST	SEGMENT DWORD USE32 PUBLIC 'CONST'
CONST	ENDS
xdata$x	SEGMENT DWORD USE32 PUBLIC 'CONST'
xdata$x	ENDS
rdata$r	SEGMENT DWORD USE32 PUBLIC 'CONST'
rdata$r	ENDS
text$yc	SEGMENT PARA USE32 PUBLIC 'CODE'
text$yc	ENDS
CRT$XCA	SEGMENT DWORD USE32 PUBLIC 'DATA'
CRT$XCA	ENDS
CRT$XCU	SEGMENT DWORD USE32 PUBLIC 'DATA'
CRT$XCU	ENDS
CRT$XCL	SEGMENT DWORD USE32 PUBLIC 'DATA'
CRT$XCL	ENDS
CRT$XCC	SEGMENT DWORD USE32 PUBLIC 'DATA'
CRT$XCC	ENDS
CRT$XCZ	SEGMENT DWORD USE32 PUBLIC 'DATA'
CRT$XCZ	ENDS
text$yd	SEGMENT PARA USE32 PUBLIC 'CODE'
text$yd	ENDS
;	COMDAT ?getHost@SocketImpl@@QBE?AV?$basic_string@DV?$char_traits@D@_STL@@V?$allocator@D@2@@_STL@@XZ
_TEXT	SEGMENT PARA USE32 PUBLIC 'CODE'
_TEXT	ENDS
;	COMDAT ?getPort@SocketImpl@@QBEIXZ
_TEXT	SEGMENT PARA USE32 PUBLIC 'CODE'
_TEXT	ENDS
;	COMDAT ?isValid@SocketImpl@@QBE_NXZ
_TEXT	SEGMENT PARA USE32 PUBLIC 'CODE'
_TEXT	ENDS
;	COMDAT ?getSOCKET@SocketImpl@@QBEIXZ
_TEXT	SEGMENT PARA USE32 PUBLIC 'CODE'
_TEXT	ENDS
;	COMDAT ?write@SocketOutputStream@@QAEIG@Z
_TEXT	SEGMENT PARA USE32 PUBLIC 'CODE'
_TEXT	ENDS
;	COMDAT ?write@SocketOutputStream@@QAEII@Z
_TEXT	SEGMENT PARA USE32 PUBLIC 'CODE'
_TEXT	ENDS
;	COMDAT ??1Packet@@UAE@XZ
_TEXT	SEGMENT PARA USE32 PUBLIC 'CODE'
_TEXT	ENDS
;	COMDAT ?read@Packet@@UAEXPAVSocket@@@Z
_TEXT	SEGMENT PARA USE32 PUBLIC 'CODE'
_TEXT	ENDS
;	COMDAT ?write@Packet@@UBEXPAVSocket@@@Z
_TEXT	SEGMENT PARA USE32 PUBLIC 'CODE'
_TEXT	ENDS
;	COMDAT ??_GPacket@@UAEPAXI@Z
_TEXT	SEGMENT PARA USE32 PUBLIC 'CODE'
_TEXT	ENDS
;	COMDAT ??0UnsupportedError@@QAE@ABV0@@Z
_TEXT	SEGMENT PARA USE32 PUBLIC 'CODE'
_TEXT	ENDS
;	COMDAT ??0Error@@QAE@ABV0@@Z
_TEXT	SEGMENT PARA USE32 PUBLIC 'CODE'
_TEXT	ENDS
;	COMDAT ??0Throwable@@QAE@ABV0@@Z
_TEXT	SEGMENT PARA USE32 PUBLIC 'CODE'
_TEXT	ENDS
;	COMDAT ??0PacketIDSet@@QAE@W4PlayerStatus@@W4PacketIDSetType@0@@Z
_TEXT	SEGMENT PARA USE32 PUBLIC 'CODE'
_TEXT	ENDS
;	COMDAT ??1?$set@GU?$less@G@_STL@@V?$allocator@G@2@@_STL@@QAE@XZ
_TEXT	SEGMENT PARA USE32 PUBLIC 'CODE'
_TEXT	ENDS
;	COMDAT ??1PacketIDSet@@QAE@XZ
_TEXT	SEGMENT PARA USE32 PUBLIC 'CODE'
_TEXT	ENDS
;	COMDAT ?addPacketID@PacketIDSet@@QAEXG@Z
_TEXT	SEGMENT PARA USE32 PUBLIC 'CODE'
_TEXT	ENDS
;	COMDAT ??0DuplicatedException@@QAE@ABV0@@Z
_TEXT	SEGMENT PARA USE32 PUBLIC 'CODE'
_TEXT	ENDS
;	COMDAT ??0RuntimeException@@QAE@ABV0@@Z
_TEXT	SEGMENT PARA USE32 PUBLIC 'CODE'
_TEXT	ENDS
;	COMDAT ??0Exception@@QAE@ABV0@@Z
_TEXT	SEGMENT PARA USE32 PUBLIC 'CODE'
_TEXT	ENDS
;	COMDAT ?deletePacketID@PacketIDSet@@QAEXG@Z
_TEXT	SEGMENT PARA USE32 PUBLIC 'CODE'
_TEXT	ENDS
;	COMDAT ??0NoSuchElementException@@QAE@ABV0@@Z
_TEXT	SEGMENT PARA USE32 PUBLIC 'CODE'
_TEXT	ENDS
;	COMDAT ?hasPacketID@PacketIDSet@@QBE_NG@Z
_TEXT	SEGMENT PARA USE32 PUBLIC 'CODE'
_TEXT	ENDS
;	COMDAT ??0IgnorePacketException@@QAE@ABV0@@Z
_TEXT	SEGMENT PARA USE32 PUBLIC 'CODE'
_TEXT	ENDS
;	COMDAT ??0ProtocolException@@QAE@ABV0@@Z
_TEXT	SEGMENT PARA USE32 PUBLIC 'CODE'
_TEXT	ENDS
;	COMDAT ??0IOException@@QAE@ABV0@@Z
_TEXT	SEGMENT PARA USE32 PUBLIC 'CODE'
_TEXT	ENDS
;	COMDAT ?toString@PacketIDSet@@QBE?AV?$basic_string@DV?$char_traits@D@_STL@@V?$allocator@D@2@@_STL@@XZ
_TEXT	SEGMENT PARA USE32 PUBLIC 'CODE'
_TEXT	ENDS
;	COMDAT ?eq@?$__char_traits_base@DH@_STL@@SA_NABD0@Z
_TEXT	SEGMENT PARA USE32 PUBLIC 'CODE'
_TEXT	ENDS
;	COMDAT ?not_eof@?$__char_traits_base@DH@_STL@@SAHABH@Z
_TEXT	SEGMENT PARA USE32 PUBLIC 'CODE'
_TEXT	ENDS
;	COMDAT ?eq_int_type@?$__char_traits_base@DH@_STL@@SA_NABH0@Z
_TEXT	SEGMENT PARA USE32 PUBLIC 'CODE'
_TEXT	ENDS
;	COMDAT ?get_allocator@?$basic_string@DV?$char_traits@D@_STL@@V?$allocator@D@2@@_STL@@QBE?AV?$allocator@D@2@XZ
_TEXT	SEGMENT PARA USE32 PUBLIC 'CODE'
_TEXT	ENDS
;	COMDAT ?_M_terminate_string@?$basic_string@DV?$char_traits@D@_STL@@V?$allocator@D@2@@_STL@@AAEXXZ
_TEXT	SEGMENT PARA USE32 PUBLIC 'CODE'
_TEXT	ENDS
;	COMDAT ?size@?$basic_string@DV?$char_traits@D@_STL@@V?$allocator@D@2@@_STL@@QBEIXZ
_TEXT	SEGMENT PARA USE32 PUBLIC 'CODE'
_TEXT	ENDS
;	COMDAT ?c_str@?$basic_string@DV?$char_traits@D@_STL@@V?$allocator@D@2@@_STL@@QBEPBDXZ
_TEXT	SEGMENT PARA USE32 PUBLIC 'CODE'
_TEXT	ENDS
;	COMDAT ??0?$_String_base@DV?$allocator@D@_STL@@@_STL@@QAE@ABV?$allocator@D@1@@Z
_TEXT	SEGMENT PARA USE32 PUBLIC 'CODE'
_TEXT	ENDS
;	COMDAT ?allocate@?$allocator@D@_STL@@QAEPADIPBX@Z
_TEXT	SEGMENT PARA USE32 PUBLIC 'CODE'
_TEXT	ENDS
;	COMDAT ??0?$fpos@H@_STL@@QAE@J@Z
_TEXT	SEGMENT PARA USE32 PUBLIC 'CODE'
_TEXT	ENDS
;	COMDAT ??B?$fpos@H@_STL@@QBEJXZ
_TEXT	SEGMENT PARA USE32 PUBLIC 'CODE'
_TEXT	ENDS
;	COMDAT ?state@?$fpos@H@_STL@@QBEHXZ
_TEXT	SEGMENT PARA USE32 PUBLIC 'CODE'
_TEXT	ENDS
;	COMDAT ?is_open@?$basic_filebuf@DV?$char_traits@D@_STL@@@_STL@@QBE_NXZ
_TEXT	SEGMENT PARA USE32 PUBLIC 'CODE'
_TEXT	ENDS
;	COMDAT ?_M_seek_return@?$basic_filebuf@DV?$char_traits@D@_STL@@@_STL@@AAE?AV?$fpos@H@2@JH@Z
_TEXT	SEGMENT PARA USE32 PUBLIC 'CODE'
_TEXT	ENDS
;	COMDAT ??0?$list@V?$basic_string@DV?$char_traits@D@_STL@@V?$allocator@D@2@@_STL@@V?$allocator@V?$basic_string@DV?$char_traits@D@_STL@@V?$allocator@D@2@@_STL@@@2@@_STL@@QAE@ABV01@@Z
_TEXT	SEGMENT PARA USE32 PUBLIC 'CODE'
_TEXT	ENDS
;	COMDAT ??0?$_Filebuf_Tmp_Buf@D@_STL@@QAE@H@Z
_TEXT	SEGMENT PARA USE32 PUBLIC 'CODE'
_TEXT	ENDS
;	COMDAT ??1?$_Filebuf_Tmp_Buf@D@_STL@@QAE@XZ
_TEXT	SEGMENT PARA USE32 PUBLIC 'CODE'
_TEXT	ENDS
;	COMDAT ??0?$set@GU?$less@G@_STL@@V?$allocator@G@2@@_STL@@QAE@XZ
_TEXT	SEGMENT PARA USE32 PUBLIC 'CODE'
_TEXT	ENDS
;	COMDAT ?begin@?$set@GU?$less@G@_STL@@V?$allocator@G@2@@_STL@@QBE?AU?$_Rb_tree_iterator@GU?$_Const_traits@G@_STL@@@2@XZ
_TEXT	SEGMENT PARA USE32 PUBLIC 'CODE'
_TEXT	ENDS
;	COMDAT ?end@?$set@GU?$less@G@_STL@@V?$allocator@G@2@@_STL@@QBE?AU?$_Rb_tree_iterator@GU?$_Const_traits@G@_STL@@@2@XZ
_TEXT	SEGMENT PARA USE32 PUBLIC 'CODE'
_TEXT	ENDS
;	COMDAT ?insert@?$set@GU?$less@G@_STL@@V?$allocator@G@2@@_STL@@QAE?AU?$pair@U?$_Rb_tree_iterator@GU?$_Const_traits@G@_STL@@@_STL@@_N@2@ABG@Z
_TEXT	SEGMENT PARA USE32 PUBLIC 'CODE'
_TEXT	ENDS
;	COMDAT ?erase@?$set@GU?$less@G@_STL@@V?$allocator@G@2@@_STL@@QAEXU?$_Rb_tree_iterator@GU?$_Const_traits@G@_STL@@@2@@Z
_TEXT	SEGMENT PARA USE32 PUBLIC 'CODE'
_TEXT	ENDS
;	COMDAT ?clear@?$set@GU?$less@G@_STL@@V?$allocator@G@2@@_STL@@QAEXXZ
_TEXT	SEGMENT PARA USE32 PUBLIC 'CODE'
_TEXT	ENDS
;	COMDAT ??1?$_Rb_tree@GGU?$_Identity@G@_STL@@U?$less@G@2@V?$allocator@G@2@@_STL@@QAE@XZ
_TEXT	SEGMENT PARA USE32 PUBLIC 'CODE'
_TEXT	ENDS
;	COMDAT ??D?$_Rb_tree_iterator@GU?$_Const_traits@G@_STL@@@_STL@@QBEABGXZ
_TEXT	SEGMENT PARA USE32 PUBLIC 'CODE'
_TEXT	ENDS
;	COMDAT ??E?$_Rb_tree_iterator@GU?$_Const_traits@G@_STL@@@_STL@@QAE?AU01@H@Z
_TEXT	SEGMENT PARA USE32 PUBLIC 'CODE'
_TEXT	ENDS
;	COMDAT ?_M_terminate_string_aux@?$basic_string@DV?$char_traits@D@_STL@@V?$allocator@D@2@@_STL@@AAEXABU__true_type@2@@Z
_TEXT	SEGMENT PARA USE32 PUBLIC 'CODE'
_TEXT	ENDS
;	COMDAT ??0?$allocator@D@_STL@@QAE@ABV01@@Z
_TEXT	SEGMENT PARA USE32 PUBLIC 'CODE'
_TEXT	ENDS
;	COMDAT ??0?$_STLP_alloc_proxy@PADDV?$allocator@D@_STL@@@_STL@@QAE@ABV?$allocator@D@1@PAD@Z
_TEXT	SEGMENT PARA USE32 PUBLIC 'CODE'
_TEXT	ENDS
;	COMDAT ??0?$allocator@G@_STL@@QAE@XZ
_TEXT	SEGMENT PARA USE32 PUBLIC 'CODE'
_TEXT	ENDS
;	COMDAT ?state@?$fpos@H@_STL@@QAEXH@Z
_TEXT	SEGMENT PARA USE32 PUBLIC 'CODE'
_TEXT	ENDS
;	COMDAT ?get_allocator@?$_List_base@V?$basic_string@DV?$char_traits@D@_STL@@V?$allocator@D@2@@_STL@@V?$allocator@V?$basic_string@DV?$char_traits@D@_STL@@V?$allocator@D@2@@_STL@@@2@@_STL@@QBE?AV?$allocator@V?$basic_string@DV?$char_traits@D@_STL@@V?$allocator@D@2@@_STL@@@2@XZ
_TEXT	SEGMENT PARA USE32 PUBLIC 'CODE'
_TEXT	ENDS
;	COMDAT ??0?$_Rb_tree@GGU?$_Identity@G@_STL@@U?$less@G@2@V?$allocator@G@2@@_STL@@QAE@ABU?$less@G@1@ABV?$allocator@G@1@@Z
_TEXT	SEGMENT PARA USE32 PUBLIC 'CODE'
_TEXT	ENDS
;	COMDAT ?begin@?$_Rb_tree@GGU?$_Identity@G@_STL@@U?$less@G@2@V?$allocator@G@2@@_STL@@QBE?AU?$_Rb_tree_iterator@GU?$_Const_traits@G@_STL@@@2@XZ
_TEXT	SEGMENT PARA USE32 PUBLIC 'CODE'
_TEXT	ENDS
;	COMDAT ?end@?$_Rb_tree@GGU?$_Identity@G@_STL@@U?$less@G@2@V?$allocator@G@2@@_STL@@QBE?AU?$_Rb_tree_iterator@GU?$_Const_traits@G@_STL@@@2@XZ
_TEXT	SEGMENT PARA USE32 PUBLIC 'CODE'
_TEXT	ENDS
;	COMDAT ?erase@?$_Rb_tree@GGU?$_Identity@G@_STL@@U?$less@G@2@V?$allocator@G@2@@_STL@@QAEXU?$_Rb_tree_iterator@GU?$_Nonconst_traits@G@_STL@@@2@@Z
_TEXT	SEGMENT PARA USE32 PUBLIC 'CODE'
_TEXT	ENDS
;	COMDAT ?clear@?$_Rb_tree@GGU?$_Identity@G@_STL@@U?$less@G@2@V?$allocator@G@2@@_STL@@QAEXXZ
_TEXT	SEGMENT PARA USE32 PUBLIC 'CODE'
_TEXT	ENDS
;	COMDAT ??1?$_Rb_tree_base@GV?$allocator@G@_STL@@@_STL@@QAE@XZ
_TEXT	SEGMENT PARA USE32 PUBLIC 'CODE'
_TEXT	ENDS
;	COMDAT ??0?$pair@U?$_Rb_tree_iterator@GU?$_Const_traits@G@_STL@@@_STL@@_N@_STL@@QAE@ABU?$_Rb_tree_iterator@GU?$_Const_traits@G@_STL@@@1@AB_N@Z
_TEXT	SEGMENT PARA USE32 PUBLIC 'CODE'
_TEXT	ENDS
;	COMDAT ??0?$_Rb_tree_iterator@GU?$_Nonconst_traits@G@_STL@@@_STL@@QAE@ABU01@@Z
_TEXT	SEGMENT PARA USE32 PUBLIC 'CODE'
_TEXT	ENDS
;	COMDAT ??1?$_STLP_alloc_proxy@PAU?$_Rb_tree_node@G@_STL@@U12@V?$allocator@U?$_Rb_tree_node@G@_STL@@@2@@_STL@@QAE@XZ
_TEXT	SEGMENT PARA USE32 PUBLIC 'CODE'
_TEXT	ENDS
;	COMDAT ?_M_root@?$_Rb_tree@GGU?$_Identity@G@_STL@@U?$less@G@2@V?$allocator@G@2@@_STL@@IBEAAPAU?$_Rb_tree_node@G@2@XZ
_TEXT	SEGMENT PARA USE32 PUBLIC 'CODE'
_TEXT	ENDS
;	COMDAT ?_M_leftmost@?$_Rb_tree@GGU?$_Identity@G@_STL@@U?$less@G@2@V?$allocator@G@2@@_STL@@IBEAAPAU?$_Rb_tree_node@G@2@XZ
_TEXT	SEGMENT PARA USE32 PUBLIC 'CODE'
_TEXT	ENDS
;	COMDAT ?_M_rightmost@?$_Rb_tree@GGU?$_Identity@G@_STL@@U?$less@G@2@V?$allocator@G@2@@_STL@@IBEAAPAU?$_Rb_tree_node@G@2@XZ
_TEXT	SEGMENT PARA USE32 PUBLIC 'CODE'
_TEXT	ENDS
;	COMDAT ?_M_empty_initialize@?$_Rb_tree@GGU?$_Identity@G@_STL@@U?$less@G@2@V?$allocator@G@2@@_STL@@AAEXXZ
_TEXT	SEGMENT PARA USE32 PUBLIC 'CODE'
_TEXT	ENDS
;	COMDAT ??0?$_Rb_tree_base@GV?$allocator@G@_STL@@@_STL@@QAE@ABV?$allocator@G@1@@Z
_TEXT	SEGMENT PARA USE32 PUBLIC 'CODE'
_TEXT	ENDS
;	COMDAT ??1?$allocator@U?$_Rb_tree_node@G@_STL@@@_STL@@QAE@XZ
_TEXT	SEGMENT PARA USE32 PUBLIC 'CODE'
_TEXT	ENDS
;	COMDAT ?deallocate@?$allocator@U?$_Rb_tree_node@G@_STL@@@_STL@@QAEXPAU?$_Rb_tree_node@G@2@I@Z
_TEXT	SEGMENT PARA USE32 PUBLIC 'CODE'
_TEXT	ENDS
;	COMDAT ??0?$_Rb_tree_iterator@GU?$_Const_traits@G@_STL@@@_STL@@QAE@PAU?$_Rb_tree_node@G@1@@Z
_TEXT	SEGMENT PARA USE32 PUBLIC 'CODE'
_TEXT	ENDS
;	COMDAT ?_S_color@?$_Rb_tree@GGU?$_Identity@G@_STL@@U?$less@G@2@V?$allocator@G@2@@_STL@@KAAA_NPAU?$_Rb_tree_node@G@2@@Z
_TEXT	SEGMENT PARA USE32 PUBLIC 'CODE'
_TEXT	ENDS
;	COMDAT ??0?$_STLP_alloc_proxy@PAU?$_Rb_tree_node@G@_STL@@U12@V?$allocator@U?$_Rb_tree_node@G@_STL@@@2@@_STL@@QAE@ABV?$allocator@U?$_Rb_tree_node@G@_STL@@@1@PAU?$_Rb_tree_node@G@1@@Z
_TEXT	SEGMENT PARA USE32 PUBLIC 'CODE'
_TEXT	ENDS
;	COMDAT ?allocate@?$allocator@U?$_Rb_tree_node@G@_STL@@@_STL@@QAEPAU?$_Rb_tree_node@G@2@IPBX@Z
_TEXT	SEGMENT PARA USE32 PUBLIC 'CODE'
_TEXT	ENDS
;	COMDAT ??0?$allocator@U?$_Rb_tree_node@G@_STL@@@_STL@@QAE@ABV01@@Z
_TEXT	SEGMENT PARA USE32 PUBLIC 'CODE'
_TEXT	ENDS
;	COMDAT ??$_M_range_initialize@PBD@?$basic_string@DV?$char_traits@D@_STL@@V?$allocator@D@2@@_STL@@AAEXPBD0@Z
_TEXT	SEGMENT PARA USE32 PUBLIC 'CODE'
_TEXT	ENDS
;	COMDAT ??$_M_range_initialize@PAD@?$basic_string@DV?$char_traits@D@_STL@@V?$allocator@D@2@@_STL@@AAEXPAD0@Z
_TEXT	SEGMENT PARA USE32 PUBLIC 'CODE'
_TEXT	ENDS
;	COMDAT ?close@?$basic_filebuf@DV?$char_traits@D@_STL@@@_STL@@QAEPAV12@XZ
_TEXT	SEGMENT PARA USE32 PUBLIC 'CODE'
_TEXT	ENDS
;	COMDAT ?_M_exit_input_mode@?$basic_filebuf@DV?$char_traits@D@_STL@@@_STL@@AAEXXZ
_TEXT	SEGMENT PARA USE32 PUBLIC 'CODE'
_TEXT	ENDS
;	COMDAT ?_M_switch_to_output_mode@?$basic_filebuf@DV?$char_traits@D@_STL@@@_STL@@AAE_NXZ
_TEXT	SEGMENT PARA USE32 PUBLIC 'CODE'
_TEXT	ENDS
;	COMDAT ?_M_output_error@?$basic_filebuf@DV?$char_traits@D@_STL@@@_STL@@AAEHXZ
_TEXT	SEGMENT PARA USE32 PUBLIC 'CODE'
_TEXT	ENDS
;	COMDAT ?_M_allocate_buffers@?$basic_filebuf@DV?$char_traits@D@_STL@@@_STL@@AAE_NPADH@Z
_TEXT	SEGMENT PARA USE32 PUBLIC 'CODE'
_TEXT	ENDS
;	COMDAT ?_M_deallocate_buffers@?$basic_filebuf@DV?$char_traits@D@_STL@@@_STL@@AAEXXZ
_TEXT	SEGMENT PARA USE32 PUBLIC 'CODE'
_TEXT	ENDS
;	COMDAT ?_M_seek_init@?$basic_filebuf@DV?$char_traits@D@_STL@@@_STL@@AAE_N_N@Z
_TEXT	SEGMENT PARA USE32 PUBLIC 'CODE'
_TEXT	ENDS
;	COMDAT ?_M_setup_codecvt@?$basic_filebuf@DV?$char_traits@D@_STL@@@_STL@@AAEXABVlocale@2@@Z
_TEXT	SEGMENT PARA USE32 PUBLIC 'CODE'
_TEXT	ENDS
;	COMDAT ??$equal@PADPADU?$_Eq_traits@V?$char_traits@D@_STL@@@_STL@@@_STL@@YA_NPAD00U?$_Eq_traits@V?$char_traits@D@_STL@@@0@@Z
_TEXT	SEGMENT PARA USE32 PUBLIC 'CODE'
_TEXT	ENDS
;	COMDAT ??$_Destroy@V?$basic_string@DV?$char_traits@D@_STL@@V?$allocator@D@2@@_STL@@@_STL@@YAXPAV?$basic_string@DV?$char_traits@D@_STL@@V?$allocator@D@2@@0@@Z
_TEXT	SEGMENT PARA USE32 PUBLIC 'CODE'
_TEXT	ENDS
;	COMDAT ??$_M_assign_dispatch@PAD@?$basic_string@DV?$char_traits@D@_STL@@V?$allocator@D@2@@_STL@@AAEAAV01@PAD0ABU__false_type@1@@Z
_TEXT	SEGMENT PARA USE32 PUBLIC 'CODE'
_TEXT	ENDS
;	COMDAT ?_M_erase@?$_Rb_tree@GGU?$_Identity@G@_STL@@U?$less@G@2@V?$allocator@G@2@@_STL@@AAEXPAU?$_Rb_tree_node@G@2@@Z
_TEXT	SEGMENT PARA USE32 PUBLIC 'CODE'
_TEXT	ENDS
;	COMDAT ?insert_unique@?$_Rb_tree@GGU?$_Identity@G@_STL@@U?$less@G@2@V?$allocator@G@2@@_STL@@QAE?AU?$pair@U?$_Rb_tree_iterator@GU?$_Nonconst_traits@G@_STL@@@_STL@@_N@2@ABG@Z
_TEXT	SEGMENT PARA USE32 PUBLIC 'CODE'
_TEXT	ENDS
;	COMDAT ??$find@G@?$set@GU?$less@G@_STL@@V?$allocator@G@2@@_STL@@QBE?AU?$_Rb_tree_iterator@GU?$_Const_traits@G@_STL@@@1@ABG@Z
_TEXT	SEGMENT PARA USE32 PUBLIC 'CODE'
_TEXT	ENDS
;	COMDAT ??$insert@U?$_List_iterator@V?$basic_string@DV?$char_traits@D@_STL@@V?$allocator@D@2@@_STL@@U?$_Const_traits@V?$basic_string@DV?$char_traits@D@_STL@@V?$allocator@D@2@@_STL@@@2@@_STL@@@?$list@V?$basic_string@DV?$char_traits@D@_STL@@V?$allocator@D@2@@_STL@@V?$allocator@V?$basic_string@DV?$char_traits@D@_STL@@V?$allocator@D@2@@_STL@@@2@@_STL@@QAEXU?$_List_iterator@V?$basic_string@DV?$char_traits@D@_STL@@V?$allocator@D@2@@_STL@@U?$_Nonconst_traits@V?$basic_string@DV?$char_traits@D@_STL@@V?$allocator@D@2@@_STL@@@2@@1@U?$_List_iterator@V?$basic_string@DV?$char_traits@D@_STL@@V?$allocator@D@2@@_STL@@U?$_Const_traits@V?$basic_string@DV?$char_traits@D@_STL@@V?$allocator@D@2@@_STL@@@2@@1@1@Z
_TEXT	SEGMENT PARA USE32 PUBLIC 'CODE'
_TEXT	ENDS
;	COMDAT ??$?0U?$_List_node@V?$basic_string@DV?$char_traits@D@_STL@@V?$allocator@D@2@@_STL@@@_STL@@@?$allocator@V?$basic_string@DV?$char_traits@D@_STL@@V?$allocator@D@2@@_STL@@@_STL@@QAE@ABV?$allocator@U?$_List_node@V?$basic_string@DV?$char_traits@D@_STL@@V?$allocator@D@2@@_STL@@@_STL@@@1@@Z
_TEXT	SEGMENT PARA USE32 PUBLIC 'CODE'
_TEXT	ENDS
;	COMDAT ??$_Destroy@G@_STL@@YAXPAG@Z
_TEXT	SEGMENT PARA USE32 PUBLIC 'CODE'
_TEXT	ENDS
;	COMDAT ??$?0G@?$allocator@U?$_Rb_tree_node@G@_STL@@@_STL@@QAE@ABV?$allocator@G@1@@Z
_TEXT	SEGMENT PARA USE32 PUBLIC 'CODE'
_TEXT	ENDS
;	COMDAT ??_G?$basic_string@DV?$char_traits@D@_STL@@V?$allocator@D@2@@_STL@@QAEPAXI@Z
_TEXT	SEGMENT PARA USE32 PUBLIC 'CODE'
_TEXT	ENDS
;	COMDAT ?end@?$basic_string@DV?$char_traits@D@_STL@@V?$allocator@D@2@@_STL@@QAEPADXZ
_TEXT	SEGMENT PARA USE32 PUBLIC 'CODE'
_TEXT	ENDS
;	COMDAT ?erase@?$basic_string@DV?$char_traits@D@_STL@@V?$allocator@D@2@@_STL@@QAEPADPAD0@Z
_TEXT	SEGMENT PARA USE32 PUBLIC 'CODE'
_TEXT	ENDS
;	COMDAT ?_M_exit_putback_mode@?$basic_filebuf@DV?$char_traits@D@_STL@@@_STL@@AAEXXZ
_TEXT	SEGMENT PARA USE32 PUBLIC 'CODE'
_TEXT	ENDS
;	COMDAT ??0?$_List_iterator@V?$basic_string@DV?$char_traits@D@_STL@@V?$allocator@D@2@@_STL@@U?$_Nonconst_traits@V?$basic_string@DV?$char_traits@D@_STL@@V?$allocator@D@2@@_STL@@@2@@_STL@@QAE@ABU01@@Z
_TEXT	SEGMENT PARA USE32 PUBLIC 'CODE'
_TEXT	ENDS
;	COMDAT ??R?$_Eq_traits@V?$char_traits@D@_STL@@@_STL@@QBE_NABD0@Z
_TEXT	SEGMENT PARA USE32 PUBLIC 'CODE'
_TEXT	ENDS
;	COMDAT ?_S_left@?$_Rb_tree@GGU?$_Identity@G@_STL@@U?$less@G@2@V?$allocator@G@2@@_STL@@KAAAPAU?$_Rb_tree_node@G@2@PAU32@@Z
_TEXT	SEGMENT PARA USE32 PUBLIC 'CODE'
_TEXT	ENDS
;	COMDAT ?_S_right@?$_Rb_tree@GGU?$_Identity@G@_STL@@U?$less@G@2@V?$allocator@G@2@@_STL@@KAAAPAU?$_Rb_tree_node@G@2@PAU32@@Z
_TEXT	SEGMENT PARA USE32 PUBLIC 'CODE'
_TEXT	ENDS
;	COMDAT ?_S_key@?$_Rb_tree@GGU?$_Identity@G@_STL@@U?$less@G@2@V?$allocator@G@2@@_STL@@KAABGPAU?$_Rb_tree_node@G@2@@Z
_TEXT	SEGMENT PARA USE32 PUBLIC 'CODE'
_TEXT	ENDS
;	COMDAT ?_S_key@?$_Rb_tree@GGU?$_Identity@G@_STL@@U?$less@G@2@V?$allocator@G@2@@_STL@@KAABGPAU_Rb_tree_node_base@2@@Z
_TEXT	SEGMENT PARA USE32 PUBLIC 'CODE'
_TEXT	ENDS
;	COMDAT ?begin@?$_Rb_tree@GGU?$_Identity@G@_STL@@U?$less@G@2@V?$allocator@G@2@@_STL@@QAE?AU?$_Rb_tree_iterator@GU?$_Nonconst_traits@G@_STL@@@2@XZ
_TEXT	SEGMENT PARA USE32 PUBLIC 'CODE'
_TEXT	ENDS
;	COMDAT ??R?$less@G@_STL@@QBE_NABG0@Z
_TEXT	SEGMENT PARA USE32 PUBLIC 'CODE'
_TEXT	ENDS
;	COMDAT ??0?$_Rb_tree_iterator@GU?$_Nonconst_traits@G@_STL@@@_STL@@QAE@PAU?$_Rb_tree_node@G@1@@Z
_TEXT	SEGMENT PARA USE32 PUBLIC 'CODE'
_TEXT	ENDS
;	COMDAT ??F?$_Rb_tree_iterator@GU?$_Nonconst_traits@G@_STL@@@_STL@@QAEAAU01@XZ
_TEXT	SEGMENT PARA USE32 PUBLIC 'CODE'
_TEXT	ENDS
;	COMDAT ??0?$pair@U?$_Rb_tree_iterator@GU?$_Nonconst_traits@G@_STL@@@_STL@@_N@_STL@@QAE@ABU?$_Rb_tree_iterator@GU?$_Nonconst_traits@G@_STL@@@1@AB_N@Z
_TEXT	SEGMENT PARA USE32 PUBLIC 'CODE'
_TEXT	ENDS
;	COMDAT ??R?$_Identity@G@_STL@@QBEABGABG@Z
_TEXT	SEGMENT PARA USE32 PUBLIC 'CODE'
_TEXT	ENDS
;	COMDAT ?move@?$__char_traits_base@DH@_STL@@SAPADPADPBDI@Z
_TEXT	SEGMENT PARA USE32 PUBLIC 'CODE'
_TEXT	ENDS
;	COMDAT ?_S_value@?$_Rb_tree@GGU?$_Identity@G@_STL@@U?$less@G@2@V?$allocator@G@2@@_STL@@KAAAGPAU?$_Rb_tree_node@G@2@@Z
_TEXT	SEGMENT PARA USE32 PUBLIC 'CODE'
_TEXT	ENDS
;	COMDAT ??$_M_range_initialize@PBD@?$basic_string@DV?$char_traits@D@_STL@@V?$allocator@D@2@@_STL@@AAEXPBD0ABUforward_iterator_tag@1@@Z
_TEXT	SEGMENT PARA USE32 PUBLIC 'CODE'
_TEXT	ENDS
;	COMDAT ??$_M_range_initialize@PAD@?$basic_string@DV?$char_traits@D@_STL@@V?$allocator@D@2@@_STL@@AAEXPAD0ABUforward_iterator_tag@1@@Z
_TEXT	SEGMENT PARA USE32 PUBLIC 'CODE'
_TEXT	ENDS
;	COMDAT ?_M_unshift@?$basic_filebuf@DV?$char_traits@D@_STL@@@_STL@@AAE_NXZ
_TEXT	SEGMENT PARA USE32 PUBLIC 'CODE'
_TEXT	ENDS
;	COMDAT ?_M_allocate_buffers@?$basic_filebuf@DV?$char_traits@D@_STL@@@_STL@@AAE_NXZ
_TEXT	SEGMENT PARA USE32 PUBLIC 'CODE'
_TEXT	ENDS
;	COMDAT ??$max@H@_STL@@YAABHABH0@Z
_TEXT	SEGMENT PARA USE32 PUBLIC 'CODE'
_TEXT	ENDS
;	COMDAT ??$use_facet@V?$codecvt@DDH@_STL@@@_STL@@YAABV?$codecvt@DDH@0@ABVlocale@0@@Z
_TEXT	SEGMENT PARA USE32 PUBLIC 'CODE'
_TEXT	ENDS
;	COMDAT ??$append@PAD@?$basic_string@DV?$char_traits@D@_STL@@V?$allocator@D@2@@_STL@@QAEAAV01@PAD0@Z
_TEXT	SEGMENT PARA USE32 PUBLIC 'CODE'
_TEXT	ENDS
;	COMDAT ?_M_insert@?$_Rb_tree@GGU?$_Identity@G@_STL@@U?$less@G@2@V?$allocator@G@2@@_STL@@AAE?AU?$_Rb_tree_iterator@GU?$_Nonconst_traits@G@_STL@@@2@PAU_Rb_tree_node_base@2@0ABG0@Z
_TEXT	SEGMENT PARA USE32 PUBLIC 'CODE'
_TEXT	ENDS
;	COMDAT ??$find@G@?$_Rb_tree@GGU?$_Identity@G@_STL@@U?$less@G@2@V?$allocator@G@2@@_STL@@QBE?AU?$_Rb_tree_iterator@GU?$_Const_traits@G@_STL@@@1@ABG@Z
_TEXT	SEGMENT PARA USE32 PUBLIC 'CODE'
_TEXT	ENDS
;	COMDAT ??$_M_insert_dispatch@U?$_List_iterator@V?$basic_string@DV?$char_traits@D@_STL@@V?$allocator@D@2@@_STL@@U?$_Const_traits@V?$basic_string@DV?$char_traits@D@_STL@@V?$allocator@D@2@@_STL@@@2@@_STL@@@?$list@V?$basic_string@DV?$char_traits@D@_STL@@V?$allocator@D@2@@_STL@@V?$allocator@V?$basic_string@DV?$char_traits@D@_STL@@V?$allocator@D@2@@_STL@@@2@@_STL@@QAEXU?$_List_iterator@V?$basic_string@DV?$char_traits@D@_STL@@V?$allocator@D@2@@_STL@@U?$_Nonconst_traits@V?$basic_string@DV?$char_traits@D@_STL@@V?$allocator@D@2@@_STL@@@2@@1@U?$_List_iterator@V?$basic_string@DV?$char_traits@D@_STL@@V?$allocator@D@2@@_STL@@U?$_Const_traits@V?$basic_string@DV?$char_traits@D@_STL@@V?$allocator@D@2@@_STL@@@2@@1@1ABU__false_type@1@@Z
_TEXT	SEGMENT PARA USE32 PUBLIC 'CODE'
_TEXT	ENDS
;	COMDAT ??E?$_List_iterator@V?$basic_string@DV?$char_traits@D@_STL@@V?$allocator@D@2@@_STL@@U?$_Const_traits@V?$basic_string@DV?$char_traits@D@_STL@@V?$allocator@D@2@@_STL@@@2@@_STL@@QAEAAU01@XZ
_TEXT	SEGMENT PARA USE32 PUBLIC 'CODE'
_TEXT	ENDS
;	COMDAT ?_M_create_node@?$_Rb_tree@GGU?$_Identity@G@_STL@@U?$less@G@2@V?$allocator@G@2@@_STL@@IAEPAU?$_Rb_tree_node@G@2@ABG@Z
_TEXT	SEGMENT PARA USE32 PUBLIC 'CODE'
_TEXT	ENDS
;	COMDAT ?_S_parent@?$_Rb_tree@GGU?$_Identity@G@_STL@@U?$less@G@2@V?$allocator@G@2@@_STL@@KAAAPAU?$_Rb_tree_node@G@2@PAU32@@Z
_TEXT	SEGMENT PARA USE32 PUBLIC 'CODE'
_TEXT	ENDS
;	COMDAT ??$distance@PBD@_STL@@YAHABQBD0@Z
_TEXT	SEGMENT PARA USE32 PUBLIC 'CODE'
_TEXT	ENDS
;	COMDAT ?_M_allocate_block@?$_String_base@DV?$allocator@D@_STL@@@_STL@@QAEXI@Z
_TEXT	SEGMENT PARA USE32 PUBLIC 'CODE'
_TEXT	ENDS
;	COMDAT ??$distance@PAD@_STL@@YAHABQAD0@Z
_TEXT	SEGMENT PARA USE32 PUBLIC 'CODE'
_TEXT	ENDS
;	COMDAT ??$uninitialized_copy@PADPAD@_STL@@YAPADPAD00@Z
_TEXT	SEGMENT PARA USE32 PUBLIC 'CODE'
_TEXT	ENDS
;	COMDAT ??$_M_append_dispatch@PAD@?$basic_string@DV?$char_traits@D@_STL@@V?$allocator@D@2@@_STL@@AAEAAV01@PAD0ABU__false_type@1@@Z
_TEXT	SEGMENT PARA USE32 PUBLIC 'CODE'
_TEXT	ENDS
;	COMDAT ??$_M_find@G@?$_Rb_tree@GGU?$_Identity@G@_STL@@U?$less@G@2@V?$allocator@G@2@@_STL@@ABEPAU?$_Rb_tree_node@G@1@ABG@Z
_TEXT	SEGMENT PARA USE32 PUBLIC 'CODE'
_TEXT	ENDS
;	COMDAT ??$_Construct@GG@_STL@@YAXPAGABG@Z
_TEXT	SEGMENT PARA USE32 PUBLIC 'CODE'
_TEXT	ENDS
;	COMDAT ?max_size@?$_String_base@DV?$allocator@D@_STL@@@_STL@@QBEIXZ
_TEXT	SEGMENT PARA USE32 PUBLIC 'CODE'
_TEXT	ENDS
;	COMDAT ??$__distance@PBD@_STL@@YAHABQBD0ABUrandom_access_iterator_tag@0@@Z
_TEXT	SEGMENT PARA USE32 PUBLIC 'CODE'
_TEXT	ENDS
;	COMDAT ?_M_throw_length_error@?$_String_base@DV?$allocator@D@_STL@@@_STL@@QBEXXZ
_TEXT	SEGMENT PARA USE32 PUBLIC 'CODE'
_TEXT	ENDS
;	COMDAT ??$__distance@PAD@_STL@@YAHABQAD0ABUrandom_access_iterator_tag@0@@Z
_TEXT	SEGMENT PARA USE32 PUBLIC 'CODE'
_TEXT	ENDS
;	COMDAT ??$__uninitialized_copy@PADPAD@_STL@@YAPADPAD00ABU__true_type@0@@Z
_TEXT	SEGMENT PARA USE32 PUBLIC 'CODE'
_TEXT	ENDS
;	COMDAT ??$append@PAD@?$basic_string@DV?$char_traits@D@_STL@@V?$allocator@D@2@@_STL@@AAEAAV01@PAD0ABUforward_iterator_tag@1@@Z
_TEXT	SEGMENT PARA USE32 PUBLIC 'CODE'
_TEXT	ENDS
;	COMDAT ?_M_construct_null@?$basic_string@DV?$char_traits@D@_STL@@V?$allocator@D@2@@_STL@@AAEXPAD@Z
_TEXT	SEGMENT PARA USE32 PUBLIC 'CODE'
_TEXT	ENDS
;	COMDAT ?max_size@?$basic_string@DV?$char_traits@D@_STL@@V?$allocator@D@2@@_STL@@QBEIXZ
_TEXT	SEGMENT PARA USE32 PUBLIC 'CODE'
_TEXT	ENDS
;	COMDAT ?capacity@?$basic_string@DV?$char_traits@D@_STL@@V?$allocator@D@2@@_STL@@QBEIXZ
_TEXT	SEGMENT PARA USE32 PUBLIC 'CODE'
_TEXT	ENDS
;	COMDAT ?_Ret@?$_BothPtrType@PADPAD@_STL@@SA?AU__true_type@2@XZ
_TEXT	SEGMENT PARA USE32 PUBLIC 'CODE'
_TEXT	ENDS
;	COMDAT ?_M_construct_null_aux@?$basic_string@DV?$char_traits@D@_STL@@V?$allocator@D@2@@_STL@@AAEXPADABU__true_type@2@@Z
_TEXT	SEGMENT PARA USE32 PUBLIC 'CODE'
_TEXT	ENDS
;	COMDAT ??$__copy_aux@PADPAD@_STL@@YAPADPAD00ABU__true_type@0@@Z
_TEXT	SEGMENT PARA USE32 PUBLIC 'CODE'
_TEXT	ENDS
;	COMDAT ??$max@I@_STL@@YAABIABI0@Z
_TEXT	SEGMENT PARA USE32 PUBLIC 'CODE'
_TEXT	ENDS
;	COMDAT ?_Ret@?$_OKToMemCpy@DD@_STL@@SA?AU__true_type@2@XZ
_TEXT	SEGMENT PARA USE32 PUBLIC 'CODE'
_TEXT	ENDS
;	COMDAT ??$_IsOKToMemCpy@DD@_STL@@YA?AU?$_OKToMemCpy@DD@0@PAD0@Z
_TEXT	SEGMENT PARA USE32 PUBLIC 'CODE'
_TEXT	ENDS
;	COMDAT ??$__copy_ptrs@PADPAD@_STL@@YAPADPAD00ABU__true_type@0@@Z
_TEXT	SEGMENT PARA USE32 PUBLIC 'CODE'
_TEXT	ENDS
;	COMDAT ??_R3Packet@@8
rdata$r	SEGMENT DWORD USE32 PUBLIC 'CONST'
rdata$r	ENDS
;	COMDAT ??_R2Packet@@8
rdata$r	SEGMENT DWORD USE32 PUBLIC 'CONST'
rdata$r	ENDS
;	COMDAT ??_R1A@?0A@A@Packet@@8
rdata$r	SEGMENT DWORD USE32 PUBLIC 'CONST'
rdata$r	ENDS
;	COMDAT ??_R0?AVPacket@@@8
_DATA	SEGMENT DWORD USE32 PUBLIC 'DATA'
_DATA	ENDS
;	COMDAT ??_R4Packet@@6B@
rdata$r	SEGMENT DWORD USE32 PUBLIC 'CONST'
rdata$r	ENDS
;	COMDAT ?__copy_trivial@_STL@@YAPAXPBX0PAX@Z
_TEXT	SEGMENT PARA USE32 PUBLIC 'CODE'
_TEXT	ENDS
;	COMDAT ?_M_deallocate_block@?$_String_base@DV?$allocator@D@_STL@@@_STL@@QAEXXZ
_TEXT	SEGMENT PARA USE32 PUBLIC 'CODE'
_TEXT	ENDS
;	COMDAT ?deallocate@?$allocator@D@_STL@@QAEXPADI@Z
_TEXT	SEGMENT PARA USE32 PUBLIC 'CODE'
_TEXT	ENDS
;	COMDAT ??2@YAPAXIPAX@Z
_TEXT	SEGMENT PARA USE32 PUBLIC 'CODE'
_TEXT	ENDS
;	COMDAT ?_M_incr@_List_iterator_base@_STL@@QAEXXZ
_TEXT	SEGMENT PARA USE32 PUBLIC 'CODE'
_TEXT	ENDS
;	COMDAT ??D?$_List_iterator@V?$basic_string@DV?$char_traits@D@_STL@@V?$allocator@D@2@@_STL@@U?$_Const_traits@V?$basic_string@DV?$char_traits@D@_STL@@V?$allocator@D@2@@_STL@@@2@@_STL@@QBEABV?$basic_string@DV?$char_traits@D@_STL@@V?$allocator@D@2@@1@XZ
_TEXT	SEGMENT PARA USE32 PUBLIC 'CODE'
_TEXT	ENDS
;	COMDAT ?insert@?$list@V?$basic_string@DV?$char_traits@D@_STL@@V?$allocator@D@2@@_STL@@V?$allocator@V?$basic_string@DV?$char_traits@D@_STL@@V?$allocator@D@2@@_STL@@@2@@_STL@@QAE?AU?$_List_iterator@V?$basic_string@DV?$char_traits@D@_STL@@V?$allocator@D@2@@_STL@@U?$_Nonconst_traits@V?$basic_string@DV?$char_traits@D@_STL@@V?$allocator@D@2@@_STL@@@2@@2@U32@ABV?$basic_string@DV?$char_traits@D@_STL@@V?$allocator@D@2@@2@@Z
_TEXT	SEGMENT PARA USE32 PUBLIC 'CODE'
_TEXT	ENDS
;	COMDAT ?_M_create_node@?$list@V?$basic_string@DV?$char_traits@D@_STL@@V?$allocator@D@2@@_STL@@V?$allocator@V?$basic_string@DV?$char_traits@D@_STL@@V?$allocator@D@2@@_STL@@@2@@_STL@@IAEPAU?$_List_node@V?$basic_string@DV?$char_traits@D@_STL@@V?$allocator@D@2@@_STL@@@2@ABV?$basic_string@DV?$char_traits@D@_STL@@V?$allocator@D@2@@2@@Z
_TEXT	SEGMENT PARA USE32 PUBLIC 'CODE'
_TEXT	ENDS
;	COMDAT ?allocate@?$allocator@U?$_List_node@V?$basic_string@DV?$char_traits@D@_STL@@V?$allocator@D@2@@_STL@@@_STL@@@_STL@@QAEPAU?$_List_node@V?$basic_string@DV?$char_traits@D@_STL@@V?$allocator@D@2@@_STL@@@2@IPBX@Z
_TEXT	SEGMENT PARA USE32 PUBLIC 'CODE'
_TEXT	ENDS
;	COMDAT ??$_Construct@V?$basic_string@DV?$char_traits@D@_STL@@V?$allocator@D@2@@_STL@@V12@@_STL@@YAXPAV?$basic_string@DV?$char_traits@D@_STL@@V?$allocator@D@2@@0@ABV10@@Z
_TEXT	SEGMENT PARA USE32 PUBLIC 'CODE'
_TEXT	ENDS
;	COMDAT ??3@YAXPAX0@Z
_TEXT	SEGMENT PARA USE32 PUBLIC 'CODE'
_TEXT	ENDS
;	COMDAT ?deallocate@?$allocator@U?$_List_node@V?$basic_string@DV?$char_traits@D@_STL@@V?$allocator@D@2@@_STL@@@_STL@@@_STL@@QAEXPAU?$_List_node@V?$basic_string@DV?$char_traits@D@_STL@@V?$allocator@D@2@@_STL@@@2@I@Z
_TEXT	SEGMENT PARA USE32 PUBLIC 'CODE'
_TEXT	ENDS
;	COMDAT ??0?$_List_iterator@V?$basic_string@DV?$char_traits@D@_STL@@V?$allocator@D@2@@_STL@@U?$_Nonconst_traits@V?$basic_string@DV?$char_traits@D@_STL@@V?$allocator@D@2@@_STL@@@2@@_STL@@QAE@PAU?$_List_node@V?$basic_string@DV?$char_traits@D@_STL@@V?$allocator@D@2@@_STL@@@1@@Z
_TEXT	SEGMENT PARA USE32 PUBLIC 'CODE'
_TEXT	ENDS
;	COMDAT ??9_List_iterator_base@_STL@@QBE_NABU01@@Z
_TEXT	SEGMENT PARA USE32 PUBLIC 'CODE'
_TEXT	ENDS
;	COMDAT ?__page_size@_Filebuf_base@_STL@@SAIXZ
_TEXT	SEGMENT PARA USE32 PUBLIC 'CODE'
_TEXT	ENDS
;	COMDAT ?_M_write@?$basic_filebuf@DV?$char_traits@D@_STL@@@_STL@@QAE_NPADH@Z
_TEXT	SEGMENT PARA USE32 PUBLIC 'CODE'
_TEXT	ENDS
;	COMDAT ?unshift@?$codecvt@DDH@_STL@@QBE?AW4result@codecvt_base@2@AAHPAD1AAPAD@Z
_TEXT	SEGMENT PARA USE32 PUBLIC 'CODE'
_TEXT	ENDS
;	COMDAT ?uninitialized_copy@_STL@@YAPADPBD0PAD@Z
_TEXT	SEGMENT PARA USE32 PUBLIC 'CODE'
_TEXT	ENDS
;	COMDAT ??0_List_iterator_base@_STL@@QAE@PAU_List_node_base@1@@Z
_TEXT	SEGMENT PARA USE32 PUBLIC 'CODE'
_TEXT	ENDS
;	COMDAT ?_Destroy@_STL@@YAXPAD0@Z
_TEXT	SEGMENT PARA USE32 PUBLIC 'CODE'
_TEXT	ENDS
;	COMDAT ??8_Rb_tree_base_iterator@_STL@@QBE_NABU01@@Z
_TEXT	SEGMENT PARA USE32 PUBLIC 'CODE'
_TEXT	ENDS
;	COMDAT ?assign@?$char_traits@D@_STL@@SAXAADABD@Z
_TEXT	SEGMENT PARA USE32 PUBLIC 'CODE'
_TEXT	ENDS
;	COMDAT ?always_noconv@?$codecvt@DDH@_STL@@QBE_NXZ
_TEXT	SEGMENT PARA USE32 PUBLIC 'CODE'
_TEXT	ENDS
;	COMDAT ?encoding@?$codecvt@DDH@_STL@@QBEHXZ
_TEXT	SEGMENT PARA USE32 PUBLIC 'CODE'
_TEXT	ENDS
;	COMDAT ?max_length@?$codecvt@DDH@_STL@@QBEHXZ
_TEXT	SEGMENT PARA USE32 PUBLIC 'CODE'
_TEXT	ENDS
;	COMDAT ?__o_mode@_Filebuf_base@_STL@@QBEHXZ
_TEXT	SEGMENT PARA USE32 PUBLIC 'CODE'
_TEXT	ENDS
;	COMDAT ?deallocate@?$__node_alloc@$00$0A@@_STL@@SAXPAXI@Z
_TEXT	SEGMENT PARA USE32 PUBLIC 'CODE'
_TEXT	ENDS
;	COMDAT ?__stl_delete@_STL@@YAXPAX@Z
_TEXT	SEGMENT PARA USE32 PUBLIC 'CODE'
_TEXT	ENDS
;	COMDAT ??1?$allocator@G@_STL@@QAE@XZ
_TEXT	SEGMENT PARA USE32 PUBLIC 'CODE'
_TEXT	ENDS
;	COMDAT ?begin@?$list@V?$basic_string@DV?$char_traits@D@_STL@@V?$allocator@D@2@@_STL@@V?$allocator@V?$basic_string@DV?$char_traits@D@_STL@@V?$allocator@D@2@@_STL@@@2@@_STL@@QAE?AU?$_List_iterator@V?$basic_string@DV?$char_traits@D@_STL@@V?$allocator@D@2@@_STL@@U?$_Nonconst_traits@V?$basic_string@DV?$char_traits@D@_STL@@V?$allocator@D@2@@_STL@@@2@@2@XZ
_TEXT	SEGMENT PARA USE32 PUBLIC 'CODE'
_TEXT	ENDS
;	COMDAT ?begin@?$list@V?$basic_string@DV?$char_traits@D@_STL@@V?$allocator@D@2@@_STL@@V?$allocator@V?$basic_string@DV?$char_traits@D@_STL@@V?$allocator@D@2@@_STL@@@2@@_STL@@QBE?AU?$_List_iterator@V?$basic_string@DV?$char_traits@D@_STL@@V?$allocator@D@2@@_STL@@U?$_Const_traits@V?$basic_string@DV?$char_traits@D@_STL@@V?$allocator@D@2@@_STL@@@2@@2@XZ
_TEXT	SEGMENT PARA USE32 PUBLIC 'CODE'
_TEXT	ENDS
;	COMDAT ??0?$_List_iterator@V?$basic_string@DV?$char_traits@D@_STL@@V?$allocator@D@2@@_STL@@U?$_Const_traits@V?$basic_string@DV?$char_traits@D@_STL@@V?$allocator@D@2@@_STL@@@2@@_STL@@QAE@PAU?$_List_node@V?$basic_string@DV?$char_traits@D@_STL@@V?$allocator@D@2@@_STL@@@1@@Z
_TEXT	SEGMENT PARA USE32 PUBLIC 'CODE'
_TEXT	ENDS
;	COMDAT ?end@?$list@V?$basic_string@DV?$char_traits@D@_STL@@V?$allocator@D@2@@_STL@@V?$allocator@V?$basic_string@DV?$char_traits@D@_STL@@V?$allocator@D@2@@_STL@@@2@@_STL@@QBE?AU?$_List_iterator@V?$basic_string@DV?$char_traits@D@_STL@@V?$allocator@D@2@@_STL@@U?$_Const_traits@V?$basic_string@DV?$char_traits@D@_STL@@V?$allocator@D@2@@_STL@@@2@@2@XZ
_TEXT	SEGMENT PARA USE32 PUBLIC 'CODE'
_TEXT	ENDS
;	COMDAT ??1?$_List_base@V?$basic_string@DV?$char_traits@D@_STL@@V?$allocator@D@2@@_STL@@V?$allocator@V?$basic_string@DV?$char_traits@D@_STL@@V?$allocator@D@2@@_STL@@@2@@_STL@@QAE@XZ
_TEXT	SEGMENT PARA USE32 PUBLIC 'CODE'
_TEXT	ENDS
;	COMDAT ??1?$_STLP_alloc_proxy@PAU?$_List_node@V?$basic_string@DV?$char_traits@D@_STL@@V?$allocator@D@2@@_STL@@@_STL@@U12@V?$allocator@U?$_List_node@V?$basic_string@DV?$char_traits@D@_STL@@V?$allocator@D@2@@_STL@@@_STL@@@2@@_STL@@QAE@XZ
_TEXT	SEGMENT PARA USE32 PUBLIC 'CODE'
_TEXT	ENDS
;	COMDAT ??1?$allocator@U?$_List_node@V?$basic_string@DV?$char_traits@D@_STL@@V?$allocator@D@2@@_STL@@@_STL@@@_STL@@QAE@XZ
_TEXT	SEGMENT PARA USE32 PUBLIC 'CODE'
_TEXT	ENDS
;	COMDAT ?clear@?$_List_base@V?$basic_string@DV?$char_traits@D@_STL@@V?$allocator@D@2@@_STL@@V?$allocator@V?$basic_string@DV?$char_traits@D@_STL@@V?$allocator@D@2@@_STL@@@2@@_STL@@QAEXXZ
_TEXT	SEGMENT PARA USE32 PUBLIC 'CODE'
_TEXT	ENDS
;	COMDAT ??1?$allocator@V?$basic_string@DV?$char_traits@D@_STL@@V?$allocator@D@2@@_STL@@@_STL@@QAE@XZ
_TEXT	SEGMENT PARA USE32 PUBLIC 'CODE'
_TEXT	ENDS
;	COMDAT ??0?$_List_base@V?$basic_string@DV?$char_traits@D@_STL@@V?$allocator@D@2@@_STL@@V?$allocator@V?$basic_string@DV?$char_traits@D@_STL@@V?$allocator@D@2@@_STL@@@2@@_STL@@QAE@ABV?$allocator@V?$basic_string@DV?$char_traits@D@_STL@@V?$allocator@D@2@@_STL@@@1@@Z
_TEXT	SEGMENT PARA USE32 PUBLIC 'CODE'
_TEXT	ENDS
;	COMDAT ??0?$_STLP_alloc_proxy@PAU?$_List_node@V?$basic_string@DV?$char_traits@D@_STL@@V?$allocator@D@2@@_STL@@@_STL@@U12@V?$allocator@U?$_List_node@V?$basic_string@DV?$char_traits@D@_STL@@V?$allocator@D@2@@_STL@@@_STL@@@2@@_STL@@QAE@ABV?$allocator@U?$_List_node@V?$basic_string@DV?$char_traits@D@_STL@@V?$allocator@D@2@@_STL@@@_STL@@@1@PAU?$_List_node@V?$basic_string@DV?$char_traits@D@_STL@@V?$allocator@D@2@@_STL@@@1@@Z
_TEXT	SEGMENT PARA USE32 PUBLIC 'CODE'
_TEXT	ENDS
;	COMDAT ??0?$allocator@U?$_List_node@V?$basic_string@DV?$char_traits@D@_STL@@V?$allocator@D@2@@_STL@@@_STL@@@_STL@@QAE@ABV01@@Z
_TEXT	SEGMENT PARA USE32 PUBLIC 'CODE'
_TEXT	ENDS
;	COMDAT ??$?0V?$basic_string@DV?$char_traits@D@_STL@@V?$allocator@D@2@@_STL@@@?$allocator@U?$_List_node@V?$basic_string@DV?$char_traits@D@_STL@@V?$allocator@D@2@@_STL@@@_STL@@@_STL@@QAE@ABV?$allocator@V?$basic_string@DV?$char_traits@D@_STL@@V?$allocator@D@2@@_STL@@@1@@Z
_TEXT	SEGMENT PARA USE32 PUBLIC 'CODE'
_TEXT	ENDS
;	COMDAT ?setp@?$basic_streambuf@DV?$char_traits@D@_STL@@@_STL@@IAEXPAD0@Z
_TEXT	SEGMENT PARA USE32 PUBLIC 'CODE'
_TEXT	ENDS
;	COMDAT ?_FILE_O_set@_STL@@YAXPAU_iobuf@@PAD11@Z
_TEXT	SEGMENT PARA USE32 PUBLIC 'CODE'
_TEXT	ENDS
;	COMDAT ?_FILE_I_set@_STL@@YAXPAU_iobuf@@PAD11@Z
_TEXT	SEGMENT PARA USE32 PUBLIC 'CODE'
_TEXT	ENDS
;	COMDAT ?setg@?$basic_streambuf@DV?$char_traits@D@_STL@@@_STL@@IAEXPAD00@Z
_TEXT	SEGMENT PARA USE32 PUBLIC 'CODE'
_TEXT	ENDS
;	COMDAT ?__is_open@_Filebuf_base@_STL@@QBE_NXZ
_TEXT	SEGMENT PARA USE32 PUBLIC 'CODE'
_TEXT	ENDS
;	COMDAT ?allocate@?$__node_alloc@$00$0A@@_STL@@SAPAXI@Z
_TEXT	SEGMENT PARA USE32 PUBLIC 'CODE'
_TEXT	ENDS
;	COMDAT ?__stl_new@_STL@@YAPAXI@Z
_TEXT	SEGMENT PARA USE32 PUBLIC 'CODE'
_TEXT	ENDS
;	COMDAT ??1?$_STLP_alloc_proxy@PADDV?$allocator@D@_STL@@@_STL@@QAE@XZ
_TEXT	SEGMENT PARA USE32 PUBLIC 'CODE'
_TEXT	ENDS
;	COMDAT ??1?$allocator@D@_STL@@QAE@XZ
_TEXT	SEGMENT PARA USE32 PUBLIC 'CODE'
_TEXT	ENDS
;	COMDAT ?eof@?$__char_traits_base@DH@_STL@@SAHXZ
_TEXT	SEGMENT PARA USE32 PUBLIC 'CODE'
_TEXT	ENDS
;	COMDAT ??_C@_01CLKCMJKC@?5?$AA@
CONST	SEGMENT DWORD USE32 PUBLIC 'CONST'
CONST	ENDS
;	COMDAT ??_7IOException@@6B@
CONST	SEGMENT DWORD USE32 PUBLIC 'CONST'
CONST	ENDS
;	COMDAT ??_R4IOException@@6B@
rdata$r	SEGMENT DWORD USE32 PUBLIC 'CONST'
rdata$r	ENDS
;	COMDAT ??_R3IOException@@8
rdata$r	SEGMENT DWORD USE32 PUBLIC 'CONST'
rdata$r	ENDS
;	COMDAT ??_R2IOException@@8
rdata$r	SEGMENT DWORD USE32 PUBLIC 'CONST'
rdata$r	ENDS
;	COMDAT ??_R1A@?0A@A@IOException@@8
rdata$r	SEGMENT DWORD USE32 PUBLIC 'CONST'
rdata$r	ENDS
;	COMDAT ??_R1A@?0A@A@Exception@@8
rdata$r	SEGMENT DWORD USE32 PUBLIC 'CONST'
rdata$r	ENDS
;	COMDAT ??_R1A@?0A@A@Throwable@@8
rdata$r	SEGMENT DWORD USE32 PUBLIC 'CONST'
rdata$r	ENDS
;	COMDAT ??_GIOException@@UAEPAXI@Z
_TEXT	SEGMENT PARA USE32 PUBLIC 'CODE'
_TEXT	ENDS
;	COMDAT ?getName@IOException@@UBE?AV?$basic_string@DV?$char_traits@D@_STL@@V?$allocator@D@2@@_STL@@XZ
_TEXT	SEGMENT PARA USE32 PUBLIC 'CODE'
_TEXT	ENDS
;	COMDAT ??0?$basic_string@DV?$char_traits@D@_STL@@V?$allocator@D@2@@_STL@@QAE@PBDABV?$allocator@D@1@@Z
_TEXT	SEGMENT PARA USE32 PUBLIC 'CODE'
_TEXT	ENDS
;	COMDAT ??1?$_String_base@DV?$allocator@D@_STL@@@_STL@@QAE@XZ
_TEXT	SEGMENT PARA USE32 PUBLIC 'CODE'
_TEXT	ENDS
;	COMDAT ?length@?$char_traits@D@_STL@@SAIPBD@Z
_TEXT	SEGMENT PARA USE32 PUBLIC 'CODE'
_TEXT	ENDS
;	COMDAT ??0?$allocator@D@_STL@@QAE@XZ
_TEXT	SEGMENT PARA USE32 PUBLIC 'CODE'
_TEXT	ENDS
;	COMDAT ??_C@_0M@CBPJAJJI@IOException?$AA@
CONST	SEGMENT DWORD USE32 PUBLIC 'CONST'
CONST	ENDS
;	COMDAT ?toString@Throwable@@UBE?AV?$basic_string@DV?$char_traits@D@_STL@@V?$allocator@D@2@@_STL@@XZ
_TEXT	SEGMENT PARA USE32 PUBLIC 'CODE'
_TEXT	ENDS
;	COMDAT ??_C@_03MCPBMLDJ@?5?3?5?$AA@
CONST	SEGMENT DWORD USE32 PUBLIC 'CONST'
CONST	ENDS
;	COMDAT ?getStackTrace@Throwable@@QBE?AV?$basic_string@DV?$char_traits@D@_STL@@V?$allocator@D@2@@_STL@@XZ
_TEXT	SEGMENT PARA USE32 PUBLIC 'CODE'
_TEXT	ENDS
;	COMDAT ??E?$_List_iterator@V?$basic_string@DV?$char_traits@D@_STL@@V?$allocator@D@2@@_STL@@U?$_Const_traits@V?$basic_string@DV?$char_traits@D@_STL@@V?$allocator@D@2@@_STL@@@2@@_STL@@QAE?AU01@H@Z
_TEXT	SEGMENT PARA USE32 PUBLIC 'CODE'
_TEXT	ENDS
;	COMDAT ??_7ProtocolException@@6B@
CONST	SEGMENT DWORD USE32 PUBLIC 'CONST'
CONST	ENDS
;	COMDAT ??_R4ProtocolException@@6B@
rdata$r	SEGMENT DWORD USE32 PUBLIC 'CONST'
rdata$r	ENDS
;	COMDAT ??_R3ProtocolException@@8
rdata$r	SEGMENT DWORD USE32 PUBLIC 'CONST'
rdata$r	ENDS
;	COMDAT ??_R2ProtocolException@@8
rdata$r	SEGMENT DWORD USE32 PUBLIC 'CONST'
rdata$r	ENDS
;	COMDAT ??_R1A@?0A@A@ProtocolException@@8
rdata$r	SEGMENT DWORD USE32 PUBLIC 'CONST'
rdata$r	ENDS
;	COMDAT ??_GProtocolException@@UAEPAXI@Z
_TEXT	SEGMENT PARA USE32 PUBLIC 'CODE'
_TEXT	ENDS
;	COMDAT ?getName@ProtocolException@@UBE?AV?$basic_string@DV?$char_traits@D@_STL@@V?$allocator@D@2@@_STL@@XZ
_TEXT	SEGMENT PARA USE32 PUBLIC 'CODE'
_TEXT	ENDS
;	COMDAT ??_C@_0BC@KDBIDNIF@ProtocolException?$AA@
CONST	SEGMENT DWORD USE32 PUBLIC 'CONST'
CONST	ENDS
;	COMDAT ??1IOException@@UAE@XZ
_TEXT	SEGMENT PARA USE32 PUBLIC 'CODE'
_TEXT	ENDS
;	COMDAT ??_7IgnorePacketException@@6B@
CONST	SEGMENT DWORD USE32 PUBLIC 'CONST'
CONST	ENDS
;	COMDAT ??_R4IgnorePacketException@@6B@
rdata$r	SEGMENT DWORD USE32 PUBLIC 'CONST'
rdata$r	ENDS
;	COMDAT ??_R3IgnorePacketException@@8
rdata$r	SEGMENT DWORD USE32 PUBLIC 'CONST'
rdata$r	ENDS
;	COMDAT ??_R2IgnorePacketException@@8
rdata$r	SEGMENT DWORD USE32 PUBLIC 'CONST'
rdata$r	ENDS
;	COMDAT ??_R1A@?0A@A@IgnorePacketException@@8
rdata$r	SEGMENT DWORD USE32 PUBLIC 'CONST'
rdata$r	ENDS
;	COMDAT ??_GIgnorePacketException@@UAEPAXI@Z
_TEXT	SEGMENT PARA USE32 PUBLIC 'CODE'
_TEXT	ENDS
;	COMDAT ?getName@IgnorePacketException@@UBE?AV?$basic_string@DV?$char_traits@D@_STL@@V?$allocator@D@2@@_STL@@XZ
_TEXT	SEGMENT PARA USE32 PUBLIC 'CODE'
_TEXT	ENDS
;	COMDAT ??_C@_0BG@PFJMMBOB@IgnorePacketException?$AA@
CONST	SEGMENT DWORD USE32 PUBLIC 'CONST'
CONST	ENDS
;	COMDAT ??1ProtocolException@@UAE@XZ
_TEXT	SEGMENT PARA USE32 PUBLIC 'CODE'
_TEXT	ENDS
;	COMDAT __CTA5?AVIgnorePacketException@@
xdata$x	SEGMENT DWORD USE32 PUBLIC 'CONST'
xdata$x	ENDS
;	COMDAT ??1IgnorePacketException@@UAE@XZ
_TEXT	SEGMENT PARA USE32 PUBLIC 'CODE'
_TEXT	ENDS
;	COMDAT __CT??_R0?AVIOException@@@8??0IOException@@QAE@ABV0@@Z20
xdata$x	SEGMENT DWORD USE32 PUBLIC 'CONST'
xdata$x	ENDS
;	COMDAT __CT??_R0?AVProtocolException@@@8??0ProtocolException@@QAE@ABV0@@Z20
xdata$x	SEGMENT DWORD USE32 PUBLIC 'CONST'
xdata$x	ENDS
;	COMDAT __CT??_R0?AVIgnorePacketException@@@8??0IgnorePacketException@@QAE@ABV0@@Z20
xdata$x	SEGMENT DWORD USE32 PUBLIC 'CONST'
xdata$x	ENDS
;	COMDAT ??_R0?AVIOException@@@8
_DATA	SEGMENT DWORD USE32 PUBLIC 'DATA'
_DATA	ENDS
;	COMDAT ??_R0?AVProtocolException@@@8
_DATA	SEGMENT DWORD USE32 PUBLIC 'DATA'
_DATA	ENDS
;	COMDAT ??_R0?AVIgnorePacketException@@@8
_DATA	SEGMENT DWORD USE32 PUBLIC 'DATA'
_DATA	ENDS
;	COMDAT __TI5?AVIgnorePacketException@@
xdata$x	SEGMENT DWORD USE32 PUBLIC 'CONST'
xdata$x	ENDS
;	COMDAT ??0IgnorePacketException@@QAE@XZ
_TEXT	SEGMENT PARA USE32 PUBLIC 'CODE'
_TEXT	ENDS
;	COMDAT ??0ProtocolException@@QAE@XZ
_TEXT	SEGMENT PARA USE32 PUBLIC 'CODE'
_TEXT	ENDS
;	COMDAT ??0IOException@@QAE@XZ
_TEXT	SEGMENT PARA USE32 PUBLIC 'CODE'
_TEXT	ENDS
;	COMDAT ??0Exception@@QAE@XZ
_TEXT	SEGMENT PARA USE32 PUBLIC 'CODE'
_TEXT	ENDS
;	COMDAT ??0Throwable@@QAE@XZ
_TEXT	SEGMENT PARA USE32 PUBLIC 'CODE'
_TEXT	ENDS
;	COMDAT ??0?$basic_string@DV?$char_traits@D@_STL@@V?$allocator@D@2@@_STL@@QAE@XZ
_TEXT	SEGMENT PARA USE32 PUBLIC 'CODE'
_TEXT	ENDS
;	COMDAT ??0?$list@V?$basic_string@DV?$char_traits@D@_STL@@V?$allocator@D@2@@_STL@@V?$allocator@V?$basic_string@DV?$char_traits@D@_STL@@V?$allocator@D@2@@_STL@@@2@@_STL@@QAE@ABV?$allocator@V?$basic_string@DV?$char_traits@D@_STL@@V?$allocator@D@2@@_STL@@@1@@Z
_TEXT	SEGMENT PARA USE32 PUBLIC 'CODE'
_TEXT	ENDS
;	COMDAT ??0?$allocator@V?$basic_string@DV?$char_traits@D@_STL@@V?$allocator@D@2@@_STL@@@_STL@@QAE@XZ
_TEXT	SEGMENT PARA USE32 PUBLIC 'CODE'
_TEXT	ENDS
;	COMDAT ??_7NoSuchElementException@@6B@
CONST	SEGMENT DWORD USE32 PUBLIC 'CONST'
CONST	ENDS
;	COMDAT ??_R4NoSuchElementException@@6B@
rdata$r	SEGMENT DWORD USE32 PUBLIC 'CONST'
rdata$r	ENDS
;	COMDAT ??_R3NoSuchElementException@@8
rdata$r	SEGMENT DWORD USE32 PUBLIC 'CONST'
rdata$r	ENDS
;	COMDAT ??_R2NoSuchElementException@@8
rdata$r	SEGMENT DWORD USE32 PUBLIC 'CONST'
rdata$r	ENDS
;	COMDAT ??_R1A@?0A@A@NoSuchElementException@@8
rdata$r	SEGMENT DWORD USE32 PUBLIC 'CONST'
rdata$r	ENDS
;	COMDAT ??_R1A@?0A@A@RuntimeException@@8
rdata$r	SEGMENT DWORD USE32 PUBLIC 'CONST'
rdata$r	ENDS
;	COMDAT ??_GNoSuchElementException@@UAEPAXI@Z
_TEXT	SEGMENT PARA USE32 PUBLIC 'CODE'
_TEXT	ENDS
;	COMDAT ?getName@NoSuchElementException@@UBE?AV?$basic_string@DV?$char_traits@D@_STL@@V?$allocator@D@2@@_STL@@XZ
_TEXT	SEGMENT PARA USE32 PUBLIC 'CODE'
_TEXT	ENDS
;	COMDAT ??_C@_0BH@EPEGACME@NoSuchElementException?$AA@
CONST	SEGMENT DWORD USE32 PUBLIC 'CONST'
CONST	ENDS
;	COMDAT __CTA4?AVNoSuchElementException@@
xdata$x	SEGMENT DWORD USE32 PUBLIC 'CONST'
xdata$x	ENDS
;	COMDAT ??1NoSuchElementException@@UAE@XZ
_TEXT	SEGMENT PARA USE32 PUBLIC 'CODE'
_TEXT	ENDS
;	COMDAT __CT??_R0?AVNoSuchElementException@@@8??0NoSuchElementException@@QAE@ABV0@@Z20
xdata$x	SEGMENT DWORD USE32 PUBLIC 'CONST'
xdata$x	ENDS
;	COMDAT ??_R0?AVNoSuchElementException@@@8
_DATA	SEGMENT DWORD USE32 PUBLIC 'DATA'
_DATA	ENDS
;	COMDAT __TI4?AVNoSuchElementException@@
xdata$x	SEGMENT DWORD USE32 PUBLIC 'CONST'
xdata$x	ENDS
;	COMDAT ??0NoSuchElementException@@QAE@XZ
_TEXT	SEGMENT PARA USE32 PUBLIC 'CODE'
_TEXT	ENDS
;	COMDAT ??0RuntimeException@@QAE@XZ
_TEXT	SEGMENT PARA USE32 PUBLIC 'CODE'
_TEXT	ENDS
;	COMDAT ??9_Rb_tree_base_iterator@_STL@@QBE_NABU01@@Z
_TEXT	SEGMENT PARA USE32 PUBLIC 'CODE'
_TEXT	ENDS
;	COMDAT ??_7Exception@@6B@
CONST	SEGMENT DWORD USE32 PUBLIC 'CONST'
CONST	ENDS
;	COMDAT ??_R4Exception@@6B@
rdata$r	SEGMENT DWORD USE32 PUBLIC 'CONST'
rdata$r	ENDS
;	COMDAT ??_R3Exception@@8
rdata$r	SEGMENT DWORD USE32 PUBLIC 'CONST'
rdata$r	ENDS
;	COMDAT ??_R2Exception@@8
rdata$r	SEGMENT DWORD USE32 PUBLIC 'CONST'
rdata$r	ENDS
;	COMDAT ??_GException@@UAEPAXI@Z
_TEXT	SEGMENT PARA USE32 PUBLIC 'CODE'
_TEXT	ENDS
;	COMDAT ?getName@Exception@@UBE?AV?$basic_string@DV?$char_traits@D@_STL@@V?$allocator@D@2@@_STL@@XZ
_TEXT	SEGMENT PARA USE32 PUBLIC 'CODE'
_TEXT	ENDS
;	COMDAT ??_C@_09FBNMMHMJ@Exception?$AA@
CONST	SEGMENT DWORD USE32 PUBLIC 'CONST'
CONST	ENDS
;	COMDAT ??_7RuntimeException@@6B@
CONST	SEGMENT DWORD USE32 PUBLIC 'CONST'
CONST	ENDS
;	COMDAT ??_R4RuntimeException@@6B@
rdata$r	SEGMENT DWORD USE32 PUBLIC 'CONST'
rdata$r	ENDS
;	COMDAT ??_R3RuntimeException@@8
rdata$r	SEGMENT DWORD USE32 PUBLIC 'CONST'
rdata$r	ENDS
;	COMDAT ??_R2RuntimeException@@8
rdata$r	SEGMENT DWORD USE32 PUBLIC 'CONST'
rdata$r	ENDS
;	COMDAT ??_GRuntimeException@@UAEPAXI@Z
_TEXT	SEGMENT PARA USE32 PUBLIC 'CODE'
_TEXT	ENDS
;	COMDAT ?getName@RuntimeException@@UBE?AV?$basic_string@DV?$char_traits@D@_STL@@V?$allocator@D@2@@_STL@@XZ
_TEXT	SEGMENT PARA USE32 PUBLIC 'CODE'
_TEXT	ENDS
;	COMDAT ??_C@_0BB@CDLLKKB@RuntimeException?$AA@
CONST	SEGMENT DWORD USE32 PUBLIC 'CONST'
CONST	ENDS
;	COMDAT ??1Exception@@UAE@XZ
_TEXT	SEGMENT PARA USE32 PUBLIC 'CODE'
_TEXT	ENDS
;	COMDAT ??_7DuplicatedException@@6B@
CONST	SEGMENT DWORD USE32 PUBLIC 'CONST'
CONST	ENDS
;	COMDAT ??_R4DuplicatedException@@6B@
rdata$r	SEGMENT DWORD USE32 PUBLIC 'CONST'
rdata$r	ENDS
;	COMDAT ??_R3DuplicatedException@@8
rdata$r	SEGMENT DWORD USE32 PUBLIC 'CONST'
rdata$r	ENDS
;	COMDAT ??_R2DuplicatedException@@8
rdata$r	SEGMENT DWORD USE32 PUBLIC 'CONST'
rdata$r	ENDS
;	COMDAT ??_R1A@?0A@A@DuplicatedException@@8
rdata$r	SEGMENT DWORD USE32 PUBLIC 'CONST'
rdata$r	ENDS
;	COMDAT ??_GDuplicatedException@@UAEPAXI@Z
_TEXT	SEGMENT PARA USE32 PUBLIC 'CODE'
_TEXT	ENDS
;	COMDAT ?getName@DuplicatedException@@UBE?AV?$basic_string@DV?$char_traits@D@_STL@@V?$allocator@D@2@@_STL@@XZ
_TEXT	SEGMENT PARA USE32 PUBLIC 'CODE'
_TEXT	ENDS
;	COMDAT ??_C@_0BE@CDFNNCMK@DuplicatedException?$AA@
CONST	SEGMENT DWORD USE32 PUBLIC 'CONST'
CONST	ENDS
;	COMDAT ??1RuntimeException@@UAE@XZ
_TEXT	SEGMENT PARA USE32 PUBLIC 'CODE'
_TEXT	ENDS
;	COMDAT __CTA4?AVDuplicatedException@@
xdata$x	SEGMENT DWORD USE32 PUBLIC 'CONST'
xdata$x	ENDS
;	COMDAT ??1DuplicatedException@@UAE@XZ
_TEXT	SEGMENT PARA USE32 PUBLIC 'CODE'
_TEXT	ENDS
;	COMDAT __CT??_R0?AVException@@@8??0Exception@@QAE@ABV0@@Z20
xdata$x	SEGMENT DWORD USE32 PUBLIC 'CONST'
xdata$x	ENDS
;	COMDAT __CT??_R0?AVRuntimeException@@@8??0RuntimeException@@QAE@ABV0@@Z20
xdata$x	SEGMENT DWORD USE32 PUBLIC 'CONST'
xdata$x	ENDS
;	COMDAT __CT??_R0?AVDuplicatedException@@@8??0DuplicatedException@@QAE@ABV0@@Z20
xdata$x	SEGMENT DWORD USE32 PUBLIC 'CONST'
xdata$x	ENDS
;	COMDAT ??_R0?AVException@@@8
_DATA	SEGMENT DWORD USE32 PUBLIC 'DATA'
_DATA	ENDS
;	COMDAT ??_R0?AVRuntimeException@@@8
_DATA	SEGMENT DWORD USE32 PUBLIC 'DATA'
_DATA	ENDS
;	COMDAT ??_R0?AVDuplicatedException@@@8
_DATA	SEGMENT DWORD USE32 PUBLIC 'DATA'
_DATA	ENDS
;	COMDAT __TI4?AVDuplicatedException@@
xdata$x	SEGMENT DWORD USE32 PUBLIC 'CONST'
xdata$x	ENDS
;	COMDAT ??0DuplicatedException@@QAE@XZ
_TEXT	SEGMENT PARA USE32 PUBLIC 'CODE'
_TEXT	ENDS
;	COMDAT ??1?$list@V?$basic_string@DV?$char_traits@D@_STL@@V?$allocator@D@2@@_STL@@V?$allocator@V?$basic_string@DV?$char_traits@D@_STL@@V?$allocator@D@2@@_STL@@@2@@_STL@@QAE@XZ
_TEXT	SEGMENT PARA USE32 PUBLIC 'CODE'
_TEXT	ENDS
;	COMDAT ??_7Throwable@@6B@
CONST	SEGMENT DWORD USE32 PUBLIC 'CONST'
CONST	ENDS
;	COMDAT ??_R4Throwable@@6B@
rdata$r	SEGMENT DWORD USE32 PUBLIC 'CONST'
rdata$r	ENDS
;	COMDAT ??_R3Throwable@@8
rdata$r	SEGMENT DWORD USE32 PUBLIC 'CONST'
rdata$r	ENDS
;	COMDAT ??_R2Throwable@@8
rdata$r	SEGMENT DWORD USE32 PUBLIC 'CONST'
rdata$r	ENDS
;	COMDAT ??_GThrowable@@UAEPAXI@Z
_TEXT	SEGMENT PARA USE32 PUBLIC 'CODE'
_TEXT	ENDS
;	COMDAT ?getName@Throwable@@UBE?AV?$basic_string@DV?$char_traits@D@_STL@@V?$allocator@D@2@@_STL@@XZ
_TEXT	SEGMENT PARA USE32 PUBLIC 'CODE'
_TEXT	ENDS
;	COMDAT ??_C@_09KCKHMJEM@Throwable?$AA@
CONST	SEGMENT DWORD USE32 PUBLIC 'CONST'
CONST	ENDS
;	COMDAT ??_7Error@@6B@
CONST	SEGMENT DWORD USE32 PUBLIC 'CONST'
CONST	ENDS
;	COMDAT ??_R4Error@@6B@
rdata$r	SEGMENT DWORD USE32 PUBLIC 'CONST'
rdata$r	ENDS
;	COMDAT ??_R3Error@@8
rdata$r	SEGMENT DWORD USE32 PUBLIC 'CONST'
rdata$r	ENDS
;	COMDAT ??_R2Error@@8
rdata$r	SEGMENT DWORD USE32 PUBLIC 'CONST'
rdata$r	ENDS
;	COMDAT ??_R1A@?0A@A@Error@@8
rdata$r	SEGMENT DWORD USE32 PUBLIC 'CONST'
rdata$r	ENDS
;	COMDAT ??_GError@@UAEPAXI@Z
_TEXT	SEGMENT PARA USE32 PUBLIC 'CODE'
_TEXT	ENDS
;	COMDAT ?getName@Error@@UBE?AV?$basic_string@DV?$char_traits@D@_STL@@V?$allocator@D@2@@_STL@@XZ
_TEXT	SEGMENT PARA USE32 PUBLIC 'CODE'
_TEXT	ENDS
;	COMDAT ??_C@_05NAOIJFC@Error?$AA@
CONST	SEGMENT DWORD USE32 PUBLIC 'CONST'
CONST	ENDS
;	COMDAT ??1Throwable@@UAE@XZ
_TEXT	SEGMENT PARA USE32 PUBLIC 'CODE'
_TEXT	ENDS
;	COMDAT ??_7UnsupportedError@@6B@
CONST	SEGMENT DWORD USE32 PUBLIC 'CONST'
CONST	ENDS
;	COMDAT ??_R4UnsupportedError@@6B@
rdata$r	SEGMENT DWORD USE32 PUBLIC 'CONST'
rdata$r	ENDS
;	COMDAT ??_R3UnsupportedError@@8
rdata$r	SEGMENT DWORD USE32 PUBLIC 'CONST'
rdata$r	ENDS
;	COMDAT ??_R2UnsupportedError@@8
rdata$r	SEGMENT DWORD USE32 PUBLIC 'CONST'
rdata$r	ENDS
;	COMDAT ??_R1A@?0A@A@UnsupportedError@@8
rdata$r	SEGMENT DWORD USE32 PUBLIC 'CONST'
rdata$r	ENDS
;	COMDAT ??_GUnsupportedError@@UAEPAXI@Z
_TEXT	SEGMENT PARA USE32 PUBLIC 'CODE'
_TEXT	ENDS
;	COMDAT ?getName@UnsupportedError@@UBE?AV?$basic_string@DV?$char_traits@D@_STL@@V?$allocator@D@2@@_STL@@XZ
_TEXT	SEGMENT PARA USE32 PUBLIC 'CODE'
_TEXT	ENDS
;	COMDAT ??_C@_0BB@EOCHEBED@UnsupportedError?$AA@
CONST	SEGMENT DWORD USE32 PUBLIC 'CONST'
CONST	ENDS
;	COMDAT ??1Error@@UAE@XZ
_TEXT	SEGMENT PARA USE32 PUBLIC 'CODE'
_TEXT	ENDS
;	COMDAT __CTA3?AVUnsupportedError@@
xdata$x	SEGMENT DWORD USE32 PUBLIC 'CONST'
xdata$x	ENDS
;	COMDAT ??1UnsupportedError@@UAE@XZ
_TEXT	SEGMENT PARA USE32 PUBLIC 'CODE'
_TEXT	ENDS
;	COMDAT __CT??_R0?AVThrowable@@@8??0Throwable@@QAE@ABV0@@Z20
xdata$x	SEGMENT DWORD USE32 PUBLIC 'CONST'
xdata$x	ENDS
;	COMDAT __CT??_R0?AVError@@@8??0Error@@QAE@ABV0@@Z20
xdata$x	SEGMENT DWORD USE32 PUBLIC 'CONST'
xdata$x	ENDS
;	COMDAT __CT??_R0?AVUnsupportedError@@@8??0UnsupportedError@@QAE@ABV0@@Z20
xdata$x	SEGMENT DWORD USE32 PUBLIC 'CONST'
xdata$x	ENDS
;	COMDAT ??_R0?AVThrowable@@@8
_DATA	SEGMENT DWORD USE32 PUBLIC 'DATA'
_DATA	ENDS
;	COMDAT ??_R0?AVError@@@8
_DATA	SEGMENT DWORD USE32 PUBLIC 'DATA'
_DATA	ENDS
;	COMDAT ??_R0?AVUnsupportedError@@@8
_DATA	SEGMENT DWORD USE32 PUBLIC 'DATA'
_DATA	ENDS
;	COMDAT __TI3?AVUnsupportedError@@
xdata$x	SEGMENT DWORD USE32 PUBLIC 'CONST'
xdata$x	ENDS
;	COMDAT ??0UnsupportedError@@QAE@XZ
_TEXT	SEGMENT PARA USE32 PUBLIC 'CODE'
_TEXT	ENDS
;	COMDAT ??0Error@@QAE@XZ
_TEXT	SEGMENT PARA USE32 PUBLIC 'CODE'
_TEXT	ENDS
;	COMDAT ??_7Packet@@6B@
CONST	SEGMENT DWORD USE32 PUBLIC 'CONST'
CONST	ENDS
;	COMDAT ??1?$basic_string@DV?$char_traits@D@_STL@@V?$allocator@D@2@@_STL@@QAE@XZ
_TEXT	SEGMENT PARA USE32 PUBLIC 'CODE'
_TEXT	ENDS
;	COMDAT ??0?$basic_string@DV?$char_traits@D@_STL@@V?$allocator@D@2@@_STL@@QAE@ABV01@@Z
_TEXT	SEGMENT PARA USE32 PUBLIC 'CODE'
_TEXT	ENDS
sxdata	SEGMENT DWORD USE32 'SXDATA'
sxdata	ENDS
FLAT	GROUP _DATA, CONST, _BSS
	ASSUME	CS: FLAT, DS: FLAT, SS: FLAT
endif

INCLUDELIB LIBCMT
INCLUDELIB OLDNAMES

PUBLIC	??2@YAPAXIPAX@Z					; operator new
; Function compile flags: /Ogsy
; File c:\program files\microsoft visual studio .net 2003\vc7\include\new
;	COMDAT ??2@YAPAXIPAX@Z
_TEXT	SEGMENT
___formal$ = 8						; size = 4
__Where$ = 12						; size = 4
??2@YAPAXIPAX@Z PROC NEAR				; operator new, COMDAT

; 64   : 	return (_Where);

  00000	8b 44 24 08	 mov	 eax, DWORD PTR __Where$[esp-4]

; 65   : 	}

  00004	c3		 ret	 0
??2@YAPAXIPAX@Z ENDP					; operator new
_TEXT	ENDS
PUBLIC	?__stl_new@_STL@@YAPAXI@Z			; _STL::__stl_new
EXTRN	??2@YAPAXI@Z:NEAR				; operator new
; Function compile flags: /Ogsy
; File c:\stlport-4.6.1\stlport\stl\_new.h
;	COMDAT ?__stl_new@_STL@@YAPAXI@Z
_TEXT	SEGMENT
___n$ = 8						; size = 4
?__stl_new@_STL@@YAPAXI@Z PROC NEAR			; _STL::__stl_new, COMDAT

; 86   : inline void*  _STLP_CALL __stl_new(size_t __n)   { _STLP_CHECK_NULL_ALLOC(::operator _STLP_NEW(__n)); }

  00000	e9 00 00 00 00	 jmp	 ??2@YAPAXI@Z		; operator new
?__stl_new@_STL@@YAPAXI@Z ENDP				; _STL::__stl_new
_TEXT	ENDS
PUBLIC	?__stl_delete@_STL@@YAXPAX@Z			; _STL::__stl_delete
EXTRN	??3@YAXPAX@Z:NEAR				; operator delete
; Function compile flags: /Ogsy
;	COMDAT ?__stl_delete@_STL@@YAXPAX@Z
_TEXT	SEGMENT
___p$ = 8						; size = 4
?__stl_delete@_STL@@YAXPAX@Z PROC NEAR			; _STL::__stl_delete, COMDAT

; 87   : inline void   _STLP_CALL __stl_delete(void* __p) { ::operator delete(__p); }

  00000	e9 00 00 00 00	 jmp	 ??3@YAXPAX@Z		; operator delete
?__stl_delete@_STL@@YAXPAX@Z ENDP			; _STL::__stl_delete
_TEXT	ENDS
PUBLIC	?_Destroy@_STL@@YAXPAD0@Z			; _STL::_Destroy
; Function compile flags: /Ogsy
; File c:\stlport-4.6.1\stlport\stl\_construct.h
;	COMDAT ?_Destroy@_STL@@YAXPAD0@Z
_TEXT	SEGMENT
___formal$ = 8						; size = 4
___formal$ = 12						; size = 4
?_Destroy@_STL@@YAXPAD0@Z PROC NEAR			; _STL::_Destroy, COMDAT

; 142  : inline void _Destroy(char*, char*) {}

  00000	c3		 ret	 0
?_Destroy@_STL@@YAXPAD0@Z ENDP				; _STL::_Destroy
_TEXT	ENDS
PUBLIC	??D?$_Rb_tree_iterator@GU?$_Const_traits@G@_STL@@@_STL@@QBEABGXZ ; _STL::_Rb_tree_iterator<unsigned short,_STL::_Const_traits<unsigned short> >::operator*
; Function compile flags: /Ogsy
; File c:\stlport-4.6.1\stlport\stl\_tree.h
;	COMDAT ??D?$_Rb_tree_iterator@GU?$_Const_traits@G@_STL@@@_STL@@QBEABGXZ
_TEXT	SEGMENT
??D?$_Rb_tree_iterator@GU?$_Const_traits@G@_STL@@@_STL@@QBEABGXZ PROC NEAR ; _STL::_Rb_tree_iterator<unsigned short,_STL::_Const_traits<unsigned short> >::operator*, COMDAT
; _this$ = ecx

; 169  :     return _Link_type(_M_node)->_M_value_field; 

  00000	8b 01		 mov	 eax, DWORD PTR [ecx]
  00002	83 c0 10	 add	 eax, 16			; 00000010H

; 170  :   }

  00005	c3		 ret	 0
??D?$_Rb_tree_iterator@GU?$_Const_traits@G@_STL@@@_STL@@QBEABGXZ ENDP ; _STL::_Rb_tree_iterator<unsigned short,_STL::_Const_traits<unsigned short> >::operator*
_TEXT	ENDS
PUBLIC	??E?$_Rb_tree_iterator@GU?$_Const_traits@G@_STL@@@_STL@@QAE?AU01@H@Z ; _STL::_Rb_tree_iterator<unsigned short,_STL::_Const_traits<unsigned short> >::operator++
EXTRN	?_M_increment@?$_Rb_global@_N@_STL@@SAPAU_Rb_tree_node_base@2@PAU32@@Z:NEAR ; _STL::_Rb_global<bool>::_M_increment
; Function compile flags: /Ogsy
;	COMDAT ??E?$_Rb_tree_iterator@GU?$_Const_traits@G@_STL@@@_STL@@QAE?AU01@H@Z
_TEXT	SEGMENT
___$ReturnUdt$ = 8					; size = 4
___formal$ = 12						; size = 4
??E?$_Rb_tree_iterator@GU?$_Const_traits@G@_STL@@@_STL@@QAE?AU01@H@Z PROC NEAR ; _STL::_Rb_tree_iterator<unsigned short,_STL::_Const_traits<unsigned short> >::operator++, COMDAT
; _this$ = ecx

; 175  :   _Self operator++(int) {

  00000	56		 push	 esi
  00001	8b f1		 mov	 esi, ecx
  00003	57		 push	 edi

; 176  :     _Self __tmp = *this;

  00004	8b 3e		 mov	 edi, DWORD PTR [esi]

; 177  :     _M_node = _Rb_global_inst::_M_increment(_M_node);

  00006	57		 push	 edi
  00007	e8 00 00 00 00	 call	 ?_M_increment@?$_Rb_global@_N@_STL@@SAPAU_Rb_tree_node_base@2@PAU32@@Z ; _STL::_Rb_global<bool>::_M_increment
  0000c	89 06		 mov	 DWORD PTR [esi], eax

; 178  :     return __tmp;

  0000e	8b 44 24 10	 mov	 eax, DWORD PTR ___$ReturnUdt$[esp+8]
  00012	59		 pop	 ecx
  00013	89 38		 mov	 DWORD PTR [eax], edi
  00015	5f		 pop	 edi
  00016	5e		 pop	 esi

; 179  :   }

  00017	c2 08 00	 ret	 8
??E?$_Rb_tree_iterator@GU?$_Const_traits@G@_STL@@@_STL@@QAE?AU01@H@Z ENDP ; _STL::_Rb_tree_iterator<unsigned short,_STL::_Const_traits<unsigned short> >::operator++
_TEXT	ENDS
PUBLIC	?_M_terminate_string_aux@?$basic_string@DV?$char_traits@D@_STL@@V?$allocator@D@2@@_STL@@AAEXABU__true_type@2@@Z ; _STL::basic_string<char,_STL::char_traits<char>,_STL::allocator<char> >::_M_terminate_string_aux
; Function compile flags: /Ogsy
; File c:\stlport-4.6.1\stlport\stl\_string.h
;	COMDAT ?_M_terminate_string_aux@?$basic_string@DV?$char_traits@D@_STL@@V?$allocator@D@2@@_STL@@AAEXABU__true_type@2@@Z
_TEXT	SEGMENT
___formal$ = 8						; size = 4
?_M_terminate_string_aux@?$basic_string@DV?$char_traits@D@_STL@@V?$allocator@D@2@@_STL@@AAEXABU__true_type@2@@Z PROC NEAR ; _STL::basic_string<char,_STL::char_traits<char>,_STL::allocator<char> >::_M_terminate_string_aux, COMDAT
; _this$ = ecx

; 351  :     *(this->_M_finish)=0;

  00000	8b 41 04	 mov	 eax, DWORD PTR [ecx+4]
  00003	c6 00 00	 mov	 BYTE PTR [eax], 0

; 352  :   }

  00006	c2 04 00	 ret	 4
?_M_terminate_string_aux@?$basic_string@DV?$char_traits@D@_STL@@V?$allocator@D@2@@_STL@@AAEXABU__true_type@2@@Z ENDP ; _STL::basic_string<char,_STL::char_traits<char>,_STL::allocator<char> >::_M_terminate_string_aux
_TEXT	ENDS
PUBLIC	??0?$allocator@D@_STL@@QAE@ABV01@@Z		; _STL::allocator<char>::allocator<char>
; Function compile flags: /Ogsy
; File c:\stlport-4.6.1\stlport\stl\_alloc.h
;	COMDAT ??0?$allocator@D@_STL@@QAE@ABV01@@Z
_TEXT	SEGMENT
___formal$ = 8						; size = 4
??0?$allocator@D@_STL@@QAE@ABV01@@Z PROC NEAR		; _STL::allocator<char>::allocator<char>, COMDAT
; _this$ = ecx

; 349  :   allocator(const allocator<_Tp>&) _STLP_NOTHROW {}

  00000	8b c1		 mov	 eax, ecx
  00002	c2 04 00	 ret	 4
??0?$allocator@D@_STL@@QAE@ABV01@@Z ENDP		; _STL::allocator<char>::allocator<char>
_TEXT	ENDS
PUBLIC	??0?$allocator@G@_STL@@QAE@XZ			; _STL::allocator<unsigned short>::allocator<unsigned short>
; Function compile flags: /Ogsy
;	COMDAT ??0?$allocator@G@_STL@@QAE@XZ
_TEXT	SEGMENT
??0?$allocator@G@_STL@@QAE@XZ PROC NEAR			; _STL::allocator<unsigned short>::allocator<unsigned short>, COMDAT
; _this$ = ecx

; 345  :   allocator() _STLP_NOTHROW {}

  00000	8b c1		 mov	 eax, ecx
  00002	c3		 ret	 0
??0?$allocator@G@_STL@@QAE@XZ ENDP			; _STL::allocator<unsigned short>::allocator<unsigned short>
_TEXT	ENDS
PUBLIC	??0?$pair@U?$_Rb_tree_iterator@GU?$_Const_traits@G@_STL@@@_STL@@_N@_STL@@QAE@ABU?$_Rb_tree_iterator@GU?$_Const_traits@G@_STL@@@1@AB_N@Z ; _STL::pair<_STL::_Rb_tree_iterator<unsigned short,_STL::_Const_traits<unsigned short> >,bool>::pair<_STL::_Rb_tree_iterator<unsigned short,_STL::_Const_traits<unsigned short> >,bool>
; Function compile flags: /Ogsy
; File c:\stlport-4.6.1\stlport\stl\_pair.h
;	COMDAT ??0?$pair@U?$_Rb_tree_iterator@GU?$_Const_traits@G@_STL@@@_STL@@_N@_STL@@QAE@ABU?$_Rb_tree_iterator@GU?$_Const_traits@G@_STL@@@1@AB_N@Z
_TEXT	SEGMENT
___a$ = 8						; size = 4
___b$ = 12						; size = 4
??0?$pair@U?$_Rb_tree_iterator@GU?$_Const_traits@G@_STL@@@_STL@@_N@_STL@@QAE@ABU?$_Rb_tree_iterator@GU?$_Const_traits@G@_STL@@@1@AB_N@Z PROC NEAR ; _STL::pair<_STL::_Rb_tree_iterator<unsigned short,_STL::_Const_traits<unsigned short> >,bool>::pair<_STL::_Rb_tree_iterator<unsigned short,_STL::_Const_traits<unsigned short> >,bool>, COMDAT
; _this$ = ecx

; 48   :   pair(const _T1& __a, const _T2& __b) : first(__a), second(__b) {}

  00000	8b c1		 mov	 eax, ecx
  00002	8b 4c 24 04	 mov	 ecx, DWORD PTR ___a$[esp-4]
  00006	8b 09		 mov	 ecx, DWORD PTR [ecx]
  00008	89 08		 mov	 DWORD PTR [eax], ecx
  0000a	8b 4c 24 08	 mov	 ecx, DWORD PTR ___b$[esp-4]
  0000e	8a 09		 mov	 cl, BYTE PTR [ecx]
  00010	88 48 04	 mov	 BYTE PTR [eax+4], cl
  00013	c2 08 00	 ret	 8
??0?$pair@U?$_Rb_tree_iterator@GU?$_Const_traits@G@_STL@@@_STL@@_N@_STL@@QAE@ABU?$_Rb_tree_iterator@GU?$_Const_traits@G@_STL@@@1@AB_N@Z ENDP ; _STL::pair<_STL::_Rb_tree_iterator<unsigned short,_STL::_Const_traits<unsigned short> >,bool>::pair<_STL::_Rb_tree_iterator<unsigned short,_STL::_Const_traits<unsigned short> >,bool>
_TEXT	ENDS
PUBLIC	??0?$_Rb_tree_iterator@GU?$_Nonconst_traits@G@_STL@@@_STL@@QAE@ABU01@@Z ; _STL::_Rb_tree_iterator<unsigned short,_STL::_Nonconst_traits<unsigned short> >::_Rb_tree_iterator<unsigned short,_STL::_Nonconst_traits<unsigned short> >
; Function compile flags: /Ogsy
; File c:\stlport-4.6.1\stlport\stl\_tree.h
;	COMDAT ??0?$_Rb_tree_iterator@GU?$_Nonconst_traits@G@_STL@@@_STL@@QAE@ABU01@@Z
_TEXT	SEGMENT
___it$ = 8						; size = 4
??0?$_Rb_tree_iterator@GU?$_Nonconst_traits@G@_STL@@@_STL@@QAE@ABU01@@Z PROC NEAR ; _STL::_Rb_tree_iterator<unsigned short,_STL::_Nonconst_traits<unsigned short> >::_Rb_tree_iterator<unsigned short,_STL::_Nonconst_traits<unsigned short> >, COMDAT
; _this$ = ecx

; 165  :   _Rb_tree_iterator(const _Rb_tree_iterator<_Value, 

  00000	8b c1		 mov	 eax, ecx
  00002	8b 4c 24 04	 mov	 ecx, DWORD PTR ___it$[esp-4]
  00006	8b 09		 mov	 ecx, DWORD PTR [ecx]
  00008	89 08		 mov	 DWORD PTR [eax], ecx

; 166  :                     _Nonconst_traits<_Value> >& __it) { _M_node = __it._M_node; }

  0000a	c2 04 00	 ret	 4
??0?$_Rb_tree_iterator@GU?$_Nonconst_traits@G@_STL@@@_STL@@QAE@ABU01@@Z ENDP ; _STL::_Rb_tree_iterator<unsigned short,_STL::_Nonconst_traits<unsigned short> >::_Rb_tree_iterator<unsigned short,_STL::_Nonconst_traits<unsigned short> >
_TEXT	ENDS
PUBLIC	?_M_root@?$_Rb_tree@GGU?$_Identity@G@_STL@@U?$less@G@2@V?$allocator@G@2@@_STL@@IBEAAPAU?$_Rb_tree_node@G@2@XZ ; _STL::_Rb_tree<unsigned short,unsigned short,_STL::_Identity<unsigned short>,_STL::less<unsigned short>,_STL::allocator<unsigned short> >::_M_root
; Function compile flags: /Ogsy
;	COMDAT ?_M_root@?$_Rb_tree@GGU?$_Identity@G@_STL@@U?$less@G@2@V?$allocator@G@2@@_STL@@IBEAAPAU?$_Rb_tree_node@G@2@XZ
_TEXT	SEGMENT
?_M_root@?$_Rb_tree@GGU?$_Identity@G@_STL@@U?$less@G@2@V?$allocator@G@2@@_STL@@IBEAAPAU?$_Rb_tree_node@G@2@XZ PROC NEAR ; _STL::_Rb_tree<unsigned short,unsigned short,_STL::_Identity<unsigned short>,_STL::less<unsigned short>,_STL::allocator<unsigned short> >::_M_root, COMDAT
; _this$ = ecx

; 265  :     { return (_Link_type&) this->_M_header._M_data->_M_parent; }

  00000	8b 01		 mov	 eax, DWORD PTR [ecx]
  00002	83 c0 04	 add	 eax, 4
  00005	c3		 ret	 0
?_M_root@?$_Rb_tree@GGU?$_Identity@G@_STL@@U?$less@G@2@V?$allocator@G@2@@_STL@@IBEAAPAU?$_Rb_tree_node@G@2@XZ ENDP ; _STL::_Rb_tree<unsigned short,unsigned short,_STL::_Identity<unsigned short>,_STL::less<unsigned short>,_STL::allocator<unsigned short> >::_M_root
_TEXT	ENDS
PUBLIC	?_M_leftmost@?$_Rb_tree@GGU?$_Identity@G@_STL@@U?$less@G@2@V?$allocator@G@2@@_STL@@IBEAAPAU?$_Rb_tree_node@G@2@XZ ; _STL::_Rb_tree<unsigned short,unsigned short,_STL::_Identity<unsigned short>,_STL::less<unsigned short>,_STL::allocator<unsigned short> >::_M_leftmost
; Function compile flags: /Ogsy
;	COMDAT ?_M_leftmost@?$_Rb_tree@GGU?$_Identity@G@_STL@@U?$less@G@2@V?$allocator@G@2@@_STL@@IBEAAPAU?$_Rb_tree_node@G@2@XZ
_TEXT	SEGMENT
?_M_leftmost@?$_Rb_tree@GGU?$_Identity@G@_STL@@U?$less@G@2@V?$allocator@G@2@@_STL@@IBEAAPAU?$_Rb_tree_node@G@2@XZ PROC NEAR ; _STL::_Rb_tree<unsigned short,unsigned short,_STL::_Identity<unsigned short>,_STL::less<unsigned short>,_STL::allocator<unsigned short> >::_M_leftmost, COMDAT
; _this$ = ecx

; 267  :     { return (_Link_type&) this->_M_header._M_data->_M_left; }

  00000	8b 01		 mov	 eax, DWORD PTR [ecx]
  00002	83 c0 08	 add	 eax, 8
  00005	c3		 ret	 0
?_M_leftmost@?$_Rb_tree@GGU?$_Identity@G@_STL@@U?$less@G@2@V?$allocator@G@2@@_STL@@IBEAAPAU?$_Rb_tree_node@G@2@XZ ENDP ; _STL::_Rb_tree<unsigned short,unsigned short,_STL::_Identity<unsigned short>,_STL::less<unsigned short>,_STL::allocator<unsigned short> >::_M_leftmost
_TEXT	ENDS
PUBLIC	?_M_rightmost@?$_Rb_tree@GGU?$_Identity@G@_STL@@U?$less@G@2@V?$allocator@G@2@@_STL@@IBEAAPAU?$_Rb_tree_node@G@2@XZ ; _STL::_Rb_tree<unsigned short,unsigned short,_STL::_Identity<unsigned short>,_STL::less<unsigned short>,_STL::allocator<unsigned short> >::_M_rightmost
; Function compile flags: /Ogsy
;	COMDAT ?_M_rightmost@?$_Rb_tree@GGU?$_Identity@G@_STL@@U?$less@G@2@V?$allocator@G@2@@_STL@@IBEAAPAU?$_Rb_tree_node@G@2@XZ
_TEXT	SEGMENT
?_M_rightmost@?$_Rb_tree@GGU?$_Identity@G@_STL@@U?$less@G@2@V?$allocator@G@2@@_STL@@IBEAAPAU?$_Rb_tree_node@G@2@XZ PROC NEAR ; _STL::_Rb_tree<unsigned short,unsigned short,_STL::_Identity<unsigned short>,_STL::less<unsigned short>,_STL::allocator<unsigned short> >::_M_rightmost, COMDAT
; _this$ = ecx

; 269  :     { return (_Link_type&) this->_M_header._M_data->_M_right; }

  00000	8b 01		 mov	 eax, DWORD PTR [ecx]
  00002	83 c0 0c	 add	 eax, 12			; 0000000cH
  00005	c3		 ret	 0
?_M_rightmost@?$_Rb_tree@GGU?$_Identity@G@_STL@@U?$less@G@2@V?$allocator@G@2@@_STL@@IBEAAPAU?$_Rb_tree_node@G@2@XZ ENDP ; _STL::_Rb_tree<unsigned short,unsigned short,_STL::_Identity<unsigned short>,_STL::less<unsigned short>,_STL::allocator<unsigned short> >::_M_rightmost
_TEXT	ENDS
PUBLIC	??1?$allocator@U?$_Rb_tree_node@G@_STL@@@_STL@@QAE@XZ ; _STL::allocator<_STL::_Rb_tree_node<unsigned short> >::~allocator<_STL::_Rb_tree_node<unsigned short> >
; Function compile flags: /Ogsy
; File c:\stlport-4.6.1\stlport\stl\_alloc.h
;	COMDAT ??1?$allocator@U?$_Rb_tree_node@G@_STL@@@_STL@@QAE@XZ
_TEXT	SEGMENT
??1?$allocator@U?$_Rb_tree_node@G@_STL@@@_STL@@QAE@XZ PROC NEAR ; _STL::allocator<_STL::_Rb_tree_node<unsigned short> >::~allocator<_STL::_Rb_tree_node<unsigned short> >, COMDAT
; _this$ = ecx

; 350  :   ~allocator() _STLP_NOTHROW {}

  00000	c3		 ret	 0
??1?$allocator@U?$_Rb_tree_node@G@_STL@@@_STL@@QAE@XZ ENDP ; _STL::allocator<_STL::_Rb_tree_node<unsigned short> >::~allocator<_STL::_Rb_tree_node<unsigned short> >
_TEXT	ENDS
PUBLIC	??0?$_Rb_tree_iterator@GU?$_Const_traits@G@_STL@@@_STL@@QAE@PAU?$_Rb_tree_node@G@1@@Z ; _STL::_Rb_tree_iterator<unsigned short,_STL::_Const_traits<unsigned short> >::_Rb_tree_iterator<unsigned short,_STL::_Const_traits<unsigned short> >
; Function compile flags: /Ogsy
; File c:\stlport-4.6.1\stlport\stl\_tree.h
;	COMDAT ??0?$_Rb_tree_iterator@GU?$_Const_traits@G@_STL@@@_STL@@QAE@PAU?$_Rb_tree_node@G@1@@Z
_TEXT	SEGMENT
___x$ = 8						; size = 4
??0?$_Rb_tree_iterator@GU?$_Const_traits@G@_STL@@@_STL@@QAE@PAU?$_Rb_tree_node@G@1@@Z PROC NEAR ; _STL::_Rb_tree_iterator<unsigned short,_STL::_Const_traits<unsigned short> >::_Rb_tree_iterator<unsigned short,_STL::_Const_traits<unsigned short> >, COMDAT
; _this$ = ecx

; 164  :   _Rb_tree_iterator(_Link_type __x) { _M_node = __x; }

  00000	8b c1		 mov	 eax, ecx
  00002	8b 4c 24 04	 mov	 ecx, DWORD PTR ___x$[esp-4]
  00006	89 08		 mov	 DWORD PTR [eax], ecx
  00008	c2 04 00	 ret	 4
??0?$_Rb_tree_iterator@GU?$_Const_traits@G@_STL@@@_STL@@QAE@PAU?$_Rb_tree_node@G@1@@Z ENDP ; _STL::_Rb_tree_iterator<unsigned short,_STL::_Const_traits<unsigned short> >::_Rb_tree_iterator<unsigned short,_STL::_Const_traits<unsigned short> >
_TEXT	ENDS
PUBLIC	?_S_color@?$_Rb_tree@GGU?$_Identity@G@_STL@@U?$less@G@2@V?$allocator@G@2@@_STL@@KAAA_NPAU?$_Rb_tree_node@G@2@@Z ; _STL::_Rb_tree<unsigned short,unsigned short,_STL::_Identity<unsigned short>,_STL::less<unsigned short>,_STL::allocator<unsigned short> >::_S_color
; Function compile flags: /Ogsy
;	COMDAT ?_S_color@?$_Rb_tree@GGU?$_Identity@G@_STL@@U?$less@G@2@V?$allocator@G@2@@_STL@@KAAA_NPAU?$_Rb_tree_node@G@2@@Z
_TEXT	SEGMENT
___x$ = 8						; size = 4
?_S_color@?$_Rb_tree@GGU?$_Identity@G@_STL@@U?$less@G@2@V?$allocator@G@2@@_STL@@KAAA_NPAU?$_Rb_tree_node@G@2@@Z PROC NEAR ; _STL::_Rb_tree<unsigned short,unsigned short,_STL::_Identity<unsigned short>,_STL::less<unsigned short>,_STL::allocator<unsigned short> >::_S_color, COMDAT

; 282  :     { return (_Color_type&)(__x->_M_color); }

  00000	8b 44 24 04	 mov	 eax, DWORD PTR ___x$[esp-4]
  00004	c3		 ret	 0
?_S_color@?$_Rb_tree@GGU?$_Identity@G@_STL@@U?$less@G@2@V?$allocator@G@2@@_STL@@KAAA_NPAU?$_Rb_tree_node@G@2@@Z ENDP ; _STL::_Rb_tree<unsigned short,unsigned short,_STL::_Identity<unsigned short>,_STL::less<unsigned short>,_STL::allocator<unsigned short> >::_S_color
_TEXT	ENDS
PUBLIC	??0?$allocator@U?$_Rb_tree_node@G@_STL@@@_STL@@QAE@ABV01@@Z ; _STL::allocator<_STL::_Rb_tree_node<unsigned short> >::allocator<_STL::_Rb_tree_node<unsigned short> >
; Function compile flags: /Ogsy
; File c:\stlport-4.6.1\stlport\stl\_alloc.h
;	COMDAT ??0?$allocator@U?$_Rb_tree_node@G@_STL@@@_STL@@QAE@ABV01@@Z
_TEXT	SEGMENT
___formal$ = 8						; size = 4
??0?$allocator@U?$_Rb_tree_node@G@_STL@@@_STL@@QAE@ABV01@@Z PROC NEAR ; _STL::allocator<_STL::_Rb_tree_node<unsigned short> >::allocator<_STL::_Rb_tree_node<unsigned short> >, COMDAT
; _this$ = ecx

; 349  :   allocator(const allocator<_Tp>&) _STLP_NOTHROW {}

  00000	8b c1		 mov	 eax, ecx
  00002	c2 04 00	 ret	 4
??0?$allocator@U?$_Rb_tree_node@G@_STL@@@_STL@@QAE@ABV01@@Z ENDP ; _STL::allocator<_STL::_Rb_tree_node<unsigned short> >::allocator<_STL::_Rb_tree_node<unsigned short> >
_TEXT	ENDS
PUBLIC	??$_Destroy@G@_STL@@YAXPAG@Z			; _STL::_Destroy<unsigned short>
; Function compile flags: /Ogsy
; File c:\stlport-4.6.1\stlport\stl\_construct.h
;	COMDAT ??$_Destroy@G@_STL@@YAXPAG@Z
_TEXT	SEGMENT
___pointer$ = 8						; size = 4
??$_Destroy@G@_STL@@YAXPAG@Z PROC NEAR			; _STL::_Destroy<unsigned short>, COMDAT

; 57   : # if _MSC_VER >= 1010
; 58   :   __pointer;
; 59   : # endif	// _MSC_VER >= 1000
; 60   : # ifdef _STLP_TRIVIAL_DESTRUCTOR_BUG
; 61   :   typedef typename __type_traits<_Tp>::has_trivial_destructor _Trivial_destructor;
; 62   :   __destroy_aux(__pointer, _Trivial_destructor());
; 63   : # else
; 64   : #  if ( defined (__BORLANDC__) && ( __BORLANDC__ < 0x500 ) )
; 65   :     __pointer->_Tp::~_Tp();
; 66   : #  else
; 67   :     __pointer->~_Tp();
; 68   : #  endif
; 69   : # endif
; 70   : # ifdef _STLP_DEBUG_UNINITIALIZED
; 71   : 	memset((char*)__pointer, _STLP_SHRED_BYTE, sizeof(_Tp));
; 72   : # endif
; 73   : }

  00000	c3		 ret	 0
??$_Destroy@G@_STL@@YAXPAG@Z ENDP			; _STL::_Destroy<unsigned short>
_TEXT	ENDS
PUBLIC	??$?0G@?$allocator@U?$_Rb_tree_node@G@_STL@@@_STL@@QAE@ABV?$allocator@G@1@@Z ; _STL::allocator<_STL::_Rb_tree_node<unsigned short> >::allocator<_STL::_Rb_tree_node<unsigned short> ><unsigned short>
; Function compile flags: /Ogsy
; File c:\stlport-4.6.1\stlport\stl\_alloc.h
;	COMDAT ??$?0G@?$allocator@U?$_Rb_tree_node@G@_STL@@@_STL@@QAE@ABV?$allocator@G@1@@Z
_TEXT	SEGMENT
___formal$ = 8						; size = 4
??$?0G@?$allocator@U?$_Rb_tree_node@G@_STL@@@_STL@@QAE@ABV?$allocator@G@1@@Z PROC NEAR ; _STL::allocator<_STL::_Rb_tree_node<unsigned short> >::allocator<_STL::_Rb_tree_node<unsigned short> ><unsigned short>, COMDAT
; _this$ = ecx

; 347  :   template <class _Tp1> allocator(const allocator<_Tp1>&) _STLP_NOTHROW {}

  00000	8b c1		 mov	 eax, ecx
  00002	c2 04 00	 ret	 4
??$?0G@?$allocator@U?$_Rb_tree_node@G@_STL@@@_STL@@QAE@ABV?$allocator@G@1@@Z ENDP ; _STL::allocator<_STL::_Rb_tree_node<unsigned short> >::allocator<_STL::_Rb_tree_node<unsigned short> ><unsigned short>
_TEXT	ENDS
PUBLIC	?_S_left@?$_Rb_tree@GGU?$_Identity@G@_STL@@U?$less@G@2@V?$allocator@G@2@@_STL@@KAAAPAU?$_Rb_tree_node@G@2@PAU32@@Z ; _STL::_Rb_tree<unsigned short,unsigned short,_STL::_Identity<unsigned short>,_STL::less<unsigned short>,_STL::allocator<unsigned short> >::_S_left
; Function compile flags: /Ogsy
; File c:\stlport-4.6.1\stlport\stl\_tree.h
;	COMDAT ?_S_left@?$_Rb_tree@GGU?$_Identity@G@_STL@@U?$less@G@2@V?$allocator@G@2@@_STL@@KAAAPAU?$_Rb_tree_node@G@2@PAU32@@Z
_TEXT	SEGMENT
___x$ = 8						; size = 4
?_S_left@?$_Rb_tree@GGU?$_Identity@G@_STL@@U?$less@G@2@V?$allocator@G@2@@_STL@@KAAAPAU?$_Rb_tree_node@G@2@PAU32@@Z PROC NEAR ; _STL::_Rb_tree<unsigned short,unsigned short,_STL::_Identity<unsigned short>,_STL::less<unsigned short>,_STL::allocator<unsigned short> >::_S_left, COMDAT

; 272  :     { return (_Link_type&)(__x->_M_left); }

  00000	8b 44 24 04	 mov	 eax, DWORD PTR ___x$[esp-4]
  00004	83 c0 08	 add	 eax, 8
  00007	c3		 ret	 0
?_S_left@?$_Rb_tree@GGU?$_Identity@G@_STL@@U?$less@G@2@V?$allocator@G@2@@_STL@@KAAAPAU?$_Rb_tree_node@G@2@PAU32@@Z ENDP ; _STL::_Rb_tree<unsigned short,unsigned short,_STL::_Identity<unsigned short>,_STL::less<unsigned short>,_STL::allocator<unsigned short> >::_S_left
_TEXT	ENDS
PUBLIC	?_S_right@?$_Rb_tree@GGU?$_Identity@G@_STL@@U?$less@G@2@V?$allocator@G@2@@_STL@@KAAAPAU?$_Rb_tree_node@G@2@PAU32@@Z ; _STL::_Rb_tree<unsigned short,unsigned short,_STL::_Identity<unsigned short>,_STL::less<unsigned short>,_STL::allocator<unsigned short> >::_S_right
; Function compile flags: /Ogsy
;	COMDAT ?_S_right@?$_Rb_tree@GGU?$_Identity@G@_STL@@U?$less@G@2@V?$allocator@G@2@@_STL@@KAAAPAU?$_Rb_tree_node@G@2@PAU32@@Z
_TEXT	SEGMENT
___x$ = 8						; size = 4
?_S_right@?$_Rb_tree@GGU?$_Identity@G@_STL@@U?$less@G@2@V?$allocator@G@2@@_STL@@KAAAPAU?$_Rb_tree_node@G@2@PAU32@@Z PROC NEAR ; _STL::_Rb_tree<unsigned short,unsigned short,_STL::_Identity<unsigned short>,_STL::less<unsigned short>,_STL::allocator<unsigned short> >::_S_right, COMDAT

; 274  :     { return (_Link_type&)(__x->_M_right); }

  00000	8b 44 24 04	 mov	 eax, DWORD PTR ___x$[esp-4]
  00004	83 c0 0c	 add	 eax, 12			; 0000000cH
  00007	c3		 ret	 0
?_S_right@?$_Rb_tree@GGU?$_Identity@G@_STL@@U?$less@G@2@V?$allocator@G@2@@_STL@@KAAAPAU?$_Rb_tree_node@G@2@PAU32@@Z ENDP ; _STL::_Rb_tree<unsigned short,unsigned short,_STL::_Identity<unsigned short>,_STL::less<unsigned short>,_STL::allocator<unsigned short> >::_S_right
_TEXT	ENDS
PUBLIC	??R?$less@G@_STL@@QBE_NABG0@Z			; _STL::less<unsigned short>::operator()
; Function compile flags: /Ogsy
; File c:\stlport-4.6.1\stlport\stl\_function_base.h
;	COMDAT ??R?$less@G@_STL@@QBE_NABG0@Z
_TEXT	SEGMENT
___x$ = 8						; size = 4
___y$ = 12						; size = 4
??R?$less@G@_STL@@QBE_NABG0@Z PROC NEAR			; _STL::less<unsigned short>::operator(), COMDAT
; _this$ = ecx

; 73   :   bool operator()(const _Tp& __x, const _Tp& __y) const { return __x < __y; }

  00000	8b 44 24 04	 mov	 eax, DWORD PTR ___x$[esp-4]
  00004	0f b7 00	 movzx	 eax, WORD PTR [eax]
  00007	8b 4c 24 08	 mov	 ecx, DWORD PTR ___y$[esp-4]
  0000b	66 3b 01	 cmp	 ax, WORD PTR [ecx]
  0000e	1b c0		 sbb	 eax, eax
  00010	f7 d8		 neg	 eax
  00012	c2 08 00	 ret	 8
??R?$less@G@_STL@@QBE_NABG0@Z ENDP			; _STL::less<unsigned short>::operator()
_TEXT	ENDS
PUBLIC	??0?$_Rb_tree_iterator@GU?$_Nonconst_traits@G@_STL@@@_STL@@QAE@PAU?$_Rb_tree_node@G@1@@Z ; _STL::_Rb_tree_iterator<unsigned short,_STL::_Nonconst_traits<unsigned short> >::_Rb_tree_iterator<unsigned short,_STL::_Nonconst_traits<unsigned short> >
; Function compile flags: /Ogsy
; File c:\stlport-4.6.1\stlport\stl\_tree.h
;	COMDAT ??0?$_Rb_tree_iterator@GU?$_Nonconst_traits@G@_STL@@@_STL@@QAE@PAU?$_Rb_tree_node@G@1@@Z
_TEXT	SEGMENT
___x$ = 8						; size = 4
??0?$_Rb_tree_iterator@GU?$_Nonconst_traits@G@_STL@@@_STL@@QAE@PAU?$_Rb_tree_node@G@1@@Z PROC NEAR ; _STL::_Rb_tree_iterator<unsigned short,_STL::_Nonconst_traits<unsigned short> >::_Rb_tree_iterator<unsigned short,_STL::_Nonconst_traits<unsigned short> >, COMDAT
; _this$ = ecx

; 164  :   _Rb_tree_iterator(_Link_type __x) { _M_node = __x; }

  00000	8b c1		 mov	 eax, ecx
  00002	8b 4c 24 04	 mov	 ecx, DWORD PTR ___x$[esp-4]
  00006	89 08		 mov	 DWORD PTR [eax], ecx
  00008	c2 04 00	 ret	 4
??0?$_Rb_tree_iterator@GU?$_Nonconst_traits@G@_STL@@@_STL@@QAE@PAU?$_Rb_tree_node@G@1@@Z ENDP ; _STL::_Rb_tree_iterator<unsigned short,_STL::_Nonconst_traits<unsigned short> >::_Rb_tree_iterator<unsigned short,_STL::_Nonconst_traits<unsigned short> >
_TEXT	ENDS
PUBLIC	??F?$_Rb_tree_iterator@GU?$_Nonconst_traits@G@_STL@@@_STL@@QAEAAU01@XZ ; _STL::_Rb_tree_iterator<unsigned short,_STL::_Nonconst_traits<unsigned short> >::operator--
EXTRN	?_M_decrement@?$_Rb_global@_N@_STL@@SAPAU_Rb_tree_node_base@2@PAU32@@Z:NEAR ; _STL::_Rb_global<bool>::_M_decrement
; Function compile flags: /Ogsy
;	COMDAT ??F?$_Rb_tree_iterator@GU?$_Nonconst_traits@G@_STL@@@_STL@@QAEAAU01@XZ
_TEXT	SEGMENT
??F?$_Rb_tree_iterator@GU?$_Nonconst_traits@G@_STL@@@_STL@@QAEAAU01@XZ PROC NEAR ; _STL::_Rb_tree_iterator<unsigned short,_STL::_Nonconst_traits<unsigned short> >::operator--, COMDAT
; _this$ = ecx

; 181  :   _Self& operator--() { _M_node = _Rb_global_inst::_M_decrement(_M_node); return *this; }

  00000	56		 push	 esi
  00001	8b f1		 mov	 esi, ecx
  00003	ff 36		 push	 DWORD PTR [esi]
  00005	e8 00 00 00 00	 call	 ?_M_decrement@?$_Rb_global@_N@_STL@@SAPAU_Rb_tree_node_base@2@PAU32@@Z ; _STL::_Rb_global<bool>::_M_decrement
  0000a	89 06		 mov	 DWORD PTR [esi], eax
  0000c	59		 pop	 ecx
  0000d	8b c6		 mov	 eax, esi
  0000f	5e		 pop	 esi
  00010	c3		 ret	 0
??F?$_Rb_tree_iterator@GU?$_Nonconst_traits@G@_STL@@@_STL@@QAEAAU01@XZ ENDP ; _STL::_Rb_tree_iterator<unsigned short,_STL::_Nonconst_traits<unsigned short> >::operator--
_TEXT	ENDS
PUBLIC	??0?$pair@U?$_Rb_tree_iterator@GU?$_Nonconst_traits@G@_STL@@@_STL@@_N@_STL@@QAE@ABU?$_Rb_tree_iterator@GU?$_Nonconst_traits@G@_STL@@@1@AB_N@Z ; _STL::pair<_STL::_Rb_tree_iterator<unsigned short,_STL::_Nonconst_traits<unsigned short> >,bool>::pair<_STL::_Rb_tree_iterator<unsigned short,_STL::_Nonconst_traits<unsigned short> >,bool>
; Function compile flags: /Ogsy
; File c:\stlport-4.6.1\stlport\stl\_pair.h
;	COMDAT ??0?$pair@U?$_Rb_tree_iterator@GU?$_Nonconst_traits@G@_STL@@@_STL@@_N@_STL@@QAE@ABU?$_Rb_tree_iterator@GU?$_Nonconst_traits@G@_STL@@@1@AB_N@Z
_TEXT	SEGMENT
___a$ = 8						; size = 4
___b$ = 12						; size = 4
??0?$pair@U?$_Rb_tree_iterator@GU?$_Nonconst_traits@G@_STL@@@_STL@@_N@_STL@@QAE@ABU?$_Rb_tree_iterator@GU?$_Nonconst_traits@G@_STL@@@1@AB_N@Z PROC NEAR ; _STL::pair<_STL::_Rb_tree_iterator<unsigned short,_STL::_Nonconst_traits<unsigned short> >,bool>::pair<_STL::_Rb_tree_iterator<unsigned short,_STL::_Nonconst_traits<unsigned short> >,bool>, COMDAT
; _this$ = ecx

; 48   :   pair(const _T1& __a, const _T2& __b) : first(__a), second(__b) {}

  00000	8b c1		 mov	 eax, ecx
  00002	8b 4c 24 04	 mov	 ecx, DWORD PTR ___a$[esp-4]
  00006	8b 09		 mov	 ecx, DWORD PTR [ecx]
  00008	89 08		 mov	 DWORD PTR [eax], ecx
  0000a	8b 4c 24 08	 mov	 ecx, DWORD PTR ___b$[esp-4]
  0000e	8a 09		 mov	 cl, BYTE PTR [ecx]
  00010	88 48 04	 mov	 BYTE PTR [eax+4], cl
  00013	c2 08 00	 ret	 8
??0?$pair@U?$_Rb_tree_iterator@GU?$_Nonconst_traits@G@_STL@@@_STL@@_N@_STL@@QAE@ABU?$_Rb_tree_iterator@GU?$_Nonconst_traits@G@_STL@@@1@AB_N@Z ENDP ; _STL::pair<_STL::_Rb_tree_iterator<unsigned short,_STL::_Nonconst_traits<unsigned short> >,bool>::pair<_STL::_Rb_tree_iterator<unsigned short,_STL::_Nonconst_traits<unsigned short> >,bool>
_TEXT	ENDS
PUBLIC	??R?$_Identity@G@_STL@@QBEABGABG@Z		; _STL::_Identity<unsigned short>::operator()
; Function compile flags: /Ogsy
; File c:\stlport-4.6.1\stlport\stl\_function_base.h
;	COMDAT ??R?$_Identity@G@_STL@@QBEABGABG@Z
_TEXT	SEGMENT
___x$ = 8						; size = 4
??R?$_Identity@G@_STL@@QBEABGABG@Z PROC NEAR		; _STL::_Identity<unsigned short>::operator(), COMDAT
; _this$ = ecx

; 190  :   const _Tp& operator()(const _Tp& __x) const { return __x; }

  00000	8b 44 24 04	 mov	 eax, DWORD PTR ___x$[esp-4]
  00004	c2 04 00	 ret	 4
??R?$_Identity@G@_STL@@QBEABGABG@Z ENDP			; _STL::_Identity<unsigned short>::operator()
_TEXT	ENDS
PUBLIC	?_S_value@?$_Rb_tree@GGU?$_Identity@G@_STL@@U?$less@G@2@V?$allocator@G@2@@_STL@@KAAAGPAU?$_Rb_tree_node@G@2@@Z ; _STL::_Rb_tree<unsigned short,unsigned short,_STL::_Identity<unsigned short>,_STL::less<unsigned short>,_STL::allocator<unsigned short> >::_S_value
; Function compile flags: /Ogsy
; File c:\stlport-4.6.1\stlport\stl\_tree.h
;	COMDAT ?_S_value@?$_Rb_tree@GGU?$_Identity@G@_STL@@U?$less@G@2@V?$allocator@G@2@@_STL@@KAAAGPAU?$_Rb_tree_node@G@2@@Z
_TEXT	SEGMENT
___x$ = 8						; size = 4
?_S_value@?$_Rb_tree@GGU?$_Identity@G@_STL@@U?$less@G@2@V?$allocator@G@2@@_STL@@KAAAGPAU?$_Rb_tree_node@G@2@@Z PROC NEAR ; _STL::_Rb_tree<unsigned short,unsigned short,_STL::_Identity<unsigned short>,_STL::less<unsigned short>,_STL::allocator<unsigned short> >::_S_value, COMDAT

; 278  :     { return __x->_M_value_field; }

  00000	8b 44 24 04	 mov	 eax, DWORD PTR ___x$[esp-4]
  00004	83 c0 10	 add	 eax, 16			; 00000010H
  00007	c3		 ret	 0
?_S_value@?$_Rb_tree@GGU?$_Identity@G@_STL@@U?$less@G@2@V?$allocator@G@2@@_STL@@KAAAGPAU?$_Rb_tree_node@G@2@@Z ENDP ; _STL::_Rb_tree<unsigned short,unsigned short,_STL::_Identity<unsigned short>,_STL::less<unsigned short>,_STL::allocator<unsigned short> >::_S_value
_TEXT	ENDS
PUBLIC	?_S_parent@?$_Rb_tree@GGU?$_Identity@G@_STL@@U?$less@G@2@V?$allocator@G@2@@_STL@@KAAAPAU?$_Rb_tree_node@G@2@PAU32@@Z ; _STL::_Rb_tree<unsigned short,unsigned short,_STL::_Identity<unsigned short>,_STL::less<unsigned short>,_STL::allocator<unsigned short> >::_S_parent
; Function compile flags: /Ogsy
;	COMDAT ?_S_parent@?$_Rb_tree@GGU?$_Identity@G@_STL@@U?$less@G@2@V?$allocator@G@2@@_STL@@KAAAPAU?$_Rb_tree_node@G@2@PAU32@@Z
_TEXT	SEGMENT
___x$ = 8						; size = 4
?_S_parent@?$_Rb_tree@GGU?$_Identity@G@_STL@@U?$less@G@2@V?$allocator@G@2@@_STL@@KAAAPAU?$_Rb_tree_node@G@2@PAU32@@Z PROC NEAR ; _STL::_Rb_tree<unsigned short,unsigned short,_STL::_Identity<unsigned short>,_STL::less<unsigned short>,_STL::allocator<unsigned short> >::_S_parent, COMDAT

; 276  :     { return (_Link_type&)(__x->_M_parent); }

  00000	8b 44 24 04	 mov	 eax, DWORD PTR ___x$[esp-4]
  00004	83 c0 04	 add	 eax, 4
  00007	c3		 ret	 0
?_S_parent@?$_Rb_tree@GGU?$_Identity@G@_STL@@U?$less@G@2@V?$allocator@G@2@@_STL@@KAAAPAU?$_Rb_tree_node@G@2@PAU32@@Z ENDP ; _STL::_Rb_tree<unsigned short,unsigned short,_STL::_Identity<unsigned short>,_STL::less<unsigned short>,_STL::allocator<unsigned short> >::_S_parent
_TEXT	ENDS
PUBLIC	??$_Construct@GG@_STL@@YAXPAGABG@Z		; _STL::_Construct<unsigned short,unsigned short>
; Function compile flags: /Ogsy
; File c:\stlport-4.6.1\stlport\stl\_construct.h
;	COMDAT ??$_Construct@GG@_STL@@YAXPAGABG@Z
_TEXT	SEGMENT
___p$ = 8						; size = 4
___val$ = 12						; size = 4
??$_Construct@GG@_STL@@YAXPAGABG@Z PROC NEAR		; _STL::_Construct<unsigned short,unsigned short>, COMDAT

; 94   : # ifdef _STLP_DEBUG_UNINITIALIZED
; 95   : 	memset((char*)__p, _STLP_SHRED_BYTE, sizeof(_T1));
; 96   : # endif
; 97   :     _STLP_PLACEMENT_NEW (__p) _T1(__val);

  00000	8b 44 24 04	 mov	 eax, DWORD PTR ___p$[esp-4]
  00004	85 c0		 test	 eax, eax
  00006	74 0a		 je	 SHORT $L102752
  00008	8b 4c 24 08	 mov	 ecx, DWORD PTR ___val$[esp-4]
  0000c	66 8b 09	 mov	 cx, WORD PTR [ecx]
  0000f	66 89 08	 mov	 WORD PTR [eax], cx
$L102752:

; 98   : }

  00012	c3		 ret	 0
??$_Construct@GG@_STL@@YAXPAGABG@Z ENDP			; _STL::_Construct<unsigned short,unsigned short>
_TEXT	ENDS
PUBLIC	??8_Rb_tree_base_iterator@_STL@@QBE_NABU01@@Z	; _STL::_Rb_tree_base_iterator::operator==
; Function compile flags: /Ogsy
; File c:\stlport-4.6.1\stlport\stl\_tree.h
;	COMDAT ??8_Rb_tree_base_iterator@_STL@@QBE_NABU01@@Z
_TEXT	SEGMENT
___y$ = 8						; size = 4
??8_Rb_tree_base_iterator@_STL@@QBE_NABU01@@Z PROC NEAR	; _STL::_Rb_tree_base_iterator::operator==, COMDAT
; _this$ = ecx

; 147  :     return _M_node == __y._M_node;

  00000	8b 01		 mov	 eax, DWORD PTR [ecx]
  00002	8b 4c 24 04	 mov	 ecx, DWORD PTR ___y$[esp-4]
  00006	2b 01		 sub	 eax, DWORD PTR [ecx]
  00008	f7 d8		 neg	 eax
  0000a	1b c0		 sbb	 eax, eax
  0000c	40		 inc	 eax

; 148  :   }

  0000d	c2 04 00	 ret	 4
??8_Rb_tree_base_iterator@_STL@@QBE_NABU01@@Z ENDP	; _STL::_Rb_tree_base_iterator::operator==
_TEXT	ENDS
PUBLIC	??9_Rb_tree_base_iterator@_STL@@QBE_NABU01@@Z	; _STL::_Rb_tree_base_iterator::operator!=
; Function compile flags: /Ogsy
;	COMDAT ??9_Rb_tree_base_iterator@_STL@@QBE_NABU01@@Z
_TEXT	SEGMENT
___y$ = 8						; size = 4
??9_Rb_tree_base_iterator@_STL@@QBE_NABU01@@Z PROC NEAR	; _STL::_Rb_tree_base_iterator::operator!=, COMDAT
; _this$ = ecx

; 150  :     return _M_node != __y._M_node;

  00000	8b 01		 mov	 eax, DWORD PTR [ecx]
  00002	8b 54 24 04	 mov	 edx, DWORD PTR ___y$[esp-4]
  00006	33 c9		 xor	 ecx, ecx
  00008	3b 02		 cmp	 eax, DWORD PTR [edx]
  0000a	0f 95 c1	 setne	 cl
  0000d	8a c1		 mov	 al, cl

; 151  :   }

  0000f	c2 04 00	 ret	 4
??9_Rb_tree_base_iterator@_STL@@QBE_NABU01@@Z ENDP	; _STL::_Rb_tree_base_iterator::operator!=
_TEXT	ENDS
PUBLIC	??0?$allocator@D@_STL@@QAE@XZ			; _STL::allocator<char>::allocator<char>
; Function compile flags: /Ogsy
; File c:\stlport-4.6.1\stlport\stl\_alloc.h
;	COMDAT ??0?$allocator@D@_STL@@QAE@XZ
_TEXT	SEGMENT
??0?$allocator@D@_STL@@QAE@XZ PROC NEAR			; _STL::allocator<char>::allocator<char>, COMDAT
; _this$ = ecx

; 345  :   allocator() _STLP_NOTHROW {}

  00000	8b c1		 mov	 eax, ecx
  00002	c3		 ret	 0
??0?$allocator@D@_STL@@QAE@XZ ENDP			; _STL::allocator<char>::allocator<char>
_TEXT	ENDS
PUBLIC	??1?$allocator@D@_STL@@QAE@XZ			; _STL::allocator<char>::~allocator<char>
; Function compile flags: /Ogsy
;	COMDAT ??1?$allocator@D@_STL@@QAE@XZ
_TEXT	SEGMENT
??1?$allocator@D@_STL@@QAE@XZ PROC NEAR			; _STL::allocator<char>::~allocator<char>, COMDAT
; _this$ = ecx

; 350  :   ~allocator() _STLP_NOTHROW {}

  00000	c3		 ret	 0
??1?$allocator@D@_STL@@QAE@XZ ENDP			; _STL::allocator<char>::~allocator<char>
_TEXT	ENDS
PUBLIC	??0?$allocator@V?$basic_string@DV?$char_traits@D@_STL@@V?$allocator@D@2@@_STL@@@_STL@@QAE@XZ ; _STL::allocator<_STL::basic_string<char,_STL::char_traits<char>,_STL::allocator<char> > >::allocator<_STL::basic_string<char,_STL::char_traits<char>,_STL::allocator<char> > >
; Function compile flags: /Ogsy
;	COMDAT ??0?$allocator@V?$basic_string@DV?$char_traits@D@_STL@@V?$allocator@D@2@@_STL@@@_STL@@QAE@XZ
_TEXT	SEGMENT
??0?$allocator@V?$basic_string@DV?$char_traits@D@_STL@@V?$allocator@D@2@@_STL@@@_STL@@QAE@XZ PROC NEAR ; _STL::allocator<_STL::basic_string<char,_STL::char_traits<char>,_STL::allocator<char> > >::allocator<_STL::basic_string<char,_STL::char_traits<char>,_STL::allocator<char> > >, COMDAT
; _this$ = ecx

; 345  :   allocator() _STLP_NOTHROW {}

  00000	8b c1		 mov	 eax, ecx
  00002	c3		 ret	 0
??0?$allocator@V?$basic_string@DV?$char_traits@D@_STL@@V?$allocator@D@2@@_STL@@@_STL@@QAE@XZ ENDP ; _STL::allocator<_STL::basic_string<char,_STL::char_traits<char>,_STL::allocator<char> > >::allocator<_STL::basic_string<char,_STL::char_traits<char>,_STL::allocator<char> > >
_TEXT	ENDS
PUBLIC	??1?$allocator@V?$basic_string@DV?$char_traits@D@_STL@@V?$allocator@D@2@@_STL@@@_STL@@QAE@XZ ; _STL::allocator<_STL::basic_string<char,_STL::char_traits<char>,_STL::allocator<char> > >::~allocator<_STL::basic_string<char,_STL::char_traits<char>,_STL::allocator<char> > >
; Function compile flags: /Ogsy
;	COMDAT ??1?$allocator@V?$basic_string@DV?$char_traits@D@_STL@@V?$allocator@D@2@@_STL@@@_STL@@QAE@XZ
_TEXT	SEGMENT
??1?$allocator@V?$basic_string@DV?$char_traits@D@_STL@@V?$allocator@D@2@@_STL@@@_STL@@QAE@XZ PROC NEAR ; _STL::allocator<_STL::basic_string<char,_STL::char_traits<char>,_STL::allocator<char> > >::~allocator<_STL::basic_string<char,_STL::char_traits<char>,_STL::allocator<char> > >, COMDAT
; _this$ = ecx

; 350  :   ~allocator() _STLP_NOTHROW {}

  00000	c3		 ret	 0
??1?$allocator@V?$basic_string@DV?$char_traits@D@_STL@@V?$allocator@D@2@@_STL@@@_STL@@QAE@XZ ENDP ; _STL::allocator<_STL::basic_string<char,_STL::char_traits<char>,_STL::allocator<char> > >::~allocator<_STL::basic_string<char,_STL::char_traits<char>,_STL::allocator<char> > >
_TEXT	ENDS
PUBLIC	??1?$_STLP_alloc_proxy@PADDV?$allocator@D@_STL@@@_STL@@QAE@XZ ; _STL::_STLP_alloc_proxy<char *,char,_STL::allocator<char> >::~_STLP_alloc_proxy<char *,char,_STL::allocator<char> >
; Function compile flags: /Ogsy
;	COMDAT ??1?$_STLP_alloc_proxy@PADDV?$allocator@D@_STL@@@_STL@@QAE@XZ
_TEXT	SEGMENT
??1?$_STLP_alloc_proxy@PADDV?$allocator@D@_STL@@@_STL@@QAE@XZ PROC NEAR ; _STL::_STLP_alloc_proxy<char *,char,_STL::allocator<char> >::~_STLP_alloc_proxy<char *,char,_STL::allocator<char> >, COMDAT
; _this$ = ecx
  00000	c3		 ret	 0
??1?$_STLP_alloc_proxy@PADDV?$allocator@D@_STL@@@_STL@@QAE@XZ ENDP ; _STL::_STLP_alloc_proxy<char *,char,_STL::allocator<char> >::~_STLP_alloc_proxy<char *,char,_STL::allocator<char> >
_TEXT	ENDS
PUBLIC	??1?$allocator@G@_STL@@QAE@XZ			; _STL::allocator<unsigned short>::~allocator<unsigned short>
; Function compile flags: /Ogsy
;	COMDAT ??1?$allocator@G@_STL@@QAE@XZ
_TEXT	SEGMENT
??1?$allocator@G@_STL@@QAE@XZ PROC NEAR			; _STL::allocator<unsigned short>::~allocator<unsigned short>, COMDAT
; _this$ = ecx

; 350  :   ~allocator() _STLP_NOTHROW {}

  00000	c3		 ret	 0
??1?$allocator@G@_STL@@QAE@XZ ENDP			; _STL::allocator<unsigned short>::~allocator<unsigned short>
_TEXT	ENDS
PUBLIC	??1?$allocator@U?$_List_node@V?$basic_string@DV?$char_traits@D@_STL@@V?$allocator@D@2@@_STL@@@_STL@@@_STL@@QAE@XZ ; _STL::allocator<_STL::_List_node<_STL::basic_string<char,_STL::char_traits<char>,_STL::allocator<char> > > >::~allocator<_STL::_List_node<_STL::basic_string<char,_STL::char_traits<char>,_STL::allocator<char> > > >
; Function compile flags: /Ogsy
;	COMDAT ??1?$allocator@U?$_List_node@V?$basic_string@DV?$char_traits@D@_STL@@V?$allocator@D@2@@_STL@@@_STL@@@_STL@@QAE@XZ
_TEXT	SEGMENT
??1?$allocator@U?$_List_node@V?$basic_string@DV?$char_traits@D@_STL@@V?$allocator@D@2@@_STL@@@_STL@@@_STL@@QAE@XZ PROC NEAR ; _STL::allocator<_STL::_List_node<_STL::basic_string<char,_STL::char_traits<char>,_STL::allocator<char> > > >::~allocator<_STL::_List_node<_STL::basic_string<char,_STL::char_traits<char>,_STL::allocator<char> > > >, COMDAT
; _this$ = ecx

; 350  :   ~allocator() _STLP_NOTHROW {}

  00000	c3		 ret	 0
??1?$allocator@U?$_List_node@V?$basic_string@DV?$char_traits@D@_STL@@V?$allocator@D@2@@_STL@@@_STL@@@_STL@@QAE@XZ ENDP ; _STL::allocator<_STL::_List_node<_STL::basic_string<char,_STL::char_traits<char>,_STL::allocator<char> > > >::~allocator<_STL::_List_node<_STL::basic_string<char,_STL::char_traits<char>,_STL::allocator<char> > > >
_TEXT	ENDS
PUBLIC	??0?$allocator@U?$_List_node@V?$basic_string@DV?$char_traits@D@_STL@@V?$allocator@D@2@@_STL@@@_STL@@@_STL@@QAE@ABV01@@Z ; _STL::allocator<_STL::_List_node<_STL::basic_string<char,_STL::char_traits<char>,_STL::allocator<char> > > >::allocator<_STL::_List_node<_STL::basic_string<char,_STL::char_traits<char>,_STL::allocator<char> > > >
; Function compile flags: /Ogsy
;	COMDAT ??0?$allocator@U?$_List_node@V?$basic_string@DV?$char_traits@D@_STL@@V?$allocator@D@2@@_STL@@@_STL@@@_STL@@QAE@ABV01@@Z
_TEXT	SEGMENT
___formal$ = 8						; size = 4
??0?$allocator@U?$_List_node@V?$basic_string@DV?$char_traits@D@_STL@@V?$allocator@D@2@@_STL@@@_STL@@@_STL@@QAE@ABV01@@Z PROC NEAR ; _STL::allocator<_STL::_List_node<_STL::basic_string<char,_STL::char_traits<char>,_STL::allocator<char> > > >::allocator<_STL::_List_node<_STL::basic_string<char,_STL::char_traits<char>,_STL::allocator<char> > > >, COMDAT
; _this$ = ecx

; 349  :   allocator(const allocator<_Tp>&) _STLP_NOTHROW {}

  00000	8b c1		 mov	 eax, ecx
  00002	c2 04 00	 ret	 4
??0?$allocator@U?$_List_node@V?$basic_string@DV?$char_traits@D@_STL@@V?$allocator@D@2@@_STL@@@_STL@@@_STL@@QAE@ABV01@@Z ENDP ; _STL::allocator<_STL::_List_node<_STL::basic_string<char,_STL::char_traits<char>,_STL::allocator<char> > > >::allocator<_STL::_List_node<_STL::basic_string<char,_STL::char_traits<char>,_STL::allocator<char> > > >
_TEXT	ENDS
PUBLIC	?allocate@?$__node_alloc@$00$0A@@_STL@@SAPAXI@Z	; _STL::__node_alloc<1,0>::allocate
EXTRN	?_M_allocate@?$__node_alloc@$00$0A@@_STL@@CAPAXI@Z:NEAR ; _STL::__node_alloc<1,0>::_M_allocate
; Function compile flags: /Ogsy
;	COMDAT ?allocate@?$__node_alloc@$00$0A@@_STL@@SAPAXI@Z
_TEXT	SEGMENT
___n$ = 8						; size = 4
?allocate@?$__node_alloc@$00$0A@@_STL@@SAPAXI@Z PROC NEAR ; _STL::__node_alloc<1,0>::allocate, COMDAT

; 251  :   static void * _STLP_CALL allocate(size_t __n) { return (__n > (size_t)_MAX_BYTES) ?  __stl_new(__n) : _M_allocate(__n); }

  00000	8b 44 24 04	 mov	 eax, DWORD PTR ___n$[esp-4]
  00004	3d 80 00 00 00	 cmp	 eax, 128		; 00000080H
  00009	50		 push	 eax
  0000a	76 07		 jbe	 SHORT $L102793
  0000c	e8 00 00 00 00	 call	 ??2@YAPAXI@Z		; operator new
  00011	59		 pop	 ecx
  00012	c3		 ret	 0
$L102793:
  00013	e8 00 00 00 00	 call	 ?_M_allocate@?$__node_alloc@$00$0A@@_STL@@CAPAXI@Z ; _STL::__node_alloc<1,0>::_M_allocate
  00018	59		 pop	 ecx
  00019	c3		 ret	 0
?allocate@?$__node_alloc@$00$0A@@_STL@@SAPAXI@Z ENDP	; _STL::__node_alloc<1,0>::allocate
_TEXT	ENDS
PUBLIC	?deallocate@?$__node_alloc@$00$0A@@_STL@@SAXPAXI@Z ; _STL::__node_alloc<1,0>::deallocate
EXTRN	?_M_deallocate@?$__node_alloc@$00$0A@@_STL@@CAXPAXI@Z:NEAR ; _STL::__node_alloc<1,0>::_M_deallocate
; Function compile flags: /Ogsy
;	COMDAT ?deallocate@?$__node_alloc@$00$0A@@_STL@@SAXPAXI@Z
_TEXT	SEGMENT
___p$ = 8						; size = 4
___n$ = 12						; size = 4
?deallocate@?$__node_alloc@$00$0A@@_STL@@SAXPAXI@Z PROC NEAR ; _STL::__node_alloc<1,0>::deallocate, COMDAT

; 253  :   static void _STLP_CALL deallocate(void *__p, size_t __n) { if (__n > (size_t)_MAX_BYTES) __stl_delete(__p); else _M_deallocate(__p, __n); }

  00000	81 7c 24 08 80
	00 00 00	 cmp	 DWORD PTR ___n$[esp-4], 128 ; 00000080H
  00008	76 0b		 jbe	 SHORT $L98677
  0000a	ff 74 24 04	 push	 DWORD PTR ___p$[esp-4]
  0000e	e8 00 00 00 00	 call	 ??3@YAXPAX@Z		; operator delete
  00013	59		 pop	 ecx
  00014	c3		 ret	 0
$L98677:
  00015	e9 00 00 00 00	 jmp	 ?_M_deallocate@?$__node_alloc@$00$0A@@_STL@@CAXPAXI@Z ; _STL::__node_alloc<1,0>::_M_deallocate
?deallocate@?$__node_alloc@$00$0A@@_STL@@SAXPAXI@Z ENDP	; _STL::__node_alloc<1,0>::deallocate
_TEXT	ENDS
PUBLIC	??$?0V?$basic_string@DV?$char_traits@D@_STL@@V?$allocator@D@2@@_STL@@@?$allocator@U?$_List_node@V?$basic_string@DV?$char_traits@D@_STL@@V?$allocator@D@2@@_STL@@@_STL@@@_STL@@QAE@ABV?$allocator@V?$basic_string@DV?$char_traits@D@_STL@@V?$allocator@D@2@@_STL@@@1@@Z ; _STL::allocator<_STL::_List_node<_STL::basic_string<char,_STL::char_traits<char>,_STL::allocator<char> > > >::allocator<_STL::_List_node<_STL::basic_string<char,_STL::char_traits<char>,_STL::allocator<char> > > ><_STL::basic_string<char,_STL::char_traits<char>,_STL::allocator<char> > >
; Function compile flags: /Ogsy
;	COMDAT ??$?0V?$basic_string@DV?$char_traits@D@_STL@@V?$allocator@D@2@@_STL@@@?$allocator@U?$_List_node@V?$basic_string@DV?$char_traits@D@_STL@@V?$allocator@D@2@@_STL@@@_STL@@@_STL@@QAE@ABV?$allocator@V?$basic_string@DV?$char_traits@D@_STL@@V?$allocator@D@2@@_STL@@@1@@Z
_TEXT	SEGMENT
___formal$ = 8						; size = 4
??$?0V?$basic_string@DV?$char_traits@D@_STL@@V?$allocator@D@2@@_STL@@@?$allocator@U?$_List_node@V?$basic_string@DV?$char_traits@D@_STL@@V?$allocator@D@2@@_STL@@@_STL@@@_STL@@QAE@ABV?$allocator@V?$basic_string@DV?$char_traits@D@_STL@@V?$allocator@D@2@@_STL@@@1@@Z PROC NEAR ; _STL::allocator<_STL::_List_node<_STL::basic_string<char,_STL::char_traits<char>,_STL::allocator<char> > > >::allocator<_STL::_List_node<_STL::basic_string<char,_STL::char_traits<char>,_STL::allocator<char> > > ><_STL::basic_string<char,_STL::char_traits<char>,_STL::allocator<char> > >, COMDAT
; _this$ = ecx

; 347  :   template <class _Tp1> allocator(const allocator<_Tp1>&) _STLP_NOTHROW {}

  00000	8b c1		 mov	 eax, ecx
  00002	c2 04 00	 ret	 4
??$?0V?$basic_string@DV?$char_traits@D@_STL@@V?$allocator@D@2@@_STL@@@?$allocator@U?$_List_node@V?$basic_string@DV?$char_traits@D@_STL@@V?$allocator@D@2@@_STL@@@_STL@@@_STL@@QAE@ABV?$allocator@V?$basic_string@DV?$char_traits@D@_STL@@V?$allocator@D@2@@_STL@@@1@@Z ENDP ; _STL::allocator<_STL::_List_node<_STL::basic_string<char,_STL::char_traits<char>,_STL::allocator<char> > > >::allocator<_STL::_List_node<_STL::basic_string<char,_STL::char_traits<char>,_STL::allocator<char> > > ><_STL::basic_string<char,_STL::char_traits<char>,_STL::allocator<char> > >
_TEXT	ENDS
PUBLIC	?_M_terminate_string@?$basic_string@DV?$char_traits@D@_STL@@V?$allocator@D@2@@_STL@@AAEXXZ ; _STL::basic_string<char,_STL::char_traits<char>,_STL::allocator<char> >::_M_terminate_string
; Function compile flags: /Ogsy
; File c:\stlport-4.6.1\stlport\stl\_string.h
;	COMDAT ?_M_terminate_string@?$basic_string@DV?$char_traits@D@_STL@@V?$allocator@D@2@@_STL@@AAEXXZ
_TEXT	SEGMENT
?_M_terminate_string@?$basic_string@DV?$char_traits@D@_STL@@V?$allocator@D@2@@_STL@@AAEXXZ PROC NEAR ; _STL::basic_string<char,_STL::char_traits<char>,_STL::allocator<char> >::_M_terminate_string, COMDAT
; _this$ = ecx

; 355  :     _M_terminate_string_aux(_Char_Is_Integral());

  00000	8b 41 04	 mov	 eax, DWORD PTR [ecx+4]
  00003	c6 00 00	 mov	 BYTE PTR [eax], 0

; 356  :   }

  00006	c3		 ret	 0
?_M_terminate_string@?$basic_string@DV?$char_traits@D@_STL@@V?$allocator@D@2@@_STL@@AAEXXZ ENDP ; _STL::basic_string<char,_STL::char_traits<char>,_STL::allocator<char> >::_M_terminate_string
_TEXT	ENDS
PUBLIC	?allocate@?$allocator@D@_STL@@QAEPADIPBX@Z	; _STL::allocator<char>::allocate
; Function compile flags: /Ogsy
; File c:\stlport-4.6.1\stlport\stl\_alloc.h
;	COMDAT ?allocate@?$allocator@D@_STL@@QAEPADIPBX@Z
_TEXT	SEGMENT
___n$ = 8						; size = 4
___formal$ = 12						; size = 4
?allocate@?$allocator@D@_STL@@QAEPADIPBX@Z PROC NEAR	; _STL::allocator<char>::allocate, COMDAT
; _this$ = ecx

; 355  :     return __n != 0 ? __REINTERPRET_CAST(value_type*,__sgi_alloc::allocate(__n * sizeof(value_type))) : 0;

  00000	33 c0		 xor	 eax, eax
  00002	39 44 24 04	 cmp	 DWORD PTR ___n$[esp-4], eax
  00006	74 0a		 je	 SHORT $L102819
  00008	ff 74 24 04	 push	 DWORD PTR ___n$[esp-4]
  0000c	e8 00 00 00 00	 call	 ?allocate@?$__node_alloc@$00$0A@@_STL@@SAPAXI@Z ; _STL::__node_alloc<1,0>::allocate
  00011	59		 pop	 ecx
$L102819:

; 356  :   }

  00012	c2 08 00	 ret	 8
?allocate@?$allocator@D@_STL@@QAEPADIPBX@Z ENDP		; _STL::allocator<char>::allocate
_TEXT	ENDS
PUBLIC	??0?$_STLP_alloc_proxy@PADDV?$allocator@D@_STL@@@_STL@@QAE@ABV?$allocator@D@1@PAD@Z ; _STL::_STLP_alloc_proxy<char *,char,_STL::allocator<char> >::_STLP_alloc_proxy<char *,char,_STL::allocator<char> >
; Function compile flags: /Ogsy
;	COMDAT ??0?$_STLP_alloc_proxy@PADDV?$allocator@D@_STL@@@_STL@@QAE@ABV?$allocator@D@1@PAD@Z
_TEXT	SEGMENT
___a$ = 8						; size = 4
___p$ = 12						; size = 4
??0?$_STLP_alloc_proxy@PADDV?$allocator@D@_STL@@@_STL@@QAE@ABV?$allocator@D@1@PAD@Z PROC NEAR ; _STL::_STLP_alloc_proxy<char *,char,_STL::allocator<char> >::_STLP_alloc_proxy<char *,char,_STL::allocator<char> >, COMDAT
; _this$ = ecx

; 487  :   inline _STLP_alloc_proxy(const _MaybeReboundAlloc& __a, _Value __p) : _MaybeReboundAlloc(__a), _M_data(__p) {}

  00000	8b c1		 mov	 eax, ecx
  00002	8b 4c 24 08	 mov	 ecx, DWORD PTR ___p$[esp-4]
  00006	89 08		 mov	 DWORD PTR [eax], ecx
  00008	c2 08 00	 ret	 8
??0?$_STLP_alloc_proxy@PADDV?$allocator@D@_STL@@@_STL@@QAE@ABV?$allocator@D@1@PAD@Z ENDP ; _STL::_STLP_alloc_proxy<char *,char,_STL::allocator<char> >::_STLP_alloc_proxy<char *,char,_STL::allocator<char> >
_TEXT	ENDS
PUBLIC	?begin@?$_Rb_tree@GGU?$_Identity@G@_STL@@U?$less@G@2@V?$allocator@G@2@@_STL@@QBE?AU?$_Rb_tree_iterator@GU?$_Const_traits@G@_STL@@@2@XZ ; _STL::_Rb_tree<unsigned short,unsigned short,_STL::_Identity<unsigned short>,_STL::less<unsigned short>,_STL::allocator<unsigned short> >::begin
; Function compile flags: /Ogsy
; File c:\stlport-4.6.1\stlport\stl\_tree.h
;	COMDAT ?begin@?$_Rb_tree@GGU?$_Identity@G@_STL@@U?$less@G@2@V?$allocator@G@2@@_STL@@QBE?AU?$_Rb_tree_iterator@GU?$_Const_traits@G@_STL@@@2@XZ
_TEXT	SEGMENT
___$ReturnUdt$ = 8					; size = 4
?begin@?$_Rb_tree@GGU?$_Identity@G@_STL@@U?$less@G@2@V?$allocator@G@2@@_STL@@QBE?AU?$_Rb_tree_iterator@GU?$_Const_traits@G@_STL@@@2@XZ PROC NEAR ; _STL::_Rb_tree<unsigned short,unsigned short,_STL::_Identity<unsigned short>,_STL::less<unsigned short>,_STL::allocator<unsigned short> >::begin, COMDAT
; _this$ = ecx

; 358  :   const_iterator begin() const { return const_iterator(_M_leftmost()); }

  00000	8b 01		 mov	 eax, DWORD PTR [ecx]
  00002	8b 48 08	 mov	 ecx, DWORD PTR [eax+8]
  00005	8b 44 24 04	 mov	 eax, DWORD PTR ___$ReturnUdt$[esp-4]
  00009	89 08		 mov	 DWORD PTR [eax], ecx
  0000b	c2 04 00	 ret	 4
?begin@?$_Rb_tree@GGU?$_Identity@G@_STL@@U?$less@G@2@V?$allocator@G@2@@_STL@@QBE?AU?$_Rb_tree_iterator@GU?$_Const_traits@G@_STL@@@2@XZ ENDP ; _STL::_Rb_tree<unsigned short,unsigned short,_STL::_Identity<unsigned short>,_STL::less<unsigned short>,_STL::allocator<unsigned short> >::begin
_TEXT	ENDS
PUBLIC	?end@?$_Rb_tree@GGU?$_Identity@G@_STL@@U?$less@G@2@V?$allocator@G@2@@_STL@@QBE?AU?$_Rb_tree_iterator@GU?$_Const_traits@G@_STL@@@2@XZ ; _STL::_Rb_tree<unsigned short,unsigned short,_STL::_Identity<unsigned short>,_STL::less<unsigned short>,_STL::allocator<unsigned short> >::end
; Function compile flags: /Ogsy
;	COMDAT ?end@?$_Rb_tree@GGU?$_Identity@G@_STL@@U?$less@G@2@V?$allocator@G@2@@_STL@@QBE?AU?$_Rb_tree_iterator@GU?$_Const_traits@G@_STL@@@2@XZ
_TEXT	SEGMENT
___$ReturnUdt$ = 8					; size = 4
?end@?$_Rb_tree@GGU?$_Identity@G@_STL@@U?$less@G@2@V?$allocator@G@2@@_STL@@QBE?AU?$_Rb_tree_iterator@GU?$_Const_traits@G@_STL@@@2@XZ PROC NEAR ; _STL::_Rb_tree<unsigned short,unsigned short,_STL::_Identity<unsigned short>,_STL::less<unsigned short>,_STL::allocator<unsigned short> >::end, COMDAT
; _this$ = ecx

; 360  :   const_iterator end() const { return const_iterator(this->_M_header._M_data); }

  00000	8b 09		 mov	 ecx, DWORD PTR [ecx]
  00002	8b 44 24 04	 mov	 eax, DWORD PTR ___$ReturnUdt$[esp-4]
  00006	89 08		 mov	 DWORD PTR [eax], ecx
  00008	c2 04 00	 ret	 4
?end@?$_Rb_tree@GGU?$_Identity@G@_STL@@U?$less@G@2@V?$allocator@G@2@@_STL@@QBE?AU?$_Rb_tree_iterator@GU?$_Const_traits@G@_STL@@@2@XZ ENDP ; _STL::_Rb_tree<unsigned short,unsigned short,_STL::_Identity<unsigned short>,_STL::less<unsigned short>,_STL::allocator<unsigned short> >::end
_TEXT	ENDS
PUBLIC	??1?$_STLP_alloc_proxy@PAU?$_Rb_tree_node@G@_STL@@U12@V?$allocator@U?$_Rb_tree_node@G@_STL@@@2@@_STL@@QAE@XZ ; _STL::_STLP_alloc_proxy<_STL::_Rb_tree_node<unsigned short> *,_STL::_Rb_tree_node<unsigned short>,_STL::allocator<_STL::_Rb_tree_node<unsigned short> > >::~_STLP_alloc_proxy<_STL::_Rb_tree_node<unsigned short> *,_STL::_Rb_tree_node<unsigned short>,_STL::allocator<_STL::_Rb_tree_node<unsigned short> > >
; Function compile flags: /Ogsy
;	COMDAT ??1?$_STLP_alloc_proxy@PAU?$_Rb_tree_node@G@_STL@@U12@V?$allocator@U?$_Rb_tree_node@G@_STL@@@2@@_STL@@QAE@XZ
_TEXT	SEGMENT
??1?$_STLP_alloc_proxy@PAU?$_Rb_tree_node@G@_STL@@U12@V?$allocator@U?$_Rb_tree_node@G@_STL@@@2@@_STL@@QAE@XZ PROC NEAR ; _STL::_STLP_alloc_proxy<_STL::_Rb_tree_node<unsigned short> *,_STL::_Rb_tree_node<unsigned short>,_STL::allocator<_STL::_Rb_tree_node<unsigned short> > >::~_STLP_alloc_proxy<_STL::_Rb_tree_node<unsigned short> *,_STL::_Rb_tree_node<unsigned short>,_STL::allocator<_STL::_Rb_tree_node<unsigned short> > >, COMDAT
; _this$ = ecx
  00000	c3		 ret	 0
??1?$_STLP_alloc_proxy@PAU?$_Rb_tree_node@G@_STL@@U12@V?$allocator@U?$_Rb_tree_node@G@_STL@@@2@@_STL@@QAE@XZ ENDP ; _STL::_STLP_alloc_proxy<_STL::_Rb_tree_node<unsigned short> *,_STL::_Rb_tree_node<unsigned short>,_STL::allocator<_STL::_Rb_tree_node<unsigned short> > >::~_STLP_alloc_proxy<_STL::_Rb_tree_node<unsigned short> *,_STL::_Rb_tree_node<unsigned short>,_STL::allocator<_STL::_Rb_tree_node<unsigned short> > >
_TEXT	ENDS
PUBLIC	?_M_empty_initialize@?$_Rb_tree@GGU?$_Identity@G@_STL@@U?$less@G@2@V?$allocator@G@2@@_STL@@AAEXXZ ; _STL::_Rb_tree<unsigned short,unsigned short,_STL::_Identity<unsigned short>,_STL::less<unsigned short>,_STL::allocator<unsigned short> >::_M_empty_initialize
; Function compile flags: /Ogsy
;	COMDAT ?_M_empty_initialize@?$_Rb_tree@GGU?$_Identity@G@_STL@@U?$less@G@2@V?$allocator@G@2@@_STL@@AAEXXZ
_TEXT	SEGMENT
?_M_empty_initialize@?$_Rb_tree@GGU?$_Identity@G@_STL@@U?$less@G@2@V?$allocator@G@2@@_STL@@AAEXXZ PROC NEAR ; _STL::_Rb_tree<unsigned short,unsigned short,_STL::_Identity<unsigned short>,_STL::less<unsigned short>,_STL::allocator<unsigned short> >::_M_empty_initialize, COMDAT
; _this$ = ecx

; 346  :     _S_color(this->_M_header._M_data) = _S_rb_tree_red; // used to distinguish header from 

  00000	8b 01		 mov	 eax, DWORD PTR [ecx]
  00002	c6 00 00	 mov	 BYTE PTR [eax], 0

; 347  :                                           // __root, in iterator.operator++
; 348  :     _M_root() = 0;

  00005	8b 01		 mov	 eax, DWORD PTR [ecx]
  00007	83 60 04 00	 and	 DWORD PTR [eax+4], 0

; 349  :     _M_leftmost() = this->_M_header._M_data;

  0000b	8b 01		 mov	 eax, DWORD PTR [ecx]
  0000d	89 40 08	 mov	 DWORD PTR [eax+8], eax

; 350  :     _M_rightmost() = this->_M_header._M_data;

  00010	8b 09		 mov	 ecx, DWORD PTR [ecx]
  00012	89 49 0c	 mov	 DWORD PTR [ecx+12], ecx

; 351  :   }

  00015	c3		 ret	 0
?_M_empty_initialize@?$_Rb_tree@GGU?$_Identity@G@_STL@@U?$less@G@2@V?$allocator@G@2@@_STL@@AAEXXZ ENDP ; _STL::_Rb_tree<unsigned short,unsigned short,_STL::_Identity<unsigned short>,_STL::less<unsigned short>,_STL::allocator<unsigned short> >::_M_empty_initialize
_TEXT	ENDS
PUBLIC	?deallocate@?$allocator@U?$_Rb_tree_node@G@_STL@@@_STL@@QAEXPAU?$_Rb_tree_node@G@2@I@Z ; _STL::allocator<_STL::_Rb_tree_node<unsigned short> >::deallocate
; Function compile flags: /Ogsy
; File c:\stlport-4.6.1\stlport\stl\_alloc.h
;	COMDAT ?deallocate@?$allocator@U?$_Rb_tree_node@G@_STL@@@_STL@@QAEXPAU?$_Rb_tree_node@G@2@I@Z
_TEXT	SEGMENT
___p$ = 8						; size = 4
___n$ = 12						; size = 4
?deallocate@?$allocator@U?$_Rb_tree_node@G@_STL@@@_STL@@QAEXPAU?$_Rb_tree_node@G@2@I@Z PROC NEAR ; _STL::allocator<_STL::_Rb_tree_node<unsigned short> >::deallocate, COMDAT
; _this$ = ecx

; 359  :     _STLP_ASSERT( (__p == 0) == (__n == 0) )
; 360  :       if (__p != 0) __sgi_alloc::deallocate((void*)__p, __n * sizeof(value_type));

  00000	83 7c 24 04 00	 cmp	 DWORD PTR ___p$[esp-4], 0
  00005	74 16		 je	 SHORT $L101620
  00007	8b 44 24 08	 mov	 eax, DWORD PTR ___n$[esp-4]
  0000b	8d 04 80	 lea	 eax, DWORD PTR [eax+eax*4]
  0000e	c1 e0 02	 shl	 eax, 2
  00011	50		 push	 eax
  00012	ff 74 24 08	 push	 DWORD PTR ___p$[esp]
  00016	e8 00 00 00 00	 call	 ?deallocate@?$__node_alloc@$00$0A@@_STL@@SAXPAXI@Z ; _STL::__node_alloc<1,0>::deallocate
  0001b	59		 pop	 ecx
  0001c	59		 pop	 ecx
$L101620:

; 361  :   }

  0001d	c2 08 00	 ret	 8
?deallocate@?$allocator@U?$_Rb_tree_node@G@_STL@@@_STL@@QAEXPAU?$_Rb_tree_node@G@2@I@Z ENDP ; _STL::allocator<_STL::_Rb_tree_node<unsigned short> >::deallocate
_TEXT	ENDS
PUBLIC	??0?$_STLP_alloc_proxy@PAU?$_Rb_tree_node@G@_STL@@U12@V?$allocator@U?$_Rb_tree_node@G@_STL@@@2@@_STL@@QAE@ABV?$allocator@U?$_Rb_tree_node@G@_STL@@@1@PAU?$_Rb_tree_node@G@1@@Z ; _STL::_STLP_alloc_proxy<_STL::_Rb_tree_node<unsigned short> *,_STL::_Rb_tree_node<unsigned short>,_STL::allocator<_STL::_Rb_tree_node<unsigned short> > >::_STLP_alloc_proxy<_STL::_Rb_tree_node<unsigned short> *,_STL::_Rb_tree_node<unsigned short>,_STL::allocator<_STL::_Rb_tree_node<unsigned short> > >
; Function compile flags: /Ogsy
;	COMDAT ??0?$_STLP_alloc_proxy@PAU?$_Rb_tree_node@G@_STL@@U12@V?$allocator@U?$_Rb_tree_node@G@_STL@@@2@@_STL@@QAE@ABV?$allocator@U?$_Rb_tree_node@G@_STL@@@1@PAU?$_Rb_tree_node@G@1@@Z
_TEXT	SEGMENT
___a$ = 8						; size = 4
___p$ = 12						; size = 4
??0?$_STLP_alloc_proxy@PAU?$_Rb_tree_node@G@_STL@@U12@V?$allocator@U?$_Rb_tree_node@G@_STL@@@2@@_STL@@QAE@ABV?$allocator@U?$_Rb_tree_node@G@_STL@@@1@PAU?$_Rb_tree_node@G@1@@Z PROC NEAR ; _STL::_STLP_alloc_proxy<_STL::_Rb_tree_node<unsigned short> *,_STL::_Rb_tree_node<unsigned short>,_STL::allocator<_STL::_Rb_tree_node<unsigned short> > >::_STLP_alloc_proxy<_STL::_Rb_tree_node<unsigned short> *,_STL::_Rb_tree_node<unsigned short>,_STL::allocator<_STL::_Rb_tree_node<unsigned short> > >, COMDAT
; _this$ = ecx

; 487  :   inline _STLP_alloc_proxy(const _MaybeReboundAlloc& __a, _Value __p) : _MaybeReboundAlloc(__a), _M_data(__p) {}

  00000	8b c1		 mov	 eax, ecx
  00002	8b 4c 24 08	 mov	 ecx, DWORD PTR ___p$[esp-4]
  00006	89 08		 mov	 DWORD PTR [eax], ecx
  00008	c2 08 00	 ret	 8
??0?$_STLP_alloc_proxy@PAU?$_Rb_tree_node@G@_STL@@U12@V?$allocator@U?$_Rb_tree_node@G@_STL@@@2@@_STL@@QAE@ABV?$allocator@U?$_Rb_tree_node@G@_STL@@@1@PAU?$_Rb_tree_node@G@1@@Z ENDP ; _STL::_STLP_alloc_proxy<_STL::_Rb_tree_node<unsigned short> *,_STL::_Rb_tree_node<unsigned short>,_STL::allocator<_STL::_Rb_tree_node<unsigned short> > >::_STLP_alloc_proxy<_STL::_Rb_tree_node<unsigned short> *,_STL::_Rb_tree_node<unsigned short>,_STL::allocator<_STL::_Rb_tree_node<unsigned short> > >
_TEXT	ENDS
PUBLIC	?allocate@?$allocator@U?$_Rb_tree_node@G@_STL@@@_STL@@QAEPAU?$_Rb_tree_node@G@2@IPBX@Z ; _STL::allocator<_STL::_Rb_tree_node<unsigned short> >::allocate
; Function compile flags: /Ogsy
;	COMDAT ?allocate@?$allocator@U?$_Rb_tree_node@G@_STL@@@_STL@@QAEPAU?$_Rb_tree_node@G@2@IPBX@Z
_TEXT	SEGMENT
___n$ = 8						; size = 4
___formal$ = 12						; size = 4
?allocate@?$allocator@U?$_Rb_tree_node@G@_STL@@@_STL@@QAEPAU?$_Rb_tree_node@G@2@IPBX@Z PROC NEAR ; _STL::allocator<_STL::_Rb_tree_node<unsigned short> >::allocate, COMDAT
; _this$ = ecx

; 355  :     return __n != 0 ? __REINTERPRET_CAST(value_type*,__sgi_alloc::allocate(__n * sizeof(value_type))) : 0;

  00000	8b 44 24 04	 mov	 eax, DWORD PTR ___n$[esp-4]
  00004	85 c0		 test	 eax, eax
  00006	74 0f		 je	 SHORT $L102871
  00008	8d 04 80	 lea	 eax, DWORD PTR [eax+eax*4]
  0000b	c1 e0 02	 shl	 eax, 2
  0000e	50		 push	 eax
  0000f	e8 00 00 00 00	 call	 ?allocate@?$__node_alloc@$00$0A@@_STL@@SAPAXI@Z ; _STL::__node_alloc<1,0>::allocate
  00014	59		 pop	 ecx
  00015	eb 02		 jmp	 SHORT $L102872
$L102871:
  00017	33 c0		 xor	 eax, eax
$L102872:

; 356  :   }

  00019	c2 08 00	 ret	 8
?allocate@?$allocator@U?$_Rb_tree_node@G@_STL@@@_STL@@QAEPAU?$_Rb_tree_node@G@2@IPBX@Z ENDP ; _STL::allocator<_STL::_Rb_tree_node<unsigned short> >::allocate
_TEXT	ENDS
PUBLIC	?_M_erase@?$_Rb_tree@GGU?$_Identity@G@_STL@@U?$less@G@2@V?$allocator@G@2@@_STL@@AAEXPAU?$_Rb_tree_node@G@2@@Z ; _STL::_Rb_tree<unsigned short,unsigned short,_STL::_Identity<unsigned short>,_STL::less<unsigned short>,_STL::allocator<unsigned short> >::_M_erase
; Function compile flags: /Ogsy
; File c:\stlport-4.6.1\stlport\stl\_tree.c
;	COMDAT ?_M_erase@?$_Rb_tree@GGU?$_Identity@G@_STL@@U?$less@G@2@V?$allocator@G@2@@_STL@@AAEXPAU?$_Rb_tree_node@G@2@@Z
_TEXT	SEGMENT
___x$ = 8						; size = 4
?_M_erase@?$_Rb_tree@GGU?$_Identity@G@_STL@@U?$less@G@2@V?$allocator@G@2@@_STL@@AAEXPAU?$_Rb_tree_node@G@2@@Z PROC NEAR ; _STL::_Rb_tree<unsigned short,unsigned short,_STL::_Identity<unsigned short>,_STL::less<unsigned short>,_STL::allocator<unsigned short> >::_M_erase, COMDAT
; _this$ = ecx

; 637  : {

  00000	53		 push	 ebx
  00001	56		 push	 esi

; 638  :                                 // erase without rebalancing
; 639  :   while (__x != 0) {

  00002	8b 74 24 0c	 mov	 esi, DWORD PTR ___x$[esp+4]
  00006	85 f6		 test	 esi, esi
  00008	8b d9		 mov	 ebx, ecx
  0000a	74 1f		 je	 SHORT $L101796
  0000c	57		 push	 edi
$L101795:

; 640  :     _M_erase(_S_right(__x));

  0000d	ff 76 0c	 push	 DWORD PTR [esi+12]
  00010	8b cb		 mov	 ecx, ebx
  00012	e8 00 00 00 00	 call	 ?_M_erase@?$_Rb_tree@GGU?$_Identity@G@_STL@@U?$less@G@2@V?$allocator@G@2@@_STL@@AAEXPAU?$_Rb_tree_node@G@2@@Z ; _STL::_Rb_tree<unsigned short,unsigned short,_STL::_Identity<unsigned short>,_STL::less<unsigned short>,_STL::allocator<unsigned short> >::_M_erase

; 641  :     _Link_type __y = _S_left(__x);

  00017	8b 7e 08	 mov	 edi, DWORD PTR [esi+8]

; 642  :     _STLP_STD::_Destroy(&__x->_M_value_field);
; 643  :     this->_M_header.deallocate(__x,1);

  0001a	6a 01		 push	 1
  0001c	56		 push	 esi
  0001d	8b cb		 mov	 ecx, ebx
  0001f	e8 00 00 00 00	 call	 ?deallocate@?$allocator@U?$_Rb_tree_node@G@_STL@@@_STL@@QAEXPAU?$_Rb_tree_node@G@2@I@Z ; _STL::allocator<_STL::_Rb_tree_node<unsigned short> >::deallocate
  00024	85 ff		 test	 edi, edi

; 644  :     __x = __y;

  00026	8b f7		 mov	 esi, edi
  00028	75 e3		 jne	 SHORT $L101795
  0002a	5f		 pop	 edi
$L101796:
  0002b	5e		 pop	 esi
  0002c	5b		 pop	 ebx

; 645  :   }
; 646  : }

  0002d	c2 04 00	 ret	 4
?_M_erase@?$_Rb_tree@GGU?$_Identity@G@_STL@@U?$less@G@2@V?$allocator@G@2@@_STL@@AAEXPAU?$_Rb_tree_node@G@2@@Z ENDP ; _STL::_Rb_tree<unsigned short,unsigned short,_STL::_Identity<unsigned short>,_STL::less<unsigned short>,_STL::allocator<unsigned short> >::_M_erase
_TEXT	ENDS
PUBLIC	?_S_key@?$_Rb_tree@GGU?$_Identity@G@_STL@@U?$less@G@2@V?$allocator@G@2@@_STL@@KAABGPAU?$_Rb_tree_node@G@2@@Z ; _STL::_Rb_tree<unsigned short,unsigned short,_STL::_Identity<unsigned short>,_STL::less<unsigned short>,_STL::allocator<unsigned short> >::_S_key
; Function compile flags: /Ogsy
; File c:\stlport-4.6.1\stlport\stl\_tree.h
;	COMDAT ?_S_key@?$_Rb_tree@GGU?$_Identity@G@_STL@@U?$less@G@2@V?$allocator@G@2@@_STL@@KAABGPAU?$_Rb_tree_node@G@2@@Z
_TEXT	SEGMENT
___x$ = 8						; size = 4
?_S_key@?$_Rb_tree@GGU?$_Identity@G@_STL@@U?$less@G@2@V?$allocator@G@2@@_STL@@KAABGPAU?$_Rb_tree_node@G@2@@Z PROC NEAR ; _STL::_Rb_tree<unsigned short,unsigned short,_STL::_Identity<unsigned short>,_STL::less<unsigned short>,_STL::allocator<unsigned short> >::_S_key, COMDAT

; 280  :     { return _KeyOfValue()(_S_value(__x)); }

  00000	8b 44 24 04	 mov	 eax, DWORD PTR ___x$[esp-4]
  00004	83 c0 10	 add	 eax, 16			; 00000010H
  00007	c3		 ret	 0
?_S_key@?$_Rb_tree@GGU?$_Identity@G@_STL@@U?$less@G@2@V?$allocator@G@2@@_STL@@KAABGPAU?$_Rb_tree_node@G@2@@Z ENDP ; _STL::_Rb_tree<unsigned short,unsigned short,_STL::_Identity<unsigned short>,_STL::less<unsigned short>,_STL::allocator<unsigned short> >::_S_key
_TEXT	ENDS
PUBLIC	?_S_key@?$_Rb_tree@GGU?$_Identity@G@_STL@@U?$less@G@2@V?$allocator@G@2@@_STL@@KAABGPAU_Rb_tree_node_base@2@@Z ; _STL::_Rb_tree<unsigned short,unsigned short,_STL::_Identity<unsigned short>,_STL::less<unsigned short>,_STL::allocator<unsigned short> >::_S_key
; Function compile flags: /Ogsy
;	COMDAT ?_S_key@?$_Rb_tree@GGU?$_Identity@G@_STL@@U?$less@G@2@V?$allocator@G@2@@_STL@@KAABGPAU_Rb_tree_node_base@2@@Z
_TEXT	SEGMENT
___x$ = 8						; size = 4
?_S_key@?$_Rb_tree@GGU?$_Identity@G@_STL@@U?$less@G@2@V?$allocator@G@2@@_STL@@KAABGPAU_Rb_tree_node_base@2@@Z PROC NEAR ; _STL::_Rb_tree<unsigned short,unsigned short,_STL::_Identity<unsigned short>,_STL::less<unsigned short>,_STL::allocator<unsigned short> >::_S_key, COMDAT

; 293  :     { return _KeyOfValue()(_S_value(_Link_type(__x)));} 

  00000	8b 44 24 04	 mov	 eax, DWORD PTR ___x$[esp-4]
  00004	83 c0 10	 add	 eax, 16			; 00000010H
  00007	c3		 ret	 0
?_S_key@?$_Rb_tree@GGU?$_Identity@G@_STL@@U?$less@G@2@V?$allocator@G@2@@_STL@@KAABGPAU_Rb_tree_node_base@2@@Z ENDP ; _STL::_Rb_tree<unsigned short,unsigned short,_STL::_Identity<unsigned short>,_STL::less<unsigned short>,_STL::allocator<unsigned short> >::_S_key
_TEXT	ENDS
PUBLIC	?begin@?$_Rb_tree@GGU?$_Identity@G@_STL@@U?$less@G@2@V?$allocator@G@2@@_STL@@QAE?AU?$_Rb_tree_iterator@GU?$_Nonconst_traits@G@_STL@@@2@XZ ; _STL::_Rb_tree<unsigned short,unsigned short,_STL::_Identity<unsigned short>,_STL::less<unsigned short>,_STL::allocator<unsigned short> >::begin
; Function compile flags: /Ogsy
;	COMDAT ?begin@?$_Rb_tree@GGU?$_Identity@G@_STL@@U?$less@G@2@V?$allocator@G@2@@_STL@@QAE?AU?$_Rb_tree_iterator@GU?$_Nonconst_traits@G@_STL@@@2@XZ
_TEXT	SEGMENT
___$ReturnUdt$ = 8					; size = 4
?begin@?$_Rb_tree@GGU?$_Identity@G@_STL@@U?$less@G@2@V?$allocator@G@2@@_STL@@QAE?AU?$_Rb_tree_iterator@GU?$_Nonconst_traits@G@_STL@@@2@XZ PROC NEAR ; _STL::_Rb_tree<unsigned short,unsigned short,_STL::_Identity<unsigned short>,_STL::less<unsigned short>,_STL::allocator<unsigned short> >::begin, COMDAT
; _this$ = ecx

; 357  :   iterator begin() { return iterator(_M_leftmost()); }

  00000	8b 01		 mov	 eax, DWORD PTR [ecx]
  00002	8b 48 08	 mov	 ecx, DWORD PTR [eax+8]
  00005	8b 44 24 04	 mov	 eax, DWORD PTR ___$ReturnUdt$[esp-4]
  00009	89 08		 mov	 DWORD PTR [eax], ecx
  0000b	c2 04 00	 ret	 4
?begin@?$_Rb_tree@GGU?$_Identity@G@_STL@@U?$less@G@2@V?$allocator@G@2@@_STL@@QAE?AU?$_Rb_tree_iterator@GU?$_Nonconst_traits@G@_STL@@@2@XZ ENDP ; _STL::_Rb_tree<unsigned short,unsigned short,_STL::_Identity<unsigned short>,_STL::less<unsigned short>,_STL::allocator<unsigned short> >::begin
_TEXT	ENDS
PUBLIC	?_M_create_node@?$_Rb_tree@GGU?$_Identity@G@_STL@@U?$less@G@2@V?$allocator@G@2@@_STL@@IAEPAU?$_Rb_tree_node@G@2@ABG@Z ; _STL::_Rb_tree<unsigned short,unsigned short,_STL::_Identity<unsigned short>,_STL::less<unsigned short>,_STL::allocator<unsigned short> >::_M_create_node
EXTRN	__CxxThrowException@8:NEAR
; Function compile flags: /Ogsy
;	COMDAT ?_M_create_node@?$_Rb_tree@GGU?$_Identity@G@_STL@@U?$less@G@2@V?$allocator@G@2@@_STL@@IAEPAU?$_Rb_tree_node@G@2@ABG@Z
_TEXT	SEGMENT
___x$ = 8						; size = 4
?_M_create_node@?$_Rb_tree@GGU?$_Identity@G@_STL@@U?$less@G@2@V?$allocator@G@2@@_STL@@IAEPAU?$_Rb_tree_node@G@2@ABG@Z PROC NEAR ; _STL::_Rb_tree<unsigned short,unsigned short,_STL::_Identity<unsigned short>,_STL::less<unsigned short>,_STL::allocator<unsigned short> >::_M_create_node, COMDAT
; _this$ = ecx

; 243  :     _Link_type __tmp = this->_M_header.allocate(1);

  00000	6a 14		 push	 20			; 00000014H
  00002	e8 00 00 00 00	 call	 ?allocate@?$__node_alloc@$00$0A@@_STL@@SAPAXI@Z ; _STL::__node_alloc<1,0>::allocate
  00007	59		 pop	 ecx

; 244  :     _STLP_TRY {
; 245  :       _Construct(&__tmp->_M_value_field, __x);

  00008	8d 48 10	 lea	 ecx, DWORD PTR [eax+16]
  0000b	85 c9		 test	 ecx, ecx
  0000d	74 0a		 je	 SHORT $L102939
  0000f	8b 54 24 04	 mov	 edx, DWORD PTR ___x$[esp-4]
  00013	66 8b 12	 mov	 dx, WORD PTR [edx]
  00016	66 89 11	 mov	 WORD PTR [ecx], dx
$L102939:

; 246  :     }
; 247  :     _STLP_UNWIND(this->_M_header.deallocate(__tmp,1));
; 248  :     return __tmp;
; 249  :   }

  00019	c2 04 00	 ret	 4
?_M_create_node@?$_Rb_tree@GGU?$_Identity@G@_STL@@U?$less@G@2@V?$allocator@G@2@@_STL@@IAEPAU?$_Rb_tree_node@G@2@ABG@Z ENDP ; _STL::_Rb_tree<unsigned short,unsigned short,_STL::_Identity<unsigned short>,_STL::less<unsigned short>,_STL::allocator<unsigned short> >::_M_create_node
_TEXT	ENDS
PUBLIC	??$_M_find@G@?$_Rb_tree@GGU?$_Identity@G@_STL@@U?$less@G@2@V?$allocator@G@2@@_STL@@ABEPAU?$_Rb_tree_node@G@1@ABG@Z ; _STL::_Rb_tree<unsigned short,unsigned short,_STL::_Identity<unsigned short>,_STL::less<unsigned short>,_STL::allocator<unsigned short> >::_M_find<unsigned short>
; Function compile flags: /Ogsy
;	COMDAT ??$_M_find@G@?$_Rb_tree@GGU?$_Identity@G@_STL@@U?$less@G@2@V?$allocator@G@2@@_STL@@ABEPAU?$_Rb_tree_node@G@1@ABG@Z
_TEXT	SEGMENT
___k$ = 8						; size = 4
??$_M_find@G@?$_Rb_tree@GGU?$_Identity@G@_STL@@U?$less@G@2@V?$allocator@G@2@@_STL@@ABEPAU?$_Rb_tree_node@G@1@ABG@Z PROC NEAR ; _STL::_Rb_tree<unsigned short,unsigned short,_STL::_Identity<unsigned short>,_STL::less<unsigned short>,_STL::allocator<unsigned short> >::_M_find<unsigned short>, COMDAT
; _this$ = ecx

; 462  : # else
; 463  :   iterator find(const key_type& __x) { return iterator(_M_find(__x)); }
; 464  :   const_iterator find(const key_type& __x) const { return const_iterator(_M_find(__x)); }
; 465  : private:
; 466  :   _Rb_tree_node<_Value>* _M_find(const key_type& __k) const
; 467  : # endif
; 468  :   {
; 469  :     _Link_type __y = this->_M_header._M_data;      // Last node which is not less than __k. 

  00000	8b 11		 mov	 edx, DWORD PTR [ecx]

; 470  :     _Link_type __x = _M_root();      // Current node. 

  00002	8b 4a 04	 mov	 ecx, DWORD PTR [edx+4]

; 471  :     
; 472  :     while (__x != 0) 

  00005	85 c9		 test	 ecx, ecx
  00007	57		 push	 edi
  00008	8b 7c 24 08	 mov	 edi, DWORD PTR ___k$[esp]
  0000c	8b c2		 mov	 eax, edx
  0000e	74 19		 je	 SHORT $L102139
  00010	56		 push	 esi
  00011	66 8b 37	 mov	 si, WORD PTR [edi]
$L102138:

; 473  :       if (!_M_key_compare(_S_key(__x), __k))

  00014	66 39 71 10	 cmp	 WORD PTR [ecx+16], si
  00018	72 07		 jb	 SHORT $L102140

; 474  : 	__y = __x, __x = _S_left(__x);

  0001a	8b c1		 mov	 eax, ecx
  0001c	8b 49 08	 mov	 ecx, DWORD PTR [ecx+8]

; 475  :       else

  0001f	eb 03		 jmp	 SHORT $L102141
$L102140:

; 476  : 	__x = _S_right(__x);

  00021	8b 49 0c	 mov	 ecx, DWORD PTR [ecx+12]
$L102141:

; 471  :     
; 472  :     while (__x != 0) 

  00024	85 c9		 test	 ecx, ecx
  00026	75 ec		 jne	 SHORT $L102138
  00028	5e		 pop	 esi
$L102139:

; 477  :     if (__y == this->_M_header._M_data || _M_key_compare(__k, _S_key(__y)))

  00029	3b c2		 cmp	 eax, edx
  0002b	74 09		 je	 SHORT $L102143
  0002d	66 8b 0f	 mov	 cx, WORD PTR [edi]
  00030	66 3b 48 10	 cmp	 cx, WORD PTR [eax+16]
  00034	73 02		 jae	 SHORT $L102142
$L102143:

; 478  :       __y = this->_M_header._M_data;

  00036	8b c2		 mov	 eax, edx
$L102142:
  00038	5f		 pop	 edi

; 479  :     return __y;
; 480  :   }

  00039	c2 04 00	 ret	 4
??$_M_find@G@?$_Rb_tree@GGU?$_Identity@G@_STL@@U?$less@G@2@V?$allocator@G@2@@_STL@@ABEPAU?$_Rb_tree_node@G@1@ABG@Z ENDP ; _STL::_Rb_tree<unsigned short,unsigned short,_STL::_Identity<unsigned short>,_STL::less<unsigned short>,_STL::allocator<unsigned short> >::_M_find<unsigned short>
_TEXT	ENDS
PUBLIC	??1?$_STLP_alloc_proxy@PAU?$_List_node@V?$basic_string@DV?$char_traits@D@_STL@@V?$allocator@D@2@@_STL@@@_STL@@U12@V?$allocator@U?$_List_node@V?$basic_string@DV?$char_traits@D@_STL@@V?$allocator@D@2@@_STL@@@_STL@@@2@@_STL@@QAE@XZ ; _STL::_STLP_alloc_proxy<_STL::_List_node<_STL::basic_string<char,_STL::char_traits<char>,_STL::allocator<char> > > *,_STL::_List_node<_STL::basic_string<char,_STL::char_traits<char>,_STL::allocator<char> > >,_STL::allocator<_STL::_List_node<_STL::basic_string<char,_STL::char_traits<char>,_STL::allocator<char> > > > >::~_STLP_alloc_proxy<_STL::_List_node<_STL::basic_string<char,_STL::char_traits<char>,_STL::allocator<char> > > *,_STL::_List_node<_STL::basic_string<char,_STL::char_traits<char>,_STL::allocator<char> > >,_STL::allocator<_STL::_List_node<_STL::basic_string<char,_STL::char_traits<char>,_STL::allocator<char> > > > >
; Function compile flags: /Ogsy
;	COMDAT ??1?$_STLP_alloc_proxy@PAU?$_List_node@V?$basic_string@DV?$char_traits@D@_STL@@V?$allocator@D@2@@_STL@@@_STL@@U12@V?$allocator@U?$_List_node@V?$basic_string@DV?$char_traits@D@_STL@@V?$allocator@D@2@@_STL@@@_STL@@@2@@_STL@@QAE@XZ
_TEXT	SEGMENT
??1?$_STLP_alloc_proxy@PAU?$_List_node@V?$basic_string@DV?$char_traits@D@_STL@@V?$allocator@D@2@@_STL@@@_STL@@U12@V?$allocator@U?$_List_node@V?$basic_string@DV?$char_traits@D@_STL@@V?$allocator@D@2@@_STL@@@_STL@@@2@@_STL@@QAE@XZ PROC NEAR ; _STL::_STLP_alloc_proxy<_STL::_List_node<_STL::basic_string<char,_STL::char_traits<char>,_STL::allocator<char> > > *,_STL::_List_node<_STL::basic_string<char,_STL::char_traits<char>,_STL::allocator<char> > >,_STL::allocator<_STL::_List_node<_STL::basic_string<char,_STL::char_traits<char>,_STL::allocator<char> > > > >::~_STLP_alloc_proxy<_STL::_List_node<_STL::basic_string<char,_STL::char_traits<char>,_STL::allocator<char> > > *,_STL::_List_node<_STL::basic_string<char,_STL::char_traits<char>,_STL::allocator<char> > >,_STL::allocator<_STL::_List_node<_STL::basic_string<char,_STL::char_traits<char>,_STL::allocator<char> > > > >, COMDAT
; _this$ = ecx
  00000	c3		 ret	 0
??1?$_STLP_alloc_proxy@PAU?$_List_node@V?$basic_string@DV?$char_traits@D@_STL@@V?$allocator@D@2@@_STL@@@_STL@@U12@V?$allocator@U?$_List_node@V?$basic_string@DV?$char_traits@D@_STL@@V?$allocator@D@2@@_STL@@@_STL@@@2@@_STL@@QAE@XZ ENDP ; _STL::_STLP_alloc_proxy<_STL::_List_node<_STL::basic_string<char,_STL::char_traits<char>,_STL::allocator<char> > > *,_STL::_List_node<_STL::basic_string<char,_STL::char_traits<char>,_STL::allocator<char> > >,_STL::allocator<_STL::_List_node<_STL::basic_string<char,_STL::char_traits<char>,_STL::allocator<char> > > > >::~_STLP_alloc_proxy<_STL::_List_node<_STL::basic_string<char,_STL::char_traits<char>,_STL::allocator<char> > > *,_STL::_List_node<_STL::basic_string<char,_STL::char_traits<char>,_STL::allocator<char> > >,_STL::allocator<_STL::_List_node<_STL::basic_string<char,_STL::char_traits<char>,_STL::allocator<char> > > > >
_TEXT	ENDS
PUBLIC	??0?$_STLP_alloc_proxy@PAU?$_List_node@V?$basic_string@DV?$char_traits@D@_STL@@V?$allocator@D@2@@_STL@@@_STL@@U12@V?$allocator@U?$_List_node@V?$basic_string@DV?$char_traits@D@_STL@@V?$allocator@D@2@@_STL@@@_STL@@@2@@_STL@@QAE@ABV?$allocator@U?$_List_node@V?$basic_string@DV?$char_traits@D@_STL@@V?$allocator@D@2@@_STL@@@_STL@@@1@PAU?$_List_node@V?$basic_string@DV?$char_traits@D@_STL@@V?$allocator@D@2@@_STL@@@1@@Z ; _STL::_STLP_alloc_proxy<_STL::_List_node<_STL::basic_string<char,_STL::char_traits<char>,_STL::allocator<char> > > *,_STL::_List_node<_STL::basic_string<char,_STL::char_traits<char>,_STL::allocator<char> > >,_STL::allocator<_STL::_List_node<_STL::basic_string<char,_STL::char_traits<char>,_STL::allocator<char> > > > >::_STLP_alloc_proxy<_STL::_List_node<_STL::basic_string<char,_STL::char_traits<char>,_STL::allocator<char> > > *,_STL::_List_node<_STL::basic_string<char,_STL::char_traits<char>,_STL::allocator<char> > >,_STL::allocator<_STL::_List_node<_STL::basic_string<char,_STL::char_traits<char>,_STL::allocator<char> > > > >
; Function compile flags: /Ogsy
; File c:\stlport-4.6.1\stlport\stl\_alloc.h
;	COMDAT ??0?$_STLP_alloc_proxy@PAU?$_List_node@V?$basic_string@DV?$char_traits@D@_STL@@V?$allocator@D@2@@_STL@@@_STL@@U12@V?$allocator@U?$_List_node@V?$basic_string@DV?$char_traits@D@_STL@@V?$allocator@D@2@@_STL@@@_STL@@@2@@_STL@@QAE@ABV?$allocator@U?$_List_node@V?$basic_string@DV?$char_traits@D@_STL@@V?$allocator@D@2@@_STL@@@_STL@@@1@PAU?$_List_node@V?$basic_string@DV?$char_traits@D@_STL@@V?$allocator@D@2@@_STL@@@1@@Z
_TEXT	SEGMENT
___a$ = 8						; size = 4
___p$ = 12						; size = 4
??0?$_STLP_alloc_proxy@PAU?$_List_node@V?$basic_string@DV?$char_traits@D@_STL@@V?$allocator@D@2@@_STL@@@_STL@@U12@V?$allocator@U?$_List_node@V?$basic_string@DV?$char_traits@D@_STL@@V?$allocator@D@2@@_STL@@@_STL@@@2@@_STL@@QAE@ABV?$allocator@U?$_List_node@V?$basic_string@DV?$char_traits@D@_STL@@V?$allocator@D@2@@_STL@@@_STL@@@1@PAU?$_List_node@V?$basic_string@DV?$char_traits@D@_STL@@V?$allocator@D@2@@_STL@@@1@@Z PROC NEAR ; _STL::_STLP_alloc_proxy<_STL::_List_node<_STL::basic_string<char,_STL::char_traits<char>,_STL::allocator<char> > > *,_STL::_List_node<_STL::basic_string<char,_STL::char_traits<char>,_STL::allocator<char> > >,_STL::allocator<_STL::_List_node<_STL::basic_string<char,_STL::char_traits<char>,_STL::allocator<char> > > > >::_STLP_alloc_proxy<_STL::_List_node<_STL::basic_string<char,_STL::char_traits<char>,_STL::allocator<char> > > *,_STL::_List_node<_STL::basic_string<char,_STL::char_traits<char>,_STL::allocator<char> > >,_STL::allocator<_STL::_List_node<_STL::basic_string<char,_STL::char_traits<char>,_STL::allocator<char> > > > >, COMDAT
; _this$ = ecx

; 487  :   inline _STLP_alloc_proxy(const _MaybeReboundAlloc& __a, _Value __p) : _MaybeReboundAlloc(__a), _M_data(__p) {}

  00000	8b c1		 mov	 eax, ecx
  00002	8b 4c 24 08	 mov	 ecx, DWORD PTR ___p$[esp-4]
  00006	89 08		 mov	 DWORD PTR [eax], ecx
  00008	c2 08 00	 ret	 8
??0?$_STLP_alloc_proxy@PAU?$_List_node@V?$basic_string@DV?$char_traits@D@_STL@@V?$allocator@D@2@@_STL@@@_STL@@U12@V?$allocator@U?$_List_node@V?$basic_string@DV?$char_traits@D@_STL@@V?$allocator@D@2@@_STL@@@_STL@@@2@@_STL@@QAE@ABV?$allocator@U?$_List_node@V?$basic_string@DV?$char_traits@D@_STL@@V?$allocator@D@2@@_STL@@@_STL@@@1@PAU?$_List_node@V?$basic_string@DV?$char_traits@D@_STL@@V?$allocator@D@2@@_STL@@@1@@Z ENDP ; _STL::_STLP_alloc_proxy<_STL::_List_node<_STL::basic_string<char,_STL::char_traits<char>,_STL::allocator<char> > > *,_STL::_List_node<_STL::basic_string<char,_STL::char_traits<char>,_STL::allocator<char> > >,_STL::allocator<_STL::_List_node<_STL::basic_string<char,_STL::char_traits<char>,_STL::allocator<char> > > > >::_STLP_alloc_proxy<_STL::_List_node<_STL::basic_string<char,_STL::char_traits<char>,_STL::allocator<char> > > *,_STL::_List_node<_STL::basic_string<char,_STL::char_traits<char>,_STL::allocator<char> > >,_STL::allocator<_STL::_List_node<_STL::basic_string<char,_STL::char_traits<char>,_STL::allocator<char> > > > >
_TEXT	ENDS
PUBLIC	?allocate@?$allocator@U?$_List_node@V?$basic_string@DV?$char_traits@D@_STL@@V?$allocator@D@2@@_STL@@@_STL@@@_STL@@QAEPAU?$_List_node@V?$basic_string@DV?$char_traits@D@_STL@@V?$allocator@D@2@@_STL@@@2@IPBX@Z ; _STL::allocator<_STL::_List_node<_STL::basic_string<char,_STL::char_traits<char>,_STL::allocator<char> > > >::allocate
; Function compile flags: /Ogsy
;	COMDAT ?allocate@?$allocator@U?$_List_node@V?$basic_string@DV?$char_traits@D@_STL@@V?$allocator@D@2@@_STL@@@_STL@@@_STL@@QAEPAU?$_List_node@V?$basic_string@DV?$char_traits@D@_STL@@V?$allocator@D@2@@_STL@@@2@IPBX@Z
_TEXT	SEGMENT
___n$ = 8						; size = 4
___formal$ = 12						; size = 4
?allocate@?$allocator@U?$_List_node@V?$basic_string@DV?$char_traits@D@_STL@@V?$allocator@D@2@@_STL@@@_STL@@@_STL@@QAEPAU?$_List_node@V?$basic_string@DV?$char_traits@D@_STL@@V?$allocator@D@2@@_STL@@@2@IPBX@Z PROC NEAR ; _STL::allocator<_STL::_List_node<_STL::basic_string<char,_STL::char_traits<char>,_STL::allocator<char> > > >::allocate, COMDAT
; _this$ = ecx

; 355  :     return __n != 0 ? __REINTERPRET_CAST(value_type*,__sgi_alloc::allocate(__n * sizeof(value_type))) : 0;

  00000	8b 44 24 04	 mov	 eax, DWORD PTR ___n$[esp-4]
  00004	85 c0		 test	 eax, eax
  00006	74 0f		 je	 SHORT $L103009
  00008	8d 04 80	 lea	 eax, DWORD PTR [eax+eax*4]
  0000b	c1 e0 02	 shl	 eax, 2
  0000e	50		 push	 eax
  0000f	e8 00 00 00 00	 call	 ?allocate@?$__node_alloc@$00$0A@@_STL@@SAPAXI@Z ; _STL::__node_alloc<1,0>::allocate
  00014	59		 pop	 ecx
  00015	eb 02		 jmp	 SHORT $L103010
$L103009:
  00017	33 c0		 xor	 eax, eax
$L103010:

; 356  :   }

  00019	c2 08 00	 ret	 8
?allocate@?$allocator@U?$_List_node@V?$basic_string@DV?$char_traits@D@_STL@@V?$allocator@D@2@@_STL@@@_STL@@@_STL@@QAEPAU?$_List_node@V?$basic_string@DV?$char_traits@D@_STL@@V?$allocator@D@2@@_STL@@@2@IPBX@Z ENDP ; _STL::allocator<_STL::_List_node<_STL::basic_string<char,_STL::char_traits<char>,_STL::allocator<char> > > >::allocate
_TEXT	ENDS
PUBLIC	?deallocate@?$allocator@U?$_List_node@V?$basic_string@DV?$char_traits@D@_STL@@V?$allocator@D@2@@_STL@@@_STL@@@_STL@@QAEXPAU?$_List_node@V?$basic_string@DV?$char_traits@D@_STL@@V?$allocator@D@2@@_STL@@@2@I@Z ; _STL::allocator<_STL::_List_node<_STL::basic_string<char,_STL::char_traits<char>,_STL::allocator<char> > > >::deallocate
; Function compile flags: /Ogsy
;	COMDAT ?deallocate@?$allocator@U?$_List_node@V?$basic_string@DV?$char_traits@D@_STL@@V?$allocator@D@2@@_STL@@@_STL@@@_STL@@QAEXPAU?$_List_node@V?$basic_string@DV?$char_traits@D@_STL@@V?$allocator@D@2@@_STL@@@2@I@Z
_TEXT	SEGMENT
___p$ = 8						; size = 4
___n$ = 12						; size = 4
?deallocate@?$allocator@U?$_List_node@V?$basic_string@DV?$char_traits@D@_STL@@V?$allocator@D@2@@_STL@@@_STL@@@_STL@@QAEXPAU?$_List_node@V?$basic_string@DV?$char_traits@D@_STL@@V?$allocator@D@2@@_STL@@@2@I@Z PROC NEAR ; _STL::allocator<_STL::_List_node<_STL::basic_string<char,_STL::char_traits<char>,_STL::allocator<char> > > >::deallocate, COMDAT
; _this$ = ecx

; 359  :     _STLP_ASSERT( (__p == 0) == (__n == 0) )
; 360  :       if (__p != 0) __sgi_alloc::deallocate((void*)__p, __n * sizeof(value_type));

  00000	83 7c 24 04 00	 cmp	 DWORD PTR ___p$[esp-4], 0
  00005	74 16		 je	 SHORT $L98656
  00007	8b 44 24 08	 mov	 eax, DWORD PTR ___n$[esp-4]
  0000b	8d 04 80	 lea	 eax, DWORD PTR [eax+eax*4]
  0000e	c1 e0 02	 shl	 eax, 2
  00011	50		 push	 eax
  00012	ff 74 24 08	 push	 DWORD PTR ___p$[esp]
  00016	e8 00 00 00 00	 call	 ?deallocate@?$__node_alloc@$00$0A@@_STL@@SAXPAXI@Z ; _STL::__node_alloc<1,0>::deallocate
  0001b	59		 pop	 ecx
  0001c	59		 pop	 ecx
$L98656:

; 361  :   }

  0001d	c2 08 00	 ret	 8
?deallocate@?$allocator@U?$_List_node@V?$basic_string@DV?$char_traits@D@_STL@@V?$allocator@D@2@@_STL@@@_STL@@@_STL@@QAEXPAU?$_List_node@V?$basic_string@DV?$char_traits@D@_STL@@V?$allocator@D@2@@_STL@@@2@I@Z ENDP ; _STL::allocator<_STL::_List_node<_STL::basic_string<char,_STL::char_traits<char>,_STL::allocator<char> > > >::deallocate
_TEXT	ENDS
PUBLIC	?deallocate@?$allocator@D@_STL@@QAEXPADI@Z	; _STL::allocator<char>::deallocate
; Function compile flags: /Ogsy
;	COMDAT ?deallocate@?$allocator@D@_STL@@QAEXPADI@Z
_TEXT	SEGMENT
___p$ = 8						; size = 4
___n$ = 12						; size = 4
?deallocate@?$allocator@D@_STL@@QAEXPADI@Z PROC NEAR	; _STL::allocator<char>::deallocate, COMDAT
; _this$ = ecx

; 359  :     _STLP_ASSERT( (__p == 0) == (__n == 0) )
; 360  :       if (__p != 0) __sgi_alloc::deallocate((void*)__p, __n * sizeof(value_type));

  00000	83 7c 24 04 00	 cmp	 DWORD PTR ___p$[esp-4], 0
  00005	74 0f		 je	 SHORT $L98663
  00007	ff 74 24 08	 push	 DWORD PTR ___n$[esp-4]
  0000b	ff 74 24 08	 push	 DWORD PTR ___p$[esp]
  0000f	e8 00 00 00 00	 call	 ?deallocate@?$__node_alloc@$00$0A@@_STL@@SAXPAXI@Z ; _STL::__node_alloc<1,0>::deallocate
  00014	59		 pop	 ecx
  00015	59		 pop	 ecx
$L98663:

; 361  :   }

  00016	c2 08 00	 ret	 8
?deallocate@?$allocator@D@_STL@@QAEXPADI@Z ENDP		; _STL::allocator<char>::deallocate
_TEXT	ENDS
PUBLIC	??0?$_String_base@DV?$allocator@D@_STL@@@_STL@@QAE@ABV?$allocator@D@1@@Z ; _STL::_String_base<char,_STL::allocator<char> >::_String_base<char,_STL::allocator<char> >
; Function compile flags: /Ogsy
; File c:\stlport-4.6.1\stlport\stl\_string.h
;	COMDAT ??0?$_String_base@DV?$allocator@D@_STL@@@_STL@@QAE@ABV?$allocator@D@1@@Z
_TEXT	SEGMENT
___a$ = 8						; size = 4
??0?$_String_base@DV?$allocator@D@_STL@@@_STL@@QAE@ABV?$allocator@D@1@@Z PROC NEAR ; _STL::_String_base<char,_STL::allocator<char> >::_String_base<char,_STL::allocator<char> >, COMDAT
; _this$ = ecx

; 129  :     : _M_start(0), _M_finish(0), _M_end_of_storage(__a, (_Tp*)0) {}

  00000	56		 push	 esi
  00001	33 c0		 xor	 eax, eax
  00003	8b f1		 mov	 esi, ecx
  00005	50		 push	 eax
  00006	ff 74 24 0c	 push	 DWORD PTR ___a$[esp+4]
  0000a	8d 4e 08	 lea	 ecx, DWORD PTR [esi+8]
  0000d	89 06		 mov	 DWORD PTR [esi], eax
  0000f	89 46 04	 mov	 DWORD PTR [esi+4], eax
  00012	e8 00 00 00 00	 call	 ??0?$_STLP_alloc_proxy@PADDV?$allocator@D@_STL@@@_STL@@QAE@ABV?$allocator@D@1@PAD@Z ; _STL::_STLP_alloc_proxy<char *,char,_STL::allocator<char> >::_STLP_alloc_proxy<char *,char,_STL::allocator<char> >
  00017	8b c6		 mov	 eax, esi
  00019	5e		 pop	 esi
  0001a	c2 04 00	 ret	 4
??0?$_String_base@DV?$allocator@D@_STL@@@_STL@@QAE@ABV?$allocator@D@1@@Z ENDP ; _STL::_String_base<char,_STL::allocator<char> >::_String_base<char,_STL::allocator<char> >
_TEXT	ENDS
PUBLIC	?begin@?$set@GU?$less@G@_STL@@V?$allocator@G@2@@_STL@@QBE?AU?$_Rb_tree_iterator@GU?$_Const_traits@G@_STL@@@2@XZ ; _STL::set<unsigned short,_STL::less<unsigned short>,_STL::allocator<unsigned short> >::begin
; Function compile flags: /Ogsy
; File c:\stlport-4.6.1\stlport\stl\_set.h
;	COMDAT ?begin@?$set@GU?$less@G@_STL@@V?$allocator@G@2@@_STL@@QBE?AU?$_Rb_tree_iterator@GU?$_Const_traits@G@_STL@@@2@XZ
_TEXT	SEGMENT
___$ReturnUdt$ = 8					; size = 4
?begin@?$set@GU?$less@G@_STL@@V?$allocator@G@2@@_STL@@QBE?AU?$_Rb_tree_iterator@GU?$_Const_traits@G@_STL@@@2@XZ PROC NEAR ; _STL::set<unsigned short,_STL::less<unsigned short>,_STL::allocator<unsigned short> >::begin, COMDAT
; _this$ = ecx

; 125  :   iterator begin() const { return _M_t.begin(); }

  00000	8b 01		 mov	 eax, DWORD PTR [ecx]
  00002	8b 48 08	 mov	 ecx, DWORD PTR [eax+8]
  00005	8b 44 24 04	 mov	 eax, DWORD PTR ___$ReturnUdt$[esp-4]
  00009	89 08		 mov	 DWORD PTR [eax], ecx
  0000b	c2 04 00	 ret	 4
?begin@?$set@GU?$less@G@_STL@@V?$allocator@G@2@@_STL@@QBE?AU?$_Rb_tree_iterator@GU?$_Const_traits@G@_STL@@@2@XZ ENDP ; _STL::set<unsigned short,_STL::less<unsigned short>,_STL::allocator<unsigned short> >::begin
_TEXT	ENDS
PUBLIC	?end@?$set@GU?$less@G@_STL@@V?$allocator@G@2@@_STL@@QBE?AU?$_Rb_tree_iterator@GU?$_Const_traits@G@_STL@@@2@XZ ; _STL::set<unsigned short,_STL::less<unsigned short>,_STL::allocator<unsigned short> >::end
; Function compile flags: /Ogsy
;	COMDAT ?end@?$set@GU?$less@G@_STL@@V?$allocator@G@2@@_STL@@QBE?AU?$_Rb_tree_iterator@GU?$_Const_traits@G@_STL@@@2@XZ
_TEXT	SEGMENT
___$ReturnUdt$ = 8					; size = 4
?end@?$set@GU?$less@G@_STL@@V?$allocator@G@2@@_STL@@QBE?AU?$_Rb_tree_iterator@GU?$_Const_traits@G@_STL@@@2@XZ PROC NEAR ; _STL::set<unsigned short,_STL::less<unsigned short>,_STL::allocator<unsigned short> >::end, COMDAT
; _this$ = ecx

; 126  :   iterator end() const { return _M_t.end(); }

  00000	8b 09		 mov	 ecx, DWORD PTR [ecx]
  00002	8b 44 24 04	 mov	 eax, DWORD PTR ___$ReturnUdt$[esp-4]
  00006	89 08		 mov	 DWORD PTR [eax], ecx
  00008	c2 04 00	 ret	 4
?end@?$set@GU?$less@G@_STL@@V?$allocator@G@2@@_STL@@QBE?AU?$_Rb_tree_iterator@GU?$_Const_traits@G@_STL@@@2@XZ ENDP ; _STL::set<unsigned short,_STL::less<unsigned short>,_STL::allocator<unsigned short> >::end
_TEXT	ENDS
PUBLIC	?erase@?$_Rb_tree@GGU?$_Identity@G@_STL@@U?$less@G@2@V?$allocator@G@2@@_STL@@QAEXU?$_Rb_tree_iterator@GU?$_Nonconst_traits@G@_STL@@@2@@Z ; _STL::_Rb_tree<unsigned short,unsigned short,_STL::_Identity<unsigned short>,_STL::less<unsigned short>,_STL::allocator<unsigned short> >::erase
EXTRN	?_Rebalance_for_erase@?$_Rb_global@_N@_STL@@SAPAU_Rb_tree_node_base@2@PAU32@AAPAU32@11@Z:NEAR ; _STL::_Rb_global<bool>::_Rebalance_for_erase
; Function compile flags: /Ogsy
; File c:\stlport-4.6.1\stlport\stl\_tree.h
;	COMDAT ?erase@?$_Rb_tree@GGU?$_Identity@G@_STL@@U?$less@G@2@V?$allocator@G@2@@_STL@@QAEXU?$_Rb_tree_iterator@GU?$_Nonconst_traits@G@_STL@@@2@@Z
_TEXT	SEGMENT
___position$ = 8					; size = 4
?erase@?$_Rb_tree@GGU?$_Identity@G@_STL@@U?$less@G@2@V?$allocator@G@2@@_STL@@QAEXU?$_Rb_tree_iterator@GU?$_Nonconst_traits@G@_STL@@@2@@Z PROC NEAR ; _STL::_Rb_tree<unsigned short,unsigned short,_STL::_Identity<unsigned short>,_STL::less<unsigned short>,_STL::allocator<unsigned short> >::erase, COMDAT
; _this$ = ecx

; 416  :   void erase(iterator __position) {

  00000	56		 push	 esi
  00001	8b f1		 mov	 esi, ecx

; 417  :     _Link_type __y = 
; 418  :       (_Link_type) _Rb_global_inst::_Rebalance_for_erase(__position._M_node,
; 419  : 							 this->_M_header._M_data->_M_parent,
; 420  : 							 this->_M_header._M_data->_M_left,
; 421  : 							 this->_M_header._M_data->_M_right);

  00003	8b 06		 mov	 eax, DWORD PTR [esi]
  00005	8d 48 0c	 lea	 ecx, DWORD PTR [eax+12]
  00008	51		 push	 ecx
  00009	8d 48 08	 lea	 ecx, DWORD PTR [eax+8]
  0000c	51		 push	 ecx
  0000d	83 c0 04	 add	 eax, 4
  00010	50		 push	 eax
  00011	ff 74 24 14	 push	 DWORD PTR ___position$[esp+12]
  00015	e8 00 00 00 00	 call	 ?_Rebalance_for_erase@?$_Rb_global@_N@_STL@@SAPAU_Rb_tree_node_base@2@PAU32@AAPAU32@11@Z ; _STL::_Rb_global<bool>::_Rebalance_for_erase
  0001a	83 c4 10	 add	 esp, 16			; 00000010H

; 422  :     _STLP_STD::_Destroy(&__y->_M_value_field);
; 423  :     this->_M_header.deallocate(__y,1);

  0001d	6a 01		 push	 1
  0001f	50		 push	 eax
  00020	8b ce		 mov	 ecx, esi
  00022	e8 00 00 00 00	 call	 ?deallocate@?$allocator@U?$_Rb_tree_node@G@_STL@@@_STL@@QAEXPAU?$_Rb_tree_node@G@2@I@Z ; _STL::allocator<_STL::_Rb_tree_node<unsigned short> >::deallocate

; 424  :     --_M_node_count;

  00027	ff 4e 04	 dec	 DWORD PTR [esi+4]
  0002a	5e		 pop	 esi

; 425  :   }

  0002b	c2 04 00	 ret	 4
?erase@?$_Rb_tree@GGU?$_Identity@G@_STL@@U?$less@G@2@V?$allocator@G@2@@_STL@@QAEXU?$_Rb_tree_iterator@GU?$_Nonconst_traits@G@_STL@@@2@@Z ENDP ; _STL::_Rb_tree<unsigned short,unsigned short,_STL::_Identity<unsigned short>,_STL::less<unsigned short>,_STL::allocator<unsigned short> >::erase
_TEXT	ENDS
PUBLIC	?clear@?$_Rb_tree@GGU?$_Identity@G@_STL@@U?$less@G@2@V?$allocator@G@2@@_STL@@QAEXXZ ; _STL::_Rb_tree<unsigned short,unsigned short,_STL::_Identity<unsigned short>,_STL::less<unsigned short>,_STL::allocator<unsigned short> >::clear
; Function compile flags: /Ogsy
;	COMDAT ?clear@?$_Rb_tree@GGU?$_Identity@G@_STL@@U?$less@G@2@V?$allocator@G@2@@_STL@@QAEXXZ
_TEXT	SEGMENT
?clear@?$_Rb_tree@GGU?$_Identity@G@_STL@@U?$less@G@2@V?$allocator@G@2@@_STL@@QAEXXZ PROC NEAR ; _STL::_Rb_tree<unsigned short,unsigned short,_STL::_Identity<unsigned short>,_STL::less<unsigned short>,_STL::allocator<unsigned short> >::clear, COMDAT
; _this$ = ecx

; 445  :   void clear() {

  00000	56		 push	 esi
  00001	8b f1		 mov	 esi, ecx

; 446  :     if (_M_node_count != 0) {

  00003	83 7e 04 00	 cmp	 DWORD PTR [esi+4], 0
  00007	74 1e		 je	 SHORT $L101589

; 447  :       _M_erase(_M_root());

  00009	8b 06		 mov	 eax, DWORD PTR [esi]
  0000b	ff 70 04	 push	 DWORD PTR [eax+4]
  0000e	e8 00 00 00 00	 call	 ?_M_erase@?$_Rb_tree@GGU?$_Identity@G@_STL@@U?$less@G@2@V?$allocator@G@2@@_STL@@AAEXPAU?$_Rb_tree_node@G@2@@Z ; _STL::_Rb_tree<unsigned short,unsigned short,_STL::_Identity<unsigned short>,_STL::less<unsigned short>,_STL::allocator<unsigned short> >::_M_erase

; 448  :       _M_leftmost() = this->_M_header._M_data;

  00013	8b 06		 mov	 eax, DWORD PTR [esi]
  00015	89 40 08	 mov	 DWORD PTR [eax+8], eax

; 449  :       _M_root() = 0;

  00018	8b 06		 mov	 eax, DWORD PTR [esi]
  0001a	83 60 04 00	 and	 DWORD PTR [eax+4], 0

; 450  :       _M_rightmost() = this->_M_header._M_data;

  0001e	8b 06		 mov	 eax, DWORD PTR [esi]
  00020	89 40 0c	 mov	 DWORD PTR [eax+12], eax

; 451  :       _M_node_count = 0;

  00023	83 66 04 00	 and	 DWORD PTR [esi+4], 0
$L101589:
  00027	5e		 pop	 esi

; 452  :     }
; 453  :   }      

  00028	c3		 ret	 0
?clear@?$_Rb_tree@GGU?$_Identity@G@_STL@@U?$less@G@2@V?$allocator@G@2@@_STL@@QAEXXZ ENDP ; _STL::_Rb_tree<unsigned short,unsigned short,_STL::_Identity<unsigned short>,_STL::less<unsigned short>,_STL::allocator<unsigned short> >::clear
_TEXT	ENDS
PUBLIC	??1?$_Rb_tree_base@GV?$allocator@G@_STL@@@_STL@@QAE@XZ ; _STL::_Rb_tree_base<unsigned short,_STL::allocator<unsigned short> >::~_Rb_tree_base<unsigned short,_STL::allocator<unsigned short> >
; Function compile flags: /Ogsy
;	COMDAT ??1?$_Rb_tree_base@GV?$allocator@G@_STL@@@_STL@@QAE@XZ
_TEXT	SEGMENT
??1?$_Rb_tree_base@GV?$allocator@G@_STL@@@_STL@@QAE@XZ PROC NEAR ; _STL::_Rb_tree_base<unsigned short,_STL::allocator<unsigned short> >::~_Rb_tree_base<unsigned short,_STL::allocator<unsigned short> >, COMDAT
; _this$ = ecx

; 208  :     _M_header.deallocate(_M_header._M_data,1); 

  00000	6a 01		 push	 1
  00002	ff 31		 push	 DWORD PTR [ecx]
  00004	e8 00 00 00 00	 call	 ?deallocate@?$allocator@U?$_Rb_tree_node@G@_STL@@@_STL@@QAEXPAU?$_Rb_tree_node@G@2@I@Z ; _STL::allocator<_STL::_Rb_tree_node<unsigned short> >::deallocate

; 209  :   }

  00009	c3		 ret	 0
??1?$_Rb_tree_base@GV?$allocator@G@_STL@@@_STL@@QAE@XZ ENDP ; _STL::_Rb_tree_base<unsigned short,_STL::allocator<unsigned short> >::~_Rb_tree_base<unsigned short,_STL::allocator<unsigned short> >
_TEXT	ENDS
PUBLIC	??0?$_Rb_tree_base@GV?$allocator@G@_STL@@@_STL@@QAE@ABV?$allocator@G@1@@Z ; _STL::_Rb_tree_base<unsigned short,_STL::allocator<unsigned short> >::_Rb_tree_base<unsigned short,_STL::allocator<unsigned short> >
; Function compile flags: /Ogsy
;	COMDAT ??0?$_Rb_tree_base@GV?$allocator@G@_STL@@@_STL@@QAE@ABV?$allocator@G@1@@Z
_TEXT	SEGMENT
$T103076 = -1						; size = 1
___a$ = 8						; size = 4
??0?$_Rb_tree_base@GV?$allocator@G@_STL@@@_STL@@QAE@ABV?$allocator@G@1@@Z PROC NEAR ; _STL::_Rb_tree_base<unsigned short,_STL::allocator<unsigned short> >::_Rb_tree_base<unsigned short,_STL::allocator<unsigned short> >, COMDAT
; _this$ = ecx

; 204  :     _M_header(_STLP_CONVERT_ALLOCATOR(__a, _Node), (_Node*)0) { 

  00000	51		 push	 ecx
  00001	56		 push	 esi
  00002	6a 00		 push	 0
  00004	8d 44 24 0b	 lea	 eax, DWORD PTR $T103076[esp+12]
  00008	50		 push	 eax
  00009	8b f1		 mov	 esi, ecx
  0000b	e8 00 00 00 00	 call	 ??0?$_STLP_alloc_proxy@PAU?$_Rb_tree_node@G@_STL@@U12@V?$allocator@U?$_Rb_tree_node@G@_STL@@@2@@_STL@@QAE@ABV?$allocator@U?$_Rb_tree_node@G@_STL@@@1@PAU?$_Rb_tree_node@G@1@@Z ; _STL::_STLP_alloc_proxy<_STL::_Rb_tree_node<unsigned short> *,_STL::_Rb_tree_node<unsigned short>,_STL::allocator<_STL::_Rb_tree_node<unsigned short> > >::_STLP_alloc_proxy<_STL::_Rb_tree_node<unsigned short> *,_STL::_Rb_tree_node<unsigned short>,_STL::allocator<_STL::_Rb_tree_node<unsigned short> > >

; 205  :       _M_header._M_data = _M_header.allocate(1); 

  00010	6a 14		 push	 20			; 00000014H
  00012	e8 00 00 00 00	 call	 ?allocate@?$__node_alloc@$00$0A@@_STL@@SAPAXI@Z ; _STL::__node_alloc<1,0>::allocate
  00017	89 06		 mov	 DWORD PTR [esi], eax
  00019	59		 pop	 ecx

; 206  :   }

  0001a	8b c6		 mov	 eax, esi
  0001c	5e		 pop	 esi
  0001d	59		 pop	 ecx
  0001e	c2 04 00	 ret	 4
??0?$_Rb_tree_base@GV?$allocator@G@_STL@@@_STL@@QAE@ABV?$allocator@G@1@@Z ENDP ; _STL::_Rb_tree_base<unsigned short,_STL::allocator<unsigned short> >::_Rb_tree_base<unsigned short,_STL::allocator<unsigned short> >
_TEXT	ENDS
PUBLIC	?_M_insert@?$_Rb_tree@GGU?$_Identity@G@_STL@@U?$less@G@2@V?$allocator@G@2@@_STL@@AAE?AU?$_Rb_tree_iterator@GU?$_Nonconst_traits@G@_STL@@@2@PAU_Rb_tree_node_base@2@0ABG0@Z ; _STL::_Rb_tree<unsigned short,unsigned short,_STL::_Identity<unsigned short>,_STL::less<unsigned short>,_STL::allocator<unsigned short> >::_M_insert
EXTRN	?_Rebalance@?$_Rb_global@_N@_STL@@SAXPAU_Rb_tree_node_base@2@AAPAU32@@Z:NEAR ; _STL::_Rb_global<bool>::_Rebalance
; Function compile flags: /Ogsy
; File c:\stlport-4.6.1\stlport\stl\_tree.c
;	COMDAT ?_M_insert@?$_Rb_tree@GGU?$_Identity@G@_STL@@U?$less@G@2@V?$allocator@G@2@@_STL@@AAE?AU?$_Rb_tree_iterator@GU?$_Nonconst_traits@G@_STL@@@2@PAU_Rb_tree_node_base@2@0ABG0@Z
_TEXT	SEGMENT
___$ReturnUdt$ = 8					; size = 4
___x_$ = 12						; size = 4
___y_$ = 16						; size = 4
___v$ = 20						; size = 4
___w_$ = 24						; size = 4
?_M_insert@?$_Rb_tree@GGU?$_Identity@G@_STL@@U?$less@G@2@V?$allocator@G@2@@_STL@@AAE?AU?$_Rb_tree_iterator@GU?$_Nonconst_traits@G@_STL@@@2@PAU_Rb_tree_node_base@2@0ABG0@Z PROC NEAR ; _STL::_Rb_tree<unsigned short,unsigned short,_STL::_Identity<unsigned short>,_STL::less<unsigned short>,_STL::allocator<unsigned short> >::_M_insert, COMDAT
; _this$ = ecx

; 347  : {

  00000	55		 push	 ebp
  00001	8b ec		 mov	 ebp, esp

; 348  :   _Link_type __w = (_Link_type) __w_;
; 349  :   _Link_type __x = (_Link_type) __x_;
; 350  :   _Link_type __y = (_Link_type) __y_;
; 351  :   _Link_type __z;
; 352  : 
; 353  :   if ( __y == this->_M_header._M_data ||
; 354  :        ( __w == 0 && // If w != 0, the remainder fails to false
; 355  :          ( __x != 0 ||     // If x != 0, the remainder succeeds to true
; 356  :            _M_key_compare( _KeyOfValue()(__v), _S_key(__y) ) )
; 357  : 	 )
; 358  :        ) {

  00003	8b 45 14	 mov	 eax, DWORD PTR ___v$[ebp]
  00006	53		 push	 ebx
  00007	8b 5d 10	 mov	 ebx, DWORD PTR ___y_$[ebp]
  0000a	56		 push	 esi
  0000b	57		 push	 edi
  0000c	8b f9		 mov	 edi, ecx
  0000e	3b 1f		 cmp	 ebx, DWORD PTR [edi]
  00010	74 2e		 je	 SHORT $L102031
  00012	83 7d 18 00	 cmp	 DWORD PTR ___w_$[ebp], 0
  00016	75 0f		 jne	 SHORT $L102029
  00018	83 7d 0c 00	 cmp	 DWORD PTR ___x_$[ebp], 0
  0001c	75 22		 jne	 SHORT $L102031
  0001e	66 8b 08	 mov	 cx, WORD PTR [eax]
  00021	66 3b 4b 10	 cmp	 cx, WORD PTR [ebx+16]
  00025	72 19		 jb	 SHORT $L102031
$L102029:

; 369  :   }
; 370  :   else {
; 371  :     __z = _M_create_node(__v);

  00027	50		 push	 eax
  00028	8b cf		 mov	 ecx, edi
  0002a	e8 00 00 00 00	 call	 ?_M_create_node@?$_Rb_tree@GGU?$_Identity@G@_STL@@U?$less@G@2@V?$allocator@G@2@@_STL@@IAEPAU?$_Rb_tree_node@G@2@ABG@Z ; _STL::_Rb_tree<unsigned short,unsigned short,_STL::_Identity<unsigned short>,_STL::less<unsigned short>,_STL::allocator<unsigned short> >::_M_create_node
  0002f	8b f0		 mov	 esi, eax

; 372  :     _S_right(__y) = __z;

  00031	89 73 0c	 mov	 DWORD PTR [ebx+12], esi

; 373  :     if (__y == _M_rightmost())

  00034	8b 07		 mov	 eax, DWORD PTR [edi]
  00036	3b 58 0c	 cmp	 ebx, DWORD PTR [eax+12]
  00039	75 27		 jne	 SHORT $L102034
$L103148:

; 374  :       _M_rightmost() = __z;  // maintain _M_rightmost() pointing to max node

  0003b	89 70 0c	 mov	 DWORD PTR [eax+12], esi
  0003e	eb 22		 jmp	 SHORT $L102034
$L102031:

; 359  :     
; 360  :     __z = _M_create_node(__v);

  00040	50		 push	 eax
  00041	8b cf		 mov	 ecx, edi
  00043	e8 00 00 00 00	 call	 ?_M_create_node@?$_Rb_tree@GGU?$_Identity@G@_STL@@U?$less@G@2@V?$allocator@G@2@@_STL@@IAEPAU?$_Rb_tree_node@G@2@ABG@Z ; _STL::_Rb_tree<unsigned short,unsigned short,_STL::_Identity<unsigned short>,_STL::less<unsigned short>,_STL::allocator<unsigned short> >::_M_create_node
  00048	8b f0		 mov	 esi, eax

; 361  :     _S_left(__y) = __z;               // also makes _M_leftmost() = __z 

  0004a	89 73 08	 mov	 DWORD PTR [ebx+8], esi

; 362  :                                       //    when __y == _M_header
; 363  :     if (__y == this->_M_header._M_data) {

  0004d	8b 07		 mov	 eax, DWORD PTR [edi]
  0004f	3b d8		 cmp	 ebx, eax
  00051	75 07		 jne	 SHORT $L102032

; 364  :       _M_root() = __z;

  00053	89 70 04	 mov	 DWORD PTR [eax+4], esi

; 365  :       _M_rightmost() = __z;

  00056	8b 07		 mov	 eax, DWORD PTR [edi]

; 366  :     }
; 367  :     else if (__y == _M_leftmost())

  00058	eb e1		 jmp	 SHORT $L103148
$L102032:
  0005a	3b 58 08	 cmp	 ebx, DWORD PTR [eax+8]
  0005d	75 03		 jne	 SHORT $L102034

; 368  :       _M_leftmost() = __z;   // maintain _M_leftmost() pointing to min node

  0005f	89 70 08	 mov	 DWORD PTR [eax+8], esi
$L102034:

; 375  :   }
; 376  :   _S_parent(__z) = __y;
; 377  :   _S_left(__z) = 0;

  00062	83 66 08 00	 and	 DWORD PTR [esi+8], 0

; 378  :   _S_right(__z) = 0;

  00066	83 66 0c 00	 and	 DWORD PTR [esi+12], 0
  0006a	89 5e 04	 mov	 DWORD PTR [esi+4], ebx

; 379  :   _Rb_global_inst::_Rebalance(__z, this->_M_header._M_data->_M_parent);

  0006d	8b 07		 mov	 eax, DWORD PTR [edi]
  0006f	83 c0 04	 add	 eax, 4
  00072	50		 push	 eax
  00073	56		 push	 esi
  00074	e8 00 00 00 00	 call	 ?_Rebalance@?$_Rb_global@_N@_STL@@SAXPAU_Rb_tree_node_base@2@AAPAU32@@Z ; _STL::_Rb_global<bool>::_Rebalance

; 380  :   ++_M_node_count;

  00079	ff 47 04	 inc	 DWORD PTR [edi+4]

; 381  :   return iterator(__z);

  0007c	8b 45 08	 mov	 eax, DWORD PTR ___$ReturnUdt$[ebp]
  0007f	59		 pop	 ecx
  00080	59		 pop	 ecx
  00081	5f		 pop	 edi
  00082	89 30		 mov	 DWORD PTR [eax], esi
  00084	5e		 pop	 esi
  00085	5b		 pop	 ebx

; 382  : }

  00086	5d		 pop	 ebp
  00087	c2 14 00	 ret	 20			; 00000014H
?_M_insert@?$_Rb_tree@GGU?$_Identity@G@_STL@@U?$less@G@2@V?$allocator@G@2@@_STL@@AAE?AU?$_Rb_tree_iterator@GU?$_Nonconst_traits@G@_STL@@@2@PAU_Rb_tree_node_base@2@0ABG0@Z ENDP ; _STL::_Rb_tree<unsigned short,unsigned short,_STL::_Identity<unsigned short>,_STL::less<unsigned short>,_STL::allocator<unsigned short> >::_M_insert
_TEXT	ENDS
PUBLIC	??$find@G@?$_Rb_tree@GGU?$_Identity@G@_STL@@U?$less@G@2@V?$allocator@G@2@@_STL@@QBE?AU?$_Rb_tree_iterator@GU?$_Const_traits@G@_STL@@@1@ABG@Z ; _STL::_Rb_tree<unsigned short,unsigned short,_STL::_Identity<unsigned short>,_STL::less<unsigned short>,_STL::allocator<unsigned short> >::find<unsigned short>
; Function compile flags: /Ogsy
; File c:\stlport-4.6.1\stlport\stl\_tree.h
;	COMDAT ??$find@G@?$_Rb_tree@GGU?$_Identity@G@_STL@@U?$less@G@2@V?$allocator@G@2@@_STL@@QBE?AU?$_Rb_tree_iterator@GU?$_Const_traits@G@_STL@@@1@ABG@Z
_TEXT	SEGMENT
___$ReturnUdt$ = 8					; size = 4
___x$ = 12						; size = 4
??$find@G@?$_Rb_tree@GGU?$_Identity@G@_STL@@U?$less@G@2@V?$allocator@G@2@@_STL@@QBE?AU?$_Rb_tree_iterator@GU?$_Const_traits@G@_STL@@@1@ABG@Z PROC NEAR ; _STL::_Rb_tree<unsigned short,unsigned short,_STL::_Identity<unsigned short>,_STL::less<unsigned short>,_STL::allocator<unsigned short> >::find<unsigned short>, COMDAT
; _this$ = ecx

; 459  :   template <class _KT> const_iterator find(const _KT& __x) const { return const_iterator(_M_find(__x)); }

  00000	ff 74 24 08	 push	 DWORD PTR ___x$[esp-4]
  00004	e8 00 00 00 00	 call	 ??$_M_find@G@?$_Rb_tree@GGU?$_Identity@G@_STL@@U?$less@G@2@V?$allocator@G@2@@_STL@@ABEPAU?$_Rb_tree_node@G@1@ABG@Z ; _STL::_Rb_tree<unsigned short,unsigned short,_STL::_Identity<unsigned short>,_STL::less<unsigned short>,_STL::allocator<unsigned short> >::_M_find<unsigned short>
  00009	8b 4c 24 04	 mov	 ecx, DWORD PTR ___$ReturnUdt$[esp-4]
  0000d	89 01		 mov	 DWORD PTR [ecx], eax
  0000f	8b c1		 mov	 eax, ecx
  00011	c2 08 00	 ret	 8
??$find@G@?$_Rb_tree@GGU?$_Identity@G@_STL@@U?$less@G@2@V?$allocator@G@2@@_STL@@QBE?AU?$_Rb_tree_iterator@GU?$_Const_traits@G@_STL@@@1@ABG@Z ENDP ; _STL::_Rb_tree<unsigned short,unsigned short,_STL::_Identity<unsigned short>,_STL::less<unsigned short>,_STL::allocator<unsigned short> >::find<unsigned short>
_TEXT	ENDS
PUBLIC	??0?$_List_base@V?$basic_string@DV?$char_traits@D@_STL@@V?$allocator@D@2@@_STL@@V?$allocator@V?$basic_string@DV?$char_traits@D@_STL@@V?$allocator@D@2@@_STL@@@2@@_STL@@QAE@ABV?$allocator@V?$basic_string@DV?$char_traits@D@_STL@@V?$allocator@D@2@@_STL@@@1@@Z ; _STL::_List_base<_STL::basic_string<char,_STL::char_traits<char>,_STL::allocator<char> >,_STL::allocator<_STL::basic_string<char,_STL::char_traits<char>,_STL::allocator<char> > > >::_List_base<_STL::basic_string<char,_STL::char_traits<char>,_STL::allocator<char> >,_STL::allocator<_STL::basic_string<char,_STL::char_traits<char>,_STL::allocator<char> > > >
; Function compile flags: /Ogsy
; File c:\stlport-4.6.1\stlport\stl\_list.h
;	COMDAT ??0?$_List_base@V?$basic_string@DV?$char_traits@D@_STL@@V?$allocator@D@2@@_STL@@V?$allocator@V?$basic_string@DV?$char_traits@D@_STL@@V?$allocator@D@2@@_STL@@@2@@_STL@@QAE@ABV?$allocator@V?$basic_string@DV?$char_traits@D@_STL@@V?$allocator@D@2@@_STL@@@1@@Z
_TEXT	SEGMENT
$T103158 = -1						; size = 1
___a$ = 8						; size = 4
??0?$_List_base@V?$basic_string@DV?$char_traits@D@_STL@@V?$allocator@D@2@@_STL@@V?$allocator@V?$basic_string@DV?$char_traits@D@_STL@@V?$allocator@D@2@@_STL@@@2@@_STL@@QAE@ABV?$allocator@V?$basic_string@DV?$char_traits@D@_STL@@V?$allocator@D@2@@_STL@@@1@@Z PROC NEAR ; _STL::_List_base<_STL::basic_string<char,_STL::char_traits<char>,_STL::allocator<char> >,_STL::allocator<_STL::basic_string<char,_STL::char_traits<char>,_STL::allocator<char> > > >::_List_base<_STL::basic_string<char,_STL::char_traits<char>,_STL::allocator<char> >,_STL::allocator<_STL::basic_string<char,_STL::char_traits<char>,_STL::allocator<char> > > >, COMDAT
; _this$ = ecx

; 182  :   _List_base(const allocator_type& __a) : _M_node(_STLP_CONVERT_ALLOCATOR(__a, _Node), (_Node*)0) {

  00000	51		 push	 ecx
  00001	56		 push	 esi
  00002	6a 00		 push	 0
  00004	8d 44 24 0b	 lea	 eax, DWORD PTR $T103158[esp+12]
  00008	50		 push	 eax
  00009	8b f1		 mov	 esi, ecx
  0000b	e8 00 00 00 00	 call	 ??0?$_STLP_alloc_proxy@PAU?$_List_node@V?$basic_string@DV?$char_traits@D@_STL@@V?$allocator@D@2@@_STL@@@_STL@@U12@V?$allocator@U?$_List_node@V?$basic_string@DV?$char_traits@D@_STL@@V?$allocator@D@2@@_STL@@@_STL@@@2@@_STL@@QAE@ABV?$allocator@U?$_List_node@V?$basic_string@DV?$char_traits@D@_STL@@V?$allocator@D@2@@_STL@@@_STL@@@1@PAU?$_List_node@V?$basic_string@DV?$char_traits@D@_STL@@V?$allocator@D@2@@_STL@@@1@@Z ; _STL::_STLP_alloc_proxy<_STL::_List_node<_STL::basic_string<char,_STL::char_traits<char>,_STL::allocator<char> > > *,_STL::_List_node<_STL::basic_string<char,_STL::char_traits<char>,_STL::allocator<char> > >,_STL::allocator<_STL::_List_node<_STL::basic_string<char,_STL::char_traits<char>,_STL::allocator<char> > > > >::_STLP_alloc_proxy<_STL::_List_node<_STL::basic_string<char,_STL::char_traits<char>,_STL::allocator<char> > > *,_STL::_List_node<_STL::basic_string<char,_STL::char_traits<char>,_STL::allocator<char> > >,_STL::allocator<_STL::_List_node<_STL::basic_string<char,_STL::char_traits<char>,_STL::allocator<char> > > > >

; 183  :     _Node* __n = _M_node.allocate(1);

  00010	6a 14		 push	 20			; 00000014H
  00012	e8 00 00 00 00	 call	 ?allocate@?$__node_alloc@$00$0A@@_STL@@SAPAXI@Z ; _STL::__node_alloc<1,0>::allocate

; 184  :     __n->_M_next = __n;

  00017	89 00		 mov	 DWORD PTR [eax], eax

; 185  :     __n->_M_prev = __n;

  00019	89 40 04	 mov	 DWORD PTR [eax+4], eax

; 186  :     _M_node._M_data = __n;

  0001c	89 06		 mov	 DWORD PTR [esi], eax
  0001e	59		 pop	 ecx

; 187  :   }

  0001f	8b c6		 mov	 eax, esi
  00021	5e		 pop	 esi
  00022	59		 pop	 ecx
  00023	c2 04 00	 ret	 4
??0?$_List_base@V?$basic_string@DV?$char_traits@D@_STL@@V?$allocator@D@2@@_STL@@V?$allocator@V?$basic_string@DV?$char_traits@D@_STL@@V?$allocator@D@2@@_STL@@@2@@_STL@@QAE@ABV?$allocator@V?$basic_string@DV?$char_traits@D@_STL@@V?$allocator@D@2@@_STL@@@1@@Z ENDP ; _STL::_List_base<_STL::basic_string<char,_STL::char_traits<char>,_STL::allocator<char> >,_STL::allocator<_STL::basic_string<char,_STL::char_traits<char>,_STL::allocator<char> > > >::_List_base<_STL::basic_string<char,_STL::char_traits<char>,_STL::allocator<char> >,_STL::allocator<_STL::basic_string<char,_STL::char_traits<char>,_STL::allocator<char> > > >
_TEXT	ENDS
PUBLIC	?_M_deallocate_block@?$_String_base@DV?$allocator@D@_STL@@@_STL@@QAEXXZ ; _STL::_String_base<char,_STL::allocator<char> >::_M_deallocate_block
; Function compile flags: /Ogsy
; File c:\stlport-4.6.1\stlport\stl\_string.h
;	COMDAT ?_M_deallocate_block@?$_String_base@DV?$allocator@D@_STL@@@_STL@@QAEXXZ
_TEXT	SEGMENT
?_M_deallocate_block@?$_String_base@DV?$allocator@D@_STL@@@_STL@@QAEXXZ PROC NEAR ; _STL::_String_base<char,_STL::allocator<char> >::_M_deallocate_block, COMDAT
; _this$ = ecx

; 124  :     { _M_end_of_storage.deallocate(_M_start, _M_end_of_storage._M_data - _M_start); }

  00000	8b c1		 mov	 eax, ecx
  00002	8d 48 08	 lea	 ecx, DWORD PTR [eax+8]
  00005	8b 00		 mov	 eax, DWORD PTR [eax]
  00007	8b 11		 mov	 edx, DWORD PTR [ecx]
  00009	2b d0		 sub	 edx, eax
  0000b	52		 push	 edx
  0000c	50		 push	 eax
  0000d	e8 00 00 00 00	 call	 ?deallocate@?$allocator@D@_STL@@QAEXPADI@Z ; _STL::allocator<char>::deallocate
  00012	c3		 ret	 0
?_M_deallocate_block@?$_String_base@DV?$allocator@D@_STL@@@_STL@@QAEXXZ ENDP ; _STL::_String_base<char,_STL::allocator<char> >::_M_deallocate_block
_TEXT	ENDS
PUBLIC	?erase@?$set@GU?$less@G@_STL@@V?$allocator@G@2@@_STL@@QAEXU?$_Rb_tree_iterator@GU?$_Const_traits@G@_STL@@@2@@Z ; _STL::set<unsigned short,_STL::less<unsigned short>,_STL::allocator<unsigned short> >::erase
; Function compile flags: /Ogsy
; File c:\stlport-4.6.1\stlport\stl\_set.h
;	COMDAT ?erase@?$set@GU?$less@G@_STL@@V?$allocator@G@2@@_STL@@QAEXU?$_Rb_tree_iterator@GU?$_Const_traits@G@_STL@@@2@@Z
_TEXT	SEGMENT
___position$ = 8					; size = 4
?erase@?$set@GU?$less@G@_STL@@V?$allocator@G@2@@_STL@@QAEXU?$_Rb_tree_iterator@GU?$_Const_traits@G@_STL@@@2@@Z PROC NEAR ; _STL::set<unsigned short,_STL::less<unsigned short>,_STL::allocator<unsigned short> >::erase, COMDAT
; _this$ = ecx

; 158  :     typedef typename _Rep_type::iterator _Rep_iterator;
; 159  :     _M_t.erase((_Rep_iterator&)__position); 

  00000	8b 54 24 04	 mov	 edx, DWORD PTR ___position$[esp-4]
  00004	51		 push	 ecx
  00005	8b c4		 mov	 eax, esp
  00007	89 10		 mov	 DWORD PTR [eax], edx
  00009	e8 00 00 00 00	 call	 ?erase@?$_Rb_tree@GGU?$_Identity@G@_STL@@U?$less@G@2@V?$allocator@G@2@@_STL@@QAEXU?$_Rb_tree_iterator@GU?$_Nonconst_traits@G@_STL@@@2@@Z ; _STL::_Rb_tree<unsigned short,unsigned short,_STL::_Identity<unsigned short>,_STL::less<unsigned short>,_STL::allocator<unsigned short> >::erase

; 160  :   }

  0000e	c2 04 00	 ret	 4
?erase@?$set@GU?$less@G@_STL@@V?$allocator@G@2@@_STL@@QAEXU?$_Rb_tree_iterator@GU?$_Const_traits@G@_STL@@@2@@Z ENDP ; _STL::set<unsigned short,_STL::less<unsigned short>,_STL::allocator<unsigned short> >::erase
_TEXT	ENDS
PUBLIC	?clear@?$set@GU?$less@G@_STL@@V?$allocator@G@2@@_STL@@QAEXXZ ; _STL::set<unsigned short,_STL::less<unsigned short>,_STL::allocator<unsigned short> >::clear
; Function compile flags: /Ogsy
;	COMDAT ?clear@?$set@GU?$less@G@_STL@@V?$allocator@G@2@@_STL@@QAEXXZ
_TEXT	SEGMENT
?clear@?$set@GU?$less@G@_STL@@V?$allocator@G@2@@_STL@@QAEXXZ PROC NEAR ; _STL::set<unsigned short,_STL::less<unsigned short>,_STL::allocator<unsigned short> >::clear, COMDAT
; _this$ = ecx

; 168  :   void clear() { _M_t.clear(); }

  00000	e9 00 00 00 00	 jmp	 ?clear@?$_Rb_tree@GGU?$_Identity@G@_STL@@U?$less@G@2@V?$allocator@G@2@@_STL@@QAEXXZ ; _STL::_Rb_tree<unsigned short,unsigned short,_STL::_Identity<unsigned short>,_STL::less<unsigned short>,_STL::allocator<unsigned short> >::clear
?clear@?$set@GU?$less@G@_STL@@V?$allocator@G@2@@_STL@@QAEXXZ ENDP ; _STL::set<unsigned short,_STL::less<unsigned short>,_STL::allocator<unsigned short> >::clear
_TEXT	ENDS
PUBLIC	??1?$_Rb_tree@GGU?$_Identity@G@_STL@@U?$less@G@2@V?$allocator@G@2@@_STL@@QAE@XZ ; _STL::_Rb_tree<unsigned short,unsigned short,_STL::_Identity<unsigned short>,_STL::less<unsigned short>,_STL::allocator<unsigned short> >::~_Rb_tree<unsigned short,unsigned short,_STL::_Identity<unsigned short>,_STL::less<unsigned short>,_STL::allocator<unsigned short> >
EXTRN	__EH_prolog:NEAR
EXTRN	__except_list:DWORD
EXTRN	___CxxFrameHandler:NEAR
;	COMDAT xdata$x
; File c:\stlport-4.6.1\stlport\stl\_alloc.h
xdata$x	SEGMENT
$T103207 DD	0ffffffffH
	DD	FLAT:$L103186
$T103203 DD	019930520H
	DD	01H
	DD	FLAT:$T103207
	DD	2 DUP(00H)
	DD	2 DUP(00H)
; Function compile flags: /Ogsy
; File c:\stlport-4.6.1\stlport\stl\_tree.h
xdata$x	ENDS
;	COMDAT ??1?$_Rb_tree@GGU?$_Identity@G@_STL@@U?$less@G@2@V?$allocator@G@2@@_STL@@QAE@XZ
_TEXT	SEGMENT
_this$ = -16						; size = 4
__$EHRec$ = -12						; size = 12
??1?$_Rb_tree@GGU?$_Identity@G@_STL@@U?$less@G@2@V?$allocator@G@2@@_STL@@QAE@XZ PROC NEAR ; _STL::_Rb_tree<unsigned short,unsigned short,_STL::_Identity<unsigned short>,_STL::less<unsigned short>,_STL::allocator<unsigned short> >::~_Rb_tree<unsigned short,unsigned short,_STL::_Identity<unsigned short>,_STL::less<unsigned short>,_STL::allocator<unsigned short> >, COMDAT
; _this$ = ecx

; 341  :   ~_Rb_tree() { clear(); }

  00000	b8 00 00 00 00	 mov	 eax, __ehhandler$??1?$_Rb_tree@GGU?$_Identity@G@_STL@@U?$less@G@2@V?$allocator@G@2@@_STL@@QAE@XZ
  00005	e8 00 00 00 00	 call	 __EH_prolog
  0000a	51		 push	 ecx
  0000b	56		 push	 esi
  0000c	8b f1		 mov	 esi, ecx
  0000e	89 75 f0	 mov	 DWORD PTR _this$[ebp], esi
  00011	83 65 fc 00	 and	 DWORD PTR __$EHRec$[ebp+8], 0
  00015	e8 00 00 00 00	 call	 ?clear@?$_Rb_tree@GGU?$_Identity@G@_STL@@U?$less@G@2@V?$allocator@G@2@@_STL@@QAEXXZ ; _STL::_Rb_tree<unsigned short,unsigned short,_STL::_Identity<unsigned short>,_STL::less<unsigned short>,_STL::allocator<unsigned short> >::clear
  0001a	83 4d fc ff	 or	 DWORD PTR __$EHRec$[ebp+8], -1
  0001e	6a 01		 push	 1
  00020	ff 36		 push	 DWORD PTR [esi]
  00022	8b ce		 mov	 ecx, esi
  00024	e8 00 00 00 00	 call	 ?deallocate@?$allocator@U?$_Rb_tree_node@G@_STL@@@_STL@@QAEXPAU?$_Rb_tree_node@G@2@I@Z ; _STL::allocator<_STL::_Rb_tree_node<unsigned short> >::deallocate
  00029	8b 4d f4	 mov	 ecx, DWORD PTR __$EHRec$[ebp]
  0002c	5e		 pop	 esi
  0002d	64 89 0d 00 00
	00 00		 mov	 DWORD PTR fs:__except_list, ecx
  00034	c9		 leave
  00035	c3		 ret	 0
_TEXT	ENDS
;	COMDAT text$x
text$x	SEGMENT
$L103186:
  00000	8b 4d f0	 mov	 ecx, DWORD PTR _this$[ebp]
  00003	e9 00 00 00 00	 jmp	 ??1?$_Rb_tree_base@GV?$allocator@G@_STL@@@_STL@@QAE@XZ ; _STL::_Rb_tree_base<unsigned short,_STL::allocator<unsigned short> >::~_Rb_tree_base<unsigned short,_STL::allocator<unsigned short> >
__ehhandler$??1?$_Rb_tree@GGU?$_Identity@G@_STL@@U?$less@G@2@V?$allocator@G@2@@_STL@@QAE@XZ:
  00008	b8 00 00 00 00	 mov	 eax, OFFSET FLAT:$T103203
  0000d	e9 00 00 00 00	 jmp	 ___CxxFrameHandler
text$x	ENDS
??1?$_Rb_tree@GGU?$_Identity@G@_STL@@U?$less@G@2@V?$allocator@G@2@@_STL@@QAE@XZ ENDP ; _STL::_Rb_tree<unsigned short,unsigned short,_STL::_Identity<unsigned short>,_STL::less<unsigned short>,_STL::allocator<unsigned short> >::~_Rb_tree<unsigned short,unsigned short,_STL::_Identity<unsigned short>,_STL::less<unsigned short>,_STL::allocator<unsigned short> >
PUBLIC	??0?$_Rb_tree@GGU?$_Identity@G@_STL@@U?$less@G@2@V?$allocator@G@2@@_STL@@QAE@ABU?$less@G@1@ABV?$allocator@G@1@@Z ; _STL::_Rb_tree<unsigned short,unsigned short,_STL::_Identity<unsigned short>,_STL::less<unsigned short>,_STL::allocator<unsigned short> >::_Rb_tree<unsigned short,unsigned short,_STL::_Identity<unsigned short>,_STL::less<unsigned short>,_STL::allocator<unsigned short> >
; Function compile flags: /Ogsy
;	COMDAT ??0?$_Rb_tree@GGU?$_Identity@G@_STL@@U?$less@G@2@V?$allocator@G@2@@_STL@@QAE@ABU?$less@G@1@ABV?$allocator@G@1@@Z
_TEXT	SEGMENT
___comp$ = 8						; size = 4
___a$ = 12						; size = 4
??0?$_Rb_tree@GGU?$_Identity@G@_STL@@U?$less@G@2@V?$allocator@G@2@@_STL@@QAE@ABU?$less@G@1@ABV?$allocator@G@1@@Z PROC NEAR ; _STL::_Rb_tree<unsigned short,unsigned short,_STL::_Identity<unsigned short>,_STL::less<unsigned short>,_STL::allocator<unsigned short> >::_Rb_tree<unsigned short,unsigned short,_STL::_Identity<unsigned short>,_STL::less<unsigned short>,_STL::allocator<unsigned short> >, COMDAT
; _this$ = ecx

; 325  :     { _M_empty_initialize(); }

  00000	56		 push	 esi
  00001	ff 74 24 0c	 push	 DWORD PTR ___a$[esp]
  00005	8b f1		 mov	 esi, ecx
  00007	e8 00 00 00 00	 call	 ??0?$_Rb_tree_base@GV?$allocator@G@_STL@@@_STL@@QAE@ABV?$allocator@G@1@@Z ; _STL::_Rb_tree_base<unsigned short,_STL::allocator<unsigned short> >::_Rb_tree_base<unsigned short,_STL::allocator<unsigned short> >
  0000c	8b 0e		 mov	 ecx, DWORD PTR [esi]
  0000e	33 c0		 xor	 eax, eax
  00010	89 46 04	 mov	 DWORD PTR [esi+4], eax
  00013	88 01		 mov	 BYTE PTR [ecx], al
  00015	8b 0e		 mov	 ecx, DWORD PTR [esi]
  00017	89 41 04	 mov	 DWORD PTR [ecx+4], eax
  0001a	8b 06		 mov	 eax, DWORD PTR [esi]
  0001c	89 40 08	 mov	 DWORD PTR [eax+8], eax
  0001f	8b 06		 mov	 eax, DWORD PTR [esi]
  00021	89 40 0c	 mov	 DWORD PTR [eax+12], eax
  00024	8b c6		 mov	 eax, esi
  00026	5e		 pop	 esi
  00027	c2 08 00	 ret	 8
??0?$_Rb_tree@GGU?$_Identity@G@_STL@@U?$less@G@2@V?$allocator@G@2@@_STL@@QAE@ABU?$less@G@1@ABV?$allocator@G@1@@Z ENDP ; _STL::_Rb_tree<unsigned short,unsigned short,_STL::_Identity<unsigned short>,_STL::less<unsigned short>,_STL::allocator<unsigned short> >::_Rb_tree<unsigned short,unsigned short,_STL::_Identity<unsigned short>,_STL::less<unsigned short>,_STL::allocator<unsigned short> >
_TEXT	ENDS
PUBLIC	?insert_unique@?$_Rb_tree@GGU?$_Identity@G@_STL@@U?$less@G@2@V?$allocator@G@2@@_STL@@QAE?AU?$pair@U?$_Rb_tree_iterator@GU?$_Nonconst_traits@G@_STL@@@_STL@@_N@2@ABG@Z ; _STL::_Rb_tree<unsigned short,unsigned short,_STL::_Identity<unsigned short>,_STL::less<unsigned short>,_STL::allocator<unsigned short> >::insert_unique
; Function compile flags: /Ogsy
; File c:\stlport-4.6.1\stlport\stl\_tree.c
;	COMDAT ?insert_unique@?$_Rb_tree@GGU?$_Identity@G@_STL@@U?$less@G@2@V?$allocator@G@2@@_STL@@QAE?AU?$pair@U?$_Rb_tree_iterator@GU?$_Nonconst_traits@G@_STL@@@_STL@@_N@2@ABG@Z
_TEXT	SEGMENT
___$ReturnUdt$ = 8					; size = 4
$T103249 = 12						; size = 4
___v$ = 12						; size = 4
?insert_unique@?$_Rb_tree@GGU?$_Identity@G@_STL@@U?$less@G@2@V?$allocator@G@2@@_STL@@QAE?AU?$pair@U?$_Rb_tree_iterator@GU?$_Nonconst_traits@G@_STL@@@_STL@@_N@2@ABG@Z PROC NEAR ; _STL::_Rb_tree<unsigned short,unsigned short,_STL::_Identity<unsigned short>,_STL::less<unsigned short>,_STL::allocator<unsigned short> >::insert_unique, COMDAT
; _this$ = ecx

; 401  : {

  00000	55		 push	 ebp
  00001	8b ec		 mov	 ebp, esp
  00003	53		 push	 ebx
  00004	8b d9		 mov	 ebx, ecx

; 402  :   _Link_type __y = this->_M_header._M_data;

  00006	8b 0b		 mov	 ecx, DWORD PTR [ebx]
  00008	56		 push	 esi

; 403  :   _Link_type __x = _M_root();

  00009	8b 71 04	 mov	 esi, DWORD PTR [ecx+4]

; 404  :   bool __comp = true;
; 405  :   while (__x != 0) {

  0000c	85 f6		 test	 esi, esi
  0000e	57		 push	 edi
  0000f	8b f9		 mov	 edi, ecx
  00011	b2 01		 mov	 dl, 1
  00013	74 1f		 je	 SHORT $L103353
  00015	8b 45 0c	 mov	 eax, DWORD PTR ___v$[ebp]
  00018	66 8b 00	 mov	 ax, WORD PTR [eax]
$L101812:

; 406  :     __y = __x;
; 407  :     __comp = _M_key_compare(_KeyOfValue()(__v), _S_key(__x));

  0001b	66 3b 46 10	 cmp	 ax, WORD PTR [esi+16]
  0001f	8b fe		 mov	 edi, esi
  00021	0f 92 c2	 setb	 dl

; 408  :     __x = __comp ? _S_left(__x) : _S_right(__x);

  00024	84 d2		 test	 dl, dl
  00026	74 05		 je	 SHORT $L103242
  00028	8b 76 08	 mov	 esi, DWORD PTR [esi+8]
  0002b	eb 03		 jmp	 SHORT $L103243
$L103242:
  0002d	8b 76 0c	 mov	 esi, DWORD PTR [esi+12]
$L103243:

; 404  :   bool __comp = true;
; 405  :   while (__x != 0) {

  00030	85 f6		 test	 esi, esi
  00032	75 e7		 jne	 SHORT $L101812
$L103353:

; 409  :   }
; 410  :   iterator __j = iterator(__y);   
; 411  :   if (__comp)

  00034	84 d2		 test	 dl, dl
  00036	8b c7		 mov	 eax, edi
  00038	74 15		 je	 SHORT $L103354

; 412  :     if (__j == begin())     

  0003a	3b 79 08	 cmp	 edi, DWORD PTR [ecx+8]
  0003d	75 09		 jne	 SHORT $L101841

; 413  :       return pair<iterator,bool>(_M_insert(/* __x*/ __y, __y, __v), true);

  0003f	6a 00		 push	 0
  00041	ff 75 0c	 push	 DWORD PTR ___v$[ebp]
  00044	57		 push	 edi
  00045	57		 push	 edi
  00046	eb 18		 jmp	 SHORT $L103355
$L101841:

; 414  :     else
; 415  :       --__j;

  00048	57		 push	 edi
  00049	e8 00 00 00 00	 call	 ?_M_decrement@?$_Rb_global@_N@_STL@@SAPAU_Rb_tree_node_base@2@PAU32@@Z ; _STL::_Rb_global<bool>::_M_decrement
  0004e	59		 pop	 ecx
$L103354:

; 416  :   if (_M_key_compare(_S_key(__j._M_node), _KeyOfValue()(__v)))

  0004f	66 8b 50 10	 mov	 dx, WORD PTR [eax+16]
  00053	8b 4d 0c	 mov	 ecx, DWORD PTR ___v$[ebp]
  00056	66 3b 11	 cmp	 dx, WORD PTR [ecx]
  00059	73 1d		 jae	 SHORT $L101847

; 417  :     return pair<iterator,bool>(_M_insert(__x, __y, __v), true);

  0005b	6a 00		 push	 0
  0005d	51		 push	 ecx
  0005e	57		 push	 edi
  0005f	56		 push	 esi
$L103355:
  00060	8d 45 0c	 lea	 eax, DWORD PTR $T103249[ebp]
  00063	50		 push	 eax
  00064	8b cb		 mov	 ecx, ebx
  00066	e8 00 00 00 00	 call	 ?_M_insert@?$_Rb_tree@GGU?$_Identity@G@_STL@@U?$less@G@2@V?$allocator@G@2@@_STL@@AAE?AU?$_Rb_tree_iterator@GU?$_Nonconst_traits@G@_STL@@@2@PAU_Rb_tree_node_base@2@0ABG0@Z ; _STL::_Rb_tree<unsigned short,unsigned short,_STL::_Identity<unsigned short>,_STL::less<unsigned short>,_STL::allocator<unsigned short> >::_M_insert
  0006b	8b 08		 mov	 ecx, DWORD PTR [eax]
  0006d	8b 45 08	 mov	 eax, DWORD PTR ___$ReturnUdt$[ebp]
  00070	89 08		 mov	 DWORD PTR [eax], ecx
  00072	c6 40 04 01	 mov	 BYTE PTR [eax+4], 1
  00076	eb 0b		 jmp	 SHORT $L101807
$L101847:

; 418  :   return pair<iterator,bool>(__j, false);

  00078	8b 4d 08	 mov	 ecx, DWORD PTR ___$ReturnUdt$[ebp]
  0007b	89 01		 mov	 DWORD PTR [ecx], eax
  0007d	c6 41 04 00	 mov	 BYTE PTR [ecx+4], 0
  00081	8b c1		 mov	 eax, ecx
$L101807:
  00083	5f		 pop	 edi
  00084	5e		 pop	 esi
  00085	5b		 pop	 ebx

; 419  : }

  00086	5d		 pop	 ebp
  00087	c2 08 00	 ret	 8
?insert_unique@?$_Rb_tree@GGU?$_Identity@G@_STL@@U?$less@G@2@V?$allocator@G@2@@_STL@@QAE?AU?$pair@U?$_Rb_tree_iterator@GU?$_Nonconst_traits@G@_STL@@@_STL@@_N@2@ABG@Z ENDP ; _STL::_Rb_tree<unsigned short,unsigned short,_STL::_Identity<unsigned short>,_STL::less<unsigned short>,_STL::allocator<unsigned short> >::insert_unique
_TEXT	ENDS
PUBLIC	??$find@G@?$set@GU?$less@G@_STL@@V?$allocator@G@2@@_STL@@QBE?AU?$_Rb_tree_iterator@GU?$_Const_traits@G@_STL@@@1@ABG@Z ; _STL::set<unsigned short,_STL::less<unsigned short>,_STL::allocator<unsigned short> >::find<unsigned short>
; Function compile flags: /Ogsy
; File c:\stlport-4.6.1\stlport\stl\_set.h
;	COMDAT ??$find@G@?$set@GU?$less@G@_STL@@V?$allocator@G@2@@_STL@@QBE?AU?$_Rb_tree_iterator@GU?$_Const_traits@G@_STL@@@1@ABG@Z
_TEXT	SEGMENT
___$ReturnUdt$ = 8					; size = 4
___x$ = 12						; size = 4
??$find@G@?$set@GU?$less@G@_STL@@V?$allocator@G@2@@_STL@@QBE?AU?$_Rb_tree_iterator@GU?$_Const_traits@G@_STL@@@1@ABG@Z PROC NEAR ; _STL::set<unsigned short,_STL::less<unsigned short>,_STL::allocator<unsigned short> >::find<unsigned short>, COMDAT
; _this$ = ecx

; 173  :   iterator find(const _KT& __x) const { return _M_t.find(__x); }

  00000	ff 74 24 08	 push	 DWORD PTR ___x$[esp-4]
  00004	e8 00 00 00 00	 call	 ??$_M_find@G@?$_Rb_tree@GGU?$_Identity@G@_STL@@U?$less@G@2@V?$allocator@G@2@@_STL@@ABEPAU?$_Rb_tree_node@G@1@ABG@Z ; _STL::_Rb_tree<unsigned short,unsigned short,_STL::_Identity<unsigned short>,_STL::less<unsigned short>,_STL::allocator<unsigned short> >::_M_find<unsigned short>
  00009	8b 4c 24 04	 mov	 ecx, DWORD PTR ___$ReturnUdt$[esp-4]
  0000d	89 01		 mov	 DWORD PTR [ecx], eax
  0000f	8b c1		 mov	 eax, ecx
  00011	c2 08 00	 ret	 8
??$find@G@?$set@GU?$less@G@_STL@@V?$allocator@G@2@@_STL@@QBE?AU?$_Rb_tree_iterator@GU?$_Const_traits@G@_STL@@@1@ABG@Z ENDP ; _STL::set<unsigned short,_STL::less<unsigned short>,_STL::allocator<unsigned short> >::find<unsigned short>
_TEXT	ENDS
PUBLIC	??1?$_String_base@DV?$allocator@D@_STL@@@_STL@@QAE@XZ ; _STL::_String_base<char,_STL::allocator<char> >::~_String_base<char,_STL::allocator<char> >
; Function compile flags: /Ogsy
; File c:\stlport-4.6.1\stlport\stl\_string.h
;	COMDAT ??1?$_String_base@DV?$allocator@D@_STL@@@_STL@@QAE@XZ
_TEXT	SEGMENT
??1?$_String_base@DV?$allocator@D@_STL@@@_STL@@QAE@XZ PROC NEAR ; _STL::_String_base<char,_STL::allocator<char> >::~_String_base<char,_STL::allocator<char> >, COMDAT
; _this$ = ecx

; 135  :   ~_String_base() { _M_deallocate_block(); }

  00000	e9 00 00 00 00	 jmp	 ?_M_deallocate_block@?$_String_base@DV?$allocator@D@_STL@@@_STL@@QAEXXZ ; _STL::_String_base<char,_STL::allocator<char> >::_M_deallocate_block
??1?$_String_base@DV?$allocator@D@_STL@@@_STL@@QAE@XZ ENDP ; _STL::_String_base<char,_STL::allocator<char> >::~_String_base<char,_STL::allocator<char> >
_TEXT	ENDS
PUBLIC	??0?$basic_string@DV?$char_traits@D@_STL@@V?$allocator@D@2@@_STL@@QAE@XZ ; _STL::basic_string<char,_STL::char_traits<char>,_STL::allocator<char> >::basic_string<char,_STL::char_traits<char>,_STL::allocator<char> >
;	COMDAT xdata$x
xdata$x	SEGMENT
$T103419 DD	0ffffffffH
	DD	FLAT:$L103374
$T103417 DD	019930520H
	DD	01H
	DD	FLAT:$T103419
	DD	2 DUP(00H)
	DD	2 DUP(00H)
; Function compile flags: /Ogsy
; File c:\stlport-4.6.1\stlport\stl\_string.c
xdata$x	ENDS
;	COMDAT ??0?$basic_string@DV?$char_traits@D@_STL@@V?$allocator@D@2@@_STL@@QAE@XZ
_TEXT	SEGMENT
_this$ = -20						; size = 4
$T103373 = -13						; size = 1
__$EHRec$ = -12						; size = 12
??0?$basic_string@DV?$char_traits@D@_STL@@V?$allocator@D@2@@_STL@@QAE@XZ PROC NEAR ; _STL::basic_string<char,_STL::char_traits<char>,_STL::allocator<char> >::basic_string<char,_STL::char_traits<char>,_STL::allocator<char> >, COMDAT
; _this$ = ecx

; 541  :   : _String_base<_CharT,_Alloc>(allocator_type()) {  

  00000	b8 00 00 00 00	 mov	 eax, __ehhandler$??0?$basic_string@DV?$char_traits@D@_STL@@V?$allocator@D@2@@_STL@@QAE@XZ
  00005	e8 00 00 00 00	 call	 __EH_prolog
  0000a	51		 push	 ecx
  0000b	51		 push	 ecx
  0000c	56		 push	 esi
  0000d	8d 45 f3	 lea	 eax, DWORD PTR $T103373[ebp]
  00010	8b f1		 mov	 esi, ecx
  00012	50		 push	 eax
  00013	89 75 ec	 mov	 DWORD PTR _this$[ebp], esi
  00016	e8 00 00 00 00	 call	 ??0?$_String_base@DV?$allocator@D@_STL@@@_STL@@QAE@ABV?$allocator@D@1@@Z ; _STL::_String_base<char,_STL::allocator<char> >::_String_base<char,_STL::allocator<char> >
  0001b	83 65 fc 00	 and	 DWORD PTR __$EHRec$[ebp+8], 0

; 542  :   this->_M_start = this->_M_end_of_storage.allocate(8); 

  0001f	6a 08		 push	 8
  00021	e8 00 00 00 00	 call	 ?_M_allocate@?$__node_alloc@$00$0A@@_STL@@CAPAXI@Z ; _STL::__node_alloc<1,0>::_M_allocate
  00026	59		 pop	 ecx

; 543  :   this->_M_finish = this->_M_start; 
; 544  :   this->_M_end_of_storage._M_data = this->_M_start + 8; 

  00027	8d 48 08	 lea	 ecx, DWORD PTR [eax+8]
  0002a	89 06		 mov	 DWORD PTR [esi], eax
  0002c	89 46 04	 mov	 DWORD PTR [esi+4], eax
  0002f	89 4e 08	 mov	 DWORD PTR [esi+8], ecx

; 545  :   _M_terminate_string();  
; 546  : } 

  00032	8b 4d f4	 mov	 ecx, DWORD PTR __$EHRec$[ebp]
  00035	c6 00 00	 mov	 BYTE PTR [eax], 0
  00038	8b c6		 mov	 eax, esi
  0003a	5e		 pop	 esi
  0003b	64 89 0d 00 00
	00 00		 mov	 DWORD PTR fs:__except_list, ecx
  00042	c9		 leave
  00043	c3		 ret	 0
_TEXT	ENDS
;	COMDAT text$x
text$x	SEGMENT
$L103374:
  00000	8b 4d ec	 mov	 ecx, DWORD PTR _this$[ebp]
  00003	e9 00 00 00 00	 jmp	 ??1?$_String_base@DV?$allocator@D@_STL@@@_STL@@QAE@XZ ; _STL::_String_base<char,_STL::allocator<char> >::~_String_base<char,_STL::allocator<char> >
__ehhandler$??0?$basic_string@DV?$char_traits@D@_STL@@V?$allocator@D@2@@_STL@@QAE@XZ:
  00008	b8 00 00 00 00	 mov	 eax, OFFSET FLAT:$T103417
  0000d	e9 00 00 00 00	 jmp	 ___CxxFrameHandler
text$x	ENDS
??0?$basic_string@DV?$char_traits@D@_STL@@V?$allocator@D@2@@_STL@@QAE@XZ ENDP ; _STL::basic_string<char,_STL::char_traits<char>,_STL::allocator<char> >::basic_string<char,_STL::char_traits<char>,_STL::allocator<char> >
PUBLIC	??1?$set@GU?$less@G@_STL@@V?$allocator@G@2@@_STL@@QAE@XZ ; _STL::set<unsigned short,_STL::less<unsigned short>,_STL::allocator<unsigned short> >::~set<unsigned short,_STL::less<unsigned short>,_STL::allocator<unsigned short> >
; Function compile flags: /Ogsy
;	COMDAT ??1?$set@GU?$less@G@_STL@@V?$allocator@G@2@@_STL@@QAE@XZ
_TEXT	SEGMENT
??1?$set@GU?$less@G@_STL@@V?$allocator@G@2@@_STL@@QAE@XZ PROC NEAR ; _STL::set<unsigned short,_STL::less<unsigned short>,_STL::allocator<unsigned short> >::~set<unsigned short,_STL::less<unsigned short>,_STL::allocator<unsigned short> >, COMDAT
; _this$ = ecx
  00000	e9 00 00 00 00	 jmp	 ??1?$_Rb_tree@GGU?$_Identity@G@_STL@@U?$less@G@2@V?$allocator@G@2@@_STL@@QAE@XZ ; _STL::_Rb_tree<unsigned short,unsigned short,_STL::_Identity<unsigned short>,_STL::less<unsigned short>,_STL::allocator<unsigned short> >::~_Rb_tree<unsigned short,unsigned short,_STL::_Identity<unsigned short>,_STL::less<unsigned short>,_STL::allocator<unsigned short> >
??1?$set@GU?$less@G@_STL@@V?$allocator@G@2@@_STL@@QAE@XZ ENDP ; _STL::set<unsigned short,_STL::less<unsigned short>,_STL::allocator<unsigned short> >::~set<unsigned short,_STL::less<unsigned short>,_STL::allocator<unsigned short> >
_TEXT	ENDS
PUBLIC	??1PacketIDSet@@QAE@XZ				; PacketIDSet::~PacketIDSet
; Function compile flags: /Ogsy
; File c:\darkeden\designed_common\project\client\packet\packetidset.cpp
;	COMDAT ??1PacketIDSet@@QAE@XZ
_TEXT	SEGMENT
??1PacketIDSet@@QAE@XZ PROC NEAR			; PacketIDSet::~PacketIDSet, COMDAT
; _this$ = ecx

; 28   : {

  00000	56		 push	 esi

; 29   : 	m_PacketIDSet.clear();

  00001	8d 71 08	 lea	 esi, DWORD PTR [ecx+8]
  00004	8b ce		 mov	 ecx, esi
  00006	e8 00 00 00 00	 call	 ?clear@?$_Rb_tree@GGU?$_Identity@G@_STL@@U?$less@G@2@V?$allocator@G@2@@_STL@@QAEXXZ ; _STL::_Rb_tree<unsigned short,unsigned short,_STL::_Identity<unsigned short>,_STL::less<unsigned short>,_STL::allocator<unsigned short> >::clear

; 30   : }

  0000b	8b ce		 mov	 ecx, esi
  0000d	5e		 pop	 esi
  0000e	e9 00 00 00 00	 jmp	 ??1?$set@GU?$less@G@_STL@@V?$allocator@G@2@@_STL@@QAE@XZ
??1PacketIDSet@@QAE@XZ ENDP				; PacketIDSet::~PacketIDSet
_TEXT	ENDS
PUBLIC	??0?$set@GU?$less@G@_STL@@V?$allocator@G@2@@_STL@@QAE@XZ ; _STL::set<unsigned short,_STL::less<unsigned short>,_STL::allocator<unsigned short> >::set<unsigned short,_STL::less<unsigned short>,_STL::allocator<unsigned short> >
; Function compile flags: /Ogsy
; File c:\stlport-4.6.1\stlport\stl\_set.h
;	COMDAT ??0?$set@GU?$less@G@_STL@@V?$allocator@G@2@@_STL@@QAE@XZ
_TEXT	SEGMENT
$T103436 = -1						; size = 1
$T103435 = -1						; size = 1
??0?$set@GU?$less@G@_STL@@V?$allocator@G@2@@_STL@@QAE@XZ PROC NEAR ; _STL::set<unsigned short,_STL::less<unsigned short>,_STL::allocator<unsigned short> >::set<unsigned short,_STL::less<unsigned short>,_STL::allocator<unsigned short> >, COMDAT
; _this$ = ecx

; 73   :   set() : _M_t(_Compare(), allocator_type()) {}

  00000	55		 push	 ebp
  00001	8b ec		 mov	 ebp, esp
  00003	51		 push	 ecx
  00004	56		 push	 esi
  00005	8d 45 ff	 lea	 eax, DWORD PTR $T103435[ebp]
  00008	50		 push	 eax
  00009	8d 45 ff	 lea	 eax, DWORD PTR $T103436[ebp]
  0000c	50		 push	 eax
  0000d	8b f1		 mov	 esi, ecx
  0000f	e8 00 00 00 00	 call	 ??0?$_Rb_tree@GGU?$_Identity@G@_STL@@U?$less@G@2@V?$allocator@G@2@@_STL@@QAE@ABU?$less@G@1@ABV?$allocator@G@1@@Z ; _STL::_Rb_tree<unsigned short,unsigned short,_STL::_Identity<unsigned short>,_STL::less<unsigned short>,_STL::allocator<unsigned short> >::_Rb_tree<unsigned short,unsigned short,_STL::_Identity<unsigned short>,_STL::less<unsigned short>,_STL::allocator<unsigned short> >
  00014	8b c6		 mov	 eax, esi
  00016	5e		 pop	 esi
  00017	c9		 leave
  00018	c3		 ret	 0
??0?$set@GU?$less@G@_STL@@V?$allocator@G@2@@_STL@@QAE@XZ ENDP ; _STL::set<unsigned short,_STL::less<unsigned short>,_STL::allocator<unsigned short> >::set<unsigned short,_STL::less<unsigned short>,_STL::allocator<unsigned short> >
_TEXT	ENDS
PUBLIC	?insert@?$set@GU?$less@G@_STL@@V?$allocator@G@2@@_STL@@QAE?AU?$pair@U?$_Rb_tree_iterator@GU?$_Const_traits@G@_STL@@@_STL@@_N@2@ABG@Z ; _STL::set<unsigned short,_STL::less<unsigned short>,_STL::allocator<unsigned short> >::insert
; Function compile flags: /Ogsy
;	COMDAT ?insert@?$set@GU?$less@G@_STL@@V?$allocator@G@2@@_STL@@QAE?AU?$pair@U?$_Rb_tree_iterator@GU?$_Const_traits@G@_STL@@@_STL@@_N@2@ABG@Z
_TEXT	SEGMENT
___p$ = -8						; size = 8
___$ReturnUdt$ = 8					; size = 4
___x$ = 12						; size = 4
?insert@?$set@GU?$less@G@_STL@@V?$allocator@G@2@@_STL@@QAE?AU?$pair@U?$_Rb_tree_iterator@GU?$_Const_traits@G@_STL@@@_STL@@_N@2@ABG@Z PROC NEAR ; _STL::set<unsigned short,_STL::less<unsigned short>,_STL::allocator<unsigned short> >::insert, COMDAT
; _this$ = ecx

; 135  :   pair<iterator,bool> insert(const value_type& __x) { 

  00000	55		 push	 ebp
  00001	8b ec		 mov	 ebp, esp
  00003	51		 push	 ecx
  00004	51		 push	 ecx

; 136  :     typedef typename _Rep_type::iterator _Rep_iterator;
; 137  :     pair<_Rep_iterator, bool> __p = _M_t.insert_unique(__x); 

  00005	ff 75 0c	 push	 DWORD PTR ___x$[ebp]
  00008	8d 45 f8	 lea	 eax, DWORD PTR ___p$[ebp]
  0000b	50		 push	 eax
  0000c	e8 00 00 00 00	 call	 ?insert_unique@?$_Rb_tree@GGU?$_Identity@G@_STL@@U?$less@G@2@V?$allocator@G@2@@_STL@@QAE?AU?$pair@U?$_Rb_tree_iterator@GU?$_Nonconst_traits@G@_STL@@@_STL@@_N@2@ABG@Z ; _STL::_Rb_tree<unsigned short,unsigned short,_STL::_Identity<unsigned short>,_STL::less<unsigned short>,_STL::allocator<unsigned short> >::insert_unique

; 138  :     return pair<iterator, bool>(__REINTERPRET_CAST(const iterator&,__p.first), __p.second);

  00011	8b 45 08	 mov	 eax, DWORD PTR ___$ReturnUdt$[ebp]
  00014	8b 4d f8	 mov	 ecx, DWORD PTR ___p$[ebp]
  00017	89 08		 mov	 DWORD PTR [eax], ecx
  00019	8a 4d fc	 mov	 cl, BYTE PTR ___p$[ebp+4]
  0001c	88 48 04	 mov	 BYTE PTR [eax+4], cl

; 139  :   }

  0001f	c9		 leave
  00020	c2 08 00	 ret	 8
?insert@?$set@GU?$less@G@_STL@@V?$allocator@G@2@@_STL@@QAE?AU?$pair@U?$_Rb_tree_iterator@GU?$_Const_traits@G@_STL@@@_STL@@_N@2@ABG@Z ENDP ; _STL::set<unsigned short,_STL::less<unsigned short>,_STL::allocator<unsigned short> >::insert
_TEXT	ENDS
PUBLIC	??1?$basic_string@DV?$char_traits@D@_STL@@V?$allocator@D@2@@_STL@@QAE@XZ ; _STL::basic_string<char,_STL::char_traits<char>,_STL::allocator<char> >::~basic_string<char,_STL::char_traits<char>,_STL::allocator<char> >
; Function compile flags: /Ogsy
; File c:\stlport-4.6.1\stlport\stl\_string.h
;	COMDAT ??1?$basic_string@DV?$char_traits@D@_STL@@V?$allocator@D@2@@_STL@@QAE@XZ
_TEXT	SEGMENT
??1?$basic_string@DV?$char_traits@D@_STL@@V?$allocator@D@2@@_STL@@QAE@XZ PROC NEAR ; _STL::basic_string<char,_STL::char_traits<char>,_STL::allocator<char> >::~basic_string<char,_STL::char_traits<char>,_STL::allocator<char> >, COMDAT
; _this$ = ecx

; 305  :   ~basic_string() { _STLP_STD::_Destroy(this->_M_start, this->_M_finish + 1); }

  00000	e9 00 00 00 00	 jmp	 ?_M_deallocate_block@?$_String_base@DV?$allocator@D@_STL@@@_STL@@QAEXXZ ; _STL::_String_base<char,_STL::allocator<char> >::_M_deallocate_block
??1?$basic_string@DV?$char_traits@D@_STL@@V?$allocator@D@2@@_STL@@QAE@XZ ENDP ; _STL::basic_string<char,_STL::char_traits<char>,_STL::allocator<char> >::~basic_string<char,_STL::char_traits<char>,_STL::allocator<char> >
_TEXT	ENDS
PUBLIC	??0PacketIDSet@@QAE@W4PlayerStatus@@W4PacketIDSetType@0@@Z ; PacketIDSet::PacketIDSet
; Function compile flags: /Ogsy
; File c:\darkeden\designed_common\project\client\packet\packetidset.cpp
;	COMDAT ??0PacketIDSet@@QAE@W4PlayerStatus@@W4PacketIDSetType@0@@Z
_TEXT	SEGMENT
_playerStatus$ = 8					; size = 4
_packetIDSetType$ = 12					; size = 4
??0PacketIDSet@@QAE@W4PlayerStatus@@W4PacketIDSetType@0@@Z PROC NEAR ; PacketIDSet::PacketIDSet, COMDAT
; _this$ = ecx

; 20   : {

  00000	8b 44 24 08	 mov	 eax, DWORD PTR _packetIDSetType$[esp-4]
  00004	56		 push	 esi
  00005	8b f1		 mov	 esi, ecx
  00007	89 06		 mov	 DWORD PTR [esi], eax
  00009	8b 44 24 08	 mov	 eax, DWORD PTR _playerStatus$[esp]
  0000d	8d 4e 08	 lea	 ecx, DWORD PTR [esi+8]
  00010	89 46 04	 mov	 DWORD PTR [esi+4], eax
  00013	e8 00 00 00 00	 call	 ??0?$set@GU?$less@G@_STL@@V?$allocator@G@2@@_STL@@QAE@XZ ; _STL::set<unsigned short,_STL::less<unsigned short>,_STL::allocator<unsigned short> >::set<unsigned short,_STL::less<unsigned short>,_STL::allocator<unsigned short> >

; 21   : }

  00018	8b c6		 mov	 eax, esi
  0001a	5e		 pop	 esi
  0001b	c2 08 00	 ret	 8
??0PacketIDSet@@QAE@W4PlayerStatus@@W4PacketIDSetType@0@@Z ENDP ; PacketIDSet::PacketIDSet
_TEXT	ENDS
PUBLIC	??_C@_0N@KMJNFOII@PacketIDSet?$CI?$AA@		; `string'
PUBLIC	??_C@_0O@GBIOIEEF@PlayerStatus?3?$AA@		; `string'
PUBLIC	??_C@_09NJOBAPFF@PacketID?3?$AA@		; `string'
PUBLIC	?toString@PacketIDSet@@QBE?AV?$basic_string@DV?$char_traits@D@_STL@@V?$allocator@D@2@@_STL@@XZ ; PacketIDSet::toString
PUBLIC	??_C@_01PKGAHCOL@?$CJ?$AA@			; `string'
PUBLIC	??_C@_01CLKCMJKC@?5?$AA@			; `string'
EXTRN	??0StringStream@@QAE@XZ:NEAR			; StringStream::StringStream
EXTRN	??1StringStream@@QAE@XZ:NEAR			; StringStream::~StringStream
EXTRN	??6StringStream@@QAEAAV0@G@Z:NEAR		; StringStream::operator<<
EXTRN	??6StringStream@@QAEAAV0@H@Z:NEAR		; StringStream::operator<<
EXTRN	??6StringStream@@QAEAAV0@PBD@Z:NEAR		; StringStream::operator<<
EXTRN	?toString@StringStream@@QBE?AV?$basic_string@DV?$char_traits@D@_STL@@V?$allocator@D@2@@_STL@@XZ:NEAR ; StringStream::toString
;	COMDAT ??_C@_09NJOBAPFF@PacketID?3?$AA@
; File c:\stlport-4.6.1\stlport\stl\_tree.h
CONST	SEGMENT
??_C@_09NJOBAPFF@PacketID?3?$AA@ DB 'PacketID:', 00H	; `string'
CONST	ENDS
;	COMDAT ??_C@_0O@GBIOIEEF@PlayerStatus?3?$AA@
CONST	SEGMENT
??_C@_0O@GBIOIEEF@PlayerStatus?3?$AA@ DB 'PlayerStatus:', 00H ; `string'
CONST	ENDS
;	COMDAT ??_C@_0N@KMJNFOII@PacketIDSet?$CI?$AA@
CONST	SEGMENT
??_C@_0N@KMJNFOII@PacketIDSet?$CI?$AA@ DB 'PacketIDSet(', 00H ; `string'
CONST	ENDS
;	COMDAT ??_C@_01CLKCMJKC@?5?$AA@
CONST	SEGMENT
??_C@_01CLKCMJKC@?5?$AA@ DB ' ', 00H			; `string'
CONST	ENDS
;	COMDAT ??_C@_01PKGAHCOL@?$CJ?$AA@
CONST	SEGMENT
??_C@_01PKGAHCOL@?$CJ?$AA@ DB ')', 00H			; `string'
; Function compile flags: /Ogsy
; File c:\darkeden\designed_common\project\client\packet\packetidset.cpp
CONST	ENDS
;	COMDAT ?toString@PacketIDSet@@QBE?AV?$basic_string@DV?$char_traits@D@_STL@@V?$allocator@D@2@@_STL@@XZ
_TEXT	SEGMENT
_msg$ = -20						; size = 20
___$ReturnUdt$ = 8					; size = 4
?toString@PacketIDSet@@QBE?AV?$basic_string@DV?$char_traits@D@_STL@@V?$allocator@D@2@@_STL@@XZ PROC NEAR ; PacketIDSet::toString, COMDAT
; _this$ = ecx

; 114  : {

  00000	55		 push	 ebp
  00001	8b ec		 mov	 ebp, esp
  00003	83 ec 14	 sub	 esp, 20			; 00000014H
  00006	56		 push	 esi
  00007	57		 push	 edi
  00008	8b f9		 mov	 edi, ecx

; 115  : 	StringStream msg;

  0000a	8d 4d ec	 lea	 ecx, DWORD PTR _msg$[ebp]
  0000d	e8 00 00 00 00	 call	 ??0StringStream@@QAE@XZ	; StringStream::StringStream

; 116  : 
; 117  : 	msg << "PacketIDSet("
; 118  : 		<< "PlayerStatus:" << (int)m_PlayerStatus 
; 119  : 		<< "PacketID:";

  00012	68 00 00 00 00	 push	 OFFSET FLAT:??_C@_09NJOBAPFF@PacketID?3?$AA@
  00017	ff 77 04	 push	 DWORD PTR [edi+4]
  0001a	8d 4d ec	 lea	 ecx, DWORD PTR _msg$[ebp]
  0001d	68 00 00 00 00	 push	 OFFSET FLAT:??_C@_0O@GBIOIEEF@PlayerStatus?3?$AA@
  00022	68 00 00 00 00	 push	 OFFSET FLAT:??_C@_0N@KMJNFOII@PacketIDSet?$CI?$AA@
  00027	e8 00 00 00 00	 call	 ??6StringStream@@QAEAAV0@PBD@Z ; StringStream::operator<<
  0002c	8b c8		 mov	 ecx, eax
  0002e	e8 00 00 00 00	 call	 ??6StringStream@@QAEAAV0@PBD@Z ; StringStream::operator<<
  00033	8b c8		 mov	 ecx, eax
  00035	e8 00 00 00 00	 call	 ??6StringStream@@QAEAAV0@H@Z ; StringStream::operator<<
  0003a	8b c8		 mov	 ecx, eax
  0003c	e8 00 00 00 00	 call	 ??6StringStream@@QAEAAV0@PBD@Z ; StringStream::operator<<

; 120  : 
; 121  : 	for ( PACKET_ID_SET::const_iterator itr = m_PacketIDSet.begin() ;

  00041	8b 47 08	 mov	 eax, DWORD PTR [edi+8]
  00044	8b 70 08	 mov	 esi, DWORD PTR [eax+8]

; 122  : 		  itr != m_PacketIDSet.end() ;
; 123  : 		  itr ++ ) {

  00047	3b f0		 cmp	 esi, eax
  00049	74 29		 je	 SHORT $L101399
$L103503:

; 124  : 
; 125  : 		msg << (*itr) << " ";

  0004b	33 c0		 xor	 eax, eax
  0004d	66 8b 46 10	 mov	 ax, WORD PTR [esi+16]
  00051	68 00 00 00 00	 push	 OFFSET FLAT:??_C@_01CLKCMJKC@?5?$AA@
  00056	8d 4d ec	 lea	 ecx, DWORD PTR _msg$[ebp]
  00059	50		 push	 eax
  0005a	e8 00 00 00 00	 call	 ??6StringStream@@QAEAAV0@G@Z ; StringStream::operator<<
  0005f	8b c8		 mov	 ecx, eax
  00061	e8 00 00 00 00	 call	 ??6StringStream@@QAEAAV0@PBD@Z ; StringStream::operator<<
  00066	56		 push	 esi
  00067	e8 00 00 00 00	 call	 ?_M_increment@?$_Rb_global@_N@_STL@@SAPAU_Rb_tree_node_base@2@PAU32@@Z ; _STL::_Rb_global<bool>::_M_increment
  0006c	8b f0		 mov	 esi, eax
  0006e	3b 77 08	 cmp	 esi, DWORD PTR [edi+8]
  00071	59		 pop	 ecx
  00072	75 d7		 jne	 SHORT $L103503
$L101399:

; 126  : 	}
; 127  : 
; 128  : 	msg << ")";

  00074	68 00 00 00 00	 push	 OFFSET FLAT:??_C@_01PKGAHCOL@?$CJ?$AA@
  00079	8d 4d ec	 lea	 ecx, DWORD PTR _msg$[ebp]
  0007c	e8 00 00 00 00	 call	 ??6StringStream@@QAEAAV0@PBD@Z ; StringStream::operator<<

; 129  : 
; 130  : 	return msg.toString();

  00081	ff 75 08	 push	 DWORD PTR ___$ReturnUdt$[ebp]
  00084	8d 4d ec	 lea	 ecx, DWORD PTR _msg$[ebp]
  00087	e8 00 00 00 00	 call	 ?toString@StringStream@@QBE?AV?$basic_string@DV?$char_traits@D@_STL@@V?$allocator@D@2@@_STL@@XZ ; StringStream::toString
  0008c	8d 4d ec	 lea	 ecx, DWORD PTR _msg$[ebp]
  0008f	e8 00 00 00 00	 call	 ??1StringStream@@QAE@XZ	; StringStream::~StringStream
  00094	8b 45 08	 mov	 eax, DWORD PTR ___$ReturnUdt$[ebp]
  00097	5f		 pop	 edi
  00098	5e		 pop	 esi

; 131  : }

  00099	c9		 leave
  0009a	c2 04 00	 ret	 4
?toString@PacketIDSet@@QBE?AV?$basic_string@DV?$char_traits@D@_STL@@V?$allocator@D@2@@_STL@@XZ ENDP ; PacketIDSet::toString
_TEXT	ENDS
PUBLIC	??_G?$basic_string@DV?$char_traits@D@_STL@@V?$allocator@D@2@@_STL@@QAEPAXI@Z ; _STL::basic_string<char,_STL::char_traits<char>,_STL::allocator<char> >::`scalar deleting destructor'
; Function compile flags: /Ogsy
;	COMDAT ??_G?$basic_string@DV?$char_traits@D@_STL@@V?$allocator@D@2@@_STL@@QAEPAXI@Z
_TEXT	SEGMENT
___flags$ = 8						; size = 4
??_G?$basic_string@DV?$char_traits@D@_STL@@V?$allocator@D@2@@_STL@@QAEPAXI@Z PROC NEAR ; _STL::basic_string<char,_STL::char_traits<char>,_STL::allocator<char> >::`scalar deleting destructor', COMDAT
; _this$ = ecx
  00000	56		 push	 esi
  00001	8b f1		 mov	 esi, ecx
  00003	e8 00 00 00 00	 call	 ??1?$basic_string@DV?$char_traits@D@_STL@@V?$allocator@D@2@@_STL@@QAE@XZ ; _STL::basic_string<char,_STL::char_traits<char>,_STL::allocator<char> >::~basic_string<char,_STL::char_traits<char>,_STL::allocator<char> >
  00008	f6 44 24 08 01	 test	 BYTE PTR ___flags$[esp], 1
  0000d	74 07		 je	 SHORT $L101897
  0000f	56		 push	 esi
  00010	e8 00 00 00 00	 call	 ??3@YAXPAX@Z		; operator delete
  00015	59		 pop	 ecx
$L101897:
  00016	8b c6		 mov	 eax, esi
  00018	5e		 pop	 esi
  00019	c2 04 00	 ret	 4
??_G?$basic_string@DV?$char_traits@D@_STL@@V?$allocator@D@2@@_STL@@QAEPAXI@Z ENDP ; _STL::basic_string<char,_STL::char_traits<char>,_STL::allocator<char> >::`scalar deleting destructor'
_TEXT	ENDS
PUBLIC	??$_Destroy@V?$basic_string@DV?$char_traits@D@_STL@@V?$allocator@D@2@@_STL@@@_STL@@YAXPAV?$basic_string@DV?$char_traits@D@_STL@@V?$allocator@D@2@@0@@Z ; _STL::_Destroy<_STL::basic_string<char,_STL::char_traits<char>,_STL::allocator<char> > >
; Function compile flags: /Ogsy
; File c:\stlport-4.6.1\stlport\stl\_construct.h
;	COMDAT ??$_Destroy@V?$basic_string@DV?$char_traits@D@_STL@@V?$allocator@D@2@@_STL@@@_STL@@YAXPAV?$basic_string@DV?$char_traits@D@_STL@@V?$allocator@D@2@@0@@Z
_TEXT	SEGMENT
___pointer$ = 8						; size = 4
??$_Destroy@V?$basic_string@DV?$char_traits@D@_STL@@V?$allocator@D@2@@_STL@@@_STL@@YAXPAV?$basic_string@DV?$char_traits@D@_STL@@V?$allocator@D@2@@0@@Z PROC NEAR ; _STL::_Destroy<_STL::basic_string<char,_STL::char_traits<char>,_STL::allocator<char> > >, COMDAT

; 57   : # if _MSC_VER >= 1010
; 58   :   __pointer;
; 59   : # endif	// _MSC_VER >= 1000
; 60   : # ifdef _STLP_TRIVIAL_DESTRUCTOR_BUG
; 61   :   typedef typename __type_traits<_Tp>::has_trivial_destructor _Trivial_destructor;
; 62   :   __destroy_aux(__pointer, _Trivial_destructor());
; 63   : # else
; 64   : #  if ( defined (__BORLANDC__) && ( __BORLANDC__ < 0x500 ) )
; 65   :     __pointer->_Tp::~_Tp();
; 66   : #  else
; 67   :     __pointer->~_Tp();

  00000	8b 4c 24 04	 mov	 ecx, DWORD PTR ___pointer$[esp-4]
  00004	e9 00 00 00 00	 jmp	 ??1?$basic_string@DV?$char_traits@D@_STL@@V?$allocator@D@2@@_STL@@QAE@XZ ; _STL::basic_string<char,_STL::char_traits<char>,_STL::allocator<char> >::~basic_string<char,_STL::char_traits<char>,_STL::allocator<char> >
??$_Destroy@V?$basic_string@DV?$char_traits@D@_STL@@V?$allocator@D@2@@_STL@@@_STL@@YAXPAV?$basic_string@DV?$char_traits@D@_STL@@V?$allocator@D@2@@0@@Z ENDP ; _STL::_Destroy<_STL::basic_string<char,_STL::char_traits<char>,_STL::allocator<char> > >
_TEXT	ENDS
PUBLIC	?clear@?$_List_base@V?$basic_string@DV?$char_traits@D@_STL@@V?$allocator@D@2@@_STL@@V?$allocator@V?$basic_string@DV?$char_traits@D@_STL@@V?$allocator@D@2@@_STL@@@2@@_STL@@QAEXXZ ; _STL::_List_base<_STL::basic_string<char,_STL::char_traits<char>,_STL::allocator<char> >,_STL::allocator<_STL::basic_string<char,_STL::char_traits<char>,_STL::allocator<char> > > >::clear
; Function compile flags: /Ogsy
; File c:\stlport-4.6.1\stlport\stl\_list.c
;	COMDAT ?clear@?$_List_base@V?$basic_string@DV?$char_traits@D@_STL@@V?$allocator@D@2@@_STL@@V?$allocator@V?$basic_string@DV?$char_traits@D@_STL@@V?$allocator@D@2@@_STL@@@2@@_STL@@QAEXXZ
_TEXT	SEGMENT
?clear@?$_List_base@V?$basic_string@DV?$char_traits@D@_STL@@V?$allocator@D@2@@_STL@@V?$allocator@V?$basic_string@DV?$char_traits@D@_STL@@V?$allocator@D@2@@_STL@@@2@@_STL@@QAEXXZ PROC NEAR ; _STL::_List_base<_STL::basic_string<char,_STL::char_traits<char>,_STL::allocator<char> >,_STL::allocator<_STL::basic_string<char,_STL::char_traits<char>,_STL::allocator<char> > > >::clear, COMDAT
; _this$ = ecx

; 68   : {

  00000	56		 push	 esi
  00001	57		 push	 edi
  00002	8b f9		 mov	 edi, ecx

; 69   :   _List_node<_Tp>* __cur = (_List_node<_Tp>*) this->_M_node._M_data->_M_next;

  00004	8b 07		 mov	 eax, DWORD PTR [edi]
  00006	8b 30		 mov	 esi, DWORD PTR [eax]

; 70   :   while (__cur != this->_M_node._M_data) {

  00008	3b f0		 cmp	 esi, eax
  0000a	74 1c		 je	 SHORT $L98971
  0000c	53		 push	 ebx
$L98970:

; 71   :     _List_node<_Tp>* __tmp = __cur;

  0000d	8b de		 mov	 ebx, esi

; 72   :     __cur = (_List_node<_Tp>*) __cur->_M_next;

  0000f	8b 36		 mov	 esi, DWORD PTR [esi]

; 73   :     _STLP_STD::_Destroy(&__tmp->_M_data);

  00011	8d 4b 08	 lea	 ecx, DWORD PTR [ebx+8]
  00014	e8 00 00 00 00	 call	 ??1?$basic_string@DV?$char_traits@D@_STL@@V?$allocator@D@2@@_STL@@QAE@XZ ; _STL::basic_string<char,_STL::char_traits<char>,_STL::allocator<char> >::~basic_string<char,_STL::char_traits<char>,_STL::allocator<char> >

; 74   :     this->_M_node.deallocate(__tmp, 1);

  00019	6a 01		 push	 1
  0001b	53		 push	 ebx
  0001c	8b cf		 mov	 ecx, edi
  0001e	e8 00 00 00 00	 call	 ?deallocate@?$allocator@U?$_List_node@V?$basic_string@DV?$char_traits@D@_STL@@V?$allocator@D@2@@_STL@@@_STL@@@_STL@@QAEXPAU?$_List_node@V?$basic_string@DV?$char_traits@D@_STL@@V?$allocator@D@2@@_STL@@@2@I@Z ; _STL::allocator<_STL::_List_node<_STL::basic_string<char,_STL::char_traits<char>,_STL::allocator<char> > > >::deallocate
  00023	3b 37		 cmp	 esi, DWORD PTR [edi]
  00025	75 e6		 jne	 SHORT $L98970
  00027	5b		 pop	 ebx
$L98971:

; 75   :   }
; 76   :   this->_M_node._M_data->_M_next = this->_M_node._M_data;

  00028	8b 07		 mov	 eax, DWORD PTR [edi]
  0002a	89 00		 mov	 DWORD PTR [eax], eax

; 77   :   this->_M_node._M_data->_M_prev = this->_M_node._M_data;

  0002c	8b 3f		 mov	 edi, DWORD PTR [edi]
  0002e	89 7f 04	 mov	 DWORD PTR [edi+4], edi
  00031	5f		 pop	 edi
  00032	5e		 pop	 esi

; 78   : }

  00033	c3		 ret	 0
?clear@?$_List_base@V?$basic_string@DV?$char_traits@D@_STL@@V?$allocator@D@2@@_STL@@V?$allocator@V?$basic_string@DV?$char_traits@D@_STL@@V?$allocator@D@2@@_STL@@@2@@_STL@@QAEXXZ ENDP ; _STL::_List_base<_STL::basic_string<char,_STL::char_traits<char>,_STL::allocator<char> >,_STL::allocator<_STL::basic_string<char,_STL::char_traits<char>,_STL::allocator<char> > > >::clear
_TEXT	ENDS
PUBLIC	??1?$_List_base@V?$basic_string@DV?$char_traits@D@_STL@@V?$allocator@D@2@@_STL@@V?$allocator@V?$basic_string@DV?$char_traits@D@_STL@@V?$allocator@D@2@@_STL@@@2@@_STL@@QAE@XZ ; _STL::_List_base<_STL::basic_string<char,_STL::char_traits<char>,_STL::allocator<char> >,_STL::allocator<_STL::basic_string<char,_STL::char_traits<char>,_STL::allocator<char> > > >::~_List_base<_STL::basic_string<char,_STL::char_traits<char>,_STL::allocator<char> >,_STL::allocator<_STL::basic_string<char,_STL::char_traits<char>,_STL::allocator<char> > > >
; Function compile flags: /Ogsy
; File c:\stlport-4.6.1\stlport\stl\_list.h
;	COMDAT ??1?$_List_base@V?$basic_string@DV?$char_traits@D@_STL@@V?$allocator@D@2@@_STL@@V?$allocator@V?$basic_string@DV?$char_traits@D@_STL@@V?$allocator@D@2@@_STL@@@2@@_STL@@QAE@XZ
_TEXT	SEGMENT
??1?$_List_base@V?$basic_string@DV?$char_traits@D@_STL@@V?$allocator@D@2@@_STL@@V?$allocator@V?$basic_string@DV?$char_traits@D@_STL@@V?$allocator@D@2@@_STL@@@2@@_STL@@QAE@XZ PROC NEAR ; _STL::_List_base<_STL::basic_string<char,_STL::char_traits<char>,_STL::allocator<char> >,_STL::allocator<_STL::basic_string<char,_STL::char_traits<char>,_STL::allocator<char> > > >::~_List_base<_STL::basic_string<char,_STL::char_traits<char>,_STL::allocator<char> >,_STL::allocator<_STL::basic_string<char,_STL::char_traits<char>,_STL::allocator<char> > > >, COMDAT
; _this$ = ecx

; 188  :   ~_List_base() {

  00000	56		 push	 esi
  00001	8b f1		 mov	 esi, ecx

; 189  :     clear();

  00003	e8 00 00 00 00	 call	 ?clear@?$_List_base@V?$basic_string@DV?$char_traits@D@_STL@@V?$allocator@D@2@@_STL@@V?$allocator@V?$basic_string@DV?$char_traits@D@_STL@@V?$allocator@D@2@@_STL@@@2@@_STL@@QAEXXZ ; _STL::_List_base<_STL::basic_string<char,_STL::char_traits<char>,_STL::allocator<char> >,_STL::allocator<_STL::basic_string<char,_STL::char_traits<char>,_STL::allocator<char> > > >::clear

; 190  :     _M_node.deallocate(_M_node._M_data, 1);

  00008	6a 01		 push	 1
  0000a	ff 36		 push	 DWORD PTR [esi]
  0000c	8b ce		 mov	 ecx, esi
  0000e	e8 00 00 00 00	 call	 ?deallocate@?$allocator@U?$_List_node@V?$basic_string@DV?$char_traits@D@_STL@@V?$allocator@D@2@@_STL@@@_STL@@@_STL@@QAEXPAU?$_List_node@V?$basic_string@DV?$char_traits@D@_STL@@V?$allocator@D@2@@_STL@@@2@I@Z ; _STL::allocator<_STL::_List_node<_STL::basic_string<char,_STL::char_traits<char>,_STL::allocator<char> > > >::deallocate
  00013	5e		 pop	 esi

; 191  :   }

  00014	c3		 ret	 0
??1?$_List_base@V?$basic_string@DV?$char_traits@D@_STL@@V?$allocator@D@2@@_STL@@V?$allocator@V?$basic_string@DV?$char_traits@D@_STL@@V?$allocator@D@2@@_STL@@@2@@_STL@@QAE@XZ ENDP ; _STL::_List_base<_STL::basic_string<char,_STL::char_traits<char>,_STL::allocator<char> >,_STL::allocator<_STL::basic_string<char,_STL::char_traits<char>,_STL::allocator<char> > > >::~_List_base<_STL::basic_string<char,_STL::char_traits<char>,_STL::allocator<char> >,_STL::allocator<_STL::basic_string<char,_STL::char_traits<char>,_STL::allocator<char> > > >
_TEXT	ENDS
PUBLIC	??0?$list@V?$basic_string@DV?$char_traits@D@_STL@@V?$allocator@D@2@@_STL@@V?$allocator@V?$basic_string@DV?$char_traits@D@_STL@@V?$allocator@D@2@@_STL@@@2@@_STL@@QAE@ABV?$allocator@V?$basic_string@DV?$char_traits@D@_STL@@V?$allocator@D@2@@_STL@@@1@@Z ; _STL::list<_STL::basic_string<char,_STL::char_traits<char>,_STL::allocator<char> >,_STL::allocator<_STL::basic_string<char,_STL::char_traits<char>,_STL::allocator<char> > > >::list<_STL::basic_string<char,_STL::char_traits<char>,_STL::allocator<char> >,_STL::allocator<_STL::basic_string<char,_STL::char_traits<char>,_STL::allocator<char> > > >
; Function compile flags: /Ogsy
;	COMDAT ??0?$list@V?$basic_string@DV?$char_traits@D@_STL@@V?$allocator@D@2@@_STL@@V?$allocator@V?$basic_string@DV?$char_traits@D@_STL@@V?$allocator@D@2@@_STL@@@2@@_STL@@QAE@ABV?$allocator@V?$basic_string@DV?$char_traits@D@_STL@@V?$allocator@D@2@@_STL@@@1@@Z
_TEXT	SEGMENT
___a$ = 8						; size = 4
??0?$list@V?$basic_string@DV?$char_traits@D@_STL@@V?$allocator@D@2@@_STL@@V?$allocator@V?$basic_string@DV?$char_traits@D@_STL@@V?$allocator@D@2@@_STL@@@2@@_STL@@QAE@ABV?$allocator@V?$basic_string@DV?$char_traits@D@_STL@@V?$allocator@D@2@@_STL@@@1@@Z PROC NEAR ; _STL::list<_STL::basic_string<char,_STL::char_traits<char>,_STL::allocator<char> >,_STL::allocator<_STL::basic_string<char,_STL::char_traits<char>,_STL::allocator<char> > > >::list<_STL::basic_string<char,_STL::char_traits<char>,_STL::allocator<char> >,_STL::allocator<_STL::basic_string<char,_STL::char_traits<char>,_STL::allocator<char> > > >, COMDAT
; _this$ = ecx

; 264  :     _List_base<_Tp, _Alloc>(__a) {}

  00000	56		 push	 esi
  00001	ff 74 24 08	 push	 DWORD PTR ___a$[esp]
  00005	8b f1		 mov	 esi, ecx
  00007	e8 00 00 00 00	 call	 ??0?$_List_base@V?$basic_string@DV?$char_traits@D@_STL@@V?$allocator@D@2@@_STL@@V?$allocator@V?$basic_string@DV?$char_traits@D@_STL@@V?$allocator@D@2@@_STL@@@2@@_STL@@QAE@ABV?$allocator@V?$basic_string@DV?$char_traits@D@_STL@@V?$allocator@D@2@@_STL@@@1@@Z ; _STL::_List_base<_STL::basic_string<char,_STL::char_traits<char>,_STL::allocator<char> >,_STL::allocator<_STL::basic_string<char,_STL::char_traits<char>,_STL::allocator<char> > > >::_List_base<_STL::basic_string<char,_STL::char_traits<char>,_STL::allocator<char> >,_STL::allocator<_STL::basic_string<char,_STL::char_traits<char>,_STL::allocator<char> > > >
  0000c	8b c6		 mov	 eax, esi
  0000e	5e		 pop	 esi
  0000f	c2 04 00	 ret	 4
??0?$list@V?$basic_string@DV?$char_traits@D@_STL@@V?$allocator@D@2@@_STL@@V?$allocator@V?$basic_string@DV?$char_traits@D@_STL@@V?$allocator@D@2@@_STL@@@2@@_STL@@QAE@ABV?$allocator@V?$basic_string@DV?$char_traits@D@_STL@@V?$allocator@D@2@@_STL@@@1@@Z ENDP ; _STL::list<_STL::basic_string<char,_STL::char_traits<char>,_STL::allocator<char> >,_STL::allocator<_STL::basic_string<char,_STL::char_traits<char>,_STL::allocator<char> > > >::list<_STL::basic_string<char,_STL::char_traits<char>,_STL::allocator<char> >,_STL::allocator<_STL::basic_string<char,_STL::char_traits<char>,_STL::allocator<char> > > >
_TEXT	ENDS
PUBLIC	??1?$list@V?$basic_string@DV?$char_traits@D@_STL@@V?$allocator@D@2@@_STL@@V?$allocator@V?$basic_string@DV?$char_traits@D@_STL@@V?$allocator@D@2@@_STL@@@2@@_STL@@QAE@XZ ; _STL::list<_STL::basic_string<char,_STL::char_traits<char>,_STL::allocator<char> >,_STL::allocator<_STL::basic_string<char,_STL::char_traits<char>,_STL::allocator<char> > > >::~list<_STL::basic_string<char,_STL::char_traits<char>,_STL::allocator<char> >,_STL::allocator<_STL::basic_string<char,_STL::char_traits<char>,_STL::allocator<char> > > >
; Function compile flags: /Ogsy
;	COMDAT ??1?$list@V?$basic_string@DV?$char_traits@D@_STL@@V?$allocator@D@2@@_STL@@V?$allocator@V?$basic_string@DV?$char_traits@D@_STL@@V?$allocator@D@2@@_STL@@@2@@_STL@@QAE@XZ
_TEXT	SEGMENT
??1?$list@V?$basic_string@DV?$char_traits@D@_STL@@V?$allocator@D@2@@_STL@@V?$allocator@V?$basic_string@DV?$char_traits@D@_STL@@V?$allocator@D@2@@_STL@@@2@@_STL@@QAE@XZ PROC NEAR ; _STL::list<_STL::basic_string<char,_STL::char_traits<char>,_STL::allocator<char> >,_STL::allocator<_STL::basic_string<char,_STL::char_traits<char>,_STL::allocator<char> > > >::~list<_STL::basic_string<char,_STL::char_traits<char>,_STL::allocator<char> >,_STL::allocator<_STL::basic_string<char,_STL::char_traits<char>,_STL::allocator<char> > > >, COMDAT
; _this$ = ecx

; 416  :   ~list() { }

  00000	e9 00 00 00 00	 jmp	 ??1?$_List_base@V?$basic_string@DV?$char_traits@D@_STL@@V?$allocator@D@2@@_STL@@V?$allocator@V?$basic_string@DV?$char_traits@D@_STL@@V?$allocator@D@2@@_STL@@@2@@_STL@@QAE@XZ ; _STL::_List_base<_STL::basic_string<char,_STL::char_traits<char>,_STL::allocator<char> >,_STL::allocator<_STL::basic_string<char,_STL::char_traits<char>,_STL::allocator<char> > > >::~_List_base<_STL::basic_string<char,_STL::char_traits<char>,_STL::allocator<char> >,_STL::allocator<_STL::basic_string<char,_STL::char_traits<char>,_STL::allocator<char> > > >
??1?$list@V?$basic_string@DV?$char_traits@D@_STL@@V?$allocator@D@2@@_STL@@V?$allocator@V?$basic_string@DV?$char_traits@D@_STL@@V?$allocator@D@2@@_STL@@@2@@_STL@@QAE@XZ ENDP ; _STL::list<_STL::basic_string<char,_STL::char_traits<char>,_STL::allocator<char> >,_STL::allocator<_STL::basic_string<char,_STL::char_traits<char>,_STL::allocator<char> > > >::~list<_STL::basic_string<char,_STL::char_traits<char>,_STL::allocator<char> >,_STL::allocator<_STL::basic_string<char,_STL::char_traits<char>,_STL::allocator<char> > > >
_TEXT	ENDS
PUBLIC	??_R1A@?0A@A@Throwable@@8			; Throwable::`RTTI Base Class Descriptor at (0,-1,0,0)'
PUBLIC	??_R0?AVThrowable@@@8				; Throwable `RTTI Type Descriptor'
PUBLIC	??0Throwable@@QAE@XZ				; Throwable::Throwable
PUBLIC	?getName@Throwable@@UBE?AV?$basic_string@DV?$char_traits@D@_STL@@V?$allocator@D@2@@_STL@@XZ ; Throwable::getName
PUBLIC	?toString@Throwable@@UBE?AV?$basic_string@DV?$char_traits@D@_STL@@V?$allocator@D@2@@_STL@@XZ ; Throwable::toString
PUBLIC	??_R4Throwable@@6B@				; Throwable::`RTTI Complete Object Locator'
PUBLIC	??_R3Throwable@@8				; Throwable::`RTTI Class Hierarchy Descriptor'
PUBLIC	??_R2Throwable@@8				; Throwable::`RTTI Base Class Array'
PUBLIC	??_7Throwable@@6B@				; Throwable::`vftable'
PUBLIC	??_GThrowable@@UAEPAXI@Z			; Throwable::`scalar deleting destructor'
EXTRN	??_7type_info@@6B@:QWORD			; type_info::`vftable'
EXTRN	??_EThrowable@@UAEPAXI@Z:NEAR			; Throwable::`vector deleting destructor'
;	COMDAT ??_7Throwable@@6B@
; File c:\stlport-4.6.1\stlport\stl\_alloc.h
CONST	SEGMENT
??_7Throwable@@6B@ DD FLAT:??_R4Throwable@@6B@		; Throwable::`vftable'
	DD	FLAT:??_EThrowable@@UAEPAXI@Z
	DD	FLAT:?getName@Throwable@@UBE?AV?$basic_string@DV?$char_traits@D@_STL@@V?$allocator@D@2@@_STL@@XZ
	DD	FLAT:?toString@Throwable@@UBE?AV?$basic_string@DV?$char_traits@D@_STL@@V?$allocator@D@2@@_STL@@XZ
CONST	ENDS
;	COMDAT ??_R4Throwable@@6B@
rdata$r	SEGMENT
??_R4Throwable@@6B@ DD 00H				; Throwable::`RTTI Complete Object Locator'
	DD	00H
	DD	00H
	DD	FLAT:??_R0?AVThrowable@@@8
	DD	FLAT:??_R3Throwable@@8
rdata$r	ENDS
;	COMDAT ??_R0?AVThrowable@@@8
_DATA	SEGMENT
??_R0?AVThrowable@@@8 DD FLAT:??_7type_info@@6B@	; Throwable `RTTI Type Descriptor'
	DD	00H
	DB	'.?AVThrowable@@', 00H
	ORG $-24
	DD	FLAT:??_7type_info@@6B@
	DD	00H
	DB	'.?AVThrowable@@', 00H
_DATA	ENDS
;	COMDAT ??_R3Throwable@@8
rdata$r	SEGMENT
??_R3Throwable@@8 DD 00H				; Throwable::`RTTI Class Hierarchy Descriptor'
	DD	00H
	DD	01H
	DD	FLAT:??_R2Throwable@@8
rdata$r	ENDS
;	COMDAT ??_R2Throwable@@8
rdata$r	SEGMENT
??_R2Throwable@@8 DD FLAT:??_R1A@?0A@A@Throwable@@8	; Throwable::`RTTI Base Class Array'
rdata$r	ENDS
;	COMDAT ??_R1A@?0A@A@Throwable@@8
rdata$r	SEGMENT
??_R1A@?0A@A@Throwable@@8 DD FLAT:??_R0?AVThrowable@@@8	; Throwable::`RTTI Base Class Descriptor at (0,-1,0,0)'
	DD	00H
	DD	00H
	DD	0ffffffffH
	DD	00H
	DD	00H
; Function compile flags: /Ogsy
; File c:\darkeden\designed_common\project\client\packet\exception.h
rdata$r	ENDS
;	COMDAT ??0Throwable@@QAE@XZ
_TEXT	SEGMENT
$T103568 = -1						; size = 1
??0Throwable@@QAE@XZ PROC NEAR				; Throwable::Throwable, COMDAT
; _this$ = ecx

; 37   : 	Throwable () throw () {}

  00000	51		 push	 ecx
  00001	56		 push	 esi
  00002	8b f1		 mov	 esi, ecx
  00004	8d 4e 04	 lea	 ecx, DWORD PTR [esi+4]
  00007	c7 06 00 00 00
	00		 mov	 DWORD PTR [esi], OFFSET FLAT:??_7Throwable@@6B@
  0000d	e8 00 00 00 00	 call	 ??0?$basic_string@DV?$char_traits@D@_STL@@V?$allocator@D@2@@_STL@@QAE@XZ ; _STL::basic_string<char,_STL::char_traits<char>,_STL::allocator<char> >::basic_string<char,_STL::char_traits<char>,_STL::allocator<char> >
  00012	8d 44 24 07	 lea	 eax, DWORD PTR $T103568[esp+8]
  00016	50		 push	 eax
  00017	8d 4e 10	 lea	 ecx, DWORD PTR [esi+16]
  0001a	e8 00 00 00 00	 call	 ??0?$list@V?$basic_string@DV?$char_traits@D@_STL@@V?$allocator@D@2@@_STL@@V?$allocator@V?$basic_string@DV?$char_traits@D@_STL@@V?$allocator@D@2@@_STL@@@2@@_STL@@QAE@ABV?$allocator@V?$basic_string@DV?$char_traits@D@_STL@@V?$allocator@D@2@@_STL@@@1@@Z ; _STL::list<_STL::basic_string<char,_STL::char_traits<char>,_STL::allocator<char> >,_STL::allocator<_STL::basic_string<char,_STL::char_traits<char>,_STL::allocator<char> > > >::list<_STL::basic_string<char,_STL::char_traits<char>,_STL::allocator<char> >,_STL::allocator<_STL::basic_string<char,_STL::char_traits<char>,_STL::allocator<char> > > >
  0001f	8b c6		 mov	 eax, esi
  00021	5e		 pop	 esi
  00022	59		 pop	 ecx
  00023	c3		 ret	 0
??0Throwable@@QAE@XZ ENDP				; Throwable::Throwable
_TEXT	ENDS
PUBLIC	??0?$basic_string@DV?$char_traits@D@_STL@@V?$allocator@D@2@@_STL@@QAE@PBDABV?$allocator@D@1@@Z ; _STL::basic_string<char,_STL::char_traits<char>,_STL::allocator<char> >::basic_string<char,_STL::char_traits<char>,_STL::allocator<char> >
PUBLIC	??_C@_09KCKHMJEM@Throwable?$AA@			; `string'
;	COMDAT ??_C@_09KCKHMJEM@Throwable?$AA@
; File c:\stlport-4.6.1\stlport\stl\_alloc.h
CONST	SEGMENT
??_C@_09KCKHMJEM@Throwable?$AA@ DB 'Throwable', 00H	; `string'
; Function compile flags: /Ogsy
; File c:\darkeden\designed_common\project\client\packet\exception.h
CONST	ENDS
;	COMDAT ?getName@Throwable@@UBE?AV?$basic_string@DV?$char_traits@D@_STL@@V?$allocator@D@2@@_STL@@XZ
_TEXT	SEGMENT
$T103578 = -1						; size = 1
___$ReturnUdt$ = 8					; size = 4
?getName@Throwable@@UBE?AV?$basic_string@DV?$char_traits@D@_STL@@V?$allocator@D@2@@_STL@@XZ PROC NEAR ; Throwable::getName, COMDAT
; _this$ = ecx

; 46   : 	virtual std::string getName () const throw () { return "Throwable"; }

  00000	55		 push	 ebp
  00001	8b ec		 mov	 ebp, esp
  00003	51		 push	 ecx
  00004	8b 4d 08	 mov	 ecx, DWORD PTR ___$ReturnUdt$[ebp]
  00007	8d 45 ff	 lea	 eax, DWORD PTR $T103578[ebp]
  0000a	50		 push	 eax
  0000b	68 00 00 00 00	 push	 OFFSET FLAT:??_C@_09KCKHMJEM@Throwable?$AA@
  00010	e8 00 00 00 00	 call	 ??0?$basic_string@DV?$char_traits@D@_STL@@V?$allocator@D@2@@_STL@@QAE@PBDABV?$allocator@D@1@@Z ; _STL::basic_string<char,_STL::char_traits<char>,_STL::allocator<char> >::basic_string<char,_STL::char_traits<char>,_STL::allocator<char> >
  00015	8b 45 08	 mov	 eax, DWORD PTR ___$ReturnUdt$[ebp]
  00018	c9		 leave
  00019	c2 04 00	 ret	 4
?getName@Throwable@@UBE?AV?$basic_string@DV?$char_traits@D@_STL@@V?$allocator@D@2@@_STL@@XZ ENDP ; Throwable::getName
_TEXT	ENDS
PUBLIC	??$_M_range_initialize@PBD@?$basic_string@DV?$char_traits@D@_STL@@V?$allocator@D@2@@_STL@@AAEXPBD0ABUforward_iterator_tag@1@@Z ; _STL::basic_string<char,_STL::char_traits<char>,_STL::allocator<char> >::_M_range_initialize<char const *>
EXTRN	_strlen:NEAR
;	COMDAT xdata$x
; File c:\stlport-4.6.1\stlport\stl\_string.h
xdata$x	SEGMENT
$T103652 DD	0ffffffffH
	DD	FLAT:$L103587
$T103650 DD	019930520H
	DD	01H
	DD	FLAT:$T103652
	DD	2 DUP(00H)
	DD	2 DUP(00H)
; Function compile flags: /Ogsy
; File c:\stlport-4.6.1\stlport\stl\_string.c
xdata$x	ENDS
;	COMDAT ??0?$basic_string@DV?$char_traits@D@_STL@@V?$allocator@D@2@@_STL@@QAE@PBDABV?$allocator@D@1@@Z
_TEXT	SEGMENT
_this$ = -16						; size = 4
__$EHRec$ = -12						; size = 12
___s$ = 8						; size = 4
$T103646 = 11						; size = 1
___a$ = 12						; size = 4
??0?$basic_string@DV?$char_traits@D@_STL@@V?$allocator@D@2@@_STL@@QAE@PBDABV?$allocator@D@1@@Z PROC NEAR ; _STL::basic_string<char,_STL::char_traits<char>,_STL::allocator<char> >::basic_string<char,_STL::char_traits<char>,_STL::allocator<char> >, COMDAT
; _this$ = ecx

; 552  : { 

  00000	b8 00 00 00 00	 mov	 eax, __ehhandler$??0?$basic_string@DV?$char_traits@D@_STL@@V?$allocator@D@2@@_STL@@QAE@PBDABV?$allocator@D@1@@Z
  00005	e8 00 00 00 00	 call	 __EH_prolog
  0000a	51		 push	 ecx
  0000b	56		 push	 esi
  0000c	ff 75 0c	 push	 DWORD PTR ___a$[ebp]
  0000f	8b f1		 mov	 esi, ecx
  00011	89 75 f0	 mov	 DWORD PTR _this$[ebp], esi
  00014	e8 00 00 00 00	 call	 ??0?$_String_base@DV?$allocator@D@_STL@@@_STL@@QAE@ABV?$allocator@D@1@@Z ; _STL::_String_base<char,_STL::allocator<char> >::_String_base<char,_STL::allocator<char> >

; 553  :   _STLP_FIX_LITERAL_BUG(__s) 
; 554  :     _M_range_initialize(__s, __s + traits_type::length(__s));  

  00019	ff 75 08	 push	 DWORD PTR ___s$[ebp]
  0001c	83 65 fc 00	 and	 DWORD PTR __$EHRec$[ebp+8], 0
  00020	e8 00 00 00 00	 call	 _strlen
  00025	03 45 08	 add	 eax, DWORD PTR ___s$[ebp]
  00028	59		 pop	 ecx
  00029	8d 4d 0b	 lea	 ecx, DWORD PTR $T103646[ebp]
  0002c	51		 push	 ecx
  0002d	50		 push	 eax
  0002e	ff 75 08	 push	 DWORD PTR ___s$[ebp]
  00031	8b ce		 mov	 ecx, esi
  00033	e8 00 00 00 00	 call	 ??$_M_range_initialize@PBD@?$basic_string@DV?$char_traits@D@_STL@@V?$allocator@D@2@@_STL@@AAEXPBD0ABUforward_iterator_tag@1@@Z ; _STL::basic_string<char,_STL::char_traits<char>,_STL::allocator<char> >::_M_range_initialize<char const *>

; 555  : } 

  00038	8b 4d f4	 mov	 ecx, DWORD PTR __$EHRec$[ebp]
  0003b	8b c6		 mov	 eax, esi
  0003d	5e		 pop	 esi
  0003e	64 89 0d 00 00
	00 00		 mov	 DWORD PTR fs:__except_list, ecx
  00045	c9		 leave
  00046	c2 08 00	 ret	 8
_TEXT	ENDS
;	COMDAT text$x
text$x	SEGMENT
$L103587:
  00000	8b 4d f0	 mov	 ecx, DWORD PTR _this$[ebp]
  00003	e9 00 00 00 00	 jmp	 ??1?$_String_base@DV?$allocator@D@_STL@@@_STL@@QAE@XZ ; _STL::_String_base<char,_STL::allocator<char> >::~_String_base<char,_STL::allocator<char> >
__ehhandler$??0?$basic_string@DV?$char_traits@D@_STL@@V?$allocator@D@2@@_STL@@QAE@PBDABV?$allocator@D@1@@Z:
  00008	b8 00 00 00 00	 mov	 eax, OFFSET FLAT:$T103650
  0000d	e9 00 00 00 00	 jmp	 ___CxxFrameHandler
text$x	ENDS
??0?$basic_string@DV?$char_traits@D@_STL@@V?$allocator@D@2@@_STL@@QAE@PBDABV?$allocator@D@1@@Z ENDP ; _STL::basic_string<char,_STL::char_traits<char>,_STL::allocator<char> >::basic_string<char,_STL::char_traits<char>,_STL::allocator<char> >
PUBLIC	?_M_allocate_block@?$_String_base@DV?$allocator@D@_STL@@@_STL@@QAEXI@Z ; _STL::_String_base<char,_STL::allocator<char> >::_M_allocate_block
EXTRN	_memmove:NEAR
; Function compile flags: /Ogsy
; File c:\stlport-4.6.1\stlport\stl\_string.h
;	COMDAT ??$_M_range_initialize@PBD@?$basic_string@DV?$char_traits@D@_STL@@V?$allocator@D@2@@_STL@@AAEXPBD0ABUforward_iterator_tag@1@@Z
_TEXT	SEGMENT
___f$ = 8						; size = 4
___l$ = 12						; size = 4
___formal$ = 16						; size = 4
??$_M_range_initialize@PBD@?$basic_string@DV?$char_traits@D@_STL@@V?$allocator@D@2@@_STL@@AAEXPBD0ABUforward_iterator_tag@1@@Z PROC NEAR ; _STL::basic_string<char,_STL::char_traits<char>,_STL::allocator<char> >::_M_range_initialize<char const *>, COMDAT
; _this$ = ecx

; 382  :   template <class _ForwardIter> void _M_range_initialize(_ForwardIter __f, _ForwardIter __l, 

  00000	53		 push	 ebx

; 383  :                            const forward_iterator_tag &) {
; 384  :     difference_type __n = distance(__f, __l);
; 385  :     this->_M_allocate_block(__n + 1);
; 386  :     this->_M_finish = uninitialized_copy(__f, __l, this->_M_start);
; 387  :     _M_terminate_string();

  00001	8b 5c 24 08	 mov	 ebx, DWORD PTR ___f$[esp]
  00005	56		 push	 esi
  00006	8b 74 24 10	 mov	 esi, DWORD PTR ___l$[esp+4]
  0000a	57		 push	 edi
  0000b	2b f3		 sub	 esi, ebx
  0000d	8d 46 01	 lea	 eax, DWORD PTR [esi+1]
  00010	50		 push	 eax
  00011	8b f9		 mov	 edi, ecx
  00013	e8 00 00 00 00	 call	 ?_M_allocate_block@?$_String_base@DV?$allocator@D@_STL@@@_STL@@QAEXI@Z ; _STL::_String_base<char,_STL::allocator<char> >::_M_allocate_block
  00018	39 5c 24 14	 cmp	 DWORD PTR ___l$[esp+8], ebx
  0001c	8b 07		 mov	 eax, DWORD PTR [edi]
  0001e	74 0d		 je	 SHORT $L103693
  00020	56		 push	 esi
  00021	53		 push	 ebx
  00022	50		 push	 eax
  00023	e8 00 00 00 00	 call	 _memmove
  00028	83 c4 0c	 add	 esp, 12			; 0000000cH
  0002b	03 c6		 add	 eax, esi
$L103693:
  0002d	89 47 04	 mov	 DWORD PTR [edi+4], eax
  00030	5f		 pop	 edi
  00031	5e		 pop	 esi
  00032	c6 00 00	 mov	 BYTE PTR [eax], 0
  00035	5b		 pop	 ebx

; 388  :   }

  00036	c2 0c 00	 ret	 12			; 0000000cH
??$_M_range_initialize@PBD@?$basic_string@DV?$char_traits@D@_STL@@V?$allocator@D@2@@_STL@@AAEXPBD0ABUforward_iterator_tag@1@@Z ENDP ; _STL::basic_string<char,_STL::char_traits<char>,_STL::allocator<char> >::_M_range_initialize<char const *>
_TEXT	ENDS
PUBLIC	??_C@_0N@GOPDCEEB@basic_string?$AA@		; `string'
EXTRN	?__stl_throw_length_error@_STL@@YAXPBD@Z:NEAR	; _STL::__stl_throw_length_error
;	COMDAT ??_C@_0N@GOPDCEEB@basic_string?$AA@
; File c:\stlport-4.6.1\stlport\stl\_string.c
CONST	SEGMENT
??_C@_0N@GOPDCEEB@basic_string?$AA@ DB 'basic_string', 00H ; `string'
; Function compile flags: /Ogsy
CONST	ENDS
;	COMDAT ?_M_allocate_block@?$_String_base@DV?$allocator@D@_STL@@@_STL@@QAEXI@Z
_TEXT	SEGMENT
___n$ = 8						; size = 4
?_M_allocate_block@?$_String_base@DV?$allocator@D@_STL@@@_STL@@QAEXI@Z PROC NEAR ; _STL::_String_base<char,_STL::allocator<char> >::_M_allocate_block, COMDAT
; _this$ = ecx

; 530  : template <class _Tp, class _Alloc> void _String_base<_Tp, _Alloc>::_M_allocate_block(size_t __n) {  

  00000	56		 push	 esi
  00001	57		 push	 edi

; 531  :   if ((__n <= (max_size()+1)) && (__n>0)){ 

  00002	8b 7c 24 0c	 mov	 edi, DWORD PTR ___n$[esp+4]
  00006	83 ff ff	 cmp	 edi, -1
  00009	8b f1		 mov	 esi, ecx
  0000b	77 16		 ja	 SHORT $L102086
  0000d	85 ff		 test	 edi, edi
  0000f	76 12		 jbe	 SHORT $L102086

; 532  :     _M_start  = _M_end_of_storage.allocate(__n); 

  00011	57		 push	 edi
  00012	e8 00 00 00 00	 call	 ?allocate@?$__node_alloc@$00$0A@@_STL@@SAPAXI@Z ; _STL::__node_alloc<1,0>::allocate
  00017	89 06		 mov	 DWORD PTR [esi], eax

; 533  :     _M_finish = _M_start; 

  00019	89 46 04	 mov	 DWORD PTR [esi+4], eax

; 534  :     _M_end_of_storage._M_data = _M_start + __n; 

  0001c	03 c7		 add	 eax, edi
  0001e	89 46 08	 mov	 DWORD PTR [esi+8], eax

; 535  :   } 
; 536  :     else 

  00021	eb 0a		 jmp	 SHORT $L103724
$L102086:

; 537  :       _M_throw_length_error(); 

  00023	68 00 00 00 00	 push	 OFFSET FLAT:??_C@_0N@GOPDCEEB@basic_string?$AA@
  00028	e8 00 00 00 00	 call	 ?__stl_throw_length_error@_STL@@YAXPBD@Z ; _STL::__stl_throw_length_error
$L103724:
  0002d	59		 pop	 ecx
  0002e	5f		 pop	 edi
  0002f	5e		 pop	 esi

; 538  : } 

  00030	c2 04 00	 ret	 4
?_M_allocate_block@?$_String_base@DV?$allocator@D@_STL@@@_STL@@QAEXI@Z ENDP ; _STL::_String_base<char,_STL::allocator<char> >::_M_allocate_block
_TEXT	ENDS
PUBLIC	??0?$basic_string@DV?$char_traits@D@_STL@@V?$allocator@D@2@@_STL@@QAE@ABV01@@Z ; _STL::basic_string<char,_STL::char_traits<char>,_STL::allocator<char> >::basic_string<char,_STL::char_traits<char>,_STL::allocator<char> >
PUBLIC	?getStackTrace@Throwable@@QBE?AV?$basic_string@DV?$char_traits@D@_STL@@V?$allocator@D@2@@_STL@@XZ ; Throwable::getStackTrace
PUBLIC	??_C@_03MCPBMLDJ@?5?3?5?$AA@			; `string'
EXTRN	??6StringStream@@QAEAAV0@D@Z:NEAR		; StringStream::operator<<
EXTRN	??6StringStream@@QAEAAV0@ABV?$basic_string@DV?$char_traits@D@_STL@@V?$allocator@D@2@@_STL@@@Z:NEAR ; StringStream::operator<<
;	COMDAT ??_C@_03MCPBMLDJ@?5?3?5?$AA@
; File c:\darkeden\designed_common\project\client\packet\exception.h
CONST	SEGMENT
??_C@_03MCPBMLDJ@?5?3?5?$AA@ DB ' : ', 00H		; `string'
; Function compile flags: /Ogsy
CONST	ENDS
;	COMDAT ?toString@Throwable@@UBE?AV?$basic_string@DV?$char_traits@D@_STL@@V?$allocator@D@2@@_STL@@XZ
_TEXT	SEGMENT
_buf$ = -44						; size = 20
$T103730 = -24						; size = 12
$T103729 = -24						; size = 12
$T103728 = -12						; size = 12
___$ReturnUdt$ = 8					; size = 4
?toString@Throwable@@UBE?AV?$basic_string@DV?$char_traits@D@_STL@@V?$allocator@D@2@@_STL@@XZ PROC NEAR ; Throwable::toString, COMDAT
; _this$ = ecx

; 79   : 	{

  00000	55		 push	 ebp
  00001	8b ec		 mov	 ebp, esp
  00003	83 ec 2c	 sub	 esp, 44			; 0000002cH
  00006	56		 push	 esi
  00007	8b f1		 mov	 esi, ecx

; 80   : 		StringStream buf;

  00009	8d 4d d4	 lea	 ecx, DWORD PTR _buf$[ebp]
  0000c	e8 00 00 00 00	 call	 ??0StringStream@@QAE@XZ	; StringStream::StringStream

; 81   : 		buf << getName() << " : " << m_Message << '\n'
; 82   : 			<< getStackTrace () ;

  00011	8d 45 e8	 lea	 eax, DWORD PTR $T103729[ebp]
  00014	50		 push	 eax
  00015	8b ce		 mov	 ecx, esi
  00017	e8 00 00 00 00	 call	 ?getStackTrace@Throwable@@QBE?AV?$basic_string@DV?$char_traits@D@_STL@@V?$allocator@D@2@@_STL@@XZ ; Throwable::getStackTrace
  0001c	50		 push	 eax
  0001d	6a 0a		 push	 10			; 0000000aH
  0001f	8d 46 04	 lea	 eax, DWORD PTR [esi+4]
  00022	50		 push	 eax
  00023	8b 06		 mov	 eax, DWORD PTR [esi]
  00025	68 00 00 00 00	 push	 OFFSET FLAT:??_C@_03MCPBMLDJ@?5?3?5?$AA@
  0002a	8d 4d f4	 lea	 ecx, DWORD PTR $T103728[ebp]
  0002d	51		 push	 ecx
  0002e	8b ce		 mov	 ecx, esi
  00030	ff 50 04	 call	 DWORD PTR [eax+4]
  00033	50		 push	 eax
  00034	8d 4d d4	 lea	 ecx, DWORD PTR _buf$[ebp]
  00037	e8 00 00 00 00	 call	 ??6StringStream@@QAEAAV0@ABV?$basic_string@DV?$char_traits@D@_STL@@V?$allocator@D@2@@_STL@@@Z ; StringStream::operator<<
  0003c	8b c8		 mov	 ecx, eax
  0003e	e8 00 00 00 00	 call	 ??6StringStream@@QAEAAV0@PBD@Z ; StringStream::operator<<
  00043	8b c8		 mov	 ecx, eax
  00045	e8 00 00 00 00	 call	 ??6StringStream@@QAEAAV0@ABV?$basic_string@DV?$char_traits@D@_STL@@V?$allocator@D@2@@_STL@@@Z ; StringStream::operator<<
  0004a	8b c8		 mov	 ecx, eax
  0004c	e8 00 00 00 00	 call	 ??6StringStream@@QAEAAV0@D@Z ; StringStream::operator<<
  00051	8b c8		 mov	 ecx, eax
  00053	e8 00 00 00 00	 call	 ??6StringStream@@QAEAAV0@ABV?$basic_string@DV?$char_traits@D@_STL@@V?$allocator@D@2@@_STL@@@Z ; StringStream::operator<<
  00058	8d 4d f4	 lea	 ecx, DWORD PTR $T103728[ebp]
  0005b	e8 00 00 00 00	 call	 ??1?$basic_string@DV?$char_traits@D@_STL@@V?$allocator@D@2@@_STL@@QAE@XZ ; _STL::basic_string<char,_STL::char_traits<char>,_STL::allocator<char> >::~basic_string<char,_STL::char_traits<char>,_STL::allocator<char> >
  00060	8d 4d e8	 lea	 ecx, DWORD PTR $T103729[ebp]
  00063	e8 00 00 00 00	 call	 ??1?$basic_string@DV?$char_traits@D@_STL@@V?$allocator@D@2@@_STL@@QAE@XZ ; _STL::basic_string<char,_STL::char_traits<char>,_STL::allocator<char> >::~basic_string<char,_STL::char_traits<char>,_STL::allocator<char> >

; 83   : 		
; 84   : 		return std::string( buf.toString() );

  00068	8d 45 e8	 lea	 eax, DWORD PTR $T103730[ebp]
  0006b	50		 push	 eax
  0006c	8d 4d d4	 lea	 ecx, DWORD PTR _buf$[ebp]
  0006f	e8 00 00 00 00	 call	 ?toString@StringStream@@QBE?AV?$basic_string@DV?$char_traits@D@_STL@@V?$allocator@D@2@@_STL@@XZ ; StringStream::toString
  00074	8b 4d 08	 mov	 ecx, DWORD PTR ___$ReturnUdt$[ebp]
  00077	50		 push	 eax
  00078	e8 00 00 00 00	 call	 ??0?$basic_string@DV?$char_traits@D@_STL@@V?$allocator@D@2@@_STL@@QAE@ABV01@@Z ; _STL::basic_string<char,_STL::char_traits<char>,_STL::allocator<char> >::basic_string<char,_STL::char_traits<char>,_STL::allocator<char> >
  0007d	8d 4d e8	 lea	 ecx, DWORD PTR $T103730[ebp]
  00080	e8 00 00 00 00	 call	 ??1?$basic_string@DV?$char_traits@D@_STL@@V?$allocator@D@2@@_STL@@QAE@XZ ; _STL::basic_string<char,_STL::char_traits<char>,_STL::allocator<char> >::~basic_string<char,_STL::char_traits<char>,_STL::allocator<char> >
  00085	8d 4d d4	 lea	 ecx, DWORD PTR _buf$[ebp]
  00088	e8 00 00 00 00	 call	 ??1StringStream@@QAE@XZ	; StringStream::~StringStream
  0008d	8b 45 08	 mov	 eax, DWORD PTR ___$ReturnUdt$[ebp]
  00090	5e		 pop	 esi

; 85   : 	}

  00091	c9		 leave
  00092	c2 04 00	 ret	 4
?toString@Throwable@@UBE?AV?$basic_string@DV?$char_traits@D@_STL@@V?$allocator@D@2@@_STL@@XZ ENDP ; Throwable::toString
_TEXT	ENDS
PUBLIC	??$_M_range_initialize@PAD@?$basic_string@DV?$char_traits@D@_STL@@V?$allocator@D@2@@_STL@@AAEXPAD0ABUforward_iterator_tag@1@@Z ; _STL::basic_string<char,_STL::char_traits<char>,_STL::allocator<char> >::_M_range_initialize<char *>
PUBLIC	?get_allocator@?$basic_string@DV?$char_traits@D@_STL@@V?$allocator@D@2@@_STL@@QBE?AV?$allocator@D@2@XZ ; _STL::basic_string<char,_STL::char_traits<char>,_STL::allocator<char> >::get_allocator
;	COMDAT xdata$x
; File c:\stlport-4.6.1\stlport\stl\_string.h
xdata$x	SEGMENT
$T103811 DD	0ffffffffH
	DD	FLAT:$L103734
$T103809 DD	019930520H
	DD	01H
	DD	FLAT:$T103811
	DD	2 DUP(00H)
	DD	2 DUP(00H)
; Function compile flags: /Ogsy
; File c:\stlport-4.6.1\stlport\stl\_string.c
xdata$x	ENDS
;	COMDAT ??0?$basic_string@DV?$char_traits@D@_STL@@V?$allocator@D@2@@_STL@@QAE@ABV01@@Z
_TEXT	SEGMENT
_this$ = -20						; size = 4
$T103805 = -13						; size = 1
__$EHRec$ = -12						; size = 12
___s$ = 8						; size = 4
$T103733 = 11						; size = 1
??0?$basic_string@DV?$char_traits@D@_STL@@V?$allocator@D@2@@_STL@@QAE@ABV01@@Z PROC NEAR ; _STL::basic_string<char,_STL::char_traits<char>,_STL::allocator<char> >::basic_string<char,_STL::char_traits<char>,_STL::allocator<char> >, COMDAT
; _this$ = ecx

; 560  : {  

  00000	b8 00 00 00 00	 mov	 eax, __ehhandler$??0?$basic_string@DV?$char_traits@D@_STL@@V?$allocator@D@2@@_STL@@QAE@ABV01@@Z
  00005	e8 00 00 00 00	 call	 __EH_prolog
  0000a	51		 push	 ecx
  0000b	51		 push	 ecx
  0000c	56		 push	 esi
  0000d	8b 75 08	 mov	 esi, DWORD PTR ___s$[ebp]
  00010	57		 push	 edi
  00011	8b f9		 mov	 edi, ecx
  00013	8d 45 0b	 lea	 eax, DWORD PTR $T103733[ebp]
  00016	50		 push	 eax
  00017	8b ce		 mov	 ecx, esi
  00019	89 7d ec	 mov	 DWORD PTR _this$[ebp], edi
  0001c	e8 00 00 00 00	 call	 ?get_allocator@?$basic_string@DV?$char_traits@D@_STL@@V?$allocator@D@2@@_STL@@QBE?AV?$allocator@D@2@XZ ; _STL::basic_string<char,_STL::char_traits<char>,_STL::allocator<char> >::get_allocator
  00021	50		 push	 eax
  00022	8b cf		 mov	 ecx, edi
  00024	e8 00 00 00 00	 call	 ??0?$_String_base@DV?$allocator@D@_STL@@@_STL@@QAE@ABV?$allocator@D@1@@Z ; _STL::_String_base<char,_STL::allocator<char> >::_String_base<char,_STL::allocator<char> >
  00029	83 65 fc 00	 and	 DWORD PTR __$EHRec$[ebp+8], 0

; 561  :   _M_range_initialize(__s._M_start, __s._M_finish);  

  0002d	8d 45 f3	 lea	 eax, DWORD PTR $T103805[ebp]
  00030	50		 push	 eax
  00031	ff 76 04	 push	 DWORD PTR [esi+4]
  00034	8b cf		 mov	 ecx, edi
  00036	ff 36		 push	 DWORD PTR [esi]
  00038	e8 00 00 00 00	 call	 ??$_M_range_initialize@PAD@?$basic_string@DV?$char_traits@D@_STL@@V?$allocator@D@2@@_STL@@AAEXPAD0ABUforward_iterator_tag@1@@Z ; _STL::basic_string<char,_STL::char_traits<char>,_STL::allocator<char> >::_M_range_initialize<char *>

; 562  : } 

  0003d	8b 4d f4	 mov	 ecx, DWORD PTR __$EHRec$[ebp]
  00040	8b c7		 mov	 eax, edi
  00042	5f		 pop	 edi
  00043	5e		 pop	 esi
  00044	64 89 0d 00 00
	00 00		 mov	 DWORD PTR fs:__except_list, ecx
  0004b	c9		 leave
  0004c	c2 04 00	 ret	 4
_TEXT	ENDS
;	COMDAT text$x
text$x	SEGMENT
$L103734:
  00000	8b 4d ec	 mov	 ecx, DWORD PTR _this$[ebp]
  00003	e9 00 00 00 00	 jmp	 ??1?$_String_base@DV?$allocator@D@_STL@@@_STL@@QAE@XZ ; _STL::_String_base<char,_STL::allocator<char> >::~_String_base<char,_STL::allocator<char> >
__ehhandler$??0?$basic_string@DV?$char_traits@D@_STL@@V?$allocator@D@2@@_STL@@QAE@ABV01@@Z:
  00008	b8 00 00 00 00	 mov	 eax, OFFSET FLAT:$T103809
  0000d	e9 00 00 00 00	 jmp	 ___CxxFrameHandler
text$x	ENDS
??0?$basic_string@DV?$char_traits@D@_STL@@V?$allocator@D@2@@_STL@@QAE@ABV01@@Z ENDP ; _STL::basic_string<char,_STL::char_traits<char>,_STL::allocator<char> >::basic_string<char,_STL::char_traits<char>,_STL::allocator<char> >
; Function compile flags: /Ogsy
; File c:\stlport-4.6.1\stlport\stl\_string.h
;	COMDAT ?get_allocator@?$basic_string@DV?$char_traits@D@_STL@@V?$allocator@D@2@@_STL@@QBE?AV?$allocator@D@2@XZ
_TEXT	SEGMENT
___$ReturnUdt$ = 8					; size = 4
?get_allocator@?$basic_string@DV?$char_traits@D@_STL@@V?$allocator@D@2@@_STL@@QBE?AV?$allocator@D@2@XZ PROC NEAR ; _STL::basic_string<char,_STL::char_traits<char>,_STL::allocator<char> >::get_allocator, COMDAT
; _this$ = ecx

; 216  :     return _STLP_CONVERT_ALLOCATOR((const allocator_type&)this->_M_end_of_storage, _CharT);

  00000	8b 44 24 04	 mov	 eax, DWORD PTR ___$ReturnUdt$[esp-4]

; 217  :   }

  00004	c2 04 00	 ret	 4
?get_allocator@?$basic_string@DV?$char_traits@D@_STL@@V?$allocator@D@2@@_STL@@QBE?AV?$allocator@D@2@XZ ENDP ; _STL::basic_string<char,_STL::char_traits<char>,_STL::allocator<char> >::get_allocator
_TEXT	ENDS
PUBLIC	??$uninitialized_copy@PADPAD@_STL@@YAPADPAD00@Z	; _STL::uninitialized_copy<char *,char *>
; Function compile flags: /Ogsy
;	COMDAT ??$_M_range_initialize@PAD@?$basic_string@DV?$char_traits@D@_STL@@V?$allocator@D@2@@_STL@@AAEXPAD0ABUforward_iterator_tag@1@@Z
_TEXT	SEGMENT
___f$ = 8						; size = 4
___l$ = 12						; size = 4
___formal$ = 16						; size = 4
??$_M_range_initialize@PAD@?$basic_string@DV?$char_traits@D@_STL@@V?$allocator@D@2@@_STL@@AAEXPAD0ABUforward_iterator_tag@1@@Z PROC NEAR ; _STL::basic_string<char,_STL::char_traits<char>,_STL::allocator<char> >::_M_range_initialize<char *>, COMDAT
; _this$ = ecx

; 383  :                            const forward_iterator_tag &) {
; 384  :     difference_type __n = distance(__f, __l);
; 385  :     this->_M_allocate_block(__n + 1);

  00000	8b 44 24 08	 mov	 eax, DWORD PTR ___l$[esp-4]
  00004	2b 44 24 04	 sub	 eax, DWORD PTR ___f$[esp-4]
  00008	56		 push	 esi
  00009	40		 inc	 eax
  0000a	50		 push	 eax
  0000b	8b f1		 mov	 esi, ecx
  0000d	e8 00 00 00 00	 call	 ?_M_allocate_block@?$_String_base@DV?$allocator@D@_STL@@@_STL@@QAEXI@Z ; _STL::_String_base<char,_STL::allocator<char> >::_M_allocate_block

; 386  :     this->_M_finish = uninitialized_copy(__f, __l, this->_M_start);

  00012	ff 36		 push	 DWORD PTR [esi]
  00014	ff 74 24 10	 push	 DWORD PTR ___l$[esp+4]
  00018	ff 74 24 10	 push	 DWORD PTR ___f$[esp+8]
  0001c	e8 00 00 00 00	 call	 ??$uninitialized_copy@PADPAD@_STL@@YAPADPAD00@Z ; _STL::uninitialized_copy<char *,char *>
  00021	83 c4 0c	 add	 esp, 12			; 0000000cH
  00024	89 46 04	 mov	 DWORD PTR [esi+4], eax

; 387  :     _M_terminate_string();

  00027	c6 00 00	 mov	 BYTE PTR [eax], 0
  0002a	5e		 pop	 esi

; 388  :   }

  0002b	c2 0c 00	 ret	 12			; 0000000cH
??$_M_range_initialize@PAD@?$basic_string@DV?$char_traits@D@_STL@@V?$allocator@D@2@@_STL@@AAEXPAD0ABUforward_iterator_tag@1@@Z ENDP ; _STL::basic_string<char,_STL::char_traits<char>,_STL::allocator<char> >::_M_range_initialize<char *>
_TEXT	ENDS
PUBLIC	??$__copy_aux@PADPAD@_STL@@YAPADPAD00ABU__true_type@0@@Z ; _STL::__copy_aux<char *,char *>
; Function compile flags: /Ogsy
; File c:\stlport-4.6.1\stlport\stl\_uninitialized.h
;	COMDAT ??$uninitialized_copy@PADPAD@_STL@@YAPADPAD00@Z
_TEXT	SEGMENT
$T103922 = -1						; size = 1
$T103920 = -1						; size = 1
___first$ = 8						; size = 4
___last$ = 12						; size = 4
___result$ = 16						; size = 4
??$uninitialized_copy@PADPAD@_STL@@YAPADPAD00@Z PROC NEAR ; _STL::uninitialized_copy<char *,char *>, COMDAT

; 78   : uninitialized_copy(_InputIter __first, _InputIter __last, _ForwardIter __result) {

  00000	55		 push	 ebp
  00001	8b ec		 mov	 ebp, esp
  00003	51		 push	 ecx
  00004	57		 push	 edi

; 79   :   return __uninitialized_copy(__first, __last, __result,  _IS_POD_ITER(__result, _ForwardIter));

  00005	33 c0		 xor	 eax, eax
  00007	8d 7d ff	 lea	 edi, DWORD PTR $T103922[ebp]
  0000a	aa		 stosb
  0000b	8a 45 ff	 mov	 al, BYTE PTR $T103922[ebp]
  0000e	88 45 ff	 mov	 BYTE PTR $T103920[ebp], al
  00011	8d 45 ff	 lea	 eax, DWORD PTR $T103920[ebp]
  00014	50		 push	 eax
  00015	ff 75 10	 push	 DWORD PTR ___result$[ebp]
  00018	ff 75 0c	 push	 DWORD PTR ___last$[ebp]
  0001b	ff 75 08	 push	 DWORD PTR ___first$[ebp]
  0001e	e8 00 00 00 00	 call	 ??$__copy_aux@PADPAD@_STL@@YAPADPAD00ABU__true_type@0@@Z ; _STL::__copy_aux<char *,char *>
  00023	83 c4 10	 add	 esp, 16			; 00000010H
  00026	5f		 pop	 edi

; 80   : }

  00027	c9		 leave
  00028	c3		 ret	 0
??$uninitialized_copy@PADPAD@_STL@@YAPADPAD00@Z ENDP	; _STL::uninitialized_copy<char *,char *>
; Function compile flags: /Ogsy
; File c:\stlport-4.6.1\stlport\stl\_algobase.h
_TEXT	ENDS
;	COMDAT ??$__copy_aux@PADPAD@_STL@@YAPADPAD00ABU__true_type@0@@Z
_TEXT	SEGMENT
___first$ = 8						; size = 4
___last$ = 12						; size = 4
___result$ = 16						; size = 4
___formal$ = 20						; size = 4
??$__copy_aux@PADPAD@_STL@@YAPADPAD00ABU__true_type@0@@Z PROC NEAR ; _STL::__copy_aux<char *,char *>, COMDAT

; 201  : inline _OutputIter __copy_aux(_InputIter __first, _InputIter __last, _OutputIter __result, const __true_type&) {

  00000	55		 push	 ebp
  00001	8b ec		 mov	 ebp, esp
  00003	56		 push	 esi

; 202  :   return __copy_ptrs(__first, __last, __result, 
; 203  :                      _IsOKToMemCpy(_STLP_VALUE_TYPE(__first, _InputIter), 
; 204  :                                    _STLP_VALUE_TYPE(__result, _OutputIter))._Ret());

  00004	8b 75 0c	 mov	 esi, DWORD PTR ___last$[ebp]
  00007	3b 75 08	 cmp	 esi, DWORD PTR ___first$[ebp]
  0000a	75 05		 jne	 SHORT $L103949
  0000c	8b 45 10	 mov	 eax, DWORD PTR ___result$[ebp]
  0000f	eb 14		 jmp	 SHORT $L103950
$L103949:
  00011	2b 75 08	 sub	 esi, DWORD PTR ___first$[ebp]
  00014	56		 push	 esi
  00015	ff 75 08	 push	 DWORD PTR ___first$[ebp]
  00018	ff 75 10	 push	 DWORD PTR ___result$[ebp]
  0001b	e8 00 00 00 00	 call	 _memmove
  00020	83 c4 0c	 add	 esp, 12			; 0000000cH
  00023	03 c6		 add	 eax, esi
$L103950:
  00025	5e		 pop	 esi

; 205  : }

  00026	5d		 pop	 ebp
  00027	c3		 ret	 0
??$__copy_aux@PADPAD@_STL@@YAPADPAD00ABU__true_type@0@@Z ENDP ; _STL::__copy_aux<char *,char *>
; Function compile flags: /Ogsy
; File c:\darkeden\designed_common\project\client\packet\exception.h
_TEXT	ENDS
;	COMDAT ?getStackTrace@Throwable@@QBE?AV?$basic_string@DV?$char_traits@D@_STL@@V?$allocator@D@2@@_STL@@XZ
_TEXT	SEGMENT
_buf$ = -36						; size = 20
$T103957 = -16						; size = 12
tv90 = -4						; size = 4
___$ReturnUdt$ = 8					; size = 4
?getStackTrace@Throwable@@QBE?AV?$basic_string@DV?$char_traits@D@_STL@@V?$allocator@D@2@@_STL@@XZ PROC NEAR ; Throwable::getStackTrace, COMDAT
; _this$ = ecx

; 56   : 	{

  00000	55		 push	 ebp
  00001	8b ec		 mov	 ebp, esp
  00003	83 ec 24	 sub	 esp, 36			; 00000024H
  00006	53		 push	 ebx
  00007	56		 push	 esi
  00008	57		 push	 edi
  00009	8b f9		 mov	 edi, ecx

; 57   : 		StringStream buf;

  0000b	8d 4d dc	 lea	 ecx, DWORD PTR _buf$[ebp]
  0000e	e8 00 00 00 00	 call	 ??0StringStream@@QAE@XZ	; StringStream::StringStream

; 58   : 		int i = 1;
; 59   : 
; 60   : 		for ( std::list<std::string>::const_iterator itr = m_Stacks.begin() ;

  00013	8b 47 10	 mov	 eax, DWORD PTR [edi+16]
  00016	8b 30		 mov	 esi, DWORD PTR [eax]
  00018	33 db		 xor	 ebx, ebx
  0001a	43		 inc	 ebx

; 61   : 			  itr != m_Stacks.end() ;
; 62   : 			  itr ++ , i ++ ) {

  0001b	3b f0		 cmp	 esi, eax
  0001d	74 36		 je	 SHORT $L88001
$L87999:

; 63   : 			for ( int j = 0 ; j < i ; j ++ )

  0001f	85 db		 test	 ebx, ebx
  00021	7e 15		 jle	 SHORT $L88005
  00023	89 5d fc	 mov	 DWORD PTR tv90[ebp], ebx
$L88003:

; 64   : 				buf << " ";

  00026	68 00 00 00 00	 push	 OFFSET FLAT:??_C@_01CLKCMJKC@?5?$AA@
  0002b	8d 4d dc	 lea	 ecx, DWORD PTR _buf$[ebp]
  0002e	e8 00 00 00 00	 call	 ??6StringStream@@QAEAAV0@PBD@Z ; StringStream::operator<<
  00033	ff 4d fc	 dec	 DWORD PTR tv90[ebp]
  00036	75 ee		 jne	 SHORT $L88003
$L88005:

; 65   : 			buf << *itr << '\n' ;

  00038	6a 0a		 push	 10			; 0000000aH
  0003a	8d 46 08	 lea	 eax, DWORD PTR [esi+8]
  0003d	50		 push	 eax
  0003e	8d 4d dc	 lea	 ecx, DWORD PTR _buf$[ebp]
  00041	e8 00 00 00 00	 call	 ??6StringStream@@QAEAAV0@ABV?$basic_string@DV?$char_traits@D@_STL@@V?$allocator@D@2@@_STL@@@Z ; StringStream::operator<<
  00046	8b c8		 mov	 ecx, eax
  00048	e8 00 00 00 00	 call	 ??6StringStream@@QAEAAV0@D@Z ; StringStream::operator<<
  0004d	8b 36		 mov	 esi, DWORD PTR [esi]
  0004f	43		 inc	 ebx
  00050	3b 77 10	 cmp	 esi, DWORD PTR [edi+16]
  00053	75 ca		 jne	 SHORT $L87999
$L88001:

; 66   : 		}
; 67   : 		
; 68   : 		return std::string( buf.toString() );

  00055	8d 45 f0	 lea	 eax, DWORD PTR $T103957[ebp]
  00058	50		 push	 eax
  00059	8d 4d dc	 lea	 ecx, DWORD PTR _buf$[ebp]
  0005c	e8 00 00 00 00	 call	 ?toString@StringStream@@QBE?AV?$basic_string@DV?$char_traits@D@_STL@@V?$allocator@D@2@@_STL@@XZ ; StringStream::toString
  00061	8b 4d 08	 mov	 ecx, DWORD PTR ___$ReturnUdt$[ebp]
  00064	50		 push	 eax
  00065	e8 00 00 00 00	 call	 ??0?$basic_string@DV?$char_traits@D@_STL@@V?$allocator@D@2@@_STL@@QAE@ABV01@@Z ; _STL::basic_string<char,_STL::char_traits<char>,_STL::allocator<char> >::basic_string<char,_STL::char_traits<char>,_STL::allocator<char> >
  0006a	8d 4d f0	 lea	 ecx, DWORD PTR $T103957[ebp]
  0006d	e8 00 00 00 00	 call	 ??1?$basic_string@DV?$char_traits@D@_STL@@V?$allocator@D@2@@_STL@@QAE@XZ ; _STL::basic_string<char,_STL::char_traits<char>,_STL::allocator<char> >::~basic_string<char,_STL::char_traits<char>,_STL::allocator<char> >
  00072	8d 4d dc	 lea	 ecx, DWORD PTR _buf$[ebp]
  00075	e8 00 00 00 00	 call	 ??1StringStream@@QAE@XZ	; StringStream::~StringStream
  0007a	8b 45 08	 mov	 eax, DWORD PTR ___$ReturnUdt$[ebp]
  0007d	5f		 pop	 edi
  0007e	5e		 pop	 esi
  0007f	5b		 pop	 ebx

; 69   : 	}

  00080	c9		 leave
  00081	c2 04 00	 ret	 4
?getStackTrace@Throwable@@QBE?AV?$basic_string@DV?$char_traits@D@_STL@@V?$allocator@D@2@@_STL@@XZ ENDP ; Throwable::getStackTrace
_TEXT	ENDS
PUBLIC	??1Throwable@@UAE@XZ				; Throwable::~Throwable
; Function compile flags: /Ogsy
;	COMDAT ??1Throwable@@UAE@XZ
_TEXT	SEGMENT
??1Throwable@@UAE@XZ PROC NEAR				; Throwable::~Throwable, COMDAT
; _this$ = ecx

; 43   : 	virtual ~Throwable () throw () {}

  00000	56		 push	 esi
  00001	8b f1		 mov	 esi, ecx
  00003	8d 4e 10	 lea	 ecx, DWORD PTR [esi+16]
  00006	c7 06 00 00 00
	00		 mov	 DWORD PTR [esi], OFFSET FLAT:??_7Throwable@@6B@
  0000c	e8 00 00 00 00	 call	 ??1?$list@V?$basic_string@DV?$char_traits@D@_STL@@V?$allocator@D@2@@_STL@@V?$allocator@V?$basic_string@DV?$char_traits@D@_STL@@V?$allocator@D@2@@_STL@@@2@@_STL@@QAE@XZ ; _STL::list<_STL::basic_string<char,_STL::char_traits<char>,_STL::allocator<char> >,_STL::allocator<_STL::basic_string<char,_STL::char_traits<char>,_STL::allocator<char> > > >::~list<_STL::basic_string<char,_STL::char_traits<char>,_STL::allocator<char> >,_STL::allocator<_STL::basic_string<char,_STL::char_traits<char>,_STL::allocator<char> > > >
  00011	8d 4e 04	 lea	 ecx, DWORD PTR [esi+4]
  00014	5e		 pop	 esi
  00015	e9 00 00 00 00	 jmp	 ??1?$basic_string@DV?$char_traits@D@_STL@@V?$allocator@D@2@@_STL@@QAE@XZ ; _STL::basic_string<char,_STL::char_traits<char>,_STL::allocator<char> >::~basic_string<char,_STL::char_traits<char>,_STL::allocator<char> >
??1Throwable@@UAE@XZ ENDP				; Throwable::~Throwable
; Function compile flags: /Ogsy
_TEXT	ENDS
;	COMDAT ??_GThrowable@@UAEPAXI@Z
_TEXT	SEGMENT
___flags$ = 8						; size = 4
??_GThrowable@@UAEPAXI@Z PROC NEAR			; Throwable::`scalar deleting destructor', COMDAT
; _this$ = ecx
  00000	56		 push	 esi
  00001	8b f1		 mov	 esi, ecx
  00003	e8 00 00 00 00	 call	 ??1Throwable@@UAE@XZ	; Throwable::~Throwable
  00008	f6 44 24 08 01	 test	 BYTE PTR ___flags$[esp], 1
  0000d	74 07		 je	 SHORT $L88026
  0000f	56		 push	 esi
  00010	e8 00 00 00 00	 call	 ??3@YAXPAX@Z		; operator delete
  00015	59		 pop	 ecx
$L88026:
  00016	8b c6		 mov	 eax, esi
  00018	5e		 pop	 esi
  00019	c2 04 00	 ret	 4
??_GThrowable@@UAEPAXI@Z ENDP				; Throwable::`scalar deleting destructor'
_TEXT	ENDS
PUBLIC	??_R1A@?0A@A@Exception@@8			; Exception::`RTTI Base Class Descriptor at (0,-1,0,0)'
PUBLIC	??_R0?AVException@@@8				; Exception `RTTI Type Descriptor'
PUBLIC	??_R4Exception@@6B@				; Exception::`RTTI Complete Object Locator'
PUBLIC	??_R3Exception@@8				; Exception::`RTTI Class Hierarchy Descriptor'
PUBLIC	??_R2Exception@@8				; Exception::`RTTI Base Class Array'
PUBLIC	??0Exception@@QAE@XZ				; Exception::Exception
PUBLIC	?getName@Exception@@UBE?AV?$basic_string@DV?$char_traits@D@_STL@@V?$allocator@D@2@@_STL@@XZ ; Exception::getName
PUBLIC	??_7Exception@@6B@				; Exception::`vftable'
PUBLIC	??_GException@@UAEPAXI@Z			; Exception::`scalar deleting destructor'
EXTRN	??_EException@@UAEPAXI@Z:NEAR			; Exception::`vector deleting destructor'
;	COMDAT ??_7Exception@@6B@
CONST	SEGMENT
??_7Exception@@6B@ DD FLAT:??_R4Exception@@6B@		; Exception::`vftable'
	DD	FLAT:??_EException@@UAEPAXI@Z
	DD	FLAT:?getName@Exception@@UBE?AV?$basic_string@DV?$char_traits@D@_STL@@V?$allocator@D@2@@_STL@@XZ
	DD	FLAT:?toString@Throwable@@UBE?AV?$basic_string@DV?$char_traits@D@_STL@@V?$allocator@D@2@@_STL@@XZ
CONST	ENDS
;	COMDAT ??_R4Exception@@6B@
rdata$r	SEGMENT
??_R4Exception@@6B@ DD 00H				; Exception::`RTTI Complete Object Locator'
	DD	00H
	DD	00H
	DD	FLAT:??_R0?AVException@@@8
	DD	FLAT:??_R3Exception@@8
rdata$r	ENDS
;	COMDAT ??_R0?AVException@@@8
_DATA	SEGMENT
??_R0?AVException@@@8 DD FLAT:??_7type_info@@6B@	; Exception `RTTI Type Descriptor'
	DD	00H
	DB	'.?AVException@@', 00H
	ORG $-24
	DD	FLAT:??_7type_info@@6B@
	DD	00H
	DB	'.?AVException@@', 00H
_DATA	ENDS
;	COMDAT ??_R3Exception@@8
rdata$r	SEGMENT
??_R3Exception@@8 DD 00H				; Exception::`RTTI Class Hierarchy Descriptor'
	DD	00H
	DD	02H
	DD	FLAT:??_R2Exception@@8
rdata$r	ENDS
;	COMDAT ??_R2Exception@@8
rdata$r	SEGMENT
??_R2Exception@@8 DD FLAT:??_R1A@?0A@A@Exception@@8	; Exception::`RTTI Base Class Array'
	DD	FLAT:??_R1A@?0A@A@Throwable@@8
rdata$r	ENDS
;	COMDAT ??_R1A@?0A@A@Exception@@8
rdata$r	SEGMENT
??_R1A@?0A@A@Exception@@8 DD FLAT:??_R0?AVException@@@8	; Exception::`RTTI Base Class Descriptor at (0,-1,0,0)'
	DD	01H
	DD	00H
	DD	0ffffffffH
	DD	00H
	DD	00H
; Function compile flags: /Ogsy
rdata$r	ENDS
;	COMDAT ??0Exception@@QAE@XZ
_TEXT	SEGMENT
??0Exception@@QAE@XZ PROC NEAR				; Exception::Exception, COMDAT
; _this$ = ecx

; 174  : 	Exception () throw () : Throwable() {}

  00000	56		 push	 esi
  00001	8b f1		 mov	 esi, ecx
  00003	e8 00 00 00 00	 call	 ??0Throwable@@QAE@XZ	; Throwable::Throwable
  00008	c7 06 00 00 00
	00		 mov	 DWORD PTR [esi], OFFSET FLAT:??_7Exception@@6B@
  0000e	8b c6		 mov	 eax, esi
  00010	5e		 pop	 esi
  00011	c3		 ret	 0
??0Exception@@QAE@XZ ENDP				; Exception::Exception
_TEXT	ENDS
PUBLIC	??_C@_09FBNMMHMJ@Exception?$AA@			; `string'
;	COMDAT ??_C@_09FBNMMHMJ@Exception?$AA@
; File c:\stlport-4.6.1\stlport\stl\_alloc.h
CONST	SEGMENT
??_C@_09FBNMMHMJ@Exception?$AA@ DB 'Exception', 00H	; `string'
; Function compile flags: /Ogsy
; File c:\darkeden\designed_common\project\client\packet\exception.h
CONST	ENDS
;	COMDAT ?getName@Exception@@UBE?AV?$basic_string@DV?$char_traits@D@_STL@@V?$allocator@D@2@@_STL@@XZ
_TEXT	SEGMENT
___$ReturnUdt$ = 8					; size = 4
$T104021 = 11						; size = 1
?getName@Exception@@UBE?AV?$basic_string@DV?$char_traits@D@_STL@@V?$allocator@D@2@@_STL@@XZ PROC NEAR ; Exception::getName, COMDAT
; _this$ = ecx

; 176  : 	std::string getName () const throw () { return "Exception"; }

  00000	55		 push	 ebp
  00001	8b ec		 mov	 ebp, esp
  00003	8b 4d 08	 mov	 ecx, DWORD PTR ___$ReturnUdt$[ebp]
  00006	8d 45 0b	 lea	 eax, DWORD PTR $T104021[ebp]
  00009	50		 push	 eax
  0000a	68 00 00 00 00	 push	 OFFSET FLAT:??_C@_09FBNMMHMJ@Exception?$AA@
  0000f	e8 00 00 00 00	 call	 ??0?$basic_string@DV?$char_traits@D@_STL@@V?$allocator@D@2@@_STL@@QAE@PBDABV?$allocator@D@1@@Z ; _STL::basic_string<char,_STL::char_traits<char>,_STL::allocator<char> >::basic_string<char,_STL::char_traits<char>,_STL::allocator<char> >
  00014	8b 45 08	 mov	 eax, DWORD PTR ___$ReturnUdt$[ebp]
  00017	5d		 pop	 ebp
  00018	c2 04 00	 ret	 4
?getName@Exception@@UBE?AV?$basic_string@DV?$char_traits@D@_STL@@V?$allocator@D@2@@_STL@@XZ ENDP ; Exception::getName
_TEXT	ENDS
PUBLIC	??1Exception@@UAE@XZ				; Exception::~Exception
; Function compile flags: /Ogsy
;	COMDAT ??1Exception@@UAE@XZ
_TEXT	SEGMENT
??1Exception@@UAE@XZ PROC NEAR				; Exception::~Exception, COMDAT
; _this$ = ecx
  00000	e9 00 00 00 00	 jmp	 ??1Throwable@@UAE@XZ	; Throwable::~Throwable
??1Exception@@UAE@XZ ENDP				; Exception::~Exception
_TEXT	ENDS
PUBLIC	??0IOException@@QAE@XZ				; IOException::IOException
PUBLIC	?getName@IOException@@UBE?AV?$basic_string@DV?$char_traits@D@_STL@@V?$allocator@D@2@@_STL@@XZ ; IOException::getName
PUBLIC	??_R4IOException@@6B@				; IOException::`RTTI Complete Object Locator'
PUBLIC	??_R3IOException@@8				; IOException::`RTTI Class Hierarchy Descriptor'
PUBLIC	??_R2IOException@@8				; IOException::`RTTI Base Class Array'
PUBLIC	??_7IOException@@6B@				; IOException::`vftable'
PUBLIC	??_GIOException@@UAEPAXI@Z			; IOException::`scalar deleting destructor'
PUBLIC	??_R1A@?0A@A@IOException@@8			; IOException::`RTTI Base Class Descriptor at (0,-1,0,0)'
PUBLIC	??_R0?AVIOException@@@8				; IOException `RTTI Type Descriptor'
EXTRN	??_EIOException@@UAEPAXI@Z:NEAR			; IOException::`vector deleting destructor'
;	COMDAT ??_7IOException@@6B@
CONST	SEGMENT
??_7IOException@@6B@ DD FLAT:??_R4IOException@@6B@	; IOException::`vftable'
	DD	FLAT:??_EIOException@@UAEPAXI@Z
	DD	FLAT:?getName@IOException@@UBE?AV?$basic_string@DV?$char_traits@D@_STL@@V?$allocator@D@2@@_STL@@XZ
	DD	FLAT:?toString@Throwable@@UBE?AV?$basic_string@DV?$char_traits@D@_STL@@V?$allocator@D@2@@_STL@@XZ
CONST	ENDS
;	COMDAT ??_R4IOException@@6B@
rdata$r	SEGMENT
??_R4IOException@@6B@ DD 00H				; IOException::`RTTI Complete Object Locator'
	DD	00H
	DD	00H
	DD	FLAT:??_R0?AVIOException@@@8
	DD	FLAT:??_R3IOException@@8
rdata$r	ENDS
;	COMDAT ??_R0?AVIOException@@@8
_DATA	SEGMENT
??_R0?AVIOException@@@8 DD FLAT:??_7type_info@@6B@	; IOException `RTTI Type Descriptor'
	DD	00H
	DB	'.?AVIOException@@', 00H
	ORG $-26
	DD	FLAT:??_7type_info@@6B@
	DD	00H
	DB	'.?AVIOException@@', 00H
_DATA	ENDS
;	COMDAT ??_R3IOException@@8
rdata$r	SEGMENT
??_R3IOException@@8 DD 00H				; IOException::`RTTI Class Hierarchy Descriptor'
	DD	00H
	DD	03H
	DD	FLAT:??_R2IOException@@8
rdata$r	ENDS
;	COMDAT ??_R2IOException@@8
rdata$r	SEGMENT
??_R2IOException@@8 DD FLAT:??_R1A@?0A@A@IOException@@8	; IOException::`RTTI Base Class Array'
	DD	FLAT:??_R1A@?0A@A@Exception@@8
	DD	FLAT:??_R1A@?0A@A@Throwable@@8
rdata$r	ENDS
;	COMDAT ??_R1A@?0A@A@IOException@@8
rdata$r	SEGMENT
??_R1A@?0A@A@IOException@@8 DD FLAT:??_R0?AVIOException@@@8 ; IOException::`RTTI Base Class Descriptor at (0,-1,0,0)'
	DD	02H
	DD	00H
	DD	0ffffffffH
	DD	00H
	DD	00H
; Function compile flags: /Ogsy
rdata$r	ENDS
;	COMDAT ??0IOException@@QAE@XZ
_TEXT	SEGMENT
??0IOException@@QAE@XZ PROC NEAR			; IOException::IOException, COMDAT
; _this$ = ecx

; 189  : 		IOException () throw () : Exception () {}

  00000	56		 push	 esi
  00001	8b f1		 mov	 esi, ecx
  00003	e8 00 00 00 00	 call	 ??0Exception@@QAE@XZ	; Exception::Exception
  00008	c7 06 00 00 00
	00		 mov	 DWORD PTR [esi], OFFSET FLAT:??_7IOException@@6B@
  0000e	8b c6		 mov	 eax, esi
  00010	5e		 pop	 esi
  00011	c3		 ret	 0
??0IOException@@QAE@XZ ENDP				; IOException::IOException
_TEXT	ENDS
PUBLIC	??_C@_0M@CBPJAJJI@IOException?$AA@		; `string'
;	COMDAT ??_C@_0M@CBPJAJJI@IOException?$AA@
; File c:\stlport-4.6.1\stlport\stl\_alloc.h
CONST	SEGMENT
??_C@_0M@CBPJAJJI@IOException?$AA@ DB 'IOException', 00H ; `string'
; Function compile flags: /Ogsy
; File c:\darkeden\designed_common\project\client\packet\exception.h
CONST	ENDS
;	COMDAT ?getName@IOException@@UBE?AV?$basic_string@DV?$char_traits@D@_STL@@V?$allocator@D@2@@_STL@@XZ
_TEXT	SEGMENT
___$ReturnUdt$ = 8					; size = 4
$T104036 = 11						; size = 1
?getName@IOException@@UBE?AV?$basic_string@DV?$char_traits@D@_STL@@V?$allocator@D@2@@_STL@@XZ PROC NEAR ; IOException::getName, COMDAT
; _this$ = ecx

; 191  : 		std::string getName () const throw () { return "IOException"; }

  00000	55		 push	 ebp
  00001	8b ec		 mov	 ebp, esp
  00003	8b 4d 08	 mov	 ecx, DWORD PTR ___$ReturnUdt$[ebp]
  00006	8d 45 0b	 lea	 eax, DWORD PTR $T104036[ebp]
  00009	50		 push	 eax
  0000a	68 00 00 00 00	 push	 OFFSET FLAT:??_C@_0M@CBPJAJJI@IOException?$AA@
  0000f	e8 00 00 00 00	 call	 ??0?$basic_string@DV?$char_traits@D@_STL@@V?$allocator@D@2@@_STL@@QAE@PBDABV?$allocator@D@1@@Z ; _STL::basic_string<char,_STL::char_traits<char>,_STL::allocator<char> >::basic_string<char,_STL::char_traits<char>,_STL::allocator<char> >
  00014	8b 45 08	 mov	 eax, DWORD PTR ___$ReturnUdt$[ebp]
  00017	5d		 pop	 ebp
  00018	c2 04 00	 ret	 4
?getName@IOException@@UBE?AV?$basic_string@DV?$char_traits@D@_STL@@V?$allocator@D@2@@_STL@@XZ ENDP ; IOException::getName
_TEXT	ENDS
PUBLIC	??1IOException@@UAE@XZ				; IOException::~IOException
; Function compile flags: /Ogsy
;	COMDAT ??1IOException@@UAE@XZ
_TEXT	SEGMENT
??1IOException@@UAE@XZ PROC NEAR			; IOException::~IOException, COMDAT
; _this$ = ecx
  00000	e9 00 00 00 00	 jmp	 ??1Exception@@UAE@XZ
??1IOException@@UAE@XZ ENDP				; IOException::~IOException
_TEXT	ENDS
PUBLIC	??0ProtocolException@@QAE@XZ			; ProtocolException::ProtocolException
PUBLIC	?getName@ProtocolException@@UBE?AV?$basic_string@DV?$char_traits@D@_STL@@V?$allocator@D@2@@_STL@@XZ ; ProtocolException::getName
PUBLIC	??_7ProtocolException@@6B@			; ProtocolException::`vftable'
PUBLIC	??_GProtocolException@@UAEPAXI@Z		; ProtocolException::`scalar deleting destructor'
PUBLIC	??_R1A@?0A@A@ProtocolException@@8		; ProtocolException::`RTTI Base Class Descriptor at (0,-1,0,0)'
PUBLIC	??_R0?AVProtocolException@@@8			; ProtocolException `RTTI Type Descriptor'
PUBLIC	??_R4ProtocolException@@6B@			; ProtocolException::`RTTI Complete Object Locator'
PUBLIC	??_R3ProtocolException@@8			; ProtocolException::`RTTI Class Hierarchy Descriptor'
PUBLIC	??_R2ProtocolException@@8			; ProtocolException::`RTTI Base Class Array'
EXTRN	??_EProtocolException@@UAEPAXI@Z:NEAR		; ProtocolException::`vector deleting destructor'
;	COMDAT ??_7ProtocolException@@6B@
CONST	SEGMENT
??_7ProtocolException@@6B@ DD FLAT:??_R4ProtocolException@@6B@ ; ProtocolException::`vftable'
	DD	FLAT:??_EProtocolException@@UAEPAXI@Z
	DD	FLAT:?getName@ProtocolException@@UBE?AV?$basic_string@DV?$char_traits@D@_STL@@V?$allocator@D@2@@_STL@@XZ
	DD	FLAT:?toString@Throwable@@UBE?AV?$basic_string@DV?$char_traits@D@_STL@@V?$allocator@D@2@@_STL@@XZ
CONST	ENDS
;	COMDAT ??_R4ProtocolException@@6B@
rdata$r	SEGMENT
??_R4ProtocolException@@6B@ DD 00H			; ProtocolException::`RTTI Complete Object Locator'
	DD	00H
	DD	00H
	DD	FLAT:??_R0?AVProtocolException@@@8
	DD	FLAT:??_R3ProtocolException@@8
rdata$r	ENDS
;	COMDAT ??_R0?AVProtocolException@@@8
_DATA	SEGMENT
??_R0?AVProtocolException@@@8 DD FLAT:??_7type_info@@6B@ ; ProtocolException `RTTI Type Descriptor'
	DD	00H
	DB	'.?AVProtocolException@@', 00H
	ORG $-32
	DD	FLAT:??_7type_info@@6B@
	DD	00H
	DB	'.?AVProtocolException@@', 00H
_DATA	ENDS
;	COMDAT ??_R3ProtocolException@@8
rdata$r	SEGMENT
??_R3ProtocolException@@8 DD 00H			; ProtocolException::`RTTI Class Hierarchy Descriptor'
	DD	00H
	DD	04H
	DD	FLAT:??_R2ProtocolException@@8
rdata$r	ENDS
;	COMDAT ??_R2ProtocolException@@8
rdata$r	SEGMENT
??_R2ProtocolException@@8 DD FLAT:??_R1A@?0A@A@ProtocolException@@8 ; ProtocolException::`RTTI Base Class Array'
	DD	FLAT:??_R1A@?0A@A@IOException@@8
	DD	FLAT:??_R1A@?0A@A@Exception@@8
	DD	FLAT:??_R1A@?0A@A@Throwable@@8
rdata$r	ENDS
;	COMDAT ??_R1A@?0A@A@ProtocolException@@8
rdata$r	SEGMENT
??_R1A@?0A@A@ProtocolException@@8 DD FLAT:??_R0?AVProtocolException@@@8 ; ProtocolException::`RTTI Base Class Descriptor at (0,-1,0,0)'
	DD	03H
	DD	00H
	DD	0ffffffffH
	DD	00H
	DD	00H
; Function compile flags: /Ogsy
rdata$r	ENDS
;	COMDAT ??0ProtocolException@@QAE@XZ
_TEXT	SEGMENT
??0ProtocolException@@QAE@XZ PROC NEAR			; ProtocolException::ProtocolException, COMDAT
; _this$ = ecx

; 337  : 			ProtocolException () throw () : IOException () {}

  00000	56		 push	 esi
  00001	8b f1		 mov	 esi, ecx
  00003	e8 00 00 00 00	 call	 ??0IOException@@QAE@XZ	; IOException::IOException
  00008	c7 06 00 00 00
	00		 mov	 DWORD PTR [esi], OFFSET FLAT:??_7ProtocolException@@6B@
  0000e	8b c6		 mov	 eax, esi
  00010	5e		 pop	 esi
  00011	c3		 ret	 0
??0ProtocolException@@QAE@XZ ENDP			; ProtocolException::ProtocolException
_TEXT	ENDS
PUBLIC	??_C@_0BC@KDBIDNIF@ProtocolException?$AA@	; `string'
;	COMDAT ??_C@_0BC@KDBIDNIF@ProtocolException?$AA@
; File c:\stlport-4.6.1\stlport\stl\_alloc.h
CONST	SEGMENT
??_C@_0BC@KDBIDNIF@ProtocolException?$AA@ DB 'ProtocolException', 00H ; `string'
; Function compile flags: /Ogsy
; File c:\darkeden\designed_common\project\client\packet\exception.h
CONST	ENDS
;	COMDAT ?getName@ProtocolException@@UBE?AV?$basic_string@DV?$char_traits@D@_STL@@V?$allocator@D@2@@_STL@@XZ
_TEXT	SEGMENT
___$ReturnUdt$ = 8					; size = 4
$T104051 = 11						; size = 1
?getName@ProtocolException@@UBE?AV?$basic_string@DV?$char_traits@D@_STL@@V?$allocator@D@2@@_STL@@XZ PROC NEAR ; ProtocolException::getName, COMDAT
; _this$ = ecx

; 339  : 			std::string getName () const throw () { return "ProtocolException"; }

  00000	55		 push	 ebp
  00001	8b ec		 mov	 ebp, esp
  00003	8b 4d 08	 mov	 ecx, DWORD PTR ___$ReturnUdt$[ebp]
  00006	8d 45 0b	 lea	 eax, DWORD PTR $T104051[ebp]
  00009	50		 push	 eax
  0000a	68 00 00 00 00	 push	 OFFSET FLAT:??_C@_0BC@KDBIDNIF@ProtocolException?$AA@
  0000f	e8 00 00 00 00	 call	 ??0?$basic_string@DV?$char_traits@D@_STL@@V?$allocator@D@2@@_STL@@QAE@PBDABV?$allocator@D@1@@Z ; _STL::basic_string<char,_STL::char_traits<char>,_STL::allocator<char> >::basic_string<char,_STL::char_traits<char>,_STL::allocator<char> >
  00014	8b 45 08	 mov	 eax, DWORD PTR ___$ReturnUdt$[ebp]
  00017	5d		 pop	 ebp
  00018	c2 04 00	 ret	 4
?getName@ProtocolException@@UBE?AV?$basic_string@DV?$char_traits@D@_STL@@V?$allocator@D@2@@_STL@@XZ ENDP ; ProtocolException::getName
_TEXT	ENDS
PUBLIC	??1ProtocolException@@UAE@XZ			; ProtocolException::~ProtocolException
; Function compile flags: /Ogsy
;	COMDAT ??1ProtocolException@@UAE@XZ
_TEXT	SEGMENT
??1ProtocolException@@UAE@XZ PROC NEAR			; ProtocolException::~ProtocolException, COMDAT
; _this$ = ecx
  00000	e9 00 00 00 00	 jmp	 ??1IOException@@UAE@XZ
??1ProtocolException@@UAE@XZ ENDP			; ProtocolException::~ProtocolException
_TEXT	ENDS
PUBLIC	??_R1A@?0A@A@IgnorePacketException@@8		; IgnorePacketException::`RTTI Base Class Descriptor at (0,-1,0,0)'
PUBLIC	??0IgnorePacketException@@QAE@XZ		; IgnorePacketException::IgnorePacketException
PUBLIC	?getName@IgnorePacketException@@UBE?AV?$basic_string@DV?$char_traits@D@_STL@@V?$allocator@D@2@@_STL@@XZ ; IgnorePacketException::getName
PUBLIC	??_7IgnorePacketException@@6B@			; IgnorePacketException::`vftable'
PUBLIC	??_GIgnorePacketException@@UAEPAXI@Z		; IgnorePacketException::`scalar deleting destructor'
PUBLIC	??_R4IgnorePacketException@@6B@			; IgnorePacketException::`RTTI Complete Object Locator'
PUBLIC	??_R0?AVIgnorePacketException@@@8		; IgnorePacketException `RTTI Type Descriptor'
PUBLIC	??_R3IgnorePacketException@@8			; IgnorePacketException::`RTTI Class Hierarchy Descriptor'
PUBLIC	??_R2IgnorePacketException@@8			; IgnorePacketException::`RTTI Base Class Array'
EXTRN	??_EIgnorePacketException@@UAEPAXI@Z:NEAR	; IgnorePacketException::`vector deleting destructor'
;	COMDAT ??_7IgnorePacketException@@6B@
CONST	SEGMENT
??_7IgnorePacketException@@6B@ DD FLAT:??_R4IgnorePacketException@@6B@ ; IgnorePacketException::`vftable'
	DD	FLAT:??_EIgnorePacketException@@UAEPAXI@Z
	DD	FLAT:?getName@IgnorePacketException@@UBE?AV?$basic_string@DV?$char_traits@D@_STL@@V?$allocator@D@2@@_STL@@XZ
	DD	FLAT:?toString@Throwable@@UBE?AV?$basic_string@DV?$char_traits@D@_STL@@V?$allocator@D@2@@_STL@@XZ
CONST	ENDS
;	COMDAT ??_R4IgnorePacketException@@6B@
rdata$r	SEGMENT
??_R4IgnorePacketException@@6B@ DD 00H			; IgnorePacketException::`RTTI Complete Object Locator'
	DD	00H
	DD	00H
	DD	FLAT:??_R0?AVIgnorePacketException@@@8
	DD	FLAT:??_R3IgnorePacketException@@8
rdata$r	ENDS
;	COMDAT ??_R0?AVIgnorePacketException@@@8
_DATA	SEGMENT
??_R0?AVIgnorePacketException@@@8 DD FLAT:??_7type_info@@6B@ ; IgnorePacketException `RTTI Type Descriptor'
	DD	00H
	DB	'.?AVIgnorePacketException@@', 00H
	ORG $-36
	DD	FLAT:??_7type_info@@6B@
	DD	00H
	DB	'.?AVIgnorePacketException@@', 00H
_DATA	ENDS
;	COMDAT ??_R3IgnorePacketException@@8
rdata$r	SEGMENT
??_R3IgnorePacketException@@8 DD 00H			; IgnorePacketException::`RTTI Class Hierarchy Descriptor'
	DD	00H
	DD	05H
	DD	FLAT:??_R2IgnorePacketException@@8
rdata$r	ENDS
;	COMDAT ??_R2IgnorePacketException@@8
rdata$r	SEGMENT
??_R2IgnorePacketException@@8 DD FLAT:??_R1A@?0A@A@IgnorePacketException@@8 ; IgnorePacketException::`RTTI Base Class Array'
	DD	FLAT:??_R1A@?0A@A@ProtocolException@@8
	DD	FLAT:??_R1A@?0A@A@IOException@@8
	DD	FLAT:??_R1A@?0A@A@Exception@@8
	DD	FLAT:??_R1A@?0A@A@Throwable@@8
rdata$r	ENDS
;	COMDAT ??_R1A@?0A@A@IgnorePacketException@@8
rdata$r	SEGMENT
??_R1A@?0A@A@IgnorePacketException@@8 DD FLAT:??_R0?AVIgnorePacketException@@@8 ; IgnorePacketException::`RTTI Base Class Descriptor at (0,-1,0,0)'
	DD	04H
	DD	00H
	DD	0ffffffffH
	DD	00H
	DD	00H
; Function compile flags: /Ogsy
rdata$r	ENDS
;	COMDAT ??0IgnorePacketException@@QAE@XZ
_TEXT	SEGMENT
??0IgnorePacketException@@QAE@XZ PROC NEAR		; IgnorePacketException::IgnorePacketException, COMDAT
; _this$ = ecx

; 420  : 				IgnorePacketException () throw () : ProtocolException () {}

  00000	56		 push	 esi
  00001	8b f1		 mov	 esi, ecx
  00003	e8 00 00 00 00	 call	 ??0ProtocolException@@QAE@XZ ; ProtocolException::ProtocolException
  00008	c7 06 00 00 00
	00		 mov	 DWORD PTR [esi], OFFSET FLAT:??_7IgnorePacketException@@6B@
  0000e	8b c6		 mov	 eax, esi
  00010	5e		 pop	 esi
  00011	c3		 ret	 0
??0IgnorePacketException@@QAE@XZ ENDP			; IgnorePacketException::IgnorePacketException
_TEXT	ENDS
PUBLIC	??_C@_0BG@PFJMMBOB@IgnorePacketException?$AA@	; `string'
;	COMDAT ??_C@_0BG@PFJMMBOB@IgnorePacketException?$AA@
; File c:\stlport-4.6.1\stlport\stl\_alloc.h
CONST	SEGMENT
??_C@_0BG@PFJMMBOB@IgnorePacketException?$AA@ DB 'IgnorePacketException', 00H ; `string'
; Function compile flags: /Ogsy
; File c:\darkeden\designed_common\project\client\packet\exception.h
CONST	ENDS
;	COMDAT ?getName@IgnorePacketException@@UBE?AV?$basic_string@DV?$char_traits@D@_STL@@V?$allocator@D@2@@_STL@@XZ
_TEXT	SEGMENT
___$ReturnUdt$ = 8					; size = 4
$T104066 = 11						; size = 1
?getName@IgnorePacketException@@UBE?AV?$basic_string@DV?$char_traits@D@_STL@@V?$allocator@D@2@@_STL@@XZ PROC NEAR ; IgnorePacketException::getName, COMDAT
; _this$ = ecx

; 422  : 				std::string getName () const throw () { return "IgnorePacketException"; }

  00000	55		 push	 ebp
  00001	8b ec		 mov	 ebp, esp
  00003	8b 4d 08	 mov	 ecx, DWORD PTR ___$ReturnUdt$[ebp]
  00006	8d 45 0b	 lea	 eax, DWORD PTR $T104066[ebp]
  00009	50		 push	 eax
  0000a	68 00 00 00 00	 push	 OFFSET FLAT:??_C@_0BG@PFJMMBOB@IgnorePacketException?$AA@
  0000f	e8 00 00 00 00	 call	 ??0?$basic_string@DV?$char_traits@D@_STL@@V?$allocator@D@2@@_STL@@QAE@PBDABV?$allocator@D@1@@Z ; _STL::basic_string<char,_STL::char_traits<char>,_STL::allocator<char> >::basic_string<char,_STL::char_traits<char>,_STL::allocator<char> >
  00014	8b 45 08	 mov	 eax, DWORD PTR ___$ReturnUdt$[ebp]
  00017	5d		 pop	 ebp
  00018	c2 04 00	 ret	 4
?getName@IgnorePacketException@@UBE?AV?$basic_string@DV?$char_traits@D@_STL@@V?$allocator@D@2@@_STL@@XZ ENDP ; IgnorePacketException::getName
_TEXT	ENDS
PUBLIC	??_R4RuntimeException@@6B@			; RuntimeException::`RTTI Complete Object Locator'
PUBLIC	??_R0?AVRuntimeException@@@8			; RuntimeException `RTTI Type Descriptor'
PUBLIC	??_R3RuntimeException@@8			; RuntimeException::`RTTI Class Hierarchy Descriptor'
PUBLIC	??_R2RuntimeException@@8			; RuntimeException::`RTTI Base Class Array'
PUBLIC	??_R1A@?0A@A@RuntimeException@@8		; RuntimeException::`RTTI Base Class Descriptor at (0,-1,0,0)'
PUBLIC	??0RuntimeException@@QAE@XZ			; RuntimeException::RuntimeException
PUBLIC	?getName@RuntimeException@@UBE?AV?$basic_string@DV?$char_traits@D@_STL@@V?$allocator@D@2@@_STL@@XZ ; RuntimeException::getName
PUBLIC	??_7RuntimeException@@6B@			; RuntimeException::`vftable'
PUBLIC	??_GRuntimeException@@UAEPAXI@Z			; RuntimeException::`scalar deleting destructor'
EXTRN	??_ERuntimeException@@UAEPAXI@Z:NEAR		; RuntimeException::`vector deleting destructor'
;	COMDAT ??_7RuntimeException@@6B@
CONST	SEGMENT
??_7RuntimeException@@6B@ DD FLAT:??_R4RuntimeException@@6B@ ; RuntimeException::`vftable'
	DD	FLAT:??_ERuntimeException@@UAEPAXI@Z
	DD	FLAT:?getName@RuntimeException@@UBE?AV?$basic_string@DV?$char_traits@D@_STL@@V?$allocator@D@2@@_STL@@XZ
	DD	FLAT:?toString@Throwable@@UBE?AV?$basic_string@DV?$char_traits@D@_STL@@V?$allocator@D@2@@_STL@@XZ
CONST	ENDS
;	COMDAT ??_R4RuntimeException@@6B@
rdata$r	SEGMENT
??_R4RuntimeException@@6B@ DD 00H			; RuntimeException::`RTTI Complete Object Locator'
	DD	00H
	DD	00H
	DD	FLAT:??_R0?AVRuntimeException@@@8
	DD	FLAT:??_R3RuntimeException@@8
rdata$r	ENDS
;	COMDAT ??_R0?AVRuntimeException@@@8
_DATA	SEGMENT
??_R0?AVRuntimeException@@@8 DD FLAT:??_7type_info@@6B@	; RuntimeException `RTTI Type Descriptor'
	DD	00H
	DB	'.?AVRuntimeException@@', 00H
	ORG $-31
	DD	FLAT:??_7type_info@@6B@
	DD	00H
	DB	'.?AVRuntimeException@@', 00H
_DATA	ENDS
;	COMDAT ??_R3RuntimeException@@8
rdata$r	SEGMENT
??_R3RuntimeException@@8 DD 00H				; RuntimeException::`RTTI Class Hierarchy Descriptor'
	DD	00H
	DD	03H
	DD	FLAT:??_R2RuntimeException@@8
rdata$r	ENDS
;	COMDAT ??_R2RuntimeException@@8
rdata$r	SEGMENT
??_R2RuntimeException@@8 DD FLAT:??_R1A@?0A@A@RuntimeException@@8 ; RuntimeException::`RTTI Base Class Array'
	DD	FLAT:??_R1A@?0A@A@Exception@@8
	DD	FLAT:??_R1A@?0A@A@Throwable@@8
rdata$r	ENDS
;	COMDAT ??_R1A@?0A@A@RuntimeException@@8
rdata$r	SEGMENT
??_R1A@?0A@A@RuntimeException@@8 DD FLAT:??_R0?AVRuntimeException@@@8 ; RuntimeException::`RTTI Base Class Descriptor at (0,-1,0,0)'
	DD	02H
	DD	00H
	DD	0ffffffffH
	DD	00H
	DD	00H
; Function compile flags: /Ogsy
rdata$r	ENDS
;	COMDAT ??0RuntimeException@@QAE@XZ
_TEXT	SEGMENT
??0RuntimeException@@QAE@XZ PROC NEAR			; RuntimeException::RuntimeException, COMDAT
; _this$ = ecx

; 563  : 		RuntimeException () throw () : Exception () {}

  00000	56		 push	 esi
  00001	8b f1		 mov	 esi, ecx
  00003	e8 00 00 00 00	 call	 ??0Exception@@QAE@XZ	; Exception::Exception
  00008	c7 06 00 00 00
	00		 mov	 DWORD PTR [esi], OFFSET FLAT:??_7RuntimeException@@6B@
  0000e	8b c6		 mov	 eax, esi
  00010	5e		 pop	 esi
  00011	c3		 ret	 0
??0RuntimeException@@QAE@XZ ENDP			; RuntimeException::RuntimeException
_TEXT	ENDS
PUBLIC	??_C@_0BB@CDLLKKB@RuntimeException?$AA@		; `string'
;	COMDAT ??_C@_0BB@CDLLKKB@RuntimeException?$AA@
; File c:\stlport-4.6.1\stlport\stl\_alloc.h
CONST	SEGMENT
??_C@_0BB@CDLLKKB@RuntimeException?$AA@ DB 'RuntimeException', 00H ; `string'
; Function compile flags: /Ogsy
; File c:\darkeden\designed_common\project\client\packet\exception.h
CONST	ENDS
;	COMDAT ?getName@RuntimeException@@UBE?AV?$basic_string@DV?$char_traits@D@_STL@@V?$allocator@D@2@@_STL@@XZ
_TEXT	SEGMENT
___$ReturnUdt$ = 8					; size = 4
$T104078 = 11						; size = 1
?getName@RuntimeException@@UBE?AV?$basic_string@DV?$char_traits@D@_STL@@V?$allocator@D@2@@_STL@@XZ PROC NEAR ; RuntimeException::getName, COMDAT
; _this$ = ecx

; 565  : 		std::string getName () const throw () { return "RuntimeException"; }

  00000	55		 push	 ebp
  00001	8b ec		 mov	 ebp, esp
  00003	8b 4d 08	 mov	 ecx, DWORD PTR ___$ReturnUdt$[ebp]
  00006	8d 45 0b	 lea	 eax, DWORD PTR $T104078[ebp]
  00009	50		 push	 eax
  0000a	68 00 00 00 00	 push	 OFFSET FLAT:??_C@_0BB@CDLLKKB@RuntimeException?$AA@
  0000f	e8 00 00 00 00	 call	 ??0?$basic_string@DV?$char_traits@D@_STL@@V?$allocator@D@2@@_STL@@QAE@PBDABV?$allocator@D@1@@Z ; _STL::basic_string<char,_STL::char_traits<char>,_STL::allocator<char> >::basic_string<char,_STL::char_traits<char>,_STL::allocator<char> >
  00014	8b 45 08	 mov	 eax, DWORD PTR ___$ReturnUdt$[ebp]
  00017	5d		 pop	 ebp
  00018	c2 04 00	 ret	 4
?getName@RuntimeException@@UBE?AV?$basic_string@DV?$char_traits@D@_STL@@V?$allocator@D@2@@_STL@@XZ ENDP ; RuntimeException::getName
_TEXT	ENDS
PUBLIC	??1RuntimeException@@UAE@XZ			; RuntimeException::~RuntimeException
; Function compile flags: /Ogsy
;	COMDAT ??1RuntimeException@@UAE@XZ
_TEXT	SEGMENT
??1RuntimeException@@UAE@XZ PROC NEAR			; RuntimeException::~RuntimeException, COMDAT
; _this$ = ecx
  00000	e9 00 00 00 00	 jmp	 ??1Exception@@UAE@XZ
??1RuntimeException@@UAE@XZ ENDP			; RuntimeException::~RuntimeException
_TEXT	ENDS
PUBLIC	??_GNoSuchElementException@@UAEPAXI@Z		; NoSuchElementException::`scalar deleting destructor'
PUBLIC	??_R4NoSuchElementException@@6B@		; NoSuchElementException::`RTTI Complete Object Locator'
PUBLIC	??_R0?AVNoSuchElementException@@@8		; NoSuchElementException `RTTI Type Descriptor'
PUBLIC	??_R3NoSuchElementException@@8			; NoSuchElementException::`RTTI Class Hierarchy Descriptor'
PUBLIC	??_R2NoSuchElementException@@8			; NoSuchElementException::`RTTI Base Class Array'
PUBLIC	??_R1A@?0A@A@NoSuchElementException@@8		; NoSuchElementException::`RTTI Base Class Descriptor at (0,-1,0,0)'
PUBLIC	??0NoSuchElementException@@QAE@XZ		; NoSuchElementException::NoSuchElementException
PUBLIC	?getName@NoSuchElementException@@UBE?AV?$basic_string@DV?$char_traits@D@_STL@@V?$allocator@D@2@@_STL@@XZ ; NoSuchElementException::getName
PUBLIC	??_7NoSuchElementException@@6B@			; NoSuchElementException::`vftable'
EXTRN	??_ENoSuchElementException@@UAEPAXI@Z:NEAR	; NoSuchElementException::`vector deleting destructor'
;	COMDAT ??_7NoSuchElementException@@6B@
CONST	SEGMENT
??_7NoSuchElementException@@6B@ DD FLAT:??_R4NoSuchElementException@@6B@ ; NoSuchElementException::`vftable'
	DD	FLAT:??_ENoSuchElementException@@UAEPAXI@Z
	DD	FLAT:?getName@NoSuchElementException@@UBE?AV?$basic_string@DV?$char_traits@D@_STL@@V?$allocator@D@2@@_STL@@XZ
	DD	FLAT:?toString@Throwable@@UBE?AV?$basic_string@DV?$char_traits@D@_STL@@V?$allocator@D@2@@_STL@@XZ
CONST	ENDS
;	COMDAT ??_R4NoSuchElementException@@6B@
rdata$r	SEGMENT
??_R4NoSuchElementException@@6B@ DD 00H			; NoSuchElementException::`RTTI Complete Object Locator'
	DD	00H
	DD	00H
	DD	FLAT:??_R0?AVNoSuchElementException@@@8
	DD	FLAT:??_R3NoSuchElementException@@8
rdata$r	ENDS
;	COMDAT ??_R0?AVNoSuchElementException@@@8
_DATA	SEGMENT
??_R0?AVNoSuchElementException@@@8 DD FLAT:??_7type_info@@6B@ ; NoSuchElementException `RTTI Type Descriptor'
	DD	00H
	DB	'.?AVNoSuchElementException@@', 00H
	ORG $-37
	DD	FLAT:??_7type_info@@6B@
	DD	00H
	DB	'.?AVNoSuchElementException@@', 00H
_DATA	ENDS
;	COMDAT ??_R3NoSuchElementException@@8
rdata$r	SEGMENT
??_R3NoSuchElementException@@8 DD 00H			; NoSuchElementException::`RTTI Class Hierarchy Descriptor'
	DD	00H
	DD	04H
	DD	FLAT:??_R2NoSuchElementException@@8
rdata$r	ENDS
;	COMDAT ??_R2NoSuchElementException@@8
rdata$r	SEGMENT
??_R2NoSuchElementException@@8 DD FLAT:??_R1A@?0A@A@NoSuchElementException@@8 ; NoSuchElementException::`RTTI Base Class Array'
	DD	FLAT:??_R1A@?0A@A@RuntimeException@@8
	DD	FLAT:??_R1A@?0A@A@Exception@@8
	DD	FLAT:??_R1A@?0A@A@Throwable@@8
rdata$r	ENDS
;	COMDAT ??_R1A@?0A@A@NoSuchElementException@@8
rdata$r	SEGMENT
??_R1A@?0A@A@NoSuchElementException@@8 DD FLAT:??_R0?AVNoSuchElementException@@@8 ; NoSuchElementException::`RTTI Base Class Descriptor at (0,-1,0,0)'
	DD	03H
	DD	00H
	DD	0ffffffffH
	DD	00H
	DD	00H
; Function compile flags: /Ogsy
rdata$r	ENDS
;	COMDAT ??0NoSuchElementException@@QAE@XZ
_TEXT	SEGMENT
??0NoSuchElementException@@QAE@XZ PROC NEAR		; NoSuchElementException::NoSuchElementException, COMDAT
; _this$ = ecx

; 619  : 			NoSuchElementException () throw () : RuntimeException () {}

  00000	56		 push	 esi
  00001	8b f1		 mov	 esi, ecx
  00003	e8 00 00 00 00	 call	 ??0RuntimeException@@QAE@XZ ; RuntimeException::RuntimeException
  00008	c7 06 00 00 00
	00		 mov	 DWORD PTR [esi], OFFSET FLAT:??_7NoSuchElementException@@6B@
  0000e	8b c6		 mov	 eax, esi
  00010	5e		 pop	 esi
  00011	c3		 ret	 0
??0NoSuchElementException@@QAE@XZ ENDP			; NoSuchElementException::NoSuchElementException
_TEXT	ENDS
PUBLIC	??_C@_0BH@EPEGACME@NoSuchElementException?$AA@	; `string'
;	COMDAT ??_C@_0BH@EPEGACME@NoSuchElementException?$AA@
; File c:\stlport-4.6.1\stlport\stl\_alloc.h
CONST	SEGMENT
??_C@_0BH@EPEGACME@NoSuchElementException?$AA@ DB 'NoSuchElementException'
	DB	00H						; `string'
; Function compile flags: /Ogsy
; File c:\darkeden\designed_common\project\client\packet\exception.h
CONST	ENDS
;	COMDAT ?getName@NoSuchElementException@@UBE?AV?$basic_string@DV?$char_traits@D@_STL@@V?$allocator@D@2@@_STL@@XZ
_TEXT	SEGMENT
___$ReturnUdt$ = 8					; size = 4
$T104093 = 11						; size = 1
?getName@NoSuchElementException@@UBE?AV?$basic_string@DV?$char_traits@D@_STL@@V?$allocator@D@2@@_STL@@XZ PROC NEAR ; NoSuchElementException::getName, COMDAT
; _this$ = ecx

; 621  : 			std::string getName () const throw () { return "NoSuchElementException"; }

  00000	55		 push	 ebp
  00001	8b ec		 mov	 ebp, esp
  00003	8b 4d 08	 mov	 ecx, DWORD PTR ___$ReturnUdt$[ebp]
  00006	8d 45 0b	 lea	 eax, DWORD PTR $T104093[ebp]
  00009	50		 push	 eax
  0000a	68 00 00 00 00	 push	 OFFSET FLAT:??_C@_0BH@EPEGACME@NoSuchElementException?$AA@
  0000f	e8 00 00 00 00	 call	 ??0?$basic_string@DV?$char_traits@D@_STL@@V?$allocator@D@2@@_STL@@QAE@PBDABV?$allocator@D@1@@Z ; _STL::basic_string<char,_STL::char_traits<char>,_STL::allocator<char> >::basic_string<char,_STL::char_traits<char>,_STL::allocator<char> >
  00014	8b 45 08	 mov	 eax, DWORD PTR ___$ReturnUdt$[ebp]
  00017	5d		 pop	 ebp
  00018	c2 04 00	 ret	 4
?getName@NoSuchElementException@@UBE?AV?$basic_string@DV?$char_traits@D@_STL@@V?$allocator@D@2@@_STL@@XZ ENDP ; NoSuchElementException::getName
_TEXT	ENDS
PUBLIC	??0DuplicatedException@@QAE@XZ			; DuplicatedException::DuplicatedException
PUBLIC	?getName@DuplicatedException@@UBE?AV?$basic_string@DV?$char_traits@D@_STL@@V?$allocator@D@2@@_STL@@XZ ; DuplicatedException::getName
PUBLIC	??_7DuplicatedException@@6B@			; DuplicatedException::`vftable'
PUBLIC	??_GDuplicatedException@@UAEPAXI@Z		; DuplicatedException::`scalar deleting destructor'
PUBLIC	??_R4DuplicatedException@@6B@			; DuplicatedException::`RTTI Complete Object Locator'
PUBLIC	??_R0?AVDuplicatedException@@@8			; DuplicatedException `RTTI Type Descriptor'
PUBLIC	??_R3DuplicatedException@@8			; DuplicatedException::`RTTI Class Hierarchy Descriptor'
PUBLIC	??_R2DuplicatedException@@8			; DuplicatedException::`RTTI Base Class Array'
PUBLIC	??_R1A@?0A@A@DuplicatedException@@8		; DuplicatedException::`RTTI Base Class Descriptor at (0,-1,0,0)'
EXTRN	??_EDuplicatedException@@UAEPAXI@Z:NEAR		; DuplicatedException::`vector deleting destructor'
;	COMDAT ??_7DuplicatedException@@6B@
CONST	SEGMENT
??_7DuplicatedException@@6B@ DD FLAT:??_R4DuplicatedException@@6B@ ; DuplicatedException::`vftable'
	DD	FLAT:??_EDuplicatedException@@UAEPAXI@Z
	DD	FLAT:?getName@DuplicatedException@@UBE?AV?$basic_string@DV?$char_traits@D@_STL@@V?$allocator@D@2@@_STL@@XZ
	DD	FLAT:?toString@Throwable@@UBE?AV?$basic_string@DV?$char_traits@D@_STL@@V?$allocator@D@2@@_STL@@XZ
CONST	ENDS
;	COMDAT ??_R4DuplicatedException@@6B@
rdata$r	SEGMENT
??_R4DuplicatedException@@6B@ DD 00H			; DuplicatedException::`RTTI Complete Object Locator'
	DD	00H
	DD	00H
	DD	FLAT:??_R0?AVDuplicatedException@@@8
	DD	FLAT:??_R3DuplicatedException@@8
rdata$r	ENDS
;	COMDAT ??_R0?AVDuplicatedException@@@8
_DATA	SEGMENT
??_R0?AVDuplicatedException@@@8 DD FLAT:??_7type_info@@6B@ ; DuplicatedException `RTTI Type Descriptor'
	DD	00H
	DB	'.?AVDuplicatedException@@', 00H
	ORG $-34
	DD	FLAT:??_7type_info@@6B@
	DD	00H
	DB	'.?AVDuplicatedException@@', 00H
_DATA	ENDS
;	COMDAT ??_R3DuplicatedException@@8
rdata$r	SEGMENT
??_R3DuplicatedException@@8 DD 00H			; DuplicatedException::`RTTI Class Hierarchy Descriptor'
	DD	00H
	DD	04H
	DD	FLAT:??_R2DuplicatedException@@8
rdata$r	ENDS
;	COMDAT ??_R2DuplicatedException@@8
rdata$r	SEGMENT
??_R2DuplicatedException@@8 DD FLAT:??_R1A@?0A@A@DuplicatedException@@8 ; DuplicatedException::`RTTI Base Class Array'
	DD	FLAT:??_R1A@?0A@A@RuntimeException@@8
	DD	FLAT:??_R1A@?0A@A@Exception@@8
	DD	FLAT:??_R1A@?0A@A@Throwable@@8
rdata$r	ENDS
;	COMDAT ??_R1A@?0A@A@DuplicatedException@@8
rdata$r	SEGMENT
??_R1A@?0A@A@DuplicatedException@@8 DD FLAT:??_R0?AVDuplicatedException@@@8 ; DuplicatedException::`RTTI Base Class Descriptor at (0,-1,0,0)'
	DD	03H
	DD	00H
	DD	0ffffffffH
	DD	00H
	DD	00H
; Function compile flags: /Ogsy
rdata$r	ENDS
;	COMDAT ??0DuplicatedException@@QAE@XZ
_TEXT	SEGMENT
??0DuplicatedException@@QAE@XZ PROC NEAR		; DuplicatedException::DuplicatedException, COMDAT
; _this$ = ecx

; 633  : 			DuplicatedException () throw () : RuntimeException () {}

  00000	56		 push	 esi
  00001	8b f1		 mov	 esi, ecx
  00003	e8 00 00 00 00	 call	 ??0RuntimeException@@QAE@XZ ; RuntimeException::RuntimeException
  00008	c7 06 00 00 00
	00		 mov	 DWORD PTR [esi], OFFSET FLAT:??_7DuplicatedException@@6B@
  0000e	8b c6		 mov	 eax, esi
  00010	5e		 pop	 esi
  00011	c3		 ret	 0
??0DuplicatedException@@QAE@XZ ENDP			; DuplicatedException::DuplicatedException
_TEXT	ENDS
PUBLIC	??_C@_0BE@CDFNNCMK@DuplicatedException?$AA@	; `string'
;	COMDAT ??_C@_0BE@CDFNNCMK@DuplicatedException?$AA@
; File c:\stlport-4.6.1\stlport\stl\_alloc.h
CONST	SEGMENT
??_C@_0BE@CDFNNCMK@DuplicatedException?$AA@ DB 'DuplicatedException', 00H ; `string'
; Function compile flags: /Ogsy
; File c:\darkeden\designed_common\project\client\packet\exception.h
CONST	ENDS
;	COMDAT ?getName@DuplicatedException@@UBE?AV?$basic_string@DV?$char_traits@D@_STL@@V?$allocator@D@2@@_STL@@XZ
_TEXT	SEGMENT
___$ReturnUdt$ = 8					; size = 4
$T104105 = 11						; size = 1
?getName@DuplicatedException@@UBE?AV?$basic_string@DV?$char_traits@D@_STL@@V?$allocator@D@2@@_STL@@XZ PROC NEAR ; DuplicatedException::getName, COMDAT
; _this$ = ecx

; 635  : 			std::string getName () const throw () { return "DuplicatedException"; }

  00000	55		 push	 ebp
  00001	8b ec		 mov	 ebp, esp
  00003	8b 4d 08	 mov	 ecx, DWORD PTR ___$ReturnUdt$[ebp]
  00006	8d 45 0b	 lea	 eax, DWORD PTR $T104105[ebp]
  00009	50		 push	 eax
  0000a	68 00 00 00 00	 push	 OFFSET FLAT:??_C@_0BE@CDFNNCMK@DuplicatedException?$AA@
  0000f	e8 00 00 00 00	 call	 ??0?$basic_string@DV?$char_traits@D@_STL@@V?$allocator@D@2@@_STL@@QAE@PBDABV?$allocator@D@1@@Z ; _STL::basic_string<char,_STL::char_traits<char>,_STL::allocator<char> >::basic_string<char,_STL::char_traits<char>,_STL::allocator<char> >
  00014	8b 45 08	 mov	 eax, DWORD PTR ___$ReturnUdt$[ebp]
  00017	5d		 pop	 ebp
  00018	c2 04 00	 ret	 4
?getName@DuplicatedException@@UBE?AV?$basic_string@DV?$char_traits@D@_STL@@V?$allocator@D@2@@_STL@@XZ ENDP ; DuplicatedException::getName
_TEXT	ENDS
PUBLIC	??1DuplicatedException@@UAE@XZ			; DuplicatedException::~DuplicatedException
PUBLIC	??0DuplicatedException@@QAE@ABV0@@Z		; DuplicatedException::DuplicatedException
PUBLIC	__CT??_R0?AVThrowable@@@8??0Throwable@@QAE@ABV0@@Z20
PUBLIC	?addPacketID@PacketIDSet@@QAEXG@Z		; PacketIDSet::addPacketID
PUBLIC	??0Throwable@@QAE@ABV0@@Z			; Throwable::Throwable
PUBLIC	??0RuntimeException@@QAE@ABV0@@Z		; RuntimeException::RuntimeException
PUBLIC	__TI4?AVDuplicatedException@@
PUBLIC	__CTA4?AVDuplicatedException@@
PUBLIC	__CT??_R0?AVDuplicatedException@@@8??0DuplicatedException@@QAE@ABV0@@Z20
PUBLIC	__CT??_R0?AVRuntimeException@@@8??0RuntimeException@@QAE@ABV0@@Z20
PUBLIC	__CT??_R0?AVException@@@8??0Exception@@QAE@ABV0@@Z20
PUBLIC	??0Exception@@QAE@ABV0@@Z			; Exception::Exception
;	COMDAT __TI4?AVDuplicatedException@@
; File c:\darkeden\designed_common\project\client\packet\packetidset.cpp
xdata$x	SEGMENT
__TI4?AVDuplicatedException@@ DD 00H
	DD	FLAT:??1DuplicatedException@@UAE@XZ
	DD	00H
	DD	FLAT:__CTA4?AVDuplicatedException@@
xdata$x	ENDS
;	COMDAT __CTA4?AVDuplicatedException@@
xdata$x	SEGMENT
__CTA4?AVDuplicatedException@@ DD 04H
	DD	FLAT:__CT??_R0?AVDuplicatedException@@@8??0DuplicatedException@@QAE@ABV0@@Z20
	DD	FLAT:__CT??_R0?AVRuntimeException@@@8??0RuntimeException@@QAE@ABV0@@Z20
	DD	FLAT:__CT??_R0?AVException@@@8??0Exception@@QAE@ABV0@@Z20
	DD	FLAT:__CT??_R0?AVThrowable@@@8??0Throwable@@QAE@ABV0@@Z20
xdata$x	ENDS
;	COMDAT __CT??_R0?AVDuplicatedException@@@8??0DuplicatedException@@QAE@ABV0@@Z20
xdata$x	SEGMENT
__CT??_R0?AVDuplicatedException@@@8??0DuplicatedException@@QAE@ABV0@@Z20 DD 00H
	DD	FLAT:??_R0?AVDuplicatedException@@@8
	DD	00H
	DD	0ffffffffH
	ORG $+4
	DD	014H
	DD	FLAT:??0DuplicatedException@@QAE@ABV0@@Z
xdata$x	ENDS
;	COMDAT __CT??_R0?AVRuntimeException@@@8??0RuntimeException@@QAE@ABV0@@Z20
xdata$x	SEGMENT
__CT??_R0?AVRuntimeException@@@8??0RuntimeException@@QAE@ABV0@@Z20 DD 00H
	DD	FLAT:??_R0?AVRuntimeException@@@8
	DD	00H
	DD	0ffffffffH
	ORG $+4
	DD	014H
	DD	FLAT:??0RuntimeException@@QAE@ABV0@@Z
xdata$x	ENDS
;	COMDAT __CT??_R0?AVException@@@8??0Exception@@QAE@ABV0@@Z20
xdata$x	SEGMENT
__CT??_R0?AVException@@@8??0Exception@@QAE@ABV0@@Z20 DD 00H
	DD	FLAT:??_R0?AVException@@@8
	DD	00H
	DD	0ffffffffH
	ORG $+4
	DD	014H
	DD	FLAT:??0Exception@@QAE@ABV0@@Z
xdata$x	ENDS
;	COMDAT __CT??_R0?AVThrowable@@@8??0Throwable@@QAE@ABV0@@Z20
xdata$x	SEGMENT
__CT??_R0?AVThrowable@@@8??0Throwable@@QAE@ABV0@@Z20 DD 00H
	DD	FLAT:??_R0?AVThrowable@@@8
	DD	00H
	DD	0ffffffffH
	ORG $+4
	DD	014H
	DD	FLAT:??0Throwable@@QAE@ABV0@@Z
; Function compile flags: /Ogsy
xdata$x	ENDS
;	COMDAT ?addPacketID@PacketIDSet@@QAEXG@Z
_TEXT	SEGMENT
$T104114 = -28						; size = 20
_p$ = -8						; size = 8
_packetID$ = 8						; size = 2
?addPacketID@PacketIDSet@@QAEXG@Z PROC NEAR		; PacketIDSet::addPacketID, COMDAT
; _this$ = ecx

; 37   : {

  00000	55		 push	 ebp
  00001	8b ec		 mov	 ebp, esp
  00003	83 ec 1c	 sub	 esp, 28			; 0000001cH

; 38   : 	__BEGIN_TRY
; 39   : 
; 40   : 	Assert( m_PacketIDSetType != PIST_NONE );
; 41   : 	Assert( m_PacketIDSetType != PIST_ANY );
; 42   : 
; 43   : 	std::pair<PACKET_ID_SET::iterator,bool> p = m_PacketIDSet.insert( packetID );

  00006	8d 45 08	 lea	 eax, DWORD PTR _packetID$[ebp]
  00009	50		 push	 eax
  0000a	8d 45 f8	 lea	 eax, DWORD PTR _p$[ebp]
  0000d	50		 push	 eax
  0000e	83 c1 08	 add	 ecx, 8
  00011	e8 00 00 00 00	 call	 ?insert@?$set@GU?$less@G@_STL@@V?$allocator@G@2@@_STL@@QAE?AU?$pair@U?$_Rb_tree_iterator@GU?$_Const_traits@G@_STL@@@_STL@@_N@2@ABG@Z ; _STL::set<unsigned short,_STL::less<unsigned short>,_STL::allocator<unsigned short> >::insert

; 44   : 
; 45   : 	//     .
; 46   : 	if ( ! p.second )

  00016	80 7d fc 00	 cmp	 BYTE PTR _p$[ebp+4], 0
  0001a	75 16		 jne	 SHORT $L101276

; 47   : 		throw DuplicatedException();

  0001c	8d 4d e4	 lea	 ecx, DWORD PTR $T104114[ebp]
  0001f	e8 00 00 00 00	 call	 ??0DuplicatedException@@QAE@XZ ; DuplicatedException::DuplicatedException
  00024	68 00 00 00 00	 push	 OFFSET FLAT:__TI4?AVDuplicatedException@@
  00029	8d 45 e4	 lea	 eax, DWORD PTR $T104114[ebp]
  0002c	50		 push	 eax
  0002d	e8 00 00 00 00	 call	 __CxxThrowException@8
$L104116:
$L101276:

; 48   : 
; 49   : 	__END_CATCH
; 50   : }

  00032	c9		 leave
  00033	c2 04 00	 ret	 4
$L104115:
?addPacketID@PacketIDSet@@QAEXG@Z ENDP			; PacketIDSet::addPacketID
; Function compile flags: /Ogsy
_TEXT	ENDS
;	COMDAT ??1DuplicatedException@@UAE@XZ
_TEXT	SEGMENT
??1DuplicatedException@@UAE@XZ PROC NEAR		; DuplicatedException::~DuplicatedException, COMDAT
; _this$ = ecx
  00000	e9 00 00 00 00	 jmp	 ??1RuntimeException@@UAE@XZ
??1DuplicatedException@@UAE@XZ ENDP			; DuplicatedException::~DuplicatedException
_TEXT	ENDS
PUBLIC	?deletePacketID@PacketIDSet@@QAEXG@Z		; PacketIDSet::deletePacketID
PUBLIC	__TI4?AVNoSuchElementException@@
PUBLIC	__CTA4?AVNoSuchElementException@@
PUBLIC	__CT??_R0?AVNoSuchElementException@@@8??0NoSuchElementException@@QAE@ABV0@@Z20
PUBLIC	??1NoSuchElementException@@UAE@XZ		; NoSuchElementException::~NoSuchElementException
PUBLIC	??0NoSuchElementException@@QAE@ABV0@@Z		; NoSuchElementException::NoSuchElementException
;	COMDAT __TI4?AVNoSuchElementException@@
; File c:\stlport-4.6.1\stlport\stl\_tree.h
xdata$x	SEGMENT
__TI4?AVNoSuchElementException@@ DD 00H
	DD	FLAT:??1NoSuchElementException@@UAE@XZ
	DD	00H
	DD	FLAT:__CTA4?AVNoSuchElementException@@
xdata$x	ENDS
;	COMDAT __CTA4?AVNoSuchElementException@@
xdata$x	SEGMENT
__CTA4?AVNoSuchElementException@@ DD 04H
	DD	FLAT:__CT??_R0?AVNoSuchElementException@@@8??0NoSuchElementException@@QAE@ABV0@@Z20
	DD	FLAT:__CT??_R0?AVRuntimeException@@@8??0RuntimeException@@QAE@ABV0@@Z20
	DD	FLAT:__CT??_R0?AVException@@@8??0Exception@@QAE@ABV0@@Z20
	DD	FLAT:__CT??_R0?AVThrowable@@@8??0Throwable@@QAE@ABV0@@Z20
xdata$x	ENDS
;	COMDAT __CT??_R0?AVNoSuchElementException@@@8??0NoSuchElementException@@QAE@ABV0@@Z20
xdata$x	SEGMENT
__CT??_R0?AVNoSuchElementException@@@8??0NoSuchElementException@@QAE@ABV0@@Z20 DD 00H
	DD	FLAT:??_R0?AVNoSuchElementException@@@8
	DD	00H
	DD	0ffffffffH
	ORG $+4
	DD	014H
	DD	FLAT:??0NoSuchElementException@@QAE@ABV0@@Z
; Function compile flags: /Ogsy
; File c:\darkeden\designed_common\project\client\packet\packetidset.cpp
xdata$x	ENDS
;	COMDAT ?deletePacketID@PacketIDSet@@QAEXG@Z
_TEXT	SEGMENT
$T104123 = -20						; size = 20
_packetID$ = 8						; size = 2
?deletePacketID@PacketIDSet@@QAEXG@Z PROC NEAR		; PacketIDSet::deletePacketID, COMDAT
; _this$ = ecx

; 57   : {

  00000	55		 push	 ebp
  00001	8b ec		 mov	 ebp, esp
  00003	83 ec 14	 sub	 esp, 20			; 00000014H
  00006	56		 push	 esi

; 58   : 	__BEGIN_TRY
; 59   : 
; 60   : 	PACKET_ID_SET::iterator itr = m_PacketIDSet.find( packetID );

  00007	8d 71 08	 lea	 esi, DWORD PTR [ecx+8]
  0000a	8d 45 08	 lea	 eax, DWORD PTR _packetID$[ebp]
  0000d	50		 push	 eax
  0000e	8b ce		 mov	 ecx, esi
  00010	e8 00 00 00 00	 call	 ??$_M_find@G@?$_Rb_tree@GGU?$_Identity@G@_STL@@U?$less@G@2@V?$allocator@G@2@@_STL@@ABEPAU?$_Rb_tree_node@G@1@ABG@Z ; _STL::_Rb_tree<unsigned short,unsigned short,_STL::_Identity<unsigned short>,_STL::less<unsigned short>,_STL::allocator<unsigned short> >::_M_find<unsigned short>

; 61   : 
; 62   : 	if ( itr != m_PacketIDSet.end() )

  00015	3b 06		 cmp	 eax, DWORD PTR [esi]
  00017	74 16		 je	 SHORT $L101339

; 63   : 		throw NoSuchElementException();

  00019	8d 4d ec	 lea	 ecx, DWORD PTR $T104123[ebp]
  0001c	e8 00 00 00 00	 call	 ??0NoSuchElementException@@QAE@XZ ; NoSuchElementException::NoSuchElementException
  00021	68 00 00 00 00	 push	 OFFSET FLAT:__TI4?AVNoSuchElementException@@
  00026	8d 45 ec	 lea	 eax, DWORD PTR $T104123[ebp]
  00029	50		 push	 eax
  0002a	e8 00 00 00 00	 call	 __CxxThrowException@8
$L104172:
$L101339:

; 64   : 
; 65   : 	m_PacketIDSet.erase(itr);

  0002f	51		 push	 ecx
  00030	8b cc		 mov	 ecx, esp
  00032	89 01		 mov	 DWORD PTR [ecx], eax
  00034	8b ce		 mov	 ecx, esi
  00036	e8 00 00 00 00	 call	 ?erase@?$_Rb_tree@GGU?$_Identity@G@_STL@@U?$less@G@2@V?$allocator@G@2@@_STL@@QAEXU?$_Rb_tree_iterator@GU?$_Nonconst_traits@G@_STL@@@2@@Z ; _STL::_Rb_tree<unsigned short,unsigned short,_STL::_Identity<unsigned short>,_STL::less<unsigned short>,_STL::allocator<unsigned short> >::erase

; 66   : 
; 67   : 	__END_CATCH
; 68   : }

  0003b	5e		 pop	 esi
  0003c	c9		 leave
  0003d	c2 04 00	 ret	 4
$L104171:
?deletePacketID@PacketIDSet@@QAEXG@Z ENDP		; PacketIDSet::deletePacketID
; Function compile flags: /Ogsy
_TEXT	ENDS
;	COMDAT ??1NoSuchElementException@@UAE@XZ
_TEXT	SEGMENT
??1NoSuchElementException@@UAE@XZ PROC NEAR		; NoSuchElementException::~NoSuchElementException, COMDAT
; _this$ = ecx
  00000	e9 00 00 00 00	 jmp	 ??1RuntimeException@@UAE@XZ
??1NoSuchElementException@@UAE@XZ ENDP			; NoSuchElementException::~NoSuchElementException
_TEXT	ENDS
PUBLIC	??0IOException@@QAE@ABV0@@Z			; IOException::IOException
PUBLIC	??0ProtocolException@@QAE@ABV0@@Z		; ProtocolException::ProtocolException
PUBLIC	?hasPacketID@PacketIDSet@@QBE_NG@Z		; PacketIDSet::hasPacketID
PUBLIC	??1IgnorePacketException@@UAE@XZ		; IgnorePacketException::~IgnorePacketException
PUBLIC	??0IgnorePacketException@@QAE@ABV0@@Z		; IgnorePacketException::IgnorePacketException
PUBLIC	__TI5?AVIgnorePacketException@@
PUBLIC	__CTA5?AVIgnorePacketException@@
PUBLIC	__CT??_R0?AVIgnorePacketException@@@8??0IgnorePacketException@@QAE@ABV0@@Z20
PUBLIC	__CT??_R0?AVProtocolException@@@8??0ProtocolException@@QAE@ABV0@@Z20
PUBLIC	__CT??_R0?AVIOException@@@8??0IOException@@QAE@ABV0@@Z20
;	COMDAT __TI5?AVIgnorePacketException@@
; File c:\stlport-4.6.1\stlport\stl\_tree.h
xdata$x	SEGMENT
__TI5?AVIgnorePacketException@@ DD 00H
	DD	FLAT:??1IgnorePacketException@@UAE@XZ
	DD	00H
	DD	FLAT:__CTA5?AVIgnorePacketException@@
xdata$x	ENDS
;	COMDAT __CTA5?AVIgnorePacketException@@
xdata$x	SEGMENT
__CTA5?AVIgnorePacketException@@ DD 05H
	DD	FLAT:__CT??_R0?AVIgnorePacketException@@@8??0IgnorePacketException@@QAE@ABV0@@Z20
	DD	FLAT:__CT??_R0?AVProtocolException@@@8??0ProtocolException@@QAE@ABV0@@Z20
	DD	FLAT:__CT??_R0?AVIOException@@@8??0IOException@@QAE@ABV0@@Z20
	DD	FLAT:__CT??_R0?AVException@@@8??0Exception@@QAE@ABV0@@Z20
	DD	FLAT:__CT??_R0?AVThrowable@@@8??0Throwable@@QAE@ABV0@@Z20
xdata$x	ENDS
;	COMDAT __CT??_R0?AVIgnorePacketException@@@8??0IgnorePacketException@@QAE@ABV0@@Z20
xdata$x	SEGMENT
__CT??_R0?AVIgnorePacketException@@@8??0IgnorePacketException@@QAE@ABV0@@Z20 DD 00H
	DD	FLAT:??_R0?AVIgnorePacketException@@@8
	DD	00H
	DD	0ffffffffH
	ORG $+4
	DD	014H
	DD	FLAT:??0IgnorePacketException@@QAE@ABV0@@Z
xdata$x	ENDS
;	COMDAT __CT??_R0?AVProtocolException@@@8??0ProtocolException@@QAE@ABV0@@Z20
xdata$x	SEGMENT
__CT??_R0?AVProtocolException@@@8??0ProtocolException@@QAE@ABV0@@Z20 DD 00H
	DD	FLAT:??_R0?AVProtocolException@@@8
	DD	00H
	DD	0ffffffffH
	ORG $+4
	DD	014H
	DD	FLAT:??0ProtocolException@@QAE@ABV0@@Z
xdata$x	ENDS
;	COMDAT __CT??_R0?AVIOException@@@8??0IOException@@QAE@ABV0@@Z20
xdata$x	SEGMENT
__CT??_R0?AVIOException@@@8??0IOException@@QAE@ABV0@@Z20 DD 00H
	DD	FLAT:??_R0?AVIOException@@@8
	DD	00H
	DD	0ffffffffH
	ORG $+4
	DD	014H
	DD	FLAT:??0IOException@@QAE@ABV0@@Z
; Function compile flags: /Ogsy
; File c:\darkeden\designed_common\project\client\packet\packetidset.cpp
xdata$x	ENDS
;	COMDAT ?hasPacketID@PacketIDSet@@QBE_NG@Z
_TEXT	SEGMENT
$T104180 = -20						; size = 20
_packetID$ = 8						; size = 2
?hasPacketID@PacketIDSet@@QBE_NG@Z PROC NEAR		; PacketIDSet::hasPacketID, COMDAT
; _this$ = ecx

; 75   : {

  00000	55		 push	 ebp
  00001	8b ec		 mov	 ebp, esp
  00003	83 ec 14	 sub	 esp, 20			; 00000014H

; 76   : 	__BEGIN_TRY
; 77   : 
; 78   : 	if ( m_PacketIDSetType == PIST_NORMAL ) {

  00006	8b 01		 mov	 eax, DWORD PTR [ecx]
  00008	85 c0		 test	 eax, eax
  0000a	56		 push	 esi
  0000b	75 19		 jne	 SHORT $L101354

; 79   : 
; 80   : 		//  ,   true  .
; 81   : 		PACKET_ID_SET::const_iterator itr = m_PacketIDSet.find( packetID );

  0000d	8d 71 08	 lea	 esi, DWORD PTR [ecx+8]
  00010	8d 45 08	 lea	 eax, DWORD PTR _packetID$[ebp]
  00013	50		 push	 eax
  00014	8b ce		 mov	 ecx, esi
  00016	e8 00 00 00 00	 call	 ??$_M_find@G@?$_Rb_tree@GGU?$_Identity@G@_STL@@U?$less@G@2@V?$allocator@G@2@@_STL@@ABEPAU?$_Rb_tree_node@G@1@ABG@Z ; _STL::_Rb_tree<unsigned short,unsigned short,_STL::_Identity<unsigned short>,_STL::less<unsigned short>,_STL::allocator<unsigned short> >::_M_find<unsigned short>

; 82   : 
; 83   : 		return itr != m_PacketIDSet.end();

  0001b	33 c9		 xor	 ecx, ecx
  0001d	3b 06		 cmp	 eax, DWORD PTR [esi]
  0001f	0f 95 c1	 setne	 cl
  00022	8a c1		 mov	 al, cl
  00024	eb 38		 jmp	 SHORT $L101352
$L101354:

; 84   : 
; 85   : 	} else if ( m_PacketIDSetType == PIST_ANY ) {

  00026	83 f8 01	 cmp	 eax, 1

; 86   : 
; 87   : 		//    .
; 88   : 		return true;

  00029	74 17		 je	 SHORT $L104252

; 89   : 
; 90   : 	} else if ( m_PacketIDSetType == PIST_IGNORE_EXCEPT ) {

  0002b	83 f8 03	 cmp	 eax, 3
  0002e	75 2c		 jne	 SHORT $L101366

; 91   : 
; 92   : 		//   , true  .
; 93   : 		//   ,  .
; 94   : 		PACKET_ID_SET::const_iterator itr = m_PacketIDSet.find( packetID );

  00030	8d 71 08	 lea	 esi, DWORD PTR [ecx+8]
  00033	8d 45 08	 lea	 eax, DWORD PTR _packetID$[ebp]
  00036	50		 push	 eax
  00037	8b ce		 mov	 ecx, esi
  00039	e8 00 00 00 00	 call	 ??$_M_find@G@?$_Rb_tree@GGU?$_Identity@G@_STL@@U?$less@G@2@V?$allocator@G@2@@_STL@@ABEPAU?$_Rb_tree_node@G@1@ABG@Z ; _STL::_Rb_tree<unsigned short,unsigned short,_STL::_Identity<unsigned short>,_STL::less<unsigned short>,_STL::allocator<unsigned short> >::_M_find<unsigned short>

; 95   : 
; 96   : 		if ( itr != m_PacketIDSet.end() ) {

  0003e	3b 06		 cmp	 eax, DWORD PTR [esi]
  00040	74 04		 je	 SHORT $L101365
$L104252:

; 97   : 			return true;

  00042	b0 01		 mov	 al, 1
  00044	eb 18		 jmp	 SHORT $L101352
$L101365:

; 98   : 		} else {
; 99   : 			throw IgnorePacketException();

  00046	8d 4d ec	 lea	 ecx, DWORD PTR $T104180[ebp]
  00049	e8 00 00 00 00	 call	 ??0IgnorePacketException@@QAE@XZ ; IgnorePacketException::IgnorePacketException
  0004e	68 00 00 00 00	 push	 OFFSET FLAT:__TI5?AVIgnorePacketException@@
  00053	8d 45 ec	 lea	 eax, DWORD PTR $T104180[ebp]
  00056	50		 push	 eax
  00057	e8 00 00 00 00	 call	 __CxxThrowException@8
$L104253:
$L101366:

; 100  : 		}
; 101  : 	}
; 102  : 
; 103  : 	// case of PIST_NONE
; 104  : 	return false;

  0005c	32 c0		 xor	 al, al
$L101352:
  0005e	5e		 pop	 esi

; 105  : 
; 106  : 	__END_CATCH
; 107  : }

  0005f	c9		 leave
  00060	c2 04 00	 ret	 4
$L104251:
?hasPacketID@PacketIDSet@@QBE_NG@Z ENDP			; PacketIDSet::hasPacketID
; Function compile flags: /Ogsy
_TEXT	ENDS
;	COMDAT ??1IgnorePacketException@@UAE@XZ
_TEXT	SEGMENT
??1IgnorePacketException@@UAE@XZ PROC NEAR		; IgnorePacketException::~IgnorePacketException, COMDAT
; _this$ = ecx
  00000	e9 00 00 00 00	 jmp	 ??1ProtocolException@@UAE@XZ
??1IgnorePacketException@@UAE@XZ ENDP			; IgnorePacketException::~IgnorePacketException
; Function compile flags: /Ogsy
_TEXT	ENDS
;	COMDAT ??_GException@@UAEPAXI@Z
_TEXT	SEGMENT
___flags$ = 8						; size = 4
??_GException@@UAEPAXI@Z PROC NEAR			; Exception::`scalar deleting destructor', COMDAT
; _this$ = ecx
  00000	56		 push	 esi
  00001	8b f1		 mov	 esi, ecx
  00003	e8 00 00 00 00	 call	 ??1Exception@@UAE@XZ
  00008	f6 44 24 08 01	 test	 BYTE PTR ___flags$[esp], 1
  0000d	74 07		 je	 SHORT $L88063
  0000f	56		 push	 esi
  00010	e8 00 00 00 00	 call	 ??3@YAXPAX@Z		; operator delete
  00015	59		 pop	 ecx
$L88063:
  00016	8b c6		 mov	 eax, esi
  00018	5e		 pop	 esi
  00019	c2 04 00	 ret	 4
??_GException@@UAEPAXI@Z ENDP				; Exception::`scalar deleting destructor'
; Function compile flags: /Ogsy
_TEXT	ENDS
;	COMDAT ??_GIOException@@UAEPAXI@Z
_TEXT	SEGMENT
___flags$ = 8						; size = 4
??_GIOException@@UAEPAXI@Z PROC NEAR			; IOException::`scalar deleting destructor', COMDAT
; _this$ = ecx
  00000	56		 push	 esi
  00001	8b f1		 mov	 esi, ecx
  00003	e8 00 00 00 00	 call	 ??1IOException@@UAE@XZ
  00008	f6 44 24 08 01	 test	 BYTE PTR ___flags$[esp], 1
  0000d	74 07		 je	 SHORT $L88096
  0000f	56		 push	 esi
  00010	e8 00 00 00 00	 call	 ??3@YAXPAX@Z		; operator delete
  00015	59		 pop	 ecx
$L88096:
  00016	8b c6		 mov	 eax, esi
  00018	5e		 pop	 esi
  00019	c2 04 00	 ret	 4
??_GIOException@@UAEPAXI@Z ENDP				; IOException::`scalar deleting destructor'
; Function compile flags: /Ogsy
_TEXT	ENDS
;	COMDAT ??_GProtocolException@@UAEPAXI@Z
_TEXT	SEGMENT
___flags$ = 8						; size = 4
??_GProtocolException@@UAEPAXI@Z PROC NEAR		; ProtocolException::`scalar deleting destructor', COMDAT
; _this$ = ecx
  00000	56		 push	 esi
  00001	8b f1		 mov	 esi, ecx
  00003	e8 00 00 00 00	 call	 ??1ProtocolException@@UAE@XZ
  00008	f6 44 24 08 01	 test	 BYTE PTR ___flags$[esp], 1
  0000d	74 07		 je	 SHORT $L88459
  0000f	56		 push	 esi
  00010	e8 00 00 00 00	 call	 ??3@YAXPAX@Z		; operator delete
  00015	59		 pop	 ecx
$L88459:
  00016	8b c6		 mov	 eax, esi
  00018	5e		 pop	 esi
  00019	c2 04 00	 ret	 4
??_GProtocolException@@UAEPAXI@Z ENDP			; ProtocolException::`scalar deleting destructor'
; Function compile flags: /Ogsy
_TEXT	ENDS
;	COMDAT ??_GIgnorePacketException@@UAEPAXI@Z
_TEXT	SEGMENT
___flags$ = 8						; size = 4
??_GIgnorePacketException@@UAEPAXI@Z PROC NEAR		; IgnorePacketException::`scalar deleting destructor', COMDAT
; _this$ = ecx
  00000	56		 push	 esi
  00001	8b f1		 mov	 esi, ecx
  00003	e8 00 00 00 00	 call	 ??1IgnorePacketException@@UAE@XZ
  00008	f6 44 24 08 01	 test	 BYTE PTR ___flags$[esp], 1
  0000d	74 07		 je	 SHORT $L88643
  0000f	56		 push	 esi
  00010	e8 00 00 00 00	 call	 ??3@YAXPAX@Z		; operator delete
  00015	59		 pop	 ecx
$L88643:
  00016	8b c6		 mov	 eax, esi
  00018	5e		 pop	 esi
  00019	c2 04 00	 ret	 4
??_GIgnorePacketException@@UAEPAXI@Z ENDP		; IgnorePacketException::`scalar deleting destructor'
; Function compile flags: /Ogsy
_TEXT	ENDS
;	COMDAT ??_GRuntimeException@@UAEPAXI@Z
_TEXT	SEGMENT
___flags$ = 8						; size = 4
??_GRuntimeException@@UAEPAXI@Z PROC NEAR		; RuntimeException::`scalar deleting destructor', COMDAT
; _this$ = ecx
  00000	56		 push	 esi
  00001	8b f1		 mov	 esi, ecx
  00003	e8 00 00 00 00	 call	 ??1RuntimeException@@UAE@XZ
  00008	f6 44 24 08 01	 test	 BYTE PTR ___flags$[esp], 1
  0000d	74 07		 je	 SHORT $L88973
  0000f	56		 push	 esi
  00010	e8 00 00 00 00	 call	 ??3@YAXPAX@Z		; operator delete
  00015	59		 pop	 ecx
$L88973:
  00016	8b c6		 mov	 eax, esi
  00018	5e		 pop	 esi
  00019	c2 04 00	 ret	 4
??_GRuntimeException@@UAEPAXI@Z ENDP			; RuntimeException::`scalar deleting destructor'
; Function compile flags: /Ogsy
_TEXT	ENDS
;	COMDAT ??_GNoSuchElementException@@UAEPAXI@Z
_TEXT	SEGMENT
___flags$ = 8						; size = 4
??_GNoSuchElementException@@UAEPAXI@Z PROC NEAR		; NoSuchElementException::`scalar deleting destructor', COMDAT
; _this$ = ecx
  00000	56		 push	 esi
  00001	8b f1		 mov	 esi, ecx
  00003	e8 00 00 00 00	 call	 ??1NoSuchElementException@@UAE@XZ
  00008	f6 44 24 08 01	 test	 BYTE PTR ___flags$[esp], 1
  0000d	74 07		 je	 SHORT $L89105
  0000f	56		 push	 esi
  00010	e8 00 00 00 00	 call	 ??3@YAXPAX@Z		; operator delete
  00015	59		 pop	 ecx
$L89105:
  00016	8b c6		 mov	 eax, esi
  00018	5e		 pop	 esi
  00019	c2 04 00	 ret	 4
??_GNoSuchElementException@@UAEPAXI@Z ENDP		; NoSuchElementException::`scalar deleting destructor'
; Function compile flags: /Ogsy
_TEXT	ENDS
;	COMDAT ??_GDuplicatedException@@UAEPAXI@Z
_TEXT	SEGMENT
___flags$ = 8						; size = 4
??_GDuplicatedException@@UAEPAXI@Z PROC NEAR		; DuplicatedException::`scalar deleting destructor', COMDAT
; _this$ = ecx
  00000	56		 push	 esi
  00001	8b f1		 mov	 esi, ecx
  00003	e8 00 00 00 00	 call	 ??1DuplicatedException@@UAE@XZ
  00008	f6 44 24 08 01	 test	 BYTE PTR ___flags$[esp], 1
  0000d	74 07		 je	 SHORT $L89138
  0000f	56		 push	 esi
  00010	e8 00 00 00 00	 call	 ??3@YAXPAX@Z		; operator delete
  00015	59		 pop	 ecx
$L89138:
  00016	8b c6		 mov	 eax, esi
  00018	5e		 pop	 esi
  00019	c2 04 00	 ret	 4
??_GDuplicatedException@@UAEPAXI@Z ENDP			; DuplicatedException::`scalar deleting destructor'
_TEXT	ENDS
PUBLIC	??0?$list@V?$basic_string@DV?$char_traits@D@_STL@@V?$allocator@D@2@@_STL@@V?$allocator@V?$basic_string@DV?$char_traits@D@_STL@@V?$allocator@D@2@@_STL@@@2@@_STL@@QAE@ABV01@@Z ; _STL::list<_STL::basic_string<char,_STL::char_traits<char>,_STL::allocator<char> >,_STL::allocator<_STL::basic_string<char,_STL::char_traits<char>,_STL::allocator<char> > > >::list<_STL::basic_string<char,_STL::char_traits<char>,_STL::allocator<char> >,_STL::allocator<_STL::basic_string<char,_STL::char_traits<char>,_STL::allocator<char> > > >
;	COMDAT xdata$x
xdata$x	SEGMENT
$T104285 DD	0ffffffffH
	DD	FLAT:$L104280
$T104283 DD	019930520H
	DD	01H
	DD	FLAT:$T104285
	DD	2 DUP(00H)
	DD	2 DUP(00H)
; Function compile flags: /Ogsy
xdata$x	ENDS
;	COMDAT ??0Throwable@@QAE@ABV0@@Z
_TEXT	SEGMENT
_this$ = -16						; size = 4
__$EHRec$ = -12						; size = 12
___that$ = 8						; size = 4
??0Throwable@@QAE@ABV0@@Z PROC NEAR			; Throwable::Throwable, COMDAT
; _this$ = ecx
  00000	b8 00 00 00 00	 mov	 eax, __ehhandler$??0Throwable@@QAE@ABV0@@Z
  00005	e8 00 00 00 00	 call	 __EH_prolog
  0000a	51		 push	 ecx
  0000b	56		 push	 esi
  0000c	57		 push	 edi
  0000d	8b 7d 08	 mov	 edi, DWORD PTR ___that$[ebp]
  00010	8b f1		 mov	 esi, ecx
  00012	8d 47 04	 lea	 eax, DWORD PTR [edi+4]
  00015	50		 push	 eax
  00016	8d 4e 04	 lea	 ecx, DWORD PTR [esi+4]
  00019	89 75 f0	 mov	 DWORD PTR _this$[ebp], esi
  0001c	c7 06 00 00 00
	00		 mov	 DWORD PTR [esi], OFFSET FLAT:??_7Throwable@@6B@
  00022	e8 00 00 00 00	 call	 ??0?$basic_string@DV?$char_traits@D@_STL@@V?$allocator@D@2@@_STL@@QAE@ABV01@@Z ; _STL::basic_string<char,_STL::char_traits<char>,_STL::allocator<char> >::basic_string<char,_STL::char_traits<char>,_STL::allocator<char> >
  00027	83 65 fc 00	 and	 DWORD PTR __$EHRec$[ebp+8], 0
  0002b	83 c7 10	 add	 edi, 16			; 00000010H
  0002e	57		 push	 edi
  0002f	8d 4e 10	 lea	 ecx, DWORD PTR [esi+16]
  00032	e8 00 00 00 00	 call	 ??0?$list@V?$basic_string@DV?$char_traits@D@_STL@@V?$allocator@D@2@@_STL@@V?$allocator@V?$basic_string@DV?$char_traits@D@_STL@@V?$allocator@D@2@@_STL@@@2@@_STL@@QAE@ABV01@@Z ; _STL::list<_STL::basic_string<char,_STL::char_traits<char>,_STL::allocator<char> >,_STL::allocator<_STL::basic_string<char,_STL::char_traits<char>,_STL::allocator<char> > > >::list<_STL::basic_string<char,_STL::char_traits<char>,_STL::allocator<char> >,_STL::allocator<_STL::basic_string<char,_STL::char_traits<char>,_STL::allocator<char> > > >
  00037	8b 4d f4	 mov	 ecx, DWORD PTR __$EHRec$[ebp]
  0003a	5f		 pop	 edi
  0003b	8b c6		 mov	 eax, esi
  0003d	5e		 pop	 esi
  0003e	64 89 0d 00 00
	00 00		 mov	 DWORD PTR fs:__except_list, ecx
  00045	c9		 leave
  00046	c2 04 00	 ret	 4
_TEXT	ENDS
;	COMDAT text$x
text$x	SEGMENT
$L104280:
  00000	8b 4d f0	 mov	 ecx, DWORD PTR _this$[ebp]
  00003	83 c1 04	 add	 ecx, 4
  00006	e9 00 00 00 00	 jmp	 ??1?$basic_string@DV?$char_traits@D@_STL@@V?$allocator@D@2@@_STL@@QAE@XZ ; _STL::basic_string<char,_STL::char_traits<char>,_STL::allocator<char> >::~basic_string<char,_STL::char_traits<char>,_STL::allocator<char> >
__ehhandler$??0Throwable@@QAE@ABV0@@Z:
  0000b	b8 00 00 00 00	 mov	 eax, OFFSET FLAT:$T104283
  00010	e9 00 00 00 00	 jmp	 ___CxxFrameHandler
text$x	ENDS
??0Throwable@@QAE@ABV0@@Z ENDP				; Throwable::Throwable
PUBLIC	??$insert@U?$_List_iterator@V?$basic_string@DV?$char_traits@D@_STL@@V?$allocator@D@2@@_STL@@U?$_Const_traits@V?$basic_string@DV?$char_traits@D@_STL@@V?$allocator@D@2@@_STL@@@2@@_STL@@@?$list@V?$basic_string@DV?$char_traits@D@_STL@@V?$allocator@D@2@@_STL@@V?$allocator@V?$basic_string@DV?$char_traits@D@_STL@@V?$allocator@D@2@@_STL@@@2@@_STL@@QAEXU?$_List_iterator@V?$basic_string@DV?$char_traits@D@_STL@@V?$allocator@D@2@@_STL@@U?$_Nonconst_traits@V?$basic_string@DV?$char_traits@D@_STL@@V?$allocator@D@2@@_STL@@@2@@1@U?$_List_iterator@V?$basic_string@DV?$char_traits@D@_STL@@V?$allocator@D@2@@_STL@@U?$_Const_traits@V?$basic_string@DV?$char_traits@D@_STL@@V?$allocator@D@2@@_STL@@@2@@1@1@Z ; _STL::list<_STL::basic_string<char,_STL::char_traits<char>,_STL::allocator<char> >,_STL::allocator<_STL::basic_string<char,_STL::char_traits<char>,_STL::allocator<char> > > >::insert<_STL::_List_iterator<_STL::basic_string<char,_STL::char_traits<char>,_STL::allocator<char> >,_STL::_Const_traits<_STL::basic_string<char,_STL::char_traits<char>,_STL::allocator<char> > > > >
PUBLIC	?get_allocator@?$_List_base@V?$basic_string@DV?$char_traits@D@_STL@@V?$allocator@D@2@@_STL@@V?$allocator@V?$basic_string@DV?$char_traits@D@_STL@@V?$allocator@D@2@@_STL@@@2@@_STL@@QBE?AV?$allocator@V?$basic_string@DV?$char_traits@D@_STL@@V?$allocator@D@2@@_STL@@@2@XZ ; _STL::_List_base<_STL::basic_string<char,_STL::char_traits<char>,_STL::allocator<char> >,_STL::allocator<_STL::basic_string<char,_STL::char_traits<char>,_STL::allocator<char> > > >::get_allocator
;	COMDAT xdata$x
; File c:\stlport-4.6.1\stlport\stl\_list.h
xdata$x	SEGMENT
$T104410 DD	0ffffffffH
	DD	FLAT:$L104294
$T104408 DD	019930520H
	DD	01H
	DD	FLAT:$T104410
	DD	2 DUP(00H)
	DD	2 DUP(00H)
; Function compile flags: /Ogsy
xdata$x	ENDS
;	COMDAT ??0?$list@V?$basic_string@DV?$char_traits@D@_STL@@V?$allocator@D@2@@_STL@@V?$allocator@V?$basic_string@DV?$char_traits@D@_STL@@V?$allocator@D@2@@_STL@@@2@@_STL@@QAE@ABV01@@Z
_TEXT	SEGMENT
$T104293 = -20						; size = 4
_this$ = -16						; size = 4
__$EHRec$ = -12						; size = 12
___x$ = 8						; size = 4
$T104290 = 11						; size = 1
??0?$list@V?$basic_string@DV?$char_traits@D@_STL@@V?$allocator@D@2@@_STL@@V?$allocator@V?$basic_string@DV?$char_traits@D@_STL@@V?$allocator@D@2@@_STL@@@2@@_STL@@QAE@ABV01@@Z PROC NEAR ; _STL::list<_STL::basic_string<char,_STL::char_traits<char>,_STL::allocator<char> >,_STL::allocator<_STL::basic_string<char,_STL::char_traits<char>,_STL::allocator<char> > > >::list<_STL::basic_string<char,_STL::char_traits<char>,_STL::allocator<char> >,_STL::allocator<_STL::basic_string<char,_STL::char_traits<char>,_STL::allocator<char> > > >, COMDAT
; _this$ = ecx

; 414  :     { insert(begin(), __x.begin(), __x.end()); }

  00000	b8 00 00 00 00	 mov	 eax, __ehhandler$??0?$list@V?$basic_string@DV?$char_traits@D@_STL@@V?$allocator@D@2@@_STL@@V?$allocator@V?$basic_string@DV?$char_traits@D@_STL@@V?$allocator@D@2@@_STL@@@2@@_STL@@QAE@ABV01@@Z
  00005	e8 00 00 00 00	 call	 __EH_prolog
  0000a	51		 push	 ecx
  0000b	51		 push	 ecx
  0000c	56		 push	 esi
  0000d	57		 push	 edi
  0000e	8b 7d 08	 mov	 edi, DWORD PTR ___x$[ebp]
  00011	8b f1		 mov	 esi, ecx
  00013	8d 45 0b	 lea	 eax, DWORD PTR $T104290[ebp]
  00016	50		 push	 eax
  00017	8b cf		 mov	 ecx, edi
  00019	89 75 f0	 mov	 DWORD PTR _this$[ebp], esi
  0001c	e8 00 00 00 00	 call	 ?get_allocator@?$_List_base@V?$basic_string@DV?$char_traits@D@_STL@@V?$allocator@D@2@@_STL@@V?$allocator@V?$basic_string@DV?$char_traits@D@_STL@@V?$allocator@D@2@@_STL@@@2@@_STL@@QBE?AV?$allocator@V?$basic_string@DV?$char_traits@D@_STL@@V?$allocator@D@2@@_STL@@@2@XZ ; _STL::_List_base<_STL::basic_string<char,_STL::char_traits<char>,_STL::allocator<char> >,_STL::allocator<_STL::basic_string<char,_STL::char_traits<char>,_STL::allocator<char> > > >::get_allocator
  00021	50		 push	 eax
  00022	8b ce		 mov	 ecx, esi
  00024	e8 00 00 00 00	 call	 ??0?$_List_base@V?$basic_string@DV?$char_traits@D@_STL@@V?$allocator@D@2@@_STL@@V?$allocator@V?$basic_string@DV?$char_traits@D@_STL@@V?$allocator@D@2@@_STL@@@2@@_STL@@QAE@ABV?$allocator@V?$basic_string@DV?$char_traits@D@_STL@@V?$allocator@D@2@@_STL@@@1@@Z ; _STL::_List_base<_STL::basic_string<char,_STL::char_traits<char>,_STL::allocator<char> >,_STL::allocator<_STL::basic_string<char,_STL::char_traits<char>,_STL::allocator<char> > > >::_List_base<_STL::basic_string<char,_STL::char_traits<char>,_STL::allocator<char> >,_STL::allocator<_STL::basic_string<char,_STL::char_traits<char>,_STL::allocator<char> > > >
  00029	8b 07		 mov	 eax, DWORD PTR [edi]
  0002b	8b 08		 mov	 ecx, DWORD PTR [eax]
  0002d	83 65 fc 00	 and	 DWORD PTR __$EHRec$[ebp+8], 0
  00031	50		 push	 eax
  00032	51		 push	 ecx
  00033	51		 push	 ecx
  00034	8b 0e		 mov	 ecx, DWORD PTR [esi]
  00036	8b 09		 mov	 ecx, DWORD PTR [ecx]
  00038	8b c4		 mov	 eax, esp
  0003a	89 08		 mov	 DWORD PTR [eax], ecx
  0003c	8b ce		 mov	 ecx, esi
  0003e	89 65 ec	 mov	 DWORD PTR $T104293[ebp], esp
  00041	e8 00 00 00 00	 call	 ??$insert@U?$_List_iterator@V?$basic_string@DV?$char_traits@D@_STL@@V?$allocator@D@2@@_STL@@U?$_Const_traits@V?$basic_string@DV?$char_traits@D@_STL@@V?$allocator@D@2@@_STL@@@2@@_STL@@@?$list@V?$basic_string@DV?$char_traits@D@_STL@@V?$allocator@D@2@@_STL@@V?$allocator@V?$basic_string@DV?$char_traits@D@_STL@@V?$allocator@D@2@@_STL@@@2@@_STL@@QAEXU?$_List_iterator@V?$basic_string@DV?$char_traits@D@_STL@@V?$allocator@D@2@@_STL@@U?$_Nonconst_traits@V?$basic_string@DV?$char_traits@D@_STL@@V?$allocator@D@2@@_STL@@@2@@1@U?$_List_iterator@V?$basic_string@DV?$char_traits@D@_STL@@V?$allocator@D@2@@_STL@@U?$_Const_traits@V?$basic_string@DV?$char_traits@D@_STL@@V?$allocator@D@2@@_STL@@@2@@1@1@Z ; _STL::list<_STL::basic_string<char,_STL::char_traits<char>,_STL::allocator<char> >,_STL::allocator<_STL::basic_string<char,_STL::char_traits<char>,_STL::allocator<char> > > >::insert<_STL::_List_iterator<_STL::basic_string<char,_STL::char_traits<char>,_STL::allocator<char> >,_STL::_Const_traits<_STL::basic_string<char,_STL::char_traits<char>,_STL::allocator<char> > > > >
  00046	8b 4d f4	 mov	 ecx, DWORD PTR __$EHRec$[ebp]
  00049	5f		 pop	 edi
  0004a	8b c6		 mov	 eax, esi
  0004c	64 89 0d 00 00
	00 00		 mov	 DWORD PTR fs:__except_list, ecx
  00053	5e		 pop	 esi
  00054	c9		 leave
  00055	c2 04 00	 ret	 4
_TEXT	ENDS
;	COMDAT text$x
text$x	SEGMENT
$L104294:
  00000	8b 4d f0	 mov	 ecx, DWORD PTR _this$[ebp]
  00003	e9 00 00 00 00	 jmp	 ??1?$_List_base@V?$basic_string@DV?$char_traits@D@_STL@@V?$allocator@D@2@@_STL@@V?$allocator@V?$basic_string@DV?$char_traits@D@_STL@@V?$allocator@D@2@@_STL@@@2@@_STL@@QAE@XZ ; _STL::_List_base<_STL::basic_string<char,_STL::char_traits<char>,_STL::allocator<char> >,_STL::allocator<_STL::basic_string<char,_STL::char_traits<char>,_STL::allocator<char> > > >::~_List_base<_STL::basic_string<char,_STL::char_traits<char>,_STL::allocator<char> >,_STL::allocator<_STL::basic_string<char,_STL::char_traits<char>,_STL::allocator<char> > > >
__ehhandler$??0?$list@V?$basic_string@DV?$char_traits@D@_STL@@V?$allocator@D@2@@_STL@@V?$allocator@V?$basic_string@DV?$char_traits@D@_STL@@V?$allocator@D@2@@_STL@@@2@@_STL@@QAE@ABV01@@Z:
  00008	b8 00 00 00 00	 mov	 eax, OFFSET FLAT:$T104408
  0000d	e9 00 00 00 00	 jmp	 ___CxxFrameHandler
text$x	ENDS
??0?$list@V?$basic_string@DV?$char_traits@D@_STL@@V?$allocator@D@2@@_STL@@V?$allocator@V?$basic_string@DV?$char_traits@D@_STL@@V?$allocator@D@2@@_STL@@@2@@_STL@@QAE@ABV01@@Z ENDP ; _STL::list<_STL::basic_string<char,_STL::char_traits<char>,_STL::allocator<char> >,_STL::allocator<_STL::basic_string<char,_STL::char_traits<char>,_STL::allocator<char> > > >::list<_STL::basic_string<char,_STL::char_traits<char>,_STL::allocator<char> >,_STL::allocator<_STL::basic_string<char,_STL::char_traits<char>,_STL::allocator<char> > > >
; Function compile flags: /Ogsy
;	COMDAT ?get_allocator@?$_List_base@V?$basic_string@DV?$char_traits@D@_STL@@V?$allocator@D@2@@_STL@@V?$allocator@V?$basic_string@DV?$char_traits@D@_STL@@V?$allocator@D@2@@_STL@@@2@@_STL@@QBE?AV?$allocator@V?$basic_string@DV?$char_traits@D@_STL@@V?$allocator@D@2@@_STL@@@2@XZ
_TEXT	SEGMENT
___$ReturnUdt$ = 8					; size = 4
?get_allocator@?$_List_base@V?$basic_string@DV?$char_traits@D@_STL@@V?$allocator@D@2@@_STL@@V?$allocator@V?$basic_string@DV?$char_traits@D@_STL@@V?$allocator@D@2@@_STL@@@2@@_STL@@QBE?AV?$allocator@V?$basic_string@DV?$char_traits@D@_STL@@V?$allocator@D@2@@_STL@@@2@XZ PROC NEAR ; _STL::_List_base<_STL::basic_string<char,_STL::char_traits<char>,_STL::allocator<char> >,_STL::allocator<_STL::basic_string<char,_STL::char_traits<char>,_STL::allocator<char> > > >::get_allocator, COMDAT
; _this$ = ecx

; 179  :     return _STLP_CONVERT_ALLOCATOR((const _Node_allocator_type&)_M_node, _Tp);

  00000	8b 44 24 04	 mov	 eax, DWORD PTR ___$ReturnUdt$[esp-4]

; 180  :   }

  00004	c2 04 00	 ret	 4
?get_allocator@?$_List_base@V?$basic_string@DV?$char_traits@D@_STL@@V?$allocator@D@2@@_STL@@V?$allocator@V?$basic_string@DV?$char_traits@D@_STL@@V?$allocator@D@2@@_STL@@@2@@_STL@@QBE?AV?$allocator@V?$basic_string@DV?$char_traits@D@_STL@@V?$allocator@D@2@@_STL@@@2@XZ ENDP ; _STL::_List_base<_STL::basic_string<char,_STL::char_traits<char>,_STL::allocator<char> >,_STL::allocator<_STL::basic_string<char,_STL::char_traits<char>,_STL::allocator<char> > > >::get_allocator
_TEXT	ENDS
PUBLIC	??$_M_insert_dispatch@U?$_List_iterator@V?$basic_string@DV?$char_traits@D@_STL@@V?$allocator@D@2@@_STL@@U?$_Const_traits@V?$basic_string@DV?$char_traits@D@_STL@@V?$allocator@D@2@@_STL@@@2@@_STL@@@?$list@V?$basic_string@DV?$char_traits@D@_STL@@V?$allocator@D@2@@_STL@@V?$allocator@V?$basic_string@DV?$char_traits@D@_STL@@V?$allocator@D@2@@_STL@@@2@@_STL@@QAEXU?$_List_iterator@V?$basic_string@DV?$char_traits@D@_STL@@V?$allocator@D@2@@_STL@@U?$_Nonconst_traits@V?$basic_string@DV?$char_traits@D@_STL@@V?$allocator@D@2@@_STL@@@2@@1@U?$_List_iterator@V?$basic_string@DV?$char_traits@D@_STL@@V?$allocator@D@2@@_STL@@U?$_Const_traits@V?$basic_string@DV?$char_traits@D@_STL@@V?$allocator@D@2@@_STL@@@2@@1@1ABU__false_type@1@@Z ; _STL::list<_STL::basic_string<char,_STL::char_traits<char>,_STL::allocator<char> >,_STL::allocator<_STL::basic_string<char,_STL::char_traits<char>,_STL::allocator<char> > > >::_M_insert_dispatch<_STL::_List_iterator<_STL::basic_string<char,_STL::char_traits<char>,_STL::allocator<char> >,_STL::_Const_traits<_STL::basic_string<char,_STL::char_traits<char>,_STL::allocator<char> > > > >
; Function compile flags: /Ogsy
;	COMDAT ??$insert@U?$_List_iterator@V?$basic_string@DV?$char_traits@D@_STL@@V?$allocator@D@2@@_STL@@U?$_Const_traits@V?$basic_string@DV?$char_traits@D@_STL@@V?$allocator@D@2@@_STL@@@2@@_STL@@@?$list@V?$basic_string@DV?$char_traits@D@_STL@@V?$allocator@D@2@@_STL@@V?$allocator@V?$basic_string@DV?$char_traits@D@_STL@@V?$allocator@D@2@@_STL@@@2@@_STL@@QAEXU?$_List_iterator@V?$basic_string@DV?$char_traits@D@_STL@@V?$allocator@D@2@@_STL@@U?$_Nonconst_traits@V?$basic_string@DV?$char_traits@D@_STL@@V?$allocator@D@2@@_STL@@@2@@1@U?$_List_iterator@V?$basic_string@DV?$char_traits@D@_STL@@V?$allocator@D@2@@_STL@@U?$_Const_traits@V?$basic_string@DV?$char_traits@D@_STL@@V?$allocator@D@2@@_STL@@@2@@1@1@Z
_TEXT	SEGMENT
$T104421 = -1						; size = 1
___pos$ = 8						; size = 4
___first$ = 12						; size = 4
___last$ = 16						; size = 4
??$insert@U?$_List_iterator@V?$basic_string@DV?$char_traits@D@_STL@@V?$allocator@D@2@@_STL@@U?$_Const_traits@V?$basic_string@DV?$char_traits@D@_STL@@V?$allocator@D@2@@_STL@@@2@@_STL@@@?$list@V?$basic_string@DV?$char_traits@D@_STL@@V?$allocator@D@2@@_STL@@V?$allocator@V?$basic_string@DV?$char_traits@D@_STL@@V?$allocator@D@2@@_STL@@@2@@_STL@@QAEXU?$_List_iterator@V?$basic_string@DV?$char_traits@D@_STL@@V?$allocator@D@2@@_STL@@U?$_Nonconst_traits@V?$basic_string@DV?$char_traits@D@_STL@@V?$allocator@D@2@@_STL@@@2@@1@U?$_List_iterator@V?$basic_string@DV?$char_traits@D@_STL@@V?$allocator@D@2@@_STL@@U?$_Const_traits@V?$basic_string@DV?$char_traits@D@_STL@@V?$allocator@D@2@@_STL@@@2@@1@1@Z PROC NEAR ; _STL::list<_STL::basic_string<char,_STL::char_traits<char>,_STL::allocator<char> >,_STL::allocator<_STL::basic_string<char,_STL::char_traits<char>,_STL::allocator<char> > > >::insert<_STL::_List_iterator<_STL::basic_string<char,_STL::char_traits<char>,_STL::allocator<char> >,_STL::_Const_traits<_STL::basic_string<char,_STL::char_traits<char>,_STL::allocator<char> > > > >, COMDAT
; _this$ = ecx

; 312  :   void insert(iterator __pos, _InputIterator __first, _InputIterator __last) {

  00000	55		 push	 ebp
  00001	8b ec		 mov	 ebp, esp
  00003	51		 push	 ecx

; 313  :     typedef typename _Is_integer<_InputIterator>::_Integral _Integral;
; 314  :     _M_insert_dispatch(__pos, __first, __last, _Integral());

  00004	8b 55 08	 mov	 edx, DWORD PTR ___pos$[ebp]
  00007	57		 push	 edi
  00008	33 c0		 xor	 eax, eax
  0000a	8d 7d ff	 lea	 edi, DWORD PTR $T104421[ebp]
  0000d	aa		 stosb
  0000e	8d 45 ff	 lea	 eax, DWORD PTR $T104421[ebp]
  00011	50		 push	 eax
  00012	ff 75 10	 push	 DWORD PTR ___last$[ebp]
  00015	ff 75 0c	 push	 DWORD PTR ___first$[ebp]
  00018	51		 push	 ecx
  00019	8b c4		 mov	 eax, esp
  0001b	89 10		 mov	 DWORD PTR [eax], edx
  0001d	e8 00 00 00 00	 call	 ??$_M_insert_dispatch@U?$_List_iterator@V?$basic_string@DV?$char_traits@D@_STL@@V?$allocator@D@2@@_STL@@U?$_Const_traits@V?$basic_string@DV?$char_traits@D@_STL@@V?$allocator@D@2@@_STL@@@2@@_STL@@@?$list@V?$basic_string@DV?$char_traits@D@_STL@@V?$allocator@D@2@@_STL@@V?$allocator@V?$basic_string@DV?$char_traits@D@_STL@@V?$allocator@D@2@@_STL@@@2@@_STL@@QAEXU?$_List_iterator@V?$basic_string@DV?$char_traits@D@_STL@@V?$allocator@D@2@@_STL@@U?$_Nonconst_traits@V?$basic_string@DV?$char_traits@D@_STL@@V?$allocator@D@2@@_STL@@@2@@1@U?$_List_iterator@V?$basic_string@DV?$char_traits@D@_STL@@V?$allocator@D@2@@_STL@@U?$_Const_traits@V?$basic_string@DV?$char_traits@D@_STL@@V?$allocator@D@2@@_STL@@@2@@1@1ABU__false_type@1@@Z ; _STL::list<_STL::basic_string<char,_STL::char_traits<char>,_STL::allocator<char> >,_STL::allocator<_STL::basic_string<char,_STL::char_traits<char>,_STL::allocator<char> > > >::_M_insert_dispatch<_STL::_List_iterator<_STL::basic_string<char,_STL::char_traits<char>,_STL::allocator<char> >,_STL::_Const_traits<_STL::basic_string<char,_STL::char_traits<char>,_STL::allocator<char> > > > >

; 315  :   }

  00022	5f		 pop	 edi
  00023	c9		 leave
  00024	c2 0c 00	 ret	 12			; 0000000cH
??$insert@U?$_List_iterator@V?$basic_string@DV?$char_traits@D@_STL@@V?$allocator@D@2@@_STL@@U?$_Const_traits@V?$basic_string@DV?$char_traits@D@_STL@@V?$allocator@D@2@@_STL@@@2@@_STL@@@?$list@V?$basic_string@DV?$char_traits@D@_STL@@V?$allocator@D@2@@_STL@@V?$allocator@V?$basic_string@DV?$char_traits@D@_STL@@V?$allocator@D@2@@_STL@@@2@@_STL@@QAEXU?$_List_iterator@V?$basic_string@DV?$char_traits@D@_STL@@V?$allocator@D@2@@_STL@@U?$_Nonconst_traits@V?$basic_string@DV?$char_traits@D@_STL@@V?$allocator@D@2@@_STL@@@2@@1@U?$_List_iterator@V?$basic_string@DV?$char_traits@D@_STL@@V?$allocator@D@2@@_STL@@U?$_Const_traits@V?$basic_string@DV?$char_traits@D@_STL@@V?$allocator@D@2@@_STL@@@2@@1@1@Z ENDP ; _STL::list<_STL::basic_string<char,_STL::char_traits<char>,_STL::allocator<char> >,_STL::allocator<_STL::basic_string<char,_STL::char_traits<char>,_STL::allocator<char> > > >::insert<_STL::_List_iterator<_STL::basic_string<char,_STL::char_traits<char>,_STL::allocator<char> >,_STL::_Const_traits<_STL::basic_string<char,_STL::char_traits<char>,_STL::allocator<char> > > > >
_TEXT	ENDS
PUBLIC	?_M_create_node@?$list@V?$basic_string@DV?$char_traits@D@_STL@@V?$allocator@D@2@@_STL@@V?$allocator@V?$basic_string@DV?$char_traits@D@_STL@@V?$allocator@D@2@@_STL@@@2@@_STL@@IAEPAU?$_List_node@V?$basic_string@DV?$char_traits@D@_STL@@V?$allocator@D@2@@_STL@@@2@ABV?$basic_string@DV?$char_traits@D@_STL@@V?$allocator@D@2@@2@@Z ; _STL::list<_STL::basic_string<char,_STL::char_traits<char>,_STL::allocator<char> >,_STL::allocator<_STL::basic_string<char,_STL::char_traits<char>,_STL::allocator<char> > > >::_M_create_node
; Function compile flags: /Ogsy
;	COMDAT ??$_M_insert_dispatch@U?$_List_iterator@V?$basic_string@DV?$char_traits@D@_STL@@V?$allocator@D@2@@_STL@@U?$_Const_traits@V?$basic_string@DV?$char_traits@D@_STL@@V?$allocator@D@2@@_STL@@@2@@_STL@@@?$list@V?$basic_string@DV?$char_traits@D@_STL@@V?$allocator@D@2@@_STL@@V?$allocator@V?$basic_string@DV?$char_traits@D@_STL@@V?$allocator@D@2@@_STL@@@2@@_STL@@QAEXU?$_List_iterator@V?$basic_string@DV?$char_traits@D@_STL@@V?$allocator@D@2@@_STL@@U?$_Nonconst_traits@V?$basic_string@DV?$char_traits@D@_STL@@V?$allocator@D@2@@_STL@@@2@@1@U?$_List_iterator@V?$basic_string@DV?$char_traits@D@_STL@@V?$allocator@D@2@@_STL@@U?$_Const_traits@V?$basic_string@DV?$char_traits@D@_STL@@V?$allocator@D@2@@_STL@@@2@@1@1ABU__false_type@1@@Z
_TEXT	SEGMENT
___position$ = 8					; size = 4
___first$ = 12						; size = 4
___last$ = 16						; size = 4
___formal$ = 20						; size = 4
??$_M_insert_dispatch@U?$_List_iterator@V?$basic_string@DV?$char_traits@D@_STL@@V?$allocator@D@2@@_STL@@U?$_Const_traits@V?$basic_string@DV?$char_traits@D@_STL@@V?$allocator@D@2@@_STL@@@2@@_STL@@@?$list@V?$basic_string@DV?$char_traits@D@_STL@@V?$allocator@D@2@@_STL@@V?$allocator@V?$basic_string@DV?$char_traits@D@_STL@@V?$allocator@D@2@@_STL@@@2@@_STL@@QAEXU?$_List_iterator@V?$basic_string@DV?$char_traits@D@_STL@@V?$allocator@D@2@@_STL@@U?$_Nonconst_traits@V?$basic_string@DV?$char_traits@D@_STL@@V?$allocator@D@2@@_STL@@@2@@1@U?$_List_iterator@V?$basic_string@DV?$char_traits@D@_STL@@V?$allocator@D@2@@_STL@@U?$_Const_traits@V?$basic_string@DV?$char_traits@D@_STL@@V?$allocator@D@2@@_STL@@@2@@1@1ABU__false_type@1@@Z PROC NEAR ; _STL::list<_STL::basic_string<char,_STL::char_traits<char>,_STL::allocator<char> >,_STL::allocator<_STL::basic_string<char,_STL::char_traits<char>,_STL::allocator<char> > > >::_M_insert_dispatch<_STL::_List_iterator<_STL::basic_string<char,_STL::char_traits<char>,_STL::allocator<char> >,_STL::_Const_traits<_STL::basic_string<char,_STL::char_traits<char>,_STL::allocator<char> > > > >, COMDAT
; _this$ = ecx

; 323  :   void 

  00000	53		 push	 ebx
  00001	56		 push	 esi

; 324  :   _M_insert_dispatch(iterator __position,
; 325  : 		     _InputIter __first, _InputIter __last,
; 326  : 		     const __false_type&) 
; 327  : #else /* _STLP_MEMBER_TEMPLATES */
; 328  :   void insert(iterator __position, const _Tp* __first, const _Tp* __last) {
; 329  :     for ( ; __first != __last; ++__first)
; 330  :       insert(__position, *__first);
; 331  :   }
; 332  :   void insert(iterator __position, const_iterator __first, const_iterator __last)
; 333  : #endif /* _STLP_MEMBER_TEMPLATES */
; 334  :   {
; 335  :     for ( ; __first != __last; ++__first)

  00002	8b 74 24 10	 mov	 esi, DWORD PTR ___first$[esp+4]
  00006	3b 74 24 14	 cmp	 esi, DWORD PTR ___last$[esp+4]
  0000a	57		 push	 edi
  0000b	8b d9		 mov	 ebx, ecx
  0000d	74 24		 je	 SHORT $L102049
  0000f	8b 7c 24 10	 mov	 edi, DWORD PTR ___position$[esp+8]
$L104491:

; 336  :       insert(__position, *__first);

  00013	8d 46 08	 lea	 eax, DWORD PTR [esi+8]
  00016	50		 push	 eax
  00017	8b cb		 mov	 ecx, ebx
  00019	e8 00 00 00 00	 call	 ?_M_create_node@?$list@V?$basic_string@DV?$char_traits@D@_STL@@V?$allocator@D@2@@_STL@@V?$allocator@V?$basic_string@DV?$char_traits@D@_STL@@V?$allocator@D@2@@_STL@@@2@@_STL@@IAEPAU?$_List_node@V?$basic_string@DV?$char_traits@D@_STL@@V?$allocator@D@2@@_STL@@@2@ABV?$basic_string@DV?$char_traits@D@_STL@@V?$allocator@D@2@@2@@Z ; _STL::list<_STL::basic_string<char,_STL::char_traits<char>,_STL::allocator<char> >,_STL::allocator<_STL::basic_string<char,_STL::char_traits<char>,_STL::allocator<char> > > >::_M_create_node
  0001e	8b 4f 04	 mov	 ecx, DWORD PTR [edi+4]
  00021	89 38		 mov	 DWORD PTR [eax], edi
  00023	89 48 04	 mov	 DWORD PTR [eax+4], ecx
  00026	89 01		 mov	 DWORD PTR [ecx], eax
  00028	89 47 04	 mov	 DWORD PTR [edi+4], eax
  0002b	8b 36		 mov	 esi, DWORD PTR [esi]
  0002d	3b 74 24 18	 cmp	 esi, DWORD PTR ___last$[esp+8]
  00031	75 e0		 jne	 SHORT $L104491
$L102049:

; 337  :   }

  00033	5f		 pop	 edi
  00034	5e		 pop	 esi
  00035	5b		 pop	 ebx
  00036	c2 10 00	 ret	 16			; 00000010H
??$_M_insert_dispatch@U?$_List_iterator@V?$basic_string@DV?$char_traits@D@_STL@@V?$allocator@D@2@@_STL@@U?$_Const_traits@V?$basic_string@DV?$char_traits@D@_STL@@V?$allocator@D@2@@_STL@@@2@@_STL@@@?$list@V?$basic_string@DV?$char_traits@D@_STL@@V?$allocator@D@2@@_STL@@V?$allocator@V?$basic_string@DV?$char_traits@D@_STL@@V?$allocator@D@2@@_STL@@@2@@_STL@@QAEXU?$_List_iterator@V?$basic_string@DV?$char_traits@D@_STL@@V?$allocator@D@2@@_STL@@U?$_Nonconst_traits@V?$basic_string@DV?$char_traits@D@_STL@@V?$allocator@D@2@@_STL@@@2@@1@U?$_List_iterator@V?$basic_string@DV?$char_traits@D@_STL@@V?$allocator@D@2@@_STL@@U?$_Const_traits@V?$basic_string@DV?$char_traits@D@_STL@@V?$allocator@D@2@@_STL@@@2@@1@1ABU__false_type@1@@Z ENDP ; _STL::list<_STL::basic_string<char,_STL::char_traits<char>,_STL::allocator<char> >,_STL::allocator<_STL::basic_string<char,_STL::char_traits<char>,_STL::allocator<char> > > >::_M_insert_dispatch<_STL::_List_iterator<_STL::basic_string<char,_STL::char_traits<char>,_STL::allocator<char> >,_STL::_Const_traits<_STL::basic_string<char,_STL::char_traits<char>,_STL::allocator<char> > > > >
_TEXT	ENDS
PUBLIC	??3@YAXPAX0@Z					; operator delete
;	COMDAT xdata$x
; File c:\program files\microsoft visual studio .net 2003\vc7\include\new
xdata$x	SEGMENT
$T104563 DD	0ffffffffH
	DD	00H
	DD	00H
	DD	FLAT:$L104546
	DD	0ffffffffH
	DD	00H
$T104565 DD	00H
	DD	00H
	DD	00H
	DD	FLAT:$L104533
$T104564 DD	00H
	DD	01H
	DD	02H
	DD	01H
	DD	FLAT:$T104565
$T104560 DD	019930520H
	DD	03H
	DD	FLAT:$T104563
	DD	01H
	DD	FLAT:$T104564
	DD	2 DUP(00H)
; Function compile flags: /Ogsy
; File c:\stlport-4.6.1\stlport\stl\_list.h
xdata$x	ENDS
;	COMDAT ?_M_create_node@?$list@V?$basic_string@DV?$char_traits@D@_STL@@V?$allocator@D@2@@_STL@@V?$allocator@V?$basic_string@DV?$char_traits@D@_STL@@V?$allocator@D@2@@_STL@@@2@@_STL@@IAEPAU?$_List_node@V?$basic_string@DV?$char_traits@D@_STL@@V?$allocator@D@2@@_STL@@@2@ABV?$basic_string@DV?$char_traits@D@_STL@@V?$allocator@D@2@@2@@Z
_TEXT	SEGMENT
$T104552 = -32						; size = 4
$T104558 = -28						; size = 4
_this$ = -24						; size = 4
___p$ = -20						; size = 4
__$EHRec$ = -16						; size = 16
___x$ = 8						; size = 4
?_M_create_node@?$list@V?$basic_string@DV?$char_traits@D@_STL@@V?$allocator@D@2@@_STL@@V?$allocator@V?$basic_string@DV?$char_traits@D@_STL@@V?$allocator@D@2@@_STL@@@2@@_STL@@IAEPAU?$_List_node@V?$basic_string@DV?$char_traits@D@_STL@@V?$allocator@D@2@@_STL@@@2@ABV?$basic_string@DV?$char_traits@D@_STL@@V?$allocator@D@2@@2@@Z PROC NEAR ; _STL::list<_STL::basic_string<char,_STL::char_traits<char>,_STL::allocator<char> >,_STL::allocator<_STL::basic_string<char,_STL::char_traits<char>,_STL::allocator<char> > > >::_M_create_node, COMDAT
; _this$ = ecx

; 240  :   {

  00000	b8 00 00 00 00	 mov	 eax, __ehhandler$?_M_create_node@?$list@V?$basic_string@DV?$char_traits@D@_STL@@V?$allocator@D@2@@_STL@@V?$allocator@V?$basic_string@DV?$char_traits@D@_STL@@V?$allocator@D@2@@_STL@@@2@@_STL@@IAEPAU?$_List_node@V?$basic_string@DV?$char_traits@D@_STL@@V?$allocator@D@2@@_STL@@@2@ABV?$basic_string@DV?$char_traits@D@_STL@@V?$allocator@D@2@@2@@Z
  00005	e8 00 00 00 00	 call	 __EH_prolog
  0000a	83 ec 14	 sub	 esp, 20			; 00000014H
  0000d	53		 push	 ebx
  0000e	56		 push	 esi
  0000f	57		 push	 edi
  00010	89 65 f0	 mov	 DWORD PTR __$EHRec$[ebp], esp

; 241  :     _Node* __p = this->_M_node.allocate(1);

  00013	6a 14		 push	 20			; 00000014H
  00015	89 4d e8	 mov	 DWORD PTR _this$[ebp], ecx
  00018	e8 00 00 00 00	 call	 ?allocate@?$__node_alloc@$00$0A@@_STL@@SAPAXI@Z ; _STL::__node_alloc<1,0>::allocate

; 242  :     _STLP_TRY {

  0001d	83 65 fc 00	 and	 DWORD PTR __$EHRec$[ebp+12], 0
  00021	8b f0		 mov	 esi, eax
  00023	59		 pop	 ecx

; 243  :       _Construct(&__p->_M_data, __x);

  00024	8d 4e 08	 lea	 ecx, DWORD PTR [esi+8]
  00027	89 75 ec	 mov	 DWORD PTR ___p$[ebp], esi
  0002a	89 4d e4	 mov	 DWORD PTR $T104558[ebp], ecx
  0002d	89 4d e0	 mov	 DWORD PTR $T104552[ebp], ecx
  00030	85 c9		 test	 ecx, ecx
  00032	c6 45 fc 01	 mov	 BYTE PTR __$EHRec$[ebp+12], 1
  00036	74 08		 je	 SHORT $L104553
  00038	ff 75 08	 push	 DWORD PTR ___x$[ebp]
  0003b	e8 00 00 00 00	 call	 ??0?$basic_string@DV?$char_traits@D@_STL@@V?$allocator@D@2@@_STL@@QAE@ABV01@@Z ; _STL::basic_string<char,_STL::char_traits<char>,_STL::allocator<char> >::basic_string<char,_STL::char_traits<char>,_STL::allocator<char> >
$L104553:

; 246  :     return __p;
; 247  :   }

  00040	8b 4d f4	 mov	 ecx, DWORD PTR __$EHRec$[ebp+4]
  00043	5f		 pop	 edi
  00044	8b c6		 mov	 eax, esi
  00046	5e		 pop	 esi
  00047	64 89 0d 00 00
	00 00		 mov	 DWORD PTR fs:__except_list, ecx
  0004e	5b		 pop	 ebx
  0004f	c9		 leave
  00050	c2 04 00	 ret	 4
$L104533:

; 244  :     }
; 245  :     _STLP_UNWIND(this->_M_node.deallocate(__p, 1));

  00053	8b 4d e8	 mov	 ecx, DWORD PTR _this$[ebp]
  00056	6a 01		 push	 1
  00058	ff 75 ec	 push	 DWORD PTR ___p$[ebp]
  0005b	e8 00 00 00 00	 call	 ?deallocate@?$allocator@U?$_List_node@V?$basic_string@DV?$char_traits@D@_STL@@V?$allocator@D@2@@_STL@@@_STL@@@_STL@@QAEXPAU?$_List_node@V?$basic_string@DV?$char_traits@D@_STL@@V?$allocator@D@2@@_STL@@@2@I@Z ; _STL::allocator<_STL::_List_node<_STL::basic_string<char,_STL::char_traits<char>,_STL::allocator<char> > > >::deallocate
  00060	6a 00		 push	 0
  00062	6a 00		 push	 0
  00064	e8 00 00 00 00	 call	 __CxxThrowException@8
$L104566:
$L104562:
  00069	cc		 int	 3
_TEXT	ENDS
;	COMDAT text$x
text$x	SEGMENT
$L104546:
  00000	ff 75 e4	 push	 DWORD PTR $T104558[ebp]
  00003	ff 75 e0	 push	 DWORD PTR $T104552[ebp]
  00006	e8 00 00 00 00	 call	 ??3@YAXPAX0@Z		; operator delete
  0000b	59		 pop	 ecx
  0000c	59		 pop	 ecx
  0000d	c3		 ret	 0
__ehhandler$?_M_create_node@?$list@V?$basic_string@DV?$char_traits@D@_STL@@V?$allocator@D@2@@_STL@@V?$allocator@V?$basic_string@DV?$char_traits@D@_STL@@V?$allocator@D@2@@_STL@@@2@@_STL@@IAEPAU?$_List_node@V?$basic_string@DV?$char_traits@D@_STL@@V?$allocator@D@2@@_STL@@@2@ABV?$basic_string@DV?$char_traits@D@_STL@@V?$allocator@D@2@@2@@Z:
  0000e	b8 00 00 00 00	 mov	 eax, OFFSET FLAT:$T104560
  00013	e9 00 00 00 00	 jmp	 ___CxxFrameHandler
text$x	ENDS
?_M_create_node@?$list@V?$basic_string@DV?$char_traits@D@_STL@@V?$allocator@D@2@@_STL@@V?$allocator@V?$basic_string@DV?$char_traits@D@_STL@@V?$allocator@D@2@@_STL@@@2@@_STL@@IAEPAU?$_List_node@V?$basic_string@DV?$char_traits@D@_STL@@V?$allocator@D@2@@_STL@@@2@ABV?$basic_string@DV?$char_traits@D@_STL@@V?$allocator@D@2@@2@@Z ENDP ; _STL::list<_STL::basic_string<char,_STL::char_traits<char>,_STL::allocator<char> >,_STL::allocator<_STL::basic_string<char,_STL::char_traits<char>,_STL::allocator<char> > > >::_M_create_node
; Function compile flags: /Ogsy
; File c:\program files\microsoft visual studio .net 2003\vc7\include\new
;	COMDAT ??3@YAXPAX0@Z
_TEXT	SEGMENT
___formal$ = 8						; size = 4
___formal$ = 12						; size = 4
??3@YAXPAX0@Z PROC NEAR					; operator delete, COMDAT

; 69   : 	}

  00000	c3		 ret	 0
??3@YAXPAX0@Z ENDP					; operator delete
; Function compile flags: /Ogsy
_TEXT	ENDS
;	COMDAT ??0Exception@@QAE@ABV0@@Z
_TEXT	SEGMENT
___that$ = 8						; size = 4
??0Exception@@QAE@ABV0@@Z PROC NEAR			; Exception::Exception, COMDAT
; _this$ = ecx
  00000	56		 push	 esi
  00001	ff 74 24 08	 push	 DWORD PTR ___that$[esp]
  00005	8b f1		 mov	 esi, ecx
  00007	e8 00 00 00 00	 call	 ??0Throwable@@QAE@ABV0@@Z
  0000c	c7 06 00 00 00
	00		 mov	 DWORD PTR [esi], OFFSET FLAT:??_7Exception@@6B@
  00012	8b c6		 mov	 eax, esi
  00014	5e		 pop	 esi
  00015	c2 04 00	 ret	 4
??0Exception@@QAE@ABV0@@Z ENDP				; Exception::Exception
; Function compile flags: /Ogsy
_TEXT	ENDS
;	COMDAT ??0IOException@@QAE@ABV0@@Z
_TEXT	SEGMENT
___that$ = 8						; size = 4
??0IOException@@QAE@ABV0@@Z PROC NEAR			; IOException::IOException, COMDAT
; _this$ = ecx
  00000	56		 push	 esi
  00001	ff 74 24 08	 push	 DWORD PTR ___that$[esp]
  00005	8b f1		 mov	 esi, ecx
  00007	e8 00 00 00 00	 call	 ??0Exception@@QAE@ABV0@@Z
  0000c	c7 06 00 00 00
	00		 mov	 DWORD PTR [esi], OFFSET FLAT:??_7IOException@@6B@
  00012	8b c6		 mov	 eax, esi
  00014	5e		 pop	 esi
  00015	c2 04 00	 ret	 4
??0IOException@@QAE@ABV0@@Z ENDP			; IOException::IOException
; Function compile flags: /Ogsy
_TEXT	ENDS
;	COMDAT ??0RuntimeException@@QAE@ABV0@@Z
_TEXT	SEGMENT
___that$ = 8						; size = 4
??0RuntimeException@@QAE@ABV0@@Z PROC NEAR		; RuntimeException::RuntimeException, COMDAT
; _this$ = ecx
  00000	56		 push	 esi
  00001	ff 74 24 08	 push	 DWORD PTR ___that$[esp]
  00005	8b f1		 mov	 esi, ecx
  00007	e8 00 00 00 00	 call	 ??0Exception@@QAE@ABV0@@Z
  0000c	c7 06 00 00 00
	00		 mov	 DWORD PTR [esi], OFFSET FLAT:??_7RuntimeException@@6B@
  00012	8b c6		 mov	 eax, esi
  00014	5e		 pop	 esi
  00015	c2 04 00	 ret	 4
??0RuntimeException@@QAE@ABV0@@Z ENDP			; RuntimeException::RuntimeException
; Function compile flags: /Ogsy
_TEXT	ENDS
;	COMDAT ??0NoSuchElementException@@QAE@ABV0@@Z
_TEXT	SEGMENT
___that$ = 8						; size = 4
??0NoSuchElementException@@QAE@ABV0@@Z PROC NEAR	; NoSuchElementException::NoSuchElementException, COMDAT
; _this$ = ecx
  00000	56		 push	 esi
  00001	ff 74 24 08	 push	 DWORD PTR ___that$[esp]
  00005	8b f1		 mov	 esi, ecx
  00007	e8 00 00 00 00	 call	 ??0RuntimeException@@QAE@ABV0@@Z
  0000c	c7 06 00 00 00
	00		 mov	 DWORD PTR [esi], OFFSET FLAT:??_7NoSuchElementException@@6B@
  00012	8b c6		 mov	 eax, esi
  00014	5e		 pop	 esi
  00015	c2 04 00	 ret	 4
??0NoSuchElementException@@QAE@ABV0@@Z ENDP		; NoSuchElementException::NoSuchElementException
; Function compile flags: /Ogsy
_TEXT	ENDS
;	COMDAT ??0ProtocolException@@QAE@ABV0@@Z
_TEXT	SEGMENT
___that$ = 8						; size = 4
??0ProtocolException@@QAE@ABV0@@Z PROC NEAR		; ProtocolException::ProtocolException, COMDAT
; _this$ = ecx
  00000	56		 push	 esi
  00001	ff 74 24 08	 push	 DWORD PTR ___that$[esp]
  00005	8b f1		 mov	 esi, ecx
  00007	e8 00 00 00 00	 call	 ??0IOException@@QAE@ABV0@@Z
  0000c	c7 06 00 00 00
	00		 mov	 DWORD PTR [esi], OFFSET FLAT:??_7ProtocolException@@6B@
  00012	8b c6		 mov	 eax, esi
  00014	5e		 pop	 esi
  00015	c2 04 00	 ret	 4
??0ProtocolException@@QAE@ABV0@@Z ENDP			; ProtocolException::ProtocolException
; Function compile flags: /Ogsy
_TEXT	ENDS
;	COMDAT ??0DuplicatedException@@QAE@ABV0@@Z
_TEXT	SEGMENT
___that$ = 8						; size = 4
??0DuplicatedException@@QAE@ABV0@@Z PROC NEAR		; DuplicatedException::DuplicatedException, COMDAT
; _this$ = ecx
  00000	56		 push	 esi
  00001	ff 74 24 08	 push	 DWORD PTR ___that$[esp]
  00005	8b f1		 mov	 esi, ecx
  00007	e8 00 00 00 00	 call	 ??0RuntimeException@@QAE@ABV0@@Z
  0000c	c7 06 00 00 00
	00		 mov	 DWORD PTR [esi], OFFSET FLAT:??_7DuplicatedException@@6B@
  00012	8b c6		 mov	 eax, esi
  00014	5e		 pop	 esi
  00015	c2 04 00	 ret	 4
??0DuplicatedException@@QAE@ABV0@@Z ENDP		; DuplicatedException::DuplicatedException
; Function compile flags: /Ogsy
_TEXT	ENDS
;	COMDAT ??0IgnorePacketException@@QAE@ABV0@@Z
_TEXT	SEGMENT
___that$ = 8						; size = 4
??0IgnorePacketException@@QAE@ABV0@@Z PROC NEAR		; IgnorePacketException::IgnorePacketException, COMDAT
; _this$ = ecx
  00000	56		 push	 esi
  00001	ff 74 24 08	 push	 DWORD PTR ___that$[esp]
  00005	8b f1		 mov	 esi, ecx
  00007	e8 00 00 00 00	 call	 ??0ProtocolException@@QAE@ABV0@@Z
  0000c	c7 06 00 00 00
	00		 mov	 DWORD PTR [esi], OFFSET FLAT:??_7IgnorePacketException@@6B@
  00012	8b c6		 mov	 eax, esi
  00014	5e		 pop	 esi
  00015	c2 04 00	 ret	 4
??0IgnorePacketException@@QAE@ABV0@@Z ENDP		; IgnorePacketException::IgnorePacketException
_TEXT	ENDS
END
