; Listing generated by Microsoft (R) Optimizing Compiler Version 13.10.3077 

	TITLE	\darkeden\Designed_Common\Project\Client\Packet\PCVampireInfo.cpp
	.386P
include listing.inc
if @Version gt 510
.model FLAT
else
_TEXT	SEGMENT PARA USE32 PUBLIC 'CODE'
_TEXT	ENDS
_DATA	SEGMENT DWORD USE32 PUBLIC 'DATA'
_DATA	ENDS
CONST	SEGMENT DWORD USE32 PUBLIC 'CONST'
CONST	ENDS
_BSS	SEGMENT DWORD USE32 PUBLIC 'BSS'
_BSS	ENDS
$$SYMBOLS	SEGMENT BYTE USE32 'DEBSYM'
$$SYMBOLS	ENDS
$$TYPES	SEGMENT BYTE USE32 'DEBTYP'
$$TYPES	ENDS
_TLS	SEGMENT DWORD USE32 PUBLIC 'TLS'
_TLS	ENDS
;	COMDAT ??_C@_0CA@NDINADEE@SocketOutputStream?$CIm_BufferLen?3?$AA@
CONST	SEGMENT DWORD USE32 PUBLIC 'CONST'
CONST	ENDS
;	COMDAT ??_C@_08LIHEOLAN@?0m_Head?3?$AA@
CONST	SEGMENT DWORD USE32 PUBLIC 'CONST'
CONST	ENDS
;	COMDAT ??_C@_08PCEHPGHK@?0m_Tail?3?$AA@
CONST	SEGMENT DWORD USE32 PUBLIC 'CONST'
CONST	ENDS
;	COMDAT ??_C@_01PKGAHCOL@?$CJ?$AA@
CONST	SEGMENT DWORD USE32 PUBLIC 'CONST'
CONST	ENDS
;	COMDAT ??_C@_0BD@EDEDIMNH@invalid?5slot?5value?$AA@
CONST	SEGMENT DWORD USE32 PUBLIC 'CONST'
CONST	ENDS
;	COMDAT ??_C@_0BC@LJLCJJHJ@invalid?5sex?5value?$AA@
CONST	SEGMENT DWORD USE32 PUBLIC 'CONST'
CONST	ENDS
;	COMDAT ??_C@_0BB@HKPCDFGM@STR?5out?5of?5range?$AA@
CONST	SEGMENT DWORD USE32 PUBLIC 'CONST'
CONST	ENDS
;	COMDAT ??_C@_0BB@GCHBACED@DEX?5out?5of?5range?$AA@
CONST	SEGMENT DWORD USE32 PUBLIC 'CONST'
CONST	ENDS
;	COMDAT ??_C@_0BB@GPOBCDAI@INT?5out?5of?5range?$AA@
CONST	SEGMENT DWORD USE32 PUBLIC 'CONST'
CONST	ENDS
;	COMDAT ??_C@_0M@CJCPDNFB@szName?5?$DN?$DN?50?$AA@
CONST	SEGMENT DWORD USE32 PUBLIC 'CONST'
CONST	ENDS
;	COMDAT ??_C@_0BF@PHNGNGMC@too?5long?5name?5length?$AA@
CONST	SEGMENT DWORD USE32 PUBLIC 'CONST'
CONST	ENDS
;	COMDAT ??_C@_0P@CFAJIGNM@PCVampireInfo?$CI?$AA@
CONST	SEGMENT DWORD USE32 PUBLIC 'CONST'
CONST	ENDS
;	COMDAT ??_C@_05HNMEJDNB@Name?3?$AA@
CONST	SEGMENT DWORD USE32 PUBLIC 'CONST'
CONST	ENDS
;	COMDAT ??_C@_07PBJICIAI@?0Level?3?$AA@
CONST	SEGMENT DWORD USE32 PUBLIC 'CONST'
CONST	ENDS
;	COMDAT ??_C@_06KJECGKNM@?0Slot?3?$AA@
CONST	SEGMENT DWORD USE32 PUBLIC 'CONST'
CONST	ENDS
;	COMDAT ??_C@_0M@PMHLFOKB@?0Alignment?3?$AA@
CONST	SEGMENT DWORD USE32 PUBLIC 'CONST'
CONST	ENDS
;	COMDAT ??_C@_05DCFDMOKK@?0Sex?3?$AA@
CONST	SEGMENT DWORD USE32 PUBLIC 'CONST'
CONST	ENDS
;	COMDAT ??_C@_0L@CAKJEDCG@?0BatColor?3?$AA@
CONST	SEGMENT DWORD USE32 PUBLIC 'CONST'
CONST	ENDS
;	COMDAT ??_C@_0M@KFPBKDAI@?0SkinColor?3?$AA@
CONST	SEGMENT DWORD USE32 PUBLIC 'CONST'
CONST	ENDS
;	COMDAT ??_C@_0L@IJJIEKLJ@?0CoatType?3?$AA@
CONST	SEGMENT DWORD USE32 PUBLIC 'CONST'
CONST	ENDS
;	COMDAT ??_C@_0M@FEEPEIEC@?0CoatColor?3?$AA@
CONST	SEGMENT DWORD USE32 PUBLIC 'CONST'
CONST	ENDS
;	COMDAT ??_C@_09OHLOGHCK@?0ArmType?3?$AA@
CONST	SEGMENT DWORD USE32 PUBLIC 'CONST'
CONST	ENDS
;	COMDAT ??_C@_0N@IJHKILIC@?0STR?$FLBASIC?$FN?3?$AA@
CONST	SEGMENT DWORD USE32 PUBLIC 'CONST'
CONST	ENDS
;	COMDAT ??_C@_0N@IJKAAEDD@?0DEX?$FLBASIC?$FN?3?$AA@
CONST	SEGMENT DWORD USE32 PUBLIC 'CONST'
CONST	ENDS
;	COMDAT ??_C@_0N@COBCGCBH@?0INT?$FLBASIC?$FN?3?$AA@
CONST	SEGMENT DWORD USE32 PUBLIC 'CONST'
CONST	ENDS
;	COMDAT ??_C@_04CKFJEKPM@?0HP?3?$AA@
CONST	SEGMENT DWORD USE32 PUBLIC 'CONST'
CONST	ENDS
;	COMDAT ??_C@_01KMDKNFGN@?1?$AA@
CONST	SEGMENT DWORD USE32 PUBLIC 'CONST'
CONST	ENDS
;	COMDAT ??_C@_06DFEIPOOA@?0Rank?3?$AA@
CONST	SEGMENT DWORD USE32 PUBLIC 'CONST'
CONST	ENDS
;	COMDAT ??_C@_05HBJDHCHC@?0Exp?3?$AA@
CONST	SEGMENT DWORD USE32 PUBLIC 'CONST'
CONST	ENDS
;	COMDAT ??_C@_06LFCEDMIJ@?0Fame?3?$AA@
CONST	SEGMENT DWORD USE32 PUBLIC 'CONST'
CONST	ENDS
;	COMDAT ??_C@_0L@DNCHKMJB@?0ArmColor?3?$AA@
CONST	SEGMENT DWORD USE32 PUBLIC 'CONST'
CONST	ENDS
;	COMDAT ??_C@_0N@GOPDCEEB@basic_string?$AA@
CONST	SEGMENT DWORD USE32 PUBLIC 'CONST'
CONST	ENDS
xdata$x	SEGMENT DWORD USE32 PUBLIC 'CONST'
xdata$x	ENDS
rdata$r	SEGMENT DWORD USE32 PUBLIC 'CONST'
rdata$r	ENDS
text$yc	SEGMENT PARA USE32 PUBLIC 'CODE'
text$yc	ENDS
CRT$XCA	SEGMENT DWORD USE32 PUBLIC 'DATA'
CRT$XCA	ENDS
CRT$XCU	SEGMENT DWORD USE32 PUBLIC 'DATA'
CRT$XCU	ENDS
CRT$XCL	SEGMENT DWORD USE32 PUBLIC 'DATA'
CRT$XCL	ENDS
CRT$XCC	SEGMENT DWORD USE32 PUBLIC 'DATA'
CRT$XCC	ENDS
CRT$XCZ	SEGMENT DWORD USE32 PUBLIC 'DATA'
CRT$XCZ	ENDS
text$yd	SEGMENT PARA USE32 PUBLIC 'CODE'
text$yd	ENDS
;	COMDAT ?getHost@SocketImpl@@QBE?AV?$basic_string@DV?$char_traits@D@_STL@@V?$allocator@D@2@@_STL@@XZ
_TEXT	SEGMENT PARA USE32 PUBLIC 'CODE'
_TEXT	ENDS
;	COMDAT ?getPort@SocketImpl@@QBEIXZ
_TEXT	SEGMENT PARA USE32 PUBLIC 'CODE'
_TEXT	ENDS
;	COMDAT ?isValid@SocketImpl@@QBE_NXZ
_TEXT	SEGMENT PARA USE32 PUBLIC 'CODE'
_TEXT	ENDS
;	COMDAT ?getSOCKET@SocketImpl@@QBEIXZ
_TEXT	SEGMENT PARA USE32 PUBLIC 'CODE'
_TEXT	ENDS
;	COMDAT ?read@SocketInputStream@@QAEIAAE@Z
_TEXT	SEGMENT PARA USE32 PUBLIC 'CODE'
_TEXT	ENDS
;	COMDAT ?read@SocketInputStream@@QAEIAAG@Z
_TEXT	SEGMENT PARA USE32 PUBLIC 'CODE'
_TEXT	ENDS
;	COMDAT ?read@SocketInputStream@@QAEIAAH@Z
_TEXT	SEGMENT PARA USE32 PUBLIC 'CODE'
_TEXT	ENDS
;	COMDAT ?read@SocketInputStream@@QAEIAAK@Z
_TEXT	SEGMENT PARA USE32 PUBLIC 'CODE'
_TEXT	ENDS
;	COMDAT ?write@SocketOutputStream@@QAEIABV?$basic_string@DV?$char_traits@D@_STL@@V?$allocator@D@2@@_STL@@@Z
_TEXT	SEGMENT PARA USE32 PUBLIC 'CODE'
_TEXT	ENDS
;	COMDAT ?write@SocketOutputStream@@QAEIE@Z
_TEXT	SEGMENT PARA USE32 PUBLIC 'CODE'
_TEXT	ENDS
;	COMDAT ?write@SocketOutputStream@@QAEIG@Z
_TEXT	SEGMENT PARA USE32 PUBLIC 'CODE'
_TEXT	ENDS
;	COMDAT ?write@SocketOutputStream@@QAEIH@Z
_TEXT	SEGMENT PARA USE32 PUBLIC 'CODE'
_TEXT	ENDS
;	COMDAT ?write@SocketOutputStream@@QAEIK@Z
_TEXT	SEGMENT PARA USE32 PUBLIC 'CODE'
_TEXT	ENDS
;	COMDAT ??1PCInfo@@UAE@XZ
_TEXT	SEGMENT PARA USE32 PUBLIC 'CODE'
_TEXT	ENDS
;	COMDAT ??_GPCInfo@@UAEPAXI@Z
_TEXT	SEGMENT PARA USE32 PUBLIC 'CODE'
_TEXT	ENDS
;	COMDAT ??0InvalidProtocolException@@QAE@ABV0@@Z
_TEXT	SEGMENT PARA USE32 PUBLIC 'CODE'
_TEXT	ENDS
;	COMDAT ??0ProtocolException@@QAE@ABV0@@Z
_TEXT	SEGMENT PARA USE32 PUBLIC 'CODE'
_TEXT	ENDS
;	COMDAT ??0IOException@@QAE@ABV0@@Z
_TEXT	SEGMENT PARA USE32 PUBLIC 'CODE'
_TEXT	ENDS
;	COMDAT ??0Exception@@QAE@ABV0@@Z
_TEXT	SEGMENT PARA USE32 PUBLIC 'CODE'
_TEXT	ENDS
;	COMDAT ??0Throwable@@QAE@ABV0@@Z
_TEXT	SEGMENT PARA USE32 PUBLIC 'CODE'
_TEXT	ENDS
;	COMDAT ??0Error@@QAE@ABV0@@Z
_TEXT	SEGMENT PARA USE32 PUBLIC 'CODE'
_TEXT	ENDS
;	COMDAT ?setShapeInfo@PCVampireInfo@@QAEXKQAG@Z
_TEXT	SEGMENT PARA USE32 PUBLIC 'CODE'
_TEXT	ENDS
;	COMDAT ?read@PCVampireInfo@@UAEXAAVSocketInputStream@@@Z
_TEXT	SEGMENT PARA USE32 PUBLIC 'CODE'
_TEXT	ENDS
;	COMDAT ?write@PCVampireInfo@@UBEXAAVSocketOutputStream@@@Z
_TEXT	SEGMENT PARA USE32 PUBLIC 'CODE'
_TEXT	ENDS
;	COMDAT ?toString@PCVampireInfo@@QBE?AV?$basic_string@DV?$char_traits@D@_STL@@V?$allocator@D@2@@_STL@@XZ
_TEXT	SEGMENT PARA USE32 PUBLIC 'CODE'
_TEXT	ENDS
;	COMDAT ?eq@?$__char_traits_base@DH@_STL@@SA_NABD0@Z
_TEXT	SEGMENT PARA USE32 PUBLIC 'CODE'
_TEXT	ENDS
;	COMDAT ?not_eof@?$__char_traits_base@DH@_STL@@SAHABH@Z
_TEXT	SEGMENT PARA USE32 PUBLIC 'CODE'
_TEXT	ENDS
;	COMDAT ?eq_int_type@?$__char_traits_base@DH@_STL@@SA_NABH0@Z
_TEXT	SEGMENT PARA USE32 PUBLIC 'CODE'
_TEXT	ENDS
;	COMDAT ?get_allocator@?$basic_string@DV?$char_traits@D@_STL@@V?$allocator@D@2@@_STL@@QBE?AV?$allocator@D@2@XZ
_TEXT	SEGMENT PARA USE32 PUBLIC 'CODE'
_TEXT	ENDS
;	COMDAT ?_M_terminate_string@?$basic_string@DV?$char_traits@D@_STL@@V?$allocator@D@2@@_STL@@AAEXXZ
_TEXT	SEGMENT PARA USE32 PUBLIC 'CODE'
_TEXT	ENDS
;	COMDAT ?size@?$basic_string@DV?$char_traits@D@_STL@@V?$allocator@D@2@@_STL@@QBEIXZ
_TEXT	SEGMENT PARA USE32 PUBLIC 'CODE'
_TEXT	ENDS
;	COMDAT ?c_str@?$basic_string@DV?$char_traits@D@_STL@@V?$allocator@D@2@@_STL@@QBEPBDXZ
_TEXT	SEGMENT PARA USE32 PUBLIC 'CODE'
_TEXT	ENDS
;	COMDAT ?substr@?$basic_string@DV?$char_traits@D@_STL@@V?$allocator@D@2@@_STL@@QBE?AV12@II@Z
_TEXT	SEGMENT PARA USE32 PUBLIC 'CODE'
_TEXT	ENDS
;	COMDAT ??0?$_String_base@DV?$allocator@D@_STL@@@_STL@@QAE@ABV?$allocator@D@1@@Z
_TEXT	SEGMENT PARA USE32 PUBLIC 'CODE'
_TEXT	ENDS
;	COMDAT ?allocate@?$allocator@D@_STL@@QAEPADIPBX@Z
_TEXT	SEGMENT PARA USE32 PUBLIC 'CODE'
_TEXT	ENDS
;	COMDAT ??0?$fpos@H@_STL@@QAE@J@Z
_TEXT	SEGMENT PARA USE32 PUBLIC 'CODE'
_TEXT	ENDS
;	COMDAT ??B?$fpos@H@_STL@@QBEJXZ
_TEXT	SEGMENT PARA USE32 PUBLIC 'CODE'
_TEXT	ENDS
;	COMDAT ?state@?$fpos@H@_STL@@QBEHXZ
_TEXT	SEGMENT PARA USE32 PUBLIC 'CODE'
_TEXT	ENDS
;	COMDAT ?is_open@?$basic_filebuf@DV?$char_traits@D@_STL@@@_STL@@QBE_NXZ
_TEXT	SEGMENT PARA USE32 PUBLIC 'CODE'
_TEXT	ENDS
;	COMDAT ?_M_seek_return@?$basic_filebuf@DV?$char_traits@D@_STL@@@_STL@@AAE?AV?$fpos@H@2@JH@Z
_TEXT	SEGMENT PARA USE32 PUBLIC 'CODE'
_TEXT	ENDS
;	COMDAT ??0?$list@V?$basic_string@DV?$char_traits@D@_STL@@V?$allocator@D@2@@_STL@@V?$allocator@V?$basic_string@DV?$char_traits@D@_STL@@V?$allocator@D@2@@_STL@@@2@@_STL@@QAE@ABV01@@Z
_TEXT	SEGMENT PARA USE32 PUBLIC 'CODE'
_TEXT	ENDS
;	COMDAT ??0?$_Filebuf_Tmp_Buf@D@_STL@@QAE@H@Z
_TEXT	SEGMENT PARA USE32 PUBLIC 'CODE'
_TEXT	ENDS
;	COMDAT ??1?$_Filebuf_Tmp_Buf@D@_STL@@QAE@XZ
_TEXT	SEGMENT PARA USE32 PUBLIC 'CODE'
_TEXT	ENDS
;	COMDAT ?_M_terminate_string_aux@?$basic_string@DV?$char_traits@D@_STL@@V?$allocator@D@2@@_STL@@AAEXABU__true_type@2@@Z
_TEXT	SEGMENT PARA USE32 PUBLIC 'CODE'
_TEXT	ENDS
;	COMDAT ??0?$allocator@D@_STL@@QAE@ABV01@@Z
_TEXT	SEGMENT PARA USE32 PUBLIC 'CODE'
_TEXT	ENDS
;	COMDAT ??0?$_STLP_alloc_proxy@PADDV?$allocator@D@_STL@@@_STL@@QAE@ABV?$allocator@D@1@PAD@Z
_TEXT	SEGMENT PARA USE32 PUBLIC 'CODE'
_TEXT	ENDS
;	COMDAT ?state@?$fpos@H@_STL@@QAEXH@Z
_TEXT	SEGMENT PARA USE32 PUBLIC 'CODE'
_TEXT	ENDS
;	COMDAT ?get_allocator@?$_List_base@V?$basic_string@DV?$char_traits@D@_STL@@V?$allocator@D@2@@_STL@@V?$allocator@V?$basic_string@DV?$char_traits@D@_STL@@V?$allocator@D@2@@_STL@@@2@@_STL@@QBE?AV?$allocator@V?$basic_string@DV?$char_traits@D@_STL@@V?$allocator@D@2@@_STL@@@2@XZ
_TEXT	SEGMENT PARA USE32 PUBLIC 'CODE'
_TEXT	ENDS
;	COMDAT ?_M_throw_out_of_range@?$_String_base@DV?$allocator@D@_STL@@@_STL@@QBEXXZ
_TEXT	SEGMENT PARA USE32 PUBLIC 'CODE'
_TEXT	ENDS
;	COMDAT ??$_M_range_initialize@PBD@?$basic_string@DV?$char_traits@D@_STL@@V?$allocator@D@2@@_STL@@AAEXPBD0@Z
_TEXT	SEGMENT PARA USE32 PUBLIC 'CODE'
_TEXT	ENDS
;	COMDAT ??$_M_range_initialize@PAD@?$basic_string@DV?$char_traits@D@_STL@@V?$allocator@D@2@@_STL@@AAEXPAD0@Z
_TEXT	SEGMENT PARA USE32 PUBLIC 'CODE'
_TEXT	ENDS
;	COMDAT ?close@?$basic_filebuf@DV?$char_traits@D@_STL@@@_STL@@QAEPAV12@XZ
_TEXT	SEGMENT PARA USE32 PUBLIC 'CODE'
_TEXT	ENDS
;	COMDAT ?_M_exit_input_mode@?$basic_filebuf@DV?$char_traits@D@_STL@@@_STL@@AAEXXZ
_TEXT	SEGMENT PARA USE32 PUBLIC 'CODE'
_TEXT	ENDS
;	COMDAT ?_M_switch_to_output_mode@?$basic_filebuf@DV?$char_traits@D@_STL@@@_STL@@AAE_NXZ
_TEXT	SEGMENT PARA USE32 PUBLIC 'CODE'
_TEXT	ENDS
;	COMDAT ?_M_output_error@?$basic_filebuf@DV?$char_traits@D@_STL@@@_STL@@AAEHXZ
_TEXT	SEGMENT PARA USE32 PUBLIC 'CODE'
_TEXT	ENDS
;	COMDAT ?_M_allocate_buffers@?$basic_filebuf@DV?$char_traits@D@_STL@@@_STL@@AAE_NPADH@Z
_TEXT	SEGMENT PARA USE32 PUBLIC 'CODE'
_TEXT	ENDS
;	COMDAT ?_M_deallocate_buffers@?$basic_filebuf@DV?$char_traits@D@_STL@@@_STL@@AAEXXZ
_TEXT	SEGMENT PARA USE32 PUBLIC 'CODE'
_TEXT	ENDS
;	COMDAT ?_M_seek_init@?$basic_filebuf@DV?$char_traits@D@_STL@@@_STL@@AAE_N_N@Z
_TEXT	SEGMENT PARA USE32 PUBLIC 'CODE'
_TEXT	ENDS
;	COMDAT ?_M_setup_codecvt@?$basic_filebuf@DV?$char_traits@D@_STL@@@_STL@@AAEXABVlocale@2@@Z
_TEXT	SEGMENT PARA USE32 PUBLIC 'CODE'
_TEXT	ENDS
;	COMDAT ??$equal@PADPADU?$_Eq_traits@V?$char_traits@D@_STL@@@_STL@@@_STL@@YA_NPAD00U?$_Eq_traits@V?$char_traits@D@_STL@@@0@@Z
_TEXT	SEGMENT PARA USE32 PUBLIC 'CODE'
_TEXT	ENDS
;	COMDAT ??$_Destroy@V?$basic_string@DV?$char_traits@D@_STL@@V?$allocator@D@2@@_STL@@@_STL@@YAXPAV?$basic_string@DV?$char_traits@D@_STL@@V?$allocator@D@2@@0@@Z
_TEXT	SEGMENT PARA USE32 PUBLIC 'CODE'
_TEXT	ENDS
;	COMDAT ??$_M_assign_dispatch@PAD@?$basic_string@DV?$char_traits@D@_STL@@V?$allocator@D@2@@_STL@@AAEAAV01@PAD0ABU__false_type@1@@Z
_TEXT	SEGMENT PARA USE32 PUBLIC 'CODE'
_TEXT	ENDS
;	COMDAT ??$?8DV?$char_traits@D@_STL@@V?$allocator@D@1@@_STL@@YA_NABV?$basic_string@DV?$char_traits@D@_STL@@V?$allocator@D@2@@0@0@Z
_TEXT	SEGMENT PARA USE32 PUBLIC 'CODE'
_TEXT	ENDS
;	COMDAT ??$?0PAD@?$basic_string@DV?$char_traits@D@_STL@@V?$allocator@D@2@@_STL@@QAE@PAD0ABV?$allocator@D@1@@Z
_TEXT	SEGMENT PARA USE32 PUBLIC 'CODE'
_TEXT	ENDS
;	COMDAT ??$insert@U?$_List_iterator@V?$basic_string@DV?$char_traits@D@_STL@@V?$allocator@D@2@@_STL@@U?$_Const_traits@V?$basic_string@DV?$char_traits@D@_STL@@V?$allocator@D@2@@_STL@@@2@@_STL@@@?$list@V?$basic_string@DV?$char_traits@D@_STL@@V?$allocator@D@2@@_STL@@V?$allocator@V?$basic_string@DV?$char_traits@D@_STL@@V?$allocator@D@2@@_STL@@@2@@_STL@@QAEXU?$_List_iterator@V?$basic_string@DV?$char_traits@D@_STL@@V?$allocator@D@2@@_STL@@U?$_Nonconst_traits@V?$basic_string@DV?$char_traits@D@_STL@@V?$allocator@D@2@@_STL@@@2@@1@U?$_List_iterator@V?$basic_string@DV?$char_traits@D@_STL@@V?$allocator@D@2@@_STL@@U?$_Const_traits@V?$basic_string@DV?$char_traits@D@_STL@@V?$allocator@D@2@@_STL@@@2@@1@1@Z
_TEXT	SEGMENT PARA USE32 PUBLIC 'CODE'
_TEXT	ENDS
;	COMDAT ??$?0U?$_List_node@V?$basic_string@DV?$char_traits@D@_STL@@V?$allocator@D@2@@_STL@@@_STL@@@?$allocator@V?$basic_string@DV?$char_traits@D@_STL@@V?$allocator@D@2@@_STL@@@_STL@@QAE@ABV?$allocator@U?$_List_node@V?$basic_string@DV?$char_traits@D@_STL@@V?$allocator@D@2@@_STL@@@_STL@@@1@@Z
_TEXT	SEGMENT PARA USE32 PUBLIC 'CODE'
_TEXT	ENDS
;	COMDAT ??_G?$basic_string@DV?$char_traits@D@_STL@@V?$allocator@D@2@@_STL@@QAEPAXI@Z
_TEXT	SEGMENT PARA USE32 PUBLIC 'CODE'
_TEXT	ENDS
;	COMDAT ?end@?$basic_string@DV?$char_traits@D@_STL@@V?$allocator@D@2@@_STL@@QAEPADXZ
_TEXT	SEGMENT PARA USE32 PUBLIC 'CODE'
_TEXT	ENDS
;	COMDAT ?erase@?$basic_string@DV?$char_traits@D@_STL@@V?$allocator@D@2@@_STL@@QAEPADPAD0@Z
_TEXT	SEGMENT PARA USE32 PUBLIC 'CODE'
_TEXT	ENDS
;	COMDAT ?data@?$basic_string@DV?$char_traits@D@_STL@@V?$allocator@D@2@@_STL@@QBEPBDXZ
_TEXT	SEGMENT PARA USE32 PUBLIC 'CODE'
_TEXT	ENDS
;	COMDAT ?_M_exit_putback_mode@?$basic_filebuf@DV?$char_traits@D@_STL@@@_STL@@AAEXXZ
_TEXT	SEGMENT PARA USE32 PUBLIC 'CODE'
_TEXT	ENDS
;	COMDAT ??0?$_List_iterator@V?$basic_string@DV?$char_traits@D@_STL@@V?$allocator@D@2@@_STL@@U?$_Nonconst_traits@V?$basic_string@DV?$char_traits@D@_STL@@V?$allocator@D@2@@_STL@@@2@@_STL@@QAE@ABU01@@Z
_TEXT	SEGMENT PARA USE32 PUBLIC 'CODE'
_TEXT	ENDS
;	COMDAT ??R?$_Eq_traits@V?$char_traits@D@_STL@@@_STL@@QBE_NABD0@Z
_TEXT	SEGMENT PARA USE32 PUBLIC 'CODE'
_TEXT	ENDS
;	COMDAT ?move@?$__char_traits_base@DH@_STL@@SAPADPADPBDI@Z
_TEXT	SEGMENT PARA USE32 PUBLIC 'CODE'
_TEXT	ENDS
;	COMDAT ??$_M_range_initialize@PBD@?$basic_string@DV?$char_traits@D@_STL@@V?$allocator@D@2@@_STL@@AAEXPBD0ABUforward_iterator_tag@1@@Z
_TEXT	SEGMENT PARA USE32 PUBLIC 'CODE'
_TEXT	ENDS
;	COMDAT ??$_M_range_initialize@PAD@?$basic_string@DV?$char_traits@D@_STL@@V?$allocator@D@2@@_STL@@AAEXPAD0ABUforward_iterator_tag@1@@Z
_TEXT	SEGMENT PARA USE32 PUBLIC 'CODE'
_TEXT	ENDS
;	COMDAT ?_M_unshift@?$basic_filebuf@DV?$char_traits@D@_STL@@@_STL@@AAE_NXZ
_TEXT	SEGMENT PARA USE32 PUBLIC 'CODE'
_TEXT	ENDS
;	COMDAT ?_M_allocate_buffers@?$basic_filebuf@DV?$char_traits@D@_STL@@@_STL@@AAE_NXZ
_TEXT	SEGMENT PARA USE32 PUBLIC 'CODE'
_TEXT	ENDS
;	COMDAT ??$max@H@_STL@@YAABHABH0@Z
_TEXT	SEGMENT PARA USE32 PUBLIC 'CODE'
_TEXT	ENDS
;	COMDAT ??$use_facet@V?$codecvt@DDH@_STL@@@_STL@@YAABV?$codecvt@DDH@0@ABVlocale@0@@Z
_TEXT	SEGMENT PARA USE32 PUBLIC 'CODE'
_TEXT	ENDS
;	COMDAT ??$append@PAD@?$basic_string@DV?$char_traits@D@_STL@@V?$allocator@D@2@@_STL@@QAEAAV01@PAD0@Z
_TEXT	SEGMENT PARA USE32 PUBLIC 'CODE'
_TEXT	ENDS
;	COMDAT ??$_M_initialize_dispatch@PAD@?$basic_string@DV?$char_traits@D@_STL@@V?$allocator@D@2@@_STL@@AAEXPAD0ABU__false_type@1@@Z
_TEXT	SEGMENT PARA USE32 PUBLIC 'CODE'
_TEXT	ENDS
;	COMDAT ??$_M_insert_dispatch@U?$_List_iterator@V?$basic_string@DV?$char_traits@D@_STL@@V?$allocator@D@2@@_STL@@U?$_Const_traits@V?$basic_string@DV?$char_traits@D@_STL@@V?$allocator@D@2@@_STL@@@2@@_STL@@@?$list@V?$basic_string@DV?$char_traits@D@_STL@@V?$allocator@D@2@@_STL@@V?$allocator@V?$basic_string@DV?$char_traits@D@_STL@@V?$allocator@D@2@@_STL@@@2@@_STL@@QAEXU?$_List_iterator@V?$basic_string@DV?$char_traits@D@_STL@@V?$allocator@D@2@@_STL@@U?$_Nonconst_traits@V?$basic_string@DV?$char_traits@D@_STL@@V?$allocator@D@2@@_STL@@@2@@1@U?$_List_iterator@V?$basic_string@DV?$char_traits@D@_STL@@V?$allocator@D@2@@_STL@@U?$_Const_traits@V?$basic_string@DV?$char_traits@D@_STL@@V?$allocator@D@2@@_STL@@@2@@1@1ABU__false_type@1@@Z
_TEXT	SEGMENT PARA USE32 PUBLIC 'CODE'
_TEXT	ENDS
;	COMDAT ??E?$_List_iterator@V?$basic_string@DV?$char_traits@D@_STL@@V?$allocator@D@2@@_STL@@U?$_Const_traits@V?$basic_string@DV?$char_traits@D@_STL@@V?$allocator@D@2@@_STL@@@2@@_STL@@QAEAAU01@XZ
_TEXT	SEGMENT PARA USE32 PUBLIC 'CODE'
_TEXT	ENDS
;	COMDAT ??$distance@PBD@_STL@@YAHABQBD0@Z
_TEXT	SEGMENT PARA USE32 PUBLIC 'CODE'
_TEXT	ENDS
;	COMDAT ?_M_allocate_block@?$_String_base@DV?$allocator@D@_STL@@@_STL@@QAEXI@Z
_TEXT	SEGMENT PARA USE32 PUBLIC 'CODE'
_TEXT	ENDS
;	COMDAT ??$distance@PAD@_STL@@YAHABQAD0@Z
_TEXT	SEGMENT PARA USE32 PUBLIC 'CODE'
_TEXT	ENDS
;	COMDAT ??$uninitialized_copy@PADPAD@_STL@@YAPADPAD00@Z
_TEXT	SEGMENT PARA USE32 PUBLIC 'CODE'
_TEXT	ENDS
;	COMDAT ??$_M_append_dispatch@PAD@?$basic_string@DV?$char_traits@D@_STL@@V?$allocator@D@2@@_STL@@AAEAAV01@PAD0ABU__false_type@1@@Z
_TEXT	SEGMENT PARA USE32 PUBLIC 'CODE'
_TEXT	ENDS
;	COMDAT ?max_size@?$_String_base@DV?$allocator@D@_STL@@@_STL@@QBEIXZ
_TEXT	SEGMENT PARA USE32 PUBLIC 'CODE'
_TEXT	ENDS
;	COMDAT ??$__distance@PBD@_STL@@YAHABQBD0ABUrandom_access_iterator_tag@0@@Z
_TEXT	SEGMENT PARA USE32 PUBLIC 'CODE'
_TEXT	ENDS
;	COMDAT ?_M_throw_length_error@?$_String_base@DV?$allocator@D@_STL@@@_STL@@QBEXXZ
_TEXT	SEGMENT PARA USE32 PUBLIC 'CODE'
_TEXT	ENDS
;	COMDAT ??$__distance@PAD@_STL@@YAHABQAD0ABUrandom_access_iterator_tag@0@@Z
_TEXT	SEGMENT PARA USE32 PUBLIC 'CODE'
_TEXT	ENDS
;	COMDAT ??$__uninitialized_copy@PADPAD@_STL@@YAPADPAD00ABU__true_type@0@@Z
_TEXT	SEGMENT PARA USE32 PUBLIC 'CODE'
_TEXT	ENDS
;	COMDAT ??$append@PAD@?$basic_string@DV?$char_traits@D@_STL@@V?$allocator@D@2@@_STL@@AAEAAV01@PAD0ABUforward_iterator_tag@1@@Z
_TEXT	SEGMENT PARA USE32 PUBLIC 'CODE'
_TEXT	ENDS
;	COMDAT ?_M_construct_null@?$basic_string@DV?$char_traits@D@_STL@@V?$allocator@D@2@@_STL@@AAEXPAD@Z
_TEXT	SEGMENT PARA USE32 PUBLIC 'CODE'
_TEXT	ENDS
;	COMDAT ?max_size@?$basic_string@DV?$char_traits@D@_STL@@V?$allocator@D@2@@_STL@@QBEIXZ
_TEXT	SEGMENT PARA USE32 PUBLIC 'CODE'
_TEXT	ENDS
;	COMDAT ?capacity@?$basic_string@DV?$char_traits@D@_STL@@V?$allocator@D@2@@_STL@@QBEIXZ
_TEXT	SEGMENT PARA USE32 PUBLIC 'CODE'
_TEXT	ENDS
;	COMDAT ?_Ret@?$_BothPtrType@PADPAD@_STL@@SA?AU__true_type@2@XZ
_TEXT	SEGMENT PARA USE32 PUBLIC 'CODE'
_TEXT	ENDS
;	COMDAT ?_M_construct_null_aux@?$basic_string@DV?$char_traits@D@_STL@@V?$allocator@D@2@@_STL@@AAEXPADABU__true_type@2@@Z
_TEXT	SEGMENT PARA USE32 PUBLIC 'CODE'
_TEXT	ENDS
;	COMDAT ??$__copy_aux@PADPAD@_STL@@YAPADPAD00ABU__true_type@0@@Z
_TEXT	SEGMENT PARA USE32 PUBLIC 'CODE'
_TEXT	ENDS
;	COMDAT ??$max@I@_STL@@YAABIABI0@Z
_TEXT	SEGMENT PARA USE32 PUBLIC 'CODE'
_TEXT	ENDS
;	COMDAT ?_Ret@?$_OKToMemCpy@DD@_STL@@SA?AU__true_type@2@XZ
_TEXT	SEGMENT PARA USE32 PUBLIC 'CODE'
_TEXT	ENDS
;	COMDAT ??$_IsOKToMemCpy@DD@_STL@@YA?AU?$_OKToMemCpy@DD@0@PAD0@Z
_TEXT	SEGMENT PARA USE32 PUBLIC 'CODE'
_TEXT	ENDS
;	COMDAT ??$__copy_ptrs@PADPAD@_STL@@YAPADPAD00ABU__true_type@0@@Z
_TEXT	SEGMENT PARA USE32 PUBLIC 'CODE'
_TEXT	ENDS
;	COMDAT ??_R3PCInfo@@8
rdata$r	SEGMENT DWORD USE32 PUBLIC 'CONST'
rdata$r	ENDS
;	COMDAT ??_R2PCInfo@@8
rdata$r	SEGMENT DWORD USE32 PUBLIC 'CONST'
rdata$r	ENDS
;	COMDAT ??_R1A@?0A@A@PCInfo@@8
rdata$r	SEGMENT DWORD USE32 PUBLIC 'CONST'
rdata$r	ENDS
;	COMDAT ??_R0?AVPCInfo@@@8
_DATA	SEGMENT DWORD USE32 PUBLIC 'DATA'
_DATA	ENDS
;	COMDAT ??_R4PCInfo@@6B@
rdata$r	SEGMENT DWORD USE32 PUBLIC 'CONST'
rdata$r	ENDS
;	COMDAT ?__copy_trivial@_STL@@YAPAXPBX0PAX@Z
_TEXT	SEGMENT PARA USE32 PUBLIC 'CODE'
_TEXT	ENDS
;	COMDAT ?_M_deallocate_block@?$_String_base@DV?$allocator@D@_STL@@@_STL@@QAEXXZ
_TEXT	SEGMENT PARA USE32 PUBLIC 'CODE'
_TEXT	ENDS
;	COMDAT ?deallocate@?$allocator@D@_STL@@QAEXPADI@Z
_TEXT	SEGMENT PARA USE32 PUBLIC 'CODE'
_TEXT	ENDS
;	COMDAT ?deallocate@?$__node_alloc@$00$0A@@_STL@@SAXPAXI@Z
_TEXT	SEGMENT PARA USE32 PUBLIC 'CODE'
_TEXT	ENDS
;	COMDAT ?__stl_delete@_STL@@YAXPAX@Z
_TEXT	SEGMENT PARA USE32 PUBLIC 'CODE'
_TEXT	ENDS
;	COMDAT ?_M_incr@_List_iterator_base@_STL@@QAEXXZ
_TEXT	SEGMENT PARA USE32 PUBLIC 'CODE'
_TEXT	ENDS
;	COMDAT ??D?$_List_iterator@V?$basic_string@DV?$char_traits@D@_STL@@V?$allocator@D@2@@_STL@@U?$_Const_traits@V?$basic_string@DV?$char_traits@D@_STL@@V?$allocator@D@2@@_STL@@@2@@_STL@@QBEABV?$basic_string@DV?$char_traits@D@_STL@@V?$allocator@D@2@@1@XZ
_TEXT	SEGMENT PARA USE32 PUBLIC 'CODE'
_TEXT	ENDS
;	COMDAT ?insert@?$list@V?$basic_string@DV?$char_traits@D@_STL@@V?$allocator@D@2@@_STL@@V?$allocator@V?$basic_string@DV?$char_traits@D@_STL@@V?$allocator@D@2@@_STL@@@2@@_STL@@QAE?AU?$_List_iterator@V?$basic_string@DV?$char_traits@D@_STL@@V?$allocator@D@2@@_STL@@U?$_Nonconst_traits@V?$basic_string@DV?$char_traits@D@_STL@@V?$allocator@D@2@@_STL@@@2@@2@U32@ABV?$basic_string@DV?$char_traits@D@_STL@@V?$allocator@D@2@@2@@Z
_TEXT	SEGMENT PARA USE32 PUBLIC 'CODE'
_TEXT	ENDS
;	COMDAT ?_M_create_node@?$list@V?$basic_string@DV?$char_traits@D@_STL@@V?$allocator@D@2@@_STL@@V?$allocator@V?$basic_string@DV?$char_traits@D@_STL@@V?$allocator@D@2@@_STL@@@2@@_STL@@IAEPAU?$_List_node@V?$basic_string@DV?$char_traits@D@_STL@@V?$allocator@D@2@@_STL@@@2@ABV?$basic_string@DV?$char_traits@D@_STL@@V?$allocator@D@2@@2@@Z
_TEXT	SEGMENT PARA USE32 PUBLIC 'CODE'
_TEXT	ENDS
;	COMDAT ?allocate@?$allocator@U?$_List_node@V?$basic_string@DV?$char_traits@D@_STL@@V?$allocator@D@2@@_STL@@@_STL@@@_STL@@QAEPAU?$_List_node@V?$basic_string@DV?$char_traits@D@_STL@@V?$allocator@D@2@@_STL@@@2@IPBX@Z
_TEXT	SEGMENT PARA USE32 PUBLIC 'CODE'
_TEXT	ENDS
;	COMDAT ??$_Construct@V?$basic_string@DV?$char_traits@D@_STL@@V?$allocator@D@2@@_STL@@V12@@_STL@@YAXPAV?$basic_string@DV?$char_traits@D@_STL@@V?$allocator@D@2@@0@ABV10@@Z
_TEXT	SEGMENT PARA USE32 PUBLIC 'CODE'
_TEXT	ENDS
;	COMDAT ??2@YAPAXIPAX@Z
_TEXT	SEGMENT PARA USE32 PUBLIC 'CODE'
_TEXT	ENDS
;	COMDAT ??3@YAXPAX0@Z
_TEXT	SEGMENT PARA USE32 PUBLIC 'CODE'
_TEXT	ENDS
;	COMDAT ?deallocate@?$allocator@U?$_List_node@V?$basic_string@DV?$char_traits@D@_STL@@V?$allocator@D@2@@_STL@@@_STL@@@_STL@@QAEXPAU?$_List_node@V?$basic_string@DV?$char_traits@D@_STL@@V?$allocator@D@2@@_STL@@@2@I@Z
_TEXT	SEGMENT PARA USE32 PUBLIC 'CODE'
_TEXT	ENDS
;	COMDAT ??0?$_List_iterator@V?$basic_string@DV?$char_traits@D@_STL@@V?$allocator@D@2@@_STL@@U?$_Nonconst_traits@V?$basic_string@DV?$char_traits@D@_STL@@V?$allocator@D@2@@_STL@@@2@@_STL@@QAE@PAU?$_List_node@V?$basic_string@DV?$char_traits@D@_STL@@V?$allocator@D@2@@_STL@@@1@@Z
_TEXT	SEGMENT PARA USE32 PUBLIC 'CODE'
_TEXT	ENDS
;	COMDAT ??9_List_iterator_base@_STL@@QBE_NABU01@@Z
_TEXT	SEGMENT PARA USE32 PUBLIC 'CODE'
_TEXT	ENDS
;	COMDAT ?__page_size@_Filebuf_base@_STL@@SAIXZ
_TEXT	SEGMENT PARA USE32 PUBLIC 'CODE'
_TEXT	ENDS
;	COMDAT ?_M_write@?$basic_filebuf@DV?$char_traits@D@_STL@@@_STL@@QAE_NPADH@Z
_TEXT	SEGMENT PARA USE32 PUBLIC 'CODE'
_TEXT	ENDS
;	COMDAT ?unshift@?$codecvt@DDH@_STL@@QBE?AW4result@codecvt_base@2@AAHPAD1AAPAD@Z
_TEXT	SEGMENT PARA USE32 PUBLIC 'CODE'
_TEXT	ENDS
;	COMDAT ?uninitialized_copy@_STL@@YAPADPBD0PAD@Z
_TEXT	SEGMENT PARA USE32 PUBLIC 'CODE'
_TEXT	ENDS
;	COMDAT ??0_List_iterator_base@_STL@@QAE@PAU_List_node_base@1@@Z
_TEXT	SEGMENT PARA USE32 PUBLIC 'CODE'
_TEXT	ENDS
;	COMDAT ?_Destroy@_STL@@YAXPAD0@Z
_TEXT	SEGMENT PARA USE32 PUBLIC 'CODE'
_TEXT	ENDS
;	COMDAT ??1?$_String_base@DV?$allocator@D@_STL@@@_STL@@QAE@XZ
_TEXT	SEGMENT PARA USE32 PUBLIC 'CODE'
_TEXT	ENDS
;	COMDAT ?compare@?$char_traits@D@_STL@@SAHPBD0I@Z
_TEXT	SEGMENT PARA USE32 PUBLIC 'CODE'
_TEXT	ENDS
;	COMDAT ?assign@?$char_traits@D@_STL@@SAXAADABD@Z
_TEXT	SEGMENT PARA USE32 PUBLIC 'CODE'
_TEXT	ENDS
;	COMDAT ?always_noconv@?$codecvt@DDH@_STL@@QBE_NXZ
_TEXT	SEGMENT PARA USE32 PUBLIC 'CODE'
_TEXT	ENDS
;	COMDAT ?encoding@?$codecvt@DDH@_STL@@QBEHXZ
_TEXT	SEGMENT PARA USE32 PUBLIC 'CODE'
_TEXT	ENDS
;	COMDAT ?max_length@?$codecvt@DDH@_STL@@QBEHXZ
_TEXT	SEGMENT PARA USE32 PUBLIC 'CODE'
_TEXT	ENDS
;	COMDAT ?__o_mode@_Filebuf_base@_STL@@QBEHXZ
_TEXT	SEGMENT PARA USE32 PUBLIC 'CODE'
_TEXT	ENDS
;	COMDAT ?begin@?$list@V?$basic_string@DV?$char_traits@D@_STL@@V?$allocator@D@2@@_STL@@V?$allocator@V?$basic_string@DV?$char_traits@D@_STL@@V?$allocator@D@2@@_STL@@@2@@_STL@@QAE?AU?$_List_iterator@V?$basic_string@DV?$char_traits@D@_STL@@V?$allocator@D@2@@_STL@@U?$_Nonconst_traits@V?$basic_string@DV?$char_traits@D@_STL@@V?$allocator@D@2@@_STL@@@2@@2@XZ
_TEXT	SEGMENT PARA USE32 PUBLIC 'CODE'
_TEXT	ENDS
;	COMDAT ?begin@?$list@V?$basic_string@DV?$char_traits@D@_STL@@V?$allocator@D@2@@_STL@@V?$allocator@V?$basic_string@DV?$char_traits@D@_STL@@V?$allocator@D@2@@_STL@@@2@@_STL@@QBE?AU?$_List_iterator@V?$basic_string@DV?$char_traits@D@_STL@@V?$allocator@D@2@@_STL@@U?$_Const_traits@V?$basic_string@DV?$char_traits@D@_STL@@V?$allocator@D@2@@_STL@@@2@@2@XZ
_TEXT	SEGMENT PARA USE32 PUBLIC 'CODE'
_TEXT	ENDS
;	COMDAT ??0?$_List_iterator@V?$basic_string@DV?$char_traits@D@_STL@@V?$allocator@D@2@@_STL@@U?$_Const_traits@V?$basic_string@DV?$char_traits@D@_STL@@V?$allocator@D@2@@_STL@@@2@@_STL@@QAE@PAU?$_List_node@V?$basic_string@DV?$char_traits@D@_STL@@V?$allocator@D@2@@_STL@@@1@@Z
_TEXT	SEGMENT PARA USE32 PUBLIC 'CODE'
_TEXT	ENDS
;	COMDAT ?end@?$list@V?$basic_string@DV?$char_traits@D@_STL@@V?$allocator@D@2@@_STL@@V?$allocator@V?$basic_string@DV?$char_traits@D@_STL@@V?$allocator@D@2@@_STL@@@2@@_STL@@QBE?AU?$_List_iterator@V?$basic_string@DV?$char_traits@D@_STL@@V?$allocator@D@2@@_STL@@U?$_Const_traits@V?$basic_string@DV?$char_traits@D@_STL@@V?$allocator@D@2@@_STL@@@2@@2@XZ
_TEXT	SEGMENT PARA USE32 PUBLIC 'CODE'
_TEXT	ENDS
;	COMDAT ??1?$_List_base@V?$basic_string@DV?$char_traits@D@_STL@@V?$allocator@D@2@@_STL@@V?$allocator@V?$basic_string@DV?$char_traits@D@_STL@@V?$allocator@D@2@@_STL@@@2@@_STL@@QAE@XZ
_TEXT	SEGMENT PARA USE32 PUBLIC 'CODE'
_TEXT	ENDS
;	COMDAT ??1?$_STLP_alloc_proxy@PAU?$_List_node@V?$basic_string@DV?$char_traits@D@_STL@@V?$allocator@D@2@@_STL@@@_STL@@U12@V?$allocator@U?$_List_node@V?$basic_string@DV?$char_traits@D@_STL@@V?$allocator@D@2@@_STL@@@_STL@@@2@@_STL@@QAE@XZ
_TEXT	SEGMENT PARA USE32 PUBLIC 'CODE'
_TEXT	ENDS
;	COMDAT ??1?$allocator@U?$_List_node@V?$basic_string@DV?$char_traits@D@_STL@@V?$allocator@D@2@@_STL@@@_STL@@@_STL@@QAE@XZ
_TEXT	SEGMENT PARA USE32 PUBLIC 'CODE'
_TEXT	ENDS
;	COMDAT ?clear@?$_List_base@V?$basic_string@DV?$char_traits@D@_STL@@V?$allocator@D@2@@_STL@@V?$allocator@V?$basic_string@DV?$char_traits@D@_STL@@V?$allocator@D@2@@_STL@@@2@@_STL@@QAEXXZ
_TEXT	SEGMENT PARA USE32 PUBLIC 'CODE'
_TEXT	ENDS
;	COMDAT ??1?$allocator@V?$basic_string@DV?$char_traits@D@_STL@@V?$allocator@D@2@@_STL@@@_STL@@QAE@XZ
_TEXT	SEGMENT PARA USE32 PUBLIC 'CODE'
_TEXT	ENDS
;	COMDAT ??0?$_List_base@V?$basic_string@DV?$char_traits@D@_STL@@V?$allocator@D@2@@_STL@@V?$allocator@V?$basic_string@DV?$char_traits@D@_STL@@V?$allocator@D@2@@_STL@@@2@@_STL@@QAE@ABV?$allocator@V?$basic_string@DV?$char_traits@D@_STL@@V?$allocator@D@2@@_STL@@@1@@Z
_TEXT	SEGMENT PARA USE32 PUBLIC 'CODE'
_TEXT	ENDS
;	COMDAT ??0?$_STLP_alloc_proxy@PAU?$_List_node@V?$basic_string@DV?$char_traits@D@_STL@@V?$allocator@D@2@@_STL@@@_STL@@U12@V?$allocator@U?$_List_node@V?$basic_string@DV?$char_traits@D@_STL@@V?$allocator@D@2@@_STL@@@_STL@@@2@@_STL@@QAE@ABV?$allocator@U?$_List_node@V?$basic_string@DV?$char_traits@D@_STL@@V?$allocator@D@2@@_STL@@@_STL@@@1@PAU?$_List_node@V?$basic_string@DV?$char_traits@D@_STL@@V?$allocator@D@2@@_STL@@@1@@Z
_TEXT	SEGMENT PARA USE32 PUBLIC 'CODE'
_TEXT	ENDS
;	COMDAT ??0?$allocator@U?$_List_node@V?$basic_string@DV?$char_traits@D@_STL@@V?$allocator@D@2@@_STL@@@_STL@@@_STL@@QAE@ABV01@@Z
_TEXT	SEGMENT PARA USE32 PUBLIC 'CODE'
_TEXT	ENDS
;	COMDAT ??$?0V?$basic_string@DV?$char_traits@D@_STL@@V?$allocator@D@2@@_STL@@@?$allocator@U?$_List_node@V?$basic_string@DV?$char_traits@D@_STL@@V?$allocator@D@2@@_STL@@@_STL@@@_STL@@QAE@ABV?$allocator@V?$basic_string@DV?$char_traits@D@_STL@@V?$allocator@D@2@@_STL@@@1@@Z
_TEXT	SEGMENT PARA USE32 PUBLIC 'CODE'
_TEXT	ENDS
;	COMDAT ?setp@?$basic_streambuf@DV?$char_traits@D@_STL@@@_STL@@IAEXPAD0@Z
_TEXT	SEGMENT PARA USE32 PUBLIC 'CODE'
_TEXT	ENDS
;	COMDAT ?_FILE_O_set@_STL@@YAXPAU_iobuf@@PAD11@Z
_TEXT	SEGMENT PARA USE32 PUBLIC 'CODE'
_TEXT	ENDS
;	COMDAT ?_FILE_I_set@_STL@@YAXPAU_iobuf@@PAD11@Z
_TEXT	SEGMENT PARA USE32 PUBLIC 'CODE'
_TEXT	ENDS
;	COMDAT ?setg@?$basic_streambuf@DV?$char_traits@D@_STL@@@_STL@@IAEXPAD00@Z
_TEXT	SEGMENT PARA USE32 PUBLIC 'CODE'
_TEXT	ENDS
;	COMDAT ?__is_open@_Filebuf_base@_STL@@QBE_NXZ
_TEXT	SEGMENT PARA USE32 PUBLIC 'CODE'
_TEXT	ENDS
;	COMDAT ?allocate@?$__node_alloc@$00$0A@@_STL@@SAPAXI@Z
_TEXT	SEGMENT PARA USE32 PUBLIC 'CODE'
_TEXT	ENDS
;	COMDAT ?__stl_new@_STL@@YAPAXI@Z
_TEXT	SEGMENT PARA USE32 PUBLIC 'CODE'
_TEXT	ENDS
;	COMDAT ??1?$_STLP_alloc_proxy@PADDV?$allocator@D@_STL@@@_STL@@QAE@XZ
_TEXT	SEGMENT PARA USE32 PUBLIC 'CODE'
_TEXT	ENDS
;	COMDAT ??$min@I@_STL@@YAABIABI0@Z
_TEXT	SEGMENT PARA USE32 PUBLIC 'CODE'
_TEXT	ENDS
;	COMDAT ?eof@?$__char_traits_base@DH@_STL@@SAHXZ
_TEXT	SEGMENT PARA USE32 PUBLIC 'CODE'
_TEXT	ENDS
;	COMDAT ??_7Error@@6B@
CONST	SEGMENT DWORD USE32 PUBLIC 'CONST'
CONST	ENDS
;	COMDAT ??_R4Error@@6B@
rdata$r	SEGMENT DWORD USE32 PUBLIC 'CONST'
rdata$r	ENDS
;	COMDAT ??_R3Error@@8
rdata$r	SEGMENT DWORD USE32 PUBLIC 'CONST'
rdata$r	ENDS
;	COMDAT ??_R2Error@@8
rdata$r	SEGMENT DWORD USE32 PUBLIC 'CONST'
rdata$r	ENDS
;	COMDAT ??_R1A@?0A@A@Error@@8
rdata$r	SEGMENT DWORD USE32 PUBLIC 'CONST'
rdata$r	ENDS
;	COMDAT ??_R1A@?0A@A@Throwable@@8
rdata$r	SEGMENT DWORD USE32 PUBLIC 'CONST'
rdata$r	ENDS
;	COMDAT ??_GError@@UAEPAXI@Z
_TEXT	SEGMENT PARA USE32 PUBLIC 'CODE'
_TEXT	ENDS
;	COMDAT ?getName@Error@@UBE?AV?$basic_string@DV?$char_traits@D@_STL@@V?$allocator@D@2@@_STL@@XZ
_TEXT	SEGMENT PARA USE32 PUBLIC 'CODE'
_TEXT	ENDS
;	COMDAT ??_C@_05NAOIJFC@Error?$AA@
CONST	SEGMENT DWORD USE32 PUBLIC 'CONST'
CONST	ENDS
;	COMDAT ?toString@Throwable@@UBE?AV?$basic_string@DV?$char_traits@D@_STL@@V?$allocator@D@2@@_STL@@XZ
_TEXT	SEGMENT PARA USE32 PUBLIC 'CODE'
_TEXT	ENDS
;	COMDAT ??_C@_03MCPBMLDJ@?5?3?5?$AA@
CONST	SEGMENT DWORD USE32 PUBLIC 'CONST'
CONST	ENDS
;	COMDAT ?getStackTrace@Throwable@@QBE?AV?$basic_string@DV?$char_traits@D@_STL@@V?$allocator@D@2@@_STL@@XZ
_TEXT	SEGMENT PARA USE32 PUBLIC 'CODE'
_TEXT	ENDS
;	COMDAT ??E?$_List_iterator@V?$basic_string@DV?$char_traits@D@_STL@@V?$allocator@D@2@@_STL@@U?$_Const_traits@V?$basic_string@DV?$char_traits@D@_STL@@V?$allocator@D@2@@_STL@@@2@@_STL@@QAE?AU01@H@Z
_TEXT	SEGMENT PARA USE32 PUBLIC 'CODE'
_TEXT	ENDS
;	COMDAT ??_C@_01CLKCMJKC@?5?$AA@
CONST	SEGMENT DWORD USE32 PUBLIC 'CONST'
CONST	ENDS
;	COMDAT ??1?$list@V?$basic_string@DV?$char_traits@D@_STL@@V?$allocator@D@2@@_STL@@V?$allocator@V?$basic_string@DV?$char_traits@D@_STL@@V?$allocator@D@2@@_STL@@@2@@_STL@@QAE@XZ
_TEXT	SEGMENT PARA USE32 PUBLIC 'CODE'
_TEXT	ENDS
;	COMDAT ??_7Throwable@@6B@
CONST	SEGMENT DWORD USE32 PUBLIC 'CONST'
CONST	ENDS
;	COMDAT ??_R4Throwable@@6B@
rdata$r	SEGMENT DWORD USE32 PUBLIC 'CONST'
rdata$r	ENDS
;	COMDAT ??_R3Throwable@@8
rdata$r	SEGMENT DWORD USE32 PUBLIC 'CONST'
rdata$r	ENDS
;	COMDAT ??_R2Throwable@@8
rdata$r	SEGMENT DWORD USE32 PUBLIC 'CONST'
rdata$r	ENDS
;	COMDAT ??_GThrowable@@UAEPAXI@Z
_TEXT	SEGMENT PARA USE32 PUBLIC 'CODE'
_TEXT	ENDS
;	COMDAT ?getName@Throwable@@UBE?AV?$basic_string@DV?$char_traits@D@_STL@@V?$allocator@D@2@@_STL@@XZ
_TEXT	SEGMENT PARA USE32 PUBLIC 'CODE'
_TEXT	ENDS
;	COMDAT ??_C@_09KCKHMJEM@Throwable?$AA@
CONST	SEGMENT DWORD USE32 PUBLIC 'CONST'
CONST	ENDS
;	COMDAT ??_7Exception@@6B@
CONST	SEGMENT DWORD USE32 PUBLIC 'CONST'
CONST	ENDS
;	COMDAT ??_R4Exception@@6B@
rdata$r	SEGMENT DWORD USE32 PUBLIC 'CONST'
rdata$r	ENDS
;	COMDAT ??_R3Exception@@8
rdata$r	SEGMENT DWORD USE32 PUBLIC 'CONST'
rdata$r	ENDS
;	COMDAT ??_R2Exception@@8
rdata$r	SEGMENT DWORD USE32 PUBLIC 'CONST'
rdata$r	ENDS
;	COMDAT ??_R1A@?0A@A@Exception@@8
rdata$r	SEGMENT DWORD USE32 PUBLIC 'CONST'
rdata$r	ENDS
;	COMDAT ??_GException@@UAEPAXI@Z
_TEXT	SEGMENT PARA USE32 PUBLIC 'CODE'
_TEXT	ENDS
;	COMDAT ?getName@Exception@@UBE?AV?$basic_string@DV?$char_traits@D@_STL@@V?$allocator@D@2@@_STL@@XZ
_TEXT	SEGMENT PARA USE32 PUBLIC 'CODE'
_TEXT	ENDS
;	COMDAT ??_C@_09FBNMMHMJ@Exception?$AA@
CONST	SEGMENT DWORD USE32 PUBLIC 'CONST'
CONST	ENDS
;	COMDAT ??1Throwable@@UAE@XZ
_TEXT	SEGMENT PARA USE32 PUBLIC 'CODE'
_TEXT	ENDS
;	COMDAT ??_7IOException@@6B@
CONST	SEGMENT DWORD USE32 PUBLIC 'CONST'
CONST	ENDS
;	COMDAT ??_R4IOException@@6B@
rdata$r	SEGMENT DWORD USE32 PUBLIC 'CONST'
rdata$r	ENDS
;	COMDAT ??_R3IOException@@8
rdata$r	SEGMENT DWORD USE32 PUBLIC 'CONST'
rdata$r	ENDS
;	COMDAT ??_R2IOException@@8
rdata$r	SEGMENT DWORD USE32 PUBLIC 'CONST'
rdata$r	ENDS
;	COMDAT ??_R1A@?0A@A@IOException@@8
rdata$r	SEGMENT DWORD USE32 PUBLIC 'CONST'
rdata$r	ENDS
;	COMDAT ??_GIOException@@UAEPAXI@Z
_TEXT	SEGMENT PARA USE32 PUBLIC 'CODE'
_TEXT	ENDS
;	COMDAT ?getName@IOException@@UBE?AV?$basic_string@DV?$char_traits@D@_STL@@V?$allocator@D@2@@_STL@@XZ
_TEXT	SEGMENT PARA USE32 PUBLIC 'CODE'
_TEXT	ENDS
;	COMDAT ??_C@_0M@CBPJAJJI@IOException?$AA@
CONST	SEGMENT DWORD USE32 PUBLIC 'CONST'
CONST	ENDS
;	COMDAT ??1Exception@@UAE@XZ
_TEXT	SEGMENT PARA USE32 PUBLIC 'CODE'
_TEXT	ENDS
;	COMDAT ??_7ProtocolException@@6B@
CONST	SEGMENT DWORD USE32 PUBLIC 'CONST'
CONST	ENDS
;	COMDAT ??_R4ProtocolException@@6B@
rdata$r	SEGMENT DWORD USE32 PUBLIC 'CONST'
rdata$r	ENDS
;	COMDAT ??_R3ProtocolException@@8
rdata$r	SEGMENT DWORD USE32 PUBLIC 'CONST'
rdata$r	ENDS
;	COMDAT ??_R2ProtocolException@@8
rdata$r	SEGMENT DWORD USE32 PUBLIC 'CONST'
rdata$r	ENDS
;	COMDAT ??_R1A@?0A@A@ProtocolException@@8
rdata$r	SEGMENT DWORD USE32 PUBLIC 'CONST'
rdata$r	ENDS
;	COMDAT ??_GProtocolException@@UAEPAXI@Z
_TEXT	SEGMENT PARA USE32 PUBLIC 'CODE'
_TEXT	ENDS
;	COMDAT ?getName@ProtocolException@@UBE?AV?$basic_string@DV?$char_traits@D@_STL@@V?$allocator@D@2@@_STL@@XZ
_TEXT	SEGMENT PARA USE32 PUBLIC 'CODE'
_TEXT	ENDS
;	COMDAT ??_C@_0BC@KDBIDNIF@ProtocolException?$AA@
CONST	SEGMENT DWORD USE32 PUBLIC 'CONST'
CONST	ENDS
;	COMDAT ??1IOException@@UAE@XZ
_TEXT	SEGMENT PARA USE32 PUBLIC 'CODE'
_TEXT	ENDS
;	COMDAT ??_7InvalidProtocolException@@6B@
CONST	SEGMENT DWORD USE32 PUBLIC 'CONST'
CONST	ENDS
;	COMDAT ??_R4InvalidProtocolException@@6B@
rdata$r	SEGMENT DWORD USE32 PUBLIC 'CONST'
rdata$r	ENDS
;	COMDAT ??_R3InvalidProtocolException@@8
rdata$r	SEGMENT DWORD USE32 PUBLIC 'CONST'
rdata$r	ENDS
;	COMDAT ??_R2InvalidProtocolException@@8
rdata$r	SEGMENT DWORD USE32 PUBLIC 'CONST'
rdata$r	ENDS
;	COMDAT ??_R1A@?0A@A@InvalidProtocolException@@8
rdata$r	SEGMENT DWORD USE32 PUBLIC 'CONST'
rdata$r	ENDS
;	COMDAT ??_GInvalidProtocolException@@UAEPAXI@Z
_TEXT	SEGMENT PARA USE32 PUBLIC 'CODE'
_TEXT	ENDS
;	COMDAT ?getName@InvalidProtocolException@@UBE?AV?$basic_string@DV?$char_traits@D@_STL@@V?$allocator@D@2@@_STL@@XZ
_TEXT	SEGMENT PARA USE32 PUBLIC 'CODE'
_TEXT	ENDS
;	COMDAT ??_C@_0BJ@BKELNFKP@InvalidProtocolException?$AA@
CONST	SEGMENT DWORD USE32 PUBLIC 'CONST'
CONST	ENDS
;	COMDAT ??1ProtocolException@@UAE@XZ
_TEXT	SEGMENT PARA USE32 PUBLIC 'CODE'
_TEXT	ENDS
;	COMDAT __CTA2?AVError@@
xdata$x	SEGMENT DWORD USE32 PUBLIC 'CONST'
xdata$x	ENDS
;	COMDAT ??1Error@@UAE@XZ
_TEXT	SEGMENT PARA USE32 PUBLIC 'CODE'
_TEXT	ENDS
;	COMDAT __CT??_R0?AVError@@@8??0Error@@QAE@ABV0@@Z20
xdata$x	SEGMENT DWORD USE32 PUBLIC 'CONST'
xdata$x	ENDS
;	COMDAT ??_R0?AVError@@@8
_DATA	SEGMENT DWORD USE32 PUBLIC 'DATA'
_DATA	ENDS
;	COMDAT __TI2?AVError@@
xdata$x	SEGMENT DWORD USE32 PUBLIC 'CONST'
xdata$x	ENDS
;	COMDAT ??0Error@@QAE@ABV?$basic_string@DV?$char_traits@D@_STL@@V?$allocator@D@2@@_STL@@@Z
_TEXT	SEGMENT PARA USE32 PUBLIC 'CODE'
_TEXT	ENDS
;	COMDAT ??0Throwable@@QAE@V?$basic_string@DV?$char_traits@D@_STL@@V?$allocator@D@2@@_STL@@@Z
_TEXT	SEGMENT PARA USE32 PUBLIC 'CODE'
_TEXT	ENDS
;	COMDAT ??0?$list@V?$basic_string@DV?$char_traits@D@_STL@@V?$allocator@D@2@@_STL@@V?$allocator@V?$basic_string@DV?$char_traits@D@_STL@@V?$allocator@D@2@@_STL@@@2@@_STL@@QAE@ABV?$allocator@V?$basic_string@DV?$char_traits@D@_STL@@V?$allocator@D@2@@_STL@@@1@@Z
_TEXT	SEGMENT PARA USE32 PUBLIC 'CODE'
_TEXT	ENDS
;	COMDAT ??0?$allocator@V?$basic_string@DV?$char_traits@D@_STL@@V?$allocator@D@2@@_STL@@@_STL@@QAE@XZ
_TEXT	SEGMENT PARA USE32 PUBLIC 'CODE'
_TEXT	ENDS
;	COMDAT _$E49
text$yc	SEGMENT PARA USE32 PUBLIC 'CODE'
text$yc	ENDS
;	COMDAT ??_C@_06GNJIJHFJ@FEMALE?$AA@
CONST	SEGMENT DWORD USE32 PUBLIC 'CONST'
CONST	ENDS
;	COMDAT ??_C@_04EOJIGEKG@MALE?$AA@
CONST	SEGMENT DWORD USE32 PUBLIC 'CONST'
CONST	ENDS
;	COMDAT _$E50
text$yd	SEGMENT PARA USE32 PUBLIC 'CODE'
text$yd	ENDS
;	COMDAT __CTA5?AVInvalidProtocolException@@
xdata$x	SEGMENT DWORD USE32 PUBLIC 'CONST'
xdata$x	ENDS
;	COMDAT __CT??_R0?AVThrowable@@@8??0Throwable@@QAE@ABV0@@Z20
xdata$x	SEGMENT DWORD USE32 PUBLIC 'CONST'
xdata$x	ENDS
;	COMDAT __CT??_R0?AVException@@@8??0Exception@@QAE@ABV0@@Z20
xdata$x	SEGMENT DWORD USE32 PUBLIC 'CONST'
xdata$x	ENDS
;	COMDAT __CT??_R0?AVIOException@@@8??0IOException@@QAE@ABV0@@Z20
xdata$x	SEGMENT DWORD USE32 PUBLIC 'CONST'
xdata$x	ENDS
;	COMDAT __CT??_R0?AVProtocolException@@@8??0ProtocolException@@QAE@ABV0@@Z20
xdata$x	SEGMENT DWORD USE32 PUBLIC 'CONST'
xdata$x	ENDS
;	COMDAT __CT??_R0?AVInvalidProtocolException@@@8??0InvalidProtocolException@@QAE@ABV0@@Z20
xdata$x	SEGMENT DWORD USE32 PUBLIC 'CONST'
xdata$x	ENDS
;	COMDAT ??_R0?AVThrowable@@@8
_DATA	SEGMENT DWORD USE32 PUBLIC 'DATA'
_DATA	ENDS
;	COMDAT ??_R0?AVException@@@8
_DATA	SEGMENT DWORD USE32 PUBLIC 'DATA'
_DATA	ENDS
;	COMDAT ??_R0?AVIOException@@@8
_DATA	SEGMENT DWORD USE32 PUBLIC 'DATA'
_DATA	ENDS
;	COMDAT ??_R0?AVProtocolException@@@8
_DATA	SEGMENT DWORD USE32 PUBLIC 'DATA'
_DATA	ENDS
;	COMDAT ??_R0?AVInvalidProtocolException@@@8
_DATA	SEGMENT DWORD USE32 PUBLIC 'DATA'
_DATA	ENDS
;	COMDAT __TI5?AVInvalidProtocolException@@
xdata$x	SEGMENT DWORD USE32 PUBLIC 'CONST'
xdata$x	ENDS
;	COMDAT ??1InvalidProtocolException@@UAE@XZ
_TEXT	SEGMENT PARA USE32 PUBLIC 'CODE'
_TEXT	ENDS
;	COMDAT ??1?$allocator@D@_STL@@QAE@XZ
_TEXT	SEGMENT PARA USE32 PUBLIC 'CODE'
_TEXT	ENDS
;	COMDAT ??0?$allocator@D@_STL@@QAE@XZ
_TEXT	SEGMENT PARA USE32 PUBLIC 'CODE'
_TEXT	ENDS
;	COMDAT ??0?$basic_string@DV?$char_traits@D@_STL@@V?$allocator@D@2@@_STL@@QAE@PBDABV?$allocator@D@1@@Z
_TEXT	SEGMENT PARA USE32 PUBLIC 'CODE'
_TEXT	ENDS
;	COMDAT ?length@?$char_traits@D@_STL@@SAIPBD@Z
_TEXT	SEGMENT PARA USE32 PUBLIC 'CODE'
_TEXT	ENDS
;	COMDAT ??0InvalidProtocolException@@QAE@V?$basic_string@DV?$char_traits@D@_STL@@V?$allocator@D@2@@_STL@@@Z
_TEXT	SEGMENT PARA USE32 PUBLIC 'CODE'
_TEXT	ENDS
;	COMDAT ??0ProtocolException@@QAE@V?$basic_string@DV?$char_traits@D@_STL@@V?$allocator@D@2@@_STL@@@Z
_TEXT	SEGMENT PARA USE32 PUBLIC 'CODE'
_TEXT	ENDS
;	COMDAT ??0IOException@@QAE@V?$basic_string@DV?$char_traits@D@_STL@@V?$allocator@D@2@@_STL@@@Z
_TEXT	SEGMENT PARA USE32 PUBLIC 'CODE'
_TEXT	ENDS
;	COMDAT ??0Exception@@QAE@V?$basic_string@DV?$char_traits@D@_STL@@V?$allocator@D@2@@_STL@@@Z
_TEXT	SEGMENT PARA USE32 PUBLIC 'CODE'
_TEXT	ENDS
;	COMDAT _$E55
text$yc	SEGMENT PARA USE32 PUBLIC 'CODE'
text$yc	ENDS
;	COMDAT ??_C@_05DHLLFIPI@SLOT1?$AA@
CONST	SEGMENT DWORD USE32 PUBLIC 'CONST'
CONST	ENDS
;	COMDAT ??_C@_05BMJGALDL@SLOT2?$AA@
CONST	SEGMENT DWORD USE32 PUBLIC 'CONST'
CONST	ENDS
;	COMDAT ??_C@_05FINDKHK@SLOT3?$AA@
CONST	SEGMENT DWORD USE32 PUBLIC 'CONST'
CONST	ENDS
;	COMDAT _$E56
text$yd	SEGMENT PARA USE32 PUBLIC 'CODE'
text$yd	ENDS
;	COMDAT ??4?$basic_string@DV?$char_traits@D@_STL@@V?$allocator@D@2@@_STL@@QAEAAV01@ABV01@@Z
_TEXT	SEGMENT PARA USE32 PUBLIC 'CODE'
_TEXT	ENDS
;	COMDAT ??$assign@PAD@?$basic_string@DV?$char_traits@D@_STL@@V?$allocator@D@2@@_STL@@QAEAAV01@PAD0@Z
_TEXT	SEGMENT PARA USE32 PUBLIC 'CODE'
_TEXT	ENDS
;	COMDAT ??_7PCInfo@@6B@
CONST	SEGMENT DWORD USE32 PUBLIC 'CONST'
CONST	ENDS
;	COMDAT ??1?$basic_string@DV?$char_traits@D@_STL@@V?$allocator@D@2@@_STL@@QAE@XZ
_TEXT	SEGMENT PARA USE32 PUBLIC 'CODE'
_TEXT	ENDS
;	COMDAT ??0?$basic_string@DV?$char_traits@D@_STL@@V?$allocator@D@2@@_STL@@QAE@ABV01@@Z
_TEXT	SEGMENT PARA USE32 PUBLIC 'CODE'
_TEXT	ENDS
sxdata	SEGMENT DWORD USE32 'SXDATA'
sxdata	ENDS
FLAT	GROUP _DATA, CONST, _BSS
	ASSUME	CS: FLAT, DS: FLAT, SS: FLAT
endif

INCLUDELIB LIBCMT
INCLUDELIB OLDNAMES

PUBLIC	??2@YAPAXIPAX@Z					; operator new
; Function compile flags: /Ogsy
; File c:\program files\microsoft visual studio .net 2003\vc7\include\new
;	COMDAT ??2@YAPAXIPAX@Z
_TEXT	SEGMENT
___formal$ = 8						; size = 4
__Where$ = 12						; size = 4
??2@YAPAXIPAX@Z PROC NEAR				; operator new, COMDAT

; 64   : 	return (_Where);

  00000	8b 44 24 08	 mov	 eax, DWORD PTR __Where$[esp-4]

; 65   : 	}

  00004	c3		 ret	 0
??2@YAPAXIPAX@Z ENDP					; operator new
_TEXT	ENDS
PUBLIC	??3@YAXPAX0@Z					; operator delete
; Function compile flags: /Ogsy
;	COMDAT ??3@YAXPAX0@Z
_TEXT	SEGMENT
___formal$ = 8						; size = 4
___formal$ = 12						; size = 4
??3@YAXPAX0@Z PROC NEAR					; operator delete, COMDAT

; 69   : 	}

  00000	c3		 ret	 0
??3@YAXPAX0@Z ENDP					; operator delete
_TEXT	ENDS
PUBLIC	?__stl_new@_STL@@YAPAXI@Z			; _STL::__stl_new
EXTRN	??2@YAPAXI@Z:NEAR				; operator new
; Function compile flags: /Ogsy
; File c:\stlport-4.6.1\stlport\stl\_new.h
;	COMDAT ?__stl_new@_STL@@YAPAXI@Z
_TEXT	SEGMENT
___n$ = 8						; size = 4
?__stl_new@_STL@@YAPAXI@Z PROC NEAR			; _STL::__stl_new, COMDAT

; 86   : inline void*  _STLP_CALL __stl_new(size_t __n)   { _STLP_CHECK_NULL_ALLOC(::operator _STLP_NEW(__n)); }

  00000	e9 00 00 00 00	 jmp	 ??2@YAPAXI@Z		; operator new
?__stl_new@_STL@@YAPAXI@Z ENDP				; _STL::__stl_new
_TEXT	ENDS
PUBLIC	?__stl_delete@_STL@@YAXPAX@Z			; _STL::__stl_delete
EXTRN	??3@YAXPAX@Z:NEAR				; operator delete
; Function compile flags: /Ogsy
;	COMDAT ?__stl_delete@_STL@@YAXPAX@Z
_TEXT	SEGMENT
___p$ = 8						; size = 4
?__stl_delete@_STL@@YAXPAX@Z PROC NEAR			; _STL::__stl_delete, COMDAT

; 87   : inline void   _STLP_CALL __stl_delete(void* __p) { ::operator delete(__p); }

  00000	e9 00 00 00 00	 jmp	 ??3@YAXPAX@Z		; operator delete
?__stl_delete@_STL@@YAXPAX@Z ENDP			; _STL::__stl_delete
_TEXT	ENDS
PUBLIC	?read@SocketInputStream@@QAEIAAE@Z		; SocketInputStream::read
EXTRN	?read@SocketInputStream@@QAEIPADI@Z:NEAR	; SocketInputStream::read
; Function compile flags: /Ogsy
; File c:\darkeden\designed_common\project\client\packet\socketinputstream.h
;	COMDAT ?read@SocketInputStream@@QAEIAAE@Z
_TEXT	SEGMENT
_buf$ = 8						; size = 4
?read@SocketInputStream@@QAEIAAE@Z PROC NEAR		; SocketInputStream::read, COMDAT
; _this$ = ecx

; 69   : 	uint read ( uchar  & buf ) throw ( ProtocolException , Error ) { return read( (char*)&buf, szuchar  ); }

  00000	6a 01		 push	 1
  00002	ff 74 24 08	 push	 DWORD PTR _buf$[esp]
  00006	e8 00 00 00 00	 call	 ?read@SocketInputStream@@QAEIPADI@Z ; SocketInputStream::read
  0000b	c2 04 00	 ret	 4
?read@SocketInputStream@@QAEIAAE@Z ENDP			; SocketInputStream::read
_TEXT	ENDS
PUBLIC	?read@SocketInputStream@@QAEIAAG@Z		; SocketInputStream::read
; Function compile flags: /Ogsy
;	COMDAT ?read@SocketInputStream@@QAEIAAG@Z
_TEXT	SEGMENT
_buf$ = 8						; size = 4
?read@SocketInputStream@@QAEIAAG@Z PROC NEAR		; SocketInputStream::read, COMDAT
; _this$ = ecx

; 71   : 	uint read ( ushort & buf ) throw ( ProtocolException , Error ) { return read( (char*)&buf, szushort ); }

  00000	6a 02		 push	 2
  00002	ff 74 24 08	 push	 DWORD PTR _buf$[esp]
  00006	e8 00 00 00 00	 call	 ?read@SocketInputStream@@QAEIPADI@Z ; SocketInputStream::read
  0000b	c2 04 00	 ret	 4
?read@SocketInputStream@@QAEIAAG@Z ENDP			; SocketInputStream::read
_TEXT	ENDS
PUBLIC	?read@SocketInputStream@@QAEIAAH@Z		; SocketInputStream::read
; Function compile flags: /Ogsy
;	COMDAT ?read@SocketInputStream@@QAEIAAH@Z
_TEXT	SEGMENT
_buf$ = 8						; size = 4
?read@SocketInputStream@@QAEIAAH@Z PROC NEAR		; SocketInputStream::read, COMDAT
; _this$ = ecx

; 72   : 	uint read ( int    & buf ) throw ( ProtocolException , Error ) { return read( (char*)&buf, szint    ); }

  00000	6a 04		 push	 4
  00002	ff 74 24 08	 push	 DWORD PTR _buf$[esp]
  00006	e8 00 00 00 00	 call	 ?read@SocketInputStream@@QAEIPADI@Z ; SocketInputStream::read
  0000b	c2 04 00	 ret	 4
?read@SocketInputStream@@QAEIAAH@Z ENDP			; SocketInputStream::read
_TEXT	ENDS
PUBLIC	?read@SocketInputStream@@QAEIAAK@Z		; SocketInputStream::read
; Function compile flags: /Ogsy
;	COMDAT ?read@SocketInputStream@@QAEIAAK@Z
_TEXT	SEGMENT
_buf$ = 8						; size = 4
?read@SocketInputStream@@QAEIAAK@Z PROC NEAR		; SocketInputStream::read, COMDAT
; _this$ = ecx

; 75   : 	uint read ( ulong  & buf ) throw ( ProtocolException , Error ) { return read( (char*)&buf, szulong  ); }

  00000	6a 04		 push	 4
  00002	ff 74 24 08	 push	 DWORD PTR _buf$[esp]
  00006	e8 00 00 00 00	 call	 ?read@SocketInputStream@@QAEIPADI@Z ; SocketInputStream::read
  0000b	c2 04 00	 ret	 4
?read@SocketInputStream@@QAEIAAK@Z ENDP			; SocketInputStream::read
_TEXT	ENDS
PUBLIC	?_Destroy@_STL@@YAXPAD0@Z			; _STL::_Destroy
; Function compile flags: /Ogsy
; File c:\stlport-4.6.1\stlport\stl\_construct.h
;	COMDAT ?_Destroy@_STL@@YAXPAD0@Z
_TEXT	SEGMENT
___formal$ = 8						; size = 4
___formal$ = 12						; size = 4
?_Destroy@_STL@@YAXPAD0@Z PROC NEAR			; _STL::_Destroy, COMDAT

; 142  : inline void _Destroy(char*, char*) {}

  00000	c3		 ret	 0
?_Destroy@_STL@@YAXPAD0@Z ENDP				; _STL::_Destroy
_TEXT	ENDS
PUBLIC	?__copy_trivial@_STL@@YAPAXPBX0PAX@Z		; _STL::__copy_trivial
EXTRN	_memmove:NEAR
; Function compile flags: /Ogsy
; File c:\stlport-4.6.1\stlport\stl\_algobase.h
;	COMDAT ?__copy_trivial@_STL@@YAPAXPBX0PAX@Z
_TEXT	SEGMENT
___first$ = 8						; size = 4
___last$ = 12						; size = 4
___result$ = 16						; size = 4
?__copy_trivial@_STL@@YAPAXPBX0PAX@Z PROC NEAR		; _STL::__copy_trivial, COMDAT

; 147  : __copy_trivial(const void* __first, const void* __last, void* __result) {

  00000	55		 push	 ebp
  00001	8b ec		 mov	 ebp, esp
  00003	56		 push	 esi

; 148  :   return (__last == __first) ? __result : 
; 149  :     ((char*)memmove(__result, __first, ((const char*)__last - (const char*)__first))) + 
; 150  :     ((const char*)__last - (const char*)__first);

  00004	8b 75 0c	 mov	 esi, DWORD PTR ___last$[ebp]
  00007	3b 75 08	 cmp	 esi, DWORD PTR ___first$[ebp]
  0000a	75 05		 jne	 SHORT $L101183
  0000c	8b 45 10	 mov	 eax, DWORD PTR ___result$[ebp]
  0000f	eb 14		 jmp	 SHORT $L101184
$L101183:
  00011	2b 75 08	 sub	 esi, DWORD PTR ___first$[ebp]
  00014	56		 push	 esi
  00015	ff 75 08	 push	 DWORD PTR ___first$[ebp]
  00018	ff 75 10	 push	 DWORD PTR ___result$[ebp]
  0001b	e8 00 00 00 00	 call	 _memmove
  00020	83 c4 0c	 add	 esp, 12			; 0000000cH
  00023	03 c6		 add	 eax, esi
$L101184:
  00025	5e		 pop	 esi

; 151  : }

  00026	5d		 pop	 ebp
  00027	c3		 ret	 0
?__copy_trivial@_STL@@YAPAXPBX0PAX@Z ENDP		; _STL::__copy_trivial
_TEXT	ENDS
PUBLIC	?write@SocketOutputStream@@QAEIE@Z		; SocketOutputStream::write
EXTRN	?write@SocketOutputStream@@QAEIPBDI@Z:NEAR	; SocketOutputStream::write
; Function compile flags: /Ogsy
; File c:\darkeden\designed_common\project\client\packet\socketoutputstream.h
;	COMDAT ?write@SocketOutputStream@@QAEIE@Z
_TEXT	SEGMENT
_buf$ = 8						; size = 1
?write@SocketOutputStream@@QAEIE@Z PROC NEAR		; SocketOutputStream::write, COMDAT
; _this$ = ecx

; 62   :     uint write ( uchar  buf ) throw ( ProtocolException , Error ) { return write( (const char*)&buf, szuchar  ); }

  00000	6a 01		 push	 1
  00002	8d 44 24 08	 lea	 eax, DWORD PTR _buf$[esp]
  00006	50		 push	 eax
  00007	e8 00 00 00 00	 call	 ?write@SocketOutputStream@@QAEIPBDI@Z ; SocketOutputStream::write
  0000c	c2 04 00	 ret	 4
?write@SocketOutputStream@@QAEIE@Z ENDP			; SocketOutputStream::write
_TEXT	ENDS
PUBLIC	?write@SocketOutputStream@@QAEIG@Z		; SocketOutputStream::write
; Function compile flags: /Ogsy
;	COMDAT ?write@SocketOutputStream@@QAEIG@Z
_TEXT	SEGMENT
_buf$ = 8						; size = 2
?write@SocketOutputStream@@QAEIG@Z PROC NEAR		; SocketOutputStream::write, COMDAT
; _this$ = ecx

; 64   :     uint write ( ushort buf ) throw ( ProtocolException , Error ) { return write( (const char*)&buf, szushort ); }

  00000	6a 02		 push	 2
  00002	8d 44 24 08	 lea	 eax, DWORD PTR _buf$[esp]
  00006	50		 push	 eax
  00007	e8 00 00 00 00	 call	 ?write@SocketOutputStream@@QAEIPBDI@Z ; SocketOutputStream::write
  0000c	c2 04 00	 ret	 4
?write@SocketOutputStream@@QAEIG@Z ENDP			; SocketOutputStream::write
_TEXT	ENDS
PUBLIC	?write@SocketOutputStream@@QAEIH@Z		; SocketOutputStream::write
; Function compile flags: /Ogsy
;	COMDAT ?write@SocketOutputStream@@QAEIH@Z
_TEXT	SEGMENT
_buf$ = 8						; size = 4
?write@SocketOutputStream@@QAEIH@Z PROC NEAR		; SocketOutputStream::write, COMDAT
; _this$ = ecx

; 65   :     uint write ( int    buf ) throw ( ProtocolException , Error ) { return write( (const char*)&buf, szint    ); }

  00000	6a 04		 push	 4
  00002	8d 44 24 08	 lea	 eax, DWORD PTR _buf$[esp]
  00006	50		 push	 eax
  00007	e8 00 00 00 00	 call	 ?write@SocketOutputStream@@QAEIPBDI@Z ; SocketOutputStream::write
  0000c	c2 04 00	 ret	 4
?write@SocketOutputStream@@QAEIH@Z ENDP			; SocketOutputStream::write
_TEXT	ENDS
PUBLIC	?write@SocketOutputStream@@QAEIK@Z		; SocketOutputStream::write
; Function compile flags: /Ogsy
;	COMDAT ?write@SocketOutputStream@@QAEIK@Z
_TEXT	SEGMENT
_buf$ = 8						; size = 4
?write@SocketOutputStream@@QAEIK@Z PROC NEAR		; SocketOutputStream::write, COMDAT
; _this$ = ecx

; 68   :     uint write ( ulong  buf ) throw ( ProtocolException , Error ) { return write( (const char*)&buf, szulong  ); }

  00000	6a 04		 push	 4
  00002	8d 44 24 08	 lea	 eax, DWORD PTR _buf$[esp]
  00006	50		 push	 eax
  00007	e8 00 00 00 00	 call	 ?write@SocketOutputStream@@QAEIPBDI@Z ; SocketOutputStream::write
  0000c	c2 04 00	 ret	 4
?write@SocketOutputStream@@QAEIK@Z ENDP			; SocketOutputStream::write
_TEXT	ENDS
PUBLIC	?uninitialized_copy@_STL@@YAPADPBD0PAD@Z	; _STL::uninitialized_copy
; Function compile flags: /Ogsy
; File c:\stlport-4.6.1\stlport\stl\_uninitialized.h
;	COMDAT ?uninitialized_copy@_STL@@YAPADPBD0PAD@Z
_TEXT	SEGMENT
___first$ = 8						; size = 4
___last$ = 12						; size = 4
___result$ = 16						; size = 4
?uninitialized_copy@_STL@@YAPADPBD0PAD@Z PROC NEAR	; _STL::uninitialized_copy, COMDAT

; 84   :   return  (char*)__copy_trivial (__first, __last, __result);

  00000	e9 00 00 00 00	 jmp	 ?__copy_trivial@_STL@@YAPAXPBX0PAX@Z ; _STL::__copy_trivial
?uninitialized_copy@_STL@@YAPADPBD0PAD@Z ENDP		; _STL::uninitialized_copy
_TEXT	ENDS
PUBLIC	?length@?$char_traits@D@_STL@@SAIPBD@Z		; _STL::char_traits<char>::length
EXTRN	_strlen:NEAR
; Function compile flags: /Ogsy
; File c:\stlport-4.6.1\stlport\stl\char_traits.h
;	COMDAT ?length@?$char_traits@D@_STL@@SAIPBD@Z
_TEXT	SEGMENT
___s$ = 8						; size = 4
?length@?$char_traits@D@_STL@@SAIPBD@Z PROC NEAR	; _STL::char_traits<char>::length, COMDAT

; 238  :   static size_t _STLP_CALL length(const char* __s) { return strlen(__s); }

  00000	e9 00 00 00 00	 jmp	 _strlen
?length@?$char_traits@D@_STL@@SAIPBD@Z ENDP		; _STL::char_traits<char>::length
_TEXT	ENDS
PUBLIC	?setShapeInfo@PCVampireInfo@@QAEXKQAG@Z		; PCVampireInfo::setShapeInfo
; Function compile flags: /Ogsy
; File c:\darkeden\designed_common\project\client\packet\pcvampireinfo.cpp
;	COMDAT ?setShapeInfo@PCVampireInfo@@QAEXKQAG@Z
_TEXT	SEGMENT
_flag$ = 8						; size = 4
_color$ = 12						; size = 4
?setShapeInfo@PCVampireInfo@@QAEXKQAG@Z PROC NEAR	; PCVampireInfo::setShapeInfo, COMDAT
; _this$ = ecx

; 17   : 	//  vampire coat  ..
; 18   : 	//     PCSlayerInfo   
; 19   : 	m_CoatType = flag;//(flag & 7);

  00000	66 8b 44 24 04	 mov	 ax, WORD PTR _flag$[esp-4]
  00005	66 89 41 20	 mov	 WORD PTR [ecx+32], ax

; 20   : 	m_CoatColor = color[0];

  00009	8b 44 24 08	 mov	 eax, DWORD PTR _color$[esp-4]
  0000d	66 8b 10	 mov	 dx, WORD PTR [eax]
  00010	66 89 51 22	 mov	 WORD PTR [ecx+34], dx

; 21   : 	m_ArmColor = color[1];

  00014	66 8b 40 02	 mov	 ax, WORD PTR [eax+2]
  00018	66 89 41 40	 mov	 WORD PTR [ecx+64], ax

; 22   : }

  0001c	c2 08 00	 ret	 8
?setShapeInfo@PCVampireInfo@@QAEXKQAG@Z ENDP		; PCVampireInfo::setShapeInfo
_TEXT	ENDS
PUBLIC	?size@?$basic_string@DV?$char_traits@D@_STL@@V?$allocator@D@2@@_STL@@QBEIXZ ; _STL::basic_string<char,_STL::char_traits<char>,_STL::allocator<char> >::size
; Function compile flags: /Ogsy
; File c:\stlport-4.6.1\stlport\stl\_string.h
;	COMDAT ?size@?$basic_string@DV?$char_traits@D@_STL@@V?$allocator@D@2@@_STL@@QBEIXZ
_TEXT	SEGMENT
?size@?$basic_string@DV?$char_traits@D@_STL@@V?$allocator@D@2@@_STL@@QBEIXZ PROC NEAR ; _STL::basic_string<char,_STL::char_traits<char>,_STL::allocator<char> >::size, COMDAT
; _this$ = ecx

; 431  :   size_type size() const { return this->_M_finish - this->_M_start; }

  00000	8b 41 04	 mov	 eax, DWORD PTR [ecx+4]
  00003	2b 01		 sub	 eax, DWORD PTR [ecx]
  00005	c3		 ret	 0
?size@?$basic_string@DV?$char_traits@D@_STL@@V?$allocator@D@2@@_STL@@QBEIXZ ENDP ; _STL::basic_string<char,_STL::char_traits<char>,_STL::allocator<char> >::size
_TEXT	ENDS
PUBLIC	?c_str@?$basic_string@DV?$char_traits@D@_STL@@V?$allocator@D@2@@_STL@@QBEPBDXZ ; _STL::basic_string<char,_STL::char_traits<char>,_STL::allocator<char> >::c_str
; Function compile flags: /Ogsy
;	COMDAT ?c_str@?$basic_string@DV?$char_traits@D@_STL@@V?$allocator@D@2@@_STL@@QBEPBDXZ
_TEXT	SEGMENT
?c_str@?$basic_string@DV?$char_traits@D@_STL@@V?$allocator@D@2@@_STL@@QBEPBDXZ PROC NEAR ; _STL::basic_string<char,_STL::char_traits<char>,_STL::allocator<char> >::c_str, COMDAT
; _this$ = ecx

; 1065 :   const _CharT* c_str() const { return this->_M_start; }

  00000	8b 01		 mov	 eax, DWORD PTR [ecx]
  00002	c3		 ret	 0
?c_str@?$basic_string@DV?$char_traits@D@_STL@@V?$allocator@D@2@@_STL@@QBEPBDXZ ENDP ; _STL::basic_string<char,_STL::char_traits<char>,_STL::allocator<char> >::c_str
_TEXT	ENDS
PUBLIC	?_M_terminate_string_aux@?$basic_string@DV?$char_traits@D@_STL@@V?$allocator@D@2@@_STL@@AAEXABU__true_type@2@@Z ; _STL::basic_string<char,_STL::char_traits<char>,_STL::allocator<char> >::_M_terminate_string_aux
; Function compile flags: /Ogsy
;	COMDAT ?_M_terminate_string_aux@?$basic_string@DV?$char_traits@D@_STL@@V?$allocator@D@2@@_STL@@AAEXABU__true_type@2@@Z
_TEXT	SEGMENT
___formal$ = 8						; size = 4
?_M_terminate_string_aux@?$basic_string@DV?$char_traits@D@_STL@@V?$allocator@D@2@@_STL@@AAEXABU__true_type@2@@Z PROC NEAR ; _STL::basic_string<char,_STL::char_traits<char>,_STL::allocator<char> >::_M_terminate_string_aux, COMDAT
; _this$ = ecx

; 351  :     *(this->_M_finish)=0;

  00000	8b 41 04	 mov	 eax, DWORD PTR [ecx+4]
  00003	c6 00 00	 mov	 BYTE PTR [eax], 0

; 352  :   }

  00006	c2 04 00	 ret	 4
?_M_terminate_string_aux@?$basic_string@DV?$char_traits@D@_STL@@V?$allocator@D@2@@_STL@@AAEXABU__true_type@2@@Z ENDP ; _STL::basic_string<char,_STL::char_traits<char>,_STL::allocator<char> >::_M_terminate_string_aux
_TEXT	ENDS
PUBLIC	??0?$allocator@D@_STL@@QAE@ABV01@@Z		; _STL::allocator<char>::allocator<char>
; Function compile flags: /Ogsy
; File c:\stlport-4.6.1\stlport\stl\_alloc.h
;	COMDAT ??0?$allocator@D@_STL@@QAE@ABV01@@Z
_TEXT	SEGMENT
___formal$ = 8						; size = 4
??0?$allocator@D@_STL@@QAE@ABV01@@Z PROC NEAR		; _STL::allocator<char>::allocator<char>, COMDAT
; _this$ = ecx

; 349  :   allocator(const allocator<_Tp>&) _STLP_NOTHROW {}

  00000	8b c1		 mov	 eax, ecx
  00002	c2 04 00	 ret	 4
??0?$allocator@D@_STL@@QAE@ABV01@@Z ENDP		; _STL::allocator<char>::allocator<char>
_TEXT	ENDS
PUBLIC	??$?0U?$_List_node@V?$basic_string@DV?$char_traits@D@_STL@@V?$allocator@D@2@@_STL@@@_STL@@@?$allocator@V?$basic_string@DV?$char_traits@D@_STL@@V?$allocator@D@2@@_STL@@@_STL@@QAE@ABV?$allocator@U?$_List_node@V?$basic_string@DV?$char_traits@D@_STL@@V?$allocator@D@2@@_STL@@@_STL@@@1@@Z ; _STL::allocator<_STL::basic_string<char,_STL::char_traits<char>,_STL::allocator<char> > >::allocator<_STL::basic_string<char,_STL::char_traits<char>,_STL::allocator<char> > ><_STL::_List_node<_STL::basic_string<char,_STL::char_traits<char>,_STL::allocator<char> > > >
; Function compile flags: /Ogsy
;	COMDAT ??$?0U?$_List_node@V?$basic_string@DV?$char_traits@D@_STL@@V?$allocator@D@2@@_STL@@@_STL@@@?$allocator@V?$basic_string@DV?$char_traits@D@_STL@@V?$allocator@D@2@@_STL@@@_STL@@QAE@ABV?$allocator@U?$_List_node@V?$basic_string@DV?$char_traits@D@_STL@@V?$allocator@D@2@@_STL@@@_STL@@@1@@Z
_TEXT	SEGMENT
___formal$ = 8						; size = 4
??$?0U?$_List_node@V?$basic_string@DV?$char_traits@D@_STL@@V?$allocator@D@2@@_STL@@@_STL@@@?$allocator@V?$basic_string@DV?$char_traits@D@_STL@@V?$allocator@D@2@@_STL@@@_STL@@QAE@ABV?$allocator@U?$_List_node@V?$basic_string@DV?$char_traits@D@_STL@@V?$allocator@D@2@@_STL@@@_STL@@@1@@Z PROC NEAR ; _STL::allocator<_STL::basic_string<char,_STL::char_traits<char>,_STL::allocator<char> > >::allocator<_STL::basic_string<char,_STL::char_traits<char>,_STL::allocator<char> > ><_STL::_List_node<_STL::basic_string<char,_STL::char_traits<char>,_STL::allocator<char> > > >, COMDAT
; _this$ = ecx

; 347  :   template <class _Tp1> allocator(const allocator<_Tp1>&) _STLP_NOTHROW {}

  00000	8b c1		 mov	 eax, ecx
  00002	c2 04 00	 ret	 4
??$?0U?$_List_node@V?$basic_string@DV?$char_traits@D@_STL@@V?$allocator@D@2@@_STL@@@_STL@@@?$allocator@V?$basic_string@DV?$char_traits@D@_STL@@V?$allocator@D@2@@_STL@@@_STL@@QAE@ABV?$allocator@U?$_List_node@V?$basic_string@DV?$char_traits@D@_STL@@V?$allocator@D@2@@_STL@@@_STL@@@1@@Z ENDP ; _STL::allocator<_STL::basic_string<char,_STL::char_traits<char>,_STL::allocator<char> > >::allocator<_STL::basic_string<char,_STL::char_traits<char>,_STL::allocator<char> > ><_STL::_List_node<_STL::basic_string<char,_STL::char_traits<char>,_STL::allocator<char> > > >
_TEXT	ENDS
PUBLIC	?max_size@?$_String_base@DV?$allocator@D@_STL@@@_STL@@QBEIXZ ; _STL::_String_base<char,_STL::allocator<char> >::max_size
; Function compile flags: /Ogsy
; File c:\stlport-4.6.1\stlport\stl\_string.h
;	COMDAT ?max_size@?$_String_base@DV?$allocator@D@_STL@@@_STL@@QBEIXZ
_TEXT	SEGMENT
?max_size@?$_String_base@DV?$allocator@D@_STL@@@_STL@@QBEIXZ PROC NEAR ; _STL::_String_base<char,_STL::allocator<char> >::max_size, COMDAT
; _this$ = ecx

; 126  :   size_t max_size() const { return (size_t(-1) / sizeof(_Tp)) - 1; }

  00000	6a fe		 push	 -2			; fffffffeH
  00002	58		 pop	 eax
  00003	c3		 ret	 0
?max_size@?$_String_base@DV?$allocator@D@_STL@@@_STL@@QBEIXZ ENDP ; _STL::_String_base<char,_STL::allocator<char> >::max_size
_TEXT	ENDS
PUBLIC	??$__distance@PBD@_STL@@YAHABQBD0ABUrandom_access_iterator_tag@0@@Z ; _STL::__distance<char const *>
; Function compile flags: /Ogsy
; File c:\stlport-4.6.1\stlport\stl\_iterator_base.h
;	COMDAT ??$__distance@PBD@_STL@@YAHABQBD0ABUrandom_access_iterator_tag@0@@Z
_TEXT	SEGMENT
___first$ = 8						; size = 4
___last$ = 12						; size = 4
___formal$ = 16						; size = 4
??$__distance@PBD@_STL@@YAHABQBD0ABUrandom_access_iterator_tag@0@@Z PROC NEAR ; _STL::__distance<char const *>, COMDAT

; 363  :   return __last - __first;

  00000	8b 44 24 08	 mov	 eax, DWORD PTR ___last$[esp-4]
  00004	8b 00		 mov	 eax, DWORD PTR [eax]
  00006	8b 4c 24 04	 mov	 ecx, DWORD PTR ___first$[esp-4]
  0000a	2b 01		 sub	 eax, DWORD PTR [ecx]

; 364  : }

  0000c	c3		 ret	 0
??$__distance@PBD@_STL@@YAHABQBD0ABUrandom_access_iterator_tag@0@@Z ENDP ; _STL::__distance<char const *>
_TEXT	ENDS
PUBLIC	?_M_throw_length_error@?$_String_base@DV?$allocator@D@_STL@@@_STL@@QBEXXZ ; _STL::_String_base<char,_STL::allocator<char> >::_M_throw_length_error
PUBLIC	??_C@_0N@GOPDCEEB@basic_string?$AA@		; `string'
EXTRN	?__stl_throw_length_error@_STL@@YAXPBD@Z:NEAR	; _STL::__stl_throw_length_error
;	COMDAT ??_C@_0N@GOPDCEEB@basic_string?$AA@
; File c:\stlport-4.6.1\stlport\stl\_string.c
CONST	SEGMENT
??_C@_0N@GOPDCEEB@basic_string?$AA@ DB 'basic_string', 00H ; `string'
; Function compile flags: /Ogsy
CONST	ENDS
;	COMDAT ?_M_throw_length_error@?$_String_base@DV?$allocator@D@_STL@@@_STL@@QBEXXZ
_TEXT	SEGMENT
?_M_throw_length_error@?$_String_base@DV?$allocator@D@_STL@@@_STL@@QBEXXZ PROC NEAR ; _STL::_String_base<char,_STL::allocator<char> >::_M_throw_length_error, COMDAT
; _this$ = ecx

; 523  :     __stl_throw_length_error("basic_string");

  00000	68 00 00 00 00	 push	 OFFSET FLAT:??_C@_0N@GOPDCEEB@basic_string?$AA@
  00005	e8 00 00 00 00	 call	 ?__stl_throw_length_error@_STL@@YAXPBD@Z ; _STL::__stl_throw_length_error
  0000a	59		 pop	 ecx

; 524  : }

  0000b	c3		 ret	 0
?_M_throw_length_error@?$_String_base@DV?$allocator@D@_STL@@@_STL@@QBEXXZ ENDP ; _STL::_String_base<char,_STL::allocator<char> >::_M_throw_length_error
_TEXT	ENDS
PUBLIC	??$__distance@PAD@_STL@@YAHABQAD0ABUrandom_access_iterator_tag@0@@Z ; _STL::__distance<char *>
; Function compile flags: /Ogsy
; File c:\stlport-4.6.1\stlport\stl\_iterator_base.h
;	COMDAT ??$__distance@PAD@_STL@@YAHABQAD0ABUrandom_access_iterator_tag@0@@Z
_TEXT	SEGMENT
___first$ = 8						; size = 4
___last$ = 12						; size = 4
___formal$ = 16						; size = 4
??$__distance@PAD@_STL@@YAHABQAD0ABUrandom_access_iterator_tag@0@@Z PROC NEAR ; _STL::__distance<char *>, COMDAT

; 363  :   return __last - __first;

  00000	8b 44 24 08	 mov	 eax, DWORD PTR ___last$[esp-4]
  00004	8b 00		 mov	 eax, DWORD PTR [eax]
  00006	8b 4c 24 04	 mov	 ecx, DWORD PTR ___first$[esp-4]
  0000a	2b 01		 sub	 eax, DWORD PTR [ecx]

; 364  : }

  0000c	c3		 ret	 0
??$__distance@PAD@_STL@@YAHABQAD0ABUrandom_access_iterator_tag@0@@Z ENDP ; _STL::__distance<char *>
_TEXT	ENDS
PUBLIC	?_Ret@?$_BothPtrType@PADPAD@_STL@@SA?AU__true_type@2@XZ ; _STL::_BothPtrType<char *,char *>::_Ret
; Function compile flags: /Ogsy
; File c:\stlport-4.6.1\stlport\stl\type_traits.h
;	COMDAT ?_Ret@?$_BothPtrType@PADPAD@_STL@@SA?AU__true_type@2@XZ
_TEXT	SEGMENT
$T101237 = -1						; size = 1
?_Ret@?$_BothPtrType@PADPAD@_STL@@SA?AU__true_type@2@XZ PROC NEAR ; _STL::_BothPtrType<char *,char *>::_Ret, COMDAT

; 234  :   static __true_type _Ret() { return __true_type();} 

  00000	55		 push	 ebp
  00001	8b ec		 mov	 ebp, esp
  00003	51		 push	 ecx
  00004	57		 push	 edi
  00005	33 c0		 xor	 eax, eax
  00007	8d 7d ff	 lea	 edi, DWORD PTR $T101237[ebp]
  0000a	aa		 stosb
  0000b	8a 45 ff	 mov	 al, BYTE PTR $T101237[ebp]
  0000e	5f		 pop	 edi
  0000f	c9		 leave
  00010	c3		 ret	 0
?_Ret@?$_BothPtrType@PADPAD@_STL@@SA?AU__true_type@2@XZ ENDP ; _STL::_BothPtrType<char *,char *>::_Ret
_TEXT	ENDS
PUBLIC	?_Ret@?$_OKToMemCpy@DD@_STL@@SA?AU__true_type@2@XZ ; _STL::_OKToMemCpy<char,char>::_Ret
; Function compile flags: /Ogsy
;	COMDAT ?_Ret@?$_OKToMemCpy@DD@_STL@@SA?AU__true_type@2@XZ
_TEXT	SEGMENT
$T101240 = -1						; size = 1
?_Ret@?$_OKToMemCpy@DD@_STL@@SA?AU__true_type@2@XZ PROC NEAR ; _STL::_OKToMemCpy<char,char>::_Ret, COMDAT

; 361  :   static _Type _Ret() { return _Type(); }

  00000	55		 push	 ebp
  00001	8b ec		 mov	 ebp, esp
  00003	51		 push	 ecx
  00004	57		 push	 edi
  00005	33 c0		 xor	 eax, eax
  00007	8d 7d ff	 lea	 edi, DWORD PTR $T101240[ebp]
  0000a	aa		 stosb
  0000b	8a 45 ff	 mov	 al, BYTE PTR $T101240[ebp]
  0000e	5f		 pop	 edi
  0000f	c9		 leave
  00010	c3		 ret	 0
?_Ret@?$_OKToMemCpy@DD@_STL@@SA?AU__true_type@2@XZ ENDP	; _STL::_OKToMemCpy<char,char>::_Ret
_TEXT	ENDS
PUBLIC	??$_IsOKToMemCpy@DD@_STL@@YA?AU?$_OKToMemCpy@DD@0@PAD0@Z ; _STL::_IsOKToMemCpy<char,char>
; Function compile flags: /Ogsy
;	COMDAT ??$_IsOKToMemCpy@DD@_STL@@YA?AU?$_OKToMemCpy@DD@0@PAD0@Z
_TEXT	SEGMENT
$T101243 = -1						; size = 1
___formal$ = 8						; size = 4
___formal$ = 12						; size = 4
??$_IsOKToMemCpy@DD@_STL@@YA?AU?$_OKToMemCpy@DD@0@PAD0@Z PROC NEAR ; _STL::_IsOKToMemCpy<char,char>, COMDAT

; 365  : inline _OKToMemCpy<_Tp1, _Tp2> _IsOKToMemCpy(_Tp1*, _Tp2*)  {

  00000	55		 push	 ebp
  00001	8b ec		 mov	 ebp, esp
  00003	51		 push	 ecx
  00004	57		 push	 edi

; 366  :   return _OKToMemCpy<_Tp1, _Tp2>();

  00005	33 c0		 xor	 eax, eax
  00007	8d 7d ff	 lea	 edi, DWORD PTR $T101243[ebp]
  0000a	aa		 stosb
  0000b	8a 45 ff	 mov	 al, BYTE PTR $T101243[ebp]
  0000e	5f		 pop	 edi

; 367  : }

  0000f	c9		 leave
  00010	c3		 ret	 0
??$_IsOKToMemCpy@DD@_STL@@YA?AU?$_OKToMemCpy@DD@0@PAD0@Z ENDP ; _STL::_IsOKToMemCpy<char,char>
_TEXT	ENDS
PUBLIC	??$__copy_ptrs@PADPAD@_STL@@YAPADPAD00ABU__true_type@0@@Z ; _STL::__copy_ptrs<char *,char *>
; Function compile flags: /Ogsy
; File c:\stlport-4.6.1\stlport\stl\_algobase.h
;	COMDAT ??$__copy_ptrs@PADPAD@_STL@@YAPADPAD00ABU__true_type@0@@Z
_TEXT	SEGMENT
___first$ = 8						; size = 4
___last$ = 12						; size = 4
___result$ = 16						; size = 4
___formal$ = 20						; size = 4
??$__copy_ptrs@PADPAD@_STL@@YAPADPAD00ABU__true_type@0@@Z PROC NEAR ; _STL::__copy_ptrs<char *,char *>, COMDAT

; 195  : // we know they all pointers, so this cast is OK 
; 196  :   //  return (_OutputIter)__copy_trivial(&(*__first), &(*__last), &(*__result));
; 197  :   return (_OutputIter)__copy_trivial(__first, __last, __result);

  00000	ff 74 24 0c	 push	 DWORD PTR ___result$[esp-4]
  00004	ff 74 24 0c	 push	 DWORD PTR ___last$[esp]
  00008	ff 74 24 0c	 push	 DWORD PTR ___first$[esp+4]
  0000c	e8 00 00 00 00	 call	 ?__copy_trivial@_STL@@YAPAXPBX0PAX@Z ; _STL::__copy_trivial
  00011	83 c4 0c	 add	 esp, 12			; 0000000cH

; 198  : }

  00014	c3		 ret	 0
??$__copy_ptrs@PADPAD@_STL@@YAPADPAD00ABU__true_type@0@@Z ENDP ; _STL::__copy_ptrs<char *,char *>
_TEXT	ENDS
PUBLIC	??0_List_iterator_base@_STL@@QAE@PAU_List_node_base@1@@Z ; _STL::_List_iterator_base::_List_iterator_base
; Function compile flags: /Ogsy
; File c:\stlport-4.6.1\stlport\stl\_list.h
;	COMDAT ??0_List_iterator_base@_STL@@QAE@PAU_List_node_base@1@@Z
_TEXT	SEGMENT
___x$ = 8						; size = 4
??0_List_iterator_base@_STL@@QAE@PAU_List_node_base@1@@Z PROC NEAR ; _STL::_List_iterator_base::_List_iterator_base, COMDAT
; _this$ = ecx

; 95   :   _List_iterator_base(_List_node_base* __x) : _M_node(__x) {}

  00000	8b c1		 mov	 eax, ecx
  00002	8b 4c 24 04	 mov	 ecx, DWORD PTR ___x$[esp-4]
  00006	89 08		 mov	 DWORD PTR [eax], ecx
  00008	c2 04 00	 ret	 4
??0_List_iterator_base@_STL@@QAE@PAU_List_node_base@1@@Z ENDP ; _STL::_List_iterator_base::_List_iterator_base
_TEXT	ENDS
PUBLIC	?_M_incr@_List_iterator_base@_STL@@QAEXXZ	; _STL::_List_iterator_base::_M_incr
; Function compile flags: /Ogsy
;	COMDAT ?_M_incr@_List_iterator_base@_STL@@QAEXXZ
_TEXT	SEGMENT
?_M_incr@_List_iterator_base@_STL@@QAEXXZ PROC NEAR	; _STL::_List_iterator_base::_M_incr, COMDAT
; _this$ = ecx

; 98   :   void _M_incr() { _M_node = _M_node->_M_next; }

  00000	8b 01		 mov	 eax, DWORD PTR [ecx]
  00002	8b 00		 mov	 eax, DWORD PTR [eax]
  00004	89 01		 mov	 DWORD PTR [ecx], eax
  00006	c3		 ret	 0
?_M_incr@_List_iterator_base@_STL@@QAEXXZ ENDP		; _STL::_List_iterator_base::_M_incr
_TEXT	ENDS
PUBLIC	??9_List_iterator_base@_STL@@QBE_NABU01@@Z	; _STL::_List_iterator_base::operator!=
; Function compile flags: /Ogsy
;	COMDAT ??9_List_iterator_base@_STL@@QBE_NABU01@@Z
_TEXT	SEGMENT
___y$ = 8						; size = 4
??9_List_iterator_base@_STL@@QBE_NABU01@@Z PROC NEAR	; _STL::_List_iterator_base::operator!=, COMDAT
; _this$ = ecx

; 104  :     return _M_node != __y._M_node; 

  00000	8b 01		 mov	 eax, DWORD PTR [ecx]
  00002	8b 54 24 04	 mov	 edx, DWORD PTR ___y$[esp-4]
  00006	33 c9		 xor	 ecx, ecx
  00008	3b 02		 cmp	 eax, DWORD PTR [edx]
  0000a	0f 95 c1	 setne	 cl
  0000d	8a c1		 mov	 al, cl

; 105  :   }

  0000f	c2 04 00	 ret	 4
??9_List_iterator_base@_STL@@QBE_NABU01@@Z ENDP		; _STL::_List_iterator_base::operator!=
_TEXT	ENDS
PUBLIC	??0?$allocator@D@_STL@@QAE@XZ			; _STL::allocator<char>::allocator<char>
; Function compile flags: /Ogsy
; File c:\stlport-4.6.1\stlport\stl\_alloc.h
;	COMDAT ??0?$allocator@D@_STL@@QAE@XZ
_TEXT	SEGMENT
??0?$allocator@D@_STL@@QAE@XZ PROC NEAR			; _STL::allocator<char>::allocator<char>, COMDAT
; _this$ = ecx

; 345  :   allocator() _STLP_NOTHROW {}

  00000	8b c1		 mov	 eax, ecx
  00002	c3		 ret	 0
??0?$allocator@D@_STL@@QAE@XZ ENDP			; _STL::allocator<char>::allocator<char>
_TEXT	ENDS
PUBLIC	??1?$allocator@D@_STL@@QAE@XZ			; _STL::allocator<char>::~allocator<char>
; Function compile flags: /Ogsy
;	COMDAT ??1?$allocator@D@_STL@@QAE@XZ
_TEXT	SEGMENT
??1?$allocator@D@_STL@@QAE@XZ PROC NEAR			; _STL::allocator<char>::~allocator<char>, COMDAT
; _this$ = ecx

; 350  :   ~allocator() _STLP_NOTHROW {}

  00000	c3		 ret	 0
??1?$allocator@D@_STL@@QAE@XZ ENDP			; _STL::allocator<char>::~allocator<char>
_TEXT	ENDS
PUBLIC	??0?$allocator@V?$basic_string@DV?$char_traits@D@_STL@@V?$allocator@D@2@@_STL@@@_STL@@QAE@XZ ; _STL::allocator<_STL::basic_string<char,_STL::char_traits<char>,_STL::allocator<char> > >::allocator<_STL::basic_string<char,_STL::char_traits<char>,_STL::allocator<char> > >
; Function compile flags: /Ogsy
;	COMDAT ??0?$allocator@V?$basic_string@DV?$char_traits@D@_STL@@V?$allocator@D@2@@_STL@@@_STL@@QAE@XZ
_TEXT	SEGMENT
??0?$allocator@V?$basic_string@DV?$char_traits@D@_STL@@V?$allocator@D@2@@_STL@@@_STL@@QAE@XZ PROC NEAR ; _STL::allocator<_STL::basic_string<char,_STL::char_traits<char>,_STL::allocator<char> > >::allocator<_STL::basic_string<char,_STL::char_traits<char>,_STL::allocator<char> > >, COMDAT
; _this$ = ecx

; 345  :   allocator() _STLP_NOTHROW {}

  00000	8b c1		 mov	 eax, ecx
  00002	c3		 ret	 0
??0?$allocator@V?$basic_string@DV?$char_traits@D@_STL@@V?$allocator@D@2@@_STL@@@_STL@@QAE@XZ ENDP ; _STL::allocator<_STL::basic_string<char,_STL::char_traits<char>,_STL::allocator<char> > >::allocator<_STL::basic_string<char,_STL::char_traits<char>,_STL::allocator<char> > >
_TEXT	ENDS
PUBLIC	??1?$allocator@V?$basic_string@DV?$char_traits@D@_STL@@V?$allocator@D@2@@_STL@@@_STL@@QAE@XZ ; _STL::allocator<_STL::basic_string<char,_STL::char_traits<char>,_STL::allocator<char> > >::~allocator<_STL::basic_string<char,_STL::char_traits<char>,_STL::allocator<char> > >
; Function compile flags: /Ogsy
;	COMDAT ??1?$allocator@V?$basic_string@DV?$char_traits@D@_STL@@V?$allocator@D@2@@_STL@@@_STL@@QAE@XZ
_TEXT	SEGMENT
??1?$allocator@V?$basic_string@DV?$char_traits@D@_STL@@V?$allocator@D@2@@_STL@@@_STL@@QAE@XZ PROC NEAR ; _STL::allocator<_STL::basic_string<char,_STL::char_traits<char>,_STL::allocator<char> > >::~allocator<_STL::basic_string<char,_STL::char_traits<char>,_STL::allocator<char> > >, COMDAT
; _this$ = ecx

; 350  :   ~allocator() _STLP_NOTHROW {}

  00000	c3		 ret	 0
??1?$allocator@V?$basic_string@DV?$char_traits@D@_STL@@V?$allocator@D@2@@_STL@@@_STL@@QAE@XZ ENDP ; _STL::allocator<_STL::basic_string<char,_STL::char_traits<char>,_STL::allocator<char> > >::~allocator<_STL::basic_string<char,_STL::char_traits<char>,_STL::allocator<char> > >
_TEXT	ENDS
PUBLIC	??D?$_List_iterator@V?$basic_string@DV?$char_traits@D@_STL@@V?$allocator@D@2@@_STL@@U?$_Const_traits@V?$basic_string@DV?$char_traits@D@_STL@@V?$allocator@D@2@@_STL@@@2@@_STL@@QBEABV?$basic_string@DV?$char_traits@D@_STL@@V?$allocator@D@2@@1@XZ ; _STL::_List_iterator<_STL::basic_string<char,_STL::char_traits<char>,_STL::allocator<char> >,_STL::_Const_traits<_STL::basic_string<char,_STL::char_traits<char>,_STL::allocator<char> > > >::operator*
; Function compile flags: /Ogsy
; File c:\stlport-4.6.1\stlport\stl\_list.h
;	COMDAT ??D?$_List_iterator@V?$basic_string@DV?$char_traits@D@_STL@@V?$allocator@D@2@@_STL@@U?$_Const_traits@V?$basic_string@DV?$char_traits@D@_STL@@V?$allocator@D@2@@_STL@@@2@@_STL@@QBEABV?$basic_string@DV?$char_traits@D@_STL@@V?$allocator@D@2@@1@XZ
_TEXT	SEGMENT
??D?$_List_iterator@V?$basic_string@DV?$char_traits@D@_STL@@V?$allocator@D@2@@_STL@@U?$_Const_traits@V?$basic_string@DV?$char_traits@D@_STL@@V?$allocator@D@2@@_STL@@@2@@_STL@@QBEABV?$basic_string@DV?$char_traits@D@_STL@@V?$allocator@D@2@@1@XZ PROC NEAR ; _STL::_List_iterator<_STL::basic_string<char,_STL::char_traits<char>,_STL::allocator<char> >,_STL::_Const_traits<_STL::basic_string<char,_STL::char_traits<char>,_STL::allocator<char> > > >::operator*, COMDAT
; _this$ = ecx

; 130  :   reference operator*() const { return ((_Node*)_M_node)->_M_data; }

  00000	8b 01		 mov	 eax, DWORD PTR [ecx]
  00002	83 c0 08	 add	 eax, 8
  00005	c3		 ret	 0
??D?$_List_iterator@V?$basic_string@DV?$char_traits@D@_STL@@V?$allocator@D@2@@_STL@@U?$_Const_traits@V?$basic_string@DV?$char_traits@D@_STL@@V?$allocator@D@2@@_STL@@@2@@_STL@@QBEABV?$basic_string@DV?$char_traits@D@_STL@@V?$allocator@D@2@@1@XZ ENDP ; _STL::_List_iterator<_STL::basic_string<char,_STL::char_traits<char>,_STL::allocator<char> >,_STL::_Const_traits<_STL::basic_string<char,_STL::char_traits<char>,_STL::allocator<char> > > >::operator*
_TEXT	ENDS
PUBLIC	??0?$_List_iterator@V?$basic_string@DV?$char_traits@D@_STL@@V?$allocator@D@2@@_STL@@U?$_Const_traits@V?$basic_string@DV?$char_traits@D@_STL@@V?$allocator@D@2@@_STL@@@2@@_STL@@QAE@PAU?$_List_node@V?$basic_string@DV?$char_traits@D@_STL@@V?$allocator@D@2@@_STL@@@1@@Z ; _STL::_List_iterator<_STL::basic_string<char,_STL::char_traits<char>,_STL::allocator<char> >,_STL::_Const_traits<_STL::basic_string<char,_STL::char_traits<char>,_STL::allocator<char> > > >::_List_iterator<_STL::basic_string<char,_STL::char_traits<char>,_STL::allocator<char> >,_STL::_Const_traits<_STL::basic_string<char,_STL::char_traits<char>,_STL::allocator<char> > > >
; Function compile flags: /Ogsy
;	COMDAT ??0?$_List_iterator@V?$basic_string@DV?$char_traits@D@_STL@@V?$allocator@D@2@@_STL@@U?$_Const_traits@V?$basic_string@DV?$char_traits@D@_STL@@V?$allocator@D@2@@_STL@@@2@@_STL@@QAE@PAU?$_List_node@V?$basic_string@DV?$char_traits@D@_STL@@V?$allocator@D@2@@_STL@@@1@@Z
_TEXT	SEGMENT
___x$ = 8						; size = 4
??0?$_List_iterator@V?$basic_string@DV?$char_traits@D@_STL@@V?$allocator@D@2@@_STL@@U?$_Const_traits@V?$basic_string@DV?$char_traits@D@_STL@@V?$allocator@D@2@@_STL@@@2@@_STL@@QAE@PAU?$_List_node@V?$basic_string@DV?$char_traits@D@_STL@@V?$allocator@D@2@@_STL@@@1@@Z PROC NEAR ; _STL::_List_iterator<_STL::basic_string<char,_STL::char_traits<char>,_STL::allocator<char> >,_STL::_Const_traits<_STL::basic_string<char,_STL::char_traits<char>,_STL::allocator<char> > > >::_List_iterator<_STL::basic_string<char,_STL::char_traits<char>,_STL::allocator<char> >,_STL::_Const_traits<_STL::basic_string<char,_STL::char_traits<char>,_STL::allocator<char> > > >, COMDAT
; _this$ = ecx

; 126  :   _List_iterator(_Node* __x) : _List_iterator_base(__x) {}

  00000	8b c1		 mov	 eax, ecx
  00002	8b 4c 24 04	 mov	 ecx, DWORD PTR ___x$[esp-4]
  00006	89 08		 mov	 DWORD PTR [eax], ecx
  00008	c2 04 00	 ret	 4
??0?$_List_iterator@V?$basic_string@DV?$char_traits@D@_STL@@V?$allocator@D@2@@_STL@@U?$_Const_traits@V?$basic_string@DV?$char_traits@D@_STL@@V?$allocator@D@2@@_STL@@@2@@_STL@@QAE@PAU?$_List_node@V?$basic_string@DV?$char_traits@D@_STL@@V?$allocator@D@2@@_STL@@@1@@Z ENDP ; _STL::_List_iterator<_STL::basic_string<char,_STL::char_traits<char>,_STL::allocator<char> >,_STL::_Const_traits<_STL::basic_string<char,_STL::char_traits<char>,_STL::allocator<char> > > >::_List_iterator<_STL::basic_string<char,_STL::char_traits<char>,_STL::allocator<char> >,_STL::_Const_traits<_STL::basic_string<char,_STL::char_traits<char>,_STL::allocator<char> > > >
_TEXT	ENDS
PUBLIC	??1?$_STLP_alloc_proxy@PADDV?$allocator@D@_STL@@@_STL@@QAE@XZ ; _STL::_STLP_alloc_proxy<char *,char,_STL::allocator<char> >::~_STLP_alloc_proxy<char *,char,_STL::allocator<char> >
; Function compile flags: /Ogsy
;	COMDAT ??1?$_STLP_alloc_proxy@PADDV?$allocator@D@_STL@@@_STL@@QAE@XZ
_TEXT	SEGMENT
??1?$_STLP_alloc_proxy@PADDV?$allocator@D@_STL@@@_STL@@QAE@XZ PROC NEAR ; _STL::_STLP_alloc_proxy<char *,char,_STL::allocator<char> >::~_STLP_alloc_proxy<char *,char,_STL::allocator<char> >, COMDAT
; _this$ = ecx
  00000	c3		 ret	 0
??1?$_STLP_alloc_proxy@PADDV?$allocator@D@_STL@@@_STL@@QAE@XZ ENDP ; _STL::_STLP_alloc_proxy<char *,char,_STL::allocator<char> >::~_STLP_alloc_proxy<char *,char,_STL::allocator<char> >
_TEXT	ENDS
PUBLIC	??1?$allocator@U?$_List_node@V?$basic_string@DV?$char_traits@D@_STL@@V?$allocator@D@2@@_STL@@@_STL@@@_STL@@QAE@XZ ; _STL::allocator<_STL::_List_node<_STL::basic_string<char,_STL::char_traits<char>,_STL::allocator<char> > > >::~allocator<_STL::_List_node<_STL::basic_string<char,_STL::char_traits<char>,_STL::allocator<char> > > >
; Function compile flags: /Ogsy
; File c:\stlport-4.6.1\stlport\stl\_alloc.h
;	COMDAT ??1?$allocator@U?$_List_node@V?$basic_string@DV?$char_traits@D@_STL@@V?$allocator@D@2@@_STL@@@_STL@@@_STL@@QAE@XZ
_TEXT	SEGMENT
??1?$allocator@U?$_List_node@V?$basic_string@DV?$char_traits@D@_STL@@V?$allocator@D@2@@_STL@@@_STL@@@_STL@@QAE@XZ PROC NEAR ; _STL::allocator<_STL::_List_node<_STL::basic_string<char,_STL::char_traits<char>,_STL::allocator<char> > > >::~allocator<_STL::_List_node<_STL::basic_string<char,_STL::char_traits<char>,_STL::allocator<char> > > >, COMDAT
; _this$ = ecx

; 350  :   ~allocator() _STLP_NOTHROW {}

  00000	c3		 ret	 0
??1?$allocator@U?$_List_node@V?$basic_string@DV?$char_traits@D@_STL@@V?$allocator@D@2@@_STL@@@_STL@@@_STL@@QAE@XZ ENDP ; _STL::allocator<_STL::_List_node<_STL::basic_string<char,_STL::char_traits<char>,_STL::allocator<char> > > >::~allocator<_STL::_List_node<_STL::basic_string<char,_STL::char_traits<char>,_STL::allocator<char> > > >
_TEXT	ENDS
PUBLIC	??0?$_List_iterator@V?$basic_string@DV?$char_traits@D@_STL@@V?$allocator@D@2@@_STL@@U?$_Nonconst_traits@V?$basic_string@DV?$char_traits@D@_STL@@V?$allocator@D@2@@_STL@@@2@@_STL@@QAE@PAU?$_List_node@V?$basic_string@DV?$char_traits@D@_STL@@V?$allocator@D@2@@_STL@@@1@@Z ; _STL::_List_iterator<_STL::basic_string<char,_STL::char_traits<char>,_STL::allocator<char> >,_STL::_Nonconst_traits<_STL::basic_string<char,_STL::char_traits<char>,_STL::allocator<char> > > >::_List_iterator<_STL::basic_string<char,_STL::char_traits<char>,_STL::allocator<char> >,_STL::_Nonconst_traits<_STL::basic_string<char,_STL::char_traits<char>,_STL::allocator<char> > > >
; Function compile flags: /Ogsy
; File c:\stlport-4.6.1\stlport\stl\_list.h
;	COMDAT ??0?$_List_iterator@V?$basic_string@DV?$char_traits@D@_STL@@V?$allocator@D@2@@_STL@@U?$_Nonconst_traits@V?$basic_string@DV?$char_traits@D@_STL@@V?$allocator@D@2@@_STL@@@2@@_STL@@QAE@PAU?$_List_node@V?$basic_string@DV?$char_traits@D@_STL@@V?$allocator@D@2@@_STL@@@1@@Z
_TEXT	SEGMENT
___x$ = 8						; size = 4
??0?$_List_iterator@V?$basic_string@DV?$char_traits@D@_STL@@V?$allocator@D@2@@_STL@@U?$_Nonconst_traits@V?$basic_string@DV?$char_traits@D@_STL@@V?$allocator@D@2@@_STL@@@2@@_STL@@QAE@PAU?$_List_node@V?$basic_string@DV?$char_traits@D@_STL@@V?$allocator@D@2@@_STL@@@1@@Z PROC NEAR ; _STL::_List_iterator<_STL::basic_string<char,_STL::char_traits<char>,_STL::allocator<char> >,_STL::_Nonconst_traits<_STL::basic_string<char,_STL::char_traits<char>,_STL::allocator<char> > > >::_List_iterator<_STL::basic_string<char,_STL::char_traits<char>,_STL::allocator<char> >,_STL::_Nonconst_traits<_STL::basic_string<char,_STL::char_traits<char>,_STL::allocator<char> > > >, COMDAT
; _this$ = ecx

; 126  :   _List_iterator(_Node* __x) : _List_iterator_base(__x) {}

  00000	8b c1		 mov	 eax, ecx
  00002	8b 4c 24 04	 mov	 ecx, DWORD PTR ___x$[esp-4]
  00006	89 08		 mov	 DWORD PTR [eax], ecx
  00008	c2 04 00	 ret	 4
??0?$_List_iterator@V?$basic_string@DV?$char_traits@D@_STL@@V?$allocator@D@2@@_STL@@U?$_Nonconst_traits@V?$basic_string@DV?$char_traits@D@_STL@@V?$allocator@D@2@@_STL@@@2@@_STL@@QAE@PAU?$_List_node@V?$basic_string@DV?$char_traits@D@_STL@@V?$allocator@D@2@@_STL@@@1@@Z ENDP ; _STL::_List_iterator<_STL::basic_string<char,_STL::char_traits<char>,_STL::allocator<char> >,_STL::_Nonconst_traits<_STL::basic_string<char,_STL::char_traits<char>,_STL::allocator<char> > > >::_List_iterator<_STL::basic_string<char,_STL::char_traits<char>,_STL::allocator<char> >,_STL::_Nonconst_traits<_STL::basic_string<char,_STL::char_traits<char>,_STL::allocator<char> > > >
_TEXT	ENDS
PUBLIC	??0?$allocator@U?$_List_node@V?$basic_string@DV?$char_traits@D@_STL@@V?$allocator@D@2@@_STL@@@_STL@@@_STL@@QAE@ABV01@@Z ; _STL::allocator<_STL::_List_node<_STL::basic_string<char,_STL::char_traits<char>,_STL::allocator<char> > > >::allocator<_STL::_List_node<_STL::basic_string<char,_STL::char_traits<char>,_STL::allocator<char> > > >
; Function compile flags: /Ogsy
; File c:\stlport-4.6.1\stlport\stl\_alloc.h
;	COMDAT ??0?$allocator@U?$_List_node@V?$basic_string@DV?$char_traits@D@_STL@@V?$allocator@D@2@@_STL@@@_STL@@@_STL@@QAE@ABV01@@Z
_TEXT	SEGMENT
___formal$ = 8						; size = 4
??0?$allocator@U?$_List_node@V?$basic_string@DV?$char_traits@D@_STL@@V?$allocator@D@2@@_STL@@@_STL@@@_STL@@QAE@ABV01@@Z PROC NEAR ; _STL::allocator<_STL::_List_node<_STL::basic_string<char,_STL::char_traits<char>,_STL::allocator<char> > > >::allocator<_STL::_List_node<_STL::basic_string<char,_STL::char_traits<char>,_STL::allocator<char> > > >, COMDAT
; _this$ = ecx

; 349  :   allocator(const allocator<_Tp>&) _STLP_NOTHROW {}

  00000	8b c1		 mov	 eax, ecx
  00002	c2 04 00	 ret	 4
??0?$allocator@U?$_List_node@V?$basic_string@DV?$char_traits@D@_STL@@V?$allocator@D@2@@_STL@@@_STL@@@_STL@@QAE@ABV01@@Z ENDP ; _STL::allocator<_STL::_List_node<_STL::basic_string<char,_STL::char_traits<char>,_STL::allocator<char> > > >::allocator<_STL::_List_node<_STL::basic_string<char,_STL::char_traits<char>,_STL::allocator<char> > > >
_TEXT	ENDS
PUBLIC	?allocate@?$__node_alloc@$00$0A@@_STL@@SAPAXI@Z	; _STL::__node_alloc<1,0>::allocate
EXTRN	?_M_allocate@?$__node_alloc@$00$0A@@_STL@@CAPAXI@Z:NEAR ; _STL::__node_alloc<1,0>::_M_allocate
; Function compile flags: /Ogsy
;	COMDAT ?allocate@?$__node_alloc@$00$0A@@_STL@@SAPAXI@Z
_TEXT	SEGMENT
___n$ = 8						; size = 4
?allocate@?$__node_alloc@$00$0A@@_STL@@SAPAXI@Z PROC NEAR ; _STL::__node_alloc<1,0>::allocate, COMDAT

; 251  :   static void * _STLP_CALL allocate(size_t __n) { return (__n > (size_t)_MAX_BYTES) ?  __stl_new(__n) : _M_allocate(__n); }

  00000	8b 44 24 04	 mov	 eax, DWORD PTR ___n$[esp-4]
  00004	3d 80 00 00 00	 cmp	 eax, 128		; 00000080H
  00009	50		 push	 eax
  0000a	76 07		 jbe	 SHORT $L101297
  0000c	e8 00 00 00 00	 call	 ??2@YAPAXI@Z		; operator new
  00011	59		 pop	 ecx
  00012	c3		 ret	 0
$L101297:
  00013	e8 00 00 00 00	 call	 ?_M_allocate@?$__node_alloc@$00$0A@@_STL@@CAPAXI@Z ; _STL::__node_alloc<1,0>::_M_allocate
  00018	59		 pop	 ecx
  00019	c3		 ret	 0
?allocate@?$__node_alloc@$00$0A@@_STL@@SAPAXI@Z ENDP	; _STL::__node_alloc<1,0>::allocate
_TEXT	ENDS
PUBLIC	?deallocate@?$__node_alloc@$00$0A@@_STL@@SAXPAXI@Z ; _STL::__node_alloc<1,0>::deallocate
EXTRN	?_M_deallocate@?$__node_alloc@$00$0A@@_STL@@CAXPAXI@Z:NEAR ; _STL::__node_alloc<1,0>::_M_deallocate
; Function compile flags: /Ogsy
;	COMDAT ?deallocate@?$__node_alloc@$00$0A@@_STL@@SAXPAXI@Z
_TEXT	SEGMENT
___p$ = 8						; size = 4
___n$ = 12						; size = 4
?deallocate@?$__node_alloc@$00$0A@@_STL@@SAXPAXI@Z PROC NEAR ; _STL::__node_alloc<1,0>::deallocate, COMDAT

; 253  :   static void _STLP_CALL deallocate(void *__p, size_t __n) { if (__n > (size_t)_MAX_BYTES) __stl_delete(__p); else _M_deallocate(__p, __n); }

  00000	81 7c 24 08 80
	00 00 00	 cmp	 DWORD PTR ___n$[esp-4], 128 ; 00000080H
  00008	76 0b		 jbe	 SHORT $L98677
  0000a	ff 74 24 04	 push	 DWORD PTR ___p$[esp-4]
  0000e	e8 00 00 00 00	 call	 ??3@YAXPAX@Z		; operator delete
  00013	59		 pop	 ecx
  00014	c3		 ret	 0
$L98677:
  00015	e9 00 00 00 00	 jmp	 ?_M_deallocate@?$__node_alloc@$00$0A@@_STL@@CAXPAXI@Z ; _STL::__node_alloc<1,0>::_M_deallocate
?deallocate@?$__node_alloc@$00$0A@@_STL@@SAXPAXI@Z ENDP	; _STL::__node_alloc<1,0>::deallocate
_TEXT	ENDS
PUBLIC	??$?0V?$basic_string@DV?$char_traits@D@_STL@@V?$allocator@D@2@@_STL@@@?$allocator@U?$_List_node@V?$basic_string@DV?$char_traits@D@_STL@@V?$allocator@D@2@@_STL@@@_STL@@@_STL@@QAE@ABV?$allocator@V?$basic_string@DV?$char_traits@D@_STL@@V?$allocator@D@2@@_STL@@@1@@Z ; _STL::allocator<_STL::_List_node<_STL::basic_string<char,_STL::char_traits<char>,_STL::allocator<char> > > >::allocator<_STL::_List_node<_STL::basic_string<char,_STL::char_traits<char>,_STL::allocator<char> > > ><_STL::basic_string<char,_STL::char_traits<char>,_STL::allocator<char> > >
; Function compile flags: /Ogsy
;	COMDAT ??$?0V?$basic_string@DV?$char_traits@D@_STL@@V?$allocator@D@2@@_STL@@@?$allocator@U?$_List_node@V?$basic_string@DV?$char_traits@D@_STL@@V?$allocator@D@2@@_STL@@@_STL@@@_STL@@QAE@ABV?$allocator@V?$basic_string@DV?$char_traits@D@_STL@@V?$allocator@D@2@@_STL@@@1@@Z
_TEXT	SEGMENT
___formal$ = 8						; size = 4
??$?0V?$basic_string@DV?$char_traits@D@_STL@@V?$allocator@D@2@@_STL@@@?$allocator@U?$_List_node@V?$basic_string@DV?$char_traits@D@_STL@@V?$allocator@D@2@@_STL@@@_STL@@@_STL@@QAE@ABV?$allocator@V?$basic_string@DV?$char_traits@D@_STL@@V?$allocator@D@2@@_STL@@@1@@Z PROC NEAR ; _STL::allocator<_STL::_List_node<_STL::basic_string<char,_STL::char_traits<char>,_STL::allocator<char> > > >::allocator<_STL::_List_node<_STL::basic_string<char,_STL::char_traits<char>,_STL::allocator<char> > > ><_STL::basic_string<char,_STL::char_traits<char>,_STL::allocator<char> > >, COMDAT
; _this$ = ecx

; 347  :   template <class _Tp1> allocator(const allocator<_Tp1>&) _STLP_NOTHROW {}

  00000	8b c1		 mov	 eax, ecx
  00002	c2 04 00	 ret	 4
??$?0V?$basic_string@DV?$char_traits@D@_STL@@V?$allocator@D@2@@_STL@@@?$allocator@U?$_List_node@V?$basic_string@DV?$char_traits@D@_STL@@V?$allocator@D@2@@_STL@@@_STL@@@_STL@@QAE@ABV?$allocator@V?$basic_string@DV?$char_traits@D@_STL@@V?$allocator@D@2@@_STL@@@1@@Z ENDP ; _STL::allocator<_STL::_List_node<_STL::basic_string<char,_STL::char_traits<char>,_STL::allocator<char> > > >::allocator<_STL::_List_node<_STL::basic_string<char,_STL::char_traits<char>,_STL::allocator<char> > > ><_STL::basic_string<char,_STL::char_traits<char>,_STL::allocator<char> > >
_TEXT	ENDS
PUBLIC	?write@SocketOutputStream@@QAEIABV?$basic_string@DV?$char_traits@D@_STL@@V?$allocator@D@2@@_STL@@@Z ; SocketOutputStream::write
; Function compile flags: /Ogsy
; File c:\darkeden\designed_common\project\client\packet\socketoutputstream.h
;	COMDAT ?write@SocketOutputStream@@QAEIABV?$basic_string@DV?$char_traits@D@_STL@@V?$allocator@D@2@@_STL@@@Z
_TEXT	SEGMENT
_buf$ = 8						; size = 4
?write@SocketOutputStream@@QAEIABV?$basic_string@DV?$char_traits@D@_STL@@V?$allocator@D@2@@_STL@@@Z PROC NEAR ; SocketOutputStream::write, COMDAT
; _this$ = ecx

; 57   : 	uint write ( const std::string & buf ) throw ( Error ) { return write(buf.c_str(),buf.size()); }

  00000	8b 44 24 04	 mov	 eax, DWORD PTR _buf$[esp-4]
  00004	8b 10		 mov	 edx, DWORD PTR [eax]
  00006	8b 40 04	 mov	 eax, DWORD PTR [eax+4]
  00009	2b c2		 sub	 eax, edx
  0000b	50		 push	 eax
  0000c	52		 push	 edx
  0000d	e8 00 00 00 00	 call	 ?write@SocketOutputStream@@QAEIPBDI@Z ; SocketOutputStream::write
  00012	c2 04 00	 ret	 4
?write@SocketOutputStream@@QAEIABV?$basic_string@DV?$char_traits@D@_STL@@V?$allocator@D@2@@_STL@@@Z ENDP ; SocketOutputStream::write
_TEXT	ENDS
PUBLIC	?get_allocator@?$basic_string@DV?$char_traits@D@_STL@@V?$allocator@D@2@@_STL@@QBE?AV?$allocator@D@2@XZ ; _STL::basic_string<char,_STL::char_traits<char>,_STL::allocator<char> >::get_allocator
; Function compile flags: /Ogsy
; File c:\stlport-4.6.1\stlport\stl\_string.h
;	COMDAT ?get_allocator@?$basic_string@DV?$char_traits@D@_STL@@V?$allocator@D@2@@_STL@@QBE?AV?$allocator@D@2@XZ
_TEXT	SEGMENT
___$ReturnUdt$ = 8					; size = 4
?get_allocator@?$basic_string@DV?$char_traits@D@_STL@@V?$allocator@D@2@@_STL@@QBE?AV?$allocator@D@2@XZ PROC NEAR ; _STL::basic_string<char,_STL::char_traits<char>,_STL::allocator<char> >::get_allocator, COMDAT
; _this$ = ecx

; 216  :     return _STLP_CONVERT_ALLOCATOR((const allocator_type&)this->_M_end_of_storage, _CharT);

  00000	8b 44 24 04	 mov	 eax, DWORD PTR ___$ReturnUdt$[esp-4]

; 217  :   }

  00004	c2 04 00	 ret	 4
?get_allocator@?$basic_string@DV?$char_traits@D@_STL@@V?$allocator@D@2@@_STL@@QBE?AV?$allocator@D@2@XZ ENDP ; _STL::basic_string<char,_STL::char_traits<char>,_STL::allocator<char> >::get_allocator
_TEXT	ENDS
PUBLIC	?_M_terminate_string@?$basic_string@DV?$char_traits@D@_STL@@V?$allocator@D@2@@_STL@@AAEXXZ ; _STL::basic_string<char,_STL::char_traits<char>,_STL::allocator<char> >::_M_terminate_string
; Function compile flags: /Ogsy
;	COMDAT ?_M_terminate_string@?$basic_string@DV?$char_traits@D@_STL@@V?$allocator@D@2@@_STL@@AAEXXZ
_TEXT	SEGMENT
?_M_terminate_string@?$basic_string@DV?$char_traits@D@_STL@@V?$allocator@D@2@@_STL@@AAEXXZ PROC NEAR ; _STL::basic_string<char,_STL::char_traits<char>,_STL::allocator<char> >::_M_terminate_string, COMDAT
; _this$ = ecx

; 355  :     _M_terminate_string_aux(_Char_Is_Integral());

  00000	8b 41 04	 mov	 eax, DWORD PTR [ecx+4]
  00003	c6 00 00	 mov	 BYTE PTR [eax], 0

; 356  :   }

  00006	c3		 ret	 0
?_M_terminate_string@?$basic_string@DV?$char_traits@D@_STL@@V?$allocator@D@2@@_STL@@AAEXXZ ENDP ; _STL::basic_string<char,_STL::char_traits<char>,_STL::allocator<char> >::_M_terminate_string
_TEXT	ENDS
PUBLIC	?allocate@?$allocator@D@_STL@@QAEPADIPBX@Z	; _STL::allocator<char>::allocate
; Function compile flags: /Ogsy
; File c:\stlport-4.6.1\stlport\stl\_alloc.h
;	COMDAT ?allocate@?$allocator@D@_STL@@QAEPADIPBX@Z
_TEXT	SEGMENT
___n$ = 8						; size = 4
___formal$ = 12						; size = 4
?allocate@?$allocator@D@_STL@@QAEPADIPBX@Z PROC NEAR	; _STL::allocator<char>::allocate, COMDAT
; _this$ = ecx

; 355  :     return __n != 0 ? __REINTERPRET_CAST(value_type*,__sgi_alloc::allocate(__n * sizeof(value_type))) : 0;

  00000	33 c0		 xor	 eax, eax
  00002	39 44 24 04	 cmp	 DWORD PTR ___n$[esp-4], eax
  00006	74 0a		 je	 SHORT $L101336
  00008	ff 74 24 04	 push	 DWORD PTR ___n$[esp-4]
  0000c	e8 00 00 00 00	 call	 ?allocate@?$__node_alloc@$00$0A@@_STL@@SAPAXI@Z ; _STL::__node_alloc<1,0>::allocate
  00011	59		 pop	 ecx
$L101336:

; 356  :   }

  00012	c2 08 00	 ret	 8
?allocate@?$allocator@D@_STL@@QAEPADIPBX@Z ENDP		; _STL::allocator<char>::allocate
_TEXT	ENDS
PUBLIC	??0?$_STLP_alloc_proxy@PADDV?$allocator@D@_STL@@@_STL@@QAE@ABV?$allocator@D@1@PAD@Z ; _STL::_STLP_alloc_proxy<char *,char,_STL::allocator<char> >::_STLP_alloc_proxy<char *,char,_STL::allocator<char> >
; Function compile flags: /Ogsy
;	COMDAT ??0?$_STLP_alloc_proxy@PADDV?$allocator@D@_STL@@@_STL@@QAE@ABV?$allocator@D@1@PAD@Z
_TEXT	SEGMENT
___a$ = 8						; size = 4
___p$ = 12						; size = 4
??0?$_STLP_alloc_proxy@PADDV?$allocator@D@_STL@@@_STL@@QAE@ABV?$allocator@D@1@PAD@Z PROC NEAR ; _STL::_STLP_alloc_proxy<char *,char,_STL::allocator<char> >::_STLP_alloc_proxy<char *,char,_STL::allocator<char> >, COMDAT
; _this$ = ecx

; 487  :   inline _STLP_alloc_proxy(const _MaybeReboundAlloc& __a, _Value __p) : _MaybeReboundAlloc(__a), _M_data(__p) {}

  00000	8b c1		 mov	 eax, ecx
  00002	8b 4c 24 08	 mov	 ecx, DWORD PTR ___p$[esp-4]
  00006	89 08		 mov	 DWORD PTR [eax], ecx
  00008	c2 08 00	 ret	 8
??0?$_STLP_alloc_proxy@PADDV?$allocator@D@_STL@@@_STL@@QAE@ABV?$allocator@D@1@PAD@Z ENDP ; _STL::_STLP_alloc_proxy<char *,char,_STL::allocator<char> >::_STLP_alloc_proxy<char *,char,_STL::allocator<char> >
_TEXT	ENDS
PUBLIC	?get_allocator@?$_List_base@V?$basic_string@DV?$char_traits@D@_STL@@V?$allocator@D@2@@_STL@@V?$allocator@V?$basic_string@DV?$char_traits@D@_STL@@V?$allocator@D@2@@_STL@@@2@@_STL@@QBE?AV?$allocator@V?$basic_string@DV?$char_traits@D@_STL@@V?$allocator@D@2@@_STL@@@2@XZ ; _STL::_List_base<_STL::basic_string<char,_STL::char_traits<char>,_STL::allocator<char> >,_STL::allocator<_STL::basic_string<char,_STL::char_traits<char>,_STL::allocator<char> > > >::get_allocator
; Function compile flags: /Ogsy
; File c:\stlport-4.6.1\stlport\stl\_list.h
;	COMDAT ?get_allocator@?$_List_base@V?$basic_string@DV?$char_traits@D@_STL@@V?$allocator@D@2@@_STL@@V?$allocator@V?$basic_string@DV?$char_traits@D@_STL@@V?$allocator@D@2@@_STL@@@2@@_STL@@QBE?AV?$allocator@V?$basic_string@DV?$char_traits@D@_STL@@V?$allocator@D@2@@_STL@@@2@XZ
_TEXT	SEGMENT
___$ReturnUdt$ = 8					; size = 4
?get_allocator@?$_List_base@V?$basic_string@DV?$char_traits@D@_STL@@V?$allocator@D@2@@_STL@@V?$allocator@V?$basic_string@DV?$char_traits@D@_STL@@V?$allocator@D@2@@_STL@@@2@@_STL@@QBE?AV?$allocator@V?$basic_string@DV?$char_traits@D@_STL@@V?$allocator@D@2@@_STL@@@2@XZ PROC NEAR ; _STL::_List_base<_STL::basic_string<char,_STL::char_traits<char>,_STL::allocator<char> >,_STL::allocator<_STL::basic_string<char,_STL::char_traits<char>,_STL::allocator<char> > > >::get_allocator, COMDAT
; _this$ = ecx

; 179  :     return _STLP_CONVERT_ALLOCATOR((const _Node_allocator_type&)_M_node, _Tp);

  00000	8b 44 24 04	 mov	 eax, DWORD PTR ___$ReturnUdt$[esp-4]

; 180  :   }

  00004	c2 04 00	 ret	 4
?get_allocator@?$_List_base@V?$basic_string@DV?$char_traits@D@_STL@@V?$allocator@D@2@@_STL@@V?$allocator@V?$basic_string@DV?$char_traits@D@_STL@@V?$allocator@D@2@@_STL@@@2@@_STL@@QBE?AV?$allocator@V?$basic_string@DV?$char_traits@D@_STL@@V?$allocator@D@2@@_STL@@@2@XZ ENDP ; _STL::_List_base<_STL::basic_string<char,_STL::char_traits<char>,_STL::allocator<char> >,_STL::allocator<_STL::basic_string<char,_STL::char_traits<char>,_STL::allocator<char> > > >::get_allocator
_TEXT	ENDS
PUBLIC	??0?$_List_iterator@V?$basic_string@DV?$char_traits@D@_STL@@V?$allocator@D@2@@_STL@@U?$_Nonconst_traits@V?$basic_string@DV?$char_traits@D@_STL@@V?$allocator@D@2@@_STL@@@2@@_STL@@QAE@ABU01@@Z ; _STL::_List_iterator<_STL::basic_string<char,_STL::char_traits<char>,_STL::allocator<char> >,_STL::_Nonconst_traits<_STL::basic_string<char,_STL::char_traits<char>,_STL::allocator<char> > > >::_List_iterator<_STL::basic_string<char,_STL::char_traits<char>,_STL::allocator<char> >,_STL::_Nonconst_traits<_STL::basic_string<char,_STL::char_traits<char>,_STL::allocator<char> > > >
; Function compile flags: /Ogsy
;	COMDAT ??0?$_List_iterator@V?$basic_string@DV?$char_traits@D@_STL@@V?$allocator@D@2@@_STL@@U?$_Nonconst_traits@V?$basic_string@DV?$char_traits@D@_STL@@V?$allocator@D@2@@_STL@@@2@@_STL@@QAE@ABU01@@Z
_TEXT	SEGMENT
___x$ = 8						; size = 4
??0?$_List_iterator@V?$basic_string@DV?$char_traits@D@_STL@@V?$allocator@D@2@@_STL@@U?$_Nonconst_traits@V?$basic_string@DV?$char_traits@D@_STL@@V?$allocator@D@2@@_STL@@@2@@_STL@@QAE@ABU01@@Z PROC NEAR ; _STL::_List_iterator<_STL::basic_string<char,_STL::char_traits<char>,_STL::allocator<char> >,_STL::_Nonconst_traits<_STL::basic_string<char,_STL::char_traits<char>,_STL::allocator<char> > > >::_List_iterator<_STL::basic_string<char,_STL::char_traits<char>,_STL::allocator<char> >,_STL::_Nonconst_traits<_STL::basic_string<char,_STL::char_traits<char>,_STL::allocator<char> > > >, COMDAT
; _this$ = ecx

; 128  :   _List_iterator(const iterator& __x) :  _List_iterator_base(__x._M_node) {}

  00000	8b c1		 mov	 eax, ecx
  00002	8b 4c 24 04	 mov	 ecx, DWORD PTR ___x$[esp-4]
  00006	8b 09		 mov	 ecx, DWORD PTR [ecx]
  00008	89 08		 mov	 DWORD PTR [eax], ecx
  0000a	c2 04 00	 ret	 4
??0?$_List_iterator@V?$basic_string@DV?$char_traits@D@_STL@@V?$allocator@D@2@@_STL@@U?$_Nonconst_traits@V?$basic_string@DV?$char_traits@D@_STL@@V?$allocator@D@2@@_STL@@@2@@_STL@@QAE@ABU01@@Z ENDP ; _STL::_List_iterator<_STL::basic_string<char,_STL::char_traits<char>,_STL::allocator<char> >,_STL::_Nonconst_traits<_STL::basic_string<char,_STL::char_traits<char>,_STL::allocator<char> > > >::_List_iterator<_STL::basic_string<char,_STL::char_traits<char>,_STL::allocator<char> >,_STL::_Nonconst_traits<_STL::basic_string<char,_STL::char_traits<char>,_STL::allocator<char> > > >
_TEXT	ENDS
PUBLIC	??E?$_List_iterator@V?$basic_string@DV?$char_traits@D@_STL@@V?$allocator@D@2@@_STL@@U?$_Const_traits@V?$basic_string@DV?$char_traits@D@_STL@@V?$allocator@D@2@@_STL@@@2@@_STL@@QAEAAU01@XZ ; _STL::_List_iterator<_STL::basic_string<char,_STL::char_traits<char>,_STL::allocator<char> >,_STL::_Const_traits<_STL::basic_string<char,_STL::char_traits<char>,_STL::allocator<char> > > >::operator++
; Function compile flags: /Ogsy
;	COMDAT ??E?$_List_iterator@V?$basic_string@DV?$char_traits@D@_STL@@V?$allocator@D@2@@_STL@@U?$_Const_traits@V?$basic_string@DV?$char_traits@D@_STL@@V?$allocator@D@2@@_STL@@@2@@_STL@@QAEAAU01@XZ
_TEXT	SEGMENT
??E?$_List_iterator@V?$basic_string@DV?$char_traits@D@_STL@@V?$allocator@D@2@@_STL@@U?$_Const_traits@V?$basic_string@DV?$char_traits@D@_STL@@V?$allocator@D@2@@_STL@@@2@@_STL@@QAEAAU01@XZ PROC NEAR ; _STL::_List_iterator<_STL::basic_string<char,_STL::char_traits<char>,_STL::allocator<char> >,_STL::_Const_traits<_STL::basic_string<char,_STL::char_traits<char>,_STL::allocator<char> > > >::operator++, COMDAT
; _this$ = ecx

; 134  :   _Self& operator++() { 

  00000	8b c1		 mov	 eax, ecx

; 135  :     this->_M_incr();

  00002	8b 08		 mov	 ecx, DWORD PTR [eax]
  00004	8b 09		 mov	 ecx, DWORD PTR [ecx]
  00006	89 08		 mov	 DWORD PTR [eax], ecx

; 136  :     return *this;
; 137  :   }

  00008	c3		 ret	 0
??E?$_List_iterator@V?$basic_string@DV?$char_traits@D@_STL@@V?$allocator@D@2@@_STL@@U?$_Const_traits@V?$basic_string@DV?$char_traits@D@_STL@@V?$allocator@D@2@@_STL@@@2@@_STL@@QAEAAU01@XZ ENDP ; _STL::_List_iterator<_STL::basic_string<char,_STL::char_traits<char>,_STL::allocator<char> >,_STL::_Const_traits<_STL::basic_string<char,_STL::char_traits<char>,_STL::allocator<char> > > >::operator++
_TEXT	ENDS
PUBLIC	??$distance@PBD@_STL@@YAHABQBD0@Z		; _STL::distance<char const *>
; Function compile flags: /Ogsy
; File c:\stlport-4.6.1\stlport\stl\_iterator_base.h
;	COMDAT ??$distance@PBD@_STL@@YAHABQBD0@Z
_TEXT	SEGMENT
___first$ = 8						; size = 4
___last$ = 12						; size = 4
??$distance@PBD@_STL@@YAHABQBD0@Z PROC NEAR		; _STL::distance<char const *>, COMDAT

; 369  :   return __distance(__first, __last, _STLP_ITERATOR_CATEGORY(__first, _InputIterator));  

  00000	8b 44 24 08	 mov	 eax, DWORD PTR ___last$[esp-4]
  00004	8b 00		 mov	 eax, DWORD PTR [eax]
  00006	8b 4c 24 04	 mov	 ecx, DWORD PTR ___first$[esp-4]
  0000a	2b 01		 sub	 eax, DWORD PTR [ecx]

; 370  : }

  0000c	c3		 ret	 0
??$distance@PBD@_STL@@YAHABQBD0@Z ENDP			; _STL::distance<char const *>
_TEXT	ENDS
PUBLIC	?_M_allocate_block@?$_String_base@DV?$allocator@D@_STL@@@_STL@@QAEXI@Z ; _STL::_String_base<char,_STL::allocator<char> >::_M_allocate_block
; Function compile flags: /Ogsy
; File c:\stlport-4.6.1\stlport\stl\_string.c
;	COMDAT ?_M_allocate_block@?$_String_base@DV?$allocator@D@_STL@@@_STL@@QAEXI@Z
_TEXT	SEGMENT
___n$ = 8						; size = 4
?_M_allocate_block@?$_String_base@DV?$allocator@D@_STL@@@_STL@@QAEXI@Z PROC NEAR ; _STL::_String_base<char,_STL::allocator<char> >::_M_allocate_block, COMDAT
; _this$ = ecx

; 530  : template <class _Tp, class _Alloc> void _String_base<_Tp, _Alloc>::_M_allocate_block(size_t __n) {  

  00000	56		 push	 esi
  00001	57		 push	 edi

; 531  :   if ((__n <= (max_size()+1)) && (__n>0)){ 

  00002	8b 7c 24 0c	 mov	 edi, DWORD PTR ___n$[esp+4]
  00006	83 ff ff	 cmp	 edi, -1
  00009	8b f1		 mov	 esi, ecx
  0000b	77 17		 ja	 SHORT $L100664
  0000d	85 ff		 test	 edi, edi
  0000f	76 13		 jbe	 SHORT $L100664

; 532  :     _M_start  = _M_end_of_storage.allocate(__n); 

  00011	57		 push	 edi
  00012	e8 00 00 00 00	 call	 ?allocate@?$__node_alloc@$00$0A@@_STL@@SAPAXI@Z ; _STL::__node_alloc<1,0>::allocate
  00017	89 06		 mov	 DWORD PTR [esi], eax

; 533  :     _M_finish = _M_start; 

  00019	89 46 04	 mov	 DWORD PTR [esi+4], eax

; 534  :     _M_end_of_storage._M_data = _M_start + __n; 

  0001c	03 c7		 add	 eax, edi
  0001e	59		 pop	 ecx
  0001f	89 46 08	 mov	 DWORD PTR [esi+8], eax

; 535  :   } 
; 536  :     else 

  00022	eb 07		 jmp	 SHORT $L100665
$L100664:

; 537  :       _M_throw_length_error(); 

  00024	8b ce		 mov	 ecx, esi
  00026	e8 00 00 00 00	 call	 ?_M_throw_length_error@?$_String_base@DV?$allocator@D@_STL@@@_STL@@QBEXXZ ; _STL::_String_base<char,_STL::allocator<char> >::_M_throw_length_error
$L100665:
  0002b	5f		 pop	 edi
  0002c	5e		 pop	 esi

; 538  : } 

  0002d	c2 04 00	 ret	 4
?_M_allocate_block@?$_String_base@DV?$allocator@D@_STL@@@_STL@@QAEXI@Z ENDP ; _STL::_String_base<char,_STL::allocator<char> >::_M_allocate_block
_TEXT	ENDS
PUBLIC	??$distance@PAD@_STL@@YAHABQAD0@Z		; _STL::distance<char *>
; Function compile flags: /Ogsy
; File c:\stlport-4.6.1\stlport\stl\_iterator_base.h
;	COMDAT ??$distance@PAD@_STL@@YAHABQAD0@Z
_TEXT	SEGMENT
___first$ = 8						; size = 4
___last$ = 12						; size = 4
??$distance@PAD@_STL@@YAHABQAD0@Z PROC NEAR		; _STL::distance<char *>, COMDAT

; 369  :   return __distance(__first, __last, _STLP_ITERATOR_CATEGORY(__first, _InputIterator));  

  00000	8b 44 24 08	 mov	 eax, DWORD PTR ___last$[esp-4]
  00004	8b 00		 mov	 eax, DWORD PTR [eax]
  00006	8b 4c 24 04	 mov	 ecx, DWORD PTR ___first$[esp-4]
  0000a	2b 01		 sub	 eax, DWORD PTR [ecx]

; 370  : }

  0000c	c3		 ret	 0
??$distance@PAD@_STL@@YAHABQAD0@Z ENDP			; _STL::distance<char *>
_TEXT	ENDS
PUBLIC	??$__copy_aux@PADPAD@_STL@@YAPADPAD00ABU__true_type@0@@Z ; _STL::__copy_aux<char *,char *>
; Function compile flags: /Ogsy
; File c:\stlport-4.6.1\stlport\stl\_algobase.h
;	COMDAT ??$__copy_aux@PADPAD@_STL@@YAPADPAD00ABU__true_type@0@@Z
_TEXT	SEGMENT
___first$ = 8						; size = 4
___last$ = 12						; size = 4
___result$ = 16						; size = 4
___formal$ = 20						; size = 4
??$__copy_aux@PADPAD@_STL@@YAPADPAD00ABU__true_type@0@@Z PROC NEAR ; _STL::__copy_aux<char *,char *>, COMDAT

; 202  :   return __copy_ptrs(__first, __last, __result, 
; 203  :                      _IsOKToMemCpy(_STLP_VALUE_TYPE(__first, _InputIter), 
; 204  :                                    _STLP_VALUE_TYPE(__result, _OutputIter))._Ret());

  00000	ff 74 24 0c	 push	 DWORD PTR ___result$[esp-4]
  00004	ff 74 24 0c	 push	 DWORD PTR ___last$[esp]
  00008	ff 74 24 0c	 push	 DWORD PTR ___first$[esp+4]
  0000c	e8 00 00 00 00	 call	 ?__copy_trivial@_STL@@YAPAXPBX0PAX@Z ; _STL::__copy_trivial
  00011	83 c4 0c	 add	 esp, 12			; 0000000cH

; 205  : }

  00014	c3		 ret	 0
??$__copy_aux@PADPAD@_STL@@YAPADPAD00ABU__true_type@0@@Z ENDP ; _STL::__copy_aux<char *,char *>
_TEXT	ENDS
PUBLIC	?begin@?$list@V?$basic_string@DV?$char_traits@D@_STL@@V?$allocator@D@2@@_STL@@V?$allocator@V?$basic_string@DV?$char_traits@D@_STL@@V?$allocator@D@2@@_STL@@@2@@_STL@@QBE?AU?$_List_iterator@V?$basic_string@DV?$char_traits@D@_STL@@V?$allocator@D@2@@_STL@@U?$_Const_traits@V?$basic_string@DV?$char_traits@D@_STL@@V?$allocator@D@2@@_STL@@@2@@2@XZ ; _STL::list<_STL::basic_string<char,_STL::char_traits<char>,_STL::allocator<char> >,_STL::allocator<_STL::basic_string<char,_STL::char_traits<char>,_STL::allocator<char> > > >::begin
; Function compile flags: /Ogsy
; File c:\stlport-4.6.1\stlport\stl\_list.h
;	COMDAT ?begin@?$list@V?$basic_string@DV?$char_traits@D@_STL@@V?$allocator@D@2@@_STL@@V?$allocator@V?$basic_string@DV?$char_traits@D@_STL@@V?$allocator@D@2@@_STL@@@2@@_STL@@QBE?AU?$_List_iterator@V?$basic_string@DV?$char_traits@D@_STL@@V?$allocator@D@2@@_STL@@U?$_Const_traits@V?$basic_string@DV?$char_traits@D@_STL@@V?$allocator@D@2@@_STL@@@2@@2@XZ
_TEXT	SEGMENT
___$ReturnUdt$ = 8					; size = 4
?begin@?$list@V?$basic_string@DV?$char_traits@D@_STL@@V?$allocator@D@2@@_STL@@V?$allocator@V?$basic_string@DV?$char_traits@D@_STL@@V?$allocator@D@2@@_STL@@@2@@_STL@@QBE?AU?$_List_iterator@V?$basic_string@DV?$char_traits@D@_STL@@V?$allocator@D@2@@_STL@@U?$_Const_traits@V?$basic_string@DV?$char_traits@D@_STL@@V?$allocator@D@2@@_STL@@@2@@2@XZ PROC NEAR ; _STL::list<_STL::basic_string<char,_STL::char_traits<char>,_STL::allocator<char> >,_STL::allocator<_STL::basic_string<char,_STL::char_traits<char>,_STL::allocator<char> > > >::begin, COMDAT
; _this$ = ecx

; 267  :   const_iterator begin() const { return const_iterator((_Node*)(this->_M_node._M_data->_M_next)); }

  00000	8b 01		 mov	 eax, DWORD PTR [ecx]
  00002	8b 08		 mov	 ecx, DWORD PTR [eax]
  00004	8b 44 24 04	 mov	 eax, DWORD PTR ___$ReturnUdt$[esp-4]
  00008	89 08		 mov	 DWORD PTR [eax], ecx
  0000a	c2 04 00	 ret	 4
?begin@?$list@V?$basic_string@DV?$char_traits@D@_STL@@V?$allocator@D@2@@_STL@@V?$allocator@V?$basic_string@DV?$char_traits@D@_STL@@V?$allocator@D@2@@_STL@@@2@@_STL@@QBE?AU?$_List_iterator@V?$basic_string@DV?$char_traits@D@_STL@@V?$allocator@D@2@@_STL@@U?$_Const_traits@V?$basic_string@DV?$char_traits@D@_STL@@V?$allocator@D@2@@_STL@@@2@@2@XZ ENDP ; _STL::list<_STL::basic_string<char,_STL::char_traits<char>,_STL::allocator<char> >,_STL::allocator<_STL::basic_string<char,_STL::char_traits<char>,_STL::allocator<char> > > >::begin
_TEXT	ENDS
PUBLIC	?end@?$list@V?$basic_string@DV?$char_traits@D@_STL@@V?$allocator@D@2@@_STL@@V?$allocator@V?$basic_string@DV?$char_traits@D@_STL@@V?$allocator@D@2@@_STL@@@2@@_STL@@QBE?AU?$_List_iterator@V?$basic_string@DV?$char_traits@D@_STL@@V?$allocator@D@2@@_STL@@U?$_Const_traits@V?$basic_string@DV?$char_traits@D@_STL@@V?$allocator@D@2@@_STL@@@2@@2@XZ ; _STL::list<_STL::basic_string<char,_STL::char_traits<char>,_STL::allocator<char> >,_STL::allocator<_STL::basic_string<char,_STL::char_traits<char>,_STL::allocator<char> > > >::end
; Function compile flags: /Ogsy
;	COMDAT ?end@?$list@V?$basic_string@DV?$char_traits@D@_STL@@V?$allocator@D@2@@_STL@@V?$allocator@V?$basic_string@DV?$char_traits@D@_STL@@V?$allocator@D@2@@_STL@@@2@@_STL@@QBE?AU?$_List_iterator@V?$basic_string@DV?$char_traits@D@_STL@@V?$allocator@D@2@@_STL@@U?$_Const_traits@V?$basic_string@DV?$char_traits@D@_STL@@V?$allocator@D@2@@_STL@@@2@@2@XZ
_TEXT	SEGMENT
___$ReturnUdt$ = 8					; size = 4
?end@?$list@V?$basic_string@DV?$char_traits@D@_STL@@V?$allocator@D@2@@_STL@@V?$allocator@V?$basic_string@DV?$char_traits@D@_STL@@V?$allocator@D@2@@_STL@@@2@@_STL@@QBE?AU?$_List_iterator@V?$basic_string@DV?$char_traits@D@_STL@@V?$allocator@D@2@@_STL@@U?$_Const_traits@V?$basic_string@DV?$char_traits@D@_STL@@V?$allocator@D@2@@_STL@@@2@@2@XZ PROC NEAR ; _STL::list<_STL::basic_string<char,_STL::char_traits<char>,_STL::allocator<char> >,_STL::allocator<_STL::basic_string<char,_STL::char_traits<char>,_STL::allocator<char> > > >::end, COMDAT
; _this$ = ecx

; 270  :   const_iterator end() const { return this->_M_node._M_data; }

  00000	8b 09		 mov	 ecx, DWORD PTR [ecx]
  00002	8b 44 24 04	 mov	 eax, DWORD PTR ___$ReturnUdt$[esp-4]
  00006	89 08		 mov	 DWORD PTR [eax], ecx
  00008	c2 04 00	 ret	 4
?end@?$list@V?$basic_string@DV?$char_traits@D@_STL@@V?$allocator@D@2@@_STL@@V?$allocator@V?$basic_string@DV?$char_traits@D@_STL@@V?$allocator@D@2@@_STL@@@2@@_STL@@QBE?AU?$_List_iterator@V?$basic_string@DV?$char_traits@D@_STL@@V?$allocator@D@2@@_STL@@U?$_Const_traits@V?$basic_string@DV?$char_traits@D@_STL@@V?$allocator@D@2@@_STL@@@2@@2@XZ ENDP ; _STL::list<_STL::basic_string<char,_STL::char_traits<char>,_STL::allocator<char> >,_STL::allocator<_STL::basic_string<char,_STL::char_traits<char>,_STL::allocator<char> > > >::end
_TEXT	ENDS
PUBLIC	?begin@?$list@V?$basic_string@DV?$char_traits@D@_STL@@V?$allocator@D@2@@_STL@@V?$allocator@V?$basic_string@DV?$char_traits@D@_STL@@V?$allocator@D@2@@_STL@@@2@@_STL@@QAE?AU?$_List_iterator@V?$basic_string@DV?$char_traits@D@_STL@@V?$allocator@D@2@@_STL@@U?$_Nonconst_traits@V?$basic_string@DV?$char_traits@D@_STL@@V?$allocator@D@2@@_STL@@@2@@2@XZ ; _STL::list<_STL::basic_string<char,_STL::char_traits<char>,_STL::allocator<char> >,_STL::allocator<_STL::basic_string<char,_STL::char_traits<char>,_STL::allocator<char> > > >::begin
; Function compile flags: /Ogsy
;	COMDAT ?begin@?$list@V?$basic_string@DV?$char_traits@D@_STL@@V?$allocator@D@2@@_STL@@V?$allocator@V?$basic_string@DV?$char_traits@D@_STL@@V?$allocator@D@2@@_STL@@@2@@_STL@@QAE?AU?$_List_iterator@V?$basic_string@DV?$char_traits@D@_STL@@V?$allocator@D@2@@_STL@@U?$_Nonconst_traits@V?$basic_string@DV?$char_traits@D@_STL@@V?$allocator@D@2@@_STL@@@2@@2@XZ
_TEXT	SEGMENT
___$ReturnUdt$ = 8					; size = 4
?begin@?$list@V?$basic_string@DV?$char_traits@D@_STL@@V?$allocator@D@2@@_STL@@V?$allocator@V?$basic_string@DV?$char_traits@D@_STL@@V?$allocator@D@2@@_STL@@@2@@_STL@@QAE?AU?$_List_iterator@V?$basic_string@DV?$char_traits@D@_STL@@V?$allocator@D@2@@_STL@@U?$_Nonconst_traits@V?$basic_string@DV?$char_traits@D@_STL@@V?$allocator@D@2@@_STL@@@2@@2@XZ PROC NEAR ; _STL::list<_STL::basic_string<char,_STL::char_traits<char>,_STL::allocator<char> >,_STL::allocator<_STL::basic_string<char,_STL::char_traits<char>,_STL::allocator<char> > > >::begin, COMDAT
; _this$ = ecx

; 266  :   iterator begin()             { return iterator((_Node*)(this->_M_node._M_data->_M_next)); }

  00000	8b 01		 mov	 eax, DWORD PTR [ecx]
  00002	8b 08		 mov	 ecx, DWORD PTR [eax]
  00004	8b 44 24 04	 mov	 eax, DWORD PTR ___$ReturnUdt$[esp-4]
  00008	89 08		 mov	 DWORD PTR [eax], ecx
  0000a	c2 04 00	 ret	 4
?begin@?$list@V?$basic_string@DV?$char_traits@D@_STL@@V?$allocator@D@2@@_STL@@V?$allocator@V?$basic_string@DV?$char_traits@D@_STL@@V?$allocator@D@2@@_STL@@@2@@_STL@@QAE?AU?$_List_iterator@V?$basic_string@DV?$char_traits@D@_STL@@V?$allocator@D@2@@_STL@@U?$_Nonconst_traits@V?$basic_string@DV?$char_traits@D@_STL@@V?$allocator@D@2@@_STL@@@2@@2@XZ ENDP ; _STL::list<_STL::basic_string<char,_STL::char_traits<char>,_STL::allocator<char> >,_STL::allocator<_STL::basic_string<char,_STL::char_traits<char>,_STL::allocator<char> > > >::begin
_TEXT	ENDS
PUBLIC	??1?$_STLP_alloc_proxy@PAU?$_List_node@V?$basic_string@DV?$char_traits@D@_STL@@V?$allocator@D@2@@_STL@@@_STL@@U12@V?$allocator@U?$_List_node@V?$basic_string@DV?$char_traits@D@_STL@@V?$allocator@D@2@@_STL@@@_STL@@@2@@_STL@@QAE@XZ ; _STL::_STLP_alloc_proxy<_STL::_List_node<_STL::basic_string<char,_STL::char_traits<char>,_STL::allocator<char> > > *,_STL::_List_node<_STL::basic_string<char,_STL::char_traits<char>,_STL::allocator<char> > >,_STL::allocator<_STL::_List_node<_STL::basic_string<char,_STL::char_traits<char>,_STL::allocator<char> > > > >::~_STLP_alloc_proxy<_STL::_List_node<_STL::basic_string<char,_STL::char_traits<char>,_STL::allocator<char> > > *,_STL::_List_node<_STL::basic_string<char,_STL::char_traits<char>,_STL::allocator<char> > >,_STL::allocator<_STL::_List_node<_STL::basic_string<char,_STL::char_traits<char>,_STL::allocator<char> > > > >
; Function compile flags: /Ogsy
;	COMDAT ??1?$_STLP_alloc_proxy@PAU?$_List_node@V?$basic_string@DV?$char_traits@D@_STL@@V?$allocator@D@2@@_STL@@@_STL@@U12@V?$allocator@U?$_List_node@V?$basic_string@DV?$char_traits@D@_STL@@V?$allocator@D@2@@_STL@@@_STL@@@2@@_STL@@QAE@XZ
_TEXT	SEGMENT
??1?$_STLP_alloc_proxy@PAU?$_List_node@V?$basic_string@DV?$char_traits@D@_STL@@V?$allocator@D@2@@_STL@@@_STL@@U12@V?$allocator@U?$_List_node@V?$basic_string@DV?$char_traits@D@_STL@@V?$allocator@D@2@@_STL@@@_STL@@@2@@_STL@@QAE@XZ PROC NEAR ; _STL::_STLP_alloc_proxy<_STL::_List_node<_STL::basic_string<char,_STL::char_traits<char>,_STL::allocator<char> > > *,_STL::_List_node<_STL::basic_string<char,_STL::char_traits<char>,_STL::allocator<char> > >,_STL::allocator<_STL::_List_node<_STL::basic_string<char,_STL::char_traits<char>,_STL::allocator<char> > > > >::~_STLP_alloc_proxy<_STL::_List_node<_STL::basic_string<char,_STL::char_traits<char>,_STL::allocator<char> > > *,_STL::_List_node<_STL::basic_string<char,_STL::char_traits<char>,_STL::allocator<char> > >,_STL::allocator<_STL::_List_node<_STL::basic_string<char,_STL::char_traits<char>,_STL::allocator<char> > > > >, COMDAT
; _this$ = ecx
  00000	c3		 ret	 0
??1?$_STLP_alloc_proxy@PAU?$_List_node@V?$basic_string@DV?$char_traits@D@_STL@@V?$allocator@D@2@@_STL@@@_STL@@U12@V?$allocator@U?$_List_node@V?$basic_string@DV?$char_traits@D@_STL@@V?$allocator@D@2@@_STL@@@_STL@@@2@@_STL@@QAE@XZ ENDP ; _STL::_STLP_alloc_proxy<_STL::_List_node<_STL::basic_string<char,_STL::char_traits<char>,_STL::allocator<char> > > *,_STL::_List_node<_STL::basic_string<char,_STL::char_traits<char>,_STL::allocator<char> > >,_STL::allocator<_STL::_List_node<_STL::basic_string<char,_STL::char_traits<char>,_STL::allocator<char> > > > >::~_STLP_alloc_proxy<_STL::_List_node<_STL::basic_string<char,_STL::char_traits<char>,_STL::allocator<char> > > *,_STL::_List_node<_STL::basic_string<char,_STL::char_traits<char>,_STL::allocator<char> > >,_STL::allocator<_STL::_List_node<_STL::basic_string<char,_STL::char_traits<char>,_STL::allocator<char> > > > >
_TEXT	ENDS
PUBLIC	??0?$_STLP_alloc_proxy@PAU?$_List_node@V?$basic_string@DV?$char_traits@D@_STL@@V?$allocator@D@2@@_STL@@@_STL@@U12@V?$allocator@U?$_List_node@V?$basic_string@DV?$char_traits@D@_STL@@V?$allocator@D@2@@_STL@@@_STL@@@2@@_STL@@QAE@ABV?$allocator@U?$_List_node@V?$basic_string@DV?$char_traits@D@_STL@@V?$allocator@D@2@@_STL@@@_STL@@@1@PAU?$_List_node@V?$basic_string@DV?$char_traits@D@_STL@@V?$allocator@D@2@@_STL@@@1@@Z ; _STL::_STLP_alloc_proxy<_STL::_List_node<_STL::basic_string<char,_STL::char_traits<char>,_STL::allocator<char> > > *,_STL::_List_node<_STL::basic_string<char,_STL::char_traits<char>,_STL::allocator<char> > >,_STL::allocator<_STL::_List_node<_STL::basic_string<char,_STL::char_traits<char>,_STL::allocator<char> > > > >::_STLP_alloc_proxy<_STL::_List_node<_STL::basic_string<char,_STL::char_traits<char>,_STL::allocator<char> > > *,_STL::_List_node<_STL::basic_string<char,_STL::char_traits<char>,_STL::allocator<char> > >,_STL::allocator<_STL::_List_node<_STL::basic_string<char,_STL::char_traits<char>,_STL::allocator<char> > > > >
; Function compile flags: /Ogsy
; File c:\stlport-4.6.1\stlport\stl\_alloc.h
;	COMDAT ??0?$_STLP_alloc_proxy@PAU?$_List_node@V?$basic_string@DV?$char_traits@D@_STL@@V?$allocator@D@2@@_STL@@@_STL@@U12@V?$allocator@U?$_List_node@V?$basic_string@DV?$char_traits@D@_STL@@V?$allocator@D@2@@_STL@@@_STL@@@2@@_STL@@QAE@ABV?$allocator@U?$_List_node@V?$basic_string@DV?$char_traits@D@_STL@@V?$allocator@D@2@@_STL@@@_STL@@@1@PAU?$_List_node@V?$basic_string@DV?$char_traits@D@_STL@@V?$allocator@D@2@@_STL@@@1@@Z
_TEXT	SEGMENT
___a$ = 8						; size = 4
___p$ = 12						; size = 4
??0?$_STLP_alloc_proxy@PAU?$_List_node@V?$basic_string@DV?$char_traits@D@_STL@@V?$allocator@D@2@@_STL@@@_STL@@U12@V?$allocator@U?$_List_node@V?$basic_string@DV?$char_traits@D@_STL@@V?$allocator@D@2@@_STL@@@_STL@@@2@@_STL@@QAE@ABV?$allocator@U?$_List_node@V?$basic_string@DV?$char_traits@D@_STL@@V?$allocator@D@2@@_STL@@@_STL@@@1@PAU?$_List_node@V?$basic_string@DV?$char_traits@D@_STL@@V?$allocator@D@2@@_STL@@@1@@Z PROC NEAR ; _STL::_STLP_alloc_proxy<_STL::_List_node<_STL::basic_string<char,_STL::char_traits<char>,_STL::allocator<char> > > *,_STL::_List_node<_STL::basic_string<char,_STL::char_traits<char>,_STL::allocator<char> > >,_STL::allocator<_STL::_List_node<_STL::basic_string<char,_STL::char_traits<char>,_STL::allocator<char> > > > >::_STLP_alloc_proxy<_STL::_List_node<_STL::basic_string<char,_STL::char_traits<char>,_STL::allocator<char> > > *,_STL::_List_node<_STL::basic_string<char,_STL::char_traits<char>,_STL::allocator<char> > >,_STL::allocator<_STL::_List_node<_STL::basic_string<char,_STL::char_traits<char>,_STL::allocator<char> > > > >, COMDAT
; _this$ = ecx

; 487  :   inline _STLP_alloc_proxy(const _MaybeReboundAlloc& __a, _Value __p) : _MaybeReboundAlloc(__a), _M_data(__p) {}

  00000	8b c1		 mov	 eax, ecx
  00002	8b 4c 24 08	 mov	 ecx, DWORD PTR ___p$[esp-4]
  00006	89 08		 mov	 DWORD PTR [eax], ecx
  00008	c2 08 00	 ret	 8
??0?$_STLP_alloc_proxy@PAU?$_List_node@V?$basic_string@DV?$char_traits@D@_STL@@V?$allocator@D@2@@_STL@@@_STL@@U12@V?$allocator@U?$_List_node@V?$basic_string@DV?$char_traits@D@_STL@@V?$allocator@D@2@@_STL@@@_STL@@@2@@_STL@@QAE@ABV?$allocator@U?$_List_node@V?$basic_string@DV?$char_traits@D@_STL@@V?$allocator@D@2@@_STL@@@_STL@@@1@PAU?$_List_node@V?$basic_string@DV?$char_traits@D@_STL@@V?$allocator@D@2@@_STL@@@1@@Z ENDP ; _STL::_STLP_alloc_proxy<_STL::_List_node<_STL::basic_string<char,_STL::char_traits<char>,_STL::allocator<char> > > *,_STL::_List_node<_STL::basic_string<char,_STL::char_traits<char>,_STL::allocator<char> > >,_STL::allocator<_STL::_List_node<_STL::basic_string<char,_STL::char_traits<char>,_STL::allocator<char> > > > >::_STLP_alloc_proxy<_STL::_List_node<_STL::basic_string<char,_STL::char_traits<char>,_STL::allocator<char> > > *,_STL::_List_node<_STL::basic_string<char,_STL::char_traits<char>,_STL::allocator<char> > >,_STL::allocator<_STL::_List_node<_STL::basic_string<char,_STL::char_traits<char>,_STL::allocator<char> > > > >
_TEXT	ENDS
PUBLIC	?allocate@?$allocator@U?$_List_node@V?$basic_string@DV?$char_traits@D@_STL@@V?$allocator@D@2@@_STL@@@_STL@@@_STL@@QAEPAU?$_List_node@V?$basic_string@DV?$char_traits@D@_STL@@V?$allocator@D@2@@_STL@@@2@IPBX@Z ; _STL::allocator<_STL::_List_node<_STL::basic_string<char,_STL::char_traits<char>,_STL::allocator<char> > > >::allocate
; Function compile flags: /Ogsy
;	COMDAT ?allocate@?$allocator@U?$_List_node@V?$basic_string@DV?$char_traits@D@_STL@@V?$allocator@D@2@@_STL@@@_STL@@@_STL@@QAEPAU?$_List_node@V?$basic_string@DV?$char_traits@D@_STL@@V?$allocator@D@2@@_STL@@@2@IPBX@Z
_TEXT	SEGMENT
___n$ = 8						; size = 4
___formal$ = 12						; size = 4
?allocate@?$allocator@U?$_List_node@V?$basic_string@DV?$char_traits@D@_STL@@V?$allocator@D@2@@_STL@@@_STL@@@_STL@@QAEPAU?$_List_node@V?$basic_string@DV?$char_traits@D@_STL@@V?$allocator@D@2@@_STL@@@2@IPBX@Z PROC NEAR ; _STL::allocator<_STL::_List_node<_STL::basic_string<char,_STL::char_traits<char>,_STL::allocator<char> > > >::allocate, COMDAT
; _this$ = ecx

; 355  :     return __n != 0 ? __REINTERPRET_CAST(value_type*,__sgi_alloc::allocate(__n * sizeof(value_type))) : 0;

  00000	8b 44 24 04	 mov	 eax, DWORD PTR ___n$[esp-4]
  00004	85 c0		 test	 eax, eax
  00006	74 0f		 je	 SHORT $L101449
  00008	8d 04 80	 lea	 eax, DWORD PTR [eax+eax*4]
  0000b	c1 e0 02	 shl	 eax, 2
  0000e	50		 push	 eax
  0000f	e8 00 00 00 00	 call	 ?allocate@?$__node_alloc@$00$0A@@_STL@@SAPAXI@Z ; _STL::__node_alloc<1,0>::allocate
  00014	59		 pop	 ecx
  00015	eb 02		 jmp	 SHORT $L101450
$L101449:
  00017	33 c0		 xor	 eax, eax
$L101450:

; 356  :   }

  00019	c2 08 00	 ret	 8
?allocate@?$allocator@U?$_List_node@V?$basic_string@DV?$char_traits@D@_STL@@V?$allocator@D@2@@_STL@@@_STL@@@_STL@@QAEPAU?$_List_node@V?$basic_string@DV?$char_traits@D@_STL@@V?$allocator@D@2@@_STL@@@2@IPBX@Z ENDP ; _STL::allocator<_STL::_List_node<_STL::basic_string<char,_STL::char_traits<char>,_STL::allocator<char> > > >::allocate
_TEXT	ENDS
PUBLIC	?deallocate@?$allocator@U?$_List_node@V?$basic_string@DV?$char_traits@D@_STL@@V?$allocator@D@2@@_STL@@@_STL@@@_STL@@QAEXPAU?$_List_node@V?$basic_string@DV?$char_traits@D@_STL@@V?$allocator@D@2@@_STL@@@2@I@Z ; _STL::allocator<_STL::_List_node<_STL::basic_string<char,_STL::char_traits<char>,_STL::allocator<char> > > >::deallocate
; Function compile flags: /Ogsy
;	COMDAT ?deallocate@?$allocator@U?$_List_node@V?$basic_string@DV?$char_traits@D@_STL@@V?$allocator@D@2@@_STL@@@_STL@@@_STL@@QAEXPAU?$_List_node@V?$basic_string@DV?$char_traits@D@_STL@@V?$allocator@D@2@@_STL@@@2@I@Z
_TEXT	SEGMENT
___p$ = 8						; size = 4
___n$ = 12						; size = 4
?deallocate@?$allocator@U?$_List_node@V?$basic_string@DV?$char_traits@D@_STL@@V?$allocator@D@2@@_STL@@@_STL@@@_STL@@QAEXPAU?$_List_node@V?$basic_string@DV?$char_traits@D@_STL@@V?$allocator@D@2@@_STL@@@2@I@Z PROC NEAR ; _STL::allocator<_STL::_List_node<_STL::basic_string<char,_STL::char_traits<char>,_STL::allocator<char> > > >::deallocate, COMDAT
; _this$ = ecx

; 359  :     _STLP_ASSERT( (__p == 0) == (__n == 0) )
; 360  :       if (__p != 0) __sgi_alloc::deallocate((void*)__p, __n * sizeof(value_type));

  00000	83 7c 24 04 00	 cmp	 DWORD PTR ___p$[esp-4], 0
  00005	74 16		 je	 SHORT $L98656
  00007	8b 44 24 08	 mov	 eax, DWORD PTR ___n$[esp-4]
  0000b	8d 04 80	 lea	 eax, DWORD PTR [eax+eax*4]
  0000e	c1 e0 02	 shl	 eax, 2
  00011	50		 push	 eax
  00012	ff 74 24 08	 push	 DWORD PTR ___p$[esp]
  00016	e8 00 00 00 00	 call	 ?deallocate@?$__node_alloc@$00$0A@@_STL@@SAXPAXI@Z ; _STL::__node_alloc<1,0>::deallocate
  0001b	59		 pop	 ecx
  0001c	59		 pop	 ecx
$L98656:

; 361  :   }

  0001d	c2 08 00	 ret	 8
?deallocate@?$allocator@U?$_List_node@V?$basic_string@DV?$char_traits@D@_STL@@V?$allocator@D@2@@_STL@@@_STL@@@_STL@@QAEXPAU?$_List_node@V?$basic_string@DV?$char_traits@D@_STL@@V?$allocator@D@2@@_STL@@@2@I@Z ENDP ; _STL::allocator<_STL::_List_node<_STL::basic_string<char,_STL::char_traits<char>,_STL::allocator<char> > > >::deallocate
_TEXT	ENDS
PUBLIC	?deallocate@?$allocator@D@_STL@@QAEXPADI@Z	; _STL::allocator<char>::deallocate
; Function compile flags: /Ogsy
;	COMDAT ?deallocate@?$allocator@D@_STL@@QAEXPADI@Z
_TEXT	SEGMENT
___p$ = 8						; size = 4
___n$ = 12						; size = 4
?deallocate@?$allocator@D@_STL@@QAEXPADI@Z PROC NEAR	; _STL::allocator<char>::deallocate, COMDAT
; _this$ = ecx

; 359  :     _STLP_ASSERT( (__p == 0) == (__n == 0) )
; 360  :       if (__p != 0) __sgi_alloc::deallocate((void*)__p, __n * sizeof(value_type));

  00000	83 7c 24 04 00	 cmp	 DWORD PTR ___p$[esp-4], 0
  00005	74 0f		 je	 SHORT $L98663
  00007	ff 74 24 08	 push	 DWORD PTR ___n$[esp-4]
  0000b	ff 74 24 08	 push	 DWORD PTR ___p$[esp]
  0000f	e8 00 00 00 00	 call	 ?deallocate@?$__node_alloc@$00$0A@@_STL@@SAXPAXI@Z ; _STL::__node_alloc<1,0>::deallocate
  00014	59		 pop	 ecx
  00015	59		 pop	 ecx
$L98663:

; 361  :   }

  00016	c2 08 00	 ret	 8
?deallocate@?$allocator@D@_STL@@QAEXPADI@Z ENDP		; _STL::allocator<char>::deallocate
_TEXT	ENDS
PUBLIC	??0?$_String_base@DV?$allocator@D@_STL@@@_STL@@QAE@ABV?$allocator@D@1@@Z ; _STL::_String_base<char,_STL::allocator<char> >::_String_base<char,_STL::allocator<char> >
; Function compile flags: /Ogsy
; File c:\stlport-4.6.1\stlport\stl\_string.h
;	COMDAT ??0?$_String_base@DV?$allocator@D@_STL@@@_STL@@QAE@ABV?$allocator@D@1@@Z
_TEXT	SEGMENT
___a$ = 8						; size = 4
??0?$_String_base@DV?$allocator@D@_STL@@@_STL@@QAE@ABV?$allocator@D@1@@Z PROC NEAR ; _STL::_String_base<char,_STL::allocator<char> >::_String_base<char,_STL::allocator<char> >, COMDAT
; _this$ = ecx

; 129  :     : _M_start(0), _M_finish(0), _M_end_of_storage(__a, (_Tp*)0) {}

  00000	56		 push	 esi
  00001	33 c0		 xor	 eax, eax
  00003	8b f1		 mov	 esi, ecx
  00005	50		 push	 eax
  00006	ff 74 24 0c	 push	 DWORD PTR ___a$[esp+4]
  0000a	8d 4e 08	 lea	 ecx, DWORD PTR [esi+8]
  0000d	89 06		 mov	 DWORD PTR [esi], eax
  0000f	89 46 04	 mov	 DWORD PTR [esi+4], eax
  00012	e8 00 00 00 00	 call	 ??0?$_STLP_alloc_proxy@PADDV?$allocator@D@_STL@@@_STL@@QAE@ABV?$allocator@D@1@PAD@Z ; _STL::_STLP_alloc_proxy<char *,char,_STL::allocator<char> >::_STLP_alloc_proxy<char *,char,_STL::allocator<char> >
  00017	8b c6		 mov	 eax, esi
  00019	5e		 pop	 esi
  0001a	c2 04 00	 ret	 4
??0?$_String_base@DV?$allocator@D@_STL@@@_STL@@QAE@ABV?$allocator@D@1@@Z ENDP ; _STL::_String_base<char,_STL::allocator<char> >::_String_base<char,_STL::allocator<char> >
_TEXT	ENDS
PUBLIC	??$_M_range_initialize@PBD@?$basic_string@DV?$char_traits@D@_STL@@V?$allocator@D@2@@_STL@@AAEXPBD0ABUforward_iterator_tag@1@@Z ; _STL::basic_string<char,_STL::char_traits<char>,_STL::allocator<char> >::_M_range_initialize<char const *>
; Function compile flags: /Ogsy
;	COMDAT ??$_M_range_initialize@PBD@?$basic_string@DV?$char_traits@D@_STL@@V?$allocator@D@2@@_STL@@AAEXPBD0ABUforward_iterator_tag@1@@Z
_TEXT	SEGMENT
___f$ = 8						; size = 4
___l$ = 12						; size = 4
___formal$ = 16						; size = 4
??$_M_range_initialize@PBD@?$basic_string@DV?$char_traits@D@_STL@@V?$allocator@D@2@@_STL@@AAEXPBD0ABUforward_iterator_tag@1@@Z PROC NEAR ; _STL::basic_string<char,_STL::char_traits<char>,_STL::allocator<char> >::_M_range_initialize<char const *>, COMDAT
; _this$ = ecx

; 383  :                            const forward_iterator_tag &) {
; 384  :     difference_type __n = distance(__f, __l);
; 385  :     this->_M_allocate_block(__n + 1);

  00000	8b 44 24 08	 mov	 eax, DWORD PTR ___l$[esp-4]
  00004	2b 44 24 04	 sub	 eax, DWORD PTR ___f$[esp-4]
  00008	56		 push	 esi
  00009	40		 inc	 eax
  0000a	50		 push	 eax
  0000b	8b f1		 mov	 esi, ecx
  0000d	e8 00 00 00 00	 call	 ?_M_allocate_block@?$_String_base@DV?$allocator@D@_STL@@@_STL@@QAEXI@Z ; _STL::_String_base<char,_STL::allocator<char> >::_M_allocate_block

; 386  :     this->_M_finish = uninitialized_copy(__f, __l, this->_M_start);

  00012	ff 36		 push	 DWORD PTR [esi]
  00014	ff 74 24 10	 push	 DWORD PTR ___l$[esp+4]
  00018	ff 74 24 10	 push	 DWORD PTR ___f$[esp+8]
  0001c	e8 00 00 00 00	 call	 ?__copy_trivial@_STL@@YAPAXPBX0PAX@Z ; _STL::__copy_trivial
  00021	83 c4 0c	 add	 esp, 12			; 0000000cH
  00024	89 46 04	 mov	 DWORD PTR [esi+4], eax

; 387  :     _M_terminate_string();

  00027	c6 00 00	 mov	 BYTE PTR [eax], 0
  0002a	5e		 pop	 esi

; 388  :   }

  0002b	c2 0c 00	 ret	 12			; 0000000cH
??$_M_range_initialize@PBD@?$basic_string@DV?$char_traits@D@_STL@@V?$allocator@D@2@@_STL@@AAEXPBD0ABUforward_iterator_tag@1@@Z ENDP ; _STL::basic_string<char,_STL::char_traits<char>,_STL::allocator<char> >::_M_range_initialize<char const *>
_TEXT	ENDS
PUBLIC	??$__uninitialized_copy@PADPAD@_STL@@YAPADPAD00ABU__true_type@0@@Z ; _STL::__uninitialized_copy<char *,char *>
; Function compile flags: /Ogsy
; File c:\stlport-4.6.1\stlport\stl\_uninitialized.h
;	COMDAT ??$__uninitialized_copy@PADPAD@_STL@@YAPADPAD00ABU__true_type@0@@Z
_TEXT	SEGMENT
___first$ = 8						; size = 4
___last$ = 12						; size = 4
___result$ = 16						; size = 4
___formal$ = 20						; size = 4
??$__uninitialized_copy@PADPAD@_STL@@YAPADPAD00ABU__true_type@0@@Z PROC NEAR ; _STL::__uninitialized_copy<char *,char *>, COMDAT

; 55   :   return __copy_aux(__first, __last, __result, _BothPtrType< _InputIter, _ForwardIter> :: _Ret());

  00000	ff 74 24 0c	 push	 DWORD PTR ___result$[esp-4]
  00004	ff 74 24 0c	 push	 DWORD PTR ___last$[esp]
  00008	ff 74 24 0c	 push	 DWORD PTR ___first$[esp+4]
  0000c	e8 00 00 00 00	 call	 ?__copy_trivial@_STL@@YAPAXPBX0PAX@Z ; _STL::__copy_trivial
  00011	83 c4 0c	 add	 esp, 12			; 0000000cH

; 56   : }

  00014	c3		 ret	 0
??$__uninitialized_copy@PADPAD@_STL@@YAPADPAD00ABU__true_type@0@@Z ENDP ; _STL::__uninitialized_copy<char *,char *>
_TEXT	ENDS
PUBLIC	??0?$_List_base@V?$basic_string@DV?$char_traits@D@_STL@@V?$allocator@D@2@@_STL@@V?$allocator@V?$basic_string@DV?$char_traits@D@_STL@@V?$allocator@D@2@@_STL@@@2@@_STL@@QAE@ABV?$allocator@V?$basic_string@DV?$char_traits@D@_STL@@V?$allocator@D@2@@_STL@@@1@@Z ; _STL::_List_base<_STL::basic_string<char,_STL::char_traits<char>,_STL::allocator<char> >,_STL::allocator<_STL::basic_string<char,_STL::char_traits<char>,_STL::allocator<char> > > >::_List_base<_STL::basic_string<char,_STL::char_traits<char>,_STL::allocator<char> >,_STL::allocator<_STL::basic_string<char,_STL::char_traits<char>,_STL::allocator<char> > > >
; Function compile flags: /Ogsy
; File c:\stlport-4.6.1\stlport\stl\_list.h
;	COMDAT ??0?$_List_base@V?$basic_string@DV?$char_traits@D@_STL@@V?$allocator@D@2@@_STL@@V?$allocator@V?$basic_string@DV?$char_traits@D@_STL@@V?$allocator@D@2@@_STL@@@2@@_STL@@QAE@ABV?$allocator@V?$basic_string@DV?$char_traits@D@_STL@@V?$allocator@D@2@@_STL@@@1@@Z
_TEXT	SEGMENT
$T101529 = -1						; size = 1
___a$ = 8						; size = 4
??0?$_List_base@V?$basic_string@DV?$char_traits@D@_STL@@V?$allocator@D@2@@_STL@@V?$allocator@V?$basic_string@DV?$char_traits@D@_STL@@V?$allocator@D@2@@_STL@@@2@@_STL@@QAE@ABV?$allocator@V?$basic_string@DV?$char_traits@D@_STL@@V?$allocator@D@2@@_STL@@@1@@Z PROC NEAR ; _STL::_List_base<_STL::basic_string<char,_STL::char_traits<char>,_STL::allocator<char> >,_STL::allocator<_STL::basic_string<char,_STL::char_traits<char>,_STL::allocator<char> > > >::_List_base<_STL::basic_string<char,_STL::char_traits<char>,_STL::allocator<char> >,_STL::allocator<_STL::basic_string<char,_STL::char_traits<char>,_STL::allocator<char> > > >, COMDAT
; _this$ = ecx

; 182  :   _List_base(const allocator_type& __a) : _M_node(_STLP_CONVERT_ALLOCATOR(__a, _Node), (_Node*)0) {

  00000	51		 push	 ecx
  00001	56		 push	 esi
  00002	6a 00		 push	 0
  00004	8d 44 24 0b	 lea	 eax, DWORD PTR $T101529[esp+12]
  00008	50		 push	 eax
  00009	8b f1		 mov	 esi, ecx
  0000b	e8 00 00 00 00	 call	 ??0?$_STLP_alloc_proxy@PAU?$_List_node@V?$basic_string@DV?$char_traits@D@_STL@@V?$allocator@D@2@@_STL@@@_STL@@U12@V?$allocator@U?$_List_node@V?$basic_string@DV?$char_traits@D@_STL@@V?$allocator@D@2@@_STL@@@_STL@@@2@@_STL@@QAE@ABV?$allocator@U?$_List_node@V?$basic_string@DV?$char_traits@D@_STL@@V?$allocator@D@2@@_STL@@@_STL@@@1@PAU?$_List_node@V?$basic_string@DV?$char_traits@D@_STL@@V?$allocator@D@2@@_STL@@@1@@Z ; _STL::_STLP_alloc_proxy<_STL::_List_node<_STL::basic_string<char,_STL::char_traits<char>,_STL::allocator<char> > > *,_STL::_List_node<_STL::basic_string<char,_STL::char_traits<char>,_STL::allocator<char> > >,_STL::allocator<_STL::_List_node<_STL::basic_string<char,_STL::char_traits<char>,_STL::allocator<char> > > > >::_STLP_alloc_proxy<_STL::_List_node<_STL::basic_string<char,_STL::char_traits<char>,_STL::allocator<char> > > *,_STL::_List_node<_STL::basic_string<char,_STL::char_traits<char>,_STL::allocator<char> > >,_STL::allocator<_STL::_List_node<_STL::basic_string<char,_STL::char_traits<char>,_STL::allocator<char> > > > >

; 183  :     _Node* __n = _M_node.allocate(1);

  00010	6a 14		 push	 20			; 00000014H
  00012	e8 00 00 00 00	 call	 ?allocate@?$__node_alloc@$00$0A@@_STL@@SAPAXI@Z ; _STL::__node_alloc<1,0>::allocate

; 184  :     __n->_M_next = __n;

  00017	89 00		 mov	 DWORD PTR [eax], eax

; 185  :     __n->_M_prev = __n;

  00019	89 40 04	 mov	 DWORD PTR [eax+4], eax

; 186  :     _M_node._M_data = __n;

  0001c	89 06		 mov	 DWORD PTR [esi], eax
  0001e	59		 pop	 ecx

; 187  :   }

  0001f	8b c6		 mov	 eax, esi
  00021	5e		 pop	 esi
  00022	59		 pop	 ecx
  00023	c2 04 00	 ret	 4
??0?$_List_base@V?$basic_string@DV?$char_traits@D@_STL@@V?$allocator@D@2@@_STL@@V?$allocator@V?$basic_string@DV?$char_traits@D@_STL@@V?$allocator@D@2@@_STL@@@2@@_STL@@QAE@ABV?$allocator@V?$basic_string@DV?$char_traits@D@_STL@@V?$allocator@D@2@@_STL@@@1@@Z ENDP ; _STL::_List_base<_STL::basic_string<char,_STL::char_traits<char>,_STL::allocator<char> >,_STL::allocator<_STL::basic_string<char,_STL::char_traits<char>,_STL::allocator<char> > > >::_List_base<_STL::basic_string<char,_STL::char_traits<char>,_STL::allocator<char> >,_STL::allocator<_STL::basic_string<char,_STL::char_traits<char>,_STL::allocator<char> > > >
_TEXT	ENDS
PUBLIC	?_M_deallocate_block@?$_String_base@DV?$allocator@D@_STL@@@_STL@@QAEXXZ ; _STL::_String_base<char,_STL::allocator<char> >::_M_deallocate_block
; Function compile flags: /Ogsy
; File c:\stlport-4.6.1\stlport\stl\_string.h
;	COMDAT ?_M_deallocate_block@?$_String_base@DV?$allocator@D@_STL@@@_STL@@QAEXXZ
_TEXT	SEGMENT
?_M_deallocate_block@?$_String_base@DV?$allocator@D@_STL@@@_STL@@QAEXXZ PROC NEAR ; _STL::_String_base<char,_STL::allocator<char> >::_M_deallocate_block, COMDAT
; _this$ = ecx

; 124  :     { _M_end_of_storage.deallocate(_M_start, _M_end_of_storage._M_data - _M_start); }

  00000	8b c1		 mov	 eax, ecx
  00002	8d 48 08	 lea	 ecx, DWORD PTR [eax+8]
  00005	8b 00		 mov	 eax, DWORD PTR [eax]
  00007	8b 11		 mov	 edx, DWORD PTR [ecx]
  00009	2b d0		 sub	 edx, eax
  0000b	52		 push	 edx
  0000c	50		 push	 eax
  0000d	e8 00 00 00 00	 call	 ?deallocate@?$allocator@D@_STL@@QAEXPADI@Z ; _STL::allocator<char>::deallocate
  00012	c3		 ret	 0
?_M_deallocate_block@?$_String_base@DV?$allocator@D@_STL@@@_STL@@QAEXXZ ENDP ; _STL::_String_base<char,_STL::allocator<char> >::_M_deallocate_block
_TEXT	ENDS
PUBLIC	??$_M_range_initialize@PBD@?$basic_string@DV?$char_traits@D@_STL@@V?$allocator@D@2@@_STL@@AAEXPBD0@Z ; _STL::basic_string<char,_STL::char_traits<char>,_STL::allocator<char> >::_M_range_initialize<char const *>
; Function compile flags: /Ogsy
;	COMDAT ??$_M_range_initialize@PBD@?$basic_string@DV?$char_traits@D@_STL@@V?$allocator@D@2@@_STL@@AAEXPBD0@Z
_TEXT	SEGMENT
___f$ = 8						; size = 4
___l$ = 12						; size = 4
$T101546 = 15						; size = 1
??$_M_range_initialize@PBD@?$basic_string@DV?$char_traits@D@_STL@@V?$allocator@D@2@@_STL@@AAEXPBD0@Z PROC NEAR ; _STL::basic_string<char,_STL::char_traits<char>,_STL::allocator<char> >::_M_range_initialize<char const *>, COMDAT
; _this$ = ecx

; 390  :   template <class _InputIter> void _M_range_initialize(_InputIter __f, _InputIter __l) {

  00000	55		 push	 ebp
  00001	8b ec		 mov	 ebp, esp

; 391  :     _M_range_initialize(__f, __l, _STLP_ITERATOR_CATEGORY(__f, _InputIter));

  00003	8d 45 0f	 lea	 eax, DWORD PTR $T101546[ebp]
  00006	50		 push	 eax
  00007	ff 75 0c	 push	 DWORD PTR ___l$[ebp]
  0000a	ff 75 08	 push	 DWORD PTR ___f$[ebp]
  0000d	e8 00 00 00 00	 call	 ??$_M_range_initialize@PBD@?$basic_string@DV?$char_traits@D@_STL@@V?$allocator@D@2@@_STL@@AAEXPBD0ABUforward_iterator_tag@1@@Z ; _STL::basic_string<char,_STL::char_traits<char>,_STL::allocator<char> >::_M_range_initialize<char const *>

; 392  :   }

  00012	5d		 pop	 ebp
  00013	c2 08 00	 ret	 8
??$_M_range_initialize@PBD@?$basic_string@DV?$char_traits@D@_STL@@V?$allocator@D@2@@_STL@@AAEXPBD0@Z ENDP ; _STL::basic_string<char,_STL::char_traits<char>,_STL::allocator<char> >::_M_range_initialize<char const *>
_TEXT	ENDS
PUBLIC	??$uninitialized_copy@PADPAD@_STL@@YAPADPAD00@Z	; _STL::uninitialized_copy<char *,char *>
; Function compile flags: /Ogsy
; File c:\stlport-4.6.1\stlport\stl\_uninitialized.h
;	COMDAT ??$uninitialized_copy@PADPAD@_STL@@YAPADPAD00@Z
_TEXT	SEGMENT
___first$ = 8						; size = 4
___last$ = 12						; size = 4
___result$ = 16						; size = 4
??$uninitialized_copy@PADPAD@_STL@@YAPADPAD00@Z PROC NEAR ; _STL::uninitialized_copy<char *,char *>, COMDAT

; 79   :   return __uninitialized_copy(__first, __last, __result,  _IS_POD_ITER(__result, _ForwardIter));

  00000	e9 00 00 00 00	 jmp	 ?__copy_trivial@_STL@@YAPAXPBX0PAX@Z ; _STL::__copy_trivial
??$uninitialized_copy@PADPAD@_STL@@YAPADPAD00@Z ENDP	; _STL::uninitialized_copy<char *,char *>
_TEXT	ENDS
PUBLIC	??1?$_String_base@DV?$allocator@D@_STL@@@_STL@@QAE@XZ ; _STL::_String_base<char,_STL::allocator<char> >::~_String_base<char,_STL::allocator<char> >
; Function compile flags: /Ogsy
; File c:\stlport-4.6.1\stlport\stl\_string.h
;	COMDAT ??1?$_String_base@DV?$allocator@D@_STL@@@_STL@@QAE@XZ
_TEXT	SEGMENT
??1?$_String_base@DV?$allocator@D@_STL@@@_STL@@QAE@XZ PROC NEAR ; _STL::_String_base<char,_STL::allocator<char> >::~_String_base<char,_STL::allocator<char> >, COMDAT
; _this$ = ecx

; 135  :   ~_String_base() { _M_deallocate_block(); }

  00000	e9 00 00 00 00	 jmp	 ?_M_deallocate_block@?$_String_base@DV?$allocator@D@_STL@@@_STL@@QAEXXZ ; _STL::_String_base<char,_STL::allocator<char> >::_M_deallocate_block
??1?$_String_base@DV?$allocator@D@_STL@@@_STL@@QAE@XZ ENDP ; _STL::_String_base<char,_STL::allocator<char> >::~_String_base<char,_STL::allocator<char> >
_TEXT	ENDS
PUBLIC	??0?$basic_string@DV?$char_traits@D@_STL@@V?$allocator@D@2@@_STL@@QAE@PBDABV?$allocator@D@1@@Z ; _STL::basic_string<char,_STL::char_traits<char>,_STL::allocator<char> >::basic_string<char,_STL::char_traits<char>,_STL::allocator<char> >
EXTRN	__EH_prolog:NEAR
EXTRN	__except_list:DWORD
EXTRN	___CxxFrameHandler:NEAR
;	COMDAT xdata$x
xdata$x	SEGMENT
$T101627 DD	0ffffffffH
	DD	FLAT:$L101610
$T101623 DD	019930520H
	DD	01H
	DD	FLAT:$T101627
	DD	2 DUP(00H)
	DD	2 DUP(00H)
; Function compile flags: /Ogsy
; File c:\stlport-4.6.1\stlport\stl\_string.c
xdata$x	ENDS
;	COMDAT ??0?$basic_string@DV?$char_traits@D@_STL@@V?$allocator@D@2@@_STL@@QAE@PBDABV?$allocator@D@1@@Z
_TEXT	SEGMENT
_this$ = -16						; size = 4
__$EHRec$ = -12						; size = 12
___s$ = 8						; size = 4
$T101617 = 11						; size = 1
___a$ = 12						; size = 4
??0?$basic_string@DV?$char_traits@D@_STL@@V?$allocator@D@2@@_STL@@QAE@PBDABV?$allocator@D@1@@Z PROC NEAR ; _STL::basic_string<char,_STL::char_traits<char>,_STL::allocator<char> >::basic_string<char,_STL::char_traits<char>,_STL::allocator<char> >, COMDAT
; _this$ = ecx

; 552  : { 

  00000	b8 00 00 00 00	 mov	 eax, __ehhandler$??0?$basic_string@DV?$char_traits@D@_STL@@V?$allocator@D@2@@_STL@@QAE@PBDABV?$allocator@D@1@@Z
  00005	e8 00 00 00 00	 call	 __EH_prolog
  0000a	51		 push	 ecx
  0000b	56		 push	 esi
  0000c	ff 75 0c	 push	 DWORD PTR ___a$[ebp]
  0000f	8b f1		 mov	 esi, ecx
  00011	89 75 f0	 mov	 DWORD PTR _this$[ebp], esi
  00014	e8 00 00 00 00	 call	 ??0?$_String_base@DV?$allocator@D@_STL@@@_STL@@QAE@ABV?$allocator@D@1@@Z ; _STL::_String_base<char,_STL::allocator<char> >::_String_base<char,_STL::allocator<char> >

; 553  :   _STLP_FIX_LITERAL_BUG(__s) 
; 554  :     _M_range_initialize(__s, __s + traits_type::length(__s));  

  00019	ff 75 08	 push	 DWORD PTR ___s$[ebp]
  0001c	83 65 fc 00	 and	 DWORD PTR __$EHRec$[ebp+8], 0
  00020	e8 00 00 00 00	 call	 _strlen
  00025	03 45 08	 add	 eax, DWORD PTR ___s$[ebp]
  00028	59		 pop	 ecx
  00029	8d 4d 0b	 lea	 ecx, DWORD PTR $T101617[ebp]
  0002c	51		 push	 ecx
  0002d	50		 push	 eax
  0002e	ff 75 08	 push	 DWORD PTR ___s$[ebp]
  00031	8b ce		 mov	 ecx, esi
  00033	e8 00 00 00 00	 call	 ??$_M_range_initialize@PBD@?$basic_string@DV?$char_traits@D@_STL@@V?$allocator@D@2@@_STL@@AAEXPBD0ABUforward_iterator_tag@1@@Z ; _STL::basic_string<char,_STL::char_traits<char>,_STL::allocator<char> >::_M_range_initialize<char const *>

; 555  : } 

  00038	8b 4d f4	 mov	 ecx, DWORD PTR __$EHRec$[ebp]
  0003b	8b c6		 mov	 eax, esi
  0003d	5e		 pop	 esi
  0003e	64 89 0d 00 00
	00 00		 mov	 DWORD PTR fs:__except_list, ecx
  00045	c9		 leave
  00046	c2 08 00	 ret	 8
_TEXT	ENDS
;	COMDAT text$x
text$x	SEGMENT
$L101610:
  00000	8b 4d f0	 mov	 ecx, DWORD PTR _this$[ebp]
  00003	e9 00 00 00 00	 jmp	 ??1?$_String_base@DV?$allocator@D@_STL@@@_STL@@QAE@XZ ; _STL::_String_base<char,_STL::allocator<char> >::~_String_base<char,_STL::allocator<char> >
__ehhandler$??0?$basic_string@DV?$char_traits@D@_STL@@V?$allocator@D@2@@_STL@@QAE@PBDABV?$allocator@D@1@@Z:
  00008	b8 00 00 00 00	 mov	 eax, OFFSET FLAT:$T101623
  0000d	e9 00 00 00 00	 jmp	 ___CxxFrameHandler
text$x	ENDS
??0?$basic_string@DV?$char_traits@D@_STL@@V?$allocator@D@2@@_STL@@QAE@PBDABV?$allocator@D@1@@Z ENDP ; _STL::basic_string<char,_STL::char_traits<char>,_STL::allocator<char> >::basic_string<char,_STL::char_traits<char>,_STL::allocator<char> >
PUBLIC	??$_M_range_initialize@PAD@?$basic_string@DV?$char_traits@D@_STL@@V?$allocator@D@2@@_STL@@AAEXPAD0ABUforward_iterator_tag@1@@Z ; _STL::basic_string<char,_STL::char_traits<char>,_STL::allocator<char> >::_M_range_initialize<char *>
; Function compile flags: /Ogsy
; File c:\stlport-4.6.1\stlport\stl\_string.h
;	COMDAT ??$_M_range_initialize@PAD@?$basic_string@DV?$char_traits@D@_STL@@V?$allocator@D@2@@_STL@@AAEXPAD0ABUforward_iterator_tag@1@@Z
_TEXT	SEGMENT
___f$ = 8						; size = 4
___l$ = 12						; size = 4
___formal$ = 16						; size = 4
??$_M_range_initialize@PAD@?$basic_string@DV?$char_traits@D@_STL@@V?$allocator@D@2@@_STL@@AAEXPAD0ABUforward_iterator_tag@1@@Z PROC NEAR ; _STL::basic_string<char,_STL::char_traits<char>,_STL::allocator<char> >::_M_range_initialize<char *>, COMDAT
; _this$ = ecx

; 383  :                            const forward_iterator_tag &) {
; 384  :     difference_type __n = distance(__f, __l);
; 385  :     this->_M_allocate_block(__n + 1);

  00000	8b 44 24 08	 mov	 eax, DWORD PTR ___l$[esp-4]
  00004	2b 44 24 04	 sub	 eax, DWORD PTR ___f$[esp-4]
  00008	56		 push	 esi
  00009	40		 inc	 eax
  0000a	50		 push	 eax
  0000b	8b f1		 mov	 esi, ecx
  0000d	e8 00 00 00 00	 call	 ?_M_allocate_block@?$_String_base@DV?$allocator@D@_STL@@@_STL@@QAEXI@Z ; _STL::_String_base<char,_STL::allocator<char> >::_M_allocate_block

; 386  :     this->_M_finish = uninitialized_copy(__f, __l, this->_M_start);

  00012	ff 36		 push	 DWORD PTR [esi]
  00014	ff 74 24 10	 push	 DWORD PTR ___l$[esp+4]
  00018	ff 74 24 10	 push	 DWORD PTR ___f$[esp+8]
  0001c	e8 00 00 00 00	 call	 ?__copy_trivial@_STL@@YAPAXPBX0PAX@Z ; _STL::__copy_trivial
  00021	83 c4 0c	 add	 esp, 12			; 0000000cH
  00024	89 46 04	 mov	 DWORD PTR [esi+4], eax

; 387  :     _M_terminate_string();

  00027	c6 00 00	 mov	 BYTE PTR [eax], 0
  0002a	5e		 pop	 esi

; 388  :   }

  0002b	c2 0c 00	 ret	 12			; 0000000cH
??$_M_range_initialize@PAD@?$basic_string@DV?$char_traits@D@_STL@@V?$allocator@D@2@@_STL@@AAEXPAD0ABUforward_iterator_tag@1@@Z ENDP ; _STL::basic_string<char,_STL::char_traits<char>,_STL::allocator<char> >::_M_range_initialize<char *>
_TEXT	ENDS
PUBLIC	??1?$basic_string@DV?$char_traits@D@_STL@@V?$allocator@D@2@@_STL@@QAE@XZ ; _STL::basic_string<char,_STL::char_traits<char>,_STL::allocator<char> >::~basic_string<char,_STL::char_traits<char>,_STL::allocator<char> >
; Function compile flags: /Ogsy
;	COMDAT ??1?$basic_string@DV?$char_traits@D@_STL@@V?$allocator@D@2@@_STL@@QAE@XZ
_TEXT	SEGMENT
??1?$basic_string@DV?$char_traits@D@_STL@@V?$allocator@D@2@@_STL@@QAE@XZ PROC NEAR ; _STL::basic_string<char,_STL::char_traits<char>,_STL::allocator<char> >::~basic_string<char,_STL::char_traits<char>,_STL::allocator<char> >, COMDAT
; _this$ = ecx

; 305  :   ~basic_string() { _STLP_STD::_Destroy(this->_M_start, this->_M_finish + 1); }

  00000	e9 00 00 00 00	 jmp	 ?_M_deallocate_block@?$_String_base@DV?$allocator@D@_STL@@@_STL@@QAEXXZ ; _STL::_String_base<char,_STL::allocator<char> >::_M_deallocate_block
??1?$basic_string@DV?$char_traits@D@_STL@@V?$allocator@D@2@@_STL@@QAE@XZ ENDP ; _STL::basic_string<char,_STL::char_traits<char>,_STL::allocator<char> >::~basic_string<char,_STL::char_traits<char>,_STL::allocator<char> >
_TEXT	ENDS
PUBLIC	??_C@_01PKGAHCOL@?$CJ?$AA@			; `string'
PUBLIC	?toString@PCVampireInfo@@QBE?AV?$basic_string@DV?$char_traits@D@_STL@@V?$allocator@D@2@@_STL@@XZ ; PCVampireInfo::toString
PUBLIC	??_C@_0P@CFAJIGNM@PCVampireInfo?$CI?$AA@	; `string'
PUBLIC	??_C@_05HNMEJDNB@Name?3?$AA@			; `string'
PUBLIC	??_C@_07PBJICIAI@?0Level?3?$AA@			; `string'
PUBLIC	??_C@_06KJECGKNM@?0Slot?3?$AA@			; `string'
PUBLIC	??_C@_0M@PMHLFOKB@?0Alignment?3?$AA@		; `string'
PUBLIC	??_C@_05DCFDMOKK@?0Sex?3?$AA@			; `string'
PUBLIC	??_C@_0L@CAKJEDCG@?0BatColor?3?$AA@		; `string'
PUBLIC	??_C@_0M@KFPBKDAI@?0SkinColor?3?$AA@		; `string'
PUBLIC	??_C@_0L@IJJIEKLJ@?0CoatType?3?$AA@		; `string'
PUBLIC	??_C@_0M@FEEPEIEC@?0CoatColor?3?$AA@		; `string'
PUBLIC	??_C@_09OHLOGHCK@?0ArmType?3?$AA@		; `string'
PUBLIC	??_C@_0N@IJHKILIC@?0STR?$FLBASIC?$FN?3?$AA@	; `string'
PUBLIC	??_C@_0N@IJKAAEDD@?0DEX?$FLBASIC?$FN?3?$AA@	; `string'
PUBLIC	??_C@_0N@COBCGCBH@?0INT?$FLBASIC?$FN?3?$AA@	; `string'
PUBLIC	??_C@_04CKFJEKPM@?0HP?3?$AA@			; `string'
PUBLIC	??_C@_01KMDKNFGN@?1?$AA@			; `string'
PUBLIC	??_C@_06DFEIPOOA@?0Rank?3?$AA@			; `string'
PUBLIC	??_C@_05HBJDHCHC@?0Exp?3?$AA@			; `string'
PUBLIC	??_C@_06LFCEDMIJ@?0Fame?3?$AA@			; `string'
PUBLIC	??_C@_0L@DNCHKMJB@?0ArmColor?3?$AA@		; `string'
EXTRN	??0StringStream@@QAE@XZ:NEAR			; StringStream::StringStream
EXTRN	??1StringStream@@QAE@XZ:NEAR			; StringStream::~StringStream
EXTRN	??6StringStream@@QAEAAV0@E@Z:NEAR		; StringStream::operator<<
EXTRN	??6StringStream@@QAEAAV0@G@Z:NEAR		; StringStream::operator<<
EXTRN	??6StringStream@@QAEAAV0@H@Z:NEAR		; StringStream::operator<<
EXTRN	??6StringStream@@QAEAAV0@K@Z:NEAR		; StringStream::operator<<
EXTRN	??6StringStream@@QAEAAV0@PBD@Z:NEAR		; StringStream::operator<<
EXTRN	??6StringStream@@QAEAAV0@ABV?$basic_string@DV?$char_traits@D@_STL@@V?$allocator@D@2@@_STL@@@Z:NEAR ; StringStream::operator<<
EXTRN	?toString@StringStream@@QBE?AV?$basic_string@DV?$char_traits@D@_STL@@V?$allocator@D@2@@_STL@@XZ:NEAR ; StringStream::toString
;	COMDAT ??_C@_01PKGAHCOL@?$CJ?$AA@
; File c:\darkeden\designed_common\project\client\packet\pcvampireinfo.cpp
CONST	SEGMENT
??_C@_01PKGAHCOL@?$CJ?$AA@ DB ')', 00H			; `string'
CONST	ENDS
;	COMDAT ??_C@_0L@DNCHKMJB@?0ArmColor?3?$AA@
CONST	SEGMENT
??_C@_0L@DNCHKMJB@?0ArmColor?3?$AA@ DB ',ArmColor:', 00H ; `string'
CONST	ENDS
;	COMDAT ??_C@_06LFCEDMIJ@?0Fame?3?$AA@
CONST	SEGMENT
??_C@_06LFCEDMIJ@?0Fame?3?$AA@ DB ',Fame:', 00H		; `string'
CONST	ENDS
;	COMDAT ??_C@_05HBJDHCHC@?0Exp?3?$AA@
CONST	SEGMENT
??_C@_05HBJDHCHC@?0Exp?3?$AA@ DB ',Exp:', 00H		; `string'
CONST	ENDS
;	COMDAT ??_C@_06DFEIPOOA@?0Rank?3?$AA@
CONST	SEGMENT
??_C@_06DFEIPOOA@?0Rank?3?$AA@ DB ',Rank:', 00H		; `string'
CONST	ENDS
;	COMDAT ??_C@_01KMDKNFGN@?1?$AA@
CONST	SEGMENT
??_C@_01KMDKNFGN@?1?$AA@ DB '/', 00H			; `string'
CONST	ENDS
;	COMDAT ??_C@_04CKFJEKPM@?0HP?3?$AA@
CONST	SEGMENT
??_C@_04CKFJEKPM@?0HP?3?$AA@ DB ',HP:', 00H		; `string'
CONST	ENDS
;	COMDAT ??_C@_0N@COBCGCBH@?0INT?$FLBASIC?$FN?3?$AA@
CONST	SEGMENT
??_C@_0N@COBCGCBH@?0INT?$FLBASIC?$FN?3?$AA@ DB ',INT[BASIC]:', 00H ; `string'
CONST	ENDS
;	COMDAT ??_C@_0N@IJKAAEDD@?0DEX?$FLBASIC?$FN?3?$AA@
CONST	SEGMENT
??_C@_0N@IJKAAEDD@?0DEX?$FLBASIC?$FN?3?$AA@ DB ',DEX[BASIC]:', 00H ; `string'
CONST	ENDS
;	COMDAT ??_C@_0N@IJHKILIC@?0STR?$FLBASIC?$FN?3?$AA@
CONST	SEGMENT
??_C@_0N@IJHKILIC@?0STR?$FLBASIC?$FN?3?$AA@ DB ',STR[BASIC]:', 00H ; `string'
CONST	ENDS
;	COMDAT ??_C@_09OHLOGHCK@?0ArmType?3?$AA@
CONST	SEGMENT
??_C@_09OHLOGHCK@?0ArmType?3?$AA@ DB ',ArmType:', 00H	; `string'
CONST	ENDS
;	COMDAT ??_C@_0M@FEEPEIEC@?0CoatColor?3?$AA@
CONST	SEGMENT
??_C@_0M@FEEPEIEC@?0CoatColor?3?$AA@ DB ',CoatColor:', 00H ; `string'
CONST	ENDS
;	COMDAT ??_C@_0L@IJJIEKLJ@?0CoatType?3?$AA@
CONST	SEGMENT
??_C@_0L@IJJIEKLJ@?0CoatType?3?$AA@ DB ',CoatType:', 00H ; `string'
CONST	ENDS
;	COMDAT ??_C@_0M@KFPBKDAI@?0SkinColor?3?$AA@
CONST	SEGMENT
??_C@_0M@KFPBKDAI@?0SkinColor?3?$AA@ DB ',SkinColor:', 00H ; `string'
CONST	ENDS
;	COMDAT ??_C@_0L@CAKJEDCG@?0BatColor?3?$AA@
CONST	SEGMENT
??_C@_0L@CAKJEDCG@?0BatColor?3?$AA@ DB ',BatColor:', 00H ; `string'
CONST	ENDS
;	COMDAT ??_C@_05DCFDMOKK@?0Sex?3?$AA@
CONST	SEGMENT
??_C@_05DCFDMOKK@?0Sex?3?$AA@ DB ',Sex:', 00H		; `string'
CONST	ENDS
;	COMDAT ??_C@_0M@PMHLFOKB@?0Alignment?3?$AA@
CONST	SEGMENT
??_C@_0M@PMHLFOKB@?0Alignment?3?$AA@ DB ',Alignment:', 00H ; `string'
CONST	ENDS
;	COMDAT ??_C@_06KJECGKNM@?0Slot?3?$AA@
CONST	SEGMENT
??_C@_06KJECGKNM@?0Slot?3?$AA@ DB ',Slot:', 00H		; `string'
CONST	ENDS
;	COMDAT ??_C@_07PBJICIAI@?0Level?3?$AA@
CONST	SEGMENT
??_C@_07PBJICIAI@?0Level?3?$AA@ DB ',Level:', 00H	; `string'
CONST	ENDS
;	COMDAT ??_C@_05HNMEJDNB@Name?3?$AA@
CONST	SEGMENT
??_C@_05HNMEJDNB@Name?3?$AA@ DB 'Name:', 00H		; `string'
CONST	ENDS
;	COMDAT ??_C@_0P@CFAJIGNM@PCVampireInfo?$CI?$AA@
CONST	SEGMENT
??_C@_0P@CFAJIGNM@PCVampireInfo?$CI?$AA@ DB 'PCVampireInfo(', 00H ; `string'
; Function compile flags: /Ogsy
CONST	ENDS
;	COMDAT ?toString@PCVampireInfo@@QBE?AV?$basic_string@DV?$char_traits@D@_STL@@V?$allocator@D@2@@_STL@@XZ
_TEXT	SEGMENT
_msg$ = -20						; size = 20
___$ReturnUdt$ = 8					; size = 4
?toString@PCVampireInfo@@QBE?AV?$basic_string@DV?$char_traits@D@_STL@@V?$allocator@D@2@@_STL@@XZ PROC NEAR ; PCVampireInfo::toString, COMDAT
; _this$ = ecx

; 223  : {

  00000	55		 push	 ebp
  00001	8b ec		 mov	 ebp, esp
  00003	83 ec 14	 sub	 esp, 20			; 00000014H
  00006	56		 push	 esi
  00007	8b f1		 mov	 esi, ecx

; 224  : 
; 225  : 	StringStream msg;

  00009	8d 4d ec	 lea	 ecx, DWORD PTR _msg$[ebp]
  0000c	e8 00 00 00 00	 call	 ??0StringStream@@QAE@XZ	; StringStream::StringStream

; 226  : 
; 227  : 	msg << "PCVampireInfo("
; 228  : 		<< "Name:" << m_Name
; 229  : 		<< ",Level:" << (int)m_Level
; 230  : 		<< ",Slot:" << Slot2String[m_Slot]
; 231  : 		<< ",Alignment:" << m_Alignment
; 232  : 		<< ",Sex:" << Sex2String[m_Sex]
; 233  : 		<< ",BatColor:" << (int)m_BatColor
; 234  : 		<< ",SkinColor:" << (int)m_SkinColor
; 235  : 		<< ",CoatType:" << (int)m_CoatType
; 236  : 		<< ",CoatColor:" << (int)m_CoatColor
; 237  : 		<< ",ArmType:" << (int)m_ArmType
; 238  : 		<< ",STR[BASIC]:" << (int)m_STR
; 239  : 		<< ",DEX[BASIC]:" << (int)m_DEX
; 240  : 		<< ",INT[BASIC]:" << (int)m_INT
; 241  : 		<< ",HP:" << m_HP[ATTR_CURRENT] << "/" << m_HP[ATTR_MAX]
; 242  : 		<< ",Rank:" << m_Rank
; 243  : 		<< ",Exp:" << m_Exp
; 244  : //		<< ",Gold:" << m_Gold
; 245  : 		<< ",Fame:" << m_Fame
; 246  : //		<< ",ZoneID:" << m_ZoneID
; 247  : 		<< ",ArmColor:" << m_ArmColor
; 248  : 		<< ")";

  00011	68 00 00 00 00	 push	 OFFSET FLAT:??_C@_01PKGAHCOL@?$CJ?$AA@
  00016	33 c0		 xor	 eax, eax
  00018	66 8b 46 40	 mov	 ax, WORD PTR [esi+64]
  0001c	83 c6 04	 add	 esi, 4
  0001f	8d 4d ec	 lea	 ecx, DWORD PTR _msg$[ebp]
  00022	50		 push	 eax
  00023	68 00 00 00 00	 push	 OFFSET FLAT:??_C@_0L@DNCHKMJB@?0ArmColor?3?$AA@
  00028	ff 76 40	 push	 DWORD PTR [esi+64]
  0002b	33 c0		 xor	 eax, eax
  0002d	8a 46 20	 mov	 al, BYTE PTR [esi+32]
  00030	68 00 00 00 00	 push	 OFFSET FLAT:??_C@_06LFCEDMIJ@?0Fame?3?$AA@
  00035	ff 76 34	 push	 DWORD PTR [esi+52]
  00038	68 00 00 00 00	 push	 OFFSET FLAT:??_C@_05HBJDHCHC@?0Exp?3?$AA@
  0003d	50		 push	 eax
  0003e	68 00 00 00 00	 push	 OFFSET FLAT:??_C@_06DFEIPOOA@?0Rank?3?$AA@
  00043	ff 76 30	 push	 DWORD PTR [esi+48]
  00046	0f b7 46 28	 movzx	 eax, WORD PTR [esi+40]
  0004a	68 00 00 00 00	 push	 OFFSET FLAT:??_C@_01KMDKNFGN@?1?$AA@
  0004f	ff 76 2c	 push	 DWORD PTR [esi+44]
  00052	68 00 00 00 00	 push	 OFFSET FLAT:??_C@_04CKFJEKPM@?0HP?3?$AA@
  00057	50		 push	 eax
  00058	0f b7 46 26	 movzx	 eax, WORD PTR [esi+38]
  0005c	68 00 00 00 00	 push	 OFFSET FLAT:??_C@_0N@COBCGCBH@?0INT?$FLBASIC?$FN?3?$AA@
  00061	50		 push	 eax
  00062	0f b7 46 24	 movzx	 eax, WORD PTR [esi+36]
  00066	68 00 00 00 00	 push	 OFFSET FLAT:??_C@_0N@IJKAAEDD@?0DEX?$FLBASIC?$FN?3?$AA@
  0006b	50		 push	 eax
  0006c	0f b7 46 1e	 movzx	 eax, WORD PTR [esi+30]
  00070	68 00 00 00 00	 push	 OFFSET FLAT:??_C@_0N@IJHKILIC@?0STR?$FLBASIC?$FN?3?$AA@
  00075	ff 76 38	 push	 DWORD PTR [esi+56]
  00078	68 00 00 00 00	 push	 OFFSET FLAT:??_C@_09OHLOGHCK@?0ArmType?3?$AA@
  0007d	50		 push	 eax
  0007e	0f b7 46 1c	 movzx	 eax, WORD PTR [esi+28]
  00082	68 00 00 00 00	 push	 OFFSET FLAT:??_C@_0M@FEEPEIEC@?0CoatColor?3?$AA@
  00087	50		 push	 eax
  00088	0f b7 46 1a	 movzx	 eax, WORD PTR [esi+26]
  0008c	68 00 00 00 00	 push	 OFFSET FLAT:??_C@_0L@IJJIEKLJ@?0CoatType?3?$AA@
  00091	50		 push	 eax
  00092	0f b7 46 18	 movzx	 eax, WORD PTR [esi+24]
  00096	68 00 00 00 00	 push	 OFFSET FLAT:??_C@_0M@KFPBKDAI@?0SkinColor?3?$AA@
  0009b	50		 push	 eax
  0009c	8b 46 14	 mov	 eax, DWORD PTR [esi+20]
  0009f	68 00 00 00 00	 push	 OFFSET FLAT:??_C@_0L@CAKJEDCG@?0BatColor?3?$AA@
  000a4	8d 04 40	 lea	 eax, DWORD PTR [eax+eax*2]
  000a7	8d 04 85 00 00
	00 00		 lea	 eax, DWORD PTR _Sex2String[eax*4]
  000ae	50		 push	 eax
  000af	8b 46 0c	 mov	 eax, DWORD PTR [esi+12]
  000b2	68 00 00 00 00	 push	 OFFSET FLAT:??_C@_05DCFDMOKK@?0Sex?3?$AA@
  000b7	ff 76 10	 push	 DWORD PTR [esi+16]
  000ba	8d 04 40	 lea	 eax, DWORD PTR [eax+eax*2]
  000bd	68 00 00 00 00	 push	 OFFSET FLAT:??_C@_0M@PMHLFOKB@?0Alignment?3?$AA@
  000c2	8d 04 85 00 00
	00 00		 lea	 eax, DWORD PTR _Slot2String[eax*4]
  000c9	50		 push	 eax
  000ca	0f b7 46 22	 movzx	 eax, WORD PTR [esi+34]
  000ce	68 00 00 00 00	 push	 OFFSET FLAT:??_C@_06KJECGKNM@?0Slot?3?$AA@
  000d3	50		 push	 eax
  000d4	68 00 00 00 00	 push	 OFFSET FLAT:??_C@_07PBJICIAI@?0Level?3?$AA@
  000d9	56		 push	 esi
  000da	68 00 00 00 00	 push	 OFFSET FLAT:??_C@_05HNMEJDNB@Name?3?$AA@
  000df	68 00 00 00 00	 push	 OFFSET FLAT:??_C@_0P@CFAJIGNM@PCVampireInfo?$CI?$AA@
  000e4	e8 00 00 00 00	 call	 ??6StringStream@@QAEAAV0@PBD@Z ; StringStream::operator<<
  000e9	8b c8		 mov	 ecx, eax
  000eb	e8 00 00 00 00	 call	 ??6StringStream@@QAEAAV0@PBD@Z ; StringStream::operator<<
  000f0	8b c8		 mov	 ecx, eax
  000f2	e8 00 00 00 00	 call	 ??6StringStream@@QAEAAV0@ABV?$basic_string@DV?$char_traits@D@_STL@@V?$allocator@D@2@@_STL@@@Z ; StringStream::operator<<
  000f7	8b c8		 mov	 ecx, eax
  000f9	e8 00 00 00 00	 call	 ??6StringStream@@QAEAAV0@PBD@Z ; StringStream::operator<<
  000fe	8b c8		 mov	 ecx, eax
  00100	e8 00 00 00 00	 call	 ??6StringStream@@QAEAAV0@H@Z ; StringStream::operator<<
  00105	8b c8		 mov	 ecx, eax
  00107	e8 00 00 00 00	 call	 ??6StringStream@@QAEAAV0@PBD@Z ; StringStream::operator<<
  0010c	8b c8		 mov	 ecx, eax
  0010e	e8 00 00 00 00	 call	 ??6StringStream@@QAEAAV0@ABV?$basic_string@DV?$char_traits@D@_STL@@V?$allocator@D@2@@_STL@@@Z ; StringStream::operator<<
  00113	8b c8		 mov	 ecx, eax
  00115	e8 00 00 00 00	 call	 ??6StringStream@@QAEAAV0@PBD@Z ; StringStream::operator<<
  0011a	8b c8		 mov	 ecx, eax
  0011c	e8 00 00 00 00	 call	 ??6StringStream@@QAEAAV0@H@Z ; StringStream::operator<<
  00121	8b c8		 mov	 ecx, eax
  00123	e8 00 00 00 00	 call	 ??6StringStream@@QAEAAV0@PBD@Z ; StringStream::operator<<
  00128	8b c8		 mov	 ecx, eax
  0012a	e8 00 00 00 00	 call	 ??6StringStream@@QAEAAV0@ABV?$basic_string@DV?$char_traits@D@_STL@@V?$allocator@D@2@@_STL@@@Z ; StringStream::operator<<
  0012f	8b c8		 mov	 ecx, eax
  00131	e8 00 00 00 00	 call	 ??6StringStream@@QAEAAV0@PBD@Z ; StringStream::operator<<
  00136	8b c8		 mov	 ecx, eax
  00138	e8 00 00 00 00	 call	 ??6StringStream@@QAEAAV0@H@Z ; StringStream::operator<<
  0013d	8b c8		 mov	 ecx, eax
  0013f	e8 00 00 00 00	 call	 ??6StringStream@@QAEAAV0@PBD@Z ; StringStream::operator<<
  00144	8b c8		 mov	 ecx, eax
  00146	e8 00 00 00 00	 call	 ??6StringStream@@QAEAAV0@H@Z ; StringStream::operator<<
  0014b	8b c8		 mov	 ecx, eax
  0014d	e8 00 00 00 00	 call	 ??6StringStream@@QAEAAV0@PBD@Z ; StringStream::operator<<
  00152	8b c8		 mov	 ecx, eax
  00154	e8 00 00 00 00	 call	 ??6StringStream@@QAEAAV0@H@Z ; StringStream::operator<<
  00159	8b c8		 mov	 ecx, eax
  0015b	e8 00 00 00 00	 call	 ??6StringStream@@QAEAAV0@PBD@Z ; StringStream::operator<<
  00160	8b c8		 mov	 ecx, eax
  00162	e8 00 00 00 00	 call	 ??6StringStream@@QAEAAV0@H@Z ; StringStream::operator<<
  00167	8b c8		 mov	 ecx, eax
  00169	e8 00 00 00 00	 call	 ??6StringStream@@QAEAAV0@PBD@Z ; StringStream::operator<<
  0016e	8b c8		 mov	 ecx, eax
  00170	e8 00 00 00 00	 call	 ??6StringStream@@QAEAAV0@H@Z ; StringStream::operator<<
  00175	8b c8		 mov	 ecx, eax
  00177	e8 00 00 00 00	 call	 ??6StringStream@@QAEAAV0@PBD@Z ; StringStream::operator<<
  0017c	8b c8		 mov	 ecx, eax
  0017e	e8 00 00 00 00	 call	 ??6StringStream@@QAEAAV0@H@Z ; StringStream::operator<<
  00183	8b c8		 mov	 ecx, eax
  00185	e8 00 00 00 00	 call	 ??6StringStream@@QAEAAV0@PBD@Z ; StringStream::operator<<
  0018a	8b c8		 mov	 ecx, eax
  0018c	e8 00 00 00 00	 call	 ??6StringStream@@QAEAAV0@H@Z ; StringStream::operator<<
  00191	8b c8		 mov	 ecx, eax
  00193	e8 00 00 00 00	 call	 ??6StringStream@@QAEAAV0@PBD@Z ; StringStream::operator<<
  00198	8b c8		 mov	 ecx, eax
  0019a	e8 00 00 00 00	 call	 ??6StringStream@@QAEAAV0@H@Z ; StringStream::operator<<
  0019f	8b c8		 mov	 ecx, eax
  001a1	e8 00 00 00 00	 call	 ??6StringStream@@QAEAAV0@PBD@Z ; StringStream::operator<<
  001a6	8b c8		 mov	 ecx, eax
  001a8	e8 00 00 00 00	 call	 ??6StringStream@@QAEAAV0@K@Z ; StringStream::operator<<
  001ad	8b c8		 mov	 ecx, eax
  001af	e8 00 00 00 00	 call	 ??6StringStream@@QAEAAV0@PBD@Z ; StringStream::operator<<
  001b4	8b c8		 mov	 ecx, eax
  001b6	e8 00 00 00 00	 call	 ??6StringStream@@QAEAAV0@K@Z ; StringStream::operator<<
  001bb	8b c8		 mov	 ecx, eax
  001bd	e8 00 00 00 00	 call	 ??6StringStream@@QAEAAV0@PBD@Z ; StringStream::operator<<
  001c2	8b c8		 mov	 ecx, eax
  001c4	e8 00 00 00 00	 call	 ??6StringStream@@QAEAAV0@E@Z ; StringStream::operator<<
  001c9	8b c8		 mov	 ecx, eax
  001cb	e8 00 00 00 00	 call	 ??6StringStream@@QAEAAV0@PBD@Z ; StringStream::operator<<
  001d0	8b c8		 mov	 ecx, eax
  001d2	e8 00 00 00 00	 call	 ??6StringStream@@QAEAAV0@K@Z ; StringStream::operator<<
  001d7	8b c8		 mov	 ecx, eax
  001d9	e8 00 00 00 00	 call	 ??6StringStream@@QAEAAV0@PBD@Z ; StringStream::operator<<
  001de	8b c8		 mov	 ecx, eax
  001e0	e8 00 00 00 00	 call	 ??6StringStream@@QAEAAV0@K@Z ; StringStream::operator<<
  001e5	8b c8		 mov	 ecx, eax
  001e7	e8 00 00 00 00	 call	 ??6StringStream@@QAEAAV0@PBD@Z ; StringStream::operator<<
  001ec	8b c8		 mov	 ecx, eax
  001ee	e8 00 00 00 00	 call	 ??6StringStream@@QAEAAV0@G@Z ; StringStream::operator<<
  001f3	8b c8		 mov	 ecx, eax
  001f5	e8 00 00 00 00	 call	 ??6StringStream@@QAEAAV0@PBD@Z ; StringStream::operator<<

; 249  : 
; 250  : 	return msg.toString();

  001fa	ff 75 08	 push	 DWORD PTR ___$ReturnUdt$[ebp]
  001fd	8d 4d ec	 lea	 ecx, DWORD PTR _msg$[ebp]
  00200	e8 00 00 00 00	 call	 ?toString@StringStream@@QBE?AV?$basic_string@DV?$char_traits@D@_STL@@V?$allocator@D@2@@_STL@@XZ ; StringStream::toString
  00205	8d 4d ec	 lea	 ecx, DWORD PTR _msg$[ebp]
  00208	e8 00 00 00 00	 call	 ??1StringStream@@QAE@XZ	; StringStream::~StringStream
  0020d	8b 45 08	 mov	 eax, DWORD PTR ___$ReturnUdt$[ebp]
  00210	5e		 pop	 esi

; 251  : }

  00211	c9		 leave
  00212	c2 04 00	 ret	 4
?toString@PCVampireInfo@@QBE?AV?$basic_string@DV?$char_traits@D@_STL@@V?$allocator@D@2@@_STL@@XZ ENDP ; PCVampireInfo::toString
_TEXT	ENDS
PUBLIC	??$_M_range_initialize@PAD@?$basic_string@DV?$char_traits@D@_STL@@V?$allocator@D@2@@_STL@@AAEXPAD0@Z ; _STL::basic_string<char,_STL::char_traits<char>,_STL::allocator<char> >::_M_range_initialize<char *>
; Function compile flags: /Ogsy
; File c:\stlport-4.6.1\stlport\stl\_string.h
;	COMDAT ??$_M_range_initialize@PAD@?$basic_string@DV?$char_traits@D@_STL@@V?$allocator@D@2@@_STL@@AAEXPAD0@Z
_TEXT	SEGMENT
___f$ = 8						; size = 4
___l$ = 12						; size = 4
$T101759 = 15						; size = 1
??$_M_range_initialize@PAD@?$basic_string@DV?$char_traits@D@_STL@@V?$allocator@D@2@@_STL@@AAEXPAD0@Z PROC NEAR ; _STL::basic_string<char,_STL::char_traits<char>,_STL::allocator<char> >::_M_range_initialize<char *>, COMDAT
; _this$ = ecx

; 390  :   template <class _InputIter> void _M_range_initialize(_InputIter __f, _InputIter __l) {

  00000	55		 push	 ebp
  00001	8b ec		 mov	 ebp, esp

; 391  :     _M_range_initialize(__f, __l, _STLP_ITERATOR_CATEGORY(__f, _InputIter));

  00003	8d 45 0f	 lea	 eax, DWORD PTR $T101759[ebp]
  00006	50		 push	 eax
  00007	ff 75 0c	 push	 DWORD PTR ___l$[ebp]
  0000a	ff 75 08	 push	 DWORD PTR ___f$[ebp]
  0000d	e8 00 00 00 00	 call	 ??$_M_range_initialize@PAD@?$basic_string@DV?$char_traits@D@_STL@@V?$allocator@D@2@@_STL@@AAEXPAD0ABUforward_iterator_tag@1@@Z ; _STL::basic_string<char,_STL::char_traits<char>,_STL::allocator<char> >::_M_range_initialize<char *>

; 392  :   }

  00012	5d		 pop	 ebp
  00013	c2 08 00	 ret	 8
??$_M_range_initialize@PAD@?$basic_string@DV?$char_traits@D@_STL@@V?$allocator@D@2@@_STL@@AAEXPAD0@Z ENDP ; _STL::basic_string<char,_STL::char_traits<char>,_STL::allocator<char> >::_M_range_initialize<char *>
_TEXT	ENDS
PUBLIC	??_G?$basic_string@DV?$char_traits@D@_STL@@V?$allocator@D@2@@_STL@@QAEPAXI@Z ; _STL::basic_string<char,_STL::char_traits<char>,_STL::allocator<char> >::`scalar deleting destructor'
; Function compile flags: /Ogsy
;	COMDAT ??_G?$basic_string@DV?$char_traits@D@_STL@@V?$allocator@D@2@@_STL@@QAEPAXI@Z
_TEXT	SEGMENT
___flags$ = 8						; size = 4
??_G?$basic_string@DV?$char_traits@D@_STL@@V?$allocator@D@2@@_STL@@QAEPAXI@Z PROC NEAR ; _STL::basic_string<char,_STL::char_traits<char>,_STL::allocator<char> >::`scalar deleting destructor', COMDAT
; _this$ = ecx
  00000	56		 push	 esi
  00001	8b f1		 mov	 esi, ecx
  00003	e8 00 00 00 00	 call	 ??1?$basic_string@DV?$char_traits@D@_STL@@V?$allocator@D@2@@_STL@@QAE@XZ ; _STL::basic_string<char,_STL::char_traits<char>,_STL::allocator<char> >::~basic_string<char,_STL::char_traits<char>,_STL::allocator<char> >
  00008	f6 44 24 08 01	 test	 BYTE PTR ___flags$[esp], 1
  0000d	74 07		 je	 SHORT $L100543
  0000f	56		 push	 esi
  00010	e8 00 00 00 00	 call	 ??3@YAXPAX@Z		; operator delete
  00015	59		 pop	 ecx
$L100543:
  00016	8b c6		 mov	 eax, esi
  00018	5e		 pop	 esi
  00019	c2 04 00	 ret	 4
??_G?$basic_string@DV?$char_traits@D@_STL@@V?$allocator@D@2@@_STL@@QAEPAXI@Z ENDP ; _STL::basic_string<char,_STL::char_traits<char>,_STL::allocator<char> >::`scalar deleting destructor'
_TEXT	ENDS
PUBLIC	??0?$basic_string@DV?$char_traits@D@_STL@@V?$allocator@D@2@@_STL@@QAE@ABV01@@Z ; _STL::basic_string<char,_STL::char_traits<char>,_STL::allocator<char> >::basic_string<char,_STL::char_traits<char>,_STL::allocator<char> >
;	COMDAT xdata$x
xdata$x	SEGMENT
$T101780 DD	0ffffffffH
	DD	FLAT:$L101766
$T101778 DD	019930520H
	DD	01H
	DD	FLAT:$T101780
	DD	2 DUP(00H)
	DD	2 DUP(00H)
; Function compile flags: /Ogsy
; File c:\stlport-4.6.1\stlport\stl\_string.c
xdata$x	ENDS
;	COMDAT ??0?$basic_string@DV?$char_traits@D@_STL@@V?$allocator@D@2@@_STL@@QAE@ABV01@@Z
_TEXT	SEGMENT
_this$ = -16						; size = 4
__$EHRec$ = -12						; size = 12
___s$ = 8						; size = 4
$T101774 = 11						; size = 1
$T101765 = 11						; size = 1
??0?$basic_string@DV?$char_traits@D@_STL@@V?$allocator@D@2@@_STL@@QAE@ABV01@@Z PROC NEAR ; _STL::basic_string<char,_STL::char_traits<char>,_STL::allocator<char> >::basic_string<char,_STL::char_traits<char>,_STL::allocator<char> >, COMDAT
; _this$ = ecx

; 560  : {  

  00000	b8 00 00 00 00	 mov	 eax, __ehhandler$??0?$basic_string@DV?$char_traits@D@_STL@@V?$allocator@D@2@@_STL@@QAE@ABV01@@Z
  00005	e8 00 00 00 00	 call	 __EH_prolog
  0000a	51		 push	 ecx
  0000b	56		 push	 esi
  0000c	8b 75 08	 mov	 esi, DWORD PTR ___s$[ebp]
  0000f	57		 push	 edi
  00010	8b f9		 mov	 edi, ecx
  00012	8d 45 0b	 lea	 eax, DWORD PTR $T101765[ebp]
  00015	50		 push	 eax
  00016	8b ce		 mov	 ecx, esi
  00018	89 7d f0	 mov	 DWORD PTR _this$[ebp], edi
  0001b	e8 00 00 00 00	 call	 ?get_allocator@?$basic_string@DV?$char_traits@D@_STL@@V?$allocator@D@2@@_STL@@QBE?AV?$allocator@D@2@XZ ; _STL::basic_string<char,_STL::char_traits<char>,_STL::allocator<char> >::get_allocator
  00020	50		 push	 eax
  00021	8b cf		 mov	 ecx, edi
  00023	e8 00 00 00 00	 call	 ??0?$_String_base@DV?$allocator@D@_STL@@@_STL@@QAE@ABV?$allocator@D@1@@Z ; _STL::_String_base<char,_STL::allocator<char> >::_String_base<char,_STL::allocator<char> >
  00028	83 65 fc 00	 and	 DWORD PTR __$EHRec$[ebp+8], 0

; 561  :   _M_range_initialize(__s._M_start, __s._M_finish);  

  0002c	8d 45 0b	 lea	 eax, DWORD PTR $T101774[ebp]
  0002f	50		 push	 eax
  00030	ff 76 04	 push	 DWORD PTR [esi+4]
  00033	8b cf		 mov	 ecx, edi
  00035	ff 36		 push	 DWORD PTR [esi]
  00037	e8 00 00 00 00	 call	 ??$_M_range_initialize@PAD@?$basic_string@DV?$char_traits@D@_STL@@V?$allocator@D@2@@_STL@@AAEXPAD0ABUforward_iterator_tag@1@@Z ; _STL::basic_string<char,_STL::char_traits<char>,_STL::allocator<char> >::_M_range_initialize<char *>

; 562  : } 

  0003c	8b 4d f4	 mov	 ecx, DWORD PTR __$EHRec$[ebp]
  0003f	8b c7		 mov	 eax, edi
  00041	5f		 pop	 edi
  00042	5e		 pop	 esi
  00043	64 89 0d 00 00
	00 00		 mov	 DWORD PTR fs:__except_list, ecx
  0004a	c9		 leave
  0004b	c2 04 00	 ret	 4
_TEXT	ENDS
;	COMDAT text$x
text$x	SEGMENT
$L101766:
  00000	8b 4d f0	 mov	 ecx, DWORD PTR _this$[ebp]
  00003	e9 00 00 00 00	 jmp	 ??1?$_String_base@DV?$allocator@D@_STL@@@_STL@@QAE@XZ ; _STL::_String_base<char,_STL::allocator<char> >::~_String_base<char,_STL::allocator<char> >
__ehhandler$??0?$basic_string@DV?$char_traits@D@_STL@@V?$allocator@D@2@@_STL@@QAE@ABV01@@Z:
  00008	b8 00 00 00 00	 mov	 eax, OFFSET FLAT:$T101778
  0000d	e9 00 00 00 00	 jmp	 ___CxxFrameHandler
text$x	ENDS
??0?$basic_string@DV?$char_traits@D@_STL@@V?$allocator@D@2@@_STL@@QAE@ABV01@@Z ENDP ; _STL::basic_string<char,_STL::char_traits<char>,_STL::allocator<char> >::basic_string<char,_STL::char_traits<char>,_STL::allocator<char> >
PUBLIC	??$_Construct@V?$basic_string@DV?$char_traits@D@_STL@@V?$allocator@D@2@@_STL@@V12@@_STL@@YAXPAV?$basic_string@DV?$char_traits@D@_STL@@V?$allocator@D@2@@0@ABV10@@Z ; _STL::_Construct<_STL::basic_string<char,_STL::char_traits<char>,_STL::allocator<char> >,_STL::basic_string<char,_STL::char_traits<char>,_STL::allocator<char> > >
;	COMDAT xdata$x
; File c:\program files\microsoft visual studio .net 2003\vc7\include\new
xdata$x	SEGMENT
$T101796 DD	0ffffffffH
	DD	FLAT:$L101789
$T101794 DD	019930520H
	DD	01H
	DD	FLAT:$T101796
	DD	2 DUP(00H)
	DD	2 DUP(00H)
; Function compile flags: /Ogsy
; File c:\stlport-4.6.1\stlport\stl\_construct.h
xdata$x	ENDS
;	COMDAT ??$_Construct@V?$basic_string@DV?$char_traits@D@_STL@@V?$allocator@D@2@@_STL@@V12@@_STL@@YAXPAV?$basic_string@DV?$char_traits@D@_STL@@V?$allocator@D@2@@0@ABV10@@Z
_TEXT	SEGMENT
$T101786 = -16						; size = 4
__$EHRec$ = -12						; size = 12
___p$ = 8						; size = 4
___val$ = 12						; size = 4
??$_Construct@V?$basic_string@DV?$char_traits@D@_STL@@V?$allocator@D@2@@_STL@@V12@@_STL@@YAXPAV?$basic_string@DV?$char_traits@D@_STL@@V?$allocator@D@2@@0@ABV10@@Z PROC NEAR ; _STL::_Construct<_STL::basic_string<char,_STL::char_traits<char>,_STL::allocator<char> >,_STL::basic_string<char,_STL::char_traits<char>,_STL::allocator<char> > >, COMDAT

; 93   : inline void _Construct(_T1* __p, const _T2& __val) {

  00000	b8 00 00 00 00	 mov	 eax, __ehhandler$??$_Construct@V?$basic_string@DV?$char_traits@D@_STL@@V?$allocator@D@2@@_STL@@V12@@_STL@@YAXPAV?$basic_string@DV?$char_traits@D@_STL@@V?$allocator@D@2@@0@ABV10@@Z
  00005	e8 00 00 00 00	 call	 __EH_prolog
  0000a	51		 push	 ecx

; 94   : # ifdef _STLP_DEBUG_UNINITIALIZED
; 95   : 	memset((char*)__p, _STLP_SHRED_BYTE, sizeof(_T1));
; 96   : # endif
; 97   :     _STLP_PLACEMENT_NEW (__p) _T1(__val);

  0000b	8b 4d 08	 mov	 ecx, DWORD PTR ___p$[ebp]
  0000e	89 4d f0	 mov	 DWORD PTR $T101786[ebp], ecx
  00011	83 65 fc 00	 and	 DWORD PTR __$EHRec$[ebp+8], 0
  00015	85 c9		 test	 ecx, ecx
  00017	74 08		 je	 SHORT $L101787
  00019	ff 75 0c	 push	 DWORD PTR ___val$[ebp]
  0001c	e8 00 00 00 00	 call	 ??0?$basic_string@DV?$char_traits@D@_STL@@V?$allocator@D@2@@_STL@@QAE@ABV01@@Z ; _STL::basic_string<char,_STL::char_traits<char>,_STL::allocator<char> >::basic_string<char,_STL::char_traits<char>,_STL::allocator<char> >
$L101787:

; 98   : }

  00021	8b 4d f4	 mov	 ecx, DWORD PTR __$EHRec$[ebp]
  00024	64 89 0d 00 00
	00 00		 mov	 DWORD PTR fs:__except_list, ecx
  0002b	c9		 leave
  0002c	c3		 ret	 0
_TEXT	ENDS
;	COMDAT text$x
text$x	SEGMENT
$L101789:
  00000	ff 75 08	 push	 DWORD PTR ___p$[ebp]
  00003	ff 75 f0	 push	 DWORD PTR $T101786[ebp]
  00006	e8 00 00 00 00	 call	 ??3@YAXPAX0@Z		; operator delete
  0000b	59		 pop	 ecx
  0000c	59		 pop	 ecx
  0000d	c3		 ret	 0
__ehhandler$??$_Construct@V?$basic_string@DV?$char_traits@D@_STL@@V?$allocator@D@2@@_STL@@V12@@_STL@@YAXPAV?$basic_string@DV?$char_traits@D@_STL@@V?$allocator@D@2@@0@ABV10@@Z:
  0000e	b8 00 00 00 00	 mov	 eax, OFFSET FLAT:$T101794
  00013	e9 00 00 00 00	 jmp	 ___CxxFrameHandler
text$x	ENDS
??$_Construct@V?$basic_string@DV?$char_traits@D@_STL@@V?$allocator@D@2@@_STL@@V12@@_STL@@YAXPAV?$basic_string@DV?$char_traits@D@_STL@@V?$allocator@D@2@@0@ABV10@@Z ENDP ; _STL::_Construct<_STL::basic_string<char,_STL::char_traits<char>,_STL::allocator<char> >,_STL::basic_string<char,_STL::char_traits<char>,_STL::allocator<char> > >
PUBLIC	??$_Destroy@V?$basic_string@DV?$char_traits@D@_STL@@V?$allocator@D@2@@_STL@@@_STL@@YAXPAV?$basic_string@DV?$char_traits@D@_STL@@V?$allocator@D@2@@0@@Z ; _STL::_Destroy<_STL::basic_string<char,_STL::char_traits<char>,_STL::allocator<char> > >
; Function compile flags: /Ogsy
;	COMDAT ??$_Destroy@V?$basic_string@DV?$char_traits@D@_STL@@V?$allocator@D@2@@_STL@@@_STL@@YAXPAV?$basic_string@DV?$char_traits@D@_STL@@V?$allocator@D@2@@0@@Z
_TEXT	SEGMENT
___pointer$ = 8						; size = 4
??$_Destroy@V?$basic_string@DV?$char_traits@D@_STL@@V?$allocator@D@2@@_STL@@@_STL@@YAXPAV?$basic_string@DV?$char_traits@D@_STL@@V?$allocator@D@2@@0@@Z PROC NEAR ; _STL::_Destroy<_STL::basic_string<char,_STL::char_traits<char>,_STL::allocator<char> > >, COMDAT

; 57   : # if _MSC_VER >= 1010
; 58   :   __pointer;
; 59   : # endif	// _MSC_VER >= 1000
; 60   : # ifdef _STLP_TRIVIAL_DESTRUCTOR_BUG
; 61   :   typedef typename __type_traits<_Tp>::has_trivial_destructor _Trivial_destructor;
; 62   :   __destroy_aux(__pointer, _Trivial_destructor());
; 63   : # else
; 64   : #  if ( defined (__BORLANDC__) && ( __BORLANDC__ < 0x500 ) )
; 65   :     __pointer->_Tp::~_Tp();
; 66   : #  else
; 67   :     __pointer->~_Tp();

  00000	8b 4c 24 04	 mov	 ecx, DWORD PTR ___pointer$[esp-4]
  00004	e9 00 00 00 00	 jmp	 ??1?$basic_string@DV?$char_traits@D@_STL@@V?$allocator@D@2@@_STL@@QAE@XZ ; _STL::basic_string<char,_STL::char_traits<char>,_STL::allocator<char> >::~basic_string<char,_STL::char_traits<char>,_STL::allocator<char> >
??$_Destroy@V?$basic_string@DV?$char_traits@D@_STL@@V?$allocator@D@2@@_STL@@@_STL@@YAXPAV?$basic_string@DV?$char_traits@D@_STL@@V?$allocator@D@2@@0@@Z ENDP ; _STL::_Destroy<_STL::basic_string<char,_STL::char_traits<char>,_STL::allocator<char> > >
_TEXT	ENDS
PUBLIC	?_M_create_node@?$list@V?$basic_string@DV?$char_traits@D@_STL@@V?$allocator@D@2@@_STL@@V?$allocator@V?$basic_string@DV?$char_traits@D@_STL@@V?$allocator@D@2@@_STL@@@2@@_STL@@IAEPAU?$_List_node@V?$basic_string@DV?$char_traits@D@_STL@@V?$allocator@D@2@@_STL@@@2@ABV?$basic_string@DV?$char_traits@D@_STL@@V?$allocator@D@2@@2@@Z ; _STL::list<_STL::basic_string<char,_STL::char_traits<char>,_STL::allocator<char> >,_STL::allocator<_STL::basic_string<char,_STL::char_traits<char>,_STL::allocator<char> > > >::_M_create_node
EXTRN	__CxxThrowException@8:NEAR
;	COMDAT xdata$x
; File c:\stlport-4.6.1\stlport\stl\_alloc.h
xdata$x	SEGMENT
$T101822 DD	0ffffffffH
	DD	00H
	DD	0ffffffffH
	DD	00H
$T101824 DD	00H
	DD	00H
	DD	00H
	DD	FLAT:$L101810
$T101823 DD	00H
	DD	00H
	DD	01H
	DD	01H
	DD	FLAT:$T101824
$T101819 DD	019930520H
	DD	02H
	DD	FLAT:$T101822
	DD	01H
	DD	FLAT:$T101823
	DD	2 DUP(00H)
; Function compile flags: /Ogsy
; File c:\stlport-4.6.1\stlport\stl\_list.h
xdata$x	ENDS
;	COMDAT ?_M_create_node@?$list@V?$basic_string@DV?$char_traits@D@_STL@@V?$allocator@D@2@@_STL@@V?$allocator@V?$basic_string@DV?$char_traits@D@_STL@@V?$allocator@D@2@@_STL@@@2@@_STL@@IAEPAU?$_List_node@V?$basic_string@DV?$char_traits@D@_STL@@V?$allocator@D@2@@_STL@@@2@ABV?$basic_string@DV?$char_traits@D@_STL@@V?$allocator@D@2@@2@@Z
_TEXT	SEGMENT
_this$ = -24						; size = 4
___p$ = -20						; size = 4
__$EHRec$ = -16						; size = 16
___x$ = 8						; size = 4
?_M_create_node@?$list@V?$basic_string@DV?$char_traits@D@_STL@@V?$allocator@D@2@@_STL@@V?$allocator@V?$basic_string@DV?$char_traits@D@_STL@@V?$allocator@D@2@@_STL@@@2@@_STL@@IAEPAU?$_List_node@V?$basic_string@DV?$char_traits@D@_STL@@V?$allocator@D@2@@_STL@@@2@ABV?$basic_string@DV?$char_traits@D@_STL@@V?$allocator@D@2@@2@@Z PROC NEAR ; _STL::list<_STL::basic_string<char,_STL::char_traits<char>,_STL::allocator<char> >,_STL::allocator<_STL::basic_string<char,_STL::char_traits<char>,_STL::allocator<char> > > >::_M_create_node, COMDAT
; _this$ = ecx

; 240  :   {

  00000	b8 00 00 00 00	 mov	 eax, __ehhandler$?_M_create_node@?$list@V?$basic_string@DV?$char_traits@D@_STL@@V?$allocator@D@2@@_STL@@V?$allocator@V?$basic_string@DV?$char_traits@D@_STL@@V?$allocator@D@2@@_STL@@@2@@_STL@@IAEPAU?$_List_node@V?$basic_string@DV?$char_traits@D@_STL@@V?$allocator@D@2@@_STL@@@2@ABV?$basic_string@DV?$char_traits@D@_STL@@V?$allocator@D@2@@2@@Z
  00005	e8 00 00 00 00	 call	 __EH_prolog
  0000a	83 ec 0c	 sub	 esp, 12			; 0000000cH
  0000d	53		 push	 ebx
  0000e	56		 push	 esi
  0000f	57		 push	 edi
  00010	89 65 f0	 mov	 DWORD PTR __$EHRec$[ebp], esp

; 241  :     _Node* __p = this->_M_node.allocate(1);

  00013	6a 14		 push	 20			; 00000014H
  00015	89 4d e8	 mov	 DWORD PTR _this$[ebp], ecx
  00018	e8 00 00 00 00	 call	 ?allocate@?$__node_alloc@$00$0A@@_STL@@SAPAXI@Z ; _STL::__node_alloc<1,0>::allocate

; 242  :     _STLP_TRY {
; 243  :       _Construct(&__p->_M_data, __x);

  0001d	ff 75 08	 push	 DWORD PTR ___x$[ebp]
  00020	83 65 fc 00	 and	 DWORD PTR __$EHRec$[ebp+12], 0
  00024	8b f0		 mov	 esi, eax
  00026	8d 46 08	 lea	 eax, DWORD PTR [esi+8]
  00029	50		 push	 eax
  0002a	89 75 ec	 mov	 DWORD PTR ___p$[ebp], esi
  0002d	e8 00 00 00 00	 call	 ??$_Construct@V?$basic_string@DV?$char_traits@D@_STL@@V?$allocator@D@2@@_STL@@V12@@_STL@@YAXPAV?$basic_string@DV?$char_traits@D@_STL@@V?$allocator@D@2@@0@ABV10@@Z ; _STL::_Construct<_STL::basic_string<char,_STL::char_traits<char>,_STL::allocator<char> >,_STL::basic_string<char,_STL::char_traits<char>,_STL::allocator<char> > >

; 246  :     return __p;
; 247  :   }

  00032	8b 4d f4	 mov	 ecx, DWORD PTR __$EHRec$[ebp+4]
  00035	83 c4 0c	 add	 esp, 12			; 0000000cH
  00038	5f		 pop	 edi
  00039	8b c6		 mov	 eax, esi
  0003b	5e		 pop	 esi
  0003c	64 89 0d 00 00
	00 00		 mov	 DWORD PTR fs:__except_list, ecx
  00043	5b		 pop	 ebx
  00044	c9		 leave
  00045	c2 04 00	 ret	 4
$L101810:

; 244  :     }
; 245  :     _STLP_UNWIND(this->_M_node.deallocate(__p, 1));

  00048	8b 4d e8	 mov	 ecx, DWORD PTR _this$[ebp]
  0004b	6a 01		 push	 1
  0004d	ff 75 ec	 push	 DWORD PTR ___p$[ebp]
  00050	e8 00 00 00 00	 call	 ?deallocate@?$allocator@U?$_List_node@V?$basic_string@DV?$char_traits@D@_STL@@V?$allocator@D@2@@_STL@@@_STL@@@_STL@@QAEXPAU?$_List_node@V?$basic_string@DV?$char_traits@D@_STL@@V?$allocator@D@2@@_STL@@@2@I@Z ; _STL::allocator<_STL::_List_node<_STL::basic_string<char,_STL::char_traits<char>,_STL::allocator<char> > > >::deallocate
  00055	6a 00		 push	 0
  00057	6a 00		 push	 0
  00059	e8 00 00 00 00	 call	 __CxxThrowException@8
$L101825:
$L101821:
  0005e	cc		 int	 3
_TEXT	ENDS
;	COMDAT text$x
text$x	SEGMENT
__ehhandler$?_M_create_node@?$list@V?$basic_string@DV?$char_traits@D@_STL@@V?$allocator@D@2@@_STL@@V?$allocator@V?$basic_string@DV?$char_traits@D@_STL@@V?$allocator@D@2@@_STL@@@2@@_STL@@IAEPAU?$_List_node@V?$basic_string@DV?$char_traits@D@_STL@@V?$allocator@D@2@@_STL@@@2@ABV?$basic_string@DV?$char_traits@D@_STL@@V?$allocator@D@2@@2@@Z:
  00000	b8 00 00 00 00	 mov	 eax, OFFSET FLAT:$T101819
  00005	e9 00 00 00 00	 jmp	 ___CxxFrameHandler
text$x	ENDS
?_M_create_node@?$list@V?$basic_string@DV?$char_traits@D@_STL@@V?$allocator@D@2@@_STL@@V?$allocator@V?$basic_string@DV?$char_traits@D@_STL@@V?$allocator@D@2@@_STL@@@2@@_STL@@IAEPAU?$_List_node@V?$basic_string@DV?$char_traits@D@_STL@@V?$allocator@D@2@@_STL@@@2@ABV?$basic_string@DV?$char_traits@D@_STL@@V?$allocator@D@2@@2@@Z ENDP ; _STL::list<_STL::basic_string<char,_STL::char_traits<char>,_STL::allocator<char> >,_STL::allocator<_STL::basic_string<char,_STL::char_traits<char>,_STL::allocator<char> > > >::_M_create_node
PUBLIC	?clear@?$_List_base@V?$basic_string@DV?$char_traits@D@_STL@@V?$allocator@D@2@@_STL@@V?$allocator@V?$basic_string@DV?$char_traits@D@_STL@@V?$allocator@D@2@@_STL@@@2@@_STL@@QAEXXZ ; _STL::_List_base<_STL::basic_string<char,_STL::char_traits<char>,_STL::allocator<char> >,_STL::allocator<_STL::basic_string<char,_STL::char_traits<char>,_STL::allocator<char> > > >::clear
; Function compile flags: /Ogsy
; File c:\stlport-4.6.1\stlport\stl\_list.c
;	COMDAT ?clear@?$_List_base@V?$basic_string@DV?$char_traits@D@_STL@@V?$allocator@D@2@@_STL@@V?$allocator@V?$basic_string@DV?$char_traits@D@_STL@@V?$allocator@D@2@@_STL@@@2@@_STL@@QAEXXZ
_TEXT	SEGMENT
?clear@?$_List_base@V?$basic_string@DV?$char_traits@D@_STL@@V?$allocator@D@2@@_STL@@V?$allocator@V?$basic_string@DV?$char_traits@D@_STL@@V?$allocator@D@2@@_STL@@@2@@_STL@@QAEXXZ PROC NEAR ; _STL::_List_base<_STL::basic_string<char,_STL::char_traits<char>,_STL::allocator<char> >,_STL::allocator<_STL::basic_string<char,_STL::char_traits<char>,_STL::allocator<char> > > >::clear, COMDAT
; _this$ = ecx

; 68   : {

  00000	56		 push	 esi
  00001	57		 push	 edi
  00002	8b f9		 mov	 edi, ecx

; 69   :   _List_node<_Tp>* __cur = (_List_node<_Tp>*) this->_M_node._M_data->_M_next;

  00004	8b 07		 mov	 eax, DWORD PTR [edi]
  00006	8b 30		 mov	 esi, DWORD PTR [eax]

; 70   :   while (__cur != this->_M_node._M_data) {

  00008	3b f0		 cmp	 esi, eax
  0000a	74 1c		 je	 SHORT $L98971
  0000c	53		 push	 ebx
$L98970:

; 71   :     _List_node<_Tp>* __tmp = __cur;

  0000d	8b de		 mov	 ebx, esi

; 72   :     __cur = (_List_node<_Tp>*) __cur->_M_next;

  0000f	8b 36		 mov	 esi, DWORD PTR [esi]

; 73   :     _STLP_STD::_Destroy(&__tmp->_M_data);

  00011	8d 4b 08	 lea	 ecx, DWORD PTR [ebx+8]
  00014	e8 00 00 00 00	 call	 ??1?$basic_string@DV?$char_traits@D@_STL@@V?$allocator@D@2@@_STL@@QAE@XZ ; _STL::basic_string<char,_STL::char_traits<char>,_STL::allocator<char> >::~basic_string<char,_STL::char_traits<char>,_STL::allocator<char> >

; 74   :     this->_M_node.deallocate(__tmp, 1);

  00019	6a 01		 push	 1
  0001b	53		 push	 ebx
  0001c	8b cf		 mov	 ecx, edi
  0001e	e8 00 00 00 00	 call	 ?deallocate@?$allocator@U?$_List_node@V?$basic_string@DV?$char_traits@D@_STL@@V?$allocator@D@2@@_STL@@@_STL@@@_STL@@QAEXPAU?$_List_node@V?$basic_string@DV?$char_traits@D@_STL@@V?$allocator@D@2@@_STL@@@2@I@Z ; _STL::allocator<_STL::_List_node<_STL::basic_string<char,_STL::char_traits<char>,_STL::allocator<char> > > >::deallocate
  00023	3b 37		 cmp	 esi, DWORD PTR [edi]
  00025	75 e6		 jne	 SHORT $L98970
  00027	5b		 pop	 ebx
$L98971:

; 75   :   }
; 76   :   this->_M_node._M_data->_M_next = this->_M_node._M_data;

  00028	8b 07		 mov	 eax, DWORD PTR [edi]
  0002a	89 00		 mov	 DWORD PTR [eax], eax

; 77   :   this->_M_node._M_data->_M_prev = this->_M_node._M_data;

  0002c	8b 3f		 mov	 edi, DWORD PTR [edi]
  0002e	89 7f 04	 mov	 DWORD PTR [edi+4], edi
  00031	5f		 pop	 edi
  00032	5e		 pop	 esi

; 78   : }

  00033	c3		 ret	 0
?clear@?$_List_base@V?$basic_string@DV?$char_traits@D@_STL@@V?$allocator@D@2@@_STL@@V?$allocator@V?$basic_string@DV?$char_traits@D@_STL@@V?$allocator@D@2@@_STL@@@2@@_STL@@QAEXXZ ENDP ; _STL::_List_base<_STL::basic_string<char,_STL::char_traits<char>,_STL::allocator<char> >,_STL::allocator<_STL::basic_string<char,_STL::char_traits<char>,_STL::allocator<char> > > >::clear
_TEXT	ENDS
PUBLIC	?insert@?$list@V?$basic_string@DV?$char_traits@D@_STL@@V?$allocator@D@2@@_STL@@V?$allocator@V?$basic_string@DV?$char_traits@D@_STL@@V?$allocator@D@2@@_STL@@@2@@_STL@@QAE?AU?$_List_iterator@V?$basic_string@DV?$char_traits@D@_STL@@V?$allocator@D@2@@_STL@@U?$_Nonconst_traits@V?$basic_string@DV?$char_traits@D@_STL@@V?$allocator@D@2@@_STL@@@2@@2@U32@ABV?$basic_string@DV?$char_traits@D@_STL@@V?$allocator@D@2@@2@@Z ; _STL::list<_STL::basic_string<char,_STL::char_traits<char>,_STL::allocator<char> >,_STL::allocator<_STL::basic_string<char,_STL::char_traits<char>,_STL::allocator<char> > > >::insert
; Function compile flags: /Ogsy
; File c:\stlport-4.6.1\stlport\stl\_list.h
;	COMDAT ?insert@?$list@V?$basic_string@DV?$char_traits@D@_STL@@V?$allocator@D@2@@_STL@@V?$allocator@V?$basic_string@DV?$char_traits@D@_STL@@V?$allocator@D@2@@_STL@@@2@@_STL@@QAE?AU?$_List_iterator@V?$basic_string@DV?$char_traits@D@_STL@@V?$allocator@D@2@@_STL@@U?$_Nonconst_traits@V?$basic_string@DV?$char_traits@D@_STL@@V?$allocator@D@2@@_STL@@@2@@2@U32@ABV?$basic_string@DV?$char_traits@D@_STL@@V?$allocator@D@2@@2@@Z
_TEXT	SEGMENT
___$ReturnUdt$ = 8					; size = 4
___position$ = 12					; size = 4
___x$ = 16						; size = 4
?insert@?$list@V?$basic_string@DV?$char_traits@D@_STL@@V?$allocator@D@2@@_STL@@V?$allocator@V?$basic_string@DV?$char_traits@D@_STL@@V?$allocator@D@2@@_STL@@@2@@_STL@@QAE?AU?$_List_iterator@V?$basic_string@DV?$char_traits@D@_STL@@V?$allocator@D@2@@_STL@@U?$_Nonconst_traits@V?$basic_string@DV?$char_traits@D@_STL@@V?$allocator@D@2@@_STL@@@2@@2@U32@ABV?$basic_string@DV?$char_traits@D@_STL@@V?$allocator@D@2@@2@@Z PROC NEAR ; _STL::list<_STL::basic_string<char,_STL::char_traits<char>,_STL::allocator<char> >,_STL::allocator<_STL::basic_string<char,_STL::char_traits<char>,_STL::allocator<char> > > >::insert, COMDAT
; _this$ = ecx

; 299  : 
; 300  :     _Node* __tmp = _M_create_node(__x);

  00000	ff 74 24 0c	 push	 DWORD PTR ___x$[esp-4]
  00004	e8 00 00 00 00	 call	 ?_M_create_node@?$list@V?$basic_string@DV?$char_traits@D@_STL@@V?$allocator@D@2@@_STL@@V?$allocator@V?$basic_string@DV?$char_traits@D@_STL@@V?$allocator@D@2@@_STL@@@2@@_STL@@IAEPAU?$_List_node@V?$basic_string@DV?$char_traits@D@_STL@@V?$allocator@D@2@@_STL@@@2@ABV?$basic_string@DV?$char_traits@D@_STL@@V?$allocator@D@2@@2@@Z ; _STL::list<_STL::basic_string<char,_STL::char_traits<char>,_STL::allocator<char> >,_STL::allocator<_STL::basic_string<char,_STL::char_traits<char>,_STL::allocator<char> > > >::_M_create_node

; 301  :     _List_node_base* __n = __position._M_node;
; 302  :     _List_node_base* __p = __n->_M_prev;

  00009	8b 4c 24 08	 mov	 ecx, DWORD PTR ___position$[esp-4]
  0000d	8b 51 04	 mov	 edx, DWORD PTR [ecx+4]

; 303  :     __tmp->_M_next = __n;

  00010	89 08		 mov	 DWORD PTR [eax], ecx

; 304  :     __tmp->_M_prev = __p;

  00012	89 50 04	 mov	 DWORD PTR [eax+4], edx

; 305  :     __p->_M_next = __tmp;

  00015	89 02		 mov	 DWORD PTR [edx], eax

; 306  :     __n->_M_prev = __tmp;

  00017	89 41 04	 mov	 DWORD PTR [ecx+4], eax

; 307  :     return __tmp;

  0001a	8b 4c 24 04	 mov	 ecx, DWORD PTR ___$ReturnUdt$[esp-4]
  0001e	89 01		 mov	 DWORD PTR [ecx], eax
  00020	8b c1		 mov	 eax, ecx

; 308  :   }

  00022	c2 0c 00	 ret	 12			; 0000000cH
?insert@?$list@V?$basic_string@DV?$char_traits@D@_STL@@V?$allocator@D@2@@_STL@@V?$allocator@V?$basic_string@DV?$char_traits@D@_STL@@V?$allocator@D@2@@_STL@@@2@@_STL@@QAE?AU?$_List_iterator@V?$basic_string@DV?$char_traits@D@_STL@@V?$allocator@D@2@@_STL@@U?$_Nonconst_traits@V?$basic_string@DV?$char_traits@D@_STL@@V?$allocator@D@2@@_STL@@@2@@2@U32@ABV?$basic_string@DV?$char_traits@D@_STL@@V?$allocator@D@2@@2@@Z ENDP ; _STL::list<_STL::basic_string<char,_STL::char_traits<char>,_STL::allocator<char> >,_STL::allocator<_STL::basic_string<char,_STL::char_traits<char>,_STL::allocator<char> > > >::insert
_TEXT	ENDS
PUBLIC	??1?$_List_base@V?$basic_string@DV?$char_traits@D@_STL@@V?$allocator@D@2@@_STL@@V?$allocator@V?$basic_string@DV?$char_traits@D@_STL@@V?$allocator@D@2@@_STL@@@2@@_STL@@QAE@XZ ; _STL::_List_base<_STL::basic_string<char,_STL::char_traits<char>,_STL::allocator<char> >,_STL::allocator<_STL::basic_string<char,_STL::char_traits<char>,_STL::allocator<char> > > >::~_List_base<_STL::basic_string<char,_STL::char_traits<char>,_STL::allocator<char> >,_STL::allocator<_STL::basic_string<char,_STL::char_traits<char>,_STL::allocator<char> > > >
; Function compile flags: /Ogsy
;	COMDAT ??1?$_List_base@V?$basic_string@DV?$char_traits@D@_STL@@V?$allocator@D@2@@_STL@@V?$allocator@V?$basic_string@DV?$char_traits@D@_STL@@V?$allocator@D@2@@_STL@@@2@@_STL@@QAE@XZ
_TEXT	SEGMENT
??1?$_List_base@V?$basic_string@DV?$char_traits@D@_STL@@V?$allocator@D@2@@_STL@@V?$allocator@V?$basic_string@DV?$char_traits@D@_STL@@V?$allocator@D@2@@_STL@@@2@@_STL@@QAE@XZ PROC NEAR ; _STL::_List_base<_STL::basic_string<char,_STL::char_traits<char>,_STL::allocator<char> >,_STL::allocator<_STL::basic_string<char,_STL::char_traits<char>,_STL::allocator<char> > > >::~_List_base<_STL::basic_string<char,_STL::char_traits<char>,_STL::allocator<char> >,_STL::allocator<_STL::basic_string<char,_STL::char_traits<char>,_STL::allocator<char> > > >, COMDAT
; _this$ = ecx

; 188  :   ~_List_base() {

  00000	56		 push	 esi
  00001	8b f1		 mov	 esi, ecx

; 189  :     clear();

  00003	e8 00 00 00 00	 call	 ?clear@?$_List_base@V?$basic_string@DV?$char_traits@D@_STL@@V?$allocator@D@2@@_STL@@V?$allocator@V?$basic_string@DV?$char_traits@D@_STL@@V?$allocator@D@2@@_STL@@@2@@_STL@@QAEXXZ ; _STL::_List_base<_STL::basic_string<char,_STL::char_traits<char>,_STL::allocator<char> >,_STL::allocator<_STL::basic_string<char,_STL::char_traits<char>,_STL::allocator<char> > > >::clear

; 190  :     _M_node.deallocate(_M_node._M_data, 1);

  00008	6a 01		 push	 1
  0000a	ff 36		 push	 DWORD PTR [esi]
  0000c	8b ce		 mov	 ecx, esi
  0000e	e8 00 00 00 00	 call	 ?deallocate@?$allocator@U?$_List_node@V?$basic_string@DV?$char_traits@D@_STL@@V?$allocator@D@2@@_STL@@@_STL@@@_STL@@QAEXPAU?$_List_node@V?$basic_string@DV?$char_traits@D@_STL@@V?$allocator@D@2@@_STL@@@2@I@Z ; _STL::allocator<_STL::_List_node<_STL::basic_string<char,_STL::char_traits<char>,_STL::allocator<char> > > >::deallocate
  00013	5e		 pop	 esi

; 191  :   }

  00014	c3		 ret	 0
??1?$_List_base@V?$basic_string@DV?$char_traits@D@_STL@@V?$allocator@D@2@@_STL@@V?$allocator@V?$basic_string@DV?$char_traits@D@_STL@@V?$allocator@D@2@@_STL@@@2@@_STL@@QAE@XZ ENDP ; _STL::_List_base<_STL::basic_string<char,_STL::char_traits<char>,_STL::allocator<char> >,_STL::allocator<_STL::basic_string<char,_STL::char_traits<char>,_STL::allocator<char> > > >::~_List_base<_STL::basic_string<char,_STL::char_traits<char>,_STL::allocator<char> >,_STL::allocator<_STL::basic_string<char,_STL::char_traits<char>,_STL::allocator<char> > > >
_TEXT	ENDS
PUBLIC	??$_M_insert_dispatch@U?$_List_iterator@V?$basic_string@DV?$char_traits@D@_STL@@V?$allocator@D@2@@_STL@@U?$_Const_traits@V?$basic_string@DV?$char_traits@D@_STL@@V?$allocator@D@2@@_STL@@@2@@_STL@@@?$list@V?$basic_string@DV?$char_traits@D@_STL@@V?$allocator@D@2@@_STL@@V?$allocator@V?$basic_string@DV?$char_traits@D@_STL@@V?$allocator@D@2@@_STL@@@2@@_STL@@QAEXU?$_List_iterator@V?$basic_string@DV?$char_traits@D@_STL@@V?$allocator@D@2@@_STL@@U?$_Nonconst_traits@V?$basic_string@DV?$char_traits@D@_STL@@V?$allocator@D@2@@_STL@@@2@@1@U?$_List_iterator@V?$basic_string@DV?$char_traits@D@_STL@@V?$allocator@D@2@@_STL@@U?$_Const_traits@V?$basic_string@DV?$char_traits@D@_STL@@V?$allocator@D@2@@_STL@@@2@@1@1ABU__false_type@1@@Z ; _STL::list<_STL::basic_string<char,_STL::char_traits<char>,_STL::allocator<char> >,_STL::allocator<_STL::basic_string<char,_STL::char_traits<char>,_STL::allocator<char> > > >::_M_insert_dispatch<_STL::_List_iterator<_STL::basic_string<char,_STL::char_traits<char>,_STL::allocator<char> >,_STL::_Const_traits<_STL::basic_string<char,_STL::char_traits<char>,_STL::allocator<char> > > > >
; Function compile flags: /Ogsy
;	COMDAT ??$_M_insert_dispatch@U?$_List_iterator@V?$basic_string@DV?$char_traits@D@_STL@@V?$allocator@D@2@@_STL@@U?$_Const_traits@V?$basic_string@DV?$char_traits@D@_STL@@V?$allocator@D@2@@_STL@@@2@@_STL@@@?$list@V?$basic_string@DV?$char_traits@D@_STL@@V?$allocator@D@2@@_STL@@V?$allocator@V?$basic_string@DV?$char_traits@D@_STL@@V?$allocator@D@2@@_STL@@@2@@_STL@@QAEXU?$_List_iterator@V?$basic_string@DV?$char_traits@D@_STL@@V?$allocator@D@2@@_STL@@U?$_Nonconst_traits@V?$basic_string@DV?$char_traits@D@_STL@@V?$allocator@D@2@@_STL@@@2@@1@U?$_List_iterator@V?$basic_string@DV?$char_traits@D@_STL@@V?$allocator@D@2@@_STL@@U?$_Const_traits@V?$basic_string@DV?$char_traits@D@_STL@@V?$allocator@D@2@@_STL@@@2@@1@1ABU__false_type@1@@Z
_TEXT	SEGMENT
___position$ = 8					; size = 4
$T101861 = 12						; size = 4
___first$ = 12						; size = 4
___last$ = 16						; size = 4
___formal$ = 20						; size = 4
??$_M_insert_dispatch@U?$_List_iterator@V?$basic_string@DV?$char_traits@D@_STL@@V?$allocator@D@2@@_STL@@U?$_Const_traits@V?$basic_string@DV?$char_traits@D@_STL@@V?$allocator@D@2@@_STL@@@2@@_STL@@@?$list@V?$basic_string@DV?$char_traits@D@_STL@@V?$allocator@D@2@@_STL@@V?$allocator@V?$basic_string@DV?$char_traits@D@_STL@@V?$allocator@D@2@@_STL@@@2@@_STL@@QAEXU?$_List_iterator@V?$basic_string@DV?$char_traits@D@_STL@@V?$allocator@D@2@@_STL@@U?$_Nonconst_traits@V?$basic_string@DV?$char_traits@D@_STL@@V?$allocator@D@2@@_STL@@@2@@1@U?$_List_iterator@V?$basic_string@DV?$char_traits@D@_STL@@V?$allocator@D@2@@_STL@@U?$_Const_traits@V?$basic_string@DV?$char_traits@D@_STL@@V?$allocator@D@2@@_STL@@@2@@1@1ABU__false_type@1@@Z PROC NEAR ; _STL::list<_STL::basic_string<char,_STL::char_traits<char>,_STL::allocator<char> >,_STL::allocator<_STL::basic_string<char,_STL::char_traits<char>,_STL::allocator<char> > > >::_M_insert_dispatch<_STL::_List_iterator<_STL::basic_string<char,_STL::char_traits<char>,_STL::allocator<char> >,_STL::_Const_traits<_STL::basic_string<char,_STL::char_traits<char>,_STL::allocator<char> > > > >, COMDAT
; _this$ = ecx

; 323  :   void 

  00000	55		 push	 ebp
  00001	8b ec		 mov	 ebp, esp
  00003	56		 push	 esi

; 324  :   _M_insert_dispatch(iterator __position,
; 325  : 		     _InputIter __first, _InputIter __last,
; 326  : 		     const __false_type&) 
; 327  : #else /* _STLP_MEMBER_TEMPLATES */
; 328  :   void insert(iterator __position, const _Tp* __first, const _Tp* __last) {
; 329  :     for ( ; __first != __last; ++__first)
; 330  :       insert(__position, *__first);
; 331  :   }
; 332  :   void insert(iterator __position, const_iterator __first, const_iterator __last)
; 333  : #endif /* _STLP_MEMBER_TEMPLATES */
; 334  :   {
; 335  :     for ( ; __first != __last; ++__first)

  00004	8b 75 0c	 mov	 esi, DWORD PTR ___first$[ebp]
  00007	57		 push	 edi
  00008	8b f9		 mov	 edi, ecx
  0000a	eb 19		 jmp	 SHORT $L101887
$L101866:

; 336  :       insert(__position, *__first);

  0000c	8d 46 08	 lea	 eax, DWORD PTR [esi+8]
  0000f	50		 push	 eax
  00010	51		 push	 ecx
  00011	8b 4d 08	 mov	 ecx, DWORD PTR ___position$[ebp]
  00014	8b c4		 mov	 eax, esp
  00016	89 08		 mov	 DWORD PTR [eax], ecx
  00018	8d 45 0c	 lea	 eax, DWORD PTR $T101861[ebp]
  0001b	50		 push	 eax
  0001c	8b cf		 mov	 ecx, edi
  0001e	e8 00 00 00 00	 call	 ?insert@?$list@V?$basic_string@DV?$char_traits@D@_STL@@V?$allocator@D@2@@_STL@@V?$allocator@V?$basic_string@DV?$char_traits@D@_STL@@V?$allocator@D@2@@_STL@@@2@@_STL@@QAE?AU?$_List_iterator@V?$basic_string@DV?$char_traits@D@_STL@@V?$allocator@D@2@@_STL@@U?$_Nonconst_traits@V?$basic_string@DV?$char_traits@D@_STL@@V?$allocator@D@2@@_STL@@@2@@2@U32@ABV?$basic_string@DV?$char_traits@D@_STL@@V?$allocator@D@2@@2@@Z ; _STL::list<_STL::basic_string<char,_STL::char_traits<char>,_STL::allocator<char> >,_STL::allocator<_STL::basic_string<char,_STL::char_traits<char>,_STL::allocator<char> > > >::insert
  00023	8b 36		 mov	 esi, DWORD PTR [esi]
$L101887:

; 324  :   _M_insert_dispatch(iterator __position,
; 325  : 		     _InputIter __first, _InputIter __last,
; 326  : 		     const __false_type&) 
; 327  : #else /* _STLP_MEMBER_TEMPLATES */
; 328  :   void insert(iterator __position, const _Tp* __first, const _Tp* __last) {
; 329  :     for ( ; __first != __last; ++__first)
; 330  :       insert(__position, *__first);
; 331  :   }
; 332  :   void insert(iterator __position, const_iterator __first, const_iterator __last)
; 333  : #endif /* _STLP_MEMBER_TEMPLATES */
; 334  :   {
; 335  :     for ( ; __first != __last; ++__first)

  00025	3b 75 10	 cmp	 esi, DWORD PTR ___last$[ebp]
  00028	75 e2		 jne	 SHORT $L101866

; 337  :   }

  0002a	5f		 pop	 edi
  0002b	5e		 pop	 esi
  0002c	5d		 pop	 ebp
  0002d	c2 10 00	 ret	 16			; 00000010H
??$_M_insert_dispatch@U?$_List_iterator@V?$basic_string@DV?$char_traits@D@_STL@@V?$allocator@D@2@@_STL@@U?$_Const_traits@V?$basic_string@DV?$char_traits@D@_STL@@V?$allocator@D@2@@_STL@@@2@@_STL@@@?$list@V?$basic_string@DV?$char_traits@D@_STL@@V?$allocator@D@2@@_STL@@V?$allocator@V?$basic_string@DV?$char_traits@D@_STL@@V?$allocator@D@2@@_STL@@@2@@_STL@@QAEXU?$_List_iterator@V?$basic_string@DV?$char_traits@D@_STL@@V?$allocator@D@2@@_STL@@U?$_Nonconst_traits@V?$basic_string@DV?$char_traits@D@_STL@@V?$allocator@D@2@@_STL@@@2@@1@U?$_List_iterator@V?$basic_string@DV?$char_traits@D@_STL@@V?$allocator@D@2@@_STL@@U?$_Const_traits@V?$basic_string@DV?$char_traits@D@_STL@@V?$allocator@D@2@@_STL@@@2@@1@1ABU__false_type@1@@Z ENDP ; _STL::list<_STL::basic_string<char,_STL::char_traits<char>,_STL::allocator<char> >,_STL::allocator<_STL::basic_string<char,_STL::char_traits<char>,_STL::allocator<char> > > >::_M_insert_dispatch<_STL::_List_iterator<_STL::basic_string<char,_STL::char_traits<char>,_STL::allocator<char> >,_STL::_Const_traits<_STL::basic_string<char,_STL::char_traits<char>,_STL::allocator<char> > > > >
_TEXT	ENDS
PUBLIC	??0?$list@V?$basic_string@DV?$char_traits@D@_STL@@V?$allocator@D@2@@_STL@@V?$allocator@V?$basic_string@DV?$char_traits@D@_STL@@V?$allocator@D@2@@_STL@@@2@@_STL@@QAE@ABV?$allocator@V?$basic_string@DV?$char_traits@D@_STL@@V?$allocator@D@2@@_STL@@@1@@Z ; _STL::list<_STL::basic_string<char,_STL::char_traits<char>,_STL::allocator<char> >,_STL::allocator<_STL::basic_string<char,_STL::char_traits<char>,_STL::allocator<char> > > >::list<_STL::basic_string<char,_STL::char_traits<char>,_STL::allocator<char> >,_STL::allocator<_STL::basic_string<char,_STL::char_traits<char>,_STL::allocator<char> > > >
; Function compile flags: /Ogsy
;	COMDAT ??0?$list@V?$basic_string@DV?$char_traits@D@_STL@@V?$allocator@D@2@@_STL@@V?$allocator@V?$basic_string@DV?$char_traits@D@_STL@@V?$allocator@D@2@@_STL@@@2@@_STL@@QAE@ABV?$allocator@V?$basic_string@DV?$char_traits@D@_STL@@V?$allocator@D@2@@_STL@@@1@@Z
_TEXT	SEGMENT
___a$ = 8						; size = 4
??0?$list@V?$basic_string@DV?$char_traits@D@_STL@@V?$allocator@D@2@@_STL@@V?$allocator@V?$basic_string@DV?$char_traits@D@_STL@@V?$allocator@D@2@@_STL@@@2@@_STL@@QAE@ABV?$allocator@V?$basic_string@DV?$char_traits@D@_STL@@V?$allocator@D@2@@_STL@@@1@@Z PROC NEAR ; _STL::list<_STL::basic_string<char,_STL::char_traits<char>,_STL::allocator<char> >,_STL::allocator<_STL::basic_string<char,_STL::char_traits<char>,_STL::allocator<char> > > >::list<_STL::basic_string<char,_STL::char_traits<char>,_STL::allocator<char> >,_STL::allocator<_STL::basic_string<char,_STL::char_traits<char>,_STL::allocator<char> > > >, COMDAT
; _this$ = ecx

; 264  :     _List_base<_Tp, _Alloc>(__a) {}

  00000	56		 push	 esi
  00001	ff 74 24 08	 push	 DWORD PTR ___a$[esp]
  00005	8b f1		 mov	 esi, ecx
  00007	e8 00 00 00 00	 call	 ??0?$_List_base@V?$basic_string@DV?$char_traits@D@_STL@@V?$allocator@D@2@@_STL@@V?$allocator@V?$basic_string@DV?$char_traits@D@_STL@@V?$allocator@D@2@@_STL@@@2@@_STL@@QAE@ABV?$allocator@V?$basic_string@DV?$char_traits@D@_STL@@V?$allocator@D@2@@_STL@@@1@@Z ; _STL::_List_base<_STL::basic_string<char,_STL::char_traits<char>,_STL::allocator<char> >,_STL::allocator<_STL::basic_string<char,_STL::char_traits<char>,_STL::allocator<char> > > >::_List_base<_STL::basic_string<char,_STL::char_traits<char>,_STL::allocator<char> >,_STL::allocator<_STL::basic_string<char,_STL::char_traits<char>,_STL::allocator<char> > > >
  0000c	8b c6		 mov	 eax, esi
  0000e	5e		 pop	 esi
  0000f	c2 04 00	 ret	 4
??0?$list@V?$basic_string@DV?$char_traits@D@_STL@@V?$allocator@D@2@@_STL@@V?$allocator@V?$basic_string@DV?$char_traits@D@_STL@@V?$allocator@D@2@@_STL@@@2@@_STL@@QAE@ABV?$allocator@V?$basic_string@DV?$char_traits@D@_STL@@V?$allocator@D@2@@_STL@@@1@@Z ENDP ; _STL::list<_STL::basic_string<char,_STL::char_traits<char>,_STL::allocator<char> >,_STL::allocator<_STL::basic_string<char,_STL::char_traits<char>,_STL::allocator<char> > > >::list<_STL::basic_string<char,_STL::char_traits<char>,_STL::allocator<char> >,_STL::allocator<_STL::basic_string<char,_STL::char_traits<char>,_STL::allocator<char> > > >
_TEXT	ENDS
PUBLIC	??1?$list@V?$basic_string@DV?$char_traits@D@_STL@@V?$allocator@D@2@@_STL@@V?$allocator@V?$basic_string@DV?$char_traits@D@_STL@@V?$allocator@D@2@@_STL@@@2@@_STL@@QAE@XZ ; _STL::list<_STL::basic_string<char,_STL::char_traits<char>,_STL::allocator<char> >,_STL::allocator<_STL::basic_string<char,_STL::char_traits<char>,_STL::allocator<char> > > >::~list<_STL::basic_string<char,_STL::char_traits<char>,_STL::allocator<char> >,_STL::allocator<_STL::basic_string<char,_STL::char_traits<char>,_STL::allocator<char> > > >
; Function compile flags: /Ogsy
;	COMDAT ??1?$list@V?$basic_string@DV?$char_traits@D@_STL@@V?$allocator@D@2@@_STL@@V?$allocator@V?$basic_string@DV?$char_traits@D@_STL@@V?$allocator@D@2@@_STL@@@2@@_STL@@QAE@XZ
_TEXT	SEGMENT
??1?$list@V?$basic_string@DV?$char_traits@D@_STL@@V?$allocator@D@2@@_STL@@V?$allocator@V?$basic_string@DV?$char_traits@D@_STL@@V?$allocator@D@2@@_STL@@@2@@_STL@@QAE@XZ PROC NEAR ; _STL::list<_STL::basic_string<char,_STL::char_traits<char>,_STL::allocator<char> >,_STL::allocator<_STL::basic_string<char,_STL::char_traits<char>,_STL::allocator<char> > > >::~list<_STL::basic_string<char,_STL::char_traits<char>,_STL::allocator<char> >,_STL::allocator<_STL::basic_string<char,_STL::char_traits<char>,_STL::allocator<char> > > >, COMDAT
; _this$ = ecx

; 416  :   ~list() { }

  00000	e9 00 00 00 00	 jmp	 ??1?$_List_base@V?$basic_string@DV?$char_traits@D@_STL@@V?$allocator@D@2@@_STL@@V?$allocator@V?$basic_string@DV?$char_traits@D@_STL@@V?$allocator@D@2@@_STL@@@2@@_STL@@QAE@XZ ; _STL::_List_base<_STL::basic_string<char,_STL::char_traits<char>,_STL::allocator<char> >,_STL::allocator<_STL::basic_string<char,_STL::char_traits<char>,_STL::allocator<char> > > >::~_List_base<_STL::basic_string<char,_STL::char_traits<char>,_STL::allocator<char> >,_STL::allocator<_STL::basic_string<char,_STL::char_traits<char>,_STL::allocator<char> > > >
??1?$list@V?$basic_string@DV?$char_traits@D@_STL@@V?$allocator@D@2@@_STL@@V?$allocator@V?$basic_string@DV?$char_traits@D@_STL@@V?$allocator@D@2@@_STL@@@2@@_STL@@QAE@XZ ENDP ; _STL::list<_STL::basic_string<char,_STL::char_traits<char>,_STL::allocator<char> >,_STL::allocator<_STL::basic_string<char,_STL::char_traits<char>,_STL::allocator<char> > > >::~list<_STL::basic_string<char,_STL::char_traits<char>,_STL::allocator<char> >,_STL::allocator<_STL::basic_string<char,_STL::char_traits<char>,_STL::allocator<char> > > >
_TEXT	ENDS
PUBLIC	??$insert@U?$_List_iterator@V?$basic_string@DV?$char_traits@D@_STL@@V?$allocator@D@2@@_STL@@U?$_Const_traits@V?$basic_string@DV?$char_traits@D@_STL@@V?$allocator@D@2@@_STL@@@2@@_STL@@@?$list@V?$basic_string@DV?$char_traits@D@_STL@@V?$allocator@D@2@@_STL@@V?$allocator@V?$basic_string@DV?$char_traits@D@_STL@@V?$allocator@D@2@@_STL@@@2@@_STL@@QAEXU?$_List_iterator@V?$basic_string@DV?$char_traits@D@_STL@@V?$allocator@D@2@@_STL@@U?$_Nonconst_traits@V?$basic_string@DV?$char_traits@D@_STL@@V?$allocator@D@2@@_STL@@@2@@1@U?$_List_iterator@V?$basic_string@DV?$char_traits@D@_STL@@V?$allocator@D@2@@_STL@@U?$_Const_traits@V?$basic_string@DV?$char_traits@D@_STL@@V?$allocator@D@2@@_STL@@@2@@1@1@Z ; _STL::list<_STL::basic_string<char,_STL::char_traits<char>,_STL::allocator<char> >,_STL::allocator<_STL::basic_string<char,_STL::char_traits<char>,_STL::allocator<char> > > >::insert<_STL::_List_iterator<_STL::basic_string<char,_STL::char_traits<char>,_STL::allocator<char> >,_STL::_Const_traits<_STL::basic_string<char,_STL::char_traits<char>,_STL::allocator<char> > > > >
; Function compile flags: /Ogsy
;	COMDAT ??$insert@U?$_List_iterator@V?$basic_string@DV?$char_traits@D@_STL@@V?$allocator@D@2@@_STL@@U?$_Const_traits@V?$basic_string@DV?$char_traits@D@_STL@@V?$allocator@D@2@@_STL@@@2@@_STL@@@?$list@V?$basic_string@DV?$char_traits@D@_STL@@V?$allocator@D@2@@_STL@@V?$allocator@V?$basic_string@DV?$char_traits@D@_STL@@V?$allocator@D@2@@_STL@@@2@@_STL@@QAEXU?$_List_iterator@V?$basic_string@DV?$char_traits@D@_STL@@V?$allocator@D@2@@_STL@@U?$_Nonconst_traits@V?$basic_string@DV?$char_traits@D@_STL@@V?$allocator@D@2@@_STL@@@2@@1@U?$_List_iterator@V?$basic_string@DV?$char_traits@D@_STL@@V?$allocator@D@2@@_STL@@U?$_Const_traits@V?$basic_string@DV?$char_traits@D@_STL@@V?$allocator@D@2@@_STL@@@2@@1@1@Z
_TEXT	SEGMENT
___pos$ = 8						; size = 4
___first$ = 12						; size = 4
___last$ = 16						; size = 4
$T101898 = 19						; size = 1
??$insert@U?$_List_iterator@V?$basic_string@DV?$char_traits@D@_STL@@V?$allocator@D@2@@_STL@@U?$_Const_traits@V?$basic_string@DV?$char_traits@D@_STL@@V?$allocator@D@2@@_STL@@@2@@_STL@@@?$list@V?$basic_string@DV?$char_traits@D@_STL@@V?$allocator@D@2@@_STL@@V?$allocator@V?$basic_string@DV?$char_traits@D@_STL@@V?$allocator@D@2@@_STL@@@2@@_STL@@QAEXU?$_List_iterator@V?$basic_string@DV?$char_traits@D@_STL@@V?$allocator@D@2@@_STL@@U?$_Nonconst_traits@V?$basic_string@DV?$char_traits@D@_STL@@V?$allocator@D@2@@_STL@@@2@@1@U?$_List_iterator@V?$basic_string@DV?$char_traits@D@_STL@@V?$allocator@D@2@@_STL@@U?$_Const_traits@V?$basic_string@DV?$char_traits@D@_STL@@V?$allocator@D@2@@_STL@@@2@@1@1@Z PROC NEAR ; _STL::list<_STL::basic_string<char,_STL::char_traits<char>,_STL::allocator<char> >,_STL::allocator<_STL::basic_string<char,_STL::char_traits<char>,_STL::allocator<char> > > >::insert<_STL::_List_iterator<_STL::basic_string<char,_STL::char_traits<char>,_STL::allocator<char> >,_STL::_Const_traits<_STL::basic_string<char,_STL::char_traits<char>,_STL::allocator<char> > > > >, COMDAT
; _this$ = ecx

; 312  :   void insert(iterator __pos, _InputIterator __first, _InputIterator __last) {

  00000	55		 push	 ebp
  00001	8b ec		 mov	 ebp, esp

; 313  :     typedef typename _Is_integer<_InputIterator>::_Integral _Integral;
; 314  :     _M_insert_dispatch(__pos, __first, __last, _Integral());

  00003	8b 55 08	 mov	 edx, DWORD PTR ___pos$[ebp]
  00006	8d 45 13	 lea	 eax, DWORD PTR $T101898[ebp]
  00009	50		 push	 eax
  0000a	ff 75 10	 push	 DWORD PTR ___last$[ebp]
  0000d	ff 75 0c	 push	 DWORD PTR ___first$[ebp]
  00010	51		 push	 ecx
  00011	8b c4		 mov	 eax, esp
  00013	89 10		 mov	 DWORD PTR [eax], edx
  00015	e8 00 00 00 00	 call	 ??$_M_insert_dispatch@U?$_List_iterator@V?$basic_string@DV?$char_traits@D@_STL@@V?$allocator@D@2@@_STL@@U?$_Const_traits@V?$basic_string@DV?$char_traits@D@_STL@@V?$allocator@D@2@@_STL@@@2@@_STL@@@?$list@V?$basic_string@DV?$char_traits@D@_STL@@V?$allocator@D@2@@_STL@@V?$allocator@V?$basic_string@DV?$char_traits@D@_STL@@V?$allocator@D@2@@_STL@@@2@@_STL@@QAEXU?$_List_iterator@V?$basic_string@DV?$char_traits@D@_STL@@V?$allocator@D@2@@_STL@@U?$_Nonconst_traits@V?$basic_string@DV?$char_traits@D@_STL@@V?$allocator@D@2@@_STL@@@2@@1@U?$_List_iterator@V?$basic_string@DV?$char_traits@D@_STL@@V?$allocator@D@2@@_STL@@U?$_Const_traits@V?$basic_string@DV?$char_traits@D@_STL@@V?$allocator@D@2@@_STL@@@2@@1@1ABU__false_type@1@@Z ; _STL::list<_STL::basic_string<char,_STL::char_traits<char>,_STL::allocator<char> >,_STL::allocator<_STL::basic_string<char,_STL::char_traits<char>,_STL::allocator<char> > > >::_M_insert_dispatch<_STL::_List_iterator<_STL::basic_string<char,_STL::char_traits<char>,_STL::allocator<char> >,_STL::_Const_traits<_STL::basic_string<char,_STL::char_traits<char>,_STL::allocator<char> > > > >

; 315  :   }

  0001a	5d		 pop	 ebp
  0001b	c2 0c 00	 ret	 12			; 0000000cH
??$insert@U?$_List_iterator@V?$basic_string@DV?$char_traits@D@_STL@@V?$allocator@D@2@@_STL@@U?$_Const_traits@V?$basic_string@DV?$char_traits@D@_STL@@V?$allocator@D@2@@_STL@@@2@@_STL@@@?$list@V?$basic_string@DV?$char_traits@D@_STL@@V?$allocator@D@2@@_STL@@V?$allocator@V?$basic_string@DV?$char_traits@D@_STL@@V?$allocator@D@2@@_STL@@@2@@_STL@@QAEXU?$_List_iterator@V?$basic_string@DV?$char_traits@D@_STL@@V?$allocator@D@2@@_STL@@U?$_Nonconst_traits@V?$basic_string@DV?$char_traits@D@_STL@@V?$allocator@D@2@@_STL@@@2@@1@U?$_List_iterator@V?$basic_string@DV?$char_traits@D@_STL@@V?$allocator@D@2@@_STL@@U?$_Const_traits@V?$basic_string@DV?$char_traits@D@_STL@@V?$allocator@D@2@@_STL@@@2@@1@1@Z ENDP ; _STL::list<_STL::basic_string<char,_STL::char_traits<char>,_STL::allocator<char> >,_STL::allocator<_STL::basic_string<char,_STL::char_traits<char>,_STL::allocator<char> > > >::insert<_STL::_List_iterator<_STL::basic_string<char,_STL::char_traits<char>,_STL::allocator<char> >,_STL::_Const_traits<_STL::basic_string<char,_STL::char_traits<char>,_STL::allocator<char> > > > >
_TEXT	ENDS
PUBLIC	??_R1A@?0A@A@Throwable@@8			; Throwable::`RTTI Base Class Descriptor at (0,-1,0,0)'
PUBLIC	??_R0?AVThrowable@@@8				; Throwable `RTTI Type Descriptor'
PUBLIC	??0Throwable@@QAE@V?$basic_string@DV?$char_traits@D@_STL@@V?$allocator@D@2@@_STL@@@Z ; Throwable::Throwable
PUBLIC	?getName@Throwable@@UBE?AV?$basic_string@DV?$char_traits@D@_STL@@V?$allocator@D@2@@_STL@@XZ ; Throwable::getName
PUBLIC	?toString@Throwable@@UBE?AV?$basic_string@DV?$char_traits@D@_STL@@V?$allocator@D@2@@_STL@@XZ ; Throwable::toString
PUBLIC	??_R4Throwable@@6B@				; Throwable::`RTTI Complete Object Locator'
PUBLIC	??_R3Throwable@@8				; Throwable::`RTTI Class Hierarchy Descriptor'
PUBLIC	??_R2Throwable@@8				; Throwable::`RTTI Base Class Array'
PUBLIC	??_7Throwable@@6B@				; Throwable::`vftable'
PUBLIC	??_GThrowable@@UAEPAXI@Z			; Throwable::`scalar deleting destructor'
EXTRN	??_7type_info@@6B@:QWORD			; type_info::`vftable'
EXTRN	??_EThrowable@@UAEPAXI@Z:NEAR			; Throwable::`vector deleting destructor'
;	COMDAT ??_7Throwable@@6B@
; File c:\stlport-4.6.1\stlport\stl\_alloc.h
CONST	SEGMENT
??_7Throwable@@6B@ DD FLAT:??_R4Throwable@@6B@		; Throwable::`vftable'
	DD	FLAT:??_EThrowable@@UAEPAXI@Z
	DD	FLAT:?getName@Throwable@@UBE?AV?$basic_string@DV?$char_traits@D@_STL@@V?$allocator@D@2@@_STL@@XZ
	DD	FLAT:?toString@Throwable@@UBE?AV?$basic_string@DV?$char_traits@D@_STL@@V?$allocator@D@2@@_STL@@XZ
CONST	ENDS
;	COMDAT ??_R4Throwable@@6B@
rdata$r	SEGMENT
??_R4Throwable@@6B@ DD 00H				; Throwable::`RTTI Complete Object Locator'
	DD	00H
	DD	00H
	DD	FLAT:??_R0?AVThrowable@@@8
	DD	FLAT:??_R3Throwable@@8
rdata$r	ENDS
;	COMDAT ??_R0?AVThrowable@@@8
_DATA	SEGMENT
??_R0?AVThrowable@@@8 DD FLAT:??_7type_info@@6B@	; Throwable `RTTI Type Descriptor'
	DD	00H
	DB	'.?AVThrowable@@', 00H
	ORG $-24
	DD	FLAT:??_7type_info@@6B@
	DD	00H
	DB	'.?AVThrowable@@', 00H
_DATA	ENDS
;	COMDAT ??_R3Throwable@@8
rdata$r	SEGMENT
??_R3Throwable@@8 DD 00H				; Throwable::`RTTI Class Hierarchy Descriptor'
	DD	00H
	DD	01H
	DD	FLAT:??_R2Throwable@@8
rdata$r	ENDS
;	COMDAT ??_R2Throwable@@8
rdata$r	SEGMENT
??_R2Throwable@@8 DD FLAT:??_R1A@?0A@A@Throwable@@8	; Throwable::`RTTI Base Class Array'
rdata$r	ENDS
;	COMDAT ??_R1A@?0A@A@Throwable@@8
rdata$r	SEGMENT
??_R1A@?0A@A@Throwable@@8 DD FLAT:??_R0?AVThrowable@@@8	; Throwable::`RTTI Base Class Descriptor at (0,-1,0,0)'
	DD	00H
	DD	00H
	DD	0ffffffffH
	DD	00H
	DD	00H
; Function compile flags: /Ogsy
; File c:\darkeden\designed_common\project\client\packet\exception.h
rdata$r	ENDS
;	COMDAT ??0Throwable@@QAE@V?$basic_string@DV?$char_traits@D@_STL@@V?$allocator@D@2@@_STL@@@Z
_TEXT	SEGMENT
_message$ = 8						; size = 12
$T101912 = 19						; size = 1
??0Throwable@@QAE@V?$basic_string@DV?$char_traits@D@_STL@@V?$allocator@D@2@@_STL@@@Z PROC NEAR ; Throwable::Throwable, COMDAT
; _this$ = ecx

; 40   : 	Throwable ( std::string message ) throw () : m_Message(message) {}

  00000	55		 push	 ebp
  00001	8b ec		 mov	 ebp, esp
  00003	56		 push	 esi
  00004	8b f1		 mov	 esi, ecx
  00006	8d 45 08	 lea	 eax, DWORD PTR _message$[ebp]
  00009	50		 push	 eax
  0000a	8d 4e 04	 lea	 ecx, DWORD PTR [esi+4]
  0000d	c7 06 00 00 00
	00		 mov	 DWORD PTR [esi], OFFSET FLAT:??_7Throwable@@6B@
  00013	e8 00 00 00 00	 call	 ??0?$basic_string@DV?$char_traits@D@_STL@@V?$allocator@D@2@@_STL@@QAE@ABV01@@Z ; _STL::basic_string<char,_STL::char_traits<char>,_STL::allocator<char> >::basic_string<char,_STL::char_traits<char>,_STL::allocator<char> >
  00018	8d 45 13	 lea	 eax, DWORD PTR $T101912[ebp]
  0001b	50		 push	 eax
  0001c	8d 4e 10	 lea	 ecx, DWORD PTR [esi+16]
  0001f	e8 00 00 00 00	 call	 ??0?$list@V?$basic_string@DV?$char_traits@D@_STL@@V?$allocator@D@2@@_STL@@V?$allocator@V?$basic_string@DV?$char_traits@D@_STL@@V?$allocator@D@2@@_STL@@@2@@_STL@@QAE@ABV?$allocator@V?$basic_string@DV?$char_traits@D@_STL@@V?$allocator@D@2@@_STL@@@1@@Z ; _STL::list<_STL::basic_string<char,_STL::char_traits<char>,_STL::allocator<char> >,_STL::allocator<_STL::basic_string<char,_STL::char_traits<char>,_STL::allocator<char> > > >::list<_STL::basic_string<char,_STL::char_traits<char>,_STL::allocator<char> >,_STL::allocator<_STL::basic_string<char,_STL::char_traits<char>,_STL::allocator<char> > > >
  00024	8d 4d 08	 lea	 ecx, DWORD PTR _message$[ebp]
  00027	e8 00 00 00 00	 call	 ??1?$basic_string@DV?$char_traits@D@_STL@@V?$allocator@D@2@@_STL@@QAE@XZ ; _STL::basic_string<char,_STL::char_traits<char>,_STL::allocator<char> >::~basic_string<char,_STL::char_traits<char>,_STL::allocator<char> >
  0002c	8b c6		 mov	 eax, esi
  0002e	5e		 pop	 esi
  0002f	5d		 pop	 ebp
  00030	c2 0c 00	 ret	 12			; 0000000cH
??0Throwable@@QAE@V?$basic_string@DV?$char_traits@D@_STL@@V?$allocator@D@2@@_STL@@@Z ENDP ; Throwable::Throwable
_TEXT	ENDS
PUBLIC	??_C@_09KCKHMJEM@Throwable?$AA@			; `string'
;	COMDAT ??_C@_09KCKHMJEM@Throwable?$AA@
; File c:\stlport-4.6.1\stlport\stl\_alloc.h
CONST	SEGMENT
??_C@_09KCKHMJEM@Throwable?$AA@ DB 'Throwable', 00H	; `string'
; Function compile flags: /Ogsy
; File c:\darkeden\designed_common\project\client\packet\exception.h
CONST	ENDS
;	COMDAT ?getName@Throwable@@UBE?AV?$basic_string@DV?$char_traits@D@_STL@@V?$allocator@D@2@@_STL@@XZ
_TEXT	SEGMENT
___$ReturnUdt$ = 8					; size = 4
$T101921 = 11						; size = 1
?getName@Throwable@@UBE?AV?$basic_string@DV?$char_traits@D@_STL@@V?$allocator@D@2@@_STL@@XZ PROC NEAR ; Throwable::getName, COMDAT
; _this$ = ecx

; 46   : 	virtual std::string getName () const throw () { return "Throwable"; }

  00000	55		 push	 ebp
  00001	8b ec		 mov	 ebp, esp
  00003	8b 4d 08	 mov	 ecx, DWORD PTR ___$ReturnUdt$[ebp]
  00006	8d 45 0b	 lea	 eax, DWORD PTR $T101921[ebp]
  00009	50		 push	 eax
  0000a	68 00 00 00 00	 push	 OFFSET FLAT:??_C@_09KCKHMJEM@Throwable?$AA@
  0000f	e8 00 00 00 00	 call	 ??0?$basic_string@DV?$char_traits@D@_STL@@V?$allocator@D@2@@_STL@@QAE@PBDABV?$allocator@D@1@@Z ; _STL::basic_string<char,_STL::char_traits<char>,_STL::allocator<char> >::basic_string<char,_STL::char_traits<char>,_STL::allocator<char> >
  00014	8b 45 08	 mov	 eax, DWORD PTR ___$ReturnUdt$[ebp]
  00017	5d		 pop	 ebp
  00018	c2 04 00	 ret	 4
?getName@Throwable@@UBE?AV?$basic_string@DV?$char_traits@D@_STL@@V?$allocator@D@2@@_STL@@XZ ENDP ; Throwable::getName
_TEXT	ENDS
PUBLIC	?getStackTrace@Throwable@@QBE?AV?$basic_string@DV?$char_traits@D@_STL@@V?$allocator@D@2@@_STL@@XZ ; Throwable::getStackTrace
PUBLIC	??_C@_03MCPBMLDJ@?5?3?5?$AA@			; `string'
EXTRN	??6StringStream@@QAEAAV0@D@Z:NEAR		; StringStream::operator<<
;	COMDAT ??_C@_03MCPBMLDJ@?5?3?5?$AA@
CONST	SEGMENT
??_C@_03MCPBMLDJ@?5?3?5?$AA@ DB ' : ', 00H		; `string'
; Function compile flags: /Ogsy
CONST	ENDS
;	COMDAT ?toString@Throwable@@UBE?AV?$basic_string@DV?$char_traits@D@_STL@@V?$allocator@D@2@@_STL@@XZ
_TEXT	SEGMENT
_buf$ = -44						; size = 20
$T101932 = -24						; size = 12
$T101931 = -24						; size = 12
$T101930 = -12						; size = 12
___$ReturnUdt$ = 8					; size = 4
?toString@Throwable@@UBE?AV?$basic_string@DV?$char_traits@D@_STL@@V?$allocator@D@2@@_STL@@XZ PROC NEAR ; Throwable::toString, COMDAT
; _this$ = ecx

; 79   : 	{

  00000	55		 push	 ebp
  00001	8b ec		 mov	 ebp, esp
  00003	83 ec 2c	 sub	 esp, 44			; 0000002cH
  00006	56		 push	 esi
  00007	8b f1		 mov	 esi, ecx

; 80   : 		StringStream buf;

  00009	8d 4d d4	 lea	 ecx, DWORD PTR _buf$[ebp]
  0000c	e8 00 00 00 00	 call	 ??0StringStream@@QAE@XZ	; StringStream::StringStream

; 81   : 		buf << getName() << " : " << m_Message << '\n'
; 82   : 			<< getStackTrace () ;

  00011	8d 45 e8	 lea	 eax, DWORD PTR $T101931[ebp]
  00014	50		 push	 eax
  00015	8b ce		 mov	 ecx, esi
  00017	e8 00 00 00 00	 call	 ?getStackTrace@Throwable@@QBE?AV?$basic_string@DV?$char_traits@D@_STL@@V?$allocator@D@2@@_STL@@XZ ; Throwable::getStackTrace
  0001c	50		 push	 eax
  0001d	6a 0a		 push	 10			; 0000000aH
  0001f	8d 46 04	 lea	 eax, DWORD PTR [esi+4]
  00022	50		 push	 eax
  00023	8b 06		 mov	 eax, DWORD PTR [esi]
  00025	68 00 00 00 00	 push	 OFFSET FLAT:??_C@_03MCPBMLDJ@?5?3?5?$AA@
  0002a	8d 4d f4	 lea	 ecx, DWORD PTR $T101930[ebp]
  0002d	51		 push	 ecx
  0002e	8b ce		 mov	 ecx, esi
  00030	ff 50 04	 call	 DWORD PTR [eax+4]
  00033	50		 push	 eax
  00034	8d 4d d4	 lea	 ecx, DWORD PTR _buf$[ebp]
  00037	e8 00 00 00 00	 call	 ??6StringStream@@QAEAAV0@ABV?$basic_string@DV?$char_traits@D@_STL@@V?$allocator@D@2@@_STL@@@Z ; StringStream::operator<<
  0003c	8b c8		 mov	 ecx, eax
  0003e	e8 00 00 00 00	 call	 ??6StringStream@@QAEAAV0@PBD@Z ; StringStream::operator<<
  00043	8b c8		 mov	 ecx, eax
  00045	e8 00 00 00 00	 call	 ??6StringStream@@QAEAAV0@ABV?$basic_string@DV?$char_traits@D@_STL@@V?$allocator@D@2@@_STL@@@Z ; StringStream::operator<<
  0004a	8b c8		 mov	 ecx, eax
  0004c	e8 00 00 00 00	 call	 ??6StringStream@@QAEAAV0@D@Z ; StringStream::operator<<
  00051	8b c8		 mov	 ecx, eax
  00053	e8 00 00 00 00	 call	 ??6StringStream@@QAEAAV0@ABV?$basic_string@DV?$char_traits@D@_STL@@V?$allocator@D@2@@_STL@@@Z ; StringStream::operator<<
  00058	8d 4d f4	 lea	 ecx, DWORD PTR $T101930[ebp]
  0005b	e8 00 00 00 00	 call	 ??1?$basic_string@DV?$char_traits@D@_STL@@V?$allocator@D@2@@_STL@@QAE@XZ ; _STL::basic_string<char,_STL::char_traits<char>,_STL::allocator<char> >::~basic_string<char,_STL::char_traits<char>,_STL::allocator<char> >
  00060	8d 4d e8	 lea	 ecx, DWORD PTR $T101931[ebp]
  00063	e8 00 00 00 00	 call	 ??1?$basic_string@DV?$char_traits@D@_STL@@V?$allocator@D@2@@_STL@@QAE@XZ ; _STL::basic_string<char,_STL::char_traits<char>,_STL::allocator<char> >::~basic_string<char,_STL::char_traits<char>,_STL::allocator<char> >

; 83   : 		
; 84   : 		return std::string( buf.toString() );

  00068	8d 45 e8	 lea	 eax, DWORD PTR $T101932[ebp]
  0006b	50		 push	 eax
  0006c	8d 4d d4	 lea	 ecx, DWORD PTR _buf$[ebp]
  0006f	e8 00 00 00 00	 call	 ?toString@StringStream@@QBE?AV?$basic_string@DV?$char_traits@D@_STL@@V?$allocator@D@2@@_STL@@XZ ; StringStream::toString
  00074	8b 4d 08	 mov	 ecx, DWORD PTR ___$ReturnUdt$[ebp]
  00077	50		 push	 eax
  00078	e8 00 00 00 00	 call	 ??0?$basic_string@DV?$char_traits@D@_STL@@V?$allocator@D@2@@_STL@@QAE@ABV01@@Z ; _STL::basic_string<char,_STL::char_traits<char>,_STL::allocator<char> >::basic_string<char,_STL::char_traits<char>,_STL::allocator<char> >
  0007d	8d 4d e8	 lea	 ecx, DWORD PTR $T101932[ebp]
  00080	e8 00 00 00 00	 call	 ??1?$basic_string@DV?$char_traits@D@_STL@@V?$allocator@D@2@@_STL@@QAE@XZ ; _STL::basic_string<char,_STL::char_traits<char>,_STL::allocator<char> >::~basic_string<char,_STL::char_traits<char>,_STL::allocator<char> >
  00085	8d 4d d4	 lea	 ecx, DWORD PTR _buf$[ebp]
  00088	e8 00 00 00 00	 call	 ??1StringStream@@QAE@XZ	; StringStream::~StringStream
  0008d	8b 45 08	 mov	 eax, DWORD PTR ___$ReturnUdt$[ebp]
  00090	5e		 pop	 esi

; 85   : 	}

  00091	c9		 leave
  00092	c2 04 00	 ret	 4
?toString@Throwable@@UBE?AV?$basic_string@DV?$char_traits@D@_STL@@V?$allocator@D@2@@_STL@@XZ ENDP ; Throwable::toString
_TEXT	ENDS
PUBLIC	??_C@_01CLKCMJKC@?5?$AA@			; `string'
;	COMDAT ??_C@_01CLKCMJKC@?5?$AA@
; File c:\stlport-4.6.1\stlport\stl\_list.h
CONST	SEGMENT
??_C@_01CLKCMJKC@?5?$AA@ DB ' ', 00H			; `string'
; Function compile flags: /Ogsy
; File c:\darkeden\designed_common\project\client\packet\exception.h
CONST	ENDS
;	COMDAT ?getStackTrace@Throwable@@QBE?AV?$basic_string@DV?$char_traits@D@_STL@@V?$allocator@D@2@@_STL@@XZ
_TEXT	SEGMENT
_buf$ = -36						; size = 20
$T101937 = -16						; size = 12
tv90 = -4						; size = 4
___$ReturnUdt$ = 8					; size = 4
?getStackTrace@Throwable@@QBE?AV?$basic_string@DV?$char_traits@D@_STL@@V?$allocator@D@2@@_STL@@XZ PROC NEAR ; Throwable::getStackTrace, COMDAT
; _this$ = ecx

; 56   : 	{

  00000	55		 push	 ebp
  00001	8b ec		 mov	 ebp, esp
  00003	83 ec 24	 sub	 esp, 36			; 00000024H
  00006	53		 push	 ebx
  00007	56		 push	 esi
  00008	57		 push	 edi
  00009	8b f9		 mov	 edi, ecx

; 57   : 		StringStream buf;

  0000b	8d 4d dc	 lea	 ecx, DWORD PTR _buf$[ebp]
  0000e	e8 00 00 00 00	 call	 ??0StringStream@@QAE@XZ	; StringStream::StringStream

; 58   : 		int i = 1;
; 59   : 
; 60   : 		for ( std::list<std::string>::const_iterator itr = m_Stacks.begin() ;

  00013	8b 47 10	 mov	 eax, DWORD PTR [edi+16]
  00016	8b 30		 mov	 esi, DWORD PTR [eax]
  00018	33 db		 xor	 ebx, ebx
  0001a	43		 inc	 ebx

; 61   : 			  itr != m_Stacks.end() ;
; 62   : 			  itr ++ , i ++ ) {

  0001b	3b f0		 cmp	 esi, eax
  0001d	74 36		 je	 SHORT $L88001
$L87999:

; 63   : 			for ( int j = 0 ; j < i ; j ++ )

  0001f	85 db		 test	 ebx, ebx
  00021	7e 15		 jle	 SHORT $L88005
  00023	89 5d fc	 mov	 DWORD PTR tv90[ebp], ebx
$L88003:

; 64   : 				buf << " ";

  00026	68 00 00 00 00	 push	 OFFSET FLAT:??_C@_01CLKCMJKC@?5?$AA@
  0002b	8d 4d dc	 lea	 ecx, DWORD PTR _buf$[ebp]
  0002e	e8 00 00 00 00	 call	 ??6StringStream@@QAEAAV0@PBD@Z ; StringStream::operator<<
  00033	ff 4d fc	 dec	 DWORD PTR tv90[ebp]
  00036	75 ee		 jne	 SHORT $L88003
$L88005:

; 65   : 			buf << *itr << '\n' ;

  00038	6a 0a		 push	 10			; 0000000aH
  0003a	8d 46 08	 lea	 eax, DWORD PTR [esi+8]
  0003d	50		 push	 eax
  0003e	8d 4d dc	 lea	 ecx, DWORD PTR _buf$[ebp]
  00041	e8 00 00 00 00	 call	 ??6StringStream@@QAEAAV0@ABV?$basic_string@DV?$char_traits@D@_STL@@V?$allocator@D@2@@_STL@@@Z ; StringStream::operator<<
  00046	8b c8		 mov	 ecx, eax
  00048	e8 00 00 00 00	 call	 ??6StringStream@@QAEAAV0@D@Z ; StringStream::operator<<
  0004d	8b 36		 mov	 esi, DWORD PTR [esi]
  0004f	43		 inc	 ebx
  00050	3b 77 10	 cmp	 esi, DWORD PTR [edi+16]
  00053	75 ca		 jne	 SHORT $L87999
$L88001:

; 66   : 		}
; 67   : 		
; 68   : 		return std::string( buf.toString() );

  00055	8d 45 f0	 lea	 eax, DWORD PTR $T101937[ebp]
  00058	50		 push	 eax
  00059	8d 4d dc	 lea	 ecx, DWORD PTR _buf$[ebp]
  0005c	e8 00 00 00 00	 call	 ?toString@StringStream@@QBE?AV?$basic_string@DV?$char_traits@D@_STL@@V?$allocator@D@2@@_STL@@XZ ; StringStream::toString
  00061	8b 4d 08	 mov	 ecx, DWORD PTR ___$ReturnUdt$[ebp]
  00064	50		 push	 eax
  00065	e8 00 00 00 00	 call	 ??0?$basic_string@DV?$char_traits@D@_STL@@V?$allocator@D@2@@_STL@@QAE@ABV01@@Z ; _STL::basic_string<char,_STL::char_traits<char>,_STL::allocator<char> >::basic_string<char,_STL::char_traits<char>,_STL::allocator<char> >
  0006a	8d 4d f0	 lea	 ecx, DWORD PTR $T101937[ebp]
  0006d	e8 00 00 00 00	 call	 ??1?$basic_string@DV?$char_traits@D@_STL@@V?$allocator@D@2@@_STL@@QAE@XZ ; _STL::basic_string<char,_STL::char_traits<char>,_STL::allocator<char> >::~basic_string<char,_STL::char_traits<char>,_STL::allocator<char> >
  00072	8d 4d dc	 lea	 ecx, DWORD PTR _buf$[ebp]
  00075	e8 00 00 00 00	 call	 ??1StringStream@@QAE@XZ	; StringStream::~StringStream
  0007a	8b 45 08	 mov	 eax, DWORD PTR ___$ReturnUdt$[ebp]
  0007d	5f		 pop	 edi
  0007e	5e		 pop	 esi
  0007f	5b		 pop	 ebx

; 69   : 	}

  00080	c9		 leave
  00081	c2 04 00	 ret	 4
?getStackTrace@Throwable@@QBE?AV?$basic_string@DV?$char_traits@D@_STL@@V?$allocator@D@2@@_STL@@XZ ENDP ; Throwable::getStackTrace
_TEXT	ENDS
PUBLIC	??1Throwable@@UAE@XZ				; Throwable::~Throwable
; Function compile flags: /Ogsy
;	COMDAT ??1Throwable@@UAE@XZ
_TEXT	SEGMENT
??1Throwable@@UAE@XZ PROC NEAR				; Throwable::~Throwable, COMDAT
; _this$ = ecx

; 43   : 	virtual ~Throwable () throw () {}

  00000	56		 push	 esi
  00001	8b f1		 mov	 esi, ecx
  00003	8d 4e 10	 lea	 ecx, DWORD PTR [esi+16]
  00006	c7 06 00 00 00
	00		 mov	 DWORD PTR [esi], OFFSET FLAT:??_7Throwable@@6B@
  0000c	e8 00 00 00 00	 call	 ??1?$list@V?$basic_string@DV?$char_traits@D@_STL@@V?$allocator@D@2@@_STL@@V?$allocator@V?$basic_string@DV?$char_traits@D@_STL@@V?$allocator@D@2@@_STL@@@2@@_STL@@QAE@XZ ; _STL::list<_STL::basic_string<char,_STL::char_traits<char>,_STL::allocator<char> >,_STL::allocator<_STL::basic_string<char,_STL::char_traits<char>,_STL::allocator<char> > > >::~list<_STL::basic_string<char,_STL::char_traits<char>,_STL::allocator<char> >,_STL::allocator<_STL::basic_string<char,_STL::char_traits<char>,_STL::allocator<char> > > >
  00011	8d 4e 04	 lea	 ecx, DWORD PTR [esi+4]
  00014	5e		 pop	 esi
  00015	e9 00 00 00 00	 jmp	 ??1?$basic_string@DV?$char_traits@D@_STL@@V?$allocator@D@2@@_STL@@QAE@XZ ; _STL::basic_string<char,_STL::char_traits<char>,_STL::allocator<char> >::~basic_string<char,_STL::char_traits<char>,_STL::allocator<char> >
??1Throwable@@UAE@XZ ENDP				; Throwable::~Throwable
; Function compile flags: /Ogsy
_TEXT	ENDS
;	COMDAT ??_GThrowable@@UAEPAXI@Z
_TEXT	SEGMENT
___flags$ = 8						; size = 4
??_GThrowable@@UAEPAXI@Z PROC NEAR			; Throwable::`scalar deleting destructor', COMDAT
; _this$ = ecx
  00000	56		 push	 esi
  00001	8b f1		 mov	 esi, ecx
  00003	e8 00 00 00 00	 call	 ??1Throwable@@UAE@XZ	; Throwable::~Throwable
  00008	f6 44 24 08 01	 test	 BYTE PTR ___flags$[esp], 1
  0000d	74 07		 je	 SHORT $L88026
  0000f	56		 push	 esi
  00010	e8 00 00 00 00	 call	 ??3@YAXPAX@Z		; operator delete
  00015	59		 pop	 ecx
$L88026:
  00016	8b c6		 mov	 eax, esi
  00018	5e		 pop	 esi
  00019	c2 04 00	 ret	 4
??_GThrowable@@UAEPAXI@Z ENDP				; Throwable::`scalar deleting destructor'
_TEXT	ENDS
PUBLIC	??_R1A@?0A@A@Exception@@8			; Exception::`RTTI Base Class Descriptor at (0,-1,0,0)'
PUBLIC	??_R0?AVException@@@8				; Exception `RTTI Type Descriptor'
PUBLIC	??_R4Exception@@6B@				; Exception::`RTTI Complete Object Locator'
PUBLIC	??_R3Exception@@8				; Exception::`RTTI Class Hierarchy Descriptor'
PUBLIC	??_R2Exception@@8				; Exception::`RTTI Base Class Array'
PUBLIC	??0Exception@@QAE@V?$basic_string@DV?$char_traits@D@_STL@@V?$allocator@D@2@@_STL@@@Z ; Exception::Exception
PUBLIC	?getName@Exception@@UBE?AV?$basic_string@DV?$char_traits@D@_STL@@V?$allocator@D@2@@_STL@@XZ ; Exception::getName
PUBLIC	??_7Exception@@6B@				; Exception::`vftable'
PUBLIC	??_GException@@UAEPAXI@Z			; Exception::`scalar deleting destructor'
EXTRN	??_EException@@UAEPAXI@Z:NEAR			; Exception::`vector deleting destructor'
;	COMDAT ??_7Exception@@6B@
CONST	SEGMENT
??_7Exception@@6B@ DD FLAT:??_R4Exception@@6B@		; Exception::`vftable'
	DD	FLAT:??_EException@@UAEPAXI@Z
	DD	FLAT:?getName@Exception@@UBE?AV?$basic_string@DV?$char_traits@D@_STL@@V?$allocator@D@2@@_STL@@XZ
	DD	FLAT:?toString@Throwable@@UBE?AV?$basic_string@DV?$char_traits@D@_STL@@V?$allocator@D@2@@_STL@@XZ
CONST	ENDS
;	COMDAT ??_R4Exception@@6B@
rdata$r	SEGMENT
??_R4Exception@@6B@ DD 00H				; Exception::`RTTI Complete Object Locator'
	DD	00H
	DD	00H
	DD	FLAT:??_R0?AVException@@@8
	DD	FLAT:??_R3Exception@@8
rdata$r	ENDS
;	COMDAT ??_R0?AVException@@@8
_DATA	SEGMENT
??_R0?AVException@@@8 DD FLAT:??_7type_info@@6B@	; Exception `RTTI Type Descriptor'
	DD	00H
	DB	'.?AVException@@', 00H
	ORG $-24
	DD	FLAT:??_7type_info@@6B@
	DD	00H
	DB	'.?AVException@@', 00H
_DATA	ENDS
;	COMDAT ??_R3Exception@@8
rdata$r	SEGMENT
??_R3Exception@@8 DD 00H				; Exception::`RTTI Class Hierarchy Descriptor'
	DD	00H
	DD	02H
	DD	FLAT:??_R2Exception@@8
rdata$r	ENDS
;	COMDAT ??_R2Exception@@8
rdata$r	SEGMENT
??_R2Exception@@8 DD FLAT:??_R1A@?0A@A@Exception@@8	; Exception::`RTTI Base Class Array'
	DD	FLAT:??_R1A@?0A@A@Throwable@@8
rdata$r	ENDS
;	COMDAT ??_R1A@?0A@A@Exception@@8
rdata$r	SEGMENT
??_R1A@?0A@A@Exception@@8 DD FLAT:??_R0?AVException@@@8	; Exception::`RTTI Base Class Descriptor at (0,-1,0,0)'
	DD	01H
	DD	00H
	DD	0ffffffffH
	DD	00H
	DD	00H
; Function compile flags: /Ogsy
rdata$r	ENDS
;	COMDAT ??0Exception@@QAE@V?$basic_string@DV?$char_traits@D@_STL@@V?$allocator@D@2@@_STL@@@Z
_TEXT	SEGMENT
$T101998 = -4						; size = 4
_msg$ = 8						; size = 12
??0Exception@@QAE@V?$basic_string@DV?$char_traits@D@_STL@@V?$allocator@D@2@@_STL@@@Z PROC NEAR ; Exception::Exception, COMDAT
; _this$ = ecx

; 175  : 	Exception ( std::string msg ) throw () : Throwable(msg) {}

  00000	55		 push	 ebp
  00001	8b ec		 mov	 ebp, esp
  00003	51		 push	 ecx
  00004	56		 push	 esi
  00005	83 ec 0c	 sub	 esp, 12			; 0000000cH
  00008	8b f1		 mov	 esi, ecx
  0000a	8d 45 08	 lea	 eax, DWORD PTR _msg$[ebp]
  0000d	8b cc		 mov	 ecx, esp
  0000f	89 65 fc	 mov	 DWORD PTR $T101998[ebp], esp
  00012	50		 push	 eax
  00013	e8 00 00 00 00	 call	 ??0?$basic_string@DV?$char_traits@D@_STL@@V?$allocator@D@2@@_STL@@QAE@ABV01@@Z ; _STL::basic_string<char,_STL::char_traits<char>,_STL::allocator<char> >::basic_string<char,_STL::char_traits<char>,_STL::allocator<char> >
  00018	8b ce		 mov	 ecx, esi
  0001a	e8 00 00 00 00	 call	 ??0Throwable@@QAE@V?$basic_string@DV?$char_traits@D@_STL@@V?$allocator@D@2@@_STL@@@Z ; Throwable::Throwable
  0001f	8d 4d 08	 lea	 ecx, DWORD PTR _msg$[ebp]
  00022	c7 06 00 00 00
	00		 mov	 DWORD PTR [esi], OFFSET FLAT:??_7Exception@@6B@
  00028	e8 00 00 00 00	 call	 ??1?$basic_string@DV?$char_traits@D@_STL@@V?$allocator@D@2@@_STL@@QAE@XZ ; _STL::basic_string<char,_STL::char_traits<char>,_STL::allocator<char> >::~basic_string<char,_STL::char_traits<char>,_STL::allocator<char> >
  0002d	8b c6		 mov	 eax, esi
  0002f	5e		 pop	 esi
  00030	c9		 leave
  00031	c2 0c 00	 ret	 12			; 0000000cH
??0Exception@@QAE@V?$basic_string@DV?$char_traits@D@_STL@@V?$allocator@D@2@@_STL@@@Z ENDP ; Exception::Exception
_TEXT	ENDS
PUBLIC	??_C@_09FBNMMHMJ@Exception?$AA@			; `string'
;	COMDAT ??_C@_09FBNMMHMJ@Exception?$AA@
; File c:\stlport-4.6.1\stlport\stl\_alloc.h
CONST	SEGMENT
??_C@_09FBNMMHMJ@Exception?$AA@ DB 'Exception', 00H	; `string'
; Function compile flags: /Ogsy
; File c:\darkeden\designed_common\project\client\packet\exception.h
CONST	ENDS
;	COMDAT ?getName@Exception@@UBE?AV?$basic_string@DV?$char_traits@D@_STL@@V?$allocator@D@2@@_STL@@XZ
_TEXT	SEGMENT
___$ReturnUdt$ = 8					; size = 4
$T102001 = 11						; size = 1
?getName@Exception@@UBE?AV?$basic_string@DV?$char_traits@D@_STL@@V?$allocator@D@2@@_STL@@XZ PROC NEAR ; Exception::getName, COMDAT
; _this$ = ecx

; 176  : 	std::string getName () const throw () { return "Exception"; }

  00000	55		 push	 ebp
  00001	8b ec		 mov	 ebp, esp
  00003	8b 4d 08	 mov	 ecx, DWORD PTR ___$ReturnUdt$[ebp]
  00006	8d 45 0b	 lea	 eax, DWORD PTR $T102001[ebp]
  00009	50		 push	 eax
  0000a	68 00 00 00 00	 push	 OFFSET FLAT:??_C@_09FBNMMHMJ@Exception?$AA@
  0000f	e8 00 00 00 00	 call	 ??0?$basic_string@DV?$char_traits@D@_STL@@V?$allocator@D@2@@_STL@@QAE@PBDABV?$allocator@D@1@@Z ; _STL::basic_string<char,_STL::char_traits<char>,_STL::allocator<char> >::basic_string<char,_STL::char_traits<char>,_STL::allocator<char> >
  00014	8b 45 08	 mov	 eax, DWORD PTR ___$ReturnUdt$[ebp]
  00017	5d		 pop	 ebp
  00018	c2 04 00	 ret	 4
?getName@Exception@@UBE?AV?$basic_string@DV?$char_traits@D@_STL@@V?$allocator@D@2@@_STL@@XZ ENDP ; Exception::getName
_TEXT	ENDS
PUBLIC	??1Exception@@UAE@XZ				; Exception::~Exception
; Function compile flags: /Ogsy
;	COMDAT ??1Exception@@UAE@XZ
_TEXT	SEGMENT
??1Exception@@UAE@XZ PROC NEAR				; Exception::~Exception, COMDAT
; _this$ = ecx
  00000	e9 00 00 00 00	 jmp	 ??1Throwable@@UAE@XZ	; Throwable::~Throwable
??1Exception@@UAE@XZ ENDP				; Exception::~Exception
_TEXT	ENDS
PUBLIC	??0IOException@@QAE@V?$basic_string@DV?$char_traits@D@_STL@@V?$allocator@D@2@@_STL@@@Z ; IOException::IOException
PUBLIC	?getName@IOException@@UBE?AV?$basic_string@DV?$char_traits@D@_STL@@V?$allocator@D@2@@_STL@@XZ ; IOException::getName
PUBLIC	??_R4IOException@@6B@				; IOException::`RTTI Complete Object Locator'
PUBLIC	??_R3IOException@@8				; IOException::`RTTI Class Hierarchy Descriptor'
PUBLIC	??_R2IOException@@8				; IOException::`RTTI Base Class Array'
PUBLIC	??_7IOException@@6B@				; IOException::`vftable'
PUBLIC	??_GIOException@@UAEPAXI@Z			; IOException::`scalar deleting destructor'
PUBLIC	??_R1A@?0A@A@IOException@@8			; IOException::`RTTI Base Class Descriptor at (0,-1,0,0)'
PUBLIC	??_R0?AVIOException@@@8				; IOException `RTTI Type Descriptor'
EXTRN	??_EIOException@@UAEPAXI@Z:NEAR			; IOException::`vector deleting destructor'
;	COMDAT ??_7IOException@@6B@
CONST	SEGMENT
??_7IOException@@6B@ DD FLAT:??_R4IOException@@6B@	; IOException::`vftable'
	DD	FLAT:??_EIOException@@UAEPAXI@Z
	DD	FLAT:?getName@IOException@@UBE?AV?$basic_string@DV?$char_traits@D@_STL@@V?$allocator@D@2@@_STL@@XZ
	DD	FLAT:?toString@Throwable@@UBE?AV?$basic_string@DV?$char_traits@D@_STL@@V?$allocator@D@2@@_STL@@XZ
CONST	ENDS
;	COMDAT ??_R4IOException@@6B@
rdata$r	SEGMENT
??_R4IOException@@6B@ DD 00H				; IOException::`RTTI Complete Object Locator'
	DD	00H
	DD	00H
	DD	FLAT:??_R0?AVIOException@@@8
	DD	FLAT:??_R3IOException@@8
rdata$r	ENDS
;	COMDAT ??_R0?AVIOException@@@8
_DATA	SEGMENT
??_R0?AVIOException@@@8 DD FLAT:??_7type_info@@6B@	; IOException `RTTI Type Descriptor'
	DD	00H
	DB	'.?AVIOException@@', 00H
	ORG $-26
	DD	FLAT:??_7type_info@@6B@
	DD	00H
	DB	'.?AVIOException@@', 00H
_DATA	ENDS
;	COMDAT ??_R3IOException@@8
rdata$r	SEGMENT
??_R3IOException@@8 DD 00H				; IOException::`RTTI Class Hierarchy Descriptor'
	DD	00H
	DD	03H
	DD	FLAT:??_R2IOException@@8
rdata$r	ENDS
;	COMDAT ??_R2IOException@@8
rdata$r	SEGMENT
??_R2IOException@@8 DD FLAT:??_R1A@?0A@A@IOException@@8	; IOException::`RTTI Base Class Array'
	DD	FLAT:??_R1A@?0A@A@Exception@@8
	DD	FLAT:??_R1A@?0A@A@Throwable@@8
rdata$r	ENDS
;	COMDAT ??_R1A@?0A@A@IOException@@8
rdata$r	SEGMENT
??_R1A@?0A@A@IOException@@8 DD FLAT:??_R0?AVIOException@@@8 ; IOException::`RTTI Base Class Descriptor at (0,-1,0,0)'
	DD	02H
	DD	00H
	DD	0ffffffffH
	DD	00H
	DD	00H
; Function compile flags: /Ogsy
rdata$r	ENDS
;	COMDAT ??0IOException@@QAE@V?$basic_string@DV?$char_traits@D@_STL@@V?$allocator@D@2@@_STL@@@Z
_TEXT	SEGMENT
$T102013 = -4						; size = 4
_msg$ = 8						; size = 12
??0IOException@@QAE@V?$basic_string@DV?$char_traits@D@_STL@@V?$allocator@D@2@@_STL@@@Z PROC NEAR ; IOException::IOException, COMDAT
; _this$ = ecx

; 190  : 		IOException ( std::string msg ) throw () : Exception (msg) {}

  00000	55		 push	 ebp
  00001	8b ec		 mov	 ebp, esp
  00003	51		 push	 ecx
  00004	56		 push	 esi
  00005	83 ec 0c	 sub	 esp, 12			; 0000000cH
  00008	8b f1		 mov	 esi, ecx
  0000a	8d 45 08	 lea	 eax, DWORD PTR _msg$[ebp]
  0000d	8b cc		 mov	 ecx, esp
  0000f	89 65 fc	 mov	 DWORD PTR $T102013[ebp], esp
  00012	50		 push	 eax
  00013	e8 00 00 00 00	 call	 ??0?$basic_string@DV?$char_traits@D@_STL@@V?$allocator@D@2@@_STL@@QAE@ABV01@@Z ; _STL::basic_string<char,_STL::char_traits<char>,_STL::allocator<char> >::basic_string<char,_STL::char_traits<char>,_STL::allocator<char> >
  00018	8b ce		 mov	 ecx, esi
  0001a	e8 00 00 00 00	 call	 ??0Exception@@QAE@V?$basic_string@DV?$char_traits@D@_STL@@V?$allocator@D@2@@_STL@@@Z ; Exception::Exception
  0001f	8d 4d 08	 lea	 ecx, DWORD PTR _msg$[ebp]
  00022	c7 06 00 00 00
	00		 mov	 DWORD PTR [esi], OFFSET FLAT:??_7IOException@@6B@
  00028	e8 00 00 00 00	 call	 ??1?$basic_string@DV?$char_traits@D@_STL@@V?$allocator@D@2@@_STL@@QAE@XZ ; _STL::basic_string<char,_STL::char_traits<char>,_STL::allocator<char> >::~basic_string<char,_STL::char_traits<char>,_STL::allocator<char> >
  0002d	8b c6		 mov	 eax, esi
  0002f	5e		 pop	 esi
  00030	c9		 leave
  00031	c2 0c 00	 ret	 12			; 0000000cH
??0IOException@@QAE@V?$basic_string@DV?$char_traits@D@_STL@@V?$allocator@D@2@@_STL@@@Z ENDP ; IOException::IOException
_TEXT	ENDS
PUBLIC	??_C@_0M@CBPJAJJI@IOException?$AA@		; `string'
;	COMDAT ??_C@_0M@CBPJAJJI@IOException?$AA@
; File c:\stlport-4.6.1\stlport\stl\_alloc.h
CONST	SEGMENT
??_C@_0M@CBPJAJJI@IOException?$AA@ DB 'IOException', 00H ; `string'
; Function compile flags: /Ogsy
; File c:\darkeden\designed_common\project\client\packet\exception.h
CONST	ENDS
;	COMDAT ?getName@IOException@@UBE?AV?$basic_string@DV?$char_traits@D@_STL@@V?$allocator@D@2@@_STL@@XZ
_TEXT	SEGMENT
___$ReturnUdt$ = 8					; size = 4
$T102016 = 11						; size = 1
?getName@IOException@@UBE?AV?$basic_string@DV?$char_traits@D@_STL@@V?$allocator@D@2@@_STL@@XZ PROC NEAR ; IOException::getName, COMDAT
; _this$ = ecx

; 191  : 		std::string getName () const throw () { return "IOException"; }

  00000	55		 push	 ebp
  00001	8b ec		 mov	 ebp, esp
  00003	8b 4d 08	 mov	 ecx, DWORD PTR ___$ReturnUdt$[ebp]
  00006	8d 45 0b	 lea	 eax, DWORD PTR $T102016[ebp]
  00009	50		 push	 eax
  0000a	68 00 00 00 00	 push	 OFFSET FLAT:??_C@_0M@CBPJAJJI@IOException?$AA@
  0000f	e8 00 00 00 00	 call	 ??0?$basic_string@DV?$char_traits@D@_STL@@V?$allocator@D@2@@_STL@@QAE@PBDABV?$allocator@D@1@@Z ; _STL::basic_string<char,_STL::char_traits<char>,_STL::allocator<char> >::basic_string<char,_STL::char_traits<char>,_STL::allocator<char> >
  00014	8b 45 08	 mov	 eax, DWORD PTR ___$ReturnUdt$[ebp]
  00017	5d		 pop	 ebp
  00018	c2 04 00	 ret	 4
?getName@IOException@@UBE?AV?$basic_string@DV?$char_traits@D@_STL@@V?$allocator@D@2@@_STL@@XZ ENDP ; IOException::getName
_TEXT	ENDS
PUBLIC	??1IOException@@UAE@XZ				; IOException::~IOException
; Function compile flags: /Ogsy
;	COMDAT ??1IOException@@UAE@XZ
_TEXT	SEGMENT
??1IOException@@UAE@XZ PROC NEAR			; IOException::~IOException, COMDAT
; _this$ = ecx
  00000	e9 00 00 00 00	 jmp	 ??1Exception@@UAE@XZ
??1IOException@@UAE@XZ ENDP				; IOException::~IOException
_TEXT	ENDS
PUBLIC	??0ProtocolException@@QAE@V?$basic_string@DV?$char_traits@D@_STL@@V?$allocator@D@2@@_STL@@@Z ; ProtocolException::ProtocolException
PUBLIC	?getName@ProtocolException@@UBE?AV?$basic_string@DV?$char_traits@D@_STL@@V?$allocator@D@2@@_STL@@XZ ; ProtocolException::getName
PUBLIC	??_7ProtocolException@@6B@			; ProtocolException::`vftable'
PUBLIC	??_GProtocolException@@UAEPAXI@Z		; ProtocolException::`scalar deleting destructor'
PUBLIC	??_R1A@?0A@A@ProtocolException@@8		; ProtocolException::`RTTI Base Class Descriptor at (0,-1,0,0)'
PUBLIC	??_R0?AVProtocolException@@@8			; ProtocolException `RTTI Type Descriptor'
PUBLIC	??_R4ProtocolException@@6B@			; ProtocolException::`RTTI Complete Object Locator'
PUBLIC	??_R3ProtocolException@@8			; ProtocolException::`RTTI Class Hierarchy Descriptor'
PUBLIC	??_R2ProtocolException@@8			; ProtocolException::`RTTI Base Class Array'
EXTRN	??_EProtocolException@@UAEPAXI@Z:NEAR		; ProtocolException::`vector deleting destructor'
;	COMDAT ??_7ProtocolException@@6B@
CONST	SEGMENT
??_7ProtocolException@@6B@ DD FLAT:??_R4ProtocolException@@6B@ ; ProtocolException::`vftable'
	DD	FLAT:??_EProtocolException@@UAEPAXI@Z
	DD	FLAT:?getName@ProtocolException@@UBE?AV?$basic_string@DV?$char_traits@D@_STL@@V?$allocator@D@2@@_STL@@XZ
	DD	FLAT:?toString@Throwable@@UBE?AV?$basic_string@DV?$char_traits@D@_STL@@V?$allocator@D@2@@_STL@@XZ
CONST	ENDS
;	COMDAT ??_R4ProtocolException@@6B@
rdata$r	SEGMENT
??_R4ProtocolException@@6B@ DD 00H			; ProtocolException::`RTTI Complete Object Locator'
	DD	00H
	DD	00H
	DD	FLAT:??_R0?AVProtocolException@@@8
	DD	FLAT:??_R3ProtocolException@@8
rdata$r	ENDS
;	COMDAT ??_R0?AVProtocolException@@@8
_DATA	SEGMENT
??_R0?AVProtocolException@@@8 DD FLAT:??_7type_info@@6B@ ; ProtocolException `RTTI Type Descriptor'
	DD	00H
	DB	'.?AVProtocolException@@', 00H
	ORG $-32
	DD	FLAT:??_7type_info@@6B@
	DD	00H
	DB	'.?AVProtocolException@@', 00H
_DATA	ENDS
;	COMDAT ??_R3ProtocolException@@8
rdata$r	SEGMENT
??_R3ProtocolException@@8 DD 00H			; ProtocolException::`RTTI Class Hierarchy Descriptor'
	DD	00H
	DD	04H
	DD	FLAT:??_R2ProtocolException@@8
rdata$r	ENDS
;	COMDAT ??_R2ProtocolException@@8
rdata$r	SEGMENT
??_R2ProtocolException@@8 DD FLAT:??_R1A@?0A@A@ProtocolException@@8 ; ProtocolException::`RTTI Base Class Array'
	DD	FLAT:??_R1A@?0A@A@IOException@@8
	DD	FLAT:??_R1A@?0A@A@Exception@@8
	DD	FLAT:??_R1A@?0A@A@Throwable@@8
rdata$r	ENDS
;	COMDAT ??_R1A@?0A@A@ProtocolException@@8
rdata$r	SEGMENT
??_R1A@?0A@A@ProtocolException@@8 DD FLAT:??_R0?AVProtocolException@@@8 ; ProtocolException::`RTTI Base Class Descriptor at (0,-1,0,0)'
	DD	03H
	DD	00H
	DD	0ffffffffH
	DD	00H
	DD	00H
; Function compile flags: /Ogsy
rdata$r	ENDS
;	COMDAT ??0ProtocolException@@QAE@V?$basic_string@DV?$char_traits@D@_STL@@V?$allocator@D@2@@_STL@@@Z
_TEXT	SEGMENT
$T102028 = -4						; size = 4
_msg$ = 8						; size = 12
??0ProtocolException@@QAE@V?$basic_string@DV?$char_traits@D@_STL@@V?$allocator@D@2@@_STL@@@Z PROC NEAR ; ProtocolException::ProtocolException, COMDAT
; _this$ = ecx

; 338  : 			ProtocolException ( std::string msg ) throw () : IOException (msg) {}

  00000	55		 push	 ebp
  00001	8b ec		 mov	 ebp, esp
  00003	51		 push	 ecx
  00004	56		 push	 esi
  00005	83 ec 0c	 sub	 esp, 12			; 0000000cH
  00008	8b f1		 mov	 esi, ecx
  0000a	8d 45 08	 lea	 eax, DWORD PTR _msg$[ebp]
  0000d	8b cc		 mov	 ecx, esp
  0000f	89 65 fc	 mov	 DWORD PTR $T102028[ebp], esp
  00012	50		 push	 eax
  00013	e8 00 00 00 00	 call	 ??0?$basic_string@DV?$char_traits@D@_STL@@V?$allocator@D@2@@_STL@@QAE@ABV01@@Z ; _STL::basic_string<char,_STL::char_traits<char>,_STL::allocator<char> >::basic_string<char,_STL::char_traits<char>,_STL::allocator<char> >
  00018	8b ce		 mov	 ecx, esi
  0001a	e8 00 00 00 00	 call	 ??0IOException@@QAE@V?$basic_string@DV?$char_traits@D@_STL@@V?$allocator@D@2@@_STL@@@Z ; IOException::IOException
  0001f	8d 4d 08	 lea	 ecx, DWORD PTR _msg$[ebp]
  00022	c7 06 00 00 00
	00		 mov	 DWORD PTR [esi], OFFSET FLAT:??_7ProtocolException@@6B@
  00028	e8 00 00 00 00	 call	 ??1?$basic_string@DV?$char_traits@D@_STL@@V?$allocator@D@2@@_STL@@QAE@XZ ; _STL::basic_string<char,_STL::char_traits<char>,_STL::allocator<char> >::~basic_string<char,_STL::char_traits<char>,_STL::allocator<char> >
  0002d	8b c6		 mov	 eax, esi
  0002f	5e		 pop	 esi
  00030	c9		 leave
  00031	c2 0c 00	 ret	 12			; 0000000cH
??0ProtocolException@@QAE@V?$basic_string@DV?$char_traits@D@_STL@@V?$allocator@D@2@@_STL@@@Z ENDP ; ProtocolException::ProtocolException
_TEXT	ENDS
PUBLIC	??_C@_0BC@KDBIDNIF@ProtocolException?$AA@	; `string'
;	COMDAT ??_C@_0BC@KDBIDNIF@ProtocolException?$AA@
; File c:\stlport-4.6.1\stlport\stl\_alloc.h
CONST	SEGMENT
??_C@_0BC@KDBIDNIF@ProtocolException?$AA@ DB 'ProtocolException', 00H ; `string'
; Function compile flags: /Ogsy
; File c:\darkeden\designed_common\project\client\packet\exception.h
CONST	ENDS
;	COMDAT ?getName@ProtocolException@@UBE?AV?$basic_string@DV?$char_traits@D@_STL@@V?$allocator@D@2@@_STL@@XZ
_TEXT	SEGMENT
___$ReturnUdt$ = 8					; size = 4
$T102031 = 11						; size = 1
?getName@ProtocolException@@UBE?AV?$basic_string@DV?$char_traits@D@_STL@@V?$allocator@D@2@@_STL@@XZ PROC NEAR ; ProtocolException::getName, COMDAT
; _this$ = ecx

; 339  : 			std::string getName () const throw () { return "ProtocolException"; }

  00000	55		 push	 ebp
  00001	8b ec		 mov	 ebp, esp
  00003	8b 4d 08	 mov	 ecx, DWORD PTR ___$ReturnUdt$[ebp]
  00006	8d 45 0b	 lea	 eax, DWORD PTR $T102031[ebp]
  00009	50		 push	 eax
  0000a	68 00 00 00 00	 push	 OFFSET FLAT:??_C@_0BC@KDBIDNIF@ProtocolException?$AA@
  0000f	e8 00 00 00 00	 call	 ??0?$basic_string@DV?$char_traits@D@_STL@@V?$allocator@D@2@@_STL@@QAE@PBDABV?$allocator@D@1@@Z ; _STL::basic_string<char,_STL::char_traits<char>,_STL::allocator<char> >::basic_string<char,_STL::char_traits<char>,_STL::allocator<char> >
  00014	8b 45 08	 mov	 eax, DWORD PTR ___$ReturnUdt$[ebp]
  00017	5d		 pop	 ebp
  00018	c2 04 00	 ret	 4
?getName@ProtocolException@@UBE?AV?$basic_string@DV?$char_traits@D@_STL@@V?$allocator@D@2@@_STL@@XZ ENDP ; ProtocolException::getName
_TEXT	ENDS
PUBLIC	??1ProtocolException@@UAE@XZ			; ProtocolException::~ProtocolException
; Function compile flags: /Ogsy
;	COMDAT ??1ProtocolException@@UAE@XZ
_TEXT	SEGMENT
??1ProtocolException@@UAE@XZ PROC NEAR			; ProtocolException::~ProtocolException, COMDAT
; _this$ = ecx
  00000	e9 00 00 00 00	 jmp	 ??1IOException@@UAE@XZ
??1ProtocolException@@UAE@XZ ENDP			; ProtocolException::~ProtocolException
_TEXT	ENDS
PUBLIC	??0InvalidProtocolException@@QAE@V?$basic_string@DV?$char_traits@D@_STL@@V?$allocator@D@2@@_STL@@@Z ; InvalidProtocolException::InvalidProtocolException
PUBLIC	?getName@InvalidProtocolException@@UBE?AV?$basic_string@DV?$char_traits@D@_STL@@V?$allocator@D@2@@_STL@@XZ ; InvalidProtocolException::getName
PUBLIC	??_7InvalidProtocolException@@6B@		; InvalidProtocolException::`vftable'
PUBLIC	??_GInvalidProtocolException@@UAEPAXI@Z		; InvalidProtocolException::`scalar deleting destructor'
PUBLIC	??_R4InvalidProtocolException@@6B@		; InvalidProtocolException::`RTTI Complete Object Locator'
PUBLIC	??_R0?AVInvalidProtocolException@@@8		; InvalidProtocolException `RTTI Type Descriptor'
PUBLIC	??_R3InvalidProtocolException@@8		; InvalidProtocolException::`RTTI Class Hierarchy Descriptor'
PUBLIC	??_R2InvalidProtocolException@@8		; InvalidProtocolException::`RTTI Base Class Array'
PUBLIC	??_R1A@?0A@A@InvalidProtocolException@@8	; InvalidProtocolException::`RTTI Base Class Descriptor at (0,-1,0,0)'
EXTRN	??_EInvalidProtocolException@@UAEPAXI@Z:NEAR	; InvalidProtocolException::`vector deleting destructor'
;	COMDAT ??_7InvalidProtocolException@@6B@
CONST	SEGMENT
??_7InvalidProtocolException@@6B@ DD FLAT:??_R4InvalidProtocolException@@6B@ ; InvalidProtocolException::`vftable'
	DD	FLAT:??_EInvalidProtocolException@@UAEPAXI@Z
	DD	FLAT:?getName@InvalidProtocolException@@UBE?AV?$basic_string@DV?$char_traits@D@_STL@@V?$allocator@D@2@@_STL@@XZ
	DD	FLAT:?toString@Throwable@@UBE?AV?$basic_string@DV?$char_traits@D@_STL@@V?$allocator@D@2@@_STL@@XZ
CONST	ENDS
;	COMDAT ??_R4InvalidProtocolException@@6B@
rdata$r	SEGMENT
??_R4InvalidProtocolException@@6B@ DD 00H		; InvalidProtocolException::`RTTI Complete Object Locator'
	DD	00H
	DD	00H
	DD	FLAT:??_R0?AVInvalidProtocolException@@@8
	DD	FLAT:??_R3InvalidProtocolException@@8
rdata$r	ENDS
;	COMDAT ??_R0?AVInvalidProtocolException@@@8
_DATA	SEGMENT
??_R0?AVInvalidProtocolException@@@8 DD FLAT:??_7type_info@@6B@ ; InvalidProtocolException `RTTI Type Descriptor'
	DD	00H
	DB	'.?AVInvalidProtocolException@@', 00H
	ORG $-39
	DD	FLAT:??_7type_info@@6B@
	DD	00H
	DB	'.?AVInvalidProtocolException@@', 00H
_DATA	ENDS
;	COMDAT ??_R3InvalidProtocolException@@8
rdata$r	SEGMENT
??_R3InvalidProtocolException@@8 DD 00H			; InvalidProtocolException::`RTTI Class Hierarchy Descriptor'
	DD	00H
	DD	05H
	DD	FLAT:??_R2InvalidProtocolException@@8
rdata$r	ENDS
;	COMDAT ??_R2InvalidProtocolException@@8
rdata$r	SEGMENT
??_R2InvalidProtocolException@@8 DD FLAT:??_R1A@?0A@A@InvalidProtocolException@@8 ; InvalidProtocolException::`RTTI Base Class Array'
	DD	FLAT:??_R1A@?0A@A@ProtocolException@@8
	DD	FLAT:??_R1A@?0A@A@IOException@@8
	DD	FLAT:??_R1A@?0A@A@Exception@@8
	DD	FLAT:??_R1A@?0A@A@Throwable@@8
rdata$r	ENDS
;	COMDAT ??_R1A@?0A@A@InvalidProtocolException@@8
rdata$r	SEGMENT
??_R1A@?0A@A@InvalidProtocolException@@8 DD FLAT:??_R0?AVInvalidProtocolException@@@8 ; InvalidProtocolException::`RTTI Base Class Descriptor at (0,-1,0,0)'
	DD	04H
	DD	00H
	DD	0ffffffffH
	DD	00H
	DD	00H
; Function compile flags: /Ogsy
rdata$r	ENDS
;	COMDAT ??0InvalidProtocolException@@QAE@V?$basic_string@DV?$char_traits@D@_STL@@V?$allocator@D@2@@_STL@@@Z
_TEXT	SEGMENT
$T102043 = -4						; size = 4
_msg$ = 8						; size = 12
??0InvalidProtocolException@@QAE@V?$basic_string@DV?$char_traits@D@_STL@@V?$allocator@D@2@@_STL@@@Z PROC NEAR ; InvalidProtocolException::InvalidProtocolException, COMDAT
; _this$ = ecx

; 367  : 				InvalidProtocolException ( std::string msg ) throw () : ProtocolException (msg) {}

  00000	55		 push	 ebp
  00001	8b ec		 mov	 ebp, esp
  00003	51		 push	 ecx
  00004	56		 push	 esi
  00005	83 ec 0c	 sub	 esp, 12			; 0000000cH
  00008	8b f1		 mov	 esi, ecx
  0000a	8d 45 08	 lea	 eax, DWORD PTR _msg$[ebp]
  0000d	8b cc		 mov	 ecx, esp
  0000f	89 65 fc	 mov	 DWORD PTR $T102043[ebp], esp
  00012	50		 push	 eax
  00013	e8 00 00 00 00	 call	 ??0?$basic_string@DV?$char_traits@D@_STL@@V?$allocator@D@2@@_STL@@QAE@ABV01@@Z ; _STL::basic_string<char,_STL::char_traits<char>,_STL::allocator<char> >::basic_string<char,_STL::char_traits<char>,_STL::allocator<char> >
  00018	8b ce		 mov	 ecx, esi
  0001a	e8 00 00 00 00	 call	 ??0ProtocolException@@QAE@V?$basic_string@DV?$char_traits@D@_STL@@V?$allocator@D@2@@_STL@@@Z ; ProtocolException::ProtocolException
  0001f	8d 4d 08	 lea	 ecx, DWORD PTR _msg$[ebp]
  00022	c7 06 00 00 00
	00		 mov	 DWORD PTR [esi], OFFSET FLAT:??_7InvalidProtocolException@@6B@
  00028	e8 00 00 00 00	 call	 ??1?$basic_string@DV?$char_traits@D@_STL@@V?$allocator@D@2@@_STL@@QAE@XZ ; _STL::basic_string<char,_STL::char_traits<char>,_STL::allocator<char> >::~basic_string<char,_STL::char_traits<char>,_STL::allocator<char> >
  0002d	8b c6		 mov	 eax, esi
  0002f	5e		 pop	 esi
  00030	c9		 leave
  00031	c2 0c 00	 ret	 12			; 0000000cH
??0InvalidProtocolException@@QAE@V?$basic_string@DV?$char_traits@D@_STL@@V?$allocator@D@2@@_STL@@@Z ENDP ; InvalidProtocolException::InvalidProtocolException
_TEXT	ENDS
PUBLIC	??_C@_0BJ@BKELNFKP@InvalidProtocolException?$AA@ ; `string'
;	COMDAT ??_C@_0BJ@BKELNFKP@InvalidProtocolException?$AA@
; File c:\stlport-4.6.1\stlport\stl\_alloc.h
CONST	SEGMENT
??_C@_0BJ@BKELNFKP@InvalidProtocolException?$AA@ DB 'InvalidProtocolExcep'
	DB	'tion', 00H					; `string'
; Function compile flags: /Ogsy
; File c:\darkeden\designed_common\project\client\packet\exception.h
CONST	ENDS
;	COMDAT ?getName@InvalidProtocolException@@UBE?AV?$basic_string@DV?$char_traits@D@_STL@@V?$allocator@D@2@@_STL@@XZ
_TEXT	SEGMENT
___$ReturnUdt$ = 8					; size = 4
$T102046 = 11						; size = 1
?getName@InvalidProtocolException@@UBE?AV?$basic_string@DV?$char_traits@D@_STL@@V?$allocator@D@2@@_STL@@XZ PROC NEAR ; InvalidProtocolException::getName, COMDAT
; _this$ = ecx

; 368  : 				std::string getName () const throw () { return "InvalidProtocolException"; }

  00000	55		 push	 ebp
  00001	8b ec		 mov	 ebp, esp
  00003	8b 4d 08	 mov	 ecx, DWORD PTR ___$ReturnUdt$[ebp]
  00006	8d 45 0b	 lea	 eax, DWORD PTR $T102046[ebp]
  00009	50		 push	 eax
  0000a	68 00 00 00 00	 push	 OFFSET FLAT:??_C@_0BJ@BKELNFKP@InvalidProtocolException?$AA@
  0000f	e8 00 00 00 00	 call	 ??0?$basic_string@DV?$char_traits@D@_STL@@V?$allocator@D@2@@_STL@@QAE@PBDABV?$allocator@D@1@@Z ; _STL::basic_string<char,_STL::char_traits<char>,_STL::allocator<char> >::basic_string<char,_STL::char_traits<char>,_STL::allocator<char> >
  00014	8b 45 08	 mov	 eax, DWORD PTR ___$ReturnUdt$[ebp]
  00017	5d		 pop	 ebp
  00018	c2 04 00	 ret	 4
?getName@InvalidProtocolException@@UBE?AV?$basic_string@DV?$char_traits@D@_STL@@V?$allocator@D@2@@_STL@@XZ ENDP ; InvalidProtocolException::getName
_TEXT	ENDS
PUBLIC	??1InvalidProtocolException@@UAE@XZ		; InvalidProtocolException::~InvalidProtocolException
; Function compile flags: /Ogsy
;	COMDAT ??1InvalidProtocolException@@UAE@XZ
_TEXT	SEGMENT
??1InvalidProtocolException@@UAE@XZ PROC NEAR		; InvalidProtocolException::~InvalidProtocolException, COMDAT
; _this$ = ecx
  00000	e9 00 00 00 00	 jmp	 ??1ProtocolException@@UAE@XZ
??1InvalidProtocolException@@UAE@XZ ENDP		; InvalidProtocolException::~InvalidProtocolException
_TEXT	ENDS
PUBLIC	??0?$list@V?$basic_string@DV?$char_traits@D@_STL@@V?$allocator@D@2@@_STL@@V?$allocator@V?$basic_string@DV?$char_traits@D@_STL@@V?$allocator@D@2@@_STL@@@2@@_STL@@QAE@ABV01@@Z ; _STL::list<_STL::basic_string<char,_STL::char_traits<char>,_STL::allocator<char> >,_STL::allocator<_STL::basic_string<char,_STL::char_traits<char>,_STL::allocator<char> > > >::list<_STL::basic_string<char,_STL::char_traits<char>,_STL::allocator<char> >,_STL::allocator<_STL::basic_string<char,_STL::char_traits<char>,_STL::allocator<char> > > >
;	COMDAT xdata$x
; File c:\stlport-4.6.1\stlport\stl\_list.h
xdata$x	SEGMENT
$T102118 DD	0ffffffffH
	DD	FLAT:$L102062
$T102116 DD	019930520H
	DD	01H
	DD	FLAT:$T102118
	DD	2 DUP(00H)
	DD	2 DUP(00H)
; Function compile flags: /Ogsy
xdata$x	ENDS
;	COMDAT ??0?$list@V?$basic_string@DV?$char_traits@D@_STL@@V?$allocator@D@2@@_STL@@V?$allocator@V?$basic_string@DV?$char_traits@D@_STL@@V?$allocator@D@2@@_STL@@@2@@_STL@@QAE@ABV01@@Z
_TEXT	SEGMENT
$T102061 = -20						; size = 4
_this$ = -16						; size = 4
__$EHRec$ = -12						; size = 12
___x$ = 8						; size = 4
$T102058 = 11						; size = 1
??0?$list@V?$basic_string@DV?$char_traits@D@_STL@@V?$allocator@D@2@@_STL@@V?$allocator@V?$basic_string@DV?$char_traits@D@_STL@@V?$allocator@D@2@@_STL@@@2@@_STL@@QAE@ABV01@@Z PROC NEAR ; _STL::list<_STL::basic_string<char,_STL::char_traits<char>,_STL::allocator<char> >,_STL::allocator<_STL::basic_string<char,_STL::char_traits<char>,_STL::allocator<char> > > >::list<_STL::basic_string<char,_STL::char_traits<char>,_STL::allocator<char> >,_STL::allocator<_STL::basic_string<char,_STL::char_traits<char>,_STL::allocator<char> > > >, COMDAT
; _this$ = ecx

; 414  :     { insert(begin(), __x.begin(), __x.end()); }

  00000	b8 00 00 00 00	 mov	 eax, __ehhandler$??0?$list@V?$basic_string@DV?$char_traits@D@_STL@@V?$allocator@D@2@@_STL@@V?$allocator@V?$basic_string@DV?$char_traits@D@_STL@@V?$allocator@D@2@@_STL@@@2@@_STL@@QAE@ABV01@@Z
  00005	e8 00 00 00 00	 call	 __EH_prolog
  0000a	51		 push	 ecx
  0000b	51		 push	 ecx
  0000c	56		 push	 esi
  0000d	57		 push	 edi
  0000e	8b 7d 08	 mov	 edi, DWORD PTR ___x$[ebp]
  00011	8b f1		 mov	 esi, ecx
  00013	8d 45 0b	 lea	 eax, DWORD PTR $T102058[ebp]
  00016	50		 push	 eax
  00017	8b cf		 mov	 ecx, edi
  00019	89 75 f0	 mov	 DWORD PTR _this$[ebp], esi
  0001c	e8 00 00 00 00	 call	 ?get_allocator@?$_List_base@V?$basic_string@DV?$char_traits@D@_STL@@V?$allocator@D@2@@_STL@@V?$allocator@V?$basic_string@DV?$char_traits@D@_STL@@V?$allocator@D@2@@_STL@@@2@@_STL@@QBE?AV?$allocator@V?$basic_string@DV?$char_traits@D@_STL@@V?$allocator@D@2@@_STL@@@2@XZ ; _STL::_List_base<_STL::basic_string<char,_STL::char_traits<char>,_STL::allocator<char> >,_STL::allocator<_STL::basic_string<char,_STL::char_traits<char>,_STL::allocator<char> > > >::get_allocator
  00021	50		 push	 eax
  00022	8b ce		 mov	 ecx, esi
  00024	e8 00 00 00 00	 call	 ??0?$_List_base@V?$basic_string@DV?$char_traits@D@_STL@@V?$allocator@D@2@@_STL@@V?$allocator@V?$basic_string@DV?$char_traits@D@_STL@@V?$allocator@D@2@@_STL@@@2@@_STL@@QAE@ABV?$allocator@V?$basic_string@DV?$char_traits@D@_STL@@V?$allocator@D@2@@_STL@@@1@@Z ; _STL::_List_base<_STL::basic_string<char,_STL::char_traits<char>,_STL::allocator<char> >,_STL::allocator<_STL::basic_string<char,_STL::char_traits<char>,_STL::allocator<char> > > >::_List_base<_STL::basic_string<char,_STL::char_traits<char>,_STL::allocator<char> >,_STL::allocator<_STL::basic_string<char,_STL::char_traits<char>,_STL::allocator<char> > > >
  00029	8b 07		 mov	 eax, DWORD PTR [edi]
  0002b	8b 08		 mov	 ecx, DWORD PTR [eax]
  0002d	83 65 fc 00	 and	 DWORD PTR __$EHRec$[ebp+8], 0
  00031	50		 push	 eax
  00032	51		 push	 ecx
  00033	51		 push	 ecx
  00034	8b 0e		 mov	 ecx, DWORD PTR [esi]
  00036	8b 09		 mov	 ecx, DWORD PTR [ecx]
  00038	8b c4		 mov	 eax, esp
  0003a	89 08		 mov	 DWORD PTR [eax], ecx
  0003c	8b ce		 mov	 ecx, esi
  0003e	89 65 ec	 mov	 DWORD PTR $T102061[ebp], esp
  00041	e8 00 00 00 00	 call	 ??$insert@U?$_List_iterator@V?$basic_string@DV?$char_traits@D@_STL@@V?$allocator@D@2@@_STL@@U?$_Const_traits@V?$basic_string@DV?$char_traits@D@_STL@@V?$allocator@D@2@@_STL@@@2@@_STL@@@?$list@V?$basic_string@DV?$char_traits@D@_STL@@V?$allocator@D@2@@_STL@@V?$allocator@V?$basic_string@DV?$char_traits@D@_STL@@V?$allocator@D@2@@_STL@@@2@@_STL@@QAEXU?$_List_iterator@V?$basic_string@DV?$char_traits@D@_STL@@V?$allocator@D@2@@_STL@@U?$_Nonconst_traits@V?$basic_string@DV?$char_traits@D@_STL@@V?$allocator@D@2@@_STL@@@2@@1@U?$_List_iterator@V?$basic_string@DV?$char_traits@D@_STL@@V?$allocator@D@2@@_STL@@U?$_Const_traits@V?$basic_string@DV?$char_traits@D@_STL@@V?$allocator@D@2@@_STL@@@2@@1@1@Z ; _STL::list<_STL::basic_string<char,_STL::char_traits<char>,_STL::allocator<char> >,_STL::allocator<_STL::basic_string<char,_STL::char_traits<char>,_STL::allocator<char> > > >::insert<_STL::_List_iterator<_STL::basic_string<char,_STL::char_traits<char>,_STL::allocator<char> >,_STL::_Const_traits<_STL::basic_string<char,_STL::char_traits<char>,_STL::allocator<char> > > > >
  00046	8b 4d f4	 mov	 ecx, DWORD PTR __$EHRec$[ebp]
  00049	5f		 pop	 edi
  0004a	8b c6		 mov	 eax, esi
  0004c	64 89 0d 00 00
	00 00		 mov	 DWORD PTR fs:__except_list, ecx
  00053	5e		 pop	 esi
  00054	c9		 leave
  00055	c2 04 00	 ret	 4
_TEXT	ENDS
;	COMDAT text$x
text$x	SEGMENT
$L102062:
  00000	8b 4d f0	 mov	 ecx, DWORD PTR _this$[ebp]
  00003	e9 00 00 00 00	 jmp	 ??1?$_List_base@V?$basic_string@DV?$char_traits@D@_STL@@V?$allocator@D@2@@_STL@@V?$allocator@V?$basic_string@DV?$char_traits@D@_STL@@V?$allocator@D@2@@_STL@@@2@@_STL@@QAE@XZ ; _STL::_List_base<_STL::basic_string<char,_STL::char_traits<char>,_STL::allocator<char> >,_STL::allocator<_STL::basic_string<char,_STL::char_traits<char>,_STL::allocator<char> > > >::~_List_base<_STL::basic_string<char,_STL::char_traits<char>,_STL::allocator<char> >,_STL::allocator<_STL::basic_string<char,_STL::char_traits<char>,_STL::allocator<char> > > >
