; Listing generated by Microsoft (R) Optimizing Compiler Version 13.10.3077 

	TITLE	\darkeden\Designed_Common\Project\Client\Packet\PetInfo.cpp
	.386P
include listing.inc
if @Version gt 510
.model FLAT
else
_TEXT	SEGMENT PARA USE32 PUBLIC 'CODE'
_TEXT	ENDS
_DATA	SEGMENT DWORD USE32 PUBLIC 'DATA'
_DATA	ENDS
CONST	SEGMENT DWORD USE32 PUBLIC 'CONST'
CONST	ENDS
_BSS	SEGMENT DWORD USE32 PUBLIC 'BSS'
_BSS	ENDS
$$SYMBOLS	SEGMENT BYTE USE32 'DEBSYM'
$$SYMBOLS	ENDS
$$TYPES	SEGMENT BYTE USE32 'DEBTYP'
$$TYPES	ENDS
_TLS	SEGMENT DWORD USE32 PUBLIC 'TLS'
_TLS	ENDS
;	COMDAT ??_C@_0CA@NDINADEE@SocketOutputStream?$CIm_BufferLen?3?$AA@
CONST	SEGMENT DWORD USE32 PUBLIC 'CONST'
CONST	ENDS
;	COMDAT ??_C@_08LIHEOLAN@?0m_Head?3?$AA@
CONST	SEGMENT DWORD USE32 PUBLIC 'CONST'
CONST	ENDS
;	COMDAT ??_C@_08PCEHPGHK@?0m_Tail?3?$AA@
CONST	SEGMENT DWORD USE32 PUBLIC 'CONST'
CONST	ENDS
;	COMDAT ??_C@_01PKGAHCOL@?$CJ?$AA@
CONST	SEGMENT DWORD USE32 PUBLIC 'CONST'
CONST	ENDS
;	COMDAT ??_C@_08OFEGOICA@PetInfo?$CI?$AA@
CONST	SEGMENT DWORD USE32 PUBLIC 'CONST'
CONST	ENDS
;	COMDAT ??_C@_0L@JIGBLIDI@PetType?5?3?5?$AA@
CONST	SEGMENT DWORD USE32 PUBLIC 'CONST'
CONST	ENDS
;	COMDAT ??_C@_0O@KPFFDFAO@?0?5PetLevel?5?3?5?$AA@
CONST	SEGMENT DWORD USE32 PUBLIC 'CONST'
CONST	ENDS
;	COMDAT ??_C@_0M@IMKNCDJA@?0?5PetExp?5?3?5?$AA@
CONST	SEGMENT DWORD USE32 PUBLIC 'CONST'
CONST	ENDS
;	COMDAT ??_C@_0L@GCIPOHFC@?0?5PetHP?5?3?5?$AA@
CONST	SEGMENT DWORD USE32 PUBLIC 'CONST'
CONST	ENDS
;	COMDAT ??_C@_0N@NBLKDBKL@?0?5PetAttr?5?3?5?$AA@
CONST	SEGMENT DWORD USE32 PUBLIC 'CONST'
CONST	ENDS
;	COMDAT ??_C@_0P@LFDEIIHP@?0?5PetOption?5?3?5?$AA@
CONST	SEGMENT DWORD USE32 PUBLIC 'CONST'
CONST	ENDS
;	COMDAT ??_C@_0BA@GBLOCJDI@?0?5PetOption2?5?3?5?$AA@
CONST	SEGMENT DWORD USE32 PUBLIC 'CONST'
CONST	ENDS
;	COMDAT ??_C@_0BA@FMNOAAII@?0?5PetOption3?5?3?5?$AA@
CONST	SEGMENT DWORD USE32 PUBLIC 'CONST'
CONST	ENDS
;	COMDAT ??_C@_0BB@LFAJLFKJ@?0?5PetFoodType?5?3?5?$AA@
CONST	SEGMENT DWORD USE32 PUBLIC 'CONST'
CONST	ENDS
;	COMDAT ??_C@_0BD@HGCOGKLK@?0?5PetCanCutHead?5?3?5?$AA@
CONST	SEGMENT DWORD USE32 PUBLIC 'CONST'
CONST	ENDS
;	COMDAT ??_C@_0BC@KJONFKBC@?0?5PetCanAttack?5?3?5?$AA@
CONST	SEGMENT DWORD USE32 PUBLIC 'CONST'
CONST	ENDS
;	COMDAT ??_C@_0BG@EGEMBLHD@?0?5EnchantSkillType?5?3?5?$AA@
CONST	SEGMENT DWORD USE32 PUBLIC 'CONST'
CONST	ENDS
;	COMDAT ??_C@_0O@KNKPGJBM@?0?5Options?5?3?5?$CI?$AA@
CONST	SEGMENT DWORD USE32 PUBLIC 'CONST'
CONST	ENDS
;	COMDAT ??_C@_02KEGNLNML@?0?5?$AA@
CONST	SEGMENT DWORD USE32 PUBLIC 'CONST'
CONST	ENDS
;	COMDAT ??_C@_0BI@CCKJOPIB@m_Function_Petfood_Type?$AA@
CONST	SEGMENT DWORD USE32 PUBLIC 'CONST'
CONST	ENDS
;	COMDAT ??_C@_0BB@LJBJLEEB@?0?5MixOptions?5?3?5?$CI?$AA@
CONST	SEGMENT DWORD USE32 PUBLIC 'CONST'
CONST	ENDS
;	COMDAT ??_C@_0N@GOPDCEEB@basic_string?$AA@
CONST	SEGMENT DWORD USE32 PUBLIC 'CONST'
CONST	ENDS
xdata$x	SEGMENT DWORD USE32 PUBLIC 'CONST'
xdata$x	ENDS
rdata$r	SEGMENT DWORD USE32 PUBLIC 'CONST'
rdata$r	ENDS
text$yc	SEGMENT PARA USE32 PUBLIC 'CODE'
text$yc	ENDS
CRT$XCA	SEGMENT DWORD USE32 PUBLIC 'DATA'
CRT$XCA	ENDS
CRT$XCU	SEGMENT DWORD USE32 PUBLIC 'DATA'
CRT$XCU	ENDS
CRT$XCL	SEGMENT DWORD USE32 PUBLIC 'DATA'
CRT$XCL	ENDS
CRT$XCC	SEGMENT DWORD USE32 PUBLIC 'DATA'
CRT$XCC	ENDS
CRT$XCZ	SEGMENT DWORD USE32 PUBLIC 'DATA'
CRT$XCZ	ENDS
text$yd	SEGMENT PARA USE32 PUBLIC 'CODE'
text$yd	ENDS
;	COMDAT ?getHost@SocketImpl@@QBE?AV?$basic_string@DV?$char_traits@D@_STL@@V?$allocator@D@2@@_STL@@XZ
_TEXT	SEGMENT PARA USE32 PUBLIC 'CODE'
_TEXT	ENDS
;	COMDAT ?getPort@SocketImpl@@QBEIXZ
_TEXT	SEGMENT PARA USE32 PUBLIC 'CODE'
_TEXT	ENDS
;	COMDAT ?isValid@SocketImpl@@QBE_NXZ
_TEXT	SEGMENT PARA USE32 PUBLIC 'CODE'
_TEXT	ENDS
;	COMDAT ?getSOCKET@SocketImpl@@QBEIXZ
_TEXT	SEGMENT PARA USE32 PUBLIC 'CODE'
_TEXT	ENDS
;	COMDAT ?read@SocketInputStream@@QAEIAAE@Z
_TEXT	SEGMENT PARA USE32 PUBLIC 'CODE'
_TEXT	ENDS
;	COMDAT ?read@SocketInputStream@@QAEIAAG@Z
_TEXT	SEGMENT PARA USE32 PUBLIC 'CODE'
_TEXT	ENDS
;	COMDAT ?read@SocketInputStream@@QAEIAAH@Z
_TEXT	SEGMENT PARA USE32 PUBLIC 'CODE'
_TEXT	ENDS
;	COMDAT ?read@SocketInputStream@@QAEIAAK@Z
_TEXT	SEGMENT PARA USE32 PUBLIC 'CODE'
_TEXT	ENDS
;	COMDAT ?write@SocketOutputStream@@QAEIABV?$basic_string@DV?$char_traits@D@_STL@@V?$allocator@D@2@@_STL@@@Z
_TEXT	SEGMENT PARA USE32 PUBLIC 'CODE'
_TEXT	ENDS
;	COMDAT ?write@SocketOutputStream@@QAEIE@Z
_TEXT	SEGMENT PARA USE32 PUBLIC 'CODE'
_TEXT	ENDS
;	COMDAT ?write@SocketOutputStream@@QAEIG@Z
_TEXT	SEGMENT PARA USE32 PUBLIC 'CODE'
_TEXT	ENDS
;	COMDAT ?write@SocketOutputStream@@QAEIH@Z
_TEXT	SEGMENT PARA USE32 PUBLIC 'CODE'
_TEXT	ENDS
;	COMDAT ?write@SocketOutputStream@@QAEII@Z
_TEXT	SEGMENT PARA USE32 PUBLIC 'CODE'
_TEXT	ENDS
;	COMDAT ?write@SocketOutputStream@@QAEIK@Z
_TEXT	SEGMENT PARA USE32 PUBLIC 'CODE'
_TEXT	ENDS
;	COMDAT ??1Packet@@UAE@XZ
_TEXT	SEGMENT PARA USE32 PUBLIC 'CODE'
_TEXT	ENDS
;	COMDAT ?read@Packet@@UAEXPAVSocket@@@Z
_TEXT	SEGMENT PARA USE32 PUBLIC 'CODE'
_TEXT	ENDS
;	COMDAT ?write@Packet@@UBEXPAVSocket@@@Z
_TEXT	SEGMENT PARA USE32 PUBLIC 'CODE'
_TEXT	ENDS
;	COMDAT ??_GPacket@@UAEPAXI@Z
_TEXT	SEGMENT PARA USE32 PUBLIC 'CODE'
_TEXT	ENDS
;	COMDAT ??0UnsupportedError@@QAE@ABV0@@Z
_TEXT	SEGMENT PARA USE32 PUBLIC 'CODE'
_TEXT	ENDS
;	COMDAT ??0Error@@QAE@ABV0@@Z
_TEXT	SEGMENT PARA USE32 PUBLIC 'CODE'
_TEXT	ENDS
;	COMDAT ??0Throwable@@QAE@ABV0@@Z
_TEXT	SEGMENT PARA USE32 PUBLIC 'CODE'
_TEXT	ENDS
;	COMDAT ?getSize@PetInfo@@UBEIXZ
_TEXT	SEGMENT PARA USE32 PUBLIC 'CODE'
_TEXT	ENDS
;	COMDAT ??0PetInfo@@QAE@XZ
_TEXT	SEGMENT PARA USE32 PUBLIC 'CODE'
_TEXT	ENDS
;	COMDAT ?read@PetInfo@@UAEXAAVSocketInputStream@@@Z
_TEXT	SEGMENT PARA USE32 PUBLIC 'CODE'
_TEXT	ENDS
;	COMDAT ?write@PetInfo@@UBEXAAVSocketOutputStream@@@Z
_TEXT	SEGMENT PARA USE32 PUBLIC 'CODE'
_TEXT	ENDS
;	COMDAT ?toString@PetInfo@@QBE?AV?$basic_string@DV?$char_traits@D@_STL@@V?$allocator@D@2@@_STL@@XZ
_TEXT	SEGMENT PARA USE32 PUBLIC 'CODE'
_TEXT	ENDS
;	COMDAT ?eq@?$__char_traits_base@DH@_STL@@SA_NABD0@Z
_TEXT	SEGMENT PARA USE32 PUBLIC 'CODE'
_TEXT	ENDS
;	COMDAT ?not_eof@?$__char_traits_base@DH@_STL@@SAHABH@Z
_TEXT	SEGMENT PARA USE32 PUBLIC 'CODE'
_TEXT	ENDS
;	COMDAT ?eq_int_type@?$__char_traits_base@DH@_STL@@SA_NABH0@Z
_TEXT	SEGMENT PARA USE32 PUBLIC 'CODE'
_TEXT	ENDS
;	COMDAT ?get_allocator@?$basic_string@DV?$char_traits@D@_STL@@V?$allocator@D@2@@_STL@@QBE?AV?$allocator@D@2@XZ
_TEXT	SEGMENT PARA USE32 PUBLIC 'CODE'
_TEXT	ENDS
;	COMDAT ?_M_terminate_string@?$basic_string@DV?$char_traits@D@_STL@@V?$allocator@D@2@@_STL@@AAEXXZ
_TEXT	SEGMENT PARA USE32 PUBLIC 'CODE'
_TEXT	ENDS
;	COMDAT ?size@?$basic_string@DV?$char_traits@D@_STL@@V?$allocator@D@2@@_STL@@QBEIXZ
_TEXT	SEGMENT PARA USE32 PUBLIC 'CODE'
_TEXT	ENDS
;	COMDAT ?c_str@?$basic_string@DV?$char_traits@D@_STL@@V?$allocator@D@2@@_STL@@QBEPBDXZ
_TEXT	SEGMENT PARA USE32 PUBLIC 'CODE'
_TEXT	ENDS
;	COMDAT ??0?$_String_base@DV?$allocator@D@_STL@@@_STL@@QAE@ABV?$allocator@D@1@@Z
_TEXT	SEGMENT PARA USE32 PUBLIC 'CODE'
_TEXT	ENDS
;	COMDAT ?allocate@?$allocator@D@_STL@@QAEPADIPBX@Z
_TEXT	SEGMENT PARA USE32 PUBLIC 'CODE'
_TEXT	ENDS
;	COMDAT ??0?$allocator@G@_STL@@QAE@XZ
_TEXT	SEGMENT PARA USE32 PUBLIC 'CODE'
_TEXT	ENDS
;	COMDAT ??0?$fpos@H@_STL@@QAE@J@Z
_TEXT	SEGMENT PARA USE32 PUBLIC 'CODE'
_TEXT	ENDS
;	COMDAT ??B?$fpos@H@_STL@@QBEJXZ
_TEXT	SEGMENT PARA USE32 PUBLIC 'CODE'
_TEXT	ENDS
;	COMDAT ?state@?$fpos@H@_STL@@QBEHXZ
_TEXT	SEGMENT PARA USE32 PUBLIC 'CODE'
_TEXT	ENDS
;	COMDAT ?is_open@?$basic_filebuf@DV?$char_traits@D@_STL@@@_STL@@QBE_NXZ
_TEXT	SEGMENT PARA USE32 PUBLIC 'CODE'
_TEXT	ENDS
;	COMDAT ?_M_seek_return@?$basic_filebuf@DV?$char_traits@D@_STL@@@_STL@@AAE?AV?$fpos@H@2@JH@Z
_TEXT	SEGMENT PARA USE32 PUBLIC 'CODE'
_TEXT	ENDS
;	COMDAT ??0?$list@V?$basic_string@DV?$char_traits@D@_STL@@V?$allocator@D@2@@_STL@@V?$allocator@V?$basic_string@DV?$char_traits@D@_STL@@V?$allocator@D@2@@_STL@@@2@@_STL@@QAE@ABV01@@Z
_TEXT	SEGMENT PARA USE32 PUBLIC 'CODE'
_TEXT	ENDS
;	COMDAT ??0?$_Filebuf_Tmp_Buf@D@_STL@@QAE@H@Z
_TEXT	SEGMENT PARA USE32 PUBLIC 'CODE'
_TEXT	ENDS
;	COMDAT ??1?$_Filebuf_Tmp_Buf@D@_STL@@QAE@XZ
_TEXT	SEGMENT PARA USE32 PUBLIC 'CODE'
_TEXT	ENDS
;	COMDAT ??0?$list@GV?$allocator@G@_STL@@@_STL@@QAE@ABV?$allocator@G@1@@Z
_TEXT	SEGMENT PARA USE32 PUBLIC 'CODE'
_TEXT	ENDS
;	COMDAT ?begin@?$list@GV?$allocator@G@_STL@@@_STL@@QAE?AU?$_List_iterator@GU?$_Nonconst_traits@G@_STL@@@2@XZ
_TEXT	SEGMENT PARA USE32 PUBLIC 'CODE'
_TEXT	ENDS
;	COMDAT ?begin@?$list@GV?$allocator@G@_STL@@@_STL@@QBE?AU?$_List_iterator@GU?$_Const_traits@G@_STL@@@2@XZ
_TEXT	SEGMENT PARA USE32 PUBLIC 'CODE'
_TEXT	ENDS
;	COMDAT ?end@?$list@GV?$allocator@G@_STL@@@_STL@@QAE?AU?$_List_iterator@GU?$_Nonconst_traits@G@_STL@@@2@XZ
_TEXT	SEGMENT PARA USE32 PUBLIC 'CODE'
_TEXT	ENDS
;	COMDAT ?end@?$list@GV?$allocator@G@_STL@@@_STL@@QBE?AU?$_List_iterator@GU?$_Const_traits@G@_STL@@@2@XZ
_TEXT	SEGMENT PARA USE32 PUBLIC 'CODE'
_TEXT	ENDS
;	COMDAT ?empty@?$list@GV?$allocator@G@_STL@@@_STL@@QBE_NXZ
_TEXT	SEGMENT PARA USE32 PUBLIC 'CODE'
_TEXT	ENDS
;	COMDAT ?size@?$list@GV?$allocator@G@_STL@@@_STL@@QBEIXZ
_TEXT	SEGMENT PARA USE32 PUBLIC 'CODE'
_TEXT	ENDS
;	COMDAT ?front@?$list@GV?$allocator@G@_STL@@@_STL@@QBEABGXZ
_TEXT	SEGMENT PARA USE32 PUBLIC 'CODE'
_TEXT	ENDS
;	COMDAT ?push_back@?$list@GV?$allocator@G@_STL@@@_STL@@QAEXABG@Z
_TEXT	SEGMENT PARA USE32 PUBLIC 'CODE'
_TEXT	ENDS
;	COMDAT ?erase@?$list@GV?$allocator@G@_STL@@@_STL@@QAE?AU?$_List_iterator@GU?$_Nonconst_traits@G@_STL@@@2@U32@@Z
_TEXT	SEGMENT PARA USE32 PUBLIC 'CODE'
_TEXT	ENDS
;	COMDAT ??1?$list@GV?$allocator@G@_STL@@@_STL@@QAE@XZ
_TEXT	SEGMENT PARA USE32 PUBLIC 'CODE'
_TEXT	ENDS
;	COMDAT ??0?$_List_iterator@GU?$_Nonconst_traits@G@_STL@@@_STL@@QAE@ABU01@@Z
_TEXT	SEGMENT PARA USE32 PUBLIC 'CODE'
_TEXT	ENDS
;	COMDAT ??D?$_List_iterator@GU?$_Const_traits@G@_STL@@@_STL@@QBEABGXZ
_TEXT	SEGMENT PARA USE32 PUBLIC 'CODE'
_TEXT	ENDS
;	COMDAT ??E?$_List_iterator@GU?$_Const_traits@G@_STL@@@_STL@@QAEAAU01@XZ
_TEXT	SEGMENT PARA USE32 PUBLIC 'CODE'
_TEXT	ENDS
;	COMDAT ??E?$_List_iterator@GU?$_Const_traits@G@_STL@@@_STL@@QAE?AU01@H@Z
_TEXT	SEGMENT PARA USE32 PUBLIC 'CODE'
_TEXT	ENDS
;	COMDAT ?_M_terminate_string_aux@?$basic_string@DV?$char_traits@D@_STL@@V?$allocator@D@2@@_STL@@AAEXABU__true_type@2@@Z
_TEXT	SEGMENT PARA USE32 PUBLIC 'CODE'
_TEXT	ENDS
;	COMDAT ??0?$allocator@D@_STL@@QAE@ABV01@@Z
_TEXT	SEGMENT PARA USE32 PUBLIC 'CODE'
_TEXT	ENDS
;	COMDAT ??0?$_STLP_alloc_proxy@PADDV?$allocator@D@_STL@@@_STL@@QAE@ABV?$allocator@D@1@PAD@Z
_TEXT	SEGMENT PARA USE32 PUBLIC 'CODE'
_TEXT	ENDS
;	COMDAT ?state@?$fpos@H@_STL@@QAEXH@Z
_TEXT	SEGMENT PARA USE32 PUBLIC 'CODE'
_TEXT	ENDS
;	COMDAT ?get_allocator@?$_List_base@V?$basic_string@DV?$char_traits@D@_STL@@V?$allocator@D@2@@_STL@@V?$allocator@V?$basic_string@DV?$char_traits@D@_STL@@V?$allocator@D@2@@_STL@@@2@@_STL@@QBE?AV?$allocator@V?$basic_string@DV?$char_traits@D@_STL@@V?$allocator@D@2@@_STL@@@2@XZ
_TEXT	SEGMENT PARA USE32 PUBLIC 'CODE'
_TEXT	ENDS
;	COMDAT ?insert@?$list@GV?$allocator@G@_STL@@@_STL@@QAE?AU?$_List_iterator@GU?$_Nonconst_traits@G@_STL@@@2@U32@ABG@Z
_TEXT	SEGMENT PARA USE32 PUBLIC 'CODE'
_TEXT	ENDS
;	COMDAT ??0?$_List_base@GV?$allocator@G@_STL@@@_STL@@QAE@ABV?$allocator@G@1@@Z
_TEXT	SEGMENT PARA USE32 PUBLIC 'CODE'
_TEXT	ENDS
;	COMDAT ??1?$_List_base@GV?$allocator@G@_STL@@@_STL@@QAE@XZ
_TEXT	SEGMENT PARA USE32 PUBLIC 'CODE'
_TEXT	ENDS
;	COMDAT ?deallocate@?$allocator@U?$_List_node@G@_STL@@@_STL@@QAEXPAU?$_List_node@G@2@I@Z
_TEXT	SEGMENT PARA USE32 PUBLIC 'CODE'
_TEXT	ENDS
;	COMDAT ??0?$_List_iterator@GU?$_Nonconst_traits@G@_STL@@@_STL@@QAE@PAU?$_List_node@G@1@@Z
_TEXT	SEGMENT PARA USE32 PUBLIC 'CODE'
_TEXT	ENDS
;	COMDAT ??0?$_List_iterator@GU?$_Const_traits@G@_STL@@@_STL@@QAE@PAU?$_List_node@G@1@@Z
_TEXT	SEGMENT PARA USE32 PUBLIC 'CODE'
_TEXT	ENDS
;	COMDAT ??1?$_STLP_alloc_proxy@PAU?$_List_node@G@_STL@@U12@V?$allocator@U?$_List_node@G@_STL@@@2@@_STL@@QAE@XZ
_TEXT	SEGMENT PARA USE32 PUBLIC 'CODE'
_TEXT	ENDS
;	COMDAT ?_M_create_node@?$list@GV?$allocator@G@_STL@@@_STL@@IAEPAU?$_List_node@G@2@ABG@Z
_TEXT	SEGMENT PARA USE32 PUBLIC 'CODE'
_TEXT	ENDS
;	COMDAT ??0?$_STLP_alloc_proxy@PAU?$_List_node@G@_STL@@U12@V?$allocator@U?$_List_node@G@_STL@@@2@@_STL@@QAE@ABV?$allocator@U?$_List_node@G@_STL@@@1@PAU?$_List_node@G@1@@Z
_TEXT	SEGMENT PARA USE32 PUBLIC 'CODE'
_TEXT	ENDS
;	COMDAT ??1?$allocator@U?$_List_node@G@_STL@@@_STL@@QAE@XZ
_TEXT	SEGMENT PARA USE32 PUBLIC 'CODE'
_TEXT	ENDS
;	COMDAT ?allocate@?$allocator@U?$_List_node@G@_STL@@@_STL@@QAEPAU?$_List_node@G@2@IPBX@Z
_TEXT	SEGMENT PARA USE32 PUBLIC 'CODE'
_TEXT	ENDS
;	COMDAT ??0?$allocator@U?$_List_node@G@_STL@@@_STL@@QAE@ABV01@@Z
_TEXT	SEGMENT PARA USE32 PUBLIC 'CODE'
_TEXT	ENDS
;	COMDAT ??$_M_range_initialize@PBD@?$basic_string@DV?$char_traits@D@_STL@@V?$allocator@D@2@@_STL@@AAEXPBD0@Z
_TEXT	SEGMENT PARA USE32 PUBLIC 'CODE'
_TEXT	ENDS
;	COMDAT ??$_M_range_initialize@PAD@?$basic_string@DV?$char_traits@D@_STL@@V?$allocator@D@2@@_STL@@AAEXPAD0@Z
_TEXT	SEGMENT PARA USE32 PUBLIC 'CODE'
_TEXT	ENDS
;	COMDAT ?close@?$basic_filebuf@DV?$char_traits@D@_STL@@@_STL@@QAEPAV12@XZ
_TEXT	SEGMENT PARA USE32 PUBLIC 'CODE'
_TEXT	ENDS
;	COMDAT ?_M_exit_input_mode@?$basic_filebuf@DV?$char_traits@D@_STL@@@_STL@@AAEXXZ
_TEXT	SEGMENT PARA USE32 PUBLIC 'CODE'
_TEXT	ENDS
;	COMDAT ?_M_switch_to_output_mode@?$basic_filebuf@DV?$char_traits@D@_STL@@@_STL@@AAE_NXZ
_TEXT	SEGMENT PARA USE32 PUBLIC 'CODE'
_TEXT	ENDS
;	COMDAT ?_M_output_error@?$basic_filebuf@DV?$char_traits@D@_STL@@@_STL@@AAEHXZ
_TEXT	SEGMENT PARA USE32 PUBLIC 'CODE'
_TEXT	ENDS
;	COMDAT ?_M_allocate_buffers@?$basic_filebuf@DV?$char_traits@D@_STL@@@_STL@@AAE_NPADH@Z
_TEXT	SEGMENT PARA USE32 PUBLIC 'CODE'
_TEXT	ENDS
;	COMDAT ?_M_deallocate_buffers@?$basic_filebuf@DV?$char_traits@D@_STL@@@_STL@@AAEXXZ
_TEXT	SEGMENT PARA USE32 PUBLIC 'CODE'
_TEXT	ENDS
;	COMDAT ?_M_seek_init@?$basic_filebuf@DV?$char_traits@D@_STL@@@_STL@@AAE_N_N@Z
_TEXT	SEGMENT PARA USE32 PUBLIC 'CODE'
_TEXT	ENDS
;	COMDAT ?_M_setup_codecvt@?$basic_filebuf@DV?$char_traits@D@_STL@@@_STL@@AAEXABVlocale@2@@Z
_TEXT	SEGMENT PARA USE32 PUBLIC 'CODE'
_TEXT	ENDS
;	COMDAT ??$equal@PADPADU?$_Eq_traits@V?$char_traits@D@_STL@@@_STL@@@_STL@@YA_NPAD00U?$_Eq_traits@V?$char_traits@D@_STL@@@0@@Z
_TEXT	SEGMENT PARA USE32 PUBLIC 'CODE'
_TEXT	ENDS
;	COMDAT ??$_Destroy@V?$basic_string@DV?$char_traits@D@_STL@@V?$allocator@D@2@@_STL@@@_STL@@YAXPAV?$basic_string@DV?$char_traits@D@_STL@@V?$allocator@D@2@@0@@Z
_TEXT	SEGMENT PARA USE32 PUBLIC 'CODE'
_TEXT	ENDS
;	COMDAT ??$_M_assign_dispatch@PAD@?$basic_string@DV?$char_traits@D@_STL@@V?$allocator@D@2@@_STL@@AAEAAV01@PAD0ABU__false_type@1@@Z
_TEXT	SEGMENT PARA USE32 PUBLIC 'CODE'
_TEXT	ENDS
;	COMDAT ?clear@?$_List_base@GV?$allocator@G@_STL@@@_STL@@QAEXXZ
_TEXT	SEGMENT PARA USE32 PUBLIC 'CODE'
_TEXT	ENDS
;	COMDAT ??4?$list@GV?$allocator@G@_STL@@@_STL@@QAEAAV01@ABV01@@Z
_TEXT	SEGMENT PARA USE32 PUBLIC 'CODE'
_TEXT	ENDS
;	COMDAT ??$find@U?$_List_iterator@GU?$_Nonconst_traits@G@_STL@@@_STL@@G@_STL@@YA?AU?$_List_iterator@GU?$_Nonconst_traits@G@_STL@@@0@U10@0ABG@Z
_TEXT	SEGMENT PARA USE32 PUBLIC 'CODE'
_TEXT	ENDS
;	COMDAT ??$insert@U?$_List_iterator@V?$basic_string@DV?$char_traits@D@_STL@@V?$allocator@D@2@@_STL@@U?$_Const_traits@V?$basic_string@DV?$char_traits@D@_STL@@V?$allocator@D@2@@_STL@@@2@@_STL@@@?$list@V?$basic_string@DV?$char_traits@D@_STL@@V?$allocator@D@2@@_STL@@V?$allocator@V?$basic_string@DV?$char_traits@D@_STL@@V?$allocator@D@2@@_STL@@@2@@_STL@@QAEXU?$_List_iterator@V?$basic_string@DV?$char_traits@D@_STL@@V?$allocator@D@2@@_STL@@U?$_Nonconst_traits@V?$basic_string@DV?$char_traits@D@_STL@@V?$allocator@D@2@@_STL@@@2@@1@U?$_List_iterator@V?$basic_string@DV?$char_traits@D@_STL@@V?$allocator@D@2@@_STL@@U?$_Const_traits@V?$basic_string@DV?$char_traits@D@_STL@@V?$allocator@D@2@@_STL@@@2@@1@1@Z
_TEXT	SEGMENT PARA USE32 PUBLIC 'CODE'
_TEXT	ENDS
;	COMDAT ??$distance@U?$_List_iterator@GU?$_Const_traits@G@_STL@@@_STL@@@_STL@@YAHABU?$_List_iterator@GU?$_Const_traits@G@_STL@@@0@0@Z
_TEXT	SEGMENT PARA USE32 PUBLIC 'CODE'
_TEXT	ENDS
;	COMDAT ??$_Destroy@G@_STL@@YAXPAG@Z
_TEXT	SEGMENT PARA USE32 PUBLIC 'CODE'
_TEXT	ENDS
;	COMDAT ??$?0U?$_List_node@V?$basic_string@DV?$char_traits@D@_STL@@V?$allocator@D@2@@_STL@@@_STL@@@?$allocator@V?$basic_string@DV?$char_traits@D@_STL@@V?$allocator@D@2@@_STL@@@_STL@@QAE@ABV?$allocator@U?$_List_node@V?$basic_string@DV?$char_traits@D@_STL@@V?$allocator@D@2@@_STL@@@_STL@@@1@@Z
_TEXT	SEGMENT PARA USE32 PUBLIC 'CODE'
_TEXT	ENDS
;	COMDAT ??$?0G@?$allocator@U?$_List_node@G@_STL@@@_STL@@QAE@ABV?$allocator@G@1@@Z
_TEXT	SEGMENT PARA USE32 PUBLIC 'CODE'
_TEXT	ENDS
;	COMDAT ??$_Construct@GG@_STL@@YAXPAGABG@Z
_TEXT	SEGMENT PARA USE32 PUBLIC 'CODE'
_TEXT	ENDS
;	COMDAT ??_G?$basic_string@DV?$char_traits@D@_STL@@V?$allocator@D@2@@_STL@@QAEPAXI@Z
_TEXT	SEGMENT PARA USE32 PUBLIC 'CODE'
_TEXT	ENDS
;	COMDAT ?end@?$basic_string@DV?$char_traits@D@_STL@@V?$allocator@D@2@@_STL@@QAEPADXZ
_TEXT	SEGMENT PARA USE32 PUBLIC 'CODE'
_TEXT	ENDS
;	COMDAT ?erase@?$basic_string@DV?$char_traits@D@_STL@@V?$allocator@D@2@@_STL@@QAEPADPAD0@Z
_TEXT	SEGMENT PARA USE32 PUBLIC 'CODE'
_TEXT	ENDS
;	COMDAT ?_M_exit_putback_mode@?$basic_filebuf@DV?$char_traits@D@_STL@@@_STL@@AAEXXZ
_TEXT	SEGMENT PARA USE32 PUBLIC 'CODE'
_TEXT	ENDS
;	COMDAT ??0?$_List_iterator@V?$basic_string@DV?$char_traits@D@_STL@@V?$allocator@D@2@@_STL@@U?$_Nonconst_traits@V?$basic_string@DV?$char_traits@D@_STL@@V?$allocator@D@2@@_STL@@@2@@_STL@@QAE@ABU01@@Z
_TEXT	SEGMENT PARA USE32 PUBLIC 'CODE'
_TEXT	ENDS
;	COMDAT ??R?$_Eq_traits@V?$char_traits@D@_STL@@@_STL@@QBE_NABD0@Z
_TEXT	SEGMENT PARA USE32 PUBLIC 'CODE'
_TEXT	ENDS
;	COMDAT ?erase@?$list@GV?$allocator@G@_STL@@@_STL@@QAE?AU?$_List_iterator@GU?$_Nonconst_traits@G@_STL@@@2@U32@0@Z
_TEXT	SEGMENT PARA USE32 PUBLIC 'CODE'
_TEXT	ENDS
;	COMDAT ??D?$_List_iterator@GU?$_Nonconst_traits@G@_STL@@@_STL@@QBEAAGXZ
_TEXT	SEGMENT PARA USE32 PUBLIC 'CODE'
_TEXT	ENDS
;	COMDAT ??E?$_List_iterator@GU?$_Nonconst_traits@G@_STL@@@_STL@@QAE?AU01@H@Z
_TEXT	SEGMENT PARA USE32 PUBLIC 'CODE'
_TEXT	ENDS
;	COMDAT ?move@?$__char_traits_base@DH@_STL@@SAPADPADPBDI@Z
_TEXT	SEGMENT PARA USE32 PUBLIC 'CODE'
_TEXT	ENDS
;	COMDAT ??$_M_range_initialize@PBD@?$basic_string@DV?$char_traits@D@_STL@@V?$allocator@D@2@@_STL@@AAEXPBD0ABUforward_iterator_tag@1@@Z
_TEXT	SEGMENT PARA USE32 PUBLIC 'CODE'
_TEXT	ENDS
;	COMDAT ??$_M_range_initialize@PAD@?$basic_string@DV?$char_traits@D@_STL@@V?$allocator@D@2@@_STL@@AAEXPAD0ABUforward_iterator_tag@1@@Z
_TEXT	SEGMENT PARA USE32 PUBLIC 'CODE'
_TEXT	ENDS
;	COMDAT ?_M_unshift@?$basic_filebuf@DV?$char_traits@D@_STL@@@_STL@@AAE_NXZ
_TEXT	SEGMENT PARA USE32 PUBLIC 'CODE'
_TEXT	ENDS
;	COMDAT ?_M_allocate_buffers@?$basic_filebuf@DV?$char_traits@D@_STL@@@_STL@@AAE_NXZ
_TEXT	SEGMENT PARA USE32 PUBLIC 'CODE'
_TEXT	ENDS
;	COMDAT ??$max@H@_STL@@YAABHABH0@Z
_TEXT	SEGMENT PARA USE32 PUBLIC 'CODE'
_TEXT	ENDS
;	COMDAT ??$use_facet@V?$codecvt@DDH@_STL@@@_STL@@YAABV?$codecvt@DDH@0@ABVlocale@0@@Z
_TEXT	SEGMENT PARA USE32 PUBLIC 'CODE'
_TEXT	ENDS
;	COMDAT ??$append@PAD@?$basic_string@DV?$char_traits@D@_STL@@V?$allocator@D@2@@_STL@@QAEAAV01@PAD0@Z
_TEXT	SEGMENT PARA USE32 PUBLIC 'CODE'
_TEXT	ENDS
;	COMDAT ??$insert@U?$_List_iterator@GU?$_Const_traits@G@_STL@@@_STL@@@?$list@GV?$allocator@G@_STL@@@_STL@@QAEXU?$_List_iterator@GU?$_Nonconst_traits@G@_STL@@@1@U?$_List_iterator@GU?$_Const_traits@G@_STL@@@1@1@Z
_TEXT	SEGMENT PARA USE32 PUBLIC 'CODE'
_TEXT	ENDS
;	COMDAT ??$__find@U?$_List_iterator@GU?$_Nonconst_traits@G@_STL@@@_STL@@G@_STL@@YA?AU?$_List_iterator@GU?$_Nonconst_traits@G@_STL@@@0@U10@0ABGABUinput_iterator_tag@0@@Z
_TEXT	SEGMENT PARA USE32 PUBLIC 'CODE'
_TEXT	ENDS
;	COMDAT ??$_M_insert_dispatch@U?$_List_iterator@V?$basic_string@DV?$char_traits@D@_STL@@V?$allocator@D@2@@_STL@@U?$_Const_traits@V?$basic_string@DV?$char_traits@D@_STL@@V?$allocator@D@2@@_STL@@@2@@_STL@@@?$list@V?$basic_string@DV?$char_traits@D@_STL@@V?$allocator@D@2@@_STL@@V?$allocator@V?$basic_string@DV?$char_traits@D@_STL@@V?$allocator@D@2@@_STL@@@2@@_STL@@QAEXU?$_List_iterator@V?$basic_string@DV?$char_traits@D@_STL@@V?$allocator@D@2@@_STL@@U?$_Nonconst_traits@V?$basic_string@DV?$char_traits@D@_STL@@V?$allocator@D@2@@_STL@@@2@@1@U?$_List_iterator@V?$basic_string@DV?$char_traits@D@_STL@@V?$allocator@D@2@@_STL@@U?$_Const_traits@V?$basic_string@DV?$char_traits@D@_STL@@V?$allocator@D@2@@_STL@@@2@@1@1ABU__false_type@1@@Z
_TEXT	SEGMENT PARA USE32 PUBLIC 'CODE'
_TEXT	ENDS
;	COMDAT ??$__distance@U?$_List_iterator@GU?$_Const_traits@G@_STL@@@_STL@@@_STL@@YAHABU?$_List_iterator@GU?$_Const_traits@G@_STL@@@0@0ABUinput_iterator_tag@0@@Z
_TEXT	SEGMENT PARA USE32 PUBLIC 'CODE'
_TEXT	ENDS
;	COMDAT ??E?$_List_iterator@V?$basic_string@DV?$char_traits@D@_STL@@V?$allocator@D@2@@_STL@@U?$_Const_traits@V?$basic_string@DV?$char_traits@D@_STL@@V?$allocator@D@2@@_STL@@@2@@_STL@@QAEAAU01@XZ
_TEXT	SEGMENT PARA USE32 PUBLIC 'CODE'
_TEXT	ENDS
;	COMDAT ??E?$_List_iterator@GU?$_Nonconst_traits@G@_STL@@@_STL@@QAEAAU01@XZ
_TEXT	SEGMENT PARA USE32 PUBLIC 'CODE'
_TEXT	ENDS
;	COMDAT ??$distance@PBD@_STL@@YAHABQBD0@Z
_TEXT	SEGMENT PARA USE32 PUBLIC 'CODE'
_TEXT	ENDS
;	COMDAT ?_M_allocate_block@?$_String_base@DV?$allocator@D@_STL@@@_STL@@QAEXI@Z
_TEXT	SEGMENT PARA USE32 PUBLIC 'CODE'
_TEXT	ENDS
;	COMDAT ??$distance@PAD@_STL@@YAHABQAD0@Z
_TEXT	SEGMENT PARA USE32 PUBLIC 'CODE'
_TEXT	ENDS
;	COMDAT ??$uninitialized_copy@PADPAD@_STL@@YAPADPAD00@Z
_TEXT	SEGMENT PARA USE32 PUBLIC 'CODE'
_TEXT	ENDS
;	COMDAT ??$_M_append_dispatch@PAD@?$basic_string@DV?$char_traits@D@_STL@@V?$allocator@D@2@@_STL@@AAEAAV01@PAD0ABU__false_type@1@@Z
_TEXT	SEGMENT PARA USE32 PUBLIC 'CODE'
_TEXT	ENDS
;	COMDAT ??$_M_insert_dispatch@U?$_List_iterator@GU?$_Const_traits@G@_STL@@@_STL@@@?$list@GV?$allocator@G@_STL@@@_STL@@QAEXU?$_List_iterator@GU?$_Nonconst_traits@G@_STL@@@1@U?$_List_iterator@GU?$_Const_traits@G@_STL@@@1@1ABU__false_type@1@@Z
_TEXT	SEGMENT PARA USE32 PUBLIC 'CODE'
_TEXT	ENDS
;	COMDAT ?max_size@?$_String_base@DV?$allocator@D@_STL@@@_STL@@QBEIXZ
_TEXT	SEGMENT PARA USE32 PUBLIC 'CODE'
_TEXT	ENDS
;	COMDAT ??$__distance@PBD@_STL@@YAHABQBD0ABUrandom_access_iterator_tag@0@@Z
_TEXT	SEGMENT PARA USE32 PUBLIC 'CODE'
_TEXT	ENDS
;	COMDAT ?_M_throw_length_error@?$_String_base@DV?$allocator@D@_STL@@@_STL@@QBEXXZ
_TEXT	SEGMENT PARA USE32 PUBLIC 'CODE'
_TEXT	ENDS
;	COMDAT ??$__distance@PAD@_STL@@YAHABQAD0ABUrandom_access_iterator_tag@0@@Z
_TEXT	SEGMENT PARA USE32 PUBLIC 'CODE'
_TEXT	ENDS
;	COMDAT ??$__uninitialized_copy@PADPAD@_STL@@YAPADPAD00ABU__true_type@0@@Z
_TEXT	SEGMENT PARA USE32 PUBLIC 'CODE'
_TEXT	ENDS
;	COMDAT ??$append@PAD@?$basic_string@DV?$char_traits@D@_STL@@V?$allocator@D@2@@_STL@@AAEAAV01@PAD0ABUforward_iterator_tag@1@@Z
_TEXT	SEGMENT PARA USE32 PUBLIC 'CODE'
_TEXT	ENDS
;	COMDAT ?_M_construct_null@?$basic_string@DV?$char_traits@D@_STL@@V?$allocator@D@2@@_STL@@AAEXPAD@Z
_TEXT	SEGMENT PARA USE32 PUBLIC 'CODE'
_TEXT	ENDS
;	COMDAT ?max_size@?$basic_string@DV?$char_traits@D@_STL@@V?$allocator@D@2@@_STL@@QBEIXZ
_TEXT	SEGMENT PARA USE32 PUBLIC 'CODE'
_TEXT	ENDS
;	COMDAT ?capacity@?$basic_string@DV?$char_traits@D@_STL@@V?$allocator@D@2@@_STL@@QBEIXZ
_TEXT	SEGMENT PARA USE32 PUBLIC 'CODE'
_TEXT	ENDS
;	COMDAT ?_Ret@?$_BothPtrType@PADPAD@_STL@@SA?AU__true_type@2@XZ
_TEXT	SEGMENT PARA USE32 PUBLIC 'CODE'
_TEXT	ENDS
;	COMDAT ?_M_construct_null_aux@?$basic_string@DV?$char_traits@D@_STL@@V?$allocator@D@2@@_STL@@AAEXPADABU__true_type@2@@Z
_TEXT	SEGMENT PARA USE32 PUBLIC 'CODE'
_TEXT	ENDS
;	COMDAT ??$__copy_aux@PADPAD@_STL@@YAPADPAD00ABU__true_type@0@@Z
_TEXT	SEGMENT PARA USE32 PUBLIC 'CODE'
_TEXT	ENDS
;	COMDAT ??$max@I@_STL@@YAABIABI0@Z
_TEXT	SEGMENT PARA USE32 PUBLIC 'CODE'
_TEXT	ENDS
;	COMDAT ?_Ret@?$_OKToMemCpy@DD@_STL@@SA?AU__true_type@2@XZ
_TEXT	SEGMENT PARA USE32 PUBLIC 'CODE'
_TEXT	ENDS
;	COMDAT ??$_IsOKToMemCpy@DD@_STL@@YA?AU?$_OKToMemCpy@DD@0@PAD0@Z
_TEXT	SEGMENT PARA USE32 PUBLIC 'CODE'
_TEXT	ENDS
;	COMDAT ??$__copy_ptrs@PADPAD@_STL@@YAPADPAD00ABU__true_type@0@@Z
_TEXT	SEGMENT PARA USE32 PUBLIC 'CODE'
_TEXT	ENDS
;	COMDAT ??_R3Packet@@8
rdata$r	SEGMENT DWORD USE32 PUBLIC 'CONST'
rdata$r	ENDS
;	COMDAT ??_R3PetInfo@@8
rdata$r	SEGMENT DWORD USE32 PUBLIC 'CONST'
rdata$r	ENDS
;	COMDAT ??_R2Packet@@8
rdata$r	SEGMENT DWORD USE32 PUBLIC 'CONST'
rdata$r	ENDS
;	COMDAT ??_R2PetInfo@@8
rdata$r	SEGMENT DWORD USE32 PUBLIC 'CONST'
rdata$r	ENDS
;	COMDAT ??_R1A@?0A@A@Packet@@8
rdata$r	SEGMENT DWORD USE32 PUBLIC 'CONST'
rdata$r	ENDS
;	COMDAT ??_R1A@?0A@A@PetInfo@@8
rdata$r	SEGMENT DWORD USE32 PUBLIC 'CONST'
rdata$r	ENDS
;	COMDAT ??_R0?AVPacket@@@8
_DATA	SEGMENT DWORD USE32 PUBLIC 'DATA'
_DATA	ENDS
;	COMDAT ??_R0?AVPetInfo@@@8
_DATA	SEGMENT DWORD USE32 PUBLIC 'DATA'
_DATA	ENDS
;	COMDAT ??_R4Packet@@6B@
rdata$r	SEGMENT DWORD USE32 PUBLIC 'CONST'
rdata$r	ENDS
;	COMDAT ??_R4PetInfo@@6B@
rdata$r	SEGMENT DWORD USE32 PUBLIC 'CONST'
rdata$r	ENDS
;	COMDAT ?__copy_trivial@_STL@@YAPAXPBX0PAX@Z
_TEXT	SEGMENT PARA USE32 PUBLIC 'CODE'
_TEXT	ENDS
;	COMDAT ?_M_deallocate_block@?$_String_base@DV?$allocator@D@_STL@@@_STL@@QAEXXZ
_TEXT	SEGMENT PARA USE32 PUBLIC 'CODE'
_TEXT	ENDS
;	COMDAT ?deallocate@?$allocator@D@_STL@@QAEXPADI@Z
_TEXT	SEGMENT PARA USE32 PUBLIC 'CODE'
_TEXT	ENDS
;	COMDAT ??D?$_List_iterator@V?$basic_string@DV?$char_traits@D@_STL@@V?$allocator@D@2@@_STL@@U?$_Const_traits@V?$basic_string@DV?$char_traits@D@_STL@@V?$allocator@D@2@@_STL@@@2@@_STL@@QBEABV?$basic_string@DV?$char_traits@D@_STL@@V?$allocator@D@2@@1@XZ
_TEXT	SEGMENT PARA USE32 PUBLIC 'CODE'
_TEXT	ENDS
;	COMDAT ?insert@?$list@V?$basic_string@DV?$char_traits@D@_STL@@V?$allocator@D@2@@_STL@@V?$allocator@V?$basic_string@DV?$char_traits@D@_STL@@V?$allocator@D@2@@_STL@@@2@@_STL@@QAE?AU?$_List_iterator@V?$basic_string@DV?$char_traits@D@_STL@@V?$allocator@D@2@@_STL@@U?$_Nonconst_traits@V?$basic_string@DV?$char_traits@D@_STL@@V?$allocator@D@2@@_STL@@@2@@2@U32@ABV?$basic_string@DV?$char_traits@D@_STL@@V?$allocator@D@2@@2@@Z
_TEXT	SEGMENT PARA USE32 PUBLIC 'CODE'
_TEXT	ENDS
;	COMDAT ?_M_create_node@?$list@V?$basic_string@DV?$char_traits@D@_STL@@V?$allocator@D@2@@_STL@@V?$allocator@V?$basic_string@DV?$char_traits@D@_STL@@V?$allocator@D@2@@_STL@@@2@@_STL@@IAEPAU?$_List_node@V?$basic_string@DV?$char_traits@D@_STL@@V?$allocator@D@2@@_STL@@@2@ABV?$basic_string@DV?$char_traits@D@_STL@@V?$allocator@D@2@@2@@Z
_TEXT	SEGMENT PARA USE32 PUBLIC 'CODE'
_TEXT	ENDS
;	COMDAT ?allocate@?$allocator@U?$_List_node@V?$basic_string@DV?$char_traits@D@_STL@@V?$allocator@D@2@@_STL@@@_STL@@@_STL@@QAEPAU?$_List_node@V?$basic_string@DV?$char_traits@D@_STL@@V?$allocator@D@2@@_STL@@@2@IPBX@Z
_TEXT	SEGMENT PARA USE32 PUBLIC 'CODE'
_TEXT	ENDS
;	COMDAT ??$_Construct@V?$basic_string@DV?$char_traits@D@_STL@@V?$allocator@D@2@@_STL@@V12@@_STL@@YAXPAV?$basic_string@DV?$char_traits@D@_STL@@V?$allocator@D@2@@0@ABV10@@Z
_TEXT	SEGMENT PARA USE32 PUBLIC 'CODE'
_TEXT	ENDS
;	COMDAT ??3@YAXPAX0@Z
_TEXT	SEGMENT PARA USE32 PUBLIC 'CODE'
_TEXT	ENDS
;	COMDAT ?deallocate@?$allocator@U?$_List_node@V?$basic_string@DV?$char_traits@D@_STL@@V?$allocator@D@2@@_STL@@@_STL@@@_STL@@QAEXPAU?$_List_node@V?$basic_string@DV?$char_traits@D@_STL@@V?$allocator@D@2@@_STL@@@2@I@Z
_TEXT	SEGMENT PARA USE32 PUBLIC 'CODE'
_TEXT	ENDS
;	COMDAT ??0?$_List_iterator@V?$basic_string@DV?$char_traits@D@_STL@@V?$allocator@D@2@@_STL@@U?$_Nonconst_traits@V?$basic_string@DV?$char_traits@D@_STL@@V?$allocator@D@2@@_STL@@@2@@_STL@@QAE@PAU?$_List_node@V?$basic_string@DV?$char_traits@D@_STL@@V?$allocator@D@2@@_STL@@@1@@Z
_TEXT	SEGMENT PARA USE32 PUBLIC 'CODE'
_TEXT	ENDS
;	COMDAT ?__page_size@_Filebuf_base@_STL@@SAIXZ
_TEXT	SEGMENT PARA USE32 PUBLIC 'CODE'
_TEXT	ENDS
;	COMDAT ?_M_write@?$basic_filebuf@DV?$char_traits@D@_STL@@@_STL@@QAE_NPADH@Z
_TEXT	SEGMENT PARA USE32 PUBLIC 'CODE'
_TEXT	ENDS
;	COMDAT ?unshift@?$codecvt@DDH@_STL@@QBE?AW4result@codecvt_base@2@AAHPAD1AAPAD@Z
_TEXT	SEGMENT PARA USE32 PUBLIC 'CODE'
_TEXT	ENDS
;	COMDAT ?uninitialized_copy@_STL@@YAPADPBD0PAD@Z
_TEXT	SEGMENT PARA USE32 PUBLIC 'CODE'
_TEXT	ENDS
;	COMDAT ?_Destroy@_STL@@YAXPAD0@Z
_TEXT	SEGMENT PARA USE32 PUBLIC 'CODE'
_TEXT	ENDS
;	COMDAT ??2@YAPAXIPAX@Z
_TEXT	SEGMENT PARA USE32 PUBLIC 'CODE'
_TEXT	ENDS
;	COMDAT ??8_List_iterator_base@_STL@@QBE_NABU01@@Z
_TEXT	SEGMENT PARA USE32 PUBLIC 'CODE'
_TEXT	ENDS
;	COMDAT ?assign@?$char_traits@D@_STL@@SAXAADABD@Z
_TEXT	SEGMENT PARA USE32 PUBLIC 'CODE'
_TEXT	ENDS
;	COMDAT ?always_noconv@?$codecvt@DDH@_STL@@QBE_NXZ
_TEXT	SEGMENT PARA USE32 PUBLIC 'CODE'
_TEXT	ENDS
;	COMDAT ?encoding@?$codecvt@DDH@_STL@@QBEHXZ
_TEXT	SEGMENT PARA USE32 PUBLIC 'CODE'
_TEXT	ENDS
;	COMDAT ?max_length@?$codecvt@DDH@_STL@@QBEHXZ
_TEXT	SEGMENT PARA USE32 PUBLIC 'CODE'
_TEXT	ENDS
;	COMDAT ?__o_mode@_Filebuf_base@_STL@@QBEHXZ
_TEXT	SEGMENT PARA USE32 PUBLIC 'CODE'
_TEXT	ENDS
;	COMDAT ?deallocate@?$__node_alloc@$00$0A@@_STL@@SAXPAXI@Z
_TEXT	SEGMENT PARA USE32 PUBLIC 'CODE'
_TEXT	ENDS
;	COMDAT ?__stl_delete@_STL@@YAXPAX@Z
_TEXT	SEGMENT PARA USE32 PUBLIC 'CODE'
_TEXT	ENDS
;	COMDAT ?_M_incr@_List_iterator_base@_STL@@QAEXXZ
_TEXT	SEGMENT PARA USE32 PUBLIC 'CODE'
_TEXT	ENDS
;	COMDAT ??0_List_iterator_base@_STL@@QAE@PAU_List_node_base@1@@Z
_TEXT	SEGMENT PARA USE32 PUBLIC 'CODE'
_TEXT	ENDS
;	COMDAT ?begin@?$list@V?$basic_string@DV?$char_traits@D@_STL@@V?$allocator@D@2@@_STL@@V?$allocator@V?$basic_string@DV?$char_traits@D@_STL@@V?$allocator@D@2@@_STL@@@2@@_STL@@QAE?AU?$_List_iterator@V?$basic_string@DV?$char_traits@D@_STL@@V?$allocator@D@2@@_STL@@U?$_Nonconst_traits@V?$basic_string@DV?$char_traits@D@_STL@@V?$allocator@D@2@@_STL@@@2@@2@XZ
_TEXT	SEGMENT PARA USE32 PUBLIC 'CODE'
_TEXT	ENDS
;	COMDAT ?begin@?$list@V?$basic_string@DV?$char_traits@D@_STL@@V?$allocator@D@2@@_STL@@V?$allocator@V?$basic_string@DV?$char_traits@D@_STL@@V?$allocator@D@2@@_STL@@@2@@_STL@@QBE?AU?$_List_iterator@V?$basic_string@DV?$char_traits@D@_STL@@V?$allocator@D@2@@_STL@@U?$_Const_traits@V?$basic_string@DV?$char_traits@D@_STL@@V?$allocator@D@2@@_STL@@@2@@2@XZ
_TEXT	SEGMENT PARA USE32 PUBLIC 'CODE'
_TEXT	ENDS
;	COMDAT ??0?$_List_iterator@V?$basic_string@DV?$char_traits@D@_STL@@V?$allocator@D@2@@_STL@@U?$_Const_traits@V?$basic_string@DV?$char_traits@D@_STL@@V?$allocator@D@2@@_STL@@@2@@_STL@@QAE@PAU?$_List_node@V?$basic_string@DV?$char_traits@D@_STL@@V?$allocator@D@2@@_STL@@@1@@Z
_TEXT	SEGMENT PARA USE32 PUBLIC 'CODE'
_TEXT	ENDS
;	COMDAT ?end@?$list@V?$basic_string@DV?$char_traits@D@_STL@@V?$allocator@D@2@@_STL@@V?$allocator@V?$basic_string@DV?$char_traits@D@_STL@@V?$allocator@D@2@@_STL@@@2@@_STL@@QBE?AU?$_List_iterator@V?$basic_string@DV?$char_traits@D@_STL@@V?$allocator@D@2@@_STL@@U?$_Const_traits@V?$basic_string@DV?$char_traits@D@_STL@@V?$allocator@D@2@@_STL@@@2@@2@XZ
_TEXT	SEGMENT PARA USE32 PUBLIC 'CODE'
_TEXT	ENDS
;	COMDAT ??1?$_List_base@V?$basic_string@DV?$char_traits@D@_STL@@V?$allocator@D@2@@_STL@@V?$allocator@V?$basic_string@DV?$char_traits@D@_STL@@V?$allocator@D@2@@_STL@@@2@@_STL@@QAE@XZ
_TEXT	SEGMENT PARA USE32 PUBLIC 'CODE'
_TEXT	ENDS
;	COMDAT ??1?$_STLP_alloc_proxy@PAU?$_List_node@V?$basic_string@DV?$char_traits@D@_STL@@V?$allocator@D@2@@_STL@@@_STL@@U12@V?$allocator@U?$_List_node@V?$basic_string@DV?$char_traits@D@_STL@@V?$allocator@D@2@@_STL@@@_STL@@@2@@_STL@@QAE@XZ
_TEXT	SEGMENT PARA USE32 PUBLIC 'CODE'
_TEXT	ENDS
;	COMDAT ??1?$allocator@U?$_List_node@V?$basic_string@DV?$char_traits@D@_STL@@V?$allocator@D@2@@_STL@@@_STL@@@_STL@@QAE@XZ
_TEXT	SEGMENT PARA USE32 PUBLIC 'CODE'
_TEXT	ENDS
;	COMDAT ?clear@?$_List_base@V?$basic_string@DV?$char_traits@D@_STL@@V?$allocator@D@2@@_STL@@V?$allocator@V?$basic_string@DV?$char_traits@D@_STL@@V?$allocator@D@2@@_STL@@@2@@_STL@@QAEXXZ
_TEXT	SEGMENT PARA USE32 PUBLIC 'CODE'
_TEXT	ENDS
;	COMDAT ??1?$allocator@V?$basic_string@DV?$char_traits@D@_STL@@V?$allocator@D@2@@_STL@@@_STL@@QAE@XZ
_TEXT	SEGMENT PARA USE32 PUBLIC 'CODE'
_TEXT	ENDS
;	COMDAT ??0?$_List_base@V?$basic_string@DV?$char_traits@D@_STL@@V?$allocator@D@2@@_STL@@V?$allocator@V?$basic_string@DV?$char_traits@D@_STL@@V?$allocator@D@2@@_STL@@@2@@_STL@@QAE@ABV?$allocator@V?$basic_string@DV?$char_traits@D@_STL@@V?$allocator@D@2@@_STL@@@1@@Z
_TEXT	SEGMENT PARA USE32 PUBLIC 'CODE'
_TEXT	ENDS
;	COMDAT ??0?$_STLP_alloc_proxy@PAU?$_List_node@V?$basic_string@DV?$char_traits@D@_STL@@V?$allocator@D@2@@_STL@@@_STL@@U12@V?$allocator@U?$_List_node@V?$basic_string@DV?$char_traits@D@_STL@@V?$allocator@D@2@@_STL@@@_STL@@@2@@_STL@@QAE@ABV?$allocator@U?$_List_node@V?$basic_string@DV?$char_traits@D@_STL@@V?$allocator@D@2@@_STL@@@_STL@@@1@PAU?$_List_node@V?$basic_string@DV?$char_traits@D@_STL@@V?$allocator@D@2@@_STL@@@1@@Z
_TEXT	SEGMENT PARA USE32 PUBLIC 'CODE'
_TEXT	ENDS
;	COMDAT ??0?$allocator@U?$_List_node@V?$basic_string@DV?$char_traits@D@_STL@@V?$allocator@D@2@@_STL@@@_STL@@@_STL@@QAE@ABV01@@Z
_TEXT	SEGMENT PARA USE32 PUBLIC 'CODE'
_TEXT	ENDS
;	COMDAT ??$?0V?$basic_string@DV?$char_traits@D@_STL@@V?$allocator@D@2@@_STL@@@?$allocator@U?$_List_node@V?$basic_string@DV?$char_traits@D@_STL@@V?$allocator@D@2@@_STL@@@_STL@@@_STL@@QAE@ABV?$allocator@V?$basic_string@DV?$char_traits@D@_STL@@V?$allocator@D@2@@_STL@@@1@@Z
_TEXT	SEGMENT PARA USE32 PUBLIC 'CODE'
_TEXT	ENDS
;	COMDAT ?setp@?$basic_streambuf@DV?$char_traits@D@_STL@@@_STL@@IAEXPAD0@Z
_TEXT	SEGMENT PARA USE32 PUBLIC 'CODE'
_TEXT	ENDS
;	COMDAT ?_FILE_O_set@_STL@@YAXPAU_iobuf@@PAD11@Z
_TEXT	SEGMENT PARA USE32 PUBLIC 'CODE'
_TEXT	ENDS
;	COMDAT ?_FILE_I_set@_STL@@YAXPAU_iobuf@@PAD11@Z
_TEXT	SEGMENT PARA USE32 PUBLIC 'CODE'
_TEXT	ENDS
;	COMDAT ?setg@?$basic_streambuf@DV?$char_traits@D@_STL@@@_STL@@IAEXPAD00@Z
_TEXT	SEGMENT PARA USE32 PUBLIC 'CODE'
_TEXT	ENDS
;	COMDAT ?__is_open@_Filebuf_base@_STL@@QBE_NXZ
_TEXT	SEGMENT PARA USE32 PUBLIC 'CODE'
_TEXT	ENDS
;	COMDAT ?allocate@?$__node_alloc@$00$0A@@_STL@@SAPAXI@Z
_TEXT	SEGMENT PARA USE32 PUBLIC 'CODE'
_TEXT	ENDS
;	COMDAT ?__stl_new@_STL@@YAPAXI@Z
_TEXT	SEGMENT PARA USE32 PUBLIC 'CODE'
_TEXT	ENDS
;	COMDAT ??1?$_STLP_alloc_proxy@PADDV?$allocator@D@_STL@@@_STL@@QAE@XZ
_TEXT	SEGMENT PARA USE32 PUBLIC 'CODE'
_TEXT	ENDS
;	COMDAT ??1?$allocator@D@_STL@@QAE@XZ
_TEXT	SEGMENT PARA USE32 PUBLIC 'CODE'
_TEXT	ENDS
;	COMDAT ?eof@?$__char_traits_base@DH@_STL@@SAHXZ
_TEXT	SEGMENT PARA USE32 PUBLIC 'CODE'
_TEXT	ENDS
;	COMDAT ??0?$basic_string@DV?$char_traits@D@_STL@@V?$allocator@D@2@@_STL@@QAE@XZ
_TEXT	SEGMENT PARA USE32 PUBLIC 'CODE'
_TEXT	ENDS
;	COMDAT ??0?$allocator@D@_STL@@QAE@XZ
_TEXT	SEGMENT PARA USE32 PUBLIC 'CODE'
_TEXT	ENDS
;	COMDAT ??1?$_String_base@DV?$allocator@D@_STL@@@_STL@@QAE@XZ
_TEXT	SEGMENT PARA USE32 PUBLIC 'CODE'
_TEXT	ENDS
;	COMDAT ??1?$allocator@G@_STL@@QAE@XZ
_TEXT	SEGMENT PARA USE32 PUBLIC 'CODE'
_TEXT	ENDS
;	COMDAT ??_7PetInfo@@6B@
CONST	SEGMENT DWORD USE32 PUBLIC 'CONST'
CONST	ENDS
;	COMDAT ??4?$basic_string@DV?$char_traits@D@_STL@@V?$allocator@D@2@@_STL@@QAEAAV01@ABV01@@Z
_TEXT	SEGMENT PARA USE32 PUBLIC 'CODE'
_TEXT	ENDS
;	COMDAT ??$assign@PAD@?$basic_string@DV?$char_traits@D@_STL@@V?$allocator@D@2@@_STL@@QAEAAV01@PAD0@Z
_TEXT	SEGMENT PARA USE32 PUBLIC 'CODE'
_TEXT	ENDS
;	COMDAT ??9_List_iterator_base@_STL@@QBE_NABU01@@Z
_TEXT	SEGMENT PARA USE32 PUBLIC 'CODE'
_TEXT	ENDS
;	COMDAT ??1?$list@V?$basic_string@DV?$char_traits@D@_STL@@V?$allocator@D@2@@_STL@@V?$allocator@V?$basic_string@DV?$char_traits@D@_STL@@V?$allocator@D@2@@_STL@@@2@@_STL@@QAE@XZ
_TEXT	SEGMENT PARA USE32 PUBLIC 'CODE'
_TEXT	ENDS
;	COMDAT ??_7Throwable@@6B@
CONST	SEGMENT DWORD USE32 PUBLIC 'CONST'
CONST	ENDS
;	COMDAT ??_R4Throwable@@6B@
rdata$r	SEGMENT DWORD USE32 PUBLIC 'CONST'
rdata$r	ENDS
;	COMDAT ??_R3Throwable@@8
rdata$r	SEGMENT DWORD USE32 PUBLIC 'CONST'
rdata$r	ENDS
;	COMDAT ??_R2Throwable@@8
rdata$r	SEGMENT DWORD USE32 PUBLIC 'CONST'
rdata$r	ENDS
;	COMDAT ??_R1A@?0A@A@Throwable@@8
rdata$r	SEGMENT DWORD USE32 PUBLIC 'CONST'
rdata$r	ENDS
;	COMDAT ??_GThrowable@@UAEPAXI@Z
_TEXT	SEGMENT PARA USE32 PUBLIC 'CODE'
_TEXT	ENDS
;	COMDAT ?getName@Throwable@@UBE?AV?$basic_string@DV?$char_traits@D@_STL@@V?$allocator@D@2@@_STL@@XZ
_TEXT	SEGMENT PARA USE32 PUBLIC 'CODE'
_TEXT	ENDS
;	COMDAT ??0?$basic_string@DV?$char_traits@D@_STL@@V?$allocator@D@2@@_STL@@QAE@PBDABV?$allocator@D@1@@Z
_TEXT	SEGMENT PARA USE32 PUBLIC 'CODE'
_TEXT	ENDS
;	COMDAT ?length@?$char_traits@D@_STL@@SAIPBD@Z
_TEXT	SEGMENT PARA USE32 PUBLIC 'CODE'
_TEXT	ENDS
;	COMDAT ??_C@_09KCKHMJEM@Throwable?$AA@
CONST	SEGMENT DWORD USE32 PUBLIC 'CONST'
CONST	ENDS
;	COMDAT ?toString@Throwable@@UBE?AV?$basic_string@DV?$char_traits@D@_STL@@V?$allocator@D@2@@_STL@@XZ
_TEXT	SEGMENT PARA USE32 PUBLIC 'CODE'
_TEXT	ENDS
;	COMDAT ??_C@_03MCPBMLDJ@?5?3?5?$AA@
CONST	SEGMENT DWORD USE32 PUBLIC 'CONST'
CONST	ENDS
;	COMDAT ?getStackTrace@Throwable@@QBE?AV?$basic_string@DV?$char_traits@D@_STL@@V?$allocator@D@2@@_STL@@XZ
_TEXT	SEGMENT PARA USE32 PUBLIC 'CODE'
_TEXT	ENDS
;	COMDAT ??E?$_List_iterator@V?$basic_string@DV?$char_traits@D@_STL@@V?$allocator@D@2@@_STL@@U?$_Const_traits@V?$basic_string@DV?$char_traits@D@_STL@@V?$allocator@D@2@@_STL@@@2@@_STL@@QAE?AU01@H@Z
_TEXT	SEGMENT PARA USE32 PUBLIC 'CODE'
_TEXT	ENDS
;	COMDAT ??_C@_01CLKCMJKC@?5?$AA@
CONST	SEGMENT DWORD USE32 PUBLIC 'CONST'
CONST	ENDS
;	COMDAT ??_7Error@@6B@
CONST	SEGMENT DWORD USE32 PUBLIC 'CONST'
CONST	ENDS
;	COMDAT ??_R4Error@@6B@
rdata$r	SEGMENT DWORD USE32 PUBLIC 'CONST'
rdata$r	ENDS
;	COMDAT ??_R3Error@@8
rdata$r	SEGMENT DWORD USE32 PUBLIC 'CONST'
rdata$r	ENDS
;	COMDAT ??_R2Error@@8
rdata$r	SEGMENT DWORD USE32 PUBLIC 'CONST'
rdata$r	ENDS
;	COMDAT ??_R1A@?0A@A@Error@@8
rdata$r	SEGMENT DWORD USE32 PUBLIC 'CONST'
rdata$r	ENDS
;	COMDAT ??_GError@@UAEPAXI@Z
_TEXT	SEGMENT PARA USE32 PUBLIC 'CODE'
_TEXT	ENDS
;	COMDAT ?getName@Error@@UBE?AV?$basic_string@DV?$char_traits@D@_STL@@V?$allocator@D@2@@_STL@@XZ
_TEXT	SEGMENT PARA USE32 PUBLIC 'CODE'
_TEXT	ENDS
;	COMDAT ??_C@_05NAOIJFC@Error?$AA@
CONST	SEGMENT DWORD USE32 PUBLIC 'CONST'
CONST	ENDS
;	COMDAT ??1Throwable@@UAE@XZ
_TEXT	SEGMENT PARA USE32 PUBLIC 'CODE'
_TEXT	ENDS
;	COMDAT ??_7UnsupportedError@@6B@
CONST	SEGMENT DWORD USE32 PUBLIC 'CONST'
CONST	ENDS
;	COMDAT ??_R4UnsupportedError@@6B@
rdata$r	SEGMENT DWORD USE32 PUBLIC 'CONST'
rdata$r	ENDS
;	COMDAT ??_R3UnsupportedError@@8
rdata$r	SEGMENT DWORD USE32 PUBLIC 'CONST'
rdata$r	ENDS
;	COMDAT ??_R2UnsupportedError@@8
rdata$r	SEGMENT DWORD USE32 PUBLIC 'CONST'
rdata$r	ENDS
;	COMDAT ??_R1A@?0A@A@UnsupportedError@@8
rdata$r	SEGMENT DWORD USE32 PUBLIC 'CONST'
rdata$r	ENDS
;	COMDAT ??_GUnsupportedError@@UAEPAXI@Z
_TEXT	SEGMENT PARA USE32 PUBLIC 'CODE'
_TEXT	ENDS
;	COMDAT ?getName@UnsupportedError@@UBE?AV?$basic_string@DV?$char_traits@D@_STL@@V?$allocator@D@2@@_STL@@XZ
_TEXT	SEGMENT PARA USE32 PUBLIC 'CODE'
_TEXT	ENDS
;	COMDAT ??_C@_0BB@EOCHEBED@UnsupportedError?$AA@
CONST	SEGMENT DWORD USE32 PUBLIC 'CONST'
CONST	ENDS
;	COMDAT ??1Error@@UAE@XZ
_TEXT	SEGMENT PARA USE32 PUBLIC 'CODE'
_TEXT	ENDS
;	COMDAT __CTA3?AVUnsupportedError@@
xdata$x	SEGMENT DWORD USE32 PUBLIC 'CONST'
xdata$x	ENDS
;	COMDAT ??1UnsupportedError@@UAE@XZ
_TEXT	SEGMENT PARA USE32 PUBLIC 'CODE'
_TEXT	ENDS
;	COMDAT __CT??_R0?AVThrowable@@@8??0Throwable@@QAE@ABV0@@Z20
xdata$x	SEGMENT DWORD USE32 PUBLIC 'CONST'
xdata$x	ENDS
;	COMDAT __CT??_R0?AVError@@@8??0Error@@QAE@ABV0@@Z20
xdata$x	SEGMENT DWORD USE32 PUBLIC 'CONST'
xdata$x	ENDS
;	COMDAT __CT??_R0?AVUnsupportedError@@@8??0UnsupportedError@@QAE@ABV0@@Z20
xdata$x	SEGMENT DWORD USE32 PUBLIC 'CONST'
xdata$x	ENDS
;	COMDAT ??_R0?AVThrowable@@@8
_DATA	SEGMENT DWORD USE32 PUBLIC 'DATA'
_DATA	ENDS
;	COMDAT ??_R0?AVError@@@8
_DATA	SEGMENT DWORD USE32 PUBLIC 'DATA'
_DATA	ENDS
;	COMDAT ??_R0?AVUnsupportedError@@@8
_DATA	SEGMENT DWORD USE32 PUBLIC 'DATA'
_DATA	ENDS
;	COMDAT __TI3?AVUnsupportedError@@
xdata$x	SEGMENT DWORD USE32 PUBLIC 'CONST'
xdata$x	ENDS
;	COMDAT ??0UnsupportedError@@QAE@XZ
_TEXT	SEGMENT PARA USE32 PUBLIC 'CODE'
_TEXT	ENDS
;	COMDAT ??0Error@@QAE@XZ
_TEXT	SEGMENT PARA USE32 PUBLIC 'CODE'
_TEXT	ENDS
;	COMDAT ??0Throwable@@QAE@XZ
_TEXT	SEGMENT PARA USE32 PUBLIC 'CODE'
_TEXT	ENDS
;	COMDAT ??0?$list@V?$basic_string@DV?$char_traits@D@_STL@@V?$allocator@D@2@@_STL@@V?$allocator@V?$basic_string@DV?$char_traits@D@_STL@@V?$allocator@D@2@@_STL@@@2@@_STL@@QAE@ABV?$allocator@V?$basic_string@DV?$char_traits@D@_STL@@V?$allocator@D@2@@_STL@@@1@@Z
_TEXT	SEGMENT PARA USE32 PUBLIC 'CODE'
_TEXT	ENDS
;	COMDAT ??0?$allocator@V?$basic_string@DV?$char_traits@D@_STL@@V?$allocator@D@2@@_STL@@@_STL@@QAE@XZ
_TEXT	SEGMENT PARA USE32 PUBLIC 'CODE'
_TEXT	ENDS
;	COMDAT ??_7Packet@@6B@
CONST	SEGMENT DWORD USE32 PUBLIC 'CONST'
CONST	ENDS
;	COMDAT ??1?$basic_string@DV?$char_traits@D@_STL@@V?$allocator@D@2@@_STL@@QAE@XZ
_TEXT	SEGMENT PARA USE32 PUBLIC 'CODE'
_TEXT	ENDS
;	COMDAT ??0?$basic_string@DV?$char_traits@D@_STL@@V?$allocator@D@2@@_STL@@QAE@ABV01@@Z
_TEXT	SEGMENT PARA USE32 PUBLIC 'CODE'
_TEXT	ENDS
sxdata	SEGMENT DWORD USE32 'SXDATA'
sxdata	ENDS
FLAT	GROUP _DATA, CONST, _BSS
	ASSUME	CS: FLAT, DS: FLAT, SS: FLAT
endif

INCLUDELIB LIBCMT
INCLUDELIB OLDNAMES

PUBLIC	??2@YAPAXIPAX@Z					; operator new
; Function compile flags: /Ogsy
; File c:\program files\microsoft visual studio .net 2003\vc7\include\new
;	COMDAT ??2@YAPAXIPAX@Z
_TEXT	SEGMENT
___formal$ = 8						; size = 4
__Where$ = 12						; size = 4
??2@YAPAXIPAX@Z PROC NEAR				; operator new, COMDAT

; 64   : 	return (_Where);

  00000	8b 44 24 08	 mov	 eax, DWORD PTR __Where$[esp-4]

; 65   : 	}

  00004	c3		 ret	 0
??2@YAPAXIPAX@Z ENDP					; operator new
_TEXT	ENDS
PUBLIC	?__stl_new@_STL@@YAPAXI@Z			; _STL::__stl_new
EXTRN	??2@YAPAXI@Z:NEAR				; operator new
; Function compile flags: /Ogsy
; File c:\stlport-4.6.1\stlport\stl\_new.h
;	COMDAT ?__stl_new@_STL@@YAPAXI@Z
_TEXT	SEGMENT
___n$ = 8						; size = 4
?__stl_new@_STL@@YAPAXI@Z PROC NEAR			; _STL::__stl_new, COMDAT

; 86   : inline void*  _STLP_CALL __stl_new(size_t __n)   { _STLP_CHECK_NULL_ALLOC(::operator _STLP_NEW(__n)); }

  00000	e9 00 00 00 00	 jmp	 ??2@YAPAXI@Z		; operator new
?__stl_new@_STL@@YAPAXI@Z ENDP				; _STL::__stl_new
_TEXT	ENDS
PUBLIC	?__stl_delete@_STL@@YAXPAX@Z			; _STL::__stl_delete
EXTRN	??3@YAXPAX@Z:NEAR				; operator delete
; Function compile flags: /Ogsy
;	COMDAT ?__stl_delete@_STL@@YAXPAX@Z
_TEXT	SEGMENT
___p$ = 8						; size = 4
?__stl_delete@_STL@@YAXPAX@Z PROC NEAR			; _STL::__stl_delete, COMDAT

; 87   : inline void   _STLP_CALL __stl_delete(void* __p) { ::operator delete(__p); }

  00000	e9 00 00 00 00	 jmp	 ??3@YAXPAX@Z		; operator delete
?__stl_delete@_STL@@YAXPAX@Z ENDP			; _STL::__stl_delete
_TEXT	ENDS
PUBLIC	?read@SocketInputStream@@QAEIAAE@Z		; SocketInputStream::read
EXTRN	?read@SocketInputStream@@QAEIPADI@Z:NEAR	; SocketInputStream::read
; Function compile flags: /Ogsy
; File c:\darkeden\designed_common\project\client\packet\socketinputstream.h
;	COMDAT ?read@SocketInputStream@@QAEIAAE@Z
_TEXT	SEGMENT
_buf$ = 8						; size = 4
?read@SocketInputStream@@QAEIAAE@Z PROC NEAR		; SocketInputStream::read, COMDAT
; _this$ = ecx

; 69   : 	uint read ( uchar  & buf ) throw ( ProtocolException , Error ) { return read( (char*)&buf, szuchar  ); }

  00000	6a 01		 push	 1
  00002	ff 74 24 08	 push	 DWORD PTR _buf$[esp]
  00006	e8 00 00 00 00	 call	 ?read@SocketInputStream@@QAEIPADI@Z ; SocketInputStream::read
  0000b	c2 04 00	 ret	 4
?read@SocketInputStream@@QAEIAAE@Z ENDP			; SocketInputStream::read
_TEXT	ENDS
PUBLIC	?read@SocketInputStream@@QAEIAAG@Z		; SocketInputStream::read
; Function compile flags: /Ogsy
;	COMDAT ?read@SocketInputStream@@QAEIAAG@Z
_TEXT	SEGMENT
_buf$ = 8						; size = 4
?read@SocketInputStream@@QAEIAAG@Z PROC NEAR		; SocketInputStream::read, COMDAT
; _this$ = ecx

; 71   : 	uint read ( ushort & buf ) throw ( ProtocolException , Error ) { return read( (char*)&buf, szushort ); }

  00000	6a 02		 push	 2
  00002	ff 74 24 08	 push	 DWORD PTR _buf$[esp]
  00006	e8 00 00 00 00	 call	 ?read@SocketInputStream@@QAEIPADI@Z ; SocketInputStream::read
  0000b	c2 04 00	 ret	 4
?read@SocketInputStream@@QAEIAAG@Z ENDP			; SocketInputStream::read
_TEXT	ENDS
PUBLIC	?read@SocketInputStream@@QAEIAAH@Z		; SocketInputStream::read
; Function compile flags: /Ogsy
;	COMDAT ?read@SocketInputStream@@QAEIAAH@Z
_TEXT	SEGMENT
_buf$ = 8						; size = 4
?read@SocketInputStream@@QAEIAAH@Z PROC NEAR		; SocketInputStream::read, COMDAT
; _this$ = ecx

; 72   : 	uint read ( int    & buf ) throw ( ProtocolException , Error ) { return read( (char*)&buf, szint    ); }

  00000	6a 04		 push	 4
  00002	ff 74 24 08	 push	 DWORD PTR _buf$[esp]
  00006	e8 00 00 00 00	 call	 ?read@SocketInputStream@@QAEIPADI@Z ; SocketInputStream::read
  0000b	c2 04 00	 ret	 4
?read@SocketInputStream@@QAEIAAH@Z ENDP			; SocketInputStream::read
_TEXT	ENDS
PUBLIC	?read@SocketInputStream@@QAEIAAK@Z		; SocketInputStream::read
; Function compile flags: /Ogsy
;	COMDAT ?read@SocketInputStream@@QAEIAAK@Z
_TEXT	SEGMENT
_buf$ = 8						; size = 4
?read@SocketInputStream@@QAEIAAK@Z PROC NEAR		; SocketInputStream::read, COMDAT
; _this$ = ecx

; 75   : 	uint read ( ulong  & buf ) throw ( ProtocolException , Error ) { return read( (char*)&buf, szulong  ); }

  00000	6a 04		 push	 4
  00002	ff 74 24 08	 push	 DWORD PTR _buf$[esp]
  00006	e8 00 00 00 00	 call	 ?read@SocketInputStream@@QAEIPADI@Z ; SocketInputStream::read
  0000b	c2 04 00	 ret	 4
?read@SocketInputStream@@QAEIAAK@Z ENDP			; SocketInputStream::read
_TEXT	ENDS
PUBLIC	?_Destroy@_STL@@YAXPAD0@Z			; _STL::_Destroy
; Function compile flags: /Ogsy
; File c:\stlport-4.6.1\stlport\stl\_construct.h
;	COMDAT ?_Destroy@_STL@@YAXPAD0@Z
_TEXT	SEGMENT
___formal$ = 8						; size = 4
___formal$ = 12						; size = 4
?_Destroy@_STL@@YAXPAD0@Z PROC NEAR			; _STL::_Destroy, COMDAT

; 142  : inline void _Destroy(char*, char*) {}

  00000	c3		 ret	 0
?_Destroy@_STL@@YAXPAD0@Z ENDP				; _STL::_Destroy
_TEXT	ENDS
PUBLIC	?write@SocketOutputStream@@QAEIE@Z		; SocketOutputStream::write
EXTRN	?write@SocketOutputStream@@QAEIPBDI@Z:NEAR	; SocketOutputStream::write
; Function compile flags: /Ogsy
; File c:\darkeden\designed_common\project\client\packet\socketoutputstream.h
;	COMDAT ?write@SocketOutputStream@@QAEIE@Z
_TEXT	SEGMENT
_buf$ = 8						; size = 1
?write@SocketOutputStream@@QAEIE@Z PROC NEAR		; SocketOutputStream::write, COMDAT
; _this$ = ecx

; 62   :     uint write ( uchar  buf ) throw ( ProtocolException , Error ) { return write( (const char*)&buf, szuchar  ); }

  00000	6a 01		 push	 1
  00002	8d 44 24 08	 lea	 eax, DWORD PTR _buf$[esp]
  00006	50		 push	 eax
  00007	e8 00 00 00 00	 call	 ?write@SocketOutputStream@@QAEIPBDI@Z ; SocketOutputStream::write
  0000c	c2 04 00	 ret	 4
?write@SocketOutputStream@@QAEIE@Z ENDP			; SocketOutputStream::write
_TEXT	ENDS
PUBLIC	?write@SocketOutputStream@@QAEIG@Z		; SocketOutputStream::write
; Function compile flags: /Ogsy
;	COMDAT ?write@SocketOutputStream@@QAEIG@Z
_TEXT	SEGMENT
_buf$ = 8						; size = 2
?write@SocketOutputStream@@QAEIG@Z PROC NEAR		; SocketOutputStream::write, COMDAT
; _this$ = ecx

; 64   :     uint write ( ushort buf ) throw ( ProtocolException , Error ) { return write( (const char*)&buf, szushort ); }

  00000	6a 02		 push	 2
  00002	8d 44 24 08	 lea	 eax, DWORD PTR _buf$[esp]
  00006	50		 push	 eax
  00007	e8 00 00 00 00	 call	 ?write@SocketOutputStream@@QAEIPBDI@Z ; SocketOutputStream::write
  0000c	c2 04 00	 ret	 4
?write@SocketOutputStream@@QAEIG@Z ENDP			; SocketOutputStream::write
_TEXT	ENDS
PUBLIC	?write@SocketOutputStream@@QAEIH@Z		; SocketOutputStream::write
; Function compile flags: /Ogsy
;	COMDAT ?write@SocketOutputStream@@QAEIH@Z
_TEXT	SEGMENT
_buf$ = 8						; size = 4
?write@SocketOutputStream@@QAEIH@Z PROC NEAR		; SocketOutputStream::write, COMDAT
; _this$ = ecx

; 65   :     uint write ( int    buf ) throw ( ProtocolException , Error ) { return write( (const char*)&buf, szint    ); }

  00000	6a 04		 push	 4
  00002	8d 44 24 08	 lea	 eax, DWORD PTR _buf$[esp]
  00006	50		 push	 eax
  00007	e8 00 00 00 00	 call	 ?write@SocketOutputStream@@QAEIPBDI@Z ; SocketOutputStream::write
  0000c	c2 04 00	 ret	 4
?write@SocketOutputStream@@QAEIH@Z ENDP			; SocketOutputStream::write
_TEXT	ENDS
PUBLIC	?write@SocketOutputStream@@QAEIK@Z		; SocketOutputStream::write
; Function compile flags: /Ogsy
;	COMDAT ?write@SocketOutputStream@@QAEIK@Z
_TEXT	SEGMENT
_buf$ = 8						; size = 4
?write@SocketOutputStream@@QAEIK@Z PROC NEAR		; SocketOutputStream::write, COMDAT
; _this$ = ecx

; 68   :     uint write ( ulong  buf ) throw ( ProtocolException , Error ) { return write( (const char*)&buf, szulong  ); }

  00000	6a 04		 push	 4
  00002	8d 44 24 08	 lea	 eax, DWORD PTR _buf$[esp]
  00006	50		 push	 eax
  00007	e8 00 00 00 00	 call	 ?write@SocketOutputStream@@QAEIPBDI@Z ; SocketOutputStream::write
  0000c	c2 04 00	 ret	 4
?write@SocketOutputStream@@QAEIK@Z ENDP			; SocketOutputStream::write
_TEXT	ENDS
PUBLIC	?size@?$basic_string@DV?$char_traits@D@_STL@@V?$allocator@D@2@@_STL@@QBEIXZ ; _STL::basic_string<char,_STL::char_traits<char>,_STL::allocator<char> >::size
; Function compile flags: /Ogsy
; File c:\stlport-4.6.1\stlport\stl\_string.h
;	COMDAT ?size@?$basic_string@DV?$char_traits@D@_STL@@V?$allocator@D@2@@_STL@@QBEIXZ
_TEXT	SEGMENT
?size@?$basic_string@DV?$char_traits@D@_STL@@V?$allocator@D@2@@_STL@@QBEIXZ PROC NEAR ; _STL::basic_string<char,_STL::char_traits<char>,_STL::allocator<char> >::size, COMDAT
; _this$ = ecx

; 431  :   size_type size() const { return this->_M_finish - this->_M_start; }

  00000	8b 41 04	 mov	 eax, DWORD PTR [ecx+4]
  00003	2b 01		 sub	 eax, DWORD PTR [ecx]
  00005	c3		 ret	 0
?size@?$basic_string@DV?$char_traits@D@_STL@@V?$allocator@D@2@@_STL@@QBEIXZ ENDP ; _STL::basic_string<char,_STL::char_traits<char>,_STL::allocator<char> >::size
_TEXT	ENDS
PUBLIC	?c_str@?$basic_string@DV?$char_traits@D@_STL@@V?$allocator@D@2@@_STL@@QBEPBDXZ ; _STL::basic_string<char,_STL::char_traits<char>,_STL::allocator<char> >::c_str
; Function compile flags: /Ogsy
;	COMDAT ?c_str@?$basic_string@DV?$char_traits@D@_STL@@V?$allocator@D@2@@_STL@@QBEPBDXZ
_TEXT	SEGMENT
?c_str@?$basic_string@DV?$char_traits@D@_STL@@V?$allocator@D@2@@_STL@@QBEPBDXZ PROC NEAR ; _STL::basic_string<char,_STL::char_traits<char>,_STL::allocator<char> >::c_str, COMDAT
; _this$ = ecx

; 1065 :   const _CharT* c_str() const { return this->_M_start; }

  00000	8b 01		 mov	 eax, DWORD PTR [ecx]
  00002	c3		 ret	 0
?c_str@?$basic_string@DV?$char_traits@D@_STL@@V?$allocator@D@2@@_STL@@QBEPBDXZ ENDP ; _STL::basic_string<char,_STL::char_traits<char>,_STL::allocator<char> >::c_str
_TEXT	ENDS
PUBLIC	??0?$allocator@G@_STL@@QAE@XZ			; _STL::allocator<unsigned short>::allocator<unsigned short>
; Function compile flags: /Ogsy
; File c:\stlport-4.6.1\stlport\stl\_alloc.h
;	COMDAT ??0?$allocator@G@_STL@@QAE@XZ
_TEXT	SEGMENT
??0?$allocator@G@_STL@@QAE@XZ PROC NEAR			; _STL::allocator<unsigned short>::allocator<unsigned short>, COMDAT
; _this$ = ecx

; 345  :   allocator() _STLP_NOTHROW {}

  00000	8b c1		 mov	 eax, ecx
  00002	c3		 ret	 0
??0?$allocator@G@_STL@@QAE@XZ ENDP			; _STL::allocator<unsigned short>::allocator<unsigned short>
_TEXT	ENDS
PUBLIC	??D?$_List_iterator@GU?$_Const_traits@G@_STL@@@_STL@@QBEABGXZ ; _STL::_List_iterator<unsigned short,_STL::_Const_traits<unsigned short> >::operator*
; Function compile flags: /Ogsy
; File c:\stlport-4.6.1\stlport\stl\_list.h
;	COMDAT ??D?$_List_iterator@GU?$_Const_traits@G@_STL@@@_STL@@QBEABGXZ
_TEXT	SEGMENT
??D?$_List_iterator@GU?$_Const_traits@G@_STL@@@_STL@@QBEABGXZ PROC NEAR ; _STL::_List_iterator<unsigned short,_STL::_Const_traits<unsigned short> >::operator*, COMDAT
; _this$ = ecx

; 130  :   reference operator*() const { return ((_Node*)_M_node)->_M_data; }

  00000	8b 01		 mov	 eax, DWORD PTR [ecx]
  00002	83 c0 08	 add	 eax, 8
  00005	c3		 ret	 0
??D?$_List_iterator@GU?$_Const_traits@G@_STL@@@_STL@@QBEABGXZ ENDP ; _STL::_List_iterator<unsigned short,_STL::_Const_traits<unsigned short> >::operator*
_TEXT	ENDS
PUBLIC	?_M_terminate_string_aux@?$basic_string@DV?$char_traits@D@_STL@@V?$allocator@D@2@@_STL@@AAEXABU__true_type@2@@Z ; _STL::basic_string<char,_STL::char_traits<char>,_STL::allocator<char> >::_M_terminate_string_aux
; Function compile flags: /Ogsy
; File c:\stlport-4.6.1\stlport\stl\_string.h
;	COMDAT ?_M_terminate_string_aux@?$basic_string@DV?$char_traits@D@_STL@@V?$allocator@D@2@@_STL@@AAEXABU__true_type@2@@Z
_TEXT	SEGMENT
___formal$ = 8						; size = 4
?_M_terminate_string_aux@?$basic_string@DV?$char_traits@D@_STL@@V?$allocator@D@2@@_STL@@AAEXABU__true_type@2@@Z PROC NEAR ; _STL::basic_string<char,_STL::char_traits<char>,_STL::allocator<char> >::_M_terminate_string_aux, COMDAT
; _this$ = ecx

; 351  :     *(this->_M_finish)=0;

  00000	8b 41 04	 mov	 eax, DWORD PTR [ecx+4]
  00003	c6 00 00	 mov	 BYTE PTR [eax], 0

; 352  :   }

  00006	c2 04 00	 ret	 4
?_M_terminate_string_aux@?$basic_string@DV?$char_traits@D@_STL@@V?$allocator@D@2@@_STL@@AAEXABU__true_type@2@@Z ENDP ; _STL::basic_string<char,_STL::char_traits<char>,_STL::allocator<char> >::_M_terminate_string_aux
_TEXT	ENDS
PUBLIC	??0?$allocator@D@_STL@@QAE@ABV01@@Z		; _STL::allocator<char>::allocator<char>
; Function compile flags: /Ogsy
; File c:\stlport-4.6.1\stlport\stl\_alloc.h
;	COMDAT ??0?$allocator@D@_STL@@QAE@ABV01@@Z
_TEXT	SEGMENT
___formal$ = 8						; size = 4
??0?$allocator@D@_STL@@QAE@ABV01@@Z PROC NEAR		; _STL::allocator<char>::allocator<char>, COMDAT
; _this$ = ecx

; 349  :   allocator(const allocator<_Tp>&) _STLP_NOTHROW {}

  00000	8b c1		 mov	 eax, ecx
  00002	c2 04 00	 ret	 4
??0?$allocator@D@_STL@@QAE@ABV01@@Z ENDP		; _STL::allocator<char>::allocator<char>
_TEXT	ENDS
PUBLIC	??1?$allocator@U?$_List_node@G@_STL@@@_STL@@QAE@XZ ; _STL::allocator<_STL::_List_node<unsigned short> >::~allocator<_STL::_List_node<unsigned short> >
; Function compile flags: /Ogsy
;	COMDAT ??1?$allocator@U?$_List_node@G@_STL@@@_STL@@QAE@XZ
_TEXT	SEGMENT
??1?$allocator@U?$_List_node@G@_STL@@@_STL@@QAE@XZ PROC NEAR ; _STL::allocator<_STL::_List_node<unsigned short> >::~allocator<_STL::_List_node<unsigned short> >, COMDAT
; _this$ = ecx

; 350  :   ~allocator() _STLP_NOTHROW {}

  00000	c3		 ret	 0
??1?$allocator@U?$_List_node@G@_STL@@@_STL@@QAE@XZ ENDP	; _STL::allocator<_STL::_List_node<unsigned short> >::~allocator<_STL::_List_node<unsigned short> >
_TEXT	ENDS
PUBLIC	??0?$allocator@U?$_List_node@G@_STL@@@_STL@@QAE@ABV01@@Z ; _STL::allocator<_STL::_List_node<unsigned short> >::allocator<_STL::_List_node<unsigned short> >
; Function compile flags: /Ogsy
;	COMDAT ??0?$allocator@U?$_List_node@G@_STL@@@_STL@@QAE@ABV01@@Z
_TEXT	SEGMENT
___formal$ = 8						; size = 4
??0?$allocator@U?$_List_node@G@_STL@@@_STL@@QAE@ABV01@@Z PROC NEAR ; _STL::allocator<_STL::_List_node<unsigned short> >::allocator<_STL::_List_node<unsigned short> >, COMDAT
; _this$ = ecx

; 349  :   allocator(const allocator<_Tp>&) _STLP_NOTHROW {}

  00000	8b c1		 mov	 eax, ecx
  00002	c2 04 00	 ret	 4
??0?$allocator@U?$_List_node@G@_STL@@@_STL@@QAE@ABV01@@Z ENDP ; _STL::allocator<_STL::_List_node<unsigned short> >::allocator<_STL::_List_node<unsigned short> >
_TEXT	ENDS
PUBLIC	??$_Destroy@G@_STL@@YAXPAG@Z			; _STL::_Destroy<unsigned short>
; Function compile flags: /Ogsy
; File c:\stlport-4.6.1\stlport\stl\_construct.h
;	COMDAT ??$_Destroy@G@_STL@@YAXPAG@Z
_TEXT	SEGMENT
___pointer$ = 8						; size = 4
??$_Destroy@G@_STL@@YAXPAG@Z PROC NEAR			; _STL::_Destroy<unsigned short>, COMDAT

; 57   : # if _MSC_VER >= 1010
; 58   :   __pointer;
; 59   : # endif	// _MSC_VER >= 1000
; 60   : # ifdef _STLP_TRIVIAL_DESTRUCTOR_BUG
; 61   :   typedef typename __type_traits<_Tp>::has_trivial_destructor _Trivial_destructor;
; 62   :   __destroy_aux(__pointer, _Trivial_destructor());
; 63   : # else
; 64   : #  if ( defined (__BORLANDC__) && ( __BORLANDC__ < 0x500 ) )
; 65   :     __pointer->_Tp::~_Tp();
; 66   : #  else
; 67   :     __pointer->~_Tp();
; 68   : #  endif
; 69   : # endif
; 70   : # ifdef _STLP_DEBUG_UNINITIALIZED
; 71   : 	memset((char*)__pointer, _STLP_SHRED_BYTE, sizeof(_Tp));
; 72   : # endif
; 73   : }

  00000	c3		 ret	 0
??$_Destroy@G@_STL@@YAXPAG@Z ENDP			; _STL::_Destroy<unsigned short>
_TEXT	ENDS
PUBLIC	??$?0G@?$allocator@U?$_List_node@G@_STL@@@_STL@@QAE@ABV?$allocator@G@1@@Z ; _STL::allocator<_STL::_List_node<unsigned short> >::allocator<_STL::_List_node<unsigned short> ><unsigned short>
; Function compile flags: /Ogsy
; File c:\stlport-4.6.1\stlport\stl\_alloc.h
;	COMDAT ??$?0G@?$allocator@U?$_List_node@G@_STL@@@_STL@@QAE@ABV?$allocator@G@1@@Z
_TEXT	SEGMENT
___formal$ = 8						; size = 4
??$?0G@?$allocator@U?$_List_node@G@_STL@@@_STL@@QAE@ABV?$allocator@G@1@@Z PROC NEAR ; _STL::allocator<_STL::_List_node<unsigned short> >::allocator<_STL::_List_node<unsigned short> ><unsigned short>, COMDAT
; _this$ = ecx

; 347  :   template <class _Tp1> allocator(const allocator<_Tp1>&) _STLP_NOTHROW {}

  00000	8b c1		 mov	 eax, ecx
  00002	c2 04 00	 ret	 4
??$?0G@?$allocator@U?$_List_node@G@_STL@@@_STL@@QAE@ABV?$allocator@G@1@@Z ENDP ; _STL::allocator<_STL::_List_node<unsigned short> >::allocator<_STL::_List_node<unsigned short> ><unsigned short>
_TEXT	ENDS
PUBLIC	??$_Construct@GG@_STL@@YAXPAGABG@Z		; _STL::_Construct<unsigned short,unsigned short>
; Function compile flags: /Ogsy
; File c:\stlport-4.6.1\stlport\stl\_construct.h
;	COMDAT ??$_Construct@GG@_STL@@YAXPAGABG@Z
_TEXT	SEGMENT
___p$ = 8						; size = 4
___val$ = 12						; size = 4
??$_Construct@GG@_STL@@YAXPAGABG@Z PROC NEAR		; _STL::_Construct<unsigned short,unsigned short>, COMDAT

; 94   : # ifdef _STLP_DEBUG_UNINITIALIZED
; 95   : 	memset((char*)__p, _STLP_SHRED_BYTE, sizeof(_T1));
; 96   : # endif
; 97   :     _STLP_PLACEMENT_NEW (__p) _T1(__val);

  00000	8b 44 24 04	 mov	 eax, DWORD PTR ___p$[esp-4]
  00004	85 c0		 test	 eax, eax
  00006	74 0a		 je	 SHORT $L102459
  00008	8b 4c 24 08	 mov	 ecx, DWORD PTR ___val$[esp-4]
  0000c	66 8b 09	 mov	 cx, WORD PTR [ecx]
  0000f	66 89 08	 mov	 WORD PTR [eax], cx
$L102459:

; 98   : }

  00012	c3		 ret	 0
??$_Construct@GG@_STL@@YAXPAGABG@Z ENDP			; _STL::_Construct<unsigned short,unsigned short>
_TEXT	ENDS
PUBLIC	??0_List_iterator_base@_STL@@QAE@PAU_List_node_base@1@@Z ; _STL::_List_iterator_base::_List_iterator_base
; Function compile flags: /Ogsy
; File c:\stlport-4.6.1\stlport\stl\_list.h
;	COMDAT ??0_List_iterator_base@_STL@@QAE@PAU_List_node_base@1@@Z
_TEXT	SEGMENT
___x$ = 8						; size = 4
??0_List_iterator_base@_STL@@QAE@PAU_List_node_base@1@@Z PROC NEAR ; _STL::_List_iterator_base::_List_iterator_base, COMDAT
; _this$ = ecx

; 95   :   _List_iterator_base(_List_node_base* __x) : _M_node(__x) {}

  00000	8b c1		 mov	 eax, ecx
  00002	8b 4c 24 04	 mov	 ecx, DWORD PTR ___x$[esp-4]
  00006	89 08		 mov	 DWORD PTR [eax], ecx
  00008	c2 04 00	 ret	 4
??0_List_iterator_base@_STL@@QAE@PAU_List_node_base@1@@Z ENDP ; _STL::_List_iterator_base::_List_iterator_base
_TEXT	ENDS
PUBLIC	?_M_incr@_List_iterator_base@_STL@@QAEXXZ	; _STL::_List_iterator_base::_M_incr
; Function compile flags: /Ogsy
;	COMDAT ?_M_incr@_List_iterator_base@_STL@@QAEXXZ
_TEXT	SEGMENT
?_M_incr@_List_iterator_base@_STL@@QAEXXZ PROC NEAR	; _STL::_List_iterator_base::_M_incr, COMDAT
; _this$ = ecx

; 98   :   void _M_incr() { _M_node = _M_node->_M_next; }

  00000	8b 01		 mov	 eax, DWORD PTR [ecx]
  00002	8b 00		 mov	 eax, DWORD PTR [eax]
  00004	89 01		 mov	 DWORD PTR [ecx], eax
  00006	c3		 ret	 0
?_M_incr@_List_iterator_base@_STL@@QAEXXZ ENDP		; _STL::_List_iterator_base::_M_incr
_TEXT	ENDS
PUBLIC	??9_List_iterator_base@_STL@@QBE_NABU01@@Z	; _STL::_List_iterator_base::operator!=
; Function compile flags: /Ogsy
;	COMDAT ??9_List_iterator_base@_STL@@QBE_NABU01@@Z
_TEXT	SEGMENT
___y$ = 8						; size = 4
??9_List_iterator_base@_STL@@QBE_NABU01@@Z PROC NEAR	; _STL::_List_iterator_base::operator!=, COMDAT
; _this$ = ecx

; 104  :     return _M_node != __y._M_node; 

  00000	8b 01		 mov	 eax, DWORD PTR [ecx]
  00002	8b 54 24 04	 mov	 edx, DWORD PTR ___y$[esp-4]
  00006	33 c9		 xor	 ecx, ecx
  00008	3b 02		 cmp	 eax, DWORD PTR [edx]
  0000a	0f 95 c1	 setne	 cl
  0000d	8a c1		 mov	 al, cl

; 105  :   }

  0000f	c2 04 00	 ret	 4
??9_List_iterator_base@_STL@@QBE_NABU01@@Z ENDP		; _STL::_List_iterator_base::operator!=
_TEXT	ENDS
PUBLIC	??0?$allocator@D@_STL@@QAE@XZ			; _STL::allocator<char>::allocator<char>
; Function compile flags: /Ogsy
; File c:\stlport-4.6.1\stlport\stl\_alloc.h
;	COMDAT ??0?$allocator@D@_STL@@QAE@XZ
_TEXT	SEGMENT
??0?$allocator@D@_STL@@QAE@XZ PROC NEAR			; _STL::allocator<char>::allocator<char>, COMDAT
; _this$ = ecx

; 345  :   allocator() _STLP_NOTHROW {}

  00000	8b c1		 mov	 eax, ecx
  00002	c3		 ret	 0
??0?$allocator@D@_STL@@QAE@XZ ENDP			; _STL::allocator<char>::allocator<char>
_TEXT	ENDS
PUBLIC	??1?$allocator@D@_STL@@QAE@XZ			; _STL::allocator<char>::~allocator<char>
; Function compile flags: /Ogsy
;	COMDAT ??1?$allocator@D@_STL@@QAE@XZ
_TEXT	SEGMENT
??1?$allocator@D@_STL@@QAE@XZ PROC NEAR			; _STL::allocator<char>::~allocator<char>, COMDAT
; _this$ = ecx

; 350  :   ~allocator() _STLP_NOTHROW {}

  00000	c3		 ret	 0
??1?$allocator@D@_STL@@QAE@XZ ENDP			; _STL::allocator<char>::~allocator<char>
_TEXT	ENDS
PUBLIC	??1?$_STLP_alloc_proxy@PADDV?$allocator@D@_STL@@@_STL@@QAE@XZ ; _STL::_STLP_alloc_proxy<char *,char,_STL::allocator<char> >::~_STLP_alloc_proxy<char *,char,_STL::allocator<char> >
; Function compile flags: /Ogsy
;	COMDAT ??1?$_STLP_alloc_proxy@PADDV?$allocator@D@_STL@@@_STL@@QAE@XZ
_TEXT	SEGMENT
??1?$_STLP_alloc_proxy@PADDV?$allocator@D@_STL@@@_STL@@QAE@XZ PROC NEAR ; _STL::_STLP_alloc_proxy<char *,char,_STL::allocator<char> >::~_STLP_alloc_proxy<char *,char,_STL::allocator<char> >, COMDAT
; _this$ = ecx
  00000	c3		 ret	 0
??1?$_STLP_alloc_proxy@PADDV?$allocator@D@_STL@@@_STL@@QAE@XZ ENDP ; _STL::_STLP_alloc_proxy<char *,char,_STL::allocator<char> >::~_STLP_alloc_proxy<char *,char,_STL::allocator<char> >
_TEXT	ENDS
PUBLIC	??1?$allocator@G@_STL@@QAE@XZ			; _STL::allocator<unsigned short>::~allocator<unsigned short>
; Function compile flags: /Ogsy
;	COMDAT ??1?$allocator@G@_STL@@QAE@XZ
_TEXT	SEGMENT
??1?$allocator@G@_STL@@QAE@XZ PROC NEAR			; _STL::allocator<unsigned short>::~allocator<unsigned short>, COMDAT
; _this$ = ecx

; 350  :   ~allocator() _STLP_NOTHROW {}

  00000	c3		 ret	 0
??1?$allocator@G@_STL@@QAE@XZ ENDP			; _STL::allocator<unsigned short>::~allocator<unsigned short>
_TEXT	ENDS
PUBLIC	?allocate@?$__node_alloc@$00$0A@@_STL@@SAPAXI@Z	; _STL::__node_alloc<1,0>::allocate
EXTRN	?_M_allocate@?$__node_alloc@$00$0A@@_STL@@CAPAXI@Z:NEAR ; _STL::__node_alloc<1,0>::_M_allocate
; Function compile flags: /Ogsy
;	COMDAT ?allocate@?$__node_alloc@$00$0A@@_STL@@SAPAXI@Z
_TEXT	SEGMENT
___n$ = 8						; size = 4
?allocate@?$__node_alloc@$00$0A@@_STL@@SAPAXI@Z PROC NEAR ; _STL::__node_alloc<1,0>::allocate, COMDAT

; 251  :   static void * _STLP_CALL allocate(size_t __n) { return (__n > (size_t)_MAX_BYTES) ?  __stl_new(__n) : _M_allocate(__n); }

  00000	8b 44 24 04	 mov	 eax, DWORD PTR ___n$[esp-4]
  00004	3d 80 00 00 00	 cmp	 eax, 128		; 00000080H
  00009	50		 push	 eax
  0000a	76 07		 jbe	 SHORT $L102491
  0000c	e8 00 00 00 00	 call	 ??2@YAPAXI@Z		; operator new
  00011	59		 pop	 ecx
  00012	c3		 ret	 0
$L102491:
  00013	e8 00 00 00 00	 call	 ?_M_allocate@?$__node_alloc@$00$0A@@_STL@@CAPAXI@Z ; _STL::__node_alloc<1,0>::_M_allocate
  00018	59		 pop	 ecx
  00019	c3		 ret	 0
?allocate@?$__node_alloc@$00$0A@@_STL@@SAPAXI@Z ENDP	; _STL::__node_alloc<1,0>::allocate
_TEXT	ENDS
PUBLIC	?deallocate@?$__node_alloc@$00$0A@@_STL@@SAXPAXI@Z ; _STL::__node_alloc<1,0>::deallocate
EXTRN	?_M_deallocate@?$__node_alloc@$00$0A@@_STL@@CAXPAXI@Z:NEAR ; _STL::__node_alloc<1,0>::_M_deallocate
; Function compile flags: /Ogsy
;	COMDAT ?deallocate@?$__node_alloc@$00$0A@@_STL@@SAXPAXI@Z
_TEXT	SEGMENT
___p$ = 8						; size = 4
___n$ = 12						; size = 4
?deallocate@?$__node_alloc@$00$0A@@_STL@@SAXPAXI@Z PROC NEAR ; _STL::__node_alloc<1,0>::deallocate, COMDAT

; 253  :   static void _STLP_CALL deallocate(void *__p, size_t __n) { if (__n > (size_t)_MAX_BYTES) __stl_delete(__p); else _M_deallocate(__p, __n); }

  00000	81 7c 24 08 80
	00 00 00	 cmp	 DWORD PTR ___n$[esp-4], 128 ; 00000080H
  00008	76 0b		 jbe	 SHORT $L98677
  0000a	ff 74 24 04	 push	 DWORD PTR ___p$[esp-4]
  0000e	e8 00 00 00 00	 call	 ??3@YAXPAX@Z		; operator delete
  00013	59		 pop	 ecx
  00014	c3		 ret	 0
$L98677:
  00015	e9 00 00 00 00	 jmp	 ?_M_deallocate@?$__node_alloc@$00$0A@@_STL@@CAXPAXI@Z ; _STL::__node_alloc<1,0>::_M_deallocate
?deallocate@?$__node_alloc@$00$0A@@_STL@@SAXPAXI@Z ENDP	; _STL::__node_alloc<1,0>::deallocate
_TEXT	ENDS
PUBLIC	?write@SocketOutputStream@@QAEIABV?$basic_string@DV?$char_traits@D@_STL@@V?$allocator@D@2@@_STL@@@Z ; SocketOutputStream::write
; Function compile flags: /Ogsy
; File c:\darkeden\designed_common\project\client\packet\socketoutputstream.h
;	COMDAT ?write@SocketOutputStream@@QAEIABV?$basic_string@DV?$char_traits@D@_STL@@V?$allocator@D@2@@_STL@@@Z
_TEXT	SEGMENT
_buf$ = 8						; size = 4
?write@SocketOutputStream@@QAEIABV?$basic_string@DV?$char_traits@D@_STL@@V?$allocator@D@2@@_STL@@@Z PROC NEAR ; SocketOutputStream::write, COMDAT
; _this$ = ecx

; 57   : 	uint write ( const std::string & buf ) throw ( Error ) { return write(buf.c_str(),buf.size()); }

  00000	8b 44 24 04	 mov	 eax, DWORD PTR _buf$[esp-4]
  00004	8b 10		 mov	 edx, DWORD PTR [eax]
  00006	8b 40 04	 mov	 eax, DWORD PTR [eax+4]
  00009	2b c2		 sub	 eax, edx
  0000b	50		 push	 eax
  0000c	52		 push	 edx
  0000d	e8 00 00 00 00	 call	 ?write@SocketOutputStream@@QAEIPBDI@Z ; SocketOutputStream::write
  00012	c2 04 00	 ret	 4
?write@SocketOutputStream@@QAEIABV?$basic_string@DV?$char_traits@D@_STL@@V?$allocator@D@2@@_STL@@@Z ENDP ; SocketOutputStream::write
_TEXT	ENDS
PUBLIC	?_M_terminate_string@?$basic_string@DV?$char_traits@D@_STL@@V?$allocator@D@2@@_STL@@AAEXXZ ; _STL::basic_string<char,_STL::char_traits<char>,_STL::allocator<char> >::_M_terminate_string
; Function compile flags: /Ogsy
; File c:\stlport-4.6.1\stlport\stl\_string.h
;	COMDAT ?_M_terminate_string@?$basic_string@DV?$char_traits@D@_STL@@V?$allocator@D@2@@_STL@@AAEXXZ
_TEXT	SEGMENT
?_M_terminate_string@?$basic_string@DV?$char_traits@D@_STL@@V?$allocator@D@2@@_STL@@AAEXXZ PROC NEAR ; _STL::basic_string<char,_STL::char_traits<char>,_STL::allocator<char> >::_M_terminate_string, COMDAT
; _this$ = ecx

; 355  :     _M_terminate_string_aux(_Char_Is_Integral());

  00000	8b 41 04	 mov	 eax, DWORD PTR [ecx+4]
  00003	c6 00 00	 mov	 BYTE PTR [eax], 0

; 356  :   }

  00006	c3		 ret	 0
?_M_terminate_string@?$basic_string@DV?$char_traits@D@_STL@@V?$allocator@D@2@@_STL@@AAEXXZ ENDP ; _STL::basic_string<char,_STL::char_traits<char>,_STL::allocator<char> >::_M_terminate_string
_TEXT	ENDS
PUBLIC	?allocate@?$allocator@D@_STL@@QAEPADIPBX@Z	; _STL::allocator<char>::allocate
; Function compile flags: /Ogsy
; File c:\stlport-4.6.1\stlport\stl\_alloc.h
;	COMDAT ?allocate@?$allocator@D@_STL@@QAEPADIPBX@Z
_TEXT	SEGMENT
___n$ = 8						; size = 4
___formal$ = 12						; size = 4
?allocate@?$allocator@D@_STL@@QAEPADIPBX@Z PROC NEAR	; _STL::allocator<char>::allocate, COMDAT
; _this$ = ecx

; 355  :     return __n != 0 ? __REINTERPRET_CAST(value_type*,__sgi_alloc::allocate(__n * sizeof(value_type))) : 0;

  00000	33 c0		 xor	 eax, eax
  00002	39 44 24 04	 cmp	 DWORD PTR ___n$[esp-4], eax
  00006	74 0a		 je	 SHORT $L102524
  00008	ff 74 24 04	 push	 DWORD PTR ___n$[esp-4]
  0000c	e8 00 00 00 00	 call	 ?allocate@?$__node_alloc@$00$0A@@_STL@@SAPAXI@Z ; _STL::__node_alloc<1,0>::allocate
  00011	59		 pop	 ecx
$L102524:

; 356  :   }

  00012	c2 08 00	 ret	 8
?allocate@?$allocator@D@_STL@@QAEPADIPBX@Z ENDP		; _STL::allocator<char>::allocate
_TEXT	ENDS
PUBLIC	??E?$_List_iterator@GU?$_Const_traits@G@_STL@@@_STL@@QAEAAU01@XZ ; _STL::_List_iterator<unsigned short,_STL::_Const_traits<unsigned short> >::operator++
; Function compile flags: /Ogsy
; File c:\stlport-4.6.1\stlport\stl\_list.h
;	COMDAT ??E?$_List_iterator@GU?$_Const_traits@G@_STL@@@_STL@@QAEAAU01@XZ
_TEXT	SEGMENT
??E?$_List_iterator@GU?$_Const_traits@G@_STL@@@_STL@@QAEAAU01@XZ PROC NEAR ; _STL::_List_iterator<unsigned short,_STL::_Const_traits<unsigned short> >::operator++, COMDAT
; _this$ = ecx

; 134  :   _Self& operator++() { 

  00000	8b c1		 mov	 eax, ecx

; 135  :     this->_M_incr();

  00002	8b 08		 mov	 ecx, DWORD PTR [eax]
  00004	8b 09		 mov	 ecx, DWORD PTR [ecx]
  00006	89 08		 mov	 DWORD PTR [eax], ecx

; 136  :     return *this;
; 137  :   }

  00008	c3		 ret	 0
??E?$_List_iterator@GU?$_Const_traits@G@_STL@@@_STL@@QAEAAU01@XZ ENDP ; _STL::_List_iterator<unsigned short,_STL::_Const_traits<unsigned short> >::operator++
_TEXT	ENDS
PUBLIC	??E?$_List_iterator@GU?$_Const_traits@G@_STL@@@_STL@@QAE?AU01@H@Z ; _STL::_List_iterator<unsigned short,_STL::_Const_traits<unsigned short> >::operator++
; Function compile flags: /Ogsy
;	COMDAT ??E?$_List_iterator@GU?$_Const_traits@G@_STL@@@_STL@@QAE?AU01@H@Z
_TEXT	SEGMENT
___$ReturnUdt$ = 8					; size = 4
___formal$ = 12						; size = 4
??E?$_List_iterator@GU?$_Const_traits@G@_STL@@@_STL@@QAE?AU01@H@Z PROC NEAR ; _STL::_List_iterator<unsigned short,_STL::_Const_traits<unsigned short> >::operator++, COMDAT
; _this$ = ecx

; 139  :     _Self __tmp = *this;

  00000	8b 11		 mov	 edx, DWORD PTR [ecx]

; 140  :     this->_M_incr();

  00002	8b 02		 mov	 eax, DWORD PTR [edx]
  00004	89 01		 mov	 DWORD PTR [ecx], eax

; 141  :     return __tmp;

  00006	8b 44 24 04	 mov	 eax, DWORD PTR ___$ReturnUdt$[esp-4]
  0000a	89 10		 mov	 DWORD PTR [eax], edx

; 142  :   }

  0000c	c2 08 00	 ret	 8
??E?$_List_iterator@GU?$_Const_traits@G@_STL@@@_STL@@QAE?AU01@H@Z ENDP ; _STL::_List_iterator<unsigned short,_STL::_Const_traits<unsigned short> >::operator++
_TEXT	ENDS
PUBLIC	??0?$_STLP_alloc_proxy@PADDV?$allocator@D@_STL@@@_STL@@QAE@ABV?$allocator@D@1@PAD@Z ; _STL::_STLP_alloc_proxy<char *,char,_STL::allocator<char> >::_STLP_alloc_proxy<char *,char,_STL::allocator<char> >
; Function compile flags: /Ogsy
; File c:\stlport-4.6.1\stlport\stl\_alloc.h
;	COMDAT ??0?$_STLP_alloc_proxy@PADDV?$allocator@D@_STL@@@_STL@@QAE@ABV?$allocator@D@1@PAD@Z
_TEXT	SEGMENT
___a$ = 8						; size = 4
___p$ = 12						; size = 4
??0?$_STLP_alloc_proxy@PADDV?$allocator@D@_STL@@@_STL@@QAE@ABV?$allocator@D@1@PAD@Z PROC NEAR ; _STL::_STLP_alloc_proxy<char *,char,_STL::allocator<char> >::_STLP_alloc_proxy<char *,char,_STL::allocator<char> >, COMDAT
; _this$ = ecx

; 487  :   inline _STLP_alloc_proxy(const _MaybeReboundAlloc& __a, _Value __p) : _MaybeReboundAlloc(__a), _M_data(__p) {}

  00000	8b c1		 mov	 eax, ecx
  00002	8b 4c 24 08	 mov	 ecx, DWORD PTR ___p$[esp-4]
  00006	89 08		 mov	 DWORD PTR [eax], ecx
  00008	c2 08 00	 ret	 8
??0?$_STLP_alloc_proxy@PADDV?$allocator@D@_STL@@@_STL@@QAE@ABV?$allocator@D@1@PAD@Z ENDP ; _STL::_STLP_alloc_proxy<char *,char,_STL::allocator<char> >::_STLP_alloc_proxy<char *,char,_STL::allocator<char> >
_TEXT	ENDS
PUBLIC	?deallocate@?$allocator@U?$_List_node@G@_STL@@@_STL@@QAEXPAU?$_List_node@G@2@I@Z ; _STL::allocator<_STL::_List_node<unsigned short> >::deallocate
; Function compile flags: /Ogsy
;	COMDAT ?deallocate@?$allocator@U?$_List_node@G@_STL@@@_STL@@QAEXPAU?$_List_node@G@2@I@Z
_TEXT	SEGMENT
___p$ = 8						; size = 4
___n$ = 12						; size = 4
?deallocate@?$allocator@U?$_List_node@G@_STL@@@_STL@@QAEXPAU?$_List_node@G@2@I@Z PROC NEAR ; _STL::allocator<_STL::_List_node<unsigned short> >::deallocate, COMDAT
; _this$ = ecx

; 359  :     _STLP_ASSERT( (__p == 0) == (__n == 0) )
; 360  :       if (__p != 0) __sgi_alloc::deallocate((void*)__p, __n * sizeof(value_type));

  00000	83 7c 24 04 00	 cmp	 DWORD PTR ___p$[esp-4], 0
  00005	74 16		 je	 SHORT $L101419
  00007	8b 44 24 08	 mov	 eax, DWORD PTR ___n$[esp-4]
  0000b	8d 04 40	 lea	 eax, DWORD PTR [eax+eax*2]
  0000e	c1 e0 02	 shl	 eax, 2
  00011	50		 push	 eax
  00012	ff 74 24 08	 push	 DWORD PTR ___p$[esp]
  00016	e8 00 00 00 00	 call	 ?deallocate@?$__node_alloc@$00$0A@@_STL@@SAXPAXI@Z ; _STL::__node_alloc<1,0>::deallocate
  0001b	59		 pop	 ecx
  0001c	59		 pop	 ecx
$L101419:

; 361  :   }

  0001d	c2 08 00	 ret	 8
?deallocate@?$allocator@U?$_List_node@G@_STL@@@_STL@@QAEXPAU?$_List_node@G@2@I@Z ENDP ; _STL::allocator<_STL::_List_node<unsigned short> >::deallocate
_TEXT	ENDS
PUBLIC	??0?$_List_iterator@GU?$_Nonconst_traits@G@_STL@@@_STL@@QAE@PAU?$_List_node@G@1@@Z ; _STL::_List_iterator<unsigned short,_STL::_Nonconst_traits<unsigned short> >::_List_iterator<unsigned short,_STL::_Nonconst_traits<unsigned short> >
; Function compile flags: /Ogsy
; File c:\stlport-4.6.1\stlport\stl\_list.h
;	COMDAT ??0?$_List_iterator@GU?$_Nonconst_traits@G@_STL@@@_STL@@QAE@PAU?$_List_node@G@1@@Z
_TEXT	SEGMENT
___x$ = 8						; size = 4
??0?$_List_iterator@GU?$_Nonconst_traits@G@_STL@@@_STL@@QAE@PAU?$_List_node@G@1@@Z PROC NEAR ; _STL::_List_iterator<unsigned short,_STL::_Nonconst_traits<unsigned short> >::_List_iterator<unsigned short,_STL::_Nonconst_traits<unsigned short> >, COMDAT
; _this$ = ecx

; 126  :   _List_iterator(_Node* __x) : _List_iterator_base(__x) {}

  00000	8b c1		 mov	 eax, ecx
  00002	8b 4c 24 04	 mov	 ecx, DWORD PTR ___x$[esp-4]
  00006	89 08		 mov	 DWORD PTR [eax], ecx
  00008	c2 04 00	 ret	 4
??0?$_List_iterator@GU?$_Nonconst_traits@G@_STL@@@_STL@@QAE@PAU?$_List_node@G@1@@Z ENDP ; _STL::_List_iterator<unsigned short,_STL::_Nonconst_traits<unsigned short> >::_List_iterator<unsigned short,_STL::_Nonconst_traits<unsigned short> >
_TEXT	ENDS
PUBLIC	??0?$_List_iterator@GU?$_Const_traits@G@_STL@@@_STL@@QAE@PAU?$_List_node@G@1@@Z ; _STL::_List_iterator<unsigned short,_STL::_Const_traits<unsigned short> >::_List_iterator<unsigned short,_STL::_Const_traits<unsigned short> >
; Function compile flags: /Ogsy
;	COMDAT ??0?$_List_iterator@GU?$_Const_traits@G@_STL@@@_STL@@QAE@PAU?$_List_node@G@1@@Z
_TEXT	SEGMENT
___x$ = 8						; size = 4
??0?$_List_iterator@GU?$_Const_traits@G@_STL@@@_STL@@QAE@PAU?$_List_node@G@1@@Z PROC NEAR ; _STL::_List_iterator<unsigned short,_STL::_Const_traits<unsigned short> >::_List_iterator<unsigned short,_STL::_Const_traits<unsigned short> >, COMDAT
; _this$ = ecx

; 126  :   _List_iterator(_Node* __x) : _List_iterator_base(__x) {}

  00000	8b c1		 mov	 eax, ecx
  00002	8b 4c 24 04	 mov	 ecx, DWORD PTR ___x$[esp-4]
  00006	89 08		 mov	 DWORD PTR [eax], ecx
  00008	c2 04 00	 ret	 4
??0?$_List_iterator@GU?$_Const_traits@G@_STL@@@_STL@@QAE@PAU?$_List_node@G@1@@Z ENDP ; _STL::_List_iterator<unsigned short,_STL::_Const_traits<unsigned short> >::_List_iterator<unsigned short,_STL::_Const_traits<unsigned short> >
_TEXT	ENDS
PUBLIC	??1?$_STLP_alloc_proxy@PAU?$_List_node@G@_STL@@U12@V?$allocator@U?$_List_node@G@_STL@@@2@@_STL@@QAE@XZ ; _STL::_STLP_alloc_proxy<_STL::_List_node<unsigned short> *,_STL::_List_node<unsigned short>,_STL::allocator<_STL::_List_node<unsigned short> > >::~_STLP_alloc_proxy<_STL::_List_node<unsigned short> *,_STL::_List_node<unsigned short>,_STL::allocator<_STL::_List_node<unsigned short> > >
; Function compile flags: /Ogsy
;	COMDAT ??1?$_STLP_alloc_proxy@PAU?$_List_node@G@_STL@@U12@V?$allocator@U?$_List_node@G@_STL@@@2@@_STL@@QAE@XZ
_TEXT	SEGMENT
??1?$_STLP_alloc_proxy@PAU?$_List_node@G@_STL@@U12@V?$allocator@U?$_List_node@G@_STL@@@2@@_STL@@QAE@XZ PROC NEAR ; _STL::_STLP_alloc_proxy<_STL::_List_node<unsigned short> *,_STL::_List_node<unsigned short>,_STL::allocator<_STL::_List_node<unsigned short> > >::~_STLP_alloc_proxy<_STL::_List_node<unsigned short> *,_STL::_List_node<unsigned short>,_STL::allocator<_STL::_List_node<unsigned short> > >, COMDAT
; _this$ = ecx
  00000	c3		 ret	 0
??1?$_STLP_alloc_proxy@PAU?$_List_node@G@_STL@@U12@V?$allocator@U?$_List_node@G@_STL@@@2@@_STL@@QAE@XZ ENDP ; _STL::_STLP_alloc_proxy<_STL::_List_node<unsigned short> *,_STL::_List_node<unsigned short>,_STL::allocator<_STL::_List_node<unsigned short> > >::~_STLP_alloc_proxy<_STL::_List_node<unsigned short> *,_STL::_List_node<unsigned short>,_STL::allocator<_STL::_List_node<unsigned short> > >
_TEXT	ENDS
PUBLIC	??0?$_STLP_alloc_proxy@PAU?$_List_node@G@_STL@@U12@V?$allocator@U?$_List_node@G@_STL@@@2@@_STL@@QAE@ABV?$allocator@U?$_List_node@G@_STL@@@1@PAU?$_List_node@G@1@@Z ; _STL::_STLP_alloc_proxy<_STL::_List_node<unsigned short> *,_STL::_List_node<unsigned short>,_STL::allocator<_STL::_List_node<unsigned short> > >::_STLP_alloc_proxy<_STL::_List_node<unsigned short> *,_STL::_List_node<unsigned short>,_STL::allocator<_STL::_List_node<unsigned short> > >
; Function compile flags: /Ogsy
; File c:\stlport-4.6.1\stlport\stl\_alloc.h
;	COMDAT ??0?$_STLP_alloc_proxy@PAU?$_List_node@G@_STL@@U12@V?$allocator@U?$_List_node@G@_STL@@@2@@_STL@@QAE@ABV?$allocator@U?$_List_node@G@_STL@@@1@PAU?$_List_node@G@1@@Z
_TEXT	SEGMENT
___a$ = 8						; size = 4
___p$ = 12						; size = 4
??0?$_STLP_alloc_proxy@PAU?$_List_node@G@_STL@@U12@V?$allocator@U?$_List_node@G@_STL@@@2@@_STL@@QAE@ABV?$allocator@U?$_List_node@G@_STL@@@1@PAU?$_List_node@G@1@@Z PROC NEAR ; _STL::_STLP_alloc_proxy<_STL::_List_node<unsigned short> *,_STL::_List_node<unsigned short>,_STL::allocator<_STL::_List_node<unsigned short> > >::_STLP_alloc_proxy<_STL::_List_node<unsigned short> *,_STL::_List_node<unsigned short>,_STL::allocator<_STL::_List_node<unsigned short> > >, COMDAT
; _this$ = ecx

; 487  :   inline _STLP_alloc_proxy(const _MaybeReboundAlloc& __a, _Value __p) : _MaybeReboundAlloc(__a), _M_data(__p) {}

  00000	8b c1		 mov	 eax, ecx
  00002	8b 4c 24 08	 mov	 ecx, DWORD PTR ___p$[esp-4]
  00006	89 08		 mov	 DWORD PTR [eax], ecx
  00008	c2 08 00	 ret	 8
??0?$_STLP_alloc_proxy@PAU?$_List_node@G@_STL@@U12@V?$allocator@U?$_List_node@G@_STL@@@2@@_STL@@QAE@ABV?$allocator@U?$_List_node@G@_STL@@@1@PAU?$_List_node@G@1@@Z ENDP ; _STL::_STLP_alloc_proxy<_STL::_List_node<unsigned short> *,_STL::_List_node<unsigned short>,_STL::allocator<_STL::_List_node<unsigned short> > >::_STLP_alloc_proxy<_STL::_List_node<unsigned short> *,_STL::_List_node<unsigned short>,_STL::allocator<_STL::_List_node<unsigned short> > >
_TEXT	ENDS
PUBLIC	?allocate@?$allocator@U?$_List_node@G@_STL@@@_STL@@QAEPAU?$_List_node@G@2@IPBX@Z ; _STL::allocator<_STL::_List_node<unsigned short> >::allocate
; Function compile flags: /Ogsy
;	COMDAT ?allocate@?$allocator@U?$_List_node@G@_STL@@@_STL@@QAEPAU?$_List_node@G@2@IPBX@Z
_TEXT	SEGMENT
___n$ = 8						; size = 4
___formal$ = 12						; size = 4
?allocate@?$allocator@U?$_List_node@G@_STL@@@_STL@@QAEPAU?$_List_node@G@2@IPBX@Z PROC NEAR ; _STL::allocator<_STL::_List_node<unsigned short> >::allocate, COMDAT
; _this$ = ecx

; 355  :     return __n != 0 ? __REINTERPRET_CAST(value_type*,__sgi_alloc::allocate(__n * sizeof(value_type))) : 0;

  00000	8b 44 24 04	 mov	 eax, DWORD PTR ___n$[esp-4]
  00004	85 c0		 test	 eax, eax
  00006	74 0f		 je	 SHORT $L102567
  00008	8d 04 40	 lea	 eax, DWORD PTR [eax+eax*2]
  0000b	c1 e0 02	 shl	 eax, 2
  0000e	50		 push	 eax
  0000f	e8 00 00 00 00	 call	 ?allocate@?$__node_alloc@$00$0A@@_STL@@SAPAXI@Z ; _STL::__node_alloc<1,0>::allocate
  00014	59		 pop	 ecx
  00015	eb 02		 jmp	 SHORT $L102568
$L102567:
  00017	33 c0		 xor	 eax, eax
$L102568:

; 356  :   }

  00019	c2 08 00	 ret	 8
?allocate@?$allocator@U?$_List_node@G@_STL@@@_STL@@QAEPAU?$_List_node@G@2@IPBX@Z ENDP ; _STL::allocator<_STL::_List_node<unsigned short> >::allocate
_TEXT	ENDS
PUBLIC	?clear@?$_List_base@GV?$allocator@G@_STL@@@_STL@@QAEXXZ ; _STL::_List_base<unsigned short,_STL::allocator<unsigned short> >::clear
; Function compile flags: /Ogsy
; File c:\stlport-4.6.1\stlport\stl\_list.c
;	COMDAT ?clear@?$_List_base@GV?$allocator@G@_STL@@@_STL@@QAEXXZ
_TEXT	SEGMENT
?clear@?$_List_base@GV?$allocator@G@_STL@@@_STL@@QAEXXZ PROC NEAR ; _STL::_List_base<unsigned short,_STL::allocator<unsigned short> >::clear, COMDAT
; _this$ = ecx

; 68   : {

  00000	56		 push	 esi
  00001	57		 push	 edi
  00002	8b f9		 mov	 edi, ecx

; 69   :   _List_node<_Tp>* __cur = (_List_node<_Tp>*) this->_M_node._M_data->_M_next;

  00004	8b 07		 mov	 eax, DWORD PTR [edi]
  00006	8b 30		 mov	 esi, DWORD PTR [eax]

; 70   :   while (__cur != this->_M_node._M_data) {

  00008	3b f0		 cmp	 esi, eax
  0000a	74 12		 je	 SHORT $L101607
$L101606:

; 71   :     _List_node<_Tp>* __tmp = __cur;

  0000c	8b c6		 mov	 eax, esi

; 72   :     __cur = (_List_node<_Tp>*) __cur->_M_next;

  0000e	8b 36		 mov	 esi, DWORD PTR [esi]

; 73   :     _STLP_STD::_Destroy(&__tmp->_M_data);
; 74   :     this->_M_node.deallocate(__tmp, 1);

  00010	6a 01		 push	 1
  00012	50		 push	 eax
  00013	8b cf		 mov	 ecx, edi
  00015	e8 00 00 00 00	 call	 ?deallocate@?$allocator@U?$_List_node@G@_STL@@@_STL@@QAEXPAU?$_List_node@G@2@I@Z ; _STL::allocator<_STL::_List_node<unsigned short> >::deallocate
  0001a	3b 37		 cmp	 esi, DWORD PTR [edi]
  0001c	75 ee		 jne	 SHORT $L101606
$L101607:

; 75   :   }
; 76   :   this->_M_node._M_data->_M_next = this->_M_node._M_data;

  0001e	8b 07		 mov	 eax, DWORD PTR [edi]
  00020	89 00		 mov	 DWORD PTR [eax], eax

; 77   :   this->_M_node._M_data->_M_prev = this->_M_node._M_data;

  00022	8b 3f		 mov	 edi, DWORD PTR [edi]
  00024	89 7f 04	 mov	 DWORD PTR [edi+4], edi
  00027	5f		 pop	 edi
  00028	5e		 pop	 esi

; 78   : }

  00029	c3		 ret	 0
?clear@?$_List_base@GV?$allocator@G@_STL@@@_STL@@QAEXXZ ENDP ; _STL::_List_base<unsigned short,_STL::allocator<unsigned short> >::clear
_TEXT	ENDS
PUBLIC	??$__distance@U?$_List_iterator@GU?$_Const_traits@G@_STL@@@_STL@@@_STL@@YAHABU?$_List_iterator@GU?$_Const_traits@G@_STL@@@0@0ABUinput_iterator_tag@0@@Z ; _STL::__distance<_STL::_List_iterator<unsigned short,_STL::_Const_traits<unsigned short> > >
; Function compile flags: /Ogsy
; File c:\stlport-4.6.1\stlport\stl\_iterator_base.h
;	COMDAT ??$__distance@U?$_List_iterator@GU?$_Const_traits@G@_STL@@@_STL@@@_STL@@YAHABU?$_List_iterator@GU?$_Const_traits@G@_STL@@@0@0ABUinput_iterator_tag@0@@Z
_TEXT	SEGMENT
___first$ = 8						; size = 4
___last$ = 12						; size = 4
___formal$ = 16						; size = 4
??$__distance@U?$_List_iterator@GU?$_Const_traits@G@_STL@@@_STL@@@_STL@@YAHABU?$_List_iterator@GU?$_Const_traits@G@_STL@@@0@0ABUinput_iterator_tag@0@@Z PROC NEAR ; _STL::__distance<_STL::_List_iterator<unsigned short,_STL::_Const_traits<unsigned short> > >, COMDAT

; 323  :   _STLP_DIFFERENCE_TYPE(_InputIterator) __n = 0;
; 324  :   _InputIterator __it(__first);  
; 325  :   while (__it != __last) {

  00000	8b 54 24 08	 mov	 edx, DWORD PTR ___last$[esp-4]
  00004	8b 4c 24 04	 mov	 ecx, DWORD PTR ___first$[esp-4]
  00008	8b 12		 mov	 edx, DWORD PTR [edx]
  0000a	33 c0		 xor	 eax, eax
  0000c	eb 01		 jmp	 SHORT $L102594
$L101873:

; 326  :     ++__it; ++__n;

  0000e	40		 inc	 eax
$L102594:
  0000f	8b 09		 mov	 ecx, DWORD PTR [ecx]
  00011	3b ca		 cmp	 ecx, edx
  00013	75 f9		 jne	 SHORT $L101873

; 327  :   }
; 328  :   return __n;
; 329  : }

  00015	c3		 ret	 0
??$__distance@U?$_List_iterator@GU?$_Const_traits@G@_STL@@@_STL@@@_STL@@YAHABU?$_List_iterator@GU?$_Const_traits@G@_STL@@@0@0ABUinput_iterator_tag@0@@Z ENDP ; _STL::__distance<_STL::_List_iterator<unsigned short,_STL::_Const_traits<unsigned short> > >
_TEXT	ENDS
PUBLIC	?deallocate@?$allocator@D@_STL@@QAEXPADI@Z	; _STL::allocator<char>::deallocate
; Function compile flags: /Ogsy
; File c:\stlport-4.6.1\stlport\stl\_alloc.h
;	COMDAT ?deallocate@?$allocator@D@_STL@@QAEXPADI@Z
_TEXT	SEGMENT
___p$ = 8						; size = 4
___n$ = 12						; size = 4
?deallocate@?$allocator@D@_STL@@QAEXPADI@Z PROC NEAR	; _STL::allocator<char>::deallocate, COMDAT
; _this$ = ecx

; 359  :     _STLP_ASSERT( (__p == 0) == (__n == 0) )
; 360  :       if (__p != 0) __sgi_alloc::deallocate((void*)__p, __n * sizeof(value_type));

  00000	83 7c 24 04 00	 cmp	 DWORD PTR ___p$[esp-4], 0
  00005	74 0f		 je	 SHORT $L98663
  00007	ff 74 24 08	 push	 DWORD PTR ___n$[esp-4]
  0000b	ff 74 24 08	 push	 DWORD PTR ___p$[esp]
  0000f	e8 00 00 00 00	 call	 ?deallocate@?$__node_alloc@$00$0A@@_STL@@SAXPAXI@Z ; _STL::__node_alloc<1,0>::deallocate
  00014	59		 pop	 ecx
  00015	59		 pop	 ecx
$L98663:

; 361  :   }

  00016	c2 08 00	 ret	 8
?deallocate@?$allocator@D@_STL@@QAEXPADI@Z ENDP		; _STL::allocator<char>::deallocate
_TEXT	ENDS
PUBLIC	??0?$_String_base@DV?$allocator@D@_STL@@@_STL@@QAE@ABV?$allocator@D@1@@Z ; _STL::_String_base<char,_STL::allocator<char> >::_String_base<char,_STL::allocator<char> >
; Function compile flags: /Ogsy
; File c:\stlport-4.6.1\stlport\stl\_string.h
;	COMDAT ??0?$_String_base@DV?$allocator@D@_STL@@@_STL@@QAE@ABV?$allocator@D@1@@Z
_TEXT	SEGMENT
___a$ = 8						; size = 4
??0?$_String_base@DV?$allocator@D@_STL@@@_STL@@QAE@ABV?$allocator@D@1@@Z PROC NEAR ; _STL::_String_base<char,_STL::allocator<char> >::_String_base<char,_STL::allocator<char> >, COMDAT
; _this$ = ecx

; 129  :     : _M_start(0), _M_finish(0), _M_end_of_storage(__a, (_Tp*)0) {}

  00000	56		 push	 esi
  00001	33 c0		 xor	 eax, eax
  00003	8b f1		 mov	 esi, ecx
  00005	50		 push	 eax
  00006	ff 74 24 0c	 push	 DWORD PTR ___a$[esp+4]
  0000a	8d 4e 08	 lea	 ecx, DWORD PTR [esi+8]
  0000d	89 06		 mov	 DWORD PTR [esi], eax
  0000f	89 46 04	 mov	 DWORD PTR [esi+4], eax
  00012	e8 00 00 00 00	 call	 ??0?$_STLP_alloc_proxy@PADDV?$allocator@D@_STL@@@_STL@@QAE@ABV?$allocator@D@1@PAD@Z ; _STL::_STLP_alloc_proxy<char *,char,_STL::allocator<char> >::_STLP_alloc_proxy<char *,char,_STL::allocator<char> >
  00017	8b c6		 mov	 eax, esi
  00019	5e		 pop	 esi
  0001a	c2 04 00	 ret	 4
??0?$_String_base@DV?$allocator@D@_STL@@@_STL@@QAE@ABV?$allocator@D@1@@Z ENDP ; _STL::_String_base<char,_STL::allocator<char> >::_String_base<char,_STL::allocator<char> >
_TEXT	ENDS
PUBLIC	?begin@?$list@GV?$allocator@G@_STL@@@_STL@@QBE?AU?$_List_iterator@GU?$_Const_traits@G@_STL@@@2@XZ ; _STL::list<unsigned short,_STL::allocator<unsigned short> >::begin
; Function compile flags: /Ogsy
; File c:\stlport-4.6.1\stlport\stl\_list.h
;	COMDAT ?begin@?$list@GV?$allocator@G@_STL@@@_STL@@QBE?AU?$_List_iterator@GU?$_Const_traits@G@_STL@@@2@XZ
_TEXT	SEGMENT
___$ReturnUdt$ = 8					; size = 4
?begin@?$list@GV?$allocator@G@_STL@@@_STL@@QBE?AU?$_List_iterator@GU?$_Const_traits@G@_STL@@@2@XZ PROC NEAR ; _STL::list<unsigned short,_STL::allocator<unsigned short> >::begin, COMDAT
; _this$ = ecx

; 267  :   const_iterator begin() const { return const_iterator((_Node*)(this->_M_node._M_data->_M_next)); }

  00000	8b 01		 mov	 eax, DWORD PTR [ecx]
  00002	8b 08		 mov	 ecx, DWORD PTR [eax]
  00004	8b 44 24 04	 mov	 eax, DWORD PTR ___$ReturnUdt$[esp-4]
  00008	89 08		 mov	 DWORD PTR [eax], ecx
  0000a	c2 04 00	 ret	 4
?begin@?$list@GV?$allocator@G@_STL@@@_STL@@QBE?AU?$_List_iterator@GU?$_Const_traits@G@_STL@@@2@XZ ENDP ; _STL::list<unsigned short,_STL::allocator<unsigned short> >::begin
_TEXT	ENDS
PUBLIC	?end@?$list@GV?$allocator@G@_STL@@@_STL@@QAE?AU?$_List_iterator@GU?$_Nonconst_traits@G@_STL@@@2@XZ ; _STL::list<unsigned short,_STL::allocator<unsigned short> >::end
; Function compile flags: /Ogsy
;	COMDAT ?end@?$list@GV?$allocator@G@_STL@@@_STL@@QAE?AU?$_List_iterator@GU?$_Nonconst_traits@G@_STL@@@2@XZ
_TEXT	SEGMENT
___$ReturnUdt$ = 8					; size = 4
?end@?$list@GV?$allocator@G@_STL@@@_STL@@QAE?AU?$_List_iterator@GU?$_Nonconst_traits@G@_STL@@@2@XZ PROC NEAR ; _STL::list<unsigned short,_STL::allocator<unsigned short> >::end, COMDAT
; _this$ = ecx

; 269  :   iterator end()             { return this->_M_node._M_data; }

  00000	8b 09		 mov	 ecx, DWORD PTR [ecx]
  00002	8b 44 24 04	 mov	 eax, DWORD PTR ___$ReturnUdt$[esp-4]
  00006	89 08		 mov	 DWORD PTR [eax], ecx
  00008	c2 04 00	 ret	 4
?end@?$list@GV?$allocator@G@_STL@@@_STL@@QAE?AU?$_List_iterator@GU?$_Nonconst_traits@G@_STL@@@2@XZ ENDP ; _STL::list<unsigned short,_STL::allocator<unsigned short> >::end
_TEXT	ENDS
PUBLIC	?end@?$list@GV?$allocator@G@_STL@@@_STL@@QBE?AU?$_List_iterator@GU?$_Const_traits@G@_STL@@@2@XZ ; _STL::list<unsigned short,_STL::allocator<unsigned short> >::end
; Function compile flags: /Ogsy
;	COMDAT ?end@?$list@GV?$allocator@G@_STL@@@_STL@@QBE?AU?$_List_iterator@GU?$_Const_traits@G@_STL@@@2@XZ
_TEXT	SEGMENT
___$ReturnUdt$ = 8					; size = 4
?end@?$list@GV?$allocator@G@_STL@@@_STL@@QBE?AU?$_List_iterator@GU?$_Const_traits@G@_STL@@@2@XZ PROC NEAR ; _STL::list<unsigned short,_STL::allocator<unsigned short> >::end, COMDAT
; _this$ = ecx

; 270  :   const_iterator end() const { return this->_M_node._M_data; }

  00000	8b 09		 mov	 ecx, DWORD PTR [ecx]
  00002	8b 44 24 04	 mov	 eax, DWORD PTR ___$ReturnUdt$[esp-4]
  00006	89 08		 mov	 DWORD PTR [eax], ecx
  00008	c2 04 00	 ret	 4
?end@?$list@GV?$allocator@G@_STL@@@_STL@@QBE?AU?$_List_iterator@GU?$_Const_traits@G@_STL@@@2@XZ ENDP ; _STL::list<unsigned short,_STL::allocator<unsigned short> >::end
_TEXT	ENDS
PUBLIC	??0?$_List_base@GV?$allocator@G@_STL@@@_STL@@QAE@ABV?$allocator@G@1@@Z ; _STL::_List_base<unsigned short,_STL::allocator<unsigned short> >::_List_base<unsigned short,_STL::allocator<unsigned short> >
; Function compile flags: /Ogsy
;	COMDAT ??0?$_List_base@GV?$allocator@G@_STL@@@_STL@@QAE@ABV?$allocator@G@1@@Z
_TEXT	SEGMENT
$T102640 = -1						; size = 1
___a$ = 8						; size = 4
??0?$_List_base@GV?$allocator@G@_STL@@@_STL@@QAE@ABV?$allocator@G@1@@Z PROC NEAR ; _STL::_List_base<unsigned short,_STL::allocator<unsigned short> >::_List_base<unsigned short,_STL::allocator<unsigned short> >, COMDAT
; _this$ = ecx

; 182  :   _List_base(const allocator_type& __a) : _M_node(_STLP_CONVERT_ALLOCATOR(__a, _Node), (_Node*)0) {

  00000	51		 push	 ecx
  00001	56		 push	 esi
  00002	6a 00		 push	 0
  00004	8d 44 24 0b	 lea	 eax, DWORD PTR $T102640[esp+12]
  00008	50		 push	 eax
  00009	8b f1		 mov	 esi, ecx
  0000b	e8 00 00 00 00	 call	 ??0?$_STLP_alloc_proxy@PAU?$_List_node@G@_STL@@U12@V?$allocator@U?$_List_node@G@_STL@@@2@@_STL@@QAE@ABV?$allocator@U?$_List_node@G@_STL@@@1@PAU?$_List_node@G@1@@Z ; _STL::_STLP_alloc_proxy<_STL::_List_node<unsigned short> *,_STL::_List_node<unsigned short>,_STL::allocator<_STL::_List_node<unsigned short> > >::_STLP_alloc_proxy<_STL::_List_node<unsigned short> *,_STL::_List_node<unsigned short>,_STL::allocator<_STL::_List_node<unsigned short> > >

; 183  :     _Node* __n = _M_node.allocate(1);

  00010	6a 0c		 push	 12			; 0000000cH
  00012	e8 00 00 00 00	 call	 ?allocate@?$__node_alloc@$00$0A@@_STL@@SAPAXI@Z ; _STL::__node_alloc<1,0>::allocate

; 184  :     __n->_M_next = __n;

  00017	89 00		 mov	 DWORD PTR [eax], eax

; 185  :     __n->_M_prev = __n;

  00019	89 40 04	 mov	 DWORD PTR [eax+4], eax

; 186  :     _M_node._M_data = __n;

  0001c	89 06		 mov	 DWORD PTR [esi], eax
  0001e	59		 pop	 ecx

; 187  :   }

  0001f	8b c6		 mov	 eax, esi
  00021	5e		 pop	 esi
  00022	59		 pop	 ecx
  00023	c2 04 00	 ret	 4
??0?$_List_base@GV?$allocator@G@_STL@@@_STL@@QAE@ABV?$allocator@G@1@@Z ENDP ; _STL::_List_base<unsigned short,_STL::allocator<unsigned short> >::_List_base<unsigned short,_STL::allocator<unsigned short> >
_TEXT	ENDS
PUBLIC	??1?$_List_base@GV?$allocator@G@_STL@@@_STL@@QAE@XZ ; _STL::_List_base<unsigned short,_STL::allocator<unsigned short> >::~_List_base<unsigned short,_STL::allocator<unsigned short> >
; Function compile flags: /Ogsy
;	COMDAT ??1?$_List_base@GV?$allocator@G@_STL@@@_STL@@QAE@XZ
_TEXT	SEGMENT
??1?$_List_base@GV?$allocator@G@_STL@@@_STL@@QAE@XZ PROC NEAR ; _STL::_List_base<unsigned short,_STL::allocator<unsigned short> >::~_List_base<unsigned short,_STL::allocator<unsigned short> >, COMDAT
; _this$ = ecx

; 188  :   ~_List_base() {

  00000	56		 push	 esi
  00001	8b f1		 mov	 esi, ecx

; 189  :     clear();

  00003	e8 00 00 00 00	 call	 ?clear@?$_List_base@GV?$allocator@G@_STL@@@_STL@@QAEXXZ ; _STL::_List_base<unsigned short,_STL::allocator<unsigned short> >::clear

; 190  :     _M_node.deallocate(_M_node._M_data, 1);

  00008	6a 01		 push	 1
  0000a	ff 36		 push	 DWORD PTR [esi]
  0000c	8b ce		 mov	 ecx, esi
  0000e	e8 00 00 00 00	 call	 ?deallocate@?$allocator@U?$_List_node@G@_STL@@@_STL@@QAEXPAU?$_List_node@G@2@I@Z ; _STL::allocator<_STL::_List_node<unsigned short> >::deallocate
  00013	5e		 pop	 esi

; 191  :   }

  00014	c3		 ret	 0
??1?$_List_base@GV?$allocator@G@_STL@@@_STL@@QAE@XZ ENDP ; _STL::_List_base<unsigned short,_STL::allocator<unsigned short> >::~_List_base<unsigned short,_STL::allocator<unsigned short> >
_TEXT	ENDS
PUBLIC	?_M_create_node@?$list@GV?$allocator@G@_STL@@@_STL@@IAEPAU?$_List_node@G@2@ABG@Z ; _STL::list<unsigned short,_STL::allocator<unsigned short> >::_M_create_node
EXTRN	__CxxThrowException@8:NEAR
; Function compile flags: /Ogsy
;	COMDAT ?_M_create_node@?$list@GV?$allocator@G@_STL@@@_STL@@IAEPAU?$_List_node@G@2@ABG@Z
_TEXT	SEGMENT
___x$ = 8						; size = 4
?_M_create_node@?$list@GV?$allocator@G@_STL@@@_STL@@IAEPAU?$_List_node@G@2@ABG@Z PROC NEAR ; _STL::list<unsigned short,_STL::allocator<unsigned short> >::_M_create_node, COMDAT
; _this$ = ecx

; 241  :     _Node* __p = this->_M_node.allocate(1);

  00000	6a 0c		 push	 12			; 0000000cH
  00002	e8 00 00 00 00	 call	 ?allocate@?$__node_alloc@$00$0A@@_STL@@SAPAXI@Z ; _STL::__node_alloc<1,0>::allocate
  00007	59		 pop	 ecx

; 242  :     _STLP_TRY {
; 243  :       _Construct(&__p->_M_data, __x);

  00008	8d 48 08	 lea	 ecx, DWORD PTR [eax+8]
  0000b	85 c9		 test	 ecx, ecx
  0000d	74 0a		 je	 SHORT $L102676
  0000f	8b 54 24 04	 mov	 edx, DWORD PTR ___x$[esp-4]
  00013	66 8b 12	 mov	 dx, WORD PTR [edx]
  00016	66 89 11	 mov	 WORD PTR [ecx], dx
$L102676:

; 244  :     }
; 245  :     _STLP_UNWIND(this->_M_node.deallocate(__p, 1));
; 246  :     return __p;
; 247  :   }

  00019	c2 04 00	 ret	 4
?_M_create_node@?$list@GV?$allocator@G@_STL@@@_STL@@IAEPAU?$_List_node@G@2@ABG@Z ENDP ; _STL::list<unsigned short,_STL::allocator<unsigned short> >::_M_create_node
_TEXT	ENDS
PUBLIC	??$distance@U?$_List_iterator@GU?$_Const_traits@G@_STL@@@_STL@@@_STL@@YAHABU?$_List_iterator@GU?$_Const_traits@G@_STL@@@0@0@Z ; _STL::distance<_STL::_List_iterator<unsigned short,_STL::_Const_traits<unsigned short> > >
; Function compile flags: /Ogsy
; File c:\stlport-4.6.1\stlport\stl\_iterator_base.h
;	COMDAT ??$distance@U?$_List_iterator@GU?$_Const_traits@G@_STL@@@_STL@@@_STL@@YAHABU?$_List_iterator@GU?$_Const_traits@G@_STL@@@0@0@Z
_TEXT	SEGMENT
___first$ = 8						; size = 4
___last$ = 12						; size = 4
??$distance@U?$_List_iterator@GU?$_Const_traits@G@_STL@@@_STL@@@_STL@@YAHABU?$_List_iterator@GU?$_Const_traits@G@_STL@@@0@0@Z PROC NEAR ; _STL::distance<_STL::_List_iterator<unsigned short,_STL::_Const_traits<unsigned short> > >, COMDAT

; 369  :   return __distance(__first, __last, _STLP_ITERATOR_CATEGORY(__first, _InputIterator));  

  00000	8b 54 24 08	 mov	 edx, DWORD PTR ___last$[esp-4]
  00004	8b 4c 24 04	 mov	 ecx, DWORD PTR ___first$[esp-4]
  00008	8b 12		 mov	 edx, DWORD PTR [edx]
  0000a	33 c0		 xor	 eax, eax
  0000c	eb 01		 jmp	 SHORT $L102716
$L102711:
  0000e	40		 inc	 eax
$L102716:
  0000f	8b 09		 mov	 ecx, DWORD PTR [ecx]
  00011	3b ca		 cmp	 ecx, edx
  00013	75 f9		 jne	 SHORT $L102711

; 370  : }

  00015	c3		 ret	 0
??$distance@U?$_List_iterator@GU?$_Const_traits@G@_STL@@@_STL@@@_STL@@YAHABU?$_List_iterator@GU?$_Const_traits@G@_STL@@@0@0@Z ENDP ; _STL::distance<_STL::_List_iterator<unsigned short,_STL::_Const_traits<unsigned short> > >
_TEXT	ENDS
PUBLIC	?_M_deallocate_block@?$_String_base@DV?$allocator@D@_STL@@@_STL@@QAEXXZ ; _STL::_String_base<char,_STL::allocator<char> >::_M_deallocate_block
; Function compile flags: /Ogsy
; File c:\stlport-4.6.1\stlport\stl\_string.h
;	COMDAT ?_M_deallocate_block@?$_String_base@DV?$allocator@D@_STL@@@_STL@@QAEXXZ
_TEXT	SEGMENT
?_M_deallocate_block@?$_String_base@DV?$allocator@D@_STL@@@_STL@@QAEXXZ PROC NEAR ; _STL::_String_base<char,_STL::allocator<char> >::_M_deallocate_block, COMDAT
; _this$ = ecx

; 124  :     { _M_end_of_storage.deallocate(_M_start, _M_end_of_storage._M_data - _M_start); }

  00000	8b c1		 mov	 eax, ecx
  00002	8d 48 08	 lea	 ecx, DWORD PTR [eax+8]
  00005	8b 00		 mov	 eax, DWORD PTR [eax]
  00007	8b 11		 mov	 edx, DWORD PTR [ecx]
  00009	2b d0		 sub	 edx, eax
  0000b	52		 push	 edx
  0000c	50		 push	 eax
  0000d	e8 00 00 00 00	 call	 ?deallocate@?$allocator@D@_STL@@QAEXPADI@Z ; _STL::allocator<char>::deallocate
  00012	c3		 ret	 0
?_M_deallocate_block@?$_String_base@DV?$allocator@D@_STL@@@_STL@@QAEXXZ ENDP ; _STL::_String_base<char,_STL::allocator<char> >::_M_deallocate_block
_TEXT	ENDS
PUBLIC	??0?$list@GV?$allocator@G@_STL@@@_STL@@QAE@ABV?$allocator@G@1@@Z ; _STL::list<unsigned short,_STL::allocator<unsigned short> >::list<unsigned short,_STL::allocator<unsigned short> >
; Function compile flags: /Ogsy
; File c:\stlport-4.6.1\stlport\stl\_list.h
;	COMDAT ??0?$list@GV?$allocator@G@_STL@@@_STL@@QAE@ABV?$allocator@G@1@@Z
_TEXT	SEGMENT
___a$ = 8						; size = 4
??0?$list@GV?$allocator@G@_STL@@@_STL@@QAE@ABV?$allocator@G@1@@Z PROC NEAR ; _STL::list<unsigned short,_STL::allocator<unsigned short> >::list<unsigned short,_STL::allocator<unsigned short> >, COMDAT
; _this$ = ecx

; 264  :     _List_base<_Tp, _Alloc>(__a) {}

  00000	56		 push	 esi
  00001	ff 74 24 08	 push	 DWORD PTR ___a$[esp]
  00005	8b f1		 mov	 esi, ecx
  00007	e8 00 00 00 00	 call	 ??0?$_List_base@GV?$allocator@G@_STL@@@_STL@@QAE@ABV?$allocator@G@1@@Z ; _STL::_List_base<unsigned short,_STL::allocator<unsigned short> >::_List_base<unsigned short,_STL::allocator<unsigned short> >
  0000c	8b c6		 mov	 eax, esi
  0000e	5e		 pop	 esi
  0000f	c2 04 00	 ret	 4
??0?$list@GV?$allocator@G@_STL@@@_STL@@QAE@ABV?$allocator@G@1@@Z ENDP ; _STL::list<unsigned short,_STL::allocator<unsigned short> >::list<unsigned short,_STL::allocator<unsigned short> >
_TEXT	ENDS
PUBLIC	?size@?$list@GV?$allocator@G@_STL@@@_STL@@QBEIXZ ; _STL::list<unsigned short,_STL::allocator<unsigned short> >::size
; Function compile flags: /Ogsy
;	COMDAT ?size@?$list@GV?$allocator@G@_STL@@@_STL@@QBEIXZ
_TEXT	SEGMENT
?size@?$list@GV?$allocator@G@_STL@@@_STL@@QBEIXZ PROC NEAR ; _STL::list<unsigned short,_STL::allocator<unsigned short> >::size, COMDAT
; _this$ = ecx

; 284  :     size_type __result = distance(begin(), end());

  00000	8b 11		 mov	 edx, DWORD PTR [ecx]
  00002	8b 0a		 mov	 ecx, DWORD PTR [edx]
  00004	33 c0		 xor	 eax, eax
  00006	eb 03		 jmp	 SHORT $L102804
$L102800:
  00008	8b 09		 mov	 ecx, DWORD PTR [ecx]
  0000a	40		 inc	 eax
$L102804:
  0000b	3b ca		 cmp	 ecx, edx
  0000d	75 f9		 jne	 SHORT $L102800

; 285  :     return __result;
; 286  :   }

  0000f	c3		 ret	 0
?size@?$list@GV?$allocator@G@_STL@@@_STL@@QBEIXZ ENDP	; _STL::list<unsigned short,_STL::allocator<unsigned short> >::size
_TEXT	ENDS
PUBLIC	??1?$list@GV?$allocator@G@_STL@@@_STL@@QAE@XZ	; _STL::list<unsigned short,_STL::allocator<unsigned short> >::~list<unsigned short,_STL::allocator<unsigned short> >
; Function compile flags: /Ogsy
;	COMDAT ??1?$list@GV?$allocator@G@_STL@@@_STL@@QAE@XZ
_TEXT	SEGMENT
??1?$list@GV?$allocator@G@_STL@@@_STL@@QAE@XZ PROC NEAR	; _STL::list<unsigned short,_STL::allocator<unsigned short> >::~list<unsigned short,_STL::allocator<unsigned short> >, COMDAT
; _this$ = ecx

; 416  :   ~list() { }

  00000	e9 00 00 00 00	 jmp	 ??1?$_List_base@GV?$allocator@G@_STL@@@_STL@@QAE@XZ ; _STL::_List_base<unsigned short,_STL::allocator<unsigned short> >::~_List_base<unsigned short,_STL::allocator<unsigned short> >
??1?$list@GV?$allocator@G@_STL@@@_STL@@QAE@XZ ENDP	; _STL::list<unsigned short,_STL::allocator<unsigned short> >::~list<unsigned short,_STL::allocator<unsigned short> >
_TEXT	ENDS
PUBLIC	?insert@?$list@GV?$allocator@G@_STL@@@_STL@@QAE?AU?$_List_iterator@GU?$_Nonconst_traits@G@_STL@@@2@U32@ABG@Z ; _STL::list<unsigned short,_STL::allocator<unsigned short> >::insert
; Function compile flags: /Ogsy
;	COMDAT ?insert@?$list@GV?$allocator@G@_STL@@@_STL@@QAE?AU?$_List_iterator@GU?$_Nonconst_traits@G@_STL@@@2@U32@ABG@Z
_TEXT	SEGMENT
___$ReturnUdt$ = 8					; size = 4
___position$ = 12					; size = 4
___x$ = 16						; size = 4
?insert@?$list@GV?$allocator@G@_STL@@@_STL@@QAE?AU?$_List_iterator@GU?$_Nonconst_traits@G@_STL@@@2@U32@ABG@Z PROC NEAR ; _STL::list<unsigned short,_STL::allocator<unsigned short> >::insert, COMDAT
; _this$ = ecx

; 299  : 
; 300  :     _Node* __tmp = _M_create_node(__x);

  00000	ff 74 24 0c	 push	 DWORD PTR ___x$[esp-4]
  00004	e8 00 00 00 00	 call	 ?_M_create_node@?$list@GV?$allocator@G@_STL@@@_STL@@IAEPAU?$_List_node@G@2@ABG@Z ; _STL::list<unsigned short,_STL::allocator<unsigned short> >::_M_create_node

; 301  :     _List_node_base* __n = __position._M_node;
; 302  :     _List_node_base* __p = __n->_M_prev;

  00009	8b 4c 24 08	 mov	 ecx, DWORD PTR ___position$[esp-4]
  0000d	8b 51 04	 mov	 edx, DWORD PTR [ecx+4]

; 303  :     __tmp->_M_next = __n;

  00010	89 08		 mov	 DWORD PTR [eax], ecx

; 304  :     __tmp->_M_prev = __p;

  00012	89 50 04	 mov	 DWORD PTR [eax+4], edx

; 305  :     __p->_M_next = __tmp;

  00015	89 02		 mov	 DWORD PTR [edx], eax

; 306  :     __n->_M_prev = __tmp;

  00017	89 41 04	 mov	 DWORD PTR [ecx+4], eax

; 307  :     return __tmp;

  0001a	8b 4c 24 04	 mov	 ecx, DWORD PTR ___$ReturnUdt$[esp-4]
  0001e	89 01		 mov	 DWORD PTR [ecx], eax
  00020	8b c1		 mov	 eax, ecx

; 308  :   }

  00022	c2 0c 00	 ret	 12			; 0000000cH
?insert@?$list@GV?$allocator@G@_STL@@@_STL@@QAE?AU?$_List_iterator@GU?$_Nonconst_traits@G@_STL@@@2@U32@ABG@Z ENDP ; _STL::list<unsigned short,_STL::allocator<unsigned short> >::insert
_TEXT	ENDS
PUBLIC	??1?$_String_base@DV?$allocator@D@_STL@@@_STL@@QAE@XZ ; _STL::_String_base<char,_STL::allocator<char> >::~_String_base<char,_STL::allocator<char> >
; Function compile flags: /Ogsy
; File c:\stlport-4.6.1\stlport\stl\_string.h
;	COMDAT ??1?$_String_base@DV?$allocator@D@_STL@@@_STL@@QAE@XZ
_TEXT	SEGMENT
??1?$_String_base@DV?$allocator@D@_STL@@@_STL@@QAE@XZ PROC NEAR ; _STL::_String_base<char,_STL::allocator<char> >::~_String_base<char,_STL::allocator<char> >, COMDAT
; _this$ = ecx

; 135  :   ~_String_base() { _M_deallocate_block(); }

  00000	e9 00 00 00 00	 jmp	 ?_M_deallocate_block@?$_String_base@DV?$allocator@D@_STL@@@_STL@@QAEXXZ ; _STL::_String_base<char,_STL::allocator<char> >::_M_deallocate_block
??1?$_String_base@DV?$allocator@D@_STL@@@_STL@@QAE@XZ ENDP ; _STL::_String_base<char,_STL::allocator<char> >::~_String_base<char,_STL::allocator<char> >
_TEXT	ENDS
PUBLIC	??0?$basic_string@DV?$char_traits@D@_STL@@V?$allocator@D@2@@_STL@@QAE@XZ ; _STL::basic_string<char,_STL::char_traits<char>,_STL::allocator<char> >::basic_string<char,_STL::char_traits<char>,_STL::allocator<char> >
EXTRN	__EH_prolog:NEAR
EXTRN	__except_list:DWORD
EXTRN	___CxxFrameHandler:NEAR
;	COMDAT xdata$x
xdata$x	SEGMENT
$T102874 DD	0ffffffffH
	DD	FLAT:$L102827
$T102870 DD	019930520H
	DD	01H
	DD	FLAT:$T102874
	DD	2 DUP(00H)
	DD	2 DUP(00H)
; Function compile flags: /Ogsy
; File c:\stlport-4.6.1\stlport\stl\_string.c
xdata$x	ENDS
;	COMDAT ??0?$basic_string@DV?$char_traits@D@_STL@@V?$allocator@D@2@@_STL@@QAE@XZ
_TEXT	SEGMENT
_this$ = -20						; size = 4
$T102826 = -13						; size = 1
__$EHRec$ = -12						; size = 12
??0?$basic_string@DV?$char_traits@D@_STL@@V?$allocator@D@2@@_STL@@QAE@XZ PROC NEAR ; _STL::basic_string<char,_STL::char_traits<char>,_STL::allocator<char> >::basic_string<char,_STL::char_traits<char>,_STL::allocator<char> >, COMDAT
; _this$ = ecx

; 541  :   : _String_base<_CharT,_Alloc>(allocator_type()) {  

  00000	b8 00 00 00 00	 mov	 eax, __ehhandler$??0?$basic_string@DV?$char_traits@D@_STL@@V?$allocator@D@2@@_STL@@QAE@XZ
  00005	e8 00 00 00 00	 call	 __EH_prolog
  0000a	51		 push	 ecx
  0000b	51		 push	 ecx
  0000c	56		 push	 esi
  0000d	8d 45 f3	 lea	 eax, DWORD PTR $T102826[ebp]
  00010	8b f1		 mov	 esi, ecx
  00012	50		 push	 eax
  00013	89 75 ec	 mov	 DWORD PTR _this$[ebp], esi
  00016	e8 00 00 00 00	 call	 ??0?$_String_base@DV?$allocator@D@_STL@@@_STL@@QAE@ABV?$allocator@D@1@@Z ; _STL::_String_base<char,_STL::allocator<char> >::_String_base<char,_STL::allocator<char> >
  0001b	83 65 fc 00	 and	 DWORD PTR __$EHRec$[ebp+8], 0

; 542  :   this->_M_start = this->_M_end_of_storage.allocate(8); 

  0001f	6a 08		 push	 8
  00021	e8 00 00 00 00	 call	 ?_M_allocate@?$__node_alloc@$00$0A@@_STL@@CAPAXI@Z ; _STL::__node_alloc<1,0>::_M_allocate
  00026	59		 pop	 ecx

; 543  :   this->_M_finish = this->_M_start; 
; 544  :   this->_M_end_of_storage._M_data = this->_M_start + 8; 

  00027	8d 48 08	 lea	 ecx, DWORD PTR [eax+8]
  0002a	89 06		 mov	 DWORD PTR [esi], eax
  0002c	89 46 04	 mov	 DWORD PTR [esi+4], eax
  0002f	89 4e 08	 mov	 DWORD PTR [esi+8], ecx

; 545  :   _M_terminate_string();  
; 546  : } 

  00032	8b 4d f4	 mov	 ecx, DWORD PTR __$EHRec$[ebp]
  00035	c6 00 00	 mov	 BYTE PTR [eax], 0
  00038	8b c6		 mov	 eax, esi
  0003a	5e		 pop	 esi
  0003b	64 89 0d 00 00
	00 00		 mov	 DWORD PTR fs:__except_list, ecx
  00042	c9		 leave
  00043	c3		 ret	 0
_TEXT	ENDS
;	COMDAT text$x
text$x	SEGMENT
$L102827:
  00000	8b 4d ec	 mov	 ecx, DWORD PTR _this$[ebp]
  00003	e9 00 00 00 00	 jmp	 ??1?$_String_base@DV?$allocator@D@_STL@@@_STL@@QAE@XZ ; _STL::_String_base<char,_STL::allocator<char> >::~_String_base<char,_STL::allocator<char> >
__ehhandler$??0?$basic_string@DV?$char_traits@D@_STL@@V?$allocator@D@2@@_STL@@QAE@XZ:
  00008	b8 00 00 00 00	 mov	 eax, OFFSET FLAT:$T102870
  0000d	e9 00 00 00 00	 jmp	 ___CxxFrameHandler
text$x	ENDS
??0?$basic_string@DV?$char_traits@D@_STL@@V?$allocator@D@2@@_STL@@QAE@XZ ENDP ; _STL::basic_string<char,_STL::char_traits<char>,_STL::allocator<char> >::basic_string<char,_STL::char_traits<char>,_STL::allocator<char> >
PUBLIC	?write@PetInfo@@UBEXAAVSocketOutputStream@@@Z	; PetInfo::write
; Function compile flags: /Ogsy
; File c:\darkeden\designed_common\project\client\packet\petinfo.cpp
;	COMDAT ?write@PetInfo@@UBEXAAVSocketOutputStream@@@Z
_TEXT	SEGMENT
$T102887 = -4						; size = 1
$T103299 = 8						; size = 2
$T103131 = 8						; size = 2
$T102967 = 8						; size = 2
$T102891 = 8						; size = 2
$T102903 = 8						; size = 2
$T102915 = 8						; size = 2
$T102919 = 8						; size = 2
$T102923 = 8						; size = 2
$T102927 = 8						; size = 2
$T102963 = 8						; size = 4
$T102959 = 8						; size = 4
$T102955 = 8						; size = 4
$T102899 = 8						; size = 4
_oStream$ = 8						; size = 4
$T103248 = 11						; size = 1
$T103080 = 11						; size = 1
$T103135 = 11						; size = 1
$T102951 = 11						; size = 1
$T102943 = 11						; size = 1
$T102939 = 11						; size = 1
$T102935 = 11						; size = 1
$T102931 = 11						; size = 1
$T102911 = 11						; size = 1
$T102907 = 11						; size = 1
$T102895 = 11						; size = 1
?write@PetInfo@@UBEXAAVSocketOutputStream@@@Z PROC NEAR	; PetInfo::write, COMDAT
; _this$ = ecx

; 114  : {

  00000	55		 push	 ebp
  00001	8b ec		 mov	 ebp, esp
  00003	51		 push	 ecx
  00004	53		 push	 ebx
  00005	56		 push	 esi
  00006	8b f1		 mov	 esi, ecx

; 115  : 	__BEGIN_TRY
; 116  : 
; 117  : 	oStream.write( m_PetType );

  00008	8a 46 04	 mov	 al, BYTE PTR [esi+4]
  0000b	57		 push	 edi
  0000c	8b 7d 08	 mov	 edi, DWORD PTR _oStream$[ebp]
  0000f	33 db		 xor	 ebx, ebx
  00011	88 45 fc	 mov	 BYTE PTR $T102887[ebp], al
  00014	43		 inc	 ebx
  00015	53		 push	 ebx
  00016	8d 45 fc	 lea	 eax, DWORD PTR $T102887[ebp]
  00019	50		 push	 eax
  0001a	8b cf		 mov	 ecx, edi
  0001c	e8 00 00 00 00	 call	 ?write@SocketOutputStream@@QAEIPBDI@Z ; SocketOutputStream::write

; 118  : 
; 119  : 	if ( m_PetType == PET_NONE ) return;

  00021	80 7e 04 00	 cmp	 BYTE PTR [esi+4], 0
  00025	0f 84 26 02 00
	00		 je	 $L101183

; 120  : 
; 121  : 	oStream.write( m_PetCreatureType );

  0002b	33 c0		 xor	 eax, eax
  0002d	66 8b 46 06	 mov	 ax, WORD PTR [esi+6]
  00031	6a 02		 push	 2
  00033	8b cf		 mov	 ecx, edi
  00035	89 45 08	 mov	 DWORD PTR $T102891[ebp], eax
  00038	8d 45 08	 lea	 eax, DWORD PTR $T102891[ebp]
  0003b	50		 push	 eax
  0003c	e8 00 00 00 00	 call	 ?write@SocketOutputStream@@QAEIPBDI@Z ; SocketOutputStream::write

; 122  : 	oStream.write( m_PetLevel );

  00041	8a 46 08	 mov	 al, BYTE PTR [esi+8]
  00044	88 45 0b	 mov	 BYTE PTR $T102895[ebp], al
  00047	53		 push	 ebx
  00048	8d 45 0b	 lea	 eax, DWORD PTR $T102895[ebp]
  0004b	50		 push	 eax
  0004c	8b cf		 mov	 ecx, edi
  0004e	e8 00 00 00 00	 call	 ?write@SocketOutputStream@@QAEIPBDI@Z ; SocketOutputStream::write

; 123  : 	oStream.write( m_PetExp );

  00053	8b 46 0c	 mov	 eax, DWORD PTR [esi+12]
  00056	89 45 08	 mov	 DWORD PTR $T102899[ebp], eax
  00059	6a 04		 push	 4
  0005b	8d 45 08	 lea	 eax, DWORD PTR $T102899[ebp]
  0005e	50		 push	 eax
  0005f	8b cf		 mov	 ecx, edi
  00061	e8 00 00 00 00	 call	 ?write@SocketOutputStream@@QAEIPBDI@Z ; SocketOutputStream::write

; 124  : 
; 125  : 	oStream.write( m_PetHP );

  00066	33 c0		 xor	 eax, eax
  00068	66 8b 46 10	 mov	 ax, WORD PTR [esi+16]
  0006c	6a 02		 push	 2
  0006e	8b cf		 mov	 ecx, edi
  00070	89 45 08	 mov	 DWORD PTR $T102903[ebp], eax
  00073	8d 45 08	 lea	 eax, DWORD PTR $T102903[ebp]
  00076	50		 push	 eax
  00077	e8 00 00 00 00	 call	 ?write@SocketOutputStream@@QAEIPBDI@Z ; SocketOutputStream::write

; 126  : 	oStream.write( m_PetAttr );

  0007c	8a 46 12	 mov	 al, BYTE PTR [esi+18]
  0007f	88 45 0b	 mov	 BYTE PTR $T102907[ebp], al
  00082	53		 push	 ebx
  00083	8d 45 0b	 lea	 eax, DWORD PTR $T102907[ebp]
  00086	50		 push	 eax
  00087	8b cf		 mov	 ecx, edi
  00089	e8 00 00 00 00	 call	 ?write@SocketOutputStream@@QAEIPBDI@Z ; SocketOutputStream::write

; 127  : 	oStream.write( m_PetAttrLevel );

  0008e	8a 46 13	 mov	 al, BYTE PTR [esi+19]
  00091	88 45 0b	 mov	 BYTE PTR $T102911[ebp], al
  00094	53		 push	 ebx
  00095	8d 45 0b	 lea	 eax, DWORD PTR $T102911[ebp]
  00098	50		 push	 eax
  00099	8b cf		 mov	 ecx, edi
  0009b	e8 00 00 00 00	 call	 ?write@SocketOutputStream@@QAEIPBDI@Z ; SocketOutputStream::write

; 128  : 	oStream.write( m_PetOption );

  000a0	33 c0		 xor	 eax, eax
  000a2	66 8b 46 14	 mov	 ax, WORD PTR [esi+20]
  000a6	6a 02		 push	 2
  000a8	8b cf		 mov	 ecx, edi
  000aa	89 45 08	 mov	 DWORD PTR $T102915[ebp], eax
  000ad	8d 45 08	 lea	 eax, DWORD PTR $T102915[ebp]
  000b0	50		 push	 eax
  000b1	e8 00 00 00 00	 call	 ?write@SocketOutputStream@@QAEIPBDI@Z ; SocketOutputStream::write

; 129  : #if __CONTENTS(__PET_VISION_AMPLE)
; 130  : 	oStream.write( m_PetOption2 );

  000b6	33 c0		 xor	 eax, eax
  000b8	66 8b 46 16	 mov	 ax, WORD PTR [esi+22]
  000bc	6a 02		 push	 2
  000be	8b cf		 mov	 ecx, edi
  000c0	89 45 08	 mov	 DWORD PTR $T102919[ebp], eax
  000c3	8d 45 08	 lea	 eax, DWORD PTR $T102919[ebp]
  000c6	50		 push	 eax
  000c7	e8 00 00 00 00	 call	 ?write@SocketOutputStream@@QAEIPBDI@Z ; SocketOutputStream::write

; 131  : 	oStream.write( m_PetOption3 );

  000cc	33 c0		 xor	 eax, eax
  000ce	66 8b 46 18	 mov	 ax, WORD PTR [esi+24]
  000d2	6a 02		 push	 2
  000d4	8b cf		 mov	 ecx, edi
  000d6	89 45 08	 mov	 DWORD PTR $T102923[ebp], eax
  000d9	8d 45 08	 lea	 eax, DWORD PTR $T102923[ebp]
  000dc	50		 push	 eax
  000dd	e8 00 00 00 00	 call	 ?write@SocketOutputStream@@QAEIPBDI@Z ; SocketOutputStream::write

; 132  : #endif //__PET_VISION_AMPLE
; 133  : 	oStream.write( m_PetFoodType );

  000e2	33 c0		 xor	 eax, eax
  000e4	66 8b 46 20	 mov	 ax, WORD PTR [esi+32]
  000e8	6a 02		 push	 2
  000ea	8b cf		 mov	 ecx, edi
  000ec	89 45 08	 mov	 DWORD PTR $T102927[ebp], eax
  000ef	8d 45 08	 lea	 eax, DWORD PTR $T102927[ebp]
  000f2	50		 push	 eax
  000f3	e8 00 00 00 00	 call	 ?write@SocketOutputStream@@QAEIPBDI@Z ; SocketOutputStream::write

; 134  : 
; 135  : 	oStream.write( m_CanGamble );

  000f8	8a 46 22	 mov	 al, BYTE PTR [esi+34]
  000fb	88 45 0b	 mov	 BYTE PTR $T102931[ebp], al
  000fe	53		 push	 ebx
  000ff	8d 45 0b	 lea	 eax, DWORD PTR $T102931[ebp]
  00102	50		 push	 eax
  00103	8b cf		 mov	 ecx, edi
  00105	e8 00 00 00 00	 call	 ?write@SocketOutputStream@@QAEIPBDI@Z ; SocketOutputStream::write

; 136  : 	oStream.write( m_CanCutHead );

  0010a	8a 46 23	 mov	 al, BYTE PTR [esi+35]
  0010d	88 45 0b	 mov	 BYTE PTR $T102935[ebp], al
  00110	53		 push	 ebx
  00111	8d 45 0b	 lea	 eax, DWORD PTR $T102935[ebp]
  00114	50		 push	 eax
  00115	8b cf		 mov	 ecx, edi
  00117	e8 00 00 00 00	 call	 ?write@SocketOutputStream@@QAEIPBDI@Z ; SocketOutputStream::write

; 137  : 
; 138  : 	oStream.write( m_CanAttack );

  0011c	8a 46 24	 mov	 al, BYTE PTR [esi+36]
  0011f	88 45 0b	 mov	 BYTE PTR $T102939[ebp], al
  00122	53		 push	 ebx
  00123	8d 45 0b	 lea	 eax, DWORD PTR $T102939[ebp]
  00126	50		 push	 eax
  00127	8b cf		 mov	 ecx, edi
  00129	e8 00 00 00 00	 call	 ?write@SocketOutputStream@@QAEIPBDI@Z ; SocketOutputStream::write

; 139  : 
; 140  : 	oStream.write( m_IsSummonInfo );

  0012e	8a 46 25	 mov	 al, BYTE PTR [esi+37]
  00131	88 45 0b	 mov	 BYTE PTR $T102943[ebp], al
  00134	53		 push	 ebx
  00135	8d 45 0b	 lea	 eax, DWORD PTR $T102943[ebp]
  00138	50		 push	 eax
  00139	8b cf		 mov	 ecx, edi
  0013b	e8 00 00 00 00	 call	 ?write@SocketOutputStream@@QAEIPBDI@Z ; SocketOutputStream::write

; 141  : 
; 142  : 	BYTE szSTR = m_Nickname.size();

  00140	8a 5e 30	 mov	 bl, BYTE PTR [esi+48]
  00143	2a 5e 2c	 sub	 bl, BYTE PTR [esi+44]

; 143  : 	oStream.write( szSTR );

  00146	6a 01		 push	 1
  00148	8d 45 0b	 lea	 eax, DWORD PTR $T102951[ebp]
  0014b	50		 push	 eax
  0014c	8b cf		 mov	 ecx, edi
  0014e	88 5d 0b	 mov	 BYTE PTR $T102951[ebp], bl
  00151	e8 00 00 00 00	 call	 ?write@SocketOutputStream@@QAEIPBDI@Z ; SocketOutputStream::write

; 144  : 	if ( szSTR != 0 ) oStream.write( m_Nickname );

  00156	84 db		 test	 bl, bl
  00158	74 0b		 je	 SHORT $L101122
  0015a	8d 46 2c	 lea	 eax, DWORD PTR [esi+44]
  0015d	50		 push	 eax
  0015e	8b cf		 mov	 ecx, edi
  00160	e8 00 00 00 00	 call	 ?write@SocketOutputStream@@QAEIABV?$basic_string@DV?$char_traits@D@_STL@@V?$allocator@D@2@@_STL@@@Z ; SocketOutputStream::write
$L101122:

; 145  : 
; 146  : 	ObjectID_t ItemObjectID = 0;
; 147  : #ifdef __GAME_SERVER__
; 148  : 	ItemObjectID = getItemObjectID();
; 149  : #endif
; 150  : 	oStream.write( ItemObjectID );

  00165	83 65 08 00	 and	 DWORD PTR $T102955[ebp], 0
  00169	6a 04		 push	 4
  0016b	8d 45 08	 lea	 eax, DWORD PTR $T102955[ebp]
  0016e	50		 push	 eax
  0016f	8b cf		 mov	 ecx, edi
  00171	e8 00 00 00 00	 call	 ?write@SocketOutputStream@@QAEIPBDI@Z ; SocketOutputStream::write

; 151  : 
; 152  : 	oStream.write( m_MagicRemainSec );

  00176	8b 46 38	 mov	 eax, DWORD PTR [esi+56]
  00179	89 45 08	 mov	 DWORD PTR $T102959[ebp], eax
  0017c	6a 04		 push	 4
  0017e	8d 45 08	 lea	 eax, DWORD PTR $T102959[ebp]
  00181	50		 push	 eax
  00182	8b cf		 mov	 ecx, edi
  00184	e8 00 00 00 00	 call	 ?write@SocketOutputStream@@QAEIPBDI@Z ; SocketOutputStream::write

; 153  : 
; 154  : #if __CONTENTS(__EXPERT_PET_CHANGER)
; 155  : 	oStream.write( m_ExpertPetChangerRemainSec );

  00189	8b 46 3c	 mov	 eax, DWORD PTR [esi+60]
  0018c	89 45 08	 mov	 DWORD PTR $T102963[ebp], eax
  0018f	6a 04		 push	 4
  00191	8d 45 08	 lea	 eax, DWORD PTR $T102963[ebp]
  00194	50		 push	 eax
  00195	8b cf		 mov	 ecx, edi
  00197	e8 00 00 00 00	 call	 ?write@SocketOutputStream@@QAEIPBDI@Z ; SocketOutputStream::write

; 156  : #endif //__EXPERT_PET_CHANGER
; 157  : 
; 158  : 	oStream.write( m_EnchantSkillType );

  0019c	33 c0		 xor	 eax, eax
  0019e	66 8b 46 40	 mov	 ax, WORD PTR [esi+64]
  001a2	6a 02		 push	 2
  001a4	8b cf		 mov	 ecx, edi
  001a6	89 45 08	 mov	 DWORD PTR $T102967[ebp], eax
  001a9	8d 45 08	 lea	 eax, DWORD PTR $T102967[ebp]
  001ac	50		 push	 eax
  001ad	e8 00 00 00 00	 call	 ?write@SocketOutputStream@@QAEIPBDI@Z ; SocketOutputStream::write

; 159  : 
; 160  : #if __CONTENTS(__NEW_PET_INCUBUS)
; 161  : //081203 wlzzi - OptionType
; 162  : 	BYTE optionSize = m_OptionType.size();

  001b2	8b 46 1c	 mov	 eax, DWORD PTR [esi+28]
  001b5	8b 08		 mov	 ecx, DWORD PTR [eax]
  001b7	33 d2		 xor	 edx, edx
  001b9	eb 03		 jmp	 SHORT $L103308
$L103065:
  001bb	8b 09		 mov	 ecx, DWORD PTR [ecx]
  001bd	42		 inc	 edx
$L103308:
  001be	3b c8		 cmp	 ecx, eax
  001c0	75 f9		 jne	 SHORT $L103065

; 163  : 	oStream.write( optionSize );

  001c2	6a 01		 push	 1
  001c4	8d 45 0b	 lea	 eax, DWORD PTR $T103080[ebp]
  001c7	50		 push	 eax
  001c8	8b cf		 mov	 ecx, edi
  001ca	88 55 0b	 mov	 BYTE PTR $T103080[ebp], dl
  001cd	e8 00 00 00 00	 call	 ?write@SocketOutputStream@@QAEIPBDI@Z ; SocketOutputStream::write

; 164  : 	std::list<OptionType_t>::const_iterator itr = m_OptionType.begin();

  001d2	8b 46 1c	 mov	 eax, DWORD PTR [esi+28]
  001d5	8b 18		 mov	 ebx, DWORD PTR [eax]

; 165  : 	for (; itr!=m_OptionType.end(); itr++)

  001d7	3b d8		 cmp	 ebx, eax
  001d9	74 1d		 je	 SHORT $L101173
$L103101:

; 166  : 	{
; 167  : 		OptionType_t optionType = *itr;
; 168  : 		oStream.write( optionType );

  001db	33 c0		 xor	 eax, eax
  001dd	66 8b 43 08	 mov	 ax, WORD PTR [ebx+8]
  001e1	6a 02		 push	 2
  001e3	8b cf		 mov	 ecx, edi
  001e5	89 45 08	 mov	 DWORD PTR $T103131[ebp], eax
  001e8	8d 45 08	 lea	 eax, DWORD PTR $T103131[ebp]
  001eb	50		 push	 eax
  001ec	e8 00 00 00 00	 call	 ?write@SocketOutputStream@@QAEIPBDI@Z ; SocketOutputStream::write
  001f1	8b 1b		 mov	 ebx, DWORD PTR [ebx]
  001f3	3b 5e 1c	 cmp	 ebx, DWORD PTR [esi+28]
  001f6	75 e3		 jne	 SHORT $L103101
$L101173:

; 169  : 	}
; 170  : //-	
; 171  : #endif //__NEW_PET_INCUBUS
; 172  : #if __CONTENTS(__FUNCTION_PETFOOD)
; 173  : 	oStream.write(m_Function_Petfood_Type);

  001f8	8a 46 42	 mov	 al, BYTE PTR [esi+66]
  001fb	88 45 0b	 mov	 BYTE PTR $T103135[ebp], al
  001fe	6a 01		 push	 1
  00200	8d 45 0b	 lea	 eax, DWORD PTR $T103135[ebp]
  00203	50		 push	 eax
  00204	8b cf		 mov	 ecx, edi
  00206	e8 00 00 00 00	 call	 ?write@SocketOutputStream@@QAEIPBDI@Z ; SocketOutputStream::write

; 174  : #endif //__FUNCTION_PETFOOD
; 175  : 
; 176  : 
; 177  : #if __CONTENTS(__PET_MIXINGFORGE)
; 178  : 	BYTE mixOptionSize = m_MixOptionType.size();

  0020b	8b 46 44	 mov	 eax, DWORD PTR [esi+68]
  0020e	8b 08		 mov	 ecx, DWORD PTR [eax]
  00210	33 d2		 xor	 edx, edx
  00212	eb 03		 jmp	 SHORT $L103309
$L103233:
  00214	8b 09		 mov	 ecx, DWORD PTR [ecx]
  00216	42		 inc	 edx
$L103309:
  00217	3b c8		 cmp	 ecx, eax
  00219	75 f9		 jne	 SHORT $L103233

; 179  : 	oStream.write( mixOptionSize );

  0021b	6a 01		 push	 1
  0021d	8d 45 0b	 lea	 eax, DWORD PTR $T103248[ebp]
  00220	50		 push	 eax
  00221	8b cf		 mov	 ecx, edi
  00223	88 55 0b	 mov	 BYTE PTR $T103248[ebp], dl
  00226	e8 00 00 00 00	 call	 ?write@SocketOutputStream@@QAEIPBDI@Z ; SocketOutputStream::write

; 180  : 	std::list<OptionType_t>::const_iterator mixitr = m_MixOptionType.begin();

  0022b	8b 46 44	 mov	 eax, DWORD PTR [esi+68]
  0022e	8b 18		 mov	 ebx, DWORD PTR [eax]

; 181  : 	for (; mixitr!=m_MixOptionType.end(); mixitr++)

  00230	3b d8		 cmp	 ebx, eax
  00232	74 1d		 je	 SHORT $L101183
$L103269:

; 182  : 	{
; 183  : 		OptionType_t mixOptionType = *mixitr;
; 184  : 		oStream.write( mixOptionType );

  00234	33 c0		 xor	 eax, eax
  00236	66 8b 43 08	 mov	 ax, WORD PTR [ebx+8]
  0023a	6a 02		 push	 2
  0023c	8b cf		 mov	 ecx, edi
  0023e	89 45 08	 mov	 DWORD PTR $T103299[ebp], eax
  00241	8d 45 08	 lea	 eax, DWORD PTR $T103299[ebp]
  00244	50		 push	 eax
  00245	e8 00 00 00 00	 call	 ?write@SocketOutputStream@@QAEIPBDI@Z ; SocketOutputStream::write
  0024a	8b 1b		 mov	 ebx, DWORD PTR [ebx]
  0024c	3b 5e 44	 cmp	 ebx, DWORD PTR [esi+68]
  0024f	75 e3		 jne	 SHORT $L103269
$L101183:
  00251	5f		 pop	 edi
  00252	5e		 pop	 esi
  00253	5b		 pop	 ebx

; 185  : 	}
; 186  : #endif //__PET_MIXINGFORGE
; 187  : 	__END_CATCH
; 188  : }

  00254	c9		 leave
  00255	c2 04 00	 ret	 4
?write@PetInfo@@UBEXAAVSocketOutputStream@@@Z ENDP	; PetInfo::write
_TEXT	ENDS
PUBLIC	?push_back@?$list@GV?$allocator@G@_STL@@@_STL@@QAEXABG@Z ; _STL::list<unsigned short,_STL::allocator<unsigned short> >::push_back
; Function compile flags: /Ogsy
; File c:\stlport-4.6.1\stlport\stl\_list.h
;	COMDAT ?push_back@?$list@GV?$allocator@G@_STL@@@_STL@@QAEXABG@Z
_TEXT	SEGMENT
$T103313 = 8						; size = 4
___x$ = 8						; size = 4
?push_back@?$list@GV?$allocator@G@_STL@@@_STL@@QAEXABG@Z PROC NEAR ; _STL::list<unsigned short,_STL::allocator<unsigned short> >::push_back, COMDAT
; _this$ = ecx

; 345  :   void push_back(const _Tp& __x) { insert(end(), __x); }

  00000	55		 push	 ebp
  00001	8b ec		 mov	 ebp, esp
  00003	ff 75 08	 push	 DWORD PTR ___x$[ebp]
  00006	8b 11		 mov	 edx, DWORD PTR [ecx]
  00008	51		 push	 ecx
  00009	8b c4		 mov	 eax, esp
  0000b	89 10		 mov	 DWORD PTR [eax], edx
  0000d	8d 45 08	 lea	 eax, DWORD PTR $T103313[ebp]
  00010	50		 push	 eax
  00011	e8 00 00 00 00	 call	 ?insert@?$list@GV?$allocator@G@_STL@@@_STL@@QAE?AU?$_List_iterator@GU?$_Nonconst_traits@G@_STL@@@2@U32@ABG@Z ; _STL::list<unsigned short,_STL::allocator<unsigned short> >::insert
  00016	5d		 pop	 ebp
  00017	c2 04 00	 ret	 4
?push_back@?$list@GV?$allocator@G@_STL@@@_STL@@QAEXABG@Z ENDP ; _STL::list<unsigned short,_STL::allocator<unsigned short> >::push_back
_TEXT	ENDS
PUBLIC	??1?$basic_string@DV?$char_traits@D@_STL@@V?$allocator@D@2@@_STL@@QAE@XZ ; _STL::basic_string<char,_STL::char_traits<char>,_STL::allocator<char> >::~basic_string<char,_STL::char_traits<char>,_STL::allocator<char> >
; Function compile flags: /Ogsy
; File c:\stlport-4.6.1\stlport\stl\_string.h
;	COMDAT ??1?$basic_string@DV?$char_traits@D@_STL@@V?$allocator@D@2@@_STL@@QAE@XZ
_TEXT	SEGMENT
??1?$basic_string@DV?$char_traits@D@_STL@@V?$allocator@D@2@@_STL@@QAE@XZ PROC NEAR ; _STL::basic_string<char,_STL::char_traits<char>,_STL::allocator<char> >::~basic_string<char,_STL::char_traits<char>,_STL::allocator<char> >, COMDAT
; _this$ = ecx

; 305  :   ~basic_string() { _STLP_STD::_Destroy(this->_M_start, this->_M_finish + 1); }

  00000	e9 00 00 00 00	 jmp	 ?_M_deallocate_block@?$_String_base@DV?$allocator@D@_STL@@@_STL@@QAEXXZ ; _STL::_String_base<char,_STL::allocator<char> >::_M_deallocate_block
??1?$basic_string@DV?$char_traits@D@_STL@@V?$allocator@D@2@@_STL@@QAE@XZ ENDP ; _STL::basic_string<char,_STL::char_traits<char>,_STL::allocator<char> >::~basic_string<char,_STL::char_traits<char>,_STL::allocator<char> >
_TEXT	ENDS
PUBLIC	??0PetInfo@@QAE@XZ				; PetInfo::PetInfo
PUBLIC	?read@PetInfo@@UAEXAAVSocketInputStream@@@Z	; PetInfo::read
PUBLIC	?getSize@PetInfo@@UBEIXZ			; PetInfo::getSize
PUBLIC	??_7PetInfo@@6B@				; PetInfo::`vftable'
PUBLIC	??_R4PetInfo@@6B@				; PetInfo::`RTTI Complete Object Locator'
PUBLIC	??_R0?AVPetInfo@@@8				; PetInfo `RTTI Type Descriptor'
PUBLIC	??_R3PetInfo@@8					; PetInfo::`RTTI Class Hierarchy Descriptor'
PUBLIC	??_R2PetInfo@@8					; PetInfo::`RTTI Base Class Array'
PUBLIC	??_R1A@?0A@A@PetInfo@@8				; PetInfo::`RTTI Base Class Descriptor at (0,-1,0,0)'
EXTRN	??_7type_info@@6B@:QWORD			; type_info::`vftable'
;	COMDAT xdata$x
; File c:\stlport-4.6.1\stlport\stl\_alloc.h
xdata$x	SEGMENT
$T103385 DD	0ffffffffH
	DD	FLAT:$L103357
	DD	00H
	DD	FLAT:$L103358
$T103383 DD	019930520H
	DD	02H
	DD	FLAT:$T103385
	DD	2 DUP(00H)
	DD	2 DUP(00H)
xdata$x	ENDS
;	COMDAT ??_7PetInfo@@6B@
CONST	SEGMENT
??_7PetInfo@@6B@ DD FLAT:??_R4PetInfo@@6B@		; PetInfo::`vftable'
	DD	FLAT:?read@PetInfo@@UAEXAAVSocketInputStream@@@Z
	DD	FLAT:?write@PetInfo@@UBEXAAVSocketOutputStream@@@Z
	DD	FLAT:?getSize@PetInfo@@UBEIXZ
CONST	ENDS
;	COMDAT ??_R4PetInfo@@6B@
rdata$r	SEGMENT
??_R4PetInfo@@6B@ DD 00H				; PetInfo::`RTTI Complete Object Locator'
	DD	00H
	DD	00H
	DD	FLAT:??_R0?AVPetInfo@@@8
	DD	FLAT:??_R3PetInfo@@8
rdata$r	ENDS
;	COMDAT ??_R0?AVPetInfo@@@8
_DATA	SEGMENT
??_R0?AVPetInfo@@@8 DD FLAT:??_7type_info@@6B@		; PetInfo `RTTI Type Descriptor'
	DD	00H
	DB	'.?AVPetInfo@@', 00H
_DATA	ENDS
;	COMDAT ??_R3PetInfo@@8
rdata$r	SEGMENT
??_R3PetInfo@@8 DD 00H					; PetInfo::`RTTI Class Hierarchy Descriptor'
	DD	00H
	DD	01H
	DD	FLAT:??_R2PetInfo@@8
rdata$r	ENDS
;	COMDAT ??_R2PetInfo@@8
rdata$r	SEGMENT
??_R2PetInfo@@8 DD FLAT:??_R1A@?0A@A@PetInfo@@8		; PetInfo::`RTTI Base Class Array'
rdata$r	ENDS
;	COMDAT ??_R1A@?0A@A@PetInfo@@8
rdata$r	SEGMENT
??_R1A@?0A@A@PetInfo@@8 DD FLAT:??_R0?AVPetInfo@@@8	; PetInfo::`RTTI Base Class Descriptor at (0,-1,0,0)'
	DD	00H
	DD	00H
	DD	0ffffffffH
	DD	00H
	DD	00H
; Function compile flags: /Ogsy
; File c:\darkeden\designed_common\project\client\packet\petinfo.cpp
rdata$r	ENDS
;	COMDAT ??0PetInfo@@QAE@XZ
_TEXT	SEGMENT
_this$ = -20						; size = 4
$T103356 = -13						; size = 1
$T103355 = -13						; size = 1
__$EHRec$ = -12						; size = 12
??0PetInfo@@QAE@XZ PROC NEAR				; PetInfo::PetInfo, COMDAT
; _this$ = ecx

; 6    : {

  00000	b8 00 00 00 00	 mov	 eax, __ehhandler$??0PetInfo@@QAE@XZ
  00005	e8 00 00 00 00	 call	 __EH_prolog
  0000a	51		 push	 ecx
  0000b	51		 push	 ecx
  0000c	53		 push	 ebx
  0000d	56		 push	 esi
  0000e	8b f1		 mov	 esi, ecx
  00010	8d 45 f3	 lea	 eax, DWORD PTR $T103355[ebp]
  00013	8d 4e 1c	 lea	 ecx, DWORD PTR [esi+28]
  00016	50		 push	 eax
  00017	89 75 ec	 mov	 DWORD PTR _this$[ebp], esi
  0001a	c7 06 00 00 00
	00		 mov	 DWORD PTR [esi], OFFSET FLAT:??_7PetInfo@@6B@
  00020	e8 00 00 00 00	 call	 ??0?$_List_base@GV?$allocator@G@_STL@@@_STL@@QAE@ABV?$allocator@G@1@@Z ; _STL::_List_base<unsigned short,_STL::allocator<unsigned short> >::_List_base<unsigned short,_STL::allocator<unsigned short> >
  00025	33 db		 xor	 ebx, ebx
  00027	8d 4e 2c	 lea	 ecx, DWORD PTR [esi+44]
  0002a	89 5d fc	 mov	 DWORD PTR __$EHRec$[ebp+8], ebx
  0002d	e8 00 00 00 00	 call	 ??0?$basic_string@DV?$char_traits@D@_STL@@V?$allocator@D@2@@_STL@@QAE@XZ ; _STL::basic_string<char,_STL::char_traits<char>,_STL::allocator<char> >::basic_string<char,_STL::char_traits<char>,_STL::allocator<char> >
  00032	8d 45 f3	 lea	 eax, DWORD PTR $T103356[ebp]
  00035	50		 push	 eax
  00036	8d 4e 44	 lea	 ecx, DWORD PTR [esi+68]
  00039	c6 45 fc 01	 mov	 BYTE PTR __$EHRec$[ebp+8], 1
  0003d	e8 00 00 00 00	 call	 ??0?$_List_base@GV?$allocator@G@_STL@@@_STL@@QAE@ABV?$allocator@G@1@@Z ; _STL::_List_base<unsigned short,_STL::allocator<unsigned short> >::_List_base<unsigned short,_STL::allocator<unsigned short> >

; 7    : 	m_PetType=PET_NONE;
; 8    : 	m_PetLevel=0;
; 9    : 	m_PetLevel=0;
; 10   : 	m_PetExp=0;
; 11   : 	m_PetHP=0;
; 12   : 	m_PetAttr=0;
; 13   : 	m_PetOption=0;
; 14   : #if __CONTENTS(__PET_VISION_AMPLE)
; 15   : 	m_PetOption2 = 0;
; 16   : 	m_PetOption3 = 0;
; 17   : #endif //__PET_VISION_AMPLE
; 18   : 	m_IsSummonInfo = 0;
; 19   : 
; 20   : 	m_CanCutHead = 0;
; 21   : 	m_CanAttack = 0;
; 22   : 	m_CanGamble = 0;
; 23   : 	m_petItemObjectID = 0;
; 24   : 
; 25   : 	m_EnchantSkillType = 0;
; 26   : #if __CONTENTS(__EXPERT_PET_CHANGER)
; 27   : 	m_MagicRemainSec = 0;
; 28   : 	m_ExpertPetChangerRemainSec = 0;
; 29   : #endif //__EXPERT_PET_CHANGER
; 30   : #if __CONTENTS(__FUNCTION_PETFOOD)
; 31   : 	m_Function_Petfood_Type = 0;
; 32   : #endif //__FUNCTION_PETFOOD
; 33   : 
; 34   : }

  00042	8b 4d f4	 mov	 ecx, DWORD PTR __$EHRec$[ebp]
  00045	88 5e 04	 mov	 BYTE PTR [esi+4], bl
  00048	88 5e 08	 mov	 BYTE PTR [esi+8], bl
  0004b	89 5e 0c	 mov	 DWORD PTR [esi+12], ebx
  0004e	66 89 5e 10	 mov	 WORD PTR [esi+16], bx
  00052	88 5e 12	 mov	 BYTE PTR [esi+18], bl
  00055	66 89 5e 14	 mov	 WORD PTR [esi+20], bx
  00059	66 89 5e 16	 mov	 WORD PTR [esi+22], bx
  0005d	66 89 5e 18	 mov	 WORD PTR [esi+24], bx
  00061	88 5e 25	 mov	 BYTE PTR [esi+37], bl
  00064	88 5e 23	 mov	 BYTE PTR [esi+35], bl
  00067	88 5e 24	 mov	 BYTE PTR [esi+36], bl
  0006a	88 5e 22	 mov	 BYTE PTR [esi+34], bl
  0006d	89 5e 28	 mov	 DWORD PTR [esi+40], ebx
  00070	66 89 5e 40	 mov	 WORD PTR [esi+64], bx
  00074	89 5e 38	 mov	 DWORD PTR [esi+56], ebx
  00077	89 5e 3c	 mov	 DWORD PTR [esi+60], ebx
  0007a	88 5e 42	 mov	 BYTE PTR [esi+66], bl
  0007d	8b c6		 mov	 eax, esi
  0007f	5e		 pop	 esi
  00080	5b		 pop	 ebx
  00081	64 89 0d 00 00
	00 00		 mov	 DWORD PTR fs:__except_list, ecx
  00088	c9		 leave
  00089	c3		 ret	 0
_TEXT	ENDS
;	COMDAT text$x
text$x	SEGMENT
$L103357:
  00000	8b 4d ec	 mov	 ecx, DWORD PTR _this$[ebp]
  00003	83 c1 1c	 add	 ecx, 28			; 0000001cH
  00006	e9 00 00 00 00	 jmp	 ??1?$list@GV?$allocator@G@_STL@@@_STL@@QAE@XZ ; _STL::list<unsigned short,_STL::allocator<unsigned short> >::~list<unsigned short,_STL::allocator<unsigned short> >
$L103358:
  0000b	8b 4d ec	 mov	 ecx, DWORD PTR _this$[ebp]
  0000e	83 c1 2c	 add	 ecx, 44			; 0000002cH
  00011	e9 00 00 00 00	 jmp	 ??1?$basic_string@DV?$char_traits@D@_STL@@V?$allocator@D@2@@_STL@@QAE@XZ ; _STL::basic_string<char,_STL::char_traits<char>,_STL::allocator<char> >::~basic_string<char,_STL::char_traits<char>,_STL::allocator<char> >
__ehhandler$??0PetInfo@@QAE@XZ:
  00016	b8 00 00 00 00	 mov	 eax, OFFSET FLAT:$T103383
  0001b	e9 00 00 00 00	 jmp	 ___CxxFrameHandler
text$x	ENDS
??0PetInfo@@QAE@XZ ENDP					; PetInfo::PetInfo
; Function compile flags: /Ogsy
; File c:\darkeden\designed_common\project\client\packet\petinfo.h
;	COMDAT ?getSize@PetInfo@@UBEIXZ
_TEXT	SEGMENT
?getSize@PetInfo@@UBEIXZ PROC NEAR			; PetInfo::getSize, COMDAT
; _this$ = ecx

; 27   : 		if ( m_PetType == PET_NONE ) return szPetType;

  00000	80 79 04 00	 cmp	 BYTE PTR [ecx+4], 0
  00004	75 04		 jne	 SHORT $L100910
  00006	33 c0		 xor	 eax, eax
  00008	40		 inc	 eax

; 48   : 				;
; 49   : //		else
; 50   : //			return szPetType + szMonsterType + szPetLevel + szPetExp + szPetAttr + szPetAttrLevel + szOptionType + szItemType + szObjectID;
; 51   : 	}

  00009	c3		 ret	 0
$L100910:

; 28   : 
; 29   : //		if ( type == MY_INFO )
; 30   : 			return szPetType + szMonsterType + szPetLevel + szPetExp + szPetHP + szPetAttr + szPetAttrLevel + szOptionType + szItemType + szBYTE + szBYTE + szBYTE + szBYTE + szObjectID + szBYTE + m_Nickname.size() + szint + szCEffectID
; 31   : #if __CONTENTS(__EXPERT_PET_CHANGER)
; 32   : 				+ szint
; 33   : #endif //__EXPERT_PET_CHANGER
; 34   : 	
; 35   : #if __CONTENTS(__NEW_PET_INCUBUS)
; 36   : 				+ szBYTE + m_OptionType.size() * szOptionType //081203 wlzzi - OptionType
; 37   : #endif //__NEW_PET_INCUBUS
; 38   : #if __CONTENTS(__PET_VISION_AMPLE)
; 39   : 				+szOptionType
; 40   : #endif //__PET_VISION_AMPLE
; 41   : #if __CONTENTS(__FUNCTION_PETFOOD)
; 42   : 				+ szBYTE
; 43   : #endif //__FUNCTION_PETFOOD
; 44   : #if __CONTENTS(__PET_MIXINGFORGE)
; 45   : 				+ szBYTE + m_MixOptionType.size() * szOptionType //mixOptionType
; 46   : #endif //__PET_MIXINGFORGE
; 47   : 			;

  0000a	8b 51 1c	 mov	 edx, DWORD PTR [ecx+28]
  0000d	8b 02		 mov	 eax, DWORD PTR [edx]
  0000f	56		 push	 esi
  00010	57		 push	 edi
  00011	33 ff		 xor	 edi, edi
  00013	eb 03		 jmp	 SHORT $L103616
$L103487:
  00015	8b 00		 mov	 eax, DWORD PTR [eax]
  00017	47		 inc	 edi
$L103616:
  00018	3b c2		 cmp	 eax, edx
  0001a	75 f9		 jne	 SHORT $L103487
  0001c	8b 51 44	 mov	 edx, DWORD PTR [ecx+68]
  0001f	8b 02		 mov	 eax, DWORD PTR [edx]
  00021	33 f6		 xor	 esi, esi
  00023	eb 03		 jmp	 SHORT $L103617
$L103606:
  00025	8b 00		 mov	 eax, DWORD PTR [eax]
  00027	46		 inc	 esi
$L103617:
  00028	3b c2		 cmp	 eax, edx
  0002a	75 f9		 jne	 SHORT $L103606
  0002c	8b 41 30	 mov	 eax, DWORD PTR [ecx+48]
  0002f	03 f7		 add	 esi, edi
  00031	8d 44 70 28	 lea	 eax, DWORD PTR [eax+esi*2+40]
  00035	2b 41 2c	 sub	 eax, DWORD PTR [ecx+44]
  00038	5f		 pop	 edi
  00039	5e		 pop	 esi

; 48   : 				;
; 49   : //		else
; 50   : //			return szPetType + szMonsterType + szPetLevel + szPetExp + szPetAttr + szPetAttrLevel + szOptionType + szItemType + szObjectID;
; 51   : 	}

  0003a	c3		 ret	 0
?getSize@PetInfo@@UBEIXZ ENDP				; PetInfo::getSize
_TEXT	ENDS
EXTRN	?read@SocketInputStream@@QAEIAAV?$basic_string@DV?$char_traits@D@_STL@@V?$allocator@D@2@@_STL@@I@Z:NEAR ; SocketInputStream::read
; Function compile flags: /Ogsy
; File c:\darkeden\designed_common\project\client\packet\petinfo.cpp
;	COMDAT ?read@PetInfo@@UAEXAAVSocketInputStream@@@Z
_TEXT	SEGMENT
_j$101103 = -12						; size = 4
_mixOptionType$101113 = -8				; size = 2
_optionType$101107 = -8					; size = 2
_mixOptionSize$ = -2					; size = 1
_optionSize$ = -1					; size = 1
_iStream$ = 8						; size = 4
_szSTR$ = 11						; size = 1
?read@PetInfo@@UAEXAAVSocketInputStream@@@Z PROC NEAR	; PetInfo::read, COMDAT
; _this$ = ecx

; 37   : {

  00000	55		 push	 ebp
  00001	8b ec		 mov	 ebp, esp
  00003	83 ec 0c	 sub	 esp, 12			; 0000000cH
  00006	53		 push	 ebx
  00007	56		 push	 esi
  00008	57		 push	 edi

; 38   : 	__BEGIN_TRY
; 39   : 
; 40   : 	iStream.read( m_PetType );

  00009	8b 7d 08	 mov	 edi, DWORD PTR _iStream$[ebp]
  0000c	8b f1		 mov	 esi, ecx
  0000e	33 db		 xor	 ebx, ebx
  00010	43		 inc	 ebx
  00011	8d 46 04	 lea	 eax, DWORD PTR [esi+4]
  00014	53		 push	 ebx
  00015	50		 push	 eax
  00016	8b cf		 mov	 ecx, edi
  00018	e8 00 00 00 00	 call	 ?read@SocketInputStream@@QAEIPADI@Z ; SocketInputStream::read

; 41   : 
; 42   : 	if ( m_PetType == PET_NONE ) return;

  0001d	80 7e 04 00	 cmp	 BYTE PTR [esi+4], 0
  00021	0f 84 92 01 00
	00		 je	 $L101112

; 43   : 
; 44   : 	iStream.read( m_PetCreatureType );

  00027	6a 02		 push	 2
  00029	8d 46 06	 lea	 eax, DWORD PTR [esi+6]
  0002c	50		 push	 eax
  0002d	8b cf		 mov	 ecx, edi
  0002f	e8 00 00 00 00	 call	 ?read@SocketInputStream@@QAEIPADI@Z ; SocketInputStream::read

; 45   : 	iStream.read( m_PetLevel );

  00034	53		 push	 ebx
  00035	8d 46 08	 lea	 eax, DWORD PTR [esi+8]
  00038	50		 push	 eax
  00039	8b cf		 mov	 ecx, edi
  0003b	e8 00 00 00 00	 call	 ?read@SocketInputStream@@QAEIPADI@Z ; SocketInputStream::read

; 46   : 	iStream.read( m_PetExp );

  00040	6a 04		 push	 4
  00042	8d 46 0c	 lea	 eax, DWORD PTR [esi+12]
  00045	50		 push	 eax
  00046	8b cf		 mov	 ecx, edi
  00048	e8 00 00 00 00	 call	 ?read@SocketInputStream@@QAEIPADI@Z ; SocketInputStream::read

; 47   : 
; 48   : 	iStream.read( m_PetHP );

  0004d	6a 02		 push	 2
  0004f	8d 46 10	 lea	 eax, DWORD PTR [esi+16]
  00052	50		 push	 eax
  00053	8b cf		 mov	 ecx, edi
  00055	e8 00 00 00 00	 call	 ?read@SocketInputStream@@QAEIPADI@Z ; SocketInputStream::read

; 49   : 	iStream.read( m_PetAttr );

  0005a	53		 push	 ebx
  0005b	8d 46 12	 lea	 eax, DWORD PTR [esi+18]
  0005e	50		 push	 eax
  0005f	8b cf		 mov	 ecx, edi
  00061	e8 00 00 00 00	 call	 ?read@SocketInputStream@@QAEIPADI@Z ; SocketInputStream::read

; 50   : 	iStream.read( m_PetAttrLevel );

  00066	53		 push	 ebx
  00067	8d 46 13	 lea	 eax, DWORD PTR [esi+19]
  0006a	50		 push	 eax
  0006b	8b cf		 mov	 ecx, edi
  0006d	e8 00 00 00 00	 call	 ?read@SocketInputStream@@QAEIPADI@Z ; SocketInputStream::read

; 51   : 	iStream.read( m_PetOption );

  00072	6a 02		 push	 2
  00074	8d 46 14	 lea	 eax, DWORD PTR [esi+20]
  00077	50		 push	 eax
  00078	8b cf		 mov	 ecx, edi
  0007a	e8 00 00 00 00	 call	 ?read@SocketInputStream@@QAEIPADI@Z ; SocketInputStream::read

; 52   : #if __CONTENTS(__PET_VISION_AMPLE)
; 53   : 	iStream.read( m_PetOption2 );

  0007f	6a 02		 push	 2
  00081	8d 46 16	 lea	 eax, DWORD PTR [esi+22]
  00084	50		 push	 eax
  00085	8b cf		 mov	 ecx, edi
  00087	e8 00 00 00 00	 call	 ?read@SocketInputStream@@QAEIPADI@Z ; SocketInputStream::read

; 54   : 	iStream.read( m_PetOption3 );

  0008c	6a 02		 push	 2
  0008e	8d 46 18	 lea	 eax, DWORD PTR [esi+24]
  00091	50		 push	 eax
  00092	8b cf		 mov	 ecx, edi
  00094	e8 00 00 00 00	 call	 ?read@SocketInputStream@@QAEIPADI@Z ; SocketInputStream::read

; 55   : #endif //__PET_VISION_AMPLE
; 56   : 	iStream.read( m_PetFoodType );

  00099	6a 02		 push	 2
  0009b	8d 46 20	 lea	 eax, DWORD PTR [esi+32]
  0009e	50		 push	 eax
  0009f	8b cf		 mov	 ecx, edi
  000a1	e8 00 00 00 00	 call	 ?read@SocketInputStream@@QAEIPADI@Z ; SocketInputStream::read

; 57   : 
; 58   : 	iStream.read( m_CanGamble );

  000a6	53		 push	 ebx
  000a7	8d 46 22	 lea	 eax, DWORD PTR [esi+34]
  000aa	50		 push	 eax
  000ab	8b cf		 mov	 ecx, edi
  000ad	e8 00 00 00 00	 call	 ?read@SocketInputStream@@QAEIPADI@Z ; SocketInputStream::read

; 59   : 	iStream.read( m_CanCutHead );

  000b2	53		 push	 ebx
  000b3	8d 46 23	 lea	 eax, DWORD PTR [esi+35]
  000b6	50		 push	 eax
  000b7	8b cf		 mov	 ecx, edi
  000b9	e8 00 00 00 00	 call	 ?read@SocketInputStream@@QAEIPADI@Z ; SocketInputStream::read

; 60   : 	
; 61   : 	iStream.read( m_CanAttack );

  000be	53		 push	 ebx
  000bf	8d 46 24	 lea	 eax, DWORD PTR [esi+36]
  000c2	50		 push	 eax
  000c3	8b cf		 mov	 ecx, edi
  000c5	e8 00 00 00 00	 call	 ?read@SocketInputStream@@QAEIPADI@Z ; SocketInputStream::read

; 62   : 
; 63   : 	iStream.read( m_IsSummonInfo );

  000ca	53		 push	 ebx
  000cb	8d 46 25	 lea	 eax, DWORD PTR [esi+37]
  000ce	50		 push	 eax
  000cf	8b cf		 mov	 ecx, edi
  000d1	e8 00 00 00 00	 call	 ?read@SocketInputStream@@QAEIPADI@Z ; SocketInputStream::read

; 64   : 		
; 65   : 	BYTE szSTR;
; 66   : 	iStream.read( szSTR );

  000d6	53		 push	 ebx
  000d7	8d 45 0b	 lea	 eax, DWORD PTR _szSTR$[ebp]
  000da	50		 push	 eax
  000db	8b cf		 mov	 ecx, edi
  000dd	e8 00 00 00 00	 call	 ?read@SocketInputStream@@QAEIPADI@Z ; SocketInputStream::read

; 67   : 	if ( szSTR != 0 ) iStream.read( m_Nickname, szSTR );

  000e2	80 7d 0b 00	 cmp	 BYTE PTR _szSTR$[ebp], 0
  000e6	74 10		 je	 SHORT $L101101
  000e8	0f b6 45 0b	 movzx	 eax, BYTE PTR _szSTR$[ebp]
  000ec	50		 push	 eax
  000ed	8d 46 2c	 lea	 eax, DWORD PTR [esi+44]
  000f0	50		 push	 eax
  000f1	8b cf		 mov	 ecx, edi
  000f3	e8 00 00 00 00	 call	 ?read@SocketInputStream@@QAEIAAV?$basic_string@DV?$char_traits@D@_STL@@V?$allocator@D@2@@_STL@@I@Z ; SocketInputStream::read
$L101101:

; 68   : 
; 69   : 	iStream.read( m_petItemObjectID );

  000f8	6a 04		 push	 4
  000fa	8d 46 28	 lea	 eax, DWORD PTR [esi+40]
  000fd	50		 push	 eax
  000fe	8b cf		 mov	 ecx, edi
  00100	e8 00 00 00 00	 call	 ?read@SocketInputStream@@QAEIPADI@Z ; SocketInputStream::read

; 70   : 
; 71   : 	iStream.read( m_MagicRemainSec );

  00105	6a 04		 push	 4
  00107	8d 46 38	 lea	 eax, DWORD PTR [esi+56]
  0010a	50		 push	 eax
  0010b	8b cf		 mov	 ecx, edi
  0010d	e8 00 00 00 00	 call	 ?read@SocketInputStream@@QAEIPADI@Z ; SocketInputStream::read

; 72   : 
; 73   : #if __CONTENTS(__EXPERT_PET_CHANGER)
; 74   : 	iStream.read( m_ExpertPetChangerRemainSec );

  00112	6a 04		 push	 4
  00114	8d 46 3c	 lea	 eax, DWORD PTR [esi+60]
  00117	50		 push	 eax
  00118	8b cf		 mov	 ecx, edi
  0011a	e8 00 00 00 00	 call	 ?read@SocketInputStream@@QAEIPADI@Z ; SocketInputStream::read

; 75   : #endif //__EXPERT_PET_CHANGER
; 76   : 	
; 77   : 	iStream.read( m_EnchantSkillType );

  0011f	6a 02		 push	 2
  00121	8d 46 40	 lea	 eax, DWORD PTR [esi+64]
  00124	50		 push	 eax
  00125	8b cf		 mov	 ecx, edi
  00127	e8 00 00 00 00	 call	 ?read@SocketInputStream@@QAEIPADI@Z ; SocketInputStream::read

; 78   : 
; 79   : #if __CONTENTS(__NEW_PET_INCUBUS)
; 80   : 	//081203 wlzzi - OptionType
; 81   : 	BYTE optionSize;
; 82   : 	iStream.read( optionSize );

  0012c	53		 push	 ebx
  0012d	8d 45 ff	 lea	 eax, DWORD PTR _optionSize$[ebp]
  00130	50		 push	 eax
  00131	8b cf		 mov	 ecx, edi
  00133	e8 00 00 00 00	 call	 ?read@SocketInputStream@@QAEIPADI@Z ; SocketInputStream::read

; 83   : 
; 84   : 	m_OptionType.clear();

  00138	8d 4e 1c	 lea	 ecx, DWORD PTR [esi+28]
  0013b	e8 00 00 00 00	 call	 ?clear@?$_List_base@GV?$allocator@G@_STL@@@_STL@@QAEXXZ ; _STL::_List_base<unsigned short,_STL::allocator<unsigned short> >::clear

; 85   : 
; 86   : 	for ( int j=0; j < optionSize ; ++j )

  00140	83 65 f4 00	 and	 DWORD PTR _j$101103[ebp], 0
  00144	80 7d ff 00	 cmp	 BYTE PTR _optionSize$[ebp], 0
  00148	76 25		 jbe	 SHORT $L101106
$L101104:

; 87   : 	{
; 88   : 		OptionType_t optionType;
; 89   : 		iStream.read( optionType );

  0014a	6a 02		 push	 2
  0014c	8d 45 f8	 lea	 eax, DWORD PTR _optionType$101107[ebp]
  0014f	50		 push	 eax
  00150	8b cf		 mov	 ecx, edi
  00152	e8 00 00 00 00	 call	 ?read@SocketInputStream@@QAEIPADI@Z ; SocketInputStream::read

; 90   : 		m_OptionType.push_back( optionType );

  00157	8d 45 f8	 lea	 eax, DWORD PTR _optionType$101107[ebp]
  0015a	50		 push	 eax
  0015b	8d 4e 1c	 lea	 ecx, DWORD PTR [esi+28]
  0015e	e8 00 00 00 00	 call	 ?push_back@?$list@GV?$allocator@G@_STL@@@_STL@@QAEXABG@Z ; _STL::list<unsigned short,_STL::allocator<unsigned short> >::push_back
  00163	0f b6 45 ff	 movzx	 eax, BYTE PTR _optionSize$[ebp]
  00167	ff 45 f4	 inc	 DWORD PTR _j$101103[ebp]
  0016a	39 45 f4	 cmp	 DWORD PTR _j$101103[ebp], eax
  0016d	7c db		 jl	 SHORT $L101104
$L101106:

; 91   : 	}
; 92   : 	//
; 93   : #endif //__NEW_PET_INCUBUS
; 94   : #if __CONTENTS(__FUNCTION_PETFOOD)
; 95   : 	iStream.read(m_Function_Petfood_Type);

  0016f	53		 push	 ebx
  00170	8d 46 42	 lea	 eax, DWORD PTR [esi+66]
  00173	50		 push	 eax
  00174	8b cf		 mov	 ecx, edi
  00176	e8 00 00 00 00	 call	 ?read@SocketInputStream@@QAEIPADI@Z ; SocketInputStream::read

; 96   : #endif //__FUNCTION_PETFOOD
; 97   : #if __CONTENTS(__PET_MIXINGFORGE)
; 98   : 	BYTE mixOptionSize;
; 99   : 	iStream.read( mixOptionSize );

  0017b	53		 push	 ebx
  0017c	8d 45 fe	 lea	 eax, DWORD PTR _mixOptionSize$[ebp]
  0017f	50		 push	 eax
  00180	8b cf		 mov	 ecx, edi
  00182	e8 00 00 00 00	 call	 ?read@SocketInputStream@@QAEIPADI@Z ; SocketInputStream::read

; 100  : 
; 101  : 	m_MixOptionType.clear();

  00187	83 c6 44	 add	 esi, 68			; 00000044H
  0018a	8b ce		 mov	 ecx, esi
  0018c	e8 00 00 00 00	 call	 ?clear@?$_List_base@GV?$allocator@G@_STL@@@_STL@@QAEXXZ ; _STL::_List_base<unsigned short,_STL::allocator<unsigned short> >::clear

; 102  : 
; 103  : 	for ( int k=0; k < mixOptionSize ; ++k )

  00191	33 db		 xor	 ebx, ebx
  00193	38 5d fe	 cmp	 BYTE PTR _mixOptionSize$[ebp], bl
  00196	76 21		 jbe	 SHORT $L101112
$L101110:

; 104  : 	{
; 105  : 		OptionType_t mixOptionType;
; 106  : 		iStream.read( mixOptionType );

  00198	6a 02		 push	 2
  0019a	8d 45 f8	 lea	 eax, DWORD PTR _mixOptionType$101113[ebp]
  0019d	50		 push	 eax
  0019e	8b cf		 mov	 ecx, edi
  001a0	e8 00 00 00 00	 call	 ?read@SocketInputStream@@QAEIPADI@Z ; SocketInputStream::read

; 107  : 		m_MixOptionType.push_back( mixOptionType );

  001a5	8d 45 f8	 lea	 eax, DWORD PTR _mixOptionType$101113[ebp]
  001a8	50		 push	 eax
  001a9	8b ce		 mov	 ecx, esi
  001ab	e8 00 00 00 00	 call	 ?push_back@?$list@GV?$allocator@G@_STL@@@_STL@@QAEXABG@Z ; _STL::list<unsigned short,_STL::allocator<unsigned short> >::push_back
  001b0	0f b6 45 fe	 movzx	 eax, BYTE PTR _mixOptionSize$[ebp]
  001b4	43		 inc	 ebx
  001b5	3b d8		 cmp	 ebx, eax
  001b7	7c df		 jl	 SHORT $L101110
$L101112:
  001b9	5f		 pop	 edi
  001ba	5e		 pop	 esi
  001bb	5b		 pop	 ebx

; 108  : 	}
; 109  : #endif //__PET_MIXINGFORGE
; 110  : 	__END_CATCH
; 111  : }

  001bc	c9		 leave
  001bd	c2 04 00	 ret	 4
?read@PetInfo@@UAEXAAVSocketInputStream@@@Z ENDP	; PetInfo::read
_TEXT	ENDS
PUBLIC	?toString@PetInfo@@QBE?AV?$basic_string@DV?$char_traits@D@_STL@@V?$allocator@D@2@@_STL@@XZ ; PetInfo::toString
PUBLIC	??_C@_01PKGAHCOL@?$CJ?$AA@			; `string'
PUBLIC	??_C@_08OFEGOICA@PetInfo?$CI?$AA@		; `string'
PUBLIC	??_C@_0L@JIGBLIDI@PetType?5?3?5?$AA@		; `string'
PUBLIC	??_C@_0O@KPFFDFAO@?0?5PetLevel?5?3?5?$AA@	; `string'
PUBLIC	??_C@_0M@IMKNCDJA@?0?5PetExp?5?3?5?$AA@		; `string'
PUBLIC	??_C@_0L@GCIPOHFC@?0?5PetHP?5?3?5?$AA@		; `string'
PUBLIC	??_C@_0N@NBLKDBKL@?0?5PetAttr?5?3?5?$AA@	; `string'
PUBLIC	??_C@_0P@LFDEIIHP@?0?5PetOption?5?3?5?$AA@	; `string'
PUBLIC	??_C@_0BA@GBLOCJDI@?0?5PetOption2?5?3?5?$AA@	; `string'
PUBLIC	??_C@_0BA@FMNOAAII@?0?5PetOption3?5?3?5?$AA@	; `string'
PUBLIC	??_C@_0BB@LFAJLFKJ@?0?5PetFoodType?5?3?5?$AA@	; `string'
PUBLIC	??_C@_0BD@HGCOGKLK@?0?5PetCanCutHead?5?3?5?$AA@	; `string'
PUBLIC	??_C@_0BC@KJONFKBC@?0?5PetCanAttack?5?3?5?$AA@	; `string'
PUBLIC	??_C@_0BG@EGEMBLHD@?0?5EnchantSkillType?5?3?5?$AA@ ; `string'
PUBLIC	??_C@_0O@KNKPGJBM@?0?5Options?5?3?5?$CI?$AA@	; `string'
PUBLIC	??_C@_02KEGNLNML@?0?5?$AA@			; `string'
PUBLIC	??_C@_0BI@CCKJOPIB@m_Function_Petfood_Type?$AA@	; `string'
PUBLIC	??_C@_0BB@LJBJLEEB@?0?5MixOptions?5?3?5?$CI?$AA@ ; `string'
EXTRN	??0StringStream@@QAE@XZ:NEAR			; StringStream::StringStream
EXTRN	??1StringStream@@QAE@XZ:NEAR			; StringStream::~StringStream
EXTRN	??6StringStream@@QAEAAV0@G@Z:NEAR		; StringStream::operator<<
EXTRN	??6StringStream@@QAEAAV0@H@Z:NEAR		; StringStream::operator<<
EXTRN	??6StringStream@@QAEAAV0@PBD@Z:NEAR		; StringStream::operator<<
EXTRN	?toString@StringStream@@QBE?AV?$basic_string@DV?$char_traits@D@_STL@@V?$allocator@D@2@@_STL@@XZ:NEAR ; StringStream::toString
;	COMDAT ??_C@_0BG@EGEMBLHD@?0?5EnchantSkillType?5?3?5?$AA@
; File c:\stlport-4.6.1\stlport\stl\_list.h
CONST	SEGMENT
??_C@_0BG@EGEMBLHD@?0?5EnchantSkillType?5?3?5?$AA@ DB ', EnchantSkillType'
	DB	' : ', 00H					; `string'
CONST	ENDS
;	COMDAT ??_C@_0BC@KJONFKBC@?0?5PetCanAttack?5?3?5?$AA@
CONST	SEGMENT
??_C@_0BC@KJONFKBC@?0?5PetCanAttack?5?3?5?$AA@ DB ', PetCanAttack : ', 00H ; `string'
CONST	ENDS
;	COMDAT ??_C@_0BD@HGCOGKLK@?0?5PetCanCutHead?5?3?5?$AA@
CONST	SEGMENT
??_C@_0BD@HGCOGKLK@?0?5PetCanCutHead?5?3?5?$AA@ DB ', PetCanCutHead : ', 00H ; `string'
CONST	ENDS
;	COMDAT ??_C@_0BB@LFAJLFKJ@?0?5PetFoodType?5?3?5?$AA@
CONST	SEGMENT
??_C@_0BB@LFAJLFKJ@?0?5PetFoodType?5?3?5?$AA@ DB ', PetFoodType : ', 00H ; `string'
CONST	ENDS
;	COMDAT ??_C@_0BA@FMNOAAII@?0?5PetOption3?5?3?5?$AA@
CONST	SEGMENT
??_C@_0BA@FMNOAAII@?0?5PetOption3?5?3?5?$AA@ DB ', PetOption3 : ', 00H ; `string'
CONST	ENDS
;	COMDAT ??_C@_0BA@GBLOCJDI@?0?5PetOption2?5?3?5?$AA@
CONST	SEGMENT
??_C@_0BA@GBLOCJDI@?0?5PetOption2?5?3?5?$AA@ DB ', PetOption2 : ', 00H ; `string'
CONST	ENDS
;	COMDAT ??_C@_0P@LFDEIIHP@?0?5PetOption?5?3?5?$AA@
CONST	SEGMENT
??_C@_0P@LFDEIIHP@?0?5PetOption?5?3?5?$AA@ DB ', PetOption : ', 00H ; `string'
CONST	ENDS
;	COMDAT ??_C@_0N@NBLKDBKL@?0?5PetAttr?5?3?5?$AA@
CONST	SEGMENT
??_C@_0N@NBLKDBKL@?0?5PetAttr?5?3?5?$AA@ DB ', PetAttr : ', 00H ; `string'
CONST	ENDS
;	COMDAT ??_C@_0L@GCIPOHFC@?0?5PetHP?5?3?5?$AA@
CONST	SEGMENT
??_C@_0L@GCIPOHFC@?0?5PetHP?5?3?5?$AA@ DB ', PetHP : ', 00H ; `string'
CONST	ENDS
;	COMDAT ??_C@_0M@IMKNCDJA@?0?5PetExp?5?3?5?$AA@
CONST	SEGMENT
??_C@_0M@IMKNCDJA@?0?5PetExp?5?3?5?$AA@ DB ', PetExp : ', 00H ; `string'
CONST	ENDS
;	COMDAT ??_C@_0O@KPFFDFAO@?0?5PetLevel?5?3?5?$AA@
CONST	SEGMENT
??_C@_0O@KPFFDFAO@?0?5PetLevel?5?3?5?$AA@ DB ', PetLevel : ', 00H ; `string'
CONST	ENDS
;	COMDAT ??_C@_0L@JIGBLIDI@PetType?5?3?5?$AA@
CONST	SEGMENT
??_C@_0L@JIGBLIDI@PetType?5?3?5?$AA@ DB 'PetType : ', 00H ; `string'
CONST	ENDS
;	COMDAT ??_C@_08OFEGOICA@PetInfo?$CI?$AA@
CONST	SEGMENT
??_C@_08OFEGOICA@PetInfo?$CI?$AA@ DB 'PetInfo(', 00H	; `string'
CONST	ENDS
;	COMDAT ??_C@_0O@KNKPGJBM@?0?5Options?5?3?5?$CI?$AA@
CONST	SEGMENT
??_C@_0O@KNKPGJBM@?0?5Options?5?3?5?$CI?$AA@ DB ', Options : (', 00H ; `string'
CONST	ENDS
;	COMDAT ??_C@_02KEGNLNML@?0?5?$AA@
CONST	SEGMENT
??_C@_02KEGNLNML@?0?5?$AA@ DB ', ', 00H			; `string'
CONST	ENDS
;	COMDAT ??_C@_0BI@CCKJOPIB@m_Function_Petfood_Type?$AA@
CONST	SEGMENT
??_C@_0BI@CCKJOPIB@m_Function_Petfood_Type?$AA@ DB 'm_Function_Petfood_Ty'
	DB	'pe', 00H					; `string'
CONST	ENDS
;	COMDAT ??_C@_0BB@LJBJLEEB@?0?5MixOptions?5?3?5?$CI?$AA@
CONST	SEGMENT
??_C@_0BB@LJBJLEEB@?0?5MixOptions?5?3?5?$CI?$AA@ DB ', MixOptions : (', 00H ; `string'
CONST	ENDS
;	COMDAT ??_C@_01PKGAHCOL@?$CJ?$AA@
CONST	SEGMENT
??_C@_01PKGAHCOL@?$CJ?$AA@ DB ')', 00H			; `string'
; Function compile flags: /Ogsy
; File c:\darkeden\designed_common\project\client\packet\petinfo.cpp
CONST	ENDS
;	COMDAT ?toString@PetInfo@@QBE?AV?$basic_string@DV?$char_traits@D@_STL@@V?$allocator@D@2@@_STL@@XZ
_TEXT	SEGMENT
_msg$ = -24						; size = 20
$T103704 = -4						; size = 4
___$ReturnUdt$ = 8					; size = 4
?toString@PetInfo@@QBE?AV?$basic_string@DV?$char_traits@D@_STL@@V?$allocator@D@2@@_STL@@XZ PROC NEAR ; PetInfo::toString, COMDAT
; _this$ = ecx

; 191  : {

  00000	55		 push	 ebp
  00001	8b ec		 mov	 ebp, esp
  00003	83 ec 18	 sub	 esp, 24			; 00000018H
  00006	83 65 fc 00	 and	 DWORD PTR $T103704[ebp], 0
  0000a	53		 push	 ebx
  0000b	56		 push	 esi
  0000c	8b f1		 mov	 esi, ecx
  0000e	57		 push	 edi

; 192  : 	StringStream msg;

  0000f	8d 4d e8	 lea	 ecx, DWORD PTR _msg$[ebp]
  00012	e8 00 00 00 00	 call	 ??0StringStream@@QAE@XZ	; StringStream::StringStream

; 193  : 	
; 194  : 	msg << "PetInfo("
; 195  : 		<< "PetType : " << (int)m_PetType
; 196  : 		<< ", PetLevel : " << (int)m_PetLevel
; 197  : 		<< ", PetExp : " << (int)m_PetExp
; 198  : 		<< ", PetHP : " << (int)m_PetHP
; 199  : 		<< ", PetAttr : " << (int)m_PetAttr
; 200  : 		<< ", PetOption : " << (int)m_PetOption
; 201  : #if __CONTENTS(__PET_VISION_AMPLE)
; 202  : 		<< ", PetOption2 : " << (int)m_PetOption2
; 203  : 		<< ", PetOption3 : " << (int)m_PetOption3
; 204  : #endif //__PET_VISION_AMPLE
; 205  : 		<< ", PetFoodType : " << (int)m_PetFoodType
; 206  : 		<< ", PetCanCutHead : " << (int)m_CanCutHead
; 207  : 		<< ", PetCanAttack : " << (int)m_CanAttack
; 208  : 		<< ", EnchantSkillType : " << (int)m_EnchantSkillType;

  00017	0f b7 46 40	 movzx	 eax, WORD PTR [esi+64]
  0001b	50		 push	 eax
  0001c	0f b6 46 24	 movzx	 eax, BYTE PTR [esi+36]
  00020	68 00 00 00 00	 push	 OFFSET FLAT:??_C@_0BG@EGEMBLHD@?0?5EnchantSkillType?5?3?5?$AA@
  00025	50		 push	 eax
  00026	0f b6 46 23	 movzx	 eax, BYTE PTR [esi+35]
  0002a	68 00 00 00 00	 push	 OFFSET FLAT:??_C@_0BC@KJONFKBC@?0?5PetCanAttack?5?3?5?$AA@
  0002f	50		 push	 eax
  00030	0f b7 46 20	 movzx	 eax, WORD PTR [esi+32]
  00034	68 00 00 00 00	 push	 OFFSET FLAT:??_C@_0BD@HGCOGKLK@?0?5PetCanCutHead?5?3?5?$AA@
  00039	50		 push	 eax
  0003a	0f b7 46 18	 movzx	 eax, WORD PTR [esi+24]
  0003e	68 00 00 00 00	 push	 OFFSET FLAT:??_C@_0BB@LFAJLFKJ@?0?5PetFoodType?5?3?5?$AA@
  00043	50		 push	 eax
  00044	0f b7 46 16	 movzx	 eax, WORD PTR [esi+22]
  00048	68 00 00 00 00	 push	 OFFSET FLAT:??_C@_0BA@FMNOAAII@?0?5PetOption3?5?3?5?$AA@
  0004d	50		 push	 eax
  0004e	0f b7 46 14	 movzx	 eax, WORD PTR [esi+20]
  00052	68 00 00 00 00	 push	 OFFSET FLAT:??_C@_0BA@GBLOCJDI@?0?5PetOption2?5?3?5?$AA@
  00057	50		 push	 eax
  00058	0f b6 46 12	 movzx	 eax, BYTE PTR [esi+18]
  0005c	68 00 00 00 00	 push	 OFFSET FLAT:??_C@_0P@LFDEIIHP@?0?5PetOption?5?3?5?$AA@
  00061	50		 push	 eax
  00062	0f b7 46 10	 movzx	 eax, WORD PTR [esi+16]
  00066	68 00 00 00 00	 push	 OFFSET FLAT:??_C@_0N@NBLKDBKL@?0?5PetAttr?5?3?5?$AA@
  0006b	50		 push	 eax
  0006c	0f b6 46 08	 movzx	 eax, BYTE PTR [esi+8]
  00070	68 00 00 00 00	 push	 OFFSET FLAT:??_C@_0L@GCIPOHFC@?0?5PetHP?5?3?5?$AA@
  00075	ff 76 0c	 push	 DWORD PTR [esi+12]
  00078	8d 4d e8	 lea	 ecx, DWORD PTR _msg$[ebp]
  0007b	68 00 00 00 00	 push	 OFFSET FLAT:??_C@_0M@IMKNCDJA@?0?5PetExp?5?3?5?$AA@
  00080	50		 push	 eax
  00081	0f b6 46 04	 movzx	 eax, BYTE PTR [esi+4]
  00085	68 00 00 00 00	 push	 OFFSET FLAT:??_C@_0O@KPFFDFAO@?0?5PetLevel?5?3?5?$AA@
  0008a	50		 push	 eax
  0008b	68 00 00 00 00	 push	 OFFSET FLAT:??_C@_0L@JIGBLIDI@PetType?5?3?5?$AA@
  00090	68 00 00 00 00	 push	 OFFSET FLAT:??_C@_08OFEGOICA@PetInfo?$CI?$AA@
  00095	e8 00 00 00 00	 call	 ??6StringStream@@QAEAAV0@PBD@Z ; StringStream::operator<<
  0009a	8b c8		 mov	 ecx, eax
  0009c	e8 00 00 00 00	 call	 ??6StringStream@@QAEAAV0@PBD@Z ; StringStream::operator<<
  000a1	8b c8		 mov	 ecx, eax
  000a3	e8 00 00 00 00	 call	 ??6StringStream@@QAEAAV0@H@Z ; StringStream::operator<<
  000a8	8b c8		 mov	 ecx, eax
  000aa	e8 00 00 00 00	 call	 ??6StringStream@@QAEAAV0@PBD@Z ; StringStream::operator<<
  000af	8b c8		 mov	 ecx, eax
  000b1	e8 00 00 00 00	 call	 ??6StringStream@@QAEAAV0@H@Z ; StringStream::operator<<
  000b6	8b c8		 mov	 ecx, eax
  000b8	e8 00 00 00 00	 call	 ??6StringStream@@QAEAAV0@PBD@Z ; StringStream::operator<<
  000bd	8b c8		 mov	 ecx, eax
  000bf	e8 00 00 00 00	 call	 ??6StringStream@@QAEAAV0@H@Z ; StringStream::operator<<
  000c4	8b c8		 mov	 ecx, eax
  000c6	e8 00 00 00 00	 call	 ??6StringStream@@QAEAAV0@PBD@Z ; StringStream::operator<<
  000cb	8b c8		 mov	 ecx, eax
  000cd	e8 00 00 00 00	 call	 ??6StringStream@@QAEAAV0@H@Z ; StringStream::operator<<
  000d2	8b c8		 mov	 ecx, eax
  000d4	e8 00 00 00 00	 call	 ??6StringStream@@QAEAAV0@PBD@Z ; StringStream::operator<<
  000d9	8b c8		 mov	 ecx, eax
  000db	e8 00 00 00 00	 call	 ??6StringStream@@QAEAAV0@H@Z ; StringStream::operator<<
  000e0	8b c8		 mov	 ecx, eax
  000e2	e8 00 00 00 00	 call	 ??6StringStream@@QAEAAV0@PBD@Z ; StringStream::operator<<
  000e7	8b c8		 mov	 ecx, eax
  000e9	e8 00 00 00 00	 call	 ??6StringStream@@QAEAAV0@H@Z ; StringStream::operator<<
  000ee	8b c8		 mov	 ecx, eax
  000f0	e8 00 00 00 00	 call	 ??6StringStream@@QAEAAV0@PBD@Z ; StringStream::operator<<
  000f5	8b c8		 mov	 ecx, eax
  000f7	e8 00 00 00 00	 call	 ??6StringStream@@QAEAAV0@H@Z ; StringStream::operator<<
  000fc	8b c8		 mov	 ecx, eax
  000fe	e8 00 00 00 00	 call	 ??6StringStream@@QAEAAV0@PBD@Z ; StringStream::operator<<
  00103	8b c8		 mov	 ecx, eax
  00105	e8 00 00 00 00	 call	 ??6StringStream@@QAEAAV0@H@Z ; StringStream::operator<<
  0010a	8b c8		 mov	 ecx, eax
  0010c	e8 00 00 00 00	 call	 ??6StringStream@@QAEAAV0@PBD@Z ; StringStream::operator<<
  00111	8b c8		 mov	 ecx, eax
  00113	e8 00 00 00 00	 call	 ??6StringStream@@QAEAAV0@H@Z ; StringStream::operator<<
  00118	8b c8		 mov	 ecx, eax
  0011a	e8 00 00 00 00	 call	 ??6StringStream@@QAEAAV0@PBD@Z ; StringStream::operator<<
  0011f	8b c8		 mov	 ecx, eax
  00121	e8 00 00 00 00	 call	 ??6StringStream@@QAEAAV0@H@Z ; StringStream::operator<<
  00126	8b c8		 mov	 ecx, eax
  00128	e8 00 00 00 00	 call	 ??6StringStream@@QAEAAV0@PBD@Z ; StringStream::operator<<
  0012d	8b c8		 mov	 ecx, eax
  0012f	e8 00 00 00 00	 call	 ??6StringStream@@QAEAAV0@H@Z ; StringStream::operator<<
  00134	8b c8		 mov	 ecx, eax
  00136	e8 00 00 00 00	 call	 ??6StringStream@@QAEAAV0@PBD@Z ; StringStream::operator<<
  0013b	8b c8		 mov	 ecx, eax
  0013d	e8 00 00 00 00	 call	 ??6StringStream@@QAEAAV0@H@Z ; StringStream::operator<<

; 209  : 
; 210  : #if __CONTENTS(__NEW_PET_INCUBUS)
; 211  : 		//081203 wlzzi - OptionType
; 212  : 		msg << ", Options : (";

  00142	68 00 00 00 00	 push	 OFFSET FLAT:??_C@_0O@KNKPGJBM@?0?5Options?5?3?5?$CI?$AA@
  00147	8d 4d e8	 lea	 ecx, DWORD PTR _msg$[ebp]
  0014a	e8 00 00 00 00	 call	 ??6StringStream@@QAEAAV0@PBD@Z ; StringStream::operator<<

; 213  : 
; 214  : 		std::list<OptionType_t>::const_iterator itr = m_OptionType.begin();

  0014f	8b 5e 1c	 mov	 ebx, DWORD PTR [esi+28]
  00152	8b 3b		 mov	 edi, DWORD PTR [ebx]
  00154	eb 1a		 jmp	 SHORT $L103800

; 215  : 		std::list<OptionType_t>::const_iterator endItr = m_OptionType.end();
; 216  : 
; 217  : 		for ( ; itr != endItr ; ++itr )

$L103742:

; 218  : 		{
; 219  : 			msg << *itr << ", ";

  00156	33 c0		 xor	 eax, eax
  00158	66 8b 47 08	 mov	 ax, WORD PTR [edi+8]
  0015c	68 00 00 00 00	 push	 OFFSET FLAT:??_C@_02KEGNLNML@?0?5?$AA@
  00161	50		 push	 eax
  00162	e8 00 00 00 00	 call	 ??6StringStream@@QAEAAV0@G@Z ; StringStream::operator<<
  00167	8b c8		 mov	 ecx, eax
  00169	e8 00 00 00 00	 call	 ??6StringStream@@QAEAAV0@PBD@Z ; StringStream::operator<<
  0016e	8b 3f		 mov	 edi, DWORD PTR [edi]
$L103800:
  00170	3b fb		 cmp	 edi, ebx

; 220  : 		}
; 221  : 		//
; 222  : #endif //__NEW_PET_INCUBUS
; 223  : 
; 224  : #if __CONTENTS(__FUNCTION_PETFOOD)
; 225  : 		msg << "m_Function_Petfood_Type" << (int)m_Function_Petfood_Type;

  00172	8d 4d e8	 lea	 ecx, DWORD PTR _msg$[ebp]
  00175	75 df		 jne	 SHORT $L103742
  00177	0f b6 46 42	 movzx	 eax, BYTE PTR [esi+66]
  0017b	50		 push	 eax
  0017c	68 00 00 00 00	 push	 OFFSET FLAT:??_C@_0BI@CCKJOPIB@m_Function_Petfood_Type?$AA@
  00181	e8 00 00 00 00	 call	 ??6StringStream@@QAEAAV0@PBD@Z ; StringStream::operator<<
  00186	8b c8		 mov	 ecx, eax
  00188	e8 00 00 00 00	 call	 ??6StringStream@@QAEAAV0@H@Z ; StringStream::operator<<

; 226  : #endif //__FUNCTION_PETFOOD
; 227  : 
; 228  : #if __CONTENTS(__PET_MIXINGFORGE)
; 229  : 		msg << ", MixOptions : (";

  0018d	68 00 00 00 00	 push	 OFFSET FLAT:??_C@_0BB@LJBJLEEB@?0?5MixOptions?5?3?5?$CI?$AA@
  00192	8d 4d e8	 lea	 ecx, DWORD PTR _msg$[ebp]
  00195	e8 00 00 00 00	 call	 ??6StringStream@@QAEAAV0@PBD@Z ; StringStream::operator<<

; 230  : 
; 231  : 		std::list<OptionType_t>::const_iterator mixitr = m_MixOptionType.begin();

  0019a	8b 76 44	 mov	 esi, DWORD PTR [esi+68]
  0019d	8b 3e		 mov	 edi, DWORD PTR [esi]
  0019f	eb 1a		 jmp	 SHORT $L103801

; 232  : 		std::list<OptionType_t>::const_iterator mixendItr = m_MixOptionType.end();
; 233  : 
; 234  : 		for ( ; mixitr != mixendItr ; ++mixitr )

$L103788:

; 235  : 		{
; 236  : 			msg << *mixitr << ", ";

  001a1	33 c0		 xor	 eax, eax
  001a3	66 8b 47 08	 mov	 ax, WORD PTR [edi+8]
  001a7	68 00 00 00 00	 push	 OFFSET FLAT:??_C@_02KEGNLNML@?0?5?$AA@
  001ac	50		 push	 eax
  001ad	e8 00 00 00 00	 call	 ??6StringStream@@QAEAAV0@G@Z ; StringStream::operator<<
  001b2	8b c8		 mov	 ecx, eax
  001b4	e8 00 00 00 00	 call	 ??6StringStream@@QAEAAV0@PBD@Z ; StringStream::operator<<
  001b9	8b 3f		 mov	 edi, DWORD PTR [edi]
$L103801:
  001bb	3b fe		 cmp	 edi, esi

; 237  : 		}
; 238  : #endif //__PET_MIXINGFORGE
; 239  : 		msg << ")";

  001bd	8d 4d e8	 lea	 ecx, DWORD PTR _msg$[ebp]
  001c0	75 df		 jne	 SHORT $L103788
  001c2	68 00 00 00 00	 push	 OFFSET FLAT:??_C@_01PKGAHCOL@?$CJ?$AA@
  001c7	e8 00 00 00 00	 call	 ??6StringStream@@QAEAAV0@PBD@Z ; StringStream::operator<<

; 240  : 
; 241  : 
; 242  : 	return msg.toString();

  001cc	ff 75 08	 push	 DWORD PTR ___$ReturnUdt$[ebp]
  001cf	8d 4d e8	 lea	 ecx, DWORD PTR _msg$[ebp]
  001d2	e8 00 00 00 00	 call	 ?toString@StringStream@@QBE?AV?$basic_string@DV?$char_traits@D@_STL@@V?$allocator@D@2@@_STL@@XZ ; StringStream::toString
  001d7	8d 4d e8	 lea	 ecx, DWORD PTR _msg$[ebp]
  001da	e8 00 00 00 00	 call	 ??1StringStream@@QAE@XZ	; StringStream::~StringStream
  001df	8b 45 08	 mov	 eax, DWORD PTR ___$ReturnUdt$[ebp]
  001e2	5f		 pop	 edi
  001e3	5e		 pop	 esi
  001e4	5b		 pop	 ebx

; 243  : }

  001e5	c9		 leave
  001e6	c2 04 00	 ret	 4
?toString@PetInfo@@QBE?AV?$basic_string@DV?$char_traits@D@_STL@@V?$allocator@D@2@@_STL@@XZ ENDP ; PetInfo::toString
_TEXT	ENDS
END
