; Listing generated by Microsoft (R) Optimizing Compiler Version 13.10.3077 

	TITLE	\darkeden\Designed_Common\Project\Client\TalkBox.cpp
	.386P
include listing.inc
if @Version gt 510
.model FLAT
else
_TEXT	SEGMENT PARA USE32 PUBLIC 'CODE'
_TEXT	ENDS
_DATA	SEGMENT DWORD USE32 PUBLIC 'DATA'
_DATA	ENDS
CONST	SEGMENT DWORD USE32 PUBLIC 'CONST'
CONST	ENDS
_BSS	SEGMENT DWORD USE32 PUBLIC 'BSS'
_BSS	ENDS
$$SYMBOLS	SEGMENT BYTE USE32 'DEBSYM'
$$SYMBOLS	ENDS
$$TYPES	SEGMENT BYTE USE32 'DEBTYP'
$$TYPES	ENDS
_TLS	SEGMENT DWORD USE32 PUBLIC 'TLS'
_TLS	ENDS
;	COMDAT ??_C@_0BN@ODLNCKCA@Data?2?2Info?2?2ClientConfig?4inf?$AA@
CONST	SEGMENT DWORD USE32 PUBLIC 'CONST'
CONST	ENDS
;	COMDAT ??_C@_0BM@DFPLPGPC@Data?2?2Info?2?2GuildMapper?4inf?$AA@
CONST	SEGMENT DWORD USE32 PUBLIC 'CONST'
CONST	ENDS
;	COMDAT ??_C@_0BN@LHODHNBK@Data?2?2Info?2?2GuildVersion?4inf?$AA@
CONST	SEGMENT DWORD USE32 PUBLIC 'CONST'
CONST	ENDS
;	COMDAT ??_C@_0BH@DDPLNCOL@Data?2?2Info?2?2Player?4inf?$AA@
CONST	SEGMENT DWORD USE32 PUBLIC 'CONST'
CONST	ENDS
;	COMDAT ??_C@_0BL@ILLNAPHB@Data?2?2Info?2?2Resolution?4inf?$AA@
CONST	SEGMENT DWORD USE32 PUBLIC 'CONST'
CONST	ENDS
;	COMDAT ??_C@_0CA@HEIGFDLG@Data?2?2Info?2?2SelectedChannel?4inf?$AA@
CONST	SEGMENT DWORD USE32 PUBLIC 'CONST'
CONST	ENDS
;	COMDAT ??_C@_0O@JKENFCBN@MinTrace?52003?$AA@
CONST	SEGMENT DWORD USE32 PUBLIC 'CONST'
CONST	ENDS
;	COMDAT ??_C@_0BE@MNEJIGLM@__MinTrace?5Window__?$AA@
CONST	SEGMENT DWORD USE32 PUBLIC 'CONST'
CONST	ENDS
;	COMDAT ??_C@_06KLPNNMEP@?$CF8d?0?$CFs?$AA@
CONST	SEGMENT DWORD USE32 PUBLIC 'CONST'
CONST	ENDS
;	COMDAT ??_C@_0CA@NDINADEE@SocketOutputStream?$CIm_BufferLen?3?$AA@
CONST	SEGMENT DWORD USE32 PUBLIC 'CONST'
CONST	ENDS
;	COMDAT ??_C@_08LIHEOLAN@?0m_Head?3?$AA@
CONST	SEGMENT DWORD USE32 PUBLIC 'CONST'
CONST	ENDS
;	COMDAT ??_C@_08PCEHPGHK@?0m_Tail?3?$AA@
CONST	SEGMENT DWORD USE32 PUBLIC 'CONST'
CONST	ENDS
;	COMDAT ??_C@_01PKGAHCOL@?$CJ?$AA@
CONST	SEGMENT DWORD USE32 PUBLIC 'CONST'
CONST	ENDS
;	COMDAT ??_C@_0L@OAHCEBF@SetContent?$AA@
CONST	SEGMENT DWORD USE32 PUBLIC 'CONST'
CONST	ENDS
;	COMDAT ??_C@_0N@GOPDCEEB@basic_string?$AA@
CONST	SEGMENT DWORD USE32 PUBLIC 'CONST'
CONST	ENDS
xdata$x	SEGMENT DWORD USE32 PUBLIC 'CONST'
xdata$x	ENDS
rdata$r	SEGMENT DWORD USE32 PUBLIC 'CONST'
rdata$r	ENDS
text$yc	SEGMENT PARA USE32 PUBLIC 'CODE'
text$yc	ENDS
CRT$XCA	SEGMENT DWORD USE32 PUBLIC 'DATA'
CRT$XCA	ENDS
CRT$XCU	SEGMENT DWORD USE32 PUBLIC 'DATA'
CRT$XCU	ENDS
CRT$XCL	SEGMENT DWORD USE32 PUBLIC 'DATA'
CRT$XCL	ENDS
CRT$XCC	SEGMENT DWORD USE32 PUBLIC 'DATA'
CRT$XCC	ENDS
CRT$XCZ	SEGMENT DWORD USE32 PUBLIC 'DATA'
CRT$XCZ	ENDS
text$yd	SEGMENT PARA USE32 PUBLIC 'CODE'
text$yd	ENDS
;	COMDAT ?start@CNFS@@QAE_NPADH@Z
_TEXT	SEGMENT PARA USE32 PUBLIC 'CODE'
_TEXT	ENDS
;	COMDAT ?end@CNFS@@QAEXXZ
_TEXT	SEGMENT PARA USE32 PUBLIC 'CODE'
_TEXT	ENDS
;	COMDAT ?Init@VirtualFileHeader@@QAEXXZ
_TEXT	SEGMENT PARA USE32 PUBLIC 'CODE'
_TEXT	ENDS
;	COMDAT ??1IFileIO@@UAE@XZ
_TEXT	SEGMENT PARA USE32 PUBLIC 'CODE'
_TEXT	ENDS
;	COMDAT ??_GIFileIO@@UAEPAXI@Z
_TEXT	SEGMENT PARA USE32 PUBLIC 'CODE'
_TEXT	ENDS
;	COMDAT ??0iovfs_base@@QAE@XZ
_TEXT	SEGMENT PARA USE32 PUBLIC 'CODE'
_TEXT	ENDS
;	COMDAT ??_Giovfs_base@@UAEPAXI@Z
_TEXT	SEGMENT PARA USE32 PUBLIC 'CODE'
_TEXT	ENDS
;	COMDAT ??1iovfs_base@@UAE@XZ
_TEXT	SEGMENT PARA USE32 PUBLIC 'CODE'
_TEXT	ENDS
;	COMDAT ?Init@iovfs_base@@QAEXXZ
_TEXT	SEGMENT PARA USE32 PUBLIC 'CODE'
_TEXT	ENDS
;	COMDAT ??_Givfstream@@UAEPAXI@Z
_TEXT	SEGMENT PARA USE32 PUBLIC 'CODE'
_TEXT	ENDS
;	COMDAT ??1ivfstream@@UAE@XZ
_TEXT	SEGMENT PARA USE32 PUBLIC 'CODE'
_TEXT	ENDS
;	COMDAT ?open@ivfstream@@UAEXPBDH@Z
_TEXT	SEGMENT PARA USE32 PUBLIC 'CODE'
_TEXT	ENDS
;	COMDAT ??_Govfstream@@UAEPAXI@Z
_TEXT	SEGMENT PARA USE32 PUBLIC 'CODE'
_TEXT	ENDS
;	COMDAT ??1ovfstream@@UAE@XZ
_TEXT	SEGMENT PARA USE32 PUBLIC 'CODE'
_TEXT	ENDS
;	COMDAT ?open@ovfstream@@UAEXPBDH@Z
_TEXT	SEGMENT PARA USE32 PUBLIC 'CODE'
_TEXT	ENDS
;	COMDAT ?GetString@MString@@QBEPADXZ
_TEXT	SEGMENT PARA USE32 PUBLIC 'CODE'
_TEXT	ENDS
;	COMDAT ?SetType@PCTalkBox@@QAEXW4TALKBOX_TYPE@1@@Z
_TEXT	SEGMENT PARA USE32 PUBLIC 'CODE'
_TEXT	ENDS
;	COMDAT ?SetContent@PCTalkBox@@QAEXPBD@Z
_TEXT	SEGMENT PARA USE32 PUBLIC 'CODE'
_TEXT	ENDS
;	COMDAT ?SetNPCID@PCTalkBox@@QAEXI@Z
_TEXT	SEGMENT PARA USE32 PUBLIC 'CODE'
_TEXT	ENDS
;	COMDAT ?SetCreatureType@PCTalkBox@@QAEXI@Z
_TEXT	SEGMENT PARA USE32 PUBLIC 'CODE'
_TEXT	ENDS
;	COMDAT ?SetScriptID@PCTalkBox@@QAEXI@Z
_TEXT	SEGMENT PARA USE32 PUBLIC 'CODE'
_TEXT	ENDS
;	COMDAT ?_MinTraceA@@YAXPBD@Z
_TEXT	SEGMENT PARA USE32 PUBLIC 'CODE'
_TEXT	ENDS
;	COMDAT ?_MinTraceErrA@@YAXPBD@Z
_TEXT	SEGMENT PARA USE32 PUBLIC 'CODE'
_TEXT	ENDS
;	COMDAT ?_MinTraceWarA@@YAXPBD@Z
_TEXT	SEGMENT PARA USE32 PUBLIC 'CODE'
_TEXT	ENDS
;	COMDAT ?_ClMinTraceA@@YAXKPBD@Z
_TEXT	SEGMENT PARA USE32 PUBLIC 'CODE'
_TEXT	ENDS
;	COMDAT ?_CmdMinTraceA@@YAXHPBD@Z
_TEXT	SEGMENT PARA USE32 PUBLIC 'CODE'
_TEXT	ENDS
;	COMDAT ?DEBUG_ADD@@YAXPBD@Z
_TEXT	SEGMENT PARA USE32 PUBLIC 'CODE'
_TEXT	ENDS
;	COMDAT ?getHost@SocketImpl@@QBE?AV?$basic_string@DV?$char_traits@D@_STL@@V?$allocator@D@2@@_STL@@XZ
_TEXT	SEGMENT PARA USE32 PUBLIC 'CODE'
_TEXT	ENDS
;	COMDAT ?getPort@SocketImpl@@QBEIXZ
_TEXT	SEGMENT PARA USE32 PUBLIC 'CODE'
_TEXT	ENDS
;	COMDAT ?isValid@SocketImpl@@QBE_NXZ
_TEXT	SEGMENT PARA USE32 PUBLIC 'CODE'
_TEXT	ENDS
;	COMDAT ?getSOCKET@SocketImpl@@QBEIXZ
_TEXT	SEGMENT PARA USE32 PUBLIC 'CODE'
_TEXT	ENDS
;	COMDAT ?write@SocketOutputStream@@QAEIG@Z
_TEXT	SEGMENT PARA USE32 PUBLIC 'CODE'
_TEXT	ENDS
;	COMDAT ?write@SocketOutputStream@@QAEII@Z
_TEXT	SEGMENT PARA USE32 PUBLIC 'CODE'
_TEXT	ENDS
;	COMDAT ??1Packet@@UAE@XZ
_TEXT	SEGMENT PARA USE32 PUBLIC 'CODE'
_TEXT	ENDS
;	COMDAT ?read@Packet@@UAEXPAVSocket@@@Z
_TEXT	SEGMENT PARA USE32 PUBLIC 'CODE'
_TEXT	ENDS
;	COMDAT ?write@Packet@@UBEXPAVSocket@@@Z
_TEXT	SEGMENT PARA USE32 PUBLIC 'CODE'
_TEXT	ENDS
;	COMDAT ??_GPacket@@UAEPAXI@Z
_TEXT	SEGMENT PARA USE32 PUBLIC 'CODE'
_TEXT	ENDS
;	COMDAT ??0UnsupportedError@@QAE@ABV0@@Z
_TEXT	SEGMENT PARA USE32 PUBLIC 'CODE'
_TEXT	ENDS
;	COMDAT ??0Error@@QAE@ABV0@@Z
_TEXT	SEGMENT PARA USE32 PUBLIC 'CODE'
_TEXT	ENDS
;	COMDAT ??0Throwable@@QAE@ABV0@@Z
_TEXT	SEGMENT PARA USE32 PUBLIC 'CODE'
_TEXT	ENDS
;	COMDAT ??0PCTalkBox@@QAE@XZ
_TEXT	SEGMENT PARA USE32 PUBLIC 'CODE'
_TEXT	ENDS
;	COMDAT ??_GPCTalkBox@@UAEPAXI@Z
_TEXT	SEGMENT PARA USE32 PUBLIC 'CODE'
_TEXT	ENDS
;	COMDAT ??1PCTalkBox@@UAE@XZ
_TEXT	SEGMENT PARA USE32 PUBLIC 'CODE'
_TEXT	ENDS
;	COMDAT ?SetNPCTalkBox@PCTalkBox@@QAEXHPBDIII@Z
_TEXT	SEGMENT PARA USE32 PUBLIC 'CODE'
_TEXT	ENDS
;	COMDAT ?eq@?$__char_traits_base@DH@_STL@@SA_NABD0@Z
_TEXT	SEGMENT PARA USE32 PUBLIC 'CODE'
_TEXT	ENDS
;	COMDAT ?not_eof@?$__char_traits_base@DH@_STL@@SAHABH@Z
_TEXT	SEGMENT PARA USE32 PUBLIC 'CODE'
_TEXT	ENDS
;	COMDAT ?eq_int_type@?$__char_traits_base@DH@_STL@@SA_NABH0@Z
_TEXT	SEGMENT PARA USE32 PUBLIC 'CODE'
_TEXT	ENDS
;	COMDAT ?get_allocator@?$basic_string@DV?$char_traits@D@_STL@@V?$allocator@D@2@@_STL@@QBE?AV?$allocator@D@2@XZ
_TEXT	SEGMENT PARA USE32 PUBLIC 'CODE'
_TEXT	ENDS
;	COMDAT ??4?$basic_string@DV?$char_traits@D@_STL@@V?$allocator@D@2@@_STL@@QAEAAV01@PBD@Z
_TEXT	SEGMENT PARA USE32 PUBLIC 'CODE'
_TEXT	ENDS
;	COMDAT ?_M_terminate_string@?$basic_string@DV?$char_traits@D@_STL@@V?$allocator@D@2@@_STL@@AAEXXZ
_TEXT	SEGMENT PARA USE32 PUBLIC 'CODE'
_TEXT	ENDS
;	COMDAT ?size@?$basic_string@DV?$char_traits@D@_STL@@V?$allocator@D@2@@_STL@@QBEIXZ
_TEXT	SEGMENT PARA USE32 PUBLIC 'CODE'
_TEXT	ENDS
;	COMDAT ?c_str@?$basic_string@DV?$char_traits@D@_STL@@V?$allocator@D@2@@_STL@@QBEPBDXZ
_TEXT	SEGMENT PARA USE32 PUBLIC 'CODE'
_TEXT	ENDS
;	COMDAT ??0?$_String_base@DV?$allocator@D@_STL@@@_STL@@QAE@ABV?$allocator@D@1@@Z
_TEXT	SEGMENT PARA USE32 PUBLIC 'CODE'
_TEXT	ENDS
;	COMDAT ?allocate@?$allocator@D@_STL@@QAEPADIPBX@Z
_TEXT	SEGMENT PARA USE32 PUBLIC 'CODE'
_TEXT	ENDS
;	COMDAT ??0?$fpos@H@_STL@@QAE@J@Z
_TEXT	SEGMENT PARA USE32 PUBLIC 'CODE'
_TEXT	ENDS
;	COMDAT ??B?$fpos@H@_STL@@QBEJXZ
_TEXT	SEGMENT PARA USE32 PUBLIC 'CODE'
_TEXT	ENDS
;	COMDAT ?state@?$fpos@H@_STL@@QBEHXZ
_TEXT	SEGMENT PARA USE32 PUBLIC 'CODE'
_TEXT	ENDS
;	COMDAT ?is_open@?$basic_filebuf@DV?$char_traits@D@_STL@@@_STL@@QBE_NXZ
_TEXT	SEGMENT PARA USE32 PUBLIC 'CODE'
_TEXT	ENDS
;	COMDAT ?_M_seek_return@?$basic_filebuf@DV?$char_traits@D@_STL@@@_STL@@AAE?AV?$fpos@H@2@JH@Z
_TEXT	SEGMENT PARA USE32 PUBLIC 'CODE'
_TEXT	ENDS
;	COMDAT ??0?$list@V?$basic_string@DV?$char_traits@D@_STL@@V?$allocator@D@2@@_STL@@V?$allocator@V?$basic_string@DV?$char_traits@D@_STL@@V?$allocator@D@2@@_STL@@@2@@_STL@@QAE@ABV01@@Z
_TEXT	SEGMENT PARA USE32 PUBLIC 'CODE'
_TEXT	ENDS
;	COMDAT ??0?$_Filebuf_Tmp_Buf@D@_STL@@QAE@H@Z
_TEXT	SEGMENT PARA USE32 PUBLIC 'CODE'
_TEXT	ENDS
;	COMDAT ??1?$_Filebuf_Tmp_Buf@D@_STL@@QAE@XZ
_TEXT	SEGMENT PARA USE32 PUBLIC 'CODE'
_TEXT	ENDS
;	COMDAT ??0?$vector@HV?$allocator@H@_STL@@@_STL@@QAE@ABV?$allocator@H@1@@Z
_TEXT	SEGMENT PARA USE32 PUBLIC 'CODE'
_TEXT	ENDS
;	COMDAT ??1?$vector@HV?$allocator@H@_STL@@@_STL@@QAE@XZ
_TEXT	SEGMENT PARA USE32 PUBLIC 'CODE'
_TEXT	ENDS
;	COMDAT ?push_back@?$vector@HV?$allocator@H@_STL@@@_STL@@QAEXABH@Z
_TEXT	SEGMENT PARA USE32 PUBLIC 'CODE'
_TEXT	ENDS
;	COMDAT ?clear@?$vector@HV?$allocator@H@_STL@@@_STL@@QAEXXZ
_TEXT	SEGMENT PARA USE32 PUBLIC 'CODE'
_TEXT	ENDS
;	COMDAT ??0?$allocator@H@_STL@@QAE@XZ
_TEXT	SEGMENT PARA USE32 PUBLIC 'CODE'
_TEXT	ENDS
;	COMDAT ??1?$allocator@H@_STL@@QAE@XZ
_TEXT	SEGMENT PARA USE32 PUBLIC 'CODE'
_TEXT	ENDS
;	COMDAT ?GetSize@?$CTypeTable@VMString@@@@QBEHXZ
_TEXT	SEGMENT PARA USE32 PUBLIC 'CODE'
_TEXT	ENDS
;	COMDAT ??0?$bitset@$0O@@_STL@@QAE@K@Z
_TEXT	SEGMENT PARA USE32 PUBLIC 'CODE'
_TEXT	ENDS
;	COMDAT ??A?$bitset@$0O@@_STL@@QBE_NI@Z
_TEXT	SEGMENT PARA USE32 PUBLIC 'CODE'
_TEXT	ENDS
;	COMDAT ?_M_terminate_string_aux@?$basic_string@DV?$char_traits@D@_STL@@V?$allocator@D@2@@_STL@@AAEXABU__true_type@2@@Z
_TEXT	SEGMENT PARA USE32 PUBLIC 'CODE'
_TEXT	ENDS
;	COMDAT ?assign@?$basic_string@DV?$char_traits@D@_STL@@V?$allocator@D@2@@_STL@@QAEAAV12@PBD0@Z
_TEXT	SEGMENT PARA USE32 PUBLIC 'CODE'
_TEXT	ENDS
;	COMDAT ??0?$allocator@D@_STL@@QAE@ABV01@@Z
_TEXT	SEGMENT PARA USE32 PUBLIC 'CODE'
_TEXT	ENDS
;	COMDAT ??0?$_STLP_alloc_proxy@PADDV?$allocator@D@_STL@@@_STL@@QAE@ABV?$allocator@D@1@PAD@Z
_TEXT	SEGMENT PARA USE32 PUBLIC 'CODE'
_TEXT	ENDS
;	COMDAT ?state@?$fpos@H@_STL@@QAEXH@Z
_TEXT	SEGMENT PARA USE32 PUBLIC 'CODE'
_TEXT	ENDS
;	COMDAT ?get_allocator@?$_List_base@V?$basic_string@DV?$char_traits@D@_STL@@V?$allocator@D@2@@_STL@@V?$allocator@V?$basic_string@DV?$char_traits@D@_STL@@V?$allocator@D@2@@_STL@@@2@@_STL@@QBE?AV?$allocator@V?$basic_string@DV?$char_traits@D@_STL@@V?$allocator@D@2@@_STL@@@2@XZ
_TEXT	SEGMENT PARA USE32 PUBLIC 'CODE'
_TEXT	ENDS
;	COMDAT ?_M_insert_overflow@?$vector@HV?$allocator@H@_STL@@@_STL@@IAEXPAHABHABU__true_type@2@I_N@Z
_TEXT	SEGMENT PARA USE32 PUBLIC 'CODE'
_TEXT	ENDS
;	COMDAT ?begin@?$vector@HV?$allocator@H@_STL@@@_STL@@QAEPAHXZ
_TEXT	SEGMENT PARA USE32 PUBLIC 'CODE'
_TEXT	ENDS
;	COMDAT ?end@?$vector@HV?$allocator@H@_STL@@@_STL@@QAEPAHXZ
_TEXT	SEGMENT PARA USE32 PUBLIC 'CODE'
_TEXT	ENDS
;	COMDAT ?erase@?$vector@HV?$allocator@H@_STL@@@_STL@@QAEPAHPAH0@Z
_TEXT	SEGMENT PARA USE32 PUBLIC 'CODE'
_TEXT	ENDS
;	COMDAT ??0?$_Vector_base@HV?$allocator@H@_STL@@@_STL@@QAE@ABV?$allocator@H@1@@Z
_TEXT	SEGMENT PARA USE32 PUBLIC 'CODE'
_TEXT	ENDS
;	COMDAT ??1?$_Vector_base@HV?$allocator@H@_STL@@@_STL@@QAE@XZ
_TEXT	SEGMENT PARA USE32 PUBLIC 'CODE'
_TEXT	ENDS
;	COMDAT ?_M_do_sanitize@?$bitset@$0O@@_STL@@AAEXXZ
_TEXT	SEGMENT PARA USE32 PUBLIC 'CODE'
_TEXT	ENDS
;	COMDAT ?_Unchecked_test@?$bitset@$0O@@_STL@@QBE_NI@Z
_TEXT	SEGMENT PARA USE32 PUBLIC 'CODE'
_TEXT	ENDS
;	COMDAT ??1?$_STLP_alloc_proxy@PAHHV?$allocator@H@_STL@@@_STL@@QAE@XZ
_TEXT	SEGMENT PARA USE32 PUBLIC 'CODE'
_TEXT	ENDS
;	COMDAT ?copy@?$__char_traits_base@DH@_STL@@SAPADPADPBDI@Z
_TEXT	SEGMENT PARA USE32 PUBLIC 'CODE'
_TEXT	ENDS
;	COMDAT ?begin@?$basic_string@DV?$char_traits@D@_STL@@V?$allocator@D@2@@_STL@@QAEPADXZ
_TEXT	SEGMENT PARA USE32 PUBLIC 'CODE'
_TEXT	ENDS
;	COMDAT ?end@?$basic_string@DV?$char_traits@D@_STL@@V?$allocator@D@2@@_STL@@QAEPADXZ
_TEXT	SEGMENT PARA USE32 PUBLIC 'CODE'
_TEXT	ENDS
;	COMDAT ?erase@?$basic_string@DV?$char_traits@D@_STL@@V?$allocator@D@2@@_STL@@QAEPADPAD0@Z
_TEXT	SEGMENT PARA USE32 PUBLIC 'CODE'
_TEXT	ENDS
;	COMDAT ?size@?$vector@HV?$allocator@H@_STL@@@_STL@@QBEIXZ
_TEXT	SEGMENT PARA USE32 PUBLIC 'CODE'
_TEXT	ENDS
;	COMDAT ?_M_clear@?$vector@HV?$allocator@H@_STL@@@_STL@@IAEXXZ
_TEXT	SEGMENT PARA USE32 PUBLIC 'CODE'
_TEXT	ENDS
;	COMDAT ?_M_set@?$vector@HV?$allocator@H@_STL@@@_STL@@IAEXPAH00@Z
_TEXT	SEGMENT PARA USE32 PUBLIC 'CODE'
_TEXT	ENDS
;	COMDAT ?allocate@?$allocator@H@_STL@@QAEPAHIPBX@Z
_TEXT	SEGMENT PARA USE32 PUBLIC 'CODE'
_TEXT	ENDS
;	COMDAT ?deallocate@?$allocator@H@_STL@@QAEXPAHI@Z
_TEXT	SEGMENT PARA USE32 PUBLIC 'CODE'
_TEXT	ENDS
;	COMDAT ??0?$_STLP_alloc_proxy@PAHHV?$allocator@H@_STL@@@_STL@@QAE@ABV?$allocator@H@1@PAH@Z
_TEXT	SEGMENT PARA USE32 PUBLIC 'CODE'
_TEXT	ENDS
;	COMDAT ?_M_do_sanitize@?$_Sanitize@$0O@@_STL@@SAXAAK@Z
_TEXT	SEGMENT PARA USE32 PUBLIC 'CODE'
_TEXT	ENDS
;	COMDAT ?move@?$__char_traits_base@DH@_STL@@SAPADPADPBDI@Z
_TEXT	SEGMENT PARA USE32 PUBLIC 'CODE'
_TEXT	ENDS
;	COMDAT ??0?$allocator@H@_STL@@QAE@ABV01@@Z
_TEXT	SEGMENT PARA USE32 PUBLIC 'CODE'
_TEXT	ENDS
;	COMDAT ??$_M_range_initialize@PBD@?$basic_string@DV?$char_traits@D@_STL@@V?$allocator@D@2@@_STL@@AAEXPBD0@Z
_TEXT	SEGMENT PARA USE32 PUBLIC 'CODE'
_TEXT	ENDS
;	COMDAT ??$_M_range_initialize@PAD@?$basic_string@DV?$char_traits@D@_STL@@V?$allocator@D@2@@_STL@@AAEXPAD0@Z
_TEXT	SEGMENT PARA USE32 PUBLIC 'CODE'
_TEXT	ENDS
;	COMDAT ?close@?$basic_filebuf@DV?$char_traits@D@_STL@@@_STL@@QAEPAV12@XZ
_TEXT	SEGMENT PARA USE32 PUBLIC 'CODE'
_TEXT	ENDS
;	COMDAT ?_M_exit_input_mode@?$basic_filebuf@DV?$char_traits@D@_STL@@@_STL@@AAEXXZ
_TEXT	SEGMENT PARA USE32 PUBLIC 'CODE'
_TEXT	ENDS
;	COMDAT ?_M_switch_to_output_mode@?$basic_filebuf@DV?$char_traits@D@_STL@@@_STL@@AAE_NXZ
_TEXT	SEGMENT PARA USE32 PUBLIC 'CODE'
_TEXT	ENDS
;	COMDAT ?_M_output_error@?$basic_filebuf@DV?$char_traits@D@_STL@@@_STL@@AAEHXZ
_TEXT	SEGMENT PARA USE32 PUBLIC 'CODE'
_TEXT	ENDS
;	COMDAT ?_M_allocate_buffers@?$basic_filebuf@DV?$char_traits@D@_STL@@@_STL@@AAE_NPADH@Z
_TEXT	SEGMENT PARA USE32 PUBLIC 'CODE'
_TEXT	ENDS
;	COMDAT ?_M_deallocate_buffers@?$basic_filebuf@DV?$char_traits@D@_STL@@@_STL@@AAEXXZ
_TEXT	SEGMENT PARA USE32 PUBLIC 'CODE'
_TEXT	ENDS
;	COMDAT ?_M_seek_init@?$basic_filebuf@DV?$char_traits@D@_STL@@@_STL@@AAE_N_N@Z
_TEXT	SEGMENT PARA USE32 PUBLIC 'CODE'
_TEXT	ENDS
;	COMDAT ?_M_setup_codecvt@?$basic_filebuf@DV?$char_traits@D@_STL@@@_STL@@AAEXABVlocale@2@@Z
_TEXT	SEGMENT PARA USE32 PUBLIC 'CODE'
_TEXT	ENDS
;	COMDAT ??$equal@PADPADU?$_Eq_traits@V?$char_traits@D@_STL@@@_STL@@@_STL@@YA_NPAD00U?$_Eq_traits@V?$char_traits@D@_STL@@@0@@Z
_TEXT	SEGMENT PARA USE32 PUBLIC 'CODE'
_TEXT	ENDS
;	COMDAT ??$_Destroy@V?$basic_string@DV?$char_traits@D@_STL@@V?$allocator@D@2@@_STL@@@_STL@@YAXPAV?$basic_string@DV?$char_traits@D@_STL@@V?$allocator@D@2@@0@@Z
_TEXT	SEGMENT PARA USE32 PUBLIC 'CODE'
_TEXT	ENDS
;	COMDAT ??$_M_assign_dispatch@PAD@?$basic_string@DV?$char_traits@D@_STL@@V?$allocator@D@2@@_STL@@AAEAAV01@PAD0ABU__false_type@1@@Z
_TEXT	SEGMENT PARA USE32 PUBLIC 'CODE'
_TEXT	ENDS
;	COMDAT ??1?$CTypeMap2@VNPC_SCRIPT@@@@UAE@XZ
_TEXT	SEGMENT PARA USE32 PUBLIC 'CODE'
_TEXT	ENDS
;	COMDAT ?Release@?$CTypeMap2@VNPC_SCRIPT@@@@UAEXXZ
_TEXT	SEGMENT PARA USE32 PUBLIC 'CODE'
_TEXT	ENDS
;	COMDAT ?AddData@?$CTypeMap2@VNPC_SCRIPT@@@@UAE_NIPAVNPC_SCRIPT@@@Z
_TEXT	SEGMENT PARA USE32 PUBLIC 'CODE'
_TEXT	ENDS
;	COMDAT ?GetData@?$CTypeMap2@VNPC_SCRIPT@@@@UBEPBVNPC_SCRIPT@@I@Z
_TEXT	SEGMENT PARA USE32 PUBLIC 'CODE'
_TEXT	ENDS
;	COMDAT ?GetData@?$CTypeMap2@VNPC_SCRIPT@@@@UAEPAVNPC_SCRIPT@@I@Z
_TEXT	SEGMENT PARA USE32 PUBLIC 'CODE'
_TEXT	ENDS
;	COMDAT ?RemoveData@?$CTypeMap2@VNPC_SCRIPT@@@@UAE_NI@Z
_TEXT	SEGMENT PARA USE32 PUBLIC 'CODE'
_TEXT	ENDS
;	COMDAT ??$insert@U?$_List_iterator@V?$basic_string@DV?$char_traits@D@_STL@@V?$allocator@D@2@@_STL@@U?$_Const_traits@V?$basic_string@DV?$char_traits@D@_STL@@V?$allocator@D@2@@_STL@@@2@@_STL@@@?$list@V?$basic_string@DV?$char_traits@D@_STL@@V?$allocator@D@2@@_STL@@V?$allocator@V?$basic_string@DV?$char_traits@D@_STL@@V?$allocator@D@2@@_STL@@@2@@_STL@@QAEXU?$_List_iterator@V?$basic_string@DV?$char_traits@D@_STL@@V?$allocator@D@2@@_STL@@U?$_Nonconst_traits@V?$basic_string@DV?$char_traits@D@_STL@@V?$allocator@D@2@@_STL@@@2@@1@U?$_List_iterator@V?$basic_string@DV?$char_traits@D@_STL@@V?$allocator@D@2@@_STL@@U?$_Const_traits@V?$basic_string@DV?$char_traits@D@_STL@@V?$allocator@D@2@@_STL@@@2@@1@1@Z
_TEXT	SEGMENT PARA USE32 PUBLIC 'CODE'
_TEXT	ENDS
;	COMDAT ??$_Destroy@PAH@_STL@@YAXPAH0@Z
_TEXT	SEGMENT PARA USE32 PUBLIC 'CODE'
_TEXT	ENDS
;	COMDAT ??$_Construct@HH@_STL@@YAXPAHABH@Z
_TEXT	SEGMENT PARA USE32 PUBLIC 'CODE'
_TEXT	ENDS
;	COMDAT ??$append@PBD@?$basic_string@DV?$char_traits@D@_STL@@V?$allocator@D@2@@_STL@@QAEAAV01@PBD0@Z
_TEXT	SEGMENT PARA USE32 PUBLIC 'CODE'
_TEXT	ENDS
;	COMDAT ??$?0U?$_List_node@V?$basic_string@DV?$char_traits@D@_STL@@V?$allocator@D@2@@_STL@@@_STL@@@?$allocator@V?$basic_string@DV?$char_traits@D@_STL@@V?$allocator@D@2@@_STL@@@_STL@@QAE@ABV?$allocator@U?$_List_node@V?$basic_string@DV?$char_traits@D@_STL@@V?$allocator@D@2@@_STL@@@_STL@@@1@@Z
_TEXT	SEGMENT PARA USE32 PUBLIC 'CODE'
_TEXT	ENDS
;	COMDAT ??$max@I@_STL@@YAABIABI0@Z
_TEXT	SEGMENT PARA USE32 PUBLIC 'CODE'
_TEXT	ENDS
;	COMDAT ??$fill_n@PAHIH@_STL@@YAPAHPAHIABH@Z
_TEXT	SEGMENT PARA USE32 PUBLIC 'CODE'
_TEXT	ENDS
;	COMDAT ??$__copy_ptrs@PAHPAH@_STL@@YAPAHPAH00ABU__true_type@0@@Z
_TEXT	SEGMENT PARA USE32 PUBLIC 'CODE'
_TEXT	ENDS
;	COMDAT ??_G?$basic_string@DV?$char_traits@D@_STL@@V?$allocator@D@2@@_STL@@QAEPAXI@Z
_TEXT	SEGMENT PARA USE32 PUBLIC 'CODE'
_TEXT	ENDS
;	COMDAT ??_G?$CTypeMap2@VNPC_SCRIPT@@@@UAEPAXI@Z
_TEXT	SEGMENT PARA USE32 PUBLIC 'CODE'
_TEXT	ENDS
;	COMDAT ??1?$map@IPAVNPC_SCRIPT@@U?$less@I@_STL@@V?$allocator@U?$pair@$$CBIPAVNPC_SCRIPT@@@_STL@@@3@@_STL@@QAE@XZ
_TEXT	SEGMENT PARA USE32 PUBLIC 'CODE'
_TEXT	ENDS
;	COMDAT ??_GNPC_SCRIPT@@QAEPAXI@Z
_TEXT	SEGMENT PARA USE32 PUBLIC 'CODE'
_TEXT	ENDS
;	COMDAT ??1NPC_SCRIPT@@QAE@XZ
_TEXT	SEGMENT PARA USE32 PUBLIC 'CODE'
_TEXT	ENDS
;	COMDAT ?_M_exit_putback_mode@?$basic_filebuf@DV?$char_traits@D@_STL@@@_STL@@AAEXXZ
_TEXT	SEGMENT PARA USE32 PUBLIC 'CODE'
_TEXT	ENDS
;	COMDAT ??0?$_List_iterator@V?$basic_string@DV?$char_traits@D@_STL@@V?$allocator@D@2@@_STL@@U?$_Nonconst_traits@V?$basic_string@DV?$char_traits@D@_STL@@V?$allocator@D@2@@_STL@@@2@@_STL@@QAE@ABU01@@Z
_TEXT	SEGMENT PARA USE32 PUBLIC 'CODE'
_TEXT	ENDS
;	COMDAT ??R?$_Eq_traits@V?$char_traits@D@_STL@@@_STL@@QBE_NABD0@Z
_TEXT	SEGMENT PARA USE32 PUBLIC 'CODE'
_TEXT	ENDS
;	COMDAT ?begin@?$map@IPAVNPC_SCRIPT@@U?$less@I@_STL@@V?$allocator@U?$pair@$$CBIPAVNPC_SCRIPT@@@_STL@@@3@@_STL@@QAE?AU?$_Rb_tree_iterator@U?$pair@$$CBIPAVNPC_SCRIPT@@@_STL@@U?$_Nonconst_traits@U?$pair@$$CBIPAVNPC_SCRIPT@@@_STL@@@2@@2@XZ
_TEXT	SEGMENT PARA USE32 PUBLIC 'CODE'
_TEXT	ENDS
;	COMDAT ?end@?$map@IPAVNPC_SCRIPT@@U?$less@I@_STL@@V?$allocator@U?$pair@$$CBIPAVNPC_SCRIPT@@@_STL@@@3@@_STL@@QAE?AU?$_Rb_tree_iterator@U?$pair@$$CBIPAVNPC_SCRIPT@@@_STL@@U?$_Nonconst_traits@U?$pair@$$CBIPAVNPC_SCRIPT@@@_STL@@@2@@2@XZ
_TEXT	SEGMENT PARA USE32 PUBLIC 'CODE'
_TEXT	ENDS
;	COMDAT ?end@?$map@IPAVNPC_SCRIPT@@U?$less@I@_STL@@V?$allocator@U?$pair@$$CBIPAVNPC_SCRIPT@@@_STL@@@3@@_STL@@QBE?AU?$_Rb_tree_iterator@U?$pair@$$CBIPAVNPC_SCRIPT@@@_STL@@U?$_Const_traits@U?$pair@$$CBIPAVNPC_SCRIPT@@@_STL@@@2@@2@XZ
_TEXT	SEGMENT PARA USE32 PUBLIC 'CODE'
_TEXT	ENDS
;	COMDAT ?insert@?$map@IPAVNPC_SCRIPT@@U?$less@I@_STL@@V?$allocator@U?$pair@$$CBIPAVNPC_SCRIPT@@@_STL@@@3@@_STL@@QAE?AU?$pair@U?$_Rb_tree_iterator@U?$pair@$$CBIPAVNPC_SCRIPT@@@_STL@@U?$_Nonconst_traits@U?$pair@$$CBIPAVNPC_SCRIPT@@@_STL@@@2@@_STL@@_N@2@ABU?$pair@$$CBIPAVNPC_SCRIPT@@@2@@Z
_TEXT	SEGMENT PARA USE32 PUBLIC 'CODE'
_TEXT	ENDS
;	COMDAT ?erase@?$map@IPAVNPC_SCRIPT@@U?$less@I@_STL@@V?$allocator@U?$pair@$$CBIPAVNPC_SCRIPT@@@_STL@@@3@@_STL@@QAEXU?$_Rb_tree_iterator@U?$pair@$$CBIPAVNPC_SCRIPT@@@_STL@@U?$_Nonconst_traits@U?$pair@$$CBIPAVNPC_SCRIPT@@@_STL@@@2@@2@@Z
_TEXT	SEGMENT PARA USE32 PUBLIC 'CODE'
_TEXT	ENDS
;	COMDAT ?clear@?$map@IPAVNPC_SCRIPT@@U?$less@I@_STL@@V?$allocator@U?$pair@$$CBIPAVNPC_SCRIPT@@@_STL@@@3@@_STL@@QAEXXZ
_TEXT	SEGMENT PARA USE32 PUBLIC 'CODE'
_TEXT	ENDS
;	COMDAT ?find@?$map@IPAVNPC_SCRIPT@@U?$less@I@_STL@@V?$allocator@U?$pair@$$CBIPAVNPC_SCRIPT@@@_STL@@@3@@_STL@@QAE?AU?$_Rb_tree_iterator@U?$pair@$$CBIPAVNPC_SCRIPT@@@_STL@@U?$_Nonconst_traits@U?$pair@$$CBIPAVNPC_SCRIPT@@@_STL@@@2@@2@ABI@Z
_TEXT	SEGMENT PARA USE32 PUBLIC 'CODE'
_TEXT	ENDS
;	COMDAT ?find@?$map@IPAVNPC_SCRIPT@@U?$less@I@_STL@@V?$allocator@U?$pair@$$CBIPAVNPC_SCRIPT@@@_STL@@@3@@_STL@@QBE?AU?$_Rb_tree_iterator@U?$pair@$$CBIPAVNPC_SCRIPT@@@_STL@@U?$_Const_traits@U?$pair@$$CBIPAVNPC_SCRIPT@@@_STL@@@2@@2@ABI@Z
_TEXT	SEGMENT PARA USE32 PUBLIC 'CODE'
_TEXT	ENDS
;	COMDAT ??1?$_Rb_tree@IU?$pair@$$CBIPAVNPC_SCRIPT@@@_STL@@U?$_Select1st@U?$pair@$$CBIPAVNPC_SCRIPT@@@_STL@@@2@U?$less@I@2@V?$allocator@U?$pair@$$CBIPAVNPC_SCRIPT@@@_STL@@@2@@_STL@@QAE@XZ
_TEXT	SEGMENT PARA USE32 PUBLIC 'CODE'
_TEXT	ENDS
;	COMDAT ??0?$_Rb_tree_iterator@U?$pair@$$CBIPAVNPC_SCRIPT@@@_STL@@U?$_Nonconst_traits@U?$pair@$$CBIPAVNPC_SCRIPT@@@_STL@@@2@@_STL@@QAE@ABU01@@Z
_TEXT	SEGMENT PARA USE32 PUBLIC 'CODE'
_TEXT	ENDS
;	COMDAT ??D?$_Rb_tree_iterator@U?$pair@$$CBIPAVNPC_SCRIPT@@@_STL@@U?$_Nonconst_traits@U?$pair@$$CBIPAVNPC_SCRIPT@@@_STL@@@2@@_STL@@QBEAAU?$pair@$$CBIPAVNPC_SCRIPT@@@1@XZ
_TEXT	SEGMENT PARA USE32 PUBLIC 'CODE'
_TEXT	ENDS
;	COMDAT ??E?$_Rb_tree_iterator@U?$pair@$$CBIPAVNPC_SCRIPT@@@_STL@@U?$_Nonconst_traits@U?$pair@$$CBIPAVNPC_SCRIPT@@@_STL@@@2@@_STL@@QAE?AU01@H@Z
_TEXT	SEGMENT PARA USE32 PUBLIC 'CODE'
_TEXT	ENDS
;	COMDAT ??0?$pair@$$CBIPAVNPC_SCRIPT@@@_STL@@QAE@ABIABQAVNPC_SCRIPT@@@Z
_TEXT	SEGMENT PARA USE32 PUBLIC 'CODE'
_TEXT	ENDS
;	COMDAT ??D?$_Rb_tree_iterator@U?$pair@$$CBIPAVNPC_SCRIPT@@@_STL@@U?$_Const_traits@U?$pair@$$CBIPAVNPC_SCRIPT@@@_STL@@@2@@_STL@@QBEABU?$pair@$$CBIPAVNPC_SCRIPT@@@1@XZ
_TEXT	SEGMENT PARA USE32 PUBLIC 'CODE'
_TEXT	ENDS
;	COMDAT ?begin@?$_Rb_tree@IU?$pair@$$CBIPAVNPC_SCRIPT@@@_STL@@U?$_Select1st@U?$pair@$$CBIPAVNPC_SCRIPT@@@_STL@@@2@U?$less@I@2@V?$allocator@U?$pair@$$CBIPAVNPC_SCRIPT@@@_STL@@@2@@_STL@@QAE?AU?$_Rb_tree_iterator@U?$pair@$$CBIPAVNPC_SCRIPT@@@_STL@@U?$_Nonconst_traits@U?$pair@$$CBIPAVNPC_SCRIPT@@@_STL@@@2@@2@XZ
_TEXT	SEGMENT PARA USE32 PUBLIC 'CODE'
_TEXT	ENDS
;	COMDAT ?end@?$_Rb_tree@IU?$pair@$$CBIPAVNPC_SCRIPT@@@_STL@@U?$_Select1st@U?$pair@$$CBIPAVNPC_SCRIPT@@@_STL@@@2@U?$less@I@2@V?$allocator@U?$pair@$$CBIPAVNPC_SCRIPT@@@_STL@@@2@@_STL@@QAE?AU?$_Rb_tree_iterator@U?$pair@$$CBIPAVNPC_SCRIPT@@@_STL@@U?$_Nonconst_traits@U?$pair@$$CBIPAVNPC_SCRIPT@@@_STL@@@2@@2@XZ
_TEXT	SEGMENT PARA USE32 PUBLIC 'CODE'
_TEXT	ENDS
;	COMDAT ?end@?$_Rb_tree@IU?$pair@$$CBIPAVNPC_SCRIPT@@@_STL@@U?$_Select1st@U?$pair@$$CBIPAVNPC_SCRIPT@@@_STL@@@2@U?$less@I@2@V?$allocator@U?$pair@$$CBIPAVNPC_SCRIPT@@@_STL@@@2@@_STL@@QBE?AU?$_Rb_tree_iterator@U?$pair@$$CBIPAVNPC_SCRIPT@@@_STL@@U?$_Const_traits@U?$pair@$$CBIPAVNPC_SCRIPT@@@_STL@@@2@@2@XZ
_TEXT	SEGMENT PARA USE32 PUBLIC 'CODE'
_TEXT	ENDS
;	COMDAT ?erase@?$_Rb_tree@IU?$pair@$$CBIPAVNPC_SCRIPT@@@_STL@@U?$_Select1st@U?$pair@$$CBIPAVNPC_SCRIPT@@@_STL@@@2@U?$less@I@2@V?$allocator@U?$pair@$$CBIPAVNPC_SCRIPT@@@_STL@@@2@@_STL@@QAEXU?$_Rb_tree_iterator@U?$pair@$$CBIPAVNPC_SCRIPT@@@_STL@@U?$_Nonconst_traits@U?$pair@$$CBIPAVNPC_SCRIPT@@@_STL@@@2@@2@@Z
_TEXT	SEGMENT PARA USE32 PUBLIC 'CODE'
_TEXT	ENDS
;	COMDAT ?clear@?$_Rb_tree@IU?$pair@$$CBIPAVNPC_SCRIPT@@@_STL@@U?$_Select1st@U?$pair@$$CBIPAVNPC_SCRIPT@@@_STL@@@2@U?$less@I@2@V?$allocator@U?$pair@$$CBIPAVNPC_SCRIPT@@@_STL@@@2@@_STL@@QAEXXZ
_TEXT	SEGMENT PARA USE32 PUBLIC 'CODE'
_TEXT	ENDS
;	COMDAT ??1?$_Rb_tree_base@U?$pair@$$CBIPAVNPC_SCRIPT@@@_STL@@V?$allocator@U?$pair@$$CBIPAVNPC_SCRIPT@@@_STL@@@2@@_STL@@QAE@XZ
_TEXT	SEGMENT PARA USE32 PUBLIC 'CODE'
_TEXT	ENDS
;	COMDAT ??1?$_STLP_alloc_proxy@PAU?$_Rb_tree_node@U?$pair@$$CBIPAVNPC_SCRIPT@@@_STL@@@_STL@@U12@V?$allocator@U?$_Rb_tree_node@U?$pair@$$CBIPAVNPC_SCRIPT@@@_STL@@@_STL@@@2@@_STL@@QAE@XZ
_TEXT	SEGMENT PARA USE32 PUBLIC 'CODE'
_TEXT	ENDS
;	COMDAT ?_M_root@?$_Rb_tree@IU?$pair@$$CBIPAVNPC_SCRIPT@@@_STL@@U?$_Select1st@U?$pair@$$CBIPAVNPC_SCRIPT@@@_STL@@@2@U?$less@I@2@V?$allocator@U?$pair@$$CBIPAVNPC_SCRIPT@@@_STL@@@2@@_STL@@IBEAAPAU?$_Rb_tree_node@U?$pair@$$CBIPAVNPC_SCRIPT@@@_STL@@@2@XZ
_TEXT	SEGMENT PARA USE32 PUBLIC 'CODE'
_TEXT	ENDS
;	COMDAT ?_M_leftmost@?$_Rb_tree@IU?$pair@$$CBIPAVNPC_SCRIPT@@@_STL@@U?$_Select1st@U?$pair@$$CBIPAVNPC_SCRIPT@@@_STL@@@2@U?$less@I@2@V?$allocator@U?$pair@$$CBIPAVNPC_SCRIPT@@@_STL@@@2@@_STL@@IBEAAPAU?$_Rb_tree_node@U?$pair@$$CBIPAVNPC_SCRIPT@@@_STL@@@2@XZ
_TEXT	SEGMENT PARA USE32 PUBLIC 'CODE'
_TEXT	ENDS
;	COMDAT ?_M_rightmost@?$_Rb_tree@IU?$pair@$$CBIPAVNPC_SCRIPT@@@_STL@@U?$_Select1st@U?$pair@$$CBIPAVNPC_SCRIPT@@@_STL@@@2@U?$less@I@2@V?$allocator@U?$pair@$$CBIPAVNPC_SCRIPT@@@_STL@@@2@@_STL@@IBEAAPAU?$_Rb_tree_node@U?$pair@$$CBIPAVNPC_SCRIPT@@@_STL@@@2@XZ
_TEXT	SEGMENT PARA USE32 PUBLIC 'CODE'
_TEXT	ENDS
;	COMDAT ??1?$allocator@U?$_Rb_tree_node@U?$pair@$$CBIPAVNPC_SCRIPT@@@_STL@@@_STL@@@_STL@@QAE@XZ
_TEXT	SEGMENT PARA USE32 PUBLIC 'CODE'
_TEXT	ENDS
;	COMDAT ?deallocate@?$allocator@U?$_Rb_tree_node@U?$pair@$$CBIPAVNPC_SCRIPT@@@_STL@@@_STL@@@_STL@@QAEXPAU?$_Rb_tree_node@U?$pair@$$CBIPAVNPC_SCRIPT@@@_STL@@@2@I@Z
_TEXT	SEGMENT PARA USE32 PUBLIC 'CODE'
_TEXT	ENDS
;	COMDAT ??0?$_Rb_tree_iterator@U?$pair@$$CBIPAVNPC_SCRIPT@@@_STL@@U?$_Nonconst_traits@U?$pair@$$CBIPAVNPC_SCRIPT@@@_STL@@@2@@_STL@@QAE@PAU?$_Rb_tree_node@U?$pair@$$CBIPAVNPC_SCRIPT@@@_STL@@@1@@Z
_TEXT	SEGMENT PARA USE32 PUBLIC 'CODE'
_TEXT	ENDS
;	COMDAT ??0?$_Rb_tree_iterator@U?$pair@$$CBIPAVNPC_SCRIPT@@@_STL@@U?$_Const_traits@U?$pair@$$CBIPAVNPC_SCRIPT@@@_STL@@@2@@_STL@@QAE@PAU?$_Rb_tree_node@U?$pair@$$CBIPAVNPC_SCRIPT@@@_STL@@@1@@Z
_TEXT	SEGMENT PARA USE32 PUBLIC 'CODE'
_TEXT	ENDS
;	COMDAT ??$_M_range_initialize@PBD@?$basic_string@DV?$char_traits@D@_STL@@V?$allocator@D@2@@_STL@@AAEXPBD0ABUforward_iterator_tag@1@@Z
_TEXT	SEGMENT PARA USE32 PUBLIC 'CODE'
_TEXT	ENDS
;	COMDAT ??$_M_range_initialize@PAD@?$basic_string@DV?$char_traits@D@_STL@@V?$allocator@D@2@@_STL@@AAEXPAD0ABUforward_iterator_tag@1@@Z
_TEXT	SEGMENT PARA USE32 PUBLIC 'CODE'
_TEXT	ENDS
;	COMDAT ?_M_unshift@?$basic_filebuf@DV?$char_traits@D@_STL@@@_STL@@AAE_NXZ
_TEXT	SEGMENT PARA USE32 PUBLIC 'CODE'
_TEXT	ENDS
;	COMDAT ?_M_allocate_buffers@?$basic_filebuf@DV?$char_traits@D@_STL@@@_STL@@AAE_NXZ
_TEXT	SEGMENT PARA USE32 PUBLIC 'CODE'
_TEXT	ENDS
;	COMDAT ??$max@H@_STL@@YAABHABH0@Z
_TEXT	SEGMENT PARA USE32 PUBLIC 'CODE'
_TEXT	ENDS
;	COMDAT ??$use_facet@V?$codecvt@DDH@_STL@@@_STL@@YAABV?$codecvt@DDH@0@ABVlocale@0@@Z
_TEXT	SEGMENT PARA USE32 PUBLIC 'CODE'
_TEXT	ENDS
;	COMDAT ??$append@PAD@?$basic_string@DV?$char_traits@D@_STL@@V?$allocator@D@2@@_STL@@QAEAAV01@PAD0@Z
_TEXT	SEGMENT PARA USE32 PUBLIC 'CODE'
_TEXT	ENDS
;	COMDAT ??$_M_insert_dispatch@U?$_List_iterator@V?$basic_string@DV?$char_traits@D@_STL@@V?$allocator@D@2@@_STL@@U?$_Const_traits@V?$basic_string@DV?$char_traits@D@_STL@@V?$allocator@D@2@@_STL@@@2@@_STL@@@?$list@V?$basic_string@DV?$char_traits@D@_STL@@V?$allocator@D@2@@_STL@@V?$allocator@V?$basic_string@DV?$char_traits@D@_STL@@V?$allocator@D@2@@_STL@@@2@@_STL@@QAEXU?$_List_iterator@V?$basic_string@DV?$char_traits@D@_STL@@V?$allocator@D@2@@_STL@@U?$_Nonconst_traits@V?$basic_string@DV?$char_traits@D@_STL@@V?$allocator@D@2@@_STL@@@2@@1@U?$_List_iterator@V?$basic_string@DV?$char_traits@D@_STL@@V?$allocator@D@2@@_STL@@U?$_Const_traits@V?$basic_string@DV?$char_traits@D@_STL@@V?$allocator@D@2@@_STL@@@2@@1@1ABU__false_type@1@@Z
_TEXT	SEGMENT PARA USE32 PUBLIC 'CODE'
_TEXT	ENDS
;	COMDAT ??$__destroy@PAHH@_STL@@YAXPAH00@Z
_TEXT	SEGMENT PARA USE32 PUBLIC 'CODE'
_TEXT	ENDS
;	COMDAT ??$_M_append_dispatch@PBD@?$basic_string@DV?$char_traits@D@_STL@@V?$allocator@D@2@@_STL@@AAEAAV01@PBD0ABU__false_type@1@@Z
_TEXT	SEGMENT PARA USE32 PUBLIC 'CODE'
_TEXT	ENDS
;	COMDAT ?_M_erase@?$_Rb_tree@IU?$pair@$$CBIPAVNPC_SCRIPT@@@_STL@@U?$_Select1st@U?$pair@$$CBIPAVNPC_SCRIPT@@@_STL@@@2@U?$less@I@2@V?$allocator@U?$pair@$$CBIPAVNPC_SCRIPT@@@_STL@@@2@@_STL@@AAEXPAU?$_Rb_tree_node@U?$pair@$$CBIPAVNPC_SCRIPT@@@_STL@@@2@@Z
_TEXT	SEGMENT PARA USE32 PUBLIC 'CODE'
_TEXT	ENDS
;	COMDAT ?insert_unique@?$_Rb_tree@IU?$pair@$$CBIPAVNPC_SCRIPT@@@_STL@@U?$_Select1st@U?$pair@$$CBIPAVNPC_SCRIPT@@@_STL@@@2@U?$less@I@2@V?$allocator@U?$pair@$$CBIPAVNPC_SCRIPT@@@_STL@@@2@@_STL@@QAE?AU?$pair@U?$_Rb_tree_iterator@U?$pair@$$CBIPAVNPC_SCRIPT@@@_STL@@U?$_Nonconst_traits@U?$pair@$$CBIPAVNPC_SCRIPT@@@_STL@@@2@@_STL@@_N@2@ABU?$pair@$$CBIPAVNPC_SCRIPT@@@2@@Z
_TEXT	SEGMENT PARA USE32 PUBLIC 'CODE'
_TEXT	ENDS
;	COMDAT ??1?$CTypeTable@VMString@@@@QAE@XZ
_TEXT	SEGMENT PARA USE32 PUBLIC 'CODE'
_TEXT	ENDS
;	COMDAT ??$find@I@?$_Rb_tree@IU?$pair@$$CBIPAVNPC_SCRIPT@@@_STL@@U?$_Select1st@U?$pair@$$CBIPAVNPC_SCRIPT@@@_STL@@@2@U?$less@I@2@V?$allocator@U?$pair@$$CBIPAVNPC_SCRIPT@@@_STL@@@2@@_STL@@QAE?AU?$_Rb_tree_iterator@U?$pair@$$CBIPAVNPC_SCRIPT@@@_STL@@U?$_Nonconst_traits@U?$pair@$$CBIPAVNPC_SCRIPT@@@_STL@@@2@@1@ABI@Z
_TEXT	SEGMENT PARA USE32 PUBLIC 'CODE'
_TEXT	ENDS
;	COMDAT ??$find@I@?$_Rb_tree@IU?$pair@$$CBIPAVNPC_SCRIPT@@@_STL@@U?$_Select1st@U?$pair@$$CBIPAVNPC_SCRIPT@@@_STL@@@2@U?$less@I@2@V?$allocator@U?$pair@$$CBIPAVNPC_SCRIPT@@@_STL@@@2@@_STL@@QBE?AU?$_Rb_tree_iterator@U?$pair@$$CBIPAVNPC_SCRIPT@@@_STL@@U?$_Const_traits@U?$pair@$$CBIPAVNPC_SCRIPT@@@_STL@@@2@@1@ABI@Z
_TEXT	SEGMENT PARA USE32 PUBLIC 'CODE'
_TEXT	ENDS
;	COMDAT ??$_Destroy@U?$pair@$$CBIPAVNPC_SCRIPT@@@_STL@@@_STL@@YAXPAU?$pair@$$CBIPAVNPC_SCRIPT@@@0@@Z
_TEXT	SEGMENT PARA USE32 PUBLIC 'CODE'
_TEXT	ENDS
;	COMDAT ??E?$_List_iterator@V?$basic_string@DV?$char_traits@D@_STL@@V?$allocator@D@2@@_STL@@U?$_Const_traits@V?$basic_string@DV?$char_traits@D@_STL@@V?$allocator@D@2@@_STL@@@2@@_STL@@QAEAAU01@XZ
_TEXT	SEGMENT PARA USE32 PUBLIC 'CODE'
_TEXT	ENDS
;	COMDAT ?_S_left@?$_Rb_tree@IU?$pair@$$CBIPAVNPC_SCRIPT@@@_STL@@U?$_Select1st@U?$pair@$$CBIPAVNPC_SCRIPT@@@_STL@@@2@U?$less@I@2@V?$allocator@U?$pair@$$CBIPAVNPC_SCRIPT@@@_STL@@@2@@_STL@@KAAAPAU?$_Rb_tree_node@U?$pair@$$CBIPAVNPC_SCRIPT@@@_STL@@@2@PAU32@@Z
_TEXT	SEGMENT PARA USE32 PUBLIC 'CODE'
_TEXT	ENDS
;	COMDAT ?_S_right@?$_Rb_tree@IU?$pair@$$CBIPAVNPC_SCRIPT@@@_STL@@U?$_Select1st@U?$pair@$$CBIPAVNPC_SCRIPT@@@_STL@@@2@U?$less@I@2@V?$allocator@U?$pair@$$CBIPAVNPC_SCRIPT@@@_STL@@@2@@_STL@@KAAAPAU?$_Rb_tree_node@U?$pair@$$CBIPAVNPC_SCRIPT@@@_STL@@@2@PAU32@@Z
_TEXT	SEGMENT PARA USE32 PUBLIC 'CODE'
_TEXT	ENDS
;	COMDAT ?_S_key@?$_Rb_tree@IU?$pair@$$CBIPAVNPC_SCRIPT@@@_STL@@U?$_Select1st@U?$pair@$$CBIPAVNPC_SCRIPT@@@_STL@@@2@U?$less@I@2@V?$allocator@U?$pair@$$CBIPAVNPC_SCRIPT@@@_STL@@@2@@_STL@@KAABIPAU?$_Rb_tree_node@U?$pair@$$CBIPAVNPC_SCRIPT@@@_STL@@@2@@Z
_TEXT	SEGMENT PARA USE32 PUBLIC 'CODE'
_TEXT	ENDS
;	COMDAT ?_S_key@?$_Rb_tree@IU?$pair@$$CBIPAVNPC_SCRIPT@@@_STL@@U?$_Select1st@U?$pair@$$CBIPAVNPC_SCRIPT@@@_STL@@@2@U?$less@I@2@V?$allocator@U?$pair@$$CBIPAVNPC_SCRIPT@@@_STL@@@2@@_STL@@KAABIPAU_Rb_tree_node_base@2@@Z
_TEXT	SEGMENT PARA USE32 PUBLIC 'CODE'
_TEXT	ENDS
;	COMDAT ??R?$less@I@_STL@@QBE_NABI0@Z
_TEXT	SEGMENT PARA USE32 PUBLIC 'CODE'
_TEXT	ENDS
;	COMDAT ??F?$_Rb_tree_iterator@U?$pair@$$CBIPAVNPC_SCRIPT@@@_STL@@U?$_Nonconst_traits@U?$pair@$$CBIPAVNPC_SCRIPT@@@_STL@@@2@@_STL@@QAEAAU01@XZ
_TEXT	SEGMENT PARA USE32 PUBLIC 'CODE'
_TEXT	ENDS
;	COMDAT ??0?$pair@U?$_Rb_tree_iterator@U?$pair@$$CBIPAVNPC_SCRIPT@@@_STL@@U?$_Nonconst_traits@U?$pair@$$CBIPAVNPC_SCRIPT@@@_STL@@@2@@_STL@@_N@_STL@@QAE@ABU?$_Rb_tree_iterator@U?$pair@$$CBIPAVNPC_SCRIPT@@@_STL@@U?$_Nonconst_traits@U?$pair@$$CBIPAVNPC_SCRIPT@@@_STL@@@2@@1@AB_N@Z
_TEXT	SEGMENT PARA USE32 PUBLIC 'CODE'
_TEXT	ENDS
;	COMDAT ??R?$_Select1st@U?$pair@$$CBIPAVNPC_SCRIPT@@@_STL@@@_STL@@QBEABIABU?$pair@$$CBIPAVNPC_SCRIPT@@@1@@Z
_TEXT	SEGMENT PARA USE32 PUBLIC 'CODE'
_TEXT	ENDS
;	COMDAT ?_S_value@?$_Rb_tree@IU?$pair@$$CBIPAVNPC_SCRIPT@@@_STL@@U?$_Select1st@U?$pair@$$CBIPAVNPC_SCRIPT@@@_STL@@@2@U?$less@I@2@V?$allocator@U?$pair@$$CBIPAVNPC_SCRIPT@@@_STL@@@2@@_STL@@KAAAU?$pair@$$CBIPAVNPC_SCRIPT@@@2@PAU?$_Rb_tree_node@U?$pair@$$CBIPAVNPC_SCRIPT@@@_STL@@@2@@Z
_TEXT	SEGMENT PARA USE32 PUBLIC 'CODE'
_TEXT	ENDS
;	COMDAT ??$distance@PBD@_STL@@YAHABQBD0@Z
_TEXT	SEGMENT PARA USE32 PUBLIC 'CODE'
_TEXT	ENDS
;	COMDAT ?_M_allocate_block@?$_String_base@DV?$allocator@D@_STL@@@_STL@@QAEXI@Z
_TEXT	SEGMENT PARA USE32 PUBLIC 'CODE'
_TEXT	ENDS
;	COMDAT ??$distance@PAD@_STL@@YAHABQAD0@Z
_TEXT	SEGMENT PARA USE32 PUBLIC 'CODE'
_TEXT	ENDS
;	COMDAT ??$uninitialized_copy@PADPAD@_STL@@YAPADPAD00@Z
_TEXT	SEGMENT PARA USE32 PUBLIC 'CODE'
_TEXT	ENDS
;	COMDAT ??$_M_append_dispatch@PAD@?$basic_string@DV?$char_traits@D@_STL@@V?$allocator@D@2@@_STL@@AAEAAV01@PAD0ABU__false_type@1@@Z
_TEXT	SEGMENT PARA USE32 PUBLIC 'CODE'
_TEXT	ENDS
;	COMDAT ??$__destroy_aux@PAH@_STL@@YAXPAH0ABU__true_type@0@@Z
_TEXT	SEGMENT PARA USE32 PUBLIC 'CODE'
_TEXT	ENDS
;	COMDAT ??$append@PBD@?$basic_string@DV?$char_traits@D@_STL@@V?$allocator@D@2@@_STL@@AAEAAV01@PBD0ABUforward_iterator_tag@1@@Z
_TEXT	SEGMENT PARA USE32 PUBLIC 'CODE'
_TEXT	ENDS
;	COMDAT ?_M_insert@?$_Rb_tree@IU?$pair@$$CBIPAVNPC_SCRIPT@@@_STL@@U?$_Select1st@U?$pair@$$CBIPAVNPC_SCRIPT@@@_STL@@@2@U?$less@I@2@V?$allocator@U?$pair@$$CBIPAVNPC_SCRIPT@@@_STL@@@2@@_STL@@AAE?AU?$_Rb_tree_iterator@U?$pair@$$CBIPAVNPC_SCRIPT@@@_STL@@U?$_Nonconst_traits@U?$pair@$$CBIPAVNPC_SCRIPT@@@_STL@@@2@@2@PAU_Rb_tree_node_base@2@0ABU?$pair@$$CBIPAVNPC_SCRIPT@@@2@0@Z
_TEXT	SEGMENT PARA USE32 PUBLIC 'CODE'
_TEXT	ENDS
;	COMDAT ?Release@?$CTypeTable@VMString@@@@QAEXXZ
_TEXT	SEGMENT PARA USE32 PUBLIC 'CODE'
_TEXT	ENDS
;	COMDAT ??$_M_find@I@?$_Rb_tree@IU?$pair@$$CBIPAVNPC_SCRIPT@@@_STL@@U?$_Select1st@U?$pair@$$CBIPAVNPC_SCRIPT@@@_STL@@@2@U?$less@I@2@V?$allocator@U?$pair@$$CBIPAVNPC_SCRIPT@@@_STL@@@2@@_STL@@ABEPAU?$_Rb_tree_node@U?$pair@$$CBIPAVNPC_SCRIPT@@@_STL@@@1@ABI@Z
_TEXT	SEGMENT PARA USE32 PUBLIC 'CODE'
_TEXT	ENDS
;	COMDAT ?_M_construct_null@?$basic_string@DV?$char_traits@D@_STL@@V?$allocator@D@2@@_STL@@AAEXPAD@Z
_TEXT	SEGMENT PARA USE32 PUBLIC 'CODE'
_TEXT	ENDS
;	COMDAT ?max_size@?$basic_string@DV?$char_traits@D@_STL@@V?$allocator@D@2@@_STL@@QBEIXZ
_TEXT	SEGMENT PARA USE32 PUBLIC 'CODE'
_TEXT	ENDS
;	COMDAT ?capacity@?$basic_string@DV?$char_traits@D@_STL@@V?$allocator@D@2@@_STL@@QBEIXZ
_TEXT	SEGMENT PARA USE32 PUBLIC 'CODE'
_TEXT	ENDS
;	COMDAT ?max_size@?$_String_base@DV?$allocator@D@_STL@@@_STL@@QBEIXZ
_TEXT	SEGMENT PARA USE32 PUBLIC 'CODE'
_TEXT	ENDS
;	COMDAT ?_M_create_node@?$_Rb_tree@IU?$pair@$$CBIPAVNPC_SCRIPT@@@_STL@@U?$_Select1st@U?$pair@$$CBIPAVNPC_SCRIPT@@@_STL@@@2@U?$less@I@2@V?$allocator@U?$pair@$$CBIPAVNPC_SCRIPT@@@_STL@@@2@@_STL@@IAEPAU?$_Rb_tree_node@U?$pair@$$CBIPAVNPC_SCRIPT@@@_STL@@@2@ABU?$pair@$$CBIPAVNPC_SCRIPT@@@2@@Z
_TEXT	SEGMENT PARA USE32 PUBLIC 'CODE'
_TEXT	ENDS
;	COMDAT ?_S_parent@?$_Rb_tree@IU?$pair@$$CBIPAVNPC_SCRIPT@@@_STL@@U?$_Select1st@U?$pair@$$CBIPAVNPC_SCRIPT@@@_STL@@@2@U?$less@I@2@V?$allocator@U?$pair@$$CBIPAVNPC_SCRIPT@@@_STL@@@2@@_STL@@KAAAPAU?$_Rb_tree_node@U?$pair@$$CBIPAVNPC_SCRIPT@@@_STL@@@2@PAU32@@Z
_TEXT	SEGMENT PARA USE32 PUBLIC 'CODE'
_TEXT	ENDS
;	COMDAT ?_M_construct_null_aux@?$basic_string@DV?$char_traits@D@_STL@@V?$allocator@D@2@@_STL@@AAEXPADABU__true_type@2@@Z
_TEXT	SEGMENT PARA USE32 PUBLIC 'CODE'
_TEXT	ENDS
;	COMDAT ?allocate@?$allocator@U?$_Rb_tree_node@U?$pair@$$CBIPAVNPC_SCRIPT@@@_STL@@@_STL@@@_STL@@QAEPAU?$_Rb_tree_node@U?$pair@$$CBIPAVNPC_SCRIPT@@@_STL@@@2@IPBX@Z
_TEXT	SEGMENT PARA USE32 PUBLIC 'CODE'
_TEXT	ENDS
;	COMDAT ??$__distance@PBD@_STL@@YAHABQBD0ABUrandom_access_iterator_tag@0@@Z
_TEXT	SEGMENT PARA USE32 PUBLIC 'CODE'
_TEXT	ENDS
;	COMDAT ?_M_throw_length_error@?$_String_base@DV?$allocator@D@_STL@@@_STL@@QBEXXZ
_TEXT	SEGMENT PARA USE32 PUBLIC 'CODE'
_TEXT	ENDS
;	COMDAT ??$__distance@PAD@_STL@@YAHABQAD0ABUrandom_access_iterator_tag@0@@Z
_TEXT	SEGMENT PARA USE32 PUBLIC 'CODE'
_TEXT	ENDS
;	COMDAT ??$__uninitialized_copy@PADPAD@_STL@@YAPADPAD00ABU__true_type@0@@Z
_TEXT	SEGMENT PARA USE32 PUBLIC 'CODE'
_TEXT	ENDS
;	COMDAT ??$append@PAD@?$basic_string@DV?$char_traits@D@_STL@@V?$allocator@D@2@@_STL@@AAEAAV01@PAD0ABUforward_iterator_tag@1@@Z
_TEXT	SEGMENT PARA USE32 PUBLIC 'CODE'
_TEXT	ENDS
;	COMDAT ??$_Construct@U?$pair@$$CBIPAVNPC_SCRIPT@@@_STL@@U12@@_STL@@YAXPAU?$pair@$$CBIPAVNPC_SCRIPT@@@0@ABU10@@Z
_TEXT	SEGMENT PARA USE32 PUBLIC 'CODE'
_TEXT	ENDS
;	COMDAT ??0?$pair@$$CBIPAVNPC_SCRIPT@@@_STL@@QAE@ABU01@@Z
_TEXT	SEGMENT PARA USE32 PUBLIC 'CODE'
_TEXT	ENDS
;	COMDAT ?_Ret@?$_BothPtrType@PADPAD@_STL@@SA?AU__true_type@2@XZ
_TEXT	SEGMENT PARA USE32 PUBLIC 'CODE'
_TEXT	ENDS
;	COMDAT ??$__copy_aux@PADPAD@_STL@@YAPADPAD00ABU__true_type@0@@Z
_TEXT	SEGMENT PARA USE32 PUBLIC 'CODE'
_TEXT	ENDS
;	COMDAT ?_Ret@?$_OKToMemCpy@DD@_STL@@SA?AU__true_type@2@XZ
_TEXT	SEGMENT PARA USE32 PUBLIC 'CODE'
_TEXT	ENDS
;	COMDAT ??$_IsOKToMemCpy@DD@_STL@@YA?AU?$_OKToMemCpy@DD@0@PAD0@Z
_TEXT	SEGMENT PARA USE32 PUBLIC 'CODE'
_TEXT	ENDS
;	COMDAT ??$__copy_ptrs@PADPAD@_STL@@YAPADPAD00ABU__true_type@0@@Z
_TEXT	SEGMENT PARA USE32 PUBLIC 'CODE'
_TEXT	ENDS
;	COMDAT ??_R3PCTalkBox@@8
rdata$r	SEGMENT DWORD USE32 PUBLIC 'CONST'
rdata$r	ENDS
;	COMDAT ??_R3Packet@@8
rdata$r	SEGMENT DWORD USE32 PUBLIC 'CONST'
rdata$r	ENDS
;	COMDAT ??_R3IFileIO@@8
rdata$r	SEGMENT DWORD USE32 PUBLIC 'CONST'
rdata$r	ENDS
;	COMDAT ??_R3ovfstream@@8
rdata$r	SEGMENT DWORD USE32 PUBLIC 'CONST'
rdata$r	ENDS
;	COMDAT ??_R3?$CTypeMap2@VNPC_SCRIPT@@@@8
rdata$r	SEGMENT DWORD USE32 PUBLIC 'CONST'
rdata$r	ENDS
;	COMDAT ??_R3ivfstream@@8
rdata$r	SEGMENT DWORD USE32 PUBLIC 'CONST'
rdata$r	ENDS
;	COMDAT ??_R3iovfs_base@@8
rdata$r	SEGMENT DWORD USE32 PUBLIC 'CONST'
rdata$r	ENDS
;	COMDAT ??_R2PCTalkBox@@8
rdata$r	SEGMENT DWORD USE32 PUBLIC 'CONST'
rdata$r	ENDS
;	COMDAT ??_R2Packet@@8
rdata$r	SEGMENT DWORD USE32 PUBLIC 'CONST'
rdata$r	ENDS
;	COMDAT ??_R2IFileIO@@8
rdata$r	SEGMENT DWORD USE32 PUBLIC 'CONST'
rdata$r	ENDS
;	COMDAT ??_R2ovfstream@@8
rdata$r	SEGMENT DWORD USE32 PUBLIC 'CONST'
rdata$r	ENDS
;	COMDAT ??_R2?$CTypeMap2@VNPC_SCRIPT@@@@8
rdata$r	SEGMENT DWORD USE32 PUBLIC 'CONST'
rdata$r	ENDS
;	COMDAT ??_R2ivfstream@@8
rdata$r	SEGMENT DWORD USE32 PUBLIC 'CONST'
rdata$r	ENDS
;	COMDAT ??_R2iovfs_base@@8
rdata$r	SEGMENT DWORD USE32 PUBLIC 'CONST'
rdata$r	ENDS
;	COMDAT ??_R13?0A@A@?$_List_base@PAVMString@@V?$allocator@PAVMString@@@_STL@@@_STL@@8
rdata$r	SEGMENT DWORD USE32 PUBLIC 'CONST'
rdata$r	ENDS
;	COMDAT ??_R13?0A@A@?$list@PAVMString@@V?$allocator@PAVMString@@@_STL@@@_STL@@8
rdata$r	SEGMENT DWORD USE32 PUBLIC 'CONST'
rdata$r	ENDS
;	COMDAT ??_R1A@?0A@A@MStringList@@8
rdata$r	SEGMENT DWORD USE32 PUBLIC 'CONST'
rdata$r	ENDS
;	COMDAT ??_R1A@?0A@A@PCTalkBox@@8
rdata$r	SEGMENT DWORD USE32 PUBLIC 'CONST'
rdata$r	ENDS
;	COMDAT ??_R1A@?0A@A@Packet@@8
rdata$r	SEGMENT DWORD USE32 PUBLIC 'CONST'
rdata$r	ENDS
;	COMDAT ??_R1A@?0A@A@IFileIO@@8
rdata$r	SEGMENT DWORD USE32 PUBLIC 'CONST'
rdata$r	ENDS
;	COMDAT ??_R1A@?0A@A@ovfstream@@8
rdata$r	SEGMENT DWORD USE32 PUBLIC 'CONST'
rdata$r	ENDS
;	COMDAT ??_R13?0A@A@?$map@IPAVNPC_SCRIPT@@U?$less@I@_STL@@V?$allocator@U?$pair@$$CBIPAVNPC_SCRIPT@@@_STL@@@3@@_STL@@8
rdata$r	SEGMENT DWORD USE32 PUBLIC 'CONST'
rdata$r	ENDS
;	COMDAT ??_R1A@?0A@A@?$CTypeMap2@VNPC_SCRIPT@@@@8
rdata$r	SEGMENT DWORD USE32 PUBLIC 'CONST'
rdata$r	ENDS
;	COMDAT ??_R1A@?0A@A@ivfstream@@8
rdata$r	SEGMENT DWORD USE32 PUBLIC 'CONST'
rdata$r	ENDS
;	COMDAT ??_R1A@?0A@A@iovfs_base@@8
rdata$r	SEGMENT DWORD USE32 PUBLIC 'CONST'
rdata$r	ENDS
;	COMDAT ??_R0?AV?$_List_base@PAVMString@@V?$allocator@PAVMString@@@_STL@@@_STL@@@8
_DATA	SEGMENT DWORD USE32 PUBLIC 'DATA'
_DATA	ENDS
;	COMDAT ??_R0?AV?$list@PAVMString@@V?$allocator@PAVMString@@@_STL@@@_STL@@@8
_DATA	SEGMENT DWORD USE32 PUBLIC 'DATA'
_DATA	ENDS
;	COMDAT ??_R0?AVMStringList@@@8
_DATA	SEGMENT DWORD USE32 PUBLIC 'DATA'
_DATA	ENDS
;	COMDAT ??_R0?AVPCTalkBox@@@8
_DATA	SEGMENT DWORD USE32 PUBLIC 'DATA'
_DATA	ENDS
;	COMDAT ??_R0?AVPacket@@@8
_DATA	SEGMENT DWORD USE32 PUBLIC 'DATA'
_DATA	ENDS
;	COMDAT ??_R0?AVIFileIO@@@8
_DATA	SEGMENT DWORD USE32 PUBLIC 'DATA'
_DATA	ENDS
;	COMDAT ??_R0?AVovfstream@@@8
_DATA	SEGMENT DWORD USE32 PUBLIC 'DATA'
_DATA	ENDS
;	COMDAT ??_R0?AV?$map@IPAVNPC_SCRIPT@@U?$less@I@_STL@@V?$allocator@U?$pair@$$CBIPAVNPC_SCRIPT@@@_STL@@@3@@_STL@@@8
_DATA	SEGMENT DWORD USE32 PUBLIC 'DATA'
_DATA	ENDS
;	COMDAT ??_R0?AV?$CTypeMap2@VNPC_SCRIPT@@@@@8
_DATA	SEGMENT DWORD USE32 PUBLIC 'DATA'
_DATA	ENDS
;	COMDAT ??_R0?AVivfstream@@@8
_DATA	SEGMENT DWORD USE32 PUBLIC 'DATA'
_DATA	ENDS
;	COMDAT ??_R0?AViovfs_base@@@8
_DATA	SEGMENT DWORD USE32 PUBLIC 'DATA'
_DATA	ENDS
;	COMDAT ??_R4PCTalkBox@@6B@
rdata$r	SEGMENT DWORD USE32 PUBLIC 'CONST'
rdata$r	ENDS
;	COMDAT ??_R4Packet@@6B@
rdata$r	SEGMENT DWORD USE32 PUBLIC 'CONST'
rdata$r	ENDS
;	COMDAT ??_R4IFileIO@@6B@
rdata$r	SEGMENT DWORD USE32 PUBLIC 'CONST'
rdata$r	ENDS
;	COMDAT ??_R4ovfstream@@6B@
rdata$r	SEGMENT DWORD USE32 PUBLIC 'CONST'
rdata$r	ENDS
;	COMDAT ??_R4?$CTypeMap2@VNPC_SCRIPT@@@@6B@
rdata$r	SEGMENT DWORD USE32 PUBLIC 'CONST'
rdata$r	ENDS
;	COMDAT ??_R4ivfstream@@6B@
rdata$r	SEGMENT DWORD USE32 PUBLIC 'CONST'
rdata$r	ENDS
;	COMDAT ??_R4iovfs_base@@6B@
rdata$r	SEGMENT DWORD USE32 PUBLIC 'CONST'
rdata$r	ENDS
;	COMDAT ??3@YAXPAX0@Z
_TEXT	SEGMENT PARA USE32 PUBLIC 'CODE'
_TEXT	ENDS
;	COMDAT ?_M_deallocate_block@?$_String_base@DV?$allocator@D@_STL@@@_STL@@QAEXXZ
_TEXT	SEGMENT PARA USE32 PUBLIC 'CODE'
_TEXT	ENDS
;	COMDAT ?deallocate@?$allocator@D@_STL@@QAEXPADI@Z
_TEXT	SEGMENT PARA USE32 PUBLIC 'CODE'
_TEXT	ENDS
;	COMDAT ?_M_incr@_List_iterator_base@_STL@@QAEXXZ
_TEXT	SEGMENT PARA USE32 PUBLIC 'CODE'
_TEXT	ENDS
;	COMDAT ??D?$_List_iterator@V?$basic_string@DV?$char_traits@D@_STL@@V?$allocator@D@2@@_STL@@U?$_Const_traits@V?$basic_string@DV?$char_traits@D@_STL@@V?$allocator@D@2@@_STL@@@2@@_STL@@QBEABV?$basic_string@DV?$char_traits@D@_STL@@V?$allocator@D@2@@1@XZ
_TEXT	SEGMENT PARA USE32 PUBLIC 'CODE'
_TEXT	ENDS
;	COMDAT ?insert@?$list@V?$basic_string@DV?$char_traits@D@_STL@@V?$allocator@D@2@@_STL@@V?$allocator@V?$basic_string@DV?$char_traits@D@_STL@@V?$allocator@D@2@@_STL@@@2@@_STL@@QAE?AU?$_List_iterator@V?$basic_string@DV?$char_traits@D@_STL@@V?$allocator@D@2@@_STL@@U?$_Nonconst_traits@V?$basic_string@DV?$char_traits@D@_STL@@V?$allocator@D@2@@_STL@@@2@@2@U32@ABV?$basic_string@DV?$char_traits@D@_STL@@V?$allocator@D@2@@2@@Z
_TEXT	SEGMENT PARA USE32 PUBLIC 'CODE'
_TEXT	ENDS
;	COMDAT ?_M_create_node@?$list@V?$basic_string@DV?$char_traits@D@_STL@@V?$allocator@D@2@@_STL@@V?$allocator@V?$basic_string@DV?$char_traits@D@_STL@@V?$allocator@D@2@@_STL@@@2@@_STL@@IAEPAU?$_List_node@V?$basic_string@DV?$char_traits@D@_STL@@V?$allocator@D@2@@_STL@@@2@ABV?$basic_string@DV?$char_traits@D@_STL@@V?$allocator@D@2@@2@@Z
_TEXT	SEGMENT PARA USE32 PUBLIC 'CODE'
_TEXT	ENDS
;	COMDAT ?allocate@?$allocator@U?$_List_node@V?$basic_string@DV?$char_traits@D@_STL@@V?$allocator@D@2@@_STL@@@_STL@@@_STL@@QAEPAU?$_List_node@V?$basic_string@DV?$char_traits@D@_STL@@V?$allocator@D@2@@_STL@@@2@IPBX@Z
_TEXT	SEGMENT PARA USE32 PUBLIC 'CODE'
_TEXT	ENDS
;	COMDAT ??$_Construct@V?$basic_string@DV?$char_traits@D@_STL@@V?$allocator@D@2@@_STL@@V12@@_STL@@YAXPAV?$basic_string@DV?$char_traits@D@_STL@@V?$allocator@D@2@@0@ABV10@@Z
_TEXT	SEGMENT PARA USE32 PUBLIC 'CODE'
_TEXT	ENDS
;	COMDAT ?deallocate@?$allocator@U?$_List_node@V?$basic_string@DV?$char_traits@D@_STL@@V?$allocator@D@2@@_STL@@@_STL@@@_STL@@QAEXPAU?$_List_node@V?$basic_string@DV?$char_traits@D@_STL@@V?$allocator@D@2@@_STL@@@2@I@Z
_TEXT	SEGMENT PARA USE32 PUBLIC 'CODE'
_TEXT	ENDS
;	COMDAT ??0?$_List_iterator@V?$basic_string@DV?$char_traits@D@_STL@@V?$allocator@D@2@@_STL@@U?$_Nonconst_traits@V?$basic_string@DV?$char_traits@D@_STL@@V?$allocator@D@2@@_STL@@@2@@_STL@@QAE@PAU?$_List_node@V?$basic_string@DV?$char_traits@D@_STL@@V?$allocator@D@2@@_STL@@@1@@Z
_TEXT	SEGMENT PARA USE32 PUBLIC 'CODE'
_TEXT	ENDS
;	COMDAT ??9_List_iterator_base@_STL@@QBE_NABU01@@Z
_TEXT	SEGMENT PARA USE32 PUBLIC 'CODE'
_TEXT	ENDS
;	COMDAT ?__page_size@_Filebuf_base@_STL@@SAIXZ
_TEXT	SEGMENT PARA USE32 PUBLIC 'CODE'
_TEXT	ENDS
;	COMDAT ?_M_write@?$basic_filebuf@DV?$char_traits@D@_STL@@@_STL@@QAE_NPADH@Z
_TEXT	SEGMENT PARA USE32 PUBLIC 'CODE'
_TEXT	ENDS
;	COMDAT ?unshift@?$codecvt@DDH@_STL@@QBE?AW4result@codecvt_base@2@AAHPAD1AAPAD@Z
_TEXT	SEGMENT PARA USE32 PUBLIC 'CODE'
_TEXT	ENDS
;	COMDAT ?uninitialized_copy@_STL@@YAPADPBD0PAD@Z
_TEXT	SEGMENT PARA USE32 PUBLIC 'CODE'
_TEXT	ENDS
;	COMDAT ??0_List_iterator_base@_STL@@QAE@PAU_List_node_base@1@@Z
_TEXT	SEGMENT PARA USE32 PUBLIC 'CODE'
_TEXT	ENDS
;	COMDAT ??2@YAPAXIPAX@Z
_TEXT	SEGMENT PARA USE32 PUBLIC 'CODE'
_TEXT	ENDS
;	COMDAT ??8_Rb_tree_base_iterator@_STL@@QBE_NABU01@@Z
_TEXT	SEGMENT PARA USE32 PUBLIC 'CODE'
_TEXT	ENDS
;	COMDAT ??9_Rb_tree_base_iterator@_STL@@QBE_NABU01@@Z
_TEXT	SEGMENT PARA USE32 PUBLIC 'CODE'
_TEXT	ENDS
;	COMDAT ??_7?$CTypeMap2@VNPC_SCRIPT@@@@6B@
CONST	SEGMENT DWORD USE32 PUBLIC 'CONST'
CONST	ENDS
;	COMDAT ?assign@?$char_traits@D@_STL@@SAXAADABD@Z
_TEXT	SEGMENT PARA USE32 PUBLIC 'CODE'
_TEXT	ENDS
;	COMDAT ?always_noconv@?$codecvt@DDH@_STL@@QBE_NXZ
_TEXT	SEGMENT PARA USE32 PUBLIC 'CODE'
_TEXT	ENDS
;	COMDAT ?encoding@?$codecvt@DDH@_STL@@QBEHXZ
_TEXT	SEGMENT PARA USE32 PUBLIC 'CODE'
_TEXT	ENDS
;	COMDAT ?max_length@?$codecvt@DDH@_STL@@QBEHXZ
_TEXT	SEGMENT PARA USE32 PUBLIC 'CODE'
_TEXT	ENDS
;	COMDAT ?__o_mode@_Filebuf_base@_STL@@QBEHXZ
_TEXT	SEGMENT PARA USE32 PUBLIC 'CODE'
_TEXT	ENDS
;	COMDAT ?deallocate@?$__node_alloc@$00$0A@@_STL@@SAXPAXI@Z
_TEXT	SEGMENT PARA USE32 PUBLIC 'CODE'
_TEXT	ENDS
;	COMDAT ?__stl_delete@_STL@@YAXPAX@Z
_TEXT	SEGMENT PARA USE32 PUBLIC 'CODE'
_TEXT	ENDS
;	COMDAT ?_Destroy@_STL@@YAXPAD0@Z
_TEXT	SEGMENT PARA USE32 PUBLIC 'CODE'
_TEXT	ENDS
;	COMDAT ?_S_maskbit@?$_Base_bitset@$00@_STL@@SAKI@Z
_TEXT	SEGMENT PARA USE32 PUBLIC 'CODE'
_TEXT	ENDS
;	COMDAT ?_S_whichbit@?$_Base_bitset@$00@_STL@@SAII@Z
_TEXT	SEGMENT PARA USE32 PUBLIC 'CODE'
_TEXT	ENDS
;	COMDAT ?_M_getword@?$_Base_bitset@$00@_STL@@QBEKI@Z
_TEXT	SEGMENT PARA USE32 PUBLIC 'CODE'
_TEXT	ENDS
;	COMDAT ?_M_hiword@?$_Base_bitset@$00@_STL@@QAEAAKXZ
_TEXT	SEGMENT PARA USE32 PUBLIC 'CODE'
_TEXT	ENDS
;	COMDAT ?__copy_trivial@_STL@@YAPAXPBX0PAX@Z
_TEXT	SEGMENT PARA USE32 PUBLIC 'CODE'
_TEXT	ENDS
;	COMDAT ??0?$_Base_bitset@$00@_STL@@QAE@K@Z
_TEXT	SEGMENT PARA USE32 PUBLIC 'CODE'
_TEXT	ENDS
;	COMDAT ?begin@?$list@V?$basic_string@DV?$char_traits@D@_STL@@V?$allocator@D@2@@_STL@@V?$allocator@V?$basic_string@DV?$char_traits@D@_STL@@V?$allocator@D@2@@_STL@@@2@@_STL@@QAE?AU?$_List_iterator@V?$basic_string@DV?$char_traits@D@_STL@@V?$allocator@D@2@@_STL@@U?$_Nonconst_traits@V?$basic_string@DV?$char_traits@D@_STL@@V?$allocator@D@2@@_STL@@@2@@2@XZ
_TEXT	SEGMENT PARA USE32 PUBLIC 'CODE'
_TEXT	ENDS
;	COMDAT ?begin@?$list@V?$basic_string@DV?$char_traits@D@_STL@@V?$allocator@D@2@@_STL@@V?$allocator@V?$basic_string@DV?$char_traits@D@_STL@@V?$allocator@D@2@@_STL@@@2@@_STL@@QBE?AU?$_List_iterator@V?$basic_string@DV?$char_traits@D@_STL@@V?$allocator@D@2@@_STL@@U?$_Const_traits@V?$basic_string@DV?$char_traits@D@_STL@@V?$allocator@D@2@@_STL@@@2@@2@XZ
_TEXT	SEGMENT PARA USE32 PUBLIC 'CODE'
_TEXT	ENDS
;	COMDAT ??0?$_List_iterator@V?$basic_string@DV?$char_traits@D@_STL@@V?$allocator@D@2@@_STL@@U?$_Const_traits@V?$basic_string@DV?$char_traits@D@_STL@@V?$allocator@D@2@@_STL@@@2@@_STL@@QAE@PAU?$_List_node@V?$basic_string@DV?$char_traits@D@_STL@@V?$allocator@D@2@@_STL@@@1@@Z
_TEXT	SEGMENT PARA USE32 PUBLIC 'CODE'
_TEXT	ENDS
;	COMDAT ?end@?$list@V?$basic_string@DV?$char_traits@D@_STL@@V?$allocator@D@2@@_STL@@V?$allocator@V?$basic_string@DV?$char_traits@D@_STL@@V?$allocator@D@2@@_STL@@@2@@_STL@@QBE?AU?$_List_iterator@V?$basic_string@DV?$char_traits@D@_STL@@V?$allocator@D@2@@_STL@@U?$_Const_traits@V?$basic_string@DV?$char_traits@D@_STL@@V?$allocator@D@2@@_STL@@@2@@2@XZ
_TEXT	SEGMENT PARA USE32 PUBLIC 'CODE'
_TEXT	ENDS
;	COMDAT ??1?$_List_base@V?$basic_string@DV?$char_traits@D@_STL@@V?$allocator@D@2@@_STL@@V?$allocator@V?$basic_string@DV?$char_traits@D@_STL@@V?$allocator@D@2@@_STL@@@2@@_STL@@QAE@XZ
_TEXT	SEGMENT PARA USE32 PUBLIC 'CODE'
_TEXT	ENDS
;	COMDAT ??1?$_STLP_alloc_proxy@PAU?$_List_node@V?$basic_string@DV?$char_traits@D@_STL@@V?$allocator@D@2@@_STL@@@_STL@@U12@V?$allocator@U?$_List_node@V?$basic_string@DV?$char_traits@D@_STL@@V?$allocator@D@2@@_STL@@@_STL@@@2@@_STL@@QAE@XZ
_TEXT	SEGMENT PARA USE32 PUBLIC 'CODE'
_TEXT	ENDS
;	COMDAT ??1?$allocator@U?$_List_node@V?$basic_string@DV?$char_traits@D@_STL@@V?$allocator@D@2@@_STL@@@_STL@@@_STL@@QAE@XZ
_TEXT	SEGMENT PARA USE32 PUBLIC 'CODE'
_TEXT	ENDS
;	COMDAT ?clear@?$_List_base@V?$basic_string@DV?$char_traits@D@_STL@@V?$allocator@D@2@@_STL@@V?$allocator@V?$basic_string@DV?$char_traits@D@_STL@@V?$allocator@D@2@@_STL@@@2@@_STL@@QAEXXZ
_TEXT	SEGMENT PARA USE32 PUBLIC 'CODE'
_TEXT	ENDS
;	COMDAT ??1?$allocator@V?$basic_string@DV?$char_traits@D@_STL@@V?$allocator@D@2@@_STL@@@_STL@@QAE@XZ
_TEXT	SEGMENT PARA USE32 PUBLIC 'CODE'
_TEXT	ENDS
;	COMDAT ??0?$_List_base@V?$basic_string@DV?$char_traits@D@_STL@@V?$allocator@D@2@@_STL@@V?$allocator@V?$basic_string@DV?$char_traits@D@_STL@@V?$allocator@D@2@@_STL@@@2@@_STL@@QAE@ABV?$allocator@V?$basic_string@DV?$char_traits@D@_STL@@V?$allocator@D@2@@_STL@@@1@@Z
_TEXT	SEGMENT PARA USE32 PUBLIC 'CODE'
_TEXT	ENDS
;	COMDAT ??0?$_STLP_alloc_proxy@PAU?$_List_node@V?$basic_string@DV?$char_traits@D@_STL@@V?$allocator@D@2@@_STL@@@_STL@@U12@V?$allocator@U?$_List_node@V?$basic_string@DV?$char_traits@D@_STL@@V?$allocator@D@2@@_STL@@@_STL@@@2@@_STL@@QAE@ABV?$allocator@U?$_List_node@V?$basic_string@DV?$char_traits@D@_STL@@V?$allocator@D@2@@_STL@@@_STL@@@1@PAU?$_List_node@V?$basic_string@DV?$char_traits@D@_STL@@V?$allocator@D@2@@_STL@@@1@@Z
_TEXT	SEGMENT PARA USE32 PUBLIC 'CODE'
_TEXT	ENDS
;	COMDAT ??0?$allocator@U?$_List_node@V?$basic_string@DV?$char_traits@D@_STL@@V?$allocator@D@2@@_STL@@@_STL@@@_STL@@QAE@ABV01@@Z
_TEXT	SEGMENT PARA USE32 PUBLIC 'CODE'
_TEXT	ENDS
;	COMDAT ??$?0V?$basic_string@DV?$char_traits@D@_STL@@V?$allocator@D@2@@_STL@@@?$allocator@U?$_List_node@V?$basic_string@DV?$char_traits@D@_STL@@V?$allocator@D@2@@_STL@@@_STL@@@_STL@@QAE@ABV?$allocator@V?$basic_string@DV?$char_traits@D@_STL@@V?$allocator@D@2@@_STL@@@1@@Z
_TEXT	SEGMENT PARA USE32 PUBLIC 'CODE'
_TEXT	ENDS
;	COMDAT ?setp@?$basic_streambuf@DV?$char_traits@D@_STL@@@_STL@@IAEXPAD0@Z
_TEXT	SEGMENT PARA USE32 PUBLIC 'CODE'
_TEXT	ENDS
;	COMDAT ?_FILE_O_set@_STL@@YAXPAU_iobuf@@PAD11@Z
_TEXT	SEGMENT PARA USE32 PUBLIC 'CODE'
_TEXT	ENDS
;	COMDAT ?_FILE_I_set@_STL@@YAXPAU_iobuf@@PAD11@Z
_TEXT	SEGMENT PARA USE32 PUBLIC 'CODE'
_TEXT	ENDS
;	COMDAT ?setg@?$basic_streambuf@DV?$char_traits@D@_STL@@@_STL@@IAEXPAD00@Z
_TEXT	SEGMENT PARA USE32 PUBLIC 'CODE'
_TEXT	ENDS
;	COMDAT ?__is_open@_Filebuf_base@_STL@@QBE_NXZ
_TEXT	SEGMENT PARA USE32 PUBLIC 'CODE'
_TEXT	ENDS
;	COMDAT ?allocate@?$__node_alloc@$00$0A@@_STL@@SAPAXI@Z
_TEXT	SEGMENT PARA USE32 PUBLIC 'CODE'
_TEXT	ENDS
;	COMDAT ?__stl_new@_STL@@YAPAXI@Z
_TEXT	SEGMENT PARA USE32 PUBLIC 'CODE'
_TEXT	ENDS
;	COMDAT ??1?$_STLP_alloc_proxy@PADDV?$allocator@D@_STL@@@_STL@@QAE@XZ
_TEXT	SEGMENT PARA USE32 PUBLIC 'CODE'
_TEXT	ENDS
;	COMDAT ?length@?$char_traits@D@_STL@@SAIPBD@Z
_TEXT	SEGMENT PARA USE32 PUBLIC 'CODE'
_TEXT	ENDS
;	COMDAT ??1?$allocator@D@_STL@@QAE@XZ
_TEXT	SEGMENT PARA USE32 PUBLIC 'CODE'
_TEXT	ENDS
;	COMDAT ?eof@?$__char_traits_base@DH@_STL@@SAHXZ
_TEXT	SEGMENT PARA USE32 PUBLIC 'CODE'
_TEXT	ENDS
;	COMDAT ??_7PCTalkBox@@6B@
CONST	SEGMENT DWORD USE32 PUBLIC 'CONST'
CONST	ENDS
;	COMDAT ??4?$basic_string@DV?$char_traits@D@_STL@@V?$allocator@D@2@@_STL@@QAEAAV01@ABV01@@Z
_TEXT	SEGMENT PARA USE32 PUBLIC 'CODE'
_TEXT	ENDS
;	COMDAT ??$assign@PAD@?$basic_string@DV?$char_traits@D@_STL@@V?$allocator@D@2@@_STL@@QAEAAV01@PAD0@Z
_TEXT	SEGMENT PARA USE32 PUBLIC 'CODE'
_TEXT	ENDS
;	COMDAT ??1?$list@V?$basic_string@DV?$char_traits@D@_STL@@V?$allocator@D@2@@_STL@@V?$allocator@V?$basic_string@DV?$char_traits@D@_STL@@V?$allocator@D@2@@_STL@@@2@@_STL@@QAE@XZ
_TEXT	SEGMENT PARA USE32 PUBLIC 'CODE'
_TEXT	ENDS
;	COMDAT ??_7Throwable@@6B@
CONST	SEGMENT DWORD USE32 PUBLIC 'CONST'
CONST	ENDS
;	COMDAT ??_R4Throwable@@6B@
rdata$r	SEGMENT DWORD USE32 PUBLIC 'CONST'
rdata$r	ENDS
;	COMDAT ??_R3Throwable@@8
rdata$r	SEGMENT DWORD USE32 PUBLIC 'CONST'
rdata$r	ENDS
;	COMDAT ??_R2Throwable@@8
rdata$r	SEGMENT DWORD USE32 PUBLIC 'CONST'
rdata$r	ENDS
;	COMDAT ??_R1A@?0A@A@Throwable@@8
rdata$r	SEGMENT DWORD USE32 PUBLIC 'CONST'
rdata$r	ENDS
;	COMDAT ??_GThrowable@@UAEPAXI@Z
_TEXT	SEGMENT PARA USE32 PUBLIC 'CODE'
_TEXT	ENDS
;	COMDAT ?getName@Throwable@@UBE?AV?$basic_string@DV?$char_traits@D@_STL@@V?$allocator@D@2@@_STL@@XZ
_TEXT	SEGMENT PARA USE32 PUBLIC 'CODE'
_TEXT	ENDS
;	COMDAT ??0?$basic_string@DV?$char_traits@D@_STL@@V?$allocator@D@2@@_STL@@QAE@PBDABV?$allocator@D@1@@Z
_TEXT	SEGMENT PARA USE32 PUBLIC 'CODE'
_TEXT	ENDS
;	COMDAT ??1?$_String_base@DV?$allocator@D@_STL@@@_STL@@QAE@XZ
_TEXT	SEGMENT PARA USE32 PUBLIC 'CODE'
_TEXT	ENDS
;	COMDAT ??0?$allocator@D@_STL@@QAE@XZ
_TEXT	SEGMENT PARA USE32 PUBLIC 'CODE'
_TEXT	ENDS
;	COMDAT ??_C@_09KCKHMJEM@Throwable?$AA@
CONST	SEGMENT DWORD USE32 PUBLIC 'CONST'
CONST	ENDS
;	COMDAT ?toString@Throwable@@UBE?AV?$basic_string@DV?$char_traits@D@_STL@@V?$allocator@D@2@@_STL@@XZ
_TEXT	SEGMENT PARA USE32 PUBLIC 'CODE'
_TEXT	ENDS
;	COMDAT ??_C@_03MCPBMLDJ@?5?3?5?$AA@
CONST	SEGMENT DWORD USE32 PUBLIC 'CONST'
CONST	ENDS
;	COMDAT ?getStackTrace@Throwable@@QBE?AV?$basic_string@DV?$char_traits@D@_STL@@V?$allocator@D@2@@_STL@@XZ
_TEXT	SEGMENT PARA USE32 PUBLIC 'CODE'
_TEXT	ENDS
;	COMDAT ??E?$_List_iterator@V?$basic_string@DV?$char_traits@D@_STL@@V?$allocator@D@2@@_STL@@U?$_Const_traits@V?$basic_string@DV?$char_traits@D@_STL@@V?$allocator@D@2@@_STL@@@2@@_STL@@QAE?AU01@H@Z
_TEXT	SEGMENT PARA USE32 PUBLIC 'CODE'
_TEXT	ENDS
;	COMDAT ??_C@_01CLKCMJKC@?5?$AA@
CONST	SEGMENT DWORD USE32 PUBLIC 'CONST'
CONST	ENDS
;	COMDAT ??_7Error@@6B@
CONST	SEGMENT DWORD USE32 PUBLIC 'CONST'
CONST	ENDS
;	COMDAT ??_R4Error@@6B@
rdata$r	SEGMENT DWORD USE32 PUBLIC 'CONST'
rdata$r	ENDS
;	COMDAT ??_R3Error@@8
rdata$r	SEGMENT DWORD USE32 PUBLIC 'CONST'
rdata$r	ENDS
;	COMDAT ??_R2Error@@8
rdata$r	SEGMENT DWORD USE32 PUBLIC 'CONST'
rdata$r	ENDS
;	COMDAT ??_R1A@?0A@A@Error@@8
rdata$r	SEGMENT DWORD USE32 PUBLIC 'CONST'
rdata$r	ENDS
;	COMDAT ??_GError@@UAEPAXI@Z
_TEXT	SEGMENT PARA USE32 PUBLIC 'CODE'
_TEXT	ENDS
;	COMDAT ?getName@Error@@UBE?AV?$basic_string@DV?$char_traits@D@_STL@@V?$allocator@D@2@@_STL@@XZ
_TEXT	SEGMENT PARA USE32 PUBLIC 'CODE'
_TEXT	ENDS
;	COMDAT ??_C@_05NAOIJFC@Error?$AA@
CONST	SEGMENT DWORD USE32 PUBLIC 'CONST'
CONST	ENDS
;	COMDAT ??1Throwable@@UAE@XZ
_TEXT	SEGMENT PARA USE32 PUBLIC 'CODE'
_TEXT	ENDS
;	COMDAT ??_7UnsupportedError@@6B@
CONST	SEGMENT DWORD USE32 PUBLIC 'CONST'
CONST	ENDS
;	COMDAT ??_R4UnsupportedError@@6B@
rdata$r	SEGMENT DWORD USE32 PUBLIC 'CONST'
rdata$r	ENDS
;	COMDAT ??_R3UnsupportedError@@8
rdata$r	SEGMENT DWORD USE32 PUBLIC 'CONST'
rdata$r	ENDS
;	COMDAT ??_R2UnsupportedError@@8
rdata$r	SEGMENT DWORD USE32 PUBLIC 'CONST'
rdata$r	ENDS
;	COMDAT ??_R1A@?0A@A@UnsupportedError@@8
rdata$r	SEGMENT DWORD USE32 PUBLIC 'CONST'
rdata$r	ENDS
;	COMDAT ??_GUnsupportedError@@UAEPAXI@Z
_TEXT	SEGMENT PARA USE32 PUBLIC 'CODE'
_TEXT	ENDS
;	COMDAT ?getName@UnsupportedError@@UBE?AV?$basic_string@DV?$char_traits@D@_STL@@V?$allocator@D@2@@_STL@@XZ
_TEXT	SEGMENT PARA USE32 PUBLIC 'CODE'
_TEXT	ENDS
;	COMDAT ??_C@_0BB@EOCHEBED@UnsupportedError?$AA@
CONST	SEGMENT DWORD USE32 PUBLIC 'CONST'
CONST	ENDS
;	COMDAT ??1Error@@UAE@XZ
_TEXT	SEGMENT PARA USE32 PUBLIC 'CODE'
_TEXT	ENDS
;	COMDAT __CTA3?AVUnsupportedError@@
xdata$x	SEGMENT DWORD USE32 PUBLIC 'CONST'
xdata$x	ENDS
;	COMDAT ??1UnsupportedError@@UAE@XZ
_TEXT	SEGMENT PARA USE32 PUBLIC 'CODE'
_TEXT	ENDS
;	COMDAT __CT??_R0?AVThrowable@@@8??0Throwable@@QAE@ABV0@@Z20
xdata$x	SEGMENT DWORD USE32 PUBLIC 'CONST'
xdata$x	ENDS
;	COMDAT __CT??_R0?AVError@@@8??0Error@@QAE@ABV0@@Z20
xdata$x	SEGMENT DWORD USE32 PUBLIC 'CONST'
xdata$x	ENDS
;	COMDAT __CT??_R0?AVUnsupportedError@@@8??0UnsupportedError@@QAE@ABV0@@Z20
xdata$x	SEGMENT DWORD USE32 PUBLIC 'CONST'
xdata$x	ENDS
;	COMDAT ??_R0?AVThrowable@@@8
_DATA	SEGMENT DWORD USE32 PUBLIC 'DATA'
_DATA	ENDS
;	COMDAT ??_R0?AVError@@@8
_DATA	SEGMENT DWORD USE32 PUBLIC 'DATA'
_DATA	ENDS
;	COMDAT ??_R0?AVUnsupportedError@@@8
_DATA	SEGMENT DWORD USE32 PUBLIC 'DATA'
_DATA	ENDS
;	COMDAT __TI3?AVUnsupportedError@@
xdata$x	SEGMENT DWORD USE32 PUBLIC 'CONST'
xdata$x	ENDS
;	COMDAT ??0UnsupportedError@@QAE@XZ
_TEXT	SEGMENT PARA USE32 PUBLIC 'CODE'
_TEXT	ENDS
;	COMDAT ??0Error@@QAE@XZ
_TEXT	SEGMENT PARA USE32 PUBLIC 'CODE'
_TEXT	ENDS
;	COMDAT ??0Throwable@@QAE@XZ
_TEXT	SEGMENT PARA USE32 PUBLIC 'CODE'
_TEXT	ENDS
;	COMDAT ??0?$list@V?$basic_string@DV?$char_traits@D@_STL@@V?$allocator@D@2@@_STL@@V?$allocator@V?$basic_string@DV?$char_traits@D@_STL@@V?$allocator@D@2@@_STL@@@2@@_STL@@QAE@ABV?$allocator@V?$basic_string@DV?$char_traits@D@_STL@@V?$allocator@D@2@@_STL@@@1@@Z
_TEXT	SEGMENT PARA USE32 PUBLIC 'CODE'
_TEXT	ENDS
;	COMDAT ??0?$allocator@V?$basic_string@DV?$char_traits@D@_STL@@V?$allocator@D@2@@_STL@@@_STL@@QAE@XZ
_TEXT	SEGMENT PARA USE32 PUBLIC 'CODE'
_TEXT	ENDS
;	COMDAT ??_7Packet@@6B@
CONST	SEGMENT DWORD USE32 PUBLIC 'CONST'
CONST	ENDS
;	COMDAT ??0?$basic_string@DV?$char_traits@D@_STL@@V?$allocator@D@2@@_STL@@QAE@ABV01@@Z
_TEXT	SEGMENT PARA USE32 PUBLIC 'CODE'
_TEXT	ENDS
;	COMDAT ??_7ovfstream@@6B@
CONST	SEGMENT DWORD USE32 PUBLIC 'CONST'
CONST	ENDS
;	COMDAT ??_7ivfstream@@6B@
CONST	SEGMENT DWORD USE32 PUBLIC 'CONST'
CONST	ENDS
;	COMDAT ??0?$basic_string@DV?$char_traits@D@_STL@@V?$allocator@D@2@@_STL@@QAE@XZ
_TEXT	SEGMENT PARA USE32 PUBLIC 'CODE'
_TEXT	ENDS
;	COMDAT ??1?$basic_string@DV?$char_traits@D@_STL@@V?$allocator@D@2@@_STL@@QAE@XZ
_TEXT	SEGMENT PARA USE32 PUBLIC 'CODE'
_TEXT	ENDS
;	COMDAT ??_7iovfs_base@@6B@
CONST	SEGMENT DWORD USE32 PUBLIC 'CONST'
CONST	ENDS
;	COMDAT ??_7IFileIO@@6B@
CONST	SEGMENT DWORD USE32 PUBLIC 'CONST'
CONST	ENDS
sxdata	SEGMENT DWORD USE32 'SXDATA'
sxdata	ENDS
FLAT	GROUP _DATA, CONST, _BSS
	ASSUME	CS: FLAT, DS: FLAT, SS: FLAT
endif

INCLUDELIB LIBCMT
INCLUDELIB OLDNAMES

PUBLIC	??_C@_0O@JKENFCBN@MinTrace?52003?$AA@		; `string'
PUBLIC	??_C@_0BE@MNEJIGLM@__MinTrace?5Window__?$AA@	; `string'
PUBLIC	?g_pPCTalkBox@@3PAVPCTalkBox@@A			; g_pPCTalkBox
PUBLIC	?g_pNPCTalkBox@@3PAVMStringList@@A		; g_pNPCTalkBox
_BSS	SEGMENT
?g_pPCTalkBox@@3PAVPCTalkBox@@A DD 01H DUP (?)		; g_pPCTalkBox
?g_pNPCTalkBox@@3PAVMStringList@@A DD 01H DUP (?)	; g_pNPCTalkBox
_BSS	ENDS
;	COMDAT ??_C@_0O@JKENFCBN@MinTrace?52003?$AA@
CONST	SEGMENT
??_C@_0O@JKENFCBN@MinTrace?52003?$AA@ DB 'MinTrace 2003', 00H ; `string'
CONST	ENDS
_DATA	SEGMENT
_g_pszMinTraceTitle DD FLAT:??_C@_0O@JKENFCBN@MinTrace?52003?$AA@
_DATA	ENDS
;	COMDAT ??_C@_0BE@MNEJIGLM@__MinTrace?5Window__?$AA@
CONST	SEGMENT
??_C@_0BE@MNEJIGLM@__MinTrace?5Window__?$AA@ DB '__MinTrace Window__', 00H ; `string'
CONST	ENDS
_DATA	SEGMENT
_g_pszMinTraceClassName DD FLAT:??_C@_0BE@MNEJIGLM@__MinTrace?5Window__?$AA@
_DATA	ENDS
PUBLIC	??2@YAPAXIPAX@Z					; operator new
; Function compile flags: /Ogsy
; File c:\program files\microsoft visual studio .net 2003\vc7\include\new
;	COMDAT ??2@YAPAXIPAX@Z
_TEXT	SEGMENT
___formal$ = 8						; size = 4
__Where$ = 12						; size = 4
??2@YAPAXIPAX@Z PROC NEAR				; operator new, COMDAT

; 64   : 	return (_Where);

  00000	8b 44 24 08	 mov	 eax, DWORD PTR __Where$[esp-4]

; 65   : 	}

  00004	c3		 ret	 0
??2@YAPAXIPAX@Z ENDP					; operator new
_TEXT	ENDS
PUBLIC	?__stl_new@_STL@@YAPAXI@Z			; _STL::__stl_new
EXTRN	??2@YAPAXI@Z:NEAR				; operator new
; Function compile flags: /Ogsy
; File c:\stlport-4.6.1\stlport\stl\_new.h
;	COMDAT ?__stl_new@_STL@@YAPAXI@Z
_TEXT	SEGMENT
___n$ = 8						; size = 4
?__stl_new@_STL@@YAPAXI@Z PROC NEAR			; _STL::__stl_new, COMDAT

; 86   : inline void*  _STLP_CALL __stl_new(size_t __n)   { _STLP_CHECK_NULL_ALLOC(::operator _STLP_NEW(__n)); }

  00000	e9 00 00 00 00	 jmp	 ??2@YAPAXI@Z		; operator new
?__stl_new@_STL@@YAPAXI@Z ENDP				; _STL::__stl_new
_TEXT	ENDS
PUBLIC	?__stl_delete@_STL@@YAXPAX@Z			; _STL::__stl_delete
EXTRN	??3@YAXPAX@Z:NEAR				; operator delete
; Function compile flags: /Ogsy
;	COMDAT ?__stl_delete@_STL@@YAXPAX@Z
_TEXT	SEGMENT
___p$ = 8						; size = 4
?__stl_delete@_STL@@YAXPAX@Z PROC NEAR			; _STL::__stl_delete, COMDAT

; 87   : inline void   _STLP_CALL __stl_delete(void* __p) { ::operator delete(__p); }

  00000	e9 00 00 00 00	 jmp	 ??3@YAXPAX@Z		; operator delete
?__stl_delete@_STL@@YAXPAX@Z ENDP			; _STL::__stl_delete
_TEXT	ENDS
PUBLIC	?__copy_trivial@_STL@@YAPAXPBX0PAX@Z		; _STL::__copy_trivial
EXTRN	_memmove:NEAR
; Function compile flags: /Ogsy
; File c:\stlport-4.6.1\stlport\stl\_algobase.h
;	COMDAT ?__copy_trivial@_STL@@YAPAXPBX0PAX@Z
_TEXT	SEGMENT
___first$ = 8						; size = 4
___last$ = 12						; size = 4
___result$ = 16						; size = 4
?__copy_trivial@_STL@@YAPAXPBX0PAX@Z PROC NEAR		; _STL::__copy_trivial, COMDAT

; 147  : __copy_trivial(const void* __first, const void* __last, void* __result) {

  00000	55		 push	 ebp
  00001	8b ec		 mov	 ebp, esp
  00003	56		 push	 esi

; 148  :   return (__last == __first) ? __result : 
; 149  :     ((char*)memmove(__result, __first, ((const char*)__last - (const char*)__first))) + 
; 150  :     ((const char*)__last - (const char*)__first);

  00004	8b 75 0c	 mov	 esi, DWORD PTR ___last$[ebp]
  00007	3b 75 08	 cmp	 esi, DWORD PTR ___first$[ebp]
  0000a	75 05		 jne	 SHORT $L107116
  0000c	8b 45 10	 mov	 eax, DWORD PTR ___result$[ebp]
  0000f	eb 14		 jmp	 SHORT $L107117
$L107116:
  00011	2b 75 08	 sub	 esi, DWORD PTR ___first$[ebp]
  00014	56		 push	 esi
  00015	ff 75 08	 push	 DWORD PTR ___first$[ebp]
  00018	ff 75 10	 push	 DWORD PTR ___result$[ebp]
  0001b	e8 00 00 00 00	 call	 _memmove
  00020	83 c4 0c	 add	 esp, 12			; 0000000cH
  00023	03 c6		 add	 eax, esi
$L107117:
  00025	5e		 pop	 esi

; 151  : }

  00026	5d		 pop	 ebp
  00027	c3		 ret	 0
?__copy_trivial@_STL@@YAPAXPBX0PAX@Z ENDP		; _STL::__copy_trivial
_TEXT	ENDS
PUBLIC	?SetType@PCTalkBox@@QAEXW4TALKBOX_TYPE@1@@Z	; PCTalkBox::SetType
; Function compile flags: /Ogsy
; File c:\darkeden\designed_common\project\client\talkbox.h
;	COMDAT ?SetType@PCTalkBox@@QAEXW4TALKBOX_TYPE@1@@Z
_TEXT	SEGMENT
_type$ = 8						; size = 4
?SetType@PCTalkBox@@QAEXW4TALKBOX_TYPE@1@@Z PROC NEAR	; PCTalkBox::SetType, COMDAT
; _this$ = ecx

; 35   : 		void				SetType( TALKBOX_TYPE type )		{ m_Type = type; }

  00000	8b 44 24 04	 mov	 eax, DWORD PTR _type$[esp-4]
  00004	89 41 14	 mov	 DWORD PTR [ecx+20], eax
  00007	c2 04 00	 ret	 4
?SetType@PCTalkBox@@QAEXW4TALKBOX_TYPE@1@@Z ENDP	; PCTalkBox::SetType
_TEXT	ENDS
PUBLIC	?SetContent@PCTalkBox@@QAEXPBD@Z		; PCTalkBox::SetContent
EXTRN	??4MString@@QAEXPBD@Z:NEAR			; MString::operator=
; Function compile flags: /Ogsy
;	COMDAT ?SetContent@PCTalkBox@@QAEXPBD@Z
_TEXT	SEGMENT
_content$ = 8						; size = 4
?SetContent@PCTalkBox@@QAEXPBD@Z PROC NEAR		; PCTalkBox::SetContent, COMDAT
; _this$ = ecx

; 41   : 		void				SetContent(const char* content)		{ m_Content = content; }

  00000	83 c1 18	 add	 ecx, 24			; 00000018H
  00003	e9 00 00 00 00	 jmp	 ??4MString@@QAEXPBD@Z	; MString::operator=
?SetContent@PCTalkBox@@QAEXPBD@Z ENDP			; PCTalkBox::SetContent
_TEXT	ENDS
PUBLIC	?SetNPCID@PCTalkBox@@QAEXI@Z			; PCTalkBox::SetNPCID
; Function compile flags: /Ogsy
;	COMDAT ?SetNPCID@PCTalkBox@@QAEXI@Z
_TEXT	SEGMENT
_id$ = 8						; size = 4
?SetNPCID@PCTalkBox@@QAEXI@Z PROC NEAR			; PCTalkBox::SetNPCID, COMDAT
; _this$ = ecx

; 47   : 		void				SetNPCID(unsigned int id)			{ m_NPCID = id; }

  00000	8b 44 24 04	 mov	 eax, DWORD PTR _id$[esp-4]
  00004	89 41 24	 mov	 DWORD PTR [ecx+36], eax
  00007	c2 04 00	 ret	 4
?SetNPCID@PCTalkBox@@QAEXI@Z ENDP			; PCTalkBox::SetNPCID
_TEXT	ENDS
PUBLIC	?SetCreatureType@PCTalkBox@@QAEXI@Z		; PCTalkBox::SetCreatureType
; Function compile flags: /Ogsy
;	COMDAT ?SetCreatureType@PCTalkBox@@QAEXI@Z
_TEXT	SEGMENT
_id$ = 8						; size = 4
?SetCreatureType@PCTalkBox@@QAEXI@Z PROC NEAR		; PCTalkBox::SetCreatureType, COMDAT
; _this$ = ecx

; 53   : 		void				SetCreatureType(unsigned int id)			{ m_CreatureType = id; }

  00000	8b 44 24 04	 mov	 eax, DWORD PTR _id$[esp-4]
  00004	89 41 28	 mov	 DWORD PTR [ecx+40], eax
  00007	c2 04 00	 ret	 4
?SetCreatureType@PCTalkBox@@QAEXI@Z ENDP		; PCTalkBox::SetCreatureType
_TEXT	ENDS
PUBLIC	?SetScriptID@PCTalkBox@@QAEXI@Z			; PCTalkBox::SetScriptID
; Function compile flags: /Ogsy
;	COMDAT ?SetScriptID@PCTalkBox@@QAEXI@Z
_TEXT	SEGMENT
_sid$ = 8						; size = 4
?SetScriptID@PCTalkBox@@QAEXI@Z PROC NEAR		; PCTalkBox::SetScriptID, COMDAT
; _this$ = ecx

; 59   : 		void				SetScriptID(unsigned int sid)		{ m_ScriptID = sid; }

  00000	8b 44 24 04	 mov	 eax, DWORD PTR _sid$[esp-4]
  00004	89 41 2c	 mov	 DWORD PTR [ecx+44], eax
  00007	c2 04 00	 ret	 4
?SetScriptID@PCTalkBox@@QAEXI@Z ENDP			; PCTalkBox::SetScriptID
_TEXT	ENDS
PUBLIC	?DEBUG_ADD@@YAXPBD@Z				; DEBUG_ADD
; Function compile flags: /Ogsy
; File c:\darkeden\designed_common\project\client\debuginfo.h
;	COMDAT ?DEBUG_ADD@@YAXPBD@Z
_TEXT	SEGMENT
_message$ = 8						; size = 4
?DEBUG_ADD@@YAXPBD@Z PROC NEAR				; DEBUG_ADD, COMDAT

; 80   : 		inline void	DEBUG_ADD( const char* message )		{}

  00000	c3		 ret	 0
?DEBUG_ADD@@YAXPBD@Z ENDP				; DEBUG_ADD
_TEXT	ENDS
PUBLIC	??0?$allocator@H@_STL@@QAE@XZ			; _STL::allocator<int>::allocator<int>
; Function compile flags: /Ogsy
; File c:\stlport-4.6.1\stlport\stl\_alloc.h
;	COMDAT ??0?$allocator@H@_STL@@QAE@XZ
_TEXT	SEGMENT
??0?$allocator@H@_STL@@QAE@XZ PROC NEAR			; _STL::allocator<int>::allocator<int>, COMDAT
; _this$ = ecx

; 345  :   allocator() _STLP_NOTHROW {}

  00000	8b c1		 mov	 eax, ecx
  00002	c3		 ret	 0
??0?$allocator@H@_STL@@QAE@XZ ENDP			; _STL::allocator<int>::allocator<int>
_TEXT	ENDS
PUBLIC	??1?$allocator@H@_STL@@QAE@XZ			; _STL::allocator<int>::~allocator<int>
; Function compile flags: /Ogsy
;	COMDAT ??1?$allocator@H@_STL@@QAE@XZ
_TEXT	SEGMENT
??1?$allocator@H@_STL@@QAE@XZ PROC NEAR			; _STL::allocator<int>::~allocator<int>, COMDAT
; _this$ = ecx

; 350  :   ~allocator() _STLP_NOTHROW {}

  00000	c3		 ret	 0
??1?$allocator@H@_STL@@QAE@XZ ENDP			; _STL::allocator<int>::~allocator<int>
_TEXT	ENDS
PUBLIC	?begin@?$vector@HV?$allocator@H@_STL@@@_STL@@QAEPAHXZ ; _STL::vector<int,_STL::allocator<int> >::begin
; Function compile flags: /Ogsy
; File c:\stlport-4.6.1\stlport\stl\_vector.h
;	COMDAT ?begin@?$vector@HV?$allocator@H@_STL@@@_STL@@QAEPAHXZ
_TEXT	SEGMENT
?begin@?$vector@HV?$allocator@H@_STL@@@_STL@@QAEPAHXZ PROC NEAR ; _STL::vector<int,_STL::allocator<int> >::begin, COMDAT
; _this$ = ecx

; 172  :   iterator begin()             { return this->_M_start; }

  00000	8b 01		 mov	 eax, DWORD PTR [ecx]
  00002	c3		 ret	 0
?begin@?$vector@HV?$allocator@H@_STL@@@_STL@@QAEPAHXZ ENDP ; _STL::vector<int,_STL::allocator<int> >::begin
_TEXT	ENDS
PUBLIC	?end@?$vector@HV?$allocator@H@_STL@@@_STL@@QAEPAHXZ ; _STL::vector<int,_STL::allocator<int> >::end
; Function compile flags: /Ogsy
;	COMDAT ?end@?$vector@HV?$allocator@H@_STL@@@_STL@@QAEPAHXZ
_TEXT	SEGMENT
?end@?$vector@HV?$allocator@H@_STL@@@_STL@@QAEPAHXZ PROC NEAR ; _STL::vector<int,_STL::allocator<int> >::end, COMDAT
; _this$ = ecx

; 174  :   iterator end()               { return this->_M_finish; }

  00000	8b 41 04	 mov	 eax, DWORD PTR [ecx+4]
  00003	c3		 ret	 0
?end@?$vector@HV?$allocator@H@_STL@@@_STL@@QAEPAHXZ ENDP ; _STL::vector<int,_STL::allocator<int> >::end
_TEXT	ENDS
PUBLIC	??1?$_STLP_alloc_proxy@PAHHV?$allocator@H@_STL@@@_STL@@QAE@XZ ; _STL::_STLP_alloc_proxy<int *,int,_STL::allocator<int> >::~_STLP_alloc_proxy<int *,int,_STL::allocator<int> >
; Function compile flags: /Ogsy
;	COMDAT ??1?$_STLP_alloc_proxy@PAHHV?$allocator@H@_STL@@@_STL@@QAE@XZ
_TEXT	SEGMENT
??1?$_STLP_alloc_proxy@PAHHV?$allocator@H@_STL@@@_STL@@QAE@XZ PROC NEAR ; _STL::_STLP_alloc_proxy<int *,int,_STL::allocator<int> >::~_STLP_alloc_proxy<int *,int,_STL::allocator<int> >, COMDAT
; _this$ = ecx
  00000	c3		 ret	 0
??1?$_STLP_alloc_proxy@PAHHV?$allocator@H@_STL@@@_STL@@QAE@XZ ENDP ; _STL::_STLP_alloc_proxy<int *,int,_STL::allocator<int> >::~_STLP_alloc_proxy<int *,int,_STL::allocator<int> >
_TEXT	ENDS
PUBLIC	?size@?$vector@HV?$allocator@H@_STL@@@_STL@@QBEIXZ ; _STL::vector<int,_STL::allocator<int> >::size
; Function compile flags: /Ogsy
;	COMDAT ?size@?$vector@HV?$allocator@H@_STL@@@_STL@@QBEIXZ
_TEXT	SEGMENT
?size@?$vector@HV?$allocator@H@_STL@@@_STL@@QBEIXZ PROC NEAR ; _STL::vector<int,_STL::allocator<int> >::size, COMDAT
; _this$ = ecx

; 182  :   size_type size() const        { return size_type(this->_M_finish - this->_M_start); }

  00000	8b 41 04	 mov	 eax, DWORD PTR [ecx+4]
  00003	2b 01		 sub	 eax, DWORD PTR [ecx]
  00005	c1 f8 02	 sar	 eax, 2
  00008	c3		 ret	 0
?size@?$vector@HV?$allocator@H@_STL@@@_STL@@QBEIXZ ENDP	; _STL::vector<int,_STL::allocator<int> >::size
_TEXT	ENDS
PUBLIC	?_M_set@?$vector@HV?$allocator@H@_STL@@@_STL@@IAEXPAH00@Z ; _STL::vector<int,_STL::allocator<int> >::_M_set
; Function compile flags: /Ogsy
;	COMDAT ?_M_set@?$vector@HV?$allocator@H@_STL@@@_STL@@IAEXPAH00@Z
_TEXT	SEGMENT
___s$ = 8						; size = 4
___f$ = 12						; size = 4
___e$ = 16						; size = 4
?_M_set@?$vector@HV?$allocator@H@_STL@@@_STL@@IAEXPAH00@Z PROC NEAR ; _STL::vector<int,_STL::allocator<int> >::_M_set, COMDAT
; _this$ = ecx

; 501  :     this->_M_start = __s;

  00000	8b 44 24 04	 mov	 eax, DWORD PTR ___s$[esp-4]
  00004	89 01		 mov	 DWORD PTR [ecx], eax

; 502  :     this->_M_finish = __f;

  00006	8b 44 24 08	 mov	 eax, DWORD PTR ___f$[esp-4]
  0000a	89 41 04	 mov	 DWORD PTR [ecx+4], eax

; 503  :     this->_M_end_of_storage._M_data = __e;

  0000d	8b 44 24 0c	 mov	 eax, DWORD PTR ___e$[esp-4]
  00011	89 41 08	 mov	 DWORD PTR [ecx+8], eax

; 504  :   }

  00014	c2 0c 00	 ret	 12			; 0000000cH
?_M_set@?$vector@HV?$allocator@H@_STL@@@_STL@@IAEXPAH00@Z ENDP ; _STL::vector<int,_STL::allocator<int> >::_M_set
_TEXT	ENDS
PUBLIC	??0?$allocator@H@_STL@@QAE@ABV01@@Z		; _STL::allocator<int>::allocator<int>
; Function compile flags: /Ogsy
; File c:\stlport-4.6.1\stlport\stl\_alloc.h
;	COMDAT ??0?$allocator@H@_STL@@QAE@ABV01@@Z
_TEXT	SEGMENT
___formal$ = 8						; size = 4
??0?$allocator@H@_STL@@QAE@ABV01@@Z PROC NEAR		; _STL::allocator<int>::allocator<int>, COMDAT
; _this$ = ecx

; 349  :   allocator(const allocator<_Tp>&) _STLP_NOTHROW {}

  00000	8b c1		 mov	 eax, ecx
  00002	c2 04 00	 ret	 4
??0?$allocator@H@_STL@@QAE@ABV01@@Z ENDP		; _STL::allocator<int>::allocator<int>
_TEXT	ENDS
PUBLIC	??$_Construct@HH@_STL@@YAXPAHABH@Z		; _STL::_Construct<int,int>
; Function compile flags: /Ogsy
; File c:\stlport-4.6.1\stlport\stl\_construct.h
;	COMDAT ??$_Construct@HH@_STL@@YAXPAHABH@Z
_TEXT	SEGMENT
___p$ = 8						; size = 4
___val$ = 12						; size = 4
??$_Construct@HH@_STL@@YAXPAHABH@Z PROC NEAR		; _STL::_Construct<int,int>, COMDAT

; 94   : # ifdef _STLP_DEBUG_UNINITIALIZED
; 95   : 	memset((char*)__p, _STLP_SHRED_BYTE, sizeof(_T1));
; 96   : # endif
; 97   :     _STLP_PLACEMENT_NEW (__p) _T1(__val);

  00000	8b 44 24 04	 mov	 eax, DWORD PTR ___p$[esp-4]
  00004	85 c0		 test	 eax, eax
  00006	74 08		 je	 SHORT $L107166
  00008	8b 4c 24 08	 mov	 ecx, DWORD PTR ___val$[esp-4]
  0000c	8b 09		 mov	 ecx, DWORD PTR [ecx]
  0000e	89 08		 mov	 DWORD PTR [eax], ecx
$L107166:

; 98   : }

  00010	c3		 ret	 0
??$_Construct@HH@_STL@@YAXPAHABH@Z ENDP			; _STL::_Construct<int,int>
_TEXT	ENDS
PUBLIC	??$max@I@_STL@@YAABIABI0@Z			; _STL::max<unsigned int>
; Function compile flags: /Ogsy
; File c:\stlport-4.6.1\stlport\stl\_algobase.h
;	COMDAT ??$max@I@_STL@@YAABIABI0@Z
_TEXT	SEGMENT
___a$ = 8						; size = 4
___b$ = 12						; size = 4
??$max@I@_STL@@YAABIABI0@Z PROC NEAR			; _STL::max<unsigned int>, COMDAT

; 79   : inline const _Tp& (max)(const _Tp& __a, const _Tp& __b) {  return  __a < __b ? __b : __a; }

  00000	8b 44 24 04	 mov	 eax, DWORD PTR ___a$[esp-4]
  00004	8b 10		 mov	 edx, DWORD PTR [eax]
  00006	8b 4c 24 08	 mov	 ecx, DWORD PTR ___b$[esp-4]
  0000a	3b 11		 cmp	 edx, DWORD PTR [ecx]
  0000c	73 02		 jae	 SHORT $L107176
  0000e	8b c1		 mov	 eax, ecx
$L107176:
  00010	c3		 ret	 0
??$max@I@_STL@@YAABIABI0@Z ENDP				; _STL::max<unsigned int>
_TEXT	ENDS
PUBLIC	??$fill_n@PAHIH@_STL@@YAPAHPAHIABH@Z		; _STL::fill_n<int *,unsigned int,int>
; Function compile flags: /Ogsy
;	COMDAT ??$fill_n@PAHIH@_STL@@YAPAHPAHIABH@Z
_TEXT	SEGMENT
___first$ = 8						; size = 4
___n$ = 12						; size = 4
___val$ = 16						; size = 4
??$fill_n@PAHIH@_STL@@YAPAHPAHIABH@Z PROC NEAR		; _STL::fill_n<int *,unsigned int,int>, COMDAT

; 332  : _OutputIter fill_n(_OutputIter __first, _Size __n, const _Tp& __val) {

  00000	55		 push	 ebp
  00001	8b ec		 mov	 ebp, esp

; 333  :   _STLP_FIX_LITERAL_BUG(__first)
; 334  :   for ( ; __n > 0; --__n, ++__first)

  00003	8b 45 0c	 mov	 eax, DWORD PTR ___n$[ebp]
  00006	85 c0		 test	 eax, eax
  00008	76 11		 jbe	 SHORT $L105999
$L105997:

; 335  :     *__first = __val;

  0000a	8b 4d 10	 mov	 ecx, DWORD PTR ___val$[ebp]
  0000d	8b 55 08	 mov	 edx, DWORD PTR ___first$[ebp]
  00010	8b 09		 mov	 ecx, DWORD PTR [ecx]
  00012	83 45 08 04	 add	 DWORD PTR ___first$[ebp], 4
  00016	48		 dec	 eax
  00017	89 0a		 mov	 DWORD PTR [edx], ecx
  00019	75 ef		 jne	 SHORT $L105997
$L105999:

; 336  :   return __first;

  0001b	8b 45 08	 mov	 eax, DWORD PTR ___first$[ebp]

; 337  : }

  0001e	5d		 pop	 ebp
  0001f	c3		 ret	 0
??$fill_n@PAHIH@_STL@@YAPAHPAHIABH@Z ENDP		; _STL::fill_n<int *,unsigned int,int>
_TEXT	ENDS
PUBLIC	??$__copy_ptrs@PAHPAH@_STL@@YAPAHPAH00ABU__true_type@0@@Z ; _STL::__copy_ptrs<int *,int *>
; Function compile flags: /Ogsy
;	COMDAT ??$__copy_ptrs@PAHPAH@_STL@@YAPAHPAH00ABU__true_type@0@@Z
_TEXT	SEGMENT
___first$ = 8						; size = 4
___last$ = 12						; size = 4
___result$ = 16						; size = 4
___formal$ = 20						; size = 4
??$__copy_ptrs@PAHPAH@_STL@@YAPAHPAH00ABU__true_type@0@@Z PROC NEAR ; _STL::__copy_ptrs<int *,int *>, COMDAT

; 195  : // we know they all pointers, so this cast is OK 
; 196  :   //  return (_OutputIter)__copy_trivial(&(*__first), &(*__last), &(*__result));
; 197  :   return (_OutputIter)__copy_trivial(__first, __last, __result);

  00000	ff 74 24 0c	 push	 DWORD PTR ___result$[esp-4]
  00004	ff 74 24 0c	 push	 DWORD PTR ___last$[esp]
  00008	ff 74 24 0c	 push	 DWORD PTR ___first$[esp+4]
  0000c	e8 00 00 00 00	 call	 ?__copy_trivial@_STL@@YAPAXPBX0PAX@Z ; _STL::__copy_trivial
  00011	83 c4 0c	 add	 esp, 12			; 0000000cH

; 198  : }

  00014	c3		 ret	 0
??$__copy_ptrs@PAHPAH@_STL@@YAPAHPAH00ABU__true_type@0@@Z ENDP ; _STL::__copy_ptrs<int *,int *>
_TEXT	ENDS
PUBLIC	??$__destroy_aux@PAH@_STL@@YAXPAH0ABU__true_type@0@@Z ; _STL::__destroy_aux<int *>
; Function compile flags: /Ogsy
; File c:\stlport-4.6.1\stlport\stl\_construct.h
;	COMDAT ??$__destroy_aux@PAH@_STL@@YAXPAH0ABU__true_type@0@@Z
_TEXT	SEGMENT
___formal$ = 8						; size = 4
___formal$ = 12						; size = 4
___formal$ = 16						; size = 4
??$__destroy_aux@PAH@_STL@@YAXPAH0ABU__true_type@0@@Z PROC NEAR ; _STL::__destroy_aux<int *>, COMDAT

; 128  : inline void __destroy_aux(_ForwardIterator, _ForwardIterator, const __true_type&) {}

  00000	c3		 ret	 0
??$__destroy_aux@PAH@_STL@@YAXPAH0ABU__true_type@0@@Z ENDP ; _STL::__destroy_aux<int *>
_TEXT	ENDS
PUBLIC	?allocate@?$__node_alloc@$00$0A@@_STL@@SAPAXI@Z	; _STL::__node_alloc<1,0>::allocate
EXTRN	?_M_allocate@?$__node_alloc@$00$0A@@_STL@@CAPAXI@Z:NEAR ; _STL::__node_alloc<1,0>::_M_allocate
; Function compile flags: /Ogsy
; File c:\stlport-4.6.1\stlport\stl\_alloc.h
;	COMDAT ?allocate@?$__node_alloc@$00$0A@@_STL@@SAPAXI@Z
_TEXT	SEGMENT
___n$ = 8						; size = 4
?allocate@?$__node_alloc@$00$0A@@_STL@@SAPAXI@Z PROC NEAR ; _STL::__node_alloc<1,0>::allocate, COMDAT

; 251  :   static void * _STLP_CALL allocate(size_t __n) { return (__n > (size_t)_MAX_BYTES) ?  __stl_new(__n) : _M_allocate(__n); }

  00000	8b 44 24 04	 mov	 eax, DWORD PTR ___n$[esp-4]
  00004	3d 80 00 00 00	 cmp	 eax, 128		; 00000080H
  00009	50		 push	 eax
  0000a	76 07		 jbe	 SHORT $L107191
  0000c	e8 00 00 00 00	 call	 ??2@YAPAXI@Z		; operator new
  00011	59		 pop	 ecx
  00012	c3		 ret	 0
$L107191:
  00013	e8 00 00 00 00	 call	 ?_M_allocate@?$__node_alloc@$00$0A@@_STL@@CAPAXI@Z ; _STL::__node_alloc<1,0>::_M_allocate
  00018	59		 pop	 ecx
  00019	c3		 ret	 0
?allocate@?$__node_alloc@$00$0A@@_STL@@SAPAXI@Z ENDP	; _STL::__node_alloc<1,0>::allocate
_TEXT	ENDS
PUBLIC	?deallocate@?$__node_alloc@$00$0A@@_STL@@SAXPAXI@Z ; _STL::__node_alloc<1,0>::deallocate
EXTRN	?_M_deallocate@?$__node_alloc@$00$0A@@_STL@@CAXPAXI@Z:NEAR ; _STL::__node_alloc<1,0>::_M_deallocate
; Function compile flags: /Ogsy
;	COMDAT ?deallocate@?$__node_alloc@$00$0A@@_STL@@SAXPAXI@Z
_TEXT	SEGMENT
___p$ = 8						; size = 4
___n$ = 12						; size = 4
?deallocate@?$__node_alloc@$00$0A@@_STL@@SAXPAXI@Z PROC NEAR ; _STL::__node_alloc<1,0>::deallocate, COMDAT

; 253  :   static void _STLP_CALL deallocate(void *__p, size_t __n) { if (__n > (size_t)_MAX_BYTES) __stl_delete(__p); else _M_deallocate(__p, __n); }

  00000	81 7c 24 08 80
	00 00 00	 cmp	 DWORD PTR ___n$[esp-4], 128 ; 00000080H
  00008	76 0b		 jbe	 SHORT $L98677
  0000a	ff 74 24 04	 push	 DWORD PTR ___p$[esp-4]
  0000e	e8 00 00 00 00	 call	 ??3@YAXPAX@Z		; operator delete
  00013	59		 pop	 ecx
  00014	c3		 ret	 0
$L98677:
  00015	e9 00 00 00 00	 jmp	 ?_M_deallocate@?$__node_alloc@$00$0A@@_STL@@CAXPAXI@Z ; _STL::__node_alloc<1,0>::_M_deallocate
?deallocate@?$__node_alloc@$00$0A@@_STL@@SAXPAXI@Z ENDP	; _STL::__node_alloc<1,0>::deallocate
_TEXT	ENDS
PUBLIC	?allocate@?$allocator@H@_STL@@QAEPAHIPBX@Z	; _STL::allocator<int>::allocate
; Function compile flags: /Ogsy
;	COMDAT ?allocate@?$allocator@H@_STL@@QAEPAHIPBX@Z
_TEXT	SEGMENT
___n$ = 8						; size = 4
___formal$ = 12						; size = 4
?allocate@?$allocator@H@_STL@@QAEPAHIPBX@Z PROC NEAR	; _STL::allocator<int>::allocate, COMDAT
; _this$ = ecx

; 355  :     return __n != 0 ? __REINTERPRET_CAST(value_type*,__sgi_alloc::allocate(__n * sizeof(value_type))) : 0;

  00000	8b 44 24 04	 mov	 eax, DWORD PTR ___n$[esp-4]
  00004	85 c0		 test	 eax, eax
  00006	74 0c		 je	 SHORT $L107206
  00008	c1 e0 02	 shl	 eax, 2
  0000b	50		 push	 eax
  0000c	e8 00 00 00 00	 call	 ?allocate@?$__node_alloc@$00$0A@@_STL@@SAPAXI@Z ; _STL::__node_alloc<1,0>::allocate
  00011	59		 pop	 ecx
  00012	eb 02		 jmp	 SHORT $L107207
$L107206:
  00014	33 c0		 xor	 eax, eax
$L107207:

; 356  :   }

  00016	c2 08 00	 ret	 8
?allocate@?$allocator@H@_STL@@QAEPAHIPBX@Z ENDP		; _STL::allocator<int>::allocate
_TEXT	ENDS
PUBLIC	?deallocate@?$allocator@H@_STL@@QAEXPAHI@Z	; _STL::allocator<int>::deallocate
; Function compile flags: /Ogsy
;	COMDAT ?deallocate@?$allocator@H@_STL@@QAEXPAHI@Z
_TEXT	SEGMENT
___p$ = 8						; size = 4
___n$ = 12						; size = 4
?deallocate@?$allocator@H@_STL@@QAEXPAHI@Z PROC NEAR	; _STL::allocator<int>::deallocate, COMDAT
; _this$ = ecx

; 359  :     _STLP_ASSERT( (__p == 0) == (__n == 0) )
; 360  :       if (__p != 0) __sgi_alloc::deallocate((void*)__p, __n * sizeof(value_type));

  00000	83 7c 24 04 00	 cmp	 DWORD PTR ___p$[esp-4], 0
  00005	74 13		 je	 SHORT $L105589
  00007	8b 44 24 08	 mov	 eax, DWORD PTR ___n$[esp-4]
  0000b	c1 e0 02	 shl	 eax, 2
  0000e	50		 push	 eax
  0000f	ff 74 24 08	 push	 DWORD PTR ___p$[esp]
  00013	e8 00 00 00 00	 call	 ?deallocate@?$__node_alloc@$00$0A@@_STL@@SAXPAXI@Z ; _STL::__node_alloc<1,0>::deallocate
  00018	59		 pop	 ecx
  00019	59		 pop	 ecx
$L105589:

; 361  :   }

  0001a	c2 08 00	 ret	 8
?deallocate@?$allocator@H@_STL@@QAEXPAHI@Z ENDP		; _STL::allocator<int>::deallocate
_TEXT	ENDS
PUBLIC	??0?$_STLP_alloc_proxy@PAHHV?$allocator@H@_STL@@@_STL@@QAE@ABV?$allocator@H@1@PAH@Z ; _STL::_STLP_alloc_proxy<int *,int,_STL::allocator<int> >::_STLP_alloc_proxy<int *,int,_STL::allocator<int> >
; Function compile flags: /Ogsy
;	COMDAT ??0?$_STLP_alloc_proxy@PAHHV?$allocator@H@_STL@@@_STL@@QAE@ABV?$allocator@H@1@PAH@Z
_TEXT	SEGMENT
___a$ = 8						; size = 4
___p$ = 12						; size = 4
??0?$_STLP_alloc_proxy@PAHHV?$allocator@H@_STL@@@_STL@@QAE@ABV?$allocator@H@1@PAH@Z PROC NEAR ; _STL::_STLP_alloc_proxy<int *,int,_STL::allocator<int> >::_STLP_alloc_proxy<int *,int,_STL::allocator<int> >, COMDAT
; _this$ = ecx

; 487  :   inline _STLP_alloc_proxy(const _MaybeReboundAlloc& __a, _Value __p) : _MaybeReboundAlloc(__a), _M_data(__p) {}

  00000	8b c1		 mov	 eax, ecx
  00002	8b 4c 24 08	 mov	 ecx, DWORD PTR ___p$[esp-4]
  00006	89 08		 mov	 DWORD PTR [eax], ecx
  00008	c2 08 00	 ret	 8
??0?$_STLP_alloc_proxy@PAHHV?$allocator@H@_STL@@@_STL@@QAE@ABV?$allocator@H@1@PAH@Z ENDP ; _STL::_STLP_alloc_proxy<int *,int,_STL::allocator<int> >::_STLP_alloc_proxy<int *,int,_STL::allocator<int> >
_TEXT	ENDS
PUBLIC	??$__destroy@PAHH@_STL@@YAXPAH00@Z		; _STL::__destroy<int *,int>
; Function compile flags: /Ogsy
; File c:\stlport-4.6.1\stlport\stl\_construct.h
;	COMDAT ??$__destroy@PAHH@_STL@@YAXPAH00@Z
_TEXT	SEGMENT
___first$ = 8						; size = 4
___last$ = 12						; size = 4
___formal$ = 16						; size = 4
??$__destroy@PAHH@_STL@@YAXPAH00@Z PROC NEAR		; _STL::__destroy<int *,int>, COMDAT

; 133  :   typedef typename __type_traits<_Tp>::has_trivial_destructor _Trivial_destructor;
; 134  :   __destroy_aux(__first, __last, _Trivial_destructor());
; 135  : }

  00000	c3		 ret	 0
??$__destroy@PAHH@_STL@@YAXPAH00@Z ENDP			; _STL::__destroy<int *,int>
_TEXT	ENDS
PUBLIC	??0?$_Vector_base@HV?$allocator@H@_STL@@@_STL@@QAE@ABV?$allocator@H@1@@Z ; _STL::_Vector_base<int,_STL::allocator<int> >::_Vector_base<int,_STL::allocator<int> >
; Function compile flags: /Ogsy
; File c:\stlport-4.6.1\stlport\stl\_vector.h
;	COMDAT ??0?$_Vector_base@HV?$allocator@H@_STL@@@_STL@@QAE@ABV?$allocator@H@1@@Z
_TEXT	SEGMENT
___a$ = 8						; size = 4
??0?$_Vector_base@HV?$allocator@H@_STL@@@_STL@@QAE@ABV?$allocator@H@1@@Z PROC NEAR ; _STL::_Vector_base<int,_STL::allocator<int> >::_Vector_base<int,_STL::allocator<int> >, COMDAT
; _this$ = ecx

; 72   :     : _M_start(0), _M_finish(0), _M_end_of_storage(__a, 0) {

  00000	56		 push	 esi
  00001	33 c0		 xor	 eax, eax
  00003	8b f1		 mov	 esi, ecx
  00005	50		 push	 eax
  00006	ff 74 24 0c	 push	 DWORD PTR ___a$[esp+4]
  0000a	8d 4e 08	 lea	 ecx, DWORD PTR [esi+8]
  0000d	89 06		 mov	 DWORD PTR [esi], eax
  0000f	89 46 04	 mov	 DWORD PTR [esi+4], eax
  00012	e8 00 00 00 00	 call	 ??0?$_STLP_alloc_proxy@PAHHV?$allocator@H@_STL@@@_STL@@QAE@ABV?$allocator@H@1@PAH@Z ; _STL::_STLP_alloc_proxy<int *,int,_STL::allocator<int> >::_STLP_alloc_proxy<int *,int,_STL::allocator<int> >

; 73   :   }

  00017	8b c6		 mov	 eax, esi
  00019	5e		 pop	 esi
  0001a	c2 04 00	 ret	 4
??0?$_Vector_base@HV?$allocator@H@_STL@@@_STL@@QAE@ABV?$allocator@H@1@@Z ENDP ; _STL::_Vector_base<int,_STL::allocator<int> >::_Vector_base<int,_STL::allocator<int> >
_TEXT	ENDS
PUBLIC	??1?$_Vector_base@HV?$allocator@H@_STL@@@_STL@@QAE@XZ ; _STL::_Vector_base<int,_STL::allocator<int> >::~_Vector_base<int,_STL::allocator<int> >
; Function compile flags: /Ogsy
;	COMDAT ??1?$_Vector_base@HV?$allocator@H@_STL@@@_STL@@QAE@XZ
_TEXT	SEGMENT
??1?$_Vector_base@HV?$allocator@H@_STL@@@_STL@@QAE@XZ PROC NEAR ; _STL::_Vector_base<int,_STL::allocator<int> >::~_Vector_base<int,_STL::allocator<int> >, COMDAT
; _this$ = ecx

; 84   :     if (_M_start !=0) 

  00000	8b 01		 mov	 eax, DWORD PTR [ecx]
  00002	85 c0		 test	 eax, eax
  00004	74 11		 je	 SHORT $L105547

; 85   :     _M_end_of_storage.deallocate(_M_start, _M_end_of_storage._M_data - _M_start); 

  00006	83 c1 08	 add	 ecx, 8
  00009	8b 11		 mov	 edx, DWORD PTR [ecx]
  0000b	2b d0		 sub	 edx, eax
  0000d	c1 fa 02	 sar	 edx, 2
  00010	52		 push	 edx
  00011	50		 push	 eax
  00012	e8 00 00 00 00	 call	 ?deallocate@?$allocator@H@_STL@@QAEXPAHI@Z ; _STL::allocator<int>::deallocate
$L105547:

; 86   :   }

  00017	c3		 ret	 0
??1?$_Vector_base@HV?$allocator@H@_STL@@@_STL@@QAE@XZ ENDP ; _STL::_Vector_base<int,_STL::allocator<int> >::~_Vector_base<int,_STL::allocator<int> >
_TEXT	ENDS
PUBLIC	??$_Destroy@PAH@_STL@@YAXPAH0@Z			; _STL::_Destroy<int *>
; Function compile flags: /Ogsy
; File c:\stlport-4.6.1\stlport\stl\_construct.h
;	COMDAT ??$_Destroy@PAH@_STL@@YAXPAH0@Z
_TEXT	SEGMENT
___first$ = 8						; size = 4
___last$ = 12						; size = 4
??$_Destroy@PAH@_STL@@YAXPAH0@Z PROC NEAR		; _STL::_Destroy<int *>, COMDAT

; 139  :   __destroy(__first, __last, _STLP_VALUE_TYPE(__first, _ForwardIterator));
; 140  : }

  00000	c3		 ret	 0
??$_Destroy@PAH@_STL@@YAXPAH0@Z ENDP			; _STL::_Destroy<int *>
_TEXT	ENDS
PUBLIC	??0?$vector@HV?$allocator@H@_STL@@@_STL@@QAE@ABV?$allocator@H@1@@Z ; _STL::vector<int,_STL::allocator<int> >::vector<int,_STL::allocator<int> >
; Function compile flags: /Ogsy
; File c:\stlport-4.6.1\stlport\stl\_vector.h
;	COMDAT ??0?$vector@HV?$allocator@H@_STL@@@_STL@@QAE@ABV?$allocator@H@1@@Z
_TEXT	SEGMENT
___a$ = 8						; size = 4
??0?$vector@HV?$allocator@H@_STL@@@_STL@@QAE@ABV?$allocator@H@1@@Z PROC NEAR ; _STL::vector<int,_STL::allocator<int> >::vector<int,_STL::allocator<int> >, COMDAT
; _this$ = ecx

; 199  :     _Vector_base<_Tp, _Alloc>(__a) {}

  00000	56		 push	 esi
  00001	ff 74 24 08	 push	 DWORD PTR ___a$[esp]
  00005	8b f1		 mov	 esi, ecx
  00007	e8 00 00 00 00	 call	 ??0?$_Vector_base@HV?$allocator@H@_STL@@@_STL@@QAE@ABV?$allocator@H@1@@Z ; _STL::_Vector_base<int,_STL::allocator<int> >::_Vector_base<int,_STL::allocator<int> >
  0000c	8b c6		 mov	 eax, esi
  0000e	5e		 pop	 esi
  0000f	c2 04 00	 ret	 4
??0?$vector@HV?$allocator@H@_STL@@@_STL@@QAE@ABV?$allocator@H@1@@Z ENDP ; _STL::vector<int,_STL::allocator<int> >::vector<int,_STL::allocator<int> >
_TEXT	ENDS
PUBLIC	??1?$vector@HV?$allocator@H@_STL@@@_STL@@QAE@XZ	; _STL::vector<int,_STL::allocator<int> >::~vector<int,_STL::allocator<int> >
; Function compile flags: /Ogsy
;	COMDAT ??1?$vector@HV?$allocator@H@_STL@@@_STL@@QAE@XZ
_TEXT	SEGMENT
??1?$vector@HV?$allocator@H@_STL@@@_STL@@QAE@XZ PROC NEAR ; _STL::vector<int,_STL::allocator<int> >::~vector<int,_STL::allocator<int> >, COMDAT
; _this$ = ecx

; 258  :   ~vector() { _Destroy(this->_M_start, this->_M_finish); }

  00000	e9 00 00 00 00	 jmp	 ??1?$_Vector_base@HV?$allocator@H@_STL@@@_STL@@QAE@XZ ; _STL::_Vector_base<int,_STL::allocator<int> >::~_Vector_base<int,_STL::allocator<int> >
??1?$vector@HV?$allocator@H@_STL@@@_STL@@QAE@XZ ENDP	; _STL::vector<int,_STL::allocator<int> >::~vector<int,_STL::allocator<int> >
_TEXT	ENDS
PUBLIC	?erase@?$vector@HV?$allocator@H@_STL@@@_STL@@QAEPAHPAH0@Z ; _STL::vector<int,_STL::allocator<int> >::erase
; Function compile flags: /Ogsy
;	COMDAT ?erase@?$vector@HV?$allocator@H@_STL@@@_STL@@QAEPAHPAH0@Z
_TEXT	SEGMENT
___first$ = 8						; size = 4
___last$ = 12						; size = 4
?erase@?$vector@HV?$allocator@H@_STL@@@_STL@@QAEPAHPAH0@Z PROC NEAR ; _STL::vector<int,_STL::allocator<int> >::erase, COMDAT
; _this$ = ecx

; 473  :   iterator erase(iterator __first, iterator __last) {

  00000	56		 push	 esi

; 474  :     pointer __i = __copy_ptrs(__last, this->_M_finish, __first, _TrivialAss());

  00001	ff 74 24 08	 push	 DWORD PTR ___first$[esp]
  00005	8b f1		 mov	 esi, ecx
  00007	8b 46 04	 mov	 eax, DWORD PTR [esi+4]
  0000a	50		 push	 eax
  0000b	ff 74 24 14	 push	 DWORD PTR ___last$[esp+8]
  0000f	e8 00 00 00 00	 call	 ?__copy_trivial@_STL@@YAPAXPBX0PAX@Z ; _STL::__copy_trivial
  00014	83 c4 0c	 add	 esp, 12			; 0000000cH

; 475  :     _Destroy(__i, this->_M_finish);
; 476  :     this->_M_finish = __i;

  00017	89 46 04	 mov	 DWORD PTR [esi+4], eax

; 477  :     return __first;

  0001a	8b 44 24 08	 mov	 eax, DWORD PTR ___first$[esp]
  0001e	5e		 pop	 esi

; 478  :   }

  0001f	c2 08 00	 ret	 8
?erase@?$vector@HV?$allocator@H@_STL@@@_STL@@QAEPAHPAH0@Z ENDP ; _STL::vector<int,_STL::allocator<int> >::erase
_TEXT	ENDS
PUBLIC	?_M_clear@?$vector@HV?$allocator@H@_STL@@@_STL@@IAEXXZ ; _STL::vector<int,_STL::allocator<int> >::_M_clear
; Function compile flags: /Ogsy
;	COMDAT ?_M_clear@?$vector@HV?$allocator@H@_STL@@@_STL@@IAEXXZ
_TEXT	SEGMENT
?_M_clear@?$vector@HV?$allocator@H@_STL@@@_STL@@IAEXXZ PROC NEAR ; _STL::vector<int,_STL::allocator<int> >::_M_clear, COMDAT
; _this$ = ecx

; 493  :   void _M_clear() {

  00000	8b c1		 mov	 eax, ecx

; 494  :     //    if (this->_M_start) {
; 495  :     _Destroy(this->_M_start, this->_M_finish);
; 496  :     this->_M_end_of_storage.deallocate(this->_M_start, this->_M_end_of_storage._M_data - this->_M_start);

  00002	8d 48 08	 lea	 ecx, DWORD PTR [eax+8]
  00005	8b 00		 mov	 eax, DWORD PTR [eax]
  00007	8b 11		 mov	 edx, DWORD PTR [ecx]
  00009	2b d0		 sub	 edx, eax
  0000b	c1 fa 02	 sar	 edx, 2
  0000e	52		 push	 edx
  0000f	50		 push	 eax
  00010	e8 00 00 00 00	 call	 ?deallocate@?$allocator@H@_STL@@QAEXPAHI@Z ; _STL::allocator<int>::deallocate

; 497  :     //    }
; 498  :   }

  00015	c3		 ret	 0
?_M_clear@?$vector@HV?$allocator@H@_STL@@@_STL@@IAEXXZ ENDP ; _STL::vector<int,_STL::allocator<int> >::_M_clear
_TEXT	ENDS
PUBLIC	??_R4PCTalkBox@@6B@				; PCTalkBox::`RTTI Complete Object Locator'
PUBLIC	??_R0?AVPCTalkBox@@@8				; PCTalkBox `RTTI Type Descriptor'
PUBLIC	??_R3PCTalkBox@@8				; PCTalkBox::`RTTI Class Hierarchy Descriptor'
PUBLIC	??_R2PCTalkBox@@8				; PCTalkBox::`RTTI Base Class Array'
PUBLIC	??_R1A@?0A@A@PCTalkBox@@8			; PCTalkBox::`RTTI Base Class Descriptor at (0,-1,0,0)'
PUBLIC	??_R1A@?0A@A@MStringList@@8			; MStringList::`RTTI Base Class Descriptor at (0,-1,0,0)'
PUBLIC	??_R0?AVMStringList@@@8				; MStringList `RTTI Type Descriptor'
PUBLIC	??_R13?0A@A@?$list@PAVMString@@V?$allocator@PAVMString@@@_STL@@@_STL@@8 ; _STL::list<MString *,_STL::allocator<MString *> >::`RTTI Base Class Descriptor at (4,-1,0,0)'
PUBLIC	??_R0?AV?$list@PAVMString@@V?$allocator@PAVMString@@@_STL@@@_STL@@@8 ; _STL::list<MString *,_STL::allocator<MString *> > `RTTI Type Descriptor'
PUBLIC	??_R13?0A@A@?$_List_base@PAVMString@@V?$allocator@PAVMString@@@_STL@@@_STL@@8 ; _STL::_List_base<MString *,_STL::allocator<MString *> >::`RTTI Base Class Descriptor at (4,-1,0,0)'
PUBLIC	??_R0?AV?$_List_base@PAVMString@@V?$allocator@PAVMString@@@_STL@@@_STL@@@8 ; _STL::_List_base<MString *,_STL::allocator<MString *> > `RTTI Type Descriptor'
PUBLIC	??0PCTalkBox@@QAE@XZ				; PCTalkBox::PCTalkBox
PUBLIC	??_7PCTalkBox@@6B@				; PCTalkBox::`vftable'
PUBLIC	??_GPCTalkBox@@UAEPAXI@Z			; PCTalkBox::`scalar deleting destructor'
EXTRN	??_7type_info@@6B@:QWORD			; type_info::`vftable'
EXTRN	??0MString@@QAE@XZ:NEAR				; MString::MString
EXTRN	??0MStringList@@QAE@XZ:NEAR			; MStringList::MStringList
EXTRN	??1MStringList@@UAE@XZ:NEAR			; MStringList::~MStringList
EXTRN	__EH_prolog:NEAR
EXTRN	__except_list:DWORD
EXTRN	___CxxFrameHandler:NEAR
EXTRN	??_EPCTalkBox@@UAEPAXI@Z:NEAR			; PCTalkBox::`vector deleting destructor'
;	COMDAT xdata$x
; File c:\stlport-4.6.1\stlport\stl\_alloc.h
xdata$x	SEGMENT
$T107342 DD	0ffffffffH
	DD	FLAT:$L107322
	DD	00H
	DD	FLAT:$L107323
$T107338 DD	019930520H
	DD	02H
	DD	FLAT:$T107342
	DD	2 DUP(00H)
	DD	2 DUP(00H)
xdata$x	ENDS
;	COMDAT ??_7PCTalkBox@@6B@
CONST	SEGMENT
??_7PCTalkBox@@6B@ DD FLAT:??_R4PCTalkBox@@6B@		; PCTalkBox::`vftable'
	DD	FLAT:??_EPCTalkBox@@UAEPAXI@Z
CONST	ENDS
;	COMDAT ??_R4PCTalkBox@@6B@
rdata$r	SEGMENT
??_R4PCTalkBox@@6B@ DD 00H				; PCTalkBox::`RTTI Complete Object Locator'
	DD	00H
	DD	00H
	DD	FLAT:??_R0?AVPCTalkBox@@@8
	DD	FLAT:??_R3PCTalkBox@@8
rdata$r	ENDS
;	COMDAT ??_R0?AVPCTalkBox@@@8
_DATA	SEGMENT
??_R0?AVPCTalkBox@@@8 DD FLAT:??_7type_info@@6B@	; PCTalkBox `RTTI Type Descriptor'
	DD	00H
	DB	'.?AVPCTalkBox@@', 00H
_DATA	ENDS
;	COMDAT ??_R3PCTalkBox@@8
rdata$r	SEGMENT
??_R3PCTalkBox@@8 DD 00H				; PCTalkBox::`RTTI Class Hierarchy Descriptor'
	DD	00H
	DD	04H
	DD	FLAT:??_R2PCTalkBox@@8
rdata$r	ENDS
;	COMDAT ??_R2PCTalkBox@@8
rdata$r	SEGMENT
??_R2PCTalkBox@@8 DD FLAT:??_R1A@?0A@A@PCTalkBox@@8	; PCTalkBox::`RTTI Base Class Array'
	DD	FLAT:??_R1A@?0A@A@MStringList@@8
	DD	FLAT:??_R13?0A@A@?$list@PAVMString@@V?$allocator@PAVMString@@@_STL@@@_STL@@8
	DD	FLAT:??_R13?0A@A@?$_List_base@PAVMString@@V?$allocator@PAVMString@@@_STL@@@_STL@@8
rdata$r	ENDS
;	COMDAT ??_R1A@?0A@A@PCTalkBox@@8
rdata$r	SEGMENT
??_R1A@?0A@A@PCTalkBox@@8 DD FLAT:??_R0?AVPCTalkBox@@@8	; PCTalkBox::`RTTI Base Class Descriptor at (0,-1,0,0)'
	DD	03H
	DD	00H
	DD	0ffffffffH
	DD	00H
	DD	00H
rdata$r	ENDS
;	COMDAT ??_R1A@?0A@A@MStringList@@8
rdata$r	SEGMENT
??_R1A@?0A@A@MStringList@@8 DD FLAT:??_R0?AVMStringList@@@8 ; MStringList::`RTTI Base Class Descriptor at (0,-1,0,0)'
	DD	02H
	DD	00H
	DD	0ffffffffH
	DD	00H
	DD	00H
rdata$r	ENDS
;	COMDAT ??_R0?AVMStringList@@@8
_DATA	SEGMENT
??_R0?AVMStringList@@@8 DD FLAT:??_7type_info@@6B@	; MStringList `RTTI Type Descriptor'
	DD	00H
	DB	'.?AVMStringList@@', 00H
_DATA	ENDS
;	COMDAT ??_R13?0A@A@?$list@PAVMString@@V?$allocator@PAVMString@@@_STL@@@_STL@@8
rdata$r	SEGMENT
??_R13?0A@A@?$list@PAVMString@@V?$allocator@PAVMString@@@_STL@@@_STL@@8 DD FLAT:??_R0?AV?$list@PAVMString@@V?$allocator@PAVMString@@@_STL@@@_STL@@@8 ; _STL::list<MString *,_STL::allocator<MString *> >::`RTTI Base Class Descriptor at (4,-1,0,0)'
	DD	01H
	DD	04H
	DD	0ffffffffH
	DD	00H
	DD	00H
rdata$r	ENDS
;	COMDAT ??_R0?AV?$list@PAVMString@@V?$allocator@PAVMString@@@_STL@@@_STL@@@8
_DATA	SEGMENT
??_R0?AV?$list@PAVMString@@V?$allocator@PAVMString@@@_STL@@@_STL@@@8 DD FLAT:??_7type_info@@6B@ ; _STL::list<MString *,_STL::allocator<MString *> > `RTTI Type Descriptor'
	DD	00H
	DB	'.?AV?$list@PAVMString@@V?$allocator@PAVMString@@@_STL@@@'
	DB	'_STL@@', 00H
_DATA	ENDS
;	COMDAT ??_R13?0A@A@?$_List_base@PAVMString@@V?$allocator@PAVMString@@@_STL@@@_STL@@8
rdata$r	SEGMENT
??_R13?0A@A@?$_List_base@PAVMString@@V?$allocator@PAVMString@@@_STL@@@_STL@@8 DD FLAT:??_R0?AV?$_List_base@PAVMString@@V?$allocator@PAVMString@@@_STL@@@_STL@@@8 ; _STL::_List_base<MString *,_STL::allocator<MString *> >::`RTTI Base Class Descriptor at (4,-1,0,0)'
	DD	00H
	DD	04H
	DD	0ffffffffH
	DD	00H
	DD	00H
rdata$r	ENDS
;	COMDAT ??_R0?AV?$_List_base@PAVMString@@V?$allocator@PAVMString@@@_STL@@@_STL@@@8
_DATA	SEGMENT
??_R0?AV?$_List_base@PAVMString@@V?$allocator@PAVMString@@@_STL@@@_STL@@@8 DD FLAT:??_7type_info@@6B@ ; _STL::_List_base<MString *,_STL::allocator<MString *> > `RTTI Type Descriptor'
	DD	00H
	DB	'.?AV?$_List_base@PAVMString@@V?$allocator@PAVMString@@@_'
	DB	'STL@@@_STL@@', 00H
; Function compile flags: /Ogsy
; File c:\darkeden\designed_common\project\client\talkbox.cpp
_DATA	ENDS
;	COMDAT ??0PCTalkBox@@QAE@XZ
_TEXT	SEGMENT
_this$ = -20						; size = 4
$T107321 = -13						; size = 1
__$EHRec$ = -12						; size = 12
??0PCTalkBox@@QAE@XZ PROC NEAR				; PCTalkBox::PCTalkBox, COMDAT
; _this$ = ecx

; 21   : { 

  00000	b8 00 00 00 00	 mov	 eax, __ehhandler$??0PCTalkBox@@QAE@XZ
  00005	e8 00 00 00 00	 call	 __EH_prolog
  0000a	51		 push	 ecx
  0000b	51		 push	 ecx
  0000c	56		 push	 esi
  0000d	8b f1		 mov	 esi, ecx
  0000f	57		 push	 edi
  00010	89 75 ec	 mov	 DWORD PTR _this$[ebp], esi
  00013	e8 00 00 00 00	 call	 ??0MStringList@@QAE@XZ	; MStringList::MStringList
  00018	8d 45 f3	 lea	 eax, DWORD PTR $T107321[ebp]
  0001b	33 ff		 xor	 edi, edi
  0001d	8d 4e 08	 lea	 ecx, DWORD PTR [esi+8]
  00020	50		 push	 eax
  00021	89 7d fc	 mov	 DWORD PTR __$EHRec$[ebp+8], edi
  00024	c7 06 00 00 00
	00		 mov	 DWORD PTR [esi], OFFSET FLAT:??_7PCTalkBox@@6B@
  0002a	e8 00 00 00 00	 call	 ??0?$_Vector_base@HV?$allocator@H@_STL@@@_STL@@QAE@ABV?$allocator@H@1@@Z ; _STL::_Vector_base<int,_STL::allocator<int> >::_Vector_base<int,_STL::allocator<int> >
  0002f	8d 4e 18	 lea	 ecx, DWORD PTR [esi+24]
  00032	c6 45 fc 01	 mov	 BYTE PTR __$EHRec$[ebp+8], 1
  00036	e8 00 00 00 00	 call	 ??0MString@@QAE@XZ	; MString::MString

; 22   : 	m_Type		= NORMAL;
; 23   : 	m_NPCID		= 0;
; 24   : 	m_CreatureType = 0;
; 25   : 	m_ScriptID	= 0; 
; 26   : 	m_AnswerID	= 0;
; 27   : }

  0003b	8b 4d f4	 mov	 ecx, DWORD PTR __$EHRec$[ebp]
  0003e	89 7e 14	 mov	 DWORD PTR [esi+20], edi
  00041	89 7e 24	 mov	 DWORD PTR [esi+36], edi
  00044	89 7e 28	 mov	 DWORD PTR [esi+40], edi
  00047	89 7e 2c	 mov	 DWORD PTR [esi+44], edi
  0004a	89 7e 30	 mov	 DWORD PTR [esi+48], edi
  0004d	5f		 pop	 edi
  0004e	8b c6		 mov	 eax, esi
  00050	5e		 pop	 esi
  00051	64 89 0d 00 00
	00 00		 mov	 DWORD PTR fs:__except_list, ecx
  00058	c9		 leave
  00059	c3		 ret	 0
_TEXT	ENDS
;	COMDAT text$x
text$x	SEGMENT
$L107322:
  00000	8b 4d ec	 mov	 ecx, DWORD PTR _this$[ebp]
  00003	e9 00 00 00 00	 jmp	 ??1MStringList@@UAE@XZ	; MStringList::~MStringList
$L107323:
  00008	8b 4d ec	 mov	 ecx, DWORD PTR _this$[ebp]
  0000b	83 c1 08	 add	 ecx, 8
  0000e	e9 00 00 00 00	 jmp	 ??1?$vector@HV?$allocator@H@_STL@@@_STL@@QAE@XZ ; _STL::vector<int,_STL::allocator<int> >::~vector<int,_STL::allocator<int> >
__ehhandler$??0PCTalkBox@@QAE@XZ:
  00013	b8 00 00 00 00	 mov	 eax, OFFSET FLAT:$T107338
  00018	e9 00 00 00 00	 jmp	 ___CxxFrameHandler
text$x	ENDS
??0PCTalkBox@@QAE@XZ ENDP				; PCTalkBox::PCTalkBox
PUBLIC	?clear@?$vector@HV?$allocator@H@_STL@@@_STL@@QAEXXZ ; _STL::vector<int,_STL::allocator<int> >::clear
; Function compile flags: /Ogsy
; File c:\stlport-4.6.1\stlport\stl\_vector.h
;	COMDAT ?clear@?$vector@HV?$allocator@H@_STL@@@_STL@@QAEXXZ
_TEXT	SEGMENT
?clear@?$vector@HV?$allocator@H@_STL@@@_STL@@QAEXXZ PROC NEAR ; _STL::vector<int,_STL::allocator<int> >::clear, COMDAT
; _this$ = ecx

; 488  :     erase(begin(), end());

  00000	ff 71 04	 push	 DWORD PTR [ecx+4]
  00003	ff 31		 push	 DWORD PTR [ecx]
  00005	e8 00 00 00 00	 call	 ?erase@?$vector@HV?$allocator@H@_STL@@@_STL@@QAEPAHPAH0@Z ; _STL::vector<int,_STL::allocator<int> >::erase

; 489  :   }

  0000a	c3		 ret	 0
?clear@?$vector@HV?$allocator@H@_STL@@@_STL@@QAEXXZ ENDP ; _STL::vector<int,_STL::allocator<int> >::clear
_TEXT	ENDS
PUBLIC	?_M_insert_overflow@?$vector@HV?$allocator@H@_STL@@@_STL@@IAEXPAHABHABU__true_type@2@I_N@Z ; _STL::vector<int,_STL::allocator<int> >::_M_insert_overflow
; Function compile flags: /Ogsy
;	COMDAT ?_M_insert_overflow@?$vector@HV?$allocator@H@_STL@@@_STL@@IAEXPAHABHABU__true_type@2@I_N@Z
_TEXT	SEGMENT
___old_size$ = -4					; size = 4
___position$ = 8					; size = 4
___x$ = 12						; size = 4
___formal$ = 16						; size = 4
___new_finish$ = 20					; size = 4
___fill_len$ = 20					; size = 4
___atend$ = 24						; size = 1
?_M_insert_overflow@?$vector@HV?$allocator@H@_STL@@@_STL@@IAEXPAHABHABU__true_type@2@I_N@Z PROC NEAR ; _STL::vector<int,_STL::allocator<int> >::_M_insert_overflow, COMDAT
; _this$ = ecx

; 151  : 			  size_type __fill_len, bool __atend = false) {

  00000	55		 push	 ebp
  00001	8b ec		 mov	 ebp, esp
  00003	51		 push	 ecx
  00004	53		 push	 ebx
  00005	56		 push	 esi
  00006	8b f1		 mov	 esi, ecx

; 152  :     const size_type __old_size = size();

  00008	8b 46 04	 mov	 eax, DWORD PTR [esi+4]
  0000b	2b 06		 sub	 eax, DWORD PTR [esi]
  0000d	57		 push	 edi
  0000e	c1 f8 02	 sar	 eax, 2

; 153  :     const size_type __len = __old_size + (max)(__old_size, __fill_len);

  00011	3b 45 14	 cmp	 eax, DWORD PTR ___fill_len$[ebp]
  00014	89 45 fc	 mov	 DWORD PTR ___old_size$[ebp], eax
  00017	8d 4d 14	 lea	 ecx, DWORD PTR ___fill_len$[ebp]
  0001a	72 03		 jb	 SHORT $L107370
  0001c	8d 4d fc	 lea	 ecx, DWORD PTR ___old_size$[ebp]
$L107370:
  0001f	8b 39		 mov	 edi, DWORD PTR [ecx]
  00021	03 f8		 add	 edi, eax

; 154  :     
; 155  :     pointer __new_start = this->_M_end_of_storage.allocate(__len);

  00023	74 10		 je	 SHORT $L107376
  00025	8b c7		 mov	 eax, edi
  00027	c1 e0 02	 shl	 eax, 2
  0002a	50		 push	 eax
  0002b	e8 00 00 00 00	 call	 ?allocate@?$__node_alloc@$00$0A@@_STL@@SAPAXI@Z ; _STL::__node_alloc<1,0>::allocate
  00030	59		 pop	 ecx
  00031	8b d8		 mov	 ebx, eax
  00033	eb 02		 jmp	 SHORT $L107377
$L107376:
  00035	33 db		 xor	 ebx, ebx
$L107377:

; 156  :     pointer __new_finish = (pointer)__copy_trivial(this->_M_start, __position, __new_start);

  00037	53		 push	 ebx
  00038	ff 75 08	 push	 DWORD PTR ___position$[ebp]
  0003b	ff 36		 push	 DWORD PTR [esi]
  0003d	e8 00 00 00 00	 call	 ?__copy_trivial@_STL@@YAPAXPBX0PAX@Z ; _STL::__copy_trivial

; 157  :       // handle insertion
; 158  :     __new_finish = fill_n(__new_finish, __fill_len, __x);

  00042	ff 75 0c	 push	 DWORD PTR ___x$[ebp]
  00045	ff 75 14	 push	 DWORD PTR ___fill_len$[ebp]
  00048	50		 push	 eax
  00049	e8 00 00 00 00	 call	 ??$fill_n@PAHIH@_STL@@YAPAHPAHIABH@Z ; _STL::fill_n<int *,unsigned int,int>
  0004e	83 c4 18	 add	 esp, 24			; 00000018H

; 159  :     if (!__atend)

  00051	80 7d 18 00	 cmp	 BYTE PTR ___atend$[ebp], 0
  00055	89 45 14	 mov	 DWORD PTR ___new_finish$[ebp], eax
  00058	75 12		 jne	 SHORT $L105517

; 160  :       // copy remainder
; 161  :       __new_finish = (pointer)__copy_trivial(__position, this->_M_finish, __new_finish);

  0005a	50		 push	 eax
  0005b	ff 76 04	 push	 DWORD PTR [esi+4]
  0005e	ff 75 08	 push	 DWORD PTR ___position$[ebp]
  00061	e8 00 00 00 00	 call	 ?__copy_trivial@_STL@@YAPAXPBX0PAX@Z ; _STL::__copy_trivial
  00066	83 c4 0c	 add	 esp, 12			; 0000000cH
  00069	89 45 14	 mov	 DWORD PTR ___new_finish$[ebp], eax
$L105517:

; 162  :     _M_clear();

  0006c	8b ce		 mov	 ecx, esi
  0006e	e8 00 00 00 00	 call	 ?_M_clear@?$vector@HV?$allocator@H@_STL@@@_STL@@IAEXXZ ; _STL::vector<int,_STL::allocator<int> >::_M_clear

; 163  :     _M_set(__new_start, __new_finish, __new_start + __len);

  00073	8b 45 14	 mov	 eax, DWORD PTR ___new_finish$[ebp]
  00076	89 46 04	 mov	 DWORD PTR [esi+4], eax
  00079	8d 04 bb	 lea	 eax, DWORD PTR [ebx+edi*4]
  0007c	5f		 pop	 edi
  0007d	89 1e		 mov	 DWORD PTR [esi], ebx
  0007f	89 46 08	 mov	 DWORD PTR [esi+8], eax
  00082	5e		 pop	 esi
  00083	5b		 pop	 ebx

; 164  :   }

  00084	c9		 leave
  00085	c2 14 00	 ret	 20			; 00000014H
?_M_insert_overflow@?$vector@HV?$allocator@H@_STL@@@_STL@@IAEXPAHABHABU__true_type@2@I_N@Z ENDP ; _STL::vector<int,_STL::allocator<int> >::_M_insert_overflow
_TEXT	ENDS
PUBLIC	??1PCTalkBox@@UAE@XZ				; PCTalkBox::~PCTalkBox
; Function compile flags: /Ogsy
;	COMDAT ??_GPCTalkBox@@UAEPAXI@Z
_TEXT	SEGMENT
___flags$ = 8						; size = 4
??_GPCTalkBox@@UAEPAXI@Z PROC NEAR			; PCTalkBox::`scalar deleting destructor', COMDAT
; _this$ = ecx
  00000	56		 push	 esi
  00001	8b f1		 mov	 esi, ecx
  00003	e8 00 00 00 00	 call	 ??1PCTalkBox@@UAE@XZ
  00008	f6 44 24 08 01	 test	 BYTE PTR ___flags$[esp], 1
  0000d	74 07		 je	 SHORT $L105337
  0000f	56		 push	 esi
  00010	e8 00 00 00 00	 call	 ??3@YAXPAX@Z		; operator delete
  00015	59		 pop	 ecx
$L105337:
  00016	8b c6		 mov	 eax, esi
  00018	5e		 pop	 esi
  00019	c2 04 00	 ret	 4
??_GPCTalkBox@@UAEPAXI@Z ENDP				; PCTalkBox::`scalar deleting destructor'
_TEXT	ENDS
EXTRN	??1MString@@UAE@XZ:NEAR				; MString::~MString
;	COMDAT xdata$x
xdata$x	SEGMENT
$T107424 DD	0ffffffffH
	DD	FLAT:$L107386
	DD	00H
	DD	FLAT:$L107387
$T107422 DD	019930520H
	DD	02H
	DD	FLAT:$T107424
	DD	2 DUP(00H)
	DD	2 DUP(00H)
; Function compile flags: /Ogsy
xdata$x	ENDS
;	COMDAT ??1PCTalkBox@@UAE@XZ
_TEXT	SEGMENT
_this$ = -16						; size = 4
__$EHRec$ = -12						; size = 12
??1PCTalkBox@@UAE@XZ PROC NEAR				; PCTalkBox::~PCTalkBox, COMDAT
; _this$ = ecx
  00000	b8 00 00 00 00	 mov	 eax, __ehhandler$??1PCTalkBox@@UAE@XZ
  00005	e8 00 00 00 00	 call	 __EH_prolog
  0000a	51		 push	 ecx
  0000b	56		 push	 esi
  0000c	8b f1		 mov	 esi, ecx
  0000e	89 75 f0	 mov	 DWORD PTR _this$[ebp], esi
  00011	8d 4e 18	 lea	 ecx, DWORD PTR [esi+24]
  00014	c7 45 fc 01 00
	00 00		 mov	 DWORD PTR __$EHRec$[ebp+8], 1
  0001b	e8 00 00 00 00	 call	 ??1MString@@UAE@XZ	; MString::~MString
  00020	8d 4e 08	 lea	 ecx, DWORD PTR [esi+8]
  00023	c6 45 fc 00	 mov	 BYTE PTR __$EHRec$[ebp+8], 0
  00027	e8 00 00 00 00	 call	 ??1?$_Vector_base@HV?$allocator@H@_STL@@@_STL@@QAE@XZ ; _STL::_Vector_base<int,_STL::allocator<int> >::~_Vector_base<int,_STL::allocator<int> >
  0002c	83 4d fc ff	 or	 DWORD PTR __$EHRec$[ebp+8], -1
  00030	8b ce		 mov	 ecx, esi
  00032	e8 00 00 00 00	 call	 ??1MStringList@@UAE@XZ	; MStringList::~MStringList
  00037	8b 4d f4	 mov	 ecx, DWORD PTR __$EHRec$[ebp]
  0003a	5e		 pop	 esi
  0003b	64 89 0d 00 00
	00 00		 mov	 DWORD PTR fs:__except_list, ecx
  00042	c9		 leave
  00043	c3		 ret	 0
_TEXT	ENDS
;	COMDAT text$x
text$x	SEGMENT
$L107386:
  00000	8b 4d f0	 mov	 ecx, DWORD PTR _this$[ebp]
  00003	e9 00 00 00 00	 jmp	 ??1MStringList@@UAE@XZ	; MStringList::~MStringList
$L107387:
  00008	8b 4d f0	 mov	 ecx, DWORD PTR _this$[ebp]
  0000b	83 c1 08	 add	 ecx, 8
  0000e	e9 00 00 00 00	 jmp	 ??1?$vector@HV?$allocator@H@_STL@@@_STL@@QAE@XZ ; _STL::vector<int,_STL::allocator<int> >::~vector<int,_STL::allocator<int> >
__ehhandler$??1PCTalkBox@@UAE@XZ:
  00013	b8 00 00 00 00	 mov	 eax, OFFSET FLAT:$T107422
  00018	e9 00 00 00 00	 jmp	 ___CxxFrameHandler
text$x	ENDS
??1PCTalkBox@@UAE@XZ ENDP				; PCTalkBox::~PCTalkBox
PUBLIC	?push_back@?$vector@HV?$allocator@H@_STL@@@_STL@@QAEXABH@Z ; _STL::vector<int,_STL::allocator<int> >::push_back
; Function compile flags: /Ogsy
;	COMDAT ?push_back@?$vector@HV?$allocator@H@_STL@@@_STL@@QAEXABH@Z
_TEXT	SEGMENT
___x$ = 8						; size = 4
$T107429 = 11						; size = 1
?push_back@?$vector@HV?$allocator@H@_STL@@@_STL@@QAEXABH@Z PROC NEAR ; _STL::vector<int,_STL::allocator<int> >::push_back, COMDAT
; _this$ = ecx

; 331  :   void push_back(const _Tp& __x) {

  00000	55		 push	 ebp
  00001	8b ec		 mov	 ebp, esp

; 332  :     if (this->_M_finish != this->_M_end_of_storage._M_data) {

  00003	8b 41 04	 mov	 eax, DWORD PTR [ecx+4]
  00006	3b 41 08	 cmp	 eax, DWORD PTR [ecx+8]
  00009	74 11		 je	 SHORT $L105433

; 333  :       _Construct(this->_M_finish, __x);

  0000b	85 c0		 test	 eax, eax
  0000d	74 07		 je	 SHORT $L107440
  0000f	8b 55 08	 mov	 edx, DWORD PTR ___x$[ebp]
  00012	8b 12		 mov	 edx, DWORD PTR [edx]
  00014	89 10		 mov	 DWORD PTR [eax], edx
$L107440:

; 334  :       ++this->_M_finish;

  00016	83 41 04 04	 add	 DWORD PTR [ecx+4], 4

; 335  :     }
; 336  :     else

  0001a	eb 11		 jmp	 SHORT $L105440
$L105433:

; 337  :       _M_insert_overflow(this->_M_finish, __x, _IsPODType(), 1UL, true);

  0001c	6a 01		 push	 1
  0001e	6a 01		 push	 1
  00020	8d 55 0b	 lea	 edx, DWORD PTR $T107429[ebp]
  00023	52		 push	 edx
  00024	ff 75 08	 push	 DWORD PTR ___x$[ebp]
  00027	50		 push	 eax
  00028	e8 00 00 00 00	 call	 ?_M_insert_overflow@?$vector@HV?$allocator@H@_STL@@@_STL@@IAEXPAHABHABU__true_type@2@I_N@Z ; _STL::vector<int,_STL::allocator<int> >::_M_insert_overflow
$L105440:

; 338  :   }

  0002d	5d		 pop	 ebp
  0002e	c2 04 00	 ret	 4
?push_back@?$vector@HV?$allocator@H@_STL@@@_STL@@QAEXABH@Z ENDP ; _STL::vector<int,_STL::allocator<int> >::push_back
_TEXT	ENDS
PUBLIC	?SetNPCTalkBox@PCTalkBox@@QAEXHPBDIII@Z		; PCTalkBox::SetNPCTalkBox
EXTRN	?AddString@MStringList@@QAEXPBD@Z:NEAR		; MStringList::AddString
EXTRN	?GetContentSize@MNPCScriptTable@@QBEHH@Z:NEAR	; MNPCScriptTable::GetContentSize
EXTRN	?GetContent@MNPCScriptTable@@QBEPBDHH@Z:NEAR	; MNPCScriptTable::GetContent
EXTRN	?g_pNPCScriptTable@@3PAVMNPCScriptTable@@A:DWORD ; g_pNPCScriptTable
EXTRN	?ScriptFiltering@SystemAvailabilitiesManager@@QAE_NHH@Z:NEAR ; SystemAvailabilitiesManager::ScriptFiltering
EXTRN	?PopupPCTalkDlg@UIDialog@@QAEXHH@Z:NEAR		; UIDialog::PopupPCTalkDlg
EXTRN	?g_pUIDialog@@3PAVUIDialog@@A:DWORD		; g_pUIDialog
EXTRN	?g_pSystemAvailableManager@@3PAVSystemAvailabilitiesManager@@A:DWORD ; g_pSystemAvailableManager
; Function compile flags: /Ogsy
; File c:\darkeden\designed_common\project\client\talkbox.cpp
;	COMDAT ?SetNPCTalkBox@PCTalkBox@@QAEXHPBDIII@Z
_TEXT	SEGMENT
_i$105351 = 8						; size = 4
_talkBoxType$ = 8					; size = 4
_content$ = 12						; size = 4
_npcID$ = 16						; size = 4
_creatureType$ = 20					; size = 4
_sID$ = 24						; size = 4
?SetNPCTalkBox@PCTalkBox@@QAEXHPBDIII@Z PROC NEAR	; PCTalkBox::SetNPCTalkBox, COMDAT
; _this$ = ecx

; 30   : {

  00000	55		 push	 ebp
  00001	8b ec		 mov	 ebp, esp

; 31   : 	SetType((PCTalkBox::TALKBOX_TYPE)talkBoxType);

  00003	8b 45 08	 mov	 eax, DWORD PTR _talkBoxType$[ebp]
  00006	56		 push	 esi
  00007	57		 push	 edi

; 32   : 	SetContent(content);

  00008	ff 75 0c	 push	 DWORD PTR _content$[ebp]
  0000b	8b f1		 mov	 esi, ecx
  0000d	8d 4e 18	 lea	 ecx, DWORD PTR [esi+24]
  00010	89 46 14	 mov	 DWORD PTR [esi+20], eax
  00013	e8 00 00 00 00	 call	 ??4MString@@QAEXPBD@Z	; MString::operator=

; 33   : 	SetNPCID(npcID);

  00018	8b 45 10	 mov	 eax, DWORD PTR _npcID$[ebp]

; 34   : 	SetCreatureType(creatureType);
; 35   : 	SetScriptID(sID);

  0001b	8b 7d 18	 mov	 edi, DWORD PTR _sID$[ebp]
  0001e	89 46 24	 mov	 DWORD PTR [esi+36], eax
  00021	8b 45 14	 mov	 eax, DWORD PTR _creatureType$[ebp]
  00024	89 46 28	 mov	 DWORD PTR [esi+40], eax
  00027	89 7e 2c	 mov	 DWORD PTR [esi+44], edi

; 36   : 
; 37   : 	int contentSize = g_pNPCScriptTable->GetContentSize(sID);

  0002a	8b 0d 00 00 00
	00		 mov	 ecx, DWORD PTR ?g_pNPCScriptTable@@3PAVMNPCScriptTable@@A ; g_pNPCScriptTable
  00030	57		 push	 edi
  00031	e8 00 00 00 00	 call	 ?GetContentSize@MNPCScriptTable@@QBEHH@Z ; MNPCScriptTable::GetContentSize

; 38   : 	
; 39   : 	g_pPCTalkBox->m_AnswerIDMap.clear();

  00036	8b 0d 00 00 00
	00		 mov	 ecx, DWORD PTR ?g_pPCTalkBox@@3PAVPCTalkBox@@A ; g_pPCTalkBox
  0003c	ff 71 0c	 push	 DWORD PTR [ecx+12]
  0003f	83 c1 08	 add	 ecx, 8
  00042	ff 31		 push	 DWORD PTR [ecx]
  00044	8b f0		 mov	 esi, eax
  00046	e8 00 00 00 00	 call	 ?erase@?$vector@HV?$allocator@H@_STL@@@_STL@@QAEPAHPAH0@Z ; _STL::vector<int,_STL::allocator<int> >::erase

; 40   : 	
; 41   : 	int idnum=0;
; 42   : 	
; 43   : 	for (int i=0; i<contentSize; i++)

  0004b	83 65 08 00	 and	 DWORD PTR _i$105351[ebp], 0
  0004f	85 f6		 test	 esi, esi
  00051	7e 48		 jle	 SHORT $L105354
$L105352:

; 44   : 	{
; 45   : 		// g_PCTalkBox 
; 46   : 		if(g_pSystemAvailableManager->ScriptFiltering(sID, i))

  00053	ff 75 08	 push	 DWORD PTR _i$105351[ebp]
  00056	8b 0d 00 00 00
	00		 mov	 ecx, DWORD PTR ?g_pSystemAvailableManager@@3PAVSystemAvailabilitiesManager@@A ; g_pSystemAvailableManager
  0005c	57		 push	 edi
  0005d	e8 00 00 00 00	 call	 ?ScriptFiltering@SystemAvailabilitiesManager@@QAE_NHH@Z ; SystemAvailabilitiesManager::ScriptFiltering
  00062	84 c0		 test	 al, al
  00064	74 2d		 je	 SHORT $L105353

; 47   : 		{
; 48   :  			g_pPCTalkBox->AddString(g_pNPCScriptTable->GetContent(sID, i));

  00066	ff 75 08	 push	 DWORD PTR _i$105351[ebp]
  00069	8b 0d 00 00 00
	00		 mov	 ecx, DWORD PTR ?g_pNPCScriptTable@@3PAVMNPCScriptTable@@A ; g_pNPCScriptTable
  0006f	57		 push	 edi
  00070	e8 00 00 00 00	 call	 ?GetContent@MNPCScriptTable@@QBEPBDHH@Z ; MNPCScriptTable::GetContent
  00075	8b 0d 00 00 00
	00		 mov	 ecx, DWORD PTR ?g_pPCTalkBox@@3PAVPCTalkBox@@A ; g_pPCTalkBox
  0007b	50		 push	 eax
  0007c	e8 00 00 00 00	 call	 ?AddString@MStringList@@QAEXPBD@Z ; MStringList::AddString

; 49   : 			g_pPCTalkBox->m_AnswerIDMap.push_back(i);

  00081	8b 0d 00 00 00
	00		 mov	 ecx, DWORD PTR ?g_pPCTalkBox@@3PAVPCTalkBox@@A ; g_pPCTalkBox
  00087	8d 45 08	 lea	 eax, DWORD PTR _i$105351[ebp]
  0008a	50		 push	 eax
  0008b	83 c1 08	 add	 ecx, 8
  0008e	e8 00 00 00 00	 call	 ?push_back@?$vector@HV?$allocator@H@_STL@@@_STL@@QAEXABH@Z ; _STL::vector<int,_STL::allocator<int> >::push_back
$L105353:
  00093	ff 45 08	 inc	 DWORD PTR _i$105351[ebp]
  00096	39 75 08	 cmp	 DWORD PTR _i$105351[ebp], esi
  00099	7c b8		 jl	 SHORT $L105352
$L105354:

; 50   : 		}				
; 51   : 	}
; 52   : 	
; 53   : 	DEBUG_ADD("SetContent");
; 54   : 	
; 55   : 	g_pUIDialog->PopupPCTalkDlg();

  0009b	8b 0d 00 00 00
	00		 mov	 ecx, DWORD PTR ?g_pUIDialog@@3PAVUIDialog@@A ; g_pUIDialog
  000a1	6a ff		 push	 -1
  000a3	6a ff		 push	 -1
  000a5	e8 00 00 00 00	 call	 ?PopupPCTalkDlg@UIDialog@@QAEXHH@Z ; UIDialog::PopupPCTalkDlg
  000aa	5f		 pop	 edi
  000ab	5e		 pop	 esi

; 56   : }

  000ac	5d		 pop	 ebp
  000ad	c2 14 00	 ret	 20			; 00000014H
?SetNPCTalkBox@PCTalkBox@@QAEXHPBDIII@Z ENDP		; PCTalkBox::SetNPCTalkBox
_TEXT	ENDS
END
