; Listing generated by Microsoft (R) Optimizing Compiler Version 13.10.3077 

	TITLE	\darkeden\Designed_Common\Project\Client\UserInformation.cpp
	.386P
include listing.inc
if @Version gt 510
.model FLAT
else
_TEXT	SEGMENT PARA USE32 PUBLIC 'CODE'
_TEXT	ENDS
_DATA	SEGMENT DWORD USE32 PUBLIC 'DATA'
_DATA	ENDS
CONST	SEGMENT DWORD USE32 PUBLIC 'CONST'
CONST	ENDS
_BSS	SEGMENT DWORD USE32 PUBLIC 'BSS'
_BSS	ENDS
$$SYMBOLS	SEGMENT BYTE USE32 'DEBSYM'
$$SYMBOLS	ENDS
$$TYPES	SEGMENT BYTE USE32 'DEBTYP'
$$TYPES	ENDS
_TLS	SEGMENT DWORD USE32 PUBLIC 'TLS'
_TLS	ENDS
;	COMDAT ??_C@_0BN@ODLNCKCA@Data?2?2Info?2?2ClientConfig?4inf?$AA@
CONST	SEGMENT DWORD USE32 PUBLIC 'CONST'
CONST	ENDS
;	COMDAT ??_C@_0BM@DFPLPGPC@Data?2?2Info?2?2GuildMapper?4inf?$AA@
CONST	SEGMENT DWORD USE32 PUBLIC 'CONST'
CONST	ENDS
;	COMDAT ??_C@_0BN@LHODHNBK@Data?2?2Info?2?2GuildVersion?4inf?$AA@
CONST	SEGMENT DWORD USE32 PUBLIC 'CONST'
CONST	ENDS
;	COMDAT ??_C@_0BH@DDPLNCOL@Data?2?2Info?2?2Player?4inf?$AA@
CONST	SEGMENT DWORD USE32 PUBLIC 'CONST'
CONST	ENDS
;	COMDAT ??_C@_0BL@ILLNAPHB@Data?2?2Info?2?2Resolution?4inf?$AA@
CONST	SEGMENT DWORD USE32 PUBLIC 'CONST'
CONST	ENDS
;	COMDAT ??_C@_0CA@HEIGFDLG@Data?2?2Info?2?2SelectedChannel?4inf?$AA@
CONST	SEGMENT DWORD USE32 PUBLIC 'CONST'
CONST	ENDS
;	COMDAT ??_C@_0N@GOPDCEEB@basic_string?$AA@
CONST	SEGMENT DWORD USE32 PUBLIC 'CONST'
CONST	ENDS
rdata$r	SEGMENT DWORD USE32 PUBLIC 'CONST'
rdata$r	ENDS
text$yc	SEGMENT PARA USE32 PUBLIC 'CODE'
text$yc	ENDS
CRT$XCA	SEGMENT DWORD USE32 PUBLIC 'DATA'
CRT$XCA	ENDS
CRT$XCU	SEGMENT DWORD USE32 PUBLIC 'DATA'
CRT$XCU	ENDS
CRT$XCL	SEGMENT DWORD USE32 PUBLIC 'DATA'
CRT$XCL	ENDS
CRT$XCC	SEGMENT DWORD USE32 PUBLIC 'DATA'
CRT$XCC	ENDS
CRT$XCZ	SEGMENT DWORD USE32 PUBLIC 'DATA'
CRT$XCZ	ENDS
text$yd	SEGMENT PARA USE32 PUBLIC 'CODE'
text$yd	ENDS
;	COMDAT ?start@CNFS@@QAE_NPADH@Z
_TEXT	SEGMENT PARA USE32 PUBLIC 'CODE'
_TEXT	ENDS
;	COMDAT ?end@CNFS@@QAEXXZ
_TEXT	SEGMENT PARA USE32 PUBLIC 'CODE'
_TEXT	ENDS
;	COMDAT ?Init@VirtualFileHeader@@QAEXXZ
_TEXT	SEGMENT PARA USE32 PUBLIC 'CODE'
_TEXT	ENDS
;	COMDAT ??1IFileIO@@UAE@XZ
_TEXT	SEGMENT PARA USE32 PUBLIC 'CODE'
_TEXT	ENDS
;	COMDAT ??_GIFileIO@@UAEPAXI@Z
_TEXT	SEGMENT PARA USE32 PUBLIC 'CODE'
_TEXT	ENDS
;	COMDAT ??0iovfs_base@@QAE@XZ
_TEXT	SEGMENT PARA USE32 PUBLIC 'CODE'
_TEXT	ENDS
;	COMDAT ??_Giovfs_base@@UAEPAXI@Z
_TEXT	SEGMENT PARA USE32 PUBLIC 'CODE'
_TEXT	ENDS
;	COMDAT ??1iovfs_base@@UAE@XZ
_TEXT	SEGMENT PARA USE32 PUBLIC 'CODE'
_TEXT	ENDS
;	COMDAT ?Init@iovfs_base@@QAEXXZ
_TEXT	SEGMENT PARA USE32 PUBLIC 'CODE'
_TEXT	ENDS
;	COMDAT ??_Givfstream@@UAEPAXI@Z
_TEXT	SEGMENT PARA USE32 PUBLIC 'CODE'
_TEXT	ENDS
;	COMDAT ??1ivfstream@@UAE@XZ
_TEXT	SEGMENT PARA USE32 PUBLIC 'CODE'
_TEXT	ENDS
;	COMDAT ?open@ivfstream@@UAEXPBDH@Z
_TEXT	SEGMENT PARA USE32 PUBLIC 'CODE'
_TEXT	ENDS
;	COMDAT ??_Govfstream@@UAEPAXI@Z
_TEXT	SEGMENT PARA USE32 PUBLIC 'CODE'
_TEXT	ENDS
;	COMDAT ??1ovfstream@@UAE@XZ
_TEXT	SEGMENT PARA USE32 PUBLIC 'CODE'
_TEXT	ENDS
;	COMDAT ?open@ovfstream@@UAEXPBDH@Z
_TEXT	SEGMENT PARA USE32 PUBLIC 'CODE'
_TEXT	ENDS
;	COMDAT ??0UserInformation@@QAE@XZ
_TEXT	SEGMENT PARA USE32 PUBLIC 'CODE'
_TEXT	ENDS
;	COMDAT ??1UserInformation@@QAE@XZ
_TEXT	SEGMENT PARA USE32 PUBLIC 'CODE'
_TEXT	ENDS
;	COMDAT ?eq@?$__char_traits_base@DH@_STL@@SA_NABD0@Z
_TEXT	SEGMENT PARA USE32 PUBLIC 'CODE'
_TEXT	ENDS
;	COMDAT ?not_eof@?$__char_traits_base@DH@_STL@@SAHABH@Z
_TEXT	SEGMENT PARA USE32 PUBLIC 'CODE'
_TEXT	ENDS
;	COMDAT ?eq_int_type@?$__char_traits_base@DH@_STL@@SA_NABH0@Z
_TEXT	SEGMENT PARA USE32 PUBLIC 'CODE'
_TEXT	ENDS
;	COMDAT ?get_allocator@?$basic_string@DV?$char_traits@D@_STL@@V?$allocator@D@2@@_STL@@QBE?AV?$allocator@D@2@XZ
_TEXT	SEGMENT PARA USE32 PUBLIC 'CODE'
_TEXT	ENDS
;	COMDAT ??4?$basic_string@DV?$char_traits@D@_STL@@V?$allocator@D@2@@_STL@@QAEAAV01@PBD@Z
_TEXT	SEGMENT PARA USE32 PUBLIC 'CODE'
_TEXT	ENDS
;	COMDAT ?_M_terminate_string@?$basic_string@DV?$char_traits@D@_STL@@V?$allocator@D@2@@_STL@@AAEXXZ
_TEXT	SEGMENT PARA USE32 PUBLIC 'CODE'
_TEXT	ENDS
;	COMDAT ??0?$_String_base@DV?$allocator@D@_STL@@@_STL@@QAE@ABV?$allocator@D@1@@Z
_TEXT	SEGMENT PARA USE32 PUBLIC 'CODE'
_TEXT	ENDS
;	COMDAT ?allocate@?$allocator@D@_STL@@QAEPADIPBX@Z
_TEXT	SEGMENT PARA USE32 PUBLIC 'CODE'
_TEXT	ENDS
;	COMDAT ??0?$fpos@H@_STL@@QAE@J@Z
_TEXT	SEGMENT PARA USE32 PUBLIC 'CODE'
_TEXT	ENDS
;	COMDAT ??B?$fpos@H@_STL@@QBEJXZ
_TEXT	SEGMENT PARA USE32 PUBLIC 'CODE'
_TEXT	ENDS
;	COMDAT ?state@?$fpos@H@_STL@@QBEHXZ
_TEXT	SEGMENT PARA USE32 PUBLIC 'CODE'
_TEXT	ENDS
;	COMDAT ?is_open@?$basic_filebuf@DV?$char_traits@D@_STL@@@_STL@@QBE_NXZ
_TEXT	SEGMENT PARA USE32 PUBLIC 'CODE'
_TEXT	ENDS
;	COMDAT ?_M_seek_return@?$basic_filebuf@DV?$char_traits@D@_STL@@@_STL@@AAE?AV?$fpos@H@2@JH@Z
_TEXT	SEGMENT PARA USE32 PUBLIC 'CODE'
_TEXT	ENDS
;	COMDAT ??0?$_Filebuf_Tmp_Buf@D@_STL@@QAE@H@Z
_TEXT	SEGMENT PARA USE32 PUBLIC 'CODE'
_TEXT	ENDS
;	COMDAT ??1?$_Filebuf_Tmp_Buf@D@_STL@@QAE@XZ
_TEXT	SEGMENT PARA USE32 PUBLIC 'CODE'
_TEXT	ENDS
;	COMDAT ??0?$vector@UWAR_INFO@@V?$allocator@UWAR_INFO@@@_STL@@@_STL@@QAE@ABV?$allocator@UWAR_INFO@@@1@@Z
_TEXT	SEGMENT PARA USE32 PUBLIC 'CODE'
_TEXT	ENDS
;	COMDAT ??1?$vector@UWAR_INFO@@V?$allocator@UWAR_INFO@@@_STL@@@_STL@@QAE@XZ
_TEXT	SEGMENT PARA USE32 PUBLIC 'CODE'
_TEXT	ENDS
;	COMDAT ?clear@?$vector@UWAR_INFO@@V?$allocator@UWAR_INFO@@@_STL@@@_STL@@QAEXXZ
_TEXT	SEGMENT PARA USE32 PUBLIC 'CODE'
_TEXT	ENDS
;	COMDAT ??0?$allocator@UWAR_INFO@@@_STL@@QAE@XZ
_TEXT	SEGMENT PARA USE32 PUBLIC 'CODE'
_TEXT	ENDS
;	COMDAT ??1?$allocator@UWAR_INFO@@@_STL@@QAE@XZ
_TEXT	SEGMENT PARA USE32 PUBLIC 'CODE'
_TEXT	ENDS
;	COMDAT ?_M_terminate_string_aux@?$basic_string@DV?$char_traits@D@_STL@@V?$allocator@D@2@@_STL@@AAEXABU__true_type@2@@Z
_TEXT	SEGMENT PARA USE32 PUBLIC 'CODE'
_TEXT	ENDS
;	COMDAT ?assign@?$basic_string@DV?$char_traits@D@_STL@@V?$allocator@D@2@@_STL@@QAEAAV12@PBD0@Z
_TEXT	SEGMENT PARA USE32 PUBLIC 'CODE'
_TEXT	ENDS
;	COMDAT ??0?$allocator@D@_STL@@QAE@ABV01@@Z
_TEXT	SEGMENT PARA USE32 PUBLIC 'CODE'
_TEXT	ENDS
;	COMDAT ??0?$_STLP_alloc_proxy@PADDV?$allocator@D@_STL@@@_STL@@QAE@ABV?$allocator@D@1@PAD@Z
_TEXT	SEGMENT PARA USE32 PUBLIC 'CODE'
_TEXT	ENDS
;	COMDAT ?state@?$fpos@H@_STL@@QAEXH@Z
_TEXT	SEGMENT PARA USE32 PUBLIC 'CODE'
_TEXT	ENDS
;	COMDAT ?begin@?$vector@UWAR_INFO@@V?$allocator@UWAR_INFO@@@_STL@@@_STL@@QAEPAUWAR_INFO@@XZ
_TEXT	SEGMENT PARA USE32 PUBLIC 'CODE'
_TEXT	ENDS
;	COMDAT ?end@?$vector@UWAR_INFO@@V?$allocator@UWAR_INFO@@@_STL@@@_STL@@QAEPAUWAR_INFO@@XZ
_TEXT	SEGMENT PARA USE32 PUBLIC 'CODE'
_TEXT	ENDS
;	COMDAT ?erase@?$vector@UWAR_INFO@@V?$allocator@UWAR_INFO@@@_STL@@@_STL@@QAEPAUWAR_INFO@@PAU3@0@Z
_TEXT	SEGMENT PARA USE32 PUBLIC 'CODE'
_TEXT	ENDS
;	COMDAT ??0?$_Vector_base@UWAR_INFO@@V?$allocator@UWAR_INFO@@@_STL@@@_STL@@QAE@ABV?$allocator@UWAR_INFO@@@1@@Z
_TEXT	SEGMENT PARA USE32 PUBLIC 'CODE'
_TEXT	ENDS
;	COMDAT ??1?$_Vector_base@UWAR_INFO@@V?$allocator@UWAR_INFO@@@_STL@@@_STL@@QAE@XZ
_TEXT	SEGMENT PARA USE32 PUBLIC 'CODE'
_TEXT	ENDS
;	COMDAT ??1?$_STLP_alloc_proxy@PAUWAR_INFO@@U1@V?$allocator@UWAR_INFO@@@_STL@@@_STL@@QAE@XZ
_TEXT	SEGMENT PARA USE32 PUBLIC 'CODE'
_TEXT	ENDS
;	COMDAT ?copy@?$__char_traits_base@DH@_STL@@SAPADPADPBDI@Z
_TEXT	SEGMENT PARA USE32 PUBLIC 'CODE'
_TEXT	ENDS
;	COMDAT ?begin@?$basic_string@DV?$char_traits@D@_STL@@V?$allocator@D@2@@_STL@@QAEPADXZ
_TEXT	SEGMENT PARA USE32 PUBLIC 'CODE'
_TEXT	ENDS
;	COMDAT ?end@?$basic_string@DV?$char_traits@D@_STL@@V?$allocator@D@2@@_STL@@QAEPADXZ
_TEXT	SEGMENT PARA USE32 PUBLIC 'CODE'
_TEXT	ENDS
;	COMDAT ?size@?$basic_string@DV?$char_traits@D@_STL@@V?$allocator@D@2@@_STL@@QBEIXZ
_TEXT	SEGMENT PARA USE32 PUBLIC 'CODE'
_TEXT	ENDS
;	COMDAT ?erase@?$basic_string@DV?$char_traits@D@_STL@@V?$allocator@D@2@@_STL@@QAEPADPAD0@Z
_TEXT	SEGMENT PARA USE32 PUBLIC 'CODE'
_TEXT	ENDS
;	COMDAT ?deallocate@?$allocator@UWAR_INFO@@@_STL@@QAEXPAUWAR_INFO@@I@Z
_TEXT	SEGMENT PARA USE32 PUBLIC 'CODE'
_TEXT	ENDS
;	COMDAT ??0?$_STLP_alloc_proxy@PAUWAR_INFO@@U1@V?$allocator@UWAR_INFO@@@_STL@@@_STL@@QAE@ABV?$allocator@UWAR_INFO@@@1@PAUWAR_INFO@@@Z
_TEXT	SEGMENT PARA USE32 PUBLIC 'CODE'
_TEXT	ENDS
;	COMDAT ?move@?$__char_traits_base@DH@_STL@@SAPADPADPBDI@Z
_TEXT	SEGMENT PARA USE32 PUBLIC 'CODE'
_TEXT	ENDS
;	COMDAT ??0?$allocator@UWAR_INFO@@@_STL@@QAE@ABV01@@Z
_TEXT	SEGMENT PARA USE32 PUBLIC 'CODE'
_TEXT	ENDS
;	COMDAT ??$_M_range_initialize@PBD@?$basic_string@DV?$char_traits@D@_STL@@V?$allocator@D@2@@_STL@@AAEXPBD0@Z
_TEXT	SEGMENT PARA USE32 PUBLIC 'CODE'
_TEXT	ENDS
;	COMDAT ??$_M_range_initialize@PAD@?$basic_string@DV?$char_traits@D@_STL@@V?$allocator@D@2@@_STL@@AAEXPAD0@Z
_TEXT	SEGMENT PARA USE32 PUBLIC 'CODE'
_TEXT	ENDS
;	COMDAT ?close@?$basic_filebuf@DV?$char_traits@D@_STL@@@_STL@@QAEPAV12@XZ
_TEXT	SEGMENT PARA USE32 PUBLIC 'CODE'
_TEXT	ENDS
;	COMDAT ?_M_exit_input_mode@?$basic_filebuf@DV?$char_traits@D@_STL@@@_STL@@AAEXXZ
_TEXT	SEGMENT PARA USE32 PUBLIC 'CODE'
_TEXT	ENDS
;	COMDAT ?_M_switch_to_output_mode@?$basic_filebuf@DV?$char_traits@D@_STL@@@_STL@@AAE_NXZ
_TEXT	SEGMENT PARA USE32 PUBLIC 'CODE'
_TEXT	ENDS
;	COMDAT ?_M_output_error@?$basic_filebuf@DV?$char_traits@D@_STL@@@_STL@@AAEHXZ
_TEXT	SEGMENT PARA USE32 PUBLIC 'CODE'
_TEXT	ENDS
;	COMDAT ?_M_allocate_buffers@?$basic_filebuf@DV?$char_traits@D@_STL@@@_STL@@AAE_NPADH@Z
_TEXT	SEGMENT PARA USE32 PUBLIC 'CODE'
_TEXT	ENDS
;	COMDAT ?_M_deallocate_buffers@?$basic_filebuf@DV?$char_traits@D@_STL@@@_STL@@AAEXXZ
_TEXT	SEGMENT PARA USE32 PUBLIC 'CODE'
_TEXT	ENDS
;	COMDAT ?_M_seek_init@?$basic_filebuf@DV?$char_traits@D@_STL@@@_STL@@AAE_N_N@Z
_TEXT	SEGMENT PARA USE32 PUBLIC 'CODE'
_TEXT	ENDS
;	COMDAT ?_M_setup_codecvt@?$basic_filebuf@DV?$char_traits@D@_STL@@@_STL@@AAEXABVlocale@2@@Z
_TEXT	SEGMENT PARA USE32 PUBLIC 'CODE'
_TEXT	ENDS
;	COMDAT ??$equal@PADPADU?$_Eq_traits@V?$char_traits@D@_STL@@@_STL@@@_STL@@YA_NPAD00U?$_Eq_traits@V?$char_traits@D@_STL@@@0@@Z
_TEXT	SEGMENT PARA USE32 PUBLIC 'CODE'
_TEXT	ENDS
;	COMDAT ??$_Destroy@V?$basic_string@DV?$char_traits@D@_STL@@V?$allocator@D@2@@_STL@@@_STL@@YAXPAV?$basic_string@DV?$char_traits@D@_STL@@V?$allocator@D@2@@0@@Z
_TEXT	SEGMENT PARA USE32 PUBLIC 'CODE'
_TEXT	ENDS
;	COMDAT ??$_M_assign_dispatch@PAD@?$basic_string@DV?$char_traits@D@_STL@@V?$allocator@D@2@@_STL@@AAEAAV01@PAD0ABU__false_type@1@@Z
_TEXT	SEGMENT PARA USE32 PUBLIC 'CODE'
_TEXT	ENDS
;	COMDAT ??0?$CBitAttribute@EI@@QAE@XZ
_TEXT	SEGMENT PARA USE32 PUBLIC 'CODE'
_TEXT	ENDS
;	COMDAT ??1?$CBitAttribute@EI@@QAE@XZ
_TEXT	SEGMENT PARA USE32 PUBLIC 'CODE'
_TEXT	ENDS
;	COMDAT ??4?$CBitAttribute@EI@@QAEEE@Z
_TEXT	SEGMENT PARA USE32 PUBLIC 'CODE'
_TEXT	ENDS
;	COMDAT ??$_Destroy@PAUWAR_INFO@@@_STL@@YAXPAUWAR_INFO@@0@Z
_TEXT	SEGMENT PARA USE32 PUBLIC 'CODE'
_TEXT	ENDS
;	COMDAT ??$append@PBD@?$basic_string@DV?$char_traits@D@_STL@@V?$allocator@D@2@@_STL@@QAEAAV01@PBD0@Z
_TEXT	SEGMENT PARA USE32 PUBLIC 'CODE'
_TEXT	ENDS
;	COMDAT ??$__copy_ptrs@PAUWAR_INFO@@PAU1@@_STL@@YAPAUWAR_INFO@@PAU1@00ABU__false_type@0@@Z
_TEXT	SEGMENT PARA USE32 PUBLIC 'CODE'
_TEXT	ENDS
;	COMDAT ??_G?$basic_string@DV?$char_traits@D@_STL@@V?$allocator@D@2@@_STL@@QAEPAXI@Z
_TEXT	SEGMENT PARA USE32 PUBLIC 'CODE'
_TEXT	ENDS
;	COMDAT ?_M_exit_putback_mode@?$basic_filebuf@DV?$char_traits@D@_STL@@@_STL@@AAEXXZ
_TEXT	SEGMENT PARA USE32 PUBLIC 'CODE'
_TEXT	ENDS
;	COMDAT ??R?$_Eq_traits@V?$char_traits@D@_STL@@@_STL@@QBE_NABD0@Z
_TEXT	SEGMENT PARA USE32 PUBLIC 'CODE'
_TEXT	ENDS
;	COMDAT ??$_M_range_initialize@PBD@?$basic_string@DV?$char_traits@D@_STL@@V?$allocator@D@2@@_STL@@AAEXPBD0ABUforward_iterator_tag@1@@Z
_TEXT	SEGMENT PARA USE32 PUBLIC 'CODE'
_TEXT	ENDS
;	COMDAT ??$_M_range_initialize@PAD@?$basic_string@DV?$char_traits@D@_STL@@V?$allocator@D@2@@_STL@@AAEXPAD0ABUforward_iterator_tag@1@@Z
_TEXT	SEGMENT PARA USE32 PUBLIC 'CODE'
_TEXT	ENDS
;	COMDAT ?_M_unshift@?$basic_filebuf@DV?$char_traits@D@_STL@@@_STL@@AAE_NXZ
_TEXT	SEGMENT PARA USE32 PUBLIC 'CODE'
_TEXT	ENDS
;	COMDAT ?_M_allocate_buffers@?$basic_filebuf@DV?$char_traits@D@_STL@@@_STL@@AAE_NXZ
_TEXT	SEGMENT PARA USE32 PUBLIC 'CODE'
_TEXT	ENDS
;	COMDAT ??$max@H@_STL@@YAABHABH0@Z
_TEXT	SEGMENT PARA USE32 PUBLIC 'CODE'
_TEXT	ENDS
;	COMDAT ??$use_facet@V?$codecvt@DDH@_STL@@@_STL@@YAABV?$codecvt@DDH@0@ABVlocale@0@@Z
_TEXT	SEGMENT PARA USE32 PUBLIC 'CODE'
_TEXT	ENDS
;	COMDAT ??$append@PAD@?$basic_string@DV?$char_traits@D@_STL@@V?$allocator@D@2@@_STL@@QAEAAV01@PAD0@Z
_TEXT	SEGMENT PARA USE32 PUBLIC 'CODE'
_TEXT	ENDS
;	COMDAT ?SetNULL@?$CBitAttribute@EI@@QAEXXZ
_TEXT	SEGMENT PARA USE32 PUBLIC 'CODE'
_TEXT	ENDS
;	COMDAT ??$__destroy@PAUWAR_INFO@@U1@@_STL@@YAXPAUWAR_INFO@@00@Z
_TEXT	SEGMENT PARA USE32 PUBLIC 'CODE'
_TEXT	ENDS
;	COMDAT ??$_M_append_dispatch@PBD@?$basic_string@DV?$char_traits@D@_STL@@V?$allocator@D@2@@_STL@@AAEAAV01@PBD0ABU__false_type@1@@Z
_TEXT	SEGMENT PARA USE32 PUBLIC 'CODE'
_TEXT	ENDS
;	COMDAT ??$__copy@PAUWAR_INFO@@PAU1@H@_STL@@YAPAUWAR_INFO@@PAU1@00ABUrandom_access_iterator_tag@0@PAH@Z
_TEXT	SEGMENT PARA USE32 PUBLIC 'CODE'
_TEXT	ENDS
;	COMDAT ??4WAR_INFO@@QAEAAU0@ABU0@@Z
_TEXT	SEGMENT PARA USE32 PUBLIC 'CODE'
_TEXT	ENDS
;	COMDAT ??$distance@PBD@_STL@@YAHABQBD0@Z
_TEXT	SEGMENT PARA USE32 PUBLIC 'CODE'
_TEXT	ENDS
;	COMDAT ?_M_allocate_block@?$_String_base@DV?$allocator@D@_STL@@@_STL@@QAEXI@Z
_TEXT	SEGMENT PARA USE32 PUBLIC 'CODE'
_TEXT	ENDS
;	COMDAT ??$distance@PAD@_STL@@YAHABQAD0@Z
_TEXT	SEGMENT PARA USE32 PUBLIC 'CODE'
_TEXT	ENDS
;	COMDAT ??$uninitialized_copy@PADPAD@_STL@@YAPADPAD00@Z
_TEXT	SEGMENT PARA USE32 PUBLIC 'CODE'
_TEXT	ENDS
;	COMDAT ??$_M_append_dispatch@PAD@?$basic_string@DV?$char_traits@D@_STL@@V?$allocator@D@2@@_STL@@AAEAAV01@PAD0ABU__false_type@1@@Z
_TEXT	SEGMENT PARA USE32 PUBLIC 'CODE'
_TEXT	ENDS
;	COMDAT ??$__destroy_aux@PAUWAR_INFO@@@_STL@@YAXPAUWAR_INFO@@0ABU__false_type@0@@Z
_TEXT	SEGMENT PARA USE32 PUBLIC 'CODE'
_TEXT	ENDS
;	COMDAT ??$append@PBD@?$basic_string@DV?$char_traits@D@_STL@@V?$allocator@D@2@@_STL@@AAEAAV01@PBD0ABUforward_iterator_tag@1@@Z
_TEXT	SEGMENT PARA USE32 PUBLIC 'CODE'
_TEXT	ENDS
;	COMDAT ?_M_construct_null@?$basic_string@DV?$char_traits@D@_STL@@V?$allocator@D@2@@_STL@@AAEXPAD@Z
_TEXT	SEGMENT PARA USE32 PUBLIC 'CODE'
_TEXT	ENDS
;	COMDAT ?max_size@?$basic_string@DV?$char_traits@D@_STL@@V?$allocator@D@2@@_STL@@QBEIXZ
_TEXT	SEGMENT PARA USE32 PUBLIC 'CODE'
_TEXT	ENDS
;	COMDAT ?capacity@?$basic_string@DV?$char_traits@D@_STL@@V?$allocator@D@2@@_STL@@QBEIXZ
_TEXT	SEGMENT PARA USE32 PUBLIC 'CODE'
_TEXT	ENDS
;	COMDAT ?max_size@?$_String_base@DV?$allocator@D@_STL@@@_STL@@QBEIXZ
_TEXT	SEGMENT PARA USE32 PUBLIC 'CODE'
_TEXT	ENDS
;	COMDAT ?_M_construct_null_aux@?$basic_string@DV?$char_traits@D@_STL@@V?$allocator@D@2@@_STL@@AAEXPADABU__true_type@2@@Z
_TEXT	SEGMENT PARA USE32 PUBLIC 'CODE'
_TEXT	ENDS
;	COMDAT ??$__distance@PBD@_STL@@YAHABQBD0ABUrandom_access_iterator_tag@0@@Z
_TEXT	SEGMENT PARA USE32 PUBLIC 'CODE'
_TEXT	ENDS
;	COMDAT ?_M_throw_length_error@?$_String_base@DV?$allocator@D@_STL@@@_STL@@QBEXXZ
_TEXT	SEGMENT PARA USE32 PUBLIC 'CODE'
_TEXT	ENDS
;	COMDAT ??$__distance@PAD@_STL@@YAHABQAD0ABUrandom_access_iterator_tag@0@@Z
_TEXT	SEGMENT PARA USE32 PUBLIC 'CODE'
_TEXT	ENDS
;	COMDAT ??$__uninitialized_copy@PADPAD@_STL@@YAPADPAD00ABU__true_type@0@@Z
_TEXT	SEGMENT PARA USE32 PUBLIC 'CODE'
_TEXT	ENDS
;	COMDAT ??$append@PAD@?$basic_string@DV?$char_traits@D@_STL@@V?$allocator@D@2@@_STL@@AAEAAV01@PAD0ABUforward_iterator_tag@1@@Z
_TEXT	SEGMENT PARA USE32 PUBLIC 'CODE'
_TEXT	ENDS
;	COMDAT ??$_Destroy@UWAR_INFO@@@_STL@@YAXPAUWAR_INFO@@@Z
_TEXT	SEGMENT PARA USE32 PUBLIC 'CODE'
_TEXT	ENDS
;	COMDAT ??$max@I@_STL@@YAABIABI0@Z
_TEXT	SEGMENT PARA USE32 PUBLIC 'CODE'
_TEXT	ENDS
;	COMDAT ??_GWAR_INFO@@QAEPAXI@Z
_TEXT	SEGMENT PARA USE32 PUBLIC 'CODE'
_TEXT	ENDS
;	COMDAT ??1WAR_INFO@@QAE@XZ
_TEXT	SEGMENT PARA USE32 PUBLIC 'CODE'
_TEXT	ENDS
;	COMDAT ?_Ret@?$_BothPtrType@PADPAD@_STL@@SA?AU__true_type@2@XZ
_TEXT	SEGMENT PARA USE32 PUBLIC 'CODE'
_TEXT	ENDS
;	COMDAT ??$__copy_aux@PADPAD@_STL@@YAPADPAD00ABU__true_type@0@@Z
_TEXT	SEGMENT PARA USE32 PUBLIC 'CODE'
_TEXT	ENDS
;	COMDAT ?_Ret@?$_OKToMemCpy@DD@_STL@@SA?AU__true_type@2@XZ
_TEXT	SEGMENT PARA USE32 PUBLIC 'CODE'
_TEXT	ENDS
;	COMDAT ??$_IsOKToMemCpy@DD@_STL@@YA?AU?$_OKToMemCpy@DD@0@PAD0@Z
_TEXT	SEGMENT PARA USE32 PUBLIC 'CODE'
_TEXT	ENDS
;	COMDAT ??$__copy_ptrs@PADPAD@_STL@@YAPADPAD00ABU__true_type@0@@Z
_TEXT	SEGMENT PARA USE32 PUBLIC 'CODE'
_TEXT	ENDS
;	COMDAT ??_R3IFileIO@@8
rdata$r	SEGMENT DWORD USE32 PUBLIC 'CONST'
rdata$r	ENDS
;	COMDAT ??_R3ovfstream@@8
rdata$r	SEGMENT DWORD USE32 PUBLIC 'CONST'
rdata$r	ENDS
;	COMDAT ??_R3ivfstream@@8
rdata$r	SEGMENT DWORD USE32 PUBLIC 'CONST'
rdata$r	ENDS
;	COMDAT ??_R3iovfs_base@@8
rdata$r	SEGMENT DWORD USE32 PUBLIC 'CONST'
rdata$r	ENDS
;	COMDAT ??_R2IFileIO@@8
rdata$r	SEGMENT DWORD USE32 PUBLIC 'CONST'
rdata$r	ENDS
;	COMDAT ??_R2ovfstream@@8
rdata$r	SEGMENT DWORD USE32 PUBLIC 'CONST'
rdata$r	ENDS
;	COMDAT ??_R2ivfstream@@8
rdata$r	SEGMENT DWORD USE32 PUBLIC 'CONST'
rdata$r	ENDS
;	COMDAT ??_R2iovfs_base@@8
rdata$r	SEGMENT DWORD USE32 PUBLIC 'CONST'
rdata$r	ENDS
;	COMDAT ??_R1A@?0A@A@IFileIO@@8
rdata$r	SEGMENT DWORD USE32 PUBLIC 'CONST'
rdata$r	ENDS
;	COMDAT ??_R1A@?0A@A@ovfstream@@8
rdata$r	SEGMENT DWORD USE32 PUBLIC 'CONST'
rdata$r	ENDS
;	COMDAT ??_R1A@?0A@A@ivfstream@@8
rdata$r	SEGMENT DWORD USE32 PUBLIC 'CONST'
rdata$r	ENDS
;	COMDAT ??_R1A@?0A@A@iovfs_base@@8
rdata$r	SEGMENT DWORD USE32 PUBLIC 'CONST'
rdata$r	ENDS
;	COMDAT ??_R0?AVIFileIO@@@8
_DATA	SEGMENT DWORD USE32 PUBLIC 'DATA'
_DATA	ENDS
;	COMDAT ??_R0?AVovfstream@@@8
_DATA	SEGMENT DWORD USE32 PUBLIC 'DATA'
_DATA	ENDS
;	COMDAT ??_R0?AVivfstream@@@8
_DATA	SEGMENT DWORD USE32 PUBLIC 'DATA'
_DATA	ENDS
;	COMDAT ??_R0?AViovfs_base@@@8
_DATA	SEGMENT DWORD USE32 PUBLIC 'DATA'
_DATA	ENDS
;	COMDAT ??_R4IFileIO@@6B@
rdata$r	SEGMENT DWORD USE32 PUBLIC 'CONST'
rdata$r	ENDS
;	COMDAT ??_R4ovfstream@@6B@
rdata$r	SEGMENT DWORD USE32 PUBLIC 'CONST'
rdata$r	ENDS
;	COMDAT ??_R4ivfstream@@6B@
rdata$r	SEGMENT DWORD USE32 PUBLIC 'CONST'
rdata$r	ENDS
;	COMDAT ??_R4iovfs_base@@6B@
rdata$r	SEGMENT DWORD USE32 PUBLIC 'CONST'
rdata$r	ENDS
;	COMDAT ?__copy_trivial@_STL@@YAPAXPBX0PAX@Z
_TEXT	SEGMENT PARA USE32 PUBLIC 'CODE'
_TEXT	ENDS
;	COMDAT ?_M_deallocate_block@?$_String_base@DV?$allocator@D@_STL@@@_STL@@QAEXXZ
_TEXT	SEGMENT PARA USE32 PUBLIC 'CODE'
_TEXT	ENDS
;	COMDAT ?deallocate@?$allocator@D@_STL@@QAEXPADI@Z
_TEXT	SEGMENT PARA USE32 PUBLIC 'CODE'
_TEXT	ENDS
;	COMDAT ??4?$basic_string@DV?$char_traits@D@_STL@@V?$allocator@D@2@@_STL@@QAEAAV01@ABV01@@Z
_TEXT	SEGMENT PARA USE32 PUBLIC 'CODE'
_TEXT	ENDS
;	COMDAT ??$assign@PAD@?$basic_string@DV?$char_traits@D@_STL@@V?$allocator@D@2@@_STL@@QAEAAV01@PAD0@Z
_TEXT	SEGMENT PARA USE32 PUBLIC 'CODE'
_TEXT	ENDS
;	COMDAT ?__page_size@_Filebuf_base@_STL@@SAIXZ
_TEXT	SEGMENT PARA USE32 PUBLIC 'CODE'
_TEXT	ENDS
;	COMDAT ?_M_write@?$basic_filebuf@DV?$char_traits@D@_STL@@@_STL@@QAE_NPADH@Z
_TEXT	SEGMENT PARA USE32 PUBLIC 'CODE'
_TEXT	ENDS
;	COMDAT ?unshift@?$codecvt@DDH@_STL@@QBE?AW4result@codecvt_base@2@AAHPAD1AAPAD@Z
_TEXT	SEGMENT PARA USE32 PUBLIC 'CODE'
_TEXT	ENDS
;	COMDAT ?uninitialized_copy@_STL@@YAPADPBD0PAD@Z
_TEXT	SEGMENT PARA USE32 PUBLIC 'CODE'
_TEXT	ENDS
;	COMDAT ?assign@?$char_traits@D@_STL@@SAXAADABD@Z
_TEXT	SEGMENT PARA USE32 PUBLIC 'CODE'
_TEXT	ENDS
;	COMDAT ?always_noconv@?$codecvt@DDH@_STL@@QBE_NXZ
_TEXT	SEGMENT PARA USE32 PUBLIC 'CODE'
_TEXT	ENDS
;	COMDAT ?encoding@?$codecvt@DDH@_STL@@QBEHXZ
_TEXT	SEGMENT PARA USE32 PUBLIC 'CODE'
_TEXT	ENDS
;	COMDAT ?max_length@?$codecvt@DDH@_STL@@QBEHXZ
_TEXT	SEGMENT PARA USE32 PUBLIC 'CODE'
_TEXT	ENDS
;	COMDAT ?__o_mode@_Filebuf_base@_STL@@QBEHXZ
_TEXT	SEGMENT PARA USE32 PUBLIC 'CODE'
_TEXT	ENDS
;	COMDAT ?deallocate@?$__node_alloc@$00$0A@@_STL@@SAXPAXI@Z
_TEXT	SEGMENT PARA USE32 PUBLIC 'CODE'
_TEXT	ENDS
;	COMDAT ?__stl_delete@_STL@@YAXPAX@Z
_TEXT	SEGMENT PARA USE32 PUBLIC 'CODE'
_TEXT	ENDS
;	COMDAT ?_Destroy@_STL@@YAXPAD0@Z
_TEXT	SEGMENT PARA USE32 PUBLIC 'CODE'
_TEXT	ENDS
;	COMDAT ?setp@?$basic_streambuf@DV?$char_traits@D@_STL@@@_STL@@IAEXPAD0@Z
_TEXT	SEGMENT PARA USE32 PUBLIC 'CODE'
_TEXT	ENDS
;	COMDAT ?_FILE_O_set@_STL@@YAXPAU_iobuf@@PAD11@Z
_TEXT	SEGMENT PARA USE32 PUBLIC 'CODE'
_TEXT	ENDS
;	COMDAT ?_FILE_I_set@_STL@@YAXPAU_iobuf@@PAD11@Z
_TEXT	SEGMENT PARA USE32 PUBLIC 'CODE'
_TEXT	ENDS
;	COMDAT ?setg@?$basic_streambuf@DV?$char_traits@D@_STL@@@_STL@@IAEXPAD00@Z
_TEXT	SEGMENT PARA USE32 PUBLIC 'CODE'
_TEXT	ENDS
;	COMDAT ?__is_open@_Filebuf_base@_STL@@QBE_NXZ
_TEXT	SEGMENT PARA USE32 PUBLIC 'CODE'
_TEXT	ENDS
;	COMDAT ?allocate@?$__node_alloc@$00$0A@@_STL@@SAPAXI@Z
_TEXT	SEGMENT PARA USE32 PUBLIC 'CODE'
_TEXT	ENDS
;	COMDAT ?__stl_new@_STL@@YAPAXI@Z
_TEXT	SEGMENT PARA USE32 PUBLIC 'CODE'
_TEXT	ENDS
;	COMDAT ??1?$_STLP_alloc_proxy@PADDV?$allocator@D@_STL@@@_STL@@QAE@XZ
_TEXT	SEGMENT PARA USE32 PUBLIC 'CODE'
_TEXT	ENDS
;	COMDAT ?length@?$char_traits@D@_STL@@SAIPBD@Z
_TEXT	SEGMENT PARA USE32 PUBLIC 'CODE'
_TEXT	ENDS
;	COMDAT ??1?$allocator@D@_STL@@QAE@XZ
_TEXT	SEGMENT PARA USE32 PUBLIC 'CODE'
_TEXT	ENDS
;	COMDAT ?eof@?$__char_traits_base@DH@_STL@@SAHXZ
_TEXT	SEGMENT PARA USE32 PUBLIC 'CODE'
_TEXT	ENDS
;	COMDAT ??_7ovfstream@@6B@
CONST	SEGMENT DWORD USE32 PUBLIC 'CONST'
CONST	ENDS
;	COMDAT ??_7ivfstream@@6B@
CONST	SEGMENT DWORD USE32 PUBLIC 'CONST'
CONST	ENDS
;	COMDAT ??0?$basic_string@DV?$char_traits@D@_STL@@V?$allocator@D@2@@_STL@@QAE@XZ
_TEXT	SEGMENT PARA USE32 PUBLIC 'CODE'
_TEXT	ENDS
;	COMDAT ??0?$allocator@D@_STL@@QAE@XZ
_TEXT	SEGMENT PARA USE32 PUBLIC 'CODE'
_TEXT	ENDS
;	COMDAT ??1?$_String_base@DV?$allocator@D@_STL@@@_STL@@QAE@XZ
_TEXT	SEGMENT PARA USE32 PUBLIC 'CODE'
_TEXT	ENDS
;	COMDAT ??1?$basic_string@DV?$char_traits@D@_STL@@V?$allocator@D@2@@_STL@@QAE@XZ
_TEXT	SEGMENT PARA USE32 PUBLIC 'CODE'
_TEXT	ENDS
;	COMDAT ??_7iovfs_base@@6B@
CONST	SEGMENT DWORD USE32 PUBLIC 'CONST'
CONST	ENDS
;	COMDAT ??_7IFileIO@@6B@
CONST	SEGMENT DWORD USE32 PUBLIC 'CONST'
CONST	ENDS
sxdata	SEGMENT DWORD USE32 'SXDATA'
sxdata	ENDS
FLAT	GROUP _DATA, CONST, _BSS
	ASSUME	CS: FLAT, DS: FLAT, SS: FLAT
endif

INCLUDELIB LIBCMT
INCLUDELIB OLDNAMES

PUBLIC	?g_pUserInformation@@3PAVUserInformation@@A	; g_pUserInformation
_BSS	SEGMENT
?g_pUserInformation@@3PAVUserInformation@@A DD 01H DUP (?) ; g_pUserInformation
_BSS	ENDS
PUBLIC	?__stl_new@_STL@@YAPAXI@Z			; _STL::__stl_new
EXTRN	??2@YAPAXI@Z:NEAR				; operator new
; Function compile flags: /Ogsy
; File c:\stlport-4.6.1\stlport\stl\_new.h
;	COMDAT ?__stl_new@_STL@@YAPAXI@Z
_TEXT	SEGMENT
___n$ = 8						; size = 4
?__stl_new@_STL@@YAPAXI@Z PROC NEAR			; _STL::__stl_new, COMDAT

; 86   : inline void*  _STLP_CALL __stl_new(size_t __n)   { _STLP_CHECK_NULL_ALLOC(::operator _STLP_NEW(__n)); }

  00000	e9 00 00 00 00	 jmp	 ??2@YAPAXI@Z		; operator new
?__stl_new@_STL@@YAPAXI@Z ENDP				; _STL::__stl_new
_TEXT	ENDS
PUBLIC	?__stl_delete@_STL@@YAXPAX@Z			; _STL::__stl_delete
EXTRN	??3@YAXPAX@Z:NEAR				; operator delete
; Function compile flags: /Ogsy
;	COMDAT ?__stl_delete@_STL@@YAXPAX@Z
_TEXT	SEGMENT
___p$ = 8						; size = 4
?__stl_delete@_STL@@YAXPAX@Z PROC NEAR			; _STL::__stl_delete, COMDAT

; 87   : inline void   _STLP_CALL __stl_delete(void* __p) { ::operator delete(__p); }

  00000	e9 00 00 00 00	 jmp	 ??3@YAXPAX@Z		; operator delete
?__stl_delete@_STL@@YAXPAX@Z ENDP			; _STL::__stl_delete
_TEXT	ENDS
PUBLIC	?_Destroy@_STL@@YAXPAD0@Z			; _STL::_Destroy
; Function compile flags: /Ogsy
; File c:\stlport-4.6.1\stlport\stl\_construct.h
;	COMDAT ?_Destroy@_STL@@YAXPAD0@Z
_TEXT	SEGMENT
___formal$ = 8						; size = 4
___formal$ = 12						; size = 4
?_Destroy@_STL@@YAXPAD0@Z PROC NEAR			; _STL::_Destroy, COMDAT

; 142  : inline void _Destroy(char*, char*) {}

  00000	c3		 ret	 0
?_Destroy@_STL@@YAXPAD0@Z ENDP				; _STL::_Destroy
_TEXT	ENDS
PUBLIC	?__copy_trivial@_STL@@YAPAXPBX0PAX@Z		; _STL::__copy_trivial
EXTRN	_memmove:NEAR
; Function compile flags: /Ogsy
; File c:\stlport-4.6.1\stlport\stl\_algobase.h
;	COMDAT ?__copy_trivial@_STL@@YAPAXPBX0PAX@Z
_TEXT	SEGMENT
___first$ = 8						; size = 4
___last$ = 12						; size = 4
___result$ = 16						; size = 4
?__copy_trivial@_STL@@YAPAXPBX0PAX@Z PROC NEAR		; _STL::__copy_trivial, COMDAT

; 147  : __copy_trivial(const void* __first, const void* __last, void* __result) {

  00000	55		 push	 ebp
  00001	8b ec		 mov	 ebp, esp
  00003	56		 push	 esi

; 148  :   return (__last == __first) ? __result : 
; 149  :     ((char*)memmove(__result, __first, ((const char*)__last - (const char*)__first))) + 
; 150  :     ((const char*)__last - (const char*)__first);

  00004	8b 75 0c	 mov	 esi, DWORD PTR ___last$[ebp]
  00007	3b 75 08	 cmp	 esi, DWORD PTR ___first$[ebp]
  0000a	75 05		 jne	 SHORT $L101987
  0000c	8b 45 10	 mov	 eax, DWORD PTR ___result$[ebp]
  0000f	eb 14		 jmp	 SHORT $L101988
$L101987:
  00011	2b 75 08	 sub	 esi, DWORD PTR ___first$[ebp]
  00014	56		 push	 esi
  00015	ff 75 08	 push	 DWORD PTR ___first$[ebp]
  00018	ff 75 10	 push	 DWORD PTR ___result$[ebp]
  0001b	e8 00 00 00 00	 call	 _memmove
  00020	83 c4 0c	 add	 esp, 12			; 0000000cH
  00023	03 c6		 add	 eax, esi
$L101988:
  00025	5e		 pop	 esi

; 151  : }

  00026	5d		 pop	 ebp
  00027	c3		 ret	 0
?__copy_trivial@_STL@@YAPAXPBX0PAX@Z ENDP		; _STL::__copy_trivial
_TEXT	ENDS
PUBLIC	?assign@?$char_traits@D@_STL@@SAXAADABD@Z	; _STL::char_traits<char>::assign
; Function compile flags: /Ogsy
; File c:\stlport-4.6.1\stlport\stl\char_traits.h
;	COMDAT ?assign@?$char_traits@D@_STL@@SAXAADABD@Z
_TEXT	SEGMENT
___c1$ = 8						; size = 4
___c2$ = 12						; size = 4
?assign@?$char_traits@D@_STL@@SAXAADABD@Z PROC NEAR	; _STL::char_traits<char>::assign, COMDAT

; 240  :   static void _STLP_CALL assign(char& __c1, const char& __c2) { __c1 = __c2; }

  00000	8b 44 24 08	 mov	 eax, DWORD PTR ___c2$[esp-4]
  00004	8a 00		 mov	 al, BYTE PTR [eax]
  00006	8b 4c 24 04	 mov	 ecx, DWORD PTR ___c1$[esp-4]
  0000a	88 01		 mov	 BYTE PTR [ecx], al
  0000c	c3		 ret	 0
?assign@?$char_traits@D@_STL@@SAXAADABD@Z ENDP		; _STL::char_traits<char>::assign
_TEXT	ENDS
PUBLIC	??0?$allocator@UWAR_INFO@@@_STL@@QAE@XZ		; _STL::allocator<WAR_INFO>::allocator<WAR_INFO>
; Function compile flags: /Ogsy
; File c:\stlport-4.6.1\stlport\stl\_alloc.h
;	COMDAT ??0?$allocator@UWAR_INFO@@@_STL@@QAE@XZ
_TEXT	SEGMENT
??0?$allocator@UWAR_INFO@@@_STL@@QAE@XZ PROC NEAR	; _STL::allocator<WAR_INFO>::allocator<WAR_INFO>, COMDAT
; _this$ = ecx

; 345  :   allocator() _STLP_NOTHROW {}

  00000	8b c1		 mov	 eax, ecx
  00002	c3		 ret	 0
??0?$allocator@UWAR_INFO@@@_STL@@QAE@XZ ENDP		; _STL::allocator<WAR_INFO>::allocator<WAR_INFO>
_TEXT	ENDS
PUBLIC	??1?$allocator@UWAR_INFO@@@_STL@@QAE@XZ		; _STL::allocator<WAR_INFO>::~allocator<WAR_INFO>
; Function compile flags: /Ogsy
;	COMDAT ??1?$allocator@UWAR_INFO@@@_STL@@QAE@XZ
_TEXT	SEGMENT
??1?$allocator@UWAR_INFO@@@_STL@@QAE@XZ PROC NEAR	; _STL::allocator<WAR_INFO>::~allocator<WAR_INFO>, COMDAT
; _this$ = ecx

; 350  :   ~allocator() _STLP_NOTHROW {}

  00000	c3		 ret	 0
??1?$allocator@UWAR_INFO@@@_STL@@QAE@XZ ENDP		; _STL::allocator<WAR_INFO>::~allocator<WAR_INFO>
_TEXT	ENDS
PUBLIC	?begin@?$vector@UWAR_INFO@@V?$allocator@UWAR_INFO@@@_STL@@@_STL@@QAEPAUWAR_INFO@@XZ ; _STL::vector<WAR_INFO,_STL::allocator<WAR_INFO> >::begin
; Function compile flags: /Ogsy
; File c:\stlport-4.6.1\stlport\stl\_vector.h
;	COMDAT ?begin@?$vector@UWAR_INFO@@V?$allocator@UWAR_INFO@@@_STL@@@_STL@@QAEPAUWAR_INFO@@XZ
_TEXT	SEGMENT
?begin@?$vector@UWAR_INFO@@V?$allocator@UWAR_INFO@@@_STL@@@_STL@@QAEPAUWAR_INFO@@XZ PROC NEAR ; _STL::vector<WAR_INFO,_STL::allocator<WAR_INFO> >::begin, COMDAT
; _this$ = ecx

; 172  :   iterator begin()             { return this->_M_start; }

  00000	8b 01		 mov	 eax, DWORD PTR [ecx]
  00002	c3		 ret	 0
?begin@?$vector@UWAR_INFO@@V?$allocator@UWAR_INFO@@@_STL@@@_STL@@QAEPAUWAR_INFO@@XZ ENDP ; _STL::vector<WAR_INFO,_STL::allocator<WAR_INFO> >::begin
_TEXT	ENDS
PUBLIC	?end@?$vector@UWAR_INFO@@V?$allocator@UWAR_INFO@@@_STL@@@_STL@@QAEPAUWAR_INFO@@XZ ; _STL::vector<WAR_INFO,_STL::allocator<WAR_INFO> >::end
; Function compile flags: /Ogsy
;	COMDAT ?end@?$vector@UWAR_INFO@@V?$allocator@UWAR_INFO@@@_STL@@@_STL@@QAEPAUWAR_INFO@@XZ
_TEXT	SEGMENT
?end@?$vector@UWAR_INFO@@V?$allocator@UWAR_INFO@@@_STL@@@_STL@@QAEPAUWAR_INFO@@XZ PROC NEAR ; _STL::vector<WAR_INFO,_STL::allocator<WAR_INFO> >::end, COMDAT
; _this$ = ecx

; 174  :   iterator end()               { return this->_M_finish; }

  00000	8b 41 04	 mov	 eax, DWORD PTR [ecx+4]
  00003	c3		 ret	 0
?end@?$vector@UWAR_INFO@@V?$allocator@UWAR_INFO@@@_STL@@@_STL@@QAEPAUWAR_INFO@@XZ ENDP ; _STL::vector<WAR_INFO,_STL::allocator<WAR_INFO> >::end
_TEXT	ENDS
PUBLIC	??1?$_STLP_alloc_proxy@PAUWAR_INFO@@U1@V?$allocator@UWAR_INFO@@@_STL@@@_STL@@QAE@XZ ; _STL::_STLP_alloc_proxy<WAR_INFO *,WAR_INFO,_STL::allocator<WAR_INFO> >::~_STLP_alloc_proxy<WAR_INFO *,WAR_INFO,_STL::allocator<WAR_INFO> >
; Function compile flags: /Ogsy
;	COMDAT ??1?$_STLP_alloc_proxy@PAUWAR_INFO@@U1@V?$allocator@UWAR_INFO@@@_STL@@@_STL@@QAE@XZ
_TEXT	SEGMENT
??1?$_STLP_alloc_proxy@PAUWAR_INFO@@U1@V?$allocator@UWAR_INFO@@@_STL@@@_STL@@QAE@XZ PROC NEAR ; _STL::_STLP_alloc_proxy<WAR_INFO *,WAR_INFO,_STL::allocator<WAR_INFO> >::~_STLP_alloc_proxy<WAR_INFO *,WAR_INFO,_STL::allocator<WAR_INFO> >, COMDAT
; _this$ = ecx
  00000	c3		 ret	 0
??1?$_STLP_alloc_proxy@PAUWAR_INFO@@U1@V?$allocator@UWAR_INFO@@@_STL@@@_STL@@QAE@XZ ENDP ; _STL::_STLP_alloc_proxy<WAR_INFO *,WAR_INFO,_STL::allocator<WAR_INFO> >::~_STLP_alloc_proxy<WAR_INFO *,WAR_INFO,_STL::allocator<WAR_INFO> >
_TEXT	ENDS
PUBLIC	?end@?$basic_string@DV?$char_traits@D@_STL@@V?$allocator@D@2@@_STL@@QAEPADXZ ; _STL::basic_string<char,_STL::char_traits<char>,_STL::allocator<char> >::end
; Function compile flags: /Ogsy
; File c:\stlport-4.6.1\stlport\stl\_string.h
;	COMDAT ?end@?$basic_string@DV?$char_traits@D@_STL@@V?$allocator@D@2@@_STL@@QAEPADXZ
_TEXT	SEGMENT
?end@?$basic_string@DV?$char_traits@D@_STL@@V?$allocator@D@2@@_STL@@QAEPADXZ PROC NEAR ; _STL::basic_string<char,_STL::char_traits<char>,_STL::allocator<char> >::end, COMDAT
; _this$ = ecx

; 417  :   iterator end()               { return this->_M_finish; }

  00000	8b 41 04	 mov	 eax, DWORD PTR [ecx+4]
  00003	c3		 ret	 0
?end@?$basic_string@DV?$char_traits@D@_STL@@V?$allocator@D@2@@_STL@@QAEPADXZ ENDP ; _STL::basic_string<char,_STL::char_traits<char>,_STL::allocator<char> >::end
_TEXT	ENDS
PUBLIC	?size@?$basic_string@DV?$char_traits@D@_STL@@V?$allocator@D@2@@_STL@@QBEIXZ ; _STL::basic_string<char,_STL::char_traits<char>,_STL::allocator<char> >::size
; Function compile flags: /Ogsy
;	COMDAT ?size@?$basic_string@DV?$char_traits@D@_STL@@V?$allocator@D@2@@_STL@@QBEIXZ
_TEXT	SEGMENT
?size@?$basic_string@DV?$char_traits@D@_STL@@V?$allocator@D@2@@_STL@@QBEIXZ PROC NEAR ; _STL::basic_string<char,_STL::char_traits<char>,_STL::allocator<char> >::size, COMDAT
; _this$ = ecx

; 431  :   size_type size() const { return this->_M_finish - this->_M_start; }

  00000	8b 41 04	 mov	 eax, DWORD PTR [ecx+4]
  00003	2b 01		 sub	 eax, DWORD PTR [ecx]
  00005	c3		 ret	 0
?size@?$basic_string@DV?$char_traits@D@_STL@@V?$allocator@D@2@@_STL@@QBEIXZ ENDP ; _STL::basic_string<char,_STL::char_traits<char>,_STL::allocator<char> >::size
_TEXT	ENDS
PUBLIC	?move@?$__char_traits_base@DH@_STL@@SAPADPADPBDI@Z ; _STL::__char_traits_base<char,int>::move
; Function compile flags: /Ogsy
; File c:\stlport-4.6.1\stlport\stl\char_traits.h
;	COMDAT ?move@?$__char_traits_base@DH@_STL@@SAPADPADPBDI@Z
_TEXT	SEGMENT
___s1$ = 8						; size = 4
___s2$ = 12						; size = 4
__Sz$ = 16						; size = 4
?move@?$__char_traits_base@DH@_STL@@SAPADPADPBDI@Z PROC NEAR ; _STL::__char_traits_base<char,int>::move, COMDAT

; 165  :   static _CharT* _STLP_CALL move(_CharT* __s1, const _CharT* __s2, size_t _Sz) {    

  00000	55		 push	 ebp
  00001	8b ec		 mov	 ebp, esp

; 166  :     return (_Sz == 0 ? __s1 : (_CharT*)memmove(__s1, __s2, _Sz * sizeof(_CharT)));

  00003	83 7d 10 00	 cmp	 DWORD PTR __Sz$[ebp], 0
  00007	75 05		 jne	 SHORT $L102018
  00009	8b 45 08	 mov	 eax, DWORD PTR ___s1$[ebp]

; 167  :   }

  0000c	5d		 pop	 ebp
  0000d	c3		 ret	 0
$L102018:
  0000e	5d		 pop	 ebp

; 166  :     return (_Sz == 0 ? __s1 : (_CharT*)memmove(__s1, __s2, _Sz * sizeof(_CharT)));

  0000f	e9 00 00 00 00	 jmp	 _memmove
?move@?$__char_traits_base@DH@_STL@@SAPADPADPBDI@Z ENDP	; _STL::__char_traits_base<char,int>::move
_TEXT	ENDS
PUBLIC	??0?$allocator@UWAR_INFO@@@_STL@@QAE@ABV01@@Z	; _STL::allocator<WAR_INFO>::allocator<WAR_INFO>
; Function compile flags: /Ogsy
; File c:\stlport-4.6.1\stlport\stl\_alloc.h
;	COMDAT ??0?$allocator@UWAR_INFO@@@_STL@@QAE@ABV01@@Z
_TEXT	SEGMENT
___formal$ = 8						; size = 4
??0?$allocator@UWAR_INFO@@@_STL@@QAE@ABV01@@Z PROC NEAR	; _STL::allocator<WAR_INFO>::allocator<WAR_INFO>, COMDAT
; _this$ = ecx

; 349  :   allocator(const allocator<_Tp>&) _STLP_NOTHROW {}

  00000	8b c1		 mov	 eax, ecx
  00002	c2 04 00	 ret	 4
??0?$allocator@UWAR_INFO@@@_STL@@QAE@ABV01@@Z ENDP	; _STL::allocator<WAR_INFO>::allocator<WAR_INFO>
_TEXT	ENDS
PUBLIC	??1?$CBitAttribute@EI@@QAE@XZ			; CBitAttribute<unsigned char,unsigned int>::~CBitAttribute<unsigned char,unsigned int>
; Function compile flags: /Ogsy
; File c:\darkeden\designed_common\project\client\bitattribute.h
;	COMDAT ??1?$CBitAttribute@EI@@QAE@XZ
_TEXT	SEGMENT
??1?$CBitAttribute@EI@@QAE@XZ PROC NEAR			; CBitAttribute<unsigned char,unsigned int>::~CBitAttribute<unsigned char,unsigned int>, COMDAT
; _this$ = ecx

; 66   : 
; 67   : }

  00000	c3		 ret	 0
??1?$CBitAttribute@EI@@QAE@XZ ENDP			; CBitAttribute<unsigned char,unsigned int>::~CBitAttribute<unsigned char,unsigned int>
_TEXT	ENDS
PUBLIC	??4?$CBitAttribute@EI@@QAEEE@Z			; CBitAttribute<unsigned char,unsigned int>::operator=
; Function compile flags: /Ogsy
;	COMDAT ??4?$CBitAttribute@EI@@QAEEE@Z
_TEXT	SEGMENT
_attr$ = 8						; size = 1
??4?$CBitAttribute@EI@@QAEEE@Z PROC NEAR		; CBitAttribute<unsigned char,unsigned int>::operator=, COMDAT
; _this$ = ecx

; 72   : 	return m_nAttribute = attr;

  00000	8a 44 24 04	 mov	 al, BYTE PTR _attr$[esp-4]
  00004	88 01		 mov	 BYTE PTR [ecx], al

; 73   : }

  00006	c2 04 00	 ret	 4
??4?$CBitAttribute@EI@@QAEEE@Z ENDP			; CBitAttribute<unsigned char,unsigned int>::operator=
_TEXT	ENDS
PUBLIC	?SetNULL@?$CBitAttribute@EI@@QAEXXZ		; CBitAttribute<unsigned char,unsigned int>::SetNULL
; Function compile flags: /Ogsy
;	COMDAT ?SetNULL@?$CBitAttribute@EI@@QAEXXZ
_TEXT	SEGMENT
?SetNULL@?$CBitAttribute@EI@@QAEXXZ PROC NEAR		; CBitAttribute<unsigned char,unsigned int>::SetNULL, COMDAT
; _this$ = ecx

; 79   : 	m_nAttribute = 0;

  00000	c6 01 00	 mov	 BYTE PTR [ecx], 0

; 80   : }

  00003	c3		 ret	 0
?SetNULL@?$CBitAttribute@EI@@QAEXXZ ENDP		; CBitAttribute<unsigned char,unsigned int>::SetNULL
_TEXT	ENDS
PUBLIC	?capacity@?$basic_string@DV?$char_traits@D@_STL@@V?$allocator@D@2@@_STL@@QBEIXZ ; _STL::basic_string<char,_STL::char_traits<char>,_STL::allocator<char> >::capacity
; Function compile flags: /Ogsy
; File c:\stlport-4.6.1\stlport\stl\_string.h
;	COMDAT ?capacity@?$basic_string@DV?$char_traits@D@_STL@@V?$allocator@D@2@@_STL@@QBEIXZ
_TEXT	SEGMENT
?capacity@?$basic_string@DV?$char_traits@D@_STL@@V?$allocator@D@2@@_STL@@QBEIXZ PROC NEAR ; _STL::basic_string<char,_STL::char_traits<char>,_STL::allocator<char> >::capacity, COMDAT
; _this$ = ecx

; 447  :   size_type capacity() const { return (this->_M_end_of_storage._M_data - this->_M_start) - 1; }

  00000	8b 41 08	 mov	 eax, DWORD PTR [ecx+8]
  00003	2b 01		 sub	 eax, DWORD PTR [ecx]
  00005	48		 dec	 eax
  00006	c3		 ret	 0
?capacity@?$basic_string@DV?$char_traits@D@_STL@@V?$allocator@D@2@@_STL@@QBEIXZ ENDP ; _STL::basic_string<char,_STL::char_traits<char>,_STL::allocator<char> >::capacity
_TEXT	ENDS
PUBLIC	?max_size@?$_String_base@DV?$allocator@D@_STL@@@_STL@@QBEIXZ ; _STL::_String_base<char,_STL::allocator<char> >::max_size
; Function compile flags: /Ogsy
;	COMDAT ?max_size@?$_String_base@DV?$allocator@D@_STL@@@_STL@@QBEIXZ
_TEXT	SEGMENT
?max_size@?$_String_base@DV?$allocator@D@_STL@@@_STL@@QBEIXZ PROC NEAR ; _STL::_String_base<char,_STL::allocator<char> >::max_size, COMDAT
; _this$ = ecx

; 126  :   size_t max_size() const { return (size_t(-1) / sizeof(_Tp)) - 1; }

  00000	6a fe		 push	 -2			; fffffffeH
  00002	58		 pop	 eax
  00003	c3		 ret	 0
?max_size@?$_String_base@DV?$allocator@D@_STL@@@_STL@@QBEIXZ ENDP ; _STL::_String_base<char,_STL::allocator<char> >::max_size
_TEXT	ENDS
PUBLIC	?_M_construct_null_aux@?$basic_string@DV?$char_traits@D@_STL@@V?$allocator@D@2@@_STL@@AAEXPADABU__true_type@2@@Z ; _STL::basic_string<char,_STL::char_traits<char>,_STL::allocator<char> >::_M_construct_null_aux
; Function compile flags: /Ogsy
;	COMDAT ?_M_construct_null_aux@?$basic_string@DV?$char_traits@D@_STL@@V?$allocator@D@2@@_STL@@AAEXPADABU__true_type@2@@Z
_TEXT	SEGMENT
___p$ = 8						; size = 4
___formal$ = 12						; size = 4
?_M_construct_null_aux@?$basic_string@DV?$char_traits@D@_STL@@V?$allocator@D@2@@_STL@@AAEXPADABU__true_type@2@@Z PROC NEAR ; _STL::basic_string<char,_STL::char_traits<char>,_STL::allocator<char> >::_M_construct_null_aux, COMDAT
; _this$ = ecx

; 332  :     *__p = 0;

  00000	8b 44 24 04	 mov	 eax, DWORD PTR ___p$[esp-4]
  00004	c6 00 00	 mov	 BYTE PTR [eax], 0

; 333  :   }

  00007	c2 08 00	 ret	 8
?_M_construct_null_aux@?$basic_string@DV?$char_traits@D@_STL@@V?$allocator@D@2@@_STL@@AAEXPADABU__true_type@2@@Z ENDP ; _STL::basic_string<char,_STL::char_traits<char>,_STL::allocator<char> >::_M_construct_null_aux
_TEXT	ENDS
PUBLIC	??_C@_0N@GOPDCEEB@basic_string?$AA@		; `string'
PUBLIC	?_M_throw_length_error@?$_String_base@DV?$allocator@D@_STL@@@_STL@@QBEXXZ ; _STL::_String_base<char,_STL::allocator<char> >::_M_throw_length_error
EXTRN	?__stl_throw_length_error@_STL@@YAXPBD@Z:NEAR	; _STL::__stl_throw_length_error
;	COMDAT ??_C@_0N@GOPDCEEB@basic_string?$AA@
; File c:\stlport-4.6.1\stlport\stl\_string.c
CONST	SEGMENT
??_C@_0N@GOPDCEEB@basic_string?$AA@ DB 'basic_string', 00H ; `string'
; Function compile flags: /Ogsy
CONST	ENDS
;	COMDAT ?_M_throw_length_error@?$_String_base@DV?$allocator@D@_STL@@@_STL@@QBEXXZ
_TEXT	SEGMENT
?_M_throw_length_error@?$_String_base@DV?$allocator@D@_STL@@@_STL@@QBEXXZ PROC NEAR ; _STL::_String_base<char,_STL::allocator<char> >::_M_throw_length_error, COMDAT
; _this$ = ecx

; 523  :     __stl_throw_length_error("basic_string");

  00000	68 00 00 00 00	 push	 OFFSET FLAT:??_C@_0N@GOPDCEEB@basic_string?$AA@
  00005	e8 00 00 00 00	 call	 ?__stl_throw_length_error@_STL@@YAXPBD@Z ; _STL::__stl_throw_length_error
  0000a	59		 pop	 ecx

; 524  : }

  0000b	c3		 ret	 0
?_M_throw_length_error@?$_String_base@DV?$allocator@D@_STL@@@_STL@@QBEXXZ ENDP ; _STL::_String_base<char,_STL::allocator<char> >::_M_throw_length_error
_TEXT	ENDS
PUBLIC	??$__distance@PAD@_STL@@YAHABQAD0ABUrandom_access_iterator_tag@0@@Z ; _STL::__distance<char *>
; Function compile flags: /Ogsy
; File c:\stlport-4.6.1\stlport\stl\_iterator_base.h
;	COMDAT ??$__distance@PAD@_STL@@YAHABQAD0ABUrandom_access_iterator_tag@0@@Z
_TEXT	SEGMENT
___first$ = 8						; size = 4
___last$ = 12						; size = 4
___formal$ = 16						; size = 4
??$__distance@PAD@_STL@@YAHABQAD0ABUrandom_access_iterator_tag@0@@Z PROC NEAR ; _STL::__distance<char *>, COMDAT

; 363  :   return __last - __first;

  00000	8b 44 24 08	 mov	 eax, DWORD PTR ___last$[esp-4]
  00004	8b 00		 mov	 eax, DWORD PTR [eax]
  00006	8b 4c 24 04	 mov	 ecx, DWORD PTR ___first$[esp-4]
  0000a	2b 01		 sub	 eax, DWORD PTR [ecx]

; 364  : }

  0000c	c3		 ret	 0
??$__distance@PAD@_STL@@YAHABQAD0ABUrandom_access_iterator_tag@0@@Z ENDP ; _STL::__distance<char *>
_TEXT	ENDS
PUBLIC	??$max@I@_STL@@YAABIABI0@Z			; _STL::max<unsigned int>
; Function compile flags: /Ogsy
; File c:\stlport-4.6.1\stlport\stl\_algobase.h
;	COMDAT ??$max@I@_STL@@YAABIABI0@Z
_TEXT	SEGMENT
___a$ = 8						; size = 4
___b$ = 12						; size = 4
??$max@I@_STL@@YAABIABI0@Z PROC NEAR			; _STL::max<unsigned int>, COMDAT

; 79   : inline const _Tp& (max)(const _Tp& __a, const _Tp& __b) {  return  __a < __b ? __b : __a; }

  00000	8b 44 24 04	 mov	 eax, DWORD PTR ___a$[esp-4]
  00004	8b 10		 mov	 edx, DWORD PTR [eax]
  00006	8b 4c 24 08	 mov	 ecx, DWORD PTR ___b$[esp-4]
  0000a	3b 11		 cmp	 edx, DWORD PTR [ecx]
  0000c	73 02		 jae	 SHORT $L102052
  0000e	8b c1		 mov	 eax, ecx
$L102052:
  00010	c3		 ret	 0
??$max@I@_STL@@YAABIABI0@Z ENDP				; _STL::max<unsigned int>
_TEXT	ENDS
PUBLIC	?_Ret@?$_BothPtrType@PADPAD@_STL@@SA?AU__true_type@2@XZ ; _STL::_BothPtrType<char *,char *>::_Ret
; Function compile flags: /Ogsy
; File c:\stlport-4.6.1\stlport\stl\type_traits.h
;	COMDAT ?_Ret@?$_BothPtrType@PADPAD@_STL@@SA?AU__true_type@2@XZ
_TEXT	SEGMENT
$T102056 = -1						; size = 1
?_Ret@?$_BothPtrType@PADPAD@_STL@@SA?AU__true_type@2@XZ PROC NEAR ; _STL::_BothPtrType<char *,char *>::_Ret, COMDAT

; 234  :   static __true_type _Ret() { return __true_type();} 

  00000	55		 push	 ebp
  00001	8b ec		 mov	 ebp, esp
  00003	51		 push	 ecx
  00004	57		 push	 edi
  00005	33 c0		 xor	 eax, eax
  00007	8d 7d ff	 lea	 edi, DWORD PTR $T102056[ebp]
  0000a	aa		 stosb
  0000b	8a 45 ff	 mov	 al, BYTE PTR $T102056[ebp]
  0000e	5f		 pop	 edi
  0000f	c9		 leave
  00010	c3		 ret	 0
?_Ret@?$_BothPtrType@PADPAD@_STL@@SA?AU__true_type@2@XZ ENDP ; _STL::_BothPtrType<char *,char *>::_Ret
_TEXT	ENDS
PUBLIC	?_Ret@?$_OKToMemCpy@DD@_STL@@SA?AU__true_type@2@XZ ; _STL::_OKToMemCpy<char,char>::_Ret
; Function compile flags: /Ogsy
;	COMDAT ?_Ret@?$_OKToMemCpy@DD@_STL@@SA?AU__true_type@2@XZ
_TEXT	SEGMENT
$T102059 = -1						; size = 1
?_Ret@?$_OKToMemCpy@DD@_STL@@SA?AU__true_type@2@XZ PROC NEAR ; _STL::_OKToMemCpy<char,char>::_Ret, COMDAT

; 361  :   static _Type _Ret() { return _Type(); }

  00000	55		 push	 ebp
  00001	8b ec		 mov	 ebp, esp
  00003	51		 push	 ecx
  00004	57		 push	 edi
  00005	33 c0		 xor	 eax, eax
  00007	8d 7d ff	 lea	 edi, DWORD PTR $T102059[ebp]
  0000a	aa		 stosb
  0000b	8a 45 ff	 mov	 al, BYTE PTR $T102059[ebp]
  0000e	5f		 pop	 edi
  0000f	c9		 leave
  00010	c3		 ret	 0
?_Ret@?$_OKToMemCpy@DD@_STL@@SA?AU__true_type@2@XZ ENDP	; _STL::_OKToMemCpy<char,char>::_Ret
_TEXT	ENDS
PUBLIC	??$_IsOKToMemCpy@DD@_STL@@YA?AU?$_OKToMemCpy@DD@0@PAD0@Z ; _STL::_IsOKToMemCpy<char,char>
; Function compile flags: /Ogsy
;	COMDAT ??$_IsOKToMemCpy@DD@_STL@@YA?AU?$_OKToMemCpy@DD@0@PAD0@Z
_TEXT	SEGMENT
$T102062 = -1						; size = 1
___formal$ = 8						; size = 4
___formal$ = 12						; size = 4
??$_IsOKToMemCpy@DD@_STL@@YA?AU?$_OKToMemCpy@DD@0@PAD0@Z PROC NEAR ; _STL::_IsOKToMemCpy<char,char>, COMDAT

; 365  : inline _OKToMemCpy<_Tp1, _Tp2> _IsOKToMemCpy(_Tp1*, _Tp2*)  {

  00000	55		 push	 ebp
  00001	8b ec		 mov	 ebp, esp
  00003	51		 push	 ecx
  00004	57		 push	 edi

; 366  :   return _OKToMemCpy<_Tp1, _Tp2>();

  00005	33 c0		 xor	 eax, eax
  00007	8d 7d ff	 lea	 edi, DWORD PTR $T102062[ebp]
  0000a	aa		 stosb
  0000b	8a 45 ff	 mov	 al, BYTE PTR $T102062[ebp]
  0000e	5f		 pop	 edi

; 367  : }

  0000f	c9		 leave
  00010	c3		 ret	 0
??$_IsOKToMemCpy@DD@_STL@@YA?AU?$_OKToMemCpy@DD@0@PAD0@Z ENDP ; _STL::_IsOKToMemCpy<char,char>
_TEXT	ENDS
PUBLIC	??$__copy_ptrs@PADPAD@_STL@@YAPADPAD00ABU__true_type@0@@Z ; _STL::__copy_ptrs<char *,char *>
; Function compile flags: /Ogsy
; File c:\stlport-4.6.1\stlport\stl\_algobase.h
;	COMDAT ??$__copy_ptrs@PADPAD@_STL@@YAPADPAD00ABU__true_type@0@@Z
_TEXT	SEGMENT
___first$ = 8						; size = 4
___last$ = 12						; size = 4
___result$ = 16						; size = 4
___formal$ = 20						; size = 4
??$__copy_ptrs@PADPAD@_STL@@YAPADPAD00ABU__true_type@0@@Z PROC NEAR ; _STL::__copy_ptrs<char *,char *>, COMDAT

; 195  : // we know they all pointers, so this cast is OK 
; 196  :   //  return (_OutputIter)__copy_trivial(&(*__first), &(*__last), &(*__result));
; 197  :   return (_OutputIter)__copy_trivial(__first, __last, __result);

  00000	ff 74 24 0c	 push	 DWORD PTR ___result$[esp-4]
  00004	ff 74 24 0c	 push	 DWORD PTR ___last$[esp]
  00008	ff 74 24 0c	 push	 DWORD PTR ___first$[esp+4]
  0000c	e8 00 00 00 00	 call	 ?__copy_trivial@_STL@@YAPAXPBX0PAX@Z ; _STL::__copy_trivial
  00011	83 c4 0c	 add	 esp, 12			; 0000000cH

; 198  : }

  00014	c3		 ret	 0
??$__copy_ptrs@PADPAD@_STL@@YAPADPAD00ABU__true_type@0@@Z ENDP ; _STL::__copy_ptrs<char *,char *>
_TEXT	ENDS
PUBLIC	??1?$allocator@D@_STL@@QAE@XZ			; _STL::allocator<char>::~allocator<char>
; Function compile flags: /Ogsy
; File c:\stlport-4.6.1\stlport\stl\_alloc.h
;	COMDAT ??1?$allocator@D@_STL@@QAE@XZ
_TEXT	SEGMENT
??1?$allocator@D@_STL@@QAE@XZ PROC NEAR			; _STL::allocator<char>::~allocator<char>, COMDAT
; _this$ = ecx

; 350  :   ~allocator() _STLP_NOTHROW {}

  00000	c3		 ret	 0
??1?$allocator@D@_STL@@QAE@XZ ENDP			; _STL::allocator<char>::~allocator<char>
_TEXT	ENDS
PUBLIC	??1?$_STLP_alloc_proxy@PADDV?$allocator@D@_STL@@@_STL@@QAE@XZ ; _STL::_STLP_alloc_proxy<char *,char,_STL::allocator<char> >::~_STLP_alloc_proxy<char *,char,_STL::allocator<char> >
; Function compile flags: /Ogsy
;	COMDAT ??1?$_STLP_alloc_proxy@PADDV?$allocator@D@_STL@@@_STL@@QAE@XZ
_TEXT	SEGMENT
??1?$_STLP_alloc_proxy@PADDV?$allocator@D@_STL@@@_STL@@QAE@XZ PROC NEAR ; _STL::_STLP_alloc_proxy<char *,char,_STL::allocator<char> >::~_STLP_alloc_proxy<char *,char,_STL::allocator<char> >, COMDAT
; _this$ = ecx
  00000	c3		 ret	 0
??1?$_STLP_alloc_proxy@PADDV?$allocator@D@_STL@@@_STL@@QAE@XZ ENDP ; _STL::_STLP_alloc_proxy<char *,char,_STL::allocator<char> >::~_STLP_alloc_proxy<char *,char,_STL::allocator<char> >
_TEXT	ENDS
PUBLIC	?allocate@?$__node_alloc@$00$0A@@_STL@@SAPAXI@Z	; _STL::__node_alloc<1,0>::allocate
EXTRN	?_M_allocate@?$__node_alloc@$00$0A@@_STL@@CAPAXI@Z:NEAR ; _STL::__node_alloc<1,0>::_M_allocate
; Function compile flags: /Ogsy
;	COMDAT ?allocate@?$__node_alloc@$00$0A@@_STL@@SAPAXI@Z
_TEXT	SEGMENT
___n$ = 8						; size = 4
?allocate@?$__node_alloc@$00$0A@@_STL@@SAPAXI@Z PROC NEAR ; _STL::__node_alloc<1,0>::allocate, COMDAT

; 251  :   static void * _STLP_CALL allocate(size_t __n) { return (__n > (size_t)_MAX_BYTES) ?  __stl_new(__n) : _M_allocate(__n); }

  00000	8b 44 24 04	 mov	 eax, DWORD PTR ___n$[esp-4]
  00004	3d 80 00 00 00	 cmp	 eax, 128		; 00000080H
  00009	50		 push	 eax
  0000a	76 07		 jbe	 SHORT $L102077
  0000c	e8 00 00 00 00	 call	 ??2@YAPAXI@Z		; operator new
  00011	59		 pop	 ecx
  00012	c3		 ret	 0
$L102077:
  00013	e8 00 00 00 00	 call	 ?_M_allocate@?$__node_alloc@$00$0A@@_STL@@CAPAXI@Z ; _STL::__node_alloc<1,0>::_M_allocate
  00018	59		 pop	 ecx
  00019	c3		 ret	 0
?allocate@?$__node_alloc@$00$0A@@_STL@@SAPAXI@Z ENDP	; _STL::__node_alloc<1,0>::allocate
_TEXT	ENDS
PUBLIC	?deallocate@?$__node_alloc@$00$0A@@_STL@@SAXPAXI@Z ; _STL::__node_alloc<1,0>::deallocate
EXTRN	?_M_deallocate@?$__node_alloc@$00$0A@@_STL@@CAXPAXI@Z:NEAR ; _STL::__node_alloc<1,0>::_M_deallocate
; Function compile flags: /Ogsy
;	COMDAT ?deallocate@?$__node_alloc@$00$0A@@_STL@@SAXPAXI@Z
_TEXT	SEGMENT
___p$ = 8						; size = 4
___n$ = 12						; size = 4
?deallocate@?$__node_alloc@$00$0A@@_STL@@SAXPAXI@Z PROC NEAR ; _STL::__node_alloc<1,0>::deallocate, COMDAT

; 253  :   static void _STLP_CALL deallocate(void *__p, size_t __n) { if (__n > (size_t)_MAX_BYTES) __stl_delete(__p); else _M_deallocate(__p, __n); }

  00000	81 7c 24 08 80
	00 00 00	 cmp	 DWORD PTR ___n$[esp-4], 128 ; 00000080H
  00008	76 0b		 jbe	 SHORT $L98677
  0000a	ff 74 24 04	 push	 DWORD PTR ___p$[esp-4]
  0000e	e8 00 00 00 00	 call	 ??3@YAXPAX@Z		; operator delete
  00013	59		 pop	 ecx
  00014	c3		 ret	 0
$L98677:
  00015	e9 00 00 00 00	 jmp	 ?_M_deallocate@?$__node_alloc@$00$0A@@_STL@@CAXPAXI@Z ; _STL::__node_alloc<1,0>::_M_deallocate
?deallocate@?$__node_alloc@$00$0A@@_STL@@SAXPAXI@Z ENDP	; _STL::__node_alloc<1,0>::deallocate
_TEXT	ENDS
PUBLIC	?allocate@?$allocator@D@_STL@@QAEPADIPBX@Z	; _STL::allocator<char>::allocate
; Function compile flags: /Ogsy
;	COMDAT ?allocate@?$allocator@D@_STL@@QAEPADIPBX@Z
_TEXT	SEGMENT
___n$ = 8						; size = 4
___formal$ = 12						; size = 4
?allocate@?$allocator@D@_STL@@QAEPADIPBX@Z PROC NEAR	; _STL::allocator<char>::allocate, COMDAT
; _this$ = ecx

; 355  :     return __n != 0 ? __REINTERPRET_CAST(value_type*,__sgi_alloc::allocate(__n * sizeof(value_type))) : 0;

  00000	33 c0		 xor	 eax, eax
  00002	39 44 24 04	 cmp	 DWORD PTR ___n$[esp-4], eax
  00006	74 0a		 je	 SHORT $L102093
  00008	ff 74 24 04	 push	 DWORD PTR ___n$[esp-4]
  0000c	e8 00 00 00 00	 call	 ?allocate@?$__node_alloc@$00$0A@@_STL@@SAPAXI@Z ; _STL::__node_alloc<1,0>::allocate
  00011	59		 pop	 ecx
$L102093:

; 356  :   }

  00012	c2 08 00	 ret	 8
?allocate@?$allocator@D@_STL@@QAEPADIPBX@Z ENDP		; _STL::allocator<char>::allocate
_TEXT	ENDS
PUBLIC	?erase@?$basic_string@DV?$char_traits@D@_STL@@V?$allocator@D@2@@_STL@@QAEPADPAD0@Z ; _STL::basic_string<char,_STL::char_traits<char>,_STL::allocator<char> >::erase
; Function compile flags: /Ogsy
; File c:\stlport-4.6.1\stlport\stl\_string.h
;	COMDAT ?erase@?$basic_string@DV?$char_traits@D@_STL@@V?$allocator@D@2@@_STL@@QAEPADPAD0@Z
_TEXT	SEGMENT
___first$ = 8						; size = 4
___last$ = 12						; size = 4
?erase@?$basic_string@DV?$char_traits@D@_STL@@V?$allocator@D@2@@_STL@@QAEPADPAD0@Z PROC NEAR ; _STL::basic_string<char,_STL::char_traits<char>,_STL::allocator<char> >::erase, COMDAT
; _this$ = ecx

; 862  :   iterator erase(iterator __first, iterator __last) {

  00000	53		 push	 ebx

; 863  :     if (__first != __last) {

  00001	8b 5c 24 08	 mov	 ebx, DWORD PTR ___first$[esp]
  00005	56		 push	 esi
  00006	57		 push	 edi
  00007	8b 7c 24 14	 mov	 edi, DWORD PTR ___last$[esp+8]
  0000b	3b df		 cmp	 ebx, edi
  0000d	8b f1		 mov	 esi, ecx
  0000f	74 1a		 je	 SHORT $L101163

; 864  :                                 // The move includes the terminating _CharT().
; 865  :       traits_type::move(__first, __last, (this->_M_finish - __last) + 1);

  00011	8b 46 04	 mov	 eax, DWORD PTR [esi+4]
  00014	2b c7		 sub	 eax, edi
  00016	40		 inc	 eax
  00017	74 0b		 je	 SHORT $L102102
  00019	50		 push	 eax
  0001a	57		 push	 edi
  0001b	53		 push	 ebx
  0001c	e8 00 00 00 00	 call	 _memmove
  00021	83 c4 0c	 add	 esp, 12			; 0000000cH
$L102102:

; 866  :       pointer __new_finish = this->_M_finish - (__last - __first);

  00024	8b c3		 mov	 eax, ebx
  00026	2b c7		 sub	 eax, edi

; 867  :       _STLP_STD::_Destroy(__new_finish + 1, this->_M_finish + 1);
; 868  :       this->_M_finish = __new_finish;

  00028	01 46 04	 add	 DWORD PTR [esi+4], eax
$L101163:
  0002b	5f		 pop	 edi
  0002c	5e		 pop	 esi

; 869  :     }
; 870  :     return __first;

  0002d	8b c3		 mov	 eax, ebx
  0002f	5b		 pop	 ebx

; 871  :   }

  00030	c2 08 00	 ret	 8
?erase@?$basic_string@DV?$char_traits@D@_STL@@V?$allocator@D@2@@_STL@@QAEPADPAD0@Z ENDP ; _STL::basic_string<char,_STL::char_traits<char>,_STL::allocator<char> >::erase
_TEXT	ENDS
PUBLIC	?deallocate@?$allocator@UWAR_INFO@@@_STL@@QAEXPAUWAR_INFO@@I@Z ; _STL::allocator<WAR_INFO>::deallocate
; Function compile flags: /Ogsy
; File c:\stlport-4.6.1\stlport\stl\_alloc.h
;	COMDAT ?deallocate@?$allocator@UWAR_INFO@@@_STL@@QAEXPAUWAR_INFO@@I@Z
_TEXT	SEGMENT
___p$ = 8						; size = 4
___n$ = 12						; size = 4
?deallocate@?$allocator@UWAR_INFO@@@_STL@@QAEXPAUWAR_INFO@@I@Z PROC NEAR ; _STL::allocator<WAR_INFO>::deallocate, COMDAT
; _this$ = ecx

; 359  :     _STLP_ASSERT( (__p == 0) == (__n == 0) )
; 360  :       if (__p != 0) __sgi_alloc::deallocate((void*)__p, __n * sizeof(value_type));

  00000	83 7c 24 04 00	 cmp	 DWORD PTR ___p$[esp-4], 0
  00005	74 16		 je	 SHORT $L101167
  00007	8b 44 24 08	 mov	 eax, DWORD PTR ___n$[esp-4]
  0000b	8d 04 40	 lea	 eax, DWORD PTR [eax+eax*2]
  0000e	c1 e0 04	 shl	 eax, 4
  00011	50		 push	 eax
  00012	ff 74 24 08	 push	 DWORD PTR ___p$[esp]
  00016	e8 00 00 00 00	 call	 ?deallocate@?$__node_alloc@$00$0A@@_STL@@SAXPAXI@Z ; _STL::__node_alloc<1,0>::deallocate
  0001b	59		 pop	 ecx
  0001c	59		 pop	 ecx
$L101167:

; 361  :   }

  0001d	c2 08 00	 ret	 8
?deallocate@?$allocator@UWAR_INFO@@@_STL@@QAEXPAUWAR_INFO@@I@Z ENDP ; _STL::allocator<WAR_INFO>::deallocate
_TEXT	ENDS
PUBLIC	??0?$_STLP_alloc_proxy@PAUWAR_INFO@@U1@V?$allocator@UWAR_INFO@@@_STL@@@_STL@@QAE@ABV?$allocator@UWAR_INFO@@@1@PAUWAR_INFO@@@Z ; _STL::_STLP_alloc_proxy<WAR_INFO *,WAR_INFO,_STL::allocator<WAR_INFO> >::_STLP_alloc_proxy<WAR_INFO *,WAR_INFO,_STL::allocator<WAR_INFO> >
; Function compile flags: /Ogsy
;	COMDAT ??0?$_STLP_alloc_proxy@PAUWAR_INFO@@U1@V?$allocator@UWAR_INFO@@@_STL@@@_STL@@QAE@ABV?$allocator@UWAR_INFO@@@1@PAUWAR_INFO@@@Z
_TEXT	SEGMENT
___a$ = 8						; size = 4
___p$ = 12						; size = 4
??0?$_STLP_alloc_proxy@PAUWAR_INFO@@U1@V?$allocator@UWAR_INFO@@@_STL@@@_STL@@QAE@ABV?$allocator@UWAR_INFO@@@1@PAUWAR_INFO@@@Z PROC NEAR ; _STL::_STLP_alloc_proxy<WAR_INFO *,WAR_INFO,_STL::allocator<WAR_INFO> >::_STLP_alloc_proxy<WAR_INFO *,WAR_INFO,_STL::allocator<WAR_INFO> >, COMDAT
; _this$ = ecx

; 487  :   inline _STLP_alloc_proxy(const _MaybeReboundAlloc& __a, _Value __p) : _MaybeReboundAlloc(__a), _M_data(__p) {}

  00000	8b c1		 mov	 eax, ecx
  00002	8b 4c 24 08	 mov	 ecx, DWORD PTR ___p$[esp-4]
  00006	89 08		 mov	 DWORD PTR [eax], ecx
  00008	c2 08 00	 ret	 8
??0?$_STLP_alloc_proxy@PAUWAR_INFO@@U1@V?$allocator@UWAR_INFO@@@_STL@@@_STL@@QAE@ABV?$allocator@UWAR_INFO@@@1@PAUWAR_INFO@@@Z ENDP ; _STL::_STLP_alloc_proxy<WAR_INFO *,WAR_INFO,_STL::allocator<WAR_INFO> >::_STLP_alloc_proxy<WAR_INFO *,WAR_INFO,_STL::allocator<WAR_INFO> >
_TEXT	ENDS
PUBLIC	??0?$CBitAttribute@EI@@QAE@XZ			; CBitAttribute<unsigned char,unsigned int>::CBitAttribute<unsigned char,unsigned int>
; Function compile flags: /Ogsy
; File c:\darkeden\designed_common\project\client\bitattribute.h
;	COMDAT ??0?$CBitAttribute@EI@@QAE@XZ
_TEXT	SEGMENT
??0?$CBitAttribute@EI@@QAE@XZ PROC NEAR			; CBitAttribute<unsigned char,unsigned int>::CBitAttribute<unsigned char,unsigned int>, COMDAT
; _this$ = ecx

; 51   : {

  00000	8b c1		 mov	 eax, ecx

; 52   : 	SetNULL();

  00002	c6 00 00	 mov	 BYTE PTR [eax], 0

; 53   : }

  00005	c3		 ret	 0
??0?$CBitAttribute@EI@@QAE@XZ ENDP			; CBitAttribute<unsigned char,unsigned int>::CBitAttribute<unsigned char,unsigned int>
_TEXT	ENDS
PUBLIC	??$distance@PAD@_STL@@YAHABQAD0@Z		; _STL::distance<char *>
; Function compile flags: /Ogsy
; File c:\stlport-4.6.1\stlport\stl\_iterator_base.h
;	COMDAT ??$distance@PAD@_STL@@YAHABQAD0@Z
_TEXT	SEGMENT
___first$ = 8						; size = 4
___last$ = 12						; size = 4
??$distance@PAD@_STL@@YAHABQAD0@Z PROC NEAR		; _STL::distance<char *>, COMDAT

; 369  :   return __distance(__first, __last, _STLP_ITERATOR_CATEGORY(__first, _InputIterator));  

  00000	8b 44 24 08	 mov	 eax, DWORD PTR ___last$[esp-4]
  00004	8b 00		 mov	 eax, DWORD PTR [eax]
  00006	8b 4c 24 04	 mov	 ecx, DWORD PTR ___first$[esp-4]
  0000a	2b 01		 sub	 eax, DWORD PTR [ecx]

; 370  : }

  0000c	c3		 ret	 0
??$distance@PAD@_STL@@YAHABQAD0@Z ENDP			; _STL::distance<char *>
_TEXT	ENDS
PUBLIC	?_M_construct_null@?$basic_string@DV?$char_traits@D@_STL@@V?$allocator@D@2@@_STL@@AAEXPAD@Z ; _STL::basic_string<char,_STL::char_traits<char>,_STL::allocator<char> >::_M_construct_null
; Function compile flags: /Ogsy
; File c:\stlport-4.6.1\stlport\stl\_string.h
;	COMDAT ?_M_construct_null@?$basic_string@DV?$char_traits@D@_STL@@V?$allocator@D@2@@_STL@@AAEXPAD@Z
_TEXT	SEGMENT
___p$ = 8						; size = 4
?_M_construct_null@?$basic_string@DV?$char_traits@D@_STL@@V?$allocator@D@2@@_STL@@AAEXPAD@Z PROC NEAR ; _STL::basic_string<char,_STL::char_traits<char>,_STL::allocator<char> >::_M_construct_null, COMDAT
; _this$ = ecx

; 336  :     _M_construct_null_aux(__p, _Char_Is_Integral());

  00000	8b 44 24 04	 mov	 eax, DWORD PTR ___p$[esp-4]
  00004	c6 00 00	 mov	 BYTE PTR [eax], 0

; 337  :   }

  00007	c2 04 00	 ret	 4
?_M_construct_null@?$basic_string@DV?$char_traits@D@_STL@@V?$allocator@D@2@@_STL@@AAEXPAD@Z ENDP ; _STL::basic_string<char,_STL::char_traits<char>,_STL::allocator<char> >::_M_construct_null
_TEXT	ENDS
PUBLIC	?max_size@?$basic_string@DV?$char_traits@D@_STL@@V?$allocator@D@2@@_STL@@QBEIXZ ; _STL::basic_string<char,_STL::char_traits<char>,_STL::allocator<char> >::max_size
; Function compile flags: /Ogsy
;	COMDAT ?max_size@?$basic_string@DV?$char_traits@D@_STL@@V?$allocator@D@2@@_STL@@QBEIXZ
_TEXT	SEGMENT
?max_size@?$basic_string@DV?$char_traits@D@_STL@@V?$allocator@D@2@@_STL@@QBEIXZ PROC NEAR ; _STL::basic_string<char,_STL::char_traits<char>,_STL::allocator<char> >::max_size, COMDAT
; _this$ = ecx

; 434  :   size_t max_size() const { return _Base::max_size(); }

  00000	6a fe		 push	 -2			; fffffffeH
  00002	58		 pop	 eax
  00003	c3		 ret	 0
?max_size@?$basic_string@DV?$char_traits@D@_STL@@V?$allocator@D@2@@_STL@@QBEIXZ ENDP ; _STL::basic_string<char,_STL::char_traits<char>,_STL::allocator<char> >::max_size
_TEXT	ENDS
PUBLIC	??$__copy_aux@PADPAD@_STL@@YAPADPAD00ABU__true_type@0@@Z ; _STL::__copy_aux<char *,char *>
; Function compile flags: /Ogsy
; File c:\stlport-4.6.1\stlport\stl\_algobase.h
;	COMDAT ??$__copy_aux@PADPAD@_STL@@YAPADPAD00ABU__true_type@0@@Z
_TEXT	SEGMENT
___first$ = 8						; size = 4
___last$ = 12						; size = 4
___result$ = 16						; size = 4
___formal$ = 20						; size = 4
??$__copy_aux@PADPAD@_STL@@YAPADPAD00ABU__true_type@0@@Z PROC NEAR ; _STL::__copy_aux<char *,char *>, COMDAT

; 202  :   return __copy_ptrs(__first, __last, __result, 
; 203  :                      _IsOKToMemCpy(_STLP_VALUE_TYPE(__first, _InputIter), 
; 204  :                                    _STLP_VALUE_TYPE(__result, _OutputIter))._Ret());

  00000	ff 74 24 0c	 push	 DWORD PTR ___result$[esp-4]
  00004	ff 74 24 0c	 push	 DWORD PTR ___last$[esp]
  00008	ff 74 24 0c	 push	 DWORD PTR ___first$[esp+4]
  0000c	e8 00 00 00 00	 call	 ?__copy_trivial@_STL@@YAPAXPBX0PAX@Z ; _STL::__copy_trivial
  00011	83 c4 0c	 add	 esp, 12			; 0000000cH

; 205  : }

  00014	c3		 ret	 0
??$__copy_aux@PADPAD@_STL@@YAPADPAD00ABU__true_type@0@@Z ENDP ; _STL::__copy_aux<char *,char *>
_TEXT	ENDS
PUBLIC	?deallocate@?$allocator@D@_STL@@QAEXPADI@Z	; _STL::allocator<char>::deallocate
; Function compile flags: /Ogsy
; File c:\stlport-4.6.1\stlport\stl\_alloc.h
;	COMDAT ?deallocate@?$allocator@D@_STL@@QAEXPADI@Z
_TEXT	SEGMENT
___p$ = 8						; size = 4
___n$ = 12						; size = 4
?deallocate@?$allocator@D@_STL@@QAEXPADI@Z PROC NEAR	; _STL::allocator<char>::deallocate, COMDAT
; _this$ = ecx

; 359  :     _STLP_ASSERT( (__p == 0) == (__n == 0) )
; 360  :       if (__p != 0) __sgi_alloc::deallocate((void*)__p, __n * sizeof(value_type));

  00000	83 7c 24 04 00	 cmp	 DWORD PTR ___p$[esp-4], 0
  00005	74 0f		 je	 SHORT $L98663
  00007	ff 74 24 08	 push	 DWORD PTR ___n$[esp-4]
  0000b	ff 74 24 08	 push	 DWORD PTR ___p$[esp]
  0000f	e8 00 00 00 00	 call	 ?deallocate@?$__node_alloc@$00$0A@@_STL@@SAXPAXI@Z ; _STL::__node_alloc<1,0>::deallocate
  00014	59		 pop	 ecx
  00015	59		 pop	 ecx
$L98663:

; 361  :   }

  00016	c2 08 00	 ret	 8
?deallocate@?$allocator@D@_STL@@QAEXPADI@Z ENDP		; _STL::allocator<char>::deallocate
_TEXT	ENDS
PUBLIC	??0?$_Vector_base@UWAR_INFO@@V?$allocator@UWAR_INFO@@@_STL@@@_STL@@QAE@ABV?$allocator@UWAR_INFO@@@1@@Z ; _STL::_Vector_base<WAR_INFO,_STL::allocator<WAR_INFO> >::_Vector_base<WAR_INFO,_STL::allocator<WAR_INFO> >
; Function compile flags: /Ogsy
; File c:\stlport-4.6.1\stlport\stl\_vector.h
;	COMDAT ??0?$_Vector_base@UWAR_INFO@@V?$allocator@UWAR_INFO@@@_STL@@@_STL@@QAE@ABV?$allocator@UWAR_INFO@@@1@@Z
_TEXT	SEGMENT
___a$ = 8						; size = 4
??0?$_Vector_base@UWAR_INFO@@V?$allocator@UWAR_INFO@@@_STL@@@_STL@@QAE@ABV?$allocator@UWAR_INFO@@@1@@Z PROC NEAR ; _STL::_Vector_base<WAR_INFO,_STL::allocator<WAR_INFO> >::_Vector_base<WAR_INFO,_STL::allocator<WAR_INFO> >, COMDAT
; _this$ = ecx

; 72   :     : _M_start(0), _M_finish(0), _M_end_of_storage(__a, 0) {

  00000	56		 push	 esi
  00001	33 c0		 xor	 eax, eax
  00003	8b f1		 mov	 esi, ecx
  00005	50		 push	 eax
  00006	ff 74 24 0c	 push	 DWORD PTR ___a$[esp+4]
  0000a	8d 4e 08	 lea	 ecx, DWORD PTR [esi+8]
  0000d	89 06		 mov	 DWORD PTR [esi], eax
  0000f	89 46 04	 mov	 DWORD PTR [esi+4], eax
  00012	e8 00 00 00 00	 call	 ??0?$_STLP_alloc_proxy@PAUWAR_INFO@@U1@V?$allocator@UWAR_INFO@@@_STL@@@_STL@@QAE@ABV?$allocator@UWAR_INFO@@@1@PAUWAR_INFO@@@Z ; _STL::_STLP_alloc_proxy<WAR_INFO *,WAR_INFO,_STL::allocator<WAR_INFO> >::_STLP_alloc_proxy<WAR_INFO *,WAR_INFO,_STL::allocator<WAR_INFO> >

; 73   :   }

  00017	8b c6		 mov	 eax, esi
  00019	5e		 pop	 esi
  0001a	c2 04 00	 ret	 4
??0?$_Vector_base@UWAR_INFO@@V?$allocator@UWAR_INFO@@@_STL@@@_STL@@QAE@ABV?$allocator@UWAR_INFO@@@1@@Z ENDP ; _STL::_Vector_base<WAR_INFO,_STL::allocator<WAR_INFO> >::_Vector_base<WAR_INFO,_STL::allocator<WAR_INFO> >
_TEXT	ENDS
PUBLIC	??1?$_Vector_base@UWAR_INFO@@V?$allocator@UWAR_INFO@@@_STL@@@_STL@@QAE@XZ ; _STL::_Vector_base<WAR_INFO,_STL::allocator<WAR_INFO> >::~_Vector_base<WAR_INFO,_STL::allocator<WAR_INFO> >
; Function compile flags: /Ogsy
;	COMDAT ??1?$_Vector_base@UWAR_INFO@@V?$allocator@UWAR_INFO@@@_STL@@@_STL@@QAE@XZ
_TEXT	SEGMENT
??1?$_Vector_base@UWAR_INFO@@V?$allocator@UWAR_INFO@@@_STL@@@_STL@@QAE@XZ PROC NEAR ; _STL::_Vector_base<WAR_INFO,_STL::allocator<WAR_INFO> >::~_Vector_base<WAR_INFO,_STL::allocator<WAR_INFO> >, COMDAT
; _this$ = ecx

; 83   :   ~_Vector_base() { 

  00000	56		 push	 esi

; 84   :     if (_M_start !=0) 

  00001	8b 31		 mov	 esi, DWORD PTR [ecx]
  00003	85 f6		 test	 esi, esi
  00005	74 16		 je	 SHORT $L101149
  00007	57		 push	 edi

; 85   :     _M_end_of_storage.deallocate(_M_start, _M_end_of_storage._M_data - _M_start); 

  00008	83 c1 08	 add	 ecx, 8
  0000b	8b 01		 mov	 eax, DWORD PTR [ecx]
  0000d	2b c6		 sub	 eax, esi
  0000f	6a 30		 push	 48			; 00000030H
  00011	5f		 pop	 edi
  00012	99		 cdq
  00013	f7 ff		 idiv	 edi
  00015	50		 push	 eax
  00016	56		 push	 esi
  00017	e8 00 00 00 00	 call	 ?deallocate@?$allocator@UWAR_INFO@@@_STL@@QAEXPAUWAR_INFO@@I@Z ; _STL::allocator<WAR_INFO>::deallocate
  0001c	5f		 pop	 edi
$L101149:
  0001d	5e		 pop	 esi

; 86   :   }

  0001e	c3		 ret	 0
??1?$_Vector_base@UWAR_INFO@@V?$allocator@UWAR_INFO@@@_STL@@@_STL@@QAE@XZ ENDP ; _STL::_Vector_base<WAR_INFO,_STL::allocator<WAR_INFO> >::~_Vector_base<WAR_INFO,_STL::allocator<WAR_INFO> >
_TEXT	ENDS
PUBLIC	??$__uninitialized_copy@PADPAD@_STL@@YAPADPAD00ABU__true_type@0@@Z ; _STL::__uninitialized_copy<char *,char *>
; Function compile flags: /Ogsy
; File c:\stlport-4.6.1\stlport\stl\_uninitialized.h
;	COMDAT ??$__uninitialized_copy@PADPAD@_STL@@YAPADPAD00ABU__true_type@0@@Z
_TEXT	SEGMENT
___first$ = 8						; size = 4
___last$ = 12						; size = 4
___result$ = 16						; size = 4
___formal$ = 20						; size = 4
??$__uninitialized_copy@PADPAD@_STL@@YAPADPAD00ABU__true_type@0@@Z PROC NEAR ; _STL::__uninitialized_copy<char *,char *>, COMDAT

; 55   :   return __copy_aux(__first, __last, __result, _BothPtrType< _InputIter, _ForwardIter> :: _Ret());

  00000	ff 74 24 0c	 push	 DWORD PTR ___result$[esp-4]
  00004	ff 74 24 0c	 push	 DWORD PTR ___last$[esp]
  00008	ff 74 24 0c	 push	 DWORD PTR ___first$[esp+4]
  0000c	e8 00 00 00 00	 call	 ?__copy_trivial@_STL@@YAPAXPBX0PAX@Z ; _STL::__copy_trivial
  00011	83 c4 0c	 add	 esp, 12			; 0000000cH

; 56   : }

  00014	c3		 ret	 0
??$__uninitialized_copy@PADPAD@_STL@@YAPADPAD00ABU__true_type@0@@Z ENDP ; _STL::__uninitialized_copy<char *,char *>
_TEXT	ENDS
PUBLIC	?_M_deallocate_block@?$_String_base@DV?$allocator@D@_STL@@@_STL@@QAEXXZ ; _STL::_String_base<char,_STL::allocator<char> >::_M_deallocate_block
; Function compile flags: /Ogsy
; File c:\stlport-4.6.1\stlport\stl\_string.h
;	COMDAT ?_M_deallocate_block@?$_String_base@DV?$allocator@D@_STL@@@_STL@@QAEXXZ
_TEXT	SEGMENT
?_M_deallocate_block@?$_String_base@DV?$allocator@D@_STL@@@_STL@@QAEXXZ PROC NEAR ; _STL::_String_base<char,_STL::allocator<char> >::_M_deallocate_block, COMDAT
; _this$ = ecx

; 124  :     { _M_end_of_storage.deallocate(_M_start, _M_end_of_storage._M_data - _M_start); }

  00000	8b c1		 mov	 eax, ecx
  00002	8d 48 08	 lea	 ecx, DWORD PTR [eax+8]
  00005	8b 00		 mov	 eax, DWORD PTR [eax]
  00007	8b 11		 mov	 edx, DWORD PTR [ecx]
  00009	2b d0		 sub	 edx, eax
  0000b	52		 push	 edx
  0000c	50		 push	 eax
  0000d	e8 00 00 00 00	 call	 ?deallocate@?$allocator@D@_STL@@QAEXPADI@Z ; _STL::allocator<char>::deallocate
  00012	c3		 ret	 0
?_M_deallocate_block@?$_String_base@DV?$allocator@D@_STL@@@_STL@@QAEXXZ ENDP ; _STL::_String_base<char,_STL::allocator<char> >::_M_deallocate_block
_TEXT	ENDS
PUBLIC	??0?$vector@UWAR_INFO@@V?$allocator@UWAR_INFO@@@_STL@@@_STL@@QAE@ABV?$allocator@UWAR_INFO@@@1@@Z ; _STL::vector<WAR_INFO,_STL::allocator<WAR_INFO> >::vector<WAR_INFO,_STL::allocator<WAR_INFO> >
; Function compile flags: /Ogsy
; File c:\stlport-4.6.1\stlport\stl\_vector.h
;	COMDAT ??0?$vector@UWAR_INFO@@V?$allocator@UWAR_INFO@@@_STL@@@_STL@@QAE@ABV?$allocator@UWAR_INFO@@@1@@Z
_TEXT	SEGMENT
___a$ = 8						; size = 4
??0?$vector@UWAR_INFO@@V?$allocator@UWAR_INFO@@@_STL@@@_STL@@QAE@ABV?$allocator@UWAR_INFO@@@1@@Z PROC NEAR ; _STL::vector<WAR_INFO,_STL::allocator<WAR_INFO> >::vector<WAR_INFO,_STL::allocator<WAR_INFO> >, COMDAT
; _this$ = ecx

; 199  :     _Vector_base<_Tp, _Alloc>(__a) {}

  00000	56		 push	 esi
  00001	ff 74 24 08	 push	 DWORD PTR ___a$[esp]
  00005	8b f1		 mov	 esi, ecx
  00007	e8 00 00 00 00	 call	 ??0?$_Vector_base@UWAR_INFO@@V?$allocator@UWAR_INFO@@@_STL@@@_STL@@QAE@ABV?$allocator@UWAR_INFO@@@1@@Z ; _STL::_Vector_base<WAR_INFO,_STL::allocator<WAR_INFO> >::_Vector_base<WAR_INFO,_STL::allocator<WAR_INFO> >
  0000c	8b c6		 mov	 eax, esi
  0000e	5e		 pop	 esi
  0000f	c2 04 00	 ret	 4
??0?$vector@UWAR_INFO@@V?$allocator@UWAR_INFO@@@_STL@@@_STL@@QAE@ABV?$allocator@UWAR_INFO@@@1@@Z ENDP ; _STL::vector<WAR_INFO,_STL::allocator<WAR_INFO> >::vector<WAR_INFO,_STL::allocator<WAR_INFO> >
_TEXT	ENDS
PUBLIC	??$uninitialized_copy@PADPAD@_STL@@YAPADPAD00@Z	; _STL::uninitialized_copy<char *,char *>
; Function compile flags: /Ogsy
; File c:\stlport-4.6.1\stlport\stl\_uninitialized.h
;	COMDAT ??$uninitialized_copy@PADPAD@_STL@@YAPADPAD00@Z
_TEXT	SEGMENT
___first$ = 8						; size = 4
___last$ = 12						; size = 4
___result$ = 16						; size = 4
??$uninitialized_copy@PADPAD@_STL@@YAPADPAD00@Z PROC NEAR ; _STL::uninitialized_copy<char *,char *>, COMDAT

; 79   :   return __uninitialized_copy(__first, __last, __result,  _IS_POD_ITER(__result, _ForwardIter));

  00000	e9 00 00 00 00	 jmp	 ?__copy_trivial@_STL@@YAPAXPBX0PAX@Z ; _STL::__copy_trivial
??$uninitialized_copy@PADPAD@_STL@@YAPADPAD00@Z ENDP	; _STL::uninitialized_copy<char *,char *>
_TEXT	ENDS
PUBLIC	??$append@PAD@?$basic_string@DV?$char_traits@D@_STL@@V?$allocator@D@2@@_STL@@AAEAAV01@PAD0ABUforward_iterator_tag@1@@Z ; _STL::basic_string<char,_STL::char_traits<char>,_STL::allocator<char> >::append<char *>
EXTRN	__CxxThrowException@8:NEAR
; Function compile flags: /Ogsy
; File c:\stlport-4.6.1\stlport\stl\_string.h
;	COMDAT ??$append@PAD@?$basic_string@DV?$char_traits@D@_STL@@V?$allocator@D@2@@_STL@@AAEAAV01@PAD0ABUforward_iterator_tag@1@@Z
_TEXT	SEGMENT
___len$101689 = -8					; size = 4
___old_size$101682 = -8					; size = 4
$T102272 = -4						; size = 4
___first$ = 8						; size = 4
___last$ = 12						; size = 4
___formal$ = 16						; size = 4
??$append@PAD@?$basic_string@DV?$char_traits@D@_STL@@V?$allocator@D@2@@_STL@@AAEAAV01@PAD0ABUforward_iterator_tag@1@@Z PROC NEAR ; _STL::basic_string<char,_STL::char_traits<char>,_STL::allocator<char> >::append<char *>, COMDAT
; _this$ = ecx

; 542  :   template <class _ForwardIter> _Self& append(_ForwardIter __first, _ForwardIter __last, 

  00000	55		 push	 ebp
  00001	8b ec		 mov	 ebp, esp
  00003	51		 push	 ecx
  00004	51		 push	 ecx
  00005	56		 push	 esi
  00006	57		 push	 edi

; 543  :                        const forward_iterator_tag &)  {
; 544  :     if (__first != __last) {

  00007	8b 7d 0c	 mov	 edi, DWORD PTR ___last$[ebp]
  0000a	39 7d 08	 cmp	 DWORD PTR ___first$[ebp], edi
  0000d	8b f1		 mov	 esi, ecx
  0000f	0f 84 b6 00 00
	00		 je	 $L101695

; 545  : 	    const size_type __old_size = size();
; 546  : 	    difference_type __n = distance(__first, __last);

  00015	2b 7d 08	 sub	 edi, DWORD PTR ___first$[ebp]
  00018	53		 push	 ebx
  00019	8b 5e 04	 mov	 ebx, DWORD PTR [esi+4]
  0001c	2b 1e		 sub	 ebx, DWORD PTR [esi]

; 547  : 	    if (__STATIC_CAST(size_type,__n) > max_size() || __old_size > max_size() - __STATIC_CAST(size_type,__n))

  0001e	83 ff fe	 cmp	 edi, -2			; fffffffeH
  00021	89 5d f8	 mov	 DWORD PTR ___old_size$101682[ebp], ebx
  00024	77 09		 ja	 SHORT $L101687
  00026	6a fe		 push	 -2			; fffffffeH
  00028	58		 pop	 eax
  00029	2b c7		 sub	 eax, edi
  0002b	3b d8		 cmp	 ebx, eax
  0002d	76 07		 jbe	 SHORT $L101686
$L101687:

; 548  : 	      this->_M_throw_length_error();

  0002f	8b ce		 mov	 ecx, esi
  00031	e8 00 00 00 00	 call	 ?_M_throw_length_error@?$_String_base@DV?$allocator@D@_STL@@@_STL@@QBEXXZ ; _STL::_String_base<char,_STL::allocator<char> >::_M_throw_length_error
$L101686:

; 549  : 	    if (__old_size + __n > capacity()) {

  00036	8b 46 08	 mov	 eax, DWORD PTR [esi+8]
  00039	2b 06		 sub	 eax, DWORD PTR [esi]
  0003b	8d 0c 1f	 lea	 ecx, DWORD PTR [edi+ebx]
  0003e	48		 dec	 eax
  0003f	3b c8		 cmp	 ecx, eax
  00041	76 5e		 jbe	 SHORT $L101688

; 550  : 	      const size_type __len = __old_size +
; 551  : 	                            (max)(__old_size, __STATIC_CAST(size_type,__n)) + 1;

  00043	3b df		 cmp	 ebx, edi
  00045	89 7d fc	 mov	 DWORD PTR $T102272[ebp], edi
  00048	8d 45 fc	 lea	 eax, DWORD PTR $T102272[ebp]
  0004b	72 03		 jb	 SHORT $L102318
  0004d	8d 45 f8	 lea	 eax, DWORD PTR ___old_size$101682[ebp]
$L102318:
  00050	8b 00		 mov	 eax, DWORD PTR [eax]
  00052	8d 5c 18 01	 lea	 ebx, DWORD PTR [eax+ebx+1]

; 552  : 	      pointer __new_start = this->_M_end_of_storage.allocate(__len);

  00056	85 db		 test	 ebx, ebx
  00058	89 5d f8	 mov	 DWORD PTR ___len$101689[ebp], ebx
  0005b	74 0b		 je	 SHORT $L102324
  0005d	53		 push	 ebx
  0005e	e8 00 00 00 00	 call	 ?allocate@?$__node_alloc@$00$0A@@_STL@@SAPAXI@Z ; _STL::__node_alloc<1,0>::allocate
  00063	59		 pop	 ecx
  00064	8b f8		 mov	 edi, eax
  00066	eb 02		 jmp	 SHORT $L102325
$L102324:
  00068	33 ff		 xor	 edi, edi
$L102325:

; 553  : 	      pointer __new_finish = __new_start;
; 554  : 	      _STLP_TRY {
; 555  : 	        __new_finish = uninitialized_copy(this->_M_start, this->_M_finish, __new_start);

  0006a	8b 46 04	 mov	 eax, DWORD PTR [esi+4]
  0006d	8b 0e		 mov	 ecx, DWORD PTR [esi]
  0006f	57		 push	 edi
  00070	50		 push	 eax
  00071	51		 push	 ecx
  00072	e8 00 00 00 00	 call	 ?__copy_trivial@_STL@@YAPAXPBX0PAX@Z ; _STL::__copy_trivial

; 556  : 	        __new_finish = uninitialized_copy(__first, __last, __new_finish);

  00077	50		 push	 eax
  00078	ff 75 0c	 push	 DWORD PTR ___last$[ebp]
  0007b	ff 75 08	 push	 DWORD PTR ___first$[ebp]
  0007e	e8 00 00 00 00	 call	 ?__copy_trivial@_STL@@YAPAXPBX0PAX@Z ; _STL::__copy_trivial
  00083	8b d8		 mov	 ebx, eax
  00085	83 c4 18	 add	 esp, 24			; 00000018H

; 557  : 	        _M_construct_null(__new_finish);
; 558  : 	      }
; 559  : 	      _STLP_UNWIND((_STLP_STD::_Destroy(__new_start,__new_finish),
; 560  : 	                    this->_M_end_of_storage.deallocate(__new_start,__len)));
; 561  : 	      _STLP_STD::_Destroy(this->_M_start, this->_M_finish + 1);
; 562  : 	      this->_M_deallocate_block();

  00088	8b ce		 mov	 ecx, esi
  0008a	c6 03 00	 mov	 BYTE PTR [ebx], 0
  0008d	e8 00 00 00 00	 call	 ?_M_deallocate_block@?$_String_base@DV?$allocator@D@_STL@@@_STL@@QAEXXZ ; _STL::_String_base<char,_STL::allocator<char> >::_M_deallocate_block

; 563  : 	      this->_M_start = __new_start;
; 564  : 	      this->_M_finish = __new_finish;
; 565  : 	      this->_M_end_of_storage._M_data = __new_start + __len; 

  00092	8b 45 f8	 mov	 eax, DWORD PTR ___len$101689[ebp]
  00095	89 3e		 mov	 DWORD PTR [esi], edi
  00097	03 f8		 add	 edi, eax
  00099	89 5e 04	 mov	 DWORD PTR [esi+4], ebx
  0009c	89 7e 08	 mov	 DWORD PTR [esi+8], edi

; 566  : 	    }
; 567  : 	    else {

  0009f	eb 29		 jmp	 SHORT $L102602
$L101688:

; 568  : 	      _ForwardIter __f1 = __first;
; 569  : 	      ++__f1;
; 570  : 	      uninitialized_copy(__f1, __last, this->_M_finish + 1);

  000a1	8b 46 04	 mov	 eax, DWORD PTR [esi+4]
  000a4	40		 inc	 eax
  000a5	50		 push	 eax
  000a6	8b 45 08	 mov	 eax, DWORD PTR ___first$[ebp]
  000a9	ff 75 0c	 push	 DWORD PTR ___last$[ebp]
  000ac	40		 inc	 eax
  000ad	50		 push	 eax
  000ae	e8 00 00 00 00	 call	 ?__copy_trivial@_STL@@YAPAXPBX0PAX@Z ; _STL::__copy_trivial

; 571  : 	      _STLP_TRY {
; 572  : 	        _M_construct_null(this->_M_finish + __n);

  000b3	8b 46 04	 mov	 eax, DWORD PTR [esi+4]

; 573  : 	      }
; 574  : 	      _STLP_UNWIND(_STLP_STD::_Destroy(this->_M_finish + 1, this->_M_finish + __n));
; 575  : 	      _Traits::assign(*end(), *__first);

  000b6	8b 4d 08	 mov	 ecx, DWORD PTR ___first$[ebp]
  000b9	c6 04 07 00	 mov	 BYTE PTR [edi+eax], 0
  000bd	8b 46 04	 mov	 eax, DWORD PTR [esi+4]
  000c0	8a 09		 mov	 cl, BYTE PTR [ecx]
  000c2	83 c4 0c	 add	 esp, 12			; 0000000cH
  000c5	88 08		 mov	 BYTE PTR [eax], cl

; 576  : 	      this->_M_finish += __n;

  000c7	01 7e 04	 add	 DWORD PTR [esi+4], edi
$L102602:
  000ca	5b		 pop	 ebx
$L101695:
  000cb	5f		 pop	 edi

; 577  : 	    }
; 578  : 	  }
; 579  : 	  return *this;  

  000cc	8b c6		 mov	 eax, esi
  000ce	5e		 pop	 esi

; 580  : 	}

  000cf	c9		 leave
  000d0	c2 0c 00	 ret	 12			; 0000000cH
??$append@PAD@?$basic_string@DV?$char_traits@D@_STL@@V?$allocator@D@2@@_STL@@AAEAAV01@PAD0ABUforward_iterator_tag@1@@Z ENDP ; _STL::basic_string<char,_STL::char_traits<char>,_STL::allocator<char> >::append<char *>
_TEXT	ENDS
PUBLIC	??1?$_String_base@DV?$allocator@D@_STL@@@_STL@@QAE@XZ ; _STL::_String_base<char,_STL::allocator<char> >::~_String_base<char,_STL::allocator<char> >
; Function compile flags: /Ogsy
;	COMDAT ??1?$_String_base@DV?$allocator@D@_STL@@@_STL@@QAE@XZ
_TEXT	SEGMENT
??1?$_String_base@DV?$allocator@D@_STL@@@_STL@@QAE@XZ PROC NEAR ; _STL::_String_base<char,_STL::allocator<char> >::~_String_base<char,_STL::allocator<char> >, COMDAT
; _this$ = ecx

; 135  :   ~_String_base() { _M_deallocate_block(); }

  00000	e9 00 00 00 00	 jmp	 ?_M_deallocate_block@?$_String_base@DV?$allocator@D@_STL@@@_STL@@QAEXXZ ; _STL::_String_base<char,_STL::allocator<char> >::_M_deallocate_block
??1?$_String_base@DV?$allocator@D@_STL@@@_STL@@QAE@XZ ENDP ; _STL::_String_base<char,_STL::allocator<char> >::~_String_base<char,_STL::allocator<char> >
_TEXT	ENDS
PUBLIC	??$_M_append_dispatch@PAD@?$basic_string@DV?$char_traits@D@_STL@@V?$allocator@D@2@@_STL@@AAEAAV01@PAD0ABU__false_type@1@@Z ; _STL::basic_string<char,_STL::char_traits<char>,_STL::allocator<char> >::_M_append_dispatch<char *>
; Function compile flags: /Ogsy
;	COMDAT ??$_M_append_dispatch@PAD@?$basic_string@DV?$char_traits@D@_STL@@V?$allocator@D@2@@_STL@@AAEAAV01@PAD0ABU__false_type@1@@Z
_TEXT	SEGMENT
___f$ = 8						; size = 4
___l$ = 12						; size = 4
$T102608 = 15						; size = 1
___formal$ = 16						; size = 4
??$_M_append_dispatch@PAD@?$basic_string@DV?$char_traits@D@_STL@@V?$allocator@D@2@@_STL@@AAEAAV01@PAD0ABU__false_type@1@@Z PROC NEAR ; _STL::basic_string<char,_STL::char_traits<char>,_STL::allocator<char> >::_M_append_dispatch<char *>, COMDAT
; _this$ = ecx

; 586  :   template <class _InputIter> _Self& _M_append_dispatch(_InputIter __f, _InputIter __l,

  00000	55		 push	 ebp
  00001	8b ec		 mov	 ebp, esp

; 587  :                                    const __false_type&) {
; 588  :     return append(__f, __l, _STLP_ITERATOR_CATEGORY(__f, _InputIter));

  00003	8d 45 0f	 lea	 eax, DWORD PTR $T102608[ebp]
  00006	50		 push	 eax
  00007	ff 75 0c	 push	 DWORD PTR ___l$[ebp]
  0000a	ff 75 08	 push	 DWORD PTR ___f$[ebp]
  0000d	e8 00 00 00 00	 call	 ??$append@PAD@?$basic_string@DV?$char_traits@D@_STL@@V?$allocator@D@2@@_STL@@AAEAAV01@PAD0ABUforward_iterator_tag@1@@Z ; _STL::basic_string<char,_STL::char_traits<char>,_STL::allocator<char> >::append<char *>

; 589  :   }

  00012	5d		 pop	 ebp
  00013	c2 0c 00	 ret	 12			; 0000000cH
??$_M_append_dispatch@PAD@?$basic_string@DV?$char_traits@D@_STL@@V?$allocator@D@2@@_STL@@AAEAAV01@PAD0ABU__false_type@1@@Z ENDP ; _STL::basic_string<char,_STL::char_traits<char>,_STL::allocator<char> >::_M_append_dispatch<char *>
_TEXT	ENDS
PUBLIC	??1?$basic_string@DV?$char_traits@D@_STL@@V?$allocator@D@2@@_STL@@QAE@XZ ; _STL::basic_string<char,_STL::char_traits<char>,_STL::allocator<char> >::~basic_string<char,_STL::char_traits<char>,_STL::allocator<char> >
; Function compile flags: /Ogsy
;	COMDAT ??1?$basic_string@DV?$char_traits@D@_STL@@V?$allocator@D@2@@_STL@@QAE@XZ
_TEXT	SEGMENT
??1?$basic_string@DV?$char_traits@D@_STL@@V?$allocator@D@2@@_STL@@QAE@XZ PROC NEAR ; _STL::basic_string<char,_STL::char_traits<char>,_STL::allocator<char> >::~basic_string<char,_STL::char_traits<char>,_STL::allocator<char> >, COMDAT
; _this$ = ecx

; 305  :   ~basic_string() { _STLP_STD::_Destroy(this->_M_start, this->_M_finish + 1); }

  00000	e9 00 00 00 00	 jmp	 ?_M_deallocate_block@?$_String_base@DV?$allocator@D@_STL@@@_STL@@QAEXXZ ; _STL::_String_base<char,_STL::allocator<char> >::_M_deallocate_block
??1?$basic_string@DV?$char_traits@D@_STL@@V?$allocator@D@2@@_STL@@QAE@XZ ENDP ; _STL::basic_string<char,_STL::char_traits<char>,_STL::allocator<char> >::~basic_string<char,_STL::char_traits<char>,_STL::allocator<char> >
_TEXT	ENDS
PUBLIC	??$append@PAD@?$basic_string@DV?$char_traits@D@_STL@@V?$allocator@D@2@@_STL@@QAEAAV01@PAD0@Z ; _STL::basic_string<char,_STL::char_traits<char>,_STL::allocator<char> >::append<char *>
; Function compile flags: /Ogsy
;	COMDAT ??$append@PAD@?$basic_string@DV?$char_traits@D@_STL@@V?$allocator@D@2@@_STL@@QAEAAV01@PAD0@Z
_TEXT	SEGMENT
___first$ = 8						; size = 4
___last$ = 12						; size = 4
$T102638 = 15						; size = 1
??$append@PAD@?$basic_string@DV?$char_traits@D@_STL@@V?$allocator@D@2@@_STL@@QAEAAV01@PAD0@Z PROC NEAR ; _STL::basic_string<char,_STL::char_traits<char>,_STL::allocator<char> >::append<char *>, COMDAT
; _this$ = ecx

; 506  :   template <class _InputIter> _Self& append(_InputIter __first, _InputIter __last) {

  00000	55		 push	 ebp
  00001	8b ec		 mov	 ebp, esp

; 507  :     typedef typename _Is_integer<_InputIter>::_Integral _Integral;
; 508  :     return _M_append_dispatch(__first, __last, _Integral());

  00003	8d 45 0f	 lea	 eax, DWORD PTR $T102638[ebp]
  00006	50		 push	 eax
  00007	ff 75 0c	 push	 DWORD PTR ___last$[ebp]
  0000a	ff 75 08	 push	 DWORD PTR ___first$[ebp]
  0000d	e8 00 00 00 00	 call	 ??$append@PAD@?$basic_string@DV?$char_traits@D@_STL@@V?$allocator@D@2@@_STL@@AAEAAV01@PAD0ABUforward_iterator_tag@1@@Z ; _STL::basic_string<char,_STL::char_traits<char>,_STL::allocator<char> >::append<char *>

; 509  :   }

  00012	5d		 pop	 ebp
  00013	c2 08 00	 ret	 8
??$append@PAD@?$basic_string@DV?$char_traits@D@_STL@@V?$allocator@D@2@@_STL@@QAEAAV01@PAD0@Z ENDP ; _STL::basic_string<char,_STL::char_traits<char>,_STL::allocator<char> >::append<char *>
_TEXT	ENDS
PUBLIC	??1WAR_INFO@@QAE@XZ				; WAR_INFO::~WAR_INFO
EXTRN	__EH_prolog:NEAR
EXTRN	__except_list:DWORD
EXTRN	___CxxFrameHandler:NEAR
;	COMDAT xdata$x
xdata$x	SEGMENT
$T102741 DD	0ffffffffH
	DD	FLAT:$L102641
	DD	00H
	DD	FLAT:$L102642
$T102737 DD	019930520H
	DD	02H
	DD	FLAT:$T102741
	DD	2 DUP(00H)
	DD	2 DUP(00H)
; Function compile flags: /Ogsy
xdata$x	ENDS
;	COMDAT ??1WAR_INFO@@QAE@XZ
_TEXT	SEGMENT
_this$ = -16						; size = 4
__$EHRec$ = -12						; size = 12
??1WAR_INFO@@QAE@XZ PROC NEAR				; WAR_INFO::~WAR_INFO, COMDAT
; _this$ = ecx
  00000	b8 00 00 00 00	 mov	 eax, __ehhandler$??1WAR_INFO@@QAE@XZ
  00005	e8 00 00 00 00	 call	 __EH_prolog
  0000a	51		 push	 ecx
  0000b	56		 push	 esi
  0000c	8b f1		 mov	 esi, ecx
  0000e	89 75 f0	 mov	 DWORD PTR _this$[ebp], esi
  00011	8d 4e 18	 lea	 ecx, DWORD PTR [esi+24]
  00014	c7 45 fc 01 00
	00 00		 mov	 DWORD PTR __$EHRec$[ebp+8], 1
  0001b	e8 00 00 00 00	 call	 ?_M_deallocate_block@?$_String_base@DV?$allocator@D@_STL@@@_STL@@QAEXXZ ; _STL::_String_base<char,_STL::allocator<char> >::_M_deallocate_block
  00020	8d 4e 0c	 lea	 ecx, DWORD PTR [esi+12]
  00023	c6 45 fc 00	 mov	 BYTE PTR __$EHRec$[ebp+8], 0
  00027	e8 00 00 00 00	 call	 ?_M_deallocate_block@?$_String_base@DV?$allocator@D@_STL@@@_STL@@QAEXXZ ; _STL::_String_base<char,_STL::allocator<char> >::_M_deallocate_block
  0002c	83 4d fc ff	 or	 DWORD PTR __$EHRec$[ebp+8], -1
  00030	8b ce		 mov	 ecx, esi
  00032	e8 00 00 00 00	 call	 ?_M_deallocate_block@?$_String_base@DV?$allocator@D@_STL@@@_STL@@QAEXXZ ; _STL::_String_base<char,_STL::allocator<char> >::_M_deallocate_block
  00037	8b 4d f4	 mov	 ecx, DWORD PTR __$EHRec$[ebp]
  0003a	5e		 pop	 esi
  0003b	64 89 0d 00 00
	00 00		 mov	 DWORD PTR fs:__except_list, ecx
  00042	c9		 leave
  00043	c3		 ret	 0
_TEXT	ENDS
;	COMDAT text$x
text$x	SEGMENT
$L102641:
  00000	8b 4d f0	 mov	 ecx, DWORD PTR _this$[ebp]
  00003	e9 00 00 00 00	 jmp	 ??1?$basic_string@DV?$char_traits@D@_STL@@V?$allocator@D@2@@_STL@@QAE@XZ ; _STL::basic_string<char,_STL::char_traits<char>,_STL::allocator<char> >::~basic_string<char,_STL::char_traits<char>,_STL::allocator<char> >
$L102642:
  00008	8b 4d f0	 mov	 ecx, DWORD PTR _this$[ebp]
  0000b	83 c1 0c	 add	 ecx, 12			; 0000000cH
  0000e	e9 00 00 00 00	 jmp	 ??1?$basic_string@DV?$char_traits@D@_STL@@V?$allocator@D@2@@_STL@@QAE@XZ ; _STL::basic_string<char,_STL::char_traits<char>,_STL::allocator<char> >::~basic_string<char,_STL::char_traits<char>,_STL::allocator<char> >
__ehhandler$??1WAR_INFO@@QAE@XZ:
  00013	b8 00 00 00 00	 mov	 eax, OFFSET FLAT:$T102737
  00018	e9 00 00 00 00	 jmp	 ___CxxFrameHandler
text$x	ENDS
??1WAR_INFO@@QAE@XZ ENDP				; WAR_INFO::~WAR_INFO
PUBLIC	??$_M_assign_dispatch@PAD@?$basic_string@DV?$char_traits@D@_STL@@V?$allocator@D@2@@_STL@@AAEAAV01@PAD0ABU__false_type@1@@Z ; _STL::basic_string<char,_STL::char_traits<char>,_STL::allocator<char> >::_M_assign_dispatch<char *>
; Function compile flags: /Ogsy
;	COMDAT ??$_M_assign_dispatch@PAD@?$basic_string@DV?$char_traits@D@_STL@@V?$allocator@D@2@@_STL@@AAEAAV01@PAD0ABU__false_type@1@@Z
_TEXT	SEGMENT
___f$ = 8						; size = 4
$T102766 = 11						; size = 1
___l$ = 12						; size = 4
___formal$ = 16						; size = 4
??$_M_assign_dispatch@PAD@?$basic_string@DV?$char_traits@D@_STL@@V?$allocator@D@2@@_STL@@AAEAAV01@PAD0ABU__false_type@1@@Z PROC NEAR ; _STL::basic_string<char,_STL::char_traits<char>,_STL::allocator<char> >::_M_assign_dispatch<char *>, COMDAT
; _this$ = ecx

; 624  :   _Self& _M_assign_dispatch(_InputIter __f, _InputIter __l,

  00000	55		 push	 ebp
  00001	8b ec		 mov	 ebp, esp
  00003	56		 push	 esi
  00004	8b f1		 mov	 esi, ecx

; 625  : 			    const __false_type&)  {
; 626  :     pointer __cur = this->_M_start;
; 627  :     while (__f != __l && __cur != this->_M_finish) {

  00006	8b 4d 08	 mov	 ecx, DWORD PTR ___f$[ebp]
  00009	8b 06		 mov	 eax, DWORD PTR [esi]
  0000b	57		 push	 edi
  0000c	8b 7d 0c	 mov	 edi, DWORD PTR ___l$[ebp]
  0000f	3b cf		 cmp	 ecx, edi
  00011	74 13		 je	 SHORT $L102769
$L101319:
  00013	3b 46 04	 cmp	 eax, DWORD PTR [esi+4]
  00016	74 0a		 je	 SHORT $L101320

; 628  :       _Traits::assign(*__cur, *__f);

  00018	8a 11		 mov	 dl, BYTE PTR [ecx]

; 629  :       ++__f;

  0001a	41		 inc	 ecx
  0001b	88 10		 mov	 BYTE PTR [eax], dl

; 630  :       ++__cur;

  0001d	40		 inc	 eax
  0001e	3b cf		 cmp	 ecx, edi
  00020	75 f1		 jne	 SHORT $L101319
$L101320:

; 631  :     }
; 632  :     if (__f == __l)

  00022	3b cf		 cmp	 ecx, edi
  00024	75 0d		 jne	 SHORT $L101321
$L102769:

; 633  :       erase(__cur, end());

  00026	ff 76 04	 push	 DWORD PTR [esi+4]
  00029	8b ce		 mov	 ecx, esi
  0002b	50		 push	 eax
  0002c	e8 00 00 00 00	 call	 ?erase@?$basic_string@DV?$char_traits@D@_STL@@V?$allocator@D@2@@_STL@@QAEPADPAD0@Z ; _STL::basic_string<char,_STL::char_traits<char>,_STL::allocator<char> >::erase

; 634  :     else

  00031	eb 0d		 jmp	 SHORT $L102761
$L101321:

; 635  :       append(__f, __l);

  00033	8d 45 0b	 lea	 eax, DWORD PTR $T102766[ebp]
  00036	50		 push	 eax
  00037	57		 push	 edi
  00038	51		 push	 ecx
  00039	8b ce		 mov	 ecx, esi
  0003b	e8 00 00 00 00	 call	 ??$append@PAD@?$basic_string@DV?$char_traits@D@_STL@@V?$allocator@D@2@@_STL@@AAEAAV01@PAD0ABUforward_iterator_tag@1@@Z ; _STL::basic_string<char,_STL::char_traits<char>,_STL::allocator<char> >::append<char *>
$L102761:
  00040	5f		 pop	 edi

; 636  :     return *this;

  00041	8b c6		 mov	 eax, esi
  00043	5e		 pop	 esi

; 637  :   }

  00044	5d		 pop	 ebp
  00045	c2 0c 00	 ret	 12			; 0000000cH
??$_M_assign_dispatch@PAD@?$basic_string@DV?$char_traits@D@_STL@@V?$allocator@D@2@@_STL@@AAEAAV01@PAD0ABU__false_type@1@@Z ENDP ; _STL::basic_string<char,_STL::char_traits<char>,_STL::allocator<char> >::_M_assign_dispatch<char *>
_TEXT	ENDS
PUBLIC	??_GWAR_INFO@@QAEPAXI@Z				; WAR_INFO::`scalar deleting destructor'
; Function compile flags: /Ogsy
;	COMDAT ??_GWAR_INFO@@QAEPAXI@Z
_TEXT	SEGMENT
___flags$ = 8						; size = 4
??_GWAR_INFO@@QAEPAXI@Z PROC NEAR			; WAR_INFO::`scalar deleting destructor', COMDAT
; _this$ = ecx
  00000	56		 push	 esi
  00001	8b f1		 mov	 esi, ecx
  00003	e8 00 00 00 00	 call	 ??1WAR_INFO@@QAE@XZ
  00008	f6 44 24 08 01	 test	 BYTE PTR ___flags$[esp], 1
  0000d	74 07		 je	 SHORT $L101705
  0000f	56		 push	 esi
  00010	e8 00 00 00 00	 call	 ??3@YAXPAX@Z		; operator delete
  00015	59		 pop	 ecx
$L101705:
  00016	8b c6		 mov	 eax, esi
  00018	5e		 pop	 esi
  00019	c2 04 00	 ret	 4
??_GWAR_INFO@@QAEPAXI@Z ENDP				; WAR_INFO::`scalar deleting destructor'
_TEXT	ENDS
PUBLIC	??$assign@PAD@?$basic_string@DV?$char_traits@D@_STL@@V?$allocator@D@2@@_STL@@QAEAAV01@PAD0@Z ; _STL::basic_string<char,_STL::char_traits<char>,_STL::allocator<char> >::assign<char *>
; Function compile flags: /Ogsy
;	COMDAT ??$assign@PAD@?$basic_string@DV?$char_traits@D@_STL@@V?$allocator@D@2@@_STL@@QAEAAV01@PAD0@Z
_TEXT	SEGMENT
___first$ = 8						; size = 4
___last$ = 12						; size = 4
$T102775 = 15						; size = 1
??$assign@PAD@?$basic_string@DV?$char_traits@D@_STL@@V?$allocator@D@2@@_STL@@QAEAAV01@PAD0@Z PROC NEAR ; _STL::basic_string<char,_STL::char_traits<char>,_STL::allocator<char> >::assign<char *>, COMDAT
; _this$ = ecx

; 642  :   template <class _InputIter> _Self& assign(_InputIter __first, _InputIter __last) {

  00000	55		 push	 ebp
  00001	8b ec		 mov	 ebp, esp

; 643  :     typedef typename _Is_integer<_InputIter>::_Integral _Integral;
; 644  :     return _M_assign_dispatch(__first, __last, _Integral());

  00003	8d 45 0f	 lea	 eax, DWORD PTR $T102775[ebp]
  00006	50		 push	 eax
  00007	ff 75 0c	 push	 DWORD PTR ___last$[ebp]
  0000a	ff 75 08	 push	 DWORD PTR ___first$[ebp]
  0000d	e8 00 00 00 00	 call	 ??$_M_assign_dispatch@PAD@?$basic_string@DV?$char_traits@D@_STL@@V?$allocator@D@2@@_STL@@AAEAAV01@PAD0ABU__false_type@1@@Z ; _STL::basic_string<char,_STL::char_traits<char>,_STL::allocator<char> >::_M_assign_dispatch<char *>

; 645  :   }

  00012	5d		 pop	 ebp
  00013	c2 08 00	 ret	 8
??$assign@PAD@?$basic_string@DV?$char_traits@D@_STL@@V?$allocator@D@2@@_STL@@QAEAAV01@PAD0@Z ENDP ; _STL::basic_string<char,_STL::char_traits<char>,_STL::allocator<char> >::assign<char *>
_TEXT	ENDS
PUBLIC	??$_Destroy@UWAR_INFO@@@_STL@@YAXPAUWAR_INFO@@@Z ; _STL::_Destroy<WAR_INFO>
; Function compile flags: /Ogsy
; File c:\stlport-4.6.1\stlport\stl\_construct.h
;	COMDAT ??$_Destroy@UWAR_INFO@@@_STL@@YAXPAUWAR_INFO@@@Z
_TEXT	SEGMENT
___pointer$ = 8						; size = 4
??$_Destroy@UWAR_INFO@@@_STL@@YAXPAUWAR_INFO@@@Z PROC NEAR ; _STL::_Destroy<WAR_INFO>, COMDAT

; 57   : # if _MSC_VER >= 1010
; 58   :   __pointer;
; 59   : # endif	// _MSC_VER >= 1000
; 60   : # ifdef _STLP_TRIVIAL_DESTRUCTOR_BUG
; 61   :   typedef typename __type_traits<_Tp>::has_trivial_destructor _Trivial_destructor;
; 62   :   __destroy_aux(__pointer, _Trivial_destructor());
; 63   : # else
; 64   : #  if ( defined (__BORLANDC__) && ( __BORLANDC__ < 0x500 ) )
; 65   :     __pointer->_Tp::~_Tp();
; 66   : #  else
; 67   :     __pointer->~_Tp();

  00000	8b 4c 24 04	 mov	 ecx, DWORD PTR ___pointer$[esp-4]
  00004	e9 00 00 00 00	 jmp	 ??1WAR_INFO@@QAE@XZ
??$_Destroy@UWAR_INFO@@@_STL@@YAXPAUWAR_INFO@@@Z ENDP	; _STL::_Destroy<WAR_INFO>
_TEXT	ENDS
PUBLIC	??4?$basic_string@DV?$char_traits@D@_STL@@V?$allocator@D@2@@_STL@@QAEAAV01@ABV01@@Z ; _STL::basic_string<char,_STL::char_traits<char>,_STL::allocator<char> >::operator=
; Function compile flags: /Ogsy
; File c:\stlport-4.6.1\stlport\stl\_string.h
;	COMDAT ??4?$basic_string@DV?$char_traits@D@_STL@@V?$allocator@D@2@@_STL@@QAEAAV01@ABV01@@Z
_TEXT	SEGMENT
___s$ = 8						; size = 4
$T102788 = 11						; size = 1
??4?$basic_string@DV?$char_traits@D@_STL@@V?$allocator@D@2@@_STL@@QAEAAV01@ABV01@@Z PROC NEAR ; _STL::basic_string<char,_STL::char_traits<char>,_STL::allocator<char> >::operator=, COMDAT
; _this$ = ecx

; 307  :   _Self& operator=(const _Self& __s) {

  00000	55		 push	 ebp
  00001	8b ec		 mov	 ebp, esp

; 308  :     if (&__s != this) 

  00003	8b 45 08	 mov	 eax, DWORD PTR ___s$[ebp]
  00006	56		 push	 esi
  00007	8b f1		 mov	 esi, ecx
  00009	3b c6		 cmp	 eax, esi
  0000b	74 10		 je	 SHORT $L102789

; 309  :       assign(__s._M_start, __s._M_finish);

  0000d	8d 4d 0b	 lea	 ecx, DWORD PTR $T102788[ebp]
  00010	51		 push	 ecx
  00011	ff 70 04	 push	 DWORD PTR [eax+4]
  00014	8b ce		 mov	 ecx, esi
  00016	ff 30		 push	 DWORD PTR [eax]
  00018	e8 00 00 00 00	 call	 ??$_M_assign_dispatch@PAD@?$basic_string@DV?$char_traits@D@_STL@@V?$allocator@D@2@@_STL@@AAEAAV01@PAD0ABU__false_type@1@@Z ; _STL::basic_string<char,_STL::char_traits<char>,_STL::allocator<char> >::_M_assign_dispatch<char *>
$L102789:

; 310  :     return *this;

  0001d	8b c6		 mov	 eax, esi
  0001f	5e		 pop	 esi

; 311  :   }

  00020	5d		 pop	 ebp
  00021	c2 04 00	 ret	 4
??4?$basic_string@DV?$char_traits@D@_STL@@V?$allocator@D@2@@_STL@@QAEAAV01@ABV01@@Z ENDP ; _STL::basic_string<char,_STL::char_traits<char>,_STL::allocator<char> >::operator=
_TEXT	ENDS
PUBLIC	??4WAR_INFO@@QAEAAU0@ABU0@@Z			; WAR_INFO::operator=
; Function compile flags: /Ogsy
;	COMDAT ??4WAR_INFO@@QAEAAU0@ABU0@@Z
_TEXT	SEGMENT
___that$ = 8						; size = 4
??4WAR_INFO@@QAEAAU0@ABU0@@Z PROC NEAR			; WAR_INFO::operator=, COMDAT
; _this$ = ecx
  00000	56		 push	 esi
  00001	57		 push	 edi
  00002	8b 7c 24 0c	 mov	 edi, DWORD PTR ___that$[esp+4]
  00006	57		 push	 edi
  00007	8b f1		 mov	 esi, ecx
  00009	e8 00 00 00 00	 call	 ??4?$basic_string@DV?$char_traits@D@_STL@@V?$allocator@D@2@@_STL@@QAEAAV01@ABV01@@Z ; _STL::basic_string<char,_STL::char_traits<char>,_STL::allocator<char> >::operator=
  0000e	8d 47 0c	 lea	 eax, DWORD PTR [edi+12]
  00011	50		 push	 eax
  00012	8d 4e 0c	 lea	 ecx, DWORD PTR [esi+12]
  00015	e8 00 00 00 00	 call	 ??4?$basic_string@DV?$char_traits@D@_STL@@V?$allocator@D@2@@_STL@@QAEAAV01@ABV01@@Z ; _STL::basic_string<char,_STL::char_traits<char>,_STL::allocator<char> >::operator=
  0001a	8d 47 18	 lea	 eax, DWORD PTR [edi+24]
  0001d	50		 push	 eax
  0001e	8d 4e 18	 lea	 ecx, DWORD PTR [esi+24]
  00021	e8 00 00 00 00	 call	 ??4?$basic_string@DV?$char_traits@D@_STL@@V?$allocator@D@2@@_STL@@QAEAAV01@ABV01@@Z ; _STL::basic_string<char,_STL::char_traits<char>,_STL::allocator<char> >::operator=
  00026	66 8b 47 24	 mov	 ax, WORD PTR [edi+36]
  0002a	66 89 46 24	 mov	 WORD PTR [esi+36], ax
  0002e	8b 47 28	 mov	 eax, DWORD PTR [edi+40]
  00031	89 46 28	 mov	 DWORD PTR [esi+40], eax
  00034	8a 47 2c	 mov	 al, BYTE PTR [edi+44]
  00037	88 46 2c	 mov	 BYTE PTR [esi+44], al
  0003a	5f		 pop	 edi
  0003b	8b c6		 mov	 eax, esi
  0003d	5e		 pop	 esi
  0003e	c2 04 00	 ret	 4
??4WAR_INFO@@QAEAAU0@ABU0@@Z ENDP			; WAR_INFO::operator=
_TEXT	ENDS
PUBLIC	??$__destroy_aux@PAUWAR_INFO@@@_STL@@YAXPAUWAR_INFO@@0ABU__false_type@0@@Z ; _STL::__destroy_aux<WAR_INFO *>
; Function compile flags: /Ogsy
; File c:\stlport-4.6.1\stlport\stl\_construct.h
;	COMDAT ??$__destroy_aux@PAUWAR_INFO@@@_STL@@YAXPAUWAR_INFO@@0ABU__false_type@0@@Z
_TEXT	SEGMENT
___first$ = 8						; size = 4
___last$ = 12						; size = 4
___formal$ = 16						; size = 4
??$__destroy_aux@PAUWAR_INFO@@@_STL@@YAXPAUWAR_INFO@@0ABU__false_type@0@@Z PROC NEAR ; _STL::__destroy_aux<WAR_INFO *>, COMDAT

; 122  : __destroy_aux(_ForwardIterator __first, _ForwardIterator __last, const __false_type&) {

  00000	56		 push	 esi

; 123  :   for ( ; __first != __last; ++__first)

  00001	8b 74 24 08	 mov	 esi, DWORD PTR ___first$[esp]
  00005	eb 0a		 jmp	 SHORT $L102810
$L101600:

; 124  :     _STLP_STD::_Destroy(&*__first);

  00007	8b ce		 mov	 ecx, esi
  00009	e8 00 00 00 00	 call	 ??1WAR_INFO@@QAE@XZ
  0000e	83 c6 30	 add	 esi, 48			; 00000030H
$L102810:

; 123  :   for ( ; __first != __last; ++__first)

  00011	3b 74 24 0c	 cmp	 esi, DWORD PTR ___last$[esp]
  00015	75 f0		 jne	 SHORT $L101600
  00017	5e		 pop	 esi

; 125  : }

  00018	c3		 ret	 0
??$__destroy_aux@PAUWAR_INFO@@@_STL@@YAXPAUWAR_INFO@@0ABU__false_type@0@@Z ENDP ; _STL::__destroy_aux<WAR_INFO *>
_TEXT	ENDS
PUBLIC	??$__destroy@PAUWAR_INFO@@U1@@_STL@@YAXPAUWAR_INFO@@00@Z ; _STL::__destroy<WAR_INFO *,WAR_INFO>
; Function compile flags: /Ogsy
;	COMDAT ??$__destroy@PAUWAR_INFO@@U1@@_STL@@YAXPAUWAR_INFO@@00@Z
_TEXT	SEGMENT
___first$ = 8						; size = 4
___last$ = 12						; size = 4
___formal$ = 16						; size = 4
??$__destroy@PAUWAR_INFO@@U1@@_STL@@YAXPAUWAR_INFO@@00@Z PROC NEAR ; _STL::__destroy<WAR_INFO *,WAR_INFO>, COMDAT

; 132  : __destroy(_ForwardIterator __first, _ForwardIterator __last, _Tp*) {

  00000	56		 push	 esi

; 133  :   typedef typename __type_traits<_Tp>::has_trivial_destructor _Trivial_destructor;
; 134  :   __destroy_aux(__first, __last, _Trivial_destructor());

  00001	8b 74 24 08	 mov	 esi, DWORD PTR ___first$[esp]
  00005	eb 0a		 jmp	 SHORT $L102839
$L102827:
  00007	8b ce		 mov	 ecx, esi
  00009	e8 00 00 00 00	 call	 ??1WAR_INFO@@QAE@XZ
  0000e	83 c6 30	 add	 esi, 48			; 00000030H
$L102839:
  00011	3b 74 24 0c	 cmp	 esi, DWORD PTR ___last$[esp]
  00015	75 f0		 jne	 SHORT $L102827
  00017	5e		 pop	 esi

; 135  : }

  00018	c3		 ret	 0
??$__destroy@PAUWAR_INFO@@U1@@_STL@@YAXPAUWAR_INFO@@00@Z ENDP ; _STL::__destroy<WAR_INFO *,WAR_INFO>
_TEXT	ENDS
PUBLIC	??$__copy@PAUWAR_INFO@@PAU1@H@_STL@@YAPAUWAR_INFO@@PAU1@00ABUrandom_access_iterator_tag@0@PAH@Z ; _STL::__copy<WAR_INFO *,WAR_INFO *,int>
; Function compile flags: /Ogsy
; File c:\stlport-4.6.1\stlport\stl\_algobase.h
;	COMDAT ??$__copy@PAUWAR_INFO@@PAU1@H@_STL@@YAPAUWAR_INFO@@PAU1@00ABUrandom_access_iterator_tag@0@PAH@Z
_TEXT	SEGMENT
___first$ = 8						; size = 4
___last$ = 12						; size = 4
___result$ = 16						; size = 4
___formal$ = 20						; size = 4
___formal$ = 24						; size = 4
??$__copy@PAUWAR_INFO@@PAU1@H@_STL@@YAPAUWAR_INFO@@PAU1@00ABUrandom_access_iterator_tag@0@PAH@Z PROC NEAR ; _STL::__copy<WAR_INFO *,WAR_INFO *,int>, COMDAT

; 137  :        _OutputIter __result, const random_access_iterator_tag &, _Distance*) {

  00000	55		 push	 ebp
  00001	8b ec		 mov	 ebp, esp

; 138  :   for (_Distance __n = __last - __first; __n > 0; --__n) {

  00003	8b 45 0c	 mov	 eax, DWORD PTR ___last$[ebp]
  00006	2b 45 08	 sub	 eax, DWORD PTR ___first$[ebp]
  00009	6a 30		 push	 48			; 00000030H
  0000b	99		 cdq
  0000c	59		 pop	 ecx
  0000d	f7 f9		 idiv	 ecx
  0000f	85 c0		 test	 eax, eax
  00011	7e 1a		 jle	 SHORT $L102845
  00013	56		 push	 esi
  00014	8b f0		 mov	 esi, eax
$L101526:

; 139  :     *__result = *__first;

  00016	ff 75 08	 push	 DWORD PTR ___first$[ebp]
  00019	8b 4d 10	 mov	 ecx, DWORD PTR ___result$[ebp]
  0001c	e8 00 00 00 00	 call	 ??4WAR_INFO@@QAEAAU0@ABU0@@Z

; 140  :     ++__first;

  00021	83 45 08 30	 add	 DWORD PTR ___first$[ebp], 48 ; 00000030H

; 141  :     ++__result;

  00025	83 45 10 30	 add	 DWORD PTR ___result$[ebp], 48 ; 00000030H
  00029	4e		 dec	 esi
  0002a	75 ea		 jne	 SHORT $L101526
  0002c	5e		 pop	 esi
$L102845:

; 142  :   }
; 143  :   return __result;

  0002d	8b 45 10	 mov	 eax, DWORD PTR ___result$[ebp]

; 144  : }

  00030	5d		 pop	 ebp
  00031	c3		 ret	 0
??$__copy@PAUWAR_INFO@@PAU1@H@_STL@@YAPAUWAR_INFO@@PAU1@00ABUrandom_access_iterator_tag@0@PAH@Z ENDP ; _STL::__copy<WAR_INFO *,WAR_INFO *,int>
_TEXT	ENDS
PUBLIC	??$_Destroy@PAUWAR_INFO@@@_STL@@YAXPAUWAR_INFO@@0@Z ; _STL::_Destroy<WAR_INFO *>
; Function compile flags: /Ogsy
; File c:\stlport-4.6.1\stlport\stl\_construct.h
;	COMDAT ??$_Destroy@PAUWAR_INFO@@@_STL@@YAXPAUWAR_INFO@@0@Z
_TEXT	SEGMENT
___first$ = 8						; size = 4
___last$ = 12						; size = 4
??$_Destroy@PAUWAR_INFO@@@_STL@@YAXPAUWAR_INFO@@0@Z PROC NEAR ; _STL::_Destroy<WAR_INFO *>, COMDAT

; 138  : inline void _Destroy(_ForwardIterator __first, _ForwardIterator __last) {

  00000	56		 push	 esi

; 139  :   __destroy(__first, __last, _STLP_VALUE_TYPE(__first, _ForwardIterator));

  00001	8b 74 24 08	 mov	 esi, DWORD PTR ___first$[esp]
  00005	eb 0a		 jmp	 SHORT $L102887
$L102876:
  00007	8b ce		 mov	 ecx, esi
  00009	e8 00 00 00 00	 call	 ??1WAR_INFO@@QAE@XZ
  0000e	83 c6 30	 add	 esi, 48			; 00000030H
$L102887:
  00011	3b 74 24 0c	 cmp	 esi, DWORD PTR ___last$[esp]
  00015	75 f0		 jne	 SHORT $L102876
  00017	5e		 pop	 esi

; 140  : }

  00018	c3		 ret	 0
??$_Destroy@PAUWAR_INFO@@@_STL@@YAXPAUWAR_INFO@@0@Z ENDP ; _STL::_Destroy<WAR_INFO *>
_TEXT	ENDS
PUBLIC	??$__copy_ptrs@PAUWAR_INFO@@PAU1@@_STL@@YAPAUWAR_INFO@@PAU1@00ABU__false_type@0@@Z ; _STL::__copy_ptrs<WAR_INFO *,WAR_INFO *>
; Function compile flags: /Ogsy
; File c:\stlport-4.6.1\stlport\stl\_algobase.h
;	COMDAT ??$__copy_ptrs@PAUWAR_INFO@@PAU1@@_STL@@YAPAUWAR_INFO@@PAU1@00ABU__false_type@0@@Z
_TEXT	SEGMENT
$T102891 = -1						; size = 1
___first$ = 8						; size = 4
___last$ = 12						; size = 4
___result$ = 16						; size = 4
___formal$ = 20						; size = 4
??$__copy_ptrs@PAUWAR_INFO@@PAU1@@_STL@@YAPAUWAR_INFO@@PAU1@00ABU__false_type@0@@Z PROC NEAR ; _STL::__copy_ptrs<WAR_INFO *,WAR_INFO *>, COMDAT

; 188  : inline _OutputIter __copy_ptrs(_InputIter __first, _InputIter __last, _OutputIter __result, const __false_type&) {

  00000	55		 push	 ebp
  00001	8b ec		 mov	 ebp, esp
  00003	51		 push	 ecx

; 189  :   return __copy(__first, __last, __result, 
; 190  :                 _STLP_ITERATOR_CATEGORY(__first, _InputIter), 
; 191  :                 _STLP_DISTANCE_TYPE(__first, _InputIter));

  00004	6a 00		 push	 0
  00006	8d 45 ff	 lea	 eax, DWORD PTR $T102891[ebp]
  00009	50		 push	 eax
  0000a	ff 75 10	 push	 DWORD PTR ___result$[ebp]
  0000d	ff 75 0c	 push	 DWORD PTR ___last$[ebp]
  00010	ff 75 08	 push	 DWORD PTR ___first$[ebp]
  00013	e8 00 00 00 00	 call	 ??$__copy@PAUWAR_INFO@@PAU1@H@_STL@@YAPAUWAR_INFO@@PAU1@00ABUrandom_access_iterator_tag@0@PAH@Z ; _STL::__copy<WAR_INFO *,WAR_INFO *,int>
  00018	83 c4 14	 add	 esp, 20			; 00000014H

; 192  : }

  0001b	c9		 leave
  0001c	c3		 ret	 0
??$__copy_ptrs@PAUWAR_INFO@@PAU1@@_STL@@YAPAUWAR_INFO@@PAU1@00ABU__false_type@0@@Z ENDP ; _STL::__copy_ptrs<WAR_INFO *,WAR_INFO *>
_TEXT	ENDS
PUBLIC	??1?$vector@UWAR_INFO@@V?$allocator@UWAR_INFO@@@_STL@@@_STL@@QAE@XZ ; _STL::vector<WAR_INFO,_STL::allocator<WAR_INFO> >::~vector<WAR_INFO,_STL::allocator<WAR_INFO> >
;	COMDAT xdata$x
; File c:\stlport-4.6.1\stlport\stl\_vector.h
xdata$x	SEGMENT
$T102898 DD	0ffffffffH
	DD	FLAT:$L102894
$T102896 DD	019930520H
	DD	01H
	DD	FLAT:$T102898
	DD	2 DUP(00H)
	DD	2 DUP(00H)
; Function compile flags: /Ogsy
xdata$x	ENDS
;	COMDAT ??1?$vector@UWAR_INFO@@V?$allocator@UWAR_INFO@@@_STL@@@_STL@@QAE@XZ
_TEXT	SEGMENT
_this$ = -16						; size = 4
__$EHRec$ = -12						; size = 12
??1?$vector@UWAR_INFO@@V?$allocator@UWAR_INFO@@@_STL@@@_STL@@QAE@XZ PROC NEAR ; _STL::vector<WAR_INFO,_STL::allocator<WAR_INFO> >::~vector<WAR_INFO,_STL::allocator<WAR_INFO> >, COMDAT
; _this$ = ecx

; 258  :   ~vector() { _Destroy(this->_M_start, this->_M_finish); }

  00000	b8 00 00 00 00	 mov	 eax, __ehhandler$??1?$vector@UWAR_INFO@@V?$allocator@UWAR_INFO@@@_STL@@@_STL@@QAE@XZ
  00005	e8 00 00 00 00	 call	 __EH_prolog
  0000a	51		 push	 ecx
  0000b	56		 push	 esi
  0000c	8b f1		 mov	 esi, ecx
  0000e	89 75 f0	 mov	 DWORD PTR _this$[ebp], esi
  00011	ff 76 04	 push	 DWORD PTR [esi+4]
  00014	83 65 fc 00	 and	 DWORD PTR __$EHRec$[ebp+8], 0
  00018	ff 36		 push	 DWORD PTR [esi]
  0001a	e8 00 00 00 00	 call	 ??$_Destroy@PAUWAR_INFO@@@_STL@@YAXPAUWAR_INFO@@0@Z ; _STL::_Destroy<WAR_INFO *>
  0001f	83 4d fc ff	 or	 DWORD PTR __$EHRec$[ebp+8], -1
  00023	59		 pop	 ecx
  00024	59		 pop	 ecx
  00025	8b ce		 mov	 ecx, esi
  00027	e8 00 00 00 00	 call	 ??1?$_Vector_base@UWAR_INFO@@V?$allocator@UWAR_INFO@@@_STL@@@_STL@@QAE@XZ ; _STL::_Vector_base<WAR_INFO,_STL::allocator<WAR_INFO> >::~_Vector_base<WAR_INFO,_STL::allocator<WAR_INFO> >
  0002c	8b 4d f4	 mov	 ecx, DWORD PTR __$EHRec$[ebp]
  0002f	5e		 pop	 esi
  00030	64 89 0d 00 00
	00 00		 mov	 DWORD PTR fs:__except_list, ecx
  00037	c9		 leave
  00038	c3		 ret	 0
_TEXT	ENDS
;	COMDAT text$x
text$x	SEGMENT
$L102894:
  00000	8b 4d f0	 mov	 ecx, DWORD PTR _this$[ebp]
  00003	e9 00 00 00 00	 jmp	 ??1?$_Vector_base@UWAR_INFO@@V?$allocator@UWAR_INFO@@@_STL@@@_STL@@QAE@XZ ; _STL::_Vector_base<WAR_INFO,_STL::allocator<WAR_INFO> >::~_Vector_base<WAR_INFO,_STL::allocator<WAR_INFO> >
__ehhandler$??1?$vector@UWAR_INFO@@V?$allocator@UWAR_INFO@@@_STL@@@_STL@@QAE@XZ:
  00008	b8 00 00 00 00	 mov	 eax, OFFSET FLAT:$T102896
  0000d	e9 00 00 00 00	 jmp	 ___CxxFrameHandler
text$x	ENDS
??1?$vector@UWAR_INFO@@V?$allocator@UWAR_INFO@@@_STL@@@_STL@@QAE@XZ ENDP ; _STL::vector<WAR_INFO,_STL::allocator<WAR_INFO> >::~vector<WAR_INFO,_STL::allocator<WAR_INFO> >
PUBLIC	?erase@?$vector@UWAR_INFO@@V?$allocator@UWAR_INFO@@@_STL@@@_STL@@QAEPAUWAR_INFO@@PAU3@0@Z ; _STL::vector<WAR_INFO,_STL::allocator<WAR_INFO> >::erase
; Function compile flags: /Ogsy
;	COMDAT ?erase@?$vector@UWAR_INFO@@V?$allocator@UWAR_INFO@@@_STL@@@_STL@@QAEPAUWAR_INFO@@PAU3@0@Z
_TEXT	SEGMENT
___first$ = 8						; size = 4
$T102903 = 11						; size = 1
___last$ = 12						; size = 4
?erase@?$vector@UWAR_INFO@@V?$allocator@UWAR_INFO@@@_STL@@@_STL@@QAEPAUWAR_INFO@@PAU3@0@Z PROC NEAR ; _STL::vector<WAR_INFO,_STL::allocator<WAR_INFO> >::erase, COMDAT
; _this$ = ecx

; 473  :   iterator erase(iterator __first, iterator __last) {

  00000	55		 push	 ebp
  00001	8b ec		 mov	 ebp, esp
  00003	56		 push	 esi
  00004	57		 push	 edi

; 474  :     pointer __i = __copy_ptrs(__last, this->_M_finish, __first, _TrivialAss());

  00005	8d 45 0b	 lea	 eax, DWORD PTR $T102903[ebp]
  00008	50		 push	 eax
  00009	ff 75 08	 push	 DWORD PTR ___first$[ebp]
  0000c	8b f1		 mov	 esi, ecx
  0000e	ff 76 04	 push	 DWORD PTR [esi+4]
  00011	ff 75 0c	 push	 DWORD PTR ___last$[ebp]
  00014	e8 00 00 00 00	 call	 ??$__copy_ptrs@PAUWAR_INFO@@PAU1@@_STL@@YAPAUWAR_INFO@@PAU1@00ABU__false_type@0@@Z ; _STL::__copy_ptrs<WAR_INFO *,WAR_INFO *>

; 475  :     _Destroy(__i, this->_M_finish);

  00019	ff 76 04	 push	 DWORD PTR [esi+4]
  0001c	8b f8		 mov	 edi, eax
  0001e	57		 push	 edi
  0001f	e8 00 00 00 00	 call	 ??$_Destroy@PAUWAR_INFO@@@_STL@@YAXPAUWAR_INFO@@0@Z ; _STL::_Destroy<WAR_INFO *>

; 476  :     this->_M_finish = __i;
; 477  :     return __first;

  00024	8b 45 08	 mov	 eax, DWORD PTR ___first$[ebp]
  00027	83 c4 18	 add	 esp, 24			; 00000018H
  0002a	89 7e 04	 mov	 DWORD PTR [esi+4], edi
  0002d	5f		 pop	 edi
  0002e	5e		 pop	 esi

; 478  :   }

  0002f	5d		 pop	 ebp
  00030	c2 08 00	 ret	 8
?erase@?$vector@UWAR_INFO@@V?$allocator@UWAR_INFO@@@_STL@@@_STL@@QAEPAUWAR_INFO@@PAU3@0@Z ENDP ; _STL::vector<WAR_INFO,_STL::allocator<WAR_INFO> >::erase
_TEXT	ENDS
PUBLIC	??1UserInformation@@QAE@XZ			; UserInformation::~UserInformation
EXTRN	??1MString@@UAE@XZ:NEAR				; MString::~MString
EXTRN	??_M@YGXPAXIHP6EX0@Z@Z:NEAR			; `eh vector destructor iterator'
;	COMDAT xdata$x
; File c:\darkeden\designed_common\project\client\bitattribute.h
xdata$x	SEGMENT
$T102923 DD	0ffffffffH
	DD	FLAT:$L102906
	DD	00H
	DD	FLAT:$L102907
	DD	01H
	DD	FLAT:$L102908
	DD	02H
	DD	FLAT:$L102909
	DD	03H
	DD	FLAT:$L102910
	DD	04H
	DD	FLAT:$L102911
	DD	05H
	DD	FLAT:$L102912
	DD	06H
	DD	FLAT:$L102913
	DD	07H
	DD	FLAT:$L102914
	DD	08H
	DD	FLAT:$L102915
$T102921 DD	019930520H
	DD	0aH
	DD	FLAT:$T102923
	DD	2 DUP(00H)
	DD	2 DUP(00H)
; Function compile flags: /Ogsy
; File c:\darkeden\designed_common\project\client\userinformation.cpp
xdata$x	ENDS
;	COMDAT ??1UserInformation@@QAE@XZ
_TEXT	SEGMENT
_this$ = -16						; size = 4
__$EHRec$ = -12						; size = 12
??1UserInformation@@QAE@XZ PROC NEAR			; UserInformation::~UserInformation, COMDAT
; _this$ = ecx

; 96   : {

  00000	b8 00 00 00 00	 mov	 eax, __ehhandler$??1UserInformation@@QAE@XZ
  00005	e8 00 00 00 00	 call	 __EH_prolog
  0000a	51		 push	 ecx
  0000b	56		 push	 esi
  0000c	8b f1		 mov	 esi, ecx
  0000e	57		 push	 edi
  0000f	89 75 f0	 mov	 DWORD PTR _this$[ebp], esi

; 97   : }

  00012	8d 8e 30 01 00
	00		 lea	 ecx, DWORD PTR [esi+304]
  00018	c7 45 fc 09 00
	00 00		 mov	 DWORD PTR __$EHRec$[ebp+8], 9
  0001f	e8 00 00 00 00	 call	 ??1MString@@UAE@XZ	; MString::~MString
  00024	8d 8e 18 01 00
	00		 lea	 ecx, DWORD PTR [esi+280]
  0002a	c6 45 fc 08	 mov	 BYTE PTR __$EHRec$[ebp+8], 8
  0002e	e8 00 00 00 00	 call	 ??1MString@@UAE@XZ	; MString::~MString
  00033	8d 8e 08 01 00
	00		 lea	 ecx, DWORD PTR [esi+264]
  00039	c6 45 fc 07	 mov	 BYTE PTR __$EHRec$[ebp+8], 7
  0003d	e8 00 00 00 00	 call	 ??1?$vector@UWAR_INFO@@V?$allocator@UWAR_INFO@@@_STL@@@_STL@@QAE@XZ ; _STL::vector<WAR_INFO,_STL::allocator<WAR_INFO> >::~vector<WAR_INFO,_STL::allocator<WAR_INFO> >
  00042	8d 8e f0 00 00
	00		 lea	 ecx, DWORD PTR [esi+240]
  00048	c6 45 fc 06	 mov	 BYTE PTR __$EHRec$[ebp+8], 6
  0004c	e8 00 00 00 00	 call	 ??1MString@@UAE@XZ	; MString::~MString
  00051	8d 8e e4 00 00
	00		 lea	 ecx, DWORD PTR [esi+228]
  00057	c6 45 fc 05	 mov	 BYTE PTR __$EHRec$[ebp+8], 5
  0005b	e8 00 00 00 00	 call	 ??1MString@@UAE@XZ	; MString::~MString
  00060	bf 00 00 00 00	 mov	 edi, OFFSET FLAT:??1MString@@UAE@XZ ; MString::~MString
  00065	57		 push	 edi
  00066	6a 03		 push	 3
  00068	6a 0c		 push	 12			; 0000000cH
  0006a	8d 86 84 00 00
	00		 lea	 eax, DWORD PTR [esi+132]
  00070	50		 push	 eax
  00071	c6 45 fc 04	 mov	 BYTE PTR __$EHRec$[ebp+8], 4
  00075	e8 00 00 00 00	 call	 ??_M@YGXPAXIHP6EX0@Z@Z
  0007a	8d 4e 78	 lea	 ecx, DWORD PTR [esi+120]
  0007d	c6 45 fc 03	 mov	 BYTE PTR __$EHRec$[ebp+8], 3
  00081	e8 00 00 00 00	 call	 ??1MString@@UAE@XZ	; MString::~MString
  00086	8d 4e 48	 lea	 ecx, DWORD PTR [esi+72]
  00089	c6 45 fc 02	 mov	 BYTE PTR __$EHRec$[ebp+8], 2
  0008d	e8 00 00 00 00	 call	 ??1MString@@UAE@XZ	; MString::~MString
  00092	8d 4e 3c	 lea	 ecx, DWORD PTR [esi+60]
  00095	c6 45 fc 01	 mov	 BYTE PTR __$EHRec$[ebp+8], 1
  00099	e8 00 00 00 00	 call	 ??1MString@@UAE@XZ	; MString::~MString
  0009e	57		 push	 edi
  0009f	6a 03		 push	 3
  000a1	6a 0c		 push	 12			; 0000000cH
  000a3	8d 46 0c	 lea	 eax, DWORD PTR [esi+12]
  000a6	50		 push	 eax
  000a7	c6 45 fc 00	 mov	 BYTE PTR __$EHRec$[ebp+8], 0
  000ab	e8 00 00 00 00	 call	 ??_M@YGXPAXIHP6EX0@Z@Z
  000b0	83 4d fc ff	 or	 DWORD PTR __$EHRec$[ebp+8], -1
  000b4	8b ce		 mov	 ecx, esi
  000b6	e8 00 00 00 00	 call	 ??1MString@@UAE@XZ	; MString::~MString
  000bb	8b 4d f4	 mov	 ecx, DWORD PTR __$EHRec$[ebp]
  000be	5f		 pop	 edi
  000bf	5e		 pop	 esi
  000c0	64 89 0d 00 00
	00 00		 mov	 DWORD PTR fs:__except_list, ecx
  000c7	c9		 leave
  000c8	c3		 ret	 0
_TEXT	ENDS
;	COMDAT text$x
text$x	SEGMENT
$L102906:
  00000	8b 4d f0	 mov	 ecx, DWORD PTR _this$[ebp]
  00003	e9 00 00 00 00	 jmp	 ??1MString@@UAE@XZ	; MString::~MString
$L102907:
  00008	68 00 00 00 00	 push	 OFFSET FLAT:??1MString@@UAE@XZ ; MString::~MString
  0000d	6a 03		 push	 3
  0000f	6a 0c		 push	 12			; 0000000cH
  00011	8b 45 f0	 mov	 eax, DWORD PTR _this$[ebp]
  00014	83 c0 0c	 add	 eax, 12			; 0000000cH
  00017	50		 push	 eax
  00018	e8 00 00 00 00	 call	 ??_M@YGXPAXIHP6EX0@Z@Z
  0001d	c3		 ret	 0
$L102908:
  0001e	8b 4d f0	 mov	 ecx, DWORD PTR _this$[ebp]
  00021	83 c1 3c	 add	 ecx, 60			; 0000003cH
  00024	e9 00 00 00 00	 jmp	 ??1MString@@UAE@XZ	; MString::~MString
$L102909:
  00029	8b 4d f0	 mov	 ecx, DWORD PTR _this$[ebp]
  0002c	83 c1 48	 add	 ecx, 72			; 00000048H
  0002f	e9 00 00 00 00	 jmp	 ??1MString@@UAE@XZ	; MString::~MString
$L102910:
  00034	8b 4d f0	 mov	 ecx, DWORD PTR _this$[ebp]
  00037	83 c1 78	 add	 ecx, 120		; 00000078H
  0003a	e9 00 00 00 00	 jmp	 ??1MString@@UAE@XZ	; MString::~MString
$L102911:
  0003f	68 00 00 00 00	 push	 OFFSET FLAT:??1MString@@UAE@XZ ; MString::~MString
  00044	6a 03		 push	 3
  00046	6a 0c		 push	 12			; 0000000cH
  00048	8b 45 f0	 mov	 eax, DWORD PTR _this$[ebp]
  0004b	05 84 00 00 00	 add	 eax, 132		; 00000084H
  00050	50		 push	 eax
  00051	e8 00 00 00 00	 call	 ??_M@YGXPAXIHP6EX0@Z@Z
  00056	c3		 ret	 0
$L102912:
  00057	8b 4d f0	 mov	 ecx, DWORD PTR _this$[ebp]
  0005a	81 c1 e4 00 00
	00		 add	 ecx, 228		; 000000e4H
  00060	e9 00 00 00 00	 jmp	 ??1MString@@UAE@XZ	; MString::~MString
$L102913:
  00065	8b 4d f0	 mov	 ecx, DWORD PTR _this$[ebp]
  00068	81 c1 f0 00 00
	00		 add	 ecx, 240		; 000000f0H
  0006e	e9 00 00 00 00	 jmp	 ??1MString@@UAE@XZ	; MString::~MString
$L102914:
  00073	8b 4d f0	 mov	 ecx, DWORD PTR _this$[ebp]
  00076	81 c1 08 01 00
	00		 add	 ecx, 264		; 00000108H
  0007c	e9 00 00 00 00	 jmp	 ??1?$vector@UWAR_INFO@@V?$allocator@UWAR_INFO@@@_STL@@@_STL@@QAE@XZ ; _STL::vector<WAR_INFO,_STL::allocator<WAR_INFO> >::~vector<WAR_INFO,_STL::allocator<WAR_INFO> >
$L102915:
  00081	8b 4d f0	 mov	 ecx, DWORD PTR _this$[ebp]
  00084	81 c1 18 01 00
	00		 add	 ecx, 280		; 00000118H
  0008a	e9 00 00 00 00	 jmp	 ??1MString@@UAE@XZ	; MString::~MString
__ehhandler$??1UserInformation@@QAE@XZ:
  0008f	b8 00 00 00 00	 mov	 eax, OFFSET FLAT:$T102921
  00094	e9 00 00 00 00	 jmp	 ___CxxFrameHandler
text$x	ENDS
??1UserInformation@@QAE@XZ ENDP				; UserInformation::~UserInformation
PUBLIC	?clear@?$vector@UWAR_INFO@@V?$allocator@UWAR_INFO@@@_STL@@@_STL@@QAEXXZ ; _STL::vector<WAR_INFO,_STL::allocator<WAR_INFO> >::clear
; Function compile flags: /Ogsy
; File c:\stlport-4.6.1\stlport\stl\_vector.h
;	COMDAT ?clear@?$vector@UWAR_INFO@@V?$allocator@UWAR_INFO@@@_STL@@@_STL@@QAEXXZ
_TEXT	SEGMENT
?clear@?$vector@UWAR_INFO@@V?$allocator@UWAR_INFO@@@_STL@@@_STL@@QAEXXZ PROC NEAR ; _STL::vector<WAR_INFO,_STL::allocator<WAR_INFO> >::clear, COMDAT
; _this$ = ecx

; 488  :     erase(begin(), end());

  00000	ff 71 04	 push	 DWORD PTR [ecx+4]
  00003	ff 31		 push	 DWORD PTR [ecx]
  00005	e8 00 00 00 00	 call	 ?erase@?$vector@UWAR_INFO@@V?$allocator@UWAR_INFO@@@_STL@@@_STL@@QAEPAUWAR_INFO@@PAU3@0@Z ; _STL::vector<WAR_INFO,_STL::allocator<WAR_INFO> >::erase

; 489  :   }

  0000a	c3		 ret	 0
?clear@?$vector@UWAR_INFO@@V?$allocator@UWAR_INFO@@@_STL@@@_STL@@QAEXXZ ENDP ; _STL::vector<WAR_INFO,_STL::allocator<WAR_INFO> >::clear
_TEXT	ENDS
PUBLIC	??0UserInformation@@QAE@XZ			; UserInformation::UserInformation
EXTRN	??_L@YGXPAXIHP6EX0@Z1@Z:NEAR			; `eh vector constructor iterator'
EXTRN	??0MString@@QAE@XZ:NEAR				; MString::MString
;	COMDAT xdata$x
; File c:\darkeden\designed_common\project\client\bitattribute.h
xdata$x	SEGMENT
$T102992 DD	0ffffffffH
	DD	FLAT:$L102940
	DD	00H
	DD	FLAT:$L102941
	DD	01H
	DD	FLAT:$L102942
	DD	02H
	DD	FLAT:$L102943
	DD	03H
	DD	FLAT:$L102944
	DD	04H
	DD	FLAT:$L102945
	DD	05H
	DD	FLAT:$L102946
	DD	06H
	DD	FLAT:$L102947
	DD	07H
	DD	FLAT:$L102948
	DD	08H
	DD	FLAT:$L102949
	DD	09H
	DD	FLAT:$L102950
$T102990 DD	019930520H
	DD	0bH
	DD	FLAT:$T102992
	DD	2 DUP(00H)
	DD	2 DUP(00H)
; Function compile flags: /Ogsy
; File c:\darkeden\designed_common\project\client\userinformation.cpp
xdata$x	ENDS
;	COMDAT ??0UserInformation@@QAE@XZ
_TEXT	SEGMENT
_this$ = -20						; size = 4
$T102939 = -13						; size = 1
__$EHRec$ = -12						; size = 12
??0UserInformation@@QAE@XZ PROC NEAR			; UserInformation::UserInformation, COMDAT
; _this$ = ecx

; 19   : {

  00000	b8 00 00 00 00	 mov	 eax, __ehhandler$??0UserInformation@@QAE@XZ
  00005	e8 00 00 00 00	 call	 __EH_prolog
  0000a	51		 push	 ecx
  0000b	51		 push	 ecx
  0000c	53		 push	 ebx
  0000d	56		 push	 esi
  0000e	8b f1		 mov	 esi, ecx
  00010	57		 push	 edi
  00011	89 75 ec	 mov	 DWORD PTR _this$[ebp], esi
  00014	e8 00 00 00 00	 call	 ??0MString@@QAE@XZ	; MString::MString
  00019	68 00 00 00 00	 push	 OFFSET FLAT:??1MString@@UAE@XZ ; MString::~MString
  0001e	bf 00 00 00 00	 mov	 edi, OFFSET FLAT:??0MString@@QAE@XZ ; MString::MString
  00023	57		 push	 edi
  00024	6a 03		 push	 3
  00026	6a 0c		 push	 12			; 0000000cH
  00028	8d 46 0c	 lea	 eax, DWORD PTR [esi+12]
  0002b	33 db		 xor	 ebx, ebx
  0002d	50		 push	 eax
  0002e	89 5d fc	 mov	 DWORD PTR __$EHRec$[ebp+8], ebx
  00031	e8 00 00 00 00	 call	 ??_L@YGXPAXIHP6EX0@Z1@Z
  00036	8d 4e 3c	 lea	 ecx, DWORD PTR [esi+60]
  00039	c6 45 fc 01	 mov	 BYTE PTR __$EHRec$[ebp+8], 1
  0003d	e8 00 00 00 00	 call	 ??0MString@@QAE@XZ	; MString::MString
  00042	8d 4e 48	 lea	 ecx, DWORD PTR [esi+72]
  00045	c6 45 fc 02	 mov	 BYTE PTR __$EHRec$[ebp+8], 2
  00049	e8 00 00 00 00	 call	 ??0MString@@QAE@XZ	; MString::MString
  0004e	8d 4e 78	 lea	 ecx, DWORD PTR [esi+120]
  00051	c6 45 fc 03	 mov	 BYTE PTR __$EHRec$[ebp+8], 3
  00055	e8 00 00 00 00	 call	 ??0MString@@QAE@XZ	; MString::MString
  0005a	68 00 00 00 00	 push	 OFFSET FLAT:??1MString@@UAE@XZ ; MString::~MString
  0005f	57		 push	 edi
  00060	6a 03		 push	 3
  00062	6a 0c		 push	 12			; 0000000cH
  00064	8d 86 84 00 00
	00		 lea	 eax, DWORD PTR [esi+132]
  0006a	50		 push	 eax
  0006b	c6 45 fc 04	 mov	 BYTE PTR __$EHRec$[ebp+8], 4
  0006f	e8 00 00 00 00	 call	 ??_L@YGXPAXIHP6EX0@Z1@Z
  00074	8d 8e e4 00 00
	00		 lea	 ecx, DWORD PTR [esi+228]
  0007a	c6 45 fc 05	 mov	 BYTE PTR __$EHRec$[ebp+8], 5
  0007e	e8 00 00 00 00	 call	 ??0MString@@QAE@XZ	; MString::MString
  00083	8d 8e f0 00 00
	00		 lea	 ecx, DWORD PTR [esi+240]
  00089	c6 45 fc 06	 mov	 BYTE PTR __$EHRec$[ebp+8], 6
  0008d	e8 00 00 00 00	 call	 ??0MString@@QAE@XZ	; MString::MString
  00092	8d 45 f3	 lea	 eax, DWORD PTR $T102939[ebp]
  00095	8d be 08 01 00
	00		 lea	 edi, DWORD PTR [esi+264]
  0009b	50		 push	 eax
  0009c	8b cf		 mov	 ecx, edi
  0009e	e8 00 00 00 00	 call	 ??0?$_Vector_base@UWAR_INFO@@V?$allocator@UWAR_INFO@@@_STL@@@_STL@@QAE@ABV?$allocator@UWAR_INFO@@@1@@Z ; _STL::_Vector_base<WAR_INFO,_STL::allocator<WAR_INFO> >::_Vector_base<WAR_INFO,_STL::allocator<WAR_INFO> >
  000a3	8d 8e 18 01 00
	00		 lea	 ecx, DWORD PTR [esi+280]
  000a9	c6 45 fc 08	 mov	 BYTE PTR __$EHRec$[ebp+8], 8
  000ad	e8 00 00 00 00	 call	 ??0MString@@QAE@XZ	; MString::MString
  000b2	8d 8e 30 01 00
	00		 lea	 ecx, DWORD PTR [esi+304]
  000b8	c6 45 fc 09	 mov	 BYTE PTR __$EHRec$[ebp+8], 9
  000bc	e8 00 00 00 00	 call	 ??0MString@@QAE@XZ	; MString::MString
  000c1	88 9e 54 01 00
	00		 mov	 BYTE PTR [esi+340], bl
  000c7	c6 45 fc 0a	 mov	 BYTE PTR __$EHRec$[ebp+8], 10 ; 0000000aH

; 20   : 	Slot				= 0;

  000cb	89 9e b4 00 00
	00		 mov	 DWORD PTR [esi+180], ebx

; 21   : //	Invisible			= false;
; 22   : 	
; 23   : 	PCSNumber			= 0;

  000d1	89 5e 58	 mov	 DWORD PTR [esi+88], ebx

; 24   : 	OtherPCSNumber[0]	= 0;

  000d4	89 9e a8 00 00
	00		 mov	 DWORD PTR [esi+168], ebx

; 25   : 	OtherPCSNumber[1]	= 0;

  000da	89 9e ac 00 00
	00		 mov	 DWORD PTR [esi+172], ebx

; 26   : 	OtherPCSNumber[2]	= 0;

  000e0	89 9e b0 00 00
	00		 mov	 DWORD PTR [esi+176], ebx

; 27   : 
; 28   : 	FaceStyleSlot[0]	= 0;

  000e6	89 5e 60	 mov	 DWORD PTR [esi+96], ebx

; 29   : 	FaceStyleSlot[1]	= 0;

  000e9	89 5e 64	 mov	 DWORD PTR [esi+100], ebx

; 30   : 	FaceStyleSlot[2]	= 0;

  000ec	89 5e 68	 mov	 DWORD PTR [esi+104], ebx

; 31   : 
; 32   : 	HairColor			= 0;

  000ef	89 5e 6c	 mov	 DWORD PTR [esi+108], ebx

; 33   : 	SkinColor			= 0;

  000f2	89 5e 70	 mov	 DWORD PTR [esi+112], ebx

; 34   : 
; 35   : 	FaceStyle			= 0;

  000f5	89 5e 5c	 mov	 DWORD PTR [esi+92], ebx

; 36   : 
; 37   : 	GlobalSayTime		= 0;

  000f8	89 9e b8 00 00
	00		 mov	 DWORD PTR [esi+184], ebx

; 38   : 
; 39   : 	GoreLevel			= true;

  000fe	c6 86 bc 00 00
	00 01		 mov	 BYTE PTR [esi+188], 1

; 40   : 
; 41   : 	KeepConnection		= FALSE;

  00105	89 9e c0 00 00
	00		 mov	 DWORD PTR [esi+192], ebx

; 42   : 	IsMaster			= FALSE;

  0010b	89 9e c4 00 00
	00		 mov	 DWORD PTR [esi+196], ebx

; 43   : 	ItemDropEnableTime	= 0;

  00111	89 9e c8 00 00
	00		 mov	 DWORD PTR [esi+200], ebx

; 44   : 	HasSkillRestore		= false;

  00117	88 9e cc 00 00
	00		 mov	 BYTE PTR [esi+204], bl

; 45   : 	HasMagicGroundAttack = false;

  0011d	88 9e dc 00 00
	00		 mov	 BYTE PTR [esi+220], bl

; 46   : 	HasMagicHallu		= false;

  00123	88 9e dd 00 00
	00		 mov	 BYTE PTR [esi+221], bl

; 47   : 	HasMagicBloodyWarp	= false;

  00129	88 9e df 00 00
	00		 mov	 BYTE PTR [esi+223], bl

; 48   : 	HasMagicBloodySnake	= false;

  0012f	88 9e de 00 00
	00		 mov	 BYTE PTR [esi+222], bl

; 49   : 
; 50   : 	// 0    .
; 51   : 	LogoutTime			= 0;

  00135	89 9e d0 00 00
	00		 mov	 DWORD PTR [esi+208], ebx

; 52   : 
; 53   : #if __CONTENTS(__080405_FIREST_UI_UPDATE)
; 54   : 	QuitExitTime		= 0;

  0013b	89 9e d4 00 00
	00		 mov	 DWORD PTR [esi+212], ebx

; 55   : #endif //__080405_FIREST_UI_UPDATE
; 56   : 
; 57   : 	GameVersion			= 0;

  00141	89 9e d8 00 00
	00		 mov	 DWORD PTR [esi+216], ebx

; 58   : 
; 59   : 	// 
; 60   : 	IsNetmarble			= false;

  00147	88 9e e0 00 00
	00		 mov	 BYTE PTR [esi+224], bl

; 61   : 	IsNetmarbleLogin	= false;

  0014d	88 9e e1 00 00
	00		 mov	 BYTE PTR [esi+225], bl

; 62   : 	
; 63   : 	bNetmarbleGoreLevel = true;

  00153	c6 86 fc 00 00
	00 01		 mov	 BYTE PTR [esi+252], 1

; 64   : 
; 65   : 	WorldID				= 0;

  0015a	89 9e 00 01 00
	00		 mov	 DWORD PTR [esi+256], ebx

; 66   : 	ServerID			= 0;

  00160	89 9e 04 01 00
	00		 mov	 DWORD PTR [esi+260], ebx

; 67   : 	
; 68   : 	bMetrotech			= false;

  00166	88 9e 14 01 00
	00		 mov	 BYTE PTR [esi+276], bl

; 69   : 
; 70   : 	WarInfo.clear();

  0016c	ff 77 04	 push	 DWORD PTR [edi+4]
  0016f	8b cf		 mov	 ecx, edi
  00171	ff 37		 push	 DWORD PTR [edi]
  00173	e8 00 00 00 00	 call	 ?erase@?$vector@UWAR_INFO@@V?$allocator@UWAR_INFO@@@_STL@@@_STL@@QAEPAUWAR_INFO@@PAU3@0@Z ; _STL::vector<WAR_INFO,_STL::allocator<WAR_INFO> >::erase

; 71   : 
; 72   : 	bChinese			= false;
; 73   : 	bKorean				= true;
; 74   : 	bJapanese			= false;
; 75   : 	bEnglish			= false;
; 76   : 	
; 77   : 	//   100%.
; 78   : 	HeadPrice			= 100;
; 79   : 	bCompetence			= false;
; 80   : 	bCompetenceShape	= false;
; 81   : 	
; 82   : 	IsAutoLogIn			= false;
; 83   : 	pLogInClientPlayer	= NULL;
; 84   : 	IsNonPK				= false;
; 85   : 	dwUnionID			= 0;
; 86   : 	bUnionGrade			= 0;
; 87   : 	IsTestServer		= false;
; 88   : 	
; 89   : 	IsUnderFifthteen	= false;
; 90   : //	IsValidMacAddress	= false;
; 91   : 	
; 92   : 	attrOperator		= 0;
; 93   : }

  00178	8b 4d f4	 mov	 ecx, DWORD PTR __$EHRec$[ebp]
  0017b	88 9e 24 01 00
	00		 mov	 BYTE PTR [esi+292], bl
  00181	88 9e 26 01 00
	00		 mov	 BYTE PTR [esi+294], bl
  00187	88 9e 27 01 00
	00		 mov	 BYTE PTR [esi+295], bl
  0018d	88 9e 2c 01 00
	00		 mov	 BYTE PTR [esi+300], bl
  00193	88 9e 2d 01 00
	00		 mov	 BYTE PTR [esi+301], bl
  00199	88 9e 2e 01 00
	00		 mov	 BYTE PTR [esi+302], bl
  0019f	89 9e 3c 01 00
	00		 mov	 DWORD PTR [esi+316], ebx
  001a5	88 9e 40 01 00
	00		 mov	 BYTE PTR [esi+320], bl
  001ab	89 9e 44 01 00
	00		 mov	 DWORD PTR [esi+324], ebx
  001b1	88 9e 48 01 00
	00		 mov	 BYTE PTR [esi+328], bl
  001b7	88 9e 49 01 00
	00		 mov	 BYTE PTR [esi+329], bl
  001bd	88 9e 4a 01 00
	00		 mov	 BYTE PTR [esi+330], bl
  001c3	88 9e 54 01 00
	00		 mov	 BYTE PTR [esi+340], bl
  001c9	5f		 pop	 edi
  001ca	c6 86 25 01 00
	00 01		 mov	 BYTE PTR [esi+293], 1
  001d1	c7 86 28 01 00
	00 64 00 00 00	 mov	 DWORD PTR [esi+296], 100 ; 00000064H
  001db	8b c6		 mov	 eax, esi
  001dd	5e		 pop	 esi
  001de	5b		 pop	 ebx
  001df	64 89 0d 00 00
	00 00		 mov	 DWORD PTR fs:__except_list, ecx
  001e6	c9		 leave
  001e7	c3		 ret	 0
_TEXT	ENDS
;	COMDAT text$x
text$x	SEGMENT
$L102940:
  00000	8b 4d ec	 mov	 ecx, DWORD PTR _this$[ebp]
  00003	e9 00 00 00 00	 jmp	 ??1MString@@UAE@XZ	; MString::~MString
$L102941:
  00008	68 00 00 00 00	 push	 OFFSET FLAT:??1MString@@UAE@XZ ; MString::~MString
  0000d	6a 03		 push	 3
  0000f	6a 0c		 push	 12			; 0000000cH
  00011	8b 45 ec	 mov	 eax, DWORD PTR _this$[ebp]
  00014	83 c0 0c	 add	 eax, 12			; 0000000cH
  00017	50		 push	 eax
  00018	e8 00 00 00 00	 call	 ??_M@YGXPAXIHP6EX0@Z@Z
  0001d	c3		 ret	 0
$L102942:
  0001e	8b 4d ec	 mov	 ecx, DWORD PTR _this$[ebp]
  00021	83 c1 3c	 add	 ecx, 60			; 0000003cH
  00024	e9 00 00 00 00	 jmp	 ??1MString@@UAE@XZ	; MString::~MString
$L102943:
  00029	8b 4d ec	 mov	 ecx, DWORD PTR _this$[ebp]
  0002c	83 c1 48	 add	 ecx, 72			; 00000048H
  0002f	e9 00 00 00 00	 jmp	 ??1MString@@UAE@XZ	; MString::~MString
$L102944:
  00034	8b 4d ec	 mov	 ecx, DWORD PTR _this$[ebp]
  00037	83 c1 78	 add	 ecx, 120		; 00000078H
  0003a	e9 00 00 00 00	 jmp	 ??1MString@@UAE@XZ	; MString::~MString
$L102945:
  0003f	68 00 00 00 00	 push	 OFFSET FLAT:??1MString@@UAE@XZ ; MString::~MString
  00044	6a 03		 push	 3
  00046	6a 0c		 push	 12			; 0000000cH
  00048	8b 45 ec	 mov	 eax, DWORD PTR _this$[ebp]
  0004b	05 84 00 00 00	 add	 eax, 132		; 00000084H
  00050	50		 push	 eax
  00051	e8 00 00 00 00	 call	 ??_M@YGXPAXIHP6EX0@Z@Z
  00056	c3		 ret	 0
$L102946:
  00057	8b 4d ec	 mov	 ecx, DWORD PTR _this$[ebp]
  0005a	81 c1 e4 00 00
	00		 add	 ecx, 228		; 000000e4H
  00060	e9 00 00 00 00	 jmp	 ??1MString@@UAE@XZ	; MString::~MString
$L102947:
  00065	8b 4d ec	 mov	 ecx, DWORD PTR _this$[ebp]
  00068	81 c1 f0 00 00
	00		 add	 ecx, 240		; 000000f0H
  0006e	e9 00 00 00 00	 jmp	 ??1MString@@UAE@XZ	; MString::~MString
$L102948:
  00073	8b 4d ec	 mov	 ecx, DWORD PTR _this$[ebp]
  00076	81 c1 08 01 00
	00		 add	 ecx, 264		; 00000108H
  0007c	e9 00 00 00 00	 jmp	 ??1?$vector@UWAR_INFO@@V?$allocator@UWAR_INFO@@@_STL@@@_STL@@QAE@XZ ; _STL::vector<WAR_INFO,_STL::allocator<WAR_INFO> >::~vector<WAR_INFO,_STL::allocator<WAR_INFO> >
$L102949:
  00081	8b 4d ec	 mov	 ecx, DWORD PTR _this$[ebp]
  00084	81 c1 18 01 00
	00		 add	 ecx, 280		; 00000118H
  0008a	e9 00 00 00 00	 jmp	 ??1MString@@UAE@XZ	; MString::~MString
$L102950:
  0008f	8b 4d ec	 mov	 ecx, DWORD PTR _this$[ebp]
  00092	81 c1 30 01 00
	00		 add	 ecx, 304		; 00000130H
  00098	e9 00 00 00 00	 jmp	 ??1MString@@UAE@XZ	; MString::~MString
__ehhandler$??0UserInformation@@QAE@XZ:
  0009d	b8 00 00 00 00	 mov	 eax, OFFSET FLAT:$T102990
  000a2	e9 00 00 00 00	 jmp	 ___CxxFrameHandler
text$x	ENDS
??0UserInformation@@QAE@XZ ENDP				; UserInformation::UserInformation
END
