; Listing generated by Microsoft (R) Optimizing Compiler Version 13.10.3077 

	TITLE	\darkeden\Designed_Common\Project\New - vs_ui\lib\AcceleratorDef.cpp
	.386P
include listing.inc
if @Version gt 510
.model FLAT
else
_TEXT	SEGMENT PARA USE32 PUBLIC 'CODE'
_TEXT	ENDS
_DATA	SEGMENT DWORD USE32 PUBLIC 'DATA'
_DATA	ENDS
CONST	SEGMENT DWORD USE32 PUBLIC 'CONST'
CONST	ENDS
_BSS	SEGMENT DWORD USE32 PUBLIC 'BSS'
_BSS	ENDS
$$SYMBOLS	SEGMENT BYTE USE32 'DEBSYM'
$$SYMBOLS	ENDS
$$TYPES	SEGMENT BYTE USE32 'DEBTYP'
$$TYPES	ENDS
_TLS	SEGMENT DWORD USE32 PUBLIC 'TLS'
_TLS	ENDS
;	COMDAT ??_C@_0BN@ODLNCKCA@Data?2?2Info?2?2ClientConfig?4inf?$AA@
CONST	SEGMENT DWORD USE32 PUBLIC 'CONST'
CONST	ENDS
;	COMDAT ??_C@_0BM@DFPLPGPC@Data?2?2Info?2?2GuildMapper?4inf?$AA@
CONST	SEGMENT DWORD USE32 PUBLIC 'CONST'
CONST	ENDS
;	COMDAT ??_C@_0BN@LHODHNBK@Data?2?2Info?2?2GuildVersion?4inf?$AA@
CONST	SEGMENT DWORD USE32 PUBLIC 'CONST'
CONST	ENDS
;	COMDAT ??_C@_0BH@DDPLNCOL@Data?2?2Info?2?2Player?4inf?$AA@
CONST	SEGMENT DWORD USE32 PUBLIC 'CONST'
CONST	ENDS
;	COMDAT ??_C@_0BL@ILLNAPHB@Data?2?2Info?2?2Resolution?4inf?$AA@
CONST	SEGMENT DWORD USE32 PUBLIC 'CONST'
CONST	ENDS
;	COMDAT ??_C@_0CA@HEIGFDLG@Data?2?2Info?2?2SelectedChannel?4inf?$AA@
CONST	SEGMENT DWORD USE32 PUBLIC 'CONST'
CONST	ENDS
;	COMDAT ??_C@_0BA@LLFMIGOM@AcceleratorNULL?$AA@
CONST	SEGMENT DWORD USE32 PUBLIC 'CONST'
CONST	ENDS
;	COMDAT ??_C@_04OHJIHAFH@None?$AA@
CONST	SEGMENT DWORD USE32 PUBLIC 'CONST'
CONST	ENDS
;	COMDAT ??_C@_02LCPENACN@F1?$AA@
CONST	SEGMENT DWORD USE32 PUBLIC 'CONST'
CONST	ENDS
;	COMDAT ??_C@_02JJNJIDOO@F2?$AA@
CONST	SEGMENT DWORD USE32 PUBLIC 'CONST'
CONST	ENDS
;	COMDAT ??_C@_02IAMCLCKP@F3?$AA@
CONST	SEGMENT DWORD USE32 PUBLIC 'CONST'
CONST	ENDS
;	COMDAT ??_C@_02MPIDCEGI@F4?$AA@
CONST	SEGMENT DWORD USE32 PUBLIC 'CONST'
CONST	ENDS
;	COMDAT ??_C@_02NGJIBFCJ@F5?$AA@
CONST	SEGMENT DWORD USE32 PUBLIC 'CONST'
CONST	ENDS
;	COMDAT ??_C@_02PNLFEGOK@F6?$AA@
CONST	SEGMENT DWORD USE32 PUBLIC 'CONST'
CONST	ENDS
;	COMDAT ??_C@_02OEKOHHKL@F7?$AA@
CONST	SEGMENT DWORD USE32 PUBLIC 'CONST'
CONST	ENDS
;	COMDAT ??_C@_02GDDGGLGE@F8?$AA@
CONST	SEGMENT DWORD USE32 PUBLIC 'CONST'
CONST	ENDS
;	COMDAT ??_C@_02HKCNFKCF@F9?$AA@
CONST	SEGMENT DWORD USE32 PUBLIC 'CONST'
CONST	ENDS
;	COMDAT ??_C@_03JKCLJOFG@F10?$AA@
CONST	SEGMENT DWORD USE32 PUBLIC 'CONST'
CONST	ENDS
;	COMDAT ??_C@_03IDDAKPBH@F11?$AA@
CONST	SEGMENT DWORD USE32 PUBLIC 'CONST'
CONST	ENDS
;	COMDAT ??_C@_03KIBNPMNE@F12?$AA@
CONST	SEGMENT DWORD USE32 PUBLIC 'CONST'
CONST	ENDS
;	COMDAT ??_C@_03MHNPAEMD@ESC?$AA@
CONST	SEGMENT DWORD USE32 PUBLIC 'CONST'
CONST	ENDS
;	COMDAT ??_C@_05LGELBCGM@Close?$AA@
CONST	SEGMENT DWORD USE32 PUBLIC 'CONST'
CONST	ENDS
;	COMDAT ??_C@_05CIFECOEH@SKILL?$AA@
CONST	SEGMENT DWORD USE32 PUBLIC 'CONST'
CONST	ENDS
;	COMDAT ??_C@_05OEGOMMDP@Skill?$AA@
CONST	SEGMENT DWORD USE32 PUBLIC 'CONST'
CONST	ENDS
;	COMDAT ??_C@_09NCAHJFFG@INVENTORY?$AA@
CONST	SEGMENT DWORD USE32 PUBLIC 'CONST'
CONST	ENDS
;	COMDAT ??_C@_09KNKLKLHB@Inventory?$AA@
CONST	SEGMENT DWORD USE32 PUBLIC 'CONST'
CONST	ENDS
;	COMDAT ??_C@_04IGBBPMJF@GEAR?$AA@
CONST	SEGMENT DWORD USE32 PUBLIC 'CONST'
CONST	ENDS
;	COMDAT ??_C@_04ILOKDBOJ@Gear?$AA@
CONST	SEGMENT DWORD USE32 PUBLIC 'CONST'
CONST	ENDS
;	COMDAT ??_C@_08IKHFGNHE@CHARINFO?$AA@
CONST	SEGMENT DWORD USE32 PUBLIC 'CONST'
CONST	ENDS
;	COMDAT ??_C@_0P@FEELDLPM@Character?5info?$AA@
CONST	SEGMENT DWORD USE32 PUBLIC 'CONST'
CONST	ENDS
;	COMDAT ??_C@_09PCKMIMEK@SKILLINFO?$AA@
CONST	SEGMENT DWORD USE32 PUBLIC 'CONST'
CONST	ENDS
;	COMDAT ??_C@_0M@JHBDNCJI@Skills?5info?$AA@
CONST	SEGMENT DWORD USE32 PUBLIC 'CONST'
CONST	ENDS
;	COMDAT ??_C@_06GDJADEIA@GRADE1?$AA@
CONST	SEGMENT DWORD USE32 PUBLIC 'CONST'
CONST	ENDS
;	COMDAT ??_C@_09EABEKOEN@Rank?5info?$AA@
CONST	SEGMENT DWORD USE32 PUBLIC 'CONST'
CONST	ENDS
;	COMDAT ??_C@_08DMEGOBOM@WORLDMAP?$AA@
CONST	SEGMENT DWORD USE32 PUBLIC 'CONST'
CONST	ENDS
;	COMDAT ??_C@_09JLMGGBMG@World?5map?$AA@
CONST	SEGMENT DWORD USE32 PUBLIC 'CONST'
CONST	ENDS
;	COMDAT ??_C@_05EGOIIAAK@PARTY?$AA@
CONST	SEGMENT DWORD USE32 PUBLIC 'CONST'
CONST	ENDS
;	COMDAT ??_C@_05IKNCGCHC@Party?$AA@
CONST	SEGMENT DWORD USE32 PUBLIC 'CONST'
CONST	ENDS
;	COMDAT ??_C@_04DOKPJKJF@HELP?$AA@
CONST	SEGMENT DWORD USE32 PUBLIC 'CONST'
CONST	ENDS
;	COMDAT ??_C@_04DDFEFHOJ@Help?$AA@
CONST	SEGMENT DWORD USE32 PUBLIC 'CONST'
CONST	ENDS
;	COMDAT ??_C@_0P@MLGCFIOL@QUICKITEM_SLOT?$AA@
CONST	SEGMENT DWORD USE32 PUBLIC 'CONST'
CONST	ENDS
;	COMDAT ??_C@_0P@OGPMLIDM@Quickitem?5slot?$AA@
CONST	SEGMENT DWORD USE32 PUBLIC 'CONST'
CONST	ENDS
;	COMDAT ??_C@_0M@FFJKLDBA@EXTEND_CHAT?$AA@
CONST	SEGMENT DWORD USE32 PUBLIC 'CONST'
CONST	ENDS
;	COMDAT ??_C@_0M@EKCIEKGE@Expand?5chat?$AA@
CONST	SEGMENT DWORD USE32 PUBLIC 'CONST'
CONST	ENDS
;	COMDAT ??_C@_07BOMALP@CHAT_UP?$AA@
CONST	SEGMENT DWORD USE32 PUBLIC 'CONST'
CONST	ENDS
;	COMDAT ??_C@_07JHFLABJJ@Chat?5up?$AA@
CONST	SEGMENT DWORD USE32 PUBLIC 'CONST'
CONST	ENDS
;	COMDAT ??_C@_07MJLLDGCH@CHAT_DN?$AA@
CONST	SEGMENT DWORD USE32 PUBLIC 'CONST'
CONST	ENDS
;	COMDAT ??_C@_09CILOFHJJ@Chat?5down?$AA@
CONST	SEGMENT DWORD USE32 PUBLIC 'CONST'
CONST	ENDS
;	COMDAT ??_C@_0L@CFBCIODH@NOMAL_CHAT?$AA@
CONST	SEGMENT DWORD USE32 PUBLIC 'CONST'
CONST	ENDS
;	COMDAT ??_C@_0N@NPMBMPNN@General?5Chat?$AA@
CONST	SEGMENT DWORD USE32 PUBLIC 'CONST'
CONST	ENDS
;	COMDAT ??_C@_09IKOIFABB@ZONE_CHAT?$AA@
CONST	SEGMENT DWORD USE32 PUBLIC 'CONST'
CONST	ENDS
;	COMDAT ??_C@_09IJMNEBE@Zone?5chat?$AA@
CONST	SEGMENT DWORD USE32 PUBLIC 'CONST'
CONST	ENDS
;	COMDAT ??_C@_0M@IHCOHCJN@WISPER_CHAT?$AA@
CONST	SEGMENT DWORD USE32 PUBLIC 'CONST'
CONST	ENDS
;	COMDAT ??_C@_0N@KKHOGCCO@Whisper?5chat?$AA@
CONST	SEGMENT DWORD USE32 PUBLIC 'CONST'
CONST	ENDS
;	COMDAT ??_C@_0L@LFJPFAMP@PARTY_CHAT?$AA@
CONST	SEGMENT DWORD USE32 PUBLIC 'CONST'
CONST	ENDS
;	COMDAT ??_C@_0L@HILGNHBK@Party?5chat?$AA@
CONST	SEGMENT DWORD USE32 PUBLIC 'CONST'
CONST	ENDS
;	COMDAT ??_C@_0L@JLNFKLCJ@GUILD_CHAT?$AA@
CONST	SEGMENT DWORD USE32 PUBLIC 'CONST'
CONST	ENDS
;	COMDAT ??_C@_0L@FGPMCMPM@Guild?5chat?$AA@
CONST	SEGMENT DWORD USE32 PUBLIC 'CONST'
CONST	ENDS
;	COMDAT ??_C@_0L@JIPOPEJB@UNION_CHAT?$AA@
CONST	SEGMENT DWORD USE32 PUBLIC 'CONST'
CONST	ENDS
;	COMDAT ??_C@_0L@FFNHHDEE@Union?5chat?$AA@
CONST	SEGMENT DWORD USE32 PUBLIC 'CONST'
CONST	ENDS
;	COMDAT ??_C@_05GFPLGFAD@QUEST?$AA@
CONST	SEGMENT DWORD USE32 PUBLIC 'CONST'
CONST	ENDS
;	COMDAT ??_C@_05KJMBIHHL@Quest?$AA@
CONST	SEGMENT DWORD USE32 PUBLIC 'CONST'
CONST	ENDS
;	COMDAT ??_C@_07EHNEOKJM@MAILBOX?$AA@
CONST	SEGMENT DWORD USE32 PUBLIC 'CONST'
CONST	ENDS
;	COMDAT ??_C@_07EDPPDEEO@Mailbox?$AA@
CONST	SEGMENT DWORD USE32 PUBLIC 'CONST'
CONST	ENDS
;	COMDAT ??_C@_07GDAJHEOB@PETINFO?$AA@
CONST	SEGMENT DWORD USE32 PUBLIC 'CONST'
CONST	ENDS
;	COMDAT ??_C@_0BA@DHFGHCGN@Pet?5information?$AA@
CONST	SEGMENT DWORD USE32 PUBLIC 'CONST'
CONST	ENDS
;	COMDAT ??_C@_09JLJBOLDG@SUMMONPET?$AA@
CONST	SEGMENT DWORD USE32 PUBLIC 'CONST'
CONST	ENDS
;	COMDAT ??_C@_0L@GDDHAAPE@Summon?5pet?$AA@
CONST	SEGMENT DWORD USE32 PUBLIC 'CONST'
CONST	ENDS
;	COMDAT ??_C@_0M@OGKEBIPK@TRIBE_PRIOR?$AA@
CONST	SEGMENT DWORD USE32 PUBLIC 'CONST'
CONST	ENDS
;	COMDAT ??_C@_0M@IFFEDDIE@Tribe?5prior?$AA@
CONST	SEGMENT DWORD USE32 PUBLIC 'CONST'
CONST	ENDS
;	COMDAT ??_C@_0L@OEONIPIP@TRIBE_NEXT?$AA@
CONST	SEGMENT DWORD USE32 PUBLIC 'CONST'
CONST	ENDS
;	COMDAT ??_C@_0L@CJMEAIFK@Tribe?5next?$AA@
CONST	SEGMENT DWORD USE32 PUBLIC 'CONST'
CONST	ENDS
;	COMDAT ??_C@_0BA@MDFLLFHE@COERCION_ATTACK?$AA@
CONST	SEGMENT DWORD USE32 PUBLIC 'CONST'
CONST	ENDS
;	COMDAT ??_C@_0BA@NIGDAJOJ@Coercion?5Attack?$AA@
CONST	SEGMENT DWORD USE32 PUBLIC 'CONST'
CONST	ENDS
;	COMDAT ??_C@_0M@OBNOHPMP@AUTO_ATTACK?$AA@
CONST	SEGMENT DWORD USE32 PUBLIC 'CONST'
CONST	ENDS
;	COMDAT ??_C@_0BA@DOGKAPND@OneClick?5Attack?$AA@
CONST	SEGMENT DWORD USE32 PUBLIC 'CONST'
CONST	ENDS
;	COMDAT ??_C@_0M@FPGGIOEA@SCREEN?5SHOT?$AA@
CONST	SEGMENT DWORD USE32 PUBLIC 'CONST'
CONST	ENDS
;	COMDAT ??_C@_0L@KKOCHHLN@Screenshot?$AA@
CONST	SEGMENT DWORD USE32 PUBLIC 'CONST'
CONST	ENDS
;	COMDAT ??_C@_07DLPKKMGH@MINIMAP?$AA@
CONST	SEGMENT DWORD USE32 PUBLIC 'CONST'
CONST	ENDS
;	COMDAT ??_C@_07DPNBHCLF@Minimap?$AA@
CONST	SEGMENT DWORD USE32 PUBLIC 'CONST'
CONST	ENDS
;	COMDAT ??_C@_0M@LGHPKPFB@GEAR_CHANGE?$AA@
CONST	SEGMENT DWORD USE32 PUBLIC 'CONST'
CONST	ENDS
;	COMDAT ??_C@_0M@EDKJMFIH@Gear?5Change?$AA@
CONST	SEGMENT DWORD USE32 PUBLIC 'CONST'
CONST	ENDS
;	COMDAT ??_C@_0BB@KPLOLHPO@GEAR_CHANGE_SHOW?$AA@
CONST	SEGMENT DWORD USE32 PUBLIC 'CONST'
CONST	ENDS
;	COMDAT ??_C@_0N@JOOPOLDH@Gear?5Change2?$AA@
CONST	SEGMENT DWORD USE32 PUBLIC 'CONST'
CONST	ENDS
;	COMDAT ??_C@_0N@GOPDCEEB@basic_string?$AA@
CONST	SEGMENT DWORD USE32 PUBLIC 'CONST'
CONST	ENDS
rdata$r	SEGMENT DWORD USE32 PUBLIC 'CONST'
rdata$r	ENDS
text$yc	SEGMENT PARA USE32 PUBLIC 'CODE'
text$yc	ENDS
CRT$XCA	SEGMENT DWORD USE32 PUBLIC 'DATA'
CRT$XCA	ENDS
CRT$XCU	SEGMENT DWORD USE32 PUBLIC 'DATA'
CRT$XCU	ENDS
CRT$XCL	SEGMENT DWORD USE32 PUBLIC 'DATA'
CRT$XCL	ENDS
CRT$XCC	SEGMENT DWORD USE32 PUBLIC 'DATA'
CRT$XCC	ENDS
CRT$XCZ	SEGMENT DWORD USE32 PUBLIC 'DATA'
CRT$XCZ	ENDS
text$yd	SEGMENT PARA USE32 PUBLIC 'CODE'
text$yd	ENDS
;	COMDAT ?start@CNFS@@QAE_NPADH@Z
_TEXT	SEGMENT PARA USE32 PUBLIC 'CODE'
_TEXT	ENDS
;	COMDAT ?end@CNFS@@QAEXXZ
_TEXT	SEGMENT PARA USE32 PUBLIC 'CODE'
_TEXT	ENDS
;	COMDAT ?Init@VirtualFileHeader@@QAEXXZ
_TEXT	SEGMENT PARA USE32 PUBLIC 'CODE'
_TEXT	ENDS
;	COMDAT ??1IFileIO@@UAE@XZ
_TEXT	SEGMENT PARA USE32 PUBLIC 'CODE'
_TEXT	ENDS
;	COMDAT ??_GIFileIO@@UAEPAXI@Z
_TEXT	SEGMENT PARA USE32 PUBLIC 'CODE'
_TEXT	ENDS
;	COMDAT ??0iovfs_base@@QAE@XZ
_TEXT	SEGMENT PARA USE32 PUBLIC 'CODE'
_TEXT	ENDS
;	COMDAT ??_Giovfs_base@@UAEPAXI@Z
_TEXT	SEGMENT PARA USE32 PUBLIC 'CODE'
_TEXT	ENDS
;	COMDAT ??1iovfs_base@@UAE@XZ
_TEXT	SEGMENT PARA USE32 PUBLIC 'CODE'
_TEXT	ENDS
;	COMDAT ?Init@iovfs_base@@QAEXXZ
_TEXT	SEGMENT PARA USE32 PUBLIC 'CODE'
_TEXT	ENDS
;	COMDAT ??_Givfstream@@UAEPAXI@Z
_TEXT	SEGMENT PARA USE32 PUBLIC 'CODE'
_TEXT	ENDS
;	COMDAT ??1ivfstream@@UAE@XZ
_TEXT	SEGMENT PARA USE32 PUBLIC 'CODE'
_TEXT	ENDS
;	COMDAT ?open@ivfstream@@UAEXPBDH@Z
_TEXT	SEGMENT PARA USE32 PUBLIC 'CODE'
_TEXT	ENDS
;	COMDAT ??_Govfstream@@UAEPAXI@Z
_TEXT	SEGMENT PARA USE32 PUBLIC 'CODE'
_TEXT	ENDS
;	COMDAT ??1ovfstream@@UAE@XZ
_TEXT	SEGMENT PARA USE32 PUBLIC 'CODE'
_TEXT	ENDS
;	COMDAT ?open@ovfstream@@UAEXPBDH@Z
_TEXT	SEGMENT PARA USE32 PUBLIC 'CODE'
_TEXT	ENDS
;	COMDAT ?SetDefaultAccelerator@@YAXXZ
_TEXT	SEGMENT PARA USE32 PUBLIC 'CODE'
_TEXT	ENDS
;	COMDAT ?eq@?$__char_traits_base@DH@_STL@@SA_NABD0@Z
_TEXT	SEGMENT PARA USE32 PUBLIC 'CODE'
_TEXT	ENDS
;	COMDAT ?not_eof@?$__char_traits_base@DH@_STL@@SAHABH@Z
_TEXT	SEGMENT PARA USE32 PUBLIC 'CODE'
_TEXT	ENDS
;	COMDAT ?eq_int_type@?$__char_traits_base@DH@_STL@@SA_NABH0@Z
_TEXT	SEGMENT PARA USE32 PUBLIC 'CODE'
_TEXT	ENDS
;	COMDAT ??4?$basic_string@DV?$char_traits@D@_STL@@V?$allocator@D@2@@_STL@@QAEAAV01@PBD@Z
_TEXT	SEGMENT PARA USE32 PUBLIC 'CODE'
_TEXT	ENDS
;	COMDAT ??0?$fpos@H@_STL@@QAE@J@Z
_TEXT	SEGMENT PARA USE32 PUBLIC 'CODE'
_TEXT	ENDS
;	COMDAT ??B?$fpos@H@_STL@@QBEJXZ
_TEXT	SEGMENT PARA USE32 PUBLIC 'CODE'
_TEXT	ENDS
;	COMDAT ?state@?$fpos@H@_STL@@QBEHXZ
_TEXT	SEGMENT PARA USE32 PUBLIC 'CODE'
_TEXT	ENDS
;	COMDAT ?is_open@?$basic_filebuf@DV?$char_traits@D@_STL@@@_STL@@QBE_NXZ
_TEXT	SEGMENT PARA USE32 PUBLIC 'CODE'
_TEXT	ENDS
;	COMDAT ?_M_seek_return@?$basic_filebuf@DV?$char_traits@D@_STL@@@_STL@@AAE?AV?$fpos@H@2@JH@Z
_TEXT	SEGMENT PARA USE32 PUBLIC 'CODE'
_TEXT	ENDS
;	COMDAT ??0?$_Filebuf_Tmp_Buf@D@_STL@@QAE@H@Z
_TEXT	SEGMENT PARA USE32 PUBLIC 'CODE'
_TEXT	ENDS
;	COMDAT ??1?$_Filebuf_Tmp_Buf@D@_STL@@QAE@XZ
_TEXT	SEGMENT PARA USE32 PUBLIC 'CODE'
_TEXT	ENDS
;	COMDAT ?assign@?$basic_string@DV?$char_traits@D@_STL@@V?$allocator@D@2@@_STL@@QAEAAV12@PBD0@Z
_TEXT	SEGMENT PARA USE32 PUBLIC 'CODE'
_TEXT	ENDS
;	COMDAT ?state@?$fpos@H@_STL@@QAEXH@Z
_TEXT	SEGMENT PARA USE32 PUBLIC 'CODE'
_TEXT	ENDS
;	COMDAT ?copy@?$__char_traits_base@DH@_STL@@SAPADPADPBDI@Z
_TEXT	SEGMENT PARA USE32 PUBLIC 'CODE'
_TEXT	ENDS
;	COMDAT ?begin@?$basic_string@DV?$char_traits@D@_STL@@V?$allocator@D@2@@_STL@@QAEPADXZ
_TEXT	SEGMENT PARA USE32 PUBLIC 'CODE'
_TEXT	ENDS
;	COMDAT ?end@?$basic_string@DV?$char_traits@D@_STL@@V?$allocator@D@2@@_STL@@QAEPADXZ
_TEXT	SEGMENT PARA USE32 PUBLIC 'CODE'
_TEXT	ENDS
;	COMDAT ?size@?$basic_string@DV?$char_traits@D@_STL@@V?$allocator@D@2@@_STL@@QBEIXZ
_TEXT	SEGMENT PARA USE32 PUBLIC 'CODE'
_TEXT	ENDS
;	COMDAT ?erase@?$basic_string@DV?$char_traits@D@_STL@@V?$allocator@D@2@@_STL@@QAEPADPAD0@Z
_TEXT	SEGMENT PARA USE32 PUBLIC 'CODE'
_TEXT	ENDS
;	COMDAT ?move@?$__char_traits_base@DH@_STL@@SAPADPADPBDI@Z
_TEXT	SEGMENT PARA USE32 PUBLIC 'CODE'
_TEXT	ENDS
;	COMDAT ?close@?$basic_filebuf@DV?$char_traits@D@_STL@@@_STL@@QAEPAV12@XZ
_TEXT	SEGMENT PARA USE32 PUBLIC 'CODE'
_TEXT	ENDS
;	COMDAT ?_M_exit_input_mode@?$basic_filebuf@DV?$char_traits@D@_STL@@@_STL@@AAEXXZ
_TEXT	SEGMENT PARA USE32 PUBLIC 'CODE'
_TEXT	ENDS
;	COMDAT ?_M_switch_to_output_mode@?$basic_filebuf@DV?$char_traits@D@_STL@@@_STL@@AAE_NXZ
_TEXT	SEGMENT PARA USE32 PUBLIC 'CODE'
_TEXT	ENDS
;	COMDAT ?_M_output_error@?$basic_filebuf@DV?$char_traits@D@_STL@@@_STL@@AAEHXZ
_TEXT	SEGMENT PARA USE32 PUBLIC 'CODE'
_TEXT	ENDS
;	COMDAT ?_M_allocate_buffers@?$basic_filebuf@DV?$char_traits@D@_STL@@@_STL@@AAE_NPADH@Z
_TEXT	SEGMENT PARA USE32 PUBLIC 'CODE'
_TEXT	ENDS
;	COMDAT ?_M_deallocate_buffers@?$basic_filebuf@DV?$char_traits@D@_STL@@@_STL@@AAEXXZ
_TEXT	SEGMENT PARA USE32 PUBLIC 'CODE'
_TEXT	ENDS
;	COMDAT ?_M_seek_init@?$basic_filebuf@DV?$char_traits@D@_STL@@@_STL@@AAE_N_N@Z
_TEXT	SEGMENT PARA USE32 PUBLIC 'CODE'
_TEXT	ENDS
;	COMDAT ?_M_setup_codecvt@?$basic_filebuf@DV?$char_traits@D@_STL@@@_STL@@AAEXABVlocale@2@@Z
_TEXT	SEGMENT PARA USE32 PUBLIC 'CODE'
_TEXT	ENDS
;	COMDAT ??$equal@PADPADU?$_Eq_traits@V?$char_traits@D@_STL@@@_STL@@@_STL@@YA_NPAD00U?$_Eq_traits@V?$char_traits@D@_STL@@@0@@Z
_TEXT	SEGMENT PARA USE32 PUBLIC 'CODE'
_TEXT	ENDS
;	COMDAT ??0?$basic_string@DV?$char_traits@D@_STL@@V?$allocator@D@2@@_STL@@QAE@XZ
_TEXT	SEGMENT PARA USE32 PUBLIC 'CODE'
_TEXT	ENDS
;	COMDAT ??$append@PBD@?$basic_string@DV?$char_traits@D@_STL@@V?$allocator@D@2@@_STL@@QAEAAV01@PBD0@Z
_TEXT	SEGMENT PARA USE32 PUBLIC 'CODE'
_TEXT	ENDS
;	COMDAT ?_M_terminate_string@?$basic_string@DV?$char_traits@D@_STL@@V?$allocator@D@2@@_STL@@AAEXXZ
_TEXT	SEGMENT PARA USE32 PUBLIC 'CODE'
_TEXT	ENDS
;	COMDAT ??0?$_String_base@DV?$allocator@D@_STL@@@_STL@@QAE@ABV?$allocator@D@1@@Z
_TEXT	SEGMENT PARA USE32 PUBLIC 'CODE'
_TEXT	ENDS
;	COMDAT ??0?$allocator@D@_STL@@QAE@XZ
_TEXT	SEGMENT PARA USE32 PUBLIC 'CODE'
_TEXT	ENDS
;	COMDAT ?allocate@?$allocator@D@_STL@@QAEPADIPBX@Z
_TEXT	SEGMENT PARA USE32 PUBLIC 'CODE'
_TEXT	ENDS
;	COMDAT ?_M_exit_putback_mode@?$basic_filebuf@DV?$char_traits@D@_STL@@@_STL@@AAEXXZ
_TEXT	SEGMENT PARA USE32 PUBLIC 'CODE'
_TEXT	ENDS
;	COMDAT ??R?$_Eq_traits@V?$char_traits@D@_STL@@@_STL@@QBE_NABD0@Z
_TEXT	SEGMENT PARA USE32 PUBLIC 'CODE'
_TEXT	ENDS
;	COMDAT ?_M_terminate_string_aux@?$basic_string@DV?$char_traits@D@_STL@@V?$allocator@D@2@@_STL@@AAEXABU__true_type@2@@Z
_TEXT	SEGMENT PARA USE32 PUBLIC 'CODE'
_TEXT	ENDS
;	COMDAT ??0?$_STLP_alloc_proxy@PADDV?$allocator@D@_STL@@@_STL@@QAE@ABV?$allocator@D@1@PAD@Z
_TEXT	SEGMENT PARA USE32 PUBLIC 'CODE'
_TEXT	ENDS
;	COMDAT ?allocate@?$__node_alloc@$00$0A@@_STL@@SAPAXI@Z
_TEXT	SEGMENT PARA USE32 PUBLIC 'CODE'
_TEXT	ENDS
;	COMDAT ??0?$allocator@D@_STL@@QAE@ABV01@@Z
_TEXT	SEGMENT PARA USE32 PUBLIC 'CODE'
_TEXT	ENDS
;	COMDAT ?_M_unshift@?$basic_filebuf@DV?$char_traits@D@_STL@@@_STL@@AAE_NXZ
_TEXT	SEGMENT PARA USE32 PUBLIC 'CODE'
_TEXT	ENDS
;	COMDAT ?_M_allocate_buffers@?$basic_filebuf@DV?$char_traits@D@_STL@@@_STL@@AAE_NXZ
_TEXT	SEGMENT PARA USE32 PUBLIC 'CODE'
_TEXT	ENDS
;	COMDAT ??$max@H@_STL@@YAABHABH0@Z
_TEXT	SEGMENT PARA USE32 PUBLIC 'CODE'
_TEXT	ENDS
;	COMDAT ??$use_facet@V?$codecvt@DDH@_STL@@@_STL@@YAABV?$codecvt@DDH@0@ABVlocale@0@@Z
_TEXT	SEGMENT PARA USE32 PUBLIC 'CODE'
_TEXT	ENDS
;	COMDAT ??$_M_append_dispatch@PBD@?$basic_string@DV?$char_traits@D@_STL@@V?$allocator@D@2@@_STL@@AAEAAV01@PBD0ABU__false_type@1@@Z
_TEXT	SEGMENT PARA USE32 PUBLIC 'CODE'
_TEXT	ENDS
;	COMDAT ??$append@PBD@?$basic_string@DV?$char_traits@D@_STL@@V?$allocator@D@2@@_STL@@AAEAAV01@PBD0ABUforward_iterator_tag@1@@Z
_TEXT	SEGMENT PARA USE32 PUBLIC 'CODE'
_TEXT	ENDS
;	COMDAT ?_M_construct_null@?$basic_string@DV?$char_traits@D@_STL@@V?$allocator@D@2@@_STL@@AAEXPAD@Z
_TEXT	SEGMENT PARA USE32 PUBLIC 'CODE'
_TEXT	ENDS
;	COMDAT ?max_size@?$basic_string@DV?$char_traits@D@_STL@@V?$allocator@D@2@@_STL@@QBEIXZ
_TEXT	SEGMENT PARA USE32 PUBLIC 'CODE'
_TEXT	ENDS
;	COMDAT ?capacity@?$basic_string@DV?$char_traits@D@_STL@@V?$allocator@D@2@@_STL@@QBEIXZ
_TEXT	SEGMENT PARA USE32 PUBLIC 'CODE'
_TEXT	ENDS
;	COMDAT ?_M_construct_null_aux@?$basic_string@DV?$char_traits@D@_STL@@V?$allocator@D@2@@_STL@@AAEXPADABU__true_type@2@@Z
_TEXT	SEGMENT PARA USE32 PUBLIC 'CODE'
_TEXT	ENDS
;	COMDAT ?max_size@?$_String_base@DV?$allocator@D@_STL@@@_STL@@QBEIXZ
_TEXT	SEGMENT PARA USE32 PUBLIC 'CODE'
_TEXT	ENDS
;	COMDAT ??$distance@PBD@_STL@@YAHABQBD0@Z
_TEXT	SEGMENT PARA USE32 PUBLIC 'CODE'
_TEXT	ENDS
;	COMDAT ?_M_throw_length_error@?$_String_base@DV?$allocator@D@_STL@@@_STL@@QBEXXZ
_TEXT	SEGMENT PARA USE32 PUBLIC 'CODE'
_TEXT	ENDS
;	COMDAT ??$max@I@_STL@@YAABIABI0@Z
_TEXT	SEGMENT PARA USE32 PUBLIC 'CODE'
_TEXT	ENDS
;	COMDAT ??$uninitialized_copy@PADPAD@_STL@@YAPADPAD00@Z
_TEXT	SEGMENT PARA USE32 PUBLIC 'CODE'
_TEXT	ENDS
;	COMDAT ??$__distance@PBD@_STL@@YAHABQBD0ABUrandom_access_iterator_tag@0@@Z
_TEXT	SEGMENT PARA USE32 PUBLIC 'CODE'
_TEXT	ENDS
;	COMDAT ??$__uninitialized_copy@PADPAD@_STL@@YAPADPAD00ABU__true_type@0@@Z
_TEXT	SEGMENT PARA USE32 PUBLIC 'CODE'
_TEXT	ENDS
;	COMDAT ?_Ret@?$_BothPtrType@PADPAD@_STL@@SA?AU__true_type@2@XZ
_TEXT	SEGMENT PARA USE32 PUBLIC 'CODE'
_TEXT	ENDS
;	COMDAT ??$__copy_aux@PADPAD@_STL@@YAPADPAD00ABU__true_type@0@@Z
_TEXT	SEGMENT PARA USE32 PUBLIC 'CODE'
_TEXT	ENDS
;	COMDAT ?_Ret@?$_OKToMemCpy@DD@_STL@@SA?AU__true_type@2@XZ
_TEXT	SEGMENT PARA USE32 PUBLIC 'CODE'
_TEXT	ENDS
;	COMDAT ??$_IsOKToMemCpy@DD@_STL@@YA?AU?$_OKToMemCpy@DD@0@PAD0@Z
_TEXT	SEGMENT PARA USE32 PUBLIC 'CODE'
_TEXT	ENDS
;	COMDAT ??$__copy_ptrs@PADPAD@_STL@@YAPADPAD00ABU__true_type@0@@Z
_TEXT	SEGMENT PARA USE32 PUBLIC 'CODE'
_TEXT	ENDS
;	COMDAT ??_R3IFileIO@@8
rdata$r	SEGMENT DWORD USE32 PUBLIC 'CONST'
rdata$r	ENDS
;	COMDAT ??_R3ovfstream@@8
rdata$r	SEGMENT DWORD USE32 PUBLIC 'CONST'
rdata$r	ENDS
;	COMDAT ??_R3ivfstream@@8
rdata$r	SEGMENT DWORD USE32 PUBLIC 'CONST'
rdata$r	ENDS
;	COMDAT ??_R3iovfs_base@@8
rdata$r	SEGMENT DWORD USE32 PUBLIC 'CONST'
rdata$r	ENDS
;	COMDAT ??_R2IFileIO@@8
rdata$r	SEGMENT DWORD USE32 PUBLIC 'CONST'
rdata$r	ENDS
;	COMDAT ??_R2ovfstream@@8
rdata$r	SEGMENT DWORD USE32 PUBLIC 'CONST'
rdata$r	ENDS
;	COMDAT ??_R2ivfstream@@8
rdata$r	SEGMENT DWORD USE32 PUBLIC 'CONST'
rdata$r	ENDS
;	COMDAT ??_R2iovfs_base@@8
rdata$r	SEGMENT DWORD USE32 PUBLIC 'CONST'
rdata$r	ENDS
;	COMDAT ??_R1A@?0A@A@IFileIO@@8
rdata$r	SEGMENT DWORD USE32 PUBLIC 'CONST'
rdata$r	ENDS
;	COMDAT ??_R1A@?0A@A@ovfstream@@8
rdata$r	SEGMENT DWORD USE32 PUBLIC 'CONST'
rdata$r	ENDS
;	COMDAT ??_R1A@?0A@A@ivfstream@@8
rdata$r	SEGMENT DWORD USE32 PUBLIC 'CONST'
rdata$r	ENDS
;	COMDAT ??_R1A@?0A@A@iovfs_base@@8
rdata$r	SEGMENT DWORD USE32 PUBLIC 'CONST'
rdata$r	ENDS
;	COMDAT ??_R0?AVIFileIO@@@8
_DATA	SEGMENT DWORD USE32 PUBLIC 'DATA'
_DATA	ENDS
;	COMDAT ??_R0?AVovfstream@@@8
_DATA	SEGMENT DWORD USE32 PUBLIC 'DATA'
_DATA	ENDS
;	COMDAT ??_R0?AVivfstream@@@8
_DATA	SEGMENT DWORD USE32 PUBLIC 'DATA'
_DATA	ENDS
;	COMDAT ??_R0?AViovfs_base@@@8
_DATA	SEGMENT DWORD USE32 PUBLIC 'DATA'
_DATA	ENDS
;	COMDAT ??_R4IFileIO@@6B@
rdata$r	SEGMENT DWORD USE32 PUBLIC 'CONST'
rdata$r	ENDS
;	COMDAT ??_R4ovfstream@@6B@
rdata$r	SEGMENT DWORD USE32 PUBLIC 'CONST'
rdata$r	ENDS
;	COMDAT ??_R4ivfstream@@6B@
rdata$r	SEGMENT DWORD USE32 PUBLIC 'CONST'
rdata$r	ENDS
;	COMDAT ??_R4iovfs_base@@6B@
rdata$r	SEGMENT DWORD USE32 PUBLIC 'CONST'
rdata$r	ENDS
;	COMDAT ?__copy_trivial@_STL@@YAPAXPBX0PAX@Z
_TEXT	SEGMENT PARA USE32 PUBLIC 'CODE'
_TEXT	ENDS
;	COMDAT ?assign@?$char_traits@D@_STL@@SAXAADABD@Z
_TEXT	SEGMENT PARA USE32 PUBLIC 'CODE'
_TEXT	ENDS
;	COMDAT ?_M_deallocate_block@?$_String_base@DV?$allocator@D@_STL@@@_STL@@QAEXXZ
_TEXT	SEGMENT PARA USE32 PUBLIC 'CODE'
_TEXT	ENDS
;	COMDAT ?deallocate@?$allocator@D@_STL@@QAEXPADI@Z
_TEXT	SEGMENT PARA USE32 PUBLIC 'CODE'
_TEXT	ENDS
;	COMDAT ?deallocate@?$__node_alloc@$00$0A@@_STL@@SAXPAXI@Z
_TEXT	SEGMENT PARA USE32 PUBLIC 'CODE'
_TEXT	ENDS
;	COMDAT ?__stl_delete@_STL@@YAXPAX@Z
_TEXT	SEGMENT PARA USE32 PUBLIC 'CODE'
_TEXT	ENDS
;	COMDAT ?uninitialized_copy@_STL@@YAPADPBD0PAD@Z
_TEXT	SEGMENT PARA USE32 PUBLIC 'CODE'
_TEXT	ENDS
;	COMDAT ?__page_size@_Filebuf_base@_STL@@SAIXZ
_TEXT	SEGMENT PARA USE32 PUBLIC 'CODE'
_TEXT	ENDS
;	COMDAT ?_M_write@?$basic_filebuf@DV?$char_traits@D@_STL@@@_STL@@QAE_NPADH@Z
_TEXT	SEGMENT PARA USE32 PUBLIC 'CODE'
_TEXT	ENDS
;	COMDAT ?unshift@?$codecvt@DDH@_STL@@QBE?AW4result@codecvt_base@2@AAHPAD1AAPAD@Z
_TEXT	SEGMENT PARA USE32 PUBLIC 'CODE'
_TEXT	ENDS
;	COMDAT ?__stl_new@_STL@@YAPAXI@Z
_TEXT	SEGMENT PARA USE32 PUBLIC 'CODE'
_TEXT	ENDS
;	COMDAT ??1?$_STLP_alloc_proxy@PADDV?$allocator@D@_STL@@@_STL@@QAE@XZ
_TEXT	SEGMENT PARA USE32 PUBLIC 'CODE'
_TEXT	ENDS
;	COMDAT ??1?$_String_base@DV?$allocator@D@_STL@@@_STL@@QAE@XZ
_TEXT	SEGMENT PARA USE32 PUBLIC 'CODE'
_TEXT	ENDS
;	COMDAT ??1?$allocator@D@_STL@@QAE@XZ
_TEXT	SEGMENT PARA USE32 PUBLIC 'CODE'
_TEXT	ENDS
;	COMDAT ?always_noconv@?$codecvt@DDH@_STL@@QBE_NXZ
_TEXT	SEGMENT PARA USE32 PUBLIC 'CODE'
_TEXT	ENDS
;	COMDAT ?encoding@?$codecvt@DDH@_STL@@QBEHXZ
_TEXT	SEGMENT PARA USE32 PUBLIC 'CODE'
_TEXT	ENDS
;	COMDAT ?max_length@?$codecvt@DDH@_STL@@QBEHXZ
_TEXT	SEGMENT PARA USE32 PUBLIC 'CODE'
_TEXT	ENDS
;	COMDAT ?__o_mode@_Filebuf_base@_STL@@QBEHXZ
_TEXT	SEGMENT PARA USE32 PUBLIC 'CODE'
_TEXT	ENDS
;	COMDAT ?_Destroy@_STL@@YAXPAD0@Z
_TEXT	SEGMENT PARA USE32 PUBLIC 'CODE'
_TEXT	ENDS
;	COMDAT ?setp@?$basic_streambuf@DV?$char_traits@D@_STL@@@_STL@@IAEXPAD0@Z
_TEXT	SEGMENT PARA USE32 PUBLIC 'CODE'
_TEXT	ENDS
;	COMDAT ?_FILE_O_set@_STL@@YAXPAU_iobuf@@PAD11@Z
_TEXT	SEGMENT PARA USE32 PUBLIC 'CODE'
_TEXT	ENDS
;	COMDAT ?_FILE_I_set@_STL@@YAXPAU_iobuf@@PAD11@Z
_TEXT	SEGMENT PARA USE32 PUBLIC 'CODE'
_TEXT	ENDS
;	COMDAT ?setg@?$basic_streambuf@DV?$char_traits@D@_STL@@@_STL@@IAEXPAD00@Z
_TEXT	SEGMENT PARA USE32 PUBLIC 'CODE'
_TEXT	ENDS
;	COMDAT ?__is_open@_Filebuf_base@_STL@@QBE_NXZ
_TEXT	SEGMENT PARA USE32 PUBLIC 'CODE'
_TEXT	ENDS
;	COMDAT ?length@?$char_traits@D@_STL@@SAIPBD@Z
_TEXT	SEGMENT PARA USE32 PUBLIC 'CODE'
_TEXT	ENDS
;	COMDAT ?eof@?$__char_traits_base@DH@_STL@@SAHXZ
_TEXT	SEGMENT PARA USE32 PUBLIC 'CODE'
_TEXT	ENDS
;	COMDAT ??_7ovfstream@@6B@
CONST	SEGMENT DWORD USE32 PUBLIC 'CONST'
CONST	ENDS
;	COMDAT ??_7ivfstream@@6B@
CONST	SEGMENT DWORD USE32 PUBLIC 'CONST'
CONST	ENDS
;	COMDAT ??1?$basic_string@DV?$char_traits@D@_STL@@V?$allocator@D@2@@_STL@@QAE@XZ
_TEXT	SEGMENT PARA USE32 PUBLIC 'CODE'
_TEXT	ENDS
;	COMDAT ??_7iovfs_base@@6B@
CONST	SEGMENT DWORD USE32 PUBLIC 'CONST'
CONST	ENDS
;	COMDAT ??_7IFileIO@@6B@
CONST	SEGMENT DWORD USE32 PUBLIC 'CONST'
CONST	ENDS
sxdata	SEGMENT DWORD USE32 'SXDATA'
sxdata	ENDS
FLAT	GROUP _DATA, CONST, _BSS
	ASSUME	CS: FLAT, DS: FLAT, SS: FLAT
endif

INCLUDELIB LIBCMT
INCLUDELIB OLDNAMES

PUBLIC	?ACCELERATOR_NAME@@3PAY01PBDA			; ACCELERATOR_NAME
PUBLIC	??_C@_0BA@LLFMIGOM@AcceleratorNULL?$AA@		; `string'
PUBLIC	??_C@_04OHJIHAFH@None?$AA@			; `string'
PUBLIC	??_C@_02LCPENACN@F1?$AA@			; `string'
PUBLIC	??_C@_02JJNJIDOO@F2?$AA@			; `string'
PUBLIC	??_C@_02IAMCLCKP@F3?$AA@			; `string'
PUBLIC	??_C@_02MPIDCEGI@F4?$AA@			; `string'
PUBLIC	??_C@_02NGJIBFCJ@F5?$AA@			; `string'
PUBLIC	??_C@_02PNLFEGOK@F6?$AA@			; `string'
PUBLIC	??_C@_02OEKOHHKL@F7?$AA@			; `string'
PUBLIC	??_C@_02GDDGGLGE@F8?$AA@			; `string'
PUBLIC	??_C@_02HKCNFKCF@F9?$AA@			; `string'
PUBLIC	??_C@_03JKCLJOFG@F10?$AA@			; `string'
PUBLIC	??_C@_03IDDAKPBH@F11?$AA@			; `string'
PUBLIC	??_C@_03KIBNPMNE@F12?$AA@			; `string'
PUBLIC	??_C@_03MHNPAEMD@ESC?$AA@			; `string'
PUBLIC	??_C@_05LGELBCGM@Close?$AA@			; `string'
PUBLIC	??_C@_05CIFECOEH@SKILL?$AA@			; `string'
PUBLIC	??_C@_05OEGOMMDP@Skill?$AA@			; `string'
PUBLIC	??_C@_09NCAHJFFG@INVENTORY?$AA@			; `string'
PUBLIC	??_C@_09KNKLKLHB@Inventory?$AA@			; `string'
PUBLIC	??_C@_04IGBBPMJF@GEAR?$AA@			; `string'
PUBLIC	??_C@_04ILOKDBOJ@Gear?$AA@			; `string'
PUBLIC	??_C@_08IKHFGNHE@CHARINFO?$AA@			; `string'
PUBLIC	??_C@_0P@FEELDLPM@Character?5info?$AA@		; `string'
PUBLIC	??_C@_09PCKMIMEK@SKILLINFO?$AA@			; `string'
PUBLIC	??_C@_0M@JHBDNCJI@Skills?5info?$AA@		; `string'
PUBLIC	??_C@_06GDJADEIA@GRADE1?$AA@			; `string'
PUBLIC	??_C@_09EABEKOEN@Rank?5info?$AA@		; `string'
PUBLIC	??_C@_08DMEGOBOM@WORLDMAP?$AA@			; `string'
PUBLIC	??_C@_09JLMGGBMG@World?5map?$AA@		; `string'
PUBLIC	??_C@_05EGOIIAAK@PARTY?$AA@			; `string'
PUBLIC	??_C@_05IKNCGCHC@Party?$AA@			; `string'
PUBLIC	??_C@_04DOKPJKJF@HELP?$AA@			; `string'
PUBLIC	??_C@_04DDFEFHOJ@Help?$AA@			; `string'
PUBLIC	??_C@_0P@MLGCFIOL@QUICKITEM_SLOT?$AA@		; `string'
PUBLIC	??_C@_0P@OGPMLIDM@Quickitem?5slot?$AA@		; `string'
PUBLIC	??_C@_0M@FFJKLDBA@EXTEND_CHAT?$AA@		; `string'
PUBLIC	??_C@_0M@EKCIEKGE@Expand?5chat?$AA@		; `string'
PUBLIC	??_C@_07BOMALP@CHAT_UP?$AA@			; `string'
PUBLIC	??_C@_07JHFLABJJ@Chat?5up?$AA@			; `string'
PUBLIC	??_C@_07MJLLDGCH@CHAT_DN?$AA@			; `string'
PUBLIC	??_C@_09CILOFHJJ@Chat?5down?$AA@		; `string'
PUBLIC	??_C@_0L@CFBCIODH@NOMAL_CHAT?$AA@		; `string'
PUBLIC	??_C@_0N@NPMBMPNN@General?5Chat?$AA@		; `string'
PUBLIC	??_C@_09IKOIFABB@ZONE_CHAT?$AA@			; `string'
PUBLIC	??_C@_09IJMNEBE@Zone?5chat?$AA@			; `string'
PUBLIC	??_C@_0M@IHCOHCJN@WISPER_CHAT?$AA@		; `string'
PUBLIC	??_C@_0N@KKHOGCCO@Whisper?5chat?$AA@		; `string'
PUBLIC	??_C@_0L@LFJPFAMP@PARTY_CHAT?$AA@		; `string'
PUBLIC	??_C@_0L@HILGNHBK@Party?5chat?$AA@		; `string'
PUBLIC	??_C@_0L@JLNFKLCJ@GUILD_CHAT?$AA@		; `string'
PUBLIC	??_C@_0L@FGPMCMPM@Guild?5chat?$AA@		; `string'
PUBLIC	??_C@_0L@JIPOPEJB@UNION_CHAT?$AA@		; `string'
PUBLIC	??_C@_0L@FFNHHDEE@Union?5chat?$AA@		; `string'
PUBLIC	??_C@_05GFPLGFAD@QUEST?$AA@			; `string'
PUBLIC	??_C@_05KJMBIHHL@Quest?$AA@			; `string'
PUBLIC	??_C@_07EHNEOKJM@MAILBOX?$AA@			; `string'
PUBLIC	??_C@_07EDPPDEEO@Mailbox?$AA@			; `string'
PUBLIC	??_C@_07GDAJHEOB@PETINFO?$AA@			; `string'
PUBLIC	??_C@_0BA@DHFGHCGN@Pet?5information?$AA@	; `string'
PUBLIC	??_C@_09JLJBOLDG@SUMMONPET?$AA@			; `string'
PUBLIC	??_C@_0L@GDDHAAPE@Summon?5pet?$AA@		; `string'
PUBLIC	??_C@_0M@OGKEBIPK@TRIBE_PRIOR?$AA@		; `string'
PUBLIC	??_C@_0M@IFFEDDIE@Tribe?5prior?$AA@		; `string'
PUBLIC	??_C@_0L@OEONIPIP@TRIBE_NEXT?$AA@		; `string'
PUBLIC	??_C@_0L@CJMEAIFK@Tribe?5next?$AA@		; `string'
PUBLIC	??_C@_0BA@MDFLLFHE@COERCION_ATTACK?$AA@		; `string'
PUBLIC	??_C@_0BA@NIGDAJOJ@Coercion?5Attack?$AA@	; `string'
PUBLIC	??_C@_0M@OBNOHPMP@AUTO_ATTACK?$AA@		; `string'
PUBLIC	??_C@_0BA@DOGKAPND@OneClick?5Attack?$AA@	; `string'
PUBLIC	??_C@_0M@FPGGIOEA@SCREEN?5SHOT?$AA@		; `string'
PUBLIC	??_C@_0L@KKOCHHLN@Screenshot?$AA@		; `string'
PUBLIC	??_C@_07DLPKKMGH@MINIMAP?$AA@			; `string'
PUBLIC	??_C@_07DPNBHCLF@Minimap?$AA@			; `string'
PUBLIC	??_C@_0M@LGHPKPFB@GEAR_CHANGE?$AA@		; `string'
PUBLIC	??_C@_0M@EDKJMFIH@Gear?5Change?$AA@		; `string'
PUBLIC	??_C@_0BB@KPLOLHPO@GEAR_CHANGE_SHOW?$AA@	; `string'
PUBLIC	??_C@_0N@JOOPOLDH@Gear?5Change2?$AA@		; `string'
;	COMDAT ??_C@_0BA@LLFMIGOM@AcceleratorNULL?$AA@
CONST	SEGMENT
??_C@_0BA@LLFMIGOM@AcceleratorNULL?$AA@ DB 'AcceleratorNULL', 00H ; `string'
CONST	ENDS
;	COMDAT ??_C@_04OHJIHAFH@None?$AA@
CONST	SEGMENT
??_C@_04OHJIHAFH@None?$AA@ DB 'None', 00H		; `string'
CONST	ENDS
;	COMDAT ??_C@_02LCPENACN@F1?$AA@
CONST	SEGMENT
??_C@_02LCPENACN@F1?$AA@ DB 'F1', 00H			; `string'
CONST	ENDS
;	COMDAT ??_C@_02JJNJIDOO@F2?$AA@
CONST	SEGMENT
??_C@_02JJNJIDOO@F2?$AA@ DB 'F2', 00H			; `string'
CONST	ENDS
;	COMDAT ??_C@_02IAMCLCKP@F3?$AA@
CONST	SEGMENT
??_C@_02IAMCLCKP@F3?$AA@ DB 'F3', 00H			; `string'
CONST	ENDS
;	COMDAT ??_C@_02MPIDCEGI@F4?$AA@
CONST	SEGMENT
??_C@_02MPIDCEGI@F4?$AA@ DB 'F4', 00H			; `string'
CONST	ENDS
;	COMDAT ??_C@_02NGJIBFCJ@F5?$AA@
CONST	SEGMENT
??_C@_02NGJIBFCJ@F5?$AA@ DB 'F5', 00H			; `string'
CONST	ENDS
;	COMDAT ??_C@_02PNLFEGOK@F6?$AA@
CONST	SEGMENT
??_C@_02PNLFEGOK@F6?$AA@ DB 'F6', 00H			; `string'
CONST	ENDS
;	COMDAT ??_C@_02OEKOHHKL@F7?$AA@
CONST	SEGMENT
??_C@_02OEKOHHKL@F7?$AA@ DB 'F7', 00H			; `string'
CONST	ENDS
;	COMDAT ??_C@_02GDDGGLGE@F8?$AA@
CONST	SEGMENT
??_C@_02GDDGGLGE@F8?$AA@ DB 'F8', 00H			; `string'
CONST	ENDS
;	COMDAT ??_C@_02HKCNFKCF@F9?$AA@
CONST	SEGMENT
??_C@_02HKCNFKCF@F9?$AA@ DB 'F9', 00H			; `string'
CONST	ENDS
;	COMDAT ??_C@_03JKCLJOFG@F10?$AA@
CONST	SEGMENT
??_C@_03JKCLJOFG@F10?$AA@ DB 'F10', 00H			; `string'
CONST	ENDS
;	COMDAT ??_C@_03IDDAKPBH@F11?$AA@
CONST	SEGMENT
??_C@_03IDDAKPBH@F11?$AA@ DB 'F11', 00H			; `string'
CONST	ENDS
;	COMDAT ??_C@_03KIBNPMNE@F12?$AA@
CONST	SEGMENT
??_C@_03KIBNPMNE@F12?$AA@ DB 'F12', 00H			; `string'
CONST	ENDS
;	COMDAT ??_C@_03MHNPAEMD@ESC?$AA@
CONST	SEGMENT
??_C@_03MHNPAEMD@ESC?$AA@ DB 'ESC', 00H			; `string'
CONST	ENDS
;	COMDAT ??_C@_05LGELBCGM@Close?$AA@
CONST	SEGMENT
??_C@_05LGELBCGM@Close?$AA@ DB 'Close', 00H		; `string'
CONST	ENDS
;	COMDAT ??_C@_05CIFECOEH@SKILL?$AA@
CONST	SEGMENT
??_C@_05CIFECOEH@SKILL?$AA@ DB 'SKILL', 00H		; `string'
CONST	ENDS
;	COMDAT ??_C@_05OEGOMMDP@Skill?$AA@
CONST	SEGMENT
??_C@_05OEGOMMDP@Skill?$AA@ DB 'Skill', 00H		; `string'
CONST	ENDS
;	COMDAT ??_C@_09NCAHJFFG@INVENTORY?$AA@
CONST	SEGMENT
??_C@_09NCAHJFFG@INVENTORY?$AA@ DB 'INVENTORY', 00H	; `string'
CONST	ENDS
;	COMDAT ??_C@_09KNKLKLHB@Inventory?$AA@
CONST	SEGMENT
??_C@_09KNKLKLHB@Inventory?$AA@ DB 'Inventory', 00H	; `string'
CONST	ENDS
;	COMDAT ??_C@_04IGBBPMJF@GEAR?$AA@
CONST	SEGMENT
??_C@_04IGBBPMJF@GEAR?$AA@ DB 'GEAR', 00H		; `string'
CONST	ENDS
;	COMDAT ??_C@_04ILOKDBOJ@Gear?$AA@
CONST	SEGMENT
??_C@_04ILOKDBOJ@Gear?$AA@ DB 'Gear', 00H		; `string'
CONST	ENDS
;	COMDAT ??_C@_08IKHFGNHE@CHARINFO?$AA@
CONST	SEGMENT
??_C@_08IKHFGNHE@CHARINFO?$AA@ DB 'CHARINFO', 00H	; `string'
CONST	ENDS
;	COMDAT ??_C@_0P@FEELDLPM@Character?5info?$AA@
CONST	SEGMENT
??_C@_0P@FEELDLPM@Character?5info?$AA@ DB 'Character info', 00H ; `string'
CONST	ENDS
;	COMDAT ??_C@_09PCKMIMEK@SKILLINFO?$AA@
CONST	SEGMENT
??_C@_09PCKMIMEK@SKILLINFO?$AA@ DB 'SKILLINFO', 00H	; `string'
CONST	ENDS
;	COMDAT ??_C@_0M@JHBDNCJI@Skills?5info?$AA@
CONST	SEGMENT
??_C@_0M@JHBDNCJI@Skills?5info?$AA@ DB 'Skills info', 00H ; `string'
CONST	ENDS
;	COMDAT ??_C@_06GDJADEIA@GRADE1?$AA@
CONST	SEGMENT
??_C@_06GDJADEIA@GRADE1?$AA@ DB 'GRADE1', 00H		; `string'
CONST	ENDS
;	COMDAT ??_C@_09EABEKOEN@Rank?5info?$AA@
CONST	SEGMENT
??_C@_09EABEKOEN@Rank?5info?$AA@ DB 'Rank info', 00H	; `string'
CONST	ENDS
;	COMDAT ??_C@_08DMEGOBOM@WORLDMAP?$AA@
CONST	SEGMENT
??_C@_08DMEGOBOM@WORLDMAP?$AA@ DB 'WORLDMAP', 00H	; `string'
CONST	ENDS
;	COMDAT ??_C@_09JLMGGBMG@World?5map?$AA@
CONST	SEGMENT
??_C@_09JLMGGBMG@World?5map?$AA@ DB 'World map', 00H	; `string'
CONST	ENDS
;	COMDAT ??_C@_05EGOIIAAK@PARTY?$AA@
CONST	SEGMENT
??_C@_05EGOIIAAK@PARTY?$AA@ DB 'PARTY', 00H		; `string'
CONST	ENDS
;	COMDAT ??_C@_05IKNCGCHC@Party?$AA@
CONST	SEGMENT
??_C@_05IKNCGCHC@Party?$AA@ DB 'Party', 00H		; `string'
CONST	ENDS
;	COMDAT ??_C@_04DOKPJKJF@HELP?$AA@
CONST	SEGMENT
??_C@_04DOKPJKJF@HELP?$AA@ DB 'HELP', 00H		; `string'
CONST	ENDS
;	COMDAT ??_C@_04DDFEFHOJ@Help?$AA@
CONST	SEGMENT
??_C@_04DDFEFHOJ@Help?$AA@ DB 'Help', 00H		; `string'
CONST	ENDS
;	COMDAT ??_C@_0P@MLGCFIOL@QUICKITEM_SLOT?$AA@
CONST	SEGMENT
??_C@_0P@MLGCFIOL@QUICKITEM_SLOT?$AA@ DB 'QUICKITEM_SLOT', 00H ; `string'
CONST	ENDS
;	COMDAT ??_C@_0P@OGPMLIDM@Quickitem?5slot?$AA@
CONST	SEGMENT
??_C@_0P@OGPMLIDM@Quickitem?5slot?$AA@ DB 'Quickitem slot', 00H ; `string'
CONST	ENDS
;	COMDAT ??_C@_0M@FFJKLDBA@EXTEND_CHAT?$AA@
CONST	SEGMENT
??_C@_0M@FFJKLDBA@EXTEND_CHAT?$AA@ DB 'EXTEND_CHAT', 00H ; `string'
CONST	ENDS
;	COMDAT ??_C@_0M@EKCIEKGE@Expand?5chat?$AA@
CONST	SEGMENT
??_C@_0M@EKCIEKGE@Expand?5chat?$AA@ DB 'Expand chat', 00H ; `string'
CONST	ENDS
;	COMDAT ??_C@_07BOMALP@CHAT_UP?$AA@
CONST	SEGMENT
??_C@_07BOMALP@CHAT_UP?$AA@ DB 'CHAT_UP', 00H		; `string'
CONST	ENDS
;	COMDAT ??_C@_07JHFLABJJ@Chat?5up?$AA@
CONST	SEGMENT
??_C@_07JHFLABJJ@Chat?5up?$AA@ DB 'Chat up', 00H	; `string'
CONST	ENDS
;	COMDAT ??_C@_07MJLLDGCH@CHAT_DN?$AA@
CONST	SEGMENT
??_C@_07MJLLDGCH@CHAT_DN?$AA@ DB 'CHAT_DN', 00H		; `string'
CONST	ENDS
;	COMDAT ??_C@_09CILOFHJJ@Chat?5down?$AA@
CONST	SEGMENT
??_C@_09CILOFHJJ@Chat?5down?$AA@ DB 'Chat down', 00H	; `string'
CONST	ENDS
;	COMDAT ??_C@_0L@CFBCIODH@NOMAL_CHAT?$AA@
CONST	SEGMENT
??_C@_0L@CFBCIODH@NOMAL_CHAT?$AA@ DB 'NOMAL_CHAT', 00H	; `string'
CONST	ENDS
;	COMDAT ??_C@_0N@NPMBMPNN@General?5Chat?$AA@
CONST	SEGMENT
??_C@_0N@NPMBMPNN@General?5Chat?$AA@ DB 'General Chat', 00H ; `string'
CONST	ENDS
;	COMDAT ??_C@_09IKOIFABB@ZONE_CHAT?$AA@
CONST	SEGMENT
??_C@_09IKOIFABB@ZONE_CHAT?$AA@ DB 'ZONE_CHAT', 00H	; `string'
CONST	ENDS
;	COMDAT ??_C@_09IJMNEBE@Zone?5chat?$AA@
CONST	SEGMENT
??_C@_09IJMNEBE@Zone?5chat?$AA@ DB 'Zone chat', 00H	; `string'
CONST	ENDS
;	COMDAT ??_C@_0M@IHCOHCJN@WISPER_CHAT?$AA@
CONST	SEGMENT
??_C@_0M@IHCOHCJN@WISPER_CHAT?$AA@ DB 'WISPER_CHAT', 00H ; `string'
CONST	ENDS
;	COMDAT ??_C@_0N@KKHOGCCO@Whisper?5chat?$AA@
CONST	SEGMENT
??_C@_0N@KKHOGCCO@Whisper?5chat?$AA@ DB 'Whisper chat', 00H ; `string'
CONST	ENDS
;	COMDAT ??_C@_0L@LFJPFAMP@PARTY_CHAT?$AA@
CONST	SEGMENT
??_C@_0L@LFJPFAMP@PARTY_CHAT?$AA@ DB 'PARTY_CHAT', 00H	; `string'
CONST	ENDS
;	COMDAT ??_C@_0L@HILGNHBK@Party?5chat?$AA@
CONST	SEGMENT
??_C@_0L@HILGNHBK@Party?5chat?$AA@ DB 'Party chat', 00H	; `string'
CONST	ENDS
;	COMDAT ??_C@_0L@JLNFKLCJ@GUILD_CHAT?$AA@
CONST	SEGMENT
??_C@_0L@JLNFKLCJ@GUILD_CHAT?$AA@ DB 'GUILD_CHAT', 00H	; `string'
CONST	ENDS
;	COMDAT ??_C@_0L@FGPMCMPM@Guild?5chat?$AA@
CONST	SEGMENT
??_C@_0L@FGPMCMPM@Guild?5chat?$AA@ DB 'Guild chat', 00H	; `string'
CONST	ENDS
;	COMDAT ??_C@_0L@JIPOPEJB@UNION_CHAT?$AA@
CONST	SEGMENT
??_C@_0L@JIPOPEJB@UNION_CHAT?$AA@ DB 'UNION_CHAT', 00H	; `string'
CONST	ENDS
;	COMDAT ??_C@_0L@FFNHHDEE@Union?5chat?$AA@
CONST	SEGMENT
??_C@_0L@FFNHHDEE@Union?5chat?$AA@ DB 'Union chat', 00H	; `string'
CONST	ENDS
;	COMDAT ??_C@_05GFPLGFAD@QUEST?$AA@
CONST	SEGMENT
??_C@_05GFPLGFAD@QUEST?$AA@ DB 'QUEST', 00H		; `string'
CONST	ENDS
;	COMDAT ??_C@_05KJMBIHHL@Quest?$AA@
CONST	SEGMENT
??_C@_05KJMBIHHL@Quest?$AA@ DB 'Quest', 00H		; `string'
CONST	ENDS
;	COMDAT ??_C@_07EHNEOKJM@MAILBOX?$AA@
CONST	SEGMENT
??_C@_07EHNEOKJM@MAILBOX?$AA@ DB 'MAILBOX', 00H		; `string'
CONST	ENDS
;	COMDAT ??_C@_07EDPPDEEO@Mailbox?$AA@
CONST	SEGMENT
??_C@_07EDPPDEEO@Mailbox?$AA@ DB 'Mailbox', 00H		; `string'
CONST	ENDS
;	COMDAT ??_C@_07GDAJHEOB@PETINFO?$AA@
CONST	SEGMENT
??_C@_07GDAJHEOB@PETINFO?$AA@ DB 'PETINFO', 00H		; `string'
CONST	ENDS
;	COMDAT ??_C@_0BA@DHFGHCGN@Pet?5information?$AA@
CONST	SEGMENT
??_C@_0BA@DHFGHCGN@Pet?5information?$AA@ DB 'Pet information', 00H ; `string'
CONST	ENDS
;	COMDAT ??_C@_09JLJBOLDG@SUMMONPET?$AA@
CONST	SEGMENT
??_C@_09JLJBOLDG@SUMMONPET?$AA@ DB 'SUMMONPET', 00H	; `string'
CONST	ENDS
;	COMDAT ??_C@_0L@GDDHAAPE@Summon?5pet?$AA@
CONST	SEGMENT
??_C@_0L@GDDHAAPE@Summon?5pet?$AA@ DB 'Summon pet', 00H	; `string'
CONST	ENDS
;	COMDAT ??_C@_0M@OGKEBIPK@TRIBE_PRIOR?$AA@
CONST	SEGMENT
??_C@_0M@OGKEBIPK@TRIBE_PRIOR?$AA@ DB 'TRIBE_PRIOR', 00H ; `string'
CONST	ENDS
;	COMDAT ??_C@_0M@IFFEDDIE@Tribe?5prior?$AA@
CONST	SEGMENT
??_C@_0M@IFFEDDIE@Tribe?5prior?$AA@ DB 'Tribe prior', 00H ; `string'
CONST	ENDS
;	COMDAT ??_C@_0L@OEONIPIP@TRIBE_NEXT?$AA@
CONST	SEGMENT
??_C@_0L@OEONIPIP@TRIBE_NEXT?$AA@ DB 'TRIBE_NEXT', 00H	; `string'
CONST	ENDS
;	COMDAT ??_C@_0L@CJMEAIFK@Tribe?5next?$AA@
CONST	SEGMENT
??_C@_0L@CJMEAIFK@Tribe?5next?$AA@ DB 'Tribe next', 00H	; `string'
CONST	ENDS
;	COMDAT ??_C@_0BA@MDFLLFHE@COERCION_ATTACK?$AA@
CONST	SEGMENT
??_C@_0BA@MDFLLFHE@COERCION_ATTACK?$AA@ DB 'COERCION_ATTACK', 00H ; `string'
CONST	ENDS
;	COMDAT ??_C@_0BA@NIGDAJOJ@Coercion?5Attack?$AA@
CONST	SEGMENT
??_C@_0BA@NIGDAJOJ@Coercion?5Attack?$AA@ DB 'Coercion Attack', 00H ; `string'
CONST	ENDS
;	COMDAT ??_C@_0M@OBNOHPMP@AUTO_ATTACK?$AA@
CONST	SEGMENT
??_C@_0M@OBNOHPMP@AUTO_ATTACK?$AA@ DB 'AUTO_ATTACK', 00H ; `string'
CONST	ENDS
;	COMDAT ??_C@_0BA@DOGKAPND@OneClick?5Attack?$AA@
CONST	SEGMENT
??_C@_0BA@DOGKAPND@OneClick?5Attack?$AA@ DB 'OneClick Attack', 00H ; `string'
CONST	ENDS
;	COMDAT ??_C@_0M@FPGGIOEA@SCREEN?5SHOT?$AA@
CONST	SEGMENT
??_C@_0M@FPGGIOEA@SCREEN?5SHOT?$AA@ DB 'SCREEN SHOT', 00H ; `string'
CONST	ENDS
;	COMDAT ??_C@_0L@KKOCHHLN@Screenshot?$AA@
CONST	SEGMENT
??_C@_0L@KKOCHHLN@Screenshot?$AA@ DB 'Screenshot', 00H	; `string'
CONST	ENDS
;	COMDAT ??_C@_07DLPKKMGH@MINIMAP?$AA@
CONST	SEGMENT
??_C@_07DLPKKMGH@MINIMAP?$AA@ DB 'MINIMAP', 00H		; `string'
CONST	ENDS
;	COMDAT ??_C@_07DPNBHCLF@Minimap?$AA@
CONST	SEGMENT
??_C@_07DPNBHCLF@Minimap?$AA@ DB 'Minimap', 00H		; `string'
CONST	ENDS
;	COMDAT ??_C@_0M@LGHPKPFB@GEAR_CHANGE?$AA@
CONST	SEGMENT
??_C@_0M@LGHPKPFB@GEAR_CHANGE?$AA@ DB 'GEAR_CHANGE', 00H ; `string'
CONST	ENDS
;	COMDAT ??_C@_0M@EDKJMFIH@Gear?5Change?$AA@
CONST	SEGMENT
??_C@_0M@EDKJMFIH@Gear?5Change?$AA@ DB 'Gear Change', 00H ; `string'
CONST	ENDS
;	COMDAT ??_C@_0BB@KPLOLHPO@GEAR_CHANGE_SHOW?$AA@
CONST	SEGMENT
??_C@_0BB@KPLOLHPO@GEAR_CHANGE_SHOW?$AA@ DB 'GEAR_CHANGE_SHOW', 00H ; `string'
CONST	ENDS
;	COMDAT ??_C@_0N@JOOPOLDH@Gear?5Change2?$AA@
CONST	SEGMENT
??_C@_0N@JOOPOLDH@Gear?5Change2?$AA@ DB 'Gear Change2', 00H ; `string'
CONST	ENDS
_DATA	SEGMENT
?ACCELERATOR_NAME@@3PAY01PBDA DD FLAT:??_C@_0BA@LLFMIGOM@AcceleratorNULL?$AA@ ; ACCELERATOR_NAME
	DD	FLAT:??_C@_04OHJIHAFH@None?$AA@
	DD	FLAT:??_C@_02LCPENACN@F1?$AA@
	DD	FLAT:??_C@_02LCPENACN@F1?$AA@
	DD	FLAT:??_C@_02JJNJIDOO@F2?$AA@
	DD	FLAT:??_C@_02JJNJIDOO@F2?$AA@
	DD	FLAT:??_C@_02IAMCLCKP@F3?$AA@
	DD	FLAT:??_C@_02IAMCLCKP@F3?$AA@
	DD	FLAT:??_C@_02MPIDCEGI@F4?$AA@
	DD	FLAT:??_C@_02MPIDCEGI@F4?$AA@
	DD	FLAT:??_C@_02NGJIBFCJ@F5?$AA@
	DD	FLAT:??_C@_02NGJIBFCJ@F5?$AA@
	DD	FLAT:??_C@_02PNLFEGOK@F6?$AA@
	DD	FLAT:??_C@_02PNLFEGOK@F6?$AA@
	DD	FLAT:??_C@_02OEKOHHKL@F7?$AA@
	DD	FLAT:??_C@_02OEKOHHKL@F7?$AA@
	DD	FLAT:??_C@_02GDDGGLGE@F8?$AA@
	DD	FLAT:??_C@_02GDDGGLGE@F8?$AA@
	DD	FLAT:??_C@_02HKCNFKCF@F9?$AA@
	DD	FLAT:??_C@_02HKCNFKCF@F9?$AA@
	DD	FLAT:??_C@_03JKCLJOFG@F10?$AA@
	DD	FLAT:??_C@_03JKCLJOFG@F10?$AA@
	DD	FLAT:??_C@_03IDDAKPBH@F11?$AA@
	DD	FLAT:??_C@_03IDDAKPBH@F11?$AA@
	DD	FLAT:??_C@_03KIBNPMNE@F12?$AA@
	DD	FLAT:??_C@_03KIBNPMNE@F12?$AA@
	DD	FLAT:??_C@_03MHNPAEMD@ESC?$AA@
	DD	FLAT:??_C@_05LGELBCGM@Close?$AA@
	DD	FLAT:??_C@_05CIFECOEH@SKILL?$AA@
	DD	FLAT:??_C@_05OEGOMMDP@Skill?$AA@
	DD	FLAT:??_C@_09NCAHJFFG@INVENTORY?$AA@
	DD	FLAT:??_C@_09KNKLKLHB@Inventory?$AA@
	DD	FLAT:??_C@_04IGBBPMJF@GEAR?$AA@
	DD	FLAT:??_C@_04ILOKDBOJ@Gear?$AA@
	DD	FLAT:??_C@_08IKHFGNHE@CHARINFO?$AA@
	DD	FLAT:??_C@_0P@FEELDLPM@Character?5info?$AA@
	DD	FLAT:??_C@_09PCKMIMEK@SKILLINFO?$AA@
	DD	FLAT:??_C@_0M@JHBDNCJI@Skills?5info?$AA@
	DD	FLAT:??_C@_06GDJADEIA@GRADE1?$AA@
	DD	FLAT:??_C@_09EABEKOEN@Rank?5info?$AA@
	DD	FLAT:??_C@_08DMEGOBOM@WORLDMAP?$AA@
	DD	FLAT:??_C@_09JLMGGBMG@World?5map?$AA@
	DD	FLAT:??_C@_05EGOIIAAK@PARTY?$AA@
	DD	FLAT:??_C@_05IKNCGCHC@Party?$AA@
	DD	FLAT:??_C@_04DOKPJKJF@HELP?$AA@
	DD	FLAT:??_C@_04DDFEFHOJ@Help?$AA@
	DD	FLAT:??_C@_0P@MLGCFIOL@QUICKITEM_SLOT?$AA@
	DD	FLAT:??_C@_0P@OGPMLIDM@Quickitem?5slot?$AA@
	DD	FLAT:??_C@_0M@FFJKLDBA@EXTEND_CHAT?$AA@
	DD	FLAT:??_C@_0M@EKCIEKGE@Expand?5chat?$AA@
	DD	FLAT:??_C@_07BOMALP@CHAT_UP?$AA@
	DD	FLAT:??_C@_07JHFLABJJ@Chat?5up?$AA@
	DD	FLAT:??_C@_07MJLLDGCH@CHAT_DN?$AA@
	DD	FLAT:??_C@_09CILOFHJJ@Chat?5down?$AA@
	DD	FLAT:??_C@_0L@CFBCIODH@NOMAL_CHAT?$AA@
	DD	FLAT:??_C@_0N@NPMBMPNN@General?5Chat?$AA@
	DD	FLAT:??_C@_09IKOIFABB@ZONE_CHAT?$AA@
	DD	FLAT:??_C@_09IJMNEBE@Zone?5chat?$AA@
	DD	FLAT:??_C@_0M@IHCOHCJN@WISPER_CHAT?$AA@
	DD	FLAT:??_C@_0N@KKHOGCCO@Whisper?5chat?$AA@
	DD	FLAT:??_C@_0L@LFJPFAMP@PARTY_CHAT?$AA@
	DD	FLAT:??_C@_0L@HILGNHBK@Party?5chat?$AA@
	DD	FLAT:??_C@_0L@JLNFKLCJ@GUILD_CHAT?$AA@
	DD	FLAT:??_C@_0L@FGPMCMPM@Guild?5chat?$AA@
	DD	FLAT:??_C@_0L@JIPOPEJB@UNION_CHAT?$AA@
	DD	FLAT:??_C@_0L@FFNHHDEE@Union?5chat?$AA@
	DD	FLAT:??_C@_05GFPLGFAD@QUEST?$AA@
	DD	FLAT:??_C@_05KJMBIHHL@Quest?$AA@
	DD	FLAT:??_C@_07EHNEOKJM@MAILBOX?$AA@
	DD	FLAT:??_C@_07EDPPDEEO@Mailbox?$AA@
	DD	FLAT:??_C@_07GDAJHEOB@PETINFO?$AA@
	DD	FLAT:??_C@_0BA@DHFGHCGN@Pet?5information?$AA@
	DD	FLAT:??_C@_09JLJBOLDG@SUMMONPET?$AA@
	DD	FLAT:??_C@_0L@GDDHAAPE@Summon?5pet?$AA@
	DD	FLAT:??_C@_0M@OGKEBIPK@TRIBE_PRIOR?$AA@
	DD	FLAT:??_C@_0M@IFFEDDIE@Tribe?5prior?$AA@
	DD	FLAT:??_C@_0L@OEONIPIP@TRIBE_NEXT?$AA@
	DD	FLAT:??_C@_0L@CJMEAIFK@Tribe?5next?$AA@
	DD	FLAT:??_C@_0BA@MDFLLFHE@COERCION_ATTACK?$AA@
	DD	FLAT:??_C@_0BA@NIGDAJOJ@Coercion?5Attack?$AA@
	DD	FLAT:??_C@_0M@OBNOHPMP@AUTO_ATTACK?$AA@
	DD	FLAT:??_C@_0BA@DOGKAPND@OneClick?5Attack?$AA@
	DD	FLAT:??_C@_0M@FPGGIOEA@SCREEN?5SHOT?$AA@
	DD	FLAT:??_C@_0L@KKOCHHLN@Screenshot?$AA@
	DD	FLAT:??_C@_07DLPKKMGH@MINIMAP?$AA@
	DD	FLAT:??_C@_07DPNBHCLF@Minimap?$AA@
	DD	FLAT:??_C@_0M@LGHPKPFB@GEAR_CHANGE?$AA@
	DD	FLAT:??_C@_0M@EDKJMFIH@Gear?5Change?$AA@
	DD	FLAT:??_C@_0BB@KPLOLHPO@GEAR_CHANGE_SHOW?$AA@
	DD	FLAT:??_C@_0N@JOOPOLDH@Gear?5Change2?$AA@
_DATA	ENDS
PUBLIC	?SetDefaultAccelerator@@YAXXZ			; SetDefaultAccelerator
EXTRN	?SetAcceleratorKey@KeyAccelerator@@QAEXEG@Z:NEAR ; KeyAccelerator::SetAcceleratorKey
EXTRN	___security_cookie:DWORD
EXTRN	@__security_check_cookie@4:NEAR
EXTRN	?g_pKeyAccelerator@@3PAVKeyAccelerator@@A:DWORD	; g_pKeyAccelerator
; Function compile flags: /Ogty
; File c:\darkeden\designed_common\project\new - vs_ui\lib\acceleratordef.cpp
;	COMDAT ?SetDefaultAccelerator@@YAXXZ
_TEXT	SEGMENT
_keys$ = -96						; size = 90
__$ArrayPad$ = -4					; size = 4
__$ReturnAddr$ = 4					; size = 4
?SetDefaultAccelerator@@YAXXZ PROC NEAR			; SetDefaultAccelerator, COMDAT

; 138  : {

  00000	83 ec 60	 sub	 esp, 96			; 00000060H
  00003	a1 00 00 00 00	 mov	 eax, DWORD PTR ___security_cookie
  00008	56		 push	 esi

; 139  : 	const WORD keys[MAX_ACCELERATOR] =  
; 140  : 	{
; 141  : 		0,														// ACCEL_NULL,
; 142  : 		DIK_F1,													// ACCEL_F1
; 143  : 		DIK_F2,													// ACCEL_F2
; 144  : 		DIK_F3,													// ACCEL_F3
; 145  : 		DIK_F4,													// ACCEL_F4
; 146  : 		DIK_F5,													// ACCEL_F5
; 147  : 		DIK_F6,													// ACCEL_F6
; 148  : 		DIK_F7,													// ACCEL_F7
; 149  : 		DIK_F8,													// ACCEL_F8
; 150  : 		DIK_F9,													// ACCEL_F9
; 151  : 		DIK_F10,												// ACCEL_F10
; 152  : 		DIK_F11,												// ACCEL_F11
; 153  : 		DIK_F12,												// ACCEL_F12
; 154  : 		DIK_ESCAPE,												// ACCEL_ESC

  00009	be 01 00 00 00	 mov	 esi, 1
  0000e	89 44 24 60	 mov	 DWORD PTR __$ArrayPad$[esp+100], eax
  00012	66 c7 44 24 04
	00 00		 mov	 WORD PTR _keys$[esp+100], 0
  00019	66 c7 44 24 06
	3b 00		 mov	 WORD PTR _keys$[esp+102], 59 ; 0000003bH
  00020	66 c7 44 24 08
	3c 00		 mov	 WORD PTR _keys$[esp+104], 60 ; 0000003cH
  00027	66 c7 44 24 0a
	3d 00		 mov	 WORD PTR _keys$[esp+106], 61 ; 0000003dH
  0002e	66 c7 44 24 0c
	3e 00		 mov	 WORD PTR _keys$[esp+108], 62 ; 0000003eH
  00035	66 c7 44 24 0e
	3f 00		 mov	 WORD PTR _keys$[esp+110], 63 ; 0000003fH
  0003c	66 c7 44 24 10
	40 00		 mov	 WORD PTR _keys$[esp+112], 64 ; 00000040H
  00043	66 c7 44 24 12
	41 00		 mov	 WORD PTR _keys$[esp+114], 65 ; 00000041H
  0004a	66 c7 44 24 14
	42 00		 mov	 WORD PTR _keys$[esp+116], 66 ; 00000042H
  00051	66 c7 44 24 16
	43 00		 mov	 WORD PTR _keys$[esp+118], 67 ; 00000043H
  00058	66 c7 44 24 18
	44 00		 mov	 WORD PTR _keys$[esp+120], 68 ; 00000044H
  0005f	66 c7 44 24 1a
	57 00		 mov	 WORD PTR _keys$[esp+122], 87 ; 00000057H
  00066	66 c7 44 24 1c
	58 00		 mov	 WORD PTR _keys$[esp+124], 88 ; 00000058H
  0006d	66 89 74 24 1e	 mov	 WORD PTR _keys$[esp+126], si

; 155  : 		DIK_S,													// ACCEL_SKILL

  00072	66 c7 44 24 20
	1f 00		 mov	 WORD PTR _keys$[esp+128], 31 ; 0000001fH

; 156  : 		DIK_TAB,												// ACCEL_INVENTORY

  00079	66 c7 44 24 22
	0f 00		 mov	 WORD PTR _keys$[esp+130], 15 ; 0000000fH

; 157  : 		ACCEL_MAKE_KEY( DIK_TAB, FLAG_ACCELERATOR_CONTROL ),	// ACCEL_GEAR

  00080	66 c7 44 24 24
	0f 01		 mov	 WORD PTR _keys$[esp+132], 271 ; 0000010fH

; 158  : 		DIK_I,													// ACCEL_CHARINFO

  00087	66 c7 44 24 26
	17 00		 mov	 WORD PTR _keys$[esp+134], 23 ; 00000017H

; 159  : 		DIK_K,													// ACCEL_SKILLINFO

  0008e	66 c7 44 24 28
	25 00		 mov	 WORD PTR _keys$[esp+136], 37 ; 00000025H

; 160  : 		DIK_R,													// ACCEL_GRADE2INFO -> GRADE1

  00095	66 c7 44 24 2a
	13 00		 mov	 WORD PTR _keys$[esp+138], 19 ; 00000013H

; 161  : 		DIK_M,													// ACCEL_WORLDMAP

  0009c	66 c7 44 24 2c
	32 00		 mov	 WORD PTR _keys$[esp+140], 50 ; 00000032H

; 162  : 		DIK_P,													// ACCEL_PARTY

  000a3	66 c7 44 24 2e
	19 00		 mov	 WORD PTR _keys$[esp+142], 25 ; 00000019H

; 163  : 		DIK_H,													// ACCEL_HELP

  000aa	66 c7 44 24 30
	23 00		 mov	 WORD PTR _keys$[esp+144], 35 ; 00000023H

; 164  : 		DIK_GRAVE,												// ACCEL_QUICKITEM_SLOT

  000b1	66 c7 44 24 32
	29 00		 mov	 WORD PTR _keys$[esp+146], 41 ; 00000029H

; 165  : 		DIK_E,													// ACCEL_EXTEND_CHAT

  000b8	66 c7 44 24 34
	12 00		 mov	 WORD PTR _keys$[esp+148], 18 ; 00000012H

; 166  : 		ACCEL_MAKE_KEY( DIK_PRIOR, FLAG_ACCELERATOR_CONTROL ),	// ACCEL_CHAT(UP 토글)

  000bf	66 c7 44 24 36
	c9 01		 mov	 WORD PTR _keys$[esp+150], 457 ; 000001c9H

; 167  : 		ACCEL_MAKE_KEY( DIK_NEXT, FLAG_ACCELERATOR_CONTROL ),	// ACCEL_CHAT_DN

  000c6	66 c7 44 24 38
	d1 01		 mov	 WORD PTR _keys$[esp+152], 465 ; 000001d1H

; 168  : 		DIK_C,													// ACCEL_GRADE1INFO -> NORMALCHAT

  000cd	66 c7 44 24 3a
	2e 00		 mov	 WORD PTR _keys$[esp+154], 46 ; 0000002eH

; 169  : 		DIK_Z,													// ACCEL_ZONECHAT

  000d4	66 c7 44 24 3c
	2c 00		 mov	 WORD PTR _keys$[esp+156], 44 ; 0000002cH

; 170  : 		DIK_W,													// ACCEL_WISHPER

  000db	66 c7 44 24 3e
	11 00		 mov	 WORD PTR _keys$[esp+158], 17 ; 00000011H

; 171  : 		DIK_A,													// ACCEL_GRADE3INFO -> PARTYCHAT

  000e2	66 c7 44 24 40
	1e 00		 mov	 WORD PTR _keys$[esp+160], 30 ; 0000001eH

; 172  : 		DIK_G,													// ACCEL_GUILD

  000e9	66 c7 44 24 42
	22 00		 mov	 WORD PTR _keys$[esp+162], 34 ; 00000022H

; 173  : 		DIK_U,													// ACCEL_UNION

  000f0	66 c7 44 24 44
	16 00		 mov	 WORD PTR _keys$[esp+164], 22 ; 00000016H

; 174  : 		DIK_Q,													// ACCEL_QUEST

  000f7	66 c7 44 24 46
	10 00		 mov	 WORD PTR _keys$[esp+166], 16 ; 00000010H

; 175  : 		DIK_B,													// ACCEL_MAILBOX

  000fe	66 c7 44 24 48
	30 00		 mov	 WORD PTR _keys$[esp+168], 48 ; 00000030H

; 176  : 		ACCEL_MAKE_KEY( DIK_SPACE, FLAG_ACCELERATOR_ALT ),		// ACCEL_PETINFO

  00105	66 c7 44 24 4a
	39 02		 mov	 WORD PTR _keys$[esp+170], 569 ; 00000239H

; 177  : 		ACCEL_MAKE_KEY( DIK_SPACE, FLAG_ACCELERATOR_CONTROL ),	// ACCEL_SUMMON_PET

  0010c	66 c7 44 24 4c
	39 01		 mov	 WORD PTR _keys$[esp+172], 313 ; 00000139H

; 178  : 		ACCEL_MAKE_KEY( DIK_PRIOR, FLAG_ACCELERATOR_ALT ),		// ACCEL_TRIBE_PRIOR

  00113	66 c7 44 24 4e
	c9 02		 mov	 WORD PTR _keys$[esp+174], 713 ; 000002c9H

; 179  : 		ACCEL_MAKE_KEY( DIK_NEXT, FLAG_ACCELERATOR_ALT ),		// ACCEL_TRIBE_NEXT

  0011a	66 c7 44 24 50
	d1 02		 mov	 WORD PTR _keys$[esp+176], 721 ; 000002d1H

; 180  : //		DIK_V,													// ACCEL_GUILD_INFO
; 181  : //		DIK_L,													// ACCEL_GUILD_MEMBER_LIST
; 182  : 		DIK_O,													// ACCEL_COER_ATTACK

  00121	66 c7 44 24 52
	18 00		 mov	 WORD PTR _keys$[esp+178], 24 ; 00000018H

; 183  : // by svi
; 184  : 		DIK_J,													// ACCEL_AUTO_ATTACK

  00128	66 c7 44 24 54
	24 00		 mov	 WORD PTR _keys$[esp+180], 36 ; 00000024H

; 185  : // end		
; 186  : 		DIK_SYSRQ,												// ACCEL_SYSRQ

  0012f	66 c7 44 24 56
	b7 00		 mov	 WORD PTR _keys$[esp+182], 183 ; 000000b7H

; 187  : 		DIK_N,													// ACCEL_MINIMAP

  00136	66 c7 44 24 58
	31 00		 mov	 WORD PTR _keys$[esp+184], 49 ; 00000031H

; 188  : //		ACCEL_MAKE_KEY( DIK_SLASH, FLAG_ACCELERATOR_CONTROL ),	// ACCEL_SLASH
; 189  : #if __CONTENTS(__GEAR_SWAP_CHANGE) //단축키 등록
; 190  : 		ACCEL_MAKE_KEY( DIK_A, FLAG_ACCELERATOR_ALT ),			// ACCEL_GEAR_CHANGE

  0013d	66 c7 44 24 5a
	1e 02		 mov	 WORD PTR _keys$[esp+186], 542 ; 0000021eH

; 191  : 		ACCEL_MAKE_KEY( DIK_S, FLAG_ACCELERATOR_ALT ),			// ACCEL_GEAR_CHANGE_SHOW

  00144	66 c7 44 24 5c
	1f 02		 mov	 WORD PTR _keys$[esp+188], 543 ; 0000021fH
  0014b	eb 03 8d 49 00	 npad	 5
$L79334:

; 192  : #endif // __GEAR_SWAP_CHANGE;
; 193  : 	};
; 194  : 
; 195  : 	for (int accel=1; accel<MAX_ACCELERATOR; accel++)
; 196  : 	{
; 197  : 		g_pKeyAccelerator->SetAcceleratorKey( accel, keys[accel] );

  00150	8b 0d 00 00 00
	00		 mov	 ecx, DWORD PTR ?g_pKeyAccelerator@@3PAVKeyAccelerator@@A ; g_pKeyAccelerator
  00156	33 c0		 xor	 eax, eax
  00158	66 8b 44 74 04	 mov	 ax, WORD PTR _keys$[esp+esi*2+100]
  0015d	50		 push	 eax
  0015e	56		 push	 esi
  0015f	e8 00 00 00 00	 call	 ?SetAcceleratorKey@KeyAccelerator@@QAEXEG@Z ; KeyAccelerator::SetAcceleratorKey
  00164	46		 inc	 esi
  00165	83 fe 2d	 cmp	 esi, 45			; 0000002dH
  00168	7c e6		 jl	 SHORT $L79334

; 198  : 	}
; 199  : }

  0016a	8b 4c 24 60	 mov	 ecx, DWORD PTR __$ArrayPad$[esp+100]
  0016e	5e		 pop	 esi
  0016f	e8 00 00 00 00	 call	 @__security_check_cookie@4
  00174	83 c4 60	 add	 esp, 96			; 00000060H
  00177	c3		 ret	 0
?SetDefaultAccelerator@@YAXXZ ENDP			; SetDefaultAccelerator
_TEXT	ENDS
END
