; Listing generated by Microsoft (R) Optimizing Compiler Version 13.10.3077 

	TITLE	\darkeden\Designed_Common\Project\New - vs_ui\src\KeyAccelerator.cpp
	.386P
include listing.inc
if @Version gt 510
.model FLAT
else
_TEXT	SEGMENT PARA USE32 PUBLIC 'CODE'
_TEXT	ENDS
_DATA	SEGMENT DWORD USE32 PUBLIC 'DATA'
_DATA	ENDS
CONST	SEGMENT DWORD USE32 PUBLIC 'CONST'
CONST	ENDS
_BSS	SEGMENT DWORD USE32 PUBLIC 'BSS'
_BSS	ENDS
$$SYMBOLS	SEGMENT BYTE USE32 'DEBSYM'
$$SYMBOLS	ENDS
$$TYPES	SEGMENT BYTE USE32 'DEBTYP'
$$TYPES	ENDS
_TLS	SEGMENT DWORD USE32 PUBLIC 'TLS'
_TLS	ENDS
;	COMDAT ??_C@_0BN@ODLNCKCA@Data?2?2Info?2?2ClientConfig?4inf?$AA@
CONST	SEGMENT DWORD USE32 PUBLIC 'CONST'
CONST	ENDS
;	COMDAT ??_C@_0BM@DFPLPGPC@Data?2?2Info?2?2GuildMapper?4inf?$AA@
CONST	SEGMENT DWORD USE32 PUBLIC 'CONST'
CONST	ENDS
;	COMDAT ??_C@_0BN@LHODHNBK@Data?2?2Info?2?2GuildVersion?4inf?$AA@
CONST	SEGMENT DWORD USE32 PUBLIC 'CONST'
CONST	ENDS
;	COMDAT ??_C@_0BH@DDPLNCOL@Data?2?2Info?2?2Player?4inf?$AA@
CONST	SEGMENT DWORD USE32 PUBLIC 'CONST'
CONST	ENDS
;	COMDAT ??_C@_0BL@ILLNAPHB@Data?2?2Info?2?2Resolution?4inf?$AA@
CONST	SEGMENT DWORD USE32 PUBLIC 'CONST'
CONST	ENDS
;	COMDAT ??_C@_0CA@HEIGFDLG@Data?2?2Info?2?2SelectedChannel?4inf?$AA@
CONST	SEGMENT DWORD USE32 PUBLIC 'CONST'
CONST	ENDS
;	COMDAT ??_C@_0N@GOPDCEEB@basic_string?$AA@
CONST	SEGMENT DWORD USE32 PUBLIC 'CONST'
CONST	ENDS
rdata$r	SEGMENT DWORD USE32 PUBLIC 'CONST'
rdata$r	ENDS
text$yc	SEGMENT PARA USE32 PUBLIC 'CODE'
text$yc	ENDS
CRT$XCA	SEGMENT DWORD USE32 PUBLIC 'DATA'
CRT$XCA	ENDS
CRT$XCU	SEGMENT DWORD USE32 PUBLIC 'DATA'
CRT$XCU	ENDS
CRT$XCL	SEGMENT DWORD USE32 PUBLIC 'DATA'
CRT$XCL	ENDS
CRT$XCC	SEGMENT DWORD USE32 PUBLIC 'DATA'
CRT$XCC	ENDS
CRT$XCZ	SEGMENT DWORD USE32 PUBLIC 'DATA'
CRT$XCZ	ENDS
text$yd	SEGMENT PARA USE32 PUBLIC 'CODE'
text$yd	ENDS
;	COMDAT ?start@CNFS@@QAE_NPADH@Z
_TEXT	SEGMENT PARA USE32 PUBLIC 'CODE'
_TEXT	ENDS
;	COMDAT ?end@CNFS@@QAEXXZ
_TEXT	SEGMENT PARA USE32 PUBLIC 'CODE'
_TEXT	ENDS
;	COMDAT ?Init@VirtualFileHeader@@QAEXXZ
_TEXT	SEGMENT PARA USE32 PUBLIC 'CODE'
_TEXT	ENDS
;	COMDAT ??1IFileIO@@UAE@XZ
_TEXT	SEGMENT PARA USE32 PUBLIC 'CODE'
_TEXT	ENDS
;	COMDAT ??_GIFileIO@@UAEPAXI@Z
_TEXT	SEGMENT PARA USE32 PUBLIC 'CODE'
_TEXT	ENDS
;	COMDAT ??0iovfs_base@@QAE@XZ
_TEXT	SEGMENT PARA USE32 PUBLIC 'CODE'
_TEXT	ENDS
;	COMDAT ??_Giovfs_base@@UAEPAXI@Z
_TEXT	SEGMENT PARA USE32 PUBLIC 'CODE'
_TEXT	ENDS
;	COMDAT ??1iovfs_base@@UAE@XZ
_TEXT	SEGMENT PARA USE32 PUBLIC 'CODE'
_TEXT	ENDS
;	COMDAT ?Init@iovfs_base@@QAEXXZ
_TEXT	SEGMENT PARA USE32 PUBLIC 'CODE'
_TEXT	ENDS
;	COMDAT ??_Givfstream@@UAEPAXI@Z
_TEXT	SEGMENT PARA USE32 PUBLIC 'CODE'
_TEXT	ENDS
;	COMDAT ??1ivfstream@@UAE@XZ
_TEXT	SEGMENT PARA USE32 PUBLIC 'CODE'
_TEXT	ENDS
;	COMDAT ?open@ivfstream@@UAEXPBDH@Z
_TEXT	SEGMENT PARA USE32 PUBLIC 'CODE'
_TEXT	ENDS
;	COMDAT ?read@ivfstream@@QAEXPADI@Z
_TEXT	SEGMENT PARA USE32 PUBLIC 'CODE'
_TEXT	ENDS
;	COMDAT ?eof@ivfstream@@QBE_NXZ
_TEXT	SEGMENT PARA USE32 PUBLIC 'CODE'
_TEXT	ENDS
;	COMDAT ??_Govfstream@@UAEPAXI@Z
_TEXT	SEGMENT PARA USE32 PUBLIC 'CODE'
_TEXT	ENDS
;	COMDAT ??1ovfstream@@UAE@XZ
_TEXT	SEGMENT PARA USE32 PUBLIC 'CODE'
_TEXT	ENDS
;	COMDAT ?open@ovfstream@@UAEXPBDH@Z
_TEXT	SEGMENT PARA USE32 PUBLIC 'CODE'
_TEXT	ENDS
;	COMDAT ??0KeyAccelerator@@QAE@XZ
_TEXT	SEGMENT PARA USE32 PUBLIC 'CODE'
_TEXT	ENDS
;	COMDAT ??1?$map@GEU?$less@G@_STL@@V?$allocator@U?$pair@$$CBGE@_STL@@@2@@_STL@@QAE@XZ
_TEXT	SEGMENT PARA USE32 PUBLIC 'CODE'
_TEXT	ENDS
;	COMDAT ??1KeyAccelerator@@QAE@XZ
_TEXT	SEGMENT PARA USE32 PUBLIC 'CODE'
_TEXT	ENDS
;	COMDAT ?Init@KeyAccelerator@@QAEXH@Z
_TEXT	SEGMENT PARA USE32 PUBLIC 'CODE'
_TEXT	ENDS
;	COMDAT ?SetAcceleratorKey@KeyAccelerator@@QAEXEG@Z
_TEXT	SEGMENT PARA USE32 PUBLIC 'CODE'
_TEXT	ENDS
;	COMDAT ?GetAccelerator@KeyAccelerator@@QBEEG@Z
_TEXT	SEGMENT PARA USE32 PUBLIC 'CODE'
_TEXT	ENDS
;	COMDAT ?GetAcceleratorSimilar@KeyAccelerator@@QBEEG@Z
_TEXT	SEGMENT PARA USE32 PUBLIC 'CODE'
_TEXT	ENDS
;	COMDAT ?GetKey@KeyAccelerator@@QBEGE@Z
_TEXT	SEGMENT PARA USE32 PUBLIC 'CODE'
_TEXT	ENDS
;	COMDAT ?SaveToFile@KeyAccelerator@@QAEXAAV?$basic_ofstream@DV?$char_traits@D@_STL@@@_STL@@@Z
_TEXT	SEGMENT PARA USE32 PUBLIC 'CODE'
_TEXT	ENDS
;	COMDAT ?LoadFromFile@KeyAccelerator@@QAE_NAAVivfstream@@@Z
_TEXT	SEGMENT PARA USE32 PUBLIC 'CODE'
_TEXT	ENDS
;	COMDAT ?eq@?$__char_traits_base@DH@_STL@@SA_NABD0@Z
_TEXT	SEGMENT PARA USE32 PUBLIC 'CODE'
_TEXT	ENDS
;	COMDAT ?not_eof@?$__char_traits_base@DH@_STL@@SAHABH@Z
_TEXT	SEGMENT PARA USE32 PUBLIC 'CODE'
_TEXT	ENDS
;	COMDAT ?eq_int_type@?$__char_traits_base@DH@_STL@@SA_NABH0@Z
_TEXT	SEGMENT PARA USE32 PUBLIC 'CODE'
_TEXT	ENDS
;	COMDAT ??4?$basic_string@DV?$char_traits@D@_STL@@V?$allocator@D@2@@_STL@@QAEAAV01@PBD@Z
_TEXT	SEGMENT PARA USE32 PUBLIC 'CODE'
_TEXT	ENDS
;	COMDAT ??0?$allocator@G@_STL@@QAE@XZ
_TEXT	SEGMENT PARA USE32 PUBLIC 'CODE'
_TEXT	ENDS
;	COMDAT ??0?$fpos@H@_STL@@QAE@J@Z
_TEXT	SEGMENT PARA USE32 PUBLIC 'CODE'
_TEXT	ENDS
;	COMDAT ??B?$fpos@H@_STL@@QBEJXZ
_TEXT	SEGMENT PARA USE32 PUBLIC 'CODE'
_TEXT	ENDS
;	COMDAT ?state@?$fpos@H@_STL@@QBEHXZ
_TEXT	SEGMENT PARA USE32 PUBLIC 'CODE'
_TEXT	ENDS
;	COMDAT ?is_open@?$basic_filebuf@DV?$char_traits@D@_STL@@@_STL@@QBE_NXZ
_TEXT	SEGMENT PARA USE32 PUBLIC 'CODE'
_TEXT	ENDS
;	COMDAT ?_M_seek_return@?$basic_filebuf@DV?$char_traits@D@_STL@@@_STL@@AAE?AV?$fpos@H@2@JH@Z
_TEXT	SEGMENT PARA USE32 PUBLIC 'CODE'
_TEXT	ENDS
;	COMDAT ??0?$_Filebuf_Tmp_Buf@D@_STL@@QAE@H@Z
_TEXT	SEGMENT PARA USE32 PUBLIC 'CODE'
_TEXT	ENDS
;	COMDAT ??1?$_Filebuf_Tmp_Buf@D@_STL@@QAE@XZ
_TEXT	SEGMENT PARA USE32 PUBLIC 'CODE'
_TEXT	ENDS
;	COMDAT ??0?$map@GEU?$less@G@_STL@@V?$allocator@U?$pair@$$CBGE@_STL@@@2@@_STL@@QAE@XZ
_TEXT	SEGMENT PARA USE32 PUBLIC 'CODE'
_TEXT	ENDS
;	COMDAT ?end@?$map@GEU?$less@G@_STL@@V?$allocator@U?$pair@$$CBGE@_STL@@@2@@_STL@@QAE?AU?$_Rb_tree_iterator@U?$pair@$$CBGE@_STL@@U?$_Nonconst_traits@U?$pair@$$CBGE@_STL@@@2@@2@XZ
_TEXT	SEGMENT PARA USE32 PUBLIC 'CODE'
_TEXT	ENDS
;	COMDAT ?end@?$map@GEU?$less@G@_STL@@V?$allocator@U?$pair@$$CBGE@_STL@@@2@@_STL@@QBE?AU?$_Rb_tree_iterator@U?$pair@$$CBGE@_STL@@U?$_Const_traits@U?$pair@$$CBGE@_STL@@@2@@2@XZ
_TEXT	SEGMENT PARA USE32 PUBLIC 'CODE'
_TEXT	ENDS
;	COMDAT ??A?$map@GEU?$less@G@_STL@@V?$allocator@U?$pair@$$CBGE@_STL@@@2@@_STL@@QAEAAEABG@Z
_TEXT	SEGMENT PARA USE32 PUBLIC 'CODE'
_TEXT	ENDS
;	COMDAT ?erase@?$map@GEU?$less@G@_STL@@V?$allocator@U?$pair@$$CBGE@_STL@@@2@@_STL@@QAEXU?$_Rb_tree_iterator@U?$pair@$$CBGE@_STL@@U?$_Nonconst_traits@U?$pair@$$CBGE@_STL@@@2@@2@@Z
_TEXT	SEGMENT PARA USE32 PUBLIC 'CODE'
_TEXT	ENDS
;	COMDAT ?clear@?$map@GEU?$less@G@_STL@@V?$allocator@U?$pair@$$CBGE@_STL@@@2@@_STL@@QAEXXZ
_TEXT	SEGMENT PARA USE32 PUBLIC 'CODE'
_TEXT	ENDS
;	COMDAT ?find@?$map@GEU?$less@G@_STL@@V?$allocator@U?$pair@$$CBGE@_STL@@@2@@_STL@@QAE?AU?$_Rb_tree_iterator@U?$pair@$$CBGE@_STL@@U?$_Nonconst_traits@U?$pair@$$CBGE@_STL@@@2@@2@ABG@Z
_TEXT	SEGMENT PARA USE32 PUBLIC 'CODE'
_TEXT	ENDS
;	COMDAT ?find@?$map@GEU?$less@G@_STL@@V?$allocator@U?$pair@$$CBGE@_STL@@@2@@_STL@@QBE?AU?$_Rb_tree_iterator@U?$pair@$$CBGE@_STL@@U?$_Const_traits@U?$pair@$$CBGE@_STL@@@2@@2@ABG@Z
_TEXT	SEGMENT PARA USE32 PUBLIC 'CODE'
_TEXT	ENDS
;	COMDAT ??1?$_Rb_tree@GU?$pair@$$CBGE@_STL@@U?$_Select1st@U?$pair@$$CBGE@_STL@@@2@U?$less@G@2@V?$allocator@U?$pair@$$CBGE@_STL@@@2@@_STL@@QAE@XZ
_TEXT	SEGMENT PARA USE32 PUBLIC 'CODE'
_TEXT	ENDS
;	COMDAT ?capacity@?$vector@GV?$allocator@G@_STL@@@_STL@@QBEIXZ
_TEXT	SEGMENT PARA USE32 PUBLIC 'CODE'
_TEXT	ENDS
;	COMDAT ??A?$vector@GV?$allocator@G@_STL@@@_STL@@QAEAAGI@Z
_TEXT	SEGMENT PARA USE32 PUBLIC 'CODE'
_TEXT	ENDS
;	COMDAT ??A?$vector@GV?$allocator@G@_STL@@@_STL@@QBEABGI@Z
_TEXT	SEGMENT PARA USE32 PUBLIC 'CODE'
_TEXT	ENDS
;	COMDAT ??0?$vector@GV?$allocator@G@_STL@@@_STL@@QAE@ABV?$allocator@G@1@@Z
_TEXT	SEGMENT PARA USE32 PUBLIC 'CODE'
_TEXT	ENDS
;	COMDAT ??1?$vector@GV?$allocator@G@_STL@@@_STL@@QAE@XZ
_TEXT	SEGMENT PARA USE32 PUBLIC 'CODE'
_TEXT	ENDS
;	COMDAT ?clear@?$vector@GV?$allocator@G@_STL@@@_STL@@QAEXXZ
_TEXT	SEGMENT PARA USE32 PUBLIC 'CODE'
_TEXT	ENDS
;	COMDAT ??0?$_Rb_tree_iterator@U?$pair@$$CBGE@_STL@@U?$_Nonconst_traits@U?$pair@$$CBGE@_STL@@@2@@_STL@@QAE@ABU01@@Z
_TEXT	SEGMENT PARA USE32 PUBLIC 'CODE'
_TEXT	ENDS
;	COMDAT ??C?$_Rb_tree_iterator@U?$pair@$$CBGE@_STL@@U?$_Const_traits@U?$pair@$$CBGE@_STL@@@2@@_STL@@QBEPBU?$pair@$$CBGE@1@XZ
_TEXT	SEGMENT PARA USE32 PUBLIC 'CODE'
_TEXT	ENDS
;	COMDAT ??1?$basic_ofstream@DV?$char_traits@D@_STL@@@_STL@@UAE@XZ
_TEXT	SEGMENT PARA USE32 PUBLIC 'CODE'
_TEXT	ENDS
;	COMDAT ??_G?$basic_ofstream@DV?$char_traits@D@_STL@@@_STL@@UAEPAXI@Z
_TEXT	SEGMENT PARA USE32 PUBLIC 'CODE'
_TEXT	ENDS
;	COMDAT ??_D?$basic_ofstream@DV?$char_traits@D@_STL@@@_STL@@QAEXXZ
_TEXT	SEGMENT PARA USE32 PUBLIC 'CODE'
_TEXT	ENDS
;	COMDAT ?assign@?$basic_string@DV?$char_traits@D@_STL@@V?$allocator@D@2@@_STL@@QAEAAV12@PBD0@Z
_TEXT	SEGMENT PARA USE32 PUBLIC 'CODE'
_TEXT	ENDS
;	COMDAT ?state@?$fpos@H@_STL@@QAEXH@Z
_TEXT	SEGMENT PARA USE32 PUBLIC 'CODE'
_TEXT	ENDS
;	COMDAT ?key_comp@?$map@GEU?$less@G@_STL@@V?$allocator@U?$pair@$$CBGE@_STL@@@2@@_STL@@QBE?AU?$less@G@2@XZ
_TEXT	SEGMENT PARA USE32 PUBLIC 'CODE'
_TEXT	ENDS
;	COMDAT ?insert@?$map@GEU?$less@G@_STL@@V?$allocator@U?$pair@$$CBGE@_STL@@@2@@_STL@@QAE?AU?$_Rb_tree_iterator@U?$pair@$$CBGE@_STL@@U?$_Nonconst_traits@U?$pair@$$CBGE@_STL@@@2@@2@U32@ABU?$pair@$$CBGE@2@@Z
_TEXT	SEGMENT PARA USE32 PUBLIC 'CODE'
_TEXT	ENDS
;	COMDAT ?lower_bound@?$map@GEU?$less@G@_STL@@V?$allocator@U?$pair@$$CBGE@_STL@@@2@@_STL@@QAE?AU?$_Rb_tree_iterator@U?$pair@$$CBGE@_STL@@U?$_Nonconst_traits@U?$pair@$$CBGE@_STL@@@2@@2@ABG@Z
_TEXT	SEGMENT PARA USE32 PUBLIC 'CODE'
_TEXT	ENDS
;	COMDAT ??0?$_Rb_tree@GU?$pair@$$CBGE@_STL@@U?$_Select1st@U?$pair@$$CBGE@_STL@@@2@U?$less@G@2@V?$allocator@U?$pair@$$CBGE@_STL@@@2@@_STL@@QAE@ABU?$less@G@1@ABV?$allocator@U?$pair@$$CBGE@_STL@@@1@@Z
_TEXT	SEGMENT PARA USE32 PUBLIC 'CODE'
_TEXT	ENDS
;	COMDAT ?end@?$_Rb_tree@GU?$pair@$$CBGE@_STL@@U?$_Select1st@U?$pair@$$CBGE@_STL@@@2@U?$less@G@2@V?$allocator@U?$pair@$$CBGE@_STL@@@2@@_STL@@QAE?AU?$_Rb_tree_iterator@U?$pair@$$CBGE@_STL@@U?$_Nonconst_traits@U?$pair@$$CBGE@_STL@@@2@@2@XZ
_TEXT	SEGMENT PARA USE32 PUBLIC 'CODE'
_TEXT	ENDS
;	COMDAT ?end@?$_Rb_tree@GU?$pair@$$CBGE@_STL@@U?$_Select1st@U?$pair@$$CBGE@_STL@@@2@U?$less@G@2@V?$allocator@U?$pair@$$CBGE@_STL@@@2@@_STL@@QBE?AU?$_Rb_tree_iterator@U?$pair@$$CBGE@_STL@@U?$_Const_traits@U?$pair@$$CBGE@_STL@@@2@@2@XZ
_TEXT	SEGMENT PARA USE32 PUBLIC 'CODE'
_TEXT	ENDS
;	COMDAT ?erase@?$_Rb_tree@GU?$pair@$$CBGE@_STL@@U?$_Select1st@U?$pair@$$CBGE@_STL@@@2@U?$less@G@2@V?$allocator@U?$pair@$$CBGE@_STL@@@2@@_STL@@QAEXU?$_Rb_tree_iterator@U?$pair@$$CBGE@_STL@@U?$_Nonconst_traits@U?$pair@$$CBGE@_STL@@@2@@2@@Z
_TEXT	SEGMENT PARA USE32 PUBLIC 'CODE'
_TEXT	ENDS
;	COMDAT ?clear@?$_Rb_tree@GU?$pair@$$CBGE@_STL@@U?$_Select1st@U?$pair@$$CBGE@_STL@@@2@U?$less@G@2@V?$allocator@U?$pair@$$CBGE@_STL@@@2@@_STL@@QAEXXZ
_TEXT	SEGMENT PARA USE32 PUBLIC 'CODE'
_TEXT	ENDS
;	COMDAT ??1?$_Rb_tree_base@U?$pair@$$CBGE@_STL@@V?$allocator@U?$pair@$$CBGE@_STL@@@2@@_STL@@QAE@XZ
_TEXT	SEGMENT PARA USE32 PUBLIC 'CODE'
_TEXT	ENDS
;	COMDAT ??0?$allocator@U?$pair@$$CBGE@_STL@@@_STL@@QAE@XZ
_TEXT	SEGMENT PARA USE32 PUBLIC 'CODE'
_TEXT	ENDS
;	COMDAT ??1?$allocator@U?$pair@$$CBGE@_STL@@@_STL@@QAE@XZ
_TEXT	SEGMENT PARA USE32 PUBLIC 'CODE'
_TEXT	ENDS
;	COMDAT ??R?$less@G@_STL@@QBE_NABG0@Z
_TEXT	SEGMENT PARA USE32 PUBLIC 'CODE'
_TEXT	ENDS
;	COMDAT ?begin@?$vector@GV?$allocator@G@_STL@@@_STL@@QAEPAGXZ
_TEXT	SEGMENT PARA USE32 PUBLIC 'CODE'
_TEXT	ENDS
;	COMDAT ?begin@?$vector@GV?$allocator@G@_STL@@@_STL@@QBEPBGXZ
_TEXT	SEGMENT PARA USE32 PUBLIC 'CODE'
_TEXT	ENDS
;	COMDAT ?end@?$vector@GV?$allocator@G@_STL@@@_STL@@QAEPAGXZ
_TEXT	SEGMENT PARA USE32 PUBLIC 'CODE'
_TEXT	ENDS
;	COMDAT ?erase@?$vector@GV?$allocator@G@_STL@@@_STL@@QAEPAGPAG0@Z
_TEXT	SEGMENT PARA USE32 PUBLIC 'CODE'
_TEXT	ENDS
;	COMDAT ??0?$_Vector_base@GV?$allocator@G@_STL@@@_STL@@QAE@ABV?$allocator@G@1@@Z
_TEXT	SEGMENT PARA USE32 PUBLIC 'CODE'
_TEXT	ENDS
;	COMDAT ??1?$_Vector_base@GV?$allocator@G@_STL@@@_STL@@QAE@XZ
_TEXT	SEGMENT PARA USE32 PUBLIC 'CODE'
_TEXT	ENDS
;	COMDAT ??D?$_Rb_tree_iterator@U?$pair@$$CBGE@_STL@@U?$_Nonconst_traits@U?$pair@$$CBGE@_STL@@@2@@_STL@@QBEAAU?$pair@$$CBGE@1@XZ
_TEXT	SEGMENT PARA USE32 PUBLIC 'CODE'
_TEXT	ENDS
;	COMDAT ??D?$_Rb_tree_iterator@U?$pair@$$CBGE@_STL@@U?$_Const_traits@U?$pair@$$CBGE@_STL@@@2@@_STL@@QBEABU?$pair@$$CBGE@1@XZ
_TEXT	SEGMENT PARA USE32 PUBLIC 'CODE'
_TEXT	ENDS
;	COMDAT ??0?$pair@$$CBGE@_STL@@QAE@ABGABE@Z
_TEXT	SEGMENT PARA USE32 PUBLIC 'CODE'
_TEXT	ENDS
;	COMDAT ??1?$_STLP_alloc_proxy@PAU?$_Rb_tree_node@U?$pair@$$CBGE@_STL@@@_STL@@U12@V?$allocator@U?$_Rb_tree_node@U?$pair@$$CBGE@_STL@@@_STL@@@2@@_STL@@QAE@XZ
_TEXT	SEGMENT PARA USE32 PUBLIC 'CODE'
_TEXT	ENDS
;	COMDAT ?copy@?$__char_traits_base@DH@_STL@@SAPADPADPBDI@Z
_TEXT	SEGMENT PARA USE32 PUBLIC 'CODE'
_TEXT	ENDS
;	COMDAT ?begin@?$basic_string@DV?$char_traits@D@_STL@@V?$allocator@D@2@@_STL@@QAEPADXZ
_TEXT	SEGMENT PARA USE32 PUBLIC 'CODE'
_TEXT	ENDS
;	COMDAT ?end@?$basic_string@DV?$char_traits@D@_STL@@V?$allocator@D@2@@_STL@@QAEPADXZ
_TEXT	SEGMENT PARA USE32 PUBLIC 'CODE'
_TEXT	ENDS
;	COMDAT ?size@?$basic_string@DV?$char_traits@D@_STL@@V?$allocator@D@2@@_STL@@QBEIXZ
_TEXT	SEGMENT PARA USE32 PUBLIC 'CODE'
_TEXT	ENDS
;	COMDAT ?erase@?$basic_string@DV?$char_traits@D@_STL@@V?$allocator@D@2@@_STL@@QAEPADPAD0@Z
_TEXT	SEGMENT PARA USE32 PUBLIC 'CODE'
_TEXT	ENDS
;	COMDAT ??0?$_STLP_alloc_proxy@PAGGV?$allocator@G@_STL@@@_STL@@QAE@ABV?$allocator@G@1@PAG@Z
_TEXT	SEGMENT PARA USE32 PUBLIC 'CODE'
_TEXT	ENDS
;	COMDAT ?_M_root@?$_Rb_tree@GU?$pair@$$CBGE@_STL@@U?$_Select1st@U?$pair@$$CBGE@_STL@@@2@U?$less@G@2@V?$allocator@U?$pair@$$CBGE@_STL@@@2@@_STL@@IBEAAPAU?$_Rb_tree_node@U?$pair@$$CBGE@_STL@@@2@XZ
_TEXT	SEGMENT PARA USE32 PUBLIC 'CODE'
_TEXT	ENDS
;	COMDAT ?_M_leftmost@?$_Rb_tree@GU?$pair@$$CBGE@_STL@@U?$_Select1st@U?$pair@$$CBGE@_STL@@@2@U?$less@G@2@V?$allocator@U?$pair@$$CBGE@_STL@@@2@@_STL@@IBEAAPAU?$_Rb_tree_node@U?$pair@$$CBGE@_STL@@@2@XZ
_TEXT	SEGMENT PARA USE32 PUBLIC 'CODE'
_TEXT	ENDS
;	COMDAT ?_M_rightmost@?$_Rb_tree@GU?$pair@$$CBGE@_STL@@U?$_Select1st@U?$pair@$$CBGE@_STL@@@2@U?$less@G@2@V?$allocator@U?$pair@$$CBGE@_STL@@@2@@_STL@@IBEAAPAU?$_Rb_tree_node@U?$pair@$$CBGE@_STL@@@2@XZ
_TEXT	SEGMENT PARA USE32 PUBLIC 'CODE'
_TEXT	ENDS
;	COMDAT ?_M_empty_initialize@?$_Rb_tree@GU?$pair@$$CBGE@_STL@@U?$_Select1st@U?$pair@$$CBGE@_STL@@@2@U?$less@G@2@V?$allocator@U?$pair@$$CBGE@_STL@@@2@@_STL@@AAEXXZ
_TEXT	SEGMENT PARA USE32 PUBLIC 'CODE'
_TEXT	ENDS
;	COMDAT ?key_comp@?$_Rb_tree@GU?$pair@$$CBGE@_STL@@U?$_Select1st@U?$pair@$$CBGE@_STL@@@2@U?$less@G@2@V?$allocator@U?$pair@$$CBGE@_STL@@@2@@_STL@@QBE?AU?$less@G@2@XZ
_TEXT	SEGMENT PARA USE32 PUBLIC 'CODE'
_TEXT	ENDS
;	COMDAT ?lower_bound@?$_Rb_tree@GU?$pair@$$CBGE@_STL@@U?$_Select1st@U?$pair@$$CBGE@_STL@@@2@U?$less@G@2@V?$allocator@U?$pair@$$CBGE@_STL@@@2@@_STL@@QAE?AU?$_Rb_tree_iterator@U?$pair@$$CBGE@_STL@@U?$_Nonconst_traits@U?$pair@$$CBGE@_STL@@@2@@2@ABG@Z
_TEXT	SEGMENT PARA USE32 PUBLIC 'CODE'
_TEXT	ENDS
;	COMDAT ??0?$_Rb_tree_base@U?$pair@$$CBGE@_STL@@V?$allocator@U?$pair@$$CBGE@_STL@@@2@@_STL@@QAE@ABV?$allocator@U?$pair@$$CBGE@_STL@@@1@@Z
_TEXT	SEGMENT PARA USE32 PUBLIC 'CODE'
_TEXT	ENDS
;	COMDAT ??1?$allocator@U?$_Rb_tree_node@U?$pair@$$CBGE@_STL@@@_STL@@@_STL@@QAE@XZ
_TEXT	SEGMENT PARA USE32 PUBLIC 'CODE'
_TEXT	ENDS
;	COMDAT ?deallocate@?$allocator@U?$_Rb_tree_node@U?$pair@$$CBGE@_STL@@@_STL@@@_STL@@QAEXPAU?$_Rb_tree_node@U?$pair@$$CBGE@_STL@@@2@I@Z
_TEXT	SEGMENT PARA USE32 PUBLIC 'CODE'
_TEXT	ENDS
;	COMDAT ??0?$_Rb_tree_iterator@U?$pair@$$CBGE@_STL@@U?$_Nonconst_traits@U?$pair@$$CBGE@_STL@@@2@@_STL@@QAE@PAU?$_Rb_tree_node@U?$pair@$$CBGE@_STL@@@1@@Z
_TEXT	SEGMENT PARA USE32 PUBLIC 'CODE'
_TEXT	ENDS
;	COMDAT ??0?$_Rb_tree_iterator@U?$pair@$$CBGE@_STL@@U?$_Const_traits@U?$pair@$$CBGE@_STL@@@2@@_STL@@QAE@PAU?$_Rb_tree_node@U?$pair@$$CBGE@_STL@@@1@@Z
_TEXT	SEGMENT PARA USE32 PUBLIC 'CODE'
_TEXT	ENDS
;	COMDAT ?move@?$__char_traits_base@DH@_STL@@SAPADPADPBDI@Z
_TEXT	SEGMENT PARA USE32 PUBLIC 'CODE'
_TEXT	ENDS
;	COMDAT ??0?$allocator@G@_STL@@QAE@ABV01@@Z
_TEXT	SEGMENT PARA USE32 PUBLIC 'CODE'
_TEXT	ENDS
;	COMDAT ?_S_color@?$_Rb_tree@GU?$pair@$$CBGE@_STL@@U?$_Select1st@U?$pair@$$CBGE@_STL@@@2@U?$less@G@2@V?$allocator@U?$pair@$$CBGE@_STL@@@2@@_STL@@KAAA_NPAU?$_Rb_tree_node@U?$pair@$$CBGE@_STL@@@2@@Z
_TEXT	SEGMENT PARA USE32 PUBLIC 'CODE'
_TEXT	ENDS
;	COMDAT ?_M_lower_bound@?$_Rb_tree@GU?$pair@$$CBGE@_STL@@U?$_Select1st@U?$pair@$$CBGE@_STL@@@2@U?$less@G@2@V?$allocator@U?$pair@$$CBGE@_STL@@@2@@_STL@@ABEPAU?$_Rb_tree_node@U?$pair@$$CBGE@_STL@@@2@ABG@Z
_TEXT	SEGMENT PARA USE32 PUBLIC 'CODE'
_TEXT	ENDS
;	COMDAT ??0?$_STLP_alloc_proxy@PAU?$_Rb_tree_node@U?$pair@$$CBGE@_STL@@@_STL@@U12@V?$allocator@U?$_Rb_tree_node@U?$pair@$$CBGE@_STL@@@_STL@@@2@@_STL@@QAE@ABV?$allocator@U?$_Rb_tree_node@U?$pair@$$CBGE@_STL@@@_STL@@@1@PAU?$_Rb_tree_node@U?$pair@$$CBGE@_STL@@@1@@Z
_TEXT	SEGMENT PARA USE32 PUBLIC 'CODE'
_TEXT	ENDS
;	COMDAT ?allocate@?$allocator@U?$_Rb_tree_node@U?$pair@$$CBGE@_STL@@@_STL@@@_STL@@QAEPAU?$_Rb_tree_node@U?$pair@$$CBGE@_STL@@@2@IPBX@Z
_TEXT	SEGMENT PARA USE32 PUBLIC 'CODE'
_TEXT	ENDS
;	COMDAT ?allocate@?$__node_alloc@$00$0A@@_STL@@SAPAXI@Z
_TEXT	SEGMENT PARA USE32 PUBLIC 'CODE'
_TEXT	ENDS
;	COMDAT ?_S_left@?$_Rb_tree@GU?$pair@$$CBGE@_STL@@U?$_Select1st@U?$pair@$$CBGE@_STL@@@2@U?$less@G@2@V?$allocator@U?$pair@$$CBGE@_STL@@@2@@_STL@@KAAAPAU?$_Rb_tree_node@U?$pair@$$CBGE@_STL@@@2@PAU32@@Z
_TEXT	SEGMENT PARA USE32 PUBLIC 'CODE'
_TEXT	ENDS
;	COMDAT ?_S_right@?$_Rb_tree@GU?$pair@$$CBGE@_STL@@U?$_Select1st@U?$pair@$$CBGE@_STL@@@2@U?$less@G@2@V?$allocator@U?$pair@$$CBGE@_STL@@@2@@_STL@@KAAAPAU?$_Rb_tree_node@U?$pair@$$CBGE@_STL@@@2@PAU32@@Z
_TEXT	SEGMENT PARA USE32 PUBLIC 'CODE'
_TEXT	ENDS
;	COMDAT ?_S_key@?$_Rb_tree@GU?$pair@$$CBGE@_STL@@U?$_Select1st@U?$pair@$$CBGE@_STL@@@2@U?$less@G@2@V?$allocator@U?$pair@$$CBGE@_STL@@@2@@_STL@@KAABGPAU?$_Rb_tree_node@U?$pair@$$CBGE@_STL@@@2@@Z
_TEXT	SEGMENT PARA USE32 PUBLIC 'CODE'
_TEXT	ENDS
;	COMDAT ??0?$allocator@U?$_Rb_tree_node@U?$pair@$$CBGE@_STL@@@_STL@@@_STL@@QAE@ABV01@@Z
_TEXT	SEGMENT PARA USE32 PUBLIC 'CODE'
_TEXT	ENDS
;	COMDAT ?_S_value@?$_Rb_tree@GU?$pair@$$CBGE@_STL@@U?$_Select1st@U?$pair@$$CBGE@_STL@@@2@U?$less@G@2@V?$allocator@U?$pair@$$CBGE@_STL@@@2@@_STL@@KAAAU?$pair@$$CBGE@2@PAU?$_Rb_tree_node@U?$pair@$$CBGE@_STL@@@2@@Z
_TEXT	SEGMENT PARA USE32 PUBLIC 'CODE'
_TEXT	ENDS
;	COMDAT ??R?$_Select1st@U?$pair@$$CBGE@_STL@@@_STL@@QBEABGABU?$pair@$$CBGE@1@@Z
_TEXT	SEGMENT PARA USE32 PUBLIC 'CODE'
_TEXT	ENDS
;	COMDAT ?write@?$basic_ostream@DV?$char_traits@D@_STL@@@_STL@@QAEAAV12@PBDH@Z
_TEXT	SEGMENT PARA USE32 PUBLIC 'CODE'
_TEXT	ENDS
;	COMDAT ?close@?$basic_filebuf@DV?$char_traits@D@_STL@@@_STL@@QAEPAV12@XZ
_TEXT	SEGMENT PARA USE32 PUBLIC 'CODE'
_TEXT	ENDS
;	COMDAT ?_M_exit_input_mode@?$basic_filebuf@DV?$char_traits@D@_STL@@@_STL@@AAEXXZ
_TEXT	SEGMENT PARA USE32 PUBLIC 'CODE'
_TEXT	ENDS
;	COMDAT ?_M_switch_to_output_mode@?$basic_filebuf@DV?$char_traits@D@_STL@@@_STL@@AAE_NXZ
_TEXT	SEGMENT PARA USE32 PUBLIC 'CODE'
_TEXT	ENDS
;	COMDAT ?_M_output_error@?$basic_filebuf@DV?$char_traits@D@_STL@@@_STL@@AAEHXZ
_TEXT	SEGMENT PARA USE32 PUBLIC 'CODE'
_TEXT	ENDS
;	COMDAT ?_M_allocate_buffers@?$basic_filebuf@DV?$char_traits@D@_STL@@@_STL@@AAE_NPADH@Z
_TEXT	SEGMENT PARA USE32 PUBLIC 'CODE'
_TEXT	ENDS
;	COMDAT ?_M_deallocate_buffers@?$basic_filebuf@DV?$char_traits@D@_STL@@@_STL@@AAEXXZ
_TEXT	SEGMENT PARA USE32 PUBLIC 'CODE'
_TEXT	ENDS
;	COMDAT ?_M_seek_init@?$basic_filebuf@DV?$char_traits@D@_STL@@@_STL@@AAE_N_N@Z
_TEXT	SEGMENT PARA USE32 PUBLIC 'CODE'
_TEXT	ENDS
;	COMDAT ?_M_setup_codecvt@?$basic_filebuf@DV?$char_traits@D@_STL@@@_STL@@AAEXABVlocale@2@@Z
_TEXT	SEGMENT PARA USE32 PUBLIC 'CODE'
_TEXT	ENDS
;	COMDAT ??$equal@PADPADU?$_Eq_traits@V?$char_traits@D@_STL@@@_STL@@@_STL@@YA_NPAD00U?$_Eq_traits@V?$char_traits@D@_STL@@@0@@Z
_TEXT	SEGMENT PARA USE32 PUBLIC 'CODE'
_TEXT	ENDS
;	COMDAT ??0?$basic_string@DV?$char_traits@D@_STL@@V?$allocator@D@2@@_STL@@QAE@XZ
_TEXT	SEGMENT PARA USE32 PUBLIC 'CODE'
_TEXT	ENDS
;	COMDAT ?_M_erase@?$_Rb_tree@GU?$pair@$$CBGE@_STL@@U?$_Select1st@U?$pair@$$CBGE@_STL@@@2@U?$less@G@2@V?$allocator@U?$pair@$$CBGE@_STL@@@2@@_STL@@AAEXPAU?$_Rb_tree_node@U?$pair@$$CBGE@_STL@@@2@@Z
_TEXT	SEGMENT PARA USE32 PUBLIC 'CODE'
_TEXT	ENDS
;	COMDAT ?insert_unique@?$_Rb_tree@GU?$pair@$$CBGE@_STL@@U?$_Select1st@U?$pair@$$CBGE@_STL@@@2@U?$less@G@2@V?$allocator@U?$pair@$$CBGE@_STL@@@2@@_STL@@QAE?AU?$_Rb_tree_iterator@U?$pair@$$CBGE@_STL@@U?$_Nonconst_traits@U?$pair@$$CBGE@_STL@@@2@@2@U32@ABU?$pair@$$CBGE@2@@Z
_TEXT	SEGMENT PARA USE32 PUBLIC 'CODE'
_TEXT	ENDS
;	COMDAT ?reserve@?$vector@GV?$allocator@G@_STL@@@_STL@@QAEXI@Z
_TEXT	SEGMENT PARA USE32 PUBLIC 'CODE'
_TEXT	ENDS
;	COMDAT ??$find@G@?$_Rb_tree@GU?$pair@$$CBGE@_STL@@U?$_Select1st@U?$pair@$$CBGE@_STL@@@2@U?$less@G@2@V?$allocator@U?$pair@$$CBGE@_STL@@@2@@_STL@@QAE?AU?$_Rb_tree_iterator@U?$pair@$$CBGE@_STL@@U?$_Nonconst_traits@U?$pair@$$CBGE@_STL@@@2@@1@ABG@Z
_TEXT	SEGMENT PARA USE32 PUBLIC 'CODE'
_TEXT	ENDS
;	COMDAT ??$find@G@?$_Rb_tree@GU?$pair@$$CBGE@_STL@@U?$_Select1st@U?$pair@$$CBGE@_STL@@@2@U?$less@G@2@V?$allocator@U?$pair@$$CBGE@_STL@@@2@@_STL@@QBE?AU?$_Rb_tree_iterator@U?$pair@$$CBGE@_STL@@U?$_Const_traits@U?$pair@$$CBGE@_STL@@@2@@1@ABG@Z
_TEXT	SEGMENT PARA USE32 PUBLIC 'CODE'
_TEXT	ENDS
;	COMDAT ??$append@PBD@?$basic_string@DV?$char_traits@D@_STL@@V?$allocator@D@2@@_STL@@QAEAAV01@PBD0@Z
_TEXT	SEGMENT PARA USE32 PUBLIC 'CODE'
_TEXT	ENDS
;	COMDAT ??$_Destroy@U?$pair@$$CBGE@_STL@@@_STL@@YAXPAU?$pair@$$CBGE@0@@Z
_TEXT	SEGMENT PARA USE32 PUBLIC 'CODE'
_TEXT	ENDS
;	COMDAT ??$__copy_ptrs@PAGPAG@_STL@@YAPAGPAG00ABU__true_type@0@@Z
_TEXT	SEGMENT PARA USE32 PUBLIC 'CODE'
_TEXT	ENDS
;	COMDAT ??$?0U?$pair@$$CBGE@_STL@@@?$allocator@U?$_Rb_tree_node@U?$pair@$$CBGE@_STL@@@_STL@@@_STL@@QAE@ABV?$allocator@U?$pair@$$CBGE@_STL@@@1@@Z
_TEXT	SEGMENT PARA USE32 PUBLIC 'CODE'
_TEXT	ENDS
;	COMDAT ?_M_terminate_string@?$basic_string@DV?$char_traits@D@_STL@@V?$allocator@D@2@@_STL@@AAEXXZ
_TEXT	SEGMENT PARA USE32 PUBLIC 'CODE'
_TEXT	ENDS
;	COMDAT ??0?$_String_base@DV?$allocator@D@_STL@@@_STL@@QAE@ABV?$allocator@D@1@@Z
_TEXT	SEGMENT PARA USE32 PUBLIC 'CODE'
_TEXT	ENDS
;	COMDAT ??0?$allocator@D@_STL@@QAE@XZ
_TEXT	SEGMENT PARA USE32 PUBLIC 'CODE'
_TEXT	ENDS
;	COMDAT ?allocate@?$allocator@D@_STL@@QAEPADIPBX@Z
_TEXT	SEGMENT PARA USE32 PUBLIC 'CODE'
_TEXT	ENDS
;	COMDAT ?allocate@?$allocator@G@_STL@@QAEPAGIPBX@Z
_TEXT	SEGMENT PARA USE32 PUBLIC 'CODE'
_TEXT	ENDS
;	COMDAT ?rdbuf@?$basic_ios@DV?$char_traits@D@_STL@@@_STL@@QBEPAV?$basic_streambuf@DV?$char_traits@D@_STL@@@2@XZ
_TEXT	SEGMENT PARA USE32 PUBLIC 'CODE'
_TEXT	ENDS
;	COMDAT ?setstate@?$basic_ios@DV?$char_traits@D@_STL@@@_STL@@QAEXH@Z
_TEXT	SEGMENT PARA USE32 PUBLIC 'CODE'
_TEXT	ENDS
;	COMDAT ?_M_exit_putback_mode@?$basic_filebuf@DV?$char_traits@D@_STL@@@_STL@@AAEXXZ
_TEXT	SEGMENT PARA USE32 PUBLIC 'CODE'
_TEXT	ENDS
;	COMDAT ??R?$_Eq_traits@V?$char_traits@D@_STL@@@_STL@@QBE_NABD0@Z
_TEXT	SEGMENT PARA USE32 PUBLIC 'CODE'
_TEXT	ENDS
;	COMDAT ?_S_right@?$_Rb_tree@GU?$pair@$$CBGE@_STL@@U?$_Select1st@U?$pair@$$CBGE@_STL@@@2@U?$less@G@2@V?$allocator@U?$pair@$$CBGE@_STL@@@2@@_STL@@KAAAPAU?$_Rb_tree_node@U?$pair@$$CBGE@_STL@@@2@PAU_Rb_tree_node_base@2@@Z
_TEXT	SEGMENT PARA USE32 PUBLIC 'CODE'
_TEXT	ENDS
;	COMDAT ?_S_key@?$_Rb_tree@GU?$pair@$$CBGE@_STL@@U?$_Select1st@U?$pair@$$CBGE@_STL@@@2@U?$less@G@2@V?$allocator@U?$pair@$$CBGE@_STL@@@2@@_STL@@KAABGPAU_Rb_tree_node_base@2@@Z
_TEXT	SEGMENT PARA USE32 PUBLIC 'CODE'
_TEXT	ENDS
;	COMDAT ?size@?$_Rb_tree@GU?$pair@$$CBGE@_STL@@U?$_Select1st@U?$pair@$$CBGE@_STL@@@2@U?$less@G@2@V?$allocator@U?$pair@$$CBGE@_STL@@@2@@_STL@@QBEIXZ
_TEXT	SEGMENT PARA USE32 PUBLIC 'CODE'
_TEXT	ENDS
;	COMDAT ?size@?$vector@GV?$allocator@G@_STL@@@_STL@@QBEIXZ
_TEXT	SEGMENT PARA USE32 PUBLIC 'CODE'
_TEXT	ENDS
;	COMDAT ?_M_clear@?$vector@GV?$allocator@G@_STL@@@_STL@@IAEXXZ
_TEXT	SEGMENT PARA USE32 PUBLIC 'CODE'
_TEXT	ENDS
;	COMDAT ?_M_set@?$vector@GV?$allocator@G@_STL@@@_STL@@IAEXPAG00@Z
_TEXT	SEGMENT PARA USE32 PUBLIC 'CODE'
_TEXT	ENDS
;	COMDAT ??E?$_Rb_tree_iterator@U?$pair@$$CBGE@_STL@@U?$_Nonconst_traits@U?$pair@$$CBGE@_STL@@@2@@_STL@@QAEAAU01@XZ
_TEXT	SEGMENT PARA USE32 PUBLIC 'CODE'
_TEXT	ENDS
;	COMDAT ??F?$_Rb_tree_iterator@U?$pair@$$CBGE@_STL@@U?$_Nonconst_traits@U?$pair@$$CBGE@_STL@@@2@@_STL@@QAEAAU01@XZ
_TEXT	SEGMENT PARA USE32 PUBLIC 'CODE'
_TEXT	ENDS
;	COMDAT ??0sentry@?$basic_ostream@DV?$char_traits@D@_STL@@@_STL@@QAE@AAV12@@Z
_TEXT	SEGMENT PARA USE32 PUBLIC 'CODE'
_TEXT	ENDS
;	COMDAT ??1sentry@?$basic_ostream@DV?$char_traits@D@_STL@@@_STL@@QAE@XZ
_TEXT	SEGMENT PARA USE32 PUBLIC 'CODE'
_TEXT	ENDS
;	COMDAT ??Bsentry@?$basic_ostream@DV?$char_traits@D@_STL@@@_STL@@QBE_NXZ
_TEXT	SEGMENT PARA USE32 PUBLIC 'CODE'
_TEXT	ENDS
;	COMDAT ?_M_terminate_string_aux@?$basic_string@DV?$char_traits@D@_STL@@V?$allocator@D@2@@_STL@@AAEXABU__true_type@2@@Z
_TEXT	SEGMENT PARA USE32 PUBLIC 'CODE'
_TEXT	ENDS
;	COMDAT ??0?$_STLP_alloc_proxy@PADDV?$allocator@D@_STL@@@_STL@@QAE@ABV?$allocator@D@1@PAD@Z
_TEXT	SEGMENT PARA USE32 PUBLIC 'CODE'
_TEXT	ENDS
;	COMDAT ?clear@?$basic_ios@DV?$char_traits@D@_STL@@@_STL@@QAEXH@Z
_TEXT	SEGMENT PARA USE32 PUBLIC 'CODE'
_TEXT	ENDS
;	COMDAT ?flush@?$basic_ostream@DV?$char_traits@D@_STL@@@_STL@@QAEAAV12@XZ
_TEXT	SEGMENT PARA USE32 PUBLIC 'CODE'
_TEXT	ENDS
;	COMDAT ??0?$allocator@D@_STL@@QAE@ABV01@@Z
_TEXT	SEGMENT PARA USE32 PUBLIC 'CODE'
_TEXT	ENDS
;	COMDAT ?_M_handle_exception@?$basic_ios@DV?$char_traits@D@_STL@@@_STL@@QAEXH@Z
_TEXT	SEGMENT PARA USE32 PUBLIC 'CODE'
_TEXT	ENDS
;	COMDAT ?_M_unshift@?$basic_filebuf@DV?$char_traits@D@_STL@@@_STL@@AAE_NXZ
_TEXT	SEGMENT PARA USE32 PUBLIC 'CODE'
_TEXT	ENDS
;	COMDAT ?_M_allocate_buffers@?$basic_filebuf@DV?$char_traits@D@_STL@@@_STL@@AAE_NXZ
_TEXT	SEGMENT PARA USE32 PUBLIC 'CODE'
_TEXT	ENDS
;	COMDAT ??$max@H@_STL@@YAABHABH0@Z
_TEXT	SEGMENT PARA USE32 PUBLIC 'CODE'
_TEXT	ENDS
;	COMDAT ??$use_facet@V?$codecvt@DDH@_STL@@@_STL@@YAABV?$codecvt@DDH@0@ABVlocale@0@@Z
_TEXT	SEGMENT PARA USE32 PUBLIC 'CODE'
_TEXT	ENDS
;	COMDAT ?_M_insert@?$_Rb_tree@GU?$pair@$$CBGE@_STL@@U?$_Select1st@U?$pair@$$CBGE@_STL@@@2@U?$less@G@2@V?$allocator@U?$pair@$$CBGE@_STL@@@2@@_STL@@AAE?AU?$_Rb_tree_iterator@U?$pair@$$CBGE@_STL@@U?$_Nonconst_traits@U?$pair@$$CBGE@_STL@@@2@@2@PAU_Rb_tree_node_base@2@0ABU?$pair@$$CBGE@2@0@Z
_TEXT	SEGMENT PARA USE32 PUBLIC 'CODE'
_TEXT	ENDS
;	COMDAT ?insert_unique@?$_Rb_tree@GU?$pair@$$CBGE@_STL@@U?$_Select1st@U?$pair@$$CBGE@_STL@@@2@U?$less@G@2@V?$allocator@U?$pair@$$CBGE@_STL@@@2@@_STL@@QAE?AU?$pair@U?$_Rb_tree_iterator@U?$pair@$$CBGE@_STL@@U?$_Nonconst_traits@U?$pair@$$CBGE@_STL@@@2@@_STL@@_N@2@ABU?$pair@$$CBGE@2@@Z
_TEXT	SEGMENT PARA USE32 PUBLIC 'CODE'
_TEXT	ENDS
;	COMDAT ??$_M_allocate_and_copy@PAG@?$vector@GV?$allocator@G@_STL@@@_STL@@IAEPAGIPAG0@Z
_TEXT	SEGMENT PARA USE32 PUBLIC 'CODE'
_TEXT	ENDS
;	COMDAT ??$_M_find@G@?$_Rb_tree@GU?$pair@$$CBGE@_STL@@U?$_Select1st@U?$pair@$$CBGE@_STL@@@2@U?$less@G@2@V?$allocator@U?$pair@$$CBGE@_STL@@@2@@_STL@@ABEPAU?$_Rb_tree_node@U?$pair@$$CBGE@_STL@@@1@ABG@Z
_TEXT	SEGMENT PARA USE32 PUBLIC 'CODE'
_TEXT	ENDS
;	COMDAT ??$_M_append_dispatch@PBD@?$basic_string@DV?$char_traits@D@_STL@@V?$allocator@D@2@@_STL@@AAEAAV01@PBD0ABU__false_type@1@@Z
_TEXT	SEGMENT PARA USE32 PUBLIC 'CODE'
_TEXT	ENDS
;	COMDAT ??$_M_init@DV?$char_traits@D@_STL@@@_STL@@YA_NAAV?$basic_ostream@DV?$char_traits@D@_STL@@@0@@Z
_TEXT	SEGMENT PARA USE32 PUBLIC 'CODE'
_TEXT	ENDS
;	COMDAT ?tie@?$basic_ios@DV?$char_traits@D@_STL@@@_STL@@QBEPAV?$basic_ostream@DV?$char_traits@D@_STL@@@2@XZ
_TEXT	SEGMENT PARA USE32 PUBLIC 'CODE'
_TEXT	ENDS
;	COMDAT ?_M_create_node@?$_Rb_tree@GU?$pair@$$CBGE@_STL@@U?$_Select1st@U?$pair@$$CBGE@_STL@@@2@U?$less@G@2@V?$allocator@U?$pair@$$CBGE@_STL@@@2@@_STL@@IAEPAU?$_Rb_tree_node@U?$pair@$$CBGE@_STL@@@2@ABU?$pair@$$CBGE@2@@Z
_TEXT	SEGMENT PARA USE32 PUBLIC 'CODE'
_TEXT	ENDS
;	COMDAT ?_S_parent@?$_Rb_tree@GU?$pair@$$CBGE@_STL@@U?$_Select1st@U?$pair@$$CBGE@_STL@@@2@U?$less@G@2@V?$allocator@U?$pair@$$CBGE@_STL@@@2@@_STL@@KAAAPAU?$_Rb_tree_node@U?$pair@$$CBGE@_STL@@@2@PAU32@@Z
_TEXT	SEGMENT PARA USE32 PUBLIC 'CODE'
_TEXT	ENDS
;	COMDAT ?begin@?$_Rb_tree@GU?$pair@$$CBGE@_STL@@U?$_Select1st@U?$pair@$$CBGE@_STL@@@2@U?$less@G@2@V?$allocator@U?$pair@$$CBGE@_STL@@@2@@_STL@@QAE?AU?$_Rb_tree_iterator@U?$pair@$$CBGE@_STL@@U?$_Nonconst_traits@U?$pair@$$CBGE@_STL@@@2@@2@XZ
_TEXT	SEGMENT PARA USE32 PUBLIC 'CODE'
_TEXT	ENDS
;	COMDAT ??0?$pair@U?$_Rb_tree_iterator@U?$pair@$$CBGE@_STL@@U?$_Nonconst_traits@U?$pair@$$CBGE@_STL@@@2@@_STL@@_N@_STL@@QAE@ABU?$_Rb_tree_iterator@U?$pair@$$CBGE@_STL@@U?$_Nonconst_traits@U?$pair@$$CBGE@_STL@@@2@@1@AB_N@Z
_TEXT	SEGMENT PARA USE32 PUBLIC 'CODE'
_TEXT	ENDS
;	COMDAT ??$__uninitialized_copy@PAGPAG@_STL@@YAPAGPAG00ABU__true_type@0@@Z
_TEXT	SEGMENT PARA USE32 PUBLIC 'CODE'
_TEXT	ENDS
;	COMDAT ??$append@PBD@?$basic_string@DV?$char_traits@D@_STL@@V?$allocator@D@2@@_STL@@AAEAAV01@PBD0ABUforward_iterator_tag@1@@Z
_TEXT	SEGMENT PARA USE32 PUBLIC 'CODE'
_TEXT	ENDS
;	COMDAT ??$_Construct@U?$pair@$$CBGE@_STL@@U12@@_STL@@YAXPAU?$pair@$$CBGE@0@ABU10@@Z
_TEXT	SEGMENT PARA USE32 PUBLIC 'CODE'
_TEXT	ENDS
;	COMDAT ?_M_construct_null@?$basic_string@DV?$char_traits@D@_STL@@V?$allocator@D@2@@_STL@@AAEXPAD@Z
_TEXT	SEGMENT PARA USE32 PUBLIC 'CODE'
_TEXT	ENDS
;	COMDAT ?max_size@?$basic_string@DV?$char_traits@D@_STL@@V?$allocator@D@2@@_STL@@QBEIXZ
_TEXT	SEGMENT PARA USE32 PUBLIC 'CODE'
_TEXT	ENDS
;	COMDAT ?capacity@?$basic_string@DV?$char_traits@D@_STL@@V?$allocator@D@2@@_STL@@QBEIXZ
_TEXT	SEGMENT PARA USE32 PUBLIC 'CODE'
_TEXT	ENDS
;	COMDAT ??0?$pair@$$CBGE@_STL@@QAE@ABU01@@Z
_TEXT	SEGMENT PARA USE32 PUBLIC 'CODE'
_TEXT	ENDS
;	COMDAT ?_Ret@?$_BothPtrType@PAGPAG@_STL@@SA?AU__true_type@2@XZ
_TEXT	SEGMENT PARA USE32 PUBLIC 'CODE'
_TEXT	ENDS
;	COMDAT ?_M_construct_null_aux@?$basic_string@DV?$char_traits@D@_STL@@V?$allocator@D@2@@_STL@@AAEXPADABU__true_type@2@@Z
_TEXT	SEGMENT PARA USE32 PUBLIC 'CODE'
_TEXT	ENDS
;	COMDAT ?max_size@?$_String_base@DV?$allocator@D@_STL@@@_STL@@QBEIXZ
_TEXT	SEGMENT PARA USE32 PUBLIC 'CODE'
_TEXT	ENDS
;	COMDAT ??$__copy_aux@PAGPAG@_STL@@YAPAGPAG00ABU__true_type@0@@Z
_TEXT	SEGMENT PARA USE32 PUBLIC 'CODE'
_TEXT	ENDS
;	COMDAT ??$distance@PBD@_STL@@YAHABQBD0@Z
_TEXT	SEGMENT PARA USE32 PUBLIC 'CODE'
_TEXT	ENDS
;	COMDAT ?_M_throw_length_error@?$_String_base@DV?$allocator@D@_STL@@@_STL@@QBEXXZ
_TEXT	SEGMENT PARA USE32 PUBLIC 'CODE'
_TEXT	ENDS
;	COMDAT ??$max@I@_STL@@YAABIABI0@Z
_TEXT	SEGMENT PARA USE32 PUBLIC 'CODE'
_TEXT	ENDS
;	COMDAT ??$uninitialized_copy@PADPAD@_STL@@YAPADPAD00@Z
_TEXT	SEGMENT PARA USE32 PUBLIC 'CODE'
_TEXT	ENDS
;	COMDAT ?_Ret@?$_OKToMemCpy@GG@_STL@@SA?AU__true_type@2@XZ
_TEXT	SEGMENT PARA USE32 PUBLIC 'CODE'
_TEXT	ENDS
;	COMDAT ??$_IsOKToMemCpy@GG@_STL@@YA?AU?$_OKToMemCpy@GG@0@PAG0@Z
_TEXT	SEGMENT PARA USE32 PUBLIC 'CODE'
_TEXT	ENDS
;	COMDAT ??$__distance@PBD@_STL@@YAHABQBD0ABUrandom_access_iterator_tag@0@@Z
_TEXT	SEGMENT PARA USE32 PUBLIC 'CODE'
_TEXT	ENDS
;	COMDAT ??$__uninitialized_copy@PADPAD@_STL@@YAPADPAD00ABU__true_type@0@@Z
_TEXT	SEGMENT PARA USE32 PUBLIC 'CODE'
_TEXT	ENDS
;	COMDAT ?_Ret@?$_BothPtrType@PADPAD@_STL@@SA?AU__true_type@2@XZ
_TEXT	SEGMENT PARA USE32 PUBLIC 'CODE'
_TEXT	ENDS
;	COMDAT ??$__copy_aux@PADPAD@_STL@@YAPADPAD00ABU__true_type@0@@Z
_TEXT	SEGMENT PARA USE32 PUBLIC 'CODE'
_TEXT	ENDS
;	COMDAT ?_Ret@?$_OKToMemCpy@DD@_STL@@SA?AU__true_type@2@XZ
_TEXT	SEGMENT PARA USE32 PUBLIC 'CODE'
_TEXT	ENDS
;	COMDAT ??$_IsOKToMemCpy@DD@_STL@@YA?AU?$_OKToMemCpy@DD@0@PAD0@Z
_TEXT	SEGMENT PARA USE32 PUBLIC 'CODE'
_TEXT	ENDS
;	COMDAT ??$__copy_ptrs@PADPAD@_STL@@YAPADPAD00ABU__true_type@0@@Z
_TEXT	SEGMENT PARA USE32 PUBLIC 'CODE'
_TEXT	ENDS
;	COMDAT ??_R3IFileIO@@8
rdata$r	SEGMENT DWORD USE32 PUBLIC 'CONST'
rdata$r	ENDS
;	COMDAT ??_R3ovfstream@@8
rdata$r	SEGMENT DWORD USE32 PUBLIC 'CONST'
rdata$r	ENDS
;	COMDAT ??_R3ivfstream@@8
rdata$r	SEGMENT DWORD USE32 PUBLIC 'CONST'
rdata$r	ENDS
;	COMDAT ??_R3iovfs_base@@8
rdata$r	SEGMENT DWORD USE32 PUBLIC 'CONST'
rdata$r	ENDS
;	COMDAT ??_R3?$basic_ofstream@DV?$char_traits@D@_STL@@@_STL@@8
rdata$r	SEGMENT DWORD USE32 PUBLIC 'CONST'
rdata$r	ENDS
;	COMDAT ??_R2IFileIO@@8
rdata$r	SEGMENT DWORD USE32 PUBLIC 'CONST'
rdata$r	ENDS
;	COMDAT ??_R2ovfstream@@8
rdata$r	SEGMENT DWORD USE32 PUBLIC 'CONST'
rdata$r	ENDS
;	COMDAT ??_R2ivfstream@@8
rdata$r	SEGMENT DWORD USE32 PUBLIC 'CONST'
rdata$r	ENDS
;	COMDAT ??_R2iovfs_base@@8
rdata$r	SEGMENT DWORD USE32 PUBLIC 'CONST'
rdata$r	ENDS
;	COMDAT ??_R2?$basic_ofstream@DV?$char_traits@D@_STL@@@_STL@@8
rdata$r	SEGMENT DWORD USE32 PUBLIC 'CONST'
rdata$r	ENDS
;	COMDAT ??_R1A@?0A@A@IFileIO@@8
rdata$r	SEGMENT DWORD USE32 PUBLIC 'CONST'
rdata$r	ENDS
;	COMDAT ??_R1A@?0A@A@ovfstream@@8
rdata$r	SEGMENT DWORD USE32 PUBLIC 'CONST'
rdata$r	ENDS
;	COMDAT ??_R1A@?0A@A@ivfstream@@8
rdata$r	SEGMENT DWORD USE32 PUBLIC 'CONST'
rdata$r	ENDS
;	COMDAT ??_R1A@?0A@A@iovfs_base@@8
rdata$r	SEGMENT DWORD USE32 PUBLIC 'CONST'
rdata$r	ENDS
;	COMDAT ??_R1A@A@3A@ios_base@_STL@@8
rdata$r	SEGMENT DWORD USE32 PUBLIC 'CONST'
rdata$r	ENDS
;	COMDAT ??_R0?AVios_base@_STL@@@8
_DATA	SEGMENT DWORD USE32 PUBLIC 'DATA'
_DATA	ENDS
;	COMDAT ??_R1A@A@3BA@?$basic_ios@DV?$char_traits@D@_STL@@@_STL@@8
rdata$r	SEGMENT DWORD USE32 PUBLIC 'CONST'
rdata$r	ENDS
;	COMDAT ??_R0?AV?$basic_ios@DV?$char_traits@D@_STL@@@_STL@@@8
_DATA	SEGMENT DWORD USE32 PUBLIC 'DATA'
_DATA	ENDS
;	COMDAT ??_R1A@?0A@A@?$basic_ostream@DV?$char_traits@D@_STL@@@_STL@@8
rdata$r	SEGMENT DWORD USE32 PUBLIC 'CONST'
rdata$r	ENDS
;	COMDAT ??_R0?AV?$basic_ostream@DV?$char_traits@D@_STL@@@_STL@@@8
_DATA	SEGMENT DWORD USE32 PUBLIC 'DATA'
_DATA	ENDS
;	COMDAT ??_R1A@?0A@A@?$basic_ofstream@DV?$char_traits@D@_STL@@@_STL@@8
rdata$r	SEGMENT DWORD USE32 PUBLIC 'CONST'
rdata$r	ENDS
;	COMDAT ??_R0?AVIFileIO@@@8
_DATA	SEGMENT DWORD USE32 PUBLIC 'DATA'
_DATA	ENDS
;	COMDAT ??_R0?AVovfstream@@@8
_DATA	SEGMENT DWORD USE32 PUBLIC 'DATA'
_DATA	ENDS
;	COMDAT ??_R0?AVivfstream@@@8
_DATA	SEGMENT DWORD USE32 PUBLIC 'DATA'
_DATA	ENDS
;	COMDAT ??_R0?AViovfs_base@@@8
_DATA	SEGMENT DWORD USE32 PUBLIC 'DATA'
_DATA	ENDS
;	COMDAT ??_R0?AV?$basic_ofstream@DV?$char_traits@D@_STL@@@_STL@@@8
_DATA	SEGMENT DWORD USE32 PUBLIC 'DATA'
_DATA	ENDS
;	COMDAT ??_R4IFileIO@@6B@
rdata$r	SEGMENT DWORD USE32 PUBLIC 'CONST'
rdata$r	ENDS
;	COMDAT ??_R4ovfstream@@6B@
rdata$r	SEGMENT DWORD USE32 PUBLIC 'CONST'
rdata$r	ENDS
;	COMDAT ??_R4ivfstream@@6B@
rdata$r	SEGMENT DWORD USE32 PUBLIC 'CONST'
rdata$r	ENDS
;	COMDAT ??_R4iovfs_base@@6B@
rdata$r	SEGMENT DWORD USE32 PUBLIC 'CONST'
rdata$r	ENDS
;	COMDAT ??_R4?$basic_ofstream@DV?$char_traits@D@_STL@@@_STL@@6B@
rdata$r	SEGMENT DWORD USE32 PUBLIC 'CONST'
rdata$r	ENDS
;	COMDAT ??3@YAXPAX0@Z
_TEXT	SEGMENT PARA USE32 PUBLIC 'CODE'
_TEXT	ENDS
;	COMDAT ??2@YAPAXIPAX@Z
_TEXT	SEGMENT PARA USE32 PUBLIC 'CODE'
_TEXT	ENDS
;	COMDAT ?assign@?$char_traits@D@_STL@@SAXAADABD@Z
_TEXT	SEGMENT PARA USE32 PUBLIC 'CODE'
_TEXT	ENDS
;	COMDAT ?_M_deallocate_block@?$_String_base@DV?$allocator@D@_STL@@@_STL@@QAEXXZ
_TEXT	SEGMENT PARA USE32 PUBLIC 'CODE'
_TEXT	ENDS
;	COMDAT ?deallocate@?$allocator@D@_STL@@QAEXPADI@Z
_TEXT	SEGMENT PARA USE32 PUBLIC 'CODE'
_TEXT	ENDS
;	COMDAT ?uninitialized_copy@_STL@@YAPADPBD0PAD@Z
_TEXT	SEGMENT PARA USE32 PUBLIC 'CODE'
_TEXT	ENDS
;	COMDAT ?good@ios_base@_STL@@QBE_NXZ
_TEXT	SEGMENT PARA USE32 PUBLIC 'CODE'
_TEXT	ENDS
;	COMDAT ?__page_size@_Filebuf_base@_STL@@SAIXZ
_TEXT	SEGMENT PARA USE32 PUBLIC 'CODE'
_TEXT	ENDS
;	COMDAT ?_M_write@?$basic_filebuf@DV?$char_traits@D@_STL@@@_STL@@QAE_NPADH@Z
_TEXT	SEGMENT PARA USE32 PUBLIC 'CODE'
_TEXT	ENDS
;	COMDAT ?unshift@?$codecvt@DDH@_STL@@QBE?AW4result@codecvt_base@2@AAHPAD1AAPAD@Z
_TEXT	SEGMENT PARA USE32 PUBLIC 'CODE'
_TEXT	ENDS
;	COMDAT ?_M_get_exception_mask@ios_base@_STL@@IBEHXZ
_TEXT	SEGMENT PARA USE32 PUBLIC 'CODE'
_TEXT	ENDS
;	COMDAT ?_M_setstate_nothrow@ios_base@_STL@@IAEXH@Z
_TEXT	SEGMENT PARA USE32 PUBLIC 'CODE'
_TEXT	ENDS
;	COMDAT ?pubsync@?$basic_streambuf@DV?$char_traits@D@_STL@@@_STL@@QAEHXZ
_TEXT	SEGMENT PARA USE32 PUBLIC 'CODE'
_TEXT	ENDS
;	COMDAT ?_M_check_exception_mask@ios_base@_STL@@IAEXXZ
_TEXT	SEGMENT PARA USE32 PUBLIC 'CODE'
_TEXT	ENDS
;	COMDAT ?_M_clear_nothrow@ios_base@_STL@@IAEXH@Z
_TEXT	SEGMENT PARA USE32 PUBLIC 'CODE'
_TEXT	ENDS
;	COMDAT ?flags@ios_base@_STL@@QBEHXZ
_TEXT	SEGMENT PARA USE32 PUBLIC 'CODE'
_TEXT	ENDS
;	COMDAT ?rdstate@ios_base@_STL@@QBEHXZ
_TEXT	SEGMENT PARA USE32 PUBLIC 'CODE'
_TEXT	ENDS
;	COMDAT ??1?$_STLP_alloc_proxy@PADDV?$allocator@D@_STL@@@_STL@@QAE@XZ
_TEXT	SEGMENT PARA USE32 PUBLIC 'CODE'
_TEXT	ENDS
;	COMDAT ?__copy_trivial@_STL@@YAPAXPBX0PAX@Z
_TEXT	SEGMENT PARA USE32 PUBLIC 'CODE'
_TEXT	ENDS
;	COMDAT ??1?$_String_base@DV?$allocator@D@_STL@@@_STL@@QAE@XZ
_TEXT	SEGMENT PARA USE32 PUBLIC 'CODE'
_TEXT	ENDS
;	COMDAT ??1?$allocator@D@_STL@@QAE@XZ
_TEXT	SEGMENT PARA USE32 PUBLIC 'CODE'
_TEXT	ENDS
;	COMDAT ?always_noconv@?$codecvt@DDH@_STL@@QBE_NXZ
_TEXT	SEGMENT PARA USE32 PUBLIC 'CODE'
_TEXT	ENDS
;	COMDAT ?encoding@?$codecvt@DDH@_STL@@QBEHXZ
_TEXT	SEGMENT PARA USE32 PUBLIC 'CODE'
_TEXT	ENDS
;	COMDAT ?max_length@?$codecvt@DDH@_STL@@QBEHXZ
_TEXT	SEGMENT PARA USE32 PUBLIC 'CODE'
_TEXT	ENDS
;	COMDAT ?__o_mode@_Filebuf_base@_STL@@QBEHXZ
_TEXT	SEGMENT PARA USE32 PUBLIC 'CODE'
_TEXT	ENDS
;	COMDAT ?sputn@?$basic_streambuf@DV?$char_traits@D@_STL@@@_STL@@QAEHPBDH@Z
_TEXT	SEGMENT PARA USE32 PUBLIC 'CODE'
_TEXT	ENDS
;	COMDAT ?__stl_new@_STL@@YAPAXI@Z
_TEXT	SEGMENT PARA USE32 PUBLIC 'CODE'
_TEXT	ENDS
;	COMDAT ?deallocate@?$__node_alloc@$00$0A@@_STL@@SAXPAXI@Z
_TEXT	SEGMENT PARA USE32 PUBLIC 'CODE'
_TEXT	ENDS
;	COMDAT ?__stl_delete@_STL@@YAXPAX@Z
_TEXT	SEGMENT PARA USE32 PUBLIC 'CODE'
_TEXT	ENDS
;	COMDAT ?_Destroy@_STL@@YAXPAD0@Z
_TEXT	SEGMENT PARA USE32 PUBLIC 'CODE'
_TEXT	ENDS
;	COMDAT ?deallocate@?$allocator@G@_STL@@QAEXPAGI@Z
_TEXT	SEGMENT PARA USE32 PUBLIC 'CODE'
_TEXT	ENDS
;	COMDAT ??1?$_STLP_alloc_proxy@PAGGV?$allocator@G@_STL@@@_STL@@QAE@XZ
_TEXT	SEGMENT PARA USE32 PUBLIC 'CODE'
_TEXT	ENDS
;	COMDAT ??1?$basic_ios@DV?$char_traits@D@_STL@@@_STL@@UAE@XZ
_TEXT	SEGMENT PARA USE32 PUBLIC 'CODE'
_TEXT	ENDS
;	COMDAT ??_7?$basic_ios@DV?$char_traits@D@_STL@@@_STL@@6B@
CONST	SEGMENT DWORD USE32 PUBLIC 'CONST'
CONST	ENDS
;	COMDAT ??_R4?$basic_ios@DV?$char_traits@D@_STL@@@_STL@@6B@
rdata$r	SEGMENT DWORD USE32 PUBLIC 'CONST'
rdata$r	ENDS
;	COMDAT ??_R3?$basic_ios@DV?$char_traits@D@_STL@@@_STL@@8
rdata$r	SEGMENT DWORD USE32 PUBLIC 'CONST'
rdata$r	ENDS
;	COMDAT ??_R2?$basic_ios@DV?$char_traits@D@_STL@@@_STL@@8
rdata$r	SEGMENT DWORD USE32 PUBLIC 'CONST'
rdata$r	ENDS
;	COMDAT ??_R1A@?0A@A@?$basic_ios@DV?$char_traits@D@_STL@@@_STL@@8
rdata$r	SEGMENT DWORD USE32 PUBLIC 'CONST'
rdata$r	ENDS
;	COMDAT ??_R1A@?0A@A@ios_base@_STL@@8
rdata$r	SEGMENT DWORD USE32 PUBLIC 'CONST'
rdata$r	ENDS
;	COMDAT ??_G?$basic_ios@DV?$char_traits@D@_STL@@@_STL@@UAEPAXI@Z
_TEXT	SEGMENT PARA USE32 PUBLIC 'CODE'
_TEXT	ENDS
;	COMDAT ??1?$basic_filebuf@DV?$char_traits@D@_STL@@@_STL@@UAE@XZ
_TEXT	SEGMENT PARA USE32 PUBLIC 'CODE'
_TEXT	ENDS
;	COMDAT ??_7?$basic_filebuf@DV?$char_traits@D@_STL@@@_STL@@6B@
CONST	SEGMENT DWORD USE32 PUBLIC 'CONST'
CONST	ENDS
;	COMDAT ??_R4?$basic_filebuf@DV?$char_traits@D@_STL@@@_STL@@6B@
rdata$r	SEGMENT DWORD USE32 PUBLIC 'CONST'
rdata$r	ENDS
;	COMDAT ??_R0?AV?$basic_filebuf@DV?$char_traits@D@_STL@@@_STL@@@8
_DATA	SEGMENT DWORD USE32 PUBLIC 'DATA'
_DATA	ENDS
;	COMDAT ??_R3?$basic_filebuf@DV?$char_traits@D@_STL@@@_STL@@8
rdata$r	SEGMENT DWORD USE32 PUBLIC 'CONST'
rdata$r	ENDS
;	COMDAT ??_R2?$basic_filebuf@DV?$char_traits@D@_STL@@@_STL@@8
rdata$r	SEGMENT DWORD USE32 PUBLIC 'CONST'
rdata$r	ENDS
;	COMDAT ??_R1A@?0A@A@?$basic_filebuf@DV?$char_traits@D@_STL@@@_STL@@8
rdata$r	SEGMENT DWORD USE32 PUBLIC 'CONST'
rdata$r	ENDS
;	COMDAT ??_R1A@?0A@A@?$basic_streambuf@DV?$char_traits@D@_STL@@@_STL@@8
rdata$r	SEGMENT DWORD USE32 PUBLIC 'CONST'
rdata$r	ENDS
;	COMDAT ??_R0?AV?$basic_streambuf@DV?$char_traits@D@_STL@@@_STL@@@8
_DATA	SEGMENT DWORD USE32 PUBLIC 'DATA'
_DATA	ENDS
;	COMDAT ??_G?$basic_filebuf@DV?$char_traits@D@_STL@@@_STL@@UAEPAXI@Z
_TEXT	SEGMENT PARA USE32 PUBLIC 'CODE'
_TEXT	ENDS
;	COMDAT ?setbuf@?$basic_filebuf@DV?$char_traits@D@_STL@@@_STL@@MAEPAV?$basic_streambuf@DV?$char_traits@D@_STL@@@2@PADH@Z
_TEXT	SEGMENT PARA USE32 PUBLIC 'CODE'
_TEXT	ENDS
;	COMDAT ?seekoff@?$basic_filebuf@DV?$char_traits@D@_STL@@@_STL@@MAE?AV?$fpos@H@2@JHH@Z
_TEXT	SEGMENT PARA USE32 PUBLIC 'CODE'
_TEXT	ENDS
;	COMDAT ?_M_in_binary_mode@_Filebuf_base@_STL@@QBE_NXZ
_TEXT	SEGMENT PARA USE32 PUBLIC 'CODE'
_TEXT	ENDS
;	COMDAT ?length@?$codecvt@DDH@_STL@@QBEHABHPBD1I@Z
_TEXT	SEGMENT PARA USE32 PUBLIC 'CODE'
_TEXT	ENDS
;	COMDAT ?in@?$codecvt@DDH@_STL@@QBE?AW4result@codecvt_base@2@AAHPBD1AAPBDPAD3AAPAD@Z
_TEXT	SEGMENT PARA USE32 PUBLIC 'CODE'
_TEXT	ENDS
;	COMDAT ?eback@?$basic_streambuf@DV?$char_traits@D@_STL@@@_STL@@IBEPADXZ
_TEXT	SEGMENT PARA USE32 PUBLIC 'CODE'
_TEXT	ENDS
;	COMDAT ?_FILE_I_begin@_STL@@YAPADPBU_iobuf@@@Z
_TEXT	SEGMENT PARA USE32 PUBLIC 'CODE'
_TEXT	ENDS
;	COMDAT ?gptr@?$basic_streambuf@DV?$char_traits@D@_STL@@@_STL@@IBEPADXZ
_TEXT	SEGMENT PARA USE32 PUBLIC 'CODE'
_TEXT	ENDS
;	COMDAT ?_FILE_I_next@_STL@@YAPADPBU_iobuf@@@Z
_TEXT	SEGMENT PARA USE32 PUBLIC 'CODE'
_TEXT	ENDS
;	COMDAT ?_M_get_offset@_Filebuf_base@_STL@@QAEJPAD0@Z
_TEXT	SEGMENT PARA USE32 PUBLIC 'CODE'
_TEXT	ENDS
;	COMDAT ??$count@PADD@_STL@@YAHPAD0ABD@Z
_TEXT	SEGMENT PARA USE32 PUBLIC 'CODE'
_TEXT	ENDS
;	COMDAT ?seekpos@?$basic_filebuf@DV?$char_traits@D@_STL@@@_STL@@MAE?AV?$fpos@H@2@V32@H@Z
_TEXT	SEGMENT PARA USE32 PUBLIC 'CODE'
_TEXT	ENDS
;	COMDAT ?sync@?$basic_filebuf@DV?$char_traits@D@_STL@@@_STL@@MAEHXZ
_TEXT	SEGMENT PARA USE32 PUBLIC 'CODE'
_TEXT	ENDS
;	COMDAT ?showmanyc@?$basic_filebuf@DV?$char_traits@D@_STL@@@_STL@@MAEHXZ
_TEXT	SEGMENT PARA USE32 PUBLIC 'CODE'
_TEXT	ENDS
;	COMDAT ?egptr@?$basic_streambuf@DV?$char_traits@D@_STL@@@_STL@@IBEPADXZ
_TEXT	SEGMENT PARA USE32 PUBLIC 'CODE'
_TEXT	ENDS
;	COMDAT ?_FILE_I_end@_STL@@YAPADPBU_iobuf@@@Z
_TEXT	SEGMENT PARA USE32 PUBLIC 'CODE'
_TEXT	ENDS
;	COMDAT ?underflow@?$basic_filebuf@DV?$char_traits@D@_STL@@@_STL@@MAEHXZ
_TEXT	SEGMENT PARA USE32 PUBLIC 'CODE'
_TEXT	ENDS
;	COMDAT ?pbackfail@?$basic_filebuf@DV?$char_traits@D@_STL@@@_STL@@MAEHH@Z
_TEXT	SEGMENT PARA USE32 PUBLIC 'CODE'
_TEXT	ENDS
;	COMDAT ?gbump@?$basic_streambuf@DV?$char_traits@D@_STL@@@_STL@@IAEXH@Z
_TEXT	SEGMENT PARA USE32 PUBLIC 'CODE'
_TEXT	ENDS
;	COMDAT ?_FILE_I_bump@_STL@@YAXPAU_iobuf@@H@Z
_TEXT	SEGMENT PARA USE32 PUBLIC 'CODE'
_TEXT	ENDS
;	COMDAT ?to_int_type@?$char_traits@D@_STL@@SAHABD@Z
_TEXT	SEGMENT PARA USE32 PUBLIC 'CODE'
_TEXT	ENDS
;	COMDAT ?to_char_type@?$char_traits@D@_STL@@SADABH@Z
_TEXT	SEGMENT PARA USE32 PUBLIC 'CODE'
_TEXT	ENDS
;	COMDAT ?overflow@?$basic_filebuf@DV?$char_traits@D@_STL@@@_STL@@MAEHH@Z
_TEXT	SEGMENT PARA USE32 PUBLIC 'CODE'
_TEXT	ENDS
;	COMDAT ?pptr@?$basic_streambuf@DV?$char_traits@D@_STL@@@_STL@@IBEPADXZ
_TEXT	SEGMENT PARA USE32 PUBLIC 'CODE'
_TEXT	ENDS
;	COMDAT ?_FILE_O_next@_STL@@YAPADPBU_iobuf@@@Z
_TEXT	SEGMENT PARA USE32 PUBLIC 'CODE'
_TEXT	ENDS
;	COMDAT ?out@?$codecvt@DDH@_STL@@QBE?AW4result@codecvt_base@2@AAHPBD1AAPBDPAD3AAPAD@Z
_TEXT	SEGMENT PARA USE32 PUBLIC 'CODE'
_TEXT	ENDS
;	COMDAT ?_M_doit@?$_Noconv_output@V?$char_traits@D@_STL@@@_STL@@SA_NPAV?$basic_filebuf@DV?$char_traits@D@_STL@@@2@PAD1@Z
_TEXT	SEGMENT PARA USE32 PUBLIC 'CODE'
_TEXT	ENDS
;	COMDAT ?imbue@?$basic_filebuf@DV?$char_traits@D@_STL@@@_STL@@MAEXABVlocale@2@@Z
_TEXT	SEGMENT PARA USE32 PUBLIC 'CODE'
_TEXT	ENDS
;	COMDAT ??1?$basic_ostream@DV?$char_traits@D@_STL@@@_STL@@UAE@XZ
_TEXT	SEGMENT PARA USE32 PUBLIC 'CODE'
_TEXT	ENDS
;	COMDAT ??_7?$basic_ostream@DV?$char_traits@D@_STL@@@_STL@@6B@
CONST	SEGMENT DWORD USE32 PUBLIC 'CONST'
CONST	ENDS
;	COMDAT ??_R4?$basic_ostream@DV?$char_traits@D@_STL@@@_STL@@6B@
rdata$r	SEGMENT DWORD USE32 PUBLIC 'CONST'
rdata$r	ENDS
;	COMDAT ??_R3?$basic_ostream@DV?$char_traits@D@_STL@@@_STL@@8
rdata$r	SEGMENT DWORD USE32 PUBLIC 'CONST'
rdata$r	ENDS
;	COMDAT ??_R2?$basic_ostream@DV?$char_traits@D@_STL@@@_STL@@8
rdata$r	SEGMENT DWORD USE32 PUBLIC 'CONST'
rdata$r	ENDS
;	COMDAT ??_G?$basic_ostream@DV?$char_traits@D@_STL@@@_STL@@UAEPAXI@Z
_TEXT	SEGMENT PARA USE32 PUBLIC 'CODE'
_TEXT	ENDS
;	COMDAT ??_D?$basic_ostream@DV?$char_traits@D@_STL@@@_STL@@QAEXXZ
_TEXT	SEGMENT PARA USE32 PUBLIC 'CODE'
_TEXT	ENDS
;	COMDAT ??_7?$basic_ofstream@DV?$char_traits@D@_STL@@@_STL@@6B@
CONST	SEGMENT DWORD USE32 PUBLIC 'CONST'
CONST	ENDS
;	COMDAT ?_Destroy@_STL@@YAXPAG0@Z
_TEXT	SEGMENT PARA USE32 PUBLIC 'CODE'
_TEXT	ENDS
;	COMDAT ?setp@?$basic_streambuf@DV?$char_traits@D@_STL@@@_STL@@IAEXPAD0@Z
_TEXT	SEGMENT PARA USE32 PUBLIC 'CODE'
_TEXT	ENDS
;	COMDAT ?_FILE_O_set@_STL@@YAXPAU_iobuf@@PAD11@Z
_TEXT	SEGMENT PARA USE32 PUBLIC 'CODE'
_TEXT	ENDS
;	COMDAT ?_FILE_I_set@_STL@@YAXPAU_iobuf@@PAD11@Z
_TEXT	SEGMENT PARA USE32 PUBLIC 'CODE'
_TEXT	ENDS
;	COMDAT ?setg@?$basic_streambuf@DV?$char_traits@D@_STL@@@_STL@@IAEXPAD00@Z
_TEXT	SEGMENT PARA USE32 PUBLIC 'CODE'
_TEXT	ENDS
;	COMDAT ?__is_open@_Filebuf_base@_STL@@QBE_NXZ
_TEXT	SEGMENT PARA USE32 PUBLIC 'CODE'
_TEXT	ENDS
;	COMDAT ?length@?$char_traits@D@_STL@@SAIPBD@Z
_TEXT	SEGMENT PARA USE32 PUBLIC 'CODE'
_TEXT	ENDS
;	COMDAT ?eof@?$__char_traits_base@DH@_STL@@SAHXZ
_TEXT	SEGMENT PARA USE32 PUBLIC 'CODE'
_TEXT	ENDS
;	COMDAT ??8_Rb_tree_base_iterator@_STL@@QBE_NABU01@@Z
_TEXT	SEGMENT PARA USE32 PUBLIC 'CODE'
_TEXT	ENDS
;	COMDAT ??9_Rb_tree_base_iterator@_STL@@QBE_NABU01@@Z
_TEXT	SEGMENT PARA USE32 PUBLIC 'CODE'
_TEXT	ENDS
;	COMDAT ??1?$allocator@G@_STL@@QAE@XZ
_TEXT	SEGMENT PARA USE32 PUBLIC 'CODE'
_TEXT	ENDS
;	COMDAT ??_7ovfstream@@6B@
CONST	SEGMENT DWORD USE32 PUBLIC 'CONST'
CONST	ENDS
;	COMDAT ??_7ivfstream@@6B@
CONST	SEGMENT DWORD USE32 PUBLIC 'CONST'
CONST	ENDS
;	COMDAT ??1?$basic_string@DV?$char_traits@D@_STL@@V?$allocator@D@2@@_STL@@QAE@XZ
_TEXT	SEGMENT PARA USE32 PUBLIC 'CODE'
_TEXT	ENDS
;	COMDAT ??_7iovfs_base@@6B@
CONST	SEGMENT DWORD USE32 PUBLIC 'CONST'
CONST	ENDS
;	COMDAT ??_7IFileIO@@6B@
CONST	SEGMENT DWORD USE32 PUBLIC 'CONST'
CONST	ENDS
sxdata	SEGMENT DWORD USE32 'SXDATA'
sxdata	ENDS
FLAT	GROUP _DATA, CONST, _BSS
	ASSUME	CS: FLAT, DS: FLAT, SS: FLAT
endif

INCLUDELIB LIBCMT
INCLUDELIB OLDNAMES

PUBLIC	?g_pKeyAccelerator@@3PAVKeyAccelerator@@A	; g_pKeyAccelerator
_BSS	SEGMENT
?g_pKeyAccelerator@@3PAVKeyAccelerator@@A DD 01H DUP (?) ; g_pKeyAccelerator
_BSS	ENDS
PUBLIC	??2@YAPAXIPAX@Z					; operator new
; Function compile flags: /Ogty
; File c:\program files\microsoft visual studio .net 2003\vc7\include\new
;	COMDAT ??2@YAPAXIPAX@Z
_TEXT	SEGMENT
___formal$ = 8						; size = 4
__Where$ = 12						; size = 4
??2@YAPAXIPAX@Z PROC NEAR				; operator new, COMDAT

; 64   : 	return (_Where);

  00000	8b 44 24 08	 mov	 eax, DWORD PTR __Where$[esp-4]

; 65   : 	}

  00004	c3		 ret	 0
??2@YAPAXIPAX@Z ENDP					; operator new
_TEXT	ENDS
PUBLIC	??3@YAXPAX0@Z					; operator delete
; Function compile flags: /Ogty
;	COMDAT ??3@YAXPAX0@Z
_TEXT	SEGMENT
___formal$ = 8						; size = 4
___formal$ = 12						; size = 4
??3@YAXPAX0@Z PROC NEAR					; operator delete, COMDAT

; 69   : 	}

  00000	c3		 ret	 0
??3@YAXPAX0@Z ENDP					; operator delete
_TEXT	ENDS
PUBLIC	?__stl_new@_STL@@YAPAXI@Z			; _STL::__stl_new
EXTRN	??2@YAPAXI@Z:NEAR				; operator new
; Function compile flags: /Ogty
; File c:\stlport-4.6.1\stlport\stl\_new.h
;	COMDAT ?__stl_new@_STL@@YAPAXI@Z
_TEXT	SEGMENT
___n$ = 8						; size = 4
?__stl_new@_STL@@YAPAXI@Z PROC NEAR			; _STL::__stl_new, COMDAT

; 86   : inline void*  _STLP_CALL __stl_new(size_t __n)   { _STLP_CHECK_NULL_ALLOC(::operator _STLP_NEW(__n)); }

  00000	e9 00 00 00 00	 jmp	 ??2@YAPAXI@Z		; operator new
?__stl_new@_STL@@YAPAXI@Z ENDP				; _STL::__stl_new
_TEXT	ENDS
PUBLIC	?__stl_delete@_STL@@YAXPAX@Z			; _STL::__stl_delete
EXTRN	??3@YAXPAX@Z:NEAR				; operator delete
; Function compile flags: /Ogty
;	COMDAT ?__stl_delete@_STL@@YAXPAX@Z
_TEXT	SEGMENT
___p$ = 8						; size = 4
?__stl_delete@_STL@@YAXPAX@Z PROC NEAR			; _STL::__stl_delete, COMDAT

; 87   : inline void   _STLP_CALL __stl_delete(void* __p) { ::operator delete(__p); }

  00000	e9 00 00 00 00	 jmp	 ??3@YAXPAX@Z		; operator delete
?__stl_delete@_STL@@YAXPAX@Z ENDP			; _STL::__stl_delete
_TEXT	ENDS
PUBLIC	?_Destroy@_STL@@YAXPAG0@Z			; _STL::_Destroy
; Function compile flags: /Ogty
; File c:\stlport-4.6.1\stlport\stl\_construct.h
;	COMDAT ?_Destroy@_STL@@YAXPAG0@Z
_TEXT	SEGMENT
___formal$ = 8						; size = 4
___formal$ = 12						; size = 4
?_Destroy@_STL@@YAXPAG0@Z PROC NEAR			; _STL::_Destroy, COMDAT

; 144  : inline void _Destroy(wchar_t*, wchar_t*) {}

  00000	c3		 ret	 0
?_Destroy@_STL@@YAXPAG0@Z ENDP				; _STL::_Destroy
_TEXT	ENDS
PUBLIC	?__copy_trivial@_STL@@YAPAXPBX0PAX@Z		; _STL::__copy_trivial
EXTRN	_memmove:NEAR
; Function compile flags: /Ogty
; File c:\stlport-4.6.1\stlport\stl\_algobase.h
;	COMDAT ?__copy_trivial@_STL@@YAPAXPBX0PAX@Z
_TEXT	SEGMENT
___first$ = 8						; size = 4
___last$ = 12						; size = 4
___result$ = 16						; size = 4
?__copy_trivial@_STL@@YAPAXPBX0PAX@Z PROC NEAR		; _STL::__copy_trivial, COMDAT

; 148  :   return (__last == __first) ? __result : 
; 149  :     ((char*)memmove(__result, __first, ((const char*)__last - (const char*)__first))) + 
; 150  :     ((const char*)__last - (const char*)__first);

  00000	8b 44 24 04	 mov	 eax, DWORD PTR ___first$[esp-4]
  00004	56		 push	 esi
  00005	8b 74 24 0c	 mov	 esi, DWORD PTR ___last$[esp]
  00009	3b f0		 cmp	 esi, eax
  0000b	75 06		 jne	 SHORT $L78865
  0000d	8b 44 24 10	 mov	 eax, DWORD PTR ___result$[esp]
  00011	5e		 pop	 esi

; 151  : }

  00012	c3		 ret	 0
$L78865:

; 148  :   return (__last == __first) ? __result : 
; 149  :     ((char*)memmove(__result, __first, ((const char*)__last - (const char*)__first))) + 
; 150  :     ((const char*)__last - (const char*)__first);

  00013	2b f0		 sub	 esi, eax
  00015	56		 push	 esi
  00016	50		 push	 eax
  00017	8b 44 24 18	 mov	 eax, DWORD PTR ___result$[esp+8]
  0001b	50		 push	 eax
  0001c	e8 00 00 00 00	 call	 _memmove
  00021	83 c4 0c	 add	 esp, 12			; 0000000cH
  00024	03 c6		 add	 eax, esi
  00026	5e		 pop	 esi

; 151  : }

  00027	c3		 ret	 0
?__copy_trivial@_STL@@YAPAXPBX0PAX@Z ENDP		; _STL::__copy_trivial
_TEXT	ENDS
PUBLIC	?read@ivfstream@@QAEXPADI@Z			; ivfstream::read
; Function compile flags: /Ogty
; File c:\darkeden\designed_common\project\client\virtualfilesystem\vfstream.inl
;	COMDAT ?read@ivfstream@@QAEXPADI@Z
_TEXT	SEGMENT
_buf$ = 8						; size = 4
_len$ = 12						; size = 4
?read@ivfstream@@QAEXPADI@Z PROC NEAR			; ivfstream::read, COMDAT
; _this$ = ecx

; 81   : 	if(m_pFileIO) m_pFileIO->read(buf, len);

  00000	8b 41 04	 mov	 eax, DWORD PTR [ecx+4]
  00003	85 c0		 test	 eax, eax
  00005	74 07		 je	 SHORT $L74800
  00007	8b c8		 mov	 ecx, eax
  00009	8b 01		 mov	 eax, DWORD PTR [ecx]
  0000b	ff 60 10	 jmp	 DWORD PTR [eax+16]
$L74800:

; 82   : }

  0000e	c2 08 00	 ret	 8
?read@ivfstream@@QAEXPADI@Z ENDP			; ivfstream::read
_TEXT	ENDS
PUBLIC	?eof@ivfstream@@QBE_NXZ				; ivfstream::eof
; Function compile flags: /Ogty
;	COMDAT ?eof@ivfstream@@QBE_NXZ
_TEXT	SEGMENT
?eof@ivfstream@@QBE_NXZ PROC NEAR			; ivfstream::eof, COMDAT
; _this$ = ecx

; 96   : 	return m_pFileIO && m_pFileIO->eof();

  00000	8b 41 04	 mov	 eax, DWORD PTR [ecx+4]
  00003	85 c0		 test	 eax, eax
  00005	74 11		 je	 SHORT $L78873
  00007	8b c8		 mov	 ecx, eax
  00009	8b 01		 mov	 eax, DWORD PTR [ecx]
  0000b	ff 50 24	 call	 DWORD PTR [eax+36]
  0000e	84 c0		 test	 al, al
  00010	74 06		 je	 SHORT $L78873
  00012	b8 01 00 00 00	 mov	 eax, 1

; 97   : }

  00017	c3		 ret	 0
$L78873:

; 96   : 	return m_pFileIO && m_pFileIO->eof();

  00018	33 c0		 xor	 eax, eax

; 97   : }

  0001a	c3		 ret	 0
?eof@ivfstream@@QBE_NXZ ENDP				; ivfstream::eof
_TEXT	ENDS
PUBLIC	??0?$allocator@G@_STL@@QAE@XZ			; _STL::allocator<unsigned short>::allocator<unsigned short>
; Function compile flags: /Ogty
; File c:\stlport-4.6.1\stlport\stl\_alloc.h
;	COMDAT ??0?$allocator@G@_STL@@QAE@XZ
_TEXT	SEGMENT
??0?$allocator@G@_STL@@QAE@XZ PROC NEAR			; _STL::allocator<unsigned short>::allocator<unsigned short>, COMDAT
; _this$ = ecx

; 345  :   allocator() _STLP_NOTHROW {}

  00000	8b c1		 mov	 eax, ecx
  00002	c3		 ret	 0
??0?$allocator@G@_STL@@QAE@XZ ENDP			; _STL::allocator<unsigned short>::allocator<unsigned short>
_TEXT	ENDS
PUBLIC	?capacity@?$vector@GV?$allocator@G@_STL@@@_STL@@QBEIXZ ; _STL::vector<unsigned short,_STL::allocator<unsigned short> >::capacity
; Function compile flags: /Ogty
; File c:\stlport-4.6.1\stlport\stl\_vector.h
;	COMDAT ?capacity@?$vector@GV?$allocator@G@_STL@@@_STL@@QBEIXZ
_TEXT	SEGMENT
?capacity@?$vector@GV?$allocator@G@_STL@@@_STL@@QBEIXZ PROC NEAR ; _STL::vector<unsigned short,_STL::allocator<unsigned short> >::capacity, COMDAT
; _this$ = ecx

; 184  :   size_type capacity() const    { return size_type(this->_M_end_of_storage._M_data - this->_M_start); }

  00000	8b 41 08	 mov	 eax, DWORD PTR [ecx+8]
  00003	2b 01		 sub	 eax, DWORD PTR [ecx]
  00005	d1 f8		 sar	 eax, 1
  00007	c3		 ret	 0
?capacity@?$vector@GV?$allocator@G@_STL@@@_STL@@QBEIXZ ENDP ; _STL::vector<unsigned short,_STL::allocator<unsigned short> >::capacity
_TEXT	ENDS
PUBLIC	??0?$_Rb_tree_iterator@U?$pair@$$CBGE@_STL@@U?$_Nonconst_traits@U?$pair@$$CBGE@_STL@@@2@@_STL@@QAE@ABU01@@Z ; _STL::_Rb_tree_iterator<_STL::pair<unsigned short const ,unsigned char>,_STL::_Nonconst_traits<_STL::pair<unsigned short const ,unsigned char> > >::_Rb_tree_iterator<_STL::pair<unsigned short const ,unsigned char>,_STL::_Nonconst_traits<_STL::pair<unsigned short const ,unsigned char> > >
; Function compile flags: /Ogty
; File c:\stlport-4.6.1\stlport\stl\_tree.h
;	COMDAT ??0?$_Rb_tree_iterator@U?$pair@$$CBGE@_STL@@U?$_Nonconst_traits@U?$pair@$$CBGE@_STL@@@2@@_STL@@QAE@ABU01@@Z
_TEXT	SEGMENT
___it$ = 8						; size = 4
??0?$_Rb_tree_iterator@U?$pair@$$CBGE@_STL@@U?$_Nonconst_traits@U?$pair@$$CBGE@_STL@@@2@@_STL@@QAE@ABU01@@Z PROC NEAR ; _STL::_Rb_tree_iterator<_STL::pair<unsigned short const ,unsigned char>,_STL::_Nonconst_traits<_STL::pair<unsigned short const ,unsigned char> > >::_Rb_tree_iterator<_STL::pair<unsigned short const ,unsigned char>,_STL::_Nonconst_traits<_STL::pair<unsigned short const ,unsigned char> > >, COMDAT
; _this$ = ecx

; 165  :   _Rb_tree_iterator(const _Rb_tree_iterator<_Value, 

  00000	8b c1		 mov	 eax, ecx
  00002	8b 4c 24 04	 mov	 ecx, DWORD PTR ___it$[esp-4]
  00006	8b 11		 mov	 edx, DWORD PTR [ecx]
  00008	89 10		 mov	 DWORD PTR [eax], edx

; 166  :                     _Nonconst_traits<_Value> >& __it) { _M_node = __it._M_node; }

  0000a	c2 04 00	 ret	 4
??0?$_Rb_tree_iterator@U?$pair@$$CBGE@_STL@@U?$_Nonconst_traits@U?$pair@$$CBGE@_STL@@@2@@_STL@@QAE@ABU01@@Z ENDP ; _STL::_Rb_tree_iterator<_STL::pair<unsigned short const ,unsigned char>,_STL::_Nonconst_traits<_STL::pair<unsigned short const ,unsigned char> > >::_Rb_tree_iterator<_STL::pair<unsigned short const ,unsigned char>,_STL::_Nonconst_traits<_STL::pair<unsigned short const ,unsigned char> > >
_TEXT	ENDS
PUBLIC	??8_Rb_tree_base_iterator@_STL@@QBE_NABU01@@Z	; _STL::_Rb_tree_base_iterator::operator==
; Function compile flags: /Ogty
;	COMDAT ??8_Rb_tree_base_iterator@_STL@@QBE_NABU01@@Z
_TEXT	SEGMENT
___y$ = 8						; size = 4
??8_Rb_tree_base_iterator@_STL@@QBE_NABU01@@Z PROC NEAR	; _STL::_Rb_tree_base_iterator::operator==, COMDAT
; _this$ = ecx

; 147  :     return _M_node == __y._M_node;

  00000	8b 01		 mov	 eax, DWORD PTR [ecx]
  00002	8b 4c 24 04	 mov	 ecx, DWORD PTR ___y$[esp-4]
  00006	2b 01		 sub	 eax, DWORD PTR [ecx]
  00008	f7 d8		 neg	 eax
  0000a	1b c0		 sbb	 eax, eax
  0000c	40		 inc	 eax

; 148  :   }

  0000d	c2 04 00	 ret	 4
??8_Rb_tree_base_iterator@_STL@@QBE_NABU01@@Z ENDP	; _STL::_Rb_tree_base_iterator::operator==
_TEXT	ENDS
PUBLIC	??9_Rb_tree_base_iterator@_STL@@QBE_NABU01@@Z	; _STL::_Rb_tree_base_iterator::operator!=
; Function compile flags: /Ogty
;	COMDAT ??9_Rb_tree_base_iterator@_STL@@QBE_NABU01@@Z
_TEXT	SEGMENT
___y$ = 8						; size = 4
??9_Rb_tree_base_iterator@_STL@@QBE_NABU01@@Z PROC NEAR	; _STL::_Rb_tree_base_iterator::operator!=, COMDAT
; _this$ = ecx

; 150  :     return _M_node != __y._M_node;

  00000	8b 01		 mov	 eax, DWORD PTR [ecx]
  00002	8b 54 24 04	 mov	 edx, DWORD PTR ___y$[esp-4]
  00006	56		 push	 esi
  00007	8b 32		 mov	 esi, DWORD PTR [edx]
  00009	33 c9		 xor	 ecx, ecx
  0000b	3b c6		 cmp	 eax, esi
  0000d	0f 95 c1	 setne	 cl
  00010	8a c1		 mov	 al, cl
  00012	5e		 pop	 esi

; 151  :   }

  00013	c2 04 00	 ret	 4
??9_Rb_tree_base_iterator@_STL@@QBE_NABU01@@Z ENDP	; _STL::_Rb_tree_base_iterator::operator!=
_TEXT	ENDS
PUBLIC	??0?$allocator@U?$pair@$$CBGE@_STL@@@_STL@@QAE@XZ ; _STL::allocator<_STL::pair<unsigned short const ,unsigned char> >::allocator<_STL::pair<unsigned short const ,unsigned char> >
; Function compile flags: /Ogty
; File c:\stlport-4.6.1\stlport\stl\_alloc.h
;	COMDAT ??0?$allocator@U?$pair@$$CBGE@_STL@@@_STL@@QAE@XZ
_TEXT	SEGMENT
??0?$allocator@U?$pair@$$CBGE@_STL@@@_STL@@QAE@XZ PROC NEAR ; _STL::allocator<_STL::pair<unsigned short const ,unsigned char> >::allocator<_STL::pair<unsigned short const ,unsigned char> >, COMDAT
; _this$ = ecx

; 345  :   allocator() _STLP_NOTHROW {}

  00000	8b c1		 mov	 eax, ecx
  00002	c3		 ret	 0
??0?$allocator@U?$pair@$$CBGE@_STL@@@_STL@@QAE@XZ ENDP	; _STL::allocator<_STL::pair<unsigned short const ,unsigned char> >::allocator<_STL::pair<unsigned short const ,unsigned char> >
_TEXT	ENDS
PUBLIC	??1?$allocator@U?$pair@$$CBGE@_STL@@@_STL@@QAE@XZ ; _STL::allocator<_STL::pair<unsigned short const ,unsigned char> >::~allocator<_STL::pair<unsigned short const ,unsigned char> >
; Function compile flags: /Ogty
;	COMDAT ??1?$allocator@U?$pair@$$CBGE@_STL@@@_STL@@QAE@XZ
_TEXT	SEGMENT
??1?$allocator@U?$pair@$$CBGE@_STL@@@_STL@@QAE@XZ PROC NEAR ; _STL::allocator<_STL::pair<unsigned short const ,unsigned char> >::~allocator<_STL::pair<unsigned short const ,unsigned char> >, COMDAT
; _this$ = ecx

; 350  :   ~allocator() _STLP_NOTHROW {}

  00000	c3		 ret	 0
??1?$allocator@U?$pair@$$CBGE@_STL@@@_STL@@QAE@XZ ENDP	; _STL::allocator<_STL::pair<unsigned short const ,unsigned char> >::~allocator<_STL::pair<unsigned short const ,unsigned char> >
_TEXT	ENDS
PUBLIC	??R?$less@G@_STL@@QBE_NABG0@Z			; _STL::less<unsigned short>::operator()
; Function compile flags: /Ogty
; File c:\stlport-4.6.1\stlport\stl\_function_base.h
;	COMDAT ??R?$less@G@_STL@@QBE_NABG0@Z
_TEXT	SEGMENT
___x$ = 8						; size = 4
___y$ = 12						; size = 4
??R?$less@G@_STL@@QBE_NABG0@Z PROC NEAR			; _STL::less<unsigned short>::operator(), COMDAT
; _this$ = ecx

; 73   :   bool operator()(const _Tp& __x, const _Tp& __y) const { return __x < __y; }

  00000	8b 44 24 04	 mov	 eax, DWORD PTR ___x$[esp-4]
  00004	66 8b 08	 mov	 cx, WORD PTR [eax]
  00007	8b 54 24 08	 mov	 edx, DWORD PTR ___y$[esp-4]
  0000b	66 3b 0a	 cmp	 cx, WORD PTR [edx]
  0000e	1b c0		 sbb	 eax, eax
  00010	f7 d8		 neg	 eax
  00012	c2 08 00	 ret	 8
??R?$less@G@_STL@@QBE_NABG0@Z ENDP			; _STL::less<unsigned short>::operator()
_TEXT	ENDS
PUBLIC	?begin@?$vector@GV?$allocator@G@_STL@@@_STL@@QAEPAGXZ ; _STL::vector<unsigned short,_STL::allocator<unsigned short> >::begin
; Function compile flags: /Ogty
; File c:\stlport-4.6.1\stlport\stl\_vector.h
;	COMDAT ?begin@?$vector@GV?$allocator@G@_STL@@@_STL@@QAEPAGXZ
_TEXT	SEGMENT
?begin@?$vector@GV?$allocator@G@_STL@@@_STL@@QAEPAGXZ PROC NEAR ; _STL::vector<unsigned short,_STL::allocator<unsigned short> >::begin, COMDAT
; _this$ = ecx

; 172  :   iterator begin()             { return this->_M_start; }

  00000	8b 01		 mov	 eax, DWORD PTR [ecx]
  00002	c3		 ret	 0
?begin@?$vector@GV?$allocator@G@_STL@@@_STL@@QAEPAGXZ ENDP ; _STL::vector<unsigned short,_STL::allocator<unsigned short> >::begin
_TEXT	ENDS
PUBLIC	?begin@?$vector@GV?$allocator@G@_STL@@@_STL@@QBEPBGXZ ; _STL::vector<unsigned short,_STL::allocator<unsigned short> >::begin
; Function compile flags: /Ogty
;	COMDAT ?begin@?$vector@GV?$allocator@G@_STL@@@_STL@@QBEPBGXZ
_TEXT	SEGMENT
?begin@?$vector@GV?$allocator@G@_STL@@@_STL@@QBEPBGXZ PROC NEAR ; _STL::vector<unsigned short,_STL::allocator<unsigned short> >::begin, COMDAT
; _this$ = ecx

; 173  :   const_iterator begin() const { return this->_M_start; }

  00000	8b 01		 mov	 eax, DWORD PTR [ecx]
  00002	c3		 ret	 0
?begin@?$vector@GV?$allocator@G@_STL@@@_STL@@QBEPBGXZ ENDP ; _STL::vector<unsigned short,_STL::allocator<unsigned short> >::begin
_TEXT	ENDS
PUBLIC	?end@?$vector@GV?$allocator@G@_STL@@@_STL@@QAEPAGXZ ; _STL::vector<unsigned short,_STL::allocator<unsigned short> >::end
; Function compile flags: /Ogty
;	COMDAT ?end@?$vector@GV?$allocator@G@_STL@@@_STL@@QAEPAGXZ
_TEXT	SEGMENT
?end@?$vector@GV?$allocator@G@_STL@@@_STL@@QAEPAGXZ PROC NEAR ; _STL::vector<unsigned short,_STL::allocator<unsigned short> >::end, COMDAT
; _this$ = ecx

; 174  :   iterator end()               { return this->_M_finish; }

  00000	8b 41 04	 mov	 eax, DWORD PTR [ecx+4]
  00003	c3		 ret	 0
?end@?$vector@GV?$allocator@G@_STL@@@_STL@@QAEPAGXZ ENDP ; _STL::vector<unsigned short,_STL::allocator<unsigned short> >::end
_TEXT	ENDS
PUBLIC	??D?$_Rb_tree_iterator@U?$pair@$$CBGE@_STL@@U?$_Nonconst_traits@U?$pair@$$CBGE@_STL@@@2@@_STL@@QBEAAU?$pair@$$CBGE@1@XZ ; _STL::_Rb_tree_iterator<_STL::pair<unsigned short const ,unsigned char>,_STL::_Nonconst_traits<_STL::pair<unsigned short const ,unsigned char> > >::operator*
; Function compile flags: /Ogty
; File c:\stlport-4.6.1\stlport\stl\_tree.h
;	COMDAT ??D?$_Rb_tree_iterator@U?$pair@$$CBGE@_STL@@U?$_Nonconst_traits@U?$pair@$$CBGE@_STL@@@2@@_STL@@QBEAAU?$pair@$$CBGE@1@XZ
_TEXT	SEGMENT
??D?$_Rb_tree_iterator@U?$pair@$$CBGE@_STL@@U?$_Nonconst_traits@U?$pair@$$CBGE@_STL@@@2@@_STL@@QBEAAU?$pair@$$CBGE@1@XZ PROC NEAR ; _STL::_Rb_tree_iterator<_STL::pair<unsigned short const ,unsigned char>,_STL::_Nonconst_traits<_STL::pair<unsigned short const ,unsigned char> > >::operator*, COMDAT
; _this$ = ecx

; 169  :     return _Link_type(_M_node)->_M_value_field; 

  00000	8b 01		 mov	 eax, DWORD PTR [ecx]
  00002	83 c0 10	 add	 eax, 16			; 00000010H

; 170  :   }

  00005	c3		 ret	 0
??D?$_Rb_tree_iterator@U?$pair@$$CBGE@_STL@@U?$_Nonconst_traits@U?$pair@$$CBGE@_STL@@@2@@_STL@@QBEAAU?$pair@$$CBGE@1@XZ ENDP ; _STL::_Rb_tree_iterator<_STL::pair<unsigned short const ,unsigned char>,_STL::_Nonconst_traits<_STL::pair<unsigned short const ,unsigned char> > >::operator*
_TEXT	ENDS
PUBLIC	??D?$_Rb_tree_iterator@U?$pair@$$CBGE@_STL@@U?$_Const_traits@U?$pair@$$CBGE@_STL@@@2@@_STL@@QBEABU?$pair@$$CBGE@1@XZ ; _STL::_Rb_tree_iterator<_STL::pair<unsigned short const ,unsigned char>,_STL::_Const_traits<_STL::pair<unsigned short const ,unsigned char> > >::operator*
; Function compile flags: /Ogty
;	COMDAT ??D?$_Rb_tree_iterator@U?$pair@$$CBGE@_STL@@U?$_Const_traits@U?$pair@$$CBGE@_STL@@@2@@_STL@@QBEABU?$pair@$$CBGE@1@XZ
_TEXT	SEGMENT
??D?$_Rb_tree_iterator@U?$pair@$$CBGE@_STL@@U?$_Const_traits@U?$pair@$$CBGE@_STL@@@2@@_STL@@QBEABU?$pair@$$CBGE@1@XZ PROC NEAR ; _STL::_Rb_tree_iterator<_STL::pair<unsigned short const ,unsigned char>,_STL::_Const_traits<_STL::pair<unsigned short const ,unsigned char> > >::operator*, COMDAT
; _this$ = ecx

; 169  :     return _Link_type(_M_node)->_M_value_field; 

  00000	8b 01		 mov	 eax, DWORD PTR [ecx]
  00002	83 c0 10	 add	 eax, 16			; 00000010H

; 170  :   }

  00005	c3		 ret	 0
??D?$_Rb_tree_iterator@U?$pair@$$CBGE@_STL@@U?$_Const_traits@U?$pair@$$CBGE@_STL@@@2@@_STL@@QBEABU?$pair@$$CBGE@1@XZ ENDP ; _STL::_Rb_tree_iterator<_STL::pair<unsigned short const ,unsigned char>,_STL::_Const_traits<_STL::pair<unsigned short const ,unsigned char> > >::operator*
_TEXT	ENDS
PUBLIC	?flags@ios_base@_STL@@QBEHXZ			; _STL::ios_base::flags
; Function compile flags: /Ogty
; File c:\stlport-4.6.1\stlport\stl\_ios_base.h
;	COMDAT ?flags@ios_base@_STL@@QBEHXZ
_TEXT	SEGMENT
?flags@ios_base@_STL@@QBEHXZ PROC NEAR			; _STL::ios_base::flags, COMDAT
; _this$ = ecx

; 115  :   fmtflags flags() const { return _M_fmtflags; }

  00000	8b 41 04	 mov	 eax, DWORD PTR [ecx+4]
  00003	c3		 ret	 0
?flags@ios_base@_STL@@QBEHXZ ENDP			; _STL::ios_base::flags
_TEXT	ENDS
PUBLIC	??0?$pair@$$CBGE@_STL@@QAE@ABGABE@Z		; _STL::pair<unsigned short const ,unsigned char>::pair<unsigned short const ,unsigned char>
; Function compile flags: /Ogty
; File c:\stlport-4.6.1\stlport\stl\_pair.h
;	COMDAT ??0?$pair@$$CBGE@_STL@@QAE@ABGABE@Z
_TEXT	SEGMENT
___a$ = 8						; size = 4
___b$ = 12						; size = 4
??0?$pair@$$CBGE@_STL@@QAE@ABGABE@Z PROC NEAR		; _STL::pair<unsigned short const ,unsigned char>::pair<unsigned short const ,unsigned char>, COMDAT
; _this$ = ecx

; 48   :   pair(const _T1& __a, const _T2& __b) : first(__a), second(__b) {}

  00000	8b c1		 mov	 eax, ecx
  00002	8b 4c 24 04	 mov	 ecx, DWORD PTR ___a$[esp-4]
  00006	66 8b 11	 mov	 dx, WORD PTR [ecx]
  00009	8b 4c 24 08	 mov	 ecx, DWORD PTR ___b$[esp-4]
  0000d	66 89 10	 mov	 WORD PTR [eax], dx
  00010	8a 11		 mov	 dl, BYTE PTR [ecx]
  00012	88 50 02	 mov	 BYTE PTR [eax+2], dl
  00015	c2 08 00	 ret	 8
??0?$pair@$$CBGE@_STL@@QAE@ABGABE@Z ENDP		; _STL::pair<unsigned short const ,unsigned char>::pair<unsigned short const ,unsigned char>
_TEXT	ENDS
PUBLIC	?_M_root@?$_Rb_tree@GU?$pair@$$CBGE@_STL@@U?$_Select1st@U?$pair@$$CBGE@_STL@@@2@U?$less@G@2@V?$allocator@U?$pair@$$CBGE@_STL@@@2@@_STL@@IBEAAPAU?$_Rb_tree_node@U?$pair@$$CBGE@_STL@@@2@XZ ; _STL::_Rb_tree<unsigned short,_STL::pair<unsigned short const ,unsigned char>,_STL::_Select1st<_STL::pair<unsigned short const ,unsigned char> >,_STL::less<unsigned short>,_STL::allocator<_STL::pair<unsigned short const ,unsigned char> > >::_M_root
; Function compile flags: /Ogty
; File c:\stlport-4.6.1\stlport\stl\_tree.h
;	COMDAT ?_M_root@?$_Rb_tree@GU?$pair@$$CBGE@_STL@@U?$_Select1st@U?$pair@$$CBGE@_STL@@@2@U?$less@G@2@V?$allocator@U?$pair@$$CBGE@_STL@@@2@@_STL@@IBEAAPAU?$_Rb_tree_node@U?$pair@$$CBGE@_STL@@@2@XZ
_TEXT	SEGMENT
?_M_root@?$_Rb_tree@GU?$pair@$$CBGE@_STL@@U?$_Select1st@U?$pair@$$CBGE@_STL@@@2@U?$less@G@2@V?$allocator@U?$pair@$$CBGE@_STL@@@2@@_STL@@IBEAAPAU?$_Rb_tree_node@U?$pair@$$CBGE@_STL@@@2@XZ PROC NEAR ; _STL::_Rb_tree<unsigned short,_STL::pair<unsigned short const ,unsigned char>,_STL::_Select1st<_STL::pair<unsigned short const ,unsigned char> >,_STL::less<unsigned short>,_STL::allocator<_STL::pair<unsigned short const ,unsigned char> > >::_M_root, COMDAT
; _this$ = ecx

; 265  :     { return (_Link_type&) this->_M_header._M_data->_M_parent; }

  00000	8b 01		 mov	 eax, DWORD PTR [ecx]
  00002	83 c0 04	 add	 eax, 4
  00005	c3		 ret	 0
?_M_root@?$_Rb_tree@GU?$pair@$$CBGE@_STL@@U?$_Select1st@U?$pair@$$CBGE@_STL@@@2@U?$less@G@2@V?$allocator@U?$pair@$$CBGE@_STL@@@2@@_STL@@IBEAAPAU?$_Rb_tree_node@U?$pair@$$CBGE@_STL@@@2@XZ ENDP ; _STL::_Rb_tree<unsigned short,_STL::pair<unsigned short const ,unsigned char>,_STL::_Select1st<_STL::pair<unsigned short const ,unsigned char> >,_STL::less<unsigned short>,_STL::allocator<_STL::pair<unsigned short const ,unsigned char> > >::_M_root
_TEXT	ENDS
PUBLIC	?_M_leftmost@?$_Rb_tree@GU?$pair@$$CBGE@_STL@@U?$_Select1st@U?$pair@$$CBGE@_STL@@@2@U?$less@G@2@V?$allocator@U?$pair@$$CBGE@_STL@@@2@@_STL@@IBEAAPAU?$_Rb_tree_node@U?$pair@$$CBGE@_STL@@@2@XZ ; _STL::_Rb_tree<unsigned short,_STL::pair<unsigned short const ,unsigned char>,_STL::_Select1st<_STL::pair<unsigned short const ,unsigned char> >,_STL::less<unsigned short>,_STL::allocator<_STL::pair<unsigned short const ,unsigned char> > >::_M_leftmost
; Function compile flags: /Ogty
;	COMDAT ?_M_leftmost@?$_Rb_tree@GU?$pair@$$CBGE@_STL@@U?$_Select1st@U?$pair@$$CBGE@_STL@@@2@U?$less@G@2@V?$allocator@U?$pair@$$CBGE@_STL@@@2@@_STL@@IBEAAPAU?$_Rb_tree_node@U?$pair@$$CBGE@_STL@@@2@XZ
_TEXT	SEGMENT
?_M_leftmost@?$_Rb_tree@GU?$pair@$$CBGE@_STL@@U?$_Select1st@U?$pair@$$CBGE@_STL@@@2@U?$less@G@2@V?$allocator@U?$pair@$$CBGE@_STL@@@2@@_STL@@IBEAAPAU?$_Rb_tree_node@U?$pair@$$CBGE@_STL@@@2@XZ PROC NEAR ; _STL::_Rb_tree<unsigned short,_STL::pair<unsigned short const ,unsigned char>,_STL::_Select1st<_STL::pair<unsigned short const ,unsigned char> >,_STL::less<unsigned short>,_STL::allocator<_STL::pair<unsigned short const ,unsigned char> > >::_M_leftmost, COMDAT
; _this$ = ecx

; 267  :     { return (_Link_type&) this->_M_header._M_data->_M_left; }

  00000	8b 01		 mov	 eax, DWORD PTR [ecx]
  00002	83 c0 08	 add	 eax, 8
  00005	c3		 ret	 0
?_M_leftmost@?$_Rb_tree@GU?$pair@$$CBGE@_STL@@U?$_Select1st@U?$pair@$$CBGE@_STL@@@2@U?$less@G@2@V?$allocator@U?$pair@$$CBGE@_STL@@@2@@_STL@@IBEAAPAU?$_Rb_tree_node@U?$pair@$$CBGE@_STL@@@2@XZ ENDP ; _STL::_Rb_tree<unsigned short,_STL::pair<unsigned short const ,unsigned char>,_STL::_Select1st<_STL::pair<unsigned short const ,unsigned char> >,_STL::less<unsigned short>,_STL::allocator<_STL::pair<unsigned short const ,unsigned char> > >::_M_leftmost
_TEXT	ENDS
PUBLIC	?rdstate@ios_base@_STL@@QBEHXZ			; _STL::ios_base::rdstate
; Function compile flags: /Ogty
; File c:\stlport-4.6.1\stlport\stl\_ios_base.h
;	COMDAT ?rdstate@ios_base@_STL@@QBEHXZ
_TEXT	SEGMENT
?rdstate@ios_base@_STL@@QBEHXZ PROC NEAR		; _STL::ios_base::rdstate, COMDAT
; _this$ = ecx

; 178  :   iostate rdstate() const { return _M_iostate; }

  00000	8b 41 08	 mov	 eax, DWORD PTR [ecx+8]
  00003	c3		 ret	 0
?rdstate@ios_base@_STL@@QBEHXZ ENDP			; _STL::ios_base::rdstate
_TEXT	ENDS
PUBLIC	?_M_rightmost@?$_Rb_tree@GU?$pair@$$CBGE@_STL@@U?$_Select1st@U?$pair@$$CBGE@_STL@@@2@U?$less@G@2@V?$allocator@U?$pair@$$CBGE@_STL@@@2@@_STL@@IBEAAPAU?$_Rb_tree_node@U?$pair@$$CBGE@_STL@@@2@XZ ; _STL::_Rb_tree<unsigned short,_STL::pair<unsigned short const ,unsigned char>,_STL::_Select1st<_STL::pair<unsigned short const ,unsigned char> >,_STL::less<unsigned short>,_STL::allocator<_STL::pair<unsigned short const ,unsigned char> > >::_M_rightmost
; Function compile flags: /Ogty
; File c:\stlport-4.6.1\stlport\stl\_tree.h
;	COMDAT ?_M_rightmost@?$_Rb_tree@GU?$pair@$$CBGE@_STL@@U?$_Select1st@U?$pair@$$CBGE@_STL@@@2@U?$less@G@2@V?$allocator@U?$pair@$$CBGE@_STL@@@2@@_STL@@IBEAAPAU?$_Rb_tree_node@U?$pair@$$CBGE@_STL@@@2@XZ
_TEXT	SEGMENT
?_M_rightmost@?$_Rb_tree@GU?$pair@$$CBGE@_STL@@U?$_Select1st@U?$pair@$$CBGE@_STL@@@2@U?$less@G@2@V?$allocator@U?$pair@$$CBGE@_STL@@@2@@_STL@@IBEAAPAU?$_Rb_tree_node@U?$pair@$$CBGE@_STL@@@2@XZ PROC NEAR ; _STL::_Rb_tree<unsigned short,_STL::pair<unsigned short const ,unsigned char>,_STL::_Select1st<_STL::pair<unsigned short const ,unsigned char> >,_STL::less<unsigned short>,_STL::allocator<_STL::pair<unsigned short const ,unsigned char> > >::_M_rightmost, COMDAT
; _this$ = ecx

; 269  :     { return (_Link_type&) this->_M_header._M_data->_M_right; }

  00000	8b 01		 mov	 eax, DWORD PTR [ecx]
  00002	83 c0 0c	 add	 eax, 12			; 0000000cH
  00005	c3		 ret	 0
?_M_rightmost@?$_Rb_tree@GU?$pair@$$CBGE@_STL@@U?$_Select1st@U?$pair@$$CBGE@_STL@@@2@U?$less@G@2@V?$allocator@U?$pair@$$CBGE@_STL@@@2@@_STL@@IBEAAPAU?$_Rb_tree_node@U?$pair@$$CBGE@_STL@@@2@XZ ENDP ; _STL::_Rb_tree<unsigned short,_STL::pair<unsigned short const ,unsigned char>,_STL::_Select1st<_STL::pair<unsigned short const ,unsigned char> >,_STL::less<unsigned short>,_STL::allocator<_STL::pair<unsigned short const ,unsigned char> > >::_M_rightmost
_TEXT	ENDS
PUBLIC	?good@ios_base@_STL@@QBE_NXZ			; _STL::ios_base::good
; Function compile flags: /Ogty
; File c:\stlport-4.6.1\stlport\stl\_ios_base.h
;	COMDAT ?good@ios_base@_STL@@QBE_NXZ
_TEXT	SEGMENT
?good@ios_base@_STL@@QBE_NXZ PROC NEAR			; _STL::ios_base::good, COMDAT
; _this$ = ecx

; 180  :   bool good() const { return _M_iostate == 0; }

  00000	8b 51 08	 mov	 edx, DWORD PTR [ecx+8]
  00003	33 c0		 xor	 eax, eax
  00005	85 d2		 test	 edx, edx
  00007	0f 94 c0	 sete	 al
  0000a	c3		 ret	 0
?good@ios_base@_STL@@QBE_NXZ ENDP			; _STL::ios_base::good
_TEXT	ENDS
PUBLIC	?key_comp@?$_Rb_tree@GU?$pair@$$CBGE@_STL@@U?$_Select1st@U?$pair@$$CBGE@_STL@@@2@U?$less@G@2@V?$allocator@U?$pair@$$CBGE@_STL@@@2@@_STL@@QBE?AU?$less@G@2@XZ ; _STL::_Rb_tree<unsigned short,_STL::pair<unsigned short const ,unsigned char>,_STL::_Select1st<_STL::pair<unsigned short const ,unsigned char> >,_STL::less<unsigned short>,_STL::allocator<_STL::pair<unsigned short const ,unsigned char> > >::key_comp
; Function compile flags: /Ogty
; File c:\stlport-4.6.1\stlport\stl\_tree.h
;	COMDAT ?key_comp@?$_Rb_tree@GU?$pair@$$CBGE@_STL@@U?$_Select1st@U?$pair@$$CBGE@_STL@@@2@U?$less@G@2@V?$allocator@U?$pair@$$CBGE@_STL@@@2@@_STL@@QBE?AU?$less@G@2@XZ
_TEXT	SEGMENT
___$ReturnUdt$ = 8					; size = 4
?key_comp@?$_Rb_tree@GU?$pair@$$CBGE@_STL@@U?$_Select1st@U?$pair@$$CBGE@_STL@@@2@U?$less@G@2@V?$allocator@U?$pair@$$CBGE@_STL@@@2@@_STL@@QBE?AU?$less@G@2@XZ PROC NEAR ; _STL::_Rb_tree<unsigned short,_STL::pair<unsigned short const ,unsigned char>,_STL::_Select1st<_STL::pair<unsigned short const ,unsigned char> >,_STL::less<unsigned short>,_STL::allocator<_STL::pair<unsigned short const ,unsigned char> > >::key_comp, COMDAT
; _this$ = ecx

; 355  :   _Compare key_comp() const { return _M_key_compare; }

  00000	8b 44 24 04	 mov	 eax, DWORD PTR ___$ReturnUdt$[esp-4]
  00004	c2 04 00	 ret	 4
?key_comp@?$_Rb_tree@GU?$pair@$$CBGE@_STL@@U?$_Select1st@U?$pair@$$CBGE@_STL@@@2@U?$less@G@2@V?$allocator@U?$pair@$$CBGE@_STL@@@2@@_STL@@QBE?AU?$less@G@2@XZ ENDP ; _STL::_Rb_tree<unsigned short,_STL::pair<unsigned short const ,unsigned char>,_STL::_Select1st<_STL::pair<unsigned short const ,unsigned char> >,_STL::less<unsigned short>,_STL::allocator<_STL::pair<unsigned short const ,unsigned char> > >::key_comp
_TEXT	ENDS
PUBLIC	?_M_setstate_nothrow@ios_base@_STL@@IAEXH@Z	; _STL::ios_base::_M_setstate_nothrow
; Function compile flags: /Ogty
; File c:\stlport-4.6.1\stlport\stl\_ios_base.h
;	COMDAT ?_M_setstate_nothrow@ios_base@_STL@@IAEXH@Z
_TEXT	SEGMENT
___state$ = 8						; size = 4
?_M_setstate_nothrow@ios_base@_STL@@IAEXH@Z PROC NEAR	; _STL::ios_base::_M_setstate_nothrow, COMDAT
; _this$ = ecx

; 193  :   void _M_setstate_nothrow(iostate __state) { _M_iostate |= __state; }

  00000	8b 51 08	 mov	 edx, DWORD PTR [ecx+8]
  00003	8b 44 24 04	 mov	 eax, DWORD PTR ___state$[esp-4]
  00007	0b d0		 or	 edx, eax
  00009	89 51 08	 mov	 DWORD PTR [ecx+8], edx
  0000c	c2 04 00	 ret	 4
?_M_setstate_nothrow@ios_base@_STL@@IAEXH@Z ENDP	; _STL::ios_base::_M_setstate_nothrow
_TEXT	ENDS
PUBLIC	?_M_clear_nothrow@ios_base@_STL@@IAEXH@Z	; _STL::ios_base::_M_clear_nothrow
; Function compile flags: /Ogty
;	COMDAT ?_M_clear_nothrow@ios_base@_STL@@IAEXH@Z
_TEXT	SEGMENT
___state$ = 8						; size = 4
?_M_clear_nothrow@ios_base@_STL@@IAEXH@Z PROC NEAR	; _STL::ios_base::_M_clear_nothrow, COMDAT
; _this$ = ecx

; 194  :   void _M_clear_nothrow(iostate __state) { _M_iostate = __state; }

  00000	8b 44 24 04	 mov	 eax, DWORD PTR ___state$[esp-4]
  00004	89 41 08	 mov	 DWORD PTR [ecx+8], eax
  00007	c2 04 00	 ret	 4
?_M_clear_nothrow@ios_base@_STL@@IAEXH@Z ENDP		; _STL::ios_base::_M_clear_nothrow
_TEXT	ENDS
PUBLIC	?_M_get_exception_mask@ios_base@_STL@@IBEHXZ	; _STL::ios_base::_M_get_exception_mask
; Function compile flags: /Ogty
;	COMDAT ?_M_get_exception_mask@ios_base@_STL@@IBEHXZ
_TEXT	SEGMENT
?_M_get_exception_mask@ios_base@_STL@@IBEHXZ PROC NEAR	; _STL::ios_base::_M_get_exception_mask, COMDAT
; _this$ = ecx

; 195  :   iostate _M_get_exception_mask() const { return _M_exception_mask; }

  00000	8b 41 14	 mov	 eax, DWORD PTR [ecx+20]
  00003	c3		 ret	 0
?_M_get_exception_mask@ios_base@_STL@@IBEHXZ ENDP	; _STL::ios_base::_M_get_exception_mask
_TEXT	ENDS
PUBLIC	?_M_check_exception_mask@ios_base@_STL@@IAEXXZ	; _STL::ios_base::_M_check_exception_mask
EXTRN	?_M_throw_failure@ios_base@_STL@@IAEXXZ:NEAR	; _STL::ios_base::_M_throw_failure
; Function compile flags: /Ogty
;	COMDAT ?_M_check_exception_mask@ios_base@_STL@@IAEXXZ
_TEXT	SEGMENT
?_M_check_exception_mask@ios_base@_STL@@IAEXXZ PROC NEAR ; _STL::ios_base::_M_check_exception_mask, COMDAT
; _this$ = ecx

; 198  :     if (_M_iostate & _M_exception_mask)

  00000	8b 41 14	 mov	 eax, DWORD PTR [ecx+20]
  00003	85 41 08	 test	 eax, DWORD PTR [ecx+8]
  00006	74 05		 je	 SHORT $L8748

; 199  :       _M_throw_failure(); 

  00008	e9 00 00 00 00	 jmp	 ?_M_throw_failure@ios_base@_STL@@IAEXXZ ; _STL::ios_base::_M_throw_failure
$L8748:

; 200  :   }

  0000d	c3		 ret	 0
?_M_check_exception_mask@ios_base@_STL@@IAEXXZ ENDP	; _STL::ios_base::_M_check_exception_mask
_TEXT	ENDS
PUBLIC	??1?$allocator@U?$_Rb_tree_node@U?$pair@$$CBGE@_STL@@@_STL@@@_STL@@QAE@XZ ; _STL::allocator<_STL::_Rb_tree_node<_STL::pair<unsigned short const ,unsigned char> > >::~allocator<_STL::_Rb_tree_node<_STL::pair<unsigned short const ,unsigned char> > >
; Function compile flags: /Ogty
; File c:\stlport-4.6.1\stlport\stl\_alloc.h
;	COMDAT ??1?$allocator@U?$_Rb_tree_node@U?$pair@$$CBGE@_STL@@@_STL@@@_STL@@QAE@XZ
_TEXT	SEGMENT
??1?$allocator@U?$_Rb_tree_node@U?$pair@$$CBGE@_STL@@@_STL@@@_STL@@QAE@XZ PROC NEAR ; _STL::allocator<_STL::_Rb_tree_node<_STL::pair<unsigned short const ,unsigned char> > >::~allocator<_STL::_Rb_tree_node<_STL::pair<unsigned short const ,unsigned char> > >, COMDAT
; _this$ = ecx

; 350  :   ~allocator() _STLP_NOTHROW {}

  00000	c3		 ret	 0
??1?$allocator@U?$_Rb_tree_node@U?$pair@$$CBGE@_STL@@@_STL@@@_STL@@QAE@XZ ENDP ; _STL::allocator<_STL::_Rb_tree_node<_STL::pair<unsigned short const ,unsigned char> > >::~allocator<_STL::_Rb_tree_node<_STL::pair<unsigned short const ,unsigned char> > >
_TEXT	ENDS
PUBLIC	??0?$_Rb_tree_iterator@U?$pair@$$CBGE@_STL@@U?$_Nonconst_traits@U?$pair@$$CBGE@_STL@@@2@@_STL@@QAE@PAU?$_Rb_tree_node@U?$pair@$$CBGE@_STL@@@1@@Z ; _STL::_Rb_tree_iterator<_STL::pair<unsigned short const ,unsigned char>,_STL::_Nonconst_traits<_STL::pair<unsigned short const ,unsigned char> > >::_Rb_tree_iterator<_STL::pair<unsigned short const ,unsigned char>,_STL::_Nonconst_traits<_STL::pair<unsigned short const ,unsigned char> > >
; Function compile flags: /Ogty
; File c:\stlport-4.6.1\stlport\stl\_tree.h
;	COMDAT ??0?$_Rb_tree_iterator@U?$pair@$$CBGE@_STL@@U?$_Nonconst_traits@U?$pair@$$CBGE@_STL@@@2@@_STL@@QAE@PAU?$_Rb_tree_node@U?$pair@$$CBGE@_STL@@@1@@Z
_TEXT	SEGMENT
___x$ = 8						; size = 4
??0?$_Rb_tree_iterator@U?$pair@$$CBGE@_STL@@U?$_Nonconst_traits@U?$pair@$$CBGE@_STL@@@2@@_STL@@QAE@PAU?$_Rb_tree_node@U?$pair@$$CBGE@_STL@@@1@@Z PROC NEAR ; _STL::_Rb_tree_iterator<_STL::pair<unsigned short const ,unsigned char>,_STL::_Nonconst_traits<_STL::pair<unsigned short const ,unsigned char> > >::_Rb_tree_iterator<_STL::pair<unsigned short const ,unsigned char>,_STL::_Nonconst_traits<_STL::pair<unsigned short const ,unsigned char> > >, COMDAT
; _this$ = ecx

; 164  :   _Rb_tree_iterator(_Link_type __x) { _M_node = __x; }

  00000	8b c1		 mov	 eax, ecx
  00002	8b 4c 24 04	 mov	 ecx, DWORD PTR ___x$[esp-4]
  00006	89 08		 mov	 DWORD PTR [eax], ecx
  00008	c2 04 00	 ret	 4
??0?$_Rb_tree_iterator@U?$pair@$$CBGE@_STL@@U?$_Nonconst_traits@U?$pair@$$CBGE@_STL@@@2@@_STL@@QAE@PAU?$_Rb_tree_node@U?$pair@$$CBGE@_STL@@@1@@Z ENDP ; _STL::_Rb_tree_iterator<_STL::pair<unsigned short const ,unsigned char>,_STL::_Nonconst_traits<_STL::pair<unsigned short const ,unsigned char> > >::_Rb_tree_iterator<_STL::pair<unsigned short const ,unsigned char>,_STL::_Nonconst_traits<_STL::pair<unsigned short const ,unsigned char> > >
_TEXT	ENDS
PUBLIC	??0?$_Rb_tree_iterator@U?$pair@$$CBGE@_STL@@U?$_Const_traits@U?$pair@$$CBGE@_STL@@@2@@_STL@@QAE@PAU?$_Rb_tree_node@U?$pair@$$CBGE@_STL@@@1@@Z ; _STL::_Rb_tree_iterator<_STL::pair<unsigned short const ,unsigned char>,_STL::_Const_traits<_STL::pair<unsigned short const ,unsigned char> > >::_Rb_tree_iterator<_STL::pair<unsigned short const ,unsigned char>,_STL::_Const_traits<_STL::pair<unsigned short const ,unsigned char> > >
; Function compile flags: /Ogty
;	COMDAT ??0?$_Rb_tree_iterator@U?$pair@$$CBGE@_STL@@U?$_Const_traits@U?$pair@$$CBGE@_STL@@@2@@_STL@@QAE@PAU?$_Rb_tree_node@U?$pair@$$CBGE@_STL@@@1@@Z
_TEXT	SEGMENT
___x$ = 8						; size = 4
??0?$_Rb_tree_iterator@U?$pair@$$CBGE@_STL@@U?$_Const_traits@U?$pair@$$CBGE@_STL@@@2@@_STL@@QAE@PAU?$_Rb_tree_node@U?$pair@$$CBGE@_STL@@@1@@Z PROC NEAR ; _STL::_Rb_tree_iterator<_STL::pair<unsigned short const ,unsigned char>,_STL::_Const_traits<_STL::pair<unsigned short const ,unsigned char> > >::_Rb_tree_iterator<_STL::pair<unsigned short const ,unsigned char>,_STL::_Const_traits<_STL::pair<unsigned short const ,unsigned char> > >, COMDAT
; _this$ = ecx

; 164  :   _Rb_tree_iterator(_Link_type __x) { _M_node = __x; }

  00000	8b c1		 mov	 eax, ecx
  00002	8b 4c 24 04	 mov	 ecx, DWORD PTR ___x$[esp-4]
  00006	89 08		 mov	 DWORD PTR [eax], ecx
  00008	c2 04 00	 ret	 4
??0?$_Rb_tree_iterator@U?$pair@$$CBGE@_STL@@U?$_Const_traits@U?$pair@$$CBGE@_STL@@@2@@_STL@@QAE@PAU?$_Rb_tree_node@U?$pair@$$CBGE@_STL@@@1@@Z ENDP ; _STL::_Rb_tree_iterator<_STL::pair<unsigned short const ,unsigned char>,_STL::_Const_traits<_STL::pair<unsigned short const ,unsigned char> > >::_Rb_tree_iterator<_STL::pair<unsigned short const ,unsigned char>,_STL::_Const_traits<_STL::pair<unsigned short const ,unsigned char> > >
_TEXT	ENDS
PUBLIC	??0?$allocator@G@_STL@@QAE@ABV01@@Z		; _STL::allocator<unsigned short>::allocator<unsigned short>
; Function compile flags: /Ogty
; File c:\stlport-4.6.1\stlport\stl\_alloc.h
;	COMDAT ??0?$allocator@G@_STL@@QAE@ABV01@@Z
_TEXT	SEGMENT
___formal$ = 8						; size = 4
??0?$allocator@G@_STL@@QAE@ABV01@@Z PROC NEAR		; _STL::allocator<unsigned short>::allocator<unsigned short>, COMDAT
; _this$ = ecx

; 349  :   allocator(const allocator<_Tp>&) _STLP_NOTHROW {}

  00000	8b c1		 mov	 eax, ecx
  00002	c2 04 00	 ret	 4
??0?$allocator@G@_STL@@QAE@ABV01@@Z ENDP		; _STL::allocator<unsigned short>::allocator<unsigned short>
_TEXT	ENDS
PUBLIC	?_S_color@?$_Rb_tree@GU?$pair@$$CBGE@_STL@@U?$_Select1st@U?$pair@$$CBGE@_STL@@@2@U?$less@G@2@V?$allocator@U?$pair@$$CBGE@_STL@@@2@@_STL@@KAAA_NPAU?$_Rb_tree_node@U?$pair@$$CBGE@_STL@@@2@@Z ; _STL::_Rb_tree<unsigned short,_STL::pair<unsigned short const ,unsigned char>,_STL::_Select1st<_STL::pair<unsigned short const ,unsigned char> >,_STL::less<unsigned short>,_STL::allocator<_STL::pair<unsigned short const ,unsigned char> > >::_S_color
; Function compile flags: /Ogty
; File c:\stlport-4.6.1\stlport\stl\_tree.h
;	COMDAT ?_S_color@?$_Rb_tree@GU?$pair@$$CBGE@_STL@@U?$_Select1st@U?$pair@$$CBGE@_STL@@@2@U?$less@G@2@V?$allocator@U?$pair@$$CBGE@_STL@@@2@@_STL@@KAAA_NPAU?$_Rb_tree_node@U?$pair@$$CBGE@_STL@@@2@@Z
_TEXT	SEGMENT
___x$ = 8						; size = 4
?_S_color@?$_Rb_tree@GU?$pair@$$CBGE@_STL@@U?$_Select1st@U?$pair@$$CBGE@_STL@@@2@U?$less@G@2@V?$allocator@U?$pair@$$CBGE@_STL@@@2@@_STL@@KAAA_NPAU?$_Rb_tree_node@U?$pair@$$CBGE@_STL@@@2@@Z PROC NEAR ; _STL::_Rb_tree<unsigned short,_STL::pair<unsigned short const ,unsigned char>,_STL::_Select1st<_STL::pair<unsigned short const ,unsigned char> >,_STL::less<unsigned short>,_STL::allocator<_STL::pair<unsigned short const ,unsigned char> > >::_S_color, COMDAT

; 282  :     { return (_Color_type&)(__x->_M_color); }

  00000	8b 44 24 04	 mov	 eax, DWORD PTR ___x$[esp-4]
  00004	c3		 ret	 0
?_S_color@?$_Rb_tree@GU?$pair@$$CBGE@_STL@@U?$_Select1st@U?$pair@$$CBGE@_STL@@@2@U?$less@G@2@V?$allocator@U?$pair@$$CBGE@_STL@@@2@@_STL@@KAAA_NPAU?$_Rb_tree_node@U?$pair@$$CBGE@_STL@@@2@@Z ENDP ; _STL::_Rb_tree<unsigned short,_STL::pair<unsigned short const ,unsigned char>,_STL::_Select1st<_STL::pair<unsigned short const ,unsigned char> >,_STL::less<unsigned short>,_STL::allocator<_STL::pair<unsigned short const ,unsigned char> > >::_S_color
_TEXT	ENDS
PUBLIC	?allocate@?$__node_alloc@$00$0A@@_STL@@SAPAXI@Z	; _STL::__node_alloc<1,0>::allocate
EXTRN	?_M_allocate@?$__node_alloc@$00$0A@@_STL@@CAPAXI@Z:NEAR ; _STL::__node_alloc<1,0>::_M_allocate
; Function compile flags: /Ogty
; File c:\stlport-4.6.1\stlport\stl\_alloc.h
;	COMDAT ?allocate@?$__node_alloc@$00$0A@@_STL@@SAPAXI@Z
_TEXT	SEGMENT
___n$ = 8						; size = 4
?allocate@?$__node_alloc@$00$0A@@_STL@@SAPAXI@Z PROC NEAR ; _STL::__node_alloc<1,0>::allocate, COMDAT

; 251  :   static void * _STLP_CALL allocate(size_t __n) { return (__n > (size_t)_MAX_BYTES) ?  __stl_new(__n) : _M_allocate(__n); }

  00000	8b 44 24 04	 mov	 eax, DWORD PTR ___n$[esp-4]
  00004	3d 80 00 00 00	 cmp	 eax, 128		; 00000080H
  00009	76 09		 jbe	 SHORT $L78968
  0000b	89 44 24 04	 mov	 DWORD PTR ___n$[esp-4], eax
  0000f	e9 00 00 00 00	 jmp	 ??2@YAPAXI@Z		; operator new
$L78968:
  00014	89 44 24 04	 mov	 DWORD PTR ___n$[esp-4], eax
  00018	e9 00 00 00 00	 jmp	 ?_M_allocate@?$__node_alloc@$00$0A@@_STL@@CAPAXI@Z ; _STL::__node_alloc<1,0>::_M_allocate
?allocate@?$__node_alloc@$00$0A@@_STL@@SAPAXI@Z ENDP	; _STL::__node_alloc<1,0>::allocate
_TEXT	ENDS
PUBLIC	?_S_left@?$_Rb_tree@GU?$pair@$$CBGE@_STL@@U?$_Select1st@U?$pair@$$CBGE@_STL@@@2@U?$less@G@2@V?$allocator@U?$pair@$$CBGE@_STL@@@2@@_STL@@KAAAPAU?$_Rb_tree_node@U?$pair@$$CBGE@_STL@@@2@PAU32@@Z ; _STL::_Rb_tree<unsigned short,_STL::pair<unsigned short const ,unsigned char>,_STL::_Select1st<_STL::pair<unsigned short const ,unsigned char> >,_STL::less<unsigned short>,_STL::allocator<_STL::pair<unsigned short const ,unsigned char> > >::_S_left
; Function compile flags: /Ogty
; File c:\stlport-4.6.1\stlport\stl\_tree.h
;	COMDAT ?_S_left@?$_Rb_tree@GU?$pair@$$CBGE@_STL@@U?$_Select1st@U?$pair@$$CBGE@_STL@@@2@U?$less@G@2@V?$allocator@U?$pair@$$CBGE@_STL@@@2@@_STL@@KAAAPAU?$_Rb_tree_node@U?$pair@$$CBGE@_STL@@@2@PAU32@@Z
_TEXT	SEGMENT
___x$ = 8						; size = 4
?_S_left@?$_Rb_tree@GU?$pair@$$CBGE@_STL@@U?$_Select1st@U?$pair@$$CBGE@_STL@@@2@U?$less@G@2@V?$allocator@U?$pair@$$CBGE@_STL@@@2@@_STL@@KAAAPAU?$_Rb_tree_node@U?$pair@$$CBGE@_STL@@@2@PAU32@@Z PROC NEAR ; _STL::_Rb_tree<unsigned short,_STL::pair<unsigned short const ,unsigned char>,_STL::_Select1st<_STL::pair<unsigned short const ,unsigned char> >,_STL::less<unsigned short>,_STL::allocator<_STL::pair<unsigned short const ,unsigned char> > >::_S_left, COMDAT

; 272  :     { return (_Link_type&)(__x->_M_left); }

  00000	8b 44 24 04	 mov	 eax, DWORD PTR ___x$[esp-4]
  00004	83 c0 08	 add	 eax, 8
  00007	c3		 ret	 0
?_S_left@?$_Rb_tree@GU?$pair@$$CBGE@_STL@@U?$_Select1st@U?$pair@$$CBGE@_STL@@@2@U?$less@G@2@V?$allocator@U?$pair@$$CBGE@_STL@@@2@@_STL@@KAAAPAU?$_Rb_tree_node@U?$pair@$$CBGE@_STL@@@2@PAU32@@Z ENDP ; _STL::_Rb_tree<unsigned short,_STL::pair<unsigned short const ,unsigned char>,_STL::_Select1st<_STL::pair<unsigned short const ,unsigned char> >,_STL::less<unsigned short>,_STL::allocator<_STL::pair<unsigned short const ,unsigned char> > >::_S_left
_TEXT	ENDS
PUBLIC	?_S_right@?$_Rb_tree@GU?$pair@$$CBGE@_STL@@U?$_Select1st@U?$pair@$$CBGE@_STL@@@2@U?$less@G@2@V?$allocator@U?$pair@$$CBGE@_STL@@@2@@_STL@@KAAAPAU?$_Rb_tree_node@U?$pair@$$CBGE@_STL@@@2@PAU32@@Z ; _STL::_Rb_tree<unsigned short,_STL::pair<unsigned short const ,unsigned char>,_STL::_Select1st<_STL::pair<unsigned short const ,unsigned char> >,_STL::less<unsigned short>,_STL::allocator<_STL::pair<unsigned short const ,unsigned char> > >::_S_right
; Function compile flags: /Ogty
;	COMDAT ?_S_right@?$_Rb_tree@GU?$pair@$$CBGE@_STL@@U?$_Select1st@U?$pair@$$CBGE@_STL@@@2@U?$less@G@2@V?$allocator@U?$pair@$$CBGE@_STL@@@2@@_STL@@KAAAPAU?$_Rb_tree_node@U?$pair@$$CBGE@_STL@@@2@PAU32@@Z
_TEXT	SEGMENT
___x$ = 8						; size = 4
?_S_right@?$_Rb_tree@GU?$pair@$$CBGE@_STL@@U?$_Select1st@U?$pair@$$CBGE@_STL@@@2@U?$less@G@2@V?$allocator@U?$pair@$$CBGE@_STL@@@2@@_STL@@KAAAPAU?$_Rb_tree_node@U?$pair@$$CBGE@_STL@@@2@PAU32@@Z PROC NEAR ; _STL::_Rb_tree<unsigned short,_STL::pair<unsigned short const ,unsigned char>,_STL::_Select1st<_STL::pair<unsigned short const ,unsigned char> >,_STL::less<unsigned short>,_STL::allocator<_STL::pair<unsigned short const ,unsigned char> > >::_S_right, COMDAT

; 274  :     { return (_Link_type&)(__x->_M_right); }

  00000	8b 44 24 04	 mov	 eax, DWORD PTR ___x$[esp-4]
  00004	83 c0 0c	 add	 eax, 12			; 0000000cH
  00007	c3		 ret	 0
?_S_right@?$_Rb_tree@GU?$pair@$$CBGE@_STL@@U?$_Select1st@U?$pair@$$CBGE@_STL@@@2@U?$less@G@2@V?$allocator@U?$pair@$$CBGE@_STL@@@2@@_STL@@KAAAPAU?$_Rb_tree_node@U?$pair@$$CBGE@_STL@@@2@PAU32@@Z ENDP ; _STL::_Rb_tree<unsigned short,_STL::pair<unsigned short const ,unsigned char>,_STL::_Select1st<_STL::pair<unsigned short const ,unsigned char> >,_STL::less<unsigned short>,_STL::allocator<_STL::pair<unsigned short const ,unsigned char> > >::_S_right
_TEXT	ENDS
PUBLIC	??0?$allocator@U?$_Rb_tree_node@U?$pair@$$CBGE@_STL@@@_STL@@@_STL@@QAE@ABV01@@Z ; _STL::allocator<_STL::_Rb_tree_node<_STL::pair<unsigned short const ,unsigned char> > >::allocator<_STL::_Rb_tree_node<_STL::pair<unsigned short const ,unsigned char> > >
; Function compile flags: /Ogty
; File c:\stlport-4.6.1\stlport\stl\_alloc.h
;	COMDAT ??0?$allocator@U?$_Rb_tree_node@U?$pair@$$CBGE@_STL@@@_STL@@@_STL@@QAE@ABV01@@Z
_TEXT	SEGMENT
___formal$ = 8						; size = 4
??0?$allocator@U?$_Rb_tree_node@U?$pair@$$CBGE@_STL@@@_STL@@@_STL@@QAE@ABV01@@Z PROC NEAR ; _STL::allocator<_STL::_Rb_tree_node<_STL::pair<unsigned short const ,unsigned char> > >::allocator<_STL::_Rb_tree_node<_STL::pair<unsigned short const ,unsigned char> > >, COMDAT
; _this$ = ecx

; 349  :   allocator(const allocator<_Tp>&) _STLP_NOTHROW {}

  00000	8b c1		 mov	 eax, ecx
  00002	c2 04 00	 ret	 4
??0?$allocator@U?$_Rb_tree_node@U?$pair@$$CBGE@_STL@@@_STL@@@_STL@@QAE@ABV01@@Z ENDP ; _STL::allocator<_STL::_Rb_tree_node<_STL::pair<unsigned short const ,unsigned char> > >::allocator<_STL::_Rb_tree_node<_STL::pair<unsigned short const ,unsigned char> > >
_TEXT	ENDS
PUBLIC	?_S_value@?$_Rb_tree@GU?$pair@$$CBGE@_STL@@U?$_Select1st@U?$pair@$$CBGE@_STL@@@2@U?$less@G@2@V?$allocator@U?$pair@$$CBGE@_STL@@@2@@_STL@@KAAAU?$pair@$$CBGE@2@PAU?$_Rb_tree_node@U?$pair@$$CBGE@_STL@@@2@@Z ; _STL::_Rb_tree<unsigned short,_STL::pair<unsigned short const ,unsigned char>,_STL::_Select1st<_STL::pair<unsigned short const ,unsigned char> >,_STL::less<unsigned short>,_STL::allocator<_STL::pair<unsigned short const ,unsigned char> > >::_S_value
; Function compile flags: /Ogty
; File c:\stlport-4.6.1\stlport\stl\_tree.h
;	COMDAT ?_S_value@?$_Rb_tree@GU?$pair@$$CBGE@_STL@@U?$_Select1st@U?$pair@$$CBGE@_STL@@@2@U?$less@G@2@V?$allocator@U?$pair@$$CBGE@_STL@@@2@@_STL@@KAAAU?$pair@$$CBGE@2@PAU?$_Rb_tree_node@U?$pair@$$CBGE@_STL@@@2@@Z
_TEXT	SEGMENT
___x$ = 8						; size = 4
?_S_value@?$_Rb_tree@GU?$pair@$$CBGE@_STL@@U?$_Select1st@U?$pair@$$CBGE@_STL@@@2@U?$less@G@2@V?$allocator@U?$pair@$$CBGE@_STL@@@2@@_STL@@KAAAU?$pair@$$CBGE@2@PAU?$_Rb_tree_node@U?$pair@$$CBGE@_STL@@@2@@Z PROC NEAR ; _STL::_Rb_tree<unsigned short,_STL::pair<unsigned short const ,unsigned char>,_STL::_Select1st<_STL::pair<unsigned short const ,unsigned char> >,_STL::less<unsigned short>,_STL::allocator<_STL::pair<unsigned short const ,unsigned char> > >::_S_value, COMDAT

; 278  :     { return __x->_M_value_field; }

  00000	8b 44 24 04	 mov	 eax, DWORD PTR ___x$[esp-4]
  00004	83 c0 10	 add	 eax, 16			; 00000010H
  00007	c3		 ret	 0
?_S_value@?$_Rb_tree@GU?$pair@$$CBGE@_STL@@U?$_Select1st@U?$pair@$$CBGE@_STL@@@2@U?$less@G@2@V?$allocator@U?$pair@$$CBGE@_STL@@@2@@_STL@@KAAAU?$pair@$$CBGE@2@PAU?$_Rb_tree_node@U?$pair@$$CBGE@_STL@@@2@@Z ENDP ; _STL::_Rb_tree<unsigned short,_STL::pair<unsigned short const ,unsigned char>,_STL::_Select1st<_STL::pair<unsigned short const ,unsigned char> >,_STL::less<unsigned short>,_STL::allocator<_STL::pair<unsigned short const ,unsigned char> > >::_S_value
_TEXT	ENDS
PUBLIC	??R?$_Select1st@U?$pair@$$CBGE@_STL@@@_STL@@QBEABGABU?$pair@$$CBGE@1@@Z ; _STL::_Select1st<_STL::pair<unsigned short const ,unsigned char> >::operator()
; Function compile flags: /Ogty
; File c:\stlport-4.6.1\stlport\stl\_function_base.h
;	COMDAT ??R?$_Select1st@U?$pair@$$CBGE@_STL@@@_STL@@QBEABGABU?$pair@$$CBGE@1@@Z
_TEXT	SEGMENT
___x$ = 8						; size = 4
??R?$_Select1st@U?$pair@$$CBGE@_STL@@@_STL@@QBEABGABU?$pair@$$CBGE@1@@Z PROC NEAR ; _STL::_Select1st<_STL::pair<unsigned short const ,unsigned char> >::operator(), COMDAT
; _this$ = ecx

; 153  :     return __x.first;

  00000	8b 44 24 04	 mov	 eax, DWORD PTR ___x$[esp-4]

; 154  :   }

  00004	c2 04 00	 ret	 4
??R?$_Select1st@U?$pair@$$CBGE@_STL@@@_STL@@QBEABGABU?$pair@$$CBGE@1@@Z ENDP ; _STL::_Select1st<_STL::pair<unsigned short const ,unsigned char> >::operator()
_TEXT	ENDS
PUBLIC	?pubsync@?$basic_streambuf@DV?$char_traits@D@_STL@@@_STL@@QAEHXZ ; _STL::basic_streambuf<char,_STL::char_traits<char> >::pubsync
; Function compile flags: /Ogty
; File c:\stlport-4.6.1\stlport\stl\_streambuf.h
;	COMDAT ?pubsync@?$basic_streambuf@DV?$char_traits@D@_STL@@@_STL@@QAEHXZ
_TEXT	SEGMENT
?pubsync@?$basic_streambuf@DV?$char_traits@D@_STL@@@_STL@@QAEHXZ PROC NEAR ; _STL::basic_streambuf<char,_STL::char_traits<char> >::pubsync, COMDAT
; _this$ = ecx

; 411  :   int pubsync() { return this->sync(); }

  00000	8b 01		 mov	 eax, DWORD PTR [ecx]
  00002	ff 60 10	 jmp	 DWORD PTR [eax+16]
?pubsync@?$basic_streambuf@DV?$char_traits@D@_STL@@@_STL@@QAEHXZ ENDP ; _STL::basic_streambuf<char,_STL::char_traits<char> >::pubsync
_TEXT	ENDS
PUBLIC	?sputn@?$basic_streambuf@DV?$char_traits@D@_STL@@@_STL@@QAEHPBDH@Z ; _STL::basic_streambuf<char,_STL::char_traits<char> >::sputn
; Function compile flags: /Ogty
;	COMDAT ?sputn@?$basic_streambuf@DV?$char_traits@D@_STL@@@_STL@@QAEHPBDH@Z
_TEXT	SEGMENT
___s$ = 8						; size = 4
___n$ = 12						; size = 4
?sputn@?$basic_streambuf@DV?$char_traits@D@_STL@@@_STL@@QAEHPBDH@Z PROC NEAR ; _STL::basic_streambuf<char,_STL::char_traits<char> >::sputn, COMDAT
; _this$ = ecx

; 441  :     { return this->xsputn(__s, __n); }

  00000	8b 01		 mov	 eax, DWORD PTR [ecx]
  00002	ff 60 28	 jmp	 DWORD PTR [eax+40]
?sputn@?$basic_streambuf@DV?$char_traits@D@_STL@@@_STL@@QAEHPBDH@Z ENDP ; _STL::basic_streambuf<char,_STL::char_traits<char> >::sputn
_TEXT	ENDS
PUBLIC	??$_Destroy@U?$pair@$$CBGE@_STL@@@_STL@@YAXPAU?$pair@$$CBGE@0@@Z ; _STL::_Destroy<_STL::pair<unsigned short const ,unsigned char> >
; Function compile flags: /Ogty
; File c:\stlport-4.6.1\stlport\stl\_construct.h
;	COMDAT ??$_Destroy@U?$pair@$$CBGE@_STL@@@_STL@@YAXPAU?$pair@$$CBGE@0@@Z
_TEXT	SEGMENT
___pointer$ = 8						; size = 4
??$_Destroy@U?$pair@$$CBGE@_STL@@@_STL@@YAXPAU?$pair@$$CBGE@0@@Z PROC NEAR ; _STL::_Destroy<_STL::pair<unsigned short const ,unsigned char> >, COMDAT

; 57   : # if _MSC_VER >= 1010
; 58   :   __pointer;
; 59   : # endif	// _MSC_VER >= 1000
; 60   : # ifdef _STLP_TRIVIAL_DESTRUCTOR_BUG
; 61   :   typedef typename __type_traits<_Tp>::has_trivial_destructor _Trivial_destructor;
; 62   :   __destroy_aux(__pointer, _Trivial_destructor());
; 63   : # else
; 64   : #  if ( defined (__BORLANDC__) && ( __BORLANDC__ < 0x500 ) )
; 65   :     __pointer->_Tp::~_Tp();
; 66   : #  else
; 67   :     __pointer->~_Tp();
; 68   : #  endif
; 69   : # endif
; 70   : # ifdef _STLP_DEBUG_UNINITIALIZED
; 71   : 	memset((char*)__pointer, _STLP_SHRED_BYTE, sizeof(_Tp));
; 72   : # endif
; 73   : }

  00000	c3		 ret	 0
??$_Destroy@U?$pair@$$CBGE@_STL@@@_STL@@YAXPAU?$pair@$$CBGE@0@@Z ENDP ; _STL::_Destroy<_STL::pair<unsigned short const ,unsigned char> >
_TEXT	ENDS
PUBLIC	??$__copy_ptrs@PAGPAG@_STL@@YAPAGPAG00ABU__true_type@0@@Z ; _STL::__copy_ptrs<unsigned short *,unsigned short *>
; Function compile flags: /Ogty
; File c:\stlport-4.6.1\stlport\stl\_algobase.h
;	COMDAT ??$__copy_ptrs@PAGPAG@_STL@@YAPAGPAG00ABU__true_type@0@@Z
_TEXT	SEGMENT
___first$ = 8						; size = 4
___last$ = 12						; size = 4
___result$ = 16						; size = 4
___formal$ = 20						; size = 4
??$__copy_ptrs@PAGPAG@_STL@@YAPAGPAG00ABU__true_type@0@@Z PROC NEAR ; _STL::__copy_ptrs<unsigned short *,unsigned short *>, COMDAT

; 195  : // we know they all pointers, so this cast is OK 
; 196  :   //  return (_OutputIter)__copy_trivial(&(*__first), &(*__last), &(*__result));
; 197  :   return (_OutputIter)__copy_trivial(__first, __last, __result);

  00000	8b 44 24 04	 mov	 eax, DWORD PTR ___first$[esp-4]
  00004	56		 push	 esi
  00005	8b 74 24 0c	 mov	 esi, DWORD PTR ___last$[esp]
  00009	3b f0		 cmp	 esi, eax
  0000b	75 06		 jne	 SHORT $L79007
  0000d	8b 44 24 10	 mov	 eax, DWORD PTR ___result$[esp]
  00011	5e		 pop	 esi

; 198  : }

  00012	c3		 ret	 0

; 195  : // we know they all pointers, so this cast is OK 
; 196  :   //  return (_OutputIter)__copy_trivial(&(*__first), &(*__last), &(*__result));
; 197  :   return (_OutputIter)__copy_trivial(__first, __last, __result);

$L79007:
  00013	2b f0		 sub	 esi, eax
  00015	56		 push	 esi
  00016	50		 push	 eax
  00017	8b 44 24 18	 mov	 eax, DWORD PTR ___result$[esp+8]
  0001b	50		 push	 eax
  0001c	e8 00 00 00 00	 call	 _memmove
  00021	83 c4 0c	 add	 esp, 12			; 0000000cH
  00024	03 c6		 add	 eax, esi
  00026	5e		 pop	 esi

; 198  : }

  00027	c3		 ret	 0
??$__copy_ptrs@PAGPAG@_STL@@YAPAGPAG00ABU__true_type@0@@Z ENDP ; _STL::__copy_ptrs<unsigned short *,unsigned short *>
_TEXT	ENDS
PUBLIC	??$?0U?$pair@$$CBGE@_STL@@@?$allocator@U?$_Rb_tree_node@U?$pair@$$CBGE@_STL@@@_STL@@@_STL@@QAE@ABV?$allocator@U?$pair@$$CBGE@_STL@@@1@@Z ; _STL::allocator<_STL::_Rb_tree_node<_STL::pair<unsigned short const ,unsigned char> > >::allocator<_STL::_Rb_tree_node<_STL::pair<unsigned short const ,unsigned char> > ><_STL::pair<unsigned short const ,unsigned char> >
; Function compile flags: /Ogty
; File c:\stlport-4.6.1\stlport\stl\_alloc.h
;	COMDAT ??$?0U?$pair@$$CBGE@_STL@@@?$allocator@U?$_Rb_tree_node@U?$pair@$$CBGE@_STL@@@_STL@@@_STL@@QAE@ABV?$allocator@U?$pair@$$CBGE@_STL@@@1@@Z
_TEXT	SEGMENT
___formal$ = 8						; size = 4
??$?0U?$pair@$$CBGE@_STL@@@?$allocator@U?$_Rb_tree_node@U?$pair@$$CBGE@_STL@@@_STL@@@_STL@@QAE@ABV?$allocator@U?$pair@$$CBGE@_STL@@@1@@Z PROC NEAR ; _STL::allocator<_STL::_Rb_tree_node<_STL::pair<unsigned short const ,unsigned char> > >::allocator<_STL::_Rb_tree_node<_STL::pair<unsigned short const ,unsigned char> > ><_STL::pair<unsigned short const ,unsigned char> >, COMDAT
; _this$ = ecx

; 347  :   template <class _Tp1> allocator(const allocator<_Tp1>&) _STLP_NOTHROW {}

  00000	8b c1		 mov	 eax, ecx
  00002	c2 04 00	 ret	 4
??$?0U?$pair@$$CBGE@_STL@@@?$allocator@U?$_Rb_tree_node@U?$pair@$$CBGE@_STL@@@_STL@@@_STL@@QAE@ABV?$allocator@U?$pair@$$CBGE@_STL@@@1@@Z ENDP ; _STL::allocator<_STL::_Rb_tree_node<_STL::pair<unsigned short const ,unsigned char> > >::allocator<_STL::_Rb_tree_node<_STL::pair<unsigned short const ,unsigned char> > ><_STL::pair<unsigned short const ,unsigned char> >
_TEXT	ENDS
PUBLIC	?allocate@?$allocator@G@_STL@@QAEPAGIPBX@Z	; _STL::allocator<unsigned short>::allocate
; Function compile flags: /Ogty
;	COMDAT ?allocate@?$allocator@G@_STL@@QAEPAGIPBX@Z
_TEXT	SEGMENT
___n$ = 8						; size = 4
___formal$ = 12						; size = 4
?allocate@?$allocator@G@_STL@@QAEPAGIPBX@Z PROC NEAR	; _STL::allocator<unsigned short>::allocate, COMDAT
; _this$ = ecx

; 355  :     return __n != 0 ? __REINTERPRET_CAST(value_type*,__sgi_alloc::allocate(__n * sizeof(value_type))) : 0;

  00000	8b 44 24 04	 mov	 eax, DWORD PTR ___n$[esp-4]
  00004	85 c0		 test	 eax, eax
  00006	74 20		 je	 SHORT $L79015
  00008	03 c0		 add	 eax, eax
  0000a	3d 80 00 00 00	 cmp	 eax, 128		; 00000080H
  0000f	50		 push	 eax
  00010	76 0b		 jbe	 SHORT $L79024
  00012	e8 00 00 00 00	 call	 ??2@YAPAXI@Z		; operator new
  00017	83 c4 04	 add	 esp, 4

; 356  :   }

  0001a	c2 08 00	 ret	 8

; 355  :     return __n != 0 ? __REINTERPRET_CAST(value_type*,__sgi_alloc::allocate(__n * sizeof(value_type))) : 0;

$L79024:
  0001d	e8 00 00 00 00	 call	 ?_M_allocate@?$__node_alloc@$00$0A@@_STL@@CAPAXI@Z ; _STL::__node_alloc<1,0>::_M_allocate
  00022	83 c4 04	 add	 esp, 4

; 356  :   }

  00025	c2 08 00	 ret	 8
$L79015:

; 355  :     return __n != 0 ? __REINTERPRET_CAST(value_type*,__sgi_alloc::allocate(__n * sizeof(value_type))) : 0;

  00028	33 c0		 xor	 eax, eax

; 356  :   }

  0002a	c2 08 00	 ret	 8
?allocate@?$allocator@G@_STL@@QAEPAGIPBX@Z ENDP		; _STL::allocator<unsigned short>::allocate
_TEXT	ENDS
PUBLIC	?rdbuf@?$basic_ios@DV?$char_traits@D@_STL@@@_STL@@QBEPAV?$basic_streambuf@DV?$char_traits@D@_STL@@@2@XZ ; _STL::basic_ios<char,_STL::char_traits<char> >::rdbuf
; Function compile flags: /Ogty
; File c:\stlport-4.6.1\stlport\stl\_ios.h
;	COMDAT ?rdbuf@?$basic_ios@DV?$char_traits@D@_STL@@@_STL@@QBEPAV?$basic_streambuf@DV?$char_traits@D@_STL@@@2@XZ
_TEXT	SEGMENT
?rdbuf@?$basic_ios@DV?$char_traits@D@_STL@@@_STL@@QBEPAV?$basic_streambuf@DV?$char_traits@D@_STL@@@2@XZ PROC NEAR ; _STL::basic_ios<char,_STL::char_traits<char> >::rdbuf, COMDAT
; _this$ = ecx

; 72   :     { return _M_streambuf; }

  00000	8b 41 58	 mov	 eax, DWORD PTR [ecx+88]
  00003	c3		 ret	 0
?rdbuf@?$basic_ios@DV?$char_traits@D@_STL@@@_STL@@QBEPAV?$basic_streambuf@DV?$char_traits@D@_STL@@@2@XZ ENDP ; _STL::basic_ios<char,_STL::char_traits<char> >::rdbuf
_TEXT	ENDS
PUBLIC	?_S_right@?$_Rb_tree@GU?$pair@$$CBGE@_STL@@U?$_Select1st@U?$pair@$$CBGE@_STL@@@2@U?$less@G@2@V?$allocator@U?$pair@$$CBGE@_STL@@@2@@_STL@@KAAAPAU?$_Rb_tree_node@U?$pair@$$CBGE@_STL@@@2@PAU_Rb_tree_node_base@2@@Z ; _STL::_Rb_tree<unsigned short,_STL::pair<unsigned short const ,unsigned char>,_STL::_Select1st<_STL::pair<unsigned short const ,unsigned char> >,_STL::less<unsigned short>,_STL::allocator<_STL::pair<unsigned short const ,unsigned char> > >::_S_right
; Function compile flags: /Ogty
; File c:\stlport-4.6.1\stlport\stl\_tree.h
;	COMDAT ?_S_right@?$_Rb_tree@GU?$pair@$$CBGE@_STL@@U?$_Select1st@U?$pair@$$CBGE@_STL@@@2@U?$less@G@2@V?$allocator@U?$pair@$$CBGE@_STL@@@2@@_STL@@KAAAPAU?$_Rb_tree_node@U?$pair@$$CBGE@_STL@@@2@PAU_Rb_tree_node_base@2@@Z
_TEXT	SEGMENT
___x$ = 8						; size = 4
?_S_right@?$_Rb_tree@GU?$pair@$$CBGE@_STL@@U?$_Select1st@U?$pair@$$CBGE@_STL@@@2@U?$less@G@2@V?$allocator@U?$pair@$$CBGE@_STL@@@2@@_STL@@KAAAPAU?$_Rb_tree_node@U?$pair@$$CBGE@_STL@@@2@PAU_Rb_tree_node_base@2@@Z PROC NEAR ; _STL::_Rb_tree<unsigned short,_STL::pair<unsigned short const ,unsigned char>,_STL::_Select1st<_STL::pair<unsigned short const ,unsigned char> >,_STL::less<unsigned short>,_STL::allocator<_STL::pair<unsigned short const ,unsigned char> > >::_S_right, COMDAT

; 287  :     { return (_Link_type&)(__x->_M_right); }

  00000	8b 44 24 04	 mov	 eax, DWORD PTR ___x$[esp-4]
  00004	83 c0 0c	 add	 eax, 12			; 0000000cH
  00007	c3		 ret	 0
?_S_right@?$_Rb_tree@GU?$pair@$$CBGE@_STL@@U?$_Select1st@U?$pair@$$CBGE@_STL@@@2@U?$less@G@2@V?$allocator@U?$pair@$$CBGE@_STL@@@2@@_STL@@KAAAPAU?$_Rb_tree_node@U?$pair@$$CBGE@_STL@@@2@PAU_Rb_tree_node_base@2@@Z ENDP ; _STL::_Rb_tree<unsigned short,_STL::pair<unsigned short const ,unsigned char>,_STL::_Select1st<_STL::pair<unsigned short const ,unsigned char> >,_STL::less<unsigned short>,_STL::allocator<_STL::pair<unsigned short const ,unsigned char> > >::_S_right
_TEXT	ENDS
PUBLIC	?_S_key@?$_Rb_tree@GU?$pair@$$CBGE@_STL@@U?$_Select1st@U?$pair@$$CBGE@_STL@@@2@U?$less@G@2@V?$allocator@U?$pair@$$CBGE@_STL@@@2@@_STL@@KAABGPAU_Rb_tree_node_base@2@@Z ; _STL::_Rb_tree<unsigned short,_STL::pair<unsigned short const ,unsigned char>,_STL::_Select1st<_STL::pair<unsigned short const ,unsigned char> >,_STL::less<unsigned short>,_STL::allocator<_STL::pair<unsigned short const ,unsigned char> > >::_S_key
; Function compile flags: /Ogty
;	COMDAT ?_S_key@?$_Rb_tree@GU?$pair@$$CBGE@_STL@@U?$_Select1st@U?$pair@$$CBGE@_STL@@@2@U?$less@G@2@V?$allocator@U?$pair@$$CBGE@_STL@@@2@@_STL@@KAABGPAU_Rb_tree_node_base@2@@Z
_TEXT	SEGMENT
___x$ = 8						; size = 4
?_S_key@?$_Rb_tree@GU?$pair@$$CBGE@_STL@@U?$_Select1st@U?$pair@$$CBGE@_STL@@@2@U?$less@G@2@V?$allocator@U?$pair@$$CBGE@_STL@@@2@@_STL@@KAABGPAU_Rb_tree_node_base@2@@Z PROC NEAR ; _STL::_Rb_tree<unsigned short,_STL::pair<unsigned short const ,unsigned char>,_STL::_Select1st<_STL::pair<unsigned short const ,unsigned char> >,_STL::less<unsigned short>,_STL::allocator<_STL::pair<unsigned short const ,unsigned char> > >::_S_key, COMDAT

; 293  :     { return _KeyOfValue()(_S_value(_Link_type(__x)));} 

  00000	8b 44 24 04	 mov	 eax, DWORD PTR ___x$[esp-4]
  00004	83 c0 10	 add	 eax, 16			; 00000010H
  00007	c3		 ret	 0
?_S_key@?$_Rb_tree@GU?$pair@$$CBGE@_STL@@U?$_Select1st@U?$pair@$$CBGE@_STL@@@2@U?$less@G@2@V?$allocator@U?$pair@$$CBGE@_STL@@@2@@_STL@@KAABGPAU_Rb_tree_node_base@2@@Z ENDP ; _STL::_Rb_tree<unsigned short,_STL::pair<unsigned short const ,unsigned char>,_STL::_Select1st<_STL::pair<unsigned short const ,unsigned char> >,_STL::less<unsigned short>,_STL::allocator<_STL::pair<unsigned short const ,unsigned char> > >::_S_key
_TEXT	ENDS
PUBLIC	?size@?$_Rb_tree@GU?$pair@$$CBGE@_STL@@U?$_Select1st@U?$pair@$$CBGE@_STL@@@2@U?$less@G@2@V?$allocator@U?$pair@$$CBGE@_STL@@@2@@_STL@@QBEIXZ ; _STL::_Rb_tree<unsigned short,_STL::pair<unsigned short const ,unsigned char>,_STL::_Select1st<_STL::pair<unsigned short const ,unsigned char> >,_STL::less<unsigned short>,_STL::allocator<_STL::pair<unsigned short const ,unsigned char> > >::size
; Function compile flags: /Ogty
;	COMDAT ?size@?$_Rb_tree@GU?$pair@$$CBGE@_STL@@U?$_Select1st@U?$pair@$$CBGE@_STL@@@2@U?$less@G@2@V?$allocator@U?$pair@$$CBGE@_STL@@@2@@_STL@@QBEIXZ
_TEXT	SEGMENT
?size@?$_Rb_tree@GU?$pair@$$CBGE@_STL@@U?$_Select1st@U?$pair@$$CBGE@_STL@@@2@U?$less@G@2@V?$allocator@U?$pair@$$CBGE@_STL@@@2@@_STL@@QBEIXZ PROC NEAR ; _STL::_Rb_tree<unsigned short,_STL::pair<unsigned short const ,unsigned char>,_STL::_Select1st<_STL::pair<unsigned short const ,unsigned char> >,_STL::less<unsigned short>,_STL::allocator<_STL::pair<unsigned short const ,unsigned char> > >::size, COMDAT
; _this$ = ecx

; 371  :   size_type size() const { return _M_node_count; }

  00000	8b 41 04	 mov	 eax, DWORD PTR [ecx+4]
  00003	c3		 ret	 0
?size@?$_Rb_tree@GU?$pair@$$CBGE@_STL@@U?$_Select1st@U?$pair@$$CBGE@_STL@@@2@U?$less@G@2@V?$allocator@U?$pair@$$CBGE@_STL@@@2@@_STL@@QBEIXZ ENDP ; _STL::_Rb_tree<unsigned short,_STL::pair<unsigned short const ,unsigned char>,_STL::_Select1st<_STL::pair<unsigned short const ,unsigned char> >,_STL::less<unsigned short>,_STL::allocator<_STL::pair<unsigned short const ,unsigned char> > >::size
_TEXT	ENDS
PUBLIC	?size@?$vector@GV?$allocator@G@_STL@@@_STL@@QBEIXZ ; _STL::vector<unsigned short,_STL::allocator<unsigned short> >::size
; Function compile flags: /Ogty
; File c:\stlport-4.6.1\stlport\stl\_vector.h
;	COMDAT ?size@?$vector@GV?$allocator@G@_STL@@@_STL@@QBEIXZ
_TEXT	SEGMENT
?size@?$vector@GV?$allocator@G@_STL@@@_STL@@QBEIXZ PROC NEAR ; _STL::vector<unsigned short,_STL::allocator<unsigned short> >::size, COMDAT
; _this$ = ecx

; 182  :   size_type size() const        { return size_type(this->_M_finish - this->_M_start); }

  00000	8b 41 04	 mov	 eax, DWORD PTR [ecx+4]
  00003	2b 01		 sub	 eax, DWORD PTR [ecx]
  00005	d1 f8		 sar	 eax, 1
  00007	c3		 ret	 0
?size@?$vector@GV?$allocator@G@_STL@@@_STL@@QBEIXZ ENDP	; _STL::vector<unsigned short,_STL::allocator<unsigned short> >::size
_TEXT	ENDS
PUBLIC	?_M_set@?$vector@GV?$allocator@G@_STL@@@_STL@@IAEXPAG00@Z ; _STL::vector<unsigned short,_STL::allocator<unsigned short> >::_M_set
; Function compile flags: /Ogty
;	COMDAT ?_M_set@?$vector@GV?$allocator@G@_STL@@@_STL@@IAEXPAG00@Z
_TEXT	SEGMENT
___s$ = 8						; size = 4
___f$ = 12						; size = 4
___e$ = 16						; size = 4
?_M_set@?$vector@GV?$allocator@G@_STL@@@_STL@@IAEXPAG00@Z PROC NEAR ; _STL::vector<unsigned short,_STL::allocator<unsigned short> >::_M_set, COMDAT
; _this$ = ecx

; 501  :     this->_M_start = __s;

  00000	8b 44 24 04	 mov	 eax, DWORD PTR ___s$[esp-4]

; 502  :     this->_M_finish = __f;

  00004	8b 54 24 08	 mov	 edx, DWORD PTR ___f$[esp-4]
  00008	89 01		 mov	 DWORD PTR [ecx], eax

; 503  :     this->_M_end_of_storage._M_data = __e;

  0000a	8b 44 24 0c	 mov	 eax, DWORD PTR ___e$[esp-4]
  0000e	89 51 04	 mov	 DWORD PTR [ecx+4], edx
  00011	89 41 08	 mov	 DWORD PTR [ecx+8], eax

; 504  :   }

  00014	c2 0c 00	 ret	 12			; 0000000cH
?_M_set@?$vector@GV?$allocator@G@_STL@@@_STL@@IAEXPAG00@Z ENDP ; _STL::vector<unsigned short,_STL::allocator<unsigned short> >::_M_set
_TEXT	ENDS
PUBLIC	??E?$_Rb_tree_iterator@U?$pair@$$CBGE@_STL@@U?$_Nonconst_traits@U?$pair@$$CBGE@_STL@@@2@@_STL@@QAEAAU01@XZ ; _STL::_Rb_tree_iterator<_STL::pair<unsigned short const ,unsigned char>,_STL::_Nonconst_traits<_STL::pair<unsigned short const ,unsigned char> > >::operator++
EXTRN	?_M_increment@?$_Rb_global@_N@_STL@@SAPAU_Rb_tree_node_base@2@PAU32@@Z:NEAR ; _STL::_Rb_global<bool>::_M_increment
; Function compile flags: /Ogty
; File c:\stlport-4.6.1\stlport\stl\_tree.h
;	COMDAT ??E?$_Rb_tree_iterator@U?$pair@$$CBGE@_STL@@U?$_Nonconst_traits@U?$pair@$$CBGE@_STL@@@2@@_STL@@QAEAAU01@XZ
_TEXT	SEGMENT
??E?$_Rb_tree_iterator@U?$pair@$$CBGE@_STL@@U?$_Nonconst_traits@U?$pair@$$CBGE@_STL@@@2@@_STL@@QAEAAU01@XZ PROC NEAR ; _STL::_Rb_tree_iterator<_STL::pair<unsigned short const ,unsigned char>,_STL::_Nonconst_traits<_STL::pair<unsigned short const ,unsigned char> > >::operator++, COMDAT
; _this$ = ecx

; 174  :   _Self& operator++() { _M_node = _Rb_global_inst::_M_increment(_M_node); return *this; }

  00000	56		 push	 esi
  00001	8b f1		 mov	 esi, ecx
  00003	8b 06		 mov	 eax, DWORD PTR [esi]
  00005	50		 push	 eax
  00006	e8 00 00 00 00	 call	 ?_M_increment@?$_Rb_global@_N@_STL@@SAPAU_Rb_tree_node_base@2@PAU32@@Z ; _STL::_Rb_global<bool>::_M_increment
  0000b	89 06		 mov	 DWORD PTR [esi], eax
  0000d	83 c4 04	 add	 esp, 4
  00010	8b c6		 mov	 eax, esi
  00012	5e		 pop	 esi
  00013	c3		 ret	 0
??E?$_Rb_tree_iterator@U?$pair@$$CBGE@_STL@@U?$_Nonconst_traits@U?$pair@$$CBGE@_STL@@@2@@_STL@@QAEAAU01@XZ ENDP ; _STL::_Rb_tree_iterator<_STL::pair<unsigned short const ,unsigned char>,_STL::_Nonconst_traits<_STL::pair<unsigned short const ,unsigned char> > >::operator++
_TEXT	ENDS
PUBLIC	??F?$_Rb_tree_iterator@U?$pair@$$CBGE@_STL@@U?$_Nonconst_traits@U?$pair@$$CBGE@_STL@@@2@@_STL@@QAEAAU01@XZ ; _STL::_Rb_tree_iterator<_STL::pair<unsigned short const ,unsigned char>,_STL::_Nonconst_traits<_STL::pair<unsigned short const ,unsigned char> > >::operator--
EXTRN	?_M_decrement@?$_Rb_global@_N@_STL@@SAPAU_Rb_tree_node_base@2@PAU32@@Z:NEAR ; _STL::_Rb_global<bool>::_M_decrement
; Function compile flags: /Ogty
;	COMDAT ??F?$_Rb_tree_iterator@U?$pair@$$CBGE@_STL@@U?$_Nonconst_traits@U?$pair@$$CBGE@_STL@@@2@@_STL@@QAEAAU01@XZ
_TEXT	SEGMENT
??F?$_Rb_tree_iterator@U?$pair@$$CBGE@_STL@@U?$_Nonconst_traits@U?$pair@$$CBGE@_STL@@@2@@_STL@@QAEAAU01@XZ PROC NEAR ; _STL::_Rb_tree_iterator<_STL::pair<unsigned short const ,unsigned char>,_STL::_Nonconst_traits<_STL::pair<unsigned short const ,unsigned char> > >::operator--, COMDAT
; _this$ = ecx

; 181  :   _Self& operator--() { _M_node = _Rb_global_inst::_M_decrement(_M_node); return *this; }

  00000	56		 push	 esi
  00001	8b f1		 mov	 esi, ecx
  00003	8b 06		 mov	 eax, DWORD PTR [esi]
  00005	50		 push	 eax
  00006	e8 00 00 00 00	 call	 ?_M_decrement@?$_Rb_global@_N@_STL@@SAPAU_Rb_tree_node_base@2@PAU32@@Z ; _STL::_Rb_global<bool>::_M_decrement
  0000b	89 06		 mov	 DWORD PTR [esi], eax
  0000d	83 c4 04	 add	 esp, 4
  00010	8b c6		 mov	 eax, esi
  00012	5e		 pop	 esi
  00013	c3		 ret	 0
??F?$_Rb_tree_iterator@U?$pair@$$CBGE@_STL@@U?$_Nonconst_traits@U?$pair@$$CBGE@_STL@@@2@@_STL@@QAEAAU01@XZ ENDP ; _STL::_Rb_tree_iterator<_STL::pair<unsigned short const ,unsigned char>,_STL::_Nonconst_traits<_STL::pair<unsigned short const ,unsigned char> > >::operator--
_TEXT	ENDS
PUBLIC	??Bsentry@?$basic_ostream@DV?$char_traits@D@_STL@@@_STL@@QBE_NXZ ; _STL::basic_ostream<char,_STL::char_traits<char> >::sentry::operator bool
; Function compile flags: /Ogty
; File c:\stlport-4.6.1\stlport\stl\_ostream.h
;	COMDAT ??Bsentry@?$basic_ostream@DV?$char_traits@D@_STL@@@_STL@@QBE_NXZ
_TEXT	SEGMENT
??Bsentry@?$basic_ostream@DV?$char_traits@D@_STL@@@_STL@@QBE_NXZ PROC NEAR ; _STL::basic_ostream<char,_STL::char_traits<char> >::sentry::operator bool, COMDAT
; _this$ = ecx

; 176  :       operator bool() const { return _M_ok; }

  00000	8a 41 04	 mov	 al, BYTE PTR [ecx+4]
  00003	c3		 ret	 0
??Bsentry@?$basic_ostream@DV?$char_traits@D@_STL@@@_STL@@QBE_NXZ ENDP ; _STL::basic_ostream<char,_STL::char_traits<char> >::sentry::operator bool
_TEXT	ENDS
PUBLIC	?clear@?$basic_ios@DV?$char_traits@D@_STL@@@_STL@@QAEXH@Z ; _STL::basic_ios<char,_STL::char_traits<char> >::clear
; Function compile flags: /Ogty
; File c:\stlport-4.6.1\stlport\stl\_ios.h
;	COMDAT ?clear@?$basic_ios@DV?$char_traits@D@_STL@@@_STL@@QAEXH@Z
_TEXT	SEGMENT
___state$ = 8						; size = 4
?clear@?$basic_ios@DV?$char_traits@D@_STL@@@_STL@@QAEXH@Z PROC NEAR ; _STL::basic_ios<char,_STL::char_traits<char> >::clear, COMDAT
; _this$ = ecx

; 91   :     _M_clear_nothrow(this->rdbuf() ? __state : iostate(__state|ios_base::badbit));

  00000	8b 41 58	 mov	 eax, DWORD PTR [ecx+88]
  00003	85 c0		 test	 eax, eax
  00005	8b 44 24 04	 mov	 eax, DWORD PTR ___state$[esp-4]
  00009	75 03		 jne	 SHORT $L79068
  0000b	83 c8 01	 or	 eax, 1
$L79068:

; 92   :     _M_check_exception_mask();

  0000e	85 41 14	 test	 DWORD PTR [ecx+20], eax
  00011	89 41 08	 mov	 DWORD PTR [ecx+8], eax
  00014	74 05		 je	 SHORT $L79080
  00016	e8 00 00 00 00	 call	 ?_M_throw_failure@ios_base@_STL@@IAEXXZ ; _STL::ios_base::_M_throw_failure
$L79080:

; 93   :   }

  0001b	c2 04 00	 ret	 4
?clear@?$basic_ios@DV?$char_traits@D@_STL@@@_STL@@QAEXH@Z ENDP ; _STL::basic_ios<char,_STL::char_traits<char> >::clear
_TEXT	ENDS
PUBLIC	?_M_handle_exception@?$basic_ios@DV?$char_traits@D@_STL@@@_STL@@QAEXH@Z ; _STL::basic_ios<char,_STL::char_traits<char> >::_M_handle_exception
EXTRN	__CxxThrowException@8:NEAR
; Function compile flags: /Ogty
; File c:\stlport-4.6.1\stlport\stl\_ios.c
;	COMDAT ?_M_handle_exception@?$basic_ios@DV?$char_traits@D@_STL@@@_STL@@QAEXH@Z
_TEXT	SEGMENT
___flag$ = 8						; size = 4
?_M_handle_exception@?$basic_ios@DV?$char_traits@D@_STL@@@_STL@@QAEXH@Z PROC NEAR ; _STL::basic_ios<char,_STL::char_traits<char> >::_M_handle_exception, COMDAT
; _this$ = ecx

; 118  :   this->_M_setstate_nothrow(__flag);

  00000	8b 44 24 04	 mov	 eax, DWORD PTR ___flag$[esp-4]
  00004	09 41 08	 or	 DWORD PTR [ecx+8], eax

; 119  :   if (this->_M_get_exception_mask() & __flag)

  00007	85 41 14	 test	 DWORD PTR [ecx+20], eax
  0000a	74 09		 je	 SHORT $L78015

; 120  :     _STLP_RETHROW;

  0000c	6a 00		 push	 0
  0000e	6a 00		 push	 0
  00010	e8 00 00 00 00	 call	 __CxxThrowException@8
$L79093:
$L78015:

; 121  : }

  00015	c2 04 00	 ret	 4
$L79092:
?_M_handle_exception@?$basic_ios@DV?$char_traits@D@_STL@@@_STL@@QAEXH@Z ENDP ; _STL::basic_ios<char,_STL::char_traits<char> >::_M_handle_exception
_TEXT	ENDS
PUBLIC	?tie@?$basic_ios@DV?$char_traits@D@_STL@@@_STL@@QBEPAV?$basic_ostream@DV?$char_traits@D@_STL@@@2@XZ ; _STL::basic_ios<char,_STL::char_traits<char> >::tie
; Function compile flags: /Ogty
; File c:\stlport-4.6.1\stlport\stl\_ios.h
;	COMDAT ?tie@?$basic_ios@DV?$char_traits@D@_STL@@@_STL@@QBEPAV?$basic_ostream@DV?$char_traits@D@_STL@@@2@XZ
_TEXT	SEGMENT
?tie@?$basic_ios@DV?$char_traits@D@_STL@@@_STL@@QBEPAV?$basic_ostream@DV?$char_traits@D@_STL@@@2@XZ PROC NEAR ; _STL::basic_ios<char,_STL::char_traits<char> >::tie, COMDAT
; _this$ = ecx

; 62   :     return _M_tied_ostream;

  00000	8b 41 5c	 mov	 eax, DWORD PTR [ecx+92]

; 63   :   }

  00003	c3		 ret	 0
?tie@?$basic_ios@DV?$char_traits@D@_STL@@@_STL@@QBEPAV?$basic_ostream@DV?$char_traits@D@_STL@@@2@XZ ENDP ; _STL::basic_ios<char,_STL::char_traits<char> >::tie
_TEXT	ENDS
PUBLIC	?_S_parent@?$_Rb_tree@GU?$pair@$$CBGE@_STL@@U?$_Select1st@U?$pair@$$CBGE@_STL@@@2@U?$less@G@2@V?$allocator@U?$pair@$$CBGE@_STL@@@2@@_STL@@KAAAPAU?$_Rb_tree_node@U?$pair@$$CBGE@_STL@@@2@PAU32@@Z ; _STL::_Rb_tree<unsigned short,_STL::pair<unsigned short const ,unsigned char>,_STL::_Select1st<_STL::pair<unsigned short const ,unsigned char> >,_STL::less<unsigned short>,_STL::allocator<_STL::pair<unsigned short const ,unsigned char> > >::_S_parent
; Function compile flags: /Ogty
; File c:\stlport-4.6.1\stlport\stl\_tree.h
;	COMDAT ?_S_parent@?$_Rb_tree@GU?$pair@$$CBGE@_STL@@U?$_Select1st@U?$pair@$$CBGE@_STL@@@2@U?$less@G@2@V?$allocator@U?$pair@$$CBGE@_STL@@@2@@_STL@@KAAAPAU?$_Rb_tree_node@U?$pair@$$CBGE@_STL@@@2@PAU32@@Z
_TEXT	SEGMENT
___x$ = 8						; size = 4
?_S_parent@?$_Rb_tree@GU?$pair@$$CBGE@_STL@@U?$_Select1st@U?$pair@$$CBGE@_STL@@@2@U?$less@G@2@V?$allocator@U?$pair@$$CBGE@_STL@@@2@@_STL@@KAAAPAU?$_Rb_tree_node@U?$pair@$$CBGE@_STL@@@2@PAU32@@Z PROC NEAR ; _STL::_Rb_tree<unsigned short,_STL::pair<unsigned short const ,unsigned char>,_STL::_Select1st<_STL::pair<unsigned short const ,unsigned char> >,_STL::less<unsigned short>,_STL::allocator<_STL::pair<unsigned short const ,unsigned char> > >::_S_parent, COMDAT

; 276  :     { return (_Link_type&)(__x->_M_parent); }

  00000	8b 44 24 04	 mov	 eax, DWORD PTR ___x$[esp-4]
  00004	83 c0 04	 add	 eax, 4
  00007	c3		 ret	 0
?_S_parent@?$_Rb_tree@GU?$pair@$$CBGE@_STL@@U?$_Select1st@U?$pair@$$CBGE@_STL@@@2@U?$less@G@2@V?$allocator@U?$pair@$$CBGE@_STL@@@2@@_STL@@KAAAPAU?$_Rb_tree_node@U?$pair@$$CBGE@_STL@@@2@PAU32@@Z ENDP ; _STL::_Rb_tree<unsigned short,_STL::pair<unsigned short const ,unsigned char>,_STL::_Select1st<_STL::pair<unsigned short const ,unsigned char> >,_STL::less<unsigned short>,_STL::allocator<_STL::pair<unsigned short const ,unsigned char> > >::_S_parent
_TEXT	ENDS
PUBLIC	?begin@?$_Rb_tree@GU?$pair@$$CBGE@_STL@@U?$_Select1st@U?$pair@$$CBGE@_STL@@@2@U?$less@G@2@V?$allocator@U?$pair@$$CBGE@_STL@@@2@@_STL@@QAE?AU?$_Rb_tree_iterator@U?$pair@$$CBGE@_STL@@U?$_Nonconst_traits@U?$pair@$$CBGE@_STL@@@2@@2@XZ ; _STL::_Rb_tree<unsigned short,_STL::pair<unsigned short const ,unsigned char>,_STL::_Select1st<_STL::pair<unsigned short const ,unsigned char> >,_STL::less<unsigned short>,_STL::allocator<_STL::pair<unsigned short const ,unsigned char> > >::begin
; Function compile flags: /Ogty
;	COMDAT ?begin@?$_Rb_tree@GU?$pair@$$CBGE@_STL@@U?$_Select1st@U?$pair@$$CBGE@_STL@@@2@U?$less@G@2@V?$allocator@U?$pair@$$CBGE@_STL@@@2@@_STL@@QAE?AU?$_Rb_tree_iterator@U?$pair@$$CBGE@_STL@@U?$_Nonconst_traits@U?$pair@$$CBGE@_STL@@@2@@2@XZ
_TEXT	SEGMENT
___$ReturnUdt$ = 8					; size = 4
?begin@?$_Rb_tree@GU?$pair@$$CBGE@_STL@@U?$_Select1st@U?$pair@$$CBGE@_STL@@@2@U?$less@G@2@V?$allocator@U?$pair@$$CBGE@_STL@@@2@@_STL@@QAE?AU?$_Rb_tree_iterator@U?$pair@$$CBGE@_STL@@U?$_Nonconst_traits@U?$pair@$$CBGE@_STL@@@2@@2@XZ PROC NEAR ; _STL::_Rb_tree<unsigned short,_STL::pair<unsigned short const ,unsigned char>,_STL::_Select1st<_STL::pair<unsigned short const ,unsigned char> >,_STL::less<unsigned short>,_STL::allocator<_STL::pair<unsigned short const ,unsigned char> > >::begin, COMDAT
; _this$ = ecx

; 357  :   iterator begin() { return iterator(_M_leftmost()); }

  00000	8b 01		 mov	 eax, DWORD PTR [ecx]
  00002	8b 48 08	 mov	 ecx, DWORD PTR [eax+8]
  00005	8b 44 24 04	 mov	 eax, DWORD PTR ___$ReturnUdt$[esp-4]
  00009	89 08		 mov	 DWORD PTR [eax], ecx
  0000b	c2 04 00	 ret	 4
?begin@?$_Rb_tree@GU?$pair@$$CBGE@_STL@@U?$_Select1st@U?$pair@$$CBGE@_STL@@@2@U?$less@G@2@V?$allocator@U?$pair@$$CBGE@_STL@@@2@@_STL@@QAE?AU?$_Rb_tree_iterator@U?$pair@$$CBGE@_STL@@U?$_Nonconst_traits@U?$pair@$$CBGE@_STL@@@2@@2@XZ ENDP ; _STL::_Rb_tree<unsigned short,_STL::pair<unsigned short const ,unsigned char>,_STL::_Select1st<_STL::pair<unsigned short const ,unsigned char> >,_STL::less<unsigned short>,_STL::allocator<_STL::pair<unsigned short const ,unsigned char> > >::begin
_TEXT	ENDS
PUBLIC	??0?$pair@U?$_Rb_tree_iterator@U?$pair@$$CBGE@_STL@@U?$_Nonconst_traits@U?$pair@$$CBGE@_STL@@@2@@_STL@@_N@_STL@@QAE@ABU?$_Rb_tree_iterator@U?$pair@$$CBGE@_STL@@U?$_Nonconst_traits@U?$pair@$$CBGE@_STL@@@2@@1@AB_N@Z ; _STL::pair<_STL::_Rb_tree_iterator<_STL::pair<unsigned short const ,unsigned char>,_STL::_Nonconst_traits<_STL::pair<unsigned short const ,unsigned char> > >,bool>::pair<_STL::_Rb_tree_iterator<_STL::pair<unsigned short const ,unsigned char>,_STL::_Nonconst_traits<_STL::pair<unsigned short const ,unsigned char> > >,bool>
; Function compile flags: /Ogty
; File c:\stlport-4.6.1\stlport\stl\_pair.h
;	COMDAT ??0?$pair@U?$_Rb_tree_iterator@U?$pair@$$CBGE@_STL@@U?$_Nonconst_traits@U?$pair@$$CBGE@_STL@@@2@@_STL@@_N@_STL@@QAE@ABU?$_Rb_tree_iterator@U?$pair@$$CBGE@_STL@@U?$_Nonconst_traits@U?$pair@$$CBGE@_STL@@@2@@1@AB_N@Z
_TEXT	SEGMENT
___a$ = 8						; size = 4
___b$ = 12						; size = 4
??0?$pair@U?$_Rb_tree_iterator@U?$pair@$$CBGE@_STL@@U?$_Nonconst_traits@U?$pair@$$CBGE@_STL@@@2@@_STL@@_N@_STL@@QAE@ABU?$_Rb_tree_iterator@U?$pair@$$CBGE@_STL@@U?$_Nonconst_traits@U?$pair@$$CBGE@_STL@@@2@@1@AB_N@Z PROC NEAR ; _STL::pair<_STL::_Rb_tree_iterator<_STL::pair<unsigned short const ,unsigned char>,_STL::_Nonconst_traits<_STL::pair<unsigned short const ,unsigned char> > >,bool>::pair<_STL::_Rb_tree_iterator<_STL::pair<unsigned short const ,unsigned char>,_STL::_Nonconst_traits<_STL::pair<unsigned short const ,unsigned char> > >,bool>, COMDAT
; _this$ = ecx

; 48   :   pair(const _T1& __a, const _T2& __b) : first(__a), second(__b) {}

  00000	8b c1		 mov	 eax, ecx
  00002	8b 4c 24 04	 mov	 ecx, DWORD PTR ___a$[esp-4]
  00006	8b 11		 mov	 edx, DWORD PTR [ecx]
  00008	8b 4c 24 08	 mov	 ecx, DWORD PTR ___b$[esp-4]
  0000c	89 10		 mov	 DWORD PTR [eax], edx
  0000e	8a 11		 mov	 dl, BYTE PTR [ecx]
  00010	88 50 04	 mov	 BYTE PTR [eax+4], dl
  00013	c2 08 00	 ret	 8
??0?$pair@U?$_Rb_tree_iterator@U?$pair@$$CBGE@_STL@@U?$_Nonconst_traits@U?$pair@$$CBGE@_STL@@@2@@_STL@@_N@_STL@@QAE@ABU?$_Rb_tree_iterator@U?$pair@$$CBGE@_STL@@U?$_Nonconst_traits@U?$pair@$$CBGE@_STL@@@2@@1@AB_N@Z ENDP ; _STL::pair<_STL::_Rb_tree_iterator<_STL::pair<unsigned short const ,unsigned char>,_STL::_Nonconst_traits<_STL::pair<unsigned short const ,unsigned char> > >,bool>::pair<_STL::_Rb_tree_iterator<_STL::pair<unsigned short const ,unsigned char>,_STL::_Nonconst_traits<_STL::pair<unsigned short const ,unsigned char> > >,bool>
_TEXT	ENDS
PUBLIC	??0?$pair@$$CBGE@_STL@@QAE@ABU01@@Z		; _STL::pair<unsigned short const ,unsigned char>::pair<unsigned short const ,unsigned char>
; Function compile flags: /Ogty
;	COMDAT ??0?$pair@$$CBGE@_STL@@QAE@ABU01@@Z
_TEXT	SEGMENT
___o$ = 8						; size = 4
??0?$pair@$$CBGE@_STL@@QAE@ABU01@@Z PROC NEAR		; _STL::pair<unsigned short const ,unsigned char>::pair<unsigned short const ,unsigned char>, COMDAT
; _this$ = ecx

; 54   :   pair(const pair<_T1,_T2>& __o) : first(__o.first), second(__o.second) {}

  00000	8b c1		 mov	 eax, ecx
  00002	8b 4c 24 04	 mov	 ecx, DWORD PTR ___o$[esp-4]
  00006	66 8b 11	 mov	 dx, WORD PTR [ecx]
  00009	66 89 10	 mov	 WORD PTR [eax], dx
  0000c	8a 49 02	 mov	 cl, BYTE PTR [ecx+2]
  0000f	88 48 02	 mov	 BYTE PTR [eax+2], cl
  00012	c2 04 00	 ret	 4
??0?$pair@$$CBGE@_STL@@QAE@ABU01@@Z ENDP		; _STL::pair<unsigned short const ,unsigned char>::pair<unsigned short const ,unsigned char>
_TEXT	ENDS
PUBLIC	?_Ret@?$_BothPtrType@PAGPAG@_STL@@SA?AU__true_type@2@XZ ; _STL::_BothPtrType<unsigned short *,unsigned short *>::_Ret
; Function compile flags: /Ogty
; File c:\stlport-4.6.1\stlport\stl\type_traits.h
;	COMDAT ?_Ret@?$_BothPtrType@PAGPAG@_STL@@SA?AU__true_type@2@XZ
_TEXT	SEGMENT
?_Ret@?$_BothPtrType@PAGPAG@_STL@@SA?AU__true_type@2@XZ PROC NEAR ; _STL::_BothPtrType<unsigned short *,unsigned short *>::_Ret, COMDAT

; 234  :   static __true_type _Ret() { return __true_type();} 

  00000	32 c0		 xor	 al, al
  00002	c3		 ret	 0
?_Ret@?$_BothPtrType@PAGPAG@_STL@@SA?AU__true_type@2@XZ ENDP ; _STL::_BothPtrType<unsigned short *,unsigned short *>::_Ret
_TEXT	ENDS
PUBLIC	?_Ret@?$_OKToMemCpy@GG@_STL@@SA?AU__true_type@2@XZ ; _STL::_OKToMemCpy<unsigned short,unsigned short>::_Ret
; Function compile flags: /Ogty
;	COMDAT ?_Ret@?$_OKToMemCpy@GG@_STL@@SA?AU__true_type@2@XZ
_TEXT	SEGMENT
?_Ret@?$_OKToMemCpy@GG@_STL@@SA?AU__true_type@2@XZ PROC NEAR ; _STL::_OKToMemCpy<unsigned short,unsigned short>::_Ret, COMDAT

; 361  :   static _Type _Ret() { return _Type(); }

  00000	32 c0		 xor	 al, al
  00002	c3		 ret	 0
?_Ret@?$_OKToMemCpy@GG@_STL@@SA?AU__true_type@2@XZ ENDP	; _STL::_OKToMemCpy<unsigned short,unsigned short>::_Ret
_TEXT	ENDS
PUBLIC	??$_IsOKToMemCpy@GG@_STL@@YA?AU?$_OKToMemCpy@GG@0@PAG0@Z ; _STL::_IsOKToMemCpy<unsigned short,unsigned short>
; Function compile flags: /Ogty
;	COMDAT ??$_IsOKToMemCpy@GG@_STL@@YA?AU?$_OKToMemCpy@GG@0@PAG0@Z
_TEXT	SEGMENT
___formal$ = 8						; size = 4
___formal$ = 12						; size = 4
??$_IsOKToMemCpy@GG@_STL@@YA?AU?$_OKToMemCpy@GG@0@PAG0@Z PROC NEAR ; _STL::_IsOKToMemCpy<unsigned short,unsigned short>, COMDAT

; 366  :   return _OKToMemCpy<_Tp1, _Tp2>();

  00000	32 c0		 xor	 al, al

; 367  : }

  00002	c3		 ret	 0
??$_IsOKToMemCpy@GG@_STL@@YA?AU?$_OKToMemCpy@GG@0@PAG0@Z ENDP ; _STL::_IsOKToMemCpy<unsigned short,unsigned short>
_TEXT	ENDS
PUBLIC	??1?$allocator@G@_STL@@QAE@XZ			; _STL::allocator<unsigned short>::~allocator<unsigned short>
; Function compile flags: /Ogty
; File c:\stlport-4.6.1\stlport\stl\_alloc.h
;	COMDAT ??1?$allocator@G@_STL@@QAE@XZ
_TEXT	SEGMENT
??1?$allocator@G@_STL@@QAE@XZ PROC NEAR			; _STL::allocator<unsigned short>::~allocator<unsigned short>, COMDAT
; _this$ = ecx

; 350  :   ~allocator() _STLP_NOTHROW {}

  00000	c3		 ret	 0
??1?$allocator@G@_STL@@QAE@XZ ENDP			; _STL::allocator<unsigned short>::~allocator<unsigned short>
_TEXT	ENDS
PUBLIC	?deallocate@?$__node_alloc@$00$0A@@_STL@@SAXPAXI@Z ; _STL::__node_alloc<1,0>::deallocate
EXTRN	?_M_deallocate@?$__node_alloc@$00$0A@@_STL@@CAXPAXI@Z:NEAR ; _STL::__node_alloc<1,0>::_M_deallocate
; Function compile flags: /Ogty
;	COMDAT ?deallocate@?$__node_alloc@$00$0A@@_STL@@SAXPAXI@Z
_TEXT	SEGMENT
___p$ = 8						; size = 4
___n$ = 12						; size = 4
?deallocate@?$__node_alloc@$00$0A@@_STL@@SAXPAXI@Z PROC NEAR ; _STL::__node_alloc<1,0>::deallocate, COMDAT

; 253  :   static void _STLP_CALL deallocate(void *__p, size_t __n) { if (__n > (size_t)_MAX_BYTES) __stl_delete(__p); else _M_deallocate(__p, __n); }

  00000	8b 44 24 08	 mov	 eax, DWORD PTR ___n$[esp-4]
  00004	3d 80 00 00 00	 cmp	 eax, 128		; 00000080H
  00009	76 0e		 jbe	 SHORT $L73486
  0000b	8b 44 24 04	 mov	 eax, DWORD PTR ___p$[esp-4]
  0000f	50		 push	 eax
  00010	e8 00 00 00 00	 call	 ??3@YAXPAX@Z		; operator delete
  00015	83 c4 04	 add	 esp, 4
  00018	c3		 ret	 0
$L73486:
  00019	89 44 24 08	 mov	 DWORD PTR ___n$[esp-4], eax
  0001d	e9 00 00 00 00	 jmp	 ?_M_deallocate@?$__node_alloc@$00$0A@@_STL@@CAXPAXI@Z ; _STL::__node_alloc<1,0>::_M_deallocate
?deallocate@?$__node_alloc@$00$0A@@_STL@@SAXPAXI@Z ENDP	; _STL::__node_alloc<1,0>::deallocate
_TEXT	ENDS
PUBLIC	??A?$vector@GV?$allocator@G@_STL@@@_STL@@QAEAAGI@Z ; _STL::vector<unsigned short,_STL::allocator<unsigned short> >::operator[]
; Function compile flags: /Ogty
; File c:\stlport-4.6.1\stlport\stl\_vector.h
;	COMDAT ??A?$vector@GV?$allocator@G@_STL@@@_STL@@QAEAAGI@Z
_TEXT	SEGMENT
___n$ = 8						; size = 4
??A?$vector@GV?$allocator@G@_STL@@@_STL@@QAEAAGI@Z PROC NEAR ; _STL::vector<unsigned short,_STL::allocator<unsigned short> >::operator[], COMDAT
; _this$ = ecx

; 187  :   reference operator[](size_type __n) { return *(begin() + __n); }

  00000	8b 01		 mov	 eax, DWORD PTR [ecx]
  00002	8b 4c 24 04	 mov	 ecx, DWORD PTR ___n$[esp-4]
  00006	8d 04 48	 lea	 eax, DWORD PTR [eax+ecx*2]
  00009	c2 04 00	 ret	 4
??A?$vector@GV?$allocator@G@_STL@@@_STL@@QAEAAGI@Z ENDP	; _STL::vector<unsigned short,_STL::allocator<unsigned short> >::operator[]
_TEXT	ENDS
PUBLIC	??A?$vector@GV?$allocator@G@_STL@@@_STL@@QBEABGI@Z ; _STL::vector<unsigned short,_STL::allocator<unsigned short> >::operator[]
; Function compile flags: /Ogty
;	COMDAT ??A?$vector@GV?$allocator@G@_STL@@@_STL@@QBEABGI@Z
_TEXT	SEGMENT
___n$ = 8						; size = 4
??A?$vector@GV?$allocator@G@_STL@@@_STL@@QBEABGI@Z PROC NEAR ; _STL::vector<unsigned short,_STL::allocator<unsigned short> >::operator[], COMDAT
; _this$ = ecx

; 188  :   const_reference operator[](size_type __n) const { return *(begin() + __n); }

  00000	8b 01		 mov	 eax, DWORD PTR [ecx]
  00002	8b 4c 24 04	 mov	 ecx, DWORD PTR ___n$[esp-4]
  00006	8d 04 48	 lea	 eax, DWORD PTR [eax+ecx*2]
  00009	c2 04 00	 ret	 4
??A?$vector@GV?$allocator@G@_STL@@@_STL@@QBEABGI@Z ENDP	; _STL::vector<unsigned short,_STL::allocator<unsigned short> >::operator[]
_TEXT	ENDS
PUBLIC	??C?$_Rb_tree_iterator@U?$pair@$$CBGE@_STL@@U?$_Const_traits@U?$pair@$$CBGE@_STL@@@2@@_STL@@QBEPBU?$pair@$$CBGE@1@XZ ; _STL::_Rb_tree_iterator<_STL::pair<unsigned short const ,unsigned char>,_STL::_Const_traits<_STL::pair<unsigned short const ,unsigned char> > >::operator->
; Function compile flags: /Ogty
; File c:\stlport-4.6.1\stlport\stl\_tree.h
;	COMDAT ??C?$_Rb_tree_iterator@U?$pair@$$CBGE@_STL@@U?$_Const_traits@U?$pair@$$CBGE@_STL@@@2@@_STL@@QBEPBU?$pair@$$CBGE@1@XZ
_TEXT	SEGMENT
??C?$_Rb_tree_iterator@U?$pair@$$CBGE@_STL@@U?$_Const_traits@U?$pair@$$CBGE@_STL@@@2@@_STL@@QBEPBU?$pair@$$CBGE@1@XZ PROC NEAR ; _STL::_Rb_tree_iterator<_STL::pair<unsigned short const ,unsigned char>,_STL::_Const_traits<_STL::pair<unsigned short const ,unsigned char> > >::operator->, COMDAT
; _this$ = ecx

; 172  :   _STLP_DEFINE_ARROW_OPERATOR

  00000	8b 01		 mov	 eax, DWORD PTR [ecx]
  00002	83 c0 10	 add	 eax, 16			; 00000010H
  00005	c3		 ret	 0
??C?$_Rb_tree_iterator@U?$pair@$$CBGE@_STL@@U?$_Const_traits@U?$pair@$$CBGE@_STL@@@2@@_STL@@QBEPBU?$pair@$$CBGE@1@XZ ENDP ; _STL::_Rb_tree_iterator<_STL::pair<unsigned short const ,unsigned char>,_STL::_Const_traits<_STL::pair<unsigned short const ,unsigned char> > >::operator->
_TEXT	ENDS
PUBLIC	?key_comp@?$map@GEU?$less@G@_STL@@V?$allocator@U?$pair@$$CBGE@_STL@@@2@@_STL@@QBE?AU?$less@G@2@XZ ; _STL::map<unsigned short,unsigned char,_STL::less<unsigned short>,_STL::allocator<_STL::pair<unsigned short const ,unsigned char> > >::key_comp
; Function compile flags: /Ogty
; File c:\stlport-4.6.1\stlport\stl\_map.h
;	COMDAT ?key_comp@?$map@GEU?$less@G@_STL@@V?$allocator@U?$pair@$$CBGE@_STL@@@2@@_STL@@QBE?AU?$less@G@2@XZ
_TEXT	SEGMENT
___$ReturnUdt$ = 8					; size = 4
?key_comp@?$map@GEU?$less@G@_STL@@V?$allocator@U?$pair@$$CBGE@_STL@@@2@@_STL@@QBE?AU?$less@G@2@XZ PROC NEAR ; _STL::map<unsigned short,unsigned char,_STL::less<unsigned short>,_STL::allocator<_STL::pair<unsigned short const ,unsigned char> > >::key_comp, COMDAT
; _this$ = ecx

; 143  :   key_compare key_comp() const { return _M_t.key_comp(); }

  00000	8b 44 24 04	 mov	 eax, DWORD PTR ___$ReturnUdt$[esp-4]
  00004	c2 04 00	 ret	 4
?key_comp@?$map@GEU?$less@G@_STL@@V?$allocator@U?$pair@$$CBGE@_STL@@@2@@_STL@@QBE?AU?$less@G@2@XZ ENDP ; _STL::map<unsigned short,unsigned char,_STL::less<unsigned short>,_STL::allocator<_STL::pair<unsigned short const ,unsigned char> > >::key_comp
_TEXT	ENDS
PUBLIC	?end@?$_Rb_tree@GU?$pair@$$CBGE@_STL@@U?$_Select1st@U?$pair@$$CBGE@_STL@@@2@U?$less@G@2@V?$allocator@U?$pair@$$CBGE@_STL@@@2@@_STL@@QAE?AU?$_Rb_tree_iterator@U?$pair@$$CBGE@_STL@@U?$_Nonconst_traits@U?$pair@$$CBGE@_STL@@@2@@2@XZ ; _STL::_Rb_tree<unsigned short,_STL::pair<unsigned short const ,unsigned char>,_STL::_Select1st<_STL::pair<unsigned short const ,unsigned char> >,_STL::less<unsigned short>,_STL::allocator<_STL::pair<unsigned short const ,unsigned char> > >::end
; Function compile flags: /Ogty
; File c:\stlport-4.6.1\stlport\stl\_tree.h
;	COMDAT ?end@?$_Rb_tree@GU?$pair@$$CBGE@_STL@@U?$_Select1st@U?$pair@$$CBGE@_STL@@@2@U?$less@G@2@V?$allocator@U?$pair@$$CBGE@_STL@@@2@@_STL@@QAE?AU?$_Rb_tree_iterator@U?$pair@$$CBGE@_STL@@U?$_Nonconst_traits@U?$pair@$$CBGE@_STL@@@2@@2@XZ
_TEXT	SEGMENT
___$ReturnUdt$ = 8					; size = 4
?end@?$_Rb_tree@GU?$pair@$$CBGE@_STL@@U?$_Select1st@U?$pair@$$CBGE@_STL@@@2@U?$less@G@2@V?$allocator@U?$pair@$$CBGE@_STL@@@2@@_STL@@QAE?AU?$_Rb_tree_iterator@U?$pair@$$CBGE@_STL@@U?$_Nonconst_traits@U?$pair@$$CBGE@_STL@@@2@@2@XZ PROC NEAR ; _STL::_Rb_tree<unsigned short,_STL::pair<unsigned short const ,unsigned char>,_STL::_Select1st<_STL::pair<unsigned short const ,unsigned char> >,_STL::less<unsigned short>,_STL::allocator<_STL::pair<unsigned short const ,unsigned char> > >::end, COMDAT
; _this$ = ecx

; 359  :   iterator end() { return iterator(this->_M_header._M_data); }

  00000	8b 09		 mov	 ecx, DWORD PTR [ecx]
  00002	8b 44 24 04	 mov	 eax, DWORD PTR ___$ReturnUdt$[esp-4]
  00006	89 08		 mov	 DWORD PTR [eax], ecx
  00008	c2 04 00	 ret	 4
?end@?$_Rb_tree@GU?$pair@$$CBGE@_STL@@U?$_Select1st@U?$pair@$$CBGE@_STL@@@2@U?$less@G@2@V?$allocator@U?$pair@$$CBGE@_STL@@@2@@_STL@@QAE?AU?$_Rb_tree_iterator@U?$pair@$$CBGE@_STL@@U?$_Nonconst_traits@U?$pair@$$CBGE@_STL@@@2@@2@XZ ENDP ; _STL::_Rb_tree<unsigned short,_STL::pair<unsigned short const ,unsigned char>,_STL::_Select1st<_STL::pair<unsigned short const ,unsigned char> >,_STL::less<unsigned short>,_STL::allocator<_STL::pair<unsigned short const ,unsigned char> > >::end
_TEXT	ENDS
PUBLIC	?end@?$_Rb_tree@GU?$pair@$$CBGE@_STL@@U?$_Select1st@U?$pair@$$CBGE@_STL@@@2@U?$less@G@2@V?$allocator@U?$pair@$$CBGE@_STL@@@2@@_STL@@QBE?AU?$_Rb_tree_iterator@U?$pair@$$CBGE@_STL@@U?$_Const_traits@U?$pair@$$CBGE@_STL@@@2@@2@XZ ; _STL::_Rb_tree<unsigned short,_STL::pair<unsigned short const ,unsigned char>,_STL::_Select1st<_STL::pair<unsigned short const ,unsigned char> >,_STL::less<unsigned short>,_STL::allocator<_STL::pair<unsigned short const ,unsigned char> > >::end
; Function compile flags: /Ogty
;	COMDAT ?end@?$_Rb_tree@GU?$pair@$$CBGE@_STL@@U?$_Select1st@U?$pair@$$CBGE@_STL@@@2@U?$less@G@2@V?$allocator@U?$pair@$$CBGE@_STL@@@2@@_STL@@QBE?AU?$_Rb_tree_iterator@U?$pair@$$CBGE@_STL@@U?$_Const_traits@U?$pair@$$CBGE@_STL@@@2@@2@XZ
_TEXT	SEGMENT
___$ReturnUdt$ = 8					; size = 4
?end@?$_Rb_tree@GU?$pair@$$CBGE@_STL@@U?$_Select1st@U?$pair@$$CBGE@_STL@@@2@U?$less@G@2@V?$allocator@U?$pair@$$CBGE@_STL@@@2@@_STL@@QBE?AU?$_Rb_tree_iterator@U?$pair@$$CBGE@_STL@@U?$_Const_traits@U?$pair@$$CBGE@_STL@@@2@@2@XZ PROC NEAR ; _STL::_Rb_tree<unsigned short,_STL::pair<unsigned short const ,unsigned char>,_STL::_Select1st<_STL::pair<unsigned short const ,unsigned char> >,_STL::less<unsigned short>,_STL::allocator<_STL::pair<unsigned short const ,unsigned char> > >::end, COMDAT
; _this$ = ecx

; 360  :   const_iterator end() const { return const_iterator(this->_M_header._M_data); }

  00000	8b 09		 mov	 ecx, DWORD PTR [ecx]
  00002	8b 44 24 04	 mov	 eax, DWORD PTR ___$ReturnUdt$[esp-4]
  00006	89 08		 mov	 DWORD PTR [eax], ecx
  00008	c2 04 00	 ret	 4
?end@?$_Rb_tree@GU?$pair@$$CBGE@_STL@@U?$_Select1st@U?$pair@$$CBGE@_STL@@@2@U?$less@G@2@V?$allocator@U?$pair@$$CBGE@_STL@@@2@@_STL@@QBE?AU?$_Rb_tree_iterator@U?$pair@$$CBGE@_STL@@U?$_Const_traits@U?$pair@$$CBGE@_STL@@@2@@2@XZ ENDP ; _STL::_Rb_tree<unsigned short,_STL::pair<unsigned short const ,unsigned char>,_STL::_Select1st<_STL::pair<unsigned short const ,unsigned char> >,_STL::less<unsigned short>,_STL::allocator<_STL::pair<unsigned short const ,unsigned char> > >::end
_TEXT	ENDS
PUBLIC	?erase@?$vector@GV?$allocator@G@_STL@@@_STL@@QAEPAGPAG0@Z ; _STL::vector<unsigned short,_STL::allocator<unsigned short> >::erase
; Function compile flags: /Ogty
; File c:\stlport-4.6.1\stlport\stl\_vector.h
;	COMDAT ?erase@?$vector@GV?$allocator@G@_STL@@@_STL@@QAEPAGPAG0@Z
_TEXT	SEGMENT
___first$ = 8						; size = 4
___last$ = 12						; size = 4
?erase@?$vector@GV?$allocator@G@_STL@@@_STL@@QAEPAGPAG0@Z PROC NEAR ; _STL::vector<unsigned short,_STL::allocator<unsigned short> >::erase, COMDAT
; _this$ = ecx

; 474  :     pointer __i = __copy_ptrs(__last, this->_M_finish, __first, _TrivialAss());

  00000	8b 44 24 08	 mov	 eax, DWORD PTR ___last$[esp-4]
  00004	56		 push	 esi
  00005	57		 push	 edi
  00006	8b f9		 mov	 edi, ecx
  00008	8b 77 04	 mov	 esi, DWORD PTR [edi+4]
  0000b	3b f0		 cmp	 esi, eax
  0000d	75 0c		 jne	 SHORT $L79196
  0000f	8b 44 24 0c	 mov	 eax, DWORD PTR ___first$[esp+4]

; 475  :     _Destroy(__i, this->_M_finish);
; 476  :     this->_M_finish = __i;

  00013	89 47 04	 mov	 DWORD PTR [edi+4], eax
  00016	5f		 pop	 edi
  00017	5e		 pop	 esi

; 478  :   }

  00018	c2 08 00	 ret	 8

; 474  :     pointer __i = __copy_ptrs(__last, this->_M_finish, __first, _TrivialAss());

$L79196:
  0001b	53		 push	 ebx
  0001c	8b 5c 24 10	 mov	 ebx, DWORD PTR ___first$[esp+8]
  00020	2b f0		 sub	 esi, eax
  00022	56		 push	 esi
  00023	50		 push	 eax
  00024	53		 push	 ebx
  00025	e8 00 00 00 00	 call	 _memmove
  0002a	03 c6		 add	 eax, esi
  0002c	83 c4 0c	 add	 esp, 12			; 0000000cH

; 475  :     _Destroy(__i, this->_M_finish);
; 476  :     this->_M_finish = __i;

  0002f	89 47 04	 mov	 DWORD PTR [edi+4], eax

; 477  :     return __first;

  00032	8b c3		 mov	 eax, ebx
  00034	5b		 pop	 ebx
  00035	5f		 pop	 edi
  00036	5e		 pop	 esi

; 478  :   }

  00037	c2 08 00	 ret	 8
?erase@?$vector@GV?$allocator@G@_STL@@@_STL@@QAEPAGPAG0@Z ENDP ; _STL::vector<unsigned short,_STL::allocator<unsigned short> >::erase
_TEXT	ENDS
PUBLIC	??1?$_STLP_alloc_proxy@PAU?$_Rb_tree_node@U?$pair@$$CBGE@_STL@@@_STL@@U12@V?$allocator@U?$_Rb_tree_node@U?$pair@$$CBGE@_STL@@@_STL@@@2@@_STL@@QAE@XZ ; _STL::_STLP_alloc_proxy<_STL::_Rb_tree_node<_STL::pair<unsigned short const ,unsigned char> > *,_STL::_Rb_tree_node<_STL::pair<unsigned short const ,unsigned char> >,_STL::allocator<_STL::_Rb_tree_node<_STL::pair<unsigned short const ,unsigned char> > > >::~_STLP_alloc_proxy<_STL::_Rb_tree_node<_STL::pair<unsigned short const ,unsigned char> > *,_STL::_Rb_tree_node<_STL::pair<unsigned short const ,unsigned char> >,_STL::allocator<_STL::_Rb_tree_node<_STL::pair<unsigned short const ,unsigned char> > > >
; Function compile flags: /Ogty
;	COMDAT ??1?$_STLP_alloc_proxy@PAU?$_Rb_tree_node@U?$pair@$$CBGE@_STL@@@_STL@@U12@V?$allocator@U?$_Rb_tree_node@U?$pair@$$CBGE@_STL@@@_STL@@@2@@_STL@@QAE@XZ
_TEXT	SEGMENT
??1?$_STLP_alloc_proxy@PAU?$_Rb_tree_node@U?$pair@$$CBGE@_STL@@@_STL@@U12@V?$allocator@U?$_Rb_tree_node@U?$pair@$$CBGE@_STL@@@_STL@@@2@@_STL@@QAE@XZ PROC NEAR ; _STL::_STLP_alloc_proxy<_STL::_Rb_tree_node<_STL::pair<unsigned short const ,unsigned char> > *,_STL::_Rb_tree_node<_STL::pair<unsigned short const ,unsigned char> >,_STL::allocator<_STL::_Rb_tree_node<_STL::pair<unsigned short const ,unsigned char> > > >::~_STLP_alloc_proxy<_STL::_Rb_tree_node<_STL::pair<unsigned short const ,unsigned char> > *,_STL::_Rb_tree_node<_STL::pair<unsigned short const ,unsigned char> >,_STL::allocator<_STL::_Rb_tree_node<_STL::pair<unsigned short const ,unsigned char> > > >, COMDAT
; _this$ = ecx
  00000	c3		 ret	 0
??1?$_STLP_alloc_proxy@PAU?$_Rb_tree_node@U?$pair@$$CBGE@_STL@@@_STL@@U12@V?$allocator@U?$_Rb_tree_node@U?$pair@$$CBGE@_STL@@@_STL@@@2@@_STL@@QAE@XZ ENDP ; _STL::_STLP_alloc_proxy<_STL::_Rb_tree_node<_STL::pair<unsigned short const ,unsigned char> > *,_STL::_Rb_tree_node<_STL::pair<unsigned short const ,unsigned char> >,_STL::allocator<_STL::_Rb_tree_node<_STL::pair<unsigned short const ,unsigned char> > > >::~_STLP_alloc_proxy<_STL::_Rb_tree_node<_STL::pair<unsigned short const ,unsigned char> > *,_STL::_Rb_tree_node<_STL::pair<unsigned short const ,unsigned char> >,_STL::allocator<_STL::_Rb_tree_node<_STL::pair<unsigned short const ,unsigned char> > > >
_TEXT	ENDS
PUBLIC	??0?$_STLP_alloc_proxy@PAGGV?$allocator@G@_STL@@@_STL@@QAE@ABV?$allocator@G@1@PAG@Z ; _STL::_STLP_alloc_proxy<unsigned short *,unsigned short,_STL::allocator<unsigned short> >::_STLP_alloc_proxy<unsigned short *,unsigned short,_STL::allocator<unsigned short> >
; Function compile flags: /Ogty
; File c:\stlport-4.6.1\stlport\stl\_alloc.h
;	COMDAT ??0?$_STLP_alloc_proxy@PAGGV?$allocator@G@_STL@@@_STL@@QAE@ABV?$allocator@G@1@PAG@Z
_TEXT	SEGMENT
___a$ = 8						; size = 4
___p$ = 12						; size = 4
??0?$_STLP_alloc_proxy@PAGGV?$allocator@G@_STL@@@_STL@@QAE@ABV?$allocator@G@1@PAG@Z PROC NEAR ; _STL::_STLP_alloc_proxy<unsigned short *,unsigned short,_STL::allocator<unsigned short> >::_STLP_alloc_proxy<unsigned short *,unsigned short,_STL::allocator<unsigned short> >, COMDAT
; _this$ = ecx

; 487  :   inline _STLP_alloc_proxy(const _MaybeReboundAlloc& __a, _Value __p) : _MaybeReboundAlloc(__a), _M_data(__p) {}

  00000	8b c1		 mov	 eax, ecx
  00002	8b 4c 24 08	 mov	 ecx, DWORD PTR ___p$[esp-4]
  00006	89 08		 mov	 DWORD PTR [eax], ecx
  00008	c2 08 00	 ret	 8
??0?$_STLP_alloc_proxy@PAGGV?$allocator@G@_STL@@@_STL@@QAE@ABV?$allocator@G@1@PAG@Z ENDP ; _STL::_STLP_alloc_proxy<unsigned short *,unsigned short,_STL::allocator<unsigned short> >::_STLP_alloc_proxy<unsigned short *,unsigned short,_STL::allocator<unsigned short> >
_TEXT	ENDS
PUBLIC	?_M_empty_initialize@?$_Rb_tree@GU?$pair@$$CBGE@_STL@@U?$_Select1st@U?$pair@$$CBGE@_STL@@@2@U?$less@G@2@V?$allocator@U?$pair@$$CBGE@_STL@@@2@@_STL@@AAEXXZ ; _STL::_Rb_tree<unsigned short,_STL::pair<unsigned short const ,unsigned char>,_STL::_Select1st<_STL::pair<unsigned short const ,unsigned char> >,_STL::less<unsigned short>,_STL::allocator<_STL::pair<unsigned short const ,unsigned char> > >::_M_empty_initialize
; Function compile flags: /Ogty
; File c:\stlport-4.6.1\stlport\stl\_tree.h
;	COMDAT ?_M_empty_initialize@?$_Rb_tree@GU?$pair@$$CBGE@_STL@@U?$_Select1st@U?$pair@$$CBGE@_STL@@@2@U?$less@G@2@V?$allocator@U?$pair@$$CBGE@_STL@@@2@@_STL@@AAEXXZ
_TEXT	SEGMENT
?_M_empty_initialize@?$_Rb_tree@GU?$pair@$$CBGE@_STL@@U?$_Select1st@U?$pair@$$CBGE@_STL@@@2@U?$less@G@2@V?$allocator@U?$pair@$$CBGE@_STL@@@2@@_STL@@AAEXXZ PROC NEAR ; _STL::_Rb_tree<unsigned short,_STL::pair<unsigned short const ,unsigned char>,_STL::_Select1st<_STL::pair<unsigned short const ,unsigned char> >,_STL::less<unsigned short>,_STL::allocator<_STL::pair<unsigned short const ,unsigned char> > >::_M_empty_initialize, COMDAT
; _this$ = ecx

; 346  :     _S_color(this->_M_header._M_data) = _S_rb_tree_red; // used to distinguish header from 

  00000	8b 01		 mov	 eax, DWORD PTR [ecx]
  00002	c6 00 00	 mov	 BYTE PTR [eax], 0

; 347  :                                           // __root, in iterator.operator++
; 348  :     _M_root() = 0;

  00005	8b 11		 mov	 edx, DWORD PTR [ecx]
  00007	c7 42 04 00 00
	00 00		 mov	 DWORD PTR [edx+4], 0

; 349  :     _M_leftmost() = this->_M_header._M_data;

  0000e	8b 01		 mov	 eax, DWORD PTR [ecx]
  00010	89 40 08	 mov	 DWORD PTR [eax+8], eax

; 350  :     _M_rightmost() = this->_M_header._M_data;

  00013	8b 09		 mov	 ecx, DWORD PTR [ecx]
  00015	89 49 0c	 mov	 DWORD PTR [ecx+12], ecx

; 351  :   }

  00018	c3		 ret	 0
?_M_empty_initialize@?$_Rb_tree@GU?$pair@$$CBGE@_STL@@U?$_Select1st@U?$pair@$$CBGE@_STL@@@2@U?$less@G@2@V?$allocator@U?$pair@$$CBGE@_STL@@@2@@_STL@@AAEXXZ ENDP ; _STL::_Rb_tree<unsigned short,_STL::pair<unsigned short const ,unsigned char>,_STL::_Select1st<_STL::pair<unsigned short const ,unsigned char> >,_STL::less<unsigned short>,_STL::allocator<_STL::pair<unsigned short const ,unsigned char> > >::_M_empty_initialize
_TEXT	ENDS
PUBLIC	?deallocate@?$allocator@U?$_Rb_tree_node@U?$pair@$$CBGE@_STL@@@_STL@@@_STL@@QAEXPAU?$_Rb_tree_node@U?$pair@$$CBGE@_STL@@@2@I@Z ; _STL::allocator<_STL::_Rb_tree_node<_STL::pair<unsigned short const ,unsigned char> > >::deallocate
; Function compile flags: /Ogty
; File c:\stlport-4.6.1\stlport\stl\_alloc.h
;	COMDAT ?deallocate@?$allocator@U?$_Rb_tree_node@U?$pair@$$CBGE@_STL@@@_STL@@@_STL@@QAEXPAU?$_Rb_tree_node@U?$pair@$$CBGE@_STL@@@2@I@Z
_TEXT	SEGMENT
___p$ = 8						; size = 4
___n$ = 12						; size = 4
?deallocate@?$allocator@U?$_Rb_tree_node@U?$pair@$$CBGE@_STL@@@_STL@@@_STL@@QAEXPAU?$_Rb_tree_node@U?$pair@$$CBGE@_STL@@@2@I@Z PROC NEAR ; _STL::allocator<_STL::_Rb_tree_node<_STL::pair<unsigned short const ,unsigned char> > >::deallocate, COMDAT
; _this$ = ecx

; 359  :     _STLP_ASSERT( (__p == 0) == (__n == 0) )
; 360  :       if (__p != 0) __sgi_alloc::deallocate((void*)__p, __n * sizeof(value_type));

  00000	8b 4c 24 04	 mov	 ecx, DWORD PTR ___p$[esp-4]
  00004	85 c9		 test	 ecx, ecx
  00006	74 27		 je	 SHORT $L79239
  00008	8b 44 24 08	 mov	 eax, DWORD PTR ___n$[esp-4]
  0000c	8d 04 80	 lea	 eax, DWORD PTR [eax+eax*4]
  0000f	c1 e0 02	 shl	 eax, 2
  00012	3d 80 00 00 00	 cmp	 eax, 128		; 00000080H
  00017	76 0c		 jbe	 SHORT $L79238
  00019	51		 push	 ecx
  0001a	e8 00 00 00 00	 call	 ??3@YAXPAX@Z		; operator delete
  0001f	83 c4 04	 add	 esp, 4

; 361  :   }

  00022	c2 08 00	 ret	 8

; 359  :     _STLP_ASSERT( (__p == 0) == (__n == 0) )
; 360  :       if (__p != 0) __sgi_alloc::deallocate((void*)__p, __n * sizeof(value_type));

$L79238:
  00025	50		 push	 eax
  00026	51		 push	 ecx
  00027	e8 00 00 00 00	 call	 ?_M_deallocate@?$__node_alloc@$00$0A@@_STL@@CAXPAXI@Z ; _STL::__node_alloc<1,0>::_M_deallocate
  0002c	83 c4 08	 add	 esp, 8
$L79239:

; 361  :   }

  0002f	c2 08 00	 ret	 8
?deallocate@?$allocator@U?$_Rb_tree_node@U?$pair@$$CBGE@_STL@@@_STL@@@_STL@@QAEXPAU?$_Rb_tree_node@U?$pair@$$CBGE@_STL@@@2@I@Z ENDP ; _STL::allocator<_STL::_Rb_tree_node<_STL::pair<unsigned short const ,unsigned char> > >::deallocate
_TEXT	ENDS
PUBLIC	??0?$_STLP_alloc_proxy@PAU?$_Rb_tree_node@U?$pair@$$CBGE@_STL@@@_STL@@U12@V?$allocator@U?$_Rb_tree_node@U?$pair@$$CBGE@_STL@@@_STL@@@2@@_STL@@QAE@ABV?$allocator@U?$_Rb_tree_node@U?$pair@$$CBGE@_STL@@@_STL@@@1@PAU?$_Rb_tree_node@U?$pair@$$CBGE@_STL@@@1@@Z ; _STL::_STLP_alloc_proxy<_STL::_Rb_tree_node<_STL::pair<unsigned short const ,unsigned char> > *,_STL::_Rb_tree_node<_STL::pair<unsigned short const ,unsigned char> >,_STL::allocator<_STL::_Rb_tree_node<_STL::pair<unsigned short const ,unsigned char> > > >::_STLP_alloc_proxy<_STL::_Rb_tree_node<_STL::pair<unsigned short const ,unsigned char> > *,_STL::_Rb_tree_node<_STL::pair<unsigned short const ,unsigned char> >,_STL::allocator<_STL::_Rb_tree_node<_STL::pair<unsigned short const ,unsigned char> > > >
; Function compile flags: /Ogty
;	COMDAT ??0?$_STLP_alloc_proxy@PAU?$_Rb_tree_node@U?$pair@$$CBGE@_STL@@@_STL@@U12@V?$allocator@U?$_Rb_tree_node@U?$pair@$$CBGE@_STL@@@_STL@@@2@@_STL@@QAE@ABV?$allocator@U?$_Rb_tree_node@U?$pair@$$CBGE@_STL@@@_STL@@@1@PAU?$_Rb_tree_node@U?$pair@$$CBGE@_STL@@@1@@Z
_TEXT	SEGMENT
___a$ = 8						; size = 4
___p$ = 12						; size = 4
??0?$_STLP_alloc_proxy@PAU?$_Rb_tree_node@U?$pair@$$CBGE@_STL@@@_STL@@U12@V?$allocator@U?$_Rb_tree_node@U?$pair@$$CBGE@_STL@@@_STL@@@2@@_STL@@QAE@ABV?$allocator@U?$_Rb_tree_node@U?$pair@$$CBGE@_STL@@@_STL@@@1@PAU?$_Rb_tree_node@U?$pair@$$CBGE@_STL@@@1@@Z PROC NEAR ; _STL::_STLP_alloc_proxy<_STL::_Rb_tree_node<_STL::pair<unsigned short const ,unsigned char> > *,_STL::_Rb_tree_node<_STL::pair<unsigned short const ,unsigned char> >,_STL::allocator<_STL::_Rb_tree_node<_STL::pair<unsigned short const ,unsigned char> > > >::_STLP_alloc_proxy<_STL::_Rb_tree_node<_STL::pair<unsigned short const ,unsigned char> > *,_STL::_Rb_tree_node<_STL::pair<unsigned short const ,unsigned char> >,_STL::allocator<_STL::_Rb_tree_node<_STL::pair<unsigned short const ,unsigned char> > > >, COMDAT
; _this$ = ecx

; 487  :   inline _STLP_alloc_proxy(const _MaybeReboundAlloc& __a, _Value __p) : _MaybeReboundAlloc(__a), _M_data(__p) {}

  00000	8b c1		 mov	 eax, ecx
  00002	8b 4c 24 08	 mov	 ecx, DWORD PTR ___p$[esp-4]
  00006	89 08		 mov	 DWORD PTR [eax], ecx
  00008	c2 08 00	 ret	 8
??0?$_STLP_alloc_proxy@PAU?$_Rb_tree_node@U?$pair@$$CBGE@_STL@@@_STL@@U12@V?$allocator@U?$_Rb_tree_node@U?$pair@$$CBGE@_STL@@@_STL@@@2@@_STL@@QAE@ABV?$allocator@U?$_Rb_tree_node@U?$pair@$$CBGE@_STL@@@_STL@@@1@PAU?$_Rb_tree_node@U?$pair@$$CBGE@_STL@@@1@@Z ENDP ; _STL::_STLP_alloc_proxy<_STL::_Rb_tree_node<_STL::pair<unsigned short const ,unsigned char> > *,_STL::_Rb_tree_node<_STL::pair<unsigned short const ,unsigned char> >,_STL::allocator<_STL::_Rb_tree_node<_STL::pair<unsigned short const ,unsigned char> > > >::_STLP_alloc_proxy<_STL::_Rb_tree_node<_STL::pair<unsigned short const ,unsigned char> > *,_STL::_Rb_tree_node<_STL::pair<unsigned short const ,unsigned char> >,_STL::allocator<_STL::_Rb_tree_node<_STL::pair<unsigned short const ,unsigned char> > > >
_TEXT	ENDS
PUBLIC	?allocate@?$allocator@U?$_Rb_tree_node@U?$pair@$$CBGE@_STL@@@_STL@@@_STL@@QAEPAU?$_Rb_tree_node@U?$pair@$$CBGE@_STL@@@2@IPBX@Z ; _STL::allocator<_STL::_Rb_tree_node<_STL::pair<unsigned short const ,unsigned char> > >::allocate
; Function compile flags: /Ogty
;	COMDAT ?allocate@?$allocator@U?$_Rb_tree_node@U?$pair@$$CBGE@_STL@@@_STL@@@_STL@@QAEPAU?$_Rb_tree_node@U?$pair@$$CBGE@_STL@@@2@IPBX@Z
_TEXT	SEGMENT
___n$ = 8						; size = 4
___formal$ = 12						; size = 4
?allocate@?$allocator@U?$_Rb_tree_node@U?$pair@$$CBGE@_STL@@@_STL@@@_STL@@QAEPAU?$_Rb_tree_node@U?$pair@$$CBGE@_STL@@@2@IPBX@Z PROC NEAR ; _STL::allocator<_STL::_Rb_tree_node<_STL::pair<unsigned short const ,unsigned char> > >::allocate, COMDAT
; _this$ = ecx

; 355  :     return __n != 0 ? __REINTERPRET_CAST(value_type*,__sgi_alloc::allocate(__n * sizeof(value_type))) : 0;

  00000	8b 44 24 04	 mov	 eax, DWORD PTR ___n$[esp-4]
  00004	85 c0		 test	 eax, eax
  00006	74 24		 je	 SHORT $L79247
  00008	8d 04 80	 lea	 eax, DWORD PTR [eax+eax*4]
  0000b	c1 e0 02	 shl	 eax, 2
  0000e	3d 80 00 00 00	 cmp	 eax, 128		; 00000080H
  00013	50		 push	 eax
  00014	76 0b		 jbe	 SHORT $L79256
  00016	e8 00 00 00 00	 call	 ??2@YAPAXI@Z		; operator new
  0001b	83 c4 04	 add	 esp, 4

; 356  :   }

  0001e	c2 08 00	 ret	 8

; 355  :     return __n != 0 ? __REINTERPRET_CAST(value_type*,__sgi_alloc::allocate(__n * sizeof(value_type))) : 0;

$L79256:
  00021	e8 00 00 00 00	 call	 ?_M_allocate@?$__node_alloc@$00$0A@@_STL@@CAPAXI@Z ; _STL::__node_alloc<1,0>::_M_allocate
  00026	83 c4 04	 add	 esp, 4

; 356  :   }

  00029	c2 08 00	 ret	 8
$L79247:

; 355  :     return __n != 0 ? __REINTERPRET_CAST(value_type*,__sgi_alloc::allocate(__n * sizeof(value_type))) : 0;

  0002c	33 c0		 xor	 eax, eax

; 356  :   }

  0002e	c2 08 00	 ret	 8
?allocate@?$allocator@U?$_Rb_tree_node@U?$pair@$$CBGE@_STL@@@_STL@@@_STL@@QAEPAU?$_Rb_tree_node@U?$pair@$$CBGE@_STL@@@2@IPBX@Z ENDP ; _STL::allocator<_STL::_Rb_tree_node<_STL::pair<unsigned short const ,unsigned char> > >::allocate
_TEXT	ENDS
PUBLIC	?_S_key@?$_Rb_tree@GU?$pair@$$CBGE@_STL@@U?$_Select1st@U?$pair@$$CBGE@_STL@@@2@U?$less@G@2@V?$allocator@U?$pair@$$CBGE@_STL@@@2@@_STL@@KAABGPAU?$_Rb_tree_node@U?$pair@$$CBGE@_STL@@@2@@Z ; _STL::_Rb_tree<unsigned short,_STL::pair<unsigned short const ,unsigned char>,_STL::_Select1st<_STL::pair<unsigned short const ,unsigned char> >,_STL::less<unsigned short>,_STL::allocator<_STL::pair<unsigned short const ,unsigned char> > >::_S_key
; Function compile flags: /Ogty
; File c:\stlport-4.6.1\stlport\stl\_tree.h
;	COMDAT ?_S_key@?$_Rb_tree@GU?$pair@$$CBGE@_STL@@U?$_Select1st@U?$pair@$$CBGE@_STL@@@2@U?$less@G@2@V?$allocator@U?$pair@$$CBGE@_STL@@@2@@_STL@@KAABGPAU?$_Rb_tree_node@U?$pair@$$CBGE@_STL@@@2@@Z
_TEXT	SEGMENT
___x$ = 8						; size = 4
?_S_key@?$_Rb_tree@GU?$pair@$$CBGE@_STL@@U?$_Select1st@U?$pair@$$CBGE@_STL@@@2@U?$less@G@2@V?$allocator@U?$pair@$$CBGE@_STL@@@2@@_STL@@KAABGPAU?$_Rb_tree_node@U?$pair@$$CBGE@_STL@@@2@@Z PROC NEAR ; _STL::_Rb_tree<unsigned short,_STL::pair<unsigned short const ,unsigned char>,_STL::_Select1st<_STL::pair<unsigned short const ,unsigned char> >,_STL::less<unsigned short>,_STL::allocator<_STL::pair<unsigned short const ,unsigned char> > >::_S_key, COMDAT

; 280  :     { return _KeyOfValue()(_S_value(__x)); }

  00000	8b 44 24 04	 mov	 eax, DWORD PTR ___x$[esp-4]
  00004	83 c0 10	 add	 eax, 16			; 00000010H
  00007	c3		 ret	 0
?_S_key@?$_Rb_tree@GU?$pair@$$CBGE@_STL@@U?$_Select1st@U?$pair@$$CBGE@_STL@@@2@U?$less@G@2@V?$allocator@U?$pair@$$CBGE@_STL@@@2@@_STL@@KAABGPAU?$_Rb_tree_node@U?$pair@$$CBGE@_STL@@@2@@Z ENDP ; _STL::_Rb_tree<unsigned short,_STL::pair<unsigned short const ,unsigned char>,_STL::_Select1st<_STL::pair<unsigned short const ,unsigned char> >,_STL::less<unsigned short>,_STL::allocator<_STL::pair<unsigned short const ,unsigned char> > >::_S_key
_TEXT	ENDS
PUBLIC	?_M_erase@?$_Rb_tree@GU?$pair@$$CBGE@_STL@@U?$_Select1st@U?$pair@$$CBGE@_STL@@@2@U?$less@G@2@V?$allocator@U?$pair@$$CBGE@_STL@@@2@@_STL@@AAEXPAU?$_Rb_tree_node@U?$pair@$$CBGE@_STL@@@2@@Z ; _STL::_Rb_tree<unsigned short,_STL::pair<unsigned short const ,unsigned char>,_STL::_Select1st<_STL::pair<unsigned short const ,unsigned char> >,_STL::less<unsigned short>,_STL::allocator<_STL::pair<unsigned short const ,unsigned char> > >::_M_erase
; Function compile flags: /Ogty
; File c:\stlport-4.6.1\stlport\stl\_tree.c
;	COMDAT ?_M_erase@?$_Rb_tree@GU?$pair@$$CBGE@_STL@@U?$_Select1st@U?$pair@$$CBGE@_STL@@@2@U?$less@G@2@V?$allocator@U?$pair@$$CBGE@_STL@@@2@@_STL@@AAEXPAU?$_Rb_tree_node@U?$pair@$$CBGE@_STL@@@2@@Z
_TEXT	SEGMENT
___x$ = 8						; size = 4
?_M_erase@?$_Rb_tree@GU?$pair@$$CBGE@_STL@@U?$_Select1st@U?$pair@$$CBGE@_STL@@@2@U?$less@G@2@V?$allocator@U?$pair@$$CBGE@_STL@@@2@@_STL@@AAEXPAU?$_Rb_tree_node@U?$pair@$$CBGE@_STL@@@2@@Z PROC NEAR ; _STL::_Rb_tree<unsigned short,_STL::pair<unsigned short const ,unsigned char>,_STL::_Select1st<_STL::pair<unsigned short const ,unsigned char> >,_STL::less<unsigned short>,_STL::allocator<_STL::pair<unsigned short const ,unsigned char> > >::_M_erase, COMDAT
; _this$ = ecx

; 637  : {

  00000	53		 push	 ebx
  00001	56		 push	 esi

; 638  :                                 // erase without rebalancing
; 639  :   while (__x != 0) {

  00002	8b 74 24 0c	 mov	 esi, DWORD PTR ___x$[esp+4]
  00006	85 f6		 test	 esi, esi
  00008	8b d9		 mov	 ebx, ecx
  0000a	74 24		 je	 SHORT $L77803
  0000c	57		 push	 edi
  0000d	8d 49 00	 npad	 3
$L77802:

; 640  :     _M_erase(_S_right(__x));

  00010	8b 46 0c	 mov	 eax, DWORD PTR [esi+12]
  00013	50		 push	 eax
  00014	8b cb		 mov	 ecx, ebx
  00016	e8 00 00 00 00	 call	 ?_M_erase@?$_Rb_tree@GU?$pair@$$CBGE@_STL@@U?$_Select1st@U?$pair@$$CBGE@_STL@@@2@U?$less@G@2@V?$allocator@U?$pair@$$CBGE@_STL@@@2@@_STL@@AAEXPAU?$_Rb_tree_node@U?$pair@$$CBGE@_STL@@@2@@Z ; _STL::_Rb_tree<unsigned short,_STL::pair<unsigned short const ,unsigned char>,_STL::_Select1st<_STL::pair<unsigned short const ,unsigned char> >,_STL::less<unsigned short>,_STL::allocator<_STL::pair<unsigned short const ,unsigned char> > >::_M_erase

; 641  :     _Link_type __y = _S_left(__x);

  0001b	8b 7e 08	 mov	 edi, DWORD PTR [esi+8]

; 642  :     _STLP_STD::_Destroy(&__x->_M_value_field);
; 643  :     this->_M_header.deallocate(__x,1);

  0001e	6a 14		 push	 20			; 00000014H
  00020	56		 push	 esi
  00021	e8 00 00 00 00	 call	 ?_M_deallocate@?$__node_alloc@$00$0A@@_STL@@CAXPAXI@Z ; _STL::__node_alloc<1,0>::_M_deallocate
  00026	83 c4 08	 add	 esp, 8
  00029	85 ff		 test	 edi, edi

; 644  :     __x = __y;

  0002b	8b f7		 mov	 esi, edi
  0002d	75 e1		 jne	 SHORT $L77802
  0002f	5f		 pop	 edi
$L77803:
  00030	5e		 pop	 esi
  00031	5b		 pop	 ebx

; 645  :   }
; 646  : }

  00032	c2 04 00	 ret	 4
?_M_erase@?$_Rb_tree@GU?$pair@$$CBGE@_STL@@U?$_Select1st@U?$pair@$$CBGE@_STL@@@2@U?$less@G@2@V?$allocator@U?$pair@$$CBGE@_STL@@@2@@_STL@@AAEXPAU?$_Rb_tree_node@U?$pair@$$CBGE@_STL@@@2@@Z ENDP ; _STL::_Rb_tree<unsigned short,_STL::pair<unsigned short const ,unsigned char>,_STL::_Select1st<_STL::pair<unsigned short const ,unsigned char> >,_STL::less<unsigned short>,_STL::allocator<_STL::pair<unsigned short const ,unsigned char> > >::_M_erase
_TEXT	ENDS
PUBLIC	?setstate@?$basic_ios@DV?$char_traits@D@_STL@@@_STL@@QAEXH@Z ; _STL::basic_ios<char,_STL::char_traits<char> >::setstate
; Function compile flags: /Ogty
; File c:\stlport-4.6.1\stlport\stl\_ios.h
;	COMDAT ?setstate@?$basic_ios@DV?$char_traits@D@_STL@@@_STL@@QAEXH@Z
_TEXT	SEGMENT
___state$ = 8						; size = 4
?setstate@?$basic_ios@DV?$char_traits@D@_STL@@@_STL@@QAEXH@Z PROC NEAR ; _STL::basic_ios<char,_STL::char_traits<char> >::setstate, COMDAT
; _this$ = ecx

; 94   :   void setstate(iostate __state) { this->clear(rdstate() | __state); }

  00000	8b 54 24 04	 mov	 edx, DWORD PTR ___state$[esp-4]
  00004	8b 41 08	 mov	 eax, DWORD PTR [ecx+8]
  00007	0b c2		 or	 eax, edx
  00009	8b 51 58	 mov	 edx, DWORD PTR [ecx+88]
  0000c	85 d2		 test	 edx, edx
  0000e	75 03		 jne	 SHORT $L79332
  00010	83 c8 01	 or	 eax, 1
$L79332:
  00013	85 41 14	 test	 DWORD PTR [ecx+20], eax
  00016	89 41 08	 mov	 DWORD PTR [ecx+8], eax
  00019	74 05		 je	 SHORT $L79339
  0001b	e8 00 00 00 00	 call	 ?_M_throw_failure@ios_base@_STL@@IAEXXZ ; _STL::ios_base::_M_throw_failure
$L79339:
  00020	c2 04 00	 ret	 4
?setstate@?$basic_ios@DV?$char_traits@D@_STL@@@_STL@@QAEXH@Z ENDP ; _STL::basic_ios<char,_STL::char_traits<char> >::setstate
_TEXT	ENDS
PUBLIC	?flush@?$basic_ostream@DV?$char_traits@D@_STL@@@_STL@@QAEAAV12@XZ ; _STL::basic_ostream<char,_STL::char_traits<char> >::flush
; Function compile flags: /Ogty
; File c:\stlport-4.6.1\stlport\stl\_ostream.h
;	COMDAT ?flush@?$basic_ostream@DV?$char_traits@D@_STL@@@_STL@@QAEAAV12@XZ
_TEXT	SEGMENT
?flush@?$basic_ostream@DV?$char_traits@D@_STL@@@_STL@@QAEAAV12@XZ PROC NEAR ; _STL::basic_ostream<char,_STL::char_traits<char> >::flush, COMDAT
; _this$ = ecx

; 120  :   _Self& flush() {

  00000	56		 push	 esi
  00001	8b f1		 mov	 esi, ecx

; 121  :     if (this->rdbuf())

  00003	8b 06		 mov	 eax, DWORD PTR [esi]
  00005	8b 48 04	 mov	 ecx, DWORD PTR [eax+4]
  00008	8b 4c 31 58	 mov	 ecx, DWORD PTR [ecx+esi+88]
  0000c	85 c9		 test	 ecx, ecx
  0000e	74 30		 je	 SHORT $L79405

; 122  :       if (this->rdbuf()->pubsync() == -1)

  00010	8b 11		 mov	 edx, DWORD PTR [ecx]
  00012	ff 52 10	 call	 DWORD PTR [edx+16]
  00015	83 f8 ff	 cmp	 eax, -1
  00018	75 26		 jne	 SHORT $L79405

; 123  :         this->setstate(ios_base::badbit);

  0001a	8b 06		 mov	 eax, DWORD PTR [esi]
  0001c	8b 48 04	 mov	 ecx, DWORD PTR [eax+4]
  0001f	8b 44 31 08	 mov	 eax, DWORD PTR [ecx+esi+8]
  00023	8b 54 31 58	 mov	 edx, DWORD PTR [ecx+esi+88]
  00027	03 ce		 add	 ecx, esi
  00029	83 c8 01	 or	 eax, 1
  0002c	85 d2		 test	 edx, edx
  0002e	75 03		 jne	 SHORT $L79394
  00030	83 c8 01	 or	 eax, 1
$L79394:
  00033	85 41 14	 test	 DWORD PTR [ecx+20], eax
  00036	89 41 08	 mov	 DWORD PTR [ecx+8], eax
  00039	74 05		 je	 SHORT $L79405
  0003b	e8 00 00 00 00	 call	 ?_M_throw_failure@ios_base@_STL@@IAEXXZ ; _STL::ios_base::_M_throw_failure
$L79405:

; 124  :     return *this;

  00040	8b c6		 mov	 eax, esi
  00042	5e		 pop	 esi

; 125  :   }

  00043	c3		 ret	 0
?flush@?$basic_ostream@DV?$char_traits@D@_STL@@@_STL@@QAEAAV12@XZ ENDP ; _STL::basic_ostream<char,_STL::char_traits<char> >::flush
_TEXT	ENDS
PUBLIC	??$_M_find@G@?$_Rb_tree@GU?$pair@$$CBGE@_STL@@U?$_Select1st@U?$pair@$$CBGE@_STL@@@2@U?$less@G@2@V?$allocator@U?$pair@$$CBGE@_STL@@@2@@_STL@@ABEPAU?$_Rb_tree_node@U?$pair@$$CBGE@_STL@@@1@ABG@Z ; _STL::_Rb_tree<unsigned short,_STL::pair<unsigned short const ,unsigned char>,_STL::_Select1st<_STL::pair<unsigned short const ,unsigned char> >,_STL::less<unsigned short>,_STL::allocator<_STL::pair<unsigned short const ,unsigned char> > >::_M_find<unsigned short>
; Function compile flags: /Ogty
; File c:\stlport-4.6.1\stlport\stl\_tree.h
;	COMDAT ??$_M_find@G@?$_Rb_tree@GU?$pair@$$CBGE@_STL@@U?$_Select1st@U?$pair@$$CBGE@_STL@@@2@U?$less@G@2@V?$allocator@U?$pair@$$CBGE@_STL@@@2@@_STL@@ABEPAU?$_Rb_tree_node@U?$pair@$$CBGE@_STL@@@1@ABG@Z
_TEXT	SEGMENT
___k$ = 8						; size = 4
??$_M_find@G@?$_Rb_tree@GU?$pair@$$CBGE@_STL@@U?$_Select1st@U?$pair@$$CBGE@_STL@@@2@U?$less@G@2@V?$allocator@U?$pair@$$CBGE@_STL@@@2@@_STL@@ABEPAU?$_Rb_tree_node@U?$pair@$$CBGE@_STL@@@1@ABG@Z PROC NEAR ; _STL::_Rb_tree<unsigned short,_STL::pair<unsigned short const ,unsigned char>,_STL::_Select1st<_STL::pair<unsigned short const ,unsigned char> >,_STL::less<unsigned short>,_STL::allocator<_STL::pair<unsigned short const ,unsigned char> > >::_M_find<unsigned short>, COMDAT
; _this$ = ecx

; 462  : # else
; 463  :   iterator find(const key_type& __x) { return iterator(_M_find(__x)); }
; 464  :   const_iterator find(const key_type& __x) const { return const_iterator(_M_find(__x)); }
; 465  : private:
; 466  :   _Rb_tree_node<_Value>* _M_find(const key_type& __k) const
; 467  : # endif
; 468  :   {
; 469  :     _Link_type __y = this->_M_header._M_data;      // Last node which is not less than __k. 

  00000	8b 01		 mov	 eax, DWORD PTR [ecx]

; 470  :     _Link_type __x = _M_root();      // Current node. 

  00002	8b 48 04	 mov	 ecx, DWORD PTR [eax+4]

; 471  :     
; 472  :     while (__x != 0) 

  00005	85 c9		 test	 ecx, ecx
  00007	57		 push	 edi
  00008	8b 7c 24 08	 mov	 edi, DWORD PTR ___k$[esp]
  0000c	8b d0		 mov	 edx, eax
  0000e	74 19		 je	 SHORT $L78138
  00010	56		 push	 esi
  00011	66 8b 37	 mov	 si, WORD PTR [edi]
$L78137:

; 473  :       if (!_M_key_compare(_S_key(__x), __k))

  00014	66 39 71 10	 cmp	 WORD PTR [ecx+16], si
  00018	72 07		 jb	 SHORT $L78139

; 474  : 	__y = __x, __x = _S_left(__x);

  0001a	8b d1		 mov	 edx, ecx
  0001c	8b 49 08	 mov	 ecx, DWORD PTR [ecx+8]

; 475  :       else

  0001f	eb 03		 jmp	 SHORT $L78140
$L78139:

; 476  : 	__x = _S_right(__x);

  00021	8b 49 0c	 mov	 ecx, DWORD PTR [ecx+12]
$L78140:

; 471  :     
; 472  :     while (__x != 0) 

  00024	85 c9		 test	 ecx, ecx
  00026	75 ec		 jne	 SHORT $L78137
  00028	5e		 pop	 esi
$L78138:

; 477  :     if (__y == this->_M_header._M_data || _M_key_compare(__k, _S_key(__y)))

  00029	3b d0		 cmp	 edx, eax
  0002b	74 0b		 je	 SHORT $L78141
  0002d	66 8b 0f	 mov	 cx, WORD PTR [edi]
  00030	66 3b 4a 10	 cmp	 cx, WORD PTR [edx+16]

; 478  :       __y = this->_M_header._M_data;

  00034	72 02		 jb	 SHORT $L78141

; 479  :     return __y;

  00036	8b c2		 mov	 eax, edx
$L78141:
  00038	5f		 pop	 edi

; 480  :   }

  00039	c2 04 00	 ret	 4
??$_M_find@G@?$_Rb_tree@GU?$pair@$$CBGE@_STL@@U?$_Select1st@U?$pair@$$CBGE@_STL@@@2@U?$less@G@2@V?$allocator@U?$pair@$$CBGE@_STL@@@2@@_STL@@ABEPAU?$_Rb_tree_node@U?$pair@$$CBGE@_STL@@@1@ABG@Z ENDP ; _STL::_Rb_tree<unsigned short,_STL::pair<unsigned short const ,unsigned char>,_STL::_Select1st<_STL::pair<unsigned short const ,unsigned char> >,_STL::less<unsigned short>,_STL::allocator<_STL::pair<unsigned short const ,unsigned char> > >::_M_find<unsigned short>
_TEXT	ENDS
PUBLIC	??$_M_init@DV?$char_traits@D@_STL@@@_STL@@YA_NAAV?$basic_ostream@DV?$char_traits@D@_STL@@@0@@Z ; _STL::_M_init<char,_STL::char_traits<char> >
; Function compile flags: /Ogty
; File c:\stlport-4.6.1\stlport\stl\_ostream.c
;	COMDAT ??$_M_init@DV?$char_traits@D@_STL@@@_STL@@YA_NAAV?$basic_ostream@DV?$char_traits@D@_STL@@@0@@Z
_TEXT	SEGMENT
___str$ = 8						; size = 4
??$_M_init@DV?$char_traits@D@_STL@@@_STL@@YA_NAAV?$basic_ostream@DV?$char_traits@D@_STL@@@0@@Z PROC NEAR ; _STL::_M_init<char,_STL::char_traits<char> >, COMDAT

; 37   : _M_init(basic_ostream<_CharT, _Traits>& __str) {

  00000	56		 push	 esi

; 38   :   if (__str.good()) {

  00001	8b 74 24 08	 mov	 esi, DWORD PTR ___str$[esp]
  00005	8b 06		 mov	 eax, DWORD PTR [esi]
  00007	8b 48 04	 mov	 ecx, DWORD PTR [eax+4]
  0000a	8b 44 31 08	 mov	 eax, DWORD PTR [ecx+esi+8]
  0000e	03 ce		 add	 ecx, esi
  00010	85 c0		 test	 eax, eax
  00012	75 48		 jne	 SHORT $L78172

; 39   :     // boris : check if this is needed !
; 40   :     if (!__str.rdbuf())

  00014	8b 41 58	 mov	 eax, DWORD PTR [ecx+88]
  00017	85 c0		 test	 eax, eax
  00019	75 1d		 jne	 SHORT $L79511

; 41   :       __str.setstate(ios_base::badbit);

  0001b	8b 41 08	 mov	 eax, DWORD PTR [ecx+8]
  0001e	8b 51 58	 mov	 edx, DWORD PTR [ecx+88]
  00021	83 c8 01	 or	 eax, 1
  00024	85 d2		 test	 edx, edx
  00026	75 03		 jne	 SHORT $L79505
  00028	83 c8 01	 or	 eax, 1
$L79505:
  0002b	85 41 14	 test	 DWORD PTR [ecx+20], eax
  0002e	89 41 08	 mov	 DWORD PTR [ecx+8], eax
  00031	74 05		 je	 SHORT $L79511
  00033	e8 00 00 00 00	 call	 ?_M_throw_failure@ios_base@_STL@@IAEXXZ ; _STL::ios_base::_M_throw_failure
$L79511:

; 42   :     if (__str.tie())

  00038	8b 16		 mov	 edx, DWORD PTR [esi]
  0003a	8b 42 04	 mov	 eax, DWORD PTR [edx+4]
  0003d	8b 4c 30 5c	 mov	 ecx, DWORD PTR [eax+esi+92]
  00041	85 c9		 test	 ecx, ecx
  00043	74 05		 je	 SHORT $L78174

; 43   :       __str.tie()->flush();

  00045	e8 00 00 00 00	 call	 ?flush@?$basic_ostream@DV?$char_traits@D@_STL@@@_STL@@QAEAAV12@XZ ; _STL::basic_ostream<char,_STL::char_traits<char> >::flush
$L78174:

; 44   :     return __str.good();

  0004a	8b 0e		 mov	 ecx, DWORD PTR [esi]
  0004c	8b 51 04	 mov	 edx, DWORD PTR [ecx+4]
  0004f	8b 4c 32 08	 mov	 ecx, DWORD PTR [edx+esi+8]
  00053	33 c0		 xor	 eax, eax
  00055	85 c9		 test	 ecx, ecx
  00057	0f 94 c0	 sete	 al
  0005a	5e		 pop	 esi

; 47   : }

  0005b	c3		 ret	 0
$L78172:

; 45   :   } else
; 46   :     return false;

  0005c	32 c0		 xor	 al, al
  0005e	5e		 pop	 esi

; 47   : }

  0005f	c3		 ret	 0
??$_M_init@DV?$char_traits@D@_STL@@@_STL@@YA_NAAV?$basic_ostream@DV?$char_traits@D@_STL@@@0@@Z ENDP ; _STL::_M_init<char,_STL::char_traits<char> >
_TEXT	ENDS
PUBLIC	??$_Construct@U?$pair@$$CBGE@_STL@@U12@@_STL@@YAXPAU?$pair@$$CBGE@0@ABU10@@Z ; _STL::_Construct<_STL::pair<unsigned short const ,unsigned char>,_STL::pair<unsigned short const ,unsigned char> >
; Function compile flags: /Ogty
; File c:\stlport-4.6.1\stlport\stl\_construct.h
;	COMDAT ??$_Construct@U?$pair@$$CBGE@_STL@@U12@@_STL@@YAXPAU?$pair@$$CBGE@0@ABU10@@Z
_TEXT	SEGMENT
___p$ = 8						; size = 4
___val$ = 12						; size = 4
??$_Construct@U?$pair@$$CBGE@_STL@@U12@@_STL@@YAXPAU?$pair@$$CBGE@0@ABU10@@Z PROC NEAR ; _STL::_Construct<_STL::pair<unsigned short const ,unsigned char>,_STL::pair<unsigned short const ,unsigned char> >, COMDAT

; 94   : # ifdef _STLP_DEBUG_UNINITIALIZED
; 95   : 	memset((char*)__p, _STLP_SHRED_BYTE, sizeof(_T1));
; 96   : # endif
; 97   :     _STLP_PLACEMENT_NEW (__p) _T1(__val);

  00000	8b 44 24 04	 mov	 eax, DWORD PTR ___p$[esp-4]
  00004	85 c0		 test	 eax, eax
  00006	74 10		 je	 SHORT $L79530
  00008	8b 4c 24 08	 mov	 ecx, DWORD PTR ___val$[esp-4]
  0000c	66 8b 11	 mov	 dx, WORD PTR [ecx]
  0000f	66 89 10	 mov	 WORD PTR [eax], dx
  00012	8a 49 02	 mov	 cl, BYTE PTR [ecx+2]
  00015	88 48 02	 mov	 BYTE PTR [eax+2], cl
$L79530:

; 98   : }

  00018	c3		 ret	 0
??$_Construct@U?$pair@$$CBGE@_STL@@U12@@_STL@@YAXPAU?$pair@$$CBGE@0@ABU10@@Z ENDP ; _STL::_Construct<_STL::pair<unsigned short const ,unsigned char>,_STL::pair<unsigned short const ,unsigned char> >
_TEXT	ENDS
PUBLIC	??$__copy_aux@PAGPAG@_STL@@YAPAGPAG00ABU__true_type@0@@Z ; _STL::__copy_aux<unsigned short *,unsigned short *>
; Function compile flags: /Ogty
; File c:\stlport-4.6.1\stlport\stl\_algobase.h
;	COMDAT ??$__copy_aux@PAGPAG@_STL@@YAPAGPAG00ABU__true_type@0@@Z
_TEXT	SEGMENT
___first$ = 8						; size = 4
___last$ = 12						; size = 4
___result$ = 16						; size = 4
___formal$ = 20						; size = 4
??$__copy_aux@PAGPAG@_STL@@YAPAGPAG00ABU__true_type@0@@Z PROC NEAR ; _STL::__copy_aux<unsigned short *,unsigned short *>, COMDAT

; 202  :   return __copy_ptrs(__first, __last, __result, 
; 203  :                      _IsOKToMemCpy(_STLP_VALUE_TYPE(__first, _InputIter), 
; 204  :                                    _STLP_VALUE_TYPE(__result, _OutputIter))._Ret());

  00000	8b 44 24 04	 mov	 eax, DWORD PTR ___first$[esp-4]
  00004	56		 push	 esi
  00005	8b 74 24 0c	 mov	 esi, DWORD PTR ___last$[esp]
  00009	3b f0		 cmp	 esi, eax
  0000b	75 06		 jne	 SHORT $L79566
  0000d	8b 44 24 10	 mov	 eax, DWORD PTR ___result$[esp]
  00011	5e		 pop	 esi

; 205  : }

  00012	c3		 ret	 0

; 202  :   return __copy_ptrs(__first, __last, __result, 
; 203  :                      _IsOKToMemCpy(_STLP_VALUE_TYPE(__first, _InputIter), 
; 204  :                                    _STLP_VALUE_TYPE(__result, _OutputIter))._Ret());

$L79566:
  00013	2b f0		 sub	 esi, eax
  00015	56		 push	 esi
  00016	50		 push	 eax
  00017	8b 44 24 18	 mov	 eax, DWORD PTR ___result$[esp+8]
  0001b	50		 push	 eax
  0001c	e8 00 00 00 00	 call	 _memmove
  00021	83 c4 0c	 add	 esp, 12			; 0000000cH
  00024	03 c6		 add	 eax, esi
  00026	5e		 pop	 esi

; 205  : }

  00027	c3		 ret	 0
??$__copy_aux@PAGPAG@_STL@@YAPAGPAG00ABU__true_type@0@@Z ENDP ; _STL::__copy_aux<unsigned short *,unsigned short *>
_TEXT	ENDS
PUBLIC	??1?$_STLP_alloc_proxy@PAGGV?$allocator@G@_STL@@@_STL@@QAE@XZ ; _STL::_STLP_alloc_proxy<unsigned short *,unsigned short,_STL::allocator<unsigned short> >::~_STLP_alloc_proxy<unsigned short *,unsigned short,_STL::allocator<unsigned short> >
; Function compile flags: /Ogty
;	COMDAT ??1?$_STLP_alloc_proxy@PAGGV?$allocator@G@_STL@@@_STL@@QAE@XZ
_TEXT	SEGMENT
??1?$_STLP_alloc_proxy@PAGGV?$allocator@G@_STL@@@_STL@@QAE@XZ PROC NEAR ; _STL::_STLP_alloc_proxy<unsigned short *,unsigned short,_STL::allocator<unsigned short> >::~_STLP_alloc_proxy<unsigned short *,unsigned short,_STL::allocator<unsigned short> >, COMDAT
; _this$ = ecx
  00000	c3		 ret	 0
??1?$_STLP_alloc_proxy@PAGGV?$allocator@G@_STL@@@_STL@@QAE@XZ ENDP ; _STL::_STLP_alloc_proxy<unsigned short *,unsigned short,_STL::allocator<unsigned short> >::~_STLP_alloc_proxy<unsigned short *,unsigned short,_STL::allocator<unsigned short> >
_TEXT	ENDS
PUBLIC	?deallocate@?$allocator@G@_STL@@QAEXPAGI@Z	; _STL::allocator<unsigned short>::deallocate
; Function compile flags: /Ogty
; File c:\stlport-4.6.1\stlport\stl\_alloc.h
;	COMDAT ?deallocate@?$allocator@G@_STL@@QAEXPAGI@Z
_TEXT	SEGMENT
___p$ = 8						; size = 4
___n$ = 12						; size = 4
?deallocate@?$allocator@G@_STL@@QAEXPAGI@Z PROC NEAR	; _STL::allocator<unsigned short>::deallocate, COMDAT
; _this$ = ecx

; 359  :     _STLP_ASSERT( (__p == 0) == (__n == 0) )
; 360  :       if (__p != 0) __sgi_alloc::deallocate((void*)__p, __n * sizeof(value_type));

  00000	8b 4c 24 04	 mov	 ecx, DWORD PTR ___p$[esp-4]
  00004	85 c9		 test	 ecx, ecx
  00006	74 23		 je	 SHORT $L79586
  00008	8b 44 24 08	 mov	 eax, DWORD PTR ___n$[esp-4]
  0000c	03 c0		 add	 eax, eax
  0000e	3d 80 00 00 00	 cmp	 eax, 128		; 00000080H
  00013	76 0c		 jbe	 SHORT $L79585
  00015	51		 push	 ecx
  00016	e8 00 00 00 00	 call	 ??3@YAXPAX@Z		; operator delete
  0001b	83 c4 04	 add	 esp, 4

; 361  :   }

  0001e	c2 08 00	 ret	 8

; 359  :     _STLP_ASSERT( (__p == 0) == (__n == 0) )
; 360  :       if (__p != 0) __sgi_alloc::deallocate((void*)__p, __n * sizeof(value_type));

$L79585:
  00021	50		 push	 eax
  00022	51		 push	 ecx
  00023	e8 00 00 00 00	 call	 ?_M_deallocate@?$__node_alloc@$00$0A@@_STL@@CAXPAXI@Z ; _STL::__node_alloc<1,0>::_M_deallocate
  00028	83 c4 08	 add	 esp, 8
$L79586:

; 361  :   }

  0002b	c2 08 00	 ret	 8
?deallocate@?$allocator@G@_STL@@QAEXPAGI@Z ENDP		; _STL::allocator<unsigned short>::deallocate
_TEXT	ENDS
PUBLIC	?GetKey@KeyAccelerator@@QBEGE@Z			; KeyAccelerator::GetKey
; Function compile flags: /Ogty
; File c:\darkeden\designed_common\project\new - vs_ui\src\keyaccelerator.cpp
;	COMDAT ?GetKey@KeyAccelerator@@QBEGE@Z
_TEXT	SEGMENT
_accel$ = 8						; size = 1
?GetKey@KeyAccelerator@@QBEGE@Z PROC NEAR		; KeyAccelerator::GetKey, COMDAT
; _this$ = ecx

; 206  : 	if (accel < m_Accelerators.capacity())

  00000	8b 51 14	 mov	 edx, DWORD PTR [ecx+20]
  00003	0f b6 44 24 04	 movzx	 eax, BYTE PTR _accel$[esp-4]
  00008	2b 51 0c	 sub	 edx, DWORD PTR [ecx+12]
  0000b	d1 fa		 sar	 edx, 1
  0000d	3b c2		 cmp	 eax, edx
  0000f	73 0a		 jae	 SHORT $L77258

; 207  : 	{	
; 208  : 		return m_Accelerators[accel];

  00011	8b 49 0c	 mov	 ecx, DWORD PTR [ecx+12]
  00014	66 8b 04 41	 mov	 ax, WORD PTR [ecx+eax*2]

; 212  : }

  00018	c2 04 00	 ret	 4
$L77258:

; 209  : 	}
; 210  : 
; 211  : 	return 0;

  0001b	66 33 c0	 xor	 ax, ax

; 212  : }

  0001e	c2 04 00	 ret	 4
?GetKey@KeyAccelerator@@QBEGE@Z ENDP			; KeyAccelerator::GetKey
_TEXT	ENDS
PUBLIC	?end@?$map@GEU?$less@G@_STL@@V?$allocator@U?$pair@$$CBGE@_STL@@@2@@_STL@@QAE?AU?$_Rb_tree_iterator@U?$pair@$$CBGE@_STL@@U?$_Nonconst_traits@U?$pair@$$CBGE@_STL@@@2@@2@XZ ; _STL::map<unsigned short,unsigned char,_STL::less<unsigned short>,_STL::allocator<_STL::pair<unsigned short const ,unsigned char> > >::end
; Function compile flags: /Ogty
; File c:\stlport-4.6.1\stlport\stl\_map.h
;	COMDAT ?end@?$map@GEU?$less@G@_STL@@V?$allocator@U?$pair@$$CBGE@_STL@@@2@@_STL@@QAE?AU?$_Rb_tree_iterator@U?$pair@$$CBGE@_STL@@U?$_Nonconst_traits@U?$pair@$$CBGE@_STL@@@2@@2@XZ
_TEXT	SEGMENT
___$ReturnUdt$ = 8					; size = 4
?end@?$map@GEU?$less@G@_STL@@V?$allocator@U?$pair@$$CBGE@_STL@@@2@@_STL@@QAE?AU?$_Rb_tree_iterator@U?$pair@$$CBGE@_STL@@U?$_Nonconst_traits@U?$pair@$$CBGE@_STL@@@2@@2@XZ PROC NEAR ; _STL::map<unsigned short,unsigned char,_STL::less<unsigned short>,_STL::allocator<_STL::pair<unsigned short const ,unsigned char> > >::end, COMDAT
; _this$ = ecx

; 149  :   iterator end() { return _M_t.end(); }

  00000	8b 09		 mov	 ecx, DWORD PTR [ecx]
  00002	8b 44 24 04	 mov	 eax, DWORD PTR ___$ReturnUdt$[esp-4]
  00006	89 08		 mov	 DWORD PTR [eax], ecx
  00008	c2 04 00	 ret	 4
?end@?$map@GEU?$less@G@_STL@@V?$allocator@U?$pair@$$CBGE@_STL@@@2@@_STL@@QAE?AU?$_Rb_tree_iterator@U?$pair@$$CBGE@_STL@@U?$_Nonconst_traits@U?$pair@$$CBGE@_STL@@@2@@2@XZ ENDP ; _STL::map<unsigned short,unsigned char,_STL::less<unsigned short>,_STL::allocator<_STL::pair<unsigned short const ,unsigned char> > >::end
_TEXT	ENDS
PUBLIC	?end@?$map@GEU?$less@G@_STL@@V?$allocator@U?$pair@$$CBGE@_STL@@@2@@_STL@@QBE?AU?$_Rb_tree_iterator@U?$pair@$$CBGE@_STL@@U?$_Const_traits@U?$pair@$$CBGE@_STL@@@2@@2@XZ ; _STL::map<unsigned short,unsigned char,_STL::less<unsigned short>,_STL::allocator<_STL::pair<unsigned short const ,unsigned char> > >::end
; Function compile flags: /Ogty
;	COMDAT ?end@?$map@GEU?$less@G@_STL@@V?$allocator@U?$pair@$$CBGE@_STL@@@2@@_STL@@QBE?AU?$_Rb_tree_iterator@U?$pair@$$CBGE@_STL@@U?$_Const_traits@U?$pair@$$CBGE@_STL@@@2@@2@XZ
_TEXT	SEGMENT
___$ReturnUdt$ = 8					; size = 4
?end@?$map@GEU?$less@G@_STL@@V?$allocator@U?$pair@$$CBGE@_STL@@@2@@_STL@@QBE?AU?$_Rb_tree_iterator@U?$pair@$$CBGE@_STL@@U?$_Const_traits@U?$pair@$$CBGE@_STL@@@2@@2@XZ PROC NEAR ; _STL::map<unsigned short,unsigned char,_STL::less<unsigned short>,_STL::allocator<_STL::pair<unsigned short const ,unsigned char> > >::end, COMDAT
; _this$ = ecx

; 150  :   const_iterator end() const { return _M_t.end(); }

  00000	8b 09		 mov	 ecx, DWORD PTR [ecx]
  00002	8b 44 24 04	 mov	 eax, DWORD PTR ___$ReturnUdt$[esp-4]
  00006	89 08		 mov	 DWORD PTR [eax], ecx
  00008	c2 04 00	 ret	 4
?end@?$map@GEU?$less@G@_STL@@V?$allocator@U?$pair@$$CBGE@_STL@@@2@@_STL@@QBE?AU?$_Rb_tree_iterator@U?$pair@$$CBGE@_STL@@U?$_Const_traits@U?$pair@$$CBGE@_STL@@@2@@2@XZ ENDP ; _STL::map<unsigned short,unsigned char,_STL::less<unsigned short>,_STL::allocator<_STL::pair<unsigned short const ,unsigned char> > >::end
_TEXT	ENDS
PUBLIC	?clear@?$vector@GV?$allocator@G@_STL@@@_STL@@QAEXXZ ; _STL::vector<unsigned short,_STL::allocator<unsigned short> >::clear
; Function compile flags: /Ogty
; File c:\stlport-4.6.1\stlport\stl\_vector.h
;	COMDAT ?clear@?$vector@GV?$allocator@G@_STL@@@_STL@@QAEXXZ
_TEXT	SEGMENT
?clear@?$vector@GV?$allocator@G@_STL@@@_STL@@QAEXXZ PROC NEAR ; _STL::vector<unsigned short,_STL::allocator<unsigned short> >::clear, COMDAT
; _this$ = ecx

; 487  :   void clear() { 

  00000	57		 push	 edi
  00001	8b f9		 mov	 edi, ecx

; 488  :     erase(begin(), end());

  00003	8b 47 04	 mov	 eax, DWORD PTR [edi+4]
  00006	3b c0		 cmp	 eax, eax
  00008	8b 0f		 mov	 ecx, DWORD PTR [edi]
  0000a	75 05		 jne	 SHORT $L79667
  0000c	89 4f 04	 mov	 DWORD PTR [edi+4], ecx
  0000f	5f		 pop	 edi

; 489  :   }

  00010	c3		 ret	 0

; 488  :     erase(begin(), end());

$L79667:
  00011	56		 push	 esi
  00012	8b f0		 mov	 esi, eax
  00014	2b f0		 sub	 esi, eax
  00016	56		 push	 esi
  00017	50		 push	 eax
  00018	51		 push	 ecx
  00019	e8 00 00 00 00	 call	 _memmove
  0001e	83 c4 0c	 add	 esp, 12			; 0000000cH
  00021	03 c6		 add	 eax, esi
  00023	5e		 pop	 esi
  00024	89 47 04	 mov	 DWORD PTR [edi+4], eax
  00027	5f		 pop	 edi

; 489  :   }

  00028	c3		 ret	 0
?clear@?$vector@GV?$allocator@G@_STL@@@_STL@@QAEXXZ ENDP ; _STL::vector<unsigned short,_STL::allocator<unsigned short> >::clear
_TEXT	ENDS
PUBLIC	?erase@?$_Rb_tree@GU?$pair@$$CBGE@_STL@@U?$_Select1st@U?$pair@$$CBGE@_STL@@@2@U?$less@G@2@V?$allocator@U?$pair@$$CBGE@_STL@@@2@@_STL@@QAEXU?$_Rb_tree_iterator@U?$pair@$$CBGE@_STL@@U?$_Nonconst_traits@U?$pair@$$CBGE@_STL@@@2@@2@@Z ; _STL::_Rb_tree<unsigned short,_STL::pair<unsigned short const ,unsigned char>,_STL::_Select1st<_STL::pair<unsigned short const ,unsigned char> >,_STL::less<unsigned short>,_STL::allocator<_STL::pair<unsigned short const ,unsigned char> > >::erase
EXTRN	?_Rebalance_for_erase@?$_Rb_global@_N@_STL@@SAPAU_Rb_tree_node_base@2@PAU32@AAPAU32@11@Z:NEAR ; _STL::_Rb_global<bool>::_Rebalance_for_erase
; Function compile flags: /Ogty
; File c:\stlport-4.6.1\stlport\stl\_tree.h
;	COMDAT ?erase@?$_Rb_tree@GU?$pair@$$CBGE@_STL@@U?$_Select1st@U?$pair@$$CBGE@_STL@@@2@U?$less@G@2@V?$allocator@U?$pair@$$CBGE@_STL@@@2@@_STL@@QAEXU?$_Rb_tree_iterator@U?$pair@$$CBGE@_STL@@U?$_Nonconst_traits@U?$pair@$$CBGE@_STL@@@2@@2@@Z
_TEXT	SEGMENT
___position$ = 8					; size = 4
?erase@?$_Rb_tree@GU?$pair@$$CBGE@_STL@@U?$_Select1st@U?$pair@$$CBGE@_STL@@@2@U?$less@G@2@V?$allocator@U?$pair@$$CBGE@_STL@@@2@@_STL@@QAEXU?$_Rb_tree_iterator@U?$pair@$$CBGE@_STL@@U?$_Nonconst_traits@U?$pair@$$CBGE@_STL@@@2@@2@@Z PROC NEAR ; _STL::_Rb_tree<unsigned short,_STL::pair<unsigned short const ,unsigned char>,_STL::_Select1st<_STL::pair<unsigned short const ,unsigned char> >,_STL::less<unsigned short>,_STL::allocator<_STL::pair<unsigned short const ,unsigned char> > >::erase, COMDAT
; _this$ = ecx

; 416  :   void erase(iterator __position) {

  00000	56		 push	 esi
  00001	8b f1		 mov	 esi, ecx

; 417  :     _Link_type __y = 
; 418  :       (_Link_type) _Rb_global_inst::_Rebalance_for_erase(__position._M_node,
; 419  : 							 this->_M_header._M_data->_M_parent,
; 420  : 							 this->_M_header._M_data->_M_left,
; 421  : 							 this->_M_header._M_data->_M_right);

  00003	8b 06		 mov	 eax, DWORD PTR [esi]
  00005	8d 48 0c	 lea	 ecx, DWORD PTR [eax+12]
  00008	51		 push	 ecx
  00009	8d 50 08	 lea	 edx, DWORD PTR [eax+8]
  0000c	52		 push	 edx
  0000d	83 c0 04	 add	 eax, 4
  00010	50		 push	 eax
  00011	8b 44 24 14	 mov	 eax, DWORD PTR ___position$[esp+12]
  00015	50		 push	 eax
  00016	e8 00 00 00 00	 call	 ?_Rebalance_for_erase@?$_Rb_global@_N@_STL@@SAPAU_Rb_tree_node_base@2@PAU32@AAPAU32@11@Z ; _STL::_Rb_global<bool>::_Rebalance_for_erase
  0001b	83 c4 10	 add	 esp, 16			; 00000010H

; 422  :     _STLP_STD::_Destroy(&__y->_M_value_field);
; 423  :     this->_M_header.deallocate(__y,1);

  0001e	85 c0		 test	 eax, eax
  00020	74 0b		 je	 SHORT $L79698
  00022	6a 14		 push	 20			; 00000014H
  00024	50		 push	 eax
  00025	e8 00 00 00 00	 call	 ?_M_deallocate@?$__node_alloc@$00$0A@@_STL@@CAXPAXI@Z ; _STL::__node_alloc<1,0>::_M_deallocate
  0002a	83 c4 08	 add	 esp, 8
$L79698:

; 424  :     --_M_node_count;

  0002d	ff 4e 04	 dec	 DWORD PTR [esi+4]
  00030	5e		 pop	 esi

; 425  :   }

  00031	c2 04 00	 ret	 4
?erase@?$_Rb_tree@GU?$pair@$$CBGE@_STL@@U?$_Select1st@U?$pair@$$CBGE@_STL@@@2@U?$less@G@2@V?$allocator@U?$pair@$$CBGE@_STL@@@2@@_STL@@QAEXU?$_Rb_tree_iterator@U?$pair@$$CBGE@_STL@@U?$_Nonconst_traits@U?$pair@$$CBGE@_STL@@@2@@2@@Z ENDP ; _STL::_Rb_tree<unsigned short,_STL::pair<unsigned short const ,unsigned char>,_STL::_Select1st<_STL::pair<unsigned short const ,unsigned char> >,_STL::less<unsigned short>,_STL::allocator<_STL::pair<unsigned short const ,unsigned char> > >::erase
_TEXT	ENDS
PUBLIC	?clear@?$_Rb_tree@GU?$pair@$$CBGE@_STL@@U?$_Select1st@U?$pair@$$CBGE@_STL@@@2@U?$less@G@2@V?$allocator@U?$pair@$$CBGE@_STL@@@2@@_STL@@QAEXXZ ; _STL::_Rb_tree<unsigned short,_STL::pair<unsigned short const ,unsigned char>,_STL::_Select1st<_STL::pair<unsigned short const ,unsigned char> >,_STL::less<unsigned short>,_STL::allocator<_STL::pair<unsigned short const ,unsigned char> > >::clear
; Function compile flags: /Ogty
;	COMDAT ?clear@?$_Rb_tree@GU?$pair@$$CBGE@_STL@@U?$_Select1st@U?$pair@$$CBGE@_STL@@@2@U?$less@G@2@V?$allocator@U?$pair@$$CBGE@_STL@@@2@@_STL@@QAEXXZ
_TEXT	SEGMENT
?clear@?$_Rb_tree@GU?$pair@$$CBGE@_STL@@U?$_Select1st@U?$pair@$$CBGE@_STL@@@2@U?$less@G@2@V?$allocator@U?$pair@$$CBGE@_STL@@@2@@_STL@@QAEXXZ PROC NEAR ; _STL::_Rb_tree<unsigned short,_STL::pair<unsigned short const ,unsigned char>,_STL::_Select1st<_STL::pair<unsigned short const ,unsigned char> >,_STL::less<unsigned short>,_STL::allocator<_STL::pair<unsigned short const ,unsigned char> > >::clear, COMDAT
; _this$ = ecx

; 445  :   void clear() {

  00000	56		 push	 esi
  00001	8b f1		 mov	 esi, ecx

; 446  :     if (_M_node_count != 0) {

  00003	8b 46 04	 mov	 eax, DWORD PTR [esi+4]
  00006	85 c0		 test	 eax, eax
  00008	74 27		 je	 SHORT $L77505

; 447  :       _M_erase(_M_root());

  0000a	8b 06		 mov	 eax, DWORD PTR [esi]
  0000c	8b 48 04	 mov	 ecx, DWORD PTR [eax+4]
  0000f	51		 push	 ecx
  00010	8b ce		 mov	 ecx, esi
  00012	e8 00 00 00 00	 call	 ?_M_erase@?$_Rb_tree@GU?$pair@$$CBGE@_STL@@U?$_Select1st@U?$pair@$$CBGE@_STL@@@2@U?$less@G@2@V?$allocator@U?$pair@$$CBGE@_STL@@@2@@_STL@@AAEXPAU?$_Rb_tree_node@U?$pair@$$CBGE@_STL@@@2@@Z ; _STL::_Rb_tree<unsigned short,_STL::pair<unsigned short const ,unsigned char>,_STL::_Select1st<_STL::pair<unsigned short const ,unsigned char> >,_STL::less<unsigned short>,_STL::allocator<_STL::pair<unsigned short const ,unsigned char> > >::_M_erase

; 448  :       _M_leftmost() = this->_M_header._M_data;

  00017	8b 06		 mov	 eax, DWORD PTR [esi]
  00019	89 40 08	 mov	 DWORD PTR [eax+8], eax

; 449  :       _M_root() = 0;

  0001c	8b 16		 mov	 edx, DWORD PTR [esi]
  0001e	c7 42 04 00 00
	00 00		 mov	 DWORD PTR [edx+4], 0

; 450  :       _M_rightmost() = this->_M_header._M_data;

  00025	8b 06		 mov	 eax, DWORD PTR [esi]
  00027	89 40 0c	 mov	 DWORD PTR [eax+12], eax

; 451  :       _M_node_count = 0;

  0002a	c7 46 04 00 00
	00 00		 mov	 DWORD PTR [esi+4], 0
$L77505:
  00031	5e		 pop	 esi

; 452  :     }
; 453  :   }      

  00032	c3		 ret	 0
?clear@?$_Rb_tree@GU?$pair@$$CBGE@_STL@@U?$_Select1st@U?$pair@$$CBGE@_STL@@@2@U?$less@G@2@V?$allocator@U?$pair@$$CBGE@_STL@@@2@@_STL@@QAEXXZ ENDP ; _STL::_Rb_tree<unsigned short,_STL::pair<unsigned short const ,unsigned char>,_STL::_Select1st<_STL::pair<unsigned short const ,unsigned char> >,_STL::less<unsigned short>,_STL::allocator<_STL::pair<unsigned short const ,unsigned char> > >::clear
_TEXT	ENDS
PUBLIC	??1?$_Rb_tree_base@U?$pair@$$CBGE@_STL@@V?$allocator@U?$pair@$$CBGE@_STL@@@2@@_STL@@QAE@XZ ; _STL::_Rb_tree_base<_STL::pair<unsigned short const ,unsigned char>,_STL::allocator<_STL::pair<unsigned short const ,unsigned char> > >::~_Rb_tree_base<_STL::pair<unsigned short const ,unsigned char>,_STL::allocator<_STL::pair<unsigned short const ,unsigned char> > >
; Function compile flags: /Ogty
;	COMDAT ??1?$_Rb_tree_base@U?$pair@$$CBGE@_STL@@V?$allocator@U?$pair@$$CBGE@_STL@@@2@@_STL@@QAE@XZ
_TEXT	SEGMENT
??1?$_Rb_tree_base@U?$pair@$$CBGE@_STL@@V?$allocator@U?$pair@$$CBGE@_STL@@@2@@_STL@@QAE@XZ PROC NEAR ; _STL::_Rb_tree_base<_STL::pair<unsigned short const ,unsigned char>,_STL::allocator<_STL::pair<unsigned short const ,unsigned char> > >::~_Rb_tree_base<_STL::pair<unsigned short const ,unsigned char>,_STL::allocator<_STL::pair<unsigned short const ,unsigned char> > >, COMDAT
; _this$ = ecx

; 208  :     _M_header.deallocate(_M_header._M_data,1); 

  00000	8b 01		 mov	 eax, DWORD PTR [ecx]
  00002	85 c0		 test	 eax, eax
  00004	74 0b		 je	 SHORT $L79734
  00006	6a 14		 push	 20			; 00000014H
  00008	50		 push	 eax
  00009	e8 00 00 00 00	 call	 ?_M_deallocate@?$__node_alloc@$00$0A@@_STL@@CAXPAXI@Z ; _STL::__node_alloc<1,0>::_M_deallocate
  0000e	83 c4 08	 add	 esp, 8
$L79734:

; 209  :   }

  00011	c3		 ret	 0
??1?$_Rb_tree_base@U?$pair@$$CBGE@_STL@@V?$allocator@U?$pair@$$CBGE@_STL@@@2@@_STL@@QAE@XZ ENDP ; _STL::_Rb_tree_base<_STL::pair<unsigned short const ,unsigned char>,_STL::allocator<_STL::pair<unsigned short const ,unsigned char> > >::~_Rb_tree_base<_STL::pair<unsigned short const ,unsigned char>,_STL::allocator<_STL::pair<unsigned short const ,unsigned char> > >
_TEXT	ENDS
PUBLIC	??0?$_Vector_base@GV?$allocator@G@_STL@@@_STL@@QAE@ABV?$allocator@G@1@@Z ; _STL::_Vector_base<unsigned short,_STL::allocator<unsigned short> >::_Vector_base<unsigned short,_STL::allocator<unsigned short> >
; Function compile flags: /Ogty
; File c:\stlport-4.6.1\stlport\stl\_vector.h
;	COMDAT ??0?$_Vector_base@GV?$allocator@G@_STL@@@_STL@@QAE@ABV?$allocator@G@1@@Z
_TEXT	SEGMENT
___a$ = 8						; size = 4
??0?$_Vector_base@GV?$allocator@G@_STL@@@_STL@@QAE@ABV?$allocator@G@1@@Z PROC NEAR ; _STL::_Vector_base<unsigned short,_STL::allocator<unsigned short> >::_Vector_base<unsigned short,_STL::allocator<unsigned short> >, COMDAT
; _this$ = ecx

; 72   :     : _M_start(0), _M_finish(0), _M_end_of_storage(__a, 0) {

  00000	8b 44 24 04	 mov	 eax, DWORD PTR ___a$[esp-4]
  00004	56		 push	 esi
  00005	8b f1		 mov	 esi, ecx
  00007	6a 00		 push	 0
  00009	50		 push	 eax
  0000a	8d 4e 08	 lea	 ecx, DWORD PTR [esi+8]
  0000d	c7 06 00 00 00
	00		 mov	 DWORD PTR [esi], 0
  00013	c7 46 04 00 00
	00 00		 mov	 DWORD PTR [esi+4], 0
  0001a	e8 00 00 00 00	 call	 ??0?$_STLP_alloc_proxy@PAGGV?$allocator@G@_STL@@@_STL@@QAE@ABV?$allocator@G@1@PAG@Z ; _STL::_STLP_alloc_proxy<unsigned short *,unsigned short,_STL::allocator<unsigned short> >::_STLP_alloc_proxy<unsigned short *,unsigned short,_STL::allocator<unsigned short> >

; 73   :   }

  0001f	8b c6		 mov	 eax, esi
  00021	5e		 pop	 esi
  00022	c2 04 00	 ret	 4
??0?$_Vector_base@GV?$allocator@G@_STL@@@_STL@@QAE@ABV?$allocator@G@1@@Z ENDP ; _STL::_Vector_base<unsigned short,_STL::allocator<unsigned short> >::_Vector_base<unsigned short,_STL::allocator<unsigned short> >
_TEXT	ENDS
PUBLIC	??1?$_Vector_base@GV?$allocator@G@_STL@@@_STL@@QAE@XZ ; _STL::_Vector_base<unsigned short,_STL::allocator<unsigned short> >::~_Vector_base<unsigned short,_STL::allocator<unsigned short> >
; Function compile flags: /Ogty
;	COMDAT ??1?$_Vector_base@GV?$allocator@G@_STL@@@_STL@@QAE@XZ
_TEXT	SEGMENT
??1?$_Vector_base@GV?$allocator@G@_STL@@@_STL@@QAE@XZ PROC NEAR ; _STL::_Vector_base<unsigned short,_STL::allocator<unsigned short> >::~_Vector_base<unsigned short,_STL::allocator<unsigned short> >, COMDAT
; _this$ = ecx

; 84   :     if (_M_start !=0) 

  00000	8b 11		 mov	 edx, DWORD PTR [ecx]
  00002	85 d2		 test	 edx, edx
  00004	74 24		 je	 SHORT $L79762

; 85   :     _M_end_of_storage.deallocate(_M_start, _M_end_of_storage._M_data - _M_start); 

  00006	8b 41 08	 mov	 eax, DWORD PTR [ecx+8]
  00009	2b c2		 sub	 eax, edx
  0000b	d1 f8		 sar	 eax, 1
  0000d	d1 e0		 shl	 eax, 1
  0000f	3d 80 00 00 00	 cmp	 eax, 128		; 00000080H
  00014	76 0a		 jbe	 SHORT $L79761
  00016	52		 push	 edx
  00017	e8 00 00 00 00	 call	 ??3@YAXPAX@Z		; operator delete
  0001c	83 c4 04	 add	 esp, 4

; 86   :   }

  0001f	c3		 ret	 0

; 85   :     _M_end_of_storage.deallocate(_M_start, _M_end_of_storage._M_data - _M_start); 

$L79761:
  00020	50		 push	 eax
  00021	52		 push	 edx
  00022	e8 00 00 00 00	 call	 ?_M_deallocate@?$__node_alloc@$00$0A@@_STL@@CAXPAXI@Z ; _STL::__node_alloc<1,0>::_M_deallocate
  00027	83 c4 08	 add	 esp, 8
$L79762:

; 86   :   }

  0002a	c3		 ret	 0
??1?$_Vector_base@GV?$allocator@G@_STL@@@_STL@@QAE@XZ ENDP ; _STL::_Vector_base<unsigned short,_STL::allocator<unsigned short> >::~_Vector_base<unsigned short,_STL::allocator<unsigned short> >
_TEXT	ENDS
PUBLIC	??0?$_Rb_tree_base@U?$pair@$$CBGE@_STL@@V?$allocator@U?$pair@$$CBGE@_STL@@@2@@_STL@@QAE@ABV?$allocator@U?$pair@$$CBGE@_STL@@@1@@Z ; _STL::_Rb_tree_base<_STL::pair<unsigned short const ,unsigned char>,_STL::allocator<_STL::pair<unsigned short const ,unsigned char> > >::_Rb_tree_base<_STL::pair<unsigned short const ,unsigned char>,_STL::allocator<_STL::pair<unsigned short const ,unsigned char> > >
; Function compile flags: /Ogty
; File c:\stlport-4.6.1\stlport\stl\_tree.h
;	COMDAT ??0?$_Rb_tree_base@U?$pair@$$CBGE@_STL@@V?$allocator@U?$pair@$$CBGE@_STL@@@2@@_STL@@QAE@ABV?$allocator@U?$pair@$$CBGE@_STL@@@1@@Z
_TEXT	SEGMENT
$T79771 = -1						; size = 1
___a$ = 8						; size = 4
??0?$_Rb_tree_base@U?$pair@$$CBGE@_STL@@V?$allocator@U?$pair@$$CBGE@_STL@@@2@@_STL@@QAE@ABV?$allocator@U?$pair@$$CBGE@_STL@@@1@@Z PROC NEAR ; _STL::_Rb_tree_base<_STL::pair<unsigned short const ,unsigned char>,_STL::allocator<_STL::pair<unsigned short const ,unsigned char> > >::_Rb_tree_base<_STL::pair<unsigned short const ,unsigned char>,_STL::allocator<_STL::pair<unsigned short const ,unsigned char> > >, COMDAT
; _this$ = ecx

; 204  :     _M_header(_STLP_CONVERT_ALLOCATOR(__a, _Node), (_Node*)0) { 

  00000	51		 push	 ecx
  00001	56		 push	 esi
  00002	6a 00		 push	 0
  00004	8d 44 24 0b	 lea	 eax, DWORD PTR $T79771[esp+12]
  00008	50		 push	 eax
  00009	8b f1		 mov	 esi, ecx
  0000b	e8 00 00 00 00	 call	 ??0?$_STLP_alloc_proxy@PAU?$_Rb_tree_node@U?$pair@$$CBGE@_STL@@@_STL@@U12@V?$allocator@U?$_Rb_tree_node@U?$pair@$$CBGE@_STL@@@_STL@@@2@@_STL@@QAE@ABV?$allocator@U?$_Rb_tree_node@U?$pair@$$CBGE@_STL@@@_STL@@@1@PAU?$_Rb_tree_node@U?$pair@$$CBGE@_STL@@@1@@Z ; _STL::_STLP_alloc_proxy<_STL::_Rb_tree_node<_STL::pair<unsigned short const ,unsigned char> > *,_STL::_Rb_tree_node<_STL::pair<unsigned short const ,unsigned char> >,_STL::allocator<_STL::_Rb_tree_node<_STL::pair<unsigned short const ,unsigned char> > > >::_STLP_alloc_proxy<_STL::_Rb_tree_node<_STL::pair<unsigned short const ,unsigned char> > *,_STL::_Rb_tree_node<_STL::pair<unsigned short const ,unsigned char> >,_STL::allocator<_STL::_Rb_tree_node<_STL::pair<unsigned short const ,unsigned char> > > >

; 205  :       _M_header._M_data = _M_header.allocate(1); 

  00010	6a 14		 push	 20			; 00000014H
  00012	e8 00 00 00 00	 call	 ?_M_allocate@?$__node_alloc@$00$0A@@_STL@@CAPAXI@Z ; _STL::__node_alloc<1,0>::_M_allocate
  00017	89 06		 mov	 DWORD PTR [esi], eax
  00019	83 c4 04	 add	 esp, 4

; 206  :   }

  0001c	8b c6		 mov	 eax, esi
  0001e	5e		 pop	 esi
  0001f	59		 pop	 ecx
  00020	c2 04 00	 ret	 4
??0?$_Rb_tree_base@U?$pair@$$CBGE@_STL@@V?$allocator@U?$pair@$$CBGE@_STL@@@2@@_STL@@QAE@ABV?$allocator@U?$pair@$$CBGE@_STL@@@1@@Z ENDP ; _STL::_Rb_tree_base<_STL::pair<unsigned short const ,unsigned char>,_STL::allocator<_STL::pair<unsigned short const ,unsigned char> > >::_Rb_tree_base<_STL::pair<unsigned short const ,unsigned char>,_STL::allocator<_STL::pair<unsigned short const ,unsigned char> > >
_TEXT	ENDS
PUBLIC	?_M_lower_bound@?$_Rb_tree@GU?$pair@$$CBGE@_STL@@U?$_Select1st@U?$pair@$$CBGE@_STL@@@2@U?$less@G@2@V?$allocator@U?$pair@$$CBGE@_STL@@@2@@_STL@@ABEPAU?$_Rb_tree_node@U?$pair@$$CBGE@_STL@@@2@ABG@Z ; _STL::_Rb_tree<unsigned short,_STL::pair<unsigned short const ,unsigned char>,_STL::_Select1st<_STL::pair<unsigned short const ,unsigned char> >,_STL::less<unsigned short>,_STL::allocator<_STL::pair<unsigned short const ,unsigned char> > >::_M_lower_bound
; Function compile flags: /Ogty
;	COMDAT ?_M_lower_bound@?$_Rb_tree@GU?$pair@$$CBGE@_STL@@U?$_Select1st@U?$pair@$$CBGE@_STL@@@2@U?$less@G@2@V?$allocator@U?$pair@$$CBGE@_STL@@@2@@_STL@@ABEPAU?$_Rb_tree_node@U?$pair@$$CBGE@_STL@@@2@ABG@Z
_TEXT	SEGMENT
___k$ = 8						; size = 4
?_M_lower_bound@?$_Rb_tree@GU?$pair@$$CBGE@_STL@@U?$_Select1st@U?$pair@$$CBGE@_STL@@@2@U?$less@G@2@V?$allocator@U?$pair@$$CBGE@_STL@@@2@@_STL@@ABEPAU?$_Rb_tree_node@U?$pair@$$CBGE@_STL@@@2@ABG@Z PROC NEAR ; _STL::_Rb_tree<unsigned short,_STL::pair<unsigned short const ,unsigned char>,_STL::_Select1st<_STL::pair<unsigned short const ,unsigned char> >,_STL::less<unsigned short>,_STL::allocator<_STL::pair<unsigned short const ,unsigned char> > >::_M_lower_bound, COMDAT
; _this$ = ecx

; 483  :     _Link_type __y = this->_M_header._M_data; /* Last node which is not less than __k. */

  00000	8b 01		 mov	 eax, DWORD PTR [ecx]

; 484  :     _Link_type __x = _M_root(); /* Current node. */

  00002	8b 48 04	 mov	 ecx, DWORD PTR [eax+4]

; 485  :     
; 486  :     while (__x != 0) 

  00005	85 c9		 test	 ecx, ecx
  00007	74 1b		 je	 SHORT $L77620
  00009	8b 54 24 04	 mov	 edx, DWORD PTR ___k$[esp-4]
  0000d	66 8b 12	 mov	 dx, WORD PTR [edx]
$L77619:

; 487  :       if (!_M_key_compare(_S_key(__x), __k))

  00010	66 39 51 10	 cmp	 WORD PTR [ecx+16], dx
  00014	72 07		 jb	 SHORT $L77621

; 488  : 	__y = __x, __x = _S_left(__x);

  00016	8b c1		 mov	 eax, ecx
  00018	8b 49 08	 mov	 ecx, DWORD PTR [ecx+8]

; 489  :       else

  0001b	eb 03		 jmp	 SHORT $L77622
$L77621:

; 490  : 	__x = _S_right(__x);

  0001d	8b 49 0c	 mov	 ecx, DWORD PTR [ecx+12]
$L77622:

; 485  :     
; 486  :     while (__x != 0) 

  00020	85 c9		 test	 ecx, ecx
  00022	75 ec		 jne	 SHORT $L77619
$L77620:

; 491  :     
; 492  :     return __y;
; 493  :   }

  00024	c2 04 00	 ret	 4
?_M_lower_bound@?$_Rb_tree@GU?$pair@$$CBGE@_STL@@U?$_Select1st@U?$pair@$$CBGE@_STL@@@2@U?$less@G@2@V?$allocator@U?$pair@$$CBGE@_STL@@@2@@_STL@@ABEPAU?$_Rb_tree_node@U?$pair@$$CBGE@_STL@@@2@ABG@Z ENDP ; _STL::_Rb_tree<unsigned short,_STL::pair<unsigned short const ,unsigned char>,_STL::_Select1st<_STL::pair<unsigned short const ,unsigned char> >,_STL::less<unsigned short>,_STL::allocator<_STL::pair<unsigned short const ,unsigned char> > >::_M_lower_bound
_TEXT	ENDS
PUBLIC	??$find@G@?$_Rb_tree@GU?$pair@$$CBGE@_STL@@U?$_Select1st@U?$pair@$$CBGE@_STL@@@2@U?$less@G@2@V?$allocator@U?$pair@$$CBGE@_STL@@@2@@_STL@@QAE?AU?$_Rb_tree_iterator@U?$pair@$$CBGE@_STL@@U?$_Nonconst_traits@U?$pair@$$CBGE@_STL@@@2@@1@ABG@Z ; _STL::_Rb_tree<unsigned short,_STL::pair<unsigned short const ,unsigned char>,_STL::_Select1st<_STL::pair<unsigned short const ,unsigned char> >,_STL::less<unsigned short>,_STL::allocator<_STL::pair<unsigned short const ,unsigned char> > >::find<unsigned short>
; Function compile flags: /Ogty
;	COMDAT ??$find@G@?$_Rb_tree@GU?$pair@$$CBGE@_STL@@U?$_Select1st@U?$pair@$$CBGE@_STL@@@2@U?$less@G@2@V?$allocator@U?$pair@$$CBGE@_STL@@@2@@_STL@@QAE?AU?$_Rb_tree_iterator@U?$pair@$$CBGE@_STL@@U?$_Nonconst_traits@U?$pair@$$CBGE@_STL@@@2@@1@ABG@Z
_TEXT	SEGMENT
___$ReturnUdt$ = 8					; size = 4
___x$ = 12						; size = 4
??$find@G@?$_Rb_tree@GU?$pair@$$CBGE@_STL@@U?$_Select1st@U?$pair@$$CBGE@_STL@@@2@U?$less@G@2@V?$allocator@U?$pair@$$CBGE@_STL@@@2@@_STL@@QAE?AU?$_Rb_tree_iterator@U?$pair@$$CBGE@_STL@@U?$_Nonconst_traits@U?$pair@$$CBGE@_STL@@@2@@1@ABG@Z PROC NEAR ; _STL::_Rb_tree<unsigned short,_STL::pair<unsigned short const ,unsigned char>,_STL::_Select1st<_STL::pair<unsigned short const ,unsigned char> >,_STL::less<unsigned short>,_STL::allocator<_STL::pair<unsigned short const ,unsigned char> > >::find<unsigned short>, COMDAT
; _this$ = ecx

; 458  :   template <class _KT> iterator find(const _KT& __x) { return iterator(_M_find(__x)); }

  00000	8b 44 24 08	 mov	 eax, DWORD PTR ___x$[esp-4]
  00004	50		 push	 eax
  00005	e8 00 00 00 00	 call	 ??$_M_find@G@?$_Rb_tree@GU?$pair@$$CBGE@_STL@@U?$_Select1st@U?$pair@$$CBGE@_STL@@@2@U?$less@G@2@V?$allocator@U?$pair@$$CBGE@_STL@@@2@@_STL@@ABEPAU?$_Rb_tree_node@U?$pair@$$CBGE@_STL@@@1@ABG@Z ; _STL::_Rb_tree<unsigned short,_STL::pair<unsigned short const ,unsigned char>,_STL::_Select1st<_STL::pair<unsigned short const ,unsigned char> >,_STL::less<unsigned short>,_STL::allocator<_STL::pair<unsigned short const ,unsigned char> > >::_M_find<unsigned short>
  0000a	8b 4c 24 04	 mov	 ecx, DWORD PTR ___$ReturnUdt$[esp-4]
  0000e	89 01		 mov	 DWORD PTR [ecx], eax
  00010	8b c1		 mov	 eax, ecx
  00012	c2 08 00	 ret	 8
??$find@G@?$_Rb_tree@GU?$pair@$$CBGE@_STL@@U?$_Select1st@U?$pair@$$CBGE@_STL@@@2@U?$less@G@2@V?$allocator@U?$pair@$$CBGE@_STL@@@2@@_STL@@QAE?AU?$_Rb_tree_iterator@U?$pair@$$CBGE@_STL@@U?$_Nonconst_traits@U?$pair@$$CBGE@_STL@@@2@@1@ABG@Z ENDP ; _STL::_Rb_tree<unsigned short,_STL::pair<unsigned short const ,unsigned char>,_STL::_Select1st<_STL::pair<unsigned short const ,unsigned char> >,_STL::less<unsigned short>,_STL::allocator<_STL::pair<unsigned short const ,unsigned char> > >::find<unsigned short>
_TEXT	ENDS
PUBLIC	??$find@G@?$_Rb_tree@GU?$pair@$$CBGE@_STL@@U?$_Select1st@U?$pair@$$CBGE@_STL@@@2@U?$less@G@2@V?$allocator@U?$pair@$$CBGE@_STL@@@2@@_STL@@QBE?AU?$_Rb_tree_iterator@U?$pair@$$CBGE@_STL@@U?$_Const_traits@U?$pair@$$CBGE@_STL@@@2@@1@ABG@Z ; _STL::_Rb_tree<unsigned short,_STL::pair<unsigned short const ,unsigned char>,_STL::_Select1st<_STL::pair<unsigned short const ,unsigned char> >,_STL::less<unsigned short>,_STL::allocator<_STL::pair<unsigned short const ,unsigned char> > >::find<unsigned short>
; Function compile flags: /Ogty
;	COMDAT ??$find@G@?$_Rb_tree@GU?$pair@$$CBGE@_STL@@U?$_Select1st@U?$pair@$$CBGE@_STL@@@2@U?$less@G@2@V?$allocator@U?$pair@$$CBGE@_STL@@@2@@_STL@@QBE?AU?$_Rb_tree_iterator@U?$pair@$$CBGE@_STL@@U?$_Const_traits@U?$pair@$$CBGE@_STL@@@2@@1@ABG@Z
_TEXT	SEGMENT
___$ReturnUdt$ = 8					; size = 4
___x$ = 12						; size = 4
??$find@G@?$_Rb_tree@GU?$pair@$$CBGE@_STL@@U?$_Select1st@U?$pair@$$CBGE@_STL@@@2@U?$less@G@2@V?$allocator@U?$pair@$$CBGE@_STL@@@2@@_STL@@QBE?AU?$_Rb_tree_iterator@U?$pair@$$CBGE@_STL@@U?$_Const_traits@U?$pair@$$CBGE@_STL@@@2@@1@ABG@Z PROC NEAR ; _STL::_Rb_tree<unsigned short,_STL::pair<unsigned short const ,unsigned char>,_STL::_Select1st<_STL::pair<unsigned short const ,unsigned char> >,_STL::less<unsigned short>,_STL::allocator<_STL::pair<unsigned short const ,unsigned char> > >::find<unsigned short>, COMDAT
; _this$ = ecx

; 459  :   template <class _KT> const_iterator find(const _KT& __x) const { return const_iterator(_M_find(__x)); }

  00000	8b 44 24 08	 mov	 eax, DWORD PTR ___x$[esp-4]
  00004	50		 push	 eax
  00005	e8 00 00 00 00	 call	 ??$_M_find@G@?$_Rb_tree@GU?$pair@$$CBGE@_STL@@U?$_Select1st@U?$pair@$$CBGE@_STL@@@2@U?$less@G@2@V?$allocator@U?$pair@$$CBGE@_STL@@@2@@_STL@@ABEPAU?$_Rb_tree_node@U?$pair@$$CBGE@_STL@@@1@ABG@Z ; _STL::_Rb_tree<unsigned short,_STL::pair<unsigned short const ,unsigned char>,_STL::_Select1st<_STL::pair<unsigned short const ,unsigned char> >,_STL::less<unsigned short>,_STL::allocator<_STL::pair<unsigned short const ,unsigned char> > >::_M_find<unsigned short>
  0000a	8b 4c 24 04	 mov	 ecx, DWORD PTR ___$ReturnUdt$[esp-4]
  0000e	89 01		 mov	 DWORD PTR [ecx], eax
  00010	8b c1		 mov	 eax, ecx
  00012	c2 08 00	 ret	 8
??$find@G@?$_Rb_tree@GU?$pair@$$CBGE@_STL@@U?$_Select1st@U?$pair@$$CBGE@_STL@@@2@U?$less@G@2@V?$allocator@U?$pair@$$CBGE@_STL@@@2@@_STL@@QBE?AU?$_Rb_tree_iterator@U?$pair@$$CBGE@_STL@@U?$_Const_traits@U?$pair@$$CBGE@_STL@@@2@@1@ABG@Z ENDP ; _STL::_Rb_tree<unsigned short,_STL::pair<unsigned short const ,unsigned char>,_STL::_Select1st<_STL::pair<unsigned short const ,unsigned char> >,_STL::less<unsigned short>,_STL::allocator<_STL::pair<unsigned short const ,unsigned char> > >::find<unsigned short>
_TEXT	ENDS
PUBLIC	?_M_clear@?$vector@GV?$allocator@G@_STL@@@_STL@@IAEXXZ ; _STL::vector<unsigned short,_STL::allocator<unsigned short> >::_M_clear
; Function compile flags: /Ogty
; File c:\stlport-4.6.1\stlport\stl\_vector.h
;	COMDAT ?_M_clear@?$vector@GV?$allocator@G@_STL@@@_STL@@IAEXXZ
_TEXT	SEGMENT
?_M_clear@?$vector@GV?$allocator@G@_STL@@@_STL@@IAEXXZ PROC NEAR ; _STL::vector<unsigned short,_STL::allocator<unsigned short> >::_M_clear, COMDAT
; _this$ = ecx

; 494  :     //    if (this->_M_start) {
; 495  :     _Destroy(this->_M_start, this->_M_finish);
; 496  :     this->_M_end_of_storage.deallocate(this->_M_start, this->_M_end_of_storage._M_data - this->_M_start);

  00000	8b 11		 mov	 edx, DWORD PTR [ecx]
  00002	85 d2		 test	 edx, edx
  00004	74 24		 je	 SHORT $L79870
  00006	8b 41 08	 mov	 eax, DWORD PTR [ecx+8]
  00009	2b c2		 sub	 eax, edx
  0000b	d1 f8		 sar	 eax, 1
  0000d	d1 e0		 shl	 eax, 1
  0000f	3d 80 00 00 00	 cmp	 eax, 128		; 00000080H
  00014	76 0a		 jbe	 SHORT $L79869
  00016	52		 push	 edx
  00017	e8 00 00 00 00	 call	 ??3@YAXPAX@Z		; operator delete
  0001c	83 c4 04	 add	 esp, 4

; 497  :     //    }
; 498  :   }

  0001f	c3		 ret	 0

; 494  :     //    if (this->_M_start) {
; 495  :     _Destroy(this->_M_start, this->_M_finish);
; 496  :     this->_M_end_of_storage.deallocate(this->_M_start, this->_M_end_of_storage._M_data - this->_M_start);

$L79869:
  00020	50		 push	 eax
  00021	52		 push	 edx
  00022	e8 00 00 00 00	 call	 ?_M_deallocate@?$__node_alloc@$00$0A@@_STL@@CAXPAXI@Z ; _STL::__node_alloc<1,0>::_M_deallocate
  00027	83 c4 08	 add	 esp, 8
$L79870:

; 497  :     //    }
; 498  :   }

  0002a	c3		 ret	 0
?_M_clear@?$vector@GV?$allocator@G@_STL@@@_STL@@IAEXXZ ENDP ; _STL::vector<unsigned short,_STL::allocator<unsigned short> >::_M_clear
_TEXT	ENDS
PUBLIC	??0sentry@?$basic_ostream@DV?$char_traits@D@_STL@@@_STL@@QAE@AAV12@@Z ; _STL::basic_ostream<char,_STL::char_traits<char> >::sentry::sentry
; Function compile flags: /Ogty
; File c:\stlport-4.6.1\stlport\stl\_ostream.h
;	COMDAT ??0sentry@?$basic_ostream@DV?$char_traits@D@_STL@@@_STL@@QAE@AAV12@@Z
_TEXT	SEGMENT
___str$ = 8						; size = 4
??0sentry@?$basic_ostream@DV?$char_traits@D@_STL@@@_STL@@QAE@AAV12@@Z PROC NEAR ; _STL::basic_ostream<char,_STL::char_traits<char> >::sentry::sentry, COMDAT
; _this$ = ecx

; 165  :       {

  00000	8b 44 24 04	 mov	 eax, DWORD PTR ___str$[esp-4]
  00004	56		 push	 esi
  00005	8b f1		 mov	 esi, ecx
  00007	50		 push	 eax
  00008	89 06		 mov	 DWORD PTR [esi], eax
  0000a	e8 00 00 00 00	 call	 ??$_M_init@DV?$char_traits@D@_STL@@@_STL@@YA_NAAV?$basic_ostream@DV?$char_traits@D@_STL@@@0@@Z ; _STL::_M_init<char,_STL::char_traits<char> >
  0000f	88 46 04	 mov	 BYTE PTR [esi+4], al
  00012	83 c4 04	 add	 esp, 4

; 166  :       }

  00015	8b c6		 mov	 eax, esi
  00017	5e		 pop	 esi
  00018	c2 04 00	 ret	 4
??0sentry@?$basic_ostream@DV?$char_traits@D@_STL@@@_STL@@QAE@AAV12@@Z ENDP ; _STL::basic_ostream<char,_STL::char_traits<char> >::sentry::sentry
_TEXT	ENDS
PUBLIC	??1sentry@?$basic_ostream@DV?$char_traits@D@_STL@@@_STL@@QAE@XZ ; _STL::basic_ostream<char,_STL::char_traits<char> >::sentry::~sentry
; Function compile flags: /Ogty
;	COMDAT ??1sentry@?$basic_ostream@DV?$char_traits@D@_STL@@@_STL@@QAE@XZ
_TEXT	SEGMENT
??1sentry@?$basic_ostream@DV?$char_traits@D@_STL@@@_STL@@QAE@XZ PROC NEAR ; _STL::basic_ostream<char,_STL::char_traits<char> >::sentry::~sentry, COMDAT
; _this$ = ecx

; 169  :         if (_M_str.flags() & ios_base::unitbuf)

  00000	8b 09		 mov	 ecx, DWORD PTR [ecx]
  00002	8b 01		 mov	 eax, DWORD PTR [ecx]
  00004	8b 50 04	 mov	 edx, DWORD PTR [eax+4]
  00007	8b 44 0a 04	 mov	 eax, DWORD PTR [edx+ecx+4]
  0000b	f6 c4 20	 test	 ah, 32			; 00000020H
  0000e	74 05		 je	 SHORT $L77991

; 170  : # ifndef _STLP_INCOMPLETE_EXCEPTION_HEADER 
; 171  :           if (!_STLP_VENDOR_EXCEPT_STD::uncaught_exception())
; 172  : # endif
; 173  :             _M_str.flush();

  00010	e9 00 00 00 00	 jmp	 ?flush@?$basic_ostream@DV?$char_traits@D@_STL@@@_STL@@QAEAAV12@XZ ; _STL::basic_ostream<char,_STL::char_traits<char> >::flush
$L77991:

; 174  :       }

  00015	c3		 ret	 0
??1sentry@?$basic_ostream@DV?$char_traits@D@_STL@@@_STL@@QAE@XZ ENDP ; _STL::basic_ostream<char,_STL::char_traits<char> >::sentry::~sentry
_TEXT	ENDS
PUBLIC	?_M_create_node@?$_Rb_tree@GU?$pair@$$CBGE@_STL@@U?$_Select1st@U?$pair@$$CBGE@_STL@@@2@U?$less@G@2@V?$allocator@U?$pair@$$CBGE@_STL@@@2@@_STL@@IAEPAU?$_Rb_tree_node@U?$pair@$$CBGE@_STL@@@2@ABU?$pair@$$CBGE@2@@Z ; _STL::_Rb_tree<unsigned short,_STL::pair<unsigned short const ,unsigned char>,_STL::_Select1st<_STL::pair<unsigned short const ,unsigned char> >,_STL::less<unsigned short>,_STL::allocator<_STL::pair<unsigned short const ,unsigned char> > >::_M_create_node
; Function compile flags: /Ogty
; File c:\stlport-4.6.1\stlport\stl\_tree.h
;	COMDAT ?_M_create_node@?$_Rb_tree@GU?$pair@$$CBGE@_STL@@U?$_Select1st@U?$pair@$$CBGE@_STL@@@2@U?$less@G@2@V?$allocator@U?$pair@$$CBGE@_STL@@@2@@_STL@@IAEPAU?$_Rb_tree_node@U?$pair@$$CBGE@_STL@@@2@ABU?$pair@$$CBGE@2@@Z
_TEXT	SEGMENT
___x$ = 8						; size = 4
?_M_create_node@?$_Rb_tree@GU?$pair@$$CBGE@_STL@@U?$_Select1st@U?$pair@$$CBGE@_STL@@@2@U?$less@G@2@V?$allocator@U?$pair@$$CBGE@_STL@@@2@@_STL@@IAEPAU?$_Rb_tree_node@U?$pair@$$CBGE@_STL@@@2@ABU?$pair@$$CBGE@2@@Z PROC NEAR ; _STL::_Rb_tree<unsigned short,_STL::pair<unsigned short const ,unsigned char>,_STL::_Select1st<_STL::pair<unsigned short const ,unsigned char> >,_STL::less<unsigned short>,_STL::allocator<_STL::pair<unsigned short const ,unsigned char> > >::_M_create_node, COMDAT
; _this$ = ecx

; 243  :     _Link_type __tmp = this->_M_header.allocate(1);

  00000	6a 14		 push	 20			; 00000014H
  00002	e8 00 00 00 00	 call	 ?_M_allocate@?$__node_alloc@$00$0A@@_STL@@CAPAXI@Z ; _STL::__node_alloc<1,0>::_M_allocate

; 244  :     _STLP_TRY {
; 245  :       _Construct(&__tmp->_M_value_field, __x);

  00007	8d 48 10	 lea	 ecx, DWORD PTR [eax+16]
  0000a	83 c4 04	 add	 esp, 4
  0000d	85 c9		 test	 ecx, ecx
  0000f	74 12		 je	 SHORT $L79931
  00011	56		 push	 esi
  00012	8b 74 24 08	 mov	 esi, DWORD PTR ___x$[esp]
  00016	66 8b 16	 mov	 dx, WORD PTR [esi]
  00019	66 89 11	 mov	 WORD PTR [ecx], dx
  0001c	8a 56 02	 mov	 dl, BYTE PTR [esi+2]
  0001f	88 51 02	 mov	 BYTE PTR [ecx+2], dl
  00022	5e		 pop	 esi
$L79931:

; 246  :     }
; 247  :     _STLP_UNWIND(this->_M_header.deallocate(__tmp,1));
; 248  :     return __tmp;
; 249  :   }

  00023	c2 04 00	 ret	 4
?_M_create_node@?$_Rb_tree@GU?$pair@$$CBGE@_STL@@U?$_Select1st@U?$pair@$$CBGE@_STL@@@2@U?$less@G@2@V?$allocator@U?$pair@$$CBGE@_STL@@@2@@_STL@@IAEPAU?$_Rb_tree_node@U?$pair@$$CBGE@_STL@@@2@ABU?$pair@$$CBGE@2@@Z ENDP ; _STL::_Rb_tree<unsigned short,_STL::pair<unsigned short const ,unsigned char>,_STL::_Select1st<_STL::pair<unsigned short const ,unsigned char> >,_STL::less<unsigned short>,_STL::allocator<_STL::pair<unsigned short const ,unsigned char> > >::_M_create_node
_TEXT	ENDS
PUBLIC	??$__uninitialized_copy@PAGPAG@_STL@@YAPAGPAG00ABU__true_type@0@@Z ; _STL::__uninitialized_copy<unsigned short *,unsigned short *>
; Function compile flags: /Ogty
; File c:\stlport-4.6.1\stlport\stl\_uninitialized.h
;	COMDAT ??$__uninitialized_copy@PAGPAG@_STL@@YAPAGPAG00ABU__true_type@0@@Z
_TEXT	SEGMENT
___first$ = 8						; size = 4
___last$ = 12						; size = 4
___result$ = 16						; size = 4
___formal$ = 20						; size = 4
??$__uninitialized_copy@PAGPAG@_STL@@YAPAGPAG00ABU__true_type@0@@Z PROC NEAR ; _STL::__uninitialized_copy<unsigned short *,unsigned short *>, COMDAT

; 55   :   return __copy_aux(__first, __last, __result, _BothPtrType< _InputIter, _ForwardIter> :: _Ret());

  00000	8b 44 24 04	 mov	 eax, DWORD PTR ___first$[esp-4]
  00004	56		 push	 esi
  00005	8b 74 24 0c	 mov	 esi, DWORD PTR ___last$[esp]
  00009	3b f0		 cmp	 esi, eax
  0000b	75 06		 jne	 SHORT $L79991
  0000d	8b 44 24 10	 mov	 eax, DWORD PTR ___result$[esp]
  00011	5e		 pop	 esi

; 56   : }

  00012	c3		 ret	 0

; 55   :   return __copy_aux(__first, __last, __result, _BothPtrType< _InputIter, _ForwardIter> :: _Ret());

$L79991:
  00013	2b f0		 sub	 esi, eax
  00015	56		 push	 esi
  00016	50		 push	 eax
  00017	8b 44 24 18	 mov	 eax, DWORD PTR ___result$[esp+8]
  0001b	50		 push	 eax
  0001c	e8 00 00 00 00	 call	 _memmove
  00021	83 c4 0c	 add	 esp, 12			; 0000000cH
  00024	03 c6		 add	 eax, esi
  00026	5e		 pop	 esi

; 56   : }

  00027	c3		 ret	 0
??$__uninitialized_copy@PAGPAG@_STL@@YAPAGPAG00ABU__true_type@0@@Z ENDP ; _STL::__uninitialized_copy<unsigned short *,unsigned short *>
_TEXT	ENDS
PUBLIC	?erase@?$map@GEU?$less@G@_STL@@V?$allocator@U?$pair@$$CBGE@_STL@@@2@@_STL@@QAEXU?$_Rb_tree_iterator@U?$pair@$$CBGE@_STL@@U?$_Nonconst_traits@U?$pair@$$CBGE@_STL@@@2@@2@@Z ; _STL::map<unsigned short,unsigned char,_STL::less<unsigned short>,_STL::allocator<_STL::pair<unsigned short const ,unsigned char> > >::erase
; Function compile flags: /Ogty
; File c:\stlport-4.6.1\stlport\stl\_map.h
;	COMDAT ?erase@?$map@GEU?$less@G@_STL@@V?$allocator@U?$pair@$$CBGE@_STL@@@2@@_STL@@QAEXU?$_Rb_tree_iterator@U?$pair@$$CBGE@_STL@@U?$_Nonconst_traits@U?$pair@$$CBGE@_STL@@@2@@2@@Z
_TEXT	SEGMENT
___position$ = 8					; size = 4
?erase@?$map@GEU?$less@G@_STL@@V?$allocator@U?$pair@$$CBGE@_STL@@@2@@_STL@@QAEXU?$_Rb_tree_iterator@U?$pair@$$CBGE@_STL@@U?$_Nonconst_traits@U?$pair@$$CBGE@_STL@@@2@@2@@Z PROC NEAR ; _STL::map<unsigned short,unsigned char,_STL::less<unsigned short>,_STL::allocator<_STL::pair<unsigned short const ,unsigned char> > >::erase, COMDAT
; _this$ = ecx

; 187  :   void erase(iterator __position) { _M_t.erase(__position); }

  00000	56		 push	 esi
  00001	8b f1		 mov	 esi, ecx
  00003	8b 06		 mov	 eax, DWORD PTR [esi]
  00005	8d 48 0c	 lea	 ecx, DWORD PTR [eax+12]
  00008	51		 push	 ecx
  00009	8d 50 08	 lea	 edx, DWORD PTR [eax+8]
  0000c	52		 push	 edx
  0000d	83 c0 04	 add	 eax, 4
  00010	50		 push	 eax
  00011	8b 44 24 14	 mov	 eax, DWORD PTR ___position$[esp+12]
  00015	50		 push	 eax
  00016	e8 00 00 00 00	 call	 ?_Rebalance_for_erase@?$_Rb_global@_N@_STL@@SAPAU_Rb_tree_node_base@2@PAU32@AAPAU32@11@Z ; _STL::_Rb_global<bool>::_Rebalance_for_erase
  0001b	83 c4 10	 add	 esp, 16			; 00000010H
  0001e	85 c0		 test	 eax, eax
  00020	74 0b		 je	 SHORT $L80043
  00022	6a 14		 push	 20			; 00000014H
  00024	50		 push	 eax
  00025	e8 00 00 00 00	 call	 ?_M_deallocate@?$__node_alloc@$00$0A@@_STL@@CAXPAXI@Z ; _STL::__node_alloc<1,0>::_M_deallocate
  0002a	83 c4 08	 add	 esp, 8
$L80043:
  0002d	ff 4e 04	 dec	 DWORD PTR [esi+4]
  00030	5e		 pop	 esi
  00031	c2 04 00	 ret	 4
?erase@?$map@GEU?$less@G@_STL@@V?$allocator@U?$pair@$$CBGE@_STL@@@2@@_STL@@QAEXU?$_Rb_tree_iterator@U?$pair@$$CBGE@_STL@@U?$_Nonconst_traits@U?$pair@$$CBGE@_STL@@@2@@2@@Z ENDP ; _STL::map<unsigned short,unsigned char,_STL::less<unsigned short>,_STL::allocator<_STL::pair<unsigned short const ,unsigned char> > >::erase
_TEXT	ENDS
PUBLIC	?clear@?$map@GEU?$less@G@_STL@@V?$allocator@U?$pair@$$CBGE@_STL@@@2@@_STL@@QAEXXZ ; _STL::map<unsigned short,unsigned char,_STL::less<unsigned short>,_STL::allocator<_STL::pair<unsigned short const ,unsigned char> > >::clear
; Function compile flags: /Ogty
;	COMDAT ?clear@?$map@GEU?$less@G@_STL@@V?$allocator@U?$pair@$$CBGE@_STL@@@2@@_STL@@QAEXXZ
_TEXT	SEGMENT
?clear@?$map@GEU?$less@G@_STL@@V?$allocator@U?$pair@$$CBGE@_STL@@@2@@_STL@@QAEXXZ PROC NEAR ; _STL::map<unsigned short,unsigned char,_STL::less<unsigned short>,_STL::allocator<_STL::pair<unsigned short const ,unsigned char> > >::clear, COMDAT
; _this$ = ecx

; 191  :   void clear() { _M_t.clear(); }

  00000	56		 push	 esi
  00001	8b f1		 mov	 esi, ecx
  00003	8b 46 04	 mov	 eax, DWORD PTR [esi+4]
  00006	85 c0		 test	 eax, eax
  00008	74 27		 je	 SHORT $L80070
  0000a	8b 06		 mov	 eax, DWORD PTR [esi]
  0000c	8b 48 04	 mov	 ecx, DWORD PTR [eax+4]
  0000f	51		 push	 ecx
  00010	8b ce		 mov	 ecx, esi
  00012	e8 00 00 00 00	 call	 ?_M_erase@?$_Rb_tree@GU?$pair@$$CBGE@_STL@@U?$_Select1st@U?$pair@$$CBGE@_STL@@@2@U?$less@G@2@V?$allocator@U?$pair@$$CBGE@_STL@@@2@@_STL@@AAEXPAU?$_Rb_tree_node@U?$pair@$$CBGE@_STL@@@2@@Z ; _STL::_Rb_tree<unsigned short,_STL::pair<unsigned short const ,unsigned char>,_STL::_Select1st<_STL::pair<unsigned short const ,unsigned char> >,_STL::less<unsigned short>,_STL::allocator<_STL::pair<unsigned short const ,unsigned char> > >::_M_erase
  00017	8b 06		 mov	 eax, DWORD PTR [esi]
  00019	89 40 08	 mov	 DWORD PTR [eax+8], eax
  0001c	8b 16		 mov	 edx, DWORD PTR [esi]
  0001e	c7 42 04 00 00
	00 00		 mov	 DWORD PTR [edx+4], 0
  00025	8b 06		 mov	 eax, DWORD PTR [esi]
  00027	89 40 0c	 mov	 DWORD PTR [eax+12], eax
  0002a	c7 46 04 00 00
	00 00		 mov	 DWORD PTR [esi+4], 0
$L80070:
  00031	5e		 pop	 esi
  00032	c3		 ret	 0
?clear@?$map@GEU?$less@G@_STL@@V?$allocator@U?$pair@$$CBGE@_STL@@@2@@_STL@@QAEXXZ ENDP ; _STL::map<unsigned short,unsigned char,_STL::less<unsigned short>,_STL::allocator<_STL::pair<unsigned short const ,unsigned char> > >::clear
_TEXT	ENDS
PUBLIC	?find@?$map@GEU?$less@G@_STL@@V?$allocator@U?$pair@$$CBGE@_STL@@@2@@_STL@@QAE?AU?$_Rb_tree_iterator@U?$pair@$$CBGE@_STL@@U?$_Nonconst_traits@U?$pair@$$CBGE@_STL@@@2@@2@ABG@Z ; _STL::map<unsigned short,unsigned char,_STL::less<unsigned short>,_STL::allocator<_STL::pair<unsigned short const ,unsigned char> > >::find
; Function compile flags: /Ogty
;	COMDAT ?find@?$map@GEU?$less@G@_STL@@V?$allocator@U?$pair@$$CBGE@_STL@@@2@@_STL@@QAE?AU?$_Rb_tree_iterator@U?$pair@$$CBGE@_STL@@U?$_Nonconst_traits@U?$pair@$$CBGE@_STL@@@2@@2@ABG@Z
_TEXT	SEGMENT
___$ReturnUdt$ = 8					; size = 4
___x$ = 12						; size = 4
?find@?$map@GEU?$less@G@_STL@@V?$allocator@U?$pair@$$CBGE@_STL@@@2@@_STL@@QAE?AU?$_Rb_tree_iterator@U?$pair@$$CBGE@_STL@@U?$_Nonconst_traits@U?$pair@$$CBGE@_STL@@@2@@2@ABG@Z PROC NEAR ; _STL::map<unsigned short,unsigned char,_STL::less<unsigned short>,_STL::allocator<_STL::pair<unsigned short const ,unsigned char> > >::find, COMDAT
; _this$ = ecx

; 195  :   iterator find(const key_type& __x) { return _M_t.find(__x); }

  00000	8b 44 24 08	 mov	 eax, DWORD PTR ___x$[esp-4]
  00004	50		 push	 eax
  00005	e8 00 00 00 00	 call	 ??$_M_find@G@?$_Rb_tree@GU?$pair@$$CBGE@_STL@@U?$_Select1st@U?$pair@$$CBGE@_STL@@@2@U?$less@G@2@V?$allocator@U?$pair@$$CBGE@_STL@@@2@@_STL@@ABEPAU?$_Rb_tree_node@U?$pair@$$CBGE@_STL@@@1@ABG@Z ; _STL::_Rb_tree<unsigned short,_STL::pair<unsigned short const ,unsigned char>,_STL::_Select1st<_STL::pair<unsigned short const ,unsigned char> >,_STL::less<unsigned short>,_STL::allocator<_STL::pair<unsigned short const ,unsigned char> > >::_M_find<unsigned short>
  0000a	8b 4c 24 04	 mov	 ecx, DWORD PTR ___$ReturnUdt$[esp-4]
  0000e	89 01		 mov	 DWORD PTR [ecx], eax
  00010	8b c1		 mov	 eax, ecx
  00012	c2 08 00	 ret	 8
?find@?$map@GEU?$less@G@_STL@@V?$allocator@U?$pair@$$CBGE@_STL@@@2@@_STL@@QAE?AU?$_Rb_tree_iterator@U?$pair@$$CBGE@_STL@@U?$_Nonconst_traits@U?$pair@$$CBGE@_STL@@@2@@2@ABG@Z ENDP ; _STL::map<unsigned short,unsigned char,_STL::less<unsigned short>,_STL::allocator<_STL::pair<unsigned short const ,unsigned char> > >::find
_TEXT	ENDS
PUBLIC	?find@?$map@GEU?$less@G@_STL@@V?$allocator@U?$pair@$$CBGE@_STL@@@2@@_STL@@QBE?AU?$_Rb_tree_iterator@U?$pair@$$CBGE@_STL@@U?$_Const_traits@U?$pair@$$CBGE@_STL@@@2@@2@ABG@Z ; _STL::map<unsigned short,unsigned char,_STL::less<unsigned short>,_STL::allocator<_STL::pair<unsigned short const ,unsigned char> > >::find
; Function compile flags: /Ogty
;	COMDAT ?find@?$map@GEU?$less@G@_STL@@V?$allocator@U?$pair@$$CBGE@_STL@@@2@@_STL@@QBE?AU?$_Rb_tree_iterator@U?$pair@$$CBGE@_STL@@U?$_Const_traits@U?$pair@$$CBGE@_STL@@@2@@2@ABG@Z
_TEXT	SEGMENT
___$ReturnUdt$ = 8					; size = 4
___x$ = 12						; size = 4
?find@?$map@GEU?$less@G@_STL@@V?$allocator@U?$pair@$$CBGE@_STL@@@2@@_STL@@QBE?AU?$_Rb_tree_iterator@U?$pair@$$CBGE@_STL@@U?$_Const_traits@U?$pair@$$CBGE@_STL@@@2@@2@ABG@Z PROC NEAR ; _STL::map<unsigned short,unsigned char,_STL::less<unsigned short>,_STL::allocator<_STL::pair<unsigned short const ,unsigned char> > >::find, COMDAT
; _this$ = ecx

; 196  :   const_iterator find(const key_type& __x) const { return _M_t.find(__x); }

  00000	8b 44 24 08	 mov	 eax, DWORD PTR ___x$[esp-4]
  00004	50		 push	 eax
  00005	e8 00 00 00 00	 call	 ??$_M_find@G@?$_Rb_tree@GU?$pair@$$CBGE@_STL@@U?$_Select1st@U?$pair@$$CBGE@_STL@@@2@U?$less@G@2@V?$allocator@U?$pair@$$CBGE@_STL@@@2@@_STL@@ABEPAU?$_Rb_tree_node@U?$pair@$$CBGE@_STL@@@1@ABG@Z ; _STL::_Rb_tree<unsigned short,_STL::pair<unsigned short const ,unsigned char>,_STL::_Select1st<_STL::pair<unsigned short const ,unsigned char> >,_STL::less<unsigned short>,_STL::allocator<_STL::pair<unsigned short const ,unsigned char> > >::_M_find<unsigned short>
  0000a	8b 4c 24 04	 mov	 ecx, DWORD PTR ___$ReturnUdt$[esp-4]
  0000e	89 01		 mov	 DWORD PTR [ecx], eax
  00010	8b c1		 mov	 eax, ecx
  00012	c2 08 00	 ret	 8
?find@?$map@GEU?$less@G@_STL@@V?$allocator@U?$pair@$$CBGE@_STL@@@2@@_STL@@QBE?AU?$_Rb_tree_iterator@U?$pair@$$CBGE@_STL@@U?$_Const_traits@U?$pair@$$CBGE@_STL@@@2@@2@ABG@Z ENDP ; _STL::map<unsigned short,unsigned char,_STL::less<unsigned short>,_STL::allocator<_STL::pair<unsigned short const ,unsigned char> > >::find
_TEXT	ENDS
PUBLIC	??1?$_Rb_tree@GU?$pair@$$CBGE@_STL@@U?$_Select1st@U?$pair@$$CBGE@_STL@@@2@U?$less@G@2@V?$allocator@U?$pair@$$CBGE@_STL@@@2@@_STL@@QAE@XZ ; _STL::_Rb_tree<unsigned short,_STL::pair<unsigned short const ,unsigned char>,_STL::_Select1st<_STL::pair<unsigned short const ,unsigned char> >,_STL::less<unsigned short>,_STL::allocator<_STL::pair<unsigned short const ,unsigned char> > >::~_Rb_tree<unsigned short,_STL::pair<unsigned short const ,unsigned char>,_STL::_Select1st<_STL::pair<unsigned short const ,unsigned char> >,_STL::less<unsigned short>,_STL::allocator<_STL::pair<unsigned short const ,unsigned char> > >
EXTRN	__except_list:DWORD
EXTRN	___CxxFrameHandler:NEAR
;	COMDAT xdata$x
; File c:\stlport-4.6.1\stlport\stl\_new.h
xdata$x	SEGMENT
$T80161	DD	0ffffffffH
	DD	FLAT:$L80098
$T80158	DD	019930520H
	DD	01H
	DD	FLAT:$T80161
	DD	2 DUP(00H)
	DD	2 DUP(00H)
; Function compile flags: /Ogty
; File c:\stlport-4.6.1\stlport\stl\_tree.h
xdata$x	ENDS
;	COMDAT ??1?$_Rb_tree@GU?$pair@$$CBGE@_STL@@U?$_Select1st@U?$pair@$$CBGE@_STL@@@2@U?$less@G@2@V?$allocator@U?$pair@$$CBGE@_STL@@@2@@_STL@@QAE@XZ
_TEXT	SEGMENT
_this$ = -16						; size = 4
__$EHRec$ = -12						; size = 12
??1?$_Rb_tree@GU?$pair@$$CBGE@_STL@@U?$_Select1st@U?$pair@$$CBGE@_STL@@@2@U?$less@G@2@V?$allocator@U?$pair@$$CBGE@_STL@@@2@@_STL@@QAE@XZ PROC NEAR ; _STL::_Rb_tree<unsigned short,_STL::pair<unsigned short const ,unsigned char>,_STL::_Select1st<_STL::pair<unsigned short const ,unsigned char> >,_STL::less<unsigned short>,_STL::allocator<_STL::pair<unsigned short const ,unsigned char> > >::~_Rb_tree<unsigned short,_STL::pair<unsigned short const ,unsigned char>,_STL::_Select1st<_STL::pair<unsigned short const ,unsigned char> >,_STL::less<unsigned short>,_STL::allocator<_STL::pair<unsigned short const ,unsigned char> > >, COMDAT
; _this$ = ecx

; 341  :   ~_Rb_tree() { clear(); }

  00000	6a ff		 push	 -1
  00002	68 00 00 00 00	 push	 __ehhandler$??1?$_Rb_tree@GU?$pair@$$CBGE@_STL@@U?$_Select1st@U?$pair@$$CBGE@_STL@@@2@U?$less@G@2@V?$allocator@U?$pair@$$CBGE@_STL@@@2@@_STL@@QAE@XZ
  00007	64 a1 00 00 00
	00		 mov	 eax, DWORD PTR fs:__except_list
  0000d	50		 push	 eax
  0000e	64 89 25 00 00
	00 00		 mov	 DWORD PTR fs:__except_list, esp
  00015	51		 push	 ecx
  00016	56		 push	 esi
  00017	8b f1		 mov	 esi, ecx
  00019	89 74 24 04	 mov	 DWORD PTR _this$[esp+20], esi
  0001d	8b 46 04	 mov	 eax, DWORD PTR [esi+4]
  00020	85 c0		 test	 eax, eax
  00022	c7 44 24 10 00
	00 00 00	 mov	 DWORD PTR __$EHRec$[esp+28], 0
  0002a	74 27		 je	 SHORT $L80122
  0002c	8b 06		 mov	 eax, DWORD PTR [esi]
  0002e	8b 48 04	 mov	 ecx, DWORD PTR [eax+4]
  00031	51		 push	 ecx
  00032	8b ce		 mov	 ecx, esi
  00034	e8 00 00 00 00	 call	 ?_M_erase@?$_Rb_tree@GU?$pair@$$CBGE@_STL@@U?$_Select1st@U?$pair@$$CBGE@_STL@@@2@U?$less@G@2@V?$allocator@U?$pair@$$CBGE@_STL@@@2@@_STL@@AAEXPAU?$_Rb_tree_node@U?$pair@$$CBGE@_STL@@@2@@Z ; _STL::_Rb_tree<unsigned short,_STL::pair<unsigned short const ,unsigned char>,_STL::_Select1st<_STL::pair<unsigned short const ,unsigned char> >,_STL::less<unsigned short>,_STL::allocator<_STL::pair<unsigned short const ,unsigned char> > >::_M_erase
  00039	8b 06		 mov	 eax, DWORD PTR [esi]
  0003b	89 40 08	 mov	 DWORD PTR [eax+8], eax
  0003e	8b 16		 mov	 edx, DWORD PTR [esi]
  00040	c7 42 04 00 00
	00 00		 mov	 DWORD PTR [edx+4], 0
  00047	8b 06		 mov	 eax, DWORD PTR [esi]
  00049	89 40 0c	 mov	 DWORD PTR [eax+12], eax
  0004c	c7 46 04 00 00
	00 00		 mov	 DWORD PTR [esi+4], 0
$L80122:
  00053	8b 36		 mov	 esi, DWORD PTR [esi]
  00055	85 f6		 test	 esi, esi
  00057	c7 44 24 10 ff
	ff ff ff	 mov	 DWORD PTR __$EHRec$[esp+28], -1
  0005f	74 0b		 je	 SHORT $L80153
  00061	6a 14		 push	 20			; 00000014H
  00063	56		 push	 esi
  00064	e8 00 00 00 00	 call	 ?_M_deallocate@?$__node_alloc@$00$0A@@_STL@@CAXPAXI@Z ; _STL::__node_alloc<1,0>::_M_deallocate
  00069	83 c4 08	 add	 esp, 8
$L80153:
  0006c	8b 4c 24 08	 mov	 ecx, DWORD PTR __$EHRec$[esp+20]
  00070	5e		 pop	 esi
  00071	64 89 0d 00 00
	00 00		 mov	 DWORD PTR fs:__except_list, ecx
  00078	83 c4 10	 add	 esp, 16			; 00000010H
  0007b	c3		 ret	 0
_TEXT	ENDS
;	COMDAT text$x
text$x	SEGMENT
$L80098:
  00000	8b 4d f0	 mov	 ecx, DWORD PTR _this$[ebp]
  00003	e9 00 00 00 00	 jmp	 ??1?$_Rb_tree_base@U?$pair@$$CBGE@_STL@@V?$allocator@U?$pair@$$CBGE@_STL@@@2@@_STL@@QAE@XZ ; _STL::_Rb_tree_base<_STL::pair<unsigned short const ,unsigned char>,_STL::allocator<_STL::pair<unsigned short const ,unsigned char> > >::~_Rb_tree_base<_STL::pair<unsigned short const ,unsigned char>,_STL::allocator<_STL::pair<unsigned short const ,unsigned char> > >
__ehhandler$??1?$_Rb_tree@GU?$pair@$$CBGE@_STL@@U?$_Select1st@U?$pair@$$CBGE@_STL@@@2@U?$less@G@2@V?$allocator@U?$pair@$$CBGE@_STL@@@2@@_STL@@QAE@XZ:
  00008	b8 00 00 00 00	 mov	 eax, OFFSET FLAT:$T80158
  0000d	e9 00 00 00 00	 jmp	 ___CxxFrameHandler
text$x	ENDS
??1?$_Rb_tree@GU?$pair@$$CBGE@_STL@@U?$_Select1st@U?$pair@$$CBGE@_STL@@@2@U?$less@G@2@V?$allocator@U?$pair@$$CBGE@_STL@@@2@@_STL@@QAE@XZ ENDP ; _STL::_Rb_tree<unsigned short,_STL::pair<unsigned short const ,unsigned char>,_STL::_Select1st<_STL::pair<unsigned short const ,unsigned char> >,_STL::less<unsigned short>,_STL::allocator<_STL::pair<unsigned short const ,unsigned char> > >::~_Rb_tree<unsigned short,_STL::pair<unsigned short const ,unsigned char>,_STL::_Select1st<_STL::pair<unsigned short const ,unsigned char> >,_STL::less<unsigned short>,_STL::allocator<_STL::pair<unsigned short const ,unsigned char> > >
PUBLIC	??0?$vector@GV?$allocator@G@_STL@@@_STL@@QAE@ABV?$allocator@G@1@@Z ; _STL::vector<unsigned short,_STL::allocator<unsigned short> >::vector<unsigned short,_STL::allocator<unsigned short> >
; Function compile flags: /Ogty
; File c:\stlport-4.6.1\stlport\stl\_vector.h
;	COMDAT ??0?$vector@GV?$allocator@G@_STL@@@_STL@@QAE@ABV?$allocator@G@1@@Z
_TEXT	SEGMENT
___a$ = 8						; size = 4
??0?$vector@GV?$allocator@G@_STL@@@_STL@@QAE@ABV?$allocator@G@1@@Z PROC NEAR ; _STL::vector<unsigned short,_STL::allocator<unsigned short> >::vector<unsigned short,_STL::allocator<unsigned short> >, COMDAT
; _this$ = ecx

; 199  :     _Vector_base<_Tp, _Alloc>(__a) {}

  00000	8b c1		 mov	 eax, ecx
  00002	33 c9		 xor	 ecx, ecx
  00004	89 08		 mov	 DWORD PTR [eax], ecx
  00006	89 48 04	 mov	 DWORD PTR [eax+4], ecx
  00009	89 48 08	 mov	 DWORD PTR [eax+8], ecx
  0000c	c2 04 00	 ret	 4
??0?$vector@GV?$allocator@G@_STL@@@_STL@@QAE@ABV?$allocator@G@1@@Z ENDP ; _STL::vector<unsigned short,_STL::allocator<unsigned short> >::vector<unsigned short,_STL::allocator<unsigned short> >
_TEXT	ENDS
PUBLIC	??1?$vector@GV?$allocator@G@_STL@@@_STL@@QAE@XZ	; _STL::vector<unsigned short,_STL::allocator<unsigned short> >::~vector<unsigned short,_STL::allocator<unsigned short> >
; Function compile flags: /Ogty
;	COMDAT ??1?$vector@GV?$allocator@G@_STL@@@_STL@@QAE@XZ
_TEXT	SEGMENT
??1?$vector@GV?$allocator@G@_STL@@@_STL@@QAE@XZ PROC NEAR ; _STL::vector<unsigned short,_STL::allocator<unsigned short> >::~vector<unsigned short,_STL::allocator<unsigned short> >, COMDAT
; _this$ = ecx

; 258  :   ~vector() { _Destroy(this->_M_start, this->_M_finish); }

  00000	8b 11		 mov	 edx, DWORD PTR [ecx]
  00002	85 d2		 test	 edx, edx
  00004	74 24		 je	 SHORT $L80216
  00006	8b 41 08	 mov	 eax, DWORD PTR [ecx+8]
  00009	2b c2		 sub	 eax, edx
  0000b	d1 f8		 sar	 eax, 1
  0000d	d1 e0		 shl	 eax, 1
  0000f	3d 80 00 00 00	 cmp	 eax, 128		; 00000080H
  00014	76 0a		 jbe	 SHORT $L80215
  00016	52		 push	 edx
  00017	e8 00 00 00 00	 call	 ??3@YAXPAX@Z		; operator delete
  0001c	83 c4 04	 add	 esp, 4
  0001f	c3		 ret	 0
$L80215:
  00020	50		 push	 eax
  00021	52		 push	 edx
  00022	e8 00 00 00 00	 call	 ?_M_deallocate@?$__node_alloc@$00$0A@@_STL@@CAXPAXI@Z ; _STL::__node_alloc<1,0>::_M_deallocate
  00027	83 c4 08	 add	 esp, 8
$L80216:
  0002a	c3		 ret	 0
??1?$vector@GV?$allocator@G@_STL@@@_STL@@QAE@XZ ENDP	; _STL::vector<unsigned short,_STL::allocator<unsigned short> >::~vector<unsigned short,_STL::allocator<unsigned short> >
_TEXT	ENDS
PUBLIC	??0?$_Rb_tree@GU?$pair@$$CBGE@_STL@@U?$_Select1st@U?$pair@$$CBGE@_STL@@@2@U?$less@G@2@V?$allocator@U?$pair@$$CBGE@_STL@@@2@@_STL@@QAE@ABU?$less@G@1@ABV?$allocator@U?$pair@$$CBGE@_STL@@@1@@Z ; _STL::_Rb_tree<unsigned short,_STL::pair<unsigned short const ,unsigned char>,_STL::_Select1st<_STL::pair<unsigned short const ,unsigned char> >,_STL::less<unsigned short>,_STL::allocator<_STL::pair<unsigned short const ,unsigned char> > >::_Rb_tree<unsigned short,_STL::pair<unsigned short const ,unsigned char>,_STL::_Select1st<_STL::pair<unsigned short const ,unsigned char> >,_STL::less<unsigned short>,_STL::allocator<_STL::pair<unsigned short const ,unsigned char> > >
; Function compile flags: /Ogty
; File c:\stlport-4.6.1\stlport\stl\_tree.h
;	COMDAT ??0?$_Rb_tree@GU?$pair@$$CBGE@_STL@@U?$_Select1st@U?$pair@$$CBGE@_STL@@@2@U?$less@G@2@V?$allocator@U?$pair@$$CBGE@_STL@@@2@@_STL@@QAE@ABU?$less@G@1@ABV?$allocator@U?$pair@$$CBGE@_STL@@@1@@Z
_TEXT	SEGMENT
___comp$ = 8						; size = 4
___a$ = 12						; size = 4
??0?$_Rb_tree@GU?$pair@$$CBGE@_STL@@U?$_Select1st@U?$pair@$$CBGE@_STL@@@2@U?$less@G@2@V?$allocator@U?$pair@$$CBGE@_STL@@@2@@_STL@@QAE@ABU?$less@G@1@ABV?$allocator@U?$pair@$$CBGE@_STL@@@1@@Z PROC NEAR ; _STL::_Rb_tree<unsigned short,_STL::pair<unsigned short const ,unsigned char>,_STL::_Select1st<_STL::pair<unsigned short const ,unsigned char> >,_STL::less<unsigned short>,_STL::allocator<_STL::pair<unsigned short const ,unsigned char> > >::_Rb_tree<unsigned short,_STL::pair<unsigned short const ,unsigned char>,_STL::_Select1st<_STL::pair<unsigned short const ,unsigned char> >,_STL::less<unsigned short>,_STL::allocator<_STL::pair<unsigned short const ,unsigned char> > >, COMDAT
; _this$ = ecx

; 325  :     { _M_empty_initialize(); }

  00000	56		 push	 esi
  00001	8b f1		 mov	 esi, ecx
  00003	6a 14		 push	 20			; 00000014H
  00005	c7 06 00 00 00
	00		 mov	 DWORD PTR [esi], 0
  0000b	e8 00 00 00 00	 call	 ?_M_allocate@?$__node_alloc@$00$0A@@_STL@@CAPAXI@Z ; _STL::__node_alloc<1,0>::_M_allocate
  00010	89 06		 mov	 DWORD PTR [esi], eax
  00012	c7 46 04 00 00
	00 00		 mov	 DWORD PTR [esi+4], 0
  00019	c6 00 00	 mov	 BYTE PTR [eax], 0
  0001c	8b 06		 mov	 eax, DWORD PTR [esi]
  0001e	c7 40 04 00 00
	00 00		 mov	 DWORD PTR [eax+4], 0
  00025	8b 06		 mov	 eax, DWORD PTR [esi]
  00027	89 40 08	 mov	 DWORD PTR [eax+8], eax
  0002a	8b 06		 mov	 eax, DWORD PTR [esi]
  0002c	83 c4 04	 add	 esp, 4
  0002f	89 40 0c	 mov	 DWORD PTR [eax+12], eax
  00032	8b c6		 mov	 eax, esi
  00034	5e		 pop	 esi
  00035	c2 08 00	 ret	 8
??0?$_Rb_tree@GU?$pair@$$CBGE@_STL@@U?$_Select1st@U?$pair@$$CBGE@_STL@@@2@U?$less@G@2@V?$allocator@U?$pair@$$CBGE@_STL@@@2@@_STL@@QAE@ABU?$less@G@1@ABV?$allocator@U?$pair@$$CBGE@_STL@@@1@@Z ENDP ; _STL::_Rb_tree<unsigned short,_STL::pair<unsigned short const ,unsigned char>,_STL::_Select1st<_STL::pair<unsigned short const ,unsigned char> >,_STL::less<unsigned short>,_STL::allocator<_STL::pair<unsigned short const ,unsigned char> > >::_Rb_tree<unsigned short,_STL::pair<unsigned short const ,unsigned char>,_STL::_Select1st<_STL::pair<unsigned short const ,unsigned char> >,_STL::less<unsigned short>,_STL::allocator<_STL::pair<unsigned short const ,unsigned char> > >
_TEXT	ENDS
PUBLIC	?lower_bound@?$_Rb_tree@GU?$pair@$$CBGE@_STL@@U?$_Select1st@U?$pair@$$CBGE@_STL@@@2@U?$less@G@2@V?$allocator@U?$pair@$$CBGE@_STL@@@2@@_STL@@QAE?AU?$_Rb_tree_iterator@U?$pair@$$CBGE@_STL@@U?$_Nonconst_traits@U?$pair@$$CBGE@_STL@@@2@@2@ABG@Z ; _STL::_Rb_tree<unsigned short,_STL::pair<unsigned short const ,unsigned char>,_STL::_Select1st<_STL::pair<unsigned short const ,unsigned char> >,_STL::less<unsigned short>,_STL::allocator<_STL::pair<unsigned short const ,unsigned char> > >::lower_bound
; Function compile flags: /Ogty
;	COMDAT ?lower_bound@?$_Rb_tree@GU?$pair@$$CBGE@_STL@@U?$_Select1st@U?$pair@$$CBGE@_STL@@@2@U?$less@G@2@V?$allocator@U?$pair@$$CBGE@_STL@@@2@@_STL@@QAE?AU?$_Rb_tree_iterator@U?$pair@$$CBGE@_STL@@U?$_Nonconst_traits@U?$pair@$$CBGE@_STL@@@2@@2@ABG@Z
_TEXT	SEGMENT
___$ReturnUdt$ = 8					; size = 4
___x$ = 12						; size = 4
?lower_bound@?$_Rb_tree@GU?$pair@$$CBGE@_STL@@U?$_Select1st@U?$pair@$$CBGE@_STL@@@2@U?$less@G@2@V?$allocator@U?$pair@$$CBGE@_STL@@@2@@_STL@@QAE?AU?$_Rb_tree_iterator@U?$pair@$$CBGE@_STL@@U?$_Nonconst_traits@U?$pair@$$CBGE@_STL@@@2@@2@ABG@Z PROC NEAR ; _STL::_Rb_tree<unsigned short,_STL::pair<unsigned short const ,unsigned char>,_STL::_Select1st<_STL::pair<unsigned short const ,unsigned char> >,_STL::less<unsigned short>,_STL::allocator<_STL::pair<unsigned short const ,unsigned char> > >::lower_bound, COMDAT
; _this$ = ecx

; 510  :   iterator lower_bound(const key_type& __x) { return iterator(_M_lower_bound(__x)); }

  00000	8b 09		 mov	 ecx, DWORD PTR [ecx]
  00002	8b 41 04	 mov	 eax, DWORD PTR [ecx+4]
  00005	85 c0		 test	 eax, eax
  00007	74 1b		 je	 SHORT $L80358
  00009	8b 54 24 08	 mov	 edx, DWORD PTR ___x$[esp-4]
  0000d	66 8b 12	 mov	 dx, WORD PTR [edx]
$L80350:
  00010	66 39 50 10	 cmp	 WORD PTR [eax+16], dx
  00014	72 07		 jb	 SHORT $L80352
  00016	8b c8		 mov	 ecx, eax
  00018	8b 40 08	 mov	 eax, DWORD PTR [eax+8]
  0001b	eb 03		 jmp	 SHORT $L80353
$L80352:
  0001d	8b 40 0c	 mov	 eax, DWORD PTR [eax+12]
$L80353:
  00020	85 c0		 test	 eax, eax
  00022	75 ec		 jne	 SHORT $L80350
$L80358:
  00024	8b 44 24 04	 mov	 eax, DWORD PTR ___$ReturnUdt$[esp-4]
  00028	89 08		 mov	 DWORD PTR [eax], ecx
  0002a	c2 08 00	 ret	 8
?lower_bound@?$_Rb_tree@GU?$pair@$$CBGE@_STL@@U?$_Select1st@U?$pair@$$CBGE@_STL@@@2@U?$less@G@2@V?$allocator@U?$pair@$$CBGE@_STL@@@2@@_STL@@QAE?AU?$_Rb_tree_iterator@U?$pair@$$CBGE@_STL@@U?$_Nonconst_traits@U?$pair@$$CBGE@_STL@@@2@@2@ABG@Z ENDP ; _STL::_Rb_tree<unsigned short,_STL::pair<unsigned short const ,unsigned char>,_STL::_Select1st<_STL::pair<unsigned short const ,unsigned char> >,_STL::less<unsigned short>,_STL::allocator<_STL::pair<unsigned short const ,unsigned char> > >::lower_bound
_TEXT	ENDS
PUBLIC	?write@?$basic_ostream@DV?$char_traits@D@_STL@@@_STL@@QAEAAV12@PBDH@Z ; _STL::basic_ostream<char,_STL::char_traits<char> >::write
;	COMDAT xdata$x
; File c:\stlport-4.6.1\stlport\stl\_ios_base.h
xdata$x	SEGMENT
$T80443	DD	0ffffffffH
	DD	FLAT:$L80365
	DD	00H
	DD	00H
	DD	00H
	DD	00H
$T80445	DD	00H
	DD	00H
	DD	00H
	DD	FLAT:$L80364
$T80444	DD	01H
	DD	01H
	DD	02H
	DD	01H
	DD	FLAT:$T80445
$T80439	DD	019930520H
	DD	03H
	DD	FLAT:$T80443
	DD	01H
	DD	FLAT:$T80444
	DD	2 DUP(00H)
; Function compile flags: /Ogty
; File c:\stlport-4.6.1\stlport\stl\_ostream.c
xdata$x	ENDS
;	COMDAT ?write@?$basic_ostream@DV?$char_traits@D@_STL@@@_STL@@QAEAAV12@PBDH@Z
_TEXT	SEGMENT
___sentry$ = -32					; size = 8
_this$ = -24						; size = 4
___failed$ = -17					; size = 1
__$EHRec$ = -16						; size = 16
___s$ = 8						; size = 4
___n$ = 12						; size = 4
?write@?$basic_ostream@DV?$char_traits@D@_STL@@@_STL@@QAEAAV12@PBDH@Z PROC NEAR ; _STL::basic_ostream<char,_STL::char_traits<char> >::write, COMDAT
; _this$ = ecx

; 359  : {

  00000	55		 push	 ebp
  00001	8b ec		 mov	 ebp, esp
  00003	6a ff		 push	 -1
  00005	68 00 00 00 00	 push	 __ehhandler$?write@?$basic_ostream@DV?$char_traits@D@_STL@@@_STL@@QAEAAV12@PBDH@Z
  0000a	64 a1 00 00 00
	00		 mov	 eax, DWORD PTR fs:__except_list
  00010	50		 push	 eax
  00011	64 89 25 00 00
	00 00		 mov	 DWORD PTR fs:__except_list, esp
  00018	83 ec 14	 sub	 esp, 20			; 00000014H
  0001b	53		 push	 ebx
  0001c	56		 push	 esi
  0001d	8b f1		 mov	 esi, ecx
  0001f	57		 push	 edi
  00020	89 65 f0	 mov	 DWORD PTR __$EHRec$[ebp], esp

; 360  :   sentry __sentry(*this);

  00023	56		 push	 esi
  00024	89 75 e8	 mov	 DWORD PTR _this$[ebp], esi
  00027	89 75 e0	 mov	 DWORD PTR ___sentry$[ebp], esi
  0002a	e8 00 00 00 00	 call	 ??$_M_init@DV?$char_traits@D@_STL@@@_STL@@YA_NAAV?$basic_ostream@DV?$char_traits@D@_STL@@@0@@Z ; _STL::_M_init<char,_STL::char_traits<char> >
  0002f	83 c4 04	 add	 esp, 4
  00032	88 45 e4	 mov	 BYTE PTR ___sentry$[ebp+4], al

; 361  :   bool __failed = true;
; 362  : 
; 363  :   if (__sentry) {

  00035	84 c0		 test	 al, al
  00037	b1 01		 mov	 cl, 1
  00039	c7 45 fc 00 00
	00 00		 mov	 DWORD PTR __$EHRec$[ebp+12], 0
  00040	88 4d ef	 mov	 BYTE PTR ___failed$[ebp], cl
  00043	74 3d		 je	 SHORT $L77690

; 364  :     _STLP_TRY {
; 365  :       __failed = this->rdbuf()->sputn(__s, __n) != __n;

  00045	8b 06		 mov	 eax, DWORD PTR [esi]
  00047	8b 7d 0c	 mov	 edi, DWORD PTR ___n$[ebp]
  0004a	88 4d fc	 mov	 BYTE PTR __$EHRec$[ebp+12], cl
  0004d	8b 48 04	 mov	 ecx, DWORD PTR [eax+4]
  00050	8b 4c 31 58	 mov	 ecx, DWORD PTR [ecx+esi+88]
  00054	8b 45 08	 mov	 eax, DWORD PTR ___s$[ebp]
  00057	8b 11		 mov	 edx, DWORD PTR [ecx]
  00059	57		 push	 edi
  0005a	50		 push	 eax
  0005b	ff 52 28	 call	 DWORD PTR [edx+40]
  0005e	3b c7		 cmp	 eax, edi
  00060	0f 95 c1	 setne	 cl
  00063	eb 1d		 jmp	 SHORT $L77690
$L80364:

; 366  :     }
; 367  :     _STLP_CATCH_ALL {
; 368  :       this->_M_handle_exception(ios_base::badbit);

  00065	8b 45 e8	 mov	 eax, DWORD PTR _this$[ebp]
  00068	8b 08		 mov	 ecx, DWORD PTR [eax]
  0006a	8b 49 04	 mov	 ecx, DWORD PTR [ecx+4]
  0006d	6a 01		 push	 1
  0006f	03 c8		 add	 ecx, eax
  00071	e8 00 00 00 00	 call	 ?_M_handle_exception@?$basic_ios@DV?$char_traits@D@_STL@@@_STL@@QAEXH@Z ; _STL::basic_ios<char,_STL::char_traits<char> >::_M_handle_exception

; 369  :     }

  00076	b8 00 00 00 00	 mov	 eax, $L80441
  0007b	c3		 ret	 0
$L80441:
  0007c	8b 75 e8	 mov	 esi, DWORD PTR _this$[ebp]
  0007f	8a 4d ef	 mov	 cl, BYTE PTR ___failed$[ebp]
$L77690:

; 370  :   }
; 371  : 
; 372  :   if (__failed)

  00082	84 c9		 test	 cl, cl
  00084	c7 45 fc 00 00
	00 00		 mov	 DWORD PTR __$EHRec$[ebp+12], 0
  0008b	74 26		 je	 SHORT $L80426

; 373  :     this->setstate(ios_base::badbit);

  0008d	8b 16		 mov	 edx, DWORD PTR [esi]
  0008f	8b 4a 04	 mov	 ecx, DWORD PTR [edx+4]
  00092	8b 44 31 08	 mov	 eax, DWORD PTR [ecx+esi+8]
  00096	8b 54 31 58	 mov	 edx, DWORD PTR [ecx+esi+88]
  0009a	03 ce		 add	 ecx, esi
  0009c	83 c8 01	 or	 eax, 1
  0009f	85 d2		 test	 edx, edx
  000a1	75 03		 jne	 SHORT $L80419
  000a3	83 c8 01	 or	 eax, 1
$L80419:
  000a6	85 41 14	 test	 DWORD PTR [ecx+20], eax
  000a9	89 41 08	 mov	 DWORD PTR [ecx+8], eax
  000ac	74 05		 je	 SHORT $L80426
  000ae	e8 00 00 00 00	 call	 ?_M_throw_failure@ios_base@_STL@@IAEXXZ ; _STL::ios_base::_M_throw_failure
$L80426:

; 374  : 
; 375  :   return *this;

  000b3	8b 06		 mov	 eax, DWORD PTR [esi]
  000b5	8b 48 04	 mov	 ecx, DWORD PTR [eax+4]
  000b8	8b 44 31 04	 mov	 eax, DWORD PTR [ecx+esi+4]
  000bc	f6 c4 20	 test	 ah, 32			; 00000020H
  000bf	c7 45 fc ff ff
	ff ff		 mov	 DWORD PTR __$EHRec$[ebp+12], -1
  000c6	74 07		 je	 SHORT $L80440
  000c8	8b ce		 mov	 ecx, esi
  000ca	e8 00 00 00 00	 call	 ?flush@?$basic_ostream@DV?$char_traits@D@_STL@@@_STL@@QAEAAV12@XZ ; _STL::basic_ostream<char,_STL::char_traits<char> >::flush
$L80440:

; 376  : }

  000cf	8b 4d f4	 mov	 ecx, DWORD PTR __$EHRec$[ebp+4]
  000d2	5f		 pop	 edi
  000d3	8b c6		 mov	 eax, esi
  000d5	5e		 pop	 esi
  000d6	64 89 0d 00 00
	00 00		 mov	 DWORD PTR fs:__except_list, ecx
  000dd	5b		 pop	 ebx
  000de	8b e5		 mov	 esp, ebp
  000e0	5d		 pop	 ebp
  000e1	c2 08 00	 ret	 8
_TEXT	ENDS
;	COMDAT text$x
text$x	SEGMENT
$L80365:
  00000	8d 4d e0	 lea	 ecx, DWORD PTR ___sentry$[ebp]
  00003	e9 00 00 00 00	 jmp	 ??1sentry@?$basic_ostream@DV?$char_traits@D@_STL@@@_STL@@QAE@XZ ; _STL::basic_ostream<char,_STL::char_traits<char> >::sentry::~sentry
__ehhandler$?write@?$basic_ostream@DV?$char_traits@D@_STL@@@_STL@@QAEAAV12@PBDH@Z:
  00008	b8 00 00 00 00	 mov	 eax, OFFSET FLAT:$T80439
  0000d	e9 00 00 00 00	 jmp	 ___CxxFrameHandler
text$x	ENDS
?write@?$basic_ostream@DV?$char_traits@D@_STL@@@_STL@@QAEAAV12@PBDH@Z ENDP ; _STL::basic_ostream<char,_STL::char_traits<char> >::write
PUBLIC	?_M_insert@?$_Rb_tree@GU?$pair@$$CBGE@_STL@@U?$_Select1st@U?$pair@$$CBGE@_STL@@@2@U?$less@G@2@V?$allocator@U?$pair@$$CBGE@_STL@@@2@@_STL@@AAE?AU?$_Rb_tree_iterator@U?$pair@$$CBGE@_STL@@U?$_Nonconst_traits@U?$pair@$$CBGE@_STL@@@2@@2@PAU_Rb_tree_node_base@2@0ABU?$pair@$$CBGE@2@0@Z ; _STL::_Rb_tree<unsigned short,_STL::pair<unsigned short const ,unsigned char>,_STL::_Select1st<_STL::pair<unsigned short const ,unsigned char> >,_STL::less<unsigned short>,_STL::allocator<_STL::pair<unsigned short const ,unsigned char> > >::_M_insert
EXTRN	?_Rebalance@?$_Rb_global@_N@_STL@@SAXPAU_Rb_tree_node_base@2@AAPAU32@@Z:NEAR ; _STL::_Rb_global<bool>::_Rebalance
; Function compile flags: /Ogty
; File c:\stlport-4.6.1\stlport\stl\_tree.c
;	COMDAT ?_M_insert@?$_Rb_tree@GU?$pair@$$CBGE@_STL@@U?$_Select1st@U?$pair@$$CBGE@_STL@@@2@U?$less@G@2@V?$allocator@U?$pair@$$CBGE@_STL@@@2@@_STL@@AAE?AU?$_Rb_tree_iterator@U?$pair@$$CBGE@_STL@@U?$_Nonconst_traits@U?$pair@$$CBGE@_STL@@@2@@2@PAU_Rb_tree_node_base@2@0ABU?$pair@$$CBGE@2@0@Z
_TEXT	SEGMENT
___$ReturnUdt$ = 8					; size = 4
___x_$ = 12						; size = 4
___y_$ = 16						; size = 4
___v$ = 20						; size = 4
___w_$ = 24						; size = 4
?_M_insert@?$_Rb_tree@GU?$pair@$$CBGE@_STL@@U?$_Select1st@U?$pair@$$CBGE@_STL@@@2@U?$less@G@2@V?$allocator@U?$pair@$$CBGE@_STL@@@2@@_STL@@AAE?AU?$_Rb_tree_iterator@U?$pair@$$CBGE@_STL@@U?$_Nonconst_traits@U?$pair@$$CBGE@_STL@@@2@@2@PAU_Rb_tree_node_base@2@0ABU?$pair@$$CBGE@2@0@Z PROC NEAR ; _STL::_Rb_tree<unsigned short,_STL::pair<unsigned short const ,unsigned char>,_STL::_Select1st<_STL::pair<unsigned short const ,unsigned char> >,_STL::less<unsigned short>,_STL::allocator<_STL::pair<unsigned short const ,unsigned char> > >::_M_insert, COMDAT
; _this$ = ecx

; 347  : {

  00000	53		 push	 ebx

; 348  :   _Link_type __w = (_Link_type) __w_;
; 349  :   _Link_type __x = (_Link_type) __x_;
; 350  :   _Link_type __y = (_Link_type) __y_;
; 351  :   _Link_type __z;
; 352  : 
; 353  :   if ( __y == this->_M_header._M_data ||
; 354  :        ( __w == 0 && // If w != 0, the remainder fails to false
; 355  :          ( __x != 0 ||     // If x != 0, the remainder succeeds to true
; 356  :            _M_key_compare( _KeyOfValue()(__v), _S_key(__y) ) )
; 357  : 	 )
; 358  :        ) {

  00001	8b 5c 24 10	 mov	 ebx, DWORD PTR ___y_$[esp]
  00005	56		 push	 esi
  00006	57		 push	 edi
  00007	8b f9		 mov	 edi, ecx
  00009	3b 1f		 cmp	 ebx, DWORD PTR [edi]
  0000b	8b 44 24 1c	 mov	 eax, DWORD PTR ___v$[esp+8]
  0000f	74 32		 je	 SHORT $L78067
  00011	8b 4c 24 20	 mov	 ecx, DWORD PTR ___w_$[esp+8]
  00015	85 c9		 test	 ecx, ecx
  00017	75 11		 jne	 SHORT $L78065
  00019	8b 4c 24 14	 mov	 ecx, DWORD PTR ___x_$[esp+8]
  0001d	85 c9		 test	 ecx, ecx
  0001f	75 22		 jne	 SHORT $L78067
  00021	66 8b 08	 mov	 cx, WORD PTR [eax]
  00024	66 3b 4b 10	 cmp	 cx, WORD PTR [ebx+16]
  00028	72 19		 jb	 SHORT $L78067
$L78065:

; 369  :   }
; 370  :   else {
; 371  :     __z = _M_create_node(__v);

  0002a	50		 push	 eax
  0002b	8b cf		 mov	 ecx, edi
  0002d	e8 00 00 00 00	 call	 ?_M_create_node@?$_Rb_tree@GU?$pair@$$CBGE@_STL@@U?$_Select1st@U?$pair@$$CBGE@_STL@@@2@U?$less@G@2@V?$allocator@U?$pair@$$CBGE@_STL@@@2@@_STL@@IAEPAU?$_Rb_tree_node@U?$pair@$$CBGE@_STL@@@2@ABU?$pair@$$CBGE@2@@Z ; _STL::_Rb_tree<unsigned short,_STL::pair<unsigned short const ,unsigned char>,_STL::_Select1st<_STL::pair<unsigned short const ,unsigned char> >,_STL::less<unsigned short>,_STL::allocator<_STL::pair<unsigned short const ,unsigned char> > >::_M_create_node
  00032	8b f0		 mov	 esi, eax

; 372  :     _S_right(__y) = __z;

  00034	89 73 0c	 mov	 DWORD PTR [ebx+12], esi

; 373  :     if (__y == _M_rightmost())

  00037	8b 07		 mov	 eax, DWORD PTR [edi]
  00039	3b 58 0c	 cmp	 ebx, DWORD PTR [eax+12]
  0003c	75 2a		 jne	 SHORT $L78070

; 374  :       _M_rightmost() = __z;  // maintain _M_rightmost() pointing to max node

  0003e	89 70 0c	 mov	 DWORD PTR [eax+12], esi
  00041	eb 25		 jmp	 SHORT $L78070
$L78067:

; 359  :     
; 360  :     __z = _M_create_node(__v);

  00043	50		 push	 eax
  00044	8b cf		 mov	 ecx, edi
  00046	e8 00 00 00 00	 call	 ?_M_create_node@?$_Rb_tree@GU?$pair@$$CBGE@_STL@@U?$_Select1st@U?$pair@$$CBGE@_STL@@@2@U?$less@G@2@V?$allocator@U?$pair@$$CBGE@_STL@@@2@@_STL@@IAEPAU?$_Rb_tree_node@U?$pair@$$CBGE@_STL@@@2@ABU?$pair@$$CBGE@2@@Z ; _STL::_Rb_tree<unsigned short,_STL::pair<unsigned short const ,unsigned char>,_STL::_Select1st<_STL::pair<unsigned short const ,unsigned char> >,_STL::less<unsigned short>,_STL::allocator<_STL::pair<unsigned short const ,unsigned char> > >::_M_create_node
  0004b	8b f0		 mov	 esi, eax

; 361  :     _S_left(__y) = __z;               // also makes _M_leftmost() = __z 

  0004d	89 73 08	 mov	 DWORD PTR [ebx+8], esi

; 362  :                                       //    when __y == _M_header
; 363  :     if (__y == this->_M_header._M_data) {

  00050	8b 07		 mov	 eax, DWORD PTR [edi]
  00052	3b d8		 cmp	 ebx, eax
  00054	75 0a		 jne	 SHORT $L78068

; 364  :       _M_root() = __z;

  00056	89 70 04	 mov	 DWORD PTR [eax+4], esi

; 365  :       _M_rightmost() = __z;

  00059	8b 17		 mov	 edx, DWORD PTR [edi]
  0005b	89 72 0c	 mov	 DWORD PTR [edx+12], esi

; 366  :     }
; 367  :     else if (__y == _M_leftmost())

  0005e	eb 08		 jmp	 SHORT $L78070
$L78068:
  00060	3b 58 08	 cmp	 ebx, DWORD PTR [eax+8]
  00063	75 03		 jne	 SHORT $L78070

; 368  :       _M_leftmost() = __z;   // maintain _M_leftmost() pointing to min node

  00065	89 70 08	 mov	 DWORD PTR [eax+8], esi
$L78070:

; 375  :   }
; 376  :   _S_parent(__z) = __y;

  00068	89 5e 04	 mov	 DWORD PTR [esi+4], ebx

; 377  :   _S_left(__z) = 0;

  0006b	c7 46 08 00 00
	00 00		 mov	 DWORD PTR [esi+8], 0

; 378  :   _S_right(__z) = 0;

  00072	c7 46 0c 00 00
	00 00		 mov	 DWORD PTR [esi+12], 0

; 379  :   _Rb_global_inst::_Rebalance(__z, this->_M_header._M_data->_M_parent);

  00079	8b 07		 mov	 eax, DWORD PTR [edi]
  0007b	83 c0 04	 add	 eax, 4
  0007e	50		 push	 eax
  0007f	56		 push	 esi
  00080	e8 00 00 00 00	 call	 ?_Rebalance@?$_Rb_global@_N@_STL@@SAXPAU_Rb_tree_node_base@2@AAPAU32@@Z ; _STL::_Rb_global<bool>::_Rebalance

; 380  :   ++_M_node_count;

  00085	8b 47 04	 mov	 eax, DWORD PTR [edi+4]
  00088	83 c4 08	 add	 esp, 8
  0008b	40		 inc	 eax
  0008c	89 47 04	 mov	 DWORD PTR [edi+4], eax

; 381  :   return iterator(__z);

  0008f	8b 44 24 10	 mov	 eax, DWORD PTR ___$ReturnUdt$[esp+8]
  00093	5f		 pop	 edi
  00094	89 30		 mov	 DWORD PTR [eax], esi
  00096	5e		 pop	 esi
  00097	5b		 pop	 ebx

; 382  : }

  00098	c2 14 00	 ret	 20			; 00000014H
?_M_insert@?$_Rb_tree@GU?$pair@$$CBGE@_STL@@U?$_Select1st@U?$pair@$$CBGE@_STL@@@2@U?$less@G@2@V?$allocator@U?$pair@$$CBGE@_STL@@@2@@_STL@@AAE?AU?$_Rb_tree_iterator@U?$pair@$$CBGE@_STL@@U?$_Nonconst_traits@U?$pair@$$CBGE@_STL@@@2@@2@PAU_Rb_tree_node_base@2@0ABU?$pair@$$CBGE@2@0@Z ENDP ; _STL::_Rb_tree<unsigned short,_STL::pair<unsigned short const ,unsigned char>,_STL::_Select1st<_STL::pair<unsigned short const ,unsigned char> >,_STL::less<unsigned short>,_STL::allocator<_STL::pair<unsigned short const ,unsigned char> > >::_M_insert
_TEXT	ENDS
PUBLIC	?insert_unique@?$_Rb_tree@GU?$pair@$$CBGE@_STL@@U?$_Select1st@U?$pair@$$CBGE@_STL@@@2@U?$less@G@2@V?$allocator@U?$pair@$$CBGE@_STL@@@2@@_STL@@QAE?AU?$pair@U?$_Rb_tree_iterator@U?$pair@$$CBGE@_STL@@U?$_Nonconst_traits@U?$pair@$$CBGE@_STL@@@2@@_STL@@_N@2@ABU?$pair@$$CBGE@2@@Z ; _STL::_Rb_tree<unsigned short,_STL::pair<unsigned short const ,unsigned char>,_STL::_Select1st<_STL::pair<unsigned short const ,unsigned char> >,_STL::less<unsigned short>,_STL::allocator<_STL::pair<unsigned short const ,unsigned char> > >::insert_unique
; Function compile flags: /Ogty
;	COMDAT ?insert_unique@?$_Rb_tree@GU?$pair@$$CBGE@_STL@@U?$_Select1st@U?$pair@$$CBGE@_STL@@@2@U?$less@G@2@V?$allocator@U?$pair@$$CBGE@_STL@@@2@@_STL@@QAE?AU?$pair@U?$_Rb_tree_iterator@U?$pair@$$CBGE@_STL@@U?$_Nonconst_traits@U?$pair@$$CBGE@_STL@@@2@@_STL@@_N@2@ABU?$pair@$$CBGE@2@@Z
_TEXT	SEGMENT
___$ReturnUdt$ = 8					; size = 4
$T80519 = 12						; size = 4
___v$ = 12						; size = 4
?insert_unique@?$_Rb_tree@GU?$pair@$$CBGE@_STL@@U?$_Select1st@U?$pair@$$CBGE@_STL@@@2@U?$less@G@2@V?$allocator@U?$pair@$$CBGE@_STL@@@2@@_STL@@QAE?AU?$pair@U?$_Rb_tree_iterator@U?$pair@$$CBGE@_STL@@U?$_Nonconst_traits@U?$pair@$$CBGE@_STL@@@2@@_STL@@_N@2@ABU?$pair@$$CBGE@2@@Z PROC NEAR ; _STL::_Rb_tree<unsigned short,_STL::pair<unsigned short const ,unsigned char>,_STL::_Select1st<_STL::pair<unsigned short const ,unsigned char> >,_STL::less<unsigned short>,_STL::allocator<_STL::pair<unsigned short const ,unsigned char> > >::insert_unique, COMDAT
; _this$ = ecx

; 401  : {

  00000	53		 push	 ebx

; 403  :   _Link_type __x = _M_root();
; 404  :   bool __comp = true;
; 405  :   while (__x != 0) {

  00001	8b 5c 24 0c	 mov	 ebx, DWORD PTR ___v$[esp]
  00005	55		 push	 ebp
  00006	8b e9		 mov	 ebp, ecx
  00008	8b 55 00	 mov	 edx, DWORD PTR [ebp]
  0000b	56		 push	 esi
  0000c	8b 72 04	 mov	 esi, DWORD PTR [edx+4]
  0000f	85 f6		 test	 esi, esi
  00011	57		 push	 edi
  00012	8b fa		 mov	 edi, edx
  00014	b1 01		 mov	 cl, 1
  00016	74 21		 je	 SHORT $L78089

; 402  :   _Link_type __y = this->_M_header._M_data;

  00018	66 8b 03	 mov	 ax, WORD PTR [ebx]
  0001b	eb 03 8d 49 00	 npad	 5
$L78088:

; 406  :     __y = __x;
; 407  :     __comp = _M_key_compare(_KeyOfValue()(__v), _S_key(__x));

  00020	66 3b 46 10	 cmp	 ax, WORD PTR [esi+16]
  00024	8b fe		 mov	 edi, esi
  00026	0f 92 c1	 setb	 cl

; 408  :     __x = __comp ? _S_left(__x) : _S_right(__x);

  00029	84 c9		 test	 cl, cl
  0002b	74 05		 je	 SHORT $L80512
  0002d	8b 76 08	 mov	 esi, DWORD PTR [esi+8]
  00030	eb 03		 jmp	 SHORT $L80513
$L80512:
  00032	8b 76 0c	 mov	 esi, DWORD PTR [esi+12]
$L80513:

; 403  :   _Link_type __x = _M_root();
; 404  :   bool __comp = true;
; 405  :   while (__x != 0) {

  00035	85 f6		 test	 esi, esi
  00037	75 e7		 jne	 SHORT $L78088
$L78089:

; 409  :   }
; 410  :   iterator __j = iterator(__y);   
; 411  :   if (__comp)

  00039	84 c9		 test	 cl, cl
  0003b	8b c7		 mov	 eax, edi
  0003d	74 15		 je	 SHORT $L80581

; 412  :     if (__j == begin())     

  0003f	3b 7a 08	 cmp	 edi, DWORD PTR [edx+8]
  00042	75 07		 jne	 SHORT $L78095

; 413  :       return pair<iterator,bool>(_M_insert(/* __x*/ __y, __y, __v), true);

  00044	6a 00		 push	 0
  00046	53		 push	 ebx
  00047	57		 push	 edi
  00048	57		 push	 edi
  00049	eb 17		 jmp	 SHORT $L80623
$L78095:

; 414  :     else
; 415  :       --__j;

  0004b	57		 push	 edi
  0004c	e8 00 00 00 00	 call	 ?_M_decrement@?$_Rb_global@_N@_STL@@SAPAU_Rb_tree_node_base@2@PAU32@@Z ; _STL::_Rb_global<bool>::_M_decrement
  00051	83 c4 04	 add	 esp, 4
$L80581:

; 416  :   if (_M_key_compare(_S_key(__j._M_node), _KeyOfValue()(__v)))

  00054	66 8b 50 10	 mov	 dx, WORD PTR [eax+16]
  00058	66 3b 13	 cmp	 dx, WORD PTR [ebx]
  0005b	73 24		 jae	 SHORT $L78105

; 417  :     return pair<iterator,bool>(_M_insert(__x, __y, __v), true);

  0005d	6a 00		 push	 0
  0005f	53		 push	 ebx
  00060	57		 push	 edi
  00061	56		 push	 esi
$L80623:
  00062	8d 44 24 28	 lea	 eax, DWORD PTR $T80519[esp+28]
  00066	50		 push	 eax
  00067	8b cd		 mov	 ecx, ebp
  00069	e8 00 00 00 00	 call	 ?_M_insert@?$_Rb_tree@GU?$pair@$$CBGE@_STL@@U?$_Select1st@U?$pair@$$CBGE@_STL@@@2@U?$less@G@2@V?$allocator@U?$pair@$$CBGE@_STL@@@2@@_STL@@AAE?AU?$_Rb_tree_iterator@U?$pair@$$CBGE@_STL@@U?$_Nonconst_traits@U?$pair@$$CBGE@_STL@@@2@@2@PAU_Rb_tree_node_base@2@0ABU?$pair@$$CBGE@2@0@Z ; _STL::_Rb_tree<unsigned short,_STL::pair<unsigned short const ,unsigned char>,_STL::_Select1st<_STL::pair<unsigned short const ,unsigned char> >,_STL::less<unsigned short>,_STL::allocator<_STL::pair<unsigned short const ,unsigned char> > >::_M_insert
  0006e	8b 08		 mov	 ecx, DWORD PTR [eax]
  00070	8b 44 24 14	 mov	 eax, DWORD PTR ___$ReturnUdt$[esp+12]
  00074	5f		 pop	 edi
  00075	5e		 pop	 esi
  00076	5d		 pop	 ebp
  00077	89 08		 mov	 DWORD PTR [eax], ecx
  00079	c6 40 04 01	 mov	 BYTE PTR [eax+4], 1
  0007d	5b		 pop	 ebx

; 419  : }

  0007e	c2 08 00	 ret	 8
$L78105:

; 418  :   return pair<iterator,bool>(__j, false);

  00081	8b 4c 24 14	 mov	 ecx, DWORD PTR ___$ReturnUdt$[esp+12]
  00085	5f		 pop	 edi
  00086	5e		 pop	 esi
  00087	5d		 pop	 ebp
  00088	89 01		 mov	 DWORD PTR [ecx], eax
  0008a	c6 41 04 00	 mov	 BYTE PTR [ecx+4], 0
  0008e	8b c1		 mov	 eax, ecx
  00090	5b		 pop	 ebx

; 419  : }

  00091	c2 08 00	 ret	 8
?insert_unique@?$_Rb_tree@GU?$pair@$$CBGE@_STL@@U?$_Select1st@U?$pair@$$CBGE@_STL@@@2@U?$less@G@2@V?$allocator@U?$pair@$$CBGE@_STL@@@2@@_STL@@QAE?AU?$pair@U?$_Rb_tree_iterator@U?$pair@$$CBGE@_STL@@U?$_Nonconst_traits@U?$pair@$$CBGE@_STL@@@2@@_STL@@_N@2@ABU?$pair@$$CBGE@2@@Z ENDP ; _STL::_Rb_tree<unsigned short,_STL::pair<unsigned short const ,unsigned char>,_STL::_Select1st<_STL::pair<unsigned short const ,unsigned char> >,_STL::less<unsigned short>,_STL::allocator<_STL::pair<unsigned short const ,unsigned char> > >::insert_unique
_TEXT	ENDS
PUBLIC	??$_M_allocate_and_copy@PAG@?$vector@GV?$allocator@G@_STL@@@_STL@@IAEPAGIPAG0@Z ; _STL::vector<unsigned short,_STL::allocator<unsigned short> >::_M_allocate_and_copy<unsigned short *>
; Function compile flags: /Ogty
; File c:\stlport-4.6.1\stlport\stl\_vector.h
;	COMDAT ??$_M_allocate_and_copy@PAG@?$vector@GV?$allocator@G@_STL@@@_STL@@IAEPAGIPAG0@Z
_TEXT	SEGMENT
___n$ = 8						; size = 4
___first$ = 12						; size = 4
___last$ = 16						; size = 4
??$_M_allocate_and_copy@PAG@?$vector@GV?$allocator@G@_STL@@@_STL@@IAEPAGIPAG0@Z PROC NEAR ; _STL::vector<unsigned short,_STL::allocator<unsigned short> >::_M_allocate_and_copy<unsigned short *>, COMDAT
; _this$ = ecx

; 509  : 				_ForwardIterator __last)
; 510  : #else /* _STLP_MEMBER_TEMPLATES */
; 511  :   pointer _M_allocate_and_copy(size_type __n, const_pointer __first, 
; 512  : 			       const_pointer __last)
; 513  : #endif /* _STLP_MEMBER_TEMPLATES */
; 514  :   {
; 515  :     pointer __result = this->_M_end_of_storage.allocate(__n);

  00000	8b 44 24 04	 mov	 eax, DWORD PTR ___n$[esp-4]
  00004	85 c0		 test	 eax, eax
  00006	56		 push	 esi
  00007	74 22		 je	 SHORT $L80648
  00009	03 c0		 add	 eax, eax
  0000b	3d 80 00 00 00	 cmp	 eax, 128		; 00000080H
  00010	50		 push	 eax
  00011	76 0c		 jbe	 SHORT $L80651
  00013	e8 00 00 00 00	 call	 ??2@YAPAXI@Z		; operator new
  00018	83 c4 04	 add	 esp, 4
  0001b	8b f0		 mov	 esi, eax
  0001d	eb 0e		 jmp	 SHORT $L80649
$L80651:
  0001f	e8 00 00 00 00	 call	 ?_M_allocate@?$__node_alloc@$00$0A@@_STL@@CAPAXI@Z ; _STL::__node_alloc<1,0>::_M_allocate
  00024	83 c4 04	 add	 esp, 4
  00027	8b f0		 mov	 esi, eax
  00029	eb 02		 jmp	 SHORT $L80649
$L80648:
  0002b	33 f6		 xor	 esi, esi
$L80649:

; 516  :     _STLP_TRY {
; 517  : #if !defined(__MRC__)		//*TY 12/17/2000 - added workaround for MrCpp. it confuses on nested try/catch block
; 518  :       __uninitialized_copy(__first, __last, __result, _IsPODType());

  0002d	8b 44 24 10	 mov	 eax, DWORD PTR ___last$[esp]
  00031	8b 4c 24 0c	 mov	 ecx, DWORD PTR ___first$[esp]
  00035	3b c1		 cmp	 eax, ecx
  00037	74 0d		 je	 SHORT $L80730
  00039	2b c1		 sub	 eax, ecx
  0003b	50		 push	 eax
  0003c	51		 push	 ecx
  0003d	56		 push	 esi
  0003e	e8 00 00 00 00	 call	 _memmove
  00043	83 c4 0c	 add	 esp, 12			; 0000000cH
$L80730:

; 519  : #else
; 520  :       uninitialized_copy(__first, __last, __result);
; 521  : #endif
; 522  :       return __result;

  00046	8b c6		 mov	 eax, esi
  00048	5e		 pop	 esi

; 523  :     }
; 524  :     _STLP_UNWIND(this->_M_end_of_storage.deallocate(__result, __n));
; 525  : # ifdef _STLP_THROW_RETURN_BUG
; 526  : 	return __result;
; 527  : # endif
; 528  :   }

  00049	c2 0c 00	 ret	 12			; 0000000cH
??$_M_allocate_and_copy@PAG@?$vector@GV?$allocator@G@_STL@@@_STL@@IAEPAGIPAG0@Z ENDP ; _STL::vector<unsigned short,_STL::allocator<unsigned short> >::_M_allocate_and_copy<unsigned short *>
_TEXT	ENDS
PUBLIC	??1?$map@GEU?$less@G@_STL@@V?$allocator@U?$pair@$$CBGE@_STL@@@2@@_STL@@QAE@XZ ; _STL::map<unsigned short,unsigned char,_STL::less<unsigned short>,_STL::allocator<_STL::pair<unsigned short const ,unsigned char> > >::~map<unsigned short,unsigned char,_STL::less<unsigned short>,_STL::allocator<_STL::pair<unsigned short const ,unsigned char> > >
; Function compile flags: /Ogty
;	COMDAT ??1?$map@GEU?$less@G@_STL@@V?$allocator@U?$pair@$$CBGE@_STL@@@2@@_STL@@QAE@XZ
_TEXT	SEGMENT
??1?$map@GEU?$less@G@_STL@@V?$allocator@U?$pair@$$CBGE@_STL@@@2@@_STL@@QAE@XZ PROC NEAR ; _STL::map<unsigned short,unsigned char,_STL::less<unsigned short>,_STL::allocator<_STL::pair<unsigned short const ,unsigned char> > >::~map<unsigned short,unsigned char,_STL::less<unsigned short>,_STL::allocator<_STL::pair<unsigned short const ,unsigned char> > >, COMDAT
; _this$ = ecx
  00000	e9 00 00 00 00	 jmp	 ??1?$_Rb_tree@GU?$pair@$$CBGE@_STL@@U?$_Select1st@U?$pair@$$CBGE@_STL@@@2@U?$less@G@2@V?$allocator@U?$pair@$$CBGE@_STL@@@2@@_STL@@QAE@XZ ; _STL::_Rb_tree<unsigned short,_STL::pair<unsigned short const ,unsigned char>,_STL::_Select1st<_STL::pair<unsigned short const ,unsigned char> >,_STL::less<unsigned short>,_STL::allocator<_STL::pair<unsigned short const ,unsigned char> > >::~_Rb_tree<unsigned short,_STL::pair<unsigned short const ,unsigned char>,_STL::_Select1st<_STL::pair<unsigned short const ,unsigned char> >,_STL::less<unsigned short>,_STL::allocator<_STL::pair<unsigned short const ,unsigned char> > >
??1?$map@GEU?$less@G@_STL@@V?$allocator@U?$pair@$$CBGE@_STL@@@2@@_STL@@QAE@XZ ENDP ; _STL::map<unsigned short,unsigned char,_STL::less<unsigned short>,_STL::allocator<_STL::pair<unsigned short const ,unsigned char> > >::~map<unsigned short,unsigned char,_STL::less<unsigned short>,_STL::allocator<_STL::pair<unsigned short const ,unsigned char> > >
_TEXT	ENDS
PUBLIC	??1KeyAccelerator@@QAE@XZ			; KeyAccelerator::~KeyAccelerator
;	COMDAT xdata$x
; File c:\darkeden\designed_common\project\new - vs_ui\src\keyaccelerator.cpp
xdata$x	SEGMENT
$T80805	DD	0ffffffffH
	DD	FLAT:$L80738
$T80803	DD	019930520H
	DD	01H
	DD	FLAT:$T80805
	DD	2 DUP(00H)
	DD	2 DUP(00H)
; Function compile flags: /Ogty
xdata$x	ENDS
;	COMDAT ??1KeyAccelerator@@QAE@XZ
_TEXT	SEGMENT
_this$ = -16						; size = 4
__$EHRec$ = -12						; size = 12
??1KeyAccelerator@@QAE@XZ PROC NEAR			; KeyAccelerator::~KeyAccelerator, COMDAT
; _this$ = ecx

; 40   : {

  00000	6a ff		 push	 -1
  00002	68 00 00 00 00	 push	 __ehhandler$??1KeyAccelerator@@QAE@XZ
  00007	64 a1 00 00 00
	00		 mov	 eax, DWORD PTR fs:__except_list
  0000d	50		 push	 eax
  0000e	64 89 25 00 00
	00 00		 mov	 DWORD PTR fs:__except_list, esp
  00015	51		 push	 ecx
  00016	56		 push	 esi
  00017	8b f1		 mov	 esi, ecx
  00019	89 74 24 04	 mov	 DWORD PTR _this$[esp+20], esi

; 41   : }

  0001d	8b 4e 0c	 mov	 ecx, DWORD PTR [esi+12]
  00020	85 c9		 test	 ecx, ecx
  00022	c7 44 24 10 00
	00 00 00	 mov	 DWORD PTR __$EHRec$[esp+28], 0
  0002a	74 25		 je	 SHORT $L80793
  0002c	8b 46 14	 mov	 eax, DWORD PTR [esi+20]
  0002f	2b c1		 sub	 eax, ecx
  00031	d1 f8		 sar	 eax, 1
  00033	03 c0		 add	 eax, eax
  00035	3d 80 00 00 00	 cmp	 eax, 128		; 00000080H
  0003a	76 0b		 jbe	 SHORT $L80792
  0003c	51		 push	 ecx
  0003d	e8 00 00 00 00	 call	 ??3@YAXPAX@Z		; operator delete
  00042	83 c4 04	 add	 esp, 4
  00045	eb 0a		 jmp	 SHORT $L80793
$L80792:
  00047	50		 push	 eax
  00048	51		 push	 ecx
  00049	e8 00 00 00 00	 call	 ?_M_deallocate@?$__node_alloc@$00$0A@@_STL@@CAXPAXI@Z ; _STL::__node_alloc<1,0>::_M_deallocate
  0004e	83 c4 08	 add	 esp, 8
$L80793:
  00051	8b ce		 mov	 ecx, esi
  00053	c7 44 24 10 ff
	ff ff ff	 mov	 DWORD PTR __$EHRec$[esp+28], -1
  0005b	e8 00 00 00 00	 call	 ??1?$_Rb_tree@GU?$pair@$$CBGE@_STL@@U?$_Select1st@U?$pair@$$CBGE@_STL@@@2@U?$less@G@2@V?$allocator@U?$pair@$$CBGE@_STL@@@2@@_STL@@QAE@XZ ; _STL::_Rb_tree<unsigned short,_STL::pair<unsigned short const ,unsigned char>,_STL::_Select1st<_STL::pair<unsigned short const ,unsigned char> >,_STL::less<unsigned short>,_STL::allocator<_STL::pair<unsigned short const ,unsigned char> > >::~_Rb_tree<unsigned short,_STL::pair<unsigned short const ,unsigned char>,_STL::_Select1st<_STL::pair<unsigned short const ,unsigned char> >,_STL::less<unsigned short>,_STL::allocator<_STL::pair<unsigned short const ,unsigned char> > >
  00060	8b 4c 24 08	 mov	 ecx, DWORD PTR __$EHRec$[esp+20]
  00064	5e		 pop	 esi
  00065	64 89 0d 00 00
	00 00		 mov	 DWORD PTR fs:__except_list, ecx
  0006c	83 c4 10	 add	 esp, 16			; 00000010H
  0006f	c3		 ret	 0
_TEXT	ENDS
;	COMDAT text$x
text$x	SEGMENT
$L80738:
  00000	8b 4d f0	 mov	 ecx, DWORD PTR _this$[ebp]
  00003	e9 00 00 00 00	 jmp	 ??1?$map@GEU?$less@G@_STL@@V?$allocator@U?$pair@$$CBGE@_STL@@@2@@_STL@@QAE@XZ
__ehhandler$??1KeyAccelerator@@QAE@XZ:
  00008	b8 00 00 00 00	 mov	 eax, OFFSET FLAT:$T80803
  0000d	e9 00 00 00 00	 jmp	 ___CxxFrameHandler
text$x	ENDS
??1KeyAccelerator@@QAE@XZ ENDP				; KeyAccelerator::~KeyAccelerator
PUBLIC	?GetAccelerator@KeyAccelerator@@QBEEG@Z		; KeyAccelerator::GetAccelerator
; Function compile flags: /Ogty
;	COMDAT ?GetAccelerator@KeyAccelerator@@QBEEG@Z
_TEXT	SEGMENT
_key$ = 8						; size = 2
?GetAccelerator@KeyAccelerator@@QBEEG@Z PROC NEAR	; KeyAccelerator::GetAccelerator, COMDAT
; _this$ = ecx

; 89   : {

  00000	56		 push	 esi

; 90   : 	KEY_MAP::const_iterator iKey = m_Keys.find( key );

  00001	8d 44 24 08	 lea	 eax, DWORD PTR _key$[esp]
  00005	50		 push	 eax
  00006	8b f1		 mov	 esi, ecx
  00008	e8 00 00 00 00	 call	 ??$_M_find@G@?$_Rb_tree@GU?$pair@$$CBGE@_STL@@U?$_Select1st@U?$pair@$$CBGE@_STL@@@2@U?$less@G@2@V?$allocator@U?$pair@$$CBGE@_STL@@@2@@_STL@@ABEPAU?$_Rb_tree_node@U?$pair@$$CBGE@_STL@@@1@ABG@Z ; _STL::_Rb_tree<unsigned short,_STL::pair<unsigned short const ,unsigned char>,_STL::_Select1st<_STL::pair<unsigned short const ,unsigned char> >,_STL::less<unsigned short>,_STL::allocator<_STL::pair<unsigned short const ,unsigned char> > >::_M_find<unsigned short>

; 91   : 
; 92   : 	if (iKey==m_Keys.end())

  0000d	3b 06		 cmp	 eax, DWORD PTR [esi]
  0000f	5e		 pop	 esi
  00010	75 05		 jne	 SHORT $L77200

; 93   : 	{
; 94   : 		return 0;

  00012	32 c0		 xor	 al, al

; 98   : }

  00014	c2 04 00	 ret	 4
$L77200:

; 95   : 	}
; 96   : 
; 97   : 	return iKey->second;

  00017	8a 40 12	 mov	 al, BYTE PTR [eax+18]

; 98   : }

  0001a	c2 04 00	 ret	 4
?GetAccelerator@KeyAccelerator@@QBEEG@Z ENDP		; KeyAccelerator::GetAccelerator
_TEXT	ENDS
PUBLIC	?GetAcceleratorSimilar@KeyAccelerator@@QBEEG@Z	; KeyAccelerator::GetAcceleratorSimilar
; Function compile flags: /Ogty
;	COMDAT ?GetAcceleratorSimilar@KeyAccelerator@@QBEEG@Z
_TEXT	SEGMENT
_keyOnly$ = -8						; size = 2
_bHasAlt$ = -8						; size = 4
_bHasShift$ = -4					; size = 4
_key$ = 8						; size = 2
_checkKey$ = 8						; size = 2
?GetAcceleratorSimilar@KeyAccelerator@@QBEEG@Z PROC NEAR ; KeyAccelerator::GetAcceleratorSimilar, COMDAT
; _this$ = ecx

; 109  : {

  00000	83 ec 08	 sub	 esp, 8
  00003	55		 push	 ebp
  00004	57		 push	 edi

; 110  : 	//  key
; 111  : 	KEY_MAP::const_iterator iKey = m_Keys.find( key );

  00005	8d 44 24 14	 lea	 eax, DWORD PTR _key$[esp+12]
  00009	50		 push	 eax
  0000a	8b f9		 mov	 edi, ecx
  0000c	e8 00 00 00 00	 call	 ??$_M_find@G@?$_Rb_tree@GU?$pair@$$CBGE@_STL@@U?$_Select1st@U?$pair@$$CBGE@_STL@@@2@U?$less@G@2@V?$allocator@U?$pair@$$CBGE@_STL@@@2@@_STL@@ABEPAU?$_Rb_tree_node@U?$pair@$$CBGE@_STL@@@1@ABG@Z ; _STL::_Rb_tree<unsigned short,_STL::pair<unsigned short const ,unsigned char>,_STL::_Select1st<_STL::pair<unsigned short const ,unsigned char> >,_STL::less<unsigned short>,_STL::allocator<_STL::pair<unsigned short const ,unsigned char> > >::_M_find<unsigned short>

; 112  : 
; 113  : 	if (iKey!=m_Keys.end())

  00011	8b 2f		 mov	 ebp, DWORD PTR [edi]
  00013	3b c5		 cmp	 eax, ebp
  00015	74 0b		 je	 SHORT $L77223

; 114  : 	{
; 115  : 		return iKey->second;

  00017	8a 40 12	 mov	 al, BYTE PTR [eax+18]
  0001a	5f		 pop	 edi
  0001b	5d		 pop	 ebp

; 198  : }

  0001c	83 c4 08	 add	 esp, 8
  0001f	c2 04 00	 ret	 4
$L77223:
  00022	53		 push	 ebx

; 116  : 	}
; 117  : 
; 118  : 	WORD checkKey;	
; 119  : 
; 120  : 	int bHasControl	= ACCEL_HAS_CONTROL(key);

  00023	8b 5c 24 18	 mov	 ebx, DWORD PTR _key$[esp+16]
  00027	0f b7 c3	 movzx	 eax, bx
  0002a	56		 push	 esi
  0002b	8b f0		 mov	 esi, eax

; 121  : 	int bHasAlt		= ACCEL_HAS_ALT(key);

  0002d	8b c8		 mov	 ecx, eax
  0002f	81 e6 00 01 00
	00		 and	 esi, 256		; 00000100H
  00035	81 e1 00 02 00
	00		 and	 ecx, 512		; 00000200H

; 122  : 	int bHasShift	= ACCEL_HAS_SHIFT(key);

  0003b	25 00 04 00 00	 and	 eax, 1024		; 00000400H

; 123  : 
; 124  : 	//------------------------------------------------------------
; 125  : 	//  key  
; 126  : 	//------------------------------------------------------------
; 127  : //	if (!bHasControl && !bHasAlt && !bHasShift)
; 128  : //	{
; 129  : //		return 0;
; 130  : //	}
; 131  : 
; 132  : 	//------------------------------------------------------------
; 133  : 	// ctrl
; 134  : 	//------------------------------------------------------------
; 135  : 	if (bHasControl)

  00040	85 f6		 test	 esi, esi
  00042	89 4c 24 10	 mov	 DWORD PTR _bHasAlt$[esp+24], ecx
  00046	89 44 24 14	 mov	 DWORD PTR _bHasShift$[esp+24], eax
  0004a	74 24		 je	 SHORT $L77231

; 136  : 	{
; 137  : 		checkKey = ACCEL_REMOVE_CONTROL( key );

  0004c	8b cb		 mov	 ecx, ebx
  0004e	81 e1 ff fe 00
	00		 and	 ecx, 65279		; 0000feffH

; 138  : 		iKey = m_Keys.find( checkKey );

  00054	8d 54 24 1c	 lea	 edx, DWORD PTR _checkKey$[esp+20]
  00058	89 4c 24 1c	 mov	 DWORD PTR _checkKey$[esp+20], ecx
  0005c	52		 push	 edx
  0005d	8b cf		 mov	 ecx, edi
  0005f	e8 00 00 00 00	 call	 ??$_M_find@G@?$_Rb_tree@GU?$pair@$$CBGE@_STL@@U?$_Select1st@U?$pair@$$CBGE@_STL@@@2@U?$less@G@2@V?$allocator@U?$pair@$$CBGE@_STL@@@2@@_STL@@ABEPAU?$_Rb_tree_node@U?$pair@$$CBGE@_STL@@@1@ABG@Z ; _STL::_Rb_tree<unsigned short,_STL::pair<unsigned short const ,unsigned char>,_STL::_Select1st<_STL::pair<unsigned short const ,unsigned char> >,_STL::less<unsigned short>,_STL::allocator<_STL::pair<unsigned short const ,unsigned char> > >::_M_find<unsigned short>

; 139  : 		if (iKey!=m_Keys.end())	return iKey->second;

  00064	3b c5		 cmp	 eax, ebp
  00066	0f 85 ce 00 00
	00		 jne	 $L81222
  0006c	8b 4c 24 10	 mov	 ecx, DWORD PTR _bHasAlt$[esp+24]
$L77231:

; 140  : 	}
; 141  : 
; 142  : 	//------------------------------------------------------------
; 143  : 	// alt
; 144  : 	//------------------------------------------------------------
; 145  : 	if (bHasAlt)

  00070	85 c9		 test	 ecx, ecx
  00072	74 23		 je	 SHORT $L77235

; 146  : 	{
; 147  : 		checkKey = ACCEL_REMOVE_ALT( key );
; 148  : 		iKey = m_Keys.find( checkKey );

  00074	8d 4c 24 1c	 lea	 ecx, DWORD PTR _checkKey$[esp+20]
  00078	8b c3		 mov	 eax, ebx
  0007a	25 ff fd 00 00	 and	 eax, 65023		; 0000fdffH
  0007f	51		 push	 ecx
  00080	8b cf		 mov	 ecx, edi
  00082	89 44 24 20	 mov	 DWORD PTR _checkKey$[esp+24], eax
  00086	e8 00 00 00 00	 call	 ??$_M_find@G@?$_Rb_tree@GU?$pair@$$CBGE@_STL@@U?$_Select1st@U?$pair@$$CBGE@_STL@@@2@U?$less@G@2@V?$allocator@U?$pair@$$CBGE@_STL@@@2@@_STL@@ABEPAU?$_Rb_tree_node@U?$pair@$$CBGE@_STL@@@1@ABG@Z ; _STL::_Rb_tree<unsigned short,_STL::pair<unsigned short const ,unsigned char>,_STL::_Select1st<_STL::pair<unsigned short const ,unsigned char> >,_STL::less<unsigned short>,_STL::allocator<_STL::pair<unsigned short const ,unsigned char> > >::_M_find<unsigned short>

; 149  : 		if (iKey!=m_Keys.end())	return iKey->second;

  0008b	3b c5		 cmp	 eax, ebp
  0008d	0f 85 a7 00 00
	00		 jne	 $L81222
  00093	8b 4c 24 10	 mov	 ecx, DWORD PTR _bHasAlt$[esp+24]
$L77235:

; 150  : 	}
; 151  : 
; 152  : 	//------------------------------------------------------------
; 153  : 	// shift
; 154  : 	//------------------------------------------------------------
; 155  : 	if (bHasShift)

  00097	8b 44 24 14	 mov	 eax, DWORD PTR _bHasShift$[esp+24]
  0009b	85 c0		 test	 eax, eax
  0009d	74 20		 je	 SHORT $L77239

; 156  : 	{
; 157  : 		checkKey = ACCEL_REMOVE_SHIFT( key );

  0009f	8b d3		 mov	 edx, ebx

; 158  : 		iKey = m_Keys.find( checkKey );

  000a1	8d 44 24 1c	 lea	 eax, DWORD PTR _checkKey$[esp+20]
  000a5	81 e2 ff fb 00
	00		 and	 edx, 64511		; 0000fbffH
  000ab	50		 push	 eax
  000ac	8b cf		 mov	 ecx, edi
  000ae	89 54 24 20	 mov	 DWORD PTR _checkKey$[esp+24], edx
  000b2	e8 00 00 00 00	 call	 ??$_M_find@G@?$_Rb_tree@GU?$pair@$$CBGE@_STL@@U?$_Select1st@U?$pair@$$CBGE@_STL@@@2@U?$less@G@2@V?$allocator@U?$pair@$$CBGE@_STL@@@2@@_STL@@ABEPAU?$_Rb_tree_node@U?$pair@$$CBGE@_STL@@@1@ABG@Z ; _STL::_Rb_tree<unsigned short,_STL::pair<unsigned short const ,unsigned char>,_STL::_Select1st<_STL::pair<unsigned short const ,unsigned char> >,_STL::less<unsigned short>,_STL::allocator<_STL::pair<unsigned short const ,unsigned char> > >::_M_find<unsigned short>

; 159  : 		if (iKey!=m_Keys.end())	return iKey->second;

  000b7	3b c5		 cmp	 eax, ebp
  000b9	75 7f		 jne	 SHORT $L81222
  000bb	8b 4c 24 10	 mov	 ecx, DWORD PTR _bHasAlt$[esp+24]
$L77239:

; 160  : 	}
; 161  : 
; 162  : 	WORD keyOnly = ACCEL_GET_KEY( key );

  000bf	81 e3 ff 00 00
	00		 and	 ebx, 255		; 000000ffH

; 163  : 
; 164  : 	//------------------------------------------------------------
; 165  : 	// ctrl + alt + shift  
; 166  : 	//------------------------------------------------------------
; 167  : 	if (bHasControl && bHasAlt && bHasShift)

  000c5	85 f6		 test	 esi, esi
  000c7	89 5c 24 10	 mov	 DWORD PTR _keyOnly$[esp+24], ebx
  000cb	74 5d		 je	 SHORT $L77250
  000cd	85 c9		 test	 ecx, ecx
  000cf	74 59		 je	 SHORT $L77250
  000d1	8b 44 24 14	 mov	 eax, DWORD PTR _bHasShift$[esp+24]
  000d5	85 c0		 test	 eax, eax
  000d7	74 51		 je	 SHORT $L77250

; 168  : 	{
; 169  : 		//------------------------------------------------------------
; 170  : 		// ctrl .
; 171  : 		//------------------------------------------------------------
; 172  : 		checkKey = ACCEL_ADD_CONTROL( keyOnly );

  000d9	8b cb		 mov	 ecx, ebx
  000db	81 c9 00 01 00
	00		 or	 ecx, 256		; 00000100H

; 173  : 		iKey = m_Keys.find( checkKey );

  000e1	8d 54 24 1c	 lea	 edx, DWORD PTR _checkKey$[esp+20]
  000e5	89 4c 24 1c	 mov	 DWORD PTR _checkKey$[esp+20], ecx
  000e9	52		 push	 edx
  000ea	8b cf		 mov	 ecx, edi
  000ec	e8 00 00 00 00	 call	 ??$_M_find@G@?$_Rb_tree@GU?$pair@$$CBGE@_STL@@U?$_Select1st@U?$pair@$$CBGE@_STL@@@2@U?$less@G@2@V?$allocator@U?$pair@$$CBGE@_STL@@@2@@_STL@@ABEPAU?$_Rb_tree_node@U?$pair@$$CBGE@_STL@@@1@ABG@Z ; _STL::_Rb_tree<unsigned short,_STL::pair<unsigned short const ,unsigned char>,_STL::_Select1st<_STL::pair<unsigned short const ,unsigned char> >,_STL::less<unsigned short>,_STL::allocator<_STL::pair<unsigned short const ,unsigned char> > >::_M_find<unsigned short>

; 174  : 		if (iKey!=m_Keys.end())	return iKey->second;	

  000f1	3b c5		 cmp	 eax, ebp
  000f3	75 45		 jne	 SHORT $L81222

; 175  : 
; 176  : 		//------------------------------------------------------------
; 177  : 		// alt 
; 178  : 		//------------------------------------------------------------
; 179  : 		checkKey = ACCEL_ADD_ALT( keyOnly );
; 180  : 		iKey = m_Keys.find( checkKey );

  000f5	8d 4c 24 1c	 lea	 ecx, DWORD PTR _checkKey$[esp+20]
  000f9	8b c3		 mov	 eax, ebx
  000fb	0d 00 02 00 00	 or	 eax, 512		; 00000200H
  00100	51		 push	 ecx
  00101	8b cf		 mov	 ecx, edi
  00103	89 44 24 20	 mov	 DWORD PTR _checkKey$[esp+24], eax
  00107	e8 00 00 00 00	 call	 ??$_M_find@G@?$_Rb_tree@GU?$pair@$$CBGE@_STL@@U?$_Select1st@U?$pair@$$CBGE@_STL@@@2@U?$less@G@2@V?$allocator@U?$pair@$$CBGE@_STL@@@2@@_STL@@ABEPAU?$_Rb_tree_node@U?$pair@$$CBGE@_STL@@@1@ABG@Z ; _STL::_Rb_tree<unsigned short,_STL::pair<unsigned short const ,unsigned char>,_STL::_Select1st<_STL::pair<unsigned short const ,unsigned char> >,_STL::less<unsigned short>,_STL::allocator<_STL::pair<unsigned short const ,unsigned char> > >::_M_find<unsigned short>

; 181  : 		if (iKey!=m_Keys.end())	return iKey->second;		

  0010c	3b c5		 cmp	 eax, ebp
  0010e	75 2a		 jne	 SHORT $L81222

; 182  : 
; 183  : 		//------------------------------------------------------------
; 184  : 		// shift 
; 185  : 		//------------------------------------------------------------
; 186  : 		checkKey = ACCEL_ADD_SHIFT( keyOnly );
; 187  : 		iKey = m_Keys.find( checkKey );

  00110	8d 54 24 1c	 lea	 edx, DWORD PTR _checkKey$[esp+20]
  00114	81 cb 00 04 00
	00		 or	 ebx, 1024		; 00000400H
  0011a	52		 push	 edx
  0011b	8b cf		 mov	 ecx, edi
  0011d	89 5c 24 20	 mov	 DWORD PTR _checkKey$[esp+24], ebx
  00121	e8 00 00 00 00	 call	 ??$_M_find@G@?$_Rb_tree@GU?$pair@$$CBGE@_STL@@U?$_Select1st@U?$pair@$$CBGE@_STL@@@2@U?$less@G@2@V?$allocator@U?$pair@$$CBGE@_STL@@@2@@_STL@@ABEPAU?$_Rb_tree_node@U?$pair@$$CBGE@_STL@@@1@ABG@Z ; _STL::_Rb_tree<unsigned short,_STL::pair<unsigned short const ,unsigned char>,_STL::_Select1st<_STL::pair<unsigned short const ,unsigned char> >,_STL::less<unsigned short>,_STL::allocator<_STL::pair<unsigned short const ,unsigned char> > >::_M_find<unsigned short>

; 188  : 		if (iKey!=m_Keys.end())	return iKey->second;

  00126	3b c5		 cmp	 eax, ebp
  00128	75 10		 jne	 SHORT $L81222
$L77250:

; 189  : 	}
; 190  : 
; 191  : 	//------------------------------------------------------------
; 192  : 	//   
; 193  : 	//------------------------------------------------------------
; 194  : 	iKey = m_Keys.find( keyOnly );

  0012a	8d 44 24 10	 lea	 eax, DWORD PTR _keyOnly$[esp+24]
  0012e	50		 push	 eax
  0012f	8b cf		 mov	 ecx, edi
  00131	e8 00 00 00 00	 call	 ??$_M_find@G@?$_Rb_tree@GU?$pair@$$CBGE@_STL@@U?$_Select1st@U?$pair@$$CBGE@_STL@@@2@U?$less@G@2@V?$allocator@U?$pair@$$CBGE@_STL@@@2@@_STL@@ABEPAU?$_Rb_tree_node@U?$pair@$$CBGE@_STL@@@1@ABG@Z ; _STL::_Rb_tree<unsigned short,_STL::pair<unsigned short const ,unsigned char>,_STL::_Select1st<_STL::pair<unsigned short const ,unsigned char> >,_STL::less<unsigned short>,_STL::allocator<_STL::pair<unsigned short const ,unsigned char> > >::_M_find<unsigned short>

; 195  : 	if (iKey!=m_Keys.end())	return iKey->second;

  00136	3b c5		 cmp	 eax, ebp
  00138	74 0d		 je	 SHORT $L77253
$L81222:
  0013a	8a 40 12	 mov	 al, BYTE PTR [eax+18]
  0013d	5e		 pop	 esi
  0013e	5b		 pop	 ebx
  0013f	5f		 pop	 edi
  00140	5d		 pop	 ebp

; 198  : }

  00141	83 c4 08	 add	 esp, 8
  00144	c2 04 00	 ret	 4
$L77253:
  00147	5e		 pop	 esi
  00148	5b		 pop	 ebx
  00149	5f		 pop	 edi

; 196  : 
; 197  : 	return 0;

  0014a	32 c0		 xor	 al, al
  0014c	5d		 pop	 ebp

; 198  : }

  0014d	83 c4 08	 add	 esp, 8
  00150	c2 04 00	 ret	 4
?GetAcceleratorSimilar@KeyAccelerator@@QBEEG@Z ENDP	; KeyAccelerator::GetAcceleratorSimilar
_TEXT	ENDS
PUBLIC	?SaveToFile@KeyAccelerator@@QAEXAAV?$basic_ofstream@DV?$char_traits@D@_STL@@@_STL@@@Z ; KeyAccelerator::SaveToFile
; Function compile flags: /Ogty
;	COMDAT ?SaveToFile@KeyAccelerator@@QAEXAAV?$basic_ofstream@DV?$char_traits@D@_STL@@@_STL@@@Z
_TEXT	SEGMENT
_num$ = -4						; size = 4
_key$77308 = 8						; size = 2
_file$ = 8						; size = 4
?SaveToFile@KeyAccelerator@@QAEXAAV?$basic_ofstream@DV?$char_traits@D@_STL@@@_STL@@@Z PROC NEAR ; KeyAccelerator::SaveToFile, COMDAT
; _this$ = ecx

; 219  : {

  00000	51		 push	 ecx
  00001	53		 push	 ebx

; 220  : 	int num = m_Accelerators.capacity();
; 221  : 
; 222  : 	file.write((const char*)&num, 4);

  00002	8b 5c 24 0c	 mov	 ebx, DWORD PTR _file$[esp+4]
  00006	56		 push	 esi
  00007	57		 push	 edi
  00008	8b f9		 mov	 edi, ecx
  0000a	8b 4f 0c	 mov	 ecx, DWORD PTR [edi+12]
  0000d	8b 47 14	 mov	 eax, DWORD PTR [edi+20]
  00010	2b c1		 sub	 eax, ecx
  00012	6a 04		 push	 4
  00014	8d 4c 24 10	 lea	 ecx, DWORD PTR _num$[esp+20]
  00018	d1 f8		 sar	 eax, 1
  0001a	51		 push	 ecx
  0001b	8b cb		 mov	 ecx, ebx
  0001d	89 44 24 14	 mov	 DWORD PTR _num$[esp+24], eax
  00021	e8 00 00 00 00	 call	 ?write@?$basic_ostream@DV?$char_traits@D@_STL@@@_STL@@QAEAAV12@PBDH@Z ; _STL::basic_ostream<char,_STL::char_traits<char> >::write

; 223  : 
; 224  : 	// key-accelerator   .
; 225  : 	//  accel  ..  .
; 226  : 	//  key  .
; 227  : 	for (int accel=1; accel<num; accel++)

  00026	8b 44 24 0c	 mov	 eax, DWORD PTR _num$[esp+16]
  0002a	be 01 00 00 00	 mov	 esi, 1
  0002f	3b c6		 cmp	 eax, esi
  00031	7e 24		 jle	 SHORT $L77307
$L77305:

; 228  : 	{
; 229  : 		WORD key = m_Accelerators[accel];

  00033	8b 57 0c	 mov	 edx, DWORD PTR [edi+12]
  00036	33 c0		 xor	 eax, eax
  00038	66 8b 04 72	 mov	 ax, WORD PTR [edx+esi*2]

; 230  : 
; 231  : 		file.write((const char*)&key, 2);

  0003c	6a 02		 push	 2
  0003e	8d 4c 24 18	 lea	 ecx, DWORD PTR _key$77308[esp+16]
  00042	51		 push	 ecx
  00043	8b cb		 mov	 ecx, ebx
  00045	89 44 24 1c	 mov	 DWORD PTR _key$77308[esp+20], eax
  00049	e8 00 00 00 00	 call	 ?write@?$basic_ostream@DV?$char_traits@D@_STL@@@_STL@@QAEAAV12@PBDH@Z ; _STL::basic_ostream<char,_STL::char_traits<char> >::write
  0004e	8b 44 24 0c	 mov	 eax, DWORD PTR _num$[esp+16]
  00052	46		 inc	 esi
  00053	3b f0		 cmp	 esi, eax
  00055	7c dc		 jl	 SHORT $L77305
$L77307:
  00057	5f		 pop	 edi
  00058	5e		 pop	 esi
  00059	5b		 pop	 ebx

; 232  : 	}
; 233  : }

  0005a	59		 pop	 ecx
  0005b	c2 04 00	 ret	 4
?SaveToFile@KeyAccelerator@@QAEXAAV?$basic_ofstream@DV?$char_traits@D@_STL@@@_STL@@@Z ENDP ; KeyAccelerator::SaveToFile
_TEXT	ENDS
PUBLIC	??0?$map@GEU?$less@G@_STL@@V?$allocator@U?$pair@$$CBGE@_STL@@@2@@_STL@@QAE@XZ ; _STL::map<unsigned short,unsigned char,_STL::less<unsigned short>,_STL::allocator<_STL::pair<unsigned short const ,unsigned char> > >::map<unsigned short,unsigned char,_STL::less<unsigned short>,_STL::allocator<_STL::pair<unsigned short const ,unsigned char> > >
; Function compile flags: /Ogty
; File c:\stlport-4.6.1\stlport\stl\_map.h
;	COMDAT ??0?$map@GEU?$less@G@_STL@@V?$allocator@U?$pair@$$CBGE@_STL@@@2@@_STL@@QAE@XZ
_TEXT	SEGMENT
??0?$map@GEU?$less@G@_STL@@V?$allocator@U?$pair@$$CBGE@_STL@@@2@@_STL@@QAE@XZ PROC NEAR ; _STL::map<unsigned short,unsigned char,_STL::less<unsigned short>,_STL::allocator<_STL::pair<unsigned short const ,unsigned char> > >::map<unsigned short,unsigned char,_STL::less<unsigned short>,_STL::allocator<_STL::pair<unsigned short const ,unsigned char> > >, COMDAT
; _this$ = ecx

; 91   :   map() : _M_t(_Compare(), allocator_type()) {}

  00000	56		 push	 esi
  00001	8b f1		 mov	 esi, ecx
  00003	6a 14		 push	 20			; 00000014H
  00005	c7 06 00 00 00
	00		 mov	 DWORD PTR [esi], 0
  0000b	e8 00 00 00 00	 call	 ?_M_allocate@?$__node_alloc@$00$0A@@_STL@@CAPAXI@Z ; _STL::__node_alloc<1,0>::_M_allocate
  00010	89 06		 mov	 DWORD PTR [esi], eax
  00012	c7 46 04 00 00
	00 00		 mov	 DWORD PTR [esi+4], 0
  00019	c6 00 00	 mov	 BYTE PTR [eax], 0
  0001c	8b 06		 mov	 eax, DWORD PTR [esi]
  0001e	c7 40 04 00 00
	00 00		 mov	 DWORD PTR [eax+4], 0
  00025	8b 06		 mov	 eax, DWORD PTR [esi]
  00027	89 40 08	 mov	 DWORD PTR [eax+8], eax
  0002a	8b 06		 mov	 eax, DWORD PTR [esi]
  0002c	83 c4 04	 add	 esp, 4
  0002f	89 40 0c	 mov	 DWORD PTR [eax+12], eax
  00032	8b c6		 mov	 eax, esi
  00034	5e		 pop	 esi
  00035	c3		 ret	 0
??0?$map@GEU?$less@G@_STL@@V?$allocator@U?$pair@$$CBGE@_STL@@@2@@_STL@@QAE@XZ ENDP ; _STL::map<unsigned short,unsigned char,_STL::less<unsigned short>,_STL::allocator<_STL::pair<unsigned short const ,unsigned char> > >::map<unsigned short,unsigned char,_STL::less<unsigned short>,_STL::allocator<_STL::pair<unsigned short const ,unsigned char> > >
_TEXT	ENDS
PUBLIC	?lower_bound@?$map@GEU?$less@G@_STL@@V?$allocator@U?$pair@$$CBGE@_STL@@@2@@_STL@@QAE?AU?$_Rb_tree_iterator@U?$pair@$$CBGE@_STL@@U?$_Nonconst_traits@U?$pair@$$CBGE@_STL@@@2@@2@ABG@Z ; _STL::map<unsigned short,unsigned char,_STL::less<unsigned short>,_STL::allocator<_STL::pair<unsigned short const ,unsigned char> > >::lower_bound
; Function compile flags: /Ogty
;	COMDAT ?lower_bound@?$map@GEU?$less@G@_STL@@V?$allocator@U?$pair@$$CBGE@_STL@@@2@@_STL@@QAE?AU?$_Rb_tree_iterator@U?$pair@$$CBGE@_STL@@U?$_Nonconst_traits@U?$pair@$$CBGE@_STL@@@2@@2@ABG@Z
_TEXT	SEGMENT
___$ReturnUdt$ = 8					; size = 4
___x$ = 12						; size = 4
?lower_bound@?$map@GEU?$less@G@_STL@@V?$allocator@U?$pair@$$CBGE@_STL@@@2@@_STL@@QAE?AU?$_Rb_tree_iterator@U?$pair@$$CBGE@_STL@@U?$_Nonconst_traits@U?$pair@$$CBGE@_STL@@@2@@2@ABG@Z PROC NEAR ; _STL::map<unsigned short,unsigned char,_STL::less<unsigned short>,_STL::allocator<_STL::pair<unsigned short const ,unsigned char> > >::lower_bound, COMDAT
; _this$ = ecx

; 200  :   iterator lower_bound(const key_type& __x) {return _M_t.lower_bound(__x); }

  00000	8b 09		 mov	 ecx, DWORD PTR [ecx]
  00002	8b 41 04	 mov	 eax, DWORD PTR [ecx+4]
  00005	85 c0		 test	 eax, eax
  00007	74 1b		 je	 SHORT $L81445
  00009	8b 54 24 08	 mov	 edx, DWORD PTR ___x$[esp-4]
  0000d	66 8b 12	 mov	 dx, WORD PTR [edx]
$L81437:
  00010	66 39 50 10	 cmp	 WORD PTR [eax+16], dx
  00014	72 07		 jb	 SHORT $L81439
  00016	8b c8		 mov	 ecx, eax
  00018	8b 40 08	 mov	 eax, DWORD PTR [eax+8]
  0001b	eb 03		 jmp	 SHORT $L81440
$L81439:
  0001d	8b 40 0c	 mov	 eax, DWORD PTR [eax+12]
$L81440:
  00020	85 c0		 test	 eax, eax
  00022	75 ec		 jne	 SHORT $L81437
$L81445:
  00024	8b 44 24 04	 mov	 eax, DWORD PTR ___$ReturnUdt$[esp-4]
  00028	89 08		 mov	 DWORD PTR [eax], ecx
  0002a	c2 08 00	 ret	 8
?lower_bound@?$map@GEU?$less@G@_STL@@V?$allocator@U?$pair@$$CBGE@_STL@@@2@@_STL@@QAE?AU?$_Rb_tree_iterator@U?$pair@$$CBGE@_STL@@U?$_Nonconst_traits@U?$pair@$$CBGE@_STL@@@2@@2@ABG@Z ENDP ; _STL::map<unsigned short,unsigned char,_STL::less<unsigned short>,_STL::allocator<_STL::pair<unsigned short const ,unsigned char> > >::lower_bound
_TEXT	ENDS
PUBLIC	?insert_unique@?$_Rb_tree@GU?$pair@$$CBGE@_STL@@U?$_Select1st@U?$pair@$$CBGE@_STL@@@2@U?$less@G@2@V?$allocator@U?$pair@$$CBGE@_STL@@@2@@_STL@@QAE?AU?$_Rb_tree_iterator@U?$pair@$$CBGE@_STL@@U?$_Nonconst_traits@U?$pair@$$CBGE@_STL@@@2@@2@U32@ABU?$pair@$$CBGE@2@@Z ; _STL::_Rb_tree<unsigned short,_STL::pair<unsigned short const ,unsigned char>,_STL::_Select1st<_STL::pair<unsigned short const ,unsigned char> >,_STL::less<unsigned short>,_STL::allocator<_STL::pair<unsigned short const ,unsigned char> > >::insert_unique
; Function compile flags: /Ogty
; File c:\stlport-4.6.1\stlport\stl\_tree.c
;	COMDAT ?insert_unique@?$_Rb_tree@GU?$pair@$$CBGE@_STL@@U?$_Select1st@U?$pair@$$CBGE@_STL@@@2@U?$less@G@2@V?$allocator@U?$pair@$$CBGE@_STL@@@2@@_STL@@QAE?AU?$_Rb_tree_iterator@U?$pair@$$CBGE@_STL@@U?$_Nonconst_traits@U?$pair@$$CBGE@_STL@@@2@@2@U32@ABU?$pair@$$CBGE@2@@Z
_TEXT	SEGMENT
$T81460 = -8						; size = 8
$T81455 = -8						; size = 8
$T81453 = -8						; size = 8
$T81449 = -8						; size = 8
___$ReturnUdt$ = 8					; size = 4
___position$ = 12					; size = 4
___v$ = 16						; size = 4
?insert_unique@?$_Rb_tree@GU?$pair@$$CBGE@_STL@@U?$_Select1st@U?$pair@$$CBGE@_STL@@@2@U?$less@G@2@V?$allocator@U?$pair@$$CBGE@_STL@@@2@@_STL@@QAE?AU?$_Rb_tree_iterator@U?$pair@$$CBGE@_STL@@U?$_Nonconst_traits@U?$pair@$$CBGE@_STL@@@2@@2@U32@ABU?$pair@$$CBGE@2@@Z PROC NEAR ; _STL::_Rb_tree<unsigned short,_STL::pair<unsigned short const ,unsigned char>,_STL::_Select1st<_STL::pair<unsigned short const ,unsigned char> >,_STL::less<unsigned short>,_STL::allocator<_STL::pair<unsigned short const ,unsigned char> > >::insert_unique, COMDAT
; _this$ = ecx

; 426  : {

  00000	83 ec 08	 sub	 esp, 8
  00003	53		 push	 ebx
  00004	56		 push	 esi

; 427  :   if (__position._M_node == this->_M_header._M_data->_M_left) { // begin()

  00005	8b 74 24 18	 mov	 esi, DWORD PTR ___position$[esp+12]
  00009	57		 push	 edi
  0000a	8b f9		 mov	 edi, ecx
  0000c	8b 07		 mov	 eax, DWORD PTR [edi]
  0000e	3b 70 08	 cmp	 esi, DWORD PTR [eax+8]
  00011	0f 85 f5 00 00
	00		 jne	 $L77816

; 428  : 
; 429  :     // if the container is empty, fall back on insert_unique.
; 430  :     if (size() <= 0)

  00017	8b 47 04	 mov	 eax, DWORD PTR [edi+4]
  0001a	85 c0		 test	 eax, eax
  0001c	77 22		 ja	 SHORT $L77817

; 431  :       return insert_unique(__v).first;

  0001e	8b 44 24 20	 mov	 eax, DWORD PTR ___v$[esp+16]
  00022	50		 push	 eax
  00023	8d 4c 24 10	 lea	 ecx, DWORD PTR $T81449[esp+24]
  00027	51		 push	 ecx
  00028	8b cf		 mov	 ecx, edi
  0002a	e8 00 00 00 00	 call	 ?insert_unique@?$_Rb_tree@GU?$pair@$$CBGE@_STL@@U?$_Select1st@U?$pair@$$CBGE@_STL@@@2@U?$less@G@2@V?$allocator@U?$pair@$$CBGE@_STL@@@2@@_STL@@QAE?AU?$pair@U?$_Rb_tree_iterator@U?$pair@$$CBGE@_STL@@U?$_Nonconst_traits@U?$pair@$$CBGE@_STL@@@2@@_STL@@_N@2@ABU?$pair@$$CBGE@2@@Z ; _STL::_Rb_tree<unsigned short,_STL::pair<unsigned short const ,unsigned char>,_STL::_Select1st<_STL::pair<unsigned short const ,unsigned char> >,_STL::less<unsigned short>,_STL::allocator<_STL::pair<unsigned short const ,unsigned char> > >::insert_unique
  0002f	8b 10		 mov	 edx, DWORD PTR [eax]
  00031	8b 44 24 18	 mov	 eax, DWORD PTR ___$ReturnUdt$[esp+16]
  00035	5f		 pop	 edi
  00036	5e		 pop	 esi
  00037	89 10		 mov	 DWORD PTR [eax], edx
  00039	5b		 pop	 ebx

; 522  : 	}
; 523  :       }
; 524  :   }
; 525  : }

  0003a	83 c4 08	 add	 esp, 8
  0003d	c2 0c 00	 ret	 12			; 0000000cH
$L77817:

; 432  : 
; 433  :     if ( _M_key_compare(_KeyOfValue()(__v), _S_key(__position._M_node)))

  00040	8b 5c 24 20	 mov	 ebx, DWORD PTR ___v$[esp+16]
  00044	66 8b 03	 mov	 ax, WORD PTR [ebx]
  00047	66 8b 4e 10	 mov	 cx, WORD PTR [esi+16]
  0004b	66 3b c8	 cmp	 cx, ax
  0004e	76 1c		 jbe	 SHORT $L81690

; 434  :       return _M_insert(__position._M_node, __position._M_node, __v);

  00050	6a 00		 push	 0
  00052	53		 push	 ebx
  00053	56		 push	 esi
  00054	56		 push	 esi
  00055	8b 74 24 28	 mov	 esi, DWORD PTR ___$ReturnUdt$[esp+32]
  00059	56		 push	 esi
  0005a	8b cf		 mov	 ecx, edi
  0005c	e8 00 00 00 00	 call	 ?_M_insert@?$_Rb_tree@GU?$pair@$$CBGE@_STL@@U?$_Select1st@U?$pair@$$CBGE@_STL@@@2@U?$less@G@2@V?$allocator@U?$pair@$$CBGE@_STL@@@2@@_STL@@AAE?AU?$_Rb_tree_iterator@U?$pair@$$CBGE@_STL@@U?$_Nonconst_traits@U?$pair@$$CBGE@_STL@@@2@@2@PAU_Rb_tree_node_base@2@0ABU?$pair@$$CBGE@2@0@Z ; _STL::_Rb_tree<unsigned short,_STL::pair<unsigned short const ,unsigned char>,_STL::_Select1st<_STL::pair<unsigned short const ,unsigned char> >,_STL::less<unsigned short>,_STL::allocator<_STL::pair<unsigned short const ,unsigned char> > >::_M_insert
  00061	5f		 pop	 edi
  00062	8b c6		 mov	 eax, esi
  00064	5e		 pop	 esi
  00065	5b		 pop	 ebx

; 522  : 	}
; 523  :       }
; 524  :   }
; 525  : }

  00066	83 c4 08	 add	 esp, 8
  00069	c2 0c 00	 ret	 12			; 0000000cH
$L81690:

; 435  :     // first argument just needs to be non-null 
; 436  :     else
; 437  :       {
; 438  : 	bool __comp_pos_v = _M_key_compare( _S_key(__position._M_node), _KeyOfValue()(__v) );
; 439  : 	
; 440  : 	if (__comp_pos_v == false)  // compare > and compare < both false so compare equal

  0006c	72 0f		 jb	 SHORT $L77842

; 441  : 	  return __position;

  0006e	8b 44 24 18	 mov	 eax, DWORD PTR ___$ReturnUdt$[esp+16]
  00072	5f		 pop	 edi
  00073	89 30		 mov	 DWORD PTR [eax], esi
  00075	5e		 pop	 esi
  00076	5b		 pop	 ebx

; 522  : 	}
; 523  :       }
; 524  :   }
; 525  : }

  00077	83 c4 08	 add	 esp, 8
  0007a	c2 0c 00	 ret	 12			; 0000000cH
$L77842:

; 442  : 	//Below __comp_pos_v == true
; 443  : 
; 444  : 	// Standard-conformance - does the insertion point fall immediately AFTER
; 445  : 	// the hint?
; 446  : 	iterator __after = __position;
; 447  : 	++__after;

  0007d	56		 push	 esi
  0007e	e8 00 00 00 00	 call	 ?_M_increment@?$_Rb_global@_N@_STL@@SAPAU_Rb_tree_node_base@2@PAU32@@Z ; _STL::_Rb_global<bool>::_M_increment

; 448  : 
; 449  : 	// Check for only one member -- in that case, __position points to itself,
; 450  : 	// and attempting to increment will cause an infinite loop.
; 451  : 	if (__after._M_node == this->_M_header._M_data)

  00083	8b 0f		 mov	 ecx, DWORD PTR [edi]
  00085	83 c4 04	 add	 esp, 4
  00088	3b c1		 cmp	 eax, ecx
  0008a	75 1c		 jne	 SHORT $L77844

; 452  : 	  // Check guarantees exactly one member, so comparison was already
; 453  : 	  // performed and we know the result; skip repeating it in _M_insert
; 454  : 	  // by specifying a non-zero fourth argument.
; 455  : 	  return _M_insert(0, __position._M_node, __v, __position._M_node);

  0008c	56		 push	 esi
  0008d	53		 push	 ebx
  0008e	56		 push	 esi
  0008f	8b 74 24 24	 mov	 esi, DWORD PTR ___$ReturnUdt$[esp+28]
  00093	6a 00		 push	 0
  00095	56		 push	 esi
  00096	8b cf		 mov	 ecx, edi
  00098	e8 00 00 00 00	 call	 ?_M_insert@?$_Rb_tree@GU?$pair@$$CBGE@_STL@@U?$_Select1st@U?$pair@$$CBGE@_STL@@@2@U?$less@G@2@V?$allocator@U?$pair@$$CBGE@_STL@@@2@@_STL@@AAE?AU?$_Rb_tree_iterator@U?$pair@$$CBGE@_STL@@U?$_Nonconst_traits@U?$pair@$$CBGE@_STL@@@2@@2@PAU_Rb_tree_node_base@2@0ABU?$pair@$$CBGE@2@0@Z ; _STL::_Rb_tree<unsigned short,_STL::pair<unsigned short const ,unsigned char>,_STL::_Select1st<_STL::pair<unsigned short const ,unsigned char> >,_STL::less<unsigned short>,_STL::allocator<_STL::pair<unsigned short const ,unsigned char> > >::_M_insert
  0009d	5f		 pop	 edi
  0009e	8b c6		 mov	 eax, esi
  000a0	5e		 pop	 esi
  000a1	5b		 pop	 ebx

; 522  : 	}
; 523  :       }
; 524  :   }
; 525  : }

  000a2	83 c4 08	 add	 esp, 8
  000a5	c2 0c 00	 ret	 12			; 0000000cH
$L77844:

; 456  : 		
; 457  : 	
; 458  : 	// All other cases:
; 459  : 	
; 460  : 	// Optimization to catch insert-equivalent -- save comparison results,
; 461  : 	// and we get this for free.
; 462  : 	if(_M_key_compare( _KeyOfValue()(__v), _S_key(__after._M_node) )) {

  000a8	66 8b 0b	 mov	 cx, WORD PTR [ebx]
  000ab	66 3b 48 10	 cmp	 cx, WORD PTR [eax+16]
  000af	73 3d		 jae	 SHORT $L77847

; 463  : 	  if (_S_right(__position._M_node) == 0)

  000b1	8b 4e 0c	 mov	 ecx, DWORD PTR [esi+12]
  000b4	85 c9		 test	 ecx, ecx

; 464  : 	    return _M_insert(0, __position._M_node, __v, __position._M_node);

  000b6	8b cf		 mov	 ecx, edi
  000b8	75 1a		 jne	 SHORT $L77848
  000ba	56		 push	 esi
  000bb	53		 push	 ebx
  000bc	56		 push	 esi
  000bd	8b 74 24 24	 mov	 esi, DWORD PTR ___$ReturnUdt$[esp+28]
  000c1	6a 00		 push	 0
  000c3	56		 push	 esi
  000c4	e8 00 00 00 00	 call	 ?_M_insert@?$_Rb_tree@GU?$pair@$$CBGE@_STL@@U?$_Select1st@U?$pair@$$CBGE@_STL@@@2@U?$less@G@2@V?$allocator@U?$pair@$$CBGE@_STL@@@2@@_STL@@AAE?AU?$_Rb_tree_iterator@U?$pair@$$CBGE@_STL@@U?$_Nonconst_traits@U?$pair@$$CBGE@_STL@@@2@@2@PAU_Rb_tree_node_base@2@0ABU?$pair@$$CBGE@2@0@Z ; _STL::_Rb_tree<unsigned short,_STL::pair<unsigned short const ,unsigned char>,_STL::_Select1st<_STL::pair<unsigned short const ,unsigned char> >,_STL::less<unsigned short>,_STL::allocator<_STL::pair<unsigned short const ,unsigned char> > >::_M_insert
  000c9	5f		 pop	 edi
  000ca	8b c6		 mov	 eax, esi
  000cc	5e		 pop	 esi
  000cd	5b		 pop	 ebx

; 522  : 	}
; 523  :       }
; 524  :   }
; 525  : }

  000ce	83 c4 08	 add	 esp, 8
  000d1	c2 0c 00	 ret	 12			; 0000000cH
$L77848:

; 465  : 	  else
; 466  : 	    return _M_insert(__after._M_node, __after._M_node, __v);

  000d4	8b 74 24 18	 mov	 esi, DWORD PTR ___$ReturnUdt$[esp+16]
  000d8	6a 00		 push	 0
  000da	53		 push	 ebx
  000db	50		 push	 eax
  000dc	50		 push	 eax
  000dd	56		 push	 esi
  000de	e8 00 00 00 00	 call	 ?_M_insert@?$_Rb_tree@GU?$pair@$$CBGE@_STL@@U?$_Select1st@U?$pair@$$CBGE@_STL@@@2@U?$less@G@2@V?$allocator@U?$pair@$$CBGE@_STL@@@2@@_STL@@AAE?AU?$_Rb_tree_iterator@U?$pair@$$CBGE@_STL@@U?$_Nonconst_traits@U?$pair@$$CBGE@_STL@@@2@@2@PAU_Rb_tree_node_base@2@0ABU?$pair@$$CBGE@2@0@Z ; _STL::_Rb_tree<unsigned short,_STL::pair<unsigned short const ,unsigned char>,_STL::_Select1st<_STL::pair<unsigned short const ,unsigned char> >,_STL::less<unsigned short>,_STL::allocator<_STL::pair<unsigned short const ,unsigned char> > >::_M_insert
  000e3	5f		 pop	 edi
  000e4	8b c6		 mov	 eax, esi
  000e6	5e		 pop	 esi
  000e7	5b		 pop	 ebx

; 522  : 	}
; 523  :       }
; 524  :   }
; 525  : }

  000e8	83 c4 08	 add	 esp, 8
  000eb	c2 0c 00	 ret	 12			; 0000000cH
$L77847:

; 467  : 	} else {
; 468  : 	    return insert_unique(__v).first;

  000ee	53		 push	 ebx
  000ef	8d 54 24 10	 lea	 edx, DWORD PTR $T81453[esp+24]
  000f3	52		 push	 edx
  000f4	8b cf		 mov	 ecx, edi
  000f6	e8 00 00 00 00	 call	 ?insert_unique@?$_Rb_tree@GU?$pair@$$CBGE@_STL@@U?$_Select1st@U?$pair@$$CBGE@_STL@@@2@U?$less@G@2@V?$allocator@U?$pair@$$CBGE@_STL@@@2@@_STL@@QAE?AU?$pair@U?$_Rb_tree_iterator@U?$pair@$$CBGE@_STL@@U?$_Nonconst_traits@U?$pair@$$CBGE@_STL@@@2@@_STL@@_N@2@ABU?$pair@$$CBGE@2@@Z ; _STL::_Rb_tree<unsigned short,_STL::pair<unsigned short const ,unsigned char>,_STL::_Select1st<_STL::pair<unsigned short const ,unsigned char> >,_STL::less<unsigned short>,_STL::allocator<_STL::pair<unsigned short const ,unsigned char> > >::insert_unique
  000fb	8b 08		 mov	 ecx, DWORD PTR [eax]
  000fd	8b 44 24 18	 mov	 eax, DWORD PTR ___$ReturnUdt$[esp+16]
  00101	5f		 pop	 edi
  00102	5e		 pop	 esi
  00103	89 08		 mov	 DWORD PTR [eax], ecx
  00105	5b		 pop	 ebx

; 522  : 	}
; 523  :       }
; 524  :   }
; 525  : }

  00106	83 c4 08	 add	 esp, 8
  00109	c2 0c 00	 ret	 12			; 0000000cH
$L77816:

; 469  : 	}
; 470  :       }
; 471  : 
; 472  :   } else if (__position._M_node == this->_M_header._M_data) { // end()

  0010c	3b f0		 cmp	 esi, eax
  0010e	75 4a		 jne	 SHORT $L77855

; 473  :     if (_M_key_compare(_S_key(_M_rightmost()), _KeyOfValue()(__v)))

  00110	8b 48 0c	 mov	 ecx, DWORD PTR [eax+12]
  00113	66 8b 51 10	 mov	 dx, WORD PTR [ecx+16]
  00117	8b 44 24 20	 mov	 eax, DWORD PTR ___v$[esp+16]
  0011b	66 3b 10	 cmp	 dx, WORD PTR [eax]
  0011e	73 1c		 jae	 SHORT $L77857

; 474  :       // pass along to _M_insert that it can skip comparing
; 475  :       // v, Key ; since compare Key, v was true, compare v, Key must be false.
; 476  :       return _M_insert(0, _M_rightmost(), __v, __position._M_node); // Last argument only needs to be non-null

  00120	56		 push	 esi
  00121	8b 74 24 1c	 mov	 esi, DWORD PTR ___$ReturnUdt$[esp+20]
  00125	50		 push	 eax
  00126	51		 push	 ecx
  00127	6a 00		 push	 0
  00129	56		 push	 esi
  0012a	8b cf		 mov	 ecx, edi
  0012c	e8 00 00 00 00	 call	 ?_M_insert@?$_Rb_tree@GU?$pair@$$CBGE@_STL@@U?$_Select1st@U?$pair@$$CBGE@_STL@@@2@U?$less@G@2@V?$allocator@U?$pair@$$CBGE@_STL@@@2@@_STL@@AAE?AU?$_Rb_tree_iterator@U?$pair@$$CBGE@_STL@@U?$_Nonconst_traits@U?$pair@$$CBGE@_STL@@@2@@2@PAU_Rb_tree_node_base@2@0ABU?$pair@$$CBGE@2@0@Z ; _STL::_Rb_tree<unsigned short,_STL::pair<unsigned short const ,unsigned char>,_STL::_Select1st<_STL::pair<unsigned short const ,unsigned char> >,_STL::less<unsigned short>,_STL::allocator<_STL::pair<unsigned short const ,unsigned char> > >::_M_insert
  00131	5f		 pop	 edi
  00132	8b c6		 mov	 eax, esi
  00134	5e		 pop	 esi
  00135	5b		 pop	 ebx

; 522  : 	}
; 523  :       }
; 524  :   }
; 525  : }

  00136	83 c4 08	 add	 esp, 8
  00139	c2 0c 00	 ret	 12			; 0000000cH
$L77857:

; 477  :     else
; 478  :       return insert_unique(__v).first;

  0013c	50		 push	 eax
  0013d	8d 44 24 10	 lea	 eax, DWORD PTR $T81455[esp+24]
  00141	50		 push	 eax
  00142	8b cf		 mov	 ecx, edi
  00144	e8 00 00 00 00	 call	 ?insert_unique@?$_Rb_tree@GU?$pair@$$CBGE@_STL@@U?$_Select1st@U?$pair@$$CBGE@_STL@@@2@U?$less@G@2@V?$allocator@U?$pair@$$CBGE@_STL@@@2@@_STL@@QAE?AU?$pair@U?$_Rb_tree_iterator@U?$pair@$$CBGE@_STL@@U?$_Nonconst_traits@U?$pair@$$CBGE@_STL@@@2@@_STL@@_N@2@ABU?$pair@$$CBGE@2@@Z ; _STL::_Rb_tree<unsigned short,_STL::pair<unsigned short const ,unsigned char>,_STL::_Select1st<_STL::pair<unsigned short const ,unsigned char> >,_STL::less<unsigned short>,_STL::allocator<_STL::pair<unsigned short const ,unsigned char> > >::insert_unique
  00149	8b 08		 mov	 ecx, DWORD PTR [eax]
  0014b	8b 44 24 18	 mov	 eax, DWORD PTR ___$ReturnUdt$[esp+16]
  0014f	5f		 pop	 edi
  00150	5e		 pop	 esi
  00151	89 08		 mov	 DWORD PTR [eax], ecx
  00153	5b		 pop	 ebx

; 522  : 	}
; 523  :       }
; 524  :   }
; 525  : }

  00154	83 c4 08	 add	 esp, 8
  00157	c2 0c 00	 ret	 12			; 0000000cH
$L77855:
  0015a	55		 push	 ebp

; 479  :   } else {
; 480  :     iterator __before = __position;
; 481  :     --__before;

  0015b	56		 push	 esi
  0015c	e8 00 00 00 00	 call	 ?_M_decrement@?$_Rb_global@_N@_STL@@SAPAU_Rb_tree_node_base@2@PAU32@@Z ; _STL::_Rb_global<bool>::_M_decrement

; 482  :     
; 483  :     bool __comp_v_pos = _M_key_compare(_KeyOfValue()(__v), _S_key(__position._M_node));

  00161	8b 6c 24 28	 mov	 ebp, DWORD PTR ___v$[esp+24]
  00165	66 8b 4d 00	 mov	 cx, WORD PTR [ebp]
  00169	83 c4 04	 add	 esp, 4
  0016c	66 3b 4e 10	 cmp	 cx, WORD PTR [esi+16]
  00170	0f 92 c3	 setb	 bl

; 484  : 
; 485  :     if (__comp_v_pos
; 486  :       && _M_key_compare( _S_key(__before._M_node), _KeyOfValue()(__v) )) {

  00173	84 db		 test	 bl, bl
  00175	74 45		 je	 SHORT $L77866
  00177	66 39 48 10	 cmp	 WORD PTR [eax+16], cx
  0017b	73 3f		 jae	 SHORT $L77866

; 487  : 
; 488  :       if (_S_right(__before._M_node) == 0)

  0017d	8b 48 0c	 mov	 ecx, DWORD PTR [eax+12]
  00180	85 c9		 test	 ecx, ecx

; 489  :         return _M_insert(0, __before._M_node, __v, __before._M_node); // Last argument only needs to be non-null

  00182	8b cf		 mov	 ecx, edi
  00184	75 1b		 jne	 SHORT $L77867
  00186	8b 74 24 1c	 mov	 esi, DWORD PTR ___$ReturnUdt$[esp+20]
  0018a	50		 push	 eax
  0018b	55		 push	 ebp
  0018c	50		 push	 eax
  0018d	6a 00		 push	 0
  0018f	56		 push	 esi
  00190	e8 00 00 00 00	 call	 ?_M_insert@?$_Rb_tree@GU?$pair@$$CBGE@_STL@@U?$_Select1st@U?$pair@$$CBGE@_STL@@@2@U?$less@G@2@V?$allocator@U?$pair@$$CBGE@_STL@@@2@@_STL@@AAE?AU?$_Rb_tree_iterator@U?$pair@$$CBGE@_STL@@U?$_Nonconst_traits@U?$pair@$$CBGE@_STL@@@2@@2@PAU_Rb_tree_node_base@2@0ABU?$pair@$$CBGE@2@0@Z ; _STL::_Rb_tree<unsigned short,_STL::pair<unsigned short const ,unsigned char>,_STL::_Select1st<_STL::pair<unsigned short const ,unsigned char> >,_STL::less<unsigned short>,_STL::allocator<_STL::pair<unsigned short const ,unsigned char> > >::_M_insert
  00195	5d		 pop	 ebp
  00196	5f		 pop	 edi
  00197	8b c6		 mov	 eax, esi
  00199	5e		 pop	 esi
  0019a	5b		 pop	 ebx

; 522  : 	}
; 523  :       }
; 524  :   }
; 525  : }

  0019b	83 c4 08	 add	 esp, 8
  0019e	c2 0c 00	 ret	 12			; 0000000cH
$L77867:

; 490  :       else
; 491  :         return _M_insert(__position._M_node, __position._M_node, __v);

  001a1	6a 00		 push	 0
  001a3	55		 push	 ebp
  001a4	56		 push	 esi
  001a5	56		 push	 esi
  001a6	8b 74 24 2c	 mov	 esi, DWORD PTR ___$ReturnUdt$[esp+36]
  001aa	56		 push	 esi
  001ab	e8 00 00 00 00	 call	 ?_M_insert@?$_Rb_tree@GU?$pair@$$CBGE@_STL@@U?$_Select1st@U?$pair@$$CBGE@_STL@@@2@U?$less@G@2@V?$allocator@U?$pair@$$CBGE@_STL@@@2@@_STL@@AAE?AU?$_Rb_tree_iterator@U?$pair@$$CBGE@_STL@@U?$_Nonconst_traits@U?$pair@$$CBGE@_STL@@@2@@2@PAU_Rb_tree_node_base@2@0ABU?$pair@$$CBGE@2@0@Z ; _STL::_Rb_tree<unsigned short,_STL::pair<unsigned short const ,unsigned char>,_STL::_Select1st<_STL::pair<unsigned short const ,unsigned char> >,_STL::less<unsigned short>,_STL::allocator<_STL::pair<unsigned short const ,unsigned char> > >::_M_insert
  001b0	5d		 pop	 ebp
  001b1	5f		 pop	 edi
  001b2	8b c6		 mov	 eax, esi
  001b4	5e		 pop	 esi
  001b5	5b		 pop	 ebx

; 522  : 	}
; 523  :       }
; 524  :   }
; 525  : }

  001b6	83 c4 08	 add	 esp, 8
  001b9	c2 0c 00	 ret	 12			; 0000000cH
$L77866:

; 492  :     // first argument just needs to be non-null 
; 493  :     } else
; 494  :       {
; 495  : 	// Does the insertion point fall immediately AFTER the hint?
; 496  : 	iterator __after = __position;
; 497  : 	++__after;

  001bc	56		 push	 esi
  001bd	e8 00 00 00 00	 call	 ?_M_increment@?$_Rb_global@_N@_STL@@SAPAU_Rb_tree_node_base@2@PAU32@@Z ; _STL::_Rb_global<bool>::_M_increment
  001c2	83 c4 04	 add	 esp, 4

; 498  : 	
; 499  : 	// Optimization to catch equivalent cases and avoid unnecessary comparisons
; 500  : 	bool __comp_pos_v = !__comp_v_pos;  // Stored this result earlier

  001c5	84 db		 test	 bl, bl
  001c7	0f 94 c1	 sete	 cl

; 501  : 	// If the earlier comparison was true, this comparison doesn't need to be
; 502  : 	// performed because it must be false.  However, if the earlier comparison
; 503  : 	// was false, we need to perform this one because in the equal case, both will
; 504  : 	// be false.
; 505  : 	if (!__comp_v_pos) __comp_pos_v = _M_key_compare(_S_key(__position._M_node), _KeyOfValue()(__v));

  001ca	84 db		 test	 bl, bl
  001cc	75 58		 jne	 SHORT $L77877
  001ce	66 8b 55 00	 mov	 dx, WORD PTR [ebp]
  001d2	66 39 56 10	 cmp	 WORD PTR [esi+16], dx
  001d6	0f 92 c1	 setb	 cl

; 506  : 	
; 507  : 	if ( (!__comp_v_pos) // comp_v_pos true implies comp_v_pos false
; 508  : 	     && __comp_pos_v
; 509  : 	     && (__after._M_node == this->_M_header._M_data ||
; 510  : 	        _M_key_compare( _KeyOfValue()(__v), _S_key(__after._M_node) ))) {

  001d9	84 c9		 test	 cl, cl
  001db	74 4d		 je	 SHORT $L81688
  001dd	3b 07		 cmp	 eax, DWORD PTR [edi]
  001df	74 06		 je	 SHORT $L77878
  001e1	66 3b 50 10	 cmp	 dx, WORD PTR [eax+16]
  001e5	73 3f		 jae	 SHORT $L77877
$L77878:

; 511  : 	  
; 512  : 	  if (_S_right(__position._M_node) == 0)

  001e7	8b 4e 0c	 mov	 ecx, DWORD PTR [esi+12]
  001ea	85 c9		 test	 ecx, ecx

; 513  : 	    return _M_insert(0, __position._M_node, __v, __position._M_node);

  001ec	8b cf		 mov	 ecx, edi
  001ee	75 1b		 jne	 SHORT $L77879
  001f0	56		 push	 esi
  001f1	55		 push	 ebp
  001f2	56		 push	 esi
  001f3	8b 74 24 28	 mov	 esi, DWORD PTR ___$ReturnUdt$[esp+32]
  001f7	6a 00		 push	 0
  001f9	56		 push	 esi
  001fa	e8 00 00 00 00	 call	 ?_M_insert@?$_Rb_tree@GU?$pair@$$CBGE@_STL@@U?$_Select1st@U?$pair@$$CBGE@_STL@@@2@U?$less@G@2@V?$allocator@U?$pair@$$CBGE@_STL@@@2@@_STL@@AAE?AU?$_Rb_tree_iterator@U?$pair@$$CBGE@_STL@@U?$_Nonconst_traits@U?$pair@$$CBGE@_STL@@@2@@2@PAU_Rb_tree_node_base@2@0ABU?$pair@$$CBGE@2@0@Z ; _STL::_Rb_tree<unsigned short,_STL::pair<unsigned short const ,unsigned char>,_STL::_Select1st<_STL::pair<unsigned short const ,unsigned char> >,_STL::less<unsigned short>,_STL::allocator<_STL::pair<unsigned short const ,unsigned char> > >::_M_insert
  001ff	5d		 pop	 ebp
  00200	5f		 pop	 edi
  00201	8b c6		 mov	 eax, esi
  00203	5e		 pop	 esi
  00204	5b		 pop	 ebx

; 522  : 	}
; 523  :       }
; 524  :   }
; 525  : }

  00205	83 c4 08	 add	 esp, 8
  00208	c2 0c 00	 ret	 12			; 0000000cH
$L77879:

; 514  : 	  else
; 515  : 	    return _M_insert(__after._M_node, __after._M_node, __v);

  0020b	8b 74 24 1c	 mov	 esi, DWORD PTR ___$ReturnUdt$[esp+20]
  0020f	6a 00		 push	 0
  00211	55		 push	 ebp
  00212	50		 push	 eax
  00213	50		 push	 eax
  00214	56		 push	 esi
  00215	e8 00 00 00 00	 call	 ?_M_insert@?$_Rb_tree@GU?$pair@$$CBGE@_STL@@U?$_Select1st@U?$pair@$$CBGE@_STL@@@2@U?$less@G@2@V?$allocator@U?$pair@$$CBGE@_STL@@@2@@_STL@@AAE?AU?$_Rb_tree_iterator@U?$pair@$$CBGE@_STL@@U?$_Nonconst_traits@U?$pair@$$CBGE@_STL@@@2@@2@PAU_Rb_tree_node_base@2@0ABU?$pair@$$CBGE@2@0@Z ; _STL::_Rb_tree<unsigned short,_STL::pair<unsigned short const ,unsigned char>,_STL::_Select1st<_STL::pair<unsigned short const ,unsigned char> >,_STL::less<unsigned short>,_STL::allocator<_STL::pair<unsigned short const ,unsigned char> > >::_M_insert
  0021a	5d		 pop	 ebp
  0021b	5f		 pop	 edi
  0021c	8b c6		 mov	 eax, esi
  0021e	5e		 pop	 esi
  0021f	5b		 pop	 ebx

; 522  : 	}
; 523  :       }
; 524  :   }
; 525  : }

  00220	83 c4 08	 add	 esp, 8
  00223	c2 0c 00	 ret	 12			; 0000000cH
$L77877:

; 516  : 	} else {
; 517  : 	  // Test for equivalent case
; 518  : 	  if (__comp_v_pos == __comp_pos_v)

  00226	3a d9		 cmp	 bl, cl
  00228	75 10		 jne	 SHORT $L77884
$L81688:

; 519  : 	    return __position;

  0022a	8b 44 24 1c	 mov	 eax, DWORD PTR ___$ReturnUdt$[esp+20]
  0022e	5d		 pop	 ebp
  0022f	5f		 pop	 edi
  00230	89 30		 mov	 DWORD PTR [eax], esi
  00232	5e		 pop	 esi
  00233	5b		 pop	 ebx

; 522  : 	}
; 523  :       }
; 524  :   }
; 525  : }

  00234	83 c4 08	 add	 esp, 8
  00237	c2 0c 00	 ret	 12			; 0000000cH
$L77884:

; 520  : 	  else
; 521  : 	    return insert_unique(__v).first;

  0023a	55		 push	 ebp
  0023b	8d 54 24 14	 lea	 edx, DWORD PTR $T81460[esp+28]
  0023f	52		 push	 edx
  00240	8b cf		 mov	 ecx, edi
  00242	e8 00 00 00 00	 call	 ?insert_unique@?$_Rb_tree@GU?$pair@$$CBGE@_STL@@U?$_Select1st@U?$pair@$$CBGE@_STL@@@2@U?$less@G@2@V?$allocator@U?$pair@$$CBGE@_STL@@@2@@_STL@@QAE?AU?$pair@U?$_Rb_tree_iterator@U?$pair@$$CBGE@_STL@@U?$_Nonconst_traits@U?$pair@$$CBGE@_STL@@@2@@_STL@@_N@2@ABU?$pair@$$CBGE@2@@Z ; _STL::_Rb_tree<unsigned short,_STL::pair<unsigned short const ,unsigned char>,_STL::_Select1st<_STL::pair<unsigned short const ,unsigned char> >,_STL::less<unsigned short>,_STL::allocator<_STL::pair<unsigned short const ,unsigned char> > >::insert_unique
  00247	8b 08		 mov	 ecx, DWORD PTR [eax]
  00249	8b 44 24 1c	 mov	 eax, DWORD PTR ___$ReturnUdt$[esp+20]
  0024d	5d		 pop	 ebp
  0024e	5f		 pop	 edi
  0024f	5e		 pop	 esi
  00250	89 08		 mov	 DWORD PTR [eax], ecx
  00252	5b		 pop	 ebx

; 522  : 	}
; 523  :       }
; 524  :   }
; 525  : }

  00253	83 c4 08	 add	 esp, 8
  00256	c2 0c 00	 ret	 12			; 0000000cH
?insert_unique@?$_Rb_tree@GU?$pair@$$CBGE@_STL@@U?$_Select1st@U?$pair@$$CBGE@_STL@@@2@U?$less@G@2@V?$allocator@U?$pair@$$CBGE@_STL@@@2@@_STL@@QAE?AU?$_Rb_tree_iterator@U?$pair@$$CBGE@_STL@@U?$_Nonconst_traits@U?$pair@$$CBGE@_STL@@@2@@2@U32@ABU?$pair@$$CBGE@2@@Z ENDP ; _STL::_Rb_tree<unsigned short,_STL::pair<unsigned short const ,unsigned char>,_STL::_Select1st<_STL::pair<unsigned short const ,unsigned char> >,_STL::less<unsigned short>,_STL::allocator<_STL::pair<unsigned short const ,unsigned char> > >::insert_unique
_TEXT	ENDS
PUBLIC	?reserve@?$vector@GV?$allocator@G@_STL@@@_STL@@QAEXI@Z ; _STL::vector<unsigned short,_STL::allocator<unsigned short> >::reserve
; Function compile flags: /Ogty
; File c:\stlport-4.6.1\stlport\stl\_vector.c
;	COMDAT ?reserve@?$vector@GV?$allocator@G@_STL@@@_STL@@QAEXI@Z
_TEXT	SEGMENT
___n$ = 8						; size = 4
?reserve@?$vector@GV?$allocator@G@_STL@@@_STL@@QAEXI@Z PROC NEAR ; _STL::vector<unsigned short,_STL::allocator<unsigned short> >::reserve, COMDAT
; _this$ = ecx

; 45   : __vector__<_Tp, _Alloc>::reserve(size_type __n) {

  00000	55		 push	 ebp

; 46   :   if (capacity() < __n) {

  00001	8b 6c 24 08	 mov	 ebp, DWORD PTR ___n$[esp]
  00005	56		 push	 esi
  00006	8b f1		 mov	 esi, ecx
  00008	8b 06		 mov	 eax, DWORD PTR [esi]
  0000a	8b 4e 08	 mov	 ecx, DWORD PTR [esi+8]
  0000d	2b c8		 sub	 ecx, eax
  0000f	d1 f9		 sar	 ecx, 1
  00011	3b cd		 cmp	 ecx, ebp
  00013	0f 83 82 00 00
	00		 jae	 $L81767

; 47   :     const size_type __old_size = size();

  00019	8b 4e 04	 mov	 ecx, DWORD PTR [esi+4]
  0001c	53		 push	 ebx
  0001d	8b d9		 mov	 ebx, ecx
  0001f	2b d8		 sub	 ebx, eax
  00021	d1 fb		 sar	 ebx, 1

; 48   :     pointer __tmp;
; 49   :     if (this->_M_start) {

  00023	85 c0		 test	 eax, eax
  00025	57		 push	 edi
  00026	74 39		 je	 SHORT $L77896

; 50   :       __tmp = _M_allocate_and_copy(__n, this->_M_start, this->_M_finish);

  00028	51		 push	 ecx
  00029	50		 push	 eax
  0002a	55		 push	 ebp
  0002b	8b ce		 mov	 ecx, esi
  0002d	e8 00 00 00 00	 call	 ??$_M_allocate_and_copy@PAG@?$vector@GV?$allocator@G@_STL@@@_STL@@IAEPAGIPAG0@Z ; _STL::vector<unsigned short,_STL::allocator<unsigned short> >::_M_allocate_and_copy<unsigned short *>

; 51   :       _M_clear();

  00032	8b 0e		 mov	 ecx, DWORD PTR [esi]
  00034	85 c9		 test	 ecx, ecx
  00036	8b f8		 mov	 edi, eax
  00038	74 51		 je	 SHORT $L81759
  0003a	8b 46 08	 mov	 eax, DWORD PTR [esi+8]
  0003d	2b c1		 sub	 eax, ecx
  0003f	d1 f8		 sar	 eax, 1
  00041	d1 e0		 shl	 eax, 1
  00043	3d 80 00 00 00	 cmp	 eax, 128		; 00000080H
  00048	76 0b		 jbe	 SHORT $L81735
  0004a	51		 push	 ecx
  0004b	e8 00 00 00 00	 call	 ??3@YAXPAX@Z		; operator delete
  00050	83 c4 04	 add	 esp, 4
  00053	eb 36		 jmp	 SHORT $L81759
$L81735:
  00055	50		 push	 eax
  00056	51		 push	 ecx
  00057	e8 00 00 00 00	 call	 ?_M_deallocate@?$__node_alloc@$00$0A@@_STL@@CAXPAXI@Z ; _STL::__node_alloc<1,0>::_M_deallocate
  0005c	83 c4 08	 add	 esp, 8

; 52   :     } else {

  0005f	eb 2a		 jmp	 SHORT $L81759
$L77896:

; 53   :       __tmp = this->_M_end_of_storage.allocate(__n);

  00061	85 ed		 test	 ebp, ebp
  00063	74 24		 je	 SHORT $L81758
  00065	8d 44 2d 00	 lea	 eax, DWORD PTR [ebp+ebp]
  00069	3d 80 00 00 00	 cmp	 eax, 128		; 00000080H
  0006e	50		 push	 eax
  0006f	76 0c		 jbe	 SHORT $L81762
  00071	e8 00 00 00 00	 call	 ??2@YAPAXI@Z		; operator new
  00076	83 c4 04	 add	 esp, 4
  00079	8b f8		 mov	 edi, eax
  0007b	eb 0e		 jmp	 SHORT $L81759
$L81762:
  0007d	e8 00 00 00 00	 call	 ?_M_allocate@?$__node_alloc@$00$0A@@_STL@@CAPAXI@Z ; _STL::__node_alloc<1,0>::_M_allocate
  00082	83 c4 04	 add	 esp, 4
  00085	8b f8		 mov	 edi, eax
  00087	eb 02		 jmp	 SHORT $L81759
$L81758:
  00089	33 ff		 xor	 edi, edi
$L81759:

; 54   :     }
; 55   :     _M_set(__tmp, __tmp + __old_size, __tmp + __n);

  0008b	8d 14 5f	 lea	 edx, DWORD PTR [edi+ebx*2]
  0008e	8d 04 6f	 lea	 eax, DWORD PTR [edi+ebp*2]
  00091	89 3e		 mov	 DWORD PTR [esi], edi
  00093	5f		 pop	 edi
  00094	89 56 04	 mov	 DWORD PTR [esi+4], edx
  00097	89 46 08	 mov	 DWORD PTR [esi+8], eax
  0009a	5b		 pop	 ebx
$L81767:
  0009b	5e		 pop	 esi
  0009c	5d		 pop	 ebp

; 56   :   }
; 57   : }

  0009d	c2 04 00	 ret	 4
?reserve@?$vector@GV?$allocator@G@_STL@@@_STL@@QAEXI@Z ENDP ; _STL::vector<unsigned short,_STL::allocator<unsigned short> >::reserve
_TEXT	ENDS
PUBLIC	??0KeyAccelerator@@QAE@XZ			; KeyAccelerator::KeyAccelerator
; Function compile flags: /Ogty
; File c:\darkeden\designed_common\project\new - vs_ui\src\keyaccelerator.cpp
;	COMDAT ??0KeyAccelerator@@QAE@XZ
_TEXT	SEGMENT
??0KeyAccelerator@@QAE@XZ PROC NEAR			; KeyAccelerator::KeyAccelerator, COMDAT
; _this$ = ecx

; 36   : {

  00000	53		 push	 ebx
  00001	56		 push	 esi
  00002	8b f1		 mov	 esi, ecx
  00004	33 db		 xor	 ebx, ebx
  00006	6a 14		 push	 20			; 00000014H
  00008	89 1e		 mov	 DWORD PTR [esi], ebx
  0000a	e8 00 00 00 00	 call	 ?_M_allocate@?$__node_alloc@$00$0A@@_STL@@CAPAXI@Z ; _STL::__node_alloc<1,0>::_M_allocate
  0000f	89 06		 mov	 DWORD PTR [esi], eax
  00011	89 5e 04	 mov	 DWORD PTR [esi+4], ebx
  00014	88 18		 mov	 BYTE PTR [eax], bl
  00016	8b 06		 mov	 eax, DWORD PTR [esi]
  00018	89 58 04	 mov	 DWORD PTR [eax+4], ebx
  0001b	8b 06		 mov	 eax, DWORD PTR [esi]
  0001d	89 40 08	 mov	 DWORD PTR [eax+8], eax
  00020	8b 06		 mov	 eax, DWORD PTR [esi]
  00022	89 40 0c	 mov	 DWORD PTR [eax+12], eax
  00025	89 5e 0c	 mov	 DWORD PTR [esi+12], ebx
  00028	89 5e 10	 mov	 DWORD PTR [esi+16], ebx
  0002b	83 c4 04	 add	 esp, 4
  0002e	89 5e 14	 mov	 DWORD PTR [esi+20], ebx

; 37   : }

  00031	8b c6		 mov	 eax, esi
  00033	5e		 pop	 esi
  00034	5b		 pop	 ebx
  00035	c3		 ret	 0
??0KeyAccelerator@@QAE@XZ ENDP				; KeyAccelerator::KeyAccelerator
_TEXT	ENDS
PUBLIC	?Init@KeyAccelerator@@QAEXH@Z			; KeyAccelerator::Init
; Function compile flags: /Ogty
;	COMDAT ?Init@KeyAccelerator@@QAEXH@Z
_TEXT	SEGMENT
_max$ = 8						; size = 4
?Init@KeyAccelerator@@QAEXH@Z PROC NEAR			; KeyAccelerator::Init, COMDAT
; _this$ = ecx

; 48   : {

  00000	56		 push	 esi
  00001	8b f1		 mov	 esi, ecx

; 49   : 	m_Keys.clear();

  00003	8b 46 04	 mov	 eax, DWORD PTR [esi+4]
  00006	57		 push	 edi
  00007	33 ff		 xor	 edi, edi
  00009	3b c7		 cmp	 eax, edi
  0000b	74 1f		 je	 SHORT $L81990
  0000d	8b 06		 mov	 eax, DWORD PTR [esi]
  0000f	8b 48 04	 mov	 ecx, DWORD PTR [eax+4]
  00012	51		 push	 ecx
  00013	8b ce		 mov	 ecx, esi
  00015	e8 00 00 00 00	 call	 ?_M_erase@?$_Rb_tree@GU?$pair@$$CBGE@_STL@@U?$_Select1st@U?$pair@$$CBGE@_STL@@@2@U?$less@G@2@V?$allocator@U?$pair@$$CBGE@_STL@@@2@@_STL@@AAEXPAU?$_Rb_tree_node@U?$pair@$$CBGE@_STL@@@2@@Z ; _STL::_Rb_tree<unsigned short,_STL::pair<unsigned short const ,unsigned char>,_STL::_Select1st<_STL::pair<unsigned short const ,unsigned char> >,_STL::less<unsigned short>,_STL::allocator<_STL::pair<unsigned short const ,unsigned char> > >::_M_erase
  0001a	8b 06		 mov	 eax, DWORD PTR [esi]
  0001c	89 40 08	 mov	 DWORD PTR [eax+8], eax
  0001f	8b 16		 mov	 edx, DWORD PTR [esi]
  00021	89 7a 04	 mov	 DWORD PTR [edx+4], edi
  00024	8b 06		 mov	 eax, DWORD PTR [esi]
  00026	89 40 0c	 mov	 DWORD PTR [eax+12], eax
  00029	89 7e 04	 mov	 DWORD PTR [esi+4], edi
$L81990:

; 50   : 	m_Accelerators.clear();

  0002c	8b 46 10	 mov	 eax, DWORD PTR [esi+16]
  0002f	3b c0		 cmp	 eax, eax
  00031	8b 4e 0c	 mov	 ecx, DWORD PTR [esi+12]
  00034	8d 7e 0c	 lea	 edi, DWORD PTR [esi+12]
  00037	75 16		 jne	 SHORT $L82043
  00039	8b c1		 mov	 eax, ecx
  0003b	89 47 04	 mov	 DWORD PTR [edi+4], eax

; 51   : 
; 52   : 	m_Accelerators.reserve( max );

  0003e	8b 44 24 0c	 mov	 eax, DWORD PTR _max$[esp+4]
  00042	50		 push	 eax
  00043	8b cf		 mov	 ecx, edi
  00045	e8 00 00 00 00	 call	 ?reserve@?$vector@GV?$allocator@G@_STL@@@_STL@@QAEXI@Z ; _STL::vector<unsigned short,_STL::allocator<unsigned short> >::reserve
  0004a	5f		 pop	 edi
  0004b	5e		 pop	 esi

; 53   : }

  0004c	c2 04 00	 ret	 4

; 50   : 	m_Accelerators.clear();

$L82043:
  0004f	8b f0		 mov	 esi, eax
  00051	2b f0		 sub	 esi, eax
  00053	56		 push	 esi
  00054	50		 push	 eax
  00055	51		 push	 ecx
  00056	e8 00 00 00 00	 call	 _memmove
  0005b	03 c6		 add	 eax, esi
  0005d	89 47 04	 mov	 DWORD PTR [edi+4], eax

; 51   : 
; 52   : 	m_Accelerators.reserve( max );

  00060	8b 44 24 18	 mov	 eax, DWORD PTR _max$[esp+16]
  00064	83 c4 0c	 add	 esp, 12			; 0000000cH
  00067	50		 push	 eax
  00068	8b cf		 mov	 ecx, edi
  0006a	e8 00 00 00 00	 call	 ?reserve@?$vector@GV?$allocator@G@_STL@@@_STL@@QAEXI@Z ; _STL::vector<unsigned short,_STL::allocator<unsigned short> >::reserve
  0006f	5f		 pop	 edi
  00070	5e		 pop	 esi

; 53   : }

  00071	c2 04 00	 ret	 4
?Init@KeyAccelerator@@QAEXH@Z ENDP			; KeyAccelerator::Init
_TEXT	ENDS
PUBLIC	?insert@?$map@GEU?$less@G@_STL@@V?$allocator@U?$pair@$$CBGE@_STL@@@2@@_STL@@QAE?AU?$_Rb_tree_iterator@U?$pair@$$CBGE@_STL@@U?$_Nonconst_traits@U?$pair@$$CBGE@_STL@@@2@@2@U32@ABU?$pair@$$CBGE@2@@Z ; _STL::map<unsigned short,unsigned char,_STL::less<unsigned short>,_STL::allocator<_STL::pair<unsigned short const ,unsigned char> > >::insert
; Function compile flags: /Ogty
; File c:\stlport-4.6.1\stlport\stl\_map.h
;	COMDAT ?insert@?$map@GEU?$less@G@_STL@@V?$allocator@U?$pair@$$CBGE@_STL@@@2@@_STL@@QAE?AU?$_Rb_tree_iterator@U?$pair@$$CBGE@_STL@@U?$_Nonconst_traits@U?$pair@$$CBGE@_STL@@@2@@2@U32@ABU?$pair@$$CBGE@2@@Z
_TEXT	SEGMENT
___$ReturnUdt$ = 8					; size = 4
_position$ = 12						; size = 4
___x$ = 16						; size = 4
?insert@?$map@GEU?$less@G@_STL@@V?$allocator@U?$pair@$$CBGE@_STL@@@2@@_STL@@QAE?AU?$_Rb_tree_iterator@U?$pair@$$CBGE@_STL@@U?$_Nonconst_traits@U?$pair@$$CBGE@_STL@@@2@@2@U32@ABU?$pair@$$CBGE@2@@Z PROC NEAR ; _STL::map<unsigned short,unsigned char,_STL::less<unsigned short>,_STL::allocator<_STL::pair<unsigned short const ,unsigned char> > >::insert, COMDAT
; _this$ = ecx

; 172  :     { return _M_t.insert_unique(position, __x); }

  00000	8b 44 24 0c	 mov	 eax, DWORD PTR ___x$[esp-4]
  00004	8b 54 24 08	 mov	 edx, DWORD PTR _position$[esp-4]
  00008	56		 push	 esi
  00009	8b 74 24 08	 mov	 esi, DWORD PTR ___$ReturnUdt$[esp]
  0000d	50		 push	 eax
  0000e	51		 push	 ecx
  0000f	8b c4		 mov	 eax, esp
  00011	56		 push	 esi
  00012	89 10		 mov	 DWORD PTR [eax], edx
  00014	e8 00 00 00 00	 call	 ?insert_unique@?$_Rb_tree@GU?$pair@$$CBGE@_STL@@U?$_Select1st@U?$pair@$$CBGE@_STL@@@2@U?$less@G@2@V?$allocator@U?$pair@$$CBGE@_STL@@@2@@_STL@@QAE?AU?$_Rb_tree_iterator@U?$pair@$$CBGE@_STL@@U?$_Nonconst_traits@U?$pair@$$CBGE@_STL@@@2@@2@U32@ABU?$pair@$$CBGE@2@@Z ; _STL::_Rb_tree<unsigned short,_STL::pair<unsigned short const ,unsigned char>,_STL::_Select1st<_STL::pair<unsigned short const ,unsigned char> >,_STL::less<unsigned short>,_STL::allocator<_STL::pair<unsigned short const ,unsigned char> > >::insert_unique
  00019	8b c6		 mov	 eax, esi
  0001b	5e		 pop	 esi
  0001c	c2 0c 00	 ret	 12			; 0000000cH
?insert@?$map@GEU?$less@G@_STL@@V?$allocator@U?$pair@$$CBGE@_STL@@@2@@_STL@@QAE?AU?$_Rb_tree_iterator@U?$pair@$$CBGE@_STL@@U?$_Nonconst_traits@U?$pair@$$CBGE@_STL@@@2@@2@U32@ABU?$pair@$$CBGE@2@@Z ENDP ; _STL::map<unsigned short,unsigned char,_STL::less<unsigned short>,_STL::allocator<_STL::pair<unsigned short const ,unsigned char> > >::insert
_TEXT	ENDS
PUBLIC	??A?$map@GEU?$less@G@_STL@@V?$allocator@U?$pair@$$CBGE@_STL@@@2@@_STL@@QAEAAEABG@Z ; _STL::map<unsigned short,unsigned char,_STL::less<unsigned short>,_STL::allocator<_STL::pair<unsigned short const ,unsigned char> > >::operator[]
; Function compile flags: /Ogty
;	COMDAT ??A?$map@GEU?$less@G@_STL@@V?$allocator@U?$pair@$$CBGE@_STL@@@2@@_STL@@QAEAAEABG@Z
_TEXT	SEGMENT
$T82068 = -4						; size = 4
$T82065 = 8						; size = 4
___k$ = 8						; size = 4
??A?$map@GEU?$less@G@_STL@@V?$allocator@U?$pair@$$CBGE@_STL@@@2@@_STL@@QAEAAEABG@Z PROC NEAR ; _STL::map<unsigned short,unsigned char,_STL::less<unsigned short>,_STL::allocator<_STL::pair<unsigned short const ,unsigned char> > >::operator[], COMDAT
; _this$ = ecx

; 158  :   _Tp& operator[](const key_type& __k) {

  00000	51		 push	 ecx
  00001	53		 push	 ebx
  00002	56		 push	 esi

; 159  :     iterator __i = lower_bound(__k);

  00003	8b 31		 mov	 esi, DWORD PTR [ecx]
  00005	8b 46 04	 mov	 eax, DWORD PTR [esi+4]
  00008	85 c0		 test	 eax, eax
  0000a	57		 push	 edi
  0000b	8b 7c 24 14	 mov	 edi, DWORD PTR ___k$[esp+12]
  0000f	8b d6		 mov	 edx, esi
  00011	74 17		 je	 SHORT $L82174
  00013	66 8b 1f	 mov	 bx, WORD PTR [edi]
$L82173:
  00016	66 39 58 10	 cmp	 WORD PTR [eax+16], bx
  0001a	72 07		 jb	 SHORT $L82175
  0001c	8b d0		 mov	 edx, eax
  0001e	8b 40 08	 mov	 eax, DWORD PTR [eax+8]
  00021	eb 03		 jmp	 SHORT $L82176
$L82175:
  00023	8b 40 0c	 mov	 eax, DWORD PTR [eax+12]
$L82176:
  00026	85 c0		 test	 eax, eax
  00028	75 ec		 jne	 SHORT $L82173
$L82174:

; 160  :     // __i->first is greater than or equivalent to __k.
; 161  :     if (__i == end() || key_comp()(__k, (*__i).first))

  0002a	3b d6		 cmp	 edx, esi
  0002c	74 09		 je	 SHORT $L77378
  0002e	66 8b 07	 mov	 ax, WORD PTR [edi]
  00031	66 3b 42 10	 cmp	 ax, WORD PTR [edx+16]
  00035	73 2f		 jae	 SHORT $L82237
$L77378:

; 162  :       __i = insert(__i, value_type(__k, _STLP_DEFAULT_CONSTRUCTED(_Tp)));

  00037	66 8b 07	 mov	 ax, WORD PTR [edi]
  0003a	66 89 44 24 14	 mov	 WORD PTR $T82065[esp+12], ax
  0003f	8d 44 24 14	 lea	 eax, DWORD PTR $T82065[esp+12]
  00043	50		 push	 eax
  00044	51		 push	 ecx
  00045	8b c4		 mov	 eax, esp
  00047	89 10		 mov	 DWORD PTR [eax], edx
  00049	8d 54 24 14	 lea	 edx, DWORD PTR $T82068[esp+24]
  0004d	52		 push	 edx
  0004e	c6 44 24 22 00	 mov	 BYTE PTR $T82065[esp+26], 0
  00053	e8 00 00 00 00	 call	 ?insert_unique@?$_Rb_tree@GU?$pair@$$CBGE@_STL@@U?$_Select1st@U?$pair@$$CBGE@_STL@@@2@U?$less@G@2@V?$allocator@U?$pair@$$CBGE@_STL@@@2@@_STL@@QAE?AU?$_Rb_tree_iterator@U?$pair@$$CBGE@_STL@@U?$_Nonconst_traits@U?$pair@$$CBGE@_STL@@@2@@2@U32@ABU?$pair@$$CBGE@2@@Z ; _STL::_Rb_tree<unsigned short,_STL::pair<unsigned short const ,unsigned char>,_STL::_Select1st<_STL::pair<unsigned short const ,unsigned char> >,_STL::less<unsigned short>,_STL::allocator<_STL::pair<unsigned short const ,unsigned char> > >::insert_unique
  00058	8b 44 24 0c	 mov	 eax, DWORD PTR $T82068[esp+16]

; 163  :     return (*__i).second;

  0005c	83 c0 12	 add	 eax, 18			; 00000012H

; 164  :   }

  0005f	5f		 pop	 edi
  00060	5e		 pop	 esi
  00061	5b		 pop	 ebx
  00062	59		 pop	 ecx
  00063	c2 04 00	 ret	 4
$L82237:
  00066	5f		 pop	 edi
  00067	5e		 pop	 esi
  00068	8d 42 12	 lea	 eax, DWORD PTR [edx+18]
  0006b	5b		 pop	 ebx
  0006c	59		 pop	 ecx
  0006d	c2 04 00	 ret	 4
??A?$map@GEU?$less@G@_STL@@V?$allocator@U?$pair@$$CBGE@_STL@@@2@@_STL@@QAEAAEABG@Z ENDP ; _STL::map<unsigned short,unsigned char,_STL::less<unsigned short>,_STL::allocator<_STL::pair<unsigned short const ,unsigned char> > >::operator[]
_TEXT	ENDS
PUBLIC	?SetAcceleratorKey@KeyAccelerator@@QAEXEG@Z	; KeyAccelerator::SetAcceleratorKey
; Function compile flags: /Ogty
; File c:\darkeden\designed_common\project\new - vs_ui\src\keyaccelerator.cpp
;	COMDAT ?SetAcceleratorKey@KeyAccelerator@@QAEXEG@Z
_TEXT	SEGMENT
_accel$ = 8						; size = 1
_key$ = 12						; size = 2
?SetAcceleratorKey@KeyAccelerator@@QAEXEG@Z PROC NEAR	; KeyAccelerator::SetAcceleratorKey, COMDAT
; _this$ = ecx

; 63   : {

  00000	53		 push	 ebx

; 64   : 	if (accel >= m_Accelerators.capacity())

  00001	8a 5c 24 08	 mov	 bl, BYTE PTR _accel$[esp]
  00005	56		 push	 esi
  00006	8b f1		 mov	 esi, ecx
  00008	8b 4e 14	 mov	 ecx, DWORD PTR [esi+20]
  0000b	8b 56 0c	 mov	 edx, DWORD PTR [esi+12]
  0000e	2b ca		 sub	 ecx, edx
  00010	0f b6 c3	 movzx	 eax, bl
  00013	d1 f9		 sar	 ecx, 1
  00015	3b c1		 cmp	 eax, ecx
  00017	73 56		 jae	 SHORT $L77116
  00019	57		 push	 edi

; 65   : 	{
; 66   : 		return;
; 67   : 	}
; 68   : 
; 69   : 	KEY_MAP::iterator iKey = m_Keys.find( m_Accelerators[accel] );

  0001a	8d 3c 00	 lea	 edi, DWORD PTR [eax+eax]
  0001d	03 d7		 add	 edx, edi
  0001f	52		 push	 edx
  00020	8b ce		 mov	 ecx, esi
  00022	e8 00 00 00 00	 call	 ??$_M_find@G@?$_Rb_tree@GU?$pair@$$CBGE@_STL@@U?$_Select1st@U?$pair@$$CBGE@_STL@@@2@U?$less@G@2@V?$allocator@U?$pair@$$CBGE@_STL@@@2@@_STL@@ABEPAU?$_Rb_tree_node@U?$pair@$$CBGE@_STL@@@1@ABG@Z ; _STL::_Rb_tree<unsigned short,_STL::pair<unsigned short const ,unsigned char>,_STL::_Select1st<_STL::pair<unsigned short const ,unsigned char> >,_STL::less<unsigned short>,_STL::allocator<_STL::pair<unsigned short const ,unsigned char> > >::_M_find<unsigned short>

; 70   : 
; 71   : 	if (iKey != m_Keys.end())

  00027	8b 0e		 mov	 ecx, DWORD PTR [esi]
  00029	3b c1		 cmp	 eax, ecx
  0002b	74 27		 je	 SHORT $L82357

; 72   : 	{
; 73   : 		//   key  .
; 74   : 		m_Keys.erase( iKey );

  0002d	8d 51 0c	 lea	 edx, DWORD PTR [ecx+12]
  00030	52		 push	 edx
  00031	8d 51 08	 lea	 edx, DWORD PTR [ecx+8]
  00034	52		 push	 edx
  00035	83 c1 04	 add	 ecx, 4
  00038	51		 push	 ecx
  00039	50		 push	 eax
  0003a	e8 00 00 00 00	 call	 ?_Rebalance_for_erase@?$_Rb_global@_N@_STL@@SAPAU_Rb_tree_node_base@2@PAU32@AAPAU32@11@Z ; _STL::_Rb_global<bool>::_Rebalance_for_erase
  0003f	83 c4 10	 add	 esp, 16			; 00000010H
  00042	85 c0		 test	 eax, eax
  00044	74 0b		 je	 SHORT $L82354
  00046	6a 14		 push	 20			; 00000014H
  00048	50		 push	 eax
  00049	e8 00 00 00 00	 call	 ?_M_deallocate@?$__node_alloc@$00$0A@@_STL@@CAXPAXI@Z ; _STL::__node_alloc<1,0>::_M_deallocate
  0004e	83 c4 08	 add	 esp, 8
$L82354:
  00051	ff 4e 04	 dec	 DWORD PTR [esi+4]
$L82357:

; 75   : 	}
; 76   : 
; 77   : 	m_Keys[key] = accel;

  00054	8d 44 24 14	 lea	 eax, DWORD PTR _key$[esp+8]
  00058	50		 push	 eax
  00059	8b ce		 mov	 ecx, esi
  0005b	e8 00 00 00 00	 call	 ??A?$map@GEU?$less@G@_STL@@V?$allocator@U?$pair@$$CBGE@_STL@@@2@@_STL@@QAEAAEABG@Z ; _STL::map<unsigned short,unsigned char,_STL::less<unsigned short>,_STL::allocator<_STL::pair<unsigned short const ,unsigned char> > >::operator[]

; 78   : 	
; 79   : 	m_Accelerators[accel] = key;

  00060	66 8b 54 24 14	 mov	 dx, WORD PTR _key$[esp+8]
  00065	88 18		 mov	 BYTE PTR [eax], bl
  00067	8b 4e 0c	 mov	 ecx, DWORD PTR [esi+12]
  0006a	66 89 14 0f	 mov	 WORD PTR [edi+ecx], dx
  0006e	5f		 pop	 edi
$L77116:
  0006f	5e		 pop	 esi
  00070	5b		 pop	 ebx

; 80   : }

  00071	c2 08 00	 ret	 8
?SetAcceleratorKey@KeyAccelerator@@QAEXEG@Z ENDP	; KeyAccelerator::SetAcceleratorKey
_TEXT	ENDS
PUBLIC	?LoadFromFile@KeyAccelerator@@QAE_NAAVivfstream@@@Z ; KeyAccelerator::LoadFromFile
EXTRN	?SetDefaultAccelerator@@YAXXZ:NEAR		; SetDefaultAccelerator
; Function compile flags: /Ogty
;	COMDAT ?LoadFromFile@KeyAccelerator@@QAE_NAAVivfstream@@@Z
_TEXT	SEGMENT
_key$77317 = -4						; size = 2
_num$ = 8						; size = 4
_file$ = 8						; size = 4
?LoadFromFile@KeyAccelerator@@QAE_NAAVivfstream@@@Z PROC NEAR ; KeyAccelerator::LoadFromFile, COMDAT
; _this$ = ecx

; 240  : {

  00000	51		 push	 ecx
  00001	53		 push	 ebx
  00002	56		 push	 esi

; 241  : 	int num;
; 242  : 	file.read((char*)&num, 4);

  00003	8b 74 24 10	 mov	 esi, DWORD PTR _file$[esp+8]
  00007	8b 46 04	 mov	 eax, DWORD PTR [esi+4]
  0000a	85 c0		 test	 eax, eax
  0000c	8b d9		 mov	 ebx, ecx
  0000e	74 0e		 je	 SHORT $L82375
  00010	8b c8		 mov	 ecx, eax
  00012	8b 01		 mov	 eax, DWORD PTR [ecx]
  00014	6a 04		 push	 4
  00016	8d 54 24 14	 lea	 edx, DWORD PTR _num$[esp+12]
  0001a	52		 push	 edx
  0001b	ff 50 10	 call	 DWORD PTR [eax+16]
$L82375:

; 243  : 
; 244  : 	Init(MAX_ACCELERATOR);

  0001e	6a 2d		 push	 45			; 0000002dH
  00020	8b cb		 mov	 ecx, ebx
  00022	e8 00 00 00 00	 call	 ?Init@KeyAccelerator@@QAEXH@Z ; KeyAccelerator::Init

; 245  : 
; 246  : 	//    
; 247  : 	//   
; 248  : 	if(num == MAX_ACCELERATOR)

  00027	83 7c 24 10 2d	 cmp	 DWORD PTR _num$[esp+8], 45 ; 0000002dH
  0002c	75 4c		 jne	 SHORT $L77316
  0002e	57		 push	 edi

; 249  : 	{
; 250  : 		WORD key;
; 251  : 		
; 252  : 		for (int accel=1; accel<num; accel++)

  0002f	bf 01 00 00 00	 mov	 edi, 1
$L77319:

; 253  : 		{
; 254  : 			file.read((char*)&key, 2);

  00034	8b 46 04	 mov	 eax, DWORD PTR [esi+4]
  00037	85 c0		 test	 eax, eax
  00039	74 20		 je	 SHORT $L82388
  0003b	8b c8		 mov	 ecx, eax
  0003d	8b 01		 mov	 eax, DWORD PTR [ecx]
  0003f	6a 02		 push	 2
  00041	8d 54 24 10	 lea	 edx, DWORD PTR _key$77317[esp+20]
  00045	52		 push	 edx
  00046	ff 50 10	 call	 DWORD PTR [eax+16]

; 255  : 			
; 256  : 			if(!file.eof())

  00049	8b 46 04	 mov	 eax, DWORD PTR [esi+4]
  0004c	85 c0		 test	 eax, eax
  0004e	74 0b		 je	 SHORT $L82388
  00050	8b c8		 mov	 ecx, eax
  00052	8b 01		 mov	 eax, DWORD PTR [ecx]
  00054	ff 50 24	 call	 DWORD PTR [eax+36]
  00057	84 c0		 test	 al, al
  00059	75 0d		 jne	 SHORT $L77320
$L82388:

; 257  : 				SetAcceleratorKey( accel , key );

  0005b	8b 4c 24 0c	 mov	 ecx, DWORD PTR _key$77317[esp+16]
  0005f	51		 push	 ecx
  00060	57		 push	 edi
  00061	8b cb		 mov	 ecx, ebx
  00063	e8 00 00 00 00	 call	 ?SetAcceleratorKey@KeyAccelerator@@QAEXEG@Z ; KeyAccelerator::SetAcceleratorKey
$L77320:
  00068	8b 44 24 14	 mov	 eax, DWORD PTR _num$[esp+12]
  0006c	47		 inc	 edi
  0006d	3b f8		 cmp	 edi, eax
  0006f	7c c3		 jl	 SHORT $L77319
  00071	5f		 pop	 edi
  00072	5e		 pop	 esi

; 258  : 		}
; 259  : 
; 260  : 		return true;

  00073	b0 01		 mov	 al, 1
  00075	5b		 pop	 ebx

; 267  : 	}
; 268  : }

  00076	59		 pop	 ecx
  00077	c2 04 00	 ret	 4
$L77316:

; 261  : 	}
; 262  : 	else
; 263  : 	{
; 264  : 		SetDefaultAccelerator();

  0007a	e8 00 00 00 00	 call	 ?SetDefaultAccelerator@@YAXXZ ; SetDefaultAccelerator
  0007f	5e		 pop	 esi

; 265  : 
; 266  : 		return false;

  00080	32 c0		 xor	 al, al
  00082	5b		 pop	 ebx

; 267  : 	}
; 268  : }

  00083	59		 pop	 ecx
  00084	c2 04 00	 ret	 4
?LoadFromFile@KeyAccelerator@@QAE_NAAVivfstream@@@Z ENDP ; KeyAccelerator::LoadFromFile
_TEXT	ENDS
END
