; Listing generated by Microsoft (R) Optimizing Compiler Version 13.10.3077 

	TITLE	\darkeden\Designed_Common\Project\New - vs_ui\src\widget\u_scrollbar.cpp
	.386P
include listing.inc
if @Version gt 510
.model FLAT
else
_TEXT	SEGMENT PARA USE32 PUBLIC 'CODE'
_TEXT	ENDS
_DATA	SEGMENT DWORD USE32 PUBLIC 'DATA'
_DATA	ENDS
CONST	SEGMENT DWORD USE32 PUBLIC 'CONST'
CONST	ENDS
_BSS	SEGMENT DWORD USE32 PUBLIC 'BSS'
_BSS	ENDS
$$SYMBOLS	SEGMENT BYTE USE32 'DEBSYM'
$$SYMBOLS	ENDS
$$TYPES	SEGMENT BYTE USE32 'DEBTYP'
$$TYPES	ENDS
_TLS	SEGMENT DWORD USE32 PUBLIC 'TLS'
_TLS	ENDS
rdata$r	SEGMENT DWORD USE32 PUBLIC 'CONST'
rdata$r	ENDS
text$yc	SEGMENT PARA USE32 PUBLIC 'CODE'
text$yc	ENDS
CRT$XCA	SEGMENT DWORD USE32 PUBLIC 'DATA'
CRT$XCA	ENDS
CRT$XCU	SEGMENT DWORD USE32 PUBLIC 'DATA'
CRT$XCU	ENDS
CRT$XCL	SEGMENT DWORD USE32 PUBLIC 'DATA'
CRT$XCL	ENDS
CRT$XCC	SEGMENT DWORD USE32 PUBLIC 'DATA'
CRT$XCC	ENDS
CRT$XCZ	SEGMENT DWORD USE32 PUBLIC 'DATA'
CRT$XCZ	ENDS
text$yd	SEGMENT PARA USE32 PUBLIC 'CODE'
text$yd	ENDS
;	COMDAT _acosl
_TEXT	SEGMENT PARA USE32 PUBLIC 'CODE'
_TEXT	ENDS
;	COMDAT _asinl
_TEXT	SEGMENT PARA USE32 PUBLIC 'CODE'
_TEXT	ENDS
;	COMDAT _atanl
_TEXT	SEGMENT PARA USE32 PUBLIC 'CODE'
_TEXT	ENDS
;	COMDAT _atan2l
_TEXT	SEGMENT PARA USE32 PUBLIC 'CODE'
_TEXT	ENDS
;	COMDAT _ceill
_TEXT	SEGMENT PARA USE32 PUBLIC 'CODE'
_TEXT	ENDS
;	COMDAT _cosl
_TEXT	SEGMENT PARA USE32 PUBLIC 'CODE'
_TEXT	ENDS
;	COMDAT _coshl
_TEXT	SEGMENT PARA USE32 PUBLIC 'CODE'
_TEXT	ENDS
;	COMDAT _expl
_TEXT	SEGMENT PARA USE32 PUBLIC 'CODE'
_TEXT	ENDS
;	COMDAT _fabsl
_TEXT	SEGMENT PARA USE32 PUBLIC 'CODE'
_TEXT	ENDS
;	COMDAT _floorl
_TEXT	SEGMENT PARA USE32 PUBLIC 'CODE'
_TEXT	ENDS
;	COMDAT _fmodl
_TEXT	SEGMENT PARA USE32 PUBLIC 'CODE'
_TEXT	ENDS
;	COMDAT _frexpl
_TEXT	SEGMENT PARA USE32 PUBLIC 'CODE'
_TEXT	ENDS
;	COMDAT _ldexpl
_TEXT	SEGMENT PARA USE32 PUBLIC 'CODE'
_TEXT	ENDS
;	COMDAT _logl
_TEXT	SEGMENT PARA USE32 PUBLIC 'CODE'
_TEXT	ENDS
;	COMDAT _log10l
_TEXT	SEGMENT PARA USE32 PUBLIC 'CODE'
_TEXT	ENDS
;	COMDAT _modfl
_TEXT	SEGMENT PARA USE32 PUBLIC 'CODE'
_TEXT	ENDS
;	COMDAT _powl
_TEXT	SEGMENT PARA USE32 PUBLIC 'CODE'
_TEXT	ENDS
;	COMDAT _sinl
_TEXT	SEGMENT PARA USE32 PUBLIC 'CODE'
_TEXT	ENDS
;	COMDAT _sinhl
_TEXT	SEGMENT PARA USE32 PUBLIC 'CODE'
_TEXT	ENDS
;	COMDAT _sqrtl
_TEXT	SEGMENT PARA USE32 PUBLIC 'CODE'
_TEXT	ENDS
;	COMDAT _tanl
_TEXT	SEGMENT PARA USE32 PUBLIC 'CODE'
_TEXT	ENDS
;	COMDAT _tanhl
_TEXT	SEGMENT PARA USE32 PUBLIC 'CODE'
_TEXT	ENDS
;	COMDAT _frexpf
_TEXT	SEGMENT PARA USE32 PUBLIC 'CODE'
_TEXT	ENDS
;	COMDAT _ldexpf
_TEXT	SEGMENT PARA USE32 PUBLIC 'CODE'
_TEXT	ENDS
;	COMDAT _acosf
_TEXT	SEGMENT PARA USE32 PUBLIC 'CODE'
_TEXT	ENDS
;	COMDAT _asinf
_TEXT	SEGMENT PARA USE32 PUBLIC 'CODE'
_TEXT	ENDS
;	COMDAT _atanf
_TEXT	SEGMENT PARA USE32 PUBLIC 'CODE'
_TEXT	ENDS
;	COMDAT _atan2f
_TEXT	SEGMENT PARA USE32 PUBLIC 'CODE'
_TEXT	ENDS
;	COMDAT _ceilf
_TEXT	SEGMENT PARA USE32 PUBLIC 'CODE'
_TEXT	ENDS
;	COMDAT _cosf
_TEXT	SEGMENT PARA USE32 PUBLIC 'CODE'
_TEXT	ENDS
;	COMDAT _coshf
_TEXT	SEGMENT PARA USE32 PUBLIC 'CODE'
_TEXT	ENDS
;	COMDAT _expf
_TEXT	SEGMENT PARA USE32 PUBLIC 'CODE'
_TEXT	ENDS
;	COMDAT _fabsf
_TEXT	SEGMENT PARA USE32 PUBLIC 'CODE'
_TEXT	ENDS
;	COMDAT _floorf
_TEXT	SEGMENT PARA USE32 PUBLIC 'CODE'
_TEXT	ENDS
;	COMDAT _fmodf
_TEXT	SEGMENT PARA USE32 PUBLIC 'CODE'
_TEXT	ENDS
;	COMDAT _logf
_TEXT	SEGMENT PARA USE32 PUBLIC 'CODE'
_TEXT	ENDS
;	COMDAT _log10f
_TEXT	SEGMENT PARA USE32 PUBLIC 'CODE'
_TEXT	ENDS
;	COMDAT _modff
_TEXT	SEGMENT PARA USE32 PUBLIC 'CODE'
_TEXT	ENDS
;	COMDAT _powf
_TEXT	SEGMENT PARA USE32 PUBLIC 'CODE'
_TEXT	ENDS
;	COMDAT _sinf
_TEXT	SEGMENT PARA USE32 PUBLIC 'CODE'
_TEXT	ENDS
;	COMDAT _sinhf
_TEXT	SEGMENT PARA USE32 PUBLIC 'CODE'
_TEXT	ENDS
;	COMDAT _sqrtf
_TEXT	SEGMENT PARA USE32 PUBLIC 'CODE'
_TEXT	ENDS
;	COMDAT _tanf
_TEXT	SEGMENT PARA USE32 PUBLIC 'CODE'
_TEXT	ENDS
;	COMDAT _tanhf
_TEXT	SEGMENT PARA USE32 PUBLIC 'CODE'
_TEXT	ENDS
;	COMDAT ??0Scrollbar@@QAE@XZ
_TEXT	SEGMENT PARA USE32 PUBLIC 'CODE'
_TEXT	ENDS
;	COMDAT ??_GScrollbar@@UAEPAXI@Z
_TEXT	SEGMENT PARA USE32 PUBLIC 'CODE'
_TEXT	ENDS
;	COMDAT ??1Scrollbar@@UAE@XZ
_TEXT	SEGMENT PARA USE32 PUBLIC 'CODE'
_TEXT	ENDS
;	COMDAT ?Init@Scrollbar@@QAEXXZ
_TEXT	SEGMENT PARA USE32 PUBLIC 'CODE'
_TEXT	ENDS
;	COMDAT ?IncreaseAmountToScroll@Scrollbar@@QAEXXZ
_TEXT	SEGMENT PARA USE32 PUBLIC 'CODE'
_TEXT	ENDS
;	COMDAT ?DecreaseAmountToScroll@Scrollbar@@QAEXXZ
_TEXT	SEGMENT PARA USE32 PUBLIC 'CODE'
_TEXT	ENDS
;	COMDAT ?SetAmountForScroll@Scrollbar@@QAEXK@Z
_TEXT	SEGMENT PARA USE32 PUBLIC 'CODE'
_TEXT	ENDS
;	COMDAT ?SetAmountToScroll@Scrollbar@@QAEXK@Z
_TEXT	SEGMENT PARA USE32 PUBLIC 'CODE'
_TEXT	ENDS
;	COMDAT ?SetAmountToScrollByPercent@Scrollbar@@QAEXN@Z
_TEXT	SEGMENT PARA USE32 PUBLIC 'CODE'
_TEXT	ENDS
;	COMDAT ?NoScroll@Scrollbar@@QAE_NXZ
_TEXT	SEGMENT PARA USE32 PUBLIC 'CODE'
_TEXT	ENDS
;	COMDAT ?GetPercentToScroll@Scrollbar@@QBEHXZ
_TEXT	SEGMENT PARA USE32 PUBLIC 'CODE'
_TEXT	ENDS
;	COMDAT ?GetAmountToScroll@Scrollbar@@QBEKXZ
_TEXT	SEGMENT PARA USE32 PUBLIC 'CODE'
_TEXT	ENDS
;	COMDAT ?GetAmountForScroll@Scrollbar@@QBEKXZ
_TEXT	SEGMENT PARA USE32 PUBLIC 'CODE'
_TEXT	ENDS
;	COMDAT ?eq@?$__char_traits_base@DH@_STL@@SA_NABD0@Z
_TEXT	SEGMENT PARA USE32 PUBLIC 'CODE'
_TEXT	ENDS
;	COMDAT ?not_eof@?$__char_traits_base@DH@_STL@@SAHABH@Z
_TEXT	SEGMENT PARA USE32 PUBLIC 'CODE'
_TEXT	ENDS
;	COMDAT ?eq_int_type@?$__char_traits_base@DH@_STL@@SA_NABH0@Z
_TEXT	SEGMENT PARA USE32 PUBLIC 'CODE'
_TEXT	ENDS
;	COMDAT ??0?$fpos@H@_STL@@QAE@J@Z
_TEXT	SEGMENT PARA USE32 PUBLIC 'CODE'
_TEXT	ENDS
;	COMDAT ??B?$fpos@H@_STL@@QBEJXZ
_TEXT	SEGMENT PARA USE32 PUBLIC 'CODE'
_TEXT	ENDS
;	COMDAT ?state@?$fpos@H@_STL@@QBEHXZ
_TEXT	SEGMENT PARA USE32 PUBLIC 'CODE'
_TEXT	ENDS
;	COMDAT ?is_open@?$basic_filebuf@DV?$char_traits@D@_STL@@@_STL@@QBE_NXZ
_TEXT	SEGMENT PARA USE32 PUBLIC 'CODE'
_TEXT	ENDS
;	COMDAT ?_M_seek_return@?$basic_filebuf@DV?$char_traits@D@_STL@@@_STL@@AAE?AV?$fpos@H@2@JH@Z
_TEXT	SEGMENT PARA USE32 PUBLIC 'CODE'
_TEXT	ENDS
;	COMDAT ??0?$_Filebuf_Tmp_Buf@D@_STL@@QAE@H@Z
_TEXT	SEGMENT PARA USE32 PUBLIC 'CODE'
_TEXT	ENDS
;	COMDAT ??1?$_Filebuf_Tmp_Buf@D@_STL@@QAE@XZ
_TEXT	SEGMENT PARA USE32 PUBLIC 'CODE'
_TEXT	ENDS
;	COMDAT ?state@?$fpos@H@_STL@@QAEXH@Z
_TEXT	SEGMENT PARA USE32 PUBLIC 'CODE'
_TEXT	ENDS
;	COMDAT ?close@?$basic_filebuf@DV?$char_traits@D@_STL@@@_STL@@QAEPAV12@XZ
_TEXT	SEGMENT PARA USE32 PUBLIC 'CODE'
_TEXT	ENDS
;	COMDAT ?_M_exit_input_mode@?$basic_filebuf@DV?$char_traits@D@_STL@@@_STL@@AAEXXZ
_TEXT	SEGMENT PARA USE32 PUBLIC 'CODE'
_TEXT	ENDS
;	COMDAT ?_M_switch_to_output_mode@?$basic_filebuf@DV?$char_traits@D@_STL@@@_STL@@AAE_NXZ
_TEXT	SEGMENT PARA USE32 PUBLIC 'CODE'
_TEXT	ENDS
;	COMDAT ?_M_output_error@?$basic_filebuf@DV?$char_traits@D@_STL@@@_STL@@AAEHXZ
_TEXT	SEGMENT PARA USE32 PUBLIC 'CODE'
_TEXT	ENDS
;	COMDAT ?_M_allocate_buffers@?$basic_filebuf@DV?$char_traits@D@_STL@@@_STL@@AAE_NPADH@Z
_TEXT	SEGMENT PARA USE32 PUBLIC 'CODE'
_TEXT	ENDS
;	COMDAT ?_M_deallocate_buffers@?$basic_filebuf@DV?$char_traits@D@_STL@@@_STL@@AAEXXZ
_TEXT	SEGMENT PARA USE32 PUBLIC 'CODE'
_TEXT	ENDS
;	COMDAT ?_M_seek_init@?$basic_filebuf@DV?$char_traits@D@_STL@@@_STL@@AAE_N_N@Z
_TEXT	SEGMENT PARA USE32 PUBLIC 'CODE'
_TEXT	ENDS
;	COMDAT ?_M_setup_codecvt@?$basic_filebuf@DV?$char_traits@D@_STL@@@_STL@@AAEXABVlocale@2@@Z
_TEXT	SEGMENT PARA USE32 PUBLIC 'CODE'
_TEXT	ENDS
;	COMDAT ??$equal@PADPADU?$_Eq_traits@V?$char_traits@D@_STL@@@_STL@@@_STL@@YA_NPAD00U?$_Eq_traits@V?$char_traits@D@_STL@@@0@@Z
_TEXT	SEGMENT PARA USE32 PUBLIC 'CODE'
_TEXT	ENDS
;	COMDAT ??$_Pow_int@N@@YANNH@Z
_TEXT	SEGMENT PARA USE32 PUBLIC 'CODE'
_TEXT	ENDS
;	COMDAT ??$_Pow_int@H@@YAHHH@Z
_TEXT	SEGMENT PARA USE32 PUBLIC 'CODE'
_TEXT	ENDS
;	COMDAT ??$_Pow_int@M@@YAMMH@Z
_TEXT	SEGMENT PARA USE32 PUBLIC 'CODE'
_TEXT	ENDS
;	COMDAT ??$_Pow_int@O@@YAOOH@Z
_TEXT	SEGMENT PARA USE32 PUBLIC 'CODE'
_TEXT	ENDS
;	COMDAT ?_M_exit_putback_mode@?$basic_filebuf@DV?$char_traits@D@_STL@@@_STL@@AAEXXZ
_TEXT	SEGMENT PARA USE32 PUBLIC 'CODE'
_TEXT	ENDS
;	COMDAT ??R?$_Eq_traits@V?$char_traits@D@_STL@@@_STL@@QBE_NABD0@Z
_TEXT	SEGMENT PARA USE32 PUBLIC 'CODE'
_TEXT	ENDS
;	COMDAT ?_M_unshift@?$basic_filebuf@DV?$char_traits@D@_STL@@@_STL@@AAE_NXZ
_TEXT	SEGMENT PARA USE32 PUBLIC 'CODE'
_TEXT	ENDS
;	COMDAT ?_M_allocate_buffers@?$basic_filebuf@DV?$char_traits@D@_STL@@@_STL@@AAE_NXZ
_TEXT	SEGMENT PARA USE32 PUBLIC 'CODE'
_TEXT	ENDS
;	COMDAT ??$max@H@_STL@@YAABHABH0@Z
_TEXT	SEGMENT PARA USE32 PUBLIC 'CODE'
_TEXT	ENDS
;	COMDAT ??$use_facet@V?$codecvt@DDH@_STL@@@_STL@@YAABV?$codecvt@DDH@0@ABVlocale@0@@Z
_TEXT	SEGMENT PARA USE32 PUBLIC 'CODE'
_TEXT	ENDS
;	COMDAT ??_R3Scrollbar@@8
rdata$r	SEGMENT DWORD USE32 PUBLIC 'CONST'
rdata$r	ENDS
;	COMDAT ??_R2Scrollbar@@8
rdata$r	SEGMENT DWORD USE32 PUBLIC 'CONST'
rdata$r	ENDS
;	COMDAT ??_R1A@?0A@A@Scrollbar@@8
rdata$r	SEGMENT DWORD USE32 PUBLIC 'CONST'
rdata$r	ENDS
;	COMDAT ??_R0?AVScrollbar@@@8
_DATA	SEGMENT DWORD USE32 PUBLIC 'DATA'
_DATA	ENDS
;	COMDAT ??_R4Scrollbar@@6B@
rdata$r	SEGMENT DWORD USE32 PUBLIC 'CONST'
rdata$r	ENDS
;	COMDAT ?__page_size@_Filebuf_base@_STL@@SAIXZ
_TEXT	SEGMENT PARA USE32 PUBLIC 'CODE'
_TEXT	ENDS
;	COMDAT ?_M_write@?$basic_filebuf@DV?$char_traits@D@_STL@@@_STL@@QAE_NPADH@Z
_TEXT	SEGMENT PARA USE32 PUBLIC 'CODE'
_TEXT	ENDS
;	COMDAT ?unshift@?$codecvt@DDH@_STL@@QBE?AW4result@codecvt_base@2@AAHPAD1AAPAD@Z
_TEXT	SEGMENT PARA USE32 PUBLIC 'CODE'
_TEXT	ENDS
;	COMDAT ?always_noconv@?$codecvt@DDH@_STL@@QBE_NXZ
_TEXT	SEGMENT PARA USE32 PUBLIC 'CODE'
_TEXT	ENDS
;	COMDAT ?encoding@?$codecvt@DDH@_STL@@QBEHXZ
_TEXT	SEGMENT PARA USE32 PUBLIC 'CODE'
_TEXT	ENDS
;	COMDAT ?max_length@?$codecvt@DDH@_STL@@QBEHXZ
_TEXT	SEGMENT PARA USE32 PUBLIC 'CODE'
_TEXT	ENDS
;	COMDAT ?__o_mode@_Filebuf_base@_STL@@QBEHXZ
_TEXT	SEGMENT PARA USE32 PUBLIC 'CODE'
_TEXT	ENDS
;	COMDAT ?setp@?$basic_streambuf@DV?$char_traits@D@_STL@@@_STL@@IAEXPAD0@Z
_TEXT	SEGMENT PARA USE32 PUBLIC 'CODE'
_TEXT	ENDS
;	COMDAT ?_FILE_O_set@_STL@@YAXPAU_iobuf@@PAD11@Z
_TEXT	SEGMENT PARA USE32 PUBLIC 'CODE'
_TEXT	ENDS
;	COMDAT ?_FILE_I_set@_STL@@YAXPAU_iobuf@@PAD11@Z
_TEXT	SEGMENT PARA USE32 PUBLIC 'CODE'
_TEXT	ENDS
;	COMDAT ?setg@?$basic_streambuf@DV?$char_traits@D@_STL@@@_STL@@IAEXPAD00@Z
_TEXT	SEGMENT PARA USE32 PUBLIC 'CODE'
_TEXT	ENDS
;	COMDAT ?__is_open@_Filebuf_base@_STL@@QBE_NXZ
_TEXT	SEGMENT PARA USE32 PUBLIC 'CODE'
_TEXT	ENDS
;	COMDAT ?eof@?$__char_traits_base@DH@_STL@@SAHXZ
_TEXT	SEGMENT PARA USE32 PUBLIC 'CODE'
_TEXT	ENDS
;	COMDAT ??_7Scrollbar@@6B@
CONST	SEGMENT DWORD USE32 PUBLIC 'CONST'
CONST	ENDS
sxdata	SEGMENT DWORD USE32 'SXDATA'
sxdata	ENDS
FLAT	GROUP _DATA, CONST, _BSS
	ASSUME	CS: FLAT, DS: FLAT, SS: FLAT
endif

INCLUDELIB LIBCMT
INCLUDELIB OLDNAMES

PUBLIC	??_R4Scrollbar@@6B@				; Scrollbar::`RTTI Complete Object Locator'
PUBLIC	??_R0?AVScrollbar@@@8				; Scrollbar `RTTI Type Descriptor'
PUBLIC	??_R3Scrollbar@@8				; Scrollbar::`RTTI Class Hierarchy Descriptor'
PUBLIC	??_R2Scrollbar@@8				; Scrollbar::`RTTI Base Class Array'
PUBLIC	??_R1A@?0A@A@Scrollbar@@8			; Scrollbar::`RTTI Base Class Descriptor at (0,-1,0,0)'
PUBLIC	??1Scrollbar@@UAE@XZ				; Scrollbar::~Scrollbar
PUBLIC	??_7Scrollbar@@6B@				; Scrollbar::`vftable'
PUBLIC	??_GScrollbar@@UAEPAXI@Z			; Scrollbar::`scalar deleting destructor'
EXTRN	??_7type_info@@6B@:QWORD			; type_info::`vftable'
EXTRN	??_EScrollbar@@UAEPAXI@Z:NEAR			; Scrollbar::`vector deleting destructor'
;	COMDAT ??_7Scrollbar@@6B@
; File c:\darkeden\designed_common\project\new - vs_ui\src\widget\u_scrollbar.cpp
CONST	SEGMENT
??_7Scrollbar@@6B@ DD FLAT:??_R4Scrollbar@@6B@		; Scrollbar::`vftable'
	DD	FLAT:??_EScrollbar@@UAEPAXI@Z
CONST	ENDS
;	COMDAT ??_R4Scrollbar@@6B@
rdata$r	SEGMENT
??_R4Scrollbar@@6B@ DD 00H				; Scrollbar::`RTTI Complete Object Locator'
	DD	00H
	DD	00H
	DD	FLAT:??_R0?AVScrollbar@@@8
	DD	FLAT:??_R3Scrollbar@@8
rdata$r	ENDS
;	COMDAT ??_R0?AVScrollbar@@@8
_DATA	SEGMENT
??_R0?AVScrollbar@@@8 DD FLAT:??_7type_info@@6B@	; Scrollbar `RTTI Type Descriptor'
	DD	00H
	DB	'.?AVScrollbar@@', 00H
_DATA	ENDS
;	COMDAT ??_R3Scrollbar@@8
rdata$r	SEGMENT
??_R3Scrollbar@@8 DD 00H				; Scrollbar::`RTTI Class Hierarchy Descriptor'
	DD	00H
	DD	01H
	DD	FLAT:??_R2Scrollbar@@8
rdata$r	ENDS
;	COMDAT ??_R2Scrollbar@@8
rdata$r	SEGMENT
??_R2Scrollbar@@8 DD FLAT:??_R1A@?0A@A@Scrollbar@@8	; Scrollbar::`RTTI Base Class Array'
rdata$r	ENDS
;	COMDAT ??_R1A@?0A@A@Scrollbar@@8
rdata$r	SEGMENT
??_R1A@?0A@A@Scrollbar@@8 DD FLAT:??_R0?AVScrollbar@@@8	; Scrollbar::`RTTI Base Class Descriptor at (0,-1,0,0)'
	DD	00H
	DD	00H
	DD	0ffffffffH
	DD	00H
	DD	00H
; Function compile flags: /Ogty
rdata$r	ENDS
;	COMDAT ??1Scrollbar@@UAE@XZ
_TEXT	SEGMENT
??1Scrollbar@@UAE@XZ PROC NEAR				; Scrollbar::~Scrollbar, COMDAT
; _this$ = ecx

; 13   : {

  00000	c7 01 00 00 00
	00		 mov	 DWORD PTR [ecx], OFFSET FLAT:??_7Scrollbar@@6B@

; 14   : 
; 15   : }

  00006	c3		 ret	 0
??1Scrollbar@@UAE@XZ ENDP				; Scrollbar::~Scrollbar
_TEXT	ENDS
PUBLIC	?Init@Scrollbar@@QAEXXZ				; Scrollbar::Init
; Function compile flags: /Ogty
;	COMDAT ?Init@Scrollbar@@QAEXXZ
_TEXT	SEGMENT
?Init@Scrollbar@@QAEXXZ PROC NEAR			; Scrollbar::Init, COMDAT
; _this$ = ecx

; 24   : 	m_dw_amount_for_scroll = 0;

  00000	33 c0		 xor	 eax, eax
  00002	89 41 04	 mov	 DWORD PTR [ecx+4], eax

; 25   : 	m_dw_amount_to_scroll = 0;

  00005	89 41 08	 mov	 DWORD PTR [ecx+8], eax

; 26   : }

  00008	c3		 ret	 0
?Init@Scrollbar@@QAEXXZ ENDP				; Scrollbar::Init
_TEXT	ENDS
PUBLIC	?IncreaseAmountToScroll@Scrollbar@@QAEXXZ	; Scrollbar::IncreaseAmountToScroll
; Function compile flags: /Ogty
;	COMDAT ?IncreaseAmountToScroll@Scrollbar@@QAEXXZ
_TEXT	SEGMENT
?IncreaseAmountToScroll@Scrollbar@@QAEXXZ PROC NEAR	; Scrollbar::IncreaseAmountToScroll, COMDAT
; _this$ = ecx

; 35   : 	if (m_dw_amount_to_scroll < m_dw_amount_for_scroll)

  00000	8b 41 08	 mov	 eax, DWORD PTR [ecx+8]
  00003	3b 41 04	 cmp	 eax, DWORD PTR [ecx+4]
  00006	73 04		 jae	 SHORT $L74686

; 36   : 		m_dw_amount_to_scroll++;

  00008	40		 inc	 eax
  00009	89 41 08	 mov	 DWORD PTR [ecx+8], eax
$L74686:

; 37   : }

  0000c	c3		 ret	 0
?IncreaseAmountToScroll@Scrollbar@@QAEXXZ ENDP		; Scrollbar::IncreaseAmountToScroll
_TEXT	ENDS
PUBLIC	?DecreaseAmountToScroll@Scrollbar@@QAEXXZ	; Scrollbar::DecreaseAmountToScroll
; Function compile flags: /Ogty
;	COMDAT ?DecreaseAmountToScroll@Scrollbar@@QAEXXZ
_TEXT	SEGMENT
?DecreaseAmountToScroll@Scrollbar@@QAEXXZ PROC NEAR	; Scrollbar::DecreaseAmountToScroll, COMDAT
; _this$ = ecx

; 46   : 	if (m_dw_amount_to_scroll > 0)

  00000	8b 41 08	 mov	 eax, DWORD PTR [ecx+8]
  00003	85 c0		 test	 eax, eax
  00005	76 04		 jbe	 SHORT $L74690

; 47   : 		m_dw_amount_to_scroll--;

  00007	48		 dec	 eax
  00008	89 41 08	 mov	 DWORD PTR [ecx+8], eax
$L74690:

; 48   : }

  0000b	c3		 ret	 0
?DecreaseAmountToScroll@Scrollbar@@QAEXXZ ENDP		; Scrollbar::DecreaseAmountToScroll
_TEXT	ENDS
PUBLIC	?SetAmountForScroll@Scrollbar@@QAEXK@Z		; Scrollbar::SetAmountForScroll
; Function compile flags: /Ogty
;	COMDAT ?SetAmountForScroll@Scrollbar@@QAEXK@Z
_TEXT	SEGMENT
_amount_for_scroll$ = 8					; size = 4
?SetAmountForScroll@Scrollbar@@QAEXK@Z PROC NEAR	; Scrollbar::SetAmountForScroll, COMDAT
; _this$ = ecx

; 57   : //	assert(m_dw_amount_to_scroll <= amount_for_scroll);
; 58   : 
; 59   : 	m_dw_amount_for_scroll = amount_for_scroll;

  00000	8b 44 24 04	 mov	 eax, DWORD PTR _amount_for_scroll$[esp-4]
  00004	89 41 04	 mov	 DWORD PTR [ecx+4], eax

; 60   : }

  00007	c2 04 00	 ret	 4
?SetAmountForScroll@Scrollbar@@QAEXK@Z ENDP		; Scrollbar::SetAmountForScroll
_TEXT	ENDS
PUBLIC	?SetAmountToScroll@Scrollbar@@QAEXK@Z		; Scrollbar::SetAmountToScroll
; Function compile flags: /Ogty
;	COMDAT ?SetAmountToScroll@Scrollbar@@QAEXK@Z
_TEXT	SEGMENT
_amount_to_scroll$ = 8					; size = 4
?SetAmountToScroll@Scrollbar@@QAEXK@Z PROC NEAR		; Scrollbar::SetAmountToScroll, COMDAT
; _this$ = ecx

; 69   : 	assert(amount_to_scroll <= m_dw_amount_for_scroll);
; 70   : 
; 71   : 	m_dw_amount_to_scroll = amount_to_scroll;

  00000	8b 44 24 04	 mov	 eax, DWORD PTR _amount_to_scroll$[esp-4]
  00004	89 41 08	 mov	 DWORD PTR [ecx+8], eax

; 72   : }

  00007	c2 04 00	 ret	 4
?SetAmountToScroll@Scrollbar@@QAEXK@Z ENDP		; Scrollbar::SetAmountToScroll
_TEXT	ENDS
PUBLIC	__real@4059000000000000
PUBLIC	__real@3fe0000000000000
PUBLIC	__real@41f0000000000000
PUBLIC	?SetAmountToScrollByPercent@Scrollbar@@QAEXN@Z	; Scrollbar::SetAmountToScrollByPercent
EXTRN	__ftol2:NEAR
EXTRN	__fltused:NEAR
EXTRN	_floor:NEAR
EXTRN	?Proportion@@YANNNN@Z:NEAR			; Proportion
;	COMDAT __real@41f0000000000000
CONST	SEGMENT
__real@41f0000000000000 DQ 041f0000000000000r	; 4.29497e+009
CONST	ENDS
;	COMDAT __real@4059000000000000
CONST	SEGMENT
__real@4059000000000000 DQ 04059000000000000r	; 100
CONST	ENDS
;	COMDAT __real@3fe0000000000000
CONST	SEGMENT
__real@3fe0000000000000 DQ 03fe0000000000000r	; 0.5
; Function compile flags: /Ogty
CONST	ENDS
;	COMDAT ?SetAmountToScrollByPercent@Scrollbar@@QAEXN@Z
_TEXT	SEGMENT
tv137 = -4						; size = 4
_percent$ = 8						; size = 8
?SetAmountToScrollByPercent@Scrollbar@@QAEXN@Z PROC NEAR ; Scrollbar::SetAmountToScrollByPercent, COMDAT
; _this$ = ecx

; 80   : {

  00000	51		 push	 ecx
  00001	56		 push	 esi
  00002	8b f1		 mov	 esi, ecx

; 84   : 
; 85   : 	// 소수 첫째 자리 반올림한다.
; 86   : 	val += 0.5;

  00004	8b 46 04	 mov	 eax, DWORD PTR [esi+4]
  00007	db 46 04	 fild	 DWORD PTR [esi+4]
  0000a	85 c0		 test	 eax, eax
  0000c	7d 06		 jge	 SHORT $L75057
  0000e	dc 05 00 00 00
	00		 fadd	 QWORD PTR __real@41f0000000000000
$L75057:

; 81   : 	assert(percent <= PERCENTAGE);
; 82   : 
; 83   : 	double val = Proportion(percent, PERCENTAGE, m_dw_amount_for_scroll);

  00014	83 ec 18	 sub	 esp, 24			; 00000018H
  00017	dd 5c 24 10	 fstp	 QWORD PTR [esp+16]
  0001b	dd 05 00 00 00
	00		 fld	 QWORD PTR __real@4059000000000000
  00021	dd 5c 24 08	 fstp	 QWORD PTR [esp+8]
  00025	dd 44 24 24	 fld	 QWORD PTR _percent$[esp+28]
  00029	dd 1c 24	 fstp	 QWORD PTR [esp]
  0002c	e8 00 00 00 00	 call	 ?Proportion@@YANNNN@Z	; Proportion

; 84   : 
; 85   : 	// 소수 첫째 자리 반올림한다.
; 86   : 	val += 0.5;

  00031	dc 05 00 00 00
	00		 fadd	 QWORD PTR __real@3fe0000000000000

; 87   : 	m_dw_amount_to_scroll = (DWORD)floor(val);

  00037	83 c4 10	 add	 esp, 16			; 00000010H
  0003a	dd 1c 24	 fstp	 QWORD PTR [esp]
  0003d	e8 00 00 00 00	 call	 _floor
  00042	83 c4 08	 add	 esp, 8
  00045	e8 00 00 00 00	 call	 __ftol2
  0004a	89 46 08	 mov	 DWORD PTR [esi+8], eax
  0004d	5e		 pop	 esi

; 88   : }

  0004e	59		 pop	 ecx
  0004f	c2 08 00	 ret	 8
?SetAmountToScrollByPercent@Scrollbar@@QAEXN@Z ENDP	; Scrollbar::SetAmountToScrollByPercent
_TEXT	ENDS
PUBLIC	?GetPercentToScroll@Scrollbar@@QBEHXZ		; Scrollbar::GetPercentToScroll
EXTRN	?Percentage@@YANNN@Z:NEAR			; Percentage
; Function compile flags: /Ogty
;	COMDAT ?GetPercentToScroll@Scrollbar@@QBEHXZ
_TEXT	SEGMENT
tv138 = -4						; size = 4
tv134 = -4						; size = 4
?GetPercentToScroll@Scrollbar@@QBEHXZ PROC NEAR		; Scrollbar::GetPercentToScroll, COMDAT
; _this$ = ecx

; 108  : {

  00000	51		 push	 ecx

; 112  : 
; 113  : 	// 소수 첫째 자리 반올림한다.
; 114  : 	percent += 0.5;

  00001	8b 41 04	 mov	 eax, DWORD PTR [ecx+4]
  00004	db 41 04	 fild	 DWORD PTR [ecx+4]
  00007	85 c0		 test	 eax, eax
  00009	7d 06		 jge	 SHORT $L75065
  0000b	dc 05 00 00 00
	00		 fadd	 QWORD PTR __real@41f0000000000000
$L75065:
  00011	8b 49 08	 mov	 ecx, DWORD PTR [ecx+8]
  00014	83 ec 10	 sub	 esp, 16			; 00000010H
  00017	85 c9		 test	 ecx, ecx
  00019	dd 5c 24 08	 fstp	 QWORD PTR [esp+8]
  0001d	89 4c 24 10	 mov	 DWORD PTR tv134[esp+20], ecx
  00021	db 44 24 10	 fild	 DWORD PTR tv134[esp+20]
  00025	7d 06		 jge	 SHORT $L75066
  00027	dc 05 00 00 00
	00		 fadd	 QWORD PTR __real@41f0000000000000
$L75066:

; 109  : 	assert(m_dw_amount_to_scroll <= m_dw_amount_for_scroll);
; 110  : 
; 111  : 	double percent = Percentage(m_dw_amount_to_scroll, m_dw_amount_for_scroll);

  0002d	dd 1c 24	 fstp	 QWORD PTR [esp]
  00030	e8 00 00 00 00	 call	 ?Percentage@@YANNN@Z	; Percentage

; 112  : 
; 113  : 	// 소수 첫째 자리 반올림한다.
; 114  : 	percent += 0.5;

  00035	dc 05 00 00 00
	00		 fadd	 QWORD PTR __real@3fe0000000000000

; 115  : 	int integer = (int)floor(percent);

  0003b	83 c4 08	 add	 esp, 8
  0003e	dd 1c 24	 fstp	 QWORD PTR [esp]
  00041	e8 00 00 00 00	 call	 _floor

; 118  : }

  00046	83 c4 0c	 add	 esp, 12			; 0000000cH

; 116  : 
; 117  : 	return integer;

  00049	e9 00 00 00 00	 jmp	 __ftol2
?GetPercentToScroll@Scrollbar@@QBEHXZ ENDP		; Scrollbar::GetPercentToScroll
_TEXT	ENDS
PUBLIC	?GetAmountToScroll@Scrollbar@@QBEKXZ		; Scrollbar::GetAmountToScroll
; Function compile flags: /Ogty
;	COMDAT ?GetAmountToScroll@Scrollbar@@QBEKXZ
_TEXT	SEGMENT
?GetAmountToScroll@Scrollbar@@QBEKXZ PROC NEAR		; Scrollbar::GetAmountToScroll, COMDAT
; _this$ = ecx

; 127  : 	return m_dw_amount_to_scroll;

  00000	8b 41 08	 mov	 eax, DWORD PTR [ecx+8]

; 128  : }

  00003	c3		 ret	 0
?GetAmountToScroll@Scrollbar@@QBEKXZ ENDP		; Scrollbar::GetAmountToScroll
_TEXT	ENDS
PUBLIC	?GetAmountForScroll@Scrollbar@@QBEKXZ		; Scrollbar::GetAmountForScroll
; Function compile flags: /Ogty
;	COMDAT ?GetAmountForScroll@Scrollbar@@QBEKXZ
_TEXT	SEGMENT
?GetAmountForScroll@Scrollbar@@QBEKXZ PROC NEAR		; Scrollbar::GetAmountForScroll, COMDAT
; _this$ = ecx

; 137  : 	return m_dw_amount_for_scroll;

  00000	8b 41 04	 mov	 eax, DWORD PTR [ecx+4]

; 138  : }

  00003	c3		 ret	 0
?GetAmountForScroll@Scrollbar@@QBEKXZ ENDP		; Scrollbar::GetAmountForScroll
_TEXT	ENDS
PUBLIC	??0Scrollbar@@QAE@XZ				; Scrollbar::Scrollbar
; Function compile flags: /Ogty
;	COMDAT ??0Scrollbar@@QAE@XZ
_TEXT	SEGMENT
??0Scrollbar@@QAE@XZ PROC NEAR				; Scrollbar::Scrollbar, COMDAT
; _this$ = ecx

; 8    : {

  00000	8b c1		 mov	 eax, ecx

; 9    : 	Init();

  00002	33 c9		 xor	 ecx, ecx
  00004	c7 00 00 00 00
	00		 mov	 DWORD PTR [eax], OFFSET FLAT:??_7Scrollbar@@6B@
  0000a	89 48 04	 mov	 DWORD PTR [eax+4], ecx
  0000d	89 48 08	 mov	 DWORD PTR [eax+8], ecx

; 10   : }

  00010	c3		 ret	 0
??0Scrollbar@@QAE@XZ ENDP				; Scrollbar::Scrollbar
_TEXT	ENDS
EXTRN	??3@YAXPAX@Z:NEAR				; operator delete
; Function compile flags: /Ogty
;	COMDAT ??_GScrollbar@@UAEPAXI@Z
_TEXT	SEGMENT
___flags$ = 8						; size = 4
??_GScrollbar@@UAEPAXI@Z PROC NEAR			; Scrollbar::`scalar deleting destructor', COMDAT
; _this$ = ecx
  00000	f6 44 24 04 01	 test	 BYTE PTR ___flags$[esp-4], 1
  00005	56		 push	 esi
  00006	8b f1		 mov	 esi, ecx
  00008	c7 06 00 00 00
	00		 mov	 DWORD PTR [esi], OFFSET FLAT:??_7Scrollbar@@6B@
  0000e	74 09		 je	 SHORT $L75085
  00010	56		 push	 esi
  00011	e8 00 00 00 00	 call	 ??3@YAXPAX@Z		; operator delete
  00016	83 c4 04	 add	 esp, 4
$L75085:
  00019	8b c6		 mov	 eax, esi
  0001b	5e		 pop	 esi
  0001c	c2 04 00	 ret	 4
??_GScrollbar@@UAEPAXI@Z ENDP				; Scrollbar::`scalar deleting destructor'
_TEXT	ENDS
PUBLIC	__real@0000000000000000
PUBLIC	?NoScroll@Scrollbar@@QAE_NXZ			; Scrollbar::NoScroll
;	COMDAT __real@0000000000000000
CONST	SEGMENT
__real@0000000000000000 DQ 00000000000000000r	; 0
; Function compile flags: /Ogty
CONST	ENDS
;	COMDAT ?NoScroll@Scrollbar@@QAE_NXZ
_TEXT	SEGMENT
tv130 = -4						; size = 4
?NoScroll@Scrollbar@@QAE_NXZ PROC NEAR			; Scrollbar::NoScroll, COMDAT
; _this$ = ecx

; 96   : {

  00000	51		 push	 ecx

; 97   : 	return (GetPercentToScroll() == 0.);

  00001	e8 00 00 00 00	 call	 ?GetPercentToScroll@Scrollbar@@QBEHXZ ; Scrollbar::GetPercentToScroll
  00006	89 04 24	 mov	 DWORD PTR tv130[esp+4], eax
  00009	db 04 24	 fild	 DWORD PTR tv130[esp+4]
  0000c	dd 05 00 00 00
	00		 fld	 QWORD PTR __real@0000000000000000
  00012	da e9		 fucompp
  00014	df e0		 fnstsw	 ax
  00016	f6 c4 44	 test	 ah, 68			; 00000044H
  00019	7a 07		 jp	 SHORT $L75089
  0001b	b8 01 00 00 00	 mov	 eax, 1

; 98   : }

  00020	59		 pop	 ecx
  00021	c3		 ret	 0
$L75089:

; 97   : 	return (GetPercentToScroll() == 0.);

  00022	33 c0		 xor	 eax, eax

; 98   : }

  00024	59		 pop	 ecx
  00025	c3		 ret	 0
?NoScroll@Scrollbar@@QAE_NXZ ENDP			; Scrollbar::NoScroll
_TEXT	ENDS
END
