; Listing generated by Microsoft (R) Optimizing Compiler Version 13.10.3077 

	TITLE	\darkeden\Designed_Common\Project\New - vs_ui\src\VS_UI_Descriptor.cpp
	.386P
include listing.inc
if @Version gt 510
.model FLAT
else
_TEXT	SEGMENT PARA USE32 PUBLIC 'CODE'
_TEXT	ENDS
_DATA	SEGMENT DWORD USE32 PUBLIC 'DATA'
_DATA	ENDS
CONST	SEGMENT DWORD USE32 PUBLIC 'CONST'
CONST	ENDS
_BSS	SEGMENT DWORD USE32 PUBLIC 'BSS'
_BSS	ENDS
$$SYMBOLS	SEGMENT BYTE USE32 'DEBSYM'
$$SYMBOLS	ENDS
$$TYPES	SEGMENT BYTE USE32 'DEBTYP'
$$TYPES	ENDS
_TLS	SEGMENT DWORD USE32 PUBLIC 'TLS'
_TLS	ENDS
;	COMDAT ??_C@_0BN@ODLNCKCA@Data?2?2Info?2?2ClientConfig?4inf?$AA@
CONST	SEGMENT DWORD USE32 PUBLIC 'CONST'
CONST	ENDS
;	COMDAT ??_C@_0BM@DFPLPGPC@Data?2?2Info?2?2GuildMapper?4inf?$AA@
CONST	SEGMENT DWORD USE32 PUBLIC 'CONST'
CONST	ENDS
;	COMDAT ??_C@_0BN@LHODHNBK@Data?2?2Info?2?2GuildVersion?4inf?$AA@
CONST	SEGMENT DWORD USE32 PUBLIC 'CONST'
CONST	ENDS
;	COMDAT ??_C@_0BH@DDPLNCOL@Data?2?2Info?2?2Player?4inf?$AA@
CONST	SEGMENT DWORD USE32 PUBLIC 'CONST'
CONST	ENDS
;	COMDAT ??_C@_0BL@ILLNAPHB@Data?2?2Info?2?2Resolution?4inf?$AA@
CONST	SEGMENT DWORD USE32 PUBLIC 'CONST'
CONST	ENDS
;	COMDAT ??_C@_0CA@HEIGFDLG@Data?2?2Info?2?2SelectedChannel?4inf?$AA@
CONST	SEGMENT DWORD USE32 PUBLIC 'CONST'
CONST	ENDS
;	COMDAT ??_C@_0EM@OGKKDBGH@c?3?2darkeden?2designed_common?2proj@
CONST	SEGMENT DWORD USE32 PUBLIC 'CONST'
CONST	ENDS
;	COMDAT ??_C@_0N@GOPDCEEB@basic_string?$AA@
CONST	SEGMENT DWORD USE32 PUBLIC 'CONST'
CONST	ENDS
rdata$r	SEGMENT DWORD USE32 PUBLIC 'CONST'
rdata$r	ENDS
text$yc	SEGMENT PARA USE32 PUBLIC 'CODE'
text$yc	ENDS
CRT$XCA	SEGMENT DWORD USE32 PUBLIC 'DATA'
CRT$XCA	ENDS
CRT$XCU	SEGMENT DWORD USE32 PUBLIC 'DATA'
CRT$XCU	ENDS
CRT$XCL	SEGMENT DWORD USE32 PUBLIC 'DATA'
CRT$XCL	ENDS
CRT$XCC	SEGMENT DWORD USE32 PUBLIC 'DATA'
CRT$XCC	ENDS
CRT$XCZ	SEGMENT DWORD USE32 PUBLIC 'DATA'
CRT$XCZ	ENDS
text$yd	SEGMENT PARA USE32 PUBLIC 'CODE'
text$yd	ENDS
;	COMDAT ?Is565@CDirectDraw@@SA_NXZ
_TEXT	SEGMENT PARA USE32 PUBLIC 'CODE'
_TEXT	ENDS
;	COMDAT ?Red@CDirectDraw@@SAEABG@Z
_TEXT	SEGMENT PARA USE32 PUBLIC 'CODE'
_TEXT	ENDS
;	COMDAT ?Green@CDirectDraw@@SAEABG@Z
_TEXT	SEGMENT PARA USE32 PUBLIC 'CODE'
_TEXT	ENDS
;	COMDAT ?Blue@CDirectDraw@@SAEABG@Z
_TEXT	SEGMENT PARA USE32 PUBLIC 'CODE'
_TEXT	ENDS
;	COMDAT ?SetClipLeftTop@CDirectDrawSurface@@QAEXHH@Z
_TEXT	SEGMENT PARA USE32 PUBLIC 'CODE'
_TEXT	ENDS
;	COMDAT ?SetClipRightBottom@CDirectDrawSurface@@QAEXHH@Z
_TEXT	SEGMENT PARA USE32 PUBLIC 'CODE'
_TEXT	ENDS
;	COMDAT _acosl
_TEXT	SEGMENT PARA USE32 PUBLIC 'CODE'
_TEXT	ENDS
;	COMDAT _asinl
_TEXT	SEGMENT PARA USE32 PUBLIC 'CODE'
_TEXT	ENDS
;	COMDAT _atanl
_TEXT	SEGMENT PARA USE32 PUBLIC 'CODE'
_TEXT	ENDS
;	COMDAT _atan2l
_TEXT	SEGMENT PARA USE32 PUBLIC 'CODE'
_TEXT	ENDS
;	COMDAT _ceill
_TEXT	SEGMENT PARA USE32 PUBLIC 'CODE'
_TEXT	ENDS
;	COMDAT _cosl
_TEXT	SEGMENT PARA USE32 PUBLIC 'CODE'
_TEXT	ENDS
;	COMDAT _coshl
_TEXT	SEGMENT PARA USE32 PUBLIC 'CODE'
_TEXT	ENDS
;	COMDAT _expl
_TEXT	SEGMENT PARA USE32 PUBLIC 'CODE'
_TEXT	ENDS
;	COMDAT _fabsl
_TEXT	SEGMENT PARA USE32 PUBLIC 'CODE'
_TEXT	ENDS
;	COMDAT _floorl
_TEXT	SEGMENT PARA USE32 PUBLIC 'CODE'
_TEXT	ENDS
;	COMDAT _fmodl
_TEXT	SEGMENT PARA USE32 PUBLIC 'CODE'
_TEXT	ENDS
;	COMDAT _frexpl
_TEXT	SEGMENT PARA USE32 PUBLIC 'CODE'
_TEXT	ENDS
;	COMDAT _ldexpl
_TEXT	SEGMENT PARA USE32 PUBLIC 'CODE'
_TEXT	ENDS
;	COMDAT _logl
_TEXT	SEGMENT PARA USE32 PUBLIC 'CODE'
_TEXT	ENDS
;	COMDAT _log10l
_TEXT	SEGMENT PARA USE32 PUBLIC 'CODE'
_TEXT	ENDS
;	COMDAT _modfl
_TEXT	SEGMENT PARA USE32 PUBLIC 'CODE'
_TEXT	ENDS
;	COMDAT _powl
_TEXT	SEGMENT PARA USE32 PUBLIC 'CODE'
_TEXT	ENDS
;	COMDAT _sinl
_TEXT	SEGMENT PARA USE32 PUBLIC 'CODE'
_TEXT	ENDS
;	COMDAT _sinhl
_TEXT	SEGMENT PARA USE32 PUBLIC 'CODE'
_TEXT	ENDS
;	COMDAT _sqrtl
_TEXT	SEGMENT PARA USE32 PUBLIC 'CODE'
_TEXT	ENDS
;	COMDAT _tanl
_TEXT	SEGMENT PARA USE32 PUBLIC 'CODE'
_TEXT	ENDS
;	COMDAT _tanhl
_TEXT	SEGMENT PARA USE32 PUBLIC 'CODE'
_TEXT	ENDS
;	COMDAT _frexpf
_TEXT	SEGMENT PARA USE32 PUBLIC 'CODE'
_TEXT	ENDS
;	COMDAT _ldexpf
_TEXT	SEGMENT PARA USE32 PUBLIC 'CODE'
_TEXT	ENDS
;	COMDAT _acosf
_TEXT	SEGMENT PARA USE32 PUBLIC 'CODE'
_TEXT	ENDS
;	COMDAT _asinf
_TEXT	SEGMENT PARA USE32 PUBLIC 'CODE'
_TEXT	ENDS
;	COMDAT _atanf
_TEXT	SEGMENT PARA USE32 PUBLIC 'CODE'
_TEXT	ENDS
;	COMDAT _atan2f
_TEXT	SEGMENT PARA USE32 PUBLIC 'CODE'
_TEXT	ENDS
;	COMDAT _ceilf
_TEXT	SEGMENT PARA USE32 PUBLIC 'CODE'
_TEXT	ENDS
;	COMDAT _cosf
_TEXT	SEGMENT PARA USE32 PUBLIC 'CODE'
_TEXT	ENDS
;	COMDAT _coshf
_TEXT	SEGMENT PARA USE32 PUBLIC 'CODE'
_TEXT	ENDS
;	COMDAT _expf
_TEXT	SEGMENT PARA USE32 PUBLIC 'CODE'
_TEXT	ENDS
;	COMDAT _fabsf
_TEXT	SEGMENT PARA USE32 PUBLIC 'CODE'
_TEXT	ENDS
;	COMDAT _floorf
_TEXT	SEGMENT PARA USE32 PUBLIC 'CODE'
_TEXT	ENDS
;	COMDAT _fmodf
_TEXT	SEGMENT PARA USE32 PUBLIC 'CODE'
_TEXT	ENDS
;	COMDAT _logf
_TEXT	SEGMENT PARA USE32 PUBLIC 'CODE'
_TEXT	ENDS
;	COMDAT _log10f
_TEXT	SEGMENT PARA USE32 PUBLIC 'CODE'
_TEXT	ENDS
;	COMDAT _modff
_TEXT	SEGMENT PARA USE32 PUBLIC 'CODE'
_TEXT	ENDS
;	COMDAT _powf
_TEXT	SEGMENT PARA USE32 PUBLIC 'CODE'
_TEXT	ENDS
;	COMDAT _sinf
_TEXT	SEGMENT PARA USE32 PUBLIC 'CODE'
_TEXT	ENDS
;	COMDAT _sinhf
_TEXT	SEGMENT PARA USE32 PUBLIC 'CODE'
_TEXT	ENDS
;	COMDAT _sqrtf
_TEXT	SEGMENT PARA USE32 PUBLIC 'CODE'
_TEXT	ENDS
;	COMDAT _tanf
_TEXT	SEGMENT PARA USE32 PUBLIC 'CODE'
_TEXT	ENDS
;	COMDAT _tanhf
_TEXT	SEGMENT PARA USE32 PUBLIC 'CODE'
_TEXT	ENDS
;	COMDAT ?start@CNFS@@QAE_NPADH@Z
_TEXT	SEGMENT PARA USE32 PUBLIC 'CODE'
_TEXT	ENDS
;	COMDAT ?end@CNFS@@QAEXXZ
_TEXT	SEGMENT PARA USE32 PUBLIC 'CODE'
_TEXT	ENDS
;	COMDAT ?Init@VirtualFileHeader@@QAEXXZ
_TEXT	SEGMENT PARA USE32 PUBLIC 'CODE'
_TEXT	ENDS
;	COMDAT ??1IFileIO@@UAE@XZ
_TEXT	SEGMENT PARA USE32 PUBLIC 'CODE'
_TEXT	ENDS
;	COMDAT ??_GIFileIO@@UAEPAXI@Z
_TEXT	SEGMENT PARA USE32 PUBLIC 'CODE'
_TEXT	ENDS
;	COMDAT ??0iovfs_base@@QAE@XZ
_TEXT	SEGMENT PARA USE32 PUBLIC 'CODE'
_TEXT	ENDS
;	COMDAT ??_Giovfs_base@@UAEPAXI@Z
_TEXT	SEGMENT PARA USE32 PUBLIC 'CODE'
_TEXT	ENDS
;	COMDAT ??1iovfs_base@@UAE@XZ
_TEXT	SEGMENT PARA USE32 PUBLIC 'CODE'
_TEXT	ENDS
;	COMDAT ?Init@iovfs_base@@QAEXXZ
_TEXT	SEGMENT PARA USE32 PUBLIC 'CODE'
_TEXT	ENDS
;	COMDAT ??_Givfstream@@UAEPAXI@Z
_TEXT	SEGMENT PARA USE32 PUBLIC 'CODE'
_TEXT	ENDS
;	COMDAT ??1ivfstream@@UAE@XZ
_TEXT	SEGMENT PARA USE32 PUBLIC 'CODE'
_TEXT	ENDS
;	COMDAT ?open@ivfstream@@UAEXPBDH@Z
_TEXT	SEGMENT PARA USE32 PUBLIC 'CODE'
_TEXT	ENDS
;	COMDAT ??_Govfstream@@UAEPAXI@Z
_TEXT	SEGMENT PARA USE32 PUBLIC 'CODE'
_TEXT	ENDS
;	COMDAT ??1ovfstream@@UAE@XZ
_TEXT	SEGMENT PARA USE32 PUBLIC 'CODE'
_TEXT	ENDS
;	COMDAT ?open@ovfstream@@UAEXPBDH@Z
_TEXT	SEGMENT PARA USE32 PUBLIC 'CODE'
_TEXT	ENDS
;	COMDAT ??1ITypePackBase@@UAE@XZ
_TEXT	SEGMENT PARA USE32 PUBLIC 'CODE'
_TEXT	ENDS
;	COMDAT ??_GITypePackBase@@UAEPAXI@Z
_TEXT	SEGMENT PARA USE32 PUBLIC 'CODE'
_TEXT	ENDS
;	COMDAT ?IsInit@CSpritePalBase@@QBE_NXZ
_TEXT	SEGMENT PARA USE32 PUBLIC 'CODE'
_TEXT	ENDS
;	COMDAT ?Lock@ACriticalSection@@QAEXXZ
_TEXT	SEGMENT PARA USE32 PUBLIC 'CODE'
_TEXT	ENDS
;	COMDAT ?Unlock@ACriticalSection@@QAEXXZ
_TEXT	SEGMENT PARA USE32 PUBLIC 'CODE'
_TEXT	ENDS
;	COMDAT ??0FP_SHOW_PARAM@DescriptorManager@@QAE@XZ
_TEXT	SEGMENT PARA USE32 PUBLIC 'CODE'
_TEXT	ENDS
;	COMDAT ??0DESC@DescriptorManager@@QAE@XZ
_TEXT	SEGMENT PARA USE32 PUBLIC 'CODE'
_TEXT	ENDS
;	COMDAT ??1FP_SHOW_PARAM@DescriptorManager@@QAE@XZ
_TEXT	SEGMENT PARA USE32 PUBLIC 'CODE'
_TEXT	ENDS
;	COMDAT _$E7
text$yc	SEGMENT PARA USE32 PUBLIC 'CODE'
text$yc	ENDS
;	COMDAT _$E8
text$yd	SEGMENT PARA USE32 PUBLIC 'CODE'
text$yd	ENDS
;	COMDAT ??0DescriptorManager@@QAE@XZ
_TEXT	SEGMENT PARA USE32 PUBLIC 'CODE'
_TEXT	ENDS
;	COMDAT ??_GDescriptorManager@@UAEPAXI@Z
_TEXT	SEGMENT PARA USE32 PUBLIC 'CODE'
_TEXT	ENDS
;	COMDAT ??1?$multimap@HUDESC@DescriptorManager@@U?$less@H@_STL@@V?$allocator@U?$pair@$$CBHUDESC@DescriptorManager@@@_STL@@@4@@_STL@@QAE@XZ
_TEXT	SEGMENT PARA USE32 PUBLIC 'CODE'
_TEXT	ENDS
;	COMDAT ??1DescriptorManager@@UAE@XZ
_TEXT	SEGMENT PARA USE32 PUBLIC 'CODE'
_TEXT	ENDS
;	COMDAT ?Set@DescriptorManager@@QAEXKHHPAXJJ_NH@Z
_TEXT	SEGMENT PARA USE32 PUBLIC 'CODE'
_TEXT	ENDS
;	COMDAT ?GetDesc@DescriptorManager@@QBEPBUDESC@1@PAX@Z
_TEXT	SEGMENT PARA USE32 PUBLIC 'CODE'
_TEXT	ENDS
;	COMDAT ?Unset@DescriptorManager@@QAEXPAX@Z
_TEXT	SEGMENT PARA USE32 PUBLIC 'CODE'
_TEXT	ENDS
;	COMDAT ?Show@DescriptorManager@@QAEXXZ
_TEXT	SEGMENT PARA USE32 PUBLIC 'CODE'
_TEXT	ENDS
;	COMDAT ?AddDescribedUnit@DescriptorManager@@QAEXKP6AXP6AXVRect@@PAXJJ@ZHH1JJH@Z2_N@Z
_TEXT	SEGMENT PARA USE32 PUBLIC 'CODE'
_TEXT	ENDS
;	COMDAT ?RectCalculationFinished@DescriptorManager@@QAEXP6AXVRect@@PAXJJ@Z01JJH@Z
_TEXT	SEGMENT PARA USE32 PUBLIC 'CODE'
_TEXT	ENDS
;	COMDAT ??1DESC@DescriptorManager@@QAE@XZ
_TEXT	SEGMENT PARA USE32 PUBLIC 'CODE'
_TEXT	ENDS
;	COMDAT ??1?$pair@$$CBHUDESC@DescriptorManager@@@_STL@@QAE@XZ
_TEXT	SEGMENT PARA USE32 PUBLIC 'CODE'
_TEXT	ENDS
;	COMDAT ?eq@?$__char_traits_base@DH@_STL@@SA_NABD0@Z
_TEXT	SEGMENT PARA USE32 PUBLIC 'CODE'
_TEXT	ENDS
;	COMDAT ?not_eof@?$__char_traits_base@DH@_STL@@SAHABH@Z
_TEXT	SEGMENT PARA USE32 PUBLIC 'CODE'
_TEXT	ENDS
;	COMDAT ?eq_int_type@?$__char_traits_base@DH@_STL@@SA_NABH0@Z
_TEXT	SEGMENT PARA USE32 PUBLIC 'CODE'
_TEXT	ENDS
;	COMDAT ??4?$basic_string@DV?$char_traits@D@_STL@@V?$allocator@D@2@@_STL@@QAEAAV01@PBD@Z
_TEXT	SEGMENT PARA USE32 PUBLIC 'CODE'
_TEXT	ENDS
;	COMDAT ?size@?$basic_string@GV?$char_traits@G@_STL@@V?$allocator@G@2@@_STL@@QBEIXZ
_TEXT	SEGMENT PARA USE32 PUBLIC 'CODE'
_TEXT	ENDS
;	COMDAT ?c_str@?$basic_string@GV?$char_traits@G@_STL@@V?$allocator@G@2@@_STL@@QBEPBGXZ
_TEXT	SEGMENT PARA USE32 PUBLIC 'CODE'
_TEXT	ENDS
;	COMDAT ??0?$fpos@H@_STL@@QAE@J@Z
_TEXT	SEGMENT PARA USE32 PUBLIC 'CODE'
_TEXT	ENDS
;	COMDAT ??B?$fpos@H@_STL@@QBEJXZ
_TEXT	SEGMENT PARA USE32 PUBLIC 'CODE'
_TEXT	ENDS
;	COMDAT ?state@?$fpos@H@_STL@@QBEHXZ
_TEXT	SEGMENT PARA USE32 PUBLIC 'CODE'
_TEXT	ENDS
;	COMDAT ?is_open@?$basic_filebuf@DV?$char_traits@D@_STL@@@_STL@@QBE_NXZ
_TEXT	SEGMENT PARA USE32 PUBLIC 'CODE'
_TEXT	ENDS
;	COMDAT ?_M_seek_return@?$basic_filebuf@DV?$char_traits@D@_STL@@@_STL@@AAE?AV?$fpos@H@2@JH@Z
_TEXT	SEGMENT PARA USE32 PUBLIC 'CODE'
_TEXT	ENDS
;	COMDAT ??0?$_Filebuf_Tmp_Buf@D@_STL@@QAE@H@Z
_TEXT	SEGMENT PARA USE32 PUBLIC 'CODE'
_TEXT	ENDS
;	COMDAT ??1?$_Filebuf_Tmp_Buf@D@_STL@@QAE@XZ
_TEXT	SEGMENT PARA USE32 PUBLIC 'CODE'
_TEXT	ENDS
;	COMDAT ?size@?$list@PAVWindow@@V?$allocator@PAVWindow@@@_STL@@@_STL@@QBEIXZ
_TEXT	SEGMENT PARA USE32 PUBLIC 'CODE'
_TEXT	ENDS
;	COMDAT ?Size@?$SimpleDataList@PAUDESCRIBED_UNIT@@@@QBEHXZ
_TEXT	SEGMENT PARA USE32 PUBLIC 'CODE'
_TEXT	ENDS
;	COMDAT ??0?$multimap@HUDESC@DescriptorManager@@U?$less@H@_STL@@V?$allocator@U?$pair@$$CBHUDESC@DescriptorManager@@@_STL@@@4@@_STL@@QAE@XZ
_TEXT	SEGMENT PARA USE32 PUBLIC 'CODE'
_TEXT	ENDS
;	COMDAT ?begin@?$multimap@HUDESC@DescriptorManager@@U?$less@H@_STL@@V?$allocator@U?$pair@$$CBHUDESC@DescriptorManager@@@_STL@@@4@@_STL@@QAE?AU?$_Rb_tree_iterator@U?$pair@$$CBHUDESC@DescriptorManager@@@_STL@@U?$_Nonconst_traits@U?$pair@$$CBHUDESC@DescriptorManager@@@_STL@@@2@@2@XZ
_TEXT	SEGMENT PARA USE32 PUBLIC 'CODE'
_TEXT	ENDS
;	COMDAT ?begin@?$multimap@HUDESC@DescriptorManager@@U?$less@H@_STL@@V?$allocator@U?$pair@$$CBHUDESC@DescriptorManager@@@_STL@@@4@@_STL@@QBE?AU?$_Rb_tree_iterator@U?$pair@$$CBHUDESC@DescriptorManager@@@_STL@@U?$_Const_traits@U?$pair@$$CBHUDESC@DescriptorManager@@@_STL@@@2@@2@XZ
_TEXT	SEGMENT PARA USE32 PUBLIC 'CODE'
_TEXT	ENDS
;	COMDAT ?end@?$multimap@HUDESC@DescriptorManager@@U?$less@H@_STL@@V?$allocator@U?$pair@$$CBHUDESC@DescriptorManager@@@_STL@@@4@@_STL@@QAE?AU?$_Rb_tree_iterator@U?$pair@$$CBHUDESC@DescriptorManager@@@_STL@@U?$_Nonconst_traits@U?$pair@$$CBHUDESC@DescriptorManager@@@_STL@@@2@@2@XZ
_TEXT	SEGMENT PARA USE32 PUBLIC 'CODE'
_TEXT	ENDS
;	COMDAT ?end@?$multimap@HUDESC@DescriptorManager@@U?$less@H@_STL@@V?$allocator@U?$pair@$$CBHUDESC@DescriptorManager@@@_STL@@@4@@_STL@@QBE?AU?$_Rb_tree_iterator@U?$pair@$$CBHUDESC@DescriptorManager@@@_STL@@U?$_Const_traits@U?$pair@$$CBHUDESC@DescriptorManager@@@_STL@@@2@@2@XZ
_TEXT	SEGMENT PARA USE32 PUBLIC 'CODE'
_TEXT	ENDS
;	COMDAT ?empty@?$multimap@HUDESC@DescriptorManager@@U?$less@H@_STL@@V?$allocator@U?$pair@$$CBHUDESC@DescriptorManager@@@_STL@@@4@@_STL@@QBE_NXZ
_TEXT	SEGMENT PARA USE32 PUBLIC 'CODE'
_TEXT	ENDS
;	COMDAT ?insert@?$multimap@HUDESC@DescriptorManager@@U?$less@H@_STL@@V?$allocator@U?$pair@$$CBHUDESC@DescriptorManager@@@_STL@@@4@@_STL@@QAE?AU?$_Rb_tree_iterator@U?$pair@$$CBHUDESC@DescriptorManager@@@_STL@@U?$_Nonconst_traits@U?$pair@$$CBHUDESC@DescriptorManager@@@_STL@@@2@@2@ABU?$pair@$$CBHUDESC@DescriptorManager@@@2@@Z
_TEXT	SEGMENT PARA USE32 PUBLIC 'CODE'
_TEXT	ENDS
;	COMDAT ?erase@?$multimap@HUDESC@DescriptorManager@@U?$less@H@_STL@@V?$allocator@U?$pair@$$CBHUDESC@DescriptorManager@@@_STL@@@4@@_STL@@QAEXU?$_Rb_tree_iterator@U?$pair@$$CBHUDESC@DescriptorManager@@@_STL@@U?$_Nonconst_traits@U?$pair@$$CBHUDESC@DescriptorManager@@@_STL@@@2@@2@@Z
_TEXT	SEGMENT PARA USE32 PUBLIC 'CODE'
_TEXT	ENDS
;	COMDAT ?clear@?$multimap@HUDESC@DescriptorManager@@U?$less@H@_STL@@V?$allocator@U?$pair@$$CBHUDESC@DescriptorManager@@@_STL@@@4@@_STL@@QAEXXZ
_TEXT	SEGMENT PARA USE32 PUBLIC 'CODE'
_TEXT	ENDS
;	COMDAT ??1?$_Rb_tree@HU?$pair@$$CBHUDESC@DescriptorManager@@@_STL@@U?$_Select1st@U?$pair@$$CBHUDESC@DescriptorManager@@@_STL@@@2@U?$less@H@2@V?$allocator@U?$pair@$$CBHUDESC@DescriptorManager@@@_STL@@@2@@_STL@@QAE@XZ
_TEXT	SEGMENT PARA USE32 PUBLIC 'CODE'
_TEXT	ENDS
;	COMDAT ??C?$_Rb_tree_iterator@U?$pair@$$CBHUDESC@DescriptorManager@@@_STL@@U?$_Const_traits@U?$pair@$$CBHUDESC@DescriptorManager@@@_STL@@@2@@_STL@@QBEPBU?$pair@$$CBHUDESC@DescriptorManager@@@1@XZ
_TEXT	SEGMENT PARA USE32 PUBLIC 'CODE'
_TEXT	ENDS
;	COMDAT ??E?$_Rb_tree_iterator@U?$pair@$$CBHUDESC@DescriptorManager@@@_STL@@U?$_Const_traits@U?$pair@$$CBHUDESC@DescriptorManager@@@_STL@@@2@@_STL@@QAEAAU01@XZ
_TEXT	SEGMENT PARA USE32 PUBLIC 'CODE'
_TEXT	ENDS
;	COMDAT ??0?$_Rb_tree_iterator@U?$pair@$$CBHUDESC@DescriptorManager@@@_STL@@U?$_Nonconst_traits@U?$pair@$$CBHUDESC@DescriptorManager@@@_STL@@@2@@_STL@@QAE@ABU01@@Z
_TEXT	SEGMENT PARA USE32 PUBLIC 'CODE'
_TEXT	ENDS
;	COMDAT ??C?$_Rb_tree_iterator@U?$pair@$$CBHUDESC@DescriptorManager@@@_STL@@U?$_Nonconst_traits@U?$pair@$$CBHUDESC@DescriptorManager@@@_STL@@@2@@_STL@@QBEPAU?$pair@$$CBHUDESC@DescriptorManager@@@1@XZ
_TEXT	SEGMENT PARA USE32 PUBLIC 'CODE'
_TEXT	ENDS
;	COMDAT ??E?$_Rb_tree_iterator@U?$pair@$$CBHUDESC@DescriptorManager@@@_STL@@U?$_Nonconst_traits@U?$pair@$$CBHUDESC@DescriptorManager@@@_STL@@@2@@_STL@@QAEAAU01@XZ
_TEXT	SEGMENT PARA USE32 PUBLIC 'CODE'
_TEXT	ENDS
;	COMDAT ??0?$pair@$$CBHUDESC@DescriptorManager@@@_STL@@QAE@ABHABUDESC@DescriptorManager@@@Z
_TEXT	SEGMENT PARA USE32 PUBLIC 'CODE'
_TEXT	ENDS
;	COMDAT ?assign@?$basic_string@DV?$char_traits@D@_STL@@V?$allocator@D@2@@_STL@@QAEAAV12@PBD0@Z
_TEXT	SEGMENT PARA USE32 PUBLIC 'CODE'
_TEXT	ENDS
;	COMDAT ?state@?$fpos@H@_STL@@QAEXH@Z
_TEXT	SEGMENT PARA USE32 PUBLIC 'CODE'
_TEXT	ENDS
;	COMDAT ?begin@?$list@PAVWindow@@V?$allocator@PAVWindow@@@_STL@@@_STL@@QBE?AU?$_List_iterator@PAVWindow@@U?$_Const_traits@PAVWindow@@@_STL@@@2@XZ
_TEXT	SEGMENT PARA USE32 PUBLIC 'CODE'
_TEXT	ENDS
;	COMDAT ?end@?$list@PAVWindow@@V?$allocator@PAVWindow@@@_STL@@@_STL@@QBE?AU?$_List_iterator@PAVWindow@@U?$_Const_traits@PAVWindow@@@_STL@@@2@XZ
_TEXT	SEGMENT PARA USE32 PUBLIC 'CODE'
_TEXT	ENDS
;	COMDAT ??0?$_Rb_tree@HU?$pair@$$CBHUDESC@DescriptorManager@@@_STL@@U?$_Select1st@U?$pair@$$CBHUDESC@DescriptorManager@@@_STL@@@2@U?$less@H@2@V?$allocator@U?$pair@$$CBHUDESC@DescriptorManager@@@_STL@@@2@@_STL@@QAE@ABU?$less@H@1@ABV?$allocator@U?$pair@$$CBHUDESC@DescriptorManager@@@_STL@@@1@@Z
_TEXT	SEGMENT PARA USE32 PUBLIC 'CODE'
_TEXT	ENDS
;	COMDAT ?begin@?$_Rb_tree@HU?$pair@$$CBHUDESC@DescriptorManager@@@_STL@@U?$_Select1st@U?$pair@$$CBHUDESC@DescriptorManager@@@_STL@@@2@U?$less@H@2@V?$allocator@U?$pair@$$CBHUDESC@DescriptorManager@@@_STL@@@2@@_STL@@QAE?AU?$_Rb_tree_iterator@U?$pair@$$CBHUDESC@DescriptorManager@@@_STL@@U?$_Nonconst_traits@U?$pair@$$CBHUDESC@DescriptorManager@@@_STL@@@2@@2@XZ
_TEXT	SEGMENT PARA USE32 PUBLIC 'CODE'
_TEXT	ENDS
;	COMDAT ?begin@?$_Rb_tree@HU?$pair@$$CBHUDESC@DescriptorManager@@@_STL@@U?$_Select1st@U?$pair@$$CBHUDESC@DescriptorManager@@@_STL@@@2@U?$less@H@2@V?$allocator@U?$pair@$$CBHUDESC@DescriptorManager@@@_STL@@@2@@_STL@@QBE?AU?$_Rb_tree_iterator@U?$pair@$$CBHUDESC@DescriptorManager@@@_STL@@U?$_Const_traits@U?$pair@$$CBHUDESC@DescriptorManager@@@_STL@@@2@@2@XZ
_TEXT	SEGMENT PARA USE32 PUBLIC 'CODE'
_TEXT	ENDS
;	COMDAT ?end@?$_Rb_tree@HU?$pair@$$CBHUDESC@DescriptorManager@@@_STL@@U?$_Select1st@U?$pair@$$CBHUDESC@DescriptorManager@@@_STL@@@2@U?$less@H@2@V?$allocator@U?$pair@$$CBHUDESC@DescriptorManager@@@_STL@@@2@@_STL@@QAE?AU?$_Rb_tree_iterator@U?$pair@$$CBHUDESC@DescriptorManager@@@_STL@@U?$_Nonconst_traits@U?$pair@$$CBHUDESC@DescriptorManager@@@_STL@@@2@@2@XZ
_TEXT	SEGMENT PARA USE32 PUBLIC 'CODE'
_TEXT	ENDS
;	COMDAT ?end@?$_Rb_tree@HU?$pair@$$CBHUDESC@DescriptorManager@@@_STL@@U?$_Select1st@U?$pair@$$CBHUDESC@DescriptorManager@@@_STL@@@2@U?$less@H@2@V?$allocator@U?$pair@$$CBHUDESC@DescriptorManager@@@_STL@@@2@@_STL@@QBE?AU?$_Rb_tree_iterator@U?$pair@$$CBHUDESC@DescriptorManager@@@_STL@@U?$_Const_traits@U?$pair@$$CBHUDESC@DescriptorManager@@@_STL@@@2@@2@XZ
_TEXT	SEGMENT PARA USE32 PUBLIC 'CODE'
_TEXT	ENDS
;	COMDAT ?empty@?$_Rb_tree@HU?$pair@$$CBHUDESC@DescriptorManager@@@_STL@@U?$_Select1st@U?$pair@$$CBHUDESC@DescriptorManager@@@_STL@@@2@U?$less@H@2@V?$allocator@U?$pair@$$CBHUDESC@DescriptorManager@@@_STL@@@2@@_STL@@QBE_NXZ
_TEXT	SEGMENT PARA USE32 PUBLIC 'CODE'
_TEXT	ENDS
;	COMDAT ?erase@?$_Rb_tree@HU?$pair@$$CBHUDESC@DescriptorManager@@@_STL@@U?$_Select1st@U?$pair@$$CBHUDESC@DescriptorManager@@@_STL@@@2@U?$less@H@2@V?$allocator@U?$pair@$$CBHUDESC@DescriptorManager@@@_STL@@@2@@_STL@@QAEXU?$_Rb_tree_iterator@U?$pair@$$CBHUDESC@DescriptorManager@@@_STL@@U?$_Nonconst_traits@U?$pair@$$CBHUDESC@DescriptorManager@@@_STL@@@2@@2@@Z
_TEXT	SEGMENT PARA USE32 PUBLIC 'CODE'
_TEXT	ENDS
;	COMDAT ?clear@?$_Rb_tree@HU?$pair@$$CBHUDESC@DescriptorManager@@@_STL@@U?$_Select1st@U?$pair@$$CBHUDESC@DescriptorManager@@@_STL@@@2@U?$less@H@2@V?$allocator@U?$pair@$$CBHUDESC@DescriptorManager@@@_STL@@@2@@_STL@@QAEXXZ
_TEXT	SEGMENT PARA USE32 PUBLIC 'CODE'
_TEXT	ENDS
;	COMDAT ??1?$_Rb_tree_base@U?$pair@$$CBHUDESC@DescriptorManager@@@_STL@@V?$allocator@U?$pair@$$CBHUDESC@DescriptorManager@@@_STL@@@2@@_STL@@QAE@XZ
_TEXT	SEGMENT PARA USE32 PUBLIC 'CODE'
_TEXT	ENDS
;	COMDAT ??0?$allocator@U?$pair@$$CBHUDESC@DescriptorManager@@@_STL@@@_STL@@QAE@XZ
_TEXT	SEGMENT PARA USE32 PUBLIC 'CODE'
_TEXT	ENDS
;	COMDAT ??1?$allocator@U?$pair@$$CBHUDESC@DescriptorManager@@@_STL@@@_STL@@QAE@XZ
_TEXT	SEGMENT PARA USE32 PUBLIC 'CODE'
_TEXT	ENDS
;	COMDAT ??D?$_Rb_tree_iterator@U?$pair@$$CBHUDESC@DescriptorManager@@@_STL@@U?$_Const_traits@U?$pair@$$CBHUDESC@DescriptorManager@@@_STL@@@2@@_STL@@QBEABU?$pair@$$CBHUDESC@DescriptorManager@@@1@XZ
_TEXT	SEGMENT PARA USE32 PUBLIC 'CODE'
_TEXT	ENDS
;	COMDAT ??D?$_Rb_tree_iterator@U?$pair@$$CBHUDESC@DescriptorManager@@@_STL@@U?$_Nonconst_traits@U?$pair@$$CBHUDESC@DescriptorManager@@@_STL@@@2@@_STL@@QBEAAU?$pair@$$CBHUDESC@DescriptorManager@@@1@XZ
_TEXT	SEGMENT PARA USE32 PUBLIC 'CODE'
_TEXT	ENDS
;	COMDAT ??1?$_STLP_alloc_proxy@PAU?$_Rb_tree_node@U?$pair@$$CBHUDESC@DescriptorManager@@@_STL@@@_STL@@U12@V?$allocator@U?$_Rb_tree_node@U?$pair@$$CBHUDESC@DescriptorManager@@@_STL@@@_STL@@@2@@_STL@@QAE@XZ
_TEXT	SEGMENT PARA USE32 PUBLIC 'CODE'
_TEXT	ENDS
;	COMDAT ?copy@?$__char_traits_base@DH@_STL@@SAPADPADPBDI@Z
_TEXT	SEGMENT PARA USE32 PUBLIC 'CODE'
_TEXT	ENDS
;	COMDAT ?begin@?$basic_string@DV?$char_traits@D@_STL@@V?$allocator@D@2@@_STL@@QAEPADXZ
_TEXT	SEGMENT PARA USE32 PUBLIC 'CODE'
_TEXT	ENDS
;	COMDAT ?end@?$basic_string@DV?$char_traits@D@_STL@@V?$allocator@D@2@@_STL@@QAEPADXZ
_TEXT	SEGMENT PARA USE32 PUBLIC 'CODE'
_TEXT	ENDS
;	COMDAT ?size@?$basic_string@DV?$char_traits@D@_STL@@V?$allocator@D@2@@_STL@@QBEIXZ
_TEXT	SEGMENT PARA USE32 PUBLIC 'CODE'
_TEXT	ENDS
;	COMDAT ?erase@?$basic_string@DV?$char_traits@D@_STL@@V?$allocator@D@2@@_STL@@QAEPADPAD0@Z
_TEXT	SEGMENT PARA USE32 PUBLIC 'CODE'
_TEXT	ENDS
;	COMDAT ?_M_root@?$_Rb_tree@HU?$pair@$$CBHUDESC@DescriptorManager@@@_STL@@U?$_Select1st@U?$pair@$$CBHUDESC@DescriptorManager@@@_STL@@@2@U?$less@H@2@V?$allocator@U?$pair@$$CBHUDESC@DescriptorManager@@@_STL@@@2@@_STL@@IBEAAPAU?$_Rb_tree_node@U?$pair@$$CBHUDESC@DescriptorManager@@@_STL@@@2@XZ
_TEXT	SEGMENT PARA USE32 PUBLIC 'CODE'
_TEXT	ENDS
;	COMDAT ?_M_leftmost@?$_Rb_tree@HU?$pair@$$CBHUDESC@DescriptorManager@@@_STL@@U?$_Select1st@U?$pair@$$CBHUDESC@DescriptorManager@@@_STL@@@2@U?$less@H@2@V?$allocator@U?$pair@$$CBHUDESC@DescriptorManager@@@_STL@@@2@@_STL@@IBEAAPAU?$_Rb_tree_node@U?$pair@$$CBHUDESC@DescriptorManager@@@_STL@@@2@XZ
_TEXT	SEGMENT PARA USE32 PUBLIC 'CODE'
_TEXT	ENDS
;	COMDAT ?_M_rightmost@?$_Rb_tree@HU?$pair@$$CBHUDESC@DescriptorManager@@@_STL@@U?$_Select1st@U?$pair@$$CBHUDESC@DescriptorManager@@@_STL@@@2@U?$less@H@2@V?$allocator@U?$pair@$$CBHUDESC@DescriptorManager@@@_STL@@@2@@_STL@@IBEAAPAU?$_Rb_tree_node@U?$pair@$$CBHUDESC@DescriptorManager@@@_STL@@@2@XZ
_TEXT	SEGMENT PARA USE32 PUBLIC 'CODE'
_TEXT	ENDS
;	COMDAT ?_M_empty_initialize@?$_Rb_tree@HU?$pair@$$CBHUDESC@DescriptorManager@@@_STL@@U?$_Select1st@U?$pair@$$CBHUDESC@DescriptorManager@@@_STL@@@2@U?$less@H@2@V?$allocator@U?$pair@$$CBHUDESC@DescriptorManager@@@_STL@@@2@@_STL@@AAEXXZ
_TEXT	SEGMENT PARA USE32 PUBLIC 'CODE'
_TEXT	ENDS
;	COMDAT ??0?$_Rb_tree_base@U?$pair@$$CBHUDESC@DescriptorManager@@@_STL@@V?$allocator@U?$pair@$$CBHUDESC@DescriptorManager@@@_STL@@@2@@_STL@@QAE@ABV?$allocator@U?$pair@$$CBHUDESC@DescriptorManager@@@_STL@@@1@@Z
_TEXT	SEGMENT PARA USE32 PUBLIC 'CODE'
_TEXT	ENDS
;	COMDAT ??1?$allocator@U?$_Rb_tree_node@U?$pair@$$CBHUDESC@DescriptorManager@@@_STL@@@_STL@@@_STL@@QAE@XZ
_TEXT	SEGMENT PARA USE32 PUBLIC 'CODE'
_TEXT	ENDS
;	COMDAT ?deallocate@?$allocator@U?$_Rb_tree_node@U?$pair@$$CBHUDESC@DescriptorManager@@@_STL@@@_STL@@@_STL@@QAEXPAU?$_Rb_tree_node@U?$pair@$$CBHUDESC@DescriptorManager@@@_STL@@@2@I@Z
_TEXT	SEGMENT PARA USE32 PUBLIC 'CODE'
_TEXT	ENDS
;	COMDAT ??0?$_Rb_tree_iterator@U?$pair@$$CBHUDESC@DescriptorManager@@@_STL@@U?$_Const_traits@U?$pair@$$CBHUDESC@DescriptorManager@@@_STL@@@2@@_STL@@QAE@PAU?$_Rb_tree_node@U?$pair@$$CBHUDESC@DescriptorManager@@@_STL@@@1@@Z
_TEXT	SEGMENT PARA USE32 PUBLIC 'CODE'
_TEXT	ENDS
;	COMDAT ??0?$_Rb_tree_iterator@U?$pair@$$CBHUDESC@DescriptorManager@@@_STL@@U?$_Nonconst_traits@U?$pair@$$CBHUDESC@DescriptorManager@@@_STL@@@2@@_STL@@QAE@PAU?$_Rb_tree_node@U?$pair@$$CBHUDESC@DescriptorManager@@@_STL@@@1@@Z
_TEXT	SEGMENT PARA USE32 PUBLIC 'CODE'
_TEXT	ENDS
;	COMDAT ??0?$_List_iterator@PAVWindow@@U?$_Const_traits@PAVWindow@@@_STL@@@_STL@@QAE@PAU?$_List_node@PAVWindow@@@1@@Z
_TEXT	SEGMENT PARA USE32 PUBLIC 'CODE'
_TEXT	ENDS
;	COMDAT ?move@?$__char_traits_base@DH@_STL@@SAPADPADPBDI@Z
_TEXT	SEGMENT PARA USE32 PUBLIC 'CODE'
_TEXT	ENDS
;	COMDAT ?_S_color@?$_Rb_tree@HU?$pair@$$CBHUDESC@DescriptorManager@@@_STL@@U?$_Select1st@U?$pair@$$CBHUDESC@DescriptorManager@@@_STL@@@2@U?$less@H@2@V?$allocator@U?$pair@$$CBHUDESC@DescriptorManager@@@_STL@@@2@@_STL@@KAAA_NPAU?$_Rb_tree_node@U?$pair@$$CBHUDESC@DescriptorManager@@@_STL@@@2@@Z
_TEXT	SEGMENT PARA USE32 PUBLIC 'CODE'
_TEXT	ENDS
;	COMDAT ??0?$_STLP_alloc_proxy@PAU?$_Rb_tree_node@U?$pair@$$CBHUDESC@DescriptorManager@@@_STL@@@_STL@@U12@V?$allocator@U?$_Rb_tree_node@U?$pair@$$CBHUDESC@DescriptorManager@@@_STL@@@_STL@@@2@@_STL@@QAE@ABV?$allocator@U?$_Rb_tree_node@U?$pair@$$CBHUDESC@DescriptorManager@@@_STL@@@_STL@@@1@PAU?$_Rb_tree_node@U?$pair@$$CBHUDESC@DescriptorManager@@@_STL@@@1@@Z
_TEXT	SEGMENT PARA USE32 PUBLIC 'CODE'
_TEXT	ENDS
;	COMDAT ?allocate@?$allocator@U?$_Rb_tree_node@U?$pair@$$CBHUDESC@DescriptorManager@@@_STL@@@_STL@@@_STL@@QAEPAU?$_Rb_tree_node@U?$pair@$$CBHUDESC@DescriptorManager@@@_STL@@@2@IPBX@Z
_TEXT	SEGMENT PARA USE32 PUBLIC 'CODE'
_TEXT	ENDS
;	COMDAT ?allocate@?$__node_alloc@$00$0A@@_STL@@SAPAXI@Z
_TEXT	SEGMENT PARA USE32 PUBLIC 'CODE'
_TEXT	ENDS
;	COMDAT ??0?$allocator@U?$_Rb_tree_node@U?$pair@$$CBHUDESC@DescriptorManager@@@_STL@@@_STL@@@_STL@@QAE@ABV01@@Z
_TEXT	SEGMENT PARA USE32 PUBLIC 'CODE'
_TEXT	ENDS
;	COMDAT ?close@?$basic_filebuf@DV?$char_traits@D@_STL@@@_STL@@QAEPAV12@XZ
_TEXT	SEGMENT PARA USE32 PUBLIC 'CODE'
_TEXT	ENDS
;	COMDAT ?_M_exit_input_mode@?$basic_filebuf@DV?$char_traits@D@_STL@@@_STL@@AAEXXZ
_TEXT	SEGMENT PARA USE32 PUBLIC 'CODE'
_TEXT	ENDS
;	COMDAT ?_M_switch_to_output_mode@?$basic_filebuf@DV?$char_traits@D@_STL@@@_STL@@AAE_NXZ
_TEXT	SEGMENT PARA USE32 PUBLIC 'CODE'
_TEXT	ENDS
;	COMDAT ?_M_output_error@?$basic_filebuf@DV?$char_traits@D@_STL@@@_STL@@AAEHXZ
_TEXT	SEGMENT PARA USE32 PUBLIC 'CODE'
_TEXT	ENDS
;	COMDAT ?_M_allocate_buffers@?$basic_filebuf@DV?$char_traits@D@_STL@@@_STL@@AAE_NPADH@Z
_TEXT	SEGMENT PARA USE32 PUBLIC 'CODE'
_TEXT	ENDS
;	COMDAT ?_M_deallocate_buffers@?$basic_filebuf@DV?$char_traits@D@_STL@@@_STL@@AAEXXZ
_TEXT	SEGMENT PARA USE32 PUBLIC 'CODE'
_TEXT	ENDS
;	COMDAT ?_M_seek_init@?$basic_filebuf@DV?$char_traits@D@_STL@@@_STL@@AAE_N_N@Z
_TEXT	SEGMENT PARA USE32 PUBLIC 'CODE'
_TEXT	ENDS
;	COMDAT ?_M_setup_codecvt@?$basic_filebuf@DV?$char_traits@D@_STL@@@_STL@@AAEXABVlocale@2@@Z
_TEXT	SEGMENT PARA USE32 PUBLIC 'CODE'
_TEXT	ENDS
;	COMDAT ??$equal@PADPADU?$_Eq_traits@V?$char_traits@D@_STL@@@_STL@@@_STL@@YA_NPAD00U?$_Eq_traits@V?$char_traits@D@_STL@@@0@@Z
_TEXT	SEGMENT PARA USE32 PUBLIC 'CODE'
_TEXT	ENDS
;	COMDAT ??1?$SimpleDataList@PAVPI_Processor@@@@UAE@XZ
_TEXT	SEGMENT PARA USE32 PUBLIC 'CODE'
_TEXT	ENDS
;	COMDAT ??1?$SimpleDataList@PAVLineEditorVisual@@@@UAE@XZ
_TEXT	SEGMENT PARA USE32 PUBLIC 'CODE'
_TEXT	ENDS
;	COMDAT ??0?$basic_string@DV?$char_traits@D@_STL@@V?$allocator@D@2@@_STL@@QAE@ABV01@@Z
_TEXT	SEGMENT PARA USE32 PUBLIC 'CODE'
_TEXT	ENDS
;	COMDAT ??0?$basic_string@DV?$char_traits@D@_STL@@V?$allocator@D@2@@_STL@@QAE@XZ
_TEXT	SEGMENT PARA USE32 PUBLIC 'CODE'
_TEXT	ENDS
;	COMDAT ??1?$SimpleDataList@PAVWindow@@@@UAE@XZ
_TEXT	SEGMENT PARA USE32 PUBLIC 'CODE'
_TEXT	ENDS
;	COMDAT ??$_Pow_int@N@@YANNH@Z
_TEXT	SEGMENT PARA USE32 PUBLIC 'CODE'
_TEXT	ENDS
;	COMDAT ??$_Pow_int@H@@YAHHH@Z
_TEXT	SEGMENT PARA USE32 PUBLIC 'CODE'
_TEXT	ENDS
;	COMDAT ??$_Pow_int@M@@YAMMH@Z
_TEXT	SEGMENT PARA USE32 PUBLIC 'CODE'
_TEXT	ENDS
;	COMDAT ??$_Pow_int@O@@YAOOH@Z
_TEXT	SEGMENT PARA USE32 PUBLIC 'CODE'
_TEXT	ENDS
;	COMDAT ??1?$SimpleDataList@PAUMESSAGE@@@@UAE@XZ
_TEXT	SEGMENT PARA USE32 PUBLIC 'CODE'
_TEXT	ENDS
;	COMDAT ??0?$SimpleDataList@PAUDESCRIBED_UNIT@@@@QAE@XZ
_TEXT	SEGMENT PARA USE32 PUBLIC 'CODE'
_TEXT	ENDS
;	COMDAT ??1?$SimpleDataList@PAUDESCRIBED_UNIT@@@@UAE@XZ
_TEXT	SEGMENT PARA USE32 PUBLIC 'CODE'
_TEXT	ENDS
;	COMDAT ?Add@?$SimpleDataList@PAUDESCRIBED_UNIT@@@@QAE_NPAUDESCRIBED_UNIT@@@Z
_TEXT	SEGMENT PARA USE32 PUBLIC 'CODE'
_TEXT	ENDS
;	COMDAT ?Data@?$SimpleDataList@PAUDESCRIBED_UNIT@@@@QBE_NHAAPAUDESCRIBED_UNIT@@@Z
_TEXT	SEGMENT PARA USE32 PUBLIC 'CODE'
_TEXT	ENDS
;	COMDAT ?_M_erase@?$_Rb_tree@HU?$pair@$$CBHUDESC@DescriptorManager@@@_STL@@U?$_Select1st@U?$pair@$$CBHUDESC@DescriptorManager@@@_STL@@@2@U?$less@H@2@V?$allocator@U?$pair@$$CBHUDESC@DescriptorManager@@@_STL@@@2@@_STL@@AAEXPAU?$_Rb_tree_node@U?$pair@$$CBHUDESC@DescriptorManager@@@_STL@@@2@@Z
_TEXT	SEGMENT PARA USE32 PUBLIC 'CODE'
_TEXT	ENDS
;	COMDAT ?insert_equal@?$_Rb_tree@HU?$pair@$$CBHUDESC@DescriptorManager@@@_STL@@U?$_Select1st@U?$pair@$$CBHUDESC@DescriptorManager@@@_STL@@@2@U?$less@H@2@V?$allocator@U?$pair@$$CBHUDESC@DescriptorManager@@@_STL@@@2@@_STL@@QAE?AU?$_Rb_tree_iterator@U?$pair@$$CBHUDESC@DescriptorManager@@@_STL@@U?$_Nonconst_traits@U?$pair@$$CBHUDESC@DescriptorManager@@@_STL@@@2@@2@ABU?$pair@$$CBHUDESC@DescriptorManager@@@2@@Z
_TEXT	SEGMENT PARA USE32 PUBLIC 'CODE'
_TEXT	ENDS
;	COMDAT ??$distance@U?$_List_iterator@PAVWindow@@U?$_Const_traits@PAVWindow@@@_STL@@@_STL@@@_STL@@YAHABU?$_List_iterator@PAVWindow@@U?$_Const_traits@PAVWindow@@@_STL@@@0@0@Z
_TEXT	SEGMENT PARA USE32 PUBLIC 'CODE'
_TEXT	ENDS
;	COMDAT ??$append@PBD@?$basic_string@DV?$char_traits@D@_STL@@V?$allocator@D@2@@_STL@@QAEAAV01@PBD0@Z
_TEXT	SEGMENT PARA USE32 PUBLIC 'CODE'
_TEXT	ENDS
;	COMDAT ??$_Destroy@U?$pair@$$CBHUDESC@DescriptorManager@@@_STL@@@_STL@@YAXPAU?$pair@$$CBHUDESC@DescriptorManager@@@0@@Z
_TEXT	SEGMENT PARA USE32 PUBLIC 'CODE'
_TEXT	ENDS
;	COMDAT ??$?0U?$pair@$$CBHUDESC@DescriptorManager@@@_STL@@@?$allocator@U?$_Rb_tree_node@U?$pair@$$CBHUDESC@DescriptorManager@@@_STL@@@_STL@@@_STL@@QAE@ABV?$allocator@U?$pair@$$CBHUDESC@DescriptorManager@@@_STL@@@1@@Z
_TEXT	SEGMENT PARA USE32 PUBLIC 'CODE'
_TEXT	ENDS
;	COMDAT ??_G?$SimpleDataList@PAVPI_Processor@@@@UAEPAXI@Z
_TEXT	SEGMENT PARA USE32 PUBLIC 'CODE'
_TEXT	ENDS
;	COMDAT ??_G?$SimpleDataList@PAVLineEditorVisual@@@@UAEPAXI@Z
_TEXT	SEGMENT PARA USE32 PUBLIC 'CODE'
_TEXT	ENDS
;	COMDAT ??_G?$SimpleDataList@PAVWindow@@@@UAEPAXI@Z
_TEXT	SEGMENT PARA USE32 PUBLIC 'CODE'
_TEXT	ENDS
;	COMDAT ??_G?$SimpleDataList@PAUMESSAGE@@@@UAEPAXI@Z
_TEXT	SEGMENT PARA USE32 PUBLIC 'CODE'
_TEXT	ENDS
;	COMDAT ??_G?$SimpleDataList@PAUDESCRIBED_UNIT@@@@UAEPAXI@Z
_TEXT	SEGMENT PARA USE32 PUBLIC 'CODE'
_TEXT	ENDS
;	COMDAT ??_G?$pair@$$CBHUDESC@DescriptorManager@@@_STL@@QAEPAXI@Z
_TEXT	SEGMENT PARA USE32 PUBLIC 'CODE'
_TEXT	ENDS
;	COMDAT ?get_allocator@?$basic_string@DV?$char_traits@D@_STL@@V?$allocator@D@2@@_STL@@QBE?AV?$allocator@D@2@XZ
_TEXT	SEGMENT PARA USE32 PUBLIC 'CODE'
_TEXT	ENDS
;	COMDAT ?_M_terminate_string@?$basic_string@DV?$char_traits@D@_STL@@V?$allocator@D@2@@_STL@@AAEXXZ
_TEXT	SEGMENT PARA USE32 PUBLIC 'CODE'
_TEXT	ENDS
;	COMDAT ??0?$_String_base@DV?$allocator@D@_STL@@@_STL@@QAE@ABV?$allocator@D@1@@Z
_TEXT	SEGMENT PARA USE32 PUBLIC 'CODE'
_TEXT	ENDS
;	COMDAT ??0?$allocator@D@_STL@@QAE@XZ
_TEXT	SEGMENT PARA USE32 PUBLIC 'CODE'
_TEXT	ENDS
;	COMDAT ?allocate@?$allocator@D@_STL@@QAEPADIPBX@Z
_TEXT	SEGMENT PARA USE32 PUBLIC 'CODE'
_TEXT	ENDS
;	COMDAT ?_M_exit_putback_mode@?$basic_filebuf@DV?$char_traits@D@_STL@@@_STL@@AAEXXZ
_TEXT	SEGMENT PARA USE32 PUBLIC 'CODE'
_TEXT	ENDS
;	COMDAT ??R?$_Eq_traits@V?$char_traits@D@_STL@@@_STL@@QBE_NABD0@Z
_TEXT	SEGMENT PARA USE32 PUBLIC 'CODE'
_TEXT	ENDS
;	COMDAT ?_S_left@?$_Rb_tree@HU?$pair@$$CBHUDESC@DescriptorManager@@@_STL@@U?$_Select1st@U?$pair@$$CBHUDESC@DescriptorManager@@@_STL@@@2@U?$less@H@2@V?$allocator@U?$pair@$$CBHUDESC@DescriptorManager@@@_STL@@@2@@_STL@@KAAAPAU?$_Rb_tree_node@U?$pair@$$CBHUDESC@DescriptorManager@@@_STL@@@2@PAU32@@Z
_TEXT	SEGMENT PARA USE32 PUBLIC 'CODE'
_TEXT	ENDS
;	COMDAT ?_S_right@?$_Rb_tree@HU?$pair@$$CBHUDESC@DescriptorManager@@@_STL@@U?$_Select1st@U?$pair@$$CBHUDESC@DescriptorManager@@@_STL@@@2@U?$less@H@2@V?$allocator@U?$pair@$$CBHUDESC@DescriptorManager@@@_STL@@@2@@_STL@@KAAAPAU?$_Rb_tree_node@U?$pair@$$CBHUDESC@DescriptorManager@@@_STL@@@2@PAU32@@Z
_TEXT	SEGMENT PARA USE32 PUBLIC 'CODE'
_TEXT	ENDS
;	COMDAT ?_S_key@?$_Rb_tree@HU?$pair@$$CBHUDESC@DescriptorManager@@@_STL@@U?$_Select1st@U?$pair@$$CBHUDESC@DescriptorManager@@@_STL@@@2@U?$less@H@2@V?$allocator@U?$pair@$$CBHUDESC@DescriptorManager@@@_STL@@@2@@_STL@@KAABHPAU?$_Rb_tree_node@U?$pair@$$CBHUDESC@DescriptorManager@@@_STL@@@2@@Z
_TEXT	SEGMENT PARA USE32 PUBLIC 'CODE'
_TEXT	ENDS
;	COMDAT ??R?$less@H@_STL@@QBE_NABH0@Z
_TEXT	SEGMENT PARA USE32 PUBLIC 'CODE'
_TEXT	ENDS
;	COMDAT ??R?$_Select1st@U?$pair@$$CBHUDESC@DescriptorManager@@@_STL@@@_STL@@QBEABHABU?$pair@$$CBHUDESC@DescriptorManager@@@1@@Z
_TEXT	SEGMENT PARA USE32 PUBLIC 'CODE'
_TEXT	ENDS
;	COMDAT ?_M_terminate_string_aux@?$basic_string@DV?$char_traits@D@_STL@@V?$allocator@D@2@@_STL@@AAEXABU__true_type@2@@Z
_TEXT	SEGMENT PARA USE32 PUBLIC 'CODE'
_TEXT	ENDS
;	COMDAT ??0?$allocator@D@_STL@@QAE@ABV01@@Z
_TEXT	SEGMENT PARA USE32 PUBLIC 'CODE'
_TEXT	ENDS
;	COMDAT ??0?$_STLP_alloc_proxy@PADDV?$allocator@D@_STL@@@_STL@@QAE@ABV?$allocator@D@1@PAD@Z
_TEXT	SEGMENT PARA USE32 PUBLIC 'CODE'
_TEXT	ENDS
;	COMDAT ?_S_value@?$_Rb_tree@HU?$pair@$$CBHUDESC@DescriptorManager@@@_STL@@U?$_Select1st@U?$pair@$$CBHUDESC@DescriptorManager@@@_STL@@@2@U?$less@H@2@V?$allocator@U?$pair@$$CBHUDESC@DescriptorManager@@@_STL@@@2@@_STL@@KAAAU?$pair@$$CBHUDESC@DescriptorManager@@@2@PAU?$_Rb_tree_node@U?$pair@$$CBHUDESC@DescriptorManager@@@_STL@@@2@@Z
_TEXT	SEGMENT PARA USE32 PUBLIC 'CODE'
_TEXT	ENDS
;	COMDAT ?_M_unshift@?$basic_filebuf@DV?$char_traits@D@_STL@@@_STL@@AAE_NXZ
_TEXT	SEGMENT PARA USE32 PUBLIC 'CODE'
_TEXT	ENDS
;	COMDAT ?_M_allocate_buffers@?$basic_filebuf@DV?$char_traits@D@_STL@@@_STL@@AAE_NXZ
_TEXT	SEGMENT PARA USE32 PUBLIC 'CODE'
_TEXT	ENDS
;	COMDAT ??$max@H@_STL@@YAABHABH0@Z
_TEXT	SEGMENT PARA USE32 PUBLIC 'CODE'
_TEXT	ENDS
;	COMDAT ??$use_facet@V?$codecvt@DDH@_STL@@@_STL@@YAABV?$codecvt@DDH@0@ABVlocale@0@@Z
_TEXT	SEGMENT PARA USE32 PUBLIC 'CODE'
_TEXT	ENDS
;	COMDAT ??$_M_range_initialize@PAD@?$basic_string@DV?$char_traits@D@_STL@@V?$allocator@D@2@@_STL@@AAEXPAD0@Z
_TEXT	SEGMENT PARA USE32 PUBLIC 'CODE'
_TEXT	ENDS
;	COMDAT ?Find@?$SimpleDataList@PAUDESCRIBED_UNIT@@@@QBE_NPAUDESCRIBED_UNIT@@@Z
_TEXT	SEGMENT PARA USE32 PUBLIC 'CODE'
_TEXT	ENDS
;	COMDAT ?_M_insert@?$_Rb_tree@HU?$pair@$$CBHUDESC@DescriptorManager@@@_STL@@U?$_Select1st@U?$pair@$$CBHUDESC@DescriptorManager@@@_STL@@@2@U?$less@H@2@V?$allocator@U?$pair@$$CBHUDESC@DescriptorManager@@@_STL@@@2@@_STL@@AAE?AU?$_Rb_tree_iterator@U?$pair@$$CBHUDESC@DescriptorManager@@@_STL@@U?$_Nonconst_traits@U?$pair@$$CBHUDESC@DescriptorManager@@@_STL@@@2@@2@PAU_Rb_tree_node_base@2@0ABU?$pair@$$CBHUDESC@DescriptorManager@@@2@0@Z
_TEXT	SEGMENT PARA USE32 PUBLIC 'CODE'
_TEXT	ENDS
;	COMDAT ??$__distance@U?$_List_iterator@PAVWindow@@U?$_Const_traits@PAVWindow@@@_STL@@@_STL@@@_STL@@YAHABU?$_List_iterator@PAVWindow@@U?$_Const_traits@PAVWindow@@@_STL@@@0@0ABUinput_iterator_tag@0@@Z
_TEXT	SEGMENT PARA USE32 PUBLIC 'CODE'
_TEXT	ENDS
;	COMDAT ??$_M_append_dispatch@PBD@?$basic_string@DV?$char_traits@D@_STL@@V?$allocator@D@2@@_STL@@AAEAAV01@PBD0ABU__false_type@1@@Z
_TEXT	SEGMENT PARA USE32 PUBLIC 'CODE'
_TEXT	ENDS
;	COMDAT ?_M_create_node@?$_Rb_tree@HU?$pair@$$CBHUDESC@DescriptorManager@@@_STL@@U?$_Select1st@U?$pair@$$CBHUDESC@DescriptorManager@@@_STL@@@2@U?$less@H@2@V?$allocator@U?$pair@$$CBHUDESC@DescriptorManager@@@_STL@@@2@@_STL@@IAEPAU?$_Rb_tree_node@U?$pair@$$CBHUDESC@DescriptorManager@@@_STL@@@2@ABU?$pair@$$CBHUDESC@DescriptorManager@@@2@@Z
_TEXT	SEGMENT PARA USE32 PUBLIC 'CODE'
_TEXT	ENDS
;	COMDAT ?_S_parent@?$_Rb_tree@HU?$pair@$$CBHUDESC@DescriptorManager@@@_STL@@U?$_Select1st@U?$pair@$$CBHUDESC@DescriptorManager@@@_STL@@@2@U?$less@H@2@V?$allocator@U?$pair@$$CBHUDESC@DescriptorManager@@@_STL@@@2@@_STL@@KAAAPAU?$_Rb_tree_node@U?$pair@$$CBHUDESC@DescriptorManager@@@_STL@@@2@PAU32@@Z
_TEXT	SEGMENT PARA USE32 PUBLIC 'CODE'
_TEXT	ENDS
;	COMDAT ??E?$_List_iterator@PAVWindow@@U?$_Const_traits@PAVWindow@@@_STL@@@_STL@@QAEAAU01@XZ
_TEXT	SEGMENT PARA USE32 PUBLIC 'CODE'
_TEXT	ENDS
;	COMDAT ??$_M_range_initialize@PAD@?$basic_string@DV?$char_traits@D@_STL@@V?$allocator@D@2@@_STL@@AAEXPAD0ABUforward_iterator_tag@1@@Z
_TEXT	SEGMENT PARA USE32 PUBLIC 'CODE'
_TEXT	ENDS
;	COMDAT ??$append@PBD@?$basic_string@DV?$char_traits@D@_STL@@V?$allocator@D@2@@_STL@@AAEAAV01@PBD0ABUforward_iterator_tag@1@@Z
_TEXT	SEGMENT PARA USE32 PUBLIC 'CODE'
_TEXT	ENDS
;	COMDAT ??$_Construct@U?$pair@$$CBHUDESC@DescriptorManager@@@_STL@@U12@@_STL@@YAXPAU?$pair@$$CBHUDESC@DescriptorManager@@@0@ABU10@@Z
_TEXT	SEGMENT PARA USE32 PUBLIC 'CODE'
_TEXT	ENDS
;	COMDAT ?_M_construct_null@?$basic_string@DV?$char_traits@D@_STL@@V?$allocator@D@2@@_STL@@AAEXPAD@Z
_TEXT	SEGMENT PARA USE32 PUBLIC 'CODE'
_TEXT	ENDS
;	COMDAT ?max_size@?$basic_string@DV?$char_traits@D@_STL@@V?$allocator@D@2@@_STL@@QBEIXZ
_TEXT	SEGMENT PARA USE32 PUBLIC 'CODE'
_TEXT	ENDS
;	COMDAT ?capacity@?$basic_string@DV?$char_traits@D@_STL@@V?$allocator@D@2@@_STL@@QBEIXZ
_TEXT	SEGMENT PARA USE32 PUBLIC 'CODE'
_TEXT	ENDS
;	COMDAT ??0?$pair@$$CBHUDESC@DescriptorManager@@@_STL@@QAE@ABU01@@Z
_TEXT	SEGMENT PARA USE32 PUBLIC 'CODE'
_TEXT	ENDS
;	COMDAT ?_M_construct_null_aux@?$basic_string@DV?$char_traits@D@_STL@@V?$allocator@D@2@@_STL@@AAEXPADABU__true_type@2@@Z
_TEXT	SEGMENT PARA USE32 PUBLIC 'CODE'
_TEXT	ENDS
;	COMDAT ?max_size@?$_String_base@DV?$allocator@D@_STL@@@_STL@@QBEIXZ
_TEXT	SEGMENT PARA USE32 PUBLIC 'CODE'
_TEXT	ENDS
;	COMDAT ??$distance@PAD@_STL@@YAHABQAD0@Z
_TEXT	SEGMENT PARA USE32 PUBLIC 'CODE'
_TEXT	ENDS
;	COMDAT ?_M_allocate_block@?$_String_base@DV?$allocator@D@_STL@@@_STL@@QAEXI@Z
_TEXT	SEGMENT PARA USE32 PUBLIC 'CODE'
_TEXT	ENDS
;	COMDAT ?_M_throw_length_error@?$_String_base@DV?$allocator@D@_STL@@@_STL@@QBEXXZ
_TEXT	SEGMENT PARA USE32 PUBLIC 'CODE'
_TEXT	ENDS
;	COMDAT ??$uninitialized_copy@PADPAD@_STL@@YAPADPAD00@Z
_TEXT	SEGMENT PARA USE32 PUBLIC 'CODE'
_TEXT	ENDS
;	COMDAT ??$distance@PBD@_STL@@YAHABQBD0@Z
_TEXT	SEGMENT PARA USE32 PUBLIC 'CODE'
_TEXT	ENDS
;	COMDAT ??$max@I@_STL@@YAABIABI0@Z
_TEXT	SEGMENT PARA USE32 PUBLIC 'CODE'
_TEXT	ENDS
;	COMDAT ??$__distance@PAD@_STL@@YAHABQAD0ABUrandom_access_iterator_tag@0@@Z
_TEXT	SEGMENT PARA USE32 PUBLIC 'CODE'
_TEXT	ENDS
;	COMDAT ??$__uninitialized_copy@PADPAD@_STL@@YAPADPAD00ABU__true_type@0@@Z
_TEXT	SEGMENT PARA USE32 PUBLIC 'CODE'
_TEXT	ENDS
;	COMDAT ??$__distance@PBD@_STL@@YAHABQBD0ABUrandom_access_iterator_tag@0@@Z
_TEXT	SEGMENT PARA USE32 PUBLIC 'CODE'
_TEXT	ENDS
;	COMDAT ?_Ret@?$_BothPtrType@PADPAD@_STL@@SA?AU__true_type@2@XZ
_TEXT	SEGMENT PARA USE32 PUBLIC 'CODE'
_TEXT	ENDS
;	COMDAT ??$__copy_aux@PADPAD@_STL@@YAPADPAD00ABU__true_type@0@@Z
_TEXT	SEGMENT PARA USE32 PUBLIC 'CODE'
_TEXT	ENDS
;	COMDAT ?_Ret@?$_OKToMemCpy@DD@_STL@@SA?AU__true_type@2@XZ
_TEXT	SEGMENT PARA USE32 PUBLIC 'CODE'
_TEXT	ENDS
;	COMDAT ??$_IsOKToMemCpy@DD@_STL@@YA?AU?$_OKToMemCpy@DD@0@PAD0@Z
_TEXT	SEGMENT PARA USE32 PUBLIC 'CODE'
_TEXT	ENDS
;	COMDAT ??$__copy_ptrs@PADPAD@_STL@@YAPADPAD00ABU__true_type@0@@Z
_TEXT	SEGMENT PARA USE32 PUBLIC 'CODE'
_TEXT	ENDS
;	COMDAT ??_R3ovfstream@@8
rdata$r	SEGMENT DWORD USE32 PUBLIC 'CONST'
rdata$r	ENDS
;	COMDAT ??_R3?$SimpleDataList@PAVLineEditorVisual@@@@8
rdata$r	SEGMENT DWORD USE32 PUBLIC 'CONST'
rdata$r	ENDS
;	COMDAT ??_R3ivfstream@@8
rdata$r	SEGMENT DWORD USE32 PUBLIC 'CONST'
rdata$r	ENDS
;	COMDAT ??_R3ITypePackBase@@8
rdata$r	SEGMENT DWORD USE32 PUBLIC 'CONST'
rdata$r	ENDS
;	COMDAT ??_R3IFileIO@@8
rdata$r	SEGMENT DWORD USE32 PUBLIC 'CONST'
rdata$r	ENDS
;	COMDAT ??_R3?$SimpleDataList@PAUDESCRIBED_UNIT@@@@8
rdata$r	SEGMENT DWORD USE32 PUBLIC 'CONST'
rdata$r	ENDS
;	COMDAT ??_R3DescriptorManager@@8
rdata$r	SEGMENT DWORD USE32 PUBLIC 'CONST'
rdata$r	ENDS
;	COMDAT ??_R3?$SimpleDataList@PAUMESSAGE@@@@8
rdata$r	SEGMENT DWORD USE32 PUBLIC 'CONST'
rdata$r	ENDS
;	COMDAT ??_R3iovfs_base@@8
rdata$r	SEGMENT DWORD USE32 PUBLIC 'CONST'
rdata$r	ENDS
;	COMDAT ??_R3?$SimpleDataList@PAVPI_Processor@@@@8
rdata$r	SEGMENT DWORD USE32 PUBLIC 'CONST'
rdata$r	ENDS
;	COMDAT ??_R3?$SimpleDataList@PAVWindow@@@@8
rdata$r	SEGMENT DWORD USE32 PUBLIC 'CONST'
rdata$r	ENDS
;	COMDAT ??_R2ovfstream@@8
rdata$r	SEGMENT DWORD USE32 PUBLIC 'CONST'
rdata$r	ENDS
;	COMDAT ??_R2?$SimpleDataList@PAVLineEditorVisual@@@@8
rdata$r	SEGMENT DWORD USE32 PUBLIC 'CONST'
rdata$r	ENDS
;	COMDAT ??_R2ivfstream@@8
rdata$r	SEGMENT DWORD USE32 PUBLIC 'CONST'
rdata$r	ENDS
;	COMDAT ??_R2ITypePackBase@@8
rdata$r	SEGMENT DWORD USE32 PUBLIC 'CONST'
rdata$r	ENDS
;	COMDAT ??_R2IFileIO@@8
rdata$r	SEGMENT DWORD USE32 PUBLIC 'CONST'
rdata$r	ENDS
;	COMDAT ??_R2?$SimpleDataList@PAUDESCRIBED_UNIT@@@@8
rdata$r	SEGMENT DWORD USE32 PUBLIC 'CONST'
rdata$r	ENDS
;	COMDAT ??_R2DescriptorManager@@8
rdata$r	SEGMENT DWORD USE32 PUBLIC 'CONST'
rdata$r	ENDS
;	COMDAT ??_R2?$SimpleDataList@PAUMESSAGE@@@@8
rdata$r	SEGMENT DWORD USE32 PUBLIC 'CONST'
rdata$r	ENDS
;	COMDAT ??_R2iovfs_base@@8
rdata$r	SEGMENT DWORD USE32 PUBLIC 'CONST'
rdata$r	ENDS
;	COMDAT ??_R2?$SimpleDataList@PAVPI_Processor@@@@8
rdata$r	SEGMENT DWORD USE32 PUBLIC 'CONST'
rdata$r	ENDS
;	COMDAT ??_R2?$SimpleDataList@PAVWindow@@@@8
rdata$r	SEGMENT DWORD USE32 PUBLIC 'CONST'
rdata$r	ENDS
;	COMDAT ??_R1A@?0A@A@ovfstream@@8
rdata$r	SEGMENT DWORD USE32 PUBLIC 'CONST'
rdata$r	ENDS
;	COMDAT ??_R1A@?0A@A@?$SimpleDataList@PAVLineEditorVisual@@@@8
rdata$r	SEGMENT DWORD USE32 PUBLIC 'CONST'
rdata$r	ENDS
;	COMDAT ??_R1A@?0A@A@ivfstream@@8
rdata$r	SEGMENT DWORD USE32 PUBLIC 'CONST'
rdata$r	ENDS
;	COMDAT ??_R1A@?0A@A@ITypePackBase@@8
rdata$r	SEGMENT DWORD USE32 PUBLIC 'CONST'
rdata$r	ENDS
;	COMDAT ??_R1A@?0A@A@IFileIO@@8
rdata$r	SEGMENT DWORD USE32 PUBLIC 'CONST'
rdata$r	ENDS
;	COMDAT ??_R1A@?0A@A@?$SimpleDataList@PAUDESCRIBED_UNIT@@@@8
rdata$r	SEGMENT DWORD USE32 PUBLIC 'CONST'
rdata$r	ENDS
;	COMDAT ??_R1A@?0A@A@DescriptorManager@@8
rdata$r	SEGMENT DWORD USE32 PUBLIC 'CONST'
rdata$r	ENDS
;	COMDAT ??_R1A@?0A@A@?$SimpleDataList@PAUMESSAGE@@@@8
rdata$r	SEGMENT DWORD USE32 PUBLIC 'CONST'
rdata$r	ENDS
;	COMDAT ??_R1A@?0A@A@iovfs_base@@8
rdata$r	SEGMENT DWORD USE32 PUBLIC 'CONST'
rdata$r	ENDS
;	COMDAT ??_R1A@?0A@A@?$SimpleDataList@PAVPI_Processor@@@@8
rdata$r	SEGMENT DWORD USE32 PUBLIC 'CONST'
rdata$r	ENDS
;	COMDAT ??_R1A@?0A@A@?$SimpleDataList@PAVWindow@@@@8
rdata$r	SEGMENT DWORD USE32 PUBLIC 'CONST'
rdata$r	ENDS
;	COMDAT ??_R0?AVovfstream@@@8
_DATA	SEGMENT DWORD USE32 PUBLIC 'DATA'
_DATA	ENDS
;	COMDAT ??_R0?AV?$SimpleDataList@PAVLineEditorVisual@@@@@8
_DATA	SEGMENT DWORD USE32 PUBLIC 'DATA'
_DATA	ENDS
;	COMDAT ??_R0?AVivfstream@@@8
_DATA	SEGMENT DWORD USE32 PUBLIC 'DATA'
_DATA	ENDS
;	COMDAT ??_R0?AVITypePackBase@@@8
_DATA	SEGMENT DWORD USE32 PUBLIC 'DATA'
_DATA	ENDS
;	COMDAT ??_R0?AVIFileIO@@@8
_DATA	SEGMENT DWORD USE32 PUBLIC 'DATA'
_DATA	ENDS
;	COMDAT ??_R0?AV?$SimpleDataList@PAUDESCRIBED_UNIT@@@@@8
_DATA	SEGMENT DWORD USE32 PUBLIC 'DATA'
_DATA	ENDS
;	COMDAT ??_R0?AVDescriptorManager@@@8
_DATA	SEGMENT DWORD USE32 PUBLIC 'DATA'
_DATA	ENDS
;	COMDAT ??_R0?AV?$SimpleDataList@PAUMESSAGE@@@@@8
_DATA	SEGMENT DWORD USE32 PUBLIC 'DATA'
_DATA	ENDS
;	COMDAT ??_R0?AViovfs_base@@@8
_DATA	SEGMENT DWORD USE32 PUBLIC 'DATA'
_DATA	ENDS
;	COMDAT ??_R0?AV?$SimpleDataList@PAVPI_Processor@@@@@8
_DATA	SEGMENT DWORD USE32 PUBLIC 'DATA'
_DATA	ENDS
;	COMDAT ??_R0?AV?$SimpleDataList@PAVWindow@@@@@8
_DATA	SEGMENT DWORD USE32 PUBLIC 'DATA'
_DATA	ENDS
;	COMDAT ??_R4ovfstream@@6B@
rdata$r	SEGMENT DWORD USE32 PUBLIC 'CONST'
rdata$r	ENDS
;	COMDAT ??_R4?$SimpleDataList@PAVLineEditorVisual@@@@6B@
rdata$r	SEGMENT DWORD USE32 PUBLIC 'CONST'
rdata$r	ENDS
;	COMDAT ??_R4ivfstream@@6B@
rdata$r	SEGMENT DWORD USE32 PUBLIC 'CONST'
rdata$r	ENDS
;	COMDAT ??_R4ITypePackBase@@6B@
rdata$r	SEGMENT DWORD USE32 PUBLIC 'CONST'
rdata$r	ENDS
;	COMDAT ??_R4IFileIO@@6B@
rdata$r	SEGMENT DWORD USE32 PUBLIC 'CONST'
rdata$r	ENDS
;	COMDAT ??_R4?$SimpleDataList@PAUDESCRIBED_UNIT@@@@6B@
rdata$r	SEGMENT DWORD USE32 PUBLIC 'CONST'
rdata$r	ENDS
;	COMDAT ??_R4DescriptorManager@@6B@
rdata$r	SEGMENT DWORD USE32 PUBLIC 'CONST'
rdata$r	ENDS
;	COMDAT ??_R4?$SimpleDataList@PAUMESSAGE@@@@6B@
rdata$r	SEGMENT DWORD USE32 PUBLIC 'CONST'
rdata$r	ENDS
;	COMDAT ??_R4iovfs_base@@6B@
rdata$r	SEGMENT DWORD USE32 PUBLIC 'CONST'
rdata$r	ENDS
;	COMDAT ??_R4?$SimpleDataList@PAVPI_Processor@@@@6B@
rdata$r	SEGMENT DWORD USE32 PUBLIC 'CONST'
rdata$r	ENDS
;	COMDAT ??_R4?$SimpleDataList@PAVWindow@@@@6B@
rdata$r	SEGMENT DWORD USE32 PUBLIC 'CONST'
rdata$r	ENDS
;	COMDAT ?__copy_trivial@_STL@@YAPAXPBX0PAX@Z
_TEXT	SEGMENT PARA USE32 PUBLIC 'CODE'
_TEXT	ENDS
;	COMDAT ??3@YAXPAX0@Z
_TEXT	SEGMENT PARA USE32 PUBLIC 'CODE'
_TEXT	ENDS
;	COMDAT ??2@YAPAXIPAX@Z
_TEXT	SEGMENT PARA USE32 PUBLIC 'CODE'
_TEXT	ENDS
;	COMDAT ?assign@?$char_traits@D@_STL@@SAXAADABD@Z
_TEXT	SEGMENT PARA USE32 PUBLIC 'CODE'
_TEXT	ENDS
;	COMDAT ?_M_deallocate_block@?$_String_base@DV?$allocator@D@_STL@@@_STL@@QAEXXZ
_TEXT	SEGMENT PARA USE32 PUBLIC 'CODE'
_TEXT	ENDS
;	COMDAT ?deallocate@?$allocator@D@_STL@@QAEXPADI@Z
_TEXT	SEGMENT PARA USE32 PUBLIC 'CODE'
_TEXT	ENDS
;	COMDAT ?uninitialized_copy@_STL@@YAPADPBD0PAD@Z
_TEXT	SEGMENT PARA USE32 PUBLIC 'CODE'
_TEXT	ENDS
;	COMDAT ?_M_incr@_List_iterator_base@_STL@@QAEXXZ
_TEXT	SEGMENT PARA USE32 PUBLIC 'CODE'
_TEXT	ENDS
;	COMDAT ??9_List_iterator_base@_STL@@QBE_NABU01@@Z
_TEXT	SEGMENT PARA USE32 PUBLIC 'CODE'
_TEXT	ENDS
;	COMDAT ?__page_size@_Filebuf_base@_STL@@SAIXZ
_TEXT	SEGMENT PARA USE32 PUBLIC 'CODE'
_TEXT	ENDS
;	COMDAT ?_M_write@?$basic_filebuf@DV?$char_traits@D@_STL@@@_STL@@QAE_NPADH@Z
_TEXT	SEGMENT PARA USE32 PUBLIC 'CODE'
_TEXT	ENDS
;	COMDAT ?unshift@?$codecvt@DDH@_STL@@QBE?AW4result@codecvt_base@2@AAHPAD1AAPAD@Z
_TEXT	SEGMENT PARA USE32 PUBLIC 'CODE'
_TEXT	ENDS
;	COMDAT ??1?$_STLP_alloc_proxy@PADDV?$allocator@D@_STL@@@_STL@@QAE@XZ
_TEXT	SEGMENT PARA USE32 PUBLIC 'CODE'
_TEXT	ENDS
;	COMDAT ??_7?$SimpleDataList@PAUDESCRIBED_UNIT@@@@6B@
CONST	SEGMENT DWORD USE32 PUBLIC 'CONST'
CONST	ENDS
;	COMDAT ??_7?$SimpleDataList@PAUMESSAGE@@@@6B@
CONST	SEGMENT DWORD USE32 PUBLIC 'CONST'
CONST	ENDS
;	COMDAT ??_7?$SimpleDataList@PAVWindow@@@@6B@
CONST	SEGMENT DWORD USE32 PUBLIC 'CONST'
CONST	ENDS
;	COMDAT ??1?$_String_base@DV?$allocator@D@_STL@@@_STL@@QAE@XZ
_TEXT	SEGMENT PARA USE32 PUBLIC 'CODE'
_TEXT	ENDS
;	COMDAT ??1?$allocator@D@_STL@@QAE@XZ
_TEXT	SEGMENT PARA USE32 PUBLIC 'CODE'
_TEXT	ENDS
;	COMDAT ??_7?$SimpleDataList@PAVLineEditorVisual@@@@6B@
CONST	SEGMENT DWORD USE32 PUBLIC 'CONST'
CONST	ENDS
;	COMDAT ??_7?$SimpleDataList@PAVPI_Processor@@@@6B@
CONST	SEGMENT DWORD USE32 PUBLIC 'CONST'
CONST	ENDS
;	COMDAT ?always_noconv@?$codecvt@DDH@_STL@@QBE_NXZ
_TEXT	SEGMENT PARA USE32 PUBLIC 'CODE'
_TEXT	ENDS
;	COMDAT ?encoding@?$codecvt@DDH@_STL@@QBEHXZ
_TEXT	SEGMENT PARA USE32 PUBLIC 'CODE'
_TEXT	ENDS
;	COMDAT ?max_length@?$codecvt@DDH@_STL@@QBEHXZ
_TEXT	SEGMENT PARA USE32 PUBLIC 'CODE'
_TEXT	ENDS
;	COMDAT ?__o_mode@_Filebuf_base@_STL@@QBEHXZ
_TEXT	SEGMENT PARA USE32 PUBLIC 'CODE'
_TEXT	ENDS
;	COMDAT ?__stl_new@_STL@@YAPAXI@Z
_TEXT	SEGMENT PARA USE32 PUBLIC 'CODE'
_TEXT	ENDS
;	COMDAT ??0_List_iterator_base@_STL@@QAE@PAU_List_node_base@1@@Z
_TEXT	SEGMENT PARA USE32 PUBLIC 'CODE'
_TEXT	ENDS
;	COMDAT ?deallocate@?$__node_alloc@$00$0A@@_STL@@SAXPAXI@Z
_TEXT	SEGMENT PARA USE32 PUBLIC 'CODE'
_TEXT	ENDS
;	COMDAT ?__stl_delete@_STL@@YAXPAX@Z
_TEXT	SEGMENT PARA USE32 PUBLIC 'CODE'
_TEXT	ENDS
;	COMDAT ?_Destroy@_STL@@YAXPAD0@Z
_TEXT	SEGMENT PARA USE32 PUBLIC 'CODE'
_TEXT	ENDS
;	COMDAT ?setp@?$basic_streambuf@DV?$char_traits@D@_STL@@@_STL@@IAEXPAD0@Z
_TEXT	SEGMENT PARA USE32 PUBLIC 'CODE'
_TEXT	ENDS
;	COMDAT ?_FILE_O_set@_STL@@YAXPAU_iobuf@@PAD11@Z
_TEXT	SEGMENT PARA USE32 PUBLIC 'CODE'
_TEXT	ENDS
;	COMDAT ?_FILE_I_set@_STL@@YAXPAU_iobuf@@PAD11@Z
_TEXT	SEGMENT PARA USE32 PUBLIC 'CODE'
_TEXT	ENDS
;	COMDAT ?setg@?$basic_streambuf@DV?$char_traits@D@_STL@@@_STL@@IAEXPAD00@Z
_TEXT	SEGMENT PARA USE32 PUBLIC 'CODE'
_TEXT	ENDS
;	COMDAT ?__is_open@_Filebuf_base@_STL@@QBE_NXZ
_TEXT	SEGMENT PARA USE32 PUBLIC 'CODE'
_TEXT	ENDS
;	COMDAT ?length@?$char_traits@D@_STL@@SAIPBD@Z
_TEXT	SEGMENT PARA USE32 PUBLIC 'CODE'
_TEXT	ENDS
;	COMDAT ?eof@?$__char_traits_base@DH@_STL@@SAHXZ
_TEXT	SEGMENT PARA USE32 PUBLIC 'CODE'
_TEXT	ENDS
;	COMDAT ??9_Rb_tree_base_iterator@_STL@@QBE_NABU01@@Z
_TEXT	SEGMENT PARA USE32 PUBLIC 'CODE'
_TEXT	ENDS
;	COMDAT ??_7DescriptorManager@@6B@
CONST	SEGMENT DWORD USE32 PUBLIC 'CONST'
CONST	ENDS
;	COMDAT ??_7ITypePackBase@@6B@
CONST	SEGMENT DWORD USE32 PUBLIC 'CONST'
CONST	ENDS
;	COMDAT ??_7ovfstream@@6B@
CONST	SEGMENT DWORD USE32 PUBLIC 'CONST'
CONST	ENDS
;	COMDAT ??_7ivfstream@@6B@
CONST	SEGMENT DWORD USE32 PUBLIC 'CONST'
CONST	ENDS
;	COMDAT ??_7iovfs_base@@6B@
CONST	SEGMENT DWORD USE32 PUBLIC 'CONST'
CONST	ENDS
;	COMDAT ??_7IFileIO@@6B@
CONST	SEGMENT DWORD USE32 PUBLIC 'CONST'
CONST	ENDS
;	COMDAT ??1?$basic_string@DV?$char_traits@D@_STL@@V?$allocator@D@2@@_STL@@QAE@XZ
_TEXT	SEGMENT PARA USE32 PUBLIC 'CODE'
_TEXT	ENDS
sxdata	SEGMENT DWORD USE32 'SXDATA'
sxdata	ENDS
FLAT	GROUP _DATA, CONST, _BSS
	ASSUME	CS: FLAT, DS: FLAT, SS: FLAT
endif

INCLUDELIB LIBCMT
INCLUDELIB OLDNAMES

PUBLIC	??2@YAPAXIPAX@Z					; operator new
; Function compile flags: /Ogty
; File c:\program files\microsoft visual studio .net 2003\vc7\include\new
;	COMDAT ??2@YAPAXIPAX@Z
_TEXT	SEGMENT
___formal$ = 8						; size = 4
__Where$ = 12						; size = 4
??2@YAPAXIPAX@Z PROC NEAR				; operator new, COMDAT

; 64   : 	return (_Where);

  00000	8b 44 24 08	 mov	 eax, DWORD PTR __Where$[esp-4]

; 65   : 	}

  00004	c3		 ret	 0
??2@YAPAXIPAX@Z ENDP					; operator new
_TEXT	ENDS
PUBLIC	??3@YAXPAX0@Z					; operator delete
; Function compile flags: /Ogty
;	COMDAT ??3@YAXPAX0@Z
_TEXT	SEGMENT
___formal$ = 8						; size = 4
___formal$ = 12						; size = 4
??3@YAXPAX0@Z PROC NEAR					; operator delete, COMDAT

; 69   : 	}

  00000	c3		 ret	 0
??3@YAXPAX0@Z ENDP					; operator delete
_TEXT	ENDS
PUBLIC	?__stl_new@_STL@@YAPAXI@Z			; _STL::__stl_new
EXTRN	??2@YAPAXI@Z:NEAR				; operator new
; Function compile flags: /Ogty
; File c:\stlport-4.6.1\stlport\stl\_new.h
;	COMDAT ?__stl_new@_STL@@YAPAXI@Z
_TEXT	SEGMENT
___n$ = 8						; size = 4
?__stl_new@_STL@@YAPAXI@Z PROC NEAR			; _STL::__stl_new, COMDAT

; 86   : inline void*  _STLP_CALL __stl_new(size_t __n)   { _STLP_CHECK_NULL_ALLOC(::operator _STLP_NEW(__n)); }

  00000	e9 00 00 00 00	 jmp	 ??2@YAPAXI@Z		; operator new
?__stl_new@_STL@@YAPAXI@Z ENDP				; _STL::__stl_new
_TEXT	ENDS
PUBLIC	?__stl_delete@_STL@@YAXPAX@Z			; _STL::__stl_delete
EXTRN	??3@YAXPAX@Z:NEAR				; operator delete
; Function compile flags: /Ogty
;	COMDAT ?__stl_delete@_STL@@YAXPAX@Z
_TEXT	SEGMENT
___p$ = 8						; size = 4
?__stl_delete@_STL@@YAXPAX@Z PROC NEAR			; _STL::__stl_delete, COMDAT

; 87   : inline void   _STLP_CALL __stl_delete(void* __p) { ::operator delete(__p); }

  00000	e9 00 00 00 00	 jmp	 ??3@YAXPAX@Z		; operator delete
?__stl_delete@_STL@@YAXPAX@Z ENDP			; _STL::__stl_delete
_TEXT	ENDS
PUBLIC	??9_Rb_tree_base_iterator@_STL@@QBE_NABU01@@Z	; _STL::_Rb_tree_base_iterator::operator!=
; Function compile flags: /Ogty
; File c:\stlport-4.6.1\stlport\stl\_tree.h
;	COMDAT ??9_Rb_tree_base_iterator@_STL@@QBE_NABU01@@Z
_TEXT	SEGMENT
___y$ = 8						; size = 4
??9_Rb_tree_base_iterator@_STL@@QBE_NABU01@@Z PROC NEAR	; _STL::_Rb_tree_base_iterator::operator!=, COMDAT
; _this$ = ecx

; 150  :     return _M_node != __y._M_node;

  00000	8b 01		 mov	 eax, DWORD PTR [ecx]
  00002	8b 54 24 04	 mov	 edx, DWORD PTR ___y$[esp-4]
  00006	56		 push	 esi
  00007	8b 32		 mov	 esi, DWORD PTR [edx]
  00009	33 c9		 xor	 ecx, ecx
  0000b	3b c6		 cmp	 eax, esi
  0000d	0f 95 c1	 setne	 cl
  00010	8a c1		 mov	 al, cl
  00012	5e		 pop	 esi

; 151  :   }

  00013	c2 04 00	 ret	 4
??9_Rb_tree_base_iterator@_STL@@QBE_NABU01@@Z ENDP	; _STL::_Rb_tree_base_iterator::operator!=
_TEXT	ENDS
PUBLIC	??0FP_SHOW_PARAM@DescriptorManager@@QAE@XZ	; DescriptorManager::FP_SHOW_PARAM::FP_SHOW_PARAM
EXTRN	??0Rect@@QAE@XZ:NEAR				; Rect::Rect
EXTRN	??1Rect@@QAE@XZ:NEAR				; Rect::~Rect
EXTRN	?Set@Rect@@QAEXHHHH@Z:NEAR			; Rect::Set
EXTRN	__except_list:DWORD
EXTRN	___CxxFrameHandler:NEAR
;	COMDAT xdata$x
; File c:\darkeden\designed_common\project\new - vs_ui\src\header\vs_ui_descriptor.h
xdata$x	SEGMENT
$T90780	DD	0ffffffffH
	DD	FLAT:$L90773
$T90777	DD	019930520H
	DD	01H
	DD	FLAT:$T90780
	DD	2 DUP(00H)
	DD	2 DUP(00H)
; Function compile flags: /Ogty
xdata$x	ENDS
;	COMDAT ??0FP_SHOW_PARAM@DescriptorManager@@QAE@XZ
_TEXT	SEGMENT
_this$ = -16						; size = 4
__$EHRec$ = -12						; size = 12
??0FP_SHOW_PARAM@DescriptorManager@@QAE@XZ PROC NEAR	; DescriptorManager::FP_SHOW_PARAM::FP_SHOW_PARAM, COMDAT
; _this$ = ecx

; 58   : 		FP_SHOW_PARAM()

  00000	6a ff		 push	 -1
  00002	68 00 00 00 00	 push	 __ehhandler$??0FP_SHOW_PARAM@DescriptorManager@@QAE@XZ
  00007	64 a1 00 00 00
	00		 mov	 eax, DWORD PTR fs:__except_list
  0000d	50		 push	 eax
  0000e	64 89 25 00 00
	00 00		 mov	 DWORD PTR fs:__except_list, esp
  00015	51		 push	 ecx
  00016	56		 push	 esi
  00017	8b f1		 mov	 esi, ecx
  00019	89 74 24 04	 mov	 DWORD PTR _this$[esp+20], esi
  0001d	e8 00 00 00 00	 call	 ??0Rect@@QAE@XZ		; Rect::Rect

; 59   : 		{
; 60   : 			rect.Set(0, 0, 0, 0);

  00022	6a 00		 push	 0
  00024	6a 00		 push	 0
  00026	6a 00		 push	 0
  00028	6a 00		 push	 0
  0002a	8b ce		 mov	 ecx, esi
  0002c	c7 44 24 20 00
	00 00 00	 mov	 DWORD PTR __$EHRec$[esp+44], 0
  00034	e8 00 00 00 00	 call	 ?Set@Rect@@QAEXHHHH@Z	; Rect::Set

; 61   : 			left = 0;
; 62   : 			right = 0;
; 63   : 		}

  00039	8b 4c 24 08	 mov	 ecx, DWORD PTR __$EHRec$[esp+20]
  0003d	c7 46 14 00 00
	00 00		 mov	 DWORD PTR [esi+20], 0
  00044	c7 46 18 00 00
	00 00		 mov	 DWORD PTR [esi+24], 0
  0004b	8b c6		 mov	 eax, esi
  0004d	5e		 pop	 esi
  0004e	64 89 0d 00 00
	00 00		 mov	 DWORD PTR fs:__except_list, ecx
  00055	83 c4 10	 add	 esp, 16			; 00000010H
  00058	c3		 ret	 0
_TEXT	ENDS
;	COMDAT text$x
text$x	SEGMENT
$L90773:
  00000	8b 4d f0	 mov	 ecx, DWORD PTR _this$[ebp]
  00003	e9 00 00 00 00	 jmp	 ??1Rect@@QAE@XZ		; Rect::~Rect
__ehhandler$??0FP_SHOW_PARAM@DescriptorManager@@QAE@XZ:
  00008	b8 00 00 00 00	 mov	 eax, OFFSET FLAT:$T90777
  0000d	e9 00 00 00 00	 jmp	 ___CxxFrameHandler
text$x	ENDS
??0FP_SHOW_PARAM@DescriptorManager@@QAE@XZ ENDP		; DescriptorManager::FP_SHOW_PARAM::FP_SHOW_PARAM
PUBLIC	??1FP_SHOW_PARAM@DescriptorManager@@QAE@XZ	; DescriptorManager::FP_SHOW_PARAM::~FP_SHOW_PARAM
; Function compile flags: /Ogty
;	COMDAT ??1FP_SHOW_PARAM@DescriptorManager@@QAE@XZ
_TEXT	SEGMENT
??1FP_SHOW_PARAM@DescriptorManager@@QAE@XZ PROC NEAR	; DescriptorManager::FP_SHOW_PARAM::~FP_SHOW_PARAM, COMDAT
; _this$ = ecx
  00000	e9 00 00 00 00	 jmp	 ??1Rect@@QAE@XZ		; Rect::~Rect
??1FP_SHOW_PARAM@DescriptorManager@@QAE@XZ ENDP		; DescriptorManager::FP_SHOW_PARAM::~FP_SHOW_PARAM
_TEXT	ENDS
PUBLIC	??1DESC@DescriptorManager@@QAE@XZ		; DescriptorManager::DESC::~DESC
; Function compile flags: /Ogty
;	COMDAT ??1DESC@DescriptorManager@@QAE@XZ
_TEXT	SEGMENT
??1DESC@DescriptorManager@@QAE@XZ PROC NEAR		; DescriptorManager::DESC::~DESC, COMDAT
; _this$ = ecx
  00000	83 c1 04	 add	 ecx, 4
  00003	e9 00 00 00 00	 jmp	 ??1Rect@@QAE@XZ		; Rect::~Rect
??1DESC@DescriptorManager@@QAE@XZ ENDP			; DescriptorManager::DESC::~DESC
_TEXT	ENDS
PUBLIC	??1?$pair@$$CBHUDESC@DescriptorManager@@@_STL@@QAE@XZ ; _STL::pair<int const ,DescriptorManager::DESC>::~pair<int const ,DescriptorManager::DESC>
; Function compile flags: /Ogty
;	COMDAT ??1?$pair@$$CBHUDESC@DescriptorManager@@@_STL@@QAE@XZ
_TEXT	SEGMENT
??1?$pair@$$CBHUDESC@DescriptorManager@@@_STL@@QAE@XZ PROC NEAR ; _STL::pair<int const ,DescriptorManager::DESC>::~pair<int const ,DescriptorManager::DESC>, COMDAT
; _this$ = ecx
  00000	83 c1 08	 add	 ecx, 8
  00003	e9 00 00 00 00	 jmp	 ??1Rect@@QAE@XZ		; Rect::~Rect
??1?$pair@$$CBHUDESC@DescriptorManager@@@_STL@@QAE@XZ ENDP ; _STL::pair<int const ,DescriptorManager::DESC>::~pair<int const ,DescriptorManager::DESC>
_TEXT	ENDS
PUBLIC	?Size@?$SimpleDataList@PAUDESCRIBED_UNIT@@@@QBEHXZ ; SimpleDataList<DESCRIBED_UNIT *>::Size
; Function compile flags: /Ogty
; File c:\darkeden\designed_common\project\new - vs_ui\src\widget\simpledatalist.h
;	COMDAT ?Size@?$SimpleDataList@PAUDESCRIBED_UNIT@@@@QBEHXZ
_TEXT	SEGMENT
?Size@?$SimpleDataList@PAUDESCRIBED_UNIT@@@@QBEHXZ PROC NEAR ; SimpleDataList<DESCRIBED_UNIT *>::Size, COMDAT
; _this$ = ecx

; 37   : 	int	Size() const { return m_size; }

  00000	8b 41 08	 mov	 eax, DWORD PTR [ecx+8]
  00003	c3		 ret	 0
?Size@?$SimpleDataList@PAUDESCRIBED_UNIT@@@@QBEHXZ ENDP	; SimpleDataList<DESCRIBED_UNIT *>::Size
_TEXT	ENDS
PUBLIC	??E?$_Rb_tree_iterator@U?$pair@$$CBHUDESC@DescriptorManager@@@_STL@@U?$_Const_traits@U?$pair@$$CBHUDESC@DescriptorManager@@@_STL@@@2@@_STL@@QAEAAU01@XZ ; _STL::_Rb_tree_iterator<_STL::pair<int const ,DescriptorManager::DESC>,_STL::_Const_traits<_STL::pair<int const ,DescriptorManager::DESC> > >::operator++
EXTRN	?_M_increment@?$_Rb_global@_N@_STL@@SAPAU_Rb_tree_node_base@2@PAU32@@Z:NEAR ; _STL::_Rb_global<bool>::_M_increment
; Function compile flags: /Ogty
; File c:\stlport-4.6.1\stlport\stl\_tree.h
;	COMDAT ??E?$_Rb_tree_iterator@U?$pair@$$CBHUDESC@DescriptorManager@@@_STL@@U?$_Const_traits@U?$pair@$$CBHUDESC@DescriptorManager@@@_STL@@@2@@_STL@@QAEAAU01@XZ
_TEXT	SEGMENT
??E?$_Rb_tree_iterator@U?$pair@$$CBHUDESC@DescriptorManager@@@_STL@@U?$_Const_traits@U?$pair@$$CBHUDESC@DescriptorManager@@@_STL@@@2@@_STL@@QAEAAU01@XZ PROC NEAR ; _STL::_Rb_tree_iterator<_STL::pair<int const ,DescriptorManager::DESC>,_STL::_Const_traits<_STL::pair<int const ,DescriptorManager::DESC> > >::operator++, COMDAT
; _this$ = ecx

; 174  :   _Self& operator++() { _M_node = _Rb_global_inst::_M_increment(_M_node); return *this; }

  00000	56		 push	 esi
  00001	8b f1		 mov	 esi, ecx
  00003	8b 06		 mov	 eax, DWORD PTR [esi]
  00005	50		 push	 eax
  00006	e8 00 00 00 00	 call	 ?_M_increment@?$_Rb_global@_N@_STL@@SAPAU_Rb_tree_node_base@2@PAU32@@Z ; _STL::_Rb_global<bool>::_M_increment
  0000b	89 06		 mov	 DWORD PTR [esi], eax
  0000d	83 c4 04	 add	 esp, 4
  00010	8b c6		 mov	 eax, esi
  00012	5e		 pop	 esi
  00013	c3		 ret	 0
??E?$_Rb_tree_iterator@U?$pair@$$CBHUDESC@DescriptorManager@@@_STL@@U?$_Const_traits@U?$pair@$$CBHUDESC@DescriptorManager@@@_STL@@@2@@_STL@@QAEAAU01@XZ ENDP ; _STL::_Rb_tree_iterator<_STL::pair<int const ,DescriptorManager::DESC>,_STL::_Const_traits<_STL::pair<int const ,DescriptorManager::DESC> > >::operator++
_TEXT	ENDS
PUBLIC	??0?$_Rb_tree_iterator@U?$pair@$$CBHUDESC@DescriptorManager@@@_STL@@U?$_Nonconst_traits@U?$pair@$$CBHUDESC@DescriptorManager@@@_STL@@@2@@_STL@@QAE@ABU01@@Z ; _STL::_Rb_tree_iterator<_STL::pair<int const ,DescriptorManager::DESC>,_STL::_Nonconst_traits<_STL::pair<int const ,DescriptorManager::DESC> > >::_Rb_tree_iterator<_STL::pair<int const ,DescriptorManager::DESC>,_STL::_Nonconst_traits<_STL::pair<int const ,DescriptorManager::DESC> > >
; Function compile flags: /Ogty
;	COMDAT ??0?$_Rb_tree_iterator@U?$pair@$$CBHUDESC@DescriptorManager@@@_STL@@U?$_Nonconst_traits@U?$pair@$$CBHUDESC@DescriptorManager@@@_STL@@@2@@_STL@@QAE@ABU01@@Z
_TEXT	SEGMENT
___it$ = 8						; size = 4
??0?$_Rb_tree_iterator@U?$pair@$$CBHUDESC@DescriptorManager@@@_STL@@U?$_Nonconst_traits@U?$pair@$$CBHUDESC@DescriptorManager@@@_STL@@@2@@_STL@@QAE@ABU01@@Z PROC NEAR ; _STL::_Rb_tree_iterator<_STL::pair<int const ,DescriptorManager::DESC>,_STL::_Nonconst_traits<_STL::pair<int const ,DescriptorManager::DESC> > >::_Rb_tree_iterator<_STL::pair<int const ,DescriptorManager::DESC>,_STL::_Nonconst_traits<_STL::pair<int const ,DescriptorManager::DESC> > >, COMDAT
; _this$ = ecx

; 165  :   _Rb_tree_iterator(const _Rb_tree_iterator<_Value, 

  00000	8b c1		 mov	 eax, ecx
  00002	8b 4c 24 04	 mov	 ecx, DWORD PTR ___it$[esp-4]
  00006	8b 11		 mov	 edx, DWORD PTR [ecx]
  00008	89 10		 mov	 DWORD PTR [eax], edx

; 166  :                     _Nonconst_traits<_Value> >& __it) { _M_node = __it._M_node; }

  0000a	c2 04 00	 ret	 4
??0?$_Rb_tree_iterator@U?$pair@$$CBHUDESC@DescriptorManager@@@_STL@@U?$_Nonconst_traits@U?$pair@$$CBHUDESC@DescriptorManager@@@_STL@@@2@@_STL@@QAE@ABU01@@Z ENDP ; _STL::_Rb_tree_iterator<_STL::pair<int const ,DescriptorManager::DESC>,_STL::_Nonconst_traits<_STL::pair<int const ,DescriptorManager::DESC> > >::_Rb_tree_iterator<_STL::pair<int const ,DescriptorManager::DESC>,_STL::_Nonconst_traits<_STL::pair<int const ,DescriptorManager::DESC> > >
_TEXT	ENDS
PUBLIC	??E?$_Rb_tree_iterator@U?$pair@$$CBHUDESC@DescriptorManager@@@_STL@@U?$_Nonconst_traits@U?$pair@$$CBHUDESC@DescriptorManager@@@_STL@@@2@@_STL@@QAEAAU01@XZ ; _STL::_Rb_tree_iterator<_STL::pair<int const ,DescriptorManager::DESC>,_STL::_Nonconst_traits<_STL::pair<int const ,DescriptorManager::DESC> > >::operator++
; Function compile flags: /Ogty
;	COMDAT ??E?$_Rb_tree_iterator@U?$pair@$$CBHUDESC@DescriptorManager@@@_STL@@U?$_Nonconst_traits@U?$pair@$$CBHUDESC@DescriptorManager@@@_STL@@@2@@_STL@@QAEAAU01@XZ
_TEXT	SEGMENT
??E?$_Rb_tree_iterator@U?$pair@$$CBHUDESC@DescriptorManager@@@_STL@@U?$_Nonconst_traits@U?$pair@$$CBHUDESC@DescriptorManager@@@_STL@@@2@@_STL@@QAEAAU01@XZ PROC NEAR ; _STL::_Rb_tree_iterator<_STL::pair<int const ,DescriptorManager::DESC>,_STL::_Nonconst_traits<_STL::pair<int const ,DescriptorManager::DESC> > >::operator++, COMDAT
; _this$ = ecx

; 174  :   _Self& operator++() { _M_node = _Rb_global_inst::_M_increment(_M_node); return *this; }

  00000	56		 push	 esi
  00001	8b f1		 mov	 esi, ecx
  00003	8b 06		 mov	 eax, DWORD PTR [esi]
  00005	50		 push	 eax
  00006	e8 00 00 00 00	 call	 ?_M_increment@?$_Rb_global@_N@_STL@@SAPAU_Rb_tree_node_base@2@PAU32@@Z ; _STL::_Rb_global<bool>::_M_increment
  0000b	89 06		 mov	 DWORD PTR [esi], eax
  0000d	83 c4 04	 add	 esp, 4
  00010	8b c6		 mov	 eax, esi
  00012	5e		 pop	 esi
  00013	c3		 ret	 0
??E?$_Rb_tree_iterator@U?$pair@$$CBHUDESC@DescriptorManager@@@_STL@@U?$_Nonconst_traits@U?$pair@$$CBHUDESC@DescriptorManager@@@_STL@@@2@@_STL@@QAEAAU01@XZ ENDP ; _STL::_Rb_tree_iterator<_STL::pair<int const ,DescriptorManager::DESC>,_STL::_Nonconst_traits<_STL::pair<int const ,DescriptorManager::DESC> > >::operator++
_TEXT	ENDS
PUBLIC	??0?$pair@$$CBHUDESC@DescriptorManager@@@_STL@@QAE@ABHABUDESC@DescriptorManager@@@Z ; _STL::pair<int const ,DescriptorManager::DESC>::pair<int const ,DescriptorManager::DESC>
; Function compile flags: /Ogty
; File c:\stlport-4.6.1\stlport\stl\_pair.h
;	COMDAT ??0?$pair@$$CBHUDESC@DescriptorManager@@@_STL@@QAE@ABHABUDESC@DescriptorManager@@@Z
_TEXT	SEGMENT
___a$ = 8						; size = 4
___b$ = 12						; size = 4
??0?$pair@$$CBHUDESC@DescriptorManager@@@_STL@@QAE@ABHABUDESC@DescriptorManager@@@Z PROC NEAR ; _STL::pair<int const ,DescriptorManager::DESC>::pair<int const ,DescriptorManager::DESC>, COMDAT
; _this$ = ecx

; 48   :   pair(const _T1& __a, const _T2& __b) : first(__a), second(__b) {}

  00000	8b c1		 mov	 eax, ecx
  00002	8b 4c 24 04	 mov	 ecx, DWORD PTR ___a$[esp-4]
  00006	8b 11		 mov	 edx, DWORD PTR [ecx]
  00008	56		 push	 esi
  00009	8b 74 24 0c	 mov	 esi, DWORD PTR ___b$[esp]
  0000d	57		 push	 edi
  0000e	8d 78 04	 lea	 edi, DWORD PTR [eax+4]
  00011	b9 08 00 00 00	 mov	 ecx, 8
  00016	89 10		 mov	 DWORD PTR [eax], edx
  00018	f3 a5		 rep movsd
  0001a	5f		 pop	 edi
  0001b	5e		 pop	 esi
  0001c	c2 08 00	 ret	 8
??0?$pair@$$CBHUDESC@DescriptorManager@@@_STL@@QAE@ABHABUDESC@DescriptorManager@@@Z ENDP ; _STL::pair<int const ,DescriptorManager::DESC>::pair<int const ,DescriptorManager::DESC>
_TEXT	ENDS
PUBLIC	?empty@?$_Rb_tree@HU?$pair@$$CBHUDESC@DescriptorManager@@@_STL@@U?$_Select1st@U?$pair@$$CBHUDESC@DescriptorManager@@@_STL@@@2@U?$less@H@2@V?$allocator@U?$pair@$$CBHUDESC@DescriptorManager@@@_STL@@@2@@_STL@@QBE_NXZ ; _STL::_Rb_tree<int,_STL::pair<int const ,DescriptorManager::DESC>,_STL::_Select1st<_STL::pair<int const ,DescriptorManager::DESC> >,_STL::less<int>,_STL::allocator<_STL::pair<int const ,DescriptorManager::DESC> > >::empty
; Function compile flags: /Ogty
; File c:\stlport-4.6.1\stlport\stl\_tree.h
;	COMDAT ?empty@?$_Rb_tree@HU?$pair@$$CBHUDESC@DescriptorManager@@@_STL@@U?$_Select1st@U?$pair@$$CBHUDESC@DescriptorManager@@@_STL@@@2@U?$less@H@2@V?$allocator@U?$pair@$$CBHUDESC@DescriptorManager@@@_STL@@@2@@_STL@@QBE_NXZ
_TEXT	SEGMENT
?empty@?$_Rb_tree@HU?$pair@$$CBHUDESC@DescriptorManager@@@_STL@@U?$_Select1st@U?$pair@$$CBHUDESC@DescriptorManager@@@_STL@@@2@U?$less@H@2@V?$allocator@U?$pair@$$CBHUDESC@DescriptorManager@@@_STL@@@2@@_STL@@QBE_NXZ PROC NEAR ; _STL::_Rb_tree<int,_STL::pair<int const ,DescriptorManager::DESC>,_STL::_Select1st<_STL::pair<int const ,DescriptorManager::DESC> >,_STL::less<int>,_STL::allocator<_STL::pair<int const ,DescriptorManager::DESC> > >::empty, COMDAT
; _this$ = ecx

; 370  :   bool empty() const { return _M_node_count == 0; }

  00000	8b 51 04	 mov	 edx, DWORD PTR [ecx+4]
  00003	33 c0		 xor	 eax, eax
  00005	85 d2		 test	 edx, edx
  00007	0f 94 c0	 sete	 al
  0000a	c3		 ret	 0
?empty@?$_Rb_tree@HU?$pair@$$CBHUDESC@DescriptorManager@@@_STL@@U?$_Select1st@U?$pair@$$CBHUDESC@DescriptorManager@@@_STL@@@2@U?$less@H@2@V?$allocator@U?$pair@$$CBHUDESC@DescriptorManager@@@_STL@@@2@@_STL@@QBE_NXZ ENDP ; _STL::_Rb_tree<int,_STL::pair<int const ,DescriptorManager::DESC>,_STL::_Select1st<_STL::pair<int const ,DescriptorManager::DESC> >,_STL::less<int>,_STL::allocator<_STL::pair<int const ,DescriptorManager::DESC> > >::empty
_TEXT	ENDS
PUBLIC	??0?$allocator@U?$pair@$$CBHUDESC@DescriptorManager@@@_STL@@@_STL@@QAE@XZ ; _STL::allocator<_STL::pair<int const ,DescriptorManager::DESC> >::allocator<_STL::pair<int const ,DescriptorManager::DESC> >
; Function compile flags: /Ogty
; File c:\stlport-4.6.1\stlport\stl\_alloc.h
;	COMDAT ??0?$allocator@U?$pair@$$CBHUDESC@DescriptorManager@@@_STL@@@_STL@@QAE@XZ
_TEXT	SEGMENT
??0?$allocator@U?$pair@$$CBHUDESC@DescriptorManager@@@_STL@@@_STL@@QAE@XZ PROC NEAR ; _STL::allocator<_STL::pair<int const ,DescriptorManager::DESC> >::allocator<_STL::pair<int const ,DescriptorManager::DESC> >, COMDAT
; _this$ = ecx

; 345  :   allocator() _STLP_NOTHROW {}

  00000	8b c1		 mov	 eax, ecx
  00002	c3		 ret	 0
??0?$allocator@U?$pair@$$CBHUDESC@DescriptorManager@@@_STL@@@_STL@@QAE@XZ ENDP ; _STL::allocator<_STL::pair<int const ,DescriptorManager::DESC> >::allocator<_STL::pair<int const ,DescriptorManager::DESC> >
_TEXT	ENDS
PUBLIC	??1?$allocator@U?$pair@$$CBHUDESC@DescriptorManager@@@_STL@@@_STL@@QAE@XZ ; _STL::allocator<_STL::pair<int const ,DescriptorManager::DESC> >::~allocator<_STL::pair<int const ,DescriptorManager::DESC> >
; Function compile flags: /Ogty
;	COMDAT ??1?$allocator@U?$pair@$$CBHUDESC@DescriptorManager@@@_STL@@@_STL@@QAE@XZ
_TEXT	SEGMENT
??1?$allocator@U?$pair@$$CBHUDESC@DescriptorManager@@@_STL@@@_STL@@QAE@XZ PROC NEAR ; _STL::allocator<_STL::pair<int const ,DescriptorManager::DESC> >::~allocator<_STL::pair<int const ,DescriptorManager::DESC> >, COMDAT
; _this$ = ecx

; 350  :   ~allocator() _STLP_NOTHROW {}

  00000	c3		 ret	 0
??1?$allocator@U?$pair@$$CBHUDESC@DescriptorManager@@@_STL@@@_STL@@QAE@XZ ENDP ; _STL::allocator<_STL::pair<int const ,DescriptorManager::DESC> >::~allocator<_STL::pair<int const ,DescriptorManager::DESC> >
_TEXT	ENDS
PUBLIC	??D?$_Rb_tree_iterator@U?$pair@$$CBHUDESC@DescriptorManager@@@_STL@@U?$_Const_traits@U?$pair@$$CBHUDESC@DescriptorManager@@@_STL@@@2@@_STL@@QBEABU?$pair@$$CBHUDESC@DescriptorManager@@@1@XZ ; _STL::_Rb_tree_iterator<_STL::pair<int const ,DescriptorManager::DESC>,_STL::_Const_traits<_STL::pair<int const ,DescriptorManager::DESC> > >::operator*
; Function compile flags: /Ogty
; File c:\stlport-4.6.1\stlport\stl\_tree.h
;	COMDAT ??D?$_Rb_tree_iterator@U?$pair@$$CBHUDESC@DescriptorManager@@@_STL@@U?$_Const_traits@U?$pair@$$CBHUDESC@DescriptorManager@@@_STL@@@2@@_STL@@QBEABU?$pair@$$CBHUDESC@DescriptorManager@@@1@XZ
_TEXT	SEGMENT
??D?$_Rb_tree_iterator@U?$pair@$$CBHUDESC@DescriptorManager@@@_STL@@U?$_Const_traits@U?$pair@$$CBHUDESC@DescriptorManager@@@_STL@@@2@@_STL@@QBEABU?$pair@$$CBHUDESC@DescriptorManager@@@1@XZ PROC NEAR ; _STL::_Rb_tree_iterator<_STL::pair<int const ,DescriptorManager::DESC>,_STL::_Const_traits<_STL::pair<int const ,DescriptorManager::DESC> > >::operator*, COMDAT
; _this$ = ecx

; 169  :     return _Link_type(_M_node)->_M_value_field; 

  00000	8b 01		 mov	 eax, DWORD PTR [ecx]
  00002	83 c0 10	 add	 eax, 16			; 00000010H

; 170  :   }

  00005	c3		 ret	 0
??D?$_Rb_tree_iterator@U?$pair@$$CBHUDESC@DescriptorManager@@@_STL@@U?$_Const_traits@U?$pair@$$CBHUDESC@DescriptorManager@@@_STL@@@2@@_STL@@QBEABU?$pair@$$CBHUDESC@DescriptorManager@@@1@XZ ENDP ; _STL::_Rb_tree_iterator<_STL::pair<int const ,DescriptorManager::DESC>,_STL::_Const_traits<_STL::pair<int const ,DescriptorManager::DESC> > >::operator*
_TEXT	ENDS
PUBLIC	??D?$_Rb_tree_iterator@U?$pair@$$CBHUDESC@DescriptorManager@@@_STL@@U?$_Nonconst_traits@U?$pair@$$CBHUDESC@DescriptorManager@@@_STL@@@2@@_STL@@QBEAAU?$pair@$$CBHUDESC@DescriptorManager@@@1@XZ ; _STL::_Rb_tree_iterator<_STL::pair<int const ,DescriptorManager::DESC>,_STL::_Nonconst_traits<_STL::pair<int const ,DescriptorManager::DESC> > >::operator*
; Function compile flags: /Ogty
;	COMDAT ??D?$_Rb_tree_iterator@U?$pair@$$CBHUDESC@DescriptorManager@@@_STL@@U?$_Nonconst_traits@U?$pair@$$CBHUDESC@DescriptorManager@@@_STL@@@2@@_STL@@QBEAAU?$pair@$$CBHUDESC@DescriptorManager@@@1@XZ
_TEXT	SEGMENT
??D?$_Rb_tree_iterator@U?$pair@$$CBHUDESC@DescriptorManager@@@_STL@@U?$_Nonconst_traits@U?$pair@$$CBHUDESC@DescriptorManager@@@_STL@@@2@@_STL@@QBEAAU?$pair@$$CBHUDESC@DescriptorManager@@@1@XZ PROC NEAR ; _STL::_Rb_tree_iterator<_STL::pair<int const ,DescriptorManager::DESC>,_STL::_Nonconst_traits<_STL::pair<int const ,DescriptorManager::DESC> > >::operator*, COMDAT
; _this$ = ecx

; 169  :     return _Link_type(_M_node)->_M_value_field; 

  00000	8b 01		 mov	 eax, DWORD PTR [ecx]
  00002	83 c0 10	 add	 eax, 16			; 00000010H

; 170  :   }

  00005	c3		 ret	 0
??D?$_Rb_tree_iterator@U?$pair@$$CBHUDESC@DescriptorManager@@@_STL@@U?$_Nonconst_traits@U?$pair@$$CBHUDESC@DescriptorManager@@@_STL@@@2@@_STL@@QBEAAU?$pair@$$CBHUDESC@DescriptorManager@@@1@XZ ENDP ; _STL::_Rb_tree_iterator<_STL::pair<int const ,DescriptorManager::DESC>,_STL::_Nonconst_traits<_STL::pair<int const ,DescriptorManager::DESC> > >::operator*
_TEXT	ENDS
PUBLIC	?_M_root@?$_Rb_tree@HU?$pair@$$CBHUDESC@DescriptorManager@@@_STL@@U?$_Select1st@U?$pair@$$CBHUDESC@DescriptorManager@@@_STL@@@2@U?$less@H@2@V?$allocator@U?$pair@$$CBHUDESC@DescriptorManager@@@_STL@@@2@@_STL@@IBEAAPAU?$_Rb_tree_node@U?$pair@$$CBHUDESC@DescriptorManager@@@_STL@@@2@XZ ; _STL::_Rb_tree<int,_STL::pair<int const ,DescriptorManager::DESC>,_STL::_Select1st<_STL::pair<int const ,DescriptorManager::DESC> >,_STL::less<int>,_STL::allocator<_STL::pair<int const ,DescriptorManager::DESC> > >::_M_root
; Function compile flags: /Ogty
;	COMDAT ?_M_root@?$_Rb_tree@HU?$pair@$$CBHUDESC@DescriptorManager@@@_STL@@U?$_Select1st@U?$pair@$$CBHUDESC@DescriptorManager@@@_STL@@@2@U?$less@H@2@V?$allocator@U?$pair@$$CBHUDESC@DescriptorManager@@@_STL@@@2@@_STL@@IBEAAPAU?$_Rb_tree_node@U?$pair@$$CBHUDESC@DescriptorManager@@@_STL@@@2@XZ
_TEXT	SEGMENT
?_M_root@?$_Rb_tree@HU?$pair@$$CBHUDESC@DescriptorManager@@@_STL@@U?$_Select1st@U?$pair@$$CBHUDESC@DescriptorManager@@@_STL@@@2@U?$less@H@2@V?$allocator@U?$pair@$$CBHUDESC@DescriptorManager@@@_STL@@@2@@_STL@@IBEAAPAU?$_Rb_tree_node@U?$pair@$$CBHUDESC@DescriptorManager@@@_STL@@@2@XZ PROC NEAR ; _STL::_Rb_tree<int,_STL::pair<int const ,DescriptorManager::DESC>,_STL::_Select1st<_STL::pair<int const ,DescriptorManager::DESC> >,_STL::less<int>,_STL::allocator<_STL::pair<int const ,DescriptorManager::DESC> > >::_M_root, COMDAT
; _this$ = ecx

; 265  :     { return (_Link_type&) this->_M_header._M_data->_M_parent; }

  00000	8b 01		 mov	 eax, DWORD PTR [ecx]
  00002	83 c0 04	 add	 eax, 4
  00005	c3		 ret	 0
?_M_root@?$_Rb_tree@HU?$pair@$$CBHUDESC@DescriptorManager@@@_STL@@U?$_Select1st@U?$pair@$$CBHUDESC@DescriptorManager@@@_STL@@@2@U?$less@H@2@V?$allocator@U?$pair@$$CBHUDESC@DescriptorManager@@@_STL@@@2@@_STL@@IBEAAPAU?$_Rb_tree_node@U?$pair@$$CBHUDESC@DescriptorManager@@@_STL@@@2@XZ ENDP ; _STL::_Rb_tree<int,_STL::pair<int const ,DescriptorManager::DESC>,_STL::_Select1st<_STL::pair<int const ,DescriptorManager::DESC> >,_STL::less<int>,_STL::allocator<_STL::pair<int const ,DescriptorManager::DESC> > >::_M_root
_TEXT	ENDS
PUBLIC	?_M_leftmost@?$_Rb_tree@HU?$pair@$$CBHUDESC@DescriptorManager@@@_STL@@U?$_Select1st@U?$pair@$$CBHUDESC@DescriptorManager@@@_STL@@@2@U?$less@H@2@V?$allocator@U?$pair@$$CBHUDESC@DescriptorManager@@@_STL@@@2@@_STL@@IBEAAPAU?$_Rb_tree_node@U?$pair@$$CBHUDESC@DescriptorManager@@@_STL@@@2@XZ ; _STL::_Rb_tree<int,_STL::pair<int const ,DescriptorManager::DESC>,_STL::_Select1st<_STL::pair<int const ,DescriptorManager::DESC> >,_STL::less<int>,_STL::allocator<_STL::pair<int const ,DescriptorManager::DESC> > >::_M_leftmost
; Function compile flags: /Ogty
;	COMDAT ?_M_leftmost@?$_Rb_tree@HU?$pair@$$CBHUDESC@DescriptorManager@@@_STL@@U?$_Select1st@U?$pair@$$CBHUDESC@DescriptorManager@@@_STL@@@2@U?$less@H@2@V?$allocator@U?$pair@$$CBHUDESC@DescriptorManager@@@_STL@@@2@@_STL@@IBEAAPAU?$_Rb_tree_node@U?$pair@$$CBHUDESC@DescriptorManager@@@_STL@@@2@XZ
_TEXT	SEGMENT
?_M_leftmost@?$_Rb_tree@HU?$pair@$$CBHUDESC@DescriptorManager@@@_STL@@U?$_Select1st@U?$pair@$$CBHUDESC@DescriptorManager@@@_STL@@@2@U?$less@H@2@V?$allocator@U?$pair@$$CBHUDESC@DescriptorManager@@@_STL@@@2@@_STL@@IBEAAPAU?$_Rb_tree_node@U?$pair@$$CBHUDESC@DescriptorManager@@@_STL@@@2@XZ PROC NEAR ; _STL::_Rb_tree<int,_STL::pair<int const ,DescriptorManager::DESC>,_STL::_Select1st<_STL::pair<int const ,DescriptorManager::DESC> >,_STL::less<int>,_STL::allocator<_STL::pair<int const ,DescriptorManager::DESC> > >::_M_leftmost, COMDAT
; _this$ = ecx

; 267  :     { return (_Link_type&) this->_M_header._M_data->_M_left; }

  00000	8b 01		 mov	 eax, DWORD PTR [ecx]
  00002	83 c0 08	 add	 eax, 8
  00005	c3		 ret	 0
?_M_leftmost@?$_Rb_tree@HU?$pair@$$CBHUDESC@DescriptorManager@@@_STL@@U?$_Select1st@U?$pair@$$CBHUDESC@DescriptorManager@@@_STL@@@2@U?$less@H@2@V?$allocator@U?$pair@$$CBHUDESC@DescriptorManager@@@_STL@@@2@@_STL@@IBEAAPAU?$_Rb_tree_node@U?$pair@$$CBHUDESC@DescriptorManager@@@_STL@@@2@XZ ENDP ; _STL::_Rb_tree<int,_STL::pair<int const ,DescriptorManager::DESC>,_STL::_Select1st<_STL::pair<int const ,DescriptorManager::DESC> >,_STL::less<int>,_STL::allocator<_STL::pair<int const ,DescriptorManager::DESC> > >::_M_leftmost
_TEXT	ENDS
PUBLIC	?_M_rightmost@?$_Rb_tree@HU?$pair@$$CBHUDESC@DescriptorManager@@@_STL@@U?$_Select1st@U?$pair@$$CBHUDESC@DescriptorManager@@@_STL@@@2@U?$less@H@2@V?$allocator@U?$pair@$$CBHUDESC@DescriptorManager@@@_STL@@@2@@_STL@@IBEAAPAU?$_Rb_tree_node@U?$pair@$$CBHUDESC@DescriptorManager@@@_STL@@@2@XZ ; _STL::_Rb_tree<int,_STL::pair<int const ,DescriptorManager::DESC>,_STL::_Select1st<_STL::pair<int const ,DescriptorManager::DESC> >,_STL::less<int>,_STL::allocator<_STL::pair<int const ,DescriptorManager::DESC> > >::_M_rightmost
; Function compile flags: /Ogty
;	COMDAT ?_M_rightmost@?$_Rb_tree@HU?$pair@$$CBHUDESC@DescriptorManager@@@_STL@@U?$_Select1st@U?$pair@$$CBHUDESC@DescriptorManager@@@_STL@@@2@U?$less@H@2@V?$allocator@U?$pair@$$CBHUDESC@DescriptorManager@@@_STL@@@2@@_STL@@IBEAAPAU?$_Rb_tree_node@U?$pair@$$CBHUDESC@DescriptorManager@@@_STL@@@2@XZ
_TEXT	SEGMENT
?_M_rightmost@?$_Rb_tree@HU?$pair@$$CBHUDESC@DescriptorManager@@@_STL@@U?$_Select1st@U?$pair@$$CBHUDESC@DescriptorManager@@@_STL@@@2@U?$less@H@2@V?$allocator@U?$pair@$$CBHUDESC@DescriptorManager@@@_STL@@@2@@_STL@@IBEAAPAU?$_Rb_tree_node@U?$pair@$$CBHUDESC@DescriptorManager@@@_STL@@@2@XZ PROC NEAR ; _STL::_Rb_tree<int,_STL::pair<int const ,DescriptorManager::DESC>,_STL::_Select1st<_STL::pair<int const ,DescriptorManager::DESC> >,_STL::less<int>,_STL::allocator<_STL::pair<int const ,DescriptorManager::DESC> > >::_M_rightmost, COMDAT
; _this$ = ecx

; 269  :     { return (_Link_type&) this->_M_header._M_data->_M_right; }

  00000	8b 01		 mov	 eax, DWORD PTR [ecx]
  00002	83 c0 0c	 add	 eax, 12			; 0000000cH
  00005	c3		 ret	 0
?_M_rightmost@?$_Rb_tree@HU?$pair@$$CBHUDESC@DescriptorManager@@@_STL@@U?$_Select1st@U?$pair@$$CBHUDESC@DescriptorManager@@@_STL@@@2@U?$less@H@2@V?$allocator@U?$pair@$$CBHUDESC@DescriptorManager@@@_STL@@@2@@_STL@@IBEAAPAU?$_Rb_tree_node@U?$pair@$$CBHUDESC@DescriptorManager@@@_STL@@@2@XZ ENDP ; _STL::_Rb_tree<int,_STL::pair<int const ,DescriptorManager::DESC>,_STL::_Select1st<_STL::pair<int const ,DescriptorManager::DESC> >,_STL::less<int>,_STL::allocator<_STL::pair<int const ,DescriptorManager::DESC> > >::_M_rightmost
_TEXT	ENDS
PUBLIC	??1?$allocator@U?$_Rb_tree_node@U?$pair@$$CBHUDESC@DescriptorManager@@@_STL@@@_STL@@@_STL@@QAE@XZ ; _STL::allocator<_STL::_Rb_tree_node<_STL::pair<int const ,DescriptorManager::DESC> > >::~allocator<_STL::_Rb_tree_node<_STL::pair<int const ,DescriptorManager::DESC> > >
; Function compile flags: /Ogty
; File c:\stlport-4.6.1\stlport\stl\_alloc.h
;	COMDAT ??1?$allocator@U?$_Rb_tree_node@U?$pair@$$CBHUDESC@DescriptorManager@@@_STL@@@_STL@@@_STL@@QAE@XZ
_TEXT	SEGMENT
??1?$allocator@U?$_Rb_tree_node@U?$pair@$$CBHUDESC@DescriptorManager@@@_STL@@@_STL@@@_STL@@QAE@XZ PROC NEAR ; _STL::allocator<_STL::_Rb_tree_node<_STL::pair<int const ,DescriptorManager::DESC> > >::~allocator<_STL::_Rb_tree_node<_STL::pair<int const ,DescriptorManager::DESC> > >, COMDAT
; _this$ = ecx

; 350  :   ~allocator() _STLP_NOTHROW {}

  00000	c3		 ret	 0
??1?$allocator@U?$_Rb_tree_node@U?$pair@$$CBHUDESC@DescriptorManager@@@_STL@@@_STL@@@_STL@@QAE@XZ ENDP ; _STL::allocator<_STL::_Rb_tree_node<_STL::pair<int const ,DescriptorManager::DESC> > >::~allocator<_STL::_Rb_tree_node<_STL::pair<int const ,DescriptorManager::DESC> > >
_TEXT	ENDS
PUBLIC	??0?$_Rb_tree_iterator@U?$pair@$$CBHUDESC@DescriptorManager@@@_STL@@U?$_Const_traits@U?$pair@$$CBHUDESC@DescriptorManager@@@_STL@@@2@@_STL@@QAE@PAU?$_Rb_tree_node@U?$pair@$$CBHUDESC@DescriptorManager@@@_STL@@@1@@Z ; _STL::_Rb_tree_iterator<_STL::pair<int const ,DescriptorManager::DESC>,_STL::_Const_traits<_STL::pair<int const ,DescriptorManager::DESC> > >::_Rb_tree_iterator<_STL::pair<int const ,DescriptorManager::DESC>,_STL::_Const_traits<_STL::pair<int const ,DescriptorManager::DESC> > >
; Function compile flags: /Ogty
; File c:\stlport-4.6.1\stlport\stl\_tree.h
;	COMDAT ??0?$_Rb_tree_iterator@U?$pair@$$CBHUDESC@DescriptorManager@@@_STL@@U?$_Const_traits@U?$pair@$$CBHUDESC@DescriptorManager@@@_STL@@@2@@_STL@@QAE@PAU?$_Rb_tree_node@U?$pair@$$CBHUDESC@DescriptorManager@@@_STL@@@1@@Z
_TEXT	SEGMENT
___x$ = 8						; size = 4
??0?$_Rb_tree_iterator@U?$pair@$$CBHUDESC@DescriptorManager@@@_STL@@U?$_Const_traits@U?$pair@$$CBHUDESC@DescriptorManager@@@_STL@@@2@@_STL@@QAE@PAU?$_Rb_tree_node@U?$pair@$$CBHUDESC@DescriptorManager@@@_STL@@@1@@Z PROC NEAR ; _STL::_Rb_tree_iterator<_STL::pair<int const ,DescriptorManager::DESC>,_STL::_Const_traits<_STL::pair<int const ,DescriptorManager::DESC> > >::_Rb_tree_iterator<_STL::pair<int const ,DescriptorManager::DESC>,_STL::_Const_traits<_STL::pair<int const ,DescriptorManager::DESC> > >, COMDAT
; _this$ = ecx

; 164  :   _Rb_tree_iterator(_Link_type __x) { _M_node = __x; }

  00000	8b c1		 mov	 eax, ecx
  00002	8b 4c 24 04	 mov	 ecx, DWORD PTR ___x$[esp-4]
  00006	89 08		 mov	 DWORD PTR [eax], ecx
  00008	c2 04 00	 ret	 4
??0?$_Rb_tree_iterator@U?$pair@$$CBHUDESC@DescriptorManager@@@_STL@@U?$_Const_traits@U?$pair@$$CBHUDESC@DescriptorManager@@@_STL@@@2@@_STL@@QAE@PAU?$_Rb_tree_node@U?$pair@$$CBHUDESC@DescriptorManager@@@_STL@@@1@@Z ENDP ; _STL::_Rb_tree_iterator<_STL::pair<int const ,DescriptorManager::DESC>,_STL::_Const_traits<_STL::pair<int const ,DescriptorManager::DESC> > >::_Rb_tree_iterator<_STL::pair<int const ,DescriptorManager::DESC>,_STL::_Const_traits<_STL::pair<int const ,DescriptorManager::DESC> > >
_TEXT	ENDS
PUBLIC	??0?$_Rb_tree_iterator@U?$pair@$$CBHUDESC@DescriptorManager@@@_STL@@U?$_Nonconst_traits@U?$pair@$$CBHUDESC@DescriptorManager@@@_STL@@@2@@_STL@@QAE@PAU?$_Rb_tree_node@U?$pair@$$CBHUDESC@DescriptorManager@@@_STL@@@1@@Z ; _STL::_Rb_tree_iterator<_STL::pair<int const ,DescriptorManager::DESC>,_STL::_Nonconst_traits<_STL::pair<int const ,DescriptorManager::DESC> > >::_Rb_tree_iterator<_STL::pair<int const ,DescriptorManager::DESC>,_STL::_Nonconst_traits<_STL::pair<int const ,DescriptorManager::DESC> > >
; Function compile flags: /Ogty
;	COMDAT ??0?$_Rb_tree_iterator@U?$pair@$$CBHUDESC@DescriptorManager@@@_STL@@U?$_Nonconst_traits@U?$pair@$$CBHUDESC@DescriptorManager@@@_STL@@@2@@_STL@@QAE@PAU?$_Rb_tree_node@U?$pair@$$CBHUDESC@DescriptorManager@@@_STL@@@1@@Z
_TEXT	SEGMENT
___x$ = 8						; size = 4
??0?$_Rb_tree_iterator@U?$pair@$$CBHUDESC@DescriptorManager@@@_STL@@U?$_Nonconst_traits@U?$pair@$$CBHUDESC@DescriptorManager@@@_STL@@@2@@_STL@@QAE@PAU?$_Rb_tree_node@U?$pair@$$CBHUDESC@DescriptorManager@@@_STL@@@1@@Z PROC NEAR ; _STL::_Rb_tree_iterator<_STL::pair<int const ,DescriptorManager::DESC>,_STL::_Nonconst_traits<_STL::pair<int const ,DescriptorManager::DESC> > >::_Rb_tree_iterator<_STL::pair<int const ,DescriptorManager::DESC>,_STL::_Nonconst_traits<_STL::pair<int const ,DescriptorManager::DESC> > >, COMDAT
; _this$ = ecx

; 164  :   _Rb_tree_iterator(_Link_type __x) { _M_node = __x; }

  00000	8b c1		 mov	 eax, ecx
  00002	8b 4c 24 04	 mov	 ecx, DWORD PTR ___x$[esp-4]
  00006	89 08		 mov	 DWORD PTR [eax], ecx
  00008	c2 04 00	 ret	 4
??0?$_Rb_tree_iterator@U?$pair@$$CBHUDESC@DescriptorManager@@@_STL@@U?$_Nonconst_traits@U?$pair@$$CBHUDESC@DescriptorManager@@@_STL@@@2@@_STL@@QAE@PAU?$_Rb_tree_node@U?$pair@$$CBHUDESC@DescriptorManager@@@_STL@@@1@@Z ENDP ; _STL::_Rb_tree_iterator<_STL::pair<int const ,DescriptorManager::DESC>,_STL::_Nonconst_traits<_STL::pair<int const ,DescriptorManager::DESC> > >::_Rb_tree_iterator<_STL::pair<int const ,DescriptorManager::DESC>,_STL::_Nonconst_traits<_STL::pair<int const ,DescriptorManager::DESC> > >
_TEXT	ENDS
PUBLIC	?_S_color@?$_Rb_tree@HU?$pair@$$CBHUDESC@DescriptorManager@@@_STL@@U?$_Select1st@U?$pair@$$CBHUDESC@DescriptorManager@@@_STL@@@2@U?$less@H@2@V?$allocator@U?$pair@$$CBHUDESC@DescriptorManager@@@_STL@@@2@@_STL@@KAAA_NPAU?$_Rb_tree_node@U?$pair@$$CBHUDESC@DescriptorManager@@@_STL@@@2@@Z ; _STL::_Rb_tree<int,_STL::pair<int const ,DescriptorManager::DESC>,_STL::_Select1st<_STL::pair<int const ,DescriptorManager::DESC> >,_STL::less<int>,_STL::allocator<_STL::pair<int const ,DescriptorManager::DESC> > >::_S_color
; Function compile flags: /Ogty
;	COMDAT ?_S_color@?$_Rb_tree@HU?$pair@$$CBHUDESC@DescriptorManager@@@_STL@@U?$_Select1st@U?$pair@$$CBHUDESC@DescriptorManager@@@_STL@@@2@U?$less@H@2@V?$allocator@U?$pair@$$CBHUDESC@DescriptorManager@@@_STL@@@2@@_STL@@KAAA_NPAU?$_Rb_tree_node@U?$pair@$$CBHUDESC@DescriptorManager@@@_STL@@@2@@Z
_TEXT	SEGMENT
___x$ = 8						; size = 4
?_S_color@?$_Rb_tree@HU?$pair@$$CBHUDESC@DescriptorManager@@@_STL@@U?$_Select1st@U?$pair@$$CBHUDESC@DescriptorManager@@@_STL@@@2@U?$less@H@2@V?$allocator@U?$pair@$$CBHUDESC@DescriptorManager@@@_STL@@@2@@_STL@@KAAA_NPAU?$_Rb_tree_node@U?$pair@$$CBHUDESC@DescriptorManager@@@_STL@@@2@@Z PROC NEAR ; _STL::_Rb_tree<int,_STL::pair<int const ,DescriptorManager::DESC>,_STL::_Select1st<_STL::pair<int const ,DescriptorManager::DESC> >,_STL::less<int>,_STL::allocator<_STL::pair<int const ,DescriptorManager::DESC> > >::_S_color, COMDAT

; 282  :     { return (_Color_type&)(__x->_M_color); }

  00000	8b 44 24 04	 mov	 eax, DWORD PTR ___x$[esp-4]
  00004	c3		 ret	 0
?_S_color@?$_Rb_tree@HU?$pair@$$CBHUDESC@DescriptorManager@@@_STL@@U?$_Select1st@U?$pair@$$CBHUDESC@DescriptorManager@@@_STL@@@2@U?$less@H@2@V?$allocator@U?$pair@$$CBHUDESC@DescriptorManager@@@_STL@@@2@@_STL@@KAAA_NPAU?$_Rb_tree_node@U?$pair@$$CBHUDESC@DescriptorManager@@@_STL@@@2@@Z ENDP ; _STL::_Rb_tree<int,_STL::pair<int const ,DescriptorManager::DESC>,_STL::_Select1st<_STL::pair<int const ,DescriptorManager::DESC> >,_STL::less<int>,_STL::allocator<_STL::pair<int const ,DescriptorManager::DESC> > >::_S_color
_TEXT	ENDS
PUBLIC	?allocate@?$__node_alloc@$00$0A@@_STL@@SAPAXI@Z	; _STL::__node_alloc<1,0>::allocate
EXTRN	?_M_allocate@?$__node_alloc@$00$0A@@_STL@@CAPAXI@Z:NEAR ; _STL::__node_alloc<1,0>::_M_allocate
; Function compile flags: /Ogty
; File c:\stlport-4.6.1\stlport\stl\_alloc.h
;	COMDAT ?allocate@?$__node_alloc@$00$0A@@_STL@@SAPAXI@Z
_TEXT	SEGMENT
___n$ = 8						; size = 4
?allocate@?$__node_alloc@$00$0A@@_STL@@SAPAXI@Z PROC NEAR ; _STL::__node_alloc<1,0>::allocate, COMDAT

; 251  :   static void * _STLP_CALL allocate(size_t __n) { return (__n > (size_t)_MAX_BYTES) ?  __stl_new(__n) : _M_allocate(__n); }

  00000	8b 44 24 04	 mov	 eax, DWORD PTR ___n$[esp-4]
  00004	3d 80 00 00 00	 cmp	 eax, 128		; 00000080H
  00009	76 09		 jbe	 SHORT $L90868
  0000b	89 44 24 04	 mov	 DWORD PTR ___n$[esp-4], eax
  0000f	e9 00 00 00 00	 jmp	 ??2@YAPAXI@Z		; operator new
$L90868:
  00014	89 44 24 04	 mov	 DWORD PTR ___n$[esp-4], eax
  00018	e9 00 00 00 00	 jmp	 ?_M_allocate@?$__node_alloc@$00$0A@@_STL@@CAPAXI@Z ; _STL::__node_alloc<1,0>::_M_allocate
?allocate@?$__node_alloc@$00$0A@@_STL@@SAPAXI@Z ENDP	; _STL::__node_alloc<1,0>::allocate
_TEXT	ENDS
PUBLIC	??0?$allocator@U?$_Rb_tree_node@U?$pair@$$CBHUDESC@DescriptorManager@@@_STL@@@_STL@@@_STL@@QAE@ABV01@@Z ; _STL::allocator<_STL::_Rb_tree_node<_STL::pair<int const ,DescriptorManager::DESC> > >::allocator<_STL::_Rb_tree_node<_STL::pair<int const ,DescriptorManager::DESC> > >
; Function compile flags: /Ogty
;	COMDAT ??0?$allocator@U?$_Rb_tree_node@U?$pair@$$CBHUDESC@DescriptorManager@@@_STL@@@_STL@@@_STL@@QAE@ABV01@@Z
_TEXT	SEGMENT
___formal$ = 8						; size = 4
??0?$allocator@U?$_Rb_tree_node@U?$pair@$$CBHUDESC@DescriptorManager@@@_STL@@@_STL@@@_STL@@QAE@ABV01@@Z PROC NEAR ; _STL::allocator<_STL::_Rb_tree_node<_STL::pair<int const ,DescriptorManager::DESC> > >::allocator<_STL::_Rb_tree_node<_STL::pair<int const ,DescriptorManager::DESC> > >, COMDAT
; _this$ = ecx

; 349  :   allocator(const allocator<_Tp>&) _STLP_NOTHROW {}

  00000	8b c1		 mov	 eax, ecx
  00002	c2 04 00	 ret	 4
??0?$allocator@U?$_Rb_tree_node@U?$pair@$$CBHUDESC@DescriptorManager@@@_STL@@@_STL@@@_STL@@QAE@ABV01@@Z ENDP ; _STL::allocator<_STL::_Rb_tree_node<_STL::pair<int const ,DescriptorManager::DESC> > >::allocator<_STL::_Rb_tree_node<_STL::pair<int const ,DescriptorManager::DESC> > >
_TEXT	ENDS
PUBLIC	??_R1A@?0A@A@?$SimpleDataList@PAUDESCRIBED_UNIT@@@@8 ; SimpleDataList<DESCRIBED_UNIT *>::`RTTI Base Class Descriptor at (0,-1,0,0)'
PUBLIC	??_R0?AV?$SimpleDataList@PAUDESCRIBED_UNIT@@@@@8 ; SimpleDataList<DESCRIBED_UNIT *> `RTTI Type Descriptor'
PUBLIC	??_R4?$SimpleDataList@PAUDESCRIBED_UNIT@@@@6B@	; SimpleDataList<DESCRIBED_UNIT *>::`RTTI Complete Object Locator'
PUBLIC	??_R3?$SimpleDataList@PAUDESCRIBED_UNIT@@@@8	; SimpleDataList<DESCRIBED_UNIT *>::`RTTI Class Hierarchy Descriptor'
PUBLIC	??_R2?$SimpleDataList@PAUDESCRIBED_UNIT@@@@8	; SimpleDataList<DESCRIBED_UNIT *>::`RTTI Base Class Array'
PUBLIC	??0?$SimpleDataList@PAUDESCRIBED_UNIT@@@@QAE@XZ	; SimpleDataList<DESCRIBED_UNIT *>::SimpleDataList<DESCRIBED_UNIT *>
PUBLIC	??_7?$SimpleDataList@PAUDESCRIBED_UNIT@@@@6B@	; SimpleDataList<DESCRIBED_UNIT *>::`vftable'
PUBLIC	??_G?$SimpleDataList@PAUDESCRIBED_UNIT@@@@UAEPAXI@Z ; SimpleDataList<DESCRIBED_UNIT *>::`scalar deleting destructor'
EXTRN	??_7type_info@@6B@:QWORD			; type_info::`vftable'
EXTRN	??_E?$SimpleDataList@PAUDESCRIBED_UNIT@@@@UAEPAXI@Z:NEAR ; SimpleDataList<DESCRIBED_UNIT *>::`vector deleting destructor'
;	COMDAT ??_7?$SimpleDataList@PAUDESCRIBED_UNIT@@@@6B@
; File c:\darkeden\designed_common\project\new - vs_ui\src\widget\simpledatalist.h
CONST	SEGMENT
??_7?$SimpleDataList@PAUDESCRIBED_UNIT@@@@6B@ DD FLAT:??_R4?$SimpleDataList@PAUDESCRIBED_UNIT@@@@6B@ ; SimpleDataList<DESCRIBED_UNIT *>::`vftable'
	DD	FLAT:??_E?$SimpleDataList@PAUDESCRIBED_UNIT@@@@UAEPAXI@Z
CONST	ENDS
;	COMDAT ??_R4?$SimpleDataList@PAUDESCRIBED_UNIT@@@@6B@
rdata$r	SEGMENT
??_R4?$SimpleDataList@PAUDESCRIBED_UNIT@@@@6B@ DD 00H	; SimpleDataList<DESCRIBED_UNIT *>::`RTTI Complete Object Locator'
	DD	00H
	DD	00H
	DD	FLAT:??_R0?AV?$SimpleDataList@PAUDESCRIBED_UNIT@@@@@8
	DD	FLAT:??_R3?$SimpleDataList@PAUDESCRIBED_UNIT@@@@8
rdata$r	ENDS
;	COMDAT ??_R0?AV?$SimpleDataList@PAUDESCRIBED_UNIT@@@@@8
_DATA	SEGMENT
??_R0?AV?$SimpleDataList@PAUDESCRIBED_UNIT@@@@@8 DD FLAT:??_7type_info@@6B@ ; SimpleDataList<DESCRIBED_UNIT *> `RTTI Type Descriptor'
	DD	00H
	DB	'.?AV?$SimpleDataList@PAUDESCRIBED_UNIT@@@@', 00H
_DATA	ENDS
;	COMDAT ??_R3?$SimpleDataList@PAUDESCRIBED_UNIT@@@@8
rdata$r	SEGMENT
??_R3?$SimpleDataList@PAUDESCRIBED_UNIT@@@@8 DD 00H	; SimpleDataList<DESCRIBED_UNIT *>::`RTTI Class Hierarchy Descriptor'
	DD	00H
	DD	01H
	DD	FLAT:??_R2?$SimpleDataList@PAUDESCRIBED_UNIT@@@@8
rdata$r	ENDS
;	COMDAT ??_R2?$SimpleDataList@PAUDESCRIBED_UNIT@@@@8
rdata$r	SEGMENT
??_R2?$SimpleDataList@PAUDESCRIBED_UNIT@@@@8 DD FLAT:??_R1A@?0A@A@?$SimpleDataList@PAUDESCRIBED_UNIT@@@@8 ; SimpleDataList<DESCRIBED_UNIT *>::`RTTI Base Class Array'
rdata$r	ENDS
;	COMDAT ??_R1A@?0A@A@?$SimpleDataList@PAUDESCRIBED_UNIT@@@@8
rdata$r	SEGMENT
??_R1A@?0A@A@?$SimpleDataList@PAUDESCRIBED_UNIT@@@@8 DD FLAT:??_R0?AV?$SimpleDataList@PAUDESCRIBED_UNIT@@@@@8 ; SimpleDataList<DESCRIBED_UNIT *>::`RTTI Base Class Descriptor at (0,-1,0,0)'
	DD	00H
	DD	00H
	DD	0ffffffffH
	DD	00H
	DD	00H
; Function compile flags: /Ogty
rdata$r	ENDS
;	COMDAT ??0?$SimpleDataList@PAUDESCRIBED_UNIT@@@@QAE@XZ
_TEXT	SEGMENT
??0?$SimpleDataList@PAUDESCRIBED_UNIT@@@@QAE@XZ PROC NEAR ; SimpleDataList<DESCRIBED_UNIT *>::SimpleDataList<DESCRIBED_UNIT *>, COMDAT
; _this$ = ecx

; 50   : {

  00000	8b c1		 mov	 eax, ecx

; 51   : 	m_p_buf	= NULL;

  00002	33 c9		 xor	 ecx, ecx
  00004	c7 00 00 00 00
	00		 mov	 DWORD PTR [eax], OFFSET FLAT:??_7?$SimpleDataList@PAUDESCRIBED_UNIT@@@@6B@
  0000a	89 48 04	 mov	 DWORD PTR [eax+4], ecx

; 52   : 	m_size	= 0;

  0000d	89 48 08	 mov	 DWORD PTR [eax+8], ecx

; 53   : }

  00010	c3		 ret	 0
??0?$SimpleDataList@PAUDESCRIBED_UNIT@@@@QAE@XZ ENDP	; SimpleDataList<DESCRIBED_UNIT *>::SimpleDataList<DESCRIBED_UNIT *>
_TEXT	ENDS
PUBLIC	??1?$SimpleDataList@PAUDESCRIBED_UNIT@@@@UAE@XZ	; SimpleDataList<DESCRIBED_UNIT *>::~SimpleDataList<DESCRIBED_UNIT *>
EXTRN	??_V@YAXPAX@Z:NEAR				; operator delete[]
; Function compile flags: /Ogty
;	COMDAT ??1?$SimpleDataList@PAUDESCRIBED_UNIT@@@@UAE@XZ
_TEXT	SEGMENT
??1?$SimpleDataList@PAUDESCRIBED_UNIT@@@@UAE@XZ PROC NEAR ; SimpleDataList<DESCRIBED_UNIT *>::~SimpleDataList<DESCRIBED_UNIT *>, COMDAT
; _this$ = ecx

; 62   : {

  00000	56		 push	 esi
  00001	8b f1		 mov	 esi, ecx

; 63   : 	DeleteNewArray(m_p_buf);

  00003	8b 46 04	 mov	 eax, DWORD PTR [esi+4]
  00006	85 c0		 test	 eax, eax
  00008	c7 06 00 00 00
	00		 mov	 DWORD PTR [esi], OFFSET FLAT:??_7?$SimpleDataList@PAUDESCRIBED_UNIT@@@@6B@
  0000e	74 10		 je	 SHORT $L89791
  00010	50		 push	 eax
  00011	e8 00 00 00 00	 call	 ??_V@YAXPAX@Z		; operator delete[]
  00016	83 c4 04	 add	 esp, 4
  00019	c7 46 04 00 00
	00 00		 mov	 DWORD PTR [esi+4], 0
$L89791:
  00020	5e		 pop	 esi

; 64   : }

  00021	c3		 ret	 0
??1?$SimpleDataList@PAUDESCRIBED_UNIT@@@@UAE@XZ ENDP	; SimpleDataList<DESCRIBED_UNIT *>::~SimpleDataList<DESCRIBED_UNIT *>
_TEXT	ENDS
PUBLIC	?Data@?$SimpleDataList@PAUDESCRIBED_UNIT@@@@QBE_NHAAPAUDESCRIBED_UNIT@@@Z ; SimpleDataList<DESCRIBED_UNIT *>::Data
; Function compile flags: /Ogty
;	COMDAT ?Data@?$SimpleDataList@PAUDESCRIBED_UNIT@@@@QBE_NHAAPAUDESCRIBED_UNIT@@@Z
_TEXT	SEGMENT
_index$ = 8						; size = 4
_data$ = 12						; size = 4
?Data@?$SimpleDataList@PAUDESCRIBED_UNIT@@@@QBE_NHAAPAUDESCRIBED_UNIT@@@Z PROC NEAR ; SimpleDataList<DESCRIBED_UNIT *>::Data, COMDAT
; _this$ = ecx

; 89   : 	if (index < 0 || index >= m_size)

  00000	8b 44 24 04	 mov	 eax, DWORD PTR _index$[esp-4]
  00004	85 c0		 test	 eax, eax
  00006	7c 16		 jl	 SHORT $L89827
  00008	3b 41 08	 cmp	 eax, DWORD PTR [ecx+8]
  0000b	7d 11		 jge	 SHORT $L89827

; 91   : 
; 92   : 	data = m_p_buf[index];

  0000d	8b 49 04	 mov	 ecx, DWORD PTR [ecx+4]
  00010	8b 14 81	 mov	 edx, DWORD PTR [ecx+eax*4]
  00013	8b 44 24 08	 mov	 eax, DWORD PTR _data$[esp-4]
  00017	89 10		 mov	 DWORD PTR [eax], edx

; 93   : 
; 94   : 	return true;

  00019	b0 01		 mov	 al, 1

; 95   : }

  0001b	c2 08 00	 ret	 8
$L89827:

; 90   : 		return false;

  0001e	32 c0		 xor	 al, al

; 95   : }

  00020	c2 08 00	 ret	 8
?Data@?$SimpleDataList@PAUDESCRIBED_UNIT@@@@QBE_NHAAPAUDESCRIBED_UNIT@@@Z ENDP ; SimpleDataList<DESCRIBED_UNIT *>::Data
_TEXT	ENDS
PUBLIC	??$?0U?$pair@$$CBHUDESC@DescriptorManager@@@_STL@@@?$allocator@U?$_Rb_tree_node@U?$pair@$$CBHUDESC@DescriptorManager@@@_STL@@@_STL@@@_STL@@QAE@ABV?$allocator@U?$pair@$$CBHUDESC@DescriptorManager@@@_STL@@@1@@Z ; _STL::allocator<_STL::_Rb_tree_node<_STL::pair<int const ,DescriptorManager::DESC> > >::allocator<_STL::_Rb_tree_node<_STL::pair<int const ,DescriptorManager::DESC> > ><_STL::pair<int const ,DescriptorManager::DESC> >
; Function compile flags: /Ogty
; File c:\stlport-4.6.1\stlport\stl\_alloc.h
;	COMDAT ??$?0U?$pair@$$CBHUDESC@DescriptorManager@@@_STL@@@?$allocator@U?$_Rb_tree_node@U?$pair@$$CBHUDESC@DescriptorManager@@@_STL@@@_STL@@@_STL@@QAE@ABV?$allocator@U?$pair@$$CBHUDESC@DescriptorManager@@@_STL@@@1@@Z
_TEXT	SEGMENT
___formal$ = 8						; size = 4
??$?0U?$pair@$$CBHUDESC@DescriptorManager@@@_STL@@@?$allocator@U?$_Rb_tree_node@U?$pair@$$CBHUDESC@DescriptorManager@@@_STL@@@_STL@@@_STL@@QAE@ABV?$allocator@U?$pair@$$CBHUDESC@DescriptorManager@@@_STL@@@1@@Z PROC NEAR ; _STL::allocator<_STL::_Rb_tree_node<_STL::pair<int const ,DescriptorManager::DESC> > >::allocator<_STL::_Rb_tree_node<_STL::pair<int const ,DescriptorManager::DESC> > ><_STL::pair<int const ,DescriptorManager::DESC> >, COMDAT
; _this$ = ecx

; 347  :   template <class _Tp1> allocator(const allocator<_Tp1>&) _STLP_NOTHROW {}

  00000	8b c1		 mov	 eax, ecx
  00002	c2 04 00	 ret	 4
??$?0U?$pair@$$CBHUDESC@DescriptorManager@@@_STL@@@?$allocator@U?$_Rb_tree_node@U?$pair@$$CBHUDESC@DescriptorManager@@@_STL@@@_STL@@@_STL@@QAE@ABV?$allocator@U?$pair@$$CBHUDESC@DescriptorManager@@@_STL@@@1@@Z ENDP ; _STL::allocator<_STL::_Rb_tree_node<_STL::pair<int const ,DescriptorManager::DESC> > >::allocator<_STL::_Rb_tree_node<_STL::pair<int const ,DescriptorManager::DESC> > ><_STL::pair<int const ,DescriptorManager::DESC> >
; Function compile flags: /Ogty
_TEXT	ENDS
;	COMDAT ??_G?$SimpleDataList@PAUDESCRIBED_UNIT@@@@UAEPAXI@Z
_TEXT	SEGMENT
___flags$ = 8						; size = 4
??_G?$SimpleDataList@PAUDESCRIBED_UNIT@@@@UAEPAXI@Z PROC NEAR ; SimpleDataList<DESCRIBED_UNIT *>::`scalar deleting destructor', COMDAT
; _this$ = ecx
  00000	56		 push	 esi
  00001	8b f1		 mov	 esi, ecx
  00003	8b 46 04	 mov	 eax, DWORD PTR [esi+4]
  00006	85 c0		 test	 eax, eax
  00008	c7 06 00 00 00
	00		 mov	 DWORD PTR [esi], OFFSET FLAT:??_7?$SimpleDataList@PAUDESCRIBED_UNIT@@@@6B@
  0000e	74 10		 je	 SHORT $L90895
  00010	50		 push	 eax
  00011	e8 00 00 00 00	 call	 ??_V@YAXPAX@Z		; operator delete[]
  00016	83 c4 04	 add	 esp, 4
  00019	c7 46 04 00 00
	00 00		 mov	 DWORD PTR [esi+4], 0
$L90895:
  00020	f6 44 24 08 01	 test	 BYTE PTR ___flags$[esp], 1
  00025	74 09		 je	 SHORT $L90898
  00027	56		 push	 esi
  00028	e8 00 00 00 00	 call	 ??3@YAXPAX@Z		; operator delete
  0002d	83 c4 04	 add	 esp, 4
$L90898:
  00030	8b c6		 mov	 eax, esi
  00032	5e		 pop	 esi
  00033	c2 04 00	 ret	 4
??_G?$SimpleDataList@PAUDESCRIBED_UNIT@@@@UAEPAXI@Z ENDP ; SimpleDataList<DESCRIBED_UNIT *>::`scalar deleting destructor'
_TEXT	ENDS
PUBLIC	??_G?$pair@$$CBHUDESC@DescriptorManager@@@_STL@@QAEPAXI@Z ; _STL::pair<int const ,DescriptorManager::DESC>::`scalar deleting destructor'
; Function compile flags: /Ogty
;	COMDAT ??_G?$pair@$$CBHUDESC@DescriptorManager@@@_STL@@QAEPAXI@Z
_TEXT	SEGMENT
___flags$ = 8						; size = 4
??_G?$pair@$$CBHUDESC@DescriptorManager@@@_STL@@QAEPAXI@Z PROC NEAR ; _STL::pair<int const ,DescriptorManager::DESC>::`scalar deleting destructor', COMDAT
; _this$ = ecx
  00000	56		 push	 esi
  00001	8b f1		 mov	 esi, ecx
  00003	e8 00 00 00 00	 call	 ??1?$pair@$$CBHUDESC@DescriptorManager@@@_STL@@QAE@XZ
  00008	f6 44 24 08 01	 test	 BYTE PTR ___flags$[esp], 1
  0000d	74 09		 je	 SHORT $L90902
  0000f	56		 push	 esi
  00010	e8 00 00 00 00	 call	 ??3@YAXPAX@Z		; operator delete
  00015	83 c4 04	 add	 esp, 4
$L90902:
  00018	8b c6		 mov	 eax, esi
  0001a	5e		 pop	 esi
  0001b	c2 04 00	 ret	 4
??_G?$pair@$$CBHUDESC@DescriptorManager@@@_STL@@QAEPAXI@Z ENDP ; _STL::pair<int const ,DescriptorManager::DESC>::`scalar deleting destructor'
_TEXT	ENDS
PUBLIC	?_S_left@?$_Rb_tree@HU?$pair@$$CBHUDESC@DescriptorManager@@@_STL@@U?$_Select1st@U?$pair@$$CBHUDESC@DescriptorManager@@@_STL@@@2@U?$less@H@2@V?$allocator@U?$pair@$$CBHUDESC@DescriptorManager@@@_STL@@@2@@_STL@@KAAAPAU?$_Rb_tree_node@U?$pair@$$CBHUDESC@DescriptorManager@@@_STL@@@2@PAU32@@Z ; _STL::_Rb_tree<int,_STL::pair<int const ,DescriptorManager::DESC>,_STL::_Select1st<_STL::pair<int const ,DescriptorManager::DESC> >,_STL::less<int>,_STL::allocator<_STL::pair<int const ,DescriptorManager::DESC> > >::_S_left
; Function compile flags: /Ogty
; File c:\stlport-4.6.1\stlport\stl\_tree.h
;	COMDAT ?_S_left@?$_Rb_tree@HU?$pair@$$CBHUDESC@DescriptorManager@@@_STL@@U?$_Select1st@U?$pair@$$CBHUDESC@DescriptorManager@@@_STL@@@2@U?$less@H@2@V?$allocator@U?$pair@$$CBHUDESC@DescriptorManager@@@_STL@@@2@@_STL@@KAAAPAU?$_Rb_tree_node@U?$pair@$$CBHUDESC@DescriptorManager@@@_STL@@@2@PAU32@@Z
_TEXT	SEGMENT
___x$ = 8						; size = 4
?_S_left@?$_Rb_tree@HU?$pair@$$CBHUDESC@DescriptorManager@@@_STL@@U?$_Select1st@U?$pair@$$CBHUDESC@DescriptorManager@@@_STL@@@2@U?$less@H@2@V?$allocator@U?$pair@$$CBHUDESC@DescriptorManager@@@_STL@@@2@@_STL@@KAAAPAU?$_Rb_tree_node@U?$pair@$$CBHUDESC@DescriptorManager@@@_STL@@@2@PAU32@@Z PROC NEAR ; _STL::_Rb_tree<int,_STL::pair<int const ,DescriptorManager::DESC>,_STL::_Select1st<_STL::pair<int const ,DescriptorManager::DESC> >,_STL::less<int>,_STL::allocator<_STL::pair<int const ,DescriptorManager::DESC> > >::_S_left, COMDAT

; 272  :     { return (_Link_type&)(__x->_M_left); }

  00000	8b 44 24 04	 mov	 eax, DWORD PTR ___x$[esp-4]
  00004	83 c0 08	 add	 eax, 8
  00007	c3		 ret	 0
?_S_left@?$_Rb_tree@HU?$pair@$$CBHUDESC@DescriptorManager@@@_STL@@U?$_Select1st@U?$pair@$$CBHUDESC@DescriptorManager@@@_STL@@@2@U?$less@H@2@V?$allocator@U?$pair@$$CBHUDESC@DescriptorManager@@@_STL@@@2@@_STL@@KAAAPAU?$_Rb_tree_node@U?$pair@$$CBHUDESC@DescriptorManager@@@_STL@@@2@PAU32@@Z ENDP ; _STL::_Rb_tree<int,_STL::pair<int const ,DescriptorManager::DESC>,_STL::_Select1st<_STL::pair<int const ,DescriptorManager::DESC> >,_STL::less<int>,_STL::allocator<_STL::pair<int const ,DescriptorManager::DESC> > >::_S_left
_TEXT	ENDS
PUBLIC	?_S_right@?$_Rb_tree@HU?$pair@$$CBHUDESC@DescriptorManager@@@_STL@@U?$_Select1st@U?$pair@$$CBHUDESC@DescriptorManager@@@_STL@@@2@U?$less@H@2@V?$allocator@U?$pair@$$CBHUDESC@DescriptorManager@@@_STL@@@2@@_STL@@KAAAPAU?$_Rb_tree_node@U?$pair@$$CBHUDESC@DescriptorManager@@@_STL@@@2@PAU32@@Z ; _STL::_Rb_tree<int,_STL::pair<int const ,DescriptorManager::DESC>,_STL::_Select1st<_STL::pair<int const ,DescriptorManager::DESC> >,_STL::less<int>,_STL::allocator<_STL::pair<int const ,DescriptorManager::DESC> > >::_S_right
; Function compile flags: /Ogty
;	COMDAT ?_S_right@?$_Rb_tree@HU?$pair@$$CBHUDESC@DescriptorManager@@@_STL@@U?$_Select1st@U?$pair@$$CBHUDESC@DescriptorManager@@@_STL@@@2@U?$less@H@2@V?$allocator@U?$pair@$$CBHUDESC@DescriptorManager@@@_STL@@@2@@_STL@@KAAAPAU?$_Rb_tree_node@U?$pair@$$CBHUDESC@DescriptorManager@@@_STL@@@2@PAU32@@Z
_TEXT	SEGMENT
___x$ = 8						; size = 4
?_S_right@?$_Rb_tree@HU?$pair@$$CBHUDESC@DescriptorManager@@@_STL@@U?$_Select1st@U?$pair@$$CBHUDESC@DescriptorManager@@@_STL@@@2@U?$less@H@2@V?$allocator@U?$pair@$$CBHUDESC@DescriptorManager@@@_STL@@@2@@_STL@@KAAAPAU?$_Rb_tree_node@U?$pair@$$CBHUDESC@DescriptorManager@@@_STL@@@2@PAU32@@Z PROC NEAR ; _STL::_Rb_tree<int,_STL::pair<int const ,DescriptorManager::DESC>,_STL::_Select1st<_STL::pair<int const ,DescriptorManager::DESC> >,_STL::less<int>,_STL::allocator<_STL::pair<int const ,DescriptorManager::DESC> > >::_S_right, COMDAT

; 274  :     { return (_Link_type&)(__x->_M_right); }

  00000	8b 44 24 04	 mov	 eax, DWORD PTR ___x$[esp-4]
  00004	83 c0 0c	 add	 eax, 12			; 0000000cH
  00007	c3		 ret	 0
?_S_right@?$_Rb_tree@HU?$pair@$$CBHUDESC@DescriptorManager@@@_STL@@U?$_Select1st@U?$pair@$$CBHUDESC@DescriptorManager@@@_STL@@@2@U?$less@H@2@V?$allocator@U?$pair@$$CBHUDESC@DescriptorManager@@@_STL@@@2@@_STL@@KAAAPAU?$_Rb_tree_node@U?$pair@$$CBHUDESC@DescriptorManager@@@_STL@@@2@PAU32@@Z ENDP ; _STL::_Rb_tree<int,_STL::pair<int const ,DescriptorManager::DESC>,_STL::_Select1st<_STL::pair<int const ,DescriptorManager::DESC> >,_STL::less<int>,_STL::allocator<_STL::pair<int const ,DescriptorManager::DESC> > >::_S_right
_TEXT	ENDS
PUBLIC	??R?$less@H@_STL@@QBE_NABH0@Z			; _STL::less<int>::operator()
; Function compile flags: /Ogty
; File c:\stlport-4.6.1\stlport\stl\_function_base.h
;	COMDAT ??R?$less@H@_STL@@QBE_NABH0@Z
_TEXT	SEGMENT
___x$ = 8						; size = 4
___y$ = 12						; size = 4
??R?$less@H@_STL@@QBE_NABH0@Z PROC NEAR			; _STL::less<int>::operator(), COMDAT
; _this$ = ecx

; 73   :   bool operator()(const _Tp& __x, const _Tp& __y) const { return __x < __y; }

  00000	8b 44 24 04	 mov	 eax, DWORD PTR ___x$[esp-4]
  00004	8b 08		 mov	 ecx, DWORD PTR [eax]
  00006	8b 54 24 08	 mov	 edx, DWORD PTR ___y$[esp-4]
  0000a	56		 push	 esi
  0000b	8b 32		 mov	 esi, DWORD PTR [edx]
  0000d	33 c0		 xor	 eax, eax
  0000f	3b ce		 cmp	 ecx, esi
  00011	0f 9c c0	 setl	 al
  00014	5e		 pop	 esi
  00015	c2 08 00	 ret	 8
??R?$less@H@_STL@@QBE_NABH0@Z ENDP			; _STL::less<int>::operator()
_TEXT	ENDS
PUBLIC	??R?$_Select1st@U?$pair@$$CBHUDESC@DescriptorManager@@@_STL@@@_STL@@QBEABHABU?$pair@$$CBHUDESC@DescriptorManager@@@1@@Z ; _STL::_Select1st<_STL::pair<int const ,DescriptorManager::DESC> >::operator()
; Function compile flags: /Ogty
;	COMDAT ??R?$_Select1st@U?$pair@$$CBHUDESC@DescriptorManager@@@_STL@@@_STL@@QBEABHABU?$pair@$$CBHUDESC@DescriptorManager@@@1@@Z
_TEXT	SEGMENT
___x$ = 8						; size = 4
??R?$_Select1st@U?$pair@$$CBHUDESC@DescriptorManager@@@_STL@@@_STL@@QBEABHABU?$pair@$$CBHUDESC@DescriptorManager@@@1@@Z PROC NEAR ; _STL::_Select1st<_STL::pair<int const ,DescriptorManager::DESC> >::operator(), COMDAT
; _this$ = ecx

; 153  :     return __x.first;

  00000	8b 44 24 04	 mov	 eax, DWORD PTR ___x$[esp-4]

; 154  :   }

  00004	c2 04 00	 ret	 4
??R?$_Select1st@U?$pair@$$CBHUDESC@DescriptorManager@@@_STL@@@_STL@@QBEABHABU?$pair@$$CBHUDESC@DescriptorManager@@@1@@Z ENDP ; _STL::_Select1st<_STL::pair<int const ,DescriptorManager::DESC> >::operator()
_TEXT	ENDS
PUBLIC	?deallocate@?$__node_alloc@$00$0A@@_STL@@SAXPAXI@Z ; _STL::__node_alloc<1,0>::deallocate
EXTRN	?_M_deallocate@?$__node_alloc@$00$0A@@_STL@@CAXPAXI@Z:NEAR ; _STL::__node_alloc<1,0>::_M_deallocate
; Function compile flags: /Ogty
; File c:\stlport-4.6.1\stlport\stl\_alloc.h
;	COMDAT ?deallocate@?$__node_alloc@$00$0A@@_STL@@SAXPAXI@Z
_TEXT	SEGMENT
___p$ = 8						; size = 4
___n$ = 12						; size = 4
?deallocate@?$__node_alloc@$00$0A@@_STL@@SAXPAXI@Z PROC NEAR ; _STL::__node_alloc<1,0>::deallocate, COMDAT

; 253  :   static void _STLP_CALL deallocate(void *__p, size_t __n) { if (__n > (size_t)_MAX_BYTES) __stl_delete(__p); else _M_deallocate(__p, __n); }

  00000	8b 44 24 08	 mov	 eax, DWORD PTR ___n$[esp-4]
  00004	3d 80 00 00 00	 cmp	 eax, 128		; 00000080H
  00009	76 0e		 jbe	 SHORT $L73486
  0000b	8b 44 24 04	 mov	 eax, DWORD PTR ___p$[esp-4]
  0000f	50		 push	 eax
  00010	e8 00 00 00 00	 call	 ??3@YAXPAX@Z		; operator delete
  00015	83 c4 04	 add	 esp, 4
  00018	c3		 ret	 0
$L73486:
  00019	89 44 24 08	 mov	 DWORD PTR ___n$[esp-4], eax
  0001d	e9 00 00 00 00	 jmp	 ?_M_deallocate@?$__node_alloc@$00$0A@@_STL@@CAXPAXI@Z ; _STL::__node_alloc<1,0>::_M_deallocate
?deallocate@?$__node_alloc@$00$0A@@_STL@@SAXPAXI@Z ENDP	; _STL::__node_alloc<1,0>::deallocate
_TEXT	ENDS
PUBLIC	?_S_value@?$_Rb_tree@HU?$pair@$$CBHUDESC@DescriptorManager@@@_STL@@U?$_Select1st@U?$pair@$$CBHUDESC@DescriptorManager@@@_STL@@@2@U?$less@H@2@V?$allocator@U?$pair@$$CBHUDESC@DescriptorManager@@@_STL@@@2@@_STL@@KAAAU?$pair@$$CBHUDESC@DescriptorManager@@@2@PAU?$_Rb_tree_node@U?$pair@$$CBHUDESC@DescriptorManager@@@_STL@@@2@@Z ; _STL::_Rb_tree<int,_STL::pair<int const ,DescriptorManager::DESC>,_STL::_Select1st<_STL::pair<int const ,DescriptorManager::DESC> >,_STL::less<int>,_STL::allocator<_STL::pair<int const ,DescriptorManager::DESC> > >::_S_value
; Function compile flags: /Ogty
; File c:\stlport-4.6.1\stlport\stl\_tree.h
;	COMDAT ?_S_value@?$_Rb_tree@HU?$pair@$$CBHUDESC@DescriptorManager@@@_STL@@U?$_Select1st@U?$pair@$$CBHUDESC@DescriptorManager@@@_STL@@@2@U?$less@H@2@V?$allocator@U?$pair@$$CBHUDESC@DescriptorManager@@@_STL@@@2@@_STL@@KAAAU?$pair@$$CBHUDESC@DescriptorManager@@@2@PAU?$_Rb_tree_node@U?$pair@$$CBHUDESC@DescriptorManager@@@_STL@@@2@@Z
_TEXT	SEGMENT
___x$ = 8						; size = 4
?_S_value@?$_Rb_tree@HU?$pair@$$CBHUDESC@DescriptorManager@@@_STL@@U?$_Select1st@U?$pair@$$CBHUDESC@DescriptorManager@@@_STL@@@2@U?$less@H@2@V?$allocator@U?$pair@$$CBHUDESC@DescriptorManager@@@_STL@@@2@@_STL@@KAAAU?$pair@$$CBHUDESC@DescriptorManager@@@2@PAU?$_Rb_tree_node@U?$pair@$$CBHUDESC@DescriptorManager@@@_STL@@@2@@Z PROC NEAR ; _STL::_Rb_tree<int,_STL::pair<int const ,DescriptorManager::DESC>,_STL::_Select1st<_STL::pair<int const ,DescriptorManager::DESC> >,_STL::less<int>,_STL::allocator<_STL::pair<int const ,DescriptorManager::DESC> > >::_S_value, COMDAT

; 278  :     { return __x->_M_value_field; }

  00000	8b 44 24 04	 mov	 eax, DWORD PTR ___x$[esp-4]
  00004	83 c0 10	 add	 eax, 16			; 00000010H
  00007	c3		 ret	 0
?_S_value@?$_Rb_tree@HU?$pair@$$CBHUDESC@DescriptorManager@@@_STL@@U?$_Select1st@U?$pair@$$CBHUDESC@DescriptorManager@@@_STL@@@2@U?$less@H@2@V?$allocator@U?$pair@$$CBHUDESC@DescriptorManager@@@_STL@@@2@@_STL@@KAAAU?$pair@$$CBHUDESC@DescriptorManager@@@2@PAU?$_Rb_tree_node@U?$pair@$$CBHUDESC@DescriptorManager@@@_STL@@@2@@Z ENDP ; _STL::_Rb_tree<int,_STL::pair<int const ,DescriptorManager::DESC>,_STL::_Select1st<_STL::pair<int const ,DescriptorManager::DESC> >,_STL::less<int>,_STL::allocator<_STL::pair<int const ,DescriptorManager::DESC> > >::_S_value
_TEXT	ENDS
PUBLIC	?Find@?$SimpleDataList@PAUDESCRIBED_UNIT@@@@QBE_NPAUDESCRIBED_UNIT@@@Z ; SimpleDataList<DESCRIBED_UNIT *>::Find
; Function compile flags: /Ogty
; File c:\darkeden\designed_common\project\new - vs_ui\src\widget\simpledatalist.h
;	COMDAT ?Find@?$SimpleDataList@PAUDESCRIBED_UNIT@@@@QBE_NPAUDESCRIBED_UNIT@@@Z
_TEXT	SEGMENT
_data$ = 8						; size = 4
?Find@?$SimpleDataList@PAUDESCRIBED_UNIT@@@@QBE_NPAUDESCRIBED_UNIT@@@Z PROC NEAR ; SimpleDataList<DESCRIBED_UNIT *>::Find, COMDAT
; _this$ = ecx

; 77   : 
; 78   : 	return false;

  00000	8b 51 08	 mov	 edx, DWORD PTR [ecx+8]
  00003	56		 push	 esi
  00004	33 c0		 xor	 eax, eax
  00006	85 d2		 test	 edx, edx
  00008	7e 13		 jle	 SHORT $L90031
  0000a	8b 49 04	 mov	 ecx, DWORD PTR [ecx+4]
  0000d	8b 74 24 08	 mov	 esi, DWORD PTR _data$[esp]
$L90029:
  00011	39 31		 cmp	 DWORD PTR [ecx], esi
  00013	74 0e		 je	 SHORT $L90928
  00015	40		 inc	 eax
  00016	83 c1 04	 add	 ecx, 4
  00019	3b c2		 cmp	 eax, edx
  0001b	7c f4		 jl	 SHORT $L90029
$L90031:
  0001d	32 c0		 xor	 al, al
  0001f	5e		 pop	 esi

; 79   : }

  00020	c2 04 00	 ret	 4
$L90928:

; 74   : 	for (int i=0; i < m_size; i++)
; 75   : 		if (m_p_buf[i] == data)
; 76   : 			return true;

  00023	b0 01		 mov	 al, 1
  00025	5e		 pop	 esi

; 79   : }

  00026	c2 04 00	 ret	 4
?Find@?$SimpleDataList@PAUDESCRIBED_UNIT@@@@QBE_NPAUDESCRIBED_UNIT@@@Z ENDP ; SimpleDataList<DESCRIBED_UNIT *>::Find
_TEXT	ENDS
PUBLIC	?_S_parent@?$_Rb_tree@HU?$pair@$$CBHUDESC@DescriptorManager@@@_STL@@U?$_Select1st@U?$pair@$$CBHUDESC@DescriptorManager@@@_STL@@@2@U?$less@H@2@V?$allocator@U?$pair@$$CBHUDESC@DescriptorManager@@@_STL@@@2@@_STL@@KAAAPAU?$_Rb_tree_node@U?$pair@$$CBHUDESC@DescriptorManager@@@_STL@@@2@PAU32@@Z ; _STL::_Rb_tree<int,_STL::pair<int const ,DescriptorManager::DESC>,_STL::_Select1st<_STL::pair<int const ,DescriptorManager::DESC> >,_STL::less<int>,_STL::allocator<_STL::pair<int const ,DescriptorManager::DESC> > >::_S_parent
; Function compile flags: /Ogty
; File c:\stlport-4.6.1\stlport\stl\_tree.h
;	COMDAT ?_S_parent@?$_Rb_tree@HU?$pair@$$CBHUDESC@DescriptorManager@@@_STL@@U?$_Select1st@U?$pair@$$CBHUDESC@DescriptorManager@@@_STL@@@2@U?$less@H@2@V?$allocator@U?$pair@$$CBHUDESC@DescriptorManager@@@_STL@@@2@@_STL@@KAAAPAU?$_Rb_tree_node@U?$pair@$$CBHUDESC@DescriptorManager@@@_STL@@@2@PAU32@@Z
_TEXT	SEGMENT
___x$ = 8						; size = 4
?_S_parent@?$_Rb_tree@HU?$pair@$$CBHUDESC@DescriptorManager@@@_STL@@U?$_Select1st@U?$pair@$$CBHUDESC@DescriptorManager@@@_STL@@@2@U?$less@H@2@V?$allocator@U?$pair@$$CBHUDESC@DescriptorManager@@@_STL@@@2@@_STL@@KAAAPAU?$_Rb_tree_node@U?$pair@$$CBHUDESC@DescriptorManager@@@_STL@@@2@PAU32@@Z PROC NEAR ; _STL::_Rb_tree<int,_STL::pair<int const ,DescriptorManager::DESC>,_STL::_Select1st<_STL::pair<int const ,DescriptorManager::DESC> >,_STL::less<int>,_STL::allocator<_STL::pair<int const ,DescriptorManager::DESC> > >::_S_parent, COMDAT

; 276  :     { return (_Link_type&)(__x->_M_parent); }

  00000	8b 44 24 04	 mov	 eax, DWORD PTR ___x$[esp-4]
  00004	83 c0 04	 add	 eax, 4
  00007	c3		 ret	 0
?_S_parent@?$_Rb_tree@HU?$pair@$$CBHUDESC@DescriptorManager@@@_STL@@U?$_Select1st@U?$pair@$$CBHUDESC@DescriptorManager@@@_STL@@@2@U?$less@H@2@V?$allocator@U?$pair@$$CBHUDESC@DescriptorManager@@@_STL@@@2@@_STL@@KAAAPAU?$_Rb_tree_node@U?$pair@$$CBHUDESC@DescriptorManager@@@_STL@@@2@PAU32@@Z ENDP ; _STL::_Rb_tree<int,_STL::pair<int const ,DescriptorManager::DESC>,_STL::_Select1st<_STL::pair<int const ,DescriptorManager::DESC> >,_STL::less<int>,_STL::allocator<_STL::pair<int const ,DescriptorManager::DESC> > >::_S_parent
_TEXT	ENDS
PUBLIC	??0?$pair@$$CBHUDESC@DescriptorManager@@@_STL@@QAE@ABU01@@Z ; _STL::pair<int const ,DescriptorManager::DESC>::pair<int const ,DescriptorManager::DESC>
; Function compile flags: /Ogty
; File c:\stlport-4.6.1\stlport\stl\_pair.h
;	COMDAT ??0?$pair@$$CBHUDESC@DescriptorManager@@@_STL@@QAE@ABU01@@Z
_TEXT	SEGMENT
___o$ = 8						; size = 4
??0?$pair@$$CBHUDESC@DescriptorManager@@@_STL@@QAE@ABU01@@Z PROC NEAR ; _STL::pair<int const ,DescriptorManager::DESC>::pair<int const ,DescriptorManager::DESC>, COMDAT
; _this$ = ecx

; 54   :   pair(const pair<_T1,_T2>& __o) : first(__o.first), second(__o.second) {}

  00000	8b c1		 mov	 eax, ecx
  00002	8b 4c 24 04	 mov	 ecx, DWORD PTR ___o$[esp-4]
  00006	8b 11		 mov	 edx, DWORD PTR [ecx]
  00008	56		 push	 esi
  00009	57		 push	 edi
  0000a	8d 71 04	 lea	 esi, DWORD PTR [ecx+4]
  0000d	8d 78 04	 lea	 edi, DWORD PTR [eax+4]
  00010	b9 08 00 00 00	 mov	 ecx, 8
  00015	89 10		 mov	 DWORD PTR [eax], edx
  00017	f3 a5		 rep movsd
  00019	5f		 pop	 edi
  0001a	5e		 pop	 esi
  0001b	c2 04 00	 ret	 4
??0?$pair@$$CBHUDESC@DescriptorManager@@@_STL@@QAE@ABU01@@Z ENDP ; _STL::pair<int const ,DescriptorManager::DESC>::pair<int const ,DescriptorManager::DESC>
_TEXT	ENDS
PUBLIC	??0DESC@DescriptorManager@@QAE@XZ		; DescriptorManager::DESC::DESC
; Function compile flags: /Ogty
; File c:\darkeden\designed_common\project\new - vs_ui\src\header\vs_ui_descriptor.h
;	COMDAT ??0DESC@DescriptorManager@@QAE@XZ
_TEXT	SEGMENT
??0DESC@DescriptorManager@@QAE@XZ PROC NEAR		; DescriptorManager::DESC::DESC, COMDAT
; _this$ = ecx

; 72   : 		DESC()

  00000	56		 push	 esi
  00001	8b f1		 mov	 esi, ecx
  00003	8d 4e 04	 lea	 ecx, DWORD PTR [esi+4]
  00006	e8 00 00 00 00	 call	 ??0FP_SHOW_PARAM@DescriptorManager@@QAE@XZ ; DescriptorManager::FP_SHOW_PARAM::FP_SHOW_PARAM

; 73   : 		{
; 74   : 			m_fp_show = NULL;

  0000b	c7 06 00 00 00
	00		 mov	 DWORD PTR [esi], 0

; 75   : 		}

  00011	8b c6		 mov	 eax, esi
  00013	5e		 pop	 esi
  00014	c3		 ret	 0
??0DESC@DescriptorManager@@QAE@XZ ENDP			; DescriptorManager::DESC::DESC
_TEXT	ENDS
PUBLIC	?empty@?$multimap@HUDESC@DescriptorManager@@U?$less@H@_STL@@V?$allocator@U?$pair@$$CBHUDESC@DescriptorManager@@@_STL@@@4@@_STL@@QBE_NXZ ; _STL::multimap<int,DescriptorManager::DESC,_STL::less<int>,_STL::allocator<_STL::pair<int const ,DescriptorManager::DESC> > >::empty
; Function compile flags: /Ogty
; File c:\stlport-4.6.1\stlport\stl\_map.h
;	COMDAT ?empty@?$multimap@HUDESC@DescriptorManager@@U?$less@H@_STL@@V?$allocator@U?$pair@$$CBHUDESC@DescriptorManager@@@_STL@@@4@@_STL@@QBE_NXZ
_TEXT	SEGMENT
?empty@?$multimap@HUDESC@DescriptorManager@@U?$less@H@_STL@@V?$allocator@U?$pair@$$CBHUDESC@DescriptorManager@@@_STL@@@4@@_STL@@QBE_NXZ PROC NEAR ; _STL::multimap<int,DescriptorManager::DESC,_STL::less<int>,_STL::allocator<_STL::pair<int const ,DescriptorManager::DESC> > >::empty, COMDAT
; _this$ = ecx

; 326  :   bool empty() const { return _M_t.empty(); }

  00000	8b 51 04	 mov	 edx, DWORD PTR [ecx+4]
  00003	33 c0		 xor	 eax, eax
  00005	85 d2		 test	 edx, edx
  00007	0f 94 c0	 sete	 al
  0000a	c3		 ret	 0
?empty@?$multimap@HUDESC@DescriptorManager@@U?$less@H@_STL@@V?$allocator@U?$pair@$$CBHUDESC@DescriptorManager@@@_STL@@@4@@_STL@@QBE_NXZ ENDP ; _STL::multimap<int,DescriptorManager::DESC,_STL::less<int>,_STL::allocator<_STL::pair<int const ,DescriptorManager::DESC> > >::empty
_TEXT	ENDS
PUBLIC	??C?$_Rb_tree_iterator@U?$pair@$$CBHUDESC@DescriptorManager@@@_STL@@U?$_Const_traits@U?$pair@$$CBHUDESC@DescriptorManager@@@_STL@@@2@@_STL@@QBEPBU?$pair@$$CBHUDESC@DescriptorManager@@@1@XZ ; _STL::_Rb_tree_iterator<_STL::pair<int const ,DescriptorManager::DESC>,_STL::_Const_traits<_STL::pair<int const ,DescriptorManager::DESC> > >::operator->
; Function compile flags: /Ogty
; File c:\stlport-4.6.1\stlport\stl\_tree.h
;	COMDAT ??C?$_Rb_tree_iterator@U?$pair@$$CBHUDESC@DescriptorManager@@@_STL@@U?$_Const_traits@U?$pair@$$CBHUDESC@DescriptorManager@@@_STL@@@2@@_STL@@QBEPBU?$pair@$$CBHUDESC@DescriptorManager@@@1@XZ
_TEXT	SEGMENT
??C?$_Rb_tree_iterator@U?$pair@$$CBHUDESC@DescriptorManager@@@_STL@@U?$_Const_traits@U?$pair@$$CBHUDESC@DescriptorManager@@@_STL@@@2@@_STL@@QBEPBU?$pair@$$CBHUDESC@DescriptorManager@@@1@XZ PROC NEAR ; _STL::_Rb_tree_iterator<_STL::pair<int const ,DescriptorManager::DESC>,_STL::_Const_traits<_STL::pair<int const ,DescriptorManager::DESC> > >::operator->, COMDAT
; _this$ = ecx

; 172  :   _STLP_DEFINE_ARROW_OPERATOR

  00000	8b 01		 mov	 eax, DWORD PTR [ecx]
  00002	83 c0 10	 add	 eax, 16			; 00000010H
  00005	c3		 ret	 0
??C?$_Rb_tree_iterator@U?$pair@$$CBHUDESC@DescriptorManager@@@_STL@@U?$_Const_traits@U?$pair@$$CBHUDESC@DescriptorManager@@@_STL@@@2@@_STL@@QBEPBU?$pair@$$CBHUDESC@DescriptorManager@@@1@XZ ENDP ; _STL::_Rb_tree_iterator<_STL::pair<int const ,DescriptorManager::DESC>,_STL::_Const_traits<_STL::pair<int const ,DescriptorManager::DESC> > >::operator->
_TEXT	ENDS
PUBLIC	??C?$_Rb_tree_iterator@U?$pair@$$CBHUDESC@DescriptorManager@@@_STL@@U?$_Nonconst_traits@U?$pair@$$CBHUDESC@DescriptorManager@@@_STL@@@2@@_STL@@QBEPAU?$pair@$$CBHUDESC@DescriptorManager@@@1@XZ ; _STL::_Rb_tree_iterator<_STL::pair<int const ,DescriptorManager::DESC>,_STL::_Nonconst_traits<_STL::pair<int const ,DescriptorManager::DESC> > >::operator->
; Function compile flags: /Ogty
;	COMDAT ??C?$_Rb_tree_iterator@U?$pair@$$CBHUDESC@DescriptorManager@@@_STL@@U?$_Nonconst_traits@U?$pair@$$CBHUDESC@DescriptorManager@@@_STL@@@2@@_STL@@QBEPAU?$pair@$$CBHUDESC@DescriptorManager@@@1@XZ
_TEXT	SEGMENT
??C?$_Rb_tree_iterator@U?$pair@$$CBHUDESC@DescriptorManager@@@_STL@@U?$_Nonconst_traits@U?$pair@$$CBHUDESC@DescriptorManager@@@_STL@@@2@@_STL@@QBEPAU?$pair@$$CBHUDESC@DescriptorManager@@@1@XZ PROC NEAR ; _STL::_Rb_tree_iterator<_STL::pair<int const ,DescriptorManager::DESC>,_STL::_Nonconst_traits<_STL::pair<int const ,DescriptorManager::DESC> > >::operator->, COMDAT
; _this$ = ecx

; 172  :   _STLP_DEFINE_ARROW_OPERATOR

  00000	8b 01		 mov	 eax, DWORD PTR [ecx]
  00002	83 c0 10	 add	 eax, 16			; 00000010H
  00005	c3		 ret	 0
??C?$_Rb_tree_iterator@U?$pair@$$CBHUDESC@DescriptorManager@@@_STL@@U?$_Nonconst_traits@U?$pair@$$CBHUDESC@DescriptorManager@@@_STL@@@2@@_STL@@QBEPAU?$pair@$$CBHUDESC@DescriptorManager@@@1@XZ ENDP ; _STL::_Rb_tree_iterator<_STL::pair<int const ,DescriptorManager::DESC>,_STL::_Nonconst_traits<_STL::pair<int const ,DescriptorManager::DESC> > >::operator->
_TEXT	ENDS
PUBLIC	?begin@?$_Rb_tree@HU?$pair@$$CBHUDESC@DescriptorManager@@@_STL@@U?$_Select1st@U?$pair@$$CBHUDESC@DescriptorManager@@@_STL@@@2@U?$less@H@2@V?$allocator@U?$pair@$$CBHUDESC@DescriptorManager@@@_STL@@@2@@_STL@@QAE?AU?$_Rb_tree_iterator@U?$pair@$$CBHUDESC@DescriptorManager@@@_STL@@U?$_Nonconst_traits@U?$pair@$$CBHUDESC@DescriptorManager@@@_STL@@@2@@2@XZ ; _STL::_Rb_tree<int,_STL::pair<int const ,DescriptorManager::DESC>,_STL::_Select1st<_STL::pair<int const ,DescriptorManager::DESC> >,_STL::less<int>,_STL::allocator<_STL::pair<int const ,DescriptorManager::DESC> > >::begin
; Function compile flags: /Ogty
;	COMDAT ?begin@?$_Rb_tree@HU?$pair@$$CBHUDESC@DescriptorManager@@@_STL@@U?$_Select1st@U?$pair@$$CBHUDESC@DescriptorManager@@@_STL@@@2@U?$less@H@2@V?$allocator@U?$pair@$$CBHUDESC@DescriptorManager@@@_STL@@@2@@_STL@@QAE?AU?$_Rb_tree_iterator@U?$pair@$$CBHUDESC@DescriptorManager@@@_STL@@U?$_Nonconst_traits@U?$pair@$$CBHUDESC@DescriptorManager@@@_STL@@@2@@2@XZ
_TEXT	SEGMENT
___$ReturnUdt$ = 8					; size = 4
?begin@?$_Rb_tree@HU?$pair@$$CBHUDESC@DescriptorManager@@@_STL@@U?$_Select1st@U?$pair@$$CBHUDESC@DescriptorManager@@@_STL@@@2@U?$less@H@2@V?$allocator@U?$pair@$$CBHUDESC@DescriptorManager@@@_STL@@@2@@_STL@@QAE?AU?$_Rb_tree_iterator@U?$pair@$$CBHUDESC@DescriptorManager@@@_STL@@U?$_Nonconst_traits@U?$pair@$$CBHUDESC@DescriptorManager@@@_STL@@@2@@2@XZ PROC NEAR ; _STL::_Rb_tree<int,_STL::pair<int const ,DescriptorManager::DESC>,_STL::_Select1st<_STL::pair<int const ,DescriptorManager::DESC> >,_STL::less<int>,_STL::allocator<_STL::pair<int const ,DescriptorManager::DESC> > >::begin, COMDAT
; _this$ = ecx

; 357  :   iterator begin() { return iterator(_M_leftmost()); }

  00000	8b 01		 mov	 eax, DWORD PTR [ecx]
  00002	8b 48 08	 mov	 ecx, DWORD PTR [eax+8]
  00005	8b 44 24 04	 mov	 eax, DWORD PTR ___$ReturnUdt$[esp-4]
  00009	89 08		 mov	 DWORD PTR [eax], ecx
  0000b	c2 04 00	 ret	 4
?begin@?$_Rb_tree@HU?$pair@$$CBHUDESC@DescriptorManager@@@_STL@@U?$_Select1st@U?$pair@$$CBHUDESC@DescriptorManager@@@_STL@@@2@U?$less@H@2@V?$allocator@U?$pair@$$CBHUDESC@DescriptorManager@@@_STL@@@2@@_STL@@QAE?AU?$_Rb_tree_iterator@U?$pair@$$CBHUDESC@DescriptorManager@@@_STL@@U?$_Nonconst_traits@U?$pair@$$CBHUDESC@DescriptorManager@@@_STL@@@2@@2@XZ ENDP ; _STL::_Rb_tree<int,_STL::pair<int const ,DescriptorManager::DESC>,_STL::_Select1st<_STL::pair<int const ,DescriptorManager::DESC> >,_STL::less<int>,_STL::allocator<_STL::pair<int const ,DescriptorManager::DESC> > >::begin
_TEXT	ENDS
PUBLIC	?begin@?$_Rb_tree@HU?$pair@$$CBHUDESC@DescriptorManager@@@_STL@@U?$_Select1st@U?$pair@$$CBHUDESC@DescriptorManager@@@_STL@@@2@U?$less@H@2@V?$allocator@U?$pair@$$CBHUDESC@DescriptorManager@@@_STL@@@2@@_STL@@QBE?AU?$_Rb_tree_iterator@U?$pair@$$CBHUDESC@DescriptorManager@@@_STL@@U?$_Const_traits@U?$pair@$$CBHUDESC@DescriptorManager@@@_STL@@@2@@2@XZ ; _STL::_Rb_tree<int,_STL::pair<int const ,DescriptorManager::DESC>,_STL::_Select1st<_STL::pair<int const ,DescriptorManager::DESC> >,_STL::less<int>,_STL::allocator<_STL::pair<int const ,DescriptorManager::DESC> > >::begin
; Function compile flags: /Ogty
;	COMDAT ?begin@?$_Rb_tree@HU?$pair@$$CBHUDESC@DescriptorManager@@@_STL@@U?$_Select1st@U?$pair@$$CBHUDESC@DescriptorManager@@@_STL@@@2@U?$less@H@2@V?$allocator@U?$pair@$$CBHUDESC@DescriptorManager@@@_STL@@@2@@_STL@@QBE?AU?$_Rb_tree_iterator@U?$pair@$$CBHUDESC@DescriptorManager@@@_STL@@U?$_Const_traits@U?$pair@$$CBHUDESC@DescriptorManager@@@_STL@@@2@@2@XZ
_TEXT	SEGMENT
___$ReturnUdt$ = 8					; size = 4
?begin@?$_Rb_tree@HU?$pair@$$CBHUDESC@DescriptorManager@@@_STL@@U?$_Select1st@U?$pair@$$CBHUDESC@DescriptorManager@@@_STL@@@2@U?$less@H@2@V?$allocator@U?$pair@$$CBHUDESC@DescriptorManager@@@_STL@@@2@@_STL@@QBE?AU?$_Rb_tree_iterator@U?$pair@$$CBHUDESC@DescriptorManager@@@_STL@@U?$_Const_traits@U?$pair@$$CBHUDESC@DescriptorManager@@@_STL@@@2@@2@XZ PROC NEAR ; _STL::_Rb_tree<int,_STL::pair<int const ,DescriptorManager::DESC>,_STL::_Select1st<_STL::pair<int const ,DescriptorManager::DESC> >,_STL::less<int>,_STL::allocator<_STL::pair<int const ,DescriptorManager::DESC> > >::begin, COMDAT
; _this$ = ecx

; 358  :   const_iterator begin() const { return const_iterator(_M_leftmost()); }

  00000	8b 01		 mov	 eax, DWORD PTR [ecx]
  00002	8b 48 08	 mov	 ecx, DWORD PTR [eax+8]
  00005	8b 44 24 04	 mov	 eax, DWORD PTR ___$ReturnUdt$[esp-4]
  00009	89 08		 mov	 DWORD PTR [eax], ecx
  0000b	c2 04 00	 ret	 4
?begin@?$_Rb_tree@HU?$pair@$$CBHUDESC@DescriptorManager@@@_STL@@U?$_Select1st@U?$pair@$$CBHUDESC@DescriptorManager@@@_STL@@@2@U?$less@H@2@V?$allocator@U?$pair@$$CBHUDESC@DescriptorManager@@@_STL@@@2@@_STL@@QBE?AU?$_Rb_tree_iterator@U?$pair@$$CBHUDESC@DescriptorManager@@@_STL@@U?$_Const_traits@U?$pair@$$CBHUDESC@DescriptorManager@@@_STL@@@2@@2@XZ ENDP ; _STL::_Rb_tree<int,_STL::pair<int const ,DescriptorManager::DESC>,_STL::_Select1st<_STL::pair<int const ,DescriptorManager::DESC> >,_STL::less<int>,_STL::allocator<_STL::pair<int const ,DescriptorManager::DESC> > >::begin
_TEXT	ENDS
PUBLIC	?end@?$_Rb_tree@HU?$pair@$$CBHUDESC@DescriptorManager@@@_STL@@U?$_Select1st@U?$pair@$$CBHUDESC@DescriptorManager@@@_STL@@@2@U?$less@H@2@V?$allocator@U?$pair@$$CBHUDESC@DescriptorManager@@@_STL@@@2@@_STL@@QAE?AU?$_Rb_tree_iterator@U?$pair@$$CBHUDESC@DescriptorManager@@@_STL@@U?$_Nonconst_traits@U?$pair@$$CBHUDESC@DescriptorManager@@@_STL@@@2@@2@XZ ; _STL::_Rb_tree<int,_STL::pair<int const ,DescriptorManager::DESC>,_STL::_Select1st<_STL::pair<int const ,DescriptorManager::DESC> >,_STL::less<int>,_STL::allocator<_STL::pair<int const ,DescriptorManager::DESC> > >::end
; Function compile flags: /Ogty
;	COMDAT ?end@?$_Rb_tree@HU?$pair@$$CBHUDESC@DescriptorManager@@@_STL@@U?$_Select1st@U?$pair@$$CBHUDESC@DescriptorManager@@@_STL@@@2@U?$less@H@2@V?$allocator@U?$pair@$$CBHUDESC@DescriptorManager@@@_STL@@@2@@_STL@@QAE?AU?$_Rb_tree_iterator@U?$pair@$$CBHUDESC@DescriptorManager@@@_STL@@U?$_Nonconst_traits@U?$pair@$$CBHUDESC@DescriptorManager@@@_STL@@@2@@2@XZ
_TEXT	SEGMENT
___$ReturnUdt$ = 8					; size = 4
?end@?$_Rb_tree@HU?$pair@$$CBHUDESC@DescriptorManager@@@_STL@@U?$_Select1st@U?$pair@$$CBHUDESC@DescriptorManager@@@_STL@@@2@U?$less@H@2@V?$allocator@U?$pair@$$CBHUDESC@DescriptorManager@@@_STL@@@2@@_STL@@QAE?AU?$_Rb_tree_iterator@U?$pair@$$CBHUDESC@DescriptorManager@@@_STL@@U?$_Nonconst_traits@U?$pair@$$CBHUDESC@DescriptorManager@@@_STL@@@2@@2@XZ PROC NEAR ; _STL::_Rb_tree<int,_STL::pair<int const ,DescriptorManager::DESC>,_STL::_Select1st<_STL::pair<int const ,DescriptorManager::DESC> >,_STL::less<int>,_STL::allocator<_STL::pair<int const ,DescriptorManager::DESC> > >::end, COMDAT
; _this$ = ecx

; 359  :   iterator end() { return iterator(this->_M_header._M_data); }

  00000	8b 09		 mov	 ecx, DWORD PTR [ecx]
  00002	8b 44 24 04	 mov	 eax, DWORD PTR ___$ReturnUdt$[esp-4]
  00006	89 08		 mov	 DWORD PTR [eax], ecx
  00008	c2 04 00	 ret	 4
?end@?$_Rb_tree@HU?$pair@$$CBHUDESC@DescriptorManager@@@_STL@@U?$_Select1st@U?$pair@$$CBHUDESC@DescriptorManager@@@_STL@@@2@U?$less@H@2@V?$allocator@U?$pair@$$CBHUDESC@DescriptorManager@@@_STL@@@2@@_STL@@QAE?AU?$_Rb_tree_iterator@U?$pair@$$CBHUDESC@DescriptorManager@@@_STL@@U?$_Nonconst_traits@U?$pair@$$CBHUDESC@DescriptorManager@@@_STL@@@2@@2@XZ ENDP ; _STL::_Rb_tree<int,_STL::pair<int const ,DescriptorManager::DESC>,_STL::_Select1st<_STL::pair<int const ,DescriptorManager::DESC> >,_STL::less<int>,_STL::allocator<_STL::pair<int const ,DescriptorManager::DESC> > >::end
_TEXT	ENDS
PUBLIC	?end@?$_Rb_tree@HU?$pair@$$CBHUDESC@DescriptorManager@@@_STL@@U?$_Select1st@U?$pair@$$CBHUDESC@DescriptorManager@@@_STL@@@2@U?$less@H@2@V?$allocator@U?$pair@$$CBHUDESC@DescriptorManager@@@_STL@@@2@@_STL@@QBE?AU?$_Rb_tree_iterator@U?$pair@$$CBHUDESC@DescriptorManager@@@_STL@@U?$_Const_traits@U?$pair@$$CBHUDESC@DescriptorManager@@@_STL@@@2@@2@XZ ; _STL::_Rb_tree<int,_STL::pair<int const ,DescriptorManager::DESC>,_STL::_Select1st<_STL::pair<int const ,DescriptorManager::DESC> >,_STL::less<int>,_STL::allocator<_STL::pair<int const ,DescriptorManager::DESC> > >::end
; Function compile flags: /Ogty
;	COMDAT ?end@?$_Rb_tree@HU?$pair@$$CBHUDESC@DescriptorManager@@@_STL@@U?$_Select1st@U?$pair@$$CBHUDESC@DescriptorManager@@@_STL@@@2@U?$less@H@2@V?$allocator@U?$pair@$$CBHUDESC@DescriptorManager@@@_STL@@@2@@_STL@@QBE?AU?$_Rb_tree_iterator@U?$pair@$$CBHUDESC@DescriptorManager@@@_STL@@U?$_Const_traits@U?$pair@$$CBHUDESC@DescriptorManager@@@_STL@@@2@@2@XZ
_TEXT	SEGMENT
___$ReturnUdt$ = 8					; size = 4
?end@?$_Rb_tree@HU?$pair@$$CBHUDESC@DescriptorManager@@@_STL@@U?$_Select1st@U?$pair@$$CBHUDESC@DescriptorManager@@@_STL@@@2@U?$less@H@2@V?$allocator@U?$pair@$$CBHUDESC@DescriptorManager@@@_STL@@@2@@_STL@@QBE?AU?$_Rb_tree_iterator@U?$pair@$$CBHUDESC@DescriptorManager@@@_STL@@U?$_Const_traits@U?$pair@$$CBHUDESC@DescriptorManager@@@_STL@@@2@@2@XZ PROC NEAR ; _STL::_Rb_tree<int,_STL::pair<int const ,DescriptorManager::DESC>,_STL::_Select1st<_STL::pair<int const ,DescriptorManager::DESC> >,_STL::less<int>,_STL::allocator<_STL::pair<int const ,DescriptorManager::DESC> > >::end, COMDAT
; _this$ = ecx

; 360  :   const_iterator end() const { return const_iterator(this->_M_header._M_data); }

  00000	8b 09		 mov	 ecx, DWORD PTR [ecx]
  00002	8b 44 24 04	 mov	 eax, DWORD PTR ___$ReturnUdt$[esp-4]
  00006	89 08		 mov	 DWORD PTR [eax], ecx
  00008	c2 04 00	 ret	 4
?end@?$_Rb_tree@HU?$pair@$$CBHUDESC@DescriptorManager@@@_STL@@U?$_Select1st@U?$pair@$$CBHUDESC@DescriptorManager@@@_STL@@@2@U?$less@H@2@V?$allocator@U?$pair@$$CBHUDESC@DescriptorManager@@@_STL@@@2@@_STL@@QBE?AU?$_Rb_tree_iterator@U?$pair@$$CBHUDESC@DescriptorManager@@@_STL@@U?$_Const_traits@U?$pair@$$CBHUDESC@DescriptorManager@@@_STL@@@2@@2@XZ ENDP ; _STL::_Rb_tree<int,_STL::pair<int const ,DescriptorManager::DESC>,_STL::_Select1st<_STL::pair<int const ,DescriptorManager::DESC> >,_STL::less<int>,_STL::allocator<_STL::pair<int const ,DescriptorManager::DESC> > >::end
_TEXT	ENDS
PUBLIC	??1?$_STLP_alloc_proxy@PAU?$_Rb_tree_node@U?$pair@$$CBHUDESC@DescriptorManager@@@_STL@@@_STL@@U12@V?$allocator@U?$_Rb_tree_node@U?$pair@$$CBHUDESC@DescriptorManager@@@_STL@@@_STL@@@2@@_STL@@QAE@XZ ; _STL::_STLP_alloc_proxy<_STL::_Rb_tree_node<_STL::pair<int const ,DescriptorManager::DESC> > *,_STL::_Rb_tree_node<_STL::pair<int const ,DescriptorManager::DESC> >,_STL::allocator<_STL::_Rb_tree_node<_STL::pair<int const ,DescriptorManager::DESC> > > >::~_STLP_alloc_proxy<_STL::_Rb_tree_node<_STL::pair<int const ,DescriptorManager::DESC> > *,_STL::_Rb_tree_node<_STL::pair<int const ,DescriptorManager::DESC> >,_STL::allocator<_STL::_Rb_tree_node<_STL::pair<int const ,DescriptorManager::DESC> > > >
; Function compile flags: /Ogty
;	COMDAT ??1?$_STLP_alloc_proxy@PAU?$_Rb_tree_node@U?$pair@$$CBHUDESC@DescriptorManager@@@_STL@@@_STL@@U12@V?$allocator@U?$_Rb_tree_node@U?$pair@$$CBHUDESC@DescriptorManager@@@_STL@@@_STL@@@2@@_STL@@QAE@XZ
_TEXT	SEGMENT
??1?$_STLP_alloc_proxy@PAU?$_Rb_tree_node@U?$pair@$$CBHUDESC@DescriptorManager@@@_STL@@@_STL@@U12@V?$allocator@U?$_Rb_tree_node@U?$pair@$$CBHUDESC@DescriptorManager@@@_STL@@@_STL@@@2@@_STL@@QAE@XZ PROC NEAR ; _STL::_STLP_alloc_proxy<_STL::_Rb_tree_node<_STL::pair<int const ,DescriptorManager::DESC> > *,_STL::_Rb_tree_node<_STL::pair<int const ,DescriptorManager::DESC> >,_STL::allocator<_STL::_Rb_tree_node<_STL::pair<int const ,DescriptorManager::DESC> > > >::~_STLP_alloc_proxy<_STL::_Rb_tree_node<_STL::pair<int const ,DescriptorManager::DESC> > *,_STL::_Rb_tree_node<_STL::pair<int const ,DescriptorManager::DESC> >,_STL::allocator<_STL::_Rb_tree_node<_STL::pair<int const ,DescriptorManager::DESC> > > >, COMDAT
; _this$ = ecx
  00000	c3		 ret	 0
??1?$_STLP_alloc_proxy@PAU?$_Rb_tree_node@U?$pair@$$CBHUDESC@DescriptorManager@@@_STL@@@_STL@@U12@V?$allocator@U?$_Rb_tree_node@U?$pair@$$CBHUDESC@DescriptorManager@@@_STL@@@_STL@@@2@@_STL@@QAE@XZ ENDP ; _STL::_STLP_alloc_proxy<_STL::_Rb_tree_node<_STL::pair<int const ,DescriptorManager::DESC> > *,_STL::_Rb_tree_node<_STL::pair<int const ,DescriptorManager::DESC> >,_STL::allocator<_STL::_Rb_tree_node<_STL::pair<int const ,DescriptorManager::DESC> > > >::~_STLP_alloc_proxy<_STL::_Rb_tree_node<_STL::pair<int const ,DescriptorManager::DESC> > *,_STL::_Rb_tree_node<_STL::pair<int const ,DescriptorManager::DESC> >,_STL::allocator<_STL::_Rb_tree_node<_STL::pair<int const ,DescriptorManager::DESC> > > >
_TEXT	ENDS
PUBLIC	?_M_empty_initialize@?$_Rb_tree@HU?$pair@$$CBHUDESC@DescriptorManager@@@_STL@@U?$_Select1st@U?$pair@$$CBHUDESC@DescriptorManager@@@_STL@@@2@U?$less@H@2@V?$allocator@U?$pair@$$CBHUDESC@DescriptorManager@@@_STL@@@2@@_STL@@AAEXXZ ; _STL::_Rb_tree<int,_STL::pair<int const ,DescriptorManager::DESC>,_STL::_Select1st<_STL::pair<int const ,DescriptorManager::DESC> >,_STL::less<int>,_STL::allocator<_STL::pair<int const ,DescriptorManager::DESC> > >::_M_empty_initialize
; Function compile flags: /Ogty
;	COMDAT ?_M_empty_initialize@?$_Rb_tree@HU?$pair@$$CBHUDESC@DescriptorManager@@@_STL@@U?$_Select1st@U?$pair@$$CBHUDESC@DescriptorManager@@@_STL@@@2@U?$less@H@2@V?$allocator@U?$pair@$$CBHUDESC@DescriptorManager@@@_STL@@@2@@_STL@@AAEXXZ
_TEXT	SEGMENT
?_M_empty_initialize@?$_Rb_tree@HU?$pair@$$CBHUDESC@DescriptorManager@@@_STL@@U?$_Select1st@U?$pair@$$CBHUDESC@DescriptorManager@@@_STL@@@2@U?$less@H@2@V?$allocator@U?$pair@$$CBHUDESC@DescriptorManager@@@_STL@@@2@@_STL@@AAEXXZ PROC NEAR ; _STL::_Rb_tree<int,_STL::pair<int const ,DescriptorManager::DESC>,_STL::_Select1st<_STL::pair<int const ,DescriptorManager::DESC> >,_STL::less<int>,_STL::allocator<_STL::pair<int const ,DescriptorManager::DESC> > >::_M_empty_initialize, COMDAT
; _this$ = ecx

; 346  :     _S_color(this->_M_header._M_data) = _S_rb_tree_red; // used to distinguish header from 

  00000	8b 01		 mov	 eax, DWORD PTR [ecx]
  00002	c6 00 00	 mov	 BYTE PTR [eax], 0

; 347  :                                           // __root, in iterator.operator++
; 348  :     _M_root() = 0;

  00005	8b 11		 mov	 edx, DWORD PTR [ecx]
  00007	c7 42 04 00 00
	00 00		 mov	 DWORD PTR [edx+4], 0

; 349  :     _M_leftmost() = this->_M_header._M_data;

  0000e	8b 01		 mov	 eax, DWORD PTR [ecx]
  00010	89 40 08	 mov	 DWORD PTR [eax+8], eax

; 350  :     _M_rightmost() = this->_M_header._M_data;

  00013	8b 09		 mov	 ecx, DWORD PTR [ecx]
  00015	89 49 0c	 mov	 DWORD PTR [ecx+12], ecx

; 351  :   }

  00018	c3		 ret	 0
?_M_empty_initialize@?$_Rb_tree@HU?$pair@$$CBHUDESC@DescriptorManager@@@_STL@@U?$_Select1st@U?$pair@$$CBHUDESC@DescriptorManager@@@_STL@@@2@U?$less@H@2@V?$allocator@U?$pair@$$CBHUDESC@DescriptorManager@@@_STL@@@2@@_STL@@AAEXXZ ENDP ; _STL::_Rb_tree<int,_STL::pair<int const ,DescriptorManager::DESC>,_STL::_Select1st<_STL::pair<int const ,DescriptorManager::DESC> >,_STL::less<int>,_STL::allocator<_STL::pair<int const ,DescriptorManager::DESC> > >::_M_empty_initialize
_TEXT	ENDS
PUBLIC	?deallocate@?$allocator@U?$_Rb_tree_node@U?$pair@$$CBHUDESC@DescriptorManager@@@_STL@@@_STL@@@_STL@@QAEXPAU?$_Rb_tree_node@U?$pair@$$CBHUDESC@DescriptorManager@@@_STL@@@2@I@Z ; _STL::allocator<_STL::_Rb_tree_node<_STL::pair<int const ,DescriptorManager::DESC> > >::deallocate
; Function compile flags: /Ogty
; File c:\stlport-4.6.1\stlport\stl\_alloc.h
;	COMDAT ?deallocate@?$allocator@U?$_Rb_tree_node@U?$pair@$$CBHUDESC@DescriptorManager@@@_STL@@@_STL@@@_STL@@QAEXPAU?$_Rb_tree_node@U?$pair@$$CBHUDESC@DescriptorManager@@@_STL@@@2@I@Z
_TEXT	SEGMENT
___p$ = 8						; size = 4
___n$ = 12						; size = 4
?deallocate@?$allocator@U?$_Rb_tree_node@U?$pair@$$CBHUDESC@DescriptorManager@@@_STL@@@_STL@@@_STL@@QAEXPAU?$_Rb_tree_node@U?$pair@$$CBHUDESC@DescriptorManager@@@_STL@@@2@I@Z PROC NEAR ; _STL::allocator<_STL::_Rb_tree_node<_STL::pair<int const ,DescriptorManager::DESC> > >::deallocate, COMDAT
; _this$ = ecx

; 359  :     _STLP_ASSERT( (__p == 0) == (__n == 0) )
; 360  :       if (__p != 0) __sgi_alloc::deallocate((void*)__p, __n * sizeof(value_type));

  00000	8b 4c 24 04	 mov	 ecx, DWORD PTR ___p$[esp-4]
  00004	85 c9		 test	 ecx, ecx
  00006	74 24		 je	 SHORT $L91025
  00008	8b 44 24 08	 mov	 eax, DWORD PTR ___n$[esp-4]
  0000c	6b c0 34	 imul	 eax, 52			; 00000034H
  0000f	3d 80 00 00 00	 cmp	 eax, 128		; 00000080H
  00014	76 0c		 jbe	 SHORT $L91024
  00016	51		 push	 ecx
  00017	e8 00 00 00 00	 call	 ??3@YAXPAX@Z		; operator delete
  0001c	83 c4 04	 add	 esp, 4

; 361  :   }

  0001f	c2 08 00	 ret	 8

; 359  :     _STLP_ASSERT( (__p == 0) == (__n == 0) )
; 360  :       if (__p != 0) __sgi_alloc::deallocate((void*)__p, __n * sizeof(value_type));

$L91024:
  00022	50		 push	 eax
  00023	51		 push	 ecx
  00024	e8 00 00 00 00	 call	 ?_M_deallocate@?$__node_alloc@$00$0A@@_STL@@CAXPAXI@Z ; _STL::__node_alloc<1,0>::_M_deallocate
  00029	83 c4 08	 add	 esp, 8
$L91025:

; 361  :   }

  0002c	c2 08 00	 ret	 8
?deallocate@?$allocator@U?$_Rb_tree_node@U?$pair@$$CBHUDESC@DescriptorManager@@@_STL@@@_STL@@@_STL@@QAEXPAU?$_Rb_tree_node@U?$pair@$$CBHUDESC@DescriptorManager@@@_STL@@@2@I@Z ENDP ; _STL::allocator<_STL::_Rb_tree_node<_STL::pair<int const ,DescriptorManager::DESC> > >::deallocate
_TEXT	ENDS
PUBLIC	??0?$_STLP_alloc_proxy@PAU?$_Rb_tree_node@U?$pair@$$CBHUDESC@DescriptorManager@@@_STL@@@_STL@@U12@V?$allocator@U?$_Rb_tree_node@U?$pair@$$CBHUDESC@DescriptorManager@@@_STL@@@_STL@@@2@@_STL@@QAE@ABV?$allocator@U?$_Rb_tree_node@U?$pair@$$CBHUDESC@DescriptorManager@@@_STL@@@_STL@@@1@PAU?$_Rb_tree_node@U?$pair@$$CBHUDESC@DescriptorManager@@@_STL@@@1@@Z ; _STL::_STLP_alloc_proxy<_STL::_Rb_tree_node<_STL::pair<int const ,DescriptorManager::DESC> > *,_STL::_Rb_tree_node<_STL::pair<int const ,DescriptorManager::DESC> >,_STL::allocator<_STL::_Rb_tree_node<_STL::pair<int const ,DescriptorManager::DESC> > > >::_STLP_alloc_proxy<_STL::_Rb_tree_node<_STL::pair<int const ,DescriptorManager::DESC> > *,_STL::_Rb_tree_node<_STL::pair<int const ,DescriptorManager::DESC> >,_STL::allocator<_STL::_Rb_tree_node<_STL::pair<int const ,DescriptorManager::DESC> > > >
; Function compile flags: /Ogty
;	COMDAT ??0?$_STLP_alloc_proxy@PAU?$_Rb_tree_node@U?$pair@$$CBHUDESC@DescriptorManager@@@_STL@@@_STL@@U12@V?$allocator@U?$_Rb_tree_node@U?$pair@$$CBHUDESC@DescriptorManager@@@_STL@@@_STL@@@2@@_STL@@QAE@ABV?$allocator@U?$_Rb_tree_node@U?$pair@$$CBHUDESC@DescriptorManager@@@_STL@@@_STL@@@1@PAU?$_Rb_tree_node@U?$pair@$$CBHUDESC@DescriptorManager@@@_STL@@@1@@Z
_TEXT	SEGMENT
___a$ = 8						; size = 4
___p$ = 12						; size = 4
??0?$_STLP_alloc_proxy@PAU?$_Rb_tree_node@U?$pair@$$CBHUDESC@DescriptorManager@@@_STL@@@_STL@@U12@V?$allocator@U?$_Rb_tree_node@U?$pair@$$CBHUDESC@DescriptorManager@@@_STL@@@_STL@@@2@@_STL@@QAE@ABV?$allocator@U?$_Rb_tree_node@U?$pair@$$CBHUDESC@DescriptorManager@@@_STL@@@_STL@@@1@PAU?$_Rb_tree_node@U?$pair@$$CBHUDESC@DescriptorManager@@@_STL@@@1@@Z PROC NEAR ; _STL::_STLP_alloc_proxy<_STL::_Rb_tree_node<_STL::pair<int const ,DescriptorManager::DESC> > *,_STL::_Rb_tree_node<_STL::pair<int const ,DescriptorManager::DESC> >,_STL::allocator<_STL::_Rb_tree_node<_STL::pair<int const ,DescriptorManager::DESC> > > >::_STLP_alloc_proxy<_STL::_Rb_tree_node<_STL::pair<int const ,DescriptorManager::DESC> > *,_STL::_Rb_tree_node<_STL::pair<int const ,DescriptorManager::DESC> >,_STL::allocator<_STL::_Rb_tree_node<_STL::pair<int const ,DescriptorManager::DESC> > > >, COMDAT
; _this$ = ecx

; 487  :   inline _STLP_alloc_proxy(const _MaybeReboundAlloc& __a, _Value __p) : _MaybeReboundAlloc(__a), _M_data(__p) {}

  00000	8b c1		 mov	 eax, ecx
  00002	8b 4c 24 08	 mov	 ecx, DWORD PTR ___p$[esp-4]
  00006	89 08		 mov	 DWORD PTR [eax], ecx
  00008	c2 08 00	 ret	 8
??0?$_STLP_alloc_proxy@PAU?$_Rb_tree_node@U?$pair@$$CBHUDESC@DescriptorManager@@@_STL@@@_STL@@U12@V?$allocator@U?$_Rb_tree_node@U?$pair@$$CBHUDESC@DescriptorManager@@@_STL@@@_STL@@@2@@_STL@@QAE@ABV?$allocator@U?$_Rb_tree_node@U?$pair@$$CBHUDESC@DescriptorManager@@@_STL@@@_STL@@@1@PAU?$_Rb_tree_node@U?$pair@$$CBHUDESC@DescriptorManager@@@_STL@@@1@@Z ENDP ; _STL::_STLP_alloc_proxy<_STL::_Rb_tree_node<_STL::pair<int const ,DescriptorManager::DESC> > *,_STL::_Rb_tree_node<_STL::pair<int const ,DescriptorManager::DESC> >,_STL::allocator<_STL::_Rb_tree_node<_STL::pair<int const ,DescriptorManager::DESC> > > >::_STLP_alloc_proxy<_STL::_Rb_tree_node<_STL::pair<int const ,DescriptorManager::DESC> > *,_STL::_Rb_tree_node<_STL::pair<int const ,DescriptorManager::DESC> >,_STL::allocator<_STL::_Rb_tree_node<_STL::pair<int const ,DescriptorManager::DESC> > > >
_TEXT	ENDS
PUBLIC	?allocate@?$allocator@U?$_Rb_tree_node@U?$pair@$$CBHUDESC@DescriptorManager@@@_STL@@@_STL@@@_STL@@QAEPAU?$_Rb_tree_node@U?$pair@$$CBHUDESC@DescriptorManager@@@_STL@@@2@IPBX@Z ; _STL::allocator<_STL::_Rb_tree_node<_STL::pair<int const ,DescriptorManager::DESC> > >::allocate
; Function compile flags: /Ogty
;	COMDAT ?allocate@?$allocator@U?$_Rb_tree_node@U?$pair@$$CBHUDESC@DescriptorManager@@@_STL@@@_STL@@@_STL@@QAEPAU?$_Rb_tree_node@U?$pair@$$CBHUDESC@DescriptorManager@@@_STL@@@2@IPBX@Z
_TEXT	SEGMENT
___n$ = 8						; size = 4
___formal$ = 12						; size = 4
?allocate@?$allocator@U?$_Rb_tree_node@U?$pair@$$CBHUDESC@DescriptorManager@@@_STL@@@_STL@@@_STL@@QAEPAU?$_Rb_tree_node@U?$pair@$$CBHUDESC@DescriptorManager@@@_STL@@@2@IPBX@Z PROC NEAR ; _STL::allocator<_STL::_Rb_tree_node<_STL::pair<int const ,DescriptorManager::DESC> > >::allocate, COMDAT
; _this$ = ecx

; 355  :     return __n != 0 ? __REINTERPRET_CAST(value_type*,__sgi_alloc::allocate(__n * sizeof(value_type))) : 0;

  00000	8b 44 24 04	 mov	 eax, DWORD PTR ___n$[esp-4]
  00004	85 c0		 test	 eax, eax
  00006	74 21		 je	 SHORT $L91036
  00008	6b c0 34	 imul	 eax, 52			; 00000034H
  0000b	3d 80 00 00 00	 cmp	 eax, 128		; 00000080H
  00010	50		 push	 eax
  00011	76 0b		 jbe	 SHORT $L91046
  00013	e8 00 00 00 00	 call	 ??2@YAPAXI@Z		; operator new
  00018	83 c4 04	 add	 esp, 4

; 356  :   }

  0001b	c2 08 00	 ret	 8

; 355  :     return __n != 0 ? __REINTERPRET_CAST(value_type*,__sgi_alloc::allocate(__n * sizeof(value_type))) : 0;

$L91046:
  0001e	e8 00 00 00 00	 call	 ?_M_allocate@?$__node_alloc@$00$0A@@_STL@@CAPAXI@Z ; _STL::__node_alloc<1,0>::_M_allocate
  00023	83 c4 04	 add	 esp, 4

; 356  :   }

  00026	c2 08 00	 ret	 8
$L91036:

; 355  :     return __n != 0 ? __REINTERPRET_CAST(value_type*,__sgi_alloc::allocate(__n * sizeof(value_type))) : 0;

  00029	33 c0		 xor	 eax, eax

; 356  :   }

  0002b	c2 08 00	 ret	 8
?allocate@?$allocator@U?$_Rb_tree_node@U?$pair@$$CBHUDESC@DescriptorManager@@@_STL@@@_STL@@@_STL@@QAEPAU?$_Rb_tree_node@U?$pair@$$CBHUDESC@DescriptorManager@@@_STL@@@2@IPBX@Z ENDP ; _STL::allocator<_STL::_Rb_tree_node<_STL::pair<int const ,DescriptorManager::DESC> > >::allocate
_TEXT	ENDS
PUBLIC	?Add@?$SimpleDataList@PAUDESCRIBED_UNIT@@@@QAE_NPAUDESCRIBED_UNIT@@@Z ; SimpleDataList<DESCRIBED_UNIT *>::Add
PUBLIC	??_C@_0EM@OGKKDBGH@c?3?2darkeden?2designed_common?2proj@ ; `string'
EXTRN	??_U@YAPAXI@Z:NEAR				; operator new[]
EXTRN	?g_BasicException@@YAXW4EXCEPTION_CODE@@PAD1K@Z:NEAR ; g_BasicException
;	COMDAT ??_C@_0EM@OGKKDBGH@c?3?2darkeden?2designed_common?2proj@
; File c:\darkeden\designed_common\project\new - vs_ui\src\widget\simpledatalist.h
CONST	SEGMENT
??_C@_0EM@OGKKDBGH@c?3?2darkeden?2designed_common?2proj@ DB 'c:\darkeden\'
	DB	'designed_common\project\new - vs_ui\src\widget\SimpleDataList'
	DB	'.h', 00H					; `string'
; Function compile flags: /Ogty
CONST	ENDS
;	COMDAT ?Add@?$SimpleDataList@PAUDESCRIBED_UNIT@@@@QAE_NPAUDESCRIBED_UNIT@@@Z
_TEXT	SEGMENT
_data$ = 8						; size = 4
?Add@?$SimpleDataList@PAUDESCRIBED_UNIT@@@@QAE_NPAUDESCRIBED_UNIT@@@Z PROC NEAR ; SimpleDataList<DESCRIBED_UNIT *>::Add, COMDAT
; _this$ = ecx

; 106  : {

  00000	55		 push	 ebp

; 107  : 	if (Find(data) == true)

  00001	8b 6c 24 08	 mov	 ebp, DWORD PTR _data$[esp]
  00005	56		 push	 esi
  00006	8b f1		 mov	 esi, ecx
  00008	57		 push	 edi
  00009	8b 7e 08	 mov	 edi, DWORD PTR [esi+8]
  0000c	33 c0		 xor	 eax, eax
  0000e	85 ff		 test	 edi, edi
  00010	7e 16		 jle	 SHORT $L89798
  00012	8b 4e 04	 mov	 ecx, DWORD PTR [esi+4]
$L91061:
  00015	39 29		 cmp	 DWORD PTR [ecx], ebp
  00017	0f 84 d1 00 00
	00		 je	 $L91074
  0001d	8b 56 08	 mov	 edx, DWORD PTR [esi+8]
  00020	40		 inc	 eax
  00021	83 c1 04	 add	 ecx, 4
  00024	3b c2		 cmp	 eax, edx
  00026	7c ed		 jl	 SHORT $L91061
$L89798:
  00028	53		 push	 ebx

; 109  : 
; 110  : 	Ta *		p_temp = NULL;

  00029	33 db		 xor	 ebx, ebx

; 111  : 	int		prev_size = m_size;
; 112  : 	int		i;
; 113  : 
; 114  : 	if (prev_size > 0) // backup prev-data

  0002b	85 ff		 test	 edi, edi
  0002d	7e 3f		 jle	 SHORT $L91076

; 115  : 	{
; 116  : 		p_temp = new Ta[prev_size];

  0002f	8d 04 bd 00 00
	00 00		 lea	 eax, DWORD PTR [edi*4]
  00036	50		 push	 eax
  00037	e8 00 00 00 00	 call	 ??_U@YAPAXI@Z		; operator new[]
  0003c	8b d8		 mov	 ebx, eax
  0003e	83 c4 04	 add	 esp, 4

; 117  : 		CheckMemAlloc(p_temp);

  00041	85 db		 test	 ebx, ebx
  00043	75 12		 jne	 SHORT $L91075
  00045	6a 75		 push	 117			; 00000075H
  00047	68 00 00 00 00	 push	 OFFSET FLAT:??_C@_0EM@OGKKDBGH@c?3?2darkeden?2designed_common?2proj@
  0004c	50		 push	 eax
  0004d	6a 01		 push	 1
  0004f	e8 00 00 00 00	 call	 ?g_BasicException@@YAXW4EXCEPTION_CODE@@PAD1K@Z ; g_BasicException
  00054	83 c4 10	 add	 esp, 16			; 00000010H
$L91075:

; 118  : 
; 119  : 		for (i=0; i < prev_size; i++)

  00057	33 c0		 xor	 eax, eax
  00059	85 ff		 test	 edi, edi
  0005b	7e 11		 jle	 SHORT $L91076
  0005d	8d 49 00	 npad	 3
$L89807:

; 120  : 			p_temp[i] = m_p_buf[i];

  00060	8b 4e 04	 mov	 ecx, DWORD PTR [esi+4]
  00063	8b 14 81	 mov	 edx, DWORD PTR [ecx+eax*4]
  00066	89 14 83	 mov	 DWORD PTR [ebx+eax*4], edx
  00069	40		 inc	 eax
  0006a	3b c7		 cmp	 eax, edi
  0006c	7c f2		 jl	 SHORT $L89807
$L91076:

; 121  : 	}
; 122  : 	
; 123  : 	DeleteNewArray(m_p_buf);

  0006e	8b 46 04	 mov	 eax, DWORD PTR [esi+4]
  00071	85 c0		 test	 eax, eax
  00073	74 10		 je	 SHORT $L89810
  00075	50		 push	 eax
  00076	e8 00 00 00 00	 call	 ??_V@YAXPAX@Z		; operator delete[]
  0007b	83 c4 04	 add	 esp, 4
  0007e	c7 46 04 00 00
	00 00		 mov	 DWORD PTR [esi+4], 0
$L89810:

; 124  : 	m_size++;

  00085	8b 56 08	 mov	 edx, DWORD PTR [esi+8]
  00088	42		 inc	 edx
  00089	8b c2		 mov	 eax, edx

; 125  : 	m_p_buf = new Ta[m_size];

  0008b	c1 e0 02	 shl	 eax, 2
  0008e	50		 push	 eax
  0008f	89 56 08	 mov	 DWORD PTR [esi+8], edx
  00092	e8 00 00 00 00	 call	 ??_U@YAPAXI@Z		; operator new[]
  00097	83 c4 04	 add	 esp, 4

; 126  : 	CheckMemAlloc(m_p_buf);

  0009a	85 c0		 test	 eax, eax
  0009c	89 46 04	 mov	 DWORD PTR [esi+4], eax
  0009f	75 12		 jne	 SHORT $L89814
  000a1	6a 7e		 push	 126			; 0000007eH
  000a3	68 00 00 00 00	 push	 OFFSET FLAT:??_C@_0EM@OGKKDBGH@c?3?2darkeden?2designed_common?2proj@
  000a8	50		 push	 eax
  000a9	6a 01		 push	 1
  000ab	e8 00 00 00 00	 call	 ?g_BasicException@@YAXW4EXCEPTION_CODE@@PAD1K@Z ; g_BasicException
  000b0	83 c4 10	 add	 esp, 16			; 00000010H
$L89814:

; 127  : 
; 128  : 	for (i=0; i < prev_size; i++) // restore backup data

  000b3	33 c0		 xor	 eax, eax
  000b5	85 ff		 test	 edi, edi
  000b7	7e 15		 jle	 SHORT $L89817
  000b9	8d a4 24 00 00
	00 00		 npad	 7
$L89815:

; 129  : 		m_p_buf[i] = p_temp[i];

  000c0	8b 14 83	 mov	 edx, DWORD PTR [ebx+eax*4]
  000c3	8b 4e 04	 mov	 ecx, DWORD PTR [esi+4]
  000c6	89 14 81	 mov	 DWORD PTR [ecx+eax*4], edx
  000c9	40		 inc	 eax
  000ca	3b c7		 cmp	 eax, edi
  000cc	7c f2		 jl	 SHORT $L89815
$L89817:

; 130  : 
; 131  : 	m_p_buf[m_size-1] = data;
; 132  : 
; 133  : 	DeleteNewArray(p_temp);

  000ce	85 db		 test	 ebx, ebx
  000d0	8b 46 08	 mov	 eax, DWORD PTR [esi+8]
  000d3	8b 4e 04	 mov	 ecx, DWORD PTR [esi+4]
  000d6	89 6c 81 fc	 mov	 DWORD PTR [ecx+eax*4-4], ebp
  000da	74 09		 je	 SHORT $L89818
  000dc	53		 push	 ebx
  000dd	e8 00 00 00 00	 call	 ??_V@YAXPAX@Z		; operator delete[]
  000e2	83 c4 04	 add	 esp, 4
$L89818:
  000e5	5b		 pop	 ebx
  000e6	5f		 pop	 edi
  000e7	5e		 pop	 esi

; 134  : 
; 135  : 	return true;

  000e8	b0 01		 mov	 al, 1
  000ea	5d		 pop	 ebp

; 136  : }

  000eb	c2 04 00	 ret	 4
$L91074:
  000ee	5f		 pop	 edi
  000ef	5e		 pop	 esi

; 108  : 		return false;

  000f0	32 c0		 xor	 al, al
  000f2	5d		 pop	 ebp

; 136  : }

  000f3	c2 04 00	 ret	 4
?Add@?$SimpleDataList@PAUDESCRIBED_UNIT@@@@QAE_NPAUDESCRIBED_UNIT@@@Z ENDP ; SimpleDataList<DESCRIBED_UNIT *>::Add
_TEXT	ENDS
PUBLIC	??$_Destroy@U?$pair@$$CBHUDESC@DescriptorManager@@@_STL@@@_STL@@YAXPAU?$pair@$$CBHUDESC@DescriptorManager@@@0@@Z ; _STL::_Destroy<_STL::pair<int const ,DescriptorManager::DESC> >
; Function compile flags: /Ogty
; File c:\stlport-4.6.1\stlport\stl\_construct.h
;	COMDAT ??$_Destroy@U?$pair@$$CBHUDESC@DescriptorManager@@@_STL@@@_STL@@YAXPAU?$pair@$$CBHUDESC@DescriptorManager@@@0@@Z
_TEXT	SEGMENT
___pointer$ = 8						; size = 4
??$_Destroy@U?$pair@$$CBHUDESC@DescriptorManager@@@_STL@@@_STL@@YAXPAU?$pair@$$CBHUDESC@DescriptorManager@@@0@@Z PROC NEAR ; _STL::_Destroy<_STL::pair<int const ,DescriptorManager::DESC> >, COMDAT

; 57   : # if _MSC_VER >= 1010
; 58   :   __pointer;
; 59   : # endif	// _MSC_VER >= 1000
; 60   : # ifdef _STLP_TRIVIAL_DESTRUCTOR_BUG
; 61   :   typedef typename __type_traits<_Tp>::has_trivial_destructor _Trivial_destructor;
; 62   :   __destroy_aux(__pointer, _Trivial_destructor());
; 63   : # else
; 64   : #  if ( defined (__BORLANDC__) && ( __BORLANDC__ < 0x500 ) )
; 65   :     __pointer->_Tp::~_Tp();
; 66   : #  else
; 67   :     __pointer->~_Tp();

  00000	8b 4c 24 04	 mov	 ecx, DWORD PTR ___pointer$[esp-4]
  00004	e9 00 00 00 00	 jmp	 ??1?$pair@$$CBHUDESC@DescriptorManager@@@_STL@@QAE@XZ
??$_Destroy@U?$pair@$$CBHUDESC@DescriptorManager@@@_STL@@@_STL@@YAXPAU?$pair@$$CBHUDESC@DescriptorManager@@@0@@Z ENDP ; _STL::_Destroy<_STL::pair<int const ,DescriptorManager::DESC> >
_TEXT	ENDS
PUBLIC	?_S_key@?$_Rb_tree@HU?$pair@$$CBHUDESC@DescriptorManager@@@_STL@@U?$_Select1st@U?$pair@$$CBHUDESC@DescriptorManager@@@_STL@@@2@U?$less@H@2@V?$allocator@U?$pair@$$CBHUDESC@DescriptorManager@@@_STL@@@2@@_STL@@KAABHPAU?$_Rb_tree_node@U?$pair@$$CBHUDESC@DescriptorManager@@@_STL@@@2@@Z ; _STL::_Rb_tree<int,_STL::pair<int const ,DescriptorManager::DESC>,_STL::_Select1st<_STL::pair<int const ,DescriptorManager::DESC> >,_STL::less<int>,_STL::allocator<_STL::pair<int const ,DescriptorManager::DESC> > >::_S_key
; Function compile flags: /Ogty
; File c:\stlport-4.6.1\stlport\stl\_tree.h
;	COMDAT ?_S_key@?$_Rb_tree@HU?$pair@$$CBHUDESC@DescriptorManager@@@_STL@@U?$_Select1st@U?$pair@$$CBHUDESC@DescriptorManager@@@_STL@@@2@U?$less@H@2@V?$allocator@U?$pair@$$CBHUDESC@DescriptorManager@@@_STL@@@2@@_STL@@KAABHPAU?$_Rb_tree_node@U?$pair@$$CBHUDESC@DescriptorManager@@@_STL@@@2@@Z
_TEXT	SEGMENT
___x$ = 8						; size = 4
?_S_key@?$_Rb_tree@HU?$pair@$$CBHUDESC@DescriptorManager@@@_STL@@U?$_Select1st@U?$pair@$$CBHUDESC@DescriptorManager@@@_STL@@@2@U?$less@H@2@V?$allocator@U?$pair@$$CBHUDESC@DescriptorManager@@@_STL@@@2@@_STL@@KAABHPAU?$_Rb_tree_node@U?$pair@$$CBHUDESC@DescriptorManager@@@_STL@@@2@@Z PROC NEAR ; _STL::_Rb_tree<int,_STL::pair<int const ,DescriptorManager::DESC>,_STL::_Select1st<_STL::pair<int const ,DescriptorManager::DESC> >,_STL::less<int>,_STL::allocator<_STL::pair<int const ,DescriptorManager::DESC> > >::_S_key, COMDAT

; 280  :     { return _KeyOfValue()(_S_value(__x)); }

  00000	8b 44 24 04	 mov	 eax, DWORD PTR ___x$[esp-4]
  00004	83 c0 10	 add	 eax, 16			; 00000010H
  00007	c3		 ret	 0
?_S_key@?$_Rb_tree@HU?$pair@$$CBHUDESC@DescriptorManager@@@_STL@@U?$_Select1st@U?$pair@$$CBHUDESC@DescriptorManager@@@_STL@@@2@U?$less@H@2@V?$allocator@U?$pair@$$CBHUDESC@DescriptorManager@@@_STL@@@2@@_STL@@KAABHPAU?$_Rb_tree_node@U?$pair@$$CBHUDESC@DescriptorManager@@@_STL@@@2@@Z ENDP ; _STL::_Rb_tree<int,_STL::pair<int const ,DescriptorManager::DESC>,_STL::_Select1st<_STL::pair<int const ,DescriptorManager::DESC> >,_STL::less<int>,_STL::allocator<_STL::pair<int const ,DescriptorManager::DESC> > >::_S_key
_TEXT	ENDS
PUBLIC	??$_Construct@U?$pair@$$CBHUDESC@DescriptorManager@@@_STL@@U12@@_STL@@YAXPAU?$pair@$$CBHUDESC@DescriptorManager@@@0@ABU10@@Z ; _STL::_Construct<_STL::pair<int const ,DescriptorManager::DESC>,_STL::pair<int const ,DescriptorManager::DESC> >
; Function compile flags: /Ogty
; File c:\stlport-4.6.1\stlport\stl\_construct.h
;	COMDAT ??$_Construct@U?$pair@$$CBHUDESC@DescriptorManager@@@_STL@@U12@@_STL@@YAXPAU?$pair@$$CBHUDESC@DescriptorManager@@@0@ABU10@@Z
_TEXT	SEGMENT
___p$ = 8						; size = 4
___val$ = 12						; size = 4
??$_Construct@U?$pair@$$CBHUDESC@DescriptorManager@@@_STL@@U12@@_STL@@YAXPAU?$pair@$$CBHUDESC@DescriptorManager@@@0@ABU10@@Z PROC NEAR ; _STL::_Construct<_STL::pair<int const ,DescriptorManager::DESC>,_STL::pair<int const ,DescriptorManager::DESC> >, COMDAT

; 94   : # ifdef _STLP_DEBUG_UNINITIALIZED
; 95   : 	memset((char*)__p, _STLP_SHRED_BYTE, sizeof(_T1));
; 96   : # endif
; 97   :     _STLP_PLACEMENT_NEW (__p) _T1(__val);

  00000	8b 44 24 04	 mov	 eax, DWORD PTR ___p$[esp-4]
  00004	85 c0		 test	 eax, eax
  00006	74 19		 je	 SHORT $L91100
  00008	8b 4c 24 08	 mov	 ecx, DWORD PTR ___val$[esp-4]
  0000c	8b 11		 mov	 edx, DWORD PTR [ecx]
  0000e	56		 push	 esi
  0000f	57		 push	 edi
  00010	8d 71 04	 lea	 esi, DWORD PTR [ecx+4]
  00013	8d 78 04	 lea	 edi, DWORD PTR [eax+4]
  00016	b9 08 00 00 00	 mov	 ecx, 8
  0001b	89 10		 mov	 DWORD PTR [eax], edx
  0001d	f3 a5		 rep movsd
  0001f	5f		 pop	 edi
  00020	5e		 pop	 esi
$L91100:

; 98   : }

  00021	c3		 ret	 0
??$_Construct@U?$pair@$$CBHUDESC@DescriptorManager@@@_STL@@U12@@_STL@@YAXPAU?$pair@$$CBHUDESC@DescriptorManager@@@0@ABU10@@Z ENDP ; _STL::_Construct<_STL::pair<int const ,DescriptorManager::DESC>,_STL::pair<int const ,DescriptorManager::DESC> >
_TEXT	ENDS
PUBLIC	?Set@DescriptorManager@@QAEXKHHPAXJJ_NH@Z	; DescriptorManager::Set
; Function compile flags: /Ogty
; File c:\darkeden\designed_common\project\new - vs_ui\src\vs_ui_descriptor.cpp
;	COMDAT ?Set@DescriptorManager@@QAEXKHHPAXJJ_NH@Z
_TEXT	SEGMENT
_id$ = 8						; size = 4
_x$ = 12						; size = 4
_y$ = 16						; size = 4
_void_ptr$ = 20						; size = 4
_left$ = 24						; size = 4
_right$ = 28						; size = 4
_add$ = 32						; size = 1
_z_order$ = 36						; size = 4
?Set@DescriptorManager@@QAEXKHHPAXJJ_NH@Z PROC NEAR	; DescriptorManager::Set, COMDAT
; _this$ = ecx

; 41   : 	if (!add && !m_DescMap.empty()) // doing?

  00000	8a 44 24 1c	 mov	 al, BYTE PTR _add$[esp-4]
  00004	84 c0		 test	 al, al
  00006	75 07		 jne	 SHORT $L89062
  00008	8b 41 10	 mov	 eax, DWORD PTR [ecx+16]
  0000b	85 c0		 test	 eax, eax
  0000d	75 57		 jne	 SHORT $L89067
$L89062:
  0000f	56		 push	 esi

; 42   : 		return;
; 43   : 
; 44   : 	DESCRIBED_UNIT * data;
; 45   : 	for (int i=0; i < Size(); i++)

  00010	8b 71 08	 mov	 esi, DWORD PTR [ecx+8]
  00013	33 c0		 xor	 eax, eax
  00015	85 f6		 test	 esi, esi
  00017	7e 4c		 jle	 SHORT $L91135
  00019	57		 push	 edi
  0001a	8b 7c 24 0c	 mov	 edi, DWORD PTR _id$[esp+4]
  0001e	8b ff		 npad	 2
$L89065:

; 46   : 		if (Data(i, data))

  00020	85 c0		 test	 eax, eax
  00022	7c 0e		 jl	 SHORT $L89066
  00024	3b c6		 cmp	 eax, esi
  00026	7d 0a		 jge	 SHORT $L89066
  00028	8b 51 04	 mov	 edx, DWORD PTR [ecx+4]
  0002b	8b 14 82	 mov	 edx, DWORD PTR [edx+eax*4]

; 47   : 			if (data->id == id)

  0002e	39 3a		 cmp	 DWORD PTR [edx], edi
  00030	74 0a		 je	 SHORT $L91131
$L89066:

; 42   : 		return;
; 43   : 
; 44   : 	DESCRIBED_UNIT * data;
; 45   : 	for (int i=0; i < Size(); i++)

  00032	40		 inc	 eax
  00033	3b c6		 cmp	 eax, esi
  00035	7c e9		 jl	 SHORT $L89065
  00037	5f		 pop	 edi
  00038	5e		 pop	 esi

; 51   : 				return;
; 52   :  			}
; 53   : }

  00039	c2 20 00	 ret	 32			; 00000020H
$L91131:

; 48   : 			{
; 49   : 				assert(!gpC_base->m_p_DDSurface_back->IsLock());
; 50   : 				data->fp_rect_calculator(data->fp_show, x, y, void_ptr, left, right, z_order);

  0003c	8b 44 24 28	 mov	 eax, DWORD PTR _z_order$[esp+4]
  00040	8b 4c 24 20	 mov	 ecx, DWORD PTR _right$[esp+4]
  00044	50		 push	 eax
  00045	8b 44 24 20	 mov	 eax, DWORD PTR _left$[esp+8]
  00049	51		 push	 ecx
  0004a	8b 4c 24 20	 mov	 ecx, DWORD PTR _void_ptr$[esp+12]
  0004e	50		 push	 eax
  0004f	8b 44 24 20	 mov	 eax, DWORD PTR _y$[esp+16]
  00053	51		 push	 ecx
  00054	8b 4c 24 20	 mov	 ecx, DWORD PTR _x$[esp+20]
  00058	50		 push	 eax
  00059	8b 42 0c	 mov	 eax, DWORD PTR [edx+12]
  0005c	51		 push	 ecx
  0005d	50		 push	 eax
  0005e	ff 52 08	 call	 DWORD PTR [edx+8]
  00061	83 c4 1c	 add	 esp, 28			; 0000001cH
  00064	5f		 pop	 edi
$L91135:
  00065	5e		 pop	 esi
$L89067:

; 51   : 				return;
; 52   :  			}
; 53   : }

  00066	c2 20 00	 ret	 32			; 00000020H
?Set@DescriptorManager@@QAEXKHHPAXJJ_NH@Z ENDP		; DescriptorManager::Set
_TEXT	ENDS
PUBLIC	?AddDescribedUnit@DescriptorManager@@QAEXKP6AXP6AXVRect@@PAXJJ@ZHH1JJH@Z2_N@Z ; DescriptorManager::AddDescribedUnit
; Function compile flags: /Ogty
;	COMDAT ?AddDescribedUnit@DescriptorManager@@QAEXKP6AXP6AXVRect@@PAXJJ@ZHH1JJH@Z2_N@Z
_TEXT	SEGMENT
_id$ = 8						; size = 4
_fp_rect_calculator$ = 12				; size = 4
_fp_show$ = 16						; size = 4
_bl_immediate$ = 20					; size = 1
?AddDescribedUnit@DescriptorManager@@QAEXKP6AXP6AXVRect@@PAXJJ@ZHH1JJH@Z2_N@Z PROC NEAR ; DescriptorManager::AddDescribedUnit, COMDAT
; _this$ = ecx

; 130  : {

  00000	56		 push	 esi
  00001	8b f1		 mov	 esi, ecx

; 131  : 	// same id?
; 132  : 	DESCRIBED_UNIT * data;
; 133  : 	for (int i=0; i < Size(); i++)

  00003	8b 56 08	 mov	 edx, DWORD PTR [esi+8]
  00006	33 c0		 xor	 eax, eax
  00008	85 d2		 test	 edx, edx
  0000a	57		 push	 edi
  0000b	8b 7c 24 0c	 mov	 edi, DWORD PTR _id$[esp+4]
  0000f	7e 17		 jle	 SHORT $L89227
$L89225:

; 134  : 		if (Data(i, data))

  00011	85 c0		 test	 eax, eax
  00013	7c 0e		 jl	 SHORT $L89226
  00015	3b c2		 cmp	 eax, edx
  00017	7d 0a		 jge	 SHORT $L89226
  00019	8b 4e 04	 mov	 ecx, DWORD PTR [esi+4]
  0001c	8b 0c 81	 mov	 ecx, DWORD PTR [ecx+eax*4]

; 135  : 			if (data->id == id)

  0001f	39 39		 cmp	 DWORD PTR [ecx], edi
  00021	74 2e		 je	 SHORT $L89222
$L89226:

; 131  : 	// same id?
; 132  : 	DESCRIBED_UNIT * data;
; 133  : 	for (int i=0; i < Size(); i++)

  00023	40		 inc	 eax
  00024	3b c2		 cmp	 eax, edx
  00026	7c e9		 jl	 SHORT $L89225
$L89227:

; 136  : 				return;
; 137  : 
; 138  : 	DESCRIBED_UNIT * p_unit = new DESCRIBED_UNIT;

  00028	6a 10		 push	 16			; 00000010H
  0002a	e8 00 00 00 00	 call	 ??2@YAPAXI@Z		; operator new

; 139  : 
; 140  : 	p_unit->bl_immediate = bl_immediate;

  0002f	8a 54 24 1c	 mov	 dl, BYTE PTR _bl_immediate$[esp+8]

; 141  : 	p_unit->fp_rect_calculator = fp_rect_calculator;

  00033	8b 4c 24 14	 mov	 ecx, DWORD PTR _fp_rect_calculator$[esp+8]
  00037	83 c4 04	 add	 esp, 4
  0003a	88 50 04	 mov	 BYTE PTR [eax+4], dl

; 142  : 	p_unit->fp_show = fp_show;

  0003d	8b 54 24 14	 mov	 edx, DWORD PTR _fp_show$[esp+4]
  00041	89 48 08	 mov	 DWORD PTR [eax+8], ecx

; 143  : 	p_unit->id = id;
; 144  : 
; 145  : 	Add(p_unit);

  00044	50		 push	 eax
  00045	8b ce		 mov	 ecx, esi
  00047	89 50 0c	 mov	 DWORD PTR [eax+12], edx
  0004a	89 38		 mov	 DWORD PTR [eax], edi
  0004c	e8 00 00 00 00	 call	 ?Add@?$SimpleDataList@PAUDESCRIBED_UNIT@@@@QAE_NPAUDESCRIBED_UNIT@@@Z ; SimpleDataList<DESCRIBED_UNIT *>::Add
$L89222:
  00051	5f		 pop	 edi
  00052	5e		 pop	 esi

; 146  : }

  00053	c2 10 00	 ret	 16			; 00000010H
?AddDescribedUnit@DescriptorManager@@QAEXKP6AXP6AXVRect@@PAXJJ@ZHH1JJH@Z2_N@Z ENDP ; DescriptorManager::AddDescribedUnit
_TEXT	ENDS
PUBLIC	?begin@?$multimap@HUDESC@DescriptorManager@@U?$less@H@_STL@@V?$allocator@U?$pair@$$CBHUDESC@DescriptorManager@@@_STL@@@4@@_STL@@QAE?AU?$_Rb_tree_iterator@U?$pair@$$CBHUDESC@DescriptorManager@@@_STL@@U?$_Nonconst_traits@U?$pair@$$CBHUDESC@DescriptorManager@@@_STL@@@2@@2@XZ ; _STL::multimap<int,DescriptorManager::DESC,_STL::less<int>,_STL::allocator<_STL::pair<int const ,DescriptorManager::DESC> > >::begin
; Function compile flags: /Ogty
; File c:\stlport-4.6.1\stlport\stl\_map.h
;	COMDAT ?begin@?$multimap@HUDESC@DescriptorManager@@U?$less@H@_STL@@V?$allocator@U?$pair@$$CBHUDESC@DescriptorManager@@@_STL@@@4@@_STL@@QAE?AU?$_Rb_tree_iterator@U?$pair@$$CBHUDESC@DescriptorManager@@@_STL@@U?$_Nonconst_traits@U?$pair@$$CBHUDESC@DescriptorManager@@@_STL@@@2@@2@XZ
_TEXT	SEGMENT
___$ReturnUdt$ = 8					; size = 4
?begin@?$multimap@HUDESC@DescriptorManager@@U?$less@H@_STL@@V?$allocator@U?$pair@$$CBHUDESC@DescriptorManager@@@_STL@@@4@@_STL@@QAE?AU?$_Rb_tree_iterator@U?$pair@$$CBHUDESC@DescriptorManager@@@_STL@@U?$_Nonconst_traits@U?$pair@$$CBHUDESC@DescriptorManager@@@_STL@@@2@@2@XZ PROC NEAR ; _STL::multimap<int,DescriptorManager::DESC,_STL::less<int>,_STL::allocator<_STL::pair<int const ,DescriptorManager::DESC> > >::begin, COMDAT
; _this$ = ecx

; 318  :   iterator begin() { return _M_t.begin(); }

  00000	8b 01		 mov	 eax, DWORD PTR [ecx]
  00002	8b 48 08	 mov	 ecx, DWORD PTR [eax+8]
  00005	8b 44 24 04	 mov	 eax, DWORD PTR ___$ReturnUdt$[esp-4]
  00009	89 08		 mov	 DWORD PTR [eax], ecx
  0000b	c2 04 00	 ret	 4
?begin@?$multimap@HUDESC@DescriptorManager@@U?$less@H@_STL@@V?$allocator@U?$pair@$$CBHUDESC@DescriptorManager@@@_STL@@@4@@_STL@@QAE?AU?$_Rb_tree_iterator@U?$pair@$$CBHUDESC@DescriptorManager@@@_STL@@U?$_Nonconst_traits@U?$pair@$$CBHUDESC@DescriptorManager@@@_STL@@@2@@2@XZ ENDP ; _STL::multimap<int,DescriptorManager::DESC,_STL::less<int>,_STL::allocator<_STL::pair<int const ,DescriptorManager::DESC> > >::begin
_TEXT	ENDS
PUBLIC	?begin@?$multimap@HUDESC@DescriptorManager@@U?$less@H@_STL@@V?$allocator@U?$pair@$$CBHUDESC@DescriptorManager@@@_STL@@@4@@_STL@@QBE?AU?$_Rb_tree_iterator@U?$pair@$$CBHUDESC@DescriptorManager@@@_STL@@U?$_Const_traits@U?$pair@$$CBHUDESC@DescriptorManager@@@_STL@@@2@@2@XZ ; _STL::multimap<int,DescriptorManager::DESC,_STL::less<int>,_STL::allocator<_STL::pair<int const ,DescriptorManager::DESC> > >::begin
; Function compile flags: /Ogty
;	COMDAT ?begin@?$multimap@HUDESC@DescriptorManager@@U?$less@H@_STL@@V?$allocator@U?$pair@$$CBHUDESC@DescriptorManager@@@_STL@@@4@@_STL@@QBE?AU?$_Rb_tree_iterator@U?$pair@$$CBHUDESC@DescriptorManager@@@_STL@@U?$_Const_traits@U?$pair@$$CBHUDESC@DescriptorManager@@@_STL@@@2@@2@XZ
_TEXT	SEGMENT
___$ReturnUdt$ = 8					; size = 4
?begin@?$multimap@HUDESC@DescriptorManager@@U?$less@H@_STL@@V?$allocator@U?$pair@$$CBHUDESC@DescriptorManager@@@_STL@@@4@@_STL@@QBE?AU?$_Rb_tree_iterator@U?$pair@$$CBHUDESC@DescriptorManager@@@_STL@@U?$_Const_traits@U?$pair@$$CBHUDESC@DescriptorManager@@@_STL@@@2@@2@XZ PROC NEAR ; _STL::multimap<int,DescriptorManager::DESC,_STL::less<int>,_STL::allocator<_STL::pair<int const ,DescriptorManager::DESC> > >::begin, COMDAT
; _this$ = ecx

; 319  :   const_iterator begin() const { return _M_t.begin(); }

  00000	8b 01		 mov	 eax, DWORD PTR [ecx]
  00002	8b 48 08	 mov	 ecx, DWORD PTR [eax+8]
  00005	8b 44 24 04	 mov	 eax, DWORD PTR ___$ReturnUdt$[esp-4]
  00009	89 08		 mov	 DWORD PTR [eax], ecx
  0000b	c2 04 00	 ret	 4
?begin@?$multimap@HUDESC@DescriptorManager@@U?$less@H@_STL@@V?$allocator@U?$pair@$$CBHUDESC@DescriptorManager@@@_STL@@@4@@_STL@@QBE?AU?$_Rb_tree_iterator@U?$pair@$$CBHUDESC@DescriptorManager@@@_STL@@U?$_Const_traits@U?$pair@$$CBHUDESC@DescriptorManager@@@_STL@@@2@@2@XZ ENDP ; _STL::multimap<int,DescriptorManager::DESC,_STL::less<int>,_STL::allocator<_STL::pair<int const ,DescriptorManager::DESC> > >::begin
_TEXT	ENDS
PUBLIC	?end@?$multimap@HUDESC@DescriptorManager@@U?$less@H@_STL@@V?$allocator@U?$pair@$$CBHUDESC@DescriptorManager@@@_STL@@@4@@_STL@@QAE?AU?$_Rb_tree_iterator@U?$pair@$$CBHUDESC@DescriptorManager@@@_STL@@U?$_Nonconst_traits@U?$pair@$$CBHUDESC@DescriptorManager@@@_STL@@@2@@2@XZ ; _STL::multimap<int,DescriptorManager::DESC,_STL::less<int>,_STL::allocator<_STL::pair<int const ,DescriptorManager::DESC> > >::end
; Function compile flags: /Ogty
;	COMDAT ?end@?$multimap@HUDESC@DescriptorManager@@U?$less@H@_STL@@V?$allocator@U?$pair@$$CBHUDESC@DescriptorManager@@@_STL@@@4@@_STL@@QAE?AU?$_Rb_tree_iterator@U?$pair@$$CBHUDESC@DescriptorManager@@@_STL@@U?$_Nonconst_traits@U?$pair@$$CBHUDESC@DescriptorManager@@@_STL@@@2@@2@XZ
_TEXT	SEGMENT
___$ReturnUdt$ = 8					; size = 4
?end@?$multimap@HUDESC@DescriptorManager@@U?$less@H@_STL@@V?$allocator@U?$pair@$$CBHUDESC@DescriptorManager@@@_STL@@@4@@_STL@@QAE?AU?$_Rb_tree_iterator@U?$pair@$$CBHUDESC@DescriptorManager@@@_STL@@U?$_Nonconst_traits@U?$pair@$$CBHUDESC@DescriptorManager@@@_STL@@@2@@2@XZ PROC NEAR ; _STL::multimap<int,DescriptorManager::DESC,_STL::less<int>,_STL::allocator<_STL::pair<int const ,DescriptorManager::DESC> > >::end, COMDAT
; _this$ = ecx

; 320  :   iterator end() { return _M_t.end(); }

  00000	8b 09		 mov	 ecx, DWORD PTR [ecx]
  00002	8b 44 24 04	 mov	 eax, DWORD PTR ___$ReturnUdt$[esp-4]
  00006	89 08		 mov	 DWORD PTR [eax], ecx
  00008	c2 04 00	 ret	 4
?end@?$multimap@HUDESC@DescriptorManager@@U?$less@H@_STL@@V?$allocator@U?$pair@$$CBHUDESC@DescriptorManager@@@_STL@@@4@@_STL@@QAE?AU?$_Rb_tree_iterator@U?$pair@$$CBHUDESC@DescriptorManager@@@_STL@@U?$_Nonconst_traits@U?$pair@$$CBHUDESC@DescriptorManager@@@_STL@@@2@@2@XZ ENDP ; _STL::multimap<int,DescriptorManager::DESC,_STL::less<int>,_STL::allocator<_STL::pair<int const ,DescriptorManager::DESC> > >::end
_TEXT	ENDS
PUBLIC	?end@?$multimap@HUDESC@DescriptorManager@@U?$less@H@_STL@@V?$allocator@U?$pair@$$CBHUDESC@DescriptorManager@@@_STL@@@4@@_STL@@QBE?AU?$_Rb_tree_iterator@U?$pair@$$CBHUDESC@DescriptorManager@@@_STL@@U?$_Const_traits@U?$pair@$$CBHUDESC@DescriptorManager@@@_STL@@@2@@2@XZ ; _STL::multimap<int,DescriptorManager::DESC,_STL::less<int>,_STL::allocator<_STL::pair<int const ,DescriptorManager::DESC> > >::end
; Function compile flags: /Ogty
;	COMDAT ?end@?$multimap@HUDESC@DescriptorManager@@U?$less@H@_STL@@V?$allocator@U?$pair@$$CBHUDESC@DescriptorManager@@@_STL@@@4@@_STL@@QBE?AU?$_Rb_tree_iterator@U?$pair@$$CBHUDESC@DescriptorManager@@@_STL@@U?$_Const_traits@U?$pair@$$CBHUDESC@DescriptorManager@@@_STL@@@2@@2@XZ
_TEXT	SEGMENT
___$ReturnUdt$ = 8					; size = 4
?end@?$multimap@HUDESC@DescriptorManager@@U?$less@H@_STL@@V?$allocator@U?$pair@$$CBHUDESC@DescriptorManager@@@_STL@@@4@@_STL@@QBE?AU?$_Rb_tree_iterator@U?$pair@$$CBHUDESC@DescriptorManager@@@_STL@@U?$_Const_traits@U?$pair@$$CBHUDESC@DescriptorManager@@@_STL@@@2@@2@XZ PROC NEAR ; _STL::multimap<int,DescriptorManager::DESC,_STL::less<int>,_STL::allocator<_STL::pair<int const ,DescriptorManager::DESC> > >::end, COMDAT
; _this$ = ecx

; 321  :   const_iterator end() const { return _M_t.end(); }

  00000	8b 09		 mov	 ecx, DWORD PTR [ecx]
  00002	8b 44 24 04	 mov	 eax, DWORD PTR ___$ReturnUdt$[esp-4]
  00006	89 08		 mov	 DWORD PTR [eax], ecx
  00008	c2 04 00	 ret	 4
?end@?$multimap@HUDESC@DescriptorManager@@U?$less@H@_STL@@V?$allocator@U?$pair@$$CBHUDESC@DescriptorManager@@@_STL@@@4@@_STL@@QBE?AU?$_Rb_tree_iterator@U?$pair@$$CBHUDESC@DescriptorManager@@@_STL@@U?$_Const_traits@U?$pair@$$CBHUDESC@DescriptorManager@@@_STL@@@2@@2@XZ ENDP ; _STL::multimap<int,DescriptorManager::DESC,_STL::less<int>,_STL::allocator<_STL::pair<int const ,DescriptorManager::DESC> > >::end
_TEXT	ENDS
PUBLIC	?erase@?$_Rb_tree@HU?$pair@$$CBHUDESC@DescriptorManager@@@_STL@@U?$_Select1st@U?$pair@$$CBHUDESC@DescriptorManager@@@_STL@@@2@U?$less@H@2@V?$allocator@U?$pair@$$CBHUDESC@DescriptorManager@@@_STL@@@2@@_STL@@QAEXU?$_Rb_tree_iterator@U?$pair@$$CBHUDESC@DescriptorManager@@@_STL@@U?$_Nonconst_traits@U?$pair@$$CBHUDESC@DescriptorManager@@@_STL@@@2@@2@@Z ; _STL::_Rb_tree<int,_STL::pair<int const ,DescriptorManager::DESC>,_STL::_Select1st<_STL::pair<int const ,DescriptorManager::DESC> >,_STL::less<int>,_STL::allocator<_STL::pair<int const ,DescriptorManager::DESC> > >::erase
EXTRN	?_Rebalance_for_erase@?$_Rb_global@_N@_STL@@SAPAU_Rb_tree_node_base@2@PAU32@AAPAU32@11@Z:NEAR ; _STL::_Rb_global<bool>::_Rebalance_for_erase
; Function compile flags: /Ogty
; File c:\stlport-4.6.1\stlport\stl\_tree.h
;	COMDAT ?erase@?$_Rb_tree@HU?$pair@$$CBHUDESC@DescriptorManager@@@_STL@@U?$_Select1st@U?$pair@$$CBHUDESC@DescriptorManager@@@_STL@@@2@U?$less@H@2@V?$allocator@U?$pair@$$CBHUDESC@DescriptorManager@@@_STL@@@2@@_STL@@QAEXU?$_Rb_tree_iterator@U?$pair@$$CBHUDESC@DescriptorManager@@@_STL@@U?$_Nonconst_traits@U?$pair@$$CBHUDESC@DescriptorManager@@@_STL@@@2@@2@@Z
_TEXT	SEGMENT
___position$ = 8					; size = 4
?erase@?$_Rb_tree@HU?$pair@$$CBHUDESC@DescriptorManager@@@_STL@@U?$_Select1st@U?$pair@$$CBHUDESC@DescriptorManager@@@_STL@@@2@U?$less@H@2@V?$allocator@U?$pair@$$CBHUDESC@DescriptorManager@@@_STL@@@2@@_STL@@QAEXU?$_Rb_tree_iterator@U?$pair@$$CBHUDESC@DescriptorManager@@@_STL@@U?$_Nonconst_traits@U?$pair@$$CBHUDESC@DescriptorManager@@@_STL@@@2@@2@@Z PROC NEAR ; _STL::_Rb_tree<int,_STL::pair<int const ,DescriptorManager::DESC>,_STL::_Select1st<_STL::pair<int const ,DescriptorManager::DESC> >,_STL::less<int>,_STL::allocator<_STL::pair<int const ,DescriptorManager::DESC> > >::erase, COMDAT
; _this$ = ecx

; 416  :   void erase(iterator __position) {

  00000	56		 push	 esi
  00001	8b f1		 mov	 esi, ecx

; 417  :     _Link_type __y = 
; 418  :       (_Link_type) _Rb_global_inst::_Rebalance_for_erase(__position._M_node,
; 419  : 							 this->_M_header._M_data->_M_parent,
; 420  : 							 this->_M_header._M_data->_M_left,
; 421  : 							 this->_M_header._M_data->_M_right);

  00003	8b 06		 mov	 eax, DWORD PTR [esi]
  00005	57		 push	 edi
  00006	8d 48 0c	 lea	 ecx, DWORD PTR [eax+12]
  00009	51		 push	 ecx
  0000a	8d 50 08	 lea	 edx, DWORD PTR [eax+8]
  0000d	52		 push	 edx
  0000e	83 c0 04	 add	 eax, 4
  00011	50		 push	 eax
  00012	8b 44 24 18	 mov	 eax, DWORD PTR ___position$[esp+16]
  00016	50		 push	 eax
  00017	e8 00 00 00 00	 call	 ?_Rebalance_for_erase@?$_Rb_global@_N@_STL@@SAPAU_Rb_tree_node_base@2@PAU32@AAPAU32@11@Z ; _STL::_Rb_global<bool>::_Rebalance_for_erase
  0001c	8b f8		 mov	 edi, eax
  0001e	83 c4 10	 add	 esp, 16			; 00000010H

; 422  :     _STLP_STD::_Destroy(&__y->_M_value_field);

  00021	8d 4f 10	 lea	 ecx, DWORD PTR [edi+16]
  00024	e8 00 00 00 00	 call	 ??1?$pair@$$CBHUDESC@DescriptorManager@@@_STL@@QAE@XZ

; 423  :     this->_M_header.deallocate(__y,1);

  00029	85 ff		 test	 edi, edi
  0002b	74 0b		 je	 SHORT $L91250
  0002d	6a 34		 push	 52			; 00000034H
  0002f	57		 push	 edi
  00030	e8 00 00 00 00	 call	 ?_M_deallocate@?$__node_alloc@$00$0A@@_STL@@CAXPAXI@Z ; _STL::__node_alloc<1,0>::_M_deallocate
  00035	83 c4 08	 add	 esp, 8
$L91250:

; 424  :     --_M_node_count;

  00038	8b 46 04	 mov	 eax, DWORD PTR [esi+4]
  0003b	48		 dec	 eax
  0003c	5f		 pop	 edi
  0003d	89 46 04	 mov	 DWORD PTR [esi+4], eax
  00040	5e		 pop	 esi

; 425  :   }

  00041	c2 04 00	 ret	 4
?erase@?$_Rb_tree@HU?$pair@$$CBHUDESC@DescriptorManager@@@_STL@@U?$_Select1st@U?$pair@$$CBHUDESC@DescriptorManager@@@_STL@@@2@U?$less@H@2@V?$allocator@U?$pair@$$CBHUDESC@DescriptorManager@@@_STL@@@2@@_STL@@QAEXU?$_Rb_tree_iterator@U?$pair@$$CBHUDESC@DescriptorManager@@@_STL@@U?$_Nonconst_traits@U?$pair@$$CBHUDESC@DescriptorManager@@@_STL@@@2@@2@@Z ENDP ; _STL::_Rb_tree<int,_STL::pair<int const ,DescriptorManager::DESC>,_STL::_Select1st<_STL::pair<int const ,DescriptorManager::DESC> >,_STL::less<int>,_STL::allocator<_STL::pair<int const ,DescriptorManager::DESC> > >::erase
_TEXT	ENDS
PUBLIC	??1?$_Rb_tree_base@U?$pair@$$CBHUDESC@DescriptorManager@@@_STL@@V?$allocator@U?$pair@$$CBHUDESC@DescriptorManager@@@_STL@@@2@@_STL@@QAE@XZ ; _STL::_Rb_tree_base<_STL::pair<int const ,DescriptorManager::DESC>,_STL::allocator<_STL::pair<int const ,DescriptorManager::DESC> > >::~_Rb_tree_base<_STL::pair<int const ,DescriptorManager::DESC>,_STL::allocator<_STL::pair<int const ,DescriptorManager::DESC> > >
; Function compile flags: /Ogty
;	COMDAT ??1?$_Rb_tree_base@U?$pair@$$CBHUDESC@DescriptorManager@@@_STL@@V?$allocator@U?$pair@$$CBHUDESC@DescriptorManager@@@_STL@@@2@@_STL@@QAE@XZ
_TEXT	SEGMENT
??1?$_Rb_tree_base@U?$pair@$$CBHUDESC@DescriptorManager@@@_STL@@V?$allocator@U?$pair@$$CBHUDESC@DescriptorManager@@@_STL@@@2@@_STL@@QAE@XZ PROC NEAR ; _STL::_Rb_tree_base<_STL::pair<int const ,DescriptorManager::DESC>,_STL::allocator<_STL::pair<int const ,DescriptorManager::DESC> > >::~_Rb_tree_base<_STL::pair<int const ,DescriptorManager::DESC>,_STL::allocator<_STL::pair<int const ,DescriptorManager::DESC> > >, COMDAT
; _this$ = ecx

; 208  :     _M_header.deallocate(_M_header._M_data,1); 

  00000	8b 01		 mov	 eax, DWORD PTR [ecx]
  00002	85 c0		 test	 eax, eax
  00004	74 0b		 je	 SHORT $L91272
  00006	6a 34		 push	 52			; 00000034H
  00008	50		 push	 eax
  00009	e8 00 00 00 00	 call	 ?_M_deallocate@?$__node_alloc@$00$0A@@_STL@@CAXPAXI@Z ; _STL::__node_alloc<1,0>::_M_deallocate
  0000e	83 c4 08	 add	 esp, 8
$L91272:

; 209  :   }

  00011	c3		 ret	 0
??1?$_Rb_tree_base@U?$pair@$$CBHUDESC@DescriptorManager@@@_STL@@V?$allocator@U?$pair@$$CBHUDESC@DescriptorManager@@@_STL@@@2@@_STL@@QAE@XZ ENDP ; _STL::_Rb_tree_base<_STL::pair<int const ,DescriptorManager::DESC>,_STL::allocator<_STL::pair<int const ,DescriptorManager::DESC> > >::~_Rb_tree_base<_STL::pair<int const ,DescriptorManager::DESC>,_STL::allocator<_STL::pair<int const ,DescriptorManager::DESC> > >
_TEXT	ENDS
PUBLIC	??0?$_Rb_tree_base@U?$pair@$$CBHUDESC@DescriptorManager@@@_STL@@V?$allocator@U?$pair@$$CBHUDESC@DescriptorManager@@@_STL@@@2@@_STL@@QAE@ABV?$allocator@U?$pair@$$CBHUDESC@DescriptorManager@@@_STL@@@1@@Z ; _STL::_Rb_tree_base<_STL::pair<int const ,DescriptorManager::DESC>,_STL::allocator<_STL::pair<int const ,DescriptorManager::DESC> > >::_Rb_tree_base<_STL::pair<int const ,DescriptorManager::DESC>,_STL::allocator<_STL::pair<int const ,DescriptorManager::DESC> > >
; Function compile flags: /Ogty
;	COMDAT ??0?$_Rb_tree_base@U?$pair@$$CBHUDESC@DescriptorManager@@@_STL@@V?$allocator@U?$pair@$$CBHUDESC@DescriptorManager@@@_STL@@@2@@_STL@@QAE@ABV?$allocator@U?$pair@$$CBHUDESC@DescriptorManager@@@_STL@@@1@@Z
_TEXT	SEGMENT
$T91279 = -1						; size = 1
___a$ = 8						; size = 4
??0?$_Rb_tree_base@U?$pair@$$CBHUDESC@DescriptorManager@@@_STL@@V?$allocator@U?$pair@$$CBHUDESC@DescriptorManager@@@_STL@@@2@@_STL@@QAE@ABV?$allocator@U?$pair@$$CBHUDESC@DescriptorManager@@@_STL@@@1@@Z PROC NEAR ; _STL::_Rb_tree_base<_STL::pair<int const ,DescriptorManager::DESC>,_STL::allocator<_STL::pair<int const ,DescriptorManager::DESC> > >::_Rb_tree_base<_STL::pair<int const ,DescriptorManager::DESC>,_STL::allocator<_STL::pair<int const ,DescriptorManager::DESC> > >, COMDAT
; _this$ = ecx

; 204  :     _M_header(_STLP_CONVERT_ALLOCATOR(__a, _Node), (_Node*)0) { 

  00000	51		 push	 ecx
  00001	56		 push	 esi
  00002	6a 00		 push	 0
  00004	8d 44 24 0b	 lea	 eax, DWORD PTR $T91279[esp+12]
  00008	50		 push	 eax
  00009	8b f1		 mov	 esi, ecx
  0000b	e8 00 00 00 00	 call	 ??0?$_STLP_alloc_proxy@PAU?$_Rb_tree_node@U?$pair@$$CBHUDESC@DescriptorManager@@@_STL@@@_STL@@U12@V?$allocator@U?$_Rb_tree_node@U?$pair@$$CBHUDESC@DescriptorManager@@@_STL@@@_STL@@@2@@_STL@@QAE@ABV?$allocator@U?$_Rb_tree_node@U?$pair@$$CBHUDESC@DescriptorManager@@@_STL@@@_STL@@@1@PAU?$_Rb_tree_node@U?$pair@$$CBHUDESC@DescriptorManager@@@_STL@@@1@@Z ; _STL::_STLP_alloc_proxy<_STL::_Rb_tree_node<_STL::pair<int const ,DescriptorManager::DESC> > *,_STL::_Rb_tree_node<_STL::pair<int const ,DescriptorManager::DESC> >,_STL::allocator<_STL::_Rb_tree_node<_STL::pair<int const ,DescriptorManager::DESC> > > >::_STLP_alloc_proxy<_STL::_Rb_tree_node<_STL::pair<int const ,DescriptorManager::DESC> > *,_STL::_Rb_tree_node<_STL::pair<int const ,DescriptorManager::DESC> >,_STL::allocator<_STL::_Rb_tree_node<_STL::pair<int const ,DescriptorManager::DESC> > > >

; 205  :       _M_header._M_data = _M_header.allocate(1); 

  00010	6a 34		 push	 52			; 00000034H
  00012	e8 00 00 00 00	 call	 ?_M_allocate@?$__node_alloc@$00$0A@@_STL@@CAPAXI@Z ; _STL::__node_alloc<1,0>::_M_allocate
  00017	89 06		 mov	 DWORD PTR [esi], eax
  00019	83 c4 04	 add	 esp, 4

; 206  :   }

  0001c	8b c6		 mov	 eax, esi
  0001e	5e		 pop	 esi
  0001f	59		 pop	 ecx
  00020	c2 04 00	 ret	 4
??0?$_Rb_tree_base@U?$pair@$$CBHUDESC@DescriptorManager@@@_STL@@V?$allocator@U?$pair@$$CBHUDESC@DescriptorManager@@@_STL@@@2@@_STL@@QAE@ABV?$allocator@U?$pair@$$CBHUDESC@DescriptorManager@@@_STL@@@1@@Z ENDP ; _STL::_Rb_tree_base<_STL::pair<int const ,DescriptorManager::DESC>,_STL::allocator<_STL::pair<int const ,DescriptorManager::DESC> > >::_Rb_tree_base<_STL::pair<int const ,DescriptorManager::DESC>,_STL::allocator<_STL::pair<int const ,DescriptorManager::DESC> > >
_TEXT	ENDS
PUBLIC	?_M_erase@?$_Rb_tree@HU?$pair@$$CBHUDESC@DescriptorManager@@@_STL@@U?$_Select1st@U?$pair@$$CBHUDESC@DescriptorManager@@@_STL@@@2@U?$less@H@2@V?$allocator@U?$pair@$$CBHUDESC@DescriptorManager@@@_STL@@@2@@_STL@@AAEXPAU?$_Rb_tree_node@U?$pair@$$CBHUDESC@DescriptorManager@@@_STL@@@2@@Z ; _STL::_Rb_tree<int,_STL::pair<int const ,DescriptorManager::DESC>,_STL::_Select1st<_STL::pair<int const ,DescriptorManager::DESC> >,_STL::less<int>,_STL::allocator<_STL::pair<int const ,DescriptorManager::DESC> > >::_M_erase
; Function compile flags: /Ogty
; File c:\stlport-4.6.1\stlport\stl\_tree.c
;	COMDAT ?_M_erase@?$_Rb_tree@HU?$pair@$$CBHUDESC@DescriptorManager@@@_STL@@U?$_Select1st@U?$pair@$$CBHUDESC@DescriptorManager@@@_STL@@@2@U?$less@H@2@V?$allocator@U?$pair@$$CBHUDESC@DescriptorManager@@@_STL@@@2@@_STL@@AAEXPAU?$_Rb_tree_node@U?$pair@$$CBHUDESC@DescriptorManager@@@_STL@@@2@@Z
_TEXT	SEGMENT
___x$ = 8						; size = 4
?_M_erase@?$_Rb_tree@HU?$pair@$$CBHUDESC@DescriptorManager@@@_STL@@U?$_Select1st@U?$pair@$$CBHUDESC@DescriptorManager@@@_STL@@@2@U?$less@H@2@V?$allocator@U?$pair@$$CBHUDESC@DescriptorManager@@@_STL@@@2@@_STL@@AAEXPAU?$_Rb_tree_node@U?$pair@$$CBHUDESC@DescriptorManager@@@_STL@@@2@@Z PROC NEAR ; _STL::_Rb_tree<int,_STL::pair<int const ,DescriptorManager::DESC>,_STL::_Select1st<_STL::pair<int const ,DescriptorManager::DESC> >,_STL::less<int>,_STL::allocator<_STL::pair<int const ,DescriptorManager::DESC> > >::_M_erase, COMDAT
; _this$ = ecx

; 637  : {

  00000	53		 push	 ebx
  00001	56		 push	 esi

; 638  :                                 // erase without rebalancing
; 639  :   while (__x != 0) {

  00002	8b 74 24 0c	 mov	 esi, DWORD PTR ___x$[esp+4]
  00006	85 f6		 test	 esi, esi
  00008	8b d9		 mov	 ebx, ecx
  0000a	74 2c		 je	 SHORT $L89839
  0000c	57		 push	 edi
  0000d	8d 49 00	 npad	 3
$L89838:

; 640  :     _M_erase(_S_right(__x));

  00010	8b 46 0c	 mov	 eax, DWORD PTR [esi+12]
  00013	50		 push	 eax
  00014	8b cb		 mov	 ecx, ebx
  00016	e8 00 00 00 00	 call	 ?_M_erase@?$_Rb_tree@HU?$pair@$$CBHUDESC@DescriptorManager@@@_STL@@U?$_Select1st@U?$pair@$$CBHUDESC@DescriptorManager@@@_STL@@@2@U?$less@H@2@V?$allocator@U?$pair@$$CBHUDESC@DescriptorManager@@@_STL@@@2@@_STL@@AAEXPAU?$_Rb_tree_node@U?$pair@$$CBHUDESC@DescriptorManager@@@_STL@@@2@@Z ; _STL::_Rb_tree<int,_STL::pair<int const ,DescriptorManager::DESC>,_STL::_Select1st<_STL::pair<int const ,DescriptorManager::DESC> >,_STL::less<int>,_STL::allocator<_STL::pair<int const ,DescriptorManager::DESC> > >::_M_erase

; 641  :     _Link_type __y = _S_left(__x);

  0001b	8b 7e 08	 mov	 edi, DWORD PTR [esi+8]

; 642  :     _STLP_STD::_Destroy(&__x->_M_value_field);

  0001e	8d 4e 10	 lea	 ecx, DWORD PTR [esi+16]
  00021	e8 00 00 00 00	 call	 ??1?$pair@$$CBHUDESC@DescriptorManager@@@_STL@@QAE@XZ

; 643  :     this->_M_header.deallocate(__x,1);

  00026	6a 34		 push	 52			; 00000034H
  00028	56		 push	 esi
  00029	e8 00 00 00 00	 call	 ?_M_deallocate@?$__node_alloc@$00$0A@@_STL@@CAXPAXI@Z ; _STL::__node_alloc<1,0>::_M_deallocate
  0002e	83 c4 08	 add	 esp, 8
  00031	85 ff		 test	 edi, edi

; 644  :     __x = __y;

  00033	8b f7		 mov	 esi, edi
  00035	75 d9		 jne	 SHORT $L89838
  00037	5f		 pop	 edi
$L89839:
  00038	5e		 pop	 esi
  00039	5b		 pop	 ebx

; 645  :   }
; 646  : }

  0003a	c2 04 00	 ret	 4
?_M_erase@?$_Rb_tree@HU?$pair@$$CBHUDESC@DescriptorManager@@@_STL@@U?$_Select1st@U?$pair@$$CBHUDESC@DescriptorManager@@@_STL@@@2@U?$less@H@2@V?$allocator@U?$pair@$$CBHUDESC@DescriptorManager@@@_STL@@@2@@_STL@@AAEXPAU?$_Rb_tree_node@U?$pair@$$CBHUDESC@DescriptorManager@@@_STL@@@2@@Z ENDP ; _STL::_Rb_tree<int,_STL::pair<int const ,DescriptorManager::DESC>,_STL::_Select1st<_STL::pair<int const ,DescriptorManager::DESC> >,_STL::less<int>,_STL::allocator<_STL::pair<int const ,DescriptorManager::DESC> > >::_M_erase
_TEXT	ENDS
PUBLIC	?_M_create_node@?$_Rb_tree@HU?$pair@$$CBHUDESC@DescriptorManager@@@_STL@@U?$_Select1st@U?$pair@$$CBHUDESC@DescriptorManager@@@_STL@@@2@U?$less@H@2@V?$allocator@U?$pair@$$CBHUDESC@DescriptorManager@@@_STL@@@2@@_STL@@IAEPAU?$_Rb_tree_node@U?$pair@$$CBHUDESC@DescriptorManager@@@_STL@@@2@ABU?$pair@$$CBHUDESC@DescriptorManager@@@2@@Z ; _STL::_Rb_tree<int,_STL::pair<int const ,DescriptorManager::DESC>,_STL::_Select1st<_STL::pair<int const ,DescriptorManager::DESC> >,_STL::less<int>,_STL::allocator<_STL::pair<int const ,DescriptorManager::DESC> > >::_M_create_node
EXTRN	__CxxThrowException@8:NEAR
; Function compile flags: /Ogty
; File c:\stlport-4.6.1\stlport\stl\_tree.h
;	COMDAT ?_M_create_node@?$_Rb_tree@HU?$pair@$$CBHUDESC@DescriptorManager@@@_STL@@U?$_Select1st@U?$pair@$$CBHUDESC@DescriptorManager@@@_STL@@@2@U?$less@H@2@V?$allocator@U?$pair@$$CBHUDESC@DescriptorManager@@@_STL@@@2@@_STL@@IAEPAU?$_Rb_tree_node@U?$pair@$$CBHUDESC@DescriptorManager@@@_STL@@@2@ABU?$pair@$$CBHUDESC@DescriptorManager@@@2@@Z
_TEXT	SEGMENT
___x$ = 8						; size = 4
?_M_create_node@?$_Rb_tree@HU?$pair@$$CBHUDESC@DescriptorManager@@@_STL@@U?$_Select1st@U?$pair@$$CBHUDESC@DescriptorManager@@@_STL@@@2@U?$less@H@2@V?$allocator@U?$pair@$$CBHUDESC@DescriptorManager@@@_STL@@@2@@_STL@@IAEPAU?$_Rb_tree_node@U?$pair@$$CBHUDESC@DescriptorManager@@@_STL@@@2@ABU?$pair@$$CBHUDESC@DescriptorManager@@@2@@Z PROC NEAR ; _STL::_Rb_tree<int,_STL::pair<int const ,DescriptorManager::DESC>,_STL::_Select1st<_STL::pair<int const ,DescriptorManager::DESC> >,_STL::less<int>,_STL::allocator<_STL::pair<int const ,DescriptorManager::DESC> > >::_M_create_node, COMDAT
; _this$ = ecx

; 243  :     _Link_type __tmp = this->_M_header.allocate(1);

  00000	6a 34		 push	 52			; 00000034H
  00002	e8 00 00 00 00	 call	 ?_M_allocate@?$__node_alloc@$00$0A@@_STL@@CAPAXI@Z ; _STL::__node_alloc<1,0>::_M_allocate

; 244  :     _STLP_TRY {
; 245  :       _Construct(&__tmp->_M_value_field, __x);

  00007	8d 48 10	 lea	 ecx, DWORD PTR [eax+16]
  0000a	83 c4 04	 add	 esp, 4
  0000d	85 c9		 test	 ecx, ecx
  0000f	74 19		 je	 SHORT $L91399
  00011	8b 54 24 04	 mov	 edx, DWORD PTR ___x$[esp-4]
  00015	56		 push	 esi
  00016	8b 32		 mov	 esi, DWORD PTR [edx]
  00018	57		 push	 edi
  00019	89 31		 mov	 DWORD PTR [ecx], esi
  0001b	8d 79 04	 lea	 edi, DWORD PTR [ecx+4]
  0001e	8d 72 04	 lea	 esi, DWORD PTR [edx+4]
  00021	b9 08 00 00 00	 mov	 ecx, 8
  00026	f3 a5		 rep movsd
  00028	5f		 pop	 edi
  00029	5e		 pop	 esi
$L91399:

; 246  :     }
; 247  :     _STLP_UNWIND(this->_M_header.deallocate(__tmp,1));
; 248  :     return __tmp;
; 249  :   }

  0002a	c2 04 00	 ret	 4
?_M_create_node@?$_Rb_tree@HU?$pair@$$CBHUDESC@DescriptorManager@@@_STL@@U?$_Select1st@U?$pair@$$CBHUDESC@DescriptorManager@@@_STL@@@2@U?$less@H@2@V?$allocator@U?$pair@$$CBHUDESC@DescriptorManager@@@_STL@@@2@@_STL@@IAEPAU?$_Rb_tree_node@U?$pair@$$CBHUDESC@DescriptorManager@@@_STL@@@2@ABU?$pair@$$CBHUDESC@DescriptorManager@@@2@@Z ENDP ; _STL::_Rb_tree<int,_STL::pair<int const ,DescriptorManager::DESC>,_STL::_Select1st<_STL::pair<int const ,DescriptorManager::DESC> >,_STL::less<int>,_STL::allocator<_STL::pair<int const ,DescriptorManager::DESC> > >::_M_create_node
_TEXT	ENDS
PUBLIC	?GetDesc@DescriptorManager@@QBEPBUDESC@1@PAX@Z	; DescriptorManager::GetDesc
; Function compile flags: /Ogty
; File c:\darkeden\designed_common\project\new - vs_ui\src\vs_ui_descriptor.cpp
;	COMDAT ?GetDesc@DescriptorManager@@QBEPBUDESC@1@PAX@Z
_TEXT	SEGMENT
_void_ptr$ = 8						; size = 4
?GetDesc@DescriptorManager@@QBEPBUDESC@1@PAX@Z PROC NEAR ; DescriptorManager::GetDesc, COMDAT
; _this$ = ecx

; 55   : {

  00000	56		 push	 esi

; 56   : 	DescMap::const_iterator iter = m_DescMap.begin();

  00001	8b 71 0c	 mov	 esi, DWORD PTR [ecx+12]
  00004	8b 46 08	 mov	 eax, DWORD PTR [esi+8]

; 57   : 	DescMap::const_iterator endIter = m_DescMap.end();
; 58   : 	for(; iter != endIter; ++iter)

  00007	3b c6		 cmp	 eax, esi
  00009	57		 push	 edi
  0000a	74 1b		 je	 SHORT $L89151
  0000c	8b 7c 24 0c	 mov	 edi, DWORD PTR _void_ptr$[esp+4]
$L91472:

; 59   : 	{
; 60   : 		const DESC& desc = iter->second;
; 61   : 		if(desc.m_fp_show_param.void_ptr == void_ptr)

  00010	8b 50 28	 mov	 edx, DWORD PTR [eax+40]
  00013	3b d7		 cmp	 edx, edi
  00015	8d 48 14	 lea	 ecx, DWORD PTR [eax+20]
  00018	74 14		 je	 SHORT $L91486
  0001a	50		 push	 eax
  0001b	e8 00 00 00 00	 call	 ?_M_increment@?$_Rb_global@_N@_STL@@SAPAU_Rb_tree_node_base@2@PAU32@@Z ; _STL::_Rb_global<bool>::_M_increment
  00020	83 c4 04	 add	 esp, 4
  00023	3b c6		 cmp	 eax, esi
  00025	75 e9		 jne	 SHORT $L91472
$L89151:
  00027	5f		 pop	 edi

; 63   : 	}
; 64   : 	return NULL;

  00028	33 c0		 xor	 eax, eax
  0002a	5e		 pop	 esi

; 65   : }

  0002b	c2 04 00	 ret	 4
$L91486:
  0002e	5f		 pop	 edi

; 62   : 			return &desc;

  0002f	8b c1		 mov	 eax, ecx
  00031	5e		 pop	 esi

; 65   : }

  00032	c2 04 00	 ret	 4
?GetDesc@DescriptorManager@@QBEPBUDESC@1@PAX@Z ENDP	; DescriptorManager::GetDesc
_TEXT	ENDS
PUBLIC	?Show@DescriptorManager@@QAEXXZ			; DescriptorManager::Show
; Function compile flags: /Ogty
;	COMDAT ?Show@DescriptorManager@@QAEXXZ
_TEXT	SEGMENT
?Show@DescriptorManager@@QAEXXZ PROC NEAR		; DescriptorManager::Show, COMDAT
; _this$ = ecx

; 112  : {

  00000	53		 push	 ebx
  00001	56		 push	 esi
  00002	57		 push	 edi

; 113  : 	assert(!gpC_base->m_p_DDSurface_back->IsLock());
; 114  : 	DescMap::iterator iter = m_DescMap.begin();

  00003	8b 79 0c	 mov	 edi, DWORD PTR [ecx+12]
  00006	8b 77 08	 mov	 esi, DWORD PTR [edi+8]

; 115  : 	DescMap::iterator endIter = m_DescMap.end();
; 116  : 	for(; iter != endIter; ++iter)

  00009	3b f7		 cmp	 esi, edi
  0000b	74 48		 je	 SHORT $L89198
  0000d	8d 49 00	 npad	 3
$L91531:

; 117  : 	{
; 118  : 		DESC& desc = iter->second;
; 119  : 		if (desc.m_fp_show)

  00010	8b 46 14	 mov	 eax, DWORD PTR [esi+20]
  00013	85 c0		 test	 eax, eax
  00015	74 2f		 je	 SHORT $L89197

; 120  : 			desc.m_fp_show(desc.m_fp_show_param.rect, desc.m_fp_show_param.void_ptr, desc.m_fp_show_param.left, desc.m_fp_show_param.right);

  00017	8b 4e 30	 mov	 ecx, DWORD PTR [esi+48]
  0001a	8b 56 2c	 mov	 edx, DWORD PTR [esi+44]
  0001d	51		 push	 ecx
  0001e	8b 4e 28	 mov	 ecx, DWORD PTR [esi+40]
  00021	52		 push	 edx
  00022	51		 push	 ecx
  00023	8d 56 18	 lea	 edx, DWORD PTR [esi+24]
  00026	8b 1a		 mov	 ebx, DWORD PTR [edx]
  00028	83 ec 10	 sub	 esp, 16			; 00000010H
  0002b	8b cc		 mov	 ecx, esp
  0002d	89 19		 mov	 DWORD PTR [ecx], ebx
  0002f	8b 5a 04	 mov	 ebx, DWORD PTR [edx+4]
  00032	89 59 04	 mov	 DWORD PTR [ecx+4], ebx
  00035	8b 5a 08	 mov	 ebx, DWORD PTR [edx+8]
  00038	8b 52 0c	 mov	 edx, DWORD PTR [edx+12]
  0003b	89 59 08	 mov	 DWORD PTR [ecx+8], ebx
  0003e	89 51 0c	 mov	 DWORD PTR [ecx+12], edx
  00041	ff d0		 call	 eax
  00043	83 c4 1c	 add	 esp, 28			; 0000001cH
$L89197:
  00046	56		 push	 esi
  00047	e8 00 00 00 00	 call	 ?_M_increment@?$_Rb_global@_N@_STL@@SAPAU_Rb_tree_node_base@2@PAU32@@Z ; _STL::_Rb_global<bool>::_M_increment
  0004c	8b f0		 mov	 esi, eax
  0004e	83 c4 04	 add	 esp, 4
  00051	3b f7		 cmp	 esi, edi
  00053	75 bb		 jne	 SHORT $L91531
$L89198:

; 121  : 	}
; 122  : }

  00055	5f		 pop	 edi
  00056	5e		 pop	 esi
  00057	5b		 pop	 ebx
  00058	c3		 ret	 0
?Show@DescriptorManager@@QAEXXZ ENDP			; DescriptorManager::Show
_TEXT	ENDS
PUBLIC	?erase@?$multimap@HUDESC@DescriptorManager@@U?$less@H@_STL@@V?$allocator@U?$pair@$$CBHUDESC@DescriptorManager@@@_STL@@@4@@_STL@@QAEXU?$_Rb_tree_iterator@U?$pair@$$CBHUDESC@DescriptorManager@@@_STL@@U?$_Nonconst_traits@U?$pair@$$CBHUDESC@DescriptorManager@@@_STL@@@2@@2@@Z ; _STL::multimap<int,DescriptorManager::DESC,_STL::less<int>,_STL::allocator<_STL::pair<int const ,DescriptorManager::DESC> > >::erase
; Function compile flags: /Ogty
; File c:\stlport-4.6.1\stlport\stl\_map.h
;	COMDAT ?erase@?$multimap@HUDESC@DescriptorManager@@U?$less@H@_STL@@V?$allocator@U?$pair@$$CBHUDESC@DescriptorManager@@@_STL@@@4@@_STL@@QAEXU?$_Rb_tree_iterator@U?$pair@$$CBHUDESC@DescriptorManager@@@_STL@@U?$_Nonconst_traits@U?$pair@$$CBHUDESC@DescriptorManager@@@_STL@@@2@@2@@Z
_TEXT	SEGMENT
___position$ = 8					; size = 4
?erase@?$multimap@HUDESC@DescriptorManager@@U?$less@H@_STL@@V?$allocator@U?$pair@$$CBHUDESC@DescriptorManager@@@_STL@@@4@@_STL@@QAEXU?$_Rb_tree_iterator@U?$pair@$$CBHUDESC@DescriptorManager@@@_STL@@U?$_Nonconst_traits@U?$pair@$$CBHUDESC@DescriptorManager@@@_STL@@@2@@2@@Z PROC NEAR ; _STL::multimap<int,DescriptorManager::DESC,_STL::less<int>,_STL::allocator<_STL::pair<int const ,DescriptorManager::DESC> > >::erase, COMDAT
; _this$ = ecx

; 350  :   void erase(iterator __position) { _M_t.erase(__position); }

  00000	56		 push	 esi
  00001	8b f1		 mov	 esi, ecx
  00003	8b 06		 mov	 eax, DWORD PTR [esi]
  00005	57		 push	 edi
  00006	8d 48 0c	 lea	 ecx, DWORD PTR [eax+12]
  00009	51		 push	 ecx
  0000a	8d 50 08	 lea	 edx, DWORD PTR [eax+8]
  0000d	52		 push	 edx
  0000e	83 c0 04	 add	 eax, 4
  00011	50		 push	 eax
  00012	8b 44 24 18	 mov	 eax, DWORD PTR ___position$[esp+16]
  00016	50		 push	 eax
  00017	e8 00 00 00 00	 call	 ?_Rebalance_for_erase@?$_Rb_global@_N@_STL@@SAPAU_Rb_tree_node_base@2@PAU32@AAPAU32@11@Z ; _STL::_Rb_global<bool>::_Rebalance_for_erase
  0001c	8b f8		 mov	 edi, eax
  0001e	83 c4 10	 add	 esp, 16			; 00000010H
  00021	8d 4f 10	 lea	 ecx, DWORD PTR [edi+16]
  00024	e8 00 00 00 00	 call	 ??1?$pair@$$CBHUDESC@DescriptorManager@@@_STL@@QAE@XZ
  00029	85 ff		 test	 edi, edi
  0002b	74 0b		 je	 SHORT $L91605
  0002d	6a 34		 push	 52			; 00000034H
  0002f	57		 push	 edi
  00030	e8 00 00 00 00	 call	 ?_M_deallocate@?$__node_alloc@$00$0A@@_STL@@CAXPAXI@Z ; _STL::__node_alloc<1,0>::_M_deallocate
  00035	83 c4 08	 add	 esp, 8
$L91605:
  00038	8b 46 04	 mov	 eax, DWORD PTR [esi+4]
  0003b	48		 dec	 eax
  0003c	5f		 pop	 edi
  0003d	89 46 04	 mov	 DWORD PTR [esi+4], eax
  00040	5e		 pop	 esi
  00041	c2 04 00	 ret	 4
?erase@?$multimap@HUDESC@DescriptorManager@@U?$less@H@_STL@@V?$allocator@U?$pair@$$CBHUDESC@DescriptorManager@@@_STL@@@4@@_STL@@QAEXU?$_Rb_tree_iterator@U?$pair@$$CBHUDESC@DescriptorManager@@@_STL@@U?$_Nonconst_traits@U?$pair@$$CBHUDESC@DescriptorManager@@@_STL@@@2@@2@@Z ENDP ; _STL::multimap<int,DescriptorManager::DESC,_STL::less<int>,_STL::allocator<_STL::pair<int const ,DescriptorManager::DESC> > >::erase
_TEXT	ENDS
PUBLIC	??0?$_Rb_tree@HU?$pair@$$CBHUDESC@DescriptorManager@@@_STL@@U?$_Select1st@U?$pair@$$CBHUDESC@DescriptorManager@@@_STL@@@2@U?$less@H@2@V?$allocator@U?$pair@$$CBHUDESC@DescriptorManager@@@_STL@@@2@@_STL@@QAE@ABU?$less@H@1@ABV?$allocator@U?$pair@$$CBHUDESC@DescriptorManager@@@_STL@@@1@@Z ; _STL::_Rb_tree<int,_STL::pair<int const ,DescriptorManager::DESC>,_STL::_Select1st<_STL::pair<int const ,DescriptorManager::DESC> >,_STL::less<int>,_STL::allocator<_STL::pair<int const ,DescriptorManager::DESC> > >::_Rb_tree<int,_STL::pair<int const ,DescriptorManager::DESC>,_STL::_Select1st<_STL::pair<int const ,DescriptorManager::DESC> >,_STL::less<int>,_STL::allocator<_STL::pair<int const ,DescriptorManager::DESC> > >
; Function compile flags: /Ogty
; File c:\stlport-4.6.1\stlport\stl\_tree.h
;	COMDAT ??0?$_Rb_tree@HU?$pair@$$CBHUDESC@DescriptorManager@@@_STL@@U?$_Select1st@U?$pair@$$CBHUDESC@DescriptorManager@@@_STL@@@2@U?$less@H@2@V?$allocator@U?$pair@$$CBHUDESC@DescriptorManager@@@_STL@@@2@@_STL@@QAE@ABU?$less@H@1@ABV?$allocator@U?$pair@$$CBHUDESC@DescriptorManager@@@_STL@@@1@@Z
_TEXT	SEGMENT
___comp$ = 8						; size = 4
___a$ = 12						; size = 4
??0?$_Rb_tree@HU?$pair@$$CBHUDESC@DescriptorManager@@@_STL@@U?$_Select1st@U?$pair@$$CBHUDESC@DescriptorManager@@@_STL@@@2@U?$less@H@2@V?$allocator@U?$pair@$$CBHUDESC@DescriptorManager@@@_STL@@@2@@_STL@@QAE@ABU?$less@H@1@ABV?$allocator@U?$pair@$$CBHUDESC@DescriptorManager@@@_STL@@@1@@Z PROC NEAR ; _STL::_Rb_tree<int,_STL::pair<int const ,DescriptorManager::DESC>,_STL::_Select1st<_STL::pair<int const ,DescriptorManager::DESC> >,_STL::less<int>,_STL::allocator<_STL::pair<int const ,DescriptorManager::DESC> > >::_Rb_tree<int,_STL::pair<int const ,DescriptorManager::DESC>,_STL::_Select1st<_STL::pair<int const ,DescriptorManager::DESC> >,_STL::less<int>,_STL::allocator<_STL::pair<int const ,DescriptorManager::DESC> > >, COMDAT
; _this$ = ecx

; 325  :     { _M_empty_initialize(); }

  00000	56		 push	 esi
  00001	8b f1		 mov	 esi, ecx
  00003	6a 34		 push	 52			; 00000034H
  00005	c7 06 00 00 00
	00		 mov	 DWORD PTR [esi], 0
  0000b	e8 00 00 00 00	 call	 ?_M_allocate@?$__node_alloc@$00$0A@@_STL@@CAPAXI@Z ; _STL::__node_alloc<1,0>::_M_allocate
  00010	89 06		 mov	 DWORD PTR [esi], eax
  00012	c7 46 04 00 00
	00 00		 mov	 DWORD PTR [esi+4], 0
  00019	c6 00 00	 mov	 BYTE PTR [eax], 0
  0001c	8b 06		 mov	 eax, DWORD PTR [esi]
  0001e	c7 40 04 00 00
	00 00		 mov	 DWORD PTR [eax+4], 0
  00025	8b 06		 mov	 eax, DWORD PTR [esi]
  00027	89 40 08	 mov	 DWORD PTR [eax+8], eax
  0002a	8b 06		 mov	 eax, DWORD PTR [esi]
  0002c	83 c4 04	 add	 esp, 4
  0002f	89 40 0c	 mov	 DWORD PTR [eax+12], eax
  00032	8b c6		 mov	 eax, esi
  00034	5e		 pop	 esi
  00035	c2 08 00	 ret	 8
??0?$_Rb_tree@HU?$pair@$$CBHUDESC@DescriptorManager@@@_STL@@U?$_Select1st@U?$pair@$$CBHUDESC@DescriptorManager@@@_STL@@@2@U?$less@H@2@V?$allocator@U?$pair@$$CBHUDESC@DescriptorManager@@@_STL@@@2@@_STL@@QAE@ABU?$less@H@1@ABV?$allocator@U?$pair@$$CBHUDESC@DescriptorManager@@@_STL@@@1@@Z ENDP ; _STL::_Rb_tree<int,_STL::pair<int const ,DescriptorManager::DESC>,_STL::_Select1st<_STL::pair<int const ,DescriptorManager::DESC> >,_STL::less<int>,_STL::allocator<_STL::pair<int const ,DescriptorManager::DESC> > >::_Rb_tree<int,_STL::pair<int const ,DescriptorManager::DESC>,_STL::_Select1st<_STL::pair<int const ,DescriptorManager::DESC> >,_STL::less<int>,_STL::allocator<_STL::pair<int const ,DescriptorManager::DESC> > >
_TEXT	ENDS
PUBLIC	?clear@?$_Rb_tree@HU?$pair@$$CBHUDESC@DescriptorManager@@@_STL@@U?$_Select1st@U?$pair@$$CBHUDESC@DescriptorManager@@@_STL@@@2@U?$less@H@2@V?$allocator@U?$pair@$$CBHUDESC@DescriptorManager@@@_STL@@@2@@_STL@@QAEXXZ ; _STL::_Rb_tree<int,_STL::pair<int const ,DescriptorManager::DESC>,_STL::_Select1st<_STL::pair<int const ,DescriptorManager::DESC> >,_STL::less<int>,_STL::allocator<_STL::pair<int const ,DescriptorManager::DESC> > >::clear
; Function compile flags: /Ogty
;	COMDAT ?clear@?$_Rb_tree@HU?$pair@$$CBHUDESC@DescriptorManager@@@_STL@@U?$_Select1st@U?$pair@$$CBHUDESC@DescriptorManager@@@_STL@@@2@U?$less@H@2@V?$allocator@U?$pair@$$CBHUDESC@DescriptorManager@@@_STL@@@2@@_STL@@QAEXXZ
_TEXT	SEGMENT
?clear@?$_Rb_tree@HU?$pair@$$CBHUDESC@DescriptorManager@@@_STL@@U?$_Select1st@U?$pair@$$CBHUDESC@DescriptorManager@@@_STL@@@2@U?$less@H@2@V?$allocator@U?$pair@$$CBHUDESC@DescriptorManager@@@_STL@@@2@@_STL@@QAEXXZ PROC NEAR ; _STL::_Rb_tree<int,_STL::pair<int const ,DescriptorManager::DESC>,_STL::_Select1st<_STL::pair<int const ,DescriptorManager::DESC> >,_STL::less<int>,_STL::allocator<_STL::pair<int const ,DescriptorManager::DESC> > >::clear, COMDAT
; _this$ = ecx

; 445  :   void clear() {

  00000	56		 push	 esi
  00001	8b f1		 mov	 esi, ecx

; 446  :     if (_M_node_count != 0) {

  00003	8b 46 04	 mov	 eax, DWORD PTR [esi+4]
  00006	85 c0		 test	 eax, eax
  00008	74 27		 je	 SHORT $L89533

; 447  :       _M_erase(_M_root());

  0000a	8b 06		 mov	 eax, DWORD PTR [esi]
  0000c	8b 48 04	 mov	 ecx, DWORD PTR [eax+4]
  0000f	51		 push	 ecx
  00010	8b ce		 mov	 ecx, esi
  00012	e8 00 00 00 00	 call	 ?_M_erase@?$_Rb_tree@HU?$pair@$$CBHUDESC@DescriptorManager@@@_STL@@U?$_Select1st@U?$pair@$$CBHUDESC@DescriptorManager@@@_STL@@@2@U?$less@H@2@V?$allocator@U?$pair@$$CBHUDESC@DescriptorManager@@@_STL@@@2@@_STL@@AAEXPAU?$_Rb_tree_node@U?$pair@$$CBHUDESC@DescriptorManager@@@_STL@@@2@@Z ; _STL::_Rb_tree<int,_STL::pair<int const ,DescriptorManager::DESC>,_STL::_Select1st<_STL::pair<int const ,DescriptorManager::DESC> >,_STL::less<int>,_STL::allocator<_STL::pair<int const ,DescriptorManager::DESC> > >::_M_erase

; 448  :       _M_leftmost() = this->_M_header._M_data;

  00017	8b 06		 mov	 eax, DWORD PTR [esi]
  00019	89 40 08	 mov	 DWORD PTR [eax+8], eax

; 449  :       _M_root() = 0;

  0001c	8b 16		 mov	 edx, DWORD PTR [esi]
  0001e	c7 42 04 00 00
	00 00		 mov	 DWORD PTR [edx+4], 0

; 450  :       _M_rightmost() = this->_M_header._M_data;

  00025	8b 06		 mov	 eax, DWORD PTR [esi]
  00027	89 40 0c	 mov	 DWORD PTR [eax+12], eax

; 451  :       _M_node_count = 0;

  0002a	c7 46 04 00 00
	00 00		 mov	 DWORD PTR [esi+4], 0
$L89533:
  00031	5e		 pop	 esi

; 452  :     }
; 453  :   }      

  00032	c3		 ret	 0
?clear@?$_Rb_tree@HU?$pair@$$CBHUDESC@DescriptorManager@@@_STL@@U?$_Select1st@U?$pair@$$CBHUDESC@DescriptorManager@@@_STL@@@2@U?$less@H@2@V?$allocator@U?$pair@$$CBHUDESC@DescriptorManager@@@_STL@@@2@@_STL@@QAEXXZ ENDP ; _STL::_Rb_tree<int,_STL::pair<int const ,DescriptorManager::DESC>,_STL::_Select1st<_STL::pair<int const ,DescriptorManager::DESC> >,_STL::less<int>,_STL::allocator<_STL::pair<int const ,DescriptorManager::DESC> > >::clear
_TEXT	ENDS
PUBLIC	?_M_insert@?$_Rb_tree@HU?$pair@$$CBHUDESC@DescriptorManager@@@_STL@@U?$_Select1st@U?$pair@$$CBHUDESC@DescriptorManager@@@_STL@@@2@U?$less@H@2@V?$allocator@U?$pair@$$CBHUDESC@DescriptorManager@@@_STL@@@2@@_STL@@AAE?AU?$_Rb_tree_iterator@U?$pair@$$CBHUDESC@DescriptorManager@@@_STL@@U?$_Nonconst_traits@U?$pair@$$CBHUDESC@DescriptorManager@@@_STL@@@2@@2@PAU_Rb_tree_node_base@2@0ABU?$pair@$$CBHUDESC@DescriptorManager@@@2@0@Z ; _STL::_Rb_tree<int,_STL::pair<int const ,DescriptorManager::DESC>,_STL::_Select1st<_STL::pair<int const ,DescriptorManager::DESC> >,_STL::less<int>,_STL::allocator<_STL::pair<int const ,DescriptorManager::DESC> > >::_M_insert
EXTRN	?_Rebalance@?$_Rb_global@_N@_STL@@SAXPAU_Rb_tree_node_base@2@AAPAU32@@Z:NEAR ; _STL::_Rb_global<bool>::_Rebalance
; Function compile flags: /Ogty
; File c:\stlport-4.6.1\stlport\stl\_tree.c
;	COMDAT ?_M_insert@?$_Rb_tree@HU?$pair@$$CBHUDESC@DescriptorManager@@@_STL@@U?$_Select1st@U?$pair@$$CBHUDESC@DescriptorManager@@@_STL@@@2@U?$less@H@2@V?$allocator@U?$pair@$$CBHUDESC@DescriptorManager@@@_STL@@@2@@_STL@@AAE?AU?$_Rb_tree_iterator@U?$pair@$$CBHUDESC@DescriptorManager@@@_STL@@U?$_Nonconst_traits@U?$pair@$$CBHUDESC@DescriptorManager@@@_STL@@@2@@2@PAU_Rb_tree_node_base@2@0ABU?$pair@$$CBHUDESC@DescriptorManager@@@2@0@Z
_TEXT	SEGMENT
___$ReturnUdt$ = 8					; size = 4
___x_$ = 12						; size = 4
___y_$ = 16						; size = 4
___v$ = 20						; size = 4
___w_$ = 24						; size = 4
?_M_insert@?$_Rb_tree@HU?$pair@$$CBHUDESC@DescriptorManager@@@_STL@@U?$_Select1st@U?$pair@$$CBHUDESC@DescriptorManager@@@_STL@@@2@U?$less@H@2@V?$allocator@U?$pair@$$CBHUDESC@DescriptorManager@@@_STL@@@2@@_STL@@AAE?AU?$_Rb_tree_iterator@U?$pair@$$CBHUDESC@DescriptorManager@@@_STL@@U?$_Nonconst_traits@U?$pair@$$CBHUDESC@DescriptorManager@@@_STL@@@2@@2@PAU_Rb_tree_node_base@2@0ABU?$pair@$$CBHUDESC@DescriptorManager@@@2@0@Z PROC NEAR ; _STL::_Rb_tree<int,_STL::pair<int const ,DescriptorManager::DESC>,_STL::_Select1st<_STL::pair<int const ,DescriptorManager::DESC> >,_STL::less<int>,_STL::allocator<_STL::pair<int const ,DescriptorManager::DESC> > >::_M_insert, COMDAT
; _this$ = ecx

; 347  : {

  00000	53		 push	 ebx

; 348  :   _Link_type __w = (_Link_type) __w_;
; 349  :   _Link_type __x = (_Link_type) __x_;
; 350  :   _Link_type __y = (_Link_type) __y_;
; 351  :   _Link_type __z;
; 352  : 
; 353  :   if ( __y == this->_M_header._M_data ||
; 354  :        ( __w == 0 && // If w != 0, the remainder fails to false
; 355  :          ( __x != 0 ||     // If x != 0, the remainder succeeds to true
; 356  :            _M_key_compare( _KeyOfValue()(__v), _S_key(__y) ) )
; 357  : 	 )
; 358  :        ) {

  00001	8b 5c 24 10	 mov	 ebx, DWORD PTR ___y_$[esp]
  00005	56		 push	 esi
  00006	57		 push	 edi
  00007	8b f9		 mov	 edi, ecx
  00009	3b 1f		 cmp	 ebx, DWORD PTR [edi]
  0000b	8b 44 24 1c	 mov	 eax, DWORD PTR ___v$[esp+8]
  0000f	74 30		 je	 SHORT $L90056
  00011	8b 4c 24 20	 mov	 ecx, DWORD PTR ___w_$[esp+8]
  00015	85 c9		 test	 ecx, ecx
  00017	75 0f		 jne	 SHORT $L90054
  00019	8b 4c 24 14	 mov	 ecx, DWORD PTR ___x_$[esp+8]
  0001d	85 c9		 test	 ecx, ecx
  0001f	75 20		 jne	 SHORT $L90056
  00021	8b 08		 mov	 ecx, DWORD PTR [eax]
  00023	3b 4b 10	 cmp	 ecx, DWORD PTR [ebx+16]
  00026	7c 19		 jl	 SHORT $L90056
$L90054:

; 369  :   }
; 370  :   else {
; 371  :     __z = _M_create_node(__v);

  00028	50		 push	 eax
  00029	8b cf		 mov	 ecx, edi
  0002b	e8 00 00 00 00	 call	 ?_M_create_node@?$_Rb_tree@HU?$pair@$$CBHUDESC@DescriptorManager@@@_STL@@U?$_Select1st@U?$pair@$$CBHUDESC@DescriptorManager@@@_STL@@@2@U?$less@H@2@V?$allocator@U?$pair@$$CBHUDESC@DescriptorManager@@@_STL@@@2@@_STL@@IAEPAU?$_Rb_tree_node@U?$pair@$$CBHUDESC@DescriptorManager@@@_STL@@@2@ABU?$pair@$$CBHUDESC@DescriptorManager@@@2@@Z ; _STL::_Rb_tree<int,_STL::pair<int const ,DescriptorManager::DESC>,_STL::_Select1st<_STL::pair<int const ,DescriptorManager::DESC> >,_STL::less<int>,_STL::allocator<_STL::pair<int const ,DescriptorManager::DESC> > >::_M_create_node
  00030	8b f0		 mov	 esi, eax

; 372  :     _S_right(__y) = __z;

  00032	89 73 0c	 mov	 DWORD PTR [ebx+12], esi

; 373  :     if (__y == _M_rightmost())

  00035	8b 07		 mov	 eax, DWORD PTR [edi]
  00037	3b 58 0c	 cmp	 ebx, DWORD PTR [eax+12]
  0003a	75 2a		 jne	 SHORT $L90059

; 374  :       _M_rightmost() = __z;  // maintain _M_rightmost() pointing to max node

  0003c	89 70 0c	 mov	 DWORD PTR [eax+12], esi
  0003f	eb 25		 jmp	 SHORT $L90059
$L90056:

; 359  :     
; 360  :     __z = _M_create_node(__v);

  00041	50		 push	 eax
  00042	8b cf		 mov	 ecx, edi
  00044	e8 00 00 00 00	 call	 ?_M_create_node@?$_Rb_tree@HU?$pair@$$CBHUDESC@DescriptorManager@@@_STL@@U?$_Select1st@U?$pair@$$CBHUDESC@DescriptorManager@@@_STL@@@2@U?$less@H@2@V?$allocator@U?$pair@$$CBHUDESC@DescriptorManager@@@_STL@@@2@@_STL@@IAEPAU?$_Rb_tree_node@U?$pair@$$CBHUDESC@DescriptorManager@@@_STL@@@2@ABU?$pair@$$CBHUDESC@DescriptorManager@@@2@@Z ; _STL::_Rb_tree<int,_STL::pair<int const ,DescriptorManager::DESC>,_STL::_Select1st<_STL::pair<int const ,DescriptorManager::DESC> >,_STL::less<int>,_STL::allocator<_STL::pair<int const ,DescriptorManager::DESC> > >::_M_create_node
  00049	8b f0		 mov	 esi, eax

; 361  :     _S_left(__y) = __z;               // also makes _M_leftmost() = __z 

  0004b	89 73 08	 mov	 DWORD PTR [ebx+8], esi

; 362  :                                       //    when __y == _M_header
; 363  :     if (__y == this->_M_header._M_data) {

  0004e	8b 07		 mov	 eax, DWORD PTR [edi]
  00050	3b d8		 cmp	 ebx, eax
  00052	75 0a		 jne	 SHORT $L90057

; 364  :       _M_root() = __z;

  00054	89 70 04	 mov	 DWORD PTR [eax+4], esi

; 365  :       _M_rightmost() = __z;

  00057	8b 17		 mov	 edx, DWORD PTR [edi]
  00059	89 72 0c	 mov	 DWORD PTR [edx+12], esi

; 366  :     }
; 367  :     else if (__y == _M_leftmost())

  0005c	eb 08		 jmp	 SHORT $L90059
$L90057:
  0005e	3b 58 08	 cmp	 ebx, DWORD PTR [eax+8]
  00061	75 03		 jne	 SHORT $L90059

; 368  :       _M_leftmost() = __z;   // maintain _M_leftmost() pointing to min node

  00063	89 70 08	 mov	 DWORD PTR [eax+8], esi
$L90059:

; 375  :   }
; 376  :   _S_parent(__z) = __y;

  00066	89 5e 04	 mov	 DWORD PTR [esi+4], ebx

; 377  :   _S_left(__z) = 0;

  00069	c7 46 08 00 00
	00 00		 mov	 DWORD PTR [esi+8], 0

; 378  :   _S_right(__z) = 0;

  00070	c7 46 0c 00 00
	00 00		 mov	 DWORD PTR [esi+12], 0

; 379  :   _Rb_global_inst::_Rebalance(__z, this->_M_header._M_data->_M_parent);

  00077	8b 07		 mov	 eax, DWORD PTR [edi]
  00079	83 c0 04	 add	 eax, 4
  0007c	50		 push	 eax
  0007d	56		 push	 esi
  0007e	e8 00 00 00 00	 call	 ?_Rebalance@?$_Rb_global@_N@_STL@@SAXPAU_Rb_tree_node_base@2@AAPAU32@@Z ; _STL::_Rb_global<bool>::_Rebalance

; 380  :   ++_M_node_count;

  00083	8b 47 04	 mov	 eax, DWORD PTR [edi+4]
  00086	83 c4 08	 add	 esp, 8
  00089	40		 inc	 eax
  0008a	89 47 04	 mov	 DWORD PTR [edi+4], eax

; 381  :   return iterator(__z);

  0008d	8b 44 24 10	 mov	 eax, DWORD PTR ___$ReturnUdt$[esp+8]
  00091	5f		 pop	 edi
  00092	89 30		 mov	 DWORD PTR [eax], esi
  00094	5e		 pop	 esi
  00095	5b		 pop	 ebx

; 382  : }

  00096	c2 14 00	 ret	 20			; 00000014H
?_M_insert@?$_Rb_tree@HU?$pair@$$CBHUDESC@DescriptorManager@@@_STL@@U?$_Select1st@U?$pair@$$CBHUDESC@DescriptorManager@@@_STL@@@2@U?$less@H@2@V?$allocator@U?$pair@$$CBHUDESC@DescriptorManager@@@_STL@@@2@@_STL@@AAE?AU?$_Rb_tree_iterator@U?$pair@$$CBHUDESC@DescriptorManager@@@_STL@@U?$_Nonconst_traits@U?$pair@$$CBHUDESC@DescriptorManager@@@_STL@@@2@@2@PAU_Rb_tree_node_base@2@0ABU?$pair@$$CBHUDESC@DescriptorManager@@@2@0@Z ENDP ; _STL::_Rb_tree<int,_STL::pair<int const ,DescriptorManager::DESC>,_STL::_Select1st<_STL::pair<int const ,DescriptorManager::DESC> >,_STL::less<int>,_STL::allocator<_STL::pair<int const ,DescriptorManager::DESC> > >::_M_insert
_TEXT	ENDS
PUBLIC	?clear@?$multimap@HUDESC@DescriptorManager@@U?$less@H@_STL@@V?$allocator@U?$pair@$$CBHUDESC@DescriptorManager@@@_STL@@@4@@_STL@@QAEXXZ ; _STL::multimap<int,DescriptorManager::DESC,_STL::less<int>,_STL::allocator<_STL::pair<int const ,DescriptorManager::DESC> > >::clear
; Function compile flags: /Ogty
; File c:\stlport-4.6.1\stlport\stl\_map.h
;	COMDAT ?clear@?$multimap@HUDESC@DescriptorManager@@U?$less@H@_STL@@V?$allocator@U?$pair@$$CBHUDESC@DescriptorManager@@@_STL@@@4@@_STL@@QAEXXZ
_TEXT	SEGMENT
?clear@?$multimap@HUDESC@DescriptorManager@@U?$less@H@_STL@@V?$allocator@U?$pair@$$CBHUDESC@DescriptorManager@@@_STL@@@4@@_STL@@QAEXXZ PROC NEAR ; _STL::multimap<int,DescriptorManager::DESC,_STL::less<int>,_STL::allocator<_STL::pair<int const ,DescriptorManager::DESC> > >::clear, COMDAT
; _this$ = ecx

; 354  :   void clear() { _M_t.clear(); }

  00000	56		 push	 esi
  00001	8b f1		 mov	 esi, ecx
  00003	8b 46 04	 mov	 eax, DWORD PTR [esi+4]
  00006	85 c0		 test	 eax, eax
  00008	74 27		 je	 SHORT $L91778
  0000a	8b 06		 mov	 eax, DWORD PTR [esi]
  0000c	8b 48 04	 mov	 ecx, DWORD PTR [eax+4]
  0000f	51		 push	 ecx
  00010	8b ce		 mov	 ecx, esi
  00012	e8 00 00 00 00	 call	 ?_M_erase@?$_Rb_tree@HU?$pair@$$CBHUDESC@DescriptorManager@@@_STL@@U?$_Select1st@U?$pair@$$CBHUDESC@DescriptorManager@@@_STL@@@2@U?$less@H@2@V?$allocator@U?$pair@$$CBHUDESC@DescriptorManager@@@_STL@@@2@@_STL@@AAEXPAU?$_Rb_tree_node@U?$pair@$$CBHUDESC@DescriptorManager@@@_STL@@@2@@Z ; _STL::_Rb_tree<int,_STL::pair<int const ,DescriptorManager::DESC>,_STL::_Select1st<_STL::pair<int const ,DescriptorManager::DESC> >,_STL::less<int>,_STL::allocator<_STL::pair<int const ,DescriptorManager::DESC> > >::_M_erase
  00017	8b 06		 mov	 eax, DWORD PTR [esi]
  00019	89 40 08	 mov	 DWORD PTR [eax+8], eax
  0001c	8b 16		 mov	 edx, DWORD PTR [esi]
  0001e	c7 42 04 00 00
	00 00		 mov	 DWORD PTR [edx+4], 0
  00025	8b 06		 mov	 eax, DWORD PTR [esi]
  00027	89 40 0c	 mov	 DWORD PTR [eax+12], eax
  0002a	c7 46 04 00 00
	00 00		 mov	 DWORD PTR [esi+4], 0
$L91778:
  00031	5e		 pop	 esi
  00032	c3		 ret	 0
?clear@?$multimap@HUDESC@DescriptorManager@@U?$less@H@_STL@@V?$allocator@U?$pair@$$CBHUDESC@DescriptorManager@@@_STL@@@4@@_STL@@QAEXXZ ENDP ; _STL::multimap<int,DescriptorManager::DESC,_STL::less<int>,_STL::allocator<_STL::pair<int const ,DescriptorManager::DESC> > >::clear
_TEXT	ENDS
PUBLIC	??1?$_Rb_tree@HU?$pair@$$CBHUDESC@DescriptorManager@@@_STL@@U?$_Select1st@U?$pair@$$CBHUDESC@DescriptorManager@@@_STL@@@2@U?$less@H@2@V?$allocator@U?$pair@$$CBHUDESC@DescriptorManager@@@_STL@@@2@@_STL@@QAE@XZ ; _STL::_Rb_tree<int,_STL::pair<int const ,DescriptorManager::DESC>,_STL::_Select1st<_STL::pair<int const ,DescriptorManager::DESC> >,_STL::less<int>,_STL::allocator<_STL::pair<int const ,DescriptorManager::DESC> > >::~_Rb_tree<int,_STL::pair<int const ,DescriptorManager::DESC>,_STL::_Select1st<_STL::pair<int const ,DescriptorManager::DESC> >,_STL::less<int>,_STL::allocator<_STL::pair<int const ,DescriptorManager::DESC> > >
;	COMDAT xdata$x
; File c:\stlport-4.6.1\stlport\stl\_new.h
xdata$x	SEGMENT
$T91853	DD	0ffffffffH
	DD	FLAT:$L91791
$T91851	DD	019930520H
	DD	01H
	DD	FLAT:$T91853
	DD	2 DUP(00H)
	DD	2 DUP(00H)
; Function compile flags: /Ogty
; File c:\stlport-4.6.1\stlport\stl\_tree.h
xdata$x	ENDS
;	COMDAT ??1?$_Rb_tree@HU?$pair@$$CBHUDESC@DescriptorManager@@@_STL@@U?$_Select1st@U?$pair@$$CBHUDESC@DescriptorManager@@@_STL@@@2@U?$less@H@2@V?$allocator@U?$pair@$$CBHUDESC@DescriptorManager@@@_STL@@@2@@_STL@@QAE@XZ
_TEXT	SEGMENT
_this$ = -16						; size = 4
__$EHRec$ = -12						; size = 12
??1?$_Rb_tree@HU?$pair@$$CBHUDESC@DescriptorManager@@@_STL@@U?$_Select1st@U?$pair@$$CBHUDESC@DescriptorManager@@@_STL@@@2@U?$less@H@2@V?$allocator@U?$pair@$$CBHUDESC@DescriptorManager@@@_STL@@@2@@_STL@@QAE@XZ PROC NEAR ; _STL::_Rb_tree<int,_STL::pair<int const ,DescriptorManager::DESC>,_STL::_Select1st<_STL::pair<int const ,DescriptorManager::DESC> >,_STL::less<int>,_STL::allocator<_STL::pair<int const ,DescriptorManager::DESC> > >::~_Rb_tree<int,_STL::pair<int const ,DescriptorManager::DESC>,_STL::_Select1st<_STL::pair<int const ,DescriptorManager::DESC> >,_STL::less<int>,_STL::allocator<_STL::pair<int const ,DescriptorManager::DESC> > >, COMDAT
; _this$ = ecx

; 341  :   ~_Rb_tree() { clear(); }

  00000	6a ff		 push	 -1
  00002	68 00 00 00 00	 push	 __ehhandler$??1?$_Rb_tree@HU?$pair@$$CBHUDESC@DescriptorManager@@@_STL@@U?$_Select1st@U?$pair@$$CBHUDESC@DescriptorManager@@@_STL@@@2@U?$less@H@2@V?$allocator@U?$pair@$$CBHUDESC@DescriptorManager@@@_STL@@@2@@_STL@@QAE@XZ
  00007	64 a1 00 00 00
	00		 mov	 eax, DWORD PTR fs:__except_list
  0000d	50		 push	 eax
  0000e	64 89 25 00 00
	00 00		 mov	 DWORD PTR fs:__except_list, esp
  00015	51		 push	 ecx
  00016	56		 push	 esi
  00017	8b f1		 mov	 esi, ecx
  00019	89 74 24 04	 mov	 DWORD PTR _this$[esp+20], esi
  0001d	8b 46 04	 mov	 eax, DWORD PTR [esi+4]
  00020	85 c0		 test	 eax, eax
  00022	c7 44 24 10 00
	00 00 00	 mov	 DWORD PTR __$EHRec$[esp+28], 0
  0002a	74 27		 je	 SHORT $L91806
  0002c	8b 06		 mov	 eax, DWORD PTR [esi]
  0002e	8b 48 04	 mov	 ecx, DWORD PTR [eax+4]
  00031	51		 push	 ecx
  00032	8b ce		 mov	 ecx, esi
  00034	e8 00 00 00 00	 call	 ?_M_erase@?$_Rb_tree@HU?$pair@$$CBHUDESC@DescriptorManager@@@_STL@@U?$_Select1st@U?$pair@$$CBHUDESC@DescriptorManager@@@_STL@@@2@U?$less@H@2@V?$allocator@U?$pair@$$CBHUDESC@DescriptorManager@@@_STL@@@2@@_STL@@AAEXPAU?$_Rb_tree_node@U?$pair@$$CBHUDESC@DescriptorManager@@@_STL@@@2@@Z ; _STL::_Rb_tree<int,_STL::pair<int const ,DescriptorManager::DESC>,_STL::_Select1st<_STL::pair<int const ,DescriptorManager::DESC> >,_STL::less<int>,_STL::allocator<_STL::pair<int const ,DescriptorManager::DESC> > >::_M_erase
  00039	8b 06		 mov	 eax, DWORD PTR [esi]
  0003b	89 40 08	 mov	 DWORD PTR [eax+8], eax
  0003e	8b 16		 mov	 edx, DWORD PTR [esi]
  00040	c7 42 04 00 00
	00 00		 mov	 DWORD PTR [edx+4], 0
  00047	8b 06		 mov	 eax, DWORD PTR [esi]
  00049	89 40 0c	 mov	 DWORD PTR [eax+12], eax
  0004c	c7 46 04 00 00
	00 00		 mov	 DWORD PTR [esi+4], 0
$L91806:
  00053	8b 36		 mov	 esi, DWORD PTR [esi]
  00055	85 f6		 test	 esi, esi
  00057	c7 44 24 10 ff
	ff ff ff	 mov	 DWORD PTR __$EHRec$[esp+28], -1
  0005f	74 0b		 je	 SHORT $L91849
  00061	6a 34		 push	 52			; 00000034H
  00063	56		 push	 esi
  00064	e8 00 00 00 00	 call	 ?_M_deallocate@?$__node_alloc@$00$0A@@_STL@@CAXPAXI@Z ; _STL::__node_alloc<1,0>::_M_deallocate
  00069	83 c4 08	 add	 esp, 8
$L91849:
  0006c	8b 4c 24 08	 mov	 ecx, DWORD PTR __$EHRec$[esp+20]
  00070	5e		 pop	 esi
  00071	64 89 0d 00 00
	00 00		 mov	 DWORD PTR fs:__except_list, ecx
  00078	83 c4 10	 add	 esp, 16			; 00000010H
  0007b	c3		 ret	 0
_TEXT	ENDS
;	COMDAT text$x
text$x	SEGMENT
$L91791:
  00000	8b 4d f0	 mov	 ecx, DWORD PTR _this$[ebp]
  00003	e9 00 00 00 00	 jmp	 ??1?$_Rb_tree_base@U?$pair@$$CBHUDESC@DescriptorManager@@@_STL@@V?$allocator@U?$pair@$$CBHUDESC@DescriptorManager@@@_STL@@@2@@_STL@@QAE@XZ ; _STL::_Rb_tree_base<_STL::pair<int const ,DescriptorManager::DESC>,_STL::allocator<_STL::pair<int const ,DescriptorManager::DESC> > >::~_Rb_tree_base<_STL::pair<int const ,DescriptorManager::DESC>,_STL::allocator<_STL::pair<int const ,DescriptorManager::DESC> > >
__ehhandler$??1?$_Rb_tree@HU?$pair@$$CBHUDESC@DescriptorManager@@@_STL@@U?$_Select1st@U?$pair@$$CBHUDESC@DescriptorManager@@@_STL@@@2@U?$less@H@2@V?$allocator@U?$pair@$$CBHUDESC@DescriptorManager@@@_STL@@@2@@_STL@@QAE@XZ:
  00008	b8 00 00 00 00	 mov	 eax, OFFSET FLAT:$T91851
  0000d	e9 00 00 00 00	 jmp	 ___CxxFrameHandler
text$x	ENDS
??1?$_Rb_tree@HU?$pair@$$CBHUDESC@DescriptorManager@@@_STL@@U?$_Select1st@U?$pair@$$CBHUDESC@DescriptorManager@@@_STL@@@2@U?$less@H@2@V?$allocator@U?$pair@$$CBHUDESC@DescriptorManager@@@_STL@@@2@@_STL@@QAE@XZ ENDP ; _STL::_Rb_tree<int,_STL::pair<int const ,DescriptorManager::DESC>,_STL::_Select1st<_STL::pair<int const ,DescriptorManager::DESC> >,_STL::less<int>,_STL::allocator<_STL::pair<int const ,DescriptorManager::DESC> > >::~_Rb_tree<int,_STL::pair<int const ,DescriptorManager::DESC>,_STL::_Select1st<_STL::pair<int const ,DescriptorManager::DESC> >,_STL::less<int>,_STL::allocator<_STL::pair<int const ,DescriptorManager::DESC> > >
PUBLIC	?insert_equal@?$_Rb_tree@HU?$pair@$$CBHUDESC@DescriptorManager@@@_STL@@U?$_Select1st@U?$pair@$$CBHUDESC@DescriptorManager@@@_STL@@@2@U?$less@H@2@V?$allocator@U?$pair@$$CBHUDESC@DescriptorManager@@@_STL@@@2@@_STL@@QAE?AU?$_Rb_tree_iterator@U?$pair@$$CBHUDESC@DescriptorManager@@@_STL@@U?$_Nonconst_traits@U?$pair@$$CBHUDESC@DescriptorManager@@@_STL@@@2@@2@ABU?$pair@$$CBHUDESC@DescriptorManager@@@2@@Z ; _STL::_Rb_tree<int,_STL::pair<int const ,DescriptorManager::DESC>,_STL::_Select1st<_STL::pair<int const ,DescriptorManager::DESC> >,_STL::less<int>,_STL::allocator<_STL::pair<int const ,DescriptorManager::DESC> > >::insert_equal
; Function compile flags: /Ogty
; File c:\stlport-4.6.1\stlport\stl\_tree.c
;	COMDAT ?insert_equal@?$_Rb_tree@HU?$pair@$$CBHUDESC@DescriptorManager@@@_STL@@U?$_Select1st@U?$pair@$$CBHUDESC@DescriptorManager@@@_STL@@@2@U?$less@H@2@V?$allocator@U?$pair@$$CBHUDESC@DescriptorManager@@@_STL@@@2@@_STL@@QAE?AU?$_Rb_tree_iterator@U?$pair@$$CBHUDESC@DescriptorManager@@@_STL@@U?$_Nonconst_traits@U?$pair@$$CBHUDESC@DescriptorManager@@@_STL@@@2@@2@ABU?$pair@$$CBHUDESC@DescriptorManager@@@2@@Z
_TEXT	SEGMENT
___$ReturnUdt$ = 8					; size = 4
___v$ = 12						; size = 4
?insert_equal@?$_Rb_tree@HU?$pair@$$CBHUDESC@DescriptorManager@@@_STL@@U?$_Select1st@U?$pair@$$CBHUDESC@DescriptorManager@@@_STL@@@2@U?$less@H@2@V?$allocator@U?$pair@$$CBHUDESC@DescriptorManager@@@_STL@@@2@@_STL@@QAE?AU?$_Rb_tree_iterator@U?$pair@$$CBHUDESC@DescriptorManager@@@_STL@@U?$_Nonconst_traits@U?$pair@$$CBHUDESC@DescriptorManager@@@_STL@@@2@@2@ABU?$pair@$$CBHUDESC@DescriptorManager@@@2@@Z PROC NEAR ; _STL::_Rb_tree<int,_STL::pair<int const ,DescriptorManager::DESC>,_STL::_Select1st<_STL::pair<int const ,DescriptorManager::DESC> >,_STL::less<int>,_STL::allocator<_STL::pair<int const ,DescriptorManager::DESC> > >::insert_equal, COMDAT
; _this$ = ecx

; 388  :   _Link_type __y = this->_M_header._M_data;

  00000	8b 11		 mov	 edx, DWORD PTR [ecx]

; 389  :   _Link_type __x = _M_root();

  00002	8b 42 04	 mov	 eax, DWORD PTR [edx+4]

; 390  :   while (__x != 0) {

  00005	85 c0		 test	 eax, eax
  00007	56		 push	 esi
  00008	57		 push	 edi
  00009	8b 7c 24 10	 mov	 edi, DWORD PTR ___v$[esp+4]
  0000d	74 15		 je	 SHORT $L89855
  0000f	8b 37		 mov	 esi, DWORD PTR [edi]
$L89854:

; 391  :     __y = __x;
; 392  :     __x = _M_key_compare(_KeyOfValue()(__v), _S_key(__x)) ? 
; 393  :             _S_left(__x) : _S_right(__x);

  00011	3b 70 10	 cmp	 esi, DWORD PTR [eax+16]
  00014	8b d0		 mov	 edx, eax
  00016	7d 05		 jge	 SHORT $L91860
  00018	8b 40 08	 mov	 eax, DWORD PTR [eax+8]
  0001b	eb 03		 jmp	 SHORT $L91861
$L91860:
  0001d	8b 40 0c	 mov	 eax, DWORD PTR [eax+12]
$L91861:

; 390  :   while (__x != 0) {

  00020	85 c0		 test	 eax, eax
  00022	75 ed		 jne	 SHORT $L89854
$L89855:

; 394  :   }
; 395  :   return _M_insert(__x, __y, __v);

  00024	8b 74 24 0c	 mov	 esi, DWORD PTR ___$ReturnUdt$[esp+4]
  00028	6a 00		 push	 0
  0002a	57		 push	 edi
  0002b	52		 push	 edx
  0002c	50		 push	 eax
  0002d	56		 push	 esi
  0002e	e8 00 00 00 00	 call	 ?_M_insert@?$_Rb_tree@HU?$pair@$$CBHUDESC@DescriptorManager@@@_STL@@U?$_Select1st@U?$pair@$$CBHUDESC@DescriptorManager@@@_STL@@@2@U?$less@H@2@V?$allocator@U?$pair@$$CBHUDESC@DescriptorManager@@@_STL@@@2@@_STL@@AAE?AU?$_Rb_tree_iterator@U?$pair@$$CBHUDESC@DescriptorManager@@@_STL@@U?$_Nonconst_traits@U?$pair@$$CBHUDESC@DescriptorManager@@@_STL@@@2@@2@PAU_Rb_tree_node_base@2@0ABU?$pair@$$CBHUDESC@DescriptorManager@@@2@0@Z ; _STL::_Rb_tree<int,_STL::pair<int const ,DescriptorManager::DESC>,_STL::_Select1st<_STL::pair<int const ,DescriptorManager::DESC> >,_STL::less<int>,_STL::allocator<_STL::pair<int const ,DescriptorManager::DESC> > >::_M_insert
  00033	5f		 pop	 edi
  00034	8b c6		 mov	 eax, esi
  00036	5e		 pop	 esi

; 396  : }

  00037	c2 08 00	 ret	 8
?insert_equal@?$_Rb_tree@HU?$pair@$$CBHUDESC@DescriptorManager@@@_STL@@U?$_Select1st@U?$pair@$$CBHUDESC@DescriptorManager@@@_STL@@@2@U?$less@H@2@V?$allocator@U?$pair@$$CBHUDESC@DescriptorManager@@@_STL@@@2@@_STL@@QAE?AU?$_Rb_tree_iterator@U?$pair@$$CBHUDESC@DescriptorManager@@@_STL@@U?$_Nonconst_traits@U?$pair@$$CBHUDESC@DescriptorManager@@@_STL@@@2@@2@ABU?$pair@$$CBHUDESC@DescriptorManager@@@2@@Z ENDP ; _STL::_Rb_tree<int,_STL::pair<int const ,DescriptorManager::DESC>,_STL::_Select1st<_STL::pair<int const ,DescriptorManager::DESC> >,_STL::less<int>,_STL::allocator<_STL::pair<int const ,DescriptorManager::DESC> > >::insert_equal
_TEXT	ENDS
PUBLIC	??1?$multimap@HUDESC@DescriptorManager@@U?$less@H@_STL@@V?$allocator@U?$pair@$$CBHUDESC@DescriptorManager@@@_STL@@@4@@_STL@@QAE@XZ ; _STL::multimap<int,DescriptorManager::DESC,_STL::less<int>,_STL::allocator<_STL::pair<int const ,DescriptorManager::DESC> > >::~multimap<int,DescriptorManager::DESC,_STL::less<int>,_STL::allocator<_STL::pair<int const ,DescriptorManager::DESC> > >
; Function compile flags: /Ogty
;	COMDAT ??1?$multimap@HUDESC@DescriptorManager@@U?$less@H@_STL@@V?$allocator@U?$pair@$$CBHUDESC@DescriptorManager@@@_STL@@@4@@_STL@@QAE@XZ
_TEXT	SEGMENT
??1?$multimap@HUDESC@DescriptorManager@@U?$less@H@_STL@@V?$allocator@U?$pair@$$CBHUDESC@DescriptorManager@@@_STL@@@4@@_STL@@QAE@XZ PROC NEAR ; _STL::multimap<int,DescriptorManager::DESC,_STL::less<int>,_STL::allocator<_STL::pair<int const ,DescriptorManager::DESC> > >::~multimap<int,DescriptorManager::DESC,_STL::less<int>,_STL::allocator<_STL::pair<int const ,DescriptorManager::DESC> > >, COMDAT
; _this$ = ecx
  00000	e9 00 00 00 00	 jmp	 ??1?$_Rb_tree@HU?$pair@$$CBHUDESC@DescriptorManager@@@_STL@@U?$_Select1st@U?$pair@$$CBHUDESC@DescriptorManager@@@_STL@@@2@U?$less@H@2@V?$allocator@U?$pair@$$CBHUDESC@DescriptorManager@@@_STL@@@2@@_STL@@QAE@XZ ; _STL::_Rb_tree<int,_STL::pair<int const ,DescriptorManager::DESC>,_STL::_Select1st<_STL::pair<int const ,DescriptorManager::DESC> >,_STL::less<int>,_STL::allocator<_STL::pair<int const ,DescriptorManager::DESC> > >::~_Rb_tree<int,_STL::pair<int const ,DescriptorManager::DESC>,_STL::_Select1st<_STL::pair<int const ,DescriptorManager::DESC> >,_STL::less<int>,_STL::allocator<_STL::pair<int const ,DescriptorManager::DESC> > >
??1?$multimap@HUDESC@DescriptorManager@@U?$less@H@_STL@@V?$allocator@U?$pair@$$CBHUDESC@DescriptorManager@@@_STL@@@4@@_STL@@QAE@XZ ENDP ; _STL::multimap<int,DescriptorManager::DESC,_STL::less<int>,_STL::allocator<_STL::pair<int const ,DescriptorManager::DESC> > >::~multimap<int,DescriptorManager::DESC,_STL::less<int>,_STL::allocator<_STL::pair<int const ,DescriptorManager::DESC> > >
_TEXT	ENDS
PUBLIC	??_R4DescriptorManager@@6B@			; DescriptorManager::`RTTI Complete Object Locator'
PUBLIC	??_R0?AVDescriptorManager@@@8			; DescriptorManager `RTTI Type Descriptor'
PUBLIC	??_R3DescriptorManager@@8			; DescriptorManager::`RTTI Class Hierarchy Descriptor'
PUBLIC	??_R2DescriptorManager@@8			; DescriptorManager::`RTTI Base Class Array'
PUBLIC	??_R1A@?0A@A@DescriptorManager@@8		; DescriptorManager::`RTTI Base Class Descriptor at (0,-1,0,0)'
PUBLIC	??1DescriptorManager@@UAE@XZ			; DescriptorManager::~DescriptorManager
PUBLIC	??_7DescriptorManager@@6B@			; DescriptorManager::`vftable'
PUBLIC	??_GDescriptorManager@@UAEPAXI@Z		; DescriptorManager::`scalar deleting destructor'
EXTRN	??_EDescriptorManager@@UAEPAXI@Z:NEAR		; DescriptorManager::`vector deleting destructor'
;	COMDAT xdata$x
; File c:\darkeden\designed_common\project\new - vs_ui\src\widget\simpledatalist.h
xdata$x	SEGMENT
$T91931	DD	0ffffffffH
	DD	FLAT:$L91902
$T91926	DD	019930520H
	DD	01H
	DD	FLAT:$T91931
	DD	2 DUP(00H)
	DD	2 DUP(00H)
xdata$x	ENDS
;	COMDAT ??_7DescriptorManager@@6B@
CONST	SEGMENT
??_7DescriptorManager@@6B@ DD FLAT:??_R4DescriptorManager@@6B@ ; DescriptorManager::`vftable'
	DD	FLAT:??_EDescriptorManager@@UAEPAXI@Z
CONST	ENDS
;	COMDAT ??_R4DescriptorManager@@6B@
rdata$r	SEGMENT
??_R4DescriptorManager@@6B@ DD 00H			; DescriptorManager::`RTTI Complete Object Locator'
	DD	00H
	DD	00H
	DD	FLAT:??_R0?AVDescriptorManager@@@8
	DD	FLAT:??_R3DescriptorManager@@8
rdata$r	ENDS
;	COMDAT ??_R0?AVDescriptorManager@@@8
_DATA	SEGMENT
??_R0?AVDescriptorManager@@@8 DD FLAT:??_7type_info@@6B@ ; DescriptorManager `RTTI Type Descriptor'
	DD	00H
	DB	'.?AVDescriptorManager@@', 00H
_DATA	ENDS
;	COMDAT ??_R3DescriptorManager@@8
rdata$r	SEGMENT
??_R3DescriptorManager@@8 DD 00H			; DescriptorManager::`RTTI Class Hierarchy Descriptor'
	DD	00H
	DD	02H
	DD	FLAT:??_R2DescriptorManager@@8
rdata$r	ENDS
;	COMDAT ??_R2DescriptorManager@@8
rdata$r	SEGMENT
??_R2DescriptorManager@@8 DD FLAT:??_R1A@?0A@A@DescriptorManager@@8 ; DescriptorManager::`RTTI Base Class Array'
	DD	FLAT:??_R1A@?0A@A@?$SimpleDataList@PAUDESCRIBED_UNIT@@@@8
rdata$r	ENDS
;	COMDAT ??_R1A@?0A@A@DescriptorManager@@8
rdata$r	SEGMENT
??_R1A@?0A@A@DescriptorManager@@8 DD FLAT:??_R0?AVDescriptorManager@@@8 ; DescriptorManager::`RTTI Base Class Descriptor at (0,-1,0,0)'
	DD	01H
	DD	00H
	DD	0ffffffffH
	DD	00H
	DD	00H
; Function compile flags: /Ogty
; File c:\darkeden\designed_common\project\new - vs_ui\src\vs_ui_descriptor.cpp
rdata$r	ENDS
;	COMDAT ??1DescriptorManager@@UAE@XZ
_TEXT	SEGMENT
_this$ = -16						; size = 4
__$EHRec$ = -12						; size = 12
??1DescriptorManager@@UAE@XZ PROC NEAR			; DescriptorManager::~DescriptorManager, COMDAT
; _this$ = ecx

; 27   : {

  00000	6a ff		 push	 -1
  00002	68 00 00 00 00	 push	 __ehhandler$??1DescriptorManager@@UAE@XZ
  00007	64 a1 00 00 00
	00		 mov	 eax, DWORD PTR fs:__except_list
  0000d	50		 push	 eax
  0000e	64 89 25 00 00
	00 00		 mov	 DWORD PTR fs:__except_list, esp
  00015	51		 push	 ecx
  00016	56		 push	 esi
  00017	8b f1		 mov	 esi, ecx
  00019	57		 push	 edi
  0001a	89 74 24 08	 mov	 DWORD PTR _this$[esp+24], esi
  0001e	c7 06 00 00 00
	00		 mov	 DWORD PTR [esi], OFFSET FLAT:??_7DescriptorManager@@6B@

; 28   : 	DESCRIBED_UNIT * data;
; 29   : 	for (int i=0; i < Size(); i++)

  00024	8b 46 08	 mov	 eax, DWORD PTR [esi+8]
  00027	33 ff		 xor	 edi, edi
  00029	85 c0		 test	 eax, eax
  0002b	c7 44 24 14 00
	00 00 00	 mov	 DWORD PTR __$EHRec$[esp+32], 0
  00033	7e 20		 jle	 SHORT $L89048
$L89046:

; 30   : 		if (Data(i, data))

  00035	85 ff		 test	 edi, edi
  00037	7c 14		 jl	 SHORT $L89047
  00039	3b 7e 08	 cmp	 edi, DWORD PTR [esi+8]
  0003c	7d 0f		 jge	 SHORT $L89047
  0003e	8b 46 04	 mov	 eax, DWORD PTR [esi+4]
  00041	8b 04 b8	 mov	 eax, DWORD PTR [eax+edi*4]

; 31   : 			delete data;

  00044	50		 push	 eax
  00045	e8 00 00 00 00	 call	 ??3@YAXPAX@Z		; operator delete
  0004a	83 c4 04	 add	 esp, 4
$L89047:
  0004d	8b 46 08	 mov	 eax, DWORD PTR [esi+8]
  00050	47		 inc	 edi
  00051	3b f8		 cmp	 edi, eax
  00053	7c e0		 jl	 SHORT $L89046
$L89048:

; 32   : }

  00055	8d 4e 0c	 lea	 ecx, DWORD PTR [esi+12]
  00058	e8 00 00 00 00	 call	 ??1?$_Rb_tree@HU?$pair@$$CBHUDESC@DescriptorManager@@@_STL@@U?$_Select1st@U?$pair@$$CBHUDESC@DescriptorManager@@@_STL@@@2@U?$less@H@2@V?$allocator@U?$pair@$$CBHUDESC@DescriptorManager@@@_STL@@@2@@_STL@@QAE@XZ ; _STL::_Rb_tree<int,_STL::pair<int const ,DescriptorManager::DESC>,_STL::_Select1st<_STL::pair<int const ,DescriptorManager::DESC> >,_STL::less<int>,_STL::allocator<_STL::pair<int const ,DescriptorManager::DESC> > >::~_Rb_tree<int,_STL::pair<int const ,DescriptorManager::DESC>,_STL::_Select1st<_STL::pair<int const ,DescriptorManager::DESC> >,_STL::less<int>,_STL::allocator<_STL::pair<int const ,DescriptorManager::DESC> > >
  0005d	8b 46 04	 mov	 eax, DWORD PTR [esi+4]
  00060	85 c0		 test	 eax, eax
  00062	c7 06 00 00 00
	00		 mov	 DWORD PTR [esi], OFFSET FLAT:??_7?$SimpleDataList@PAUDESCRIBED_UNIT@@@@6B@
  00068	74 10		 je	 SHORT $L91922
  0006a	50		 push	 eax
  0006b	e8 00 00 00 00	 call	 ??_V@YAXPAX@Z		; operator delete[]
  00070	83 c4 04	 add	 esp, 4
  00073	c7 46 04 00 00
	00 00		 mov	 DWORD PTR [esi+4], 0
$L91922:
  0007a	8b 4c 24 0c	 mov	 ecx, DWORD PTR __$EHRec$[esp+24]
  0007e	5f		 pop	 edi
  0007f	5e		 pop	 esi
  00080	64 89 0d 00 00
	00 00		 mov	 DWORD PTR fs:__except_list, ecx
  00087	83 c4 10	 add	 esp, 16			; 00000010H
  0008a	c3		 ret	 0
_TEXT	ENDS
;	COMDAT text$x
text$x	SEGMENT
$L91902:
  00000	8b 4d f0	 mov	 ecx, DWORD PTR _this$[ebp]
  00003	e9 00 00 00 00	 jmp	 ??1?$SimpleDataList@PAUDESCRIBED_UNIT@@@@UAE@XZ ; SimpleDataList<DESCRIBED_UNIT *>::~SimpleDataList<DESCRIBED_UNIT *>
__ehhandler$??1DescriptorManager@@UAE@XZ:
  00008	b8 00 00 00 00	 mov	 eax, OFFSET FLAT:$T91926
  0000d	e9 00 00 00 00	 jmp	 ___CxxFrameHandler
text$x	ENDS
??1DescriptorManager@@UAE@XZ ENDP			; DescriptorManager::~DescriptorManager
PUBLIC	?Unset@DescriptorManager@@QAEXPAX@Z		; DescriptorManager::Unset
; Function compile flags: /Ogty
;	COMDAT ?Unset@DescriptorManager@@QAEXPAX@Z
_TEXT	SEGMENT
_pPtr$ = 8						; size = 4
?Unset@DescriptorManager@@QAEXPAX@Z PROC NEAR		; DescriptorManager::Unset, COMDAT
; _this$ = ecx

; 85   : {

  00000	53		 push	 ebx

; 86   : 	if (pPtr==NULL)

  00001	8b 5c 24 08	 mov	 ebx, DWORD PTR _pPtr$[esp]
  00005	85 db		 test	 ebx, ebx
  00007	56		 push	 esi
  00008	57		 push	 edi
  00009	8b f9		 mov	 edi, ecx
  0000b	75 2f		 jne	 SHORT $L89177

; 87   : 	{
; 88   : 		m_DescMap.clear();

  0000d	8b 47 10	 mov	 eax, DWORD PTR [edi+16]
  00010	85 c0		 test	 eax, eax
  00012	8d 77 0c	 lea	 esi, DWORD PTR [edi+12]
  00015	74 7b		 je	 SHORT $L89184
  00017	8b 06		 mov	 eax, DWORD PTR [esi]
  00019	8b 48 04	 mov	 ecx, DWORD PTR [eax+4]
  0001c	51		 push	 ecx
  0001d	8b ce		 mov	 ecx, esi
  0001f	e8 00 00 00 00	 call	 ?_M_erase@?$_Rb_tree@HU?$pair@$$CBHUDESC@DescriptorManager@@@_STL@@U?$_Select1st@U?$pair@$$CBHUDESC@DescriptorManager@@@_STL@@@2@U?$less@H@2@V?$allocator@U?$pair@$$CBHUDESC@DescriptorManager@@@_STL@@@2@@_STL@@AAEXPAU?$_Rb_tree_node@U?$pair@$$CBHUDESC@DescriptorManager@@@_STL@@@2@@Z ; _STL::_Rb_tree<int,_STL::pair<int const ,DescriptorManager::DESC>,_STL::_Select1st<_STL::pair<int const ,DescriptorManager::DESC> >,_STL::less<int>,_STL::allocator<_STL::pair<int const ,DescriptorManager::DESC> > >::_M_erase
  00024	8b 06		 mov	 eax, DWORD PTR [esi]
  00026	89 40 08	 mov	 DWORD PTR [eax+8], eax
  00029	8b 16		 mov	 edx, DWORD PTR [esi]
  0002b	89 5a 04	 mov	 DWORD PTR [edx+4], ebx
  0002e	8b 06		 mov	 eax, DWORD PTR [esi]
  00030	5f		 pop	 edi
  00031	89 40 0c	 mov	 DWORD PTR [eax+12], eax
  00034	89 5e 04	 mov	 DWORD PTR [esi+4], ebx
  00037	5e		 pop	 esi
  00038	5b		 pop	 ebx

; 100  : 			break;
; 101  : 		}
; 102  : 	}
; 103  : }

  00039	c2 04 00	 ret	 4
$L89177:

; 89   : 		return;
; 90   : 	}
; 91   : 
; 92   : 	DescMap::iterator iter = m_DescMap.begin();

  0003c	8b 77 0c	 mov	 esi, DWORD PTR [edi+12]
  0003f	8b 46 08	 mov	 eax, DWORD PTR [esi+8]

; 93   : 	DescMap::iterator endIter = m_DescMap.end();
; 94   : 	for(; iter != endIter; ++iter)

  00042	3b c6		 cmp	 eax, esi
  00044	74 4c		 je	 SHORT $L89184
$L92017:

; 95   : 	{		
; 96   : 		const DESC& desc = iter->second;
; 97   : 		if(desc.m_fp_show_param.void_ptr == pPtr)

  00046	39 58 28	 cmp	 DWORD PTR [eax+40], ebx
  00049	74 13		 je	 SHORT $L92116
  0004b	50		 push	 eax
  0004c	e8 00 00 00 00	 call	 ?_M_increment@?$_Rb_global@_N@_STL@@SAPAU_Rb_tree_node_base@2@PAU32@@Z ; _STL::_Rb_global<bool>::_M_increment
  00051	83 c4 04	 add	 esp, 4
  00054	3b c6		 cmp	 eax, esi
  00056	75 ee		 jne	 SHORT $L92017
  00058	5f		 pop	 edi
  00059	5e		 pop	 esi
  0005a	5b		 pop	 ebx

; 100  : 			break;
; 101  : 		}
; 102  : 	}
; 103  : }

  0005b	c2 04 00	 ret	 4
$L92116:

; 98   : 		{
; 99   : 			m_DescMap.erase(iter);

  0005e	8b 4f 0c	 mov	 ecx, DWORD PTR [edi+12]
  00061	8d 51 0c	 lea	 edx, DWORD PTR [ecx+12]
  00064	52		 push	 edx
  00065	8d 51 08	 lea	 edx, DWORD PTR [ecx+8]
  00068	52		 push	 edx
  00069	83 c1 04	 add	 ecx, 4
  0006c	51		 push	 ecx
  0006d	50		 push	 eax
  0006e	e8 00 00 00 00	 call	 ?_Rebalance_for_erase@?$_Rb_global@_N@_STL@@SAPAU_Rb_tree_node_base@2@PAU32@AAPAU32@11@Z ; _STL::_Rb_global<bool>::_Rebalance_for_erase
  00073	8b f0		 mov	 esi, eax
  00075	83 c4 10	 add	 esp, 16			; 00000010H
  00078	8d 4e 10	 lea	 ecx, DWORD PTR [esi+16]
  0007b	e8 00 00 00 00	 call	 ??1?$pair@$$CBHUDESC@DescriptorManager@@@_STL@@QAE@XZ
  00080	85 f6		 test	 esi, esi
  00082	74 0b		 je	 SHORT $L92109
  00084	6a 34		 push	 52			; 00000034H
  00086	56		 push	 esi
  00087	e8 00 00 00 00	 call	 ?_M_deallocate@?$__node_alloc@$00$0A@@_STL@@CAXPAXI@Z ; _STL::__node_alloc<1,0>::_M_deallocate
  0008c	83 c4 08	 add	 esp, 8
$L92109:
  0008f	ff 4f 10	 dec	 DWORD PTR [edi+16]
$L89184:
  00092	5f		 pop	 edi
  00093	5e		 pop	 esi
  00094	5b		 pop	 ebx

; 100  : 			break;
; 101  : 		}
; 102  : 	}
; 103  : }

  00095	c2 04 00	 ret	 4
?Unset@DescriptorManager@@QAEXPAX@Z ENDP		; DescriptorManager::Unset
_TEXT	ENDS
PUBLIC	??0?$multimap@HUDESC@DescriptorManager@@U?$less@H@_STL@@V?$allocator@U?$pair@$$CBHUDESC@DescriptorManager@@@_STL@@@4@@_STL@@QAE@XZ ; _STL::multimap<int,DescriptorManager::DESC,_STL::less<int>,_STL::allocator<_STL::pair<int const ,DescriptorManager::DESC> > >::multimap<int,DescriptorManager::DESC,_STL::less<int>,_STL::allocator<_STL::pair<int const ,DescriptorManager::DESC> > >
; Function compile flags: /Ogty
; File c:\stlport-4.6.1\stlport\stl\_map.h
;	COMDAT ??0?$multimap@HUDESC@DescriptorManager@@U?$less@H@_STL@@V?$allocator@U?$pair@$$CBHUDESC@DescriptorManager@@@_STL@@@4@@_STL@@QAE@XZ
_TEXT	SEGMENT
??0?$multimap@HUDESC@DescriptorManager@@U?$less@H@_STL@@V?$allocator@U?$pair@$$CBHUDESC@DescriptorManager@@@_STL@@@4@@_STL@@QAE@XZ PROC NEAR ; _STL::multimap<int,DescriptorManager::DESC,_STL::less<int>,_STL::allocator<_STL::pair<int const ,DescriptorManager::DESC> > >::multimap<int,DescriptorManager::DESC,_STL::less<int>,_STL::allocator<_STL::pair<int const ,DescriptorManager::DESC> > >, COMDAT
; _this$ = ecx

; 266  :   multimap() : _M_t(_Compare(), allocator_type()) { }

  00000	56		 push	 esi
  00001	8b f1		 mov	 esi, ecx
  00003	6a 34		 push	 52			; 00000034H
  00005	c7 06 00 00 00
	00		 mov	 DWORD PTR [esi], 0
  0000b	e8 00 00 00 00	 call	 ?_M_allocate@?$__node_alloc@$00$0A@@_STL@@CAPAXI@Z ; _STL::__node_alloc<1,0>::_M_allocate
  00010	89 06		 mov	 DWORD PTR [esi], eax
  00012	c7 46 04 00 00
	00 00		 mov	 DWORD PTR [esi+4], 0
  00019	c6 00 00	 mov	 BYTE PTR [eax], 0
  0001c	8b 06		 mov	 eax, DWORD PTR [esi]
  0001e	c7 40 04 00 00
	00 00		 mov	 DWORD PTR [eax+4], 0
  00025	8b 06		 mov	 eax, DWORD PTR [esi]
  00027	89 40 08	 mov	 DWORD PTR [eax+8], eax
  0002a	8b 06		 mov	 eax, DWORD PTR [esi]
  0002c	83 c4 04	 add	 esp, 4
  0002f	89 40 0c	 mov	 DWORD PTR [eax+12], eax
  00032	8b c6		 mov	 eax, esi
  00034	5e		 pop	 esi
  00035	c3		 ret	 0
??0?$multimap@HUDESC@DescriptorManager@@U?$less@H@_STL@@V?$allocator@U?$pair@$$CBHUDESC@DescriptorManager@@@_STL@@@4@@_STL@@QAE@XZ ENDP ; _STL::multimap<int,DescriptorManager::DESC,_STL::less<int>,_STL::allocator<_STL::pair<int const ,DescriptorManager::DESC> > >::multimap<int,DescriptorManager::DESC,_STL::less<int>,_STL::allocator<_STL::pair<int const ,DescriptorManager::DESC> > >
_TEXT	ENDS
PUBLIC	?insert@?$multimap@HUDESC@DescriptorManager@@U?$less@H@_STL@@V?$allocator@U?$pair@$$CBHUDESC@DescriptorManager@@@_STL@@@4@@_STL@@QAE?AU?$_Rb_tree_iterator@U?$pair@$$CBHUDESC@DescriptorManager@@@_STL@@U?$_Nonconst_traits@U?$pair@$$CBHUDESC@DescriptorManager@@@_STL@@@2@@2@ABU?$pair@$$CBHUDESC@DescriptorManager@@@2@@Z ; _STL::multimap<int,DescriptorManager::DESC,_STL::less<int>,_STL::allocator<_STL::pair<int const ,DescriptorManager::DESC> > >::insert
; Function compile flags: /Ogty
;	COMDAT ?insert@?$multimap@HUDESC@DescriptorManager@@U?$less@H@_STL@@V?$allocator@U?$pair@$$CBHUDESC@DescriptorManager@@@_STL@@@4@@_STL@@QAE?AU?$_Rb_tree_iterator@U?$pair@$$CBHUDESC@DescriptorManager@@@_STL@@U?$_Nonconst_traits@U?$pair@$$CBHUDESC@DescriptorManager@@@_STL@@@2@@2@ABU?$pair@$$CBHUDESC@DescriptorManager@@@2@@Z
_TEXT	SEGMENT
___$ReturnUdt$ = 8					; size = 4
___x$ = 12						; size = 4
?insert@?$multimap@HUDESC@DescriptorManager@@U?$less@H@_STL@@V?$allocator@U?$pair@$$CBHUDESC@DescriptorManager@@@_STL@@@4@@_STL@@QAE?AU?$_Rb_tree_iterator@U?$pair@$$CBHUDESC@DescriptorManager@@@_STL@@U?$_Nonconst_traits@U?$pair@$$CBHUDESC@DescriptorManager@@@_STL@@@2@@2@ABU?$pair@$$CBHUDESC@DescriptorManager@@@2@@Z PROC NEAR ; _STL::multimap<int,DescriptorManager::DESC,_STL::less<int>,_STL::allocator<_STL::pair<int const ,DescriptorManager::DESC> > >::insert, COMDAT
; _this$ = ecx

; 333  :   iterator insert(const value_type& __x) { return _M_t.insert_equal(__x); }

  00000	8b 11		 mov	 edx, DWORD PTR [ecx]
  00002	8b 42 04	 mov	 eax, DWORD PTR [edx+4]
  00005	85 c0		 test	 eax, eax
  00007	56		 push	 esi
  00008	57		 push	 edi
  00009	8b 7c 24 10	 mov	 edi, DWORD PTR ___x$[esp+4]
  0000d	74 15		 je	 SHORT $L92298
  0000f	8b 37		 mov	 esi, DWORD PTR [edi]
$L92297:
  00011	3b 70 10	 cmp	 esi, DWORD PTR [eax+16]
  00014	8b d0		 mov	 edx, eax
  00016	7d 05		 jge	 SHORT $L92275
  00018	8b 40 08	 mov	 eax, DWORD PTR [eax+8]
  0001b	eb 03		 jmp	 SHORT $L92276
$L92275:
  0001d	8b 40 0c	 mov	 eax, DWORD PTR [eax+12]
$L92276:
  00020	85 c0		 test	 eax, eax
  00022	75 ed		 jne	 SHORT $L92297
$L92298:
  00024	8b 74 24 0c	 mov	 esi, DWORD PTR ___$ReturnUdt$[esp+4]
  00028	6a 00		 push	 0
  0002a	57		 push	 edi
  0002b	52		 push	 edx
  0002c	50		 push	 eax
  0002d	56		 push	 esi
  0002e	e8 00 00 00 00	 call	 ?_M_insert@?$_Rb_tree@HU?$pair@$$CBHUDESC@DescriptorManager@@@_STL@@U?$_Select1st@U?$pair@$$CBHUDESC@DescriptorManager@@@_STL@@@2@U?$less@H@2@V?$allocator@U?$pair@$$CBHUDESC@DescriptorManager@@@_STL@@@2@@_STL@@AAE?AU?$_Rb_tree_iterator@U?$pair@$$CBHUDESC@DescriptorManager@@@_STL@@U?$_Nonconst_traits@U?$pair@$$CBHUDESC@DescriptorManager@@@_STL@@@2@@2@PAU_Rb_tree_node_base@2@0ABU?$pair@$$CBHUDESC@DescriptorManager@@@2@0@Z ; _STL::_Rb_tree<int,_STL::pair<int const ,DescriptorManager::DESC>,_STL::_Select1st<_STL::pair<int const ,DescriptorManager::DESC> >,_STL::less<int>,_STL::allocator<_STL::pair<int const ,DescriptorManager::DESC> > >::_M_insert
  00033	5f		 pop	 edi
  00034	8b c6		 mov	 eax, esi
  00036	5e		 pop	 esi
  00037	c2 08 00	 ret	 8
?insert@?$multimap@HUDESC@DescriptorManager@@U?$less@H@_STL@@V?$allocator@U?$pair@$$CBHUDESC@DescriptorManager@@@_STL@@@4@@_STL@@QAE?AU?$_Rb_tree_iterator@U?$pair@$$CBHUDESC@DescriptorManager@@@_STL@@U?$_Nonconst_traits@U?$pair@$$CBHUDESC@DescriptorManager@@@_STL@@@2@@2@ABU?$pair@$$CBHUDESC@DescriptorManager@@@2@@Z ENDP ; _STL::multimap<int,DescriptorManager::DESC,_STL::less<int>,_STL::allocator<_STL::pair<int const ,DescriptorManager::DESC> > >::insert
_TEXT	ENDS
PUBLIC	??0DescriptorManager@@QAE@XZ			; DescriptorManager::DescriptorManager
;	COMDAT xdata$x
; File c:\stlport-4.6.1\stlport\stl\_alloc.h
xdata$x	SEGMENT
$T92466	DD	0ffffffffH
	DD	FLAT:$L92304
$T92464	DD	019930520H
	DD	01H
	DD	FLAT:$T92466
	DD	2 DUP(00H)
	DD	2 DUP(00H)
; Function compile flags: /Ogty
; File c:\darkeden\designed_common\project\new - vs_ui\src\vs_ui_descriptor.cpp
xdata$x	ENDS
;	COMDAT ??0DescriptorManager@@QAE@XZ
_TEXT	SEGMENT
_this$ = -16						; size = 4
__$EHRec$ = -12						; size = 12
??0DescriptorManager@@QAE@XZ PROC NEAR			; DescriptorManager::DescriptorManager, COMDAT
; _this$ = ecx

; 18   : {

  00000	6a ff		 push	 -1
  00002	68 00 00 00 00	 push	 __ehhandler$??0DescriptorManager@@QAE@XZ
  00007	64 a1 00 00 00
	00		 mov	 eax, DWORD PTR fs:__except_list
  0000d	50		 push	 eax
  0000e	64 89 25 00 00
	00 00		 mov	 DWORD PTR fs:__except_list, esp
  00015	51		 push	 ecx
  00016	53		 push	 ebx
  00017	56		 push	 esi
  00018	8b f1		 mov	 esi, ecx
  0001a	33 db		 xor	 ebx, ebx
  0001c	89 74 24 08	 mov	 DWORD PTR _this$[esp+24], esi
  00020	89 5e 04	 mov	 DWORD PTR [esi+4], ebx
  00023	89 5e 08	 mov	 DWORD PTR [esi+8], ebx
  00026	c7 06 00 00 00
	00		 mov	 DWORD PTR [esi], OFFSET FLAT:??_7DescriptorManager@@6B@
  0002c	6a 34		 push	 52			; 00000034H
  0002e	89 5c 24 18	 mov	 DWORD PTR __$EHRec$[esp+36], ebx
  00032	89 5e 0c	 mov	 DWORD PTR [esi+12], ebx
  00035	e8 00 00 00 00	 call	 ?_M_allocate@?$__node_alloc@$00$0A@@_STL@@CAPAXI@Z ; _STL::__node_alloc<1,0>::_M_allocate

; 19   : }

  0003a	8b 4c 24 10	 mov	 ecx, DWORD PTR __$EHRec$[esp+28]
  0003e	89 46 0c	 mov	 DWORD PTR [esi+12], eax
  00041	89 5e 10	 mov	 DWORD PTR [esi+16], ebx
  00044	88 18		 mov	 BYTE PTR [eax], bl
  00046	8b 46 0c	 mov	 eax, DWORD PTR [esi+12]
  00049	89 58 04	 mov	 DWORD PTR [eax+4], ebx
  0004c	8b 46 0c	 mov	 eax, DWORD PTR [esi+12]
  0004f	89 40 08	 mov	 DWORD PTR [eax+8], eax
  00052	8b 46 0c	 mov	 eax, DWORD PTR [esi+12]
  00055	83 c4 04	 add	 esp, 4
  00058	89 40 0c	 mov	 DWORD PTR [eax+12], eax
  0005b	8b c6		 mov	 eax, esi
  0005d	5e		 pop	 esi
  0005e	5b		 pop	 ebx
  0005f	64 89 0d 00 00
	00 00		 mov	 DWORD PTR fs:__except_list, ecx
  00066	83 c4 10	 add	 esp, 16			; 00000010H
  00069	c3		 ret	 0
_TEXT	ENDS
;	COMDAT text$x
text$x	SEGMENT
$L92304:
  00000	8b 4d f0	 mov	 ecx, DWORD PTR _this$[ebp]
  00003	e9 00 00 00 00	 jmp	 ??1?$SimpleDataList@PAUDESCRIBED_UNIT@@@@UAE@XZ ; SimpleDataList<DESCRIBED_UNIT *>::~SimpleDataList<DESCRIBED_UNIT *>
__ehhandler$??0DescriptorManager@@QAE@XZ:
  00008	b8 00 00 00 00	 mov	 eax, OFFSET FLAT:$T92464
  0000d	e9 00 00 00 00	 jmp	 ___CxxFrameHandler
text$x	ENDS
??0DescriptorManager@@QAE@XZ ENDP			; DescriptorManager::DescriptorManager
; Function compile flags: /Ogty
;	COMDAT ??_GDescriptorManager@@UAEPAXI@Z
_TEXT	SEGMENT
___flags$ = 8						; size = 4
??_GDescriptorManager@@UAEPAXI@Z PROC NEAR		; DescriptorManager::`scalar deleting destructor', COMDAT
; _this$ = ecx
  00000	56		 push	 esi
  00001	8b f1		 mov	 esi, ecx
  00003	e8 00 00 00 00	 call	 ??1DescriptorManager@@UAE@XZ ; DescriptorManager::~DescriptorManager
  00008	f6 44 24 08 01	 test	 BYTE PTR ___flags$[esp], 1
  0000d	74 09		 je	 SHORT $L92472
  0000f	56		 push	 esi
  00010	e8 00 00 00 00	 call	 ??3@YAXPAX@Z		; operator delete
  00015	83 c4 04	 add	 esp, 4
$L92472:
  00018	8b c6		 mov	 eax, esi
  0001a	5e		 pop	 esi
  0001b	c2 04 00	 ret	 4
??_GDescriptorManager@@UAEPAXI@Z ENDP			; DescriptorManager::`scalar deleting destructor'
_TEXT	ENDS
PUBLIC	?RectCalculationFinished@DescriptorManager@@QAEXP6AXVRect@@PAXJJ@Z01JJH@Z ; DescriptorManager::RectCalculationFinished
;	COMDAT xdata$x
; File c:\darkeden\designed_common\project\new - vs_ui\src\header\vs_ui_descriptor.h
xdata$x	SEGMENT
$T92615	DD	0ffffffffH
	DD	FLAT:$L92478
	DD	00H
	DD	FLAT:$L92479
	DD	01H
	DD	FLAT:$L92480
$T92611	DD	019930520H
	DD	03H
	DD	FLAT:$T92615
	DD	2 DUP(00H)
	DD	2 DUP(00H)
; Function compile flags: /Ogty
; File c:\darkeden\designed_common\project\new - vs_ui\src\vs_ui_descriptor.cpp
xdata$x	ENDS
;	COMDAT ?RectCalculationFinished@DescriptorManager@@QAEXP6AXVRect@@PAXJJ@Z01JJH@Z
_TEXT	SEGMENT
_desc$ = -80						; size = 32
$T92476 = -48						; size = 36
__$EHRec$ = -12						; size = 12
$T92477 = 8						; size = 4
_fp_show$ = 8						; size = 4
_rect$ = 12						; size = 16
_void_ptr$ = 28						; size = 4
_left$ = 32						; size = 4
_right$ = 36						; size = 4
_z_order$ = 40						; size = 4
?RectCalculationFinished@DescriptorManager@@QAEXP6AXVRect@@PAXJJ@Z01JJH@Z PROC NEAR ; DescriptorManager::RectCalculationFinished, COMDAT
; _this$ = ecx

; 154  : {

  00000	6a ff		 push	 -1
  00002	68 00 00 00 00	 push	 __ehhandler$?RectCalculationFinished@DescriptorManager@@QAEXP6AXVRect@@PAXJJ@Z01JJH@Z
  00007	64 a1 00 00 00
	00		 mov	 eax, DWORD PTR fs:__except_list
  0000d	50		 push	 eax
  0000e	64 89 25 00 00
	00 00		 mov	 DWORD PTR fs:__except_list, esp
  00015	83 ec 44	 sub	 esp, 68			; 00000044H
  00018	53		 push	 ebx
  00019	55		 push	 ebp
  0001a	56		 push	 esi
  0001b	57		 push	 edi
  0001c	8b e9		 mov	 ebp, ecx

; 155  : 	DESC desc;

  0001e	8d 4c 24 14	 lea	 ecx, DWORD PTR _desc$[esp+100]
  00022	c7 44 24 5c 00
	00 00 00	 mov	 DWORD PTR __$EHRec$[esp+104], 0
  0002a	e8 00 00 00 00	 call	 ??0FP_SHOW_PARAM@DescriptorManager@@QAE@XZ ; DescriptorManager::FP_SHOW_PARAM::FP_SHOW_PARAM

; 156  : 	desc.m_fp_show = fp_show;
; 157  : 	desc.m_fp_show_param.void_ptr = void_ptr;

  0002f	8b 4c 24 78	 mov	 ecx, DWORD PTR _void_ptr$[esp+92]
  00033	8b 44 24 64	 mov	 eax, DWORD PTR _fp_show$[esp+92]

; 158  : 	desc.m_fp_show_param.rect = rect;

  00037	8b 54 24 68	 mov	 edx, DWORD PTR _rect$[esp+92]

; 159  : 	desc.m_fp_show_param.left = left;
; 160  : 	desc.m_fp_show_param.right = right;
; 161  : 	m_DescMap.insert(DescMap::value_type(z_order, desc));

  0003b	8b 9c 24 84 00
	00 00		 mov	 ebx, DWORD PTR _z_order$[esp+92]
  00042	89 4c 24 24	 mov	 DWORD PTR _desc$[esp+116], ecx
  00046	8b 4c 24 70	 mov	 ecx, DWORD PTR _rect$[esp+100]
  0004a	89 44 24 10	 mov	 DWORD PTR _desc$[esp+96], eax
  0004e	8b 44 24 6c	 mov	 eax, DWORD PTR _rect$[esp+96]
  00052	89 4c 24 1c	 mov	 DWORD PTR _desc$[esp+108], ecx
  00056	8b 8c 24 80 00
	00 00		 mov	 ecx, DWORD PTR _right$[esp+92]
  0005d	89 54 24 14	 mov	 DWORD PTR _desc$[esp+100], edx
  00061	8b 54 24 74	 mov	 edx, DWORD PTR _rect$[esp+104]
  00065	89 44 24 18	 mov	 DWORD PTR _desc$[esp+104], eax
  00069	8b 44 24 7c	 mov	 eax, DWORD PTR _left$[esp+92]
  0006d	89 4c 24 2c	 mov	 DWORD PTR _desc$[esp+124], ecx
  00071	b9 08 00 00 00	 mov	 ecx, 8
  00076	8d 74 24 10	 lea	 esi, DWORD PTR _desc$[esp+96]
  0007a	8d 7c 24 34	 lea	 edi, DWORD PTR $T92476[esp+100]
  0007e	89 54 24 20	 mov	 DWORD PTR _desc$[esp+112], edx
  00082	89 44 24 28	 mov	 DWORD PTR _desc$[esp+120], eax
  00086	89 5c 24 30	 mov	 DWORD PTR $T92476[esp+96], ebx
  0008a	f3 a5		 rep movsd
  0008c	8b 55 0c	 mov	 edx, DWORD PTR [ebp+12]
  0008f	8b 42 04	 mov	 eax, DWORD PTR [edx+4]
  00092	85 c0		 test	 eax, eax
  00094	8d 4d 0c	 lea	 ecx, DWORD PTR [ebp+12]
  00097	c6 44 24 5c 02	 mov	 BYTE PTR __$EHRec$[esp+104], 2
  0009c	74 15		 je	 SHORT $L92576
  0009e	8b ff		 npad	 2
$L92575:
  000a0	3b 58 10	 cmp	 ebx, DWORD PTR [eax+16]
  000a3	8b d0		 mov	 edx, eax
  000a5	7d 05		 jge	 SHORT $L92553
  000a7	8b 40 08	 mov	 eax, DWORD PTR [eax+8]
  000aa	eb 03		 jmp	 SHORT $L92554
$L92553:
  000ac	8b 40 0c	 mov	 eax, DWORD PTR [eax+12]
$L92554:
  000af	85 c0		 test	 eax, eax
  000b1	75 ed		 jne	 SHORT $L92575
$L92576:
  000b3	6a 00		 push	 0
  000b5	8d 74 24 34	 lea	 esi, DWORD PTR $T92476[esp+100]
  000b9	56		 push	 esi
  000ba	52		 push	 edx
  000bb	50		 push	 eax
  000bc	8d 54 24 74	 lea	 edx, DWORD PTR $T92477[esp+108]
  000c0	52		 push	 edx
  000c1	e8 00 00 00 00	 call	 ?_M_insert@?$_Rb_tree@HU?$pair@$$CBHUDESC@DescriptorManager@@@_STL@@U?$_Select1st@U?$pair@$$CBHUDESC@DescriptorManager@@@_STL@@@2@U?$less@H@2@V?$allocator@U?$pair@$$CBHUDESC@DescriptorManager@@@_STL@@@2@@_STL@@AAE?AU?$_Rb_tree_iterator@U?$pair@$$CBHUDESC@DescriptorManager@@@_STL@@U?$_Nonconst_traits@U?$pair@$$CBHUDESC@DescriptorManager@@@_STL@@@2@@2@PAU_Rb_tree_node_base@2@0ABU?$pair@$$CBHUDESC@DescriptorManager@@@2@0@Z ; _STL::_Rb_tree<int,_STL::pair<int const ,DescriptorManager::DESC>,_STL::_Select1st<_STL::pair<int const ,DescriptorManager::DESC> >,_STL::less<int>,_STL::allocator<_STL::pair<int const ,DescriptorManager::DESC> > >::_M_insert
  000c6	8d 4c 24 38	 lea	 ecx, DWORD PTR $T92476[esp+104]
  000ca	c6 44 24 5c 01	 mov	 BYTE PTR __$EHRec$[esp+104], 1
  000cf	e8 00 00 00 00	 call	 ??1Rect@@QAE@XZ		; Rect::~Rect

; 162  : }

  000d4	8d 4c 24 14	 lea	 ecx, DWORD PTR _desc$[esp+100]
  000d8	c6 44 24 5c 00	 mov	 BYTE PTR __$EHRec$[esp+104], 0
  000dd	e8 00 00 00 00	 call	 ??1Rect@@QAE@XZ		; Rect::~Rect
  000e2	8d 4c 24 68	 lea	 ecx, DWORD PTR _rect$[esp+92]
  000e6	c7 44 24 5c ff
	ff ff ff	 mov	 DWORD PTR __$EHRec$[esp+104], -1
  000ee	e8 00 00 00 00	 call	 ??1Rect@@QAE@XZ		; Rect::~Rect
  000f3	8b 4c 24 54	 mov	 ecx, DWORD PTR __$EHRec$[esp+96]
  000f7	5f		 pop	 edi
  000f8	5e		 pop	 esi
  000f9	5d		 pop	 ebp
  000fa	5b		 pop	 ebx
  000fb	64 89 0d 00 00
	00 00		 mov	 DWORD PTR fs:__except_list, ecx
  00102	83 c4 50	 add	 esp, 80			; 00000050H
  00105	c2 24 00	 ret	 36			; 00000024H
_TEXT	ENDS
;	COMDAT text$x
text$x	SEGMENT
$L92478:
  00000	8d 4d 08	 lea	 ecx, DWORD PTR _rect$[ebp-4]
  00003	e9 00 00 00 00	 jmp	 ??1Rect@@QAE@XZ		; Rect::~Rect
$L92479:
  00008	8d 4d b0	 lea	 ecx, DWORD PTR _desc$[ebp]
  0000b	e9 00 00 00 00	 jmp	 ??1DESC@DescriptorManager@@QAE@XZ
$L92480:
  00010	8d 4d d0	 lea	 ecx, DWORD PTR $T92476[ebp]
  00013	e9 00 00 00 00	 jmp	 ??1?$pair@$$CBHUDESC@DescriptorManager@@@_STL@@QAE@XZ
__ehhandler$?RectCalculationFinished@DescriptorManager@@QAEXP6AXVRect@@PAXJJ@Z01JJH@Z:
  00018	b8 00 00 00 00	 mov	 eax, OFFSET FLAT:$T92611
  0001d	e9 00 00 00 00	 jmp	 ___CxxFrameHandler
text$x	ENDS
?RectCalculationFinished@DescriptorManager@@QAEXP6AXVRect@@PAXJJ@Z01JJH@Z ENDP ; DescriptorManager::RectCalculationFinished
EXTRN	_atexit:NEAR
CRT$XCU	SEGMENT
_$S9	DD	FLAT:_$E7
; Function compile flags: /Ogty
CRT$XCU	ENDS
;	COMDAT _$E7
text$yc	SEGMENT
_$E7	PROC NEAR					; COMDAT

; 6    : DescriptorManager	g_descriptor_manager;

  00000	b9 00 00 00 00	 mov	 ecx, OFFSET FLAT:?g_descriptor_manager@@3VDescriptorManager@@A
  00005	e8 00 00 00 00	 call	 ??0DescriptorManager@@QAE@XZ ; DescriptorManager::DescriptorManager
  0000a	68 00 00 00 00	 push	 OFFSET FLAT:_$E8
  0000f	e8 00 00 00 00	 call	 _atexit
  00014	59		 pop	 ecx
  00015	c3		 ret	 0
_$E7	ENDP
; Function compile flags: /Ogty
text$yc	ENDS
;	COMDAT _$E8
text$yd	SEGMENT
_$E8	PROC NEAR					; COMDAT
  00000	b9 00 00 00 00	 mov	 ecx, OFFSET FLAT:?g_descriptor_manager@@3VDescriptorManager@@A
  00005	e9 00 00 00 00	 jmp	 ??1DescriptorManager@@UAE@XZ ; DescriptorManager::~DescriptorManager
_$E8	ENDP
text$yd	ENDS
PUBLIC	?g_descriptor_manager@@3VDescriptorManager@@A	; g_descriptor_manager
_BSS	SEGMENT
?g_descriptor_manager@@3VDescriptorManager@@A DB 018H DUP (?) ; g_descriptor_manager
_BSS	ENDS
END
