; Listing generated by Microsoft (R) Optimizing Compiler Version 13.10.3077 

	TITLE	\darkeden\Designed_Common\Project\New - vs_ui\src\VS_UI_ui_result_receiver.cpp
	.386P
include listing.inc
if @Version gt 510
.model FLAT
else
_TEXT	SEGMENT PARA USE32 PUBLIC 'CODE'
_TEXT	ENDS
_DATA	SEGMENT DWORD USE32 PUBLIC 'DATA'
_DATA	ENDS
CONST	SEGMENT DWORD USE32 PUBLIC 'CONST'
CONST	ENDS
_BSS	SEGMENT DWORD USE32 PUBLIC 'BSS'
_BSS	ENDS
$$SYMBOLS	SEGMENT BYTE USE32 'DEBSYM'
$$SYMBOLS	ENDS
$$TYPES	SEGMENT BYTE USE32 'DEBTYP'
$$TYPES	ENDS
_TLS	SEGMENT DWORD USE32 PUBLIC 'TLS'
_TLS	ENDS
;	COMDAT ??_C@_0EM@HBHAAEMJ@?4?4?2?4?4?2?4?4?2?4?4?2Designed_Common?2Proj@
CONST	SEGMENT DWORD USE32 PUBLIC 'CONST'
CONST	ENDS
rdata$r	SEGMENT DWORD USE32 PUBLIC 'CONST'
rdata$r	ENDS
text$yc	SEGMENT PARA USE32 PUBLIC 'CODE'
text$yc	ENDS
CRT$XCA	SEGMENT DWORD USE32 PUBLIC 'DATA'
CRT$XCA	ENDS
CRT$XCU	SEGMENT DWORD USE32 PUBLIC 'DATA'
CRT$XCU	ENDS
CRT$XCL	SEGMENT DWORD USE32 PUBLIC 'DATA'
CRT$XCL	ENDS
CRT$XCC	SEGMENT DWORD USE32 PUBLIC 'DATA'
CRT$XCC	ENDS
CRT$XCZ	SEGMENT DWORD USE32 PUBLIC 'DATA'
CRT$XCZ	ENDS
text$yd	SEGMENT PARA USE32 PUBLIC 'CODE'
text$yd	ENDS
;	COMDAT ??0C_VS_UI_RESULT_RECEIVER@@QAE@XZ
_TEXT	SEGMENT PARA USE32 PUBLIC 'CODE'
_TEXT	ENDS
;	COMDAT ??1C_VS_UI_RESULT_RECEIVER@@QAE@XZ
_TEXT	SEGMENT PARA USE32 PUBLIC 'CODE'
_TEXT	ENDS
;	COMDAT ?SetResultReceiver@C_VS_UI_RESULT_RECEIVER@@QAEXP6AXKHHPAX@Z@Z
_TEXT	SEGMENT PARA USE32 PUBLIC 'CODE'
_TEXT	ENDS
;	COMDAT ?_SendMessage@C_VS_UI_RESULT_RECEIVER@@QAEXKHHPAX@Z
_TEXT	SEGMENT PARA USE32 PUBLIC 'CODE'
_TEXT	ENDS
;	COMDAT ?_DispatchMessage@C_VS_UI_RESULT_RECEIVER@@QAEXXZ
_TEXT	SEGMENT PARA USE32 PUBLIC 'CODE'
_TEXT	ENDS
;	COMDAT ??0C_MESSAGE_QUEUE@@QAE@XZ
_TEXT	SEGMENT PARA USE32 PUBLIC 'CODE'
_TEXT	ENDS
;	COMDAT ??_GC_MESSAGE_QUEUE@@UAEPAXI@Z
_TEXT	SEGMENT PARA USE32 PUBLIC 'CODE'
_TEXT	ENDS
;	COMDAT ??1C_MESSAGE_QUEUE@@UAE@XZ
_TEXT	SEGMENT PARA USE32 PUBLIC 'CODE'
_TEXT	ENDS
;	COMDAT ?eq@?$__char_traits_base@DH@_STL@@SA_NABD0@Z
_TEXT	SEGMENT PARA USE32 PUBLIC 'CODE'
_TEXT	ENDS
;	COMDAT ?not_eof@?$__char_traits_base@DH@_STL@@SAHABH@Z
_TEXT	SEGMENT PARA USE32 PUBLIC 'CODE'
_TEXT	ENDS
;	COMDAT ?eq_int_type@?$__char_traits_base@DH@_STL@@SA_NABH0@Z
_TEXT	SEGMENT PARA USE32 PUBLIC 'CODE'
_TEXT	ENDS
;	COMDAT ??0?$fpos@H@_STL@@QAE@J@Z
_TEXT	SEGMENT PARA USE32 PUBLIC 'CODE'
_TEXT	ENDS
;	COMDAT ??B?$fpos@H@_STL@@QBEJXZ
_TEXT	SEGMENT PARA USE32 PUBLIC 'CODE'
_TEXT	ENDS
;	COMDAT ?state@?$fpos@H@_STL@@QBEHXZ
_TEXT	SEGMENT PARA USE32 PUBLIC 'CODE'
_TEXT	ENDS
;	COMDAT ?is_open@?$basic_filebuf@DV?$char_traits@D@_STL@@@_STL@@QBE_NXZ
_TEXT	SEGMENT PARA USE32 PUBLIC 'CODE'
_TEXT	ENDS
;	COMDAT ?_M_seek_return@?$basic_filebuf@DV?$char_traits@D@_STL@@@_STL@@AAE?AV?$fpos@H@2@JH@Z
_TEXT	SEGMENT PARA USE32 PUBLIC 'CODE'
_TEXT	ENDS
;	COMDAT ??0?$_Filebuf_Tmp_Buf@D@_STL@@QAE@H@Z
_TEXT	SEGMENT PARA USE32 PUBLIC 'CODE'
_TEXT	ENDS
;	COMDAT ??1?$_Filebuf_Tmp_Buf@D@_STL@@QAE@XZ
_TEXT	SEGMENT PARA USE32 PUBLIC 'CODE'
_TEXT	ENDS
;	COMDAT ?Size@?$SimpleDataList@PAUMESSAGE@@@@QBEHXZ
_TEXT	SEGMENT PARA USE32 PUBLIC 'CODE'
_TEXT	ENDS
;	COMDAT ?state@?$fpos@H@_STL@@QAEXH@Z
_TEXT	SEGMENT PARA USE32 PUBLIC 'CODE'
_TEXT	ENDS
;	COMDAT ?close@?$basic_filebuf@DV?$char_traits@D@_STL@@@_STL@@QAEPAV12@XZ
_TEXT	SEGMENT PARA USE32 PUBLIC 'CODE'
_TEXT	ENDS
;	COMDAT ?_M_exit_input_mode@?$basic_filebuf@DV?$char_traits@D@_STL@@@_STL@@AAEXXZ
_TEXT	SEGMENT PARA USE32 PUBLIC 'CODE'
_TEXT	ENDS
;	COMDAT ?_M_switch_to_output_mode@?$basic_filebuf@DV?$char_traits@D@_STL@@@_STL@@AAE_NXZ
_TEXT	SEGMENT PARA USE32 PUBLIC 'CODE'
_TEXT	ENDS
;	COMDAT ?_M_output_error@?$basic_filebuf@DV?$char_traits@D@_STL@@@_STL@@AAEHXZ
_TEXT	SEGMENT PARA USE32 PUBLIC 'CODE'
_TEXT	ENDS
;	COMDAT ?_M_allocate_buffers@?$basic_filebuf@DV?$char_traits@D@_STL@@@_STL@@AAE_NPADH@Z
_TEXT	SEGMENT PARA USE32 PUBLIC 'CODE'
_TEXT	ENDS
;	COMDAT ?_M_deallocate_buffers@?$basic_filebuf@DV?$char_traits@D@_STL@@@_STL@@AAEXXZ
_TEXT	SEGMENT PARA USE32 PUBLIC 'CODE'
_TEXT	ENDS
;	COMDAT ?_M_seek_init@?$basic_filebuf@DV?$char_traits@D@_STL@@@_STL@@AAE_N_N@Z
_TEXT	SEGMENT PARA USE32 PUBLIC 'CODE'
_TEXT	ENDS
;	COMDAT ?_M_setup_codecvt@?$basic_filebuf@DV?$char_traits@D@_STL@@@_STL@@AAEXABVlocale@2@@Z
_TEXT	SEGMENT PARA USE32 PUBLIC 'CODE'
_TEXT	ENDS
;	COMDAT ??$equal@PADPADU?$_Eq_traits@V?$char_traits@D@_STL@@@_STL@@@_STL@@YA_NPAD00U?$_Eq_traits@V?$char_traits@D@_STL@@@0@@Z
_TEXT	SEGMENT PARA USE32 PUBLIC 'CODE'
_TEXT	ENDS
;	COMDAT ??0?$SimpleDataList@PAUMESSAGE@@@@QAE@XZ
_TEXT	SEGMENT PARA USE32 PUBLIC 'CODE'
_TEXT	ENDS
;	COMDAT ??1?$SimpleDataList@PAUMESSAGE@@@@UAE@XZ
_TEXT	SEGMENT PARA USE32 PUBLIC 'CODE'
_TEXT	ENDS
;	COMDAT ?Add@?$SimpleDataList@PAUMESSAGE@@@@QAE_NPAUMESSAGE@@@Z
_TEXT	SEGMENT PARA USE32 PUBLIC 'CODE'
_TEXT	ENDS
;	COMDAT ?Delete@?$SimpleDataList@PAUMESSAGE@@@@QAE_NPAUMESSAGE@@@Z
_TEXT	SEGMENT PARA USE32 PUBLIC 'CODE'
_TEXT	ENDS
;	COMDAT ?Data@?$SimpleDataList@PAUMESSAGE@@@@QBE_NHAAPAUMESSAGE@@@Z
_TEXT	SEGMENT PARA USE32 PUBLIC 'CODE'
_TEXT	ENDS
;	COMDAT ??_G?$SimpleDataList@PAUMESSAGE@@@@UAEPAXI@Z
_TEXT	SEGMENT PARA USE32 PUBLIC 'CODE'
_TEXT	ENDS
;	COMDAT ?_M_exit_putback_mode@?$basic_filebuf@DV?$char_traits@D@_STL@@@_STL@@AAEXXZ
_TEXT	SEGMENT PARA USE32 PUBLIC 'CODE'
_TEXT	ENDS
;	COMDAT ??R?$_Eq_traits@V?$char_traits@D@_STL@@@_STL@@QBE_NABD0@Z
_TEXT	SEGMENT PARA USE32 PUBLIC 'CODE'
_TEXT	ENDS
;	COMDAT ?_M_unshift@?$basic_filebuf@DV?$char_traits@D@_STL@@@_STL@@AAE_NXZ
_TEXT	SEGMENT PARA USE32 PUBLIC 'CODE'
_TEXT	ENDS
;	COMDAT ?_M_allocate_buffers@?$basic_filebuf@DV?$char_traits@D@_STL@@@_STL@@AAE_NXZ
_TEXT	SEGMENT PARA USE32 PUBLIC 'CODE'
_TEXT	ENDS
;	COMDAT ??$max@H@_STL@@YAABHABH0@Z
_TEXT	SEGMENT PARA USE32 PUBLIC 'CODE'
_TEXT	ENDS
;	COMDAT ??$use_facet@V?$codecvt@DDH@_STL@@@_STL@@YAABV?$codecvt@DDH@0@ABVlocale@0@@Z
_TEXT	SEGMENT PARA USE32 PUBLIC 'CODE'
_TEXT	ENDS
;	COMDAT ?Find@?$SimpleDataList@PAUMESSAGE@@@@QBE_NPAUMESSAGE@@@Z
_TEXT	SEGMENT PARA USE32 PUBLIC 'CODE'
_TEXT	ENDS
;	COMDAT ??_R3?$SimpleDataList@PAUMESSAGE@@@@8
rdata$r	SEGMENT DWORD USE32 PUBLIC 'CONST'
rdata$r	ENDS
;	COMDAT ??_R3C_MESSAGE_QUEUE@@8
rdata$r	SEGMENT DWORD USE32 PUBLIC 'CONST'
rdata$r	ENDS
;	COMDAT ??_R2?$SimpleDataList@PAUMESSAGE@@@@8
rdata$r	SEGMENT DWORD USE32 PUBLIC 'CONST'
rdata$r	ENDS
;	COMDAT ??_R2C_MESSAGE_QUEUE@@8
rdata$r	SEGMENT DWORD USE32 PUBLIC 'CONST'
rdata$r	ENDS
;	COMDAT ??_R1A@?0A@A@?$SimpleDataList@PAUMESSAGE@@@@8
rdata$r	SEGMENT DWORD USE32 PUBLIC 'CONST'
rdata$r	ENDS
;	COMDAT ??_R1A@?0A@A@C_MESSAGE_QUEUE@@8
rdata$r	SEGMENT DWORD USE32 PUBLIC 'CONST'
rdata$r	ENDS
;	COMDAT ??_R0?AV?$SimpleDataList@PAUMESSAGE@@@@@8
_DATA	SEGMENT DWORD USE32 PUBLIC 'DATA'
_DATA	ENDS
;	COMDAT ??_R0?AVC_MESSAGE_QUEUE@@@8
_DATA	SEGMENT DWORD USE32 PUBLIC 'DATA'
_DATA	ENDS
;	COMDAT ??_R4?$SimpleDataList@PAUMESSAGE@@@@6B@
rdata$r	SEGMENT DWORD USE32 PUBLIC 'CONST'
rdata$r	ENDS
;	COMDAT ??_R4C_MESSAGE_QUEUE@@6B@
rdata$r	SEGMENT DWORD USE32 PUBLIC 'CONST'
rdata$r	ENDS
;	COMDAT ?__page_size@_Filebuf_base@_STL@@SAIXZ
_TEXT	SEGMENT PARA USE32 PUBLIC 'CODE'
_TEXT	ENDS
;	COMDAT ?_M_write@?$basic_filebuf@DV?$char_traits@D@_STL@@@_STL@@QAE_NPADH@Z
_TEXT	SEGMENT PARA USE32 PUBLIC 'CODE'
_TEXT	ENDS
;	COMDAT ?unshift@?$codecvt@DDH@_STL@@QBE?AW4result@codecvt_base@2@AAHPAD1AAPAD@Z
_TEXT	SEGMENT PARA USE32 PUBLIC 'CODE'
_TEXT	ENDS
;	COMDAT ??_7?$SimpleDataList@PAUMESSAGE@@@@6B@
CONST	SEGMENT DWORD USE32 PUBLIC 'CONST'
CONST	ENDS
;	COMDAT ?always_noconv@?$codecvt@DDH@_STL@@QBE_NXZ
_TEXT	SEGMENT PARA USE32 PUBLIC 'CODE'
_TEXT	ENDS
;	COMDAT ?encoding@?$codecvt@DDH@_STL@@QBEHXZ
_TEXT	SEGMENT PARA USE32 PUBLIC 'CODE'
_TEXT	ENDS
;	COMDAT ?max_length@?$codecvt@DDH@_STL@@QBEHXZ
_TEXT	SEGMENT PARA USE32 PUBLIC 'CODE'
_TEXT	ENDS
;	COMDAT ?__o_mode@_Filebuf_base@_STL@@QBEHXZ
_TEXT	SEGMENT PARA USE32 PUBLIC 'CODE'
_TEXT	ENDS
;	COMDAT ?setp@?$basic_streambuf@DV?$char_traits@D@_STL@@@_STL@@IAEXPAD0@Z
_TEXT	SEGMENT PARA USE32 PUBLIC 'CODE'
_TEXT	ENDS
;	COMDAT ?_FILE_O_set@_STL@@YAXPAU_iobuf@@PAD11@Z
_TEXT	SEGMENT PARA USE32 PUBLIC 'CODE'
_TEXT	ENDS
;	COMDAT ?_FILE_I_set@_STL@@YAXPAU_iobuf@@PAD11@Z
_TEXT	SEGMENT PARA USE32 PUBLIC 'CODE'
_TEXT	ENDS
;	COMDAT ?setg@?$basic_streambuf@DV?$char_traits@D@_STL@@@_STL@@IAEXPAD00@Z
_TEXT	SEGMENT PARA USE32 PUBLIC 'CODE'
_TEXT	ENDS
;	COMDAT ?__is_open@_Filebuf_base@_STL@@QBE_NXZ
_TEXT	SEGMENT PARA USE32 PUBLIC 'CODE'
_TEXT	ENDS
;	COMDAT ?eof@?$__char_traits_base@DH@_STL@@SAHXZ
_TEXT	SEGMENT PARA USE32 PUBLIC 'CODE'
_TEXT	ENDS
;	COMDAT ??_7C_MESSAGE_QUEUE@@6B@
CONST	SEGMENT DWORD USE32 PUBLIC 'CONST'
CONST	ENDS
sxdata	SEGMENT DWORD USE32 'SXDATA'
sxdata	ENDS
FLAT	GROUP _DATA, CONST, _BSS
	ASSUME	CS: FLAT, DS: FLAT, SS: FLAT
endif

INCLUDELIB LIBCMT
INCLUDELIB OLDNAMES

PUBLIC	?SetResultReceiver@C_VS_UI_RESULT_RECEIVER@@QAEXP6AXKHHPAX@Z@Z ; C_VS_UI_RESULT_RECEIVER::SetResultReceiver
; Function compile flags: /Ogty
; File c:\darkeden\designed_common\project\new - vs_ui\src\vs_ui_ui_result_receiver.cpp
;	COMDAT ?SetResultReceiver@C_VS_UI_RESULT_RECEIVER@@QAEXP6AXKHHPAX@Z@Z
_TEXT	SEGMENT
_fp$ = 8						; size = 4
?SetResultReceiver@C_VS_UI_RESULT_RECEIVER@@QAEXP6AXKHHPAX@Z@Z PROC NEAR ; C_VS_UI_RESULT_RECEIVER::SetResultReceiver, COMDAT
; _this$ = ecx

; 31   : 	assert(fp);
; 32   : 	
; 33   : 	m_fp_result_receiver = fp;

  00000	8b 44 24 04	 mov	 eax, DWORD PTR _fp$[esp-4]
  00004	89 41 0c	 mov	 DWORD PTR [ecx+12], eax

; 34   : }

  00007	c2 04 00	 ret	 4
?SetResultReceiver@C_VS_UI_RESULT_RECEIVER@@QAEXP6AXKHHPAX@Z@Z ENDP ; C_VS_UI_RESULT_RECEIVER::SetResultReceiver
_TEXT	ENDS
PUBLIC	?Size@?$SimpleDataList@PAUMESSAGE@@@@QBEHXZ	; SimpleDataList<MESSAGE *>::Size
; Function compile flags: /Ogty
; File c:\darkeden\designed_common\project\new - vs_ui\src\widget\simpledatalist.h
;	COMDAT ?Size@?$SimpleDataList@PAUMESSAGE@@@@QBEHXZ
_TEXT	SEGMENT
?Size@?$SimpleDataList@PAUMESSAGE@@@@QBEHXZ PROC NEAR	; SimpleDataList<MESSAGE *>::Size, COMDAT
; _this$ = ecx

; 37   : 	int	Size() const { return m_size; }

  00000	8b 41 08	 mov	 eax, DWORD PTR [ecx+8]
  00003	c3		 ret	 0
?Size@?$SimpleDataList@PAUMESSAGE@@@@QBEHXZ ENDP	; SimpleDataList<MESSAGE *>::Size
_TEXT	ENDS
PUBLIC	??0?$SimpleDataList@PAUMESSAGE@@@@QAE@XZ	; SimpleDataList<MESSAGE *>::SimpleDataList<MESSAGE *>
PUBLIC	??_7?$SimpleDataList@PAUMESSAGE@@@@6B@		; SimpleDataList<MESSAGE *>::`vftable'
PUBLIC	??_G?$SimpleDataList@PAUMESSAGE@@@@UAEPAXI@Z	; SimpleDataList<MESSAGE *>::`scalar deleting destructor'
PUBLIC	??_R1A@?0A@A@?$SimpleDataList@PAUMESSAGE@@@@8	; SimpleDataList<MESSAGE *>::`RTTI Base Class Descriptor at (0,-1,0,0)'
PUBLIC	??_R0?AV?$SimpleDataList@PAUMESSAGE@@@@@8	; SimpleDataList<MESSAGE *> `RTTI Type Descriptor'
PUBLIC	??_R4?$SimpleDataList@PAUMESSAGE@@@@6B@		; SimpleDataList<MESSAGE *>::`RTTI Complete Object Locator'
PUBLIC	??_R3?$SimpleDataList@PAUMESSAGE@@@@8		; SimpleDataList<MESSAGE *>::`RTTI Class Hierarchy Descriptor'
PUBLIC	??_R2?$SimpleDataList@PAUMESSAGE@@@@8		; SimpleDataList<MESSAGE *>::`RTTI Base Class Array'
EXTRN	??_7type_info@@6B@:QWORD			; type_info::`vftable'
EXTRN	??_E?$SimpleDataList@PAUMESSAGE@@@@UAEPAXI@Z:NEAR ; SimpleDataList<MESSAGE *>::`vector deleting destructor'
;	COMDAT ??_7?$SimpleDataList@PAUMESSAGE@@@@6B@
CONST	SEGMENT
??_7?$SimpleDataList@PAUMESSAGE@@@@6B@ DD FLAT:??_R4?$SimpleDataList@PAUMESSAGE@@@@6B@ ; SimpleDataList<MESSAGE *>::`vftable'
	DD	FLAT:??_E?$SimpleDataList@PAUMESSAGE@@@@UAEPAXI@Z
CONST	ENDS
;	COMDAT ??_R4?$SimpleDataList@PAUMESSAGE@@@@6B@
rdata$r	SEGMENT
??_R4?$SimpleDataList@PAUMESSAGE@@@@6B@ DD 00H		; SimpleDataList<MESSAGE *>::`RTTI Complete Object Locator'
	DD	00H
	DD	00H
	DD	FLAT:??_R0?AV?$SimpleDataList@PAUMESSAGE@@@@@8
	DD	FLAT:??_R3?$SimpleDataList@PAUMESSAGE@@@@8
rdata$r	ENDS
;	COMDAT ??_R0?AV?$SimpleDataList@PAUMESSAGE@@@@@8
_DATA	SEGMENT
??_R0?AV?$SimpleDataList@PAUMESSAGE@@@@@8 DD FLAT:??_7type_info@@6B@ ; SimpleDataList<MESSAGE *> `RTTI Type Descriptor'
	DD	00H
	DB	'.?AV?$SimpleDataList@PAUMESSAGE@@@@', 00H
_DATA	ENDS
;	COMDAT ??_R3?$SimpleDataList@PAUMESSAGE@@@@8
rdata$r	SEGMENT
??_R3?$SimpleDataList@PAUMESSAGE@@@@8 DD 00H		; SimpleDataList<MESSAGE *>::`RTTI Class Hierarchy Descriptor'
	DD	00H
	DD	01H
	DD	FLAT:??_R2?$SimpleDataList@PAUMESSAGE@@@@8
rdata$r	ENDS
;	COMDAT ??_R2?$SimpleDataList@PAUMESSAGE@@@@8
rdata$r	SEGMENT
??_R2?$SimpleDataList@PAUMESSAGE@@@@8 DD FLAT:??_R1A@?0A@A@?$SimpleDataList@PAUMESSAGE@@@@8 ; SimpleDataList<MESSAGE *>::`RTTI Base Class Array'
rdata$r	ENDS
;	COMDAT ??_R1A@?0A@A@?$SimpleDataList@PAUMESSAGE@@@@8
rdata$r	SEGMENT
??_R1A@?0A@A@?$SimpleDataList@PAUMESSAGE@@@@8 DD FLAT:??_R0?AV?$SimpleDataList@PAUMESSAGE@@@@@8 ; SimpleDataList<MESSAGE *>::`RTTI Base Class Descriptor at (0,-1,0,0)'
	DD	00H
	DD	00H
	DD	0ffffffffH
	DD	00H
	DD	00H
; Function compile flags: /Ogty
rdata$r	ENDS
;	COMDAT ??0?$SimpleDataList@PAUMESSAGE@@@@QAE@XZ
_TEXT	SEGMENT
??0?$SimpleDataList@PAUMESSAGE@@@@QAE@XZ PROC NEAR	; SimpleDataList<MESSAGE *>::SimpleDataList<MESSAGE *>, COMDAT
; _this$ = ecx

; 50   : {

  00000	8b c1		 mov	 eax, ecx

; 51   : 	m_p_buf	= NULL;

  00002	33 c9		 xor	 ecx, ecx
  00004	c7 00 00 00 00
	00		 mov	 DWORD PTR [eax], OFFSET FLAT:??_7?$SimpleDataList@PAUMESSAGE@@@@6B@
  0000a	89 48 04	 mov	 DWORD PTR [eax+4], ecx

; 52   : 	m_size	= 0;

  0000d	89 48 08	 mov	 DWORD PTR [eax+8], ecx

; 53   : }

  00010	c3		 ret	 0
??0?$SimpleDataList@PAUMESSAGE@@@@QAE@XZ ENDP		; SimpleDataList<MESSAGE *>::SimpleDataList<MESSAGE *>
_TEXT	ENDS
PUBLIC	??1?$SimpleDataList@PAUMESSAGE@@@@UAE@XZ	; SimpleDataList<MESSAGE *>::~SimpleDataList<MESSAGE *>
EXTRN	??_V@YAXPAX@Z:NEAR				; operator delete[]
; Function compile flags: /Ogty
;	COMDAT ??1?$SimpleDataList@PAUMESSAGE@@@@UAE@XZ
_TEXT	SEGMENT
??1?$SimpleDataList@PAUMESSAGE@@@@UAE@XZ PROC NEAR	; SimpleDataList<MESSAGE *>::~SimpleDataList<MESSAGE *>, COMDAT
; _this$ = ecx

; 62   : {

  00000	56		 push	 esi
  00001	8b f1		 mov	 esi, ecx

; 63   : 	DeleteNewArray(m_p_buf);

  00003	8b 46 04	 mov	 eax, DWORD PTR [esi+4]
  00006	85 c0		 test	 eax, eax
  00008	c7 06 00 00 00
	00		 mov	 DWORD PTR [esi], OFFSET FLAT:??_7?$SimpleDataList@PAUMESSAGE@@@@6B@
  0000e	74 10		 je	 SHORT $L74597
  00010	50		 push	 eax
  00011	e8 00 00 00 00	 call	 ??_V@YAXPAX@Z		; operator delete[]
  00016	83 c4 04	 add	 esp, 4
  00019	c7 46 04 00 00
	00 00		 mov	 DWORD PTR [esi+4], 0
$L74597:
  00020	5e		 pop	 esi

; 64   : }

  00021	c3		 ret	 0
??1?$SimpleDataList@PAUMESSAGE@@@@UAE@XZ ENDP		; SimpleDataList<MESSAGE *>::~SimpleDataList<MESSAGE *>
_TEXT	ENDS
PUBLIC	?Delete@?$SimpleDataList@PAUMESSAGE@@@@QAE_NPAUMESSAGE@@@Z ; SimpleDataList<MESSAGE *>::Delete
PUBLIC	??_C@_0EM@HBHAAEMJ@?4?4?2?4?4?2?4?4?2?4?4?2Designed_Common?2Proj@ ; `string'
EXTRN	??_U@YAPAXI@Z:NEAR				; operator new[]
EXTRN	?g_BasicException@@YAXW4EXCEPTION_CODE@@PAD1K@Z:NEAR ; g_BasicException
;	COMDAT ??_C@_0EM@HBHAAEMJ@?4?4?2?4?4?2?4?4?2?4?4?2Designed_Common?2Proj@
CONST	SEGMENT
??_C@_0EM@HBHAAEMJ@?4?4?2?4?4?2?4?4?2?4?4?2Designed_Common?2Proj@ DB '..\'
	DB	'..\..\..\Designed_Common\Project\NEW - VS_UI\src\widget\Simpl'
	DB	'eDataList.h', 00H				; `string'
; Function compile flags: /Ogty
CONST	ENDS
;	COMDAT ?Delete@?$SimpleDataList@PAUMESSAGE@@@@QAE_NPAUMESSAGE@@@Z
_TEXT	SEGMENT
_data$ = 8						; size = 4
?Delete@?$SimpleDataList@PAUMESSAGE@@@@QAE_NPAUMESSAGE@@@Z PROC NEAR ; SimpleDataList<MESSAGE *>::Delete, COMDAT
; _this$ = ecx

; 145  : {

  00000	53		 push	 ebx
  00001	56		 push	 esi
  00002	8b f1		 mov	 esi, ecx

; 146  : 	for (int i=0; i < m_size; i++) // find

  00004	8b 4e 08	 mov	 ecx, DWORD PTR [esi+8]
  00007	57		 push	 edi
  00008	33 ff		 xor	 edi, edi
  0000a	85 c9		 test	 ecx, ecx
  0000c	7e 16		 jle	 SHORT $L74634
  0000e	8b 46 04	 mov	 eax, DWORD PTR [esi+4]
  00011	8b 54 24 10	 mov	 edx, DWORD PTR _data$[esp+8]
$L74632:

; 147  : 	{
; 148  : 		if (m_p_buf[i] == data)

  00015	39 10		 cmp	 DWORD PTR [eax], edx
  00017	74 13		 je	 SHORT $L74807
  00019	8b 5e 08	 mov	 ebx, DWORD PTR [esi+8]
  0001c	47		 inc	 edi
  0001d	83 c0 04	 add	 eax, 4
  00020	3b fb		 cmp	 edi, ebx
  00022	7c f1		 jl	 SHORT $L74632
$L74634:
  00024	5f		 pop	 edi
  00025	5e		 pop	 esi

; 171  : 		}
; 172  : 	}
; 173  : 
; 174  : 	return false;

  00026	32 c0		 xor	 al, al
  00028	5b		 pop	 ebx

; 175  : }

  00029	c2 04 00	 ret	 4
$L74807:

; 149  : 		{
; 150  : 			Ta *		p_temp = NULL;
; 151  : 			int		new_size = m_size-1;

  0002c	8d 41 ff	 lea	 eax, DWORD PTR [ecx-1]
  0002f	33 db		 xor	 ebx, ebx

; 152  : 
; 153  : 			if (new_size > 0)

  00031	85 c0		 test	 eax, eax
  00033	7e 49		 jle	 SHORT $L74646

; 154  : 			{
; 155  : 				p_temp = new Ta[new_size];

  00035	c1 e0 02	 shl	 eax, 2
  00038	50		 push	 eax
  00039	e8 00 00 00 00	 call	 ??_U@YAPAXI@Z		; operator new[]
  0003e	8b d8		 mov	 ebx, eax
  00040	83 c4 04	 add	 esp, 4

; 156  : 				CheckMemAlloc(p_temp);

  00043	85 db		 test	 ebx, ebx
  00045	75 15		 jne	 SHORT $L74641
  00047	68 9c 00 00 00	 push	 156			; 0000009cH
  0004c	68 00 00 00 00	 push	 OFFSET FLAT:??_C@_0EM@HBHAAEMJ@?4?4?2?4?4?2?4?4?2?4?4?2Designed_Common?2Proj@
  00051	50		 push	 eax
  00052	6a 01		 push	 1
  00054	e8 00 00 00 00	 call	 ?g_BasicException@@YAXW4EXCEPTION_CODE@@PAD1K@Z ; g_BasicException
  00059	83 c4 10	 add	 esp, 16			; 00000010H
$L74641:

; 157  : 
; 158  : 				for (int m=0, t=0; m < m_size; m++)

  0005c	8b 4e 08	 mov	 ecx, DWORD PTR [esi+8]
  0005f	33 c0		 xor	 eax, eax
  00061	85 c9		 test	 ecx, ecx
  00063	7e 19		 jle	 SHORT $L74646
  00065	8b cb		 mov	 ecx, ebx
$L74644:

; 159  : 					if (m != i)

  00067	3b c7		 cmp	 eax, edi
  00069	74 0b		 je	 SHORT $L74645

; 160  : 					{
; 161  : 						p_temp[t] = m_p_buf[m];

  0006b	8b 56 04	 mov	 edx, DWORD PTR [esi+4]
  0006e	8b 14 82	 mov	 edx, DWORD PTR [edx+eax*4]
  00071	89 11		 mov	 DWORD PTR [ecx], edx

; 162  : 						t++;

  00073	83 c1 04	 add	 ecx, 4
$L74645:
  00076	8b 56 08	 mov	 edx, DWORD PTR [esi+8]
  00079	40		 inc	 eax
  0007a	3b c2		 cmp	 eax, edx
  0007c	7c e9		 jl	 SHORT $L74644
$L74646:

; 163  : 					}
; 164  : 			}
; 165  : 
; 166  : 			DeleteNewArray(m_p_buf);

  0007e	8b 46 04	 mov	 eax, DWORD PTR [esi+4]
  00081	85 c0		 test	 eax, eax
  00083	74 10		 je	 SHORT $L74648
  00085	50		 push	 eax
  00086	e8 00 00 00 00	 call	 ??_V@YAXPAX@Z		; operator delete[]
  0008b	83 c4 04	 add	 esp, 4
  0008e	c7 46 04 00 00
	00 00		 mov	 DWORD PTR [esi+4], 0
$L74648:

; 167  : 			m_size--;

  00095	8b 46 08	 mov	 eax, DWORD PTR [esi+8]
  00098	48		 dec	 eax
  00099	5f		 pop	 edi
  0009a	89 46 08	 mov	 DWORD PTR [esi+8], eax

; 168  : 			m_p_buf = p_temp;

  0009d	89 5e 04	 mov	 DWORD PTR [esi+4], ebx
  000a0	5e		 pop	 esi

; 169  : 
; 170  : 			return true;

  000a1	b0 01		 mov	 al, 1
  000a3	5b		 pop	 ebx

; 175  : }

  000a4	c2 04 00	 ret	 4
?Delete@?$SimpleDataList@PAUMESSAGE@@@@QAE_NPAUMESSAGE@@@Z ENDP ; SimpleDataList<MESSAGE *>::Delete
_TEXT	ENDS
PUBLIC	?Data@?$SimpleDataList@PAUMESSAGE@@@@QBE_NHAAPAUMESSAGE@@@Z ; SimpleDataList<MESSAGE *>::Data
; Function compile flags: /Ogty
;	COMDAT ?Data@?$SimpleDataList@PAUMESSAGE@@@@QBE_NHAAPAUMESSAGE@@@Z
_TEXT	SEGMENT
_index$ = 8						; size = 4
_data$ = 12						; size = 4
?Data@?$SimpleDataList@PAUMESSAGE@@@@QBE_NHAAPAUMESSAGE@@@Z PROC NEAR ; SimpleDataList<MESSAGE *>::Data, COMDAT
; _this$ = ecx

; 89   : 	if (index < 0 || index >= m_size)

  00000	8b 44 24 04	 mov	 eax, DWORD PTR _index$[esp-4]
  00004	85 c0		 test	 eax, eax
  00006	7c 16		 jl	 SHORT $L74657
  00008	3b 41 08	 cmp	 eax, DWORD PTR [ecx+8]
  0000b	7d 11		 jge	 SHORT $L74657

; 91   : 
; 92   : 	data = m_p_buf[index];

  0000d	8b 49 04	 mov	 ecx, DWORD PTR [ecx+4]
  00010	8b 14 81	 mov	 edx, DWORD PTR [ecx+eax*4]
  00013	8b 44 24 08	 mov	 eax, DWORD PTR _data$[esp-4]
  00017	89 10		 mov	 DWORD PTR [eax], edx

; 93   : 
; 94   : 	return true;

  00019	b0 01		 mov	 al, 1

; 95   : }

  0001b	c2 08 00	 ret	 8
$L74657:

; 90   : 		return false;

  0001e	32 c0		 xor	 al, al

; 95   : }

  00020	c2 08 00	 ret	 8
?Data@?$SimpleDataList@PAUMESSAGE@@@@QBE_NHAAPAUMESSAGE@@@Z ENDP ; SimpleDataList<MESSAGE *>::Data
_TEXT	ENDS
EXTRN	??3@YAXPAX@Z:NEAR				; operator delete
; Function compile flags: /Ogty
;	COMDAT ??_G?$SimpleDataList@PAUMESSAGE@@@@UAEPAXI@Z
_TEXT	SEGMENT
___flags$ = 8						; size = 4
??_G?$SimpleDataList@PAUMESSAGE@@@@UAEPAXI@Z PROC NEAR	; SimpleDataList<MESSAGE *>::`scalar deleting destructor', COMDAT
; _this$ = ecx
  00000	56		 push	 esi
  00001	8b f1		 mov	 esi, ecx
  00003	8b 46 04	 mov	 eax, DWORD PTR [esi+4]
  00006	85 c0		 test	 eax, eax
  00008	c7 06 00 00 00
	00		 mov	 DWORD PTR [esi], OFFSET FLAT:??_7?$SimpleDataList@PAUMESSAGE@@@@6B@
  0000e	74 10		 je	 SHORT $L74821
  00010	50		 push	 eax
  00011	e8 00 00 00 00	 call	 ??_V@YAXPAX@Z		; operator delete[]
  00016	83 c4 04	 add	 esp, 4
  00019	c7 46 04 00 00
	00 00		 mov	 DWORD PTR [esi+4], 0
$L74821:
  00020	f6 44 24 08 01	 test	 BYTE PTR ___flags$[esp], 1
  00025	74 09		 je	 SHORT $L74822
  00027	56		 push	 esi
  00028	e8 00 00 00 00	 call	 ??3@YAXPAX@Z		; operator delete
  0002d	83 c4 04	 add	 esp, 4
$L74822:
  00030	8b c6		 mov	 eax, esi
  00032	5e		 pop	 esi
  00033	c2 04 00	 ret	 4
??_G?$SimpleDataList@PAUMESSAGE@@@@UAEPAXI@Z ENDP	; SimpleDataList<MESSAGE *>::`scalar deleting destructor'
_TEXT	ENDS
PUBLIC	?Find@?$SimpleDataList@PAUMESSAGE@@@@QBE_NPAUMESSAGE@@@Z ; SimpleDataList<MESSAGE *>::Find
; Function compile flags: /Ogty
;	COMDAT ?Find@?$SimpleDataList@PAUMESSAGE@@@@QBE_NPAUMESSAGE@@@Z
_TEXT	SEGMENT
_data$ = 8						; size = 4
?Find@?$SimpleDataList@PAUMESSAGE@@@@QBE_NPAUMESSAGE@@@Z PROC NEAR ; SimpleDataList<MESSAGE *>::Find, COMDAT
; _this$ = ecx

; 77   : 
; 78   : 	return false;

  00000	8b 51 08	 mov	 edx, DWORD PTR [ecx+8]
  00003	56		 push	 esi
  00004	33 c0		 xor	 eax, eax
  00006	85 d2		 test	 edx, edx
  00008	7e 13		 jle	 SHORT $L74702
  0000a	8b 49 04	 mov	 ecx, DWORD PTR [ecx+4]
  0000d	8b 74 24 08	 mov	 esi, DWORD PTR _data$[esp]
$L74700:
  00011	39 31		 cmp	 DWORD PTR [ecx], esi
  00013	74 0e		 je	 SHORT $L74827
  00015	40		 inc	 eax
  00016	83 c1 04	 add	 ecx, 4
  00019	3b c2		 cmp	 eax, edx
  0001b	7c f4		 jl	 SHORT $L74700
$L74702:
  0001d	32 c0		 xor	 al, al
  0001f	5e		 pop	 esi

; 79   : }

  00020	c2 04 00	 ret	 4
$L74827:

; 74   : 	for (int i=0; i < m_size; i++)
; 75   : 		if (m_p_buf[i] == data)
; 76   : 			return true;

  00023	b0 01		 mov	 al, 1
  00025	5e		 pop	 esi

; 79   : }

  00026	c2 04 00	 ret	 4
?Find@?$SimpleDataList@PAUMESSAGE@@@@QBE_NPAUMESSAGE@@@Z ENDP ; SimpleDataList<MESSAGE *>::Find
_TEXT	ENDS
PUBLIC	?_DispatchMessage@C_VS_UI_RESULT_RECEIVER@@QAEXXZ ; C_VS_UI_RESULT_RECEIVER::_DispatchMessage
; Function compile flags: /Ogty
; File c:\darkeden\designed_common\project\new - vs_ui\src\vs_ui_ui_result_receiver.cpp
;	COMDAT ?_DispatchMessage@C_VS_UI_RESULT_RECEIVER@@QAEXXZ
_TEXT	SEGMENT
?_DispatchMessage@C_VS_UI_RESULT_RECEIVER@@QAEXXZ PROC NEAR ; C_VS_UI_RESULT_RECEIVER::_DispatchMessage, COMDAT
; _this$ = ecx

; 60   : {

  00000	57		 push	 edi
  00001	8b f9		 mov	 edi, ecx

; 61   : 	if (m_fp_result_receiver != NULL)

  00003	8b 4f 0c	 mov	 ecx, DWORD PTR [edi+12]
  00006	85 c9		 test	 ecx, ecx
  00008	74 30		 je	 SHORT $L74448

; 62   : 	{
; 63   : 		if (m_message_queue.Size() > 0)

  0000a	8b 47 08	 mov	 eax, DWORD PTR [edi+8]
  0000d	85 c0		 test	 eax, eax
  0000f	7e 29		 jle	 SHORT $L74448

; 64   : 		{
; 65   : 			MESSAGE * data;
; 66   : 			if (m_message_queue.Data(0, data))

  00011	8b 47 04	 mov	 eax, DWORD PTR [edi+4]
  00014	56		 push	 esi
  00015	8b 30		 mov	 esi, DWORD PTR [eax]

; 67   : 			{
; 68   : 				m_fp_result_receiver(data->message, data->left, data->right, data->void_ptr);

  00017	8b 56 0c	 mov	 edx, DWORD PTR [esi+12]
  0001a	8b 46 08	 mov	 eax, DWORD PTR [esi+8]
  0001d	52		 push	 edx
  0001e	8b 56 04	 mov	 edx, DWORD PTR [esi+4]
  00021	50		 push	 eax
  00022	8b 06		 mov	 eax, DWORD PTR [esi]
  00024	52		 push	 edx
  00025	50		 push	 eax
  00026	ff d1		 call	 ecx

; 69   : 				delete data;

  00028	56		 push	 esi
  00029	e8 00 00 00 00	 call	 ??3@YAXPAX@Z		; operator delete
  0002e	83 c4 14	 add	 esp, 20			; 00000014H

; 70   : 				m_message_queue.Delete(data);

  00031	56		 push	 esi
  00032	8b cf		 mov	 ecx, edi
  00034	e8 00 00 00 00	 call	 ?Delete@?$SimpleDataList@PAUMESSAGE@@@@QAE_NPAUMESSAGE@@@Z ; SimpleDataList<MESSAGE *>::Delete
  00039	5e		 pop	 esi
$L74448:
  0003a	5f		 pop	 edi

; 71   : 			}
; 72   : 		}
; 73   : 	}
; 74   : }

  0003b	c3		 ret	 0
?_DispatchMessage@C_VS_UI_RESULT_RECEIVER@@QAEXXZ ENDP	; C_VS_UI_RESULT_RECEIVER::_DispatchMessage
_TEXT	ENDS
PUBLIC	??0C_MESSAGE_QUEUE@@QAE@XZ			; C_MESSAGE_QUEUE::C_MESSAGE_QUEUE
PUBLIC	??_7C_MESSAGE_QUEUE@@6B@			; C_MESSAGE_QUEUE::`vftable'
PUBLIC	??_GC_MESSAGE_QUEUE@@UAEPAXI@Z			; C_MESSAGE_QUEUE::`scalar deleting destructor'
PUBLIC	??_R4C_MESSAGE_QUEUE@@6B@			; C_MESSAGE_QUEUE::`RTTI Complete Object Locator'
PUBLIC	??_R0?AVC_MESSAGE_QUEUE@@@8			; C_MESSAGE_QUEUE `RTTI Type Descriptor'
PUBLIC	??_R3C_MESSAGE_QUEUE@@8				; C_MESSAGE_QUEUE::`RTTI Class Hierarchy Descriptor'
PUBLIC	??_R2C_MESSAGE_QUEUE@@8				; C_MESSAGE_QUEUE::`RTTI Base Class Array'
PUBLIC	??_R1A@?0A@A@C_MESSAGE_QUEUE@@8			; C_MESSAGE_QUEUE::`RTTI Base Class Descriptor at (0,-1,0,0)'
EXTRN	??_EC_MESSAGE_QUEUE@@UAEPAXI@Z:NEAR		; C_MESSAGE_QUEUE::`vector deleting destructor'
;	COMDAT ??_7C_MESSAGE_QUEUE@@6B@
; File c:\darkeden\designed_common\project\new - vs_ui\src\widget\simpledatalist.h
CONST	SEGMENT
??_7C_MESSAGE_QUEUE@@6B@ DD FLAT:??_R4C_MESSAGE_QUEUE@@6B@ ; C_MESSAGE_QUEUE::`vftable'
	DD	FLAT:??_EC_MESSAGE_QUEUE@@UAEPAXI@Z
CONST	ENDS
;	COMDAT ??_R4C_MESSAGE_QUEUE@@6B@
rdata$r	SEGMENT
??_R4C_MESSAGE_QUEUE@@6B@ DD 00H			; C_MESSAGE_QUEUE::`RTTI Complete Object Locator'
	DD	00H
	DD	00H
	DD	FLAT:??_R0?AVC_MESSAGE_QUEUE@@@8
	DD	FLAT:??_R3C_MESSAGE_QUEUE@@8
rdata$r	ENDS
;	COMDAT ??_R0?AVC_MESSAGE_QUEUE@@@8
_DATA	SEGMENT
??_R0?AVC_MESSAGE_QUEUE@@@8 DD FLAT:??_7type_info@@6B@	; C_MESSAGE_QUEUE `RTTI Type Descriptor'
	DD	00H
	DB	'.?AVC_MESSAGE_QUEUE@@', 00H
_DATA	ENDS
;	COMDAT ??_R3C_MESSAGE_QUEUE@@8
rdata$r	SEGMENT
??_R3C_MESSAGE_QUEUE@@8 DD 00H				; C_MESSAGE_QUEUE::`RTTI Class Hierarchy Descriptor'
	DD	00H
	DD	02H
	DD	FLAT:??_R2C_MESSAGE_QUEUE@@8
rdata$r	ENDS
;	COMDAT ??_R2C_MESSAGE_QUEUE@@8
rdata$r	SEGMENT
??_R2C_MESSAGE_QUEUE@@8 DD FLAT:??_R1A@?0A@A@C_MESSAGE_QUEUE@@8 ; C_MESSAGE_QUEUE::`RTTI Base Class Array'
	DD	FLAT:??_R1A@?0A@A@?$SimpleDataList@PAUMESSAGE@@@@8
rdata$r	ENDS
;	COMDAT ??_R1A@?0A@A@C_MESSAGE_QUEUE@@8
rdata$r	SEGMENT
??_R1A@?0A@A@C_MESSAGE_QUEUE@@8 DD FLAT:??_R0?AVC_MESSAGE_QUEUE@@@8 ; C_MESSAGE_QUEUE::`RTTI Base Class Descriptor at (0,-1,0,0)'
	DD	01H
	DD	00H
	DD	0ffffffffH
	DD	00H
	DD	00H
; Function compile flags: /Ogty
; File c:\darkeden\designed_common\project\new - vs_ui\src\vs_ui_ui_result_receiver.cpp
rdata$r	ENDS
;	COMDAT ??0C_MESSAGE_QUEUE@@QAE@XZ
_TEXT	SEGMENT
??0C_MESSAGE_QUEUE@@QAE@XZ PROC NEAR			; C_MESSAGE_QUEUE::C_MESSAGE_QUEUE, COMDAT
; _this$ = ecx

; 82   : {

  00000	8b c1		 mov	 eax, ecx
  00002	33 c9		 xor	 ecx, ecx
  00004	89 48 04	 mov	 DWORD PTR [eax+4], ecx
  00007	89 48 08	 mov	 DWORD PTR [eax+8], ecx
  0000a	c7 00 00 00 00
	00		 mov	 DWORD PTR [eax], OFFSET FLAT:??_7C_MESSAGE_QUEUE@@6B@

; 83   : 
; 84   : }

  00010	c3		 ret	 0
??0C_MESSAGE_QUEUE@@QAE@XZ ENDP				; C_MESSAGE_QUEUE::C_MESSAGE_QUEUE
_TEXT	ENDS
PUBLIC	??1C_MESSAGE_QUEUE@@UAE@XZ			; C_MESSAGE_QUEUE::~C_MESSAGE_QUEUE
; Function compile flags: /Ogty
;	COMDAT ??1C_MESSAGE_QUEUE@@UAE@XZ
_TEXT	SEGMENT
??1C_MESSAGE_QUEUE@@UAE@XZ PROC NEAR			; C_MESSAGE_QUEUE::~C_MESSAGE_QUEUE, COMDAT
; _this$ = ecx

; 92   : {

  00000	56		 push	 esi
  00001	8b f1		 mov	 esi, ecx

; 93   : 	MESSAGE * data;
; 94   : 	for (int i=0; i < Size(); i++)

  00003	8b 46 08	 mov	 eax, DWORD PTR [esi+8]
  00006	57		 push	 edi
  00007	33 ff		 xor	 edi, edi
  00009	85 c0		 test	 eax, eax
  0000b	c7 06 00 00 00
	00		 mov	 DWORD PTR [esi], OFFSET FLAT:??_7C_MESSAGE_QUEUE@@6B@
  00011	7e 20		 jle	 SHORT $L74464
$L74462:

; 95   : 		if (Data(i, data))

  00013	85 ff		 test	 edi, edi
  00015	7c 14		 jl	 SHORT $L74463
  00017	3b 7e 08	 cmp	 edi, DWORD PTR [esi+8]
  0001a	7d 0f		 jge	 SHORT $L74463
  0001c	8b 46 04	 mov	 eax, DWORD PTR [esi+4]
  0001f	8b 04 b8	 mov	 eax, DWORD PTR [eax+edi*4]

; 96   : 			delete data;

  00022	50		 push	 eax
  00023	e8 00 00 00 00	 call	 ??3@YAXPAX@Z		; operator delete
  00028	83 c4 04	 add	 esp, 4
$L74463:
  0002b	8b 46 08	 mov	 eax, DWORD PTR [esi+8]
  0002e	47		 inc	 edi
  0002f	3b f8		 cmp	 edi, eax
  00031	7c e0		 jl	 SHORT $L74462
$L74464:

; 97   : }

  00033	8b 46 04	 mov	 eax, DWORD PTR [esi+4]
  00036	85 c0		 test	 eax, eax
  00038	c7 06 00 00 00
	00		 mov	 DWORD PTR [esi], OFFSET FLAT:??_7?$SimpleDataList@PAUMESSAGE@@@@6B@
  0003e	74 10		 je	 SHORT $L74872
  00040	50		 push	 eax
  00041	e8 00 00 00 00	 call	 ??_V@YAXPAX@Z		; operator delete[]
  00046	83 c4 04	 add	 esp, 4
  00049	c7 46 04 00 00
	00 00		 mov	 DWORD PTR [esi+4], 0
$L74872:
  00050	5f		 pop	 edi
  00051	5e		 pop	 esi
  00052	c3		 ret	 0
??1C_MESSAGE_QUEUE@@UAE@XZ ENDP				; C_MESSAGE_QUEUE::~C_MESSAGE_QUEUE
_TEXT	ENDS
PUBLIC	?Add@?$SimpleDataList@PAUMESSAGE@@@@QAE_NPAUMESSAGE@@@Z ; SimpleDataList<MESSAGE *>::Add
; Function compile flags: /Ogty
; File c:\darkeden\designed_common\project\new - vs_ui\src\widget\simpledatalist.h
;	COMDAT ?Add@?$SimpleDataList@PAUMESSAGE@@@@QAE_NPAUMESSAGE@@@Z
_TEXT	SEGMENT
_data$ = 8						; size = 4
?Add@?$SimpleDataList@PAUMESSAGE@@@@QAE_NPAUMESSAGE@@@Z PROC NEAR ; SimpleDataList<MESSAGE *>::Add, COMDAT
; _this$ = ecx

; 106  : {

  00000	55		 push	 ebp

; 107  : 	if (Find(data) == true)

  00001	8b 6c 24 08	 mov	 ebp, DWORD PTR _data$[esp]
  00005	56		 push	 esi
  00006	8b f1		 mov	 esi, ecx
  00008	57		 push	 edi
  00009	8b 7e 08	 mov	 edi, DWORD PTR [esi+8]
  0000c	33 c0		 xor	 eax, eax
  0000e	85 ff		 test	 edi, edi
  00010	7e 16		 jle	 SHORT $L74604
  00012	8b 4e 04	 mov	 ecx, DWORD PTR [esi+4]
$L74887:
  00015	39 29		 cmp	 DWORD PTR [ecx], ebp
  00017	0f 84 d1 00 00
	00		 je	 $L74899
  0001d	8b 56 08	 mov	 edx, DWORD PTR [esi+8]
  00020	40		 inc	 eax
  00021	83 c1 04	 add	 ecx, 4
  00024	3b c2		 cmp	 eax, edx
  00026	7c ed		 jl	 SHORT $L74887
$L74604:
  00028	53		 push	 ebx

; 109  : 
; 110  : 	Ta *		p_temp = NULL;

  00029	33 db		 xor	 ebx, ebx

; 111  : 	int		prev_size = m_size;
; 112  : 	int		i;
; 113  : 
; 114  : 	if (prev_size > 0) // backup prev-data

  0002b	85 ff		 test	 edi, edi
  0002d	7e 3f		 jle	 SHORT $L74901

; 115  : 	{
; 116  : 		p_temp = new Ta[prev_size];

  0002f	8d 04 bd 00 00
	00 00		 lea	 eax, DWORD PTR [edi*4]
  00036	50		 push	 eax
  00037	e8 00 00 00 00	 call	 ??_U@YAPAXI@Z		; operator new[]
  0003c	8b d8		 mov	 ebx, eax
  0003e	83 c4 04	 add	 esp, 4

; 117  : 		CheckMemAlloc(p_temp);

  00041	85 db		 test	 ebx, ebx
  00043	75 12		 jne	 SHORT $L74900
  00045	6a 75		 push	 117			; 00000075H
  00047	68 00 00 00 00	 push	 OFFSET FLAT:??_C@_0EM@HBHAAEMJ@?4?4?2?4?4?2?4?4?2?4?4?2Designed_Common?2Proj@
  0004c	50		 push	 eax
  0004d	6a 01		 push	 1
  0004f	e8 00 00 00 00	 call	 ?g_BasicException@@YAXW4EXCEPTION_CODE@@PAD1K@Z ; g_BasicException
  00054	83 c4 10	 add	 esp, 16			; 00000010H
$L74900:

; 118  : 
; 119  : 		for (i=0; i < prev_size; i++)

  00057	33 c0		 xor	 eax, eax
  00059	85 ff		 test	 edi, edi
  0005b	7e 11		 jle	 SHORT $L74901
  0005d	8d 49 00	 npad	 3
$L74613:

; 120  : 			p_temp[i] = m_p_buf[i];

  00060	8b 4e 04	 mov	 ecx, DWORD PTR [esi+4]
  00063	8b 14 81	 mov	 edx, DWORD PTR [ecx+eax*4]
  00066	89 14 83	 mov	 DWORD PTR [ebx+eax*4], edx
  00069	40		 inc	 eax
  0006a	3b c7		 cmp	 eax, edi
  0006c	7c f2		 jl	 SHORT $L74613
$L74901:

; 121  : 	}
; 122  : 	
; 123  : 	DeleteNewArray(m_p_buf);

  0006e	8b 46 04	 mov	 eax, DWORD PTR [esi+4]
  00071	85 c0		 test	 eax, eax
  00073	74 10		 je	 SHORT $L74616
  00075	50		 push	 eax
  00076	e8 00 00 00 00	 call	 ??_V@YAXPAX@Z		; operator delete[]
  0007b	83 c4 04	 add	 esp, 4
  0007e	c7 46 04 00 00
	00 00		 mov	 DWORD PTR [esi+4], 0
$L74616:

; 124  : 	m_size++;

  00085	8b 56 08	 mov	 edx, DWORD PTR [esi+8]
  00088	42		 inc	 edx
  00089	8b c2		 mov	 eax, edx

; 125  : 	m_p_buf = new Ta[m_size];

  0008b	c1 e0 02	 shl	 eax, 2
  0008e	50		 push	 eax
  0008f	89 56 08	 mov	 DWORD PTR [esi+8], edx
  00092	e8 00 00 00 00	 call	 ??_U@YAPAXI@Z		; operator new[]
  00097	83 c4 04	 add	 esp, 4

; 126  : 	CheckMemAlloc(m_p_buf);

  0009a	85 c0		 test	 eax, eax
  0009c	89 46 04	 mov	 DWORD PTR [esi+4], eax
  0009f	75 12		 jne	 SHORT $L74620
  000a1	6a 7e		 push	 126			; 0000007eH
  000a3	68 00 00 00 00	 push	 OFFSET FLAT:??_C@_0EM@HBHAAEMJ@?4?4?2?4?4?2?4?4?2?4?4?2Designed_Common?2Proj@
  000a8	50		 push	 eax
  000a9	6a 01		 push	 1
  000ab	e8 00 00 00 00	 call	 ?g_BasicException@@YAXW4EXCEPTION_CODE@@PAD1K@Z ; g_BasicException
  000b0	83 c4 10	 add	 esp, 16			; 00000010H
$L74620:

; 127  : 
; 128  : 	for (i=0; i < prev_size; i++) // restore backup data

  000b3	33 c0		 xor	 eax, eax
  000b5	85 ff		 test	 edi, edi
  000b7	7e 15		 jle	 SHORT $L74623
  000b9	8d a4 24 00 00
	00 00		 npad	 7
$L74621:

; 129  : 		m_p_buf[i] = p_temp[i];

  000c0	8b 14 83	 mov	 edx, DWORD PTR [ebx+eax*4]
  000c3	8b 4e 04	 mov	 ecx, DWORD PTR [esi+4]
  000c6	89 14 81	 mov	 DWORD PTR [ecx+eax*4], edx
  000c9	40		 inc	 eax
  000ca	3b c7		 cmp	 eax, edi
  000cc	7c f2		 jl	 SHORT $L74621
$L74623:

; 130  : 
; 131  : 	m_p_buf[m_size-1] = data;
; 132  : 
; 133  : 	DeleteNewArray(p_temp);

  000ce	85 db		 test	 ebx, ebx
  000d0	8b 46 08	 mov	 eax, DWORD PTR [esi+8]
  000d3	8b 4e 04	 mov	 ecx, DWORD PTR [esi+4]
  000d6	89 6c 81 fc	 mov	 DWORD PTR [ecx+eax*4-4], ebp
  000da	74 09		 je	 SHORT $L74624
  000dc	53		 push	 ebx
  000dd	e8 00 00 00 00	 call	 ??_V@YAXPAX@Z		; operator delete[]
  000e2	83 c4 04	 add	 esp, 4
$L74624:
  000e5	5b		 pop	 ebx
  000e6	5f		 pop	 edi
  000e7	5e		 pop	 esi

; 134  : 
; 135  : 	return true;

  000e8	b0 01		 mov	 al, 1
  000ea	5d		 pop	 ebp

; 136  : }

  000eb	c2 04 00	 ret	 4
$L74899:
  000ee	5f		 pop	 edi
  000ef	5e		 pop	 esi

; 108  : 		return false;

  000f0	32 c0		 xor	 al, al
  000f2	5d		 pop	 ebp

; 136  : }

  000f3	c2 04 00	 ret	 4
?Add@?$SimpleDataList@PAUMESSAGE@@@@QAE_NPAUMESSAGE@@@Z ENDP ; SimpleDataList<MESSAGE *>::Add
_TEXT	ENDS
PUBLIC	??0C_VS_UI_RESULT_RECEIVER@@QAE@XZ		; C_VS_UI_RESULT_RECEIVER::C_VS_UI_RESULT_RECEIVER
; Function compile flags: /Ogty
; File c:\darkeden\designed_common\project\new - vs_ui\src\vs_ui_ui_result_receiver.cpp
;	COMDAT ??0C_VS_UI_RESULT_RECEIVER@@QAE@XZ
_TEXT	SEGMENT
??0C_VS_UI_RESULT_RECEIVER@@QAE@XZ PROC NEAR		; C_VS_UI_RESULT_RECEIVER::C_VS_UI_RESULT_RECEIVER, COMDAT
; _this$ = ecx

; 12   : {

  00000	8b c1		 mov	 eax, ecx
  00002	33 c9		 xor	 ecx, ecx
  00004	89 48 04	 mov	 DWORD PTR [eax+4], ecx
  00007	89 48 08	 mov	 DWORD PTR [eax+8], ecx
  0000a	c7 00 00 00 00
	00		 mov	 DWORD PTR [eax], OFFSET FLAT:??_7C_MESSAGE_QUEUE@@6B@

; 13   : 	m_fp_result_receiver = NULL;

  00010	89 48 0c	 mov	 DWORD PTR [eax+12], ecx

; 14   : }

  00013	c3		 ret	 0
??0C_VS_UI_RESULT_RECEIVER@@QAE@XZ ENDP			; C_VS_UI_RESULT_RECEIVER::C_VS_UI_RESULT_RECEIVER
_TEXT	ENDS
PUBLIC	??1C_VS_UI_RESULT_RECEIVER@@QAE@XZ		; C_VS_UI_RESULT_RECEIVER::~C_VS_UI_RESULT_RECEIVER
; Function compile flags: /Ogty
;	COMDAT ??1C_VS_UI_RESULT_RECEIVER@@QAE@XZ
_TEXT	SEGMENT
??1C_VS_UI_RESULT_RECEIVER@@QAE@XZ PROC NEAR		; C_VS_UI_RESULT_RECEIVER::~C_VS_UI_RESULT_RECEIVER, COMDAT
; _this$ = ecx

; 22   : 
; 23   : }

  00000	e9 00 00 00 00	 jmp	 ??1C_MESSAGE_QUEUE@@UAE@XZ ; C_MESSAGE_QUEUE::~C_MESSAGE_QUEUE
??1C_VS_UI_RESULT_RECEIVER@@QAE@XZ ENDP			; C_VS_UI_RESULT_RECEIVER::~C_VS_UI_RESULT_RECEIVER
_TEXT	ENDS
PUBLIC	?_SendMessage@C_VS_UI_RESULT_RECEIVER@@QAEXKHHPAX@Z ; C_VS_UI_RESULT_RECEIVER::_SendMessage
EXTRN	??2@YAPAXI@Z:NEAR				; operator new
; Function compile flags: /Ogty
;	COMDAT ?_SendMessage@C_VS_UI_RESULT_RECEIVER@@QAEXKHHPAX@Z
_TEXT	SEGMENT
_message$ = 8						; size = 4
_left$ = 12						; size = 4
_right$ = 16						; size = 4
_void_ptr$ = 20						; size = 4
?_SendMessage@C_VS_UI_RESULT_RECEIVER@@QAEXKHHPAX@Z PROC NEAR ; C_VS_UI_RESULT_RECEIVER::_SendMessage, COMDAT
; _this$ = ecx

; 42   : {

  00000	56		 push	 esi

; 43   : 	assert(message != INVALID_MESSAGE);
; 44   : 
; 45   : 	MESSAGE * msg = new MESSAGE;

  00001	6a 10		 push	 16			; 00000010H
  00003	8b f1		 mov	 esi, ecx
  00005	e8 00 00 00 00	 call	 ??2@YAPAXI@Z		; operator new

; 46   : 
; 47   : 	msg->message = message;

  0000a	8b 4c 24 0c	 mov	 ecx, DWORD PTR _message$[esp+4]

; 48   : 	msg->left = left;

  0000e	8b 54 24 10	 mov	 edx, DWORD PTR _left$[esp+4]
  00012	89 08		 mov	 DWORD PTR [eax], ecx

; 49   : 	msg->right = right;

  00014	8b 4c 24 14	 mov	 ecx, DWORD PTR _right$[esp+4]
  00018	83 c4 04	 add	 esp, 4
  0001b	89 50 04	 mov	 DWORD PTR [eax+4], edx

; 50   : 	msg->void_ptr = void_ptr;

  0001e	8b 54 24 14	 mov	 edx, DWORD PTR _void_ptr$[esp]
  00022	89 48 08	 mov	 DWORD PTR [eax+8], ecx

; 51   : 
; 52   : 	m_message_queue.Add(msg);

  00025	50		 push	 eax
  00026	8b ce		 mov	 ecx, esi
  00028	89 50 0c	 mov	 DWORD PTR [eax+12], edx
  0002b	e8 00 00 00 00	 call	 ?Add@?$SimpleDataList@PAUMESSAGE@@@@QAE_NPAUMESSAGE@@@Z ; SimpleDataList<MESSAGE *>::Add
  00030	5e		 pop	 esi

; 53   : }

  00031	c2 10 00	 ret	 16			; 00000010H
?_SendMessage@C_VS_UI_RESULT_RECEIVER@@QAEXKHHPAX@Z ENDP ; C_VS_UI_RESULT_RECEIVER::_SendMessage
; Function compile flags: /Ogty
_TEXT	ENDS
;	COMDAT ??_GC_MESSAGE_QUEUE@@UAEPAXI@Z
_TEXT	SEGMENT
___flags$ = 8						; size = 4
??_GC_MESSAGE_QUEUE@@UAEPAXI@Z PROC NEAR		; C_MESSAGE_QUEUE::`scalar deleting destructor', COMDAT
; _this$ = ecx
  00000	56		 push	 esi
  00001	8b f1		 mov	 esi, ecx
  00003	e8 00 00 00 00	 call	 ??1C_MESSAGE_QUEUE@@UAE@XZ ; C_MESSAGE_QUEUE::~C_MESSAGE_QUEUE
  00008	f6 44 24 08 01	 test	 BYTE PTR ___flags$[esp], 1
  0000d	74 09		 je	 SHORT $L74926
  0000f	56		 push	 esi
  00010	e8 00 00 00 00	 call	 ??3@YAXPAX@Z		; operator delete
  00015	83 c4 04	 add	 esp, 4
$L74926:
  00018	8b c6		 mov	 eax, esi
  0001a	5e		 pop	 esi
  0001b	c2 04 00	 ret	 4
??_GC_MESSAGE_QUEUE@@UAEPAXI@Z ENDP			; C_MESSAGE_QUEUE::`scalar deleting destructor'
_TEXT	ENDS
END
