; Listing generated by Microsoft (R) Optimizing Compiler Version 13.10.3077 

	TITLE	\darkeden\Designed_Common\Project\Client\Packet\ClientPlayer.cpp
	.386P
include listing.inc
if @Version gt 510
.model FLAT
else
_TEXT	SEGMENT PARA USE32 PUBLIC 'CODE'
_TEXT	ENDS
_DATA	SEGMENT DWORD USE32 PUBLIC 'DATA'
_DATA	ENDS
CONST	SEGMENT DWORD USE32 PUBLIC 'CONST'
CONST	ENDS
_BSS	SEGMENT DWORD USE32 PUBLIC 'BSS'
_BSS	ENDS
$$SYMBOLS	SEGMENT BYTE USE32 'DEBSYM'
$$SYMBOLS	ENDS
$$TYPES	SEGMENT BYTE USE32 'DEBTYP'
$$TYPES	ENDS
_TLS	SEGMENT DWORD USE32 PUBLIC 'TLS'
_TLS	ENDS
;	COMDAT ??_C@_0CA@NDINADEE@SocketOutputStream?$CIm_BufferLen?3?$AA@
CONST	SEGMENT DWORD USE32 PUBLIC 'CONST'
CONST	ENDS
;	COMDAT ??_C@_08LIHEOLAN@?0m_Head?3?$AA@
CONST	SEGMENT DWORD USE32 PUBLIC 'CONST'
CONST	ENDS
;	COMDAT ??_C@_08PCEHPGHK@?0m_Tail?3?$AA@
CONST	SEGMENT DWORD USE32 PUBLIC 'CONST'
CONST	ENDS
;	COMDAT ??_C@_01PKGAHCOL@?$CJ?$AA@
CONST	SEGMENT DWORD USE32 PUBLIC 'CONST'
CONST	ENDS
;	COMDAT ??_C@_0BN@ODLNCKCA@Data?2?2Info?2?2ClientConfig?4inf?$AA@
CONST	SEGMENT DWORD USE32 PUBLIC 'CONST'
CONST	ENDS
;	COMDAT ??_C@_0BM@DFPLPGPC@Data?2?2Info?2?2GuildMapper?4inf?$AA@
CONST	SEGMENT DWORD USE32 PUBLIC 'CONST'
CONST	ENDS
;	COMDAT ??_C@_0BN@LHODHNBK@Data?2?2Info?2?2GuildVersion?4inf?$AA@
CONST	SEGMENT DWORD USE32 PUBLIC 'CONST'
CONST	ENDS
;	COMDAT ??_C@_0BH@DDPLNCOL@Data?2?2Info?2?2Player?4inf?$AA@
CONST	SEGMENT DWORD USE32 PUBLIC 'CONST'
CONST	ENDS
;	COMDAT ??_C@_0BL@ILLNAPHB@Data?2?2Info?2?2Resolution?4inf?$AA@
CONST	SEGMENT DWORD USE32 PUBLIC 'CONST'
CONST	ENDS
;	COMDAT ??_C@_0CA@HEIGFDLG@Data?2?2Info?2?2SelectedChannel?4inf?$AA@
CONST	SEGMENT DWORD USE32 PUBLIC 'CONST'
CONST	ENDS
;	COMDAT ??_C@_0O@JKENFCBN@MinTrace?52003?$AA@
CONST	SEGMENT DWORD USE32 PUBLIC 'CONST'
CONST	ENDS
;	COMDAT ??_C@_0BE@MNEJIGLM@__MinTrace?5Window__?$AA@
CONST	SEGMENT DWORD USE32 PUBLIC 'CONST'
CONST	ENDS
;	COMDAT ??_C@_06KLPNNMEP@?$CF8d?0?$CFs?$AA@
CONST	SEGMENT DWORD USE32 PUBLIC 'CONST'
CONST	ENDS
;	COMDAT ??_C@_0BB@BKKGCCID@?$DNMAP_2000_05_10?$DN?$AA@
CONST	SEGMENT DWORD USE32 PUBLIC 'CONST'
CONST	ENDS
;	COMDAT ??_C@_0CC@FKEPDGNH@?$CK?$CK?$CK?5RECEIVED?5PacketID?$DN?$CFd?0?5Size?$DN?$CF@
CONST	SEGMENT DWORD USE32 PUBLIC 'CONST'
CONST	ENDS
;	COMDAT ??_C@_0EG@PPJFIMJN@?$FLPacketError?9ClientPlayer?3?3proce@
CONST	SEGMENT DWORD USE32 PUBLIC 'CONST'
CONST	ENDS
;	COMDAT ??_C@_0BD@FANDPPKL@Exceed?5PacketID?3?$CFd?$AA@
CONST	SEGMENT DWORD USE32 PUBLIC 'CONST'
CONST	ENDS
;	COMDAT ??_C@_0DP@KCFCDKPH@?$FLPacketError?9ClientPlayer?3?3proce@
CONST	SEGMENT DWORD USE32 PUBLIC 'CONST'
CONST	ENDS
;	COMDAT ??_C@_0CL@BMGGEEHE@?$FLPacketError?$FN?5ignore?5Packet?5when@
CONST	SEGMENT DWORD USE32 PUBLIC 'CONST'
CONST	ENDS
;	COMDAT ??_C@_0BF@PFHKPJMA@invalid?5packet?5ORDER?$AA@
CONST	SEGMENT DWORD USE32 PUBLIC 'CONST'
CONST	ENDS
;	COMDAT ??_C@_0CL@NKGIKJHO@?$FLPacketError?$FN?5too?5large?5packet?5S@
CONST	SEGMENT DWORD USE32 PUBLIC 'CONST'
CONST	ENDS
;	COMDAT ??_C@_0CB@JHIBOMH@too?5large?5PacketSize?5ID?$CJ?$CFd?5?$CFd?1?$CFd@
CONST	SEGMENT DWORD USE32 PUBLIC 'CONST'
CONST	ENDS
;	COMDAT ??_C@_0BG@CMAGOJAN@too?5large?5packet?5SIZE?$AA@
CONST	SEGMENT DWORD USE32 PUBLIC 'CONST'
CONST	ENDS
;	COMDAT ??_C@_0CP@CKIKDDJC@?$FLPacketError?$FN?5InsufficientDataEx@
CONST	SEGMENT DWORD USE32 PUBLIC 'CONST'
CONST	ENDS
;	COMDAT ??_C@_0BD@CEJEDFOE@?$FLPacketExecute?5OK?$FN?$AA@
CONST	SEGMENT DWORD USE32 PUBLIC 'CONST'
CONST	ENDS
;	COMDAT ??_C@_0BE@OLNNBNFA@?$FLPacketExecute?5OK2?$FN?$AA@
CONST	SEGMENT DWORD USE32 PUBLIC 'CONST'
CONST	ENDS
;	COMDAT ??_C@_0EB@FNPFHNHA@?2darkeden?2Designed_Common?2Projec@
CONST	SEGMENT DWORD USE32 PUBLIC 'CONST'
CONST	ENDS
;	COMDAT ??_C@_0FG@HCHAHJIG@?$FLPacketSkip?$FN?5So?5many?5Packets?4?5Ma@
CONST	SEGMENT DWORD USE32 PUBLIC 'CONST'
CONST	ENDS
;	COMDAT ??_C@_0BI@LFOPAFAB@packet?5history?5is?5empty?$AA@
CONST	SEGMENT DWORD USE32 PUBLIC 'CONST'
CONST	ENDS
;	COMDAT ??_C@_0O@FJEGGDPN@ClientPlayer?$CI?$AA@
CONST	SEGMENT DWORD USE32 PUBLIC 'CONST'
CONST	ENDS
;	COMDAT ??_C@_09PKBEGPME@SocketID?3?$AA@
CONST	SEGMENT DWORD USE32 PUBLIC 'CONST'
CONST	ENDS
;	COMDAT ??_C@_06JNDMAKHD@?0Host?3?$AA@
CONST	SEGMENT DWORD USE32 PUBLIC 'CONST'
CONST	ENDS
;	COMDAT ??_C@_0N@GOPDCEEB@basic_string?$AA@
CONST	SEGMENT DWORD USE32 PUBLIC 'CONST'
CONST	ENDS
xdata$x	SEGMENT DWORD USE32 PUBLIC 'CONST'
xdata$x	ENDS
rdata$r	SEGMENT DWORD USE32 PUBLIC 'CONST'
rdata$r	ENDS
text$yc	SEGMENT PARA USE32 PUBLIC 'CODE'
text$yc	ENDS
CRT$XCA	SEGMENT DWORD USE32 PUBLIC 'DATA'
CRT$XCA	ENDS
CRT$XCU	SEGMENT DWORD USE32 PUBLIC 'DATA'
CRT$XCU	ENDS
CRT$XCL	SEGMENT DWORD USE32 PUBLIC 'DATA'
CRT$XCL	ENDS
CRT$XCC	SEGMENT DWORD USE32 PUBLIC 'DATA'
CRT$XCC	ENDS
CRT$XCZ	SEGMENT DWORD USE32 PUBLIC 'DATA'
CRT$XCZ	ENDS
text$yd	SEGMENT PARA USE32 PUBLIC 'CODE'
text$yd	ENDS
;	COMDAT ?getHost@SocketImpl@@QBE?AV?$basic_string@DV?$char_traits@D@_STL@@V?$allocator@D@2@@_STL@@XZ
_TEXT	SEGMENT PARA USE32 PUBLIC 'CODE'
_TEXT	ENDS
;	COMDAT ?getPort@SocketImpl@@QBEIXZ
_TEXT	SEGMENT PARA USE32 PUBLIC 'CODE'
_TEXT	ENDS
;	COMDAT ?isValid@SocketImpl@@QBE_NXZ
_TEXT	SEGMENT PARA USE32 PUBLIC 'CODE'
_TEXT	ENDS
;	COMDAT ?getSOCKET@SocketImpl@@QBEIXZ
_TEXT	SEGMENT PARA USE32 PUBLIC 'CODE'
_TEXT	ENDS
;	COMDAT ?close@Socket@@QAEXXZ
_TEXT	SEGMENT PARA USE32 PUBLIC 'CODE'
_TEXT	ENDS
;	COMDAT ?getHost@Socket@@QBE?AV?$basic_string@DV?$char_traits@D@_STL@@V?$allocator@D@2@@_STL@@XZ
_TEXT	SEGMENT PARA USE32 PUBLIC 'CODE'
_TEXT	ENDS
;	COMDAT ?getSOCKET@Socket@@QBEIXZ
_TEXT	SEGMENT PARA USE32 PUBLIC 'CODE'
_TEXT	ENDS
;	COMDAT ?write@SocketOutputStream@@QAEIG@Z
_TEXT	SEGMENT PARA USE32 PUBLIC 'CODE'
_TEXT	ENDS
;	COMDAT ?write@SocketOutputStream@@QAEII@Z
_TEXT	SEGMENT PARA USE32 PUBLIC 'CODE'
_TEXT	ENDS
;	COMDAT ??1Packet@@UAE@XZ
_TEXT	SEGMENT PARA USE32 PUBLIC 'CODE'
_TEXT	ENDS
;	COMDAT ?read@Packet@@UAEXPAVSocket@@@Z
_TEXT	SEGMENT PARA USE32 PUBLIC 'CODE'
_TEXT	ENDS
;	COMDAT ?write@Packet@@UBEXPAVSocket@@@Z
_TEXT	SEGMENT PARA USE32 PUBLIC 'CODE'
_TEXT	ENDS
;	COMDAT ??_GPacket@@UAEPAXI@Z
_TEXT	SEGMENT PARA USE32 PUBLIC 'CODE'
_TEXT	ENDS
;	COMDAT ??0UnsupportedError@@QAE@ABV0@@Z
_TEXT	SEGMENT PARA USE32 PUBLIC 'CODE'
_TEXT	ENDS
;	COMDAT ??0Error@@QAE@ABV0@@Z
_TEXT	SEGMENT PARA USE32 PUBLIC 'CODE'
_TEXT	ENDS
;	COMDAT ??0Throwable@@QAE@ABV0@@Z
_TEXT	SEGMENT PARA USE32 PUBLIC 'CODE'
_TEXT	ENDS
;	COMDAT ?getPlayerStatus@ClientPlayer@@QBE?AW4PlayerStatus@@XZ
_TEXT	SEGMENT PARA USE32 PUBLIC 'CODE'
_TEXT	ENDS
;	COMDAT ??1PacketFactory@@UAE@XZ
_TEXT	SEGMENT PARA USE32 PUBLIC 'CODE'
_TEXT	ENDS
;	COMDAT ??_GPacketFactory@@UAEPAXI@Z
_TEXT	SEGMENT PARA USE32 PUBLIC 'CODE'
_TEXT	ENDS
;	COMDAT ?start@CNFS@@QAE_NPADH@Z
_TEXT	SEGMENT PARA USE32 PUBLIC 'CODE'
_TEXT	ENDS
;	COMDAT ?end@CNFS@@QAEXXZ
_TEXT	SEGMENT PARA USE32 PUBLIC 'CODE'
_TEXT	ENDS
;	COMDAT ?Init@VirtualFileHeader@@QAEXXZ
_TEXT	SEGMENT PARA USE32 PUBLIC 'CODE'
_TEXT	ENDS
;	COMDAT ??1IFileIO@@UAE@XZ
_TEXT	SEGMENT PARA USE32 PUBLIC 'CODE'
_TEXT	ENDS
;	COMDAT ??_GIFileIO@@UAEPAXI@Z
_TEXT	SEGMENT PARA USE32 PUBLIC 'CODE'
_TEXT	ENDS
;	COMDAT ??0iovfs_base@@QAE@XZ
_TEXT	SEGMENT PARA USE32 PUBLIC 'CODE'
_TEXT	ENDS
;	COMDAT ??_Giovfs_base@@UAEPAXI@Z
_TEXT	SEGMENT PARA USE32 PUBLIC 'CODE'
_TEXT	ENDS
;	COMDAT ??1iovfs_base@@UAE@XZ
_TEXT	SEGMENT PARA USE32 PUBLIC 'CODE'
_TEXT	ENDS
;	COMDAT ?Init@iovfs_base@@QAEXXZ
_TEXT	SEGMENT PARA USE32 PUBLIC 'CODE'
_TEXT	ENDS
;	COMDAT ??_Givfstream@@UAEPAXI@Z
_TEXT	SEGMENT PARA USE32 PUBLIC 'CODE'
_TEXT	ENDS
;	COMDAT ??1ivfstream@@UAE@XZ
_TEXT	SEGMENT PARA USE32 PUBLIC 'CODE'
_TEXT	ENDS
;	COMDAT ?open@ivfstream@@UAEXPBDH@Z
_TEXT	SEGMENT PARA USE32 PUBLIC 'CODE'
_TEXT	ENDS
;	COMDAT ??_Govfstream@@UAEPAXI@Z
_TEXT	SEGMENT PARA USE32 PUBLIC 'CODE'
_TEXT	ENDS
;	COMDAT ??1ovfstream@@UAE@XZ
_TEXT	SEGMENT PARA USE32 PUBLIC 'CODE'
_TEXT	ENDS
;	COMDAT ?open@ovfstream@@UAEXPBDH@Z
_TEXT	SEGMENT PARA USE32 PUBLIC 'CODE'
_TEXT	ENDS
;	COMDAT ?getCode@Encrypter@@QBEEXZ
_TEXT	SEGMENT PARA USE32 PUBLIC 'CODE'
_TEXT	ENDS
;	COMDAT ?convert@Encrypter@@QAE_N_N@Z
_TEXT	SEGMENT PARA USE32 PUBLIC 'CODE'
_TEXT	ENDS
;	COMDAT ?convert@Encrypter@@QAEED@Z
_TEXT	SEGMENT PARA USE32 PUBLIC 'CODE'
_TEXT	ENDS
;	COMDAT ?convert@Encrypter@@QAEEE@Z
_TEXT	SEGMENT PARA USE32 PUBLIC 'CODE'
_TEXT	ENDS
;	COMDAT ?convert@Encrypter@@QAEGF@Z
_TEXT	SEGMENT PARA USE32 PUBLIC 'CODE'
_TEXT	ENDS
;	COMDAT ?convert@Encrypter@@QAEGG@Z
_TEXT	SEGMENT PARA USE32 PUBLIC 'CODE'
_TEXT	ENDS
;	COMDAT ?convert@Encrypter@@QAEIH@Z
_TEXT	SEGMENT PARA USE32 PUBLIC 'CODE'
_TEXT	ENDS
;	COMDAT ?convert@Encrypter@@QAEII@Z
_TEXT	SEGMENT PARA USE32 PUBLIC 'CODE'
_TEXT	ENDS
;	COMDAT ?convert@Encrypter@@QAEJJ@Z
_TEXT	SEGMENT PARA USE32 PUBLIC 'CODE'
_TEXT	ENDS
;	COMDAT ?convert@Encrypter@@QAEKK@Z
_TEXT	SEGMENT PARA USE32 PUBLIC 'CODE'
_TEXT	ENDS
;	COMDAT ??1SocketEncryptInputStream@@UAE@XZ
_TEXT	SEGMENT PARA USE32 PUBLIC 'CODE'
_TEXT	ENDS
;	COMDAT ?setEncryptCode@SocketEncryptInputStream@@QAEXE@Z
_TEXT	SEGMENT PARA USE32 PUBLIC 'CODE'
_TEXT	ENDS
;	COMDAT ??_GSocketEncryptInputStream@@UAEPAXI@Z
_TEXT	SEGMENT PARA USE32 PUBLIC 'CODE'
_TEXT	ENDS
;	COMDAT ??1SocketEncryptOutputStream@@UAE@XZ
_TEXT	SEGMENT PARA USE32 PUBLIC 'CODE'
_TEXT	ENDS
;	COMDAT ?setEncryptCode@SocketEncryptOutputStream@@QAEXE@Z
_TEXT	SEGMENT PARA USE32 PUBLIC 'CODE'
_TEXT	ENDS
;	COMDAT ??_GSocketEncryptOutputStream@@UAEPAXI@Z
_TEXT	SEGMENT PARA USE32 PUBLIC 'CODE'
_TEXT	ENDS
;	COMDAT ?_MinTraceA@@YAXPBD@Z
_TEXT	SEGMENT PARA USE32 PUBLIC 'CODE'
_TEXT	ENDS
;	COMDAT ?_MinTraceErrA@@YAXPBD@Z
_TEXT	SEGMENT PARA USE32 PUBLIC 'CODE'
_TEXT	ENDS
;	COMDAT ?_MinTraceWarA@@YAXPBD@Z
_TEXT	SEGMENT PARA USE32 PUBLIC 'CODE'
_TEXT	ENDS
;	COMDAT ?_ClMinTraceA@@YAXKPBD@Z
_TEXT	SEGMENT PARA USE32 PUBLIC 'CODE'
_TEXT	ENDS
;	COMDAT ?_CmdMinTraceA@@YAXHPBD@Z
_TEXT	SEGMENT PARA USE32 PUBLIC 'CODE'
_TEXT	ENDS
;	COMDAT ?DEBUG_ADD@@YAXPBD@Z
_TEXT	SEGMENT PARA USE32 PUBLIC 'CODE'
_TEXT	ENDS
;	COMDAT ?DEBUG_ADD_ERR@@YAXPBD@Z
_TEXT	SEGMENT PARA USE32 PUBLIC 'CODE'
_TEXT	ENDS
;	COMDAT ?DEBUG_ADD_FORMAT@@YAXPBDZZ
_TEXT	SEGMENT PARA USE32 PUBLIC 'CODE'
_TEXT	ENDS
;	COMDAT ?DEBUG_ADD_FORMAT_ERR@@YAXPBDZZ
_TEXT	SEGMENT PARA USE32 PUBLIC 'CODE'
_TEXT	ENDS
;	COMDAT ?SetBlockAll@MSector@@QAEXXZ
_TEXT	SEGMENT PARA USE32 PUBLIC 'CODE'
_TEXT	ENDS
;	COMDAT ?UnSetBlockAll@MSector@@QAEXXZ
_TEXT	SEGMENT PARA USE32 PUBLIC 'CODE'
_TEXT	ENDS
;	COMDAT ?SetBlockUnderground@MSector@@QAEXXZ
_TEXT	SEGMENT PARA USE32 PUBLIC 'CODE'
_TEXT	ENDS
;	COMDAT ?UnSetBlockUnderground@MSector@@QAEXXZ
_TEXT	SEGMENT PARA USE32 PUBLIC 'CODE'
_TEXT	ENDS
;	COMDAT ?SetBlockGround@MSector@@QAEXXZ
_TEXT	SEGMENT PARA USE32 PUBLIC 'CODE'
_TEXT	ENDS
;	COMDAT ?UnSetBlockGround@MSector@@QAEXXZ
_TEXT	SEGMENT PARA USE32 PUBLIC 'CODE'
_TEXT	ENDS
;	COMDAT ?SetBlockFlying@MSector@@QAEXXZ
_TEXT	SEGMENT PARA USE32 PUBLIC 'CODE'
_TEXT	ENDS
;	COMDAT ?UnSetBlockFlying@MSector@@QAEXXZ
_TEXT	SEGMENT PARA USE32 PUBLIC 'CODE'
_TEXT	ENDS
;	COMDAT ?SetVisitedFlag@MSector@@QAEXXZ
_TEXT	SEGMENT PARA USE32 PUBLIC 'CODE'
_TEXT	ENDS
;	COMDAT ?UnSetVisitedFlag@MSector@@QAEXXZ
_TEXT	SEGMENT PARA USE32 PUBLIC 'CODE'
_TEXT	ENDS
;	COMDAT ?IsVisitedFlag@MSector@@QBE?B_NXZ
_TEXT	SEGMENT PARA USE32 PUBLIC 'CODE'
_TEXT	ENDS
;	COMDAT ?GetID@MZone@@QBEGXZ
_TEXT	SEGMENT PARA USE32 PUBLIC 'CODE'
_TEXT	ENDS
;	COMDAT ??0ClientPlayer@@QAE@PAVSocket@@@Z
_TEXT	SEGMENT PARA USE32 PUBLIC 'CODE'
_TEXT	ENDS
;	COMDAT ??_GClientPlayer@@UAEPAXI@Z
_TEXT	SEGMENT PARA USE32 PUBLIC 'CODE'
_TEXT	ENDS
;	COMDAT ??1ClientPlayer@@UAE@XZ
_TEXT	SEGMENT PARA USE32 PUBLIC 'CODE'
_TEXT	ENDS
;	COMDAT ?processCommand@ClientPlayer@@UAEXXZ
_TEXT	SEGMENT PARA USE32 PUBLIC 'CODE'
_TEXT	ENDS
;	COMDAT ??0InvalidProtocolException@@QAE@ABV0@@Z
_TEXT	SEGMENT PARA USE32 PUBLIC 'CODE'
_TEXT	ENDS
;	COMDAT ??0ProtocolException@@QAE@ABV0@@Z
_TEXT	SEGMENT PARA USE32 PUBLIC 'CODE'
_TEXT	ENDS
;	COMDAT ??0IOException@@QAE@ABV0@@Z
_TEXT	SEGMENT PARA USE32 PUBLIC 'CODE'
_TEXT	ENDS
;	COMDAT ??0Exception@@QAE@ABV0@@Z
_TEXT	SEGMENT PARA USE32 PUBLIC 'CODE'
_TEXT	ENDS
;	COMDAT ??0InsufficientDataException@@QAE@ABV0@@Z
_TEXT	SEGMENT PARA USE32 PUBLIC 'CODE'
_TEXT	ENDS
;	COMDAT ?disconnect@ClientPlayer@@UAEX_N@Z
_TEXT	SEGMENT PARA USE32 PUBLIC 'CODE'
_TEXT	ENDS
;	COMDAT ?getOldPacket@ClientPlayer@@QAEPAVPacket@@I@Z
_TEXT	SEGMENT PARA USE32 PUBLIC 'CODE'
_TEXT	ENDS
;	COMDAT ??0NoSuchElementException@@QAE@ABV0@@Z
_TEXT	SEGMENT PARA USE32 PUBLIC 'CODE'
_TEXT	ENDS
;	COMDAT ??0OutOfBoundException@@QAE@ABV0@@Z
_TEXT	SEGMENT PARA USE32 PUBLIC 'CODE'
_TEXT	ENDS
;	COMDAT ??0RuntimeException@@QAE@ABV0@@Z
_TEXT	SEGMENT PARA USE32 PUBLIC 'CODE'
_TEXT	ENDS
;	COMDAT ?getOldPacket@ClientPlayer@@QAEPAVPacket@@G@Z
_TEXT	SEGMENT PARA USE32 PUBLIC 'CODE'
_TEXT	ENDS
;	COMDAT ?toString@ClientPlayer@@UBE?AV?$basic_string@DV?$char_traits@D@_STL@@V?$allocator@D@2@@_STL@@XZ
_TEXT	SEGMENT PARA USE32 PUBLIC 'CODE'
_TEXT	ENDS
;	COMDAT ?setEncryptCode@ClientPlayer@@QAEXXZ
_TEXT	SEGMENT PARA USE32 PUBLIC 'CODE'
_TEXT	ENDS
;	COMDAT ?eq@?$__char_traits_base@DH@_STL@@SA_NABD0@Z
_TEXT	SEGMENT PARA USE32 PUBLIC 'CODE'
_TEXT	ENDS
;	COMDAT ?not_eof@?$__char_traits_base@DH@_STL@@SAHABH@Z
_TEXT	SEGMENT PARA USE32 PUBLIC 'CODE'
_TEXT	ENDS
;	COMDAT ?eq_int_type@?$__char_traits_base@DH@_STL@@SA_NABH0@Z
_TEXT	SEGMENT PARA USE32 PUBLIC 'CODE'
_TEXT	ENDS
;	COMDAT ?get_allocator@?$basic_string@DV?$char_traits@D@_STL@@V?$allocator@D@2@@_STL@@QBE?AV?$allocator@D@2@XZ
_TEXT	SEGMENT PARA USE32 PUBLIC 'CODE'
_TEXT	ENDS
;	COMDAT ??4?$basic_string@DV?$char_traits@D@_STL@@V?$allocator@D@2@@_STL@@QAEAAV01@PBD@Z
_TEXT	SEGMENT PARA USE32 PUBLIC 'CODE'
_TEXT	ENDS
;	COMDAT ?_M_terminate_string@?$basic_string@DV?$char_traits@D@_STL@@V?$allocator@D@2@@_STL@@AAEXXZ
_TEXT	SEGMENT PARA USE32 PUBLIC 'CODE'
_TEXT	ENDS
;	COMDAT ?size@?$basic_string@DV?$char_traits@D@_STL@@V?$allocator@D@2@@_STL@@QBEIXZ
_TEXT	SEGMENT PARA USE32 PUBLIC 'CODE'
_TEXT	ENDS
;	COMDAT ?c_str@?$basic_string@DV?$char_traits@D@_STL@@V?$allocator@D@2@@_STL@@QBEPBDXZ
_TEXT	SEGMENT PARA USE32 PUBLIC 'CODE'
_TEXT	ENDS
;	COMDAT ??0?$_String_base@DV?$allocator@D@_STL@@@_STL@@QAE@ABV?$allocator@D@1@@Z
_TEXT	SEGMENT PARA USE32 PUBLIC 'CODE'
_TEXT	ENDS
;	COMDAT ?allocate@?$allocator@D@_STL@@QAEPADIPBX@Z
_TEXT	SEGMENT PARA USE32 PUBLIC 'CODE'
_TEXT	ENDS
;	COMDAT ??0?$fpos@H@_STL@@QAE@J@Z
_TEXT	SEGMENT PARA USE32 PUBLIC 'CODE'
_TEXT	ENDS
;	COMDAT ??B?$fpos@H@_STL@@QBEJXZ
_TEXT	SEGMENT PARA USE32 PUBLIC 'CODE'
_TEXT	ENDS
;	COMDAT ?state@?$fpos@H@_STL@@QBEHXZ
_TEXT	SEGMENT PARA USE32 PUBLIC 'CODE'
_TEXT	ENDS
;	COMDAT ?is_open@?$basic_filebuf@DV?$char_traits@D@_STL@@@_STL@@QBE_NXZ
_TEXT	SEGMENT PARA USE32 PUBLIC 'CODE'
_TEXT	ENDS
;	COMDAT ?_M_seek_return@?$basic_filebuf@DV?$char_traits@D@_STL@@@_STL@@AAE?AV?$fpos@H@2@JH@Z
_TEXT	SEGMENT PARA USE32 PUBLIC 'CODE'
_TEXT	ENDS
;	COMDAT ??0?$list@V?$basic_string@DV?$char_traits@D@_STL@@V?$allocator@D@2@@_STL@@V?$allocator@V?$basic_string@DV?$char_traits@D@_STL@@V?$allocator@D@2@@_STL@@@2@@_STL@@QAE@ABV01@@Z
_TEXT	SEGMENT PARA USE32 PUBLIC 'CODE'
_TEXT	ENDS
;	COMDAT ??0?$_Filebuf_Tmp_Buf@D@_STL@@QAE@H@Z
_TEXT	SEGMENT PARA USE32 PUBLIC 'CODE'
_TEXT	ENDS
;	COMDAT ??1?$_Filebuf_Tmp_Buf@D@_STL@@QAE@XZ
_TEXT	SEGMENT PARA USE32 PUBLIC 'CODE'
_TEXT	ENDS
;	COMDAT ?rbegin@?$deque@PAVPacket@@V?$allocator@PAVPacket@@@_STL@@@_STL@@QAE?AV?$reverse_iterator@U?$_Deque_iterator@PAVPacket@@U?$_Nonconst_traits@PAVPacket@@@_STL@@@_STL@@@2@XZ
_TEXT	SEGMENT PARA USE32 PUBLIC 'CODE'
_TEXT	ENDS
;	COMDAT ?rend@?$deque@PAVPacket@@V?$allocator@PAVPacket@@@_STL@@@_STL@@QAE?AV?$reverse_iterator@U?$_Deque_iterator@PAVPacket@@U?$_Nonconst_traits@PAVPacket@@@_STL@@@_STL@@@2@XZ
_TEXT	SEGMENT PARA USE32 PUBLIC 'CODE'
_TEXT	ENDS
;	COMDAT ??A?$deque@PAVPacket@@V?$allocator@PAVPacket@@@_STL@@@_STL@@QAEAAPAVPacket@@I@Z
_TEXT	SEGMENT PARA USE32 PUBLIC 'CODE'
_TEXT	ENDS
;	COMDAT ?front@?$deque@PAVPacket@@V?$allocator@PAVPacket@@@_STL@@@_STL@@QAEAAPAVPacket@@XZ
_TEXT	SEGMENT PARA USE32 PUBLIC 'CODE'
_TEXT	ENDS
;	COMDAT ?size@?$deque@PAVPacket@@V?$allocator@PAVPacket@@@_STL@@@_STL@@QBEIXZ
_TEXT	SEGMENT PARA USE32 PUBLIC 'CODE'
_TEXT	ENDS
;	COMDAT ?empty@?$deque@PAVPacket@@V?$allocator@PAVPacket@@@_STL@@@_STL@@QBE_NXZ
_TEXT	SEGMENT PARA USE32 PUBLIC 'CODE'
_TEXT	ENDS
;	COMDAT ??0?$deque@PAVPacket@@V?$allocator@PAVPacket@@@_STL@@@_STL@@QAE@ABV?$allocator@PAVPacket@@@1@@Z
_TEXT	SEGMENT PARA USE32 PUBLIC 'CODE'
_TEXT	ENDS
;	COMDAT ??1?$deque@PAVPacket@@V?$allocator@PAVPacket@@@_STL@@@_STL@@QAE@XZ
_TEXT	SEGMENT PARA USE32 PUBLIC 'CODE'
_TEXT	ENDS
;	COMDAT ?push_back@?$deque@PAVPacket@@V?$allocator@PAVPacket@@@_STL@@@_STL@@QAEXABQAVPacket@@@Z
_TEXT	SEGMENT PARA USE32 PUBLIC 'CODE'
_TEXT	ENDS
;	COMDAT ?pop_front@?$deque@PAVPacket@@V?$allocator@PAVPacket@@@_STL@@@_STL@@QAEXXZ
_TEXT	SEGMENT PARA USE32 PUBLIC 'CODE'
_TEXT	ENDS
;	COMDAT ??0?$allocator@PAVPacket@@@_STL@@QAE@XZ
_TEXT	SEGMENT PARA USE32 PUBLIC 'CODE'
_TEXT	ENDS
;	COMDAT ??1?$allocator@PAVPacket@@@_STL@@QAE@XZ
_TEXT	SEGMENT PARA USE32 PUBLIC 'CODE'
_TEXT	ENDS
;	COMDAT ?end@?$map@EPAVMObject@@U?$less@E@_STL@@V?$allocator@U?$pair@$$CBEPAVMObject@@@_STL@@@3@@_STL@@QAE?AU?$_Rb_tree_iterator@U?$pair@$$CBEPAVMObject@@@_STL@@U?$_Nonconst_traits@U?$pair@$$CBEPAVMObject@@@_STL@@@2@@2@XZ
_TEXT	SEGMENT PARA USE32 PUBLIC 'CODE'
_TEXT	ENDS
;	COMDAT ?end@?$map@EPAVMObject@@U?$less@E@_STL@@V?$allocator@U?$pair@$$CBEPAVMObject@@@_STL@@@3@@_STL@@QBE?AU?$_Rb_tree_iterator@U?$pair@$$CBEPAVMObject@@@_STL@@U?$_Const_traits@U?$pair@$$CBEPAVMObject@@@_STL@@@2@@2@XZ
_TEXT	SEGMENT PARA USE32 PUBLIC 'CODE'
_TEXT	ENDS
;	COMDAT ?empty@?$map@EPAVMObject@@U?$less@E@_STL@@V?$allocator@U?$pair@$$CBEPAVMObject@@@_STL@@@3@@_STL@@QBE_NXZ
_TEXT	SEGMENT PARA USE32 PUBLIC 'CODE'
_TEXT	ENDS
;	COMDAT ?begin@?$list@PAVMEffect@@V?$allocator@PAVMEffect@@@_STL@@@_STL@@QBE?AU?$_List_iterator@PAVMEffect@@U?$_Const_traits@PAVMEffect@@@_STL@@@2@XZ
_TEXT	SEGMENT PARA USE32 PUBLIC 'CODE'
_TEXT	ENDS
;	COMDAT ?empty@?$list@PAVMEffect@@V?$allocator@PAVMEffect@@@_STL@@@_STL@@QBE_NXZ
_TEXT	SEGMENT PARA USE32 PUBLIC 'CODE'
_TEXT	ENDS
;	COMDAT ?size@?$list@PAVMEffect@@V?$allocator@PAVMEffect@@@_STL@@@_STL@@QBEIXZ
_TEXT	SEGMENT PARA USE32 PUBLIC 'CODE'
_TEXT	ENDS
;	COMDAT ?begin@?$list@VPORTAL_INFO@@V?$allocator@VPORTAL_INFO@@@_STL@@@_STL@@QBE?AU?$_List_iterator@VPORTAL_INFO@@U?$_Const_traits@VPORTAL_INFO@@@_STL@@@2@XZ
_TEXT	SEGMENT PARA USE32 PUBLIC 'CODE'
_TEXT	ENDS
;	COMDAT ?size@?$list@VPORTAL_INFO@@V?$allocator@VPORTAL_INFO@@@_STL@@@_STL@@QBEIXZ
_TEXT	SEGMENT PARA USE32 PUBLIC 'CODE'
_TEXT	ENDS
;	COMDAT ?begin@?$list@VSECTORSOUND_INFO@@V?$allocator@VSECTORSOUND_INFO@@@_STL@@@_STL@@QBE?AU?$_List_iterator@VSECTORSOUND_INFO@@U?$_Const_traits@VSECTORSOUND_INFO@@@_STL@@@2@XZ
_TEXT	SEGMENT PARA USE32 PUBLIC 'CODE'
_TEXT	ENDS
;	COMDAT ?size@?$list@VSECTORSOUND_INFO@@V?$allocator@VSECTORSOUND_INFO@@@_STL@@@_STL@@QBEIXZ
_TEXT	SEGMENT PARA USE32 PUBLIC 'CODE'
_TEXT	ENDS
;	COMDAT ?begin@?$map@IPAVMCreature@@U?$less@I@_STL@@V?$allocator@U?$pair@$$CBIPAVMCreature@@@_STL@@@3@@_STL@@QAE?AU?$_Rb_tree_iterator@U?$pair@$$CBIPAVMCreature@@@_STL@@U?$_Nonconst_traits@U?$pair@$$CBIPAVMCreature@@@_STL@@@2@@2@XZ
_TEXT	SEGMENT PARA USE32 PUBLIC 'CODE'
_TEXT	ENDS
;	COMDAT ?size@?$map@IPAVMCreature@@U?$less@I@_STL@@V?$allocator@U?$pair@$$CBIPAVMCreature@@@_STL@@@3@@_STL@@QBEIXZ
_TEXT	SEGMENT PARA USE32 PUBLIC 'CODE'
_TEXT	ENDS
;	COMDAT ?begin@?$map@IPAVMItem@@U?$less@I@_STL@@V?$allocator@U?$pair@$$CBIPAVMItem@@@_STL@@@3@@_STL@@QAE?AU?$_Rb_tree_iterator@U?$pair@$$CBIPAVMItem@@@_STL@@U?$_Nonconst_traits@U?$pair@$$CBIPAVMItem@@@_STL@@@2@@2@XZ
_TEXT	SEGMENT PARA USE32 PUBLIC 'CODE'
_TEXT	ENDS
;	COMDAT ?size@?$map@IPAVMItem@@U?$less@I@_STL@@V?$allocator@U?$pair@$$CBIPAVMItem@@@_STL@@@3@@_STL@@QBEIXZ
_TEXT	SEGMENT PARA USE32 PUBLIC 'CODE'
_TEXT	ENDS
;	COMDAT ?begin@?$map@IPAVMEffect@@U?$less@I@_STL@@V?$allocator@U?$pair@$$CBIPAVMEffect@@@_STL@@@3@@_STL@@QAE?AU?$_Rb_tree_iterator@U?$pair@$$CBIPAVMEffect@@@_STL@@U?$_Nonconst_traits@U?$pair@$$CBIPAVMEffect@@@_STL@@@2@@2@XZ
_TEXT	SEGMENT PARA USE32 PUBLIC 'CODE'
_TEXT	ENDS
;	COMDAT ?end@?$map@IPAVMEffect@@U?$less@I@_STL@@V?$allocator@U?$pair@$$CBIPAVMEffect@@@_STL@@@3@@_STL@@QAE?AU?$_Rb_tree_iterator@U?$pair@$$CBIPAVMEffect@@@_STL@@U?$_Nonconst_traits@U?$pair@$$CBIPAVMEffect@@@_STL@@@2@@2@XZ
_TEXT	SEGMENT PARA USE32 PUBLIC 'CODE'
_TEXT	ENDS
;	COMDAT ?size@?$map@IPAVMEffect@@U?$less@I@_STL@@V?$allocator@U?$pair@$$CBIPAVMEffect@@@_STL@@@3@@_STL@@QBEIXZ
_TEXT	SEGMENT PARA USE32 PUBLIC 'CODE'
_TEXT	ENDS
;	COMDAT ??0?$_Rb_tree_iterator@U?$pair@$$CBIPAVMCreature@@@_STL@@U?$_Const_traits@U?$pair@$$CBIPAVMCreature@@@_STL@@@2@@_STL@@QAE@ABU?$_Rb_tree_iterator@U?$pair@$$CBIPAVMCreature@@@_STL@@U?$_Nonconst_traits@U?$pair@$$CBIPAVMCreature@@@_STL@@@2@@1@@Z
_TEXT	SEGMENT PARA USE32 PUBLIC 'CODE'
_TEXT	ENDS
;	COMDAT ??0?$_Rb_tree_iterator@U?$pair@$$CBIPAVMItem@@@_STL@@U?$_Const_traits@U?$pair@$$CBIPAVMItem@@@_STL@@@2@@_STL@@QAE@ABU?$_Rb_tree_iterator@U?$pair@$$CBIPAVMItem@@@_STL@@U?$_Nonconst_traits@U?$pair@$$CBIPAVMItem@@@_STL@@@2@@1@@Z
_TEXT	SEGMENT PARA USE32 PUBLIC 'CODE'
_TEXT	ENDS
;	COMDAT ??0?$_Rb_tree_iterator@U?$pair@$$CBIPAVMEffect@@@_STL@@U?$_Const_traits@U?$pair@$$CBIPAVMEffect@@@_STL@@@2@@_STL@@QAE@ABU?$_Rb_tree_iterator@U?$pair@$$CBIPAVMEffect@@@_STL@@U?$_Nonconst_traits@U?$pair@$$CBIPAVMEffect@@@_STL@@@2@@1@@Z
_TEXT	SEGMENT PARA USE32 PUBLIC 'CODE'
_TEXT	ENDS
;	COMDAT ??D?$reverse_iterator@U?$_Deque_iterator@PAVPacket@@U?$_Nonconst_traits@PAVPacket@@@_STL@@@_STL@@@_STL@@QBEAAPAVPacket@@XZ
_TEXT	SEGMENT PARA USE32 PUBLIC 'CODE'
_TEXT	ENDS
;	COMDAT ??E?$reverse_iterator@U?$_Deque_iterator@PAVPacket@@U?$_Nonconst_traits@PAVPacket@@@_STL@@@_STL@@@_STL@@QAE?AV01@H@Z
_TEXT	SEGMENT PARA USE32 PUBLIC 'CODE'
_TEXT	ENDS
;	COMDAT ?_M_terminate_string_aux@?$basic_string@DV?$char_traits@D@_STL@@V?$allocator@D@2@@_STL@@AAEXABU__true_type@2@@Z
_TEXT	SEGMENT PARA USE32 PUBLIC 'CODE'
_TEXT	ENDS
;	COMDAT ?assign@?$basic_string@DV?$char_traits@D@_STL@@V?$allocator@D@2@@_STL@@QAEAAV12@PBD0@Z
_TEXT	SEGMENT PARA USE32 PUBLIC 'CODE'
_TEXT	ENDS
;	COMDAT ??0?$allocator@D@_STL@@QAE@ABV01@@Z
_TEXT	SEGMENT PARA USE32 PUBLIC 'CODE'
_TEXT	ENDS
;	COMDAT ??0?$_STLP_alloc_proxy@PADDV?$allocator@D@_STL@@@_STL@@QAE@ABV?$allocator@D@1@PAD@Z
_TEXT	SEGMENT PARA USE32 PUBLIC 'CODE'
_TEXT	ENDS
;	COMDAT ?state@?$fpos@H@_STL@@QAEXH@Z
_TEXT	SEGMENT PARA USE32 PUBLIC 'CODE'
_TEXT	ENDS
;	COMDAT ?get_allocator@?$_List_base@V?$basic_string@DV?$char_traits@D@_STL@@V?$allocator@D@2@@_STL@@V?$allocator@V?$basic_string@DV?$char_traits@D@_STL@@V?$allocator@D@2@@_STL@@@2@@_STL@@QBE?AV?$allocator@V?$basic_string@DV?$char_traits@D@_STL@@V?$allocator@D@2@@_STL@@@2@XZ
_TEXT	SEGMENT PARA USE32 PUBLIC 'CODE'
_TEXT	ENDS
;	COMDAT ??0?$_Deque_base@PAVPacket@@V?$allocator@PAVPacket@@@_STL@@@_STL@@QAE@ABV?$allocator@PAVPacket@@@1@I@Z
_TEXT	SEGMENT PARA USE32 PUBLIC 'CODE'
_TEXT	ENDS
;	COMDAT ??0?$_Deque_iterator@PAVPacket@@U?$_Nonconst_traits@PAVPacket@@@_STL@@@_STL@@QAE@ABU01@@Z
_TEXT	SEGMENT PARA USE32 PUBLIC 'CODE'
_TEXT	ENDS
;	COMDAT ??D?$_Deque_iterator@PAVPacket@@U?$_Nonconst_traits@PAVPacket@@@_STL@@@_STL@@QBEAAPAVPacket@@XZ
_TEXT	SEGMENT PARA USE32 PUBLIC 'CODE'
_TEXT	ENDS
;	COMDAT ??G?$_Deque_iterator@PAVPacket@@U?$_Nonconst_traits@PAVPacket@@@_STL@@@_STL@@QBEHABU01@@Z
_TEXT	SEGMENT PARA USE32 PUBLIC 'CODE'
_TEXT	ENDS
;	COMDAT ??F?$_Deque_iterator@PAVPacket@@U?$_Nonconst_traits@PAVPacket@@@_STL@@@_STL@@QAEAAU01@XZ
_TEXT	SEGMENT PARA USE32 PUBLIC 'CODE'
_TEXT	ENDS
;	COMDAT ??A?$_Deque_iterator@PAVPacket@@U?$_Nonconst_traits@PAVPacket@@@_STL@@@_STL@@QBEAAPAVPacket@@H@Z
_TEXT	SEGMENT PARA USE32 PUBLIC 'CODE'
_TEXT	ENDS
;	COMDAT ?end@?$_Rb_tree@EU?$pair@$$CBEPAVMObject@@@_STL@@U?$_Select1st@U?$pair@$$CBEPAVMObject@@@_STL@@@2@U?$less@E@2@V?$allocator@U?$pair@$$CBEPAVMObject@@@_STL@@@2@@_STL@@QAE?AU?$_Rb_tree_iterator@U?$pair@$$CBEPAVMObject@@@_STL@@U?$_Nonconst_traits@U?$pair@$$CBEPAVMObject@@@_STL@@@2@@2@XZ
_TEXT	SEGMENT PARA USE32 PUBLIC 'CODE'
_TEXT	ENDS
;	COMDAT ?end@?$_Rb_tree@EU?$pair@$$CBEPAVMObject@@@_STL@@U?$_Select1st@U?$pair@$$CBEPAVMObject@@@_STL@@@2@U?$less@E@2@V?$allocator@U?$pair@$$CBEPAVMObject@@@_STL@@@2@@_STL@@QBE?AU?$_Rb_tree_iterator@U?$pair@$$CBEPAVMObject@@@_STL@@U?$_Const_traits@U?$pair@$$CBEPAVMObject@@@_STL@@@2@@2@XZ
_TEXT	SEGMENT PARA USE32 PUBLIC 'CODE'
_TEXT	ENDS
;	COMDAT ?empty@?$_Rb_tree@EU?$pair@$$CBEPAVMObject@@@_STL@@U?$_Select1st@U?$pair@$$CBEPAVMObject@@@_STL@@@2@U?$less@E@2@V?$allocator@U?$pair@$$CBEPAVMObject@@@_STL@@@2@@_STL@@QBE_NXZ
_TEXT	SEGMENT PARA USE32 PUBLIC 'CODE'
_TEXT	ENDS
;	COMDAT ?end@?$list@PAVMEffect@@V?$allocator@PAVMEffect@@@_STL@@@_STL@@QBE?AU?$_List_iterator@PAVMEffect@@U?$_Const_traits@PAVMEffect@@@_STL@@@2@XZ
_TEXT	SEGMENT PARA USE32 PUBLIC 'CODE'
_TEXT	ENDS
;	COMDAT ?end@?$list@VPORTAL_INFO@@V?$allocator@VPORTAL_INFO@@@_STL@@@_STL@@QBE?AU?$_List_iterator@VPORTAL_INFO@@U?$_Const_traits@VPORTAL_INFO@@@_STL@@@2@XZ
_TEXT	SEGMENT PARA USE32 PUBLIC 'CODE'
_TEXT	ENDS
;	COMDAT ?end@?$list@VSECTORSOUND_INFO@@V?$allocator@VSECTORSOUND_INFO@@@_STL@@@_STL@@QBE?AU?$_List_iterator@VSECTORSOUND_INFO@@U?$_Const_traits@VSECTORSOUND_INFO@@@_STL@@@2@XZ
_TEXT	SEGMENT PARA USE32 PUBLIC 'CODE'
_TEXT	ENDS
;	COMDAT ??0?$_List_iterator@PAVMEffect@@U?$_Const_traits@PAVMEffect@@@_STL@@@_STL@@QAE@PAU?$_List_node@PAVMEffect@@@1@@Z
_TEXT	SEGMENT PARA USE32 PUBLIC 'CODE'
_TEXT	ENDS
;	COMDAT ??0?$_List_iterator@VPORTAL_INFO@@U?$_Const_traits@VPORTAL_INFO@@@_STL@@@_STL@@QAE@PAU?$_List_node@VPORTAL_INFO@@@1@@Z
_TEXT	SEGMENT PARA USE32 PUBLIC 'CODE'
_TEXT	ENDS
;	COMDAT ??0?$_List_iterator@VSECTORSOUND_INFO@@U?$_Const_traits@VSECTORSOUND_INFO@@@_STL@@@_STL@@QAE@PAU?$_List_node@VSECTORSOUND_INFO@@@1@@Z
_TEXT	SEGMENT PARA USE32 PUBLIC 'CODE'
_TEXT	ENDS
;	COMDAT ?begin@?$_Rb_tree@IU?$pair@$$CBIPAVMCreature@@@_STL@@U?$_Select1st@U?$pair@$$CBIPAVMCreature@@@_STL@@@2@U?$less@I@2@V?$allocator@U?$pair@$$CBIPAVMCreature@@@_STL@@@2@@_STL@@QAE?AU?$_Rb_tree_iterator@U?$pair@$$CBIPAVMCreature@@@_STL@@U?$_Nonconst_traits@U?$pair@$$CBIPAVMCreature@@@_STL@@@2@@2@XZ
_TEXT	SEGMENT PARA USE32 PUBLIC 'CODE'
_TEXT	ENDS
;	COMDAT ?size@?$_Rb_tree@IU?$pair@$$CBIPAVMCreature@@@_STL@@U?$_Select1st@U?$pair@$$CBIPAVMCreature@@@_STL@@@2@U?$less@I@2@V?$allocator@U?$pair@$$CBIPAVMCreature@@@_STL@@@2@@_STL@@QBEIXZ
_TEXT	SEGMENT PARA USE32 PUBLIC 'CODE'
_TEXT	ENDS
;	COMDAT ?begin@?$_Rb_tree@IU?$pair@$$CBIPAVMItem@@@_STL@@U?$_Select1st@U?$pair@$$CBIPAVMItem@@@_STL@@@2@U?$less@I@2@V?$allocator@U?$pair@$$CBIPAVMItem@@@_STL@@@2@@_STL@@QAE?AU?$_Rb_tree_iterator@U?$pair@$$CBIPAVMItem@@@_STL@@U?$_Nonconst_traits@U?$pair@$$CBIPAVMItem@@@_STL@@@2@@2@XZ
_TEXT	SEGMENT PARA USE32 PUBLIC 'CODE'
_TEXT	ENDS
;	COMDAT ?size@?$_Rb_tree@IU?$pair@$$CBIPAVMItem@@@_STL@@U?$_Select1st@U?$pair@$$CBIPAVMItem@@@_STL@@@2@U?$less@I@2@V?$allocator@U?$pair@$$CBIPAVMItem@@@_STL@@@2@@_STL@@QBEIXZ
_TEXT	SEGMENT PARA USE32 PUBLIC 'CODE'
_TEXT	ENDS
;	COMDAT ?begin@?$_Rb_tree@IU?$pair@$$CBIPAVMEffect@@@_STL@@U?$_Select1st@U?$pair@$$CBIPAVMEffect@@@_STL@@@2@U?$less@I@2@V?$allocator@U?$pair@$$CBIPAVMEffect@@@_STL@@@2@@_STL@@QAE?AU?$_Rb_tree_iterator@U?$pair@$$CBIPAVMEffect@@@_STL@@U?$_Nonconst_traits@U?$pair@$$CBIPAVMEffect@@@_STL@@@2@@2@XZ
_TEXT	SEGMENT PARA USE32 PUBLIC 'CODE'
_TEXT	ENDS
;	COMDAT ?end@?$_Rb_tree@IU?$pair@$$CBIPAVMEffect@@@_STL@@U?$_Select1st@U?$pair@$$CBIPAVMEffect@@@_STL@@@2@U?$less@I@2@V?$allocator@U?$pair@$$CBIPAVMEffect@@@_STL@@@2@@_STL@@QAE?AU?$_Rb_tree_iterator@U?$pair@$$CBIPAVMEffect@@@_STL@@U?$_Nonconst_traits@U?$pair@$$CBIPAVMEffect@@@_STL@@@2@@2@XZ
_TEXT	SEGMENT PARA USE32 PUBLIC 'CODE'
_TEXT	ENDS
;	COMDAT ?size@?$_Rb_tree@IU?$pair@$$CBIPAVMEffect@@@_STL@@U?$_Select1st@U?$pair@$$CBIPAVMEffect@@@_STL@@@2@U?$less@I@2@V?$allocator@U?$pair@$$CBIPAVMEffect@@@_STL@@@2@@_STL@@QBEIXZ
_TEXT	SEGMENT PARA USE32 PUBLIC 'CODE'
_TEXT	ENDS
;	COMDAT ??0?$reverse_iterator@U?$_Deque_iterator@PAVPacket@@U?$_Nonconst_traits@PAVPacket@@@_STL@@@_STL@@@_STL@@QAE@U?$_Deque_iterator@PAVPacket@@U?$_Nonconst_traits@PAVPacket@@@_STL@@@1@@Z
_TEXT	SEGMENT PARA USE32 PUBLIC 'CODE'
_TEXT	ENDS
;	COMDAT ??0?$reverse_iterator@U?$_Deque_iterator@PAVPacket@@U?$_Nonconst_traits@PAVPacket@@@_STL@@@_STL@@@_STL@@QAE@ABV01@@Z
_TEXT	SEGMENT PARA USE32 PUBLIC 'CODE'
_TEXT	ENDS
;	COMDAT ??1?$_STLP_alloc_proxy@PAPAPAVPacket@@PAPAV1@V?$allocator@PAPAVPacket@@@_STL@@@_STL@@QAE@XZ
_TEXT	SEGMENT PARA USE32 PUBLIC 'CODE'
_TEXT	ENDS
;	COMDAT ??1?$_STLP_alloc_proxy@IPAVPacket@@V?$allocator@PAVPacket@@@_STL@@@_STL@@QAE@XZ
_TEXT	SEGMENT PARA USE32 PUBLIC 'CODE'
_TEXT	ENDS
;	COMDAT ?copy@?$__char_traits_base@DH@_STL@@SAPADPADPBDI@Z
_TEXT	SEGMENT PARA USE32 PUBLIC 'CODE'
_TEXT	ENDS
;	COMDAT ?begin@?$basic_string@DV?$char_traits@D@_STL@@V?$allocator@D@2@@_STL@@QAEPADXZ
_TEXT	SEGMENT PARA USE32 PUBLIC 'CODE'
_TEXT	ENDS
;	COMDAT ?end@?$basic_string@DV?$char_traits@D@_STL@@V?$allocator@D@2@@_STL@@QAEPADXZ
_TEXT	SEGMENT PARA USE32 PUBLIC 'CODE'
_TEXT	ENDS
;	COMDAT ?erase@?$basic_string@DV?$char_traits@D@_STL@@V?$allocator@D@2@@_STL@@QAEPADPAD0@Z
_TEXT	SEGMENT PARA USE32 PUBLIC 'CODE'
_TEXT	ENDS
;	COMDAT ??0?$_Deque_iterator@PAVPacket@@U?$_Nonconst_traits@PAVPacket@@@_STL@@@_STL@@QAE@XZ
_TEXT	SEGMENT PARA USE32 PUBLIC 'CODE'
_TEXT	ENDS
;	COMDAT ??H?$_Deque_iterator@PAVPacket@@U?$_Nonconst_traits@PAVPacket@@@_STL@@@_STL@@QBE?AU01@H@Z
_TEXT	SEGMENT PARA USE32 PUBLIC 'CODE'
_TEXT	ENDS
;	COMDAT ?_M_subtract@?$_Deque_iterator_base@PAVPacket@@@_STL@@QBEHABU12@@Z
_TEXT	SEGMENT PARA USE32 PUBLIC 'CODE'
_TEXT	ENDS
;	COMDAT ?_M_decrement@?$_Deque_iterator_base@PAVPacket@@@_STL@@QAEXXZ
_TEXT	SEGMENT PARA USE32 PUBLIC 'CODE'
_TEXT	ENDS
;	COMDAT ??0?$_STLP_alloc_proxy@PAPAPAVPacket@@PAPAV1@V?$allocator@PAPAVPacket@@@_STL@@@_STL@@QAE@ABV?$allocator@PAPAVPacket@@@1@PAPAPAVPacket@@@Z
_TEXT	SEGMENT PARA USE32 PUBLIC 'CODE'
_TEXT	ENDS
;	COMDAT ??1?$allocator@PAPAVPacket@@@_STL@@QAE@XZ
_TEXT	SEGMENT PARA USE32 PUBLIC 'CODE'
_TEXT	ENDS
;	COMDAT ??0?$_STLP_alloc_proxy@IPAVPacket@@V?$allocator@PAVPacket@@@_STL@@@_STL@@QAE@ABV?$allocator@PAVPacket@@@1@I@Z
_TEXT	SEGMENT PARA USE32 PUBLIC 'CODE'
_TEXT	ENDS
;	COMDAT ??0?$_Rb_tree_iterator@U?$pair@$$CBEPAVMObject@@@_STL@@U?$_Nonconst_traits@U?$pair@$$CBEPAVMObject@@@_STL@@@2@@_STL@@QAE@PAU?$_Rb_tree_node@U?$pair@$$CBEPAVMObject@@@_STL@@@1@@Z
_TEXT	SEGMENT PARA USE32 PUBLIC 'CODE'
_TEXT	ENDS
;	COMDAT ??0?$_Rb_tree_iterator@U?$pair@$$CBEPAVMObject@@@_STL@@U?$_Const_traits@U?$pair@$$CBEPAVMObject@@@_STL@@@2@@_STL@@QAE@PAU?$_Rb_tree_node@U?$pair@$$CBEPAVMObject@@@_STL@@@1@@Z
_TEXT	SEGMENT PARA USE32 PUBLIC 'CODE'
_TEXT	ENDS
;	COMDAT ?_M_leftmost@?$_Rb_tree@IU?$pair@$$CBIPAVMCreature@@@_STL@@U?$_Select1st@U?$pair@$$CBIPAVMCreature@@@_STL@@@2@U?$less@I@2@V?$allocator@U?$pair@$$CBIPAVMCreature@@@_STL@@@2@@_STL@@IBEAAPAU?$_Rb_tree_node@U?$pair@$$CBIPAVMCreature@@@_STL@@@2@XZ
_TEXT	SEGMENT PARA USE32 PUBLIC 'CODE'
_TEXT	ENDS
;	COMDAT ?_M_leftmost@?$_Rb_tree@IU?$pair@$$CBIPAVMItem@@@_STL@@U?$_Select1st@U?$pair@$$CBIPAVMItem@@@_STL@@@2@U?$less@I@2@V?$allocator@U?$pair@$$CBIPAVMItem@@@_STL@@@2@@_STL@@IBEAAPAU?$_Rb_tree_node@U?$pair@$$CBIPAVMItem@@@_STL@@@2@XZ
_TEXT	SEGMENT PARA USE32 PUBLIC 'CODE'
_TEXT	ENDS
;	COMDAT ?_M_leftmost@?$_Rb_tree@IU?$pair@$$CBIPAVMEffect@@@_STL@@U?$_Select1st@U?$pair@$$CBIPAVMEffect@@@_STL@@@2@U?$less@I@2@V?$allocator@U?$pair@$$CBIPAVMEffect@@@_STL@@@2@@_STL@@IBEAAPAU?$_Rb_tree_node@U?$pair@$$CBIPAVMEffect@@@_STL@@@2@XZ
_TEXT	SEGMENT PARA USE32 PUBLIC 'CODE'
_TEXT	ENDS
;	COMDAT ??0?$_Rb_tree_iterator@U?$pair@$$CBIPAVMCreature@@@_STL@@U?$_Nonconst_traits@U?$pair@$$CBIPAVMCreature@@@_STL@@@2@@_STL@@QAE@PAU?$_Rb_tree_node@U?$pair@$$CBIPAVMCreature@@@_STL@@@1@@Z
_TEXT	SEGMENT PARA USE32 PUBLIC 'CODE'
_TEXT	ENDS
;	COMDAT ??0?$_Rb_tree_iterator@U?$pair@$$CBIPAVMItem@@@_STL@@U?$_Nonconst_traits@U?$pair@$$CBIPAVMItem@@@_STL@@@2@@_STL@@QAE@PAU?$_Rb_tree_node@U?$pair@$$CBIPAVMItem@@@_STL@@@1@@Z
_TEXT	SEGMENT PARA USE32 PUBLIC 'CODE'
_TEXT	ENDS
;	COMDAT ??0?$_Rb_tree_iterator@U?$pair@$$CBIPAVMEffect@@@_STL@@U?$_Nonconst_traits@U?$pair@$$CBIPAVMEffect@@@_STL@@@2@@_STL@@QAE@PAU?$_Rb_tree_node@U?$pair@$$CBIPAVMEffect@@@_STL@@@1@@Z
_TEXT	SEGMENT PARA USE32 PUBLIC 'CODE'
_TEXT	ENDS
;	COMDAT ?move@?$__char_traits_base@DH@_STL@@SAPADPADPBDI@Z
_TEXT	SEGMENT PARA USE32 PUBLIC 'CODE'
_TEXT	ENDS
;	COMDAT ??0?$allocator@PAVPacket@@@_STL@@QAE@ABV01@@Z
_TEXT	SEGMENT PARA USE32 PUBLIC 'CODE'
_TEXT	ENDS
;	COMDAT ??Y?$_Deque_iterator@PAVPacket@@U?$_Nonconst_traits@PAVPacket@@@_STL@@@_STL@@QAEAAU01@H@Z
_TEXT	SEGMENT PARA USE32 PUBLIC 'CODE'
_TEXT	ENDS
;	COMDAT ??0?$_Deque_iterator_base@PAVPacket@@@_STL@@QAE@XZ
_TEXT	SEGMENT PARA USE32 PUBLIC 'CODE'
_TEXT	ENDS
;	COMDAT ?_M_set_node@?$_Deque_iterator_base@PAVPacket@@@_STL@@QAEXPAPAPAVPacket@@@Z
_TEXT	SEGMENT PARA USE32 PUBLIC 'CODE'
_TEXT	ENDS
;	COMDAT ??0?$allocator@PAPAVPacket@@@_STL@@QAE@ABV01@@Z
_TEXT	SEGMENT PARA USE32 PUBLIC 'CODE'
_TEXT	ENDS
;	COMDAT ?_M_advance@?$_Deque_iterator_base@PAVPacket@@@_STL@@QAEXH@Z
_TEXT	SEGMENT PARA USE32 PUBLIC 'CODE'
_TEXT	ENDS
;	COMDAT ??$_M_range_initialize@PBD@?$basic_string@DV?$char_traits@D@_STL@@V?$allocator@D@2@@_STL@@AAEXPBD0@Z
_TEXT	SEGMENT PARA USE32 PUBLIC 'CODE'
_TEXT	ENDS
;	COMDAT ??$_M_range_initialize@PAD@?$basic_string@DV?$char_traits@D@_STL@@V?$allocator@D@2@@_STL@@AAEXPAD0@Z
_TEXT	SEGMENT PARA USE32 PUBLIC 'CODE'
_TEXT	ENDS
;	COMDAT ?close@?$basic_filebuf@DV?$char_traits@D@_STL@@@_STL@@QAEPAV12@XZ
_TEXT	SEGMENT PARA USE32 PUBLIC 'CODE'
_TEXT	ENDS
;	COMDAT ?_M_exit_input_mode@?$basic_filebuf@DV?$char_traits@D@_STL@@@_STL@@AAEXXZ
_TEXT	SEGMENT PARA USE32 PUBLIC 'CODE'
_TEXT	ENDS
;	COMDAT ?_M_switch_to_output_mode@?$basic_filebuf@DV?$char_traits@D@_STL@@@_STL@@AAE_NXZ
_TEXT	SEGMENT PARA USE32 PUBLIC 'CODE'
_TEXT	ENDS
;	COMDAT ?_M_output_error@?$basic_filebuf@DV?$char_traits@D@_STL@@@_STL@@AAEHXZ
_TEXT	SEGMENT PARA USE32 PUBLIC 'CODE'
_TEXT	ENDS
;	COMDAT ?_M_allocate_buffers@?$basic_filebuf@DV?$char_traits@D@_STL@@@_STL@@AAE_NPADH@Z
_TEXT	SEGMENT PARA USE32 PUBLIC 'CODE'
_TEXT	ENDS
;	COMDAT ?_M_deallocate_buffers@?$basic_filebuf@DV?$char_traits@D@_STL@@@_STL@@AAEXXZ
_TEXT	SEGMENT PARA USE32 PUBLIC 'CODE'
_TEXT	ENDS
;	COMDAT ?_M_seek_init@?$basic_filebuf@DV?$char_traits@D@_STL@@@_STL@@AAE_N_N@Z
_TEXT	SEGMENT PARA USE32 PUBLIC 'CODE'
_TEXT	ENDS
;	COMDAT ?_M_setup_codecvt@?$basic_filebuf@DV?$char_traits@D@_STL@@@_STL@@AAEXABVlocale@2@@Z
_TEXT	SEGMENT PARA USE32 PUBLIC 'CODE'
_TEXT	ENDS
;	COMDAT ??$equal@PADPADU?$_Eq_traits@V?$char_traits@D@_STL@@@_STL@@@_STL@@YA_NPAD00U?$_Eq_traits@V?$char_traits@D@_STL@@@0@@Z
_TEXT	SEGMENT PARA USE32 PUBLIC 'CODE'
_TEXT	ENDS
;	COMDAT ??$_Destroy@V?$basic_string@DV?$char_traits@D@_STL@@V?$allocator@D@2@@_STL@@@_STL@@YAXPAV?$basic_string@DV?$char_traits@D@_STL@@V?$allocator@D@2@@0@@Z
_TEXT	SEGMENT PARA USE32 PUBLIC 'CODE'
_TEXT	ENDS
;	COMDAT ??$_M_assign_dispatch@PAD@?$basic_string@DV?$char_traits@D@_STL@@V?$allocator@D@2@@_STL@@AAEAAV01@PAD0ABU__false_type@1@@Z
_TEXT	SEGMENT PARA USE32 PUBLIC 'CODE'
_TEXT	ENDS
;	COMDAT ??1?$_Deque_base@PAVPacket@@V?$allocator@PAVPacket@@@_STL@@@_STL@@QAE@XZ
_TEXT	SEGMENT PARA USE32 PUBLIC 'CODE'
_TEXT	ENDS
;	COMDAT ?_M_initialize_map@?$_Deque_base@PAVPacket@@V?$allocator@PAVPacket@@@_STL@@@_STL@@IAEXI@Z
_TEXT	SEGMENT PARA USE32 PUBLIC 'CODE'
_TEXT	ENDS
;	COMDAT ?_M_push_back_aux_v@?$deque@PAVPacket@@V?$allocator@PAVPacket@@@_STL@@@_STL@@IAEXABQAVPacket@@@Z
_TEXT	SEGMENT PARA USE32 PUBLIC 'CODE'
_TEXT	ENDS
;	COMDAT ?_M_pop_front_aux@?$deque@PAVPacket@@V?$allocator@PAVPacket@@@_STL@@@_STL@@IAEXXZ
_TEXT	SEGMENT PARA USE32 PUBLIC 'CODE'
_TEXT	ENDS
;	COMDAT ?clear@?$_List_base@PAVMEffect@@V?$allocator@PAVMEffect@@@_STL@@@_STL@@QAEXXZ
_TEXT	SEGMENT PARA USE32 PUBLIC 'CODE'
_TEXT	ENDS
;	COMDAT ??1?$CTypeMap2@VMHelicopter@@@@UAE@XZ
_TEXT	SEGMENT PARA USE32 PUBLIC 'CODE'
_TEXT	ENDS
;	COMDAT ?Release@?$CTypeMap2@VMHelicopter@@@@UAEXXZ
_TEXT	SEGMENT PARA USE32 PUBLIC 'CODE'
_TEXT	ENDS
;	COMDAT ?AddData@?$CTypeMap2@VMHelicopter@@@@UAE_NIPAVMHelicopter@@@Z
_TEXT	SEGMENT PARA USE32 PUBLIC 'CODE'
_TEXT	ENDS
;	COMDAT ?GetData@?$CTypeMap2@VMHelicopter@@@@UBEPBVMHelicopter@@I@Z
_TEXT	SEGMENT PARA USE32 PUBLIC 'CODE'
_TEXT	ENDS
;	COMDAT ?GetData@?$CTypeMap2@VMHelicopter@@@@UAEPAVMHelicopter@@I@Z
_TEXT	SEGMENT PARA USE32 PUBLIC 'CODE'
_TEXT	ENDS
;	COMDAT ?RemoveData@?$CTypeMap2@VMHelicopter@@@@UAE_NI@Z
_TEXT	SEGMENT PARA USE32 PUBLIC 'CODE'
_TEXT	ENDS
;	COMDAT ??$?9U?$_Deque_iterator@PAVPacket@@U?$_Nonconst_traits@PAVPacket@@@_STL@@@_STL@@@_STL@@YA_NABV?$reverse_iterator@U?$_Deque_iterator@PAVPacket@@U?$_Nonconst_traits@PAVPacket@@@_STL@@@_STL@@@0@0@Z
_TEXT	SEGMENT PARA USE32 PUBLIC 'CODE'
_TEXT	ENDS
;	COMDAT ??$insert@U?$_List_iterator@V?$basic_string@DV?$char_traits@D@_STL@@V?$allocator@D@2@@_STL@@U?$_Const_traits@V?$basic_string@DV?$char_traits@D@_STL@@V?$allocator@D@2@@_STL@@@2@@_STL@@@?$list@V?$basic_string@DV?$char_traits@D@_STL@@V?$allocator@D@2@@_STL@@V?$allocator@V?$basic_string@DV?$char_traits@D@_STL@@V?$allocator@D@2@@_STL@@@2@@_STL@@QAEXU?$_List_iterator@V?$basic_string@DV?$char_traits@D@_STL@@V?$allocator@D@2@@_STL@@U?$_Nonconst_traits@V?$basic_string@DV?$char_traits@D@_STL@@V?$allocator@D@2@@_STL@@@2@@1@U?$_List_iterator@V?$basic_string@DV?$char_traits@D@_STL@@V?$allocator@D@2@@_STL@@U?$_Const_traits@V?$basic_string@DV?$char_traits@D@_STL@@V?$allocator@D@2@@_STL@@@2@@1@1@Z
_TEXT	SEGMENT PARA USE32 PUBLIC 'CODE'
_TEXT	ENDS
;	COMDAT ??$?8PAVPacket@@@_STL@@YA_NABU?$_Deque_iterator_base@PAVPacket@@@0@0@Z
_TEXT	SEGMENT PARA USE32 PUBLIC 'CODE'
_TEXT	ENDS
;	COMDAT ??$_Destroy@U?$_Deque_iterator@PAVPacket@@U?$_Nonconst_traits@PAVPacket@@@_STL@@@_STL@@@_STL@@YAXU?$_Deque_iterator@PAVPacket@@U?$_Nonconst_traits@PAVPacket@@@_STL@@@0@0@Z
_TEXT	SEGMENT PARA USE32 PUBLIC 'CODE'
_TEXT	ENDS
;	COMDAT ??$_Construct@PAVPacket@@PAV1@@_STL@@YAXPAPAVPacket@@ABQAV1@@Z
_TEXT	SEGMENT PARA USE32 PUBLIC 'CODE'
_TEXT	ENDS
;	COMDAT ??$_Destroy@PAVPacket@@@_STL@@YAXPAPAVPacket@@@Z
_TEXT	SEGMENT PARA USE32 PUBLIC 'CODE'
_TEXT	ENDS
;	COMDAT ??$distance@U?$_List_iterator@PAVMEffect@@U?$_Const_traits@PAVMEffect@@@_STL@@@_STL@@@_STL@@YAHABU?$_List_iterator@PAVMEffect@@U?$_Const_traits@PAVMEffect@@@_STL@@@0@0@Z
_TEXT	SEGMENT PARA USE32 PUBLIC 'CODE'
_TEXT	ENDS
;	COMDAT ??$distance@U?$_List_iterator@VPORTAL_INFO@@U?$_Const_traits@VPORTAL_INFO@@@_STL@@@_STL@@@_STL@@YAHABU?$_List_iterator@VPORTAL_INFO@@U?$_Const_traits@VPORTAL_INFO@@@_STL@@@0@0@Z
_TEXT	SEGMENT PARA USE32 PUBLIC 'CODE'
_TEXT	ENDS
;	COMDAT ??$distance@U?$_List_iterator@VSECTORSOUND_INFO@@U?$_Const_traits@VSECTORSOUND_INFO@@@_STL@@@_STL@@@_STL@@YAHABU?$_List_iterator@VSECTORSOUND_INFO@@U?$_Const_traits@VSECTORSOUND_INFO@@@_STL@@@0@0@Z
_TEXT	SEGMENT PARA USE32 PUBLIC 'CODE'
_TEXT	ENDS
;	COMDAT ??$append@PBD@?$basic_string@DV?$char_traits@D@_STL@@V?$allocator@D@2@@_STL@@QAEAAV01@PBD0@Z
_TEXT	SEGMENT PARA USE32 PUBLIC 'CODE'
_TEXT	ENDS
;	COMDAT ??$?0U?$_List_node@V?$basic_string@DV?$char_traits@D@_STL@@V?$allocator@D@2@@_STL@@@_STL@@@?$allocator@V?$basic_string@DV?$char_traits@D@_STL@@V?$allocator@D@2@@_STL@@@_STL@@QAE@ABV?$allocator@U?$_List_node@V?$basic_string@DV?$char_traits@D@_STL@@V?$allocator@D@2@@_STL@@@_STL@@@1@@Z
_TEXT	SEGMENT PARA USE32 PUBLIC 'CODE'
_TEXT	ENDS
;	COMDAT ??$?0PAVPacket@@@?$allocator@PAPAVPacket@@@_STL@@QAE@ABV?$allocator@PAVPacket@@@1@@Z
_TEXT	SEGMENT PARA USE32 PUBLIC 'CODE'
_TEXT	ENDS
;	COMDAT ??_G?$basic_string@DV?$char_traits@D@_STL@@V?$allocator@D@2@@_STL@@QAEPAXI@Z
_TEXT	SEGMENT PARA USE32 PUBLIC 'CODE'
_TEXT	ENDS
;	COMDAT ??_G?$CTypeMap2@VMHelicopter@@@@UAEPAXI@Z
_TEXT	SEGMENT PARA USE32 PUBLIC 'CODE'
_TEXT	ENDS
;	COMDAT ??1?$map@IPAVMHelicopter@@U?$less@I@_STL@@V?$allocator@U?$pair@$$CBIPAVMHelicopter@@@_STL@@@3@@_STL@@QAE@XZ
_TEXT	SEGMENT PARA USE32 PUBLIC 'CODE'
_TEXT	ENDS
;	COMDAT ??_GMHelicopter@@QAEPAXI@Z
_TEXT	SEGMENT PARA USE32 PUBLIC 'CODE'
_TEXT	ENDS
;	COMDAT ?_M_exit_putback_mode@?$basic_filebuf@DV?$char_traits@D@_STL@@@_STL@@AAEXXZ
_TEXT	SEGMENT PARA USE32 PUBLIC 'CODE'
_TEXT	ENDS
;	COMDAT ??0?$_List_iterator@V?$basic_string@DV?$char_traits@D@_STL@@V?$allocator@D@2@@_STL@@U?$_Nonconst_traits@V?$basic_string@DV?$char_traits@D@_STL@@V?$allocator@D@2@@_STL@@@2@@_STL@@QAE@ABU01@@Z
_TEXT	SEGMENT PARA USE32 PUBLIC 'CODE'
_TEXT	ENDS
;	COMDAT ??R?$_Eq_traits@V?$char_traits@D@_STL@@@_STL@@QBE_NABD0@Z
_TEXT	SEGMENT PARA USE32 PUBLIC 'CODE'
_TEXT	ENDS
;	COMDAT ?_M_reserve_map_at_back@?$deque@PAVPacket@@V?$allocator@PAVPacket@@@_STL@@@_STL@@IAEXI@Z
_TEXT	SEGMENT PARA USE32 PUBLIC 'CODE'
_TEXT	ENDS
;	COMDAT ?buffer_size@?$_Deque_base@PAVPacket@@V?$allocator@PAVPacket@@@_STL@@@_STL@@SAIXZ
_TEXT	SEGMENT PARA USE32 PUBLIC 'CODE'
_TEXT	ENDS
;	COMDAT ?allocate@?$allocator@PAVPacket@@@_STL@@QAEPAPAVPacket@@IPBX@Z
_TEXT	SEGMENT PARA USE32 PUBLIC 'CODE'
_TEXT	ENDS
;	COMDAT ?deallocate@?$allocator@PAVPacket@@@_STL@@QAEXPAPAVPacket@@I@Z
_TEXT	SEGMENT PARA USE32 PUBLIC 'CODE'
_TEXT	ENDS
;	COMDAT ?allocate@?$allocator@PAPAVPacket@@@_STL@@QAEPAPAPAVPacket@@IPBX@Z
_TEXT	SEGMENT PARA USE32 PUBLIC 'CODE'
_TEXT	ENDS
;	COMDAT ?deallocate@?$allocator@PAPAVPacket@@@_STL@@QAEXPAPAPAVPacket@@I@Z
_TEXT	SEGMENT PARA USE32 PUBLIC 'CODE'
_TEXT	ENDS
;	COMDAT ?deallocate@?$allocator@U?$_List_node@PAVMEffect@@@_STL@@@_STL@@QAEXPAU?$_List_node@PAVMEffect@@@2@I@Z
_TEXT	SEGMENT PARA USE32 PUBLIC 'CODE'
_TEXT	ENDS
;	COMDAT ?begin@?$map@IPAVMHelicopter@@U?$less@I@_STL@@V?$allocator@U?$pair@$$CBIPAVMHelicopter@@@_STL@@@3@@_STL@@QAE?AU?$_Rb_tree_iterator@U?$pair@$$CBIPAVMHelicopter@@@_STL@@U?$_Nonconst_traits@U?$pair@$$CBIPAVMHelicopter@@@_STL@@@2@@2@XZ
_TEXT	SEGMENT PARA USE32 PUBLIC 'CODE'
_TEXT	ENDS
;	COMDAT ?end@?$map@IPAVMHelicopter@@U?$less@I@_STL@@V?$allocator@U?$pair@$$CBIPAVMHelicopter@@@_STL@@@3@@_STL@@QAE?AU?$_Rb_tree_iterator@U?$pair@$$CBIPAVMHelicopter@@@_STL@@U?$_Nonconst_traits@U?$pair@$$CBIPAVMHelicopter@@@_STL@@@2@@2@XZ
_TEXT	SEGMENT PARA USE32 PUBLIC 'CODE'
_TEXT	ENDS
;	COMDAT ?end@?$map@IPAVMHelicopter@@U?$less@I@_STL@@V?$allocator@U?$pair@$$CBIPAVMHelicopter@@@_STL@@@3@@_STL@@QBE?AU?$_Rb_tree_iterator@U?$pair@$$CBIPAVMHelicopter@@@_STL@@U?$_Const_traits@U?$pair@$$CBIPAVMHelicopter@@@_STL@@@2@@2@XZ
_TEXT	SEGMENT PARA USE32 PUBLIC 'CODE'
_TEXT	ENDS
;	COMDAT ?insert@?$map@IPAVMHelicopter@@U?$less@I@_STL@@V?$allocator@U?$pair@$$CBIPAVMHelicopter@@@_STL@@@3@@_STL@@QAE?AU?$pair@U?$_Rb_tree_iterator@U?$pair@$$CBIPAVMHelicopter@@@_STL@@U?$_Nonconst_traits@U?$pair@$$CBIPAVMHelicopter@@@_STL@@@2@@_STL@@_N@2@ABU?$pair@$$CBIPAVMHelicopter@@@2@@Z
_TEXT	SEGMENT PARA USE32 PUBLIC 'CODE'
_TEXT	ENDS
;	COMDAT ?erase@?$map@IPAVMHelicopter@@U?$less@I@_STL@@V?$allocator@U?$pair@$$CBIPAVMHelicopter@@@_STL@@@3@@_STL@@QAEXU?$_Rb_tree_iterator@U?$pair@$$CBIPAVMHelicopter@@@_STL@@U?$_Nonconst_traits@U?$pair@$$CBIPAVMHelicopter@@@_STL@@@2@@2@@Z
_TEXT	SEGMENT PARA USE32 PUBLIC 'CODE'
_TEXT	ENDS
;	COMDAT ?clear@?$map@IPAVMHelicopter@@U?$less@I@_STL@@V?$allocator@U?$pair@$$CBIPAVMHelicopter@@@_STL@@@3@@_STL@@QAEXXZ
_TEXT	SEGMENT PARA USE32 PUBLIC 'CODE'
_TEXT	ENDS
;	COMDAT ?find@?$map@IPAVMHelicopter@@U?$less@I@_STL@@V?$allocator@U?$pair@$$CBIPAVMHelicopter@@@_STL@@@3@@_STL@@QAE?AU?$_Rb_tree_iterator@U?$pair@$$CBIPAVMHelicopter@@@_STL@@U?$_Nonconst_traits@U?$pair@$$CBIPAVMHelicopter@@@_STL@@@2@@2@ABI@Z
_TEXT	SEGMENT PARA USE32 PUBLIC 'CODE'
_TEXT	ENDS
;	COMDAT ?find@?$map@IPAVMHelicopter@@U?$less@I@_STL@@V?$allocator@U?$pair@$$CBIPAVMHelicopter@@@_STL@@@3@@_STL@@QBE?AU?$_Rb_tree_iterator@U?$pair@$$CBIPAVMHelicopter@@@_STL@@U?$_Const_traits@U?$pair@$$CBIPAVMHelicopter@@@_STL@@@2@@2@ABI@Z
_TEXT	SEGMENT PARA USE32 PUBLIC 'CODE'
_TEXT	ENDS
;	COMDAT ??1?$_Rb_tree@IU?$pair@$$CBIPAVMHelicopter@@@_STL@@U?$_Select1st@U?$pair@$$CBIPAVMHelicopter@@@_STL@@@2@U?$less@I@2@V?$allocator@U?$pair@$$CBIPAVMHelicopter@@@_STL@@@2@@_STL@@QAE@XZ
_TEXT	SEGMENT PARA USE32 PUBLIC 'CODE'
_TEXT	ENDS
;	COMDAT ??0?$_Rb_tree_iterator@U?$pair@$$CBIPAVMHelicopter@@@_STL@@U?$_Nonconst_traits@U?$pair@$$CBIPAVMHelicopter@@@_STL@@@2@@_STL@@QAE@ABU01@@Z
_TEXT	SEGMENT PARA USE32 PUBLIC 'CODE'
_TEXT	ENDS
;	COMDAT ??D?$_Rb_tree_iterator@U?$pair@$$CBIPAVMHelicopter@@@_STL@@U?$_Nonconst_traits@U?$pair@$$CBIPAVMHelicopter@@@_STL@@@2@@_STL@@QBEAAU?$pair@$$CBIPAVMHelicopter@@@1@XZ
_TEXT	SEGMENT PARA USE32 PUBLIC 'CODE'
_TEXT	ENDS
;	COMDAT ??E?$_Rb_tree_iterator@U?$pair@$$CBIPAVMHelicopter@@@_STL@@U?$_Nonconst_traits@U?$pair@$$CBIPAVMHelicopter@@@_STL@@@2@@_STL@@QAE?AU01@H@Z
_TEXT	SEGMENT PARA USE32 PUBLIC 'CODE'
_TEXT	ENDS
;	COMDAT ??0?$pair@$$CBIPAVMHelicopter@@@_STL@@QAE@ABIABQAVMHelicopter@@@Z
_TEXT	SEGMENT PARA USE32 PUBLIC 'CODE'
_TEXT	ENDS
;	COMDAT ??D?$_Rb_tree_iterator@U?$pair@$$CBIPAVMHelicopter@@@_STL@@U?$_Const_traits@U?$pair@$$CBIPAVMHelicopter@@@_STL@@@2@@_STL@@QBEABU?$pair@$$CBIPAVMHelicopter@@@1@XZ
_TEXT	SEGMENT PARA USE32 PUBLIC 'CODE'
_TEXT	ENDS
;	COMDAT ?begin@?$_Rb_tree@IU?$pair@$$CBIPAVMHelicopter@@@_STL@@U?$_Select1st@U?$pair@$$CBIPAVMHelicopter@@@_STL@@@2@U?$less@I@2@V?$allocator@U?$pair@$$CBIPAVMHelicopter@@@_STL@@@2@@_STL@@QAE?AU?$_Rb_tree_iterator@U?$pair@$$CBIPAVMHelicopter@@@_STL@@U?$_Nonconst_traits@U?$pair@$$CBIPAVMHelicopter@@@_STL@@@2@@2@XZ
_TEXT	SEGMENT PARA USE32 PUBLIC 'CODE'
_TEXT	ENDS
;	COMDAT ?end@?$_Rb_tree@IU?$pair@$$CBIPAVMHelicopter@@@_STL@@U?$_Select1st@U?$pair@$$CBIPAVMHelicopter@@@_STL@@@2@U?$less@I@2@V?$allocator@U?$pair@$$CBIPAVMHelicopter@@@_STL@@@2@@_STL@@QAE?AU?$_Rb_tree_iterator@U?$pair@$$CBIPAVMHelicopter@@@_STL@@U?$_Nonconst_traits@U?$pair@$$CBIPAVMHelicopter@@@_STL@@@2@@2@XZ
_TEXT	SEGMENT PARA USE32 PUBLIC 'CODE'
_TEXT	ENDS
;	COMDAT ?end@?$_Rb_tree@IU?$pair@$$CBIPAVMHelicopter@@@_STL@@U?$_Select1st@U?$pair@$$CBIPAVMHelicopter@@@_STL@@@2@U?$less@I@2@V?$allocator@U?$pair@$$CBIPAVMHelicopter@@@_STL@@@2@@_STL@@QBE?AU?$_Rb_tree_iterator@U?$pair@$$CBIPAVMHelicopter@@@_STL@@U?$_Const_traits@U?$pair@$$CBIPAVMHelicopter@@@_STL@@@2@@2@XZ
_TEXT	SEGMENT PARA USE32 PUBLIC 'CODE'
_TEXT	ENDS
;	COMDAT ?erase@?$_Rb_tree@IU?$pair@$$CBIPAVMHelicopter@@@_STL@@U?$_Select1st@U?$pair@$$CBIPAVMHelicopter@@@_STL@@@2@U?$less@I@2@V?$allocator@U?$pair@$$CBIPAVMHelicopter@@@_STL@@@2@@_STL@@QAEXU?$_Rb_tree_iterator@U?$pair@$$CBIPAVMHelicopter@@@_STL@@U?$_Nonconst_traits@U?$pair@$$CBIPAVMHelicopter@@@_STL@@@2@@2@@Z
_TEXT	SEGMENT PARA USE32 PUBLIC 'CODE'
_TEXT	ENDS
;	COMDAT ?clear@?$_Rb_tree@IU?$pair@$$CBIPAVMHelicopter@@@_STL@@U?$_Select1st@U?$pair@$$CBIPAVMHelicopter@@@_STL@@@2@U?$less@I@2@V?$allocator@U?$pair@$$CBIPAVMHelicopter@@@_STL@@@2@@_STL@@QAEXXZ
_TEXT	SEGMENT PARA USE32 PUBLIC 'CODE'
_TEXT	ENDS
;	COMDAT ??1?$_Rb_tree_base@U?$pair@$$CBIPAVMHelicopter@@@_STL@@V?$allocator@U?$pair@$$CBIPAVMHelicopter@@@_STL@@@2@@_STL@@QAE@XZ
_TEXT	SEGMENT PARA USE32 PUBLIC 'CODE'
_TEXT	ENDS
;	COMDAT ??1?$_STLP_alloc_proxy@PAU?$_Rb_tree_node@U?$pair@$$CBIPAVMHelicopter@@@_STL@@@_STL@@U12@V?$allocator@U?$_Rb_tree_node@U?$pair@$$CBIPAVMHelicopter@@@_STL@@@_STL@@@2@@_STL@@QAE@XZ
_TEXT	SEGMENT PARA USE32 PUBLIC 'CODE'
_TEXT	ENDS
;	COMDAT ?_M_root@?$_Rb_tree@IU?$pair@$$CBIPAVMHelicopter@@@_STL@@U?$_Select1st@U?$pair@$$CBIPAVMHelicopter@@@_STL@@@2@U?$less@I@2@V?$allocator@U?$pair@$$CBIPAVMHelicopter@@@_STL@@@2@@_STL@@IBEAAPAU?$_Rb_tree_node@U?$pair@$$CBIPAVMHelicopter@@@_STL@@@2@XZ
_TEXT	SEGMENT PARA USE32 PUBLIC 'CODE'
_TEXT	ENDS
;	COMDAT ?_M_leftmost@?$_Rb_tree@IU?$pair@$$CBIPAVMHelicopter@@@_STL@@U?$_Select1st@U?$pair@$$CBIPAVMHelicopter@@@_STL@@@2@U?$less@I@2@V?$allocator@U?$pair@$$CBIPAVMHelicopter@@@_STL@@@2@@_STL@@IBEAAPAU?$_Rb_tree_node@U?$pair@$$CBIPAVMHelicopter@@@_STL@@@2@XZ
_TEXT	SEGMENT PARA USE32 PUBLIC 'CODE'
_TEXT	ENDS
;	COMDAT ?_M_rightmost@?$_Rb_tree@IU?$pair@$$CBIPAVMHelicopter@@@_STL@@U?$_Select1st@U?$pair@$$CBIPAVMHelicopter@@@_STL@@@2@U?$less@I@2@V?$allocator@U?$pair@$$CBIPAVMHelicopter@@@_STL@@@2@@_STL@@IBEAAPAU?$_Rb_tree_node@U?$pair@$$CBIPAVMHelicopter@@@_STL@@@2@XZ
_TEXT	SEGMENT PARA USE32 PUBLIC 'CODE'
_TEXT	ENDS
;	COMDAT ??1?$allocator@U?$_Rb_tree_node@U?$pair@$$CBIPAVMHelicopter@@@_STL@@@_STL@@@_STL@@QAE@XZ
_TEXT	SEGMENT PARA USE32 PUBLIC 'CODE'
_TEXT	ENDS
;	COMDAT ?deallocate@?$allocator@U?$_Rb_tree_node@U?$pair@$$CBIPAVMHelicopter@@@_STL@@@_STL@@@_STL@@QAEXPAU?$_Rb_tree_node@U?$pair@$$CBIPAVMHelicopter@@@_STL@@@2@I@Z
_TEXT	SEGMENT PARA USE32 PUBLIC 'CODE'
_TEXT	ENDS
;	COMDAT ??0?$_Rb_tree_iterator@U?$pair@$$CBIPAVMHelicopter@@@_STL@@U?$_Nonconst_traits@U?$pair@$$CBIPAVMHelicopter@@@_STL@@@2@@_STL@@QAE@PAU?$_Rb_tree_node@U?$pair@$$CBIPAVMHelicopter@@@_STL@@@1@@Z
_TEXT	SEGMENT PARA USE32 PUBLIC 'CODE'
_TEXT	ENDS
;	COMDAT ??0?$_Rb_tree_iterator@U?$pair@$$CBIPAVMHelicopter@@@_STL@@U?$_Const_traits@U?$pair@$$CBIPAVMHelicopter@@@_STL@@@2@@_STL@@QAE@PAU?$_Rb_tree_node@U?$pair@$$CBIPAVMHelicopter@@@_STL@@@1@@Z
_TEXT	SEGMENT PARA USE32 PUBLIC 'CODE'
_TEXT	ENDS
;	COMDAT ??$_M_range_initialize@PBD@?$basic_string@DV?$char_traits@D@_STL@@V?$allocator@D@2@@_STL@@AAEXPBD0ABUforward_iterator_tag@1@@Z
_TEXT	SEGMENT PARA USE32 PUBLIC 'CODE'
_TEXT	ENDS
;	COMDAT ??$_M_range_initialize@PAD@?$basic_string@DV?$char_traits@D@_STL@@V?$allocator@D@2@@_STL@@AAEXPAD0ABUforward_iterator_tag@1@@Z
_TEXT	SEGMENT PARA USE32 PUBLIC 'CODE'
_TEXT	ENDS
;	COMDAT ?_M_unshift@?$basic_filebuf@DV?$char_traits@D@_STL@@@_STL@@AAE_NXZ
_TEXT	SEGMENT PARA USE32 PUBLIC 'CODE'
_TEXT	ENDS
;	COMDAT ?_M_allocate_buffers@?$basic_filebuf@DV?$char_traits@D@_STL@@@_STL@@AAE_NXZ
_TEXT	SEGMENT PARA USE32 PUBLIC 'CODE'
_TEXT	ENDS
;	COMDAT ??$max@H@_STL@@YAABHABH0@Z
_TEXT	SEGMENT PARA USE32 PUBLIC 'CODE'
_TEXT	ENDS
;	COMDAT ??$use_facet@V?$codecvt@DDH@_STL@@@_STL@@YAABV?$codecvt@DDH@0@ABVlocale@0@@Z
_TEXT	SEGMENT PARA USE32 PUBLIC 'CODE'
_TEXT	ENDS
;	COMDAT ??$append@PAD@?$basic_string@DV?$char_traits@D@_STL@@V?$allocator@D@2@@_STL@@QAEAAV01@PAD0@Z
_TEXT	SEGMENT PARA USE32 PUBLIC 'CODE'
_TEXT	ENDS
;	COMDAT ?_M_create_nodes@?$_Deque_base@PAVPacket@@V?$allocator@PAVPacket@@@_STL@@@_STL@@IAEXPAPAPAVPacket@@0@Z
_TEXT	SEGMENT PARA USE32 PUBLIC 'CODE'
_TEXT	ENDS
;	COMDAT ?_M_destroy_nodes@?$_Deque_base@PAVPacket@@V?$allocator@PAVPacket@@@_STL@@@_STL@@IAEXPAPAPAVPacket@@0@Z
_TEXT	SEGMENT PARA USE32 PUBLIC 'CODE'
_TEXT	ENDS
;	COMDAT ??$max@I@_STL@@YAABIABI0@Z
_TEXT	SEGMENT PARA USE32 PUBLIC 'CODE'
_TEXT	ENDS
;	COMDAT ?_M_reallocate_map@?$deque@PAVPacket@@V?$allocator@PAVPacket@@@_STL@@@_STL@@IAEXI_N@Z
_TEXT	SEGMENT PARA USE32 PUBLIC 'CODE'
_TEXT	ENDS
;	COMDAT ??$_Destroy@PAVMEffect@@@_STL@@YAXPAPAVMEffect@@@Z
_TEXT	SEGMENT PARA USE32 PUBLIC 'CODE'
_TEXT	ENDS
;	COMDAT ??$?8U?$_Deque_iterator@PAVPacket@@U?$_Nonconst_traits@PAVPacket@@@_STL@@@_STL@@@_STL@@YA_NABV?$reverse_iterator@U?$_Deque_iterator@PAVPacket@@U?$_Nonconst_traits@PAVPacket@@@_STL@@@_STL@@@0@0@Z
_TEXT	SEGMENT PARA USE32 PUBLIC 'CODE'
_TEXT	ENDS
;	COMDAT ??$_M_insert_dispatch@U?$_List_iterator@V?$basic_string@DV?$char_traits@D@_STL@@V?$allocator@D@2@@_STL@@U?$_Const_traits@V?$basic_string@DV?$char_traits@D@_STL@@V?$allocator@D@2@@_STL@@@2@@_STL@@@?$list@V?$basic_string@DV?$char_traits@D@_STL@@V?$allocator@D@2@@_STL@@V?$allocator@V?$basic_string@DV?$char_traits@D@_STL@@V?$allocator@D@2@@_STL@@@2@@_STL@@QAEXU?$_List_iterator@V?$basic_string@DV?$char_traits@D@_STL@@V?$allocator@D@2@@_STL@@U?$_Nonconst_traits@V?$basic_string@DV?$char_traits@D@_STL@@V?$allocator@D@2@@_STL@@@2@@1@U?$_List_iterator@V?$basic_string@DV?$char_traits@D@_STL@@V?$allocator@D@2@@_STL@@U?$_Const_traits@V?$basic_string@DV?$char_traits@D@_STL@@V?$allocator@D@2@@_STL@@@2@@1@1ABU__false_type@1@@Z
_TEXT	SEGMENT PARA USE32 PUBLIC 'CODE'
_TEXT	ENDS
;	COMDAT ??$__destroy@U?$_Deque_iterator@PAVPacket@@U?$_Nonconst_traits@PAVPacket@@@_STL@@@_STL@@PAVPacket@@@_STL@@YAXU?$_Deque_iterator@PAVPacket@@U?$_Nonconst_traits@PAVPacket@@@_STL@@@0@0PAPAVPacket@@@Z
_TEXT	SEGMENT PARA USE32 PUBLIC 'CODE'
_TEXT	ENDS
;	COMDAT ??$__distance@U?$_List_iterator@PAVMEffect@@U?$_Const_traits@PAVMEffect@@@_STL@@@_STL@@@_STL@@YAHABU?$_List_iterator@PAVMEffect@@U?$_Const_traits@PAVMEffect@@@_STL@@@0@0ABUinput_iterator_tag@0@@Z
_TEXT	SEGMENT PARA USE32 PUBLIC 'CODE'
_TEXT	ENDS
;	COMDAT ??$__distance@U?$_List_iterator@VPORTAL_INFO@@U?$_Const_traits@VPORTAL_INFO@@@_STL@@@_STL@@@_STL@@YAHABU?$_List_iterator@VPORTAL_INFO@@U?$_Const_traits@VPORTAL_INFO@@@_STL@@@0@0ABUinput_iterator_tag@0@@Z
_TEXT	SEGMENT PARA USE32 PUBLIC 'CODE'
_TEXT	ENDS
;	COMDAT ??$__distance@U?$_List_iterator@VSECTORSOUND_INFO@@U?$_Const_traits@VSECTORSOUND_INFO@@@_STL@@@_STL@@@_STL@@YAHABU?$_List_iterator@VSECTORSOUND_INFO@@U?$_Const_traits@VSECTORSOUND_INFO@@@_STL@@@0@0ABUinput_iterator_tag@0@@Z
_TEXT	SEGMENT PARA USE32 PUBLIC 'CODE'
_TEXT	ENDS
;	COMDAT ??$_M_append_dispatch@PBD@?$basic_string@DV?$char_traits@D@_STL@@V?$allocator@D@2@@_STL@@AAEAAV01@PBD0ABU__false_type@1@@Z
_TEXT	SEGMENT PARA USE32 PUBLIC 'CODE'
_TEXT	ENDS
;	COMDAT ?_M_erase@?$_Rb_tree@IU?$pair@$$CBIPAVMHelicopter@@@_STL@@U?$_Select1st@U?$pair@$$CBIPAVMHelicopter@@@_STL@@@2@U?$less@I@2@V?$allocator@U?$pair@$$CBIPAVMHelicopter@@@_STL@@@2@@_STL@@AAEXPAU?$_Rb_tree_node@U?$pair@$$CBIPAVMHelicopter@@@_STL@@@2@@Z
_TEXT	SEGMENT PARA USE32 PUBLIC 'CODE'
_TEXT	ENDS
;	COMDAT ?insert_unique@?$_Rb_tree@IU?$pair@$$CBIPAVMHelicopter@@@_STL@@U?$_Select1st@U?$pair@$$CBIPAVMHelicopter@@@_STL@@@2@U?$less@I@2@V?$allocator@U?$pair@$$CBIPAVMHelicopter@@@_STL@@@2@@_STL@@QAE?AU?$pair@U?$_Rb_tree_iterator@U?$pair@$$CBIPAVMHelicopter@@@_STL@@U?$_Nonconst_traits@U?$pair@$$CBIPAVMHelicopter@@@_STL@@@2@@_STL@@_N@2@ABU?$pair@$$CBIPAVMHelicopter@@@2@@Z
_TEXT	SEGMENT PARA USE32 PUBLIC 'CODE'
_TEXT	ENDS
;	COMDAT ??$find@I@?$_Rb_tree@IU?$pair@$$CBIPAVMHelicopter@@@_STL@@U?$_Select1st@U?$pair@$$CBIPAVMHelicopter@@@_STL@@@2@U?$less@I@2@V?$allocator@U?$pair@$$CBIPAVMHelicopter@@@_STL@@@2@@_STL@@QAE?AU?$_Rb_tree_iterator@U?$pair@$$CBIPAVMHelicopter@@@_STL@@U?$_Nonconst_traits@U?$pair@$$CBIPAVMHelicopter@@@_STL@@@2@@1@ABI@Z
_TEXT	SEGMENT PARA USE32 PUBLIC 'CODE'
_TEXT	ENDS
;	COMDAT ??$find@I@?$_Rb_tree@IU?$pair@$$CBIPAVMHelicopter@@@_STL@@U?$_Select1st@U?$pair@$$CBIPAVMHelicopter@@@_STL@@@2@U?$less@I@2@V?$allocator@U?$pair@$$CBIPAVMHelicopter@@@_STL@@@2@@_STL@@QBE?AU?$_Rb_tree_iterator@U?$pair@$$CBIPAVMHelicopter@@@_STL@@U?$_Const_traits@U?$pair@$$CBIPAVMHelicopter@@@_STL@@@2@@1@ABI@Z
_TEXT	SEGMENT PARA USE32 PUBLIC 'CODE'
_TEXT	ENDS
;	COMDAT ??$_Destroy@U?$pair@$$CBIPAVMHelicopter@@@_STL@@@_STL@@YAXPAU?$pair@$$CBIPAVMHelicopter@@@0@@Z
_TEXT	SEGMENT PARA USE32 PUBLIC 'CODE'
_TEXT	ENDS
;	COMDAT ??E?$_List_iterator@V?$basic_string@DV?$char_traits@D@_STL@@V?$allocator@D@2@@_STL@@U?$_Const_traits@V?$basic_string@DV?$char_traits@D@_STL@@V?$allocator@D@2@@_STL@@@2@@_STL@@QAEAAU01@XZ
_TEXT	SEGMENT PARA USE32 PUBLIC 'CODE'
_TEXT	ENDS
;	COMDAT ??E?$_List_iterator@PAVMEffect@@U?$_Const_traits@PAVMEffect@@@_STL@@@_STL@@QAEAAU01@XZ
_TEXT	SEGMENT PARA USE32 PUBLIC 'CODE'
_TEXT	ENDS
;	COMDAT ??E?$_List_iterator@VPORTAL_INFO@@U?$_Const_traits@VPORTAL_INFO@@@_STL@@@_STL@@QAEAAU01@XZ
_TEXT	SEGMENT PARA USE32 PUBLIC 'CODE'
_TEXT	ENDS
;	COMDAT ??E?$_List_iterator@VSECTORSOUND_INFO@@U?$_Const_traits@VSECTORSOUND_INFO@@@_STL@@@_STL@@QAEAAU01@XZ
_TEXT	SEGMENT PARA USE32 PUBLIC 'CODE'
_TEXT	ENDS
;	COMDAT ?_S_left@?$_Rb_tree@IU?$pair@$$CBIPAVMHelicopter@@@_STL@@U?$_Select1st@U?$pair@$$CBIPAVMHelicopter@@@_STL@@@2@U?$less@I@2@V?$allocator@U?$pair@$$CBIPAVMHelicopter@@@_STL@@@2@@_STL@@KAAAPAU?$_Rb_tree_node@U?$pair@$$CBIPAVMHelicopter@@@_STL@@@2@PAU32@@Z
_TEXT	SEGMENT PARA USE32 PUBLIC 'CODE'
_TEXT	ENDS
;	COMDAT ?_S_right@?$_Rb_tree@IU?$pair@$$CBIPAVMHelicopter@@@_STL@@U?$_Select1st@U?$pair@$$CBIPAVMHelicopter@@@_STL@@@2@U?$less@I@2@V?$allocator@U?$pair@$$CBIPAVMHelicopter@@@_STL@@@2@@_STL@@KAAAPAU?$_Rb_tree_node@U?$pair@$$CBIPAVMHelicopter@@@_STL@@@2@PAU32@@Z
_TEXT	SEGMENT PARA USE32 PUBLIC 'CODE'
_TEXT	ENDS
;	COMDAT ?_S_key@?$_Rb_tree@IU?$pair@$$CBIPAVMHelicopter@@@_STL@@U?$_Select1st@U?$pair@$$CBIPAVMHelicopter@@@_STL@@@2@U?$less@I@2@V?$allocator@U?$pair@$$CBIPAVMHelicopter@@@_STL@@@2@@_STL@@KAABIPAU?$_Rb_tree_node@U?$pair@$$CBIPAVMHelicopter@@@_STL@@@2@@Z
_TEXT	SEGMENT PARA USE32 PUBLIC 'CODE'
_TEXT	ENDS
;	COMDAT ?_S_key@?$_Rb_tree@IU?$pair@$$CBIPAVMHelicopter@@@_STL@@U?$_Select1st@U?$pair@$$CBIPAVMHelicopter@@@_STL@@@2@U?$less@I@2@V?$allocator@U?$pair@$$CBIPAVMHelicopter@@@_STL@@@2@@_STL@@KAABIPAU_Rb_tree_node_base@2@@Z
_TEXT	SEGMENT PARA USE32 PUBLIC 'CODE'
_TEXT	ENDS
;	COMDAT ??R?$less@I@_STL@@QBE_NABI0@Z
_TEXT	SEGMENT PARA USE32 PUBLIC 'CODE'
_TEXT	ENDS
;	COMDAT ?base@?$reverse_iterator@U?$_Deque_iterator@PAVPacket@@U?$_Nonconst_traits@PAVPacket@@@_STL@@@_STL@@@_STL@@QBE?AU?$_Deque_iterator@PAVPacket@@U?$_Nonconst_traits@PAVPacket@@@_STL@@@2@XZ
_TEXT	SEGMENT PARA USE32 PUBLIC 'CODE'
_TEXT	ENDS
;	COMDAT ??F?$_Rb_tree_iterator@U?$pair@$$CBIPAVMHelicopter@@@_STL@@U?$_Nonconst_traits@U?$pair@$$CBIPAVMHelicopter@@@_STL@@@2@@_STL@@QAEAAU01@XZ
_TEXT	SEGMENT PARA USE32 PUBLIC 'CODE'
_TEXT	ENDS
;	COMDAT ??0?$pair@U?$_Rb_tree_iterator@U?$pair@$$CBIPAVMHelicopter@@@_STL@@U?$_Nonconst_traits@U?$pair@$$CBIPAVMHelicopter@@@_STL@@@2@@_STL@@_N@_STL@@QAE@ABU?$_Rb_tree_iterator@U?$pair@$$CBIPAVMHelicopter@@@_STL@@U?$_Nonconst_traits@U?$pair@$$CBIPAVMHelicopter@@@_STL@@@2@@1@AB_N@Z
_TEXT	SEGMENT PARA USE32 PUBLIC 'CODE'
_TEXT	ENDS
;	COMDAT ??R?$_Select1st@U?$pair@$$CBIPAVMHelicopter@@@_STL@@@_STL@@QBEABIABU?$pair@$$CBIPAVMHelicopter@@@1@@Z
_TEXT	SEGMENT PARA USE32 PUBLIC 'CODE'
_TEXT	ENDS
;	COMDAT ?_S_value@?$_Rb_tree@IU?$pair@$$CBIPAVMHelicopter@@@_STL@@U?$_Select1st@U?$pair@$$CBIPAVMHelicopter@@@_STL@@@2@U?$less@I@2@V?$allocator@U?$pair@$$CBIPAVMHelicopter@@@_STL@@@2@@_STL@@KAAAU?$pair@$$CBIPAVMHelicopter@@@2@PAU?$_Rb_tree_node@U?$pair@$$CBIPAVMHelicopter@@@_STL@@@2@@Z
_TEXT	SEGMENT PARA USE32 PUBLIC 'CODE'
_TEXT	ENDS
;	COMDAT ??$distance@PBD@_STL@@YAHABQBD0@Z
_TEXT	SEGMENT PARA USE32 PUBLIC 'CODE'
_TEXT	ENDS
;	COMDAT ?_M_allocate_block@?$_String_base@DV?$allocator@D@_STL@@@_STL@@QAEXI@Z
_TEXT	SEGMENT PARA USE32 PUBLIC 'CODE'
_TEXT	ENDS
;	COMDAT ??$distance@PAD@_STL@@YAHABQAD0@Z
_TEXT	SEGMENT PARA USE32 PUBLIC 'CODE'
_TEXT	ENDS
;	COMDAT ??$uninitialized_copy@PADPAD@_STL@@YAPADPAD00@Z
_TEXT	SEGMENT PARA USE32 PUBLIC 'CODE'
_TEXT	ENDS
;	COMDAT ??$_M_append_dispatch@PAD@?$basic_string@DV?$char_traits@D@_STL@@V?$allocator@D@2@@_STL@@AAEAAV01@PAD0ABU__false_type@1@@Z
_TEXT	SEGMENT PARA USE32 PUBLIC 'CODE'
_TEXT	ENDS
;	COMDAT ??$copy@PAPAPAVPacket@@PAPAPAV1@@_STL@@YAPAPAPAVPacket@@PAPAPAV1@00@Z
_TEXT	SEGMENT PARA USE32 PUBLIC 'CODE'
_TEXT	ENDS
;	COMDAT ??$copy_backward@PAPAPAVPacket@@PAPAPAV1@@_STL@@YAPAPAPAVPacket@@PAPAPAV1@00@Z
_TEXT	SEGMENT PARA USE32 PUBLIC 'CODE'
_TEXT	ENDS
;	COMDAT ??$__destroy_aux@U?$_Deque_iterator@PAVPacket@@U?$_Nonconst_traits@PAVPacket@@@_STL@@@_STL@@@_STL@@YAXU?$_Deque_iterator@PAVPacket@@U?$_Nonconst_traits@PAVPacket@@@_STL@@@0@0ABU__true_type@0@@Z
_TEXT	SEGMENT PARA USE32 PUBLIC 'CODE'
_TEXT	ENDS
;	COMDAT ??$append@PBD@?$basic_string@DV?$char_traits@D@_STL@@V?$allocator@D@2@@_STL@@AAEAAV01@PBD0ABUforward_iterator_tag@1@@Z
_TEXT	SEGMENT PARA USE32 PUBLIC 'CODE'
_TEXT	ENDS
;	COMDAT ?_M_insert@?$_Rb_tree@IU?$pair@$$CBIPAVMHelicopter@@@_STL@@U?$_Select1st@U?$pair@$$CBIPAVMHelicopter@@@_STL@@@2@U?$less@I@2@V?$allocator@U?$pair@$$CBIPAVMHelicopter@@@_STL@@@2@@_STL@@AAE?AU?$_Rb_tree_iterator@U?$pair@$$CBIPAVMHelicopter@@@_STL@@U?$_Nonconst_traits@U?$pair@$$CBIPAVMHelicopter@@@_STL@@@2@@2@PAU_Rb_tree_node_base@2@0ABU?$pair@$$CBIPAVMHelicopter@@@2@0@Z
_TEXT	SEGMENT PARA USE32 PUBLIC 'CODE'
_TEXT	ENDS
;	COMDAT ??$_M_find@I@?$_Rb_tree@IU?$pair@$$CBIPAVMHelicopter@@@_STL@@U?$_Select1st@U?$pair@$$CBIPAVMHelicopter@@@_STL@@@2@U?$less@I@2@V?$allocator@U?$pair@$$CBIPAVMHelicopter@@@_STL@@@2@@_STL@@ABEPAU?$_Rb_tree_node@U?$pair@$$CBIPAVMHelicopter@@@_STL@@@1@ABI@Z
_TEXT	SEGMENT PARA USE32 PUBLIC 'CODE'
_TEXT	ENDS
;	COMDAT ?_M_construct_null@?$basic_string@DV?$char_traits@D@_STL@@V?$allocator@D@2@@_STL@@AAEXPAD@Z
_TEXT	SEGMENT PARA USE32 PUBLIC 'CODE'
_TEXT	ENDS
;	COMDAT ?max_size@?$basic_string@DV?$char_traits@D@_STL@@V?$allocator@D@2@@_STL@@QBEIXZ
_TEXT	SEGMENT PARA USE32 PUBLIC 'CODE'
_TEXT	ENDS
;	COMDAT ?capacity@?$basic_string@DV?$char_traits@D@_STL@@V?$allocator@D@2@@_STL@@QBEIXZ
_TEXT	SEGMENT PARA USE32 PUBLIC 'CODE'
_TEXT	ENDS
;	COMDAT ?max_size@?$_String_base@DV?$allocator@D@_STL@@@_STL@@QBEIXZ
_TEXT	SEGMENT PARA USE32 PUBLIC 'CODE'
_TEXT	ENDS
;	COMDAT ?_M_create_node@?$_Rb_tree@IU?$pair@$$CBIPAVMHelicopter@@@_STL@@U?$_Select1st@U?$pair@$$CBIPAVMHelicopter@@@_STL@@@2@U?$less@I@2@V?$allocator@U?$pair@$$CBIPAVMHelicopter@@@_STL@@@2@@_STL@@IAEPAU?$_Rb_tree_node@U?$pair@$$CBIPAVMHelicopter@@@_STL@@@2@ABU?$pair@$$CBIPAVMHelicopter@@@2@@Z
_TEXT	SEGMENT PARA USE32 PUBLIC 'CODE'
_TEXT	ENDS
;	COMDAT ?_S_parent@?$_Rb_tree@IU?$pair@$$CBIPAVMHelicopter@@@_STL@@U?$_Select1st@U?$pair@$$CBIPAVMHelicopter@@@_STL@@@2@U?$less@I@2@V?$allocator@U?$pair@$$CBIPAVMHelicopter@@@_STL@@@2@@_STL@@KAAAPAU?$_Rb_tree_node@U?$pair@$$CBIPAVMHelicopter@@@_STL@@@2@PAU32@@Z
_TEXT	SEGMENT PARA USE32 PUBLIC 'CODE'
_TEXT	ENDS
;	COMDAT ?_Ret@?$_BothPtrType@PAPAPAVPacket@@PAPAPAV1@@_STL@@SA?AU__true_type@2@XZ
_TEXT	SEGMENT PARA USE32 PUBLIC 'CODE'
_TEXT	ENDS
;	COMDAT ?_M_construct_null_aux@?$basic_string@DV?$char_traits@D@_STL@@V?$allocator@D@2@@_STL@@AAEXPADABU__true_type@2@@Z
_TEXT	SEGMENT PARA USE32 PUBLIC 'CODE'
_TEXT	ENDS
;	COMDAT ?allocate@?$allocator@U?$_Rb_tree_node@U?$pair@$$CBIPAVMHelicopter@@@_STL@@@_STL@@@_STL@@QAEPAU?$_Rb_tree_node@U?$pair@$$CBIPAVMHelicopter@@@_STL@@@2@IPBX@Z
_TEXT	SEGMENT PARA USE32 PUBLIC 'CODE'
_TEXT	ENDS
;	COMDAT ??$__distance@PBD@_STL@@YAHABQBD0ABUrandom_access_iterator_tag@0@@Z
_TEXT	SEGMENT PARA USE32 PUBLIC 'CODE'
_TEXT	ENDS
;	COMDAT ?_M_throw_length_error@?$_String_base@DV?$allocator@D@_STL@@@_STL@@QBEXXZ
_TEXT	SEGMENT PARA USE32 PUBLIC 'CODE'
_TEXT	ENDS
;	COMDAT ??$__distance@PAD@_STL@@YAHABQAD0ABUrandom_access_iterator_tag@0@@Z
_TEXT	SEGMENT PARA USE32 PUBLIC 'CODE'
_TEXT	ENDS
;	COMDAT ??$__uninitialized_copy@PADPAD@_STL@@YAPADPAD00ABU__true_type@0@@Z
_TEXT	SEGMENT PARA USE32 PUBLIC 'CODE'
_TEXT	ENDS
;	COMDAT ??$append@PAD@?$basic_string@DV?$char_traits@D@_STL@@V?$allocator@D@2@@_STL@@AAEAAV01@PAD0ABUforward_iterator_tag@1@@Z
_TEXT	SEGMENT PARA USE32 PUBLIC 'CODE'
_TEXT	ENDS
;	COMDAT ??$__copy_aux@PAPAPAVPacket@@PAPAPAV1@@_STL@@YAPAPAPAVPacket@@PAPAPAV1@00ABU__true_type@0@@Z
_TEXT	SEGMENT PARA USE32 PUBLIC 'CODE'
_TEXT	ENDS
;	COMDAT ??$__copy_backward_aux@PAPAPAVPacket@@PAPAPAV1@@_STL@@YAPAPAPAVPacket@@PAPAPAV1@00ABU__true_type@0@@Z
_TEXT	SEGMENT PARA USE32 PUBLIC 'CODE'
_TEXT	ENDS
;	COMDAT ??$_Construct@U?$pair@$$CBIPAVMHelicopter@@@_STL@@U12@@_STL@@YAXPAU?$pair@$$CBIPAVMHelicopter@@@0@ABU10@@Z
_TEXT	SEGMENT PARA USE32 PUBLIC 'CODE'
_TEXT	ENDS
;	COMDAT ??0?$pair@$$CBIPAVMHelicopter@@@_STL@@QAE@ABU01@@Z
_TEXT	SEGMENT PARA USE32 PUBLIC 'CODE'
_TEXT	ENDS
;	COMDAT ?_Ret@?$_BothPtrType@PADPAD@_STL@@SA?AU__true_type@2@XZ
_TEXT	SEGMENT PARA USE32 PUBLIC 'CODE'
_TEXT	ENDS
;	COMDAT ?_Ret@?$_OKToMemCpy@PAPAVPacket@@PAPAV1@@_STL@@SA?AU__true_type@2@XZ
_TEXT	SEGMENT PARA USE32 PUBLIC 'CODE'
_TEXT	ENDS
;	COMDAT ??$__copy_aux@PADPAD@_STL@@YAPADPAD00ABU__true_type@0@@Z
_TEXT	SEGMENT PARA USE32 PUBLIC 'CODE'
_TEXT	ENDS
;	COMDAT ??$_IsOKToMemCpy@PAPAVPacket@@PAPAV1@@_STL@@YA?AU?$_OKToMemCpy@PAPAVPacket@@PAPAV1@@0@PAPAPAVPacket@@0@Z
_TEXT	SEGMENT PARA USE32 PUBLIC 'CODE'
_TEXT	ENDS
;	COMDAT ??$__copy_ptrs@PAPAPAVPacket@@PAPAPAV1@@_STL@@YAPAPAPAVPacket@@PAPAPAV1@00ABU__true_type@0@@Z
_TEXT	SEGMENT PARA USE32 PUBLIC 'CODE'
_TEXT	ENDS
;	COMDAT ??$__copy_backward_ptrs@PAPAPAVPacket@@PAPAPAV1@@_STL@@YAPAPAPAVPacket@@PAPAPAV1@00ABU__true_type@0@@Z
_TEXT	SEGMENT PARA USE32 PUBLIC 'CODE'
_TEXT	ENDS
;	COMDAT ?_Ret@?$_OKToMemCpy@DD@_STL@@SA?AU__true_type@2@XZ
_TEXT	SEGMENT PARA USE32 PUBLIC 'CODE'
_TEXT	ENDS
;	COMDAT ??$_IsOKToMemCpy@DD@_STL@@YA?AU?$_OKToMemCpy@DD@0@PAD0@Z
_TEXT	SEGMENT PARA USE32 PUBLIC 'CODE'
_TEXT	ENDS
;	COMDAT ??$__copy_ptrs@PADPAD@_STL@@YAPADPAD00ABU__true_type@0@@Z
_TEXT	SEGMENT PARA USE32 PUBLIC 'CODE'
_TEXT	ENDS
;	COMDAT ??_R3ovfstream@@8
rdata$r	SEGMENT DWORD USE32 PUBLIC 'CONST'
rdata$r	ENDS
;	COMDAT ??_R3ivfstream@@8
rdata$r	SEGMENT DWORD USE32 PUBLIC 'CONST'
rdata$r	ENDS
;	COMDAT ??_R3PacketFactory@@8
rdata$r	SEGMENT DWORD USE32 PUBLIC 'CONST'
rdata$r	ENDS
;	COMDAT ??_R3Packet@@8
rdata$r	SEGMENT DWORD USE32 PUBLIC 'CONST'
rdata$r	ENDS
;	COMDAT ??_R3IFileIO@@8
rdata$r	SEGMENT DWORD USE32 PUBLIC 'CONST'
rdata$r	ENDS
;	COMDAT ??_R3MObject@@8
rdata$r	SEGMENT DWORD USE32 PUBLIC 'CONST'
rdata$r	ENDS
;	COMDAT ??_R3?$CTypeMap2@VMHelicopter@@@@8
rdata$r	SEGMENT DWORD USE32 PUBLIC 'CONST'
rdata$r	ENDS
;	COMDAT ??_R3ClientPlayer@@8
rdata$r	SEGMENT DWORD USE32 PUBLIC 'CONST'
rdata$r	ENDS
;	COMDAT ??_R3SocketEncryptOutputStream@@8
rdata$r	SEGMENT DWORD USE32 PUBLIC 'CONST'
rdata$r	ENDS
;	COMDAT ??_R3iovfs_base@@8
rdata$r	SEGMENT DWORD USE32 PUBLIC 'CONST'
rdata$r	ENDS
;	COMDAT ??_R3SocketEncryptInputStream@@8
rdata$r	SEGMENT DWORD USE32 PUBLIC 'CONST'
rdata$r	ENDS
;	COMDAT ??_R2ovfstream@@8
rdata$r	SEGMENT DWORD USE32 PUBLIC 'CONST'
rdata$r	ENDS
;	COMDAT ??_R2ivfstream@@8
rdata$r	SEGMENT DWORD USE32 PUBLIC 'CONST'
rdata$r	ENDS
;	COMDAT ??_R2PacketFactory@@8
rdata$r	SEGMENT DWORD USE32 PUBLIC 'CONST'
rdata$r	ENDS
;	COMDAT ??_R2Packet@@8
rdata$r	SEGMENT DWORD USE32 PUBLIC 'CONST'
rdata$r	ENDS
;	COMDAT ??_R2IFileIO@@8
rdata$r	SEGMENT DWORD USE32 PUBLIC 'CONST'
rdata$r	ENDS
;	COMDAT ??_R2MObject@@8
rdata$r	SEGMENT DWORD USE32 PUBLIC 'CONST'
rdata$r	ENDS
;	COMDAT ??_R2?$CTypeMap2@VMHelicopter@@@@8
rdata$r	SEGMENT DWORD USE32 PUBLIC 'CONST'
rdata$r	ENDS
;	COMDAT ??_R2ClientPlayer@@8
rdata$r	SEGMENT DWORD USE32 PUBLIC 'CONST'
rdata$r	ENDS
;	COMDAT ??_R2SocketEncryptOutputStream@@8
rdata$r	SEGMENT DWORD USE32 PUBLIC 'CONST'
rdata$r	ENDS
;	COMDAT ??_R2iovfs_base@@8
rdata$r	SEGMENT DWORD USE32 PUBLIC 'CONST'
rdata$r	ENDS
;	COMDAT ??_R2SocketEncryptInputStream@@8
rdata$r	SEGMENT DWORD USE32 PUBLIC 'CONST'
rdata$r	ENDS
;	COMDAT ??_R1A@?0A@A@ovfstream@@8
rdata$r	SEGMENT DWORD USE32 PUBLIC 'CONST'
rdata$r	ENDS
;	COMDAT ??_R1A@?0A@A@ivfstream@@8
rdata$r	SEGMENT DWORD USE32 PUBLIC 'CONST'
rdata$r	ENDS
;	COMDAT ??_R1A@?0A@A@PacketFactory@@8
rdata$r	SEGMENT DWORD USE32 PUBLIC 'CONST'
rdata$r	ENDS
;	COMDAT ??_R1A@?0A@A@Packet@@8
rdata$r	SEGMENT DWORD USE32 PUBLIC 'CONST'
rdata$r	ENDS
;	COMDAT ??_R1A@?0A@A@IFileIO@@8
rdata$r	SEGMENT DWORD USE32 PUBLIC 'CONST'
rdata$r	ENDS
;	COMDAT ??_R1A@?0A@A@MObject@@8
rdata$r	SEGMENT DWORD USE32 PUBLIC 'CONST'
rdata$r	ENDS
;	COMDAT ??_R13?0A@A@?$map@IPAVMHelicopter@@U?$less@I@_STL@@V?$allocator@U?$pair@$$CBIPAVMHelicopter@@@_STL@@@3@@_STL@@8
rdata$r	SEGMENT DWORD USE32 PUBLIC 'CONST'
rdata$r	ENDS
;	COMDAT ??_R1A@?0A@A@?$CTypeMap2@VMHelicopter@@@@8
rdata$r	SEGMENT DWORD USE32 PUBLIC 'CONST'
rdata$r	ENDS
;	COMDAT ??_R1A@?0A@A@Player@@8
rdata$r	SEGMENT DWORD USE32 PUBLIC 'CONST'
rdata$r	ENDS
;	COMDAT ??_R1A@?0A@A@ClientPlayer@@8
rdata$r	SEGMENT DWORD USE32 PUBLIC 'CONST'
rdata$r	ENDS
;	COMDAT ??_R1A@?0A@A@SocketOutputStream@@8
rdata$r	SEGMENT DWORD USE32 PUBLIC 'CONST'
rdata$r	ENDS
;	COMDAT ??_R1A@?0A@A@SocketEncryptOutputStream@@8
rdata$r	SEGMENT DWORD USE32 PUBLIC 'CONST'
rdata$r	ENDS
;	COMDAT ??_R1A@?0A@A@iovfs_base@@8
rdata$r	SEGMENT DWORD USE32 PUBLIC 'CONST'
rdata$r	ENDS
;	COMDAT ??_R1A@?0A@A@SocketInputStream@@8
rdata$r	SEGMENT DWORD USE32 PUBLIC 'CONST'
rdata$r	ENDS
;	COMDAT ??_R1A@?0A@A@SocketEncryptInputStream@@8
rdata$r	SEGMENT DWORD USE32 PUBLIC 'CONST'
rdata$r	ENDS
;	COMDAT ??_R0?AVovfstream@@@8
_DATA	SEGMENT DWORD USE32 PUBLIC 'DATA'
_DATA	ENDS
;	COMDAT ??_R0?AVivfstream@@@8
_DATA	SEGMENT DWORD USE32 PUBLIC 'DATA'
_DATA	ENDS
;	COMDAT ??_R0?AVPacketFactory@@@8
_DATA	SEGMENT DWORD USE32 PUBLIC 'DATA'
_DATA	ENDS
;	COMDAT ??_R0?AVPacket@@@8
_DATA	SEGMENT DWORD USE32 PUBLIC 'DATA'
_DATA	ENDS
;	COMDAT ??_R0?AVIFileIO@@@8
_DATA	SEGMENT DWORD USE32 PUBLIC 'DATA'
_DATA	ENDS
;	COMDAT ??_R0?AVMObject@@@8
_DATA	SEGMENT DWORD USE32 PUBLIC 'DATA'
_DATA	ENDS
;	COMDAT ??_R0?AV?$map@IPAVMHelicopter@@U?$less@I@_STL@@V?$allocator@U?$pair@$$CBIPAVMHelicopter@@@_STL@@@3@@_STL@@@8
_DATA	SEGMENT DWORD USE32 PUBLIC 'DATA'
_DATA	ENDS
;	COMDAT ??_R0?AV?$CTypeMap2@VMHelicopter@@@@@8
_DATA	SEGMENT DWORD USE32 PUBLIC 'DATA'
_DATA	ENDS
;	COMDAT ??_R0?AVPlayer@@@8
_DATA	SEGMENT DWORD USE32 PUBLIC 'DATA'
_DATA	ENDS
;	COMDAT ??_R0?AVClientPlayer@@@8
_DATA	SEGMENT DWORD USE32 PUBLIC 'DATA'
_DATA	ENDS
;	COMDAT ??_R0?AViovfs_base@@@8
_DATA	SEGMENT DWORD USE32 PUBLIC 'DATA'
_DATA	ENDS
;	COMDAT ??_R4ovfstream@@6B@
rdata$r	SEGMENT DWORD USE32 PUBLIC 'CONST'
rdata$r	ENDS
;	COMDAT ??_R4ivfstream@@6B@
rdata$r	SEGMENT DWORD USE32 PUBLIC 'CONST'
rdata$r	ENDS
;	COMDAT ??_R4PacketFactory@@6B@
rdata$r	SEGMENT DWORD USE32 PUBLIC 'CONST'
rdata$r	ENDS
;	COMDAT ??_R4Packet@@6B@
rdata$r	SEGMENT DWORD USE32 PUBLIC 'CONST'
rdata$r	ENDS
;	COMDAT ??_R4IFileIO@@6B@
rdata$r	SEGMENT DWORD USE32 PUBLIC 'CONST'
rdata$r	ENDS
;	COMDAT ??_R4MObject@@6B@
rdata$r	SEGMENT DWORD USE32 PUBLIC 'CONST'
rdata$r	ENDS
;	COMDAT ??_R4?$CTypeMap2@VMHelicopter@@@@6B@
rdata$r	SEGMENT DWORD USE32 PUBLIC 'CONST'
rdata$r	ENDS
;	COMDAT ??_R4ClientPlayer@@6B@
rdata$r	SEGMENT DWORD USE32 PUBLIC 'CONST'
rdata$r	ENDS
;	COMDAT ??_R4SocketEncryptOutputStream@@6B@
rdata$r	SEGMENT DWORD USE32 PUBLIC 'CONST'
rdata$r	ENDS
;	COMDAT ??_R4iovfs_base@@6B@
rdata$r	SEGMENT DWORD USE32 PUBLIC 'CONST'
rdata$r	ENDS
;	COMDAT ??_R4SocketEncryptInputStream@@6B@
rdata$r	SEGMENT DWORD USE32 PUBLIC 'CONST'
rdata$r	ENDS
;	COMDAT ?__copy_trivial_backward@_STL@@YAPAXPBX0PAX@Z
_TEXT	SEGMENT PARA USE32 PUBLIC 'CODE'
_TEXT	ENDS
;	COMDAT ?__copy_trivial@_STL@@YAPAXPBX0PAX@Z
_TEXT	SEGMENT PARA USE32 PUBLIC 'CODE'
_TEXT	ENDS
;	COMDAT ??3@YAXPAX0@Z
_TEXT	SEGMENT PARA USE32 PUBLIC 'CODE'
_TEXT	ENDS
;	COMDAT ?_M_deallocate_block@?$_String_base@DV?$allocator@D@_STL@@@_STL@@QAEXXZ
_TEXT	SEGMENT PARA USE32 PUBLIC 'CODE'
_TEXT	ENDS
;	COMDAT ?deallocate@?$allocator@D@_STL@@QAEXPADI@Z
_TEXT	SEGMENT PARA USE32 PUBLIC 'CODE'
_TEXT	ENDS
;	COMDAT ?_M_incr@_List_iterator_base@_STL@@QAEXXZ
_TEXT	SEGMENT PARA USE32 PUBLIC 'CODE'
_TEXT	ENDS
;	COMDAT ??D?$_List_iterator@V?$basic_string@DV?$char_traits@D@_STL@@V?$allocator@D@2@@_STL@@U?$_Const_traits@V?$basic_string@DV?$char_traits@D@_STL@@V?$allocator@D@2@@_STL@@@2@@_STL@@QBEABV?$basic_string@DV?$char_traits@D@_STL@@V?$allocator@D@2@@1@XZ
_TEXT	SEGMENT PARA USE32 PUBLIC 'CODE'
_TEXT	ENDS
;	COMDAT ?insert@?$list@V?$basic_string@DV?$char_traits@D@_STL@@V?$allocator@D@2@@_STL@@V?$allocator@V?$basic_string@DV?$char_traits@D@_STL@@V?$allocator@D@2@@_STL@@@2@@_STL@@QAE?AU?$_List_iterator@V?$basic_string@DV?$char_traits@D@_STL@@V?$allocator@D@2@@_STL@@U?$_Nonconst_traits@V?$basic_string@DV?$char_traits@D@_STL@@V?$allocator@D@2@@_STL@@@2@@2@U32@ABV?$basic_string@DV?$char_traits@D@_STL@@V?$allocator@D@2@@2@@Z
_TEXT	SEGMENT PARA USE32 PUBLIC 'CODE'
_TEXT	ENDS
;	COMDAT ?_M_create_node@?$list@V?$basic_string@DV?$char_traits@D@_STL@@V?$allocator@D@2@@_STL@@V?$allocator@V?$basic_string@DV?$char_traits@D@_STL@@V?$allocator@D@2@@_STL@@@2@@_STL@@IAEPAU?$_List_node@V?$basic_string@DV?$char_traits@D@_STL@@V?$allocator@D@2@@_STL@@@2@ABV?$basic_string@DV?$char_traits@D@_STL@@V?$allocator@D@2@@2@@Z
_TEXT	SEGMENT PARA USE32 PUBLIC 'CODE'
_TEXT	ENDS
;	COMDAT ?allocate@?$allocator@U?$_List_node@V?$basic_string@DV?$char_traits@D@_STL@@V?$allocator@D@2@@_STL@@@_STL@@@_STL@@QAEPAU?$_List_node@V?$basic_string@DV?$char_traits@D@_STL@@V?$allocator@D@2@@_STL@@@2@IPBX@Z
_TEXT	SEGMENT PARA USE32 PUBLIC 'CODE'
_TEXT	ENDS
;	COMDAT ??$_Construct@V?$basic_string@DV?$char_traits@D@_STL@@V?$allocator@D@2@@_STL@@V12@@_STL@@YAXPAV?$basic_string@DV?$char_traits@D@_STL@@V?$allocator@D@2@@0@ABV10@@Z
_TEXT	SEGMENT PARA USE32 PUBLIC 'CODE'
_TEXT	ENDS
;	COMDAT ?deallocate@?$allocator@U?$_List_node@V?$basic_string@DV?$char_traits@D@_STL@@V?$allocator@D@2@@_STL@@@_STL@@@_STL@@QAEXPAU?$_List_node@V?$basic_string@DV?$char_traits@D@_STL@@V?$allocator@D@2@@_STL@@@2@I@Z
_TEXT	SEGMENT PARA USE32 PUBLIC 'CODE'
_TEXT	ENDS
;	COMDAT ??0?$_List_iterator@V?$basic_string@DV?$char_traits@D@_STL@@V?$allocator@D@2@@_STL@@U?$_Nonconst_traits@V?$basic_string@DV?$char_traits@D@_STL@@V?$allocator@D@2@@_STL@@@2@@_STL@@QAE@PAU?$_List_node@V?$basic_string@DV?$char_traits@D@_STL@@V?$allocator@D@2@@_STL@@@1@@Z
_TEXT	SEGMENT PARA USE32 PUBLIC 'CODE'
_TEXT	ENDS
;	COMDAT ??9_List_iterator_base@_STL@@QBE_NABU01@@Z
_TEXT	SEGMENT PARA USE32 PUBLIC 'CODE'
_TEXT	ENDS
;	COMDAT ?__page_size@_Filebuf_base@_STL@@SAIXZ
_TEXT	SEGMENT PARA USE32 PUBLIC 'CODE'
_TEXT	ENDS
;	COMDAT ?_M_write@?$basic_filebuf@DV?$char_traits@D@_STL@@@_STL@@QAE_NPADH@Z
_TEXT	SEGMENT PARA USE32 PUBLIC 'CODE'
_TEXT	ENDS
;	COMDAT ?unshift@?$codecvt@DDH@_STL@@QBE?AW4result@codecvt_base@2@AAHPAD1AAPAD@Z
_TEXT	SEGMENT PARA USE32 PUBLIC 'CODE'
_TEXT	ENDS
;	COMDAT ?uninitialized_copy@_STL@@YAPADPBD0PAD@Z
_TEXT	SEGMENT PARA USE32 PUBLIC 'CODE'
_TEXT	ENDS
;	COMDAT ?deallocate@?$__node_alloc@$00$0A@@_STL@@SAXPAXI@Z
_TEXT	SEGMENT PARA USE32 PUBLIC 'CODE'
_TEXT	ENDS
;	COMDAT ?__stl_delete@_STL@@YAXPAX@Z
_TEXT	SEGMENT PARA USE32 PUBLIC 'CODE'
_TEXT	ENDS
;	COMDAT ??2@YAPAXIPAX@Z
_TEXT	SEGMENT PARA USE32 PUBLIC 'CODE'
_TEXT	ENDS
;	COMDAT ??8_Rb_tree_base_iterator@_STL@@QBE_NABU01@@Z
_TEXT	SEGMENT PARA USE32 PUBLIC 'CODE'
_TEXT	ENDS
;	COMDAT ??9_Rb_tree_base_iterator@_STL@@QBE_NABU01@@Z
_TEXT	SEGMENT PARA USE32 PUBLIC 'CODE'
_TEXT	ENDS
;	COMDAT ??_7?$CTypeMap2@VMHelicopter@@@@6B@
CONST	SEGMENT DWORD USE32 PUBLIC 'CONST'
CONST	ENDS
;	COMDAT ?assign@?$char_traits@D@_STL@@SAXAADABD@Z
_TEXT	SEGMENT PARA USE32 PUBLIC 'CODE'
_TEXT	ENDS
;	COMDAT ?always_noconv@?$codecvt@DDH@_STL@@QBE_NXZ
_TEXT	SEGMENT PARA USE32 PUBLIC 'CODE'
_TEXT	ENDS
;	COMDAT ?encoding@?$codecvt@DDH@_STL@@QBEHXZ
_TEXT	SEGMENT PARA USE32 PUBLIC 'CODE'
_TEXT	ENDS
;	COMDAT ?max_length@?$codecvt@DDH@_STL@@QBEHXZ
_TEXT	SEGMENT PARA USE32 PUBLIC 'CODE'
_TEXT	ENDS
;	COMDAT ?__o_mode@_Filebuf_base@_STL@@QBEHXZ
_TEXT	SEGMENT PARA USE32 PUBLIC 'CODE'
_TEXT	ENDS
;	COMDAT ?_Destroy@_STL@@YAXPAD0@Z
_TEXT	SEGMENT PARA USE32 PUBLIC 'CODE'
_TEXT	ENDS
;	COMDAT ??0_List_iterator_base@_STL@@QAE@PAU_List_node_base@1@@Z
_TEXT	SEGMENT PARA USE32 PUBLIC 'CODE'
_TEXT	ENDS
;	COMDAT ?begin@?$list@V?$basic_string@DV?$char_traits@D@_STL@@V?$allocator@D@2@@_STL@@V?$allocator@V?$basic_string@DV?$char_traits@D@_STL@@V?$allocator@D@2@@_STL@@@2@@_STL@@QAE?AU?$_List_iterator@V?$basic_string@DV?$char_traits@D@_STL@@V?$allocator@D@2@@_STL@@U?$_Nonconst_traits@V?$basic_string@DV?$char_traits@D@_STL@@V?$allocator@D@2@@_STL@@@2@@2@XZ
_TEXT	SEGMENT PARA USE32 PUBLIC 'CODE'
_TEXT	ENDS
;	COMDAT ?begin@?$list@V?$basic_string@DV?$char_traits@D@_STL@@V?$allocator@D@2@@_STL@@V?$allocator@V?$basic_string@DV?$char_traits@D@_STL@@V?$allocator@D@2@@_STL@@@2@@_STL@@QBE?AU?$_List_iterator@V?$basic_string@DV?$char_traits@D@_STL@@V?$allocator@D@2@@_STL@@U?$_Const_traits@V?$basic_string@DV?$char_traits@D@_STL@@V?$allocator@D@2@@_STL@@@2@@2@XZ
_TEXT	SEGMENT PARA USE32 PUBLIC 'CODE'
_TEXT	ENDS
;	COMDAT ??0?$_List_iterator@V?$basic_string@DV?$char_traits@D@_STL@@V?$allocator@D@2@@_STL@@U?$_Const_traits@V?$basic_string@DV?$char_traits@D@_STL@@V?$allocator@D@2@@_STL@@@2@@_STL@@QAE@PAU?$_List_node@V?$basic_string@DV?$char_traits@D@_STL@@V?$allocator@D@2@@_STL@@@1@@Z
_TEXT	SEGMENT PARA USE32 PUBLIC 'CODE'
_TEXT	ENDS
;	COMDAT ?end@?$list@V?$basic_string@DV?$char_traits@D@_STL@@V?$allocator@D@2@@_STL@@V?$allocator@V?$basic_string@DV?$char_traits@D@_STL@@V?$allocator@D@2@@_STL@@@2@@_STL@@QBE?AU?$_List_iterator@V?$basic_string@DV?$char_traits@D@_STL@@V?$allocator@D@2@@_STL@@U?$_Const_traits@V?$basic_string@DV?$char_traits@D@_STL@@V?$allocator@D@2@@_STL@@@2@@2@XZ
_TEXT	SEGMENT PARA USE32 PUBLIC 'CODE'
_TEXT	ENDS
;	COMDAT ??1?$_List_base@V?$basic_string@DV?$char_traits@D@_STL@@V?$allocator@D@2@@_STL@@V?$allocator@V?$basic_string@DV?$char_traits@D@_STL@@V?$allocator@D@2@@_STL@@@2@@_STL@@QAE@XZ
_TEXT	SEGMENT PARA USE32 PUBLIC 'CODE'
_TEXT	ENDS
;	COMDAT ??1?$_STLP_alloc_proxy@PAU?$_List_node@V?$basic_string@DV?$char_traits@D@_STL@@V?$allocator@D@2@@_STL@@@_STL@@U12@V?$allocator@U?$_List_node@V?$basic_string@DV?$char_traits@D@_STL@@V?$allocator@D@2@@_STL@@@_STL@@@2@@_STL@@QAE@XZ
_TEXT	SEGMENT PARA USE32 PUBLIC 'CODE'
_TEXT	ENDS
;	COMDAT ??1?$allocator@U?$_List_node@V?$basic_string@DV?$char_traits@D@_STL@@V?$allocator@D@2@@_STL@@@_STL@@@_STL@@QAE@XZ
_TEXT	SEGMENT PARA USE32 PUBLIC 'CODE'
_TEXT	ENDS
;	COMDAT ?clear@?$_List_base@V?$basic_string@DV?$char_traits@D@_STL@@V?$allocator@D@2@@_STL@@V?$allocator@V?$basic_string@DV?$char_traits@D@_STL@@V?$allocator@D@2@@_STL@@@2@@_STL@@QAEXXZ
_TEXT	SEGMENT PARA USE32 PUBLIC 'CODE'
_TEXT	ENDS
;	COMDAT ??1?$allocator@V?$basic_string@DV?$char_traits@D@_STL@@V?$allocator@D@2@@_STL@@@_STL@@QAE@XZ
_TEXT	SEGMENT PARA USE32 PUBLIC 'CODE'
_TEXT	ENDS
;	COMDAT ??0?$_List_base@V?$basic_string@DV?$char_traits@D@_STL@@V?$allocator@D@2@@_STL@@V?$allocator@V?$basic_string@DV?$char_traits@D@_STL@@V?$allocator@D@2@@_STL@@@2@@_STL@@QAE@ABV?$allocator@V?$basic_string@DV?$char_traits@D@_STL@@V?$allocator@D@2@@_STL@@@1@@Z
_TEXT	SEGMENT PARA USE32 PUBLIC 'CODE'
_TEXT	ENDS
;	COMDAT ??0?$_STLP_alloc_proxy@PAU?$_List_node@V?$basic_string@DV?$char_traits@D@_STL@@V?$allocator@D@2@@_STL@@@_STL@@U12@V?$allocator@U?$_List_node@V?$basic_string@DV?$char_traits@D@_STL@@V?$allocator@D@2@@_STL@@@_STL@@@2@@_STL@@QAE@ABV?$allocator@U?$_List_node@V?$basic_string@DV?$char_traits@D@_STL@@V?$allocator@D@2@@_STL@@@_STL@@@1@PAU?$_List_node@V?$basic_string@DV?$char_traits@D@_STL@@V?$allocator@D@2@@_STL@@@1@@Z
_TEXT	SEGMENT PARA USE32 PUBLIC 'CODE'
_TEXT	ENDS
;	COMDAT ??0?$allocator@U?$_List_node@V?$basic_string@DV?$char_traits@D@_STL@@V?$allocator@D@2@@_STL@@@_STL@@@_STL@@QAE@ABV01@@Z
_TEXT	SEGMENT PARA USE32 PUBLIC 'CODE'
_TEXT	ENDS
;	COMDAT ??$?0V?$basic_string@DV?$char_traits@D@_STL@@V?$allocator@D@2@@_STL@@@?$allocator@U?$_List_node@V?$basic_string@DV?$char_traits@D@_STL@@V?$allocator@D@2@@_STL@@@_STL@@@_STL@@QAE@ABV?$allocator@V?$basic_string@DV?$char_traits@D@_STL@@V?$allocator@D@2@@_STL@@@1@@Z
_TEXT	SEGMENT PARA USE32 PUBLIC 'CODE'
_TEXT	ENDS
;	COMDAT ?setp@?$basic_streambuf@DV?$char_traits@D@_STL@@@_STL@@IAEXPAD0@Z
_TEXT	SEGMENT PARA USE32 PUBLIC 'CODE'
_TEXT	ENDS
;	COMDAT ?_FILE_O_set@_STL@@YAXPAU_iobuf@@PAD11@Z
_TEXT	SEGMENT PARA USE32 PUBLIC 'CODE'
_TEXT	ENDS
;	COMDAT ?_FILE_I_set@_STL@@YAXPAU_iobuf@@PAD11@Z
_TEXT	SEGMENT PARA USE32 PUBLIC 'CODE'
_TEXT	ENDS
;	COMDAT ?setg@?$basic_streambuf@DV?$char_traits@D@_STL@@@_STL@@IAEXPAD00@Z
_TEXT	SEGMENT PARA USE32 PUBLIC 'CODE'
_TEXT	ENDS
;	COMDAT ?__is_open@_Filebuf_base@_STL@@QBE_NXZ
_TEXT	SEGMENT PARA USE32 PUBLIC 'CODE'
_TEXT	ENDS
;	COMDAT ?allocate@?$__node_alloc@$00$0A@@_STL@@SAPAXI@Z
_TEXT	SEGMENT PARA USE32 PUBLIC 'CODE'
_TEXT	ENDS
;	COMDAT ?__stl_new@_STL@@YAPAXI@Z
_TEXT	SEGMENT PARA USE32 PUBLIC 'CODE'
_TEXT	ENDS
;	COMDAT ??1?$_STLP_alloc_proxy@PADDV?$allocator@D@_STL@@@_STL@@QAE@XZ
_TEXT	SEGMENT PARA USE32 PUBLIC 'CODE'
_TEXT	ENDS
;	COMDAT ?length@?$char_traits@D@_STL@@SAIPBD@Z
_TEXT	SEGMENT PARA USE32 PUBLIC 'CODE'
_TEXT	ENDS
;	COMDAT ?eof@?$__char_traits_base@DH@_STL@@SAHXZ
_TEXT	SEGMENT PARA USE32 PUBLIC 'CODE'
_TEXT	ENDS
;	COMDAT ??_R0?AVSocketInputStream@@@8
_DATA	SEGMENT DWORD USE32 PUBLIC 'DATA'
_DATA	ENDS
;	COMDAT ??_R0?AVSocketEncryptInputStream@@@8
_DATA	SEGMENT DWORD USE32 PUBLIC 'DATA'
_DATA	ENDS
;	COMDAT ??_R0?AVSocketOutputStream@@@8
_DATA	SEGMENT DWORD USE32 PUBLIC 'DATA'
_DATA	ENDS
;	COMDAT ??_R0?AVSocketEncryptOutputStream@@@8
_DATA	SEGMENT DWORD USE32 PUBLIC 'DATA'
_DATA	ENDS
;	COMDAT ??0NoSuchElementException@@QAE@XZ
_TEXT	SEGMENT PARA USE32 PUBLIC 'CODE'
_TEXT	ENDS
;	COMDAT ??0RuntimeException@@QAE@XZ
_TEXT	SEGMENT PARA USE32 PUBLIC 'CODE'
_TEXT	ENDS
;	COMDAT ??0Exception@@QAE@XZ
_TEXT	SEGMENT PARA USE32 PUBLIC 'CODE'
_TEXT	ENDS
;	COMDAT ??0Throwable@@QAE@XZ
_TEXT	SEGMENT PARA USE32 PUBLIC 'CODE'
_TEXT	ENDS
;	COMDAT ??0?$list@V?$basic_string@DV?$char_traits@D@_STL@@V?$allocator@D@2@@_STL@@V?$allocator@V?$basic_string@DV?$char_traits@D@_STL@@V?$allocator@D@2@@_STL@@@2@@_STL@@QAE@ABV?$allocator@V?$basic_string@DV?$char_traits@D@_STL@@V?$allocator@D@2@@_STL@@@1@@Z
_TEXT	SEGMENT PARA USE32 PUBLIC 'CODE'
_TEXT	ENDS
;	COMDAT ??0?$allocator@V?$basic_string@DV?$char_traits@D@_STL@@V?$allocator@D@2@@_STL@@@_STL@@QAE@XZ
_TEXT	SEGMENT PARA USE32 PUBLIC 'CODE'
_TEXT	ENDS
;	COMDAT ??_7RuntimeException@@6B@
CONST	SEGMENT DWORD USE32 PUBLIC 'CONST'
CONST	ENDS
;	COMDAT ??_R4RuntimeException@@6B@
rdata$r	SEGMENT DWORD USE32 PUBLIC 'CONST'
rdata$r	ENDS
;	COMDAT ??_R3RuntimeException@@8
rdata$r	SEGMENT DWORD USE32 PUBLIC 'CONST'
rdata$r	ENDS
;	COMDAT ??_R2RuntimeException@@8
rdata$r	SEGMENT DWORD USE32 PUBLIC 'CONST'
rdata$r	ENDS
;	COMDAT ??_R1A@?0A@A@RuntimeException@@8
rdata$r	SEGMENT DWORD USE32 PUBLIC 'CONST'
rdata$r	ENDS
;	COMDAT ??_R1A@?0A@A@Exception@@8
rdata$r	SEGMENT DWORD USE32 PUBLIC 'CONST'
rdata$r	ENDS
;	COMDAT ??_R1A@?0A@A@Throwable@@8
rdata$r	SEGMENT DWORD USE32 PUBLIC 'CONST'
rdata$r	ENDS
;	COMDAT ??_GRuntimeException@@UAEPAXI@Z
_TEXT	SEGMENT PARA USE32 PUBLIC 'CODE'
_TEXT	ENDS
;	COMDAT ?getName@RuntimeException@@UBE?AV?$basic_string@DV?$char_traits@D@_STL@@V?$allocator@D@2@@_STL@@XZ
_TEXT	SEGMENT PARA USE32 PUBLIC 'CODE'
_TEXT	ENDS
;	COMDAT ??_C@_0BB@CDLLKKB@RuntimeException?$AA@
CONST	SEGMENT DWORD USE32 PUBLIC 'CONST'
CONST	ENDS
;	COMDAT ?toString@Throwable@@UBE?AV?$basic_string@DV?$char_traits@D@_STL@@V?$allocator@D@2@@_STL@@XZ
_TEXT	SEGMENT PARA USE32 PUBLIC 'CODE'
_TEXT	ENDS
;	COMDAT ??_C@_03MCPBMLDJ@?5?3?5?$AA@
CONST	SEGMENT DWORD USE32 PUBLIC 'CONST'
CONST	ENDS
;	COMDAT ?getStackTrace@Throwable@@QBE?AV?$basic_string@DV?$char_traits@D@_STL@@V?$allocator@D@2@@_STL@@XZ
_TEXT	SEGMENT PARA USE32 PUBLIC 'CODE'
_TEXT	ENDS
;	COMDAT ??E?$_List_iterator@V?$basic_string@DV?$char_traits@D@_STL@@V?$allocator@D@2@@_STL@@U?$_Const_traits@V?$basic_string@DV?$char_traits@D@_STL@@V?$allocator@D@2@@_STL@@@2@@_STL@@QAE?AU01@H@Z
_TEXT	SEGMENT PARA USE32 PUBLIC 'CODE'
_TEXT	ENDS
;	COMDAT ??_C@_01CLKCMJKC@?5?$AA@
CONST	SEGMENT DWORD USE32 PUBLIC 'CONST'
CONST	ENDS
;	COMDAT ??_7OutOfBoundException@@6B@
CONST	SEGMENT DWORD USE32 PUBLIC 'CONST'
CONST	ENDS
;	COMDAT ??_R4OutOfBoundException@@6B@
rdata$r	SEGMENT DWORD USE32 PUBLIC 'CONST'
rdata$r	ENDS
;	COMDAT ??_R3OutOfBoundException@@8
rdata$r	SEGMENT DWORD USE32 PUBLIC 'CONST'
rdata$r	ENDS
;	COMDAT ??_R2OutOfBoundException@@8
rdata$r	SEGMENT DWORD USE32 PUBLIC 'CONST'
rdata$r	ENDS
;	COMDAT ??_R1A@?0A@A@OutOfBoundException@@8
rdata$r	SEGMENT DWORD USE32 PUBLIC 'CONST'
rdata$r	ENDS
;	COMDAT ??_GOutOfBoundException@@UAEPAXI@Z
_TEXT	SEGMENT PARA USE32 PUBLIC 'CODE'
_TEXT	ENDS
;	COMDAT ?getName@OutOfBoundException@@UBE?AV?$basic_string@DV?$char_traits@D@_STL@@V?$allocator@D@2@@_STL@@XZ
_TEXT	SEGMENT PARA USE32 PUBLIC 'CODE'
_TEXT	ENDS
;	COMDAT ??_C@_0BE@LPPFFNIN@OutOfBoundException?$AA@
CONST	SEGMENT DWORD USE32 PUBLIC 'CONST'
CONST	ENDS
;	COMDAT ??_7NoSuchElementException@@6B@
CONST	SEGMENT DWORD USE32 PUBLIC 'CONST'
CONST	ENDS
;	COMDAT ??_R4NoSuchElementException@@6B@
rdata$r	SEGMENT DWORD USE32 PUBLIC 'CONST'
rdata$r	ENDS
;	COMDAT ??_R3NoSuchElementException@@8
rdata$r	SEGMENT DWORD USE32 PUBLIC 'CONST'
rdata$r	ENDS
;	COMDAT ??_R2NoSuchElementException@@8
rdata$r	SEGMENT DWORD USE32 PUBLIC 'CONST'
rdata$r	ENDS
;	COMDAT ??_R1A@?0A@A@NoSuchElementException@@8
rdata$r	SEGMENT DWORD USE32 PUBLIC 'CONST'
rdata$r	ENDS
;	COMDAT ??_GNoSuchElementException@@UAEPAXI@Z
_TEXT	SEGMENT PARA USE32 PUBLIC 'CODE'
_TEXT	ENDS
;	COMDAT ?getName@NoSuchElementException@@UBE?AV?$basic_string@DV?$char_traits@D@_STL@@V?$allocator@D@2@@_STL@@XZ
_TEXT	SEGMENT PARA USE32 PUBLIC 'CODE'
_TEXT	ENDS
;	COMDAT ??_C@_0BH@EPEGACME@NoSuchElementException?$AA@
CONST	SEGMENT DWORD USE32 PUBLIC 'CONST'
CONST	ENDS
;	COMDAT ??1RuntimeException@@UAE@XZ
_TEXT	SEGMENT PARA USE32 PUBLIC 'CODE'
_TEXT	ENDS
;	COMDAT __CTA4?AVNoSuchElementException@@
xdata$x	SEGMENT DWORD USE32 PUBLIC 'CONST'
xdata$x	ENDS
;	COMDAT __CTA4?AVOutOfBoundException@@
xdata$x	SEGMENT DWORD USE32 PUBLIC 'CONST'
xdata$x	ENDS
;	COMDAT ??1OutOfBoundException@@UAE@XZ
_TEXT	SEGMENT PARA USE32 PUBLIC 'CODE'
_TEXT	ENDS
;	COMDAT __CT??_R0?AVNoSuchElementException@@@8??0NoSuchElementException@@QAE@ABV0@@Z20
xdata$x	SEGMENT DWORD USE32 PUBLIC 'CONST'
xdata$x	ENDS
;	COMDAT __CT??_R0?AVRuntimeException@@@8??0RuntimeException@@QAE@ABV0@@Z20
xdata$x	SEGMENT DWORD USE32 PUBLIC 'CONST'
xdata$x	ENDS
;	COMDAT __CT??_R0?AVOutOfBoundException@@@8??0OutOfBoundException@@QAE@ABV0@@Z20
xdata$x	SEGMENT DWORD USE32 PUBLIC 'CONST'
xdata$x	ENDS
;	COMDAT ??_R0?AVNoSuchElementException@@@8
_DATA	SEGMENT DWORD USE32 PUBLIC 'DATA'
_DATA	ENDS
;	COMDAT ??_R0?AVRuntimeException@@@8
_DATA	SEGMENT DWORD USE32 PUBLIC 'DATA'
_DATA	ENDS
;	COMDAT ??_R0?AVOutOfBoundException@@@8
_DATA	SEGMENT DWORD USE32 PUBLIC 'DATA'
_DATA	ENDS
;	COMDAT __TI4?AVNoSuchElementException@@
xdata$x	SEGMENT DWORD USE32 PUBLIC 'CONST'
xdata$x	ENDS
;	COMDAT ??1NoSuchElementException@@UAE@XZ
_TEXT	SEGMENT PARA USE32 PUBLIC 'CODE'
_TEXT	ENDS
;	COMDAT ??0NoSuchElementException@@QAE@V?$basic_string@DV?$char_traits@D@_STL@@V?$allocator@D@2@@_STL@@@Z
_TEXT	SEGMENT PARA USE32 PUBLIC 'CODE'
_TEXT	ENDS
;	COMDAT ??0RuntimeException@@QAE@V?$basic_string@DV?$char_traits@D@_STL@@V?$allocator@D@2@@_STL@@@Z
_TEXT	SEGMENT PARA USE32 PUBLIC 'CODE'
_TEXT	ENDS
;	COMDAT ??0Exception@@QAE@V?$basic_string@DV?$char_traits@D@_STL@@V?$allocator@D@2@@_STL@@@Z
_TEXT	SEGMENT PARA USE32 PUBLIC 'CODE'
_TEXT	ENDS
;	COMDAT ??0Throwable@@QAE@V?$basic_string@DV?$char_traits@D@_STL@@V?$allocator@D@2@@_STL@@@Z
_TEXT	SEGMENT PARA USE32 PUBLIC 'CODE'
_TEXT	ENDS
;	COMDAT __TI4?AVOutOfBoundException@@
xdata$x	SEGMENT DWORD USE32 PUBLIC 'CONST'
xdata$x	ENDS
;	COMDAT ??0OutOfBoundException@@QAE@XZ
_TEXT	SEGMENT PARA USE32 PUBLIC 'CODE'
_TEXT	ENDS
;	COMDAT ??_R0?AVConnectException@@@8
_DATA	SEGMENT DWORD USE32 PUBLIC 'DATA'
_DATA	ENDS
;	COMDAT ??_7InsufficientDataException@@6B@
CONST	SEGMENT DWORD USE32 PUBLIC 'CONST'
CONST	ENDS
;	COMDAT ??_R4InsufficientDataException@@6B@
rdata$r	SEGMENT DWORD USE32 PUBLIC 'CONST'
rdata$r	ENDS
;	COMDAT ??_R3InsufficientDataException@@8
rdata$r	SEGMENT DWORD USE32 PUBLIC 'CONST'
rdata$r	ENDS
;	COMDAT ??_R2InsufficientDataException@@8
rdata$r	SEGMENT DWORD USE32 PUBLIC 'CONST'
rdata$r	ENDS
;	COMDAT ??_R1A@?0A@A@InsufficientDataException@@8
rdata$r	SEGMENT DWORD USE32 PUBLIC 'CONST'
rdata$r	ENDS
;	COMDAT ??_R1A@?0A@A@ProtocolException@@8
rdata$r	SEGMENT DWORD USE32 PUBLIC 'CONST'
rdata$r	ENDS
;	COMDAT ??_R1A@?0A@A@IOException@@8
rdata$r	SEGMENT DWORD USE32 PUBLIC 'CONST'
rdata$r	ENDS
;	COMDAT ??_GInsufficientDataException@@UAEPAXI@Z
_TEXT	SEGMENT PARA USE32 PUBLIC 'CODE'
_TEXT	ENDS
;	COMDAT ?getName@InsufficientDataException@@UBE?AV?$basic_string@DV?$char_traits@D@_STL@@V?$allocator@D@2@@_STL@@XZ
_TEXT	SEGMENT PARA USE32 PUBLIC 'CODE'
_TEXT	ENDS
;	COMDAT ??_C@_0BK@MPNKHNEB@InsufficientDataException?$AA@
CONST	SEGMENT DWORD USE32 PUBLIC 'CONST'
CONST	ENDS
;	COMDAT ?toString@InsufficientDataException@@UBE?AV?$basic_string@DV?$char_traits@D@_STL@@V?$allocator@D@2@@_STL@@XZ
_TEXT	SEGMENT PARA USE32 PUBLIC 'CODE'
_TEXT	ENDS
;	COMDAT ?getMessage@Throwable@@QBE?AV?$basic_string@DV?$char_traits@D@_STL@@V?$allocator@D@2@@_STL@@XZ
_TEXT	SEGMENT PARA USE32 PUBLIC 'CODE'
_TEXT	ENDS
;	COMDAT ??_C@_0M@OKDIKPDP@?5?$CI?5lack?5of?5?$AA@
CONST	SEGMENT DWORD USE32 PUBLIC 'CONST'
CONST	ENDS
;	COMDAT ??_C@_09BIPHNNF@?5bytes?5?$CJ?6?$AA@
CONST	SEGMENT DWORD USE32 PUBLIC 'CONST'
CONST	ENDS
;	COMDAT ??_7Exception@@6B@
CONST	SEGMENT DWORD USE32 PUBLIC 'CONST'
CONST	ENDS
;	COMDAT ??_R4Exception@@6B@
rdata$r	SEGMENT DWORD USE32 PUBLIC 'CONST'
rdata$r	ENDS
;	COMDAT ??_R3Exception@@8
rdata$r	SEGMENT DWORD USE32 PUBLIC 'CONST'
rdata$r	ENDS
;	COMDAT ??_R2Exception@@8
rdata$r	SEGMENT DWORD USE32 PUBLIC 'CONST'
rdata$r	ENDS
;	COMDAT ??_GException@@UAEPAXI@Z
_TEXT	SEGMENT PARA USE32 PUBLIC 'CODE'
_TEXT	ENDS
;	COMDAT ?getName@Exception@@UBE?AV?$basic_string@DV?$char_traits@D@_STL@@V?$allocator@D@2@@_STL@@XZ
_TEXT	SEGMENT PARA USE32 PUBLIC 'CODE'
_TEXT	ENDS
;	COMDAT ??_C@_09FBNMMHMJ@Exception?$AA@
CONST	SEGMENT DWORD USE32 PUBLIC 'CONST'
CONST	ENDS
;	COMDAT ??_7IOException@@6B@
CONST	SEGMENT DWORD USE32 PUBLIC 'CONST'
CONST	ENDS
;	COMDAT ??_R4IOException@@6B@
rdata$r	SEGMENT DWORD USE32 PUBLIC 'CONST'
rdata$r	ENDS
;	COMDAT ??_R3IOException@@8
rdata$r	SEGMENT DWORD USE32 PUBLIC 'CONST'
rdata$r	ENDS
;	COMDAT ??_R2IOException@@8
rdata$r	SEGMENT DWORD USE32 PUBLIC 'CONST'
rdata$r	ENDS
;	COMDAT ??_GIOException@@UAEPAXI@Z
_TEXT	SEGMENT PARA USE32 PUBLIC 'CODE'
_TEXT	ENDS
;	COMDAT ?getName@IOException@@UBE?AV?$basic_string@DV?$char_traits@D@_STL@@V?$allocator@D@2@@_STL@@XZ
_TEXT	SEGMENT PARA USE32 PUBLIC 'CODE'
_TEXT	ENDS
;	COMDAT ??_C@_0M@CBPJAJJI@IOException?$AA@
CONST	SEGMENT DWORD USE32 PUBLIC 'CONST'
CONST	ENDS
;	COMDAT ??1Exception@@UAE@XZ
_TEXT	SEGMENT PARA USE32 PUBLIC 'CODE'
_TEXT	ENDS
;	COMDAT ??_7ProtocolException@@6B@
CONST	SEGMENT DWORD USE32 PUBLIC 'CONST'
CONST	ENDS
;	COMDAT ??_R4ProtocolException@@6B@
rdata$r	SEGMENT DWORD USE32 PUBLIC 'CONST'
rdata$r	ENDS
;	COMDAT ??_R3ProtocolException@@8
rdata$r	SEGMENT DWORD USE32 PUBLIC 'CONST'
rdata$r	ENDS
;	COMDAT ??_R2ProtocolException@@8
rdata$r	SEGMENT DWORD USE32 PUBLIC 'CONST'
rdata$r	ENDS
;	COMDAT ??_GProtocolException@@UAEPAXI@Z
_TEXT	SEGMENT PARA USE32 PUBLIC 'CODE'
_TEXT	ENDS
;	COMDAT ?getName@ProtocolException@@UBE?AV?$basic_string@DV?$char_traits@D@_STL@@V?$allocator@D@2@@_STL@@XZ
_TEXT	SEGMENT PARA USE32 PUBLIC 'CODE'
_TEXT	ENDS
;	COMDAT ??_C@_0BC@KDBIDNIF@ProtocolException?$AA@
CONST	SEGMENT DWORD USE32 PUBLIC 'CONST'
CONST	ENDS
;	COMDAT ??1IOException@@UAE@XZ
_TEXT	SEGMENT PARA USE32 PUBLIC 'CODE'
_TEXT	ENDS
;	COMDAT ??_7InvalidProtocolException@@6B@
CONST	SEGMENT DWORD USE32 PUBLIC 'CONST'
CONST	ENDS
;	COMDAT ??_R4InvalidProtocolException@@6B@
rdata$r	SEGMENT DWORD USE32 PUBLIC 'CONST'
rdata$r	ENDS
;	COMDAT ??_R3InvalidProtocolException@@8
rdata$r	SEGMENT DWORD USE32 PUBLIC 'CONST'
rdata$r	ENDS
;	COMDAT ??_R2InvalidProtocolException@@8
rdata$r	SEGMENT DWORD USE32 PUBLIC 'CONST'
rdata$r	ENDS
;	COMDAT ??_R1A@?0A@A@InvalidProtocolException@@8
rdata$r	SEGMENT DWORD USE32 PUBLIC 'CONST'
rdata$r	ENDS
;	COMDAT ??_GInvalidProtocolException@@UAEPAXI@Z
_TEXT	SEGMENT PARA USE32 PUBLIC 'CODE'
_TEXT	ENDS
;	COMDAT ?getName@InvalidProtocolException@@UBE?AV?$basic_string@DV?$char_traits@D@_STL@@V?$allocator@D@2@@_STL@@XZ
_TEXT	SEGMENT PARA USE32 PUBLIC 'CODE'
_TEXT	ENDS
;	COMDAT ??_C@_0BJ@BKELNFKP@InvalidProtocolException?$AA@
CONST	SEGMENT DWORD USE32 PUBLIC 'CONST'
CONST	ENDS
;	COMDAT ??1ProtocolException@@UAE@XZ
_TEXT	SEGMENT PARA USE32 PUBLIC 'CODE'
_TEXT	ENDS
;	COMDAT __CTA5?AVInsufficientDataException@@
xdata$x	SEGMENT DWORD USE32 PUBLIC 'CONST'
xdata$x	ENDS
;	COMDAT ??1InsufficientDataException@@UAE@XZ
_TEXT	SEGMENT PARA USE32 PUBLIC 'CODE'
_TEXT	ENDS
;	COMDAT __CTA5?AVInvalidProtocolException@@
xdata$x	SEGMENT DWORD USE32 PUBLIC 'CONST'
xdata$x	ENDS
;	COMDAT __CT??_R0?AVInsufficientDataException@@@8??0InsufficientDataException@@QAE@ABV0@@Z24
xdata$x	SEGMENT DWORD USE32 PUBLIC 'CONST'
xdata$x	ENDS
;	COMDAT __CT??_R0?AVException@@@8??0Exception@@QAE@ABV0@@Z20
xdata$x	SEGMENT DWORD USE32 PUBLIC 'CONST'
xdata$x	ENDS
;	COMDAT __CT??_R0?AVIOException@@@8??0IOException@@QAE@ABV0@@Z20
xdata$x	SEGMENT DWORD USE32 PUBLIC 'CONST'
xdata$x	ENDS
;	COMDAT __CT??_R0?AVProtocolException@@@8??0ProtocolException@@QAE@ABV0@@Z20
xdata$x	SEGMENT DWORD USE32 PUBLIC 'CONST'
xdata$x	ENDS
;	COMDAT __CT??_R0?AVInvalidProtocolException@@@8??0InvalidProtocolException@@QAE@ABV0@@Z20
xdata$x	SEGMENT DWORD USE32 PUBLIC 'CONST'
xdata$x	ENDS
;	COMDAT ??_R0?AVException@@@8
_DATA	SEGMENT DWORD USE32 PUBLIC 'DATA'
_DATA	ENDS
;	COMDAT ??_R0?AVIOException@@@8
_DATA	SEGMENT DWORD USE32 PUBLIC 'DATA'
_DATA	ENDS
;	COMDAT ??_R0?AVProtocolException@@@8
_DATA	SEGMENT DWORD USE32 PUBLIC 'DATA'
_DATA	ENDS
;	COMDAT ??_R0?AVInvalidProtocolException@@@8
_DATA	SEGMENT DWORD USE32 PUBLIC 'DATA'
_DATA	ENDS
;	COMDAT ??_R0?AVInsufficientDataException@@@8
_DATA	SEGMENT DWORD USE32 PUBLIC 'DATA'
_DATA	ENDS
;	COMDAT __TI5?AVInsufficientDataException@@
xdata$x	SEGMENT DWORD USE32 PUBLIC 'CONST'
xdata$x	ENDS
;	COMDAT ??0InsufficientDataException@@QAE@I@Z
_TEXT	SEGMENT PARA USE32 PUBLIC 'CODE'
_TEXT	ENDS
;	COMDAT ??0ProtocolException@@QAE@XZ
_TEXT	SEGMENT PARA USE32 PUBLIC 'CODE'
_TEXT	ENDS
;	COMDAT ??0IOException@@QAE@XZ
_TEXT	SEGMENT PARA USE32 PUBLIC 'CODE'
_TEXT	ENDS
;	COMDAT ??_R0?AVIgnorePacketException@@@8
_DATA	SEGMENT DWORD USE32 PUBLIC 'DATA'
_DATA	ENDS
;	COMDAT __TI5?AVInvalidProtocolException@@
xdata$x	SEGMENT DWORD USE32 PUBLIC 'CONST'
xdata$x	ENDS
;	COMDAT ??1InvalidProtocolException@@UAE@XZ
_TEXT	SEGMENT PARA USE32 PUBLIC 'CODE'
_TEXT	ENDS
;	COMDAT ??1?$allocator@D@_STL@@QAE@XZ
_TEXT	SEGMENT PARA USE32 PUBLIC 'CODE'
_TEXT	ENDS
;	COMDAT ??0?$allocator@D@_STL@@QAE@XZ
_TEXT	SEGMENT PARA USE32 PUBLIC 'CODE'
_TEXT	ENDS
;	COMDAT ??0?$basic_string@DV?$char_traits@D@_STL@@V?$allocator@D@2@@_STL@@QAE@PBDABV?$allocator@D@1@@Z
_TEXT	SEGMENT PARA USE32 PUBLIC 'CODE'
_TEXT	ENDS
;	COMDAT ??1?$_String_base@DV?$allocator@D@_STL@@@_STL@@QAE@XZ
_TEXT	SEGMENT PARA USE32 PUBLIC 'CODE'
_TEXT	ENDS
;	COMDAT ??0InvalidProtocolException@@QAE@V?$basic_string@DV?$char_traits@D@_STL@@V?$allocator@D@2@@_STL@@@Z
_TEXT	SEGMENT PARA USE32 PUBLIC 'CODE'
_TEXT	ENDS
;	COMDAT ??0ProtocolException@@QAE@V?$basic_string@DV?$char_traits@D@_STL@@V?$allocator@D@2@@_STL@@@Z
_TEXT	SEGMENT PARA USE32 PUBLIC 'CODE'
_TEXT	ENDS
;	COMDAT ??0IOException@@QAE@V?$basic_string@DV?$char_traits@D@_STL@@V?$allocator@D@2@@_STL@@@Z
_TEXT	SEGMENT PARA USE32 PUBLIC 'CODE'
_TEXT	ENDS
;	COMDAT ??_7ClientPlayer@@6B@
CONST	SEGMENT DWORD USE32 PUBLIC 'CONST'
CONST	ENDS
;	COMDAT ??_7MObject@@6B@
CONST	SEGMENT DWORD USE32 PUBLIC 'CONST'
CONST	ENDS
;	COMDAT ??_7SocketEncryptOutputStream@@6B@
CONST	SEGMENT DWORD USE32 PUBLIC 'CONST'
CONST	ENDS
;	COMDAT ??_7SocketEncryptInputStream@@6B@
CONST	SEGMENT DWORD USE32 PUBLIC 'CONST'
CONST	ENDS
;	COMDAT ??_7ovfstream@@6B@
CONST	SEGMENT DWORD USE32 PUBLIC 'CONST'
CONST	ENDS
;	COMDAT ??_7ivfstream@@6B@
CONST	SEGMENT DWORD USE32 PUBLIC 'CONST'
CONST	ENDS
;	COMDAT ??0?$basic_string@DV?$char_traits@D@_STL@@V?$allocator@D@2@@_STL@@QAE@XZ
_TEXT	SEGMENT PARA USE32 PUBLIC 'CODE'
_TEXT	ENDS
;	COMDAT ??_7iovfs_base@@6B@
CONST	SEGMENT DWORD USE32 PUBLIC 'CONST'
CONST	ENDS
;	COMDAT ??_7IFileIO@@6B@
CONST	SEGMENT DWORD USE32 PUBLIC 'CONST'
CONST	ENDS
;	COMDAT ??_7PacketFactory@@6B@
CONST	SEGMENT DWORD USE32 PUBLIC 'CONST'
CONST	ENDS
;	COMDAT ??1?$list@V?$basic_string@DV?$char_traits@D@_STL@@V?$allocator@D@2@@_STL@@V?$allocator@V?$basic_string@DV?$char_traits@D@_STL@@V?$allocator@D@2@@_STL@@@2@@_STL@@QAE@XZ
_TEXT	SEGMENT PARA USE32 PUBLIC 'CODE'
_TEXT	ENDS
;	COMDAT ??_7Throwable@@6B@
CONST	SEGMENT DWORD USE32 PUBLIC 'CONST'
CONST	ENDS
;	COMDAT ??_R4Throwable@@6B@
rdata$r	SEGMENT DWORD USE32 PUBLIC 'CONST'
rdata$r	ENDS
;	COMDAT ??_R3Throwable@@8
rdata$r	SEGMENT DWORD USE32 PUBLIC 'CONST'
rdata$r	ENDS
;	COMDAT ??_R2Throwable@@8
rdata$r	SEGMENT DWORD USE32 PUBLIC 'CONST'
rdata$r	ENDS
;	COMDAT ??_GThrowable@@UAEPAXI@Z
_TEXT	SEGMENT PARA USE32 PUBLIC 'CODE'
_TEXT	ENDS
;	COMDAT ?getName@Throwable@@UBE?AV?$basic_string@DV?$char_traits@D@_STL@@V?$allocator@D@2@@_STL@@XZ
_TEXT	SEGMENT PARA USE32 PUBLIC 'CODE'
_TEXT	ENDS
;	COMDAT ??_C@_09KCKHMJEM@Throwable?$AA@
CONST	SEGMENT DWORD USE32 PUBLIC 'CONST'
CONST	ENDS
;	COMDAT ??_7Error@@6B@
CONST	SEGMENT DWORD USE32 PUBLIC 'CONST'
CONST	ENDS
;	COMDAT ??_R4Error@@6B@
rdata$r	SEGMENT DWORD USE32 PUBLIC 'CONST'
rdata$r	ENDS
;	COMDAT ??_R3Error@@8
rdata$r	SEGMENT DWORD USE32 PUBLIC 'CONST'
rdata$r	ENDS
;	COMDAT ??_R2Error@@8
rdata$r	SEGMENT DWORD USE32 PUBLIC 'CONST'
rdata$r	ENDS
;	COMDAT ??_R1A@?0A@A@Error@@8
rdata$r	SEGMENT DWORD USE32 PUBLIC 'CONST'
rdata$r	ENDS
;	COMDAT ??_GError@@UAEPAXI@Z
_TEXT	SEGMENT PARA USE32 PUBLIC 'CODE'
_TEXT	ENDS
;	COMDAT ?getName@Error@@UBE?AV?$basic_string@DV?$char_traits@D@_STL@@V?$allocator@D@2@@_STL@@XZ
_TEXT	SEGMENT PARA USE32 PUBLIC 'CODE'
_TEXT	ENDS
;	COMDAT ??_C@_05NAOIJFC@Error?$AA@
CONST	SEGMENT DWORD USE32 PUBLIC 'CONST'
CONST	ENDS
;	COMDAT ??1Throwable@@UAE@XZ
_TEXT	SEGMENT PARA USE32 PUBLIC 'CODE'
_TEXT	ENDS
;	COMDAT ??_7UnsupportedError@@6B@
CONST	SEGMENT DWORD USE32 PUBLIC 'CONST'
CONST	ENDS
;	COMDAT ??_R4UnsupportedError@@6B@
rdata$r	SEGMENT DWORD USE32 PUBLIC 'CONST'
rdata$r	ENDS
;	COMDAT ??_R3UnsupportedError@@8
rdata$r	SEGMENT DWORD USE32 PUBLIC 'CONST'
rdata$r	ENDS
;	COMDAT ??_R2UnsupportedError@@8
rdata$r	SEGMENT DWORD USE32 PUBLIC 'CONST'
rdata$r	ENDS
;	COMDAT ??_R1A@?0A@A@UnsupportedError@@8
rdata$r	SEGMENT DWORD USE32 PUBLIC 'CONST'
rdata$r	ENDS
;	COMDAT ??_GUnsupportedError@@UAEPAXI@Z
_TEXT	SEGMENT PARA USE32 PUBLIC 'CODE'
_TEXT	ENDS
;	COMDAT ?getName@UnsupportedError@@UBE?AV?$basic_string@DV?$char_traits@D@_STL@@V?$allocator@D@2@@_STL@@XZ
_TEXT	SEGMENT PARA USE32 PUBLIC 'CODE'
_TEXT	ENDS
;	COMDAT ??_C@_0BB@EOCHEBED@UnsupportedError?$AA@
CONST	SEGMENT DWORD USE32 PUBLIC 'CONST'
CONST	ENDS
;	COMDAT ??1Error@@UAE@XZ
_TEXT	SEGMENT PARA USE32 PUBLIC 'CODE'
_TEXT	ENDS
;	COMDAT __CTA3?AVUnsupportedError@@
xdata$x	SEGMENT DWORD USE32 PUBLIC 'CONST'
xdata$x	ENDS
;	COMDAT ??1UnsupportedError@@UAE@XZ
_TEXT	SEGMENT PARA USE32 PUBLIC 'CODE'
_TEXT	ENDS
;	COMDAT __CT??_R0?AVThrowable@@@8??0Throwable@@QAE@ABV0@@Z20
xdata$x	SEGMENT DWORD USE32 PUBLIC 'CONST'
xdata$x	ENDS
;	COMDAT __CT??_R0?AVError@@@8??0Error@@QAE@ABV0@@Z20
xdata$x	SEGMENT DWORD USE32 PUBLIC 'CONST'
xdata$x	ENDS
;	COMDAT __CT??_R0?AVUnsupportedError@@@8??0UnsupportedError@@QAE@ABV0@@Z20
xdata$x	SEGMENT DWORD USE32 PUBLIC 'CONST'
xdata$x	ENDS
;	COMDAT ??_R0?AVThrowable@@@8
_DATA	SEGMENT DWORD USE32 PUBLIC 'DATA'
_DATA	ENDS
;	COMDAT ??_R0?AVError@@@8
_DATA	SEGMENT DWORD USE32 PUBLIC 'DATA'
_DATA	ENDS
;	COMDAT ??_R0?AVUnsupportedError@@@8
_DATA	SEGMENT DWORD USE32 PUBLIC 'DATA'
_DATA	ENDS
;	COMDAT __TI3?AVUnsupportedError@@
xdata$x	SEGMENT DWORD USE32 PUBLIC 'CONST'
xdata$x	ENDS
;	COMDAT ??0UnsupportedError@@QAE@XZ
_TEXT	SEGMENT PARA USE32 PUBLIC 'CODE'
_TEXT	ENDS
;	COMDAT ??0Error@@QAE@XZ
_TEXT	SEGMENT PARA USE32 PUBLIC 'CODE'
_TEXT	ENDS
;	COMDAT ??_7Packet@@6B@
CONST	SEGMENT DWORD USE32 PUBLIC 'CONST'
CONST	ENDS
;	COMDAT ??1?$basic_string@DV?$char_traits@D@_STL@@V?$allocator@D@2@@_STL@@QAE@XZ
_TEXT	SEGMENT PARA USE32 PUBLIC 'CODE'
_TEXT	ENDS
;	COMDAT ??0?$basic_string@DV?$char_traits@D@_STL@@V?$allocator@D@2@@_STL@@QAE@ABV01@@Z
_TEXT	SEGMENT PARA USE32 PUBLIC 'CODE'
_TEXT	ENDS
;	COMDAT ??4?$basic_string@DV?$char_traits@D@_STL@@V?$allocator@D@2@@_STL@@QAEAAV01@ABV01@@Z
_TEXT	SEGMENT PARA USE32 PUBLIC 'CODE'
_TEXT	ENDS
;	COMDAT ??$assign@PAD@?$basic_string@DV?$char_traits@D@_STL@@V?$allocator@D@2@@_STL@@QAEAAV01@PAD0@Z
_TEXT	SEGMENT PARA USE32 PUBLIC 'CODE'
_TEXT	ENDS
sxdata	SEGMENT DWORD USE32 'SXDATA'
sxdata	ENDS
FLAT	GROUP _DATA, CONST, _BSS
	ASSUME	CS: FLAT, DS: FLAT, SS: FLAT
endif

INCLUDELIB LIBCMT
INCLUDELIB OLDNAMES

PUBLIC	??_C@_0O@JKENFCBN@MinTrace?52003?$AA@		; `string'
PUBLIC	??_C@_0BE@MNEJIGLM@__MinTrace?5Window__?$AA@	; `string'
;	COMDAT ??_C@_0O@JKENFCBN@MinTrace?52003?$AA@
CONST	SEGMENT
??_C@_0O@JKENFCBN@MinTrace?52003?$AA@ DB 'MinTrace 2003', 00H ; `string'
CONST	ENDS
_DATA	SEGMENT
_g_pszMinTraceTitle DD FLAT:??_C@_0O@JKENFCBN@MinTrace?52003?$AA@
_DATA	ENDS
;	COMDAT ??_C@_0BE@MNEJIGLM@__MinTrace?5Window__?$AA@
CONST	SEGMENT
??_C@_0BE@MNEJIGLM@__MinTrace?5Window__?$AA@ DB '__MinTrace Window__', 00H ; `string'
CONST	ENDS
_DATA	SEGMENT
_g_pszMinTraceClassName DD FLAT:??_C@_0BE@MNEJIGLM@__MinTrace?5Window__?$AA@
_DATA	ENDS
PUBLIC	?getSOCKET@SocketImpl@@QBEIXZ			; SocketImpl::getSOCKET
; Function compile flags: /Ogsy
; File c:\darkeden\designed_common\project\client\packet\socketimpl.h
;	COMDAT ?getSOCKET@SocketImpl@@QBEIXZ
_TEXT	SEGMENT
?getSOCKET@SocketImpl@@QBEIXZ PROC NEAR			; SocketImpl::getSOCKET, COMDAT
; _this$ = ecx

; 123  : 	SOCKET getSOCKET () const throw () { return m_SocketID; }

  00000	8b 41 04	 mov	 eax, DWORD PTR [ecx+4]
  00003	c3		 ret	 0
?getSOCKET@SocketImpl@@QBEIXZ ENDP			; SocketImpl::getSOCKET
_TEXT	ENDS
PUBLIC	?close@Socket@@QAEXXZ				; Socket::close
EXTRN	?close@SocketImpl@@QAEXXZ:NEAR			; SocketImpl::close
; Function compile flags: /Ogsy
; File c:\darkeden\designed_common\project\client\packet\socket.h
;	COMDAT ?close@Socket@@QAEXXZ
_TEXT	SEGMENT
?close@Socket@@QAEXXZ PROC NEAR				; Socket::close, COMDAT
; _this$ = ecx

; 54   : 	void close () throw ( Error ) { m_pSocketImpl->close(); }

  00000	8b 49 04	 mov	 ecx, DWORD PTR [ecx+4]
  00003	e9 00 00 00 00	 jmp	 ?close@SocketImpl@@QAEXXZ ; SocketImpl::close
?close@Socket@@QAEXXZ ENDP				; Socket::close
_TEXT	ENDS
PUBLIC	??2@YAPAXIPAX@Z					; operator new
; Function compile flags: /Ogsy
; File c:\program files\microsoft visual studio .net 2003\vc7\include\new
;	COMDAT ??2@YAPAXIPAX@Z
_TEXT	SEGMENT
___formal$ = 8						; size = 4
__Where$ = 12						; size = 4
??2@YAPAXIPAX@Z PROC NEAR				; operator new, COMDAT

; 64   : 	return (_Where);

  00000	8b 44 24 08	 mov	 eax, DWORD PTR __Where$[esp-4]

; 65   : 	}

  00004	c3		 ret	 0
??2@YAPAXIPAX@Z ENDP					; operator new
_TEXT	ENDS
PUBLIC	??3@YAXPAX0@Z					; operator delete
; Function compile flags: /Ogsy
;	COMDAT ??3@YAXPAX0@Z
_TEXT	SEGMENT
___formal$ = 8						; size = 4
___formal$ = 12						; size = 4
??3@YAXPAX0@Z PROC NEAR					; operator delete, COMDAT

; 69   : 	}

  00000	c3		 ret	 0
??3@YAXPAX0@Z ENDP					; operator delete
_TEXT	ENDS
PUBLIC	?__stl_new@_STL@@YAPAXI@Z			; _STL::__stl_new
EXTRN	??2@YAPAXI@Z:NEAR				; operator new
; Function compile flags: /Ogsy
; File c:\stlport-4.6.1\stlport\stl\_new.h
;	COMDAT ?__stl_new@_STL@@YAPAXI@Z
_TEXT	SEGMENT
___n$ = 8						; size = 4
?__stl_new@_STL@@YAPAXI@Z PROC NEAR			; _STL::__stl_new, COMDAT

; 86   : inline void*  _STLP_CALL __stl_new(size_t __n)   { _STLP_CHECK_NULL_ALLOC(::operator _STLP_NEW(__n)); }

  00000	e9 00 00 00 00	 jmp	 ??2@YAPAXI@Z		; operator new
?__stl_new@_STL@@YAPAXI@Z ENDP				; _STL::__stl_new
_TEXT	ENDS
PUBLIC	?__stl_delete@_STL@@YAXPAX@Z			; _STL::__stl_delete
EXTRN	??3@YAXPAX@Z:NEAR				; operator delete
; Function compile flags: /Ogsy
;	COMDAT ?__stl_delete@_STL@@YAXPAX@Z
_TEXT	SEGMENT
___p$ = 8						; size = 4
?__stl_delete@_STL@@YAXPAX@Z PROC NEAR			; _STL::__stl_delete, COMDAT

; 87   : inline void   _STLP_CALL __stl_delete(void* __p) { ::operator delete(__p); }

  00000	e9 00 00 00 00	 jmp	 ??3@YAXPAX@Z		; operator delete
?__stl_delete@_STL@@YAXPAX@Z ENDP			; _STL::__stl_delete
_TEXT	ENDS
PUBLIC	?getSOCKET@Socket@@QBEIXZ			; Socket::getSOCKET
; Function compile flags: /Ogsy
; File c:\darkeden\designed_common\project\client\packet\socket.h
;	COMDAT ?getSOCKET@Socket@@QBEIXZ
_TEXT	SEGMENT
?getSOCKET@Socket@@QBEIXZ PROC NEAR			; Socket::getSOCKET, COMDAT
; _this$ = ecx

; 102  : 	SOCKET getSOCKET () const throw () { return m_pSocketImpl->getSOCKET(); }

  00000	8b 41 04	 mov	 eax, DWORD PTR [ecx+4]
  00003	8b 40 04	 mov	 eax, DWORD PTR [eax+4]
  00006	c3		 ret	 0
?getSOCKET@Socket@@QBEIXZ ENDP				; Socket::getSOCKET
_TEXT	ENDS
PUBLIC	?_Destroy@_STL@@YAXPAD0@Z			; _STL::_Destroy
; Function compile flags: /Ogsy
; File c:\stlport-4.6.1\stlport\stl\_construct.h
;	COMDAT ?_Destroy@_STL@@YAXPAD0@Z
_TEXT	SEGMENT
___formal$ = 8						; size = 4
___formal$ = 12						; size = 4
?_Destroy@_STL@@YAXPAD0@Z PROC NEAR			; _STL::_Destroy, COMDAT

; 142  : inline void _Destroy(char*, char*) {}

  00000	c3		 ret	 0
?_Destroy@_STL@@YAXPAD0@Z ENDP				; _STL::_Destroy
_TEXT	ENDS
PUBLIC	?__copy_trivial@_STL@@YAPAXPBX0PAX@Z		; _STL::__copy_trivial
EXTRN	_memmove:NEAR
; Function compile flags: /Ogsy
; File c:\stlport-4.6.1\stlport\stl\_algobase.h
;	COMDAT ?__copy_trivial@_STL@@YAPAXPBX0PAX@Z
_TEXT	SEGMENT
___first$ = 8						; size = 4
___last$ = 12						; size = 4
___result$ = 16						; size = 4
?__copy_trivial@_STL@@YAPAXPBX0PAX@Z PROC NEAR		; _STL::__copy_trivial, COMDAT

; 147  : __copy_trivial(const void* __first, const void* __last, void* __result) {

  00000	55		 push	 ebp
  00001	8b ec		 mov	 ebp, esp
  00003	56		 push	 esi

; 148  :   return (__last == __first) ? __result : 
; 149  :     ((char*)memmove(__result, __first, ((const char*)__last - (const char*)__first))) + 
; 150  :     ((const char*)__last - (const char*)__first);

  00004	8b 75 0c	 mov	 esi, DWORD PTR ___last$[ebp]
  00007	3b 75 08	 cmp	 esi, DWORD PTR ___first$[ebp]
  0000a	75 05		 jne	 SHORT $L114716
  0000c	8b 45 10	 mov	 eax, DWORD PTR ___result$[ebp]
  0000f	eb 14		 jmp	 SHORT $L114717
$L114716:
  00011	2b 75 08	 sub	 esi, DWORD PTR ___first$[ebp]
  00014	56		 push	 esi
  00015	ff 75 08	 push	 DWORD PTR ___first$[ebp]
  00018	ff 75 10	 push	 DWORD PTR ___result$[ebp]
  0001b	e8 00 00 00 00	 call	 _memmove
  00020	83 c4 0c	 add	 esp, 12			; 0000000cH
  00023	03 c6		 add	 eax, esi
$L114717:
  00025	5e		 pop	 esi

; 151  : }

  00026	5d		 pop	 ebp
  00027	c3		 ret	 0
?__copy_trivial@_STL@@YAPAXPBX0PAX@Z ENDP		; _STL::__copy_trivial
_TEXT	ENDS
PUBLIC	?__copy_trivial_backward@_STL@@YAPAXPBX0PAX@Z	; _STL::__copy_trivial_backward
; Function compile flags: /Ogsy
;	COMDAT ?__copy_trivial_backward@_STL@@YAPAXPBX0PAX@Z
_TEXT	SEGMENT
___first$ = 8						; size = 4
___last$ = 12						; size = 4
___result$ = 16						; size = 4
?__copy_trivial_backward@_STL@@YAPAXPBX0PAX@Z PROC NEAR	; _STL::__copy_trivial_backward, COMDAT

; 182  : __copy_trivial_backward(const void* __first, const void* __last, void* __result) {

  00000	55		 push	 ebp
  00001	8b ec		 mov	 ebp, esp

; 183  :   const ptrdiff_t _Num = (const char*)__last - (const char*)__first;

  00003	8b 45 0c	 mov	 eax, DWORD PTR ___last$[ebp]
  00006	2b 45 08	 sub	 eax, DWORD PTR ___first$[ebp]

; 184  :   return (_Num > 0) ? memmove((char*)__result - _Num, __first, _Num) : __result ;

  00009	85 c0		 test	 eax, eax
  0000b	7e 14		 jle	 SHORT $L114720
  0000d	8b 4d 10	 mov	 ecx, DWORD PTR ___result$[ebp]
  00010	50		 push	 eax
  00011	ff 75 08	 push	 DWORD PTR ___first$[ebp]
  00014	2b c8		 sub	 ecx, eax
  00016	51		 push	 ecx
  00017	e8 00 00 00 00	 call	 _memmove
  0001c	83 c4 0c	 add	 esp, 12			; 0000000cH

; 185  : }

  0001f	5d		 pop	 ebp
  00020	c3		 ret	 0
$L114720:

; 184  :   return (_Num > 0) ? memmove((char*)__result - _Num, __first, _Num) : __result ;

  00021	8b 45 10	 mov	 eax, DWORD PTR ___result$[ebp]

; 185  : }

  00024	5d		 pop	 ebp
  00025	c3		 ret	 0
?__copy_trivial_backward@_STL@@YAPAXPBX0PAX@Z ENDP	; _STL::__copy_trivial_backward
_TEXT	ENDS
PUBLIC	?uninitialized_copy@_STL@@YAPADPBD0PAD@Z	; _STL::uninitialized_copy
; Function compile flags: /Ogsy
; File c:\stlport-4.6.1\stlport\stl\_uninitialized.h
;	COMDAT ?uninitialized_copy@_STL@@YAPADPBD0PAD@Z
_TEXT	SEGMENT
___first$ = 8						; size = 4
___last$ = 12						; size = 4
___result$ = 16						; size = 4
?uninitialized_copy@_STL@@YAPADPBD0PAD@Z PROC NEAR	; _STL::uninitialized_copy, COMDAT

; 84   :   return  (char*)__copy_trivial (__first, __last, __result);

  00000	e9 00 00 00 00	 jmp	 ?__copy_trivial@_STL@@YAPAXPBX0PAX@Z ; _STL::__copy_trivial
?uninitialized_copy@_STL@@YAPADPBD0PAD@Z ENDP		; _STL::uninitialized_copy
_TEXT	ENDS
PUBLIC	?length@?$char_traits@D@_STL@@SAIPBD@Z		; _STL::char_traits<char>::length
EXTRN	_strlen:NEAR
; Function compile flags: /Ogsy
; File c:\stlport-4.6.1\stlport\stl\char_traits.h
;	COMDAT ?length@?$char_traits@D@_STL@@SAIPBD@Z
_TEXT	SEGMENT
___s$ = 8						; size = 4
?length@?$char_traits@D@_STL@@SAIPBD@Z PROC NEAR	; _STL::char_traits<char>::length, COMDAT

; 238  :   static size_t _STLP_CALL length(const char* __s) { return strlen(__s); }

  00000	e9 00 00 00 00	 jmp	 _strlen
?length@?$char_traits@D@_STL@@SAIPBD@Z ENDP		; _STL::char_traits<char>::length
_TEXT	ENDS
PUBLIC	?getPlayerStatus@ClientPlayer@@QBE?AW4PlayerStatus@@XZ ; ClientPlayer::getPlayerStatus
; Function compile flags: /Ogsy
; File c:\darkeden\designed_common\project\client\packet\clientplayer.h
;	COMDAT ?getPlayerStatus@ClientPlayer@@QBE?AW4PlayerStatus@@XZ
_TEXT	SEGMENT
?getPlayerStatus@ClientPlayer@@QBE?AW4PlayerStatus@@XZ PROC NEAR ; ClientPlayer::getPlayerStatus, COMDAT
; _this$ = ecx

; 70   : 	PlayerStatus getPlayerStatus () const throw () { return m_PlayerStatus; }

  00000	8b 41 58	 mov	 eax, DWORD PTR [ecx+88]
  00003	c3		 ret	 0
?getPlayerStatus@ClientPlayer@@QBE?AW4PlayerStatus@@XZ ENDP ; ClientPlayer::getPlayerStatus
_TEXT	ENDS
PUBLIC	?setEncryptCode@SocketEncryptInputStream@@QAEXE@Z ; SocketEncryptInputStream::setEncryptCode
EXTRN	?setCode@Encrypter@@QAEXE@Z:NEAR		; Encrypter::setCode
; Function compile flags: /Ogsy
; File c:\darkeden\designed_common\project\client\packet\socketencryptinputstream.h
;	COMDAT ?setEncryptCode@SocketEncryptInputStream@@QAEXE@Z
_TEXT	SEGMENT
_code$ = 8						; size = 1
?setEncryptCode@SocketEncryptInputStream@@QAEXE@Z PROC NEAR ; SocketEncryptInputStream::setEncryptCode, COMDAT
; _this$ = ecx

; 58   : 	void	setEncryptCode(uchar code)	{ m_Encrypter.setCode(code); }

  00000	83 c1 18	 add	 ecx, 24			; 00000018H
  00003	e9 00 00 00 00	 jmp	 ?setCode@Encrypter@@QAEXE@Z ; Encrypter::setCode
?setEncryptCode@SocketEncryptInputStream@@QAEXE@Z ENDP	; SocketEncryptInputStream::setEncryptCode
_TEXT	ENDS
PUBLIC	?setEncryptCode@SocketEncryptOutputStream@@QAEXE@Z ; SocketEncryptOutputStream::setEncryptCode
; Function compile flags: /Ogsy
; File c:\darkeden\designed_common\project\client\packet\socketencryptoutputstream.h
;	COMDAT ?setEncryptCode@SocketEncryptOutputStream@@QAEXE@Z
_TEXT	SEGMENT
_code$ = 8						; size = 1
?setEncryptCode@SocketEncryptOutputStream@@QAEXE@Z PROC NEAR ; SocketEncryptOutputStream::setEncryptCode, COMDAT
; _this$ = ecx

; 58   : 	void	setEncryptCode(uchar code)	{ m_Encrypter.setCode(code); }

  00000	83 c1 18	 add	 ecx, 24			; 00000018H
  00003	e9 00 00 00 00	 jmp	 ?setCode@Encrypter@@QAEXE@Z ; Encrypter::setCode
?setEncryptCode@SocketEncryptOutputStream@@QAEXE@Z ENDP	; SocketEncryptOutputStream::setEncryptCode
_TEXT	ENDS
PUBLIC	?DEBUG_ADD@@YAXPBD@Z				; DEBUG_ADD
; Function compile flags: /Ogsy
; File c:\darkeden\designed_common\project\client\debuginfo.h
;	COMDAT ?DEBUG_ADD@@YAXPBD@Z
_TEXT	SEGMENT
_message$ = 8						; size = 4
?DEBUG_ADD@@YAXPBD@Z PROC NEAR				; DEBUG_ADD, COMDAT

; 80   : 		inline void	DEBUG_ADD( const char* message )		{}

  00000	c3		 ret	 0
?DEBUG_ADD@@YAXPBD@Z ENDP				; DEBUG_ADD
_TEXT	ENDS
PUBLIC	?DEBUG_ADD_ERR@@YAXPBD@Z			; DEBUG_ADD_ERR
; Function compile flags: /Ogsy
;	COMDAT ?DEBUG_ADD_ERR@@YAXPBD@Z
_TEXT	SEGMENT
_message$ = 8						; size = 4
?DEBUG_ADD_ERR@@YAXPBD@Z PROC NEAR			; DEBUG_ADD_ERR, COMDAT

; 81   : 		inline void DEBUG_ADD_ERR( const char* message )	{}

  00000	c3		 ret	 0
?DEBUG_ADD_ERR@@YAXPBD@Z ENDP				; DEBUG_ADD_ERR
_TEXT	ENDS
PUBLIC	?DEBUG_ADD_FORMAT@@YAXPBDZZ			; DEBUG_ADD_FORMAT
; Function compile flags: /Ogsy
;	COMDAT ?DEBUG_ADD_FORMAT@@YAXPBDZZ
_TEXT	SEGMENT
_format$ = 8						; size = 4
?DEBUG_ADD_FORMAT@@YAXPBDZZ PROC NEAR			; DEBUG_ADD_FORMAT, COMDAT

; 85   : 		inline void	DEBUG_ADD_FORMAT(const char* format, ...) {}

  00000	c3		 ret	 0
?DEBUG_ADD_FORMAT@@YAXPBDZZ ENDP			; DEBUG_ADD_FORMAT
_TEXT	ENDS
PUBLIC	?DEBUG_ADD_FORMAT_ERR@@YAXPBDZZ			; DEBUG_ADD_FORMAT_ERR
; Function compile flags: /Ogsy
;	COMDAT ?DEBUG_ADD_FORMAT_ERR@@YAXPBDZZ
_TEXT	SEGMENT
_format$ = 8						; size = 4
?DEBUG_ADD_FORMAT_ERR@@YAXPBDZZ PROC NEAR		; DEBUG_ADD_FORMAT_ERR, COMDAT

; 86   : 		inline void	DEBUG_ADD_FORMAT_ERR(const char* format, ...) {}

  00000	c3		 ret	 0
?DEBUG_ADD_FORMAT_ERR@@YAXPBDZZ ENDP			; DEBUG_ADD_FORMAT_ERR
_TEXT	ENDS
PUBLIC	?GetID@MZone@@QBEGXZ				; MZone::GetID
; Function compile flags: /Ogsy
; File c:\darkeden\designed_common\project\client\mzone.h
;	COMDAT ?GetID@MZone@@QBEGXZ
_TEXT	SEGMENT
?GetID@MZone@@QBEGXZ PROC NEAR				; MZone::GetID, COMDAT
; _this$ = ecx

; 148  : 		WORD			GetID() const				{ return m_Info.ZoneID; }			//	 

  00000	66 8b 41 0c	 mov	 ax, WORD PTR [ecx+12]
  00004	c3		 ret	 0
?GetID@MZone@@QBEGXZ ENDP				; MZone::GetID
_TEXT	ENDS
PUBLIC	?setEncryptCode@ClientPlayer@@QAEXXZ		; ClientPlayer::setEncryptCode
PUBLIC	??_R0?AVSocketOutputStream@@@8			; SocketOutputStream `RTTI Type Descriptor'
PUBLIC	??_R0?AVSocketEncryptOutputStream@@@8		; SocketEncryptOutputStream `RTTI Type Descriptor'
PUBLIC	??_R0?AVSocketInputStream@@@8			; SocketInputStream `RTTI Type Descriptor'
PUBLIC	??_R0?AVSocketEncryptInputStream@@@8		; SocketEncryptInputStream `RTTI Type Descriptor'
EXTRN	?g_pUserInformation@@3PAVUserInformation@@A:DWORD ; g_pUserInformation
EXTRN	??_7type_info@@6B@:QWORD			; type_info::`vftable'
EXTRN	___RTDynamicCast:NEAR
EXTRN	?g_pZone@@3PAVMZone@@A:DWORD			; g_pZone
;	COMDAT ??_R0?AVSocketEncryptOutputStream@@@8
; File c:\darkeden\designed_common\project\client\packet\socketencryptinputstream.h
_DATA	SEGMENT
??_R0?AVSocketEncryptOutputStream@@@8 DD FLAT:??_7type_info@@6B@ ; SocketEncryptOutputStream `RTTI Type Descriptor'
	DD	00H
	DB	'.?AVSocketEncryptOutputStream@@', 00H
_DATA	ENDS
;	COMDAT ??_R0?AVSocketOutputStream@@@8
_DATA	SEGMENT
??_R0?AVSocketOutputStream@@@8 DD FLAT:??_7type_info@@6B@ ; SocketOutputStream `RTTI Type Descriptor'
	DD	00H
	DB	'.?AVSocketOutputStream@@', 00H
_DATA	ENDS
;	COMDAT ??_R0?AVSocketEncryptInputStream@@@8
_DATA	SEGMENT
??_R0?AVSocketEncryptInputStream@@@8 DD FLAT:??_7type_info@@6B@ ; SocketEncryptInputStream `RTTI Type Descriptor'
	DD	00H
	DB	'.?AVSocketEncryptInputStream@@', 00H
_DATA	ENDS
;	COMDAT ??_R0?AVSocketInputStream@@@8
_DATA	SEGMENT
??_R0?AVSocketInputStream@@@8 DD FLAT:??_7type_info@@6B@ ; SocketInputStream `RTTI Type Descriptor'
	DD	00H
	DB	'.?AVSocketInputStream@@', 00H
; Function compile flags: /Ogsy
; File c:\darkeden\designed_common\project\client\packet\clientplayer.cpp
_DATA	ENDS
;	COMDAT ?setEncryptCode@ClientPlayer@@QAEXXZ
_TEXT	SEGMENT
_code$111868 = -4					; size = 1
?setEncryptCode@ClientPlayer@@QAEXXZ PROC NEAR		; ClientPlayer::setEncryptCode, COMDAT
; _this$ = ecx

; 547  : {

  00000	55		 push	 ebp
  00001	8b ec		 mov	 ebp, esp
  00003	51		 push	 ecx

; 548  : #ifdef __USE_ENCRYPTER__
; 549  :     __BEGIN_TRY
; 550  : 
; 551  : //	Assert(g_pPlayer!=NULL);
; 552  : 	Assert(g_pZone!=NULL);
; 553  : 
; 554  : 	//  ObjectID .
; 555  : //	ObjectID_t objectID = g_pPlayer->GetID();
; 556  : 	ZoneID_t zoneID = g_pZone->GetID();

  00004	a1 00 00 00 00	 mov	 eax, DWORD PTR ?g_pZone@@3PAVMZone@@A ; g_pZone
  00009	66 8b 50 0c	 mov	 dx, WORD PTR [eax+12]
  0000d	53		 push	 ebx
  0000e	56		 push	 esi
  0000f	8b f1		 mov	 esi, ecx

; 557  : 	int serverID = g_pUserInformation->ServerID;

  00011	8b 0d 00 00 00
	00		 mov	 ecx, DWORD PTR ?g_pUserInformation@@3PAVUserInformation@@A ; g_pUserInformation
  00017	8b 81 04 01 00
	00		 mov	 eax, DWORD PTR [ecx+260]

; 558  : 
; 559  : //	if (objectID!=0)
; 560  : 	{
; 561  : //		uchar code = (uchar)(objectID / zoneID + objectID);		
; 562  : 		uchar code;
; 563  : 
; 564  : 		if( g_pUserInformation->IsNetmarble )

  0001d	33 db		 xor	 ebx, ebx
  0001f	38 99 e0 00 00
	00		 cmp	 BYTE PTR [ecx+224], bl
  00025	57		 push	 edi

; 565  : 			code = (uchar)( ( ( ( zoneID ) >> 8 ) ^ ( zoneID ) ) ^ ( ( ( serverID ) + 1 ) << 4 ) );
; 566  : 	    else if ( g_pUserInformation->bChinese )

  00026	75 13		 jne	 SHORT $L111872
  00028	38 99 24 01 00
	00		 cmp	 BYTE PTR [ecx+292], bl
  0002e	74 0b		 je	 SHORT $L111872

; 567  : 			code = (uchar) ( ( ( ( ( serverID ) + 1 ) << 4 ) | ( zoneID ) ) ^ ( ( zoneID ) >> 8 ) );

  00030	fe c0		 inc	 al
  00032	c0 e0 04	 shl	 al, 4
  00035	0a c2		 or	 al, dl
  00037	8a d6		 mov	 dl, dh

; 568  : //			code = (uchar)( ( ( ( zoneID ) >> 8 ) ^ ( zoneID ) ) ^ ( ( ( serverID ) + 1 ) << 4 ) );
; 569  : //		else if ( g_pUserInformation->bEnglish )
; 570  : //			code = (uchar)( ( ( ( zoneID ) >> 8 ) ^ ( zoneID ) ) ^ ( ( ( serverID ) + 1 ) * 51 ) );
; 571  : 		else

  00039	eb 09		 jmp	 SHORT $L114765
$L111872:

; 572  : 			code = (uchar)( ( ( ( zoneID ) >> 8 ) ^ ( zoneID ) ) ^ ( ( ( serverID ) + 1 ) << 4 ) );

  0003b	fe c0		 inc	 al
  0003d	c0 e0 04	 shl	 al, 4
  00040	8a ce		 mov	 cl, dh
  00042	32 c1		 xor	 al, cl
$L114765:

; 573  : 
; 574  : 		SocketEncryptOutputStream* pEOS = dynamic_cast<SocketEncryptOutputStream*>(m_pOutputStream);

  00044	53		 push	 ebx
  00045	68 00 00 00 00	 push	 OFFSET FLAT:??_R0?AVSocketEncryptOutputStream@@@8
  0004a	68 00 00 00 00	 push	 OFFSET FLAT:??_R0?AVSocketOutputStream@@@8
  0004f	53		 push	 ebx
  00050	ff 76 18	 push	 DWORD PTR [esi+24]
  00053	32 c2		 xor	 al, dl
  00055	88 45 fc	 mov	 BYTE PTR _code$111868[ebp], al
  00058	e8 00 00 00 00	 call	 ___RTDynamicCast

; 575  : 		Assert(pEOS!=NULL);
; 576  : 
; 577  : 		SocketEncryptInputStream* pEIS = dynamic_cast<SocketEncryptInputStream*>(m_pInputStream);

  0005d	53		 push	 ebx
  0005e	68 00 00 00 00	 push	 OFFSET FLAT:??_R0?AVSocketEncryptInputStream@@@8
  00063	68 00 00 00 00	 push	 OFFSET FLAT:??_R0?AVSocketInputStream@@@8
  00068	53		 push	 ebx
  00069	ff 76 14	 push	 DWORD PTR [esi+20]
  0006c	8b f8		 mov	 edi, eax
  0006e	e8 00 00 00 00	 call	 ___RTDynamicCast
  00073	83 c4 28	 add	 esp, 40			; 00000028H

; 578  : 		Assert(pEIS!=NULL);
; 579  : 
; 580  : 		pEOS->setEncryptCode(code);

  00076	ff 75 fc	 push	 DWORD PTR _code$111868[ebp]
  00079	8d 4f 18	 lea	 ecx, DWORD PTR [edi+24]
  0007c	8b f0		 mov	 esi, eax
  0007e	e8 00 00 00 00	 call	 ?setCode@Encrypter@@QAEXE@Z ; Encrypter::setCode

; 581  : 		pEIS->setEncryptCode(code);

  00083	ff 75 fc	 push	 DWORD PTR _code$111868[ebp]
  00086	8d 4e 18	 lea	 ecx, DWORD PTR [esi+24]
  00089	e8 00 00 00 00	 call	 ?setCode@Encrypter@@QAEXE@Z ; Encrypter::setCode
  0008e	5f		 pop	 edi
  0008f	5e		 pop	 esi
  00090	5b		 pop	 ebx

; 582  : 	}
; 583  : 
; 584  : 	__END_CATCH
; 585  : #endif
; 586  : }

  00091	c9		 leave
  00092	c3		 ret	 0
?setEncryptCode@ClientPlayer@@QAEXXZ ENDP		; ClientPlayer::setEncryptCode
_TEXT	ENDS
PUBLIC	?c_str@?$basic_string@DV?$char_traits@D@_STL@@V?$allocator@D@2@@_STL@@QBEPBDXZ ; _STL::basic_string<char,_STL::char_traits<char>,_STL::allocator<char> >::c_str
; Function compile flags: /Ogsy
; File c:\stlport-4.6.1\stlport\stl\_string.h
;	COMDAT ?c_str@?$basic_string@DV?$char_traits@D@_STL@@V?$allocator@D@2@@_STL@@QBEPBDXZ
_TEXT	SEGMENT
?c_str@?$basic_string@DV?$char_traits@D@_STL@@V?$allocator@D@2@@_STL@@QBEPBDXZ PROC NEAR ; _STL::basic_string<char,_STL::char_traits<char>,_STL::allocator<char> >::c_str, COMDAT
; _this$ = ecx

; 1065 :   const _CharT* c_str() const { return this->_M_start; }

  00000	8b 01		 mov	 eax, DWORD PTR [ecx]
  00002	c3		 ret	 0
?c_str@?$basic_string@DV?$char_traits@D@_STL@@V?$allocator@D@2@@_STL@@QBEPBDXZ ENDP ; _STL::basic_string<char,_STL::char_traits<char>,_STL::allocator<char> >::c_str
_TEXT	ENDS
PUBLIC	??0?$allocator@PAVPacket@@@_STL@@QAE@XZ		; _STL::allocator<Packet *>::allocator<Packet *>
; Function compile flags: /Ogsy
; File c:\stlport-4.6.1\stlport\stl\_alloc.h
;	COMDAT ??0?$allocator@PAVPacket@@@_STL@@QAE@XZ
_TEXT	SEGMENT
??0?$allocator@PAVPacket@@@_STL@@QAE@XZ PROC NEAR	; _STL::allocator<Packet *>::allocator<Packet *>, COMDAT
; _this$ = ecx

; 345  :   allocator() _STLP_NOTHROW {}

  00000	8b c1		 mov	 eax, ecx
  00002	c3		 ret	 0
??0?$allocator@PAVPacket@@@_STL@@QAE@XZ ENDP		; _STL::allocator<Packet *>::allocator<Packet *>
_TEXT	ENDS
PUBLIC	??1?$allocator@PAVPacket@@@_STL@@QAE@XZ		; _STL::allocator<Packet *>::~allocator<Packet *>
; Function compile flags: /Ogsy
;	COMDAT ??1?$allocator@PAVPacket@@@_STL@@QAE@XZ
_TEXT	SEGMENT
??1?$allocator@PAVPacket@@@_STL@@QAE@XZ PROC NEAR	; _STL::allocator<Packet *>::~allocator<Packet *>, COMDAT
; _this$ = ecx

; 350  :   ~allocator() _STLP_NOTHROW {}

  00000	c3		 ret	 0
??1?$allocator@PAVPacket@@@_STL@@QAE@XZ ENDP		; _STL::allocator<Packet *>::~allocator<Packet *>
_TEXT	ENDS
PUBLIC	??0_List_iterator_base@_STL@@QAE@PAU_List_node_base@1@@Z ; _STL::_List_iterator_base::_List_iterator_base
; Function compile flags: /Ogsy
; File c:\stlport-4.6.1\stlport\stl\_list.h
;	COMDAT ??0_List_iterator_base@_STL@@QAE@PAU_List_node_base@1@@Z
_TEXT	SEGMENT
___x$ = 8						; size = 4
??0_List_iterator_base@_STL@@QAE@PAU_List_node_base@1@@Z PROC NEAR ; _STL::_List_iterator_base::_List_iterator_base, COMDAT
; _this$ = ecx

; 95   :   _List_iterator_base(_List_node_base* __x) : _M_node(__x) {}

  00000	8b c1		 mov	 eax, ecx
  00002	8b 4c 24 04	 mov	 ecx, DWORD PTR ___x$[esp-4]
  00006	89 08		 mov	 DWORD PTR [eax], ecx
  00008	c2 04 00	 ret	 4
??0_List_iterator_base@_STL@@QAE@PAU_List_node_base@1@@Z ENDP ; _STL::_List_iterator_base::_List_iterator_base
_TEXT	ENDS
PUBLIC	?_M_incr@_List_iterator_base@_STL@@QAEXXZ	; _STL::_List_iterator_base::_M_incr
; Function compile flags: /Ogsy
;	COMDAT ?_M_incr@_List_iterator_base@_STL@@QAEXXZ
_TEXT	SEGMENT
?_M_incr@_List_iterator_base@_STL@@QAEXXZ PROC NEAR	; _STL::_List_iterator_base::_M_incr, COMDAT
; _this$ = ecx

; 98   :   void _M_incr() { _M_node = _M_node->_M_next; }

  00000	8b 01		 mov	 eax, DWORD PTR [ecx]
  00002	8b 00		 mov	 eax, DWORD PTR [eax]
  00004	89 01		 mov	 DWORD PTR [ecx], eax
  00006	c3		 ret	 0
?_M_incr@_List_iterator_base@_STL@@QAEXXZ ENDP		; _STL::_List_iterator_base::_M_incr
_TEXT	ENDS
PUBLIC	??9_List_iterator_base@_STL@@QBE_NABU01@@Z	; _STL::_List_iterator_base::operator!=
; Function compile flags: /Ogsy
;	COMDAT ??9_List_iterator_base@_STL@@QBE_NABU01@@Z
_TEXT	SEGMENT
___y$ = 8						; size = 4
??9_List_iterator_base@_STL@@QBE_NABU01@@Z PROC NEAR	; _STL::_List_iterator_base::operator!=, COMDAT
; _this$ = ecx

; 104  :     return _M_node != __y._M_node; 

  00000	8b 01		 mov	 eax, DWORD PTR [ecx]
  00002	8b 54 24 04	 mov	 edx, DWORD PTR ___y$[esp-4]
  00006	33 c9		 xor	 ecx, ecx
  00008	3b 02		 cmp	 eax, DWORD PTR [edx]
  0000a	0f 95 c1	 setne	 cl
  0000d	8a c1		 mov	 al, cl

; 105  :   }

  0000f	c2 04 00	 ret	 4
??9_List_iterator_base@_STL@@QBE_NABU01@@Z ENDP		; _STL::_List_iterator_base::operator!=
_TEXT	ENDS
PUBLIC	?_M_terminate_string_aux@?$basic_string@DV?$char_traits@D@_STL@@V?$allocator@D@2@@_STL@@AAEXABU__true_type@2@@Z ; _STL::basic_string<char,_STL::char_traits<char>,_STL::allocator<char> >::_M_terminate_string_aux
; Function compile flags: /Ogsy
; File c:\stlport-4.6.1\stlport\stl\_string.h
;	COMDAT ?_M_terminate_string_aux@?$basic_string@DV?$char_traits@D@_STL@@V?$allocator@D@2@@_STL@@AAEXABU__true_type@2@@Z
_TEXT	SEGMENT
___formal$ = 8						; size = 4
?_M_terminate_string_aux@?$basic_string@DV?$char_traits@D@_STL@@V?$allocator@D@2@@_STL@@AAEXABU__true_type@2@@Z PROC NEAR ; _STL::basic_string<char,_STL::char_traits<char>,_STL::allocator<char> >::_M_terminate_string_aux, COMDAT
; _this$ = ecx

; 351  :     *(this->_M_finish)=0;

  00000	8b 41 04	 mov	 eax, DWORD PTR [ecx+4]
  00003	c6 00 00	 mov	 BYTE PTR [eax], 0

; 352  :   }

  00006	c2 04 00	 ret	 4
?_M_terminate_string_aux@?$basic_string@DV?$char_traits@D@_STL@@V?$allocator@D@2@@_STL@@AAEXABU__true_type@2@@Z ENDP ; _STL::basic_string<char,_STL::char_traits<char>,_STL::allocator<char> >::_M_terminate_string_aux
_TEXT	ENDS
PUBLIC	??0?$allocator@D@_STL@@QAE@ABV01@@Z		; _STL::allocator<char>::allocator<char>
; Function compile flags: /Ogsy
; File c:\stlport-4.6.1\stlport\stl\_alloc.h
;	COMDAT ??0?$allocator@D@_STL@@QAE@ABV01@@Z
_TEXT	SEGMENT
___formal$ = 8						; size = 4
??0?$allocator@D@_STL@@QAE@ABV01@@Z PROC NEAR		; _STL::allocator<char>::allocator<char>, COMDAT
; _this$ = ecx

; 349  :   allocator(const allocator<_Tp>&) _STLP_NOTHROW {}

  00000	8b c1		 mov	 eax, ecx
  00002	c2 04 00	 ret	 4
??0?$allocator@D@_STL@@QAE@ABV01@@Z ENDP		; _STL::allocator<char>::allocator<char>
_TEXT	ENDS
PUBLIC	??0?$_Deque_iterator@PAVPacket@@U?$_Nonconst_traits@PAVPacket@@@_STL@@@_STL@@QAE@ABU01@@Z ; _STL::_Deque_iterator<Packet *,_STL::_Nonconst_traits<Packet *> >::_Deque_iterator<Packet *,_STL::_Nonconst_traits<Packet *> >
; Function compile flags: /Ogsy
; File c:\stlport-4.6.1\stlport\stl\_deque.h
;	COMDAT ??0?$_Deque_iterator@PAVPacket@@U?$_Nonconst_traits@PAVPacket@@@_STL@@@_STL@@QAE@ABU01@@Z
_TEXT	SEGMENT
___x$ = 8						; size = 4
??0?$_Deque_iterator@PAVPacket@@U?$_Nonconst_traits@PAVPacket@@@_STL@@@_STL@@QAE@ABU01@@Z PROC NEAR ; _STL::_Deque_iterator<Packet *,_STL::_Nonconst_traits<Packet *> >::_Deque_iterator<Packet *,_STL::_Nonconst_traits<Packet *> >, COMDAT
; _this$ = ecx

; 176  :     _Deque_iterator_base<value_type>(__x) {}

  00000	56		 push	 esi
  00001	8b 74 24 08	 mov	 esi, DWORD PTR ___x$[esp]
  00005	57		 push	 edi
  00006	8b c1		 mov	 eax, ecx
  00008	8b f8		 mov	 edi, eax
  0000a	a5		 movsd
  0000b	a5		 movsd
  0000c	a5		 movsd
  0000d	a5		 movsd
  0000e	5f		 pop	 edi
  0000f	5e		 pop	 esi
  00010	c2 04 00	 ret	 4
??0?$_Deque_iterator@PAVPacket@@U?$_Nonconst_traits@PAVPacket@@@_STL@@@_STL@@QAE@ABU01@@Z ENDP ; _STL::_Deque_iterator<Packet *,_STL::_Nonconst_traits<Packet *> >::_Deque_iterator<Packet *,_STL::_Nonconst_traits<Packet *> >
_TEXT	ENDS
PUBLIC	??D?$_Deque_iterator@PAVPacket@@U?$_Nonconst_traits@PAVPacket@@@_STL@@@_STL@@QBEAAPAVPacket@@XZ ; _STL::_Deque_iterator<Packet *,_STL::_Nonconst_traits<Packet *> >::operator*
; Function compile flags: /Ogsy
;	COMDAT ??D?$_Deque_iterator@PAVPacket@@U?$_Nonconst_traits@PAVPacket@@@_STL@@@_STL@@QBEAAPAVPacket@@XZ
_TEXT	SEGMENT
??D?$_Deque_iterator@PAVPacket@@U?$_Nonconst_traits@PAVPacket@@@_STL@@@_STL@@QBEAAPAVPacket@@XZ PROC NEAR ; _STL::_Deque_iterator<Packet *,_STL::_Nonconst_traits<Packet *> >::operator*, COMDAT
; _this$ = ecx

; 179  :       return *this->_M_cur; 

  00000	8b 01		 mov	 eax, DWORD PTR [ecx]

; 180  :   }

  00002	c3		 ret	 0
??D?$_Deque_iterator@PAVPacket@@U?$_Nonconst_traits@PAVPacket@@@_STL@@@_STL@@QBEAAPAVPacket@@XZ ENDP ; _STL::_Deque_iterator<Packet *,_STL::_Nonconst_traits<Packet *> >::operator*
_TEXT	ENDS
PUBLIC	??0?$reverse_iterator@U?$_Deque_iterator@PAVPacket@@U?$_Nonconst_traits@PAVPacket@@@_STL@@@_STL@@@_STL@@QAE@U?$_Deque_iterator@PAVPacket@@U?$_Nonconst_traits@PAVPacket@@@_STL@@@1@@Z ; _STL::reverse_iterator<_STL::_Deque_iterator<Packet *,_STL::_Nonconst_traits<Packet *> > >::reverse_iterator<_STL::_Deque_iterator<Packet *,_STL::_Nonconst_traits<Packet *> > >
; Function compile flags: /Ogsy
; File c:\stlport-4.6.1\stlport\stl\_iterator.h
;	COMDAT ??0?$reverse_iterator@U?$_Deque_iterator@PAVPacket@@U?$_Nonconst_traits@PAVPacket@@@_STL@@@_STL@@@_STL@@QAE@U?$_Deque_iterator@PAVPacket@@U?$_Nonconst_traits@PAVPacket@@@_STL@@@1@@Z
_TEXT	SEGMENT
___x$ = 8						; size = 16
??0?$reverse_iterator@U?$_Deque_iterator@PAVPacket@@U?$_Nonconst_traits@PAVPacket@@@_STL@@@_STL@@@_STL@@QAE@U?$_Deque_iterator@PAVPacket@@U?$_Nonconst_traits@PAVPacket@@@_STL@@@1@@Z PROC NEAR ; _STL::reverse_iterator<_STL::_Deque_iterator<Packet *,_STL::_Nonconst_traits<Packet *> > >::reverse_iterator<_STL::_Deque_iterator<Packet *,_STL::_Nonconst_traits<Packet *> > >, COMDAT
; _this$ = ecx

; 66   :   explicit reverse_iterator(iterator_type __x) : current(__x) {}

  00000	56		 push	 esi
  00001	57		 push	 edi
  00002	8b c1		 mov	 eax, ecx
  00004	8d 74 24 0c	 lea	 esi, DWORD PTR ___x$[esp+4]
  00008	8b f8		 mov	 edi, eax
  0000a	a5		 movsd
  0000b	a5		 movsd
  0000c	a5		 movsd
  0000d	a5		 movsd
  0000e	5f		 pop	 edi
  0000f	5e		 pop	 esi
  00010	c2 10 00	 ret	 16			; 00000010H
??0?$reverse_iterator@U?$_Deque_iterator@PAVPacket@@U?$_Nonconst_traits@PAVPacket@@@_STL@@@_STL@@@_STL@@QAE@U?$_Deque_iterator@PAVPacket@@U?$_Nonconst_traits@PAVPacket@@@_STL@@@1@@Z ENDP ; _STL::reverse_iterator<_STL::_Deque_iterator<Packet *,_STL::_Nonconst_traits<Packet *> > >::reverse_iterator<_STL::_Deque_iterator<Packet *,_STL::_Nonconst_traits<Packet *> > >
_TEXT	ENDS
PUBLIC	??0?$reverse_iterator@U?$_Deque_iterator@PAVPacket@@U?$_Nonconst_traits@PAVPacket@@@_STL@@@_STL@@@_STL@@QAE@ABV01@@Z ; _STL::reverse_iterator<_STL::_Deque_iterator<Packet *,_STL::_Nonconst_traits<Packet *> > >::reverse_iterator<_STL::_Deque_iterator<Packet *,_STL::_Nonconst_traits<Packet *> > >
; Function compile flags: /Ogsy
;	COMDAT ??0?$reverse_iterator@U?$_Deque_iterator@PAVPacket@@U?$_Nonconst_traits@PAVPacket@@@_STL@@@_STL@@@_STL@@QAE@ABV01@@Z
_TEXT	SEGMENT
___x$ = 8						; size = 4
??0?$reverse_iterator@U?$_Deque_iterator@PAVPacket@@U?$_Nonconst_traits@PAVPacket@@@_STL@@@_STL@@@_STL@@QAE@ABV01@@Z PROC NEAR ; _STL::reverse_iterator<_STL::_Deque_iterator<Packet *,_STL::_Nonconst_traits<Packet *> > >::reverse_iterator<_STL::_Deque_iterator<Packet *,_STL::_Nonconst_traits<Packet *> > >, COMDAT
; _this$ = ecx

; 67   :   reverse_iterator(const _Self& __x) : current(__x.current) {}

  00000	56		 push	 esi
  00001	8b 74 24 08	 mov	 esi, DWORD PTR ___x$[esp]
  00005	57		 push	 edi
  00006	8b c1		 mov	 eax, ecx
  00008	8b f8		 mov	 edi, eax
  0000a	a5		 movsd
  0000b	a5		 movsd
  0000c	a5		 movsd
  0000d	a5		 movsd
  0000e	5f		 pop	 edi
  0000f	5e		 pop	 esi
  00010	c2 04 00	 ret	 4
??0?$reverse_iterator@U?$_Deque_iterator@PAVPacket@@U?$_Nonconst_traits@PAVPacket@@@_STL@@@_STL@@@_STL@@QAE@ABV01@@Z ENDP ; _STL::reverse_iterator<_STL::_Deque_iterator<Packet *,_STL::_Nonconst_traits<Packet *> > >::reverse_iterator<_STL::_Deque_iterator<Packet *,_STL::_Nonconst_traits<Packet *> > >
_TEXT	ENDS
PUBLIC	??1?$_STLP_alloc_proxy@IPAVPacket@@V?$allocator@PAVPacket@@@_STL@@@_STL@@QAE@XZ ; _STL::_STLP_alloc_proxy<unsigned int,Packet *,_STL::allocator<Packet *> >::~_STLP_alloc_proxy<unsigned int,Packet *,_STL::allocator<Packet *> >
; Function compile flags: /Ogsy
;	COMDAT ??1?$_STLP_alloc_proxy@IPAVPacket@@V?$allocator@PAVPacket@@@_STL@@@_STL@@QAE@XZ
_TEXT	SEGMENT
??1?$_STLP_alloc_proxy@IPAVPacket@@V?$allocator@PAVPacket@@@_STL@@@_STL@@QAE@XZ PROC NEAR ; _STL::_STLP_alloc_proxy<unsigned int,Packet *,_STL::allocator<Packet *> >::~_STLP_alloc_proxy<unsigned int,Packet *,_STL::allocator<Packet *> >, COMDAT
; _this$ = ecx
  00000	c3		 ret	 0
??1?$_STLP_alloc_proxy@IPAVPacket@@V?$allocator@PAVPacket@@@_STL@@@_STL@@QAE@XZ ENDP ; _STL::_STLP_alloc_proxy<unsigned int,Packet *,_STL::allocator<Packet *> >::~_STLP_alloc_proxy<unsigned int,Packet *,_STL::allocator<Packet *> >
_TEXT	ENDS
PUBLIC	?_M_subtract@?$_Deque_iterator_base@PAVPacket@@@_STL@@QBEHABU12@@Z ; _STL::_Deque_iterator_base<Packet *>::_M_subtract
; Function compile flags: /Ogsy
; File c:\stlport-4.6.1\stlport\stl\_deque.h
;	COMDAT ?_M_subtract@?$_Deque_iterator_base@PAVPacket@@@_STL@@QBEHABU12@@Z
_TEXT	SEGMENT
___x$ = 8						; size = 4
?_M_subtract@?$_Deque_iterator_base@PAVPacket@@@_STL@@QBEHABU12@@Z PROC NEAR ; _STL::_Deque_iterator_base<Packet *>::_M_subtract, COMDAT
; _this$ = ecx

; 114  :     return difference_type(__buffer_size) * (_M_node - __x._M_node - 1) +
; 115  :       (_M_cur - _M_first) + (__x._M_last - __x._M_cur);

  00000	8b 51 0c	 mov	 edx, DWORD PTR [ecx+12]
  00003	8b 44 24 04	 mov	 eax, DWORD PTR ___x$[esp-4]
  00007	2b 50 0c	 sub	 edx, DWORD PTR [eax+12]
  0000a	56		 push	 esi
  0000b	8b 31		 mov	 esi, DWORD PTR [ecx]
  0000d	2b 71 04	 sub	 esi, DWORD PTR [ecx+4]
  00010	8b 48 08	 mov	 ecx, DWORD PTR [eax+8]
  00013	2b 08		 sub	 ecx, DWORD PTR [eax]
  00015	c1 fa 02	 sar	 edx, 2
  00018	c1 fe 02	 sar	 esi, 2
  0001b	c1 e2 05	 shl	 edx, 5
  0001e	03 d6		 add	 edx, esi
  00020	c1 f9 02	 sar	 ecx, 2
  00023	8d 44 0a e0	 lea	 eax, DWORD PTR [edx+ecx-32]
  00027	5e		 pop	 esi

; 116  :   }

  00028	c2 04 00	 ret	 4
?_M_subtract@?$_Deque_iterator_base@PAVPacket@@@_STL@@QBEHABU12@@Z ENDP ; _STL::_Deque_iterator_base<Packet *>::_M_subtract
_TEXT	ENDS
PUBLIC	??1?$allocator@PAPAVPacket@@@_STL@@QAE@XZ	; _STL::allocator<Packet * *>::~allocator<Packet * *>
; Function compile flags: /Ogsy
; File c:\stlport-4.6.1\stlport\stl\_alloc.h
;	COMDAT ??1?$allocator@PAPAVPacket@@@_STL@@QAE@XZ
_TEXT	SEGMENT
??1?$allocator@PAPAVPacket@@@_STL@@QAE@XZ PROC NEAR	; _STL::allocator<Packet * *>::~allocator<Packet * *>, COMDAT
; _this$ = ecx

; 350  :   ~allocator() _STLP_NOTHROW {}

  00000	c3		 ret	 0
??1?$allocator@PAPAVPacket@@@_STL@@QAE@XZ ENDP		; _STL::allocator<Packet * *>::~allocator<Packet * *>
_TEXT	ENDS
PUBLIC	??0?$allocator@PAVPacket@@@_STL@@QAE@ABV01@@Z	; _STL::allocator<Packet *>::allocator<Packet *>
; Function compile flags: /Ogsy
;	COMDAT ??0?$allocator@PAVPacket@@@_STL@@QAE@ABV01@@Z
_TEXT	SEGMENT
___formal$ = 8						; size = 4
??0?$allocator@PAVPacket@@@_STL@@QAE@ABV01@@Z PROC NEAR	; _STL::allocator<Packet *>::allocator<Packet *>, COMDAT
; _this$ = ecx

; 349  :   allocator(const allocator<_Tp>&) _STLP_NOTHROW {}

  00000	8b c1		 mov	 eax, ecx
  00002	c2 04 00	 ret	 4
??0?$allocator@PAVPacket@@@_STL@@QAE@ABV01@@Z ENDP	; _STL::allocator<Packet *>::allocator<Packet *>
_TEXT	ENDS
PUBLIC	??0?$_Deque_iterator_base@PAVPacket@@@_STL@@QAE@XZ ; _STL::_Deque_iterator_base<Packet *>::_Deque_iterator_base<Packet *>
; Function compile flags: /Ogsy
; File c:\stlport-4.6.1\stlport\stl\_deque.h
;	COMDAT ??0?$_Deque_iterator_base@PAVPacket@@@_STL@@QAE@XZ
_TEXT	SEGMENT
??0?$_Deque_iterator_base@PAVPacket@@@_STL@@QAE@XZ PROC NEAR ; _STL::_Deque_iterator_base<Packet *>::_Deque_iterator_base<Packet *>, COMDAT
; _this$ = ecx

; 111  :   _Deque_iterator_base() : _M_cur(0), _M_first(0), _M_last(0), _M_node(0) {}

  00000	8b c1		 mov	 eax, ecx
  00002	33 c9		 xor	 ecx, ecx
  00004	89 08		 mov	 DWORD PTR [eax], ecx
  00006	89 48 04	 mov	 DWORD PTR [eax+4], ecx
  00009	89 48 08	 mov	 DWORD PTR [eax+8], ecx
  0000c	89 48 0c	 mov	 DWORD PTR [eax+12], ecx
  0000f	c3		 ret	 0
??0?$_Deque_iterator_base@PAVPacket@@@_STL@@QAE@XZ ENDP	; _STL::_Deque_iterator_base<Packet *>::_Deque_iterator_base<Packet *>
_TEXT	ENDS
PUBLIC	?_M_set_node@?$_Deque_iterator_base@PAVPacket@@@_STL@@QAEXPAPAPAVPacket@@@Z ; _STL::_Deque_iterator_base<Packet *>::_M_set_node
; Function compile flags: /Ogsy
;	COMDAT ?_M_set_node@?$_Deque_iterator_base@PAVPacket@@@_STL@@QAEXPAPAPAVPacket@@@Z
_TEXT	SEGMENT
___new_node$ = 8					; size = 4
?_M_set_node@?$_Deque_iterator_base@PAVPacket@@@_STL@@QAEXPAPAPAVPacket@@@Z PROC NEAR ; _STL::_Deque_iterator_base<Packet *>::_M_set_node, COMDAT
; _this$ = ecx

; 149  :     _M_last = (_M_first = *(_M_node = __new_node)) + difference_type(__buffer_size);

  00000	8b 44 24 04	 mov	 eax, DWORD PTR ___new_node$[esp-4]
  00004	89 41 0c	 mov	 DWORD PTR [ecx+12], eax
  00007	8b 00		 mov	 eax, DWORD PTR [eax]
  00009	89 41 04	 mov	 DWORD PTR [ecx+4], eax
  0000c	05 80 00 00 00	 add	 eax, 128		; 00000080H
  00011	89 41 08	 mov	 DWORD PTR [ecx+8], eax

; 150  :   }

  00014	c2 04 00	 ret	 4
?_M_set_node@?$_Deque_iterator_base@PAVPacket@@@_STL@@QAEXPAPAPAVPacket@@@Z ENDP ; _STL::_Deque_iterator_base<Packet *>::_M_set_node
_TEXT	ENDS
PUBLIC	??0?$allocator@PAPAVPacket@@@_STL@@QAE@ABV01@@Z	; _STL::allocator<Packet * *>::allocator<Packet * *>
; Function compile flags: /Ogsy
; File c:\stlport-4.6.1\stlport\stl\_alloc.h
;	COMDAT ??0?$allocator@PAPAVPacket@@@_STL@@QAE@ABV01@@Z
_TEXT	SEGMENT
___formal$ = 8						; size = 4
??0?$allocator@PAPAVPacket@@@_STL@@QAE@ABV01@@Z PROC NEAR ; _STL::allocator<Packet * *>::allocator<Packet * *>, COMDAT
; _this$ = ecx

; 349  :   allocator(const allocator<_Tp>&) _STLP_NOTHROW {}

  00000	8b c1		 mov	 eax, ecx
  00002	c2 04 00	 ret	 4
??0?$allocator@PAPAVPacket@@@_STL@@QAE@ABV01@@Z ENDP	; _STL::allocator<Packet * *>::allocator<Packet * *>
_TEXT	ENDS
PUBLIC	?_M_advance@?$_Deque_iterator_base@PAVPacket@@@_STL@@QAEXH@Z ; _STL::_Deque_iterator_base<Packet *>::_M_advance
; Function compile flags: /Ogsy
; File c:\stlport-4.6.1\stlport\stl\_deque.h
;	COMDAT ?_M_advance@?$_Deque_iterator_base@PAVPacket@@@_STL@@QAEXH@Z
_TEXT	SEGMENT
___n$ = 8						; size = 4
?_M_advance@?$_Deque_iterator_base@PAVPacket@@@_STL@@QAEXH@Z PROC NEAR ; _STL::_Deque_iterator_base<Packet *>::_M_advance, COMDAT
; _this$ = ecx

; 135  :     difference_type __offset = __n + (_M_cur - _M_first);

  00000	8b 01		 mov	 eax, DWORD PTR [ecx]
  00002	8b 54 24 04	 mov	 edx, DWORD PTR ___n$[esp-4]
  00006	56		 push	 esi
  00007	8b f0		 mov	 esi, eax
  00009	2b 71 04	 sub	 esi, DWORD PTR [ecx+4]
  0000c	c1 fe 02	 sar	 esi, 2
  0000f	03 f2		 add	 esi, edx

; 136  :     if (__offset >= 0 && __offset < difference_type(__buffer_size))

  00011	78 0a		 js	 SHORT $L112538
  00013	83 fe 20	 cmp	 esi, 32			; 00000020H
  00016	7d 05		 jge	 SHORT $L112538

; 137  :       _M_cur += __n;

  00018	8d 04 90	 lea	 eax, DWORD PTR [eax+edx*4]

; 138  :     else {

  0001b	eb 39		 jmp	 SHORT $L114840
$L112538:

; 139  :       difference_type __node_offset =
; 140  :         __offset > 0 ? __offset / __buffer_size
; 141  :                    : -difference_type((-__offset - 1) / __buffer_size) - 1;

  0001d	85 f6		 test	 esi, esi
  0001f	57		 push	 edi
  00020	6a 20		 push	 32			; 00000020H
  00022	5f		 pop	 edi
  00023	7e 07		 jle	 SHORT $L114834
  00025	8b c6		 mov	 eax, esi
  00027	99		 cdq
  00028	f7 ff		 idiv	 edi
  0002a	eb 07		 jmp	 SHORT $L114835
$L114834:
  0002c	8d 46 01	 lea	 eax, DWORD PTR [esi+1]
  0002f	99		 cdq
  00030	f7 ff		 idiv	 edi
  00032	48		 dec	 eax
$L114835:

; 142  :       _M_set_node(_M_node + __node_offset);

  00033	8b 51 0c	 mov	 edx, DWORD PTR [ecx+12]
  00036	8d 14 82	 lea	 edx, DWORD PTR [edx+eax*4]
  00039	89 51 0c	 mov	 DWORD PTR [ecx+12], edx
  0003c	8b 12		 mov	 edx, DWORD PTR [edx]

; 143  :       _M_cur = _M_first + 
; 144  :         (__offset - __node_offset * difference_type(__buffer_size));

  0003e	c1 e0 05	 shl	 eax, 5
  00041	89 51 04	 mov	 DWORD PTR [ecx+4], edx
  00044	81 c2 80 00 00
	00		 add	 edx, 128		; 00000080H
  0004a	2b f0		 sub	 esi, eax
  0004c	8b 41 04	 mov	 eax, DWORD PTR [ecx+4]
  0004f	89 51 08	 mov	 DWORD PTR [ecx+8], edx
  00052	8d 04 b0	 lea	 eax, DWORD PTR [eax+esi*4]
  00055	5f		 pop	 edi
$L114840:
  00056	89 01		 mov	 DWORD PTR [ecx], eax
  00058	5e		 pop	 esi

; 145  :     }
; 146  :   }

  00059	c2 04 00	 ret	 4
?_M_advance@?$_Deque_iterator_base@PAVPacket@@@_STL@@QAEXH@Z ENDP ; _STL::_Deque_iterator_base<Packet *>::_M_advance
_TEXT	ENDS
PUBLIC	??$?8PAVPacket@@@_STL@@YA_NABU?$_Deque_iterator_base@PAVPacket@@@0@0@Z ; _STL::operator==<Packet *>
; Function compile flags: /Ogsy
;	COMDAT ??$?8PAVPacket@@@_STL@@YA_NABU?$_Deque_iterator_base@PAVPacket@@@0@0@Z
_TEXT	SEGMENT
___x$ = 8						; size = 4
___y$ = 12						; size = 4
??$?8PAVPacket@@@_STL@@YA_NABU?$_Deque_iterator_base@PAVPacket@@@0@0@Z PROC NEAR ; _STL::operator==<Packet *>, COMDAT

; 230  :     return __x._M_cur == __y._M_cur; 

  00000	8b 44 24 04	 mov	 eax, DWORD PTR ___x$[esp-4]
  00004	8b 00		 mov	 eax, DWORD PTR [eax]
  00006	8b 4c 24 08	 mov	 ecx, DWORD PTR ___y$[esp-4]
  0000a	2b 01		 sub	 eax, DWORD PTR [ecx]
  0000c	f7 d8		 neg	 eax
  0000e	1b c0		 sbb	 eax, eax
  00010	40		 inc	 eax

; 231  : }

  00011	c3		 ret	 0
??$?8PAVPacket@@@_STL@@YA_NABU?$_Deque_iterator_base@PAVPacket@@@0@0@Z ENDP ; _STL::operator==<Packet *>
_TEXT	ENDS
PUBLIC	??$_Construct@PAVPacket@@PAV1@@_STL@@YAXPAPAVPacket@@ABQAV1@@Z ; _STL::_Construct<Packet *,Packet *>
; Function compile flags: /Ogsy
; File c:\stlport-4.6.1\stlport\stl\_construct.h
;	COMDAT ??$_Construct@PAVPacket@@PAV1@@_STL@@YAXPAPAVPacket@@ABQAV1@@Z
_TEXT	SEGMENT
___p$ = 8						; size = 4
___val$ = 12						; size = 4
??$_Construct@PAVPacket@@PAV1@@_STL@@YAXPAPAVPacket@@ABQAV1@@Z PROC NEAR ; _STL::_Construct<Packet *,Packet *>, COMDAT

; 94   : # ifdef _STLP_DEBUG_UNINITIALIZED
; 95   : 	memset((char*)__p, _STLP_SHRED_BYTE, sizeof(_T1));
; 96   : # endif
; 97   :     _STLP_PLACEMENT_NEW (__p) _T1(__val);

  00000	8b 44 24 04	 mov	 eax, DWORD PTR ___p$[esp-4]
  00004	85 c0		 test	 eax, eax
  00006	74 08		 je	 SHORT $L114848
  00008	8b 4c 24 08	 mov	 ecx, DWORD PTR ___val$[esp-4]
  0000c	8b 09		 mov	 ecx, DWORD PTR [ecx]
  0000e	89 08		 mov	 DWORD PTR [eax], ecx
$L114848:

; 98   : }

  00010	c3		 ret	 0
??$_Construct@PAVPacket@@PAV1@@_STL@@YAXPAPAVPacket@@ABQAV1@@Z ENDP ; _STL::_Construct<Packet *,Packet *>
_TEXT	ENDS
PUBLIC	??$_Destroy@PAVPacket@@@_STL@@YAXPAPAVPacket@@@Z ; _STL::_Destroy<Packet *>
; Function compile flags: /Ogsy
;	COMDAT ??$_Destroy@PAVPacket@@@_STL@@YAXPAPAVPacket@@@Z
_TEXT	SEGMENT
___pointer$ = 8						; size = 4
??$_Destroy@PAVPacket@@@_STL@@YAXPAPAVPacket@@@Z PROC NEAR ; _STL::_Destroy<Packet *>, COMDAT

; 57   : # if _MSC_VER >= 1010
; 58   :   __pointer;
; 59   : # endif	// _MSC_VER >= 1000
; 60   : # ifdef _STLP_TRIVIAL_DESTRUCTOR_BUG
; 61   :   typedef typename __type_traits<_Tp>::has_trivial_destructor _Trivial_destructor;
; 62   :   __destroy_aux(__pointer, _Trivial_destructor());
; 63   : # else
; 64   : #  if ( defined (__BORLANDC__) && ( __BORLANDC__ < 0x500 ) )
; 65   :     __pointer->_Tp::~_Tp();
; 66   : #  else
; 67   :     __pointer->~_Tp();
; 68   : #  endif
; 69   : # endif
; 70   : # ifdef _STLP_DEBUG_UNINITIALIZED
; 71   : 	memset((char*)__pointer, _STLP_SHRED_BYTE, sizeof(_Tp));
; 72   : # endif
; 73   : }

  00000	c3		 ret	 0
??$_Destroy@PAVPacket@@@_STL@@YAXPAPAVPacket@@@Z ENDP	; _STL::_Destroy<Packet *>
_TEXT	ENDS
PUBLIC	??$?0U?$_List_node@V?$basic_string@DV?$char_traits@D@_STL@@V?$allocator@D@2@@_STL@@@_STL@@@?$allocator@V?$basic_string@DV?$char_traits@D@_STL@@V?$allocator@D@2@@_STL@@@_STL@@QAE@ABV?$allocator@U?$_List_node@V?$basic_string@DV?$char_traits@D@_STL@@V?$allocator@D@2@@_STL@@@_STL@@@1@@Z ; _STL::allocator<_STL::basic_string<char,_STL::char_traits<char>,_STL::allocator<char> > >::allocator<_STL::basic_string<char,_STL::char_traits<char>,_STL::allocator<char> > ><_STL::_List_node<_STL::basic_string<char,_STL::char_traits<char>,_STL::allocator<char> > > >
; Function compile flags: /Ogsy
; File c:\stlport-4.6.1\stlport\stl\_alloc.h
;	COMDAT ??$?0U?$_List_node@V?$basic_string@DV?$char_traits@D@_STL@@V?$allocator@D@2@@_STL@@@_STL@@@?$allocator@V?$basic_string@DV?$char_traits@D@_STL@@V?$allocator@D@2@@_STL@@@_STL@@QAE@ABV?$allocator@U?$_List_node@V?$basic_string@DV?$char_traits@D@_STL@@V?$allocator@D@2@@_STL@@@_STL@@@1@@Z
_TEXT	SEGMENT
___formal$ = 8						; size = 4
??$?0U?$_List_node@V?$basic_string@DV?$char_traits@D@_STL@@V?$allocator@D@2@@_STL@@@_STL@@@?$allocator@V?$basic_string@DV?$char_traits@D@_STL@@V?$allocator@D@2@@_STL@@@_STL@@QAE@ABV?$allocator@U?$_List_node@V?$basic_string@DV?$char_traits@D@_STL@@V?$allocator@D@2@@_STL@@@_STL@@@1@@Z PROC NEAR ; _STL::allocator<_STL::basic_string<char,_STL::char_traits<char>,_STL::allocator<char> > >::allocator<_STL::basic_string<char,_STL::char_traits<char>,_STL::allocator<char> > ><_STL::_List_node<_STL::basic_string<char,_STL::char_traits<char>,_STL::allocator<char> > > >, COMDAT
; _this$ = ecx

; 347  :   template <class _Tp1> allocator(const allocator<_Tp1>&) _STLP_NOTHROW {}

  00000	8b c1		 mov	 eax, ecx
  00002	c2 04 00	 ret	 4
??$?0U?$_List_node@V?$basic_string@DV?$char_traits@D@_STL@@V?$allocator@D@2@@_STL@@@_STL@@@?$allocator@V?$basic_string@DV?$char_traits@D@_STL@@V?$allocator@D@2@@_STL@@@_STL@@QAE@ABV?$allocator@U?$_List_node@V?$basic_string@DV?$char_traits@D@_STL@@V?$allocator@D@2@@_STL@@@_STL@@@1@@Z ENDP ; _STL::allocator<_STL::basic_string<char,_STL::char_traits<char>,_STL::allocator<char> > >::allocator<_STL::basic_string<char,_STL::char_traits<char>,_STL::allocator<char> > ><_STL::_List_node<_STL::basic_string<char,_STL::char_traits<char>,_STL::allocator<char> > > >
_TEXT	ENDS
PUBLIC	??$?0PAVPacket@@@?$allocator@PAPAVPacket@@@_STL@@QAE@ABV?$allocator@PAVPacket@@@1@@Z ; _STL::allocator<Packet * *>::allocator<Packet * *><Packet *>
; Function compile flags: /Ogsy
;	COMDAT ??$?0PAVPacket@@@?$allocator@PAPAVPacket@@@_STL@@QAE@ABV?$allocator@PAVPacket@@@1@@Z
_TEXT	SEGMENT
___formal$ = 8						; size = 4
??$?0PAVPacket@@@?$allocator@PAPAVPacket@@@_STL@@QAE@ABV?$allocator@PAVPacket@@@1@@Z PROC NEAR ; _STL::allocator<Packet * *>::allocator<Packet * *><Packet *>, COMDAT
; _this$ = ecx

; 347  :   template <class _Tp1> allocator(const allocator<_Tp1>&) _STLP_NOTHROW {}

  00000	8b c1		 mov	 eax, ecx
  00002	c2 04 00	 ret	 4
??$?0PAVPacket@@@?$allocator@PAPAVPacket@@@_STL@@QAE@ABV?$allocator@PAVPacket@@@1@@Z ENDP ; _STL::allocator<Packet * *>::allocator<Packet * *><Packet *>
_TEXT	ENDS
PUBLIC	??0?$_List_iterator@V?$basic_string@DV?$char_traits@D@_STL@@V?$allocator@D@2@@_STL@@U?$_Nonconst_traits@V?$basic_string@DV?$char_traits@D@_STL@@V?$allocator@D@2@@_STL@@@2@@_STL@@QAE@ABU01@@Z ; _STL::_List_iterator<_STL::basic_string<char,_STL::char_traits<char>,_STL::allocator<char> >,_STL::_Nonconst_traits<_STL::basic_string<char,_STL::char_traits<char>,_STL::allocator<char> > > >::_List_iterator<_STL::basic_string<char,_STL::char_traits<char>,_STL::allocator<char> >,_STL::_Nonconst_traits<_STL::basic_string<char,_STL::char_traits<char>,_STL::allocator<char> > > >
; Function compile flags: /Ogsy
; File c:\stlport-4.6.1\stlport\stl\_list.h
;	COMDAT ??0?$_List_iterator@V?$basic_string@DV?$char_traits@D@_STL@@V?$allocator@D@2@@_STL@@U?$_Nonconst_traits@V?$basic_string@DV?$char_traits@D@_STL@@V?$allocator@D@2@@_STL@@@2@@_STL@@QAE@ABU01@@Z
_TEXT	SEGMENT
___x$ = 8						; size = 4
??0?$_List_iterator@V?$basic_string@DV?$char_traits@D@_STL@@V?$allocator@D@2@@_STL@@U?$_Nonconst_traits@V?$basic_string@DV?$char_traits@D@_STL@@V?$allocator@D@2@@_STL@@@2@@_STL@@QAE@ABU01@@Z PROC NEAR ; _STL::_List_iterator<_STL::basic_string<char,_STL::char_traits<char>,_STL::allocator<char> >,_STL::_Nonconst_traits<_STL::basic_string<char,_STL::char_traits<char>,_STL::allocator<char> > > >::_List_iterator<_STL::basic_string<char,_STL::char_traits<char>,_STL::allocator<char> >,_STL::_Nonconst_traits<_STL::basic_string<char,_STL::char_traits<char>,_STL::allocator<char> > > >, COMDAT
; _this$ = ecx

; 128  :   _List_iterator(const iterator& __x) :  _List_iterator_base(__x._M_node) {}

  00000	8b c1		 mov	 eax, ecx
  00002	8b 4c 24 04	 mov	 ecx, DWORD PTR ___x$[esp-4]
  00006	8b 09		 mov	 ecx, DWORD PTR [ecx]
  00008	89 08		 mov	 DWORD PTR [eax], ecx
  0000a	c2 04 00	 ret	 4
??0?$_List_iterator@V?$basic_string@DV?$char_traits@D@_STL@@V?$allocator@D@2@@_STL@@U?$_Nonconst_traits@V?$basic_string@DV?$char_traits@D@_STL@@V?$allocator@D@2@@_STL@@@2@@_STL@@QAE@ABU01@@Z ENDP ; _STL::_List_iterator<_STL::basic_string<char,_STL::char_traits<char>,_STL::allocator<char> >,_STL::_Nonconst_traits<_STL::basic_string<char,_STL::char_traits<char>,_STL::allocator<char> > > >::_List_iterator<_STL::basic_string<char,_STL::char_traits<char>,_STL::allocator<char> >,_STL::_Nonconst_traits<_STL::basic_string<char,_STL::char_traits<char>,_STL::allocator<char> > > >
_TEXT	ENDS
PUBLIC	?buffer_size@?$_Deque_base@PAVPacket@@V?$allocator@PAVPacket@@@_STL@@@_STL@@SAIXZ ; _STL::_Deque_base<Packet *,_STL::allocator<Packet *> >::buffer_size
; Function compile flags: /Ogsy
; File c:\stlport-4.6.1\stlport\stl\_deque.h
;	COMDAT ?buffer_size@?$_Deque_base@PAVPacket@@V?$allocator@PAVPacket@@@_STL@@@_STL@@SAIXZ
_TEXT	SEGMENT
?buffer_size@?$_Deque_base@PAVPacket@@V?$allocator@PAVPacket@@@_STL@@@_STL@@SAIXZ PROC NEAR ; _STL::_Deque_base<Packet *,_STL::allocator<Packet *> >::buffer_size, COMDAT

; 332  :   static size_t  _STLP_CALL buffer_size() { return (size_t)_Deque_iterator_base<_Tp>::__buffer_size; } 

  00000	6a 20		 push	 32			; 00000020H
  00002	58		 pop	 eax
  00003	c3		 ret	 0
?buffer_size@?$_Deque_base@PAVPacket@@V?$allocator@PAVPacket@@@_STL@@@_STL@@SAIXZ ENDP ; _STL::_Deque_base<Packet *,_STL::allocator<Packet *> >::buffer_size
_TEXT	ENDS
PUBLIC	??$max@I@_STL@@YAABIABI0@Z			; _STL::max<unsigned int>
; Function compile flags: /Ogsy
; File c:\stlport-4.6.1\stlport\stl\_algobase.h
;	COMDAT ??$max@I@_STL@@YAABIABI0@Z
_TEXT	SEGMENT
___a$ = 8						; size = 4
___b$ = 12						; size = 4
??$max@I@_STL@@YAABIABI0@Z PROC NEAR			; _STL::max<unsigned int>, COMDAT

; 79   : inline const _Tp& (max)(const _Tp& __a, const _Tp& __b) {  return  __a < __b ? __b : __a; }

  00000	8b 44 24 04	 mov	 eax, DWORD PTR ___a$[esp-4]
  00004	8b 10		 mov	 edx, DWORD PTR [eax]
  00006	8b 4c 24 08	 mov	 ecx, DWORD PTR ___b$[esp-4]
  0000a	3b 11		 cmp	 edx, DWORD PTR [ecx]
  0000c	73 02		 jae	 SHORT $L114877
  0000e	8b c1		 mov	 eax, ecx
$L114877:
  00010	c3		 ret	 0
??$max@I@_STL@@YAABIABI0@Z ENDP				; _STL::max<unsigned int>
_TEXT	ENDS
PUBLIC	??E?$_List_iterator@V?$basic_string@DV?$char_traits@D@_STL@@V?$allocator@D@2@@_STL@@U?$_Const_traits@V?$basic_string@DV?$char_traits@D@_STL@@V?$allocator@D@2@@_STL@@@2@@_STL@@QAEAAU01@XZ ; _STL::_List_iterator<_STL::basic_string<char,_STL::char_traits<char>,_STL::allocator<char> >,_STL::_Const_traits<_STL::basic_string<char,_STL::char_traits<char>,_STL::allocator<char> > > >::operator++
; Function compile flags: /Ogsy
; File c:\stlport-4.6.1\stlport\stl\_list.h
;	COMDAT ??E?$_List_iterator@V?$basic_string@DV?$char_traits@D@_STL@@V?$allocator@D@2@@_STL@@U?$_Const_traits@V?$basic_string@DV?$char_traits@D@_STL@@V?$allocator@D@2@@_STL@@@2@@_STL@@QAEAAU01@XZ
_TEXT	SEGMENT
??E?$_List_iterator@V?$basic_string@DV?$char_traits@D@_STL@@V?$allocator@D@2@@_STL@@U?$_Const_traits@V?$basic_string@DV?$char_traits@D@_STL@@V?$allocator@D@2@@_STL@@@2@@_STL@@QAEAAU01@XZ PROC NEAR ; _STL::_List_iterator<_STL::basic_string<char,_STL::char_traits<char>,_STL::allocator<char> >,_STL::_Const_traits<_STL::basic_string<char,_STL::char_traits<char>,_STL::allocator<char> > > >::operator++, COMDAT
; _this$ = ecx

; 134  :   _Self& operator++() { 

  00000	8b c1		 mov	 eax, ecx

; 135  :     this->_M_incr();

  00002	8b 08		 mov	 ecx, DWORD PTR [eax]
  00004	8b 09		 mov	 ecx, DWORD PTR [ecx]
  00006	89 08		 mov	 DWORD PTR [eax], ecx

; 136  :     return *this;
; 137  :   }

  00008	c3		 ret	 0
??E?$_List_iterator@V?$basic_string@DV?$char_traits@D@_STL@@V?$allocator@D@2@@_STL@@U?$_Const_traits@V?$basic_string@DV?$char_traits@D@_STL@@V?$allocator@D@2@@_STL@@@2@@_STL@@QAEAAU01@XZ ENDP ; _STL::_List_iterator<_STL::basic_string<char,_STL::char_traits<char>,_STL::allocator<char> >,_STL::_Const_traits<_STL::basic_string<char,_STL::char_traits<char>,_STL::allocator<char> > > >::operator++
_TEXT	ENDS
PUBLIC	?base@?$reverse_iterator@U?$_Deque_iterator@PAVPacket@@U?$_Nonconst_traits@PAVPacket@@@_STL@@@_STL@@@_STL@@QBE?AU?$_Deque_iterator@PAVPacket@@U?$_Nonconst_traits@PAVPacket@@@_STL@@@2@XZ ; _STL::reverse_iterator<_STL::_Deque_iterator<Packet *,_STL::_Nonconst_traits<Packet *> > >::base
; Function compile flags: /Ogsy
; File c:\stlport-4.6.1\stlport\stl\_iterator.h
;	COMDAT ?base@?$reverse_iterator@U?$_Deque_iterator@PAVPacket@@U?$_Nonconst_traits@PAVPacket@@@_STL@@@_STL@@@_STL@@QBE?AU?$_Deque_iterator@PAVPacket@@U?$_Nonconst_traits@PAVPacket@@@_STL@@@2@XZ
_TEXT	SEGMENT
___$ReturnUdt$ = 8					; size = 4
?base@?$reverse_iterator@U?$_Deque_iterator@PAVPacket@@U?$_Nonconst_traits@PAVPacket@@@_STL@@@_STL@@@_STL@@QBE?AU?$_Deque_iterator@PAVPacket@@U?$_Nonconst_traits@PAVPacket@@@_STL@@@2@XZ PROC NEAR ; _STL::reverse_iterator<_STL::_Deque_iterator<Packet *,_STL::_Nonconst_traits<Packet *> > >::base, COMDAT
; _this$ = ecx

; 76   :   iterator_type base() const { return current; }

  00000	8b 44 24 04	 mov	 eax, DWORD PTR ___$ReturnUdt$[esp-4]
  00004	56		 push	 esi
  00005	57		 push	 edi
  00006	8b f1		 mov	 esi, ecx
  00008	8b f8		 mov	 edi, eax
  0000a	a5		 movsd
  0000b	a5		 movsd
  0000c	a5		 movsd
  0000d	a5		 movsd
  0000e	5f		 pop	 edi
  0000f	5e		 pop	 esi
  00010	c2 04 00	 ret	 4
?base@?$reverse_iterator@U?$_Deque_iterator@PAVPacket@@U?$_Nonconst_traits@PAVPacket@@@_STL@@@_STL@@@_STL@@QBE?AU?$_Deque_iterator@PAVPacket@@U?$_Nonconst_traits@PAVPacket@@@_STL@@@2@XZ ENDP ; _STL::reverse_iterator<_STL::_Deque_iterator<Packet *,_STL::_Nonconst_traits<Packet *> > >::base
_TEXT	ENDS
PUBLIC	??$__destroy_aux@U?$_Deque_iterator@PAVPacket@@U?$_Nonconst_traits@PAVPacket@@@_STL@@@_STL@@@_STL@@YAXU?$_Deque_iterator@PAVPacket@@U?$_Nonconst_traits@PAVPacket@@@_STL@@@0@0ABU__true_type@0@@Z ; _STL::__destroy_aux<_STL::_Deque_iterator<Packet *,_STL::_Nonconst_traits<Packet *> > >
; Function compile flags: /Ogsy
; File c:\stlport-4.6.1\stlport\stl\_construct.h
;	COMDAT ??$__destroy_aux@U?$_Deque_iterator@PAVPacket@@U?$_Nonconst_traits@PAVPacket@@@_STL@@@_STL@@@_STL@@YAXU?$_Deque_iterator@PAVPacket@@U?$_Nonconst_traits@PAVPacket@@@_STL@@@0@0ABU__true_type@0@@Z
_TEXT	SEGMENT
___formal$ = 8						; size = 16
___formal$ = 24						; size = 16
___formal$ = 40						; size = 4
??$__destroy_aux@U?$_Deque_iterator@PAVPacket@@U?$_Nonconst_traits@PAVPacket@@@_STL@@@_STL@@@_STL@@YAXU?$_Deque_iterator@PAVPacket@@U?$_Nonconst_traits@PAVPacket@@@_STL@@@0@0ABU__true_type@0@@Z PROC NEAR ; _STL::__destroy_aux<_STL::_Deque_iterator<Packet *,_STL::_Nonconst_traits<Packet *> > >, COMDAT

; 128  : inline void __destroy_aux(_ForwardIterator, _ForwardIterator, const __true_type&) {}

  00000	c3		 ret	 0
??$__destroy_aux@U?$_Deque_iterator@PAVPacket@@U?$_Nonconst_traits@PAVPacket@@@_STL@@@_STL@@@_STL@@YAXU?$_Deque_iterator@PAVPacket@@U?$_Nonconst_traits@PAVPacket@@@_STL@@@0@0ABU__true_type@0@@Z ENDP ; _STL::__destroy_aux<_STL::_Deque_iterator<Packet *,_STL::_Nonconst_traits<Packet *> > >
_TEXT	ENDS
PUBLIC	?max_size@?$_String_base@DV?$allocator@D@_STL@@@_STL@@QBEIXZ ; _STL::_String_base<char,_STL::allocator<char> >::max_size
; Function compile flags: /Ogsy
; File c:\stlport-4.6.1\stlport\stl\_string.h
;	COMDAT ?max_size@?$_String_base@DV?$allocator@D@_STL@@@_STL@@QBEIXZ
_TEXT	SEGMENT
?max_size@?$_String_base@DV?$allocator@D@_STL@@@_STL@@QBEIXZ PROC NEAR ; _STL::_String_base<char,_STL::allocator<char> >::max_size, COMDAT
; _this$ = ecx

; 126  :   size_t max_size() const { return (size_t(-1) / sizeof(_Tp)) - 1; }

  00000	6a fe		 push	 -2			; fffffffeH
  00002	58		 pop	 eax
  00003	c3		 ret	 0
?max_size@?$_String_base@DV?$allocator@D@_STL@@@_STL@@QBEIXZ ENDP ; _STL::_String_base<char,_STL::allocator<char> >::max_size
_TEXT	ENDS
PUBLIC	?_Ret@?$_BothPtrType@PAPAPAVPacket@@PAPAPAV1@@_STL@@SA?AU__true_type@2@XZ ; _STL::_BothPtrType<Packet * * *,Packet * * *>::_Ret
; Function compile flags: /Ogsy
; File c:\stlport-4.6.1\stlport\stl\type_traits.h
;	COMDAT ?_Ret@?$_BothPtrType@PAPAPAVPacket@@PAPAPAV1@@_STL@@SA?AU__true_type@2@XZ
_TEXT	SEGMENT
$T114899 = -1						; size = 1
?_Ret@?$_BothPtrType@PAPAPAVPacket@@PAPAPAV1@@_STL@@SA?AU__true_type@2@XZ PROC NEAR ; _STL::_BothPtrType<Packet * * *,Packet * * *>::_Ret, COMDAT

; 234  :   static __true_type _Ret() { return __true_type();} 

  00000	55		 push	 ebp
  00001	8b ec		 mov	 ebp, esp
  00003	51		 push	 ecx
  00004	57		 push	 edi
  00005	33 c0		 xor	 eax, eax
  00007	8d 7d ff	 lea	 edi, DWORD PTR $T114899[ebp]
  0000a	aa		 stosb
  0000b	8a 45 ff	 mov	 al, BYTE PTR $T114899[ebp]
  0000e	5f		 pop	 edi
  0000f	c9		 leave
  00010	c3		 ret	 0
?_Ret@?$_BothPtrType@PAPAPAVPacket@@PAPAPAV1@@_STL@@SA?AU__true_type@2@XZ ENDP ; _STL::_BothPtrType<Packet * * *,Packet * * *>::_Ret
_TEXT	ENDS
PUBLIC	??$__distance@PBD@_STL@@YAHABQBD0ABUrandom_access_iterator_tag@0@@Z ; _STL::__distance<char const *>
; Function compile flags: /Ogsy
; File c:\stlport-4.6.1\stlport\stl\_iterator_base.h
;	COMDAT ??$__distance@PBD@_STL@@YAHABQBD0ABUrandom_access_iterator_tag@0@@Z
_TEXT	SEGMENT
___first$ = 8						; size = 4
___last$ = 12						; size = 4
___formal$ = 16						; size = 4
??$__distance@PBD@_STL@@YAHABQBD0ABUrandom_access_iterator_tag@0@@Z PROC NEAR ; _STL::__distance<char const *>, COMDAT

; 363  :   return __last - __first;

  00000	8b 44 24 08	 mov	 eax, DWORD PTR ___last$[esp-4]
  00004	8b 00		 mov	 eax, DWORD PTR [eax]
  00006	8b 4c 24 04	 mov	 ecx, DWORD PTR ___first$[esp-4]
  0000a	2b 01		 sub	 eax, DWORD PTR [ecx]

; 364  : }

  0000c	c3		 ret	 0
??$__distance@PBD@_STL@@YAHABQBD0ABUrandom_access_iterator_tag@0@@Z ENDP ; _STL::__distance<char const *>
_TEXT	ENDS
PUBLIC	??_C@_0N@GOPDCEEB@basic_string?$AA@		; `string'
PUBLIC	?_M_throw_length_error@?$_String_base@DV?$allocator@D@_STL@@@_STL@@QBEXXZ ; _STL::_String_base<char,_STL::allocator<char> >::_M_throw_length_error
EXTRN	?__stl_throw_length_error@_STL@@YAXPBD@Z:NEAR	; _STL::__stl_throw_length_error
;	COMDAT ??_C@_0N@GOPDCEEB@basic_string?$AA@
; File c:\stlport-4.6.1\stlport\stl\_string.c
CONST	SEGMENT
??_C@_0N@GOPDCEEB@basic_string?$AA@ DB 'basic_string', 00H ; `string'
; Function compile flags: /Ogsy
CONST	ENDS
;	COMDAT ?_M_throw_length_error@?$_String_base@DV?$allocator@D@_STL@@@_STL@@QBEXXZ
_TEXT	SEGMENT
?_M_throw_length_error@?$_String_base@DV?$allocator@D@_STL@@@_STL@@QBEXXZ PROC NEAR ; _STL::_String_base<char,_STL::allocator<char> >::_M_throw_length_error, COMDAT
; _this$ = ecx

; 523  :     __stl_throw_length_error("basic_string");

  00000	68 00 00 00 00	 push	 OFFSET FLAT:??_C@_0N@GOPDCEEB@basic_string?$AA@
  00005	e8 00 00 00 00	 call	 ?__stl_throw_length_error@_STL@@YAXPBD@Z ; _STL::__stl_throw_length_error
  0000a	59		 pop	 ecx

; 524  : }

  0000b	c3		 ret	 0
?_M_throw_length_error@?$_String_base@DV?$allocator@D@_STL@@@_STL@@QBEXXZ ENDP ; _STL::_String_base<char,_STL::allocator<char> >::_M_throw_length_error
_TEXT	ENDS
PUBLIC	??$__distance@PAD@_STL@@YAHABQAD0ABUrandom_access_iterator_tag@0@@Z ; _STL::__distance<char *>
; Function compile flags: /Ogsy
; File c:\stlport-4.6.1\stlport\stl\_iterator_base.h
;	COMDAT ??$__distance@PAD@_STL@@YAHABQAD0ABUrandom_access_iterator_tag@0@@Z
_TEXT	SEGMENT
___first$ = 8						; size = 4
___last$ = 12						; size = 4
___formal$ = 16						; size = 4
??$__distance@PAD@_STL@@YAHABQAD0ABUrandom_access_iterator_tag@0@@Z PROC NEAR ; _STL::__distance<char *>, COMDAT

; 363  :   return __last - __first;

  00000	8b 44 24 08	 mov	 eax, DWORD PTR ___last$[esp-4]
  00004	8b 00		 mov	 eax, DWORD PTR [eax]
  00006	8b 4c 24 04	 mov	 ecx, DWORD PTR ___first$[esp-4]
  0000a	2b 01		 sub	 eax, DWORD PTR [ecx]

; 364  : }

  0000c	c3		 ret	 0
??$__distance@PAD@_STL@@YAHABQAD0ABUrandom_access_iterator_tag@0@@Z ENDP ; _STL::__distance<char *>
_TEXT	ENDS
PUBLIC	?_Ret@?$_BothPtrType@PADPAD@_STL@@SA?AU__true_type@2@XZ ; _STL::_BothPtrType<char *,char *>::_Ret
; Function compile flags: /Ogsy
; File c:\stlport-4.6.1\stlport\stl\type_traits.h
;	COMDAT ?_Ret@?$_BothPtrType@PADPAD@_STL@@SA?AU__true_type@2@XZ
_TEXT	SEGMENT
$T114911 = -1						; size = 1
?_Ret@?$_BothPtrType@PADPAD@_STL@@SA?AU__true_type@2@XZ PROC NEAR ; _STL::_BothPtrType<char *,char *>::_Ret, COMDAT

; 234  :   static __true_type _Ret() { return __true_type();} 

  00000	55		 push	 ebp
  00001	8b ec		 mov	 ebp, esp
  00003	51		 push	 ecx
  00004	57		 push	 edi
  00005	33 c0		 xor	 eax, eax
  00007	8d 7d ff	 lea	 edi, DWORD PTR $T114911[ebp]
  0000a	aa		 stosb
  0000b	8a 45 ff	 mov	 al, BYTE PTR $T114911[ebp]
  0000e	5f		 pop	 edi
  0000f	c9		 leave
  00010	c3		 ret	 0
?_Ret@?$_BothPtrType@PADPAD@_STL@@SA?AU__true_type@2@XZ ENDP ; _STL::_BothPtrType<char *,char *>::_Ret
_TEXT	ENDS
PUBLIC	?_Ret@?$_OKToMemCpy@PAPAVPacket@@PAPAV1@@_STL@@SA?AU__true_type@2@XZ ; _STL::_OKToMemCpy<Packet * *,Packet * *>::_Ret
; Function compile flags: /Ogsy
;	COMDAT ?_Ret@?$_OKToMemCpy@PAPAVPacket@@PAPAV1@@_STL@@SA?AU__true_type@2@XZ
_TEXT	SEGMENT
$T114914 = -1						; size = 1
?_Ret@?$_OKToMemCpy@PAPAVPacket@@PAPAV1@@_STL@@SA?AU__true_type@2@XZ PROC NEAR ; _STL::_OKToMemCpy<Packet * *,Packet * *>::_Ret, COMDAT

; 361  :   static _Type _Ret() { return _Type(); }

  00000	55		 push	 ebp
  00001	8b ec		 mov	 ebp, esp
  00003	51		 push	 ecx
  00004	57		 push	 edi
  00005	33 c0		 xor	 eax, eax
  00007	8d 7d ff	 lea	 edi, DWORD PTR $T114914[ebp]
  0000a	aa		 stosb
  0000b	8a 45 ff	 mov	 al, BYTE PTR $T114914[ebp]
  0000e	5f		 pop	 edi
  0000f	c9		 leave
  00010	c3		 ret	 0
?_Ret@?$_OKToMemCpy@PAPAVPacket@@PAPAV1@@_STL@@SA?AU__true_type@2@XZ ENDP ; _STL::_OKToMemCpy<Packet * *,Packet * *>::_Ret
_TEXT	ENDS
PUBLIC	??$_IsOKToMemCpy@PAPAVPacket@@PAPAV1@@_STL@@YA?AU?$_OKToMemCpy@PAPAVPacket@@PAPAV1@@0@PAPAPAVPacket@@0@Z ; _STL::_IsOKToMemCpy<Packet * *,Packet * *>
; Function compile flags: /Ogsy
;	COMDAT ??$_IsOKToMemCpy@PAPAVPacket@@PAPAV1@@_STL@@YA?AU?$_OKToMemCpy@PAPAVPacket@@PAPAV1@@0@PAPAPAVPacket@@0@Z
_TEXT	SEGMENT
$T114917 = -1						; size = 1
___formal$ = 8						; size = 4
___formal$ = 12						; size = 4
??$_IsOKToMemCpy@PAPAVPacket@@PAPAV1@@_STL@@YA?AU?$_OKToMemCpy@PAPAVPacket@@PAPAV1@@0@PAPAPAVPacket@@0@Z PROC NEAR ; _STL::_IsOKToMemCpy<Packet * *,Packet * *>, COMDAT

; 365  : inline _OKToMemCpy<_Tp1, _Tp2> _IsOKToMemCpy(_Tp1*, _Tp2*)  {

  00000	55		 push	 ebp
  00001	8b ec		 mov	 ebp, esp
  00003	51		 push	 ecx
  00004	57		 push	 edi

; 366  :   return _OKToMemCpy<_Tp1, _Tp2>();

  00005	33 c0		 xor	 eax, eax
  00007	8d 7d ff	 lea	 edi, DWORD PTR $T114917[ebp]
  0000a	aa		 stosb
  0000b	8a 45 ff	 mov	 al, BYTE PTR $T114917[ebp]
  0000e	5f		 pop	 edi

; 367  : }

  0000f	c9		 leave
  00010	c3		 ret	 0
??$_IsOKToMemCpy@PAPAVPacket@@PAPAV1@@_STL@@YA?AU?$_OKToMemCpy@PAPAVPacket@@PAPAV1@@0@PAPAPAVPacket@@0@Z ENDP ; _STL::_IsOKToMemCpy<Packet * *,Packet * *>
_TEXT	ENDS
PUBLIC	??$__copy_ptrs@PAPAPAVPacket@@PAPAPAV1@@_STL@@YAPAPAPAVPacket@@PAPAPAV1@00ABU__true_type@0@@Z ; _STL::__copy_ptrs<Packet * * *,Packet * * *>
; Function compile flags: /Ogsy
; File c:\stlport-4.6.1\stlport\stl\_algobase.h
;	COMDAT ??$__copy_ptrs@PAPAPAVPacket@@PAPAPAV1@@_STL@@YAPAPAPAVPacket@@PAPAPAV1@00ABU__true_type@0@@Z
_TEXT	SEGMENT
___first$ = 8						; size = 4
___last$ = 12						; size = 4
___result$ = 16						; size = 4
___formal$ = 20						; size = 4
??$__copy_ptrs@PAPAPAVPacket@@PAPAPAV1@@_STL@@YAPAPAPAVPacket@@PAPAPAV1@00ABU__true_type@0@@Z PROC NEAR ; _STL::__copy_ptrs<Packet * * *,Packet * * *>, COMDAT

; 195  : // we know they all pointers, so this cast is OK 
; 196  :   //  return (_OutputIter)__copy_trivial(&(*__first), &(*__last), &(*__result));
; 197  :   return (_OutputIter)__copy_trivial(__first, __last, __result);

  00000	ff 74 24 0c	 push	 DWORD PTR ___result$[esp-4]
  00004	ff 74 24 0c	 push	 DWORD PTR ___last$[esp]
  00008	ff 74 24 0c	 push	 DWORD PTR ___first$[esp+4]
  0000c	e8 00 00 00 00	 call	 ?__copy_trivial@_STL@@YAPAXPBX0PAX@Z ; _STL::__copy_trivial
  00011	83 c4 0c	 add	 esp, 12			; 0000000cH

; 198  : }

  00014	c3		 ret	 0
??$__copy_ptrs@PAPAPAVPacket@@PAPAPAV1@@_STL@@YAPAPAPAVPacket@@PAPAPAV1@00ABU__true_type@0@@Z ENDP ; _STL::__copy_ptrs<Packet * * *,Packet * * *>
_TEXT	ENDS
PUBLIC	??$__copy_backward_ptrs@PAPAPAVPacket@@PAPAPAV1@@_STL@@YAPAPAPAVPacket@@PAPAPAV1@00ABU__true_type@0@@Z ; _STL::__copy_backward_ptrs<Packet * * *,Packet * * *>
; Function compile flags: /Ogsy
;	COMDAT ??$__copy_backward_ptrs@PAPAPAVPacket@@PAPAPAV1@@_STL@@YAPAPAPAVPacket@@PAPAPAV1@00ABU__true_type@0@@Z
_TEXT	SEGMENT
___first$ = 8						; size = 4
___last$ = 12						; size = 4
___result$ = 16						; size = 4
___formal$ = 20						; size = 4
??$__copy_backward_ptrs@PAPAPAVPacket@@PAPAPAV1@@_STL@@YAPAPAPAVPacket@@PAPAPAV1@00ABU__true_type@0@@Z PROC NEAR ; _STL::__copy_backward_ptrs<Packet * * *,Packet * * *>, COMDAT

; 225  :   return (_OutputIter)__copy_trivial_backward(__first, __last, __result);  

  00000	ff 74 24 0c	 push	 DWORD PTR ___result$[esp-4]
  00004	ff 74 24 0c	 push	 DWORD PTR ___last$[esp]
  00008	ff 74 24 0c	 push	 DWORD PTR ___first$[esp+4]
  0000c	e8 00 00 00 00	 call	 ?__copy_trivial_backward@_STL@@YAPAXPBX0PAX@Z ; _STL::__copy_trivial_backward
  00011	83 c4 0c	 add	 esp, 12			; 0000000cH

; 226  : }

  00014	c3		 ret	 0
??$__copy_backward_ptrs@PAPAPAVPacket@@PAPAPAV1@@_STL@@YAPAPAPAVPacket@@PAPAPAV1@00ABU__true_type@0@@Z ENDP ; _STL::__copy_backward_ptrs<Packet * * *,Packet * * *>
_TEXT	ENDS
PUBLIC	?_Ret@?$_OKToMemCpy@DD@_STL@@SA?AU__true_type@2@XZ ; _STL::_OKToMemCpy<char,char>::_Ret
; Function compile flags: /Ogsy
; File c:\stlport-4.6.1\stlport\stl\type_traits.h
;	COMDAT ?_Ret@?$_OKToMemCpy@DD@_STL@@SA?AU__true_type@2@XZ
_TEXT	SEGMENT
$T114926 = -1						; size = 1
?_Ret@?$_OKToMemCpy@DD@_STL@@SA?AU__true_type@2@XZ PROC NEAR ; _STL::_OKToMemCpy<char,char>::_Ret, COMDAT

; 361  :   static _Type _Ret() { return _Type(); }

  00000	55		 push	 ebp
  00001	8b ec		 mov	 ebp, esp
  00003	51		 push	 ecx
  00004	57		 push	 edi
  00005	33 c0		 xor	 eax, eax
  00007	8d 7d ff	 lea	 edi, DWORD PTR $T114926[ebp]
  0000a	aa		 stosb
  0000b	8a 45 ff	 mov	 al, BYTE PTR $T114926[ebp]
  0000e	5f		 pop	 edi
  0000f	c9		 leave
  00010	c3		 ret	 0
?_Ret@?$_OKToMemCpy@DD@_STL@@SA?AU__true_type@2@XZ ENDP	; _STL::_OKToMemCpy<char,char>::_Ret
_TEXT	ENDS
PUBLIC	??$_IsOKToMemCpy@DD@_STL@@YA?AU?$_OKToMemCpy@DD@0@PAD0@Z ; _STL::_IsOKToMemCpy<char,char>
; Function compile flags: /Ogsy
;	COMDAT ??$_IsOKToMemCpy@DD@_STL@@YA?AU?$_OKToMemCpy@DD@0@PAD0@Z
_TEXT	SEGMENT
$T114929 = -1						; size = 1
___formal$ = 8						; size = 4
___formal$ = 12						; size = 4
??$_IsOKToMemCpy@DD@_STL@@YA?AU?$_OKToMemCpy@DD@0@PAD0@Z PROC NEAR ; _STL::_IsOKToMemCpy<char,char>, COMDAT

; 365  : inline _OKToMemCpy<_Tp1, _Tp2> _IsOKToMemCpy(_Tp1*, _Tp2*)  {

  00000	55		 push	 ebp
  00001	8b ec		 mov	 ebp, esp
  00003	51		 push	 ecx
  00004	57		 push	 edi

; 366  :   return _OKToMemCpy<_Tp1, _Tp2>();

  00005	33 c0		 xor	 eax, eax
  00007	8d 7d ff	 lea	 edi, DWORD PTR $T114929[ebp]
  0000a	aa		 stosb
  0000b	8a 45 ff	 mov	 al, BYTE PTR $T114929[ebp]
  0000e	5f		 pop	 edi

; 367  : }

  0000f	c9		 leave
  00010	c3		 ret	 0
??$_IsOKToMemCpy@DD@_STL@@YA?AU?$_OKToMemCpy@DD@0@PAD0@Z ENDP ; _STL::_IsOKToMemCpy<char,char>
_TEXT	ENDS
PUBLIC	??$__copy_ptrs@PADPAD@_STL@@YAPADPAD00ABU__true_type@0@@Z ; _STL::__copy_ptrs<char *,char *>
; Function compile flags: /Ogsy
; File c:\stlport-4.6.1\stlport\stl\_algobase.h
;	COMDAT ??$__copy_ptrs@PADPAD@_STL@@YAPADPAD00ABU__true_type@0@@Z
_TEXT	SEGMENT
___first$ = 8						; size = 4
___last$ = 12						; size = 4
___result$ = 16						; size = 4
___formal$ = 20						; size = 4
??$__copy_ptrs@PADPAD@_STL@@YAPADPAD00ABU__true_type@0@@Z PROC NEAR ; _STL::__copy_ptrs<char *,char *>, COMDAT

; 195  : // we know they all pointers, so this cast is OK 
; 196  :   //  return (_OutputIter)__copy_trivial(&(*__first), &(*__last), &(*__result));
; 197  :   return (_OutputIter)__copy_trivial(__first, __last, __result);

  00000	ff 74 24 0c	 push	 DWORD PTR ___result$[esp-4]
  00004	ff 74 24 0c	 push	 DWORD PTR ___last$[esp]
  00008	ff 74 24 0c	 push	 DWORD PTR ___first$[esp+4]
  0000c	e8 00 00 00 00	 call	 ?__copy_trivial@_STL@@YAPAXPBX0PAX@Z ; _STL::__copy_trivial
  00011	83 c4 0c	 add	 esp, 12			; 0000000cH

; 198  : }

  00014	c3		 ret	 0
??$__copy_ptrs@PADPAD@_STL@@YAPADPAD00ABU__true_type@0@@Z ENDP ; _STL::__copy_ptrs<char *,char *>
_TEXT	ENDS
PUBLIC	??0?$allocator@D@_STL@@QAE@XZ			; _STL::allocator<char>::allocator<char>
; Function compile flags: /Ogsy
; File c:\stlport-4.6.1\stlport\stl\_alloc.h
;	COMDAT ??0?$allocator@D@_STL@@QAE@XZ
_TEXT	SEGMENT
??0?$allocator@D@_STL@@QAE@XZ PROC NEAR			; _STL::allocator<char>::allocator<char>, COMDAT
; _this$ = ecx

; 345  :   allocator() _STLP_NOTHROW {}

  00000	8b c1		 mov	 eax, ecx
  00002	c3		 ret	 0
??0?$allocator@D@_STL@@QAE@XZ ENDP			; _STL::allocator<char>::allocator<char>
_TEXT	ENDS
PUBLIC	??1?$allocator@D@_STL@@QAE@XZ			; _STL::allocator<char>::~allocator<char>
; Function compile flags: /Ogsy
;	COMDAT ??1?$allocator@D@_STL@@QAE@XZ
_TEXT	SEGMENT
??1?$allocator@D@_STL@@QAE@XZ PROC NEAR			; _STL::allocator<char>::~allocator<char>, COMDAT
; _this$ = ecx

; 350  :   ~allocator() _STLP_NOTHROW {}

  00000	c3		 ret	 0
??1?$allocator@D@_STL@@QAE@XZ ENDP			; _STL::allocator<char>::~allocator<char>
_TEXT	ENDS
PUBLIC	??0?$allocator@V?$basic_string@DV?$char_traits@D@_STL@@V?$allocator@D@2@@_STL@@@_STL@@QAE@XZ ; _STL::allocator<_STL::basic_string<char,_STL::char_traits<char>,_STL::allocator<char> > >::allocator<_STL::basic_string<char,_STL::char_traits<char>,_STL::allocator<char> > >
; Function compile flags: /Ogsy
;	COMDAT ??0?$allocator@V?$basic_string@DV?$char_traits@D@_STL@@V?$allocator@D@2@@_STL@@@_STL@@QAE@XZ
_TEXT	SEGMENT
??0?$allocator@V?$basic_string@DV?$char_traits@D@_STL@@V?$allocator@D@2@@_STL@@@_STL@@QAE@XZ PROC NEAR ; _STL::allocator<_STL::basic_string<char,_STL::char_traits<char>,_STL::allocator<char> > >::allocator<_STL::basic_string<char,_STL::char_traits<char>,_STL::allocator<char> > >, COMDAT
; _this$ = ecx

; 345  :   allocator() _STLP_NOTHROW {}

  00000	8b c1		 mov	 eax, ecx
  00002	c3		 ret	 0
??0?$allocator@V?$basic_string@DV?$char_traits@D@_STL@@V?$allocator@D@2@@_STL@@@_STL@@QAE@XZ ENDP ; _STL::allocator<_STL::basic_string<char,_STL::char_traits<char>,_STL::allocator<char> > >::allocator<_STL::basic_string<char,_STL::char_traits<char>,_STL::allocator<char> > >
_TEXT	ENDS
PUBLIC	??1?$allocator@V?$basic_string@DV?$char_traits@D@_STL@@V?$allocator@D@2@@_STL@@@_STL@@QAE@XZ ; _STL::allocator<_STL::basic_string<char,_STL::char_traits<char>,_STL::allocator<char> > >::~allocator<_STL::basic_string<char,_STL::char_traits<char>,_STL::allocator<char> > >
; Function compile flags: /Ogsy
;	COMDAT ??1?$allocator@V?$basic_string@DV?$char_traits@D@_STL@@V?$allocator@D@2@@_STL@@@_STL@@QAE@XZ
_TEXT	SEGMENT
??1?$allocator@V?$basic_string@DV?$char_traits@D@_STL@@V?$allocator@D@2@@_STL@@@_STL@@QAE@XZ PROC NEAR ; _STL::allocator<_STL::basic_string<char,_STL::char_traits<char>,_STL::allocator<char> > >::~allocator<_STL::basic_string<char,_STL::char_traits<char>,_STL::allocator<char> > >, COMDAT
; _this$ = ecx

; 350  :   ~allocator() _STLP_NOTHROW {}

  00000	c3		 ret	 0
??1?$allocator@V?$basic_string@DV?$char_traits@D@_STL@@V?$allocator@D@2@@_STL@@@_STL@@QAE@XZ ENDP ; _STL::allocator<_STL::basic_string<char,_STL::char_traits<char>,_STL::allocator<char> > >::~allocator<_STL::basic_string<char,_STL::char_traits<char>,_STL::allocator<char> > >
_TEXT	ENDS
PUBLIC	??D?$_List_iterator@V?$basic_string@DV?$char_traits@D@_STL@@V?$allocator@D@2@@_STL@@U?$_Const_traits@V?$basic_string@DV?$char_traits@D@_STL@@V?$allocator@D@2@@_STL@@@2@@_STL@@QBEABV?$basic_string@DV?$char_traits@D@_STL@@V?$allocator@D@2@@1@XZ ; _STL::_List_iterator<_STL::basic_string<char,_STL::char_traits<char>,_STL::allocator<char> >,_STL::_Const_traits<_STL::basic_string<char,_STL::char_traits<char>,_STL::allocator<char> > > >::operator*
; Function compile flags: /Ogsy
; File c:\stlport-4.6.1\stlport\stl\_list.h
;	COMDAT ??D?$_List_iterator@V?$basic_string@DV?$char_traits@D@_STL@@V?$allocator@D@2@@_STL@@U?$_Const_traits@V?$basic_string@DV?$char_traits@D@_STL@@V?$allocator@D@2@@_STL@@@2@@_STL@@QBEABV?$basic_string@DV?$char_traits@D@_STL@@V?$allocator@D@2@@1@XZ
_TEXT	SEGMENT
??D?$_List_iterator@V?$basic_string@DV?$char_traits@D@_STL@@V?$allocator@D@2@@_STL@@U?$_Const_traits@V?$basic_string@DV?$char_traits@D@_STL@@V?$allocator@D@2@@_STL@@@2@@_STL@@QBEABV?$basic_string@DV?$char_traits@D@_STL@@V?$allocator@D@2@@1@XZ PROC NEAR ; _STL::_List_iterator<_STL::basic_string<char,_STL::char_traits<char>,_STL::allocator<char> >,_STL::_Const_traits<_STL::basic_string<char,_STL::char_traits<char>,_STL::allocator<char> > > >::operator*, COMDAT
; _this$ = ecx

; 130  :   reference operator*() const { return ((_Node*)_M_node)->_M_data; }

  00000	8b 01		 mov	 eax, DWORD PTR [ecx]
  00002	83 c0 08	 add	 eax, 8
  00005	c3		 ret	 0
??D?$_List_iterator@V?$basic_string@DV?$char_traits@D@_STL@@V?$allocator@D@2@@_STL@@U?$_Const_traits@V?$basic_string@DV?$char_traits@D@_STL@@V?$allocator@D@2@@_STL@@@2@@_STL@@QBEABV?$basic_string@DV?$char_traits@D@_STL@@V?$allocator@D@2@@1@XZ ENDP ; _STL::_List_iterator<_STL::basic_string<char,_STL::char_traits<char>,_STL::allocator<char> >,_STL::_Const_traits<_STL::basic_string<char,_STL::char_traits<char>,_STL::allocator<char> > > >::operator*
_TEXT	ENDS
PUBLIC	??0?$_List_iterator@V?$basic_string@DV?$char_traits@D@_STL@@V?$allocator@D@2@@_STL@@U?$_Const_traits@V?$basic_string@DV?$char_traits@D@_STL@@V?$allocator@D@2@@_STL@@@2@@_STL@@QAE@PAU?$_List_node@V?$basic_string@DV?$char_traits@D@_STL@@V?$allocator@D@2@@_STL@@@1@@Z ; _STL::_List_iterator<_STL::basic_string<char,_STL::char_traits<char>,_STL::allocator<char> >,_STL::_Const_traits<_STL::basic_string<char,_STL::char_traits<char>,_STL::allocator<char> > > >::_List_iterator<_STL::basic_string<char,_STL::char_traits<char>,_STL::allocator<char> >,_STL::_Const_traits<_STL::basic_string<char,_STL::char_traits<char>,_STL::allocator<char> > > >
; Function compile flags: /Ogsy
;	COMDAT ??0?$_List_iterator@V?$basic_string@DV?$char_traits@D@_STL@@V?$allocator@D@2@@_STL@@U?$_Const_traits@V?$basic_string@DV?$char_traits@D@_STL@@V?$allocator@D@2@@_STL@@@2@@_STL@@QAE@PAU?$_List_node@V?$basic_string@DV?$char_traits@D@_STL@@V?$allocator@D@2@@_STL@@@1@@Z
_TEXT	SEGMENT
___x$ = 8						; size = 4
??0?$_List_iterator@V?$basic_string@DV?$char_traits@D@_STL@@V?$allocator@D@2@@_STL@@U?$_Const_traits@V?$basic_string@DV?$char_traits@D@_STL@@V?$allocator@D@2@@_STL@@@2@@_STL@@QAE@PAU?$_List_node@V?$basic_string@DV?$char_traits@D@_STL@@V?$allocator@D@2@@_STL@@@1@@Z PROC NEAR ; _STL::_List_iterator<_STL::basic_string<char,_STL::char_traits<char>,_STL::allocator<char> >,_STL::_Const_traits<_STL::basic_string<char,_STL::char_traits<char>,_STL::allocator<char> > > >::_List_iterator<_STL::basic_string<char,_STL::char_traits<char>,_STL::allocator<char> >,_STL::_Const_traits<_STL::basic_string<char,_STL::char_traits<char>,_STL::allocator<char> > > >, COMDAT
; _this$ = ecx

; 126  :   _List_iterator(_Node* __x) : _List_iterator_base(__x) {}

  00000	8b c1		 mov	 eax, ecx
  00002	8b 4c 24 04	 mov	 ecx, DWORD PTR ___x$[esp-4]
  00006	89 08		 mov	 DWORD PTR [eax], ecx
  00008	c2 04 00	 ret	 4
??0?$_List_iterator@V?$basic_string@DV?$char_traits@D@_STL@@V?$allocator@D@2@@_STL@@U?$_Const_traits@V?$basic_string@DV?$char_traits@D@_STL@@V?$allocator@D@2@@_STL@@@2@@_STL@@QAE@PAU?$_List_node@V?$basic_string@DV?$char_traits@D@_STL@@V?$allocator@D@2@@_STL@@@1@@Z ENDP ; _STL::_List_iterator<_STL::basic_string<char,_STL::char_traits<char>,_STL::allocator<char> >,_STL::_Const_traits<_STL::basic_string<char,_STL::char_traits<char>,_STL::allocator<char> > > >::_List_iterator<_STL::basic_string<char,_STL::char_traits<char>,_STL::allocator<char> >,_STL::_Const_traits<_STL::basic_string<char,_STL::char_traits<char>,_STL::allocator<char> > > >
_TEXT	ENDS
PUBLIC	??1?$_STLP_alloc_proxy@PADDV?$allocator@D@_STL@@@_STL@@QAE@XZ ; _STL::_STLP_alloc_proxy<char *,char,_STL::allocator<char> >::~_STLP_alloc_proxy<char *,char,_STL::allocator<char> >
; Function compile flags: /Ogsy
;	COMDAT ??1?$_STLP_alloc_proxy@PADDV?$allocator@D@_STL@@@_STL@@QAE@XZ
_TEXT	SEGMENT
??1?$_STLP_alloc_proxy@PADDV?$allocator@D@_STL@@@_STL@@QAE@XZ PROC NEAR ; _STL::_STLP_alloc_proxy<char *,char,_STL::allocator<char> >::~_STLP_alloc_proxy<char *,char,_STL::allocator<char> >, COMDAT
; _this$ = ecx
  00000	c3		 ret	 0
??1?$_STLP_alloc_proxy@PADDV?$allocator@D@_STL@@@_STL@@QAE@XZ ENDP ; _STL::_STLP_alloc_proxy<char *,char,_STL::allocator<char> >::~_STLP_alloc_proxy<char *,char,_STL::allocator<char> >
_TEXT	ENDS
PUBLIC	??1?$allocator@U?$_List_node@V?$basic_string@DV?$char_traits@D@_STL@@V?$allocator@D@2@@_STL@@@_STL@@@_STL@@QAE@XZ ; _STL::allocator<_STL::_List_node<_STL::basic_string<char,_STL::char_traits<char>,_STL::allocator<char> > > >::~allocator<_STL::_List_node<_STL::basic_string<char,_STL::char_traits<char>,_STL::allocator<char> > > >
; Function compile flags: /Ogsy
; File c:\stlport-4.6.1\stlport\stl\_alloc.h
;	COMDAT ??1?$allocator@U?$_List_node@V?$basic_string@DV?$char_traits@D@_STL@@V?$allocator@D@2@@_STL@@@_STL@@@_STL@@QAE@XZ
_TEXT	SEGMENT
??1?$allocator@U?$_List_node@V?$basic_string@DV?$char_traits@D@_STL@@V?$allocator@D@2@@_STL@@@_STL@@@_STL@@QAE@XZ PROC NEAR ; _STL::allocator<_STL::_List_node<_STL::basic_string<char,_STL::char_traits<char>,_STL::allocator<char> > > >::~allocator<_STL::_List_node<_STL::basic_string<char,_STL::char_traits<char>,_STL::allocator<char> > > >, COMDAT
; _this$ = ecx

; 350  :   ~allocator() _STLP_NOTHROW {}

  00000	c3		 ret	 0
??1?$allocator@U?$_List_node@V?$basic_string@DV?$char_traits@D@_STL@@V?$allocator@D@2@@_STL@@@_STL@@@_STL@@QAE@XZ ENDP ; _STL::allocator<_STL::_List_node<_STL::basic_string<char,_STL::char_traits<char>,_STL::allocator<char> > > >::~allocator<_STL::_List_node<_STL::basic_string<char,_STL::char_traits<char>,_STL::allocator<char> > > >
_TEXT	ENDS
PUBLIC	??0?$_List_iterator@V?$basic_string@DV?$char_traits@D@_STL@@V?$allocator@D@2@@_STL@@U?$_Nonconst_traits@V?$basic_string@DV?$char_traits@D@_STL@@V?$allocator@D@2@@_STL@@@2@@_STL@@QAE@PAU?$_List_node@V?$basic_string@DV?$char_traits@D@_STL@@V?$allocator@D@2@@_STL@@@1@@Z ; _STL::_List_iterator<_STL::basic_string<char,_STL::char_traits<char>,_STL::allocator<char> >,_STL::_Nonconst_traits<_STL::basic_string<char,_STL::char_traits<char>,_STL::allocator<char> > > >::_List_iterator<_STL::basic_string<char,_STL::char_traits<char>,_STL::allocator<char> >,_STL::_Nonconst_traits<_STL::basic_string<char,_STL::char_traits<char>,_STL::allocator<char> > > >
; Function compile flags: /Ogsy
; File c:\stlport-4.6.1\stlport\stl\_list.h
;	COMDAT ??0?$_List_iterator@V?$basic_string@DV?$char_traits@D@_STL@@V?$allocator@D@2@@_STL@@U?$_Nonconst_traits@V?$basic_string@DV?$char_traits@D@_STL@@V?$allocator@D@2@@_STL@@@2@@_STL@@QAE@PAU?$_List_node@V?$basic_string@DV?$char_traits@D@_STL@@V?$allocator@D@2@@_STL@@@1@@Z
_TEXT	SEGMENT
___x$ = 8						; size = 4
??0?$_List_iterator@V?$basic_string@DV?$char_traits@D@_STL@@V?$allocator@D@2@@_STL@@U?$_Nonconst_traits@V?$basic_string@DV?$char_traits@D@_STL@@V?$allocator@D@2@@_STL@@@2@@_STL@@QAE@PAU?$_List_node@V?$basic_string@DV?$char_traits@D@_STL@@V?$allocator@D@2@@_STL@@@1@@Z PROC NEAR ; _STL::_List_iterator<_STL::basic_string<char,_STL::char_traits<char>,_STL::allocator<char> >,_STL::_Nonconst_traits<_STL::basic_string<char,_STL::char_traits<char>,_STL::allocator<char> > > >::_List_iterator<_STL::basic_string<char,_STL::char_traits<char>,_STL::allocator<char> >,_STL::_Nonconst_traits<_STL::basic_string<char,_STL::char_traits<char>,_STL::allocator<char> > > >, COMDAT
; _this$ = ecx

; 126  :   _List_iterator(_Node* __x) : _List_iterator_base(__x) {}

  00000	8b c1		 mov	 eax, ecx
  00002	8b 4c 24 04	 mov	 ecx, DWORD PTR ___x$[esp-4]
  00006	89 08		 mov	 DWORD PTR [eax], ecx
  00008	c2 04 00	 ret	 4
??0?$_List_iterator@V?$basic_string@DV?$char_traits@D@_STL@@V?$allocator@D@2@@_STL@@U?$_Nonconst_traits@V?$basic_string@DV?$char_traits@D@_STL@@V?$allocator@D@2@@_STL@@@2@@_STL@@QAE@PAU?$_List_node@V?$basic_string@DV?$char_traits@D@_STL@@V?$allocator@D@2@@_STL@@@1@@Z ENDP ; _STL::_List_iterator<_STL::basic_string<char,_STL::char_traits<char>,_STL::allocator<char> >,_STL::_Nonconst_traits<_STL::basic_string<char,_STL::char_traits<char>,_STL::allocator<char> > > >::_List_iterator<_STL::basic_string<char,_STL::char_traits<char>,_STL::allocator<char> >,_STL::_Nonconst_traits<_STL::basic_string<char,_STL::char_traits<char>,_STL::allocator<char> > > >
_TEXT	ENDS
PUBLIC	??0?$allocator@U?$_List_node@V?$basic_string@DV?$char_traits@D@_STL@@V?$allocator@D@2@@_STL@@@_STL@@@_STL@@QAE@ABV01@@Z ; _STL::allocator<_STL::_List_node<_STL::basic_string<char,_STL::char_traits<char>,_STL::allocator<char> > > >::allocator<_STL::_List_node<_STL::basic_string<char,_STL::char_traits<char>,_STL::allocator<char> > > >
; Function compile flags: /Ogsy
; File c:\stlport-4.6.1\stlport\stl\_alloc.h
;	COMDAT ??0?$allocator@U?$_List_node@V?$basic_string@DV?$char_traits@D@_STL@@V?$allocator@D@2@@_STL@@@_STL@@@_STL@@QAE@ABV01@@Z
_TEXT	SEGMENT
___formal$ = 8						; size = 4
??0?$allocator@U?$_List_node@V?$basic_string@DV?$char_traits@D@_STL@@V?$allocator@D@2@@_STL@@@_STL@@@_STL@@QAE@ABV01@@Z PROC NEAR ; _STL::allocator<_STL::_List_node<_STL::basic_string<char,_STL::char_traits<char>,_STL::allocator<char> > > >::allocator<_STL::_List_node<_STL::basic_string<char,_STL::char_traits<char>,_STL::allocator<char> > > >, COMDAT
; _this$ = ecx

; 349  :   allocator(const allocator<_Tp>&) _STLP_NOTHROW {}

  00000	8b c1		 mov	 eax, ecx
  00002	c2 04 00	 ret	 4
??0?$allocator@U?$_List_node@V?$basic_string@DV?$char_traits@D@_STL@@V?$allocator@D@2@@_STL@@@_STL@@@_STL@@QAE@ABV01@@Z ENDP ; _STL::allocator<_STL::_List_node<_STL::basic_string<char,_STL::char_traits<char>,_STL::allocator<char> > > >::allocator<_STL::_List_node<_STL::basic_string<char,_STL::char_traits<char>,_STL::allocator<char> > > >
_TEXT	ENDS
PUBLIC	?allocate@?$__node_alloc@$00$0A@@_STL@@SAPAXI@Z	; _STL::__node_alloc<1,0>::allocate
EXTRN	?_M_allocate@?$__node_alloc@$00$0A@@_STL@@CAPAXI@Z:NEAR ; _STL::__node_alloc<1,0>::_M_allocate
; Function compile flags: /Ogsy
;	COMDAT ?allocate@?$__node_alloc@$00$0A@@_STL@@SAPAXI@Z
_TEXT	SEGMENT
___n$ = 8						; size = 4
?allocate@?$__node_alloc@$00$0A@@_STL@@SAPAXI@Z PROC NEAR ; _STL::__node_alloc<1,0>::allocate, COMDAT

; 251  :   static void * _STLP_CALL allocate(size_t __n) { return (__n > (size_t)_MAX_BYTES) ?  __stl_new(__n) : _M_allocate(__n); }

  00000	8b 44 24 04	 mov	 eax, DWORD PTR ___n$[esp-4]
  00004	3d 80 00 00 00	 cmp	 eax, 128		; 00000080H
  00009	50		 push	 eax
  0000a	76 07		 jbe	 SHORT $L114974
  0000c	e8 00 00 00 00	 call	 ??2@YAPAXI@Z		; operator new
  00011	59		 pop	 ecx
  00012	c3		 ret	 0
$L114974:
  00013	e8 00 00 00 00	 call	 ?_M_allocate@?$__node_alloc@$00$0A@@_STL@@CAPAXI@Z ; _STL::__node_alloc<1,0>::_M_allocate
  00018	59		 pop	 ecx
  00019	c3		 ret	 0
?allocate@?$__node_alloc@$00$0A@@_STL@@SAPAXI@Z ENDP	; _STL::__node_alloc<1,0>::allocate
_TEXT	ENDS
PUBLIC	?deallocate@?$__node_alloc@$00$0A@@_STL@@SAXPAXI@Z ; _STL::__node_alloc<1,0>::deallocate
EXTRN	?_M_deallocate@?$__node_alloc@$00$0A@@_STL@@CAXPAXI@Z:NEAR ; _STL::__node_alloc<1,0>::_M_deallocate
; Function compile flags: /Ogsy
;	COMDAT ?deallocate@?$__node_alloc@$00$0A@@_STL@@SAXPAXI@Z
_TEXT	SEGMENT
___p$ = 8						; size = 4
___n$ = 12						; size = 4
?deallocate@?$__node_alloc@$00$0A@@_STL@@SAXPAXI@Z PROC NEAR ; _STL::__node_alloc<1,0>::deallocate, COMDAT

; 253  :   static void _STLP_CALL deallocate(void *__p, size_t __n) { if (__n > (size_t)_MAX_BYTES) __stl_delete(__p); else _M_deallocate(__p, __n); }

  00000	81 7c 24 08 80
	00 00 00	 cmp	 DWORD PTR ___n$[esp-4], 128 ; 00000080H
  00008	76 0b		 jbe	 SHORT $L98677
  0000a	ff 74 24 04	 push	 DWORD PTR ___p$[esp-4]
  0000e	e8 00 00 00 00	 call	 ??3@YAXPAX@Z		; operator delete
  00013	59		 pop	 ecx
  00014	c3		 ret	 0
$L98677:
  00015	e9 00 00 00 00	 jmp	 ?_M_deallocate@?$__node_alloc@$00$0A@@_STL@@CAXPAXI@Z ; _STL::__node_alloc<1,0>::_M_deallocate
?deallocate@?$__node_alloc@$00$0A@@_STL@@SAXPAXI@Z ENDP	; _STL::__node_alloc<1,0>::deallocate
_TEXT	ENDS
PUBLIC	??$?0V?$basic_string@DV?$char_traits@D@_STL@@V?$allocator@D@2@@_STL@@@?$allocator@U?$_List_node@V?$basic_string@DV?$char_traits@D@_STL@@V?$allocator@D@2@@_STL@@@_STL@@@_STL@@QAE@ABV?$allocator@V?$basic_string@DV?$char_traits@D@_STL@@V?$allocator@D@2@@_STL@@@1@@Z ; _STL::allocator<_STL::_List_node<_STL::basic_string<char,_STL::char_traits<char>,_STL::allocator<char> > > >::allocator<_STL::_List_node<_STL::basic_string<char,_STL::char_traits<char>,_STL::allocator<char> > > ><_STL::basic_string<char,_STL::char_traits<char>,_STL::allocator<char> > >
; Function compile flags: /Ogsy
;	COMDAT ??$?0V?$basic_string@DV?$char_traits@D@_STL@@V?$allocator@D@2@@_STL@@@?$allocator@U?$_List_node@V?$basic_string@DV?$char_traits@D@_STL@@V?$allocator@D@2@@_STL@@@_STL@@@_STL@@QAE@ABV?$allocator@V?$basic_string@DV?$char_traits@D@_STL@@V?$allocator@D@2@@_STL@@@1@@Z
_TEXT	SEGMENT
___formal$ = 8						; size = 4
??$?0V?$basic_string@DV?$char_traits@D@_STL@@V?$allocator@D@2@@_STL@@@?$allocator@U?$_List_node@V?$basic_string@DV?$char_traits@D@_STL@@V?$allocator@D@2@@_STL@@@_STL@@@_STL@@QAE@ABV?$allocator@V?$basic_string@DV?$char_traits@D@_STL@@V?$allocator@D@2@@_STL@@@1@@Z PROC NEAR ; _STL::allocator<_STL::_List_node<_STL::basic_string<char,_STL::char_traits<char>,_STL::allocator<char> > > >::allocator<_STL::_List_node<_STL::basic_string<char,_STL::char_traits<char>,_STL::allocator<char> > > ><_STL::basic_string<char,_STL::char_traits<char>,_STL::allocator<char> > >, COMDAT
; _this$ = ecx

; 347  :   template <class _Tp1> allocator(const allocator<_Tp1>&) _STLP_NOTHROW {}

  00000	8b c1		 mov	 eax, ecx
  00002	c2 04 00	 ret	 4
??$?0V?$basic_string@DV?$char_traits@D@_STL@@V?$allocator@D@2@@_STL@@@?$allocator@U?$_List_node@V?$basic_string@DV?$char_traits@D@_STL@@V?$allocator@D@2@@_STL@@@_STL@@@_STL@@QAE@ABV?$allocator@V?$basic_string@DV?$char_traits@D@_STL@@V?$allocator@D@2@@_STL@@@1@@Z ENDP ; _STL::allocator<_STL::_List_node<_STL::basic_string<char,_STL::char_traits<char>,_STL::allocator<char> > > >::allocator<_STL::_List_node<_STL::basic_string<char,_STL::char_traits<char>,_STL::allocator<char> > > ><_STL::basic_string<char,_STL::char_traits<char>,_STL::allocator<char> > >
_TEXT	ENDS
PUBLIC	?get_allocator@?$basic_string@DV?$char_traits@D@_STL@@V?$allocator@D@2@@_STL@@QBE?AV?$allocator@D@2@XZ ; _STL::basic_string<char,_STL::char_traits<char>,_STL::allocator<char> >::get_allocator
; Function compile flags: /Ogsy
; File c:\stlport-4.6.1\stlport\stl\_string.h
;	COMDAT ?get_allocator@?$basic_string@DV?$char_traits@D@_STL@@V?$allocator@D@2@@_STL@@QBE?AV?$allocator@D@2@XZ
_TEXT	SEGMENT
___$ReturnUdt$ = 8					; size = 4
?get_allocator@?$basic_string@DV?$char_traits@D@_STL@@V?$allocator@D@2@@_STL@@QBE?AV?$allocator@D@2@XZ PROC NEAR ; _STL::basic_string<char,_STL::char_traits<char>,_STL::allocator<char> >::get_allocator, COMDAT
; _this$ = ecx

; 216  :     return _STLP_CONVERT_ALLOCATOR((const allocator_type&)this->_M_end_of_storage, _CharT);

  00000	8b 44 24 04	 mov	 eax, DWORD PTR ___$ReturnUdt$[esp-4]

; 217  :   }

  00004	c2 04 00	 ret	 4
?get_allocator@?$basic_string@DV?$char_traits@D@_STL@@V?$allocator@D@2@@_STL@@QBE?AV?$allocator@D@2@XZ ENDP ; _STL::basic_string<char,_STL::char_traits<char>,_STL::allocator<char> >::get_allocator
_TEXT	ENDS
PUBLIC	?_M_terminate_string@?$basic_string@DV?$char_traits@D@_STL@@V?$allocator@D@2@@_STL@@AAEXXZ ; _STL::basic_string<char,_STL::char_traits<char>,_STL::allocator<char> >::_M_terminate_string
; Function compile flags: /Ogsy
;	COMDAT ?_M_terminate_string@?$basic_string@DV?$char_traits@D@_STL@@V?$allocator@D@2@@_STL@@AAEXXZ
_TEXT	SEGMENT
?_M_terminate_string@?$basic_string@DV?$char_traits@D@_STL@@V?$allocator@D@2@@_STL@@AAEXXZ PROC NEAR ; _STL::basic_string<char,_STL::char_traits<char>,_STL::allocator<char> >::_M_terminate_string, COMDAT
; _this$ = ecx

; 355  :     _M_terminate_string_aux(_Char_Is_Integral());

  00000	8b 41 04	 mov	 eax, DWORD PTR [ecx+4]
  00003	c6 00 00	 mov	 BYTE PTR [eax], 0

; 356  :   }

  00006	c3		 ret	 0
?_M_terminate_string@?$basic_string@DV?$char_traits@D@_STL@@V?$allocator@D@2@@_STL@@AAEXXZ ENDP ; _STL::basic_string<char,_STL::char_traits<char>,_STL::allocator<char> >::_M_terminate_string
_TEXT	ENDS
PUBLIC	?allocate@?$allocator@D@_STL@@QAEPADIPBX@Z	; _STL::allocator<char>::allocate
; Function compile flags: /Ogsy
; File c:\stlport-4.6.1\stlport\stl\_alloc.h
;	COMDAT ?allocate@?$allocator@D@_STL@@QAEPADIPBX@Z
_TEXT	SEGMENT
___n$ = 8						; size = 4
___formal$ = 12						; size = 4
?allocate@?$allocator@D@_STL@@QAEPADIPBX@Z PROC NEAR	; _STL::allocator<char>::allocate, COMDAT
; _this$ = ecx

; 355  :     return __n != 0 ? __REINTERPRET_CAST(value_type*,__sgi_alloc::allocate(__n * sizeof(value_type))) : 0;

  00000	33 c0		 xor	 eax, eax
  00002	39 44 24 04	 cmp	 DWORD PTR ___n$[esp-4], eax
  00006	74 0a		 je	 SHORT $L115003
  00008	ff 74 24 04	 push	 DWORD PTR ___n$[esp-4]
  0000c	e8 00 00 00 00	 call	 ?allocate@?$__node_alloc@$00$0A@@_STL@@SAPAXI@Z ; _STL::__node_alloc<1,0>::allocate
  00011	59		 pop	 ecx
$L115003:

; 356  :   }

  00012	c2 08 00	 ret	 8
?allocate@?$allocator@D@_STL@@QAEPADIPBX@Z ENDP		; _STL::allocator<char>::allocate
_TEXT	ENDS
PUBLIC	?rbegin@?$deque@PAVPacket@@V?$allocator@PAVPacket@@@_STL@@@_STL@@QAE?AV?$reverse_iterator@U?$_Deque_iterator@PAVPacket@@U?$_Nonconst_traits@PAVPacket@@@_STL@@@_STL@@@2@XZ ; _STL::deque<Packet *,_STL::allocator<Packet *> >::rbegin
; Function compile flags: /Ogsy
; File c:\stlport-4.6.1\stlport\stl\_deque.h
;	COMDAT ?rbegin@?$deque@PAVPacket@@V?$allocator@PAVPacket@@@_STL@@@_STL@@QAE?AV?$reverse_iterator@U?$_Deque_iterator@PAVPacket@@U?$_Nonconst_traits@PAVPacket@@@_STL@@@_STL@@@2@XZ
_TEXT	SEGMENT
___$ReturnUdt$ = 8					; size = 4
?rbegin@?$deque@PAVPacket@@V?$allocator@PAVPacket@@@_STL@@@_STL@@QAE?AV?$reverse_iterator@U?$_Deque_iterator@PAVPacket@@U?$_Nonconst_traits@PAVPacket@@@_STL@@@_STL@@@2@XZ PROC NEAR ; _STL::deque<Packet *,_STL::allocator<Packet *> >::rbegin, COMDAT
; _this$ = ecx

; 392  :   reverse_iterator rbegin() { return reverse_iterator(this->_M_finish); }

  00000	8b 44 24 04	 mov	 eax, DWORD PTR ___$ReturnUdt$[esp-4]
  00004	56		 push	 esi
  00005	57		 push	 edi
  00006	8d 71 10	 lea	 esi, DWORD PTR [ecx+16]
  00009	8b f8		 mov	 edi, eax
  0000b	a5		 movsd
  0000c	a5		 movsd
  0000d	a5		 movsd
  0000e	a5		 movsd
  0000f	5f		 pop	 edi
  00010	5e		 pop	 esi
  00011	c2 04 00	 ret	 4
?rbegin@?$deque@PAVPacket@@V?$allocator@PAVPacket@@@_STL@@@_STL@@QAE?AV?$reverse_iterator@U?$_Deque_iterator@PAVPacket@@U?$_Nonconst_traits@PAVPacket@@@_STL@@@_STL@@@2@XZ ENDP ; _STL::deque<Packet *,_STL::allocator<Packet *> >::rbegin
_TEXT	ENDS
PUBLIC	?rend@?$deque@PAVPacket@@V?$allocator@PAVPacket@@@_STL@@@_STL@@QAE?AV?$reverse_iterator@U?$_Deque_iterator@PAVPacket@@U?$_Nonconst_traits@PAVPacket@@@_STL@@@_STL@@@2@XZ ; _STL::deque<Packet *,_STL::allocator<Packet *> >::rend
; Function compile flags: /Ogsy
;	COMDAT ?rend@?$deque@PAVPacket@@V?$allocator@PAVPacket@@@_STL@@@_STL@@QAE?AV?$reverse_iterator@U?$_Deque_iterator@PAVPacket@@U?$_Nonconst_traits@PAVPacket@@@_STL@@@_STL@@@2@XZ
_TEXT	SEGMENT
___$ReturnUdt$ = 8					; size = 4
?rend@?$deque@PAVPacket@@V?$allocator@PAVPacket@@@_STL@@@_STL@@QAE?AV?$reverse_iterator@U?$_Deque_iterator@PAVPacket@@U?$_Nonconst_traits@PAVPacket@@@_STL@@@_STL@@@2@XZ PROC NEAR ; _STL::deque<Packet *,_STL::allocator<Packet *> >::rend, COMDAT
; _this$ = ecx

; 393  :   reverse_iterator rend() { return reverse_iterator(this->_M_start); }

  00000	8b 44 24 04	 mov	 eax, DWORD PTR ___$ReturnUdt$[esp-4]
  00004	56		 push	 esi
  00005	57		 push	 edi
  00006	8b f1		 mov	 esi, ecx
  00008	8b f8		 mov	 edi, eax
  0000a	a5		 movsd
  0000b	a5		 movsd
  0000c	a5		 movsd
  0000d	a5		 movsd
  0000e	5f		 pop	 edi
  0000f	5e		 pop	 esi
  00010	c2 04 00	 ret	 4
?rend@?$deque@PAVPacket@@V?$allocator@PAVPacket@@@_STL@@@_STL@@QAE?AV?$reverse_iterator@U?$_Deque_iterator@PAVPacket@@U?$_Nonconst_traits@PAVPacket@@@_STL@@@_STL@@@2@XZ ENDP ; _STL::deque<Packet *,_STL::allocator<Packet *> >::rend
_TEXT	ENDS
PUBLIC	?front@?$deque@PAVPacket@@V?$allocator@PAVPacket@@@_STL@@@_STL@@QAEAAPAVPacket@@XZ ; _STL::deque<Packet *,_STL::allocator<Packet *> >::front
; Function compile flags: /Ogsy
;	COMDAT ?front@?$deque@PAVPacket@@V?$allocator@PAVPacket@@@_STL@@@_STL@@QAEAAPAVPacket@@XZ
_TEXT	SEGMENT
?front@?$deque@PAVPacket@@V?$allocator@PAVPacket@@@_STL@@@_STL@@QAEAAPAVPacket@@XZ PROC NEAR ; _STL::deque<Packet *,_STL::allocator<Packet *> >::front, COMDAT
; _this$ = ecx

; 413  :   reference front() { return *this->_M_start; }

  00000	8b 01		 mov	 eax, DWORD PTR [ecx]
  00002	c3		 ret	 0
?front@?$deque@PAVPacket@@V?$allocator@PAVPacket@@@_STL@@@_STL@@QAEAAPAVPacket@@XZ ENDP ; _STL::deque<Packet *,_STL::allocator<Packet *> >::front
_TEXT	ENDS
PUBLIC	?empty@?$deque@PAVPacket@@V?$allocator@PAVPacket@@@_STL@@@_STL@@QBE_NXZ ; _STL::deque<Packet *,_STL::allocator<Packet *> >::empty
; Function compile flags: /Ogsy
;	COMDAT ?empty@?$deque@PAVPacket@@V?$allocator@PAVPacket@@@_STL@@@_STL@@QBE_NXZ
_TEXT	SEGMENT
?empty@?$deque@PAVPacket@@V?$allocator@PAVPacket@@@_STL@@@_STL@@QBE_NXZ PROC NEAR ; _STL::deque<Packet *,_STL::allocator<Packet *> >::empty, COMDAT
; _this$ = ecx

; 428  :   bool empty() const { return this->_M_finish == this->_M_start; }

  00000	8b 41 10	 mov	 eax, DWORD PTR [ecx+16]
  00003	2b 01		 sub	 eax, DWORD PTR [ecx]
  00005	f7 d8		 neg	 eax
  00007	1b c0		 sbb	 eax, eax
  00009	40		 inc	 eax
  0000a	c3		 ret	 0
?empty@?$deque@PAVPacket@@V?$allocator@PAVPacket@@@_STL@@@_STL@@QBE_NXZ ENDP ; _STL::deque<Packet *,_STL::allocator<Packet *> >::empty
_TEXT	ENDS
PUBLIC	??0?$_STLP_alloc_proxy@PADDV?$allocator@D@_STL@@@_STL@@QAE@ABV?$allocator@D@1@PAD@Z ; _STL::_STLP_alloc_proxy<char *,char,_STL::allocator<char> >::_STLP_alloc_proxy<char *,char,_STL::allocator<char> >
; Function compile flags: /Ogsy
; File c:\stlport-4.6.1\stlport\stl\_alloc.h
;	COMDAT ??0?$_STLP_alloc_proxy@PADDV?$allocator@D@_STL@@@_STL@@QAE@ABV?$allocator@D@1@PAD@Z
_TEXT	SEGMENT
___a$ = 8						; size = 4
___p$ = 12						; size = 4
??0?$_STLP_alloc_proxy@PADDV?$allocator@D@_STL@@@_STL@@QAE@ABV?$allocator@D@1@PAD@Z PROC NEAR ; _STL::_STLP_alloc_proxy<char *,char,_STL::allocator<char> >::_STLP_alloc_proxy<char *,char,_STL::allocator<char> >, COMDAT
; _this$ = ecx

; 487  :   inline _STLP_alloc_proxy(const _MaybeReboundAlloc& __a, _Value __p) : _MaybeReboundAlloc(__a), _M_data(__p) {}

  00000	8b c1		 mov	 eax, ecx
  00002	8b 4c 24 08	 mov	 ecx, DWORD PTR ___p$[esp-4]
  00006	89 08		 mov	 DWORD PTR [eax], ecx
  00008	c2 08 00	 ret	 8
??0?$_STLP_alloc_proxy@PADDV?$allocator@D@_STL@@@_STL@@QAE@ABV?$allocator@D@1@PAD@Z ENDP ; _STL::_STLP_alloc_proxy<char *,char,_STL::allocator<char> >::_STLP_alloc_proxy<char *,char,_STL::allocator<char> >
_TEXT	ENDS
PUBLIC	?get_allocator@?$_List_base@V?$basic_string@DV?$char_traits@D@_STL@@V?$allocator@D@2@@_STL@@V?$allocator@V?$basic_string@DV?$char_traits@D@_STL@@V?$allocator@D@2@@_STL@@@2@@_STL@@QBE?AV?$allocator@V?$basic_string@DV?$char_traits@D@_STL@@V?$allocator@D@2@@_STL@@@2@XZ ; _STL::_List_base<_STL::basic_string<char,_STL::char_traits<char>,_STL::allocator<char> >,_STL::allocator<_STL::basic_string<char,_STL::char_traits<char>,_STL::allocator<char> > > >::get_allocator
; Function compile flags: /Ogsy
; File c:\stlport-4.6.1\stlport\stl\_list.h
;	COMDAT ?get_allocator@?$_List_base@V?$basic_string@DV?$char_traits@D@_STL@@V?$allocator@D@2@@_STL@@V?$allocator@V?$basic_string@DV?$char_traits@D@_STL@@V?$allocator@D@2@@_STL@@@2@@_STL@@QBE?AV?$allocator@V?$basic_string@DV?$char_traits@D@_STL@@V?$allocator@D@2@@_STL@@@2@XZ
_TEXT	SEGMENT
___$ReturnUdt$ = 8					; size = 4
?get_allocator@?$_List_base@V?$basic_string@DV?$char_traits@D@_STL@@V?$allocator@D@2@@_STL@@V?$allocator@V?$basic_string@DV?$char_traits@D@_STL@@V?$allocator@D@2@@_STL@@@2@@_STL@@QBE?AV?$allocator@V?$basic_string@DV?$char_traits@D@_STL@@V?$allocator@D@2@@_STL@@@2@XZ PROC NEAR ; _STL::_List_base<_STL::basic_string<char,_STL::char_traits<char>,_STL::allocator<char> >,_STL::allocator<_STL::basic_string<char,_STL::char_traits<char>,_STL::allocator<char> > > >::get_allocator, COMDAT
; _this$ = ecx

; 179  :     return _STLP_CONVERT_ALLOCATOR((const _Node_allocator_type&)_M_node, _Tp);

  00000	8b 44 24 04	 mov	 eax, DWORD PTR ___$ReturnUdt$[esp-4]

; 180  :   }

  00004	c2 04 00	 ret	 4
?get_allocator@?$_List_base@V?$basic_string@DV?$char_traits@D@_STL@@V?$allocator@D@2@@_STL@@V?$allocator@V?$basic_string@DV?$char_traits@D@_STL@@V?$allocator@D@2@@_STL@@@2@@_STL@@QBE?AV?$allocator@V?$basic_string@DV?$char_traits@D@_STL@@V?$allocator@D@2@@_STL@@@2@XZ ENDP ; _STL::_List_base<_STL::basic_string<char,_STL::char_traits<char>,_STL::allocator<char> >,_STL::allocator<_STL::basic_string<char,_STL::char_traits<char>,_STL::allocator<char> > > >::get_allocator
_TEXT	ENDS
PUBLIC	??G?$_Deque_iterator@PAVPacket@@U?$_Nonconst_traits@PAVPacket@@@_STL@@@_STL@@QBEHABU01@@Z ; _STL::_Deque_iterator<Packet *,_STL::_Nonconst_traits<Packet *> >::operator-
; Function compile flags: /Ogsy
; File c:\stlport-4.6.1\stlport\stl\_deque.h
;	COMDAT ??G?$_Deque_iterator@PAVPacket@@U?$_Nonconst_traits@PAVPacket@@@_STL@@@_STL@@QBEHABU01@@Z
_TEXT	SEGMENT
___x$ = 8						; size = 4
??G?$_Deque_iterator@PAVPacket@@U?$_Nonconst_traits@PAVPacket@@@_STL@@@_STL@@QBEHABU01@@Z PROC NEAR ; _STL::_Deque_iterator<Packet *,_STL::_Nonconst_traits<Packet *> >::operator-, COMDAT
; _this$ = ecx

; 184  :   difference_type operator-(const _Self& __x) const { return this->_M_subtract(__x); }

  00000	e9 00 00 00 00	 jmp	 ?_M_subtract@?$_Deque_iterator_base@PAVPacket@@@_STL@@QBEHABU12@@Z ; _STL::_Deque_iterator_base<Packet *>::_M_subtract
??G?$_Deque_iterator@PAVPacket@@U?$_Nonconst_traits@PAVPacket@@@_STL@@@_STL@@QBEHABU01@@Z ENDP ; _STL::_Deque_iterator<Packet *,_STL::_Nonconst_traits<Packet *> >::operator-
_TEXT	ENDS
PUBLIC	??1?$_STLP_alloc_proxy@PAPAPAVPacket@@PAPAV1@V?$allocator@PAPAVPacket@@@_STL@@@_STL@@QAE@XZ ; _STL::_STLP_alloc_proxy<Packet * * *,Packet * *,_STL::allocator<Packet * *> >::~_STLP_alloc_proxy<Packet * * *,Packet * *,_STL::allocator<Packet * *> >
; Function compile flags: /Ogsy
;	COMDAT ??1?$_STLP_alloc_proxy@PAPAPAVPacket@@PAPAV1@V?$allocator@PAPAVPacket@@@_STL@@@_STL@@QAE@XZ
_TEXT	SEGMENT
??1?$_STLP_alloc_proxy@PAPAPAVPacket@@PAPAV1@V?$allocator@PAPAVPacket@@@_STL@@@_STL@@QAE@XZ PROC NEAR ; _STL::_STLP_alloc_proxy<Packet * * *,Packet * *,_STL::allocator<Packet * *> >::~_STLP_alloc_proxy<Packet * * *,Packet * *,_STL::allocator<Packet * *> >, COMDAT
; _this$ = ecx
  00000	c3		 ret	 0
??1?$_STLP_alloc_proxy@PAPAPAVPacket@@PAPAV1@V?$allocator@PAPAVPacket@@@_STL@@@_STL@@QAE@XZ ENDP ; _STL::_STLP_alloc_proxy<Packet * * *,Packet * *,_STL::allocator<Packet * *> >::~_STLP_alloc_proxy<Packet * * *,Packet * *,_STL::allocator<Packet * *> >
_TEXT	ENDS
PUBLIC	??0?$_Deque_iterator@PAVPacket@@U?$_Nonconst_traits@PAVPacket@@@_STL@@@_STL@@QAE@XZ ; _STL::_Deque_iterator<Packet *,_STL::_Nonconst_traits<Packet *> >::_Deque_iterator<Packet *,_STL::_Nonconst_traits<Packet *> >
; Function compile flags: /Ogsy
;	COMDAT ??0?$_Deque_iterator@PAVPacket@@U?$_Nonconst_traits@PAVPacket@@@_STL@@@_STL@@QAE@XZ
_TEXT	SEGMENT
??0?$_Deque_iterator@PAVPacket@@U?$_Nonconst_traits@PAVPacket@@@_STL@@@_STL@@QAE@XZ PROC NEAR ; _STL::_Deque_iterator<Packet *,_STL::_Nonconst_traits<Packet *> >::_Deque_iterator<Packet *,_STL::_Nonconst_traits<Packet *> >, COMDAT
; _this$ = ecx

; 174  :   _Deque_iterator() {}

  00000	8b c1		 mov	 eax, ecx
  00002	33 c9		 xor	 ecx, ecx
  00004	89 08		 mov	 DWORD PTR [eax], ecx
  00006	89 48 04	 mov	 DWORD PTR [eax+4], ecx
  00009	89 48 08	 mov	 DWORD PTR [eax+8], ecx
  0000c	89 48 0c	 mov	 DWORD PTR [eax+12], ecx
  0000f	c3		 ret	 0
??0?$_Deque_iterator@PAVPacket@@U?$_Nonconst_traits@PAVPacket@@@_STL@@@_STL@@QAE@XZ ENDP ; _STL::_Deque_iterator<Packet *,_STL::_Nonconst_traits<Packet *> >::_Deque_iterator<Packet *,_STL::_Nonconst_traits<Packet *> >
_TEXT	ENDS
PUBLIC	?_M_decrement@?$_Deque_iterator_base@PAVPacket@@@_STL@@QAEXXZ ; _STL::_Deque_iterator_base<Packet *>::_M_decrement
; Function compile flags: /Ogsy
;	COMDAT ?_M_decrement@?$_Deque_iterator_base@PAVPacket@@@_STL@@QAEXXZ
_TEXT	SEGMENT
?_M_decrement@?$_Deque_iterator_base@PAVPacket@@@_STL@@QAEXXZ PROC NEAR ; _STL::_Deque_iterator_base<Packet *>::_M_decrement, COMDAT
; _this$ = ecx

; 126  :     if (_M_cur == _M_first) {

  00000	8b 01		 mov	 eax, DWORD PTR [ecx]
  00002	3b 41 04	 cmp	 eax, DWORD PTR [ecx+4]
  00005	75 18		 jne	 SHORT $L112398

; 127  :       _M_set_node(_M_node - 1);

  00007	8b 41 0c	 mov	 eax, DWORD PTR [ecx+12]
  0000a	83 e8 04	 sub	 eax, 4
  0000d	89 41 0c	 mov	 DWORD PTR [ecx+12], eax
  00010	8b 00		 mov	 eax, DWORD PTR [eax]
  00012	89 41 04	 mov	 DWORD PTR [ecx+4], eax
  00015	05 80 00 00 00	 add	 eax, 128		; 00000080H
  0001a	89 41 08	 mov	 DWORD PTR [ecx+8], eax

; 128  :       _M_cur = _M_last;

  0001d	89 01		 mov	 DWORD PTR [ecx], eax
$L112398:

; 129  :     }
; 130  :     --_M_cur;

  0001f	83 01 fc	 add	 DWORD PTR [ecx], -4	; fffffffcH

; 131  :   }

  00022	c3		 ret	 0
?_M_decrement@?$_Deque_iterator_base@PAVPacket@@@_STL@@QAEXXZ ENDP ; _STL::_Deque_iterator_base<Packet *>::_M_decrement
_TEXT	ENDS
PUBLIC	??0?$_STLP_alloc_proxy@PAPAPAVPacket@@PAPAV1@V?$allocator@PAPAVPacket@@@_STL@@@_STL@@QAE@ABV?$allocator@PAPAVPacket@@@1@PAPAPAVPacket@@@Z ; _STL::_STLP_alloc_proxy<Packet * * *,Packet * *,_STL::allocator<Packet * *> >::_STLP_alloc_proxy<Packet * * *,Packet * *,_STL::allocator<Packet * *> >
; Function compile flags: /Ogsy
; File c:\stlport-4.6.1\stlport\stl\_alloc.h
;	COMDAT ??0?$_STLP_alloc_proxy@PAPAPAVPacket@@PAPAV1@V?$allocator@PAPAVPacket@@@_STL@@@_STL@@QAE@ABV?$allocator@PAPAVPacket@@@1@PAPAPAVPacket@@@Z
_TEXT	SEGMENT
___a$ = 8						; size = 4
___p$ = 12						; size = 4
??0?$_STLP_alloc_proxy@PAPAPAVPacket@@PAPAV1@V?$allocator@PAPAVPacket@@@_STL@@@_STL@@QAE@ABV?$allocator@PAPAVPacket@@@1@PAPAPAVPacket@@@Z PROC NEAR ; _STL::_STLP_alloc_proxy<Packet * * *,Packet * *,_STL::allocator<Packet * *> >::_STLP_alloc_proxy<Packet * * *,Packet * *,_STL::allocator<Packet * *> >, COMDAT
; _this$ = ecx

; 487  :   inline _STLP_alloc_proxy(const _MaybeReboundAlloc& __a, _Value __p) : _MaybeReboundAlloc(__a), _M_data(__p) {}

  00000	8b c1		 mov	 eax, ecx
  00002	8b 4c 24 08	 mov	 ecx, DWORD PTR ___p$[esp-4]
  00006	89 08		 mov	 DWORD PTR [eax], ecx
  00008	c2 08 00	 ret	 8
??0?$_STLP_alloc_proxy@PAPAPAVPacket@@PAPAV1@V?$allocator@PAPAVPacket@@@_STL@@@_STL@@QAE@ABV?$allocator@PAPAVPacket@@@1@PAPAPAVPacket@@@Z ENDP ; _STL::_STLP_alloc_proxy<Packet * * *,Packet * *,_STL::allocator<Packet * *> >::_STLP_alloc_proxy<Packet * * *,Packet * *,_STL::allocator<Packet * *> >
_TEXT	ENDS
PUBLIC	??0?$_STLP_alloc_proxy@IPAVPacket@@V?$allocator@PAVPacket@@@_STL@@@_STL@@QAE@ABV?$allocator@PAVPacket@@@1@I@Z ; _STL::_STLP_alloc_proxy<unsigned int,Packet *,_STL::allocator<Packet *> >::_STLP_alloc_proxy<unsigned int,Packet *,_STL::allocator<Packet *> >
; Function compile flags: /Ogsy
;	COMDAT ??0?$_STLP_alloc_proxy@IPAVPacket@@V?$allocator@PAVPacket@@@_STL@@@_STL@@QAE@ABV?$allocator@PAVPacket@@@1@I@Z
_TEXT	SEGMENT
___a$ = 8						; size = 4
___p$ = 12						; size = 4
??0?$_STLP_alloc_proxy@IPAVPacket@@V?$allocator@PAVPacket@@@_STL@@@_STL@@QAE@ABV?$allocator@PAVPacket@@@1@I@Z PROC NEAR ; _STL::_STLP_alloc_proxy<unsigned int,Packet *,_STL::allocator<Packet *> >::_STLP_alloc_proxy<unsigned int,Packet *,_STL::allocator<Packet *> >, COMDAT
; _this$ = ecx

; 487  :   inline _STLP_alloc_proxy(const _MaybeReboundAlloc& __a, _Value __p) : _MaybeReboundAlloc(__a), _M_data(__p) {}

  00000	8b c1		 mov	 eax, ecx
  00002	8b 4c 24 08	 mov	 ecx, DWORD PTR ___p$[esp-4]
  00006	89 08		 mov	 DWORD PTR [eax], ecx
  00008	c2 08 00	 ret	 8
??0?$_STLP_alloc_proxy@IPAVPacket@@V?$allocator@PAVPacket@@@_STL@@@_STL@@QAE@ABV?$allocator@PAVPacket@@@1@I@Z ENDP ; _STL::_STLP_alloc_proxy<unsigned int,Packet *,_STL::allocator<Packet *> >::_STLP_alloc_proxy<unsigned int,Packet *,_STL::allocator<Packet *> >
_TEXT	ENDS
PUBLIC	??Y?$_Deque_iterator@PAVPacket@@U?$_Nonconst_traits@PAVPacket@@@_STL@@@_STL@@QAEAAU01@H@Z ; _STL::_Deque_iterator<Packet *,_STL::_Nonconst_traits<Packet *> >::operator+=
; Function compile flags: /Ogsy
; File c:\stlport-4.6.1\stlport\stl\_deque.h
;	COMDAT ??Y?$_Deque_iterator@PAVPacket@@U?$_Nonconst_traits@PAVPacket@@@_STL@@@_STL@@QAEAAU01@H@Z
_TEXT	SEGMENT
___n$ = 8						; size = 4
??Y?$_Deque_iterator@PAVPacket@@U?$_Nonconst_traits@PAVPacket@@@_STL@@@_STL@@QAEAAU01@H@Z PROC NEAR ; _STL::_Deque_iterator<Packet *,_STL::_Nonconst_traits<Packet *> >::operator+=, COMDAT
; _this$ = ecx

; 200  :   _Self& operator+=(difference_type __n) { this->_M_advance(__n); return *this; }

  00000	56		 push	 esi
  00001	ff 74 24 08	 push	 DWORD PTR ___n$[esp]
  00005	8b f1		 mov	 esi, ecx
  00007	e8 00 00 00 00	 call	 ?_M_advance@?$_Deque_iterator_base@PAVPacket@@@_STL@@QAEXH@Z ; _STL::_Deque_iterator_base<Packet *>::_M_advance
  0000c	8b c6		 mov	 eax, esi
  0000e	5e		 pop	 esi
  0000f	c2 04 00	 ret	 4
??Y?$_Deque_iterator@PAVPacket@@U?$_Nonconst_traits@PAVPacket@@@_STL@@@_STL@@QAEAAU01@H@Z ENDP ; _STL::_Deque_iterator<Packet *,_STL::_Nonconst_traits<Packet *> >::operator+=
_TEXT	ENDS
PUBLIC	?allocate@?$allocator@PAVPacket@@@_STL@@QAEPAPAVPacket@@IPBX@Z ; _STL::allocator<Packet *>::allocate
; Function compile flags: /Ogsy
; File c:\stlport-4.6.1\stlport\stl\_alloc.h
;	COMDAT ?allocate@?$allocator@PAVPacket@@@_STL@@QAEPAPAVPacket@@IPBX@Z
_TEXT	SEGMENT
___n$ = 8						; size = 4
___formal$ = 12						; size = 4
?allocate@?$allocator@PAVPacket@@@_STL@@QAEPAPAVPacket@@IPBX@Z PROC NEAR ; _STL::allocator<Packet *>::allocate, COMDAT
; _this$ = ecx

; 355  :     return __n != 0 ? __REINTERPRET_CAST(value_type*,__sgi_alloc::allocate(__n * sizeof(value_type))) : 0;

  00000	8b 44 24 04	 mov	 eax, DWORD PTR ___n$[esp-4]
  00004	85 c0		 test	 eax, eax
  00006	74 0c		 je	 SHORT $L115092
  00008	c1 e0 02	 shl	 eax, 2
  0000b	50		 push	 eax
  0000c	e8 00 00 00 00	 call	 ?allocate@?$__node_alloc@$00$0A@@_STL@@SAPAXI@Z ; _STL::__node_alloc<1,0>::allocate
  00011	59		 pop	 ecx
  00012	eb 02		 jmp	 SHORT $L115093
$L115092:
  00014	33 c0		 xor	 eax, eax
$L115093:

; 356  :   }

  00016	c2 08 00	 ret	 8
?allocate@?$allocator@PAVPacket@@@_STL@@QAEPAPAVPacket@@IPBX@Z ENDP ; _STL::allocator<Packet *>::allocate
_TEXT	ENDS
PUBLIC	?deallocate@?$allocator@PAVPacket@@@_STL@@QAEXPAPAVPacket@@I@Z ; _STL::allocator<Packet *>::deallocate
; Function compile flags: /Ogsy
;	COMDAT ?deallocate@?$allocator@PAVPacket@@@_STL@@QAEXPAPAVPacket@@I@Z
_TEXT	SEGMENT
___p$ = 8						; size = 4
___n$ = 12						; size = 4
?deallocate@?$allocator@PAVPacket@@@_STL@@QAEXPAPAVPacket@@I@Z PROC NEAR ; _STL::allocator<Packet *>::deallocate, COMDAT
; _this$ = ecx

; 359  :     _STLP_ASSERT( (__p == 0) == (__n == 0) )
; 360  :       if (__p != 0) __sgi_alloc::deallocate((void*)__p, __n * sizeof(value_type));

  00000	83 7c 24 04 00	 cmp	 DWORD PTR ___p$[esp-4], 0
  00005	74 13		 je	 SHORT $L113055
  00007	8b 44 24 08	 mov	 eax, DWORD PTR ___n$[esp-4]
  0000b	c1 e0 02	 shl	 eax, 2
  0000e	50		 push	 eax
  0000f	ff 74 24 08	 push	 DWORD PTR ___p$[esp]
  00013	e8 00 00 00 00	 call	 ?deallocate@?$__node_alloc@$00$0A@@_STL@@SAXPAXI@Z ; _STL::__node_alloc<1,0>::deallocate
  00018	59		 pop	 ecx
  00019	59		 pop	 ecx
$L113055:

; 361  :   }

  0001a	c2 08 00	 ret	 8
?deallocate@?$allocator@PAVPacket@@@_STL@@QAEXPAPAVPacket@@I@Z ENDP ; _STL::allocator<Packet *>::deallocate
_TEXT	ENDS
PUBLIC	?allocate@?$allocator@PAPAVPacket@@@_STL@@QAEPAPAPAVPacket@@IPBX@Z ; _STL::allocator<Packet * *>::allocate
; Function compile flags: /Ogsy
;	COMDAT ?allocate@?$allocator@PAPAVPacket@@@_STL@@QAEPAPAPAVPacket@@IPBX@Z
_TEXT	SEGMENT
___n$ = 8						; size = 4
___formal$ = 12						; size = 4
?allocate@?$allocator@PAPAVPacket@@@_STL@@QAEPAPAPAVPacket@@IPBX@Z PROC NEAR ; _STL::allocator<Packet * *>::allocate, COMDAT
; _this$ = ecx

; 355  :     return __n != 0 ? __REINTERPRET_CAST(value_type*,__sgi_alloc::allocate(__n * sizeof(value_type))) : 0;

  00000	8b 44 24 04	 mov	 eax, DWORD PTR ___n$[esp-4]
  00004	85 c0		 test	 eax, eax
  00006	74 0c		 je	 SHORT $L115100
  00008	c1 e0 02	 shl	 eax, 2
  0000b	50		 push	 eax
  0000c	e8 00 00 00 00	 call	 ?allocate@?$__node_alloc@$00$0A@@_STL@@SAPAXI@Z ; _STL::__node_alloc<1,0>::allocate
  00011	59		 pop	 ecx
  00012	eb 02		 jmp	 SHORT $L115101
$L115100:
  00014	33 c0		 xor	 eax, eax
$L115101:

; 356  :   }

  00016	c2 08 00	 ret	 8
?allocate@?$allocator@PAPAVPacket@@@_STL@@QAEPAPAPAVPacket@@IPBX@Z ENDP ; _STL::allocator<Packet * *>::allocate
_TEXT	ENDS
PUBLIC	?deallocate@?$allocator@PAPAVPacket@@@_STL@@QAEXPAPAPAVPacket@@I@Z ; _STL::allocator<Packet * *>::deallocate
; Function compile flags: /Ogsy
;	COMDAT ?deallocate@?$allocator@PAPAVPacket@@@_STL@@QAEXPAPAPAVPacket@@I@Z
_TEXT	SEGMENT
___p$ = 8						; size = 4
___n$ = 12						; size = 4
?deallocate@?$allocator@PAPAVPacket@@@_STL@@QAEXPAPAPAVPacket@@I@Z PROC NEAR ; _STL::allocator<Packet * *>::deallocate, COMDAT
; _this$ = ecx

; 359  :     _STLP_ASSERT( (__p == 0) == (__n == 0) )
; 360  :       if (__p != 0) __sgi_alloc::deallocate((void*)__p, __n * sizeof(value_type));

  00000	83 7c 24 04 00	 cmp	 DWORD PTR ___p$[esp-4], 0
  00005	74 13		 je	 SHORT $L113064
  00007	8b 44 24 08	 mov	 eax, DWORD PTR ___n$[esp-4]
  0000b	c1 e0 02	 shl	 eax, 2
  0000e	50		 push	 eax
  0000f	ff 74 24 08	 push	 DWORD PTR ___p$[esp]
  00013	e8 00 00 00 00	 call	 ?deallocate@?$__node_alloc@$00$0A@@_STL@@SAXPAXI@Z ; _STL::__node_alloc<1,0>::deallocate
  00018	59		 pop	 ecx
  00019	59		 pop	 ecx
$L113064:

; 361  :   }

  0001a	c2 08 00	 ret	 8
?deallocate@?$allocator@PAPAVPacket@@@_STL@@QAEXPAPAPAVPacket@@I@Z ENDP ; _STL::allocator<Packet * *>::deallocate
_TEXT	ENDS
PUBLIC	?_M_destroy_nodes@?$_Deque_base@PAVPacket@@V?$allocator@PAVPacket@@@_STL@@@_STL@@IAEXPAPAPAVPacket@@0@Z ; _STL::_Deque_base<Packet *,_STL::allocator<Packet *> >::_M_destroy_nodes
; Function compile flags: /Ogsy
; File c:\stlport-4.6.1\stlport\stl\_deque.c
;	COMDAT ?_M_destroy_nodes@?$_Deque_base@PAVPacket@@V?$allocator@PAVPacket@@@_STL@@@_STL@@IAEXPAPAPAVPacket@@0@Z
_TEXT	SEGMENT
___nstart$ = 8						; size = 4
___nfinish$ = 12					; size = 4
?_M_destroy_nodes@?$_Deque_base@PAVPacket@@V?$allocator@PAVPacket@@@_STL@@@_STL@@IAEXPAPAPAVPacket@@0@Z PROC NEAR ; _STL::_Deque_base<Packet *,_STL::allocator<Packet *> >::_M_destroy_nodes, COMDAT
; _this$ = ecx

; 87   : {

  00000	56		 push	 esi

; 88   :   for (_Tp** __n = __nstart; __n < __nfinish; ++__n)

  00001	8b 74 24 08	 mov	 esi, DWORD PTR ___nstart$[esp]
  00005	3b 74 24 0c	 cmp	 esi, DWORD PTR ___nfinish$[esp]
  00009	73 19		 jae	 SHORT $L113298
  0000b	57		 push	 edi
  0000c	8d 79 24	 lea	 edi, DWORD PTR [ecx+36]
$L113296:

; 89   :     _M_map_size.deallocate(*__n, this->buffer_size());

  0000f	6a 20		 push	 32			; 00000020H
  00011	ff 36		 push	 DWORD PTR [esi]
  00013	8b cf		 mov	 ecx, edi
  00015	e8 00 00 00 00	 call	 ?deallocate@?$allocator@PAVPacket@@@_STL@@QAEXPAPAVPacket@@I@Z ; _STL::allocator<Packet *>::deallocate
  0001a	83 c6 04	 add	 esi, 4
  0001d	3b 74 24 10	 cmp	 esi, DWORD PTR ___nfinish$[esp+4]
  00021	72 ec		 jb	 SHORT $L113296
  00023	5f		 pop	 edi
$L113298:
  00024	5e		 pop	 esi

; 90   : }

  00025	c2 08 00	 ret	 8
?_M_destroy_nodes@?$_Deque_base@PAVPacket@@V?$allocator@PAVPacket@@@_STL@@@_STL@@IAEXPAPAPAVPacket@@0@Z ENDP ; _STL::_Deque_base<Packet *,_STL::allocator<Packet *> >::_M_destroy_nodes
_TEXT	ENDS
PUBLIC	??$?8U?$_Deque_iterator@PAVPacket@@U?$_Nonconst_traits@PAVPacket@@@_STL@@@_STL@@@_STL@@YA_NABV?$reverse_iterator@U?$_Deque_iterator@PAVPacket@@U?$_Nonconst_traits@PAVPacket@@@_STL@@@_STL@@@0@0@Z ; _STL::operator==<_STL::_Deque_iterator<Packet *,_STL::_Nonconst_traits<Packet *> > >
; Function compile flags: /Ogsy
; File c:\stlport-4.6.1\stlport\stl\_iterator.h
;	COMDAT ??$?8U?$_Deque_iterator@PAVPacket@@U?$_Nonconst_traits@PAVPacket@@@_STL@@@_STL@@@_STL@@YA_NABV?$reverse_iterator@U?$_Deque_iterator@PAVPacket@@U?$_Nonconst_traits@PAVPacket@@@_STL@@@_STL@@@0@0@Z
_TEXT	SEGMENT
$T115116 = -32						; size = 16
$T115117 = -16						; size = 16
___x$ = 8						; size = 4
___y$ = 12						; size = 4
??$?8U?$_Deque_iterator@PAVPacket@@U?$_Nonconst_traits@PAVPacket@@@_STL@@@_STL@@@_STL@@YA_NABV?$reverse_iterator@U?$_Deque_iterator@PAVPacket@@U?$_Nonconst_traits@PAVPacket@@@_STL@@@_STL@@@0@0@Z PROC NEAR ; _STL::operator==<_STL::_Deque_iterator<Packet *,_STL::_Nonconst_traits<Packet *> > >, COMDAT

; 120  :                        const reverse_iterator<_Iterator>& __y) {

  00000	55		 push	 ebp
  00001	8b ec		 mov	 ebp, esp
  00003	83 ec 20	 sub	 esp, 32			; 00000020H
  00006	56		 push	 esi

; 121  :   return __x.base() == __y.base();

  00007	8b 75 0c	 mov	 esi, DWORD PTR ___y$[ebp]
  0000a	57		 push	 edi
  0000b	8d 7d e0	 lea	 edi, DWORD PTR $T115116[ebp]
  0000e	a5		 movsd
  0000f	a5		 movsd
  00010	a5		 movsd
  00011	a5		 movsd
  00012	8b 75 08	 mov	 esi, DWORD PTR ___x$[ebp]
  00015	8d 7d f0	 lea	 edi, DWORD PTR $T115117[ebp]
  00018	a5		 movsd
  00019	a5		 movsd
  0001a	a5		 movsd
  0001b	a5		 movsd
  0001c	8b 4d f0	 mov	 ecx, DWORD PTR $T115117[ebp]
  0001f	33 c0		 xor	 eax, eax
  00021	3b 4d e0	 cmp	 ecx, DWORD PTR $T115116[ebp]
  00024	5f		 pop	 edi
  00025	0f 94 c0	 sete	 al
  00028	5e		 pop	 esi

; 122  : }

  00029	c9		 leave
  0002a	c3		 ret	 0
??$?8U?$_Deque_iterator@PAVPacket@@U?$_Nonconst_traits@PAVPacket@@@_STL@@@_STL@@@_STL@@YA_NABV?$reverse_iterator@U?$_Deque_iterator@PAVPacket@@U?$_Nonconst_traits@PAVPacket@@@_STL@@@_STL@@@0@0@Z ENDP ; _STL::operator==<_STL::_Deque_iterator<Packet *,_STL::_Nonconst_traits<Packet *> > >
_TEXT	ENDS
PUBLIC	??$__destroy@U?$_Deque_iterator@PAVPacket@@U?$_Nonconst_traits@PAVPacket@@@_STL@@@_STL@@PAVPacket@@@_STL@@YAXU?$_Deque_iterator@PAVPacket@@U?$_Nonconst_traits@PAVPacket@@@_STL@@@0@0PAPAVPacket@@@Z ; _STL::__destroy<_STL::_Deque_iterator<Packet *,_STL::_Nonconst_traits<Packet *> >,Packet *>
; Function compile flags: /Ogsy
; File c:\stlport-4.6.1\stlport\stl\_construct.h
;	COMDAT ??$__destroy@U?$_Deque_iterator@PAVPacket@@U?$_Nonconst_traits@PAVPacket@@@_STL@@@_STL@@PAVPacket@@@_STL@@YAXU?$_Deque_iterator@PAVPacket@@U?$_Nonconst_traits@PAVPacket@@@_STL@@@0@0PAPAVPacket@@@Z
_TEXT	SEGMENT
___first$ = 8						; size = 16
___last$ = 24						; size = 16
___formal$ = 40						; size = 4
??$__destroy@U?$_Deque_iterator@PAVPacket@@U?$_Nonconst_traits@PAVPacket@@@_STL@@@_STL@@PAVPacket@@@_STL@@YAXU?$_Deque_iterator@PAVPacket@@U?$_Nonconst_traits@PAVPacket@@@_STL@@@0@0PAPAVPacket@@@Z PROC NEAR ; _STL::__destroy<_STL::_Deque_iterator<Packet *,_STL::_Nonconst_traits<Packet *> >,Packet *>, COMDAT

; 133  :   typedef typename __type_traits<_Tp>::has_trivial_destructor _Trivial_destructor;
; 134  :   __destroy_aux(__first, __last, _Trivial_destructor());
; 135  : }

  00000	c3		 ret	 0
??$__destroy@U?$_Deque_iterator@PAVPacket@@U?$_Nonconst_traits@PAVPacket@@@_STL@@@_STL@@PAVPacket@@@_STL@@YAXU?$_Deque_iterator@PAVPacket@@U?$_Nonconst_traits@PAVPacket@@@_STL@@@0@0PAPAVPacket@@@Z ENDP ; _STL::__destroy<_STL::_Deque_iterator<Packet *,_STL::_Nonconst_traits<Packet *> >,Packet *>
_TEXT	ENDS
PUBLIC	??$distance@PBD@_STL@@YAHABQBD0@Z		; _STL::distance<char const *>
; Function compile flags: /Ogsy
; File c:\stlport-4.6.1\stlport\stl\_iterator_base.h
;	COMDAT ??$distance@PBD@_STL@@YAHABQBD0@Z
_TEXT	SEGMENT
___first$ = 8						; size = 4
___last$ = 12						; size = 4
??$distance@PBD@_STL@@YAHABQBD0@Z PROC NEAR		; _STL::distance<char const *>, COMDAT

; 369  :   return __distance(__first, __last, _STLP_ITERATOR_CATEGORY(__first, _InputIterator));  

  00000	8b 44 24 08	 mov	 eax, DWORD PTR ___last$[esp-4]
  00004	8b 00		 mov	 eax, DWORD PTR [eax]
  00006	8b 4c 24 04	 mov	 ecx, DWORD PTR ___first$[esp-4]
  0000a	2b 01		 sub	 eax, DWORD PTR [ecx]

; 370  : }

  0000c	c3		 ret	 0
??$distance@PBD@_STL@@YAHABQBD0@Z ENDP			; _STL::distance<char const *>
_TEXT	ENDS
PUBLIC	?_M_allocate_block@?$_String_base@DV?$allocator@D@_STL@@@_STL@@QAEXI@Z ; _STL::_String_base<char,_STL::allocator<char> >::_M_allocate_block
; Function compile flags: /Ogsy
; File c:\stlport-4.6.1\stlport\stl\_string.c
;	COMDAT ?_M_allocate_block@?$_String_base@DV?$allocator@D@_STL@@@_STL@@QAEXI@Z
_TEXT	SEGMENT
___n$ = 8						; size = 4
?_M_allocate_block@?$_String_base@DV?$allocator@D@_STL@@@_STL@@QAEXI@Z PROC NEAR ; _STL::_String_base<char,_STL::allocator<char> >::_M_allocate_block, COMDAT
; _this$ = ecx

; 530  : template <class _Tp, class _Alloc> void _String_base<_Tp, _Alloc>::_M_allocate_block(size_t __n) {  

  00000	56		 push	 esi
  00001	57		 push	 edi

; 531  :   if ((__n <= (max_size()+1)) && (__n>0)){ 

  00002	8b 7c 24 0c	 mov	 edi, DWORD PTR ___n$[esp+4]
  00006	83 ff ff	 cmp	 edi, -1
  00009	8b f1		 mov	 esi, ecx
  0000b	77 17		 ja	 SHORT $L113520
  0000d	85 ff		 test	 edi, edi
  0000f	76 13		 jbe	 SHORT $L113520

; 532  :     _M_start  = _M_end_of_storage.allocate(__n); 

  00011	57		 push	 edi
  00012	e8 00 00 00 00	 call	 ?allocate@?$__node_alloc@$00$0A@@_STL@@SAPAXI@Z ; _STL::__node_alloc<1,0>::allocate
  00017	89 06		 mov	 DWORD PTR [esi], eax

; 533  :     _M_finish = _M_start; 

  00019	89 46 04	 mov	 DWORD PTR [esi+4], eax

; 534  :     _M_end_of_storage._M_data = _M_start + __n; 

  0001c	03 c7		 add	 eax, edi
  0001e	59		 pop	 ecx
  0001f	89 46 08	 mov	 DWORD PTR [esi+8], eax

; 535  :   } 
; 536  :     else 

  00022	eb 07		 jmp	 SHORT $L113521
$L113520:

; 537  :       _M_throw_length_error(); 

  00024	8b ce		 mov	 ecx, esi
  00026	e8 00 00 00 00	 call	 ?_M_throw_length_error@?$_String_base@DV?$allocator@D@_STL@@@_STL@@QBEXXZ ; _STL::_String_base<char,_STL::allocator<char> >::_M_throw_length_error
$L113521:
  0002b	5f		 pop	 edi
  0002c	5e		 pop	 esi

; 538  : } 

  0002d	c2 04 00	 ret	 4
?_M_allocate_block@?$_String_base@DV?$allocator@D@_STL@@@_STL@@QAEXI@Z ENDP ; _STL::_String_base<char,_STL::allocator<char> >::_M_allocate_block
_TEXT	ENDS
PUBLIC	??$distance@PAD@_STL@@YAHABQAD0@Z		; _STL::distance<char *>
; Function compile flags: /Ogsy
; File c:\stlport-4.6.1\stlport\stl\_iterator_base.h
;	COMDAT ??$distance@PAD@_STL@@YAHABQAD0@Z
_TEXT	SEGMENT
___first$ = 8						; size = 4
___last$ = 12						; size = 4
??$distance@PAD@_STL@@YAHABQAD0@Z PROC NEAR		; _STL::distance<char *>, COMDAT

; 369  :   return __distance(__first, __last, _STLP_ITERATOR_CATEGORY(__first, _InputIterator));  

  00000	8b 44 24 08	 mov	 eax, DWORD PTR ___last$[esp-4]
  00004	8b 00		 mov	 eax, DWORD PTR [eax]
  00006	8b 4c 24 04	 mov	 ecx, DWORD PTR ___first$[esp-4]
  0000a	2b 01		 sub	 eax, DWORD PTR [ecx]

; 370  : }

  0000c	c3		 ret	 0
??$distance@PAD@_STL@@YAHABQAD0@Z ENDP			; _STL::distance<char *>
_TEXT	ENDS
PUBLIC	??$__copy_aux@PAPAPAVPacket@@PAPAPAV1@@_STL@@YAPAPAPAVPacket@@PAPAPAV1@00ABU__true_type@0@@Z ; _STL::__copy_aux<Packet * * *,Packet * * *>
; Function compile flags: /Ogsy
; File c:\stlport-4.6.1\stlport\stl\_algobase.h
;	COMDAT ??$__copy_aux@PAPAPAVPacket@@PAPAPAV1@@_STL@@YAPAPAPAVPacket@@PAPAPAV1@00ABU__true_type@0@@Z
_TEXT	SEGMENT
___first$ = 8						; size = 4
___last$ = 12						; size = 4
___result$ = 16						; size = 4
___formal$ = 20						; size = 4
??$__copy_aux@PAPAPAVPacket@@PAPAPAV1@@_STL@@YAPAPAPAVPacket@@PAPAPAV1@00ABU__true_type@0@@Z PROC NEAR ; _STL::__copy_aux<Packet * * *,Packet * * *>, COMDAT

; 202  :   return __copy_ptrs(__first, __last, __result, 
; 203  :                      _IsOKToMemCpy(_STLP_VALUE_TYPE(__first, _InputIter), 
; 204  :                                    _STLP_VALUE_TYPE(__result, _OutputIter))._Ret());

  00000	ff 74 24 0c	 push	 DWORD PTR ___result$[esp-4]
  00004	ff 74 24 0c	 push	 DWORD PTR ___last$[esp]
  00008	ff 74 24 0c	 push	 DWORD PTR ___first$[esp+4]
  0000c	e8 00 00 00 00	 call	 ?__copy_trivial@_STL@@YAPAXPBX0PAX@Z ; _STL::__copy_trivial
  00011	83 c4 0c	 add	 esp, 12			; 0000000cH

; 205  : }

  00014	c3		 ret	 0
??$__copy_aux@PAPAPAVPacket@@PAPAPAV1@@_STL@@YAPAPAPAVPacket@@PAPAPAV1@00ABU__true_type@0@@Z ENDP ; _STL::__copy_aux<Packet * * *,Packet * * *>
_TEXT	ENDS
PUBLIC	??$__copy_backward_aux@PAPAPAVPacket@@PAPAPAV1@@_STL@@YAPAPAPAVPacket@@PAPAPAV1@00ABU__true_type@0@@Z ; _STL::__copy_backward_aux<Packet * * *,Packet * * *>
; Function compile flags: /Ogsy
;	COMDAT ??$__copy_backward_aux@PAPAPAVPacket@@PAPAPAV1@@_STL@@YAPAPAPAVPacket@@PAPAPAV1@00ABU__true_type@0@@Z
_TEXT	SEGMENT
___first$ = 8						; size = 4
___last$ = 12						; size = 4
___result$ = 16						; size = 4
___formal$ = 20						; size = 4
??$__copy_backward_aux@PAPAPAVPacket@@PAPAPAV1@@_STL@@YAPAPAPAVPacket@@PAPAPAV1@00ABU__true_type@0@@Z PROC NEAR ; _STL::__copy_backward_aux<Packet * * *,Packet * * *>, COMDAT

; 235  :   return __copy_backward_ptrs(__first, __last, __result,  
; 236  :                               _IsOKToMemCpy(_STLP_VALUE_TYPE(__first, _InputIter), 
; 237  :                                             _STLP_VALUE_TYPE(__result, _OutputIter))._Ret());

  00000	ff 74 24 0c	 push	 DWORD PTR ___result$[esp-4]
  00004	ff 74 24 0c	 push	 DWORD PTR ___last$[esp]
  00008	ff 74 24 0c	 push	 DWORD PTR ___first$[esp+4]
  0000c	e8 00 00 00 00	 call	 ?__copy_trivial_backward@_STL@@YAPAXPBX0PAX@Z ; _STL::__copy_trivial_backward
  00011	83 c4 0c	 add	 esp, 12			; 0000000cH

; 238  : }

  00014	c3		 ret	 0
??$__copy_backward_aux@PAPAPAVPacket@@PAPAPAV1@@_STL@@YAPAPAPAVPacket@@PAPAPAV1@00ABU__true_type@0@@Z ENDP ; _STL::__copy_backward_aux<Packet * * *,Packet * * *>
_TEXT	ENDS
PUBLIC	??$__copy_aux@PADPAD@_STL@@YAPADPAD00ABU__true_type@0@@Z ; _STL::__copy_aux<char *,char *>
; Function compile flags: /Ogsy
;	COMDAT ??$__copy_aux@PADPAD@_STL@@YAPADPAD00ABU__true_type@0@@Z
_TEXT	SEGMENT
___first$ = 8						; size = 4
___last$ = 12						; size = 4
___result$ = 16						; size = 4
___formal$ = 20						; size = 4
??$__copy_aux@PADPAD@_STL@@YAPADPAD00ABU__true_type@0@@Z PROC NEAR ; _STL::__copy_aux<char *,char *>, COMDAT

; 202  :   return __copy_ptrs(__first, __last, __result, 
; 203  :                      _IsOKToMemCpy(_STLP_VALUE_TYPE(__first, _InputIter), 
; 204  :                                    _STLP_VALUE_TYPE(__result, _OutputIter))._Ret());

  00000	ff 74 24 0c	 push	 DWORD PTR ___result$[esp-4]
  00004	ff 74 24 0c	 push	 DWORD PTR ___last$[esp]
  00008	ff 74 24 0c	 push	 DWORD PTR ___first$[esp+4]
  0000c	e8 00 00 00 00	 call	 ?__copy_trivial@_STL@@YAPAXPBX0PAX@Z ; _STL::__copy_trivial
  00011	83 c4 0c	 add	 esp, 12			; 0000000cH

; 205  : }

  00014	c3		 ret	 0
??$__copy_aux@PADPAD@_STL@@YAPADPAD00ABU__true_type@0@@Z ENDP ; _STL::__copy_aux<char *,char *>
_TEXT	ENDS
PUBLIC	?begin@?$list@V?$basic_string@DV?$char_traits@D@_STL@@V?$allocator@D@2@@_STL@@V?$allocator@V?$basic_string@DV?$char_traits@D@_STL@@V?$allocator@D@2@@_STL@@@2@@_STL@@QBE?AU?$_List_iterator@V?$basic_string@DV?$char_traits@D@_STL@@V?$allocator@D@2@@_STL@@U?$_Const_traits@V?$basic_string@DV?$char_traits@D@_STL@@V?$allocator@D@2@@_STL@@@2@@2@XZ ; _STL::list<_STL::basic_string<char,_STL::char_traits<char>,_STL::allocator<char> >,_STL::allocator<_STL::basic_string<char,_STL::char_traits<char>,_STL::allocator<char> > > >::begin
; Function compile flags: /Ogsy
; File c:\stlport-4.6.1\stlport\stl\_list.h
;	COMDAT ?begin@?$list@V?$basic_string@DV?$char_traits@D@_STL@@V?$allocator@D@2@@_STL@@V?$allocator@V?$basic_string@DV?$char_traits@D@_STL@@V?$allocator@D@2@@_STL@@@2@@_STL@@QBE?AU?$_List_iterator@V?$basic_string@DV?$char_traits@D@_STL@@V?$allocator@D@2@@_STL@@U?$_Const_traits@V?$basic_string@DV?$char_traits@D@_STL@@V?$allocator@D@2@@_STL@@@2@@2@XZ
_TEXT	SEGMENT
___$ReturnUdt$ = 8					; size = 4
?begin@?$list@V?$basic_string@DV?$char_traits@D@_STL@@V?$allocator@D@2@@_STL@@V?$allocator@V?$basic_string@DV?$char_traits@D@_STL@@V?$allocator@D@2@@_STL@@@2@@_STL@@QBE?AU?$_List_iterator@V?$basic_string@DV?$char_traits@D@_STL@@V?$allocator@D@2@@_STL@@U?$_Const_traits@V?$basic_string@DV?$char_traits@D@_STL@@V?$allocator@D@2@@_STL@@@2@@2@XZ PROC NEAR ; _STL::list<_STL::basic_string<char,_STL::char_traits<char>,_STL::allocator<char> >,_STL::allocator<_STL::basic_string<char,_STL::char_traits<char>,_STL::allocator<char> > > >::begin, COMDAT
; _this$ = ecx

; 267  :   const_iterator begin() const { return const_iterator((_Node*)(this->_M_node._M_data->_M_next)); }

  00000	8b 01		 mov	 eax, DWORD PTR [ecx]
  00002	8b 08		 mov	 ecx, DWORD PTR [eax]
  00004	8b 44 24 04	 mov	 eax, DWORD PTR ___$ReturnUdt$[esp-4]
  00008	89 08		 mov	 DWORD PTR [eax], ecx
  0000a	c2 04 00	 ret	 4
?begin@?$list@V?$basic_string@DV?$char_traits@D@_STL@@V?$allocator@D@2@@_STL@@V?$allocator@V?$basic_string@DV?$char_traits@D@_STL@@V?$allocator@D@2@@_STL@@@2@@_STL@@QBE?AU?$_List_iterator@V?$basic_string@DV?$char_traits@D@_STL@@V?$allocator@D@2@@_STL@@U?$_Const_traits@V?$basic_string@DV?$char_traits@D@_STL@@V?$allocator@D@2@@_STL@@@2@@2@XZ ENDP ; _STL::list<_STL::basic_string<char,_STL::char_traits<char>,_STL::allocator<char> >,_STL::allocator<_STL::basic_string<char,_STL::char_traits<char>,_STL::allocator<char> > > >::begin
_TEXT	ENDS
PUBLIC	?end@?$list@V?$basic_string@DV?$char_traits@D@_STL@@V?$allocator@D@2@@_STL@@V?$allocator@V?$basic_string@DV?$char_traits@D@_STL@@V?$allocator@D@2@@_STL@@@2@@_STL@@QBE?AU?$_List_iterator@V?$basic_string@DV?$char_traits@D@_STL@@V?$allocator@D@2@@_STL@@U?$_Const_traits@V?$basic_string@DV?$char_traits@D@_STL@@V?$allocator@D@2@@_STL@@@2@@2@XZ ; _STL::list<_STL::basic_string<char,_STL::char_traits<char>,_STL::allocator<char> >,_STL::allocator<_STL::basic_string<char,_STL::char_traits<char>,_STL::allocator<char> > > >::end
; Function compile flags: /Ogsy
;	COMDAT ?end@?$list@V?$basic_string@DV?$char_traits@D@_STL@@V?$allocator@D@2@@_STL@@V?$allocator@V?$basic_string@DV?$char_traits@D@_STL@@V?$allocator@D@2@@_STL@@@2@@_STL@@QBE?AU?$_List_iterator@V?$basic_string@DV?$char_traits@D@_STL@@V?$allocator@D@2@@_STL@@U?$_Const_traits@V?$basic_string@DV?$char_traits@D@_STL@@V?$allocator@D@2@@_STL@@@2@@2@XZ
_TEXT	SEGMENT
___$ReturnUdt$ = 8					; size = 4
?end@?$list@V?$basic_string@DV?$char_traits@D@_STL@@V?$allocator@D@2@@_STL@@V?$allocator@V?$basic_string@DV?$char_traits@D@_STL@@V?$allocator@D@2@@_STL@@@2@@_STL@@QBE?AU?$_List_iterator@V?$basic_string@DV?$char_traits@D@_STL@@V?$allocator@D@2@@_STL@@U?$_Const_traits@V?$basic_string@DV?$char_traits@D@_STL@@V?$allocator@D@2@@_STL@@@2@@2@XZ PROC NEAR ; _STL::list<_STL::basic_string<char,_STL::char_traits<char>,_STL::allocator<char> >,_STL::allocator<_STL::basic_string<char,_STL::char_traits<char>,_STL::allocator<char> > > >::end, COMDAT
; _this$ = ecx

; 270  :   const_iterator end() const { return this->_M_node._M_data; }

  00000	8b 09		 mov	 ecx, DWORD PTR [ecx]
  00002	8b 44 24 04	 mov	 eax, DWORD PTR ___$ReturnUdt$[esp-4]
  00006	89 08		 mov	 DWORD PTR [eax], ecx
  00008	c2 04 00	 ret	 4
?end@?$list@V?$basic_string@DV?$char_traits@D@_STL@@V?$allocator@D@2@@_STL@@V?$allocator@V?$basic_string@DV?$char_traits@D@_STL@@V?$allocator@D@2@@_STL@@@2@@_STL@@QBE?AU?$_List_iterator@V?$basic_string@DV?$char_traits@D@_STL@@V?$allocator@D@2@@_STL@@U?$_Const_traits@V?$basic_string@DV?$char_traits@D@_STL@@V?$allocator@D@2@@_STL@@@2@@2@XZ ENDP ; _STL::list<_STL::basic_string<char,_STL::char_traits<char>,_STL::allocator<char> >,_STL::allocator<_STL::basic_string<char,_STL::char_traits<char>,_STL::allocator<char> > > >::end
_TEXT	ENDS
PUBLIC	?begin@?$list@V?$basic_string@DV?$char_traits@D@_STL@@V?$allocator@D@2@@_STL@@V?$allocator@V?$basic_string@DV?$char_traits@D@_STL@@V?$allocator@D@2@@_STL@@@2@@_STL@@QAE?AU?$_List_iterator@V?$basic_string@DV?$char_traits@D@_STL@@V?$allocator@D@2@@_STL@@U?$_Nonconst_traits@V?$basic_string@DV?$char_traits@D@_STL@@V?$allocator@D@2@@_STL@@@2@@2@XZ ; _STL::list<_STL::basic_string<char,_STL::char_traits<char>,_STL::allocator<char> >,_STL::allocator<_STL::basic_string<char,_STL::char_traits<char>,_STL::allocator<char> > > >::begin
; Function compile flags: /Ogsy
;	COMDAT ?begin@?$list@V?$basic_string@DV?$char_traits@D@_STL@@V?$allocator@D@2@@_STL@@V?$allocator@V?$basic_string@DV?$char_traits@D@_STL@@V?$allocator@D@2@@_STL@@@2@@_STL@@QAE?AU?$_List_iterator@V?$basic_string@DV?$char_traits@D@_STL@@V?$allocator@D@2@@_STL@@U?$_Nonconst_traits@V?$basic_string@DV?$char_traits@D@_STL@@V?$allocator@D@2@@_STL@@@2@@2@XZ
_TEXT	SEGMENT
___$ReturnUdt$ = 8					; size = 4
?begin@?$list@V?$basic_string@DV?$char_traits@D@_STL@@V?$allocator@D@2@@_STL@@V?$allocator@V?$basic_string@DV?$char_traits@D@_STL@@V?$allocator@D@2@@_STL@@@2@@_STL@@QAE?AU?$_List_iterator@V?$basic_string@DV?$char_traits@D@_STL@@V?$allocator@D@2@@_STL@@U?$_Nonconst_traits@V?$basic_string@DV?$char_traits@D@_STL@@V?$allocator@D@2@@_STL@@@2@@2@XZ PROC NEAR ; _STL::list<_STL::basic_string<char,_STL::char_traits<char>,_STL::allocator<char> >,_STL::allocator<_STL::basic_string<char,_STL::char_traits<char>,_STL::allocator<char> > > >::begin, COMDAT
; _this$ = ecx

; 266  :   iterator begin()             { return iterator((_Node*)(this->_M_node._M_data->_M_next)); }

  00000	8b 01		 mov	 eax, DWORD PTR [ecx]
  00002	8b 08		 mov	 ecx, DWORD PTR [eax]
  00004	8b 44 24 04	 mov	 eax, DWORD PTR ___$ReturnUdt$[esp-4]
  00008	89 08		 mov	 DWORD PTR [eax], ecx
  0000a	c2 04 00	 ret	 4
?begin@?$list@V?$basic_string@DV?$char_traits@D@_STL@@V?$allocator@D@2@@_STL@@V?$allocator@V?$basic_string@DV?$char_traits@D@_STL@@V?$allocator@D@2@@_STL@@@2@@_STL@@QAE?AU?$_List_iterator@V?$basic_string@DV?$char_traits@D@_STL@@V?$allocator@D@2@@_STL@@U?$_Nonconst_traits@V?$basic_string@DV?$char_traits@D@_STL@@V?$allocator@D@2@@_STL@@@2@@2@XZ ENDP ; _STL::list<_STL::basic_string<char,_STL::char_traits<char>,_STL::allocator<char> >,_STL::allocator<_STL::basic_string<char,_STL::char_traits<char>,_STL::allocator<char> > > >::begin
_TEXT	ENDS
PUBLIC	??1?$_STLP_alloc_proxy@PAU?$_List_node@V?$basic_string@DV?$char_traits@D@_STL@@V?$allocator@D@2@@_STL@@@_STL@@U12@V?$allocator@U?$_List_node@V?$basic_string@DV?$char_traits@D@_STL@@V?$allocator@D@2@@_STL@@@_STL@@@2@@_STL@@QAE@XZ ; _STL::_STLP_alloc_proxy<_STL::_List_node<_STL::basic_string<char,_STL::char_traits<char>,_STL::allocator<char> > > *,_STL::_List_node<_STL::basic_string<char,_STL::char_traits<char>,_STL::allocator<char> > >,_STL::allocator<_STL::_List_node<_STL::basic_string<char,_STL::char_traits<char>,_STL::allocator<char> > > > >::~_STLP_alloc_proxy<_STL::_List_node<_STL::basic_string<char,_STL::char_traits<char>,_STL::allocator<char> > > *,_STL::_List_node<_STL::basic_string<char,_STL::char_traits<char>,_STL::allocator<char> > >,_STL::allocator<_STL::_List_node<_STL::basic_string<char,_STL::char_traits<char>,_STL::allocator<char> > > > >
; Function compile flags: /Ogsy
;	COMDAT ??1?$_STLP_alloc_proxy@PAU?$_List_node@V?$basic_string@DV?$char_traits@D@_STL@@V?$allocator@D@2@@_STL@@@_STL@@U12@V?$allocator@U?$_List_node@V?$basic_string@DV?$char_traits@D@_STL@@V?$allocator@D@2@@_STL@@@_STL@@@2@@_STL@@QAE@XZ
_TEXT	SEGMENT
??1?$_STLP_alloc_proxy@PAU?$_List_node@V?$basic_string@DV?$char_traits@D@_STL@@V?$allocator@D@2@@_STL@@@_STL@@U12@V?$allocator@U?$_List_node@V?$basic_string@DV?$char_traits@D@_STL@@V?$allocator@D@2@@_STL@@@_STL@@@2@@_STL@@QAE@XZ PROC NEAR ; _STL::_STLP_alloc_proxy<_STL::_List_node<_STL::basic_string<char,_STL::char_traits<char>,_STL::allocator<char> > > *,_STL::_List_node<_STL::basic_string<char,_STL::char_traits<char>,_STL::allocator<char> > >,_STL::allocator<_STL::_List_node<_STL::basic_string<char,_STL::char_traits<char>,_STL::allocator<char> > > > >::~_STLP_alloc_proxy<_STL::_List_node<_STL::basic_string<char,_STL::char_traits<char>,_STL::allocator<char> > > *,_STL::_List_node<_STL::basic_string<char,_STL::char_traits<char>,_STL::allocator<char> > >,_STL::allocator<_STL::_List_node<_STL::basic_string<char,_STL::char_traits<char>,_STL::allocator<char> > > > >, COMDAT
; _this$ = ecx
  00000	c3		 ret	 0
??1?$_STLP_alloc_proxy@PAU?$_List_node@V?$basic_string@DV?$char_traits@D@_STL@@V?$allocator@D@2@@_STL@@@_STL@@U12@V?$allocator@U?$_List_node@V?$basic_string@DV?$char_traits@D@_STL@@V?$allocator@D@2@@_STL@@@_STL@@@2@@_STL@@QAE@XZ ENDP ; _STL::_STLP_alloc_proxy<_STL::_List_node<_STL::basic_string<char,_STL::char_traits<char>,_STL::allocator<char> > > *,_STL::_List_node<_STL::basic_string<char,_STL::char_traits<char>,_STL::allocator<char> > >,_STL::allocator<_STL::_List_node<_STL::basic_string<char,_STL::char_traits<char>,_STL::allocator<char> > > > >::~_STLP_alloc_proxy<_STL::_List_node<_STL::basic_string<char,_STL::char_traits<char>,_STL::allocator<char> > > *,_STL::_List_node<_STL::basic_string<char,_STL::char_traits<char>,_STL::allocator<char> > >,_STL::allocator<_STL::_List_node<_STL::basic_string<char,_STL::char_traits<char>,_STL::allocator<char> > > > >
_TEXT	ENDS
PUBLIC	??0?$_STLP_alloc_proxy@PAU?$_List_node@V?$basic_string@DV?$char_traits@D@_STL@@V?$allocator@D@2@@_STL@@@_STL@@U12@V?$allocator@U?$_List_node@V?$basic_string@DV?$char_traits@D@_STL@@V?$allocator@D@2@@_STL@@@_STL@@@2@@_STL@@QAE@ABV?$allocator@U?$_List_node@V?$basic_string@DV?$char_traits@D@_STL@@V?$allocator@D@2@@_STL@@@_STL@@@1@PAU?$_List_node@V?$basic_string@DV?$char_traits@D@_STL@@V?$allocator@D@2@@_STL@@@1@@Z ; _STL::_STLP_alloc_proxy<_STL::_List_node<_STL::basic_string<char,_STL::char_traits<char>,_STL::allocator<char> > > *,_STL::_List_node<_STL::basic_string<char,_STL::char_traits<char>,_STL::allocator<char> > >,_STL::allocator<_STL::_List_node<_STL::basic_string<char,_STL::char_traits<char>,_STL::allocator<char> > > > >::_STLP_alloc_proxy<_STL::_List_node<_STL::basic_string<char,_STL::char_traits<char>,_STL::allocator<char> > > *,_STL::_List_node<_STL::basic_string<char,_STL::char_traits<char>,_STL::allocator<char> > >,_STL::allocator<_STL::_List_node<_STL::basic_string<char,_STL::char_traits<char>,_STL::allocator<char> > > > >
; Function compile flags: /Ogsy
; File c:\stlport-4.6.1\stlport\stl\_alloc.h
;	COMDAT ??0?$_STLP_alloc_proxy@PAU?$_List_node@V?$basic_string@DV?$char_traits@D@_STL@@V?$allocator@D@2@@_STL@@@_STL@@U12@V?$allocator@U?$_List_node@V?$basic_string@DV?$char_traits@D@_STL@@V?$allocator@D@2@@_STL@@@_STL@@@2@@_STL@@QAE@ABV?$allocator@U?$_List_node@V?$basic_string@DV?$char_traits@D@_STL@@V?$allocator@D@2@@_STL@@@_STL@@@1@PAU?$_List_node@V?$basic_string@DV?$char_traits@D@_STL@@V?$allocator@D@2@@_STL@@@1@@Z
_TEXT	SEGMENT
___a$ = 8						; size = 4
___p$ = 12						; size = 4
??0?$_STLP_alloc_proxy@PAU?$_List_node@V?$basic_string@DV?$char_traits@D@_STL@@V?$allocator@D@2@@_STL@@@_STL@@U12@V?$allocator@U?$_List_node@V?$basic_string@DV?$char_traits@D@_STL@@V?$allocator@D@2@@_STL@@@_STL@@@2@@_STL@@QAE@ABV?$allocator@U?$_List_node@V?$basic_string@DV?$char_traits@D@_STL@@V?$allocator@D@2@@_STL@@@_STL@@@1@PAU?$_List_node@V?$basic_string@DV?$char_traits@D@_STL@@V?$allocator@D@2@@_STL@@@1@@Z PROC NEAR ; _STL::_STLP_alloc_proxy<_STL::_List_node<_STL::basic_string<char,_STL::char_traits<char>,_STL::allocator<char> > > *,_STL::_List_node<_STL::basic_string<char,_STL::char_traits<char>,_STL::allocator<char> > >,_STL::allocator<_STL::_List_node<_STL::basic_string<char,_STL::char_traits<char>,_STL::allocator<char> > > > >::_STLP_alloc_proxy<_STL::_List_node<_STL::basic_string<char,_STL::char_traits<char>,_STL::allocator<char> > > *,_STL::_List_node<_STL::basic_string<char,_STL::char_traits<char>,_STL::allocator<char> > >,_STL::allocator<_STL::_List_node<_STL::basic_string<char,_STL::char_traits<char>,_STL::allocator<char> > > > >, COMDAT
; _this$ = ecx

; 487  :   inline _STLP_alloc_proxy(const _MaybeReboundAlloc& __a, _Value __p) : _MaybeReboundAlloc(__a), _M_data(__p) {}

  00000	8b c1		 mov	 eax, ecx
  00002	8b 4c 24 08	 mov	 ecx, DWORD PTR ___p$[esp-4]
  00006	89 08		 mov	 DWORD PTR [eax], ecx
  00008	c2 08 00	 ret	 8
??0?$_STLP_alloc_proxy@PAU?$_List_node@V?$basic_string@DV?$char_traits@D@_STL@@V?$allocator@D@2@@_STL@@@_STL@@U12@V?$allocator@U?$_List_node@V?$basic_string@DV?$char_traits@D@_STL@@V?$allocator@D@2@@_STL@@@_STL@@@2@@_STL@@QAE@ABV?$allocator@U?$_List_node@V?$basic_string@DV?$char_traits@D@_STL@@V?$allocator@D@2@@_STL@@@_STL@@@1@PAU?$_List_node@V?$basic_string@DV?$char_traits@D@_STL@@V?$allocator@D@2@@_STL@@@1@@Z ENDP ; _STL::_STLP_alloc_proxy<_STL::_List_node<_STL::basic_string<char,_STL::char_traits<char>,_STL::allocator<char> > > *,_STL::_List_node<_STL::basic_string<char,_STL::char_traits<char>,_STL::allocator<char> > >,_STL::allocator<_STL::_List_node<_STL::basic_string<char,_STL::char_traits<char>,_STL::allocator<char> > > > >::_STLP_alloc_proxy<_STL::_List_node<_STL::basic_string<char,_STL::char_traits<char>,_STL::allocator<char> > > *,_STL::_List_node<_STL::basic_string<char,_STL::char_traits<char>,_STL::allocator<char> > >,_STL::allocator<_STL::_List_node<_STL::basic_string<char,_STL::char_traits<char>,_STL::allocator<char> > > > >
_TEXT	ENDS
PUBLIC	?allocate@?$allocator@U?$_List_node@V?$basic_string@DV?$char_traits@D@_STL@@V?$allocator@D@2@@_STL@@@_STL@@@_STL@@QAEPAU?$_List_node@V?$basic_string@DV?$char_traits@D@_STL@@V?$allocator@D@2@@_STL@@@2@IPBX@Z ; _STL::allocator<_STL::_List_node<_STL::basic_string<char,_STL::char_traits<char>,_STL::allocator<char> > > >::allocate
; Function compile flags: /Ogsy
;	COMDAT ?allocate@?$allocator@U?$_List_node@V?$basic_string@DV?$char_traits@D@_STL@@V?$allocator@D@2@@_STL@@@_STL@@@_STL@@QAEPAU?$_List_node@V?$basic_string@DV?$char_traits@D@_STL@@V?$allocator@D@2@@_STL@@@2@IPBX@Z
_TEXT	SEGMENT
___n$ = 8						; size = 4
___formal$ = 12						; size = 4
?allocate@?$allocator@U?$_List_node@V?$basic_string@DV?$char_traits@D@_STL@@V?$allocator@D@2@@_STL@@@_STL@@@_STL@@QAEPAU?$_List_node@V?$basic_string@DV?$char_traits@D@_STL@@V?$allocator@D@2@@_STL@@@2@IPBX@Z PROC NEAR ; _STL::allocator<_STL::_List_node<_STL::basic_string<char,_STL::char_traits<char>,_STL::allocator<char> > > >::allocate, COMDAT
; _this$ = ecx

; 355  :     return __n != 0 ? __REINTERPRET_CAST(value_type*,__sgi_alloc::allocate(__n * sizeof(value_type))) : 0;

  00000	8b 44 24 04	 mov	 eax, DWORD PTR ___n$[esp-4]
  00004	85 c0		 test	 eax, eax
  00006	74 0f		 je	 SHORT $L115284
  00008	8d 04 80	 lea	 eax, DWORD PTR [eax+eax*4]
  0000b	c1 e0 02	 shl	 eax, 2
  0000e	50		 push	 eax
  0000f	e8 00 00 00 00	 call	 ?allocate@?$__node_alloc@$00$0A@@_STL@@SAPAXI@Z ; _STL::__node_alloc<1,0>::allocate
  00014	59		 pop	 ecx
  00015	eb 02		 jmp	 SHORT $L115285
$L115284:
  00017	33 c0		 xor	 eax, eax
$L115285:

; 356  :   }

  00019	c2 08 00	 ret	 8
?allocate@?$allocator@U?$_List_node@V?$basic_string@DV?$char_traits@D@_STL@@V?$allocator@D@2@@_STL@@@_STL@@@_STL@@QAEPAU?$_List_node@V?$basic_string@DV?$char_traits@D@_STL@@V?$allocator@D@2@@_STL@@@2@IPBX@Z ENDP ; _STL::allocator<_STL::_List_node<_STL::basic_string<char,_STL::char_traits<char>,_STL::allocator<char> > > >::allocate
_TEXT	ENDS
PUBLIC	?deallocate@?$allocator@U?$_List_node@V?$basic_string@DV?$char_traits@D@_STL@@V?$allocator@D@2@@_STL@@@_STL@@@_STL@@QAEXPAU?$_List_node@V?$basic_string@DV?$char_traits@D@_STL@@V?$allocator@D@2@@_STL@@@2@I@Z ; _STL::allocator<_STL::_List_node<_STL::basic_string<char,_STL::char_traits<char>,_STL::allocator<char> > > >::deallocate
; Function compile flags: /Ogsy
;	COMDAT ?deallocate@?$allocator@U?$_List_node@V?$basic_string@DV?$char_traits@D@_STL@@V?$allocator@D@2@@_STL@@@_STL@@@_STL@@QAEXPAU?$_List_node@V?$basic_string@DV?$char_traits@D@_STL@@V?$allocator@D@2@@_STL@@@2@I@Z
_TEXT	SEGMENT
___p$ = 8						; size = 4
___n$ = 12						; size = 4
?deallocate@?$allocator@U?$_List_node@V?$basic_string@DV?$char_traits@D@_STL@@V?$allocator@D@2@@_STL@@@_STL@@@_STL@@QAEXPAU?$_List_node@V?$basic_string@DV?$char_traits@D@_STL@@V?$allocator@D@2@@_STL@@@2@I@Z PROC NEAR ; _STL::allocator<_STL::_List_node<_STL::basic_string<char,_STL::char_traits<char>,_STL::allocator<char> > > >::deallocate, COMDAT
; _this$ = ecx

; 359  :     _STLP_ASSERT( (__p == 0) == (__n == 0) )
; 360  :       if (__p != 0) __sgi_alloc::deallocate((void*)__p, __n * sizeof(value_type));

  00000	83 7c 24 04 00	 cmp	 DWORD PTR ___p$[esp-4], 0
  00005	74 16		 je	 SHORT $L98656
  00007	8b 44 24 08	 mov	 eax, DWORD PTR ___n$[esp-4]
  0000b	8d 04 80	 lea	 eax, DWORD PTR [eax+eax*4]
  0000e	c1 e0 02	 shl	 eax, 2
  00011	50		 push	 eax
  00012	ff 74 24 08	 push	 DWORD PTR ___p$[esp]
  00016	e8 00 00 00 00	 call	 ?deallocate@?$__node_alloc@$00$0A@@_STL@@SAXPAXI@Z ; _STL::__node_alloc<1,0>::deallocate
  0001b	59		 pop	 ecx
  0001c	59		 pop	 ecx
$L98656:

; 361  :   }

  0001d	c2 08 00	 ret	 8
?deallocate@?$allocator@U?$_List_node@V?$basic_string@DV?$char_traits@D@_STL@@V?$allocator@D@2@@_STL@@@_STL@@@_STL@@QAEXPAU?$_List_node@V?$basic_string@DV?$char_traits@D@_STL@@V?$allocator@D@2@@_STL@@@2@I@Z ENDP ; _STL::allocator<_STL::_List_node<_STL::basic_string<char,_STL::char_traits<char>,_STL::allocator<char> > > >::deallocate
_TEXT	ENDS
PUBLIC	?deallocate@?$allocator@D@_STL@@QAEXPADI@Z	; _STL::allocator<char>::deallocate
; Function compile flags: /Ogsy
;	COMDAT ?deallocate@?$allocator@D@_STL@@QAEXPADI@Z
_TEXT	SEGMENT
___p$ = 8						; size = 4
___n$ = 12						; size = 4
?deallocate@?$allocator@D@_STL@@QAEXPADI@Z PROC NEAR	; _STL::allocator<char>::deallocate, COMDAT
; _this$ = ecx

; 359  :     _STLP_ASSERT( (__p == 0) == (__n == 0) )
; 360  :       if (__p != 0) __sgi_alloc::deallocate((void*)__p, __n * sizeof(value_type));

  00000	83 7c 24 04 00	 cmp	 DWORD PTR ___p$[esp-4], 0
  00005	74 0f		 je	 SHORT $L98663
  00007	ff 74 24 08	 push	 DWORD PTR ___n$[esp-4]
  0000b	ff 74 24 08	 push	 DWORD PTR ___p$[esp]
  0000f	e8 00 00 00 00	 call	 ?deallocate@?$__node_alloc@$00$0A@@_STL@@SAXPAXI@Z ; _STL::__node_alloc<1,0>::deallocate
  00014	59		 pop	 ecx
  00015	59		 pop	 ecx
$L98663:

; 361  :   }

  00016	c2 08 00	 ret	 8
?deallocate@?$allocator@D@_STL@@QAEXPADI@Z ENDP		; _STL::allocator<char>::deallocate
_TEXT	ENDS
PUBLIC	??0?$_String_base@DV?$allocator@D@_STL@@@_STL@@QAE@ABV?$allocator@D@1@@Z ; _STL::_String_base<char,_STL::allocator<char> >::_String_base<char,_STL::allocator<char> >
; Function compile flags: /Ogsy
; File c:\stlport-4.6.1\stlport\stl\_string.h
;	COMDAT ??0?$_String_base@DV?$allocator@D@_STL@@@_STL@@QAE@ABV?$allocator@D@1@@Z
_TEXT	SEGMENT
___a$ = 8						; size = 4
??0?$_String_base@DV?$allocator@D@_STL@@@_STL@@QAE@ABV?$allocator@D@1@@Z PROC NEAR ; _STL::_String_base<char,_STL::allocator<char> >::_String_base<char,_STL::allocator<char> >, COMDAT
; _this$ = ecx

; 129  :     : _M_start(0), _M_finish(0), _M_end_of_storage(__a, (_Tp*)0) {}

  00000	56		 push	 esi
  00001	33 c0		 xor	 eax, eax
  00003	8b f1		 mov	 esi, ecx
  00005	50		 push	 eax
  00006	ff 74 24 0c	 push	 DWORD PTR ___a$[esp+4]
  0000a	8d 4e 08	 lea	 ecx, DWORD PTR [esi+8]
  0000d	89 06		 mov	 DWORD PTR [esi], eax
  0000f	89 46 04	 mov	 DWORD PTR [esi+4], eax
  00012	e8 00 00 00 00	 call	 ??0?$_STLP_alloc_proxy@PADDV?$allocator@D@_STL@@@_STL@@QAE@ABV?$allocator@D@1@PAD@Z ; _STL::_STLP_alloc_proxy<char *,char,_STL::allocator<char> >::_STLP_alloc_proxy<char *,char,_STL::allocator<char> >
  00017	8b c6		 mov	 eax, esi
  00019	5e		 pop	 esi
  0001a	c2 04 00	 ret	 4
??0?$_String_base@DV?$allocator@D@_STL@@@_STL@@QAE@ABV?$allocator@D@1@@Z ENDP ; _STL::_String_base<char,_STL::allocator<char> >::_String_base<char,_STL::allocator<char> >
_TEXT	ENDS
PUBLIC	?size@?$deque@PAVPacket@@V?$allocator@PAVPacket@@@_STL@@@_STL@@QBEIXZ ; _STL::deque<Packet *,_STL::allocator<Packet *> >::size
; Function compile flags: /Ogsy
; File c:\stlport-4.6.1\stlport\stl\_deque.h
;	COMDAT ?size@?$deque@PAVPacket@@V?$allocator@PAVPacket@@@_STL@@@_STL@@QBEIXZ
_TEXT	SEGMENT
?size@?$deque@PAVPacket@@V?$allocator@PAVPacket@@@_STL@@@_STL@@QBEIXZ PROC NEAR ; _STL::deque<Packet *,_STL::allocator<Packet *> >::size, COMDAT
; _this$ = ecx

; 426  :   size_type size() const { return this->_M_finish - this->_M_start; }

  00000	51		 push	 ecx
  00001	83 c1 10	 add	 ecx, 16			; 00000010H
  00004	e8 00 00 00 00	 call	 ?_M_subtract@?$_Deque_iterator_base@PAVPacket@@@_STL@@QBEHABU12@@Z ; _STL::_Deque_iterator_base<Packet *>::_M_subtract
  00009	c3		 ret	 0
?size@?$deque@PAVPacket@@V?$allocator@PAVPacket@@@_STL@@@_STL@@QBEIXZ ENDP ; _STL::deque<Packet *,_STL::allocator<Packet *> >::size
_TEXT	ENDS
PUBLIC	??F?$_Deque_iterator@PAVPacket@@U?$_Nonconst_traits@PAVPacket@@@_STL@@@_STL@@QAEAAU01@XZ ; _STL::_Deque_iterator<Packet *,_STL::_Nonconst_traits<Packet *> >::operator--
; Function compile flags: /Ogsy
;	COMDAT ??F?$_Deque_iterator@PAVPacket@@U?$_Nonconst_traits@PAVPacket@@@_STL@@@_STL@@QAEAAU01@XZ
_TEXT	SEGMENT
??F?$_Deque_iterator@PAVPacket@@U?$_Nonconst_traits@PAVPacket@@@_STL@@@_STL@@QAEAAU01@XZ PROC NEAR ; _STL::_Deque_iterator<Packet *,_STL::_Nonconst_traits<Packet *> >::operator--, COMDAT
; _this$ = ecx

; 193  :   _Self& operator--() { this->_M_decrement(); return *this; }

  00000	56		 push	 esi
  00001	8b f1		 mov	 esi, ecx
  00003	e8 00 00 00 00	 call	 ?_M_decrement@?$_Deque_iterator_base@PAVPacket@@@_STL@@QAEXXZ ; _STL::_Deque_iterator_base<Packet *>::_M_decrement
  00008	8b c6		 mov	 eax, esi
  0000a	5e		 pop	 esi
  0000b	c3		 ret	 0
??F?$_Deque_iterator@PAVPacket@@U?$_Nonconst_traits@PAVPacket@@@_STL@@@_STL@@QAEAAU01@XZ ENDP ; _STL::_Deque_iterator<Packet *,_STL::_Nonconst_traits<Packet *> >::operator--
_TEXT	ENDS
PUBLIC	??H?$_Deque_iterator@PAVPacket@@U?$_Nonconst_traits@PAVPacket@@@_STL@@@_STL@@QBE?AU01@H@Z ; _STL::_Deque_iterator<Packet *,_STL::_Nonconst_traits<Packet *> >::operator+
; Function compile flags: /Ogsy
;	COMDAT ??H?$_Deque_iterator@PAVPacket@@U?$_Nonconst_traits@PAVPacket@@@_STL@@@_STL@@QBE?AU01@H@Z
_TEXT	SEGMENT
___tmp$ = -16						; size = 16
___$ReturnUdt$ = 8					; size = 4
___n$ = 12						; size = 4
??H?$_Deque_iterator@PAVPacket@@U?$_Nonconst_traits@PAVPacket@@@_STL@@@_STL@@QBE?AU01@H@Z PROC NEAR ; _STL::_Deque_iterator<Packet *,_STL::_Nonconst_traits<Packet *> >::operator+, COMDAT
; _this$ = ecx

; 202  :   {

  00000	55		 push	 ebp
  00001	8b ec		 mov	 ebp, esp
  00003	83 ec 10	 sub	 esp, 16			; 00000010H
  00006	56		 push	 esi
  00007	57		 push	 edi

; 203  :     _Self __tmp = *this;
; 204  :     return __tmp += __n;

  00008	ff 75 0c	 push	 DWORD PTR ___n$[ebp]
  0000b	8b f1		 mov	 esi, ecx
  0000d	8d 7d f0	 lea	 edi, DWORD PTR ___tmp$[ebp]
  00010	a5		 movsd
  00011	a5		 movsd
  00012	a5		 movsd
  00013	8d 4d f0	 lea	 ecx, DWORD PTR ___tmp$[ebp]
  00016	a5		 movsd
  00017	e8 00 00 00 00	 call	 ?_M_advance@?$_Deque_iterator_base@PAVPacket@@@_STL@@QAEXH@Z ; _STL::_Deque_iterator_base<Packet *>::_M_advance
  0001c	8b 45 08	 mov	 eax, DWORD PTR ___$ReturnUdt$[ebp]
  0001f	8d 75 f0	 lea	 esi, DWORD PTR ___tmp$[ebp]
  00022	8b f8		 mov	 edi, eax
  00024	a5		 movsd
  00025	a5		 movsd
  00026	a5		 movsd
  00027	a5		 movsd
  00028	5f		 pop	 edi
  00029	5e		 pop	 esi

; 205  :   }

  0002a	c9		 leave
  0002b	c2 08 00	 ret	 8
??H?$_Deque_iterator@PAVPacket@@U?$_Nonconst_traits@PAVPacket@@@_STL@@@_STL@@QBE?AU01@H@Z ENDP ; _STL::_Deque_iterator<Packet *,_STL::_Nonconst_traits<Packet *> >::operator+
_TEXT	ENDS
PUBLIC	??1?$_Deque_base@PAVPacket@@V?$allocator@PAVPacket@@@_STL@@@_STL@@QAE@XZ ; _STL::_Deque_base<Packet *,_STL::allocator<Packet *> >::~_Deque_base<Packet *,_STL::allocator<Packet *> >
; Function compile flags: /Ogsy
; File c:\stlport-4.6.1\stlport\stl\_deque.c
;	COMDAT ??1?$_Deque_base@PAVPacket@@V?$allocator@PAVPacket@@@_STL@@@_STL@@QAE@XZ
_TEXT	SEGMENT
??1?$_Deque_base@PAVPacket@@V?$allocator@PAVPacket@@@_STL@@@_STL@@QAE@XZ PROC NEAR ; _STL::_Deque_base<Packet *,_STL::allocator<Packet *> >::~_Deque_base<Packet *,_STL::allocator<Packet *> >, COMDAT
; _this$ = ecx

; 38   : _Deque_base<_Tp,_Alloc >::~_Deque_base() {

  00000	56		 push	 esi
  00001	8b f1		 mov	 esi, ecx
  00003	57		 push	 edi

; 39   :   if (_M_map._M_data) {

  00004	8d 7e 20	 lea	 edi, DWORD PTR [esi+32]
  00007	83 3f 00	 cmp	 DWORD PTR [edi], 0
  0000a	74 1b		 je	 SHORT $L112693

; 40   :     _M_destroy_nodes(_M_start._M_node, this->_M_finish._M_node + 1);

  0000c	8b 46 1c	 mov	 eax, DWORD PTR [esi+28]
  0000f	83 c0 04	 add	 eax, 4
  00012	50		 push	 eax
  00013	ff 76 0c	 push	 DWORD PTR [esi+12]
  00016	e8 00 00 00 00	 call	 ?_M_destroy_nodes@?$_Deque_base@PAVPacket@@V?$allocator@PAVPacket@@@_STL@@@_STL@@IAEXPAPAPAVPacket@@0@Z ; _STL::_Deque_base<Packet *,_STL::allocator<Packet *> >::_M_destroy_nodes

; 41   :     _M_map.deallocate(_M_map._M_data, _M_map_size._M_data);

  0001b	ff 76 24	 push	 DWORD PTR [esi+36]
  0001e	8b cf		 mov	 ecx, edi
  00020	ff 37		 push	 DWORD PTR [edi]
  00022	e8 00 00 00 00	 call	 ?deallocate@?$allocator@PAPAVPacket@@@_STL@@QAEXPAPAPAVPacket@@I@Z ; _STL::allocator<Packet * *>::deallocate
$L112693:
  00027	5f		 pop	 edi
  00028	5e		 pop	 esi

; 42   :   }
; 43   : }

  00029	c3		 ret	 0
??1?$_Deque_base@PAVPacket@@V?$allocator@PAVPacket@@@_STL@@@_STL@@QAE@XZ ENDP ; _STL::_Deque_base<Packet *,_STL::allocator<Packet *> >::~_Deque_base<Packet *,_STL::allocator<Packet *> >
_TEXT	ENDS
PUBLIC	?_M_pop_front_aux@?$deque@PAVPacket@@V?$allocator@PAVPacket@@@_STL@@@_STL@@IAEXXZ ; _STL::deque<Packet *,_STL::allocator<Packet *> >::_M_pop_front_aux
; Function compile flags: /Ogsy
;	COMDAT ?_M_pop_front_aux@?$deque@PAVPacket@@V?$allocator@PAVPacket@@@_STL@@@_STL@@IAEXXZ
_TEXT	SEGMENT
?_M_pop_front_aux@?$deque@PAVPacket@@V?$allocator@PAVPacket@@@_STL@@@_STL@@IAEXXZ PROC NEAR ; _STL::deque<Packet *,_STL::allocator<Packet *> >::_M_pop_front_aux, COMDAT
; _this$ = ecx

; 358  : {

  00000	56		 push	 esi
  00001	8b f1		 mov	 esi, ecx

; 359  :   _STLP_STD::_Destroy(this->_M_start._M_cur);
; 360  :   this->_M_map_size.deallocate(this->_M_start._M_first, this->buffer_size());

  00003	6a 20		 push	 32			; 00000020H
  00005	ff 76 04	 push	 DWORD PTR [esi+4]
  00008	8d 4e 24	 lea	 ecx, DWORD PTR [esi+36]
  0000b	e8 00 00 00 00	 call	 ?deallocate@?$allocator@PAVPacket@@@_STL@@QAEXPAPAVPacket@@I@Z ; _STL::allocator<Packet *>::deallocate

; 361  :   this->_M_start._M_set_node(this->_M_start._M_node + 1);

  00010	8b 46 0c	 mov	 eax, DWORD PTR [esi+12]
  00013	83 c0 04	 add	 eax, 4
  00016	89 46 0c	 mov	 DWORD PTR [esi+12], eax
  00019	8b 00		 mov	 eax, DWORD PTR [eax]
  0001b	89 46 04	 mov	 DWORD PTR [esi+4], eax
  0001e	05 80 00 00 00	 add	 eax, 128		; 00000080H
  00023	89 46 08	 mov	 DWORD PTR [esi+8], eax

; 362  :   this->_M_start._M_cur = this->_M_start._M_first;

  00026	8b 46 04	 mov	 eax, DWORD PTR [esi+4]
  00029	89 06		 mov	 DWORD PTR [esi], eax
  0002b	5e		 pop	 esi

; 363  : }      

  0002c	c3		 ret	 0
?_M_pop_front_aux@?$deque@PAVPacket@@V?$allocator@PAVPacket@@@_STL@@@_STL@@IAEXXZ ENDP ; _STL::deque<Packet *,_STL::allocator<Packet *> >::_M_pop_front_aux
_TEXT	ENDS
PUBLIC	??$?9U?$_Deque_iterator@PAVPacket@@U?$_Nonconst_traits@PAVPacket@@@_STL@@@_STL@@@_STL@@YA_NABV?$reverse_iterator@U?$_Deque_iterator@PAVPacket@@U?$_Nonconst_traits@PAVPacket@@@_STL@@@_STL@@@0@0@Z ; _STL::operator!=<_STL::_Deque_iterator<Packet *,_STL::_Nonconst_traits<Packet *> > >
; Function compile flags: /Ogsy
; File c:\stlport-4.6.1\stlport\stl\_iterator.h
;	COMDAT ??$?9U?$_Deque_iterator@PAVPacket@@U?$_Nonconst_traits@PAVPacket@@@_STL@@@_STL@@@_STL@@YA_NABV?$reverse_iterator@U?$_Deque_iterator@PAVPacket@@U?$_Nonconst_traits@PAVPacket@@@_STL@@@_STL@@@0@0@Z
_TEXT	SEGMENT
___x$ = 8						; size = 4
___y$ = 12						; size = 4
??$?9U?$_Deque_iterator@PAVPacket@@U?$_Nonconst_traits@PAVPacket@@@_STL@@@_STL@@@_STL@@YA_NABV?$reverse_iterator@U?$_Deque_iterator@PAVPacket@@U?$_Nonconst_traits@PAVPacket@@@_STL@@@_STL@@@0@0@Z PROC NEAR ; _STL::operator!=<_STL::_Deque_iterator<Packet *,_STL::_Nonconst_traits<Packet *> > >, COMDAT

; 135  :   return !(__x == __y);

  00000	ff 74 24 08	 push	 DWORD PTR ___y$[esp-4]
  00004	ff 74 24 08	 push	 DWORD PTR ___x$[esp]
  00008	e8 00 00 00 00	 call	 ??$?8U?$_Deque_iterator@PAVPacket@@U?$_Nonconst_traits@PAVPacket@@@_STL@@@_STL@@@_STL@@YA_NABV?$reverse_iterator@U?$_Deque_iterator@PAVPacket@@U?$_Nonconst_traits@PAVPacket@@@_STL@@@_STL@@@0@0@Z ; _STL::operator==<_STL::_Deque_iterator<Packet *,_STL::_Nonconst_traits<Packet *> > >
  0000d	f6 d8		 neg	 al
  0000f	59		 pop	 ecx
  00010	59		 pop	 ecx
  00011	1b c0		 sbb	 eax, eax
  00013	40		 inc	 eax

; 136  : }

  00014	c3		 ret	 0
??$?9U?$_Deque_iterator@PAVPacket@@U?$_Nonconst_traits@PAVPacket@@@_STL@@@_STL@@@_STL@@YA_NABV?$reverse_iterator@U?$_Deque_iterator@PAVPacket@@U?$_Nonconst_traits@PAVPacket@@@_STL@@@_STL@@@0@0@Z ENDP ; _STL::operator!=<_STL::_Deque_iterator<Packet *,_STL::_Nonconst_traits<Packet *> > >
_TEXT	ENDS
PUBLIC	??$_Destroy@U?$_Deque_iterator@PAVPacket@@U?$_Nonconst_traits@PAVPacket@@@_STL@@@_STL@@@_STL@@YAXU?$_Deque_iterator@PAVPacket@@U?$_Nonconst_traits@PAVPacket@@@_STL@@@0@0@Z ; _STL::_Destroy<_STL::_Deque_iterator<Packet *,_STL::_Nonconst_traits<Packet *> > >
; Function compile flags: /Ogsy
; File c:\stlport-4.6.1\stlport\stl\_construct.h
;	COMDAT ??$_Destroy@U?$_Deque_iterator@PAVPacket@@U?$_Nonconst_traits@PAVPacket@@@_STL@@@_STL@@@_STL@@YAXU?$_Deque_iterator@PAVPacket@@U?$_Nonconst_traits@PAVPacket@@@_STL@@@0@0@Z
_TEXT	SEGMENT
___first$ = 8						; size = 16
___last$ = 24						; size = 16
??$_Destroy@U?$_Deque_iterator@PAVPacket@@U?$_Nonconst_traits@PAVPacket@@@_STL@@@_STL@@@_STL@@YAXU?$_Deque_iterator@PAVPacket@@U?$_Nonconst_traits@PAVPacket@@@_STL@@@0@0@Z PROC NEAR ; _STL::_Destroy<_STL::_Deque_iterator<Packet *,_STL::_Nonconst_traits<Packet *> > >, COMDAT

